; Listing generated by Microsoft (R) Optimizing Compiler Version 13.10.6030 

	TITLE	\Documents and Settings\test\Mes documents\Source\Virtuos_v17\Build\Program\_Common\PathObj.cpp
	.386P
include listing.inc
if @Version gt 510
.model FLAT
else
_TEXT	SEGMENT PARA USE32 PUBLIC 'CODE'
_TEXT	ENDS
_DATA	SEGMENT DWORD USE32 PUBLIC 'DATA'
_DATA	ENDS
CONST	SEGMENT DWORD USE32 PUBLIC 'CONST'
CONST	ENDS
_BSS	SEGMENT DWORD USE32 PUBLIC 'BSS'
_BSS	ENDS
$$SYMBOLS	SEGMENT BYTE USE32 'DEBSYM'
$$SYMBOLS	ENDS
$$TYPES	SEGMENT BYTE USE32 'DEBTYP'
$$TYPES	ENDS
_TLS	SEGMENT DWORD USE32 PUBLIC 'TLS'
_TLS	ENDS
;	COMDAT ??_C@_05JBOMLEMN@INDEX?$AA@
CONST	SEGMENT DWORD USE32 PUBLIC 'CONST'
CONST	ENDS
;	COMDAT ??_C@_01CELHOKLL@?$HN?$AA@
CONST	SEGMENT DWORD USE32 PUBLIC 'CONST'
CONST	ENDS
text$yd	SEGMENT PARA USE32 PUBLIC 'CODE'
text$yd	ENDS
xdata$x	SEGMENT DWORD USE32 PUBLIC 'CONST'
xdata$x	ENDS
text$AFX_COL1	SEGMENT PARA USE32 PUBLIC ''
text$AFX_COL1	ENDS
;	COMDAT ??0CPatrolPath@@QAE@XZ
_TEXT	SEGMENT PARA USE32 PUBLIC 'CODE'
_TEXT	ENDS
;	COMDAT ??1?$map@KV?$vector@U_VECINFO@@V?$allocator@U_VECINFO@@@std@@@std@@U?$less@K@2@V?$allocator@U?$pair@$$CBKV?$vector@U_VECINFO@@V?$allocator@U_VECINFO@@@std@@@std@@@std@@@2@@std@@QAE@XZ
_TEXT	SEGMENT PARA USE32 PUBLIC 'CODE'
_TEXT	ENDS
;	COMDAT ??1CPatrolPath@@QAE@XZ
_TEXT	SEGMENT PARA USE32 PUBLIC 'CODE'
_TEXT	ENDS
;	COMDAT ?Clear@CPatrolPath@@QAEXXZ
_TEXT	SEGMENT PARA USE32 PUBLIC 'CODE'
_TEXT	ENDS
;	COMDAT ?GetInstance@CPatrolPath@@SAPAV1@XZ
_TEXT	SEGMENT PARA USE32 PUBLIC 'CODE'
_TEXT	ENDS
;	COMDAT _$E2
text$yd	SEGMENT PARA USE32 PUBLIC 'CODE'
text$yd	ENDS
;	COMDAT ?SetReturn@CPatrolPath@@QAEXKH@Z
_TEXT	SEGMENT PARA USE32 PUBLIC 'CODE'
_TEXT	ENDS
;	COMDAT ?AddPatrolPath@CPatrolPath@@QAEXKU_VECINFO@@@Z
_TEXT	SEGMENT PARA USE32 PUBLIC 'CODE'
_TEXT	ENDS
;	COMDAT ??1_VECINFO@@QAE@XZ
_TEXT	SEGMENT PARA USE32 PUBLIC 'CODE'
_TEXT	ENDS
;	COMDAT ??1?$pair@$$CBKV?$vector@U_VECINFO@@V?$allocator@U_VECINFO@@@std@@@std@@@std@@QAE@XZ
_TEXT	SEGMENT PARA USE32 PUBLIC 'CODE'
_TEXT	ENDS
;	COMDAT ?GetNextPosInfo@CPatrolPath@@QAEXPAVCObj@@UD3DXVECTOR3@@AAU3@AAU_VECINFO@@@Z
_TEXT	SEGMENT PARA USE32 PUBLIC 'CODE'
_TEXT	ENDS
;	COMDAT ??4_VECINFO@@QAEAAU0@ABU0@@Z
_TEXT	SEGMENT PARA USE32 PUBLIC 'CODE'
_TEXT	ENDS
;	COMDAT ??4CTimer@@QAEAAV0@ABV0@@Z
_TEXT	SEGMENT PARA USE32 PUBLIC 'CODE'
_TEXT	ENDS
;	COMDAT ?AddPatrolIndex@CPatrolPath@@QAEXK@Z
_TEXT	SEGMENT PARA USE32 PUBLIC 'CODE'
_TEXT	ENDS
;	COMDAT ?IsFirstPath@CPatrolPath@@QAEHK@Z
_TEXT	SEGMENT PARA USE32 PUBLIC 'CODE'
_TEXT	ENDS
;	COMDAT ?LoadPatrol@CPatrolPath@@QAEHPBD@Z
_TEXT	SEGMENT PARA USE32 PUBLIC 'CODE'
_TEXT	ENDS
;	COMDAT ??0_VECINFO@@QAE@XZ
_TEXT	SEGMENT PARA USE32 PUBLIC 'CODE'
_TEXT	ENDS
;	COMDAT ??0_VECINFO@@QAE@ABU0@@Z
_TEXT	SEGMENT PARA USE32 PUBLIC 'CODE'
_TEXT	ENDS
;	COMDAT ??0CTimer@@QAE@ABV0@@Z
_TEXT	SEGMENT PARA USE32 PUBLIC 'CODE'
_TEXT	ENDS
;	COMDAT ??8ATL@@YA_NABV?$CStringT@DV?$StrTraitMFC@DV?$ChTraitsCRT@D@ATL@@@@@0@PBD@Z
_TEXT	SEGMENT PARA USE32 PUBLIC 'CODE'
_TEXT	ENDS
;	COMDAT ??9ATL@@YA_NABV?$CStringT@DV?$StrTraitMFC@DV?$ChTraitsCRT@D@ATL@@@@@0@PBD@Z
_TEXT	SEGMENT PARA USE32 PUBLIC 'CODE'
_TEXT	ENDS
;	COMDAT ?compare@?$basic_string@DU?$char_traits@D@std@@V?$allocator@D@2@@std@@QBEHABV12@@Z
_TEXT	SEGMENT PARA USE32 PUBLIC 'CODE'
_TEXT	ENDS
;	COMDAT ?IsFull@?$CStack@K@@QAEHXZ
_TEXT	SEGMENT PARA USE32 PUBLIC 'CODE'
_TEXT	ENDS
;	COMDAT ??0?$pair@KPAVCCtrl@@@std@@QAE@ABKABQAVCCtrl@@@Z
_TEXT	SEGMENT PARA USE32 PUBLIC 'CODE'
_TEXT	ENDS
;	COMDAT ??0?$map@KHU?$less@K@std@@V?$allocator@U?$pair@$$CBKH@std@@@2@@std@@QAE@XZ
_TEXT	SEGMENT PARA USE32 PUBLIC 'CODE'
_TEXT	ENDS
;	COMDAT ?size@?$vector@UD3DXVECTOR3@@V?$allocator@UD3DXVECTOR3@@@std@@@std@@QBEIXZ
_TEXT	SEGMENT PARA USE32 PUBLIC 'CODE'
_TEXT	ENDS
;	COMDAT ??A?$vector@UD3DXVECTOR3@@V?$allocator@UD3DXVECTOR3@@@std@@@std@@QAEAAUD3DXVECTOR3@@I@Z
_TEXT	SEGMENT PARA USE32 PUBLIC 'CODE'
_TEXT	ENDS
;	COMDAT ?push_back@?$vector@UD3DXVECTOR3@@V?$allocator@UD3DXVECTOR3@@@std@@@std@@QAEXABUD3DXVECTOR3@@@Z
_TEXT	SEGMENT PARA USE32 PUBLIC 'CODE'
_TEXT	ENDS
;	COMDAT ?clear@?$vector@UD3DXVECTOR3@@V?$allocator@UD3DXVECTOR3@@@std@@@std@@QAEXXZ
_TEXT	SEGMENT PARA USE32 PUBLIC 'CODE'
_TEXT	ENDS
;	COMDAT ?GetMax@?$CItemContainer@VCItemElem@@@@QAEHXZ
_TEXT	SEGMENT PARA USE32 PUBLIC 'CODE'
_TEXT	ENDS
;	COMDAT ??0?$deque@PAUtagACTMSG@@V?$allocator@PAUtagACTMSG@@@std@@@std@@QAE@XZ
_TEXT	SEGMENT PARA USE32 PUBLIC 'CODE'
_TEXT	ENDS
;	COMDAT ??1?$deque@PAUtagACTMSG@@V?$allocator@PAUtagACTMSG@@@std@@@std@@QAE@XZ
_TEXT	SEGMENT PARA USE32 PUBLIC 'CODE'
_TEXT	ENDS
;	COMDAT ?begin@?$deque@PAUtagACTMSG@@V?$allocator@PAUtagACTMSG@@@std@@@std@@QAE?AViterator@12@XZ
_TEXT	SEGMENT PARA USE32 PUBLIC 'CODE'
_TEXT	ENDS
;	COMDAT ?end@?$deque@PAUtagACTMSG@@V?$allocator@PAUtagACTMSG@@@std@@@std@@QAE?AViterator@12@XZ
_TEXT	SEGMENT PARA USE32 PUBLIC 'CODE'
_TEXT	ENDS
;	COMDAT ?empty@?$deque@PAUtagACTMSG@@V?$allocator@PAUtagACTMSG@@@std@@@std@@QBE_NXZ
_TEXT	SEGMENT PARA USE32 PUBLIC 'CODE'
_TEXT	ENDS
;	COMDAT ?clear@?$deque@PAUtagACTMSG@@V?$allocator@PAUtagACTMSG@@@std@@@std@@QAEXXZ
_TEXT	SEGMENT PARA USE32 PUBLIC 'CODE'
_TEXT	ENDS
;	COMDAT ??0?$deque@PAUtagMAGICATKMSG@@V?$allocator@PAUtagMAGICATKMSG@@@std@@@std@@QAE@XZ
_TEXT	SEGMENT PARA USE32 PUBLIC 'CODE'
_TEXT	ENDS
;	COMDAT ??1?$deque@PAUtagMAGICATKMSG@@V?$allocator@PAUtagMAGICATKMSG@@@std@@@std@@QAE@XZ
_TEXT	SEGMENT PARA USE32 PUBLIC 'CODE'
_TEXT	ENDS
;	COMDAT ?begin@?$deque@PAUtagMAGICATKMSG@@V?$allocator@PAUtagMAGICATKMSG@@@std@@@std@@QAE?AViterator@12@XZ
_TEXT	SEGMENT PARA USE32 PUBLIC 'CODE'
_TEXT	ENDS
;	COMDAT ?end@?$deque@PAUtagMAGICATKMSG@@V?$allocator@PAUtagMAGICATKMSG@@@std@@@std@@QAE?AViterator@12@XZ
_TEXT	SEGMENT PARA USE32 PUBLIC 'CODE'
_TEXT	ENDS
;	COMDAT ?empty@?$deque@PAUtagMAGICATKMSG@@V?$allocator@PAUtagMAGICATKMSG@@@std@@@std@@QBE_NXZ
_TEXT	SEGMENT PARA USE32 PUBLIC 'CODE'
_TEXT	ENDS
;	COMDAT ?clear@?$deque@PAUtagMAGICATKMSG@@V?$allocator@PAUtagMAGICATKMSG@@@std@@@std@@QAEXXZ
_TEXT	SEGMENT PARA USE32 PUBLIC 'CODE'
_TEXT	ENDS
;	COMDAT ??0?$map@KV?$vector@U_VECINFO@@V?$allocator@U_VECINFO@@@std@@@std@@U?$less@K@2@V?$allocator@U?$pair@$$CBKV?$vector@U_VECINFO@@V?$allocator@U_VECINFO@@@std@@@std@@@std@@@2@@std@@QAE@XZ
_TEXT	SEGMENT PARA USE32 PUBLIC 'CODE'
_TEXT	ENDS
;	COMDAT ??1?$_Tree@V?$_Tmap_traits@KV?$vector@U_VECINFO@@V?$allocator@U_VECINFO@@@std@@@std@@U?$less@K@2@V?$allocator@U?$pair@$$CBKV?$vector@U_VECINFO@@V?$allocator@U_VECINFO@@@std@@@std@@@std@@@2@$0A@@std@@@std@@QAE@XZ
_TEXT	SEGMENT PARA USE32 PUBLIC 'CODE'
_TEXT	ENDS
;	COMDAT ?end@?$_Tree@V?$_Tmap_traits@KV?$vector@U_VECINFO@@V?$allocator@U_VECINFO@@@std@@@std@@U?$less@K@2@V?$allocator@U?$pair@$$CBKV?$vector@U_VECINFO@@V?$allocator@U_VECINFO@@@std@@@std@@@std@@@2@$0A@@std@@@std@@QAE?AViterator@12@XZ
_TEXT	SEGMENT PARA USE32 PUBLIC 'CODE'
_TEXT	ENDS
;	COMDAT ?insert@?$_Tree@V?$_Tmap_traits@KV?$vector@U_VECINFO@@V?$allocator@U_VECINFO@@@std@@@std@@U?$less@K@2@V?$allocator@U?$pair@$$CBKV?$vector@U_VECINFO@@V?$allocator@U_VECINFO@@@std@@@std@@@std@@@2@$0A@@std@@@std@@QAE?AU?$pair@Viterator@?$_Tree@V?$_Tmap_traits@KV?$vector@U_VECINFO@@V?$allocator@U_VECINFO@@@std@@@std@@U?$less@K@2@V?$allocator@U?$pair@$$CBKV?$vector@U_VECINFO@@V?$allocator@U_VECINFO@@@std@@@std@@@std@@@2@$0A@@std@@@std@@_N@2@ABU?$pair@$$CBKV?$vector@U_VECINFO@@V?$allocator@U_VECINFO@@@std@@@std@@@2@@Z
_TEXT	SEGMENT PARA USE32 PUBLIC 'CODE'
_TEXT	ENDS
;	COMDAT ?clear@?$_Tree@V?$_Tmap_traits@KV?$vector@U_VECINFO@@V?$allocator@U_VECINFO@@@std@@@std@@U?$less@K@2@V?$allocator@U?$pair@$$CBKV?$vector@U_VECINFO@@V?$allocator@U_VECINFO@@@std@@@std@@@std@@@2@$0A@@std@@@std@@QAEXXZ
_TEXT	SEGMENT PARA USE32 PUBLIC 'CODE'
_TEXT	ENDS
;	COMDAT ?find@?$_Tree@V?$_Tmap_traits@KV?$vector@U_VECINFO@@V?$allocator@U_VECINFO@@@std@@@std@@U?$less@K@2@V?$allocator@U?$pair@$$CBKV?$vector@U_VECINFO@@V?$allocator@U_VECINFO@@@std@@@std@@@std@@@2@$0A@@std@@@std@@QAE?AViterator@12@ABK@Z
_TEXT	SEGMENT PARA USE32 PUBLIC 'CODE'
_TEXT	ENDS
;	COMDAT ??Diterator@?$deque@PAUtagACTMSG@@V?$allocator@PAUtagACTMSG@@@std@@@std@@QBEAAPAUtagACTMSG@@XZ
_TEXT	SEGMENT PARA USE32 PUBLIC 'CODE'
_TEXT	ENDS
;	COMDAT ??Eiterator@?$deque@PAUtagACTMSG@@V?$allocator@PAUtagACTMSG@@@std@@@std@@QAEAAV012@XZ
_TEXT	SEGMENT PARA USE32 PUBLIC 'CODE'
_TEXT	ENDS
;	COMDAT ??9const_iterator@?$deque@PAUtagACTMSG@@V?$allocator@PAUtagACTMSG@@@std@@@std@@QBE_NABV012@@Z
_TEXT	SEGMENT PARA USE32 PUBLIC 'CODE'
_TEXT	ENDS
;	COMDAT ??Diterator@?$deque@PAUtagMAGICATKMSG@@V?$allocator@PAUtagMAGICATKMSG@@@std@@@std@@QBEAAPAUtagMAGICATKMSG@@XZ
_TEXT	SEGMENT PARA USE32 PUBLIC 'CODE'
_TEXT	ENDS
;	COMDAT ??Eiterator@?$deque@PAUtagMAGICATKMSG@@V?$allocator@PAUtagMAGICATKMSG@@@std@@@std@@QAEAAV012@XZ
_TEXT	SEGMENT PARA USE32 PUBLIC 'CODE'
_TEXT	ENDS
;	COMDAT ??9const_iterator@?$deque@PAUtagMAGICATKMSG@@V?$allocator@PAUtagMAGICATKMSG@@@std@@@std@@QBE_NABV012@@Z
_TEXT	SEGMENT PARA USE32 PUBLIC 'CODE'
_TEXT	ENDS
;	COMDAT ??Citerator@?$_Tree@V?$_Tmap_traits@KV?$vector@U_VECINFO@@V?$allocator@U_VECINFO@@@std@@@std@@U?$less@K@2@V?$allocator@U?$pair@$$CBKV?$vector@U_VECINFO@@V?$allocator@U_VECINFO@@@std@@@std@@@std@@@2@$0A@@std@@@std@@QBEPAU?$pair@$$CBKV?$vector@U_VECINFO@@V?$allocator@U_VECINFO@@@std@@@std@@@2@XZ
_TEXT	SEGMENT PARA USE32 PUBLIC 'CODE'
_TEXT	ENDS
;	COMDAT ??8const_iterator@?$_Tree@V?$_Tmap_traits@KV?$vector@U_VECINFO@@V?$allocator@U_VECINFO@@@std@@@std@@U?$less@K@2@V?$allocator@U?$pair@$$CBKV?$vector@U_VECINFO@@V?$allocator@U_VECINFO@@@std@@@std@@@std@@@2@$0A@@std@@@std@@QBE_NABV012@@Z
_TEXT	SEGMENT PARA USE32 PUBLIC 'CODE'
_TEXT	ENDS
;	COMDAT ??9const_iterator@?$_Tree@V?$_Tmap_traits@KV?$vector@U_VECINFO@@V?$allocator@U_VECINFO@@@std@@@std@@U?$less@K@2@V?$allocator@U?$pair@$$CBKV?$vector@U_VECINFO@@V?$allocator@U_VECINFO@@@std@@@std@@@std@@@2@$0A@@std@@@std@@QBE_NABV012@@Z
_TEXT	SEGMENT PARA USE32 PUBLIC 'CODE'
_TEXT	ENDS
;	COMDAT ??0?$vector@U_VECINFO@@V?$allocator@U_VECINFO@@@std@@@std@@QAE@XZ
_TEXT	SEGMENT PARA USE32 PUBLIC 'CODE'
_TEXT	ENDS
;	COMDAT ??0?$vector@U_VECINFO@@V?$allocator@U_VECINFO@@@std@@@std@@QAE@ABV01@@Z
_TEXT	SEGMENT PARA USE32 PUBLIC 'CODE'
_TEXT	ENDS
;	COMDAT ??1?$vector@U_VECINFO@@V?$allocator@U_VECINFO@@@std@@@std@@QAE@XZ
_TEXT	SEGMENT PARA USE32 PUBLIC 'CODE'
_TEXT	ENDS
;	COMDAT ?size@?$vector@U_VECINFO@@V?$allocator@U_VECINFO@@@std@@@std@@QBEIXZ
_TEXT	SEGMENT PARA USE32 PUBLIC 'CODE'
_TEXT	ENDS
;	COMDAT ??A?$vector@U_VECINFO@@V?$allocator@U_VECINFO@@@std@@@std@@QAEAAU_VECINFO@@I@Z
_TEXT	SEGMENT PARA USE32 PUBLIC 'CODE'
_TEXT	ENDS
;	COMDAT ?push_back@?$vector@U_VECINFO@@V?$allocator@U_VECINFO@@@std@@@std@@QAEXABU_VECINFO@@@Z
_TEXT	SEGMENT PARA USE32 PUBLIC 'CODE'
_TEXT	ENDS
;	COMDAT ?clear@?$vector@U_VECINFO@@V?$allocator@U_VECINFO@@@std@@@std@@QAEXXZ
_TEXT	SEGMENT PARA USE32 PUBLIC 'CODE'
_TEXT	ENDS
;	COMDAT ??0?$pair@$$CBKV?$vector@U_VECINFO@@V?$allocator@U_VECINFO@@@std@@@std@@@std@@QAE@ABKABV?$vector@U_VECINFO@@V?$allocator@U_VECINFO@@@std@@@1@@Z
_TEXT	SEGMENT PARA USE32 PUBLIC 'CODE'
_TEXT	ENDS
;	COMDAT ?Compare@?$CStringT@DV?$StrTraitMFC@DV?$ChTraitsCRT@D@ATL@@@@@ATL@@QBEHPBD@Z
_TEXT	SEGMENT PARA USE32 PUBLIC 'CODE'
_TEXT	ENDS
;	COMDAT ?compare@?$basic_string@DU?$char_traits@D@std@@V?$allocator@D@2@@std@@QBEHIIPBDI@Z
_TEXT	SEGMENT PARA USE32 PUBLIC 'CODE'
_TEXT	ENDS
;	COMDAT ??0?$_Tree@V?$_Tmap_traits@KHU?$less@K@std@@V?$allocator@U?$pair@$$CBKH@std@@@2@$0A@@std@@@std@@QAE@ABU?$less@K@1@ABV?$allocator@U?$pair@$$CBKH@std@@@1@@Z
_TEXT	SEGMENT PARA USE32 PUBLIC 'CODE'
_TEXT	ENDS
;	COMDAT ??0?$allocator@U?$pair@$$CBKH@std@@@std@@QAE@XZ
_TEXT	SEGMENT PARA USE32 PUBLIC 'CODE'
_TEXT	ENDS
;	COMDAT ?capacity@?$vector@UD3DXVECTOR3@@V?$allocator@UD3DXVECTOR3@@@std@@@std@@QBEIXZ
_TEXT	SEGMENT PARA USE32 PUBLIC 'CODE'
_TEXT	ENDS
;	COMDAT ?begin@?$vector@UD3DXVECTOR3@@V?$allocator@UD3DXVECTOR3@@@std@@@std@@QAE?AViterator@12@XZ
_TEXT	SEGMENT PARA USE32 PUBLIC 'CODE'
_TEXT	ENDS
;	COMDAT ?end@?$vector@UD3DXVECTOR3@@V?$allocator@UD3DXVECTOR3@@@std@@@std@@QAE?AViterator@12@XZ
_TEXT	SEGMENT PARA USE32 PUBLIC 'CODE'
_TEXT	ENDS
;	COMDAT ?insert@?$vector@UD3DXVECTOR3@@V?$allocator@UD3DXVECTOR3@@@std@@@std@@QAE?AViterator@12@V312@ABUD3DXVECTOR3@@@Z
_TEXT	SEGMENT PARA USE32 PUBLIC 'CODE'
_TEXT	ENDS
;	COMDAT ?_Ufill@?$vector@UD3DXVECTOR3@@V?$allocator@UD3DXVECTOR3@@@std@@@std@@IAEPAUD3DXVECTOR3@@PAU3@IABU3@@Z
_TEXT	SEGMENT PARA USE32 PUBLIC 'CODE'
_TEXT	ENDS
;	COMDAT ?_Tidy@?$deque@PAUtagACTMSG@@V?$allocator@PAUtagACTMSG@@@std@@@std@@IAEXXZ
_TEXT	SEGMENT PARA USE32 PUBLIC 'CODE'
_TEXT	ENDS
;	COMDAT ??0?$_Deque_val@PAUtagACTMSG@@V?$allocator@PAUtagACTMSG@@@std@@@std@@IAE@V?$allocator@PAUtagACTMSG@@@1@@Z
_TEXT	SEGMENT PARA USE32 PUBLIC 'CODE'
_TEXT	ENDS
;	COMDAT ??0?$allocator@PAUtagACTMSG@@@std@@QAE@XZ
_TEXT	SEGMENT PARA USE32 PUBLIC 'CODE'
_TEXT	ENDS
;	COMDAT ?_Tidy@?$deque@PAUtagMAGICATKMSG@@V?$allocator@PAUtagMAGICATKMSG@@@std@@@std@@IAEXXZ
_TEXT	SEGMENT PARA USE32 PUBLIC 'CODE'
_TEXT	ENDS
;	COMDAT ??0?$_Deque_val@PAUtagMAGICATKMSG@@V?$allocator@PAUtagMAGICATKMSG@@@std@@@std@@IAE@V?$allocator@PAUtagMAGICATKMSG@@@1@@Z
_TEXT	SEGMENT PARA USE32 PUBLIC 'CODE'
_TEXT	ENDS
;	COMDAT ??0?$allocator@PAUtagMAGICATKMSG@@@std@@QAE@XZ
_TEXT	SEGMENT PARA USE32 PUBLIC 'CODE'
_TEXT	ENDS
;	COMDAT ?_Isnil@?$_Tree@V?$_Tmap_traits@KV?$vector@U_VECINFO@@V?$allocator@U_VECINFO@@@std@@@std@@U?$less@K@2@V?$allocator@U?$pair@$$CBKV?$vector@U_VECINFO@@V?$allocator@U_VECINFO@@@std@@@std@@@std@@@2@$0A@@std@@@std@@KAAADPAU_Node@?$_Tree_nod@V?$_Tmap_traits@KV?$vector@U_VECINFO@@V?$allocator@U_VECINFO@@@std@@@std@@U?$less@K@2@V?$allocator@U?$pair@$$CBKV?$vector@U_VECINFO@@V?$allocator@U_VECINFO@@@std@@@std@@@std@@@2@$0A@@std@@@2@@Z
_TEXT	SEGMENT PARA USE32 PUBLIC 'CODE'
_TEXT	ENDS
;	COMDAT ?_Key@?$_Tree@V?$_Tmap_traits@KV?$vector@U_VECINFO@@V?$allocator@U_VECINFO@@@std@@@std@@U?$less@K@2@V?$allocator@U?$pair@$$CBKV?$vector@U_VECINFO@@V?$allocator@U_VECINFO@@@std@@@std@@@std@@@2@$0A@@std@@@std@@KAABKPAU_Node@?$_Tree_nod@V?$_Tmap_traits@KV?$vector@U_VECINFO@@V?$allocator@U_VECINFO@@@std@@@std@@U?$less@K@2@V?$allocator@U?$pair@$$CBKV?$vector@U_VECINFO@@V?$allocator@U_VECINFO@@@std@@@std@@@std@@@2@$0A@@std@@@2@@Z
_TEXT	SEGMENT PARA USE32 PUBLIC 'CODE'
_TEXT	ENDS
;	COMDAT ?_Left@?$_Tree@V?$_Tmap_traits@KV?$vector@U_VECINFO@@V?$allocator@U_VECINFO@@@std@@@std@@U?$less@K@2@V?$allocator@U?$pair@$$CBKV?$vector@U_VECINFO@@V?$allocator@U_VECINFO@@@std@@@std@@@std@@@2@$0A@@std@@@std@@KAAAPAU_Node@?$_Tree_nod@V?$_Tmap_traits@KV?$vector@U_VECINFO@@V?$allocator@U_VECINFO@@@std@@@std@@U?$less@K@2@V?$allocator@U?$pair@$$CBKV?$vector@U_VECINFO@@V?$allocator@U_VECINFO@@@std@@@std@@@std@@@2@$0A@@std@@@2@PAU342@@Z
_TEXT	SEGMENT PARA USE32 PUBLIC 'CODE'
_TEXT	ENDS
;	COMDAT ?_Right@?$_Tree@V?$_Tmap_traits@KV?$vector@U_VECINFO@@V?$allocator@U_VECINFO@@@std@@@std@@U?$less@K@2@V?$allocator@U?$pair@$$CBKV?$vector@U_VECINFO@@V?$allocator@U_VECINFO@@@std@@@std@@@std@@@2@$0A@@std@@@std@@KAAAPAU_Node@?$_Tree_nod@V?$_Tmap_traits@KV?$vector@U_VECINFO@@V?$allocator@U_VECINFO@@@std@@@std@@U?$less@K@2@V?$allocator@U?$pair@$$CBKV?$vector@U_VECINFO@@V?$allocator@U_VECINFO@@@std@@@std@@@std@@@2@$0A@@std@@@2@PAU342@@Z
_TEXT	SEGMENT PARA USE32 PUBLIC 'CODE'
_TEXT	ENDS
;	COMDAT ??0?$_Tree@V?$_Tmap_traits@KV?$vector@U_VECINFO@@V?$allocator@U_VECINFO@@@std@@@std@@U?$less@K@2@V?$allocator@U?$pair@$$CBKV?$vector@U_VECINFO@@V?$allocator@U_VECINFO@@@std@@@std@@@std@@@2@$0A@@std@@@std@@QAE@ABU?$less@K@1@ABV?$allocator@U?$pair@$$CBKV?$vector@U_VECINFO@@V?$allocator@U_VECINFO@@@std@@@std@@@std@@@1@@Z
_TEXT	SEGMENT PARA USE32 PUBLIC 'CODE'
_TEXT	ENDS
;	COMDAT ?begin@?$_Tree@V?$_Tmap_traits@KV?$vector@U_VECINFO@@V?$allocator@U_VECINFO@@@std@@@std@@U?$less@K@2@V?$allocator@U?$pair@$$CBKV?$vector@U_VECINFO@@V?$allocator@U_VECINFO@@@std@@@std@@@std@@@2@$0A@@std@@@std@@QAE?AViterator@12@XZ
_TEXT	SEGMENT PARA USE32 PUBLIC 'CODE'
_TEXT	ENDS
;	COMDAT ?lower_bound@?$_Tree@V?$_Tmap_traits@KV?$vector@U_VECINFO@@V?$allocator@U_VECINFO@@@std@@@std@@U?$less@K@2@V?$allocator@U?$pair@$$CBKV?$vector@U_VECINFO@@V?$allocator@U_VECINFO@@@std@@@std@@@std@@@2@$0A@@std@@@std@@QAE?AViterator@12@ABK@Z
_TEXT	SEGMENT PARA USE32 PUBLIC 'CODE'
_TEXT	ENDS
;	COMDAT ?_Erase@?$_Tree@V?$_Tmap_traits@KV?$vector@U_VECINFO@@V?$allocator@U_VECINFO@@@std@@@std@@U?$less@K@2@V?$allocator@U?$pair@$$CBKV?$vector@U_VECINFO@@V?$allocator@U_VECINFO@@@std@@@std@@@std@@@2@$0A@@std@@@std@@IAEXPAU_Node@?$_Tree_nod@V?$_Tmap_traits@KV?$vector@U_VECINFO@@V?$allocator@U_VECINFO@@@std@@@std@@U?$less@K@2@V?$allocator@U?$pair@$$CBKV?$vector@U_VECINFO@@V?$allocator@U_VECINFO@@@std@@@std@@@std@@@2@$0A@@std@@@2@@Z
_TEXT	SEGMENT PARA USE32 PUBLIC 'CODE'
_TEXT	ENDS
;	COMDAT ?_Insert@?$_Tree@V?$_Tmap_traits@KV?$vector@U_VECINFO@@V?$allocator@U_VECINFO@@@std@@@std@@U?$less@K@2@V?$allocator@U?$pair@$$CBKV?$vector@U_VECINFO@@V?$allocator@U_VECINFO@@@std@@@std@@@std@@@2@$0A@@std@@@std@@IAE?AViterator@12@_NPAU_Node@?$_Tree_nod@V?$_Tmap_traits@KV?$vector@U_VECINFO@@V?$allocator@U_VECINFO@@@std@@@std@@U?$less@K@2@V?$allocator@U?$pair@$$CBKV?$vector@U_VECINFO@@V?$allocator@U_VECINFO@@@std@@@std@@@std@@@2@$0A@@std@@@2@ABU?$pair@$$CBKV?$vector@U_VECINFO@@V?$allocator@U_VECINFO@@@std@@@std@@@2@@Z
_TEXT	SEGMENT PARA USE32 PUBLIC 'CODE'
_TEXT	ENDS
;	COMDAT ?_Lmost@?$_Tree@V?$_Tmap_traits@KV?$vector@U_VECINFO@@V?$allocator@U_VECINFO@@@std@@@std@@U?$less@K@2@V?$allocator@U?$pair@$$CBKV?$vector@U_VECINFO@@V?$allocator@U_VECINFO@@@std@@@std@@@std@@@2@$0A@@std@@@std@@IAEAAPAU_Node@?$_Tree_nod@V?$_Tmap_traits@KV?$vector@U_VECINFO@@V?$allocator@U_VECINFO@@@std@@@std@@U?$less@K@2@V?$allocator@U?$pair@$$CBKV?$vector@U_VECINFO@@V?$allocator@U_VECINFO@@@std@@@std@@@std@@@2@$0A@@std@@@2@XZ
_TEXT	SEGMENT PARA USE32 PUBLIC 'CODE'
_TEXT	ENDS
;	COMDAT ?_Rmost@?$_Tree@V?$_Tmap_traits@KV?$vector@U_VECINFO@@V?$allocator@U_VECINFO@@@std@@@std@@U?$less@K@2@V?$allocator@U?$pair@$$CBKV?$vector@U_VECINFO@@V?$allocator@U_VECINFO@@@std@@@std@@@std@@@2@$0A@@std@@@std@@IAEAAPAU_Node@?$_Tree_nod@V?$_Tmap_traits@KV?$vector@U_VECINFO@@V?$allocator@U_VECINFO@@@std@@@std@@U?$less@K@2@V?$allocator@U?$pair@$$CBKV?$vector@U_VECINFO@@V?$allocator@U_VECINFO@@@std@@@std@@@std@@@2@$0A@@std@@@2@XZ
_TEXT	SEGMENT PARA USE32 PUBLIC 'CODE'
_TEXT	ENDS
;	COMDAT ?_Root@?$_Tree@V?$_Tmap_traits@KV?$vector@U_VECINFO@@V?$allocator@U_VECINFO@@@std@@@std@@U?$less@K@2@V?$allocator@U?$pair@$$CBKV?$vector@U_VECINFO@@V?$allocator@U_VECINFO@@@std@@@std@@@std@@@2@$0A@@std@@@std@@IAEAAPAU_Node@?$_Tree_nod@V?$_Tmap_traits@KV?$vector@U_VECINFO@@V?$allocator@U_VECINFO@@@std@@@std@@U?$less@K@2@V?$allocator@U?$pair@$$CBKV?$vector@U_VECINFO@@V?$allocator@U_VECINFO@@@std@@@std@@@std@@@2@$0A@@std@@@2@XZ
_TEXT	SEGMENT PARA USE32 PUBLIC 'CODE'
_TEXT	ENDS
;	COMDAT ?_Tidy@?$_Tree@V?$_Tmap_traits@KV?$vector@U_VECINFO@@V?$allocator@U_VECINFO@@@std@@@std@@U?$less@K@2@V?$allocator@U?$pair@$$CBKV?$vector@U_VECINFO@@V?$allocator@U_VECINFO@@@std@@@std@@@std@@@2@$0A@@std@@@std@@IAEXXZ
_TEXT	SEGMENT PARA USE32 PUBLIC 'CODE'
_TEXT	ENDS
;	COMDAT ?_Kfn@?$_Tmap_traits@KV?$vector@U_VECINFO@@V?$allocator@U_VECINFO@@@std@@@std@@U?$less@K@2@V?$allocator@U?$pair@$$CBKV?$vector@U_VECINFO@@V?$allocator@U_VECINFO@@@std@@@std@@@std@@@2@$0A@@std@@SAABKABU?$pair@$$CBKV?$vector@U_VECINFO@@V?$allocator@U_VECINFO@@@std@@@std@@@2@@Z
_TEXT	SEGMENT PARA USE32 PUBLIC 'CODE'
_TEXT	ENDS
;	COMDAT ??0?$allocator@U?$pair@$$CBKV?$vector@U_VECINFO@@V?$allocator@U_VECINFO@@@std@@@std@@@std@@@std@@QAE@XZ
_TEXT	SEGMENT PARA USE32 PUBLIC 'CODE'
_TEXT	ENDS
;	COMDAT ??0iterator@?$deque@PAUtagACTMSG@@V?$allocator@PAUtagACTMSG@@@std@@@std@@QAE@IPBV12@@Z
_TEXT	SEGMENT PARA USE32 PUBLIC 'CODE'
_TEXT	ENDS
;	COMDAT ??Dconst_iterator@?$deque@PAUtagACTMSG@@V?$allocator@PAUtagACTMSG@@@std@@@std@@QBEABQAUtagACTMSG@@XZ
_TEXT	SEGMENT PARA USE32 PUBLIC 'CODE'
_TEXT	ENDS
;	COMDAT ??8const_iterator@?$deque@PAUtagACTMSG@@V?$allocator@PAUtagACTMSG@@@std@@@std@@QBE_NABV012@@Z
_TEXT	SEGMENT PARA USE32 PUBLIC 'CODE'
_TEXT	ENDS
;	COMDAT ??0iterator@?$deque@PAUtagMAGICATKMSG@@V?$allocator@PAUtagMAGICATKMSG@@@std@@@std@@QAE@IPBV12@@Z
_TEXT	SEGMENT PARA USE32 PUBLIC 'CODE'
_TEXT	ENDS
;	COMDAT ??Dconst_iterator@?$deque@PAUtagMAGICATKMSG@@V?$allocator@PAUtagMAGICATKMSG@@@std@@@std@@QBEABQAUtagMAGICATKMSG@@XZ
_TEXT	SEGMENT PARA USE32 PUBLIC 'CODE'
_TEXT	ENDS
;	COMDAT ??8const_iterator@?$deque@PAUtagMAGICATKMSG@@V?$allocator@PAUtagMAGICATKMSG@@@std@@@std@@QBE_NABV012@@Z
_TEXT	SEGMENT PARA USE32 PUBLIC 'CODE'
_TEXT	ENDS
;	COMDAT ??0iterator@?$_Tree@V?$_Tmap_traits@KV?$vector@U_VECINFO@@V?$allocator@U_VECINFO@@@std@@@std@@U?$less@K@2@V?$allocator@U?$pair@$$CBKV?$vector@U_VECINFO@@V?$allocator@U_VECINFO@@@std@@@std@@@std@@@2@$0A@@std@@@std@@QAE@PAU_Node@?$_Tree_nod@V?$_Tmap_traits@KV?$vector@U_VECINFO@@V?$allocator@U_VECINFO@@@std@@@std@@U?$less@K@2@V?$allocator@U?$pair@$$CBKV?$vector@U_VECINFO@@V?$allocator@U_VECINFO@@@std@@@std@@@std@@@2@$0A@@std@@@2@@Z
_TEXT	SEGMENT PARA USE32 PUBLIC 'CODE'
_TEXT	ENDS
;	COMDAT ??Diterator@?$_Tree@V?$_Tmap_traits@KV?$vector@U_VECINFO@@V?$allocator@U_VECINFO@@@std@@@std@@U?$less@K@2@V?$allocator@U?$pair@$$CBKV?$vector@U_VECINFO@@V?$allocator@U_VECINFO@@@std@@@std@@@std@@@2@$0A@@std@@@std@@QBEAAU?$pair@$$CBKV?$vector@U_VECINFO@@V?$allocator@U_VECINFO@@@std@@@std@@@2@XZ
_TEXT	SEGMENT PARA USE32 PUBLIC 'CODE'
_TEXT	ENDS
;	COMDAT ??Fiterator@?$_Tree@V?$_Tmap_traits@KV?$vector@U_VECINFO@@V?$allocator@U_VECINFO@@@std@@@std@@U?$less@K@2@V?$allocator@U?$pair@$$CBKV?$vector@U_VECINFO@@V?$allocator@U_VECINFO@@@std@@@std@@@std@@@2@$0A@@std@@@std@@QAEAAV012@XZ
_TEXT	SEGMENT PARA USE32 PUBLIC 'CODE'
_TEXT	ENDS
;	COMDAT ?_Mynode@const_iterator@?$_Tree@V?$_Tmap_traits@KV?$vector@U_VECINFO@@V?$allocator@U_VECINFO@@@std@@@std@@U?$less@K@2@V?$allocator@U?$pair@$$CBKV?$vector@U_VECINFO@@V?$allocator@U_VECINFO@@@std@@@std@@@std@@@2@$0A@@std@@@std@@QBEPAU_Node@?$_Tree_nod@V?$_Tmap_traits@KV?$vector@U_VECINFO@@V?$allocator@U_VECINFO@@@std@@@std@@U?$less@K@2@V?$allocator@U?$pair@$$CBKV?$vector@U_VECINFO@@V?$allocator@U_VECINFO@@@std@@@std@@@std@@@2@$0A@@std@@@3@XZ
_TEXT	SEGMENT PARA USE32 PUBLIC 'CODE'
_TEXT	ENDS
;	COMDAT ?capacity@?$vector@U_VECINFO@@V?$allocator@U_VECINFO@@@std@@@std@@QBEIXZ
_TEXT	SEGMENT PARA USE32 PUBLIC 'CODE'
_TEXT	ENDS
;	COMDAT ?begin@?$vector@U_VECINFO@@V?$allocator@U_VECINFO@@@std@@@std@@QAE?AViterator@12@XZ
_TEXT	SEGMENT PARA USE32 PUBLIC 'CODE'
_TEXT	ENDS
;	COMDAT ?begin@?$vector@U_VECINFO@@V?$allocator@U_VECINFO@@@std@@@std@@QBE?AVconst_iterator@12@XZ
_TEXT	SEGMENT PARA USE32 PUBLIC 'CODE'
_TEXT	ENDS
;	COMDAT ?end@?$vector@U_VECINFO@@V?$allocator@U_VECINFO@@@std@@@std@@QAE?AViterator@12@XZ
_TEXT	SEGMENT PARA USE32 PUBLIC 'CODE'
_TEXT	ENDS
;	COMDAT ?end@?$vector@U_VECINFO@@V?$allocator@U_VECINFO@@@std@@@std@@QBE?AVconst_iterator@12@XZ
_TEXT	SEGMENT PARA USE32 PUBLIC 'CODE'
_TEXT	ENDS
;	COMDAT ?insert@?$vector@U_VECINFO@@V?$allocator@U_VECINFO@@@std@@@std@@QAE?AViterator@12@V312@ABU_VECINFO@@@Z
_TEXT	SEGMENT PARA USE32 PUBLIC 'CODE'
_TEXT	ENDS
;	COMDAT ?_Buy@?$vector@U_VECINFO@@V?$allocator@U_VECINFO@@@std@@@std@@IAE_NI@Z
_TEXT	SEGMENT PARA USE32 PUBLIC 'CODE'
_TEXT	ENDS
;	COMDAT ?_Tidy@?$vector@U_VECINFO@@V?$allocator@U_VECINFO@@@std@@@std@@IAEXXZ
_TEXT	SEGMENT PARA USE32 PUBLIC 'CODE'
_TEXT	ENDS
;	COMDAT ?_Ufill@?$vector@U_VECINFO@@V?$allocator@U_VECINFO@@@std@@@std@@IAEPAU_VECINFO@@PAU3@IABU3@@Z
_TEXT	SEGMENT PARA USE32 PUBLIC 'CODE'
_TEXT	ENDS
;	COMDAT ??0?$_Vector_val@U_VECINFO@@V?$allocator@U_VECINFO@@@std@@@std@@IAE@V?$allocator@U_VECINFO@@@1@@Z
_TEXT	SEGMENT PARA USE32 PUBLIC 'CODE'
_TEXT	ENDS
;	COMDAT ??0?$allocator@U_VECINFO@@@std@@QAE@XZ
_TEXT	SEGMENT PARA USE32 PUBLIC 'CODE'
_TEXT	ENDS
;	COMDAT ??0?$allocator@U_VECINFO@@@std@@QAE@ABV01@@Z
_TEXT	SEGMENT PARA USE32 PUBLIC 'CODE'
_TEXT	ENDS
;	COMDAT ??0?$pair@Viterator@?$_Tree@V?$_Tmap_traits@KV?$vector@U_VECINFO@@V?$allocator@U_VECINFO@@@std@@@std@@U?$less@K@2@V?$allocator@U?$pair@$$CBKV?$vector@U_VECINFO@@V?$allocator@U_VECINFO@@@std@@@std@@@std@@@2@$0A@@std@@@std@@_N@std@@QAE@ABViterator@?$_Tree@V?$_Tmap_traits@KV?$vector@U_VECINFO@@V?$allocator@U_VECINFO@@@std@@@std@@U?$less@K@2@V?$allocator@U?$pair@$$CBKV?$vector@U_VECINFO@@V?$allocator@U_VECINFO@@@std@@@std@@@std@@@2@$0A@@std@@@1@AB_N@Z
_TEXT	SEGMENT PARA USE32 PUBLIC 'CODE'
_TEXT	ENDS
;	COMDAT ??Diterator@?$vector@UD3DXVECTOR3@@V?$allocator@UD3DXVECTOR3@@@std@@@std@@QBEAAUD3DXVECTOR3@@XZ
_TEXT	SEGMENT PARA USE32 PUBLIC 'CODE'
_TEXT	ENDS
;	COMDAT ??Hiterator@?$vector@UD3DXVECTOR3@@V?$allocator@UD3DXVECTOR3@@@std@@@std@@QBE?AV012@H@Z
_TEXT	SEGMENT PARA USE32 PUBLIC 'CODE'
_TEXT	ENDS
;	COMDAT ??Diterator@?$vector@U_VECINFO@@V?$allocator@U_VECINFO@@@std@@@std@@QBEAAU_VECINFO@@XZ
_TEXT	SEGMENT PARA USE32 PUBLIC 'CODE'
_TEXT	ENDS
;	COMDAT ??Hiterator@?$vector@U_VECINFO@@V?$allocator@U_VECINFO@@@std@@@std@@QBE?AV012@H@Z
_TEXT	SEGMENT PARA USE32 PUBLIC 'CODE'
_TEXT	ENDS
;	COMDAT ?StringCompare@?$ChTraitsCRT@D@ATL@@SAHPBD0@Z
_TEXT	SEGMENT PARA USE32 PUBLIC 'CODE'
_TEXT	ENDS
;	COMDAT ?_Init@?$_Tree@V?$_Tmap_traits@KHU?$less@K@std@@V?$allocator@U?$pair@$$CBKH@std@@@2@$0A@@std@@@std@@IAEXXZ
_TEXT	SEGMENT PARA USE32 PUBLIC 'CODE'
_TEXT	ENDS
;	COMDAT ??0?$_Tree_val@V?$_Tmap_traits@KHU?$less@K@std@@V?$allocator@U?$pair@$$CBKH@std@@@2@$0A@@std@@@std@@IAE@ABU?$less@K@1@V?$allocator@U?$pair@$$CBKH@std@@@1@@Z
_TEXT	SEGMENT PARA USE32 PUBLIC 'CODE'
_TEXT	ENDS
;	COMDAT ??0?$allocator@U?$pair@$$CBKH@std@@@std@@QAE@ABV01@@Z
_TEXT	SEGMENT PARA USE32 PUBLIC 'CODE'
_TEXT	ENDS
;	COMDAT ?_Insert_n@?$vector@UD3DXVECTOR3@@V?$allocator@UD3DXVECTOR3@@@std@@@std@@IAEXViterator@12@IABUD3DXVECTOR3@@@Z
_TEXT	SEGMENT PARA USE32 PUBLIC 'CODE'
_TEXT	ENDS
;	COMDAT ?pop_back@?$deque@PAUtagACTMSG@@V?$allocator@PAUtagACTMSG@@@std@@@std@@QAEXXZ
_TEXT	SEGMENT PARA USE32 PUBLIC 'CODE'
_TEXT	ENDS
;	COMDAT ??0?$_Deque_map@PAUtagACTMSG@@V?$allocator@PAUtagACTMSG@@@std@@@std@@IAE@V?$allocator@PAUtagACTMSG@@@1@@Z
_TEXT	SEGMENT PARA USE32 PUBLIC 'CODE'
_TEXT	ENDS
;	COMDAT ??0?$allocator@PAUtagACTMSG@@@std@@QAE@ABV01@@Z
_TEXT	SEGMENT PARA USE32 PUBLIC 'CODE'
_TEXT	ENDS
;	COMDAT ?deallocate@?$allocator@PAUtagACTMSG@@@std@@QAEXPAPAUtagACTMSG@@I@Z
_TEXT	SEGMENT PARA USE32 PUBLIC 'CODE'
_TEXT	ENDS
;	COMDAT ?deallocate@?$allocator@PAPAUtagACTMSG@@@std@@QAEXPAPAPAUtagACTMSG@@I@Z
_TEXT	SEGMENT PARA USE32 PUBLIC 'CODE'
_TEXT	ENDS
;	COMDAT ?destroy@?$allocator@PAPAUtagACTMSG@@@std@@QAEXPAPAPAUtagACTMSG@@@Z
_TEXT	SEGMENT PARA USE32 PUBLIC 'CODE'
_TEXT	ENDS
;	COMDAT ?pop_back@?$deque@PAUtagMAGICATKMSG@@V?$allocator@PAUtagMAGICATKMSG@@@std@@@std@@QAEXXZ
_TEXT	SEGMENT PARA USE32 PUBLIC 'CODE'
_TEXT	ENDS
;	COMDAT ??0?$_Deque_map@PAUtagMAGICATKMSG@@V?$allocator@PAUtagMAGICATKMSG@@@std@@@std@@IAE@V?$allocator@PAUtagMAGICATKMSG@@@1@@Z
_TEXT	SEGMENT PARA USE32 PUBLIC 'CODE'
_TEXT	ENDS
;	COMDAT ??0?$allocator@PAUtagMAGICATKMSG@@@std@@QAE@ABV01@@Z
_TEXT	SEGMENT PARA USE32 PUBLIC 'CODE'
_TEXT	ENDS
;	COMDAT ?deallocate@?$allocator@PAUtagMAGICATKMSG@@@std@@QAEXPAPAUtagMAGICATKMSG@@I@Z
_TEXT	SEGMENT PARA USE32 PUBLIC 'CODE'
_TEXT	ENDS
;	COMDAT ?deallocate@?$allocator@PAPAUtagMAGICATKMSG@@@std@@QAEXPAPAPAUtagMAGICATKMSG@@I@Z
_TEXT	SEGMENT PARA USE32 PUBLIC 'CODE'
_TEXT	ENDS
;	COMDAT ?destroy@?$allocator@PAPAUtagMAGICATKMSG@@@std@@QAEXPAPAPAUtagMAGICATKMSG@@@Z
_TEXT	SEGMENT PARA USE32 PUBLIC 'CODE'
_TEXT	ENDS
;	COMDAT ?_Color@?$_Tree@V?$_Tmap_traits@KV?$vector@U_VECINFO@@V?$allocator@U_VECINFO@@@std@@@std@@U?$less@K@2@V?$allocator@U?$pair@$$CBKV?$vector@U_VECINFO@@V?$allocator@U_VECINFO@@@std@@@std@@@std@@@2@$0A@@std@@@std@@KAAADPAU_Node@?$_Tree_nod@V?$_Tmap_traits@KV?$vector@U_VECINFO@@V?$allocator@U_VECINFO@@@std@@@std@@U?$less@K@2@V?$allocator@U?$pair@$$CBKV?$vector@U_VECINFO@@V?$allocator@U_VECINFO@@@std@@@std@@@std@@@2@$0A@@std@@@2@@Z
_TEXT	SEGMENT PARA USE32 PUBLIC 'CODE'
_TEXT	ENDS
;	COMDAT ?_Parent@?$_Tree@V?$_Tmap_traits@KV?$vector@U_VECINFO@@V?$allocator@U_VECINFO@@@std@@@std@@U?$less@K@2@V?$allocator@U?$pair@$$CBKV?$vector@U_VECINFO@@V?$allocator@U_VECINFO@@@std@@@std@@@std@@@2@$0A@@std@@@std@@KAAAPAU_Node@?$_Tree_nod@V?$_Tmap_traits@KV?$vector@U_VECINFO@@V?$allocator@U_VECINFO@@@std@@@std@@U?$less@K@2@V?$allocator@U?$pair@$$CBKV?$vector@U_VECINFO@@V?$allocator@U_VECINFO@@@std@@@std@@@std@@@2@$0A@@std@@@2@PAU342@@Z
_TEXT	SEGMENT PARA USE32 PUBLIC 'CODE'
_TEXT	ENDS
;	COMDAT ?_Myval@?$_Tree@V?$_Tmap_traits@KV?$vector@U_VECINFO@@V?$allocator@U_VECINFO@@@std@@@std@@U?$less@K@2@V?$allocator@U?$pair@$$CBKV?$vector@U_VECINFO@@V?$allocator@U_VECINFO@@@std@@@std@@@std@@@2@$0A@@std@@@std@@KAAAU?$pair@$$CBKV?$vector@U_VECINFO@@V?$allocator@U_VECINFO@@@std@@@std@@@2@PAU_Node@?$_Tree_nod@V?$_Tmap_traits@KV?$vector@U_VECINFO@@V?$allocator@U_VECINFO@@@std@@@std@@U?$less@K@2@V?$allocator@U?$pair@$$CBKV?$vector@U_VECINFO@@V?$allocator@U_VECINFO@@@std@@@std@@@std@@@2@$0A@@std@@@2@@Z
_TEXT	SEGMENT PARA USE32 PUBLIC 'CODE'
_TEXT	ENDS
;	COMDAT ?max_size@?$_Tree@V?$_Tmap_traits@KV?$vector@U_VECINFO@@V?$allocator@U_VECINFO@@@std@@@std@@U?$less@K@2@V?$allocator@U?$pair@$$CBKV?$vector@U_VECINFO@@V?$allocator@U_VECINFO@@@std@@@std@@@std@@@2@$0A@@std@@@std@@QBEIXZ
_TEXT	SEGMENT PARA USE32 PUBLIC 'CODE'
_TEXT	ENDS
;	COMDAT ?erase@?$_Tree@V?$_Tmap_traits@KV?$vector@U_VECINFO@@V?$allocator@U_VECINFO@@@std@@@std@@U?$less@K@2@V?$allocator@U?$pair@$$CBKV?$vector@U_VECINFO@@V?$allocator@U_VECINFO@@@std@@@std@@@std@@@2@$0A@@std@@@std@@QAE?AViterator@12@V312@0@Z
_TEXT	SEGMENT PARA USE32 PUBLIC 'CODE'
_TEXT	ENDS
;	COMDAT ?_Init@?$_Tree@V?$_Tmap_traits@KV?$vector@U_VECINFO@@V?$allocator@U_VECINFO@@@std@@@std@@U?$less@K@2@V?$allocator@U?$pair@$$CBKV?$vector@U_VECINFO@@V?$allocator@U_VECINFO@@@std@@@std@@@std@@@2@$0A@@std@@@std@@IAEXXZ
_TEXT	SEGMENT PARA USE32 PUBLIC 'CODE'
_TEXT	ENDS
;	COMDAT ?_Lbound@?$_Tree@V?$_Tmap_traits@KV?$vector@U_VECINFO@@V?$allocator@U_VECINFO@@@std@@@std@@U?$less@K@2@V?$allocator@U?$pair@$$CBKV?$vector@U_VECINFO@@V?$allocator@U_VECINFO@@@std@@@std@@@std@@@2@$0A@@std@@@std@@IBEPAU_Node@?$_Tree_nod@V?$_Tmap_traits@KV?$vector@U_VECINFO@@V?$allocator@U_VECINFO@@@std@@@std@@U?$less@K@2@V?$allocator@U?$pair@$$CBKV?$vector@U_VECINFO@@V?$allocator@U_VECINFO@@@std@@@std@@@std@@@2@$0A@@std@@@2@ABK@Z
_TEXT	SEGMENT PARA USE32 PUBLIC 'CODE'
_TEXT	ENDS
;	COMDAT ?_Lrotate@?$_Tree@V?$_Tmap_traits@KV?$vector@U_VECINFO@@V?$allocator@U_VECINFO@@@std@@@std@@U?$less@K@2@V?$allocator@U?$pair@$$CBKV?$vector@U_VECINFO@@V?$allocator@U_VECINFO@@@std@@@std@@@std@@@2@$0A@@std@@@std@@IAEXPAU_Node@?$_Tree_nod@V?$_Tmap_traits@KV?$vector@U_VECINFO@@V?$allocator@U_VECINFO@@@std@@@std@@U?$less@K@2@V?$allocator@U?$pair@$$CBKV?$vector@U_VECINFO@@V?$allocator@U_VECINFO@@@std@@@std@@@std@@@2@$0A@@std@@@2@@Z
_TEXT	SEGMENT PARA USE32 PUBLIC 'CODE'
_TEXT	ENDS
;	COMDAT ?_Rrotate@?$_Tree@V?$_Tmap_traits@KV?$vector@U_VECINFO@@V?$allocator@U_VECINFO@@@std@@@std@@U?$less@K@2@V?$allocator@U?$pair@$$CBKV?$vector@U_VECINFO@@V?$allocator@U_VECINFO@@@std@@@std@@@std@@@2@$0A@@std@@@std@@IAEXPAU_Node@?$_Tree_nod@V?$_Tmap_traits@KV?$vector@U_VECINFO@@V?$allocator@U_VECINFO@@@std@@@std@@U?$less@K@2@V?$allocator@U?$pair@$$CBKV?$vector@U_VECINFO@@V?$allocator@U_VECINFO@@@std@@@std@@@std@@@2@$0A@@std@@@2@@Z
_TEXT	SEGMENT PARA USE32 PUBLIC 'CODE'
_TEXT	ENDS
;	COMDAT ?_Buynode@?$_Tree@V?$_Tmap_traits@KV?$vector@U_VECINFO@@V?$allocator@U_VECINFO@@@std@@@std@@U?$less@K@2@V?$allocator@U?$pair@$$CBKV?$vector@U_VECINFO@@V?$allocator@U_VECINFO@@@std@@@std@@@std@@@2@$0A@@std@@@std@@IAEPAU_Node@?$_Tree_nod@V?$_Tmap_traits@KV?$vector@U_VECINFO@@V?$allocator@U_VECINFO@@@std@@@std@@U?$less@K@2@V?$allocator@U?$pair@$$CBKV?$vector@U_VECINFO@@V?$allocator@U_VECINFO@@@std@@@std@@@std@@@2@$0A@@std@@@2@PAU342@00ABU?$pair@$$CBKV?$vector@U_VECINFO@@V?$allocator@U_VECINFO@@@std@@@std@@@2@D@Z
_TEXT	SEGMENT PARA USE32 PUBLIC 'CODE'
_TEXT	ENDS
;	COMDAT ??0?$_Tree_val@V?$_Tmap_traits@KV?$vector@U_VECINFO@@V?$allocator@U_VECINFO@@@std@@@std@@U?$less@K@2@V?$allocator@U?$pair@$$CBKV?$vector@U_VECINFO@@V?$allocator@U_VECINFO@@@std@@@std@@@std@@@2@$0A@@std@@@std@@IAE@ABU?$less@K@1@V?$allocator@U?$pair@$$CBKV?$vector@U_VECINFO@@V?$allocator@U_VECINFO@@@std@@@std@@@std@@@1@@Z
_TEXT	SEGMENT PARA USE32 PUBLIC 'CODE'
_TEXT	ENDS
;	COMDAT ??0?$allocator@U?$pair@$$CBKV?$vector@U_VECINFO@@V?$allocator@U_VECINFO@@@std@@@std@@@std@@@std@@QAE@ABV01@@Z
_TEXT	SEGMENT PARA USE32 PUBLIC 'CODE'
_TEXT	ENDS
;	COMDAT ?deallocate@?$allocator@U_Node@?$_Tree_nod@V?$_Tmap_traits@KV?$vector@U_VECINFO@@V?$allocator@U_VECINFO@@@std@@@std@@U?$less@K@2@V?$allocator@U?$pair@$$CBKV?$vector@U_VECINFO@@V?$allocator@U_VECINFO@@@std@@@std@@@std@@@2@$0A@@std@@@std@@@std@@QAEXPAU_Node@?$_Tree_nod@V?$_Tmap_traits@KV?$vector@U_VECINFO@@V?$allocator@U_VECINFO@@@std@@@std@@U?$less@K@2@V?$allocator@U?$pair@$$CBKV?$vector@U_VECINFO@@V?$allocator@U_VECINFO@@@std@@@std@@@std@@@2@$0A@@std@@@2@I@Z
_TEXT	SEGMENT PARA USE32 PUBLIC 'CODE'
_TEXT	ENDS
;	COMDAT ?destroy@?$allocator@U_Node@?$_Tree_nod@V?$_Tmap_traits@KV?$vector@U_VECINFO@@V?$allocator@U_VECINFO@@@std@@@std@@U?$less@K@2@V?$allocator@U?$pair@$$CBKV?$vector@U_VECINFO@@V?$allocator@U_VECINFO@@@std@@@std@@@std@@@2@$0A@@std@@@std@@@std@@QAEXPAU_Node@?$_Tree_nod@V?$_Tmap_traits@KV?$vector@U_VECINFO@@V?$allocator@U_VECINFO@@@std@@@std@@U?$less@K@2@V?$allocator@U?$pair@$$CBKV?$vector@U_VECINFO@@V?$allocator@U_VECINFO@@@std@@@std@@@std@@@2@$0A@@std@@@2@@Z
_TEXT	SEGMENT PARA USE32 PUBLIC 'CODE'
_TEXT	ENDS
;	COMDAT ?destroy@?$allocator@PAU_Node@?$_Tree_nod@V?$_Tmap_traits@KV?$vector@U_VECINFO@@V?$allocator@U_VECINFO@@@std@@@std@@U?$less@K@2@V?$allocator@U?$pair@$$CBKV?$vector@U_VECINFO@@V?$allocator@U_VECINFO@@@std@@@std@@@std@@@2@$0A@@std@@@std@@@std@@QAEXPAPAU_Node@?$_Tree_nod@V?$_Tmap_traits@KV?$vector@U_VECINFO@@V?$allocator@U_VECINFO@@@std@@@std@@U?$less@K@2@V?$allocator@U?$pair@$$CBKV?$vector@U_VECINFO@@V?$allocator@U_VECINFO@@@std@@@std@@@std@@@2@$0A@@std@@@2@@Z
_TEXT	SEGMENT PARA USE32 PUBLIC 'CODE'
_TEXT	ENDS
;	COMDAT ??0const_iterator@?$deque@PAUtagACTMSG@@V?$allocator@PAUtagACTMSG@@@std@@@std@@QAE@IPBV12@@Z
_TEXT	SEGMENT PARA USE32 PUBLIC 'CODE'
_TEXT	ENDS
;	COMDAT ??0const_iterator@?$deque@PAUtagMAGICATKMSG@@V?$allocator@PAUtagMAGICATKMSG@@@std@@@std@@QAE@IPBV12@@Z
_TEXT	SEGMENT PARA USE32 PUBLIC 'CODE'
_TEXT	ENDS
;	COMDAT ??0const_iterator@?$_Tree@V?$_Tmap_traits@KV?$vector@U_VECINFO@@V?$allocator@U_VECINFO@@@std@@@std@@U?$less@K@2@V?$allocator@U?$pair@$$CBKV?$vector@U_VECINFO@@V?$allocator@U_VECINFO@@@std@@@std@@@std@@@2@$0A@@std@@@std@@QAE@PAU_Node@?$_Tree_nod@V?$_Tmap_traits@KV?$vector@U_VECINFO@@V?$allocator@U_VECINFO@@@std@@@std@@U?$less@K@2@V?$allocator@U?$pair@$$CBKV?$vector@U_VECINFO@@V?$allocator@U_VECINFO@@@std@@@std@@@std@@@2@$0A@@std@@@2@@Z
_TEXT	SEGMENT PARA USE32 PUBLIC 'CODE'
_TEXT	ENDS
;	COMDAT ??Dconst_iterator@?$_Tree@V?$_Tmap_traits@KV?$vector@U_VECINFO@@V?$allocator@U_VECINFO@@@std@@@std@@U?$less@K@2@V?$allocator@U?$pair@$$CBKV?$vector@U_VECINFO@@V?$allocator@U_VECINFO@@@std@@@std@@@std@@@2@$0A@@std@@@std@@QBEABU?$pair@$$CBKV?$vector@U_VECINFO@@V?$allocator@U_VECINFO@@@std@@@std@@@2@XZ
_TEXT	SEGMENT PARA USE32 PUBLIC 'CODE'
_TEXT	ENDS
;	COMDAT ??Fconst_iterator@?$_Tree@V?$_Tmap_traits@KV?$vector@U_VECINFO@@V?$allocator@U_VECINFO@@@std@@@std@@U?$less@K@2@V?$allocator@U?$pair@$$CBKV?$vector@U_VECINFO@@V?$allocator@U_VECINFO@@@std@@@std@@@std@@@2@$0A@@std@@@std@@QAEAAV012@XZ
_TEXT	SEGMENT PARA USE32 PUBLIC 'CODE'
_TEXT	ENDS
;	COMDAT ?max_size@?$vector@U_VECINFO@@V?$allocator@U_VECINFO@@@std@@@std@@QBEIXZ
_TEXT	SEGMENT PARA USE32 PUBLIC 'CODE'
_TEXT	ENDS
;	COMDAT ?_Destroy@?$vector@U_VECINFO@@V?$allocator@U_VECINFO@@@std@@@std@@IAEXPAU_VECINFO@@0@Z
_TEXT	SEGMENT PARA USE32 PUBLIC 'CODE'
_TEXT	ENDS
;	COMDAT ?_Insert_n@?$vector@U_VECINFO@@V?$allocator@U_VECINFO@@@std@@@std@@IAEXViterator@12@IABU_VECINFO@@@Z
_TEXT	SEGMENT PARA USE32 PUBLIC 'CODE'
_TEXT	ENDS
;	COMDAT ?_Xlen@?$vector@U_VECINFO@@V?$allocator@U_VECINFO@@@std@@@std@@IBEXXZ
_TEXT	SEGMENT PARA USE32 PUBLIC 'CODE'
_TEXT	ENDS
;	COMDAT ?deallocate@?$allocator@U_VECINFO@@@std@@QAEXPAU_VECINFO@@I@Z
_TEXT	SEGMENT PARA USE32 PUBLIC 'CODE'
_TEXT	ENDS
;	COMDAT ?allocate@?$allocator@U_VECINFO@@@std@@QAEPAU_VECINFO@@I@Z
_TEXT	SEGMENT PARA USE32 PUBLIC 'CODE'
_TEXT	ENDS
;	COMDAT ??0iterator@?$vector@UD3DXVECTOR3@@V?$allocator@UD3DXVECTOR3@@@std@@@std@@QAE@PAUD3DXVECTOR3@@@Z
_TEXT	SEGMENT PARA USE32 PUBLIC 'CODE'
_TEXT	ENDS
;	COMDAT ??Yiterator@?$vector@UD3DXVECTOR3@@V?$allocator@UD3DXVECTOR3@@@std@@@std@@QAEAAV012@H@Z
_TEXT	SEGMENT PARA USE32 PUBLIC 'CODE'
_TEXT	ENDS
;	COMDAT ??Giterator@?$vector@UD3DXVECTOR3@@V?$allocator@UD3DXVECTOR3@@@std@@@std@@QBEHABVconst_iterator@12@@Z
_TEXT	SEGMENT PARA USE32 PUBLIC 'CODE'
_TEXT	ENDS
;	COMDAT ??Dconst_iterator@?$vector@UD3DXVECTOR3@@V?$allocator@UD3DXVECTOR3@@@std@@@std@@QBEABUD3DXVECTOR3@@XZ
_TEXT	SEGMENT PARA USE32 PUBLIC 'CODE'
_TEXT	ENDS
;	COMDAT ??0const_iterator@?$vector@U_VECINFO@@V?$allocator@U_VECINFO@@@std@@@std@@QAE@PAU_VECINFO@@@Z
_TEXT	SEGMENT PARA USE32 PUBLIC 'CODE'
_TEXT	ENDS
;	COMDAT ??Dconst_iterator@?$vector@U_VECINFO@@V?$allocator@U_VECINFO@@@std@@@std@@QBEABU_VECINFO@@XZ
_TEXT	SEGMENT PARA USE32 PUBLIC 'CODE'
_TEXT	ENDS
;	COMDAT ??0iterator@?$vector@U_VECINFO@@V?$allocator@U_VECINFO@@@std@@@std@@QAE@PAU_VECINFO@@@Z
_TEXT	SEGMENT PARA USE32 PUBLIC 'CODE'
_TEXT	ENDS
;	COMDAT ??Yiterator@?$vector@U_VECINFO@@V?$allocator@U_VECINFO@@@std@@@std@@QAEAAV012@H@Z
_TEXT	SEGMENT PARA USE32 PUBLIC 'CODE'
_TEXT	ENDS
;	COMDAT ??Giterator@?$vector@U_VECINFO@@V?$allocator@U_VECINFO@@@std@@@std@@QBEHABVconst_iterator@12@@Z
_TEXT	SEGMENT PARA USE32 PUBLIC 'CODE'
_TEXT	ENDS
;	COMDAT ?_Buynode@?$_Tree@V?$_Tmap_traits@KHU?$less@K@std@@V?$allocator@U?$pair@$$CBKH@std@@@2@$0A@@std@@@std@@IAEPAU_Node@?$_Tree_nod@V?$_Tmap_traits@KHU?$less@K@std@@V?$allocator@U?$pair@$$CBKH@std@@@2@$0A@@std@@@2@XZ
_TEXT	SEGMENT PARA USE32 PUBLIC 'CODE'
_TEXT	ENDS
;	COMDAT ??0?$_Tree_ptr@V?$_Tmap_traits@KHU?$less@K@std@@V?$allocator@U?$pair@$$CBKH@std@@@2@$0A@@std@@@std@@IAE@ABU?$less@K@1@V?$allocator@U?$pair@$$CBKH@std@@@1@@Z
_TEXT	SEGMENT PARA USE32 PUBLIC 'CODE'
_TEXT	ENDS
;	COMDAT ?destroy@?$allocator@PAUtagACTMSG@@@std@@QAEXPAPAUtagACTMSG@@@Z
_TEXT	SEGMENT PARA USE32 PUBLIC 'CODE'
_TEXT	ENDS
;	COMDAT ?destroy@?$allocator@PAUtagMAGICATKMSG@@@std@@QAEXPAPAUtagMAGICATKMSG@@@Z
_TEXT	SEGMENT PARA USE32 PUBLIC 'CODE'
_TEXT	ENDS
;	COMDAT ?erase@?$_Tree@V?$_Tmap_traits@KV?$vector@U_VECINFO@@V?$allocator@U_VECINFO@@@std@@@std@@U?$less@K@2@V?$allocator@U?$pair@$$CBKV?$vector@U_VECINFO@@V?$allocator@U_VECINFO@@@std@@@std@@@std@@@2@$0A@@std@@@std@@QAE?AViterator@12@V312@@Z
_TEXT	SEGMENT PARA USE32 PUBLIC 'CODE'
_TEXT	ENDS
;	COMDAT ?_Root@?$_Tree@V?$_Tmap_traits@KV?$vector@U_VECINFO@@V?$allocator@U_VECINFO@@@std@@@std@@U?$less@K@2@V?$allocator@U?$pair@$$CBKV?$vector@U_VECINFO@@V?$allocator@U_VECINFO@@@std@@@std@@@std@@@2@$0A@@std@@@std@@IBEAAPAU_Node@?$_Tree_nod@V?$_Tmap_traits@KV?$vector@U_VECINFO@@V?$allocator@U_VECINFO@@@std@@@std@@U?$less@K@2@V?$allocator@U?$pair@$$CBKV?$vector@U_VECINFO@@V?$allocator@U_VECINFO@@@std@@@std@@@std@@@2@$0A@@std@@@2@XZ
_TEXT	SEGMENT PARA USE32 PUBLIC 'CODE'
_TEXT	ENDS
;	COMDAT ?_Buynode@?$_Tree@V?$_Tmap_traits@KV?$vector@U_VECINFO@@V?$allocator@U_VECINFO@@@std@@@std@@U?$less@K@2@V?$allocator@U?$pair@$$CBKV?$vector@U_VECINFO@@V?$allocator@U_VECINFO@@@std@@@std@@@std@@@2@$0A@@std@@@std@@IAEPAU_Node@?$_Tree_nod@V?$_Tmap_traits@KV?$vector@U_VECINFO@@V?$allocator@U_VECINFO@@@std@@@std@@U?$less@K@2@V?$allocator@U?$pair@$$CBKV?$vector@U_VECINFO@@V?$allocator@U_VECINFO@@@std@@@std@@@std@@@2@$0A@@std@@@2@XZ
_TEXT	SEGMENT PARA USE32 PUBLIC 'CODE'
_TEXT	ENDS
;	COMDAT ??0?$_Tree_ptr@V?$_Tmap_traits@KV?$vector@U_VECINFO@@V?$allocator@U_VECINFO@@@std@@@std@@U?$less@K@2@V?$allocator@U?$pair@$$CBKV?$vector@U_VECINFO@@V?$allocator@U_VECINFO@@@std@@@std@@@std@@@2@$0A@@std@@@std@@IAE@ABU?$less@K@1@V?$allocator@U?$pair@$$CBKV?$vector@U_VECINFO@@V?$allocator@U_VECINFO@@@std@@@std@@@std@@@1@@Z
_TEXT	SEGMENT PARA USE32 PUBLIC 'CODE'
_TEXT	ENDS
;	COMDAT ?max_size@?$allocator@U?$pair@$$CBKV?$vector@U_VECINFO@@V?$allocator@U_VECINFO@@@std@@@std@@@std@@@std@@QBEIXZ
_TEXT	SEGMENT PARA USE32 PUBLIC 'CODE'
_TEXT	ENDS
;	COMDAT ?allocate@?$allocator@U_Node@?$_Tree_nod@V?$_Tmap_traits@KV?$vector@U_VECINFO@@V?$allocator@U_VECINFO@@@std@@@std@@U?$less@K@2@V?$allocator@U?$pair@$$CBKV?$vector@U_VECINFO@@V?$allocator@U_VECINFO@@@std@@@std@@@std@@@2@$0A@@std@@@std@@@std@@QAEPAU_Node@?$_Tree_nod@V?$_Tmap_traits@KV?$vector@U_VECINFO@@V?$allocator@U_VECINFO@@@std@@@std@@U?$less@K@2@V?$allocator@U?$pair@$$CBKV?$vector@U_VECINFO@@V?$allocator@U_VECINFO@@@std@@@std@@@std@@@2@$0A@@std@@@2@I@Z
_TEXT	SEGMENT PARA USE32 PUBLIC 'CODE'
_TEXT	ENDS
;	COMDAT ??Eiterator@?$_Tree@V?$_Tmap_traits@KV?$vector@U_VECINFO@@V?$allocator@U_VECINFO@@@std@@@std@@U?$less@K@2@V?$allocator@U?$pair@$$CBKV?$vector@U_VECINFO@@V?$allocator@U_VECINFO@@@std@@@std@@@std@@@2@$0A@@std@@@std@@QAE?AV012@H@Z
_TEXT	SEGMENT PARA USE32 PUBLIC 'CODE'
_TEXT	ENDS
;	COMDAT ?_Dec@const_iterator@?$_Tree@V?$_Tmap_traits@KV?$vector@U_VECINFO@@V?$allocator@U_VECINFO@@@std@@@std@@U?$less@K@2@V?$allocator@U?$pair@$$CBKV?$vector@U_VECINFO@@V?$allocator@U_VECINFO@@@std@@@std@@@std@@@2@$0A@@std@@@std@@QAEXXZ
_TEXT	SEGMENT PARA USE32 PUBLIC 'CODE'
_TEXT	ENDS
;	COMDAT ?max_size@?$allocator@U_VECINFO@@@std@@QBEIXZ
_TEXT	SEGMENT PARA USE32 PUBLIC 'CODE'
_TEXT	ENDS
;	COMDAT ??0const_iterator@?$vector@UD3DXVECTOR3@@V?$allocator@UD3DXVECTOR3@@@std@@@std@@QAE@PAUD3DXVECTOR3@@@Z
_TEXT	SEGMENT PARA USE32 PUBLIC 'CODE'
_TEXT	ENDS
;	COMDAT ??Gconst_iterator@?$vector@UD3DXVECTOR3@@V?$allocator@UD3DXVECTOR3@@@std@@@std@@QBEHABV012@@Z
_TEXT	SEGMENT PARA USE32 PUBLIC 'CODE'
_TEXT	ENDS
;	COMDAT ??Gconst_iterator@?$vector@U_VECINFO@@V?$allocator@U_VECINFO@@@std@@@std@@QBEHABV012@@Z
_TEXT	SEGMENT PARA USE32 PUBLIC 'CODE'
_TEXT	ENDS
;	COMDAT ??0_Node@?$_Tree_nod@V?$_Tmap_traits@KV?$vector@U_VECINFO@@V?$allocator@U_VECINFO@@@std@@@std@@U?$less@K@2@V?$allocator@U?$pair@$$CBKV?$vector@U_VECINFO@@V?$allocator@U_VECINFO@@@std@@@std@@@std@@@2@$0A@@std@@@std@@QAE@PAU012@00ABU?$pair@$$CBKV?$vector@U_VECINFO@@V?$allocator@U_VECINFO@@@std@@@std@@@2@D@Z
_TEXT	SEGMENT PARA USE32 PUBLIC 'CODE'
_TEXT	ENDS
;	COMDAT ??0?$pair@$$CBKV?$vector@U_VECINFO@@V?$allocator@U_VECINFO@@@std@@@std@@@std@@QAE@ABU01@@Z
_TEXT	SEGMENT PARA USE32 PUBLIC 'CODE'
_TEXT	ENDS
;	COMDAT ??0?$_Tree_nod@V?$_Tmap_traits@KHU?$less@K@std@@V?$allocator@U?$pair@$$CBKH@std@@@2@$0A@@std@@@std@@IAE@ABU?$less@K@1@V?$allocator@U?$pair@$$CBKH@std@@@1@@Z
_TEXT	SEGMENT PARA USE32 PUBLIC 'CODE'
_TEXT	ENDS
;	COMDAT ?allocate@?$allocator@U_Node@?$_Tree_nod@V?$_Tmap_traits@KHU?$less@K@std@@V?$allocator@U?$pair@$$CBKH@std@@@2@$0A@@std@@@std@@@std@@QAEPAU_Node@?$_Tree_nod@V?$_Tmap_traits@KHU?$less@K@std@@V?$allocator@U?$pair@$$CBKH@std@@@2@$0A@@std@@@2@I@Z
_TEXT	SEGMENT PARA USE32 PUBLIC 'CODE'
_TEXT	ENDS
;	COMDAT ?construct@?$allocator@PAU_Node@?$_Tree_nod@V?$_Tmap_traits@KHU?$less@K@std@@V?$allocator@U?$pair@$$CBKH@std@@@2@$0A@@std@@@std@@@std@@QAEXPAPAU_Node@?$_Tree_nod@V?$_Tmap_traits@KHU?$less@K@std@@V?$allocator@U?$pair@$$CBKH@std@@@2@$0A@@std@@@2@ABQAU342@@Z
_TEXT	SEGMENT PARA USE32 PUBLIC 'CODE'
_TEXT	ENDS
;	COMDAT ?_Max@?$_Tree@V?$_Tmap_traits@KV?$vector@U_VECINFO@@V?$allocator@U_VECINFO@@@std@@@std@@U?$less@K@2@V?$allocator@U?$pair@$$CBKV?$vector@U_VECINFO@@V?$allocator@U_VECINFO@@@std@@@std@@@std@@@2@$0A@@std@@@std@@KAPAU_Node@?$_Tree_nod@V?$_Tmap_traits@KV?$vector@U_VECINFO@@V?$allocator@U_VECINFO@@@std@@@std@@U?$less@K@2@V?$allocator@U?$pair@$$CBKV?$vector@U_VECINFO@@V?$allocator@U_VECINFO@@@std@@@std@@@std@@@2@$0A@@std@@@2@PAU342@@Z
_TEXT	SEGMENT PARA USE32 PUBLIC 'CODE'
_TEXT	ENDS
;	COMDAT ?_Min@?$_Tree@V?$_Tmap_traits@KV?$vector@U_VECINFO@@V?$allocator@U_VECINFO@@@std@@@std@@U?$less@K@2@V?$allocator@U?$pair@$$CBKV?$vector@U_VECINFO@@V?$allocator@U_VECINFO@@@std@@@std@@@std@@@2@$0A@@std@@@std@@KAPAU_Node@?$_Tree_nod@V?$_Tmap_traits@KV?$vector@U_VECINFO@@V?$allocator@U_VECINFO@@@std@@@std@@U?$less@K@2@V?$allocator@U?$pair@$$CBKV?$vector@U_VECINFO@@V?$allocator@U_VECINFO@@@std@@@std@@@std@@@2@$0A@@std@@@2@PAU342@@Z
_TEXT	SEGMENT PARA USE32 PUBLIC 'CODE'
_TEXT	ENDS
;	COMDAT ??0?$_Tree_nod@V?$_Tmap_traits@KV?$vector@U_VECINFO@@V?$allocator@U_VECINFO@@@std@@@std@@U?$less@K@2@V?$allocator@U?$pair@$$CBKV?$vector@U_VECINFO@@V?$allocator@U_VECINFO@@@std@@@std@@@std@@@2@$0A@@std@@@std@@IAE@ABU?$less@K@1@V?$allocator@U?$pair@$$CBKV?$vector@U_VECINFO@@V?$allocator@U_VECINFO@@@std@@@std@@@std@@@1@@Z
_TEXT	SEGMENT PARA USE32 PUBLIC 'CODE'
_TEXT	ENDS
;	COMDAT ?construct@?$allocator@PAU_Node@?$_Tree_nod@V?$_Tmap_traits@KV?$vector@U_VECINFO@@V?$allocator@U_VECINFO@@@std@@@std@@U?$less@K@2@V?$allocator@U?$pair@$$CBKV?$vector@U_VECINFO@@V?$allocator@U_VECINFO@@@std@@@std@@@std@@@2@$0A@@std@@@std@@@std@@QAEXPAPAU_Node@?$_Tree_nod@V?$_Tmap_traits@KV?$vector@U_VECINFO@@V?$allocator@U_VECINFO@@@std@@@std@@U?$less@K@2@V?$allocator@U?$pair@$$CBKV?$vector@U_VECINFO@@V?$allocator@U_VECINFO@@@std@@@std@@@std@@@2@$0A@@std@@@2@ABQAU342@@Z
_TEXT	SEGMENT PARA USE32 PUBLIC 'CODE'
_TEXT	ENDS
;	COMDAT ??Eiterator@?$_Tree@V?$_Tmap_traits@KV?$vector@U_VECINFO@@V?$allocator@U_VECINFO@@@std@@@std@@U?$less@K@2@V?$allocator@U?$pair@$$CBKV?$vector@U_VECINFO@@V?$allocator@U_VECINFO@@@std@@@std@@@std@@@2@$0A@@std@@@std@@QAEAAV012@XZ
_TEXT	SEGMENT PARA USE32 PUBLIC 'CODE'
_TEXT	ENDS
;	COMDAT ??0?$_Tmap_traits@KHU?$less@K@std@@V?$allocator@U?$pair@$$CBKH@std@@@2@$0A@@std@@QAE@U?$less@K@1@@Z
_TEXT	SEGMENT PARA USE32 PUBLIC 'CODE'
_TEXT	ENDS
;	COMDAT ??0?$_Tmap_traits@KV?$vector@U_VECINFO@@V?$allocator@U_VECINFO@@@std@@@std@@U?$less@K@2@V?$allocator@U?$pair@$$CBKV?$vector@U_VECINFO@@V?$allocator@U_VECINFO@@@std@@@std@@@std@@@2@$0A@@std@@QAE@U?$less@K@1@@Z
_TEXT	SEGMENT PARA USE32 PUBLIC 'CODE'
_TEXT	ENDS
;	COMDAT ??Econst_iterator@?$_Tree@V?$_Tmap_traits@KV?$vector@U_VECINFO@@V?$allocator@U_VECINFO@@@std@@@std@@U?$less@K@2@V?$allocator@U?$pair@$$CBKV?$vector@U_VECINFO@@V?$allocator@U_VECINFO@@@std@@@std@@@std@@@2@$0A@@std@@@std@@QAEAAV012@XZ
_TEXT	SEGMENT PARA USE32 PUBLIC 'CODE'
_TEXT	ENDS
;	COMDAT ?_Inc@const_iterator@?$_Tree@V?$_Tmap_traits@KV?$vector@U_VECINFO@@V?$allocator@U_VECINFO@@@std@@@std@@U?$less@K@2@V?$allocator@U?$pair@$$CBKV?$vector@U_VECINFO@@V?$allocator@U_VECINFO@@@std@@@std@@@std@@@2@$0A@@std@@@std@@QAEXXZ
_TEXT	SEGMENT PARA USE32 PUBLIC 'CODE'
_TEXT	ENDS
;	COMDAT ??$_Iter_cat@Vconst_iterator@?$vector@EV?$allocator@E@std@@@std@@@std@@YA?AUrandom_access_iterator_tag@0@ABVconst_iterator@?$vector@EV?$allocator@E@std@@@0@@Z
_TEXT	SEGMENT PARA USE32 PUBLIC 'CODE'
_TEXT	ENDS
;	COMDAT ??$_Assign@Vconst_iterator@?$vector@EV?$allocator@E@std@@@std@@@?$vector@EV?$allocator@E@std@@@std@@QAEXVconst_iterator@01@0Uinput_iterator_tag@1@@Z
_TEXT	SEGMENT PARA USE32 PUBLIC 'CODE'
_TEXT	ENDS
;	COMDAT ??$_Iter_cat@Viterator@?$_Tree@V?$_Tmap_traits@KPAVCUser@@U?$less@K@std@@V?$allocator@U?$pair@$$CBKPAVCUser@@@std@@@3@$0A@@std@@@std@@@std@@YA?AUbidirectional_iterator_tag@0@ABViterator@?$_Tree@V?$_Tmap_traits@KPAVCUser@@U?$less@K@std@@V?$allocator@U?$pair@$$CBKPAVCUser@@@std@@@3@$0A@@std@@@0@@Z
_TEXT	SEGMENT PARA USE32 PUBLIC 'CODE'
_TEXT	ENDS
;	COMDAT ??$_Distance2@Viterator@?$_Tree@V?$_Tmap_traits@KPAVCUser@@U?$less@K@std@@V?$allocator@U?$pair@$$CBKPAVCUser@@@std@@@3@$0A@@std@@@std@@I@std@@YAXViterator@?$_Tree@V?$_Tmap_traits@KPAVCUser@@U?$less@K@std@@V?$allocator@U?$pair@$$CBKPAVCUser@@@std@@@3@$0A@@std@@@0@0AAIUbidirectional_iterator_tag@0@@Z
_TEXT	SEGMENT PARA USE32 PUBLIC 'CODE'
_TEXT	ENDS
;	COMDAT ??$_Iter_cat@Viterator@?$_Tree@V?$_Tmap_traits@KPAVCCtrl@@U?$less@K@std@@V?$allocator@U?$pair@$$CBKPAVCCtrl@@@std@@@3@$0A@@std@@@std@@@std@@YA?AUbidirectional_iterator_tag@0@ABViterator@?$_Tree@V?$_Tmap_traits@KPAVCCtrl@@U?$less@K@std@@V?$allocator@U?$pair@$$CBKPAVCCtrl@@@std@@@3@$0A@@std@@@0@@Z
_TEXT	SEGMENT PARA USE32 PUBLIC 'CODE'
_TEXT	ENDS
;	COMDAT ??$_Distance2@Viterator@?$_Tree@V?$_Tmap_traits@KPAVCCtrl@@U?$less@K@std@@V?$allocator@U?$pair@$$CBKPAVCCtrl@@@std@@@3@$0A@@std@@@std@@I@std@@YAXViterator@?$_Tree@V?$_Tmap_traits@KPAVCCtrl@@U?$less@K@std@@V?$allocator@U?$pair@$$CBKPAVCCtrl@@@std@@@3@$0A@@std@@@0@0AAIUbidirectional_iterator_tag@0@@Z
_TEXT	SEGMENT PARA USE32 PUBLIC 'CODE'
_TEXT	ENDS
;	COMDAT ??$_Uninitialized_copy@Vconst_iterator@?$vector@EV?$allocator@E@std@@@std@@PAEV?$allocator@E@3@@std@@YAPAEVconst_iterator@?$vector@EV?$allocator@E@std@@@0@0PAEAAV?$allocator@E@0@@Z
_TEXT	SEGMENT PARA USE32 PUBLIC 'CODE'
_TEXT	ENDS
;	COMDAT ??$_Iter_cat@Viterator@?$_Tree@V?$_Tmap_traits@KEU?$less@K@std@@V?$allocator@U?$pair@$$CBKE@std@@@2@$0A@@std@@@std@@@std@@YA?AUbidirectional_iterator_tag@0@ABViterator@?$_Tree@V?$_Tmap_traits@KEU?$less@K@std@@V?$allocator@U?$pair@$$CBKE@std@@@2@$0A@@std@@@0@@Z
_TEXT	SEGMENT PARA USE32 PUBLIC 'CODE'
_TEXT	ENDS
;	COMDAT ??$_Distance2@Viterator@?$_Tree@V?$_Tmap_traits@KEU?$less@K@std@@V?$allocator@U?$pair@$$CBKE@std@@@2@$0A@@std@@@std@@I@std@@YAXViterator@?$_Tree@V?$_Tmap_traits@KEU?$less@K@std@@V?$allocator@U?$pair@$$CBKE@std@@@2@$0A@@std@@@0@0AAIUbidirectional_iterator_tag@0@@Z
_TEXT	SEGMENT PARA USE32 PUBLIC 'CODE'
_TEXT	ENDS
;	COMDAT ??$_Ptr_cat@PAU__SPAWNREGION@CEventLua@@PAU12@@std@@YA?AU_Nonscalar_ptr_iterator_tag@0@AAPAU__SPAWNREGION@CEventLua@@0@Z
_TEXT	SEGMENT PARA USE32 PUBLIC 'CODE'
_TEXT	ENDS
;	COMDAT ??$_Uninit_fill_n@PAU__SPAWNREGION@CEventLua@@IU12@V?$allocator@U__SPAWNREGION@CEventLua@@@std@@@std@@YAXPAU__SPAWNREGION@CEventLua@@IABU12@AAV?$allocator@U__SPAWNREGION@CEventLua@@@0@U_Nonscalar_ptr_iterator_tag@0@@Z
_TEXT	SEGMENT PARA USE32 PUBLIC 'CODE'
_TEXT	ENDS
;	COMDAT ??$_Copy_opt@PAJPAJ@std@@YAPAJPAJ00U_Scalar_ptr_iterator_tag@0@@Z
_TEXT	SEGMENT PARA USE32 PUBLIC 'CODE'
_TEXT	ENDS
;	COMDAT ??$_Uninitialized_copy@PAJPAJV?$allocator@J@std@@@std@@YAPAJPAJ00AAV?$allocator@J@0@@Z
_TEXT	SEGMENT PARA USE32 PUBLIC 'CODE'
_TEXT	ENDS
;	COMDAT ??$_Copy_backward_opt@PAJPAJ@std@@YAPAJPAJ00U_Scalar_ptr_iterator_tag@0@@Z
_TEXT	SEGMENT PARA USE32 PUBLIC 'CODE'
_TEXT	ENDS
;	COMDAT ??$_Ptr_cat@PAUtagDROPITEM@@PAU1@@std@@YA?AU_Nonscalar_ptr_iterator_tag@0@AAPAUtagDROPITEM@@0@Z
_TEXT	SEGMENT PARA USE32 PUBLIC 'CODE'
_TEXT	ENDS
;	COMDAT ??$_Destroy_range@UtagDROPITEM@@V?$allocator@UtagDROPITEM@@@std@@@std@@YAXPAUtagDROPITEM@@0AAV?$allocator@UtagDROPITEM@@@0@U_Nonscalar_ptr_iterator_tag@0@@Z
_TEXT	SEGMENT PARA USE32 PUBLIC 'CODE'
_TEXT	ENDS
;	COMDAT ??$_Ptr_cat@PAUWORMON@@PAU1@@std@@YA?AU_Nonscalar_ptr_iterator_tag@0@AAPAUWORMON@@0@Z
_TEXT	SEGMENT PARA USE32 PUBLIC 'CODE'
_TEXT	ENDS
;	COMDAT ??$_Destroy_range@UWORMON@@V?$allocator@UWORMON@@@std@@@std@@YAXPAUWORMON@@0AAV?$allocator@UWORMON@@@0@U_Nonscalar_ptr_iterator_tag@0@@Z
_TEXT	SEGMENT PARA USE32 PUBLIC 'CODE'
_TEXT	ENDS
;	COMDAT ??$_Ptr_cat@PAU__ITEMGAME@CMiniGame@@PAU12@@std@@YA?AU_Nonscalar_ptr_iterator_tag@0@AAPAU__ITEMGAME@CMiniGame@@0@Z
_TEXT	SEGMENT PARA USE32 PUBLIC 'CODE'
_TEXT	ENDS
;	COMDAT ??$_Destroy_range@U__ITEMGAME@CMiniGame@@V?$allocator@U__ITEMGAME@CMiniGame@@@std@@@std@@YAXPAU__ITEMGAME@CMiniGame@@0AAV?$allocator@U__ITEMGAME@CMiniGame@@@0@U_Nonscalar_ptr_iterator_tag@0@@Z
_TEXT	SEGMENT PARA USE32 PUBLIC 'CODE'
_TEXT	ENDS
;	COMDAT ??$_Destroy_range@KV?$allocator@K@std@@@std@@YAXPAK0AAV?$allocator@K@0@U_Scalar_ptr_iterator_tag@0@@Z
_TEXT	SEGMENT PARA USE32 PUBLIC 'CODE'
_TEXT	ENDS
;	COMDAT ??$_Destroy_range@HV?$allocator@H@std@@@std@@YAXPAH0AAV?$allocator@H@0@U_Scalar_ptr_iterator_tag@0@@Z
_TEXT	SEGMENT PARA USE32 PUBLIC 'CODE'
_TEXT	ENDS
;	COMDAT ??$_Ptr_cat@PAU__ITEM@CExchange@@PAU12@@std@@YA?AU_Nonscalar_ptr_iterator_tag@0@AAPAU__ITEM@CExchange@@0@Z
_TEXT	SEGMENT PARA USE32 PUBLIC 'CODE'
_TEXT	ENDS
;	COMDAT ??$_Destroy_range@U__ITEM@CExchange@@V?$allocator@U__ITEM@CExchange@@@std@@@std@@YAXPAU__ITEM@CExchange@@0AAV?$allocator@U__ITEM@CExchange@@@0@U_Nonscalar_ptr_iterator_tag@0@@Z
_TEXT	SEGMENT PARA USE32 PUBLIC 'CODE'
_TEXT	ENDS
;	COMDAT ??$_Ptr_cat@PAU__POINT@CExchange@@PAU12@@std@@YA?AU_Nonscalar_ptr_iterator_tag@0@AAPAU__POINT@CExchange@@0@Z
_TEXT	SEGMENT PARA USE32 PUBLIC 'CODE'
_TEXT	ENDS
;	COMDAT ??$_Destroy_range@U__POINT@CExchange@@V?$allocator@U__POINT@CExchange@@@std@@@std@@YAXPAU__POINT@CExchange@@0AAV?$allocator@U__POINT@CExchange@@@0@U_Nonscalar_ptr_iterator_tag@0@@Z
_TEXT	SEGMENT PARA USE32 PUBLIC 'CODE'
_TEXT	ENDS
;	COMDAT ??$_Destroy_range@EV?$allocator@E@std@@@std@@YAXPAE0AAV?$allocator@E@0@U_Scalar_ptr_iterator_tag@0@@Z
_TEXT	SEGMENT PARA USE32 PUBLIC 'CODE'
_TEXT	ENDS
;	COMDAT ??$_Uninitialized_copy@PAU__SPAWNREGION@CEventLua@@PAU12@V?$allocator@U__SPAWNREGION@CEventLua@@@std@@@std@@YAPAU__SPAWNREGION@CEventLua@@PAU12@00AAV?$allocator@U__SPAWNREGION@CEventLua@@@0@@Z
_TEXT	SEGMENT PARA USE32 PUBLIC 'CODE'
_TEXT	ENDS
;	COMDAT ??$_Copy_backward_opt@PAU__SPAWNREGION@CEventLua@@PAU12@@std@@YAPAU__SPAWNREGION@CEventLua@@PAU12@00U_Nonscalar_ptr_iterator_tag@0@@Z
_TEXT	SEGMENT PARA USE32 PUBLIC 'CODE'
_TEXT	ENDS
;	COMDAT ??$_Ptr_cat@PAUD3DXVECTOR3@@PAU1@@std@@YA?AU_Nonscalar_ptr_iterator_tag@0@AAPAUD3DXVECTOR3@@0@Z
_TEXT	SEGMENT PARA USE32 PUBLIC 'CODE'
_TEXT	ENDS
;	COMDAT ??$_Destroy_range@UD3DXVECTOR3@@V?$allocator@UD3DXVECTOR3@@@std@@@std@@YAXPAUD3DXVECTOR3@@0AAV?$allocator@UD3DXVECTOR3@@@0@U_Nonscalar_ptr_iterator_tag@0@@Z
_TEXT	SEGMENT PARA USE32 PUBLIC 'CODE'
_TEXT	ENDS
;	COMDAT ??$_Ptr_cat@PAU_GIFTBOX@@PAU1@@std@@YA?AU_Nonscalar_ptr_iterator_tag@0@AAPAU_GIFTBOX@@0@Z
_TEXT	SEGMENT PARA USE32 PUBLIC 'CODE'
_TEXT	ENDS
;	COMDAT ??$_Destroy_range@U_GIFTBOX@@V?$allocator@U_GIFTBOX@@@std@@@std@@YAXPAU_GIFTBOX@@0AAV?$allocator@U_GIFTBOX@@@0@U_Nonscalar_ptr_iterator_tag@0@@Z
_TEXT	SEGMENT PARA USE32 PUBLIC 'CODE'
_TEXT	ENDS
;	COMDAT ??$_Destroy_range@JV?$allocator@J@std@@@std@@YAXPAJ0AAV?$allocator@J@0@U_Scalar_ptr_iterator_tag@0@@Z
_TEXT	SEGMENT PARA USE32 PUBLIC 'CODE'
_TEXT	ENDS
;	COMDAT ??$_Uninit_fill_n@JIJ@std@@YAXPAJIABJAAV?$allocator@J@0@U_Scalar_ptr_iterator_tag@0@@Z
_TEXT	SEGMENT PARA USE32 PUBLIC 'CODE'
_TEXT	ENDS
;	COMDAT ??$_Destroy_range@U__SPAWNREGION@CEventLua@@V?$allocator@U__SPAWNREGION@CEventLua@@@std@@@std@@YAXPAU__SPAWNREGION@CEventLua@@0AAV?$allocator@U__SPAWNREGION@CEventLua@@@0@U_Nonscalar_ptr_iterator_tag@0@@Z
_TEXT	SEGMENT PARA USE32 PUBLIC 'CODE'
_TEXT	ENDS
;	COMDAT ??$_Ucopy@Vconst_iterator@?$vector@U_VECINFO@@V?$allocator@U_VECINFO@@@std@@@std@@@?$vector@U_VECINFO@@V?$allocator@U_VECINFO@@@std@@@std@@IAEPAU_VECINFO@@Vconst_iterator@01@0PAU2@@Z
_TEXT	SEGMENT PARA USE32 PUBLIC 'CODE'
_TEXT	ENDS
;	COMDAT ??$_Uninitialized_fill_n@PAUD3DXVECTOR3@@IU1@V?$allocator@UD3DXVECTOR3@@@std@@@std@@YAXPAUD3DXVECTOR3@@IABU1@AAV?$allocator@UD3DXVECTOR3@@@0@@Z
_TEXT	SEGMENT PARA USE32 PUBLIC 'CODE'
_TEXT	ENDS
;	COMDAT ??$_Uninitialized_fill_n@PAU_VECINFO@@IU1@V?$allocator@U_VECINFO@@@std@@@std@@YAXPAU_VECINFO@@IABU1@AAV?$allocator@U_VECINFO@@@0@@Z
_TEXT	SEGMENT PARA USE32 PUBLIC 'CODE'
_TEXT	ENDS
;	COMDAT ??$_Ucopy@PAUD3DXVECTOR3@@@?$vector@UD3DXVECTOR3@@V?$allocator@UD3DXVECTOR3@@@std@@@std@@IAEPAUD3DXVECTOR3@@PAU2@00@Z
_TEXT	SEGMENT PARA USE32 PUBLIC 'CODE'
_TEXT	ENDS
;	COMDAT ??$fill@PAUD3DXVECTOR3@@U1@@std@@YAXPAUD3DXVECTOR3@@0ABU1@@Z
_TEXT	SEGMENT PARA USE32 PUBLIC 'CODE'
_TEXT	ENDS
;	COMDAT ??$copy_backward@PAUD3DXVECTOR3@@PAU1@@std@@YAPAUD3DXVECTOR3@@PAU1@00@Z
_TEXT	SEGMENT PARA USE32 PUBLIC 'CODE'
_TEXT	ENDS
;	COMDAT ??$?0PAUtagACTMSG@@@?$allocator@PAPAUtagACTMSG@@@std@@QAE@ABV?$allocator@PAUtagACTMSG@@@1@@Z
_TEXT	SEGMENT PARA USE32 PUBLIC 'CODE'
_TEXT	ENDS
;	COMDAT ??$_Destroy@PAPAUtagACTMSG@@@std@@YAXPAPAPAUtagACTMSG@@@Z
_TEXT	SEGMENT PARA USE32 PUBLIC 'CODE'
_TEXT	ENDS
;	COMDAT ??$?0PAUtagMAGICATKMSG@@@?$allocator@PAPAUtagMAGICATKMSG@@@std@@QAE@ABV?$allocator@PAUtagMAGICATKMSG@@@1@@Z
_TEXT	SEGMENT PARA USE32 PUBLIC 'CODE'
_TEXT	ENDS
;	COMDAT ??$_Destroy@PAPAUtagMAGICATKMSG@@@std@@YAXPAPAPAUtagMAGICATKMSG@@@Z
_TEXT	SEGMENT PARA USE32 PUBLIC 'CODE'
_TEXT	ENDS
;	COMDAT ??$_Destroy@U_Node@?$_Tree_nod@V?$_Tmap_traits@KV?$vector@U_VECINFO@@V?$allocator@U_VECINFO@@@std@@@std@@U?$less@K@2@V?$allocator@U?$pair@$$CBKV?$vector@U_VECINFO@@V?$allocator@U_VECINFO@@@std@@@std@@@std@@@2@$0A@@std@@@std@@@std@@YAXPAU_Node@?$_Tree_nod@V?$_Tmap_traits@KV?$vector@U_VECINFO@@V?$allocator@U_VECINFO@@@std@@@std@@U?$less@K@2@V?$allocator@U?$pair@$$CBKV?$vector@U_VECINFO@@V?$allocator@U_VECINFO@@@std@@@std@@@std@@@2@$0A@@std@@@0@@Z
_TEXT	SEGMENT PARA USE32 PUBLIC 'CODE'
_TEXT	ENDS
;	COMDAT ??$_Destroy@PAU_Node@?$_Tree_nod@V?$_Tmap_traits@KV?$vector@U_VECINFO@@V?$allocator@U_VECINFO@@@std@@@std@@U?$less@K@2@V?$allocator@U?$pair@$$CBKV?$vector@U_VECINFO@@V?$allocator@U_VECINFO@@@std@@@std@@@std@@@2@$0A@@std@@@std@@@std@@YAXPAPAU_Node@?$_Tree_nod@V?$_Tmap_traits@KV?$vector@U_VECINFO@@V?$allocator@U_VECINFO@@@std@@@std@@U?$less@K@2@V?$allocator@U?$pair@$$CBKV?$vector@U_VECINFO@@V?$allocator@U_VECINFO@@@std@@@std@@@std@@@2@$0A@@std@@@0@@Z
_TEXT	SEGMENT PARA USE32 PUBLIC 'CODE'
_TEXT	ENDS
;	COMDAT ??$_Destroy_range@U_VECINFO@@V?$allocator@U_VECINFO@@@std@@@std@@YAXPAU_VECINFO@@0AAV?$allocator@U_VECINFO@@@0@@Z
_TEXT	SEGMENT PARA USE32 PUBLIC 'CODE'
_TEXT	ENDS
;	COMDAT ??$_Ucopy@PAU_VECINFO@@@?$vector@U_VECINFO@@V?$allocator@U_VECINFO@@@std@@@std@@IAEPAU_VECINFO@@PAU2@00@Z
_TEXT	SEGMENT PARA USE32 PUBLIC 'CODE'
_TEXT	ENDS
;	COMDAT ??$fill@PAU_VECINFO@@U1@@std@@YAXPAU_VECINFO@@0ABU1@@Z
_TEXT	SEGMENT PARA USE32 PUBLIC 'CODE'
_TEXT	ENDS
;	COMDAT ??$copy_backward@PAU_VECINFO@@PAU1@@std@@YAPAU_VECINFO@@PAU1@00@Z
_TEXT	SEGMENT PARA USE32 PUBLIC 'CODE'
_TEXT	ENDS
;	COMDAT ??$_Allocate@U_VECINFO@@@std@@YAPAU_VECINFO@@IPAU1@@Z
_TEXT	SEGMENT PARA USE32 PUBLIC 'CODE'
_TEXT	ENDS
;	COMDAT ??$?0U?$pair@$$CBKH@std@@@?$allocator@PAU_Node@?$_Tree_nod@V?$_Tmap_traits@KHU?$less@K@std@@V?$allocator@U?$pair@$$CBKH@std@@@2@$0A@@std@@@std@@@std@@QAE@ABV?$allocator@U?$pair@$$CBKH@std@@@1@@Z
_TEXT	SEGMENT PARA USE32 PUBLIC 'CODE'
_TEXT	ENDS
;	COMDAT ??$_Destroy@PAUtagACTMSG@@@std@@YAXPAPAUtagACTMSG@@@Z
_TEXT	SEGMENT PARA USE32 PUBLIC 'CODE'
_TEXT	ENDS
;	COMDAT ??$_Destroy@PAUtagMAGICATKMSG@@@std@@YAXPAPAUtagMAGICATKMSG@@@Z
_TEXT	SEGMENT PARA USE32 PUBLIC 'CODE'
_TEXT	ENDS
;	COMDAT ??$?0U?$pair@$$CBKV?$vector@U_VECINFO@@V?$allocator@U_VECINFO@@@std@@@std@@@std@@@?$allocator@PAU_Node@?$_Tree_nod@V?$_Tmap_traits@KV?$vector@U_VECINFO@@V?$allocator@U_VECINFO@@@std@@@std@@U?$less@K@2@V?$allocator@U?$pair@$$CBKV?$vector@U_VECINFO@@V?$allocator@U_VECINFO@@@std@@@std@@@std@@@2@$0A@@std@@@std@@@std@@QAE@ABV?$allocator@U?$pair@$$CBKV?$vector@U_VECINFO@@V?$allocator@U_VECINFO@@@std@@@std@@@std@@@1@@Z
_TEXT	SEGMENT PARA USE32 PUBLIC 'CODE'
_TEXT	ENDS
;	COMDAT ??$_Allocate@U_Node@?$_Tree_nod@V?$_Tmap_traits@KV?$vector@U_VECINFO@@V?$allocator@U_VECINFO@@@std@@@std@@U?$less@K@2@V?$allocator@U?$pair@$$CBKV?$vector@U_VECINFO@@V?$allocator@U_VECINFO@@@std@@@std@@@std@@@2@$0A@@std@@@std@@@std@@YAPAU_Node@?$_Tree_nod@V?$_Tmap_traits@KV?$vector@U_VECINFO@@V?$allocator@U_VECINFO@@@std@@@std@@U?$less@K@2@V?$allocator@U?$pair@$$CBKV?$vector@U_VECINFO@@V?$allocator@U_VECINFO@@@std@@@std@@@std@@@2@$0A@@std@@@0@IPAU120@@Z
_TEXT	SEGMENT PARA USE32 PUBLIC 'CODE'
_TEXT	ENDS
;	COMDAT ??$?0U?$pair@$$CBKH@std@@@?$allocator@U_Node@?$_Tree_nod@V?$_Tmap_traits@KHU?$less@K@std@@V?$allocator@U?$pair@$$CBKH@std@@@2@$0A@@std@@@std@@@std@@QAE@ABV?$allocator@U?$pair@$$CBKH@std@@@1@@Z
_TEXT	SEGMENT PARA USE32 PUBLIC 'CODE'
_TEXT	ENDS
;	COMDAT ??$_Allocate@U_Node@?$_Tree_nod@V?$_Tmap_traits@KHU?$less@K@std@@V?$allocator@U?$pair@$$CBKH@std@@@2@$0A@@std@@@std@@@std@@YAPAU_Node@?$_Tree_nod@V?$_Tmap_traits@KHU?$less@K@std@@V?$allocator@U?$pair@$$CBKH@std@@@2@$0A@@std@@@0@IPAU120@@Z
_TEXT	SEGMENT PARA USE32 PUBLIC 'CODE'
_TEXT	ENDS
;	COMDAT ??$_Construct@PAU_Node@?$_Tree_nod@V?$_Tmap_traits@KHU?$less@K@std@@V?$allocator@U?$pair@$$CBKH@std@@@2@$0A@@std@@@std@@PAU123@@std@@YAXPAPAU_Node@?$_Tree_nod@V?$_Tmap_traits@KHU?$less@K@std@@V?$allocator@U?$pair@$$CBKH@std@@@2@$0A@@std@@@0@ABQAU120@@Z
_TEXT	SEGMENT PARA USE32 PUBLIC 'CODE'
_TEXT	ENDS
;	COMDAT ??$?0U?$pair@$$CBKV?$vector@U_VECINFO@@V?$allocator@U_VECINFO@@@std@@@std@@@std@@@?$allocator@U_Node@?$_Tree_nod@V?$_Tmap_traits@KV?$vector@U_VECINFO@@V?$allocator@U_VECINFO@@@std@@@std@@U?$less@K@2@V?$allocator@U?$pair@$$CBKV?$vector@U_VECINFO@@V?$allocator@U_VECINFO@@@std@@@std@@@std@@@2@$0A@@std@@@std@@@std@@QAE@ABV?$allocator@U?$pair@$$CBKV?$vector@U_VECINFO@@V?$allocator@U_VECINFO@@@std@@@std@@@std@@@1@@Z
_TEXT	SEGMENT PARA USE32 PUBLIC 'CODE'
_TEXT	ENDS
;	COMDAT ??$_Construct@PAU_Node@?$_Tree_nod@V?$_Tmap_traits@KV?$vector@U_VECINFO@@V?$allocator@U_VECINFO@@@std@@@std@@U?$less@K@2@V?$allocator@U?$pair@$$CBKV?$vector@U_VECINFO@@V?$allocator@U_VECINFO@@@std@@@std@@@std@@@2@$0A@@std@@@std@@PAU123@@std@@YAXPAPAU_Node@?$_Tree_nod@V?$_Tmap_traits@KV?$vector@U_VECINFO@@V?$allocator@U_VECINFO@@@std@@@std@@U?$less@K@2@V?$allocator@U?$pair@$$CBKV?$vector@U_VECINFO@@V?$allocator@U_VECINFO@@@std@@@std@@@std@@@2@$0A@@std@@@0@ABQAU120@@Z
_TEXT	SEGMENT PARA USE32 PUBLIC 'CODE'
_TEXT	ENDS
;	COMDAT ??_G_Node@?$_Tree_nod@V?$_Tmap_traits@KV?$vector@U_VECINFO@@V?$allocator@U_VECINFO@@@std@@@std@@U?$less@K@2@V?$allocator@U?$pair@$$CBKV?$vector@U_VECINFO@@V?$allocator@U_VECINFO@@@std@@@std@@@std@@@2@$0A@@std@@@std@@QAEPAXI@Z
_TEXT	SEGMENT PARA USE32 PUBLIC 'CODE'
_TEXT	ENDS
;	COMDAT ??1_Node@?$_Tree_nod@V?$_Tmap_traits@KV?$vector@U_VECINFO@@V?$allocator@U_VECINFO@@@std@@@std@@U?$less@K@2@V?$allocator@U?$pair@$$CBKV?$vector@U_VECINFO@@V?$allocator@U_VECINFO@@@std@@@std@@@std@@@2@$0A@@std@@@std@@QAE@XZ
_TEXT	SEGMENT PARA USE32 PUBLIC 'CODE'
_TEXT	ENDS
;	COMDAT ?destroy@?$allocator@UtagDROPITEM@@@std@@QAEXPAUtagDROPITEM@@@Z
_TEXT	SEGMENT PARA USE32 PUBLIC 'CODE'
_TEXT	ENDS
;	COMDAT ?destroy@?$allocator@UWORMON@@@std@@QAEXPAUWORMON@@@Z
_TEXT	SEGMENT PARA USE32 PUBLIC 'CODE'
_TEXT	ENDS
;	COMDAT ?destroy@?$allocator@U__ITEMGAME@CMiniGame@@@std@@QAEXPAU__ITEMGAME@CMiniGame@@@Z
_TEXT	SEGMENT PARA USE32 PUBLIC 'CODE'
_TEXT	ENDS
;	COMDAT ?destroy@?$allocator@U__ITEM@CExchange@@@std@@QAEXPAU__ITEM@CExchange@@@Z
_TEXT	SEGMENT PARA USE32 PUBLIC 'CODE'
_TEXT	ENDS
;	COMDAT ?destroy@?$allocator@U__POINT@CExchange@@@std@@QAEXPAU__POINT@CExchange@@@Z
_TEXT	SEGMENT PARA USE32 PUBLIC 'CODE'
_TEXT	ENDS
;	COMDAT ?begin@?$vector@EV?$allocator@E@std@@@std@@QAE?AViterator@12@XZ
_TEXT	SEGMENT PARA USE32 PUBLIC 'CODE'
_TEXT	ENDS
;	COMDAT ?end@?$vector@EV?$allocator@E@std@@@std@@QAE?AViterator@12@XZ
_TEXT	SEGMENT PARA USE32 PUBLIC 'CODE'
_TEXT	ENDS
;	COMDAT ?erase@?$vector@EV?$allocator@E@std@@@std@@QAE?AViterator@12@V312@0@Z
_TEXT	SEGMENT PARA USE32 PUBLIC 'CODE'
_TEXT	ENDS
;	COMDAT ?construct@?$allocator@U__SPAWNREGION@CEventLua@@@std@@QAEXPAU__SPAWNREGION@CEventLua@@ABU34@@Z
_TEXT	SEGMENT PARA USE32 PUBLIC 'CODE'
_TEXT	ENDS
;	COMDAT ?destroy@?$allocator@U__SPAWNREGION@CEventLua@@@std@@QAEXPAU__SPAWNREGION@CEventLua@@@Z
_TEXT	SEGMENT PARA USE32 PUBLIC 'CODE'
_TEXT	ENDS
;	COMDAT ?destroy@?$allocator@UD3DXVECTOR3@@@std@@QAEXPAUD3DXVECTOR3@@@Z
_TEXT	SEGMENT PARA USE32 PUBLIC 'CODE'
_TEXT	ENDS
;	COMDAT ?destroy@?$allocator@U_GIFTBOX@@@std@@QAEXPAU_GIFTBOX@@@Z
_TEXT	SEGMENT PARA USE32 PUBLIC 'CODE'
_TEXT	ENDS
;	COMDAT ??9const_iterator@?$vector@EV?$allocator@E@std@@@std@@QBE_NABV012@@Z
_TEXT	SEGMENT PARA USE32 PUBLIC 'CODE'
_TEXT	ENDS
;	COMDAT ??0iterator@?$vector@EV?$allocator@E@std@@@std@@QAE@PAE@Z
_TEXT	SEGMENT PARA USE32 PUBLIC 'CODE'
_TEXT	ENDS
;	COMDAT ??8const_iterator@?$vector@EV?$allocator@E@std@@@std@@QBE_NABV012@@Z
_TEXT	SEGMENT PARA USE32 PUBLIC 'CODE'
_TEXT	ENDS
;	COMDAT ??$insert@Vconst_iterator@?$vector@EV?$allocator@E@std@@@std@@@?$vector@EV?$allocator@E@std@@@std@@QAEXViterator@01@Vconst_iterator@01@1@Z
_TEXT	SEGMENT PARA USE32 PUBLIC 'CODE'
_TEXT	ENDS
;	COMDAT ??$_Ptr_cat@Vconst_iterator@?$vector@EV?$allocator@E@std@@@std@@PAE@std@@YA?AU_Nonscalar_ptr_iterator_tag@0@AAVconst_iterator@?$vector@EV?$allocator@E@std@@@0@AAPAE@Z
_TEXT	SEGMENT PARA USE32 PUBLIC 'CODE'
_TEXT	ENDS
;	COMDAT ??$_Uninit_copy@Vconst_iterator@?$vector@EV?$allocator@E@std@@@std@@PAEV?$allocator@E@3@@std@@YAPAEVconst_iterator@?$vector@EV?$allocator@E@std@@@0@0PAEAAV?$allocator@E@0@U_Nonscalar_ptr_iterator_tag@0@@Z
_TEXT	SEGMENT PARA USE32 PUBLIC 'CODE'
_TEXT	ENDS
;	COMDAT ??$_Uninit_copy@JJ@std@@YAPAJPAJ00AAV?$allocator@J@0@U_Scalar_ptr_iterator_tag@0@@Z
_TEXT	SEGMENT PARA USE32 PUBLIC 'CODE'
_TEXT	ENDS
;	COMDAT ??$_Uninit_copy@PAU__SPAWNREGION@CEventLua@@PAU12@V?$allocator@U__SPAWNREGION@CEventLua@@@std@@@std@@YAPAU__SPAWNREGION@CEventLua@@PAU12@00AAV?$allocator@U__SPAWNREGION@CEventLua@@@0@U_Nonscalar_ptr_iterator_tag@0@@Z
_TEXT	SEGMENT PARA USE32 PUBLIC 'CODE'
_TEXT	ENDS
;	COMDAT ??$fill_n@PAJIJ@std@@YAXPAJIABJ@Z
_TEXT	SEGMENT PARA USE32 PUBLIC 'CODE'
_TEXT	ENDS
;	COMDAT ??$_Uninitialized_copy@Vconst_iterator@?$vector@U_VECINFO@@V?$allocator@U_VECINFO@@@std@@@std@@PAU_VECINFO@@V?$allocator@U_VECINFO@@@3@@std@@YAPAU_VECINFO@@Vconst_iterator@?$vector@U_VECINFO@@V?$allocator@U_VECINFO@@@std@@@0@0PAU1@AAV?$allocator@U_VECINFO@@@0@@Z
_TEXT	SEGMENT PARA USE32 PUBLIC 'CODE'
_TEXT	ENDS
;	COMDAT ??$_Uninit_fill_n@PAUD3DXVECTOR3@@IU1@V?$allocator@UD3DXVECTOR3@@@std@@@std@@YAXPAUD3DXVECTOR3@@IABU1@AAV?$allocator@UD3DXVECTOR3@@@0@U_Nonscalar_ptr_iterator_tag@0@@Z
_TEXT	SEGMENT PARA USE32 PUBLIC 'CODE'
_TEXT	ENDS
;	COMDAT ??$_Ptr_cat@PAU_VECINFO@@PAU1@@std@@YA?AU_Nonscalar_ptr_iterator_tag@0@AAPAU_VECINFO@@0@Z
_TEXT	SEGMENT PARA USE32 PUBLIC 'CODE'
_TEXT	ENDS
;	COMDAT ??$_Uninit_fill_n@PAU_VECINFO@@IU1@V?$allocator@U_VECINFO@@@std@@@std@@YAXPAU_VECINFO@@IABU1@AAV?$allocator@U_VECINFO@@@0@U_Nonscalar_ptr_iterator_tag@0@@Z
_TEXT	SEGMENT PARA USE32 PUBLIC 'CODE'
_TEXT	ENDS
;	COMDAT ??$_Uninitialized_copy@PAUD3DXVECTOR3@@PAU1@V?$allocator@UD3DXVECTOR3@@@std@@@std@@YAPAUD3DXVECTOR3@@PAU1@00AAV?$allocator@UD3DXVECTOR3@@@0@@Z
_TEXT	SEGMENT PARA USE32 PUBLIC 'CODE'
_TEXT	ENDS
;	COMDAT ??$_Copy_backward_opt@PAUD3DXVECTOR3@@PAU1@@std@@YAPAUD3DXVECTOR3@@PAU1@00U_Nonscalar_ptr_iterator_tag@0@@Z
_TEXT	SEGMENT PARA USE32 PUBLIC 'CODE'
_TEXT	ENDS
;	COMDAT ??$_Destroy_range@U_VECINFO@@V?$allocator@U_VECINFO@@@std@@@std@@YAXPAU_VECINFO@@0AAV?$allocator@U_VECINFO@@@0@U_Nonscalar_ptr_iterator_tag@0@@Z
_TEXT	SEGMENT PARA USE32 PUBLIC 'CODE'
_TEXT	ENDS
;	COMDAT ??$_Uninitialized_copy@PAU_VECINFO@@PAU1@V?$allocator@U_VECINFO@@@std@@@std@@YAPAU_VECINFO@@PAU1@00AAV?$allocator@U_VECINFO@@@0@@Z
_TEXT	SEGMENT PARA USE32 PUBLIC 'CODE'
_TEXT	ENDS
;	COMDAT ??$_Copy_backward_opt@PAU_VECINFO@@PAU1@@std@@YAPAU_VECINFO@@PAU1@00U_Nonscalar_ptr_iterator_tag@0@@Z
_TEXT	SEGMENT PARA USE32 PUBLIC 'CODE'
_TEXT	ENDS
;	COMDAT ??$_Destroy@UtagDROPITEM@@@std@@YAXPAUtagDROPITEM@@@Z
_TEXT	SEGMENT PARA USE32 PUBLIC 'CODE'
_TEXT	ENDS
;	COMDAT ??$_Destroy@UWORMON@@@std@@YAXPAUWORMON@@@Z
_TEXT	SEGMENT PARA USE32 PUBLIC 'CODE'
_TEXT	ENDS
;	COMDAT ??$_Destroy@U__ITEMGAME@CMiniGame@@@std@@YAXPAU__ITEMGAME@CMiniGame@@@Z
_TEXT	SEGMENT PARA USE32 PUBLIC 'CODE'
_TEXT	ENDS
;	COMDAT ??$_Destroy@U__ITEM@CExchange@@@std@@YAXPAU__ITEM@CExchange@@@Z
_TEXT	SEGMENT PARA USE32 PUBLIC 'CODE'
_TEXT	ENDS
;	COMDAT ??$_Destroy@U__POINT@CExchange@@@std@@YAXPAU__POINT@CExchange@@@Z
_TEXT	SEGMENT PARA USE32 PUBLIC 'CODE'
_TEXT	ENDS
;	COMDAT ??$copy@PAEPAE@std@@YAPAEPAE00@Z
_TEXT	SEGMENT PARA USE32 PUBLIC 'CODE'
_TEXT	ENDS
;	COMDAT ??$_Construct@U__SPAWNREGION@CEventLua@@U12@@std@@YAXPAU__SPAWNREGION@CEventLua@@ABU12@@Z
_TEXT	SEGMENT PARA USE32 PUBLIC 'CODE'
_TEXT	ENDS
;	COMDAT ??$_Destroy@U__SPAWNREGION@CEventLua@@@std@@YAXPAU__SPAWNREGION@CEventLua@@@Z
_TEXT	SEGMENT PARA USE32 PUBLIC 'CODE'
_TEXT	ENDS
;	COMDAT ??$_Destroy@UD3DXVECTOR3@@@std@@YAXPAUD3DXVECTOR3@@@Z
_TEXT	SEGMENT PARA USE32 PUBLIC 'CODE'
_TEXT	ENDS
;	COMDAT ??$_Destroy@U_GIFTBOX@@@std@@YAXPAU_GIFTBOX@@@Z
_TEXT	SEGMENT PARA USE32 PUBLIC 'CODE'
_TEXT	ENDS
;	COMDAT ?construct@?$allocator@E@std@@QAEXPAEABE@Z
_TEXT	SEGMENT PARA USE32 PUBLIC 'CODE'
_TEXT	ENDS
;	COMDAT ?destroy@?$allocator@E@std@@QAEXPAE@Z
_TEXT	SEGMENT PARA USE32 PUBLIC 'CODE'
_TEXT	ENDS
;	COMDAT ??Dconst_iterator@?$vector@EV?$allocator@E@std@@@std@@QBEABEXZ
_TEXT	SEGMENT PARA USE32 PUBLIC 'CODE'
_TEXT	ENDS
;	COMDAT ??Econst_iterator@?$vector@EV?$allocator@E@std@@@std@@QAEAAV012@XZ
_TEXT	SEGMENT PARA USE32 PUBLIC 'CODE'
_TEXT	ENDS
;	COMDAT ?construct@?$allocator@UD3DXVECTOR3@@@std@@QAEXPAUD3DXVECTOR3@@ABU3@@Z
_TEXT	SEGMENT PARA USE32 PUBLIC 'CODE'
_TEXT	ENDS
;	COMDAT ?construct@?$allocator@U_VECINFO@@@std@@QAEXPAU_VECINFO@@ABU3@@Z
_TEXT	SEGMENT PARA USE32 PUBLIC 'CODE'
_TEXT	ENDS
;	COMDAT ?destroy@?$allocator@U_VECINFO@@@std@@QAEXPAU_VECINFO@@@Z
_TEXT	SEGMENT PARA USE32 PUBLIC 'CODE'
_TEXT	ENDS
;	COMDAT ??$_Insert@Vconst_iterator@?$vector@EV?$allocator@E@std@@@std@@@?$vector@EV?$allocator@E@std@@@std@@QAEXViterator@01@Vconst_iterator@01@1Uforward_iterator_tag@1@@Z
_TEXT	SEGMENT PARA USE32 PUBLIC 'CODE'
_TEXT	ENDS
;	COMDAT ??$_Ptr_cat@Vconst_iterator@?$vector@U_VECINFO@@V?$allocator@U_VECINFO@@@std@@@std@@PAU_VECINFO@@@std@@YA?AU_Nonscalar_ptr_iterator_tag@0@AAVconst_iterator@?$vector@U_VECINFO@@V?$allocator@U_VECINFO@@@std@@@0@AAPAU_VECINFO@@@Z
_TEXT	SEGMENT PARA USE32 PUBLIC 'CODE'
_TEXT	ENDS
;	COMDAT ??$_Uninit_copy@Vconst_iterator@?$vector@U_VECINFO@@V?$allocator@U_VECINFO@@@std@@@std@@PAU_VECINFO@@V?$allocator@U_VECINFO@@@3@@std@@YAPAU_VECINFO@@Vconst_iterator@?$vector@U_VECINFO@@V?$allocator@U_VECINFO@@@std@@@0@0PAU1@AAV?$allocator@U_VECINFO@@@0@U_Nonscalar_ptr_iterator_tag@0@@Z
_TEXT	SEGMENT PARA USE32 PUBLIC 'CODE'
_TEXT	ENDS
;	COMDAT ??$_Uninit_copy@PAUD3DXVECTOR3@@PAU1@V?$allocator@UD3DXVECTOR3@@@std@@@std@@YAPAUD3DXVECTOR3@@PAU1@00AAV?$allocator@UD3DXVECTOR3@@@0@U_Nonscalar_ptr_iterator_tag@0@@Z
_TEXT	SEGMENT PARA USE32 PUBLIC 'CODE'
_TEXT	ENDS
;	COMDAT ??$_Uninit_copy@PAU_VECINFO@@PAU1@V?$allocator@U_VECINFO@@@std@@@std@@YAPAU_VECINFO@@PAU1@00AAV?$allocator@U_VECINFO@@@0@U_Nonscalar_ptr_iterator_tag@0@@Z
_TEXT	SEGMENT PARA USE32 PUBLIC 'CODE'
_TEXT	ENDS
;	COMDAT ??$_Copy_opt@PAEPAE@std@@YAPAEPAE00U_Scalar_ptr_iterator_tag@0@@Z
_TEXT	SEGMENT PARA USE32 PUBLIC 'CODE'
_TEXT	ENDS
;	COMDAT ??$_Construct@EE@std@@YAXPAEABE@Z
_TEXT	SEGMENT PARA USE32 PUBLIC 'CODE'
_TEXT	ENDS
;	COMDAT ??$_Destroy@E@std@@YAXPAE@Z
_TEXT	SEGMENT PARA USE32 PUBLIC 'CODE'
_TEXT	ENDS
;	COMDAT ??$_Construct@UD3DXVECTOR3@@U1@@std@@YAXPAUD3DXVECTOR3@@ABU1@@Z
_TEXT	SEGMENT PARA USE32 PUBLIC 'CODE'
_TEXT	ENDS
;	COMDAT ??$_Construct@U_VECINFO@@U1@@std@@YAXPAU_VECINFO@@ABU1@@Z
_TEXT	SEGMENT PARA USE32 PUBLIC 'CODE'
_TEXT	ENDS
;	COMDAT ??$_Destroy@U_VECINFO@@@std@@YAXPAU_VECINFO@@@Z
_TEXT	SEGMENT PARA USE32 PUBLIC 'CODE'
_TEXT	ENDS
;	COMDAT ??_G_VECINFO@@QAEPAXI@Z
_TEXT	SEGMENT PARA USE32 PUBLIC 'CODE'
_TEXT	ENDS
;	COMDAT ?capacity@?$vector@EV?$allocator@E@std@@@std@@QBEIXZ
_TEXT	SEGMENT PARA USE32 PUBLIC 'CODE'
_TEXT	ENDS
;	COMDAT ??Econst_iterator@?$vector@U_VECINFO@@V?$allocator@U_VECINFO@@@std@@@std@@QAEAAV012@XZ
_TEXT	SEGMENT PARA USE32 PUBLIC 'CODE'
_TEXT	ENDS
;	COMDAT ??9const_iterator@?$vector@U_VECINFO@@V?$allocator@U_VECINFO@@@std@@@std@@QBE_NABV012@@Z
_TEXT	SEGMENT PARA USE32 PUBLIC 'CODE'
_TEXT	ENDS
;	COMDAT ??Giterator@?$vector@EV?$allocator@E@std@@@std@@QBEHABVconst_iterator@12@@Z
_TEXT	SEGMENT PARA USE32 PUBLIC 'CODE'
_TEXT	ENDS
;	COMDAT ??Gconst_iterator@?$vector@EV?$allocator@E@std@@@std@@QBEHABV012@@Z
_TEXT	SEGMENT PARA USE32 PUBLIC 'CODE'
_TEXT	ENDS
;	COMDAT ??8const_iterator@?$vector@U_VECINFO@@V?$allocator@U_VECINFO@@@std@@@std@@QBE_NABV012@@Z
_TEXT	SEGMENT PARA USE32 PUBLIC 'CODE'
_TEXT	ENDS
;	COMDAT ??$_Distance@Vconst_iterator@?$vector@EV?$allocator@E@std@@@std@@I@std@@YAXVconst_iterator@?$vector@EV?$allocator@E@std@@@0@0AAI@Z
_TEXT	SEGMENT PARA USE32 PUBLIC 'CODE'
_TEXT	ENDS
;	COMDAT ??$_Ucopy@PAE@?$vector@EV?$allocator@E@std@@@std@@IAEPAEPAE00@Z
_TEXT	SEGMENT PARA USE32 PUBLIC 'CODE'
_TEXT	ENDS
;	COMDAT ??$advance@Vconst_iterator@?$vector@EV?$allocator@E@std@@@std@@H@std@@YAXAAVconst_iterator@?$vector@EV?$allocator@E@std@@@0@H@Z
_TEXT	SEGMENT PARA USE32 PUBLIC 'CODE'
_TEXT	ENDS
;	COMDAT ??$copy@Vconst_iterator@?$vector@EV?$allocator@E@std@@@std@@PAE@std@@YAPAEVconst_iterator@?$vector@EV?$allocator@E@std@@@0@0PAE@Z
_TEXT	SEGMENT PARA USE32 PUBLIC 'CODE'
_TEXT	ENDS
;	COMDAT ??$copy_backward@PAEPAE@std@@YAPAEPAE00@Z
_TEXT	SEGMENT PARA USE32 PUBLIC 'CODE'
_TEXT	ENDS
;	COMDAT ??$_Distance2@Vconst_iterator@?$vector@EV?$allocator@E@std@@@std@@I@std@@YAXVconst_iterator@?$vector@EV?$allocator@E@std@@@0@0AAIUrandom_access_iterator_tag@0@@Z
_TEXT	SEGMENT PARA USE32 PUBLIC 'CODE'
_TEXT	ENDS
;	COMDAT ??$_Uninitialized_copy@PAEPAEV?$allocator@E@std@@@std@@YAPAEPAE00AAV?$allocator@E@0@@Z
_TEXT	SEGMENT PARA USE32 PUBLIC 'CODE'
_TEXT	ENDS
;	COMDAT ??$_Advance@Vconst_iterator@?$vector@EV?$allocator@E@std@@@std@@H@std@@YAXAAVconst_iterator@?$vector@EV?$allocator@E@std@@@0@HUrandom_access_iterator_tag@0@@Z
_TEXT	SEGMENT PARA USE32 PUBLIC 'CODE'
_TEXT	ENDS
;	COMDAT ??$_Copy_opt@Vconst_iterator@?$vector@EV?$allocator@E@std@@@std@@PAE@std@@YAPAEVconst_iterator@?$vector@EV?$allocator@E@std@@@0@0PAEU_Nonscalar_ptr_iterator_tag@0@@Z
_TEXT	SEGMENT PARA USE32 PUBLIC 'CODE'
_TEXT	ENDS
;	COMDAT ??$_Copy_backward_opt@PAEPAE@std@@YAPAEPAE00U_Scalar_ptr_iterator_tag@0@@Z
_TEXT	SEGMENT PARA USE32 PUBLIC 'CODE'
_TEXT	ENDS
;	COMDAT ??Yconst_iterator@?$vector@EV?$allocator@E@std@@@std@@QAEAAV012@H@Z
_TEXT	SEGMENT PARA USE32 PUBLIC 'CODE'
_TEXT	ENDS
;	COMDAT ??$_Uninit_copy@EE@std@@YAPAEPAE00AAV?$allocator@E@0@U_Scalar_ptr_iterator_tag@0@@Z
_TEXT	SEGMENT PARA USE32 PUBLIC 'CODE'
_TEXT	ENDS
;	COMDAT ?deallocate@?$allocator@E@std@@QAEXPAEI@Z
_TEXT	SEGMENT PARA USE32 PUBLIC 'CODE'
_TEXT	ENDS
;	COMDAT ??$_Ucopy@Vconst_iterator@?$vector@EV?$allocator@E@std@@@std@@@?$vector@EV?$allocator@E@std@@@std@@IAEPAEVconst_iterator@01@0PAE@Z
_TEXT	SEGMENT PARA USE32 PUBLIC 'CODE'
_TEXT	ENDS
;	COMDAT ?allocate@?$allocator@E@std@@QAEPAEI@Z
_TEXT	SEGMENT PARA USE32 PUBLIC 'CODE'
_TEXT	ENDS
;	COMDAT ??$_Allocate@E@std@@YAPAEIPAE@Z
_TEXT	SEGMENT PARA USE32 PUBLIC 'CODE'
_TEXT	ENDS
;	COMDAT ?_Xlen@?$vector@EV?$allocator@E@std@@@std@@IBEXXZ
_TEXT	SEGMENT PARA USE32 PUBLIC 'CODE'
_TEXT	ENDS
;	COMDAT ?size@?$vector@EV?$allocator@E@std@@@std@@QBEIXZ
_TEXT	SEGMENT PARA USE32 PUBLIC 'CODE'
_TEXT	ENDS
;	COMDAT ?max_size@?$vector@EV?$allocator@E@std@@@std@@QBEIXZ
_TEXT	SEGMENT PARA USE32 PUBLIC 'CODE'
_TEXT	ENDS
;	COMDAT ?max_size@?$allocator@E@std@@QBEIXZ
_TEXT	SEGMENT PARA USE32 PUBLIC 'CODE'
_TEXT	ENDS
;	COMDAT ?_Ptr_cat@std@@YA?AU_Scalar_ptr_iterator_tag@1@PAE0@Z
_TEXT	SEGMENT PARA USE32 PUBLIC 'CODE'
_TEXT	ENDS
;	COMDAT ??0const_iterator@?$vector@EV?$allocator@E@std@@@std@@QAE@PAE@Z
_TEXT	SEGMENT PARA USE32 PUBLIC 'CODE'
_TEXT	ENDS
;	COMDAT ?_Destroy@?$vector@EV?$allocator@E@std@@@std@@IAEXPAE0@Z
_TEXT	SEGMENT PARA USE32 PUBLIC 'CODE'
_TEXT	ENDS
;	COMDAT ??$_Destroy_range@EV?$allocator@E@std@@@std@@YAXPAE0AAV?$allocator@E@0@@Z
_TEXT	SEGMENT PARA USE32 PUBLIC 'CODE'
_TEXT	ENDS
;	COMDAT ?_Ptr_cat@std@@YA?AU_Scalar_ptr_iterator_tag@1@PAJ0@Z
_TEXT	SEGMENT PARA USE32 PUBLIC 'CODE'
_TEXT	ENDS
;	COMDAT ??9const_iterator@?$_Tree@V?$_Tmap_traits@KEU?$less@K@std@@V?$allocator@U?$pair@$$CBKE@std@@@2@$0A@@std@@@std@@QBE_NABV012@@Z
_TEXT	SEGMENT PARA USE32 PUBLIC 'CODE'
_TEXT	ENDS
;	COMDAT ??8const_iterator@?$_Tree@V?$_Tmap_traits@KEU?$less@K@std@@V?$allocator@U?$pair@$$CBKE@std@@@2@$0A@@std@@@std@@QBE_NABV012@@Z
_TEXT	SEGMENT PARA USE32 PUBLIC 'CODE'
_TEXT	ENDS
;	COMDAT ??Eiterator@?$_Tree@V?$_Tmap_traits@KEU?$less@K@std@@V?$allocator@U?$pair@$$CBKE@std@@@2@$0A@@std@@@std@@QAEAAV012@XZ
_TEXT	SEGMENT PARA USE32 PUBLIC 'CODE'
_TEXT	ENDS
;	COMDAT ??Econst_iterator@?$_Tree@V?$_Tmap_traits@KEU?$less@K@std@@V?$allocator@U?$pair@$$CBKE@std@@@2@$0A@@std@@@std@@QAEAAV012@XZ
_TEXT	SEGMENT PARA USE32 PUBLIC 'CODE'
_TEXT	ENDS
;	COMDAT ?_Inc@const_iterator@?$_Tree@V?$_Tmap_traits@KEU?$less@K@std@@V?$allocator@U?$pair@$$CBKE@std@@@2@$0A@@std@@@std@@QAEXXZ
_TEXT	SEGMENT PARA USE32 PUBLIC 'CODE'
_TEXT	ENDS
;	COMDAT ?_Min@?$_Tree@V?$_Tmap_traits@KEU?$less@K@std@@V?$allocator@U?$pair@$$CBKE@std@@@2@$0A@@std@@@std@@KAPAU_Node@?$_Tree_nod@V?$_Tmap_traits@KEU?$less@K@std@@V?$allocator@U?$pair@$$CBKE@std@@@2@$0A@@std@@@2@PAU342@@Z
_TEXT	SEGMENT PARA USE32 PUBLIC 'CODE'
_TEXT	ENDS
;	COMDAT ?_Left@?$_Tree@V?$_Tmap_traits@KEU?$less@K@std@@V?$allocator@U?$pair@$$CBKE@std@@@2@$0A@@std@@@std@@KAAAPAU_Node@?$_Tree_nod@V?$_Tmap_traits@KEU?$less@K@std@@V?$allocator@U?$pair@$$CBKE@std@@@2@$0A@@std@@@2@PAU342@@Z
_TEXT	SEGMENT PARA USE32 PUBLIC 'CODE'
_TEXT	ENDS
;	COMDAT ?_Isnil@?$_Tree@V?$_Tmap_traits@KEU?$less@K@std@@V?$allocator@U?$pair@$$CBKE@std@@@2@$0A@@std@@@std@@KAAADPAU_Node@?$_Tree_nod@V?$_Tmap_traits@KEU?$less@K@std@@V?$allocator@U?$pair@$$CBKE@std@@@2@$0A@@std@@@2@@Z
_TEXT	SEGMENT PARA USE32 PUBLIC 'CODE'
_TEXT	ENDS
;	COMDAT ?_Parent@?$_Tree@V?$_Tmap_traits@KEU?$less@K@std@@V?$allocator@U?$pair@$$CBKE@std@@@2@$0A@@std@@@std@@KAAAPAU_Node@?$_Tree_nod@V?$_Tmap_traits@KEU?$less@K@std@@V?$allocator@U?$pair@$$CBKE@std@@@2@$0A@@std@@@2@PAU342@@Z
_TEXT	SEGMENT PARA USE32 PUBLIC 'CODE'
_TEXT	ENDS
;	COMDAT ?_Right@?$_Tree@V?$_Tmap_traits@KEU?$less@K@std@@V?$allocator@U?$pair@$$CBKE@std@@@2@$0A@@std@@@std@@KAAAPAU_Node@?$_Tree_nod@V?$_Tmap_traits@KEU?$less@K@std@@V?$allocator@U?$pair@$$CBKE@std@@@2@$0A@@std@@@2@PAU342@@Z
_TEXT	SEGMENT PARA USE32 PUBLIC 'CODE'
_TEXT	ENDS
;	COMDAT ??9const_iterator@?$_Tree@V?$_Tmap_traits@KPAVCCtrl@@U?$less@K@std@@V?$allocator@U?$pair@$$CBKPAVCCtrl@@@std@@@3@$0A@@std@@@std@@QBE_NABV012@@Z
_TEXT	SEGMENT PARA USE32 PUBLIC 'CODE'
_TEXT	ENDS
;	COMDAT ??8const_iterator@?$_Tree@V?$_Tmap_traits@KPAVCCtrl@@U?$less@K@std@@V?$allocator@U?$pair@$$CBKPAVCCtrl@@@std@@@3@$0A@@std@@@std@@QBE_NABV012@@Z
_TEXT	SEGMENT PARA USE32 PUBLIC 'CODE'
_TEXT	ENDS
;	COMDAT ??Eiterator@?$_Tree@V?$_Tmap_traits@KPAVCCtrl@@U?$less@K@std@@V?$allocator@U?$pair@$$CBKPAVCCtrl@@@std@@@3@$0A@@std@@@std@@QAEAAV012@XZ
_TEXT	SEGMENT PARA USE32 PUBLIC 'CODE'
_TEXT	ENDS
;	COMDAT ??Econst_iterator@?$_Tree@V?$_Tmap_traits@KPAVCCtrl@@U?$less@K@std@@V?$allocator@U?$pair@$$CBKPAVCCtrl@@@std@@@3@$0A@@std@@@std@@QAEAAV012@XZ
_TEXT	SEGMENT PARA USE32 PUBLIC 'CODE'
_TEXT	ENDS
;	COMDAT ?_Inc@const_iterator@?$_Tree@V?$_Tmap_traits@KPAVCCtrl@@U?$less@K@std@@V?$allocator@U?$pair@$$CBKPAVCCtrl@@@std@@@3@$0A@@std@@@std@@QAEXXZ
_TEXT	SEGMENT PARA USE32 PUBLIC 'CODE'
_TEXT	ENDS
;	COMDAT ?_Min@?$_Tree@V?$_Tmap_traits@KPAVCCtrl@@U?$less@K@std@@V?$allocator@U?$pair@$$CBKPAVCCtrl@@@std@@@3@$0A@@std@@@std@@KAPAU_Node@?$_Tree_nod@V?$_Tmap_traits@KPAVCCtrl@@U?$less@K@std@@V?$allocator@U?$pair@$$CBKPAVCCtrl@@@std@@@3@$0A@@std@@@2@PAU342@@Z
_TEXT	SEGMENT PARA USE32 PUBLIC 'CODE'
_TEXT	ENDS
;	COMDAT ?_Left@?$_Tree@V?$_Tmap_traits@KPAVCCtrl@@U?$less@K@std@@V?$allocator@U?$pair@$$CBKPAVCCtrl@@@std@@@3@$0A@@std@@@std@@KAAAPAU_Node@?$_Tree_nod@V?$_Tmap_traits@KPAVCCtrl@@U?$less@K@std@@V?$allocator@U?$pair@$$CBKPAVCCtrl@@@std@@@3@$0A@@std@@@2@PAU342@@Z
_TEXT	SEGMENT PARA USE32 PUBLIC 'CODE'
_TEXT	ENDS
;	COMDAT ?_Isnil@?$_Tree@V?$_Tmap_traits@KPAVCCtrl@@U?$less@K@std@@V?$allocator@U?$pair@$$CBKPAVCCtrl@@@std@@@3@$0A@@std@@@std@@KAAADPAU_Node@?$_Tree_nod@V?$_Tmap_traits@KPAVCCtrl@@U?$less@K@std@@V?$allocator@U?$pair@$$CBKPAVCCtrl@@@std@@@3@$0A@@std@@@2@@Z
_TEXT	SEGMENT PARA USE32 PUBLIC 'CODE'
_TEXT	ENDS
;	COMDAT ?_Parent@?$_Tree@V?$_Tmap_traits@KPAVCCtrl@@U?$less@K@std@@V?$allocator@U?$pair@$$CBKPAVCCtrl@@@std@@@3@$0A@@std@@@std@@KAAAPAU_Node@?$_Tree_nod@V?$_Tmap_traits@KPAVCCtrl@@U?$less@K@std@@V?$allocator@U?$pair@$$CBKPAVCCtrl@@@std@@@3@$0A@@std@@@2@PAU342@@Z
_TEXT	SEGMENT PARA USE32 PUBLIC 'CODE'
_TEXT	ENDS
;	COMDAT ?_Right@?$_Tree@V?$_Tmap_traits@KPAVCCtrl@@U?$less@K@std@@V?$allocator@U?$pair@$$CBKPAVCCtrl@@@std@@@3@$0A@@std@@@std@@KAAAPAU_Node@?$_Tree_nod@V?$_Tmap_traits@KPAVCCtrl@@U?$less@K@std@@V?$allocator@U?$pair@$$CBKPAVCCtrl@@@std@@@3@$0A@@std@@@2@PAU342@@Z
_TEXT	SEGMENT PARA USE32 PUBLIC 'CODE'
_TEXT	ENDS
;	COMDAT ??9const_iterator@?$_Tree@V?$_Tmap_traits@KPAVCUser@@U?$less@K@std@@V?$allocator@U?$pair@$$CBKPAVCUser@@@std@@@3@$0A@@std@@@std@@QBE_NABV012@@Z
_TEXT	SEGMENT PARA USE32 PUBLIC 'CODE'
_TEXT	ENDS
;	COMDAT ??8const_iterator@?$_Tree@V?$_Tmap_traits@KPAVCUser@@U?$less@K@std@@V?$allocator@U?$pair@$$CBKPAVCUser@@@std@@@3@$0A@@std@@@std@@QBE_NABV012@@Z
_TEXT	SEGMENT PARA USE32 PUBLIC 'CODE'
_TEXT	ENDS
;	COMDAT ??Eiterator@?$_Tree@V?$_Tmap_traits@KPAVCUser@@U?$less@K@std@@V?$allocator@U?$pair@$$CBKPAVCUser@@@std@@@3@$0A@@std@@@std@@QAEAAV012@XZ
_TEXT	SEGMENT PARA USE32 PUBLIC 'CODE'
_TEXT	ENDS
;	COMDAT ??Econst_iterator@?$_Tree@V?$_Tmap_traits@KPAVCUser@@U?$less@K@std@@V?$allocator@U?$pair@$$CBKPAVCUser@@@std@@@3@$0A@@std@@@std@@QAEAAV012@XZ
_TEXT	SEGMENT PARA USE32 PUBLIC 'CODE'
_TEXT	ENDS
;	COMDAT ?_Inc@const_iterator@?$_Tree@V?$_Tmap_traits@KPAVCUser@@U?$less@K@std@@V?$allocator@U?$pair@$$CBKPAVCUser@@@std@@@3@$0A@@std@@@std@@QAEXXZ
_TEXT	SEGMENT PARA USE32 PUBLIC 'CODE'
_TEXT	ENDS
;	COMDAT ?_Min@?$_Tree@V?$_Tmap_traits@KPAVCUser@@U?$less@K@std@@V?$allocator@U?$pair@$$CBKPAVCUser@@@std@@@3@$0A@@std@@@std@@KAPAU_Node@?$_Tree_nod@V?$_Tmap_traits@KPAVCUser@@U?$less@K@std@@V?$allocator@U?$pair@$$CBKPAVCUser@@@std@@@3@$0A@@std@@@2@PAU342@@Z
_TEXT	SEGMENT PARA USE32 PUBLIC 'CODE'
_TEXT	ENDS
;	COMDAT ?_Left@?$_Tree@V?$_Tmap_traits@KPAVCUser@@U?$less@K@std@@V?$allocator@U?$pair@$$CBKPAVCUser@@@std@@@3@$0A@@std@@@std@@KAAAPAU_Node@?$_Tree_nod@V?$_Tmap_traits@KPAVCUser@@U?$less@K@std@@V?$allocator@U?$pair@$$CBKPAVCUser@@@std@@@3@$0A@@std@@@2@PAU342@@Z
_TEXT	SEGMENT PARA USE32 PUBLIC 'CODE'
_TEXT	ENDS
;	COMDAT ?_Isnil@?$_Tree@V?$_Tmap_traits@KPAVCUser@@U?$less@K@std@@V?$allocator@U?$pair@$$CBKPAVCUser@@@std@@@3@$0A@@std@@@std@@KAAADPAU_Node@?$_Tree_nod@V?$_Tmap_traits@KPAVCUser@@U?$less@K@std@@V?$allocator@U?$pair@$$CBKPAVCUser@@@std@@@3@$0A@@std@@@2@@Z
_TEXT	SEGMENT PARA USE32 PUBLIC 'CODE'
_TEXT	ENDS
;	COMDAT ?_Parent@?$_Tree@V?$_Tmap_traits@KPAVCUser@@U?$less@K@std@@V?$allocator@U?$pair@$$CBKPAVCUser@@@std@@@3@$0A@@std@@@std@@KAAAPAU_Node@?$_Tree_nod@V?$_Tmap_traits@KPAVCUser@@U?$less@K@std@@V?$allocator@U?$pair@$$CBKPAVCUser@@@std@@@3@$0A@@std@@@2@PAU342@@Z
_TEXT	SEGMENT PARA USE32 PUBLIC 'CODE'
_TEXT	ENDS
;	COMDAT ?_Right@?$_Tree@V?$_Tmap_traits@KPAVCUser@@U?$less@K@std@@V?$allocator@U?$pair@$$CBKPAVCUser@@@std@@@3@$0A@@std@@@std@@KAAAPAU_Node@?$_Tree_nod@V?$_Tmap_traits@KPAVCUser@@U?$less@K@std@@V?$allocator@U?$pair@$$CBKPAVCUser@@@std@@@3@$0A@@std@@@2@PAU342@@Z
_TEXT	SEGMENT PARA USE32 PUBLIC 'CODE'
_TEXT	ENDS
;	COMDAT ?_Psave@?$_Facetptr@V?$ctype@G@std@@@std@@2PBVfacet@locale@2@B
_DATA	SEGMENT DWORD USE32 PUBLIC 'DATA'
_DATA	ENDS
;	COMDAT ?_Psave@?$_Facetptr@V?$ctype@D@std@@@std@@2PBVfacet@locale@2@B
_DATA	SEGMENT DWORD USE32 PUBLIC 'DATA'
_DATA	ENDS
;	COMDAT ??$swap@D@std@@YAXAAD0@Z
_TEXT	SEGMENT PARA USE32 PUBLIC 'CODE'
_TEXT	ENDS
;	COMDAT __TI3?AVout_of_range@std@@
xdata$x	SEGMENT DWORD USE32 PUBLIC 'CONST'
xdata$x	ENDS
;	COMDAT ??1out_of_range@std@@UAE@XZ
_TEXT	SEGMENT PARA USE32 PUBLIC 'CODE'
_TEXT	ENDS
;	COMDAT ??_7out_of_range@std@@6B@
CONST	SEGMENT DWORD USE32 PUBLIC 'CONST'
CONST	ENDS
;	COMDAT ??_Gout_of_range@std@@UAEPAXI@Z
_TEXT	SEGMENT PARA USE32 PUBLIC 'CODE'
_TEXT	ENDS
;	COMDAT ?what@logic_error@std@@UBEPBDXZ
_TEXT	SEGMENT PARA USE32 PUBLIC 'CODE'
_TEXT	ENDS
;	COMDAT ?c_str@?$basic_string@DU?$char_traits@D@std@@V?$allocator@D@2@@std@@QBEPBDXZ
_TEXT	SEGMENT PARA USE32 PUBLIC 'CODE'
_TEXT	ENDS
;	COMDAT ??1logic_error@std@@UAE@XZ
_TEXT	SEGMENT PARA USE32 PUBLIC 'CODE'
_TEXT	ENDS
;	COMDAT ??_7logic_error@std@@6B@
CONST	SEGMENT DWORD USE32 PUBLIC 'CONST'
CONST	ENDS
;	COMDAT ??_Glogic_error@std@@UAEPAXI@Z
_TEXT	SEGMENT PARA USE32 PUBLIC 'CODE'
_TEXT	ENDS
;	COMDAT __CTA3?AVout_of_range@std@@
xdata$x	SEGMENT DWORD USE32 PUBLIC 'CONST'
xdata$x	ENDS
;	COMDAT __CT??_R0?AVout_of_range@std@@@8??0out_of_range@std@@QAE@ABV01@@Z40
xdata$x	SEGMENT DWORD USE32 PUBLIC 'CONST'
xdata$x	ENDS
;	COMDAT ??_R0?AVout_of_range@std@@@8
_DATA	SEGMENT DWORD USE32 PUBLIC 'DATA'
_DATA	ENDS
;	COMDAT ??0out_of_range@std@@QAE@ABV01@@Z
_TEXT	SEGMENT PARA USE32 PUBLIC 'CODE'
_TEXT	ENDS
;	COMDAT ??0logic_error@std@@QAE@ABV01@@Z
_TEXT	SEGMENT PARA USE32 PUBLIC 'CODE'
_TEXT	ENDS
;	COMDAT ??0?$basic_string@DU?$char_traits@D@std@@V?$allocator@D@2@@std@@QAE@ABV01@@Z
_TEXT	SEGMENT PARA USE32 PUBLIC 'CODE'
_TEXT	ENDS
;	COMDAT ??0?$_String_val@DV?$allocator@D@std@@@std@@IAE@V?$allocator@D@1@@Z
_TEXT	SEGMENT PARA USE32 PUBLIC 'CODE'
_TEXT	ENDS
;	COMDAT ??0?$allocator@D@std@@QAE@ABV01@@Z
_TEXT	SEGMENT PARA USE32 PUBLIC 'CODE'
_TEXT	ENDS
;	COMDAT ?_Tidy@?$basic_string@DU?$char_traits@D@std@@V?$allocator@D@2@@std@@IAEX_NI@Z
_TEXT	SEGMENT PARA USE32 PUBLIC 'CODE'
_TEXT	ENDS
;	COMDAT ?copy@?$char_traits@D@std@@SAPADPADPBDI@Z
_TEXT	SEGMENT PARA USE32 PUBLIC 'CODE'
_TEXT	ENDS
;	COMDAT ?deallocate@?$allocator@D@std@@QAEXPADI@Z
_TEXT	SEGMENT PARA USE32 PUBLIC 'CODE'
_TEXT	ENDS
;	COMDAT ?_Eos@?$basic_string@DU?$char_traits@D@std@@V?$allocator@D@2@@std@@IAEXI@Z
_TEXT	SEGMENT PARA USE32 PUBLIC 'CODE'
_TEXT	ENDS
;	COMDAT ?assign@?$char_traits@D@std@@SAXAADABD@Z
_TEXT	SEGMENT PARA USE32 PUBLIC 'CODE'
_TEXT	ENDS
;	COMDAT ?_Myptr@?$basic_string@DU?$char_traits@D@std@@V?$allocator@D@2@@std@@QAEPADXZ
_TEXT	SEGMENT PARA USE32 PUBLIC 'CODE'
_TEXT	ENDS
;	COMDAT ?assign@?$basic_string@DU?$char_traits@D@std@@V?$allocator@D@2@@std@@QAEAAV12@ABV12@II@Z
_TEXT	SEGMENT PARA USE32 PUBLIC 'CODE'
_TEXT	ENDS
;	COMDAT ?erase@?$basic_string@DU?$char_traits@D@std@@V?$allocator@D@2@@std@@QAEAAV12@II@Z
_TEXT	SEGMENT PARA USE32 PUBLIC 'CODE'
_TEXT	ENDS
;	COMDAT ?move@?$char_traits@D@std@@SAPADPADPBDI@Z
_TEXT	SEGMENT PARA USE32 PUBLIC 'CODE'
_TEXT	ENDS
;	COMDAT ?_Grow@?$basic_string@DU?$char_traits@D@std@@V?$allocator@D@2@@std@@IAE_NI_N@Z
_TEXT	SEGMENT PARA USE32 PUBLIC 'CODE'
_TEXT	ENDS
;	COMDAT ?max_size@?$basic_string@DU?$char_traits@D@std@@V?$allocator@D@2@@std@@QBEIXZ
_TEXT	SEGMENT PARA USE32 PUBLIC 'CODE'
_TEXT	ENDS
;	COMDAT ?max_size@?$allocator@D@std@@QBEIXZ
_TEXT	SEGMENT PARA USE32 PUBLIC 'CODE'
_TEXT	ENDS
;	COMDAT ?_Copy@?$basic_string@DU?$char_traits@D@std@@V?$allocator@D@2@@std@@IAEXII@Z
_TEXT	SEGMENT PARA USE32 PUBLIC 'CODE'
_TEXT	ENDS
;	COMDAT ?allocate@?$allocator@D@std@@QAEPADI@Z
_TEXT	SEGMENT PARA USE32 PUBLIC 'CODE'
_TEXT	ENDS
;	COMDAT ??$_Allocate@D@std@@YAPADIPAD@Z
_TEXT	SEGMENT PARA USE32 PUBLIC 'CODE'
_TEXT	ENDS
;	COMDAT ?npos@?$basic_string@DU?$char_traits@D@std@@V?$allocator@D@2@@std@@2IB
CONST	SEGMENT DWORD USE32 PUBLIC 'CONST'
CONST	ENDS
;	COMDAT __CT??_R0?AVlogic_error@std@@@8??0logic_error@std@@QAE@ABV01@@Z40
xdata$x	SEGMENT DWORD USE32 PUBLIC 'CONST'
xdata$x	ENDS
;	COMDAT ??_R0?AVlogic_error@std@@@8
_DATA	SEGMENT DWORD USE32 PUBLIC 'DATA'
_DATA	ENDS
;	COMDAT __CT??_R0?AVexception@@@8??0exception@@QAE@ABV0@@Z12
xdata$x	SEGMENT DWORD USE32 PUBLIC 'CONST'
xdata$x	ENDS
;	COMDAT ??_R0?AVexception@@@8
_DATA	SEGMENT DWORD USE32 PUBLIC 'DATA'
_DATA	ENDS
;	COMDAT ??_C@_0BM@PAPJHAGI@invalid?5map?1set?$DMT?$DO?5iterator?$AA@
CONST	SEGMENT DWORD USE32 PUBLIC 'CONST'
CONST	ENDS
;	COMDAT ??0out_of_range@std@@QAE@ABV?$basic_string@DU?$char_traits@D@std@@V?$allocator@D@2@@1@@Z
_TEXT	SEGMENT PARA USE32 PUBLIC 'CODE'
_TEXT	ENDS
;	COMDAT ??0logic_error@std@@QAE@ABV?$basic_string@DU?$char_traits@D@std@@V?$allocator@D@2@@1@@Z
_TEXT	SEGMENT PARA USE32 PUBLIC 'CODE'
_TEXT	ENDS
;	COMDAT ?_Color@?$_Tree@V?$_Tmap_traits@KHU?$less@K@std@@V?$allocator@U?$pair@$$CBKH@std@@@2@$0A@@std@@@std@@KAAADPAU_Node@?$_Tree_nod@V?$_Tmap_traits@KHU?$less@K@std@@V?$allocator@U?$pair@$$CBKH@std@@@2@$0A@@std@@@2@@Z
_TEXT	SEGMENT PARA USE32 PUBLIC 'CODE'
_TEXT	ENDS
;	COMDAT ?deallocate@?$allocator@U_Node@?$_Tree_nod@V?$_Tmap_traits@KHU?$less@K@std@@V?$allocator@U?$pair@$$CBKH@std@@@2@$0A@@std@@@std@@@std@@QAEXPAU_Node@?$_Tree_nod@V?$_Tmap_traits@KHU?$less@K@std@@V?$allocator@U?$pair@$$CBKH@std@@@2@$0A@@std@@@2@I@Z
_TEXT	SEGMENT PARA USE32 PUBLIC 'CODE'
_TEXT	ENDS
;	COMDAT ?destroy@?$allocator@PAU_Node@?$_Tree_nod@V?$_Tmap_traits@KHU?$less@K@std@@V?$allocator@U?$pair@$$CBKH@std@@@2@$0A@@std@@@std@@@std@@QAEXPAPAU_Node@?$_Tree_nod@V?$_Tmap_traits@KHU?$less@K@std@@V?$allocator@U?$pair@$$CBKH@std@@@2@$0A@@std@@@2@@Z
_TEXT	SEGMENT PARA USE32 PUBLIC 'CODE'
_TEXT	ENDS
;	COMDAT ??$_Destroy@PAU_Node@?$_Tree_nod@V?$_Tmap_traits@KHU?$less@K@std@@V?$allocator@U?$pair@$$CBKH@std@@@2@$0A@@std@@@std@@@std@@YAXPAPAU_Node@?$_Tree_nod@V?$_Tmap_traits@KHU?$less@K@std@@V?$allocator@U?$pair@$$CBKH@std@@@2@$0A@@std@@@0@@Z
_TEXT	SEGMENT PARA USE32 PUBLIC 'CODE'
_TEXT	ENDS
;	COMDAT ?_Right@?$_Tree@V?$_Tmap_traits@KHU?$less@K@std@@V?$allocator@U?$pair@$$CBKH@std@@@2@$0A@@std@@@std@@KAAAPAU_Node@?$_Tree_nod@V?$_Tmap_traits@KHU?$less@K@std@@V?$allocator@U?$pair@$$CBKH@std@@@2@$0A@@std@@@2@PAU342@@Z
_TEXT	SEGMENT PARA USE32 PUBLIC 'CODE'
_TEXT	ENDS
;	COMDAT ?_Parent@?$_Tree@V?$_Tmap_traits@KHU?$less@K@std@@V?$allocator@U?$pair@$$CBKH@std@@@2@$0A@@std@@@std@@KAAAPAU_Node@?$_Tree_nod@V?$_Tmap_traits@KHU?$less@K@std@@V?$allocator@U?$pair@$$CBKH@std@@@2@$0A@@std@@@2@PAU342@@Z
_TEXT	SEGMENT PARA USE32 PUBLIC 'CODE'
_TEXT	ENDS
;	COMDAT ?_Left@?$_Tree@V?$_Tmap_traits@KHU?$less@K@std@@V?$allocator@U?$pair@$$CBKH@std@@@2@$0A@@std@@@std@@KAAAPAU_Node@?$_Tree_nod@V?$_Tmap_traits@KHU?$less@K@std@@V?$allocator@U?$pair@$$CBKH@std@@@2@$0A@@std@@@2@PAU342@@Z
_TEXT	SEGMENT PARA USE32 PUBLIC 'CODE'
_TEXT	ENDS
;	COMDAT ??_C@_0BD@OLBABOEK@vector?$DMT?$DO?5too?5long?$AA@
CONST	SEGMENT DWORD USE32 PUBLIC 'CONST'
CONST	ENDS
;	COMDAT ??3@YAXPAX0@Z
_TEXT	SEGMENT PARA USE32 PUBLIC 'CODE'
_TEXT	ENDS
;	COMDAT ??2@YAPAXIPAX@Z
_TEXT	SEGMENT PARA USE32 PUBLIC 'CODE'
_TEXT	ENDS
;	COMDAT ?deallocate@?$allocator@UD3DXVECTOR3@@@std@@QAEXPAUD3DXVECTOR3@@I@Z
_TEXT	SEGMENT PARA USE32 PUBLIC 'CODE'
_TEXT	ENDS
;	COMDAT ?_Destroy@?$vector@UD3DXVECTOR3@@V?$allocator@UD3DXVECTOR3@@@std@@@std@@IAEXPAUD3DXVECTOR3@@0@Z
_TEXT	SEGMENT PARA USE32 PUBLIC 'CODE'
_TEXT	ENDS
;	COMDAT ??$_Destroy_range@UD3DXVECTOR3@@V?$allocator@UD3DXVECTOR3@@@std@@@std@@YAXPAUD3DXVECTOR3@@0AAV?$allocator@UD3DXVECTOR3@@@0@@Z
_TEXT	SEGMENT PARA USE32 PUBLIC 'CODE'
_TEXT	ENDS
;	COMDAT ?allocate@?$allocator@UD3DXVECTOR3@@@std@@QAEPAUD3DXVECTOR3@@I@Z
_TEXT	SEGMENT PARA USE32 PUBLIC 'CODE'
_TEXT	ENDS
;	COMDAT ??$_Allocate@UD3DXVECTOR3@@@std@@YAPAUD3DXVECTOR3@@IPAU1@@Z
_TEXT	SEGMENT PARA USE32 PUBLIC 'CODE'
_TEXT	ENDS
;	COMDAT ?_Xlen@?$vector@UD3DXVECTOR3@@V?$allocator@UD3DXVECTOR3@@@std@@@std@@IBEXXZ
_TEXT	SEGMENT PARA USE32 PUBLIC 'CODE'
_TEXT	ENDS
;	COMDAT ?max_size@?$vector@UD3DXVECTOR3@@V?$allocator@UD3DXVECTOR3@@@std@@@std@@QBEIXZ
_TEXT	SEGMENT PARA USE32 PUBLIC 'CODE'
_TEXT	ENDS
;	COMDAT ?max_size@?$allocator@UD3DXVECTOR3@@@std@@QBEIXZ
_TEXT	SEGMENT PARA USE32 PUBLIC 'CODE'
_TEXT	ENDS
;	COMDAT ?_Rmost@?$_Tree@V?$_Tmap_traits@KHU?$less@K@std@@V?$allocator@U?$pair@$$CBKH@std@@@2@$0A@@std@@@std@@IAEAAPAU_Node@?$_Tree_nod@V?$_Tmap_traits@KHU?$less@K@std@@V?$allocator@U?$pair@$$CBKH@std@@@2@$0A@@std@@@2@XZ
_TEXT	SEGMENT PARA USE32 PUBLIC 'CODE'
_TEXT	ENDS
;	COMDAT ?_Lmost@?$_Tree@V?$_Tmap_traits@KHU?$less@K@std@@V?$allocator@U?$pair@$$CBKH@std@@@2@$0A@@std@@@std@@IAEAAPAU_Node@?$_Tree_nod@V?$_Tmap_traits@KHU?$less@K@std@@V?$allocator@U?$pair@$$CBKH@std@@@2@$0A@@std@@@2@XZ
_TEXT	SEGMENT PARA USE32 PUBLIC 'CODE'
_TEXT	ENDS
;	COMDAT ?_Root@?$_Tree@V?$_Tmap_traits@KHU?$less@K@std@@V?$allocator@U?$pair@$$CBKH@std@@@2@$0A@@std@@@std@@IAEAAPAU_Node@?$_Tree_nod@V?$_Tmap_traits@KHU?$less@K@std@@V?$allocator@U?$pair@$$CBKH@std@@@2@$0A@@std@@@2@XZ
_TEXT	SEGMENT PARA USE32 PUBLIC 'CODE'
_TEXT	ENDS
;	COMDAT ?_Isnil@?$_Tree@V?$_Tmap_traits@KHU?$less@K@std@@V?$allocator@U?$pair@$$CBKH@std@@@2@$0A@@std@@@std@@KAAADPAU_Node@?$_Tree_nod@V?$_Tmap_traits@KHU?$less@K@std@@V?$allocator@U?$pair@$$CBKH@std@@@2@$0A@@std@@@2@@Z
_TEXT	SEGMENT PARA USE32 PUBLIC 'CODE'
_TEXT	ENDS
;	COMDAT __TI3?AVlength_error@std@@
xdata$x	SEGMENT DWORD USE32 PUBLIC 'CONST'
xdata$x	ENDS
;	COMDAT ??1length_error@std@@UAE@XZ
_TEXT	SEGMENT PARA USE32 PUBLIC 'CODE'
_TEXT	ENDS
;	COMDAT ??_7length_error@std@@6B@
CONST	SEGMENT DWORD USE32 PUBLIC 'CONST'
CONST	ENDS
;	COMDAT ??_Glength_error@std@@UAEPAXI@Z
_TEXT	SEGMENT PARA USE32 PUBLIC 'CODE'
_TEXT	ENDS
;	COMDAT __CTA3?AVlength_error@std@@
xdata$x	SEGMENT DWORD USE32 PUBLIC 'CONST'
xdata$x	ENDS
;	COMDAT __CT??_R0?AVlength_error@std@@@8??0length_error@std@@QAE@ABV01@@Z40
xdata$x	SEGMENT DWORD USE32 PUBLIC 'CONST'
xdata$x	ENDS
;	COMDAT ??_R0?AVlength_error@std@@@8
_DATA	SEGMENT DWORD USE32 PUBLIC 'DATA'
_DATA	ENDS
;	COMDAT ??0length_error@std@@QAE@ABV01@@Z
_TEXT	SEGMENT PARA USE32 PUBLIC 'CODE'
_TEXT	ENDS
;	COMDAT ??1?$basic_string@DU?$char_traits@D@std@@V?$allocator@D@2@@std@@QAE@XZ
_TEXT	SEGMENT PARA USE32 PUBLIC 'CODE'
_TEXT	ENDS
;	COMDAT ??_C@_0BE@JONHPENG@map?1set?$DMT?$DO?5too?5long?$AA@
CONST	SEGMENT DWORD USE32 PUBLIC 'CONST'
CONST	ENDS
;	COMDAT ??0?$basic_string@DU?$char_traits@D@std@@V?$allocator@D@2@@std@@QAE@PBD@Z
_TEXT	SEGMENT PARA USE32 PUBLIC 'CODE'
_TEXT	ENDS
;	COMDAT ??0?$allocator@D@std@@QAE@XZ
_TEXT	SEGMENT PARA USE32 PUBLIC 'CODE'
_TEXT	ENDS
;	COMDAT ?assign@?$basic_string@DU?$char_traits@D@std@@V?$allocator@D@2@@std@@QAEAAV12@PBD@Z
_TEXT	SEGMENT PARA USE32 PUBLIC 'CODE'
_TEXT	ENDS
;	COMDAT ?assign@?$basic_string@DU?$char_traits@D@std@@V?$allocator@D@2@@std@@QAEAAV12@PBDI@Z
_TEXT	SEGMENT PARA USE32 PUBLIC 'CODE'
_TEXT	ENDS
;	COMDAT ?_Inside@?$basic_string@DU?$char_traits@D@std@@V?$allocator@D@2@@std@@IAE_NPBD@Z
_TEXT	SEGMENT PARA USE32 PUBLIC 'CODE'
_TEXT	ENDS
;	COMDAT ?length@?$char_traits@D@std@@SAIPBD@Z
_TEXT	SEGMENT PARA USE32 PUBLIC 'CODE'
_TEXT	ENDS
;	COMDAT ??0length_error@std@@QAE@ABV?$basic_string@DU?$char_traits@D@std@@V?$allocator@D@2@@1@@Z
_TEXT	SEGMENT PARA USE32 PUBLIC 'CODE'
_TEXT	ENDS
;	COMDAT ?compare@?$char_traits@D@std@@SAHPBD0I@Z
_TEXT	SEGMENT PARA USE32 PUBLIC 'CODE'
_TEXT	ENDS
;	COMDAT ?GetString@?$CSimpleStringT@D$0A@@ATL@@QBEPBDXZ
_TEXT	SEGMENT PARA USE32 PUBLIC 'CODE'
_TEXT	ENDS
;	COMDAT ??R?$less@K@std@@QBE_NABK0@Z
_TEXT	SEGMENT PARA USE32 PUBLIC 'CODE'
_TEXT	ENDS
;	COMDAT ?_Tidy@?$vector@UD3DXVECTOR3@@V?$allocator@UD3DXVECTOR3@@@std@@@std@@IAEXXZ
_TEXT	SEGMENT PARA USE32 PUBLIC 'CODE'
_TEXT	ENDS
;	COMDAT ??1?$_Tree@V?$_Tmap_traits@KHU?$less@K@std@@V?$allocator@U?$pair@$$CBKH@std@@@2@$0A@@std@@@std@@QAE@XZ
_TEXT	SEGMENT PARA USE32 PUBLIC 'CODE'
_TEXT	ENDS
;	COMDAT ?_Tidy@?$_Tree@V?$_Tmap_traits@KHU?$less@K@std@@V?$allocator@U?$pair@$$CBKH@std@@@2@$0A@@std@@@std@@IAEXXZ
_TEXT	SEGMENT PARA USE32 PUBLIC 'CODE'
_TEXT	ENDS
;	COMDAT ?erase@?$_Tree@V?$_Tmap_traits@KHU?$less@K@std@@V?$allocator@U?$pair@$$CBKH@std@@@2@$0A@@std@@@std@@QAE?AViterator@12@V312@0@Z
_TEXT	SEGMENT PARA USE32 PUBLIC 'CODE'
_TEXT	ENDS
;	COMDAT ??8const_iterator@?$_Tree@V?$_Tmap_traits@KHU?$less@K@std@@V?$allocator@U?$pair@$$CBKH@std@@@2@$0A@@std@@@std@@QBE_NABV012@@Z
_TEXT	SEGMENT PARA USE32 PUBLIC 'CODE'
_TEXT	ENDS
;	COMDAT ??9const_iterator@?$_Tree@V?$_Tmap_traits@KHU?$less@K@std@@V?$allocator@U?$pair@$$CBKH@std@@@2@$0A@@std@@@std@@QBE_NABV012@@Z
_TEXT	SEGMENT PARA USE32 PUBLIC 'CODE'
_TEXT	ENDS
;	COMDAT ?erase@?$_Tree@V?$_Tmap_traits@KHU?$less@K@std@@V?$allocator@U?$pair@$$CBKH@std@@@2@$0A@@std@@@std@@QAE?AViterator@12@V312@@Z
_TEXT	SEGMENT PARA USE32 PUBLIC 'CODE'
_TEXT	ENDS
;	COMDAT ??Eiterator@?$_Tree@V?$_Tmap_traits@KHU?$less@K@std@@V?$allocator@U?$pair@$$CBKH@std@@@2@$0A@@std@@@std@@QAEAAV012@XZ
_TEXT	SEGMENT PARA USE32 PUBLIC 'CODE'
_TEXT	ENDS
;	COMDAT ??Econst_iterator@?$_Tree@V?$_Tmap_traits@KHU?$less@K@std@@V?$allocator@U?$pair@$$CBKH@std@@@2@$0A@@std@@@std@@QAEAAV012@XZ
_TEXT	SEGMENT PARA USE32 PUBLIC 'CODE'
_TEXT	ENDS
;	COMDAT ?_Inc@const_iterator@?$_Tree@V?$_Tmap_traits@KHU?$less@K@std@@V?$allocator@U?$pair@$$CBKH@std@@@2@$0A@@std@@@std@@QAEXXZ
_TEXT	SEGMENT PARA USE32 PUBLIC 'CODE'
_TEXT	ENDS
;	COMDAT ?_Mynode@const_iterator@?$_Tree@V?$_Tmap_traits@KHU?$less@K@std@@V?$allocator@U?$pair@$$CBKH@std@@@2@$0A@@std@@@std@@QBEPAU_Node@?$_Tree_nod@V?$_Tmap_traits@KHU?$less@K@std@@V?$allocator@U?$pair@$$CBKH@std@@@2@$0A@@std@@@3@XZ
_TEXT	SEGMENT PARA USE32 PUBLIC 'CODE'
_TEXT	ENDS
;	COMDAT ?_Min@?$_Tree@V?$_Tmap_traits@KHU?$less@K@std@@V?$allocator@U?$pair@$$CBKH@std@@@2@$0A@@std@@@std@@KAPAU_Node@?$_Tree_nod@V?$_Tmap_traits@KHU?$less@K@std@@V?$allocator@U?$pair@$$CBKH@std@@@2@$0A@@std@@@2@PAU342@@Z
_TEXT	SEGMENT PARA USE32 PUBLIC 'CODE'
_TEXT	ENDS
;	COMDAT ?_Max@?$_Tree@V?$_Tmap_traits@KHU?$less@K@std@@V?$allocator@U?$pair@$$CBKH@std@@@2@$0A@@std@@@std@@KAPAU_Node@?$_Tree_nod@V?$_Tmap_traits@KHU?$less@K@std@@V?$allocator@U?$pair@$$CBKH@std@@@2@$0A@@std@@@2@PAU342@@Z
_TEXT	SEGMENT PARA USE32 PUBLIC 'CODE'
_TEXT	ENDS
;	COMDAT ?_Lrotate@?$_Tree@V?$_Tmap_traits@KHU?$less@K@std@@V?$allocator@U?$pair@$$CBKH@std@@@2@$0A@@std@@@std@@IAEXPAU_Node@?$_Tree_nod@V?$_Tmap_traits@KHU?$less@K@std@@V?$allocator@U?$pair@$$CBKH@std@@@2@$0A@@std@@@2@@Z
_TEXT	SEGMENT PARA USE32 PUBLIC 'CODE'
_TEXT	ENDS
;	COMDAT ?_Rrotate@?$_Tree@V?$_Tmap_traits@KHU?$less@K@std@@V?$allocator@U?$pair@$$CBKH@std@@@2@$0A@@std@@@std@@IAEXPAU_Node@?$_Tree_nod@V?$_Tmap_traits@KHU?$less@K@std@@V?$allocator@U?$pair@$$CBKH@std@@@2@$0A@@std@@@2@@Z
_TEXT	SEGMENT PARA USE32 PUBLIC 'CODE'
_TEXT	ENDS
;	COMDAT ?destroy@?$allocator@U_Node@?$_Tree_nod@V?$_Tmap_traits@KHU?$less@K@std@@V?$allocator@U?$pair@$$CBKH@std@@@2@$0A@@std@@@std@@@std@@QAEXPAU_Node@?$_Tree_nod@V?$_Tmap_traits@KHU?$less@K@std@@V?$allocator@U?$pair@$$CBKH@std@@@2@$0A@@std@@@2@@Z
_TEXT	SEGMENT PARA USE32 PUBLIC 'CODE'
_TEXT	ENDS
;	COMDAT ??$_Destroy@U_Node@?$_Tree_nod@V?$_Tmap_traits@KHU?$less@K@std@@V?$allocator@U?$pair@$$CBKH@std@@@2@$0A@@std@@@std@@@std@@YAXPAU_Node@?$_Tree_nod@V?$_Tmap_traits@KHU?$less@K@std@@V?$allocator@U?$pair@$$CBKH@std@@@2@$0A@@std@@@0@@Z
_TEXT	SEGMENT PARA USE32 PUBLIC 'CODE'
_TEXT	ENDS
;	COMDAT ??Eiterator@?$_Tree@V?$_Tmap_traits@KHU?$less@K@std@@V?$allocator@U?$pair@$$CBKH@std@@@2@$0A@@std@@@std@@QAE?AV012@H@Z
_TEXT	SEGMENT PARA USE32 PUBLIC 'CODE'
_TEXT	ENDS
;	COMDAT ?end@?$_Tree@V?$_Tmap_traits@KHU?$less@K@std@@V?$allocator@U?$pair@$$CBKH@std@@@2@$0A@@std@@@std@@QAE?AViterator@12@XZ
_TEXT	SEGMENT PARA USE32 PUBLIC 'CODE'
_TEXT	ENDS
;	COMDAT ??0iterator@?$_Tree@V?$_Tmap_traits@KHU?$less@K@std@@V?$allocator@U?$pair@$$CBKH@std@@@2@$0A@@std@@@std@@QAE@PAU_Node@?$_Tree_nod@V?$_Tmap_traits@KHU?$less@K@std@@V?$allocator@U?$pair@$$CBKH@std@@@2@$0A@@std@@@2@@Z
_TEXT	SEGMENT PARA USE32 PUBLIC 'CODE'
_TEXT	ENDS
;	COMDAT ??0const_iterator@?$_Tree@V?$_Tmap_traits@KHU?$less@K@std@@V?$allocator@U?$pair@$$CBKH@std@@@2@$0A@@std@@@std@@QAE@PAU_Node@?$_Tree_nod@V?$_Tmap_traits@KHU?$less@K@std@@V?$allocator@U?$pair@$$CBKH@std@@@2@$0A@@std@@@2@@Z
_TEXT	SEGMENT PARA USE32 PUBLIC 'CODE'
_TEXT	ENDS
;	COMDAT ?begin@?$_Tree@V?$_Tmap_traits@KHU?$less@K@std@@V?$allocator@U?$pair@$$CBKH@std@@@2@$0A@@std@@@std@@QAE?AViterator@12@XZ
_TEXT	SEGMENT PARA USE32 PUBLIC 'CODE'
_TEXT	ENDS
;	COMDAT ?_Myptr@?$basic_string@DU?$char_traits@D@std@@V?$allocator@D@2@@std@@QBEPBDXZ
_TEXT	SEGMENT PARA USE32 PUBLIC 'CODE'
_TEXT	ENDS
;	COMDAT ?size@?$basic_string@DU?$char_traits@D@std@@V?$allocator@D@2@@std@@QBEIXZ
_TEXT	SEGMENT PARA USE32 PUBLIC 'CODE'
_TEXT	ENDS
;	COMDAT ??_7CTimer@@6B@
CONST	SEGMENT DWORD USE32 PUBLIC 'CONST'
CONST	ENDS
;	COMDAT ??_GCTimer@@UAEPAXI@Z
_TEXT	SEGMENT PARA USE32 PUBLIC 'CODE'
_TEXT	ENDS
;	COMDAT ?D3DXVec3Length@@YAMPBUD3DXVECTOR3@@@Z
_TEXT	SEGMENT PARA USE32 PUBLIC 'CODE'
_TEXT	ENDS
;	COMDAT _sqrtf
_TEXT	SEGMENT PARA USE32 PUBLIC 'CODE'
_TEXT	ENDS
;	COMDAT ?D3DXVec3Subtract@@YAPAUD3DXVECTOR3@@PAU1@PBU1@1@Z
_TEXT	SEGMENT PARA USE32 PUBLIC 'CODE'
_TEXT	ENDS
;	COMDAT ??GD3DXVECTOR3@@QBE?AU0@ABU0@@Z
_TEXT	SEGMENT PARA USE32 PUBLIC 'CODE'
_TEXT	ENDS
;	COMDAT ??1?$vector@UD3DXVECTOR3@@V?$allocator@UD3DXVECTOR3@@@std@@@std@@QAE@XZ
_TEXT	SEGMENT PARA USE32 PUBLIC 'CODE'
_TEXT	ENDS
;	COMDAT ??0?$vector@UD3DXVECTOR3@@V?$allocator@UD3DXVECTOR3@@@std@@@std@@QAE@XZ
_TEXT	SEGMENT PARA USE32 PUBLIC 'CODE'
_TEXT	ENDS
;	COMDAT ??0?$_Vector_val@UD3DXVECTOR3@@V?$allocator@UD3DXVECTOR3@@@std@@@std@@IAE@V?$allocator@UD3DXVECTOR3@@@1@@Z
_TEXT	SEGMENT PARA USE32 PUBLIC 'CODE'
_TEXT	ENDS
;	COMDAT ??0?$allocator@UD3DXVECTOR3@@@std@@QAE@ABV01@@Z
_TEXT	SEGMENT PARA USE32 PUBLIC 'CODE'
_TEXT	ENDS
;	COMDAT ??0?$allocator@UD3DXVECTOR3@@@std@@QAE@XZ
_TEXT	SEGMENT PARA USE32 PUBLIC 'CODE'
_TEXT	ENDS
;	COMDAT ?_Buy@?$vector@UD3DXVECTOR3@@V?$allocator@UD3DXVECTOR3@@@std@@@std@@IAE_NI@Z
_TEXT	SEGMENT PARA USE32 PUBLIC 'CODE'
_TEXT	ENDS
;	COMDAT ??0D3DXVECTOR3@@QAE@XZ
_TEXT	SEGMENT PARA USE32 PUBLIC 'CODE'
_TEXT	ENDS
;	COMDAT ??DD3DXVECTOR3@@QBE?AU0@M@Z
_TEXT	SEGMENT PARA USE32 PUBLIC 'CODE'
_TEXT	ENDS
;	COMDAT ??HD3DXVECTOR3@@QBE?AU0@ABU0@@Z
_TEXT	SEGMENT PARA USE32 PUBLIC 'CODE'
_TEXT	ENDS
;	COMDAT ??GD3DXVECTOR3@@QBE?AU0@XZ
_TEXT	SEGMENT PARA USE32 PUBLIC 'CODE'
_TEXT	ENDS
;	COMDAT ??HD3DXVECTOR3@@QBE?AU0@XZ
_TEXT	SEGMENT PARA USE32 PUBLIC 'CODE'
_TEXT	ENDS
;	COMDAT ??0D3DXVECTOR3@@QAE@MMM@Z
_TEXT	SEGMENT PARA USE32 PUBLIC 'CODE'
_TEXT	ENDS
;	COMDAT ??1CTimer@@UAE@XZ
_TEXT	SEGMENT PARA USE32 PUBLIC 'CODE'
_TEXT	ENDS
;	COMDAT ?sMailBox@?1??GetInstance@CPatrolPath@@SAPAV2@XZ@4V2@A
_BSS	SEGMENT DWORD USE32 PUBLIC 'BSS'
_BSS	ENDS
;	COMDAT ?$S1@?1??GetInstance@CPatrolPath@@SAPAV2@XZ@4IA
_BSS	SEGMENT DWORD USE32 PUBLIC 'BSS'
_BSS	ENDS
;	COMDAT ?clear@?$_Tree@V?$_Tmap_traits@KHU?$less@K@std@@V?$allocator@U?$pair@$$CBKH@std@@@2@$0A@@std@@@std@@QAEXXZ
_TEXT	SEGMENT PARA USE32 PUBLIC 'CODE'
_TEXT	ENDS
;	COMDAT ?_Erase@?$_Tree@V?$_Tmap_traits@KHU?$less@K@std@@V?$allocator@U?$pair@$$CBKH@std@@@2@$0A@@std@@@std@@IAEXPAU_Node@?$_Tree_nod@V?$_Tmap_traits@KHU?$less@K@std@@V?$allocator@U?$pair@$$CBKH@std@@@2@$0A@@std@@@2@@Z
_TEXT	SEGMENT PARA USE32 PUBLIC 'CODE'
_TEXT	ENDS
;	COMDAT ??1?$map@KHU?$less@K@std@@V?$allocator@U?$pair@$$CBKH@std@@@2@@std@@QAE@XZ
_TEXT	SEGMENT PARA USE32 PUBLIC 'CODE'
_TEXT	ENDS
sxdata	SEGMENT DWORD USE32 'SXDATA'
sxdata	ENDS
FLAT	GROUP _DATA, CONST, _BSS
	ASSUME	CS: FLAT, DS: FLAT, SS: FLAT
endif

INCLUDELIB LIBCMT
INCLUDELIB OLDNAMES

PUBLIC	??2@YAPAXIPAX@Z					; operator new
; Function compile flags: /Ogty
; File c:\program files\microsoft visual studio .net 2003\vc7\include\new.h
;	COMDAT ??2@YAPAXIPAX@Z
_TEXT	SEGMENT
___formal$ = 8						; size = 4
__P$ = 12						; size = 4
??2@YAPAXIPAX@Z PROC NEAR				; operator new, COMDAT

; 109  :         {return (_P); }

  00000	8b 44 24 08	 mov	 eax, DWORD PTR __P$[esp-4]
  00004	c3		 ret	 0
??2@YAPAXIPAX@Z ENDP					; operator new
_TEXT	ENDS
PUBLIC	??3@YAXPAX0@Z					; operator delete
; Function compile flags: /Ogty
;	COMDAT ??3@YAXPAX0@Z
_TEXT	SEGMENT
___formal$ = 8						; size = 4
___formal$ = 12						; size = 4
??3@YAXPAX0@Z PROC NEAR					; operator delete, COMDAT

; 112  :         {return; }

  00000	c3		 ret	 0
??3@YAXPAX0@Z ENDP					; operator delete
_TEXT	ENDS
PUBLIC	?SetReturn@CPatrolPath@@QAEXKH@Z		; CPatrolPath::SetReturn
; Function compile flags: /Ogty
; File c:\documents and settings\test\mes documents\source\virtuos_v17\build\program\_common\pathobj.cpp
;	COMDAT ?SetReturn@CPatrolPath@@QAEXKH@Z
_TEXT	SEGMENT
_dwIndex$ = 8						; size = 4
_bReturn$ = 12						; size = 4
?SetReturn@CPatrolPath@@QAEXKH@Z PROC NEAR		; CPatrolPath::SetReturn, COMDAT
; _this$ = ecx

; 30   : }

  00000	c2 08 00	 ret	 8
?SetReturn@CPatrolPath@@QAEXKH@Z ENDP			; CPatrolPath::SetReturn
_TEXT	ENDS
PUBLIC	??4CTimer@@QAEAAV0@ABV0@@Z			; CTimer::operator=
EXTRN	__fltused:NEAR
; Function compile flags: /Ogty
;	COMDAT ??4CTimer@@QAEAAV0@ABV0@@Z
_TEXT	SEGMENT
___that$ = 8						; size = 4
??4CTimer@@QAEAAV0@ABV0@@Z PROC NEAR			; CTimer::operator=, COMDAT
; _this$ = ecx
  00000	8b c1		 mov	 eax, ecx
  00002	8b 4c 24 04	 mov	 ecx, DWORD PTR ___that$[esp-4]
  00006	dd 41 08	 fld	 QWORD PTR [ecx+8]
  00009	dd 58 08	 fstp	 QWORD PTR [eax+8]
  0000c	dd 41 10	 fld	 QWORD PTR [ecx+16]
  0000f	dd 58 10	 fstp	 QWORD PTR [eax+16]
  00012	8b 49 18	 mov	 ecx, DWORD PTR [ecx+24]
  00015	89 48 18	 mov	 DWORD PTR [eax+24], ecx
  00018	c2 04 00	 ret	 4
??4CTimer@@QAEAAV0@ABV0@@Z ENDP				; CTimer::operator=
_TEXT	ENDS
PUBLIC	??0CTimer@@QAE@ABV0@@Z				; CTimer::CTimer
PUBLIC	??_7CTimer@@6B@					; CTimer::`vftable'
PUBLIC	??_GCTimer@@UAEPAXI@Z				; CTimer::`scalar deleting destructor'
EXTRN	?Reset@CTimer@@UAEXXZ:NEAR			; CTimer::Reset
EXTRN	?Over@CTimer@@UAEHXZ:NEAR			; CTimer::Over
EXTRN	??_ECTimer@@UAEPAXI@Z:NEAR			; CTimer::`vector deleting destructor'
;	COMDAT ??_7CTimer@@6B@
CONST	SEGMENT
??_7CTimer@@6B@ DD FLAT:??_ECTimer@@UAEPAXI@Z		; CTimer::`vftable'
	DD	FLAT:?Reset@CTimer@@UAEXXZ
	DD	FLAT:?Over@CTimer@@UAEHXZ
; Function compile flags: /Ogty
CONST	ENDS
;	COMDAT ??0CTimer@@QAE@ABV0@@Z
_TEXT	SEGMENT
___that$ = 8						; size = 4
??0CTimer@@QAE@ABV0@@Z PROC NEAR			; CTimer::CTimer, COMDAT
; _this$ = ecx
  00000	8b c1		 mov	 eax, ecx
  00002	8b 4c 24 04	 mov	 ecx, DWORD PTR ___that$[esp-4]
  00006	c7 00 00 00 00
	00		 mov	 DWORD PTR [eax], OFFSET FLAT:??_7CTimer@@6B@
  0000c	dd 41 08	 fld	 QWORD PTR [ecx+8]
  0000f	dd 58 08	 fstp	 QWORD PTR [eax+8]
  00012	dd 41 10	 fld	 QWORD PTR [ecx+16]
  00015	dd 58 10	 fstp	 QWORD PTR [eax+16]
  00018	8b 49 18	 mov	 ecx, DWORD PTR [ecx+24]
  0001b	89 48 18	 mov	 DWORD PTR [eax+24], ecx
  0001e	c2 04 00	 ret	 4
??0CTimer@@QAE@ABV0@@Z ENDP				; CTimer::CTimer
_TEXT	ENDS
PUBLIC	?size@?$vector@UD3DXVECTOR3@@V?$allocator@UD3DXVECTOR3@@@std@@@std@@QBEIXZ ; std::vector<D3DXVECTOR3,std::allocator<D3DXVECTOR3> >::size
; Function compile flags: /Ogty
; File c:\program files\microsoft visual studio .net 2003\vc7\include\vector
;	COMDAT ?size@?$vector@UD3DXVECTOR3@@V?$allocator@UD3DXVECTOR3@@@std@@@std@@QBEIXZ
_TEXT	SEGMENT
?size@?$vector@UD3DXVECTOR3@@V?$allocator@UD3DXVECTOR3@@@std@@@std@@QBEIXZ PROC NEAR ; std::vector<D3DXVECTOR3,std::allocator<D3DXVECTOR3> >::size, COMDAT
; _this$ = ecx

; 516  : 		return (_Myfirst == 0 ? 0 : _Mylast - _Myfirst);

  00000	8b 41 04	 mov	 eax, DWORD PTR [ecx+4]
  00003	85 c0		 test	 eax, eax
  00005	75 01		 jne	 SHORT $L229138

; 517  : 		}

  00007	c3		 ret	 0
$L229138:

; 516  : 		return (_Myfirst == 0 ? 0 : _Mylast - _Myfirst);

  00008	8b 49 08	 mov	 ecx, DWORD PTR [ecx+8]
  0000b	2b c8		 sub	 ecx, eax
  0000d	b8 ab aa aa 2a	 mov	 eax, 715827883		; 2aaaaaabH
  00012	f7 e9		 imul	 ecx
  00014	d1 fa		 sar	 edx, 1
  00016	8b c2		 mov	 eax, edx
  00018	c1 e8 1f	 shr	 eax, 31			; 0000001fH
  0001b	03 c2		 add	 eax, edx

; 517  : 		}

  0001d	c3		 ret	 0
?size@?$vector@UD3DXVECTOR3@@V?$allocator@UD3DXVECTOR3@@@std@@@std@@QBEIXZ ENDP ; std::vector<D3DXVECTOR3,std::allocator<D3DXVECTOR3> >::size
_TEXT	ENDS
PUBLIC	??8const_iterator@?$_Tree@V?$_Tmap_traits@KV?$vector@U_VECINFO@@V?$allocator@U_VECINFO@@@std@@@std@@U?$less@K@2@V?$allocator@U?$pair@$$CBKV?$vector@U_VECINFO@@V?$allocator@U_VECINFO@@@std@@@std@@@std@@@2@$0A@@std@@@std@@QBE_NABV012@@Z ; std::_Tree<std::_Tmap_traits<unsigned long,std::vector<_VECINFO,std::allocator<_VECINFO> >,std::less<unsigned long>,std::allocator<std::pair<unsigned long const ,std::vector<_VECINFO,std::allocator<_VECINFO> > > >,0> >::const_iterator::operator==
; Function compile flags: /Ogty
; File c:\program files\microsoft visual studio .net 2003\vc7\include\xtree
;	COMDAT ??8const_iterator@?$_Tree@V?$_Tmap_traits@KV?$vector@U_VECINFO@@V?$allocator@U_VECINFO@@@std@@@std@@U?$less@K@2@V?$allocator@U?$pair@$$CBKV?$vector@U_VECINFO@@V?$allocator@U_VECINFO@@@std@@@std@@@std@@@2@$0A@@std@@@std@@QBE_NABV012@@Z
_TEXT	SEGMENT
__Right$ = 8						; size = 4
??8const_iterator@?$_Tree@V?$_Tmap_traits@KV?$vector@U_VECINFO@@V?$allocator@U_VECINFO@@@std@@@std@@U?$less@K@2@V?$allocator@U?$pair@$$CBKV?$vector@U_VECINFO@@V?$allocator@U_VECINFO@@@std@@@std@@@std@@@2@$0A@@std@@@std@@QBE_NABV012@@Z PROC NEAR ; std::_Tree<std::_Tmap_traits<unsigned long,std::vector<_VECINFO,std::allocator<_VECINFO> >,std::less<unsigned long>,std::allocator<std::pair<unsigned long const ,std::vector<_VECINFO,std::allocator<_VECINFO> > > >,0> >::const_iterator::operator==, COMDAT
; _this$ = ecx

; 241  : 			return (_Ptr == _Right._Ptr);

  00000	8b 01		 mov	 eax, DWORD PTR [ecx]
  00002	8b 4c 24 04	 mov	 ecx, DWORD PTR __Right$[esp-4]
  00006	2b 01		 sub	 eax, DWORD PTR [ecx]
  00008	f7 d8		 neg	 eax
  0000a	1b c0		 sbb	 eax, eax
  0000c	40		 inc	 eax

; 242  : 			}

  0000d	c2 04 00	 ret	 4
??8const_iterator@?$_Tree@V?$_Tmap_traits@KV?$vector@U_VECINFO@@V?$allocator@U_VECINFO@@@std@@@std@@U?$less@K@2@V?$allocator@U?$pair@$$CBKV?$vector@U_VECINFO@@V?$allocator@U_VECINFO@@@std@@@std@@@std@@@2@$0A@@std@@@std@@QBE_NABV012@@Z ENDP ; std::_Tree<std::_Tmap_traits<unsigned long,std::vector<_VECINFO,std::allocator<_VECINFO> >,std::less<unsigned long>,std::allocator<std::pair<unsigned long const ,std::vector<_VECINFO,std::allocator<_VECINFO> > > >,0> >::const_iterator::operator==
_TEXT	ENDS
PUBLIC	??9const_iterator@?$_Tree@V?$_Tmap_traits@KV?$vector@U_VECINFO@@V?$allocator@U_VECINFO@@@std@@@std@@U?$less@K@2@V?$allocator@U?$pair@$$CBKV?$vector@U_VECINFO@@V?$allocator@U_VECINFO@@@std@@@std@@@std@@@2@$0A@@std@@@std@@QBE_NABV012@@Z ; std::_Tree<std::_Tmap_traits<unsigned long,std::vector<_VECINFO,std::allocator<_VECINFO> >,std::less<unsigned long>,std::allocator<std::pair<unsigned long const ,std::vector<_VECINFO,std::allocator<_VECINFO> > > >,0> >::const_iterator::operator!=
; Function compile flags: /Ogty
;	COMDAT ??9const_iterator@?$_Tree@V?$_Tmap_traits@KV?$vector@U_VECINFO@@V?$allocator@U_VECINFO@@@std@@@std@@U?$less@K@2@V?$allocator@U?$pair@$$CBKV?$vector@U_VECINFO@@V?$allocator@U_VECINFO@@@std@@@std@@@std@@@2@$0A@@std@@@std@@QBE_NABV012@@Z
_TEXT	SEGMENT
__Right$ = 8						; size = 4
??9const_iterator@?$_Tree@V?$_Tmap_traits@KV?$vector@U_VECINFO@@V?$allocator@U_VECINFO@@@std@@@std@@U?$less@K@2@V?$allocator@U?$pair@$$CBKV?$vector@U_VECINFO@@V?$allocator@U_VECINFO@@@std@@@std@@@std@@@2@$0A@@std@@@std@@QBE_NABV012@@Z PROC NEAR ; std::_Tree<std::_Tmap_traits<unsigned long,std::vector<_VECINFO,std::allocator<_VECINFO> >,std::less<unsigned long>,std::allocator<std::pair<unsigned long const ,std::vector<_VECINFO,std::allocator<_VECINFO> > > >,0> >::const_iterator::operator!=, COMDAT
; _this$ = ecx

; 246  : 			return (!(*this == _Right));

  00000	8b 01		 mov	 eax, DWORD PTR [ecx]
  00002	8b 54 24 04	 mov	 edx, DWORD PTR __Right$[esp-4]
  00006	56		 push	 esi
  00007	8b 32		 mov	 esi, DWORD PTR [edx]
  00009	33 c9		 xor	 ecx, ecx
  0000b	3b c6		 cmp	 eax, esi
  0000d	0f 95 c1	 setne	 cl
  00010	8a c1		 mov	 al, cl
  00012	5e		 pop	 esi

; 247  : 			}

  00013	c2 04 00	 ret	 4
??9const_iterator@?$_Tree@V?$_Tmap_traits@KV?$vector@U_VECINFO@@V?$allocator@U_VECINFO@@@std@@@std@@U?$less@K@2@V?$allocator@U?$pair@$$CBKV?$vector@U_VECINFO@@V?$allocator@U_VECINFO@@@std@@@std@@@std@@@2@$0A@@std@@@std@@QBE_NABV012@@Z ENDP ; std::_Tree<std::_Tmap_traits<unsigned long,std::vector<_VECINFO,std::allocator<_VECINFO> >,std::less<unsigned long>,std::allocator<std::pair<unsigned long const ,std::vector<_VECINFO,std::allocator<_VECINFO> > > >,0> >::const_iterator::operator!=
_TEXT	ENDS
PUBLIC	?size@?$vector@U_VECINFO@@V?$allocator@U_VECINFO@@@std@@@std@@QBEIXZ ; std::vector<_VECINFO,std::allocator<_VECINFO> >::size
; Function compile flags: /Ogty
; File c:\program files\microsoft visual studio .net 2003\vc7\include\vector
;	COMDAT ?size@?$vector@U_VECINFO@@V?$allocator@U_VECINFO@@@std@@@std@@QBEIXZ
_TEXT	SEGMENT
?size@?$vector@U_VECINFO@@V?$allocator@U_VECINFO@@@std@@@std@@QBEIXZ PROC NEAR ; std::vector<_VECINFO,std::allocator<_VECINFO> >::size, COMDAT
; _this$ = ecx

; 516  : 		return (_Myfirst == 0 ? 0 : _Mylast - _Myfirst);

  00000	8b 41 04	 mov	 eax, DWORD PTR [ecx+4]
  00003	85 c0		 test	 eax, eax
  00005	75 01		 jne	 SHORT $L229152

; 517  : 		}

  00007	c3		 ret	 0
$L229152:

; 516  : 		return (_Myfirst == 0 ? 0 : _Mylast - _Myfirst);

  00008	8b 49 08	 mov	 ecx, DWORD PTR [ecx+8]
  0000b	2b c8		 sub	 ecx, eax
  0000d	b8 93 24 49 92	 mov	 eax, -1840700269	; 92492493H
  00012	f7 e9		 imul	 ecx
  00014	03 d1		 add	 edx, ecx
  00016	c1 fa 05	 sar	 edx, 5
  00019	8b c2		 mov	 eax, edx
  0001b	c1 e8 1f	 shr	 eax, 31			; 0000001fH
  0001e	03 c2		 add	 eax, edx

; 517  : 		}

  00020	c3		 ret	 0
?size@?$vector@U_VECINFO@@V?$allocator@U_VECINFO@@@std@@@std@@QBEIXZ ENDP ; std::vector<_VECINFO,std::allocator<_VECINFO> >::size
_TEXT	ENDS
PUBLIC	??0?$allocator@U?$pair@$$CBKH@std@@@std@@QAE@XZ	; std::allocator<std::pair<unsigned long const ,int> >::allocator<std::pair<unsigned long const ,int> >
; Function compile flags: /Ogty
; File c:\program files\microsoft visual studio .net 2003\vc7\include\xmemory
;	COMDAT ??0?$allocator@U?$pair@$$CBKH@std@@@std@@QAE@XZ
_TEXT	SEGMENT
??0?$allocator@U?$pair@$$CBKH@std@@@std@@QAE@XZ PROC NEAR ; std::allocator<std::pair<unsigned long const ,int> >::allocator<std::pair<unsigned long const ,int> >, COMDAT
; _this$ = ecx

; 111  : 	allocator()

  00000	8b c1		 mov	 eax, ecx

; 112  : 		{	// construct default allocator (do nothing)
; 113  : 		}

  00002	c3		 ret	 0
??0?$allocator@U?$pair@$$CBKH@std@@@std@@QAE@XZ ENDP	; std::allocator<std::pair<unsigned long const ,int> >::allocator<std::pair<unsigned long const ,int> >
_TEXT	ENDS
PUBLIC	?capacity@?$vector@UD3DXVECTOR3@@V?$allocator@UD3DXVECTOR3@@@std@@@std@@QBEIXZ ; std::vector<D3DXVECTOR3,std::allocator<D3DXVECTOR3> >::capacity
; Function compile flags: /Ogty
; File c:\program files\microsoft visual studio .net 2003\vc7\include\vector
;	COMDAT ?capacity@?$vector@UD3DXVECTOR3@@V?$allocator@UD3DXVECTOR3@@@std@@@std@@QBEIXZ
_TEXT	SEGMENT
?capacity@?$vector@UD3DXVECTOR3@@V?$allocator@UD3DXVECTOR3@@@std@@@std@@QBEIXZ PROC NEAR ; std::vector<D3DXVECTOR3,std::allocator<D3DXVECTOR3> >::capacity, COMDAT
; _this$ = ecx

; 458  : 		return (_Myfirst == 0 ? 0 : _Myend - _Myfirst);

  00000	8b 41 04	 mov	 eax, DWORD PTR [ecx+4]
  00003	85 c0		 test	 eax, eax
  00005	75 01		 jne	 SHORT $L229160

; 459  : 		}

  00007	c3		 ret	 0
$L229160:

; 458  : 		return (_Myfirst == 0 ? 0 : _Myend - _Myfirst);

  00008	8b 49 0c	 mov	 ecx, DWORD PTR [ecx+12]
  0000b	2b c8		 sub	 ecx, eax
  0000d	b8 ab aa aa 2a	 mov	 eax, 715827883		; 2aaaaaabH
  00012	f7 e9		 imul	 ecx
  00014	d1 fa		 sar	 edx, 1
  00016	8b c2		 mov	 eax, edx
  00018	c1 e8 1f	 shr	 eax, 31			; 0000001fH
  0001b	03 c2		 add	 eax, edx

; 459  : 		}

  0001d	c3		 ret	 0
?capacity@?$vector@UD3DXVECTOR3@@V?$allocator@UD3DXVECTOR3@@@std@@@std@@QBEIXZ ENDP ; std::vector<D3DXVECTOR3,std::allocator<D3DXVECTOR3> >::capacity
_TEXT	ENDS
PUBLIC	?_Isnil@?$_Tree@V?$_Tmap_traits@KV?$vector@U_VECINFO@@V?$allocator@U_VECINFO@@@std@@@std@@U?$less@K@2@V?$allocator@U?$pair@$$CBKV?$vector@U_VECINFO@@V?$allocator@U_VECINFO@@@std@@@std@@@std@@@2@$0A@@std@@@std@@KAAADPAU_Node@?$_Tree_nod@V?$_Tmap_traits@KV?$vector@U_VECINFO@@V?$allocator@U_VECINFO@@@std@@@std@@U?$less@K@2@V?$allocator@U?$pair@$$CBKV?$vector@U_VECINFO@@V?$allocator@U_VECINFO@@@std@@@std@@@std@@@2@$0A@@std@@@2@@Z ; std::_Tree<std::_Tmap_traits<unsigned long,std::vector<_VECINFO,std::allocator<_VECINFO> >,std::less<unsigned long>,std::allocator<std::pair<unsigned long const ,std::vector<_VECINFO,std::allocator<_VECINFO> > > >,0> >::_Isnil
; Function compile flags: /Ogty
; File c:\program files\microsoft visual studio .net 2003\vc7\include\xtree
;	COMDAT ?_Isnil@?$_Tree@V?$_Tmap_traits@KV?$vector@U_VECINFO@@V?$allocator@U_VECINFO@@@std@@@std@@U?$less@K@2@V?$allocator@U?$pair@$$CBKV?$vector@U_VECINFO@@V?$allocator@U_VECINFO@@@std@@@std@@@std@@@2@$0A@@std@@@std@@KAAADPAU_Node@?$_Tree_nod@V?$_Tmap_traits@KV?$vector@U_VECINFO@@V?$allocator@U_VECINFO@@@std@@@std@@U?$less@K@2@V?$allocator@U?$pair@$$CBKV?$vector@U_VECINFO@@V?$allocator@U_VECINFO@@@std@@@std@@@std@@@2@$0A@@std@@@2@@Z
_TEXT	SEGMENT
__Pnode$ = 8						; size = 4
?_Isnil@?$_Tree@V?$_Tmap_traits@KV?$vector@U_VECINFO@@V?$allocator@U_VECINFO@@@std@@@std@@U?$less@K@2@V?$allocator@U?$pair@$$CBKV?$vector@U_VECINFO@@V?$allocator@U_VECINFO@@@std@@@std@@@std@@@2@$0A@@std@@@std@@KAAADPAU_Node@?$_Tree_nod@V?$_Tmap_traits@KV?$vector@U_VECINFO@@V?$allocator@U_VECINFO@@@std@@@std@@U?$less@K@2@V?$allocator@U?$pair@$$CBKV?$vector@U_VECINFO@@V?$allocator@U_VECINFO@@@std@@@std@@@std@@@2@$0A@@std@@@2@@Z PROC NEAR ; std::_Tree<std::_Tmap_traits<unsigned long,std::vector<_VECINFO,std::allocator<_VECINFO> >,std::less<unsigned long>,std::allocator<std::pair<unsigned long const ,std::vector<_VECINFO,std::allocator<_VECINFO> > > >,0> >::_Isnil, COMDAT

; 137  : 		return ((_Charref)(*_Pnode)._Isnil);

  00000	8b 44 24 04	 mov	 eax, DWORD PTR __Pnode$[esp-4]
  00004	83 c0 21	 add	 eax, 33			; 00000021H

; 138  : 		}

  00007	c3		 ret	 0
?_Isnil@?$_Tree@V?$_Tmap_traits@KV?$vector@U_VECINFO@@V?$allocator@U_VECINFO@@@std@@@std@@U?$less@K@2@V?$allocator@U?$pair@$$CBKV?$vector@U_VECINFO@@V?$allocator@U_VECINFO@@@std@@@std@@@std@@@2@$0A@@std@@@std@@KAAADPAU_Node@?$_Tree_nod@V?$_Tmap_traits@KV?$vector@U_VECINFO@@V?$allocator@U_VECINFO@@@std@@@std@@U?$less@K@2@V?$allocator@U?$pair@$$CBKV?$vector@U_VECINFO@@V?$allocator@U_VECINFO@@@std@@@std@@@std@@@2@$0A@@std@@@2@@Z ENDP ; std::_Tree<std::_Tmap_traits<unsigned long,std::vector<_VECINFO,std::allocator<_VECINFO> >,std::less<unsigned long>,std::allocator<std::pair<unsigned long const ,std::vector<_VECINFO,std::allocator<_VECINFO> > > >,0> >::_Isnil
_TEXT	ENDS
PUBLIC	?_Left@?$_Tree@V?$_Tmap_traits@KV?$vector@U_VECINFO@@V?$allocator@U_VECINFO@@@std@@@std@@U?$less@K@2@V?$allocator@U?$pair@$$CBKV?$vector@U_VECINFO@@V?$allocator@U_VECINFO@@@std@@@std@@@std@@@2@$0A@@std@@@std@@KAAAPAU_Node@?$_Tree_nod@V?$_Tmap_traits@KV?$vector@U_VECINFO@@V?$allocator@U_VECINFO@@@std@@@std@@U?$less@K@2@V?$allocator@U?$pair@$$CBKV?$vector@U_VECINFO@@V?$allocator@U_VECINFO@@@std@@@std@@@std@@@2@$0A@@std@@@2@PAU342@@Z ; std::_Tree<std::_Tmap_traits<unsigned long,std::vector<_VECINFO,std::allocator<_VECINFO> >,std::less<unsigned long>,std::allocator<std::pair<unsigned long const ,std::vector<_VECINFO,std::allocator<_VECINFO> > > >,0> >::_Left
; Function compile flags: /Ogty
;	COMDAT ?_Left@?$_Tree@V?$_Tmap_traits@KV?$vector@U_VECINFO@@V?$allocator@U_VECINFO@@@std@@@std@@U?$less@K@2@V?$allocator@U?$pair@$$CBKV?$vector@U_VECINFO@@V?$allocator@U_VECINFO@@@std@@@std@@@std@@@2@$0A@@std@@@std@@KAAAPAU_Node@?$_Tree_nod@V?$_Tmap_traits@KV?$vector@U_VECINFO@@V?$allocator@U_VECINFO@@@std@@@std@@U?$less@K@2@V?$allocator@U?$pair@$$CBKV?$vector@U_VECINFO@@V?$allocator@U_VECINFO@@@std@@@std@@@std@@@2@$0A@@std@@@2@PAU342@@Z
_TEXT	SEGMENT
__Pnode$ = 8						; size = 4
?_Left@?$_Tree@V?$_Tmap_traits@KV?$vector@U_VECINFO@@V?$allocator@U_VECINFO@@@std@@@std@@U?$less@K@2@V?$allocator@U?$pair@$$CBKV?$vector@U_VECINFO@@V?$allocator@U_VECINFO@@@std@@@std@@@std@@@2@$0A@@std@@@std@@KAAAPAU_Node@?$_Tree_nod@V?$_Tmap_traits@KV?$vector@U_VECINFO@@V?$allocator@U_VECINFO@@@std@@@std@@U?$less@K@2@V?$allocator@U?$pair@$$CBKV?$vector@U_VECINFO@@V?$allocator@U_VECINFO@@@std@@@std@@@std@@@2@$0A@@std@@@2@PAU342@@Z PROC NEAR ; std::_Tree<std::_Tmap_traits<unsigned long,std::vector<_VECINFO,std::allocator<_VECINFO> >,std::less<unsigned long>,std::allocator<std::pair<unsigned long const ,std::vector<_VECINFO,std::allocator<_VECINFO> > > >,0> >::_Left, COMDAT

; 147  : 		return ((_Nodepref)(*_Pnode)._Left);

  00000	8b 44 24 04	 mov	 eax, DWORD PTR __Pnode$[esp-4]

; 148  : 		}

  00004	c3		 ret	 0
?_Left@?$_Tree@V?$_Tmap_traits@KV?$vector@U_VECINFO@@V?$allocator@U_VECINFO@@@std@@@std@@U?$less@K@2@V?$allocator@U?$pair@$$CBKV?$vector@U_VECINFO@@V?$allocator@U_VECINFO@@@std@@@std@@@std@@@2@$0A@@std@@@std@@KAAAPAU_Node@?$_Tree_nod@V?$_Tmap_traits@KV?$vector@U_VECINFO@@V?$allocator@U_VECINFO@@@std@@@std@@U?$less@K@2@V?$allocator@U?$pair@$$CBKV?$vector@U_VECINFO@@V?$allocator@U_VECINFO@@@std@@@std@@@std@@@2@$0A@@std@@@2@PAU342@@Z ENDP ; std::_Tree<std::_Tmap_traits<unsigned long,std::vector<_VECINFO,std::allocator<_VECINFO> >,std::less<unsigned long>,std::allocator<std::pair<unsigned long const ,std::vector<_VECINFO,std::allocator<_VECINFO> > > >,0> >::_Left
_TEXT	ENDS
PUBLIC	?_Right@?$_Tree@V?$_Tmap_traits@KV?$vector@U_VECINFO@@V?$allocator@U_VECINFO@@@std@@@std@@U?$less@K@2@V?$allocator@U?$pair@$$CBKV?$vector@U_VECINFO@@V?$allocator@U_VECINFO@@@std@@@std@@@std@@@2@$0A@@std@@@std@@KAAAPAU_Node@?$_Tree_nod@V?$_Tmap_traits@KV?$vector@U_VECINFO@@V?$allocator@U_VECINFO@@@std@@@std@@U?$less@K@2@V?$allocator@U?$pair@$$CBKV?$vector@U_VECINFO@@V?$allocator@U_VECINFO@@@std@@@std@@@std@@@2@$0A@@std@@@2@PAU342@@Z ; std::_Tree<std::_Tmap_traits<unsigned long,std::vector<_VECINFO,std::allocator<_VECINFO> >,std::less<unsigned long>,std::allocator<std::pair<unsigned long const ,std::vector<_VECINFO,std::allocator<_VECINFO> > > >,0> >::_Right
; Function compile flags: /Ogty
;	COMDAT ?_Right@?$_Tree@V?$_Tmap_traits@KV?$vector@U_VECINFO@@V?$allocator@U_VECINFO@@@std@@@std@@U?$less@K@2@V?$allocator@U?$pair@$$CBKV?$vector@U_VECINFO@@V?$allocator@U_VECINFO@@@std@@@std@@@std@@@2@$0A@@std@@@std@@KAAAPAU_Node@?$_Tree_nod@V?$_Tmap_traits@KV?$vector@U_VECINFO@@V?$allocator@U_VECINFO@@@std@@@std@@U?$less@K@2@V?$allocator@U?$pair@$$CBKV?$vector@U_VECINFO@@V?$allocator@U_VECINFO@@@std@@@std@@@std@@@2@$0A@@std@@@2@PAU342@@Z
_TEXT	SEGMENT
__Pnode$ = 8						; size = 4
?_Right@?$_Tree@V?$_Tmap_traits@KV?$vector@U_VECINFO@@V?$allocator@U_VECINFO@@@std@@@std@@U?$less@K@2@V?$allocator@U?$pair@$$CBKV?$vector@U_VECINFO@@V?$allocator@U_VECINFO@@@std@@@std@@@std@@@2@$0A@@std@@@std@@KAAAPAU_Node@?$_Tree_nod@V?$_Tmap_traits@KV?$vector@U_VECINFO@@V?$allocator@U_VECINFO@@@std@@@std@@U?$less@K@2@V?$allocator@U?$pair@$$CBKV?$vector@U_VECINFO@@V?$allocator@U_VECINFO@@@std@@@std@@@std@@@2@$0A@@std@@@2@PAU342@@Z PROC NEAR ; std::_Tree<std::_Tmap_traits<unsigned long,std::vector<_VECINFO,std::allocator<_VECINFO> >,std::less<unsigned long>,std::allocator<std::pair<unsigned long const ,std::vector<_VECINFO,std::allocator<_VECINFO> > > >,0> >::_Right, COMDAT

; 157  : 		return ((_Nodepref)(*_Pnode)._Right);

  00000	8b 44 24 04	 mov	 eax, DWORD PTR __Pnode$[esp-4]
  00004	83 c0 08	 add	 eax, 8

; 158  : 		}

  00007	c3		 ret	 0
?_Right@?$_Tree@V?$_Tmap_traits@KV?$vector@U_VECINFO@@V?$allocator@U_VECINFO@@@std@@@std@@U?$less@K@2@V?$allocator@U?$pair@$$CBKV?$vector@U_VECINFO@@V?$allocator@U_VECINFO@@@std@@@std@@@std@@@2@$0A@@std@@@std@@KAAAPAU_Node@?$_Tree_nod@V?$_Tmap_traits@KV?$vector@U_VECINFO@@V?$allocator@U_VECINFO@@@std@@@std@@U?$less@K@2@V?$allocator@U?$pair@$$CBKV?$vector@U_VECINFO@@V?$allocator@U_VECINFO@@@std@@@std@@@std@@@2@$0A@@std@@@2@PAU342@@Z ENDP ; std::_Tree<std::_Tmap_traits<unsigned long,std::vector<_VECINFO,std::allocator<_VECINFO> >,std::less<unsigned long>,std::allocator<std::pair<unsigned long const ,std::vector<_VECINFO,std::allocator<_VECINFO> > > >,0> >::_Right
_TEXT	ENDS
PUBLIC	?_Lmost@?$_Tree@V?$_Tmap_traits@KV?$vector@U_VECINFO@@V?$allocator@U_VECINFO@@@std@@@std@@U?$less@K@2@V?$allocator@U?$pair@$$CBKV?$vector@U_VECINFO@@V?$allocator@U_VECINFO@@@std@@@std@@@std@@@2@$0A@@std@@@std@@IAEAAPAU_Node@?$_Tree_nod@V?$_Tmap_traits@KV?$vector@U_VECINFO@@V?$allocator@U_VECINFO@@@std@@@std@@U?$less@K@2@V?$allocator@U?$pair@$$CBKV?$vector@U_VECINFO@@V?$allocator@U_VECINFO@@@std@@@std@@@std@@@2@$0A@@std@@@2@XZ ; std::_Tree<std::_Tmap_traits<unsigned long,std::vector<_VECINFO,std::allocator<_VECINFO> >,std::less<unsigned long>,std::allocator<std::pair<unsigned long const ,std::vector<_VECINFO,std::allocator<_VECINFO> > > >,0> >::_Lmost
; Function compile flags: /Ogty
;	COMDAT ?_Lmost@?$_Tree@V?$_Tmap_traits@KV?$vector@U_VECINFO@@V?$allocator@U_VECINFO@@@std@@@std@@U?$less@K@2@V?$allocator@U?$pair@$$CBKV?$vector@U_VECINFO@@V?$allocator@U_VECINFO@@@std@@@std@@@std@@@2@$0A@@std@@@std@@IAEAAPAU_Node@?$_Tree_nod@V?$_Tmap_traits@KV?$vector@U_VECINFO@@V?$allocator@U_VECINFO@@@std@@@std@@U?$less@K@2@V?$allocator@U?$pair@$$CBKV?$vector@U_VECINFO@@V?$allocator@U_VECINFO@@@std@@@std@@@std@@@2@$0A@@std@@@2@XZ
_TEXT	SEGMENT
?_Lmost@?$_Tree@V?$_Tmap_traits@KV?$vector@U_VECINFO@@V?$allocator@U_VECINFO@@@std@@@std@@U?$less@K@2@V?$allocator@U?$pair@$$CBKV?$vector@U_VECINFO@@V?$allocator@U_VECINFO@@@std@@@std@@@std@@@2@$0A@@std@@@std@@IAEAAPAU_Node@?$_Tree_nod@V?$_Tmap_traits@KV?$vector@U_VECINFO@@V?$allocator@U_VECINFO@@@std@@@std@@U?$less@K@2@V?$allocator@U?$pair@$$CBKV?$vector@U_VECINFO@@V?$allocator@U_VECINFO@@@std@@@std@@@std@@@2@$0A@@std@@@2@XZ PROC NEAR ; std::_Tree<std::_Tmap_traits<unsigned long,std::vector<_VECINFO,std::allocator<_VECINFO> >,std::less<unsigned long>,std::allocator<std::pair<unsigned long const ,std::vector<_VECINFO,std::allocator<_VECINFO> > > >,0> >::_Lmost, COMDAT
; _this$ = ecx

; 1005 : 		return (_Left(_Myhead));

  00000	8b 41 04	 mov	 eax, DWORD PTR [ecx+4]

; 1006 : 		}

  00003	c3		 ret	 0
?_Lmost@?$_Tree@V?$_Tmap_traits@KV?$vector@U_VECINFO@@V?$allocator@U_VECINFO@@@std@@@std@@U?$less@K@2@V?$allocator@U?$pair@$$CBKV?$vector@U_VECINFO@@V?$allocator@U_VECINFO@@@std@@@std@@@std@@@2@$0A@@std@@@std@@IAEAAPAU_Node@?$_Tree_nod@V?$_Tmap_traits@KV?$vector@U_VECINFO@@V?$allocator@U_VECINFO@@@std@@@std@@U?$less@K@2@V?$allocator@U?$pair@$$CBKV?$vector@U_VECINFO@@V?$allocator@U_VECINFO@@@std@@@std@@@std@@@2@$0A@@std@@@2@XZ ENDP ; std::_Tree<std::_Tmap_traits<unsigned long,std::vector<_VECINFO,std::allocator<_VECINFO> >,std::less<unsigned long>,std::allocator<std::pair<unsigned long const ,std::vector<_VECINFO,std::allocator<_VECINFO> > > >,0> >::_Lmost
_TEXT	ENDS
PUBLIC	?_Rmost@?$_Tree@V?$_Tmap_traits@KV?$vector@U_VECINFO@@V?$allocator@U_VECINFO@@@std@@@std@@U?$less@K@2@V?$allocator@U?$pair@$$CBKV?$vector@U_VECINFO@@V?$allocator@U_VECINFO@@@std@@@std@@@std@@@2@$0A@@std@@@std@@IAEAAPAU_Node@?$_Tree_nod@V?$_Tmap_traits@KV?$vector@U_VECINFO@@V?$allocator@U_VECINFO@@@std@@@std@@U?$less@K@2@V?$allocator@U?$pair@$$CBKV?$vector@U_VECINFO@@V?$allocator@U_VECINFO@@@std@@@std@@@std@@@2@$0A@@std@@@2@XZ ; std::_Tree<std::_Tmap_traits<unsigned long,std::vector<_VECINFO,std::allocator<_VECINFO> >,std::less<unsigned long>,std::allocator<std::pair<unsigned long const ,std::vector<_VECINFO,std::allocator<_VECINFO> > > >,0> >::_Rmost
; Function compile flags: /Ogty
;	COMDAT ?_Rmost@?$_Tree@V?$_Tmap_traits@KV?$vector@U_VECINFO@@V?$allocator@U_VECINFO@@@std@@@std@@U?$less@K@2@V?$allocator@U?$pair@$$CBKV?$vector@U_VECINFO@@V?$allocator@U_VECINFO@@@std@@@std@@@std@@@2@$0A@@std@@@std@@IAEAAPAU_Node@?$_Tree_nod@V?$_Tmap_traits@KV?$vector@U_VECINFO@@V?$allocator@U_VECINFO@@@std@@@std@@U?$less@K@2@V?$allocator@U?$pair@$$CBKV?$vector@U_VECINFO@@V?$allocator@U_VECINFO@@@std@@@std@@@std@@@2@$0A@@std@@@2@XZ
_TEXT	SEGMENT
?_Rmost@?$_Tree@V?$_Tmap_traits@KV?$vector@U_VECINFO@@V?$allocator@U_VECINFO@@@std@@@std@@U?$less@K@2@V?$allocator@U?$pair@$$CBKV?$vector@U_VECINFO@@V?$allocator@U_VECINFO@@@std@@@std@@@std@@@2@$0A@@std@@@std@@IAEAAPAU_Node@?$_Tree_nod@V?$_Tmap_traits@KV?$vector@U_VECINFO@@V?$allocator@U_VECINFO@@@std@@@std@@U?$less@K@2@V?$allocator@U?$pair@$$CBKV?$vector@U_VECINFO@@V?$allocator@U_VECINFO@@@std@@@std@@@std@@@2@$0A@@std@@@2@XZ PROC NEAR ; std::_Tree<std::_Tmap_traits<unsigned long,std::vector<_VECINFO,std::allocator<_VECINFO> >,std::less<unsigned long>,std::allocator<std::pair<unsigned long const ,std::vector<_VECINFO,std::allocator<_VECINFO> > > >,0> >::_Rmost, COMDAT
; _this$ = ecx

; 1049 : 		return (_Right(_Myhead));

  00000	8b 41 04	 mov	 eax, DWORD PTR [ecx+4]
  00003	83 c0 08	 add	 eax, 8

; 1050 : 		}

  00006	c3		 ret	 0
?_Rmost@?$_Tree@V?$_Tmap_traits@KV?$vector@U_VECINFO@@V?$allocator@U_VECINFO@@@std@@@std@@U?$less@K@2@V?$allocator@U?$pair@$$CBKV?$vector@U_VECINFO@@V?$allocator@U_VECINFO@@@std@@@std@@@std@@@2@$0A@@std@@@std@@IAEAAPAU_Node@?$_Tree_nod@V?$_Tmap_traits@KV?$vector@U_VECINFO@@V?$allocator@U_VECINFO@@@std@@@std@@U?$less@K@2@V?$allocator@U?$pair@$$CBKV?$vector@U_VECINFO@@V?$allocator@U_VECINFO@@@std@@@std@@@std@@@2@$0A@@std@@@2@XZ ENDP ; std::_Tree<std::_Tmap_traits<unsigned long,std::vector<_VECINFO,std::allocator<_VECINFO> >,std::less<unsigned long>,std::allocator<std::pair<unsigned long const ,std::vector<_VECINFO,std::allocator<_VECINFO> > > >,0> >::_Rmost
_TEXT	ENDS
PUBLIC	?_Kfn@?$_Tmap_traits@KV?$vector@U_VECINFO@@V?$allocator@U_VECINFO@@@std@@@std@@U?$less@K@2@V?$allocator@U?$pair@$$CBKV?$vector@U_VECINFO@@V?$allocator@U_VECINFO@@@std@@@std@@@std@@@2@$0A@@std@@SAABKABU?$pair@$$CBKV?$vector@U_VECINFO@@V?$allocator@U_VECINFO@@@std@@@std@@@2@@Z ; std::_Tmap_traits<unsigned long,std::vector<_VECINFO,std::allocator<_VECINFO> >,std::less<unsigned long>,std::allocator<std::pair<unsigned long const ,std::vector<_VECINFO,std::allocator<_VECINFO> > > >,0>::_Kfn
; Function compile flags: /Ogty
; File c:\program files\microsoft visual studio .net 2003\vc7\include\map
;	COMDAT ?_Kfn@?$_Tmap_traits@KV?$vector@U_VECINFO@@V?$allocator@U_VECINFO@@@std@@@std@@U?$less@K@2@V?$allocator@U?$pair@$$CBKV?$vector@U_VECINFO@@V?$allocator@U_VECINFO@@@std@@@std@@@std@@@2@$0A@@std@@SAABKABU?$pair@$$CBKV?$vector@U_VECINFO@@V?$allocator@U_VECINFO@@@std@@@std@@@2@@Z
_TEXT	SEGMENT
__Val$ = 8						; size = 4
?_Kfn@?$_Tmap_traits@KV?$vector@U_VECINFO@@V?$allocator@U_VECINFO@@@std@@@std@@U?$less@K@2@V?$allocator@U?$pair@$$CBKV?$vector@U_VECINFO@@V?$allocator@U_VECINFO@@@std@@@std@@@std@@@2@$0A@@std@@SAABKABU?$pair@$$CBKV?$vector@U_VECINFO@@V?$allocator@U_VECINFO@@@std@@@std@@@2@@Z PROC NEAR ; std::_Tmap_traits<unsigned long,std::vector<_VECINFO,std::allocator<_VECINFO> >,std::less<unsigned long>,std::allocator<std::pair<unsigned long const ,std::vector<_VECINFO,std::allocator<_VECINFO> > > >,0>::_Kfn, COMDAT

; 64   : 		return (_Val.first);

  00000	8b 44 24 04	 mov	 eax, DWORD PTR __Val$[esp-4]

; 65   : 		}

  00004	c3		 ret	 0
?_Kfn@?$_Tmap_traits@KV?$vector@U_VECINFO@@V?$allocator@U_VECINFO@@@std@@@std@@U?$less@K@2@V?$allocator@U?$pair@$$CBKV?$vector@U_VECINFO@@V?$allocator@U_VECINFO@@@std@@@std@@@std@@@2@$0A@@std@@SAABKABU?$pair@$$CBKV?$vector@U_VECINFO@@V?$allocator@U_VECINFO@@@std@@@std@@@2@@Z ENDP ; std::_Tmap_traits<unsigned long,std::vector<_VECINFO,std::allocator<_VECINFO> >,std::less<unsigned long>,std::allocator<std::pair<unsigned long const ,std::vector<_VECINFO,std::allocator<_VECINFO> > > >,0>::_Kfn
_TEXT	ENDS
PUBLIC	??0?$allocator@U?$pair@$$CBKV?$vector@U_VECINFO@@V?$allocator@U_VECINFO@@@std@@@std@@@std@@@std@@QAE@XZ ; std::allocator<std::pair<unsigned long const ,std::vector<_VECINFO,std::allocator<_VECINFO> > > >::allocator<std::pair<unsigned long const ,std::vector<_VECINFO,std::allocator<_VECINFO> > > >
; Function compile flags: /Ogty
; File c:\program files\microsoft visual studio .net 2003\vc7\include\xmemory
;	COMDAT ??0?$allocator@U?$pair@$$CBKV?$vector@U_VECINFO@@V?$allocator@U_VECINFO@@@std@@@std@@@std@@@std@@QAE@XZ
_TEXT	SEGMENT
??0?$allocator@U?$pair@$$CBKV?$vector@U_VECINFO@@V?$allocator@U_VECINFO@@@std@@@std@@@std@@@std@@QAE@XZ PROC NEAR ; std::allocator<std::pair<unsigned long const ,std::vector<_VECINFO,std::allocator<_VECINFO> > > >::allocator<std::pair<unsigned long const ,std::vector<_VECINFO,std::allocator<_VECINFO> > > >, COMDAT
; _this$ = ecx

; 111  : 	allocator()

  00000	8b c1		 mov	 eax, ecx

; 112  : 		{	// construct default allocator (do nothing)
; 113  : 		}

  00002	c3		 ret	 0
??0?$allocator@U?$pair@$$CBKV?$vector@U_VECINFO@@V?$allocator@U_VECINFO@@@std@@@std@@@std@@@std@@QAE@XZ ENDP ; std::allocator<std::pair<unsigned long const ,std::vector<_VECINFO,std::allocator<_VECINFO> > > >::allocator<std::pair<unsigned long const ,std::vector<_VECINFO,std::allocator<_VECINFO> > > >
_TEXT	ENDS
PUBLIC	?_Mynode@const_iterator@?$_Tree@V?$_Tmap_traits@KV?$vector@U_VECINFO@@V?$allocator@U_VECINFO@@@std@@@std@@U?$less@K@2@V?$allocator@U?$pair@$$CBKV?$vector@U_VECINFO@@V?$allocator@U_VECINFO@@@std@@@std@@@std@@@2@$0A@@std@@@std@@QBEPAU_Node@?$_Tree_nod@V?$_Tmap_traits@KV?$vector@U_VECINFO@@V?$allocator@U_VECINFO@@@std@@@std@@U?$less@K@2@V?$allocator@U?$pair@$$CBKV?$vector@U_VECINFO@@V?$allocator@U_VECINFO@@@std@@@std@@@std@@@2@$0A@@std@@@3@XZ ; std::_Tree<std::_Tmap_traits<unsigned long,std::vector<_VECINFO,std::allocator<_VECINFO> >,std::less<unsigned long>,std::allocator<std::pair<unsigned long const ,std::vector<_VECINFO,std::allocator<_VECINFO> > > >,0> >::const_iterator::_Mynode
; Function compile flags: /Ogty
; File c:\program files\microsoft visual studio .net 2003\vc7\include\xtree
;	COMDAT ?_Mynode@const_iterator@?$_Tree@V?$_Tmap_traits@KV?$vector@U_VECINFO@@V?$allocator@U_VECINFO@@@std@@@std@@U?$less@K@2@V?$allocator@U?$pair@$$CBKV?$vector@U_VECINFO@@V?$allocator@U_VECINFO@@@std@@@std@@@std@@@2@$0A@@std@@@std@@QBEPAU_Node@?$_Tree_nod@V?$_Tmap_traits@KV?$vector@U_VECINFO@@V?$allocator@U_VECINFO@@@std@@@std@@U?$less@K@2@V?$allocator@U?$pair@$$CBKV?$vector@U_VECINFO@@V?$allocator@U_VECINFO@@@std@@@std@@@std@@@2@$0A@@std@@@3@XZ
_TEXT	SEGMENT
?_Mynode@const_iterator@?$_Tree@V?$_Tmap_traits@KV?$vector@U_VECINFO@@V?$allocator@U_VECINFO@@@std@@@std@@U?$less@K@2@V?$allocator@U?$pair@$$CBKV?$vector@U_VECINFO@@V?$allocator@U_VECINFO@@@std@@@std@@@std@@@2@$0A@@std@@@std@@QBEPAU_Node@?$_Tree_nod@V?$_Tmap_traits@KV?$vector@U_VECINFO@@V?$allocator@U_VECINFO@@@std@@@std@@U?$less@K@2@V?$allocator@U?$pair@$$CBKV?$vector@U_VECINFO@@V?$allocator@U_VECINFO@@@std@@@std@@@std@@@2@$0A@@std@@@3@XZ PROC NEAR ; std::_Tree<std::_Tmap_traits<unsigned long,std::vector<_VECINFO,std::allocator<_VECINFO> >,std::less<unsigned long>,std::allocator<std::pair<unsigned long const ,std::vector<_VECINFO,std::allocator<_VECINFO> > > >,0> >::const_iterator::_Mynode, COMDAT
; _this$ = ecx

; 284  : 			return (_Ptr);

  00000	8b 01		 mov	 eax, DWORD PTR [ecx]

; 285  : 			}

  00002	c3		 ret	 0
?_Mynode@const_iterator@?$_Tree@V?$_Tmap_traits@KV?$vector@U_VECINFO@@V?$allocator@U_VECINFO@@@std@@@std@@U?$less@K@2@V?$allocator@U?$pair@$$CBKV?$vector@U_VECINFO@@V?$allocator@U_VECINFO@@@std@@@std@@@std@@@2@$0A@@std@@@std@@QBEPAU_Node@?$_Tree_nod@V?$_Tmap_traits@KV?$vector@U_VECINFO@@V?$allocator@U_VECINFO@@@std@@@std@@U?$less@K@2@V?$allocator@U?$pair@$$CBKV?$vector@U_VECINFO@@V?$allocator@U_VECINFO@@@std@@@std@@@std@@@2@$0A@@std@@@3@XZ ENDP ; std::_Tree<std::_Tmap_traits<unsigned long,std::vector<_VECINFO,std::allocator<_VECINFO> >,std::less<unsigned long>,std::allocator<std::pair<unsigned long const ,std::vector<_VECINFO,std::allocator<_VECINFO> > > >,0> >::const_iterator::_Mynode
_TEXT	ENDS
PUBLIC	?capacity@?$vector@U_VECINFO@@V?$allocator@U_VECINFO@@@std@@@std@@QBEIXZ ; std::vector<_VECINFO,std::allocator<_VECINFO> >::capacity
; Function compile flags: /Ogty
; File c:\program files\microsoft visual studio .net 2003\vc7\include\vector
;	COMDAT ?capacity@?$vector@U_VECINFO@@V?$allocator@U_VECINFO@@@std@@@std@@QBEIXZ
_TEXT	SEGMENT
?capacity@?$vector@U_VECINFO@@V?$allocator@U_VECINFO@@@std@@@std@@QBEIXZ PROC NEAR ; std::vector<_VECINFO,std::allocator<_VECINFO> >::capacity, COMDAT
; _this$ = ecx

; 458  : 		return (_Myfirst == 0 ? 0 : _Myend - _Myfirst);

  00000	8b 41 04	 mov	 eax, DWORD PTR [ecx+4]
  00003	85 c0		 test	 eax, eax
  00005	75 01		 jne	 SHORT $L229196

; 459  : 		}

  00007	c3		 ret	 0
$L229196:

; 458  : 		return (_Myfirst == 0 ? 0 : _Myend - _Myfirst);

  00008	8b 49 0c	 mov	 ecx, DWORD PTR [ecx+12]
  0000b	2b c8		 sub	 ecx, eax
  0000d	b8 93 24 49 92	 mov	 eax, -1840700269	; 92492493H
  00012	f7 e9		 imul	 ecx
  00014	03 d1		 add	 edx, ecx
  00016	c1 fa 05	 sar	 edx, 5
  00019	8b c2		 mov	 eax, edx
  0001b	c1 e8 1f	 shr	 eax, 31			; 0000001fH
  0001e	03 c2		 add	 eax, edx

; 459  : 		}

  00020	c3		 ret	 0
?capacity@?$vector@U_VECINFO@@V?$allocator@U_VECINFO@@@std@@@std@@QBEIXZ ENDP ; std::vector<_VECINFO,std::allocator<_VECINFO> >::capacity
_TEXT	ENDS
PUBLIC	??0?$allocator@U_VECINFO@@@std@@QAE@XZ		; std::allocator<_VECINFO>::allocator<_VECINFO>
; Function compile flags: /Ogty
; File c:\program files\microsoft visual studio .net 2003\vc7\include\xmemory
;	COMDAT ??0?$allocator@U_VECINFO@@@std@@QAE@XZ
_TEXT	SEGMENT
??0?$allocator@U_VECINFO@@@std@@QAE@XZ PROC NEAR	; std::allocator<_VECINFO>::allocator<_VECINFO>, COMDAT
; _this$ = ecx

; 111  : 	allocator()

  00000	8b c1		 mov	 eax, ecx

; 112  : 		{	// construct default allocator (do nothing)
; 113  : 		}

  00002	c3		 ret	 0
??0?$allocator@U_VECINFO@@@std@@QAE@XZ ENDP		; std::allocator<_VECINFO>::allocator<_VECINFO>
_TEXT	ENDS
PUBLIC	??0?$allocator@U_VECINFO@@@std@@QAE@ABV01@@Z	; std::allocator<_VECINFO>::allocator<_VECINFO>
; Function compile flags: /Ogty
;	COMDAT ??0?$allocator@U_VECINFO@@@std@@QAE@ABV01@@Z
_TEXT	SEGMENT
___formal$ = 8						; size = 4
??0?$allocator@U_VECINFO@@@std@@QAE@ABV01@@Z PROC NEAR	; std::allocator<_VECINFO>::allocator<_VECINFO>, COMDAT
; _this$ = ecx

; 115  : 	allocator(const allocator<_Ty>&)

  00000	8b c1		 mov	 eax, ecx

; 116  : 		{	// construct by copying (do nothing)
; 117  : 		}

  00002	c2 04 00	 ret	 4
??0?$allocator@U_VECINFO@@@std@@QAE@ABV01@@Z ENDP	; std::allocator<_VECINFO>::allocator<_VECINFO>
_TEXT	ENDS
PUBLIC	??0?$pair@Viterator@?$_Tree@V?$_Tmap_traits@KV?$vector@U_VECINFO@@V?$allocator@U_VECINFO@@@std@@@std@@U?$less@K@2@V?$allocator@U?$pair@$$CBKV?$vector@U_VECINFO@@V?$allocator@U_VECINFO@@@std@@@std@@@std@@@2@$0A@@std@@@std@@_N@std@@QAE@ABViterator@?$_Tree@V?$_Tmap_traits@KV?$vector@U_VECINFO@@V?$allocator@U_VECINFO@@@std@@@std@@U?$less@K@2@V?$allocator@U?$pair@$$CBKV?$vector@U_VECINFO@@V?$allocator@U_VECINFO@@@std@@@std@@@std@@@2@$0A@@std@@@1@AB_N@Z ; std::pair<std::_Tree<std::_Tmap_traits<unsigned long,std::vector<_VECINFO,std::allocator<_VECINFO> >,std::less<unsigned long>,std::allocator<std::pair<unsigned long const ,std::vector<_VECINFO,std::allocator<_VECINFO> > > >,0> >::iterator,bool>::pair<std::_Tree<std::_Tmap_traits<unsigned long,std::vector<_VECINFO,std::allocator<_VECINFO> >,std::less<unsigned long>,std::allocator<std::pair<unsigned long const ,std::vector<_VECINFO,std::allocator<_VECINFO> > > >,0> >::iterator,bool>
; Function compile flags: /Ogty
; File c:\program files\microsoft visual studio .net 2003\vc7\include\utility
;	COMDAT ??0?$pair@Viterator@?$_Tree@V?$_Tmap_traits@KV?$vector@U_VECINFO@@V?$allocator@U_VECINFO@@@std@@@std@@U?$less@K@2@V?$allocator@U?$pair@$$CBKV?$vector@U_VECINFO@@V?$allocator@U_VECINFO@@@std@@@std@@@std@@@2@$0A@@std@@@std@@_N@std@@QAE@ABViterator@?$_Tree@V?$_Tmap_traits@KV?$vector@U_VECINFO@@V?$allocator@U_VECINFO@@@std@@@std@@U?$less@K@2@V?$allocator@U?$pair@$$CBKV?$vector@U_VECINFO@@V?$allocator@U_VECINFO@@@std@@@std@@@std@@@2@$0A@@std@@@1@AB_N@Z
_TEXT	SEGMENT
__Val1$ = 8						; size = 4
__Val2$ = 12						; size = 4
??0?$pair@Viterator@?$_Tree@V?$_Tmap_traits@KV?$vector@U_VECINFO@@V?$allocator@U_VECINFO@@@std@@@std@@U?$less@K@2@V?$allocator@U?$pair@$$CBKV?$vector@U_VECINFO@@V?$allocator@U_VECINFO@@@std@@@std@@@std@@@2@$0A@@std@@@std@@_N@std@@QAE@ABViterator@?$_Tree@V?$_Tmap_traits@KV?$vector@U_VECINFO@@V?$allocator@U_VECINFO@@@std@@@std@@U?$less@K@2@V?$allocator@U?$pair@$$CBKV?$vector@U_VECINFO@@V?$allocator@U_VECINFO@@@std@@@std@@@std@@@2@$0A@@std@@@1@AB_N@Z PROC NEAR ; std::pair<std::_Tree<std::_Tmap_traits<unsigned long,std::vector<_VECINFO,std::allocator<_VECINFO> >,std::less<unsigned long>,std::allocator<std::pair<unsigned long const ,std::vector<_VECINFO,std::allocator<_VECINFO> > > >,0> >::iterator,bool>::pair<std::_Tree<std::_Tmap_traits<unsigned long,std::vector<_VECINFO,std::allocator<_VECINFO> >,std::less<unsigned long>,std::allocator<std::pair<unsigned long const ,std::vector<_VECINFO,std::allocator<_VECINFO> > > >,0> >::iterator,bool>, COMDAT
; _this$ = ecx

; 34   : 		{	// construct from specified values

  00000	8b c1		 mov	 eax, ecx
  00002	8b 4c 24 04	 mov	 ecx, DWORD PTR __Val1$[esp-4]
  00006	8b 11		 mov	 edx, DWORD PTR [ecx]
  00008	8b 4c 24 08	 mov	 ecx, DWORD PTR __Val2$[esp-4]
  0000c	89 10		 mov	 DWORD PTR [eax], edx
  0000e	8a 11		 mov	 dl, BYTE PTR [ecx]
  00010	88 50 04	 mov	 BYTE PTR [eax+4], dl

; 35   : 		}

  00013	c2 08 00	 ret	 8
??0?$pair@Viterator@?$_Tree@V?$_Tmap_traits@KV?$vector@U_VECINFO@@V?$allocator@U_VECINFO@@@std@@@std@@U?$less@K@2@V?$allocator@U?$pair@$$CBKV?$vector@U_VECINFO@@V?$allocator@U_VECINFO@@@std@@@std@@@std@@@2@$0A@@std@@@std@@_N@std@@QAE@ABViterator@?$_Tree@V?$_Tmap_traits@KV?$vector@U_VECINFO@@V?$allocator@U_VECINFO@@@std@@@std@@U?$less@K@2@V?$allocator@U?$pair@$$CBKV?$vector@U_VECINFO@@V?$allocator@U_VECINFO@@@std@@@std@@@std@@@2@$0A@@std@@@1@AB_N@Z ENDP ; std::pair<std::_Tree<std::_Tmap_traits<unsigned long,std::vector<_VECINFO,std::allocator<_VECINFO> >,std::less<unsigned long>,std::allocator<std::pair<unsigned long const ,std::vector<_VECINFO,std::allocator<_VECINFO> > > >,0> >::iterator,bool>::pair<std::_Tree<std::_Tmap_traits<unsigned long,std::vector<_VECINFO,std::allocator<_VECINFO> >,std::less<unsigned long>,std::allocator<std::pair<unsigned long const ,std::vector<_VECINFO,std::allocator<_VECINFO> > > >,0> >::iterator,bool>
_TEXT	ENDS
PUBLIC	?StringCompare@?$ChTraitsCRT@D@ATL@@SAHPBD0@Z	; ATL::ChTraitsCRT<char>::StringCompare
EXTRN	__mbscmp:NEAR
; Function compile flags: /Ogty
; File c:\program files\microsoft visual studio .net 2003\vc7\atlmfc\include\cstringt.h
;	COMDAT ?StringCompare@?$ChTraitsCRT@D@ATL@@SAHPBD0@Z
_TEXT	SEGMENT
_pszA$ = 8						; size = 4
_pszB$ = 12						; size = 4
?StringCompare@?$ChTraitsCRT@D@ATL@@SAHPBD0@Z PROC NEAR	; ATL::ChTraitsCRT<char>::StringCompare, COMDAT

; 336  : 		return _mbscmp( reinterpret_cast< const unsigned char* >( pszA ), reinterpret_cast< const unsigned char* >( pszB ) );

  00000	e9 00 00 00 00	 jmp	 __mbscmp
?StringCompare@?$ChTraitsCRT@D@ATL@@SAHPBD0@Z ENDP	; ATL::ChTraitsCRT<char>::StringCompare
_TEXT	ENDS
PUBLIC	??0?$allocator@U?$pair@$$CBKH@std@@@std@@QAE@ABV01@@Z ; std::allocator<std::pair<unsigned long const ,int> >::allocator<std::pair<unsigned long const ,int> >
; Function compile flags: /Ogty
; File c:\program files\microsoft visual studio .net 2003\vc7\include\xmemory
;	COMDAT ??0?$allocator@U?$pair@$$CBKH@std@@@std@@QAE@ABV01@@Z
_TEXT	SEGMENT
___formal$ = 8						; size = 4
??0?$allocator@U?$pair@$$CBKH@std@@@std@@QAE@ABV01@@Z PROC NEAR ; std::allocator<std::pair<unsigned long const ,int> >::allocator<std::pair<unsigned long const ,int> >, COMDAT
; _this$ = ecx

; 115  : 	allocator(const allocator<_Ty>&)

  00000	8b c1		 mov	 eax, ecx

; 116  : 		{	// construct by copying (do nothing)
; 117  : 		}

  00002	c2 04 00	 ret	 4
??0?$allocator@U?$pair@$$CBKH@std@@@std@@QAE@ABV01@@Z ENDP ; std::allocator<std::pair<unsigned long const ,int> >::allocator<std::pair<unsigned long const ,int> >
_TEXT	ENDS
PUBLIC	?_Color@?$_Tree@V?$_Tmap_traits@KV?$vector@U_VECINFO@@V?$allocator@U_VECINFO@@@std@@@std@@U?$less@K@2@V?$allocator@U?$pair@$$CBKV?$vector@U_VECINFO@@V?$allocator@U_VECINFO@@@std@@@std@@@std@@@2@$0A@@std@@@std@@KAAADPAU_Node@?$_Tree_nod@V?$_Tmap_traits@KV?$vector@U_VECINFO@@V?$allocator@U_VECINFO@@@std@@@std@@U?$less@K@2@V?$allocator@U?$pair@$$CBKV?$vector@U_VECINFO@@V?$allocator@U_VECINFO@@@std@@@std@@@std@@@2@$0A@@std@@@2@@Z ; std::_Tree<std::_Tmap_traits<unsigned long,std::vector<_VECINFO,std::allocator<_VECINFO> >,std::less<unsigned long>,std::allocator<std::pair<unsigned long const ,std::vector<_VECINFO,std::allocator<_VECINFO> > > >,0> >::_Color
; Function compile flags: /Ogty
; File c:\program files\microsoft visual studio .net 2003\vc7\include\xtree
;	COMDAT ?_Color@?$_Tree@V?$_Tmap_traits@KV?$vector@U_VECINFO@@V?$allocator@U_VECINFO@@@std@@@std@@U?$less@K@2@V?$allocator@U?$pair@$$CBKV?$vector@U_VECINFO@@V?$allocator@U_VECINFO@@@std@@@std@@@std@@@2@$0A@@std@@@std@@KAAADPAU_Node@?$_Tree_nod@V?$_Tmap_traits@KV?$vector@U_VECINFO@@V?$allocator@U_VECINFO@@@std@@@std@@U?$less@K@2@V?$allocator@U?$pair@$$CBKV?$vector@U_VECINFO@@V?$allocator@U_VECINFO@@@std@@@std@@@std@@@2@$0A@@std@@@2@@Z
_TEXT	SEGMENT
__Pnode$ = 8						; size = 4
?_Color@?$_Tree@V?$_Tmap_traits@KV?$vector@U_VECINFO@@V?$allocator@U_VECINFO@@@std@@@std@@U?$less@K@2@V?$allocator@U?$pair@$$CBKV?$vector@U_VECINFO@@V?$allocator@U_VECINFO@@@std@@@std@@@std@@@2@$0A@@std@@@std@@KAAADPAU_Node@?$_Tree_nod@V?$_Tmap_traits@KV?$vector@U_VECINFO@@V?$allocator@U_VECINFO@@@std@@@std@@U?$less@K@2@V?$allocator@U?$pair@$$CBKV?$vector@U_VECINFO@@V?$allocator@U_VECINFO@@@std@@@std@@@std@@@2@$0A@@std@@@2@@Z PROC NEAR ; std::_Tree<std::_Tmap_traits<unsigned long,std::vector<_VECINFO,std::allocator<_VECINFO> >,std::less<unsigned long>,std::allocator<std::pair<unsigned long const ,std::vector<_VECINFO,std::allocator<_VECINFO> > > >,0> >::_Color, COMDAT

; 132  : 		return ((_Charref)(*_Pnode)._Color);

  00000	8b 44 24 04	 mov	 eax, DWORD PTR __Pnode$[esp-4]
  00004	83 c0 20	 add	 eax, 32			; 00000020H

; 133  : 		}

  00007	c3		 ret	 0
?_Color@?$_Tree@V?$_Tmap_traits@KV?$vector@U_VECINFO@@V?$allocator@U_VECINFO@@@std@@@std@@U?$less@K@2@V?$allocator@U?$pair@$$CBKV?$vector@U_VECINFO@@V?$allocator@U_VECINFO@@@std@@@std@@@std@@@2@$0A@@std@@@std@@KAAADPAU_Node@?$_Tree_nod@V?$_Tmap_traits@KV?$vector@U_VECINFO@@V?$allocator@U_VECINFO@@@std@@@std@@U?$less@K@2@V?$allocator@U?$pair@$$CBKV?$vector@U_VECINFO@@V?$allocator@U_VECINFO@@@std@@@std@@@std@@@2@$0A@@std@@@2@@Z ENDP ; std::_Tree<std::_Tmap_traits<unsigned long,std::vector<_VECINFO,std::allocator<_VECINFO> >,std::less<unsigned long>,std::allocator<std::pair<unsigned long const ,std::vector<_VECINFO,std::allocator<_VECINFO> > > >,0> >::_Color
_TEXT	ENDS
PUBLIC	?_Parent@?$_Tree@V?$_Tmap_traits@KV?$vector@U_VECINFO@@V?$allocator@U_VECINFO@@@std@@@std@@U?$less@K@2@V?$allocator@U?$pair@$$CBKV?$vector@U_VECINFO@@V?$allocator@U_VECINFO@@@std@@@std@@@std@@@2@$0A@@std@@@std@@KAAAPAU_Node@?$_Tree_nod@V?$_Tmap_traits@KV?$vector@U_VECINFO@@V?$allocator@U_VECINFO@@@std@@@std@@U?$less@K@2@V?$allocator@U?$pair@$$CBKV?$vector@U_VECINFO@@V?$allocator@U_VECINFO@@@std@@@std@@@std@@@2@$0A@@std@@@2@PAU342@@Z ; std::_Tree<std::_Tmap_traits<unsigned long,std::vector<_VECINFO,std::allocator<_VECINFO> >,std::less<unsigned long>,std::allocator<std::pair<unsigned long const ,std::vector<_VECINFO,std::allocator<_VECINFO> > > >,0> >::_Parent
; Function compile flags: /Ogty
;	COMDAT ?_Parent@?$_Tree@V?$_Tmap_traits@KV?$vector@U_VECINFO@@V?$allocator@U_VECINFO@@@std@@@std@@U?$less@K@2@V?$allocator@U?$pair@$$CBKV?$vector@U_VECINFO@@V?$allocator@U_VECINFO@@@std@@@std@@@std@@@2@$0A@@std@@@std@@KAAAPAU_Node@?$_Tree_nod@V?$_Tmap_traits@KV?$vector@U_VECINFO@@V?$allocator@U_VECINFO@@@std@@@std@@U?$less@K@2@V?$allocator@U?$pair@$$CBKV?$vector@U_VECINFO@@V?$allocator@U_VECINFO@@@std@@@std@@@std@@@2@$0A@@std@@@2@PAU342@@Z
_TEXT	SEGMENT
__Pnode$ = 8						; size = 4
?_Parent@?$_Tree@V?$_Tmap_traits@KV?$vector@U_VECINFO@@V?$allocator@U_VECINFO@@@std@@@std@@U?$less@K@2@V?$allocator@U?$pair@$$CBKV?$vector@U_VECINFO@@V?$allocator@U_VECINFO@@@std@@@std@@@std@@@2@$0A@@std@@@std@@KAAAPAU_Node@?$_Tree_nod@V?$_Tmap_traits@KV?$vector@U_VECINFO@@V?$allocator@U_VECINFO@@@std@@@std@@U?$less@K@2@V?$allocator@U?$pair@$$CBKV?$vector@U_VECINFO@@V?$allocator@U_VECINFO@@@std@@@std@@@std@@@2@$0A@@std@@@2@PAU342@@Z PROC NEAR ; std::_Tree<std::_Tmap_traits<unsigned long,std::vector<_VECINFO,std::allocator<_VECINFO> >,std::less<unsigned long>,std::allocator<std::pair<unsigned long const ,std::vector<_VECINFO,std::allocator<_VECINFO> > > >,0> >::_Parent, COMDAT

; 152  : 		return ((_Nodepref)(*_Pnode)._Parent);

  00000	8b 44 24 04	 mov	 eax, DWORD PTR __Pnode$[esp-4]
  00004	83 c0 04	 add	 eax, 4

; 153  : 		}

  00007	c3		 ret	 0
?_Parent@?$_Tree@V?$_Tmap_traits@KV?$vector@U_VECINFO@@V?$allocator@U_VECINFO@@@std@@@std@@U?$less@K@2@V?$allocator@U?$pair@$$CBKV?$vector@U_VECINFO@@V?$allocator@U_VECINFO@@@std@@@std@@@std@@@2@$0A@@std@@@std@@KAAAPAU_Node@?$_Tree_nod@V?$_Tmap_traits@KV?$vector@U_VECINFO@@V?$allocator@U_VECINFO@@@std@@@std@@U?$less@K@2@V?$allocator@U?$pair@$$CBKV?$vector@U_VECINFO@@V?$allocator@U_VECINFO@@@std@@@std@@@std@@@2@$0A@@std@@@2@PAU342@@Z ENDP ; std::_Tree<std::_Tmap_traits<unsigned long,std::vector<_VECINFO,std::allocator<_VECINFO> >,std::less<unsigned long>,std::allocator<std::pair<unsigned long const ,std::vector<_VECINFO,std::allocator<_VECINFO> > > >,0> >::_Parent
_TEXT	ENDS
PUBLIC	?_Myval@?$_Tree@V?$_Tmap_traits@KV?$vector@U_VECINFO@@V?$allocator@U_VECINFO@@@std@@@std@@U?$less@K@2@V?$allocator@U?$pair@$$CBKV?$vector@U_VECINFO@@V?$allocator@U_VECINFO@@@std@@@std@@@std@@@2@$0A@@std@@@std@@KAAAU?$pair@$$CBKV?$vector@U_VECINFO@@V?$allocator@U_VECINFO@@@std@@@std@@@2@PAU_Node@?$_Tree_nod@V?$_Tmap_traits@KV?$vector@U_VECINFO@@V?$allocator@U_VECINFO@@@std@@@std@@U?$less@K@2@V?$allocator@U?$pair@$$CBKV?$vector@U_VECINFO@@V?$allocator@U_VECINFO@@@std@@@std@@@std@@@2@$0A@@std@@@2@@Z ; std::_Tree<std::_Tmap_traits<unsigned long,std::vector<_VECINFO,std::allocator<_VECINFO> >,std::less<unsigned long>,std::allocator<std::pair<unsigned long const ,std::vector<_VECINFO,std::allocator<_VECINFO> > > >,0> >::_Myval
; Function compile flags: /Ogty
;	COMDAT ?_Myval@?$_Tree@V?$_Tmap_traits@KV?$vector@U_VECINFO@@V?$allocator@U_VECINFO@@@std@@@std@@U?$less@K@2@V?$allocator@U?$pair@$$CBKV?$vector@U_VECINFO@@V?$allocator@U_VECINFO@@@std@@@std@@@std@@@2@$0A@@std@@@std@@KAAAU?$pair@$$CBKV?$vector@U_VECINFO@@V?$allocator@U_VECINFO@@@std@@@std@@@2@PAU_Node@?$_Tree_nod@V?$_Tmap_traits@KV?$vector@U_VECINFO@@V?$allocator@U_VECINFO@@@std@@@std@@U?$less@K@2@V?$allocator@U?$pair@$$CBKV?$vector@U_VECINFO@@V?$allocator@U_VECINFO@@@std@@@std@@@std@@@2@$0A@@std@@@2@@Z
_TEXT	SEGMENT
__Pnode$ = 8						; size = 4
?_Myval@?$_Tree@V?$_Tmap_traits@KV?$vector@U_VECINFO@@V?$allocator@U_VECINFO@@@std@@@std@@U?$less@K@2@V?$allocator@U?$pair@$$CBKV?$vector@U_VECINFO@@V?$allocator@U_VECINFO@@@std@@@std@@@std@@@2@$0A@@std@@@std@@KAAAU?$pair@$$CBKV?$vector@U_VECINFO@@V?$allocator@U_VECINFO@@@std@@@std@@@2@PAU_Node@?$_Tree_nod@V?$_Tmap_traits@KV?$vector@U_VECINFO@@V?$allocator@U_VECINFO@@@std@@@std@@U?$less@K@2@V?$allocator@U?$pair@$$CBKV?$vector@U_VECINFO@@V?$allocator@U_VECINFO@@@std@@@std@@@std@@@2@$0A@@std@@@2@@Z PROC NEAR ; std::_Tree<std::_Tmap_traits<unsigned long,std::vector<_VECINFO,std::allocator<_VECINFO> >,std::less<unsigned long>,std::allocator<std::pair<unsigned long const ,std::vector<_VECINFO,std::allocator<_VECINFO> > > >,0> >::_Myval, COMDAT

; 162  : 		return ((_Vref)(*_Pnode)._Myval);

  00000	8b 44 24 04	 mov	 eax, DWORD PTR __Pnode$[esp-4]
  00004	83 c0 0c	 add	 eax, 12			; 0000000cH

; 163  : 		}

  00007	c3		 ret	 0
?_Myval@?$_Tree@V?$_Tmap_traits@KV?$vector@U_VECINFO@@V?$allocator@U_VECINFO@@@std@@@std@@U?$less@K@2@V?$allocator@U?$pair@$$CBKV?$vector@U_VECINFO@@V?$allocator@U_VECINFO@@@std@@@std@@@std@@@2@$0A@@std@@@std@@KAAAU?$pair@$$CBKV?$vector@U_VECINFO@@V?$allocator@U_VECINFO@@@std@@@std@@@2@PAU_Node@?$_Tree_nod@V?$_Tmap_traits@KV?$vector@U_VECINFO@@V?$allocator@U_VECINFO@@@std@@@std@@U?$less@K@2@V?$allocator@U?$pair@$$CBKV?$vector@U_VECINFO@@V?$allocator@U_VECINFO@@@std@@@std@@@std@@@2@$0A@@std@@@2@@Z ENDP ; std::_Tree<std::_Tmap_traits<unsigned long,std::vector<_VECINFO,std::allocator<_VECINFO> >,std::less<unsigned long>,std::allocator<std::pair<unsigned long const ,std::vector<_VECINFO,std::allocator<_VECINFO> > > >,0> >::_Myval
_TEXT	ENDS
PUBLIC	??0?$allocator@U?$pair@$$CBKV?$vector@U_VECINFO@@V?$allocator@U_VECINFO@@@std@@@std@@@std@@@std@@QAE@ABV01@@Z ; std::allocator<std::pair<unsigned long const ,std::vector<_VECINFO,std::allocator<_VECINFO> > > >::allocator<std::pair<unsigned long const ,std::vector<_VECINFO,std::allocator<_VECINFO> > > >
; Function compile flags: /Ogty
; File c:\program files\microsoft visual studio .net 2003\vc7\include\xmemory
;	COMDAT ??0?$allocator@U?$pair@$$CBKV?$vector@U_VECINFO@@V?$allocator@U_VECINFO@@@std@@@std@@@std@@@std@@QAE@ABV01@@Z
_TEXT	SEGMENT
___formal$ = 8						; size = 4
??0?$allocator@U?$pair@$$CBKV?$vector@U_VECINFO@@V?$allocator@U_VECINFO@@@std@@@std@@@std@@@std@@QAE@ABV01@@Z PROC NEAR ; std::allocator<std::pair<unsigned long const ,std::vector<_VECINFO,std::allocator<_VECINFO> > > >::allocator<std::pair<unsigned long const ,std::vector<_VECINFO,std::allocator<_VECINFO> > > >, COMDAT
; _this$ = ecx

; 115  : 	allocator(const allocator<_Ty>&)

  00000	8b c1		 mov	 eax, ecx

; 116  : 		{	// construct by copying (do nothing)
; 117  : 		}

  00002	c2 04 00	 ret	 4
??0?$allocator@U?$pair@$$CBKV?$vector@U_VECINFO@@V?$allocator@U_VECINFO@@@std@@@std@@@std@@@std@@QAE@ABV01@@Z ENDP ; std::allocator<std::pair<unsigned long const ,std::vector<_VECINFO,std::allocator<_VECINFO> > > >::allocator<std::pair<unsigned long const ,std::vector<_VECINFO,std::allocator<_VECINFO> > > >
_TEXT	ENDS
PUBLIC	?deallocate@?$allocator@U_Node@?$_Tree_nod@V?$_Tmap_traits@KV?$vector@U_VECINFO@@V?$allocator@U_VECINFO@@@std@@@std@@U?$less@K@2@V?$allocator@U?$pair@$$CBKV?$vector@U_VECINFO@@V?$allocator@U_VECINFO@@@std@@@std@@@std@@@2@$0A@@std@@@std@@@std@@QAEXPAU_Node@?$_Tree_nod@V?$_Tmap_traits@KV?$vector@U_VECINFO@@V?$allocator@U_VECINFO@@@std@@@std@@U?$less@K@2@V?$allocator@U?$pair@$$CBKV?$vector@U_VECINFO@@V?$allocator@U_VECINFO@@@std@@@std@@@std@@@2@$0A@@std@@@2@I@Z ; std::allocator<std::_Tree_nod<std::_Tmap_traits<unsigned long,std::vector<_VECINFO,std::allocator<_VECINFO> >,std::less<unsigned long>,std::allocator<std::pair<unsigned long const ,std::vector<_VECINFO,std::allocator<_VECINFO> > > >,0> >::_Node>::deallocate
EXTRN	??3@YAXPAX@Z:NEAR				; operator delete
; Function compile flags: /Ogty
;	COMDAT ?deallocate@?$allocator@U_Node@?$_Tree_nod@V?$_Tmap_traits@KV?$vector@U_VECINFO@@V?$allocator@U_VECINFO@@@std@@@std@@U?$less@K@2@V?$allocator@U?$pair@$$CBKV?$vector@U_VECINFO@@V?$allocator@U_VECINFO@@@std@@@std@@@std@@@2@$0A@@std@@@std@@@std@@QAEXPAU_Node@?$_Tree_nod@V?$_Tmap_traits@KV?$vector@U_VECINFO@@V?$allocator@U_VECINFO@@@std@@@std@@U?$less@K@2@V?$allocator@U?$pair@$$CBKV?$vector@U_VECINFO@@V?$allocator@U_VECINFO@@@std@@@std@@@std@@@2@$0A@@std@@@2@I@Z
_TEXT	SEGMENT
__Ptr$ = 8						; size = 4
___formal$ = 12						; size = 4
?deallocate@?$allocator@U_Node@?$_Tree_nod@V?$_Tmap_traits@KV?$vector@U_VECINFO@@V?$allocator@U_VECINFO@@@std@@@std@@U?$less@K@2@V?$allocator@U?$pair@$$CBKV?$vector@U_VECINFO@@V?$allocator@U_VECINFO@@@std@@@std@@@std@@@2@$0A@@std@@@std@@@std@@QAEXPAU_Node@?$_Tree_nod@V?$_Tmap_traits@KV?$vector@U_VECINFO@@V?$allocator@U_VECINFO@@@std@@@std@@U?$less@K@2@V?$allocator@U?$pair@$$CBKV?$vector@U_VECINFO@@V?$allocator@U_VECINFO@@@std@@@std@@@std@@@2@$0A@@std@@@2@I@Z PROC NEAR ; std::allocator<std::_Tree_nod<std::_Tmap_traits<unsigned long,std::vector<_VECINFO,std::allocator<_VECINFO> >,std::less<unsigned long>,std::allocator<std::pair<unsigned long const ,std::vector<_VECINFO,std::allocator<_VECINFO> > > >,0> >::_Node>::deallocate, COMDAT
; _this$ = ecx

; 132  : 		operator delete(_Ptr);

  00000	8b 44 24 04	 mov	 eax, DWORD PTR __Ptr$[esp-4]
  00004	50		 push	 eax
  00005	e8 00 00 00 00	 call	 ??3@YAXPAX@Z		; operator delete
  0000a	59		 pop	 ecx

; 133  : 		}

  0000b	c2 08 00	 ret	 8
?deallocate@?$allocator@U_Node@?$_Tree_nod@V?$_Tmap_traits@KV?$vector@U_VECINFO@@V?$allocator@U_VECINFO@@@std@@@std@@U?$less@K@2@V?$allocator@U?$pair@$$CBKV?$vector@U_VECINFO@@V?$allocator@U_VECINFO@@@std@@@std@@@std@@@2@$0A@@std@@@std@@@std@@QAEXPAU_Node@?$_Tree_nod@V?$_Tmap_traits@KV?$vector@U_VECINFO@@V?$allocator@U_VECINFO@@@std@@@std@@U?$less@K@2@V?$allocator@U?$pair@$$CBKV?$vector@U_VECINFO@@V?$allocator@U_VECINFO@@@std@@@std@@@std@@@2@$0A@@std@@@2@I@Z ENDP ; std::allocator<std::_Tree_nod<std::_Tmap_traits<unsigned long,std::vector<_VECINFO,std::allocator<_VECINFO> >,std::less<unsigned long>,std::allocator<std::pair<unsigned long const ,std::vector<_VECINFO,std::allocator<_VECINFO> > > >,0> >::_Node>::deallocate
_TEXT	ENDS
PUBLIC	??0const_iterator@?$_Tree@V?$_Tmap_traits@KV?$vector@U_VECINFO@@V?$allocator@U_VECINFO@@@std@@@std@@U?$less@K@2@V?$allocator@U?$pair@$$CBKV?$vector@U_VECINFO@@V?$allocator@U_VECINFO@@@std@@@std@@@std@@@2@$0A@@std@@@std@@QAE@PAU_Node@?$_Tree_nod@V?$_Tmap_traits@KV?$vector@U_VECINFO@@V?$allocator@U_VECINFO@@@std@@@std@@U?$less@K@2@V?$allocator@U?$pair@$$CBKV?$vector@U_VECINFO@@V?$allocator@U_VECINFO@@@std@@@std@@@std@@@2@$0A@@std@@@2@@Z ; std::_Tree<std::_Tmap_traits<unsigned long,std::vector<_VECINFO,std::allocator<_VECINFO> >,std::less<unsigned long>,std::allocator<std::pair<unsigned long const ,std::vector<_VECINFO,std::allocator<_VECINFO> > > >,0> >::const_iterator::const_iterator
; Function compile flags: /Ogty
; File c:\program files\microsoft visual studio .net 2003\vc7\include\xtree
;	COMDAT ??0const_iterator@?$_Tree@V?$_Tmap_traits@KV?$vector@U_VECINFO@@V?$allocator@U_VECINFO@@@std@@@std@@U?$less@K@2@V?$allocator@U?$pair@$$CBKV?$vector@U_VECINFO@@V?$allocator@U_VECINFO@@@std@@@std@@@std@@@2@$0A@@std@@@std@@QAE@PAU_Node@?$_Tree_nod@V?$_Tmap_traits@KV?$vector@U_VECINFO@@V?$allocator@U_VECINFO@@@std@@@std@@U?$less@K@2@V?$allocator@U?$pair@$$CBKV?$vector@U_VECINFO@@V?$allocator@U_VECINFO@@@std@@@std@@@std@@@2@$0A@@std@@@2@@Z
_TEXT	SEGMENT
__Pnode$ = 8						; size = 4
??0const_iterator@?$_Tree@V?$_Tmap_traits@KV?$vector@U_VECINFO@@V?$allocator@U_VECINFO@@@std@@@std@@U?$less@K@2@V?$allocator@U?$pair@$$CBKV?$vector@U_VECINFO@@V?$allocator@U_VECINFO@@@std@@@std@@@std@@@2@$0A@@std@@@std@@QAE@PAU_Node@?$_Tree_nod@V?$_Tmap_traits@KV?$vector@U_VECINFO@@V?$allocator@U_VECINFO@@@std@@@std@@U?$less@K@2@V?$allocator@U?$pair@$$CBKV?$vector@U_VECINFO@@V?$allocator@U_VECINFO@@@std@@@std@@@std@@@2@$0A@@std@@@2@@Z PROC NEAR ; std::_Tree<std::_Tmap_traits<unsigned long,std::vector<_VECINFO,std::allocator<_VECINFO> >,std::less<unsigned long>,std::allocator<std::pair<unsigned long const ,std::vector<_VECINFO,std::allocator<_VECINFO> > > >,0> >::const_iterator::const_iterator, COMDAT
; _this$ = ecx

; 200  : 			{	// construct with node pointer _Pnode

  00000	8b c1		 mov	 eax, ecx
  00002	8b 4c 24 04	 mov	 ecx, DWORD PTR __Pnode$[esp-4]
  00006	89 08		 mov	 DWORD PTR [eax], ecx

; 201  : 			}

  00008	c2 04 00	 ret	 4
??0const_iterator@?$_Tree@V?$_Tmap_traits@KV?$vector@U_VECINFO@@V?$allocator@U_VECINFO@@@std@@@std@@U?$less@K@2@V?$allocator@U?$pair@$$CBKV?$vector@U_VECINFO@@V?$allocator@U_VECINFO@@@std@@@std@@@std@@@2@$0A@@std@@@std@@QAE@PAU_Node@?$_Tree_nod@V?$_Tmap_traits@KV?$vector@U_VECINFO@@V?$allocator@U_VECINFO@@@std@@@std@@U?$less@K@2@V?$allocator@U?$pair@$$CBKV?$vector@U_VECINFO@@V?$allocator@U_VECINFO@@@std@@@std@@@std@@@2@$0A@@std@@@2@@Z ENDP ; std::_Tree<std::_Tmap_traits<unsigned long,std::vector<_VECINFO,std::allocator<_VECINFO> >,std::less<unsigned long>,std::allocator<std::pair<unsigned long const ,std::vector<_VECINFO,std::allocator<_VECINFO> > > >,0> >::const_iterator::const_iterator
_TEXT	ENDS
PUBLIC	??Dconst_iterator@?$_Tree@V?$_Tmap_traits@KV?$vector@U_VECINFO@@V?$allocator@U_VECINFO@@@std@@@std@@U?$less@K@2@V?$allocator@U?$pair@$$CBKV?$vector@U_VECINFO@@V?$allocator@U_VECINFO@@@std@@@std@@@std@@@2@$0A@@std@@@std@@QBEABU?$pair@$$CBKV?$vector@U_VECINFO@@V?$allocator@U_VECINFO@@@std@@@std@@@2@XZ ; std::_Tree<std::_Tmap_traits<unsigned long,std::vector<_VECINFO,std::allocator<_VECINFO> >,std::less<unsigned long>,std::allocator<std::pair<unsigned long const ,std::vector<_VECINFO,std::allocator<_VECINFO> > > >,0> >::const_iterator::operator*
; Function compile flags: /Ogty
;	COMDAT ??Dconst_iterator@?$_Tree@V?$_Tmap_traits@KV?$vector@U_VECINFO@@V?$allocator@U_VECINFO@@@std@@@std@@U?$less@K@2@V?$allocator@U?$pair@$$CBKV?$vector@U_VECINFO@@V?$allocator@U_VECINFO@@@std@@@std@@@std@@@2@$0A@@std@@@std@@QBEABU?$pair@$$CBKV?$vector@U_VECINFO@@V?$allocator@U_VECINFO@@@std@@@std@@@2@XZ
_TEXT	SEGMENT
??Dconst_iterator@?$_Tree@V?$_Tmap_traits@KV?$vector@U_VECINFO@@V?$allocator@U_VECINFO@@@std@@@std@@U?$less@K@2@V?$allocator@U?$pair@$$CBKV?$vector@U_VECINFO@@V?$allocator@U_VECINFO@@@std@@@std@@@std@@@2@$0A@@std@@@std@@QBEABU?$pair@$$CBKV?$vector@U_VECINFO@@V?$allocator@U_VECINFO@@@std@@@std@@@2@XZ PROC NEAR ; std::_Tree<std::_Tmap_traits<unsigned long,std::vector<_VECINFO,std::allocator<_VECINFO> >,std::less<unsigned long>,std::allocator<std::pair<unsigned long const ,std::vector<_VECINFO,std::allocator<_VECINFO> > > >,0> >::const_iterator::operator*, COMDAT
; _this$ = ecx

; 205  : 			return (_Myval(_Ptr));

  00000	8b 01		 mov	 eax, DWORD PTR [ecx]
  00002	83 c0 0c	 add	 eax, 12			; 0000000cH

; 206  : 			}

  00005	c3		 ret	 0
??Dconst_iterator@?$_Tree@V?$_Tmap_traits@KV?$vector@U_VECINFO@@V?$allocator@U_VECINFO@@@std@@@std@@U?$less@K@2@V?$allocator@U?$pair@$$CBKV?$vector@U_VECINFO@@V?$allocator@U_VECINFO@@@std@@@std@@@std@@@2@$0A@@std@@@std@@QBEABU?$pair@$$CBKV?$vector@U_VECINFO@@V?$allocator@U_VECINFO@@@std@@@std@@@2@XZ ENDP ; std::_Tree<std::_Tmap_traits<unsigned long,std::vector<_VECINFO,std::allocator<_VECINFO> >,std::less<unsigned long>,std::allocator<std::pair<unsigned long const ,std::vector<_VECINFO,std::allocator<_VECINFO> > > >,0> >::const_iterator::operator*
_TEXT	ENDS
PUBLIC	?deallocate@?$allocator@U_VECINFO@@@std@@QAEXPAU_VECINFO@@I@Z ; std::allocator<_VECINFO>::deallocate
; Function compile flags: /Ogty
; File c:\program files\microsoft visual studio .net 2003\vc7\include\xmemory
;	COMDAT ?deallocate@?$allocator@U_VECINFO@@@std@@QAEXPAU_VECINFO@@I@Z
_TEXT	SEGMENT
__Ptr$ = 8						; size = 4
___formal$ = 12						; size = 4
?deallocate@?$allocator@U_VECINFO@@@std@@QAEXPAU_VECINFO@@I@Z PROC NEAR ; std::allocator<_VECINFO>::deallocate, COMDAT
; _this$ = ecx

; 132  : 		operator delete(_Ptr);

  00000	8b 44 24 04	 mov	 eax, DWORD PTR __Ptr$[esp-4]
  00004	50		 push	 eax
  00005	e8 00 00 00 00	 call	 ??3@YAXPAX@Z		; operator delete
  0000a	59		 pop	 ecx

; 133  : 		}

  0000b	c2 08 00	 ret	 8
?deallocate@?$allocator@U_VECINFO@@@std@@QAEXPAU_VECINFO@@I@Z ENDP ; std::allocator<_VECINFO>::deallocate
_TEXT	ENDS
PUBLIC	??Yiterator@?$vector@UD3DXVECTOR3@@V?$allocator@UD3DXVECTOR3@@@std@@@std@@QAEAAV012@H@Z ; std::vector<D3DXVECTOR3,std::allocator<D3DXVECTOR3> >::iterator::operator+=
; Function compile flags: /Ogty
; File c:\program files\microsoft visual studio .net 2003\vc7\include\vector
;	COMDAT ??Yiterator@?$vector@UD3DXVECTOR3@@V?$allocator@UD3DXVECTOR3@@@std@@@std@@QAEAAV012@H@Z
_TEXT	SEGMENT
__Off$ = 8						; size = 4
??Yiterator@?$vector@UD3DXVECTOR3@@V?$allocator@UD3DXVECTOR3@@@std@@@std@@QAEAAV012@H@Z PROC NEAR ; std::vector<D3DXVECTOR3,std::allocator<D3DXVECTOR3> >::iterator::operator+=, COMDAT
; _this$ = ecx

; 255  : 			{	// increment by integer

  00000	8b c1		 mov	 eax, ecx

; 256  : 			this->_Myptr += _Off;

  00002	8b 4c 24 04	 mov	 ecx, DWORD PTR __Off$[esp-4]
  00006	8b 10		 mov	 edx, DWORD PTR [eax]
  00008	8d 0c 49	 lea	 ecx, DWORD PTR [ecx+ecx*2]
  0000b	c1 e1 02	 shl	 ecx, 2
  0000e	03 d1		 add	 edx, ecx
  00010	89 10		 mov	 DWORD PTR [eax], edx

; 257  : 			return (*this);
; 258  : 			}

  00012	c2 04 00	 ret	 4
??Yiterator@?$vector@UD3DXVECTOR3@@V?$allocator@UD3DXVECTOR3@@@std@@@std@@QAEAAV012@H@Z ENDP ; std::vector<D3DXVECTOR3,std::allocator<D3DXVECTOR3> >::iterator::operator+=
_TEXT	ENDS
PUBLIC	??Dconst_iterator@?$vector@UD3DXVECTOR3@@V?$allocator@UD3DXVECTOR3@@@std@@@std@@QBEABUD3DXVECTOR3@@XZ ; std::vector<D3DXVECTOR3,std::allocator<D3DXVECTOR3> >::const_iterator::operator*
; Function compile flags: /Ogty
;	COMDAT ??Dconst_iterator@?$vector@UD3DXVECTOR3@@V?$allocator@UD3DXVECTOR3@@@std@@@std@@QBEABUD3DXVECTOR3@@XZ
_TEXT	SEGMENT
??Dconst_iterator@?$vector@UD3DXVECTOR3@@V?$allocator@UD3DXVECTOR3@@@std@@@std@@QBEABUD3DXVECTOR3@@XZ PROC NEAR ; std::vector<D3DXVECTOR3,std::allocator<D3DXVECTOR3> >::const_iterator::operator*, COMDAT
; _this$ = ecx

; 80   : 
; 81   : 
; 82   : 			return (*_Myptr);

  00000	8b 01		 mov	 eax, DWORD PTR [ecx]

; 83   : 			}

  00002	c3		 ret	 0
??Dconst_iterator@?$vector@UD3DXVECTOR3@@V?$allocator@UD3DXVECTOR3@@@std@@@std@@QBEABUD3DXVECTOR3@@XZ ENDP ; std::vector<D3DXVECTOR3,std::allocator<D3DXVECTOR3> >::const_iterator::operator*
_TEXT	ENDS
PUBLIC	??0const_iterator@?$vector@U_VECINFO@@V?$allocator@U_VECINFO@@@std@@@std@@QAE@PAU_VECINFO@@@Z ; std::vector<_VECINFO,std::allocator<_VECINFO> >::const_iterator::const_iterator
; Function compile flags: /Ogty
;	COMDAT ??0const_iterator@?$vector@U_VECINFO@@V?$allocator@U_VECINFO@@@std@@@std@@QAE@PAU_VECINFO@@@Z
_TEXT	SEGMENT
__Ptr$ = 8						; size = 4
??0const_iterator@?$vector@U_VECINFO@@V?$allocator@U_VECINFO@@@std@@@std@@QAE@PAU_VECINFO@@@Z PROC NEAR ; std::vector<_VECINFO,std::allocator<_VECINFO> >::const_iterator::const_iterator, COMDAT
; _this$ = ecx

; 73   : 		const_iterator(_Tptr _Ptr)

  00000	8b c1		 mov	 eax, ecx

; 74   : 			{	// construct with pointer _Ptr
; 75   : 			_Myptr = _Ptr;

  00002	8b 4c 24 04	 mov	 ecx, DWORD PTR __Ptr$[esp-4]
  00006	89 08		 mov	 DWORD PTR [eax], ecx

; 76   : 			}

  00008	c2 04 00	 ret	 4
??0const_iterator@?$vector@U_VECINFO@@V?$allocator@U_VECINFO@@@std@@@std@@QAE@PAU_VECINFO@@@Z ENDP ; std::vector<_VECINFO,std::allocator<_VECINFO> >::const_iterator::const_iterator
_TEXT	ENDS
PUBLIC	??Dconst_iterator@?$vector@U_VECINFO@@V?$allocator@U_VECINFO@@@std@@@std@@QBEABU_VECINFO@@XZ ; std::vector<_VECINFO,std::allocator<_VECINFO> >::const_iterator::operator*
; Function compile flags: /Ogty
;	COMDAT ??Dconst_iterator@?$vector@U_VECINFO@@V?$allocator@U_VECINFO@@@std@@@std@@QBEABU_VECINFO@@XZ
_TEXT	SEGMENT
??Dconst_iterator@?$vector@U_VECINFO@@V?$allocator@U_VECINFO@@@std@@@std@@QBEABU_VECINFO@@XZ PROC NEAR ; std::vector<_VECINFO,std::allocator<_VECINFO> >::const_iterator::operator*, COMDAT
; _this$ = ecx

; 80   : 
; 81   : 
; 82   : 			return (*_Myptr);

  00000	8b 01		 mov	 eax, DWORD PTR [ecx]

; 83   : 			}

  00002	c3		 ret	 0
??Dconst_iterator@?$vector@U_VECINFO@@V?$allocator@U_VECINFO@@@std@@@std@@QBEABU_VECINFO@@XZ ENDP ; std::vector<_VECINFO,std::allocator<_VECINFO> >::const_iterator::operator*
_TEXT	ENDS
PUBLIC	??0iterator@?$vector@U_VECINFO@@V?$allocator@U_VECINFO@@@std@@@std@@QAE@PAU_VECINFO@@@Z ; std::vector<_VECINFO,std::allocator<_VECINFO> >::iterator::iterator
; Function compile flags: /Ogty
;	COMDAT ??0iterator@?$vector@U_VECINFO@@V?$allocator@U_VECINFO@@@std@@@std@@QAE@PAU_VECINFO@@@Z
_TEXT	SEGMENT
__Ptr$ = 8						; size = 4
??0iterator@?$vector@U_VECINFO@@V?$allocator@U_VECINFO@@@std@@@std@@QAE@PAU_VECINFO@@@Z PROC NEAR ; std::vector<_VECINFO,std::allocator<_VECINFO> >::iterator::iterator, COMDAT
; _this$ = ecx

; 215  : 			{	// construct with pointer _Ptr

  00000	8b c1		 mov	 eax, ecx
  00002	8b 4c 24 04	 mov	 ecx, DWORD PTR __Ptr$[esp-4]
  00006	89 08		 mov	 DWORD PTR [eax], ecx

; 216  : 			}

  00008	c2 04 00	 ret	 4
??0iterator@?$vector@U_VECINFO@@V?$allocator@U_VECINFO@@@std@@@std@@QAE@PAU_VECINFO@@@Z ENDP ; std::vector<_VECINFO,std::allocator<_VECINFO> >::iterator::iterator
_TEXT	ENDS
PUBLIC	??Yiterator@?$vector@U_VECINFO@@V?$allocator@U_VECINFO@@@std@@@std@@QAEAAV012@H@Z ; std::vector<_VECINFO,std::allocator<_VECINFO> >::iterator::operator+=
; Function compile flags: /Ogty
;	COMDAT ??Yiterator@?$vector@U_VECINFO@@V?$allocator@U_VECINFO@@@std@@@std@@QAEAAV012@H@Z
_TEXT	SEGMENT
__Off$ = 8						; size = 4
??Yiterator@?$vector@U_VECINFO@@V?$allocator@U_VECINFO@@@std@@@std@@QAEAAV012@H@Z PROC NEAR ; std::vector<_VECINFO,std::allocator<_VECINFO> >::iterator::operator+=, COMDAT
; _this$ = ecx

; 255  : 			{	// increment by integer

  00000	8b c1		 mov	 eax, ecx

; 256  : 			this->_Myptr += _Off;

  00002	8b 4c 24 04	 mov	 ecx, DWORD PTR __Off$[esp-4]
  00006	8b 10		 mov	 edx, DWORD PTR [eax]
  00008	6b c9 38	 imul	 ecx, 56			; 00000038H
  0000b	03 d1		 add	 edx, ecx
  0000d	89 10		 mov	 DWORD PTR [eax], edx

; 257  : 			return (*this);
; 258  : 			}

  0000f	c2 04 00	 ret	 4
??Yiterator@?$vector@U_VECINFO@@V?$allocator@U_VECINFO@@@std@@@std@@QAEAAV012@H@Z ENDP ; std::vector<_VECINFO,std::allocator<_VECINFO> >::iterator::operator+=
_TEXT	ENDS
PUBLIC	?_Root@?$_Tree@V?$_Tmap_traits@KV?$vector@U_VECINFO@@V?$allocator@U_VECINFO@@@std@@@std@@U?$less@K@2@V?$allocator@U?$pair@$$CBKV?$vector@U_VECINFO@@V?$allocator@U_VECINFO@@@std@@@std@@@std@@@2@$0A@@std@@@std@@IBEAAPAU_Node@?$_Tree_nod@V?$_Tmap_traits@KV?$vector@U_VECINFO@@V?$allocator@U_VECINFO@@@std@@@std@@U?$less@K@2@V?$allocator@U?$pair@$$CBKV?$vector@U_VECINFO@@V?$allocator@U_VECINFO@@@std@@@std@@@std@@@2@$0A@@std@@@2@XZ ; std::_Tree<std::_Tmap_traits<unsigned long,std::vector<_VECINFO,std::allocator<_VECINFO> >,std::less<unsigned long>,std::allocator<std::pair<unsigned long const ,std::vector<_VECINFO,std::allocator<_VECINFO> > > >,0> >::_Root
; Function compile flags: /Ogty
; File c:\program files\microsoft visual studio .net 2003\vc7\include\xtree
;	COMDAT ?_Root@?$_Tree@V?$_Tmap_traits@KV?$vector@U_VECINFO@@V?$allocator@U_VECINFO@@@std@@@std@@U?$less@K@2@V?$allocator@U?$pair@$$CBKV?$vector@U_VECINFO@@V?$allocator@U_VECINFO@@@std@@@std@@@std@@@2@$0A@@std@@@std@@IBEAAPAU_Node@?$_Tree_nod@V?$_Tmap_traits@KV?$vector@U_VECINFO@@V?$allocator@U_VECINFO@@@std@@@std@@U?$less@K@2@V?$allocator@U?$pair@$$CBKV?$vector@U_VECINFO@@V?$allocator@U_VECINFO@@@std@@@std@@@std@@@2@$0A@@std@@@2@XZ
_TEXT	SEGMENT
?_Root@?$_Tree@V?$_Tmap_traits@KV?$vector@U_VECINFO@@V?$allocator@U_VECINFO@@@std@@@std@@U?$less@K@2@V?$allocator@U?$pair@$$CBKV?$vector@U_VECINFO@@V?$allocator@U_VECINFO@@@std@@@std@@@std@@@2@$0A@@std@@@std@@IBEAAPAU_Node@?$_Tree_nod@V?$_Tmap_traits@KV?$vector@U_VECINFO@@V?$allocator@U_VECINFO@@@std@@@std@@U?$less@K@2@V?$allocator@U?$pair@$$CBKV?$vector@U_VECINFO@@V?$allocator@U_VECINFO@@@std@@@std@@@std@@@2@$0A@@std@@@2@XZ PROC NEAR ; std::_Tree<std::_Tmap_traits<unsigned long,std::vector<_VECINFO,std::allocator<_VECINFO> >,std::less<unsigned long>,std::allocator<std::pair<unsigned long const ,std::vector<_VECINFO,std::allocator<_VECINFO> > > >,0> >::_Root, COMDAT
; _this$ = ecx

; 1064 : 		return (_Parent(_Myhead));

  00000	8b 41 04	 mov	 eax, DWORD PTR [ecx+4]
  00003	83 c0 04	 add	 eax, 4

; 1065 : 		}

  00006	c3		 ret	 0
?_Root@?$_Tree@V?$_Tmap_traits@KV?$vector@U_VECINFO@@V?$allocator@U_VECINFO@@@std@@@std@@U?$less@K@2@V?$allocator@U?$pair@$$CBKV?$vector@U_VECINFO@@V?$allocator@U_VECINFO@@@std@@@std@@@std@@@2@$0A@@std@@@std@@IBEAAPAU_Node@?$_Tree_nod@V?$_Tmap_traits@KV?$vector@U_VECINFO@@V?$allocator@U_VECINFO@@@std@@@std@@U?$less@K@2@V?$allocator@U?$pair@$$CBKV?$vector@U_VECINFO@@V?$allocator@U_VECINFO@@@std@@@std@@@std@@@2@$0A@@std@@@2@XZ ENDP ; std::_Tree<std::_Tmap_traits<unsigned long,std::vector<_VECINFO,std::allocator<_VECINFO> >,std::less<unsigned long>,std::allocator<std::pair<unsigned long const ,std::vector<_VECINFO,std::allocator<_VECINFO> > > >,0> >::_Root
_TEXT	ENDS
PUBLIC	?max_size@?$allocator@U?$pair@$$CBKV?$vector@U_VECINFO@@V?$allocator@U_VECINFO@@@std@@@std@@@std@@@std@@QBEIXZ ; std::allocator<std::pair<unsigned long const ,std::vector<_VECINFO,std::allocator<_VECINFO> > > >::max_size
; Function compile flags: /Ogty
; File c:\program files\microsoft visual studio .net 2003\vc7\include\xmemory
;	COMDAT ?max_size@?$allocator@U?$pair@$$CBKV?$vector@U_VECINFO@@V?$allocator@U_VECINFO@@@std@@@std@@@std@@@std@@QBEIXZ
_TEXT	SEGMENT
?max_size@?$allocator@U?$pair@$$CBKV?$vector@U_VECINFO@@V?$allocator@U_VECINFO@@@std@@@std@@@std@@@std@@QBEIXZ PROC NEAR ; std::allocator<std::pair<unsigned long const ,std::vector<_VECINFO,std::allocator<_VECINFO> > > >::max_size, COMDAT
; _this$ = ecx

; 157  : 		_SIZT _Count = (_SIZT)(-1) / sizeof (_Ty);
; 158  : 		return (0 < _Count ? _Count : 1);

  00000	b8 cc cc cc 0c	 mov	 eax, 214748364		; 0cccccccH

; 159  : 		}

  00005	c3		 ret	 0
?max_size@?$allocator@U?$pair@$$CBKV?$vector@U_VECINFO@@V?$allocator@U_VECINFO@@@std@@@std@@@std@@@std@@QBEIXZ ENDP ; std::allocator<std::pair<unsigned long const ,std::vector<_VECINFO,std::allocator<_VECINFO> > > >::max_size
_TEXT	ENDS
PUBLIC	?max_size@?$allocator@U_VECINFO@@@std@@QBEIXZ	; std::allocator<_VECINFO>::max_size
; Function compile flags: /Ogty
;	COMDAT ?max_size@?$allocator@U_VECINFO@@@std@@QBEIXZ
_TEXT	SEGMENT
?max_size@?$allocator@U_VECINFO@@@std@@QBEIXZ PROC NEAR	; std::allocator<_VECINFO>::max_size, COMDAT
; _this$ = ecx

; 157  : 		_SIZT _Count = (_SIZT)(-1) / sizeof (_Ty);
; 158  : 		return (0 < _Count ? _Count : 1);

  00000	b8 24 49 92 04	 mov	 eax, 76695844		; 04924924H

; 159  : 		}

  00005	c3		 ret	 0
?max_size@?$allocator@U_VECINFO@@@std@@QBEIXZ ENDP	; std::allocator<_VECINFO>::max_size
_TEXT	ENDS
PUBLIC	??0const_iterator@?$vector@UD3DXVECTOR3@@V?$allocator@UD3DXVECTOR3@@@std@@@std@@QAE@PAUD3DXVECTOR3@@@Z ; std::vector<D3DXVECTOR3,std::allocator<D3DXVECTOR3> >::const_iterator::const_iterator
; Function compile flags: /Ogty
; File c:\program files\microsoft visual studio .net 2003\vc7\include\vector
;	COMDAT ??0const_iterator@?$vector@UD3DXVECTOR3@@V?$allocator@UD3DXVECTOR3@@@std@@@std@@QAE@PAUD3DXVECTOR3@@@Z
_TEXT	SEGMENT
__Ptr$ = 8						; size = 4
??0const_iterator@?$vector@UD3DXVECTOR3@@V?$allocator@UD3DXVECTOR3@@@std@@@std@@QAE@PAUD3DXVECTOR3@@@Z PROC NEAR ; std::vector<D3DXVECTOR3,std::allocator<D3DXVECTOR3> >::const_iterator::const_iterator, COMDAT
; _this$ = ecx

; 73   : 		const_iterator(_Tptr _Ptr)

  00000	8b c1		 mov	 eax, ecx

; 74   : 			{	// construct with pointer _Ptr
; 75   : 			_Myptr = _Ptr;

  00002	8b 4c 24 04	 mov	 ecx, DWORD PTR __Ptr$[esp-4]
  00006	89 08		 mov	 DWORD PTR [eax], ecx

; 76   : 			}

  00008	c2 04 00	 ret	 4
??0const_iterator@?$vector@UD3DXVECTOR3@@V?$allocator@UD3DXVECTOR3@@@std@@@std@@QAE@PAUD3DXVECTOR3@@@Z ENDP ; std::vector<D3DXVECTOR3,std::allocator<D3DXVECTOR3> >::const_iterator::const_iterator
_TEXT	ENDS
PUBLIC	??Gconst_iterator@?$vector@UD3DXVECTOR3@@V?$allocator@UD3DXVECTOR3@@@std@@@std@@QBEHABV012@@Z ; std::vector<D3DXVECTOR3,std::allocator<D3DXVECTOR3> >::const_iterator::operator-
; Function compile flags: /Ogty
;	COMDAT ??Gconst_iterator@?$vector@UD3DXVECTOR3@@V?$allocator@UD3DXVECTOR3@@@std@@@std@@QBEHABV012@@Z
_TEXT	SEGMENT
__Right$ = 8						; size = 4
??Gconst_iterator@?$vector@UD3DXVECTOR3@@V?$allocator@UD3DXVECTOR3@@@std@@@std@@QBEHABV012@@Z PROC NEAR ; std::vector<D3DXVECTOR3,std::allocator<D3DXVECTOR3> >::const_iterator::operator-, COMDAT
; _this$ = ecx

; 141  : 
; 142  : 
; 143  : 			return (_Myptr - _Right._Myptr);

  00000	8b 44 24 04	 mov	 eax, DWORD PTR __Right$[esp-4]
  00004	8b 10		 mov	 edx, DWORD PTR [eax]
  00006	8b 09		 mov	 ecx, DWORD PTR [ecx]
  00008	2b ca		 sub	 ecx, edx
  0000a	b8 ab aa aa 2a	 mov	 eax, 715827883		; 2aaaaaabH
  0000f	f7 e9		 imul	 ecx
  00011	d1 fa		 sar	 edx, 1
  00013	8b c2		 mov	 eax, edx
  00015	c1 e8 1f	 shr	 eax, 31			; 0000001fH
  00018	03 c2		 add	 eax, edx

; 144  : 			}

  0001a	c2 04 00	 ret	 4
??Gconst_iterator@?$vector@UD3DXVECTOR3@@V?$allocator@UD3DXVECTOR3@@@std@@@std@@QBEHABV012@@Z ENDP ; std::vector<D3DXVECTOR3,std::allocator<D3DXVECTOR3> >::const_iterator::operator-
_TEXT	ENDS
PUBLIC	??Gconst_iterator@?$vector@U_VECINFO@@V?$allocator@U_VECINFO@@@std@@@std@@QBEHABV012@@Z ; std::vector<_VECINFO,std::allocator<_VECINFO> >::const_iterator::operator-
; Function compile flags: /Ogty
;	COMDAT ??Gconst_iterator@?$vector@U_VECINFO@@V?$allocator@U_VECINFO@@@std@@@std@@QBEHABV012@@Z
_TEXT	SEGMENT
__Right$ = 8						; size = 4
??Gconst_iterator@?$vector@U_VECINFO@@V?$allocator@U_VECINFO@@@std@@@std@@QBEHABV012@@Z PROC NEAR ; std::vector<_VECINFO,std::allocator<_VECINFO> >::const_iterator::operator-, COMDAT
; _this$ = ecx

; 141  : 
; 142  : 
; 143  : 			return (_Myptr - _Right._Myptr);

  00000	8b 44 24 04	 mov	 eax, DWORD PTR __Right$[esp-4]
  00004	8b 10		 mov	 edx, DWORD PTR [eax]
  00006	8b 09		 mov	 ecx, DWORD PTR [ecx]
  00008	2b ca		 sub	 ecx, edx
  0000a	b8 93 24 49 92	 mov	 eax, -1840700269	; 92492493H
  0000f	f7 e9		 imul	 ecx
  00011	03 d1		 add	 edx, ecx
  00013	c1 fa 05	 sar	 edx, 5
  00016	8b c2		 mov	 eax, edx
  00018	c1 e8 1f	 shr	 eax, 31			; 0000001fH
  0001b	03 c2		 add	 eax, edx

; 144  : 			}

  0001d	c2 04 00	 ret	 4
??Gconst_iterator@?$vector@U_VECINFO@@V?$allocator@U_VECINFO@@@std@@@std@@QBEHABV012@@Z ENDP ; std::vector<_VECINFO,std::allocator<_VECINFO> >::const_iterator::operator-
_TEXT	ENDS
PUBLIC	?_Max@?$_Tree@V?$_Tmap_traits@KV?$vector@U_VECINFO@@V?$allocator@U_VECINFO@@@std@@@std@@U?$less@K@2@V?$allocator@U?$pair@$$CBKV?$vector@U_VECINFO@@V?$allocator@U_VECINFO@@@std@@@std@@@std@@@2@$0A@@std@@@std@@KAPAU_Node@?$_Tree_nod@V?$_Tmap_traits@KV?$vector@U_VECINFO@@V?$allocator@U_VECINFO@@@std@@@std@@U?$less@K@2@V?$allocator@U?$pair@$$CBKV?$vector@U_VECINFO@@V?$allocator@U_VECINFO@@@std@@@std@@@std@@@2@$0A@@std@@@2@PAU342@@Z ; std::_Tree<std::_Tmap_traits<unsigned long,std::vector<_VECINFO,std::allocator<_VECINFO> >,std::less<unsigned long>,std::allocator<std::pair<unsigned long const ,std::vector<_VECINFO,std::allocator<_VECINFO> > > >,0> >::_Max
; Function compile flags: /Ogty
; File c:\program files\microsoft visual studio .net 2003\vc7\include\xtree
;	COMDAT ?_Max@?$_Tree@V?$_Tmap_traits@KV?$vector@U_VECINFO@@V?$allocator@U_VECINFO@@@std@@@std@@U?$less@K@2@V?$allocator@U?$pair@$$CBKV?$vector@U_VECINFO@@V?$allocator@U_VECINFO@@@std@@@std@@@std@@@2@$0A@@std@@@std@@KAPAU_Node@?$_Tree_nod@V?$_Tmap_traits@KV?$vector@U_VECINFO@@V?$allocator@U_VECINFO@@@std@@@std@@U?$less@K@2@V?$allocator@U?$pair@$$CBKV?$vector@U_VECINFO@@V?$allocator@U_VECINFO@@@std@@@std@@@std@@@2@$0A@@std@@@2@PAU342@@Z
_TEXT	SEGMENT
__Pnode$ = 8						; size = 4
?_Max@?$_Tree@V?$_Tmap_traits@KV?$vector@U_VECINFO@@V?$allocator@U_VECINFO@@@std@@@std@@U?$less@K@2@V?$allocator@U?$pair@$$CBKV?$vector@U_VECINFO@@V?$allocator@U_VECINFO@@@std@@@std@@@std@@@2@$0A@@std@@@std@@KAPAU_Node@?$_Tree_nod@V?$_Tmap_traits@KV?$vector@U_VECINFO@@V?$allocator@U_VECINFO@@@std@@@std@@U?$less@K@2@V?$allocator@U?$pair@$$CBKV?$vector@U_VECINFO@@V?$allocator@U_VECINFO@@@std@@@std@@@std@@@2@$0A@@std@@@2@PAU342@@Z PROC NEAR ; std::_Tree<std::_Tmap_traits<unsigned long,std::vector<_VECINFO,std::allocator<_VECINFO> >,std::less<unsigned long>,std::allocator<std::pair<unsigned long const ,std::vector<_VECINFO,std::allocator<_VECINFO> > > >,0> >::_Max, COMDAT

; 1035 : 		while (!_Isnil(_Right(_Pnode)))

  00000	8b 44 24 04	 mov	 eax, DWORD PTR __Pnode$[esp-4]
  00004	8b 48 08	 mov	 ecx, DWORD PTR [eax+8]
  00007	8a 51 21	 mov	 dl, BYTE PTR [ecx+33]
  0000a	84 d2		 test	 dl, dl
  0000c	75 0e		 jne	 SHORT $L227280
  0000e	8b ff		 npad	 2
$L227279:

; 1036 : 			_Pnode = _Right(_Pnode);

  00010	8b c1		 mov	 eax, ecx
  00012	8b 48 08	 mov	 ecx, DWORD PTR [eax+8]
  00015	8a 51 21	 mov	 dl, BYTE PTR [ecx+33]
  00018	84 d2		 test	 dl, dl
  0001a	74 f4		 je	 SHORT $L227279
$L227280:

; 1037 : 		return (_Pnode);
; 1038 : 		}

  0001c	c3		 ret	 0
?_Max@?$_Tree@V?$_Tmap_traits@KV?$vector@U_VECINFO@@V?$allocator@U_VECINFO@@@std@@@std@@U?$less@K@2@V?$allocator@U?$pair@$$CBKV?$vector@U_VECINFO@@V?$allocator@U_VECINFO@@@std@@@std@@@std@@@2@$0A@@std@@@std@@KAPAU_Node@?$_Tree_nod@V?$_Tmap_traits@KV?$vector@U_VECINFO@@V?$allocator@U_VECINFO@@@std@@@std@@U?$less@K@2@V?$allocator@U?$pair@$$CBKV?$vector@U_VECINFO@@V?$allocator@U_VECINFO@@@std@@@std@@@std@@@2@$0A@@std@@@2@PAU342@@Z ENDP ; std::_Tree<std::_Tmap_traits<unsigned long,std::vector<_VECINFO,std::allocator<_VECINFO> >,std::less<unsigned long>,std::allocator<std::pair<unsigned long const ,std::vector<_VECINFO,std::allocator<_VECINFO> > > >,0> >::_Max
_TEXT	ENDS
PUBLIC	?_Min@?$_Tree@V?$_Tmap_traits@KV?$vector@U_VECINFO@@V?$allocator@U_VECINFO@@@std@@@std@@U?$less@K@2@V?$allocator@U?$pair@$$CBKV?$vector@U_VECINFO@@V?$allocator@U_VECINFO@@@std@@@std@@@std@@@2@$0A@@std@@@std@@KAPAU_Node@?$_Tree_nod@V?$_Tmap_traits@KV?$vector@U_VECINFO@@V?$allocator@U_VECINFO@@@std@@@std@@U?$less@K@2@V?$allocator@U?$pair@$$CBKV?$vector@U_VECINFO@@V?$allocator@U_VECINFO@@@std@@@std@@@std@@@2@$0A@@std@@@2@PAU342@@Z ; std::_Tree<std::_Tmap_traits<unsigned long,std::vector<_VECINFO,std::allocator<_VECINFO> >,std::less<unsigned long>,std::allocator<std::pair<unsigned long const ,std::vector<_VECINFO,std::allocator<_VECINFO> > > >,0> >::_Min
; Function compile flags: /Ogty
;	COMDAT ?_Min@?$_Tree@V?$_Tmap_traits@KV?$vector@U_VECINFO@@V?$allocator@U_VECINFO@@@std@@@std@@U?$less@K@2@V?$allocator@U?$pair@$$CBKV?$vector@U_VECINFO@@V?$allocator@U_VECINFO@@@std@@@std@@@std@@@2@$0A@@std@@@std@@KAPAU_Node@?$_Tree_nod@V?$_Tmap_traits@KV?$vector@U_VECINFO@@V?$allocator@U_VECINFO@@@std@@@std@@U?$less@K@2@V?$allocator@U?$pair@$$CBKV?$vector@U_VECINFO@@V?$allocator@U_VECINFO@@@std@@@std@@@std@@@2@$0A@@std@@@2@PAU342@@Z
_TEXT	SEGMENT
__Pnode$ = 8						; size = 4
?_Min@?$_Tree@V?$_Tmap_traits@KV?$vector@U_VECINFO@@V?$allocator@U_VECINFO@@@std@@@std@@U?$less@K@2@V?$allocator@U?$pair@$$CBKV?$vector@U_VECINFO@@V?$allocator@U_VECINFO@@@std@@@std@@@std@@@2@$0A@@std@@@std@@KAPAU_Node@?$_Tree_nod@V?$_Tmap_traits@KV?$vector@U_VECINFO@@V?$allocator@U_VECINFO@@@std@@@std@@U?$less@K@2@V?$allocator@U?$pair@$$CBKV?$vector@U_VECINFO@@V?$allocator@U_VECINFO@@@std@@@std@@@std@@@2@$0A@@std@@@2@PAU342@@Z PROC NEAR ; std::_Tree<std::_Tmap_traits<unsigned long,std::vector<_VECINFO,std::allocator<_VECINFO> >,std::less<unsigned long>,std::allocator<std::pair<unsigned long const ,std::vector<_VECINFO,std::allocator<_VECINFO> > > >,0> >::_Min, COMDAT

; 1042 : 		while (!_Isnil(_Left(_Pnode)))

  00000	8b 44 24 04	 mov	 eax, DWORD PTR __Pnode$[esp-4]
  00004	8b 08		 mov	 ecx, DWORD PTR [eax]
  00006	8a 51 21	 mov	 dl, BYTE PTR [ecx+33]
  00009	84 d2		 test	 dl, dl
  0000b	75 0e		 jne	 SHORT $L227284
  0000d	8d 49 00	 npad	 3
$L227283:

; 1043 : 			_Pnode = _Left(_Pnode);

  00010	8b c1		 mov	 eax, ecx
  00012	8b 08		 mov	 ecx, DWORD PTR [eax]
  00014	8a 51 21	 mov	 dl, BYTE PTR [ecx+33]
  00017	84 d2		 test	 dl, dl
  00019	74 f5		 je	 SHORT $L227283
$L227284:

; 1044 : 		return (_Pnode);
; 1045 : 		}

  0001b	c3		 ret	 0
?_Min@?$_Tree@V?$_Tmap_traits@KV?$vector@U_VECINFO@@V?$allocator@U_VECINFO@@@std@@@std@@U?$less@K@2@V?$allocator@U?$pair@$$CBKV?$vector@U_VECINFO@@V?$allocator@U_VECINFO@@@std@@@std@@@std@@@2@$0A@@std@@@std@@KAPAU_Node@?$_Tree_nod@V?$_Tmap_traits@KV?$vector@U_VECINFO@@V?$allocator@U_VECINFO@@@std@@@std@@U?$less@K@2@V?$allocator@U?$pair@$$CBKV?$vector@U_VECINFO@@V?$allocator@U_VECINFO@@@std@@@std@@@std@@@2@$0A@@std@@@2@PAU342@@Z ENDP ; std::_Tree<std::_Tmap_traits<unsigned long,std::vector<_VECINFO,std::allocator<_VECINFO> >,std::less<unsigned long>,std::allocator<std::pair<unsigned long const ,std::vector<_VECINFO,std::allocator<_VECINFO> > > >,0> >::_Min
_TEXT	ENDS
PUBLIC	??0?$_Tmap_traits@KHU?$less@K@std@@V?$allocator@U?$pair@$$CBKH@std@@@2@$0A@@std@@QAE@U?$less@K@1@@Z ; std::_Tmap_traits<unsigned long,int,std::less<unsigned long>,std::allocator<std::pair<unsigned long const ,int> >,0>::_Tmap_traits<unsigned long,int,std::less<unsigned long>,std::allocator<std::pair<unsigned long const ,int> >,0>
; Function compile flags: /Ogty
; File c:\program files\microsoft visual studio .net 2003\vc7\include\map
;	COMDAT ??0?$_Tmap_traits@KHU?$less@K@std@@V?$allocator@U?$pair@$$CBKH@std@@@2@$0A@@std@@QAE@U?$less@K@1@@Z
_TEXT	SEGMENT
__Parg$ = 8						; size = 1
??0?$_Tmap_traits@KHU?$less@K@std@@V?$allocator@U?$pair@$$CBKH@std@@@2@$0A@@std@@QAE@U?$less@K@1@@Z PROC NEAR ; std::_Tmap_traits<unsigned long,int,std::less<unsigned long>,std::allocator<std::pair<unsigned long const ,int> >,0>::_Tmap_traits<unsigned long,int,std::less<unsigned long>,std::allocator<std::pair<unsigned long const ,int> >,0>, COMDAT
; _this$ = ecx

; 38   : 		{	// construct with specified comparator

  00000	8b c1		 mov	 eax, ecx

; 39   : 		}

  00002	c2 04 00	 ret	 4
??0?$_Tmap_traits@KHU?$less@K@std@@V?$allocator@U?$pair@$$CBKH@std@@@2@$0A@@std@@QAE@U?$less@K@1@@Z ENDP ; std::_Tmap_traits<unsigned long,int,std::less<unsigned long>,std::allocator<std::pair<unsigned long const ,int> >,0>::_Tmap_traits<unsigned long,int,std::less<unsigned long>,std::allocator<std::pair<unsigned long const ,int> >,0>
_TEXT	ENDS
PUBLIC	??0?$_Tmap_traits@KV?$vector@U_VECINFO@@V?$allocator@U_VECINFO@@@std@@@std@@U?$less@K@2@V?$allocator@U?$pair@$$CBKV?$vector@U_VECINFO@@V?$allocator@U_VECINFO@@@std@@@std@@@std@@@2@$0A@@std@@QAE@U?$less@K@1@@Z ; std::_Tmap_traits<unsigned long,std::vector<_VECINFO,std::allocator<_VECINFO> >,std::less<unsigned long>,std::allocator<std::pair<unsigned long const ,std::vector<_VECINFO,std::allocator<_VECINFO> > > >,0>::_Tmap_traits<unsigned long,std::vector<_VECINFO,std::allocator<_VECINFO> >,std::less<unsigned long>,std::allocator<std::pair<unsigned long const ,std::vector<_VECINFO,std::allocator<_VECINFO> > > >,0>
; Function compile flags: /Ogty
;	COMDAT ??0?$_Tmap_traits@KV?$vector@U_VECINFO@@V?$allocator@U_VECINFO@@@std@@@std@@U?$less@K@2@V?$allocator@U?$pair@$$CBKV?$vector@U_VECINFO@@V?$allocator@U_VECINFO@@@std@@@std@@@std@@@2@$0A@@std@@QAE@U?$less@K@1@@Z
_TEXT	SEGMENT
__Parg$ = 8						; size = 1
??0?$_Tmap_traits@KV?$vector@U_VECINFO@@V?$allocator@U_VECINFO@@@std@@@std@@U?$less@K@2@V?$allocator@U?$pair@$$CBKV?$vector@U_VECINFO@@V?$allocator@U_VECINFO@@@std@@@std@@@std@@@2@$0A@@std@@QAE@U?$less@K@1@@Z PROC NEAR ; std::_Tmap_traits<unsigned long,std::vector<_VECINFO,std::allocator<_VECINFO> >,std::less<unsigned long>,std::allocator<std::pair<unsigned long const ,std::vector<_VECINFO,std::allocator<_VECINFO> > > >,0>::_Tmap_traits<unsigned long,std::vector<_VECINFO,std::allocator<_VECINFO> >,std::less<unsigned long>,std::allocator<std::pair<unsigned long const ,std::vector<_VECINFO,std::allocator<_VECINFO> > > >,0>, COMDAT
; _this$ = ecx

; 38   : 		{	// construct with specified comparator

  00000	8b c1		 mov	 eax, ecx

; 39   : 		}

  00002	c2 04 00	 ret	 4
??0?$_Tmap_traits@KV?$vector@U_VECINFO@@V?$allocator@U_VECINFO@@@std@@@std@@U?$less@K@2@V?$allocator@U?$pair@$$CBKV?$vector@U_VECINFO@@V?$allocator@U_VECINFO@@@std@@@std@@@std@@@2@$0A@@std@@QAE@U?$less@K@1@@Z ENDP ; std::_Tmap_traits<unsigned long,std::vector<_VECINFO,std::allocator<_VECINFO> >,std::less<unsigned long>,std::allocator<std::pair<unsigned long const ,std::vector<_VECINFO,std::allocator<_VECINFO> > > >,0>::_Tmap_traits<unsigned long,std::vector<_VECINFO,std::allocator<_VECINFO> >,std::less<unsigned long>,std::allocator<std::pair<unsigned long const ,std::vector<_VECINFO,std::allocator<_VECINFO> > > >,0>
_TEXT	ENDS
PUBLIC	?_Inc@const_iterator@?$_Tree@V?$_Tmap_traits@KV?$vector@U_VECINFO@@V?$allocator@U_VECINFO@@@std@@@std@@U?$less@K@2@V?$allocator@U?$pair@$$CBKV?$vector@U_VECINFO@@V?$allocator@U_VECINFO@@@std@@@std@@@std@@@2@$0A@@std@@@std@@QAEXXZ ; std::_Tree<std::_Tmap_traits<unsigned long,std::vector<_VECINFO,std::allocator<_VECINFO> >,std::less<unsigned long>,std::allocator<std::pair<unsigned long const ,std::vector<_VECINFO,std::allocator<_VECINFO> > > >,0> >::const_iterator::_Inc
; Function compile flags: /Ogty
; File c:\program files\microsoft visual studio .net 2003\vc7\include\xtree
;	COMDAT ?_Inc@const_iterator@?$_Tree@V?$_Tmap_traits@KV?$vector@U_VECINFO@@V?$allocator@U_VECINFO@@@std@@@std@@U?$less@K@2@V?$allocator@U?$pair@$$CBKV?$vector@U_VECINFO@@V?$allocator@U_VECINFO@@@std@@@std@@@std@@@2@$0A@@std@@@std@@QAEXXZ
_TEXT	SEGMENT
?_Inc@const_iterator@?$_Tree@V?$_Tmap_traits@KV?$vector@U_VECINFO@@V?$allocator@U_VECINFO@@@std@@@std@@U?$less@K@2@V?$allocator@U?$pair@$$CBKV?$vector@U_VECINFO@@V?$allocator@U_VECINFO@@@std@@@std@@@std@@@2@$0A@@std@@@std@@QAEXXZ PROC NEAR ; std::_Tree<std::_Tmap_traits<unsigned long,std::vector<_VECINFO,std::allocator<_VECINFO> >,std::less<unsigned long>,std::allocator<std::pair<unsigned long const ,std::vector<_VECINFO,std::allocator<_VECINFO> > > >,0> >::const_iterator::_Inc, COMDAT
; _this$ = ecx

; 268  : 			if (_Isnil(_Ptr))

  00000	8b 01		 mov	 eax, DWORD PTR [ecx]
  00002	8a 50 21	 mov	 dl, BYTE PTR [eax+33]
  00005	84 d2		 test	 dl, dl
  00007	75 4d		 jne	 SHORT $L227312

; 269  : 				;	// end() shouldn't be incremented, don't move
; 270  : 			else if (!_Isnil(_Right(_Ptr)))

  00009	8b 50 08	 mov	 edx, DWORD PTR [eax+8]
  0000c	53		 push	 ebx
  0000d	8a 5a 21	 mov	 bl, BYTE PTR [edx+33]
  00010	84 db		 test	 bl, bl
  00012	75 1b		 jne	 SHORT $L229369

; 271  : 				_Ptr = _Min(_Right(_Ptr));	// ==> smallest of right subtree

  00014	8b 02		 mov	 eax, DWORD PTR [edx]
  00016	8a 58 21	 mov	 bl, BYTE PTR [eax+33]
  00019	84 db		 test	 bl, bl
  0001b	75 0e		 jne	 SHORT $L229350
  0001d	8d 49 00	 npad	 3
$L229349:
  00020	8b d0		 mov	 edx, eax
  00022	8b 02		 mov	 eax, DWORD PTR [edx]
  00024	8a 58 21	 mov	 bl, BYTE PTR [eax+33]
  00027	84 db		 test	 bl, bl
  00029	74 f5		 je	 SHORT $L229349
$L229350:
  0002b	89 11		 mov	 DWORD PTR [ecx], edx
  0002d	5b		 pop	 ebx

; 279  : 				}
; 280  : 			}

  0002e	c3		 ret	 0
$L229369:

; 272  : 			else
; 273  : 				{	// climb looking for right subtree
; 274  : 				_Nodeptr _Pnode;
; 275  : 				while (!_Isnil(_Pnode = _Parent(_Ptr))
; 276  : 					&& _Ptr == _Right(_Pnode))

  0002f	8b 40 04	 mov	 eax, DWORD PTR [eax+4]
  00032	8a 50 21	 mov	 dl, BYTE PTR [eax+33]
  00035	84 d2		 test	 dl, dl
  00037	75 1a		 jne	 SHORT $L227316
  00039	8d a4 24 00 00
	00 00		 npad	 7
$L227315:
  00040	8b 11		 mov	 edx, DWORD PTR [ecx]
  00042	3b 50 08	 cmp	 edx, DWORD PTR [eax+8]
  00045	75 0c		 jne	 SHORT $L227316

; 277  : 					_Ptr = _Pnode;	// ==> parent while right subtree

  00047	89 01		 mov	 DWORD PTR [ecx], eax
  00049	8b 40 04	 mov	 eax, DWORD PTR [eax+4]
  0004c	8a 50 21	 mov	 dl, BYTE PTR [eax+33]
  0004f	84 d2		 test	 dl, dl
  00051	74 ed		 je	 SHORT $L227315
$L227316:

; 278  : 				_Ptr = _Pnode;	// ==> parent (head if end())

  00053	89 01		 mov	 DWORD PTR [ecx], eax
  00055	5b		 pop	 ebx
$L227312:

; 279  : 				}
; 280  : 			}

  00056	c3		 ret	 0
?_Inc@const_iterator@?$_Tree@V?$_Tmap_traits@KV?$vector@U_VECINFO@@V?$allocator@U_VECINFO@@@std@@@std@@U?$less@K@2@V?$allocator@U?$pair@$$CBKV?$vector@U_VECINFO@@V?$allocator@U_VECINFO@@@std@@@std@@@std@@@2@$0A@@std@@@std@@QAEXXZ ENDP ; std::_Tree<std::_Tmap_traits<unsigned long,std::vector<_VECINFO,std::allocator<_VECINFO> >,std::less<unsigned long>,std::allocator<std::pair<unsigned long const ,std::vector<_VECINFO,std::allocator<_VECINFO> > > >,0> >::const_iterator::_Inc
_TEXT	ENDS
PUBLIC	??$_Ptr_cat@PAUD3DXVECTOR3@@PAU1@@std@@YA?AU_Nonscalar_ptr_iterator_tag@0@AAPAUD3DXVECTOR3@@0@Z ; std::_Ptr_cat<D3DXVECTOR3 *,D3DXVECTOR3 *>
; Function compile flags: /Ogty
; File c:\program files\microsoft visual studio .net 2003\vc7\include\xutility
;	COMDAT ??$_Ptr_cat@PAUD3DXVECTOR3@@PAU1@@std@@YA?AU_Nonscalar_ptr_iterator_tag@0@AAPAUD3DXVECTOR3@@0@Z
_TEXT	SEGMENT
__Cat$ = -1						; size = 1
___formal$ = 8						; size = 4
___formal$ = 12						; size = 4
??$_Ptr_cat@PAUD3DXVECTOR3@@PAU1@@std@@YA?AU_Nonscalar_ptr_iterator_tag@0@AAPAUD3DXVECTOR3@@0@Z PROC NEAR ; std::_Ptr_cat<D3DXVECTOR3 *,D3DXVECTOR3 *>, COMDAT

; 211  : 	{	// return pointer category from arbitrary arguments

  00000	51		 push	 ecx

; 212  : 	_Nonscalar_ptr_iterator_tag _Cat;
; 213  : 	return (_Cat);

  00001	8a 44 24 03	 mov	 al, BYTE PTR __Cat$[esp+4]

; 214  : 	}

  00005	59		 pop	 ecx
  00006	c3		 ret	 0
??$_Ptr_cat@PAUD3DXVECTOR3@@PAU1@@std@@YA?AU_Nonscalar_ptr_iterator_tag@0@AAPAUD3DXVECTOR3@@0@Z ENDP ; std::_Ptr_cat<D3DXVECTOR3 *,D3DXVECTOR3 *>
_TEXT	ENDS
PUBLIC	??$fill@PAUD3DXVECTOR3@@U1@@std@@YAXPAUD3DXVECTOR3@@0ABU1@@Z ; std::fill<D3DXVECTOR3 *,D3DXVECTOR3>
; Function compile flags: /Ogty
;	COMDAT ??$fill@PAUD3DXVECTOR3@@U1@@std@@YAXPAUD3DXVECTOR3@@0ABU1@@Z
_TEXT	SEGMENT
__First$ = 8						; size = 4
__Last$ = 12						; size = 4
__Val$ = 16						; size = 4
??$fill@PAUD3DXVECTOR3@@U1@@std@@YAXPAUD3DXVECTOR3@@0ABU1@@Z PROC NEAR ; std::fill<D3DXVECTOR3 *,D3DXVECTOR3>, COMDAT

; 1135 : 	for (; _First != _Last; ++_First)

  00000	8b 44 24 04	 mov	 eax, DWORD PTR __First$[esp-4]
  00004	8b 4c 24 08	 mov	 ecx, DWORD PTR __Last$[esp-4]
  00008	3b c1		 cmp	 eax, ecx
  0000a	74 25		 je	 SHORT $L227801
  0000c	8b 54 24 0c	 mov	 edx, DWORD PTR __Val$[esp-4]
  00010	53		 push	 ebx
  00011	56		 push	 esi
  00012	57		 push	 edi
$L227799:

; 1136 : 		*_First = _Val;

  00013	8b f2		 mov	 esi, edx
  00015	8b 1e		 mov	 ebx, DWORD PTR [esi]
  00017	8b f8		 mov	 edi, eax
  00019	89 1f		 mov	 DWORD PTR [edi], ebx
  0001b	8b 5e 04	 mov	 ebx, DWORD PTR [esi+4]
  0001e	89 5f 04	 mov	 DWORD PTR [edi+4], ebx
  00021	8b 76 08	 mov	 esi, DWORD PTR [esi+8]
  00024	83 c0 0c	 add	 eax, 12			; 0000000cH
  00027	3b c1		 cmp	 eax, ecx
  00029	89 77 08	 mov	 DWORD PTR [edi+8], esi
  0002c	75 e5		 jne	 SHORT $L227799
  0002e	5f		 pop	 edi
  0002f	5e		 pop	 esi
  00030	5b		 pop	 ebx
$L227801:

; 1137 : 	}

  00031	c3		 ret	 0
??$fill@PAUD3DXVECTOR3@@U1@@std@@YAXPAUD3DXVECTOR3@@0ABU1@@Z ENDP ; std::fill<D3DXVECTOR3 *,D3DXVECTOR3>
_TEXT	ENDS
PUBLIC	??$_Destroy@PAU_Node@?$_Tree_nod@V?$_Tmap_traits@KV?$vector@U_VECINFO@@V?$allocator@U_VECINFO@@@std@@@std@@U?$less@K@2@V?$allocator@U?$pair@$$CBKV?$vector@U_VECINFO@@V?$allocator@U_VECINFO@@@std@@@std@@@std@@@2@$0A@@std@@@std@@@std@@YAXPAPAU_Node@?$_Tree_nod@V?$_Tmap_traits@KV?$vector@U_VECINFO@@V?$allocator@U_VECINFO@@@std@@@std@@U?$less@K@2@V?$allocator@U?$pair@$$CBKV?$vector@U_VECINFO@@V?$allocator@U_VECINFO@@@std@@@std@@@std@@@2@$0A@@std@@@0@@Z ; std::_Destroy<std::_Tree_nod<std::_Tmap_traits<unsigned long,std::vector<_VECINFO,std::allocator<_VECINFO> >,std::less<unsigned long>,std::allocator<std::pair<unsigned long const ,std::vector<_VECINFO,std::allocator<_VECINFO> > > >,0> >::_Node *>
; Function compile flags: /Ogty
; File c:\program files\microsoft visual studio .net 2003\vc7\include\xmemory
;	COMDAT ??$_Destroy@PAU_Node@?$_Tree_nod@V?$_Tmap_traits@KV?$vector@U_VECINFO@@V?$allocator@U_VECINFO@@@std@@@std@@U?$less@K@2@V?$allocator@U?$pair@$$CBKV?$vector@U_VECINFO@@V?$allocator@U_VECINFO@@@std@@@std@@@std@@@2@$0A@@std@@@std@@@std@@YAXPAPAU_Node@?$_Tree_nod@V?$_Tmap_traits@KV?$vector@U_VECINFO@@V?$allocator@U_VECINFO@@@std@@@std@@U?$less@K@2@V?$allocator@U?$pair@$$CBKV?$vector@U_VECINFO@@V?$allocator@U_VECINFO@@@std@@@std@@@std@@@2@$0A@@std@@@0@@Z
_TEXT	SEGMENT
__Ptr$ = 8						; size = 4
??$_Destroy@PAU_Node@?$_Tree_nod@V?$_Tmap_traits@KV?$vector@U_VECINFO@@V?$allocator@U_VECINFO@@@std@@@std@@U?$less@K@2@V?$allocator@U?$pair@$$CBKV?$vector@U_VECINFO@@V?$allocator@U_VECINFO@@@std@@@std@@@std@@@2@$0A@@std@@@std@@@std@@YAXPAPAU_Node@?$_Tree_nod@V?$_Tmap_traits@KV?$vector@U_VECINFO@@V?$allocator@U_VECINFO@@@std@@@std@@U?$less@K@2@V?$allocator@U?$pair@$$CBKV?$vector@U_VECINFO@@V?$allocator@U_VECINFO@@@std@@@std@@@std@@@2@$0A@@std@@@0@@Z PROC NEAR ; std::_Destroy<std::_Tree_nod<std::_Tmap_traits<unsigned long,std::vector<_VECINFO,std::allocator<_VECINFO> >,std::less<unsigned long>,std::allocator<std::pair<unsigned long const ,std::vector<_VECINFO,std::allocator<_VECINFO> > > >,0> >::_Node *>, COMDAT

; 49   : 	_DESTRUCTOR(_Ty, _Ptr);
; 50   : 	}

  00000	c3		 ret	 0
??$_Destroy@PAU_Node@?$_Tree_nod@V?$_Tmap_traits@KV?$vector@U_VECINFO@@V?$allocator@U_VECINFO@@@std@@@std@@U?$less@K@2@V?$allocator@U?$pair@$$CBKV?$vector@U_VECINFO@@V?$allocator@U_VECINFO@@@std@@@std@@@std@@@2@$0A@@std@@@std@@@std@@YAXPAPAU_Node@?$_Tree_nod@V?$_Tmap_traits@KV?$vector@U_VECINFO@@V?$allocator@U_VECINFO@@@std@@@std@@U?$less@K@2@V?$allocator@U?$pair@$$CBKV?$vector@U_VECINFO@@V?$allocator@U_VECINFO@@@std@@@std@@@std@@@2@$0A@@std@@@0@@Z ENDP ; std::_Destroy<std::_Tree_nod<std::_Tmap_traits<unsigned long,std::vector<_VECINFO,std::allocator<_VECINFO> >,std::less<unsigned long>,std::allocator<std::pair<unsigned long const ,std::vector<_VECINFO,std::allocator<_VECINFO> > > >,0> >::_Node *>
_TEXT	ENDS
PUBLIC	??$_Allocate@U_VECINFO@@@std@@YAPAU_VECINFO@@IPAU1@@Z ; std::_Allocate<_VECINFO>
EXTRN	??2@YAPAXI@Z:NEAR				; operator new
; Function compile flags: /Ogty
;	COMDAT ??$_Allocate@U_VECINFO@@@std@@YAPAU_VECINFO@@IPAU1@@Z
_TEXT	SEGMENT
__Count$ = 8						; size = 4
___formal$ = 12						; size = 4
??$_Allocate@U_VECINFO@@@std@@YAPAU_VECINFO@@IPAU1@@Z PROC NEAR ; std::_Allocate<_VECINFO>, COMDAT

; 34   : 	return ((_Ty _FARQ *)operator new(_Count * sizeof (_Ty)));

  00000	8b 44 24 04	 mov	 eax, DWORD PTR __Count$[esp-4]
  00004	6b c0 38	 imul	 eax, 56			; 00000038H
  00007	50		 push	 eax
  00008	e8 00 00 00 00	 call	 ??2@YAPAXI@Z		; operator new
  0000d	83 c4 04	 add	 esp, 4

; 35   : 	}

  00010	c3		 ret	 0
??$_Allocate@U_VECINFO@@@std@@YAPAU_VECINFO@@IPAU1@@Z ENDP ; std::_Allocate<_VECINFO>
_TEXT	ENDS
PUBLIC	??$?0U?$pair@$$CBKH@std@@@?$allocator@PAU_Node@?$_Tree_nod@V?$_Tmap_traits@KHU?$less@K@std@@V?$allocator@U?$pair@$$CBKH@std@@@2@$0A@@std@@@std@@@std@@QAE@ABV?$allocator@U?$pair@$$CBKH@std@@@1@@Z ; std::allocator<std::_Tree_nod<std::_Tmap_traits<unsigned long,int,std::less<unsigned long>,std::allocator<std::pair<unsigned long const ,int> >,0> >::_Node *>::allocator<std::_Tree_nod<std::_Tmap_traits<unsigned long,int,std::less<unsigned long>,std::allocator<std::pair<unsigned long const ,int> >,0> >::_Node *><std::pair<unsigned long const ,int> >
; Function compile flags: /Ogty
;	COMDAT ??$?0U?$pair@$$CBKH@std@@@?$allocator@PAU_Node@?$_Tree_nod@V?$_Tmap_traits@KHU?$less@K@std@@V?$allocator@U?$pair@$$CBKH@std@@@2@$0A@@std@@@std@@@std@@QAE@ABV?$allocator@U?$pair@$$CBKH@std@@@1@@Z
_TEXT	SEGMENT
___formal$ = 8						; size = 4
??$?0U?$pair@$$CBKH@std@@@?$allocator@PAU_Node@?$_Tree_nod@V?$_Tmap_traits@KHU?$less@K@std@@V?$allocator@U?$pair@$$CBKH@std@@@2@$0A@@std@@@std@@@std@@QAE@ABV?$allocator@U?$pair@$$CBKH@std@@@1@@Z PROC NEAR ; std::allocator<std::_Tree_nod<std::_Tmap_traits<unsigned long,int,std::less<unsigned long>,std::allocator<std::pair<unsigned long const ,int> >,0> >::_Node *>::allocator<std::_Tree_nod<std::_Tmap_traits<unsigned long,int,std::less<unsigned long>,std::allocator<std::pair<unsigned long const ,int> >,0> >::_Node *><std::pair<unsigned long const ,int> >, COMDAT
; _this$ = ecx

; 120  : 		allocator(const allocator<_Other>&)

  00000	8b c1		 mov	 eax, ecx

; 121  : 		{	// construct from a related allocator (do nothing)
; 122  : 		}

  00002	c2 04 00	 ret	 4
??$?0U?$pair@$$CBKH@std@@@?$allocator@PAU_Node@?$_Tree_nod@V?$_Tmap_traits@KHU?$less@K@std@@V?$allocator@U?$pair@$$CBKH@std@@@2@$0A@@std@@@std@@@std@@QAE@ABV?$allocator@U?$pair@$$CBKH@std@@@1@@Z ENDP ; std::allocator<std::_Tree_nod<std::_Tmap_traits<unsigned long,int,std::less<unsigned long>,std::allocator<std::pair<unsigned long const ,int> >,0> >::_Node *>::allocator<std::_Tree_nod<std::_Tmap_traits<unsigned long,int,std::less<unsigned long>,std::allocator<std::pair<unsigned long const ,int> >,0> >::_Node *><std::pair<unsigned long const ,int> >
_TEXT	ENDS
PUBLIC	??$?0U?$pair@$$CBKV?$vector@U_VECINFO@@V?$allocator@U_VECINFO@@@std@@@std@@@std@@@?$allocator@PAU_Node@?$_Tree_nod@V?$_Tmap_traits@KV?$vector@U_VECINFO@@V?$allocator@U_VECINFO@@@std@@@std@@U?$less@K@2@V?$allocator@U?$pair@$$CBKV?$vector@U_VECINFO@@V?$allocator@U_VECINFO@@@std@@@std@@@std@@@2@$0A@@std@@@std@@@std@@QAE@ABV?$allocator@U?$pair@$$CBKV?$vector@U_VECINFO@@V?$allocator@U_VECINFO@@@std@@@std@@@std@@@1@@Z ; std::allocator<std::_Tree_nod<std::_Tmap_traits<unsigned long,std::vector<_VECINFO,std::allocator<_VECINFO> >,std::less<unsigned long>,std::allocator<std::pair<unsigned long const ,std::vector<_VECINFO,std::allocator<_VECINFO> > > >,0> >::_Node *>::allocator<std::_Tree_nod<std::_Tmap_traits<unsigned long,std::vector<_VECINFO,std::allocator<_VECINFO> >,std::less<unsigned long>,std::allocator<std::pair<unsigned long const ,std::vector<_VECINFO,std::allocator<_VECINFO> > > >,0> >::_Node *><std::pair<unsigned long const ,std::vector<_VECINFO,std::allocator<_VECINFO> > > >
; Function compile flags: /Ogty
;	COMDAT ??$?0U?$pair@$$CBKV?$vector@U_VECINFO@@V?$allocator@U_VECINFO@@@std@@@std@@@std@@@?$allocator@PAU_Node@?$_Tree_nod@V?$_Tmap_traits@KV?$vector@U_VECINFO@@V?$allocator@U_VECINFO@@@std@@@std@@U?$less@K@2@V?$allocator@U?$pair@$$CBKV?$vector@U_VECINFO@@V?$allocator@U_VECINFO@@@std@@@std@@@std@@@2@$0A@@std@@@std@@@std@@QAE@ABV?$allocator@U?$pair@$$CBKV?$vector@U_VECINFO@@V?$allocator@U_VECINFO@@@std@@@std@@@std@@@1@@Z
_TEXT	SEGMENT
___formal$ = 8						; size = 4
??$?0U?$pair@$$CBKV?$vector@U_VECINFO@@V?$allocator@U_VECINFO@@@std@@@std@@@std@@@?$allocator@PAU_Node@?$_Tree_nod@V?$_Tmap_traits@KV?$vector@U_VECINFO@@V?$allocator@U_VECINFO@@@std@@@std@@U?$less@K@2@V?$allocator@U?$pair@$$CBKV?$vector@U_VECINFO@@V?$allocator@U_VECINFO@@@std@@@std@@@std@@@2@$0A@@std@@@std@@@std@@QAE@ABV?$allocator@U?$pair@$$CBKV?$vector@U_VECINFO@@V?$allocator@U_VECINFO@@@std@@@std@@@std@@@1@@Z PROC NEAR ; std::allocator<std::_Tree_nod<std::_Tmap_traits<unsigned long,std::vector<_VECINFO,std::allocator<_VECINFO> >,std::less<unsigned long>,std::allocator<std::pair<unsigned long const ,std::vector<_VECINFO,std::allocator<_VECINFO> > > >,0> >::_Node *>::allocator<std::_Tree_nod<std::_Tmap_traits<unsigned long,std::vector<_VECINFO,std::allocator<_VECINFO> >,std::less<unsigned long>,std::allocator<std::pair<unsigned long const ,std::vector<_VECINFO,std::allocator<_VECINFO> > > >,0> >::_Node *><std::pair<unsigned long const ,std::vector<_VECINFO,std::allocator<_VECINFO> > > >, COMDAT
; _this$ = ecx

; 120  : 		allocator(const allocator<_Other>&)

  00000	8b c1		 mov	 eax, ecx

; 121  : 		{	// construct from a related allocator (do nothing)
; 122  : 		}

  00002	c2 04 00	 ret	 4
??$?0U?$pair@$$CBKV?$vector@U_VECINFO@@V?$allocator@U_VECINFO@@@std@@@std@@@std@@@?$allocator@PAU_Node@?$_Tree_nod@V?$_Tmap_traits@KV?$vector@U_VECINFO@@V?$allocator@U_VECINFO@@@std@@@std@@U?$less@K@2@V?$allocator@U?$pair@$$CBKV?$vector@U_VECINFO@@V?$allocator@U_VECINFO@@@std@@@std@@@std@@@2@$0A@@std@@@std@@@std@@QAE@ABV?$allocator@U?$pair@$$CBKV?$vector@U_VECINFO@@V?$allocator@U_VECINFO@@@std@@@std@@@std@@@1@@Z ENDP ; std::allocator<std::_Tree_nod<std::_Tmap_traits<unsigned long,std::vector<_VECINFO,std::allocator<_VECINFO> >,std::less<unsigned long>,std::allocator<std::pair<unsigned long const ,std::vector<_VECINFO,std::allocator<_VECINFO> > > >,0> >::_Node *>::allocator<std::_Tree_nod<std::_Tmap_traits<unsigned long,std::vector<_VECINFO,std::allocator<_VECINFO> >,std::less<unsigned long>,std::allocator<std::pair<unsigned long const ,std::vector<_VECINFO,std::allocator<_VECINFO> > > >,0> >::_Node *><std::pair<unsigned long const ,std::vector<_VECINFO,std::allocator<_VECINFO> > > >
_TEXT	ENDS
PUBLIC	??$_Allocate@U_Node@?$_Tree_nod@V?$_Tmap_traits@KV?$vector@U_VECINFO@@V?$allocator@U_VECINFO@@@std@@@std@@U?$less@K@2@V?$allocator@U?$pair@$$CBKV?$vector@U_VECINFO@@V?$allocator@U_VECINFO@@@std@@@std@@@std@@@2@$0A@@std@@@std@@@std@@YAPAU_Node@?$_Tree_nod@V?$_Tmap_traits@KV?$vector@U_VECINFO@@V?$allocator@U_VECINFO@@@std@@@std@@U?$less@K@2@V?$allocator@U?$pair@$$CBKV?$vector@U_VECINFO@@V?$allocator@U_VECINFO@@@std@@@std@@@std@@@2@$0A@@std@@@0@IPAU120@@Z ; std::_Allocate<std::_Tree_nod<std::_Tmap_traits<unsigned long,std::vector<_VECINFO,std::allocator<_VECINFO> >,std::less<unsigned long>,std::allocator<std::pair<unsigned long const ,std::vector<_VECINFO,std::allocator<_VECINFO> > > >,0> >::_Node>
; Function compile flags: /Ogty
;	COMDAT ??$_Allocate@U_Node@?$_Tree_nod@V?$_Tmap_traits@KV?$vector@U_VECINFO@@V?$allocator@U_VECINFO@@@std@@@std@@U?$less@K@2@V?$allocator@U?$pair@$$CBKV?$vector@U_VECINFO@@V?$allocator@U_VECINFO@@@std@@@std@@@std@@@2@$0A@@std@@@std@@@std@@YAPAU_Node@?$_Tree_nod@V?$_Tmap_traits@KV?$vector@U_VECINFO@@V?$allocator@U_VECINFO@@@std@@@std@@U?$less@K@2@V?$allocator@U?$pair@$$CBKV?$vector@U_VECINFO@@V?$allocator@U_VECINFO@@@std@@@std@@@std@@@2@$0A@@std@@@0@IPAU120@@Z
_TEXT	SEGMENT
__Count$ = 8						; size = 4
___formal$ = 12						; size = 4
??$_Allocate@U_Node@?$_Tree_nod@V?$_Tmap_traits@KV?$vector@U_VECINFO@@V?$allocator@U_VECINFO@@@std@@@std@@U?$less@K@2@V?$allocator@U?$pair@$$CBKV?$vector@U_VECINFO@@V?$allocator@U_VECINFO@@@std@@@std@@@std@@@2@$0A@@std@@@std@@@std@@YAPAU_Node@?$_Tree_nod@V?$_Tmap_traits@KV?$vector@U_VECINFO@@V?$allocator@U_VECINFO@@@std@@@std@@U?$less@K@2@V?$allocator@U?$pair@$$CBKV?$vector@U_VECINFO@@V?$allocator@U_VECINFO@@@std@@@std@@@std@@@2@$0A@@std@@@0@IPAU120@@Z PROC NEAR ; std::_Allocate<std::_Tree_nod<std::_Tmap_traits<unsigned long,std::vector<_VECINFO,std::allocator<_VECINFO> >,std::less<unsigned long>,std::allocator<std::pair<unsigned long const ,std::vector<_VECINFO,std::allocator<_VECINFO> > > >,0> >::_Node>, COMDAT

; 34   : 	return ((_Ty _FARQ *)operator new(_Count * sizeof (_Ty)));

  00000	8b 44 24 04	 mov	 eax, DWORD PTR __Count$[esp-4]
  00004	8d 04 c0	 lea	 eax, DWORD PTR [eax+eax*8]
  00007	c1 e0 02	 shl	 eax, 2
  0000a	50		 push	 eax
  0000b	e8 00 00 00 00	 call	 ??2@YAPAXI@Z		; operator new
  00010	83 c4 04	 add	 esp, 4

; 35   : 	}

  00013	c3		 ret	 0
??$_Allocate@U_Node@?$_Tree_nod@V?$_Tmap_traits@KV?$vector@U_VECINFO@@V?$allocator@U_VECINFO@@@std@@@std@@U?$less@K@2@V?$allocator@U?$pair@$$CBKV?$vector@U_VECINFO@@V?$allocator@U_VECINFO@@@std@@@std@@@std@@@2@$0A@@std@@@std@@@std@@YAPAU_Node@?$_Tree_nod@V?$_Tmap_traits@KV?$vector@U_VECINFO@@V?$allocator@U_VECINFO@@@std@@@std@@U?$less@K@2@V?$allocator@U?$pair@$$CBKV?$vector@U_VECINFO@@V?$allocator@U_VECINFO@@@std@@@std@@@std@@@2@$0A@@std@@@0@IPAU120@@Z ENDP ; std::_Allocate<std::_Tree_nod<std::_Tmap_traits<unsigned long,std::vector<_VECINFO,std::allocator<_VECINFO> >,std::less<unsigned long>,std::allocator<std::pair<unsigned long const ,std::vector<_VECINFO,std::allocator<_VECINFO> > > >,0> >::_Node>
_TEXT	ENDS
PUBLIC	??$?0U?$pair@$$CBKH@std@@@?$allocator@U_Node@?$_Tree_nod@V?$_Tmap_traits@KHU?$less@K@std@@V?$allocator@U?$pair@$$CBKH@std@@@2@$0A@@std@@@std@@@std@@QAE@ABV?$allocator@U?$pair@$$CBKH@std@@@1@@Z ; std::allocator<std::_Tree_nod<std::_Tmap_traits<unsigned long,int,std::less<unsigned long>,std::allocator<std::pair<unsigned long const ,int> >,0> >::_Node>::allocator<std::_Tree_nod<std::_Tmap_traits<unsigned long,int,std::less<unsigned long>,std::allocator<std::pair<unsigned long const ,int> >,0> >::_Node><std::pair<unsigned long const ,int> >
; Function compile flags: /Ogty
;	COMDAT ??$?0U?$pair@$$CBKH@std@@@?$allocator@U_Node@?$_Tree_nod@V?$_Tmap_traits@KHU?$less@K@std@@V?$allocator@U?$pair@$$CBKH@std@@@2@$0A@@std@@@std@@@std@@QAE@ABV?$allocator@U?$pair@$$CBKH@std@@@1@@Z
_TEXT	SEGMENT
___formal$ = 8						; size = 4
??$?0U?$pair@$$CBKH@std@@@?$allocator@U_Node@?$_Tree_nod@V?$_Tmap_traits@KHU?$less@K@std@@V?$allocator@U?$pair@$$CBKH@std@@@2@$0A@@std@@@std@@@std@@QAE@ABV?$allocator@U?$pair@$$CBKH@std@@@1@@Z PROC NEAR ; std::allocator<std::_Tree_nod<std::_Tmap_traits<unsigned long,int,std::less<unsigned long>,std::allocator<std::pair<unsigned long const ,int> >,0> >::_Node>::allocator<std::_Tree_nod<std::_Tmap_traits<unsigned long,int,std::less<unsigned long>,std::allocator<std::pair<unsigned long const ,int> >,0> >::_Node><std::pair<unsigned long const ,int> >, COMDAT
; _this$ = ecx

; 120  : 		allocator(const allocator<_Other>&)

  00000	8b c1		 mov	 eax, ecx

; 121  : 		{	// construct from a related allocator (do nothing)
; 122  : 		}

  00002	c2 04 00	 ret	 4
??$?0U?$pair@$$CBKH@std@@@?$allocator@U_Node@?$_Tree_nod@V?$_Tmap_traits@KHU?$less@K@std@@V?$allocator@U?$pair@$$CBKH@std@@@2@$0A@@std@@@std@@@std@@QAE@ABV?$allocator@U?$pair@$$CBKH@std@@@1@@Z ENDP ; std::allocator<std::_Tree_nod<std::_Tmap_traits<unsigned long,int,std::less<unsigned long>,std::allocator<std::pair<unsigned long const ,int> >,0> >::_Node>::allocator<std::_Tree_nod<std::_Tmap_traits<unsigned long,int,std::less<unsigned long>,std::allocator<std::pair<unsigned long const ,int> >,0> >::_Node><std::pair<unsigned long const ,int> >
_TEXT	ENDS
PUBLIC	??$_Allocate@U_Node@?$_Tree_nod@V?$_Tmap_traits@KHU?$less@K@std@@V?$allocator@U?$pair@$$CBKH@std@@@2@$0A@@std@@@std@@@std@@YAPAU_Node@?$_Tree_nod@V?$_Tmap_traits@KHU?$less@K@std@@V?$allocator@U?$pair@$$CBKH@std@@@2@$0A@@std@@@0@IPAU120@@Z ; std::_Allocate<std::_Tree_nod<std::_Tmap_traits<unsigned long,int,std::less<unsigned long>,std::allocator<std::pair<unsigned long const ,int> >,0> >::_Node>
; Function compile flags: /Ogty
;	COMDAT ??$_Allocate@U_Node@?$_Tree_nod@V?$_Tmap_traits@KHU?$less@K@std@@V?$allocator@U?$pair@$$CBKH@std@@@2@$0A@@std@@@std@@@std@@YAPAU_Node@?$_Tree_nod@V?$_Tmap_traits@KHU?$less@K@std@@V?$allocator@U?$pair@$$CBKH@std@@@2@$0A@@std@@@0@IPAU120@@Z
_TEXT	SEGMENT
__Count$ = 8						; size = 4
___formal$ = 12						; size = 4
??$_Allocate@U_Node@?$_Tree_nod@V?$_Tmap_traits@KHU?$less@K@std@@V?$allocator@U?$pair@$$CBKH@std@@@2@$0A@@std@@@std@@@std@@YAPAU_Node@?$_Tree_nod@V?$_Tmap_traits@KHU?$less@K@std@@V?$allocator@U?$pair@$$CBKH@std@@@2@$0A@@std@@@0@IPAU120@@Z PROC NEAR ; std::_Allocate<std::_Tree_nod<std::_Tmap_traits<unsigned long,int,std::less<unsigned long>,std::allocator<std::pair<unsigned long const ,int> >,0> >::_Node>, COMDAT

; 34   : 	return ((_Ty _FARQ *)operator new(_Count * sizeof (_Ty)));

  00000	8b 44 24 04	 mov	 eax, DWORD PTR __Count$[esp-4]
  00004	8d 04 40	 lea	 eax, DWORD PTR [eax+eax*2]
  00007	c1 e0 03	 shl	 eax, 3
  0000a	50		 push	 eax
  0000b	e8 00 00 00 00	 call	 ??2@YAPAXI@Z		; operator new
  00010	83 c4 04	 add	 esp, 4

; 35   : 	}

  00013	c3		 ret	 0
??$_Allocate@U_Node@?$_Tree_nod@V?$_Tmap_traits@KHU?$less@K@std@@V?$allocator@U?$pair@$$CBKH@std@@@2@$0A@@std@@@std@@@std@@YAPAU_Node@?$_Tree_nod@V?$_Tmap_traits@KHU?$less@K@std@@V?$allocator@U?$pair@$$CBKH@std@@@2@$0A@@std@@@0@IPAU120@@Z ENDP ; std::_Allocate<std::_Tree_nod<std::_Tmap_traits<unsigned long,int,std::less<unsigned long>,std::allocator<std::pair<unsigned long const ,int> >,0> >::_Node>
_TEXT	ENDS
PUBLIC	??$_Construct@PAU_Node@?$_Tree_nod@V?$_Tmap_traits@KHU?$less@K@std@@V?$allocator@U?$pair@$$CBKH@std@@@2@$0A@@std@@@std@@PAU123@@std@@YAXPAPAU_Node@?$_Tree_nod@V?$_Tmap_traits@KHU?$less@K@std@@V?$allocator@U?$pair@$$CBKH@std@@@2@$0A@@std@@@0@ABQAU120@@Z ; std::_Construct<std::_Tree_nod<std::_Tmap_traits<unsigned long,int,std::less<unsigned long>,std::allocator<std::pair<unsigned long const ,int> >,0> >::_Node *,std::_Tree_nod<std::_Tmap_traits<unsigned long,int,std::less<unsigned long>,std::allocator<std::pair<unsigned long const ,int> >,0> >::_Node *>
; Function compile flags: /Ogty
;	COMDAT ??$_Construct@PAU_Node@?$_Tree_nod@V?$_Tmap_traits@KHU?$less@K@std@@V?$allocator@U?$pair@$$CBKH@std@@@2@$0A@@std@@@std@@PAU123@@std@@YAXPAPAU_Node@?$_Tree_nod@V?$_Tmap_traits@KHU?$less@K@std@@V?$allocator@U?$pair@$$CBKH@std@@@2@$0A@@std@@@0@ABQAU120@@Z
_TEXT	SEGMENT
__Ptr$ = 8						; size = 4
__Val$ = 12						; size = 4
??$_Construct@PAU_Node@?$_Tree_nod@V?$_Tmap_traits@KHU?$less@K@std@@V?$allocator@U?$pair@$$CBKH@std@@@2@$0A@@std@@@std@@PAU123@@std@@YAXPAPAU_Node@?$_Tree_nod@V?$_Tmap_traits@KHU?$less@K@std@@V?$allocator@U?$pair@$$CBKH@std@@@2@$0A@@std@@@0@ABQAU120@@Z PROC NEAR ; std::_Construct<std::_Tree_nod<std::_Tmap_traits<unsigned long,int,std::less<unsigned long>,std::allocator<std::pair<unsigned long const ,int> >,0> >::_Node *,std::_Tree_nod<std::_Tmap_traits<unsigned long,int,std::less<unsigned long>,std::allocator<std::pair<unsigned long const ,int> >,0> >::_Node *>, COMDAT

; 42   : 	new ((void _FARQ *)_Ptr) _T1(_Val);

  00000	8b 44 24 04	 mov	 eax, DWORD PTR __Ptr$[esp-4]
  00004	85 c0		 test	 eax, eax
  00006	74 08		 je	 SHORT $L229406
  00008	8b 4c 24 08	 mov	 ecx, DWORD PTR __Val$[esp-4]
  0000c	8b 11		 mov	 edx, DWORD PTR [ecx]
  0000e	89 10		 mov	 DWORD PTR [eax], edx
$L229406:

; 43   : 	}

  00010	c3		 ret	 0
??$_Construct@PAU_Node@?$_Tree_nod@V?$_Tmap_traits@KHU?$less@K@std@@V?$allocator@U?$pair@$$CBKH@std@@@2@$0A@@std@@@std@@PAU123@@std@@YAXPAPAU_Node@?$_Tree_nod@V?$_Tmap_traits@KHU?$less@K@std@@V?$allocator@U?$pair@$$CBKH@std@@@2@$0A@@std@@@0@ABQAU120@@Z ENDP ; std::_Construct<std::_Tree_nod<std::_Tmap_traits<unsigned long,int,std::less<unsigned long>,std::allocator<std::pair<unsigned long const ,int> >,0> >::_Node *,std::_Tree_nod<std::_Tmap_traits<unsigned long,int,std::less<unsigned long>,std::allocator<std::pair<unsigned long const ,int> >,0> >::_Node *>
_TEXT	ENDS
PUBLIC	??$?0U?$pair@$$CBKV?$vector@U_VECINFO@@V?$allocator@U_VECINFO@@@std@@@std@@@std@@@?$allocator@U_Node@?$_Tree_nod@V?$_Tmap_traits@KV?$vector@U_VECINFO@@V?$allocator@U_VECINFO@@@std@@@std@@U?$less@K@2@V?$allocator@U?$pair@$$CBKV?$vector@U_VECINFO@@V?$allocator@U_VECINFO@@@std@@@std@@@std@@@2@$0A@@std@@@std@@@std@@QAE@ABV?$allocator@U?$pair@$$CBKV?$vector@U_VECINFO@@V?$allocator@U_VECINFO@@@std@@@std@@@std@@@1@@Z ; std::allocator<std::_Tree_nod<std::_Tmap_traits<unsigned long,std::vector<_VECINFO,std::allocator<_VECINFO> >,std::less<unsigned long>,std::allocator<std::pair<unsigned long const ,std::vector<_VECINFO,std::allocator<_VECINFO> > > >,0> >::_Node>::allocator<std::_Tree_nod<std::_Tmap_traits<unsigned long,std::vector<_VECINFO,std::allocator<_VECINFO> >,std::less<unsigned long>,std::allocator<std::pair<unsigned long const ,std::vector<_VECINFO,std::allocator<_VECINFO> > > >,0> >::_Node><std::pair<unsigned long const ,std::vector<_VECINFO,std::allocator<_VECINFO> > > >
; Function compile flags: /Ogty
;	COMDAT ??$?0U?$pair@$$CBKV?$vector@U_VECINFO@@V?$allocator@U_VECINFO@@@std@@@std@@@std@@@?$allocator@U_Node@?$_Tree_nod@V?$_Tmap_traits@KV?$vector@U_VECINFO@@V?$allocator@U_VECINFO@@@std@@@std@@U?$less@K@2@V?$allocator@U?$pair@$$CBKV?$vector@U_VECINFO@@V?$allocator@U_VECINFO@@@std@@@std@@@std@@@2@$0A@@std@@@std@@@std@@QAE@ABV?$allocator@U?$pair@$$CBKV?$vector@U_VECINFO@@V?$allocator@U_VECINFO@@@std@@@std@@@std@@@1@@Z
_TEXT	SEGMENT
___formal$ = 8						; size = 4
??$?0U?$pair@$$CBKV?$vector@U_VECINFO@@V?$allocator@U_VECINFO@@@std@@@std@@@std@@@?$allocator@U_Node@?$_Tree_nod@V?$_Tmap_traits@KV?$vector@U_VECINFO@@V?$allocator@U_VECINFO@@@std@@@std@@U?$less@K@2@V?$allocator@U?$pair@$$CBKV?$vector@U_VECINFO@@V?$allocator@U_VECINFO@@@std@@@std@@@std@@@2@$0A@@std@@@std@@@std@@QAE@ABV?$allocator@U?$pair@$$CBKV?$vector@U_VECINFO@@V?$allocator@U_VECINFO@@@std@@@std@@@std@@@1@@Z PROC NEAR ; std::allocator<std::_Tree_nod<std::_Tmap_traits<unsigned long,std::vector<_VECINFO,std::allocator<_VECINFO> >,std::less<unsigned long>,std::allocator<std::pair<unsigned long const ,std::vector<_VECINFO,std::allocator<_VECINFO> > > >,0> >::_Node>::allocator<std::_Tree_nod<std::_Tmap_traits<unsigned long,std::vector<_VECINFO,std::allocator<_VECINFO> >,std::less<unsigned long>,std::allocator<std::pair<unsigned long const ,std::vector<_VECINFO,std::allocator<_VECINFO> > > >,0> >::_Node><std::pair<unsigned long const ,std::vector<_VECINFO,std::allocator<_VECINFO> > > >, COMDAT
; _this$ = ecx

; 120  : 		allocator(const allocator<_Other>&)

  00000	8b c1		 mov	 eax, ecx

; 121  : 		{	// construct from a related allocator (do nothing)
; 122  : 		}

  00002	c2 04 00	 ret	 4
??$?0U?$pair@$$CBKV?$vector@U_VECINFO@@V?$allocator@U_VECINFO@@@std@@@std@@@std@@@?$allocator@U_Node@?$_Tree_nod@V?$_Tmap_traits@KV?$vector@U_VECINFO@@V?$allocator@U_VECINFO@@@std@@@std@@U?$less@K@2@V?$allocator@U?$pair@$$CBKV?$vector@U_VECINFO@@V?$allocator@U_VECINFO@@@std@@@std@@@std@@@2@$0A@@std@@@std@@@std@@QAE@ABV?$allocator@U?$pair@$$CBKV?$vector@U_VECINFO@@V?$allocator@U_VECINFO@@@std@@@std@@@std@@@1@@Z ENDP ; std::allocator<std::_Tree_nod<std::_Tmap_traits<unsigned long,std::vector<_VECINFO,std::allocator<_VECINFO> >,std::less<unsigned long>,std::allocator<std::pair<unsigned long const ,std::vector<_VECINFO,std::allocator<_VECINFO> > > >,0> >::_Node>::allocator<std::_Tree_nod<std::_Tmap_traits<unsigned long,std::vector<_VECINFO,std::allocator<_VECINFO> >,std::less<unsigned long>,std::allocator<std::pair<unsigned long const ,std::vector<_VECINFO,std::allocator<_VECINFO> > > >,0> >::_Node><std::pair<unsigned long const ,std::vector<_VECINFO,std::allocator<_VECINFO> > > >
_TEXT	ENDS
PUBLIC	??$_Construct@PAU_Node@?$_Tree_nod@V?$_Tmap_traits@KV?$vector@U_VECINFO@@V?$allocator@U_VECINFO@@@std@@@std@@U?$less@K@2@V?$allocator@U?$pair@$$CBKV?$vector@U_VECINFO@@V?$allocator@U_VECINFO@@@std@@@std@@@std@@@2@$0A@@std@@@std@@PAU123@@std@@YAXPAPAU_Node@?$_Tree_nod@V?$_Tmap_traits@KV?$vector@U_VECINFO@@V?$allocator@U_VECINFO@@@std@@@std@@U?$less@K@2@V?$allocator@U?$pair@$$CBKV?$vector@U_VECINFO@@V?$allocator@U_VECINFO@@@std@@@std@@@std@@@2@$0A@@std@@@0@ABQAU120@@Z ; std::_Construct<std::_Tree_nod<std::_Tmap_traits<unsigned long,std::vector<_VECINFO,std::allocator<_VECINFO> >,std::less<unsigned long>,std::allocator<std::pair<unsigned long const ,std::vector<_VECINFO,std::allocator<_VECINFO> > > >,0> >::_Node *,std::_Tree_nod<std::_Tmap_traits<unsigned long,std::vector<_VECINFO,std::allocator<_VECINFO> >,std::less<unsigned long>,std::allocator<std::pair<unsigned long const ,std::vector<_VECINFO,std::allocator<_VECINFO> > > >,0> >::_Node *>
; Function compile flags: /Ogty
;	COMDAT ??$_Construct@PAU_Node@?$_Tree_nod@V?$_Tmap_traits@KV?$vector@U_VECINFO@@V?$allocator@U_VECINFO@@@std@@@std@@U?$less@K@2@V?$allocator@U?$pair@$$CBKV?$vector@U_VECINFO@@V?$allocator@U_VECINFO@@@std@@@std@@@std@@@2@$0A@@std@@@std@@PAU123@@std@@YAXPAPAU_Node@?$_Tree_nod@V?$_Tmap_traits@KV?$vector@U_VECINFO@@V?$allocator@U_VECINFO@@@std@@@std@@U?$less@K@2@V?$allocator@U?$pair@$$CBKV?$vector@U_VECINFO@@V?$allocator@U_VECINFO@@@std@@@std@@@std@@@2@$0A@@std@@@0@ABQAU120@@Z
_TEXT	SEGMENT
__Ptr$ = 8						; size = 4
__Val$ = 12						; size = 4
??$_Construct@PAU_Node@?$_Tree_nod@V?$_Tmap_traits@KV?$vector@U_VECINFO@@V?$allocator@U_VECINFO@@@std@@@std@@U?$less@K@2@V?$allocator@U?$pair@$$CBKV?$vector@U_VECINFO@@V?$allocator@U_VECINFO@@@std@@@std@@@std@@@2@$0A@@std@@@std@@PAU123@@std@@YAXPAPAU_Node@?$_Tree_nod@V?$_Tmap_traits@KV?$vector@U_VECINFO@@V?$allocator@U_VECINFO@@@std@@@std@@U?$less@K@2@V?$allocator@U?$pair@$$CBKV?$vector@U_VECINFO@@V?$allocator@U_VECINFO@@@std@@@std@@@std@@@2@$0A@@std@@@0@ABQAU120@@Z PROC NEAR ; std::_Construct<std::_Tree_nod<std::_Tmap_traits<unsigned long,std::vector<_VECINFO,std::allocator<_VECINFO> >,std::less<unsigned long>,std::allocator<std::pair<unsigned long const ,std::vector<_VECINFO,std::allocator<_VECINFO> > > >,0> >::_Node *,std::_Tree_nod<std::_Tmap_traits<unsigned long,std::vector<_VECINFO,std::allocator<_VECINFO> >,std::less<unsigned long>,std::allocator<std::pair<unsigned long const ,std::vector<_VECINFO,std::allocator<_VECINFO> > > >,0> >::_Node *>, COMDAT

; 42   : 	new ((void _FARQ *)_Ptr) _T1(_Val);

  00000	8b 44 24 04	 mov	 eax, DWORD PTR __Ptr$[esp-4]
  00004	85 c0		 test	 eax, eax
  00006	74 08		 je	 SHORT $L229418
  00008	8b 4c 24 08	 mov	 ecx, DWORD PTR __Val$[esp-4]
  0000c	8b 11		 mov	 edx, DWORD PTR [ecx]
  0000e	89 10		 mov	 DWORD PTR [eax], edx
$L229418:

; 43   : 	}

  00010	c3		 ret	 0
??$_Construct@PAU_Node@?$_Tree_nod@V?$_Tmap_traits@KV?$vector@U_VECINFO@@V?$allocator@U_VECINFO@@@std@@@std@@U?$less@K@2@V?$allocator@U?$pair@$$CBKV?$vector@U_VECINFO@@V?$allocator@U_VECINFO@@@std@@@std@@@std@@@2@$0A@@std@@@std@@PAU123@@std@@YAXPAPAU_Node@?$_Tree_nod@V?$_Tmap_traits@KV?$vector@U_VECINFO@@V?$allocator@U_VECINFO@@@std@@@std@@U?$less@K@2@V?$allocator@U?$pair@$$CBKV?$vector@U_VECINFO@@V?$allocator@U_VECINFO@@@std@@@std@@@std@@@2@$0A@@std@@@0@ABQAU120@@Z ENDP ; std::_Construct<std::_Tree_nod<std::_Tmap_traits<unsigned long,std::vector<_VECINFO,std::allocator<_VECINFO> >,std::less<unsigned long>,std::allocator<std::pair<unsigned long const ,std::vector<_VECINFO,std::allocator<_VECINFO> > > >,0> >::_Node *,std::_Tree_nod<std::_Tmap_traits<unsigned long,std::vector<_VECINFO,std::allocator<_VECINFO> >,std::less<unsigned long>,std::allocator<std::pair<unsigned long const ,std::vector<_VECINFO,std::allocator<_VECINFO> > > >,0> >::_Node *>
_TEXT	ENDS
PUBLIC	??$_Ptr_cat@PAU_VECINFO@@PAU1@@std@@YA?AU_Nonscalar_ptr_iterator_tag@0@AAPAU_VECINFO@@0@Z ; std::_Ptr_cat<_VECINFO *,_VECINFO *>
; Function compile flags: /Ogty
; File c:\program files\microsoft visual studio .net 2003\vc7\include\xutility
;	COMDAT ??$_Ptr_cat@PAU_VECINFO@@PAU1@@std@@YA?AU_Nonscalar_ptr_iterator_tag@0@AAPAU_VECINFO@@0@Z
_TEXT	SEGMENT
__Cat$ = -1						; size = 1
___formal$ = 8						; size = 4
___formal$ = 12						; size = 4
??$_Ptr_cat@PAU_VECINFO@@PAU1@@std@@YA?AU_Nonscalar_ptr_iterator_tag@0@AAPAU_VECINFO@@0@Z PROC NEAR ; std::_Ptr_cat<_VECINFO *,_VECINFO *>, COMDAT

; 211  : 	{	// return pointer category from arbitrary arguments

  00000	51		 push	 ecx

; 212  : 	_Nonscalar_ptr_iterator_tag _Cat;
; 213  : 	return (_Cat);

  00001	8a 44 24 03	 mov	 al, BYTE PTR __Cat$[esp+4]

; 214  : 	}

  00005	59		 pop	 ecx
  00006	c3		 ret	 0
??$_Ptr_cat@PAU_VECINFO@@PAU1@@std@@YA?AU_Nonscalar_ptr_iterator_tag@0@AAPAU_VECINFO@@0@Z ENDP ; std::_Ptr_cat<_VECINFO *,_VECINFO *>
_TEXT	ENDS
PUBLIC	??$_Copy_backward_opt@PAUD3DXVECTOR3@@PAU1@@std@@YAPAUD3DXVECTOR3@@PAU1@00U_Nonscalar_ptr_iterator_tag@0@@Z ; std::_Copy_backward_opt<D3DXVECTOR3 *,D3DXVECTOR3 *>
; Function compile flags: /Ogty
;	COMDAT ??$_Copy_backward_opt@PAUD3DXVECTOR3@@PAU1@@std@@YAPAUD3DXVECTOR3@@PAU1@00U_Nonscalar_ptr_iterator_tag@0@@Z
_TEXT	SEGMENT
__First$ = 8						; size = 4
__Last$ = 12						; size = 4
__Dest$ = 16						; size = 4
___formal$ = 20						; size = 1
??$_Copy_backward_opt@PAUD3DXVECTOR3@@PAU1@@std@@YAPAUD3DXVECTOR3@@PAU1@00U_Nonscalar_ptr_iterator_tag@0@@Z PROC NEAR ; std::_Copy_backward_opt<D3DXVECTOR3 *,D3DXVECTOR3 *>, COMDAT

; 1049 : 	while (_First != _Last)

  00000	8b 54 24 04	 mov	 edx, DWORD PTR __First$[esp-4]
  00004	8b 4c 24 08	 mov	 ecx, DWORD PTR __Last$[esp-4]
  00008	3b d1		 cmp	 edx, ecx
  0000a	8b 44 24 0c	 mov	 eax, DWORD PTR __Dest$[esp-4]
  0000e	74 24		 je	 SHORT $L228135
  00010	53		 push	 ebx
  00011	56		 push	 esi
  00012	57		 push	 edi
$L228134:

; 1050 : 		*--_Dest = *--_Last;

  00013	83 e9 0c	 sub	 ecx, 12			; 0000000cH
  00016	83 e8 0c	 sub	 eax, 12			; 0000000cH
  00019	3b ca		 cmp	 ecx, edx
  0001b	8b f1		 mov	 esi, ecx
  0001d	8b 1e		 mov	 ebx, DWORD PTR [esi]
  0001f	8b f8		 mov	 edi, eax
  00021	89 1f		 mov	 DWORD PTR [edi], ebx
  00023	8b 5e 04	 mov	 ebx, DWORD PTR [esi+4]
  00026	89 5f 04	 mov	 DWORD PTR [edi+4], ebx
  00029	8b 76 08	 mov	 esi, DWORD PTR [esi+8]
  0002c	89 77 08	 mov	 DWORD PTR [edi+8], esi
  0002f	75 e2		 jne	 SHORT $L228134
  00031	5f		 pop	 edi
  00032	5e		 pop	 esi
  00033	5b		 pop	 ebx
$L228135:

; 1051 : 	return (_Dest);
; 1052 : 	}

  00034	c3		 ret	 0
??$_Copy_backward_opt@PAUD3DXVECTOR3@@PAU1@@std@@YAPAUD3DXVECTOR3@@PAU1@00U_Nonscalar_ptr_iterator_tag@0@@Z ENDP ; std::_Copy_backward_opt<D3DXVECTOR3 *,D3DXVECTOR3 *>
_TEXT	ENDS
PUBLIC	??$_Destroy@UD3DXVECTOR3@@@std@@YAXPAUD3DXVECTOR3@@@Z ; std::_Destroy<D3DXVECTOR3>
; Function compile flags: /Ogty
; File c:\program files\microsoft visual studio .net 2003\vc7\include\xmemory
;	COMDAT ??$_Destroy@UD3DXVECTOR3@@@std@@YAXPAUD3DXVECTOR3@@@Z
_TEXT	SEGMENT
__Ptr$ = 8						; size = 4
??$_Destroy@UD3DXVECTOR3@@@std@@YAXPAUD3DXVECTOR3@@@Z PROC NEAR ; std::_Destroy<D3DXVECTOR3>, COMDAT

; 49   : 	_DESTRUCTOR(_Ty, _Ptr);
; 50   : 	}

  00000	c3		 ret	 0
??$_Destroy@UD3DXVECTOR3@@@std@@YAXPAUD3DXVECTOR3@@@Z ENDP ; std::_Destroy<D3DXVECTOR3>
_TEXT	ENDS
PUBLIC	??$_Ptr_cat@Vconst_iterator@?$vector@U_VECINFO@@V?$allocator@U_VECINFO@@@std@@@std@@PAU_VECINFO@@@std@@YA?AU_Nonscalar_ptr_iterator_tag@0@AAVconst_iterator@?$vector@U_VECINFO@@V?$allocator@U_VECINFO@@@std@@@0@AAPAU_VECINFO@@@Z ; std::_Ptr_cat<std::vector<_VECINFO,std::allocator<_VECINFO> >::const_iterator,_VECINFO *>
; Function compile flags: /Ogty
; File c:\program files\microsoft visual studio .net 2003\vc7\include\xutility
;	COMDAT ??$_Ptr_cat@Vconst_iterator@?$vector@U_VECINFO@@V?$allocator@U_VECINFO@@@std@@@std@@PAU_VECINFO@@@std@@YA?AU_Nonscalar_ptr_iterator_tag@0@AAVconst_iterator@?$vector@U_VECINFO@@V?$allocator@U_VECINFO@@@std@@@0@AAPAU_VECINFO@@@Z
_TEXT	SEGMENT
__Cat$ = -1						; size = 1
___formal$ = 8						; size = 4
___formal$ = 12						; size = 4
??$_Ptr_cat@Vconst_iterator@?$vector@U_VECINFO@@V?$allocator@U_VECINFO@@@std@@@std@@PAU_VECINFO@@@std@@YA?AU_Nonscalar_ptr_iterator_tag@0@AAVconst_iterator@?$vector@U_VECINFO@@V?$allocator@U_VECINFO@@@std@@@0@AAPAU_VECINFO@@@Z PROC NEAR ; std::_Ptr_cat<std::vector<_VECINFO,std::allocator<_VECINFO> >::const_iterator,_VECINFO *>, COMDAT

; 211  : 	{	// return pointer category from arbitrary arguments

  00000	51		 push	 ecx

; 212  : 	_Nonscalar_ptr_iterator_tag _Cat;
; 213  : 	return (_Cat);

  00001	8a 44 24 03	 mov	 al, BYTE PTR __Cat$[esp+4]

; 214  : 	}

  00005	59		 pop	 ecx
  00006	c3		 ret	 0
??$_Ptr_cat@Vconst_iterator@?$vector@U_VECINFO@@V?$allocator@U_VECINFO@@@std@@@std@@PAU_VECINFO@@@std@@YA?AU_Nonscalar_ptr_iterator_tag@0@AAVconst_iterator@?$vector@U_VECINFO@@V?$allocator@U_VECINFO@@@std@@@0@AAPAU_VECINFO@@@Z ENDP ; std::_Ptr_cat<std::vector<_VECINFO,std::allocator<_VECINFO> >::const_iterator,_VECINFO *>
_TEXT	ENDS
PUBLIC	??$_Construct@UD3DXVECTOR3@@U1@@std@@YAXPAUD3DXVECTOR3@@ABU1@@Z ; std::_Construct<D3DXVECTOR3,D3DXVECTOR3>
; Function compile flags: /Ogty
; File c:\program files\microsoft visual studio .net 2003\vc7\include\xmemory
;	COMDAT ??$_Construct@UD3DXVECTOR3@@U1@@std@@YAXPAUD3DXVECTOR3@@ABU1@@Z
_TEXT	SEGMENT
__Ptr$ = 8						; size = 4
__Val$ = 12						; size = 4
??$_Construct@UD3DXVECTOR3@@U1@@std@@YAXPAUD3DXVECTOR3@@ABU1@@Z PROC NEAR ; std::_Construct<D3DXVECTOR3,D3DXVECTOR3>, COMDAT

; 42   : 	new ((void _FARQ *)_Ptr) _T1(_Val);

  00000	8b 44 24 04	 mov	 eax, DWORD PTR __Ptr$[esp-4]
  00004	85 c0		 test	 eax, eax
  00006	74 14		 je	 SHORT $L229442
  00008	8b 4c 24 08	 mov	 ecx, DWORD PTR __Val$[esp-4]
  0000c	8b 11		 mov	 edx, DWORD PTR [ecx]
  0000e	89 10		 mov	 DWORD PTR [eax], edx
  00010	8b 51 04	 mov	 edx, DWORD PTR [ecx+4]
  00013	89 50 04	 mov	 DWORD PTR [eax+4], edx
  00016	8b 49 08	 mov	 ecx, DWORD PTR [ecx+8]
  00019	89 48 08	 mov	 DWORD PTR [eax+8], ecx
$L229442:

; 43   : 	}

  0001c	c3		 ret	 0
??$_Construct@UD3DXVECTOR3@@U1@@std@@YAXPAUD3DXVECTOR3@@ABU1@@Z ENDP ; std::_Construct<D3DXVECTOR3,D3DXVECTOR3>
_TEXT	ENDS
PUBLIC	??Econst_iterator@?$vector@U_VECINFO@@V?$allocator@U_VECINFO@@@std@@@std@@QAEAAV012@XZ ; std::vector<_VECINFO,std::allocator<_VECINFO> >::const_iterator::operator++
; Function compile flags: /Ogty
; File c:\program files\microsoft visual studio .net 2003\vc7\include\vector
;	COMDAT ??Econst_iterator@?$vector@U_VECINFO@@V?$allocator@U_VECINFO@@@std@@@std@@QAEAAV012@XZ
_TEXT	SEGMENT
??Econst_iterator@?$vector@U_VECINFO@@V?$allocator@U_VECINFO@@@std@@@std@@QAEAAV012@XZ PROC NEAR ; std::vector<_VECINFO,std::allocator<_VECINFO> >::const_iterator::operator++, COMDAT
; _this$ = ecx

; 91   : 			{	// preincrement

  00000	8b c1		 mov	 eax, ecx

; 92   : 			++_Myptr;

  00002	83 00 38	 add	 DWORD PTR [eax], 56	; 00000038H

; 93   : 			return (*this);
; 94   : 			}

  00005	c3		 ret	 0
??Econst_iterator@?$vector@U_VECINFO@@V?$allocator@U_VECINFO@@@std@@@std@@QAEAAV012@XZ ENDP ; std::vector<_VECINFO,std::allocator<_VECINFO> >::const_iterator::operator++
_TEXT	ENDS
PUBLIC	??8const_iterator@?$vector@U_VECINFO@@V?$allocator@U_VECINFO@@@std@@@std@@QBE_NABV012@@Z ; std::vector<_VECINFO,std::allocator<_VECINFO> >::const_iterator::operator==
; Function compile flags: /Ogty
;	COMDAT ??8const_iterator@?$vector@U_VECINFO@@V?$allocator@U_VECINFO@@@std@@@std@@QBE_NABV012@@Z
_TEXT	SEGMENT
__Right$ = 8						; size = 4
??8const_iterator@?$vector@U_VECINFO@@V?$allocator@U_VECINFO@@@std@@@std@@QBE_NABV012@@Z PROC NEAR ; std::vector<_VECINFO,std::allocator<_VECINFO> >::const_iterator::operator==, COMDAT
; _this$ = ecx

; 153  : 
; 154  : 
; 155  : 			return (_Myptr == _Right._Myptr);

  00000	8b 01		 mov	 eax, DWORD PTR [ecx]
  00002	8b 4c 24 04	 mov	 ecx, DWORD PTR __Right$[esp-4]
  00006	2b 01		 sub	 eax, DWORD PTR [ecx]
  00008	f7 d8		 neg	 eax
  0000a	1b c0		 sbb	 eax, eax
  0000c	40		 inc	 eax

; 156  : 			}

  0000d	c2 04 00	 ret	 4
??8const_iterator@?$vector@U_VECINFO@@V?$allocator@U_VECINFO@@@std@@@std@@QBE_NABV012@@Z ENDP ; std::vector<_VECINFO,std::allocator<_VECINFO> >::const_iterator::operator==
_TEXT	ENDS
PUBLIC	?assign@?$char_traits@D@std@@SAXAADABD@Z	; std::char_traits<char>::assign
; Function compile flags: /Ogty
; File c:\program files\microsoft visual studio .net 2003\vc7\include\iosfwd
;	COMDAT ?assign@?$char_traits@D@std@@SAXAADABD@Z
_TEXT	SEGMENT
__Left$ = 8						; size = 4
__Right$ = 12						; size = 4
?assign@?$char_traits@D@std@@SAXAADABD@Z PROC NEAR	; std::char_traits<char>::assign, COMDAT

; 331  : 		_Left = _Right;

  00000	8b 44 24 08	 mov	 eax, DWORD PTR __Right$[esp-4]
  00004	8a 08		 mov	 cl, BYTE PTR [eax]
  00006	8b 54 24 04	 mov	 edx, DWORD PTR __Left$[esp-4]
  0000a	88 0a		 mov	 BYTE PTR [edx], cl

; 332  : 		}

  0000c	c3		 ret	 0
?assign@?$char_traits@D@std@@SAXAADABD@Z ENDP		; std::char_traits<char>::assign
_TEXT	ENDS
PUBLIC	?length@?$char_traits@D@std@@SAIPBD@Z		; std::char_traits<char>::length
; Function compile flags: /Ogty
;	COMDAT ?length@?$char_traits@D@std@@SAIPBD@Z
_TEXT	SEGMENT
__First$ = 8						; size = 4
?length@?$char_traits@D@std@@SAIPBD@Z PROC NEAR		; std::char_traits<char>::length, COMDAT

; 352  : 		return (::strlen(_First));

  00000	8b 44 24 04	 mov	 eax, DWORD PTR __First$[esp-4]
  00004	8d 50 01	 lea	 edx, DWORD PTR [eax+1]
$L229459:
  00007	8a 08		 mov	 cl, BYTE PTR [eax]
  00009	40		 inc	 eax
  0000a	84 c9		 test	 cl, cl
  0000c	75 f9		 jne	 SHORT $L229459
  0000e	2b c2		 sub	 eax, edx

; 353  : 		}

  00010	c3		 ret	 0
?length@?$char_traits@D@std@@SAIPBD@Z ENDP		; std::char_traits<char>::length
_TEXT	ENDS
PUBLIC	?copy@?$char_traits@D@std@@SAPADPADPBDI@Z	; std::char_traits<char>::copy
; Function compile flags: /Ogty
;	COMDAT ?copy@?$char_traits@D@std@@SAPADPADPBDI@Z
_TEXT	SEGMENT
__First1$ = 8						; size = 4
__First2$ = 12						; size = 4
__Count$ = 16						; size = 4
?copy@?$char_traits@D@std@@SAPADPADPBDI@Z PROC NEAR	; std::char_traits<char>::copy, COMDAT

; 358  : 		return ((_Elem *)::memcpy(_First1, _First2, _Count));

  00000	8b 4c 24 0c	 mov	 ecx, DWORD PTR __Count$[esp-4]
  00004	56		 push	 esi
  00005	8b 74 24 0c	 mov	 esi, DWORD PTR __First2$[esp]
  00009	57		 push	 edi
  0000a	8b 7c 24 0c	 mov	 edi, DWORD PTR __First1$[esp+4]
  0000e	8b c1		 mov	 eax, ecx
  00010	8b d7		 mov	 edx, edi
  00012	c1 e9 02	 shr	 ecx, 2
  00015	f3 a5		 rep movsd
  00017	8b c8		 mov	 ecx, eax
  00019	83 e1 03	 and	 ecx, 3
  0001c	f3 a4		 rep movsb
  0001e	5f		 pop	 edi
  0001f	8b c2		 mov	 eax, edx
  00021	5e		 pop	 esi

; 359  : 		}

  00022	c3		 ret	 0
?copy@?$char_traits@D@std@@SAPADPADPBDI@Z ENDP		; std::char_traits<char>::copy
_TEXT	ENDS
PUBLIC	?move@?$char_traits@D@std@@SAPADPADPBDI@Z	; std::char_traits<char>::move
EXTRN	_memmove:NEAR
; Function compile flags: /Ogty
;	COMDAT ?move@?$char_traits@D@std@@SAPADPADPBDI@Z
_TEXT	SEGMENT
__First1$ = 8						; size = 4
__First2$ = 12						; size = 4
__Count$ = 16						; size = 4
?move@?$char_traits@D@std@@SAPADPADPBDI@Z PROC NEAR	; std::char_traits<char>::move, COMDAT

; 370  : 		return ((_Elem *)::memmove(_First1, _First2, _Count));

  00000	e9 00 00 00 00	 jmp	 _memmove
?move@?$char_traits@D@std@@SAPADPADPBDI@Z ENDP		; std::char_traits<char>::move
_TEXT	ENDS
PUBLIC	_sqrtf
; Function compile flags: /Ogty
; File c:\program files\microsoft visual studio .net 2003\vc7\include\math.h
;	COMDAT _sqrtf
_TEXT	SEGMENT
__X$ = 8						; size = 4
_sqrtf	PROC NEAR					; COMDAT

; 470  :         {return ((float)sqrt((double)_X)); }

  00000	d9 44 24 04	 fld	 DWORD PTR __X$[esp-4]
  00004	d9 fa		 fsqrt
  00006	c3		 ret	 0
_sqrtf	ENDP
_TEXT	ENDS
PUBLIC	??0D3DXVECTOR3@@QAE@XZ				; D3DXVECTOR3::D3DXVECTOR3
; Function compile flags: /Ogty
; File c:\documents and settings\test\mes documents\source\virtuos_v17\build\program\dx_sdk\d3dx9math.h
;	COMDAT ??0D3DXVECTOR3@@QAE@XZ
_TEXT	SEGMENT
??0D3DXVECTOR3@@QAE@XZ PROC NEAR			; D3DXVECTOR3::D3DXVECTOR3, COMDAT
; _this$ = ecx

; 165  :     D3DXVECTOR3() {};

  00000	8b c1		 mov	 eax, ecx
  00002	c3		 ret	 0
??0D3DXVECTOR3@@QAE@XZ ENDP				; D3DXVECTOR3::D3DXVECTOR3
_TEXT	ENDS
PUBLIC	??0D3DXVECTOR3@@QAE@MMM@Z			; D3DXVECTOR3::D3DXVECTOR3
; Function compile flags: /Ogty
; File c:\documents and settings\test\mes documents\source\virtuos_v17\build\program\dx_sdk\d3dx9math.inl
;	COMDAT ??0D3DXVECTOR3@@QAE@MMM@Z
_TEXT	SEGMENT
_fx$ = 8						; size = 4
_fy$ = 12						; size = 4
_fz$ = 16						; size = 4
??0D3DXVECTOR3@@QAE@MMM@Z PROC NEAR			; D3DXVECTOR3::D3DXVECTOR3, COMDAT
; _this$ = ecx

; 300  :     x = fx;
; 301  :     y = fy;

  00000	8b 54 24 08	 mov	 edx, DWORD PTR _fy$[esp-4]
  00004	8b c1		 mov	 eax, ecx
  00006	8b 4c 24 04	 mov	 ecx, DWORD PTR _fx$[esp-4]
  0000a	89 08		 mov	 DWORD PTR [eax], ecx

; 302  :     z = fz;

  0000c	8b 4c 24 0c	 mov	 ecx, DWORD PTR _fz$[esp-4]
  00010	89 50 04	 mov	 DWORD PTR [eax+4], edx
  00013	89 48 08	 mov	 DWORD PTR [eax+8], ecx

; 303  : }

  00016	c2 0c 00	 ret	 12			; 0000000cH
??0D3DXVECTOR3@@QAE@MMM@Z ENDP				; D3DXVECTOR3::D3DXVECTOR3
_TEXT	ENDS
PUBLIC	??HD3DXVECTOR3@@QBE?AU0@XZ			; D3DXVECTOR3::operator+
; Function compile flags: /Ogty
;	COMDAT ??HD3DXVECTOR3@@QBE?AU0@XZ
_TEXT	SEGMENT
___$ReturnUdt$ = 8					; size = 4
??HD3DXVECTOR3@@QBE?AU0@XZ PROC NEAR			; D3DXVECTOR3::operator+, COMDAT
; _this$ = ecx

; 363  :     return *this;

  00000	8b 44 24 04	 mov	 eax, DWORD PTR ___$ReturnUdt$[esp-4]
  00004	56		 push	 esi
  00005	8b 31		 mov	 esi, DWORD PTR [ecx]
  00007	8b d0		 mov	 edx, eax
  00009	89 32		 mov	 DWORD PTR [edx], esi
  0000b	8b 71 04	 mov	 esi, DWORD PTR [ecx+4]
  0000e	89 72 04	 mov	 DWORD PTR [edx+4], esi
  00011	8b 49 08	 mov	 ecx, DWORD PTR [ecx+8]
  00014	89 4a 08	 mov	 DWORD PTR [edx+8], ecx
  00017	5e		 pop	 esi

; 364  : }

  00018	c2 04 00	 ret	 4
??HD3DXVECTOR3@@QBE?AU0@XZ ENDP				; D3DXVECTOR3::operator+
_TEXT	ENDS
PUBLIC	??GD3DXVECTOR3@@QBE?AU0@XZ			; D3DXVECTOR3::operator-
; Function compile flags: /Ogty
;	COMDAT ??GD3DXVECTOR3@@QBE?AU0@XZ
_TEXT	SEGMENT
___$ReturnUdt$ = 8					; size = 4
??GD3DXVECTOR3@@QBE?AU0@XZ PROC NEAR			; D3DXVECTOR3::operator-, COMDAT
; _this$ = ecx

; 369  :     return D3DXVECTOR3(-x, -y, -z);

  00000	d9 41 08	 fld	 DWORD PTR [ecx+8]
  00003	8b 44 24 04	 mov	 eax, DWORD PTR ___$ReturnUdt$[esp-4]
  00007	d9 e0		 fchs
  00009	d9 41 04	 fld	 DWORD PTR [ecx+4]
  0000c	d9 e0		 fchs
  0000e	d9 01		 fld	 DWORD PTR [ecx]
  00010	d9 e0		 fchs
  00012	d9 18		 fstp	 DWORD PTR [eax]
  00014	d9 58 04	 fstp	 DWORD PTR [eax+4]
  00017	d9 58 08	 fstp	 DWORD PTR [eax+8]

; 370  : }

  0001a	c2 04 00	 ret	 4
??GD3DXVECTOR3@@QBE?AU0@XZ ENDP				; D3DXVECTOR3::operator-
_TEXT	ENDS
PUBLIC	??HD3DXVECTOR3@@QBE?AU0@ABU0@@Z			; D3DXVECTOR3::operator+
; Function compile flags: /Ogty
;	COMDAT ??HD3DXVECTOR3@@QBE?AU0@ABU0@@Z
_TEXT	SEGMENT
___$ReturnUdt$ = 8					; size = 4
_v$ = 12						; size = 4
??HD3DXVECTOR3@@QBE?AU0@ABU0@@Z PROC NEAR		; D3DXVECTOR3::operator+, COMDAT
; _this$ = ecx

; 377  :     return D3DXVECTOR3(x + v.x, y + v.y, z + v.z);

  00000	8b 44 24 08	 mov	 eax, DWORD PTR _v$[esp-4]
  00004	d9 40 08	 fld	 DWORD PTR [eax+8]
  00007	d8 41 08	 fadd	 DWORD PTR [ecx+8]
  0000a	d9 40 04	 fld	 DWORD PTR [eax+4]
  0000d	d8 41 04	 fadd	 DWORD PTR [ecx+4]
  00010	d9 00		 fld	 DWORD PTR [eax]
  00012	8b 44 24 04	 mov	 eax, DWORD PTR ___$ReturnUdt$[esp-4]
  00016	d8 01		 fadd	 DWORD PTR [ecx]
  00018	d9 18		 fstp	 DWORD PTR [eax]
  0001a	d9 58 04	 fstp	 DWORD PTR [eax+4]
  0001d	d9 58 08	 fstp	 DWORD PTR [eax+8]

; 378  : }

  00020	c2 08 00	 ret	 8
??HD3DXVECTOR3@@QBE?AU0@ABU0@@Z ENDP			; D3DXVECTOR3::operator+
_TEXT	ENDS
PUBLIC	??GD3DXVECTOR3@@QBE?AU0@ABU0@@Z			; D3DXVECTOR3::operator-
; Function compile flags: /Ogty
;	COMDAT ??GD3DXVECTOR3@@QBE?AU0@ABU0@@Z
_TEXT	SEGMENT
___$ReturnUdt$ = 8					; size = 4
_v$ = 12						; size = 4
??GD3DXVECTOR3@@QBE?AU0@ABU0@@Z PROC NEAR		; D3DXVECTOR3::operator-, COMDAT
; _this$ = ecx

; 383  :     return D3DXVECTOR3(x - v.x, y - v.y, z - v.z);

  00000	d9 41 08	 fld	 DWORD PTR [ecx+8]
  00003	8b 44 24 08	 mov	 eax, DWORD PTR _v$[esp-4]
  00007	d8 60 08	 fsub	 DWORD PTR [eax+8]
  0000a	d9 41 04	 fld	 DWORD PTR [ecx+4]
  0000d	d8 60 04	 fsub	 DWORD PTR [eax+4]
  00010	d9 01		 fld	 DWORD PTR [ecx]
  00012	d8 20		 fsub	 DWORD PTR [eax]
  00014	8b 44 24 04	 mov	 eax, DWORD PTR ___$ReturnUdt$[esp-4]
  00018	d9 18		 fstp	 DWORD PTR [eax]
  0001a	d9 58 04	 fstp	 DWORD PTR [eax+4]
  0001d	d9 58 08	 fstp	 DWORD PTR [eax+8]

; 384  : }

  00020	c2 08 00	 ret	 8
??GD3DXVECTOR3@@QBE?AU0@ABU0@@Z ENDP			; D3DXVECTOR3::operator-
_TEXT	ENDS
PUBLIC	??DD3DXVECTOR3@@QBE?AU0@M@Z			; D3DXVECTOR3::operator*
; Function compile flags: /Ogty
;	COMDAT ??DD3DXVECTOR3@@QBE?AU0@M@Z
_TEXT	SEGMENT
___$ReturnUdt$ = 8					; size = 4
_f$ = 12						; size = 4
??DD3DXVECTOR3@@QBE?AU0@M@Z PROC NEAR			; D3DXVECTOR3::operator*, COMDAT
; _this$ = ecx

; 389  :     return D3DXVECTOR3(x * f, y * f, z * f);

  00000	d9 44 24 08	 fld	 DWORD PTR _f$[esp-4]
  00004	8b 44 24 04	 mov	 eax, DWORD PTR ___$ReturnUdt$[esp-4]
  00008	d8 49 08	 fmul	 DWORD PTR [ecx+8]
  0000b	d9 44 24 08	 fld	 DWORD PTR _f$[esp-4]
  0000f	d8 49 04	 fmul	 DWORD PTR [ecx+4]
  00012	d9 44 24 08	 fld	 DWORD PTR _f$[esp-4]
  00016	d8 09		 fmul	 DWORD PTR [ecx]
  00018	d9 18		 fstp	 DWORD PTR [eax]
  0001a	d9 58 04	 fstp	 DWORD PTR [eax+4]
  0001d	d9 58 08	 fstp	 DWORD PTR [eax+8]

; 390  : }

  00020	c2 08 00	 ret	 8
??DD3DXVECTOR3@@QBE?AU0@M@Z ENDP			; D3DXVECTOR3::operator*
_TEXT	ENDS
PUBLIC	?D3DXVec3Length@@YAMPBUD3DXVECTOR3@@@Z		; D3DXVec3Length
; Function compile flags: /Ogty
;	COMDAT ?D3DXVec3Length@@YAMPBUD3DXVECTOR3@@@Z
_TEXT	SEGMENT
_pV$ = 8						; size = 4
?D3DXVec3Length@@YAMPBUD3DXVECTOR3@@@Z PROC NEAR	; D3DXVec3Length, COMDAT

; 1678 : #ifdef D3DX_DEBUG
; 1679 :     if(!pV)
; 1680 :         return 0.0f;
; 1681 : #endif
; 1682 : 
; 1683 : #ifdef __cplusplus
; 1684 :     return sqrtf(pV->x * pV->x + pV->y * pV->y + pV->z * pV->z);

  00000	8b 44 24 04	 mov	 eax, DWORD PTR _pV$[esp-4]
  00004	d9 40 08	 fld	 DWORD PTR [eax+8]
  00007	d9 40 04	 fld	 DWORD PTR [eax+4]
  0000a	d9 00		 fld	 DWORD PTR [eax]
  0000c	d9 c0		 fld	 ST(0)
  0000e	d8 c9		 fmul	 ST(0), ST(1)
  00010	d9 c2		 fld	 ST(2)
  00012	d8 cb		 fmul	 ST(0), ST(3)
  00014	de c1		 faddp	 ST(1), ST(0)
  00016	d9 c3		 fld	 ST(3)
  00018	d8 cc		 fmul	 ST(0), ST(4)
  0001a	de c1		 faddp	 ST(1), ST(0)
  0001c	d9 fa		 fsqrt
  0001e	dd db		 fstp	 ST(3)
  00020	dd d8		 fstp	 ST(0)
  00022	dd d8		 fstp	 ST(0)

; 1685 : #else
; 1686 :     return (FLOAT) sqrt(pV->x * pV->x + pV->y * pV->y + pV->z * pV->z);
; 1687 : #endif
; 1688 : }

  00024	c3		 ret	 0
?D3DXVec3Length@@YAMPBUD3DXVECTOR3@@@Z ENDP		; D3DXVec3Length
_TEXT	ENDS
PUBLIC	?D3DXVec3Subtract@@YAPAUD3DXVECTOR3@@PAU1@PBU1@1@Z ; D3DXVec3Subtract
; Function compile flags: /Ogty
;	COMDAT ?D3DXVec3Subtract@@YAPAUD3DXVECTOR3@@PAU1@PBU1@1@Z
_TEXT	SEGMENT
_pOut$ = 8						; size = 4
_pV1$ = 12						; size = 4
_pV2$ = 16						; size = 4
?D3DXVec3Subtract@@YAPAUD3DXVECTOR3@@PAU1@PBU1@1@Z PROC NEAR ; D3DXVec3Subtract, COMDAT

; 1747 : #ifdef D3DX_DEBUG
; 1748 :     if(!pOut || !pV1 || !pV2)
; 1749 :         return NULL;
; 1750 : #endif
; 1751 : 
; 1752 :     pOut->x = pV1->x - pV2->x;

  00000	8b 4c 24 08	 mov	 ecx, DWORD PTR _pV1$[esp-4]
  00004	d9 01		 fld	 DWORD PTR [ecx]
  00006	8b 54 24 0c	 mov	 edx, DWORD PTR _pV2$[esp-4]
  0000a	d8 22		 fsub	 DWORD PTR [edx]
  0000c	8b 44 24 04	 mov	 eax, DWORD PTR _pOut$[esp-4]
  00010	d9 18		 fstp	 DWORD PTR [eax]

; 1753 :     pOut->y = pV1->y - pV2->y;

  00012	d9 41 04	 fld	 DWORD PTR [ecx+4]
  00015	d8 62 04	 fsub	 DWORD PTR [edx+4]
  00018	d9 58 04	 fstp	 DWORD PTR [eax+4]

; 1754 :     pOut->z = pV1->z - pV2->z;

  0001b	d9 41 08	 fld	 DWORD PTR [ecx+8]
  0001e	d8 62 08	 fsub	 DWORD PTR [edx+8]
  00021	d9 58 08	 fstp	 DWORD PTR [eax+8]

; 1755 :     return pOut;
; 1756 : }

  00024	c3		 ret	 0
?D3DXVec3Subtract@@YAPAUD3DXVECTOR3@@PAU1@PBU1@1@Z ENDP	; D3DXVec3Subtract
_TEXT	ENDS
PUBLIC	??1CTimer@@UAE@XZ				; CTimer::~CTimer
; Function compile flags: /Ogty
; File c:\documents and settings\test\mes documents\source\virtuos_v17\build\program\_common\timer.h
;	COMDAT ??1CTimer@@UAE@XZ
_TEXT	SEGMENT
??1CTimer@@UAE@XZ PROC NEAR				; CTimer::~CTimer, COMDAT
; _this$ = ecx

; 19   : 	virtual ~CTimer()	{}

  00000	c7 01 00 00 00
	00		 mov	 DWORD PTR [ecx], OFFSET FLAT:??_7CTimer@@6B@
  00006	c3		 ret	 0
??1CTimer@@UAE@XZ ENDP					; CTimer::~CTimer
; Function compile flags: /Ogty
_TEXT	ENDS
;	COMDAT ??_GCTimer@@UAEPAXI@Z
_TEXT	SEGMENT
___flags$ = 8						; size = 4
??_GCTimer@@UAEPAXI@Z PROC NEAR				; CTimer::`scalar deleting destructor', COMDAT
; _this$ = ecx
  00000	f6 44 24 04 01	 test	 BYTE PTR ___flags$[esp-4], 1
  00005	56		 push	 esi
  00006	8b f1		 mov	 esi, ecx
  00008	c7 06 00 00 00
	00		 mov	 DWORD PTR [esi], OFFSET FLAT:??_7CTimer@@6B@
  0000e	74 09		 je	 SHORT $L229534
  00010	56		 push	 esi
  00011	e8 00 00 00 00	 call	 ??3@YAXPAX@Z		; operator delete
  00016	83 c4 04	 add	 esp, 4
$L229534:
  00019	8b c6		 mov	 eax, esi
  0001b	5e		 pop	 esi
  0001c	c2 04 00	 ret	 4
??_GCTimer@@UAEPAXI@Z ENDP				; CTimer::`scalar deleting destructor'
_TEXT	ENDS
PUBLIC	?size@?$basic_string@DU?$char_traits@D@std@@V?$allocator@D@2@@std@@QBEIXZ ; std::basic_string<char,std::char_traits<char>,std::allocator<char> >::size
; Function compile flags: /Ogty
; File c:\program files\microsoft visual studio .net 2003\vc7\include\xstring
;	COMDAT ?size@?$basic_string@DU?$char_traits@D@std@@V?$allocator@D@2@@std@@QBEIXZ
_TEXT	SEGMENT
?size@?$basic_string@DU?$char_traits@D@std@@V?$allocator@D@2@@std@@QBEIXZ PROC NEAR ; std::basic_string<char,std::char_traits<char>,std::allocator<char> >::size, COMDAT
; _this$ = ecx

; 1109 : 		return (_Mysize);

  00000	8b 41 14	 mov	 eax, DWORD PTR [ecx+20]

; 1110 : 		}

  00003	c3		 ret	 0
?size@?$basic_string@DU?$char_traits@D@std@@V?$allocator@D@2@@std@@QBEIXZ ENDP ; std::basic_string<char,std::char_traits<char>,std::allocator<char> >::size
_TEXT	ENDS
PUBLIC	?GetString@?$CSimpleStringT@D$0A@@ATL@@QBEPBDXZ	; ATL::CSimpleStringT<char,0>::GetString
; Function compile flags: /Ogty
; File c:\program files\microsoft visual studio .net 2003\vc7\atlmfc\include\atlsimpstr.h
;	COMDAT ?GetString@?$CSimpleStringT@D$0A@@ATL@@QBEPBDXZ
_TEXT	SEGMENT
?GetString@?$CSimpleStringT@D$0A@@ATL@@QBEPBDXZ PROC NEAR ; ATL::CSimpleStringT<char,0>::GetString, COMDAT
; _this$ = ecx

; 510  : 		return( m_pszData );

  00000	8b 01		 mov	 eax, DWORD PTR [ecx]

; 511  : 	}

  00002	c3		 ret	 0
?GetString@?$CSimpleStringT@D$0A@@ATL@@QBEPBDXZ ENDP	; ATL::CSimpleStringT<char,0>::GetString
_TEXT	ENDS
PUBLIC	?_Myptr@?$basic_string@DU?$char_traits@D@std@@V?$allocator@D@2@@std@@QBEPBDXZ ; std::basic_string<char,std::char_traits<char>,std::allocator<char> >::_Myptr
; Function compile flags: /Ogty
; File c:\program files\microsoft visual studio .net 2003\vc7\include\xstring
;	COMDAT ?_Myptr@?$basic_string@DU?$char_traits@D@std@@V?$allocator@D@2@@std@@QBEPBDXZ
_TEXT	SEGMENT
?_Myptr@?$basic_string@DU?$char_traits@D@std@@V?$allocator@D@2@@std@@QBEPBDXZ PROC NEAR ; std::basic_string<char,std::char_traits<char>,std::allocator<char> >::_Myptr, COMDAT
; _this$ = ecx

; 1537 : 		return (_BUF_SIZE <= _Myres ? _Bx._Ptr : _Bx._Buf);

  00000	83 79 18 10	 cmp	 DWORD PTR [ecx+24], 16	; 00000010H
  00004	72 04		 jb	 SHORT $L229544
  00006	8b 41 04	 mov	 eax, DWORD PTR [ecx+4]

; 1538 : 		}

  00009	c3		 ret	 0
$L229544:

; 1537 : 		return (_BUF_SIZE <= _Myres ? _Bx._Ptr : _Bx._Buf);

  0000a	8d 41 04	 lea	 eax, DWORD PTR [ecx+4]

; 1538 : 		}

  0000d	c3		 ret	 0
?_Myptr@?$basic_string@DU?$char_traits@D@std@@V?$allocator@D@2@@std@@QBEPBDXZ ENDP ; std::basic_string<char,std::char_traits<char>,std::allocator<char> >::_Myptr
_TEXT	ENDS
PUBLIC	??0?$allocator@D@std@@QAE@XZ			; std::allocator<char>::allocator<char>
; Function compile flags: /Ogty
; File c:\program files\microsoft visual studio .net 2003\vc7\include\xmemory
;	COMDAT ??0?$allocator@D@std@@QAE@XZ
_TEXT	SEGMENT
??0?$allocator@D@std@@QAE@XZ PROC NEAR			; std::allocator<char>::allocator<char>, COMDAT
; _this$ = ecx

; 111  : 	allocator()

  00000	8b c1		 mov	 eax, ecx

; 112  : 		{	// construct default allocator (do nothing)
; 113  : 		}

  00002	c3		 ret	 0
??0?$allocator@D@std@@QAE@XZ ENDP			; std::allocator<char>::allocator<char>
_TEXT	ENDS
PUBLIC	??0?$allocator@D@std@@QAE@ABV01@@Z		; std::allocator<char>::allocator<char>
; Function compile flags: /Ogty
;	COMDAT ??0?$allocator@D@std@@QAE@ABV01@@Z
_TEXT	SEGMENT
___formal$ = 8						; size = 4
??0?$allocator@D@std@@QAE@ABV01@@Z PROC NEAR		; std::allocator<char>::allocator<char>, COMDAT
; _this$ = ecx

; 115  : 	allocator(const allocator<_Ty>&)

  00000	8b c1		 mov	 eax, ecx

; 116  : 		{	// construct by copying (do nothing)
; 117  : 		}

  00002	c2 04 00	 ret	 4
??0?$allocator@D@std@@QAE@ABV01@@Z ENDP			; std::allocator<char>::allocator<char>
_TEXT	ENDS
PUBLIC	??R?$less@K@std@@QBE_NABK0@Z			; std::less<unsigned long>::operator()
; Function compile flags: /Ogty
; File c:\program files\microsoft visual studio .net 2003\vc7\include\functional
;	COMDAT ??R?$less@K@std@@QBE_NABK0@Z
_TEXT	SEGMENT
__Left$ = 8						; size = 4
__Right$ = 12						; size = 4
??R?$less@K@std@@QBE_NABK0@Z PROC NEAR			; std::less<unsigned long>::operator(), COMDAT
; _this$ = ecx

; 139  : 		return (_Left < _Right);

  00000	8b 44 24 04	 mov	 eax, DWORD PTR __Left$[esp-4]
  00004	8b 08		 mov	 ecx, DWORD PTR [eax]
  00006	8b 54 24 08	 mov	 edx, DWORD PTR __Right$[esp-4]
  0000a	3b 0a		 cmp	 ecx, DWORD PTR [edx]
  0000c	1b c0		 sbb	 eax, eax
  0000e	f7 d8		 neg	 eax

; 140  : 		}

  00010	c2 08 00	 ret	 8
??R?$less@K@std@@QBE_NABK0@Z ENDP			; std::less<unsigned long>::operator()
_TEXT	ENDS
PUBLIC	??0?$allocator@UD3DXVECTOR3@@@std@@QAE@XZ	; std::allocator<D3DXVECTOR3>::allocator<D3DXVECTOR3>
; Function compile flags: /Ogty
; File c:\program files\microsoft visual studio .net 2003\vc7\include\xmemory
;	COMDAT ??0?$allocator@UD3DXVECTOR3@@@std@@QAE@XZ
_TEXT	SEGMENT
??0?$allocator@UD3DXVECTOR3@@@std@@QAE@XZ PROC NEAR	; std::allocator<D3DXVECTOR3>::allocator<D3DXVECTOR3>, COMDAT
; _this$ = ecx

; 111  : 	allocator()

  00000	8b c1		 mov	 eax, ecx

; 112  : 		{	// construct default allocator (do nothing)
; 113  : 		}

  00002	c3		 ret	 0
??0?$allocator@UD3DXVECTOR3@@@std@@QAE@XZ ENDP		; std::allocator<D3DXVECTOR3>::allocator<D3DXVECTOR3>
_TEXT	ENDS
PUBLIC	?_Myptr@?$basic_string@DU?$char_traits@D@std@@V?$allocator@D@2@@std@@QAEPADXZ ; std::basic_string<char,std::char_traits<char>,std::allocator<char> >::_Myptr
; Function compile flags: /Ogty
; File c:\program files\microsoft visual studio .net 2003\vc7\include\xstring
;	COMDAT ?_Myptr@?$basic_string@DU?$char_traits@D@std@@V?$allocator@D@2@@std@@QAEPADXZ
_TEXT	SEGMENT
?_Myptr@?$basic_string@DU?$char_traits@D@std@@V?$allocator@D@2@@std@@QAEPADXZ PROC NEAR ; std::basic_string<char,std::char_traits<char>,std::allocator<char> >::_Myptr, COMDAT
; _this$ = ecx

; 1532 : 		return (_BUF_SIZE <= _Myres ? _Bx._Ptr : _Bx._Buf);

  00000	83 79 18 10	 cmp	 DWORD PTR [ecx+24], 16	; 00000010H
  00004	72 04		 jb	 SHORT $L229561
  00006	8b 41 04	 mov	 eax, DWORD PTR [ecx+4]

; 1533 : 		}

  00009	c3		 ret	 0
$L229561:

; 1532 : 		return (_BUF_SIZE <= _Myres ? _Bx._Ptr : _Bx._Buf);

  0000a	8d 41 04	 lea	 eax, DWORD PTR [ecx+4]

; 1533 : 		}

  0000d	c3		 ret	 0
?_Myptr@?$basic_string@DU?$char_traits@D@std@@V?$allocator@D@2@@std@@QAEPADXZ ENDP ; std::basic_string<char,std::char_traits<char>,std::allocator<char> >::_Myptr
_TEXT	ENDS
PUBLIC	?deallocate@?$allocator@D@std@@QAEXPADI@Z	; std::allocator<char>::deallocate
; Function compile flags: /Ogty
; File c:\program files\microsoft visual studio .net 2003\vc7\include\xmemory
;	COMDAT ?deallocate@?$allocator@D@std@@QAEXPADI@Z
_TEXT	SEGMENT
__Ptr$ = 8						; size = 4
___formal$ = 12						; size = 4
?deallocate@?$allocator@D@std@@QAEXPADI@Z PROC NEAR	; std::allocator<char>::deallocate, COMDAT
; _this$ = ecx

; 132  : 		operator delete(_Ptr);

  00000	8b 44 24 04	 mov	 eax, DWORD PTR __Ptr$[esp-4]
  00004	50		 push	 eax
  00005	e8 00 00 00 00	 call	 ??3@YAXPAX@Z		; operator delete
  0000a	59		 pop	 ecx

; 133  : 		}

  0000b	c2 08 00	 ret	 8
?deallocate@?$allocator@D@std@@QAEXPADI@Z ENDP		; std::allocator<char>::deallocate
_TEXT	ENDS
PUBLIC	?_Left@?$_Tree@V?$_Tmap_traits@KHU?$less@K@std@@V?$allocator@U?$pair@$$CBKH@std@@@2@$0A@@std@@@std@@KAAAPAU_Node@?$_Tree_nod@V?$_Tmap_traits@KHU?$less@K@std@@V?$allocator@U?$pair@$$CBKH@std@@@2@$0A@@std@@@2@PAU342@@Z ; std::_Tree<std::_Tmap_traits<unsigned long,int,std::less<unsigned long>,std::allocator<std::pair<unsigned long const ,int> >,0> >::_Left
; Function compile flags: /Ogty
; File c:\program files\microsoft visual studio .net 2003\vc7\include\xtree
;	COMDAT ?_Left@?$_Tree@V?$_Tmap_traits@KHU?$less@K@std@@V?$allocator@U?$pair@$$CBKH@std@@@2@$0A@@std@@@std@@KAAAPAU_Node@?$_Tree_nod@V?$_Tmap_traits@KHU?$less@K@std@@V?$allocator@U?$pair@$$CBKH@std@@@2@$0A@@std@@@2@PAU342@@Z
_TEXT	SEGMENT
__Pnode$ = 8						; size = 4
?_Left@?$_Tree@V?$_Tmap_traits@KHU?$less@K@std@@V?$allocator@U?$pair@$$CBKH@std@@@2@$0A@@std@@@std@@KAAAPAU_Node@?$_Tree_nod@V?$_Tmap_traits@KHU?$less@K@std@@V?$allocator@U?$pair@$$CBKH@std@@@2@$0A@@std@@@2@PAU342@@Z PROC NEAR ; std::_Tree<std::_Tmap_traits<unsigned long,int,std::less<unsigned long>,std::allocator<std::pair<unsigned long const ,int> >,0> >::_Left, COMDAT

; 147  : 		return ((_Nodepref)(*_Pnode)._Left);

  00000	8b 44 24 04	 mov	 eax, DWORD PTR __Pnode$[esp-4]

; 148  : 		}

  00004	c3		 ret	 0
?_Left@?$_Tree@V?$_Tmap_traits@KHU?$less@K@std@@V?$allocator@U?$pair@$$CBKH@std@@@2@$0A@@std@@@std@@KAAAPAU_Node@?$_Tree_nod@V?$_Tmap_traits@KHU?$less@K@std@@V?$allocator@U?$pair@$$CBKH@std@@@2@$0A@@std@@@2@PAU342@@Z ENDP ; std::_Tree<std::_Tmap_traits<unsigned long,int,std::less<unsigned long>,std::allocator<std::pair<unsigned long const ,int> >,0> >::_Left
_TEXT	ENDS
PUBLIC	?_Parent@?$_Tree@V?$_Tmap_traits@KHU?$less@K@std@@V?$allocator@U?$pair@$$CBKH@std@@@2@$0A@@std@@@std@@KAAAPAU_Node@?$_Tree_nod@V?$_Tmap_traits@KHU?$less@K@std@@V?$allocator@U?$pair@$$CBKH@std@@@2@$0A@@std@@@2@PAU342@@Z ; std::_Tree<std::_Tmap_traits<unsigned long,int,std::less<unsigned long>,std::allocator<std::pair<unsigned long const ,int> >,0> >::_Parent
; Function compile flags: /Ogty
;	COMDAT ?_Parent@?$_Tree@V?$_Tmap_traits@KHU?$less@K@std@@V?$allocator@U?$pair@$$CBKH@std@@@2@$0A@@std@@@std@@KAAAPAU_Node@?$_Tree_nod@V?$_Tmap_traits@KHU?$less@K@std@@V?$allocator@U?$pair@$$CBKH@std@@@2@$0A@@std@@@2@PAU342@@Z
_TEXT	SEGMENT
__Pnode$ = 8						; size = 4
?_Parent@?$_Tree@V?$_Tmap_traits@KHU?$less@K@std@@V?$allocator@U?$pair@$$CBKH@std@@@2@$0A@@std@@@std@@KAAAPAU_Node@?$_Tree_nod@V?$_Tmap_traits@KHU?$less@K@std@@V?$allocator@U?$pair@$$CBKH@std@@@2@$0A@@std@@@2@PAU342@@Z PROC NEAR ; std::_Tree<std::_Tmap_traits<unsigned long,int,std::less<unsigned long>,std::allocator<std::pair<unsigned long const ,int> >,0> >::_Parent, COMDAT

; 152  : 		return ((_Nodepref)(*_Pnode)._Parent);

  00000	8b 44 24 04	 mov	 eax, DWORD PTR __Pnode$[esp-4]
  00004	83 c0 04	 add	 eax, 4

; 153  : 		}

  00007	c3		 ret	 0
?_Parent@?$_Tree@V?$_Tmap_traits@KHU?$less@K@std@@V?$allocator@U?$pair@$$CBKH@std@@@2@$0A@@std@@@std@@KAAAPAU_Node@?$_Tree_nod@V?$_Tmap_traits@KHU?$less@K@std@@V?$allocator@U?$pair@$$CBKH@std@@@2@$0A@@std@@@2@PAU342@@Z ENDP ; std::_Tree<std::_Tmap_traits<unsigned long,int,std::less<unsigned long>,std::allocator<std::pair<unsigned long const ,int> >,0> >::_Parent
_TEXT	ENDS
PUBLIC	?_Right@?$_Tree@V?$_Tmap_traits@KHU?$less@K@std@@V?$allocator@U?$pair@$$CBKH@std@@@2@$0A@@std@@@std@@KAAAPAU_Node@?$_Tree_nod@V?$_Tmap_traits@KHU?$less@K@std@@V?$allocator@U?$pair@$$CBKH@std@@@2@$0A@@std@@@2@PAU342@@Z ; std::_Tree<std::_Tmap_traits<unsigned long,int,std::less<unsigned long>,std::allocator<std::pair<unsigned long const ,int> >,0> >::_Right
; Function compile flags: /Ogty
;	COMDAT ?_Right@?$_Tree@V?$_Tmap_traits@KHU?$less@K@std@@V?$allocator@U?$pair@$$CBKH@std@@@2@$0A@@std@@@std@@KAAAPAU_Node@?$_Tree_nod@V?$_Tmap_traits@KHU?$less@K@std@@V?$allocator@U?$pair@$$CBKH@std@@@2@$0A@@std@@@2@PAU342@@Z
_TEXT	SEGMENT
__Pnode$ = 8						; size = 4
?_Right@?$_Tree@V?$_Tmap_traits@KHU?$less@K@std@@V?$allocator@U?$pair@$$CBKH@std@@@2@$0A@@std@@@std@@KAAAPAU_Node@?$_Tree_nod@V?$_Tmap_traits@KHU?$less@K@std@@V?$allocator@U?$pair@$$CBKH@std@@@2@$0A@@std@@@2@PAU342@@Z PROC NEAR ; std::_Tree<std::_Tmap_traits<unsigned long,int,std::less<unsigned long>,std::allocator<std::pair<unsigned long const ,int> >,0> >::_Right, COMDAT

; 157  : 		return ((_Nodepref)(*_Pnode)._Right);

  00000	8b 44 24 04	 mov	 eax, DWORD PTR __Pnode$[esp-4]
  00004	83 c0 08	 add	 eax, 8

; 158  : 		}

  00007	c3		 ret	 0
?_Right@?$_Tree@V?$_Tmap_traits@KHU?$less@K@std@@V?$allocator@U?$pair@$$CBKH@std@@@2@$0A@@std@@@std@@KAAAPAU_Node@?$_Tree_nod@V?$_Tmap_traits@KHU?$less@K@std@@V?$allocator@U?$pair@$$CBKH@std@@@2@$0A@@std@@@2@PAU342@@Z ENDP ; std::_Tree<std::_Tmap_traits<unsigned long,int,std::less<unsigned long>,std::allocator<std::pair<unsigned long const ,int> >,0> >::_Right
_TEXT	ENDS
PUBLIC	?deallocate@?$allocator@U_Node@?$_Tree_nod@V?$_Tmap_traits@KHU?$less@K@std@@V?$allocator@U?$pair@$$CBKH@std@@@2@$0A@@std@@@std@@@std@@QAEXPAU_Node@?$_Tree_nod@V?$_Tmap_traits@KHU?$less@K@std@@V?$allocator@U?$pair@$$CBKH@std@@@2@$0A@@std@@@2@I@Z ; std::allocator<std::_Tree_nod<std::_Tmap_traits<unsigned long,int,std::less<unsigned long>,std::allocator<std::pair<unsigned long const ,int> >,0> >::_Node>::deallocate
; Function compile flags: /Ogty
; File c:\program files\microsoft visual studio .net 2003\vc7\include\xmemory
;	COMDAT ?deallocate@?$allocator@U_Node@?$_Tree_nod@V?$_Tmap_traits@KHU?$less@K@std@@V?$allocator@U?$pair@$$CBKH@std@@@2@$0A@@std@@@std@@@std@@QAEXPAU_Node@?$_Tree_nod@V?$_Tmap_traits@KHU?$less@K@std@@V?$allocator@U?$pair@$$CBKH@std@@@2@$0A@@std@@@2@I@Z
_TEXT	SEGMENT
__Ptr$ = 8						; size = 4
___formal$ = 12						; size = 4
?deallocate@?$allocator@U_Node@?$_Tree_nod@V?$_Tmap_traits@KHU?$less@K@std@@V?$allocator@U?$pair@$$CBKH@std@@@2@$0A@@std@@@std@@@std@@QAEXPAU_Node@?$_Tree_nod@V?$_Tmap_traits@KHU?$less@K@std@@V?$allocator@U?$pair@$$CBKH@std@@@2@$0A@@std@@@2@I@Z PROC NEAR ; std::allocator<std::_Tree_nod<std::_Tmap_traits<unsigned long,int,std::less<unsigned long>,std::allocator<std::pair<unsigned long const ,int> >,0> >::_Node>::deallocate, COMDAT
; _this$ = ecx

; 132  : 		operator delete(_Ptr);

  00000	8b 44 24 04	 mov	 eax, DWORD PTR __Ptr$[esp-4]
  00004	50		 push	 eax
  00005	e8 00 00 00 00	 call	 ??3@YAXPAX@Z		; operator delete
  0000a	59		 pop	 ecx

; 133  : 		}

  0000b	c2 08 00	 ret	 8
?deallocate@?$allocator@U_Node@?$_Tree_nod@V?$_Tmap_traits@KHU?$less@K@std@@V?$allocator@U?$pair@$$CBKH@std@@@2@$0A@@std@@@std@@@std@@QAEXPAU_Node@?$_Tree_nod@V?$_Tmap_traits@KHU?$less@K@std@@V?$allocator@U?$pair@$$CBKH@std@@@2@$0A@@std@@@2@I@Z ENDP ; std::allocator<std::_Tree_nod<std::_Tmap_traits<unsigned long,int,std::less<unsigned long>,std::allocator<std::pair<unsigned long const ,int> >,0> >::_Node>::deallocate
_TEXT	ENDS
PUBLIC	??0?$allocator@UD3DXVECTOR3@@@std@@QAE@ABV01@@Z	; std::allocator<D3DXVECTOR3>::allocator<D3DXVECTOR3>
; Function compile flags: /Ogty
;	COMDAT ??0?$allocator@UD3DXVECTOR3@@@std@@QAE@ABV01@@Z
_TEXT	SEGMENT
___formal$ = 8						; size = 4
??0?$allocator@UD3DXVECTOR3@@@std@@QAE@ABV01@@Z PROC NEAR ; std::allocator<D3DXVECTOR3>::allocator<D3DXVECTOR3>, COMDAT
; _this$ = ecx

; 115  : 	allocator(const allocator<_Ty>&)

  00000	8b c1		 mov	 eax, ecx

; 116  : 		{	// construct by copying (do nothing)
; 117  : 		}

  00002	c2 04 00	 ret	 4
??0?$allocator@UD3DXVECTOR3@@@std@@QAE@ABV01@@Z ENDP	; std::allocator<D3DXVECTOR3>::allocator<D3DXVECTOR3>
_TEXT	ENDS
PUBLIC	?deallocate@?$allocator@UD3DXVECTOR3@@@std@@QAEXPAUD3DXVECTOR3@@I@Z ; std::allocator<D3DXVECTOR3>::deallocate
; Function compile flags: /Ogty
;	COMDAT ?deallocate@?$allocator@UD3DXVECTOR3@@@std@@QAEXPAUD3DXVECTOR3@@I@Z
_TEXT	SEGMENT
__Ptr$ = 8						; size = 4
___formal$ = 12						; size = 4
?deallocate@?$allocator@UD3DXVECTOR3@@@std@@QAEXPAUD3DXVECTOR3@@I@Z PROC NEAR ; std::allocator<D3DXVECTOR3>::deallocate, COMDAT
; _this$ = ecx

; 132  : 		operator delete(_Ptr);

  00000	8b 44 24 04	 mov	 eax, DWORD PTR __Ptr$[esp-4]
  00004	50		 push	 eax
  00005	e8 00 00 00 00	 call	 ??3@YAXPAX@Z		; operator delete
  0000a	59		 pop	 ecx

; 133  : 		}

  0000b	c2 08 00	 ret	 8
?deallocate@?$allocator@UD3DXVECTOR3@@@std@@QAEXPAUD3DXVECTOR3@@I@Z ENDP ; std::allocator<D3DXVECTOR3>::deallocate
_TEXT	ENDS
PUBLIC	?_Inside@?$basic_string@DU?$char_traits@D@std@@V?$allocator@D@2@@std@@IAE_NPBD@Z ; std::basic_string<char,std::char_traits<char>,std::allocator<char> >::_Inside
; Function compile flags: /Ogty
; File c:\program files\microsoft visual studio .net 2003\vc7\include\xstring
;	COMDAT ?_Inside@?$basic_string@DU?$char_traits@D@std@@V?$allocator@D@2@@std@@IAE_NPBD@Z
_TEXT	SEGMENT
__Ptr$ = 8						; size = 4
?_Inside@?$basic_string@DU?$char_traits@D@std@@V?$allocator@D@2@@std@@IAE_NPBD@Z PROC NEAR ; std::basic_string<char,std::char_traits<char>,std::allocator<char> >::_Inside, COMDAT
; _this$ = ecx

; 1494 : 		{	// test if _Ptr points inside string

  00000	56		 push	 esi

; 1495 : 		if (_Ptr < _Myptr() || _Myptr() + _Mysize <= _Ptr)

  00001	8b 71 18	 mov	 esi, DWORD PTR [ecx+24]
  00004	83 fe 10	 cmp	 esi, 16			; 00000010H
  00007	57		 push	 edi
  00008	8d 41 04	 lea	 eax, DWORD PTR [ecx+4]
  0000b	72 04		 jb	 SHORT $L229592
  0000d	8b 10		 mov	 edx, DWORD PTR [eax]
  0000f	eb 02		 jmp	 SHORT $L229593
$L229592:
  00011	8b d0		 mov	 edx, eax
$L229593:
  00013	8b 7c 24 0c	 mov	 edi, DWORD PTR __Ptr$[esp+4]
  00017	3b fa		 cmp	 edi, edx
  00019	72 17		 jb	 SHORT $L222788
  0001b	83 fe 10	 cmp	 esi, 16			; 00000010H
  0001e	72 02		 jb	 SHORT $L229600
  00020	8b 00		 mov	 eax, DWORD PTR [eax]
$L229600:
  00022	8b 49 14	 mov	 ecx, DWORD PTR [ecx+20]
  00025	03 c8		 add	 ecx, eax
  00027	3b cf		 cmp	 ecx, edi
  00029	76 07		 jbe	 SHORT $L222788
  0002b	5f		 pop	 edi

; 1497 : 		else
; 1498 : 			return (true);

  0002c	b0 01		 mov	 al, 1
  0002e	5e		 pop	 esi

; 1499 : 		}

  0002f	c2 04 00	 ret	 4
$L222788:
  00032	5f		 pop	 edi

; 1496 : 			return (false);	// don't ask

  00033	32 c0		 xor	 al, al
  00035	5e		 pop	 esi

; 1499 : 		}

  00036	c2 04 00	 ret	 4
?_Inside@?$basic_string@DU?$char_traits@D@std@@V?$allocator@D@2@@std@@IAE_NPBD@Z ENDP ; std::basic_string<char,std::char_traits<char>,std::allocator<char> >::_Inside
_TEXT	ENDS
PUBLIC	?_Lmost@?$_Tree@V?$_Tmap_traits@KHU?$less@K@std@@V?$allocator@U?$pair@$$CBKH@std@@@2@$0A@@std@@@std@@IAEAAPAU_Node@?$_Tree_nod@V?$_Tmap_traits@KHU?$less@K@std@@V?$allocator@U?$pair@$$CBKH@std@@@2@$0A@@std@@@2@XZ ; std::_Tree<std::_Tmap_traits<unsigned long,int,std::less<unsigned long>,std::allocator<std::pair<unsigned long const ,int> >,0> >::_Lmost
; Function compile flags: /Ogty
; File c:\program files\microsoft visual studio .net 2003\vc7\include\xtree
;	COMDAT ?_Lmost@?$_Tree@V?$_Tmap_traits@KHU?$less@K@std@@V?$allocator@U?$pair@$$CBKH@std@@@2@$0A@@std@@@std@@IAEAAPAU_Node@?$_Tree_nod@V?$_Tmap_traits@KHU?$less@K@std@@V?$allocator@U?$pair@$$CBKH@std@@@2@$0A@@std@@@2@XZ
_TEXT	SEGMENT
?_Lmost@?$_Tree@V?$_Tmap_traits@KHU?$less@K@std@@V?$allocator@U?$pair@$$CBKH@std@@@2@$0A@@std@@@std@@IAEAAPAU_Node@?$_Tree_nod@V?$_Tmap_traits@KHU?$less@K@std@@V?$allocator@U?$pair@$$CBKH@std@@@2@$0A@@std@@@2@XZ PROC NEAR ; std::_Tree<std::_Tmap_traits<unsigned long,int,std::less<unsigned long>,std::allocator<std::pair<unsigned long const ,int> >,0> >::_Lmost, COMDAT
; _this$ = ecx

; 1005 : 		return (_Left(_Myhead));

  00000	8b 41 04	 mov	 eax, DWORD PTR [ecx+4]

; 1006 : 		}

  00003	c3		 ret	 0
?_Lmost@?$_Tree@V?$_Tmap_traits@KHU?$less@K@std@@V?$allocator@U?$pair@$$CBKH@std@@@2@$0A@@std@@@std@@IAEAAPAU_Node@?$_Tree_nod@V?$_Tmap_traits@KHU?$less@K@std@@V?$allocator@U?$pair@$$CBKH@std@@@2@$0A@@std@@@2@XZ ENDP ; std::_Tree<std::_Tmap_traits<unsigned long,int,std::less<unsigned long>,std::allocator<std::pair<unsigned long const ,int> >,0> >::_Lmost
_TEXT	ENDS
PUBLIC	?max_size@?$allocator@UD3DXVECTOR3@@@std@@QBEIXZ ; std::allocator<D3DXVECTOR3>::max_size
; Function compile flags: /Ogty
; File c:\program files\microsoft visual studio .net 2003\vc7\include\xmemory
;	COMDAT ?max_size@?$allocator@UD3DXVECTOR3@@@std@@QBEIXZ
_TEXT	SEGMENT
?max_size@?$allocator@UD3DXVECTOR3@@@std@@QBEIXZ PROC NEAR ; std::allocator<D3DXVECTOR3>::max_size, COMDAT
; _this$ = ecx

; 157  : 		_SIZT _Count = (_SIZT)(-1) / sizeof (_Ty);
; 158  : 		return (0 < _Count ? _Count : 1);

  00000	b8 55 55 55 15	 mov	 eax, 357913941		; 15555555H

; 159  : 		}

  00005	c3		 ret	 0
?max_size@?$allocator@UD3DXVECTOR3@@@std@@QBEIXZ ENDP	; std::allocator<D3DXVECTOR3>::max_size
_TEXT	ENDS
PUBLIC	??8const_iterator@?$_Tree@V?$_Tmap_traits@KHU?$less@K@std@@V?$allocator@U?$pair@$$CBKH@std@@@2@$0A@@std@@@std@@QBE_NABV012@@Z ; std::_Tree<std::_Tmap_traits<unsigned long,int,std::less<unsigned long>,std::allocator<std::pair<unsigned long const ,int> >,0> >::const_iterator::operator==
; Function compile flags: /Ogty
; File c:\program files\microsoft visual studio .net 2003\vc7\include\xtree
;	COMDAT ??8const_iterator@?$_Tree@V?$_Tmap_traits@KHU?$less@K@std@@V?$allocator@U?$pair@$$CBKH@std@@@2@$0A@@std@@@std@@QBE_NABV012@@Z
_TEXT	SEGMENT
__Right$ = 8						; size = 4
??8const_iterator@?$_Tree@V?$_Tmap_traits@KHU?$less@K@std@@V?$allocator@U?$pair@$$CBKH@std@@@2@$0A@@std@@@std@@QBE_NABV012@@Z PROC NEAR ; std::_Tree<std::_Tmap_traits<unsigned long,int,std::less<unsigned long>,std::allocator<std::pair<unsigned long const ,int> >,0> >::const_iterator::operator==, COMDAT
; _this$ = ecx

; 241  : 			return (_Ptr == _Right._Ptr);

  00000	8b 01		 mov	 eax, DWORD PTR [ecx]
  00002	8b 4c 24 04	 mov	 ecx, DWORD PTR __Right$[esp-4]
  00006	2b 01		 sub	 eax, DWORD PTR [ecx]
  00008	f7 d8		 neg	 eax
  0000a	1b c0		 sbb	 eax, eax
  0000c	40		 inc	 eax

; 242  : 			}

  0000d	c2 04 00	 ret	 4
??8const_iterator@?$_Tree@V?$_Tmap_traits@KHU?$less@K@std@@V?$allocator@U?$pair@$$CBKH@std@@@2@$0A@@std@@@std@@QBE_NABV012@@Z ENDP ; std::_Tree<std::_Tmap_traits<unsigned long,int,std::less<unsigned long>,std::allocator<std::pair<unsigned long const ,int> >,0> >::const_iterator::operator==
_TEXT	ENDS
PUBLIC	??9const_iterator@?$_Tree@V?$_Tmap_traits@KHU?$less@K@std@@V?$allocator@U?$pair@$$CBKH@std@@@2@$0A@@std@@@std@@QBE_NABV012@@Z ; std::_Tree<std::_Tmap_traits<unsigned long,int,std::less<unsigned long>,std::allocator<std::pair<unsigned long const ,int> >,0> >::const_iterator::operator!=
; Function compile flags: /Ogty
;	COMDAT ??9const_iterator@?$_Tree@V?$_Tmap_traits@KHU?$less@K@std@@V?$allocator@U?$pair@$$CBKH@std@@@2@$0A@@std@@@std@@QBE_NABV012@@Z
_TEXT	SEGMENT
__Right$ = 8						; size = 4
??9const_iterator@?$_Tree@V?$_Tmap_traits@KHU?$less@K@std@@V?$allocator@U?$pair@$$CBKH@std@@@2@$0A@@std@@@std@@QBE_NABV012@@Z PROC NEAR ; std::_Tree<std::_Tmap_traits<unsigned long,int,std::less<unsigned long>,std::allocator<std::pair<unsigned long const ,int> >,0> >::const_iterator::operator!=, COMDAT
; _this$ = ecx

; 246  : 			return (!(*this == _Right));

  00000	8b 01		 mov	 eax, DWORD PTR [ecx]
  00002	8b 54 24 04	 mov	 edx, DWORD PTR __Right$[esp-4]
  00006	56		 push	 esi
  00007	8b 32		 mov	 esi, DWORD PTR [edx]
  00009	33 c9		 xor	 ecx, ecx
  0000b	3b c6		 cmp	 eax, esi
  0000d	0f 95 c1	 setne	 cl
  00010	8a c1		 mov	 al, cl
  00012	5e		 pop	 esi

; 247  : 			}

  00013	c2 04 00	 ret	 4
??9const_iterator@?$_Tree@V?$_Tmap_traits@KHU?$less@K@std@@V?$allocator@U?$pair@$$CBKH@std@@@2@$0A@@std@@@std@@QBE_NABV012@@Z ENDP ; std::_Tree<std::_Tmap_traits<unsigned long,int,std::less<unsigned long>,std::allocator<std::pair<unsigned long const ,int> >,0> >::const_iterator::operator!=
_TEXT	ENDS
PUBLIC	?max_size@?$allocator@D@std@@QBEIXZ		; std::allocator<char>::max_size
; Function compile flags: /Ogty
; File c:\program files\microsoft visual studio .net 2003\vc7\include\xmemory
;	COMDAT ?max_size@?$allocator@D@std@@QBEIXZ
_TEXT	SEGMENT
?max_size@?$allocator@D@std@@QBEIXZ PROC NEAR		; std::allocator<char>::max_size, COMDAT
; _this$ = ecx

; 157  : 		_SIZT _Count = (_SIZT)(-1) / sizeof (_Ty);
; 158  : 		return (0 < _Count ? _Count : 1);

  00000	83 c8 ff	 or	 eax, -1

; 159  : 		}

  00003	c3		 ret	 0
?max_size@?$allocator@D@std@@QBEIXZ ENDP		; std::allocator<char>::max_size
_TEXT	ENDS
PUBLIC	?_Color@?$_Tree@V?$_Tmap_traits@KHU?$less@K@std@@V?$allocator@U?$pair@$$CBKH@std@@@2@$0A@@std@@@std@@KAAADPAU_Node@?$_Tree_nod@V?$_Tmap_traits@KHU?$less@K@std@@V?$allocator@U?$pair@$$CBKH@std@@@2@$0A@@std@@@2@@Z ; std::_Tree<std::_Tmap_traits<unsigned long,int,std::less<unsigned long>,std::allocator<std::pair<unsigned long const ,int> >,0> >::_Color
; Function compile flags: /Ogty
; File c:\program files\microsoft visual studio .net 2003\vc7\include\xtree
;	COMDAT ?_Color@?$_Tree@V?$_Tmap_traits@KHU?$less@K@std@@V?$allocator@U?$pair@$$CBKH@std@@@2@$0A@@std@@@std@@KAAADPAU_Node@?$_Tree_nod@V?$_Tmap_traits@KHU?$less@K@std@@V?$allocator@U?$pair@$$CBKH@std@@@2@$0A@@std@@@2@@Z
_TEXT	SEGMENT
__Pnode$ = 8						; size = 4
?_Color@?$_Tree@V?$_Tmap_traits@KHU?$less@K@std@@V?$allocator@U?$pair@$$CBKH@std@@@2@$0A@@std@@@std@@KAAADPAU_Node@?$_Tree_nod@V?$_Tmap_traits@KHU?$less@K@std@@V?$allocator@U?$pair@$$CBKH@std@@@2@$0A@@std@@@2@@Z PROC NEAR ; std::_Tree<std::_Tmap_traits<unsigned long,int,std::less<unsigned long>,std::allocator<std::pair<unsigned long const ,int> >,0> >::_Color, COMDAT

; 132  : 		return ((_Charref)(*_Pnode)._Color);

  00000	8b 44 24 04	 mov	 eax, DWORD PTR __Pnode$[esp-4]
  00004	83 c0 14	 add	 eax, 20			; 00000014H

; 133  : 		}

  00007	c3		 ret	 0
?_Color@?$_Tree@V?$_Tmap_traits@KHU?$less@K@std@@V?$allocator@U?$pair@$$CBKH@std@@@2@$0A@@std@@@std@@KAAADPAU_Node@?$_Tree_nod@V?$_Tmap_traits@KHU?$less@K@std@@V?$allocator@U?$pair@$$CBKH@std@@@2@$0A@@std@@@2@@Z ENDP ; std::_Tree<std::_Tmap_traits<unsigned long,int,std::less<unsigned long>,std::allocator<std::pair<unsigned long const ,int> >,0> >::_Color
_TEXT	ENDS
PUBLIC	?_Isnil@?$_Tree@V?$_Tmap_traits@KHU?$less@K@std@@V?$allocator@U?$pair@$$CBKH@std@@@2@$0A@@std@@@std@@KAAADPAU_Node@?$_Tree_nod@V?$_Tmap_traits@KHU?$less@K@std@@V?$allocator@U?$pair@$$CBKH@std@@@2@$0A@@std@@@2@@Z ; std::_Tree<std::_Tmap_traits<unsigned long,int,std::less<unsigned long>,std::allocator<std::pair<unsigned long const ,int> >,0> >::_Isnil
; Function compile flags: /Ogty
;	COMDAT ?_Isnil@?$_Tree@V?$_Tmap_traits@KHU?$less@K@std@@V?$allocator@U?$pair@$$CBKH@std@@@2@$0A@@std@@@std@@KAAADPAU_Node@?$_Tree_nod@V?$_Tmap_traits@KHU?$less@K@std@@V?$allocator@U?$pair@$$CBKH@std@@@2@$0A@@std@@@2@@Z
_TEXT	SEGMENT
__Pnode$ = 8						; size = 4
?_Isnil@?$_Tree@V?$_Tmap_traits@KHU?$less@K@std@@V?$allocator@U?$pair@$$CBKH@std@@@2@$0A@@std@@@std@@KAAADPAU_Node@?$_Tree_nod@V?$_Tmap_traits@KHU?$less@K@std@@V?$allocator@U?$pair@$$CBKH@std@@@2@$0A@@std@@@2@@Z PROC NEAR ; std::_Tree<std::_Tmap_traits<unsigned long,int,std::less<unsigned long>,std::allocator<std::pair<unsigned long const ,int> >,0> >::_Isnil, COMDAT

; 137  : 		return ((_Charref)(*_Pnode)._Isnil);

  00000	8b 44 24 04	 mov	 eax, DWORD PTR __Pnode$[esp-4]
  00004	83 c0 15	 add	 eax, 21			; 00000015H

; 138  : 		}

  00007	c3		 ret	 0
?_Isnil@?$_Tree@V?$_Tmap_traits@KHU?$less@K@std@@V?$allocator@U?$pair@$$CBKH@std@@@2@$0A@@std@@@std@@KAAADPAU_Node@?$_Tree_nod@V?$_Tmap_traits@KHU?$less@K@std@@V?$allocator@U?$pair@$$CBKH@std@@@2@$0A@@std@@@2@@Z ENDP ; std::_Tree<std::_Tmap_traits<unsigned long,int,std::less<unsigned long>,std::allocator<std::pair<unsigned long const ,int> >,0> >::_Isnil
_TEXT	ENDS
PUBLIC	?_Max@?$_Tree@V?$_Tmap_traits@KHU?$less@K@std@@V?$allocator@U?$pair@$$CBKH@std@@@2@$0A@@std@@@std@@KAPAU_Node@?$_Tree_nod@V?$_Tmap_traits@KHU?$less@K@std@@V?$allocator@U?$pair@$$CBKH@std@@@2@$0A@@std@@@2@PAU342@@Z ; std::_Tree<std::_Tmap_traits<unsigned long,int,std::less<unsigned long>,std::allocator<std::pair<unsigned long const ,int> >,0> >::_Max
; Function compile flags: /Ogty
;	COMDAT ?_Max@?$_Tree@V?$_Tmap_traits@KHU?$less@K@std@@V?$allocator@U?$pair@$$CBKH@std@@@2@$0A@@std@@@std@@KAPAU_Node@?$_Tree_nod@V?$_Tmap_traits@KHU?$less@K@std@@V?$allocator@U?$pair@$$CBKH@std@@@2@$0A@@std@@@2@PAU342@@Z
_TEXT	SEGMENT
__Pnode$ = 8						; size = 4
?_Max@?$_Tree@V?$_Tmap_traits@KHU?$less@K@std@@V?$allocator@U?$pair@$$CBKH@std@@@2@$0A@@std@@@std@@KAPAU_Node@?$_Tree_nod@V?$_Tmap_traits@KHU?$less@K@std@@V?$allocator@U?$pair@$$CBKH@std@@@2@$0A@@std@@@2@PAU342@@Z PROC NEAR ; std::_Tree<std::_Tmap_traits<unsigned long,int,std::less<unsigned long>,std::allocator<std::pair<unsigned long const ,int> >,0> >::_Max, COMDAT

; 1035 : 		while (!_Isnil(_Right(_Pnode)))

  00000	8b 44 24 04	 mov	 eax, DWORD PTR __Pnode$[esp-4]
  00004	8b 48 08	 mov	 ecx, DWORD PTR [eax+8]
  00007	8a 51 15	 mov	 dl, BYTE PTR [ecx+21]
  0000a	84 d2		 test	 dl, dl
  0000c	75 0e		 jne	 SHORT $L223707
  0000e	8b ff		 npad	 2
$L223706:

; 1036 : 			_Pnode = _Right(_Pnode);

  00010	8b c1		 mov	 eax, ecx
  00012	8b 48 08	 mov	 ecx, DWORD PTR [eax+8]
  00015	8a 51 15	 mov	 dl, BYTE PTR [ecx+21]
  00018	84 d2		 test	 dl, dl
  0001a	74 f4		 je	 SHORT $L223706
$L223707:

; 1037 : 		return (_Pnode);
; 1038 : 		}

  0001c	c3		 ret	 0
?_Max@?$_Tree@V?$_Tmap_traits@KHU?$less@K@std@@V?$allocator@U?$pair@$$CBKH@std@@@2@$0A@@std@@@std@@KAPAU_Node@?$_Tree_nod@V?$_Tmap_traits@KHU?$less@K@std@@V?$allocator@U?$pair@$$CBKH@std@@@2@$0A@@std@@@2@PAU342@@Z ENDP ; std::_Tree<std::_Tmap_traits<unsigned long,int,std::less<unsigned long>,std::allocator<std::pair<unsigned long const ,int> >,0> >::_Max
_TEXT	ENDS
PUBLIC	?_Min@?$_Tree@V?$_Tmap_traits@KHU?$less@K@std@@V?$allocator@U?$pair@$$CBKH@std@@@2@$0A@@std@@@std@@KAPAU_Node@?$_Tree_nod@V?$_Tmap_traits@KHU?$less@K@std@@V?$allocator@U?$pair@$$CBKH@std@@@2@$0A@@std@@@2@PAU342@@Z ; std::_Tree<std::_Tmap_traits<unsigned long,int,std::less<unsigned long>,std::allocator<std::pair<unsigned long const ,int> >,0> >::_Min
; Function compile flags: /Ogty
;	COMDAT ?_Min@?$_Tree@V?$_Tmap_traits@KHU?$less@K@std@@V?$allocator@U?$pair@$$CBKH@std@@@2@$0A@@std@@@std@@KAPAU_Node@?$_Tree_nod@V?$_Tmap_traits@KHU?$less@K@std@@V?$allocator@U?$pair@$$CBKH@std@@@2@$0A@@std@@@2@PAU342@@Z
_TEXT	SEGMENT
__Pnode$ = 8						; size = 4
?_Min@?$_Tree@V?$_Tmap_traits@KHU?$less@K@std@@V?$allocator@U?$pair@$$CBKH@std@@@2@$0A@@std@@@std@@KAPAU_Node@?$_Tree_nod@V?$_Tmap_traits@KHU?$less@K@std@@V?$allocator@U?$pair@$$CBKH@std@@@2@$0A@@std@@@2@PAU342@@Z PROC NEAR ; std::_Tree<std::_Tmap_traits<unsigned long,int,std::less<unsigned long>,std::allocator<std::pair<unsigned long const ,int> >,0> >::_Min, COMDAT

; 1042 : 		while (!_Isnil(_Left(_Pnode)))

  00000	8b 44 24 04	 mov	 eax, DWORD PTR __Pnode$[esp-4]
  00004	8b 08		 mov	 ecx, DWORD PTR [eax]
  00006	8a 51 15	 mov	 dl, BYTE PTR [ecx+21]
  00009	84 d2		 test	 dl, dl
  0000b	75 0e		 jne	 SHORT $L223711
  0000d	8d 49 00	 npad	 3
$L223710:

; 1043 : 			_Pnode = _Left(_Pnode);

  00010	8b c1		 mov	 eax, ecx
  00012	8b 08		 mov	 ecx, DWORD PTR [eax]
  00014	8a 51 15	 mov	 dl, BYTE PTR [ecx+21]
  00017	84 d2		 test	 dl, dl
  00019	74 f5		 je	 SHORT $L223710
$L223711:

; 1044 : 		return (_Pnode);
; 1045 : 		}

  0001b	c3		 ret	 0
?_Min@?$_Tree@V?$_Tmap_traits@KHU?$less@K@std@@V?$allocator@U?$pair@$$CBKH@std@@@2@$0A@@std@@@std@@KAPAU_Node@?$_Tree_nod@V?$_Tmap_traits@KHU?$less@K@std@@V?$allocator@U?$pair@$$CBKH@std@@@2@$0A@@std@@@2@PAU342@@Z ENDP ; std::_Tree<std::_Tmap_traits<unsigned long,int,std::less<unsigned long>,std::allocator<std::pair<unsigned long const ,int> >,0> >::_Min
_TEXT	ENDS
PUBLIC	?_Rmost@?$_Tree@V?$_Tmap_traits@KHU?$less@K@std@@V?$allocator@U?$pair@$$CBKH@std@@@2@$0A@@std@@@std@@IAEAAPAU_Node@?$_Tree_nod@V?$_Tmap_traits@KHU?$less@K@std@@V?$allocator@U?$pair@$$CBKH@std@@@2@$0A@@std@@@2@XZ ; std::_Tree<std::_Tmap_traits<unsigned long,int,std::less<unsigned long>,std::allocator<std::pair<unsigned long const ,int> >,0> >::_Rmost
; Function compile flags: /Ogty
;	COMDAT ?_Rmost@?$_Tree@V?$_Tmap_traits@KHU?$less@K@std@@V?$allocator@U?$pair@$$CBKH@std@@@2@$0A@@std@@@std@@IAEAAPAU_Node@?$_Tree_nod@V?$_Tmap_traits@KHU?$less@K@std@@V?$allocator@U?$pair@$$CBKH@std@@@2@$0A@@std@@@2@XZ
_TEXT	SEGMENT
?_Rmost@?$_Tree@V?$_Tmap_traits@KHU?$less@K@std@@V?$allocator@U?$pair@$$CBKH@std@@@2@$0A@@std@@@std@@IAEAAPAU_Node@?$_Tree_nod@V?$_Tmap_traits@KHU?$less@K@std@@V?$allocator@U?$pair@$$CBKH@std@@@2@$0A@@std@@@2@XZ PROC NEAR ; std::_Tree<std::_Tmap_traits<unsigned long,int,std::less<unsigned long>,std::allocator<std::pair<unsigned long const ,int> >,0> >::_Rmost, COMDAT
; _this$ = ecx

; 1049 : 		return (_Right(_Myhead));

  00000	8b 41 04	 mov	 eax, DWORD PTR [ecx+4]
  00003	83 c0 08	 add	 eax, 8

; 1050 : 		}

  00006	c3		 ret	 0
?_Rmost@?$_Tree@V?$_Tmap_traits@KHU?$less@K@std@@V?$allocator@U?$pair@$$CBKH@std@@@2@$0A@@std@@@std@@IAEAAPAU_Node@?$_Tree_nod@V?$_Tmap_traits@KHU?$less@K@std@@V?$allocator@U?$pair@$$CBKH@std@@@2@$0A@@std@@@2@XZ ENDP ; std::_Tree<std::_Tmap_traits<unsigned long,int,std::less<unsigned long>,std::allocator<std::pair<unsigned long const ,int> >,0> >::_Rmost
_TEXT	ENDS
PUBLIC	?_Root@?$_Tree@V?$_Tmap_traits@KHU?$less@K@std@@V?$allocator@U?$pair@$$CBKH@std@@@2@$0A@@std@@@std@@IAEAAPAU_Node@?$_Tree_nod@V?$_Tmap_traits@KHU?$less@K@std@@V?$allocator@U?$pair@$$CBKH@std@@@2@$0A@@std@@@2@XZ ; std::_Tree<std::_Tmap_traits<unsigned long,int,std::less<unsigned long>,std::allocator<std::pair<unsigned long const ,int> >,0> >::_Root
; Function compile flags: /Ogty
;	COMDAT ?_Root@?$_Tree@V?$_Tmap_traits@KHU?$less@K@std@@V?$allocator@U?$pair@$$CBKH@std@@@2@$0A@@std@@@std@@IAEAAPAU_Node@?$_Tree_nod@V?$_Tmap_traits@KHU?$less@K@std@@V?$allocator@U?$pair@$$CBKH@std@@@2@$0A@@std@@@2@XZ
_TEXT	SEGMENT
?_Root@?$_Tree@V?$_Tmap_traits@KHU?$less@K@std@@V?$allocator@U?$pair@$$CBKH@std@@@2@$0A@@std@@@std@@IAEAAPAU_Node@?$_Tree_nod@V?$_Tmap_traits@KHU?$less@K@std@@V?$allocator@U?$pair@$$CBKH@std@@@2@$0A@@std@@@2@XZ PROC NEAR ; std::_Tree<std::_Tmap_traits<unsigned long,int,std::less<unsigned long>,std::allocator<std::pair<unsigned long const ,int> >,0> >::_Root, COMDAT
; _this$ = ecx

; 1059 : 		return (_Parent(_Myhead));

  00000	8b 41 04	 mov	 eax, DWORD PTR [ecx+4]
  00003	83 c0 04	 add	 eax, 4

; 1060 : 		}

  00006	c3		 ret	 0
?_Root@?$_Tree@V?$_Tmap_traits@KHU?$less@K@std@@V?$allocator@U?$pair@$$CBKH@std@@@2@$0A@@std@@@std@@IAEAAPAU_Node@?$_Tree_nod@V?$_Tmap_traits@KHU?$less@K@std@@V?$allocator@U?$pair@$$CBKH@std@@@2@$0A@@std@@@2@XZ ENDP ; std::_Tree<std::_Tmap_traits<unsigned long,int,std::less<unsigned long>,std::allocator<std::pair<unsigned long const ,int> >,0> >::_Root
_TEXT	ENDS
PUBLIC	?_Rrotate@?$_Tree@V?$_Tmap_traits@KHU?$less@K@std@@V?$allocator@U?$pair@$$CBKH@std@@@2@$0A@@std@@@std@@IAEXPAU_Node@?$_Tree_nod@V?$_Tmap_traits@KHU?$less@K@std@@V?$allocator@U?$pair@$$CBKH@std@@@2@$0A@@std@@@2@@Z ; std::_Tree<std::_Tmap_traits<unsigned long,int,std::less<unsigned long>,std::allocator<std::pair<unsigned long const ,int> >,0> >::_Rrotate
; Function compile flags: /Ogty
;	COMDAT ?_Rrotate@?$_Tree@V?$_Tmap_traits@KHU?$less@K@std@@V?$allocator@U?$pair@$$CBKH@std@@@2@$0A@@std@@@std@@IAEXPAU_Node@?$_Tree_nod@V?$_Tmap_traits@KHU?$less@K@std@@V?$allocator@U?$pair@$$CBKH@std@@@2@$0A@@std@@@2@@Z
_TEXT	SEGMENT
__Wherenode$ = 8					; size = 4
?_Rrotate@?$_Tree@V?$_Tmap_traits@KHU?$less@K@std@@V?$allocator@U?$pair@$$CBKH@std@@@2@$0A@@std@@@std@@IAEXPAU_Node@?$_Tree_nod@V?$_Tmap_traits@KHU?$less@K@std@@V?$allocator@U?$pair@$$CBKH@std@@@2@$0A@@std@@@2@@Z PROC NEAR ; std::_Tree<std::_Tmap_traits<unsigned long,int,std::less<unsigned long>,std::allocator<std::pair<unsigned long const ,int> >,0> >::_Rrotate, COMDAT
; _this$ = ecx

; 1069 : 		_Nodeptr _Pnode = _Left(_Wherenode);

  00000	8b 54 24 04	 mov	 edx, DWORD PTR __Wherenode$[esp-4]
  00004	8b 02		 mov	 eax, DWORD PTR [edx]
  00006	53		 push	 ebx
  00007	56		 push	 esi

; 1070 : 		_Left(_Wherenode) = _Right(_Pnode);

  00008	8b 70 08	 mov	 esi, DWORD PTR [eax+8]
  0000b	89 32		 mov	 DWORD PTR [edx], esi

; 1071 : 
; 1072 : 		if (!_Isnil(_Right(_Pnode)))

  0000d	8b 70 08	 mov	 esi, DWORD PTR [eax+8]
  00010	8a 5e 15	 mov	 bl, BYTE PTR [esi+21]
  00013	84 db		 test	 bl, bl
  00015	75 03		 jne	 SHORT $L223719

; 1073 : 			_Parent(_Right(_Pnode)) = _Wherenode;

  00017	89 56 04	 mov	 DWORD PTR [esi+4], edx
$L223719:

; 1074 : 		_Parent(_Pnode) = _Parent(_Wherenode);

  0001a	8b 72 04	 mov	 esi, DWORD PTR [edx+4]
  0001d	89 70 04	 mov	 DWORD PTR [eax+4], esi

; 1075 : 
; 1076 : 		if (_Wherenode == _Root())

  00020	8b 49 04	 mov	 ecx, DWORD PTR [ecx+4]
  00023	3b 51 04	 cmp	 edx, DWORD PTR [ecx+4]
  00026	75 0e		 jne	 SHORT $L223720

; 1077 : 			_Root() = _Pnode;

  00028	89 41 04	 mov	 DWORD PTR [ecx+4], eax
  0002b	5e		 pop	 esi

; 1082 : 
; 1083 : 		_Right(_Pnode) = _Wherenode;

  0002c	89 50 08	 mov	 DWORD PTR [eax+8], edx

; 1084 : 		_Parent(_Wherenode) = _Pnode;

  0002f	89 42 04	 mov	 DWORD PTR [edx+4], eax
  00032	5b		 pop	 ebx

; 1085 : 		}

  00033	c2 04 00	 ret	 4
$L223720:

; 1078 : 		else if (_Wherenode == _Right(_Parent(_Wherenode)))

  00036	8b 4a 04	 mov	 ecx, DWORD PTR [edx+4]
  00039	3b 51 08	 cmp	 edx, DWORD PTR [ecx+8]
  0003c	75 0e		 jne	 SHORT $L223722

; 1079 : 			_Right(_Parent(_Wherenode)) = _Pnode;

  0003e	89 41 08	 mov	 DWORD PTR [ecx+8], eax
  00041	5e		 pop	 esi

; 1082 : 
; 1083 : 		_Right(_Pnode) = _Wherenode;

  00042	89 50 08	 mov	 DWORD PTR [eax+8], edx

; 1084 : 		_Parent(_Wherenode) = _Pnode;

  00045	89 42 04	 mov	 DWORD PTR [edx+4], eax
  00048	5b		 pop	 ebx

; 1085 : 		}

  00049	c2 04 00	 ret	 4
$L223722:

; 1080 : 		else
; 1081 : 			_Left(_Parent(_Wherenode)) = _Pnode;

  0004c	89 01		 mov	 DWORD PTR [ecx], eax
  0004e	5e		 pop	 esi

; 1082 : 
; 1083 : 		_Right(_Pnode) = _Wherenode;

  0004f	89 50 08	 mov	 DWORD PTR [eax+8], edx

; 1084 : 		_Parent(_Wherenode) = _Pnode;

  00052	89 42 04	 mov	 DWORD PTR [edx+4], eax
  00055	5b		 pop	 ebx

; 1085 : 		}

  00056	c2 04 00	 ret	 4
?_Rrotate@?$_Tree@V?$_Tmap_traits@KHU?$less@K@std@@V?$allocator@U?$pair@$$CBKH@std@@@2@$0A@@std@@@std@@IAEXPAU_Node@?$_Tree_nod@V?$_Tmap_traits@KHU?$less@K@std@@V?$allocator@U?$pair@$$CBKH@std@@@2@$0A@@std@@@2@@Z ENDP ; std::_Tree<std::_Tmap_traits<unsigned long,int,std::less<unsigned long>,std::allocator<std::pair<unsigned long const ,int> >,0> >::_Rrotate
_TEXT	ENDS
PUBLIC	??0const_iterator@?$_Tree@V?$_Tmap_traits@KHU?$less@K@std@@V?$allocator@U?$pair@$$CBKH@std@@@2@$0A@@std@@@std@@QAE@PAU_Node@?$_Tree_nod@V?$_Tmap_traits@KHU?$less@K@std@@V?$allocator@U?$pair@$$CBKH@std@@@2@$0A@@std@@@2@@Z ; std::_Tree<std::_Tmap_traits<unsigned long,int,std::less<unsigned long>,std::allocator<std::pair<unsigned long const ,int> >,0> >::const_iterator::const_iterator
; Function compile flags: /Ogty
;	COMDAT ??0const_iterator@?$_Tree@V?$_Tmap_traits@KHU?$less@K@std@@V?$allocator@U?$pair@$$CBKH@std@@@2@$0A@@std@@@std@@QAE@PAU_Node@?$_Tree_nod@V?$_Tmap_traits@KHU?$less@K@std@@V?$allocator@U?$pair@$$CBKH@std@@@2@$0A@@std@@@2@@Z
_TEXT	SEGMENT
__Pnode$ = 8						; size = 4
??0const_iterator@?$_Tree@V?$_Tmap_traits@KHU?$less@K@std@@V?$allocator@U?$pair@$$CBKH@std@@@2@$0A@@std@@@std@@QAE@PAU_Node@?$_Tree_nod@V?$_Tmap_traits@KHU?$less@K@std@@V?$allocator@U?$pair@$$CBKH@std@@@2@$0A@@std@@@2@@Z PROC NEAR ; std::_Tree<std::_Tmap_traits<unsigned long,int,std::less<unsigned long>,std::allocator<std::pair<unsigned long const ,int> >,0> >::const_iterator::const_iterator, COMDAT
; _this$ = ecx

; 200  : 			{	// construct with node pointer _Pnode

  00000	8b c1		 mov	 eax, ecx
  00002	8b 4c 24 04	 mov	 ecx, DWORD PTR __Pnode$[esp-4]
  00006	89 08		 mov	 DWORD PTR [eax], ecx

; 201  : 			}

  00008	c2 04 00	 ret	 4
??0const_iterator@?$_Tree@V?$_Tmap_traits@KHU?$less@K@std@@V?$allocator@U?$pair@$$CBKH@std@@@2@$0A@@std@@@std@@QAE@PAU_Node@?$_Tree_nod@V?$_Tmap_traits@KHU?$less@K@std@@V?$allocator@U?$pair@$$CBKH@std@@@2@$0A@@std@@@2@@Z ENDP ; std::_Tree<std::_Tmap_traits<unsigned long,int,std::less<unsigned long>,std::allocator<std::pair<unsigned long const ,int> >,0> >::const_iterator::const_iterator
_TEXT	ENDS
PUBLIC	?_Mynode@const_iterator@?$_Tree@V?$_Tmap_traits@KHU?$less@K@std@@V?$allocator@U?$pair@$$CBKH@std@@@2@$0A@@std@@@std@@QBEPAU_Node@?$_Tree_nod@V?$_Tmap_traits@KHU?$less@K@std@@V?$allocator@U?$pair@$$CBKH@std@@@2@$0A@@std@@@3@XZ ; std::_Tree<std::_Tmap_traits<unsigned long,int,std::less<unsigned long>,std::allocator<std::pair<unsigned long const ,int> >,0> >::const_iterator::_Mynode
; Function compile flags: /Ogty
;	COMDAT ?_Mynode@const_iterator@?$_Tree@V?$_Tmap_traits@KHU?$less@K@std@@V?$allocator@U?$pair@$$CBKH@std@@@2@$0A@@std@@@std@@QBEPAU_Node@?$_Tree_nod@V?$_Tmap_traits@KHU?$less@K@std@@V?$allocator@U?$pair@$$CBKH@std@@@2@$0A@@std@@@3@XZ
_TEXT	SEGMENT
?_Mynode@const_iterator@?$_Tree@V?$_Tmap_traits@KHU?$less@K@std@@V?$allocator@U?$pair@$$CBKH@std@@@2@$0A@@std@@@std@@QBEPAU_Node@?$_Tree_nod@V?$_Tmap_traits@KHU?$less@K@std@@V?$allocator@U?$pair@$$CBKH@std@@@2@$0A@@std@@@3@XZ PROC NEAR ; std::_Tree<std::_Tmap_traits<unsigned long,int,std::less<unsigned long>,std::allocator<std::pair<unsigned long const ,int> >,0> >::const_iterator::_Mynode, COMDAT
; _this$ = ecx

; 284  : 			return (_Ptr);

  00000	8b 01		 mov	 eax, DWORD PTR [ecx]

; 285  : 			}

  00002	c3		 ret	 0
?_Mynode@const_iterator@?$_Tree@V?$_Tmap_traits@KHU?$less@K@std@@V?$allocator@U?$pair@$$CBKH@std@@@2@$0A@@std@@@std@@QBEPAU_Node@?$_Tree_nod@V?$_Tmap_traits@KHU?$less@K@std@@V?$allocator@U?$pair@$$CBKH@std@@@2@$0A@@std@@@3@XZ ENDP ; std::_Tree<std::_Tmap_traits<unsigned long,int,std::less<unsigned long>,std::allocator<std::pair<unsigned long const ,int> >,0> >::const_iterator::_Mynode
_TEXT	ENDS
PUBLIC	?_Inc@const_iterator@?$_Tree@V?$_Tmap_traits@KHU?$less@K@std@@V?$allocator@U?$pair@$$CBKH@std@@@2@$0A@@std@@@std@@QAEXXZ ; std::_Tree<std::_Tmap_traits<unsigned long,int,std::less<unsigned long>,std::allocator<std::pair<unsigned long const ,int> >,0> >::const_iterator::_Inc
; Function compile flags: /Ogty
;	COMDAT ?_Inc@const_iterator@?$_Tree@V?$_Tmap_traits@KHU?$less@K@std@@V?$allocator@U?$pair@$$CBKH@std@@@2@$0A@@std@@@std@@QAEXXZ
_TEXT	SEGMENT
?_Inc@const_iterator@?$_Tree@V?$_Tmap_traits@KHU?$less@K@std@@V?$allocator@U?$pair@$$CBKH@std@@@2@$0A@@std@@@std@@QAEXXZ PROC NEAR ; std::_Tree<std::_Tmap_traits<unsigned long,int,std::less<unsigned long>,std::allocator<std::pair<unsigned long const ,int> >,0> >::const_iterator::_Inc, COMDAT
; _this$ = ecx

; 268  : 			if (_Isnil(_Ptr))

  00000	8b 01		 mov	 eax, DWORD PTR [ecx]
  00002	8a 50 15	 mov	 dl, BYTE PTR [eax+21]
  00005	84 d2		 test	 dl, dl
  00007	75 4d		 jne	 SHORT $L224052

; 269  : 				;	// end() shouldn't be incremented, don't move
; 270  : 			else if (!_Isnil(_Right(_Ptr)))

  00009	8b 50 08	 mov	 edx, DWORD PTR [eax+8]
  0000c	53		 push	 ebx
  0000d	8a 5a 15	 mov	 bl, BYTE PTR [edx+21]
  00010	84 db		 test	 bl, bl
  00012	75 1b		 jne	 SHORT $L229799

; 271  : 				_Ptr = _Min(_Right(_Ptr));	// ==> smallest of right subtree

  00014	8b 02		 mov	 eax, DWORD PTR [edx]
  00016	8a 58 15	 mov	 bl, BYTE PTR [eax+21]
  00019	84 db		 test	 bl, bl
  0001b	75 0e		 jne	 SHORT $L229787
  0001d	8d 49 00	 npad	 3
$L229786:
  00020	8b d0		 mov	 edx, eax
  00022	8b 02		 mov	 eax, DWORD PTR [edx]
  00024	8a 58 15	 mov	 bl, BYTE PTR [eax+21]
  00027	84 db		 test	 bl, bl
  00029	74 f5		 je	 SHORT $L229786
$L229787:
  0002b	89 11		 mov	 DWORD PTR [ecx], edx
  0002d	5b		 pop	 ebx

; 279  : 				}
; 280  : 			}

  0002e	c3		 ret	 0
$L229799:

; 272  : 			else
; 273  : 				{	// climb looking for right subtree
; 274  : 				_Nodeptr _Pnode;
; 275  : 				while (!_Isnil(_Pnode = _Parent(_Ptr))
; 276  : 					&& _Ptr == _Right(_Pnode))

  0002f	8b 40 04	 mov	 eax, DWORD PTR [eax+4]
  00032	8a 50 15	 mov	 dl, BYTE PTR [eax+21]
  00035	84 d2		 test	 dl, dl
  00037	75 1a		 jne	 SHORT $L224056
  00039	8d a4 24 00 00
	00 00		 npad	 7
$L224055:
  00040	8b 11		 mov	 edx, DWORD PTR [ecx]
  00042	3b 50 08	 cmp	 edx, DWORD PTR [eax+8]
  00045	75 0c		 jne	 SHORT $L224056

; 277  : 					_Ptr = _Pnode;	// ==> parent while right subtree

  00047	89 01		 mov	 DWORD PTR [ecx], eax
  00049	8b 40 04	 mov	 eax, DWORD PTR [eax+4]
  0004c	8a 50 15	 mov	 dl, BYTE PTR [eax+21]
  0004f	84 d2		 test	 dl, dl
  00051	74 ed		 je	 SHORT $L224055
$L224056:

; 278  : 				_Ptr = _Pnode;	// ==> parent (head if end())

  00053	89 01		 mov	 DWORD PTR [ecx], eax
  00055	5b		 pop	 ebx
$L224052:

; 279  : 				}
; 280  : 			}

  00056	c3		 ret	 0
?_Inc@const_iterator@?$_Tree@V?$_Tmap_traits@KHU?$less@K@std@@V?$allocator@U?$pair@$$CBKH@std@@@2@$0A@@std@@@std@@QAEXXZ ENDP ; std::_Tree<std::_Tmap_traits<unsigned long,int,std::less<unsigned long>,std::allocator<std::pair<unsigned long const ,int> >,0> >::const_iterator::_Inc
_TEXT	ENDS
PUBLIC	??$swap@D@std@@YAXAAD0@Z			; std::swap<char>
; Function compile flags: /Ogty
; File c:\program files\microsoft visual studio .net 2003\vc7\include\utility
;	COMDAT ??$swap@D@std@@YAXAAD0@Z
_TEXT	SEGMENT
__Left$ = 8						; size = 4
__Right$ = 12						; size = 4
??$swap@D@std@@YAXAAD0@Z PROC NEAR			; std::swap<char>, COMDAT

; 15   : 	_Ty _Tmp = _Left;

  00000	8b 44 24 04	 mov	 eax, DWORD PTR __Left$[esp-4]
  00004	8a 08		 mov	 cl, BYTE PTR [eax]
  00006	56		 push	 esi

; 16   : 	_Left = _Right, _Right = _Tmp;

  00007	8b 74 24 0c	 mov	 esi, DWORD PTR __Right$[esp]
  0000b	8a 16		 mov	 dl, BYTE PTR [esi]
  0000d	88 10		 mov	 BYTE PTR [eax], dl
  0000f	88 0e		 mov	 BYTE PTR [esi], cl
  00011	5e		 pop	 esi

; 17   : 	}

  00012	c3		 ret	 0
??$swap@D@std@@YAXAAD0@Z ENDP				; std::swap<char>
_TEXT	ENDS
PUBLIC	??$_Destroy@PAU_Node@?$_Tree_nod@V?$_Tmap_traits@KHU?$less@K@std@@V?$allocator@U?$pair@$$CBKH@std@@@2@$0A@@std@@@std@@@std@@YAXPAPAU_Node@?$_Tree_nod@V?$_Tmap_traits@KHU?$less@K@std@@V?$allocator@U?$pair@$$CBKH@std@@@2@$0A@@std@@@0@@Z ; std::_Destroy<std::_Tree_nod<std::_Tmap_traits<unsigned long,int,std::less<unsigned long>,std::allocator<std::pair<unsigned long const ,int> >,0> >::_Node *>
; Function compile flags: /Ogty
; File c:\program files\microsoft visual studio .net 2003\vc7\include\xmemory
;	COMDAT ??$_Destroy@PAU_Node@?$_Tree_nod@V?$_Tmap_traits@KHU?$less@K@std@@V?$allocator@U?$pair@$$CBKH@std@@@2@$0A@@std@@@std@@@std@@YAXPAPAU_Node@?$_Tree_nod@V?$_Tmap_traits@KHU?$less@K@std@@V?$allocator@U?$pair@$$CBKH@std@@@2@$0A@@std@@@0@@Z
_TEXT	SEGMENT
__Ptr$ = 8						; size = 4
??$_Destroy@PAU_Node@?$_Tree_nod@V?$_Tmap_traits@KHU?$less@K@std@@V?$allocator@U?$pair@$$CBKH@std@@@2@$0A@@std@@@std@@@std@@YAXPAPAU_Node@?$_Tree_nod@V?$_Tmap_traits@KHU?$less@K@std@@V?$allocator@U?$pair@$$CBKH@std@@@2@$0A@@std@@@0@@Z PROC NEAR ; std::_Destroy<std::_Tree_nod<std::_Tmap_traits<unsigned long,int,std::less<unsigned long>,std::allocator<std::pair<unsigned long const ,int> >,0> >::_Node *>, COMDAT

; 49   : 	_DESTRUCTOR(_Ty, _Ptr);
; 50   : 	}

  00000	c3		 ret	 0
??$_Destroy@PAU_Node@?$_Tree_nod@V?$_Tmap_traits@KHU?$less@K@std@@V?$allocator@U?$pair@$$CBKH@std@@@2@$0A@@std@@@std@@@std@@YAXPAPAU_Node@?$_Tree_nod@V?$_Tmap_traits@KHU?$less@K@std@@V?$allocator@U?$pair@$$CBKH@std@@@2@$0A@@std@@@0@@Z ENDP ; std::_Destroy<std::_Tree_nod<std::_Tmap_traits<unsigned long,int,std::less<unsigned long>,std::allocator<std::pair<unsigned long const ,int> >,0> >::_Node *>
_TEXT	ENDS
PUBLIC	??$_Allocate@UD3DXVECTOR3@@@std@@YAPAUD3DXVECTOR3@@IPAU1@@Z ; std::_Allocate<D3DXVECTOR3>
; Function compile flags: /Ogty
;	COMDAT ??$_Allocate@UD3DXVECTOR3@@@std@@YAPAUD3DXVECTOR3@@IPAU1@@Z
_TEXT	SEGMENT
__Count$ = 8						; size = 4
___formal$ = 12						; size = 4
??$_Allocate@UD3DXVECTOR3@@@std@@YAPAUD3DXVECTOR3@@IPAU1@@Z PROC NEAR ; std::_Allocate<D3DXVECTOR3>, COMDAT

; 34   : 	return ((_Ty _FARQ *)operator new(_Count * sizeof (_Ty)));

  00000	8b 44 24 04	 mov	 eax, DWORD PTR __Count$[esp-4]
  00004	8d 04 40	 lea	 eax, DWORD PTR [eax+eax*2]
  00007	c1 e0 02	 shl	 eax, 2
  0000a	50		 push	 eax
  0000b	e8 00 00 00 00	 call	 ??2@YAPAXI@Z		; operator new
  00010	83 c4 04	 add	 esp, 4

; 35   : 	}

  00013	c3		 ret	 0
??$_Allocate@UD3DXVECTOR3@@@std@@YAPAUD3DXVECTOR3@@IPAU1@@Z ENDP ; std::_Allocate<D3DXVECTOR3>
_TEXT	ENDS
PUBLIC	??$_Allocate@D@std@@YAPADIPAD@Z			; std::_Allocate<char>
; Function compile flags: /Ogty
;	COMDAT ??$_Allocate@D@std@@YAPADIPAD@Z
_TEXT	SEGMENT
__Count$ = 8						; size = 4
___formal$ = 12						; size = 4
??$_Allocate@D@std@@YAPADIPAD@Z PROC NEAR		; std::_Allocate<char>, COMDAT

; 34   : 	return ((_Ty _FARQ *)operator new(_Count * sizeof (_Ty)));

  00000	8b 44 24 04	 mov	 eax, DWORD PTR __Count$[esp-4]
  00004	50		 push	 eax
  00005	e8 00 00 00 00	 call	 ??2@YAPAXI@Z		; operator new
  0000a	83 c4 04	 add	 esp, 4

; 35   : 	}

  0000d	c3		 ret	 0
??$_Allocate@D@std@@YAPADIPAD@Z ENDP			; std::_Allocate<char>
_TEXT	ENDS
PUBLIC	??$_Destroy@U_Node@?$_Tree_nod@V?$_Tmap_traits@KHU?$less@K@std@@V?$allocator@U?$pair@$$CBKH@std@@@2@$0A@@std@@@std@@@std@@YAXPAU_Node@?$_Tree_nod@V?$_Tmap_traits@KHU?$less@K@std@@V?$allocator@U?$pair@$$CBKH@std@@@2@$0A@@std@@@0@@Z ; std::_Destroy<std::_Tree_nod<std::_Tmap_traits<unsigned long,int,std::less<unsigned long>,std::allocator<std::pair<unsigned long const ,int> >,0> >::_Node>
; Function compile flags: /Ogty
;	COMDAT ??$_Destroy@U_Node@?$_Tree_nod@V?$_Tmap_traits@KHU?$less@K@std@@V?$allocator@U?$pair@$$CBKH@std@@@2@$0A@@std@@@std@@@std@@YAXPAU_Node@?$_Tree_nod@V?$_Tmap_traits@KHU?$less@K@std@@V?$allocator@U?$pair@$$CBKH@std@@@2@$0A@@std@@@0@@Z
_TEXT	SEGMENT
__Ptr$ = 8						; size = 4
??$_Destroy@U_Node@?$_Tree_nod@V?$_Tmap_traits@KHU?$less@K@std@@V?$allocator@U?$pair@$$CBKH@std@@@2@$0A@@std@@@std@@@std@@YAXPAU_Node@?$_Tree_nod@V?$_Tmap_traits@KHU?$less@K@std@@V?$allocator@U?$pair@$$CBKH@std@@@2@$0A@@std@@@0@@Z PROC NEAR ; std::_Destroy<std::_Tree_nod<std::_Tmap_traits<unsigned long,int,std::less<unsigned long>,std::allocator<std::pair<unsigned long const ,int> >,0> >::_Node>, COMDAT

; 49   : 	_DESTRUCTOR(_Ty, _Ptr);
; 50   : 	}

  00000	c3		 ret	 0
??$_Destroy@U_Node@?$_Tree_nod@V?$_Tmap_traits@KHU?$less@K@std@@V?$allocator@U?$pair@$$CBKH@std@@@2@$0A@@std@@@std@@@std@@YAXPAU_Node@?$_Tree_nod@V?$_Tmap_traits@KHU?$less@K@std@@V?$allocator@U?$pair@$$CBKH@std@@@2@$0A@@std@@@0@@Z ENDP ; std::_Destroy<std::_Tree_nod<std::_Tmap_traits<unsigned long,int,std::less<unsigned long>,std::allocator<std::pair<unsigned long const ,int> >,0> >::_Node>
_TEXT	ENDS
PUBLIC	??1_VECINFO@@QAE@XZ				; _VECINFO::~_VECINFO
; Function compile flags: /Ogty
;	COMDAT ??1_VECINFO@@QAE@XZ
_TEXT	SEGMENT
??1_VECINFO@@QAE@XZ PROC NEAR				; _VECINFO::~_VECINFO, COMDAT
; _this$ = ecx
  00000	c7 41 18 00 00
	00 00		 mov	 DWORD PTR [ecx+24], OFFSET FLAT:??_7CTimer@@6B@
  00007	c3		 ret	 0
??1_VECINFO@@QAE@XZ ENDP				; _VECINFO::~_VECINFO
_TEXT	ENDS
PUBLIC	??4_VECINFO@@QAEAAU0@ABU0@@Z			; _VECINFO::operator=
; Function compile flags: /Ogty
;	COMDAT ??4_VECINFO@@QAEAAU0@ABU0@@Z
_TEXT	SEGMENT
___that$ = 8						; size = 4
??4_VECINFO@@QAEAAU0@ABU0@@Z PROC NEAR			; _VECINFO::operator=, COMDAT
; _this$ = ecx
  00000	8b c1		 mov	 eax, ecx
  00002	8b 4c 24 04	 mov	 ecx, DWORD PTR ___that$[esp-4]
  00006	56		 push	 esi
  00007	57		 push	 edi
  00008	8b d1		 mov	 edx, ecx
  0000a	8b 3a		 mov	 edi, DWORD PTR [edx]
  0000c	8b f0		 mov	 esi, eax
  0000e	89 3e		 mov	 DWORD PTR [esi], edi
  00010	8b 7a 04	 mov	 edi, DWORD PTR [edx+4]
  00013	89 7e 04	 mov	 DWORD PTR [esi+4], edi
  00016	8b 52 08	 mov	 edx, DWORD PTR [edx+8]
  00019	89 56 08	 mov	 DWORD PTR [esi+8], edx
  0001c	8b 51 0c	 mov	 edx, DWORD PTR [ecx+12]
  0001f	89 50 0c	 mov	 DWORD PTR [eax+12], edx
  00022	8b 51 10	 mov	 edx, DWORD PTR [ecx+16]
  00025	89 50 10	 mov	 DWORD PTR [eax+16], edx
  00028	8b 51 14	 mov	 edx, DWORD PTR [ecx+20]
  0002b	89 50 14	 mov	 DWORD PTR [eax+20], edx
  0002e	dd 41 20	 fld	 QWORD PTR [ecx+32]
  00031	dd 58 20	 fstp	 QWORD PTR [eax+32]
  00034	5f		 pop	 edi
  00035	dd 41 28	 fld	 QWORD PTR [ecx+40]
  00038	5e		 pop	 esi
  00039	dd 58 28	 fstp	 QWORD PTR [eax+40]
  0003c	8b 49 30	 mov	 ecx, DWORD PTR [ecx+48]
  0003f	89 48 30	 mov	 DWORD PTR [eax+48], ecx
  00042	c2 04 00	 ret	 4
??4_VECINFO@@QAEAAU0@ABU0@@Z ENDP			; _VECINFO::operator=
_TEXT	ENDS
PUBLIC	??0_VECINFO@@QAE@XZ				; _VECINFO::_VECINFO
EXTRN	??0CTimer@@QAE@XZ:NEAR				; CTimer::CTimer
; Function compile flags: /Ogty
;	COMDAT ??0_VECINFO@@QAE@XZ
_TEXT	SEGMENT
??0_VECINFO@@QAE@XZ PROC NEAR				; _VECINFO::_VECINFO, COMDAT
; _this$ = ecx
  00000	56		 push	 esi
  00001	8b f1		 mov	 esi, ecx
  00003	8d 4e 18	 lea	 ecx, DWORD PTR [esi+24]
  00006	e8 00 00 00 00	 call	 ??0CTimer@@QAE@XZ	; CTimer::CTimer
  0000b	8b c6		 mov	 eax, esi
  0000d	5e		 pop	 esi
  0000e	c3		 ret	 0
??0_VECINFO@@QAE@XZ ENDP				; _VECINFO::_VECINFO
_TEXT	ENDS
PUBLIC	??0_VECINFO@@QAE@ABU0@@Z			; _VECINFO::_VECINFO
; Function compile flags: /Ogty
;	COMDAT ??0_VECINFO@@QAE@ABU0@@Z
_TEXT	SEGMENT
___that$ = 8						; size = 4
??0_VECINFO@@QAE@ABU0@@Z PROC NEAR			; _VECINFO::_VECINFO, COMDAT
; _this$ = ecx
  00000	8b c1		 mov	 eax, ecx
  00002	8b 4c 24 04	 mov	 ecx, DWORD PTR ___that$[esp-4]
  00006	56		 push	 esi
  00007	57		 push	 edi
  00008	8b d1		 mov	 edx, ecx
  0000a	8b 3a		 mov	 edi, DWORD PTR [edx]
  0000c	8b f0		 mov	 esi, eax
  0000e	89 3e		 mov	 DWORD PTR [esi], edi
  00010	8b 7a 04	 mov	 edi, DWORD PTR [edx+4]
  00013	89 7e 04	 mov	 DWORD PTR [esi+4], edi
  00016	8b 52 08	 mov	 edx, DWORD PTR [edx+8]
  00019	89 56 08	 mov	 DWORD PTR [esi+8], edx
  0001c	8b 51 0c	 mov	 edx, DWORD PTR [ecx+12]
  0001f	89 50 0c	 mov	 DWORD PTR [eax+12], edx
  00022	8b 51 10	 mov	 edx, DWORD PTR [ecx+16]
  00025	89 50 10	 mov	 DWORD PTR [eax+16], edx
  00028	8b 51 14	 mov	 edx, DWORD PTR [ecx+20]
  0002b	89 50 14	 mov	 DWORD PTR [eax+20], edx
  0002e	c7 40 18 00 00
	00 00		 mov	 DWORD PTR [eax+24], OFFSET FLAT:??_7CTimer@@6B@
  00035	dd 41 20	 fld	 QWORD PTR [ecx+32]
  00038	dd 58 20	 fstp	 QWORD PTR [eax+32]
  0003b	5f		 pop	 edi
  0003c	dd 41 28	 fld	 QWORD PTR [ecx+40]
  0003f	5e		 pop	 esi
  00040	dd 58 28	 fstp	 QWORD PTR [eax+40]
  00043	8b 49 30	 mov	 ecx, DWORD PTR [ecx+48]
  00046	89 48 30	 mov	 DWORD PTR [eax+48], ecx
  00049	c2 04 00	 ret	 4
??0_VECINFO@@QAE@ABU0@@Z ENDP				; _VECINFO::_VECINFO
_TEXT	ENDS
PUBLIC	?Compare@?$CStringT@DV?$StrTraitMFC@DV?$ChTraitsCRT@D@ATL@@@@@ATL@@QBEHPBD@Z ; ATL::CStringT<char,StrTraitMFC<char,ATL::ChTraitsCRT<char> > >::Compare
; Function compile flags: /Ogty
; File c:\program files\microsoft visual studio .net 2003\vc7\atlmfc\include\cstringt.h
;	COMDAT ?Compare@?$CStringT@DV?$StrTraitMFC@DV?$ChTraitsCRT@D@ATL@@@@@ATL@@QBEHPBD@Z
_TEXT	SEGMENT
_psz$ = 8						; size = 4
?Compare@?$CStringT@DV?$StrTraitMFC@DV?$ChTraitsCRT@D@ATL@@@@@ATL@@QBEHPBD@Z PROC NEAR ; ATL::CStringT<char,StrTraitMFC<char,ATL::ChTraitsCRT<char> > >::Compare, COMDAT
; _this$ = ecx

; 1088 : 		ATLASSERT( AtlIsValidString( psz ) );
; 1089 : 		return( StringTraits::StringCompare( GetString(), psz ) );

  00000	8b 44 24 04	 mov	 eax, DWORD PTR _psz$[esp-4]
  00004	8b 09		 mov	 ecx, DWORD PTR [ecx]
  00006	50		 push	 eax
  00007	51		 push	 ecx
  00008	e8 00 00 00 00	 call	 __mbscmp
  0000d	83 c4 08	 add	 esp, 8

; 1090 : 	}

  00010	c2 04 00	 ret	 4
?Compare@?$CStringT@DV?$StrTraitMFC@DV?$ChTraitsCRT@D@ATL@@@@@ATL@@QBEHPBD@Z ENDP ; ATL::CStringT<char,StrTraitMFC<char,ATL::ChTraitsCRT<char> > >::Compare
_TEXT	ENDS
PUBLIC	?_Key@?$_Tree@V?$_Tmap_traits@KV?$vector@U_VECINFO@@V?$allocator@U_VECINFO@@@std@@@std@@U?$less@K@2@V?$allocator@U?$pair@$$CBKV?$vector@U_VECINFO@@V?$allocator@U_VECINFO@@@std@@@std@@@std@@@2@$0A@@std@@@std@@KAABKPAU_Node@?$_Tree_nod@V?$_Tmap_traits@KV?$vector@U_VECINFO@@V?$allocator@U_VECINFO@@@std@@@std@@U?$less@K@2@V?$allocator@U?$pair@$$CBKV?$vector@U_VECINFO@@V?$allocator@U_VECINFO@@@std@@@std@@@std@@@2@$0A@@std@@@2@@Z ; std::_Tree<std::_Tmap_traits<unsigned long,std::vector<_VECINFO,std::allocator<_VECINFO> >,std::less<unsigned long>,std::allocator<std::pair<unsigned long const ,std::vector<_VECINFO,std::allocator<_VECINFO> > > >,0> >::_Key
; Function compile flags: /Ogty
; File c:\program files\microsoft visual studio .net 2003\vc7\include\xtree
;	COMDAT ?_Key@?$_Tree@V?$_Tmap_traits@KV?$vector@U_VECINFO@@V?$allocator@U_VECINFO@@@std@@@std@@U?$less@K@2@V?$allocator@U?$pair@$$CBKV?$vector@U_VECINFO@@V?$allocator@U_VECINFO@@@std@@@std@@@std@@@2@$0A@@std@@@std@@KAABKPAU_Node@?$_Tree_nod@V?$_Tmap_traits@KV?$vector@U_VECINFO@@V?$allocator@U_VECINFO@@@std@@@std@@U?$less@K@2@V?$allocator@U?$pair@$$CBKV?$vector@U_VECINFO@@V?$allocator@U_VECINFO@@@std@@@std@@@std@@@2@$0A@@std@@@2@@Z
_TEXT	SEGMENT
__Pnode$ = 8						; size = 4
?_Key@?$_Tree@V?$_Tmap_traits@KV?$vector@U_VECINFO@@V?$allocator@U_VECINFO@@@std@@@std@@U?$less@K@2@V?$allocator@U?$pair@$$CBKV?$vector@U_VECINFO@@V?$allocator@U_VECINFO@@@std@@@std@@@std@@@2@$0A@@std@@@std@@KAABKPAU_Node@?$_Tree_nod@V?$_Tmap_traits@KV?$vector@U_VECINFO@@V?$allocator@U_VECINFO@@@std@@@std@@U?$less@K@2@V?$allocator@U?$pair@$$CBKV?$vector@U_VECINFO@@V?$allocator@U_VECINFO@@@std@@@std@@@std@@@2@$0A@@std@@@2@@Z PROC NEAR ; std::_Tree<std::_Tmap_traits<unsigned long,std::vector<_VECINFO,std::allocator<_VECINFO> >,std::less<unsigned long>,std::allocator<std::pair<unsigned long const ,std::vector<_VECINFO,std::allocator<_VECINFO> > > >,0> >::_Key, COMDAT

; 142  : 		return (_Mybase::_Kfn(_Myval(_Pnode)));

  00000	8b 44 24 04	 mov	 eax, DWORD PTR __Pnode$[esp-4]
  00004	83 c0 0c	 add	 eax, 12			; 0000000cH

; 143  : 		}

  00007	c3		 ret	 0
?_Key@?$_Tree@V?$_Tmap_traits@KV?$vector@U_VECINFO@@V?$allocator@U_VECINFO@@@std@@@std@@U?$less@K@2@V?$allocator@U?$pair@$$CBKV?$vector@U_VECINFO@@V?$allocator@U_VECINFO@@@std@@@std@@@std@@@2@$0A@@std@@@std@@KAABKPAU_Node@?$_Tree_nod@V?$_Tmap_traits@KV?$vector@U_VECINFO@@V?$allocator@U_VECINFO@@@std@@@std@@U?$less@K@2@V?$allocator@U?$pair@$$CBKV?$vector@U_VECINFO@@V?$allocator@U_VECINFO@@@std@@@std@@@std@@@2@$0A@@std@@@2@@Z ENDP ; std::_Tree<std::_Tmap_traits<unsigned long,std::vector<_VECINFO,std::allocator<_VECINFO> >,std::less<unsigned long>,std::allocator<std::pair<unsigned long const ,std::vector<_VECINFO,std::allocator<_VECINFO> > > >,0> >::_Key
_TEXT	ENDS
PUBLIC	?_Root@?$_Tree@V?$_Tmap_traits@KV?$vector@U_VECINFO@@V?$allocator@U_VECINFO@@@std@@@std@@U?$less@K@2@V?$allocator@U?$pair@$$CBKV?$vector@U_VECINFO@@V?$allocator@U_VECINFO@@@std@@@std@@@std@@@2@$0A@@std@@@std@@IAEAAPAU_Node@?$_Tree_nod@V?$_Tmap_traits@KV?$vector@U_VECINFO@@V?$allocator@U_VECINFO@@@std@@@std@@U?$less@K@2@V?$allocator@U?$pair@$$CBKV?$vector@U_VECINFO@@V?$allocator@U_VECINFO@@@std@@@std@@@std@@@2@$0A@@std@@@2@XZ ; std::_Tree<std::_Tmap_traits<unsigned long,std::vector<_VECINFO,std::allocator<_VECINFO> >,std::less<unsigned long>,std::allocator<std::pair<unsigned long const ,std::vector<_VECINFO,std::allocator<_VECINFO> > > >,0> >::_Root
; Function compile flags: /Ogty
;	COMDAT ?_Root@?$_Tree@V?$_Tmap_traits@KV?$vector@U_VECINFO@@V?$allocator@U_VECINFO@@@std@@@std@@U?$less@K@2@V?$allocator@U?$pair@$$CBKV?$vector@U_VECINFO@@V?$allocator@U_VECINFO@@@std@@@std@@@std@@@2@$0A@@std@@@std@@IAEAAPAU_Node@?$_Tree_nod@V?$_Tmap_traits@KV?$vector@U_VECINFO@@V?$allocator@U_VECINFO@@@std@@@std@@U?$less@K@2@V?$allocator@U?$pair@$$CBKV?$vector@U_VECINFO@@V?$allocator@U_VECINFO@@@std@@@std@@@std@@@2@$0A@@std@@@2@XZ
_TEXT	SEGMENT
?_Root@?$_Tree@V?$_Tmap_traits@KV?$vector@U_VECINFO@@V?$allocator@U_VECINFO@@@std@@@std@@U?$less@K@2@V?$allocator@U?$pair@$$CBKV?$vector@U_VECINFO@@V?$allocator@U_VECINFO@@@std@@@std@@@std@@@2@$0A@@std@@@std@@IAEAAPAU_Node@?$_Tree_nod@V?$_Tmap_traits@KV?$vector@U_VECINFO@@V?$allocator@U_VECINFO@@@std@@@std@@U?$less@K@2@V?$allocator@U?$pair@$$CBKV?$vector@U_VECINFO@@V?$allocator@U_VECINFO@@@std@@@std@@@std@@@2@$0A@@std@@@2@XZ PROC NEAR ; std::_Tree<std::_Tmap_traits<unsigned long,std::vector<_VECINFO,std::allocator<_VECINFO> >,std::less<unsigned long>,std::allocator<std::pair<unsigned long const ,std::vector<_VECINFO,std::allocator<_VECINFO> > > >,0> >::_Root, COMDAT
; _this$ = ecx

; 1059 : 		return (_Parent(_Myhead));

  00000	8b 41 04	 mov	 eax, DWORD PTR [ecx+4]
  00003	83 c0 04	 add	 eax, 4

; 1060 : 		}

  00006	c3		 ret	 0
?_Root@?$_Tree@V?$_Tmap_traits@KV?$vector@U_VECINFO@@V?$allocator@U_VECINFO@@@std@@@std@@U?$less@K@2@V?$allocator@U?$pair@$$CBKV?$vector@U_VECINFO@@V?$allocator@U_VECINFO@@@std@@@std@@@std@@@2@$0A@@std@@@std@@IAEAAPAU_Node@?$_Tree_nod@V?$_Tmap_traits@KV?$vector@U_VECINFO@@V?$allocator@U_VECINFO@@@std@@@std@@U?$less@K@2@V?$allocator@U?$pair@$$CBKV?$vector@U_VECINFO@@V?$allocator@U_VECINFO@@@std@@@std@@@std@@@2@$0A@@std@@@2@XZ ENDP ; std::_Tree<std::_Tmap_traits<unsigned long,std::vector<_VECINFO,std::allocator<_VECINFO> >,std::less<unsigned long>,std::allocator<std::pair<unsigned long const ,std::vector<_VECINFO,std::allocator<_VECINFO> > > >,0> >::_Root
_TEXT	ENDS
PUBLIC	??0iterator@?$_Tree@V?$_Tmap_traits@KV?$vector@U_VECINFO@@V?$allocator@U_VECINFO@@@std@@@std@@U?$less@K@2@V?$allocator@U?$pair@$$CBKV?$vector@U_VECINFO@@V?$allocator@U_VECINFO@@@std@@@std@@@std@@@2@$0A@@std@@@std@@QAE@PAU_Node@?$_Tree_nod@V?$_Tmap_traits@KV?$vector@U_VECINFO@@V?$allocator@U_VECINFO@@@std@@@std@@U?$less@K@2@V?$allocator@U?$pair@$$CBKV?$vector@U_VECINFO@@V?$allocator@U_VECINFO@@@std@@@std@@@std@@@2@$0A@@std@@@2@@Z ; std::_Tree<std::_Tmap_traits<unsigned long,std::vector<_VECINFO,std::allocator<_VECINFO> >,std::less<unsigned long>,std::allocator<std::pair<unsigned long const ,std::vector<_VECINFO,std::allocator<_VECINFO> > > >,0> >::iterator::iterator
; Function compile flags: /Ogty
;	COMDAT ??0iterator@?$_Tree@V?$_Tmap_traits@KV?$vector@U_VECINFO@@V?$allocator@U_VECINFO@@@std@@@std@@U?$less@K@2@V?$allocator@U?$pair@$$CBKV?$vector@U_VECINFO@@V?$allocator@U_VECINFO@@@std@@@std@@@std@@@2@$0A@@std@@@std@@QAE@PAU_Node@?$_Tree_nod@V?$_Tmap_traits@KV?$vector@U_VECINFO@@V?$allocator@U_VECINFO@@@std@@@std@@U?$less@K@2@V?$allocator@U?$pair@$$CBKV?$vector@U_VECINFO@@V?$allocator@U_VECINFO@@@std@@@std@@@std@@@2@$0A@@std@@@2@@Z
_TEXT	SEGMENT
__Pnode$ = 8						; size = 4
??0iterator@?$_Tree@V?$_Tmap_traits@KV?$vector@U_VECINFO@@V?$allocator@U_VECINFO@@@std@@@std@@U?$less@K@2@V?$allocator@U?$pair@$$CBKV?$vector@U_VECINFO@@V?$allocator@U_VECINFO@@@std@@@std@@@std@@@2@$0A@@std@@@std@@QAE@PAU_Node@?$_Tree_nod@V?$_Tmap_traits@KV?$vector@U_VECINFO@@V?$allocator@U_VECINFO@@@std@@@std@@U?$less@K@2@V?$allocator@U?$pair@$$CBKV?$vector@U_VECINFO@@V?$allocator@U_VECINFO@@@std@@@std@@@std@@@2@$0A@@std@@@2@@Z PROC NEAR ; std::_Tree<std::_Tmap_traits<unsigned long,std::vector<_VECINFO,std::allocator<_VECINFO> >,std::less<unsigned long>,std::allocator<std::pair<unsigned long const ,std::vector<_VECINFO,std::allocator<_VECINFO> > > >,0> >::iterator::iterator, COMDAT
; _this$ = ecx

; 312  : 			{	// construct with node pointer _Pnode

  00000	8b c1		 mov	 eax, ecx
  00002	8b 4c 24 04	 mov	 ecx, DWORD PTR __Pnode$[esp-4]
  00006	89 08		 mov	 DWORD PTR [eax], ecx

; 313  : 			}

  00008	c2 04 00	 ret	 4
??0iterator@?$_Tree@V?$_Tmap_traits@KV?$vector@U_VECINFO@@V?$allocator@U_VECINFO@@@std@@@std@@U?$less@K@2@V?$allocator@U?$pair@$$CBKV?$vector@U_VECINFO@@V?$allocator@U_VECINFO@@@std@@@std@@@std@@@2@$0A@@std@@@std@@QAE@PAU_Node@?$_Tree_nod@V?$_Tmap_traits@KV?$vector@U_VECINFO@@V?$allocator@U_VECINFO@@@std@@@std@@U?$less@K@2@V?$allocator@U?$pair@$$CBKV?$vector@U_VECINFO@@V?$allocator@U_VECINFO@@@std@@@std@@@std@@@2@$0A@@std@@@2@@Z ENDP ; std::_Tree<std::_Tmap_traits<unsigned long,std::vector<_VECINFO,std::allocator<_VECINFO> >,std::less<unsigned long>,std::allocator<std::pair<unsigned long const ,std::vector<_VECINFO,std::allocator<_VECINFO> > > >,0> >::iterator::iterator
_TEXT	ENDS
PUBLIC	??Diterator@?$_Tree@V?$_Tmap_traits@KV?$vector@U_VECINFO@@V?$allocator@U_VECINFO@@@std@@@std@@U?$less@K@2@V?$allocator@U?$pair@$$CBKV?$vector@U_VECINFO@@V?$allocator@U_VECINFO@@@std@@@std@@@std@@@2@$0A@@std@@@std@@QBEAAU?$pair@$$CBKV?$vector@U_VECINFO@@V?$allocator@U_VECINFO@@@std@@@std@@@2@XZ ; std::_Tree<std::_Tmap_traits<unsigned long,std::vector<_VECINFO,std::allocator<_VECINFO> >,std::less<unsigned long>,std::allocator<std::pair<unsigned long const ,std::vector<_VECINFO,std::allocator<_VECINFO> > > >,0> >::iterator::operator*
; Function compile flags: /Ogty
;	COMDAT ??Diterator@?$_Tree@V?$_Tmap_traits@KV?$vector@U_VECINFO@@V?$allocator@U_VECINFO@@@std@@@std@@U?$less@K@2@V?$allocator@U?$pair@$$CBKV?$vector@U_VECINFO@@V?$allocator@U_VECINFO@@@std@@@std@@@std@@@2@$0A@@std@@@std@@QBEAAU?$pair@$$CBKV?$vector@U_VECINFO@@V?$allocator@U_VECINFO@@@std@@@std@@@2@XZ
_TEXT	SEGMENT
??Diterator@?$_Tree@V?$_Tmap_traits@KV?$vector@U_VECINFO@@V?$allocator@U_VECINFO@@@std@@@std@@U?$less@K@2@V?$allocator@U?$pair@$$CBKV?$vector@U_VECINFO@@V?$allocator@U_VECINFO@@@std@@@std@@@std@@@2@$0A@@std@@@std@@QBEAAU?$pair@$$CBKV?$vector@U_VECINFO@@V?$allocator@U_VECINFO@@@std@@@std@@@2@XZ PROC NEAR ; std::_Tree<std::_Tmap_traits<unsigned long,std::vector<_VECINFO,std::allocator<_VECINFO> >,std::less<unsigned long>,std::allocator<std::pair<unsigned long const ,std::vector<_VECINFO,std::allocator<_VECINFO> > > >,0> >::iterator::operator*, COMDAT
; _this$ = ecx

; 317  : 			return ((reference)**(const_iterator *)this);

  00000	8b 01		 mov	 eax, DWORD PTR [ecx]
  00002	83 c0 0c	 add	 eax, 12			; 0000000cH

; 318  : 			}

  00005	c3		 ret	 0
??Diterator@?$_Tree@V?$_Tmap_traits@KV?$vector@U_VECINFO@@V?$allocator@U_VECINFO@@@std@@@std@@U?$less@K@2@V?$allocator@U?$pair@$$CBKV?$vector@U_VECINFO@@V?$allocator@U_VECINFO@@@std@@@std@@@std@@@2@$0A@@std@@@std@@QBEAAU?$pair@$$CBKV?$vector@U_VECINFO@@V?$allocator@U_VECINFO@@@std@@@std@@@2@XZ ENDP ; std::_Tree<std::_Tmap_traits<unsigned long,std::vector<_VECINFO,std::allocator<_VECINFO> >,std::less<unsigned long>,std::allocator<std::pair<unsigned long const ,std::vector<_VECINFO,std::allocator<_VECINFO> > > >,0> >::iterator::operator*
_TEXT	ENDS
PUBLIC	?begin@?$vector@U_VECINFO@@V?$allocator@U_VECINFO@@@std@@@std@@QAE?AViterator@12@XZ ; std::vector<_VECINFO,std::allocator<_VECINFO> >::begin
; Function compile flags: /Ogty
; File c:\program files\microsoft visual studio .net 2003\vc7\include\vector
;	COMDAT ?begin@?$vector@U_VECINFO@@V?$allocator@U_VECINFO@@@std@@@std@@QAE?AViterator@12@XZ
_TEXT	SEGMENT
___$ReturnUdt$ = 8					; size = 4
?begin@?$vector@U_VECINFO@@V?$allocator@U_VECINFO@@@std@@@std@@QAE?AViterator@12@XZ PROC NEAR ; std::vector<_VECINFO,std::allocator<_VECINFO> >::begin, COMDAT
; _this$ = ecx

; 463  : 		return (iterator(_Myfirst));

  00000	8b 49 04	 mov	 ecx, DWORD PTR [ecx+4]
  00003	8b 44 24 04	 mov	 eax, DWORD PTR ___$ReturnUdt$[esp-4]
  00007	89 08		 mov	 DWORD PTR [eax], ecx

; 464  : 		}

  00009	c2 04 00	 ret	 4
?begin@?$vector@U_VECINFO@@V?$allocator@U_VECINFO@@@std@@@std@@QAE?AViterator@12@XZ ENDP ; std::vector<_VECINFO,std::allocator<_VECINFO> >::begin
_TEXT	ENDS
PUBLIC	?begin@?$vector@U_VECINFO@@V?$allocator@U_VECINFO@@@std@@@std@@QBE?AVconst_iterator@12@XZ ; std::vector<_VECINFO,std::allocator<_VECINFO> >::begin
; Function compile flags: /Ogty
;	COMDAT ?begin@?$vector@U_VECINFO@@V?$allocator@U_VECINFO@@@std@@@std@@QBE?AVconst_iterator@12@XZ
_TEXT	SEGMENT
___$ReturnUdt$ = 8					; size = 4
?begin@?$vector@U_VECINFO@@V?$allocator@U_VECINFO@@@std@@@std@@QBE?AVconst_iterator@12@XZ PROC NEAR ; std::vector<_VECINFO,std::allocator<_VECINFO> >::begin, COMDAT
; _this$ = ecx

; 468  : 		return (const_iterator(_Myfirst));

  00000	8b 49 04	 mov	 ecx, DWORD PTR [ecx+4]
  00003	8b 44 24 04	 mov	 eax, DWORD PTR ___$ReturnUdt$[esp-4]
  00007	89 08		 mov	 DWORD PTR [eax], ecx

; 469  : 		}

  00009	c2 04 00	 ret	 4
?begin@?$vector@U_VECINFO@@V?$allocator@U_VECINFO@@@std@@@std@@QBE?AVconst_iterator@12@XZ ENDP ; std::vector<_VECINFO,std::allocator<_VECINFO> >::begin
_TEXT	ENDS
PUBLIC	?end@?$vector@U_VECINFO@@V?$allocator@U_VECINFO@@@std@@@std@@QAE?AViterator@12@XZ ; std::vector<_VECINFO,std::allocator<_VECINFO> >::end
; Function compile flags: /Ogty
;	COMDAT ?end@?$vector@U_VECINFO@@V?$allocator@U_VECINFO@@@std@@@std@@QAE?AViterator@12@XZ
_TEXT	SEGMENT
___$ReturnUdt$ = 8					; size = 4
?end@?$vector@U_VECINFO@@V?$allocator@U_VECINFO@@@std@@@std@@QAE?AViterator@12@XZ PROC NEAR ; std::vector<_VECINFO,std::allocator<_VECINFO> >::end, COMDAT
; _this$ = ecx

; 473  : 		return (iterator(_Mylast));

  00000	8b 49 08	 mov	 ecx, DWORD PTR [ecx+8]
  00003	8b 44 24 04	 mov	 eax, DWORD PTR ___$ReturnUdt$[esp-4]
  00007	89 08		 mov	 DWORD PTR [eax], ecx

; 474  : 		}

  00009	c2 04 00	 ret	 4
?end@?$vector@U_VECINFO@@V?$allocator@U_VECINFO@@@std@@@std@@QAE?AViterator@12@XZ ENDP ; std::vector<_VECINFO,std::allocator<_VECINFO> >::end
_TEXT	ENDS
PUBLIC	?end@?$vector@U_VECINFO@@V?$allocator@U_VECINFO@@@std@@@std@@QBE?AVconst_iterator@12@XZ ; std::vector<_VECINFO,std::allocator<_VECINFO> >::end
; Function compile flags: /Ogty
;	COMDAT ?end@?$vector@U_VECINFO@@V?$allocator@U_VECINFO@@@std@@@std@@QBE?AVconst_iterator@12@XZ
_TEXT	SEGMENT
___$ReturnUdt$ = 8					; size = 4
?end@?$vector@U_VECINFO@@V?$allocator@U_VECINFO@@@std@@@std@@QBE?AVconst_iterator@12@XZ PROC NEAR ; std::vector<_VECINFO,std::allocator<_VECINFO> >::end, COMDAT
; _this$ = ecx

; 478  : 		return (const_iterator(_Mylast));

  00000	8b 49 08	 mov	 ecx, DWORD PTR [ecx+8]
  00003	8b 44 24 04	 mov	 eax, DWORD PTR ___$ReturnUdt$[esp-4]
  00007	89 08		 mov	 DWORD PTR [eax], ecx

; 479  : 		}

  00009	c2 04 00	 ret	 4
?end@?$vector@U_VECINFO@@V?$allocator@U_VECINFO@@@std@@@std@@QBE?AVconst_iterator@12@XZ ENDP ; std::vector<_VECINFO,std::allocator<_VECINFO> >::end
_TEXT	ENDS
PUBLIC	??0?$_Vector_val@U_VECINFO@@V?$allocator@U_VECINFO@@@std@@@std@@IAE@V?$allocator@U_VECINFO@@@1@@Z ; std::_Vector_val<_VECINFO,std::allocator<_VECINFO> >::_Vector_val<_VECINFO,std::allocator<_VECINFO> >
; Function compile flags: /Ogty
;	COMDAT ??0?$_Vector_val@U_VECINFO@@V?$allocator@U_VECINFO@@@std@@@std@@IAE@V?$allocator@U_VECINFO@@@1@@Z
_TEXT	SEGMENT
__Al$ = 8						; size = 1
??0?$_Vector_val@U_VECINFO@@V?$allocator@U_VECINFO@@@std@@@std@@IAE@V?$allocator@U_VECINFO@@@1@@Z PROC NEAR ; std::_Vector_val<_VECINFO,std::allocator<_VECINFO> >::_Vector_val<_VECINFO,std::allocator<_VECINFO> >, COMDAT
; _this$ = ecx

; 21   : 		{	// construct allocator from _Al

  00000	8b c1		 mov	 eax, ecx

; 22   : 		}

  00002	c2 04 00	 ret	 4
??0?$_Vector_val@U_VECINFO@@V?$allocator@U_VECINFO@@@std@@@std@@IAE@V?$allocator@U_VECINFO@@@1@@Z ENDP ; std::_Vector_val<_VECINFO,std::allocator<_VECINFO> >::_Vector_val<_VECINFO,std::allocator<_VECINFO> >
_TEXT	ENDS
PUBLIC	??Diterator@?$vector@UD3DXVECTOR3@@V?$allocator@UD3DXVECTOR3@@@std@@@std@@QBEAAUD3DXVECTOR3@@XZ ; std::vector<D3DXVECTOR3,std::allocator<D3DXVECTOR3> >::iterator::operator*
; Function compile flags: /Ogty
;	COMDAT ??Diterator@?$vector@UD3DXVECTOR3@@V?$allocator@UD3DXVECTOR3@@@std@@@std@@QBEAAUD3DXVECTOR3@@XZ
_TEXT	SEGMENT
??Diterator@?$vector@UD3DXVECTOR3@@V?$allocator@UD3DXVECTOR3@@@std@@@std@@QBEAAUD3DXVECTOR3@@XZ PROC NEAR ; std::vector<D3DXVECTOR3,std::allocator<D3DXVECTOR3> >::iterator::operator*, COMDAT
; _this$ = ecx

; 220  : 			return ((reference)**(const_iterator *)this);

  00000	8b 01		 mov	 eax, DWORD PTR [ecx]

; 221  : 			}

  00002	c3		 ret	 0
??Diterator@?$vector@UD3DXVECTOR3@@V?$allocator@UD3DXVECTOR3@@@std@@@std@@QBEAAUD3DXVECTOR3@@XZ ENDP ; std::vector<D3DXVECTOR3,std::allocator<D3DXVECTOR3> >::iterator::operator*
_TEXT	ENDS
PUBLIC	??Hiterator@?$vector@UD3DXVECTOR3@@V?$allocator@UD3DXVECTOR3@@@std@@@std@@QBE?AV012@H@Z ; std::vector<D3DXVECTOR3,std::allocator<D3DXVECTOR3> >::iterator::operator+
; Function compile flags: /Ogty
;	COMDAT ??Hiterator@?$vector@UD3DXVECTOR3@@V?$allocator@UD3DXVECTOR3@@@std@@@std@@QBE?AV012@H@Z
_TEXT	SEGMENT
___$ReturnUdt$ = 8					; size = 4
__Off$ = 12						; size = 4
??Hiterator@?$vector@UD3DXVECTOR3@@V?$allocator@UD3DXVECTOR3@@@std@@@std@@QBE?AV012@H@Z PROC NEAR ; std::vector<D3DXVECTOR3,std::allocator<D3DXVECTOR3> >::iterator::operator+, COMDAT
; _this$ = ecx

; 262  : 			iterator _Tmp = *this;
; 263  : 			return (_Tmp += _Off);

  00000	8b 44 24 08	 mov	 eax, DWORD PTR __Off$[esp-4]
  00004	8b 09		 mov	 ecx, DWORD PTR [ecx]
  00006	8d 04 40	 lea	 eax, DWORD PTR [eax+eax*2]
  00009	8d 14 81	 lea	 edx, DWORD PTR [ecx+eax*4]
  0000c	8b 44 24 04	 mov	 eax, DWORD PTR ___$ReturnUdt$[esp-4]
  00010	89 10		 mov	 DWORD PTR [eax], edx

; 264  : 			}

  00012	c2 08 00	 ret	 8
??Hiterator@?$vector@UD3DXVECTOR3@@V?$allocator@UD3DXVECTOR3@@@std@@@std@@QBE?AV012@H@Z ENDP ; std::vector<D3DXVECTOR3,std::allocator<D3DXVECTOR3> >::iterator::operator+
_TEXT	ENDS
PUBLIC	??Diterator@?$vector@U_VECINFO@@V?$allocator@U_VECINFO@@@std@@@std@@QBEAAU_VECINFO@@XZ ; std::vector<_VECINFO,std::allocator<_VECINFO> >::iterator::operator*
; Function compile flags: /Ogty
;	COMDAT ??Diterator@?$vector@U_VECINFO@@V?$allocator@U_VECINFO@@@std@@@std@@QBEAAU_VECINFO@@XZ
_TEXT	SEGMENT
??Diterator@?$vector@U_VECINFO@@V?$allocator@U_VECINFO@@@std@@@std@@QBEAAU_VECINFO@@XZ PROC NEAR ; std::vector<_VECINFO,std::allocator<_VECINFO> >::iterator::operator*, COMDAT
; _this$ = ecx

; 220  : 			return ((reference)**(const_iterator *)this);

  00000	8b 01		 mov	 eax, DWORD PTR [ecx]

; 221  : 			}

  00002	c3		 ret	 0
??Diterator@?$vector@U_VECINFO@@V?$allocator@U_VECINFO@@@std@@@std@@QBEAAU_VECINFO@@XZ ENDP ; std::vector<_VECINFO,std::allocator<_VECINFO> >::iterator::operator*
_TEXT	ENDS
PUBLIC	??Hiterator@?$vector@U_VECINFO@@V?$allocator@U_VECINFO@@@std@@@std@@QBE?AV012@H@Z ; std::vector<_VECINFO,std::allocator<_VECINFO> >::iterator::operator+
; Function compile flags: /Ogty
;	COMDAT ??Hiterator@?$vector@U_VECINFO@@V?$allocator@U_VECINFO@@@std@@@std@@QBE?AV012@H@Z
_TEXT	SEGMENT
___$ReturnUdt$ = 8					; size = 4
__Off$ = 12						; size = 4
??Hiterator@?$vector@U_VECINFO@@V?$allocator@U_VECINFO@@@std@@@std@@QBE?AV012@H@Z PROC NEAR ; std::vector<_VECINFO,std::allocator<_VECINFO> >::iterator::operator+, COMDAT
; _this$ = ecx

; 262  : 			iterator _Tmp = *this;
; 263  : 			return (_Tmp += _Off);

  00000	8b 54 24 08	 mov	 edx, DWORD PTR __Off$[esp-4]
  00004	8b 01		 mov	 eax, DWORD PTR [ecx]
  00006	6b d2 38	 imul	 edx, 56			; 00000038H
  00009	03 d0		 add	 edx, eax
  0000b	8b 44 24 04	 mov	 eax, DWORD PTR ___$ReturnUdt$[esp-4]
  0000f	89 10		 mov	 DWORD PTR [eax], edx

; 264  : 			}

  00011	c2 08 00	 ret	 8
??Hiterator@?$vector@U_VECINFO@@V?$allocator@U_VECINFO@@@std@@@std@@QBE?AV012@H@Z ENDP ; std::vector<_VECINFO,std::allocator<_VECINFO> >::iterator::operator+
_TEXT	ENDS
PUBLIC	?max_size@?$_Tree@V?$_Tmap_traits@KV?$vector@U_VECINFO@@V?$allocator@U_VECINFO@@@std@@@std@@U?$less@K@2@V?$allocator@U?$pair@$$CBKV?$vector@U_VECINFO@@V?$allocator@U_VECINFO@@@std@@@std@@@std@@@2@$0A@@std@@@std@@QBEIXZ ; std::_Tree<std::_Tmap_traits<unsigned long,std::vector<_VECINFO,std::allocator<_VECINFO> >,std::less<unsigned long>,std::allocator<std::pair<unsigned long const ,std::vector<_VECINFO,std::allocator<_VECINFO> > > >,0> >::max_size
; Function compile flags: /Ogty
; File c:\program files\microsoft visual studio .net 2003\vc7\include\xtree
;	COMDAT ?max_size@?$_Tree@V?$_Tmap_traits@KV?$vector@U_VECINFO@@V?$allocator@U_VECINFO@@@std@@@std@@U?$less@K@2@V?$allocator@U?$pair@$$CBKV?$vector@U_VECINFO@@V?$allocator@U_VECINFO@@@std@@@std@@@std@@@2@$0A@@std@@@std@@QBEIXZ
_TEXT	SEGMENT
?max_size@?$_Tree@V?$_Tmap_traits@KV?$vector@U_VECINFO@@V?$allocator@U_VECINFO@@@std@@@std@@U?$less@K@2@V?$allocator@U?$pair@$$CBKV?$vector@U_VECINFO@@V?$allocator@U_VECINFO@@@std@@@std@@@std@@@2@$0A@@std@@@std@@QBEIXZ PROC NEAR ; std::_Tree<std::_Tmap_traits<unsigned long,std::vector<_VECINFO,std::allocator<_VECINFO> >,std::less<unsigned long>,std::allocator<std::pair<unsigned long const ,std::vector<_VECINFO,std::allocator<_VECINFO> > > >,0> >::max_size, COMDAT
; _this$ = ecx

; 453  : 		return (this->_Alval.max_size());

  00000	b8 cc cc cc 0c	 mov	 eax, 214748364		; 0cccccccH

; 454  : 		}

  00005	c3		 ret	 0
?max_size@?$_Tree@V?$_Tmap_traits@KV?$vector@U_VECINFO@@V?$allocator@U_VECINFO@@@std@@@std@@U?$less@K@2@V?$allocator@U?$pair@$$CBKV?$vector@U_VECINFO@@V?$allocator@U_VECINFO@@@std@@@std@@@std@@@2@$0A@@std@@@std@@QBEIXZ ENDP ; std::_Tree<std::_Tmap_traits<unsigned long,std::vector<_VECINFO,std::allocator<_VECINFO> >,std::less<unsigned long>,std::allocator<std::pair<unsigned long const ,std::vector<_VECINFO,std::allocator<_VECINFO> > > >,0> >::max_size
_TEXT	ENDS
PUBLIC	?_Lbound@?$_Tree@V?$_Tmap_traits@KV?$vector@U_VECINFO@@V?$allocator@U_VECINFO@@@std@@@std@@U?$less@K@2@V?$allocator@U?$pair@$$CBKV?$vector@U_VECINFO@@V?$allocator@U_VECINFO@@@std@@@std@@@std@@@2@$0A@@std@@@std@@IBEPAU_Node@?$_Tree_nod@V?$_Tmap_traits@KV?$vector@U_VECINFO@@V?$allocator@U_VECINFO@@@std@@@std@@U?$less@K@2@V?$allocator@U?$pair@$$CBKV?$vector@U_VECINFO@@V?$allocator@U_VECINFO@@@std@@@std@@@std@@@2@$0A@@std@@@2@ABK@Z ; std::_Tree<std::_Tmap_traits<unsigned long,std::vector<_VECINFO,std::allocator<_VECINFO> >,std::less<unsigned long>,std::allocator<std::pair<unsigned long const ,std::vector<_VECINFO,std::allocator<_VECINFO> > > >,0> >::_Lbound
; Function compile flags: /Ogty
;	COMDAT ?_Lbound@?$_Tree@V?$_Tmap_traits@KV?$vector@U_VECINFO@@V?$allocator@U_VECINFO@@@std@@@std@@U?$less@K@2@V?$allocator@U?$pair@$$CBKV?$vector@U_VECINFO@@V?$allocator@U_VECINFO@@@std@@@std@@@std@@@2@$0A@@std@@@std@@IBEPAU_Node@?$_Tree_nod@V?$_Tmap_traits@KV?$vector@U_VECINFO@@V?$allocator@U_VECINFO@@@std@@@std@@U?$less@K@2@V?$allocator@U?$pair@$$CBKV?$vector@U_VECINFO@@V?$allocator@U_VECINFO@@@std@@@std@@@std@@@2@$0A@@std@@@2@ABK@Z
_TEXT	SEGMENT
__Keyval$ = 8						; size = 4
?_Lbound@?$_Tree@V?$_Tmap_traits@KV?$vector@U_VECINFO@@V?$allocator@U_VECINFO@@@std@@@std@@U?$less@K@2@V?$allocator@U?$pair@$$CBKV?$vector@U_VECINFO@@V?$allocator@U_VECINFO@@@std@@@std@@@std@@@2@$0A@@std@@@std@@IBEPAU_Node@?$_Tree_nod@V?$_Tmap_traits@KV?$vector@U_VECINFO@@V?$allocator@U_VECINFO@@@std@@@std@@U?$less@K@2@V?$allocator@U?$pair@$$CBKV?$vector@U_VECINFO@@V?$allocator@U_VECINFO@@@std@@@std@@@std@@@2@$0A@@std@@@2@ABK@Z PROC NEAR ; std::_Tree<std::_Tmap_traits<unsigned long,std::vector<_VECINFO,std::allocator<_VECINFO> >,std::less<unsigned long>,std::allocator<std::pair<unsigned long const ,std::vector<_VECINFO,std::allocator<_VECINFO> > > >,0> >::_Lbound, COMDAT
; _this$ = ecx

; 988  : 		_Nodeptr _Pnode = _Root();

  00000	8b 41 04	 mov	 eax, DWORD PTR [ecx+4]
  00003	8b 48 04	 mov	 ecx, DWORD PTR [eax+4]

; 989  : 		_Nodeptr _Wherenode = _Myhead;	// end() if search fails
; 990  : 
; 991  : 		while (!_Isnil(_Pnode))

  00006	8a 51 21	 mov	 dl, BYTE PTR [ecx+33]
  00009	84 d2		 test	 dl, dl
  0000b	75 1d		 jne	 SHORT $L226968
  0000d	8b 54 24 04	 mov	 edx, DWORD PTR __Keyval$[esp-4]
  00011	8b 12		 mov	 edx, DWORD PTR [edx]
  00013	53		 push	 ebx
$L226967:

; 992  : 			if (this->comp(_Key(_Pnode), _Keyval))

  00014	39 51 0c	 cmp	 DWORD PTR [ecx+12], edx
  00017	73 05		 jae	 SHORT $L226969

; 993  : 				_Pnode = _Right(_Pnode);	// descend right subtree

  00019	8b 49 08	 mov	 ecx, DWORD PTR [ecx+8]

; 994  : 			else

  0001c	eb 04		 jmp	 SHORT $L226970
$L226969:

; 995  : 				{	// _Pnode not less than _Keyval, remember it
; 996  : 				_Wherenode = _Pnode;

  0001e	8b c1		 mov	 eax, ecx

; 997  : 				_Pnode = _Left(_Pnode);	// descend left subtree

  00020	8b 09		 mov	 ecx, DWORD PTR [ecx]
$L226970:
  00022	8a 59 21	 mov	 bl, BYTE PTR [ecx+33]
  00025	84 db		 test	 bl, bl
  00027	74 eb		 je	 SHORT $L226967
  00029	5b		 pop	 ebx
$L226968:

; 998  : 				}
; 999  : 
; 1000 : 		return (_Wherenode);	// return best remembered candidate
; 1001 : 		}

  0002a	c2 04 00	 ret	 4
?_Lbound@?$_Tree@V?$_Tmap_traits@KV?$vector@U_VECINFO@@V?$allocator@U_VECINFO@@@std@@@std@@U?$less@K@2@V?$allocator@U?$pair@$$CBKV?$vector@U_VECINFO@@V?$allocator@U_VECINFO@@@std@@@std@@@std@@@2@$0A@@std@@@std@@IBEPAU_Node@?$_Tree_nod@V?$_Tmap_traits@KV?$vector@U_VECINFO@@V?$allocator@U_VECINFO@@@std@@@std@@U?$less@K@2@V?$allocator@U?$pair@$$CBKV?$vector@U_VECINFO@@V?$allocator@U_VECINFO@@@std@@@std@@@std@@@2@$0A@@std@@@2@ABK@Z ENDP ; std::_Tree<std::_Tmap_traits<unsigned long,std::vector<_VECINFO,std::allocator<_VECINFO> >,std::less<unsigned long>,std::allocator<std::pair<unsigned long const ,std::vector<_VECINFO,std::allocator<_VECINFO> > > >,0> >::_Lbound
_TEXT	ENDS
PUBLIC	?_Lrotate@?$_Tree@V?$_Tmap_traits@KV?$vector@U_VECINFO@@V?$allocator@U_VECINFO@@@std@@@std@@U?$less@K@2@V?$allocator@U?$pair@$$CBKV?$vector@U_VECINFO@@V?$allocator@U_VECINFO@@@std@@@std@@@std@@@2@$0A@@std@@@std@@IAEXPAU_Node@?$_Tree_nod@V?$_Tmap_traits@KV?$vector@U_VECINFO@@V?$allocator@U_VECINFO@@@std@@@std@@U?$less@K@2@V?$allocator@U?$pair@$$CBKV?$vector@U_VECINFO@@V?$allocator@U_VECINFO@@@std@@@std@@@std@@@2@$0A@@std@@@2@@Z ; std::_Tree<std::_Tmap_traits<unsigned long,std::vector<_VECINFO,std::allocator<_VECINFO> >,std::less<unsigned long>,std::allocator<std::pair<unsigned long const ,std::vector<_VECINFO,std::allocator<_VECINFO> > > >,0> >::_Lrotate
; Function compile flags: /Ogty
;	COMDAT ?_Lrotate@?$_Tree@V?$_Tmap_traits@KV?$vector@U_VECINFO@@V?$allocator@U_VECINFO@@@std@@@std@@U?$less@K@2@V?$allocator@U?$pair@$$CBKV?$vector@U_VECINFO@@V?$allocator@U_VECINFO@@@std@@@std@@@std@@@2@$0A@@std@@@std@@IAEXPAU_Node@?$_Tree_nod@V?$_Tmap_traits@KV?$vector@U_VECINFO@@V?$allocator@U_VECINFO@@@std@@@std@@U?$less@K@2@V?$allocator@U?$pair@$$CBKV?$vector@U_VECINFO@@V?$allocator@U_VECINFO@@@std@@@std@@@std@@@2@$0A@@std@@@2@@Z
_TEXT	SEGMENT
__Wherenode$ = 8					; size = 4
?_Lrotate@?$_Tree@V?$_Tmap_traits@KV?$vector@U_VECINFO@@V?$allocator@U_VECINFO@@@std@@@std@@U?$less@K@2@V?$allocator@U?$pair@$$CBKV?$vector@U_VECINFO@@V?$allocator@U_VECINFO@@@std@@@std@@@std@@@2@$0A@@std@@@std@@IAEXPAU_Node@?$_Tree_nod@V?$_Tmap_traits@KV?$vector@U_VECINFO@@V?$allocator@U_VECINFO@@@std@@@std@@U?$less@K@2@V?$allocator@U?$pair@$$CBKV?$vector@U_VECINFO@@V?$allocator@U_VECINFO@@@std@@@std@@@std@@@2@$0A@@std@@@2@@Z PROC NEAR ; std::_Tree<std::_Tmap_traits<unsigned long,std::vector<_VECINFO,std::allocator<_VECINFO> >,std::less<unsigned long>,std::allocator<std::pair<unsigned long const ,std::vector<_VECINFO,std::allocator<_VECINFO> > > >,0> >::_Lrotate, COMDAT
; _this$ = ecx

; 1015 : 		_Nodeptr _Pnode = _Right(_Wherenode);

  00000	8b 54 24 04	 mov	 edx, DWORD PTR __Wherenode$[esp-4]
  00004	8b 42 08	 mov	 eax, DWORD PTR [edx+8]
  00007	53		 push	 ebx
  00008	56		 push	 esi

; 1016 : 		_Right(_Wherenode) = _Left(_Pnode);

  00009	8b 30		 mov	 esi, DWORD PTR [eax]
  0000b	89 72 08	 mov	 DWORD PTR [edx+8], esi

; 1017 : 
; 1018 : 		if (!_Isnil(_Left(_Pnode)))

  0000e	8b 30		 mov	 esi, DWORD PTR [eax]
  00010	8a 5e 21	 mov	 bl, BYTE PTR [esi+33]
  00013	84 db		 test	 bl, bl
  00015	75 03		 jne	 SHORT $L226974

; 1019 : 			_Parent(_Left(_Pnode)) = _Wherenode;

  00017	89 56 04	 mov	 DWORD PTR [esi+4], edx
$L226974:

; 1020 : 		_Parent(_Pnode) = _Parent(_Wherenode);

  0001a	8b 72 04	 mov	 esi, DWORD PTR [edx+4]
  0001d	89 70 04	 mov	 DWORD PTR [eax+4], esi

; 1021 : 
; 1022 : 		if (_Wherenode == _Root())

  00020	8b 49 04	 mov	 ecx, DWORD PTR [ecx+4]
  00023	3b 51 04	 cmp	 edx, DWORD PTR [ecx+4]
  00026	75 0d		 jne	 SHORT $L226975

; 1023 : 			_Root() = _Pnode;

  00028	89 41 04	 mov	 DWORD PTR [ecx+4], eax
  0002b	5e		 pop	 esi

; 1028 : 
; 1029 : 		_Left(_Pnode) = _Wherenode;

  0002c	89 10		 mov	 DWORD PTR [eax], edx

; 1030 : 		_Parent(_Wherenode) = _Pnode;

  0002e	89 42 04	 mov	 DWORD PTR [edx+4], eax
  00031	5b		 pop	 ebx

; 1031 : 		}

  00032	c2 04 00	 ret	 4
$L226975:

; 1024 : 		else if (_Wherenode == _Left(_Parent(_Wherenode)))

  00035	8b 4a 04	 mov	 ecx, DWORD PTR [edx+4]
  00038	3b 11		 cmp	 edx, DWORD PTR [ecx]
  0003a	75 0c		 jne	 SHORT $L226977

; 1025 : 			_Left(_Parent(_Wherenode)) = _Pnode;

  0003c	89 01		 mov	 DWORD PTR [ecx], eax
  0003e	5e		 pop	 esi

; 1028 : 
; 1029 : 		_Left(_Pnode) = _Wherenode;

  0003f	89 10		 mov	 DWORD PTR [eax], edx

; 1030 : 		_Parent(_Wherenode) = _Pnode;

  00041	89 42 04	 mov	 DWORD PTR [edx+4], eax
  00044	5b		 pop	 ebx

; 1031 : 		}

  00045	c2 04 00	 ret	 4
$L226977:

; 1026 : 		else
; 1027 : 			_Right(_Parent(_Wherenode)) = _Pnode;

  00048	89 41 08	 mov	 DWORD PTR [ecx+8], eax
  0004b	5e		 pop	 esi

; 1028 : 
; 1029 : 		_Left(_Pnode) = _Wherenode;

  0004c	89 10		 mov	 DWORD PTR [eax], edx

; 1030 : 		_Parent(_Wherenode) = _Pnode;

  0004e	89 42 04	 mov	 DWORD PTR [edx+4], eax
  00051	5b		 pop	 ebx

; 1031 : 		}

  00052	c2 04 00	 ret	 4
?_Lrotate@?$_Tree@V?$_Tmap_traits@KV?$vector@U_VECINFO@@V?$allocator@U_VECINFO@@@std@@@std@@U?$less@K@2@V?$allocator@U?$pair@$$CBKV?$vector@U_VECINFO@@V?$allocator@U_VECINFO@@@std@@@std@@@std@@@2@$0A@@std@@@std@@IAEXPAU_Node@?$_Tree_nod@V?$_Tmap_traits@KV?$vector@U_VECINFO@@V?$allocator@U_VECINFO@@@std@@@std@@U?$less@K@2@V?$allocator@U?$pair@$$CBKV?$vector@U_VECINFO@@V?$allocator@U_VECINFO@@@std@@@std@@@std@@@2@$0A@@std@@@2@@Z ENDP ; std::_Tree<std::_Tmap_traits<unsigned long,std::vector<_VECINFO,std::allocator<_VECINFO> >,std::less<unsigned long>,std::allocator<std::pair<unsigned long const ,std::vector<_VECINFO,std::allocator<_VECINFO> > > >,0> >::_Lrotate
_TEXT	ENDS
PUBLIC	?_Rrotate@?$_Tree@V?$_Tmap_traits@KV?$vector@U_VECINFO@@V?$allocator@U_VECINFO@@@std@@@std@@U?$less@K@2@V?$allocator@U?$pair@$$CBKV?$vector@U_VECINFO@@V?$allocator@U_VECINFO@@@std@@@std@@@std@@@2@$0A@@std@@@std@@IAEXPAU_Node@?$_Tree_nod@V?$_Tmap_traits@KV?$vector@U_VECINFO@@V?$allocator@U_VECINFO@@@std@@@std@@U?$less@K@2@V?$allocator@U?$pair@$$CBKV?$vector@U_VECINFO@@V?$allocator@U_VECINFO@@@std@@@std@@@std@@@2@$0A@@std@@@2@@Z ; std::_Tree<std::_Tmap_traits<unsigned long,std::vector<_VECINFO,std::allocator<_VECINFO> >,std::less<unsigned long>,std::allocator<std::pair<unsigned long const ,std::vector<_VECINFO,std::allocator<_VECINFO> > > >,0> >::_Rrotate
; Function compile flags: /Ogty
;	COMDAT ?_Rrotate@?$_Tree@V?$_Tmap_traits@KV?$vector@U_VECINFO@@V?$allocator@U_VECINFO@@@std@@@std@@U?$less@K@2@V?$allocator@U?$pair@$$CBKV?$vector@U_VECINFO@@V?$allocator@U_VECINFO@@@std@@@std@@@std@@@2@$0A@@std@@@std@@IAEXPAU_Node@?$_Tree_nod@V?$_Tmap_traits@KV?$vector@U_VECINFO@@V?$allocator@U_VECINFO@@@std@@@std@@U?$less@K@2@V?$allocator@U?$pair@$$CBKV?$vector@U_VECINFO@@V?$allocator@U_VECINFO@@@std@@@std@@@std@@@2@$0A@@std@@@2@@Z
_TEXT	SEGMENT
__Wherenode$ = 8					; size = 4
?_Rrotate@?$_Tree@V?$_Tmap_traits@KV?$vector@U_VECINFO@@V?$allocator@U_VECINFO@@@std@@@std@@U?$less@K@2@V?$allocator@U?$pair@$$CBKV?$vector@U_VECINFO@@V?$allocator@U_VECINFO@@@std@@@std@@@std@@@2@$0A@@std@@@std@@IAEXPAU_Node@?$_Tree_nod@V?$_Tmap_traits@KV?$vector@U_VECINFO@@V?$allocator@U_VECINFO@@@std@@@std@@U?$less@K@2@V?$allocator@U?$pair@$$CBKV?$vector@U_VECINFO@@V?$allocator@U_VECINFO@@@std@@@std@@@std@@@2@$0A@@std@@@2@@Z PROC NEAR ; std::_Tree<std::_Tmap_traits<unsigned long,std::vector<_VECINFO,std::allocator<_VECINFO> >,std::less<unsigned long>,std::allocator<std::pair<unsigned long const ,std::vector<_VECINFO,std::allocator<_VECINFO> > > >,0> >::_Rrotate, COMDAT
; _this$ = ecx

; 1069 : 		_Nodeptr _Pnode = _Left(_Wherenode);

  00000	8b 54 24 04	 mov	 edx, DWORD PTR __Wherenode$[esp-4]
  00004	8b 02		 mov	 eax, DWORD PTR [edx]
  00006	53		 push	 ebx
  00007	56		 push	 esi

; 1070 : 		_Left(_Wherenode) = _Right(_Pnode);

  00008	8b 70 08	 mov	 esi, DWORD PTR [eax+8]
  0000b	89 32		 mov	 DWORD PTR [edx], esi

; 1071 : 
; 1072 : 		if (!_Isnil(_Right(_Pnode)))

  0000d	8b 70 08	 mov	 esi, DWORD PTR [eax+8]
  00010	8a 5e 21	 mov	 bl, BYTE PTR [esi+33]
  00013	84 db		 test	 bl, bl
  00015	75 03		 jne	 SHORT $L226982

; 1073 : 			_Parent(_Right(_Pnode)) = _Wherenode;

  00017	89 56 04	 mov	 DWORD PTR [esi+4], edx
$L226982:

; 1074 : 		_Parent(_Pnode) = _Parent(_Wherenode);

  0001a	8b 72 04	 mov	 esi, DWORD PTR [edx+4]
  0001d	89 70 04	 mov	 DWORD PTR [eax+4], esi

; 1075 : 
; 1076 : 		if (_Wherenode == _Root())

  00020	8b 49 04	 mov	 ecx, DWORD PTR [ecx+4]
  00023	3b 51 04	 cmp	 edx, DWORD PTR [ecx+4]
  00026	75 0e		 jne	 SHORT $L226983

; 1077 : 			_Root() = _Pnode;

  00028	89 41 04	 mov	 DWORD PTR [ecx+4], eax
  0002b	5e		 pop	 esi

; 1082 : 
; 1083 : 		_Right(_Pnode) = _Wherenode;

  0002c	89 50 08	 mov	 DWORD PTR [eax+8], edx

; 1084 : 		_Parent(_Wherenode) = _Pnode;

  0002f	89 42 04	 mov	 DWORD PTR [edx+4], eax
  00032	5b		 pop	 ebx

; 1085 : 		}

  00033	c2 04 00	 ret	 4
$L226983:

; 1078 : 		else if (_Wherenode == _Right(_Parent(_Wherenode)))

  00036	8b 4a 04	 mov	 ecx, DWORD PTR [edx+4]
  00039	3b 51 08	 cmp	 edx, DWORD PTR [ecx+8]
  0003c	75 0e		 jne	 SHORT $L226985

; 1079 : 			_Right(_Parent(_Wherenode)) = _Pnode;

  0003e	89 41 08	 mov	 DWORD PTR [ecx+8], eax
  00041	5e		 pop	 esi

; 1082 : 
; 1083 : 		_Right(_Pnode) = _Wherenode;

  00042	89 50 08	 mov	 DWORD PTR [eax+8], edx

; 1084 : 		_Parent(_Wherenode) = _Pnode;

  00045	89 42 04	 mov	 DWORD PTR [edx+4], eax
  00048	5b		 pop	 ebx

; 1085 : 		}

  00049	c2 04 00	 ret	 4
$L226985:

; 1080 : 		else
; 1081 : 			_Left(_Parent(_Wherenode)) = _Pnode;

  0004c	89 01		 mov	 DWORD PTR [ecx], eax
  0004e	5e		 pop	 esi

; 1082 : 
; 1083 : 		_Right(_Pnode) = _Wherenode;

  0004f	89 50 08	 mov	 DWORD PTR [eax+8], edx

; 1084 : 		_Parent(_Wherenode) = _Pnode;

  00052	89 42 04	 mov	 DWORD PTR [edx+4], eax
  00055	5b		 pop	 ebx

; 1085 : 		}

  00056	c2 04 00	 ret	 4
?_Rrotate@?$_Tree@V?$_Tmap_traits@KV?$vector@U_VECINFO@@V?$allocator@U_VECINFO@@@std@@@std@@U?$less@K@2@V?$allocator@U?$pair@$$CBKV?$vector@U_VECINFO@@V?$allocator@U_VECINFO@@@std@@@std@@@std@@@2@$0A@@std@@@std@@IAEXPAU_Node@?$_Tree_nod@V?$_Tmap_traits@KV?$vector@U_VECINFO@@V?$allocator@U_VECINFO@@@std@@@std@@U?$less@K@2@V?$allocator@U?$pair@$$CBKV?$vector@U_VECINFO@@V?$allocator@U_VECINFO@@@std@@@std@@@std@@@2@$0A@@std@@@2@@Z ENDP ; std::_Tree<std::_Tmap_traits<unsigned long,std::vector<_VECINFO,std::allocator<_VECINFO> >,std::less<unsigned long>,std::allocator<std::pair<unsigned long const ,std::vector<_VECINFO,std::allocator<_VECINFO> > > >,0> >::_Rrotate
_TEXT	ENDS
PUBLIC	?destroy@?$allocator@PAU_Node@?$_Tree_nod@V?$_Tmap_traits@KV?$vector@U_VECINFO@@V?$allocator@U_VECINFO@@@std@@@std@@U?$less@K@2@V?$allocator@U?$pair@$$CBKV?$vector@U_VECINFO@@V?$allocator@U_VECINFO@@@std@@@std@@@std@@@2@$0A@@std@@@std@@@std@@QAEXPAPAU_Node@?$_Tree_nod@V?$_Tmap_traits@KV?$vector@U_VECINFO@@V?$allocator@U_VECINFO@@@std@@@std@@U?$less@K@2@V?$allocator@U?$pair@$$CBKV?$vector@U_VECINFO@@V?$allocator@U_VECINFO@@@std@@@std@@@std@@@2@$0A@@std@@@2@@Z ; std::allocator<std::_Tree_nod<std::_Tmap_traits<unsigned long,std::vector<_VECINFO,std::allocator<_VECINFO> >,std::less<unsigned long>,std::allocator<std::pair<unsigned long const ,std::vector<_VECINFO,std::allocator<_VECINFO> > > >,0> >::_Node *>::destroy
; Function compile flags: /Ogty
; File c:\program files\microsoft visual studio .net 2003\vc7\include\xmemory
;	COMDAT ?destroy@?$allocator@PAU_Node@?$_Tree_nod@V?$_Tmap_traits@KV?$vector@U_VECINFO@@V?$allocator@U_VECINFO@@@std@@@std@@U?$less@K@2@V?$allocator@U?$pair@$$CBKV?$vector@U_VECINFO@@V?$allocator@U_VECINFO@@@std@@@std@@@std@@@2@$0A@@std@@@std@@@std@@QAEXPAPAU_Node@?$_Tree_nod@V?$_Tmap_traits@KV?$vector@U_VECINFO@@V?$allocator@U_VECINFO@@@std@@@std@@U?$less@K@2@V?$allocator@U?$pair@$$CBKV?$vector@U_VECINFO@@V?$allocator@U_VECINFO@@@std@@@std@@@std@@@2@$0A@@std@@@2@@Z
_TEXT	SEGMENT
__Ptr$ = 8						; size = 4
?destroy@?$allocator@PAU_Node@?$_Tree_nod@V?$_Tmap_traits@KV?$vector@U_VECINFO@@V?$allocator@U_VECINFO@@@std@@@std@@U?$less@K@2@V?$allocator@U?$pair@$$CBKV?$vector@U_VECINFO@@V?$allocator@U_VECINFO@@@std@@@std@@@std@@@2@$0A@@std@@@std@@@std@@QAEXPAPAU_Node@?$_Tree_nod@V?$_Tmap_traits@KV?$vector@U_VECINFO@@V?$allocator@U_VECINFO@@@std@@@std@@U?$less@K@2@V?$allocator@U?$pair@$$CBKV?$vector@U_VECINFO@@V?$allocator@U_VECINFO@@@std@@@std@@@std@@@2@$0A@@std@@@2@@Z PROC NEAR ; std::allocator<std::_Tree_nod<std::_Tmap_traits<unsigned long,std::vector<_VECINFO,std::allocator<_VECINFO> >,std::less<unsigned long>,std::allocator<std::pair<unsigned long const ,std::vector<_VECINFO,std::allocator<_VECINFO> > > >,0> >::_Node *>::destroy, COMDAT
; _this$ = ecx

; 152  : 		_Destroy(_Ptr);
; 153  : 		}

  00000	c2 04 00	 ret	 4
?destroy@?$allocator@PAU_Node@?$_Tree_nod@V?$_Tmap_traits@KV?$vector@U_VECINFO@@V?$allocator@U_VECINFO@@@std@@@std@@U?$less@K@2@V?$allocator@U?$pair@$$CBKV?$vector@U_VECINFO@@V?$allocator@U_VECINFO@@@std@@@std@@@std@@@2@$0A@@std@@@std@@@std@@QAEXPAPAU_Node@?$_Tree_nod@V?$_Tmap_traits@KV?$vector@U_VECINFO@@V?$allocator@U_VECINFO@@@std@@@std@@U?$less@K@2@V?$allocator@U?$pair@$$CBKV?$vector@U_VECINFO@@V?$allocator@U_VECINFO@@@std@@@std@@@std@@@2@$0A@@std@@@2@@Z ENDP ; std::allocator<std::_Tree_nod<std::_Tmap_traits<unsigned long,std::vector<_VECINFO,std::allocator<_VECINFO> >,std::less<unsigned long>,std::allocator<std::pair<unsigned long const ,std::vector<_VECINFO,std::allocator<_VECINFO> > > >,0> >::_Node *>::destroy
_TEXT	ENDS
PUBLIC	?max_size@?$vector@U_VECINFO@@V?$allocator@U_VECINFO@@@std@@@std@@QBEIXZ ; std::vector<_VECINFO,std::allocator<_VECINFO> >::max_size
; Function compile flags: /Ogty
; File c:\program files\microsoft visual studio .net 2003\vc7\include\vector
;	COMDAT ?max_size@?$vector@U_VECINFO@@V?$allocator@U_VECINFO@@@std@@@std@@QBEIXZ
_TEXT	SEGMENT
?max_size@?$vector@U_VECINFO@@V?$allocator@U_VECINFO@@@std@@@std@@QBEIXZ PROC NEAR ; std::vector<_VECINFO,std::allocator<_VECINFO> >::max_size, COMDAT
; _this$ = ecx

; 521  : 		return (this->_Alval.max_size());

  00000	b8 24 49 92 04	 mov	 eax, 76695844		; 04924924H

; 522  : 		}

  00005	c3		 ret	 0
?max_size@?$vector@U_VECINFO@@V?$allocator@U_VECINFO@@@std@@@std@@QBEIXZ ENDP ; std::vector<_VECINFO,std::allocator<_VECINFO> >::max_size
_TEXT	ENDS
PUBLIC	?allocate@?$allocator@U_VECINFO@@@std@@QAEPAU_VECINFO@@I@Z ; std::allocator<_VECINFO>::allocate
; Function compile flags: /Ogty
; File c:\program files\microsoft visual studio .net 2003\vc7\include\xmemory
;	COMDAT ?allocate@?$allocator@U_VECINFO@@@std@@QAEPAU_VECINFO@@I@Z
_TEXT	SEGMENT
__Count$ = 8						; size = 4
?allocate@?$allocator@U_VECINFO@@@std@@QAEPAU_VECINFO@@I@Z PROC NEAR ; std::allocator<_VECINFO>::allocate, COMDAT
; _this$ = ecx

; 137  : 		return (_Allocate(_Count, (pointer)0));

  00000	8b 44 24 04	 mov	 eax, DWORD PTR __Count$[esp-4]
  00004	6b c0 38	 imul	 eax, 56			; 00000038H
  00007	50		 push	 eax
  00008	e8 00 00 00 00	 call	 ??2@YAPAXI@Z		; operator new
  0000d	83 c4 04	 add	 esp, 4

; 138  : 		}

  00010	c2 04 00	 ret	 4
?allocate@?$allocator@U_VECINFO@@@std@@QAEPAU_VECINFO@@I@Z ENDP ; std::allocator<_VECINFO>::allocate
_TEXT	ENDS
PUBLIC	??0iterator@?$vector@UD3DXVECTOR3@@V?$allocator@UD3DXVECTOR3@@@std@@@std@@QAE@PAUD3DXVECTOR3@@@Z ; std::vector<D3DXVECTOR3,std::allocator<D3DXVECTOR3> >::iterator::iterator
; Function compile flags: /Ogty
; File c:\program files\microsoft visual studio .net 2003\vc7\include\vector
;	COMDAT ??0iterator@?$vector@UD3DXVECTOR3@@V?$allocator@UD3DXVECTOR3@@@std@@@std@@QAE@PAUD3DXVECTOR3@@@Z
_TEXT	SEGMENT
__Ptr$ = 8						; size = 4
??0iterator@?$vector@UD3DXVECTOR3@@V?$allocator@UD3DXVECTOR3@@@std@@@std@@QAE@PAUD3DXVECTOR3@@@Z PROC NEAR ; std::vector<D3DXVECTOR3,std::allocator<D3DXVECTOR3> >::iterator::iterator, COMDAT
; _this$ = ecx

; 215  : 			{	// construct with pointer _Ptr

  00000	8b c1		 mov	 eax, ecx
  00002	8b 4c 24 04	 mov	 ecx, DWORD PTR __Ptr$[esp-4]
  00006	89 08		 mov	 DWORD PTR [eax], ecx

; 216  : 			}

  00008	c2 04 00	 ret	 4
??0iterator@?$vector@UD3DXVECTOR3@@V?$allocator@UD3DXVECTOR3@@@std@@@std@@QAE@PAUD3DXVECTOR3@@@Z ENDP ; std::vector<D3DXVECTOR3,std::allocator<D3DXVECTOR3> >::iterator::iterator
_TEXT	ENDS
PUBLIC	??Giterator@?$vector@UD3DXVECTOR3@@V?$allocator@UD3DXVECTOR3@@@std@@@std@@QBEHABVconst_iterator@12@@Z ; std::vector<D3DXVECTOR3,std::allocator<D3DXVECTOR3> >::iterator::operator-
; Function compile flags: /Ogty
;	COMDAT ??Giterator@?$vector@UD3DXVECTOR3@@V?$allocator@UD3DXVECTOR3@@@std@@@std@@QBEHABVconst_iterator@12@@Z
_TEXT	SEGMENT
__Right$ = 8						; size = 4
??Giterator@?$vector@UD3DXVECTOR3@@V?$allocator@UD3DXVECTOR3@@@std@@@std@@QBEHABVconst_iterator@12@@Z PROC NEAR ; std::vector<D3DXVECTOR3,std::allocator<D3DXVECTOR3> >::iterator::operator-, COMDAT
; _this$ = ecx

; 279  : 			return ((const_iterator)*this - _Right);

  00000	8b 01		 mov	 eax, DWORD PTR [ecx]
  00002	8b 4c 24 04	 mov	 ecx, DWORD PTR __Right$[esp-4]
  00006	2b 01		 sub	 eax, DWORD PTR [ecx]
  00008	8b c8		 mov	 ecx, eax
  0000a	b8 ab aa aa 2a	 mov	 eax, 715827883		; 2aaaaaabH
  0000f	f7 e9		 imul	 ecx
  00011	d1 fa		 sar	 edx, 1
  00013	8b c2		 mov	 eax, edx
  00015	c1 e8 1f	 shr	 eax, 31			; 0000001fH
  00018	03 c2		 add	 eax, edx

; 280  : 			}

  0001a	c2 04 00	 ret	 4
??Giterator@?$vector@UD3DXVECTOR3@@V?$allocator@UD3DXVECTOR3@@@std@@@std@@QBEHABVconst_iterator@12@@Z ENDP ; std::vector<D3DXVECTOR3,std::allocator<D3DXVECTOR3> >::iterator::operator-
_TEXT	ENDS
PUBLIC	??Giterator@?$vector@U_VECINFO@@V?$allocator@U_VECINFO@@@std@@@std@@QBEHABVconst_iterator@12@@Z ; std::vector<_VECINFO,std::allocator<_VECINFO> >::iterator::operator-
; Function compile flags: /Ogty
;	COMDAT ??Giterator@?$vector@U_VECINFO@@V?$allocator@U_VECINFO@@@std@@@std@@QBEHABVconst_iterator@12@@Z
_TEXT	SEGMENT
__Right$ = 8						; size = 4
??Giterator@?$vector@U_VECINFO@@V?$allocator@U_VECINFO@@@std@@@std@@QBEHABVconst_iterator@12@@Z PROC NEAR ; std::vector<_VECINFO,std::allocator<_VECINFO> >::iterator::operator-, COMDAT
; _this$ = ecx

; 279  : 			return ((const_iterator)*this - _Right);

  00000	8b 01		 mov	 eax, DWORD PTR [ecx]
  00002	8b 4c 24 04	 mov	 ecx, DWORD PTR __Right$[esp-4]
  00006	2b 01		 sub	 eax, DWORD PTR [ecx]
  00008	8b c8		 mov	 ecx, eax
  0000a	b8 93 24 49 92	 mov	 eax, -1840700269	; 92492493H
  0000f	f7 e9		 imul	 ecx
  00011	03 d1		 add	 edx, ecx
  00013	c1 fa 05	 sar	 edx, 5
  00016	8b c2		 mov	 eax, edx
  00018	c1 e8 1f	 shr	 eax, 31			; 0000001fH
  0001b	03 c2		 add	 eax, edx

; 280  : 			}

  0001d	c2 04 00	 ret	 4
??Giterator@?$vector@U_VECINFO@@V?$allocator@U_VECINFO@@@std@@@std@@QBEHABVconst_iterator@12@@Z ENDP ; std::vector<_VECINFO,std::allocator<_VECINFO> >::iterator::operator-
_TEXT	ENDS
PUBLIC	?allocate@?$allocator@U_Node@?$_Tree_nod@V?$_Tmap_traits@KV?$vector@U_VECINFO@@V?$allocator@U_VECINFO@@@std@@@std@@U?$less@K@2@V?$allocator@U?$pair@$$CBKV?$vector@U_VECINFO@@V?$allocator@U_VECINFO@@@std@@@std@@@std@@@2@$0A@@std@@@std@@@std@@QAEPAU_Node@?$_Tree_nod@V?$_Tmap_traits@KV?$vector@U_VECINFO@@V?$allocator@U_VECINFO@@@std@@@std@@U?$less@K@2@V?$allocator@U?$pair@$$CBKV?$vector@U_VECINFO@@V?$allocator@U_VECINFO@@@std@@@std@@@std@@@2@$0A@@std@@@2@I@Z ; std::allocator<std::_Tree_nod<std::_Tmap_traits<unsigned long,std::vector<_VECINFO,std::allocator<_VECINFO> >,std::less<unsigned long>,std::allocator<std::pair<unsigned long const ,std::vector<_VECINFO,std::allocator<_VECINFO> > > >,0> >::_Node>::allocate
; Function compile flags: /Ogty
; File c:\program files\microsoft visual studio .net 2003\vc7\include\xmemory
;	COMDAT ?allocate@?$allocator@U_Node@?$_Tree_nod@V?$_Tmap_traits@KV?$vector@U_VECINFO@@V?$allocator@U_VECINFO@@@std@@@std@@U?$less@K@2@V?$allocator@U?$pair@$$CBKV?$vector@U_VECINFO@@V?$allocator@U_VECINFO@@@std@@@std@@@std@@@2@$0A@@std@@@std@@@std@@QAEPAU_Node@?$_Tree_nod@V?$_Tmap_traits@KV?$vector@U_VECINFO@@V?$allocator@U_VECINFO@@@std@@@std@@U?$less@K@2@V?$allocator@U?$pair@$$CBKV?$vector@U_VECINFO@@V?$allocator@U_VECINFO@@@std@@@std@@@std@@@2@$0A@@std@@@2@I@Z
_TEXT	SEGMENT
__Count$ = 8						; size = 4
?allocate@?$allocator@U_Node@?$_Tree_nod@V?$_Tmap_traits@KV?$vector@U_VECINFO@@V?$allocator@U_VECINFO@@@std@@@std@@U?$less@K@2@V?$allocator@U?$pair@$$CBKV?$vector@U_VECINFO@@V?$allocator@U_VECINFO@@@std@@@std@@@std@@@2@$0A@@std@@@std@@@std@@QAEPAU_Node@?$_Tree_nod@V?$_Tmap_traits@KV?$vector@U_VECINFO@@V?$allocator@U_VECINFO@@@std@@@std@@U?$less@K@2@V?$allocator@U?$pair@$$CBKV?$vector@U_VECINFO@@V?$allocator@U_VECINFO@@@std@@@std@@@std@@@2@$0A@@std@@@2@I@Z PROC NEAR ; std::allocator<std::_Tree_nod<std::_Tmap_traits<unsigned long,std::vector<_VECINFO,std::allocator<_VECINFO> >,std::less<unsigned long>,std::allocator<std::pair<unsigned long const ,std::vector<_VECINFO,std::allocator<_VECINFO> > > >,0> >::_Node>::allocate, COMDAT
; _this$ = ecx

; 137  : 		return (_Allocate(_Count, (pointer)0));

  00000	8b 44 24 04	 mov	 eax, DWORD PTR __Count$[esp-4]
  00004	8d 04 c0	 lea	 eax, DWORD PTR [eax+eax*8]
  00007	c1 e0 02	 shl	 eax, 2
  0000a	50		 push	 eax
  0000b	e8 00 00 00 00	 call	 ??2@YAPAXI@Z		; operator new
  00010	83 c4 04	 add	 esp, 4

; 138  : 		}

  00013	c2 04 00	 ret	 4
?allocate@?$allocator@U_Node@?$_Tree_nod@V?$_Tmap_traits@KV?$vector@U_VECINFO@@V?$allocator@U_VECINFO@@@std@@@std@@U?$less@K@2@V?$allocator@U?$pair@$$CBKV?$vector@U_VECINFO@@V?$allocator@U_VECINFO@@@std@@@std@@@std@@@2@$0A@@std@@@std@@@std@@QAEPAU_Node@?$_Tree_nod@V?$_Tmap_traits@KV?$vector@U_VECINFO@@V?$allocator@U_VECINFO@@@std@@@std@@U?$less@K@2@V?$allocator@U?$pair@$$CBKV?$vector@U_VECINFO@@V?$allocator@U_VECINFO@@@std@@@std@@@std@@@2@$0A@@std@@@2@I@Z ENDP ; std::allocator<std::_Tree_nod<std::_Tmap_traits<unsigned long,std::vector<_VECINFO,std::allocator<_VECINFO> >,std::less<unsigned long>,std::allocator<std::pair<unsigned long const ,std::vector<_VECINFO,std::allocator<_VECINFO> > > >,0> >::_Node>::allocate
_TEXT	ENDS
PUBLIC	?_Dec@const_iterator@?$_Tree@V?$_Tmap_traits@KV?$vector@U_VECINFO@@V?$allocator@U_VECINFO@@@std@@@std@@U?$less@K@2@V?$allocator@U?$pair@$$CBKV?$vector@U_VECINFO@@V?$allocator@U_VECINFO@@@std@@@std@@@std@@@2@$0A@@std@@@std@@QAEXXZ ; std::_Tree<std::_Tmap_traits<unsigned long,std::vector<_VECINFO,std::allocator<_VECINFO> >,std::less<unsigned long>,std::allocator<std::pair<unsigned long const ,std::vector<_VECINFO,std::allocator<_VECINFO> > > >,0> >::const_iterator::_Dec
; Function compile flags: /Ogty
; File c:\program files\microsoft visual studio .net 2003\vc7\include\xtree
;	COMDAT ?_Dec@const_iterator@?$_Tree@V?$_Tmap_traits@KV?$vector@U_VECINFO@@V?$allocator@U_VECINFO@@@std@@@std@@U?$less@K@2@V?$allocator@U?$pair@$$CBKV?$vector@U_VECINFO@@V?$allocator@U_VECINFO@@@std@@@std@@@std@@@2@$0A@@std@@@std@@QAEXXZ
_TEXT	SEGMENT
?_Dec@const_iterator@?$_Tree@V?$_Tmap_traits@KV?$vector@U_VECINFO@@V?$allocator@U_VECINFO@@@std@@@std@@U?$less@K@2@V?$allocator@U?$pair@$$CBKV?$vector@U_VECINFO@@V?$allocator@U_VECINFO@@@std@@@std@@@std@@@2@$0A@@std@@@std@@QAEXXZ PROC NEAR ; std::_Tree<std::_Tmap_traits<unsigned long,std::vector<_VECINFO,std::allocator<_VECINFO> >,std::less<unsigned long>,std::allocator<std::pair<unsigned long const ,std::vector<_VECINFO,std::allocator<_VECINFO> > > >,0> >::const_iterator::_Dec, COMDAT
; _this$ = ecx

; 251  : 			if (_Isnil(_Ptr))

  00000	8b 01		 mov	 eax, DWORD PTR [ecx]
  00002	8a 50 21	 mov	 dl, BYTE PTR [eax+33]
  00005	84 d2		 test	 dl, dl
  00007	74 06		 je	 SHORT $L227227

; 252  : 				_Ptr = _Right(_Ptr);	// end() ==> rightmost

  00009	8b 40 08	 mov	 eax, DWORD PTR [eax+8]
  0000c	89 01		 mov	 DWORD PTR [ecx], eax

; 263  : 				}
; 264  : 			}

  0000e	c3		 ret	 0
$L227227:

; 253  : 			else if (!_Isnil(_Left(_Ptr)))

  0000f	8b 10		 mov	 edx, DWORD PTR [eax]
  00011	53		 push	 ebx
  00012	8a 5a 21	 mov	 bl, BYTE PTR [edx+33]
  00015	84 db		 test	 bl, bl
  00017	75 1a		 jne	 SHORT $L230257

; 254  : 				_Ptr = _Max(_Left(_Ptr));	// ==> largest of left subtree

  00019	8b 42 08	 mov	 eax, DWORD PTR [edx+8]
  0001c	8a 58 21	 mov	 bl, BYTE PTR [eax+33]
  0001f	84 db		 test	 bl, bl
  00021	75 0c		 jne	 SHORT $L230242
$L230241:
  00023	8b d0		 mov	 edx, eax
  00025	8b 42 08	 mov	 eax, DWORD PTR [edx+8]
  00028	8a 58 21	 mov	 bl, BYTE PTR [eax+33]
  0002b	84 db		 test	 bl, bl
  0002d	74 f4		 je	 SHORT $L230241
$L230242:
  0002f	89 11		 mov	 DWORD PTR [ecx], edx
  00031	5b		 pop	 ebx

; 263  : 				}
; 264  : 			}

  00032	c3		 ret	 0
$L230257:

; 255  : 			else
; 256  : 				{	// climb looking for left subtree
; 257  : 				_Nodeptr _Pnode;
; 258  : 				while (!_Isnil(_Pnode = _Parent(_Ptr))
; 259  : 					&& _Ptr == _Left(_Pnode))

  00033	8b 40 04	 mov	 eax, DWORD PTR [eax+4]
  00036	8a 50 21	 mov	 dl, BYTE PTR [eax+33]
  00039	84 d2		 test	 dl, dl
  0003b	75 1e		 jne	 SHORT $L230260
  0003d	8d 49 00	 npad	 3
$L227233:
  00040	8b 11		 mov	 edx, DWORD PTR [ecx]
  00042	3b 10		 cmp	 edx, DWORD PTR [eax]
  00044	75 0c		 jne	 SHORT $L227234

; 260  : 					_Ptr = _Pnode;	// ==> parent while left subtree

  00046	89 01		 mov	 DWORD PTR [ecx], eax
  00048	8b 40 04	 mov	 eax, DWORD PTR [eax+4]
  0004b	8a 50 21	 mov	 dl, BYTE PTR [eax+33]
  0004e	84 d2		 test	 dl, dl
  00050	74 ee		 je	 SHORT $L227233
$L227234:

; 261  : 				if (!_Isnil(_Pnode))

  00052	8a 50 21	 mov	 dl, BYTE PTR [eax+33]
  00055	84 d2		 test	 dl, dl
  00057	75 02		 jne	 SHORT $L230260

; 262  : 					_Ptr = _Pnode;	// ==> parent if not head

  00059	89 01		 mov	 DWORD PTR [ecx], eax
$L230260:
  0005b	5b		 pop	 ebx

; 263  : 				}
; 264  : 			}

  0005c	c3		 ret	 0
?_Dec@const_iterator@?$_Tree@V?$_Tmap_traits@KV?$vector@U_VECINFO@@V?$allocator@U_VECINFO@@@std@@@std@@U?$less@K@2@V?$allocator@U?$pair@$$CBKV?$vector@U_VECINFO@@V?$allocator@U_VECINFO@@@std@@@std@@@std@@@2@$0A@@std@@@std@@QAEXXZ ENDP ; std::_Tree<std::_Tmap_traits<unsigned long,std::vector<_VECINFO,std::allocator<_VECINFO> >,std::less<unsigned long>,std::allocator<std::pair<unsigned long const ,std::vector<_VECINFO,std::allocator<_VECINFO> > > >,0> >::const_iterator::_Dec
_TEXT	ENDS
PUBLIC	??0?$_Tree_nod@V?$_Tmap_traits@KHU?$less@K@std@@V?$allocator@U?$pair@$$CBKH@std@@@2@$0A@@std@@@std@@IAE@ABU?$less@K@1@V?$allocator@U?$pair@$$CBKH@std@@@1@@Z ; std::_Tree_nod<std::_Tmap_traits<unsigned long,int,std::less<unsigned long>,std::allocator<std::pair<unsigned long const ,int> >,0> >::_Tree_nod<std::_Tmap_traits<unsigned long,int,std::less<unsigned long>,std::allocator<std::pair<unsigned long const ,int> >,0> >
; Function compile flags: /Ogty
;	COMDAT ??0?$_Tree_nod@V?$_Tmap_traits@KHU?$less@K@std@@V?$allocator@U?$pair@$$CBKH@std@@@2@$0A@@std@@@std@@IAE@ABU?$less@K@1@V?$allocator@U?$pair@$$CBKH@std@@@1@@Z
_TEXT	SEGMENT
__Parg$ = 8						; size = 4
__Al$ = 12						; size = 1
??0?$_Tree_nod@V?$_Tmap_traits@KHU?$less@K@std@@V?$allocator@U?$pair@$$CBKH@std@@@2@$0A@@std@@@std@@IAE@ABU?$less@K@1@V?$allocator@U?$pair@$$CBKH@std@@@1@@Z PROC NEAR ; std::_Tree_nod<std::_Tmap_traits<unsigned long,int,std::less<unsigned long>,std::allocator<std::pair<unsigned long const ,int> >,0> >::_Tree_nod<std::_Tmap_traits<unsigned long,int,std::less<unsigned long>,std::allocator<std::pair<unsigned long const ,int> >,0> >, COMDAT
; _this$ = ecx

; 54   : 		{	// construct traits from _Parg and allocator from _Al

  00000	8b c1		 mov	 eax, ecx

; 55   : 		}

  00002	c2 08 00	 ret	 8
??0?$_Tree_nod@V?$_Tmap_traits@KHU?$less@K@std@@V?$allocator@U?$pair@$$CBKH@std@@@2@$0A@@std@@@std@@IAE@ABU?$less@K@1@V?$allocator@U?$pair@$$CBKH@std@@@1@@Z ENDP ; std::_Tree_nod<std::_Tmap_traits<unsigned long,int,std::less<unsigned long>,std::allocator<std::pair<unsigned long const ,int> >,0> >::_Tree_nod<std::_Tmap_traits<unsigned long,int,std::less<unsigned long>,std::allocator<std::pair<unsigned long const ,int> >,0> >
_TEXT	ENDS
PUBLIC	?allocate@?$allocator@U_Node@?$_Tree_nod@V?$_Tmap_traits@KHU?$less@K@std@@V?$allocator@U?$pair@$$CBKH@std@@@2@$0A@@std@@@std@@@std@@QAEPAU_Node@?$_Tree_nod@V?$_Tmap_traits@KHU?$less@K@std@@V?$allocator@U?$pair@$$CBKH@std@@@2@$0A@@std@@@2@I@Z ; std::allocator<std::_Tree_nod<std::_Tmap_traits<unsigned long,int,std::less<unsigned long>,std::allocator<std::pair<unsigned long const ,int> >,0> >::_Node>::allocate
; Function compile flags: /Ogty
; File c:\program files\microsoft visual studio .net 2003\vc7\include\xmemory
;	COMDAT ?allocate@?$allocator@U_Node@?$_Tree_nod@V?$_Tmap_traits@KHU?$less@K@std@@V?$allocator@U?$pair@$$CBKH@std@@@2@$0A@@std@@@std@@@std@@QAEPAU_Node@?$_Tree_nod@V?$_Tmap_traits@KHU?$less@K@std@@V?$allocator@U?$pair@$$CBKH@std@@@2@$0A@@std@@@2@I@Z
_TEXT	SEGMENT
__Count$ = 8						; size = 4
?allocate@?$allocator@U_Node@?$_Tree_nod@V?$_Tmap_traits@KHU?$less@K@std@@V?$allocator@U?$pair@$$CBKH@std@@@2@$0A@@std@@@std@@@std@@QAEPAU_Node@?$_Tree_nod@V?$_Tmap_traits@KHU?$less@K@std@@V?$allocator@U?$pair@$$CBKH@std@@@2@$0A@@std@@@2@I@Z PROC NEAR ; std::allocator<std::_Tree_nod<std::_Tmap_traits<unsigned long,int,std::less<unsigned long>,std::allocator<std::pair<unsigned long const ,int> >,0> >::_Node>::allocate, COMDAT
; _this$ = ecx

; 137  : 		return (_Allocate(_Count, (pointer)0));

  00000	8b 44 24 04	 mov	 eax, DWORD PTR __Count$[esp-4]
  00004	8d 04 40	 lea	 eax, DWORD PTR [eax+eax*2]
  00007	c1 e0 03	 shl	 eax, 3
  0000a	50		 push	 eax
  0000b	e8 00 00 00 00	 call	 ??2@YAPAXI@Z		; operator new
  00010	83 c4 04	 add	 esp, 4

; 138  : 		}

  00013	c2 04 00	 ret	 4
?allocate@?$allocator@U_Node@?$_Tree_nod@V?$_Tmap_traits@KHU?$less@K@std@@V?$allocator@U?$pair@$$CBKH@std@@@2@$0A@@std@@@std@@@std@@QAEPAU_Node@?$_Tree_nod@V?$_Tmap_traits@KHU?$less@K@std@@V?$allocator@U?$pair@$$CBKH@std@@@2@$0A@@std@@@2@I@Z ENDP ; std::allocator<std::_Tree_nod<std::_Tmap_traits<unsigned long,int,std::less<unsigned long>,std::allocator<std::pair<unsigned long const ,int> >,0> >::_Node>::allocate
_TEXT	ENDS
PUBLIC	?construct@?$allocator@PAU_Node@?$_Tree_nod@V?$_Tmap_traits@KHU?$less@K@std@@V?$allocator@U?$pair@$$CBKH@std@@@2@$0A@@std@@@std@@@std@@QAEXPAPAU_Node@?$_Tree_nod@V?$_Tmap_traits@KHU?$less@K@std@@V?$allocator@U?$pair@$$CBKH@std@@@2@$0A@@std@@@2@ABQAU342@@Z ; std::allocator<std::_Tree_nod<std::_Tmap_traits<unsigned long,int,std::less<unsigned long>,std::allocator<std::pair<unsigned long const ,int> >,0> >::_Node *>::construct
; Function compile flags: /Ogty
;	COMDAT ?construct@?$allocator@PAU_Node@?$_Tree_nod@V?$_Tmap_traits@KHU?$less@K@std@@V?$allocator@U?$pair@$$CBKH@std@@@2@$0A@@std@@@std@@@std@@QAEXPAPAU_Node@?$_Tree_nod@V?$_Tmap_traits@KHU?$less@K@std@@V?$allocator@U?$pair@$$CBKH@std@@@2@$0A@@std@@@2@ABQAU342@@Z
_TEXT	SEGMENT
__Ptr$ = 8						; size = 4
__Val$ = 12						; size = 4
?construct@?$allocator@PAU_Node@?$_Tree_nod@V?$_Tmap_traits@KHU?$less@K@std@@V?$allocator@U?$pair@$$CBKH@std@@@2@$0A@@std@@@std@@@std@@QAEXPAPAU_Node@?$_Tree_nod@V?$_Tmap_traits@KHU?$less@K@std@@V?$allocator@U?$pair@$$CBKH@std@@@2@$0A@@std@@@2@ABQAU342@@Z PROC NEAR ; std::allocator<std::_Tree_nod<std::_Tmap_traits<unsigned long,int,std::less<unsigned long>,std::allocator<std::pair<unsigned long const ,int> >,0> >::_Node *>::construct, COMDAT
; _this$ = ecx

; 147  : 		_Construct(_Ptr, _Val);

  00000	8b 44 24 04	 mov	 eax, DWORD PTR __Ptr$[esp-4]
  00004	85 c0		 test	 eax, eax
  00006	74 08		 je	 SHORT $L230290
  00008	8b 4c 24 08	 mov	 ecx, DWORD PTR __Val$[esp-4]
  0000c	8b 11		 mov	 edx, DWORD PTR [ecx]
  0000e	89 10		 mov	 DWORD PTR [eax], edx
$L230290:

; 148  : 		}

  00010	c2 08 00	 ret	 8
?construct@?$allocator@PAU_Node@?$_Tree_nod@V?$_Tmap_traits@KHU?$less@K@std@@V?$allocator@U?$pair@$$CBKH@std@@@2@$0A@@std@@@std@@@std@@QAEXPAPAU_Node@?$_Tree_nod@V?$_Tmap_traits@KHU?$less@K@std@@V?$allocator@U?$pair@$$CBKH@std@@@2@$0A@@std@@@2@ABQAU342@@Z ENDP ; std::allocator<std::_Tree_nod<std::_Tmap_traits<unsigned long,int,std::less<unsigned long>,std::allocator<std::pair<unsigned long const ,int> >,0> >::_Node *>::construct
_TEXT	ENDS
PUBLIC	??0?$_Tree_nod@V?$_Tmap_traits@KV?$vector@U_VECINFO@@V?$allocator@U_VECINFO@@@std@@@std@@U?$less@K@2@V?$allocator@U?$pair@$$CBKV?$vector@U_VECINFO@@V?$allocator@U_VECINFO@@@std@@@std@@@std@@@2@$0A@@std@@@std@@IAE@ABU?$less@K@1@V?$allocator@U?$pair@$$CBKV?$vector@U_VECINFO@@V?$allocator@U_VECINFO@@@std@@@std@@@std@@@1@@Z ; std::_Tree_nod<std::_Tmap_traits<unsigned long,std::vector<_VECINFO,std::allocator<_VECINFO> >,std::less<unsigned long>,std::allocator<std::pair<unsigned long const ,std::vector<_VECINFO,std::allocator<_VECINFO> > > >,0> >::_Tree_nod<std::_Tmap_traits<unsigned long,std::vector<_VECINFO,std::allocator<_VECINFO> >,std::less<unsigned long>,std::allocator<std::pair<unsigned long const ,std::vector<_VECINFO,std::allocator<_VECINFO> > > >,0> >
; Function compile flags: /Ogty
; File c:\program files\microsoft visual studio .net 2003\vc7\include\xtree
;	COMDAT ??0?$_Tree_nod@V?$_Tmap_traits@KV?$vector@U_VECINFO@@V?$allocator@U_VECINFO@@@std@@@std@@U?$less@K@2@V?$allocator@U?$pair@$$CBKV?$vector@U_VECINFO@@V?$allocator@U_VECINFO@@@std@@@std@@@std@@@2@$0A@@std@@@std@@IAE@ABU?$less@K@1@V?$allocator@U?$pair@$$CBKV?$vector@U_VECINFO@@V?$allocator@U_VECINFO@@@std@@@std@@@std@@@1@@Z
_TEXT	SEGMENT
__Parg$ = 8						; size = 4
__Al$ = 12						; size = 1
??0?$_Tree_nod@V?$_Tmap_traits@KV?$vector@U_VECINFO@@V?$allocator@U_VECINFO@@@std@@@std@@U?$less@K@2@V?$allocator@U?$pair@$$CBKV?$vector@U_VECINFO@@V?$allocator@U_VECINFO@@@std@@@std@@@std@@@2@$0A@@std@@@std@@IAE@ABU?$less@K@1@V?$allocator@U?$pair@$$CBKV?$vector@U_VECINFO@@V?$allocator@U_VECINFO@@@std@@@std@@@std@@@1@@Z PROC NEAR ; std::_Tree_nod<std::_Tmap_traits<unsigned long,std::vector<_VECINFO,std::allocator<_VECINFO> >,std::less<unsigned long>,std::allocator<std::pair<unsigned long const ,std::vector<_VECINFO,std::allocator<_VECINFO> > > >,0> >::_Tree_nod<std::_Tmap_traits<unsigned long,std::vector<_VECINFO,std::allocator<_VECINFO> >,std::less<unsigned long>,std::allocator<std::pair<unsigned long const ,std::vector<_VECINFO,std::allocator<_VECINFO> > > >,0> >, COMDAT
; _this$ = ecx

; 54   : 		{	// construct traits from _Parg and allocator from _Al

  00000	8b c1		 mov	 eax, ecx

; 55   : 		}

  00002	c2 08 00	 ret	 8
??0?$_Tree_nod@V?$_Tmap_traits@KV?$vector@U_VECINFO@@V?$allocator@U_VECINFO@@@std@@@std@@U?$less@K@2@V?$allocator@U?$pair@$$CBKV?$vector@U_VECINFO@@V?$allocator@U_VECINFO@@@std@@@std@@@std@@@2@$0A@@std@@@std@@IAE@ABU?$less@K@1@V?$allocator@U?$pair@$$CBKV?$vector@U_VECINFO@@V?$allocator@U_VECINFO@@@std@@@std@@@std@@@1@@Z ENDP ; std::_Tree_nod<std::_Tmap_traits<unsigned long,std::vector<_VECINFO,std::allocator<_VECINFO> >,std::less<unsigned long>,std::allocator<std::pair<unsigned long const ,std::vector<_VECINFO,std::allocator<_VECINFO> > > >,0> >::_Tree_nod<std::_Tmap_traits<unsigned long,std::vector<_VECINFO,std::allocator<_VECINFO> >,std::less<unsigned long>,std::allocator<std::pair<unsigned long const ,std::vector<_VECINFO,std::allocator<_VECINFO> > > >,0> >
_TEXT	ENDS
PUBLIC	?construct@?$allocator@PAU_Node@?$_Tree_nod@V?$_Tmap_traits@KV?$vector@U_VECINFO@@V?$allocator@U_VECINFO@@@std@@@std@@U?$less@K@2@V?$allocator@U?$pair@$$CBKV?$vector@U_VECINFO@@V?$allocator@U_VECINFO@@@std@@@std@@@std@@@2@$0A@@std@@@std@@@std@@QAEXPAPAU_Node@?$_Tree_nod@V?$_Tmap_traits@KV?$vector@U_VECINFO@@V?$allocator@U_VECINFO@@@std@@@std@@U?$less@K@2@V?$allocator@U?$pair@$$CBKV?$vector@U_VECINFO@@V?$allocator@U_VECINFO@@@std@@@std@@@std@@@2@$0A@@std@@@2@ABQAU342@@Z ; std::allocator<std::_Tree_nod<std::_Tmap_traits<unsigned long,std::vector<_VECINFO,std::allocator<_VECINFO> >,std::less<unsigned long>,std::allocator<std::pair<unsigned long const ,std::vector<_VECINFO,std::allocator<_VECINFO> > > >,0> >::_Node *>::construct
; Function compile flags: /Ogty
; File c:\program files\microsoft visual studio .net 2003\vc7\include\xmemory
;	COMDAT ?construct@?$allocator@PAU_Node@?$_Tree_nod@V?$_Tmap_traits@KV?$vector@U_VECINFO@@V?$allocator@U_VECINFO@@@std@@@std@@U?$less@K@2@V?$allocator@U?$pair@$$CBKV?$vector@U_VECINFO@@V?$allocator@U_VECINFO@@@std@@@std@@@std@@@2@$0A@@std@@@std@@@std@@QAEXPAPAU_Node@?$_Tree_nod@V?$_Tmap_traits@KV?$vector@U_VECINFO@@V?$allocator@U_VECINFO@@@std@@@std@@U?$less@K@2@V?$allocator@U?$pair@$$CBKV?$vector@U_VECINFO@@V?$allocator@U_VECINFO@@@std@@@std@@@std@@@2@$0A@@std@@@2@ABQAU342@@Z
_TEXT	SEGMENT
__Ptr$ = 8						; size = 4
__Val$ = 12						; size = 4
?construct@?$allocator@PAU_Node@?$_Tree_nod@V?$_Tmap_traits@KV?$vector@U_VECINFO@@V?$allocator@U_VECINFO@@@std@@@std@@U?$less@K@2@V?$allocator@U?$pair@$$CBKV?$vector@U_VECINFO@@V?$allocator@U_VECINFO@@@std@@@std@@@std@@@2@$0A@@std@@@std@@@std@@QAEXPAPAU_Node@?$_Tree_nod@V?$_Tmap_traits@KV?$vector@U_VECINFO@@V?$allocator@U_VECINFO@@@std@@@std@@U?$less@K@2@V?$allocator@U?$pair@$$CBKV?$vector@U_VECINFO@@V?$allocator@U_VECINFO@@@std@@@std@@@std@@@2@$0A@@std@@@2@ABQAU342@@Z PROC NEAR ; std::allocator<std::_Tree_nod<std::_Tmap_traits<unsigned long,std::vector<_VECINFO,std::allocator<_VECINFO> >,std::less<unsigned long>,std::allocator<std::pair<unsigned long const ,std::vector<_VECINFO,std::allocator<_VECINFO> > > >,0> >::_Node *>::construct, COMDAT
; _this$ = ecx

; 147  : 		_Construct(_Ptr, _Val);

  00000	8b 44 24 04	 mov	 eax, DWORD PTR __Ptr$[esp-4]
  00004	85 c0		 test	 eax, eax
  00006	74 08		 je	 SHORT $L230316
  00008	8b 4c 24 08	 mov	 ecx, DWORD PTR __Val$[esp-4]
  0000c	8b 11		 mov	 edx, DWORD PTR [ecx]
  0000e	89 10		 mov	 DWORD PTR [eax], edx
$L230316:

; 148  : 		}

  00010	c2 08 00	 ret	 8
?construct@?$allocator@PAU_Node@?$_Tree_nod@V?$_Tmap_traits@KV?$vector@U_VECINFO@@V?$allocator@U_VECINFO@@@std@@@std@@U?$less@K@2@V?$allocator@U?$pair@$$CBKV?$vector@U_VECINFO@@V?$allocator@U_VECINFO@@@std@@@std@@@std@@@2@$0A@@std@@@std@@@std@@QAEXPAPAU_Node@?$_Tree_nod@V?$_Tmap_traits@KV?$vector@U_VECINFO@@V?$allocator@U_VECINFO@@@std@@@std@@U?$less@K@2@V?$allocator@U?$pair@$$CBKV?$vector@U_VECINFO@@V?$allocator@U_VECINFO@@@std@@@std@@@std@@@2@$0A@@std@@@2@ABQAU342@@Z ENDP ; std::allocator<std::_Tree_nod<std::_Tmap_traits<unsigned long,std::vector<_VECINFO,std::allocator<_VECINFO> >,std::less<unsigned long>,std::allocator<std::pair<unsigned long const ,std::vector<_VECINFO,std::allocator<_VECINFO> > > >,0> >::_Node *>::construct
_TEXT	ENDS
PUBLIC	??Econst_iterator@?$_Tree@V?$_Tmap_traits@KV?$vector@U_VECINFO@@V?$allocator@U_VECINFO@@@std@@@std@@U?$less@K@2@V?$allocator@U?$pair@$$CBKV?$vector@U_VECINFO@@V?$allocator@U_VECINFO@@@std@@@std@@@std@@@2@$0A@@std@@@std@@QAEAAV012@XZ ; std::_Tree<std::_Tmap_traits<unsigned long,std::vector<_VECINFO,std::allocator<_VECINFO> >,std::less<unsigned long>,std::allocator<std::pair<unsigned long const ,std::vector<_VECINFO,std::allocator<_VECINFO> > > >,0> >::const_iterator::operator++
; Function compile flags: /Ogty
; File c:\program files\microsoft visual studio .net 2003\vc7\include\xtree
;	COMDAT ??Econst_iterator@?$_Tree@V?$_Tmap_traits@KV?$vector@U_VECINFO@@V?$allocator@U_VECINFO@@@std@@@std@@U?$less@K@2@V?$allocator@U?$pair@$$CBKV?$vector@U_VECINFO@@V?$allocator@U_VECINFO@@@std@@@std@@@std@@@2@$0A@@std@@@std@@QAEAAV012@XZ
_TEXT	SEGMENT
??Econst_iterator@?$_Tree@V?$_Tmap_traits@KV?$vector@U_VECINFO@@V?$allocator@U_VECINFO@@@std@@@std@@U?$less@K@2@V?$allocator@U?$pair@$$CBKV?$vector@U_VECINFO@@V?$allocator@U_VECINFO@@@std@@@std@@@std@@@2@$0A@@std@@@std@@QAEAAV012@XZ PROC NEAR ; std::_Tree<std::_Tmap_traits<unsigned long,std::vector<_VECINFO,std::allocator<_VECINFO> >,std::less<unsigned long>,std::allocator<std::pair<unsigned long const ,std::vector<_VECINFO,std::allocator<_VECINFO> > > >,0> >::const_iterator::operator++, COMDAT
; _this$ = ecx

; 214  : 			{	// preincrement

  00000	56		 push	 esi
  00001	8b f1		 mov	 esi, ecx

; 215  : 			_Inc();

  00003	e8 00 00 00 00	 call	 ?_Inc@const_iterator@?$_Tree@V?$_Tmap_traits@KV?$vector@U_VECINFO@@V?$allocator@U_VECINFO@@@std@@@std@@U?$less@K@2@V?$allocator@U?$pair@$$CBKV?$vector@U_VECINFO@@V?$allocator@U_VECINFO@@@std@@@std@@@std@@@2@$0A@@std@@@std@@QAEXXZ ; std::_Tree<std::_Tmap_traits<unsigned long,std::vector<_VECINFO,std::allocator<_VECINFO> >,std::less<unsigned long>,std::allocator<std::pair<unsigned long const ,std::vector<_VECINFO,std::allocator<_VECINFO> > > >,0> >::const_iterator::_Inc

; 216  : 			return (*this);

  00008	8b c6		 mov	 eax, esi
  0000a	5e		 pop	 esi

; 217  : 			}

  0000b	c3		 ret	 0
??Econst_iterator@?$_Tree@V?$_Tmap_traits@KV?$vector@U_VECINFO@@V?$allocator@U_VECINFO@@@std@@@std@@U?$less@K@2@V?$allocator@U?$pair@$$CBKV?$vector@U_VECINFO@@V?$allocator@U_VECINFO@@@std@@@std@@@std@@@2@$0A@@std@@@std@@QAEAAV012@XZ ENDP ; std::_Tree<std::_Tmap_traits<unsigned long,std::vector<_VECINFO,std::allocator<_VECINFO> >,std::less<unsigned long>,std::allocator<std::pair<unsigned long const ,std::vector<_VECINFO,std::allocator<_VECINFO> > > >,0> >::const_iterator::operator++
_TEXT	ENDS
PUBLIC	??$copy_backward@PAUD3DXVECTOR3@@PAU1@@std@@YAPAUD3DXVECTOR3@@PAU1@00@Z ; std::copy_backward<D3DXVECTOR3 *,D3DXVECTOR3 *>
; Function compile flags: /Ogty
; File c:\program files\microsoft visual studio .net 2003\vc7\include\xutility
;	COMDAT ??$copy_backward@PAUD3DXVECTOR3@@PAU1@@std@@YAPAUD3DXVECTOR3@@PAU1@00@Z
_TEXT	SEGMENT
__Cat$230329 = -4					; size = 1
__First$ = 8						; size = 4
__Last$ = 12						; size = 4
__Dest$ = 16						; size = 4
??$copy_backward@PAUD3DXVECTOR3@@PAU1@@std@@YAPAUD3DXVECTOR3@@PAU1@00@Z PROC NEAR ; std::copy_backward<D3DXVECTOR3 *,D3DXVECTOR3 *>, COMDAT

; 1067 : 	{	// copy [_First, _Last) backwards to [..., _Dest)

  00000	51		 push	 ecx

; 1068 : 	return (_Copy_backward_opt(_First, _Last, _Dest,
; 1069 : 		_Ptr_cat(_First, _Dest)));

  00001	8b 04 24	 mov	 eax, DWORD PTR __Cat$230329[esp+4]
  00004	8b 4c 24 10	 mov	 ecx, DWORD PTR __Dest$[esp]
  00008	8b 54 24 0c	 mov	 edx, DWORD PTR __Last$[esp]
  0000c	50		 push	 eax
  0000d	8b 44 24 0c	 mov	 eax, DWORD PTR __First$[esp+4]
  00011	51		 push	 ecx
  00012	52		 push	 edx
  00013	50		 push	 eax
  00014	e8 00 00 00 00	 call	 ??$_Copy_backward_opt@PAUD3DXVECTOR3@@PAU1@@std@@YAPAUD3DXVECTOR3@@PAU1@00U_Nonscalar_ptr_iterator_tag@0@@Z ; std::_Copy_backward_opt<D3DXVECTOR3 *,D3DXVECTOR3 *>

; 1070 : 	}

  00019	83 c4 14	 add	 esp, 20			; 00000014H
  0001c	c3		 ret	 0
??$copy_backward@PAUD3DXVECTOR3@@PAU1@@std@@YAPAUD3DXVECTOR3@@PAU1@00@Z ENDP ; std::copy_backward<D3DXVECTOR3 *,D3DXVECTOR3 *>
_TEXT	ENDS
PUBLIC	??$fill@PAU_VECINFO@@U1@@std@@YAXPAU_VECINFO@@0ABU1@@Z ; std::fill<_VECINFO *,_VECINFO>
; Function compile flags: /Ogty
;	COMDAT ??$fill@PAU_VECINFO@@U1@@std@@YAXPAU_VECINFO@@0ABU1@@Z
_TEXT	SEGMENT
__First$ = 8						; size = 4
__Last$ = 12						; size = 4
__Val$ = 16						; size = 4
??$fill@PAU_VECINFO@@U1@@std@@YAXPAU_VECINFO@@0ABU1@@Z PROC NEAR ; std::fill<_VECINFO *,_VECINFO>, COMDAT

; 1135 : 	for (; _First != _Last; ++_First)

  00000	8b 54 24 04	 mov	 edx, DWORD PTR __First$[esp-4]
  00004	56		 push	 esi
  00005	8b 74 24 0c	 mov	 esi, DWORD PTR __Last$[esp]
  00009	3b d6		 cmp	 edx, esi
  0000b	74 4f		 je	 SHORT $L227860
  0000d	8b 4c 24 10	 mov	 ecx, DWORD PTR __Val$[esp]
  00011	53		 push	 ebx
  00012	55		 push	 ebp
  00013	8d 42 28	 lea	 eax, DWORD PTR [edx+40]
  00016	57		 push	 edi
$L227858:

; 1136 : 		*_First = _Val;

  00017	8b f9		 mov	 edi, ecx
  00019	8b 2f		 mov	 ebp, DWORD PTR [edi]
  0001b	8b da		 mov	 ebx, edx
  0001d	89 2b		 mov	 DWORD PTR [ebx], ebp
  0001f	8b 6f 04	 mov	 ebp, DWORD PTR [edi+4]
  00022	89 6b 04	 mov	 DWORD PTR [ebx+4], ebp
  00025	8b 7f 08	 mov	 edi, DWORD PTR [edi+8]
  00028	89 7b 08	 mov	 DWORD PTR [ebx+8], edi
  0002b	8b 79 0c	 mov	 edi, DWORD PTR [ecx+12]
  0002e	89 78 e4	 mov	 DWORD PTR [eax-28], edi
  00031	8b 79 10	 mov	 edi, DWORD PTR [ecx+16]
  00034	89 78 e8	 mov	 DWORD PTR [eax-24], edi
  00037	8b 79 14	 mov	 edi, DWORD PTR [ecx+20]
  0003a	89 78 ec	 mov	 DWORD PTR [eax-20], edi
  0003d	dd 41 20	 fld	 QWORD PTR [ecx+32]
  00040	dd 58 f8	 fstp	 QWORD PTR [eax-8]
  00043	83 c2 38	 add	 edx, 56			; 00000038H
  00046	dd 41 28	 fld	 QWORD PTR [ecx+40]
  00049	83 c0 38	 add	 eax, 56			; 00000038H
  0004c	3b d6		 cmp	 edx, esi
  0004e	dd 58 c8	 fstp	 QWORD PTR [eax-56]
  00051	8b 79 30	 mov	 edi, DWORD PTR [ecx+48]
  00054	89 78 d0	 mov	 DWORD PTR [eax-48], edi
  00057	75 be		 jne	 SHORT $L227858
  00059	5f		 pop	 edi
  0005a	5d		 pop	 ebp
  0005b	5b		 pop	 ebx
$L227860:
  0005c	5e		 pop	 esi

; 1137 : 	}

  0005d	c3		 ret	 0
??$fill@PAU_VECINFO@@U1@@std@@YAXPAU_VECINFO@@0ABU1@@Z ENDP ; std::fill<_VECINFO *,_VECINFO>
_TEXT	ENDS
PUBLIC	?destroy@?$allocator@UD3DXVECTOR3@@@std@@QAEXPAUD3DXVECTOR3@@@Z ; std::allocator<D3DXVECTOR3>::destroy
; Function compile flags: /Ogty
; File c:\program files\microsoft visual studio .net 2003\vc7\include\xmemory
;	COMDAT ?destroy@?$allocator@UD3DXVECTOR3@@@std@@QAEXPAUD3DXVECTOR3@@@Z
_TEXT	SEGMENT
__Ptr$ = 8						; size = 4
?destroy@?$allocator@UD3DXVECTOR3@@@std@@QAEXPAUD3DXVECTOR3@@@Z PROC NEAR ; std::allocator<D3DXVECTOR3>::destroy, COMDAT
; _this$ = ecx

; 152  : 		_Destroy(_Ptr);
; 153  : 		}

  00000	c2 04 00	 ret	 4
?destroy@?$allocator@UD3DXVECTOR3@@@std@@QAEXPAUD3DXVECTOR3@@@Z ENDP ; std::allocator<D3DXVECTOR3>::destroy
_TEXT	ENDS
PUBLIC	??$_Copy_backward_opt@PAU_VECINFO@@PAU1@@std@@YAPAU_VECINFO@@PAU1@00U_Nonscalar_ptr_iterator_tag@0@@Z ; std::_Copy_backward_opt<_VECINFO *,_VECINFO *>
; Function compile flags: /Ogty
; File c:\program files\microsoft visual studio .net 2003\vc7\include\xutility
;	COMDAT ??$_Copy_backward_opt@PAU_VECINFO@@PAU1@@std@@YAPAU_VECINFO@@PAU1@00U_Nonscalar_ptr_iterator_tag@0@@Z
_TEXT	SEGMENT
__First$ = 8						; size = 4
__Last$ = 12						; size = 4
__Dest$ = 16						; size = 4
___formal$ = 20						; size = 1
??$_Copy_backward_opt@PAU_VECINFO@@PAU1@@std@@YAPAU_VECINFO@@PAU1@00U_Nonscalar_ptr_iterator_tag@0@@Z PROC NEAR ; std::_Copy_backward_opt<_VECINFO *,_VECINFO *>, COMDAT

; 1049 : 	while (_First != _Last)

  00000	8b 44 24 04	 mov	 eax, DWORD PTR __First$[esp-4]
  00004	56		 push	 esi
  00005	8b 74 24 0c	 mov	 esi, DWORD PTR __Last$[esp]
  00009	3b c6		 cmp	 eax, esi
  0000b	8b 44 24 10	 mov	 eax, DWORD PTR __Dest$[esp]
  0000f	74 5a		 je	 SHORT $L228183
  00011	53		 push	 ebx
  00012	55		 push	 ebp
  00013	8d 50 28	 lea	 edx, DWORD PTR [eax+40]
  00016	8d 4e 28	 lea	 ecx, DWORD PTR [esi+40]
  00019	57		 push	 edi
  0001a	8d 9b 00 00 00
	00		 npad	 6
$L228182:

; 1050 : 		*--_Dest = *--_Last;

  00020	83 ee 38	 sub	 esi, 56			; 00000038H
  00023	83 e8 38	 sub	 eax, 56			; 00000038H
  00026	8b fe		 mov	 edi, esi
  00028	8b 2f		 mov	 ebp, DWORD PTR [edi]
  0002a	8b d8		 mov	 ebx, eax
  0002c	89 2b		 mov	 DWORD PTR [ebx], ebp
  0002e	8b 6f 04	 mov	 ebp, DWORD PTR [edi+4]
  00031	89 6b 04	 mov	 DWORD PTR [ebx+4], ebp
  00034	8b 7f 08	 mov	 edi, DWORD PTR [edi+8]
  00037	89 7b 08	 mov	 DWORD PTR [ebx+8], edi
  0003a	8b 79 ac	 mov	 edi, DWORD PTR [ecx-84]
  0003d	83 e9 38	 sub	 ecx, 56			; 00000038H
  00040	83 ea 38	 sub	 edx, 56			; 00000038H
  00043	89 7a e4	 mov	 DWORD PTR [edx-28], edi
  00046	8b 79 e8	 mov	 edi, DWORD PTR [ecx-24]
  00049	89 7a e8	 mov	 DWORD PTR [edx-24], edi
  0004c	8b 79 ec	 mov	 edi, DWORD PTR [ecx-20]
  0004f	89 7a ec	 mov	 DWORD PTR [edx-20], edi
  00052	dd 41 f8	 fld	 QWORD PTR [ecx-8]
  00055	dd 5a f8	 fstp	 QWORD PTR [edx-8]
  00058	dd 01		 fld	 QWORD PTR [ecx]
  0005a	dd 1a		 fstp	 QWORD PTR [edx]
  0005c	8b 79 08	 mov	 edi, DWORD PTR [ecx+8]
  0005f	89 7a 08	 mov	 DWORD PTR [edx+8], edi
  00062	3b 74 24 14	 cmp	 esi, DWORD PTR __First$[esp+12]
  00066	75 b8		 jne	 SHORT $L228182
  00068	5f		 pop	 edi
  00069	5d		 pop	 ebp
  0006a	5b		 pop	 ebx
$L228183:
  0006b	5e		 pop	 esi

; 1051 : 	return (_Dest);
; 1052 : 	}

  0006c	c3		 ret	 0
??$_Copy_backward_opt@PAU_VECINFO@@PAU1@@std@@YAPAU_VECINFO@@PAU1@00U_Nonscalar_ptr_iterator_tag@0@@Z ENDP ; std::_Copy_backward_opt<_VECINFO *,_VECINFO *>
_TEXT	ENDS
PUBLIC	?construct@?$allocator@UD3DXVECTOR3@@@std@@QAEXPAUD3DXVECTOR3@@ABU3@@Z ; std::allocator<D3DXVECTOR3>::construct
; Function compile flags: /Ogty
; File c:\program files\microsoft visual studio .net 2003\vc7\include\xmemory
;	COMDAT ?construct@?$allocator@UD3DXVECTOR3@@@std@@QAEXPAUD3DXVECTOR3@@ABU3@@Z
_TEXT	SEGMENT
__Ptr$ = 8						; size = 4
__Val$ = 12						; size = 4
?construct@?$allocator@UD3DXVECTOR3@@@std@@QAEXPAUD3DXVECTOR3@@ABU3@@Z PROC NEAR ; std::allocator<D3DXVECTOR3>::construct, COMDAT
; _this$ = ecx

; 147  : 		_Construct(_Ptr, _Val);

  00000	8b 44 24 04	 mov	 eax, DWORD PTR __Ptr$[esp-4]
  00004	85 c0		 test	 eax, eax
  00006	74 14		 je	 SHORT $L230380
  00008	8b 4c 24 08	 mov	 ecx, DWORD PTR __Val$[esp-4]
  0000c	8b 11		 mov	 edx, DWORD PTR [ecx]
  0000e	89 10		 mov	 DWORD PTR [eax], edx
  00010	8b 51 04	 mov	 edx, DWORD PTR [ecx+4]
  00013	89 50 04	 mov	 DWORD PTR [eax+4], edx
  00016	8b 49 08	 mov	 ecx, DWORD PTR [ecx+8]
  00019	89 48 08	 mov	 DWORD PTR [eax+8], ecx
$L230380:

; 148  : 		}

  0001c	c2 08 00	 ret	 8
?construct@?$allocator@UD3DXVECTOR3@@@std@@QAEXPAUD3DXVECTOR3@@ABU3@@Z ENDP ; std::allocator<D3DXVECTOR3>::construct
_TEXT	ENDS
PUBLIC	??$_Uninit_copy@PAUD3DXVECTOR3@@PAU1@V?$allocator@UD3DXVECTOR3@@@std@@@std@@YAPAUD3DXVECTOR3@@PAU1@00AAV?$allocator@UD3DXVECTOR3@@@0@U_Nonscalar_ptr_iterator_tag@0@@Z ; std::_Uninit_copy<D3DXVECTOR3 *,D3DXVECTOR3 *,std::allocator<D3DXVECTOR3> >
EXTRN	__CxxThrowException@8:NEAR
; Function compile flags: /Ogty
; File c:\program files\microsoft visual studio .net 2003\vc7\include\memory
;	COMDAT ??$_Uninit_copy@PAUD3DXVECTOR3@@PAU1@V?$allocator@UD3DXVECTOR3@@@std@@@std@@YAPAUD3DXVECTOR3@@PAU1@00AAV?$allocator@UD3DXVECTOR3@@@0@U_Nonscalar_ptr_iterator_tag@0@@Z
_TEXT	SEGMENT
__First$ = 8						; size = 4
__Last$ = 12						; size = 4
__Dest$ = 16						; size = 4
__Al$ = 20						; size = 4
___formal$ = 24						; size = 1
??$_Uninit_copy@PAUD3DXVECTOR3@@PAU1@V?$allocator@UD3DXVECTOR3@@@std@@@std@@YAPAUD3DXVECTOR3@@PAU1@00AAV?$allocator@UD3DXVECTOR3@@@0@U_Nonscalar_ptr_iterator_tag@0@@Z PROC NEAR ; std::_Uninit_copy<D3DXVECTOR3 *,D3DXVECTOR3 *,std::allocator<D3DXVECTOR3> >, COMDAT

; 78   : 	_FwdIt _Next = _Dest;
; 79   : 
; 80   : 	_TRY_BEGIN
; 81   : 	for (; _First != _Last; ++_Dest, ++_First)

  00000	8b 4c 24 04	 mov	 ecx, DWORD PTR __First$[esp-4]
  00004	8b 54 24 08	 mov	 edx, DWORD PTR __Last$[esp-4]
  00008	3b ca		 cmp	 ecx, edx
  0000a	8b 44 24 0c	 mov	 eax, DWORD PTR __Dest$[esp-4]
  0000e	74 28		 je	 SHORT $L228325
  00010	53		 push	 ebx
  00011	56		 push	 esi
  00012	57		 push	 edi
$L228323:

; 82   : 		_Al.construct(_Dest, *_First);

  00013	85 c0		 test	 eax, eax
  00015	74 14		 je	 SHORT $L228324
  00017	8b f1		 mov	 esi, ecx
  00019	8b 1e		 mov	 ebx, DWORD PTR [esi]
  0001b	8b f8		 mov	 edi, eax
  0001d	89 1f		 mov	 DWORD PTR [edi], ebx
  0001f	8b 5e 04	 mov	 ebx, DWORD PTR [esi+4]
  00022	89 5f 04	 mov	 DWORD PTR [edi+4], ebx
  00025	8b 76 08	 mov	 esi, DWORD PTR [esi+8]
  00028	89 77 08	 mov	 DWORD PTR [edi+8], esi
$L228324:
  0002b	83 c1 0c	 add	 ecx, 12			; 0000000cH
  0002e	83 c0 0c	 add	 eax, 12			; 0000000cH
  00031	3b ca		 cmp	 ecx, edx
  00033	75 de		 jne	 SHORT $L228323
  00035	5f		 pop	 edi
  00036	5e		 pop	 esi
  00037	5b		 pop	 ebx
$L228325:

; 83   : 	_CATCH_ALL
; 84   : 	for (; _Next != _Dest; ++_Next)
; 85   : 		_Al.destroy(_Next);
; 86   : 	_RERAISE;
; 87   : 	_CATCH_END
; 88   : 	return (_Dest);
; 89   : 	}

  00038	c3		 ret	 0
??$_Uninit_copy@PAUD3DXVECTOR3@@PAU1@V?$allocator@UD3DXVECTOR3@@@std@@@std@@YAPAUD3DXVECTOR3@@PAU1@00AAV?$allocator@UD3DXVECTOR3@@@0@U_Nonscalar_ptr_iterator_tag@0@@Z ENDP ; std::_Uninit_copy<D3DXVECTOR3 *,D3DXVECTOR3 *,std::allocator<D3DXVECTOR3> >
_TEXT	ENDS
PUBLIC	??$_Construct@U_VECINFO@@U1@@std@@YAXPAU_VECINFO@@ABU1@@Z ; std::_Construct<_VECINFO,_VECINFO>
; Function compile flags: /Ogty
; File c:\program files\microsoft visual studio .net 2003\vc7\include\xmemory
;	COMDAT ??$_Construct@U_VECINFO@@U1@@std@@YAXPAU_VECINFO@@ABU1@@Z
_TEXT	SEGMENT
__Ptr$ = 8						; size = 4
__Val$ = 12						; size = 4
??$_Construct@U_VECINFO@@U1@@std@@YAXPAU_VECINFO@@ABU1@@Z PROC NEAR ; std::_Construct<_VECINFO,_VECINFO>, COMDAT

; 42   : 	new ((void _FARQ *)_Ptr) _T1(_Val);

  00000	8b 4c 24 04	 mov	 ecx, DWORD PTR __Ptr$[esp-4]
  00004	85 c9		 test	 ecx, ecx
  00006	74 0a		 je	 SHORT $L230426
  00008	8b 44 24 08	 mov	 eax, DWORD PTR __Val$[esp-4]
  0000c	50		 push	 eax
  0000d	e8 00 00 00 00	 call	 ??0_VECINFO@@QAE@ABU0@@Z
$L230426:

; 43   : 	}

  00012	c3		 ret	 0
??$_Construct@U_VECINFO@@U1@@std@@YAXPAU_VECINFO@@ABU1@@Z ENDP ; std::_Construct<_VECINFO,_VECINFO>
_TEXT	ENDS
PUBLIC	??_G_VECINFO@@QAEPAXI@Z				; _VECINFO::`scalar deleting destructor'
; Function compile flags: /Ogty
;	COMDAT ??_G_VECINFO@@QAEPAXI@Z
_TEXT	SEGMENT
___flags$ = 8						; size = 4
??_G_VECINFO@@QAEPAXI@Z PROC NEAR			; _VECINFO::`scalar deleting destructor', COMDAT
; _this$ = ecx
  00000	56		 push	 esi
  00001	8b f1		 mov	 esi, ecx
  00003	e8 00 00 00 00	 call	 ??1_VECINFO@@QAE@XZ
  00008	f6 44 24 08 01	 test	 BYTE PTR ___flags$[esp], 1
  0000d	74 09		 je	 SHORT $L230434
  0000f	56		 push	 esi
  00010	e8 00 00 00 00	 call	 ??3@YAXPAX@Z		; operator delete
  00015	83 c4 04	 add	 esp, 4
$L230434:
  00018	8b c6		 mov	 eax, esi
  0001a	5e		 pop	 esi
  0001b	c2 04 00	 ret	 4
??_G_VECINFO@@QAEPAXI@Z ENDP				; _VECINFO::`scalar deleting destructor'
_TEXT	ENDS
PUBLIC	??9const_iterator@?$vector@U_VECINFO@@V?$allocator@U_VECINFO@@@std@@@std@@QBE_NABV012@@Z ; std::vector<_VECINFO,std::allocator<_VECINFO> >::const_iterator::operator!=
; Function compile flags: /Ogty
; File c:\program files\microsoft visual studio .net 2003\vc7\include\vector
;	COMDAT ??9const_iterator@?$vector@U_VECINFO@@V?$allocator@U_VECINFO@@@std@@@std@@QBE_NABV012@@Z
_TEXT	SEGMENT
__Right$ = 8						; size = 4
??9const_iterator@?$vector@U_VECINFO@@V?$allocator@U_VECINFO@@@std@@@std@@QBE_NABV012@@Z PROC NEAR ; std::vector<_VECINFO,std::allocator<_VECINFO> >::const_iterator::operator!=, COMDAT
; _this$ = ecx

; 160  : 			return (!(*this == _Right));

  00000	8b 01		 mov	 eax, DWORD PTR [ecx]
  00002	8b 54 24 04	 mov	 edx, DWORD PTR __Right$[esp-4]
  00006	56		 push	 esi
  00007	8b 32		 mov	 esi, DWORD PTR [edx]
  00009	33 c9		 xor	 ecx, ecx
  0000b	3b c6		 cmp	 eax, esi
  0000d	0f 95 c1	 setne	 cl
  00010	8a c1		 mov	 al, cl
  00012	5e		 pop	 esi

; 161  : 			}

  00013	c2 04 00	 ret	 4
??9const_iterator@?$vector@U_VECINFO@@V?$allocator@U_VECINFO@@@std@@@std@@QBE_NABV012@@Z ENDP ; std::vector<_VECINFO,std::allocator<_VECINFO> >::const_iterator::operator!=
_TEXT	ENDS
PUBLIC	??0?$_String_val@DV?$allocator@D@std@@@std@@IAE@V?$allocator@D@1@@Z ; std::_String_val<char,std::allocator<char> >::_String_val<char,std::allocator<char> >
; Function compile flags: /Ogty
; File c:\program files\microsoft visual studio .net 2003\vc7\include\xstring
;	COMDAT ??0?$_String_val@DV?$allocator@D@std@@@std@@IAE@V?$allocator@D@1@@Z
_TEXT	SEGMENT
__Al$ = 8						; size = 1
??0?$_String_val@DV?$allocator@D@std@@@std@@IAE@V?$allocator@D@1@@Z PROC NEAR ; std::_String_val<char,std::allocator<char> >::_String_val<char,std::allocator<char> >, COMDAT
; _this$ = ecx

; 34   : 		{	// construct allocator from _Al

  00000	8b c1		 mov	 eax, ecx

; 35   : 		}

  00002	c2 04 00	 ret	 4
??0?$_String_val@DV?$allocator@D@std@@@std@@IAE@V?$allocator@D@1@@Z ENDP ; std::_String_val<char,std::allocator<char> >::_String_val<char,std::allocator<char> >
_TEXT	ENDS
PUBLIC	??0?$_Vector_val@UD3DXVECTOR3@@V?$allocator@UD3DXVECTOR3@@@std@@@std@@IAE@V?$allocator@UD3DXVECTOR3@@@1@@Z ; std::_Vector_val<D3DXVECTOR3,std::allocator<D3DXVECTOR3> >::_Vector_val<D3DXVECTOR3,std::allocator<D3DXVECTOR3> >
; Function compile flags: /Ogty
; File c:\program files\microsoft visual studio .net 2003\vc7\include\vector
;	COMDAT ??0?$_Vector_val@UD3DXVECTOR3@@V?$allocator@UD3DXVECTOR3@@@std@@@std@@IAE@V?$allocator@UD3DXVECTOR3@@@1@@Z
_TEXT	SEGMENT
__Al$ = 8						; size = 1
??0?$_Vector_val@UD3DXVECTOR3@@V?$allocator@UD3DXVECTOR3@@@std@@@std@@IAE@V?$allocator@UD3DXVECTOR3@@@1@@Z PROC NEAR ; std::_Vector_val<D3DXVECTOR3,std::allocator<D3DXVECTOR3> >::_Vector_val<D3DXVECTOR3,std::allocator<D3DXVECTOR3> >, COMDAT
; _this$ = ecx

; 21   : 		{	// construct allocator from _Al

  00000	8b c1		 mov	 eax, ecx

; 22   : 		}

  00002	c2 04 00	 ret	 4
??0?$_Vector_val@UD3DXVECTOR3@@V?$allocator@UD3DXVECTOR3@@@std@@@std@@IAE@V?$allocator@UD3DXVECTOR3@@@1@@Z ENDP ; std::_Vector_val<D3DXVECTOR3,std::allocator<D3DXVECTOR3> >::_Vector_val<D3DXVECTOR3,std::allocator<D3DXVECTOR3> >
_TEXT	ENDS
PUBLIC	?_Eos@?$basic_string@DU?$char_traits@D@std@@V?$allocator@D@2@@std@@IAEXI@Z ; std::basic_string<char,std::char_traits<char>,std::allocator<char> >::_Eos
; Function compile flags: /Ogty
; File c:\program files\microsoft visual studio .net 2003\vc7\include\xstring
;	COMDAT ?_Eos@?$basic_string@DU?$char_traits@D@std@@V?$allocator@D@2@@std@@IAEXI@Z
_TEXT	SEGMENT
__Newsize$ = 8						; size = 4
?_Eos@?$basic_string@DU?$char_traits@D@std@@V?$allocator@D@2@@std@@IAEXI@Z PROC NEAR ; std::basic_string<char,std::char_traits<char>,std::allocator<char> >::_Eos, COMDAT
; _this$ = ecx

; 1475 : 		_Traits::assign(_Myptr()[_Mysize = _Newsize], _Elem());

  00000	83 79 18 10	 cmp	 DWORD PTR [ecx+24], 16	; 00000010H
  00004	8b 44 24 04	 mov	 eax, DWORD PTR __Newsize$[esp-4]
  00008	89 41 14	 mov	 DWORD PTR [ecx+20], eax
  0000b	72 0a		 jb	 SHORT $L230461
  0000d	8b 49 04	 mov	 ecx, DWORD PTR [ecx+4]
  00010	c6 04 01 00	 mov	 BYTE PTR [ecx+eax], 0

; 1476 : 		}

  00014	c2 04 00	 ret	 4

; 1475 : 		_Traits::assign(_Myptr()[_Mysize = _Newsize], _Elem());

$L230461:
  00017	c6 44 01 04 00	 mov	 BYTE PTR [ecx+eax+4], 0

; 1476 : 		}

  0001c	c2 04 00	 ret	 4
?_Eos@?$basic_string@DU?$char_traits@D@std@@V?$allocator@D@2@@std@@IAEXI@Z ENDP ; std::basic_string<char,std::char_traits<char>,std::allocator<char> >::_Eos
_TEXT	ENDS
PUBLIC	?destroy@?$allocator@PAU_Node@?$_Tree_nod@V?$_Tmap_traits@KHU?$less@K@std@@V?$allocator@U?$pair@$$CBKH@std@@@2@$0A@@std@@@std@@@std@@QAEXPAPAU_Node@?$_Tree_nod@V?$_Tmap_traits@KHU?$less@K@std@@V?$allocator@U?$pair@$$CBKH@std@@@2@$0A@@std@@@2@@Z ; std::allocator<std::_Tree_nod<std::_Tmap_traits<unsigned long,int,std::less<unsigned long>,std::allocator<std::pair<unsigned long const ,int> >,0> >::_Node *>::destroy
; Function compile flags: /Ogty
; File c:\program files\microsoft visual studio .net 2003\vc7\include\xmemory
;	COMDAT ?destroy@?$allocator@PAU_Node@?$_Tree_nod@V?$_Tmap_traits@KHU?$less@K@std@@V?$allocator@U?$pair@$$CBKH@std@@@2@$0A@@std@@@std@@@std@@QAEXPAPAU_Node@?$_Tree_nod@V?$_Tmap_traits@KHU?$less@K@std@@V?$allocator@U?$pair@$$CBKH@std@@@2@$0A@@std@@@2@@Z
_TEXT	SEGMENT
__Ptr$ = 8						; size = 4
?destroy@?$allocator@PAU_Node@?$_Tree_nod@V?$_Tmap_traits@KHU?$less@K@std@@V?$allocator@U?$pair@$$CBKH@std@@@2@$0A@@std@@@std@@@std@@QAEXPAPAU_Node@?$_Tree_nod@V?$_Tmap_traits@KHU?$less@K@std@@V?$allocator@U?$pair@$$CBKH@std@@@2@$0A@@std@@@2@@Z PROC NEAR ; std::allocator<std::_Tree_nod<std::_Tmap_traits<unsigned long,int,std::less<unsigned long>,std::allocator<std::pair<unsigned long const ,int> >,0> >::_Node *>::destroy, COMDAT
; _this$ = ecx

; 152  : 		_Destroy(_Ptr);
; 153  : 		}

  00000	c2 04 00	 ret	 4
?destroy@?$allocator@PAU_Node@?$_Tree_nod@V?$_Tmap_traits@KHU?$less@K@std@@V?$allocator@U?$pair@$$CBKH@std@@@2@$0A@@std@@@std@@@std@@QAEXPAPAU_Node@?$_Tree_nod@V?$_Tmap_traits@KHU?$less@K@std@@V?$allocator@U?$pair@$$CBKH@std@@@2@$0A@@std@@@2@@Z ENDP ; std::allocator<std::_Tree_nod<std::_Tmap_traits<unsigned long,int,std::less<unsigned long>,std::allocator<std::pair<unsigned long const ,int> >,0> >::_Node *>::destroy
_TEXT	ENDS
PUBLIC	?max_size@?$vector@UD3DXVECTOR3@@V?$allocator@UD3DXVECTOR3@@@std@@@std@@QBEIXZ ; std::vector<D3DXVECTOR3,std::allocator<D3DXVECTOR3> >::max_size
; Function compile flags: /Ogty
; File c:\program files\microsoft visual studio .net 2003\vc7\include\vector
;	COMDAT ?max_size@?$vector@UD3DXVECTOR3@@V?$allocator@UD3DXVECTOR3@@@std@@@std@@QBEIXZ
_TEXT	SEGMENT
?max_size@?$vector@UD3DXVECTOR3@@V?$allocator@UD3DXVECTOR3@@@std@@@std@@QBEIXZ PROC NEAR ; std::vector<D3DXVECTOR3,std::allocator<D3DXVECTOR3> >::max_size, COMDAT
; _this$ = ecx

; 521  : 		return (this->_Alval.max_size());

  00000	b8 55 55 55 15	 mov	 eax, 357913941		; 15555555H

; 522  : 		}

  00005	c3		 ret	 0
?max_size@?$vector@UD3DXVECTOR3@@V?$allocator@UD3DXVECTOR3@@@std@@@std@@QBEIXZ ENDP ; std::vector<D3DXVECTOR3,std::allocator<D3DXVECTOR3> >::max_size
_TEXT	ENDS
PUBLIC	?allocate@?$allocator@UD3DXVECTOR3@@@std@@QAEPAUD3DXVECTOR3@@I@Z ; std::allocator<D3DXVECTOR3>::allocate
; Function compile flags: /Ogty
; File c:\program files\microsoft visual studio .net 2003\vc7\include\xmemory
;	COMDAT ?allocate@?$allocator@UD3DXVECTOR3@@@std@@QAEPAUD3DXVECTOR3@@I@Z
_TEXT	SEGMENT
__Count$ = 8						; size = 4
?allocate@?$allocator@UD3DXVECTOR3@@@std@@QAEPAUD3DXVECTOR3@@I@Z PROC NEAR ; std::allocator<D3DXVECTOR3>::allocate, COMDAT
; _this$ = ecx

; 137  : 		return (_Allocate(_Count, (pointer)0));

  00000	8b 44 24 04	 mov	 eax, DWORD PTR __Count$[esp-4]
  00004	8d 04 40	 lea	 eax, DWORD PTR [eax+eax*2]
  00007	c1 e0 02	 shl	 eax, 2
  0000a	50		 push	 eax
  0000b	e8 00 00 00 00	 call	 ??2@YAPAXI@Z		; operator new
  00010	83 c4 04	 add	 esp, 4

; 138  : 		}

  00013	c2 04 00	 ret	 4
?allocate@?$allocator@UD3DXVECTOR3@@@std@@QAEPAUD3DXVECTOR3@@I@Z ENDP ; std::allocator<D3DXVECTOR3>::allocate
_TEXT	ENDS
PUBLIC	?max_size@?$basic_string@DU?$char_traits@D@std@@V?$allocator@D@2@@std@@QBEIXZ ; std::basic_string<char,std::char_traits<char>,std::allocator<char> >::max_size
; Function compile flags: /Ogty
; File c:\program files\microsoft visual studio .net 2003\vc7\include\xstring
;	COMDAT ?max_size@?$basic_string@DU?$char_traits@D@std@@V?$allocator@D@2@@std@@QBEIXZ
_TEXT	SEGMENT
?max_size@?$basic_string@DU?$char_traits@D@std@@V?$allocator@D@2@@std@@QBEIXZ PROC NEAR ; std::basic_string<char,std::char_traits<char>,std::allocator<char> >::max_size, COMDAT
; _this$ = ecx

; 1114 : 		size_type _Num = _Mybase::_Alval.max_size();
; 1115 : 		return (_Num <= 1 ? 1 : _Num - 1);

  00000	b8 fe ff ff ff	 mov	 eax, -2			; fffffffeH

; 1116 : 		}

  00005	c3		 ret	 0
?max_size@?$basic_string@DU?$char_traits@D@std@@V?$allocator@D@2@@std@@QBEIXZ ENDP ; std::basic_string<char,std::char_traits<char>,std::allocator<char> >::max_size
_TEXT	ENDS
PUBLIC	??0iterator@?$_Tree@V?$_Tmap_traits@KHU?$less@K@std@@V?$allocator@U?$pair@$$CBKH@std@@@2@$0A@@std@@@std@@QAE@PAU_Node@?$_Tree_nod@V?$_Tmap_traits@KHU?$less@K@std@@V?$allocator@U?$pair@$$CBKH@std@@@2@$0A@@std@@@2@@Z ; std::_Tree<std::_Tmap_traits<unsigned long,int,std::less<unsigned long>,std::allocator<std::pair<unsigned long const ,int> >,0> >::iterator::iterator
; Function compile flags: /Ogty
; File c:\program files\microsoft visual studio .net 2003\vc7\include\xtree
;	COMDAT ??0iterator@?$_Tree@V?$_Tmap_traits@KHU?$less@K@std@@V?$allocator@U?$pair@$$CBKH@std@@@2@$0A@@std@@@std@@QAE@PAU_Node@?$_Tree_nod@V?$_Tmap_traits@KHU?$less@K@std@@V?$allocator@U?$pair@$$CBKH@std@@@2@$0A@@std@@@2@@Z
_TEXT	SEGMENT
__Pnode$ = 8						; size = 4
??0iterator@?$_Tree@V?$_Tmap_traits@KHU?$less@K@std@@V?$allocator@U?$pair@$$CBKH@std@@@2@$0A@@std@@@std@@QAE@PAU_Node@?$_Tree_nod@V?$_Tmap_traits@KHU?$less@K@std@@V?$allocator@U?$pair@$$CBKH@std@@@2@$0A@@std@@@2@@Z PROC NEAR ; std::_Tree<std::_Tmap_traits<unsigned long,int,std::less<unsigned long>,std::allocator<std::pair<unsigned long const ,int> >,0> >::iterator::iterator, COMDAT
; _this$ = ecx

; 312  : 			{	// construct with node pointer _Pnode

  00000	8b c1		 mov	 eax, ecx
  00002	8b 4c 24 04	 mov	 ecx, DWORD PTR __Pnode$[esp-4]
  00006	89 08		 mov	 DWORD PTR [eax], ecx

; 313  : 			}

  00008	c2 04 00	 ret	 4
??0iterator@?$_Tree@V?$_Tmap_traits@KHU?$less@K@std@@V?$allocator@U?$pair@$$CBKH@std@@@2@$0A@@std@@@std@@QAE@PAU_Node@?$_Tree_nod@V?$_Tmap_traits@KHU?$less@K@std@@V?$allocator@U?$pair@$$CBKH@std@@@2@$0A@@std@@@2@@Z ENDP ; std::_Tree<std::_Tmap_traits<unsigned long,int,std::less<unsigned long>,std::allocator<std::pair<unsigned long const ,int> >,0> >::iterator::iterator
_TEXT	ENDS
PUBLIC	?allocate@?$allocator@D@std@@QAEPADI@Z		; std::allocator<char>::allocate
; Function compile flags: /Ogty
; File c:\program files\microsoft visual studio .net 2003\vc7\include\xmemory
;	COMDAT ?allocate@?$allocator@D@std@@QAEPADI@Z
_TEXT	SEGMENT
__Count$ = 8						; size = 4
?allocate@?$allocator@D@std@@QAEPADI@Z PROC NEAR	; std::allocator<char>::allocate, COMDAT
; _this$ = ecx

; 137  : 		return (_Allocate(_Count, (pointer)0));

  00000	8b 44 24 04	 mov	 eax, DWORD PTR __Count$[esp-4]
  00004	50		 push	 eax
  00005	e8 00 00 00 00	 call	 ??2@YAPAXI@Z		; operator new
  0000a	83 c4 04	 add	 esp, 4

; 138  : 		}

  0000d	c2 04 00	 ret	 4
?allocate@?$allocator@D@std@@QAEPADI@Z ENDP		; std::allocator<char>::allocate
_TEXT	ENDS
PUBLIC	?_Lrotate@?$_Tree@V?$_Tmap_traits@KHU?$less@K@std@@V?$allocator@U?$pair@$$CBKH@std@@@2@$0A@@std@@@std@@IAEXPAU_Node@?$_Tree_nod@V?$_Tmap_traits@KHU?$less@K@std@@V?$allocator@U?$pair@$$CBKH@std@@@2@$0A@@std@@@2@@Z ; std::_Tree<std::_Tmap_traits<unsigned long,int,std::less<unsigned long>,std::allocator<std::pair<unsigned long const ,int> >,0> >::_Lrotate
; Function compile flags: /Ogty
; File c:\program files\microsoft visual studio .net 2003\vc7\include\xtree
;	COMDAT ?_Lrotate@?$_Tree@V?$_Tmap_traits@KHU?$less@K@std@@V?$allocator@U?$pair@$$CBKH@std@@@2@$0A@@std@@@std@@IAEXPAU_Node@?$_Tree_nod@V?$_Tmap_traits@KHU?$less@K@std@@V?$allocator@U?$pair@$$CBKH@std@@@2@$0A@@std@@@2@@Z
_TEXT	SEGMENT
__Wherenode$ = 8					; size = 4
?_Lrotate@?$_Tree@V?$_Tmap_traits@KHU?$less@K@std@@V?$allocator@U?$pair@$$CBKH@std@@@2@$0A@@std@@@std@@IAEXPAU_Node@?$_Tree_nod@V?$_Tmap_traits@KHU?$less@K@std@@V?$allocator@U?$pair@$$CBKH@std@@@2@$0A@@std@@@2@@Z PROC NEAR ; std::_Tree<std::_Tmap_traits<unsigned long,int,std::less<unsigned long>,std::allocator<std::pair<unsigned long const ,int> >,0> >::_Lrotate, COMDAT
; _this$ = ecx

; 1015 : 		_Nodeptr _Pnode = _Right(_Wherenode);

  00000	8b 54 24 04	 mov	 edx, DWORD PTR __Wherenode$[esp-4]
  00004	8b 42 08	 mov	 eax, DWORD PTR [edx+8]
  00007	53		 push	 ebx
  00008	56		 push	 esi

; 1016 : 		_Right(_Wherenode) = _Left(_Pnode);

  00009	8b 30		 mov	 esi, DWORD PTR [eax]
  0000b	89 72 08	 mov	 DWORD PTR [edx+8], esi

; 1017 : 
; 1018 : 		if (!_Isnil(_Left(_Pnode)))

  0000e	8b 30		 mov	 esi, DWORD PTR [eax]
  00010	8a 5e 15	 mov	 bl, BYTE PTR [esi+21]
  00013	84 db		 test	 bl, bl
  00015	75 03		 jne	 SHORT $L223699

; 1019 : 			_Parent(_Left(_Pnode)) = _Wherenode;

  00017	89 56 04	 mov	 DWORD PTR [esi+4], edx
$L223699:

; 1020 : 		_Parent(_Pnode) = _Parent(_Wherenode);

  0001a	8b 72 04	 mov	 esi, DWORD PTR [edx+4]
  0001d	89 70 04	 mov	 DWORD PTR [eax+4], esi

; 1021 : 
; 1022 : 		if (_Wherenode == _Root())

  00020	8b 49 04	 mov	 ecx, DWORD PTR [ecx+4]
  00023	3b 51 04	 cmp	 edx, DWORD PTR [ecx+4]
  00026	75 0d		 jne	 SHORT $L223700

; 1023 : 			_Root() = _Pnode;

  00028	89 41 04	 mov	 DWORD PTR [ecx+4], eax
  0002b	5e		 pop	 esi

; 1028 : 
; 1029 : 		_Left(_Pnode) = _Wherenode;

  0002c	89 10		 mov	 DWORD PTR [eax], edx

; 1030 : 		_Parent(_Wherenode) = _Pnode;

  0002e	89 42 04	 mov	 DWORD PTR [edx+4], eax
  00031	5b		 pop	 ebx

; 1031 : 		}

  00032	c2 04 00	 ret	 4
$L223700:

; 1024 : 		else if (_Wherenode == _Left(_Parent(_Wherenode)))

  00035	8b 4a 04	 mov	 ecx, DWORD PTR [edx+4]
  00038	3b 11		 cmp	 edx, DWORD PTR [ecx]
  0003a	75 0c		 jne	 SHORT $L223702

; 1025 : 			_Left(_Parent(_Wherenode)) = _Pnode;

  0003c	89 01		 mov	 DWORD PTR [ecx], eax
  0003e	5e		 pop	 esi

; 1028 : 
; 1029 : 		_Left(_Pnode) = _Wherenode;

  0003f	89 10		 mov	 DWORD PTR [eax], edx

; 1030 : 		_Parent(_Wherenode) = _Pnode;

  00041	89 42 04	 mov	 DWORD PTR [edx+4], eax
  00044	5b		 pop	 ebx

; 1031 : 		}

  00045	c2 04 00	 ret	 4
$L223702:

; 1026 : 		else
; 1027 : 			_Right(_Parent(_Wherenode)) = _Pnode;

  00048	89 41 08	 mov	 DWORD PTR [ecx+8], eax
  0004b	5e		 pop	 esi

; 1028 : 
; 1029 : 		_Left(_Pnode) = _Wherenode;

  0004c	89 10		 mov	 DWORD PTR [eax], edx

; 1030 : 		_Parent(_Wherenode) = _Pnode;

  0004e	89 42 04	 mov	 DWORD PTR [edx+4], eax
  00051	5b		 pop	 ebx

; 1031 : 		}

  00052	c2 04 00	 ret	 4
?_Lrotate@?$_Tree@V?$_Tmap_traits@KHU?$less@K@std@@V?$allocator@U?$pair@$$CBKH@std@@@2@$0A@@std@@@std@@IAEXPAU_Node@?$_Tree_nod@V?$_Tmap_traits@KHU?$less@K@std@@V?$allocator@U?$pair@$$CBKH@std@@@2@$0A@@std@@@2@@Z ENDP ; std::_Tree<std::_Tmap_traits<unsigned long,int,std::less<unsigned long>,std::allocator<std::pair<unsigned long const ,int> >,0> >::_Lrotate
_TEXT	ENDS
PUBLIC	?destroy@?$allocator@U_Node@?$_Tree_nod@V?$_Tmap_traits@KHU?$less@K@std@@V?$allocator@U?$pair@$$CBKH@std@@@2@$0A@@std@@@std@@@std@@QAEXPAU_Node@?$_Tree_nod@V?$_Tmap_traits@KHU?$less@K@std@@V?$allocator@U?$pair@$$CBKH@std@@@2@$0A@@std@@@2@@Z ; std::allocator<std::_Tree_nod<std::_Tmap_traits<unsigned long,int,std::less<unsigned long>,std::allocator<std::pair<unsigned long const ,int> >,0> >::_Node>::destroy
; Function compile flags: /Ogty
; File c:\program files\microsoft visual studio .net 2003\vc7\include\xmemory
;	COMDAT ?destroy@?$allocator@U_Node@?$_Tree_nod@V?$_Tmap_traits@KHU?$less@K@std@@V?$allocator@U?$pair@$$CBKH@std@@@2@$0A@@std@@@std@@@std@@QAEXPAU_Node@?$_Tree_nod@V?$_Tmap_traits@KHU?$less@K@std@@V?$allocator@U?$pair@$$CBKH@std@@@2@$0A@@std@@@2@@Z
_TEXT	SEGMENT
__Ptr$ = 8						; size = 4
?destroy@?$allocator@U_Node@?$_Tree_nod@V?$_Tmap_traits@KHU?$less@K@std@@V?$allocator@U?$pair@$$CBKH@std@@@2@$0A@@std@@@std@@@std@@QAEXPAU_Node@?$_Tree_nod@V?$_Tmap_traits@KHU?$less@K@std@@V?$allocator@U?$pair@$$CBKH@std@@@2@$0A@@std@@@2@@Z PROC NEAR ; std::allocator<std::_Tree_nod<std::_Tmap_traits<unsigned long,int,std::less<unsigned long>,std::allocator<std::pair<unsigned long const ,int> >,0> >::_Node>::destroy, COMDAT
; _this$ = ecx

; 152  : 		_Destroy(_Ptr);
; 153  : 		}

  00000	c2 04 00	 ret	 4
?destroy@?$allocator@U_Node@?$_Tree_nod@V?$_Tmap_traits@KHU?$less@K@std@@V?$allocator@U?$pair@$$CBKH@std@@@2@$0A@@std@@@std@@@std@@QAEXPAU_Node@?$_Tree_nod@V?$_Tmap_traits@KHU?$less@K@std@@V?$allocator@U?$pair@$$CBKH@std@@@2@$0A@@std@@@2@@Z ENDP ; std::allocator<std::_Tree_nod<std::_Tmap_traits<unsigned long,int,std::less<unsigned long>,std::allocator<std::pair<unsigned long const ,int> >,0> >::_Node>::destroy
_TEXT	ENDS
PUBLIC	??Econst_iterator@?$_Tree@V?$_Tmap_traits@KHU?$less@K@std@@V?$allocator@U?$pair@$$CBKH@std@@@2@$0A@@std@@@std@@QAEAAV012@XZ ; std::_Tree<std::_Tmap_traits<unsigned long,int,std::less<unsigned long>,std::allocator<std::pair<unsigned long const ,int> >,0> >::const_iterator::operator++
; Function compile flags: /Ogty
; File c:\program files\microsoft visual studio .net 2003\vc7\include\xtree
;	COMDAT ??Econst_iterator@?$_Tree@V?$_Tmap_traits@KHU?$less@K@std@@V?$allocator@U?$pair@$$CBKH@std@@@2@$0A@@std@@@std@@QAEAAV012@XZ
_TEXT	SEGMENT
??Econst_iterator@?$_Tree@V?$_Tmap_traits@KHU?$less@K@std@@V?$allocator@U?$pair@$$CBKH@std@@@2@$0A@@std@@@std@@QAEAAV012@XZ PROC NEAR ; std::_Tree<std::_Tmap_traits<unsigned long,int,std::less<unsigned long>,std::allocator<std::pair<unsigned long const ,int> >,0> >::const_iterator::operator++, COMDAT
; _this$ = ecx

; 214  : 			{	// preincrement

  00000	56		 push	 esi
  00001	8b f1		 mov	 esi, ecx

; 215  : 			_Inc();

  00003	e8 00 00 00 00	 call	 ?_Inc@const_iterator@?$_Tree@V?$_Tmap_traits@KHU?$less@K@std@@V?$allocator@U?$pair@$$CBKH@std@@@2@$0A@@std@@@std@@QAEXXZ ; std::_Tree<std::_Tmap_traits<unsigned long,int,std::less<unsigned long>,std::allocator<std::pair<unsigned long const ,int> >,0> >::const_iterator::_Inc

; 216  : 			return (*this);

  00008	8b c6		 mov	 eax, esi
  0000a	5e		 pop	 esi

; 217  : 			}

  0000b	c3		 ret	 0
??Econst_iterator@?$_Tree@V?$_Tmap_traits@KHU?$less@K@std@@V?$allocator@U?$pair@$$CBKH@std@@@2@$0A@@std@@@std@@QAEAAV012@XZ ENDP ; std::_Tree<std::_Tmap_traits<unsigned long,int,std::less<unsigned long>,std::allocator<std::pair<unsigned long const ,int> >,0> >::const_iterator::operator++
_TEXT	ENDS
PUBLIC	??8ATL@@YA_NABV?$CStringT@DV?$StrTraitMFC@DV?$ChTraitsCRT@D@ATL@@@@@0@PBD@Z ; ATL::operator==
; Function compile flags: /Ogty
; File c:\program files\microsoft visual studio .net 2003\vc7\atlmfc\include\cstringt.h
;	COMDAT ??8ATL@@YA_NABV?$CStringT@DV?$StrTraitMFC@DV?$ChTraitsCRT@D@ATL@@@@@0@PBD@Z
_TEXT	SEGMENT
_str1$ = 8						; size = 4
_psz2$ = 12						; size = 4
??8ATL@@YA_NABV?$CStringT@DV?$StrTraitMFC@DV?$ChTraitsCRT@D@ATL@@@@@0@PBD@Z PROC NEAR ; ATL::operator==, COMDAT

; 2088 : 		return( str1.Compare( psz2 ) == 0 );

  00000	8b 4c 24 08	 mov	 ecx, DWORD PTR _psz2$[esp-4]
  00004	8b 44 24 04	 mov	 eax, DWORD PTR _str1$[esp-4]
  00008	8b 00		 mov	 eax, DWORD PTR [eax]
  0000a	51		 push	 ecx
  0000b	50		 push	 eax
  0000c	e8 00 00 00 00	 call	 __mbscmp
  00011	83 c4 08	 add	 esp, 8
  00014	f7 d8		 neg	 eax
  00016	1b c0		 sbb	 eax, eax
  00018	40		 inc	 eax

; 2089 : 	}

  00019	c3		 ret	 0
??8ATL@@YA_NABV?$CStringT@DV?$StrTraitMFC@DV?$ChTraitsCRT@D@ATL@@@@@0@PBD@Z ENDP ; ATL::operator==
_TEXT	ENDS
PUBLIC	??9ATL@@YA_NABV?$CStringT@DV?$StrTraitMFC@DV?$ChTraitsCRT@D@ATL@@@@@0@PBD@Z ; ATL::operator!=
; Function compile flags: /Ogty
;	COMDAT ??9ATL@@YA_NABV?$CStringT@DV?$StrTraitMFC@DV?$ChTraitsCRT@D@ATL@@@@@0@PBD@Z
_TEXT	SEGMENT
_str1$ = 8						; size = 4
_psz2$ = 12						; size = 4
??9ATL@@YA_NABV?$CStringT@DV?$StrTraitMFC@DV?$ChTraitsCRT@D@ATL@@@@@0@PBD@Z PROC NEAR ; ATL::operator!=, COMDAT

; 2122 : 		return( str1.Compare( psz2 ) != 0 );

  00000	8b 4c 24 08	 mov	 ecx, DWORD PTR _psz2$[esp-4]
  00004	8b 44 24 04	 mov	 eax, DWORD PTR _str1$[esp-4]
  00008	8b 00		 mov	 eax, DWORD PTR [eax]
  0000a	51		 push	 ecx
  0000b	50		 push	 eax
  0000c	e8 00 00 00 00	 call	 __mbscmp
  00011	83 c4 08	 add	 esp, 8
  00014	f7 d8		 neg	 eax
  00016	1b c0		 sbb	 eax, eax
  00018	f7 d8		 neg	 eax

; 2123 : 	}

  0001a	c3		 ret	 0
??9ATL@@YA_NABV?$CStringT@DV?$StrTraitMFC@DV?$ChTraitsCRT@D@ATL@@@@@0@PBD@Z ENDP ; ATL::operator!=
_TEXT	ENDS
PUBLIC	?end@?$_Tree@V?$_Tmap_traits@KV?$vector@U_VECINFO@@V?$allocator@U_VECINFO@@@std@@@std@@U?$less@K@2@V?$allocator@U?$pair@$$CBKV?$vector@U_VECINFO@@V?$allocator@U_VECINFO@@@std@@@std@@@std@@@2@$0A@@std@@@std@@QAE?AViterator@12@XZ ; std::_Tree<std::_Tmap_traits<unsigned long,std::vector<_VECINFO,std::allocator<_VECINFO> >,std::less<unsigned long>,std::allocator<std::pair<unsigned long const ,std::vector<_VECINFO,std::allocator<_VECINFO> > > >,0> >::end
; Function compile flags: /Ogty
; File c:\program files\microsoft visual studio .net 2003\vc7\include\xtree
;	COMDAT ?end@?$_Tree@V?$_Tmap_traits@KV?$vector@U_VECINFO@@V?$allocator@U_VECINFO@@@std@@@std@@U?$less@K@2@V?$allocator@U?$pair@$$CBKV?$vector@U_VECINFO@@V?$allocator@U_VECINFO@@@std@@@std@@@std@@@2@$0A@@std@@@std@@QAE?AViterator@12@XZ
_TEXT	SEGMENT
___$ReturnUdt$ = 8					; size = 4
?end@?$_Tree@V?$_Tmap_traits@KV?$vector@U_VECINFO@@V?$allocator@U_VECINFO@@@std@@@std@@U?$less@K@2@V?$allocator@U?$pair@$$CBKV?$vector@U_VECINFO@@V?$allocator@U_VECINFO@@@std@@@std@@@std@@@2@$0A@@std@@@std@@QAE?AViterator@12@XZ PROC NEAR ; std::_Tree<std::_Tmap_traits<unsigned long,std::vector<_VECINFO,std::allocator<_VECINFO> >,std::less<unsigned long>,std::allocator<std::pair<unsigned long const ,std::vector<_VECINFO,std::allocator<_VECINFO> > > >,0> >::end, COMDAT
; _this$ = ecx

; 418  : 		return (_TREE_ITERATOR(_Myhead));

  00000	8b 49 04	 mov	 ecx, DWORD PTR [ecx+4]
  00003	8b 44 24 04	 mov	 eax, DWORD PTR ___$ReturnUdt$[esp-4]
  00007	89 08		 mov	 DWORD PTR [eax], ecx

; 419  : 		}

  00009	c2 04 00	 ret	 4
?end@?$_Tree@V?$_Tmap_traits@KV?$vector@U_VECINFO@@V?$allocator@U_VECINFO@@@std@@@std@@U?$less@K@2@V?$allocator@U?$pair@$$CBKV?$vector@U_VECINFO@@V?$allocator@U_VECINFO@@@std@@@std@@@std@@@2@$0A@@std@@@std@@QAE?AViterator@12@XZ ENDP ; std::_Tree<std::_Tmap_traits<unsigned long,std::vector<_VECINFO,std::allocator<_VECINFO> >,std::less<unsigned long>,std::allocator<std::pair<unsigned long const ,std::vector<_VECINFO,std::allocator<_VECINFO> > > >,0> >::end
_TEXT	ENDS
PUBLIC	??Citerator@?$_Tree@V?$_Tmap_traits@KV?$vector@U_VECINFO@@V?$allocator@U_VECINFO@@@std@@@std@@U?$less@K@2@V?$allocator@U?$pair@$$CBKV?$vector@U_VECINFO@@V?$allocator@U_VECINFO@@@std@@@std@@@std@@@2@$0A@@std@@@std@@QBEPAU?$pair@$$CBKV?$vector@U_VECINFO@@V?$allocator@U_VECINFO@@@std@@@std@@@2@XZ ; std::_Tree<std::_Tmap_traits<unsigned long,std::vector<_VECINFO,std::allocator<_VECINFO> >,std::less<unsigned long>,std::allocator<std::pair<unsigned long const ,std::vector<_VECINFO,std::allocator<_VECINFO> > > >,0> >::iterator::operator->
; Function compile flags: /Ogty
;	COMDAT ??Citerator@?$_Tree@V?$_Tmap_traits@KV?$vector@U_VECINFO@@V?$allocator@U_VECINFO@@@std@@@std@@U?$less@K@2@V?$allocator@U?$pair@$$CBKV?$vector@U_VECINFO@@V?$allocator@U_VECINFO@@@std@@@std@@@std@@@2@$0A@@std@@@std@@QBEPAU?$pair@$$CBKV?$vector@U_VECINFO@@V?$allocator@U_VECINFO@@@std@@@std@@@2@XZ
_TEXT	SEGMENT
??Citerator@?$_Tree@V?$_Tmap_traits@KV?$vector@U_VECINFO@@V?$allocator@U_VECINFO@@@std@@@std@@U?$less@K@2@V?$allocator@U?$pair@$$CBKV?$vector@U_VECINFO@@V?$allocator@U_VECINFO@@@std@@@std@@@std@@@2@$0A@@std@@@std@@QBEPAU?$pair@$$CBKV?$vector@U_VECINFO@@V?$allocator@U_VECINFO@@@std@@@std@@@2@XZ PROC NEAR ; std::_Tree<std::_Tmap_traits<unsigned long,std::vector<_VECINFO,std::allocator<_VECINFO> >,std::less<unsigned long>,std::allocator<std::pair<unsigned long const ,std::vector<_VECINFO,std::allocator<_VECINFO> > > >,0> >::iterator::operator->, COMDAT
; _this$ = ecx

; 322  : 			return (&**this);

  00000	8b 01		 mov	 eax, DWORD PTR [ecx]
  00002	83 c0 0c	 add	 eax, 12			; 0000000cH

; 323  : 			}

  00005	c3		 ret	 0
??Citerator@?$_Tree@V?$_Tmap_traits@KV?$vector@U_VECINFO@@V?$allocator@U_VECINFO@@@std@@@std@@U?$less@K@2@V?$allocator@U?$pair@$$CBKV?$vector@U_VECINFO@@V?$allocator@U_VECINFO@@@std@@@std@@@std@@@2@$0A@@std@@@std@@QBEPAU?$pair@$$CBKV?$vector@U_VECINFO@@V?$allocator@U_VECINFO@@@std@@@std@@@2@XZ ENDP ; std::_Tree<std::_Tmap_traits<unsigned long,std::vector<_VECINFO,std::allocator<_VECINFO> >,std::less<unsigned long>,std::allocator<std::pair<unsigned long const ,std::vector<_VECINFO,std::allocator<_VECINFO> > > >,0> >::iterator::operator->
_TEXT	ENDS
PUBLIC	??A?$vector@U_VECINFO@@V?$allocator@U_VECINFO@@@std@@@std@@QAEAAU_VECINFO@@I@Z ; std::vector<_VECINFO,std::allocator<_VECINFO> >::operator[]
; Function compile flags: /Ogty
; File c:\program files\microsoft visual studio .net 2003\vc7\include\vector
;	COMDAT ??A?$vector@U_VECINFO@@V?$allocator@U_VECINFO@@@std@@@std@@QAEAAU_VECINFO@@I@Z
_TEXT	SEGMENT
__Pos$ = 8						; size = 4
??A?$vector@U_VECINFO@@V?$allocator@U_VECINFO@@@std@@@std@@QAEAAU_VECINFO@@I@Z PROC NEAR ; std::vector<_VECINFO,std::allocator<_VECINFO> >::operator[], COMDAT
; _this$ = ecx

; 555  : 		return (*(begin() + _Pos));

  00000	8b 44 24 04	 mov	 eax, DWORD PTR __Pos$[esp-4]
  00004	8b 51 04	 mov	 edx, DWORD PTR [ecx+4]
  00007	6b c0 38	 imul	 eax, 56			; 00000038H
  0000a	03 c2		 add	 eax, edx

; 556  : 		}

  0000c	c2 04 00	 ret	 4
??A?$vector@U_VECINFO@@V?$allocator@U_VECINFO@@@std@@@std@@QAEAAU_VECINFO@@I@Z ENDP ; std::vector<_VECINFO,std::allocator<_VECINFO> >::operator[]
_TEXT	ENDS
PUBLIC	?begin@?$vector@UD3DXVECTOR3@@V?$allocator@UD3DXVECTOR3@@@std@@@std@@QAE?AViterator@12@XZ ; std::vector<D3DXVECTOR3,std::allocator<D3DXVECTOR3> >::begin
; Function compile flags: /Ogty
;	COMDAT ?begin@?$vector@UD3DXVECTOR3@@V?$allocator@UD3DXVECTOR3@@@std@@@std@@QAE?AViterator@12@XZ
_TEXT	SEGMENT
___$ReturnUdt$ = 8					; size = 4
?begin@?$vector@UD3DXVECTOR3@@V?$allocator@UD3DXVECTOR3@@@std@@@std@@QAE?AViterator@12@XZ PROC NEAR ; std::vector<D3DXVECTOR3,std::allocator<D3DXVECTOR3> >::begin, COMDAT
; _this$ = ecx

; 463  : 		return (iterator(_Myfirst));

  00000	8b 49 04	 mov	 ecx, DWORD PTR [ecx+4]
  00003	8b 44 24 04	 mov	 eax, DWORD PTR ___$ReturnUdt$[esp-4]
  00007	89 08		 mov	 DWORD PTR [eax], ecx

; 464  : 		}

  00009	c2 04 00	 ret	 4
?begin@?$vector@UD3DXVECTOR3@@V?$allocator@UD3DXVECTOR3@@@std@@@std@@QAE?AViterator@12@XZ ENDP ; std::vector<D3DXVECTOR3,std::allocator<D3DXVECTOR3> >::begin
_TEXT	ENDS
PUBLIC	?end@?$vector@UD3DXVECTOR3@@V?$allocator@UD3DXVECTOR3@@@std@@@std@@QAE?AViterator@12@XZ ; std::vector<D3DXVECTOR3,std::allocator<D3DXVECTOR3> >::end
; Function compile flags: /Ogty
;	COMDAT ?end@?$vector@UD3DXVECTOR3@@V?$allocator@UD3DXVECTOR3@@@std@@@std@@QAE?AViterator@12@XZ
_TEXT	SEGMENT
___$ReturnUdt$ = 8					; size = 4
?end@?$vector@UD3DXVECTOR3@@V?$allocator@UD3DXVECTOR3@@@std@@@std@@QAE?AViterator@12@XZ PROC NEAR ; std::vector<D3DXVECTOR3,std::allocator<D3DXVECTOR3> >::end, COMDAT
; _this$ = ecx

; 473  : 		return (iterator(_Mylast));

  00000	8b 49 08	 mov	 ecx, DWORD PTR [ecx+8]
  00003	8b 44 24 04	 mov	 eax, DWORD PTR ___$ReturnUdt$[esp-4]
  00007	89 08		 mov	 DWORD PTR [eax], ecx

; 474  : 		}

  00009	c2 04 00	 ret	 4
?end@?$vector@UD3DXVECTOR3@@V?$allocator@UD3DXVECTOR3@@@std@@@std@@QAE?AViterator@12@XZ ENDP ; std::vector<D3DXVECTOR3,std::allocator<D3DXVECTOR3> >::end
_TEXT	ENDS
PUBLIC	?begin@?$_Tree@V?$_Tmap_traits@KV?$vector@U_VECINFO@@V?$allocator@U_VECINFO@@@std@@@std@@U?$less@K@2@V?$allocator@U?$pair@$$CBKV?$vector@U_VECINFO@@V?$allocator@U_VECINFO@@@std@@@std@@@std@@@2@$0A@@std@@@std@@QAE?AViterator@12@XZ ; std::_Tree<std::_Tmap_traits<unsigned long,std::vector<_VECINFO,std::allocator<_VECINFO> >,std::less<unsigned long>,std::allocator<std::pair<unsigned long const ,std::vector<_VECINFO,std::allocator<_VECINFO> > > >,0> >::begin
; Function compile flags: /Ogty
; File c:\program files\microsoft visual studio .net 2003\vc7\include\xtree
;	COMDAT ?begin@?$_Tree@V?$_Tmap_traits@KV?$vector@U_VECINFO@@V?$allocator@U_VECINFO@@@std@@@std@@U?$less@K@2@V?$allocator@U?$pair@$$CBKV?$vector@U_VECINFO@@V?$allocator@U_VECINFO@@@std@@@std@@@std@@@2@$0A@@std@@@std@@QAE?AViterator@12@XZ
_TEXT	SEGMENT
___$ReturnUdt$ = 8					; size = 4
?begin@?$_Tree@V?$_Tmap_traits@KV?$vector@U_VECINFO@@V?$allocator@U_VECINFO@@@std@@@std@@U?$less@K@2@V?$allocator@U?$pair@$$CBKV?$vector@U_VECINFO@@V?$allocator@U_VECINFO@@@std@@@std@@@std@@@2@$0A@@std@@@std@@QAE?AViterator@12@XZ PROC NEAR ; std::_Tree<std::_Tmap_traits<unsigned long,std::vector<_VECINFO,std::allocator<_VECINFO> >,std::less<unsigned long>,std::allocator<std::pair<unsigned long const ,std::vector<_VECINFO,std::allocator<_VECINFO> > > >,0> >::begin, COMDAT
; _this$ = ecx

; 408  : 		return (_TREE_ITERATOR(_Lmost()));

  00000	8b 41 04	 mov	 eax, DWORD PTR [ecx+4]
  00003	8b 08		 mov	 ecx, DWORD PTR [eax]
  00005	8b 44 24 04	 mov	 eax, DWORD PTR ___$ReturnUdt$[esp-4]
  00009	89 08		 mov	 DWORD PTR [eax], ecx

; 409  : 		}

  0000b	c2 04 00	 ret	 4
?begin@?$_Tree@V?$_Tmap_traits@KV?$vector@U_VECINFO@@V?$allocator@U_VECINFO@@@std@@@std@@U?$less@K@2@V?$allocator@U?$pair@$$CBKV?$vector@U_VECINFO@@V?$allocator@U_VECINFO@@@std@@@std@@@std@@@2@$0A@@std@@@std@@QAE?AViterator@12@XZ ENDP ; std::_Tree<std::_Tmap_traits<unsigned long,std::vector<_VECINFO,std::allocator<_VECINFO> >,std::less<unsigned long>,std::allocator<std::pair<unsigned long const ,std::vector<_VECINFO,std::allocator<_VECINFO> > > >,0> >::begin
_TEXT	ENDS
PUBLIC	?lower_bound@?$_Tree@V?$_Tmap_traits@KV?$vector@U_VECINFO@@V?$allocator@U_VECINFO@@@std@@@std@@U?$less@K@2@V?$allocator@U?$pair@$$CBKV?$vector@U_VECINFO@@V?$allocator@U_VECINFO@@@std@@@std@@@std@@@2@$0A@@std@@@std@@QAE?AViterator@12@ABK@Z ; std::_Tree<std::_Tmap_traits<unsigned long,std::vector<_VECINFO,std::allocator<_VECINFO> >,std::less<unsigned long>,std::allocator<std::pair<unsigned long const ,std::vector<_VECINFO,std::allocator<_VECINFO> > > >,0> >::lower_bound
; Function compile flags: /Ogty
;	COMDAT ?lower_bound@?$_Tree@V?$_Tmap_traits@KV?$vector@U_VECINFO@@V?$allocator@U_VECINFO@@@std@@@std@@U?$less@K@2@V?$allocator@U?$pair@$$CBKV?$vector@U_VECINFO@@V?$allocator@U_VECINFO@@@std@@@std@@@std@@@2@$0A@@std@@@std@@QAE?AViterator@12@ABK@Z
_TEXT	SEGMENT
___$ReturnUdt$ = 8					; size = 4
__Keyval$ = 12						; size = 4
?lower_bound@?$_Tree@V?$_Tmap_traits@KV?$vector@U_VECINFO@@V?$allocator@U_VECINFO@@@std@@@std@@U?$less@K@2@V?$allocator@U?$pair@$$CBKV?$vector@U_VECINFO@@V?$allocator@U_VECINFO@@@std@@@std@@@std@@@2@$0A@@std@@@std@@QAE?AViterator@12@ABK@Z PROC NEAR ; std::_Tree<std::_Tmap_traits<unsigned long,std::vector<_VECINFO,std::allocator<_VECINFO> >,std::less<unsigned long>,std::allocator<std::pair<unsigned long const ,std::vector<_VECINFO,std::allocator<_VECINFO> > > >,0> >::lower_bound, COMDAT
; _this$ = ecx

; 810  : 		return (_TREE_ITERATOR(_Lbound(_Keyval)));

  00000	8b 49 04	 mov	 ecx, DWORD PTR [ecx+4]
  00003	8b 41 04	 mov	 eax, DWORD PTR [ecx+4]
  00006	8a 50 21	 mov	 dl, BYTE PTR [eax+33]
  00009	84 d2		 test	 dl, dl
  0000b	75 1d		 jne	 SHORT $L230816
  0000d	8b 54 24 08	 mov	 edx, DWORD PTR __Keyval$[esp-4]
  00011	8b 12		 mov	 edx, DWORD PTR [edx]
  00013	53		 push	 ebx
$L230803:
  00014	39 50 0c	 cmp	 DWORD PTR [eax+12], edx
  00017	73 05		 jae	 SHORT $L230805
  00019	8b 40 08	 mov	 eax, DWORD PTR [eax+8]
  0001c	eb 04		 jmp	 SHORT $L230806
$L230805:
  0001e	8b c8		 mov	 ecx, eax
  00020	8b 00		 mov	 eax, DWORD PTR [eax]
$L230806:
  00022	8a 58 21	 mov	 bl, BYTE PTR [eax+33]
  00025	84 db		 test	 bl, bl
  00027	74 eb		 je	 SHORT $L230803
  00029	5b		 pop	 ebx
$L230816:
  0002a	8b 44 24 04	 mov	 eax, DWORD PTR ___$ReturnUdt$[esp-4]
  0002e	89 08		 mov	 DWORD PTR [eax], ecx

; 811  : 		}

  00030	c2 08 00	 ret	 8
?lower_bound@?$_Tree@V?$_Tmap_traits@KV?$vector@U_VECINFO@@V?$allocator@U_VECINFO@@@std@@@std@@U?$less@K@2@V?$allocator@U?$pair@$$CBKV?$vector@U_VECINFO@@V?$allocator@U_VECINFO@@@std@@@std@@@std@@@2@$0A@@std@@@std@@QAE?AViterator@12@ABK@Z ENDP ; std::_Tree<std::_Tmap_traits<unsigned long,std::vector<_VECINFO,std::allocator<_VECINFO> >,std::less<unsigned long>,std::allocator<std::pair<unsigned long const ,std::vector<_VECINFO,std::allocator<_VECINFO> > > >,0> >::lower_bound
_TEXT	ENDS
PUBLIC	??Fconst_iterator@?$_Tree@V?$_Tmap_traits@KV?$vector@U_VECINFO@@V?$allocator@U_VECINFO@@@std@@@std@@U?$less@K@2@V?$allocator@U?$pair@$$CBKV?$vector@U_VECINFO@@V?$allocator@U_VECINFO@@@std@@@std@@@std@@@2@$0A@@std@@@std@@QAEAAV012@XZ ; std::_Tree<std::_Tmap_traits<unsigned long,std::vector<_VECINFO,std::allocator<_VECINFO> >,std::less<unsigned long>,std::allocator<std::pair<unsigned long const ,std::vector<_VECINFO,std::allocator<_VECINFO> > > >,0> >::const_iterator::operator--
; Function compile flags: /Ogty
;	COMDAT ??Fconst_iterator@?$_Tree@V?$_Tmap_traits@KV?$vector@U_VECINFO@@V?$allocator@U_VECINFO@@@std@@@std@@U?$less@K@2@V?$allocator@U?$pair@$$CBKV?$vector@U_VECINFO@@V?$allocator@U_VECINFO@@@std@@@std@@@std@@@2@$0A@@std@@@std@@QAEAAV012@XZ
_TEXT	SEGMENT
??Fconst_iterator@?$_Tree@V?$_Tmap_traits@KV?$vector@U_VECINFO@@V?$allocator@U_VECINFO@@@std@@@std@@U?$less@K@2@V?$allocator@U?$pair@$$CBKV?$vector@U_VECINFO@@V?$allocator@U_VECINFO@@@std@@@std@@@std@@@2@$0A@@std@@@std@@QAEAAV012@XZ PROC NEAR ; std::_Tree<std::_Tmap_traits<unsigned long,std::vector<_VECINFO,std::allocator<_VECINFO> >,std::less<unsigned long>,std::allocator<std::pair<unsigned long const ,std::vector<_VECINFO,std::allocator<_VECINFO> > > >,0> >::const_iterator::operator--, COMDAT
; _this$ = ecx

; 227  : 			{	// predecrement

  00000	56		 push	 esi
  00001	8b f1		 mov	 esi, ecx

; 228  : 			_Dec();

  00003	e8 00 00 00 00	 call	 ?_Dec@const_iterator@?$_Tree@V?$_Tmap_traits@KV?$vector@U_VECINFO@@V?$allocator@U_VECINFO@@@std@@@std@@U?$less@K@2@V?$allocator@U?$pair@$$CBKV?$vector@U_VECINFO@@V?$allocator@U_VECINFO@@@std@@@std@@@std@@@2@$0A@@std@@@std@@QAEXXZ ; std::_Tree<std::_Tmap_traits<unsigned long,std::vector<_VECINFO,std::allocator<_VECINFO> >,std::less<unsigned long>,std::allocator<std::pair<unsigned long const ,std::vector<_VECINFO,std::allocator<_VECINFO> > > >,0> >::const_iterator::_Dec

; 229  : 			return (*this);

  00008	8b c6		 mov	 eax, esi
  0000a	5e		 pop	 esi

; 230  : 			}

  0000b	c3		 ret	 0
??Fconst_iterator@?$_Tree@V?$_Tmap_traits@KV?$vector@U_VECINFO@@V?$allocator@U_VECINFO@@@std@@@std@@U?$less@K@2@V?$allocator@U?$pair@$$CBKV?$vector@U_VECINFO@@V?$allocator@U_VECINFO@@@std@@@std@@@std@@@2@$0A@@std@@@std@@QAEAAV012@XZ ENDP ; std::_Tree<std::_Tmap_traits<unsigned long,std::vector<_VECINFO,std::allocator<_VECINFO> >,std::less<unsigned long>,std::allocator<std::pair<unsigned long const ,std::vector<_VECINFO,std::allocator<_VECINFO> > > >,0> >::const_iterator::operator--
_TEXT	ENDS
PUBLIC	?_Buynode@?$_Tree@V?$_Tmap_traits@KHU?$less@K@std@@V?$allocator@U?$pair@$$CBKH@std@@@2@$0A@@std@@@std@@IAEPAU_Node@?$_Tree_nod@V?$_Tmap_traits@KHU?$less@K@std@@V?$allocator@U?$pair@$$CBKH@std@@@2@$0A@@std@@@2@XZ ; std::_Tree<std::_Tmap_traits<unsigned long,int,std::less<unsigned long>,std::allocator<std::pair<unsigned long const ,int> >,0> >::_Buynode
; Function compile flags: /Ogty
;	COMDAT ?_Buynode@?$_Tree@V?$_Tmap_traits@KHU?$less@K@std@@V?$allocator@U?$pair@$$CBKH@std@@@2@$0A@@std@@@std@@IAEPAU_Node@?$_Tree_nod@V?$_Tmap_traits@KHU?$less@K@std@@V?$allocator@U?$pair@$$CBKH@std@@@2@$0A@@std@@@2@XZ
_TEXT	SEGMENT
?_Buynode@?$_Tree@V?$_Tmap_traits@KHU?$less@K@std@@V?$allocator@U?$pair@$$CBKH@std@@@2@$0A@@std@@@std@@IAEPAU_Node@?$_Tree_nod@V?$_Tmap_traits@KHU?$less@K@std@@V?$allocator@U?$pair@$$CBKH@std@@@2@$0A@@std@@@2@XZ PROC NEAR ; std::_Tree<std::_Tmap_traits<unsigned long,int,std::less<unsigned long>,std::allocator<std::pair<unsigned long const ,int> >,0> >::_Buynode, COMDAT
; _this$ = ecx

; 1106 : 		_Nodeptr _Wherenode = this->_Alnod.allocate(1);

  00000	6a 18		 push	 24			; 00000018H
  00002	e8 00 00 00 00	 call	 ??2@YAPAXI@Z		; operator new
  00007	83 c4 04	 add	 esp, 4

; 1107 : 		int _Linkcnt = 0;
; 1108 : 
; 1109 : 		_TRY_BEGIN
; 1110 : 		this->_Alptr.construct(&_Left(_Wherenode), 0);

  0000a	85 c0		 test	 eax, eax
  0000c	74 06		 je	 SHORT $L230857
  0000e	c7 00 00 00 00
	00		 mov	 DWORD PTR [eax], 0
$L230857:

; 1111 : 		++_Linkcnt;
; 1112 : 		this->_Alptr.construct(&_Parent(_Wherenode), 0);

  00014	8d 48 04	 lea	 ecx, DWORD PTR [eax+4]
  00017	85 c9		 test	 ecx, ecx
  00019	74 06		 je	 SHORT $L230884
  0001b	c7 01 00 00 00
	00		 mov	 DWORD PTR [ecx], 0
$L230884:

; 1113 : 		++_Linkcnt;
; 1114 : 		this->_Alptr.construct(&_Right(_Wherenode), 0);

  00021	8d 48 08	 lea	 ecx, DWORD PTR [eax+8]
  00024	85 c9		 test	 ecx, ecx
  00026	74 06		 je	 SHORT $L230911
  00028	c7 01 00 00 00
	00		 mov	 DWORD PTR [ecx], 0
$L230911:

; 1115 : 		_CATCH_ALL
; 1116 : 		if (1 < _Linkcnt)
; 1117 : 			this->_Alptr.destroy(&_Parent(_Wherenode));
; 1118 : 		if (0 < _Linkcnt)
; 1119 : 			this->_Alptr.destroy(&_Left(_Wherenode));
; 1120 : 		this->_Alnod.deallocate(_Wherenode, 1);
; 1121 : 		_RERAISE;
; 1122 : 		_CATCH_END
; 1123 : 		_Color(_Wherenode) = _Black;

  0002e	c6 40 14 01	 mov	 BYTE PTR [eax+20], 1

; 1124 : 		_Isnil(_Wherenode) = false;

  00032	c6 40 15 00	 mov	 BYTE PTR [eax+21], 0

; 1125 : 		return (_Wherenode);
; 1126 : 		}

  00036	c3		 ret	 0
?_Buynode@?$_Tree@V?$_Tmap_traits@KHU?$less@K@std@@V?$allocator@U?$pair@$$CBKH@std@@@2@$0A@@std@@@std@@IAEPAU_Node@?$_Tree_nod@V?$_Tmap_traits@KHU?$less@K@std@@V?$allocator@U?$pair@$$CBKH@std@@@2@$0A@@std@@@2@XZ ENDP ; std::_Tree<std::_Tmap_traits<unsigned long,int,std::less<unsigned long>,std::allocator<std::pair<unsigned long const ,int> >,0> >::_Buynode
_TEXT	ENDS
PUBLIC	??0?$_Tree_ptr@V?$_Tmap_traits@KHU?$less@K@std@@V?$allocator@U?$pair@$$CBKH@std@@@2@$0A@@std@@@std@@IAE@ABU?$less@K@1@V?$allocator@U?$pair@$$CBKH@std@@@1@@Z ; std::_Tree_ptr<std::_Tmap_traits<unsigned long,int,std::less<unsigned long>,std::allocator<std::pair<unsigned long const ,int> >,0> >::_Tree_ptr<std::_Tmap_traits<unsigned long,int,std::less<unsigned long>,std::allocator<std::pair<unsigned long const ,int> >,0> >
; Function compile flags: /Ogty
;	COMDAT ??0?$_Tree_ptr@V?$_Tmap_traits@KHU?$less@K@std@@V?$allocator@U?$pair@$$CBKH@std@@@2@$0A@@std@@@std@@IAE@ABU?$less@K@1@V?$allocator@U?$pair@$$CBKH@std@@@1@@Z
_TEXT	SEGMENT
__Parg$ = 8						; size = 4
__Al$ = 12						; size = 1
??0?$_Tree_ptr@V?$_Tmap_traits@KHU?$less@K@std@@V?$allocator@U?$pair@$$CBKH@std@@@2@$0A@@std@@@std@@IAE@ABU?$less@K@1@V?$allocator@U?$pair@$$CBKH@std@@@1@@Z PROC NEAR ; std::_Tree_ptr<std::_Tmap_traits<unsigned long,int,std::less<unsigned long>,std::allocator<std::pair<unsigned long const ,int> >,0> >::_Tree_ptr<std::_Tmap_traits<unsigned long,int,std::less<unsigned long>,std::allocator<std::pair<unsigned long const ,int> >,0> >, COMDAT
; _this$ = ecx

; 76   : 		{	// construct base, and allocator from _Al

  00000	8b c1		 mov	 eax, ecx

; 77   : 		}

  00002	c2 08 00	 ret	 8
??0?$_Tree_ptr@V?$_Tmap_traits@KHU?$less@K@std@@V?$allocator@U?$pair@$$CBKH@std@@@2@$0A@@std@@@std@@IAE@ABU?$less@K@1@V?$allocator@U?$pair@$$CBKH@std@@@1@@Z ENDP ; std::_Tree_ptr<std::_Tmap_traits<unsigned long,int,std::less<unsigned long>,std::allocator<std::pair<unsigned long const ,int> >,0> >::_Tree_ptr<std::_Tmap_traits<unsigned long,int,std::less<unsigned long>,std::allocator<std::pair<unsigned long const ,int> >,0> >
_TEXT	ENDS
PUBLIC	?_Buynode@?$_Tree@V?$_Tmap_traits@KV?$vector@U_VECINFO@@V?$allocator@U_VECINFO@@@std@@@std@@U?$less@K@2@V?$allocator@U?$pair@$$CBKV?$vector@U_VECINFO@@V?$allocator@U_VECINFO@@@std@@@std@@@std@@@2@$0A@@std@@@std@@IAEPAU_Node@?$_Tree_nod@V?$_Tmap_traits@KV?$vector@U_VECINFO@@V?$allocator@U_VECINFO@@@std@@@std@@U?$less@K@2@V?$allocator@U?$pair@$$CBKV?$vector@U_VECINFO@@V?$allocator@U_VECINFO@@@std@@@std@@@std@@@2@$0A@@std@@@2@XZ ; std::_Tree<std::_Tmap_traits<unsigned long,std::vector<_VECINFO,std::allocator<_VECINFO> >,std::less<unsigned long>,std::allocator<std::pair<unsigned long const ,std::vector<_VECINFO,std::allocator<_VECINFO> > > >,0> >::_Buynode
; Function compile flags: /Ogty
;	COMDAT ?_Buynode@?$_Tree@V?$_Tmap_traits@KV?$vector@U_VECINFO@@V?$allocator@U_VECINFO@@@std@@@std@@U?$less@K@2@V?$allocator@U?$pair@$$CBKV?$vector@U_VECINFO@@V?$allocator@U_VECINFO@@@std@@@std@@@std@@@2@$0A@@std@@@std@@IAEPAU_Node@?$_Tree_nod@V?$_Tmap_traits@KV?$vector@U_VECINFO@@V?$allocator@U_VECINFO@@@std@@@std@@U?$less@K@2@V?$allocator@U?$pair@$$CBKV?$vector@U_VECINFO@@V?$allocator@U_VECINFO@@@std@@@std@@@std@@@2@$0A@@std@@@2@XZ
_TEXT	SEGMENT
?_Buynode@?$_Tree@V?$_Tmap_traits@KV?$vector@U_VECINFO@@V?$allocator@U_VECINFO@@@std@@@std@@U?$less@K@2@V?$allocator@U?$pair@$$CBKV?$vector@U_VECINFO@@V?$allocator@U_VECINFO@@@std@@@std@@@std@@@2@$0A@@std@@@std@@IAEPAU_Node@?$_Tree_nod@V?$_Tmap_traits@KV?$vector@U_VECINFO@@V?$allocator@U_VECINFO@@@std@@@std@@U?$less@K@2@V?$allocator@U?$pair@$$CBKV?$vector@U_VECINFO@@V?$allocator@U_VECINFO@@@std@@@std@@@std@@@2@$0A@@std@@@2@XZ PROC NEAR ; std::_Tree<std::_Tmap_traits<unsigned long,std::vector<_VECINFO,std::allocator<_VECINFO> >,std::less<unsigned long>,std::allocator<std::pair<unsigned long const ,std::vector<_VECINFO,std::allocator<_VECINFO> > > >,0> >::_Buynode, COMDAT
; _this$ = ecx

; 1106 : 		_Nodeptr _Wherenode = this->_Alnod.allocate(1);

  00000	6a 24		 push	 36			; 00000024H
  00002	e8 00 00 00 00	 call	 ??2@YAPAXI@Z		; operator new
  00007	83 c4 04	 add	 esp, 4

; 1107 : 		int _Linkcnt = 0;
; 1108 : 
; 1109 : 		_TRY_BEGIN
; 1110 : 		this->_Alptr.construct(&_Left(_Wherenode), 0);

  0000a	85 c0		 test	 eax, eax
  0000c	74 06		 je	 SHORT $L230997
  0000e	c7 00 00 00 00
	00		 mov	 DWORD PTR [eax], 0
$L230997:

; 1111 : 		++_Linkcnt;
; 1112 : 		this->_Alptr.construct(&_Parent(_Wherenode), 0);

  00014	8d 48 04	 lea	 ecx, DWORD PTR [eax+4]
  00017	85 c9		 test	 ecx, ecx
  00019	74 06		 je	 SHORT $L231024
  0001b	c7 01 00 00 00
	00		 mov	 DWORD PTR [ecx], 0
$L231024:

; 1113 : 		++_Linkcnt;
; 1114 : 		this->_Alptr.construct(&_Right(_Wherenode), 0);

  00021	8d 48 08	 lea	 ecx, DWORD PTR [eax+8]
  00024	85 c9		 test	 ecx, ecx
  00026	74 06		 je	 SHORT $L231051
  00028	c7 01 00 00 00
	00		 mov	 DWORD PTR [ecx], 0
$L231051:

; 1115 : 		_CATCH_ALL
; 1116 : 		if (1 < _Linkcnt)
; 1117 : 			this->_Alptr.destroy(&_Parent(_Wherenode));
; 1118 : 		if (0 < _Linkcnt)
; 1119 : 			this->_Alptr.destroy(&_Left(_Wherenode));
; 1120 : 		this->_Alnod.deallocate(_Wherenode, 1);
; 1121 : 		_RERAISE;
; 1122 : 		_CATCH_END
; 1123 : 		_Color(_Wherenode) = _Black;

  0002e	c6 40 20 01	 mov	 BYTE PTR [eax+32], 1

; 1124 : 		_Isnil(_Wherenode) = false;

  00032	c6 40 21 00	 mov	 BYTE PTR [eax+33], 0

; 1125 : 		return (_Wherenode);
; 1126 : 		}

  00036	c3		 ret	 0
?_Buynode@?$_Tree@V?$_Tmap_traits@KV?$vector@U_VECINFO@@V?$allocator@U_VECINFO@@@std@@@std@@U?$less@K@2@V?$allocator@U?$pair@$$CBKV?$vector@U_VECINFO@@V?$allocator@U_VECINFO@@@std@@@std@@@std@@@2@$0A@@std@@@std@@IAEPAU_Node@?$_Tree_nod@V?$_Tmap_traits@KV?$vector@U_VECINFO@@V?$allocator@U_VECINFO@@@std@@@std@@U?$less@K@2@V?$allocator@U?$pair@$$CBKV?$vector@U_VECINFO@@V?$allocator@U_VECINFO@@@std@@@std@@@std@@@2@$0A@@std@@@2@XZ ENDP ; std::_Tree<std::_Tmap_traits<unsigned long,std::vector<_VECINFO,std::allocator<_VECINFO> >,std::less<unsigned long>,std::allocator<std::pair<unsigned long const ,std::vector<_VECINFO,std::allocator<_VECINFO> > > >,0> >::_Buynode
_TEXT	ENDS
PUBLIC	??0?$_Tree_ptr@V?$_Tmap_traits@KV?$vector@U_VECINFO@@V?$allocator@U_VECINFO@@@std@@@std@@U?$less@K@2@V?$allocator@U?$pair@$$CBKV?$vector@U_VECINFO@@V?$allocator@U_VECINFO@@@std@@@std@@@std@@@2@$0A@@std@@@std@@IAE@ABU?$less@K@1@V?$allocator@U?$pair@$$CBKV?$vector@U_VECINFO@@V?$allocator@U_VECINFO@@@std@@@std@@@std@@@1@@Z ; std::_Tree_ptr<std::_Tmap_traits<unsigned long,std::vector<_VECINFO,std::allocator<_VECINFO> >,std::less<unsigned long>,std::allocator<std::pair<unsigned long const ,std::vector<_VECINFO,std::allocator<_VECINFO> > > >,0> >::_Tree_ptr<std::_Tmap_traits<unsigned long,std::vector<_VECINFO,std::allocator<_VECINFO> >,std::less<unsigned long>,std::allocator<std::pair<unsigned long const ,std::vector<_VECINFO,std::allocator<_VECINFO> > > >,0> >
; Function compile flags: /Ogty
;	COMDAT ??0?$_Tree_ptr@V?$_Tmap_traits@KV?$vector@U_VECINFO@@V?$allocator@U_VECINFO@@@std@@@std@@U?$less@K@2@V?$allocator@U?$pair@$$CBKV?$vector@U_VECINFO@@V?$allocator@U_VECINFO@@@std@@@std@@@std@@@2@$0A@@std@@@std@@IAE@ABU?$less@K@1@V?$allocator@U?$pair@$$CBKV?$vector@U_VECINFO@@V?$allocator@U_VECINFO@@@std@@@std@@@std@@@1@@Z
_TEXT	SEGMENT
__Parg$ = 8						; size = 4
__Al$ = 12						; size = 1
??0?$_Tree_ptr@V?$_Tmap_traits@KV?$vector@U_VECINFO@@V?$allocator@U_VECINFO@@@std@@@std@@U?$less@K@2@V?$allocator@U?$pair@$$CBKV?$vector@U_VECINFO@@V?$allocator@U_VECINFO@@@std@@@std@@@std@@@2@$0A@@std@@@std@@IAE@ABU?$less@K@1@V?$allocator@U?$pair@$$CBKV?$vector@U_VECINFO@@V?$allocator@U_VECINFO@@@std@@@std@@@std@@@1@@Z PROC NEAR ; std::_Tree_ptr<std::_Tmap_traits<unsigned long,std::vector<_VECINFO,std::allocator<_VECINFO> >,std::less<unsigned long>,std::allocator<std::pair<unsigned long const ,std::vector<_VECINFO,std::allocator<_VECINFO> > > >,0> >::_Tree_ptr<std::_Tmap_traits<unsigned long,std::vector<_VECINFO,std::allocator<_VECINFO> >,std::less<unsigned long>,std::allocator<std::pair<unsigned long const ,std::vector<_VECINFO,std::allocator<_VECINFO> > > >,0> >, COMDAT
; _this$ = ecx

; 76   : 		{	// construct base, and allocator from _Al

  00000	8b c1		 mov	 eax, ecx

; 77   : 		}

  00002	c2 08 00	 ret	 8
??0?$_Tree_ptr@V?$_Tmap_traits@KV?$vector@U_VECINFO@@V?$allocator@U_VECINFO@@@std@@@std@@U?$less@K@2@V?$allocator@U?$pair@$$CBKV?$vector@U_VECINFO@@V?$allocator@U_VECINFO@@@std@@@std@@@std@@@2@$0A@@std@@@std@@IAE@ABU?$less@K@1@V?$allocator@U?$pair@$$CBKV?$vector@U_VECINFO@@V?$allocator@U_VECINFO@@@std@@@std@@@std@@@1@@Z ENDP ; std::_Tree_ptr<std::_Tmap_traits<unsigned long,std::vector<_VECINFO,std::allocator<_VECINFO> >,std::less<unsigned long>,std::allocator<std::pair<unsigned long const ,std::vector<_VECINFO,std::allocator<_VECINFO> > > >,0> >::_Tree_ptr<std::_Tmap_traits<unsigned long,std::vector<_VECINFO,std::allocator<_VECINFO> >,std::less<unsigned long>,std::allocator<std::pair<unsigned long const ,std::vector<_VECINFO,std::allocator<_VECINFO> > > >,0> >
_TEXT	ENDS
PUBLIC	??Eiterator@?$_Tree@V?$_Tmap_traits@KV?$vector@U_VECINFO@@V?$allocator@U_VECINFO@@@std@@@std@@U?$less@K@2@V?$allocator@U?$pair@$$CBKV?$vector@U_VECINFO@@V?$allocator@U_VECINFO@@@std@@@std@@@std@@@2@$0A@@std@@@std@@QAEAAV012@XZ ; std::_Tree<std::_Tmap_traits<unsigned long,std::vector<_VECINFO,std::allocator<_VECINFO> >,std::less<unsigned long>,std::allocator<std::pair<unsigned long const ,std::vector<_VECINFO,std::allocator<_VECINFO> > > >,0> >::iterator::operator++
; Function compile flags: /Ogty
;	COMDAT ??Eiterator@?$_Tree@V?$_Tmap_traits@KV?$vector@U_VECINFO@@V?$allocator@U_VECINFO@@@std@@@std@@U?$less@K@2@V?$allocator@U?$pair@$$CBKV?$vector@U_VECINFO@@V?$allocator@U_VECINFO@@@std@@@std@@@std@@@2@$0A@@std@@@std@@QAEAAV012@XZ
_TEXT	SEGMENT
??Eiterator@?$_Tree@V?$_Tmap_traits@KV?$vector@U_VECINFO@@V?$allocator@U_VECINFO@@@std@@@std@@U?$less@K@2@V?$allocator@U?$pair@$$CBKV?$vector@U_VECINFO@@V?$allocator@U_VECINFO@@@std@@@std@@@std@@@2@$0A@@std@@@std@@QAEAAV012@XZ PROC NEAR ; std::_Tree<std::_Tmap_traits<unsigned long,std::vector<_VECINFO,std::allocator<_VECINFO> >,std::less<unsigned long>,std::allocator<std::pair<unsigned long const ,std::vector<_VECINFO,std::allocator<_VECINFO> > > >,0> >::iterator::operator++, COMDAT
; _this$ = ecx

; 326  : 			{	// preincrement

  00000	56		 push	 esi
  00001	8b f1		 mov	 esi, ecx

; 327  : 			++(*(const_iterator *)this);

  00003	e8 00 00 00 00	 call	 ?_Inc@const_iterator@?$_Tree@V?$_Tmap_traits@KV?$vector@U_VECINFO@@V?$allocator@U_VECINFO@@@std@@@std@@U?$less@K@2@V?$allocator@U?$pair@$$CBKV?$vector@U_VECINFO@@V?$allocator@U_VECINFO@@@std@@@std@@@std@@@2@$0A@@std@@@std@@QAEXXZ ; std::_Tree<std::_Tmap_traits<unsigned long,std::vector<_VECINFO,std::allocator<_VECINFO> >,std::less<unsigned long>,std::allocator<std::pair<unsigned long const ,std::vector<_VECINFO,std::allocator<_VECINFO> > > >,0> >::const_iterator::_Inc

; 328  : 			return (*this);

  00008	8b c6		 mov	 eax, esi
  0000a	5e		 pop	 esi

; 329  : 			}

  0000b	c3		 ret	 0
??Eiterator@?$_Tree@V?$_Tmap_traits@KV?$vector@U_VECINFO@@V?$allocator@U_VECINFO@@@std@@@std@@U?$less@K@2@V?$allocator@U?$pair@$$CBKV?$vector@U_VECINFO@@V?$allocator@U_VECINFO@@@std@@@std@@@std@@@2@$0A@@std@@@std@@QAEAAV012@XZ ENDP ; std::_Tree<std::_Tmap_traits<unsigned long,std::vector<_VECINFO,std::allocator<_VECINFO> >,std::less<unsigned long>,std::allocator<std::pair<unsigned long const ,std::vector<_VECINFO,std::allocator<_VECINFO> > > >,0> >::iterator::operator++
_TEXT	ENDS
PUBLIC	??$_Destroy_range@UD3DXVECTOR3@@V?$allocator@UD3DXVECTOR3@@@std@@@std@@YAXPAUD3DXVECTOR3@@0AAV?$allocator@UD3DXVECTOR3@@@0@U_Nonscalar_ptr_iterator_tag@0@@Z ; std::_Destroy_range<D3DXVECTOR3,std::allocator<D3DXVECTOR3> >
; Function compile flags: /Ogty
; File c:\program files\microsoft visual studio .net 2003\vc7\include\xmemory
;	COMDAT ??$_Destroy_range@UD3DXVECTOR3@@V?$allocator@UD3DXVECTOR3@@@std@@@std@@YAXPAUD3DXVECTOR3@@0AAV?$allocator@UD3DXVECTOR3@@@0@U_Nonscalar_ptr_iterator_tag@0@@Z
_TEXT	SEGMENT
__First$ = 8						; size = 4
__Last$ = 12						; size = 4
__Al$ = 16						; size = 4
___formal$ = 20						; size = 1
??$_Destroy_range@UD3DXVECTOR3@@V?$allocator@UD3DXVECTOR3@@@std@@@std@@YAXPAUD3DXVECTOR3@@0AAV?$allocator@UD3DXVECTOR3@@@0@U_Nonscalar_ptr_iterator_tag@0@@Z PROC NEAR ; std::_Destroy_range<D3DXVECTOR3,std::allocator<D3DXVECTOR3> >, COMDAT

; 225  : 	for (; _First != _Last; ++_First)
; 226  : 		_Al.destroy(_First);
; 227  : 	}

  00000	c3		 ret	 0
??$_Destroy_range@UD3DXVECTOR3@@V?$allocator@UD3DXVECTOR3@@@std@@@std@@YAXPAUD3DXVECTOR3@@0AAV?$allocator@UD3DXVECTOR3@@@0@U_Nonscalar_ptr_iterator_tag@0@@Z ENDP ; std::_Destroy_range<D3DXVECTOR3,std::allocator<D3DXVECTOR3> >
_TEXT	ENDS
PUBLIC	??$copy_backward@PAU_VECINFO@@PAU1@@std@@YAPAU_VECINFO@@PAU1@00@Z ; std::copy_backward<_VECINFO *,_VECINFO *>
; Function compile flags: /Ogty
; File c:\program files\microsoft visual studio .net 2003\vc7\include\xutility
;	COMDAT ??$copy_backward@PAU_VECINFO@@PAU1@@std@@YAPAU_VECINFO@@PAU1@00@Z
_TEXT	SEGMENT
__Cat$231116 = -4					; size = 1
__First$ = 8						; size = 4
__Last$ = 12						; size = 4
__Dest$ = 16						; size = 4
??$copy_backward@PAU_VECINFO@@PAU1@@std@@YAPAU_VECINFO@@PAU1@00@Z PROC NEAR ; std::copy_backward<_VECINFO *,_VECINFO *>, COMDAT

; 1067 : 	{	// copy [_First, _Last) backwards to [..., _Dest)

  00000	51		 push	 ecx

; 1068 : 	return (_Copy_backward_opt(_First, _Last, _Dest,
; 1069 : 		_Ptr_cat(_First, _Dest)));

  00001	8b 04 24	 mov	 eax, DWORD PTR __Cat$231116[esp+4]
  00004	8b 4c 24 10	 mov	 ecx, DWORD PTR __Dest$[esp]
  00008	8b 54 24 0c	 mov	 edx, DWORD PTR __Last$[esp]
  0000c	50		 push	 eax
  0000d	8b 44 24 0c	 mov	 eax, DWORD PTR __First$[esp+4]
  00011	51		 push	 ecx
  00012	52		 push	 edx
  00013	50		 push	 eax
  00014	e8 00 00 00 00	 call	 ??$_Copy_backward_opt@PAU_VECINFO@@PAU1@@std@@YAPAU_VECINFO@@PAU1@00U_Nonscalar_ptr_iterator_tag@0@@Z ; std::_Copy_backward_opt<_VECINFO *,_VECINFO *>

; 1070 : 	}

  00019	83 c4 14	 add	 esp, 20			; 00000014H
  0001c	c3		 ret	 0
??$copy_backward@PAU_VECINFO@@PAU1@@std@@YAPAU_VECINFO@@PAU1@00@Z ENDP ; std::copy_backward<_VECINFO *,_VECINFO *>
_TEXT	ENDS
PUBLIC	??$_Uninit_fill_n@PAUD3DXVECTOR3@@IU1@V?$allocator@UD3DXVECTOR3@@@std@@@std@@YAXPAUD3DXVECTOR3@@IABU1@AAV?$allocator@UD3DXVECTOR3@@@0@U_Nonscalar_ptr_iterator_tag@0@@Z ; std::_Uninit_fill_n<D3DXVECTOR3 *,unsigned int,D3DXVECTOR3,std::allocator<D3DXVECTOR3> >
; Function compile flags: /Ogty
; File c:\program files\microsoft visual studio .net 2003\vc7\include\memory
;	COMDAT ??$_Uninit_fill_n@PAUD3DXVECTOR3@@IU1@V?$allocator@UD3DXVECTOR3@@@std@@@std@@YAXPAUD3DXVECTOR3@@IABU1@AAV?$allocator@UD3DXVECTOR3@@@0@U_Nonscalar_ptr_iterator_tag@0@@Z
_TEXT	SEGMENT
__First$ = 8						; size = 4
__Count$ = 12						; size = 4
__Val$ = 16						; size = 4
__Al$ = 20						; size = 4
___formal$ = 24						; size = 1
??$_Uninit_fill_n@PAUD3DXVECTOR3@@IU1@V?$allocator@UD3DXVECTOR3@@@std@@@std@@YAXPAUD3DXVECTOR3@@IABU1@AAV?$allocator@UD3DXVECTOR3@@@0@U_Nonscalar_ptr_iterator_tag@0@@Z PROC NEAR ; std::_Uninit_fill_n<D3DXVECTOR3 *,unsigned int,D3DXVECTOR3,std::allocator<D3DXVECTOR3> >, COMDAT

; 208  : 	_FwdIt _Next = _First;
; 209  : 
; 210  : 	_TRY_BEGIN
; 211  : 	for (; 0 < _Count; --_Count, ++_First)

  00000	8b 44 24 08	 mov	 eax, DWORD PTR __Count$[esp-4]
  00004	85 c0		 test	 eax, eax
  00006	76 2e		 jbe	 SHORT $L228077
  00008	8b 54 24 0c	 mov	 edx, DWORD PTR __Val$[esp-4]
  0000c	53		 push	 ebx
  0000d	56		 push	 esi
  0000e	8b c8		 mov	 ecx, eax
  00010	8b 44 24 0c	 mov	 eax, DWORD PTR __First$[esp+4]
  00014	57		 push	 edi
$L228075:

; 212  : 		_Al.construct(_First, _Val);

  00015	85 c0		 test	 eax, eax
  00017	74 14		 je	 SHORT $L228076
  00019	8b f2		 mov	 esi, edx
  0001b	8b 1e		 mov	 ebx, DWORD PTR [esi]
  0001d	8b f8		 mov	 edi, eax
  0001f	89 1f		 mov	 DWORD PTR [edi], ebx
  00021	8b 5e 04	 mov	 ebx, DWORD PTR [esi+4]
  00024	89 5f 04	 mov	 DWORD PTR [edi+4], ebx
  00027	8b 76 08	 mov	 esi, DWORD PTR [esi+8]
  0002a	89 77 08	 mov	 DWORD PTR [edi+8], esi
$L228076:
  0002d	83 c0 0c	 add	 eax, 12			; 0000000cH
  00030	49		 dec	 ecx
  00031	75 e2		 jne	 SHORT $L228075
  00033	5f		 pop	 edi
  00034	5e		 pop	 esi
  00035	5b		 pop	 ebx
$L228077:

; 213  : 	_CATCH_ALL
; 214  : 	for (; _Next != _First; ++_Next)
; 215  : 		_Al.destroy(_Next);
; 216  : 	_RERAISE;
; 217  : 	_CATCH_END
; 218  : 	}

  00036	c3		 ret	 0
??$_Uninit_fill_n@PAUD3DXVECTOR3@@IU1@V?$allocator@UD3DXVECTOR3@@@std@@@std@@YAXPAUD3DXVECTOR3@@IABU1@AAV?$allocator@UD3DXVECTOR3@@@0@U_Nonscalar_ptr_iterator_tag@0@@Z ENDP ; std::_Uninit_fill_n<D3DXVECTOR3 *,unsigned int,D3DXVECTOR3,std::allocator<D3DXVECTOR3> >
_TEXT	ENDS
PUBLIC	??$_Uninitialized_copy@PAUD3DXVECTOR3@@PAU1@V?$allocator@UD3DXVECTOR3@@@std@@@std@@YAPAUD3DXVECTOR3@@PAU1@00AAV?$allocator@UD3DXVECTOR3@@@0@@Z ; std::_Uninitialized_copy<D3DXVECTOR3 *,D3DXVECTOR3 *,std::allocator<D3DXVECTOR3> >
; Function compile flags: /Ogty
;	COMDAT ??$_Uninitialized_copy@PAUD3DXVECTOR3@@PAU1@V?$allocator@UD3DXVECTOR3@@@std@@@std@@YAPAUD3DXVECTOR3@@PAU1@00AAV?$allocator@UD3DXVECTOR3@@@0@@Z
_TEXT	SEGMENT
__Cat$231156 = -4					; size = 1
__First$ = 8						; size = 4
__Last$ = 12						; size = 4
__Dest$ = 16						; size = 4
__Al$ = 20						; size = 4
??$_Uninitialized_copy@PAUD3DXVECTOR3@@PAU1@V?$allocator@UD3DXVECTOR3@@@std@@@std@@YAPAUD3DXVECTOR3@@PAU1@00AAV?$allocator@UD3DXVECTOR3@@@0@@Z PROC NEAR ; std::_Uninitialized_copy<D3DXVECTOR3 *,D3DXVECTOR3 *,std::allocator<D3DXVECTOR3> >, COMDAT

; 126  : 	{	// copy [_First, _Last) to raw _Dest, using _Al

  00000	51		 push	 ecx

; 127  : 	return (_Uninit_copy(_First, _Last, _Dest, _Al,
; 128  : 		_Ptr_cat(_First, _Dest)));

  00001	8b 04 24	 mov	 eax, DWORD PTR __Cat$231156[esp+4]
  00004	8b 4c 24 14	 mov	 ecx, DWORD PTR __Al$[esp]
  00008	8b 54 24 10	 mov	 edx, DWORD PTR __Dest$[esp]
  0000c	50		 push	 eax
  0000d	8b 44 24 10	 mov	 eax, DWORD PTR __Last$[esp+4]
  00011	51		 push	 ecx
  00012	8b 4c 24 10	 mov	 ecx, DWORD PTR __First$[esp+8]
  00016	52		 push	 edx
  00017	50		 push	 eax
  00018	51		 push	 ecx
  00019	e8 00 00 00 00	 call	 ??$_Uninit_copy@PAUD3DXVECTOR3@@PAU1@V?$allocator@UD3DXVECTOR3@@@std@@@std@@YAPAUD3DXVECTOR3@@PAU1@00AAV?$allocator@UD3DXVECTOR3@@@0@U_Nonscalar_ptr_iterator_tag@0@@Z ; std::_Uninit_copy<D3DXVECTOR3 *,D3DXVECTOR3 *,std::allocator<D3DXVECTOR3> >

; 129  : 	}

  0001e	83 c4 18	 add	 esp, 24			; 00000018H
  00021	c3		 ret	 0
??$_Uninitialized_copy@PAUD3DXVECTOR3@@PAU1@V?$allocator@UD3DXVECTOR3@@@std@@@std@@YAPAUD3DXVECTOR3@@PAU1@00AAV?$allocator@UD3DXVECTOR3@@@0@@Z ENDP ; std::_Uninitialized_copy<D3DXVECTOR3 *,D3DXVECTOR3 *,std::allocator<D3DXVECTOR3> >
_TEXT	ENDS
PUBLIC	?construct@?$allocator@U_VECINFO@@@std@@QAEXPAU_VECINFO@@ABU3@@Z ; std::allocator<_VECINFO>::construct
; Function compile flags: /Ogty
; File c:\program files\microsoft visual studio .net 2003\vc7\include\xmemory
;	COMDAT ?construct@?$allocator@U_VECINFO@@@std@@QAEXPAU_VECINFO@@ABU3@@Z
_TEXT	SEGMENT
__Ptr$ = 8						; size = 4
__Val$ = 12						; size = 4
?construct@?$allocator@U_VECINFO@@@std@@QAEXPAU_VECINFO@@ABU3@@Z PROC NEAR ; std::allocator<_VECINFO>::construct, COMDAT
; _this$ = ecx

; 147  : 		_Construct(_Ptr, _Val);

  00000	8b 4c 24 04	 mov	 ecx, DWORD PTR __Ptr$[esp-4]
  00004	85 c9		 test	 ecx, ecx
  00006	74 0a		 je	 SHORT $L231170
  00008	8b 44 24 08	 mov	 eax, DWORD PTR __Val$[esp-4]
  0000c	50		 push	 eax
  0000d	e8 00 00 00 00	 call	 ??0_VECINFO@@QAE@ABU0@@Z
$L231170:

; 148  : 		}

  00012	c2 08 00	 ret	 8
?construct@?$allocator@U_VECINFO@@@std@@QAEXPAU_VECINFO@@ABU3@@Z ENDP ; std::allocator<_VECINFO>::construct
_TEXT	ENDS
PUBLIC	??$_Destroy@U_VECINFO@@@std@@YAXPAU_VECINFO@@@Z	; std::_Destroy<_VECINFO>
; Function compile flags: /Ogty
;	COMDAT ??$_Destroy@U_VECINFO@@@std@@YAXPAU_VECINFO@@@Z
_TEXT	SEGMENT
__Ptr$ = 8						; size = 4
??$_Destroy@U_VECINFO@@@std@@YAXPAU_VECINFO@@@Z PROC NEAR ; std::_Destroy<_VECINFO>, COMDAT

; 49   : 	_DESTRUCTOR(_Ty, _Ptr);

  00000	8b 4c 24 04	 mov	 ecx, DWORD PTR __Ptr$[esp-4]
  00004	e9 00 00 00 00	 jmp	 ??1_VECINFO@@QAE@XZ
??$_Destroy@U_VECINFO@@@std@@YAXPAU_VECINFO@@@Z ENDP	; std::_Destroy<_VECINFO>
_TEXT	ENDS
PUBLIC	?_Tidy@?$basic_string@DU?$char_traits@D@std@@V?$allocator@D@2@@std@@IAEX_NI@Z ; std::basic_string<char,std::char_traits<char>,std::allocator<char> >::_Tidy
; Function compile flags: /Ogty
; File c:\program files\microsoft visual studio .net 2003\vc7\include\xstring
;	COMDAT ?_Tidy@?$basic_string@DU?$char_traits@D@std@@V?$allocator@D@2@@std@@IAEX_NI@Z
_TEXT	SEGMENT
__Built$ = 8						; size = 1
__Newsize$ = 12						; size = 4
?_Tidy@?$basic_string@DU?$char_traits@D@std@@V?$allocator@D@2@@std@@IAEX_NI@Z PROC NEAR ; std::basic_string<char,std::char_traits<char>,std::allocator<char> >::_Tidy, COMDAT
; _this$ = ecx

; 1510 : 		if (!_Built)

  00000	8a 44 24 04	 mov	 al, BYTE PTR __Built$[esp-4]
  00004	84 c0		 test	 al, al
  00006	53		 push	 ebx
  00007	55		 push	 ebp
  00008	8b 6c 24 10	 mov	 ebp, DWORD PTR __Newsize$[esp+4]
  0000c	8b d9		 mov	 ebx, ecx
  0000e	74 2f		 je	 SHORT $L231189

; 1511 : 			;
; 1512 : 		else if (_BUF_SIZE <= _Myres)

  00010	83 7b 18 10	 cmp	 DWORD PTR [ebx+24], 16	; 00000010H
  00014	72 29		 jb	 SHORT $L231189

; 1513 : 			{	// copy any leftovers to small buffer and deallocate
; 1514 : 			_Elem *_Ptr = _Bx._Ptr;
; 1515 : 			if (0 < _Newsize)

  00016	85 ed		 test	 ebp, ebp
  00018	8b 43 04	 mov	 eax, DWORD PTR [ebx+4]
  0001b	57		 push	 edi
  0001c	8d 7b 04	 lea	 edi, DWORD PTR [ebx+4]
  0001f	76 14		 jbe	 SHORT $L231186
  00021	56		 push	 esi

; 1516 : 				_Traits::copy(_Bx._Buf, _Ptr, _Newsize);

  00022	8b cd		 mov	 ecx, ebp
  00024	8b d1		 mov	 edx, ecx
  00026	c1 e9 02	 shr	 ecx, 2
  00029	8b f0		 mov	 esi, eax
  0002b	f3 a5		 rep movsd
  0002d	8b ca		 mov	 ecx, edx
  0002f	83 e1 03	 and	 ecx, 3
  00032	f3 a4		 rep movsb
  00034	5e		 pop	 esi
$L231186:

; 1517 : 			_Mybase::_Alval.deallocate(_Ptr, _Myres + 1);

  00035	50		 push	 eax
  00036	e8 00 00 00 00	 call	 ??3@YAXPAX@Z		; operator delete
  0003b	83 c4 04	 add	 esp, 4
  0003e	5f		 pop	 edi
$L231189:

; 1518 : 			}
; 1519 : 		_Myres = _BUF_SIZE - 1;
; 1520 : 		_Eos(_Newsize);

  0003f	89 6b 14	 mov	 DWORD PTR [ebx+20], ebp
  00042	c7 43 18 0f 00
	00 00		 mov	 DWORD PTR [ebx+24], 15	; 0000000fH
  00049	c6 44 2b 04 00	 mov	 BYTE PTR [ebx+ebp+4], 0
  0004e	5d		 pop	 ebp
  0004f	5b		 pop	 ebx

; 1521 : 		}

  00050	c2 08 00	 ret	 8
?_Tidy@?$basic_string@DU?$char_traits@D@std@@V?$allocator@D@2@@std@@IAEX_NI@Z ENDP ; std::basic_string<char,std::char_traits<char>,std::allocator<char> >::_Tidy
_TEXT	ENDS
PUBLIC	?erase@?$basic_string@DU?$char_traits@D@std@@V?$allocator@D@2@@std@@QAEAAV12@II@Z ; std::basic_string<char,std::char_traits<char>,std::allocator<char> >::erase
EXTRN	?_Xran@_String_base@std@@QBEXXZ:NEAR		; std::_String_base::_Xran
; Function compile flags: /Ogty
;	COMDAT ?erase@?$basic_string@DU?$char_traits@D@std@@V?$allocator@D@2@@std@@QAEAAV12@II@Z
_TEXT	SEGMENT
__Off$ = 8						; size = 4
__Count$ = 12						; size = 4
?erase@?$basic_string@DU?$char_traits@D@std@@V?$allocator@D@2@@std@@QAEAAV12@II@Z PROC NEAR ; std::basic_string<char,std::char_traits<char>,std::allocator<char> >::erase, COMDAT
; _this$ = ecx

; 792  : 		{	// erase elements [_Off, _Off + _Count)

  00000	55		 push	 ebp

; 793  : 		if (_Mysize < _Off)

  00001	8b 6c 24 08	 mov	 ebp, DWORD PTR __Off$[esp]
  00005	56		 push	 esi
  00006	8b f1		 mov	 esi, ecx
  00008	39 6e 14	 cmp	 DWORD PTR [esi+20], ebp
  0000b	57		 push	 edi
  0000c	73 05		 jae	 SHORT $L221371

; 794  : 			_String_base::_Xran();	// _Off off end

  0000e	e8 00 00 00 00	 call	 ?_Xran@_String_base@std@@QBEXXZ ; std::_String_base::_Xran
$L221371:

; 795  : 		if (_Mysize - _Off < _Count)

  00013	8b 46 14	 mov	 eax, DWORD PTR [esi+20]
  00016	8b 7c 24 14	 mov	 edi, DWORD PTR __Count$[esp+8]
  0001a	2b c5		 sub	 eax, ebp
  0001c	3b c7		 cmp	 eax, edi
  0001e	73 02		 jae	 SHORT $L221372

; 796  : 			_Count = _Mysize - _Off;	// trim _Count

  00020	8b f8		 mov	 edi, eax
$L221372:

; 797  : 		if (0 < _Count)

  00022	85 ff		 test	 edi, edi
  00024	76 47		 jbe	 SHORT $L231255

; 798  : 			{	// move elements down
; 799  : 			_Traits::move(_Myptr() + _Off, _Myptr() + _Off + _Count,
; 800  : 				_Mysize - _Off - _Count);

  00026	8b 4e 18	 mov	 ecx, DWORD PTR [esi+24]
  00029	83 f9 10	 cmp	 ecx, 16			; 00000010H
  0002c	53		 push	 ebx
  0002d	8d 5e 04	 lea	 ebx, DWORD PTR [esi+4]
  00030	72 04		 jb	 SHORT $L231221
  00032	8b 13		 mov	 edx, DWORD PTR [ebx]
  00034	eb 02		 jmp	 SHORT $L231222
$L231221:
  00036	8b d3		 mov	 edx, ebx
$L231222:
  00038	83 f9 10	 cmp	 ecx, 16			; 00000010H
  0003b	72 04		 jb	 SHORT $L231228
  0003d	8b 0b		 mov	 ecx, DWORD PTR [ebx]
  0003f	eb 02		 jmp	 SHORT $L231229
$L231228:
  00041	8b cb		 mov	 ecx, ebx
$L231229:
  00043	2b c7		 sub	 eax, edi

; 803  : 			}
; 804  : 		return (*this);

  00045	03 d5		 add	 edx, ebp
  00047	50		 push	 eax
  00048	03 d7		 add	 edx, edi
  0004a	52		 push	 edx
  0004b	03 cd		 add	 ecx, ebp
  0004d	51		 push	 ecx
  0004e	e8 00 00 00 00	 call	 _memmove
  00053	8b 46 14	 mov	 eax, DWORD PTR [esi+20]
  00056	8b 4e 18	 mov	 ecx, DWORD PTR [esi+24]
  00059	2b c7		 sub	 eax, edi
  0005b	83 c4 0c	 add	 esp, 12			; 0000000cH
  0005e	83 f9 10	 cmp	 ecx, 16			; 00000010H
  00061	89 46 14	 mov	 DWORD PTR [esi+20], eax
  00064	72 02		 jb	 SHORT $L231252

; 801  : 			size_type _Newsize = _Mysize - _Count;
; 802  : 			_Eos(_Newsize);

  00066	8b 1b		 mov	 ebx, DWORD PTR [ebx]
$L231252:
  00068	c6 04 03 00	 mov	 BYTE PTR [ebx+eax], 0
  0006c	5b		 pop	 ebx
$L231255:
  0006d	5f		 pop	 edi

; 803  : 			}
; 804  : 		return (*this);

  0006e	8b c6		 mov	 eax, esi
  00070	5e		 pop	 esi
  00071	5d		 pop	 ebp

; 805  : 		}

  00072	c2 08 00	 ret	 8
?erase@?$basic_string@DU?$char_traits@D@std@@V?$allocator@D@2@@std@@QAEAAV12@II@Z ENDP ; std::basic_string<char,std::char_traits<char>,std::allocator<char> >::erase
_TEXT	ENDS
PUBLIC	?begin@?$_Tree@V?$_Tmap_traits@KHU?$less@K@std@@V?$allocator@U?$pair@$$CBKH@std@@@2@$0A@@std@@@std@@QAE?AViterator@12@XZ ; std::_Tree<std::_Tmap_traits<unsigned long,int,std::less<unsigned long>,std::allocator<std::pair<unsigned long const ,int> >,0> >::begin
; Function compile flags: /Ogty
; File c:\program files\microsoft visual studio .net 2003\vc7\include\xtree
;	COMDAT ?begin@?$_Tree@V?$_Tmap_traits@KHU?$less@K@std@@V?$allocator@U?$pair@$$CBKH@std@@@2@$0A@@std@@@std@@QAE?AViterator@12@XZ
_TEXT	SEGMENT
___$ReturnUdt$ = 8					; size = 4
?begin@?$_Tree@V?$_Tmap_traits@KHU?$less@K@std@@V?$allocator@U?$pair@$$CBKH@std@@@2@$0A@@std@@@std@@QAE?AViterator@12@XZ PROC NEAR ; std::_Tree<std::_Tmap_traits<unsigned long,int,std::less<unsigned long>,std::allocator<std::pair<unsigned long const ,int> >,0> >::begin, COMDAT
; _this$ = ecx

; 408  : 		return (_TREE_ITERATOR(_Lmost()));

  00000	8b 41 04	 mov	 eax, DWORD PTR [ecx+4]
  00003	8b 08		 mov	 ecx, DWORD PTR [eax]
  00005	8b 44 24 04	 mov	 eax, DWORD PTR ___$ReturnUdt$[esp-4]
  00009	89 08		 mov	 DWORD PTR [eax], ecx

; 409  : 		}

  0000b	c2 04 00	 ret	 4
?begin@?$_Tree@V?$_Tmap_traits@KHU?$less@K@std@@V?$allocator@U?$pair@$$CBKH@std@@@2@$0A@@std@@@std@@QAE?AViterator@12@XZ ENDP ; std::_Tree<std::_Tmap_traits<unsigned long,int,std::less<unsigned long>,std::allocator<std::pair<unsigned long const ,int> >,0> >::begin
_TEXT	ENDS
PUBLIC	?end@?$_Tree@V?$_Tmap_traits@KHU?$less@K@std@@V?$allocator@U?$pair@$$CBKH@std@@@2@$0A@@std@@@std@@QAE?AViterator@12@XZ ; std::_Tree<std::_Tmap_traits<unsigned long,int,std::less<unsigned long>,std::allocator<std::pair<unsigned long const ,int> >,0> >::end
; Function compile flags: /Ogty
;	COMDAT ?end@?$_Tree@V?$_Tmap_traits@KHU?$less@K@std@@V?$allocator@U?$pair@$$CBKH@std@@@2@$0A@@std@@@std@@QAE?AViterator@12@XZ
_TEXT	SEGMENT
___$ReturnUdt$ = 8					; size = 4
?end@?$_Tree@V?$_Tmap_traits@KHU?$less@K@std@@V?$allocator@U?$pair@$$CBKH@std@@@2@$0A@@std@@@std@@QAE?AViterator@12@XZ PROC NEAR ; std::_Tree<std::_Tmap_traits<unsigned long,int,std::less<unsigned long>,std::allocator<std::pair<unsigned long const ,int> >,0> >::end, COMDAT
; _this$ = ecx

; 418  : 		return (_TREE_ITERATOR(_Myhead));

  00000	8b 49 04	 mov	 ecx, DWORD PTR [ecx+4]
  00003	8b 44 24 04	 mov	 eax, DWORD PTR ___$ReturnUdt$[esp-4]
  00007	89 08		 mov	 DWORD PTR [eax], ecx

; 419  : 		}

  00009	c2 04 00	 ret	 4
?end@?$_Tree@V?$_Tmap_traits@KHU?$less@K@std@@V?$allocator@U?$pair@$$CBKH@std@@@2@$0A@@std@@@std@@QAE?AViterator@12@XZ ENDP ; std::_Tree<std::_Tmap_traits<unsigned long,int,std::less<unsigned long>,std::allocator<std::pair<unsigned long const ,int> >,0> >::end
_TEXT	ENDS
PUBLIC	?_Copy@?$basic_string@DU?$char_traits@D@std@@V?$allocator@D@2@@std@@IAEXII@Z ; std::basic_string<char,std::char_traits<char>,std::allocator<char> >::_Copy
EXTRN	__except_list:DWORD
EXTRN	___CxxFrameHandler:NEAR
;	COMDAT xdata$x
; File c:\program files\microsoft visual studio .net 2003\vc7\include\iosfwd
xdata$x	SEGMENT
$T231493 DD	0ffffffffH
	DD	00H
	DD	0ffffffffH
	DD	00H
	DD	01H
	DD	00H
	DD	01H
	DD	00H
$T231495 DD	00H
	DD	00H
	DD	00H
	DD	FLAT:$L231295
$T231496 DD	00H
	DD	00H
	DD	00H
	DD	FLAT:$L231293
$T231494 DD	02H
	DD	02H
	DD	03H
	DD	01H
	DD	FLAT:$T231495
	DD	00H
	DD	00H
	DD	03H
	DD	01H
	DD	FLAT:$T231496
$T231487 DD	019930520H
	DD	04H
	DD	FLAT:$T231493
	DD	02H
	DD	FLAT:$T231494
	DD	2 DUP(00H)
; Function compile flags: /Ogty
; File c:\program files\microsoft visual studio .net 2003\vc7\include\xstring
xdata$x	ENDS
;	COMDAT ?_Copy@?$basic_string@DU?$char_traits@D@std@@V?$allocator@D@2@@std@@IAEXII@Z
_TEXT	SEGMENT
__Newres$ = -24						; size = 4
_this$ = -20						; size = 4
__$EHRec$ = -16						; size = 16
__Ptr$ = 8						; size = 4
__Newsize$ = 8						; size = 4
__Oldlen$ = 12						; size = 4
?_Copy@?$basic_string@DU?$char_traits@D@std@@V?$allocator@D@2@@std@@IAEXII@Z PROC NEAR ; std::basic_string<char,std::char_traits<char>,std::allocator<char> >::_Copy, COMDAT
; _this$ = ecx

; 1444 : 		{	// copy _Oldlen elements to newly allocated buffer

  00000	55		 push	 ebp
  00001	8b ec		 mov	 ebp, esp
  00003	6a ff		 push	 -1
  00005	68 00 00 00 00	 push	 __ehhandler$?_Copy@?$basic_string@DU?$char_traits@D@std@@V?$allocator@D@2@@std@@IAEXII@Z
  0000a	64 a1 00 00 00
	00		 mov	 eax, DWORD PTR fs:__except_list
  00010	50		 push	 eax
  00011	64 89 25 00 00
	00 00		 mov	 DWORD PTR fs:__except_list, esp
  00018	83 ec 0c	 sub	 esp, 12			; 0000000cH

; 1445 : 		size_type _Newres = _Newsize | _ALLOC_MASK;

  0001b	8b 45 08	 mov	 eax, DWORD PTR __Newsize$[ebp]
  0001e	53		 push	 ebx
  0001f	56		 push	 esi
  00020	8b d8		 mov	 ebx, eax
  00022	83 cb 0f	 or	 ebx, 15			; 0000000fH

; 1446 : 		if (max_size() < _Newres)

  00025	83 fb fe	 cmp	 ebx, -2			; fffffffeH
  00028	57		 push	 edi
  00029	8b f1		 mov	 esi, ecx
  0002b	89 65 f0	 mov	 DWORD PTR __$EHRec$[ebp], esp
  0002e	89 75 ec	 mov	 DWORD PTR _this$[ebp], esi
  00031	76 04		 jbe	 SHORT $L222778

; 1447 : 			_Newres = _Newsize;	// undo roundup if too big

  00033	8b d8		 mov	 ebx, eax

; 1448 : 		else if (_Newres / 3 < _Myres / 2

  00035	eb 22		 jmp	 SHORT $L222780
$L222778:

; 1449 : 			&& _Myres <= max_size() - _Myres / 2)

  00037	8b 7e 18	 mov	 edi, DWORD PTR [esi+24]
  0003a	b8 ab aa aa aa	 mov	 eax, -1431655765	; aaaaaaabH
  0003f	f7 e3		 mul	 ebx
  00041	8b cf		 mov	 ecx, edi
  00043	d1 e9		 shr	 ecx, 1
  00045	d1 ea		 shr	 edx, 1
  00047	3b d1		 cmp	 edx, ecx
  00049	73 0e		 jae	 SHORT $L222780
  0004b	b8 fe ff ff ff	 mov	 eax, -2			; fffffffeH
  00050	2b c1		 sub	 eax, ecx
  00052	3b f8		 cmp	 edi, eax
  00054	77 03		 ja	 SHORT $L222780

; 1450 : 			_Newres = _Myres + _Myres / 2;	// grow exponentially if possible

  00056	8d 1c 39	 lea	 ebx, DWORD PTR [ecx+edi]
$L222780:

; 1451 : 		_Elem *_Ptr;
; 1452 : 
; 1453 : 		_TRY_BEGIN
; 1454 : 			_Ptr = _Mybase::_Alval.allocate(_Newres + 1);

  00059	8d 4b 01	 lea	 ecx, DWORD PTR [ebx+1]
  0005c	51		 push	 ecx
  0005d	c7 45 fc 00 00
	00 00		 mov	 DWORD PTR __$EHRec$[ebp+12], 0
  00064	e8 00 00 00 00	 call	 ??2@YAPAXI@Z		; operator new
  00069	8b d0		 mov	 edx, eax
  0006b	83 c4 04	 add	 esp, 4
  0006e	89 55 08	 mov	 DWORD PTR __Ptr$[ebp], edx
  00071	eb 29		 jmp	 SHORT $L222782
$L231293:

; 1455 : 		_CATCH_ALL
; 1456 : 			_Newres = _Newsize;	// allocation failed, undo roundup and retry

  00073	8b 45 08	 mov	 eax, DWORD PTR __Newsize$[ebp]
  00076	89 45 e8	 mov	 DWORD PTR __Newres$[ebp], eax

; 1457 : 			_TRY_BEGIN
; 1458 : 				_Ptr = _Mybase::_Alval.allocate(_Newres + 1);

  00079	40		 inc	 eax
  0007a	89 65 f0	 mov	 DWORD PTR __$EHRec$[ebp], esp
  0007d	50		 push	 eax
  0007e	c6 45 fc 02	 mov	 BYTE PTR __$EHRec$[ebp+12], 2
  00082	e8 00 00 00 00	 call	 ??2@YAPAXI@Z		; operator new
  00087	89 45 08	 mov	 DWORD PTR __Ptr$[ebp], eax
  0008a	83 c4 04	 add	 esp, 4

; 1462 : 			_CATCH_END
; 1463 : 		_CATCH_END

  0008d	b8 00 00 00 00	 mov	 eax, $L231488
  00092	c3		 ret	 0
$L231488:
  00093	8b 5d e8	 mov	 ebx, DWORD PTR __Newres$[ebp]
  00096	8b 75 ec	 mov	 esi, DWORD PTR _this$[ebp]
  00099	8b 55 08	 mov	 edx, DWORD PTR __Ptr$[ebp]
$L222782:

; 1464 : 
; 1465 : 		if (0 < _Oldlen)

  0009c	8b 4d 0c	 mov	 ecx, DWORD PTR __Oldlen$[ebp]
  0009f	85 c9		 test	 ecx, ecx
  000a1	76 24		 jbe	 SHORT $L231412

; 1466 : 			_Traits::copy(_Ptr, _Myptr(), _Oldlen);	// copy existing elements

  000a3	83 7e 18 10	 cmp	 DWORD PTR [esi+24], 16	; 00000010H
  000a7	72 05		 jb	 SHORT $L231409
  000a9	8b 76 04	 mov	 esi, DWORD PTR [esi+4]
  000ac	eb 03		 jmp	 SHORT $L231410
$L231409:
  000ae	83 c6 04	 add	 esi, 4
$L231410:
  000b1	8b c1		 mov	 eax, ecx
  000b3	c1 e9 02	 shr	 ecx, 2
  000b6	8b fa		 mov	 edi, edx
  000b8	f3 a5		 rep movsd
  000ba	8b c8		 mov	 ecx, eax
  000bc	83 e1 03	 and	 ecx, 3
  000bf	f3 a4		 rep movsb
  000c1	8b 75 ec	 mov	 esi, DWORD PTR _this$[ebp]
  000c4	8b 4d 0c	 mov	 ecx, DWORD PTR __Oldlen$[ebp]
$L231412:

; 1467 : 		_Tidy(true);

  000c7	83 7e 18 10	 cmp	 DWORD PTR [esi+24], 16	; 00000010H
  000cb	72 12		 jb	 SHORT $L231463
  000cd	8b 4e 04	 mov	 ecx, DWORD PTR [esi+4]
  000d0	51		 push	 ecx
  000d1	e8 00 00 00 00	 call	 ??3@YAXPAX@Z		; operator delete
  000d6	8b 55 08	 mov	 edx, DWORD PTR __Ptr$[ebp]
  000d9	8b 4d 0c	 mov	 ecx, DWORD PTR __Oldlen$[ebp]
  000dc	83 c4 04	 add	 esp, 4
$L231463:

; 1468 : 		_Bx._Ptr = _Ptr;
; 1469 : 		_Myres = _Newres;
; 1470 : 		_Eos(_Oldlen);

  000df	83 fb 10	 cmp	 ebx, 16			; 00000010H
  000e2	8d 46 04	 lea	 eax, DWORD PTR [esi+4]
  000e5	c6 00 00	 mov	 BYTE PTR [eax], 0
  000e8	89 10		 mov	 DWORD PTR [eax], edx
  000ea	89 5e 18	 mov	 DWORD PTR [esi+24], ebx
  000ed	89 4e 14	 mov	 DWORD PTR [esi+20], ecx
  000f0	72 02		 jb	 SHORT $L231481
  000f2	8b c2		 mov	 eax, edx
$L231481:

; 1471 : 		}

  000f4	5f		 pop	 edi
  000f5	c6 04 08 00	 mov	 BYTE PTR [eax+ecx], 0
  000f9	8b 4d f4	 mov	 ecx, DWORD PTR __$EHRec$[ebp+4]
  000fc	5e		 pop	 esi
  000fd	64 89 0d 00 00
	00 00		 mov	 DWORD PTR fs:__except_list, ecx
  00104	5b		 pop	 ebx
  00105	8b e5		 mov	 esp, ebp
  00107	5d		 pop	 ebp
  00108	c2 08 00	 ret	 8
$L231295:

; 1459 : 			_CATCH_ALL
; 1460 : 			_Tidy(true);	// failed again, discard storage and reraise

  0010b	8b 75 ec	 mov	 esi, DWORD PTR _this$[ebp]
  0010e	83 7e 18 10	 cmp	 DWORD PTR [esi+24], 16	; 00000010H
  00112	72 0c		 jb	 SHORT $L231387
  00114	8b 56 04	 mov	 edx, DWORD PTR [esi+4]
  00117	52		 push	 edx
  00118	e8 00 00 00 00	 call	 ??3@YAXPAX@Z		; operator delete
  0011d	83 c4 04	 add	 esp, 4
$L231387:

; 1461 : 			_RERAISE;

  00120	6a 00		 push	 0
  00122	c7 46 18 0f 00
	00 00		 mov	 DWORD PTR [esi+24], 15	; 0000000fH
  00129	c7 46 14 00 00
	00 00		 mov	 DWORD PTR [esi+20], 0
  00130	6a 00		 push	 0
  00132	c6 46 04 00	 mov	 BYTE PTR [esi+4], 0
  00136	e8 00 00 00 00	 call	 __CxxThrowException@8
$L231498:
$L231492:
  0013b	cc		 int	 3
_TEXT	ENDS
;	COMDAT text$x
text$x	SEGMENT
__ehhandler$?_Copy@?$basic_string@DU?$char_traits@D@std@@V?$allocator@D@2@@std@@IAEXII@Z:
  00000	b8 00 00 00 00	 mov	 eax, OFFSET FLAT:$T231487
  00005	e9 00 00 00 00	 jmp	 ___CxxFrameHandler
text$x	ENDS
?_Copy@?$basic_string@DU?$char_traits@D@std@@V?$allocator@D@2@@std@@IAEXII@Z ENDP ; std::basic_string<char,std::char_traits<char>,std::allocator<char> >::_Copy
PUBLIC	?_Erase@?$_Tree@V?$_Tmap_traits@KHU?$less@K@std@@V?$allocator@U?$pair@$$CBKH@std@@@2@$0A@@std@@@std@@IAEXPAU_Node@?$_Tree_nod@V?$_Tmap_traits@KHU?$less@K@std@@V?$allocator@U?$pair@$$CBKH@std@@@2@$0A@@std@@@2@@Z ; std::_Tree<std::_Tmap_traits<unsigned long,int,std::less<unsigned long>,std::allocator<std::pair<unsigned long const ,int> >,0> >::_Erase
; Function compile flags: /Ogty
; File c:\program files\microsoft visual studio .net 2003\vc7\include\xtree
;	COMDAT ?_Erase@?$_Tree@V?$_Tmap_traits@KHU?$less@K@std@@V?$allocator@U?$pair@$$CBKH@std@@@2@$0A@@std@@@std@@IAEXPAU_Node@?$_Tree_nod@V?$_Tmap_traits@KHU?$less@K@std@@V?$allocator@U?$pair@$$CBKH@std@@@2@$0A@@std@@@2@@Z
_TEXT	SEGMENT
__Rootnode$ = 8						; size = 4
?_Erase@?$_Tree@V?$_Tmap_traits@KHU?$less@K@std@@V?$allocator@U?$pair@$$CBKH@std@@@2@$0A@@std@@@std@@IAEXPAU_Node@?$_Tree_nod@V?$_Tmap_traits@KHU?$less@K@std@@V?$allocator@U?$pair@$$CBKH@std@@@2@$0A@@std@@@2@@Z PROC NEAR ; std::_Tree<std::_Tmap_traits<unsigned long,int,std::less<unsigned long>,std::allocator<std::pair<unsigned long const ,int> >,0> >::_Erase, COMDAT
; _this$ = ecx

; 890  : 		{	// free entire subtree, recursively

  00000	53		 push	 ebx
  00001	56		 push	 esi
  00002	57		 push	 edi

; 891  : 		for (_Nodeptr _Pnode = _Rootnode; !_Isnil(_Pnode); _Rootnode = _Pnode)

  00003	8b 7c 24 10	 mov	 edi, DWORD PTR __Rootnode$[esp+8]
  00007	8a 47 15	 mov	 al, BYTE PTR [edi+21]
  0000a	84 c0		 test	 al, al
  0000c	8b d9		 mov	 ebx, ecx
  0000e	8b f7		 mov	 esi, edi
  00010	75 1f		 jne	 SHORT $L223695
$L223693:

; 892  : 			{	// free subtrees, then node
; 893  : 			_Erase(_Right(_Pnode));

  00012	8b 46 08	 mov	 eax, DWORD PTR [esi+8]
  00015	50		 push	 eax
  00016	8b cb		 mov	 ecx, ebx
  00018	e8 00 00 00 00	 call	 ?_Erase@?$_Tree@V?$_Tmap_traits@KHU?$less@K@std@@V?$allocator@U?$pair@$$CBKH@std@@@2@$0A@@std@@@std@@IAEXPAU_Node@?$_Tree_nod@V?$_Tmap_traits@KHU?$less@K@std@@V?$allocator@U?$pair@$$CBKH@std@@@2@$0A@@std@@@2@@Z ; std::_Tree<std::_Tmap_traits<unsigned long,int,std::less<unsigned long>,std::allocator<std::pair<unsigned long const ,int> >,0> >::_Erase

; 894  : 			_Pnode = _Left(_Pnode);

  0001d	8b 36		 mov	 esi, DWORD PTR [esi]

; 895  : 			this->_Alnod.destroy(_Rootnode);	// destroy, free erased node
; 896  : 			this->_Alnod.deallocate(_Rootnode, 1);

  0001f	57		 push	 edi
  00020	e8 00 00 00 00	 call	 ??3@YAXPAX@Z		; operator delete
  00025	8a 46 15	 mov	 al, BYTE PTR [esi+21]
  00028	83 c4 04	 add	 esp, 4
  0002b	84 c0		 test	 al, al
  0002d	8b fe		 mov	 edi, esi
  0002f	74 e1		 je	 SHORT $L223693
$L223695:
  00031	5f		 pop	 edi
  00032	5e		 pop	 esi
  00033	5b		 pop	 ebx

; 897  : 			}
; 898  : 		}

  00034	c2 04 00	 ret	 4
?_Erase@?$_Tree@V?$_Tmap_traits@KHU?$less@K@std@@V?$allocator@U?$pair@$$CBKH@std@@@2@$0A@@std@@@std@@IAEXPAU_Node@?$_Tree_nod@V?$_Tmap_traits@KHU?$less@K@std@@V?$allocator@U?$pair@$$CBKH@std@@@2@$0A@@std@@@2@@Z ENDP ; std::_Tree<std::_Tmap_traits<unsigned long,int,std::less<unsigned long>,std::allocator<std::pair<unsigned long const ,int> >,0> >::_Erase
_TEXT	ENDS
PUBLIC	??Eiterator@?$_Tree@V?$_Tmap_traits@KHU?$less@K@std@@V?$allocator@U?$pair@$$CBKH@std@@@2@$0A@@std@@@std@@QAEAAV012@XZ ; std::_Tree<std::_Tmap_traits<unsigned long,int,std::less<unsigned long>,std::allocator<std::pair<unsigned long const ,int> >,0> >::iterator::operator++
; Function compile flags: /Ogty
;	COMDAT ??Eiterator@?$_Tree@V?$_Tmap_traits@KHU?$less@K@std@@V?$allocator@U?$pair@$$CBKH@std@@@2@$0A@@std@@@std@@QAEAAV012@XZ
_TEXT	SEGMENT
??Eiterator@?$_Tree@V?$_Tmap_traits@KHU?$less@K@std@@V?$allocator@U?$pair@$$CBKH@std@@@2@$0A@@std@@@std@@QAEAAV012@XZ PROC NEAR ; std::_Tree<std::_Tmap_traits<unsigned long,int,std::less<unsigned long>,std::allocator<std::pair<unsigned long const ,int> >,0> >::iterator::operator++, COMDAT
; _this$ = ecx

; 326  : 			{	// preincrement

  00000	56		 push	 esi
  00001	8b f1		 mov	 esi, ecx

; 327  : 			++(*(const_iterator *)this);

  00003	e8 00 00 00 00	 call	 ?_Inc@const_iterator@?$_Tree@V?$_Tmap_traits@KHU?$less@K@std@@V?$allocator@U?$pair@$$CBKH@std@@@2@$0A@@std@@@std@@QAEXXZ ; std::_Tree<std::_Tmap_traits<unsigned long,int,std::less<unsigned long>,std::allocator<std::pair<unsigned long const ,int> >,0> >::const_iterator::_Inc

; 328  : 			return (*this);

  00008	8b c6		 mov	 eax, esi
  0000a	5e		 pop	 esi

; 329  : 			}

  0000b	c3		 ret	 0
??Eiterator@?$_Tree@V?$_Tmap_traits@KHU?$less@K@std@@V?$allocator@U?$pair@$$CBKH@std@@@2@$0A@@std@@@std@@QAEAAV012@XZ ENDP ; std::_Tree<std::_Tmap_traits<unsigned long,int,std::less<unsigned long>,std::allocator<std::pair<unsigned long const ,int> >,0> >::iterator::operator++
_TEXT	ENDS
PUBLIC	??$_Destroy_range@UD3DXVECTOR3@@V?$allocator@UD3DXVECTOR3@@@std@@@std@@YAXPAUD3DXVECTOR3@@0AAV?$allocator@UD3DXVECTOR3@@@0@@Z ; std::_Destroy_range<D3DXVECTOR3,std::allocator<D3DXVECTOR3> >
; Function compile flags: /Ogty
; File c:\program files\microsoft visual studio .net 2003\vc7\include\xmemory
;	COMDAT ??$_Destroy_range@UD3DXVECTOR3@@V?$allocator@UD3DXVECTOR3@@@std@@@std@@YAXPAUD3DXVECTOR3@@0AAV?$allocator@UD3DXVECTOR3@@@0@@Z
_TEXT	SEGMENT
__First$ = 8						; size = 4
__Last$ = 12						; size = 4
__Al$ = 16						; size = 4
??$_Destroy_range@UD3DXVECTOR3@@V?$allocator@UD3DXVECTOR3@@@std@@@std@@YAXPAUD3DXVECTOR3@@0AAV?$allocator@UD3DXVECTOR3@@@0@@Z PROC NEAR ; std::_Destroy_range<D3DXVECTOR3,std::allocator<D3DXVECTOR3> >, COMDAT

; 217  : 	_Destroy_range(_First, _Last, _Al, _Ptr_cat(_First, _Last));
; 218  : 	}

  00000	c3		 ret	 0
??$_Destroy_range@UD3DXVECTOR3@@V?$allocator@UD3DXVECTOR3@@@std@@@std@@YAXPAUD3DXVECTOR3@@0AAV?$allocator@UD3DXVECTOR3@@@0@@Z ENDP ; std::_Destroy_range<D3DXVECTOR3,std::allocator<D3DXVECTOR3> >
_TEXT	ENDS
PUBLIC	??A?$vector@UD3DXVECTOR3@@V?$allocator@UD3DXVECTOR3@@@std@@@std@@QAEAAUD3DXVECTOR3@@I@Z ; std::vector<D3DXVECTOR3,std::allocator<D3DXVECTOR3> >::operator[]
; Function compile flags: /Ogty
; File c:\program files\microsoft visual studio .net 2003\vc7\include\vector
;	COMDAT ??A?$vector@UD3DXVECTOR3@@V?$allocator@UD3DXVECTOR3@@@std@@@std@@QAEAAUD3DXVECTOR3@@I@Z
_TEXT	SEGMENT
__Pos$ = 8						; size = 4
??A?$vector@UD3DXVECTOR3@@V?$allocator@UD3DXVECTOR3@@@std@@@std@@QAEAAUD3DXVECTOR3@@I@Z PROC NEAR ; std::vector<D3DXVECTOR3,std::allocator<D3DXVECTOR3> >::operator[], COMDAT
; _this$ = ecx

; 555  : 		return (*(begin() + _Pos));

  00000	8b 44 24 04	 mov	 eax, DWORD PTR __Pos$[esp-4]
  00004	8b 49 04	 mov	 ecx, DWORD PTR [ecx+4]
  00007	8d 04 40	 lea	 eax, DWORD PTR [eax+eax*2]
  0000a	8d 04 81	 lea	 eax, DWORD PTR [ecx+eax*4]

; 556  : 		}

  0000d	c2 04 00	 ret	 4
??A?$vector@UD3DXVECTOR3@@V?$allocator@UD3DXVECTOR3@@@std@@@std@@QAEAAUD3DXVECTOR3@@I@Z ENDP ; std::vector<D3DXVECTOR3,std::allocator<D3DXVECTOR3> >::operator[]
_TEXT	ENDS
PUBLIC	?find@?$_Tree@V?$_Tmap_traits@KV?$vector@U_VECINFO@@V?$allocator@U_VECINFO@@@std@@@std@@U?$less@K@2@V?$allocator@U?$pair@$$CBKV?$vector@U_VECINFO@@V?$allocator@U_VECINFO@@@std@@@std@@@std@@@2@$0A@@std@@@std@@QAE?AViterator@12@ABK@Z ; std::_Tree<std::_Tmap_traits<unsigned long,std::vector<_VECINFO,std::allocator<_VECINFO> >,std::less<unsigned long>,std::allocator<std::pair<unsigned long const ,std::vector<_VECINFO,std::allocator<_VECINFO> > > >,0> >::find
; Function compile flags: /Ogty
; File c:\program files\microsoft visual studio .net 2003\vc7\include\xtree
;	COMDAT ?find@?$_Tree@V?$_Tmap_traits@KV?$vector@U_VECINFO@@V?$allocator@U_VECINFO@@@std@@@std@@U?$less@K@2@V?$allocator@U?$pair@$$CBKV?$vector@U_VECINFO@@V?$allocator@U_VECINFO@@@std@@@std@@@std@@@2@$0A@@std@@@std@@QAE?AViterator@12@ABK@Z
_TEXT	SEGMENT
$T231575 = -4						; size = 4
___$ReturnUdt$ = 8					; size = 4
__Where$ = 12						; size = 4
__Keyval$ = 12						; size = 4
?find@?$_Tree@V?$_Tmap_traits@KV?$vector@U_VECINFO@@V?$allocator@U_VECINFO@@@std@@@std@@U?$less@K@2@V?$allocator@U?$pair@$$CBKV?$vector@U_VECINFO@@V?$allocator@U_VECINFO@@@std@@@std@@@std@@@2@$0A@@std@@@std@@QAE?AViterator@12@ABK@Z PROC NEAR ; std::_Tree<std::_Tmap_traits<unsigned long,std::vector<_VECINFO,std::allocator<_VECINFO> >,std::less<unsigned long>,std::allocator<std::pair<unsigned long const ,std::vector<_VECINFO,std::allocator<_VECINFO> > > >,0> >::find, COMDAT
; _this$ = ecx

; 787  : 		{	// find an element in mutable sequence that matches _Keyval

  00000	51		 push	 ecx

; 788  : 		iterator _Where = lower_bound(_Keyval);

  00001	8b 51 04	 mov	 edx, DWORD PTR [ecx+4]
  00004	8b 42 04	 mov	 eax, DWORD PTR [edx+4]
  00007	53		 push	 ebx
  00008	8a 58 21	 mov	 bl, BYTE PTR [eax+33]
  0000b	84 db		 test	 bl, bl
  0000d	56		 push	 esi
  0000e	57		 push	 edi
  0000f	8b 7c 24 18	 mov	 edi, DWORD PTR __Keyval$[esp+12]
  00013	75 17		 jne	 SHORT $L231670
  00015	8b 37		 mov	 esi, DWORD PTR [edi]
$L231669:
  00017	39 70 0c	 cmp	 DWORD PTR [eax+12], esi
  0001a	73 05		 jae	 SHORT $L231671
  0001c	8b 40 08	 mov	 eax, DWORD PTR [eax+8]
  0001f	eb 04		 jmp	 SHORT $L231672
$L231671:
  00021	8b d0		 mov	 edx, eax
  00023	8b 00		 mov	 eax, DWORD PTR [eax]
$L231672:
  00025	8a 58 21	 mov	 bl, BYTE PTR [eax+33]
  00028	84 db		 test	 bl, bl
  0002a	74 eb		 je	 SHORT $L231669
$L231670:

; 789  : 		return (_Where == end() || this->comp(_Keyval, _Key(_Where._Mynode()))
; 790  : 			? end() : _Where);

  0002c	8b 41 04	 mov	 eax, DWORD PTR [ecx+4]
  0002f	3b d0		 cmp	 edx, eax
  00031	89 54 24 18	 mov	 DWORD PTR __Where$[esp+12], edx
  00035	74 1a		 je	 SHORT $L231574
  00037	8b 0f		 mov	 ecx, DWORD PTR [edi]
  00039	3b 4a 0c	 cmp	 ecx, DWORD PTR [edx+12]
  0003c	72 13		 jb	 SHORT $L231574
  0003e	8d 44 24 18	 lea	 eax, DWORD PTR __Where$[esp+12]
  00042	8b 10		 mov	 edx, DWORD PTR [eax]
  00044	8b 44 24 14	 mov	 eax, DWORD PTR ___$ReturnUdt$[esp+12]
  00048	5f		 pop	 edi
  00049	5e		 pop	 esi
  0004a	89 10		 mov	 DWORD PTR [eax], edx
  0004c	5b		 pop	 ebx

; 791  : 		}

  0004d	59		 pop	 ecx
  0004e	c2 08 00	 ret	 8
$L231574:

; 789  : 		return (_Where == end() || this->comp(_Keyval, _Key(_Where._Mynode()))
; 790  : 			? end() : _Where);

  00051	89 44 24 0c	 mov	 DWORD PTR $T231575[esp+16], eax
  00055	8d 44 24 0c	 lea	 eax, DWORD PTR $T231575[esp+16]
  00059	8b 10		 mov	 edx, DWORD PTR [eax]
  0005b	8b 44 24 14	 mov	 eax, DWORD PTR ___$ReturnUdt$[esp+12]
  0005f	5f		 pop	 edi
  00060	5e		 pop	 esi
  00061	89 10		 mov	 DWORD PTR [eax], edx
  00063	5b		 pop	 ebx

; 791  : 		}

  00064	59		 pop	 ecx
  00065	c2 08 00	 ret	 8
?find@?$_Tree@V?$_Tmap_traits@KV?$vector@U_VECINFO@@V?$allocator@U_VECINFO@@@std@@@std@@U?$less@K@2@V?$allocator@U?$pair@$$CBKV?$vector@U_VECINFO@@V?$allocator@U_VECINFO@@@std@@@std@@@std@@@2@$0A@@std@@@std@@QAE?AViterator@12@ABK@Z ENDP ; std::_Tree<std::_Tmap_traits<unsigned long,std::vector<_VECINFO,std::allocator<_VECINFO> >,std::less<unsigned long>,std::allocator<std::pair<unsigned long const ,std::vector<_VECINFO,std::allocator<_VECINFO> > > >,0> >::find
_TEXT	ENDS
PUBLIC	??Fiterator@?$_Tree@V?$_Tmap_traits@KV?$vector@U_VECINFO@@V?$allocator@U_VECINFO@@@std@@@std@@U?$less@K@2@V?$allocator@U?$pair@$$CBKV?$vector@U_VECINFO@@V?$allocator@U_VECINFO@@@std@@@std@@@std@@@2@$0A@@std@@@std@@QAEAAV012@XZ ; std::_Tree<std::_Tmap_traits<unsigned long,std::vector<_VECINFO,std::allocator<_VECINFO> >,std::less<unsigned long>,std::allocator<std::pair<unsigned long const ,std::vector<_VECINFO,std::allocator<_VECINFO> > > >,0> >::iterator::operator--
; Function compile flags: /Ogty
;	COMDAT ??Fiterator@?$_Tree@V?$_Tmap_traits@KV?$vector@U_VECINFO@@V?$allocator@U_VECINFO@@@std@@@std@@U?$less@K@2@V?$allocator@U?$pair@$$CBKV?$vector@U_VECINFO@@V?$allocator@U_VECINFO@@@std@@@std@@@std@@@2@$0A@@std@@@std@@QAEAAV012@XZ
_TEXT	SEGMENT
??Fiterator@?$_Tree@V?$_Tmap_traits@KV?$vector@U_VECINFO@@V?$allocator@U_VECINFO@@@std@@@std@@U?$less@K@2@V?$allocator@U?$pair@$$CBKV?$vector@U_VECINFO@@V?$allocator@U_VECINFO@@@std@@@std@@@std@@@2@$0A@@std@@@std@@QAEAAV012@XZ PROC NEAR ; std::_Tree<std::_Tmap_traits<unsigned long,std::vector<_VECINFO,std::allocator<_VECINFO> >,std::less<unsigned long>,std::allocator<std::pair<unsigned long const ,std::vector<_VECINFO,std::allocator<_VECINFO> > > >,0> >::iterator::operator--, COMDAT
; _this$ = ecx

; 339  : 			{	// predecrement

  00000	56		 push	 esi
  00001	8b f1		 mov	 esi, ecx

; 340  : 			--(*(const_iterator *)this);

  00003	e8 00 00 00 00	 call	 ?_Dec@const_iterator@?$_Tree@V?$_Tmap_traits@KV?$vector@U_VECINFO@@V?$allocator@U_VECINFO@@@std@@@std@@U?$less@K@2@V?$allocator@U?$pair@$$CBKV?$vector@U_VECINFO@@V?$allocator@U_VECINFO@@@std@@@std@@@std@@@2@$0A@@std@@@std@@QAEXXZ ; std::_Tree<std::_Tmap_traits<unsigned long,std::vector<_VECINFO,std::allocator<_VECINFO> >,std::less<unsigned long>,std::allocator<std::pair<unsigned long const ,std::vector<_VECINFO,std::allocator<_VECINFO> > > >,0> >::const_iterator::_Dec

; 341  : 			return (*this);

  00008	8b c6		 mov	 eax, esi
  0000a	5e		 pop	 esi

; 342  : 			}

  0000b	c3		 ret	 0
??Fiterator@?$_Tree@V?$_Tmap_traits@KV?$vector@U_VECINFO@@V?$allocator@U_VECINFO@@@std@@@std@@U?$less@K@2@V?$allocator@U?$pair@$$CBKV?$vector@U_VECINFO@@V?$allocator@U_VECINFO@@@std@@@std@@@std@@@2@$0A@@std@@@std@@QAEAAV012@XZ ENDP ; std::_Tree<std::_Tmap_traits<unsigned long,std::vector<_VECINFO,std::allocator<_VECINFO> >,std::less<unsigned long>,std::allocator<std::pair<unsigned long const ,std::vector<_VECINFO,std::allocator<_VECINFO> > > >,0> >::iterator::operator--
_TEXT	ENDS
PUBLIC	?_Init@?$_Tree@V?$_Tmap_traits@KHU?$less@K@std@@V?$allocator@U?$pair@$$CBKH@std@@@2@$0A@@std@@@std@@IAEXXZ ; std::_Tree<std::_Tmap_traits<unsigned long,int,std::less<unsigned long>,std::allocator<std::pair<unsigned long const ,int> >,0> >::_Init
; Function compile flags: /Ogty
;	COMDAT ?_Init@?$_Tree@V?$_Tmap_traits@KHU?$less@K@std@@V?$allocator@U?$pair@$$CBKH@std@@@2@$0A@@std@@@std@@IAEXXZ
_TEXT	SEGMENT
?_Init@?$_Tree@V?$_Tmap_traits@KHU?$less@K@std@@V?$allocator@U?$pair@$$CBKH@std@@@2@$0A@@std@@@std@@IAEXXZ PROC NEAR ; std::_Tree<std::_Tmap_traits<unsigned long,int,std::less<unsigned long>,std::allocator<std::pair<unsigned long const ,int> >,0> >::_Init, COMDAT
; _this$ = ecx

; 901  : 		{	// create head/nil node and make tree empty

  00000	56		 push	 esi
  00001	8b f1		 mov	 esi, ecx

; 902  : 		_Myhead = _Buynode();

  00003	e8 00 00 00 00	 call	 ?_Buynode@?$_Tree@V?$_Tmap_traits@KHU?$less@K@std@@V?$allocator@U?$pair@$$CBKH@std@@@2@$0A@@std@@@std@@IAEPAU_Node@?$_Tree_nod@V?$_Tmap_traits@KHU?$less@K@std@@V?$allocator@U?$pair@$$CBKH@std@@@2@$0A@@std@@@2@XZ ; std::_Tree<std::_Tmap_traits<unsigned long,int,std::less<unsigned long>,std::allocator<std::pair<unsigned long const ,int> >,0> >::_Buynode
  00008	89 46 04	 mov	 DWORD PTR [esi+4], eax

; 903  : 		_Isnil(_Myhead) = true;

  0000b	c6 40 15 01	 mov	 BYTE PTR [eax+21], 1

; 904  : 		_Root() = _Myhead;

  0000f	8b 46 04	 mov	 eax, DWORD PTR [esi+4]
  00012	89 40 04	 mov	 DWORD PTR [eax+4], eax

; 905  : 		_Lmost() = _Myhead, _Rmost() = _Myhead;

  00015	8b 46 04	 mov	 eax, DWORD PTR [esi+4]
  00018	89 00		 mov	 DWORD PTR [eax], eax
  0001a	8b 46 04	 mov	 eax, DWORD PTR [esi+4]
  0001d	89 40 08	 mov	 DWORD PTR [eax+8], eax

; 906  : 		_Mysize = 0;

  00020	c7 46 08 00 00
	00 00		 mov	 DWORD PTR [esi+8], 0
  00027	5e		 pop	 esi

; 907  : 		}

  00028	c3		 ret	 0
?_Init@?$_Tree@V?$_Tmap_traits@KHU?$less@K@std@@V?$allocator@U?$pair@$$CBKH@std@@@2@$0A@@std@@@std@@IAEXXZ ENDP ; std::_Tree<std::_Tmap_traits<unsigned long,int,std::less<unsigned long>,std::allocator<std::pair<unsigned long const ,int> >,0> >::_Init
_TEXT	ENDS
PUBLIC	??0?$_Tree_val@V?$_Tmap_traits@KHU?$less@K@std@@V?$allocator@U?$pair@$$CBKH@std@@@2@$0A@@std@@@std@@IAE@ABU?$less@K@1@V?$allocator@U?$pair@$$CBKH@std@@@1@@Z ; std::_Tree_val<std::_Tmap_traits<unsigned long,int,std::less<unsigned long>,std::allocator<std::pair<unsigned long const ,int> >,0> >::_Tree_val<std::_Tmap_traits<unsigned long,int,std::less<unsigned long>,std::allocator<std::pair<unsigned long const ,int> >,0> >
; Function compile flags: /Ogty
;	COMDAT ??0?$_Tree_val@V?$_Tmap_traits@KHU?$less@K@std@@V?$allocator@U?$pair@$$CBKH@std@@@2@$0A@@std@@@std@@IAE@ABU?$less@K@1@V?$allocator@U?$pair@$$CBKH@std@@@1@@Z
_TEXT	SEGMENT
__Parg$ = 8						; size = 4
__Al$ = 12						; size = 1
??0?$_Tree_val@V?$_Tmap_traits@KHU?$less@K@std@@V?$allocator@U?$pair@$$CBKH@std@@@2@$0A@@std@@@std@@IAE@ABU?$less@K@1@V?$allocator@U?$pair@$$CBKH@std@@@1@@Z PROC NEAR ; std::_Tree_val<std::_Tmap_traits<unsigned long,int,std::less<unsigned long>,std::allocator<std::pair<unsigned long const ,int> >,0> >::_Tree_val<std::_Tmap_traits<unsigned long,int,std::less<unsigned long>,std::allocator<std::pair<unsigned long const ,int> >,0> >, COMDAT
; _this$ = ecx

; 95   : 		{	// construct base, and allocator from _Al

  00000	8b c1		 mov	 eax, ecx

; 96   : 		}

  00002	c2 08 00	 ret	 8
??0?$_Tree_val@V?$_Tmap_traits@KHU?$less@K@std@@V?$allocator@U?$pair@$$CBKH@std@@@2@$0A@@std@@@std@@IAE@ABU?$less@K@1@V?$allocator@U?$pair@$$CBKH@std@@@1@@Z ENDP ; std::_Tree_val<std::_Tmap_traits<unsigned long,int,std::less<unsigned long>,std::allocator<std::pair<unsigned long const ,int> >,0> >::_Tree_val<std::_Tmap_traits<unsigned long,int,std::less<unsigned long>,std::allocator<std::pair<unsigned long const ,int> >,0> >
_TEXT	ENDS
PUBLIC	?_Init@?$_Tree@V?$_Tmap_traits@KV?$vector@U_VECINFO@@V?$allocator@U_VECINFO@@@std@@@std@@U?$less@K@2@V?$allocator@U?$pair@$$CBKV?$vector@U_VECINFO@@V?$allocator@U_VECINFO@@@std@@@std@@@std@@@2@$0A@@std@@@std@@IAEXXZ ; std::_Tree<std::_Tmap_traits<unsigned long,std::vector<_VECINFO,std::allocator<_VECINFO> >,std::less<unsigned long>,std::allocator<std::pair<unsigned long const ,std::vector<_VECINFO,std::allocator<_VECINFO> > > >,0> >::_Init
; Function compile flags: /Ogty
;	COMDAT ?_Init@?$_Tree@V?$_Tmap_traits@KV?$vector@U_VECINFO@@V?$allocator@U_VECINFO@@@std@@@std@@U?$less@K@2@V?$allocator@U?$pair@$$CBKV?$vector@U_VECINFO@@V?$allocator@U_VECINFO@@@std@@@std@@@std@@@2@$0A@@std@@@std@@IAEXXZ
_TEXT	SEGMENT
?_Init@?$_Tree@V?$_Tmap_traits@KV?$vector@U_VECINFO@@V?$allocator@U_VECINFO@@@std@@@std@@U?$less@K@2@V?$allocator@U?$pair@$$CBKV?$vector@U_VECINFO@@V?$allocator@U_VECINFO@@@std@@@std@@@std@@@2@$0A@@std@@@std@@IAEXXZ PROC NEAR ; std::_Tree<std::_Tmap_traits<unsigned long,std::vector<_VECINFO,std::allocator<_VECINFO> >,std::less<unsigned long>,std::allocator<std::pair<unsigned long const ,std::vector<_VECINFO,std::allocator<_VECINFO> > > >,0> >::_Init, COMDAT
; _this$ = ecx

; 901  : 		{	// create head/nil node and make tree empty

  00000	56		 push	 esi
  00001	8b f1		 mov	 esi, ecx

; 902  : 		_Myhead = _Buynode();

  00003	e8 00 00 00 00	 call	 ?_Buynode@?$_Tree@V?$_Tmap_traits@KV?$vector@U_VECINFO@@V?$allocator@U_VECINFO@@@std@@@std@@U?$less@K@2@V?$allocator@U?$pair@$$CBKV?$vector@U_VECINFO@@V?$allocator@U_VECINFO@@@std@@@std@@@std@@@2@$0A@@std@@@std@@IAEPAU_Node@?$_Tree_nod@V?$_Tmap_traits@KV?$vector@U_VECINFO@@V?$allocator@U_VECINFO@@@std@@@std@@U?$less@K@2@V?$allocator@U?$pair@$$CBKV?$vector@U_VECINFO@@V?$allocator@U_VECINFO@@@std@@@std@@@std@@@2@$0A@@std@@@2@XZ ; std::_Tree<std::_Tmap_traits<unsigned long,std::vector<_VECINFO,std::allocator<_VECINFO> >,std::less<unsigned long>,std::allocator<std::pair<unsigned long const ,std::vector<_VECINFO,std::allocator<_VECINFO> > > >,0> >::_Buynode
  00008	89 46 04	 mov	 DWORD PTR [esi+4], eax

; 903  : 		_Isnil(_Myhead) = true;

  0000b	c6 40 21 01	 mov	 BYTE PTR [eax+33], 1

; 904  : 		_Root() = _Myhead;

  0000f	8b 46 04	 mov	 eax, DWORD PTR [esi+4]
  00012	89 40 04	 mov	 DWORD PTR [eax+4], eax

; 905  : 		_Lmost() = _Myhead, _Rmost() = _Myhead;

  00015	8b 46 04	 mov	 eax, DWORD PTR [esi+4]
  00018	89 00		 mov	 DWORD PTR [eax], eax
  0001a	8b 46 04	 mov	 eax, DWORD PTR [esi+4]
  0001d	89 40 08	 mov	 DWORD PTR [eax+8], eax

; 906  : 		_Mysize = 0;

  00020	c7 46 08 00 00
	00 00		 mov	 DWORD PTR [esi+8], 0
  00027	5e		 pop	 esi

; 907  : 		}

  00028	c3		 ret	 0
?_Init@?$_Tree@V?$_Tmap_traits@KV?$vector@U_VECINFO@@V?$allocator@U_VECINFO@@@std@@@std@@U?$less@K@2@V?$allocator@U?$pair@$$CBKV?$vector@U_VECINFO@@V?$allocator@U_VECINFO@@@std@@@std@@@std@@@2@$0A@@std@@@std@@IAEXXZ ENDP ; std::_Tree<std::_Tmap_traits<unsigned long,std::vector<_VECINFO,std::allocator<_VECINFO> >,std::less<unsigned long>,std::allocator<std::pair<unsigned long const ,std::vector<_VECINFO,std::allocator<_VECINFO> > > >,0> >::_Init
_TEXT	ENDS
PUBLIC	??0?$_Tree_val@V?$_Tmap_traits@KV?$vector@U_VECINFO@@V?$allocator@U_VECINFO@@@std@@@std@@U?$less@K@2@V?$allocator@U?$pair@$$CBKV?$vector@U_VECINFO@@V?$allocator@U_VECINFO@@@std@@@std@@@std@@@2@$0A@@std@@@std@@IAE@ABU?$less@K@1@V?$allocator@U?$pair@$$CBKV?$vector@U_VECINFO@@V?$allocator@U_VECINFO@@@std@@@std@@@std@@@1@@Z ; std::_Tree_val<std::_Tmap_traits<unsigned long,std::vector<_VECINFO,std::allocator<_VECINFO> >,std::less<unsigned long>,std::allocator<std::pair<unsigned long const ,std::vector<_VECINFO,std::allocator<_VECINFO> > > >,0> >::_Tree_val<std::_Tmap_traits<unsigned long,std::vector<_VECINFO,std::allocator<_VECINFO> >,std::less<unsigned long>,std::allocator<std::pair<unsigned long const ,std::vector<_VECINFO,std::allocator<_VECINFO> > > >,0> >
; Function compile flags: /Ogty
;	COMDAT ??0?$_Tree_val@V?$_Tmap_traits@KV?$vector@U_VECINFO@@V?$allocator@U_VECINFO@@@std@@@std@@U?$less@K@2@V?$allocator@U?$pair@$$CBKV?$vector@U_VECINFO@@V?$allocator@U_VECINFO@@@std@@@std@@@std@@@2@$0A@@std@@@std@@IAE@ABU?$less@K@1@V?$allocator@U?$pair@$$CBKV?$vector@U_VECINFO@@V?$allocator@U_VECINFO@@@std@@@std@@@std@@@1@@Z
_TEXT	SEGMENT
__Parg$ = 8						; size = 4
__Al$ = 12						; size = 1
??0?$_Tree_val@V?$_Tmap_traits@KV?$vector@U_VECINFO@@V?$allocator@U_VECINFO@@@std@@@std@@U?$less@K@2@V?$allocator@U?$pair@$$CBKV?$vector@U_VECINFO@@V?$allocator@U_VECINFO@@@std@@@std@@@std@@@2@$0A@@std@@@std@@IAE@ABU?$less@K@1@V?$allocator@U?$pair@$$CBKV?$vector@U_VECINFO@@V?$allocator@U_VECINFO@@@std@@@std@@@std@@@1@@Z PROC NEAR ; std::_Tree_val<std::_Tmap_traits<unsigned long,std::vector<_VECINFO,std::allocator<_VECINFO> >,std::less<unsigned long>,std::allocator<std::pair<unsigned long const ,std::vector<_VECINFO,std::allocator<_VECINFO> > > >,0> >::_Tree_val<std::_Tmap_traits<unsigned long,std::vector<_VECINFO,std::allocator<_VECINFO> >,std::less<unsigned long>,std::allocator<std::pair<unsigned long const ,std::vector<_VECINFO,std::allocator<_VECINFO> > > >,0> >, COMDAT
; _this$ = ecx

; 95   : 		{	// construct base, and allocator from _Al

  00000	8b c1		 mov	 eax, ecx

; 96   : 		}

  00002	c2 08 00	 ret	 8
??0?$_Tree_val@V?$_Tmap_traits@KV?$vector@U_VECINFO@@V?$allocator@U_VECINFO@@@std@@@std@@U?$less@K@2@V?$allocator@U?$pair@$$CBKV?$vector@U_VECINFO@@V?$allocator@U_VECINFO@@@std@@@std@@@std@@@2@$0A@@std@@@std@@IAE@ABU?$less@K@1@V?$allocator@U?$pair@$$CBKV?$vector@U_VECINFO@@V?$allocator@U_VECINFO@@@std@@@std@@@std@@@1@@Z ENDP ; std::_Tree_val<std::_Tmap_traits<unsigned long,std::vector<_VECINFO,std::allocator<_VECINFO> >,std::less<unsigned long>,std::allocator<std::pair<unsigned long const ,std::vector<_VECINFO,std::allocator<_VECINFO> > > >,0> >::_Tree_val<std::_Tmap_traits<unsigned long,std::vector<_VECINFO,std::allocator<_VECINFO> >,std::less<unsigned long>,std::allocator<std::pair<unsigned long const ,std::vector<_VECINFO,std::allocator<_VECINFO> > > >,0> >
_TEXT	ENDS
PUBLIC	??Eiterator@?$_Tree@V?$_Tmap_traits@KV?$vector@U_VECINFO@@V?$allocator@U_VECINFO@@@std@@@std@@U?$less@K@2@V?$allocator@U?$pair@$$CBKV?$vector@U_VECINFO@@V?$allocator@U_VECINFO@@@std@@@std@@@std@@@2@$0A@@std@@@std@@QAE?AV012@H@Z ; std::_Tree<std::_Tmap_traits<unsigned long,std::vector<_VECINFO,std::allocator<_VECINFO> >,std::less<unsigned long>,std::allocator<std::pair<unsigned long const ,std::vector<_VECINFO,std::allocator<_VECINFO> > > >,0> >::iterator::operator++
; Function compile flags: /Ogty
;	COMDAT ??Eiterator@?$_Tree@V?$_Tmap_traits@KV?$vector@U_VECINFO@@V?$allocator@U_VECINFO@@@std@@@std@@U?$less@K@2@V?$allocator@U?$pair@$$CBKV?$vector@U_VECINFO@@V?$allocator@U_VECINFO@@@std@@@std@@@std@@@2@$0A@@std@@@std@@QAE?AV012@H@Z
_TEXT	SEGMENT
___$ReturnUdt$ = 8					; size = 4
___formal$ = 12						; size = 4
??Eiterator@?$_Tree@V?$_Tmap_traits@KV?$vector@U_VECINFO@@V?$allocator@U_VECINFO@@@std@@@std@@U?$less@K@2@V?$allocator@U?$pair@$$CBKV?$vector@U_VECINFO@@V?$allocator@U_VECINFO@@@std@@@std@@@std@@@2@$0A@@std@@@std@@QAE?AV012@H@Z PROC NEAR ; std::_Tree<std::_Tmap_traits<unsigned long,std::vector<_VECINFO,std::allocator<_VECINFO> >,std::less<unsigned long>,std::allocator<std::pair<unsigned long const ,std::vector<_VECINFO,std::allocator<_VECINFO> > > >,0> >::iterator::operator++, COMDAT
; _this$ = ecx

; 332  : 			{	// postincrement

  00000	56		 push	 esi

; 333  : 			iterator _Tmp = *this;

  00001	8b 31		 mov	 esi, DWORD PTR [ecx]

; 334  : 			++*this;

  00003	e8 00 00 00 00	 call	 ?_Inc@const_iterator@?$_Tree@V?$_Tmap_traits@KV?$vector@U_VECINFO@@V?$allocator@U_VECINFO@@@std@@@std@@U?$less@K@2@V?$allocator@U?$pair@$$CBKV?$vector@U_VECINFO@@V?$allocator@U_VECINFO@@@std@@@std@@@std@@@2@$0A@@std@@@std@@QAEXXZ ; std::_Tree<std::_Tmap_traits<unsigned long,std::vector<_VECINFO,std::allocator<_VECINFO> >,std::less<unsigned long>,std::allocator<std::pair<unsigned long const ,std::vector<_VECINFO,std::allocator<_VECINFO> > > >,0> >::const_iterator::_Inc

; 335  : 			return (_Tmp);

  00008	8b 44 24 08	 mov	 eax, DWORD PTR ___$ReturnUdt$[esp]
  0000c	89 30		 mov	 DWORD PTR [eax], esi
  0000e	5e		 pop	 esi

; 336  : 			}

  0000f	c2 08 00	 ret	 8
??Eiterator@?$_Tree@V?$_Tmap_traits@KV?$vector@U_VECINFO@@V?$allocator@U_VECINFO@@@std@@@std@@U?$less@K@2@V?$allocator@U?$pair@$$CBKV?$vector@U_VECINFO@@V?$allocator@U_VECINFO@@@std@@@std@@@std@@@2@$0A@@std@@@std@@QAE?AV012@H@Z ENDP ; std::_Tree<std::_Tmap_traits<unsigned long,std::vector<_VECINFO,std::allocator<_VECINFO> >,std::less<unsigned long>,std::allocator<std::pair<unsigned long const ,std::vector<_VECINFO,std::allocator<_VECINFO> > > >,0> >::iterator::operator++
_TEXT	ENDS
PUBLIC	??$_Uninitialized_fill_n@PAUD3DXVECTOR3@@IU1@V?$allocator@UD3DXVECTOR3@@@std@@@std@@YAXPAUD3DXVECTOR3@@IABU1@AAV?$allocator@UD3DXVECTOR3@@@0@@Z ; std::_Uninitialized_fill_n<D3DXVECTOR3 *,unsigned int,D3DXVECTOR3,std::allocator<D3DXVECTOR3> >
; Function compile flags: /Ogty
; File c:\program files\microsoft visual studio .net 2003\vc7\include\memory
;	COMDAT ??$_Uninitialized_fill_n@PAUD3DXVECTOR3@@IU1@V?$allocator@UD3DXVECTOR3@@@std@@@std@@YAXPAUD3DXVECTOR3@@IABU1@AAV?$allocator@UD3DXVECTOR3@@@0@@Z
_TEXT	SEGMENT
__Cat$231914 = -4					; size = 1
__First$ = 8						; size = 4
__Count$ = 12						; size = 4
__Val$ = 16						; size = 4
__Al$ = 20						; size = 4
??$_Uninitialized_fill_n@PAUD3DXVECTOR3@@IU1@V?$allocator@UD3DXVECTOR3@@@std@@@std@@YAXPAUD3DXVECTOR3@@IABU1@AAV?$allocator@UD3DXVECTOR3@@@0@@Z PROC NEAR ; std::_Uninitialized_fill_n<D3DXVECTOR3 *,unsigned int,D3DXVECTOR3,std::allocator<D3DXVECTOR3> >, COMDAT

; 255  : 	{	// copy _Count *_Val to raw _First, using _Al

  00000	51		 push	 ecx

; 256  : 	_Uninit_fill_n(_First, _Count, _Val, _Al,
; 257  : 		_Ptr_cat(_First, _First));

  00001	8b 04 24	 mov	 eax, DWORD PTR __Cat$231914[esp+4]
  00004	8b 4c 24 14	 mov	 ecx, DWORD PTR __Al$[esp]
  00008	8b 54 24 10	 mov	 edx, DWORD PTR __Val$[esp]
  0000c	50		 push	 eax
  0000d	8b 44 24 10	 mov	 eax, DWORD PTR __Count$[esp+4]
  00011	51		 push	 ecx
  00012	8b 4c 24 10	 mov	 ecx, DWORD PTR __First$[esp+8]
  00016	52		 push	 edx
  00017	50		 push	 eax
  00018	51		 push	 ecx
  00019	e8 00 00 00 00	 call	 ??$_Uninit_fill_n@PAUD3DXVECTOR3@@IU1@V?$allocator@UD3DXVECTOR3@@@std@@@std@@YAXPAUD3DXVECTOR3@@IABU1@AAV?$allocator@UD3DXVECTOR3@@@0@U_Nonscalar_ptr_iterator_tag@0@@Z ; std::_Uninit_fill_n<D3DXVECTOR3 *,unsigned int,D3DXVECTOR3,std::allocator<D3DXVECTOR3> >

; 258  : 	}

  0001e	83 c4 18	 add	 esp, 24			; 00000018H
  00021	c3		 ret	 0
??$_Uninitialized_fill_n@PAUD3DXVECTOR3@@IU1@V?$allocator@UD3DXVECTOR3@@@std@@@std@@YAXPAUD3DXVECTOR3@@IABU1@AAV?$allocator@UD3DXVECTOR3@@@0@@Z ENDP ; std::_Uninitialized_fill_n<D3DXVECTOR3 *,unsigned int,D3DXVECTOR3,std::allocator<D3DXVECTOR3> >
_TEXT	ENDS
PUBLIC	??$_Ucopy@PAUD3DXVECTOR3@@@?$vector@UD3DXVECTOR3@@V?$allocator@UD3DXVECTOR3@@@std@@@std@@IAEPAUD3DXVECTOR3@@PAU2@00@Z ; std::vector<D3DXVECTOR3,std::allocator<D3DXVECTOR3> >::_Ucopy<D3DXVECTOR3 *>
; Function compile flags: /Ogty
; File c:\program files\microsoft visual studio .net 2003\vc7\include\vector
;	COMDAT ??$_Ucopy@PAUD3DXVECTOR3@@@?$vector@UD3DXVECTOR3@@V?$allocator@UD3DXVECTOR3@@@std@@@std@@IAEPAUD3DXVECTOR3@@PAU2@00@Z
_TEXT	SEGMENT
__First$ = 8						; size = 4
__Last$ = 12						; size = 4
__Cat$231928 = 16					; size = 1
__Ptr$ = 16						; size = 4
??$_Ucopy@PAUD3DXVECTOR3@@@?$vector@UD3DXVECTOR3@@V?$allocator@UD3DXVECTOR3@@@std@@@std@@IAEPAUD3DXVECTOR3@@PAU2@00@Z PROC NEAR ; std::vector<D3DXVECTOR3,std::allocator<D3DXVECTOR3> >::_Ucopy<D3DXVECTOR3 *>, COMDAT
; _this$ = ecx

; 802  : 		{	// copy initializing [_First, _Last), using allocator
; 803  : 		return (_Uninitialized_copy(_First, _Last,
; 804  : 			_Ptr, this->_Alval));

  00000	8b 44 24 0c	 mov	 eax, DWORD PTR __Cat$231928[esp-4]
  00004	8b 54 24 08	 mov	 edx, DWORD PTR __Last$[esp-4]
  00008	50		 push	 eax
  00009	8b 44 24 08	 mov	 eax, DWORD PTR __First$[esp]
  0000d	51		 push	 ecx
  0000e	8b 4c 24 14	 mov	 ecx, DWORD PTR __Ptr$[esp+4]
  00012	51		 push	 ecx
  00013	52		 push	 edx
  00014	50		 push	 eax
  00015	e8 00 00 00 00	 call	 ??$_Uninit_copy@PAUD3DXVECTOR3@@PAU1@V?$allocator@UD3DXVECTOR3@@@std@@@std@@YAPAUD3DXVECTOR3@@PAU1@00AAV?$allocator@UD3DXVECTOR3@@@0@U_Nonscalar_ptr_iterator_tag@0@@Z ; std::_Uninit_copy<D3DXVECTOR3 *,D3DXVECTOR3 *,std::allocator<D3DXVECTOR3> >
  0001a	83 c4 14	 add	 esp, 20			; 00000014H

; 805  : 		}

  0001d	c2 0c 00	 ret	 12			; 0000000cH
??$_Ucopy@PAUD3DXVECTOR3@@@?$vector@UD3DXVECTOR3@@V?$allocator@UD3DXVECTOR3@@@std@@@std@@IAEPAUD3DXVECTOR3@@PAU2@00@Z ENDP ; std::vector<D3DXVECTOR3,std::allocator<D3DXVECTOR3> >::_Ucopy<D3DXVECTOR3 *>
_TEXT	ENDS
PUBLIC	?destroy@?$allocator@U_VECINFO@@@std@@QAEXPAU_VECINFO@@@Z ; std::allocator<_VECINFO>::destroy
; Function compile flags: /Ogty
; File c:\program files\microsoft visual studio .net 2003\vc7\include\xmemory
;	COMDAT ?destroy@?$allocator@U_VECINFO@@@std@@QAEXPAU_VECINFO@@@Z
_TEXT	SEGMENT
__Ptr$ = 8						; size = 4
?destroy@?$allocator@U_VECINFO@@@std@@QAEXPAU_VECINFO@@@Z PROC NEAR ; std::allocator<_VECINFO>::destroy, COMDAT
; _this$ = ecx

; 152  : 		_Destroy(_Ptr);

  00000	8b 4c 24 04	 mov	 ecx, DWORD PTR __Ptr$[esp-4]
  00004	e8 00 00 00 00	 call	 ??1_VECINFO@@QAE@XZ

; 153  : 		}

  00009	c2 04 00	 ret	 4
?destroy@?$allocator@U_VECINFO@@@std@@QAEXPAU_VECINFO@@@Z ENDP ; std::allocator<_VECINFO>::destroy
_TEXT	ENDS
PUBLIC	??$_Uninit_copy@Vconst_iterator@?$vector@U_VECINFO@@V?$allocator@U_VECINFO@@@std@@@std@@PAU_VECINFO@@V?$allocator@U_VECINFO@@@3@@std@@YAPAU_VECINFO@@Vconst_iterator@?$vector@U_VECINFO@@V?$allocator@U_VECINFO@@@std@@@0@0PAU1@AAV?$allocator@U_VECINFO@@@0@U_Nonscalar_ptr_iterator_tag@0@@Z ; std::_Uninit_copy<std::vector<_VECINFO,std::allocator<_VECINFO> >::const_iterator,_VECINFO *,std::allocator<_VECINFO> >
; Function compile flags: /Ogty
; File c:\program files\microsoft visual studio .net 2003\vc7\include\memory
;	COMDAT ??$_Uninit_copy@Vconst_iterator@?$vector@U_VECINFO@@V?$allocator@U_VECINFO@@@std@@@std@@PAU_VECINFO@@V?$allocator@U_VECINFO@@@3@@std@@YAPAU_VECINFO@@Vconst_iterator@?$vector@U_VECINFO@@V?$allocator@U_VECINFO@@@std@@@0@0PAU1@AAV?$allocator@U_VECINFO@@@0@U_Nonscalar_ptr_iterator_tag@0@@Z
_TEXT	SEGMENT
__First$ = 8						; size = 4
__Last$ = 12						; size = 4
__Dest$ = 16						; size = 4
__Al$ = 20						; size = 4
___formal$ = 24						; size = 1
??$_Uninit_copy@Vconst_iterator@?$vector@U_VECINFO@@V?$allocator@U_VECINFO@@@std@@@std@@PAU_VECINFO@@V?$allocator@U_VECINFO@@@3@@std@@YAPAU_VECINFO@@Vconst_iterator@?$vector@U_VECINFO@@V?$allocator@U_VECINFO@@@std@@@0@0PAU1@AAV?$allocator@U_VECINFO@@@0@U_Nonscalar_ptr_iterator_tag@0@@Z PROC NEAR ; std::_Uninit_copy<std::vector<_VECINFO,std::allocator<_VECINFO> >::const_iterator,_VECINFO *,std::allocator<_VECINFO> >, COMDAT

; 78   : 	_FwdIt _Next = _Dest;
; 79   : 
; 80   : 	_TRY_BEGIN
; 81   : 	for (; _First != _Last; ++_Dest, ++_First)

  00000	8b 44 24 08	 mov	 eax, DWORD PTR __Last$[esp-4]
  00004	56		 push	 esi
  00005	8b 74 24 08	 mov	 esi, DWORD PTR __First$[esp]
  00009	3b f0		 cmp	 esi, eax
  0000b	8b 44 24 10	 mov	 eax, DWORD PTR __Dest$[esp]
  0000f	74 6c		 je	 SHORT $L228316
  00011	53		 push	 ebx
  00012	8d 48 28	 lea	 ecx, DWORD PTR [eax+40]
  00015	8d 56 28	 lea	 edx, DWORD PTR [esi+40]
  00018	57		 push	 edi
  00019	8d a4 24 00 00
	00 00		 npad	 7
$L231952:

; 82   : 		_Al.construct(_Dest, *_First);

  00020	85 c0		 test	 eax, eax
  00022	74 3f		 je	 SHORT $L228315
  00024	8b fe		 mov	 edi, esi
  00026	8b 1f		 mov	 ebx, DWORD PTR [edi]
  00028	89 18		 mov	 DWORD PTR [eax], ebx
  0002a	8b 5f 04	 mov	 ebx, DWORD PTR [edi+4]
  0002d	89 58 04	 mov	 DWORD PTR [eax+4], ebx
  00030	8b 7f 08	 mov	 edi, DWORD PTR [edi+8]
  00033	89 78 08	 mov	 DWORD PTR [eax+8], edi
  00036	8b 42 e4	 mov	 eax, DWORD PTR [edx-28]
  00039	89 41 e4	 mov	 DWORD PTR [ecx-28], eax
  0003c	8b 42 e8	 mov	 eax, DWORD PTR [edx-24]
  0003f	89 41 e8	 mov	 DWORD PTR [ecx-24], eax
  00042	8b 42 ec	 mov	 eax, DWORD PTR [edx-20]
  00045	89 41 ec	 mov	 DWORD PTR [ecx-20], eax
  00048	c7 41 f0 00 00
	00 00		 mov	 DWORD PTR [ecx-16], OFFSET FLAT:??_7CTimer@@6B@
  0004f	dd 42 f8	 fld	 QWORD PTR [edx-8]
  00052	dd 59 f8	 fstp	 QWORD PTR [ecx-8]
  00055	dd 02		 fld	 QWORD PTR [edx]
  00057	dd 19		 fstp	 QWORD PTR [ecx]
  00059	8b 42 08	 mov	 eax, DWORD PTR [edx+8]
  0005c	89 41 08	 mov	 DWORD PTR [ecx+8], eax
  0005f	8b 44 24 18	 mov	 eax, DWORD PTR __Dest$[esp+8]
$L228315:
  00063	8b 7c 24 14	 mov	 edi, DWORD PTR __Last$[esp+8]
  00067	83 c0 38	 add	 eax, 56			; 00000038H
  0006a	83 c6 38	 add	 esi, 56			; 00000038H
  0006d	83 c1 38	 add	 ecx, 56			; 00000038H
  00070	83 c2 38	 add	 edx, 56			; 00000038H
  00073	3b f7		 cmp	 esi, edi
  00075	89 44 24 18	 mov	 DWORD PTR __Dest$[esp+8], eax
  00079	75 a5		 jne	 SHORT $L231952
  0007b	5f		 pop	 edi
  0007c	5b		 pop	 ebx
$L228316:
  0007d	5e		 pop	 esi

; 83   : 	_CATCH_ALL
; 84   : 	for (; _Next != _Dest; ++_Next)
; 85   : 		_Al.destroy(_Next);
; 86   : 	_RERAISE;
; 87   : 	_CATCH_END
; 88   : 	return (_Dest);
; 89   : 	}

  0007e	c3		 ret	 0
??$_Uninit_copy@Vconst_iterator@?$vector@U_VECINFO@@V?$allocator@U_VECINFO@@@std@@@std@@PAU_VECINFO@@V?$allocator@U_VECINFO@@@3@@std@@YAPAU_VECINFO@@Vconst_iterator@?$vector@U_VECINFO@@V?$allocator@U_VECINFO@@@std@@@0@0PAU1@AAV?$allocator@U_VECINFO@@@0@U_Nonscalar_ptr_iterator_tag@0@@Z ENDP ; std::_Uninit_copy<std::vector<_VECINFO,std::allocator<_VECINFO> >::const_iterator,_VECINFO *,std::allocator<_VECINFO> >
_TEXT	ENDS
PUBLIC	??$_Uninit_copy@PAU_VECINFO@@PAU1@V?$allocator@U_VECINFO@@@std@@@std@@YAPAU_VECINFO@@PAU1@00AAV?$allocator@U_VECINFO@@@0@U_Nonscalar_ptr_iterator_tag@0@@Z ; std::_Uninit_copy<_VECINFO *,_VECINFO *,std::allocator<_VECINFO> >
; Function compile flags: /Ogty
;	COMDAT ??$_Uninit_copy@PAU_VECINFO@@PAU1@V?$allocator@U_VECINFO@@@std@@@std@@YAPAU_VECINFO@@PAU1@00AAV?$allocator@U_VECINFO@@@0@U_Nonscalar_ptr_iterator_tag@0@@Z
_TEXT	SEGMENT
__First$ = 8						; size = 4
__Last$ = 12						; size = 4
__Dest$ = 16						; size = 4
__Al$ = 20						; size = 4
___formal$ = 24						; size = 1
??$_Uninit_copy@PAU_VECINFO@@PAU1@V?$allocator@U_VECINFO@@@std@@@std@@YAPAU_VECINFO@@PAU1@00AAV?$allocator@U_VECINFO@@@0@U_Nonscalar_ptr_iterator_tag@0@@Z PROC NEAR ; std::_Uninit_copy<_VECINFO *,_VECINFO *,std::allocator<_VECINFO> >, COMDAT

; 78   : 	_FwdIt _Next = _Dest;
; 79   : 
; 80   : 	_TRY_BEGIN
; 81   : 	for (; _First != _Last; ++_Dest, ++_First)

  00000	8b 44 24 08	 mov	 eax, DWORD PTR __Last$[esp-4]
  00004	56		 push	 esi
  00005	8b 74 24 08	 mov	 esi, DWORD PTR __First$[esp]
  00009	3b f0		 cmp	 esi, eax
  0000b	8b 44 24 10	 mov	 eax, DWORD PTR __Dest$[esp]
  0000f	74 6c		 je	 SHORT $L228334
  00011	53		 push	 ebx
  00012	8d 48 28	 lea	 ecx, DWORD PTR [eax+40]
  00015	8d 56 28	 lea	 edx, DWORD PTR [esi+40]
  00018	57		 push	 edi
  00019	8d a4 24 00 00
	00 00		 npad	 7
$L228332:

; 82   : 		_Al.construct(_Dest, *_First);

  00020	85 c0		 test	 eax, eax
  00022	74 3f		 je	 SHORT $L228333
  00024	8b fe		 mov	 edi, esi
  00026	8b 1f		 mov	 ebx, DWORD PTR [edi]
  00028	89 18		 mov	 DWORD PTR [eax], ebx
  0002a	8b 5f 04	 mov	 ebx, DWORD PTR [edi+4]
  0002d	89 58 04	 mov	 DWORD PTR [eax+4], ebx
  00030	8b 7f 08	 mov	 edi, DWORD PTR [edi+8]
  00033	89 78 08	 mov	 DWORD PTR [eax+8], edi
  00036	8b 42 e4	 mov	 eax, DWORD PTR [edx-28]
  00039	89 41 e4	 mov	 DWORD PTR [ecx-28], eax
  0003c	8b 42 e8	 mov	 eax, DWORD PTR [edx-24]
  0003f	89 41 e8	 mov	 DWORD PTR [ecx-24], eax
  00042	8b 42 ec	 mov	 eax, DWORD PTR [edx-20]
  00045	89 41 ec	 mov	 DWORD PTR [ecx-20], eax
  00048	c7 41 f0 00 00
	00 00		 mov	 DWORD PTR [ecx-16], OFFSET FLAT:??_7CTimer@@6B@
  0004f	dd 42 f8	 fld	 QWORD PTR [edx-8]
  00052	dd 59 f8	 fstp	 QWORD PTR [ecx-8]
  00055	dd 02		 fld	 QWORD PTR [edx]
  00057	dd 19		 fstp	 QWORD PTR [ecx]
  00059	8b 42 08	 mov	 eax, DWORD PTR [edx+8]
  0005c	89 41 08	 mov	 DWORD PTR [ecx+8], eax
  0005f	8b 44 24 18	 mov	 eax, DWORD PTR __Dest$[esp+8]
$L228333:
  00063	8b 7c 24 14	 mov	 edi, DWORD PTR __Last$[esp+8]
  00067	83 c0 38	 add	 eax, 56			; 00000038H
  0006a	83 c6 38	 add	 esi, 56			; 00000038H
  0006d	83 c1 38	 add	 ecx, 56			; 00000038H
  00070	83 c2 38	 add	 edx, 56			; 00000038H
  00073	3b f7		 cmp	 esi, edi
  00075	89 44 24 18	 mov	 DWORD PTR __Dest$[esp+8], eax
  00079	75 a5		 jne	 SHORT $L228332
  0007b	5f		 pop	 edi
  0007c	5b		 pop	 ebx
$L228334:
  0007d	5e		 pop	 esi

; 83   : 	_CATCH_ALL
; 84   : 	for (; _Next != _Dest; ++_Next)
; 85   : 		_Al.destroy(_Next);
; 86   : 	_RERAISE;
; 87   : 	_CATCH_END
; 88   : 	return (_Dest);
; 89   : 	}

  0007e	c3		 ret	 0
??$_Uninit_copy@PAU_VECINFO@@PAU1@V?$allocator@U_VECINFO@@@std@@@std@@YAPAU_VECINFO@@PAU1@00AAV?$allocator@U_VECINFO@@@0@U_Nonscalar_ptr_iterator_tag@0@@Z ENDP ; std::_Uninit_copy<_VECINFO *,_VECINFO *,std::allocator<_VECINFO> >
_TEXT	ENDS
PUBLIC	??1?$basic_string@DU?$char_traits@D@std@@V?$allocator@D@2@@std@@QAE@XZ ; std::basic_string<char,std::char_traits<char>,std::allocator<char> >::~basic_string<char,std::char_traits<char>,std::allocator<char> >
; Function compile flags: /Ogty
; File c:\program files\microsoft visual studio .net 2003\vc7\include\xstring
;	COMDAT ??1?$basic_string@DU?$char_traits@D@std@@V?$allocator@D@2@@std@@QAE@XZ
_TEXT	SEGMENT
??1?$basic_string@DU?$char_traits@D@std@@V?$allocator@D@2@@std@@QAE@XZ PROC NEAR ; std::basic_string<char,std::char_traits<char>,std::allocator<char> >::~basic_string<char,std::char_traits<char>,std::allocator<char> >, COMDAT
; _this$ = ecx

; 456  : 		{	// destroy the string

  00000	56		 push	 esi
  00001	8b f1		 mov	 esi, ecx

; 457  : 		_Tidy(true);

  00003	83 7e 18 10	 cmp	 DWORD PTR [esi+24], 16	; 00000010H
  00007	72 0c		 jb	 SHORT $L232177
  00009	8b 46 04	 mov	 eax, DWORD PTR [esi+4]
  0000c	50		 push	 eax
  0000d	e8 00 00 00 00	 call	 ??3@YAXPAX@Z		; operator delete
  00012	83 c4 04	 add	 esp, 4
$L232177:
  00015	33 c0		 xor	 eax, eax
  00017	c7 46 18 0f 00
	00 00		 mov	 DWORD PTR [esi+24], 15	; 0000000fH
  0001e	89 46 14	 mov	 DWORD PTR [esi+20], eax
  00021	88 46 04	 mov	 BYTE PTR [esi+4], al
  00024	5e		 pop	 esi

; 458  : 		}

  00025	c3		 ret	 0
??1?$basic_string@DU?$char_traits@D@std@@V?$allocator@D@2@@std@@QAE@XZ ENDP ; std::basic_string<char,std::char_traits<char>,std::allocator<char> >::~basic_string<char,std::char_traits<char>,std::allocator<char> >
_TEXT	ENDS
PUBLIC	?_Grow@?$basic_string@DU?$char_traits@D@std@@V?$allocator@D@2@@std@@IAE_NI_N@Z ; std::basic_string<char,std::char_traits<char>,std::allocator<char> >::_Grow
EXTRN	?_Xlen@_String_base@std@@QBEXXZ:NEAR		; std::_String_base::_Xlen
; Function compile flags: /Ogty
;	COMDAT ?_Grow@?$basic_string@DU?$char_traits@D@std@@V?$allocator@D@2@@std@@IAE_NI_N@Z
_TEXT	SEGMENT
__Newsize$ = 8						; size = 4
__Trim$ = 12						; size = 1
?_Grow@?$basic_string@DU?$char_traits@D@std@@V?$allocator@D@2@@std@@IAE_NI_N@Z PROC NEAR ; std::basic_string<char,std::char_traits<char>,std::allocator<char> >::_Grow, COMDAT
; _this$ = ecx

; 1480 : 		{	// ensure buffer is big enough, trim to size if _Trim is true

  00000	55		 push	 ebp
  00001	56		 push	 esi

; 1481 : 		if (max_size() < _Newsize)

  00002	8b 74 24 0c	 mov	 esi, DWORD PTR __Newsize$[esp+4]
  00006	83 fe fe	 cmp	 esi, -2			; fffffffeH
  00009	8b e9		 mov	 ebp, ecx
  0000b	76 05		 jbe	 SHORT $L221380

; 1482 : 			_String_base::_Xlen();	// result too long

  0000d	e8 00 00 00 00	 call	 ?_Xlen@_String_base@std@@QBEXXZ ; std::_String_base::_Xlen
$L221380:

; 1483 : 		if (_Myres < _Newsize)

  00012	8b 45 18	 mov	 eax, DWORD PTR [ebp+24]
  00015	3b c6		 cmp	 eax, esi
  00017	73 19		 jae	 SHORT $L221381

; 1484 : 			_Copy(_Newsize, _Mysize);	// reallocate to grow

  00019	8b 45 14	 mov	 eax, DWORD PTR [ebp+20]
  0001c	50		 push	 eax
  0001d	56		 push	 esi
  0001e	8b cd		 mov	 ecx, ebp
  00020	e8 00 00 00 00	 call	 ?_Copy@?$basic_string@DU?$char_traits@D@std@@V?$allocator@D@2@@std@@IAEXII@Z ; std::basic_string<char,std::char_traits<char>,std::allocator<char> >::_Copy

; 1490 : 		return (0 < _Newsize);	// return true only if more work to do

  00025	33 c0		 xor	 eax, eax
  00027	3b c6		 cmp	 eax, esi
  00029	1b c0		 sbb	 eax, eax
  0002b	5e		 pop	 esi
  0002c	f7 d8		 neg	 eax
  0002e	5d		 pop	 ebp

; 1491 : 		}

  0002f	c2 08 00	 ret	 8
$L221381:

; 1485 : 		else if (_Trim && _Newsize < _BUF_SIZE)

  00032	8a 4c 24 10	 mov	 cl, BYTE PTR __Trim$[esp+4]
  00036	84 c9		 test	 cl, cl
  00038	74 5c		 je	 SHORT $L221383
  0003a	83 fe 10	 cmp	 esi, 16			; 00000010H
  0003d	73 57		 jae	 SHORT $L221383
  0003f	53		 push	 ebx

; 1486 : 			_Tidy(true,	// copy and deallocate if trimming to small string
; 1487 : 				_Newsize < _Mysize ? _Newsize : _Mysize);

  00040	8b 5d 14	 mov	 ebx, DWORD PTR [ebp+20]
  00043	3b f3		 cmp	 esi, ebx
  00045	73 02		 jae	 SHORT $L232198
  00047	8b de		 mov	 ebx, esi
$L232198:
  00049	83 f8 10	 cmp	 eax, 16			; 00000010H
  0004c	72 2b		 jb	 SHORT $L232252
  0004e	85 db		 test	 ebx, ebx
  00050	8b 45 04	 mov	 eax, DWORD PTR [ebp+4]
  00053	57		 push	 edi
  00054	8d 7d 04	 lea	 edi, DWORD PTR [ebp+4]
  00057	76 16		 jbe	 SHORT $L232250
  00059	8b cb		 mov	 ecx, ebx
  0005b	8b d1		 mov	 edx, ecx
  0005d	c1 e9 02	 shr	 ecx, 2
  00060	8b f0		 mov	 esi, eax
  00062	f3 a5		 rep movsd
  00064	8b ca		 mov	 ecx, edx
  00066	83 e1 03	 and	 ecx, 3
  00069	f3 a4		 rep movsb
  0006b	8b 74 24 14	 mov	 esi, DWORD PTR __Newsize$[esp+12]
$L232250:
  0006f	50		 push	 eax
  00070	e8 00 00 00 00	 call	 ??3@YAXPAX@Z		; operator delete
  00075	83 c4 04	 add	 esp, 4
  00078	5f		 pop	 edi
$L232252:
  00079	89 5d 14	 mov	 DWORD PTR [ebp+20], ebx

; 1490 : 		return (0 < _Newsize);	// return true only if more work to do

  0007c	33 c0		 xor	 eax, eax
  0007e	c7 45 18 0f 00
	00 00		 mov	 DWORD PTR [ebp+24], 15	; 0000000fH
  00085	c6 44 2b 04 00	 mov	 BYTE PTR [ebx+ebp+4], 0
  0008a	3b c6		 cmp	 eax, esi
  0008c	5b		 pop	 ebx
  0008d	1b c0		 sbb	 eax, eax
  0008f	5e		 pop	 esi
  00090	f7 d8		 neg	 eax
  00092	5d		 pop	 ebp

; 1491 : 		}

  00093	c2 08 00	 ret	 8
$L221383:

; 1488 : 		else if (_Newsize == 0)

  00096	85 f6		 test	 esi, esi
  00098	75 23		 jne	 SHORT $L232289

; 1489 : 			_Eos(0);	// new size is zero, just null terminate

  0009a	83 f8 10	 cmp	 eax, 16			; 00000010H
  0009d	89 75 14	 mov	 DWORD PTR [ebp+20], esi
  000a0	72 14		 jb	 SHORT $L232287
  000a2	8b 6d 04	 mov	 ebp, DWORD PTR [ebp+4]

; 1490 : 		return (0 < _Newsize);	// return true only if more work to do

  000a5	33 c0		 xor	 eax, eax
  000a7	3b c6		 cmp	 eax, esi
  000a9	1b c0		 sbb	 eax, eax
  000ab	5e		 pop	 esi
  000ac	c6 45 00 00	 mov	 BYTE PTR [ebp], 0
  000b0	f7 d8		 neg	 eax
  000b2	5d		 pop	 ebp

; 1491 : 		}

  000b3	c2 08 00	 ret	 8

; 1489 : 			_Eos(0);	// new size is zero, just null terminate

$L232287:
  000b6	83 c5 04	 add	 ebp, 4
  000b9	c6 45 00 00	 mov	 BYTE PTR [ebp], 0
$L232289:

; 1490 : 		return (0 < _Newsize);	// return true only if more work to do

  000bd	33 c0		 xor	 eax, eax
  000bf	3b c6		 cmp	 eax, esi
  000c1	1b c0		 sbb	 eax, eax
  000c3	5e		 pop	 esi
  000c4	f7 d8		 neg	 eax
  000c6	5d		 pop	 ebp

; 1491 : 		}

  000c7	c2 08 00	 ret	 8
?_Grow@?$basic_string@DU?$char_traits@D@std@@V?$allocator@D@2@@std@@IAE_NI_N@Z ENDP ; std::basic_string<char,std::char_traits<char>,std::allocator<char> >::_Grow
_TEXT	ENDS
PUBLIC	?_Destroy@?$vector@UD3DXVECTOR3@@V?$allocator@UD3DXVECTOR3@@@std@@@std@@IAEXPAUD3DXVECTOR3@@0@Z ; std::vector<D3DXVECTOR3,std::allocator<D3DXVECTOR3> >::_Destroy
; Function compile flags: /Ogty
; File c:\program files\microsoft visual studio .net 2003\vc7\include\vector
;	COMDAT ?_Destroy@?$vector@UD3DXVECTOR3@@V?$allocator@UD3DXVECTOR3@@@std@@@std@@IAEXPAUD3DXVECTOR3@@0@Z
_TEXT	SEGMENT
__First$ = 8						; size = 4
__Last$ = 12						; size = 4
?_Destroy@?$vector@UD3DXVECTOR3@@V?$allocator@UD3DXVECTOR3@@@std@@@std@@IAEXPAUD3DXVECTOR3@@0@Z PROC NEAR ; std::vector<D3DXVECTOR3,std::allocator<D3DXVECTOR3> >::_Destroy, COMDAT
; _this$ = ecx

; 787  : 		_Destroy_range(_First, _Last, this->_Alval);
; 788  : 		}

  00000	c2 08 00	 ret	 8
?_Destroy@?$vector@UD3DXVECTOR3@@V?$allocator@UD3DXVECTOR3@@@std@@@std@@IAEXPAUD3DXVECTOR3@@0@Z ENDP ; std::vector<D3DXVECTOR3,std::allocator<D3DXVECTOR3> >::_Destroy
_TEXT	ENDS
PUBLIC	?clear@?$_Tree@V?$_Tmap_traits@KHU?$less@K@std@@V?$allocator@U?$pair@$$CBKH@std@@@2@$0A@@std@@@std@@QAEXXZ ; std::_Tree<std::_Tmap_traits<unsigned long,int,std::less<unsigned long>,std::allocator<std::pair<unsigned long const ,int> >,0> >::clear
; Function compile flags: /Ogty
; File c:\program files\microsoft visual studio .net 2003\vc7\include\xtree
;	COMDAT ?clear@?$_Tree@V?$_Tmap_traits@KHU?$less@K@std@@V?$allocator@U?$pair@$$CBKH@std@@@2@$0A@@std@@@std@@QAEXXZ
_TEXT	SEGMENT
?clear@?$_Tree@V?$_Tmap_traits@KHU?$less@K@std@@V?$allocator@U?$pair@$$CBKH@std@@@2@$0A@@std@@@std@@QAEXXZ PROC NEAR ; std::_Tree<std::_Tmap_traits<unsigned long,int,std::less<unsigned long>,std::allocator<std::pair<unsigned long const ,int> >,0> >::clear, COMDAT
; _this$ = ecx

; 780  : 		{	// erase all

  00000	56		 push	 esi
  00001	8b f1		 mov	 esi, ecx

; 781  : 		_Erase(_Root());

  00003	8b 46 04	 mov	 eax, DWORD PTR [esi+4]
  00006	8b 48 04	 mov	 ecx, DWORD PTR [eax+4]
  00009	51		 push	 ecx
  0000a	8b ce		 mov	 ecx, esi
  0000c	e8 00 00 00 00	 call	 ?_Erase@?$_Tree@V?$_Tmap_traits@KHU?$less@K@std@@V?$allocator@U?$pair@$$CBKH@std@@@2@$0A@@std@@@std@@IAEXPAU_Node@?$_Tree_nod@V?$_Tmap_traits@KHU?$less@K@std@@V?$allocator@U?$pair@$$CBKH@std@@@2@$0A@@std@@@2@@Z ; std::_Tree<std::_Tmap_traits<unsigned long,int,std::less<unsigned long>,std::allocator<std::pair<unsigned long const ,int> >,0> >::_Erase

; 782  : 		_Root() = _Myhead, _Mysize = 0;

  00011	8b 46 04	 mov	 eax, DWORD PTR [esi+4]
  00014	89 40 04	 mov	 DWORD PTR [eax+4], eax

; 783  : 		_Lmost() = _Myhead, _Rmost() = _Myhead;

  00017	8b 46 04	 mov	 eax, DWORD PTR [esi+4]
  0001a	c7 46 08 00 00
	00 00		 mov	 DWORD PTR [esi+8], 0
  00021	89 00		 mov	 DWORD PTR [eax], eax
  00023	8b 76 04	 mov	 esi, DWORD PTR [esi+4]
  00026	89 76 08	 mov	 DWORD PTR [esi+8], esi
  00029	5e		 pop	 esi

; 784  : 		}

  0002a	c3		 ret	 0
?clear@?$_Tree@V?$_Tmap_traits@KHU?$less@K@std@@V?$allocator@U?$pair@$$CBKH@std@@@2@$0A@@std@@@std@@QAEXXZ ENDP ; std::_Tree<std::_Tmap_traits<unsigned long,int,std::less<unsigned long>,std::allocator<std::pair<unsigned long const ,int> >,0> >::clear
_TEXT	ENDS
PUBLIC	??Eiterator@?$_Tree@V?$_Tmap_traits@KHU?$less@K@std@@V?$allocator@U?$pair@$$CBKH@std@@@2@$0A@@std@@@std@@QAE?AV012@H@Z ; std::_Tree<std::_Tmap_traits<unsigned long,int,std::less<unsigned long>,std::allocator<std::pair<unsigned long const ,int> >,0> >::iterator::operator++
; Function compile flags: /Ogty
;	COMDAT ??Eiterator@?$_Tree@V?$_Tmap_traits@KHU?$less@K@std@@V?$allocator@U?$pair@$$CBKH@std@@@2@$0A@@std@@@std@@QAE?AV012@H@Z
_TEXT	SEGMENT
___$ReturnUdt$ = 8					; size = 4
___formal$ = 12						; size = 4
??Eiterator@?$_Tree@V?$_Tmap_traits@KHU?$less@K@std@@V?$allocator@U?$pair@$$CBKH@std@@@2@$0A@@std@@@std@@QAE?AV012@H@Z PROC NEAR ; std::_Tree<std::_Tmap_traits<unsigned long,int,std::less<unsigned long>,std::allocator<std::pair<unsigned long const ,int> >,0> >::iterator::operator++, COMDAT
; _this$ = ecx

; 332  : 			{	// postincrement

  00000	56		 push	 esi

; 333  : 			iterator _Tmp = *this;

  00001	8b 31		 mov	 esi, DWORD PTR [ecx]

; 334  : 			++*this;

  00003	e8 00 00 00 00	 call	 ?_Inc@const_iterator@?$_Tree@V?$_Tmap_traits@KHU?$less@K@std@@V?$allocator@U?$pair@$$CBKH@std@@@2@$0A@@std@@@std@@QAEXXZ ; std::_Tree<std::_Tmap_traits<unsigned long,int,std::less<unsigned long>,std::allocator<std::pair<unsigned long const ,int> >,0> >::const_iterator::_Inc

; 335  : 			return (_Tmp);

  00008	8b 44 24 08	 mov	 eax, DWORD PTR ___$ReturnUdt$[esp]
  0000c	89 30		 mov	 DWORD PTR [eax], esi
  0000e	5e		 pop	 esi

; 336  : 			}

  0000f	c2 08 00	 ret	 8
??Eiterator@?$_Tree@V?$_Tmap_traits@KHU?$less@K@std@@V?$allocator@U?$pair@$$CBKH@std@@@2@$0A@@std@@@std@@QAE?AV012@H@Z ENDP ; std::_Tree<std::_Tmap_traits<unsigned long,int,std::less<unsigned long>,std::allocator<std::pair<unsigned long const ,int> >,0> >::iterator::operator++
_TEXT	ENDS
PUBLIC	?IsFirstPath@CPatrolPath@@QAEHK@Z		; CPatrolPath::IsFirstPath
; Function compile flags: /Ogty
; File c:\documents and settings\test\mes documents\source\virtuos_v17\build\program\_common\pathobj.cpp
;	COMDAT ?IsFirstPath@CPatrolPath@@QAEHK@Z
_TEXT	SEGMENT
_it$ = -4						; size = 4
tv95 = 8						; size = 4
_dwIndex$ = 8						; size = 4
?IsFirstPath@CPatrolPath@@QAEHK@Z PROC NEAR		; CPatrolPath::IsFirstPath, COMDAT
; _this$ = ecx

; 138  : {

  00000	51		 push	 ecx
  00001	56		 push	 esi
  00002	8b f1		 mov	 esi, ecx

; 139  : 	map< DWORD, vector<_VECINFO> >::iterator it = m_mapPatrolPath.find( dwIndex );

  00004	8d 44 24 0c	 lea	 eax, DWORD PTR _dwIndex$[esp+4]
  00008	50		 push	 eax
  00009	8d 4c 24 08	 lea	 ecx, DWORD PTR _it$[esp+12]
  0000d	51		 push	 ecx
  0000e	8b ce		 mov	 ecx, esi
  00010	e8 00 00 00 00	 call	 ?find@?$_Tree@V?$_Tmap_traits@KV?$vector@U_VECINFO@@V?$allocator@U_VECINFO@@@std@@@std@@U?$less@K@2@V?$allocator@U?$pair@$$CBKV?$vector@U_VECINFO@@V?$allocator@U_VECINFO@@@std@@@std@@@std@@@2@$0A@@std@@@std@@QAE?AViterator@12@ABK@Z ; std::_Tree<std::_Tmap_traits<unsigned long,std::vector<_VECINFO,std::allocator<_VECINFO> >,std::less<unsigned long>,std::allocator<std::pair<unsigned long const ,std::vector<_VECINFO,std::allocator<_VECINFO> > > >,0> >::find

; 140  : 	
; 141  : 	//  
; 142  : 	if( it != m_mapPatrolPath.end() )

  00015	8b 46 04	 mov	 eax, DWORD PTR [esi+4]
  00018	8b 4c 24 04	 mov	 ecx, DWORD PTR _it$[esp+8]
  0001c	3b c8		 cmp	 ecx, eax
  0001e	5e		 pop	 esi
  0001f	74 2e		 je	 SHORT $L226115

; 143  : 	{
; 144  : 		if( it->second.size() == 0 )

  00021	8b 41 14	 mov	 eax, DWORD PTR [ecx+20]
  00024	85 c0		 test	 eax, eax
  00026	74 1e		 je	 SHORT $L232402
  00028	8b 49 18	 mov	 ecx, DWORD PTR [ecx+24]
  0002b	2b c8		 sub	 ecx, eax
  0002d	b8 93 24 49 92	 mov	 eax, -1840700269	; 92492493H
  00032	f7 e9		 imul	 ecx
  00034	03 d1		 add	 edx, ecx
  00036	c1 fa 05	 sar	 edx, 5
  00039	8b c2		 mov	 eax, edx
  0003b	c1 e8 1f	 shr	 eax, 31			; 0000001fH
  0003e	03 c2		 add	 eax, edx
  00040	89 44 24 08	 mov	 DWORD PTR tv95[esp], eax
  00044	75 09		 jne	 SHORT $L226115
$L232402:

; 145  : 			return TRUE;

  00046	b8 01 00 00 00	 mov	 eax, 1

; 149  : }

  0004b	59		 pop	 ecx
  0004c	c2 04 00	 ret	 4
$L226115:

; 146  : 	}
; 147  : 
; 148  : 	return FALSE;

  0004f	33 c0		 xor	 eax, eax

; 149  : }

  00051	59		 pop	 ecx
  00052	c2 04 00	 ret	 4
?IsFirstPath@CPatrolPath@@QAEHK@Z ENDP			; CPatrolPath::IsFirstPath
_TEXT	ENDS
PUBLIC	??0?$_Tree@V?$_Tmap_traits@KHU?$less@K@std@@V?$allocator@U?$pair@$$CBKH@std@@@2@$0A@@std@@@std@@QAE@ABU?$less@K@1@ABV?$allocator@U?$pair@$$CBKH@std@@@1@@Z ; std::_Tree<std::_Tmap_traits<unsigned long,int,std::less<unsigned long>,std::allocator<std::pair<unsigned long const ,int> >,0> >::_Tree<std::_Tmap_traits<unsigned long,int,std::less<unsigned long>,std::allocator<std::pair<unsigned long const ,int> >,0> >
; Function compile flags: /Ogty
; File c:\program files\microsoft visual studio .net 2003\vc7\include\xtree
;	COMDAT ??0?$_Tree@V?$_Tmap_traits@KHU?$less@K@std@@V?$allocator@U?$pair@$$CBKH@std@@@2@$0A@@std@@@std@@QAE@ABU?$less@K@1@ABV?$allocator@U?$pair@$$CBKH@std@@@1@@Z
_TEXT	SEGMENT
__Parg$ = 8						; size = 4
__Al$ = 12						; size = 4
??0?$_Tree@V?$_Tmap_traits@KHU?$less@K@std@@V?$allocator@U?$pair@$$CBKH@std@@@2@$0A@@std@@@std@@QAE@ABU?$less@K@1@ABV?$allocator@U?$pair@$$CBKH@std@@@1@@Z PROC NEAR ; std::_Tree<std::_Tmap_traits<unsigned long,int,std::less<unsigned long>,std::allocator<std::pair<unsigned long const ,int> >,0> >::_Tree<std::_Tmap_traits<unsigned long,int,std::less<unsigned long>,std::allocator<std::pair<unsigned long const ,int> >,0> >, COMDAT
; _this$ = ecx

; 361  : 		{	// construct empty tree

  00000	56		 push	 esi
  00001	8b f1		 mov	 esi, ecx

; 362  : 		_Init();

  00003	e8 00 00 00 00	 call	 ?_Buynode@?$_Tree@V?$_Tmap_traits@KHU?$less@K@std@@V?$allocator@U?$pair@$$CBKH@std@@@2@$0A@@std@@@std@@IAEPAU_Node@?$_Tree_nod@V?$_Tmap_traits@KHU?$less@K@std@@V?$allocator@U?$pair@$$CBKH@std@@@2@$0A@@std@@@2@XZ ; std::_Tree<std::_Tmap_traits<unsigned long,int,std::less<unsigned long>,std::allocator<std::pair<unsigned long const ,int> >,0> >::_Buynode
  00008	89 46 04	 mov	 DWORD PTR [esi+4], eax
  0000b	c6 40 15 01	 mov	 BYTE PTR [eax+21], 1
  0000f	8b 46 04	 mov	 eax, DWORD PTR [esi+4]
  00012	89 40 04	 mov	 DWORD PTR [eax+4], eax
  00015	8b 46 04	 mov	 eax, DWORD PTR [esi+4]
  00018	89 00		 mov	 DWORD PTR [eax], eax
  0001a	8b 46 04	 mov	 eax, DWORD PTR [esi+4]
  0001d	89 40 08	 mov	 DWORD PTR [eax+8], eax
  00020	c7 46 08 00 00
	00 00		 mov	 DWORD PTR [esi+8], 0

; 363  : 		}

  00027	8b c6		 mov	 eax, esi
  00029	5e		 pop	 esi
  0002a	c2 08 00	 ret	 8
??0?$_Tree@V?$_Tmap_traits@KHU?$less@K@std@@V?$allocator@U?$pair@$$CBKH@std@@@2@$0A@@std@@@std@@QAE@ABU?$less@K@1@ABV?$allocator@U?$pair@$$CBKH@std@@@1@@Z ENDP ; std::_Tree<std::_Tmap_traits<unsigned long,int,std::less<unsigned long>,std::allocator<std::pair<unsigned long const ,int> >,0> >::_Tree<std::_Tmap_traits<unsigned long,int,std::less<unsigned long>,std::allocator<std::pair<unsigned long const ,int> >,0> >
_TEXT	ENDS
PUBLIC	?_Ufill@?$vector@UD3DXVECTOR3@@V?$allocator@UD3DXVECTOR3@@@std@@@std@@IAEPAUD3DXVECTOR3@@PAU3@IABU3@@Z ; std::vector<D3DXVECTOR3,std::allocator<D3DXVECTOR3> >::_Ufill
; Function compile flags: /Ogty
; File c:\program files\microsoft visual studio .net 2003\vc7\include\vector
;	COMDAT ?_Ufill@?$vector@UD3DXVECTOR3@@V?$allocator@UD3DXVECTOR3@@@std@@@std@@IAEPAUD3DXVECTOR3@@PAU3@IABU3@@Z
_TEXT	SEGMENT
__Ptr$ = 8						; size = 4
__Count$ = 12						; size = 4
__Cat$232536 = 16					; size = 1
__Val$ = 16						; size = 4
?_Ufill@?$vector@UD3DXVECTOR3@@V?$allocator@UD3DXVECTOR3@@@std@@@std@@IAEPAUD3DXVECTOR3@@PAU3@IABU3@@Z PROC NEAR ; std::vector<D3DXVECTOR3,std::allocator<D3DXVECTOR3> >::_Ufill, COMDAT
; _this$ = ecx

; 878  : 		_Uninitialized_fill_n(_Ptr, _Count, _Val, this->_Alval);

  00000	8b 44 24 0c	 mov	 eax, DWORD PTR __Cat$232536[esp-4]
  00004	56		 push	 esi
  00005	8b 74 24 0c	 mov	 esi, DWORD PTR __Count$[esp]
  00009	57		 push	 edi
  0000a	8b 7c 24 0c	 mov	 edi, DWORD PTR __Ptr$[esp+4]
  0000e	50		 push	 eax
  0000f	51		 push	 ecx
  00010	8b 4c 24 1c	 mov	 ecx, DWORD PTR __Val$[esp+12]
  00014	51		 push	 ecx
  00015	56		 push	 esi
  00016	57		 push	 edi
  00017	e8 00 00 00 00	 call	 ??$_Uninit_fill_n@PAUD3DXVECTOR3@@IU1@V?$allocator@UD3DXVECTOR3@@@std@@@std@@YAXPAUD3DXVECTOR3@@IABU1@AAV?$allocator@UD3DXVECTOR3@@@0@U_Nonscalar_ptr_iterator_tag@0@@Z ; std::_Uninit_fill_n<D3DXVECTOR3 *,unsigned int,D3DXVECTOR3,std::allocator<D3DXVECTOR3> >

; 879  : 		return (_Ptr + _Count);

  0001c	8d 14 76	 lea	 edx, DWORD PTR [esi+esi*2]
  0001f	83 c4 14	 add	 esp, 20			; 00000014H
  00022	8d 04 97	 lea	 eax, DWORD PTR [edi+edx*4]
  00025	5f		 pop	 edi
  00026	5e		 pop	 esi

; 880  : 		}

  00027	c2 0c 00	 ret	 12			; 0000000cH
?_Ufill@?$vector@UD3DXVECTOR3@@V?$allocator@UD3DXVECTOR3@@@std@@@std@@IAEPAUD3DXVECTOR3@@PAU3@IABU3@@Z ENDP ; std::vector<D3DXVECTOR3,std::allocator<D3DXVECTOR3> >::_Ufill
_TEXT	ENDS
PUBLIC	??0?$_Tree@V?$_Tmap_traits@KV?$vector@U_VECINFO@@V?$allocator@U_VECINFO@@@std@@@std@@U?$less@K@2@V?$allocator@U?$pair@$$CBKV?$vector@U_VECINFO@@V?$allocator@U_VECINFO@@@std@@@std@@@std@@@2@$0A@@std@@@std@@QAE@ABU?$less@K@1@ABV?$allocator@U?$pair@$$CBKV?$vector@U_VECINFO@@V?$allocator@U_VECINFO@@@std@@@std@@@std@@@1@@Z ; std::_Tree<std::_Tmap_traits<unsigned long,std::vector<_VECINFO,std::allocator<_VECINFO> >,std::less<unsigned long>,std::allocator<std::pair<unsigned long const ,std::vector<_VECINFO,std::allocator<_VECINFO> > > >,0> >::_Tree<std::_Tmap_traits<unsigned long,std::vector<_VECINFO,std::allocator<_VECINFO> >,std::less<unsigned long>,std::allocator<std::pair<unsigned long const ,std::vector<_VECINFO,std::allocator<_VECINFO> > > >,0> >
; Function compile flags: /Ogty
; File c:\program files\microsoft visual studio .net 2003\vc7\include\xtree
;	COMDAT ??0?$_Tree@V?$_Tmap_traits@KV?$vector@U_VECINFO@@V?$allocator@U_VECINFO@@@std@@@std@@U?$less@K@2@V?$allocator@U?$pair@$$CBKV?$vector@U_VECINFO@@V?$allocator@U_VECINFO@@@std@@@std@@@std@@@2@$0A@@std@@@std@@QAE@ABU?$less@K@1@ABV?$allocator@U?$pair@$$CBKV?$vector@U_VECINFO@@V?$allocator@U_VECINFO@@@std@@@std@@@std@@@1@@Z
_TEXT	SEGMENT
__Parg$ = 8						; size = 4
__Al$ = 12						; size = 4
??0?$_Tree@V?$_Tmap_traits@KV?$vector@U_VECINFO@@V?$allocator@U_VECINFO@@@std@@@std@@U?$less@K@2@V?$allocator@U?$pair@$$CBKV?$vector@U_VECINFO@@V?$allocator@U_VECINFO@@@std@@@std@@@std@@@2@$0A@@std@@@std@@QAE@ABU?$less@K@1@ABV?$allocator@U?$pair@$$CBKV?$vector@U_VECINFO@@V?$allocator@U_VECINFO@@@std@@@std@@@std@@@1@@Z PROC NEAR ; std::_Tree<std::_Tmap_traits<unsigned long,std::vector<_VECINFO,std::allocator<_VECINFO> >,std::less<unsigned long>,std::allocator<std::pair<unsigned long const ,std::vector<_VECINFO,std::allocator<_VECINFO> > > >,0> >::_Tree<std::_Tmap_traits<unsigned long,std::vector<_VECINFO,std::allocator<_VECINFO> >,std::less<unsigned long>,std::allocator<std::pair<unsigned long const ,std::vector<_VECINFO,std::allocator<_VECINFO> > > >,0> >, COMDAT
; _this$ = ecx

; 361  : 		{	// construct empty tree

  00000	56		 push	 esi
  00001	8b f1		 mov	 esi, ecx

; 362  : 		_Init();

  00003	e8 00 00 00 00	 call	 ?_Buynode@?$_Tree@V?$_Tmap_traits@KV?$vector@U_VECINFO@@V?$allocator@U_VECINFO@@@std@@@std@@U?$less@K@2@V?$allocator@U?$pair@$$CBKV?$vector@U_VECINFO@@V?$allocator@U_VECINFO@@@std@@@std@@@std@@@2@$0A@@std@@@std@@IAEPAU_Node@?$_Tree_nod@V?$_Tmap_traits@KV?$vector@U_VECINFO@@V?$allocator@U_VECINFO@@@std@@@std@@U?$less@K@2@V?$allocator@U?$pair@$$CBKV?$vector@U_VECINFO@@V?$allocator@U_VECINFO@@@std@@@std@@@std@@@2@$0A@@std@@@2@XZ ; std::_Tree<std::_Tmap_traits<unsigned long,std::vector<_VECINFO,std::allocator<_VECINFO> >,std::less<unsigned long>,std::allocator<std::pair<unsigned long const ,std::vector<_VECINFO,std::allocator<_VECINFO> > > >,0> >::_Buynode
  00008	89 46 04	 mov	 DWORD PTR [esi+4], eax
  0000b	c6 40 21 01	 mov	 BYTE PTR [eax+33], 1
  0000f	8b 46 04	 mov	 eax, DWORD PTR [esi+4]
  00012	89 40 04	 mov	 DWORD PTR [eax+4], eax
  00015	8b 46 04	 mov	 eax, DWORD PTR [esi+4]
  00018	89 00		 mov	 DWORD PTR [eax], eax
  0001a	8b 46 04	 mov	 eax, DWORD PTR [esi+4]
  0001d	89 40 08	 mov	 DWORD PTR [eax+8], eax
  00020	c7 46 08 00 00
	00 00		 mov	 DWORD PTR [esi+8], 0

; 363  : 		}

  00027	8b c6		 mov	 eax, esi
  00029	5e		 pop	 esi
  0002a	c2 08 00	 ret	 8
??0?$_Tree@V?$_Tmap_traits@KV?$vector@U_VECINFO@@V?$allocator@U_VECINFO@@@std@@@std@@U?$less@K@2@V?$allocator@U?$pair@$$CBKV?$vector@U_VECINFO@@V?$allocator@U_VECINFO@@@std@@@std@@@std@@@2@$0A@@std@@@std@@QAE@ABU?$less@K@1@ABV?$allocator@U?$pair@$$CBKV?$vector@U_VECINFO@@V?$allocator@U_VECINFO@@@std@@@std@@@std@@@1@@Z ENDP ; std::_Tree<std::_Tmap_traits<unsigned long,std::vector<_VECINFO,std::allocator<_VECINFO> >,std::less<unsigned long>,std::allocator<std::pair<unsigned long const ,std::vector<_VECINFO,std::allocator<_VECINFO> > > >,0> >::_Tree<std::_Tmap_traits<unsigned long,std::vector<_VECINFO,std::allocator<_VECINFO> >,std::less<unsigned long>,std::allocator<std::pair<unsigned long const ,std::vector<_VECINFO,std::allocator<_VECINFO> > > >,0> >
_TEXT	ENDS
PUBLIC	??$_Uninitialized_copy@Vconst_iterator@?$vector@U_VECINFO@@V?$allocator@U_VECINFO@@@std@@@std@@PAU_VECINFO@@V?$allocator@U_VECINFO@@@3@@std@@YAPAU_VECINFO@@Vconst_iterator@?$vector@U_VECINFO@@V?$allocator@U_VECINFO@@@std@@@0@0PAU1@AAV?$allocator@U_VECINFO@@@0@@Z ; std::_Uninitialized_copy<std::vector<_VECINFO,std::allocator<_VECINFO> >::const_iterator,_VECINFO *,std::allocator<_VECINFO> >
; Function compile flags: /Ogty
; File c:\program files\microsoft visual studio .net 2003\vc7\include\memory
;	COMDAT ??$_Uninitialized_copy@Vconst_iterator@?$vector@U_VECINFO@@V?$allocator@U_VECINFO@@@std@@@std@@PAU_VECINFO@@V?$allocator@U_VECINFO@@@3@@std@@YAPAU_VECINFO@@Vconst_iterator@?$vector@U_VECINFO@@V?$allocator@U_VECINFO@@@std@@@0@0PAU1@AAV?$allocator@U_VECINFO@@@0@@Z
_TEXT	SEGMENT
__Cat$232666 = -4					; size = 1
__First$ = 8						; size = 4
__Last$ = 12						; size = 4
__Dest$ = 16						; size = 4
__Al$ = 20						; size = 4
??$_Uninitialized_copy@Vconst_iterator@?$vector@U_VECINFO@@V?$allocator@U_VECINFO@@@std@@@std@@PAU_VECINFO@@V?$allocator@U_VECINFO@@@3@@std@@YAPAU_VECINFO@@Vconst_iterator@?$vector@U_VECINFO@@V?$allocator@U_VECINFO@@@std@@@0@0PAU1@AAV?$allocator@U_VECINFO@@@0@@Z PROC NEAR ; std::_Uninitialized_copy<std::vector<_VECINFO,std::allocator<_VECINFO> >::const_iterator,_VECINFO *,std::allocator<_VECINFO> >, COMDAT

; 126  : 	{	// copy [_First, _Last) to raw _Dest, using _Al

  00000	51		 push	 ecx

; 127  : 	return (_Uninit_copy(_First, _Last, _Dest, _Al,
; 128  : 		_Ptr_cat(_First, _Dest)));

  00001	8b 04 24	 mov	 eax, DWORD PTR __Cat$232666[esp+4]
  00004	8b 4c 24 14	 mov	 ecx, DWORD PTR __Al$[esp]
  00008	8b 54 24 10	 mov	 edx, DWORD PTR __Dest$[esp]
  0000c	50		 push	 eax
  0000d	8b 44 24 10	 mov	 eax, DWORD PTR __Last$[esp+4]
  00011	51		 push	 ecx
  00012	8b 4c 24 10	 mov	 ecx, DWORD PTR __First$[esp+8]
  00016	52		 push	 edx
  00017	50		 push	 eax
  00018	51		 push	 ecx
  00019	e8 00 00 00 00	 call	 ??$_Uninit_copy@Vconst_iterator@?$vector@U_VECINFO@@V?$allocator@U_VECINFO@@@std@@@std@@PAU_VECINFO@@V?$allocator@U_VECINFO@@@3@@std@@YAPAU_VECINFO@@Vconst_iterator@?$vector@U_VECINFO@@V?$allocator@U_VECINFO@@@std@@@0@0PAU1@AAV?$allocator@U_VECINFO@@@0@U_Nonscalar_ptr_iterator_tag@0@@Z ; std::_Uninit_copy<std::vector<_VECINFO,std::allocator<_VECINFO> >::const_iterator,_VECINFO *,std::allocator<_VECINFO> >

; 129  : 	}

  0001e	83 c4 18	 add	 esp, 24			; 00000018H
  00021	c3		 ret	 0
??$_Uninitialized_copy@Vconst_iterator@?$vector@U_VECINFO@@V?$allocator@U_VECINFO@@@std@@@std@@PAU_VECINFO@@V?$allocator@U_VECINFO@@@3@@std@@YAPAU_VECINFO@@Vconst_iterator@?$vector@U_VECINFO@@V?$allocator@U_VECINFO@@@std@@@0@0PAU1@AAV?$allocator@U_VECINFO@@@0@@Z ENDP ; std::_Uninitialized_copy<std::vector<_VECINFO,std::allocator<_VECINFO> >::const_iterator,_VECINFO *,std::allocator<_VECINFO> >
_TEXT	ENDS
PUBLIC	??$_Uninit_fill_n@PAU_VECINFO@@IU1@V?$allocator@U_VECINFO@@@std@@@std@@YAXPAU_VECINFO@@IABU1@AAV?$allocator@U_VECINFO@@@0@U_Nonscalar_ptr_iterator_tag@0@@Z ; std::_Uninit_fill_n<_VECINFO *,unsigned int,_VECINFO,std::allocator<_VECINFO> >
; Function compile flags: /Ogty
;	COMDAT ??$_Uninit_fill_n@PAU_VECINFO@@IU1@V?$allocator@U_VECINFO@@@std@@@std@@YAXPAU_VECINFO@@IABU1@AAV?$allocator@U_VECINFO@@@0@U_Nonscalar_ptr_iterator_tag@0@@Z
_TEXT	SEGMENT
tv387 = -4						; size = 4
__First$ = 8						; size = 4
__Count$ = 12						; size = 4
__Val$ = 16						; size = 4
__Al$ = 20						; size = 4
___formal$ = 24						; size = 1
??$_Uninit_fill_n@PAU_VECINFO@@IU1@V?$allocator@U_VECINFO@@@std@@@std@@YAXPAU_VECINFO@@IABU1@AAV?$allocator@U_VECINFO@@@0@U_Nonscalar_ptr_iterator_tag@0@@Z PROC NEAR ; std::_Uninit_fill_n<_VECINFO *,unsigned int,_VECINFO,std::allocator<_VECINFO> >, COMDAT

; 207  : 	{	// copy _Count *_Val to raw _First, using _Al, arbitrary type

  00000	55		 push	 ebp
  00001	8b ec		 mov	 ebp, esp
  00003	83 e4 f8	 and	 esp, -8			; fffffff8H
  00006	51		 push	 ecx

; 208  : 	_FwdIt _Next = _First;
; 209  : 
; 210  : 	_TRY_BEGIN
; 211  : 	for (; 0 < _Count; --_Count, ++_First)

  00007	8b 4d 0c	 mov	 ecx, DWORD PTR __Count$[ebp]
  0000a	85 c9		 test	 ecx, ecx
  0000c	53		 push	 ebx
  0000d	56		 push	 esi
  0000e	57		 push	 edi
  0000f	76 62		 jbe	 SHORT $L228088
  00011	8b 55 08	 mov	 edx, DWORD PTR __First$[ebp]
  00014	89 4c 24 0c	 mov	 DWORD PTR tv387[esp+16], ecx
  00018	8b 4d 10	 mov	 ecx, DWORD PTR __Val$[ebp]
  0001b	8d 42 28	 lea	 eax, DWORD PTR [edx+40]
  0001e	8b ff		 npad	 2
$L228086:

; 212  : 		_Al.construct(_First, _Val);

  00020	85 d2		 test	 edx, edx
  00022	74 3e		 je	 SHORT $L228087
  00024	8b f1		 mov	 esi, ecx
  00026	8b 1e		 mov	 ebx, DWORD PTR [esi]
  00028	8b fa		 mov	 edi, edx
  0002a	89 1f		 mov	 DWORD PTR [edi], ebx
  0002c	8b 5e 04	 mov	 ebx, DWORD PTR [esi+4]
  0002f	89 5f 04	 mov	 DWORD PTR [edi+4], ebx
  00032	8b 76 08	 mov	 esi, DWORD PTR [esi+8]
  00035	89 77 08	 mov	 DWORD PTR [edi+8], esi
  00038	8b 71 0c	 mov	 esi, DWORD PTR [ecx+12]
  0003b	89 70 e4	 mov	 DWORD PTR [eax-28], esi
  0003e	8b 71 10	 mov	 esi, DWORD PTR [ecx+16]
  00041	89 70 e8	 mov	 DWORD PTR [eax-24], esi
  00044	8b 71 14	 mov	 esi, DWORD PTR [ecx+20]
  00047	89 70 ec	 mov	 DWORD PTR [eax-20], esi
  0004a	c7 40 f0 00 00
	00 00		 mov	 DWORD PTR [eax-16], OFFSET FLAT:??_7CTimer@@6B@
  00051	dd 41 20	 fld	 QWORD PTR [ecx+32]
  00054	dd 58 f8	 fstp	 QWORD PTR [eax-8]
  00057	dd 41 28	 fld	 QWORD PTR [ecx+40]
  0005a	dd 18		 fstp	 QWORD PTR [eax]
  0005c	8b 71 30	 mov	 esi, DWORD PTR [ecx+48]
  0005f	89 70 08	 mov	 DWORD PTR [eax+8], esi
$L228087:
  00062	8b 74 24 0c	 mov	 esi, DWORD PTR tv387[esp+16]
  00066	83 c2 38	 add	 edx, 56			; 00000038H
  00069	83 c0 38	 add	 eax, 56			; 00000038H
  0006c	4e		 dec	 esi
  0006d	89 74 24 0c	 mov	 DWORD PTR tv387[esp+16], esi
  00071	75 ad		 jne	 SHORT $L228086
$L228088:

; 213  : 	_CATCH_ALL
; 214  : 	for (; _Next != _First; ++_Next)
; 215  : 		_Al.destroy(_Next);
; 216  : 	_RERAISE;
; 217  : 	_CATCH_END
; 218  : 	}

  00073	5f		 pop	 edi
  00074	5e		 pop	 esi
  00075	5b		 pop	 ebx
  00076	8b e5		 mov	 esp, ebp
  00078	5d		 pop	 ebp
  00079	c3		 ret	 0
??$_Uninit_fill_n@PAU_VECINFO@@IU1@V?$allocator@U_VECINFO@@@std@@@std@@YAXPAU_VECINFO@@IABU1@AAV?$allocator@U_VECINFO@@@0@U_Nonscalar_ptr_iterator_tag@0@@Z ENDP ; std::_Uninit_fill_n<_VECINFO *,unsigned int,_VECINFO,std::allocator<_VECINFO> >
_TEXT	ENDS
PUBLIC	??$_Destroy_range@U_VECINFO@@V?$allocator@U_VECINFO@@@std@@@std@@YAXPAU_VECINFO@@0AAV?$allocator@U_VECINFO@@@0@U_Nonscalar_ptr_iterator_tag@0@@Z ; std::_Destroy_range<_VECINFO,std::allocator<_VECINFO> >
; Function compile flags: /Ogty
; File c:\program files\microsoft visual studio .net 2003\vc7\include\xmemory
;	COMDAT ??$_Destroy_range@U_VECINFO@@V?$allocator@U_VECINFO@@@std@@@std@@YAXPAU_VECINFO@@0AAV?$allocator@U_VECINFO@@@0@U_Nonscalar_ptr_iterator_tag@0@@Z
_TEXT	SEGMENT
__First$ = 8						; size = 4
__Last$ = 12						; size = 4
__Al$ = 16						; size = 4
___formal$ = 20						; size = 1
??$_Destroy_range@U_VECINFO@@V?$allocator@U_VECINFO@@@std@@@std@@YAXPAU_VECINFO@@0AAV?$allocator@U_VECINFO@@@0@U_Nonscalar_ptr_iterator_tag@0@@Z PROC NEAR ; std::_Destroy_range<_VECINFO,std::allocator<_VECINFO> >, COMDAT

; 224  : 	{	// destroy [_First, _Last), arbitrary type

  00000	56		 push	 esi

; 225  : 	for (; _First != _Last; ++_First)

  00001	8b 74 24 08	 mov	 esi, DWORD PTR __First$[esp]
  00005	57		 push	 edi
  00006	8b 7c 24 10	 mov	 edi, DWORD PTR __Last$[esp+4]
  0000a	3b f7		 cmp	 esi, edi
  0000c	74 10		 je	 SHORT $L228139
  0000e	8b ff		 npad	 2
$L228137:

; 226  : 		_Al.destroy(_First);

  00010	8b ce		 mov	 ecx, esi
  00012	e8 00 00 00 00	 call	 ??1_VECINFO@@QAE@XZ
  00017	83 c6 38	 add	 esi, 56			; 00000038H
  0001a	3b f7		 cmp	 esi, edi
  0001c	75 f2		 jne	 SHORT $L228137
$L228139:
  0001e	5f		 pop	 edi
  0001f	5e		 pop	 esi

; 227  : 	}

  00020	c3		 ret	 0
??$_Destroy_range@U_VECINFO@@V?$allocator@U_VECINFO@@@std@@@std@@YAXPAU_VECINFO@@0AAV?$allocator@U_VECINFO@@@0@U_Nonscalar_ptr_iterator_tag@0@@Z ENDP ; std::_Destroy_range<_VECINFO,std::allocator<_VECINFO> >
_TEXT	ENDS
PUBLIC	??$_Uninitialized_copy@PAU_VECINFO@@PAU1@V?$allocator@U_VECINFO@@@std@@@std@@YAPAU_VECINFO@@PAU1@00AAV?$allocator@U_VECINFO@@@0@@Z ; std::_Uninitialized_copy<_VECINFO *,_VECINFO *,std::allocator<_VECINFO> >
; Function compile flags: /Ogty
; File c:\program files\microsoft visual studio .net 2003\vc7\include\memory
;	COMDAT ??$_Uninitialized_copy@PAU_VECINFO@@PAU1@V?$allocator@U_VECINFO@@@std@@@std@@YAPAU_VECINFO@@PAU1@00AAV?$allocator@U_VECINFO@@@0@@Z
_TEXT	SEGMENT
__Cat$232786 = -4					; size = 1
__First$ = 8						; size = 4
__Last$ = 12						; size = 4
__Dest$ = 16						; size = 4
__Al$ = 20						; size = 4
??$_Uninitialized_copy@PAU_VECINFO@@PAU1@V?$allocator@U_VECINFO@@@std@@@std@@YAPAU_VECINFO@@PAU1@00AAV?$allocator@U_VECINFO@@@0@@Z PROC NEAR ; std::_Uninitialized_copy<_VECINFO *,_VECINFO *,std::allocator<_VECINFO> >, COMDAT

; 126  : 	{	// copy [_First, _Last) to raw _Dest, using _Al

  00000	51		 push	 ecx

; 127  : 	return (_Uninit_copy(_First, _Last, _Dest, _Al,
; 128  : 		_Ptr_cat(_First, _Dest)));

  00001	8b 04 24	 mov	 eax, DWORD PTR __Cat$232786[esp+4]
  00004	8b 4c 24 14	 mov	 ecx, DWORD PTR __Al$[esp]
  00008	8b 54 24 10	 mov	 edx, DWORD PTR __Dest$[esp]
  0000c	50		 push	 eax
  0000d	8b 44 24 10	 mov	 eax, DWORD PTR __Last$[esp+4]
  00011	51		 push	 ecx
  00012	8b 4c 24 10	 mov	 ecx, DWORD PTR __First$[esp+8]
  00016	52		 push	 edx
  00017	50		 push	 eax
  00018	51		 push	 ecx
  00019	e8 00 00 00 00	 call	 ??$_Uninit_copy@PAU_VECINFO@@PAU1@V?$allocator@U_VECINFO@@@std@@@std@@YAPAU_VECINFO@@PAU1@00AAV?$allocator@U_VECINFO@@@0@U_Nonscalar_ptr_iterator_tag@0@@Z ; std::_Uninit_copy<_VECINFO *,_VECINFO *,std::allocator<_VECINFO> >

; 129  : 	}

  0001e	83 c4 18	 add	 esp, 24			; 00000018H
  00021	c3		 ret	 0
??$_Uninitialized_copy@PAU_VECINFO@@PAU1@V?$allocator@U_VECINFO@@@std@@@std@@YAPAU_VECINFO@@PAU1@00AAV?$allocator@U_VECINFO@@@0@@Z ENDP ; std::_Uninitialized_copy<_VECINFO *,_VECINFO *,std::allocator<_VECINFO> >
_TEXT	ENDS
PUBLIC	??1logic_error@std@@UAE@XZ			; std::logic_error::~logic_error
PUBLIC	?what@logic_error@std@@UBEPBDXZ			; std::logic_error::what
PUBLIC	??_7logic_error@std@@6B@			; std::logic_error::`vftable'
PUBLIC	??_Glogic_error@std@@UAEPAXI@Z			; std::logic_error::`scalar deleting destructor'
EXTRN	??1exception@@UAE@XZ:NEAR			; exception::~exception
EXTRN	??_Elogic_error@std@@UAEPAXI@Z:NEAR		; std::logic_error::`vector deleting destructor'
;	COMDAT ??_7logic_error@std@@6B@
; File c:\program files\microsoft visual studio .net 2003\vc7\include\iosfwd
CONST	SEGMENT
??_7logic_error@std@@6B@ DD FLAT:??_Elogic_error@std@@UAEPAXI@Z ; std::logic_error::`vftable'
	DD	FLAT:?what@logic_error@std@@UBEPBDXZ
; Function compile flags: /Ogty
; File c:\program files\microsoft visual studio .net 2003\vc7\include\stdexcept
CONST	ENDS
;	COMDAT ??1logic_error@std@@UAE@XZ
_TEXT	SEGMENT
??1logic_error@std@@UAE@XZ PROC NEAR			; std::logic_error::~logic_error, COMDAT
; _this$ = ecx

; 23   : 		{}	// destroy the object

  00000	56		 push	 esi
  00001	8b f1		 mov	 esi, ecx
  00003	c7 06 00 00 00
	00		 mov	 DWORD PTR [esi], OFFSET FLAT:??_7logic_error@std@@6B@
  00009	83 7e 24 10	 cmp	 DWORD PTR [esi+36], 16	; 00000010H
  0000d	72 0c		 jb	 SHORT $L232847
  0000f	8b 46 10	 mov	 eax, DWORD PTR [esi+16]
  00012	50		 push	 eax
  00013	e8 00 00 00 00	 call	 ??3@YAXPAX@Z		; operator delete
  00018	83 c4 04	 add	 esp, 4
$L232847:
  0001b	33 c0		 xor	 eax, eax
  0001d	c7 46 24 0f 00
	00 00		 mov	 DWORD PTR [esi+36], 15	; 0000000fH
  00024	89 46 20	 mov	 DWORD PTR [esi+32], eax
  00027	88 46 10	 mov	 BYTE PTR [esi+16], al
  0002a	8b ce		 mov	 ecx, esi
  0002c	5e		 pop	 esi
  0002d	e9 00 00 00 00	 jmp	 ??1exception@@UAE@XZ	; exception::~exception
??1logic_error@std@@UAE@XZ ENDP				; std::logic_error::~logic_error
; Function compile flags: /Ogty
_TEXT	ENDS
;	COMDAT ?what@logic_error@std@@UBEPBDXZ
_TEXT	SEGMENT
?what@logic_error@std@@UBEPBDXZ PROC NEAR		; std::logic_error::what, COMDAT
; _this$ = ecx

; 27   : 		return (_Str.c_str());

  00000	83 79 24 10	 cmp	 DWORD PTR [ecx+36], 16	; 00000010H
  00004	72 04		 jb	 SHORT $L232880
  00006	8b 41 10	 mov	 eax, DWORD PTR [ecx+16]

; 28   : 		}

  00009	c3		 ret	 0

; 27   : 		return (_Str.c_str());

$L232880:
  0000a	8d 41 10	 lea	 eax, DWORD PTR [ecx+16]

; 28   : 		}

  0000d	c3		 ret	 0
?what@logic_error@std@@UBEPBDXZ ENDP			; std::logic_error::what
; Function compile flags: /Ogty
_TEXT	ENDS
;	COMDAT ??_Glogic_error@std@@UAEPAXI@Z
_TEXT	SEGMENT
___flags$ = 8						; size = 4
??_Glogic_error@std@@UAEPAXI@Z PROC NEAR		; std::logic_error::`scalar deleting destructor', COMDAT
; _this$ = ecx
  00000	56		 push	 esi
  00001	8b f1		 mov	 esi, ecx
  00003	e8 00 00 00 00	 call	 ??1logic_error@std@@UAE@XZ ; std::logic_error::~logic_error
  00008	f6 44 24 08 01	 test	 BYTE PTR ___flags$[esp], 1
  0000d	74 09		 je	 SHORT $L232888
  0000f	56		 push	 esi
  00010	e8 00 00 00 00	 call	 ??3@YAXPAX@Z		; operator delete
  00015	83 c4 04	 add	 esp, 4
$L232888:
  00018	8b c6		 mov	 eax, esi
  0001a	5e		 pop	 esi
  0001b	c2 04 00	 ret	 4
??_Glogic_error@std@@UAEPAXI@Z ENDP			; std::logic_error::`scalar deleting destructor'
_TEXT	ENDS
PUBLIC	?assign@?$basic_string@DU?$char_traits@D@std@@V?$allocator@D@2@@std@@QAEAAV12@ABV12@II@Z ; std::basic_string<char,std::char_traits<char>,std::allocator<char> >::assign
; Function compile flags: /Ogty
; File c:\program files\microsoft visual studio .net 2003\vc7\include\xstring
;	COMDAT ?assign@?$basic_string@DU?$char_traits@D@std@@V?$allocator@D@2@@std@@QAEAAV12@ABV12@II@Z
_TEXT	SEGMENT
__Right$ = 8						; size = 4
__Roff$ = 12						; size = 4
__Count$ = 16						; size = 4
?assign@?$basic_string@DU?$char_traits@D@std@@V?$allocator@D@2@@std@@QAEAAV12@ABV12@II@Z PROC NEAR ; std::basic_string<char,std::char_traits<char>,std::allocator<char> >::assign, COMDAT
; _this$ = ecx

; 590  : 		{	// assign _Right [_Roff, _Roff + _Count)

  00000	53		 push	 ebx
  00001	55		 push	 ebp
  00002	56		 push	 esi

; 591  : 		if (_Right.size() < _Roff)

  00003	8b 74 24 14	 mov	 esi, DWORD PTR __Roff$[esp+8]
  00007	57		 push	 edi
  00008	8b 7c 24 14	 mov	 edi, DWORD PTR __Right$[esp+12]
  0000c	39 77 14	 cmp	 DWORD PTR [edi+20], esi
  0000f	8b d9		 mov	 ebx, ecx
  00011	73 05		 jae	 SHORT $L220001

; 592  : 			_String_base::_Xran();	// _Roff off end

  00013	e8 00 00 00 00	 call	 ?_Xran@_String_base@std@@QBEXXZ ; std::_String_base::_Xran
$L220001:

; 593  : 		size_type _Num = _Right.size() - _Roff;

  00018	8b 6f 14	 mov	 ebp, DWORD PTR [edi+20]

; 594  : 		if (_Count < _Num)

  0001b	8b 44 24 1c	 mov	 eax, DWORD PTR __Count$[esp+12]
  0001f	2b ee		 sub	 ebp, esi
  00021	3b c5		 cmp	 eax, ebp
  00023	73 02		 jae	 SHORT $L220003

; 595  : 			_Num = _Count;	// trim _Num to size

  00025	8b e8		 mov	 ebp, eax
$L220003:

; 596  : 
; 597  : 		if (this == &_Right)

  00027	3b df		 cmp	 ebx, edi
  00029	75 1f		 jne	 SHORT $L220004

; 598  : 			erase((size_type)(_Roff + _Num)), erase(0, _Roff);	// substring

  0002b	6a ff		 push	 -1
  0002d	03 ee		 add	 ebp, esi
  0002f	55		 push	 ebp
  00030	8b cb		 mov	 ecx, ebx
  00032	e8 00 00 00 00	 call	 ?erase@?$basic_string@DU?$char_traits@D@std@@V?$allocator@D@2@@std@@QAEAAV12@II@Z ; std::basic_string<char,std::char_traits<char>,std::allocator<char> >::erase
  00037	56		 push	 esi
  00038	6a 00		 push	 0
  0003a	8b cb		 mov	 ecx, ebx
  0003c	e8 00 00 00 00	 call	 ?erase@?$basic_string@DU?$char_traits@D@std@@V?$allocator@D@2@@std@@QAEAAV12@II@Z ; std::basic_string<char,std::char_traits<char>,std::allocator<char> >::erase
  00041	5f		 pop	 edi
  00042	5e		 pop	 esi
  00043	5d		 pop	 ebp

; 603  : 			}
; 604  : 		return (*this);

  00044	8b c3		 mov	 eax, ebx
  00046	5b		 pop	 ebx

; 605  : 		}

  00047	c2 0c 00	 ret	 12			; 0000000cH
$L220004:

; 599  : 		else if (_Grow(_Num))

  0004a	83 fd fe	 cmp	 ebp, -2			; fffffffeH
  0004d	76 07		 jbe	 SHORT $L232997
  0004f	8b cb		 mov	 ecx, ebx
  00051	e8 00 00 00 00	 call	 ?_Xlen@_String_base@std@@QBEXXZ ; std::_String_base::_Xlen
$L232997:
  00056	8b 43 18	 mov	 eax, DWORD PTR [ebx+24]
  00059	3b c5		 cmp	 eax, ebp
  0005b	73 21		 jae	 SHORT $L232998
  0005d	8b 43 14	 mov	 eax, DWORD PTR [ebx+20]
  00060	50		 push	 eax
  00061	55		 push	 ebp
  00062	8b cb		 mov	 ecx, ebx
  00064	e8 00 00 00 00	 call	 ?_Copy@?$basic_string@DU?$char_traits@D@std@@V?$allocator@D@2@@std@@IAEXII@Z ; std::basic_string<char,std::char_traits<char>,std::allocator<char> >::_Copy
  00069	85 ed		 test	 ebp, ebp
$L233085:
  0006b	76 6d		 jbe	 SHORT $L233084

; 600  : 			{	// make room and assign new stuff
; 601  : 			_Traits::copy(_Myptr(), _Right._Myptr() + _Roff, _Num);

  0006d	8b 4f 18	 mov	 ecx, DWORD PTR [edi+24]
  00070	b8 10 00 00 00	 mov	 eax, 16			; 00000010H
  00075	3b c8		 cmp	 ecx, eax
  00077	72 2f		 jb	 SHORT $L233049
  00079	8b 57 04	 mov	 edx, DWORD PTR [edi+4]
  0007c	eb 2d		 jmp	 SHORT $L233050

; 599  : 		else if (_Grow(_Num))

$L232998:
  0007e	85 ed		 test	 ebp, ebp
  00080	75 e9		 jne	 SHORT $L233085
  00082	83 f8 10	 cmp	 eax, 16			; 00000010H
  00085	89 6b 14	 mov	 DWORD PTR [ebx+20], ebp
  00088	72 0f		 jb	 SHORT $L233041
  0008a	8b 43 04	 mov	 eax, DWORD PTR [ebx+4]
  0008d	5f		 pop	 edi
  0008e	5e		 pop	 esi
  0008f	c6 00 00	 mov	 BYTE PTR [eax], 0
  00092	5d		 pop	 ebp

; 603  : 			}
; 604  : 		return (*this);

  00093	8b c3		 mov	 eax, ebx
  00095	5b		 pop	 ebx

; 605  : 		}

  00096	c2 0c 00	 ret	 12			; 0000000cH

; 599  : 		else if (_Grow(_Num))

$L233041:
  00099	5f		 pop	 edi
  0009a	8d 43 04	 lea	 eax, DWORD PTR [ebx+4]
  0009d	5e		 pop	 esi
  0009e	c6 00 00	 mov	 BYTE PTR [eax], 0
  000a1	5d		 pop	 ebp

; 603  : 			}
; 604  : 		return (*this);

  000a2	8b c3		 mov	 eax, ebx
  000a4	5b		 pop	 ebx

; 605  : 		}

  000a5	c2 0c 00	 ret	 12			; 0000000cH

; 600  : 			{	// make room and assign new stuff
; 601  : 			_Traits::copy(_Myptr(), _Right._Myptr() + _Roff, _Num);

$L233049:
  000a8	8d 57 04	 lea	 edx, DWORD PTR [edi+4]
$L233050:
  000ab	39 43 18	 cmp	 DWORD PTR [ebx+24], eax
  000ae	8d 43 04	 lea	 eax, DWORD PTR [ebx+4]
  000b1	72 04		 jb	 SHORT $L233057
  000b3	8b 38		 mov	 edi, DWORD PTR [eax]
  000b5	eb 02		 jmp	 SHORT $L233058
$L233057:
  000b7	8b f8		 mov	 edi, eax
$L233058:
  000b9	03 f2		 add	 esi, edx
  000bb	8b cd		 mov	 ecx, ebp
  000bd	8b d1		 mov	 edx, ecx
  000bf	c1 e9 02	 shr	 ecx, 2
  000c2	f3 a5		 rep movsd
  000c4	8b ca		 mov	 ecx, edx
  000c6	83 e1 03	 and	 ecx, 3
  000c9	f3 a4		 rep movsb

; 602  : 			_Eos(_Num);

  000cb	83 7b 18 10	 cmp	 DWORD PTR [ebx+24], 16	; 00000010H
  000cf	89 6b 14	 mov	 DWORD PTR [ebx+20], ebp
  000d2	72 02		 jb	 SHORT $L233081
  000d4	8b 00		 mov	 eax, DWORD PTR [eax]
$L233081:
  000d6	c6 04 28 00	 mov	 BYTE PTR [eax+ebp], 0
$L233084:
  000da	5f		 pop	 edi
  000db	5e		 pop	 esi
  000dc	5d		 pop	 ebp

; 603  : 			}
; 604  : 		return (*this);

  000dd	8b c3		 mov	 eax, ebx
  000df	5b		 pop	 ebx

; 605  : 		}

  000e0	c2 0c 00	 ret	 12			; 0000000cH
?assign@?$basic_string@DU?$char_traits@D@std@@V?$allocator@D@2@@std@@QAEAAV12@ABV12@II@Z ENDP ; std::basic_string<char,std::char_traits<char>,std::allocator<char> >::assign
_TEXT	ENDS
PUBLIC	?_Tidy@?$vector@UD3DXVECTOR3@@V?$allocator@UD3DXVECTOR3@@@std@@@std@@IAEXXZ ; std::vector<D3DXVECTOR3,std::allocator<D3DXVECTOR3> >::_Tidy
; Function compile flags: /Ogty
; File c:\program files\microsoft visual studio .net 2003\vc7\include\vector
;	COMDAT ?_Tidy@?$vector@UD3DXVECTOR3@@V?$allocator@UD3DXVECTOR3@@@std@@@std@@IAEXXZ
_TEXT	SEGMENT
?_Tidy@?$vector@UD3DXVECTOR3@@V?$allocator@UD3DXVECTOR3@@@std@@@std@@IAEXXZ PROC NEAR ; std::vector<D3DXVECTOR3,std::allocator<D3DXVECTOR3> >::_Tidy, COMDAT
; _this$ = ecx

; 791  : 		{	// free all storage

  00000	56		 push	 esi
  00001	8b f1		 mov	 esi, ecx

; 792  : 		if (_Myfirst != 0)

  00003	8b 46 04	 mov	 eax, DWORD PTR [esi+4]
  00006	85 c0		 test	 eax, eax
  00008	74 09		 je	 SHORT $L233090

; 793  : 			{	// something to free, destroy and deallocate it
; 794  : 			_Destroy(_Myfirst, _Mylast);
; 795  : 			this->_Alval.deallocate(_Myfirst, _Myend - _Myfirst);

  0000a	50		 push	 eax
  0000b	e8 00 00 00 00	 call	 ??3@YAXPAX@Z		; operator delete
  00010	83 c4 04	 add	 esp, 4
$L233090:

; 796  : 			}
; 797  : 		_Myfirst = 0, _Mylast = 0, _Myend = 0;

  00013	c7 46 04 00 00
	00 00		 mov	 DWORD PTR [esi+4], 0
  0001a	c7 46 08 00 00
	00 00		 mov	 DWORD PTR [esi+8], 0
  00021	c7 46 0c 00 00
	00 00		 mov	 DWORD PTR [esi+12], 0
  00028	5e		 pop	 esi

; 798  : 		}

  00029	c3		 ret	 0
?_Tidy@?$vector@UD3DXVECTOR3@@V?$allocator@UD3DXVECTOR3@@@std@@@std@@IAEXXZ ENDP ; std::vector<D3DXVECTOR3,std::allocator<D3DXVECTOR3> >::_Tidy
_TEXT	ENDS
PUBLIC	?assign@?$basic_string@DU?$char_traits@D@std@@V?$allocator@D@2@@std@@QAEAAV12@PBDI@Z ; std::basic_string<char,std::char_traits<char>,std::allocator<char> >::assign
; Function compile flags: /Ogty
; File c:\program files\microsoft visual studio .net 2003\vc7\include\xstring
;	COMDAT ?assign@?$basic_string@DU?$char_traits@D@std@@V?$allocator@D@2@@std@@QAEAAV12@PBDI@Z
_TEXT	SEGMENT
__Ptr$ = 8						; size = 4
__Num$ = 12						; size = 4
?assign@?$basic_string@DU?$char_traits@D@std@@V?$allocator@D@2@@std@@QAEAAV12@PBDI@Z PROC NEAR ; std::basic_string<char,std::char_traits<char>,std::allocator<char> >::assign, COMDAT
; _this$ = ecx

; 608  : 		{	// assign [_Ptr, _Ptr + _Num)

  00000	53		 push	 ebx
  00001	8b d9		 mov	 ebx, ecx

; 609  : 		if (_Inside(_Ptr))

  00003	8b 53 18	 mov	 edx, DWORD PTR [ebx+24]
  00006	83 fa 10	 cmp	 edx, 16			; 00000010H
  00009	56		 push	 esi
  0000a	57		 push	 edi
  0000b	72 05		 jb	 SHORT $L233119
  0000d	8b 43 04	 mov	 eax, DWORD PTR [ebx+4]
  00010	eb 03		 jmp	 SHORT $L233120
$L233119:
  00012	8d 43 04	 lea	 eax, DWORD PTR [ebx+4]
$L233120:
  00015	8b 74 24 10	 mov	 esi, DWORD PTR __Ptr$[esp+8]
  00019	3b f0		 cmp	 esi, eax
  0001b	72 34		 jb	 SHORT $L221367
  0001d	83 fa 10	 cmp	 edx, 16			; 00000010H
  00020	8d 43 04	 lea	 eax, DWORD PTR [ebx+4]
  00023	72 04		 jb	 SHORT $L233123
  00025	8b 08		 mov	 ecx, DWORD PTR [eax]
  00027	eb 02		 jmp	 SHORT $L233124
$L233123:
  00029	8b c8		 mov	 ecx, eax
$L233124:
  0002b	8b 7b 14	 mov	 edi, DWORD PTR [ebx+20]
  0002e	03 f9		 add	 edi, ecx
  00030	3b fe		 cmp	 edi, esi
  00032	76 1d		 jbe	 SHORT $L221367

; 610  : 			return (assign(*this, _Ptr - _Myptr(), _Num));	// substring

  00034	83 fa 10	 cmp	 edx, 16			; 00000010H
  00037	72 02		 jb	 SHORT $L233132
  00039	8b 00		 mov	 eax, DWORD PTR [eax]
$L233132:
  0003b	8b 4c 24 14	 mov	 ecx, DWORD PTR __Num$[esp+8]
  0003f	51		 push	 ecx
  00040	2b f0		 sub	 esi, eax
  00042	56		 push	 esi
  00043	53		 push	 ebx
  00044	8b cb		 mov	 ecx, ebx
  00046	e8 00 00 00 00	 call	 ?assign@?$basic_string@DU?$char_traits@D@std@@V?$allocator@D@2@@std@@QAEAAV12@ABV12@II@Z ; std::basic_string<char,std::char_traits<char>,std::allocator<char> >::assign
  0004b	5f		 pop	 edi
  0004c	5e		 pop	 esi
  0004d	5b		 pop	 ebx

; 618  : 		}

  0004e	c2 08 00	 ret	 8
$L221367:
  00051	55		 push	 ebp

; 611  : 
; 612  : 		if (_Grow(_Num))

  00052	8b 6c 24 18	 mov	 ebp, DWORD PTR __Num$[esp+12]
  00056	83 fd fe	 cmp	 ebp, -2			; fffffffeH
  00059	76 07		 jbe	 SHORT $L233230
  0005b	8b cb		 mov	 ecx, ebx
  0005d	e8 00 00 00 00	 call	 ?_Xlen@_String_base@std@@QBEXXZ ; std::_String_base::_Xlen
$L233230:
  00062	8b 43 18	 mov	 eax, DWORD PTR [ebx+24]
  00065	3b c5		 cmp	 eax, ebp
  00067	73 1b		 jae	 SHORT $L233231
  00069	8b 53 14	 mov	 edx, DWORD PTR [ebx+20]
  0006c	52		 push	 edx
  0006d	55		 push	 ebp
  0006e	8b cb		 mov	 ecx, ebx
  00070	e8 00 00 00 00	 call	 ?_Copy@?$basic_string@DU?$char_traits@D@std@@V?$allocator@D@2@@std@@IAEXII@Z ; std::basic_string<char,std::char_traits<char>,std::allocator<char> >::_Copy
  00075	85 ed		 test	 ebp, ebp
$L233311:
  00077	76 68		 jbe	 SHORT $L233308

; 613  : 			{	// make room and assign new stuff
; 614  : 			_Traits::copy(_Myptr(), _Ptr, _Num);

  00079	83 7b 18 10	 cmp	 DWORD PTR [ebx+24], 16	; 00000010H
  0007d	72 2f		 jb	 SHORT $L233283
  0007f	8b 7b 04	 mov	 edi, DWORD PTR [ebx+4]
  00082	eb 2d		 jmp	 SHORT $L233284

; 611  : 
; 612  : 		if (_Grow(_Num))

$L233231:
  00084	85 ed		 test	 ebp, ebp
  00086	75 ef		 jne	 SHORT $L233311
  00088	83 f8 10	 cmp	 eax, 16			; 00000010H
  0008b	89 6b 14	 mov	 DWORD PTR [ebx+20], ebp
  0008e	72 0f		 jb	 SHORT $L233274
  00090	8b 43 04	 mov	 eax, DWORD PTR [ebx+4]
  00093	5d		 pop	 ebp
  00094	5f		 pop	 edi
  00095	c6 00 00	 mov	 BYTE PTR [eax], 0
  00098	5e		 pop	 esi

; 616  : 			}
; 617  : 		return (*this);

  00099	8b c3		 mov	 eax, ebx
  0009b	5b		 pop	 ebx

; 618  : 		}

  0009c	c2 08 00	 ret	 8

; 611  : 
; 612  : 		if (_Grow(_Num))

$L233274:
  0009f	5d		 pop	 ebp
  000a0	8d 43 04	 lea	 eax, DWORD PTR [ebx+4]
  000a3	5f		 pop	 edi
  000a4	c6 00 00	 mov	 BYTE PTR [eax], 0
  000a7	5e		 pop	 esi

; 616  : 			}
; 617  : 		return (*this);

  000a8	8b c3		 mov	 eax, ebx
  000aa	5b		 pop	 ebx

; 618  : 		}

  000ab	c2 08 00	 ret	 8

; 613  : 			{	// make room and assign new stuff
; 614  : 			_Traits::copy(_Myptr(), _Ptr, _Num);

$L233283:
  000ae	8d 7b 04	 lea	 edi, DWORD PTR [ebx+4]
$L233284:
  000b1	8b cd		 mov	 ecx, ebp
  000b3	8b c1		 mov	 eax, ecx
  000b5	c1 e9 02	 shr	 ecx, 2
  000b8	f3 a5		 rep movsd
  000ba	8b c8		 mov	 ecx, eax
  000bc	83 e1 03	 and	 ecx, 3
  000bf	f3 a4		 rep movsb

; 615  : 			_Eos(_Num);

  000c1	83 7b 18 10	 cmp	 DWORD PTR [ebx+24], 16	; 00000010H
  000c5	89 6b 14	 mov	 DWORD PTR [ebx+20], ebp
  000c8	72 10		 jb	 SHORT $L233306
  000ca	8b 43 04	 mov	 eax, DWORD PTR [ebx+4]
  000cd	c6 04 28 00	 mov	 BYTE PTR [eax+ebp], 0
  000d1	5d		 pop	 ebp
  000d2	5f		 pop	 edi
  000d3	5e		 pop	 esi

; 616  : 			}
; 617  : 		return (*this);

  000d4	8b c3		 mov	 eax, ebx
  000d6	5b		 pop	 ebx

; 618  : 		}

  000d7	c2 08 00	 ret	 8

; 615  : 			_Eos(_Num);

$L233306:
  000da	8d 43 04	 lea	 eax, DWORD PTR [ebx+4]
  000dd	c6 04 28 00	 mov	 BYTE PTR [eax+ebp], 0
$L233308:
  000e1	5d		 pop	 ebp
  000e2	5f		 pop	 edi
  000e3	5e		 pop	 esi

; 616  : 			}
; 617  : 		return (*this);

  000e4	8b c3		 mov	 eax, ebx
  000e6	5b		 pop	 ebx

; 618  : 		}

  000e7	c2 08 00	 ret	 8
?assign@?$basic_string@DU?$char_traits@D@std@@V?$allocator@D@2@@std@@QAEAAV12@PBDI@Z ENDP ; std::basic_string<char,std::char_traits<char>,std::allocator<char> >::assign
_TEXT	ENDS
PUBLIC	?clear@?$vector@UD3DXVECTOR3@@V?$allocator@UD3DXVECTOR3@@@std@@@std@@QAEXXZ ; std::vector<D3DXVECTOR3,std::allocator<D3DXVECTOR3> >::clear
; Function compile flags: /Ogty
; File c:\program files\microsoft visual studio .net 2003\vc7\include\vector
;	COMDAT ?clear@?$vector@UD3DXVECTOR3@@V?$allocator@UD3DXVECTOR3@@@std@@@std@@QAEXXZ
_TEXT	SEGMENT
?clear@?$vector@UD3DXVECTOR3@@V?$allocator@UD3DXVECTOR3@@@std@@@std@@QAEXXZ PROC NEAR ; std::vector<D3DXVECTOR3,std::allocator<D3DXVECTOR3> >::clear, COMDAT
; _this$ = ecx

; 743  : 		{	// erase all

  00000	56		 push	 esi
  00001	8b f1		 mov	 esi, ecx

; 744  : 		_Tidy();

  00003	8b 46 04	 mov	 eax, DWORD PTR [esi+4]
  00006	85 c0		 test	 eax, eax
  00008	74 09		 je	 SHORT $L233324
  0000a	50		 push	 eax
  0000b	e8 00 00 00 00	 call	 ??3@YAXPAX@Z		; operator delete
  00010	83 c4 04	 add	 esp, 4
$L233324:
  00013	c7 46 04 00 00
	00 00		 mov	 DWORD PTR [esi+4], 0
  0001a	c7 46 08 00 00
	00 00		 mov	 DWORD PTR [esi+8], 0
  00021	c7 46 0c 00 00
	00 00		 mov	 DWORD PTR [esi+12], 0
  00028	5e		 pop	 esi

; 745  : 		}

  00029	c3		 ret	 0
?clear@?$vector@UD3DXVECTOR3@@V?$allocator@UD3DXVECTOR3@@@std@@@std@@QAEXXZ ENDP ; std::vector<D3DXVECTOR3,std::allocator<D3DXVECTOR3> >::clear
_TEXT	ENDS
PUBLIC	??$_Ucopy@Vconst_iterator@?$vector@U_VECINFO@@V?$allocator@U_VECINFO@@@std@@@std@@@?$vector@U_VECINFO@@V?$allocator@U_VECINFO@@@std@@@std@@IAEPAU_VECINFO@@Vconst_iterator@01@0PAU2@@Z ; std::vector<_VECINFO,std::allocator<_VECINFO> >::_Ucopy<std::vector<_VECINFO,std::allocator<_VECINFO> >::const_iterator>
; Function compile flags: /Ogty
;	COMDAT ??$_Ucopy@Vconst_iterator@?$vector@U_VECINFO@@V?$allocator@U_VECINFO@@@std@@@std@@@?$vector@U_VECINFO@@V?$allocator@U_VECINFO@@@std@@@std@@IAEPAU_VECINFO@@Vconst_iterator@01@0PAU2@@Z
_TEXT	SEGMENT
__First$ = 8						; size = 4
__Last$ = 12						; size = 4
__Cat$233340 = 16					; size = 1
__Ptr$ = 16						; size = 4
??$_Ucopy@Vconst_iterator@?$vector@U_VECINFO@@V?$allocator@U_VECINFO@@@std@@@std@@@?$vector@U_VECINFO@@V?$allocator@U_VECINFO@@@std@@@std@@IAEPAU_VECINFO@@Vconst_iterator@01@0PAU2@@Z PROC NEAR ; std::vector<_VECINFO,std::allocator<_VECINFO> >::_Ucopy<std::vector<_VECINFO,std::allocator<_VECINFO> >::const_iterator>, COMDAT
; _this$ = ecx

; 802  : 		{	// copy initializing [_First, _Last), using allocator
; 803  : 		return (_Uninitialized_copy(_First, _Last,
; 804  : 			_Ptr, this->_Alval));

  00000	8b 44 24 0c	 mov	 eax, DWORD PTR __Cat$233340[esp-4]
  00004	8b 54 24 08	 mov	 edx, DWORD PTR __Last$[esp-4]
  00008	50		 push	 eax
  00009	8b 44 24 08	 mov	 eax, DWORD PTR __First$[esp]
  0000d	51		 push	 ecx
  0000e	8b 4c 24 14	 mov	 ecx, DWORD PTR __Ptr$[esp+4]
  00012	51		 push	 ecx
  00013	52		 push	 edx
  00014	50		 push	 eax
  00015	e8 00 00 00 00	 call	 ??$_Uninit_copy@Vconst_iterator@?$vector@U_VECINFO@@V?$allocator@U_VECINFO@@@std@@@std@@PAU_VECINFO@@V?$allocator@U_VECINFO@@@3@@std@@YAPAU_VECINFO@@Vconst_iterator@?$vector@U_VECINFO@@V?$allocator@U_VECINFO@@@std@@@0@0PAU1@AAV?$allocator@U_VECINFO@@@0@U_Nonscalar_ptr_iterator_tag@0@@Z ; std::_Uninit_copy<std::vector<_VECINFO,std::allocator<_VECINFO> >::const_iterator,_VECINFO *,std::allocator<_VECINFO> >
  0001a	83 c4 14	 add	 esp, 20			; 00000014H

; 805  : 		}

  0001d	c2 0c 00	 ret	 12			; 0000000cH
??$_Ucopy@Vconst_iterator@?$vector@U_VECINFO@@V?$allocator@U_VECINFO@@@std@@@std@@@?$vector@U_VECINFO@@V?$allocator@U_VECINFO@@@std@@@std@@IAEPAU_VECINFO@@Vconst_iterator@01@0PAU2@@Z ENDP ; std::vector<_VECINFO,std::allocator<_VECINFO> >::_Ucopy<std::vector<_VECINFO,std::allocator<_VECINFO> >::const_iterator>
_TEXT	ENDS
PUBLIC	??$_Uninitialized_fill_n@PAU_VECINFO@@IU1@V?$allocator@U_VECINFO@@@std@@@std@@YAXPAU_VECINFO@@IABU1@AAV?$allocator@U_VECINFO@@@0@@Z ; std::_Uninitialized_fill_n<_VECINFO *,unsigned int,_VECINFO,std::allocator<_VECINFO> >
; Function compile flags: /Ogty
; File c:\program files\microsoft visual studio .net 2003\vc7\include\memory
;	COMDAT ??$_Uninitialized_fill_n@PAU_VECINFO@@IU1@V?$allocator@U_VECINFO@@@std@@@std@@YAXPAU_VECINFO@@IABU1@AAV?$allocator@U_VECINFO@@@0@@Z
_TEXT	SEGMENT
__Cat$233349 = -4					; size = 1
__First$ = 8						; size = 4
__Count$ = 12						; size = 4
__Val$ = 16						; size = 4
__Al$ = 20						; size = 4
??$_Uninitialized_fill_n@PAU_VECINFO@@IU1@V?$allocator@U_VECINFO@@@std@@@std@@YAXPAU_VECINFO@@IABU1@AAV?$allocator@U_VECINFO@@@0@@Z PROC NEAR ; std::_Uninitialized_fill_n<_VECINFO *,unsigned int,_VECINFO,std::allocator<_VECINFO> >, COMDAT

; 255  : 	{	// copy _Count *_Val to raw _First, using _Al

  00000	51		 push	 ecx

; 256  : 	_Uninit_fill_n(_First, _Count, _Val, _Al,
; 257  : 		_Ptr_cat(_First, _First));

  00001	8b 04 24	 mov	 eax, DWORD PTR __Cat$233349[esp+4]
  00004	8b 4c 24 14	 mov	 ecx, DWORD PTR __Al$[esp]
  00008	8b 54 24 10	 mov	 edx, DWORD PTR __Val$[esp]
  0000c	50		 push	 eax
  0000d	8b 44 24 10	 mov	 eax, DWORD PTR __Count$[esp+4]
  00011	51		 push	 ecx
  00012	8b 4c 24 10	 mov	 ecx, DWORD PTR __First$[esp+8]
  00016	52		 push	 edx
  00017	50		 push	 eax
  00018	51		 push	 ecx
  00019	e8 00 00 00 00	 call	 ??$_Uninit_fill_n@PAU_VECINFO@@IU1@V?$allocator@U_VECINFO@@@std@@@std@@YAXPAU_VECINFO@@IABU1@AAV?$allocator@U_VECINFO@@@0@U_Nonscalar_ptr_iterator_tag@0@@Z ; std::_Uninit_fill_n<_VECINFO *,unsigned int,_VECINFO,std::allocator<_VECINFO> >

; 258  : 	}

  0001e	83 c4 18	 add	 esp, 24			; 00000018H
  00021	c3		 ret	 0
??$_Uninitialized_fill_n@PAU_VECINFO@@IU1@V?$allocator@U_VECINFO@@@std@@@std@@YAXPAU_VECINFO@@IABU1@AAV?$allocator@U_VECINFO@@@0@@Z ENDP ; std::_Uninitialized_fill_n<_VECINFO *,unsigned int,_VECINFO,std::allocator<_VECINFO> >
_TEXT	ENDS
PUBLIC	??$_Destroy_range@U_VECINFO@@V?$allocator@U_VECINFO@@@std@@@std@@YAXPAU_VECINFO@@0AAV?$allocator@U_VECINFO@@@0@@Z ; std::_Destroy_range<_VECINFO,std::allocator<_VECINFO> >
; Function compile flags: /Ogty
; File c:\program files\microsoft visual studio .net 2003\vc7\include\xmemory
;	COMDAT ??$_Destroy_range@U_VECINFO@@V?$allocator@U_VECINFO@@@std@@@std@@YAXPAU_VECINFO@@0AAV?$allocator@U_VECINFO@@@0@@Z
_TEXT	SEGMENT
__First$ = 8						; size = 4
__Last$ = 12						; size = 4
__Al$ = 16						; size = 4
??$_Destroy_range@U_VECINFO@@V?$allocator@U_VECINFO@@@std@@@std@@YAXPAU_VECINFO@@0AAV?$allocator@U_VECINFO@@@0@@Z PROC NEAR ; std::_Destroy_range<_VECINFO,std::allocator<_VECINFO> >, COMDAT

; 216  : 	{	// destroy [_First, _Last)

  00000	56		 push	 esi

; 217  : 	_Destroy_range(_First, _Last, _Al, _Ptr_cat(_First, _Last));

  00001	8b 74 24 08	 mov	 esi, DWORD PTR __First$[esp]
  00005	57		 push	 edi
  00006	8b 7c 24 10	 mov	 edi, DWORD PTR __Last$[esp+4]
  0000a	3b f7		 cmp	 esi, edi
  0000c	74 10		 je	 SHORT $L233381
  0000e	8b ff		 npad	 2
$L233379:
  00010	8b ce		 mov	 ecx, esi
  00012	e8 00 00 00 00	 call	 ??1_VECINFO@@QAE@XZ
  00017	83 c6 38	 add	 esi, 56			; 00000038H
  0001a	3b f7		 cmp	 esi, edi
  0001c	75 f2		 jne	 SHORT $L233379
$L233381:
  0001e	5f		 pop	 edi
  0001f	5e		 pop	 esi

; 218  : 	}

  00020	c3		 ret	 0
??$_Destroy_range@U_VECINFO@@V?$allocator@U_VECINFO@@@std@@@std@@YAXPAU_VECINFO@@0AAV?$allocator@U_VECINFO@@@0@@Z ENDP ; std::_Destroy_range<_VECINFO,std::allocator<_VECINFO> >
_TEXT	ENDS
PUBLIC	??$_Ucopy@PAU_VECINFO@@@?$vector@U_VECINFO@@V?$allocator@U_VECINFO@@@std@@@std@@IAEPAU_VECINFO@@PAU2@00@Z ; std::vector<_VECINFO,std::allocator<_VECINFO> >::_Ucopy<_VECINFO *>
; Function compile flags: /Ogty
; File c:\program files\microsoft visual studio .net 2003\vc7\include\vector
;	COMDAT ??$_Ucopy@PAU_VECINFO@@@?$vector@U_VECINFO@@V?$allocator@U_VECINFO@@@std@@@std@@IAEPAU_VECINFO@@PAU2@00@Z
_TEXT	SEGMENT
__First$ = 8						; size = 4
__Last$ = 12						; size = 4
__Cat$233407 = 16					; size = 1
__Ptr$ = 16						; size = 4
??$_Ucopy@PAU_VECINFO@@@?$vector@U_VECINFO@@V?$allocator@U_VECINFO@@@std@@@std@@IAEPAU_VECINFO@@PAU2@00@Z PROC NEAR ; std::vector<_VECINFO,std::allocator<_VECINFO> >::_Ucopy<_VECINFO *>, COMDAT
; _this$ = ecx

; 802  : 		{	// copy initializing [_First, _Last), using allocator
; 803  : 		return (_Uninitialized_copy(_First, _Last,
; 804  : 			_Ptr, this->_Alval));

  00000	8b 44 24 0c	 mov	 eax, DWORD PTR __Cat$233407[esp-4]
  00004	8b 54 24 08	 mov	 edx, DWORD PTR __Last$[esp-4]
  00008	50		 push	 eax
  00009	8b 44 24 08	 mov	 eax, DWORD PTR __First$[esp]
  0000d	51		 push	 ecx
  0000e	8b 4c 24 14	 mov	 ecx, DWORD PTR __Ptr$[esp+4]
  00012	51		 push	 ecx
  00013	52		 push	 edx
  00014	50		 push	 eax
  00015	e8 00 00 00 00	 call	 ??$_Uninit_copy@PAU_VECINFO@@PAU1@V?$allocator@U_VECINFO@@@std@@@std@@YAPAU_VECINFO@@PAU1@00AAV?$allocator@U_VECINFO@@@0@U_Nonscalar_ptr_iterator_tag@0@@Z ; std::_Uninit_copy<_VECINFO *,_VECINFO *,std::allocator<_VECINFO> >
  0001a	83 c4 14	 add	 esp, 20			; 00000014H

; 805  : 		}

  0001d	c2 0c 00	 ret	 12			; 0000000cH
??$_Ucopy@PAU_VECINFO@@@?$vector@U_VECINFO@@V?$allocator@U_VECINFO@@@std@@@std@@IAEPAU_VECINFO@@PAU2@00@Z ENDP ; std::vector<_VECINFO,std::allocator<_VECINFO> >::_Ucopy<_VECINFO *>
_TEXT	ENDS
PUBLIC	??0?$basic_string@DU?$char_traits@D@std@@V?$allocator@D@2@@std@@QAE@ABV01@@Z ; std::basic_string<char,std::char_traits<char>,std::allocator<char> >::basic_string<char,std::char_traits<char>,std::allocator<char> >
; Function compile flags: /Ogty
; File c:\program files\microsoft visual studio .net 2003\vc7\include\xstring
;	COMDAT ??0?$basic_string@DU?$char_traits@D@std@@V?$allocator@D@2@@std@@QAE@ABV01@@Z
_TEXT	SEGMENT
__Right$ = 8						; size = 4
??0?$basic_string@DU?$char_traits@D@std@@V?$allocator@D@2@@std@@QAE@ABV01@@Z PROC NEAR ; std::basic_string<char,std::char_traits<char>,std::allocator<char> >::basic_string<char,std::char_traits<char>,std::allocator<char> >, COMDAT
; _this$ = ecx

; 323  : 		{	// construct by copying _Right

  00000	56		 push	 esi

; 324  : 		_Tidy();

  00001	33 c0		 xor	 eax, eax
  00003	8b f1		 mov	 esi, ecx

; 325  : 		assign(_Right, 0, npos);

  00005	6a ff		 push	 -1
  00007	89 46 14	 mov	 DWORD PTR [esi+20], eax
  0000a	c7 46 18 0f 00
	00 00		 mov	 DWORD PTR [esi+24], 15	; 0000000fH
  00011	50		 push	 eax
  00012	88 46 04	 mov	 BYTE PTR [esi+4], al
  00015	8b 44 24 10	 mov	 eax, DWORD PTR __Right$[esp+8]
  00019	50		 push	 eax
  0001a	e8 00 00 00 00	 call	 ?assign@?$basic_string@DU?$char_traits@D@std@@V?$allocator@D@2@@std@@QAEAAV12@ABV12@II@Z ; std::basic_string<char,std::char_traits<char>,std::allocator<char> >::assign

; 326  : 		}

  0001f	8b c6		 mov	 eax, esi
  00021	5e		 pop	 esi
  00022	c2 04 00	 ret	 4
??0?$basic_string@DU?$char_traits@D@std@@V?$allocator@D@2@@std@@QAE@ABV01@@Z ENDP ; std::basic_string<char,std::char_traits<char>,std::allocator<char> >::basic_string<char,std::char_traits<char>,std::allocator<char> >
_TEXT	ENDS
PUBLIC	??1?$vector@UD3DXVECTOR3@@V?$allocator@UD3DXVECTOR3@@@std@@@std@@QAE@XZ ; std::vector<D3DXVECTOR3,std::allocator<D3DXVECTOR3> >::~vector<D3DXVECTOR3,std::allocator<D3DXVECTOR3> >
; Function compile flags: /Ogty
; File c:\program files\microsoft visual studio .net 2003\vc7\include\vector
;	COMDAT ??1?$vector@UD3DXVECTOR3@@V?$allocator@UD3DXVECTOR3@@@std@@@std@@QAE@XZ
_TEXT	SEGMENT
??1?$vector@UD3DXVECTOR3@@V?$allocator@UD3DXVECTOR3@@@std@@@std@@QAE@XZ PROC NEAR ; std::vector<D3DXVECTOR3,std::allocator<D3DXVECTOR3> >::~vector<D3DXVECTOR3,std::allocator<D3DXVECTOR3> >, COMDAT
; _this$ = ecx

; 387  : 		{	// destroy the object

  00000	56		 push	 esi
  00001	8b f1		 mov	 esi, ecx

; 388  : 		_Tidy();

  00003	8b 46 04	 mov	 eax, DWORD PTR [esi+4]
  00006	85 c0		 test	 eax, eax
  00008	74 09		 je	 SHORT $L233489
  0000a	50		 push	 eax
  0000b	e8 00 00 00 00	 call	 ??3@YAXPAX@Z		; operator delete
  00010	83 c4 04	 add	 esp, 4
$L233489:
  00013	c7 46 04 00 00
	00 00		 mov	 DWORD PTR [esi+4], 0
  0001a	c7 46 08 00 00
	00 00		 mov	 DWORD PTR [esi+8], 0
  00021	c7 46 0c 00 00
	00 00		 mov	 DWORD PTR [esi+12], 0
  00028	5e		 pop	 esi

; 389  : 		}

  00029	c3		 ret	 0
??1?$vector@UD3DXVECTOR3@@V?$allocator@UD3DXVECTOR3@@@std@@@std@@QAE@XZ ENDP ; std::vector<D3DXVECTOR3,std::allocator<D3DXVECTOR3> >::~vector<D3DXVECTOR3,std::allocator<D3DXVECTOR3> >
_TEXT	ENDS
PUBLIC	?assign@?$basic_string@DU?$char_traits@D@std@@V?$allocator@D@2@@std@@QAEAAV12@PBD@Z ; std::basic_string<char,std::char_traits<char>,std::allocator<char> >::assign
; Function compile flags: /Ogty
; File c:\program files\microsoft visual studio .net 2003\vc7\include\xstring
;	COMDAT ?assign@?$basic_string@DU?$char_traits@D@std@@V?$allocator@D@2@@std@@QAEAAV12@PBD@Z
_TEXT	SEGMENT
__Ptr$ = 8						; size = 4
?assign@?$basic_string@DU?$char_traits@D@std@@V?$allocator@D@2@@std@@QAEAAV12@PBD@Z PROC NEAR ; std::basic_string<char,std::char_traits<char>,std::allocator<char> >::assign, COMDAT
; _this$ = ecx

; 621  : 		{	// assign [_Ptr, <null>)

  00000	56		 push	 esi

; 622  : 		return (assign(_Ptr, _Traits::length(_Ptr)));

  00001	8b 74 24 08	 mov	 esi, DWORD PTR __Ptr$[esp]
  00005	8b c6		 mov	 eax, esi
  00007	57		 push	 edi
  00008	8d 78 01	 lea	 edi, DWORD PTR [eax+1]
  0000b	eb 03 8d 49 00	 npad	 5
$L233498:
  00010	8a 10		 mov	 dl, BYTE PTR [eax]
  00012	40		 inc	 eax
  00013	84 d2		 test	 dl, dl
  00015	75 f9		 jne	 SHORT $L233498
  00017	2b c7		 sub	 eax, edi
  00019	50		 push	 eax
  0001a	56		 push	 esi
  0001b	e8 00 00 00 00	 call	 ?assign@?$basic_string@DU?$char_traits@D@std@@V?$allocator@D@2@@std@@QAEAAV12@PBDI@Z ; std::basic_string<char,std::char_traits<char>,std::allocator<char> >::assign
  00020	5f		 pop	 edi
  00021	5e		 pop	 esi

; 623  : 		}

  00022	c2 04 00	 ret	 4
?assign@?$basic_string@DU?$char_traits@D@std@@V?$allocator@D@2@@std@@QAEAAV12@PBD@Z ENDP ; std::basic_string<char,std::char_traits<char>,std::allocator<char> >::assign
_TEXT	ENDS
PUBLIC	?_Ufill@?$vector@U_VECINFO@@V?$allocator@U_VECINFO@@@std@@@std@@IAEPAU_VECINFO@@PAU3@IABU3@@Z ; std::vector<_VECINFO,std::allocator<_VECINFO> >::_Ufill
; Function compile flags: /Ogty
; File c:\program files\microsoft visual studio .net 2003\vc7\include\vector
;	COMDAT ?_Ufill@?$vector@U_VECINFO@@V?$allocator@U_VECINFO@@@std@@@std@@IAEPAU_VECINFO@@PAU3@IABU3@@Z
_TEXT	SEGMENT
__Ptr$ = 8						; size = 4
__Count$ = 12						; size = 4
__Cat$233512 = 16					; size = 1
__Val$ = 16						; size = 4
?_Ufill@?$vector@U_VECINFO@@V?$allocator@U_VECINFO@@@std@@@std@@IAEPAU_VECINFO@@PAU3@IABU3@@Z PROC NEAR ; std::vector<_VECINFO,std::allocator<_VECINFO> >::_Ufill, COMDAT
; _this$ = ecx

; 878  : 		_Uninitialized_fill_n(_Ptr, _Count, _Val, this->_Alval);

  00000	8b 44 24 0c	 mov	 eax, DWORD PTR __Cat$233512[esp-4]
  00004	56		 push	 esi
  00005	8b 74 24 0c	 mov	 esi, DWORD PTR __Count$[esp]
  00009	57		 push	 edi
  0000a	8b 7c 24 0c	 mov	 edi, DWORD PTR __Ptr$[esp+4]
  0000e	50		 push	 eax
  0000f	51		 push	 ecx
  00010	8b 4c 24 1c	 mov	 ecx, DWORD PTR __Val$[esp+12]
  00014	51		 push	 ecx
  00015	56		 push	 esi
  00016	57		 push	 edi
  00017	e8 00 00 00 00	 call	 ??$_Uninit_fill_n@PAU_VECINFO@@IU1@V?$allocator@U_VECINFO@@@std@@@std@@YAXPAU_VECINFO@@IABU1@AAV?$allocator@U_VECINFO@@@0@U_Nonscalar_ptr_iterator_tag@0@@Z ; std::_Uninit_fill_n<_VECINFO *,unsigned int,_VECINFO,std::allocator<_VECINFO> >

; 879  : 		return (_Ptr + _Count);

  0001c	8b c6		 mov	 eax, esi
  0001e	6b c0 38	 imul	 eax, 56			; 00000038H
  00021	83 c4 14	 add	 esp, 20			; 00000014H
  00024	03 c7		 add	 eax, edi
  00026	5f		 pop	 edi
  00027	5e		 pop	 esi

; 880  : 		}

  00028	c2 0c 00	 ret	 12			; 0000000cH
?_Ufill@?$vector@U_VECINFO@@V?$allocator@U_VECINFO@@@std@@@std@@IAEPAU_VECINFO@@PAU3@IABU3@@Z ENDP ; std::vector<_VECINFO,std::allocator<_VECINFO> >::_Ufill
_TEXT	ENDS
PUBLIC	?_Destroy@?$vector@U_VECINFO@@V?$allocator@U_VECINFO@@@std@@@std@@IAEXPAU_VECINFO@@0@Z ; std::vector<_VECINFO,std::allocator<_VECINFO> >::_Destroy
; Function compile flags: /Ogty
;	COMDAT ?_Destroy@?$vector@U_VECINFO@@V?$allocator@U_VECINFO@@@std@@@std@@IAEXPAU_VECINFO@@0@Z
_TEXT	SEGMENT
__First$ = 8						; size = 4
__Last$ = 12						; size = 4
?_Destroy@?$vector@U_VECINFO@@V?$allocator@U_VECINFO@@@std@@@std@@IAEXPAU_VECINFO@@0@Z PROC NEAR ; std::vector<_VECINFO,std::allocator<_VECINFO> >::_Destroy, COMDAT
; _this$ = ecx

; 786  : 		{	// destroy [_First, _Last) using allocator

  00000	56		 push	 esi

; 787  : 		_Destroy_range(_First, _Last, this->_Alval);

  00001	8b 74 24 08	 mov	 esi, DWORD PTR __First$[esp]
  00005	57		 push	 edi
  00006	8b 7c 24 10	 mov	 edi, DWORD PTR __Last$[esp+4]
  0000a	3b f7		 cmp	 esi, edi
  0000c	74 10		 je	 SHORT $L233573
  0000e	8b ff		 npad	 2
$L233571:
  00010	8b ce		 mov	 ecx, esi
  00012	e8 00 00 00 00	 call	 ??1_VECINFO@@QAE@XZ
  00017	83 c6 38	 add	 esi, 56			; 00000038H
  0001a	3b f7		 cmp	 esi, edi
  0001c	75 f2		 jne	 SHORT $L233571
$L233573:
  0001e	5f		 pop	 edi
  0001f	5e		 pop	 esi

; 788  : 		}

  00020	c2 08 00	 ret	 8
?_Destroy@?$vector@U_VECINFO@@V?$allocator@U_VECINFO@@@std@@@std@@IAEXPAU_VECINFO@@0@Z ENDP ; std::vector<_VECINFO,std::allocator<_VECINFO> >::_Destroy
_TEXT	ENDS
PUBLIC	??0logic_error@std@@QAE@ABV?$basic_string@DU?$char_traits@D@std@@V?$allocator@D@2@@1@@Z ; std::logic_error::logic_error
EXTRN	??0exception@@QAE@XZ:NEAR			; exception::exception
;	COMDAT xdata$x
; File c:\program files\microsoft visual studio .net 2003\vc7\include\iosfwd
xdata$x	SEGMENT
$T233682 DD	0ffffffffH
	DD	FLAT:$L233582
$T233680 DD	019930520H
	DD	01H
	DD	FLAT:$T233682
	DD	2 DUP(00H)
	DD	2 DUP(00H)
; Function compile flags: /Ogty
; File c:\program files\microsoft visual studio .net 2003\vc7\include\stdexcept
xdata$x	ENDS
;	COMDAT ??0logic_error@std@@QAE@ABV?$basic_string@DU?$char_traits@D@std@@V?$allocator@D@2@@1@@Z
_TEXT	SEGMENT
_this$ = -16						; size = 4
__$EHRec$ = -12						; size = 12
__Message$ = 8						; size = 4
??0logic_error@std@@QAE@ABV?$basic_string@DU?$char_traits@D@std@@V?$allocator@D@2@@1@@Z PROC NEAR ; std::logic_error::logic_error, COMDAT
; _this$ = ecx

; 19   : 		{	// construct from message string

  00000	6a ff		 push	 -1
  00002	68 00 00 00 00	 push	 __ehhandler$??0logic_error@std@@QAE@ABV?$basic_string@DU?$char_traits@D@std@@V?$allocator@D@2@@1@@Z
  00007	64 a1 00 00 00
	00		 mov	 eax, DWORD PTR fs:__except_list
  0000d	50		 push	 eax
  0000e	64 89 25 00 00
	00 00		 mov	 DWORD PTR fs:__except_list, esp
  00015	51		 push	 ecx
  00016	56		 push	 esi
  00017	8b f1		 mov	 esi, ecx
  00019	89 74 24 04	 mov	 DWORD PTR _this$[esp+20], esi
  0001d	e8 00 00 00 00	 call	 ??0exception@@QAE@XZ	; exception::exception
  00022	33 c0		 xor	 eax, eax
  00024	8d 4e 0c	 lea	 ecx, DWORD PTR [esi+12]
  00027	c7 06 00 00 00
	00		 mov	 DWORD PTR [esi], OFFSET FLAT:??_7logic_error@std@@6B@
  0002d	6a ff		 push	 -1
  0002f	89 41 14	 mov	 DWORD PTR [ecx+20], eax
  00032	c7 41 18 0f 00
	00 00		 mov	 DWORD PTR [ecx+24], 15	; 0000000fH
  00039	50		 push	 eax
  0003a	89 44 24 18	 mov	 DWORD PTR __$EHRec$[esp+36], eax
  0003e	88 41 04	 mov	 BYTE PTR [ecx+4], al
  00041	8b 44 24 20	 mov	 eax, DWORD PTR __Message$[esp+24]
  00045	50		 push	 eax
  00046	e8 00 00 00 00	 call	 ?assign@?$basic_string@DU?$char_traits@D@std@@V?$allocator@D@2@@std@@QAEAAV12@ABV12@II@Z ; std::basic_string<char,std::char_traits<char>,std::allocator<char> >::assign

; 20   : 		}

  0004b	8b 4c 24 08	 mov	 ecx, DWORD PTR __$EHRec$[esp+20]
  0004f	8b c6		 mov	 eax, esi
  00051	5e		 pop	 esi
  00052	64 89 0d 00 00
	00 00		 mov	 DWORD PTR fs:__except_list, ecx
  00059	83 c4 10	 add	 esp, 16			; 00000010H
  0005c	c2 04 00	 ret	 4
_TEXT	ENDS
;	COMDAT text$x
text$x	SEGMENT
$L233582:
  00000	8b 4d f0	 mov	 ecx, DWORD PTR _this$[ebp]
  00003	e9 00 00 00 00	 jmp	 ??1exception@@UAE@XZ	; exception::~exception
__ehhandler$??0logic_error@std@@QAE@ABV?$basic_string@DU?$char_traits@D@std@@V?$allocator@D@2@@1@@Z:
  00008	b8 00 00 00 00	 mov	 eax, OFFSET FLAT:$T233680
  0000d	e9 00 00 00 00	 jmp	 ___CxxFrameHandler
text$x	ENDS
??0logic_error@std@@QAE@ABV?$basic_string@DU?$char_traits@D@std@@V?$allocator@D@2@@1@@Z ENDP ; std::logic_error::logic_error
PUBLIC	??0length_error@std@@QAE@ABV?$basic_string@DU?$char_traits@D@std@@V?$allocator@D@2@@1@@Z ; std::length_error::length_error
PUBLIC	??_7length_error@std@@6B@			; std::length_error::`vftable'
PUBLIC	??_Glength_error@std@@UAEPAXI@Z			; std::length_error::`scalar deleting destructor'
EXTRN	??_Elength_error@std@@UAEPAXI@Z:NEAR		; std::length_error::`vector deleting destructor'
;	COMDAT ??_7length_error@std@@6B@
CONST	SEGMENT
??_7length_error@std@@6B@ DD FLAT:??_Elength_error@std@@UAEPAXI@Z ; std::length_error::`vftable'
	DD	FLAT:?what@logic_error@std@@UBEPBDXZ
; Function compile flags: /Ogty
CONST	ENDS
;	COMDAT ??0length_error@std@@QAE@ABV?$basic_string@DU?$char_traits@D@std@@V?$allocator@D@2@@1@@Z
_TEXT	SEGMENT
__Message$ = 8						; size = 4
??0length_error@std@@QAE@ABV?$basic_string@DU?$char_traits@D@std@@V?$allocator@D@2@@1@@Z PROC NEAR ; std::length_error::length_error, COMDAT
; _this$ = ecx

; 95   : 		{	// construct from message string

  00000	8b 44 24 04	 mov	 eax, DWORD PTR __Message$[esp-4]
  00004	56		 push	 esi
  00005	50		 push	 eax
  00006	8b f1		 mov	 esi, ecx
  00008	e8 00 00 00 00	 call	 ??0logic_error@std@@QAE@ABV?$basic_string@DU?$char_traits@D@std@@V?$allocator@D@2@@1@@Z ; std::logic_error::logic_error
  0000d	c7 06 00 00 00
	00		 mov	 DWORD PTR [esi], OFFSET FLAT:??_7length_error@std@@6B@

; 96   : 		}

  00013	8b c6		 mov	 eax, esi
  00015	5e		 pop	 esi
  00016	c2 04 00	 ret	 4
??0length_error@std@@QAE@ABV?$basic_string@DU?$char_traits@D@std@@V?$allocator@D@2@@1@@Z ENDP ; std::length_error::length_error
_TEXT	ENDS
PUBLIC	??1length_error@std@@UAE@XZ			; std::length_error::~length_error
; Function compile flags: /Ogty
;	COMDAT ??_Glength_error@std@@UAEPAXI@Z
_TEXT	SEGMENT
___flags$ = 8						; size = 4
??_Glength_error@std@@UAEPAXI@Z PROC NEAR		; std::length_error::`scalar deleting destructor', COMDAT
; _this$ = ecx
  00000	56		 push	 esi
  00001	8b f1		 mov	 esi, ecx
  00003	e8 00 00 00 00	 call	 ??1length_error@std@@UAE@XZ ; std::length_error::~length_error
  00008	f6 44 24 08 01	 test	 BYTE PTR ___flags$[esp], 1
  0000d	74 09		 je	 SHORT $L233692
  0000f	56		 push	 esi
  00010	e8 00 00 00 00	 call	 ??3@YAXPAX@Z		; operator delete
  00015	83 c4 04	 add	 esp, 4
$L233692:
  00018	8b c6		 mov	 eax, esi
  0001a	5e		 pop	 esi
  0001b	c2 04 00	 ret	 4
??_Glength_error@std@@UAEPAXI@Z ENDP			; std::length_error::`scalar deleting destructor'
; Function compile flags: /Ogty
_TEXT	ENDS
;	COMDAT ??1length_error@std@@UAE@XZ
_TEXT	SEGMENT
??1length_error@std@@UAE@XZ PROC NEAR			; std::length_error::~length_error, COMDAT
; _this$ = ecx

; 99   : 		{}	// destroy the object

  00000	56		 push	 esi
  00001	8b f1		 mov	 esi, ecx
  00003	c7 06 00 00 00
	00		 mov	 DWORD PTR [esi], OFFSET FLAT:??_7logic_error@std@@6B@
  00009	83 7e 24 10	 cmp	 DWORD PTR [esi+36], 16	; 00000010H
  0000d	72 0c		 jb	 SHORT $L233779
  0000f	8b 46 10	 mov	 eax, DWORD PTR [esi+16]
  00012	50		 push	 eax
  00013	e8 00 00 00 00	 call	 ??3@YAXPAX@Z		; operator delete
  00018	83 c4 04	 add	 esp, 4
$L233779:
  0001b	33 c0		 xor	 eax, eax
  0001d	c7 46 24 0f 00
	00 00		 mov	 DWORD PTR [esi+36], 15	; 0000000fH
  00024	89 46 20	 mov	 DWORD PTR [esi+32], eax
  00027	88 46 10	 mov	 BYTE PTR [esi+16], al
  0002a	8b ce		 mov	 ecx, esi
  0002c	5e		 pop	 esi
  0002d	e9 00 00 00 00	 jmp	 ??1exception@@UAE@XZ	; exception::~exception
??1length_error@std@@UAE@XZ ENDP			; std::length_error::~length_error
_TEXT	ENDS
PUBLIC	??0out_of_range@std@@QAE@ABV?$basic_string@DU?$char_traits@D@std@@V?$allocator@D@2@@1@@Z ; std::out_of_range::out_of_range
PUBLIC	??_7out_of_range@std@@6B@			; std::out_of_range::`vftable'
PUBLIC	??_Gout_of_range@std@@UAEPAXI@Z			; std::out_of_range::`scalar deleting destructor'
EXTRN	??_Eout_of_range@std@@UAEPAXI@Z:NEAR		; std::out_of_range::`vector deleting destructor'
;	COMDAT ??_7out_of_range@std@@6B@
CONST	SEGMENT
??_7out_of_range@std@@6B@ DD FLAT:??_Eout_of_range@std@@UAEPAXI@Z ; std::out_of_range::`vftable'
	DD	FLAT:?what@logic_error@std@@UBEPBDXZ
; Function compile flags: /Ogty
CONST	ENDS
;	COMDAT ??0out_of_range@std@@QAE@ABV?$basic_string@DU?$char_traits@D@std@@V?$allocator@D@2@@1@@Z
_TEXT	SEGMENT
__Message$ = 8						; size = 4
??0out_of_range@std@@QAE@ABV?$basic_string@DU?$char_traits@D@std@@V?$allocator@D@2@@1@@Z PROC NEAR ; std::out_of_range::out_of_range, COMDAT
; _this$ = ecx

; 118  : 		{	// construct from message string

  00000	8b 44 24 04	 mov	 eax, DWORD PTR __Message$[esp-4]
  00004	56		 push	 esi
  00005	50		 push	 eax
  00006	8b f1		 mov	 esi, ecx
  00008	e8 00 00 00 00	 call	 ??0logic_error@std@@QAE@ABV?$basic_string@DU?$char_traits@D@std@@V?$allocator@D@2@@1@@Z ; std::logic_error::logic_error
  0000d	c7 06 00 00 00
	00		 mov	 DWORD PTR [esi], OFFSET FLAT:??_7out_of_range@std@@6B@

; 119  : 		}

  00013	8b c6		 mov	 eax, esi
  00015	5e		 pop	 esi
  00016	c2 04 00	 ret	 4
??0out_of_range@std@@QAE@ABV?$basic_string@DU?$char_traits@D@std@@V?$allocator@D@2@@1@@Z ENDP ; std::out_of_range::out_of_range
_TEXT	ENDS
PUBLIC	??1out_of_range@std@@UAE@XZ			; std::out_of_range::~out_of_range
; Function compile flags: /Ogty
;	COMDAT ??_Gout_of_range@std@@UAEPAXI@Z
_TEXT	SEGMENT
___flags$ = 8						; size = 4
??_Gout_of_range@std@@UAEPAXI@Z PROC NEAR		; std::out_of_range::`scalar deleting destructor', COMDAT
; _this$ = ecx
  00000	56		 push	 esi
  00001	8b f1		 mov	 esi, ecx
  00003	e8 00 00 00 00	 call	 ??1out_of_range@std@@UAE@XZ ; std::out_of_range::~out_of_range
  00008	f6 44 24 08 01	 test	 BYTE PTR ___flags$[esp], 1
  0000d	74 09		 je	 SHORT $L233806
  0000f	56		 push	 esi
  00010	e8 00 00 00 00	 call	 ??3@YAXPAX@Z		; operator delete
  00015	83 c4 04	 add	 esp, 4
$L233806:
  00018	8b c6		 mov	 eax, esi
  0001a	5e		 pop	 esi
  0001b	c2 04 00	 ret	 4
??_Gout_of_range@std@@UAEPAXI@Z ENDP			; std::out_of_range::`scalar deleting destructor'
; Function compile flags: /Ogty
_TEXT	ENDS
;	COMDAT ??1out_of_range@std@@UAE@XZ
_TEXT	SEGMENT
??1out_of_range@std@@UAE@XZ PROC NEAR			; std::out_of_range::~out_of_range, COMDAT
; _this$ = ecx

; 122  : 		{}	// destroy the object

  00000	56		 push	 esi
  00001	8b f1		 mov	 esi, ecx
  00003	c7 06 00 00 00
	00		 mov	 DWORD PTR [esi], OFFSET FLAT:??_7logic_error@std@@6B@
  00009	83 7e 24 10	 cmp	 DWORD PTR [esi+36], 16	; 00000010H
  0000d	72 0c		 jb	 SHORT $L233893
  0000f	8b 46 10	 mov	 eax, DWORD PTR [esi+16]
  00012	50		 push	 eax
  00013	e8 00 00 00 00	 call	 ??3@YAXPAX@Z		; operator delete
  00018	83 c4 04	 add	 esp, 4
$L233893:
  0001b	33 c0		 xor	 eax, eax
  0001d	c7 46 24 0f 00
	00 00		 mov	 DWORD PTR [esi+36], 15	; 0000000fH
  00024	89 46 20	 mov	 DWORD PTR [esi+32], eax
  00027	88 46 10	 mov	 BYTE PTR [esi+16], al
  0002a	8b ce		 mov	 ecx, esi
  0002c	5e		 pop	 esi
  0002d	e9 00 00 00 00	 jmp	 ??1exception@@UAE@XZ	; exception::~exception
??1out_of_range@std@@UAE@XZ ENDP			; std::out_of_range::~out_of_range
_TEXT	ENDS
PUBLIC	??0?$basic_string@DU?$char_traits@D@std@@V?$allocator@D@2@@std@@QAE@PBD@Z ; std::basic_string<char,std::char_traits<char>,std::allocator<char> >::basic_string<char,std::char_traits<char>,std::allocator<char> >
; Function compile flags: /Ogty
; File c:\program files\microsoft visual studio .net 2003\vc7\include\xstring
;	COMDAT ??0?$basic_string@DU?$char_traits@D@std@@V?$allocator@D@2@@std@@QAE@PBD@Z
_TEXT	SEGMENT
__Ptr$ = 8						; size = 4
??0?$basic_string@DU?$char_traits@D@std@@V?$allocator@D@2@@std@@QAE@PBD@Z PROC NEAR ; std::basic_string<char,std::char_traits<char>,std::allocator<char> >::basic_string<char,std::char_traits<char>,std::allocator<char> >, COMDAT
; _this$ = ecx

; 361  : 		_Tidy();
; 362  : 		assign(_Ptr);

  00000	8b 54 24 04	 mov	 edx, DWORD PTR __Ptr$[esp-4]
  00004	56		 push	 esi
  00005	8b f1		 mov	 esi, ecx
  00007	8b c2		 mov	 eax, edx
  00009	57		 push	 edi
  0000a	c7 46 18 0f 00
	00 00		 mov	 DWORD PTR [esi+24], 15	; 0000000fH
  00011	c7 46 14 00 00
	00 00		 mov	 DWORD PTR [esi+20], 0
  00018	c6 46 04 00	 mov	 BYTE PTR [esi+4], 0
  0001c	8d 78 01	 lea	 edi, DWORD PTR [eax+1]
  0001f	90		 npad	 1
$L233988:
  00020	8a 08		 mov	 cl, BYTE PTR [eax]
  00022	40		 inc	 eax
  00023	84 c9		 test	 cl, cl
  00025	75 f9		 jne	 SHORT $L233988
  00027	2b c7		 sub	 eax, edi
  00029	50		 push	 eax
  0002a	52		 push	 edx
  0002b	8b ce		 mov	 ecx, esi
  0002d	e8 00 00 00 00	 call	 ?assign@?$basic_string@DU?$char_traits@D@std@@V?$allocator@D@2@@std@@QAEAAV12@PBDI@Z ; std::basic_string<char,std::char_traits<char>,std::allocator<char> >::assign
  00032	5f		 pop	 edi

; 363  : 		}

  00033	8b c6		 mov	 eax, esi
  00035	5e		 pop	 esi
  00036	c2 04 00	 ret	 4
??0?$basic_string@DU?$char_traits@D@std@@V?$allocator@D@2@@std@@QAE@PBD@Z ENDP ; std::basic_string<char,std::char_traits<char>,std::allocator<char> >::basic_string<char,std::char_traits<char>,std::allocator<char> >
_TEXT	ENDS
PUBLIC	??_C@_0BD@OLBABOEK@vector?$DMT?$DO?5too?5long?$AA@ ; `string'
PUBLIC	__TI3?AVlength_error@std@@
PUBLIC	__CTA3?AVlength_error@std@@
PUBLIC	??_R0?AVlength_error@std@@@8			; std::length_error `RTTI Type Descriptor'
PUBLIC	__CT??_R0?AVlength_error@std@@@8??0length_error@std@@QAE@ABV01@@Z40
PUBLIC	??_R0?AVlogic_error@std@@@8			; std::logic_error `RTTI Type Descriptor'
PUBLIC	__CT??_R0?AVlogic_error@std@@@8??0logic_error@std@@QAE@ABV01@@Z40
PUBLIC	??_R0?AVexception@@@8				; exception `RTTI Type Descriptor'
PUBLIC	__CT??_R0?AVexception@@@8??0exception@@QAE@ABV0@@Z12
PUBLIC	?_Xlen@?$vector@UD3DXVECTOR3@@V?$allocator@UD3DXVECTOR3@@@std@@@std@@IBEXXZ ; std::vector<D3DXVECTOR3,std::allocator<D3DXVECTOR3> >::_Xlen
PUBLIC	??0logic_error@std@@QAE@ABV01@@Z		; std::logic_error::logic_error
PUBLIC	??0length_error@std@@QAE@ABV01@@Z		; std::length_error::length_error
EXTRN	??0exception@@QAE@ABV0@@Z:NEAR			; exception::exception
EXTRN	??_7type_info@@6B@:DWORD			; type_info::`vftable'
;	COMDAT xdata$x
; File c:\program files\microsoft visual studio .net 2003\vc7\include\stdexcept
xdata$x	SEGMENT
$T234109 DD	0ffffffffH
	DD	FLAT:$L233994
$T234106 DD	019930520H
	DD	01H
	DD	FLAT:$T234109
	DD	2 DUP(00H)
	DD	2 DUP(00H)
xdata$x	ENDS
;	COMDAT ??_C@_0BD@OLBABOEK@vector?$DMT?$DO?5too?5long?$AA@
CONST	SEGMENT
??_C@_0BD@OLBABOEK@vector?$DMT?$DO?5too?5long?$AA@ DB 'vector<T> too long'
	DB	00H						; `string'
CONST	ENDS
;	COMDAT __TI3?AVlength_error@std@@
xdata$x	SEGMENT
__TI3?AVlength_error@std@@ DD 00H
	DD	FLAT:??1length_error@std@@UAE@XZ
	DD	00H
	DD	FLAT:__CTA3?AVlength_error@std@@
xdata$x	ENDS
;	COMDAT __CTA3?AVlength_error@std@@
xdata$x	SEGMENT
__CTA3?AVlength_error@std@@ DD 03H
	DD	FLAT:__CT??_R0?AVlength_error@std@@@8??0length_error@std@@QAE@ABV01@@Z40
	DD	FLAT:__CT??_R0?AVlogic_error@std@@@8??0logic_error@std@@QAE@ABV01@@Z40
	DD	FLAT:__CT??_R0?AVexception@@@8??0exception@@QAE@ABV0@@Z12
xdata$x	ENDS
;	COMDAT __CT??_R0?AVlength_error@std@@@8??0length_error@std@@QAE@ABV01@@Z40
xdata$x	SEGMENT
__CT??_R0?AVlength_error@std@@@8??0length_error@std@@QAE@ABV01@@Z40 DD 00H
	DD	FLAT:??_R0?AVlength_error@std@@@8
	DD	00H
	DD	0ffffffffH
	ORG $+4
	DD	028H
	DD	FLAT:??0length_error@std@@QAE@ABV01@@Z
xdata$x	ENDS
;	COMDAT ??_R0?AVlength_error@std@@@8
_DATA	SEGMENT
??_R0?AVlength_error@std@@@8 DD FLAT:??_7type_info@@6B@	; std::length_error `RTTI Type Descriptor'
	DD	00H
	DB	'.?AVlength_error@std@@', 00H
_DATA	ENDS
;	COMDAT __CT??_R0?AVlogic_error@std@@@8??0logic_error@std@@QAE@ABV01@@Z40
xdata$x	SEGMENT
__CT??_R0?AVlogic_error@std@@@8??0logic_error@std@@QAE@ABV01@@Z40 DD 00H
	DD	FLAT:??_R0?AVlogic_error@std@@@8
	DD	00H
	DD	0ffffffffH
	ORG $+4
	DD	028H
	DD	FLAT:??0logic_error@std@@QAE@ABV01@@Z
xdata$x	ENDS
;	COMDAT ??_R0?AVlogic_error@std@@@8
_DATA	SEGMENT
??_R0?AVlogic_error@std@@@8 DD FLAT:??_7type_info@@6B@	; std::logic_error `RTTI Type Descriptor'
	DD	00H
	DB	'.?AVlogic_error@std@@', 00H
_DATA	ENDS
;	COMDAT __CT??_R0?AVexception@@@8??0exception@@QAE@ABV0@@Z12
xdata$x	SEGMENT
__CT??_R0?AVexception@@@8??0exception@@QAE@ABV0@@Z12 DD 00H
	DD	FLAT:??_R0?AVexception@@@8
	DD	00H
	DD	0ffffffffH
	ORG $+4
	DD	0cH
	DD	FLAT:??0exception@@QAE@ABV0@@Z
xdata$x	ENDS
;	COMDAT ??_R0?AVexception@@@8
_DATA	SEGMENT
??_R0?AVexception@@@8 DD FLAT:??_7type_info@@6B@	; exception `RTTI Type Descriptor'
	DD	00H
	DB	'.?AVexception@@', 00H
; Function compile flags: /Ogty
; File c:\program files\microsoft visual studio .net 2003\vc7\include\vector
_DATA	ENDS
;	COMDAT ?_Xlen@?$vector@UD3DXVECTOR3@@V?$allocator@UD3DXVECTOR3@@@std@@@std@@IBEXXZ
_TEXT	SEGMENT
$T233993 = -80						; size = 28
$T233992 = -52						; size = 40
__$EHRec$ = -12						; size = 12
?_Xlen@?$vector@UD3DXVECTOR3@@V?$allocator@UD3DXVECTOR3@@@std@@@std@@IBEXXZ PROC NEAR ; std::vector<D3DXVECTOR3,std::allocator<D3DXVECTOR3> >::_Xlen, COMDAT
; _this$ = ecx

; 883  : 		{	// report a length_error

  00000	6a ff		 push	 -1
  00002	68 00 00 00 00	 push	 __ehhandler$?_Xlen@?$vector@UD3DXVECTOR3@@V?$allocator@UD3DXVECTOR3@@@std@@@std@@IBEXXZ
  00007	64 a1 00 00 00
	00		 mov	 eax, DWORD PTR fs:__except_list
  0000d	50		 push	 eax
  0000e	64 89 25 00 00
	00 00		 mov	 DWORD PTR fs:__except_list, esp
  00015	83 ec 44	 sub	 esp, 68			; 00000044H

; 884  : 		_THROW(length_error, "vector<T> too long");

  00018	6a 12		 push	 18			; 00000012H
  0001a	68 00 00 00 00	 push	 OFFSET FLAT:??_C@_0BD@OLBABOEK@vector?$DMT?$DO?5too?5long?$AA@
  0001f	8d 4c 24 08	 lea	 ecx, DWORD PTR $T233993[esp+88]
  00023	c7 44 24 20 0f
	00 00 00	 mov	 DWORD PTR $T233993[esp+112], 15 ; 0000000fH
  0002b	c7 44 24 1c 00
	00 00 00	 mov	 DWORD PTR $T233993[esp+108], 0
  00033	c6 44 24 0c 00	 mov	 BYTE PTR $T233993[esp+92], 0
  00038	e8 00 00 00 00	 call	 ?assign@?$basic_string@DU?$char_traits@D@std@@V?$allocator@D@2@@std@@QAEAAV12@PBDI@Z ; std::basic_string<char,std::char_traits<char>,std::allocator<char> >::assign
  0003d	8d 04 24	 lea	 eax, DWORD PTR $T233993[esp+80]
  00040	50		 push	 eax
  00041	8d 4c 24 20	 lea	 ecx, DWORD PTR $T233992[esp+84]
  00045	c7 44 24 50 00
	00 00 00	 mov	 DWORD PTR __$EHRec$[esp+92], 0
  0004d	e8 00 00 00 00	 call	 ??0logic_error@std@@QAE@ABV?$basic_string@DU?$char_traits@D@std@@V?$allocator@D@2@@1@@Z ; std::logic_error::logic_error
  00052	68 00 00 00 00	 push	 OFFSET FLAT:__TI3?AVlength_error@std@@
  00057	8d 4c 24 20	 lea	 ecx, DWORD PTR $T233992[esp+84]
  0005b	51		 push	 ecx
  0005c	c7 44 24 24 00
	00 00 00	 mov	 DWORD PTR $T233992[esp+88], OFFSET FLAT:??_7length_error@std@@6B@
  00064	e8 00 00 00 00	 call	 __CxxThrowException@8
$L234110:
$L234108:
  00069	cc		 int	 3
_TEXT	ENDS
;	COMDAT text$x
text$x	SEGMENT
$L233994:
  00000	8d 4d b0	 lea	 ecx, DWORD PTR $T233993[ebp]
  00003	e9 00 00 00 00	 jmp	 ??1?$basic_string@DU?$char_traits@D@std@@V?$allocator@D@2@@std@@QAE@XZ ; std::basic_string<char,std::char_traits<char>,std::allocator<char> >::~basic_string<char,std::char_traits<char>,std::allocator<char> >
__ehhandler$?_Xlen@?$vector@UD3DXVECTOR3@@V?$allocator@UD3DXVECTOR3@@@std@@@std@@IBEXXZ:
  00008	b8 00 00 00 00	 mov	 eax, OFFSET FLAT:$T234106
  0000d	e9 00 00 00 00	 jmp	 ___CxxFrameHandler
text$x	ENDS
?_Xlen@?$vector@UD3DXVECTOR3@@V?$allocator@UD3DXVECTOR3@@@std@@@std@@IBEXXZ ENDP ; std::vector<D3DXVECTOR3,std::allocator<D3DXVECTOR3> >::_Xlen
;	COMDAT xdata$x
xdata$x	SEGMENT
$T234216 DD	0ffffffffH
	DD	FLAT:$L234116
$T234214 DD	019930520H
	DD	01H
	DD	FLAT:$T234216
	DD	2 DUP(00H)
	DD	2 DUP(00H)
; Function compile flags: /Ogty
xdata$x	ENDS
;	COMDAT ??0logic_error@std@@QAE@ABV01@@Z
_TEXT	SEGMENT
_this$ = -16						; size = 4
__$EHRec$ = -12						; size = 12
___that$ = 8						; size = 4
??0logic_error@std@@QAE@ABV01@@Z PROC NEAR		; std::logic_error::logic_error, COMDAT
; _this$ = ecx
  00000	6a ff		 push	 -1
  00002	68 00 00 00 00	 push	 __ehhandler$??0logic_error@std@@QAE@ABV01@@Z
  00007	64 a1 00 00 00
	00		 mov	 eax, DWORD PTR fs:__except_list
  0000d	50		 push	 eax
  0000e	64 89 25 00 00
	00 00		 mov	 DWORD PTR fs:__except_list, esp
  00015	51		 push	 ecx
  00016	56		 push	 esi
  00017	57		 push	 edi
  00018	8b 7c 24 1c	 mov	 edi, DWORD PTR ___that$[esp+20]
  0001c	8b f1		 mov	 esi, ecx
  0001e	57		 push	 edi
  0001f	89 74 24 0c	 mov	 DWORD PTR _this$[esp+28], esi
  00023	e8 00 00 00 00	 call	 ??0exception@@QAE@ABV0@@Z ; exception::exception
  00028	33 c0		 xor	 eax, eax
  0002a	6a ff		 push	 -1
  0002c	8d 4e 0c	 lea	 ecx, DWORD PTR [esi+12]
  0002f	c7 06 00 00 00
	00		 mov	 DWORD PTR [esi], OFFSET FLAT:??_7logic_error@std@@6B@
  00035	50		 push	 eax
  00036	83 c7 0c	 add	 edi, 12			; 0000000cH
  00039	c7 41 18 0f 00
	00 00		 mov	 DWORD PTR [ecx+24], 15	; 0000000fH
  00040	89 41 14	 mov	 DWORD PTR [ecx+20], eax
  00043	57		 push	 edi
  00044	89 44 24 20	 mov	 DWORD PTR __$EHRec$[esp+44], eax
  00048	88 41 04	 mov	 BYTE PTR [ecx+4], al
  0004b	e8 00 00 00 00	 call	 ?assign@?$basic_string@DU?$char_traits@D@std@@V?$allocator@D@2@@std@@QAEAAV12@ABV12@II@Z ; std::basic_string<char,std::char_traits<char>,std::allocator<char> >::assign
  00050	8b 4c 24 0c	 mov	 ecx, DWORD PTR __$EHRec$[esp+24]
  00054	5f		 pop	 edi
  00055	8b c6		 mov	 eax, esi
  00057	5e		 pop	 esi
  00058	64 89 0d 00 00
	00 00		 mov	 DWORD PTR fs:__except_list, ecx
  0005f	83 c4 10	 add	 esp, 16			; 00000010H
  00062	c2 04 00	 ret	 4
_TEXT	ENDS
;	COMDAT text$x
text$x	SEGMENT
$L234116:
  00000	8b 4d f0	 mov	 ecx, DWORD PTR _this$[ebp]
  00003	e9 00 00 00 00	 jmp	 ??1exception@@UAE@XZ	; exception::~exception
__ehhandler$??0logic_error@std@@QAE@ABV01@@Z:
  00008	b8 00 00 00 00	 mov	 eax, OFFSET FLAT:$T234214
  0000d	e9 00 00 00 00	 jmp	 ___CxxFrameHandler
text$x	ENDS
??0logic_error@std@@QAE@ABV01@@Z ENDP			; std::logic_error::logic_error
; Function compile flags: /Ogty
;	COMDAT ??0length_error@std@@QAE@ABV01@@Z
_TEXT	SEGMENT
___that$ = 8						; size = 4
??0length_error@std@@QAE@ABV01@@Z PROC NEAR		; std::length_error::length_error, COMDAT
; _this$ = ecx
  00000	8b 44 24 04	 mov	 eax, DWORD PTR ___that$[esp-4]
  00004	56		 push	 esi
  00005	50		 push	 eax
  00006	8b f1		 mov	 esi, ecx
  00008	e8 00 00 00 00	 call	 ??0logic_error@std@@QAE@ABV01@@Z
  0000d	c7 06 00 00 00
	00		 mov	 DWORD PTR [esi], OFFSET FLAT:??_7length_error@std@@6B@
  00013	8b c6		 mov	 eax, esi
  00015	5e		 pop	 esi
  00016	c2 04 00	 ret	 4
??0length_error@std@@QAE@ABV01@@Z ENDP			; std::length_error::length_error
_TEXT	ENDS
PUBLIC	__TI3?AVout_of_range@std@@
PUBLIC	__CTA3?AVout_of_range@std@@
PUBLIC	??_R0?AVout_of_range@std@@@8			; std::out_of_range `RTTI Type Descriptor'
PUBLIC	__CT??_R0?AVout_of_range@std@@@8??0out_of_range@std@@QAE@ABV01@@Z40
PUBLIC	??_C@_0BM@PAPJHAGI@invalid?5map?1set?$DMT?$DO?5iterator?$AA@ ; `string'
PUBLIC	?erase@?$_Tree@V?$_Tmap_traits@KHU?$less@K@std@@V?$allocator@U?$pair@$$CBKH@std@@@2@$0A@@std@@@std@@QAE?AViterator@12@V312@@Z ; std::_Tree<std::_Tmap_traits<unsigned long,int,std::less<unsigned long>,std::allocator<std::pair<unsigned long const ,int> >,0> >::erase
PUBLIC	??0out_of_range@std@@QAE@ABV01@@Z		; std::out_of_range::out_of_range
;	COMDAT xdata$x
; File c:\program files\microsoft visual studio .net 2003\vc7\include\xmemory
xdata$x	SEGMENT
$T234718 DD	0ffffffffH
	DD	FLAT:$L234232
$T234710 DD	019930520H
	DD	01H
	DD	FLAT:$T234718
	DD	2 DUP(00H)
	DD	2 DUP(00H)
xdata$x	ENDS
;	COMDAT ??_C@_0BM@PAPJHAGI@invalid?5map?1set?$DMT?$DO?5iterator?$AA@
CONST	SEGMENT
??_C@_0BM@PAPJHAGI@invalid?5map?1set?$DMT?$DO?5iterator?$AA@ DB 'invalid '
	DB	'map/set<T> iterator', 00H			; `string'
CONST	ENDS
;	COMDAT __TI3?AVout_of_range@std@@
xdata$x	SEGMENT
__TI3?AVout_of_range@std@@ DD 00H
	DD	FLAT:??1out_of_range@std@@UAE@XZ
	DD	00H
	DD	FLAT:__CTA3?AVout_of_range@std@@
xdata$x	ENDS
;	COMDAT __CTA3?AVout_of_range@std@@
xdata$x	SEGMENT
__CTA3?AVout_of_range@std@@ DD 03H
	DD	FLAT:__CT??_R0?AVout_of_range@std@@@8??0out_of_range@std@@QAE@ABV01@@Z40
	DD	FLAT:__CT??_R0?AVlogic_error@std@@@8??0logic_error@std@@QAE@ABV01@@Z40
	DD	FLAT:__CT??_R0?AVexception@@@8??0exception@@QAE@ABV0@@Z12
xdata$x	ENDS
;	COMDAT __CT??_R0?AVout_of_range@std@@@8??0out_of_range@std@@QAE@ABV01@@Z40
xdata$x	SEGMENT
__CT??_R0?AVout_of_range@std@@@8??0out_of_range@std@@QAE@ABV01@@Z40 DD 00H
	DD	FLAT:??_R0?AVout_of_range@std@@@8
	DD	00H
	DD	0ffffffffH
	ORG $+4
	DD	028H
	DD	FLAT:??0out_of_range@std@@QAE@ABV01@@Z
xdata$x	ENDS
;	COMDAT ??_R0?AVout_of_range@std@@@8
_DATA	SEGMENT
??_R0?AVout_of_range@std@@@8 DD FLAT:??_7type_info@@6B@	; std::out_of_range `RTTI Type Descriptor'
	DD	00H
	DB	'.?AVout_of_range@std@@', 00H
; Function compile flags: /Ogty
; File c:\program files\microsoft visual studio .net 2003\vc7\include\xtree
_DATA	ENDS
;	COMDAT ?erase@?$_Tree@V?$_Tmap_traits@KHU?$less@K@std@@V?$allocator@U?$pair@$$CBKH@std@@@2@$0A@@std@@@std@@QAE?AViterator@12@V312@@Z
_TEXT	SEGMENT
__Erasednode$ = -84					; size = 4
$T234227 = -80						; size = 28
$T234226 = -52						; size = 40
__$EHRec$ = -12						; size = 12
___$ReturnUdt$ = 8					; size = 4
__Where$ = 12						; size = 4
?erase@?$_Tree@V?$_Tmap_traits@KHU?$less@K@std@@V?$allocator@U?$pair@$$CBKH@std@@@2@$0A@@std@@@std@@QAE?AViterator@12@V312@@Z PROC NEAR ; std::_Tree<std::_Tmap_traits<unsigned long,int,std::less<unsigned long>,std::allocator<std::pair<unsigned long const ,int> >,0> >::erase, COMDAT
; _this$ = ecx

; 590  : 		{	// erase element at _Where

  00000	64 a1 00 00 00
	00		 mov	 eax, DWORD PTR fs:__except_list
  00006	6a ff		 push	 -1
  00008	68 00 00 00 00	 push	 __ehhandler$?erase@?$_Tree@V?$_Tmap_traits@KHU?$less@K@std@@V?$allocator@U?$pair@$$CBKH@std@@@2@$0A@@std@@@std@@QAE?AViterator@12@V312@@Z
  0000d	50		 push	 eax

; 591  : 		if (_Isnil(_Where._Mynode()))

  0000e	8b 44 24 14	 mov	 eax, DWORD PTR __Where$[esp+8]
  00012	64 89 25 00 00
	00 00		 mov	 DWORD PTR fs:__except_list, esp
  00019	83 ec 48	 sub	 esp, 72			; 00000048H
  0001c	55		 push	 ebp
  0001d	8b e9		 mov	 ebp, ecx
  0001f	8a 48 15	 mov	 cl, BYTE PTR [eax+21]
  00022	84 c9		 test	 cl, cl
  00024	56		 push	 esi
  00025	74 4c		 je	 SHORT $L223116

; 592  : 			_THROW(out_of_range, "invalid map/set<T> iterator");

  00027	6a 1b		 push	 27			; 0000001bH
  00029	33 f6		 xor	 esi, esi
  0002b	68 00 00 00 00	 push	 OFFSET FLAT:??_C@_0BM@PAPJHAGI@invalid?5map?1set?$DMT?$DO?5iterator?$AA@
  00030	8d 4c 24 14	 lea	 ecx, DWORD PTR $T234227[esp+100]
  00034	c7 44 24 2c 0f
	00 00 00	 mov	 DWORD PTR $T234227[esp+124], 15 ; 0000000fH
  0003c	89 74 24 28	 mov	 DWORD PTR $T234227[esp+120], esi
  00040	c6 44 24 18 00	 mov	 BYTE PTR $T234227[esp+104], 0
  00045	e8 00 00 00 00	 call	 ?assign@?$basic_string@DU?$char_traits@D@std@@V?$allocator@D@2@@std@@QAEAAV12@PBDI@Z ; std::basic_string<char,std::char_traits<char>,std::allocator<char> >::assign
  0004a	8d 44 24 0c	 lea	 eax, DWORD PTR $T234227[esp+92]
  0004e	50		 push	 eax
  0004f	8d 4c 24 2c	 lea	 ecx, DWORD PTR $T234226[esp+96]
  00053	89 74 24 5c	 mov	 DWORD PTR __$EHRec$[esp+104], esi
  00057	e8 00 00 00 00	 call	 ??0logic_error@std@@QAE@ABV?$basic_string@DU?$char_traits@D@std@@V?$allocator@D@2@@1@@Z ; std::logic_error::logic_error
  0005c	68 00 00 00 00	 push	 OFFSET FLAT:__TI3?AVout_of_range@std@@
  00061	8d 4c 24 2c	 lea	 ecx, DWORD PTR $T234226[esp+96]
  00065	51		 push	 ecx
  00066	c7 44 24 30 00
	00 00 00	 mov	 DWORD PTR $T234226[esp+100], OFFSET FLAT:??_7out_of_range@std@@6B@
  0006e	e8 00 00 00 00	 call	 __CxxThrowException@8
$L234719:
$L223116:
  00073	53		 push	 ebx

; 593  : 		_Nodeptr _Erasednode = _Where._Mynode();	// node to erase

  00074	8b d8		 mov	 ebx, eax
  00076	57		 push	 edi

; 594  : 		++_Where;	// save successor iterator for return

  00077	8d 4c 24 6c	 lea	 ecx, DWORD PTR __Where$[esp+96]
  0007b	89 5c 24 10	 mov	 DWORD PTR __Erasednode$[esp+100], ebx
  0007f	e8 00 00 00 00	 call	 ?_Inc@const_iterator@?$_Tree@V?$_Tmap_traits@KHU?$less@K@std@@V?$allocator@U?$pair@$$CBKH@std@@@2@$0A@@std@@@std@@QAEXXZ ; std::_Tree<std::_Tmap_traits<unsigned long,int,std::less<unsigned long>,std::allocator<std::pair<unsigned long const ,int> >,0> >::const_iterator::_Inc

; 595  : 
; 596  : 		_Nodeptr _Fixnode;	// the node to recolor as needed
; 597  : 		_Nodeptr _Fixnodeparent;	// parent of _Fixnode (which may be nil)
; 598  : 		_Nodeptr _Pnode = _Erasednode;
; 599  : 
; 600  : 		if (_Isnil(_Left(_Pnode)))

  00084	8b 03		 mov	 eax, DWORD PTR [ebx]
  00086	8a 48 15	 mov	 cl, BYTE PTR [eax+21]
  00089	84 c9		 test	 cl, cl
  0008b	74 05		 je	 SHORT $L223124

; 601  : 			_Fixnode = _Right(_Pnode);	// must stitch up right subtree

  0008d	8b 7b 08	 mov	 edi, DWORD PTR [ebx+8]

; 602  : 		else if (_Isnil(_Right(_Pnode)))

  00090	eb 19		 jmp	 SHORT $L234713
$L223124:
  00092	8b 53 08	 mov	 edx, DWORD PTR [ebx+8]
  00095	8a 4a 15	 mov	 cl, BYTE PTR [edx+21]
  00098	84 c9		 test	 cl, cl
  0009a	74 04		 je	 SHORT $L223126

; 603  : 			_Fixnode = _Left(_Pnode);	// must stitch up left subtree

  0009c	8b f8		 mov	 edi, eax

; 604  : 		else

  0009e	eb 0b		 jmp	 SHORT $L234713
$L223126:

; 605  : 			{	// two subtrees, must lift successor node to replace erased
; 606  : 			_Pnode = _Where._Mynode();	// _Pnode is successor node
; 607  : 			_Fixnode = _Right(_Pnode);	// _Fixnode is its only subtree

  000a0	8b 4c 24 6c	 mov	 ecx, DWORD PTR __Where$[esp+96]

; 608  : 			}
; 609  : 
; 610  : 		if (_Pnode == _Erasednode)

  000a4	3b cb		 cmp	 ecx, ebx
  000a6	8b 79 08	 mov	 edi, DWORD PTR [ecx+8]
  000a9	75 6e		 jne	 SHORT $L223128
$L234713:

; 611  : 			{	// at most one subtree, relink it
; 612  : 			_Fixnodeparent = _Parent(_Erasednode);
; 613  : 			if (!_Isnil(_Fixnode))

  000ab	8a 47 15	 mov	 al, BYTE PTR [edi+21]
  000ae	84 c0		 test	 al, al
  000b0	8b 73 04	 mov	 esi, DWORD PTR [ebx+4]
  000b3	75 03		 jne	 SHORT $L223129

; 614  : 				_Parent(_Fixnode) = _Fixnodeparent;	// link up

  000b5	89 77 04	 mov	 DWORD PTR [edi+4], esi
$L223129:

; 615  : 
; 616  : 			if (_Root() == _Erasednode)

  000b8	8b 45 04	 mov	 eax, DWORD PTR [ebp+4]
  000bb	39 58 04	 cmp	 DWORD PTR [eax+4], ebx
  000be	75 05		 jne	 SHORT $L223130

; 617  : 				_Root() = _Fixnode;	// link down from root

  000c0	89 78 04	 mov	 DWORD PTR [eax+4], edi

; 618  : 			else if (_Left(_Fixnodeparent) == _Erasednode)

  000c3	eb 0b		 jmp	 SHORT $L223133
$L223130:
  000c5	39 1e		 cmp	 DWORD PTR [esi], ebx
  000c7	75 04		 jne	 SHORT $L223132

; 619  : 				_Left(_Fixnodeparent) = _Fixnode;	// link down to left

  000c9	89 3e		 mov	 DWORD PTR [esi], edi

; 620  : 			else

  000cb	eb 03		 jmp	 SHORT $L223133
$L223132:

; 621  : 				_Right(_Fixnodeparent) = _Fixnode;	// link down to right

  000cd	89 7e 08	 mov	 DWORD PTR [esi+8], edi
$L223133:

; 622  : 
; 623  : 			if (_Lmost() == _Erasednode)

  000d0	8b 5d 04	 mov	 ebx, DWORD PTR [ebp+4]
  000d3	8b 03		 mov	 eax, DWORD PTR [ebx]
  000d5	3b 44 24 10	 cmp	 eax, DWORD PTR __Erasednode$[esp+100]
  000d9	75 16		 jne	 SHORT $L223134

; 624  : 				_Lmost() = _Isnil(_Fixnode)
; 625  : 					? _Fixnodeparent	// smallest is parent of erased node
; 626  : 					: _Min(_Fixnode);	// smallest in relinked subtree

  000db	8a 47 15	 mov	 al, BYTE PTR [edi+21]
  000de	84 c0		 test	 al, al
  000e0	74 04		 je	 SHORT $L234228
  000e2	8b c6		 mov	 eax, esi
  000e4	eb 09		 jmp	 SHORT $L234229
$L234228:
  000e6	57		 push	 edi
  000e7	e8 00 00 00 00	 call	 ?_Min@?$_Tree@V?$_Tmap_traits@KHU?$less@K@std@@V?$allocator@U?$pair@$$CBKH@std@@@2@$0A@@std@@@std@@KAPAU_Node@?$_Tree_nod@V?$_Tmap_traits@KHU?$less@K@std@@V?$allocator@U?$pair@$$CBKH@std@@@2@$0A@@std@@@2@PAU342@@Z ; std::_Tree<std::_Tmap_traits<unsigned long,int,std::less<unsigned long>,std::allocator<std::pair<unsigned long const ,int> >,0> >::_Min
  000ec	83 c4 04	 add	 esp, 4
$L234229:
  000ef	89 03		 mov	 DWORD PTR [ebx], eax
$L223134:

; 627  : 
; 628  : 			if (_Rmost() == _Erasednode)

  000f1	8b 5d 04	 mov	 ebx, DWORD PTR [ebp+4]
  000f4	8b 4c 24 10	 mov	 ecx, DWORD PTR __Erasednode$[esp+100]
  000f8	39 4b 08	 cmp	 DWORD PTR [ebx+8], ecx
  000fb	75 74		 jne	 SHORT $L234547

; 629  : 				_Rmost() = _Isnil(_Fixnode)
; 630  : 					? _Fixnodeparent	// largest is parent of erased node
; 631  : 					: _Max(_Fixnode);	// largest in relinked subtree

  000fd	8a 47 15	 mov	 al, BYTE PTR [edi+21]
  00100	84 c0		 test	 al, al
  00102	74 07		 je	 SHORT $L234230
  00104	8b c6		 mov	 eax, esi
  00106	89 43 08	 mov	 DWORD PTR [ebx+8], eax

; 632  : 			}
; 633  : 		else

  00109	eb 66		 jmp	 SHORT $L234547
$L234230:

; 629  : 				_Rmost() = _Isnil(_Fixnode)
; 630  : 					? _Fixnodeparent	// largest is parent of erased node
; 631  : 					: _Max(_Fixnode);	// largest in relinked subtree

  0010b	57		 push	 edi
  0010c	e8 00 00 00 00	 call	 ?_Max@?$_Tree@V?$_Tmap_traits@KHU?$less@K@std@@V?$allocator@U?$pair@$$CBKH@std@@@2@$0A@@std@@@std@@KAPAU_Node@?$_Tree_nod@V?$_Tmap_traits@KHU?$less@K@std@@V?$allocator@U?$pair@$$CBKH@std@@@2@$0A@@std@@@2@PAU342@@Z ; std::_Tree<std::_Tmap_traits<unsigned long,int,std::less<unsigned long>,std::allocator<std::pair<unsigned long const ,int> >,0> >::_Max
  00111	83 c4 04	 add	 esp, 4
  00114	89 43 08	 mov	 DWORD PTR [ebx+8], eax

; 632  : 			}
; 633  : 		else

  00117	eb 58		 jmp	 SHORT $L234547
$L223128:

; 634  : 			{	// erased has two subtrees, _Pnode is successor to erased
; 635  : 			_Parent(_Left(_Erasednode)) = _Pnode;	// link left up

  00119	89 48 04	 mov	 DWORD PTR [eax+4], ecx

; 636  : 			_Left(_Pnode) = _Left(_Erasednode);	// link successor down

  0011c	8b 13		 mov	 edx, DWORD PTR [ebx]
  0011e	89 11		 mov	 DWORD PTR [ecx], edx

; 637  : 
; 638  : 			if (_Pnode == _Right(_Erasednode))

  00120	3b 4b 08	 cmp	 ecx, DWORD PTR [ebx+8]
  00123	75 04		 jne	 SHORT $L223137

; 639  : 				_Fixnodeparent = _Pnode;	// successor is next to erased

  00125	8b f1		 mov	 esi, ecx

; 640  : 			else

  00127	eb 1b		 jmp	 SHORT $L223138
$L223137:

; 641  : 				{	// successor further down, link in place of erased
; 642  : 				_Fixnodeparent = _Parent(_Pnode);	// parent is successor's
; 643  : 				if (!_Isnil(_Fixnode))

  00129	8a 47 15	 mov	 al, BYTE PTR [edi+21]
  0012c	84 c0		 test	 al, al
  0012e	8b 71 04	 mov	 esi, DWORD PTR [ecx+4]
  00131	75 03		 jne	 SHORT $L223139

; 644  : 					_Parent(_Fixnode) = _Fixnodeparent;	// link fix up

  00133	89 77 04	 mov	 DWORD PTR [edi+4], esi
$L223139:

; 645  : 				_Left(_Fixnodeparent) = _Fixnode;	// link fix down

  00136	89 3e		 mov	 DWORD PTR [esi], edi

; 646  : 				_Right(_Pnode) = _Right(_Erasednode);	// link successor down

  00138	8b 43 08	 mov	 eax, DWORD PTR [ebx+8]
  0013b	89 41 08	 mov	 DWORD PTR [ecx+8], eax

; 647  : 				_Parent(_Right(_Erasednode)) = _Pnode;	// link right up

  0013e	8b 53 08	 mov	 edx, DWORD PTR [ebx+8]
  00141	89 4a 04	 mov	 DWORD PTR [edx+4], ecx
$L223138:

; 648  : 				}
; 649  : 
; 650  : 			if (_Root() == _Erasednode)

  00144	8b 45 04	 mov	 eax, DWORD PTR [ebp+4]
  00147	39 58 04	 cmp	 DWORD PTR [eax+4], ebx
  0014a	75 05		 jne	 SHORT $L223140

; 651  : 				_Root() = _Pnode;	// link down from root

  0014c	89 48 04	 mov	 DWORD PTR [eax+4], ecx

; 652  : 			else if (_Left(_Parent(_Erasednode)) == _Erasednode)

  0014f	eb 0e		 jmp	 SHORT $L223143
$L223140:
  00151	8b 43 04	 mov	 eax, DWORD PTR [ebx+4]
  00154	39 18		 cmp	 DWORD PTR [eax], ebx
  00156	75 04		 jne	 SHORT $L223142

; 653  : 				_Left(_Parent(_Erasednode)) = _Pnode;	// link down to left

  00158	89 08		 mov	 DWORD PTR [eax], ecx

; 654  : 			else

  0015a	eb 03		 jmp	 SHORT $L223143
$L223142:

; 655  : 				_Right(_Parent(_Erasednode)) = _Pnode;	// link down to right

  0015c	89 48 08	 mov	 DWORD PTR [eax+8], ecx
$L223143:

; 656  : 
; 657  : 			_Parent(_Pnode) = _Parent(_Erasednode);	// link successor up

  0015f	8b 43 04	 mov	 eax, DWORD PTR [ebx+4]
  00162	89 41 04	 mov	 DWORD PTR [ecx+4], eax

; 658  : 			std::swap(_Color(_Pnode), _Color(_Erasednode));	// recolor it

  00165	8a 53 14	 mov	 dl, BYTE PTR [ebx+20]
  00168	8a 41 14	 mov	 al, BYTE PTR [ecx+20]
  0016b	88 51 14	 mov	 BYTE PTR [ecx+20], dl
  0016e	88 43 14	 mov	 BYTE PTR [ebx+20], al
$L234547:

; 659  : 			}
; 660  : 
; 661  : 		if (_Color(_Erasednode) == _Black)

  00171	8b 44 24 10	 mov	 eax, DWORD PTR __Erasednode$[esp+100]
  00175	8a 48 14	 mov	 cl, BYTE PTR [eax+20]
  00178	b3 01		 mov	 bl, 1
  0017a	3a cb		 cmp	 cl, bl
  0017c	0f 85 ff 00 00
	00		 jne	 $L223144

; 662  : 			{	// erasing black link, must recolor/rebalance tree
; 663  : 			for (; _Fixnode != _Root() && _Color(_Fixnode) == _Black;
; 664  : 				_Fixnodeparent = _Parent(_Fixnode))

  00182	8b 4d 04	 mov	 ecx, DWORD PTR [ebp+4]
  00185	3b 79 04	 cmp	 edi, DWORD PTR [ecx+4]
  00188	0f 84 f0 00 00
	00		 je	 $L223147
  0018e	8b ff		 npad	 2
$L223145:
  00190	38 5f 14	 cmp	 BYTE PTR [edi+20], bl
  00193	0f 85 e5 00 00
	00		 jne	 $L223147

; 665  : 				if (_Fixnode == _Left(_Fixnodeparent))

  00199	8b 06		 mov	 eax, DWORD PTR [esi]
  0019b	3b f8		 cmp	 edi, eax
  0019d	75 67		 jne	 SHORT $L223148

; 666  : 					{	// fixup left subtree
; 667  : 					_Pnode = _Right(_Fixnodeparent);

  0019f	8b 46 08	 mov	 eax, DWORD PTR [esi+8]

; 668  : 					if (_Color(_Pnode) == _Red)

  001a2	8a 48 14	 mov	 cl, BYTE PTR [eax+20]
  001a5	84 c9		 test	 cl, cl
  001a7	75 12		 jne	 SHORT $L223149

; 669  : 						{	// rotate red up from right subtree
; 670  : 						_Color(_Pnode) = _Black;

  001a9	88 58 14	 mov	 BYTE PTR [eax+20], bl

; 671  : 						_Color(_Fixnodeparent) = _Red;
; 672  : 						_Lrotate(_Fixnodeparent);

  001ac	56		 push	 esi
  001ad	8b cd		 mov	 ecx, ebp
  001af	c6 46 14 00	 mov	 BYTE PTR [esi+20], 0
  001b3	e8 00 00 00 00	 call	 ?_Lrotate@?$_Tree@V?$_Tmap_traits@KHU?$less@K@std@@V?$allocator@U?$pair@$$CBKH@std@@@2@$0A@@std@@@std@@IAEXPAU_Node@?$_Tree_nod@V?$_Tmap_traits@KHU?$less@K@std@@V?$allocator@U?$pair@$$CBKH@std@@@2@$0A@@std@@@2@@Z ; std::_Tree<std::_Tmap_traits<unsigned long,int,std::less<unsigned long>,std::allocator<std::pair<unsigned long const ,int> >,0> >::_Lrotate

; 673  : 						_Pnode = _Right(_Fixnodeparent);

  001b8	8b 46 08	 mov	 eax, DWORD PTR [esi+8]
$L223149:

; 674  : 						}
; 675  : 
; 676  : 					if (_Isnil(_Pnode))

  001bb	8a 48 15	 mov	 cl, BYTE PTR [eax+21]
  001be	84 c9		 test	 cl, cl

; 677  : 						_Fixnode = _Fixnodeparent;	// shouldn't happen
; 678  : 					else if (_Color(_Left(_Pnode)) == _Black

  001c0	75 76		 jne	 SHORT $L234716

; 679  : 						&& _Color(_Right(_Pnode)) == _Black)

  001c2	8b 10		 mov	 edx, DWORD PTR [eax]
  001c4	38 5a 14	 cmp	 BYTE PTR [edx+20], bl
  001c7	75 08		 jne	 SHORT $L223152
  001c9	8b 48 08	 mov	 ecx, DWORD PTR [eax+8]
  001cc	38 59 14	 cmp	 BYTE PTR [ecx+20], bl
  001cf	74 63		 je	 SHORT $L234717
$L223152:

; 680  : 						{	// redden right subtree with black children
; 681  : 						_Color(_Pnode) = _Red;
; 682  : 						_Fixnode = _Fixnodeparent;
; 683  : 						}
; 684  : 					else
; 685  : 						{	// must rearrange right subtree
; 686  : 						if (_Color(_Right(_Pnode)) == _Black)

  001d1	8b 48 08	 mov	 ecx, DWORD PTR [eax+8]
  001d4	38 59 14	 cmp	 BYTE PTR [ecx+20], bl
  001d7	75 14		 jne	 SHORT $L223154

; 687  : 							{	// rotate red up from left sub-subtree
; 688  : 							_Color(_Left(_Pnode)) = _Black;

  001d9	8b 10		 mov	 edx, DWORD PTR [eax]
  001db	88 5a 14	 mov	 BYTE PTR [edx+20], bl

; 689  : 							_Color(_Pnode) = _Red;
; 690  : 							_Rrotate(_Pnode);

  001de	50		 push	 eax
  001df	8b cd		 mov	 ecx, ebp
  001e1	c6 40 14 00	 mov	 BYTE PTR [eax+20], 0
  001e5	e8 00 00 00 00	 call	 ?_Rrotate@?$_Tree@V?$_Tmap_traits@KHU?$less@K@std@@V?$allocator@U?$pair@$$CBKH@std@@@2@$0A@@std@@@std@@IAEXPAU_Node@?$_Tree_nod@V?$_Tmap_traits@KHU?$less@K@std@@V?$allocator@U?$pair@$$CBKH@std@@@2@$0A@@std@@@2@@Z ; std::_Tree<std::_Tmap_traits<unsigned long,int,std::less<unsigned long>,std::allocator<std::pair<unsigned long const ,int> >,0> >::_Rrotate

; 691  : 							_Pnode = _Right(_Fixnodeparent);

  001ea	8b 46 08	 mov	 eax, DWORD PTR [esi+8]
$L223154:

; 692  : 							}
; 693  : 
; 694  : 						_Color(_Pnode) = _Color(_Fixnodeparent);

  001ed	8a 4e 14	 mov	 cl, BYTE PTR [esi+20]
  001f0	88 48 14	 mov	 BYTE PTR [eax+20], cl

; 695  : 						_Color(_Fixnodeparent) = _Black;

  001f3	88 5e 14	 mov	 BYTE PTR [esi+20], bl

; 696  : 						_Color(_Right(_Pnode)) = _Black;

  001f6	8b 50 08	 mov	 edx, DWORD PTR [eax+8]

; 697  : 						_Lrotate(_Fixnodeparent);

  001f9	56		 push	 esi
  001fa	8b cd		 mov	 ecx, ebp
  001fc	88 5a 14	 mov	 BYTE PTR [edx+20], bl
  001ff	e8 00 00 00 00	 call	 ?_Lrotate@?$_Tree@V?$_Tmap_traits@KHU?$less@K@std@@V?$allocator@U?$pair@$$CBKH@std@@@2@$0A@@std@@@std@@IAEXPAU_Node@?$_Tree_nod@V?$_Tmap_traits@KHU?$less@K@std@@V?$allocator@U?$pair@$$CBKH@std@@@2@$0A@@std@@@2@@Z ; std::_Tree<std::_Tmap_traits<unsigned long,int,std::less<unsigned long>,std::allocator<std::pair<unsigned long const ,int> >,0> >::_Lrotate

; 698  : 						break;	// tree now recolored/rebalanced

  00204	eb 78		 jmp	 SHORT $L223147
$L223148:

; 699  : 						}
; 700  : 					}
; 701  : 				else
; 702  : 					{	// fixup right subtree
; 703  : 					_Pnode = _Left(_Fixnodeparent);
; 704  : 					if (_Color(_Pnode) == _Red)

  00206	8a 48 14	 mov	 cl, BYTE PTR [eax+20]
  00209	84 c9		 test	 cl, cl
  0020b	75 11		 jne	 SHORT $L223156

; 705  : 						{	// rotate red up from left subtree
; 706  : 						_Color(_Pnode) = _Black;

  0020d	88 58 14	 mov	 BYTE PTR [eax+20], bl

; 707  : 						_Color(_Fixnodeparent) = _Red;
; 708  : 						_Rrotate(_Fixnodeparent);

  00210	56		 push	 esi
  00211	8b cd		 mov	 ecx, ebp
  00213	c6 46 14 00	 mov	 BYTE PTR [esi+20], 0
  00217	e8 00 00 00 00	 call	 ?_Rrotate@?$_Tree@V?$_Tmap_traits@KHU?$less@K@std@@V?$allocator@U?$pair@$$CBKH@std@@@2@$0A@@std@@@std@@IAEXPAU_Node@?$_Tree_nod@V?$_Tmap_traits@KHU?$less@K@std@@V?$allocator@U?$pair@$$CBKH@std@@@2@$0A@@std@@@2@@Z ; std::_Tree<std::_Tmap_traits<unsigned long,int,std::less<unsigned long>,std::allocator<std::pair<unsigned long const ,int> >,0> >::_Rrotate

; 709  : 						_Pnode = _Left(_Fixnodeparent);

  0021c	8b 06		 mov	 eax, DWORD PTR [esi]
$L223156:

; 710  : 						}
; 711  : 					if (_Isnil(_Pnode))

  0021e	8a 48 15	 mov	 cl, BYTE PTR [eax+21]
  00221	84 c9		 test	 cl, cl

; 712  : 						_Fixnode = _Fixnodeparent;	// shouldn't happen
; 713  : 					else if (_Color(_Right(_Pnode)) == _Black

  00223	75 13		 jne	 SHORT $L234716

; 714  : 						&& _Color(_Left(_Pnode)) == _Black)

  00225	8b 50 08	 mov	 edx, DWORD PTR [eax+8]
  00228	38 5a 14	 cmp	 BYTE PTR [edx+20], bl
  0022b	75 20		 jne	 SHORT $L223159
  0022d	8b 08		 mov	 ecx, DWORD PTR [eax]
  0022f	38 59 14	 cmp	 BYTE PTR [ecx+20], bl
  00232	75 19		 jne	 SHORT $L223159
$L234717:

; 715  : 						{	// redden left subtree with black children
; 716  : 						_Color(_Pnode) = _Red;

  00234	c6 40 14 00	 mov	 BYTE PTR [eax+20], 0
$L234716:

; 662  : 			{	// erasing black link, must recolor/rebalance tree
; 663  : 			for (; _Fixnode != _Root() && _Color(_Fixnode) == _Black;
; 664  : 				_Fixnodeparent = _Parent(_Fixnode))

  00238	8b 55 04	 mov	 edx, DWORD PTR [ebp+4]
  0023b	8b 42 04	 mov	 eax, DWORD PTR [edx+4]

; 717  : 						_Fixnode = _Fixnodeparent;

  0023e	8b fe		 mov	 edi, esi
  00240	3b f8		 cmp	 edi, eax
  00242	8b 76 04	 mov	 esi, DWORD PTR [esi+4]
  00245	0f 85 45 ff ff
	ff		 jne	 $L223145

; 662  : 			{	// erasing black link, must recolor/rebalance tree
; 663  : 			for (; _Fixnode != _Root() && _Color(_Fixnode) == _Black;
; 664  : 				_Fixnodeparent = _Parent(_Fixnode))

  0024b	eb 31		 jmp	 SHORT $L223147
$L223159:

; 718  : 						}
; 719  : 					else
; 720  : 						{	// must rearrange left subtree
; 721  : 						if (_Color(_Left(_Pnode)) == _Black)

  0024d	8b 08		 mov	 ecx, DWORD PTR [eax]
  0024f	38 59 14	 cmp	 BYTE PTR [ecx+20], bl
  00252	75 14		 jne	 SHORT $L223161

; 722  : 							{	// rotate red up from right sub-subtree
; 723  : 							_Color(_Right(_Pnode)) = _Black;

  00254	8b 50 08	 mov	 edx, DWORD PTR [eax+8]
  00257	88 5a 14	 mov	 BYTE PTR [edx+20], bl

; 724  : 							_Color(_Pnode) = _Red;
; 725  : 							_Lrotate(_Pnode);

  0025a	50		 push	 eax
  0025b	8b cd		 mov	 ecx, ebp
  0025d	c6 40 14 00	 mov	 BYTE PTR [eax+20], 0
  00261	e8 00 00 00 00	 call	 ?_Lrotate@?$_Tree@V?$_Tmap_traits@KHU?$less@K@std@@V?$allocator@U?$pair@$$CBKH@std@@@2@$0A@@std@@@std@@IAEXPAU_Node@?$_Tree_nod@V?$_Tmap_traits@KHU?$less@K@std@@V?$allocator@U?$pair@$$CBKH@std@@@2@$0A@@std@@@2@@Z ; std::_Tree<std::_Tmap_traits<unsigned long,int,std::less<unsigned long>,std::allocator<std::pair<unsigned long const ,int> >,0> >::_Lrotate

; 726  : 							_Pnode = _Left(_Fixnodeparent);

  00266	8b 06		 mov	 eax, DWORD PTR [esi]
$L223161:

; 727  : 							}
; 728  : 
; 729  : 						_Color(_Pnode) = _Color(_Fixnodeparent);

  00268	8a 4e 14	 mov	 cl, BYTE PTR [esi+20]
  0026b	88 48 14	 mov	 BYTE PTR [eax+20], cl

; 730  : 						_Color(_Fixnodeparent) = _Black;

  0026e	88 5e 14	 mov	 BYTE PTR [esi+20], bl

; 731  : 						_Color(_Left(_Pnode)) = _Black;

  00271	8b 10		 mov	 edx, DWORD PTR [eax]

; 732  : 						_Rrotate(_Fixnodeparent);

  00273	56		 push	 esi
  00274	8b cd		 mov	 ecx, ebp
  00276	88 5a 14	 mov	 BYTE PTR [edx+20], bl
  00279	e8 00 00 00 00	 call	 ?_Rrotate@?$_Tree@V?$_Tmap_traits@KHU?$less@K@std@@V?$allocator@U?$pair@$$CBKH@std@@@2@$0A@@std@@@std@@IAEXPAU_Node@?$_Tree_nod@V?$_Tmap_traits@KHU?$less@K@std@@V?$allocator@U?$pair@$$CBKH@std@@@2@$0A@@std@@@2@@Z ; std::_Tree<std::_Tmap_traits<unsigned long,int,std::less<unsigned long>,std::allocator<std::pair<unsigned long const ,int> >,0> >::_Rrotate
$L223147:

; 733  : 						break;	// tree now recolored/rebalanced
; 734  : 						}
; 735  : 					}
; 736  : 
; 737  : 			_Color(_Fixnode) = _Black;	// ensure stopping node is black

  0027e	88 5f 14	 mov	 BYTE PTR [edi+20], bl
$L223144:

; 738  : 			}
; 739  : 
; 740  : 		this->_Alnod.destroy(_Erasednode);	// destroy, free erased node
; 741  : 		this->_Alnod.deallocate(_Erasednode, 1);

  00281	8b 44 24 10	 mov	 eax, DWORD PTR __Erasednode$[esp+100]
  00285	50		 push	 eax
  00286	e8 00 00 00 00	 call	 ??3@YAXPAX@Z		; operator delete

; 742  : 
; 743  : 		if (0 < _Mysize)

  0028b	8b 45 08	 mov	 eax, DWORD PTR [ebp+8]
  0028e	83 c4 04	 add	 esp, 4
  00291	85 c0		 test	 eax, eax
  00293	5f		 pop	 edi
  00294	5b		 pop	 ebx
  00295	76 04		 jbe	 SHORT $L223162

; 744  : 			--_Mysize;

  00297	48		 dec	 eax
  00298	89 45 08	 mov	 DWORD PTR [ebp+8], eax
$L223162:

; 745  : 
; 746  : 		return (_Where);	// return successor iterator

  0029b	8b 4c 24 64	 mov	 ecx, DWORD PTR __Where$[esp+88]
  0029f	8b 44 24 60	 mov	 eax, DWORD PTR ___$ReturnUdt$[esp+88]
  002a3	89 08		 mov	 DWORD PTR [eax], ecx

; 747  : 		}

  002a5	8b 4c 24 50	 mov	 ecx, DWORD PTR __$EHRec$[esp+92]
  002a9	5e		 pop	 esi
  002aa	5d		 pop	 ebp
  002ab	64 89 0d 00 00
	00 00		 mov	 DWORD PTR fs:__except_list, ecx
  002b2	83 c4 54	 add	 esp, 84			; 00000054H
  002b5	c2 08 00	 ret	 8
$L234715:
_TEXT	ENDS
;	COMDAT text$x
text$x	SEGMENT
$L234232:
  00000	8d 4d b0	 lea	 ecx, DWORD PTR $T234227[ebp]
  00003	e9 00 00 00 00	 jmp	 ??1?$basic_string@DU?$char_traits@D@std@@V?$allocator@D@2@@std@@QAE@XZ ; std::basic_string<char,std::char_traits<char>,std::allocator<char> >::~basic_string<char,std::char_traits<char>,std::allocator<char> >
__ehhandler$?erase@?$_Tree@V?$_Tmap_traits@KHU?$less@K@std@@V?$allocator@U?$pair@$$CBKH@std@@@2@$0A@@std@@@std@@QAE?AViterator@12@V312@@Z:
  00008	b8 00 00 00 00	 mov	 eax, OFFSET FLAT:$T234710
  0000d	e9 00 00 00 00	 jmp	 ___CxxFrameHandler
text$x	ENDS
?erase@?$_Tree@V?$_Tmap_traits@KHU?$less@K@std@@V?$allocator@U?$pair@$$CBKH@std@@@2@$0A@@std@@@std@@QAE?AViterator@12@V312@@Z ENDP ; std::_Tree<std::_Tmap_traits<unsigned long,int,std::less<unsigned long>,std::allocator<std::pair<unsigned long const ,int> >,0> >::erase
; Function compile flags: /Ogty
;	COMDAT ??0out_of_range@std@@QAE@ABV01@@Z
_TEXT	SEGMENT
___that$ = 8						; size = 4
??0out_of_range@std@@QAE@ABV01@@Z PROC NEAR		; std::out_of_range::out_of_range, COMDAT
; _this$ = ecx
  00000	8b 44 24 04	 mov	 eax, DWORD PTR ___that$[esp-4]
  00004	56		 push	 esi
  00005	50		 push	 eax
  00006	8b f1		 mov	 esi, ecx
  00008	e8 00 00 00 00	 call	 ??0logic_error@std@@QAE@ABV01@@Z
  0000d	c7 06 00 00 00
	00		 mov	 DWORD PTR [esi], OFFSET FLAT:??_7out_of_range@std@@6B@
  00013	8b c6		 mov	 eax, esi
  00015	5e		 pop	 esi
  00016	c2 04 00	 ret	 4
??0out_of_range@std@@QAE@ABV01@@Z ENDP			; std::out_of_range::out_of_range
_TEXT	ENDS
PUBLIC	?_Tidy@?$vector@U_VECINFO@@V?$allocator@U_VECINFO@@@std@@@std@@IAEXXZ ; std::vector<_VECINFO,std::allocator<_VECINFO> >::_Tidy
; Function compile flags: /Ogty
; File c:\program files\microsoft visual studio .net 2003\vc7\include\vector
;	COMDAT ?_Tidy@?$vector@U_VECINFO@@V?$allocator@U_VECINFO@@@std@@@std@@IAEXXZ
_TEXT	SEGMENT
?_Tidy@?$vector@U_VECINFO@@V?$allocator@U_VECINFO@@@std@@@std@@IAEXXZ PROC NEAR ; std::vector<_VECINFO,std::allocator<_VECINFO> >::_Tidy, COMDAT
; _this$ = ecx

; 791  : 		{	// free all storage

  00000	53		 push	 ebx
  00001	8b d9		 mov	 ebx, ecx
  00003	56		 push	 esi

; 792  : 		if (_Myfirst != 0)

  00004	8b 73 04	 mov	 esi, DWORD PTR [ebx+4]
  00007	85 f6		 test	 esi, esi
  00009	74 23		 je	 SHORT $L234813
  0000b	57		 push	 edi

; 793  : 			{	// something to free, destroy and deallocate it
; 794  : 			_Destroy(_Myfirst, _Mylast);

  0000c	8b 7b 08	 mov	 edi, DWORD PTR [ebx+8]
  0000f	3b f7		 cmp	 esi, edi
  00011	74 0e		 je	 SHORT $L234806
$L234804:
  00013	8b ce		 mov	 ecx, esi
  00015	e8 00 00 00 00	 call	 ??1_VECINFO@@QAE@XZ
  0001a	83 c6 38	 add	 esi, 56			; 00000038H
  0001d	3b f7		 cmp	 esi, edi
  0001f	75 f2		 jne	 SHORT $L234804
$L234806:

; 795  : 			this->_Alval.deallocate(_Myfirst, _Myend - _Myfirst);

  00021	8b 43 04	 mov	 eax, DWORD PTR [ebx+4]
  00024	50		 push	 eax
  00025	e8 00 00 00 00	 call	 ??3@YAXPAX@Z		; operator delete
  0002a	83 c4 04	 add	 esp, 4
  0002d	5f		 pop	 edi
$L234813:
  0002e	5e		 pop	 esi

; 796  : 			}
; 797  : 		_Myfirst = 0, _Mylast = 0, _Myend = 0;

  0002f	c7 43 04 00 00
	00 00		 mov	 DWORD PTR [ebx+4], 0
  00036	c7 43 08 00 00
	00 00		 mov	 DWORD PTR [ebx+8], 0
  0003d	c7 43 0c 00 00
	00 00		 mov	 DWORD PTR [ebx+12], 0
  00044	5b		 pop	 ebx

; 798  : 		}

  00045	c3		 ret	 0
?_Tidy@?$vector@U_VECINFO@@V?$allocator@U_VECINFO@@@std@@@std@@IAEXXZ ENDP ; std::vector<_VECINFO,std::allocator<_VECINFO> >::_Tidy
_TEXT	ENDS
PUBLIC	?_Insert_n@?$vector@UD3DXVECTOR3@@V?$allocator@UD3DXVECTOR3@@@std@@@std@@IAEXViterator@12@IABUD3DXVECTOR3@@@Z ; std::vector<D3DXVECTOR3,std::allocator<D3DXVECTOR3> >::_Insert_n
;	COMDAT xdata$x
; File c:\program files\microsoft visual studio .net 2003\vc7\include\xutility
xdata$x	SEGMENT
$T235046 DD	0ffffffffH
	DD	00H
	DD	0ffffffffH
	DD	00H
	DD	0ffffffffH
	DD	00H
	DD	0ffffffffH
	DD	00H
$T235048 DD	00H
	DD	00H
	DD	00H
	DD	FLAT:$L234824
$T235049 DD	00H
	DD	00H
	DD	00H
	DD	FLAT:$L234826
$T235047 DD	00H
	DD	00H
	DD	01H
	DD	01H
	DD	FLAT:$T235048
	DD	02H
	DD	02H
	DD	03H
	DD	01H
	DD	FLAT:$T235049
$T235043 DD	019930520H
	DD	04H
	DD	FLAT:$T235046
	DD	02H
	DD	FLAT:$T235047
	DD	2 DUP(00H)
; Function compile flags: /Ogty
; File c:\program files\microsoft visual studio .net 2003\vc7\include\vector
xdata$x	ENDS
;	COMDAT ?_Insert_n@?$vector@UD3DXVECTOR3@@V?$allocator@UD3DXVECTOR3@@@std@@@std@@IAEXViterator@12@IABUD3DXVECTOR3@@@Z
_TEXT	SEGMENT
__Tmp$ = -28						; size = 12
__$EHRec$ = -16						; size = 16
tv427 = 8						; size = 4
tv414 = 8						; size = 4
__Cat$235038 = 8					; size = 1
__Cat$235024 = 8					; size = 1
__Cat$235000 = 8					; size = 1
__Cat$234960 = 8					; size = 1
__Cat$234939 = 8					; size = 1
__Cat$234914 = 8					; size = 1
__Where$ = 8						; size = 4
tv220 = 12						; size = 4
__Count$ = 12						; size = 4
tv398 = 16						; size = 4
__Newvec$226862 = 16					; size = 4
__Val$ = 16						; size = 4
?_Insert_n@?$vector@UD3DXVECTOR3@@V?$allocator@UD3DXVECTOR3@@@std@@@std@@IAEXViterator@12@IABUD3DXVECTOR3@@@Z PROC NEAR ; std::vector<D3DXVECTOR3,std::allocator<D3DXVECTOR3> >::_Insert_n, COMDAT
; _this$ = ecx

; 809  : 		{	// insert _Count * _Val at _Where

  00000	55		 push	 ebp
  00001	8b ec		 mov	 ebp, esp
  00003	6a ff		 push	 -1
  00005	68 00 00 00 00	 push	 __ehhandler$?_Insert_n@?$vector@UD3DXVECTOR3@@V?$allocator@UD3DXVECTOR3@@@std@@@std@@IAEXViterator@12@IABUD3DXVECTOR3@@@Z
  0000a	64 a1 00 00 00
	00		 mov	 eax, DWORD PTR fs:__except_list
  00010	50		 push	 eax
  00011	64 89 25 00 00
	00 00		 mov	 DWORD PTR fs:__except_list, esp
  00018	83 ec 10	 sub	 esp, 16			; 00000010H

; 810  : 		_Ty _Tmp = _Val;	// in case _Val is in sequence

  0001b	8b 45 10	 mov	 eax, DWORD PTR __Val$[ebp]
  0001e	53		 push	 ebx
  0001f	56		 push	 esi
  00020	8b f1		 mov	 esi, ecx
  00022	8b 08		 mov	 ecx, DWORD PTR [eax]
  00024	8b 50 04	 mov	 edx, DWORD PTR [eax+4]

; 811  : 		size_type _Capacity = capacity();

  00027	8b 5e 04	 mov	 ebx, DWORD PTR [esi+4]
  0002a	85 db		 test	 ebx, ebx
  0002c	8b 40 08	 mov	 eax, DWORD PTR [eax+8]
  0002f	57		 push	 edi
  00030	89 65 f0	 mov	 DWORD PTR __$EHRec$[ebp], esp
  00033	89 4d e4	 mov	 DWORD PTR __Tmp$[ebp], ecx
  00036	89 55 e8	 mov	 DWORD PTR __Tmp$[ebp+4], edx
  00039	89 45 ec	 mov	 DWORD PTR __Tmp$[ebp+8], eax
  0003c	75 04		 jne	 SHORT $L234832
  0003e	33 c9		 xor	 ecx, ecx
  00040	eb 15		 jmp	 SHORT $L234833
$L234832:
  00042	8b 4e 0c	 mov	 ecx, DWORD PTR [esi+12]
  00045	2b cb		 sub	 ecx, ebx
  00047	b8 ab aa aa 2a	 mov	 eax, 715827883		; 2aaaaaabH
  0004c	f7 e9		 imul	 ecx
  0004e	d1 fa		 sar	 edx, 1
  00050	8b ca		 mov	 ecx, edx
  00052	c1 e9 1f	 shr	 ecx, 31			; 0000001fH
  00055	03 ca		 add	 ecx, edx
$L234833:

; 812  : 
; 813  : 		if (_Count == 0)

  00057	8b 7d 0c	 mov	 edi, DWORD PTR __Count$[ebp]
  0005a	85 ff		 test	 edi, edi
  0005c	0f 84 3c 02 00
	00		 je	 $L226882

; 814  : 			;
; 815  : 		else if (max_size() - size() < _Count)

  00062	85 db		 test	 ebx, ebx
  00064	75 04		 jne	 SHORT $L234854
  00066	33 c0		 xor	 eax, eax
  00068	eb 15		 jmp	 SHORT $L234855
$L234854:
  0006a	8b 56 08	 mov	 edx, DWORD PTR [esi+8]
  0006d	2b d3		 sub	 edx, ebx
  0006f	b8 ab aa aa 2a	 mov	 eax, 715827883		; 2aaaaaabH
  00074	f7 ea		 imul	 edx
  00076	d1 fa		 sar	 edx, 1
  00078	8b c2		 mov	 eax, edx
  0007a	c1 e8 1f	 shr	 eax, 31			; 0000001fH
  0007d	03 c2		 add	 eax, edx
$L234855:
  0007f	ba 55 55 55 15	 mov	 edx, 357913941		; 15555555H
  00084	2b d0		 sub	 edx, eax
  00086	3b d7		 cmp	 edx, edi
  00088	73 07		 jae	 SHORT $L226858

; 816  : 			_Xlen();	// result too long

  0008a	8b ce		 mov	 ecx, esi
  0008c	e8 00 00 00 00	 call	 ?_Xlen@?$vector@UD3DXVECTOR3@@V?$allocator@UD3DXVECTOR3@@@std@@@std@@IBEXXZ ; std::vector<D3DXVECTOR3,std::allocator<D3DXVECTOR3> >::_Xlen
$L235050:
$L226858:

; 817  : 		else if (_Capacity < size() + _Count)

  00091	85 db		 test	 ebx, ebx
  00093	75 04		 jne	 SHORT $L234861
  00095	33 c0		 xor	 eax, eax
  00097	eb 15		 jmp	 SHORT $L234862
$L234861:
  00099	8b 56 08	 mov	 edx, DWORD PTR [esi+8]
  0009c	2b d3		 sub	 edx, ebx
  0009e	b8 ab aa aa 2a	 mov	 eax, 715827883		; 2aaaaaabH
  000a3	f7 ea		 imul	 edx
  000a5	d1 fa		 sar	 edx, 1
  000a7	8b c2		 mov	 eax, edx
  000a9	c1 e8 1f	 shr	 eax, 31			; 0000001fH
  000ac	03 c2		 add	 eax, edx
$L234862:
  000ae	03 c7		 add	 eax, edi
  000b0	3b c8		 cmp	 ecx, eax
  000b2	0f 83 0e 01 00
	00		 jae	 $L226860

; 818  : 			{	// not enough room, reallocate
; 819  : 			_Capacity = max_size() - _Capacity / 2 < _Capacity
; 820  : 				? 0 : _Capacity + _Capacity / 2;	// try to grow by 50%

  000b8	8b c1		 mov	 eax, ecx
  000ba	d1 e8		 shr	 eax, 1
  000bc	ba 55 55 55 15	 mov	 edx, 357913941		; 15555555H
  000c1	2b d0		 sub	 edx, eax
  000c3	3b d1		 cmp	 edx, ecx
  000c5	73 04		 jae	 SHORT $L234821
  000c7	33 c9		 xor	 ecx, ecx
  000c9	eb 02		 jmp	 SHORT $L234822
$L234821:
  000cb	03 c8		 add	 ecx, eax
$L234822:

; 821  : 			if (_Capacity < size() + _Count)

  000cd	85 db		 test	 ebx, ebx
  000cf	75 04		 jne	 SHORT $L234884
  000d1	33 c0		 xor	 eax, eax
  000d3	eb 15		 jmp	 SHORT $L234885
$L234884:
  000d5	8b 56 08	 mov	 edx, DWORD PTR [esi+8]
  000d8	2b d3		 sub	 edx, ebx
  000da	b8 ab aa aa 2a	 mov	 eax, 715827883		; 2aaaaaabH
  000df	f7 ea		 imul	 edx
  000e1	d1 fa		 sar	 edx, 1
  000e3	8b c2		 mov	 eax, edx
  000e5	c1 e8 1f	 shr	 eax, 31			; 0000001fH
  000e8	03 c2		 add	 eax, edx
$L234885:
  000ea	03 c7		 add	 eax, edi
  000ec	3b c8		 cmp	 ecx, eax
  000ee	73 0b		 jae	 SHORT $L226861

; 822  : 				_Capacity = size() + _Count;

  000f0	8b ce		 mov	 ecx, esi
  000f2	e8 00 00 00 00	 call	 ?size@?$vector@UD3DXVECTOR3@@V?$allocator@UD3DXVECTOR3@@@std@@@std@@QBEIXZ ; std::vector<D3DXVECTOR3,std::allocator<D3DXVECTOR3> >::size
  000f7	8b c8		 mov	 ecx, eax
  000f9	03 cf		 add	 ecx, edi
$L226861:

; 823  : 			pointer _Newvec = this->_Alval.allocate(_Capacity);

  000fb	8d 1c 49	 lea	 ebx, DWORD PTR [ecx+ecx*2]
  000fe	c1 e3 02	 shl	 ebx, 2
  00101	53		 push	 ebx
  00102	e8 00 00 00 00	 call	 ??2@YAPAXI@Z		; operator new

; 824  : 			pointer _Ptr = _Newvec;
; 825  : 
; 826  : 			_TRY_BEGIN
; 827  : 			_Ptr = _Ucopy(_Myfirst, _ITER_BASE(_Where),
; 828  : 				_Newvec);	// copy prefix

  00107	8b 55 08	 mov	 edx, DWORD PTR __Cat$234914[ebp]
  0010a	8b 4e 04	 mov	 ecx, DWORD PTR [esi+4]
  0010d	52		 push	 edx
  0010e	56		 push	 esi
  0010f	50		 push	 eax
  00110	89 45 10	 mov	 DWORD PTR __Newvec$226862[ebp], eax
  00113	8b 45 08	 mov	 eax, DWORD PTR __Where$[ebp]
  00116	50		 push	 eax
  00117	51		 push	 ecx
  00118	c7 45 fc 00 00
	00 00		 mov	 DWORD PTR __$EHRec$[ebp+12], 0
  0011f	e8 00 00 00 00	 call	 ??$_Uninit_copy@PAUD3DXVECTOR3@@PAU1@V?$allocator@UD3DXVECTOR3@@@std@@@std@@YAPAUD3DXVECTOR3@@PAU1@00AAV?$allocator@UD3DXVECTOR3@@@0@U_Nonscalar_ptr_iterator_tag@0@@Z ; std::_Uninit_copy<D3DXVECTOR3 *,D3DXVECTOR3 *,std::allocator<D3DXVECTOR3> >

; 829  : 			_Ptr = _Ufill(_Ptr, _Count, _Tmp);	// add new stuff

  00124	8b 4d 08	 mov	 ecx, DWORD PTR __Cat$234939[ebp]
  00127	83 c4 18	 add	 esp, 24			; 00000018H
  0012a	51		 push	 ecx
  0012b	56		 push	 esi
  0012c	8d 55 e4	 lea	 edx, DWORD PTR __Tmp$[ebp]
  0012f	52		 push	 edx
  00130	57		 push	 edi
  00131	50		 push	 eax
  00132	89 45 0c	 mov	 DWORD PTR tv220[ebp], eax
  00135	e8 00 00 00 00	 call	 ??$_Uninit_fill_n@PAUD3DXVECTOR3@@IU1@V?$allocator@UD3DXVECTOR3@@@std@@@std@@YAXPAUD3DXVECTOR3@@IABU1@AAV?$allocator@UD3DXVECTOR3@@@0@U_Nonscalar_ptr_iterator_tag@0@@Z ; std::_Uninit_fill_n<D3DXVECTOR3 *,unsigned int,D3DXVECTOR3,std::allocator<D3DXVECTOR3> >

; 830  : 			_Ucopy(_ITER_BASE(_Where), _Mylast, _Ptr);	// copy suffix

  0013a	8b 55 08	 mov	 edx, DWORD PTR __Cat$234960[ebp]
  0013d	8b 4d 0c	 mov	 ecx, DWORD PTR tv220[ebp]
  00140	83 c4 14	 add	 esp, 20			; 00000014H
  00143	52		 push	 edx
  00144	8d 04 7f	 lea	 eax, DWORD PTR [edi+edi*2]
  00147	8d 04 81	 lea	 eax, DWORD PTR [ecx+eax*4]
  0014a	8b 4e 08	 mov	 ecx, DWORD PTR [esi+8]
  0014d	56		 push	 esi
  0014e	50		 push	 eax
  0014f	8b 45 08	 mov	 eax, DWORD PTR __Where$[ebp]
  00152	51		 push	 ecx
  00153	50		 push	 eax
  00154	e8 00 00 00 00	 call	 ??$_Uninit_copy@PAUD3DXVECTOR3@@PAU1@V?$allocator@UD3DXVECTOR3@@@std@@@std@@YAPAUD3DXVECTOR3@@PAU1@00AAV?$allocator@UD3DXVECTOR3@@@0@U_Nonscalar_ptr_iterator_tag@0@@Z ; std::_Uninit_copy<D3DXVECTOR3 *,D3DXVECTOR3 *,std::allocator<D3DXVECTOR3> >

; 835  : 			_CATCH_END
; 836  : 
; 837  : 			_Count += size();

  00159	8b 46 04	 mov	 eax, DWORD PTR [esi+4]
  0015c	83 c4 14	 add	 esp, 20			; 00000014H
  0015f	85 c0		 test	 eax, eax
  00161	74 15		 je	 SHORT $L234973
$L234972:
  00163	8b 4e 08	 mov	 ecx, DWORD PTR [esi+8]
  00166	2b c8		 sub	 ecx, eax
  00168	b8 ab aa aa 2a	 mov	 eax, 715827883		; 2aaaaaabH
  0016d	f7 e9		 imul	 ecx
  0016f	d1 fa		 sar	 edx, 1
  00171	8b c2		 mov	 eax, edx
  00173	c1 e8 1f	 shr	 eax, 31			; 0000001fH
  00176	03 c2		 add	 eax, edx
$L234973:
  00178	03 f8		 add	 edi, eax

; 838  : 			if (_Myfirst != 0)

  0017a	8b 46 04	 mov	 eax, DWORD PTR [esi+4]
  0017d	85 c0		 test	 eax, eax
  0017f	74 09		 je	 SHORT $L234976

; 839  : 				{	// destroy and deallocate old array
; 840  : 				_Destroy(_Myfirst, _Mylast);
; 841  : 				this->_Alval.deallocate(_Myfirst, _Myend - _Myfirst);

  00181	50		 push	 eax
  00182	e8 00 00 00 00	 call	 ??3@YAXPAX@Z		; operator delete
  00187	83 c4 04	 add	 esp, 4
$L234976:

; 842  : 				}
; 843  : 			_Myend = _Newvec + _Capacity;

  0018a	8b 45 10	 mov	 eax, DWORD PTR __Newvec$226862[ebp]

; 844  : 			_Mylast = _Newvec + _Count;

  0018d	8d 0c 7f	 lea	 ecx, DWORD PTR [edi+edi*2]
  00190	03 d8		 add	 ebx, eax
  00192	8d 14 88	 lea	 edx, DWORD PTR [eax+ecx*4]
  00195	89 5e 0c	 mov	 DWORD PTR [esi+12], ebx
  00198	89 56 08	 mov	 DWORD PTR [esi+8], edx

; 845  : 			_Myfirst = _Newvec;

  0019b	89 46 04	 mov	 DWORD PTR [esi+4], eax

; 873  : 			}
; 874  : 		}

  0019e	8b 4d f4	 mov	 ecx, DWORD PTR __$EHRec$[ebp+4]
  001a1	64 89 0d 00 00
	00 00		 mov	 DWORD PTR fs:__except_list, ecx
  001a8	5f		 pop	 edi
  001a9	5e		 pop	 esi
  001aa	5b		 pop	 ebx
  001ab	8b e5		 mov	 esp, ebp
  001ad	5d		 pop	 ebp
  001ae	c2 0c 00	 ret	 12			; 0000000cH
$L234824:

; 831  : 			_CATCH_ALL
; 832  : 			_Destroy(_Newvec, _Ptr);
; 833  : 			this->_Alval.deallocate(_Newvec, _Capacity);

  001b1	8b 45 10	 mov	 eax, DWORD PTR __Newvec$226862[ebp]
  001b4	50		 push	 eax
  001b5	e8 00 00 00 00	 call	 ??3@YAXPAX@Z		; operator delete
  001ba	83 c4 04	 add	 esp, 4
$L234826:

; 834  : 			_RERAISE;

  001bd	6a 00		 push	 0
  001bf	6a 00		 push	 0
  001c1	e8 00 00 00 00	 call	 __CxxThrowException@8
$L235051:
$L226860:

; 846  : 			}
; 847  : 		else if ((size_type)(_Mylast - _ITER_BASE(_Where)) < _Count)

  001c6	8b 4e 08	 mov	 ecx, DWORD PTR [esi+8]
  001c9	8b 5d 08	 mov	 ebx, DWORD PTR __Where$[ebp]
  001cc	8b d1		 mov	 edx, ecx
  001ce	2b d3		 sub	 edx, ebx
  001d0	b8 ab aa aa 2a	 mov	 eax, 715827883		; 2aaaaaabH
  001d5	f7 ea		 imul	 edx
  001d7	d1 fa		 sar	 edx, 1
  001d9	8b c2		 mov	 eax, edx
  001db	c1 e8 1f	 shr	 eax, 31			; 0000001fH
  001de	03 c2		 add	 eax, edx
  001e0	3b c7		 cmp	 eax, edi
  001e2	89 4d 10	 mov	 DWORD PTR tv398[ebp], ecx
  001e5	73 78		 jae	 SHORT $L226873

; 848  : 			{	// new stuff spills off end
; 849  : 			_Ucopy(_ITER_BASE(_Where), _Mylast,
; 850  : 				_ITER_BASE(_Where) + _Count);	// copy suffix

  001e7	8d 04 7f	 lea	 eax, DWORD PTR [edi+edi*2]
  001ea	c1 e0 02	 shl	 eax, 2
  001ed	89 45 08	 mov	 DWORD PTR tv414[ebp], eax
  001f0	8b 55 08	 mov	 edx, DWORD PTR __Cat$235000[ebp]
  001f3	52		 push	 edx
  001f4	56		 push	 esi
  001f5	03 c3		 add	 eax, ebx
  001f7	50		 push	 eax
  001f8	51		 push	 ecx
  001f9	53		 push	 ebx
  001fa	e8 00 00 00 00	 call	 ??$_Uninit_copy@PAUD3DXVECTOR3@@PAU1@V?$allocator@UD3DXVECTOR3@@@std@@@std@@YAPAUD3DXVECTOR3@@PAU1@00AAV?$allocator@UD3DXVECTOR3@@@0@U_Nonscalar_ptr_iterator_tag@0@@Z ; std::_Uninit_copy<D3DXVECTOR3 *,D3DXVECTOR3 *,std::allocator<D3DXVECTOR3> >

; 851  : 
; 852  : 			_TRY_BEGIN
; 853  : 			_Ufill(_Mylast, _Count - (_Mylast - _ITER_BASE(_Where)),
; 854  : 				_Tmp);	// insert new stuff off end

  001ff	8b 4e 08	 mov	 ecx, DWORD PTR [esi+8]
  00202	83 c4 14	 add	 esp, 20			; 00000014H
  00205	8d 45 e4	 lea	 eax, DWORD PTR __Tmp$[ebp]
  00208	50		 push	 eax
  00209	8b d1		 mov	 edx, ecx
  0020b	2b d3		 sub	 edx, ebx
  0020d	b8 ab aa aa 2a	 mov	 eax, 715827883		; 2aaaaaabH
  00212	f7 ea		 imul	 edx
  00214	d1 fa		 sar	 edx, 1
  00216	8b c2		 mov	 eax, edx
  00218	c1 e8 1f	 shr	 eax, 31			; 0000001fH
  0021b	03 c2		 add	 eax, edx
  0021d	2b f8		 sub	 edi, eax
  0021f	57		 push	 edi
  00220	51		 push	 ecx
  00221	8b ce		 mov	 ecx, esi
  00223	c7 45 fc 02 00
	00 00		 mov	 DWORD PTR __$EHRec$[ebp+12], 2
  0022a	e8 00 00 00 00	 call	 ?_Ufill@?$vector@UD3DXVECTOR3@@V?$allocator@UD3DXVECTOR3@@@std@@@std@@IAEPAUD3DXVECTOR3@@PAU3@IABU3@@Z ; std::vector<D3DXVECTOR3,std::allocator<D3DXVECTOR3> >::_Ufill

; 855  : 			_CATCH_ALL
; 856  : 			_Destroy(_ITER_BASE(_Where) + _Count, _Mylast + _Count);
; 857  : 			_RERAISE;
; 858  : 			_CATCH_END
; 859  : 
; 860  : 			_Mylast += _Count;

  0022f	8b 7e 08	 mov	 edi, DWORD PTR [esi+8]
  00232	8b 45 08	 mov	 eax, DWORD PTR tv414[ebp]
  00235	03 f8		 add	 edi, eax
  00237	89 7e 08	 mov	 DWORD PTR [esi+8], edi

; 861  : 			fill(_ITER_BASE(_Where), _Mylast - _Count,
; 862  : 				_Tmp);	// insert up to old end

  0023a	8d 4d e4	 lea	 ecx, DWORD PTR __Tmp$[ebp]
  0023d	8b f7		 mov	 esi, edi
  0023f	51		 push	 ecx
  00240	2b f0		 sub	 esi, eax
  00242	56		 push	 esi
  00243	53		 push	 ebx
  00244	e8 00 00 00 00	 call	 ??$fill@PAUD3DXVECTOR3@@U1@@std@@YAXPAUD3DXVECTOR3@@0ABU1@@Z ; std::fill<D3DXVECTOR3 *,D3DXVECTOR3>
  00249	83 c4 0c	 add	 esp, 12			; 0000000cH

; 873  : 			}
; 874  : 		}

  0024c	8b 4d f4	 mov	 ecx, DWORD PTR __$EHRec$[ebp+4]
  0024f	64 89 0d 00 00
	00 00		 mov	 DWORD PTR fs:__except_list, ecx
  00256	5f		 pop	 edi
  00257	5e		 pop	 esi
  00258	5b		 pop	 ebx
  00259	8b e5		 mov	 esp, ebp
  0025b	5d		 pop	 ebp
  0025c	c2 0c 00	 ret	 12			; 0000000cH
$L226873:

; 863  : 			}
; 864  : 		else
; 865  : 			{	// new stuff can all be assigned
; 866  : 			pointer _Oldend = _Mylast;
; 867  : 			_Mylast = _Ucopy(_Oldend - _Count, _Oldend,
; 868  : 				_Mylast);	// copy suffix

  0025f	8d 3c 7f	 lea	 edi, DWORD PTR [edi+edi*2]
  00262	8b c1		 mov	 eax, ecx
  00264	c1 e7 02	 shl	 edi, 2
  00267	2b c7		 sub	 eax, edi
  00269	89 45 08	 mov	 DWORD PTR tv427[ebp], eax
  0026c	8b 55 08	 mov	 edx, DWORD PTR __Cat$235024[ebp]
  0026f	52		 push	 edx
  00270	56		 push	 esi
  00271	51		 push	 ecx
  00272	51		 push	 ecx
  00273	50		 push	 eax
  00274	e8 00 00 00 00	 call	 ??$_Uninit_copy@PAUD3DXVECTOR3@@PAU1@V?$allocator@UD3DXVECTOR3@@@std@@@std@@YAPAUD3DXVECTOR3@@PAU1@00AAV?$allocator@UD3DXVECTOR3@@@0@U_Nonscalar_ptr_iterator_tag@0@@Z ; std::_Uninit_copy<D3DXVECTOR3 *,D3DXVECTOR3 *,std::allocator<D3DXVECTOR3> >

; 869  : 			copy_backward(_ITER_BASE(_Where), _Oldend - _Count,
; 870  : 				_Oldend);	// copy hole

  00279	8b 4d 10	 mov	 ecx, DWORD PTR tv398[ebp]
  0027c	8b 55 08	 mov	 edx, DWORD PTR tv427[ebp]
  0027f	89 46 08	 mov	 DWORD PTR [esi+8], eax
  00282	8b 45 08	 mov	 eax, DWORD PTR __Cat$235038[ebp]
  00285	50		 push	 eax
  00286	51		 push	 ecx
  00287	52		 push	 edx
  00288	53		 push	 ebx
  00289	e8 00 00 00 00	 call	 ??$_Copy_backward_opt@PAUD3DXVECTOR3@@PAU1@@std@@YAPAUD3DXVECTOR3@@PAU1@00U_Nonscalar_ptr_iterator_tag@0@@Z ; std::_Copy_backward_opt<D3DXVECTOR3 *,D3DXVECTOR3 *>

; 871  : 			fill(_ITER_BASE(_Where), _ITER_BASE(_Where) + _Count,
; 872  : 				_Tmp);	// insert into hole

  0028e	8d 45 e4	 lea	 eax, DWORD PTR __Tmp$[ebp]
  00291	50		 push	 eax
  00292	03 fb		 add	 edi, ebx
  00294	57		 push	 edi
  00295	53		 push	 ebx
  00296	e8 00 00 00 00	 call	 ??$fill@PAUD3DXVECTOR3@@U1@@std@@YAXPAUD3DXVECTOR3@@0ABU1@@Z ; std::fill<D3DXVECTOR3 *,D3DXVECTOR3>
  0029b	83 c4 30	 add	 esp, 48			; 00000030H
$L226882:

; 873  : 			}
; 874  : 		}

  0029e	8b 4d f4	 mov	 ecx, DWORD PTR __$EHRec$[ebp+4]
  002a1	5f		 pop	 edi
  002a2	5e		 pop	 esi
  002a3	64 89 0d 00 00
	00 00		 mov	 DWORD PTR fs:__except_list, ecx
  002aa	5b		 pop	 ebx
  002ab	8b e5		 mov	 esp, ebp
  002ad	5d		 pop	 ebp
  002ae	c2 0c 00	 ret	 12			; 0000000cH
$L235045:
_TEXT	ENDS
;	COMDAT text$x
text$x	SEGMENT
__ehhandler$?_Insert_n@?$vector@UD3DXVECTOR3@@V?$allocator@UD3DXVECTOR3@@@std@@@std@@IAEXViterator@12@IABUD3DXVECTOR3@@@Z:
  00000	b8 00 00 00 00	 mov	 eax, OFFSET FLAT:$T235043
  00005	e9 00 00 00 00	 jmp	 ___CxxFrameHandler
text$x	ENDS
?_Insert_n@?$vector@UD3DXVECTOR3@@V?$allocator@UD3DXVECTOR3@@@std@@@std@@IAEXViterator@12@IABUD3DXVECTOR3@@@Z ENDP ; std::vector<D3DXVECTOR3,std::allocator<D3DXVECTOR3> >::_Insert_n
PUBLIC	?_Xlen@?$vector@U_VECINFO@@V?$allocator@U_VECINFO@@@std@@@std@@IBEXXZ ; std::vector<_VECINFO,std::allocator<_VECINFO> >::_Xlen
;	COMDAT xdata$x
; File c:\program files\microsoft visual studio .net 2003\vc7\include\stdexcept
xdata$x	SEGMENT
$T235173 DD	0ffffffffH
	DD	FLAT:$L235058
$T235170 DD	019930520H
	DD	01H
	DD	FLAT:$T235173
	DD	2 DUP(00H)
	DD	2 DUP(00H)
; Function compile flags: /Ogty
; File c:\program files\microsoft visual studio .net 2003\vc7\include\vector
xdata$x	ENDS
;	COMDAT ?_Xlen@?$vector@U_VECINFO@@V?$allocator@U_VECINFO@@@std@@@std@@IBEXXZ
_TEXT	SEGMENT
$T235057 = -80						; size = 28
$T235056 = -52						; size = 40
__$EHRec$ = -12						; size = 12
?_Xlen@?$vector@U_VECINFO@@V?$allocator@U_VECINFO@@@std@@@std@@IBEXXZ PROC NEAR ; std::vector<_VECINFO,std::allocator<_VECINFO> >::_Xlen, COMDAT
; _this$ = ecx

; 883  : 		{	// report a length_error

  00000	6a ff		 push	 -1
  00002	68 00 00 00 00	 push	 __ehhandler$?_Xlen@?$vector@U_VECINFO@@V?$allocator@U_VECINFO@@@std@@@std@@IBEXXZ
  00007	64 a1 00 00 00
	00		 mov	 eax, DWORD PTR fs:__except_list
  0000d	50		 push	 eax
  0000e	64 89 25 00 00
	00 00		 mov	 DWORD PTR fs:__except_list, esp
  00015	83 ec 44	 sub	 esp, 68			; 00000044H

; 884  : 		_THROW(length_error, "vector<T> too long");

  00018	6a 12		 push	 18			; 00000012H
  0001a	68 00 00 00 00	 push	 OFFSET FLAT:??_C@_0BD@OLBABOEK@vector?$DMT?$DO?5too?5long?$AA@
  0001f	8d 4c 24 08	 lea	 ecx, DWORD PTR $T235057[esp+88]
  00023	c7 44 24 20 0f
	00 00 00	 mov	 DWORD PTR $T235057[esp+112], 15 ; 0000000fH
  0002b	c7 44 24 1c 00
	00 00 00	 mov	 DWORD PTR $T235057[esp+108], 0
  00033	c6 44 24 0c 00	 mov	 BYTE PTR $T235057[esp+92], 0
  00038	e8 00 00 00 00	 call	 ?assign@?$basic_string@DU?$char_traits@D@std@@V?$allocator@D@2@@std@@QAEAAV12@PBDI@Z ; std::basic_string<char,std::char_traits<char>,std::allocator<char> >::assign
  0003d	8d 04 24	 lea	 eax, DWORD PTR $T235057[esp+80]
  00040	50		 push	 eax
  00041	8d 4c 24 20	 lea	 ecx, DWORD PTR $T235056[esp+84]
  00045	c7 44 24 50 00
	00 00 00	 mov	 DWORD PTR __$EHRec$[esp+92], 0
  0004d	e8 00 00 00 00	 call	 ??0logic_error@std@@QAE@ABV?$basic_string@DU?$char_traits@D@std@@V?$allocator@D@2@@1@@Z ; std::logic_error::logic_error
  00052	68 00 00 00 00	 push	 OFFSET FLAT:__TI3?AVlength_error@std@@
  00057	8d 4c 24 20	 lea	 ecx, DWORD PTR $T235056[esp+84]
  0005b	51		 push	 ecx
  0005c	c7 44 24 24 00
	00 00 00	 mov	 DWORD PTR $T235056[esp+88], OFFSET FLAT:??_7length_error@std@@6B@
  00064	e8 00 00 00 00	 call	 __CxxThrowException@8
$L235174:
$L235172:
  00069	cc		 int	 3
_TEXT	ENDS
;	COMDAT text$x
text$x	SEGMENT
$L235058:
  00000	8d 4d b0	 lea	 ecx, DWORD PTR $T235057[ebp]
  00003	e9 00 00 00 00	 jmp	 ??1?$basic_string@DU?$char_traits@D@std@@V?$allocator@D@2@@std@@QAE@XZ ; std::basic_string<char,std::char_traits<char>,std::allocator<char> >::~basic_string<char,std::char_traits<char>,std::allocator<char> >
__ehhandler$?_Xlen@?$vector@U_VECINFO@@V?$allocator@U_VECINFO@@@std@@@std@@IBEXXZ:
  00008	b8 00 00 00 00	 mov	 eax, OFFSET FLAT:$T235170
  0000d	e9 00 00 00 00	 jmp	 ___CxxFrameHandler
text$x	ENDS
?_Xlen@?$vector@U_VECINFO@@V?$allocator@U_VECINFO@@@std@@@std@@IBEXXZ ENDP ; std::vector<_VECINFO,std::allocator<_VECINFO> >::_Xlen
PUBLIC	?_Buy@?$vector@UD3DXVECTOR3@@V?$allocator@UD3DXVECTOR3@@@std@@@std@@IAE_NI@Z ; std::vector<D3DXVECTOR3,std::allocator<D3DXVECTOR3> >::_Buy
; Function compile flags: /Ogty
;	COMDAT ?_Buy@?$vector@UD3DXVECTOR3@@V?$allocator@UD3DXVECTOR3@@@std@@@std@@IAE_NI@Z
_TEXT	SEGMENT
__Capacity$ = 8						; size = 4
?_Buy@?$vector@UD3DXVECTOR3@@V?$allocator@UD3DXVECTOR3@@@std@@@std@@IAE_NI@Z PROC NEAR ; std::vector<D3DXVECTOR3,std::allocator<D3DXVECTOR3> >::_Buy, COMDAT
; _this$ = ecx

; 771  : 		_Myfirst = 0, _Mylast = 0, _Myend = 0;
; 772  : 		if (_Capacity == 0)

  00000	8b 44 24 04	 mov	 eax, DWORD PTR __Capacity$[esp-4]
  00004	56		 push	 esi
  00005	8b f1		 mov	 esi, ecx
  00007	33 c9		 xor	 ecx, ecx
  00009	3b c1		 cmp	 eax, ecx
  0000b	89 4e 04	 mov	 DWORD PTR [esi+4], ecx
  0000e	89 4e 08	 mov	 DWORD PTR [esi+8], ecx
  00011	89 4e 0c	 mov	 DWORD PTR [esi+12], ecx
  00014	75 06		 jne	 SHORT $L220828

; 773  : 			return (false);

  00016	32 c0		 xor	 al, al
  00018	5e		 pop	 esi

; 783  : 		}

  00019	c2 04 00	 ret	 4
$L220828:

; 774  : 		else if (max_size() < _Capacity)

  0001c	3d 55 55 55 15	 cmp	 eax, 357913941		; 15555555H
  00021	76 07		 jbe	 SHORT $L220830

; 775  : 			_Xlen();	// result too long

  00023	8b ce		 mov	 ecx, esi
  00025	e8 00 00 00 00	 call	 ?_Xlen@?$vector@UD3DXVECTOR3@@V?$allocator@UD3DXVECTOR3@@@std@@@std@@IBEXXZ ; std::vector<D3DXVECTOR3,std::allocator<D3DXVECTOR3> >::_Xlen
$L235205:
$L220830:
  0002a	57		 push	 edi

; 776  : 		else
; 777  : 			{	// nonempty array, allocate storage
; 778  : 			_Myfirst = this->_Alval.allocate(_Capacity);

  0002b	8d 3c 40	 lea	 edi, DWORD PTR [eax+eax*2]
  0002e	c1 e7 02	 shl	 edi, 2
  00031	57		 push	 edi
  00032	e8 00 00 00 00	 call	 ??2@YAPAXI@Z		; operator new

; 779  : 			_Mylast = _Myfirst;
; 780  : 			_Myend = _Myfirst + _Capacity;

  00037	03 f8		 add	 edi, eax
  00039	83 c4 04	 add	 esp, 4
  0003c	89 7e 0c	 mov	 DWORD PTR [esi+12], edi
  0003f	89 46 04	 mov	 DWORD PTR [esi+4], eax
  00042	89 46 08	 mov	 DWORD PTR [esi+8], eax
  00045	5f		 pop	 edi

; 781  : 			}
; 782  : 		return (true);

  00046	b0 01		 mov	 al, 1
  00048	5e		 pop	 esi

; 783  : 		}

  00049	c2 04 00	 ret	 4
$L235204:
?_Buy@?$vector@UD3DXVECTOR3@@V?$allocator@UD3DXVECTOR3@@@std@@@std@@IAE_NI@Z ENDP ; std::vector<D3DXVECTOR3,std::allocator<D3DXVECTOR3> >::_Buy
_TEXT	ENDS
PUBLIC	?erase@?$_Tree@V?$_Tmap_traits@KHU?$less@K@std@@V?$allocator@U?$pair@$$CBKH@std@@@2@$0A@@std@@@std@@QAE?AViterator@12@V312@0@Z ; std::_Tree<std::_Tmap_traits<unsigned long,int,std::less<unsigned long>,std::allocator<std::pair<unsigned long const ,int> >,0> >::erase
; Function compile flags: /Ogty
; File c:\program files\microsoft visual studio .net 2003\vc7\include\xtree
;	COMDAT ?erase@?$_Tree@V?$_Tmap_traits@KHU?$less@K@std@@V?$allocator@U?$pair@$$CBKH@std@@@2@$0A@@std@@@std@@QAE?AViterator@12@V312@0@Z
_TEXT	SEGMENT
___$ReturnUdt$ = 8					; size = 4
$T235212 = 12						; size = 4
__First$ = 12						; size = 4
__Last$ = 16						; size = 4
?erase@?$_Tree@V?$_Tmap_traits@KHU?$less@K@std@@V?$allocator@U?$pair@$$CBKH@std@@@2@$0A@@std@@@std@@QAE?AViterator@12@V312@0@Z PROC NEAR ; std::_Tree<std::_Tmap_traits<unsigned long,int,std::less<unsigned long>,std::allocator<std::pair<unsigned long const ,int> >,0> >::erase, COMDAT
; _this$ = ecx

; 750  : 		{	// erase [_First, _Last)

  00000	53		 push	 ebx

; 751  : 		if (_First == begin() && _Last == end())

  00001	8b 5c 24 10	 mov	 ebx, DWORD PTR __Last$[esp]
  00005	56		 push	 esi
  00006	8b 74 24 10	 mov	 esi, DWORD PTR __First$[esp+4]
  0000a	57		 push	 edi
  0000b	8b f9		 mov	 edi, ecx
  0000d	8b 47 04	 mov	 eax, DWORD PTR [edi+4]
  00010	3b 30		 cmp	 esi, DWORD PTR [eax]
  00012	75 38		 jne	 SHORT $L235544
  00014	3b d8		 cmp	 ebx, eax
  00016	75 34		 jne	 SHORT $L235544

; 752  : 			{	// erase all
; 753  : 			clear();

  00018	8b 40 04	 mov	 eax, DWORD PTR [eax+4]
  0001b	50		 push	 eax
  0001c	8b cf		 mov	 ecx, edi
  0001e	e8 00 00 00 00	 call	 ?_Erase@?$_Tree@V?$_Tmap_traits@KHU?$less@K@std@@V?$allocator@U?$pair@$$CBKH@std@@@2@$0A@@std@@@std@@IAEXPAU_Node@?$_Tree_nod@V?$_Tmap_traits@KHU?$less@K@std@@V?$allocator@U?$pair@$$CBKH@std@@@2@$0A@@std@@@2@@Z ; std::_Tree<std::_Tmap_traits<unsigned long,int,std::less<unsigned long>,std::allocator<std::pair<unsigned long const ,int> >,0> >::_Erase
  00023	8b 47 04	 mov	 eax, DWORD PTR [edi+4]
  00026	89 40 04	 mov	 DWORD PTR [eax+4], eax
  00029	8b 47 04	 mov	 eax, DWORD PTR [edi+4]
  0002c	c7 47 08 00 00
	00 00		 mov	 DWORD PTR [edi+8], 0
  00033	89 00		 mov	 DWORD PTR [eax], eax
  00035	8b 47 04	 mov	 eax, DWORD PTR [edi+4]
  00038	89 40 08	 mov	 DWORD PTR [eax+8], eax

; 754  : 			return (begin());

  0003b	8b 4f 04	 mov	 ecx, DWORD PTR [edi+4]
  0003e	8b 11		 mov	 edx, DWORD PTR [ecx]
  00040	8b 44 24 10	 mov	 eax, DWORD PTR ___$ReturnUdt$[esp+8]
  00044	5f		 pop	 edi
  00045	5e		 pop	 esi
  00046	89 10		 mov	 DWORD PTR [eax], edx
  00048	5b		 pop	 ebx

; 761  : 			}
; 762  : 		}

  00049	c2 0c 00	 ret	 12			; 0000000cH
$L235544:

; 755  : 			}
; 756  : 		else
; 757  : 			{	// partial erase, one at a time
; 758  : 			while (_First != _Last)

  0004c	3b f3		 cmp	 esi, ebx
  0004e	74 5b		 je	 SHORT $L222204
$L222203:

; 759  : 				erase(_First++);

  00050	8a 46 15	 mov	 al, BYTE PTR [esi+21]
  00053	84 c0		 test	 al, al
  00055	8b ce		 mov	 ecx, esi
  00057	75 41		 jne	 SHORT $L235515
  00059	8b 46 08	 mov	 eax, DWORD PTR [esi+8]
  0005c	8a 50 15	 mov	 dl, BYTE PTR [eax+21]
  0005f	84 d2		 test	 dl, dl
  00061	75 1a		 jne	 SHORT $L235546
  00063	8b f0		 mov	 esi, eax
  00065	8b 06		 mov	 eax, DWORD PTR [esi]
  00067	8a 50 15	 mov	 dl, BYTE PTR [eax+21]
  0006a	84 d2		 test	 dl, dl
  0006c	75 2c		 jne	 SHORT $L235515
  0006e	8b ff		 npad	 2
$L235529:
  00070	8b f0		 mov	 esi, eax
  00072	8b 06		 mov	 eax, DWORD PTR [esi]
  00074	8a 50 15	 mov	 dl, BYTE PTR [eax+21]
  00077	84 d2		 test	 dl, dl
  00079	74 f5		 je	 SHORT $L235529
  0007b	eb 1d		 jmp	 SHORT $L235515
$L235546:
  0007d	8b 46 04	 mov	 eax, DWORD PTR [esi+4]
  00080	8a 50 15	 mov	 dl, BYTE PTR [eax+21]
  00083	84 d2		 test	 dl, dl
  00085	75 11		 jne	 SHORT $L235518
$L235517:
  00087	3b 70 08	 cmp	 esi, DWORD PTR [eax+8]
  0008a	75 0c		 jne	 SHORT $L235518
  0008c	8b f0		 mov	 esi, eax
  0008e	8b 40 04	 mov	 eax, DWORD PTR [eax+4]
  00091	8a 50 15	 mov	 dl, BYTE PTR [eax+21]
  00094	84 d2		 test	 dl, dl
  00096	74 ef		 je	 SHORT $L235517
$L235518:
  00098	8b f0		 mov	 esi, eax
$L235515:
  0009a	51		 push	 ecx
  0009b	8d 44 24 18	 lea	 eax, DWORD PTR $T235212[esp+12]
  0009f	50		 push	 eax
  000a0	8b cf		 mov	 ecx, edi
  000a2	e8 00 00 00 00	 call	 ?erase@?$_Tree@V?$_Tmap_traits@KHU?$less@K@std@@V?$allocator@U?$pair@$$CBKH@std@@@2@$0A@@std@@@std@@QAE?AViterator@12@V312@@Z ; std::_Tree<std::_Tmap_traits<unsigned long,int,std::less<unsigned long>,std::allocator<std::pair<unsigned long const ,int> >,0> >::erase
  000a7	3b f3		 cmp	 esi, ebx
  000a9	75 a5		 jne	 SHORT $L222203
$L222204:

; 760  : 			return (_First);

  000ab	8b 44 24 10	 mov	 eax, DWORD PTR ___$ReturnUdt$[esp+8]
  000af	5f		 pop	 edi
  000b0	89 30		 mov	 DWORD PTR [eax], esi
  000b2	5e		 pop	 esi
  000b3	5b		 pop	 ebx

; 761  : 			}
; 762  : 		}

  000b4	c2 0c 00	 ret	 12			; 0000000cH
?erase@?$_Tree@V?$_Tmap_traits@KHU?$less@K@std@@V?$allocator@U?$pair@$$CBKH@std@@@2@$0A@@std@@@std@@QAE?AViterator@12@V312@0@Z ENDP ; std::_Tree<std::_Tmap_traits<unsigned long,int,std::less<unsigned long>,std::allocator<std::pair<unsigned long const ,int> >,0> >::erase
_TEXT	ENDS
PUBLIC	??1?$vector@U_VECINFO@@V?$allocator@U_VECINFO@@@std@@@std@@QAE@XZ ; std::vector<_VECINFO,std::allocator<_VECINFO> >::~vector<_VECINFO,std::allocator<_VECINFO> >
; Function compile flags: /Ogty
; File c:\program files\microsoft visual studio .net 2003\vc7\include\vector
;	COMDAT ??1?$vector@U_VECINFO@@V?$allocator@U_VECINFO@@@std@@@std@@QAE@XZ
_TEXT	SEGMENT
??1?$vector@U_VECINFO@@V?$allocator@U_VECINFO@@@std@@@std@@QAE@XZ PROC NEAR ; std::vector<_VECINFO,std::allocator<_VECINFO> >::~vector<_VECINFO,std::allocator<_VECINFO> >, COMDAT
; _this$ = ecx

; 388  : 		_Tidy();

  00000	e9 00 00 00 00	 jmp	 ?_Tidy@?$vector@U_VECINFO@@V?$allocator@U_VECINFO@@@std@@@std@@IAEXXZ ; std::vector<_VECINFO,std::allocator<_VECINFO> >::_Tidy
??1?$vector@U_VECINFO@@V?$allocator@U_VECINFO@@@std@@@std@@QAE@XZ ENDP ; std::vector<_VECINFO,std::allocator<_VECINFO> >::~vector<_VECINFO,std::allocator<_VECINFO> >
_TEXT	ENDS
PUBLIC	?clear@?$vector@U_VECINFO@@V?$allocator@U_VECINFO@@@std@@@std@@QAEXXZ ; std::vector<_VECINFO,std::allocator<_VECINFO> >::clear
; Function compile flags: /Ogty
;	COMDAT ?clear@?$vector@U_VECINFO@@V?$allocator@U_VECINFO@@@std@@@std@@QAEXXZ
_TEXT	SEGMENT
?clear@?$vector@U_VECINFO@@V?$allocator@U_VECINFO@@@std@@@std@@QAEXXZ PROC NEAR ; std::vector<_VECINFO,std::allocator<_VECINFO> >::clear, COMDAT
; _this$ = ecx

; 744  : 		_Tidy();

  00000	e9 00 00 00 00	 jmp	 ?_Tidy@?$vector@U_VECINFO@@V?$allocator@U_VECINFO@@@std@@@std@@IAEXXZ ; std::vector<_VECINFO,std::allocator<_VECINFO> >::_Tidy
?clear@?$vector@U_VECINFO@@V?$allocator@U_VECINFO@@@std@@@std@@QAEXXZ ENDP ; std::vector<_VECINFO,std::allocator<_VECINFO> >::clear
_TEXT	ENDS
PUBLIC	?insert@?$vector@UD3DXVECTOR3@@V?$allocator@UD3DXVECTOR3@@@std@@@std@@QAE?AViterator@12@V312@ABUD3DXVECTOR3@@@Z ; std::vector<D3DXVECTOR3,std::allocator<D3DXVECTOR3> >::insert
; Function compile flags: /Ogty
;	COMDAT ?insert@?$vector@UD3DXVECTOR3@@V?$allocator@UD3DXVECTOR3@@@std@@@std@@QAE?AViterator@12@V312@ABUD3DXVECTOR3@@@Z
_TEXT	SEGMENT
___$ReturnUdt$ = 8					; size = 4
tv90 = 12						; size = 4
__Where$ = 12						; size = 4
__Val$ = 16						; size = 4
?insert@?$vector@UD3DXVECTOR3@@V?$allocator@UD3DXVECTOR3@@@std@@@std@@QAE?AViterator@12@V312@ABUD3DXVECTOR3@@@Z PROC NEAR ; std::vector<D3DXVECTOR3,std::allocator<D3DXVECTOR3> >::insert, COMDAT
; _this$ = ecx

; 620  : 		{	// insert _Val at _Where

  00000	53		 push	 ebx

; 621  : 		size_type _Off = size() == 0 ? 0 : _Where - begin();

  00001	8b 5c 24 0c	 mov	 ebx, DWORD PTR __Where$[esp]
  00005	56		 push	 esi
  00006	57		 push	 edi
  00007	8b f9		 mov	 edi, ecx
  00009	8b 77 04	 mov	 esi, DWORD PTR [edi+4]
  0000c	85 f6		 test	 esi, esi
  0000e	74 1b		 je	 SHORT $L235621
  00010	8b 4f 08	 mov	 ecx, DWORD PTR [edi+8]
  00013	2b ce		 sub	 ecx, esi
  00015	b8 ab aa aa 2a	 mov	 eax, 715827883		; 2aaaaaabH
  0001a	f7 e9		 imul	 ecx
  0001c	d1 fa		 sar	 edx, 1
  0001e	8b c2		 mov	 eax, edx
  00020	c1 e8 1f	 shr	 eax, 31			; 0000001fH
  00023	03 c2		 add	 eax, edx
  00025	89 44 24 14	 mov	 DWORD PTR tv90[esp+8], eax
  00029	75 04		 jne	 SHORT $L235560
$L235621:
  0002b	33 f6		 xor	 esi, esi
  0002d	eb 14		 jmp	 SHORT $L235561
$L235560:
  0002f	8b cb		 mov	 ecx, ebx
  00031	2b ce		 sub	 ecx, esi
  00033	b8 ab aa aa 2a	 mov	 eax, 715827883		; 2aaaaaabH
  00038	f7 e9		 imul	 ecx
  0003a	d1 fa		 sar	 edx, 1
  0003c	8b f2		 mov	 esi, edx
  0003e	c1 ee 1f	 shr	 esi, 31			; 0000001fH
  00041	03 f2		 add	 esi, edx
$L235561:

; 622  : 		_Insert_n(_Where, (size_type)1, _Val);

  00043	8b 4c 24 18	 mov	 ecx, DWORD PTR __Val$[esp+8]
  00047	51		 push	 ecx
  00048	6a 01		 push	 1
  0004a	53		 push	 ebx
  0004b	8b cf		 mov	 ecx, edi
  0004d	e8 00 00 00 00	 call	 ?_Insert_n@?$vector@UD3DXVECTOR3@@V?$allocator@UD3DXVECTOR3@@@std@@@std@@IAEXViterator@12@IABUD3DXVECTOR3@@@Z ; std::vector<D3DXVECTOR3,std::allocator<D3DXVECTOR3> >::_Insert_n

; 623  : 		return (begin() + _Off);

  00052	8b 47 04	 mov	 eax, DWORD PTR [edi+4]
  00055	8d 14 76	 lea	 edx, DWORD PTR [esi+esi*2]
  00058	5f		 pop	 edi
  00059	8d 0c 90	 lea	 ecx, DWORD PTR [eax+edx*4]
  0005c	8b 44 24 0c	 mov	 eax, DWORD PTR ___$ReturnUdt$[esp+4]
  00060	5e		 pop	 esi
  00061	89 08		 mov	 DWORD PTR [eax], ecx
  00063	5b		 pop	 ebx

; 624  : 		}

  00064	c2 0c 00	 ret	 12			; 0000000cH
?insert@?$vector@UD3DXVECTOR3@@V?$allocator@UD3DXVECTOR3@@@std@@@std@@QAE?AViterator@12@V312@ABUD3DXVECTOR3@@@Z ENDP ; std::vector<D3DXVECTOR3,std::allocator<D3DXVECTOR3> >::insert
_TEXT	ENDS
PUBLIC	?_Buy@?$vector@U_VECINFO@@V?$allocator@U_VECINFO@@@std@@@std@@IAE_NI@Z ; std::vector<_VECINFO,std::allocator<_VECINFO> >::_Buy
; Function compile flags: /Ogty
;	COMDAT ?_Buy@?$vector@U_VECINFO@@V?$allocator@U_VECINFO@@@std@@@std@@IAE_NI@Z
_TEXT	SEGMENT
__Capacity$ = 8						; size = 4
?_Buy@?$vector@U_VECINFO@@V?$allocator@U_VECINFO@@@std@@@std@@IAE_NI@Z PROC NEAR ; std::vector<_VECINFO,std::allocator<_VECINFO> >::_Buy, COMDAT
; _this$ = ecx

; 770  : 		{	// allocate array with _Capacity elements

  00000	56		 push	 esi

; 771  : 		_Myfirst = 0, _Mylast = 0, _Myend = 0;

  00001	33 c0		 xor	 eax, eax
  00003	57		 push	 edi

; 772  : 		if (_Capacity == 0)

  00004	8b 7c 24 0c	 mov	 edi, DWORD PTR __Capacity$[esp+4]
  00008	3b f8		 cmp	 edi, eax
  0000a	8b f1		 mov	 esi, ecx
  0000c	89 46 04	 mov	 DWORD PTR [esi+4], eax
  0000f	89 46 08	 mov	 DWORD PTR [esi+8], eax
  00012	89 46 0c	 mov	 DWORD PTR [esi+12], eax
  00015	75 07		 jne	 SHORT $L226799
  00017	5f		 pop	 edi

; 773  : 			return (false);

  00018	32 c0		 xor	 al, al
  0001a	5e		 pop	 esi

; 783  : 		}

  0001b	c2 04 00	 ret	 4
$L226799:

; 774  : 		else if (max_size() < _Capacity)

  0001e	81 ff 24 49 92
	04		 cmp	 edi, 76695844		; 04924924H
  00024	76 07		 jbe	 SHORT $L226801

; 775  : 			_Xlen();	// result too long

  00026	8b ce		 mov	 ecx, esi
  00028	e8 00 00 00 00	 call	 ?_Xlen@?$vector@U_VECINFO@@V?$allocator@U_VECINFO@@@std@@@std@@IBEXXZ ; std::vector<_VECINFO,std::allocator<_VECINFO> >::_Xlen
$L235650:
$L226801:

; 776  : 		else
; 777  : 			{	// nonempty array, allocate storage
; 778  : 			_Myfirst = this->_Alval.allocate(_Capacity);

  0002d	6b ff 38	 imul	 edi, 56			; 00000038H
  00030	57		 push	 edi
  00031	e8 00 00 00 00	 call	 ??2@YAPAXI@Z		; operator new

; 779  : 			_Mylast = _Myfirst;
; 780  : 			_Myend = _Myfirst + _Capacity;

  00036	03 f8		 add	 edi, eax
  00038	83 c4 04	 add	 esp, 4
  0003b	89 7e 0c	 mov	 DWORD PTR [esi+12], edi
  0003e	89 46 04	 mov	 DWORD PTR [esi+4], eax
  00041	89 46 08	 mov	 DWORD PTR [esi+8], eax
  00044	5f		 pop	 edi

; 781  : 			}
; 782  : 		return (true);

  00045	b0 01		 mov	 al, 1
  00047	5e		 pop	 esi

; 783  : 		}

  00048	c2 04 00	 ret	 4
$L235649:
?_Buy@?$vector@U_VECINFO@@V?$allocator@U_VECINFO@@@std@@@std@@IAE_NI@Z ENDP ; std::vector<_VECINFO,std::allocator<_VECINFO> >::_Buy
_TEXT	ENDS
PUBLIC	?_Insert_n@?$vector@U_VECINFO@@V?$allocator@U_VECINFO@@@std@@@std@@IAEXViterator@12@IABU_VECINFO@@@Z ; std::vector<_VECINFO,std::allocator<_VECINFO> >::_Insert_n
;	COMDAT xdata$x
; File c:\documents and settings\test\mes documents\source\virtuos_v17\build\program\_common\timer.h
xdata$x	SEGMENT
$T235898 DD	0ffffffffH
	DD	FLAT:$L235660
	DD	00H
	DD	00H
	DD	00H
	DD	00H
	DD	00H
	DD	00H
	DD	00H
	DD	00H
$T235900 DD	00H
	DD	00H
	DD	00H
	DD	FLAT:$L235657
$T235901 DD	00H
	DD	00H
	DD	00H
	DD	FLAT:$L235659
$T235899 DD	01H
	DD	01H
	DD	02H
	DD	01H
	DD	FLAT:$T235900
	DD	03H
	DD	03H
	DD	04H
	DD	01H
	DD	FLAT:$T235901
$T235895 DD	019930520H
	DD	05H
	DD	FLAT:$T235898
	DD	02H
	DD	FLAT:$T235899
	DD	2 DUP(00H)
; Function compile flags: /Ogty
; File c:\program files\microsoft visual studio .net 2003\vc7\include\vector
xdata$x	ENDS
;	COMDAT ?_Insert_n@?$vector@U_VECINFO@@V?$allocator@U_VECINFO@@@std@@@std@@IAEXViterator@12@IABU_VECINFO@@@Z
_TEXT	SEGMENT
__Tmp$ = -80						; size = 56
tv456 = -24						; size = 4
__Newvec$227046 = -24					; size = 4
_this$ = -20						; size = 4
__$EHRec$ = -16						; size = 16
__Cat$235882 = 8					; size = 1
__Cat$235868 = 8					; size = 1
__Cat$235844 = 8					; size = 1
__Cat$235805 = 8					; size = 1
__Cat$235782 = 8					; size = 1
__Cat$235759 = 8					; size = 1
tv485 = 8						; size = 4
__Where$ = 8						; size = 4
__Ptr$227047 = 12					; size = 4
__Count$ = 12						; size = 4
tv533 = 16						; size = 4
tv472 = 16						; size = 4
tv471 = 16						; size = 4
__Val$ = 16						; size = 4
?_Insert_n@?$vector@U_VECINFO@@V?$allocator@U_VECINFO@@@std@@@std@@IAEXViterator@12@IABU_VECINFO@@@Z PROC NEAR ; std::vector<_VECINFO,std::allocator<_VECINFO> >::_Insert_n, COMDAT
; _this$ = ecx

; 809  : 		{	// insert _Count * _Val at _Where

  00000	55		 push	 ebp
  00001	8b ec		 mov	 ebp, esp
  00003	6a ff		 push	 -1
  00005	68 00 00 00 00	 push	 __ehhandler$?_Insert_n@?$vector@U_VECINFO@@V?$allocator@U_VECINFO@@@std@@@std@@IAEXViterator@12@IABU_VECINFO@@@Z
  0000a	64 a1 00 00 00
	00		 mov	 eax, DWORD PTR fs:__except_list
  00010	50		 push	 eax
  00011	64 89 25 00 00
	00 00		 mov	 DWORD PTR fs:__except_list, esp
  00018	83 ec 44	 sub	 esp, 68			; 00000044H

; 810  : 		_Ty _Tmp = _Val;	// in case _Val is in sequence

  0001b	53		 push	 ebx
  0001c	56		 push	 esi
  0001d	57		 push	 edi
  0001e	89 65 f0	 mov	 DWORD PTR __$EHRec$[ebp], esp
  00021	8b f1		 mov	 esi, ecx
  00023	89 75 ec	 mov	 DWORD PTR _this$[ebp], esi
  00026	8b 45 10	 mov	 eax, DWORD PTR __Val$[ebp]
  00029	dd 40 20	 fld	 QWORD PTR [eax+32]
  0002c	dd 5d d0	 fstp	 QWORD PTR __Tmp$[ebp+32]
  0002f	dd 40 28	 fld	 QWORD PTR [eax+40]
  00032	8b c8		 mov	 ecx, eax
  00034	dd 5d d8	 fstp	 QWORD PTR __Tmp$[ebp+40]
  00037	8b 11		 mov	 edx, DWORD PTR [ecx]
  00039	89 55 b0	 mov	 DWORD PTR __Tmp$[ebp], edx
  0003c	8b 51 04	 mov	 edx, DWORD PTR [ecx+4]
  0003f	8b 49 08	 mov	 ecx, DWORD PTR [ecx+8]
  00042	89 55 b4	 mov	 DWORD PTR __Tmp$[ebp+4], edx
  00045	8b 50 0c	 mov	 edx, DWORD PTR [eax+12]
  00048	89 4d b8	 mov	 DWORD PTR __Tmp$[ebp+8], ecx
  0004b	8b 48 10	 mov	 ecx, DWORD PTR [eax+16]
  0004e	89 55 bc	 mov	 DWORD PTR __Tmp$[ebp+12], edx
  00051	8b 50 14	 mov	 edx, DWORD PTR [eax+20]
  00054	8b 40 30	 mov	 eax, DWORD PTR [eax+48]
  00057	89 4d c0	 mov	 DWORD PTR __Tmp$[ebp+16], ecx
  0005a	89 55 c4	 mov	 DWORD PTR __Tmp$[ebp+20], edx
  0005d	c7 45 c8 00 00
	00 00		 mov	 DWORD PTR __Tmp$[ebp+24], OFFSET FLAT:??_7CTimer@@6B@
  00064	89 45 e0	 mov	 DWORD PTR __Tmp$[ebp+48], eax

; 811  : 		size_type _Capacity = capacity();

  00067	8b 5e 04	 mov	 ebx, DWORD PTR [esi+4]
  0006a	33 c9		 xor	 ecx, ecx
  0006c	3b d9		 cmp	 ebx, ecx
  0006e	89 4d fc	 mov	 DWORD PTR __$EHRec$[ebp+12], ecx
  00071	74 18		 je	 SHORT $L235676
  00073	8b 4e 0c	 mov	 ecx, DWORD PTR [esi+12]
  00076	2b cb		 sub	 ecx, ebx
  00078	b8 93 24 49 92	 mov	 eax, -1840700269	; 92492493H
  0007d	f7 e9		 imul	 ecx
  0007f	03 d1		 add	 edx, ecx
  00081	c1 fa 05	 sar	 edx, 5
  00084	8b ca		 mov	 ecx, edx
  00086	c1 e9 1f	 shr	 ecx, 31			; 0000001fH
  00089	03 ca		 add	 ecx, edx
$L235676:

; 812  : 
; 813  : 		if (_Count == 0)

  0008b	8b 7d 0c	 mov	 edi, DWORD PTR __Count$[ebp]
  0008e	85 ff		 test	 edi, edi
  00090	0f 84 a3 02 00
	00		 je	 $L227066

; 814  : 			;
; 815  : 		else if (max_size() - size() < _Count)

  00096	85 db		 test	 ebx, ebx
  00098	75 04		 jne	 SHORT $L235698
  0009a	33 c0		 xor	 eax, eax
  0009c	eb 1b		 jmp	 SHORT $L235699
$L235698:
  0009e	8b 56 04	 mov	 edx, DWORD PTR [esi+4]
  000a1	8b 5e 08	 mov	 ebx, DWORD PTR [esi+8]
  000a4	2b da		 sub	 ebx, edx
  000a6	b8 93 24 49 92	 mov	 eax, -1840700269	; 92492493H
  000ab	f7 eb		 imul	 ebx
  000ad	03 d3		 add	 edx, ebx
  000af	c1 fa 05	 sar	 edx, 5
  000b2	8b c2		 mov	 eax, edx
  000b4	c1 e8 1f	 shr	 eax, 31			; 0000001fH
  000b7	03 c2		 add	 eax, edx
$L235699:
  000b9	ba 24 49 92 04	 mov	 edx, 76695844		; 04924924H
  000be	2b d0		 sub	 edx, eax
  000c0	3b d7		 cmp	 edx, edi
  000c2	73 07		 jae	 SHORT $L227042

; 816  : 			_Xlen();	// result too long

  000c4	8b ce		 mov	 ecx, esi
  000c6	e8 00 00 00 00	 call	 ?_Xlen@?$vector@U_VECINFO@@V?$allocator@U_VECINFO@@@std@@@std@@IBEXXZ ; std::vector<_VECINFO,std::allocator<_VECINFO> >::_Xlen
$L235902:
$L227042:

; 817  : 		else if (_Capacity < size() + _Count)

  000cb	8b 46 04	 mov	 eax, DWORD PTR [esi+4]
  000ce	85 c0		 test	 eax, eax
  000d0	75 04		 jne	 SHORT $L235705
  000d2	33 c0		 xor	 eax, eax
  000d4	eb 1b		 jmp	 SHORT $L235706
$L235705:
  000d6	8b 56 04	 mov	 edx, DWORD PTR [esi+4]
  000d9	8b 5e 08	 mov	 ebx, DWORD PTR [esi+8]
  000dc	2b da		 sub	 ebx, edx
  000de	b8 93 24 49 92	 mov	 eax, -1840700269	; 92492493H
  000e3	f7 eb		 imul	 ebx
  000e5	03 d3		 add	 edx, ebx
  000e7	c1 fa 05	 sar	 edx, 5
  000ea	8b c2		 mov	 eax, edx
  000ec	c1 e8 1f	 shr	 eax, 31			; 0000001fH
  000ef	03 c2		 add	 eax, edx
$L235706:
  000f1	03 c7		 add	 eax, edi
  000f3	3b c8		 cmp	 ecx, eax
  000f5	0f 83 3b 01 00
	00		 jae	 $L227044

; 818  : 			{	// not enough room, reallocate
; 819  : 			_Capacity = max_size() - _Capacity / 2 < _Capacity
; 820  : 				? 0 : _Capacity + _Capacity / 2;	// try to grow by 50%

  000fb	8b c1		 mov	 eax, ecx
  000fd	d1 e8		 shr	 eax, 1
  000ff	ba 24 49 92 04	 mov	 edx, 76695844		; 04924924H
  00104	2b d0		 sub	 edx, eax
  00106	3b d1		 cmp	 edx, ecx
  00108	73 04		 jae	 SHORT $L235654
  0010a	33 c9		 xor	 ecx, ecx
  0010c	eb 02		 jmp	 SHORT $L235655
$L235654:
  0010e	03 c8		 add	 ecx, eax
$L235655:

; 821  : 			if (_Capacity < size() + _Count)

  00110	8b 46 04	 mov	 eax, DWORD PTR [esi+4]
  00113	85 c0		 test	 eax, eax
  00115	75 04		 jne	 SHORT $L235728
  00117	33 c0		 xor	 eax, eax
  00119	eb 1b		 jmp	 SHORT $L235729
$L235728:
  0011b	8b 56 04	 mov	 edx, DWORD PTR [esi+4]
  0011e	8b 5e 08	 mov	 ebx, DWORD PTR [esi+8]
  00121	2b da		 sub	 ebx, edx
  00123	b8 93 24 49 92	 mov	 eax, -1840700269	; 92492493H
  00128	f7 eb		 imul	 ebx
  0012a	03 d3		 add	 edx, ebx
  0012c	c1 fa 05	 sar	 edx, 5
  0012f	8b c2		 mov	 eax, edx
  00131	c1 e8 1f	 shr	 eax, 31			; 0000001fH
  00134	03 c2		 add	 eax, edx
$L235729:
  00136	03 c7		 add	 eax, edi
  00138	3b c8		 cmp	 ecx, eax
  0013a	73 0b		 jae	 SHORT $L227045

; 822  : 				_Capacity = size() + _Count;

  0013c	8b ce		 mov	 ecx, esi
  0013e	e8 00 00 00 00	 call	 ?size@?$vector@U_VECINFO@@V?$allocator@U_VECINFO@@@std@@@std@@QBEIXZ ; std::vector<_VECINFO,std::allocator<_VECINFO> >::size
  00143	8b c8		 mov	 ecx, eax
  00145	03 cf		 add	 ecx, edi
$L227045:

; 823  : 			pointer _Newvec = this->_Alval.allocate(_Capacity);

  00147	6b c9 38	 imul	 ecx, 56			; 00000038H
  0014a	51		 push	 ecx
  0014b	89 4d 10	 mov	 DWORD PTR tv471[ebp], ecx
  0014e	e8 00 00 00 00	 call	 ??2@YAPAXI@Z		; operator new

; 824  : 			pointer _Ptr = _Newvec;
; 825  : 
; 826  : 			_TRY_BEGIN
; 827  : 			_Ptr = _Ucopy(_Myfirst, _ITER_BASE(_Where),
; 828  : 				_Newvec);	// copy prefix

  00153	8b 4d 08	 mov	 ecx, DWORD PTR __Cat$235759[ebp]
  00156	8b 55 08	 mov	 edx, DWORD PTR __Where$[ebp]
  00159	51		 push	 ecx
  0015a	8b d8		 mov	 ebx, eax
  0015c	8b 46 04	 mov	 eax, DWORD PTR [esi+4]
  0015f	56		 push	 esi
  00160	53		 push	 ebx
  00161	52		 push	 edx
  00162	50		 push	 eax
  00163	89 5d e8	 mov	 DWORD PTR __Newvec$227046[ebp], ebx
  00166	89 5d 0c	 mov	 DWORD PTR __Ptr$227047[ebp], ebx
  00169	c6 45 fc 01	 mov	 BYTE PTR __$EHRec$[ebp+12], 1
  0016d	e8 00 00 00 00	 call	 ??$_Uninit_copy@PAU_VECINFO@@PAU1@V?$allocator@U_VECINFO@@@std@@@std@@YAPAU_VECINFO@@PAU1@00AAV?$allocator@U_VECINFO@@@0@U_Nonscalar_ptr_iterator_tag@0@@Z ; std::_Uninit_copy<_VECINFO *,_VECINFO *,std::allocator<_VECINFO> >

; 829  : 			_Ptr = _Ufill(_Ptr, _Count, _Tmp);	// add new stuff

  00172	8b 4d 08	 mov	 ecx, DWORD PTR __Cat$235782[ebp]
  00175	83 c4 18	 add	 esp, 24			; 00000018H
  00178	51		 push	 ecx
  00179	56		 push	 esi
  0017a	8d 55 b0	 lea	 edx, DWORD PTR __Tmp$[ebp]
  0017d	52		 push	 edx
  0017e	57		 push	 edi
  0017f	50		 push	 eax
  00180	89 45 0c	 mov	 DWORD PTR __Ptr$227047[ebp], eax
  00183	e8 00 00 00 00	 call	 ??$_Uninit_fill_n@PAU_VECINFO@@IU1@V?$allocator@U_VECINFO@@@std@@@std@@YAXPAU_VECINFO@@IABU1@AAV?$allocator@U_VECINFO@@@0@U_Nonscalar_ptr_iterator_tag@0@@Z ; std::_Uninit_fill_n<_VECINFO *,unsigned int,_VECINFO,std::allocator<_VECINFO> >

; 830  : 			_Ucopy(_ITER_BASE(_Where), _Mylast, _Ptr);	// copy suffix

  00188	8b 55 08	 mov	 edx, DWORD PTR __Cat$235805[ebp]
  0018b	8b 4d 0c	 mov	 ecx, DWORD PTR __Ptr$227047[ebp]
  0018e	8b c7		 mov	 eax, edi
  00190	6b c0 38	 imul	 eax, 56			; 00000038H
  00193	83 c4 14	 add	 esp, 20			; 00000014H
  00196	52		 push	 edx
  00197	03 c8		 add	 ecx, eax
  00199	8b 46 08	 mov	 eax, DWORD PTR [esi+8]
  0019c	56		 push	 esi
  0019d	51		 push	 ecx
  0019e	50		 push	 eax
  0019f	8b 45 08	 mov	 eax, DWORD PTR __Where$[ebp]
  001a2	50		 push	 eax
  001a3	89 4d 0c	 mov	 DWORD PTR __Ptr$227047[ebp], ecx
  001a6	e8 00 00 00 00	 call	 ??$_Uninit_copy@PAU_VECINFO@@PAU1@V?$allocator@U_VECINFO@@@std@@@std@@YAPAU_VECINFO@@PAU1@00AAV?$allocator@U_VECINFO@@@0@U_Nonscalar_ptr_iterator_tag@0@@Z ; std::_Uninit_copy<_VECINFO *,_VECINFO *,std::allocator<_VECINFO> >

; 835  : 			_CATCH_END
; 836  : 
; 837  : 			_Count += size();

  001ab	8b 46 04	 mov	 eax, DWORD PTR [esi+4]
  001ae	83 c4 14	 add	 esp, 20			; 00000014H
  001b1	85 c0		 test	 eax, eax
  001b3	74 18		 je	 SHORT $L235818
$L235817:
  001b5	8b 4e 08	 mov	 ecx, DWORD PTR [esi+8]
  001b8	2b c8		 sub	 ecx, eax
  001ba	b8 93 24 49 92	 mov	 eax, -1840700269	; 92492493H
  001bf	f7 e9		 imul	 ecx
  001c1	03 d1		 add	 edx, ecx
  001c3	c1 fa 05	 sar	 edx, 5
  001c6	8b c2		 mov	 eax, edx
  001c8	c1 e8 1f	 shr	 eax, 31			; 0000001fH
  001cb	03 c2		 add	 eax, edx
$L235818:
  001cd	03 f8		 add	 edi, eax

; 838  : 			if (_Myfirst != 0)

  001cf	8b 46 04	 mov	 eax, DWORD PTR [esi+4]
  001d2	85 c0		 test	 eax, eax
  001d4	74 18		 je	 SHORT $L235821

; 839  : 				{	// destroy and deallocate old array
; 840  : 				_Destroy(_Myfirst, _Mylast);

  001d6	8b 4e 08	 mov	 ecx, DWORD PTR [esi+8]
  001d9	51		 push	 ecx
  001da	50		 push	 eax
  001db	8b ce		 mov	 ecx, esi
  001dd	e8 00 00 00 00	 call	 ?_Destroy@?$vector@U_VECINFO@@V?$allocator@U_VECINFO@@@std@@@std@@IAEXPAU_VECINFO@@0@Z ; std::vector<_VECINFO,std::allocator<_VECINFO> >::_Destroy

; 841  : 				this->_Alval.deallocate(_Myfirst, _Myend - _Myfirst);

  001e2	8b 56 04	 mov	 edx, DWORD PTR [esi+4]
  001e5	52		 push	 edx
  001e6	e8 00 00 00 00	 call	 ??3@YAXPAX@Z		; operator delete
  001eb	83 c4 04	 add	 esp, 4
$L235821:

; 842  : 				}
; 843  : 			_Myend = _Newvec + _Capacity;

  001ee	8b 45 10	 mov	 eax, DWORD PTR tv471[ebp]

; 844  : 			_Mylast = _Newvec + _Count;

  001f1	6b ff 38	 imul	 edi, 56			; 00000038H
  001f4	03 c3		 add	 eax, ebx
  001f6	03 fb		 add	 edi, ebx
  001f8	89 46 0c	 mov	 DWORD PTR [esi+12], eax
  001fb	89 7e 08	 mov	 DWORD PTR [esi+8], edi

; 845  : 			_Myfirst = _Newvec;

  001fe	89 5e 04	 mov	 DWORD PTR [esi+4], ebx

; 873  : 			}
; 874  : 		}

  00201	8b 4d f4	 mov	 ecx, DWORD PTR __$EHRec$[ebp+4]
  00204	64 89 0d 00 00
	00 00		 mov	 DWORD PTR fs:__except_list, ecx
  0020b	5f		 pop	 edi
  0020c	5e		 pop	 esi
  0020d	5b		 pop	 ebx
  0020e	8b e5		 mov	 esp, ebp
  00210	5d		 pop	 ebp
  00211	c2 0c 00	 ret	 12			; 0000000cH
$L235657:

; 831  : 			_CATCH_ALL
; 832  : 			_Destroy(_Newvec, _Ptr);

  00214	8b 4d 0c	 mov	 ecx, DWORD PTR __Ptr$227047[ebp]
  00217	8b 75 e8	 mov	 esi, DWORD PTR __Newvec$227046[ebp]
  0021a	51		 push	 ecx
  0021b	8b 4d ec	 mov	 ecx, DWORD PTR _this$[ebp]
  0021e	56		 push	 esi
  0021f	e8 00 00 00 00	 call	 ?_Destroy@?$vector@U_VECINFO@@V?$allocator@U_VECINFO@@@std@@@std@@IAEXPAU_VECINFO@@0@Z ; std::vector<_VECINFO,std::allocator<_VECINFO> >::_Destroy

; 833  : 			this->_Alval.deallocate(_Newvec, _Capacity);

  00224	56		 push	 esi
  00225	e8 00 00 00 00	 call	 ??3@YAXPAX@Z		; operator delete
  0022a	83 c4 04	 add	 esp, 4

; 834  : 			_RERAISE;

  0022d	6a 00		 push	 0
  0022f	6a 00		 push	 0
  00231	e8 00 00 00 00	 call	 __CxxThrowException@8
$L235903:
$L227044:

; 846  : 			}
; 847  : 		else if ((size_type)(_Mylast - _ITER_BASE(_Where)) < _Count)

  00236	8b 4e 08	 mov	 ecx, DWORD PTR [esi+8]
  00239	8b 5d 08	 mov	 ebx, DWORD PTR __Where$[ebp]
  0023c	8b d1		 mov	 edx, ecx
  0023e	2b d3		 sub	 edx, ebx
  00240	89 55 10	 mov	 DWORD PTR tv533[ebp], edx
  00243	b8 93 24 49 92	 mov	 eax, -1840700269	; 92492493H
  00248	f7 ea		 imul	 edx
  0024a	03 55 10	 add	 edx, DWORD PTR tv533[ebp]
  0024d	c1 fa 05	 sar	 edx, 5
  00250	8b c2		 mov	 eax, edx
  00252	c1 e8 1f	 shr	 eax, 31			; 0000001fH
  00255	03 c2		 add	 eax, edx
  00257	3b c7		 cmp	 eax, edi
  00259	89 4d e8	 mov	 DWORD PTR tv456[ebp], ecx
  0025c	0f 83 9b 00 00
	00		 jae	 $L227057

; 848  : 			{	// new stuff spills off end
; 849  : 			_Ucopy(_ITER_BASE(_Where), _Mylast,
; 850  : 				_ITER_BASE(_Where) + _Count);	// copy suffix

  00262	8b 55 08	 mov	 edx, DWORD PTR __Cat$235844[ebp]
  00265	8b c7		 mov	 eax, edi
  00267	6b c0 38	 imul	 eax, 56			; 00000038H
  0026a	52		 push	 edx
  0026b	89 45 10	 mov	 DWORD PTR tv472[ebp], eax
  0026e	56		 push	 esi
  0026f	03 c3		 add	 eax, ebx
  00271	50		 push	 eax
  00272	51		 push	 ecx
  00273	53		 push	 ebx
  00274	e8 00 00 00 00	 call	 ??$_Uninit_copy@PAU_VECINFO@@PAU1@V?$allocator@U_VECINFO@@@std@@@std@@YAPAU_VECINFO@@PAU1@00AAV?$allocator@U_VECINFO@@@0@U_Nonscalar_ptr_iterator_tag@0@@Z ; std::_Uninit_copy<_VECINFO *,_VECINFO *,std::allocator<_VECINFO> >

; 851  : 
; 852  : 			_TRY_BEGIN
; 853  : 			_Ufill(_Mylast, _Count - (_Mylast - _ITER_BASE(_Where)),
; 854  : 				_Tmp);	// insert new stuff off end

  00279	8b 4e 08	 mov	 ecx, DWORD PTR [esi+8]
  0027c	83 c4 14	 add	 esp, 20			; 00000014H
  0027f	2b cb		 sub	 ecx, ebx
  00281	8d 45 b0	 lea	 eax, DWORD PTR __Tmp$[ebp]
  00284	50		 push	 eax
  00285	b8 93 24 49 92	 mov	 eax, -1840700269	; 92492493H
  0028a	f7 e9		 imul	 ecx
  0028c	8b 46 08	 mov	 eax, DWORD PTR [esi+8]
  0028f	03 d1		 add	 edx, ecx
  00291	c1 fa 05	 sar	 edx, 5
  00294	8b ca		 mov	 ecx, edx
  00296	c1 e9 1f	 shr	 ecx, 31			; 0000001fH
  00299	03 ca		 add	 ecx, edx
  0029b	2b f9		 sub	 edi, ecx
  0029d	57		 push	 edi
  0029e	50		 push	 eax
  0029f	8b ce		 mov	 ecx, esi
  002a1	c6 45 fc 03	 mov	 BYTE PTR __$EHRec$[ebp+12], 3
  002a5	e8 00 00 00 00	 call	 ?_Ufill@?$vector@U_VECINFO@@V?$allocator@U_VECINFO@@@std@@@std@@IAEPAU_VECINFO@@PAU3@IABU3@@Z ; std::vector<_VECINFO,std::allocator<_VECINFO> >::_Ufill

; 858  : 			_CATCH_END
; 859  : 
; 860  : 			_Mylast += _Count;

  002aa	8b 56 08	 mov	 edx, DWORD PTR [esi+8]
  002ad	8b 45 10	 mov	 eax, DWORD PTR tv472[ebp]
  002b0	03 d0		 add	 edx, eax
  002b2	89 56 08	 mov	 DWORD PTR [esi+8], edx
  002b5	8b f2		 mov	 esi, edx

; 861  : 			fill(_ITER_BASE(_Where), _Mylast - _Count,
; 862  : 				_Tmp);	// insert up to old end

  002b7	8d 55 b0	 lea	 edx, DWORD PTR __Tmp$[ebp]
  002ba	52		 push	 edx
  002bb	2b f0		 sub	 esi, eax
  002bd	56		 push	 esi
  002be	53		 push	 ebx
  002bf	e8 00 00 00 00	 call	 ??$fill@PAU_VECINFO@@U1@@std@@YAXPAU_VECINFO@@0ABU1@@Z ; std::fill<_VECINFO *,_VECINFO>
  002c4	83 c4 0c	 add	 esp, 12			; 0000000cH

; 873  : 			}
; 874  : 		}

  002c7	8b 4d f4	 mov	 ecx, DWORD PTR __$EHRec$[ebp+4]
  002ca	64 89 0d 00 00
	00 00		 mov	 DWORD PTR fs:__except_list, ecx
  002d1	5f		 pop	 edi
  002d2	5e		 pop	 esi
  002d3	5b		 pop	 ebx
  002d4	8b e5		 mov	 esp, ebp
  002d6	5d		 pop	 ebp
  002d7	c2 0c 00	 ret	 12			; 0000000cH
$L235659:

; 855  : 			_CATCH_ALL
; 856  : 			_Destroy(_ITER_BASE(_Where) + _Count, _Mylast + _Count);

  002da	8b 45 0c	 mov	 eax, DWORD PTR __Count$[ebp]
  002dd	8b 4d ec	 mov	 ecx, DWORD PTR _this$[ebp]
  002e0	6b c0 38	 imul	 eax, 56			; 00000038H
  002e3	8b 51 08	 mov	 edx, DWORD PTR [ecx+8]
  002e6	03 d0		 add	 edx, eax
  002e8	52		 push	 edx
  002e9	8b 55 08	 mov	 edx, DWORD PTR __Where$[ebp]
  002ec	03 c2		 add	 eax, edx
  002ee	50		 push	 eax
  002ef	e8 00 00 00 00	 call	 ?_Destroy@?$vector@U_VECINFO@@V?$allocator@U_VECINFO@@@std@@@std@@IAEXPAU_VECINFO@@0@Z ; std::vector<_VECINFO,std::allocator<_VECINFO> >::_Destroy

; 857  : 			_RERAISE;

  002f4	6a 00		 push	 0
  002f6	6a 00		 push	 0
  002f8	e8 00 00 00 00	 call	 __CxxThrowException@8
$L235904:
$L227057:

; 863  : 			}
; 864  : 		else
; 865  : 			{	// new stuff can all be assigned
; 866  : 			pointer _Oldend = _Mylast;
; 867  : 			_Mylast = _Ucopy(_Oldend - _Count, _Oldend,
; 868  : 				_Mylast);	// copy suffix

  002fd	6b ff 38	 imul	 edi, 56			; 00000038H
  00300	8b c1		 mov	 eax, ecx
  00302	2b c7		 sub	 eax, edi
  00304	89 45 08	 mov	 DWORD PTR tv485[ebp], eax
  00307	8b 55 08	 mov	 edx, DWORD PTR __Cat$235868[ebp]
  0030a	52		 push	 edx
  0030b	56		 push	 esi
  0030c	51		 push	 ecx
  0030d	51		 push	 ecx
  0030e	50		 push	 eax
  0030f	e8 00 00 00 00	 call	 ??$_Uninit_copy@PAU_VECINFO@@PAU1@V?$allocator@U_VECINFO@@@std@@@std@@YAPAU_VECINFO@@PAU1@00AAV?$allocator@U_VECINFO@@@0@U_Nonscalar_ptr_iterator_tag@0@@Z ; std::_Uninit_copy<_VECINFO *,_VECINFO *,std::allocator<_VECINFO> >

; 869  : 			copy_backward(_ITER_BASE(_Where), _Oldend - _Count,
; 870  : 				_Oldend);	// copy hole

  00314	8b 4d e8	 mov	 ecx, DWORD PTR tv456[ebp]
  00317	8b 55 08	 mov	 edx, DWORD PTR tv485[ebp]
  0031a	89 46 08	 mov	 DWORD PTR [esi+8], eax
  0031d	8b 45 08	 mov	 eax, DWORD PTR __Cat$235882[ebp]
  00320	50		 push	 eax
  00321	51		 push	 ecx
  00322	52		 push	 edx
  00323	53		 push	 ebx
  00324	e8 00 00 00 00	 call	 ??$_Copy_backward_opt@PAU_VECINFO@@PAU1@@std@@YAPAU_VECINFO@@PAU1@00U_Nonscalar_ptr_iterator_tag@0@@Z ; std::_Copy_backward_opt<_VECINFO *,_VECINFO *>

; 871  : 			fill(_ITER_BASE(_Where), _ITER_BASE(_Where) + _Count,
; 872  : 				_Tmp);	// insert into hole

  00329	8d 45 b0	 lea	 eax, DWORD PTR __Tmp$[ebp]
  0032c	50		 push	 eax
  0032d	03 fb		 add	 edi, ebx
  0032f	57		 push	 edi
  00330	53		 push	 ebx
  00331	e8 00 00 00 00	 call	 ??$fill@PAU_VECINFO@@U1@@std@@YAXPAU_VECINFO@@0ABU1@@Z ; std::fill<_VECINFO *,_VECINFO>
  00336	83 c4 30	 add	 esp, 48			; 00000030H
$L227066:

; 873  : 			}
; 874  : 		}

  00339	8b 4d f4	 mov	 ecx, DWORD PTR __$EHRec$[ebp+4]
  0033c	5f		 pop	 edi
  0033d	5e		 pop	 esi
  0033e	64 89 0d 00 00
	00 00		 mov	 DWORD PTR fs:__except_list, ecx
  00345	5b		 pop	 ebx
  00346	8b e5		 mov	 esp, ebp
  00348	5d		 pop	 ebp
  00349	c2 0c 00	 ret	 12			; 0000000cH
$L235897:
_TEXT	ENDS
;	COMDAT text$x
text$x	SEGMENT
$L235660:
  00000	8d 4d b0	 lea	 ecx, DWORD PTR __Tmp$[ebp]
  00003	e9 00 00 00 00	 jmp	 ??1_VECINFO@@QAE@XZ
__ehhandler$?_Insert_n@?$vector@U_VECINFO@@V?$allocator@U_VECINFO@@@std@@@std@@IAEXViterator@12@IABU_VECINFO@@@Z:
  00008	b8 00 00 00 00	 mov	 eax, OFFSET FLAT:$T235895
  0000d	e9 00 00 00 00	 jmp	 ___CxxFrameHandler
text$x	ENDS
?_Insert_n@?$vector@U_VECINFO@@V?$allocator@U_VECINFO@@@std@@@std@@IAEXViterator@12@IABU_VECINFO@@@Z ENDP ; std::vector<_VECINFO,std::allocator<_VECINFO> >::_Insert_n
PUBLIC	??0?$vector@UD3DXVECTOR3@@V?$allocator@UD3DXVECTOR3@@@std@@@std@@QAE@XZ ; std::vector<D3DXVECTOR3,std::allocator<D3DXVECTOR3> >::vector<D3DXVECTOR3,std::allocator<D3DXVECTOR3> >
; Function compile flags: /Ogty
;	COMDAT ??0?$vector@UD3DXVECTOR3@@V?$allocator@UD3DXVECTOR3@@@std@@@std@@QAE@XZ
_TEXT	SEGMENT
??0?$vector@UD3DXVECTOR3@@V?$allocator@UD3DXVECTOR3@@@std@@@std@@QAE@XZ PROC NEAR ; std::vector<D3DXVECTOR3,std::allocator<D3DXVECTOR3> >::vector<D3DXVECTOR3,std::allocator<D3DXVECTOR3> >, COMDAT
; _this$ = ecx

; 299  : 		{	// construct empty vector

  00000	8b c1		 mov	 eax, ecx

; 300  : 		_Buy(0);

  00002	33 c9		 xor	 ecx, ecx
  00004	89 48 04	 mov	 DWORD PTR [eax+4], ecx
  00007	89 48 08	 mov	 DWORD PTR [eax+8], ecx
  0000a	89 48 0c	 mov	 DWORD PTR [eax+12], ecx

; 301  : 		}

  0000d	c3		 ret	 0
??0?$vector@UD3DXVECTOR3@@V?$allocator@UD3DXVECTOR3@@@std@@@std@@QAE@XZ ENDP ; std::vector<D3DXVECTOR3,std::allocator<D3DXVECTOR3> >::vector<D3DXVECTOR3,std::allocator<D3DXVECTOR3> >
_TEXT	ENDS
PUBLIC	?_Tidy@?$_Tree@V?$_Tmap_traits@KHU?$less@K@std@@V?$allocator@U?$pair@$$CBKH@std@@@2@$0A@@std@@@std@@IAEXXZ ; std::_Tree<std::_Tmap_traits<unsigned long,int,std::less<unsigned long>,std::allocator<std::pair<unsigned long const ,int> >,0> >::_Tidy
; Function compile flags: /Ogty
; File c:\program files\microsoft visual studio .net 2003\vc7\include\xtree
;	COMDAT ?_Tidy@?$_Tree@V?$_Tmap_traits@KHU?$less@K@std@@V?$allocator@U?$pair@$$CBKH@std@@@2@$0A@@std@@@std@@IAEXXZ
_TEXT	SEGMENT
$T235971 = -4						; size = 4
?_Tidy@?$_Tree@V?$_Tmap_traits@KHU?$less@K@std@@V?$allocator@U?$pair@$$CBKH@std@@@2@$0A@@std@@@std@@IAEXXZ PROC NEAR ; std::_Tree<std::_Tmap_traits<unsigned long,int,std::less<unsigned long>,std::allocator<std::pair<unsigned long const ,int> >,0> >::_Tidy, COMDAT
; _this$ = ecx

; 1142 : 		{	// free all storage

  00000	51		 push	 ecx
  00001	56		 push	 esi
  00002	8b f1		 mov	 esi, ecx

; 1143 : 		erase(begin(), end());

  00004	8b 46 04	 mov	 eax, DWORD PTR [esi+4]
  00007	8b 08		 mov	 ecx, DWORD PTR [eax]
  00009	50		 push	 eax
  0000a	51		 push	 ecx
  0000b	8d 44 24 0c	 lea	 eax, DWORD PTR $T235971[esp+16]
  0000f	50		 push	 eax
  00010	8b ce		 mov	 ecx, esi
  00012	e8 00 00 00 00	 call	 ?erase@?$_Tree@V?$_Tmap_traits@KHU?$less@K@std@@V?$allocator@U?$pair@$$CBKH@std@@@2@$0A@@std@@@std@@QAE?AViterator@12@V312@0@Z ; std::_Tree<std::_Tmap_traits<unsigned long,int,std::less<unsigned long>,std::allocator<std::pair<unsigned long const ,int> >,0> >::erase

; 1144 : 		this->_Alptr.destroy(&_Left(_Myhead));
; 1145 : 		this->_Alptr.destroy(&_Parent(_Myhead));
; 1146 : 		this->_Alptr.destroy(&_Right(_Myhead));
; 1147 : 		this->_Alnod.deallocate(_Myhead, 1);

  00017	8b 4e 04	 mov	 ecx, DWORD PTR [esi+4]
  0001a	51		 push	 ecx
  0001b	e8 00 00 00 00	 call	 ??3@YAXPAX@Z		; operator delete
  00020	83 c4 04	 add	 esp, 4

; 1148 : 		_Myhead = 0, _Mysize = 0;

  00023	33 c0		 xor	 eax, eax
  00025	89 46 04	 mov	 DWORD PTR [esi+4], eax
  00028	89 46 08	 mov	 DWORD PTR [esi+8], eax
  0002b	5e		 pop	 esi

; 1149 : 		}

  0002c	59		 pop	 ecx
  0002d	c3		 ret	 0
?_Tidy@?$_Tree@V?$_Tmap_traits@KHU?$less@K@std@@V?$allocator@U?$pair@$$CBKH@std@@@2@$0A@@std@@@std@@IAEXXZ ENDP ; std::_Tree<std::_Tmap_traits<unsigned long,int,std::less<unsigned long>,std::allocator<std::pair<unsigned long const ,int> >,0> >::_Tidy
_TEXT	ENDS
PUBLIC	??1?$pair@$$CBKV?$vector@U_VECINFO@@V?$allocator@U_VECINFO@@@std@@@std@@@std@@QAE@XZ ; std::pair<unsigned long const ,std::vector<_VECINFO,std::allocator<_VECINFO> > >::~pair<unsigned long const ,std::vector<_VECINFO,std::allocator<_VECINFO> > >
; Function compile flags: /Ogty
;	COMDAT ??1?$pair@$$CBKV?$vector@U_VECINFO@@V?$allocator@U_VECINFO@@@std@@@std@@@std@@QAE@XZ
_TEXT	SEGMENT
??1?$pair@$$CBKV?$vector@U_VECINFO@@V?$allocator@U_VECINFO@@@std@@@std@@@std@@QAE@XZ PROC NEAR ; std::pair<unsigned long const ,std::vector<_VECINFO,std::allocator<_VECINFO> > >::~pair<unsigned long const ,std::vector<_VECINFO,std::allocator<_VECINFO> > >, COMDAT
; _this$ = ecx
  00000	83 c1 04	 add	 ecx, 4
  00003	e9 00 00 00 00	 jmp	 ?_Tidy@?$vector@U_VECINFO@@V?$allocator@U_VECINFO@@@std@@@std@@IAEXXZ ; std::vector<_VECINFO,std::allocator<_VECINFO> >::_Tidy
??1?$pair@$$CBKV?$vector@U_VECINFO@@V?$allocator@U_VECINFO@@@std@@@std@@@std@@QAE@XZ ENDP ; std::pair<unsigned long const ,std::vector<_VECINFO,std::allocator<_VECINFO> > >::~pair<unsigned long const ,std::vector<_VECINFO,std::allocator<_VECINFO> > >
_TEXT	ENDS
PUBLIC	?push_back@?$vector@UD3DXVECTOR3@@V?$allocator@UD3DXVECTOR3@@@std@@@std@@QAEXABUD3DXVECTOR3@@@Z ; std::vector<D3DXVECTOR3,std::allocator<D3DXVECTOR3> >::push_back
; Function compile flags: /Ogty
; File c:\program files\microsoft visual studio .net 2003\vc7\include\vector
;	COMDAT ?push_back@?$vector@UD3DXVECTOR3@@V?$allocator@UD3DXVECTOR3@@@std@@@std@@QAEXABUD3DXVECTOR3@@@Z
_TEXT	SEGMENT
__Cat$236077 = 8					; size = 1
$T236042 = 8						; size = 4
__Val$ = 8						; size = 4
?push_back@?$vector@UD3DXVECTOR3@@V?$allocator@UD3DXVECTOR3@@@std@@@std@@QAEXABUD3DXVECTOR3@@@Z PROC NEAR ; std::vector<D3DXVECTOR3,std::allocator<D3DXVECTOR3> >::push_back, COMDAT
; _this$ = ecx

; 579  : 		{	// insert element at end

  00000	56		 push	 esi
  00001	8b f1		 mov	 esi, ecx
  00003	57		 push	 edi

; 580  : 		if (size() < capacity())

  00004	8b 7e 04	 mov	 edi, DWORD PTR [esi+4]
  00007	85 ff		 test	 edi, edi
  00009	75 04		 jne	 SHORT $L236047
  0000b	33 c9		 xor	 ecx, ecx
  0000d	eb 15		 jmp	 SHORT $L236048
$L236047:
  0000f	8b 4e 08	 mov	 ecx, DWORD PTR [esi+8]
  00012	2b cf		 sub	 ecx, edi
  00014	b8 ab aa aa 2a	 mov	 eax, 715827883		; 2aaaaaabH
  00019	f7 e9		 imul	 ecx
  0001b	d1 fa		 sar	 edx, 1
  0001d	8b ca		 mov	 ecx, edx
  0001f	c1 e9 1f	 shr	 ecx, 31			; 0000001fH
  00022	03 ca		 add	 ecx, edx
$L236048:
  00024	85 ff		 test	 edi, edi
  00026	74 3d		 je	 SHORT $L226293
  00028	8b 56 0c	 mov	 edx, DWORD PTR [esi+12]
  0002b	2b d7		 sub	 edx, edi
  0002d	b8 ab aa aa 2a	 mov	 eax, 715827883		; 2aaaaaabH
  00032	f7 ea		 imul	 edx
  00034	d1 fa		 sar	 edx, 1
  00036	8b c2		 mov	 eax, edx
  00038	c1 e8 1f	 shr	 eax, 31			; 0000001fH
  0003b	03 c2		 add	 eax, edx
  0003d	3b c8		 cmp	 ecx, eax
  0003f	73 24		 jae	 SHORT $L226293

; 581  : 			_Mylast = _Ufill(_Mylast, 1, _Val);

  00041	8b 44 24 0c	 mov	 eax, DWORD PTR __Cat$236077[esp+4]
  00045	8b 4c 24 0c	 mov	 ecx, DWORD PTR __Val$[esp+4]
  00049	8b 7e 08	 mov	 edi, DWORD PTR [esi+8]
  0004c	50		 push	 eax
  0004d	56		 push	 esi
  0004e	51		 push	 ecx
  0004f	6a 01		 push	 1
  00051	57		 push	 edi
  00052	e8 00 00 00 00	 call	 ??$_Uninit_fill_n@PAUD3DXVECTOR3@@IU1@V?$allocator@UD3DXVECTOR3@@@std@@@std@@YAXPAUD3DXVECTOR3@@IABU1@AAV?$allocator@UD3DXVECTOR3@@@0@U_Nonscalar_ptr_iterator_tag@0@@Z ; std::_Uninit_fill_n<D3DXVECTOR3 *,unsigned int,D3DXVECTOR3,std::allocator<D3DXVECTOR3> >
  00057	83 c4 14	 add	 esp, 20			; 00000014H
  0005a	83 c7 0c	 add	 edi, 12			; 0000000cH
  0005d	89 7e 08	 mov	 DWORD PTR [esi+8], edi
  00060	5f		 pop	 edi
  00061	5e		 pop	 esi

; 584  : 		}

  00062	c2 04 00	 ret	 4
$L226293:

; 582  : 		else
; 583  : 			insert(end(), _Val);

  00065	8b 54 24 0c	 mov	 edx, DWORD PTR __Val$[esp+4]
  00069	8b 46 08	 mov	 eax, DWORD PTR [esi+8]
  0006c	52		 push	 edx
  0006d	50		 push	 eax
  0006e	8d 44 24 14	 lea	 eax, DWORD PTR $T236042[esp+12]
  00072	50		 push	 eax
  00073	8b ce		 mov	 ecx, esi
  00075	e8 00 00 00 00	 call	 ?insert@?$vector@UD3DXVECTOR3@@V?$allocator@UD3DXVECTOR3@@@std@@@std@@QAE?AViterator@12@V312@ABUD3DXVECTOR3@@@Z ; std::vector<D3DXVECTOR3,std::allocator<D3DXVECTOR3> >::insert
  0007a	5f		 pop	 edi
  0007b	5e		 pop	 esi

; 584  : 		}

  0007c	c2 04 00	 ret	 4
?push_back@?$vector@UD3DXVECTOR3@@V?$allocator@UD3DXVECTOR3@@@std@@@std@@QAEXABUD3DXVECTOR3@@@Z ENDP ; std::vector<D3DXVECTOR3,std::allocator<D3DXVECTOR3> >::push_back
_TEXT	ENDS
PUBLIC	??0?$vector@U_VECINFO@@V?$allocator@U_VECINFO@@@std@@@std@@QAE@XZ ; std::vector<_VECINFO,std::allocator<_VECINFO> >::vector<_VECINFO,std::allocator<_VECINFO> >
; Function compile flags: /Ogty
;	COMDAT ??0?$vector@U_VECINFO@@V?$allocator@U_VECINFO@@@std@@@std@@QAE@XZ
_TEXT	SEGMENT
??0?$vector@U_VECINFO@@V?$allocator@U_VECINFO@@@std@@@std@@QAE@XZ PROC NEAR ; std::vector<_VECINFO,std::allocator<_VECINFO> >::vector<_VECINFO,std::allocator<_VECINFO> >, COMDAT
; _this$ = ecx

; 299  : 		{	// construct empty vector

  00000	8b c1		 mov	 eax, ecx

; 300  : 		_Buy(0);

  00002	33 c9		 xor	 ecx, ecx
  00004	89 48 04	 mov	 DWORD PTR [eax+4], ecx
  00007	89 48 08	 mov	 DWORD PTR [eax+8], ecx
  0000a	89 48 0c	 mov	 DWORD PTR [eax+12], ecx

; 301  : 		}

  0000d	c3		 ret	 0
??0?$vector@U_VECINFO@@V?$allocator@U_VECINFO@@@std@@@std@@QAE@XZ ENDP ; std::vector<_VECINFO,std::allocator<_VECINFO> >::vector<_VECINFO,std::allocator<_VECINFO> >
_TEXT	ENDS
PUBLIC	??0?$vector@U_VECINFO@@V?$allocator@U_VECINFO@@@std@@@std@@QAE@ABV01@@Z ; std::vector<_VECINFO,std::allocator<_VECINFO> >::vector<_VECINFO,std::allocator<_VECINFO> >
;	COMDAT xdata$x
; File c:\program files\microsoft visual studio .net 2003\vc7\include\xutility
xdata$x	SEGMENT
$T236278 DD	0ffffffffH
	DD	00H
	DD	0ffffffffH
	DD	00H
$T236280 DD	00H
	DD	00H
	DD	00H
	DD	FLAT:$L236163
$T236279 DD	00H
	DD	00H
	DD	01H
	DD	01H
	DD	FLAT:$T236280
$T236274 DD	019930520H
	DD	02H
	DD	FLAT:$T236278
	DD	01H
	DD	FLAT:$T236279
	DD	2 DUP(00H)
; Function compile flags: /Ogty
; File c:\program files\microsoft visual studio .net 2003\vc7\include\vector
xdata$x	ENDS
;	COMDAT ??0?$vector@U_VECINFO@@V?$allocator@U_VECINFO@@@std@@@std@@QAE@ABV01@@Z
_TEXT	SEGMENT
_this$ = -20						; size = 4
__$EHRec$ = -16						; size = 16
__Cat$236269 = 8					; size = 1
__Right$ = 8						; size = 4
??0?$vector@U_VECINFO@@V?$allocator@U_VECINFO@@@std@@@std@@QAE@ABV01@@Z PROC NEAR ; std::vector<_VECINFO,std::allocator<_VECINFO> >::vector<_VECINFO,std::allocator<_VECINFO> >, COMDAT
; _this$ = ecx

; 329  : 		{	// construct by copying _Right

  00000	55		 push	 ebp
  00001	8b ec		 mov	 ebp, esp
  00003	6a ff		 push	 -1
  00005	68 00 00 00 00	 push	 __ehhandler$??0?$vector@U_VECINFO@@V?$allocator@U_VECINFO@@@std@@@std@@QAE@ABV01@@Z
  0000a	64 a1 00 00 00
	00		 mov	 eax, DWORD PTR fs:__except_list
  00010	50		 push	 eax
  00011	64 89 25 00 00
	00 00		 mov	 DWORD PTR fs:__except_list, esp
  00018	83 ec 08	 sub	 esp, 8
  0001b	53		 push	 ebx

; 330  : 		if (_Buy(_Right.size()))

  0001c	8b 5d 08	 mov	 ebx, DWORD PTR __Right$[ebp]
  0001f	8b 43 04	 mov	 eax, DWORD PTR [ebx+4]
  00022	56		 push	 esi
  00023	8b f1		 mov	 esi, ecx
  00025	33 c9		 xor	 ecx, ecx
  00027	3b c1		 cmp	 eax, ecx
  00029	57		 push	 edi
  0002a	89 65 f0	 mov	 DWORD PTR __$EHRec$[ebp], esp
  0002d	89 75 ec	 mov	 DWORD PTR _this$[ebp], esi
  00030	75 04		 jne	 SHORT $L236182
  00032	33 ff		 xor	 edi, edi
  00034	eb 1a		 jmp	 SHORT $L236183
$L236182:
  00036	8b 4b 08	 mov	 ecx, DWORD PTR [ebx+8]
  00039	2b c8		 sub	 ecx, eax
  0003b	b8 93 24 49 92	 mov	 eax, -1840700269	; 92492493H
  00040	f7 e9		 imul	 ecx
  00042	03 d1		 add	 edx, ecx
  00044	c1 fa 05	 sar	 edx, 5
  00047	8b fa		 mov	 edi, edx
  00049	c1 ef 1f	 shr	 edi, 31			; 0000001fH
  0004c	03 fa		 add	 edi, edx
  0004e	33 c9		 xor	 ecx, ecx
$L236183:
  00050	3b f9		 cmp	 edi, ecx
  00052	89 4e 04	 mov	 DWORD PTR [esi+4], ecx
  00055	89 4e 08	 mov	 DWORD PTR [esi+8], ecx
  00058	89 4e 0c	 mov	 DWORD PTR [esi+12], ecx
  0005b	74 43		 je	 SHORT $L226434
  0005d	81 ff 24 49 92
	04		 cmp	 edi, 76695844		; 04924924H
  00063	76 07		 jbe	 SHORT $L236212
  00065	8b ce		 mov	 ecx, esi
  00067	e8 00 00 00 00	 call	 ?_Xlen@?$vector@U_VECINFO@@V?$allocator@U_VECINFO@@@std@@@std@@IBEXXZ ; std::vector<_VECINFO,std::allocator<_VECINFO> >::_Xlen
$L236281:
$L236212:
  0006c	6b ff 38	 imul	 edi, 56			; 00000038H
  0006f	57		 push	 edi
  00070	e8 00 00 00 00	 call	 ??2@YAPAXI@Z		; operator new

; 331  : 			_TRY_BEGIN
; 332  : 			_Mylast = _Ucopy(_Right.begin(), _Right.end(), _Myfirst);

  00075	8b 55 08	 mov	 edx, DWORD PTR __Cat$236269[ebp]
  00078	52		 push	 edx
  00079	03 f8		 add	 edi, eax
  0007b	56		 push	 esi
  0007c	89 46 04	 mov	 DWORD PTR [esi+4], eax
  0007f	89 46 08	 mov	 DWORD PTR [esi+8], eax
  00082	89 7e 0c	 mov	 DWORD PTR [esi+12], edi
  00085	8b 4b 08	 mov	 ecx, DWORD PTR [ebx+8]
  00088	8b 5b 04	 mov	 ebx, DWORD PTR [ebx+4]
  0008b	50		 push	 eax
  0008c	51		 push	 ecx
  0008d	53		 push	 ebx
  0008e	c7 45 fc 00 00
	00 00		 mov	 DWORD PTR __$EHRec$[ebp+12], 0
  00095	e8 00 00 00 00	 call	 ??$_Uninit_copy@Vconst_iterator@?$vector@U_VECINFO@@V?$allocator@U_VECINFO@@@std@@@std@@PAU_VECINFO@@V?$allocator@U_VECINFO@@@3@@std@@YAPAU_VECINFO@@Vconst_iterator@?$vector@U_VECINFO@@V?$allocator@U_VECINFO@@@std@@@0@0PAU1@AAV?$allocator@U_VECINFO@@@0@U_Nonscalar_ptr_iterator_tag@0@@Z ; std::_Uninit_copy<std::vector<_VECINFO,std::allocator<_VECINFO> >::const_iterator,_VECINFO *,std::allocator<_VECINFO> >
  0009a	83 c4 18	 add	 esp, 24			; 00000018H
  0009d	89 46 08	 mov	 DWORD PTR [esi+8], eax
$L226434:

; 336  : 			_CATCH_END
; 337  : 		}

  000a0	8b 4d f4	 mov	 ecx, DWORD PTR __$EHRec$[ebp+4]
  000a3	5f		 pop	 edi
  000a4	8b c6		 mov	 eax, esi
  000a6	5e		 pop	 esi
  000a7	64 89 0d 00 00
	00 00		 mov	 DWORD PTR fs:__except_list, ecx
  000ae	5b		 pop	 ebx
  000af	8b e5		 mov	 esp, ebp
  000b1	5d		 pop	 ebp
  000b2	c2 04 00	 ret	 4
$L236163:

; 333  : 			_CATCH_ALL
; 334  : 			_Tidy();

  000b5	8b 4d ec	 mov	 ecx, DWORD PTR _this$[ebp]
  000b8	e8 00 00 00 00	 call	 ?_Tidy@?$vector@U_VECINFO@@V?$allocator@U_VECINFO@@@std@@@std@@IAEXXZ ; std::vector<_VECINFO,std::allocator<_VECINFO> >::_Tidy

; 335  : 			_RERAISE;

  000bd	6a 00		 push	 0
  000bf	6a 00		 push	 0
  000c1	e8 00 00 00 00	 call	 __CxxThrowException@8
$L236282:
$L236277:
  000c6	cc		 int	 3
_TEXT	ENDS
;	COMDAT text$x
text$x	SEGMENT
__ehhandler$??0?$vector@U_VECINFO@@V?$allocator@U_VECINFO@@@std@@@std@@QAE@ABV01@@Z:
  00000	b8 00 00 00 00	 mov	 eax, OFFSET FLAT:$T236274
  00005	e9 00 00 00 00	 jmp	 ___CxxFrameHandler
text$x	ENDS
??0?$vector@U_VECINFO@@V?$allocator@U_VECINFO@@@std@@@std@@QAE@ABV01@@Z ENDP ; std::vector<_VECINFO,std::allocator<_VECINFO> >::vector<_VECINFO,std::allocator<_VECINFO> >
PUBLIC	??0?$pair@$$CBKV?$vector@U_VECINFO@@V?$allocator@U_VECINFO@@@std@@@std@@@std@@QAE@ABKABV?$vector@U_VECINFO@@V?$allocator@U_VECINFO@@@std@@@1@@Z ; std::pair<unsigned long const ,std::vector<_VECINFO,std::allocator<_VECINFO> > >::pair<unsigned long const ,std::vector<_VECINFO,std::allocator<_VECINFO> > >
; Function compile flags: /Ogty
; File c:\program files\microsoft visual studio .net 2003\vc7\include\utility
;	COMDAT ??0?$pair@$$CBKV?$vector@U_VECINFO@@V?$allocator@U_VECINFO@@@std@@@std@@@std@@QAE@ABKABV?$vector@U_VECINFO@@V?$allocator@U_VECINFO@@@std@@@1@@Z
_TEXT	SEGMENT
__Val1$ = 8						; size = 4
__Val2$ = 12						; size = 4
??0?$pair@$$CBKV?$vector@U_VECINFO@@V?$allocator@U_VECINFO@@@std@@@std@@@std@@QAE@ABKABV?$vector@U_VECINFO@@V?$allocator@U_VECINFO@@@std@@@1@@Z PROC NEAR ; std::pair<unsigned long const ,std::vector<_VECINFO,std::allocator<_VECINFO> > >::pair<unsigned long const ,std::vector<_VECINFO,std::allocator<_VECINFO> > >, COMDAT
; _this$ = ecx

; 34   : 		{	// construct from specified values

  00000	8b 44 24 04	 mov	 eax, DWORD PTR __Val1$[esp-4]
  00004	8b 54 24 08	 mov	 edx, DWORD PTR __Val2$[esp-4]
  00008	56		 push	 esi
  00009	8b f1		 mov	 esi, ecx
  0000b	8b 08		 mov	 ecx, DWORD PTR [eax]
  0000d	89 0e		 mov	 DWORD PTR [esi], ecx
  0000f	52		 push	 edx
  00010	8d 4e 04	 lea	 ecx, DWORD PTR [esi+4]
  00013	e8 00 00 00 00	 call	 ??0?$vector@U_VECINFO@@V?$allocator@U_VECINFO@@@std@@@std@@QAE@ABV01@@Z ; std::vector<_VECINFO,std::allocator<_VECINFO> >::vector<_VECINFO,std::allocator<_VECINFO> >

; 35   : 		}

  00018	8b c6		 mov	 eax, esi
  0001a	5e		 pop	 esi
  0001b	c2 08 00	 ret	 8
??0?$pair@$$CBKV?$vector@U_VECINFO@@V?$allocator@U_VECINFO@@@std@@@std@@@std@@QAE@ABKABV?$vector@U_VECINFO@@V?$allocator@U_VECINFO@@@std@@@1@@Z ENDP ; std::pair<unsigned long const ,std::vector<_VECINFO,std::allocator<_VECINFO> > >::pair<unsigned long const ,std::vector<_VECINFO,std::allocator<_VECINFO> > >
_TEXT	ENDS
PUBLIC	?insert@?$vector@U_VECINFO@@V?$allocator@U_VECINFO@@@std@@@std@@QAE?AViterator@12@V312@ABU_VECINFO@@@Z ; std::vector<_VECINFO,std::allocator<_VECINFO> >::insert
; Function compile flags: /Ogty
; File c:\program files\microsoft visual studio .net 2003\vc7\include\vector
;	COMDAT ?insert@?$vector@U_VECINFO@@V?$allocator@U_VECINFO@@@std@@@std@@QAE?AViterator@12@V312@ABU_VECINFO@@@Z
_TEXT	SEGMENT
___$ReturnUdt$ = 8					; size = 4
tv90 = 12						; size = 4
__Where$ = 12						; size = 4
__Val$ = 16						; size = 4
?insert@?$vector@U_VECINFO@@V?$allocator@U_VECINFO@@@std@@@std@@QAE?AViterator@12@V312@ABU_VECINFO@@@Z PROC NEAR ; std::vector<_VECINFO,std::allocator<_VECINFO> >::insert, COMDAT
; _this$ = ecx

; 620  : 		{	// insert _Val at _Where

  00000	53		 push	 ebx

; 621  : 		size_type _Off = size() == 0 ? 0 : _Where - begin();

  00001	8b 5c 24 0c	 mov	 ebx, DWORD PTR __Where$[esp]
  00005	56		 push	 esi
  00006	57		 push	 edi
  00007	8b f9		 mov	 edi, ecx
  00009	8b 77 04	 mov	 esi, DWORD PTR [edi+4]
  0000c	85 f6		 test	 esi, esi
  0000e	74 1e		 je	 SHORT $L236353
  00010	8b 4f 08	 mov	 ecx, DWORD PTR [edi+8]
  00013	2b ce		 sub	 ecx, esi
  00015	b8 93 24 49 92	 mov	 eax, -1840700269	; 92492493H
  0001a	f7 e9		 imul	 ecx
  0001c	03 d1		 add	 edx, ecx
  0001e	c1 fa 05	 sar	 edx, 5
  00021	8b c2		 mov	 eax, edx
  00023	c1 e8 1f	 shr	 eax, 31			; 0000001fH
  00026	03 c2		 add	 eax, edx
  00028	89 44 24 14	 mov	 DWORD PTR tv90[esp+8], eax
  0002c	75 04		 jne	 SHORT $L236292
$L236353:
  0002e	33 f6		 xor	 esi, esi
  00030	eb 17		 jmp	 SHORT $L236293
$L236292:
  00032	8b cb		 mov	 ecx, ebx
  00034	2b ce		 sub	 ecx, esi
  00036	b8 93 24 49 92	 mov	 eax, -1840700269	; 92492493H
  0003b	f7 e9		 imul	 ecx
  0003d	03 d1		 add	 edx, ecx
  0003f	c1 fa 05	 sar	 edx, 5
  00042	8b f2		 mov	 esi, edx
  00044	c1 ee 1f	 shr	 esi, 31			; 0000001fH
  00047	03 f2		 add	 esi, edx
$L236293:

; 622  : 		_Insert_n(_Where, (size_type)1, _Val);

  00049	8b 4c 24 18	 mov	 ecx, DWORD PTR __Val$[esp+8]
  0004d	51		 push	 ecx
  0004e	6a 01		 push	 1
  00050	53		 push	 ebx
  00051	8b cf		 mov	 ecx, edi
  00053	e8 00 00 00 00	 call	 ?_Insert_n@?$vector@U_VECINFO@@V?$allocator@U_VECINFO@@@std@@@std@@IAEXViterator@12@IABU_VECINFO@@@Z ; std::vector<_VECINFO,std::allocator<_VECINFO> >::_Insert_n

; 623  : 		return (begin() + _Off);

  00058	6b f6 38	 imul	 esi, 56			; 00000038H
  0005b	03 77 04	 add	 esi, DWORD PTR [edi+4]
  0005e	8b 44 24 10	 mov	 eax, DWORD PTR ___$ReturnUdt$[esp+8]
  00062	5f		 pop	 edi
  00063	89 30		 mov	 DWORD PTR [eax], esi
  00065	5e		 pop	 esi
  00066	5b		 pop	 ebx

; 624  : 		}

  00067	c2 0c 00	 ret	 12			; 0000000cH
?insert@?$vector@U_VECINFO@@V?$allocator@U_VECINFO@@@std@@@std@@QAE?AViterator@12@V312@ABU_VECINFO@@@Z ENDP ; std::vector<_VECINFO,std::allocator<_VECINFO> >::insert
_TEXT	ENDS
PUBLIC	??0?$pair@$$CBKV?$vector@U_VECINFO@@V?$allocator@U_VECINFO@@@std@@@std@@@std@@QAE@ABU01@@Z ; std::pair<unsigned long const ,std::vector<_VECINFO,std::allocator<_VECINFO> > >::pair<unsigned long const ,std::vector<_VECINFO,std::allocator<_VECINFO> > >
; Function compile flags: /Ogty
;	COMDAT ??0?$pair@$$CBKV?$vector@U_VECINFO@@V?$allocator@U_VECINFO@@@std@@@std@@@std@@QAE@ABU01@@Z
_TEXT	SEGMENT
___that$ = 8						; size = 4
??0?$pair@$$CBKV?$vector@U_VECINFO@@V?$allocator@U_VECINFO@@@std@@@std@@@std@@QAE@ABU01@@Z PROC NEAR ; std::pair<unsigned long const ,std::vector<_VECINFO,std::allocator<_VECINFO> > >::pair<unsigned long const ,std::vector<_VECINFO,std::allocator<_VECINFO> > >, COMDAT
; _this$ = ecx
  00000	8b 44 24 04	 mov	 eax, DWORD PTR ___that$[esp-4]
  00004	56		 push	 esi
  00005	8b f1		 mov	 esi, ecx
  00007	8b 08		 mov	 ecx, DWORD PTR [eax]
  00009	83 c0 04	 add	 eax, 4
  0000c	89 0e		 mov	 DWORD PTR [esi], ecx
  0000e	50		 push	 eax
  0000f	8d 4e 04	 lea	 ecx, DWORD PTR [esi+4]
  00012	e8 00 00 00 00	 call	 ??0?$vector@U_VECINFO@@V?$allocator@U_VECINFO@@@std@@@std@@QAE@ABV01@@Z ; std::vector<_VECINFO,std::allocator<_VECINFO> >::vector<_VECINFO,std::allocator<_VECINFO> >
  00017	8b c6		 mov	 eax, esi
  00019	5e		 pop	 esi
  0001a	c2 04 00	 ret	 4
??0?$pair@$$CBKV?$vector@U_VECINFO@@V?$allocator@U_VECINFO@@@std@@@std@@@std@@QAE@ABU01@@Z ENDP ; std::pair<unsigned long const ,std::vector<_VECINFO,std::allocator<_VECINFO> > >::pair<unsigned long const ,std::vector<_VECINFO,std::allocator<_VECINFO> > >
_TEXT	ENDS
PUBLIC	??1_Node@?$_Tree_nod@V?$_Tmap_traits@KV?$vector@U_VECINFO@@V?$allocator@U_VECINFO@@@std@@@std@@U?$less@K@2@V?$allocator@U?$pair@$$CBKV?$vector@U_VECINFO@@V?$allocator@U_VECINFO@@@std@@@std@@@std@@@2@$0A@@std@@@std@@QAE@XZ ; std::_Tree_nod<std::_Tmap_traits<unsigned long,std::vector<_VECINFO,std::allocator<_VECINFO> >,std::less<unsigned long>,std::allocator<std::pair<unsigned long const ,std::vector<_VECINFO,std::allocator<_VECINFO> > > >,0> >::_Node::~_Node
; Function compile flags: /Ogty
;	COMDAT ??1_Node@?$_Tree_nod@V?$_Tmap_traits@KV?$vector@U_VECINFO@@V?$allocator@U_VECINFO@@@std@@@std@@U?$less@K@2@V?$allocator@U?$pair@$$CBKV?$vector@U_VECINFO@@V?$allocator@U_VECINFO@@@std@@@std@@@std@@@2@$0A@@std@@@std@@QAE@XZ
_TEXT	SEGMENT
??1_Node@?$_Tree_nod@V?$_Tmap_traits@KV?$vector@U_VECINFO@@V?$allocator@U_VECINFO@@@std@@@std@@U?$less@K@2@V?$allocator@U?$pair@$$CBKV?$vector@U_VECINFO@@V?$allocator@U_VECINFO@@@std@@@std@@@std@@@2@$0A@@std@@@std@@QAE@XZ PROC NEAR ; std::_Tree_nod<std::_Tmap_traits<unsigned long,std::vector<_VECINFO,std::allocator<_VECINFO> >,std::less<unsigned long>,std::allocator<std::pair<unsigned long const ,std::vector<_VECINFO,std::allocator<_VECINFO> > > >,0> >::_Node::~_Node, COMDAT
; _this$ = ecx
  00000	83 c1 10	 add	 ecx, 16			; 00000010H
  00003	e9 00 00 00 00	 jmp	 ?_Tidy@?$vector@U_VECINFO@@V?$allocator@U_VECINFO@@@std@@@std@@IAEXXZ ; std::vector<_VECINFO,std::allocator<_VECINFO> >::_Tidy
??1_Node@?$_Tree_nod@V?$_Tmap_traits@KV?$vector@U_VECINFO@@V?$allocator@U_VECINFO@@@std@@@std@@U?$less@K@2@V?$allocator@U?$pair@$$CBKV?$vector@U_VECINFO@@V?$allocator@U_VECINFO@@@std@@@std@@@std@@@2@$0A@@std@@@std@@QAE@XZ ENDP ; std::_Tree_nod<std::_Tmap_traits<unsigned long,std::vector<_VECINFO,std::allocator<_VECINFO> >,std::less<unsigned long>,std::allocator<std::pair<unsigned long const ,std::vector<_VECINFO,std::allocator<_VECINFO> > > >,0> >::_Node::~_Node
_TEXT	ENDS
PUBLIC	??1?$_Tree@V?$_Tmap_traits@KHU?$less@K@std@@V?$allocator@U?$pair@$$CBKH@std@@@2@$0A@@std@@@std@@QAE@XZ ; std::_Tree<std::_Tmap_traits<unsigned long,int,std::less<unsigned long>,std::allocator<std::pair<unsigned long const ,int> >,0> >::~_Tree<std::_Tmap_traits<unsigned long,int,std::less<unsigned long>,std::allocator<std::pair<unsigned long const ,int> >,0> >
; Function compile flags: /Ogty
; File c:\program files\microsoft visual studio .net 2003\vc7\include\xtree
;	COMDAT ??1?$_Tree@V?$_Tmap_traits@KHU?$less@K@std@@V?$allocator@U?$pair@$$CBKH@std@@@2@$0A@@std@@@std@@QAE@XZ
_TEXT	SEGMENT
$T236440 = -4						; size = 4
??1?$_Tree@V?$_Tmap_traits@KHU?$less@K@std@@V?$allocator@U?$pair@$$CBKH@std@@@2@$0A@@std@@@std@@QAE@XZ PROC NEAR ; std::_Tree<std::_Tmap_traits<unsigned long,int,std::less<unsigned long>,std::allocator<std::pair<unsigned long const ,int> >,0> >::~_Tree<std::_Tmap_traits<unsigned long,int,std::less<unsigned long>,std::allocator<std::pair<unsigned long const ,int> >,0> >, COMDAT
; _this$ = ecx

; 391  : 		{	// destroy tree

  00000	51		 push	 ecx
  00001	56		 push	 esi
  00002	8b f1		 mov	 esi, ecx

; 392  : 		_Tidy();

  00004	8b 46 04	 mov	 eax, DWORD PTR [esi+4]
  00007	8b 08		 mov	 ecx, DWORD PTR [eax]
  00009	50		 push	 eax
  0000a	51		 push	 ecx
  0000b	8d 44 24 0c	 lea	 eax, DWORD PTR $T236440[esp+16]
  0000f	50		 push	 eax
  00010	8b ce		 mov	 ecx, esi
  00012	e8 00 00 00 00	 call	 ?erase@?$_Tree@V?$_Tmap_traits@KHU?$less@K@std@@V?$allocator@U?$pair@$$CBKH@std@@@2@$0A@@std@@@std@@QAE?AViterator@12@V312@0@Z ; std::_Tree<std::_Tmap_traits<unsigned long,int,std::less<unsigned long>,std::allocator<std::pair<unsigned long const ,int> >,0> >::erase
  00017	8b 4e 04	 mov	 ecx, DWORD PTR [esi+4]
  0001a	51		 push	 ecx
  0001b	e8 00 00 00 00	 call	 ??3@YAXPAX@Z		; operator delete
  00020	83 c4 04	 add	 esp, 4
  00023	33 c0		 xor	 eax, eax
  00025	89 46 04	 mov	 DWORD PTR [esi+4], eax
  00028	89 46 08	 mov	 DWORD PTR [esi+8], eax
  0002b	5e		 pop	 esi

; 393  : 		}

  0002c	59		 pop	 ecx
  0002d	c3		 ret	 0
??1?$_Tree@V?$_Tmap_traits@KHU?$less@K@std@@V?$allocator@U?$pair@$$CBKH@std@@@2@$0A@@std@@@std@@QAE@XZ ENDP ; std::_Tree<std::_Tmap_traits<unsigned long,int,std::less<unsigned long>,std::allocator<std::pair<unsigned long const ,int> >,0> >::~_Tree<std::_Tmap_traits<unsigned long,int,std::less<unsigned long>,std::allocator<std::pair<unsigned long const ,int> >,0> >
_TEXT	ENDS
PUBLIC	?GetNextPosInfo@CPatrolPath@@QAEXPAVCObj@@UD3DXVECTOR3@@AAU3@AAU_VECINFO@@@Z ; CPatrolPath::GetNextPosInfo
; Function compile flags: /Ogty
; File c:\documents and settings\test\mes documents\source\virtuos_v17\build\program\_common\pathobj.cpp
;	COMDAT ?GetNextPosInfo@CPatrolPath@@QAEXPAVCObj@@UD3DXVECTOR3@@AAU3@AAU_VECINFO@@@Z
_TEXT	SEGMENT
$T236472 = -40						; size = 12
_v3Dir$ = -40						; size = 12
$T236469 = -40						; size = 12
$T236473 = -28						; size = 12
$T236471 = -28						; size = 12
__vecinfoTemp$ = -16					; size = 16
_it1$ = 8						; size = 4
_pObj$ = 8						; size = 4
_vPos$ = 12						; size = 12
_vDest$ = 24						; size = 4
__vecInfo$ = 28						; size = 4
?GetNextPosInfo@CPatrolPath@@QAEXPAVCObj@@UD3DXVECTOR3@@AAU3@AAU_VECINFO@@@Z PROC NEAR ; CPatrolPath::GetNextPosInfo, COMDAT
; _this$ = ecx

; 56   : {

  00000	83 ec 28	 sub	 esp, 40			; 00000028H
  00003	53		 push	 ebx
  00004	56		 push	 esi

; 57   : 	map< DWORD, vector<_VECINFO> >::iterator it1 = m_mapPatrolPath.find( pObj->m_dwPatrolIndex );

  00005	8b 74 24 34	 mov	 esi, DWORD PTR _pObj$[esp+44]
  00009	57		 push	 edi
  0000a	8b f9		 mov	 edi, ecx
  0000c	8d 86 94 01 00
	00		 lea	 eax, DWORD PTR [esi+404]
  00012	50		 push	 eax
  00013	8d 4c 24 3c	 lea	 ecx, DWORD PTR _it1$[esp+52]
  00017	51		 push	 ecx
  00018	8b cf		 mov	 ecx, edi
  0001a	e8 00 00 00 00	 call	 ?find@?$_Tree@V?$_Tmap_traits@KV?$vector@U_VECINFO@@V?$allocator@U_VECINFO@@@std@@@std@@U?$less@K@2@V?$allocator@U?$pair@$$CBKV?$vector@U_VECINFO@@V?$allocator@U_VECINFO@@@std@@@std@@@std@@@2@$0A@@std@@@std@@QAE?AViterator@12@ABK@Z ; std::_Tree<std::_Tmap_traits<unsigned long,std::vector<_VECINFO,std::allocator<_VECINFO> >,std::less<unsigned long>,std::allocator<std::pair<unsigned long const ,std::vector<_VECINFO,std::allocator<_VECINFO> > > >,0> >::find

; 58   : 	
; 59   : 	if( it1 == m_mapPatrolPath.end() )

  0001f	8b 44 24 38	 mov	 eax, DWORD PTR _it1$[esp+48]
  00023	3b 47 04	 cmp	 eax, DWORD PTR [edi+4]
  00026	75 5b		 jne	 SHORT $L226046

; 60   : 	{
; 61   : 		_vecInfo.m_vDir    = D3DXVECTOR3( 0.0f, 0.0f, 0.0f );

  00028	8b 44 24 4c	 mov	 eax, DWORD PTR __vecInfo$[esp+48]
  0002c	8b d0		 mov	 edx, eax
  0002e	c7 44 24 0c 00
	00 00 00	 mov	 DWORD PTR $T236469[esp+52], 0
  00036	8b 4c 24 0c	 mov	 ecx, DWORD PTR $T236469[esp+52]
  0003a	89 0a		 mov	 DWORD PTR [edx], ecx
  0003c	c7 44 24 10 00
	00 00 00	 mov	 DWORD PTR $T236469[esp+56], 0
  00044	8b 4c 24 10	 mov	 ecx, DWORD PTR $T236469[esp+56]
  00048	89 4a 04	 mov	 DWORD PTR [edx+4], ecx

; 62   : 		_vecInfo.m_fLength = 0.0f;

  0004b	33 db		 xor	 ebx, ebx
  0004d	89 58 0c	 mov	 DWORD PTR [eax+12], ebx

; 63   : 		_vecInfo.m_dwDelay = 0;

  00050	89 58 14	 mov	 DWORD PTR [eax+20], ebx

; 64   : 		
; 65   : 		vDest = vPos;

  00053	8b 44 24 3c	 mov	 eax, DWORD PTR _vPos$[esp+48]
  00057	c7 44 24 14 00
	00 00 00	 mov	 DWORD PTR $T236469[esp+60], 0
  0005f	8b 4c 24 14	 mov	 ecx, DWORD PTR $T236469[esp+60]
  00063	89 4a 08	 mov	 DWORD PTR [edx+8], ecx
  00066	8b 54 24 48	 mov	 edx, DWORD PTR _vDest$[esp+48]
  0006a	8b 4c 24 40	 mov	 ecx, DWORD PTR _vPos$[esp+52]
  0006e	89 02		 mov	 DWORD PTR [edx], eax
  00070	8b 44 24 44	 mov	 eax, DWORD PTR _vPos$[esp+56]
  00074	5f		 pop	 edi
  00075	89 4a 04	 mov	 DWORD PTR [edx+4], ecx
  00078	5e		 pop	 esi
  00079	89 42 08	 mov	 DWORD PTR [edx+8], eax
  0007c	5b		 pop	 ebx

; 115  : 		}
; 116  : 	}
; 117  : }

  0007d	83 c4 28	 add	 esp, 40			; 00000028H
  00080	c2 18 00	 ret	 24			; 00000018H
$L226046:
  00083	55		 push	 ebp

; 66   : 
; 67   : 		return;
; 68   : 	}
; 69   : 
; 70   : 	vector<_VECINFO> _vecinfoTemp = it1->second;

  00084	83 c0 10	 add	 eax, 16			; 00000010H
  00087	50		 push	 eax
  00088	8d 4c 24 2c	 lea	 ecx, DWORD PTR __vecinfoTemp$[esp+60]
  0008c	e8 00 00 00 00	 call	 ??0?$vector@U_VECINFO@@V?$allocator@U_VECINFO@@@std@@@std@@QAE@ABV01@@Z ; std::vector<_VECINFO,std::allocator<_VECINFO> >::vector<_VECINFO,std::allocator<_VECINFO> >

; 71   : 
; 72   : 	D3DXVECTOR3	v3Dir = _vecinfoTemp[pObj->m_nPatrolIndexCount].m_vDir;

  00091	8b 8e 98 01 00
	00		 mov	 ecx, DWORD PTR [esi+408]
  00097	8b 54 24 2c	 mov	 edx, DWORD PTR __vecinfoTemp$[esp+60]
  0009b	6b c9 38	 imul	 ecx, 56			; 00000038H

; 73   : 	FLOAT fLength = _vecinfoTemp[pObj->m_nPatrolIndexCount].m_fLength;

  0009e	d9 44 11 0c	 fld	 DWORD PTR [ecx+edx+12]
  000a2	8d 04 11	 lea	 eax, DWORD PTR [ecx+edx]
  000a5	8b c8		 mov	 ecx, eax
  000a7	8b 39		 mov	 edi, DWORD PTR [ecx]
  000a9	89 7c 24 10	 mov	 DWORD PTR _v3Dir$[esp+56], edi
  000ad	8b 79 04	 mov	 edi, DWORD PTR [ecx+4]
  000b0	8b 49 08	 mov	 ecx, DWORD PTR [ecx+8]
  000b3	89 7c 24 14	 mov	 DWORD PTR _v3Dir$[esp+60], edi

; 74   : 				
; 75   : 	_vecInfo = _vecinfoTemp[pObj->m_nPatrolIndexCount];

  000b7	8b f8		 mov	 edi, eax
  000b9	8b 2f		 mov	 ebp, DWORD PTR [edi]
  000bb	89 4c 24 18	 mov	 DWORD PTR _v3Dir$[esp+64], ecx
  000bf	8b 4c 24 50	 mov	 ecx, DWORD PTR __vecInfo$[esp+52]
  000c3	8b d9		 mov	 ebx, ecx
  000c5	89 2b		 mov	 DWORD PTR [ebx], ebp
  000c7	8b 6f 04	 mov	 ebp, DWORD PTR [edi+4]
  000ca	89 6b 04	 mov	 DWORD PTR [ebx+4], ebp
  000cd	8b 7f 08	 mov	 edi, DWORD PTR [edi+8]
  000d0	89 7b 08	 mov	 DWORD PTR [ebx+8], edi
  000d3	8b 78 0c	 mov	 edi, DWORD PTR [eax+12]
  000d6	89 79 0c	 mov	 DWORD PTR [ecx+12], edi
  000d9	8b 78 10	 mov	 edi, DWORD PTR [eax+16]
  000dc	89 79 10	 mov	 DWORD PTR [ecx+16], edi
  000df	8b 78 14	 mov	 edi, DWORD PTR [eax+20]
  000e2	89 79 14	 mov	 DWORD PTR [ecx+20], edi
  000e5	5d		 pop	 ebp
  000e6	dd 40 20	 fld	 QWORD PTR [eax+32]
  000e9	dd 59 20	 fstp	 QWORD PTR [ecx+32]
  000ec	dd 40 28	 fld	 QWORD PTR [eax+40]
  000ef	dd 59 28	 fstp	 QWORD PTR [ecx+40]
  000f2	8b 40 30	 mov	 eax, DWORD PTR [eax+48]
  000f5	89 41 30	 mov	 DWORD PTR [ecx+48], eax

; 76   : 
; 77   : 	if( pObj->m_bPatrolReverse == 0 )

  000f8	f6 86 9c 01 00
	00 02		 test	 BYTE PTR [esi+412], 2

; 78   : 		v3Dir = +(v3Dir);
; 79   : 	else

  000ff	74 36		 je	 SHORT $L226054

; 80   : 		v3Dir = -(v3Dir);	

  00101	d9 44 24 0c	 fld	 DWORD PTR _v3Dir$[esp+52]
  00105	d9 e0		 fchs
  00107	d9 5c 24 18	 fstp	 DWORD PTR $T236471[esp+52]
  0010b	8b 4c 24 18	 mov	 ecx, DWORD PTR $T236471[esp+52]
  0010f	d9 44 24 10	 fld	 DWORD PTR _v3Dir$[esp+56]
  00113	89 4c 24 0c	 mov	 DWORD PTR _v3Dir$[esp+52], ecx
  00117	d9 e0		 fchs
  00119	d9 5c 24 1c	 fstp	 DWORD PTR $T236471[esp+56]
  0011d	8b 44 24 1c	 mov	 eax, DWORD PTR $T236471[esp+56]
  00121	d9 44 24 14	 fld	 DWORD PTR _v3Dir$[esp+60]
  00125	89 44 24 10	 mov	 DWORD PTR _v3Dir$[esp+56], eax
  00129	d9 e0		 fchs
  0012b	d9 5c 24 20	 fstp	 DWORD PTR $T236471[esp+60]
  0012f	8b 4c 24 20	 mov	 ecx, DWORD PTR $T236471[esp+60]
  00133	89 4c 24 14	 mov	 DWORD PTR _v3Dir$[esp+60], ecx
$L226054:

; 81   : 
; 82   : 	vDest    = vPos + (v3Dir * fLength );

  00137	d9 44 24 0c	 fld	 DWORD PTR _v3Dir$[esp+52]
  0013b	8b 44 24 48	 mov	 eax, DWORD PTR _vDest$[esp+48]
  0013f	d8 c9		 fmul	 ST(0), ST(1)
  00141	d9 44 24 10	 fld	 DWORD PTR _v3Dir$[esp+56]
  00145	d8 ca		 fmul	 ST(0), ST(2)
  00147	d9 44 24 14	 fld	 DWORD PTR _v3Dir$[esp+60]
  0014b	d8 cb		 fmul	 ST(0), ST(3)
  0014d	d9 5c 24 14	 fstp	 DWORD PTR $T236472[esp+60]
  00151	d9 c9		 fxch	 ST(1)
  00153	d8 44 24 3c	 fadd	 DWORD PTR _vPos$[esp+48]
  00157	d9 5c 24 18	 fstp	 DWORD PTR $T236473[esp+52]
  0015b	8b 4c 24 18	 mov	 ecx, DWORD PTR $T236473[esp+52]
  0015f	d9 44 24 40	 fld	 DWORD PTR _vPos$[esp+52]
  00163	89 08		 mov	 DWORD PTR [eax], ecx
  00165	d8 c1		 fadd	 ST(0), ST(1)
  00167	d9 5c 24 1c	 fstp	 DWORD PTR $T236473[esp+56]
  0016b	8b 4c 24 1c	 mov	 ecx, DWORD PTR $T236473[esp+56]
  0016f	89 48 04	 mov	 DWORD PTR [eax+4], ecx
  00172	dd d8		 fstp	 ST(0)
  00174	dd d8		 fstp	 ST(0)
  00176	d9 44 24 44	 fld	 DWORD PTR _vPos$[esp+56]
  0017a	d8 44 24 14	 fadd	 DWORD PTR $T236472[esp+60]
  0017e	d9 5c 24 20	 fstp	 DWORD PTR $T236473[esp+60]
  00182	8b 4c 24 20	 mov	 ecx, DWORD PTR $T236473[esp+60]
  00186	89 48 08	 mov	 DWORD PTR [eax+8], ecx

; 83   : 
; 84   : 	// 
; 85   : 	if( pObj->m_bPatrolCycle == 1 )

  00189	8a 8e 9c 01 00
	00		 mov	 cl, BYTE PTR [esi+412]

; 86   : 		pObj->m_nPatrolIndexCount++;

  0018f	8b be 98 01 00
	00		 mov	 edi, DWORD PTR [esi+408]
  00195	8a c1		 mov	 al, cl
  00197	24 01		 and	 al, 1
  00199	74 03		 je	 SHORT $L226058
  0019b	47		 inc	 edi

; 87   : 	else

  0019c	eb 09		 jmp	 SHORT $L236756
$L226058:

; 88   : 	{
; 89   : 		if( pObj->m_bPatrolReverse == 0 )

  0019e	f6 c1 02	 test	 cl, 2
  001a1	75 03		 jne	 SHORT $L226060

; 90   : 			pObj->m_nPatrolIndexCount++;

  001a3	47		 inc	 edi

; 91   : 		else

  001a4	eb 01		 jmp	 SHORT $L236756
$L226060:

; 92   : 			pObj->m_nPatrolIndexCount--;		

  001a6	4f		 dec	 edi
$L236756:

; 93   : 	}
; 94   : 	
; 95   : 	// 
; 96   : 	if( pObj->m_bPatrolCycle == 1 )
; 97   : 	{
; 98   : 		if( pObj->m_nPatrolIndexCount >= (int)( _vecinfoTemp.size() ) )

  001a7	33 db		 xor	 ebx, ebx
  001a9	3c 01		 cmp	 al, 1
  001ab	89 be 98 01 00
	00		 mov	 DWORD PTR [esi+408], edi
  001b1	75 2b		 jne	 SHORT $L226062
  001b3	3b d3		 cmp	 edx, ebx
  001b5	75 04		 jne	 SHORT $L236741
  001b7	33 c0		 xor	 eax, eax
  001b9	eb 19		 jmp	 SHORT $L236742
$L236741:
  001bb	8b 4c 24 2c	 mov	 ecx, DWORD PTR __vecinfoTemp$[esp+60]
  001bf	2b ca		 sub	 ecx, edx
  001c1	b8 93 24 49 92	 mov	 eax, -1840700269	; 92492493H
  001c6	f7 e9		 imul	 ecx
  001c8	03 d1		 add	 edx, ecx
  001ca	c1 fa 05	 sar	 edx, 5
  001cd	8b c2		 mov	 eax, edx
  001cf	c1 e8 1f	 shr	 eax, 31			; 0000001fH
  001d2	03 c2		 add	 eax, edx
$L236742:
  001d4	39 86 98 01 00
	00		 cmp	 DWORD PTR [esi+408], eax
  001da	7c 63		 jl	 SHORT $L226069

; 99   : 		{
; 100  : 			pObj->m_nPatrolIndexCount = 0;
; 101  : 		}
; 102  : 	}
; 103  : 	else

  001dc	eb 5b		 jmp	 SHORT $L236757
$L226062:

; 104  : 	{
; 105  : 		if( pObj->m_nPatrolIndexCount >= (int)_vecinfoTemp.size()-1 )

  001de	3b d3		 cmp	 edx, ebx
  001e0	75 04		 jne	 SHORT $L236748
  001e2	33 c0		 xor	 eax, eax
  001e4	eb 19		 jmp	 SHORT $L236749
$L236748:
  001e6	8b 7c 24 2c	 mov	 edi, DWORD PTR __vecinfoTemp$[esp+60]
  001ea	2b fa		 sub	 edi, edx
  001ec	b8 93 24 49 92	 mov	 eax, -1840700269	; 92492493H
  001f1	f7 ef		 imul	 edi
  001f3	03 d7		 add	 edx, edi
  001f5	c1 fa 05	 sar	 edx, 5
  001f8	8b c2		 mov	 eax, edx
  001fa	c1 e8 1f	 shr	 eax, 31			; 0000001fH
  001fd	03 c2		 add	 eax, edx
$L236749:
  001ff	8b 96 98 01 00
	00		 mov	 edx, DWORD PTR [esi+408]
  00205	48		 dec	 eax
  00206	3b d0		 cmp	 edx, eax
  00208	7c 22		 jl	 SHORT $L226067

; 106  : 		{
; 107  : 			pObj->m_nPatrolIndexCount = pObj->m_nPatrolIndexCount - 1;
; 108  : 			pObj->m_bPatrolReverse = 1; // ..

  0020a	80 c9 02	 or	 cl, 2
  0020d	4a		 dec	 edx
  0020e	88 8e 9c 01 00
	00		 mov	 BYTE PTR [esi+412], cl

; 115  : 		}
; 116  : 	}
; 117  : }

  00214	8d 4c 24 24	 lea	 ecx, DWORD PTR __vecinfoTemp$[esp+52]
  00218	89 96 98 01 00
	00		 mov	 DWORD PTR [esi+408], edx
  0021e	e8 00 00 00 00	 call	 ?_Tidy@?$vector@U_VECINFO@@V?$allocator@U_VECINFO@@@std@@@std@@IAEXXZ ; std::vector<_VECINFO,std::allocator<_VECINFO> >::_Tidy
  00223	5f		 pop	 edi
  00224	5e		 pop	 esi
  00225	5b		 pop	 ebx
  00226	83 c4 28	 add	 esp, 40			; 00000028H
  00229	c2 18 00	 ret	 24			; 00000018H
$L226067:

; 109  : 		}
; 110  : 		else
; 111  : 		if( pObj->m_nPatrolIndexCount < 0 )

  0022c	3b d3		 cmp	 edx, ebx
  0022e	7d 0f		 jge	 SHORT $L226069

; 114  : 			pObj->m_bPatrolReverse = 0; // ..

  00230	80 e1 fd	 and	 cl, 253			; 000000fdH
  00233	88 8e 9c 01 00
	00		 mov	 BYTE PTR [esi+412], cl
$L236757:

; 112  : 		{
; 113  : 			pObj->m_nPatrolIndexCount = 0;

  00239	89 9e 98 01 00
	00		 mov	 DWORD PTR [esi+408], ebx
$L226069:

; 115  : 		}
; 116  : 	}
; 117  : }

  0023f	8d 4c 24 24	 lea	 ecx, DWORD PTR __vecinfoTemp$[esp+52]
  00243	e8 00 00 00 00	 call	 ?_Tidy@?$vector@U_VECINFO@@V?$allocator@U_VECINFO@@@std@@@std@@IAEXXZ ; std::vector<_VECINFO,std::allocator<_VECINFO> >::_Tidy
  00248	5f		 pop	 edi
  00249	5e		 pop	 esi
  0024a	5b		 pop	 ebx
  0024b	83 c4 28	 add	 esp, 40			; 00000028H
  0024e	c2 18 00	 ret	 24			; 00000018H
?GetNextPosInfo@CPatrolPath@@QAEXPAVCObj@@UD3DXVECTOR3@@AAU3@AAU_VECINFO@@@Z ENDP ; CPatrolPath::GetNextPosInfo
_TEXT	ENDS
PUBLIC	??0?$map@KHU?$less@K@std@@V?$allocator@U?$pair@$$CBKH@std@@@2@@std@@QAE@XZ ; std::map<unsigned long,int,std::less<unsigned long>,std::allocator<std::pair<unsigned long const ,int> > >::map<unsigned long,int,std::less<unsigned long>,std::allocator<std::pair<unsigned long const ,int> > >
; Function compile flags: /Ogty
; File c:\program files\microsoft visual studio .net 2003\vc7\include\map
;	COMDAT ??0?$map@KHU?$less@K@std@@V?$allocator@U?$pair@$$CBKH@std@@@2@@std@@QAE@XZ
_TEXT	SEGMENT
??0?$map@KHU?$less@K@std@@V?$allocator@U?$pair@$$CBKH@std@@@2@@std@@QAE@XZ PROC NEAR ; std::map<unsigned long,int,std::less<unsigned long>,std::allocator<std::pair<unsigned long const ,int> > >::map<unsigned long,int,std::less<unsigned long>,std::allocator<std::pair<unsigned long const ,int> > >, COMDAT
; _this$ = ecx

; 102  : 		{	// construct empty map from defaults

  00000	56		 push	 esi
  00001	8b f1		 mov	 esi, ecx
  00003	e8 00 00 00 00	 call	 ?_Buynode@?$_Tree@V?$_Tmap_traits@KHU?$less@K@std@@V?$allocator@U?$pair@$$CBKH@std@@@2@$0A@@std@@@std@@IAEPAU_Node@?$_Tree_nod@V?$_Tmap_traits@KHU?$less@K@std@@V?$allocator@U?$pair@$$CBKH@std@@@2@$0A@@std@@@2@XZ ; std::_Tree<std::_Tmap_traits<unsigned long,int,std::less<unsigned long>,std::allocator<std::pair<unsigned long const ,int> >,0> >::_Buynode
  00008	89 46 04	 mov	 DWORD PTR [esi+4], eax
  0000b	c6 40 15 01	 mov	 BYTE PTR [eax+21], 1
  0000f	8b 46 04	 mov	 eax, DWORD PTR [esi+4]
  00012	89 40 04	 mov	 DWORD PTR [eax+4], eax
  00015	8b 46 04	 mov	 eax, DWORD PTR [esi+4]
  00018	89 00		 mov	 DWORD PTR [eax], eax
  0001a	8b 46 04	 mov	 eax, DWORD PTR [esi+4]
  0001d	89 40 08	 mov	 DWORD PTR [eax+8], eax
  00020	c7 46 08 00 00
	00 00		 mov	 DWORD PTR [esi+8], 0

; 103  : 		}

  00027	8b c6		 mov	 eax, esi
  00029	5e		 pop	 esi
  0002a	c3		 ret	 0
??0?$map@KHU?$less@K@std@@V?$allocator@U?$pair@$$CBKH@std@@@2@@std@@QAE@XZ ENDP ; std::map<unsigned long,int,std::less<unsigned long>,std::allocator<std::pair<unsigned long const ,int> > >::map<unsigned long,int,std::less<unsigned long>,std::allocator<std::pair<unsigned long const ,int> > >
_TEXT	ENDS
PUBLIC	?push_back@?$vector@U_VECINFO@@V?$allocator@U_VECINFO@@@std@@@std@@QAEXABU_VECINFO@@@Z ; std::vector<_VECINFO,std::allocator<_VECINFO> >::push_back
; Function compile flags: /Ogty
; File c:\program files\microsoft visual studio .net 2003\vc7\include\vector
;	COMDAT ?push_back@?$vector@U_VECINFO@@V?$allocator@U_VECINFO@@@std@@@std@@QAEXABU_VECINFO@@@Z
_TEXT	SEGMENT
__Cat$236965 = 8					; size = 1
$T236930 = 8						; size = 4
__Val$ = 8						; size = 4
?push_back@?$vector@U_VECINFO@@V?$allocator@U_VECINFO@@@std@@@std@@QAEXABU_VECINFO@@@Z PROC NEAR ; std::vector<_VECINFO,std::allocator<_VECINFO> >::push_back, COMDAT
; _this$ = ecx

; 579  : 		{	// insert element at end

  00000	53		 push	 ebx
  00001	56		 push	 esi
  00002	57		 push	 edi
  00003	8b f9		 mov	 edi, ecx

; 580  : 		if (size() < capacity())

  00005	8b 5f 04	 mov	 ebx, DWORD PTR [edi+4]
  00008	85 db		 test	 ebx, ebx
  0000a	75 04		 jne	 SHORT $L236936
  0000c	33 f6		 xor	 esi, esi
  0000e	eb 18		 jmp	 SHORT $L236937
$L236936:
  00010	8b 4f 08	 mov	 ecx, DWORD PTR [edi+8]
  00013	2b cb		 sub	 ecx, ebx
  00015	b8 93 24 49 92	 mov	 eax, -1840700269	; 92492493H
  0001a	f7 e9		 imul	 ecx
  0001c	03 d1		 add	 edx, ecx
  0001e	c1 fa 05	 sar	 edx, 5
  00021	8b f2		 mov	 esi, edx
  00023	c1 ee 1f	 shr	 esi, 31			; 0000001fH
  00026	03 f2		 add	 esi, edx
$L236937:
  00028	85 db		 test	 ebx, ebx
  0002a	74 41		 je	 SHORT $L226568
  0002c	8b 4f 0c	 mov	 ecx, DWORD PTR [edi+12]
  0002f	2b cb		 sub	 ecx, ebx
  00031	b8 93 24 49 92	 mov	 eax, -1840700269	; 92492493H
  00036	f7 e9		 imul	 ecx
  00038	03 d1		 add	 edx, ecx
  0003a	c1 fa 05	 sar	 edx, 5
  0003d	8b c2		 mov	 eax, edx
  0003f	c1 e8 1f	 shr	 eax, 31			; 0000001fH
  00042	03 c2		 add	 eax, edx
  00044	3b f0		 cmp	 esi, eax
  00046	73 25		 jae	 SHORT $L226568

; 581  : 			_Mylast = _Ufill(_Mylast, 1, _Val);

  00048	8b 44 24 10	 mov	 eax, DWORD PTR __Cat$236965[esp+8]
  0004c	8b 4c 24 10	 mov	 ecx, DWORD PTR __Val$[esp+8]
  00050	8b 77 08	 mov	 esi, DWORD PTR [edi+8]
  00053	50		 push	 eax
  00054	57		 push	 edi
  00055	51		 push	 ecx
  00056	6a 01		 push	 1
  00058	56		 push	 esi
  00059	e8 00 00 00 00	 call	 ??$_Uninit_fill_n@PAU_VECINFO@@IU1@V?$allocator@U_VECINFO@@@std@@@std@@YAXPAU_VECINFO@@IABU1@AAV?$allocator@U_VECINFO@@@0@U_Nonscalar_ptr_iterator_tag@0@@Z ; std::_Uninit_fill_n<_VECINFO *,unsigned int,_VECINFO,std::allocator<_VECINFO> >
  0005e	83 c4 14	 add	 esp, 20			; 00000014H
  00061	83 c6 38	 add	 esi, 56			; 00000038H
  00064	89 77 08	 mov	 DWORD PTR [edi+8], esi
  00067	5f		 pop	 edi
  00068	5e		 pop	 esi
  00069	5b		 pop	 ebx

; 584  : 		}

  0006a	c2 04 00	 ret	 4
$L226568:

; 582  : 		else
; 583  : 			insert(end(), _Val);

  0006d	8b 54 24 10	 mov	 edx, DWORD PTR __Val$[esp+8]
  00071	8b 47 08	 mov	 eax, DWORD PTR [edi+8]
  00074	52		 push	 edx
  00075	50		 push	 eax
  00076	8d 44 24 18	 lea	 eax, DWORD PTR $T236930[esp+16]
  0007a	50		 push	 eax
  0007b	8b cf		 mov	 ecx, edi
  0007d	e8 00 00 00 00	 call	 ?insert@?$vector@U_VECINFO@@V?$allocator@U_VECINFO@@@std@@@std@@QAE?AViterator@12@V312@ABU_VECINFO@@@Z ; std::vector<_VECINFO,std::allocator<_VECINFO> >::insert
  00082	5f		 pop	 edi
  00083	5e		 pop	 esi
  00084	5b		 pop	 ebx

; 584  : 		}

  00085	c2 04 00	 ret	 4
?push_back@?$vector@U_VECINFO@@V?$allocator@U_VECINFO@@@std@@@std@@QAEXABU_VECINFO@@@Z ENDP ; std::vector<_VECINFO,std::allocator<_VECINFO> >::push_back
_TEXT	ENDS
PUBLIC	??0_Node@?$_Tree_nod@V?$_Tmap_traits@KV?$vector@U_VECINFO@@V?$allocator@U_VECINFO@@@std@@@std@@U?$less@K@2@V?$allocator@U?$pair@$$CBKV?$vector@U_VECINFO@@V?$allocator@U_VECINFO@@@std@@@std@@@std@@@2@$0A@@std@@@std@@QAE@PAU012@00ABU?$pair@$$CBKV?$vector@U_VECINFO@@V?$allocator@U_VECINFO@@@std@@@std@@@2@D@Z ; std::_Tree_nod<std::_Tmap_traits<unsigned long,std::vector<_VECINFO,std::allocator<_VECINFO> >,std::less<unsigned long>,std::allocator<std::pair<unsigned long const ,std::vector<_VECINFO,std::allocator<_VECINFO> > > >,0> >::_Node::_Node
; Function compile flags: /Ogty
; File c:\program files\microsoft visual studio .net 2003\vc7\include\xtree
;	COMDAT ??0_Node@?$_Tree_nod@V?$_Tmap_traits@KV?$vector@U_VECINFO@@V?$allocator@U_VECINFO@@@std@@@std@@U?$less@K@2@V?$allocator@U?$pair@$$CBKV?$vector@U_VECINFO@@V?$allocator@U_VECINFO@@@std@@@std@@@std@@@2@$0A@@std@@@std@@QAE@PAU012@00ABU?$pair@$$CBKV?$vector@U_VECINFO@@V?$allocator@U_VECINFO@@@std@@@std@@@2@D@Z
_TEXT	SEGMENT
__Larg$ = 8						; size = 4
__Parg$ = 12						; size = 4
__Rarg$ = 16						; size = 4
__Val$ = 20						; size = 4
__Carg$ = 24						; size = 1
??0_Node@?$_Tree_nod@V?$_Tmap_traits@KV?$vector@U_VECINFO@@V?$allocator@U_VECINFO@@@std@@@std@@U?$less@K@2@V?$allocator@U?$pair@$$CBKV?$vector@U_VECINFO@@V?$allocator@U_VECINFO@@@std@@@std@@@std@@@2@$0A@@std@@@std@@QAE@PAU012@00ABU?$pair@$$CBKV?$vector@U_VECINFO@@V?$allocator@U_VECINFO@@@std@@@std@@@2@D@Z PROC NEAR ; std::_Tree_nod<std::_Tmap_traits<unsigned long,std::vector<_VECINFO,std::allocator<_VECINFO> >,std::less<unsigned long>,std::allocator<std::pair<unsigned long const ,std::vector<_VECINFO,std::allocator<_VECINFO> > > >,0> >::_Node::_Node, COMDAT
; _this$ = ecx

; 40   : 			{	// construct a node with value

  00000	8b 44 24 04	 mov	 eax, DWORD PTR __Larg$[esp-4]
  00004	8b 54 24 0c	 mov	 edx, DWORD PTR __Rarg$[esp-4]
  00008	56		 push	 esi
  00009	8b f1		 mov	 esi, ecx
  0000b	8b 4c 24 0c	 mov	 ecx, DWORD PTR __Parg$[esp]
  0000f	89 06		 mov	 DWORD PTR [esi], eax
  00011	8b 44 24 14	 mov	 eax, DWORD PTR __Val$[esp]
  00015	89 4e 04	 mov	 DWORD PTR [esi+4], ecx
  00018	89 56 08	 mov	 DWORD PTR [esi+8], edx
  0001b	8b 08		 mov	 ecx, DWORD PTR [eax]
  0001d	83 c0 04	 add	 eax, 4
  00020	89 4e 0c	 mov	 DWORD PTR [esi+12], ecx
  00023	50		 push	 eax
  00024	8d 4e 10	 lea	 ecx, DWORD PTR [esi+16]
  00027	e8 00 00 00 00	 call	 ??0?$vector@U_VECINFO@@V?$allocator@U_VECINFO@@@std@@@std@@QAE@ABV01@@Z ; std::vector<_VECINFO,std::allocator<_VECINFO> >::vector<_VECINFO,std::allocator<_VECINFO> >
  0002c	8a 54 24 18	 mov	 dl, BYTE PTR __Carg$[esp]
  00030	88 56 20	 mov	 BYTE PTR [esi+32], dl
  00033	c6 46 21 00	 mov	 BYTE PTR [esi+33], 0

; 41   : 			}

  00037	8b c6		 mov	 eax, esi
  00039	5e		 pop	 esi
  0003a	c2 14 00	 ret	 20			; 00000014H
??0_Node@?$_Tree_nod@V?$_Tmap_traits@KV?$vector@U_VECINFO@@V?$allocator@U_VECINFO@@@std@@@std@@U?$less@K@2@V?$allocator@U?$pair@$$CBKV?$vector@U_VECINFO@@V?$allocator@U_VECINFO@@@std@@@std@@@std@@@2@$0A@@std@@@std@@QAE@PAU012@00ABU?$pair@$$CBKV?$vector@U_VECINFO@@V?$allocator@U_VECINFO@@@std@@@std@@@2@D@Z ENDP ; std::_Tree_nod<std::_Tmap_traits<unsigned long,std::vector<_VECINFO,std::allocator<_VECINFO> >,std::less<unsigned long>,std::allocator<std::pair<unsigned long const ,std::vector<_VECINFO,std::allocator<_VECINFO> > > >,0> >::_Node::_Node
_TEXT	ENDS
PUBLIC	??_G_Node@?$_Tree_nod@V?$_Tmap_traits@KV?$vector@U_VECINFO@@V?$allocator@U_VECINFO@@@std@@@std@@U?$less@K@2@V?$allocator@U?$pair@$$CBKV?$vector@U_VECINFO@@V?$allocator@U_VECINFO@@@std@@@std@@@std@@@2@$0A@@std@@@std@@QAEPAXI@Z ; std::_Tree_nod<std::_Tmap_traits<unsigned long,std::vector<_VECINFO,std::allocator<_VECINFO> >,std::less<unsigned long>,std::allocator<std::pair<unsigned long const ,std::vector<_VECINFO,std::allocator<_VECINFO> > > >,0> >::_Node::`scalar deleting destructor'
; Function compile flags: /Ogty
;	COMDAT ??_G_Node@?$_Tree_nod@V?$_Tmap_traits@KV?$vector@U_VECINFO@@V?$allocator@U_VECINFO@@@std@@@std@@U?$less@K@2@V?$allocator@U?$pair@$$CBKV?$vector@U_VECINFO@@V?$allocator@U_VECINFO@@@std@@@std@@@std@@@2@$0A@@std@@@std@@QAEPAXI@Z
_TEXT	SEGMENT
___flags$ = 8						; size = 4
??_G_Node@?$_Tree_nod@V?$_Tmap_traits@KV?$vector@U_VECINFO@@V?$allocator@U_VECINFO@@@std@@@std@@U?$less@K@2@V?$allocator@U?$pair@$$CBKV?$vector@U_VECINFO@@V?$allocator@U_VECINFO@@@std@@@std@@@std@@@2@$0A@@std@@@std@@QAEPAXI@Z PROC NEAR ; std::_Tree_nod<std::_Tmap_traits<unsigned long,std::vector<_VECINFO,std::allocator<_VECINFO> >,std::less<unsigned long>,std::allocator<std::pair<unsigned long const ,std::vector<_VECINFO,std::allocator<_VECINFO> > > >,0> >::_Node::`scalar deleting destructor', COMDAT
; _this$ = ecx
  00000	56		 push	 esi
  00001	8b f1		 mov	 esi, ecx
  00003	e8 00 00 00 00	 call	 ??1_Node@?$_Tree_nod@V?$_Tmap_traits@KV?$vector@U_VECINFO@@V?$allocator@U_VECINFO@@@std@@@std@@U?$less@K@2@V?$allocator@U?$pair@$$CBKV?$vector@U_VECINFO@@V?$allocator@U_VECINFO@@@std@@@std@@@std@@@2@$0A@@std@@@std@@QAE@XZ
  00008	f6 44 24 08 01	 test	 BYTE PTR ___flags$[esp], 1
  0000d	74 09		 je	 SHORT $L236996
  0000f	56		 push	 esi
  00010	e8 00 00 00 00	 call	 ??3@YAXPAX@Z		; operator delete
  00015	83 c4 04	 add	 esp, 4
$L236996:
  00018	8b c6		 mov	 eax, esi
  0001a	5e		 pop	 esi
  0001b	c2 04 00	 ret	 4
??_G_Node@?$_Tree_nod@V?$_Tmap_traits@KV?$vector@U_VECINFO@@V?$allocator@U_VECINFO@@@std@@@std@@U?$less@K@2@V?$allocator@U?$pair@$$CBKV?$vector@U_VECINFO@@V?$allocator@U_VECINFO@@@std@@@std@@@std@@@2@$0A@@std@@@std@@QAEPAXI@Z ENDP ; std::_Tree_nod<std::_Tmap_traits<unsigned long,std::vector<_VECINFO,std::allocator<_VECINFO> >,std::less<unsigned long>,std::allocator<std::pair<unsigned long const ,std::vector<_VECINFO,std::allocator<_VECINFO> > > >,0> >::_Node::`scalar deleting destructor'
_TEXT	ENDS
PUBLIC	??1?$map@KHU?$less@K@std@@V?$allocator@U?$pair@$$CBKH@std@@@2@@std@@QAE@XZ ; std::map<unsigned long,int,std::less<unsigned long>,std::allocator<std::pair<unsigned long const ,int> > >::~map<unsigned long,int,std::less<unsigned long>,std::allocator<std::pair<unsigned long const ,int> > >
; Function compile flags: /Ogty
;	COMDAT ??1?$map@KHU?$less@K@std@@V?$allocator@U?$pair@$$CBKH@std@@@2@@std@@QAE@XZ
_TEXT	SEGMENT
$T237099 = -4						; size = 4
??1?$map@KHU?$less@K@std@@V?$allocator@U?$pair@$$CBKH@std@@@2@@std@@QAE@XZ PROC NEAR ; std::map<unsigned long,int,std::less<unsigned long>,std::allocator<std::pair<unsigned long const ,int> > >::~map<unsigned long,int,std::less<unsigned long>,std::allocator<std::pair<unsigned long const ,int> > >, COMDAT
; _this$ = ecx
  00000	51		 push	 ecx
  00001	56		 push	 esi
  00002	8b f1		 mov	 esi, ecx
  00004	8b 46 04	 mov	 eax, DWORD PTR [esi+4]
  00007	8b 08		 mov	 ecx, DWORD PTR [eax]
  00009	50		 push	 eax
  0000a	51		 push	 ecx
  0000b	8d 44 24 0c	 lea	 eax, DWORD PTR $T237099[esp+16]
  0000f	50		 push	 eax
  00010	8b ce		 mov	 ecx, esi
  00012	e8 00 00 00 00	 call	 ?erase@?$_Tree@V?$_Tmap_traits@KHU?$less@K@std@@V?$allocator@U?$pair@$$CBKH@std@@@2@$0A@@std@@@std@@QAE?AViterator@12@V312@0@Z ; std::_Tree<std::_Tmap_traits<unsigned long,int,std::less<unsigned long>,std::allocator<std::pair<unsigned long const ,int> >,0> >::erase
  00017	8b 4e 04	 mov	 ecx, DWORD PTR [esi+4]
  0001a	51		 push	 ecx
  0001b	e8 00 00 00 00	 call	 ??3@YAXPAX@Z		; operator delete
  00020	83 c4 04	 add	 esp, 4
  00023	33 c0		 xor	 eax, eax
  00025	89 46 04	 mov	 DWORD PTR [esi+4], eax
  00028	89 46 08	 mov	 DWORD PTR [esi+8], eax
  0002b	5e		 pop	 esi
  0002c	59		 pop	 ecx
  0002d	c3		 ret	 0
??1?$map@KHU?$less@K@std@@V?$allocator@U?$pair@$$CBKH@std@@@2@@std@@QAE@XZ ENDP ; std::map<unsigned long,int,std::less<unsigned long>,std::allocator<std::pair<unsigned long const ,int> > >::~map<unsigned long,int,std::less<unsigned long>,std::allocator<std::pair<unsigned long const ,int> > >
_TEXT	ENDS
PUBLIC	?_Buynode@?$_Tree@V?$_Tmap_traits@KV?$vector@U_VECINFO@@V?$allocator@U_VECINFO@@@std@@@std@@U?$less@K@2@V?$allocator@U?$pair@$$CBKV?$vector@U_VECINFO@@V?$allocator@U_VECINFO@@@std@@@std@@@std@@@2@$0A@@std@@@std@@IAEPAU_Node@?$_Tree_nod@V?$_Tmap_traits@KV?$vector@U_VECINFO@@V?$allocator@U_VECINFO@@@std@@@std@@U?$less@K@2@V?$allocator@U?$pair@$$CBKV?$vector@U_VECINFO@@V?$allocator@U_VECINFO@@@std@@@std@@@std@@@2@$0A@@std@@@2@PAU342@00ABU?$pair@$$CBKV?$vector@U_VECINFO@@V?$allocator@U_VECINFO@@@std@@@std@@@2@D@Z ; std::_Tree<std::_Tmap_traits<unsigned long,std::vector<_VECINFO,std::allocator<_VECINFO> >,std::less<unsigned long>,std::allocator<std::pair<unsigned long const ,std::vector<_VECINFO,std::allocator<_VECINFO> > > >,0> >::_Buynode
;	COMDAT xdata$x
; File c:\program files\microsoft visual studio .net 2003\vc7\include\xmemory
xdata$x	SEGMENT
$T237164 DD	0ffffffffH
	DD	00H
	DD	00H
	DD	FLAT:$L237134
	DD	0ffffffffH
	DD	00H
$T237166 DD	00H
	DD	00H
	DD	00H
	DD	FLAT:$L237133
$T237165 DD	00H
	DD	01H
	DD	02H
	DD	01H
	DD	FLAT:$T237166
$T237161 DD	019930520H
	DD	03H
	DD	FLAT:$T237164
	DD	01H
	DD	FLAT:$T237165
	DD	2 DUP(00H)
; Function compile flags: /Ogty
; File c:\program files\microsoft visual studio .net 2003\vc7\include\xtree
xdata$x	ENDS
;	COMDAT ?_Buynode@?$_Tree@V?$_Tmap_traits@KV?$vector@U_VECINFO@@V?$allocator@U_VECINFO@@@std@@@std@@U?$less@K@2@V?$allocator@U?$pair@$$CBKV?$vector@U_VECINFO@@V?$allocator@U_VECINFO@@@std@@@std@@@std@@@2@$0A@@std@@@std@@IAEPAU_Node@?$_Tree_nod@V?$_Tmap_traits@KV?$vector@U_VECINFO@@V?$allocator@U_VECINFO@@@std@@@std@@U?$less@K@2@V?$allocator@U?$pair@$$CBKV?$vector@U_VECINFO@@V?$allocator@U_VECINFO@@@std@@@std@@@std@@@2@$0A@@std@@@2@PAU342@00ABU?$pair@$$CBKV?$vector@U_VECINFO@@V?$allocator@U_VECINFO@@@std@@@std@@@2@D@Z
_TEXT	SEGMENT
$T237129 = -24						; size = 4
__Wherenode$ = -20					; size = 4
__$EHRec$ = -16						; size = 16
__Larg$ = 8						; size = 4
__Parg$ = 12						; size = 4
__Rarg$ = 16						; size = 4
__Val$ = 20						; size = 4
__Carg$ = 24						; size = 1
?_Buynode@?$_Tree@V?$_Tmap_traits@KV?$vector@U_VECINFO@@V?$allocator@U_VECINFO@@@std@@@std@@U?$less@K@2@V?$allocator@U?$pair@$$CBKV?$vector@U_VECINFO@@V?$allocator@U_VECINFO@@@std@@@std@@@std@@@2@$0A@@std@@@std@@IAEPAU_Node@?$_Tree_nod@V?$_Tmap_traits@KV?$vector@U_VECINFO@@V?$allocator@U_VECINFO@@@std@@@std@@U?$less@K@2@V?$allocator@U?$pair@$$CBKV?$vector@U_VECINFO@@V?$allocator@U_VECINFO@@@std@@@std@@@std@@@2@$0A@@std@@@2@PAU342@00ABU?$pair@$$CBKV?$vector@U_VECINFO@@V?$allocator@U_VECINFO@@@std@@@std@@@2@D@Z PROC NEAR ; std::_Tree<std::_Tmap_traits<unsigned long,std::vector<_VECINFO,std::allocator<_VECINFO> >,std::less<unsigned long>,std::allocator<std::pair<unsigned long const ,std::vector<_VECINFO,std::allocator<_VECINFO> > > >,0> >::_Buynode, COMDAT
; _this$ = ecx

; 1130 : 		{	// allocate a node with pointers, value, and color

  00000	55		 push	 ebp
  00001	8b ec		 mov	 ebp, esp
  00003	6a ff		 push	 -1
  00005	68 00 00 00 00	 push	 __ehhandler$?_Buynode@?$_Tree@V?$_Tmap_traits@KV?$vector@U_VECINFO@@V?$allocator@U_VECINFO@@@std@@@std@@U?$less@K@2@V?$allocator@U?$pair@$$CBKV?$vector@U_VECINFO@@V?$allocator@U_VECINFO@@@std@@@std@@@std@@@2@$0A@@std@@@std@@IAEPAU_Node@?$_Tree_nod@V?$_Tmap_traits@KV?$vector@U_VECINFO@@V?$allocator@U_VECINFO@@@std@@@std@@U?$less@K@2@V?$allocator@U?$pair@$$CBKV?$vector@U_VECINFO@@V?$allocator@U_VECINFO@@@std@@@std@@@std@@@2@$0A@@std@@@2@PAU342@00ABU?$pair@$$CBKV?$vector@U_VECINFO@@V?$allocator@U_VECINFO@@@std@@@std@@@2@D@Z
  0000a	64 a1 00 00 00
	00		 mov	 eax, DWORD PTR fs:__except_list
  00010	50		 push	 eax
  00011	64 89 25 00 00
	00 00		 mov	 DWORD PTR fs:__except_list, esp
  00018	83 ec 0c	 sub	 esp, 12			; 0000000cH
  0001b	53		 push	 ebx
  0001c	56		 push	 esi
  0001d	57		 push	 edi
  0001e	89 65 f0	 mov	 DWORD PTR __$EHRec$[ebp], esp

; 1131 : 		_Nodeptr _Wherenode = this->_Alnod.allocate(1);

  00021	6a 24		 push	 36			; 00000024H
  00023	e8 00 00 00 00	 call	 ??2@YAPAXI@Z		; operator new
  00028	8b f0		 mov	 esi, eax
  0002a	83 c4 04	 add	 esp, 4
  0002d	89 75 ec	 mov	 DWORD PTR __Wherenode$[ebp], esi

; 1132 : 		_TRY_BEGIN

  00030	c7 45 fc 00 00
	00 00		 mov	 DWORD PTR __$EHRec$[ebp+12], 0

; 1133 : 		new (_Wherenode) _Node(_Larg, _Parg, _Rarg, _Val, _Carg);

  00037	89 75 e8	 mov	 DWORD PTR $T237129[ebp], esi
  0003a	85 f6		 test	 esi, esi
  0003c	c6 45 fc 01	 mov	 BYTE PTR __$EHRec$[ebp+12], 1
  00040	74 2f		 je	 SHORT $L237130
  00042	8b 45 08	 mov	 eax, DWORD PTR __Larg$[ebp]
  00045	8b 4d 0c	 mov	 ecx, DWORD PTR __Parg$[ebp]
  00048	8b 55 10	 mov	 edx, DWORD PTR __Rarg$[ebp]
  0004b	89 06		 mov	 DWORD PTR [esi], eax
  0004d	8b 45 14	 mov	 eax, DWORD PTR __Val$[ebp]
  00050	89 4e 04	 mov	 DWORD PTR [esi+4], ecx
  00053	89 56 08	 mov	 DWORD PTR [esi+8], edx
  00056	8b 08		 mov	 ecx, DWORD PTR [eax]
  00058	83 c0 04	 add	 eax, 4
  0005b	89 4e 0c	 mov	 DWORD PTR [esi+12], ecx
  0005e	50		 push	 eax
  0005f	8d 4e 10	 lea	 ecx, DWORD PTR [esi+16]
  00062	e8 00 00 00 00	 call	 ??0?$vector@U_VECINFO@@V?$allocator@U_VECINFO@@@std@@@std@@QAE@ABV01@@Z ; std::vector<_VECINFO,std::allocator<_VECINFO> >::vector<_VECINFO,std::allocator<_VECINFO> >
  00067	8a 55 18	 mov	 dl, BYTE PTR __Carg$[ebp]
  0006a	88 56 20	 mov	 BYTE PTR [esi+32], dl
  0006d	c6 46 21 00	 mov	 BYTE PTR [esi+33], 0
$L237130:

; 1137 : 		_CATCH_END
; 1138 : 		return (_Wherenode);
; 1139 : 		}

  00071	8b 4d f4	 mov	 ecx, DWORD PTR __$EHRec$[ebp+4]
  00074	5f		 pop	 edi
  00075	8b c6		 mov	 eax, esi
  00077	5e		 pop	 esi
  00078	64 89 0d 00 00
	00 00		 mov	 DWORD PTR fs:__except_list, ecx
  0007f	5b		 pop	 ebx
  00080	8b e5		 mov	 esp, ebp
  00082	5d		 pop	 ebp
  00083	c2 14 00	 ret	 20			; 00000014H
$L237133:

; 1134 : 		_CATCH_ALL
; 1135 : 		this->_Alnod.deallocate(_Wherenode, 1);

  00086	8b 45 ec	 mov	 eax, DWORD PTR __Wherenode$[ebp]
  00089	50		 push	 eax
  0008a	e8 00 00 00 00	 call	 ??3@YAXPAX@Z		; operator delete
  0008f	83 c4 04	 add	 esp, 4

; 1136 : 		_RERAISE;

  00092	6a 00		 push	 0
  00094	6a 00		 push	 0
  00096	e8 00 00 00 00	 call	 __CxxThrowException@8
$L237167:
$L237163:
  0009b	cc		 int	 3
_TEXT	ENDS
;	COMDAT text$x
text$x	SEGMENT
$L237134:
  00000	8b 45 ec	 mov	 eax, DWORD PTR __Wherenode$[ebp]
  00003	50		 push	 eax
  00004	8b 4d e8	 mov	 ecx, DWORD PTR $T237129[ebp]
  00007	51		 push	 ecx
  00008	e8 00 00 00 00	 call	 ??3@YAXPAX0@Z		; operator delete
  0000d	83 c4 08	 add	 esp, 8
  00010	c3		 ret	 0
__ehhandler$?_Buynode@?$_Tree@V?$_Tmap_traits@KV?$vector@U_VECINFO@@V?$allocator@U_VECINFO@@@std@@@std@@U?$less@K@2@V?$allocator@U?$pair@$$CBKV?$vector@U_VECINFO@@V?$allocator@U_VECINFO@@@std@@@std@@@std@@@2@$0A@@std@@@std@@IAEPAU_Node@?$_Tree_nod@V?$_Tmap_traits@KV?$vector@U_VECINFO@@V?$allocator@U_VECINFO@@@std@@@std@@U?$less@K@2@V?$allocator@U?$pair@$$CBKV?$vector@U_VECINFO@@V?$allocator@U_VECINFO@@@std@@@std@@@std@@@2@$0A@@std@@@2@PAU342@00ABU?$pair@$$CBKV?$vector@U_VECINFO@@V?$allocator@U_VECINFO@@@std@@@std@@@2@D@Z:
  00011	b8 00 00 00 00	 mov	 eax, OFFSET FLAT:$T237161
  00016	e9 00 00 00 00	 jmp	 ___CxxFrameHandler
text$x	ENDS
?_Buynode@?$_Tree@V?$_Tmap_traits@KV?$vector@U_VECINFO@@V?$allocator@U_VECINFO@@@std@@@std@@U?$less@K@2@V?$allocator@U?$pair@$$CBKV?$vector@U_VECINFO@@V?$allocator@U_VECINFO@@@std@@@std@@@std@@@2@$0A@@std@@@std@@IAEPAU_Node@?$_Tree_nod@V?$_Tmap_traits@KV?$vector@U_VECINFO@@V?$allocator@U_VECINFO@@@std@@@std@@U?$less@K@2@V?$allocator@U?$pair@$$CBKV?$vector@U_VECINFO@@V?$allocator@U_VECINFO@@@std@@@std@@@std@@@2@$0A@@std@@@2@PAU342@00ABU?$pair@$$CBKV?$vector@U_VECINFO@@V?$allocator@U_VECINFO@@@std@@@std@@@2@D@Z ENDP ; std::_Tree<std::_Tmap_traits<unsigned long,std::vector<_VECINFO,std::allocator<_VECINFO> >,std::less<unsigned long>,std::allocator<std::pair<unsigned long const ,std::vector<_VECINFO,std::allocator<_VECINFO> > > >,0> >::_Buynode
PUBLIC	??$_Destroy@U_Node@?$_Tree_nod@V?$_Tmap_traits@KV?$vector@U_VECINFO@@V?$allocator@U_VECINFO@@@std@@@std@@U?$less@K@2@V?$allocator@U?$pair@$$CBKV?$vector@U_VECINFO@@V?$allocator@U_VECINFO@@@std@@@std@@@std@@@2@$0A@@std@@@std@@@std@@YAXPAU_Node@?$_Tree_nod@V?$_Tmap_traits@KV?$vector@U_VECINFO@@V?$allocator@U_VECINFO@@@std@@@std@@U?$less@K@2@V?$allocator@U?$pair@$$CBKV?$vector@U_VECINFO@@V?$allocator@U_VECINFO@@@std@@@std@@@std@@@2@$0A@@std@@@0@@Z ; std::_Destroy<std::_Tree_nod<std::_Tmap_traits<unsigned long,std::vector<_VECINFO,std::allocator<_VECINFO> >,std::less<unsigned long>,std::allocator<std::pair<unsigned long const ,std::vector<_VECINFO,std::allocator<_VECINFO> > > >,0> >::_Node>
; Function compile flags: /Ogty
; File c:\program files\microsoft visual studio .net 2003\vc7\include\xmemory
;	COMDAT ??$_Destroy@U_Node@?$_Tree_nod@V?$_Tmap_traits@KV?$vector@U_VECINFO@@V?$allocator@U_VECINFO@@@std@@@std@@U?$less@K@2@V?$allocator@U?$pair@$$CBKV?$vector@U_VECINFO@@V?$allocator@U_VECINFO@@@std@@@std@@@std@@@2@$0A@@std@@@std@@@std@@YAXPAU_Node@?$_Tree_nod@V?$_Tmap_traits@KV?$vector@U_VECINFO@@V?$allocator@U_VECINFO@@@std@@@std@@U?$less@K@2@V?$allocator@U?$pair@$$CBKV?$vector@U_VECINFO@@V?$allocator@U_VECINFO@@@std@@@std@@@std@@@2@$0A@@std@@@0@@Z
_TEXT	SEGMENT
__Ptr$ = 8						; size = 4
??$_Destroy@U_Node@?$_Tree_nod@V?$_Tmap_traits@KV?$vector@U_VECINFO@@V?$allocator@U_VECINFO@@@std@@@std@@U?$less@K@2@V?$allocator@U?$pair@$$CBKV?$vector@U_VECINFO@@V?$allocator@U_VECINFO@@@std@@@std@@@std@@@2@$0A@@std@@@std@@@std@@YAXPAU_Node@?$_Tree_nod@V?$_Tmap_traits@KV?$vector@U_VECINFO@@V?$allocator@U_VECINFO@@@std@@@std@@U?$less@K@2@V?$allocator@U?$pair@$$CBKV?$vector@U_VECINFO@@V?$allocator@U_VECINFO@@@std@@@std@@@std@@@2@$0A@@std@@@0@@Z PROC NEAR ; std::_Destroy<std::_Tree_nod<std::_Tmap_traits<unsigned long,std::vector<_VECINFO,std::allocator<_VECINFO> >,std::less<unsigned long>,std::allocator<std::pair<unsigned long const ,std::vector<_VECINFO,std::allocator<_VECINFO> > > >,0> >::_Node>, COMDAT

; 49   : 	_DESTRUCTOR(_Ty, _Ptr);

  00000	8b 4c 24 04	 mov	 ecx, DWORD PTR __Ptr$[esp-4]
  00004	e9 00 00 00 00	 jmp	 ??1_Node@?$_Tree_nod@V?$_Tmap_traits@KV?$vector@U_VECINFO@@V?$allocator@U_VECINFO@@@std@@@std@@U?$less@K@2@V?$allocator@U?$pair@$$CBKV?$vector@U_VECINFO@@V?$allocator@U_VECINFO@@@std@@@std@@@std@@@2@$0A@@std@@@std@@QAE@XZ
??$_Destroy@U_Node@?$_Tree_nod@V?$_Tmap_traits@KV?$vector@U_VECINFO@@V?$allocator@U_VECINFO@@@std@@@std@@U?$less@K@2@V?$allocator@U?$pair@$$CBKV?$vector@U_VECINFO@@V?$allocator@U_VECINFO@@@std@@@std@@@std@@@2@$0A@@std@@@std@@@std@@YAXPAU_Node@?$_Tree_nod@V?$_Tmap_traits@KV?$vector@U_VECINFO@@V?$allocator@U_VECINFO@@@std@@@std@@U?$less@K@2@V?$allocator@U?$pair@$$CBKV?$vector@U_VECINFO@@V?$allocator@U_VECINFO@@@std@@@std@@@std@@@2@$0A@@std@@@0@@Z ENDP ; std::_Destroy<std::_Tree_nod<std::_Tmap_traits<unsigned long,std::vector<_VECINFO,std::allocator<_VECINFO> >,std::less<unsigned long>,std::allocator<std::pair<unsigned long const ,std::vector<_VECINFO,std::allocator<_VECINFO> > > >,0> >::_Node>
_TEXT	ENDS
PUBLIC	??_C@_0BE@JONHPENG@map?1set?$DMT?$DO?5too?5long?$AA@ ; `string'
PUBLIC	?_Insert@?$_Tree@V?$_Tmap_traits@KV?$vector@U_VECINFO@@V?$allocator@U_VECINFO@@@std@@@std@@U?$less@K@2@V?$allocator@U?$pair@$$CBKV?$vector@U_VECINFO@@V?$allocator@U_VECINFO@@@std@@@std@@@std@@@2@$0A@@std@@@std@@IAE?AViterator@12@_NPAU_Node@?$_Tree_nod@V?$_Tmap_traits@KV?$vector@U_VECINFO@@V?$allocator@U_VECINFO@@@std@@@std@@U?$less@K@2@V?$allocator@U?$pair@$$CBKV?$vector@U_VECINFO@@V?$allocator@U_VECINFO@@@std@@@std@@@std@@@2@$0A@@std@@@2@ABU?$pair@$$CBKV?$vector@U_VECINFO@@V?$allocator@U_VECINFO@@@std@@@std@@@2@@Z ; std::_Tree<std::_Tmap_traits<unsigned long,std::vector<_VECINFO,std::allocator<_VECINFO> >,std::less<unsigned long>,std::allocator<std::pair<unsigned long const ,std::vector<_VECINFO,std::allocator<_VECINFO> > > >,0> >::_Insert
;	COMDAT xdata$x
; File c:\program files\microsoft visual studio .net 2003\vc7\include\xtree
xdata$x	SEGMENT
$T237551 DD	0ffffffffH
	DD	FLAT:$L237181
$T237546 DD	019930520H
	DD	01H
	DD	FLAT:$T237551
	DD	2 DUP(00H)
	DD	2 DUP(00H)
xdata$x	ENDS
;	COMDAT ??_C@_0BE@JONHPENG@map?1set?$DMT?$DO?5too?5long?$AA@
CONST	SEGMENT
??_C@_0BE@JONHPENG@map?1set?$DMT?$DO?5too?5long?$AA@ DB 'map/set<T> too l'
	DB	'ong', 00H					; `string'
; Function compile flags: /Ogty
CONST	ENDS
;	COMDAT ?_Insert@?$_Tree@V?$_Tmap_traits@KV?$vector@U_VECINFO@@V?$allocator@U_VECINFO@@@std@@@std@@U?$less@K@2@V?$allocator@U?$pair@$$CBKV?$vector@U_VECINFO@@V?$allocator@U_VECINFO@@@std@@@std@@@std@@@2@$0A@@std@@@std@@IAE?AViterator@12@_NPAU_Node@?$_Tree_nod@V?$_Tmap_traits@KV?$vector@U_VECINFO@@V?$allocator@U_VECINFO@@@std@@@std@@U?$less@K@2@V?$allocator@U?$pair@$$CBKV?$vector@U_VECINFO@@V?$allocator@U_VECINFO@@@std@@@std@@@std@@@2@$0A@@std@@@2@ABU?$pair@$$CBKV?$vector@U_VECINFO@@V?$allocator@U_VECINFO@@@std@@@std@@@2@@Z
_TEXT	SEGMENT
$T237180 = -80						; size = 28
$T237179 = -52						; size = 40
__$EHRec$ = -12						; size = 12
___$ReturnUdt$ = 8					; size = 4
__Addleft$ = 12						; size = 1
__Wherenode$ = 16					; size = 4
__Newnode$ = 20						; size = 4
__Val$ = 20						; size = 4
?_Insert@?$_Tree@V?$_Tmap_traits@KV?$vector@U_VECINFO@@V?$allocator@U_VECINFO@@@std@@@std@@U?$less@K@2@V?$allocator@U?$pair@$$CBKV?$vector@U_VECINFO@@V?$allocator@U_VECINFO@@@std@@@std@@@std@@@2@$0A@@std@@@std@@IAE?AViterator@12@_NPAU_Node@?$_Tree_nod@V?$_Tmap_traits@KV?$vector@U_VECINFO@@V?$allocator@U_VECINFO@@@std@@@std@@U?$less@K@2@V?$allocator@U?$pair@$$CBKV?$vector@U_VECINFO@@V?$allocator@U_VECINFO@@@std@@@std@@@std@@@2@$0A@@std@@@2@ABU?$pair@$$CBKV?$vector@U_VECINFO@@V?$allocator@U_VECINFO@@@std@@@std@@@2@@Z PROC NEAR ; std::_Tree<std::_Tmap_traits<unsigned long,std::vector<_VECINFO,std::allocator<_VECINFO> >,std::less<unsigned long>,std::allocator<std::pair<unsigned long const ,std::vector<_VECINFO,std::allocator<_VECINFO> > > >,0> >::_Insert, COMDAT
; _this$ = ecx

; 911  : 		{	// add node with value next to _Wherenode, to left if _Addnode

  00000	64 a1 00 00 00
	00		 mov	 eax, DWORD PTR fs:__except_list
  00006	6a ff		 push	 -1
  00008	68 00 00 00 00	 push	 __ehhandler$?_Insert@?$_Tree@V?$_Tmap_traits@KV?$vector@U_VECINFO@@V?$allocator@U_VECINFO@@@std@@@std@@U?$less@K@2@V?$allocator@U?$pair@$$CBKV?$vector@U_VECINFO@@V?$allocator@U_VECINFO@@@std@@@std@@@std@@@2@$0A@@std@@@std@@IAE?AViterator@12@_NPAU_Node@?$_Tree_nod@V?$_Tmap_traits@KV?$vector@U_VECINFO@@V?$allocator@U_VECINFO@@@std@@@std@@U?$less@K@2@V?$allocator@U?$pair@$$CBKV?$vector@U_VECINFO@@V?$allocator@U_VECINFO@@@std@@@std@@@std@@@2@$0A@@std@@@2@ABU?$pair@$$CBKV?$vector@U_VECINFO@@V?$allocator@U_VECINFO@@@std@@@std@@@2@@Z
  0000d	50		 push	 eax
  0000e	64 89 25 00 00
	00 00		 mov	 DWORD PTR fs:__except_list, esp
  00015	83 ec 44	 sub	 esp, 68			; 00000044H
  00018	56		 push	 esi
  00019	57		 push	 edi
  0001a	8b f9		 mov	 edi, ecx

; 912  : 		if (max_size() - 1 <= _Mysize)

  0001c	81 7f 08 cb cc
	cc 0c		 cmp	 DWORD PTR [edi+8], 214748363 ; 0ccccccbH
  00023	72 4c		 jb	 SHORT $L226704

; 913  : 			_THROW(length_error, "map/set<T> too long");

  00025	6a 13		 push	 19			; 00000013H
  00027	33 f6		 xor	 esi, esi
  00029	68 00 00 00 00	 push	 OFFSET FLAT:??_C@_0BE@JONHPENG@map?1set?$DMT?$DO?5too?5long?$AA@
  0002e	8d 4c 24 10	 lea	 ecx, DWORD PTR $T237180[esp+96]
  00032	c7 44 24 28 0f
	00 00 00	 mov	 DWORD PTR $T237180[esp+120], 15 ; 0000000fH
  0003a	89 74 24 24	 mov	 DWORD PTR $T237180[esp+116], esi
  0003e	c6 44 24 14 00	 mov	 BYTE PTR $T237180[esp+100], 0
  00043	e8 00 00 00 00	 call	 ?assign@?$basic_string@DU?$char_traits@D@std@@V?$allocator@D@2@@std@@QAEAAV12@PBDI@Z ; std::basic_string<char,std::char_traits<char>,std::allocator<char> >::assign
  00048	8d 44 24 08	 lea	 eax, DWORD PTR $T237180[esp+88]
  0004c	50		 push	 eax
  0004d	8d 4c 24 28	 lea	 ecx, DWORD PTR $T237179[esp+92]
  00051	89 74 24 58	 mov	 DWORD PTR __$EHRec$[esp+100], esi
  00055	e8 00 00 00 00	 call	 ??0logic_error@std@@QAE@ABV?$basic_string@DU?$char_traits@D@std@@V?$allocator@D@2@@1@@Z ; std::logic_error::logic_error
  0005a	68 00 00 00 00	 push	 OFFSET FLAT:__TI3?AVlength_error@std@@
  0005f	8d 4c 24 28	 lea	 ecx, DWORD PTR $T237179[esp+92]
  00063	51		 push	 ecx
  00064	c7 44 24 2c 00
	00 00 00	 mov	 DWORD PTR $T237179[esp+96], OFFSET FLAT:??_7length_error@std@@6B@
  0006c	e8 00 00 00 00	 call	 __CxxThrowException@8
$L237552:
$L226704:

; 914  : 		_Nodeptr _Newnode = _Buynode(_Myhead, _Wherenode, _Myhead,
; 915  : 			_Val, _Red);

  00071	8b 54 24 68	 mov	 edx, DWORD PTR __Val$[esp+84]
  00075	8b 47 04	 mov	 eax, DWORD PTR [edi+4]
  00078	8b 74 24 64	 mov	 esi, DWORD PTR __Wherenode$[esp+84]
  0007c	53		 push	 ebx
  0007d	6a 00		 push	 0
  0007f	52		 push	 edx
  00080	50		 push	 eax
  00081	56		 push	 esi
  00082	50		 push	 eax
  00083	8b cf		 mov	 ecx, edi
  00085	e8 00 00 00 00	 call	 ?_Buynode@?$_Tree@V?$_Tmap_traits@KV?$vector@U_VECINFO@@V?$allocator@U_VECINFO@@@std@@@std@@U?$less@K@2@V?$allocator@U?$pair@$$CBKV?$vector@U_VECINFO@@V?$allocator@U_VECINFO@@@std@@@std@@@std@@@2@$0A@@std@@@std@@IAEPAU_Node@?$_Tree_nod@V?$_Tmap_traits@KV?$vector@U_VECINFO@@V?$allocator@U_VECINFO@@@std@@@std@@U?$less@K@2@V?$allocator@U?$pair@$$CBKV?$vector@U_VECINFO@@V?$allocator@U_VECINFO@@@std@@@std@@@std@@@2@$0A@@std@@@2@PAU342@00ABU?$pair@$$CBKV?$vector@U_VECINFO@@V?$allocator@U_VECINFO@@@std@@@std@@@2@D@Z ; std::_Tree<std::_Tmap_traits<unsigned long,std::vector<_VECINFO,std::allocator<_VECINFO> >,std::less<unsigned long>,std::allocator<std::pair<unsigned long const ,std::vector<_VECINFO,std::allocator<_VECINFO> > > >,0> >::_Buynode

; 916  : 
; 917  : 		++_Mysize;

  0008a	8b 5f 08	 mov	 ebx, DWORD PTR [edi+8]
  0008d	8b c8		 mov	 ecx, eax

; 918  : 		if (_Wherenode == _Myhead)

  0008f	8b 47 04	 mov	 eax, DWORD PTR [edi+4]
  00092	43		 inc	 ebx
  00093	3b f0		 cmp	 esi, eax
  00095	89 4c 24 6c	 mov	 DWORD PTR __Newnode$[esp+88], ecx
  00099	89 5f 08	 mov	 DWORD PTR [edi+8], ebx
  0009c	75 10		 jne	 SHORT $L226709

; 919  : 			{	// first node in tree, just set head values
; 920  : 			_Root() = _Newnode;

  0009e	89 48 04	 mov	 DWORD PTR [eax+4], ecx

; 921  : 			_Lmost() = _Newnode, _Rmost() = _Newnode;

  000a1	8b 47 04	 mov	 eax, DWORD PTR [edi+4]
  000a4	89 08		 mov	 DWORD PTR [eax], ecx
  000a6	8b 57 04	 mov	 edx, DWORD PTR [edi+4]
  000a9	89 4a 08	 mov	 DWORD PTR [edx+8], ecx

; 922  : 			}
; 923  : 		else if (_Addleft)

  000ac	eb 23		 jmp	 SHORT $L226714
$L226709:
  000ae	8a 44 24 64	 mov	 al, BYTE PTR __Addleft$[esp+88]
  000b2	84 c0		 test	 al, al
  000b4	74 0d		 je	 SHORT $L226711

; 924  : 			{	// add to left of _Wherenode
; 925  : 			_Left(_Wherenode) = _Newnode;

  000b6	89 0e		 mov	 DWORD PTR [esi], ecx

; 926  : 			if (_Wherenode == _Lmost())

  000b8	8b 47 04	 mov	 eax, DWORD PTR [edi+4]
  000bb	3b 30		 cmp	 esi, DWORD PTR [eax]
  000bd	75 12		 jne	 SHORT $L226714

; 927  : 				_Lmost() = _Newnode;

  000bf	89 08		 mov	 DWORD PTR [eax], ecx

; 928  : 			}
; 929  : 		else

  000c1	eb 0e		 jmp	 SHORT $L226714
$L226711:

; 930  : 			{	// add to right of _Wherenode
; 931  : 			_Right(_Wherenode) = _Newnode;

  000c3	89 4e 08	 mov	 DWORD PTR [esi+8], ecx

; 932  : 			if (_Wherenode == _Rmost())

  000c6	8b 47 04	 mov	 eax, DWORD PTR [edi+4]
  000c9	3b 70 08	 cmp	 esi, DWORD PTR [eax+8]
  000cc	75 03		 jne	 SHORT $L226714

; 933  : 				_Rmost() = _Newnode;

  000ce	89 48 08	 mov	 DWORD PTR [eax+8], ecx
$L226714:

; 934  : 			}
; 935  : 
; 936  : 		for (_Nodeptr _Pnode = _Newnode; _Color(_Parent(_Pnode)) == _Red; )

  000d1	8b 51 04	 mov	 edx, DWORD PTR [ecx+4]
  000d4	80 7a 20 00	 cmp	 BYTE PTR [edx+32], 0
  000d8	8d 41 04	 lea	 eax, DWORD PTR [ecx+4]
  000db	8b f1		 mov	 esi, ecx
  000dd	b3 01		 mov	 bl, 1
  000df	0f 85 a5 00 00
	00		 jne	 $L226718
  000e5	55		 push	 ebp
$L226717:

; 937  : 			if (_Parent(_Pnode) == _Left(_Parent(_Parent(_Pnode))))

  000e6	8b 08		 mov	 ecx, DWORD PTR [eax]
  000e8	8b 69 04	 mov	 ebp, DWORD PTR [ecx+4]
  000eb	8b 55 00	 mov	 edx, DWORD PTR [ebp]
  000ee	3b ca		 cmp	 ecx, edx
  000f0	75 50		 jne	 SHORT $L226719

; 938  : 				{	// fixup red-red in left subtree
; 939  : 				_Wherenode = _Right(_Parent(_Parent(_Pnode)));

  000f2	8b 55 08	 mov	 edx, DWORD PTR [ebp+8]

; 940  : 				if (_Color(_Wherenode) == _Red)

  000f5	80 7a 20 00	 cmp	 BYTE PTR [edx+32], 0
  000f9	75 18		 jne	 SHORT $L226720
$L237550:

; 941  : 					{	// parent has two red children, blacken both
; 942  : 					_Color(_Parent(_Pnode)) = _Black;

  000fb	8b 08		 mov	 ecx, DWORD PTR [eax]
  000fd	88 59 20	 mov	 BYTE PTR [ecx+32], bl

; 943  : 					_Color(_Wherenode) = _Black;

  00100	88 5a 20	 mov	 BYTE PTR [edx+32], bl

; 944  : 					_Color(_Parent(_Parent(_Pnode))) = _Red;

  00103	8b 10		 mov	 edx, DWORD PTR [eax]
  00105	8b 4a 04	 mov	 ecx, DWORD PTR [edx+4]
  00108	c6 41 20 00	 mov	 BYTE PTR [ecx+32], 0

; 945  : 					_Pnode = _Parent(_Parent(_Pnode));

  0010c	8b 10		 mov	 edx, DWORD PTR [eax]
  0010e	8b 72 04	 mov	 esi, DWORD PTR [edx+4]

; 946  : 					}
; 947  : 				else

  00111	eb 61		 jmp	 SHORT $L226725
$L226720:

; 948  : 					{	// parent has red and black children
; 949  : 					if (_Pnode == _Right(_Parent(_Pnode)))

  00113	3b 71 08	 cmp	 esi, DWORD PTR [ecx+8]
  00116	75 0a		 jne	 SHORT $L226722

; 950  : 						{	// rotate right child to left
; 951  : 						_Pnode = _Parent(_Pnode);

  00118	8b f1		 mov	 esi, ecx

; 952  : 						_Lrotate(_Pnode);

  0011a	56		 push	 esi
  0011b	8b cf		 mov	 ecx, edi
  0011d	e8 00 00 00 00	 call	 ?_Lrotate@?$_Tree@V?$_Tmap_traits@KV?$vector@U_VECINFO@@V?$allocator@U_VECINFO@@@std@@@std@@U?$less@K@2@V?$allocator@U?$pair@$$CBKV?$vector@U_VECINFO@@V?$allocator@U_VECINFO@@@std@@@std@@@std@@@2@$0A@@std@@@std@@IAEXPAU_Node@?$_Tree_nod@V?$_Tmap_traits@KV?$vector@U_VECINFO@@V?$allocator@U_VECINFO@@@std@@@std@@U?$less@K@2@V?$allocator@U?$pair@$$CBKV?$vector@U_VECINFO@@V?$allocator@U_VECINFO@@@std@@@std@@@std@@@2@$0A@@std@@@2@@Z ; std::_Tree<std::_Tmap_traits<unsigned long,std::vector<_VECINFO,std::allocator<_VECINFO> >,std::less<unsigned long>,std::allocator<std::pair<unsigned long const ,std::vector<_VECINFO,std::allocator<_VECINFO> > > >,0> >::_Lrotate
$L226722:

; 953  : 						}
; 954  : 					_Color(_Parent(_Pnode)) = _Black;	// propagate red up

  00122	8b 46 04	 mov	 eax, DWORD PTR [esi+4]
  00125	88 58 20	 mov	 BYTE PTR [eax+32], bl

; 955  : 					_Color(_Parent(_Parent(_Pnode))) = _Red;

  00128	8b 4e 04	 mov	 ecx, DWORD PTR [esi+4]
  0012b	8b 51 04	 mov	 edx, DWORD PTR [ecx+4]
  0012e	c6 42 20 00	 mov	 BYTE PTR [edx+32], 0

; 956  : 					_Rrotate(_Parent(_Parent(_Pnode)));

  00132	8b 46 04	 mov	 eax, DWORD PTR [esi+4]
  00135	8b 48 04	 mov	 ecx, DWORD PTR [eax+4]
  00138	51		 push	 ecx
  00139	8b cf		 mov	 ecx, edi
  0013b	e8 00 00 00 00	 call	 ?_Rrotate@?$_Tree@V?$_Tmap_traits@KV?$vector@U_VECINFO@@V?$allocator@U_VECINFO@@@std@@@std@@U?$less@K@2@V?$allocator@U?$pair@$$CBKV?$vector@U_VECINFO@@V?$allocator@U_VECINFO@@@std@@@std@@@std@@@2@$0A@@std@@@std@@IAEXPAU_Node@?$_Tree_nod@V?$_Tmap_traits@KV?$vector@U_VECINFO@@V?$allocator@U_VECINFO@@@std@@@std@@U?$less@K@2@V?$allocator@U?$pair@$$CBKV?$vector@U_VECINFO@@V?$allocator@U_VECINFO@@@std@@@std@@@std@@@2@$0A@@std@@@2@@Z ; std::_Tree<std::_Tmap_traits<unsigned long,std::vector<_VECINFO,std::allocator<_VECINFO> >,std::less<unsigned long>,std::allocator<std::pair<unsigned long const ,std::vector<_VECINFO,std::allocator<_VECINFO> > > >,0> >::_Rrotate

; 957  : 					}
; 958  : 				}
; 959  : 			else

  00140	eb 32		 jmp	 SHORT $L226725
$L226719:

; 960  : 				{	// fixup red-red in right subtree
; 961  : 				_Wherenode = _Left(_Parent(_Parent(_Pnode)));
; 962  : 				if (_Color(_Wherenode) == _Red)

  00142	80 7a 20 00	 cmp	 BYTE PTR [edx+32], 0

; 963  : 					{	// parent has two red children, blacken both
; 964  : 					_Color(_Parent(_Pnode)) = _Black;
; 965  : 					_Color(_Wherenode) = _Black;
; 966  : 					_Color(_Parent(_Parent(_Pnode))) = _Red;
; 967  : 					_Pnode = _Parent(_Parent(_Pnode));
; 968  : 					}
; 969  : 				else

  00146	74 b3		 je	 SHORT $L237550

; 970  : 					{	// parent has red and black children
; 971  : 					if (_Pnode == _Left(_Parent(_Pnode)))

  00148	3b 31		 cmp	 esi, DWORD PTR [ecx]
  0014a	75 0a		 jne	 SHORT $L226726

; 972  : 						{	// rotate left child to right
; 973  : 						_Pnode = _Parent(_Pnode);

  0014c	8b f1		 mov	 esi, ecx

; 974  : 						_Rrotate(_Pnode);

  0014e	56		 push	 esi
  0014f	8b cf		 mov	 ecx, edi
  00151	e8 00 00 00 00	 call	 ?_Rrotate@?$_Tree@V?$_Tmap_traits@KV?$vector@U_VECINFO@@V?$allocator@U_VECINFO@@@std@@@std@@U?$less@K@2@V?$allocator@U?$pair@$$CBKV?$vector@U_VECINFO@@V?$allocator@U_VECINFO@@@std@@@std@@@std@@@2@$0A@@std@@@std@@IAEXPAU_Node@?$_Tree_nod@V?$_Tmap_traits@KV?$vector@U_VECINFO@@V?$allocator@U_VECINFO@@@std@@@std@@U?$less@K@2@V?$allocator@U?$pair@$$CBKV?$vector@U_VECINFO@@V?$allocator@U_VECINFO@@@std@@@std@@@std@@@2@$0A@@std@@@2@@Z ; std::_Tree<std::_Tmap_traits<unsigned long,std::vector<_VECINFO,std::allocator<_VECINFO> >,std::less<unsigned long>,std::allocator<std::pair<unsigned long const ,std::vector<_VECINFO,std::allocator<_VECINFO> > > >,0> >::_Rrotate
$L226726:

; 975  : 						}
; 976  : 					_Color(_Parent(_Pnode)) = _Black;	// propagate red up

  00156	8b 46 04	 mov	 eax, DWORD PTR [esi+4]
  00159	88 58 20	 mov	 BYTE PTR [eax+32], bl

; 977  : 					_Color(_Parent(_Parent(_Pnode))) = _Red;

  0015c	8b 4e 04	 mov	 ecx, DWORD PTR [esi+4]
  0015f	8b 51 04	 mov	 edx, DWORD PTR [ecx+4]
  00162	c6 42 20 00	 mov	 BYTE PTR [edx+32], 0

; 978  : 					_Lrotate(_Parent(_Parent(_Pnode)));

  00166	8b 46 04	 mov	 eax, DWORD PTR [esi+4]
  00169	8b 48 04	 mov	 ecx, DWORD PTR [eax+4]
  0016c	51		 push	 ecx
  0016d	8b cf		 mov	 ecx, edi
  0016f	e8 00 00 00 00	 call	 ?_Lrotate@?$_Tree@V?$_Tmap_traits@KV?$vector@U_VECINFO@@V?$allocator@U_VECINFO@@@std@@@std@@U?$less@K@2@V?$allocator@U?$pair@$$CBKV?$vector@U_VECINFO@@V?$allocator@U_VECINFO@@@std@@@std@@@std@@@2@$0A@@std@@@std@@IAEXPAU_Node@?$_Tree_nod@V?$_Tmap_traits@KV?$vector@U_VECINFO@@V?$allocator@U_VECINFO@@@std@@@std@@U?$less@K@2@V?$allocator@U?$pair@$$CBKV?$vector@U_VECINFO@@V?$allocator@U_VECINFO@@@std@@@std@@@std@@@2@$0A@@std@@@2@@Z ; std::_Tree<std::_Tmap_traits<unsigned long,std::vector<_VECINFO,std::allocator<_VECINFO> >,std::less<unsigned long>,std::allocator<std::pair<unsigned long const ,std::vector<_VECINFO,std::allocator<_VECINFO> > > >,0> >::_Lrotate
$L226725:
  00174	8b 56 04	 mov	 edx, DWORD PTR [esi+4]
  00177	8a 4a 20	 mov	 cl, BYTE PTR [edx+32]
  0017a	84 c9		 test	 cl, cl
  0017c	8d 46 04	 lea	 eax, DWORD PTR [esi+4]
  0017f	0f 84 61 ff ff
	ff		 je	 $L226717
  00185	8b 4c 24 70	 mov	 ecx, DWORD PTR __Newnode$[esp+92]
  00189	5d		 pop	 ebp
$L226718:

; 979  : 					}
; 980  : 				}
; 981  : 
; 982  : 		_Color(_Root()) = _Black;	// root is always black

  0018a	8b 47 04	 mov	 eax, DWORD PTR [edi+4]
  0018d	8b 50 04	 mov	 edx, DWORD PTR [eax+4]

; 983  : 		return (_TREE_ITERATOR(_Newnode));

  00190	8b 44 24 60	 mov	 eax, DWORD PTR ___$ReturnUdt$[esp+88]
  00194	88 5a 20	 mov	 BYTE PTR [edx+32], bl
  00197	5b		 pop	 ebx
  00198	89 08		 mov	 DWORD PTR [eax], ecx

; 984  : 		}

  0019a	8b 4c 24 4c	 mov	 ecx, DWORD PTR __$EHRec$[esp+88]
  0019e	5f		 pop	 edi
  0019f	5e		 pop	 esi
  001a0	64 89 0d 00 00
	00 00		 mov	 DWORD PTR fs:__except_list, ecx
  001a7	83 c4 50	 add	 esp, 80			; 00000050H
  001aa	c2 10 00	 ret	 16			; 00000010H
$L237549:
_TEXT	ENDS
;	COMDAT text$x
text$x	SEGMENT
$L237181:
  00000	8d 4d b0	 lea	 ecx, DWORD PTR $T237180[ebp]
  00003	e9 00 00 00 00	 jmp	 ??1?$basic_string@DU?$char_traits@D@std@@V?$allocator@D@2@@std@@QAE@XZ ; std::basic_string<char,std::char_traits<char>,std::allocator<char> >::~basic_string<char,std::char_traits<char>,std::allocator<char> >
__ehhandler$?_Insert@?$_Tree@V?$_Tmap_traits@KV?$vector@U_VECINFO@@V?$allocator@U_VECINFO@@@std@@@std@@U?$less@K@2@V?$allocator@U?$pair@$$CBKV?$vector@U_VECINFO@@V?$allocator@U_VECINFO@@@std@@@std@@@std@@@2@$0A@@std@@@std@@IAE?AViterator@12@_NPAU_Node@?$_Tree_nod@V?$_Tmap_traits@KV?$vector@U_VECINFO@@V?$allocator@U_VECINFO@@@std@@@std@@U?$less@K@2@V?$allocator@U?$pair@$$CBKV?$vector@U_VECINFO@@V?$allocator@U_VECINFO@@@std@@@std@@@std@@@2@$0A@@std@@@2@ABU?$pair@$$CBKV?$vector@U_VECINFO@@V?$allocator@U_VECINFO@@@std@@@std@@@2@@Z:
  00008	b8 00 00 00 00	 mov	 eax, OFFSET FLAT:$T237546
  0000d	e9 00 00 00 00	 jmp	 ___CxxFrameHandler
text$x	ENDS
?_Insert@?$_Tree@V?$_Tmap_traits@KV?$vector@U_VECINFO@@V?$allocator@U_VECINFO@@@std@@@std@@U?$less@K@2@V?$allocator@U?$pair@$$CBKV?$vector@U_VECINFO@@V?$allocator@U_VECINFO@@@std@@@std@@@std@@@2@$0A@@std@@@std@@IAE?AViterator@12@_NPAU_Node@?$_Tree_nod@V?$_Tmap_traits@KV?$vector@U_VECINFO@@V?$allocator@U_VECINFO@@@std@@@std@@U?$less@K@2@V?$allocator@U?$pair@$$CBKV?$vector@U_VECINFO@@V?$allocator@U_VECINFO@@@std@@@std@@@std@@@2@$0A@@std@@@2@ABU?$pair@$$CBKV?$vector@U_VECINFO@@V?$allocator@U_VECINFO@@@std@@@std@@@2@@Z ENDP ; std::_Tree<std::_Tmap_traits<unsigned long,std::vector<_VECINFO,std::allocator<_VECINFO> >,std::less<unsigned long>,std::allocator<std::pair<unsigned long const ,std::vector<_VECINFO,std::allocator<_VECINFO> > > >,0> >::_Insert
PUBLIC	?destroy@?$allocator@U_Node@?$_Tree_nod@V?$_Tmap_traits@KV?$vector@U_VECINFO@@V?$allocator@U_VECINFO@@@std@@@std@@U?$less@K@2@V?$allocator@U?$pair@$$CBKV?$vector@U_VECINFO@@V?$allocator@U_VECINFO@@@std@@@std@@@std@@@2@$0A@@std@@@std@@@std@@QAEXPAU_Node@?$_Tree_nod@V?$_Tmap_traits@KV?$vector@U_VECINFO@@V?$allocator@U_VECINFO@@@std@@@std@@U?$less@K@2@V?$allocator@U?$pair@$$CBKV?$vector@U_VECINFO@@V?$allocator@U_VECINFO@@@std@@@std@@@std@@@2@$0A@@std@@@2@@Z ; std::allocator<std::_Tree_nod<std::_Tmap_traits<unsigned long,std::vector<_VECINFO,std::allocator<_VECINFO> >,std::less<unsigned long>,std::allocator<std::pair<unsigned long const ,std::vector<_VECINFO,std::allocator<_VECINFO> > > >,0> >::_Node>::destroy
; Function compile flags: /Ogty
; File c:\program files\microsoft visual studio .net 2003\vc7\include\xmemory
;	COMDAT ?destroy@?$allocator@U_Node@?$_Tree_nod@V?$_Tmap_traits@KV?$vector@U_VECINFO@@V?$allocator@U_VECINFO@@@std@@@std@@U?$less@K@2@V?$allocator@U?$pair@$$CBKV?$vector@U_VECINFO@@V?$allocator@U_VECINFO@@@std@@@std@@@std@@@2@$0A@@std@@@std@@@std@@QAEXPAU_Node@?$_Tree_nod@V?$_Tmap_traits@KV?$vector@U_VECINFO@@V?$allocator@U_VECINFO@@@std@@@std@@U?$less@K@2@V?$allocator@U?$pair@$$CBKV?$vector@U_VECINFO@@V?$allocator@U_VECINFO@@@std@@@std@@@std@@@2@$0A@@std@@@2@@Z
_TEXT	SEGMENT
__Ptr$ = 8						; size = 4
?destroy@?$allocator@U_Node@?$_Tree_nod@V?$_Tmap_traits@KV?$vector@U_VECINFO@@V?$allocator@U_VECINFO@@@std@@@std@@U?$less@K@2@V?$allocator@U?$pair@$$CBKV?$vector@U_VECINFO@@V?$allocator@U_VECINFO@@@std@@@std@@@std@@@2@$0A@@std@@@std@@@std@@QAEXPAU_Node@?$_Tree_nod@V?$_Tmap_traits@KV?$vector@U_VECINFO@@V?$allocator@U_VECINFO@@@std@@@std@@U?$less@K@2@V?$allocator@U?$pair@$$CBKV?$vector@U_VECINFO@@V?$allocator@U_VECINFO@@@std@@@std@@@std@@@2@$0A@@std@@@2@@Z PROC NEAR ; std::allocator<std::_Tree_nod<std::_Tmap_traits<unsigned long,std::vector<_VECINFO,std::allocator<_VECINFO> >,std::less<unsigned long>,std::allocator<std::pair<unsigned long const ,std::vector<_VECINFO,std::allocator<_VECINFO> > > >,0> >::_Node>::destroy, COMDAT
; _this$ = ecx

; 152  : 		_Destroy(_Ptr);

  00000	8b 4c 24 04	 mov	 ecx, DWORD PTR __Ptr$[esp-4]
  00004	e8 00 00 00 00	 call	 ??1_Node@?$_Tree_nod@V?$_Tmap_traits@KV?$vector@U_VECINFO@@V?$allocator@U_VECINFO@@@std@@@std@@U?$less@K@2@V?$allocator@U?$pair@$$CBKV?$vector@U_VECINFO@@V?$allocator@U_VECINFO@@@std@@@std@@@std@@@2@$0A@@std@@@std@@QAE@XZ

; 153  : 		}

  00009	c2 04 00	 ret	 4
?destroy@?$allocator@U_Node@?$_Tree_nod@V?$_Tmap_traits@KV?$vector@U_VECINFO@@V?$allocator@U_VECINFO@@@std@@@std@@U?$less@K@2@V?$allocator@U?$pair@$$CBKV?$vector@U_VECINFO@@V?$allocator@U_VECINFO@@@std@@@std@@@std@@@2@$0A@@std@@@std@@@std@@QAEXPAU_Node@?$_Tree_nod@V?$_Tmap_traits@KV?$vector@U_VECINFO@@V?$allocator@U_VECINFO@@@std@@@std@@U?$less@K@2@V?$allocator@U?$pair@$$CBKV?$vector@U_VECINFO@@V?$allocator@U_VECINFO@@@std@@@std@@@std@@@2@$0A@@std@@@2@@Z ENDP ; std::allocator<std::_Tree_nod<std::_Tmap_traits<unsigned long,std::vector<_VECINFO,std::allocator<_VECINFO> >,std::less<unsigned long>,std::allocator<std::pair<unsigned long const ,std::vector<_VECINFO,std::allocator<_VECINFO> > > >,0> >::_Node>::destroy
_TEXT	ENDS
PUBLIC	?erase@?$_Tree@V?$_Tmap_traits@KV?$vector@U_VECINFO@@V?$allocator@U_VECINFO@@@std@@@std@@U?$less@K@2@V?$allocator@U?$pair@$$CBKV?$vector@U_VECINFO@@V?$allocator@U_VECINFO@@@std@@@std@@@std@@@2@$0A@@std@@@std@@QAE?AViterator@12@V312@@Z ; std::_Tree<std::_Tmap_traits<unsigned long,std::vector<_VECINFO,std::allocator<_VECINFO> >,std::less<unsigned long>,std::allocator<std::pair<unsigned long const ,std::vector<_VECINFO,std::allocator<_VECINFO> > > >,0> >::erase
;	COMDAT xdata$x
xdata$x	SEGMENT
$T238440 DD	0ffffffffH
	DD	FLAT:$L237577
$T238430 DD	019930520H
	DD	01H
	DD	FLAT:$T238440
	DD	2 DUP(00H)
	DD	2 DUP(00H)
; Function compile flags: /Ogty
; File c:\program files\microsoft visual studio .net 2003\vc7\include\xtree
xdata$x	ENDS
;	COMDAT ?erase@?$_Tree@V?$_Tmap_traits@KV?$vector@U_VECINFO@@V?$allocator@U_VECINFO@@@std@@@std@@U?$less@K@2@V?$allocator@U?$pair@$$CBKV?$vector@U_VECINFO@@V?$allocator@U_VECINFO@@@std@@@std@@@std@@@2@$0A@@std@@@std@@QAE?AViterator@12@V312@@Z
_TEXT	SEGMENT
_this$ = -84						; size = 4
$T237572 = -80						; size = 28
$T237571 = -52						; size = 40
__$EHRec$ = -12						; size = 12
___$ReturnUdt$ = 8					; size = 4
__Where$ = 12						; size = 4
?erase@?$_Tree@V?$_Tmap_traits@KV?$vector@U_VECINFO@@V?$allocator@U_VECINFO@@@std@@@std@@U?$less@K@2@V?$allocator@U?$pair@$$CBKV?$vector@U_VECINFO@@V?$allocator@U_VECINFO@@@std@@@std@@@std@@@2@$0A@@std@@@std@@QAE?AViterator@12@V312@@Z PROC NEAR ; std::_Tree<std::_Tmap_traits<unsigned long,std::vector<_VECINFO,std::allocator<_VECINFO> >,std::less<unsigned long>,std::allocator<std::pair<unsigned long const ,std::vector<_VECINFO,std::allocator<_VECINFO> > > >,0> >::erase, COMDAT
; _this$ = ecx

; 590  : 		{	// erase element at _Where

  00000	6a ff		 push	 -1
  00002	68 00 00 00 00	 push	 __ehhandler$?erase@?$_Tree@V?$_Tmap_traits@KV?$vector@U_VECINFO@@V?$allocator@U_VECINFO@@@std@@@std@@U?$less@K@2@V?$allocator@U?$pair@$$CBKV?$vector@U_VECINFO@@V?$allocator@U_VECINFO@@@std@@@std@@@std@@@2@$0A@@std@@@std@@QAE?AViterator@12@V312@@Z
  00007	64 a1 00 00 00
	00		 mov	 eax, DWORD PTR fs:__except_list
  0000d	50		 push	 eax
  0000e	64 89 25 00 00
	00 00		 mov	 DWORD PTR fs:__except_list, esp
  00015	83 ec 48	 sub	 esp, 72			; 00000048H

; 591  : 		if (_Isnil(_Where._Mynode()))

  00018	8b 44 24 5c	 mov	 eax, DWORD PTR __Where$[esp+80]
  0001c	53		 push	 ebx
  0001d	8b d9		 mov	 ebx, ecx
  0001f	8a 48 21	 mov	 cl, BYTE PTR [eax+33]
  00022	84 c9		 test	 cl, cl
  00024	56		 push	 esi
  00025	89 5c 24 08	 mov	 DWORD PTR _this$[esp+92], ebx
  00029	74 4c		 je	 SHORT $L227143

; 592  : 			_THROW(out_of_range, "invalid map/set<T> iterator");

  0002b	6a 1b		 push	 27			; 0000001bH
  0002d	33 f6		 xor	 esi, esi
  0002f	68 00 00 00 00	 push	 OFFSET FLAT:??_C@_0BM@PAPJHAGI@invalid?5map?1set?$DMT?$DO?5iterator?$AA@
  00034	8d 4c 24 14	 lea	 ecx, DWORD PTR $T237572[esp+100]
  00038	c7 44 24 2c 0f
	00 00 00	 mov	 DWORD PTR $T237572[esp+124], 15 ; 0000000fH
  00040	89 74 24 28	 mov	 DWORD PTR $T237572[esp+120], esi
  00044	c6 44 24 18 00	 mov	 BYTE PTR $T237572[esp+104], 0
  00049	e8 00 00 00 00	 call	 ?assign@?$basic_string@DU?$char_traits@D@std@@V?$allocator@D@2@@std@@QAEAAV12@PBDI@Z ; std::basic_string<char,std::char_traits<char>,std::allocator<char> >::assign
  0004e	8d 44 24 0c	 lea	 eax, DWORD PTR $T237572[esp+92]
  00052	50		 push	 eax
  00053	8d 4c 24 2c	 lea	 ecx, DWORD PTR $T237571[esp+96]
  00057	89 74 24 5c	 mov	 DWORD PTR __$EHRec$[esp+104], esi
  0005b	e8 00 00 00 00	 call	 ??0logic_error@std@@QAE@ABV?$basic_string@DU?$char_traits@D@std@@V?$allocator@D@2@@1@@Z ; std::logic_error::logic_error
  00060	68 00 00 00 00	 push	 OFFSET FLAT:__TI3?AVout_of_range@std@@
  00065	8d 4c 24 2c	 lea	 ecx, DWORD PTR $T237571[esp+96]
  00069	51		 push	 ecx
  0006a	c7 44 24 30 00
	00 00 00	 mov	 DWORD PTR $T237571[esp+100], OFFSET FLAT:??_7out_of_range@std@@6B@
  00072	e8 00 00 00 00	 call	 __CxxThrowException@8
$L238441:
$L227143:
  00077	55		 push	 ebp
  00078	57		 push	 edi

; 593  : 		_Nodeptr _Erasednode = _Where._Mynode();	// node to erase
; 594  : 		++_Where;	// save successor iterator for return

  00079	8d 4c 24 6c	 lea	 ecx, DWORD PTR __Where$[esp+96]
  0007d	8b e8		 mov	 ebp, eax
  0007f	e8 00 00 00 00	 call	 ?_Inc@const_iterator@?$_Tree@V?$_Tmap_traits@KV?$vector@U_VECINFO@@V?$allocator@U_VECINFO@@@std@@@std@@U?$less@K@2@V?$allocator@U?$pair@$$CBKV?$vector@U_VECINFO@@V?$allocator@U_VECINFO@@@std@@@std@@@std@@@2@$0A@@std@@@std@@QAEXXZ ; std::_Tree<std::_Tmap_traits<unsigned long,std::vector<_VECINFO,std::allocator<_VECINFO> >,std::less<unsigned long>,std::allocator<std::pair<unsigned long const ,std::vector<_VECINFO,std::allocator<_VECINFO> > > >,0> >::const_iterator::_Inc

; 595  : 
; 596  : 		_Nodeptr _Fixnode;	// the node to recolor as needed
; 597  : 		_Nodeptr _Fixnodeparent;	// parent of _Fixnode (which may be nil)
; 598  : 		_Nodeptr _Pnode = _Erasednode;
; 599  : 
; 600  : 		if (_Isnil(_Left(_Pnode)))

  00084	8b 45 00	 mov	 eax, DWORD PTR [ebp]
  00087	8a 48 21	 mov	 cl, BYTE PTR [eax+33]
  0008a	84 c9		 test	 cl, cl
  0008c	74 05		 je	 SHORT $L227151

; 601  : 			_Fixnode = _Right(_Pnode);	// must stitch up right subtree

  0008e	8b 7d 08	 mov	 edi, DWORD PTR [ebp+8]

; 602  : 		else if (_Isnil(_Right(_Pnode)))

  00091	eb 19		 jmp	 SHORT $L238435
$L227151:
  00093	8b 55 08	 mov	 edx, DWORD PTR [ebp+8]
  00096	8a 4a 21	 mov	 cl, BYTE PTR [edx+33]
  00099	84 c9		 test	 cl, cl
  0009b	74 04		 je	 SHORT $L227153

; 603  : 			_Fixnode = _Left(_Pnode);	// must stitch up left subtree

  0009d	8b f8		 mov	 edi, eax

; 604  : 		else

  0009f	eb 0b		 jmp	 SHORT $L238435
$L227153:

; 605  : 			{	// two subtrees, must lift successor node to replace erased
; 606  : 			_Pnode = _Where._Mynode();	// _Pnode is successor node
; 607  : 			_Fixnode = _Right(_Pnode);	// _Fixnode is its only subtree

  000a1	8b 4c 24 6c	 mov	 ecx, DWORD PTR __Where$[esp+96]

; 608  : 			}
; 609  : 
; 610  : 		if (_Pnode == _Erasednode)

  000a5	3b cd		 cmp	 ecx, ebp
  000a7	8b 79 08	 mov	 edi, DWORD PTR [ecx+8]
  000aa	75 6a		 jne	 SHORT $L227155
$L238435:

; 611  : 			{	// at most one subtree, relink it
; 612  : 			_Fixnodeparent = _Parent(_Erasednode);
; 613  : 			if (!_Isnil(_Fixnode))

  000ac	8a 47 21	 mov	 al, BYTE PTR [edi+33]
  000af	84 c0		 test	 al, al
  000b1	8b 75 04	 mov	 esi, DWORD PTR [ebp+4]
  000b4	75 03		 jne	 SHORT $L227156

; 614  : 				_Parent(_Fixnode) = _Fixnodeparent;	// link up

  000b6	89 77 04	 mov	 DWORD PTR [edi+4], esi
$L227156:

; 615  : 
; 616  : 			if (_Root() == _Erasednode)

  000b9	8b 43 04	 mov	 eax, DWORD PTR [ebx+4]
  000bc	39 68 04	 cmp	 DWORD PTR [eax+4], ebp
  000bf	75 05		 jne	 SHORT $L227157

; 617  : 				_Root() = _Fixnode;	// link down from root

  000c1	89 78 04	 mov	 DWORD PTR [eax+4], edi

; 618  : 			else if (_Left(_Fixnodeparent) == _Erasednode)

  000c4	eb 0b		 jmp	 SHORT $L227160
$L227157:
  000c6	39 2e		 cmp	 DWORD PTR [esi], ebp
  000c8	75 04		 jne	 SHORT $L227159

; 619  : 				_Left(_Fixnodeparent) = _Fixnode;	// link down to left

  000ca	89 3e		 mov	 DWORD PTR [esi], edi

; 620  : 			else

  000cc	eb 03		 jmp	 SHORT $L227160
$L227159:

; 621  : 				_Right(_Fixnodeparent) = _Fixnode;	// link down to right

  000ce	89 7e 08	 mov	 DWORD PTR [esi+8], edi
$L227160:

; 622  : 
; 623  : 			if (_Lmost() == _Erasednode)

  000d1	8b 5b 04	 mov	 ebx, DWORD PTR [ebx+4]
  000d4	39 2b		 cmp	 DWORD PTR [ebx], ebp
  000d6	75 16		 jne	 SHORT $L227161

; 624  : 				_Lmost() = _Isnil(_Fixnode)
; 625  : 					? _Fixnodeparent	// smallest is parent of erased node
; 626  : 					: _Min(_Fixnode);	// smallest in relinked subtree

  000d8	8a 47 21	 mov	 al, BYTE PTR [edi+33]
  000db	84 c0		 test	 al, al
  000dd	74 04		 je	 SHORT $L237573
  000df	8b c6		 mov	 eax, esi
  000e1	eb 09		 jmp	 SHORT $L237574
$L237573:
  000e3	57		 push	 edi
  000e4	e8 00 00 00 00	 call	 ?_Min@?$_Tree@V?$_Tmap_traits@KV?$vector@U_VECINFO@@V?$allocator@U_VECINFO@@@std@@@std@@U?$less@K@2@V?$allocator@U?$pair@$$CBKV?$vector@U_VECINFO@@V?$allocator@U_VECINFO@@@std@@@std@@@std@@@2@$0A@@std@@@std@@KAPAU_Node@?$_Tree_nod@V?$_Tmap_traits@KV?$vector@U_VECINFO@@V?$allocator@U_VECINFO@@@std@@@std@@U?$less@K@2@V?$allocator@U?$pair@$$CBKV?$vector@U_VECINFO@@V?$allocator@U_VECINFO@@@std@@@std@@@std@@@2@$0A@@std@@@2@PAU342@@Z ; std::_Tree<std::_Tmap_traits<unsigned long,std::vector<_VECINFO,std::allocator<_VECINFO> >,std::less<unsigned long>,std::allocator<std::pair<unsigned long const ,std::vector<_VECINFO,std::allocator<_VECINFO> > > >,0> >::_Min
  000e9	83 c4 04	 add	 esp, 4
$L237574:
  000ec	89 03		 mov	 DWORD PTR [ebx], eax
$L227161:

; 627  : 
; 628  : 			if (_Rmost() == _Erasednode)

  000ee	8b 44 24 10	 mov	 eax, DWORD PTR _this$[esp+100]
  000f2	8b 58 04	 mov	 ebx, DWORD PTR [eax+4]
  000f5	39 6b 08	 cmp	 DWORD PTR [ebx+8], ebp
  000f8	75 75		 jne	 SHORT $L237892

; 629  : 				_Rmost() = _Isnil(_Fixnode)
; 630  : 					? _Fixnodeparent	// largest is parent of erased node
; 631  : 					: _Max(_Fixnode);	// largest in relinked subtree

  000fa	8a 47 21	 mov	 al, BYTE PTR [edi+33]
  000fd	84 c0		 test	 al, al
  000ff	74 07		 je	 SHORT $L237575
  00101	8b c6		 mov	 eax, esi
  00103	89 43 08	 mov	 DWORD PTR [ebx+8], eax

; 632  : 			}
; 633  : 		else

  00106	eb 67		 jmp	 SHORT $L237892
$L237575:

; 629  : 				_Rmost() = _Isnil(_Fixnode)
; 630  : 					? _Fixnodeparent	// largest is parent of erased node
; 631  : 					: _Max(_Fixnode);	// largest in relinked subtree

  00108	57		 push	 edi
  00109	e8 00 00 00 00	 call	 ?_Max@?$_Tree@V?$_Tmap_traits@KV?$vector@U_VECINFO@@V?$allocator@U_VECINFO@@@std@@@std@@U?$less@K@2@V?$allocator@U?$pair@$$CBKV?$vector@U_VECINFO@@V?$allocator@U_VECINFO@@@std@@@std@@@std@@@2@$0A@@std@@@std@@KAPAU_Node@?$_Tree_nod@V?$_Tmap_traits@KV?$vector@U_VECINFO@@V?$allocator@U_VECINFO@@@std@@@std@@U?$less@K@2@V?$allocator@U?$pair@$$CBKV?$vector@U_VECINFO@@V?$allocator@U_VECINFO@@@std@@@std@@@std@@@2@$0A@@std@@@2@PAU342@@Z ; std::_Tree<std::_Tmap_traits<unsigned long,std::vector<_VECINFO,std::allocator<_VECINFO> >,std::less<unsigned long>,std::allocator<std::pair<unsigned long const ,std::vector<_VECINFO,std::allocator<_VECINFO> > > >,0> >::_Max
  0010e	83 c4 04	 add	 esp, 4
  00111	89 43 08	 mov	 DWORD PTR [ebx+8], eax

; 632  : 			}
; 633  : 		else

  00114	eb 59		 jmp	 SHORT $L237892
$L227155:

; 634  : 			{	// erased has two subtrees, _Pnode is successor to erased
; 635  : 			_Parent(_Left(_Erasednode)) = _Pnode;	// link left up

  00116	89 48 04	 mov	 DWORD PTR [eax+4], ecx

; 636  : 			_Left(_Pnode) = _Left(_Erasednode);	// link successor down

  00119	8b 55 00	 mov	 edx, DWORD PTR [ebp]
  0011c	89 11		 mov	 DWORD PTR [ecx], edx

; 637  : 
; 638  : 			if (_Pnode == _Right(_Erasednode))

  0011e	3b 4d 08	 cmp	 ecx, DWORD PTR [ebp+8]
  00121	75 04		 jne	 SHORT $L227164

; 639  : 				_Fixnodeparent = _Pnode;	// successor is next to erased

  00123	8b f1		 mov	 esi, ecx

; 640  : 			else

  00125	eb 1b		 jmp	 SHORT $L227165
$L227164:

; 641  : 				{	// successor further down, link in place of erased
; 642  : 				_Fixnodeparent = _Parent(_Pnode);	// parent is successor's
; 643  : 				if (!_Isnil(_Fixnode))

  00127	8a 47 21	 mov	 al, BYTE PTR [edi+33]
  0012a	84 c0		 test	 al, al
  0012c	8b 71 04	 mov	 esi, DWORD PTR [ecx+4]
  0012f	75 03		 jne	 SHORT $L227166

; 644  : 					_Parent(_Fixnode) = _Fixnodeparent;	// link fix up

  00131	89 77 04	 mov	 DWORD PTR [edi+4], esi
$L227166:

; 645  : 				_Left(_Fixnodeparent) = _Fixnode;	// link fix down

  00134	89 3e		 mov	 DWORD PTR [esi], edi

; 646  : 				_Right(_Pnode) = _Right(_Erasednode);	// link successor down

  00136	8b 45 08	 mov	 eax, DWORD PTR [ebp+8]
  00139	89 41 08	 mov	 DWORD PTR [ecx+8], eax

; 647  : 				_Parent(_Right(_Erasednode)) = _Pnode;	// link right up

  0013c	8b 55 08	 mov	 edx, DWORD PTR [ebp+8]
  0013f	89 4a 04	 mov	 DWORD PTR [edx+4], ecx
$L227165:

; 648  : 				}
; 649  : 
; 650  : 			if (_Root() == _Erasednode)

  00142	8b 43 04	 mov	 eax, DWORD PTR [ebx+4]
  00145	39 68 04	 cmp	 DWORD PTR [eax+4], ebp
  00148	75 05		 jne	 SHORT $L227167

; 651  : 				_Root() = _Pnode;	// link down from root

  0014a	89 48 04	 mov	 DWORD PTR [eax+4], ecx

; 652  : 			else if (_Left(_Parent(_Erasednode)) == _Erasednode)

  0014d	eb 0e		 jmp	 SHORT $L227170
$L227167:
  0014f	8b 45 04	 mov	 eax, DWORD PTR [ebp+4]
  00152	39 28		 cmp	 DWORD PTR [eax], ebp
  00154	75 04		 jne	 SHORT $L227169

; 653  : 				_Left(_Parent(_Erasednode)) = _Pnode;	// link down to left

  00156	89 08		 mov	 DWORD PTR [eax], ecx

; 654  : 			else

  00158	eb 03		 jmp	 SHORT $L227170
$L227169:

; 655  : 				_Right(_Parent(_Erasednode)) = _Pnode;	// link down to right

  0015a	89 48 08	 mov	 DWORD PTR [eax+8], ecx
$L227170:

; 656  : 
; 657  : 			_Parent(_Pnode) = _Parent(_Erasednode);	// link successor up

  0015d	8b 45 04	 mov	 eax, DWORD PTR [ebp+4]
  00160	89 41 04	 mov	 DWORD PTR [ecx+4], eax

; 658  : 			std::swap(_Color(_Pnode), _Color(_Erasednode));	// recolor it

  00163	8a 55 20	 mov	 dl, BYTE PTR [ebp+32]
  00166	8a 41 20	 mov	 al, BYTE PTR [ecx+32]
  00169	88 51 20	 mov	 BYTE PTR [ecx+32], dl
  0016c	88 45 20	 mov	 BYTE PTR [ebp+32], al
$L237892:

; 659  : 			}
; 660  : 
; 661  : 		if (_Color(_Erasednode) == _Black)

  0016f	8a 45 20	 mov	 al, BYTE PTR [ebp+32]
  00172	b3 01		 mov	 bl, 1
  00174	3a c3		 cmp	 al, bl
  00176	0f 85 09 01 00
	00		 jne	 $L227171

; 662  : 			{	// erasing black link, must recolor/rebalance tree
; 663  : 			for (; _Fixnode != _Root() && _Color(_Fixnode) == _Black;
; 664  : 				_Fixnodeparent = _Parent(_Fixnode))

  0017c	8b 4c 24 10	 mov	 ecx, DWORD PTR _this$[esp+100]
  00180	8b 41 04	 mov	 eax, DWORD PTR [ecx+4]
  00183	3b 78 04	 cmp	 edi, DWORD PTR [eax+4]
  00186	0f 84 f6 00 00
	00		 je	 $L227174
  0018c	8d 64 24 00	 npad	 4
$L227172:
  00190	38 5f 20	 cmp	 BYTE PTR [edi+32], bl
  00193	0f 85 e9 00 00
	00		 jne	 $L227174

; 665  : 				if (_Fixnode == _Left(_Fixnodeparent))

  00199	8b 06		 mov	 eax, DWORD PTR [esi]
  0019b	3b f8		 cmp	 edi, eax
  0019d	75 69		 jne	 SHORT $L227175

; 666  : 					{	// fixup left subtree
; 667  : 					_Pnode = _Right(_Fixnodeparent);

  0019f	8b 46 08	 mov	 eax, DWORD PTR [esi+8]

; 668  : 					if (_Color(_Pnode) == _Red)

  001a2	8a 50 20	 mov	 dl, BYTE PTR [eax+32]
  001a5	84 d2		 test	 dl, dl
  001a7	75 14		 jne	 SHORT $L227176

; 669  : 						{	// rotate red up from right subtree
; 670  : 						_Color(_Pnode) = _Black;

  001a9	88 58 20	 mov	 BYTE PTR [eax+32], bl

; 671  : 						_Color(_Fixnodeparent) = _Red;
; 672  : 						_Lrotate(_Fixnodeparent);

  001ac	56		 push	 esi
  001ad	c6 46 20 00	 mov	 BYTE PTR [esi+32], 0
  001b1	e8 00 00 00 00	 call	 ?_Lrotate@?$_Tree@V?$_Tmap_traits@KV?$vector@U_VECINFO@@V?$allocator@U_VECINFO@@@std@@@std@@U?$less@K@2@V?$allocator@U?$pair@$$CBKV?$vector@U_VECINFO@@V?$allocator@U_VECINFO@@@std@@@std@@@std@@@2@$0A@@std@@@std@@IAEXPAU_Node@?$_Tree_nod@V?$_Tmap_traits@KV?$vector@U_VECINFO@@V?$allocator@U_VECINFO@@@std@@@std@@U?$less@K@2@V?$allocator@U?$pair@$$CBKV?$vector@U_VECINFO@@V?$allocator@U_VECINFO@@@std@@@std@@@std@@@2@$0A@@std@@@2@@Z ; std::_Tree<std::_Tmap_traits<unsigned long,std::vector<_VECINFO,std::allocator<_VECINFO> >,std::less<unsigned long>,std::allocator<std::pair<unsigned long const ,std::vector<_VECINFO,std::allocator<_VECINFO> > > >,0> >::_Lrotate

; 673  : 						_Pnode = _Right(_Fixnodeparent);

  001b6	8b 46 08	 mov	 eax, DWORD PTR [esi+8]
  001b9	8b 4c 24 10	 mov	 ecx, DWORD PTR _this$[esp+100]
$L227176:

; 674  : 						}
; 675  : 
; 676  : 					if (_Isnil(_Pnode))

  001bd	8a 50 21	 mov	 dl, BYTE PTR [eax+33]
  001c0	84 d2		 test	 dl, dl

; 677  : 						_Fixnode = _Fixnodeparent;	// shouldn't happen
; 678  : 					else if (_Color(_Left(_Pnode)) == _Black

  001c2	75 78		 jne	 SHORT $L238438

; 679  : 						&& _Color(_Right(_Pnode)) == _Black)

  001c4	8b 10		 mov	 edx, DWORD PTR [eax]
  001c6	38 5a 20	 cmp	 BYTE PTR [edx+32], bl
  001c9	75 08		 jne	 SHORT $L227179
  001cb	8b 50 08	 mov	 edx, DWORD PTR [eax+8]
  001ce	38 5a 20	 cmp	 BYTE PTR [edx+32], bl
  001d1	74 65		 je	 SHORT $L238439
$L227179:

; 680  : 						{	// redden right subtree with black children
; 681  : 						_Color(_Pnode) = _Red;
; 682  : 						_Fixnode = _Fixnodeparent;
; 683  : 						}
; 684  : 					else
; 685  : 						{	// must rearrange right subtree
; 686  : 						if (_Color(_Right(_Pnode)) == _Black)

  001d3	8b 50 08	 mov	 edx, DWORD PTR [eax+8]
  001d6	38 5a 20	 cmp	 BYTE PTR [edx+32], bl
  001d9	75 16		 jne	 SHORT $L227181

; 687  : 							{	// rotate red up from left sub-subtree
; 688  : 							_Color(_Left(_Pnode)) = _Black;

  001db	8b 10		 mov	 edx, DWORD PTR [eax]
  001dd	88 5a 20	 mov	 BYTE PTR [edx+32], bl

; 689  : 							_Color(_Pnode) = _Red;
; 690  : 							_Rrotate(_Pnode);

  001e0	50		 push	 eax
  001e1	c6 40 20 00	 mov	 BYTE PTR [eax+32], 0
  001e5	e8 00 00 00 00	 call	 ?_Rrotate@?$_Tree@V?$_Tmap_traits@KV?$vector@U_VECINFO@@V?$allocator@U_VECINFO@@@std@@@std@@U?$less@K@2@V?$allocator@U?$pair@$$CBKV?$vector@U_VECINFO@@V?$allocator@U_VECINFO@@@std@@@std@@@std@@@2@$0A@@std@@@std@@IAEXPAU_Node@?$_Tree_nod@V?$_Tmap_traits@KV?$vector@U_VECINFO@@V?$allocator@U_VECINFO@@@std@@@std@@U?$less@K@2@V?$allocator@U?$pair@$$CBKV?$vector@U_VECINFO@@V?$allocator@U_VECINFO@@@std@@@std@@@std@@@2@$0A@@std@@@2@@Z ; std::_Tree<std::_Tmap_traits<unsigned long,std::vector<_VECINFO,std::allocator<_VECINFO> >,std::less<unsigned long>,std::allocator<std::pair<unsigned long const ,std::vector<_VECINFO,std::allocator<_VECINFO> > > >,0> >::_Rrotate

; 691  : 							_Pnode = _Right(_Fixnodeparent);

  001ea	8b 46 08	 mov	 eax, DWORD PTR [esi+8]
  001ed	8b 4c 24 10	 mov	 ecx, DWORD PTR _this$[esp+100]
$L227181:

; 692  : 							}
; 693  : 
; 694  : 						_Color(_Pnode) = _Color(_Fixnodeparent);

  001f1	8a 56 20	 mov	 dl, BYTE PTR [esi+32]
  001f4	88 50 20	 mov	 BYTE PTR [eax+32], dl

; 695  : 						_Color(_Fixnodeparent) = _Black;

  001f7	88 5e 20	 mov	 BYTE PTR [esi+32], bl

; 696  : 						_Color(_Right(_Pnode)) = _Black;

  001fa	8b 40 08	 mov	 eax, DWORD PTR [eax+8]

; 697  : 						_Lrotate(_Fixnodeparent);

  001fd	56		 push	 esi
  001fe	88 58 20	 mov	 BYTE PTR [eax+32], bl
  00201	e8 00 00 00 00	 call	 ?_Lrotate@?$_Tree@V?$_Tmap_traits@KV?$vector@U_VECINFO@@V?$allocator@U_VECINFO@@@std@@@std@@U?$less@K@2@V?$allocator@U?$pair@$$CBKV?$vector@U_VECINFO@@V?$allocator@U_VECINFO@@@std@@@std@@@std@@@2@$0A@@std@@@std@@IAEXPAU_Node@?$_Tree_nod@V?$_Tmap_traits@KV?$vector@U_VECINFO@@V?$allocator@U_VECINFO@@@std@@@std@@U?$less@K@2@V?$allocator@U?$pair@$$CBKV?$vector@U_VECINFO@@V?$allocator@U_VECINFO@@@std@@@std@@@std@@@2@$0A@@std@@@2@@Z ; std::_Tree<std::_Tmap_traits<unsigned long,std::vector<_VECINFO,std::allocator<_VECINFO> >,std::less<unsigned long>,std::allocator<std::pair<unsigned long const ,std::vector<_VECINFO,std::allocator<_VECINFO> > > >,0> >::_Lrotate

; 698  : 						break;	// tree now recolored/rebalanced

  00206	eb 7a		 jmp	 SHORT $L227174
$L227175:

; 699  : 						}
; 700  : 					}
; 701  : 				else
; 702  : 					{	// fixup right subtree
; 703  : 					_Pnode = _Left(_Fixnodeparent);
; 704  : 					if (_Color(_Pnode) == _Red)

  00208	8a 50 20	 mov	 dl, BYTE PTR [eax+32]
  0020b	84 d2		 test	 dl, dl
  0020d	75 13		 jne	 SHORT $L227183

; 705  : 						{	// rotate red up from left subtree
; 706  : 						_Color(_Pnode) = _Black;

  0020f	88 58 20	 mov	 BYTE PTR [eax+32], bl

; 707  : 						_Color(_Fixnodeparent) = _Red;
; 708  : 						_Rrotate(_Fixnodeparent);

  00212	56		 push	 esi
  00213	c6 46 20 00	 mov	 BYTE PTR [esi+32], 0
  00217	e8 00 00 00 00	 call	 ?_Rrotate@?$_Tree@V?$_Tmap_traits@KV?$vector@U_VECINFO@@V?$allocator@U_VECINFO@@@std@@@std@@U?$less@K@2@V?$allocator@U?$pair@$$CBKV?$vector@U_VECINFO@@V?$allocator@U_VECINFO@@@std@@@std@@@std@@@2@$0A@@std@@@std@@IAEXPAU_Node@?$_Tree_nod@V?$_Tmap_traits@KV?$vector@U_VECINFO@@V?$allocator@U_VECINFO@@@std@@@std@@U?$less@K@2@V?$allocator@U?$pair@$$CBKV?$vector@U_VECINFO@@V?$allocator@U_VECINFO@@@std@@@std@@@std@@@2@$0A@@std@@@2@@Z ; std::_Tree<std::_Tmap_traits<unsigned long,std::vector<_VECINFO,std::allocator<_VECINFO> >,std::less<unsigned long>,std::allocator<std::pair<unsigned long const ,std::vector<_VECINFO,std::allocator<_VECINFO> > > >,0> >::_Rrotate

; 709  : 						_Pnode = _Left(_Fixnodeparent);

  0021c	8b 06		 mov	 eax, DWORD PTR [esi]
  0021e	8b 4c 24 10	 mov	 ecx, DWORD PTR _this$[esp+100]
$L227183:

; 710  : 						}
; 711  : 					if (_Isnil(_Pnode))

  00222	8a 50 21	 mov	 dl, BYTE PTR [eax+33]
  00225	84 d2		 test	 dl, dl

; 712  : 						_Fixnode = _Fixnodeparent;	// shouldn't happen
; 713  : 					else if (_Color(_Right(_Pnode)) == _Black

  00227	75 13		 jne	 SHORT $L238438

; 714  : 						&& _Color(_Left(_Pnode)) == _Black)

  00229	8b 50 08	 mov	 edx, DWORD PTR [eax+8]
  0022c	38 5a 20	 cmp	 BYTE PTR [edx+32], bl
  0022f	75 20		 jne	 SHORT $L227186
  00231	8b 10		 mov	 edx, DWORD PTR [eax]
  00233	38 5a 20	 cmp	 BYTE PTR [edx+32], bl
  00236	75 19		 jne	 SHORT $L227186
$L238439:

; 715  : 						{	// redden left subtree with black children
; 716  : 						_Color(_Pnode) = _Red;

  00238	c6 40 20 00	 mov	 BYTE PTR [eax+32], 0
$L238438:

; 662  : 			{	// erasing black link, must recolor/rebalance tree
; 663  : 			for (; _Fixnode != _Root() && _Color(_Fixnode) == _Black;
; 664  : 				_Fixnodeparent = _Parent(_Fixnode))

  0023c	8b 41 04	 mov	 eax, DWORD PTR [ecx+4]
  0023f	8b 50 04	 mov	 edx, DWORD PTR [eax+4]

; 717  : 						_Fixnode = _Fixnodeparent;

  00242	8b fe		 mov	 edi, esi
  00244	3b fa		 cmp	 edi, edx
  00246	8b 76 04	 mov	 esi, DWORD PTR [esi+4]
  00249	0f 85 41 ff ff
	ff		 jne	 $L227172

; 662  : 			{	// erasing black link, must recolor/rebalance tree
; 663  : 			for (; _Fixnode != _Root() && _Color(_Fixnode) == _Black;
; 664  : 				_Fixnodeparent = _Parent(_Fixnode))

  0024f	eb 31		 jmp	 SHORT $L227174
$L227186:

; 718  : 						}
; 719  : 					else
; 720  : 						{	// must rearrange left subtree
; 721  : 						if (_Color(_Left(_Pnode)) == _Black)

  00251	8b 10		 mov	 edx, DWORD PTR [eax]
  00253	38 5a 20	 cmp	 BYTE PTR [edx+32], bl
  00256	75 16		 jne	 SHORT $L227188

; 722  : 							{	// rotate red up from right sub-subtree
; 723  : 							_Color(_Right(_Pnode)) = _Black;

  00258	8b 50 08	 mov	 edx, DWORD PTR [eax+8]
  0025b	88 5a 20	 mov	 BYTE PTR [edx+32], bl

; 724  : 							_Color(_Pnode) = _Red;
; 725  : 							_Lrotate(_Pnode);

  0025e	50		 push	 eax
  0025f	c6 40 20 00	 mov	 BYTE PTR [eax+32], 0
  00263	e8 00 00 00 00	 call	 ?_Lrotate@?$_Tree@V?$_Tmap_traits@KV?$vector@U_VECINFO@@V?$allocator@U_VECINFO@@@std@@@std@@U?$less@K@2@V?$allocator@U?$pair@$$CBKV?$vector@U_VECINFO@@V?$allocator@U_VECINFO@@@std@@@std@@@std@@@2@$0A@@std@@@std@@IAEXPAU_Node@?$_Tree_nod@V?$_Tmap_traits@KV?$vector@U_VECINFO@@V?$allocator@U_VECINFO@@@std@@@std@@U?$less@K@2@V?$allocator@U?$pair@$$CBKV?$vector@U_VECINFO@@V?$allocator@U_VECINFO@@@std@@@std@@@std@@@2@$0A@@std@@@2@@Z ; std::_Tree<std::_Tmap_traits<unsigned long,std::vector<_VECINFO,std::allocator<_VECINFO> >,std::less<unsigned long>,std::allocator<std::pair<unsigned long const ,std::vector<_VECINFO,std::allocator<_VECINFO> > > >,0> >::_Lrotate

; 726  : 							_Pnode = _Left(_Fixnodeparent);

  00268	8b 06		 mov	 eax, DWORD PTR [esi]
  0026a	8b 4c 24 10	 mov	 ecx, DWORD PTR _this$[esp+100]
$L227188:

; 727  : 							}
; 728  : 
; 729  : 						_Color(_Pnode) = _Color(_Fixnodeparent);

  0026e	8a 56 20	 mov	 dl, BYTE PTR [esi+32]
  00271	88 50 20	 mov	 BYTE PTR [eax+32], dl

; 730  : 						_Color(_Fixnodeparent) = _Black;

  00274	88 5e 20	 mov	 BYTE PTR [esi+32], bl

; 731  : 						_Color(_Left(_Pnode)) = _Black;

  00277	8b 00		 mov	 eax, DWORD PTR [eax]

; 732  : 						_Rrotate(_Fixnodeparent);

  00279	56		 push	 esi
  0027a	88 58 20	 mov	 BYTE PTR [eax+32], bl
  0027d	e8 00 00 00 00	 call	 ?_Rrotate@?$_Tree@V?$_Tmap_traits@KV?$vector@U_VECINFO@@V?$allocator@U_VECINFO@@@std@@@std@@U?$less@K@2@V?$allocator@U?$pair@$$CBKV?$vector@U_VECINFO@@V?$allocator@U_VECINFO@@@std@@@std@@@std@@@2@$0A@@std@@@std@@IAEXPAU_Node@?$_Tree_nod@V?$_Tmap_traits@KV?$vector@U_VECINFO@@V?$allocator@U_VECINFO@@@std@@@std@@U?$less@K@2@V?$allocator@U?$pair@$$CBKV?$vector@U_VECINFO@@V?$allocator@U_VECINFO@@@std@@@std@@@std@@@2@$0A@@std@@@2@@Z ; std::_Tree<std::_Tmap_traits<unsigned long,std::vector<_VECINFO,std::allocator<_VECINFO> >,std::less<unsigned long>,std::allocator<std::pair<unsigned long const ,std::vector<_VECINFO,std::allocator<_VECINFO> > > >,0> >::_Rrotate
$L227174:

; 733  : 						break;	// tree now recolored/rebalanced
; 734  : 						}
; 735  : 					}
; 736  : 
; 737  : 			_Color(_Fixnode) = _Black;	// ensure stopping node is black

  00282	88 5f 20	 mov	 BYTE PTR [edi+32], bl
$L227171:

; 738  : 			}
; 739  : 
; 740  : 		this->_Alnod.destroy(_Erasednode);	// destroy, free erased node

  00285	8b 45 14	 mov	 eax, DWORD PTR [ebp+20]
  00288	33 f6		 xor	 esi, esi
  0028a	3b c6		 cmp	 eax, esi
  0028c	74 28		 je	 SHORT $L238424
  0028e	8b 4d 18	 mov	 ecx, DWORD PTR [ebp+24]
  00291	3b c1		 cmp	 eax, ecx
  00293	74 15		 je	 SHORT $L238421
  00295	ba 00 00 00 00	 mov	 edx, OFFSET FLAT:??_7CTimer@@6B@
  0029a	8d 9b 00 00 00
	00		 npad	 6
$L238419:
  002a0	89 50 18	 mov	 DWORD PTR [eax+24], edx
  002a3	83 c0 38	 add	 eax, 56			; 00000038H
  002a6	3b c1		 cmp	 eax, ecx
  002a8	75 f6		 jne	 SHORT $L238419
$L238421:
  002aa	8b 4d 14	 mov	 ecx, DWORD PTR [ebp+20]
  002ad	51		 push	 ecx
  002ae	e8 00 00 00 00	 call	 ??3@YAXPAX@Z		; operator delete
  002b3	83 c4 04	 add	 esp, 4
$L238424:

; 741  : 		this->_Alnod.deallocate(_Erasednode, 1);

  002b6	55		 push	 ebp
  002b7	89 75 14	 mov	 DWORD PTR [ebp+20], esi
  002ba	89 75 18	 mov	 DWORD PTR [ebp+24], esi
  002bd	89 75 1c	 mov	 DWORD PTR [ebp+28], esi
  002c0	e8 00 00 00 00	 call	 ??3@YAXPAX@Z		; operator delete

; 742  : 
; 743  : 		if (0 < _Mysize)

  002c5	8b 4c 24 14	 mov	 ecx, DWORD PTR _this$[esp+104]
  002c9	8b 41 08	 mov	 eax, DWORD PTR [ecx+8]
  002cc	83 c4 04	 add	 esp, 4
  002cf	3b c6		 cmp	 eax, esi
  002d1	5f		 pop	 edi
  002d2	5d		 pop	 ebp
  002d3	76 04		 jbe	 SHORT $L227189

; 744  : 			--_Mysize;

  002d5	48		 dec	 eax
  002d6	89 41 08	 mov	 DWORD PTR [ecx+8], eax
$L227189:

; 745  : 
; 746  : 		return (_Where);	// return successor iterator

  002d9	8b 44 24 60	 mov	 eax, DWORD PTR ___$ReturnUdt$[esp+88]
  002dd	8b 54 24 64	 mov	 edx, DWORD PTR __Where$[esp+88]

; 747  : 		}

  002e1	8b 4c 24 50	 mov	 ecx, DWORD PTR __$EHRec$[esp+92]
  002e5	5e		 pop	 esi
  002e6	89 10		 mov	 DWORD PTR [eax], edx
  002e8	5b		 pop	 ebx
  002e9	64 89 0d 00 00
	00 00		 mov	 DWORD PTR fs:__except_list, ecx
  002f0	83 c4 54	 add	 esp, 84			; 00000054H
  002f3	c2 08 00	 ret	 8
$L238437:
_TEXT	ENDS
;	COMDAT text$x
text$x	SEGMENT
$L237577:
  00000	8d 4d b0	 lea	 ecx, DWORD PTR $T237572[ebp]
  00003	e9 00 00 00 00	 jmp	 ??1?$basic_string@DU?$char_traits@D@std@@V?$allocator@D@2@@std@@QAE@XZ ; std::basic_string<char,std::char_traits<char>,std::allocator<char> >::~basic_string<char,std::char_traits<char>,std::allocator<char> >
__ehhandler$?erase@?$_Tree@V?$_Tmap_traits@KV?$vector@U_VECINFO@@V?$allocator@U_VECINFO@@@std@@@std@@U?$less@K@2@V?$allocator@U?$pair@$$CBKV?$vector@U_VECINFO@@V?$allocator@U_VECINFO@@@std@@@std@@@std@@@2@$0A@@std@@@std@@QAE?AViterator@12@V312@@Z:
  00008	b8 00 00 00 00	 mov	 eax, OFFSET FLAT:$T238430
  0000d	e9 00 00 00 00	 jmp	 ___CxxFrameHandler
text$x	ENDS
?erase@?$_Tree@V?$_Tmap_traits@KV?$vector@U_VECINFO@@V?$allocator@U_VECINFO@@@std@@@std@@U?$less@K@2@V?$allocator@U?$pair@$$CBKV?$vector@U_VECINFO@@V?$allocator@U_VECINFO@@@std@@@std@@@std@@@2@$0A@@std@@@std@@QAE?AViterator@12@V312@@Z ENDP ; std::_Tree<std::_Tmap_traits<unsigned long,std::vector<_VECINFO,std::allocator<_VECINFO> >,std::less<unsigned long>,std::allocator<std::pair<unsigned long const ,std::vector<_VECINFO,std::allocator<_VECINFO> > > >,0> >::erase
PUBLIC	?insert@?$_Tree@V?$_Tmap_traits@KV?$vector@U_VECINFO@@V?$allocator@U_VECINFO@@@std@@@std@@U?$less@K@2@V?$allocator@U?$pair@$$CBKV?$vector@U_VECINFO@@V?$allocator@U_VECINFO@@@std@@@std@@@std@@@2@$0A@@std@@@std@@QAE?AU?$pair@Viterator@?$_Tree@V?$_Tmap_traits@KV?$vector@U_VECINFO@@V?$allocator@U_VECINFO@@@std@@@std@@U?$less@K@2@V?$allocator@U?$pair@$$CBKV?$vector@U_VECINFO@@V?$allocator@U_VECINFO@@@std@@@std@@@std@@@2@$0A@@std@@@std@@_N@2@ABU?$pair@$$CBKV?$vector@U_VECINFO@@V?$allocator@U_VECINFO@@@std@@@std@@@2@@Z ; std::_Tree<std::_Tmap_traits<unsigned long,std::vector<_VECINFO,std::allocator<_VECINFO> >,std::less<unsigned long>,std::allocator<std::pair<unsigned long const ,std::vector<_VECINFO,std::allocator<_VECINFO> > > >,0> >::insert
; Function compile flags: /Ogty
;	COMDAT ?insert@?$_Tree@V?$_Tmap_traits@KV?$vector@U_VECINFO@@V?$allocator@U_VECINFO@@@std@@@std@@U?$less@K@2@V?$allocator@U?$pair@$$CBKV?$vector@U_VECINFO@@V?$allocator@U_VECINFO@@@std@@@std@@@std@@@2@$0A@@std@@@std@@QAE?AU?$pair@Viterator@?$_Tree@V?$_Tmap_traits@KV?$vector@U_VECINFO@@V?$allocator@U_VECINFO@@@std@@@std@@U?$less@K@2@V?$allocator@U?$pair@$$CBKV?$vector@U_VECINFO@@V?$allocator@U_VECINFO@@@std@@@std@@@std@@@2@$0A@@std@@@std@@_N@2@ABU?$pair@$$CBKV?$vector@U_VECINFO@@V?$allocator@U_VECINFO@@@std@@@std@@@2@@Z
_TEXT	SEGMENT
__Addleft$ = -4						; size = 1
___$ReturnUdt$ = 8					; size = 4
$T238455 = 12						; size = 4
$T238453 = 12						; size = 4
__Where$226373 = 12					; size = 4
__Val$ = 12						; size = 4
?insert@?$_Tree@V?$_Tmap_traits@KV?$vector@U_VECINFO@@V?$allocator@U_VECINFO@@@std@@@std@@U?$less@K@2@V?$allocator@U?$pair@$$CBKV?$vector@U_VECINFO@@V?$allocator@U_VECINFO@@@std@@@std@@@std@@@2@$0A@@std@@@std@@QAE?AU?$pair@Viterator@?$_Tree@V?$_Tmap_traits@KV?$vector@U_VECINFO@@V?$allocator@U_VECINFO@@@std@@@std@@U?$less@K@2@V?$allocator@U?$pair@$$CBKV?$vector@U_VECINFO@@V?$allocator@U_VECINFO@@@std@@@std@@@std@@@2@$0A@@std@@@std@@_N@2@ABU?$pair@$$CBKV?$vector@U_VECINFO@@V?$allocator@U_VECINFO@@@std@@@std@@@2@@Z PROC NEAR ; std::_Tree<std::_Tmap_traits<unsigned long,std::vector<_VECINFO,std::allocator<_VECINFO> >,std::less<unsigned long>,std::allocator<std::pair<unsigned long const ,std::vector<_VECINFO,std::allocator<_VECINFO> > > >,0> >::insert, COMDAT
; _this$ = ecx

; 477  : 		{	// try to insert node with value _Val

  00000	51		 push	 ecx
  00001	55		 push	 ebp

; 478  : 		_Nodeptr _Trynode = _Root();
; 479  : 		_Nodeptr _Wherenode = _Myhead;
; 480  : 		bool _Addleft = true;	// add to left of head if tree empty
; 481  : 		while (!_Isnil(_Trynode))

  00002	8b 6c 24 10	 mov	 ebp, DWORD PTR __Val$[esp+4]
  00006	56		 push	 esi
  00007	57		 push	 edi
  00008	8b f9		 mov	 edi, ecx
  0000a	8b 77 04	 mov	 esi, DWORD PTR [edi+4]
  0000d	8b 46 04	 mov	 eax, DWORD PTR [esi+4]
  00010	8a 50 21	 mov	 dl, BYTE PTR [eax+33]
  00013	84 d2		 test	 dl, dl
  00015	b1 01		 mov	 cl, 1
  00017	88 4c 24 0c	 mov	 BYTE PTR __Addleft$[esp+16], cl
  0001b	75 20		 jne	 SHORT $L226363
  0001d	8b 55 00	 mov	 edx, DWORD PTR [ebp]
$L226362:

; 482  : 			{	// look for leaf to insert before (_Addleft) or after
; 483  : 			_Wherenode = _Trynode;
; 484  : 			_Addleft = this->comp(this->_Kfn(_Val), _Key(_Trynode));

  00020	3b 50 0c	 cmp	 edx, DWORD PTR [eax+12]
  00023	0f 92 c1	 setb	 cl

; 485  : 			_Trynode = _Addleft ? _Left(_Trynode) : _Right(_Trynode);

  00026	84 c9		 test	 cl, cl
  00028	8b f0		 mov	 esi, eax
  0002a	88 4c 24 0c	 mov	 BYTE PTR __Addleft$[esp+16], cl
  0002e	74 04		 je	 SHORT $L238447
  00030	8b 00		 mov	 eax, DWORD PTR [eax]
  00032	eb 03		 jmp	 SHORT $L238448
$L238447:
  00034	8b 40 08	 mov	 eax, DWORD PTR [eax+8]
$L238448:

; 478  : 		_Nodeptr _Trynode = _Root();
; 479  : 		_Nodeptr _Wherenode = _Myhead;
; 480  : 		bool _Addleft = true;	// add to left of head if tree empty
; 481  : 		while (!_Isnil(_Trynode))

  00037	80 78 21 00	 cmp	 BYTE PTR [eax+33], 0
  0003b	74 e3		 je	 SHORT $L226362
$L226363:

; 486  : 			}
; 487  : 
; 488  : 		if (this->_Multi)
; 489  : 			return (_Pairib(_Insert(_Addleft, _Wherenode, _Val), true));
; 490  : 		else
; 491  : 			{	// insert only if unique
; 492  : 			iterator _Where = _TREE_ITERATOR(_Wherenode);
; 493  : 			if (!_Addleft)

  0003d	84 c9		 test	 cl, cl
  0003f	8b d6		 mov	 edx, esi
  00041	89 54 24 18	 mov	 DWORD PTR __Where$226373[esp+12], edx
  00045	74 33		 je	 SHORT $L238547

; 494  : 				;	// need to test if insert after is okay
; 495  : 			else if (_Where == begin())

  00047	8b 47 04	 mov	 eax, DWORD PTR [edi+4]
  0004a	3b 30		 cmp	 esi, DWORD PTR [eax]

; 496  : 				return (_Pairib(_Insert(true, _Wherenode, _Val), true));

  0004c	8d 4c 24 18	 lea	 ecx, DWORD PTR $T238453[esp+12]
  00050	75 1f		 jne	 SHORT $L226378
  00052	55		 push	 ebp
  00053	56		 push	 esi
  00054	6a 01		 push	 1
  00056	51		 push	 ecx
  00057	8b cf		 mov	 ecx, edi
  00059	e8 00 00 00 00	 call	 ?_Insert@?$_Tree@V?$_Tmap_traits@KV?$vector@U_VECINFO@@V?$allocator@U_VECINFO@@@std@@@std@@U?$less@K@2@V?$allocator@U?$pair@$$CBKV?$vector@U_VECINFO@@V?$allocator@U_VECINFO@@@std@@@std@@@std@@@2@$0A@@std@@@std@@IAE?AViterator@12@_NPAU_Node@?$_Tree_nod@V?$_Tmap_traits@KV?$vector@U_VECINFO@@V?$allocator@U_VECINFO@@@std@@@std@@U?$less@K@2@V?$allocator@U?$pair@$$CBKV?$vector@U_VECINFO@@V?$allocator@U_VECINFO@@@std@@@std@@@std@@@2@$0A@@std@@@2@ABU?$pair@$$CBKV?$vector@U_VECINFO@@V?$allocator@U_VECINFO@@@std@@@std@@@2@@Z ; std::_Tree<std::_Tmap_traits<unsigned long,std::vector<_VECINFO,std::allocator<_VECINFO> >,std::less<unsigned long>,std::allocator<std::pair<unsigned long const ,std::vector<_VECINFO,std::allocator<_VECINFO> > > >,0> >::_Insert
  0005e	8b 10		 mov	 edx, DWORD PTR [eax]
  00060	8b 44 24 14	 mov	 eax, DWORD PTR ___$ReturnUdt$[esp+12]
  00064	5f		 pop	 edi
  00065	5e		 pop	 esi
  00066	c6 40 04 01	 mov	 BYTE PTR [eax+4], 1

; 502  : 			else
; 503  : 				return (_Pairib(_Where, false));

  0006a	89 10		 mov	 DWORD PTR [eax], edx
  0006c	5d		 pop	 ebp

; 504  : 			}
; 505  : 		}

  0006d	59		 pop	 ecx
  0006e	c2 08 00	 ret	 8
$L226378:

; 497  : 			else
; 498  : 				--_Where;	// need to test if insert before is okay

  00071	e8 00 00 00 00	 call	 ?_Dec@const_iterator@?$_Tree@V?$_Tmap_traits@KV?$vector@U_VECINFO@@V?$allocator@U_VECINFO@@@std@@@std@@U?$less@K@2@V?$allocator@U?$pair@$$CBKV?$vector@U_VECINFO@@V?$allocator@U_VECINFO@@@std@@@std@@@std@@@2@$0A@@std@@@std@@QAEXXZ ; std::_Tree<std::_Tmap_traits<unsigned long,std::vector<_VECINFO,std::allocator<_VECINFO> >,std::less<unsigned long>,std::allocator<std::pair<unsigned long const ,std::vector<_VECINFO,std::allocator<_VECINFO> > > >,0> >::const_iterator::_Dec
  00076	8b 54 24 18	 mov	 edx, DWORD PTR __Where$226373[esp+12]
$L238547:

; 499  : 
; 500  : 			if (this->comp(_Key(_Where._Mynode()), this->_Kfn(_Val)))

  0007a	8b 42 0c	 mov	 eax, DWORD PTR [edx+12]
  0007d	3b 45 00	 cmp	 eax, DWORD PTR [ebp]
  00080	73 26		 jae	 SHORT $L226383

; 501  : 				return (_Pairib(_Insert(_Addleft, _Wherenode, _Val), true));

  00082	8b 4c 24 0c	 mov	 ecx, DWORD PTR __Addleft$[esp+16]
  00086	55		 push	 ebp
  00087	56		 push	 esi
  00088	51		 push	 ecx
  00089	8d 54 24 24	 lea	 edx, DWORD PTR $T238455[esp+24]
  0008d	52		 push	 edx
  0008e	8b cf		 mov	 ecx, edi
  00090	e8 00 00 00 00	 call	 ?_Insert@?$_Tree@V?$_Tmap_traits@KV?$vector@U_VECINFO@@V?$allocator@U_VECINFO@@@std@@@std@@U?$less@K@2@V?$allocator@U?$pair@$$CBKV?$vector@U_VECINFO@@V?$allocator@U_VECINFO@@@std@@@std@@@std@@@2@$0A@@std@@@std@@IAE?AViterator@12@_NPAU_Node@?$_Tree_nod@V?$_Tmap_traits@KV?$vector@U_VECINFO@@V?$allocator@U_VECINFO@@@std@@@std@@U?$less@K@2@V?$allocator@U?$pair@$$CBKV?$vector@U_VECINFO@@V?$allocator@U_VECINFO@@@std@@@std@@@std@@@2@$0A@@std@@@2@ABU?$pair@$$CBKV?$vector@U_VECINFO@@V?$allocator@U_VECINFO@@@std@@@std@@@2@@Z ; std::_Tree<std::_Tmap_traits<unsigned long,std::vector<_VECINFO,std::allocator<_VECINFO> >,std::less<unsigned long>,std::allocator<std::pair<unsigned long const ,std::vector<_VECINFO,std::allocator<_VECINFO> > > >,0> >::_Insert
  00095	8b 08		 mov	 ecx, DWORD PTR [eax]
  00097	8b 44 24 14	 mov	 eax, DWORD PTR ___$ReturnUdt$[esp+12]
  0009b	5f		 pop	 edi
  0009c	5e		 pop	 esi
  0009d	89 08		 mov	 DWORD PTR [eax], ecx
  0009f	c6 40 04 01	 mov	 BYTE PTR [eax+4], 1
  000a3	5d		 pop	 ebp

; 504  : 			}
; 505  : 		}

  000a4	59		 pop	 ecx
  000a5	c2 08 00	 ret	 8
$L226383:

; 502  : 			else
; 503  : 				return (_Pairib(_Where, false));

  000a8	8b 44 24 14	 mov	 eax, DWORD PTR ___$ReturnUdt$[esp+12]
  000ac	5f		 pop	 edi
  000ad	5e		 pop	 esi
  000ae	c6 40 04 00	 mov	 BYTE PTR [eax+4], 0
  000b2	89 10		 mov	 DWORD PTR [eax], edx
  000b4	5d		 pop	 ebp

; 504  : 			}
; 505  : 		}

  000b5	59		 pop	 ecx
  000b6	c2 08 00	 ret	 8
?insert@?$_Tree@V?$_Tmap_traits@KV?$vector@U_VECINFO@@V?$allocator@U_VECINFO@@@std@@@std@@U?$less@K@2@V?$allocator@U?$pair@$$CBKV?$vector@U_VECINFO@@V?$allocator@U_VECINFO@@@std@@@std@@@std@@@2@$0A@@std@@@std@@QAE?AU?$pair@Viterator@?$_Tree@V?$_Tmap_traits@KV?$vector@U_VECINFO@@V?$allocator@U_VECINFO@@@std@@@std@@U?$less@K@2@V?$allocator@U?$pair@$$CBKV?$vector@U_VECINFO@@V?$allocator@U_VECINFO@@@std@@@std@@@std@@@2@$0A@@std@@@std@@_N@2@ABU?$pair@$$CBKV?$vector@U_VECINFO@@V?$allocator@U_VECINFO@@@std@@@std@@@2@@Z ENDP ; std::_Tree<std::_Tmap_traits<unsigned long,std::vector<_VECINFO,std::allocator<_VECINFO> >,std::less<unsigned long>,std::allocator<std::pair<unsigned long const ,std::vector<_VECINFO,std::allocator<_VECINFO> > > >,0> >::insert
_TEXT	ENDS
PUBLIC	?_Erase@?$_Tree@V?$_Tmap_traits@KV?$vector@U_VECINFO@@V?$allocator@U_VECINFO@@@std@@@std@@U?$less@K@2@V?$allocator@U?$pair@$$CBKV?$vector@U_VECINFO@@V?$allocator@U_VECINFO@@@std@@@std@@@std@@@2@$0A@@std@@@std@@IAEXPAU_Node@?$_Tree_nod@V?$_Tmap_traits@KV?$vector@U_VECINFO@@V?$allocator@U_VECINFO@@@std@@@std@@U?$less@K@2@V?$allocator@U?$pair@$$CBKV?$vector@U_VECINFO@@V?$allocator@U_VECINFO@@@std@@@std@@@std@@@2@$0A@@std@@@2@@Z ; std::_Tree<std::_Tmap_traits<unsigned long,std::vector<_VECINFO,std::allocator<_VECINFO> >,std::less<unsigned long>,std::allocator<std::pair<unsigned long const ,std::vector<_VECINFO,std::allocator<_VECINFO> > > >,0> >::_Erase
; Function compile flags: /Ogty
;	COMDAT ?_Erase@?$_Tree@V?$_Tmap_traits@KV?$vector@U_VECINFO@@V?$allocator@U_VECINFO@@@std@@@std@@U?$less@K@2@V?$allocator@U?$pair@$$CBKV?$vector@U_VECINFO@@V?$allocator@U_VECINFO@@@std@@@std@@@std@@@2@$0A@@std@@@std@@IAEXPAU_Node@?$_Tree_nod@V?$_Tmap_traits@KV?$vector@U_VECINFO@@V?$allocator@U_VECINFO@@@std@@@std@@U?$less@K@2@V?$allocator@U?$pair@$$CBKV?$vector@U_VECINFO@@V?$allocator@U_VECINFO@@@std@@@std@@@std@@@2@$0A@@std@@@2@@Z
_TEXT	SEGMENT
__Rootnode$ = 8						; size = 4
?_Erase@?$_Tree@V?$_Tmap_traits@KV?$vector@U_VECINFO@@V?$allocator@U_VECINFO@@@std@@@std@@U?$less@K@2@V?$allocator@U?$pair@$$CBKV?$vector@U_VECINFO@@V?$allocator@U_VECINFO@@@std@@@std@@@std@@@2@$0A@@std@@@std@@IAEXPAU_Node@?$_Tree_nod@V?$_Tmap_traits@KV?$vector@U_VECINFO@@V?$allocator@U_VECINFO@@@std@@@std@@U?$less@K@2@V?$allocator@U?$pair@$$CBKV?$vector@U_VECINFO@@V?$allocator@U_VECINFO@@@std@@@std@@@std@@@2@$0A@@std@@@2@@Z PROC NEAR ; std::_Tree<std::_Tmap_traits<unsigned long,std::vector<_VECINFO,std::allocator<_VECINFO> >,std::less<unsigned long>,std::allocator<std::pair<unsigned long const ,std::vector<_VECINFO,std::allocator<_VECINFO> > > >,0> >::_Erase, COMDAT
; _this$ = ecx

; 890  : 		{	// free entire subtree, recursively

  00000	53		 push	 ebx
  00001	56		 push	 esi
  00002	57		 push	 edi

; 891  : 		for (_Nodeptr _Pnode = _Rootnode; !_Isnil(_Pnode); _Rootnode = _Pnode)

  00003	8b 7c 24 10	 mov	 edi, DWORD PTR __Rootnode$[esp+8]
  00007	8a 47 21	 mov	 al, BYTE PTR [edi+33]
  0000a	84 c0		 test	 al, al
  0000c	8b d9		 mov	 ebx, ecx
  0000e	8b f7		 mov	 esi, edi
  00010	75 26		 jne	 SHORT $L226700
$L226698:

; 892  : 			{	// free subtrees, then node
; 893  : 			_Erase(_Right(_Pnode));

  00012	8b 46 08	 mov	 eax, DWORD PTR [esi+8]
  00015	50		 push	 eax
  00016	8b cb		 mov	 ecx, ebx
  00018	e8 00 00 00 00	 call	 ?_Erase@?$_Tree@V?$_Tmap_traits@KV?$vector@U_VECINFO@@V?$allocator@U_VECINFO@@@std@@@std@@U?$less@K@2@V?$allocator@U?$pair@$$CBKV?$vector@U_VECINFO@@V?$allocator@U_VECINFO@@@std@@@std@@@std@@@2@$0A@@std@@@std@@IAEXPAU_Node@?$_Tree_nod@V?$_Tmap_traits@KV?$vector@U_VECINFO@@V?$allocator@U_VECINFO@@@std@@@std@@U?$less@K@2@V?$allocator@U?$pair@$$CBKV?$vector@U_VECINFO@@V?$allocator@U_VECINFO@@@std@@@std@@@std@@@2@$0A@@std@@@2@@Z ; std::_Tree<std::_Tmap_traits<unsigned long,std::vector<_VECINFO,std::allocator<_VECINFO> >,std::less<unsigned long>,std::allocator<std::pair<unsigned long const ,std::vector<_VECINFO,std::allocator<_VECINFO> > > >,0> >::_Erase

; 894  : 			_Pnode = _Left(_Pnode);

  0001d	8b 36		 mov	 esi, DWORD PTR [esi]

; 895  : 			this->_Alnod.destroy(_Rootnode);	// destroy, free erased node

  0001f	8b cf		 mov	 ecx, edi
  00021	e8 00 00 00 00	 call	 ??1_Node@?$_Tree_nod@V?$_Tmap_traits@KV?$vector@U_VECINFO@@V?$allocator@U_VECINFO@@@std@@@std@@U?$less@K@2@V?$allocator@U?$pair@$$CBKV?$vector@U_VECINFO@@V?$allocator@U_VECINFO@@@std@@@std@@@std@@@2@$0A@@std@@@std@@QAE@XZ

; 896  : 			this->_Alnod.deallocate(_Rootnode, 1);

  00026	57		 push	 edi
  00027	e8 00 00 00 00	 call	 ??3@YAXPAX@Z		; operator delete
  0002c	8a 46 21	 mov	 al, BYTE PTR [esi+33]
  0002f	83 c4 04	 add	 esp, 4
  00032	84 c0		 test	 al, al
  00034	8b fe		 mov	 edi, esi
  00036	74 da		 je	 SHORT $L226698
$L226700:
  00038	5f		 pop	 edi
  00039	5e		 pop	 esi
  0003a	5b		 pop	 ebx

; 897  : 			}
; 898  : 		}

  0003b	c2 04 00	 ret	 4
?_Erase@?$_Tree@V?$_Tmap_traits@KV?$vector@U_VECINFO@@V?$allocator@U_VECINFO@@@std@@@std@@U?$less@K@2@V?$allocator@U?$pair@$$CBKV?$vector@U_VECINFO@@V?$allocator@U_VECINFO@@@std@@@std@@@std@@@2@$0A@@std@@@std@@IAEXPAU_Node@?$_Tree_nod@V?$_Tmap_traits@KV?$vector@U_VECINFO@@V?$allocator@U_VECINFO@@@std@@@std@@U?$less@K@2@V?$allocator@U?$pair@$$CBKV?$vector@U_VECINFO@@V?$allocator@U_VECINFO@@@std@@@std@@@std@@@2@$0A@@std@@@2@@Z ENDP ; std::_Tree<std::_Tmap_traits<unsigned long,std::vector<_VECINFO,std::allocator<_VECINFO> >,std::less<unsigned long>,std::allocator<std::pair<unsigned long const ,std::vector<_VECINFO,std::allocator<_VECINFO> > > >,0> >::_Erase
_TEXT	ENDS
PUBLIC	?AddPatrolPath@CPatrolPath@@QAEXKU_VECINFO@@@Z	; CPatrolPath::AddPatrolPath
;	COMDAT xdata$x
; File c:\documents and settings\test\mes documents\source\virtuos_v17\build\program\_common\timer.h
xdata$x	SEGMENT
$T238784 DD	0ffffffffH
	DD	FLAT:$L238622
	DD	00H
	DD	FLAT:$L238623
	DD	01H
	DD	FLAT:$L238624
$T238782 DD	019930520H
	DD	03H
	DD	FLAT:$T238784
	DD	2 DUP(00H)
	DD	2 DUP(00H)
; Function compile flags: /Ogty
; File c:\documents and settings\test\mes documents\source\virtuos_v17\build\program\_common\pathobj.cpp
xdata$x	ENDS
;	COMDAT ?AddPatrolPath@CPatrolPath@@QAEXKU_VECINFO@@@Z
_TEXT	SEGMENT
$T238621 = -56						; size = 8
_it$ = -56						; size = 4
_pTemp$ = -48						; size = 16
$T238620 = -32						; size = 20
__$EHRec$ = -12						; size = 12
_dwIndex$ = 8						; size = 4
_vecInfo$ = 12						; size = 56
?AddPatrolPath@CPatrolPath@@QAEXKU_VECINFO@@@Z PROC NEAR ; CPatrolPath::AddPatrolPath, COMDAT
; _this$ = ecx

; 34   : {

  00000	6a ff		 push	 -1
  00002	68 00 00 00 00	 push	 __ehhandler$?AddPatrolPath@CPatrolPath@@QAEXKU_VECINFO@@@Z
  00007	64 a1 00 00 00
	00		 mov	 eax, DWORD PTR fs:__except_list
  0000d	50		 push	 eax
  0000e	64 89 25 00 00
	00 00		 mov	 DWORD PTR fs:__except_list, esp
  00015	83 ec 2c	 sub	 esp, 44			; 0000002cH
  00018	56		 push	 esi
  00019	57		 push	 edi
  0001a	8b f1		 mov	 esi, ecx

; 35   : 	map< DWORD, vector<_VECINFO> >::iterator it = m_mapPatrolPath.find( dwIndex );

  0001c	8d 44 24 44	 lea	 eax, DWORD PTR _dwIndex$[esp+60]
  00020	50		 push	 eax
  00021	8d 4c 24 0c	 lea	 ecx, DWORD PTR _it$[esp+68]
  00025	51		 push	 ecx
  00026	33 ff		 xor	 edi, edi
  00028	8b ce		 mov	 ecx, esi
  0002a	89 7c 24 44	 mov	 DWORD PTR __$EHRec$[esp+80], edi
  0002e	e8 00 00 00 00	 call	 ?find@?$_Tree@V?$_Tmap_traits@KV?$vector@U_VECINFO@@V?$allocator@U_VECINFO@@@std@@@std@@U?$less@K@2@V?$allocator@U?$pair@$$CBKV?$vector@U_VECINFO@@V?$allocator@U_VECINFO@@@std@@@std@@@std@@@2@$0A@@std@@@std@@QAE?AViterator@12@ABK@Z ; std::_Tree<std::_Tmap_traits<unsigned long,std::vector<_VECINFO,std::allocator<_VECINFO> >,std::less<unsigned long>,std::allocator<std::pair<unsigned long const ,std::vector<_VECINFO,std::allocator<_VECINFO> > > >,0> >::find

; 36   : 
; 37   : 	vector<_VECINFO> pTemp;

  00033	89 7c 24 14	 mov	 DWORD PTR _pTemp$[esp+68], edi
  00037	89 7c 24 18	 mov	 DWORD PTR _pTemp$[esp+72], edi
  0003b	89 7c 24 1c	 mov	 DWORD PTR _pTemp$[esp+76], edi

; 38   : 
; 39   : 	//  
; 40   : 	if( it != m_mapPatrolPath.end() )

  0003f	8b 46 04	 mov	 eax, DWORD PTR [esi+4]
  00042	8b 4c 24 08	 mov	 ecx, DWORD PTR _it$[esp+64]
  00046	3b c8		 cmp	 ecx, eax
  00048	c6 44 24 3c 01	 mov	 BYTE PTR __$EHRec$[esp+72], 1
  0004d	74 0f		 je	 SHORT $L225970

; 41   : 	{
; 42   : 		//   ...
; 43   : 		it->second.push_back( vecInfo );

  0004f	8d 54 24 48	 lea	 edx, DWORD PTR _vecInfo$[esp+60]
  00053	52		 push	 edx
  00054	83 c1 10	 add	 ecx, 16			; 00000010H
  00057	e8 00 00 00 00	 call	 ?push_back@?$vector@U_VECINFO@@V?$allocator@U_VECINFO@@@std@@@std@@QAEXABU_VECINFO@@@Z ; std::vector<_VECINFO,std::allocator<_VECINFO> >::push_back

; 44   : 	}
; 45   : 	else

  0005c	eb 43		 jmp	 SHORT $L238768
$L225970:

; 46   : 	//  
; 47   : 	{
; 48   : 		pTemp.push_back( vecInfo );

  0005e	8d 44 24 48	 lea	 eax, DWORD PTR _vecInfo$[esp+60]
  00062	50		 push	 eax
  00063	8d 4c 24 14	 lea	 ecx, DWORD PTR _pTemp$[esp+68]
  00067	e8 00 00 00 00	 call	 ?push_back@?$vector@U_VECINFO@@V?$allocator@U_VECINFO@@@std@@@std@@QAEXABU_VECINFO@@@Z ; std::vector<_VECINFO,std::allocator<_VECINFO> >::push_back

; 49   : 		m_mapPatrolPath.insert( map< DWORD, vector<_VECINFO> >::value_type(dwIndex, pTemp) );

  0006c	8b 4c 24 44	 mov	 ecx, DWORD PTR _dwIndex$[esp+60]
  00070	8d 54 24 10	 lea	 edx, DWORD PTR _pTemp$[esp+64]
  00074	89 4c 24 20	 mov	 DWORD PTR $T238620[esp+64], ecx
  00078	52		 push	 edx
  00079	8d 4c 24 28	 lea	 ecx, DWORD PTR $T238620[esp+72]
  0007d	e8 00 00 00 00	 call	 ??0?$vector@U_VECINFO@@V?$allocator@U_VECINFO@@@std@@@std@@QAE@ABV01@@Z ; std::vector<_VECINFO,std::allocator<_VECINFO> >::vector<_VECINFO,std::allocator<_VECINFO> >
  00082	8d 44 24 20	 lea	 eax, DWORD PTR $T238620[esp+64]
  00086	50		 push	 eax
  00087	8d 4c 24 0c	 lea	 ecx, DWORD PTR $T238621[esp+68]
  0008b	51		 push	 ecx
  0008c	8b ce		 mov	 ecx, esi
  0008e	c6 44 24 44 02	 mov	 BYTE PTR __$EHRec$[esp+80], 2
  00093	e8 00 00 00 00	 call	 ?insert@?$_Tree@V?$_Tmap_traits@KV?$vector@U_VECINFO@@V?$allocator@U_VECINFO@@@std@@@std@@U?$less@K@2@V?$allocator@U?$pair@$$CBKV?$vector@U_VECINFO@@V?$allocator@U_VECINFO@@@std@@@std@@@std@@@2@$0A@@std@@@std@@QAE?AU?$pair@Viterator@?$_Tree@V?$_Tmap_traits@KV?$vector@U_VECINFO@@V?$allocator@U_VECINFO@@@std@@@std@@U?$less@K@2@V?$allocator@U?$pair@$$CBKV?$vector@U_VECINFO@@V?$allocator@U_VECINFO@@@std@@@std@@@std@@@2@$0A@@std@@@std@@_N@2@ABU?$pair@$$CBKV?$vector@U_VECINFO@@V?$allocator@U_VECINFO@@@std@@@std@@@2@@Z ; std::_Tree<std::_Tmap_traits<unsigned long,std::vector<_VECINFO,std::allocator<_VECINFO> >,std::less<unsigned long>,std::allocator<std::pair<unsigned long const ,std::vector<_VECINFO,std::allocator<_VECINFO> > > >,0> >::insert
  00098	8d 4c 24 24	 lea	 ecx, DWORD PTR $T238620[esp+68]
  0009c	e8 00 00 00 00	 call	 ?_Tidy@?$vector@U_VECINFO@@V?$allocator@U_VECINFO@@@std@@@std@@IAEXXZ ; std::vector<_VECINFO,std::allocator<_VECINFO> >::_Tidy
$L238768:

; 50   : 	}
; 51   : }

  000a1	8d 4c 24 10	 lea	 ecx, DWORD PTR _pTemp$[esp+64]
  000a5	e8 00 00 00 00	 call	 ?_Tidy@?$vector@U_VECINFO@@V?$allocator@U_VECINFO@@@std@@@std@@IAEXXZ ; std::vector<_VECINFO,std::allocator<_VECINFO> >::_Tidy
  000aa	8b 4c 24 34	 mov	 ecx, DWORD PTR __$EHRec$[esp+64]
  000ae	5f		 pop	 edi
  000af	5e		 pop	 esi
  000b0	64 89 0d 00 00
	00 00		 mov	 DWORD PTR fs:__except_list, ecx
  000b7	83 c4 38	 add	 esp, 56			; 00000038H
  000ba	c2 3c 00	 ret	 60			; 0000003cH
_TEXT	ENDS
;	COMDAT text$x
text$x	SEGMENT
$L238622:
  00000	8d 4d 08	 lea	 ecx, DWORD PTR _vecInfo$[ebp-4]
  00003	e9 00 00 00 00	 jmp	 ??1_VECINFO@@QAE@XZ
$L238623:
  00008	8d 4d d0	 lea	 ecx, DWORD PTR _pTemp$[ebp]
  0000b	e9 00 00 00 00	 jmp	 ??1?$vector@U_VECINFO@@V?$allocator@U_VECINFO@@@std@@@std@@QAE@XZ ; std::vector<_VECINFO,std::allocator<_VECINFO> >::~vector<_VECINFO,std::allocator<_VECINFO> >
$L238624:
  00010	8d 4d e0	 lea	 ecx, DWORD PTR $T238620[ebp]
  00013	e9 00 00 00 00	 jmp	 ??1?$pair@$$CBKV?$vector@U_VECINFO@@V?$allocator@U_VECINFO@@@std@@@std@@@std@@QAE@XZ
__ehhandler$?AddPatrolPath@CPatrolPath@@QAEXKU_VECINFO@@@Z:
  00018	b8 00 00 00 00	 mov	 eax, OFFSET FLAT:$T238782
  0001d	e9 00 00 00 00	 jmp	 ___CxxFrameHandler
text$x	ENDS
?AddPatrolPath@CPatrolPath@@QAEXKU_VECINFO@@@Z ENDP	; CPatrolPath::AddPatrolPath
PUBLIC	?AddPatrolIndex@CPatrolPath@@QAEXK@Z		; CPatrolPath::AddPatrolIndex
;	COMDAT xdata$x
; File c:\program files\microsoft visual studio .net 2003\vc7\include\vector
xdata$x	SEGMENT
$T238925 DD	0ffffffffH
	DD	FLAT:$L238793
	DD	00H
	DD	FLAT:$L238794
$T238923 DD	019930520H
	DD	02H
	DD	FLAT:$T238925
	DD	2 DUP(00H)
	DD	2 DUP(00H)
; Function compile flags: /Ogty
; File c:\documents and settings\test\mes documents\source\virtuos_v17\build\program\_common\pathobj.cpp
xdata$x	ENDS
;	COMDAT ?AddPatrolIndex@CPatrolPath@@QAEXK@Z
_TEXT	SEGMENT
$T238792 = -56						; size = 8
_it$ = -56						; size = 4
_pTemp$226092 = -48					; size = 16
$T238791 = -32						; size = 20
__$EHRec$ = -12						; size = 12
_dwIndex$ = 8						; size = 4
?AddPatrolIndex@CPatrolPath@@QAEXK@Z PROC NEAR		; CPatrolPath::AddPatrolIndex, COMDAT
; _this$ = ecx

; 120  : {

  00000	64 a1 00 00 00
	00		 mov	 eax, DWORD PTR fs:__except_list
  00006	6a ff		 push	 -1
  00008	68 00 00 00 00	 push	 __ehhandler$?AddPatrolIndex@CPatrolPath@@QAEXK@Z
  0000d	50		 push	 eax
  0000e	64 89 25 00 00
	00 00		 mov	 DWORD PTR fs:__except_list, esp
  00015	83 ec 2c	 sub	 esp, 44			; 0000002cH
  00018	56		 push	 esi
  00019	8b f1		 mov	 esi, ecx

; 121  : 	map< DWORD, vector<_VECINFO> >::iterator it = m_mapPatrolPath.find( dwIndex );

  0001b	8d 44 24 40	 lea	 eax, DWORD PTR _dwIndex$[esp+56]
  0001f	50		 push	 eax
  00020	8d 4c 24 08	 lea	 ecx, DWORD PTR _it$[esp+64]
  00024	51		 push	 ecx
  00025	8b ce		 mov	 ecx, esi
  00027	e8 00 00 00 00	 call	 ?find@?$_Tree@V?$_Tmap_traits@KV?$vector@U_VECINFO@@V?$allocator@U_VECINFO@@@std@@@std@@U?$less@K@2@V?$allocator@U?$pair@$$CBKV?$vector@U_VECINFO@@V?$allocator@U_VECINFO@@@std@@@std@@@std@@@2@$0A@@std@@@std@@QAE?AViterator@12@ABK@Z ; std::_Tree<std::_Tmap_traits<unsigned long,std::vector<_VECINFO,std::allocator<_VECINFO> >,std::less<unsigned long>,std::allocator<std::pair<unsigned long const ,std::vector<_VECINFO,std::allocator<_VECINFO> > > >,0> >::find

; 122  : 	
; 123  : 	//  
; 124  : 	if( it != m_mapPatrolPath.end() )

  0002c	8b 46 04	 mov	 eax, DWORD PTR [esi+4]
  0002f	39 44 24 04	 cmp	 DWORD PTR _it$[esp+60], eax
  00033	75 59		 jne	 SHORT $L238920

; 125  : 	{
; 126  : 		return;
; 127  : 	}
; 128  : 	else
; 129  : 	//  
; 130  : 	{
; 131  : 		vector<_VECINFO> pTemp;

  00035	33 c0		 xor	 eax, eax
  00037	89 44 24 10	 mov	 DWORD PTR _pTemp$226092[esp+64], eax
  0003b	89 44 24 14	 mov	 DWORD PTR _pTemp$226092[esp+68], eax
  0003f	89 44 24 18	 mov	 DWORD PTR _pTemp$226092[esp+72], eax

; 132  : 		pTemp.clear();

  00043	8d 4c 24 0c	 lea	 ecx, DWORD PTR _pTemp$226092[esp+60]
  00047	89 44 24 38	 mov	 DWORD PTR __$EHRec$[esp+68], eax
  0004b	e8 00 00 00 00	 call	 ?_Tidy@?$vector@U_VECINFO@@V?$allocator@U_VECINFO@@@std@@@std@@IAEXXZ ; std::vector<_VECINFO,std::allocator<_VECINFO> >::_Tidy

; 133  : 		m_mapPatrolPath.insert( map< DWORD, vector<_VECINFO> >::value_type(dwIndex, pTemp) );

  00050	8b 54 24 40	 mov	 edx, DWORD PTR _dwIndex$[esp+56]
  00054	8d 44 24 0c	 lea	 eax, DWORD PTR _pTemp$226092[esp+60]
  00058	50		 push	 eax
  00059	8d 4c 24 24	 lea	 ecx, DWORD PTR $T238791[esp+68]
  0005d	89 54 24 20	 mov	 DWORD PTR $T238791[esp+64], edx
  00061	e8 00 00 00 00	 call	 ??0?$vector@U_VECINFO@@V?$allocator@U_VECINFO@@@std@@@std@@QAE@ABV01@@Z ; std::vector<_VECINFO,std::allocator<_VECINFO> >::vector<_VECINFO,std::allocator<_VECINFO> >
  00066	8d 4c 24 1c	 lea	 ecx, DWORD PTR $T238791[esp+60]
  0006a	51		 push	 ecx
  0006b	8d 54 24 08	 lea	 edx, DWORD PTR $T238792[esp+64]
  0006f	52		 push	 edx
  00070	8b ce		 mov	 ecx, esi
  00072	c6 44 24 40 01	 mov	 BYTE PTR __$EHRec$[esp+76], 1
  00077	e8 00 00 00 00	 call	 ?insert@?$_Tree@V?$_Tmap_traits@KV?$vector@U_VECINFO@@V?$allocator@U_VECINFO@@@std@@@std@@U?$less@K@2@V?$allocator@U?$pair@$$CBKV?$vector@U_VECINFO@@V?$allocator@U_VECINFO@@@std@@@std@@@std@@@2@$0A@@std@@@std@@QAE?AU?$pair@Viterator@?$_Tree@V?$_Tmap_traits@KV?$vector@U_VECINFO@@V?$allocator@U_VECINFO@@@std@@@std@@U?$less@K@2@V?$allocator@U?$pair@$$CBKV?$vector@U_VECINFO@@V?$allocator@U_VECINFO@@@std@@@std@@@std@@@2@$0A@@std@@@std@@_N@2@ABU?$pair@$$CBKV?$vector@U_VECINFO@@V?$allocator@U_VECINFO@@@std@@@std@@@2@@Z ; std::_Tree<std::_Tmap_traits<unsigned long,std::vector<_VECINFO,std::allocator<_VECINFO> >,std::less<unsigned long>,std::allocator<std::pair<unsigned long const ,std::vector<_VECINFO,std::allocator<_VECINFO> > > >,0> >::insert
  0007c	8d 4c 24 20	 lea	 ecx, DWORD PTR $T238791[esp+64]
  00080	e8 00 00 00 00	 call	 ?_Tidy@?$vector@U_VECINFO@@V?$allocator@U_VECINFO@@@std@@@std@@IAEXXZ ; std::vector<_VECINFO,std::allocator<_VECINFO> >::_Tidy

; 134  : 	}	

  00085	8d 4c 24 0c	 lea	 ecx, DWORD PTR _pTemp$226092[esp+60]
  00089	e8 00 00 00 00	 call	 ?_Tidy@?$vector@U_VECINFO@@V?$allocator@U_VECINFO@@@std@@@std@@IAEXXZ ; std::vector<_VECINFO,std::allocator<_VECINFO> >::_Tidy
$L238920:

; 135  : }

  0008e	8b 4c 24 30	 mov	 ecx, DWORD PTR __$EHRec$[esp+60]
  00092	5e		 pop	 esi
  00093	64 89 0d 00 00
	00 00		 mov	 DWORD PTR fs:__except_list, ecx
  0009a	83 c4 38	 add	 esp, 56			; 00000038H
  0009d	c2 04 00	 ret	 4
_TEXT	ENDS
;	COMDAT text$x
text$x	SEGMENT
$L238793:
  00000	8d 4d d0	 lea	 ecx, DWORD PTR _pTemp$226092[ebp]
  00003	e9 00 00 00 00	 jmp	 ??1?$vector@U_VECINFO@@V?$allocator@U_VECINFO@@@std@@@std@@QAE@XZ ; std::vector<_VECINFO,std::allocator<_VECINFO> >::~vector<_VECINFO,std::allocator<_VECINFO> >
$L238794:
  00008	8d 4d e0	 lea	 ecx, DWORD PTR $T238791[ebp]
  0000b	e9 00 00 00 00	 jmp	 ??1?$pair@$$CBKV?$vector@U_VECINFO@@V?$allocator@U_VECINFO@@@std@@@std@@@std@@QAE@XZ
__ehhandler$?AddPatrolIndex@CPatrolPath@@QAEXK@Z:
  00010	b8 00 00 00 00	 mov	 eax, OFFSET FLAT:$T238923
  00015	e9 00 00 00 00	 jmp	 ___CxxFrameHandler
text$x	ENDS
?AddPatrolIndex@CPatrolPath@@QAEXK@Z ENDP		; CPatrolPath::AddPatrolIndex
PUBLIC	?clear@?$_Tree@V?$_Tmap_traits@KV?$vector@U_VECINFO@@V?$allocator@U_VECINFO@@@std@@@std@@U?$less@K@2@V?$allocator@U?$pair@$$CBKV?$vector@U_VECINFO@@V?$allocator@U_VECINFO@@@std@@@std@@@std@@@2@$0A@@std@@@std@@QAEXXZ ; std::_Tree<std::_Tmap_traits<unsigned long,std::vector<_VECINFO,std::allocator<_VECINFO> >,std::less<unsigned long>,std::allocator<std::pair<unsigned long const ,std::vector<_VECINFO,std::allocator<_VECINFO> > > >,0> >::clear
; Function compile flags: /Ogty
; File c:\program files\microsoft visual studio .net 2003\vc7\include\xtree
;	COMDAT ?clear@?$_Tree@V?$_Tmap_traits@KV?$vector@U_VECINFO@@V?$allocator@U_VECINFO@@@std@@@std@@U?$less@K@2@V?$allocator@U?$pair@$$CBKV?$vector@U_VECINFO@@V?$allocator@U_VECINFO@@@std@@@std@@@std@@@2@$0A@@std@@@std@@QAEXXZ
_TEXT	SEGMENT
?clear@?$_Tree@V?$_Tmap_traits@KV?$vector@U_VECINFO@@V?$allocator@U_VECINFO@@@std@@@std@@U?$less@K@2@V?$allocator@U?$pair@$$CBKV?$vector@U_VECINFO@@V?$allocator@U_VECINFO@@@std@@@std@@@std@@@2@$0A@@std@@@std@@QAEXXZ PROC NEAR ; std::_Tree<std::_Tmap_traits<unsigned long,std::vector<_VECINFO,std::allocator<_VECINFO> >,std::less<unsigned long>,std::allocator<std::pair<unsigned long const ,std::vector<_VECINFO,std::allocator<_VECINFO> > > >,0> >::clear, COMDAT
; _this$ = ecx

; 780  : 		{	// erase all

  00000	56		 push	 esi
  00001	8b f1		 mov	 esi, ecx

; 781  : 		_Erase(_Root());

  00003	8b 46 04	 mov	 eax, DWORD PTR [esi+4]
  00006	8b 48 04	 mov	 ecx, DWORD PTR [eax+4]
  00009	51		 push	 ecx
  0000a	8b ce		 mov	 ecx, esi
  0000c	e8 00 00 00 00	 call	 ?_Erase@?$_Tree@V?$_Tmap_traits@KV?$vector@U_VECINFO@@V?$allocator@U_VECINFO@@@std@@@std@@U?$less@K@2@V?$allocator@U?$pair@$$CBKV?$vector@U_VECINFO@@V?$allocator@U_VECINFO@@@std@@@std@@@std@@@2@$0A@@std@@@std@@IAEXPAU_Node@?$_Tree_nod@V?$_Tmap_traits@KV?$vector@U_VECINFO@@V?$allocator@U_VECINFO@@@std@@@std@@U?$less@K@2@V?$allocator@U?$pair@$$CBKV?$vector@U_VECINFO@@V?$allocator@U_VECINFO@@@std@@@std@@@std@@@2@$0A@@std@@@2@@Z ; std::_Tree<std::_Tmap_traits<unsigned long,std::vector<_VECINFO,std::allocator<_VECINFO> >,std::less<unsigned long>,std::allocator<std::pair<unsigned long const ,std::vector<_VECINFO,std::allocator<_VECINFO> > > >,0> >::_Erase

; 782  : 		_Root() = _Myhead, _Mysize = 0;

  00011	8b 46 04	 mov	 eax, DWORD PTR [esi+4]
  00014	89 40 04	 mov	 DWORD PTR [eax+4], eax

; 783  : 		_Lmost() = _Myhead, _Rmost() = _Myhead;

  00017	8b 46 04	 mov	 eax, DWORD PTR [esi+4]
  0001a	c7 46 08 00 00
	00 00		 mov	 DWORD PTR [esi+8], 0
  00021	89 00		 mov	 DWORD PTR [eax], eax
  00023	8b 76 04	 mov	 esi, DWORD PTR [esi+4]
  00026	89 76 08	 mov	 DWORD PTR [esi+8], esi
  00029	5e		 pop	 esi

; 784  : 		}

  0002a	c3		 ret	 0
?clear@?$_Tree@V?$_Tmap_traits@KV?$vector@U_VECINFO@@V?$allocator@U_VECINFO@@@std@@@std@@U?$less@K@2@V?$allocator@U?$pair@$$CBKV?$vector@U_VECINFO@@V?$allocator@U_VECINFO@@@std@@@std@@@std@@@2@$0A@@std@@@std@@QAEXXZ ENDP ; std::_Tree<std::_Tmap_traits<unsigned long,std::vector<_VECINFO,std::allocator<_VECINFO> >,std::less<unsigned long>,std::allocator<std::pair<unsigned long const ,std::vector<_VECINFO,std::allocator<_VECINFO> > > >,0> >::clear
_TEXT	ENDS
PUBLIC	?erase@?$_Tree@V?$_Tmap_traits@KV?$vector@U_VECINFO@@V?$allocator@U_VECINFO@@@std@@@std@@U?$less@K@2@V?$allocator@U?$pair@$$CBKV?$vector@U_VECINFO@@V?$allocator@U_VECINFO@@@std@@@std@@@std@@@2@$0A@@std@@@std@@QAE?AViterator@12@V312@0@Z ; std::_Tree<std::_Tmap_traits<unsigned long,std::vector<_VECINFO,std::allocator<_VECINFO> >,std::less<unsigned long>,std::allocator<std::pair<unsigned long const ,std::vector<_VECINFO,std::allocator<_VECINFO> > > >,0> >::erase
; Function compile flags: /Ogty
;	COMDAT ?erase@?$_Tree@V?$_Tmap_traits@KV?$vector@U_VECINFO@@V?$allocator@U_VECINFO@@@std@@@std@@U?$less@K@2@V?$allocator@U?$pair@$$CBKV?$vector@U_VECINFO@@V?$allocator@U_VECINFO@@@std@@@std@@@std@@@2@$0A@@std@@@std@@QAE?AViterator@12@V312@0@Z
_TEXT	SEGMENT
___$ReturnUdt$ = 8					; size = 4
$T238970 = 12						; size = 4
__First$ = 12						; size = 4
__Last$ = 16						; size = 4
?erase@?$_Tree@V?$_Tmap_traits@KV?$vector@U_VECINFO@@V?$allocator@U_VECINFO@@@std@@@std@@U?$less@K@2@V?$allocator@U?$pair@$$CBKV?$vector@U_VECINFO@@V?$allocator@U_VECINFO@@@std@@@std@@@std@@@2@$0A@@std@@@std@@QAE?AViterator@12@V312@0@Z PROC NEAR ; std::_Tree<std::_Tmap_traits<unsigned long,std::vector<_VECINFO,std::allocator<_VECINFO> >,std::less<unsigned long>,std::allocator<std::pair<unsigned long const ,std::vector<_VECINFO,std::allocator<_VECINFO> > > >,0> >::erase, COMDAT
; _this$ = ecx

; 750  : 		{	// erase [_First, _Last)

  00000	53		 push	 ebx

; 751  : 		if (_First == begin() && _Last == end())

  00001	8b 5c 24 10	 mov	 ebx, DWORD PTR __Last$[esp]
  00005	56		 push	 esi
  00006	8b 74 24 10	 mov	 esi, DWORD PTR __First$[esp+4]
  0000a	57		 push	 edi
  0000b	8b f9		 mov	 edi, ecx
  0000d	8b 47 04	 mov	 eax, DWORD PTR [edi+4]
  00010	3b 30		 cmp	 esi, DWORD PTR [eax]
  00012	75 38		 jne	 SHORT $L239302
  00014	3b d8		 cmp	 ebx, eax
  00016	75 34		 jne	 SHORT $L239302

; 752  : 			{	// erase all
; 753  : 			clear();

  00018	8b 40 04	 mov	 eax, DWORD PTR [eax+4]
  0001b	50		 push	 eax
  0001c	8b cf		 mov	 ecx, edi
  0001e	e8 00 00 00 00	 call	 ?_Erase@?$_Tree@V?$_Tmap_traits@KV?$vector@U_VECINFO@@V?$allocator@U_VECINFO@@@std@@@std@@U?$less@K@2@V?$allocator@U?$pair@$$CBKV?$vector@U_VECINFO@@V?$allocator@U_VECINFO@@@std@@@std@@@std@@@2@$0A@@std@@@std@@IAEXPAU_Node@?$_Tree_nod@V?$_Tmap_traits@KV?$vector@U_VECINFO@@V?$allocator@U_VECINFO@@@std@@@std@@U?$less@K@2@V?$allocator@U?$pair@$$CBKV?$vector@U_VECINFO@@V?$allocator@U_VECINFO@@@std@@@std@@@std@@@2@$0A@@std@@@2@@Z ; std::_Tree<std::_Tmap_traits<unsigned long,std::vector<_VECINFO,std::allocator<_VECINFO> >,std::less<unsigned long>,std::allocator<std::pair<unsigned long const ,std::vector<_VECINFO,std::allocator<_VECINFO> > > >,0> >::_Erase
  00023	8b 47 04	 mov	 eax, DWORD PTR [edi+4]
  00026	89 40 04	 mov	 DWORD PTR [eax+4], eax
  00029	8b 47 04	 mov	 eax, DWORD PTR [edi+4]
  0002c	c7 47 08 00 00
	00 00		 mov	 DWORD PTR [edi+8], 0
  00033	89 00		 mov	 DWORD PTR [eax], eax
  00035	8b 47 04	 mov	 eax, DWORD PTR [edi+4]
  00038	89 40 08	 mov	 DWORD PTR [eax+8], eax

; 754  : 			return (begin());

  0003b	8b 4f 04	 mov	 ecx, DWORD PTR [edi+4]
  0003e	8b 11		 mov	 edx, DWORD PTR [ecx]
  00040	8b 44 24 10	 mov	 eax, DWORD PTR ___$ReturnUdt$[esp+8]
  00044	5f		 pop	 edi
  00045	5e		 pop	 esi
  00046	89 10		 mov	 DWORD PTR [eax], edx
  00048	5b		 pop	 ebx

; 761  : 			}
; 762  : 		}

  00049	c2 0c 00	 ret	 12			; 0000000cH
$L239302:

; 755  : 			}
; 756  : 		else
; 757  : 			{	// partial erase, one at a time
; 758  : 			while (_First != _Last)

  0004c	3b f3		 cmp	 esi, ebx
  0004e	74 5b		 je	 SHORT $L226957
$L226956:

; 759  : 				erase(_First++);

  00050	8a 46 21	 mov	 al, BYTE PTR [esi+33]
  00053	84 c0		 test	 al, al
  00055	8b ce		 mov	 ecx, esi
  00057	75 41		 jne	 SHORT $L239294
  00059	8b 46 08	 mov	 eax, DWORD PTR [esi+8]
  0005c	8a 50 21	 mov	 dl, BYTE PTR [eax+33]
  0005f	84 d2		 test	 dl, dl
  00061	75 1a		 jne	 SHORT $L239304
  00063	8b f0		 mov	 esi, eax
  00065	8b 06		 mov	 eax, DWORD PTR [esi]
  00067	8a 50 21	 mov	 dl, BYTE PTR [eax+33]
  0006a	84 d2		 test	 dl, dl
  0006c	75 2c		 jne	 SHORT $L239294
  0006e	8b ff		 npad	 2
$L239282:
  00070	8b f0		 mov	 esi, eax
  00072	8b 06		 mov	 eax, DWORD PTR [esi]
  00074	8a 50 21	 mov	 dl, BYTE PTR [eax+33]
  00077	84 d2		 test	 dl, dl
  00079	74 f5		 je	 SHORT $L239282
  0007b	eb 1d		 jmp	 SHORT $L239294
$L239304:
  0007d	8b 46 04	 mov	 eax, DWORD PTR [esi+4]
  00080	8a 50 21	 mov	 dl, BYTE PTR [eax+33]
  00083	84 d2		 test	 dl, dl
  00085	75 11		 jne	 SHORT $L239297
$L239296:
  00087	3b 70 08	 cmp	 esi, DWORD PTR [eax+8]
  0008a	75 0c		 jne	 SHORT $L239297
  0008c	8b f0		 mov	 esi, eax
  0008e	8b 40 04	 mov	 eax, DWORD PTR [eax+4]
  00091	8a 50 21	 mov	 dl, BYTE PTR [eax+33]
  00094	84 d2		 test	 dl, dl
  00096	74 ef		 je	 SHORT $L239296
$L239297:
  00098	8b f0		 mov	 esi, eax
$L239294:
  0009a	51		 push	 ecx
  0009b	8d 44 24 18	 lea	 eax, DWORD PTR $T238970[esp+12]
  0009f	50		 push	 eax
  000a0	8b cf		 mov	 ecx, edi
  000a2	e8 00 00 00 00	 call	 ?erase@?$_Tree@V?$_Tmap_traits@KV?$vector@U_VECINFO@@V?$allocator@U_VECINFO@@@std@@@std@@U?$less@K@2@V?$allocator@U?$pair@$$CBKV?$vector@U_VECINFO@@V?$allocator@U_VECINFO@@@std@@@std@@@std@@@2@$0A@@std@@@std@@QAE?AViterator@12@V312@@Z ; std::_Tree<std::_Tmap_traits<unsigned long,std::vector<_VECINFO,std::allocator<_VECINFO> >,std::less<unsigned long>,std::allocator<std::pair<unsigned long const ,std::vector<_VECINFO,std::allocator<_VECINFO> > > >,0> >::erase
  000a7	3b f3		 cmp	 esi, ebx
  000a9	75 a5		 jne	 SHORT $L226956
$L226957:

; 760  : 			return (_First);

  000ab	8b 44 24 10	 mov	 eax, DWORD PTR ___$ReturnUdt$[esp+8]
  000af	5f		 pop	 edi
  000b0	89 30		 mov	 DWORD PTR [eax], esi
  000b2	5e		 pop	 esi
  000b3	5b		 pop	 ebx

; 761  : 			}
; 762  : 		}

  000b4	c2 0c 00	 ret	 12			; 0000000cH
?erase@?$_Tree@V?$_Tmap_traits@KV?$vector@U_VECINFO@@V?$allocator@U_VECINFO@@@std@@@std@@U?$less@K@2@V?$allocator@U?$pair@$$CBKV?$vector@U_VECINFO@@V?$allocator@U_VECINFO@@@std@@@std@@@std@@@2@$0A@@std@@@std@@QAE?AViterator@12@V312@0@Z ENDP ; std::_Tree<std::_Tmap_traits<unsigned long,std::vector<_VECINFO,std::allocator<_VECINFO> >,std::less<unsigned long>,std::allocator<std::pair<unsigned long const ,std::vector<_VECINFO,std::allocator<_VECINFO> > > >,0> >::erase
_TEXT	ENDS
PUBLIC	?Clear@CPatrolPath@@QAEXXZ			; CPatrolPath::Clear
; Function compile flags: /Ogty
; File c:\documents and settings\test\mes documents\source\virtuos_v17\build\program\_common\pathobj.cpp
;	COMDAT ?Clear@CPatrolPath@@QAEXXZ
_TEXT	SEGMENT
?Clear@CPatrolPath@@QAEXXZ PROC NEAR			; CPatrolPath::Clear, COMDAT
; _this$ = ecx

; 17   : {

  00000	56		 push	 esi
  00001	8b f1		 mov	 esi, ecx

; 18   : 	m_mapPatrolPath.clear();

  00003	8b 46 04	 mov	 eax, DWORD PTR [esi+4]
  00006	8b 48 04	 mov	 ecx, DWORD PTR [eax+4]
  00009	51		 push	 ecx
  0000a	8b ce		 mov	 ecx, esi
  0000c	e8 00 00 00 00	 call	 ?_Erase@?$_Tree@V?$_Tmap_traits@KV?$vector@U_VECINFO@@V?$allocator@U_VECINFO@@@std@@@std@@U?$less@K@2@V?$allocator@U?$pair@$$CBKV?$vector@U_VECINFO@@V?$allocator@U_VECINFO@@@std@@@std@@@std@@@2@$0A@@std@@@std@@IAEXPAU_Node@?$_Tree_nod@V?$_Tmap_traits@KV?$vector@U_VECINFO@@V?$allocator@U_VECINFO@@@std@@@std@@U?$less@K@2@V?$allocator@U?$pair@$$CBKV?$vector@U_VECINFO@@V?$allocator@U_VECINFO@@@std@@@std@@@std@@@2@$0A@@std@@@2@@Z ; std::_Tree<std::_Tmap_traits<unsigned long,std::vector<_VECINFO,std::allocator<_VECINFO> >,std::less<unsigned long>,std::allocator<std::pair<unsigned long const ,std::vector<_VECINFO,std::allocator<_VECINFO> > > >,0> >::_Erase
  00011	8b 46 04	 mov	 eax, DWORD PTR [esi+4]
  00014	89 40 04	 mov	 DWORD PTR [eax+4], eax
  00017	8b 46 04	 mov	 eax, DWORD PTR [esi+4]
  0001a	c7 46 08 00 00
	00 00		 mov	 DWORD PTR [esi+8], 0
  00021	89 00		 mov	 DWORD PTR [eax], eax
  00023	8b 46 04	 mov	 eax, DWORD PTR [esi+4]
  00026	89 40 08	 mov	 DWORD PTR [eax+8], eax

; 19   : 	m_bReturn.clear();

  00029	8b 56 10	 mov	 edx, DWORD PTR [esi+16]
  0002c	8b 42 04	 mov	 eax, DWORD PTR [edx+4]
  0002f	83 c6 0c	 add	 esi, 12			; 0000000cH
  00032	50		 push	 eax
  00033	8b ce		 mov	 ecx, esi
  00035	e8 00 00 00 00	 call	 ?_Erase@?$_Tree@V?$_Tmap_traits@KHU?$less@K@std@@V?$allocator@U?$pair@$$CBKH@std@@@2@$0A@@std@@@std@@IAEXPAU_Node@?$_Tree_nod@V?$_Tmap_traits@KHU?$less@K@std@@V?$allocator@U?$pair@$$CBKH@std@@@2@$0A@@std@@@2@@Z ; std::_Tree<std::_Tmap_traits<unsigned long,int,std::less<unsigned long>,std::allocator<std::pair<unsigned long const ,int> >,0> >::_Erase
  0003a	8b 46 04	 mov	 eax, DWORD PTR [esi+4]
  0003d	89 40 04	 mov	 DWORD PTR [eax+4], eax
  00040	8b 46 04	 mov	 eax, DWORD PTR [esi+4]
  00043	c7 46 08 00 00
	00 00		 mov	 DWORD PTR [esi+8], 0
  0004a	89 00		 mov	 DWORD PTR [eax], eax
  0004c	8b 76 04	 mov	 esi, DWORD PTR [esi+4]
  0004f	89 76 08	 mov	 DWORD PTR [esi+8], esi
  00052	5e		 pop	 esi

; 20   : }

  00053	c3		 ret	 0
?Clear@CPatrolPath@@QAEXXZ ENDP				; CPatrolPath::Clear
_TEXT	ENDS
PUBLIC	??_C@_05JBOMLEMN@INDEX?$AA@			; `string'
PUBLIC	??_C@_01CELHOKLL@?$HN?$AA@			; `string'
PUBLIC	?LoadPatrol@CPatrolPath@@QAEHPBD@Z		; CPatrolPath::LoadPatrol
EXTRN	___security_cookie:DWORD
EXTRN	@__security_check_cookie@4:NEAR
EXTRN	_D3DXVec3Normalize@8:NEAR
EXTRN	?GetNumber@CScanner@@QAEHH@Z:NEAR		; CScanner::GetNumber
EXTRN	?GetFloat@CScanner@@QAEMH@Z:NEAR		; CScanner::GetFloat
EXTRN	??0CScript@@QAE@H@Z:NEAR			; CScript::CScript
EXTRN	??1CScript@@UAE@XZ:NEAR				; CScript::~CScript
EXTRN	?Load@CScript@@QAEHPBDHH@Z:NEAR			; CScript::Load
EXTRN	?GetToken@CScript@@UAEHH@Z:NEAR			; CScript::GetToken
;	COMDAT xdata$x
; File c:\program files\microsoft visual studio .net 2003\vc7\include\xmemory
xdata$x	SEGMENT
$T239821 DD	0ffffffffH
	DD	FLAT:$L239424
	DD	00H
	DD	FLAT:$L239425
	DD	01H
	DD	FLAT:$L239426
	DD	02H
	DD	FLAT:$L239427
$T239812 DD	019930520H
	DD	04H
	DD	FLAT:$T239821
	DD	2 DUP(00H)
	DD	2 DUP(00H)
xdata$x	ENDS
;	COMDAT ??_C@_05JBOMLEMN@INDEX?$AA@
CONST	SEGMENT
??_C@_05JBOMLEMN@INDEX?$AA@ DB 'INDEX', 00H		; `string'
CONST	ENDS
;	COMDAT ??_C@_01CELHOKLL@?$HN?$AA@
CONST	SEGMENT
??_C@_01CELHOKLL@?$HN?$AA@ DB '}', 00H			; `string'
; Function compile flags: /Ogty
; File c:\documents and settings\test\mes documents\source\virtuos_v17\build\program\_common\pathobj.cpp
CONST	ENDS
;	COMDAT ?LoadPatrol@CPatrolPath@@QAEHPBD@Z
_TEXT	SEGMENT
$T239421 = -3744					; size = 4
$T239420 = -3744					; size = 4
_nCount$226133 = -3744					; size = 4
_v3Dir$226143 = -3740					; size = 12
_v3PosList$226125 = -3728				; size = 16
_v3Pos2$226142 = -3712					; size = 12
_v3Pos1$226141 = -3700					; size = 12
_vecInfo$226126 = -3688					; size = 56
_vecInfoBackup$226127 = -3632				; size = 56
_v3Pos$226123 = -3572					; size = 12
_s$ = -3560						; size = 3536
__$ArrayPad$ = -20					; size = 4
__$EHRec$ = -12						; size = 12
__$ReturnAddr$ = 4					; size = 4
_szFileName$ = 8					; size = 4
?LoadPatrol@CPatrolPath@@QAEHPBD@Z PROC NEAR		; CPatrolPath::LoadPatrol, COMDAT
; _this$ = ecx

; 152  : {

  00000	55		 push	 ebp
  00001	8b ec		 mov	 ebp, esp
  00003	83 e4 f8	 and	 esp, -8			; fffffff8H
  00006	6a ff		 push	 -1
  00008	68 00 00 00 00	 push	 __ehhandler$?LoadPatrol@CPatrolPath@@QAEHPBD@Z
  0000d	64 a1 00 00 00
	00		 mov	 eax, DWORD PTR fs:__except_list
  00013	50		 push	 eax
  00014	64 89 25 00 00
	00 00		 mov	 DWORD PTR fs:__except_list, esp
  0001b	81 ec 98 0e 00
	00		 sub	 esp, 3736		; 00000e98H
  00021	a1 00 00 00 00	 mov	 eax, DWORD PTR ___security_cookie
  00026	53		 push	 ebx
  00027	56		 push	 esi
  00028	8b 75 08	 mov	 esi, DWORD PTR _szFileName$[ebp]
  0002b	57		 push	 edi
  0002c	33 c5		 xor	 eax, ebp
  0002e	8b d9		 mov	 ebx, ecx

; 153  : 	CScript s;

  00030	33 ff		 xor	 edi, edi
  00032	57		 push	 edi
  00033	8d 8c 24 cc 00
	00 00		 lea	 ecx, DWORD PTR _s$[esp+3764]
  0003a	89 84 24 a0 0e
	00 00		 mov	 DWORD PTR __$ArrayPad$[esp+3764], eax
  00041	e8 00 00 00 00	 call	 ??0CScript@@QAE@H@Z	; CScript::CScript

; 154  : 	if( s.Load( szFileName, FALSE ) )

  00046	57		 push	 edi
  00047	57		 push	 edi
  00048	56		 push	 esi
  00049	8d 8c 24 d4 00
	00 00		 lea	 ecx, DWORD PTR _s$[esp+3772]
  00050	89 bc 24 b8 0e
	00 00		 mov	 DWORD PTR __$EHRec$[esp+3780], edi
  00057	e8 00 00 00 00	 call	 ?Load@CScript@@QAEHPBDHH@Z ; CScript::Load
  0005c	85 c0		 test	 eax, eax
  0005e	0f 84 2e 04 00
	00		 je	 $L226121

; 155  : 	{
; 156  : 		Clear();

  00064	8b cb		 mov	 ecx, ebx
  00066	e8 00 00 00 00	 call	 ?Clear@CPatrolPath@@QAEXXZ ; CPatrolPath::Clear

; 157  : 		
; 158  : 		DWORD nIndex = 0;
; 159  : 		D3DXVECTOR3 v3Pos;
; 160  : 		vector<D3DXVECTOR3> v3PosList;

  0006b	33 c0		 xor	 eax, eax
  0006d	33 f6		 xor	 esi, esi
  0006f	89 74 24 24	 mov	 DWORD PTR _v3PosList$226125[esp+3764], esi
  00073	89 44 24 28	 mov	 DWORD PTR _v3PosList$226125[esp+3768], eax
  00077	89 44 24 2c	 mov	 DWORD PTR _v3PosList$226125[esp+3772], eax

; 161  : 		_VECINFO vecInfo;

  0007b	8d 4c 24 60	 lea	 ecx, DWORD PTR _vecInfo$226126[esp+3784]
  0007f	c6 84 24 ac 0e
	00 00 01	 mov	 BYTE PTR __$EHRec$[esp+3768], 1
  00087	e8 00 00 00 00	 call	 ??0CTimer@@QAE@XZ	; CTimer::CTimer

; 162  : 		_VECINFO vecInfoBackup;

  0008c	8d 8c 24 98 00
	00 00		 lea	 ecx, DWORD PTR _vecInfoBackup$226127[esp+3784]
  00093	c6 84 24 ac 0e
	00 00 02	 mov	 BYTE PTR __$EHRec$[esp+3768], 2
  0009b	e8 00 00 00 00	 call	 ??0CTimer@@QAE@XZ	; CTimer::CTimer

; 163  : 		
; 164  : 		s.GetToken();

  000a0	56		 push	 esi
  000a1	8d 8c 24 cc 00
	00 00		 lea	 ecx, DWORD PTR _s$[esp+3764]
  000a8	c6 84 24 b0 0e
	00 00 03	 mov	 BYTE PTR __$EHRec$[esp+3772], 3
  000b0	e8 00 00 00 00	 call	 ?GetToken@CScript@@UAEHH@Z ; CScript::GetToken

; 165  : 		
; 166  : 		while( s.tok != FINISHED )

  000b5	83 bc 24 f4 08
	00 00 15	 cmp	 DWORD PTR _s$[esp+5852], 21 ; 00000015H
  000bd	0f 84 94 03 00
	00		 je	 $L226130
$L226129:

; 167  : 		{
; 168  : 			if( s.Token == _T( "INDEX" ) )

  000c3	8b 84 24 e8 00
	00 00		 mov	 eax, DWORD PTR _s$[esp+3792]
  000ca	68 00 00 00 00	 push	 OFFSET FLAT:??_C@_05JBOMLEMN@INDEX?$AA@
  000cf	50		 push	 eax
  000d0	e8 00 00 00 00	 call	 __mbscmp
  000d5	83 c4 08	 add	 esp, 8
  000d8	85 c0		 test	 eax, eax
  000da	75 34		 jne	 SHORT $L226131

; 169  : 			{
; 170  : 				v3PosList.clear();

  000dc	33 ff		 xor	 edi, edi
  000de	3b f7		 cmp	 esi, edi
  000e0	74 09		 je	 SHORT $L239575
  000e2	56		 push	 esi
  000e3	e8 00 00 00 00	 call	 ??3@YAXPAX@Z		; operator delete
  000e8	83 c4 04	 add	 esp, 4
$L239575:
  000eb	33 f6		 xor	 esi, esi

; 171  : 				nIndex = s.GetNumber();

  000ed	57		 push	 edi
  000ee	8d 8c 24 cc 00
	00 00		 lea	 ecx, DWORD PTR _s$[esp+3764]
  000f5	89 74 24 28	 mov	 DWORD PTR _v3PosList$226125[esp+3768], esi
  000f9	89 7c 24 2c	 mov	 DWORD PTR _v3PosList$226125[esp+3772], edi
  000fd	89 7c 24 30	 mov	 DWORD PTR _v3PosList$226125[esp+3776], edi
  00101	e8 00 00 00 00	 call	 ?GetNumber@CScanner@@QAEHH@Z ; CScanner::GetNumber
  00106	8b f8		 mov	 edi, eax

; 172  : 				AddPatrolIndex( nIndex );

  00108	57		 push	 edi
  00109	8b cb		 mov	 ecx, ebx
  0010b	e8 00 00 00 00	 call	 ?AddPatrolIndex@CPatrolPath@@QAEXK@Z ; CPatrolPath::AddPatrolIndex
$L226131:

; 173  : 			}
; 174  : 			
; 175  : 			s.GetToken();

  00110	6a 00		 push	 0
  00112	8d 8c 24 cc 00
	00 00		 lea	 ecx, DWORD PTR _s$[esp+3764]
  00119	e8 00 00 00 00	 call	 ?GetToken@CScript@@UAEHH@Z ; CScript::GetToken

; 176  : 			
; 177  : 			int nCount = s.GetNumber();

  0011e	6a 00		 push	 0
  00120	8d 8c 24 cc 00
	00 00		 lea	 ecx, DWORD PTR _s$[esp+3764]
  00127	e8 00 00 00 00	 call	 ?GetNumber@CScanner@@QAEHH@Z ; CScanner::GetNumber

; 178  : 			
; 179  : 			while( s.Token != _T( "}" ) )

  0012c	8b 8c 24 e8 00
	00 00		 mov	 ecx, DWORD PTR _s$[esp+3792]
  00133	68 00 00 00 00	 push	 OFFSET FLAT:??_C@_01CELHOKLL@?$HN?$AA@
  00138	51		 push	 ecx
  00139	89 44 24 18	 mov	 DWORD PTR _nCount$226133[esp+3768], eax
  0013d	e8 00 00 00 00	 call	 __mbscmp
  00142	83 c4 08	 add	 esp, 8
  00145	85 c0		 test	 eax, eax
  00147	0f 84 d6 01 00
	00		 je	 $L226136
  0014d	8d 49 00	 npad	 3
$L226135:

; 180  : 			{
; 181  : 				v3Pos.x = s.GetFloat();

  00150	6a 00		 push	 0
  00152	8d 8c 24 cc 00
	00 00		 lea	 ecx, DWORD PTR _s$[esp+3764]
  00159	e8 00 00 00 00	 call	 ?GetFloat@CScanner@@QAEMH@Z ; CScanner::GetFloat
  0015e	d9 9c 24 bc 00
	00 00		 fstp	 DWORD PTR _v3Pos$226123[esp+3760]

; 182  : 				v3Pos.y = s.GetFloat();

  00165	6a 00		 push	 0
  00167	8d 8c 24 cc 00
	00 00		 lea	 ecx, DWORD PTR _s$[esp+3764]
  0016e	e8 00 00 00 00	 call	 ?GetFloat@CScanner@@QAEMH@Z ; CScanner::GetFloat
  00173	d9 9c 24 c0 00
	00 00		 fstp	 DWORD PTR _v3Pos$226123[esp+3764]

; 183  : 				v3Pos.z = s.GetFloat();

  0017a	6a 00		 push	 0
  0017c	8d 8c 24 cc 00
	00 00		 lea	 ecx, DWORD PTR _s$[esp+3764]
  00183	e8 00 00 00 00	 call	 ?GetFloat@CScanner@@QAEMH@Z ; CScanner::GetFloat
  00188	d9 9c 24 c4 00
	00 00		 fstp	 DWORD PTR _v3Pos$226123[esp+3768]

; 184  : 
; 185  : 				v3PosList.push_back( v3Pos );

  0018f	8d 94 24 bc 00
	00 00		 lea	 edx, DWORD PTR _v3Pos$226123[esp+3760]
  00196	52		 push	 edx
  00197	8d 4c 24 24	 lea	 ecx, DWORD PTR _v3PosList$226125[esp+3764]
  0019b	e8 00 00 00 00	 call	 ?push_back@?$vector@UD3DXVECTOR3@@V?$allocator@UD3DXVECTOR3@@@std@@@std@@QAEXABUD3DXVECTOR3@@@Z ; std::vector<D3DXVECTOR3,std::allocator<D3DXVECTOR3> >::push_back

; 186  : 				
; 187  : 				if( nCount != 0 )

  001a0	8b 74 24 10	 mov	 esi, DWORD PTR _nCount$226133[esp+3760]
  001a4	85 f6		 test	 esi, esi
  001a6	0f 84 dc 00 00
	00		 je	 $L226138

; 188  : 				{
; 189  : 					vecInfo.m_vDir.x = s.GetFloat();

  001ac	6a 00		 push	 0
  001ae	8d 8c 24 cc 00
	00 00		 lea	 ecx, DWORD PTR _s$[esp+3764]
  001b5	e8 00 00 00 00	 call	 ?GetFloat@CScanner@@QAEMH@Z ; CScanner::GetFloat
  001ba	d9 5c 24 48	 fstp	 DWORD PTR _vecInfo$226126[esp+3760]

; 190  : 					vecInfo.m_vDir.y = s.GetFloat();

  001be	6a 00		 push	 0
  001c0	8d 8c 24 cc 00
	00 00		 lea	 ecx, DWORD PTR _s$[esp+3764]
  001c7	e8 00 00 00 00	 call	 ?GetFloat@CScanner@@QAEMH@Z ; CScanner::GetFloat
  001cc	d9 5c 24 4c	 fstp	 DWORD PTR _vecInfo$226126[esp+3764]

; 191  : 					vecInfo.m_vDir.z = s.GetFloat();

  001d0	6a 00		 push	 0
  001d2	8d 8c 24 cc 00
	00 00		 lea	 ecx, DWORD PTR _s$[esp+3764]
  001d9	e8 00 00 00 00	 call	 ?GetFloat@CScanner@@QAEMH@Z ; CScanner::GetFloat
  001de	d9 5c 24 50	 fstp	 DWORD PTR _vecInfo$226126[esp+3768]

; 192  : 					vecInfo.m_dwState = s.GetNumber();

  001e2	6a 00		 push	 0
  001e4	8d 8c 24 cc 00
	00 00		 lea	 ecx, DWORD PTR _s$[esp+3764]
  001eb	e8 00 00 00 00	 call	 ?GetNumber@CScanner@@QAEHH@Z ; CScanner::GetNumber

; 193  : 					vecInfo.m_dwDelay = s.GetNumber();

  001f0	6a 00		 push	 0
  001f2	8d 8c 24 cc 00
	00 00		 lea	 ecx, DWORD PTR _s$[esp+3764]
  001f9	89 44 24 5c	 mov	 DWORD PTR _vecInfo$226126[esp+3780], eax
  001fd	e8 00 00 00 00	 call	 ?GetNumber@CScanner@@QAEHH@Z ; CScanner::GetNumber

; 194  : 					vecInfo.m_fLength = s.GetFloat();	

  00202	6a 00		 push	 0
  00204	8d 8c 24 cc 00
	00 00		 lea	 ecx, DWORD PTR _s$[esp+3764]
  0020b	89 44 24 60	 mov	 DWORD PTR _vecInfo$226126[esp+3784], eax
  0020f	e8 00 00 00 00	 call	 ?GetFloat@CScanner@@QAEMH@Z ; CScanner::GetFloat
  00214	d9 5c 24 54	 fstp	 DWORD PTR _vecInfo$226126[esp+3772]

; 195  : 					
; 196  : 					AddPatrolPath( nIndex, vecInfo );

  00218	8b 54 24 48	 mov	 edx, DWORD PTR _vecInfo$226126[esp+3760]
  0021c	83 ec 38	 sub	 esp, 56			; 00000038H
  0021f	8b c4		 mov	 eax, esp
  00221	8b c8		 mov	 ecx, eax
  00223	89 11		 mov	 DWORD PTR [ecx], edx
  00225	8b 94 24 84 00
	00 00		 mov	 edx, DWORD PTR _vecInfo$226126[esp+3820]
  0022c	89 51 04	 mov	 DWORD PTR [ecx+4], edx
  0022f	8b 94 24 88 00
	00 00		 mov	 edx, DWORD PTR _vecInfo$226126[esp+3824]
  00236	89 51 08	 mov	 DWORD PTR [ecx+8], edx
  00239	8b 8c 24 8c 00
	00 00		 mov	 ecx, DWORD PTR _vecInfo$226126[esp+3828]
  00240	89 48 0c	 mov	 DWORD PTR [eax+12], ecx
  00243	8b 94 24 90 00
	00 00		 mov	 edx, DWORD PTR _vecInfo$226126[esp+3832]
  0024a	89 50 10	 mov	 DWORD PTR [eax+16], edx
  0024d	8b 8c 24 94 00
	00 00		 mov	 ecx, DWORD PTR _vecInfo$226126[esp+3836]
  00254	89 48 14	 mov	 DWORD PTR [eax+20], ecx
  00257	c7 40 18 00 00
	00 00		 mov	 DWORD PTR [eax+24], OFFSET FLAT:??_7CTimer@@6B@
  0025e	dd 84 24 a0 00
	00 00		 fld	 QWORD PTR _vecInfo$226126[esp+3848]
  00265	dd 58 20	 fstp	 QWORD PTR [eax+32]
  00268	89 64 24 48	 mov	 DWORD PTR $T239420[esp+3816], esp
  0026c	dd 84 24 a8 00
	00 00		 fld	 QWORD PTR _vecInfo$226126[esp+3856]
  00273	57		 push	 edi
  00274	dd 58 28	 fstp	 QWORD PTR [eax+40]
  00277	8b 94 24 b4 00
	00 00		 mov	 edx, DWORD PTR _vecInfo$226126[esp+3868]
  0027e	8b cb		 mov	 ecx, ebx
  00280	89 50 30	 mov	 DWORD PTR [eax+48], edx
  00283	e8 00 00 00 00	 call	 ?AddPatrolPath@CPatrolPath@@QAEXKU_VECINFO@@@Z ; CPatrolPath::AddPatrolPath
$L226138:

; 197  : 				}	
; 198  : 				
; 199  : 				if( nCount == 1 )

  00288	83 fe 01	 cmp	 esi, 1
  0028b	75 63		 jne	 SHORT $L239620

; 200  : 				{
; 201  : 					vecInfoBackup = vecInfo;

  0028d	8b 44 24 48	 mov	 eax, DWORD PTR _vecInfo$226126[esp+3760]
  00291	dd 44 24 68	 fld	 QWORD PTR _vecInfo$226126[esp+3792]
  00295	8b 4c 24 4c	 mov	 ecx, DWORD PTR _vecInfo$226126[esp+3764]
  00299	dd 9c 24 a0 00
	00 00		 fstp	 QWORD PTR _vecInfoBackup$226127[esp+3792]
  002a0	8b 54 24 50	 mov	 edx, DWORD PTR _vecInfo$226126[esp+3768]
  002a4	dd 44 24 70	 fld	 QWORD PTR _vecInfo$226126[esp+3800]
  002a8	89 84 24 80 00
	00 00		 mov	 DWORD PTR _vecInfoBackup$226127[esp+3760], eax
  002af	dd 9c 24 a8 00
	00 00		 fstp	 QWORD PTR _vecInfoBackup$226127[esp+3800]
  002b6	8b 44 24 54	 mov	 eax, DWORD PTR _vecInfo$226126[esp+3772]
  002ba	89 8c 24 84 00
	00 00		 mov	 DWORD PTR _vecInfoBackup$226127[esp+3764], ecx
  002c1	8b 4c 24 58	 mov	 ecx, DWORD PTR _vecInfo$226126[esp+3776]
  002c5	89 94 24 88 00
	00 00		 mov	 DWORD PTR _vecInfoBackup$226127[esp+3768], edx
  002cc	8b 54 24 5c	 mov	 edx, DWORD PTR _vecInfo$226126[esp+3780]
  002d0	89 84 24 8c 00
	00 00		 mov	 DWORD PTR _vecInfoBackup$226127[esp+3772], eax
  002d7	8b 44 24 78	 mov	 eax, DWORD PTR _vecInfo$226126[esp+3808]
  002db	89 8c 24 90 00
	00 00		 mov	 DWORD PTR _vecInfoBackup$226127[esp+3776], ecx
  002e2	89 94 24 94 00
	00 00		 mov	 DWORD PTR _vecInfoBackup$226127[esp+3780], edx
  002e9	89 84 24 b0 00
	00 00		 mov	 DWORD PTR _vecInfoBackup$226127[esp+3808], eax
$L239620:

; 202  : 				}
; 203  : 				
; 204  : 				nCount = s.GetNumber();

  002f0	6a 00		 push	 0
  002f2	8d 8c 24 cc 00
	00 00		 lea	 ecx, DWORD PTR _s$[esp+3764]
  002f9	e8 00 00 00 00	 call	 ?GetNumber@CScanner@@QAEHH@Z ; CScanner::GetNumber
  002fe	8b 8c 24 e8 00
	00 00		 mov	 ecx, DWORD PTR _s$[esp+3792]
  00305	68 00 00 00 00	 push	 OFFSET FLAT:??_C@_01CELHOKLL@?$HN?$AA@
  0030a	51		 push	 ecx
  0030b	89 44 24 18	 mov	 DWORD PTR _nCount$226133[esp+3768], eax
  0030f	e8 00 00 00 00	 call	 __mbscmp
  00314	83 c4 08	 add	 esp, 8
  00317	85 c0		 test	 eax, eax
  00319	0f 85 31 fe ff
	ff		 jne	 $L226135

; 178  : 			
; 179  : 			while( s.Token != _T( "}" ) )

  0031f	8b 74 24 24	 mov	 esi, DWORD PTR _v3PosList$226125[esp+3764]
$L226136:

; 205  : 			}
; 206  : 
; 207  : 			D3DXVECTOR3	v3Pos1 = v3PosList[0];

  00323	8b d6		 mov	 edx, esi
  00325	8b 02		 mov	 eax, DWORD PTR [edx]
  00327	8b 4a 04	 mov	 ecx, DWORD PTR [edx+4]
  0032a	8b 52 08	 mov	 edx, DWORD PTR [edx+8]
  0032d	89 44 24 3c	 mov	 DWORD PTR _v3Pos1$226141[esp+3760], eax

; 208  : 			D3DXVECTOR3	v3Pos2 = v3PosList[v3PosList.size()-1];
; 209  : 			D3DXVECTOR3	v3Dir  = v3Pos1 - v3Pos2;
; 210  : 
; 211  : 			D3DXVec3Subtract( &v3Dir, &v3Pos1, &v3Pos2 );

  00331	d9 44 24 3c	 fld	 DWORD PTR _v3Pos1$226141[esp+3760]
  00335	89 4c 24 40	 mov	 DWORD PTR _v3Pos1$226141[esp+3764], ecx
  00339	8b 4c 24 28	 mov	 ecx, DWORD PTR _v3PosList$226125[esp+3768]
  0033d	89 54 24 44	 mov	 DWORD PTR _v3Pos1$226141[esp+3768], edx
  00341	2b ce		 sub	 ecx, esi
  00343	b8 ab aa aa 2a	 mov	 eax, 715827883		; 2aaaaaabH
  00348	f7 e9		 imul	 ecx
  0034a	d1 fa		 sar	 edx, 1
  0034c	8b c2		 mov	 eax, edx
  0034e	c1 e8 1f	 shr	 eax, 31			; 0000001fH
  00351	03 c2		 add	 eax, edx
  00353	8d 04 40	 lea	 eax, DWORD PTR [eax+eax*2]
  00356	8b 4c 86 f4	 mov	 ecx, DWORD PTR [esi+eax*4-12]
  0035a	8b 54 86 f8	 mov	 edx, DWORD PTR [esi+eax*4-8]
  0035e	8d 44 86 f4	 lea	 eax, DWORD PTR [esi+eax*4-12]
  00362	8b 40 08	 mov	 eax, DWORD PTR [eax+8]
  00365	89 4c 24 30	 mov	 DWORD PTR _v3Pos2$226142[esp+3760], ecx
  00369	89 54 24 34	 mov	 DWORD PTR _v3Pos2$226142[esp+3764], edx
  0036d	d8 64 24 30	 fsub	 DWORD PTR _v3Pos2$226142[esp+3760]
  00371	89 44 24 38	 mov	 DWORD PTR _v3Pos2$226142[esp+3768], eax

; 212  : 			D3DXVec3Normalize( &vecInfoBackup.m_vDir, &v3Dir );		

  00375	8d 4c 24 14	 lea	 ecx, DWORD PTR _v3Dir$226143[esp+3760]
  00379	51		 push	 ecx
  0037a	d9 5c 24 18	 fstp	 DWORD PTR _v3Dir$226143[esp+3764]
  0037e	8d 94 24 84 00
	00 00		 lea	 edx, DWORD PTR _vecInfoBackup$226127[esp+3764]
  00385	d9 44 24 44	 fld	 DWORD PTR _v3Pos1$226141[esp+3768]
  00389	52		 push	 edx
  0038a	d8 64 24 3c	 fsub	 DWORD PTR _v3Pos2$226142[esp+3772]
  0038e	d9 5c 24 20	 fstp	 DWORD PTR _v3Dir$226143[esp+3772]
  00392	d9 44 24 4c	 fld	 DWORD PTR _v3Pos1$226141[esp+3776]
  00396	d8 64 24 40	 fsub	 DWORD PTR _v3Pos2$226142[esp+3776]
  0039a	d9 5c 24 24	 fstp	 DWORD PTR _v3Dir$226143[esp+3776]
  0039e	e8 00 00 00 00	 call	 _D3DXVec3Normalize@8

; 213  : 			vecInfoBackup.m_fLength = D3DXVec3Length( &v3Dir );			

  003a3	d9 44 24 1c	 fld	 DWORD PTR _v3Dir$226143[esp+3768]

; 214  : 
; 215  : 			AddPatrolPath( nIndex, vecInfoBackup );

  003a7	8b 94 24 80 00
	00 00		 mov	 edx, DWORD PTR _vecInfoBackup$226127[esp+3760]
  003ae	d8 4c 24 1c	 fmul	 DWORD PTR _v3Dir$226143[esp+3768]
  003b2	83 ec 38	 sub	 esp, 56			; 00000038H
  003b5	d9 44 24 50	 fld	 DWORD PTR _v3Dir$226143[esp+3820]
  003b9	8b c4		 mov	 eax, esp
  003bb	d8 4c 24 50	 fmul	 DWORD PTR _v3Dir$226143[esp+3820]
  003bf	8b c8		 mov	 ecx, eax
  003c1	89 64 24 48	 mov	 DWORD PTR $T239421[esp+3816], esp
  003c5	57		 push	 edi
  003c6	de c1		 faddp	 ST(1), ST(0)
  003c8	d9 44 24 50	 fld	 DWORD PTR _v3Dir$226143[esp+3820]
  003cc	d8 4c 24 50	 fmul	 DWORD PTR _v3Dir$226143[esp+3820]
  003d0	de c1		 faddp	 ST(1), ST(0)
  003d2	d9 fa		 fsqrt
  003d4	d9 9c 24 c8 00
	00 00		 fstp	 DWORD PTR _vecInfoBackup$226127[esp+3832]
  003db	89 11		 mov	 DWORD PTR [ecx], edx
  003dd	8b 94 24 c0 00
	00 00		 mov	 edx, DWORD PTR _vecInfoBackup$226127[esp+3824]
  003e4	89 51 04	 mov	 DWORD PTR [ecx+4], edx
  003e7	8b 94 24 c4 00
	00 00		 mov	 edx, DWORD PTR _vecInfoBackup$226127[esp+3828]
  003ee	89 51 08	 mov	 DWORD PTR [ecx+8], edx
  003f1	8b 8c 24 c8 00
	00 00		 mov	 ecx, DWORD PTR _vecInfoBackup$226127[esp+3832]
  003f8	89 48 0c	 mov	 DWORD PTR [eax+12], ecx
  003fb	8b 94 24 cc 00
	00 00		 mov	 edx, DWORD PTR _vecInfoBackup$226127[esp+3836]
  00402	89 50 10	 mov	 DWORD PTR [eax+16], edx
  00405	8b 8c 24 d0 00
	00 00		 mov	 ecx, DWORD PTR _vecInfoBackup$226127[esp+3840]
  0040c	89 48 14	 mov	 DWORD PTR [eax+20], ecx
  0040f	c7 40 18 00 00
	00 00		 mov	 DWORD PTR [eax+24], OFFSET FLAT:??_7CTimer@@6B@
  00416	dd 84 24 dc 00
	00 00		 fld	 QWORD PTR _vecInfoBackup$226127[esp+3852]
  0041d	dd 58 20	 fstp	 QWORD PTR [eax+32]
  00420	8b cb		 mov	 ecx, ebx
  00422	dd 84 24 e4 00
	00 00		 fld	 QWORD PTR _vecInfoBackup$226127[esp+3860]
  00429	dd 58 28	 fstp	 QWORD PTR [eax+40]
  0042c	8b 94 24 ec 00
	00 00		 mov	 edx, DWORD PTR _vecInfoBackup$226127[esp+3868]
  00433	89 50 30	 mov	 DWORD PTR [eax+48], edx
  00436	e8 00 00 00 00	 call	 ?AddPatrolPath@CPatrolPath@@QAEXKU_VECINFO@@@Z ; CPatrolPath::AddPatrolPath

; 216  : 			
; 217  : 			
; 218  : 			s.GetToken();			

  0043b	6a 00		 push	 0
  0043d	8d 8c 24 cc 00
	00 00		 lea	 ecx, DWORD PTR _s$[esp+3764]
  00444	e8 00 00 00 00	 call	 ?GetToken@CScript@@UAEHH@Z ; CScript::GetToken
  00449	83 bc 24 f4 08
	00 00 15	 cmp	 DWORD PTR _s$[esp+5852], 21 ; 00000015H
  00451	0f 85 6c fc ff
	ff		 jne	 $L226129
$L226130:

; 219  : 		}
; 220  : 	}	

  00457	85 f6		 test	 esi, esi
  00459	b8 00 00 00 00	 mov	 eax, OFFSET FLAT:??_7CTimer@@6B@
  0045e	89 84 24 98 00
	00 00		 mov	 DWORD PTR _vecInfoBackup$226127[esp+3784], eax
  00465	89 44 24 60	 mov	 DWORD PTR _vecInfo$226126[esp+3784], eax
  00469	74 09		 je	 SHORT $L239804
  0046b	56		 push	 esi
  0046c	e8 00 00 00 00	 call	 ??3@YAXPAX@Z		; operator delete
  00471	83 c4 04	 add	 esp, 4
$L239804:

; 224  : 	}
; 225  : 	
; 226  : 	return TRUE;	

  00474	8d 8c 24 c8 00
	00 00		 lea	 ecx, DWORD PTR _s$[esp+3760]
  0047b	c7 84 24 ac 0e
	00 00 ff ff ff
	ff		 mov	 DWORD PTR __$EHRec$[esp+3768], -1
  00486	e8 00 00 00 00	 call	 ??1CScript@@UAE@XZ	; CScript::~CScript
  0048b	b8 01 00 00 00	 mov	 eax, 1
  00490	eb 19		 jmp	 SHORT $L226119
$L226121:

; 221  : 	else
; 222  : 	{
; 223  : 		return FALSE;

  00492	8d 8c 24 c8 00
	00 00		 lea	 ecx, DWORD PTR _s$[esp+3760]
  00499	c7 84 24 ac 0e
	00 00 ff ff ff
	ff		 mov	 DWORD PTR __$EHRec$[esp+3768], -1
  004a4	e8 00 00 00 00	 call	 ??1CScript@@UAE@XZ	; CScript::~CScript
  004a9	33 c0		 xor	 eax, eax
$L226119:

; 227  : }

  004ab	8b 8c 24 a4 0e
	00 00		 mov	 ecx, DWORD PTR __$EHRec$[esp+3760]
  004b2	64 89 0d 00 00
	00 00		 mov	 DWORD PTR fs:__except_list, ecx
  004b9	8b 8c 24 9c 0e
	00 00		 mov	 ecx, DWORD PTR __$ArrayPad$[esp+3760]
  004c0	5f		 pop	 edi
  004c1	5e		 pop	 esi
  004c2	33 cd		 xor	 ecx, ebp
  004c4	5b		 pop	 ebx
  004c5	e8 00 00 00 00	 call	 @__security_check_cookie@4
  004ca	8b e5		 mov	 esp, ebp
  004cc	5d		 pop	 ebp
  004cd	c2 04 00	 ret	 4
_TEXT	ENDS
;	COMDAT text$x
text$x	SEGMENT
$L239424:
  00000	8d 8d 18 f2 ff
	ff		 lea	 ecx, DWORD PTR _s$[ebp]
  00006	e9 00 00 00 00	 jmp	 ??1CScript@@UAE@XZ	; CScript::~CScript
$L239425:
  0000b	8d 8d 70 f1 ff
	ff		 lea	 ecx, DWORD PTR _v3PosList$226125[ebp]
  00011	e9 00 00 00 00	 jmp	 ??1?$vector@UD3DXVECTOR3@@V?$allocator@UD3DXVECTOR3@@@std@@@std@@QAE@XZ ; std::vector<D3DXVECTOR3,std::allocator<D3DXVECTOR3> >::~vector<D3DXVECTOR3,std::allocator<D3DXVECTOR3> >
$L239426:
  00016	8d 8d 98 f1 ff
	ff		 lea	 ecx, DWORD PTR _vecInfo$226126[ebp]
  0001c	e9 00 00 00 00	 jmp	 ??1_VECINFO@@QAE@XZ
$L239427:
  00021	8d 8d d0 f1 ff
	ff		 lea	 ecx, DWORD PTR _vecInfoBackup$226127[ebp]
  00027	e9 00 00 00 00	 jmp	 ??1_VECINFO@@QAE@XZ
__ehhandler$?LoadPatrol@CPatrolPath@@QAEHPBD@Z:
  0002c	b8 00 00 00 00	 mov	 eax, OFFSET FLAT:$T239812
  00031	e9 00 00 00 00	 jmp	 ___CxxFrameHandler
text$x	ENDS
?LoadPatrol@CPatrolPath@@QAEHPBD@Z ENDP			; CPatrolPath::LoadPatrol
PUBLIC	?_Tidy@?$_Tree@V?$_Tmap_traits@KV?$vector@U_VECINFO@@V?$allocator@U_VECINFO@@@std@@@std@@U?$less@K@2@V?$allocator@U?$pair@$$CBKV?$vector@U_VECINFO@@V?$allocator@U_VECINFO@@@std@@@std@@@std@@@2@$0A@@std@@@std@@IAEXXZ ; std::_Tree<std::_Tmap_traits<unsigned long,std::vector<_VECINFO,std::allocator<_VECINFO> >,std::less<unsigned long>,std::allocator<std::pair<unsigned long const ,std::vector<_VECINFO,std::allocator<_VECINFO> > > >,0> >::_Tidy
; Function compile flags: /Ogty
; File c:\program files\microsoft visual studio .net 2003\vc7\include\xtree
;	COMDAT ?_Tidy@?$_Tree@V?$_Tmap_traits@KV?$vector@U_VECINFO@@V?$allocator@U_VECINFO@@@std@@@std@@U?$less@K@2@V?$allocator@U?$pair@$$CBKV?$vector@U_VECINFO@@V?$allocator@U_VECINFO@@@std@@@std@@@std@@@2@$0A@@std@@@std@@IAEXXZ
_TEXT	SEGMENT
$T239828 = -4						; size = 4
?_Tidy@?$_Tree@V?$_Tmap_traits@KV?$vector@U_VECINFO@@V?$allocator@U_VECINFO@@@std@@@std@@U?$less@K@2@V?$allocator@U?$pair@$$CBKV?$vector@U_VECINFO@@V?$allocator@U_VECINFO@@@std@@@std@@@std@@@2@$0A@@std@@@std@@IAEXXZ PROC NEAR ; std::_Tree<std::_Tmap_traits<unsigned long,std::vector<_VECINFO,std::allocator<_VECINFO> >,std::less<unsigned long>,std::allocator<std::pair<unsigned long const ,std::vector<_VECINFO,std::allocator<_VECINFO> > > >,0> >::_Tidy, COMDAT
; _this$ = ecx

; 1142 : 		{	// free all storage

  00000	51		 push	 ecx
  00001	56		 push	 esi
  00002	8b f1		 mov	 esi, ecx

; 1143 : 		erase(begin(), end());

  00004	8b 46 04	 mov	 eax, DWORD PTR [esi+4]
  00007	8b 08		 mov	 ecx, DWORD PTR [eax]
  00009	50		 push	 eax
  0000a	51		 push	 ecx
  0000b	8d 44 24 0c	 lea	 eax, DWORD PTR $T239828[esp+16]
  0000f	50		 push	 eax
  00010	8b ce		 mov	 ecx, esi
  00012	e8 00 00 00 00	 call	 ?erase@?$_Tree@V?$_Tmap_traits@KV?$vector@U_VECINFO@@V?$allocator@U_VECINFO@@@std@@@std@@U?$less@K@2@V?$allocator@U?$pair@$$CBKV?$vector@U_VECINFO@@V?$allocator@U_VECINFO@@@std@@@std@@@std@@@2@$0A@@std@@@std@@QAE?AViterator@12@V312@0@Z ; std::_Tree<std::_Tmap_traits<unsigned long,std::vector<_VECINFO,std::allocator<_VECINFO> >,std::less<unsigned long>,std::allocator<std::pair<unsigned long const ,std::vector<_VECINFO,std::allocator<_VECINFO> > > >,0> >::erase

; 1144 : 		this->_Alptr.destroy(&_Left(_Myhead));
; 1145 : 		this->_Alptr.destroy(&_Parent(_Myhead));
; 1146 : 		this->_Alptr.destroy(&_Right(_Myhead));
; 1147 : 		this->_Alnod.deallocate(_Myhead, 1);

  00017	8b 4e 04	 mov	 ecx, DWORD PTR [esi+4]
  0001a	51		 push	 ecx
  0001b	e8 00 00 00 00	 call	 ??3@YAXPAX@Z		; operator delete
  00020	83 c4 04	 add	 esp, 4

; 1148 : 		_Myhead = 0, _Mysize = 0;

  00023	33 c0		 xor	 eax, eax
  00025	89 46 04	 mov	 DWORD PTR [esi+4], eax
  00028	89 46 08	 mov	 DWORD PTR [esi+8], eax
  0002b	5e		 pop	 esi

; 1149 : 		}

  0002c	59		 pop	 ecx
  0002d	c3		 ret	 0
?_Tidy@?$_Tree@V?$_Tmap_traits@KV?$vector@U_VECINFO@@V?$allocator@U_VECINFO@@@std@@@std@@U?$less@K@2@V?$allocator@U?$pair@$$CBKV?$vector@U_VECINFO@@V?$allocator@U_VECINFO@@@std@@@std@@@std@@@2@$0A@@std@@@std@@IAEXXZ ENDP ; std::_Tree<std::_Tmap_traits<unsigned long,std::vector<_VECINFO,std::allocator<_VECINFO> >,std::less<unsigned long>,std::allocator<std::pair<unsigned long const ,std::vector<_VECINFO,std::allocator<_VECINFO> > > >,0> >::_Tidy
_TEXT	ENDS
PUBLIC	??1?$_Tree@V?$_Tmap_traits@KV?$vector@U_VECINFO@@V?$allocator@U_VECINFO@@@std@@@std@@U?$less@K@2@V?$allocator@U?$pair@$$CBKV?$vector@U_VECINFO@@V?$allocator@U_VECINFO@@@std@@@std@@@std@@@2@$0A@@std@@@std@@QAE@XZ ; std::_Tree<std::_Tmap_traits<unsigned long,std::vector<_VECINFO,std::allocator<_VECINFO> >,std::less<unsigned long>,std::allocator<std::pair<unsigned long const ,std::vector<_VECINFO,std::allocator<_VECINFO> > > >,0> >::~_Tree<std::_Tmap_traits<unsigned long,std::vector<_VECINFO,std::allocator<_VECINFO> >,std::less<unsigned long>,std::allocator<std::pair<unsigned long const ,std::vector<_VECINFO,std::allocator<_VECINFO> > > >,0> >
; Function compile flags: /Ogty
;	COMDAT ??1?$_Tree@V?$_Tmap_traits@KV?$vector@U_VECINFO@@V?$allocator@U_VECINFO@@@std@@@std@@U?$less@K@2@V?$allocator@U?$pair@$$CBKV?$vector@U_VECINFO@@V?$allocator@U_VECINFO@@@std@@@std@@@std@@@2@$0A@@std@@@std@@QAE@XZ
_TEXT	SEGMENT
$T239957 = -4						; size = 4
??1?$_Tree@V?$_Tmap_traits@KV?$vector@U_VECINFO@@V?$allocator@U_VECINFO@@@std@@@std@@U?$less@K@2@V?$allocator@U?$pair@$$CBKV?$vector@U_VECINFO@@V?$allocator@U_VECINFO@@@std@@@std@@@std@@@2@$0A@@std@@@std@@QAE@XZ PROC NEAR ; std::_Tree<std::_Tmap_traits<unsigned long,std::vector<_VECINFO,std::allocator<_VECINFO> >,std::less<unsigned long>,std::allocator<std::pair<unsigned long const ,std::vector<_VECINFO,std::allocator<_VECINFO> > > >,0> >::~_Tree<std::_Tmap_traits<unsigned long,std::vector<_VECINFO,std::allocator<_VECINFO> >,std::less<unsigned long>,std::allocator<std::pair<unsigned long const ,std::vector<_VECINFO,std::allocator<_VECINFO> > > >,0> >, COMDAT
; _this$ = ecx

; 391  : 		{	// destroy tree

  00000	51		 push	 ecx
  00001	56		 push	 esi
  00002	8b f1		 mov	 esi, ecx

; 392  : 		_Tidy();

  00004	8b 46 04	 mov	 eax, DWORD PTR [esi+4]
  00007	8b 08		 mov	 ecx, DWORD PTR [eax]
  00009	50		 push	 eax
  0000a	51		 push	 ecx
  0000b	8d 44 24 0c	 lea	 eax, DWORD PTR $T239957[esp+16]
  0000f	50		 push	 eax
  00010	8b ce		 mov	 ecx, esi
  00012	e8 00 00 00 00	 call	 ?erase@?$_Tree@V?$_Tmap_traits@KV?$vector@U_VECINFO@@V?$allocator@U_VECINFO@@@std@@@std@@U?$less@K@2@V?$allocator@U?$pair@$$CBKV?$vector@U_VECINFO@@V?$allocator@U_VECINFO@@@std@@@std@@@std@@@2@$0A@@std@@@std@@QAE?AViterator@12@V312@0@Z ; std::_Tree<std::_Tmap_traits<unsigned long,std::vector<_VECINFO,std::allocator<_VECINFO> >,std::less<unsigned long>,std::allocator<std::pair<unsigned long const ,std::vector<_VECINFO,std::allocator<_VECINFO> > > >,0> >::erase
  00017	8b 4e 04	 mov	 ecx, DWORD PTR [esi+4]
  0001a	51		 push	 ecx
  0001b	e8 00 00 00 00	 call	 ??3@YAXPAX@Z		; operator delete
  00020	83 c4 04	 add	 esp, 4
  00023	33 c0		 xor	 eax, eax
  00025	89 46 04	 mov	 DWORD PTR [esi+4], eax
  00028	89 46 08	 mov	 DWORD PTR [esi+8], eax
  0002b	5e		 pop	 esi

; 393  : 		}

  0002c	59		 pop	 ecx
  0002d	c3		 ret	 0
??1?$_Tree@V?$_Tmap_traits@KV?$vector@U_VECINFO@@V?$allocator@U_VECINFO@@@std@@@std@@U?$less@K@2@V?$allocator@U?$pair@$$CBKV?$vector@U_VECINFO@@V?$allocator@U_VECINFO@@@std@@@std@@@std@@@2@$0A@@std@@@std@@QAE@XZ ENDP ; std::_Tree<std::_Tmap_traits<unsigned long,std::vector<_VECINFO,std::allocator<_VECINFO> >,std::less<unsigned long>,std::allocator<std::pair<unsigned long const ,std::vector<_VECINFO,std::allocator<_VECINFO> > > >,0> >::~_Tree<std::_Tmap_traits<unsigned long,std::vector<_VECINFO,std::allocator<_VECINFO> >,std::less<unsigned long>,std::allocator<std::pair<unsigned long const ,std::vector<_VECINFO,std::allocator<_VECINFO> > > >,0> >
_TEXT	ENDS
PUBLIC	??1?$map@KV?$vector@U_VECINFO@@V?$allocator@U_VECINFO@@@std@@@std@@U?$less@K@2@V?$allocator@U?$pair@$$CBKV?$vector@U_VECINFO@@V?$allocator@U_VECINFO@@@std@@@std@@@std@@@2@@std@@QAE@XZ ; std::map<unsigned long,std::vector<_VECINFO,std::allocator<_VECINFO> >,std::less<unsigned long>,std::allocator<std::pair<unsigned long const ,std::vector<_VECINFO,std::allocator<_VECINFO> > > > >::~map<unsigned long,std::vector<_VECINFO,std::allocator<_VECINFO> >,std::less<unsigned long>,std::allocator<std::pair<unsigned long const ,std::vector<_VECINFO,std::allocator<_VECINFO> > > > >
; Function compile flags: /Ogty
;	COMDAT ??1?$map@KV?$vector@U_VECINFO@@V?$allocator@U_VECINFO@@@std@@@std@@U?$less@K@2@V?$allocator@U?$pair@$$CBKV?$vector@U_VECINFO@@V?$allocator@U_VECINFO@@@std@@@std@@@std@@@2@@std@@QAE@XZ
_TEXT	SEGMENT
$T240085 = -4						; size = 4
??1?$map@KV?$vector@U_VECINFO@@V?$allocator@U_VECINFO@@@std@@@std@@U?$less@K@2@V?$allocator@U?$pair@$$CBKV?$vector@U_VECINFO@@V?$allocator@U_VECINFO@@@std@@@std@@@std@@@2@@std@@QAE@XZ PROC NEAR ; std::map<unsigned long,std::vector<_VECINFO,std::allocator<_VECINFO> >,std::less<unsigned long>,std::allocator<std::pair<unsigned long const ,std::vector<_VECINFO,std::allocator<_VECINFO> > > > >::~map<unsigned long,std::vector<_VECINFO,std::allocator<_VECINFO> >,std::less<unsigned long>,std::allocator<std::pair<unsigned long const ,std::vector<_VECINFO,std::allocator<_VECINFO> > > > >, COMDAT
; _this$ = ecx
  00000	51		 push	 ecx
  00001	56		 push	 esi
  00002	8b f1		 mov	 esi, ecx
  00004	8b 46 04	 mov	 eax, DWORD PTR [esi+4]
  00007	8b 08		 mov	 ecx, DWORD PTR [eax]
  00009	50		 push	 eax
  0000a	51		 push	 ecx
  0000b	8d 44 24 0c	 lea	 eax, DWORD PTR $T240085[esp+16]
  0000f	50		 push	 eax
  00010	8b ce		 mov	 ecx, esi
  00012	e8 00 00 00 00	 call	 ?erase@?$_Tree@V?$_Tmap_traits@KV?$vector@U_VECINFO@@V?$allocator@U_VECINFO@@@std@@@std@@U?$less@K@2@V?$allocator@U?$pair@$$CBKV?$vector@U_VECINFO@@V?$allocator@U_VECINFO@@@std@@@std@@@std@@@2@$0A@@std@@@std@@QAE?AViterator@12@V312@0@Z ; std::_Tree<std::_Tmap_traits<unsigned long,std::vector<_VECINFO,std::allocator<_VECINFO> >,std::less<unsigned long>,std::allocator<std::pair<unsigned long const ,std::vector<_VECINFO,std::allocator<_VECINFO> > > >,0> >::erase
  00017	8b 4e 04	 mov	 ecx, DWORD PTR [esi+4]
  0001a	51		 push	 ecx
  0001b	e8 00 00 00 00	 call	 ??3@YAXPAX@Z		; operator delete
  00020	83 c4 04	 add	 esp, 4
  00023	33 c0		 xor	 eax, eax
  00025	89 46 04	 mov	 DWORD PTR [esi+4], eax
  00028	89 46 08	 mov	 DWORD PTR [esi+8], eax
  0002b	5e		 pop	 esi
  0002c	59		 pop	 ecx
  0002d	c3		 ret	 0
??1?$map@KV?$vector@U_VECINFO@@V?$allocator@U_VECINFO@@@std@@@std@@U?$less@K@2@V?$allocator@U?$pair@$$CBKV?$vector@U_VECINFO@@V?$allocator@U_VECINFO@@@std@@@std@@@std@@@2@@std@@QAE@XZ ENDP ; std::map<unsigned long,std::vector<_VECINFO,std::allocator<_VECINFO> >,std::less<unsigned long>,std::allocator<std::pair<unsigned long const ,std::vector<_VECINFO,std::allocator<_VECINFO> > > > >::~map<unsigned long,std::vector<_VECINFO,std::allocator<_VECINFO> >,std::less<unsigned long>,std::allocator<std::pair<unsigned long const ,std::vector<_VECINFO,std::allocator<_VECINFO> > > > >
_TEXT	ENDS
PUBLIC	??1CPatrolPath@@QAE@XZ				; CPatrolPath::~CPatrolPath
;	COMDAT xdata$x
; File c:\program files\microsoft visual studio .net 2003\vc7\include\xmemory
xdata$x	SEGMENT
$T240438 DD	0ffffffffH
	DD	FLAT:$L240114
$T240436 DD	019930520H
	DD	01H
	DD	FLAT:$T240438
	DD	2 DUP(00H)
	DD	2 DUP(00H)
; Function compile flags: /Ogty
; File c:\documents and settings\test\mes documents\source\virtuos_v17\build\program\_common\pathobj.cpp
xdata$x	ENDS
;	COMDAT ??1CPatrolPath@@QAE@XZ
_TEXT	SEGMENT
_this$ = -20						; size = 4
$T240410 = -16						; size = 4
$T240249 = -16						; size = 4
__$EHRec$ = -12						; size = 12
??1CPatrolPath@@QAE@XZ PROC NEAR			; CPatrolPath::~CPatrolPath, COMDAT
; _this$ = ecx

; 13   : {

  00000	6a ff		 push	 -1
  00002	68 00 00 00 00	 push	 __ehhandler$??1CPatrolPath@@QAE@XZ
  00007	64 a1 00 00 00
	00		 mov	 eax, DWORD PTR fs:__except_list
  0000d	50		 push	 eax
  0000e	64 89 25 00 00
	00 00		 mov	 DWORD PTR fs:__except_list, esp
  00015	83 ec 08	 sub	 esp, 8
  00018	53		 push	 ebx
  00019	56		 push	 esi
  0001a	8b f1		 mov	 esi, ecx
  0001c	57		 push	 edi
  0001d	89 74 24 0c	 mov	 DWORD PTR _this$[esp+32], esi

; 14   : }

  00021	8b 46 10	 mov	 eax, DWORD PTR [esi+16]
  00024	8b 08		 mov	 ecx, DWORD PTR [eax]
  00026	8d 7e 0c	 lea	 edi, DWORD PTR [esi+12]
  00029	50		 push	 eax
  0002a	51		 push	 ecx
  0002b	8d 44 24 18	 lea	 eax, DWORD PTR $T240249[esp+40]
  0002f	33 db		 xor	 ebx, ebx
  00031	50		 push	 eax
  00032	8b cf		 mov	 ecx, edi
  00034	89 5c 24 28	 mov	 DWORD PTR __$EHRec$[esp+52], ebx
  00038	e8 00 00 00 00	 call	 ?erase@?$_Tree@V?$_Tmap_traits@KHU?$less@K@std@@V?$allocator@U?$pair@$$CBKH@std@@@2@$0A@@std@@@std@@QAE?AViterator@12@V312@0@Z ; std::_Tree<std::_Tmap_traits<unsigned long,int,std::less<unsigned long>,std::allocator<std::pair<unsigned long const ,int> >,0> >::erase
  0003d	8b 47 04	 mov	 eax, DWORD PTR [edi+4]
  00040	50		 push	 eax
  00041	e8 00 00 00 00	 call	 ??3@YAXPAX@Z		; operator delete
  00046	83 c4 04	 add	 esp, 4
  00049	89 5f 04	 mov	 DWORD PTR [edi+4], ebx
  0004c	89 5f 08	 mov	 DWORD PTR [edi+8], ebx
  0004f	8b 46 04	 mov	 eax, DWORD PTR [esi+4]
  00052	8b 08		 mov	 ecx, DWORD PTR [eax]
  00054	50		 push	 eax
  00055	51		 push	 ecx
  00056	8d 4c 24 18	 lea	 ecx, DWORD PTR $T240410[esp+40]
  0005a	51		 push	 ecx
  0005b	8b ce		 mov	 ecx, esi
  0005d	c7 44 24 28 ff
	ff ff ff	 mov	 DWORD PTR __$EHRec$[esp+52], -1
  00065	e8 00 00 00 00	 call	 ?erase@?$_Tree@V?$_Tmap_traits@KV?$vector@U_VECINFO@@V?$allocator@U_VECINFO@@@std@@@std@@U?$less@K@2@V?$allocator@U?$pair@$$CBKV?$vector@U_VECINFO@@V?$allocator@U_VECINFO@@@std@@@std@@@std@@@2@$0A@@std@@@std@@QAE?AViterator@12@V312@0@Z ; std::_Tree<std::_Tmap_traits<unsigned long,std::vector<_VECINFO,std::allocator<_VECINFO> >,std::less<unsigned long>,std::allocator<std::pair<unsigned long const ,std::vector<_VECINFO,std::allocator<_VECINFO> > > >,0> >::erase
  0006a	8b 56 04	 mov	 edx, DWORD PTR [esi+4]
  0006d	52		 push	 edx
  0006e	e8 00 00 00 00	 call	 ??3@YAXPAX@Z		; operator delete
  00073	8b 4c 24 18	 mov	 ecx, DWORD PTR __$EHRec$[esp+36]
  00077	83 c4 04	 add	 esp, 4
  0007a	89 5e 04	 mov	 DWORD PTR [esi+4], ebx
  0007d	89 5e 08	 mov	 DWORD PTR [esi+8], ebx
  00080	5f		 pop	 edi
  00081	5e		 pop	 esi
  00082	5b		 pop	 ebx
  00083	64 89 0d 00 00
	00 00		 mov	 DWORD PTR fs:__except_list, ecx
  0008a	83 c4 14	 add	 esp, 20			; 00000014H
  0008d	c3		 ret	 0
_TEXT	ENDS
;	COMDAT text$x
text$x	SEGMENT
$L240114:
  00000	8b 4d ec	 mov	 ecx, DWORD PTR _this$[ebp]
  00003	e9 00 00 00 00	 jmp	 ??1?$map@KV?$vector@U_VECINFO@@V?$allocator@U_VECINFO@@@std@@@std@@U?$less@K@2@V?$allocator@U?$pair@$$CBKV?$vector@U_VECINFO@@V?$allocator@U_VECINFO@@@std@@@std@@@std@@@2@@std@@QAE@XZ
__ehhandler$??1CPatrolPath@@QAE@XZ:
  00008	b8 00 00 00 00	 mov	 eax, OFFSET FLAT:$T240436
  0000d	e9 00 00 00 00	 jmp	 ___CxxFrameHandler
text$x	ENDS
??1CPatrolPath@@QAE@XZ ENDP				; CPatrolPath::~CPatrolPath
PUBLIC	??0?$map@KV?$vector@U_VECINFO@@V?$allocator@U_VECINFO@@@std@@@std@@U?$less@K@2@V?$allocator@U?$pair@$$CBKV?$vector@U_VECINFO@@V?$allocator@U_VECINFO@@@std@@@std@@@std@@@2@@std@@QAE@XZ ; std::map<unsigned long,std::vector<_VECINFO,std::allocator<_VECINFO> >,std::less<unsigned long>,std::allocator<std::pair<unsigned long const ,std::vector<_VECINFO,std::allocator<_VECINFO> > > > >::map<unsigned long,std::vector<_VECINFO,std::allocator<_VECINFO> >,std::less<unsigned long>,std::allocator<std::pair<unsigned long const ,std::vector<_VECINFO,std::allocator<_VECINFO> > > > >
; Function compile flags: /Ogty
; File c:\program files\microsoft visual studio .net 2003\vc7\include\map
;	COMDAT ??0?$map@KV?$vector@U_VECINFO@@V?$allocator@U_VECINFO@@@std@@@std@@U?$less@K@2@V?$allocator@U?$pair@$$CBKV?$vector@U_VECINFO@@V?$allocator@U_VECINFO@@@std@@@std@@@std@@@2@@std@@QAE@XZ
_TEXT	SEGMENT
??0?$map@KV?$vector@U_VECINFO@@V?$allocator@U_VECINFO@@@std@@@std@@U?$less@K@2@V?$allocator@U?$pair@$$CBKV?$vector@U_VECINFO@@V?$allocator@U_VECINFO@@@std@@@std@@@std@@@2@@std@@QAE@XZ PROC NEAR ; std::map<unsigned long,std::vector<_VECINFO,std::allocator<_VECINFO> >,std::less<unsigned long>,std::allocator<std::pair<unsigned long const ,std::vector<_VECINFO,std::allocator<_VECINFO> > > > >::map<unsigned long,std::vector<_VECINFO,std::allocator<_VECINFO> >,std::less<unsigned long>,std::allocator<std::pair<unsigned long const ,std::vector<_VECINFO,std::allocator<_VECINFO> > > > >, COMDAT
; _this$ = ecx

; 102  : 		{	// construct empty map from defaults

  00000	56		 push	 esi
  00001	8b f1		 mov	 esi, ecx
  00003	e8 00 00 00 00	 call	 ?_Buynode@?$_Tree@V?$_Tmap_traits@KV?$vector@U_VECINFO@@V?$allocator@U_VECINFO@@@std@@@std@@U?$less@K@2@V?$allocator@U?$pair@$$CBKV?$vector@U_VECINFO@@V?$allocator@U_VECINFO@@@std@@@std@@@std@@@2@$0A@@std@@@std@@IAEPAU_Node@?$_Tree_nod@V?$_Tmap_traits@KV?$vector@U_VECINFO@@V?$allocator@U_VECINFO@@@std@@@std@@U?$less@K@2@V?$allocator@U?$pair@$$CBKV?$vector@U_VECINFO@@V?$allocator@U_VECINFO@@@std@@@std@@@std@@@2@$0A@@std@@@2@XZ ; std::_Tree<std::_Tmap_traits<unsigned long,std::vector<_VECINFO,std::allocator<_VECINFO> >,std::less<unsigned long>,std::allocator<std::pair<unsigned long const ,std::vector<_VECINFO,std::allocator<_VECINFO> > > >,0> >::_Buynode
  00008	89 46 04	 mov	 DWORD PTR [esi+4], eax
  0000b	c6 40 21 01	 mov	 BYTE PTR [eax+33], 1
  0000f	8b 46 04	 mov	 eax, DWORD PTR [esi+4]
  00012	89 40 04	 mov	 DWORD PTR [eax+4], eax
  00015	8b 46 04	 mov	 eax, DWORD PTR [esi+4]
  00018	89 00		 mov	 DWORD PTR [eax], eax
  0001a	8b 46 04	 mov	 eax, DWORD PTR [esi+4]
  0001d	89 40 08	 mov	 DWORD PTR [eax+8], eax
  00020	c7 46 08 00 00
	00 00		 mov	 DWORD PTR [esi+8], 0

; 103  : 		}

  00027	8b c6		 mov	 eax, esi
  00029	5e		 pop	 esi
  0002a	c3		 ret	 0
??0?$map@KV?$vector@U_VECINFO@@V?$allocator@U_VECINFO@@@std@@@std@@U?$less@K@2@V?$allocator@U?$pair@$$CBKV?$vector@U_VECINFO@@V?$allocator@U_VECINFO@@@std@@@std@@@std@@@2@@std@@QAE@XZ ENDP ; std::map<unsigned long,std::vector<_VECINFO,std::allocator<_VECINFO> >,std::less<unsigned long>,std::allocator<std::pair<unsigned long const ,std::vector<_VECINFO,std::allocator<_VECINFO> > > > >::map<unsigned long,std::vector<_VECINFO,std::allocator<_VECINFO> >,std::less<unsigned long>,std::allocator<std::pair<unsigned long const ,std::vector<_VECINFO,std::allocator<_VECINFO> > > > >
_TEXT	ENDS
PUBLIC	??0CPatrolPath@@QAE@XZ				; CPatrolPath::CPatrolPath
;	COMDAT xdata$x
; File c:\program files\microsoft visual studio .net 2003\vc7\include\xtree
xdata$x	SEGMENT
$T241044 DD	0ffffffffH
	DD	FLAT:$L240612
	DD	00H
	DD	FLAT:$L240613
$T241042 DD	019930520H
	DD	02H
	DD	FLAT:$T241044
	DD	2 DUP(00H)
	DD	2 DUP(00H)
; Function compile flags: /Ogty
; File c:\documents and settings\test\mes documents\source\virtuos_v17\build\program\_common\pathobj.cpp
xdata$x	ENDS
;	COMDAT ??0CPatrolPath@@QAE@XZ
_TEXT	SEGMENT
_this$ = -16						; size = 4
__$EHRec$ = -12						; size = 12
??0CPatrolPath@@QAE@XZ PROC NEAR			; CPatrolPath::CPatrolPath, COMDAT
; _this$ = ecx

; 8    : {

  00000	6a ff		 push	 -1
  00002	68 00 00 00 00	 push	 __ehhandler$??0CPatrolPath@@QAE@XZ
  00007	64 a1 00 00 00
	00		 mov	 eax, DWORD PTR fs:__except_list
  0000d	50		 push	 eax
  0000e	64 89 25 00 00
	00 00		 mov	 DWORD PTR fs:__except_list, esp
  00015	51		 push	 ecx
  00016	56		 push	 esi
  00017	8b f1		 mov	 esi, ecx
  00019	57		 push	 edi
  0001a	89 74 24 08	 mov	 DWORD PTR _this$[esp+24], esi
  0001e	e8 00 00 00 00	 call	 ?_Buynode@?$_Tree@V?$_Tmap_traits@KV?$vector@U_VECINFO@@V?$allocator@U_VECINFO@@@std@@@std@@U?$less@K@2@V?$allocator@U?$pair@$$CBKV?$vector@U_VECINFO@@V?$allocator@U_VECINFO@@@std@@@std@@@std@@@2@$0A@@std@@@std@@IAEPAU_Node@?$_Tree_nod@V?$_Tmap_traits@KV?$vector@U_VECINFO@@V?$allocator@U_VECINFO@@@std@@@std@@U?$less@K@2@V?$allocator@U?$pair@$$CBKV?$vector@U_VECINFO@@V?$allocator@U_VECINFO@@@std@@@std@@@std@@@2@$0A@@std@@@2@XZ ; std::_Tree<std::_Tmap_traits<unsigned long,std::vector<_VECINFO,std::allocator<_VECINFO> >,std::less<unsigned long>,std::allocator<std::pair<unsigned long const ,std::vector<_VECINFO,std::allocator<_VECINFO> > > >,0> >::_Buynode
  00023	89 46 04	 mov	 DWORD PTR [esi+4], eax
  00026	c6 40 21 01	 mov	 BYTE PTR [eax+33], 1
  0002a	8b 46 04	 mov	 eax, DWORD PTR [esi+4]
  0002d	89 40 04	 mov	 DWORD PTR [eax+4], eax
  00030	8b 46 04	 mov	 eax, DWORD PTR [esi+4]
  00033	89 00		 mov	 DWORD PTR [eax], eax
  00035	8b 46 04	 mov	 eax, DWORD PTR [esi+4]
  00038	89 40 08	 mov	 DWORD PTR [eax+8], eax
  0003b	c7 46 08 00 00
	00 00		 mov	 DWORD PTR [esi+8], 0
  00042	8d 7e 0c	 lea	 edi, DWORD PTR [esi+12]
  00045	8b cf		 mov	 ecx, edi
  00047	c7 44 24 14 00
	00 00 00	 mov	 DWORD PTR __$EHRec$[esp+32], 0
  0004f	e8 00 00 00 00	 call	 ?_Buynode@?$_Tree@V?$_Tmap_traits@KHU?$less@K@std@@V?$allocator@U?$pair@$$CBKH@std@@@2@$0A@@std@@@std@@IAEPAU_Node@?$_Tree_nod@V?$_Tmap_traits@KHU?$less@K@std@@V?$allocator@U?$pair@$$CBKH@std@@@2@$0A@@std@@@2@XZ ; std::_Tree<std::_Tmap_traits<unsigned long,int,std::less<unsigned long>,std::allocator<std::pair<unsigned long const ,int> >,0> >::_Buynode
  00054	89 47 04	 mov	 DWORD PTR [edi+4], eax
  00057	c6 40 15 01	 mov	 BYTE PTR [eax+21], 1
  0005b	8b 47 04	 mov	 eax, DWORD PTR [edi+4]
  0005e	89 40 04	 mov	 DWORD PTR [eax+4], eax
  00061	8b 47 04	 mov	 eax, DWORD PTR [edi+4]
  00064	89 00		 mov	 DWORD PTR [eax], eax
  00066	8b 47 04	 mov	 eax, DWORD PTR [edi+4]
  00069	89 40 08	 mov	 DWORD PTR [eax+8], eax
  0006c	c7 47 08 00 00
	00 00		 mov	 DWORD PTR [edi+8], 0

; 9    : 	Clear();

  00073	8b ce		 mov	 ecx, esi
  00075	c6 44 24 14 01	 mov	 BYTE PTR __$EHRec$[esp+32], 1
  0007a	e8 00 00 00 00	 call	 ?Clear@CPatrolPath@@QAEXXZ ; CPatrolPath::Clear

; 10   : }

  0007f	8b 4c 24 0c	 mov	 ecx, DWORD PTR __$EHRec$[esp+24]
  00083	5f		 pop	 edi
  00084	8b c6		 mov	 eax, esi
  00086	5e		 pop	 esi
  00087	64 89 0d 00 00
	00 00		 mov	 DWORD PTR fs:__except_list, ecx
  0008e	83 c4 10	 add	 esp, 16			; 00000010H
  00091	c3		 ret	 0
_TEXT	ENDS
;	COMDAT text$x
text$x	SEGMENT
$L240612:
  00000	8b 4d f0	 mov	 ecx, DWORD PTR _this$[ebp]
  00003	e9 00 00 00 00	 jmp	 ??1?$map@KV?$vector@U_VECINFO@@V?$allocator@U_VECINFO@@@std@@@std@@U?$less@K@2@V?$allocator@U?$pair@$$CBKV?$vector@U_VECINFO@@V?$allocator@U_VECINFO@@@std@@@std@@@std@@@2@@std@@QAE@XZ
$L240613:
  00008	8b 4d f0	 mov	 ecx, DWORD PTR _this$[ebp]
  0000b	83 c1 0c	 add	 ecx, 12			; 0000000cH
  0000e	e9 00 00 00 00	 jmp	 ??1?$map@KHU?$less@K@std@@V?$allocator@U?$pair@$$CBKH@std@@@2@@std@@QAE@XZ
__ehhandler$??0CPatrolPath@@QAE@XZ:
  00013	b8 00 00 00 00	 mov	 eax, OFFSET FLAT:$T241042
  00018	e9 00 00 00 00	 jmp	 ___CxxFrameHandler
text$x	ENDS
??0CPatrolPath@@QAE@XZ ENDP				; CPatrolPath::CPatrolPath
PUBLIC	?GetInstance@CPatrolPath@@SAPAV1@XZ		; CPatrolPath::GetInstance
EXTRN	_atexit:NEAR
;	COMDAT ?sMailBox@?1??GetInstance@CPatrolPath@@SAPAV2@XZ@4V2@A
_BSS	SEGMENT
?sMailBox@?1??GetInstance@CPatrolPath@@SAPAV2@XZ@4V2@A DB 018H DUP (?) ; `CPatrolPath::GetInstance'::`2'::sMailBox
_BSS	ENDS
;	COMDAT ?$S1@?1??GetInstance@CPatrolPath@@SAPAV2@XZ@4IA
_BSS	SEGMENT
?$S1@?1??GetInstance@CPatrolPath@@SAPAV2@XZ@4IA DD 01H DUP (?) ; `CPatrolPath::GetInstance'::`2'::$S1
_BSS	ENDS
;	COMDAT xdata$x
xdata$x	SEGMENT
$T241055 DD	0ffffffffH
	DD	FLAT:$L241050
$T241052 DD	019930520H
	DD	01H
	DD	FLAT:$T241055
	DD	2 DUP(00H)
	DD	2 DUP(00H)
; Function compile flags: /Ogty
xdata$x	ENDS
;	COMDAT ?GetInstance@CPatrolPath@@SAPAV1@XZ
_TEXT	SEGMENT
__$EHRec$ = -12						; size = 12
?GetInstance@CPatrolPath@@SAPAV1@XZ PROC NEAR		; CPatrolPath::GetInstance, COMDAT

; 23   : {

  00000	64 a1 00 00 00
	00		 mov	 eax, DWORD PTR fs:__except_list

; 24   : 	static CPatrolPath	sMailBox;

  00006	8a 0d 00 00 00
	00		 mov	 cl, BYTE PTR ?$S1@?1??GetInstance@CPatrolPath@@SAPAV2@XZ@4IA
  0000c	6a ff		 push	 -1
  0000e	68 00 00 00 00	 push	 __ehhandler$?GetInstance@CPatrolPath@@SAPAV1@XZ
  00013	50		 push	 eax
  00014	b8 01 00 00 00	 mov	 eax, 1
  00019	84 c8		 test	 cl, al
  0001b	64 89 25 00 00
	00 00		 mov	 DWORD PTR fs:__except_list, esp
  00022	75 25		 jne	 SHORT $L241053
  00024	09 05 00 00 00
	00		 or	 DWORD PTR ?$S1@?1??GetInstance@CPatrolPath@@SAPAV2@XZ@4IA, eax
  0002a	b9 00 00 00 00	 mov	 ecx, OFFSET FLAT:?sMailBox@?1??GetInstance@CPatrolPath@@SAPAV2@XZ@4V2@A
  0002f	c7 44 24 08 00
	00 00 00	 mov	 DWORD PTR __$EHRec$[esp+20], 0
  00037	e8 00 00 00 00	 call	 ??0CPatrolPath@@QAE@XZ	; CPatrolPath::CPatrolPath
  0003c	68 00 00 00 00	 push	 OFFSET FLAT:_$E2
  00041	e8 00 00 00 00	 call	 _atexit
  00046	83 c4 04	 add	 esp, 4
$L241053:

; 25   : 	return &sMailBox;
; 26   : }

  00049	8b 0c 24	 mov	 ecx, DWORD PTR __$EHRec$[esp+12]
  0004c	b8 00 00 00 00	 mov	 eax, OFFSET FLAT:?sMailBox@?1??GetInstance@CPatrolPath@@SAPAV2@XZ@4V2@A
  00051	64 89 0d 00 00
	00 00		 mov	 DWORD PTR fs:__except_list, ecx
  00058	83 c4 0c	 add	 esp, 12			; 0000000cH
  0005b	c3		 ret	 0
_TEXT	ENDS
;	COMDAT text$x
text$x	SEGMENT
$L241050:
  00000	a1 00 00 00 00	 mov	 eax, DWORD PTR ?$S1@?1??GetInstance@CPatrolPath@@SAPAV2@XZ@4IA
  00005	83 e0 fe	 and	 eax, -2			; fffffffeH
  00008	a3 00 00 00 00	 mov	 DWORD PTR ?$S1@?1??GetInstance@CPatrolPath@@SAPAV2@XZ@4IA, eax
  0000d	c3		 ret	 0
__ehhandler$?GetInstance@CPatrolPath@@SAPAV1@XZ:
  0000e	b8 00 00 00 00	 mov	 eax, OFFSET FLAT:$T241052
  00013	e9 00 00 00 00	 jmp	 ___CxxFrameHandler
text$x	ENDS
?GetInstance@CPatrolPath@@SAPAV1@XZ ENDP		; CPatrolPath::GetInstance
; Function compile flags: /Ogty
;	COMDAT _$E2
text$yd	SEGMENT
_$E2	PROC NEAR					; COMDAT
  00000	b9 00 00 00 00	 mov	 ecx, OFFSET FLAT:?sMailBox@?1??GetInstance@CPatrolPath@@SAPAV2@XZ@4V2@A
  00005	e9 00 00 00 00	 jmp	 ??1CPatrolPath@@QAE@XZ	; CPatrolPath::~CPatrolPath
_$E2	ENDP
text$yd	ENDS
END
