; Listing generated by Microsoft (R) Optimizing Compiler Version 13.10.6030 

	TITLE	\Documents and Settings\test\Mes documents\Source\Virtuos_v17\Build\Program\_Common\path.cpp
	.386P
include listing.inc
if @Version gt 510
.model FLAT
else
_TEXT	SEGMENT PARA USE32 PUBLIC 'CODE'
_TEXT	ENDS
_DATA	SEGMENT DWORD USE32 PUBLIC 'DATA'
_DATA	ENDS
CONST	SEGMENT DWORD USE32 PUBLIC 'CONST'
CONST	ENDS
_BSS	SEGMENT DWORD USE32 PUBLIC 'BSS'
_BSS	ENDS
$$SYMBOLS	SEGMENT BYTE USE32 'DEBSYM'
$$SYMBOLS	ENDS
$$TYPES	SEGMENT BYTE USE32 'DEBTYP'
$$TYPES	ENDS
_TLS	SEGMENT DWORD USE32 PUBLIC 'TLS'
_TLS	ENDS
xdata$x	SEGMENT DWORD USE32 PUBLIC 'CONST'
xdata$x	ENDS
text$AFX_COL1	SEGMENT PARA USE32 PUBLIC ''
text$AFX_COL1	ENDS
;	COMDAT ?MakePath@@YAXAAV?$CStringT@DV?$StrTraitMFC@DV?$ChTraitsCRT@D@ATL@@@@@ATL@@PBD1@Z
_TEXT	SEGMENT PARA USE32 PUBLIC 'CODE'
_TEXT	ENDS
;	COMDAT ?MakePath@@YA?AV?$CStringT@DV?$StrTraitMFC@DV?$ChTraitsCRT@D@ATL@@@@@ATL@@PBDK0@Z
_TEXT	SEGMENT PARA USE32 PUBLIC 'CODE'
_TEXT	ENDS
;	COMDAT ?MakePath@@YA?AV?$CStringT@DV?$StrTraitMFC@DV?$ChTraitsCRT@D@ATL@@@@@ATL@@PBD0@Z
_TEXT	SEGMENT PARA USE32 PUBLIC 'CODE'
_TEXT	ENDS
;	COMDAT ?MakePath@@YAXPADPBD1@Z
_TEXT	SEGMENT PARA USE32 PUBLIC 'CODE'
_TEXT	ENDS
;	COMDAT ??Y?$CStringT@DV?$StrTraitMFC@DV?$ChTraitsCRT@D@ATL@@@@@ATL@@QAEAAV01@PBD@Z
_TEXT	SEGMENT PARA USE32 PUBLIC 'CODE'
_TEXT	ENDS
;	COMDAT ?compare@?$basic_string@DU?$char_traits@D@std@@V?$allocator@D@2@@std@@QBEHABV12@@Z
_TEXT	SEGMENT PARA USE32 PUBLIC 'CODE'
_TEXT	ENDS
;	COMDAT ?IsFull@?$CStack@K@@QAEHXZ
_TEXT	SEGMENT PARA USE32 PUBLIC 'CODE'
_TEXT	ENDS
;	COMDAT ??0?$pair@KPAVCCtrl@@@std@@QAE@ABKABQAVCCtrl@@@Z
_TEXT	SEGMENT PARA USE32 PUBLIC 'CODE'
_TEXT	ENDS
;	COMDAT ?GetMax@?$CItemContainer@VCItemElem@@@@QAEHXZ
_TEXT	SEGMENT PARA USE32 PUBLIC 'CODE'
_TEXT	ENDS
;	COMDAT ??0?$deque@PAUtagACTMSG@@V?$allocator@PAUtagACTMSG@@@std@@@std@@QAE@XZ
_TEXT	SEGMENT PARA USE32 PUBLIC 'CODE'
_TEXT	ENDS
;	COMDAT ??1?$deque@PAUtagACTMSG@@V?$allocator@PAUtagACTMSG@@@std@@@std@@QAE@XZ
_TEXT	SEGMENT PARA USE32 PUBLIC 'CODE'
_TEXT	ENDS
;	COMDAT ?begin@?$deque@PAUtagACTMSG@@V?$allocator@PAUtagACTMSG@@@std@@@std@@QAE?AViterator@12@XZ
_TEXT	SEGMENT PARA USE32 PUBLIC 'CODE'
_TEXT	ENDS
;	COMDAT ?end@?$deque@PAUtagACTMSG@@V?$allocator@PAUtagACTMSG@@@std@@@std@@QAE?AViterator@12@XZ
_TEXT	SEGMENT PARA USE32 PUBLIC 'CODE'
_TEXT	ENDS
;	COMDAT ?empty@?$deque@PAUtagACTMSG@@V?$allocator@PAUtagACTMSG@@@std@@@std@@QBE_NXZ
_TEXT	SEGMENT PARA USE32 PUBLIC 'CODE'
_TEXT	ENDS
;	COMDAT ?clear@?$deque@PAUtagACTMSG@@V?$allocator@PAUtagACTMSG@@@std@@@std@@QAEXXZ
_TEXT	SEGMENT PARA USE32 PUBLIC 'CODE'
_TEXT	ENDS
;	COMDAT ??0?$deque@PAUtagMAGICATKMSG@@V?$allocator@PAUtagMAGICATKMSG@@@std@@@std@@QAE@XZ
_TEXT	SEGMENT PARA USE32 PUBLIC 'CODE'
_TEXT	ENDS
;	COMDAT ??1?$deque@PAUtagMAGICATKMSG@@V?$allocator@PAUtagMAGICATKMSG@@@std@@@std@@QAE@XZ
_TEXT	SEGMENT PARA USE32 PUBLIC 'CODE'
_TEXT	ENDS
;	COMDAT ?begin@?$deque@PAUtagMAGICATKMSG@@V?$allocator@PAUtagMAGICATKMSG@@@std@@@std@@QAE?AViterator@12@XZ
_TEXT	SEGMENT PARA USE32 PUBLIC 'CODE'
_TEXT	ENDS
;	COMDAT ?end@?$deque@PAUtagMAGICATKMSG@@V?$allocator@PAUtagMAGICATKMSG@@@std@@@std@@QAE?AViterator@12@XZ
_TEXT	SEGMENT PARA USE32 PUBLIC 'CODE'
_TEXT	ENDS
;	COMDAT ?empty@?$deque@PAUtagMAGICATKMSG@@V?$allocator@PAUtagMAGICATKMSG@@@std@@@std@@QBE_NXZ
_TEXT	SEGMENT PARA USE32 PUBLIC 'CODE'
_TEXT	ENDS
;	COMDAT ?clear@?$deque@PAUtagMAGICATKMSG@@V?$allocator@PAUtagMAGICATKMSG@@@std@@@std@@QAEXXZ
_TEXT	SEGMENT PARA USE32 PUBLIC 'CODE'
_TEXT	ENDS
;	COMDAT ??Diterator@?$deque@PAUtagACTMSG@@V?$allocator@PAUtagACTMSG@@@std@@@std@@QBEAAPAUtagACTMSG@@XZ
_TEXT	SEGMENT PARA USE32 PUBLIC 'CODE'
_TEXT	ENDS
;	COMDAT ??Eiterator@?$deque@PAUtagACTMSG@@V?$allocator@PAUtagACTMSG@@@std@@@std@@QAEAAV012@XZ
_TEXT	SEGMENT PARA USE32 PUBLIC 'CODE'
_TEXT	ENDS
;	COMDAT ??9const_iterator@?$deque@PAUtagACTMSG@@V?$allocator@PAUtagACTMSG@@@std@@@std@@QBE_NABV012@@Z
_TEXT	SEGMENT PARA USE32 PUBLIC 'CODE'
_TEXT	ENDS
;	COMDAT ??Diterator@?$deque@PAUtagMAGICATKMSG@@V?$allocator@PAUtagMAGICATKMSG@@@std@@@std@@QBEAAPAUtagMAGICATKMSG@@XZ
_TEXT	SEGMENT PARA USE32 PUBLIC 'CODE'
_TEXT	ENDS
;	COMDAT ??Eiterator@?$deque@PAUtagMAGICATKMSG@@V?$allocator@PAUtagMAGICATKMSG@@@std@@@std@@QAEAAV012@XZ
_TEXT	SEGMENT PARA USE32 PUBLIC 'CODE'
_TEXT	ENDS
;	COMDAT ??9const_iterator@?$deque@PAUtagMAGICATKMSG@@V?$allocator@PAUtagMAGICATKMSG@@@std@@@std@@QBE_NABV012@@Z
_TEXT	SEGMENT PARA USE32 PUBLIC 'CODE'
_TEXT	ENDS
;	COMDAT ??Y?$CSimpleStringT@D$0A@@ATL@@QAEAAV01@PBD@Z
_TEXT	SEGMENT PARA USE32 PUBLIC 'CODE'
_TEXT	ENDS
;	COMDAT ?compare@?$basic_string@DU?$char_traits@D@std@@V?$allocator@D@2@@std@@QBEHIIPBDI@Z
_TEXT	SEGMENT PARA USE32 PUBLIC 'CODE'
_TEXT	ENDS
;	COMDAT ?_Tidy@?$deque@PAUtagACTMSG@@V?$allocator@PAUtagACTMSG@@@std@@@std@@IAEXXZ
_TEXT	SEGMENT PARA USE32 PUBLIC 'CODE'
_TEXT	ENDS
;	COMDAT ??0?$_Deque_val@PAUtagACTMSG@@V?$allocator@PAUtagACTMSG@@@std@@@std@@IAE@V?$allocator@PAUtagACTMSG@@@1@@Z
_TEXT	SEGMENT PARA USE32 PUBLIC 'CODE'
_TEXT	ENDS
;	COMDAT ??0?$allocator@PAUtagACTMSG@@@std@@QAE@XZ
_TEXT	SEGMENT PARA USE32 PUBLIC 'CODE'
_TEXT	ENDS
;	COMDAT ?_Tidy@?$deque@PAUtagMAGICATKMSG@@V?$allocator@PAUtagMAGICATKMSG@@@std@@@std@@IAEXXZ
_TEXT	SEGMENT PARA USE32 PUBLIC 'CODE'
_TEXT	ENDS
;	COMDAT ??0?$_Deque_val@PAUtagMAGICATKMSG@@V?$allocator@PAUtagMAGICATKMSG@@@std@@@std@@IAE@V?$allocator@PAUtagMAGICATKMSG@@@1@@Z
_TEXT	SEGMENT PARA USE32 PUBLIC 'CODE'
_TEXT	ENDS
;	COMDAT ??0?$allocator@PAUtagMAGICATKMSG@@@std@@QAE@XZ
_TEXT	SEGMENT PARA USE32 PUBLIC 'CODE'
_TEXT	ENDS
;	COMDAT ??0iterator@?$deque@PAUtagACTMSG@@V?$allocator@PAUtagACTMSG@@@std@@@std@@QAE@IPBV12@@Z
_TEXT	SEGMENT PARA USE32 PUBLIC 'CODE'
_TEXT	ENDS
;	COMDAT ??Dconst_iterator@?$deque@PAUtagACTMSG@@V?$allocator@PAUtagACTMSG@@@std@@@std@@QBEABQAUtagACTMSG@@XZ
_TEXT	SEGMENT PARA USE32 PUBLIC 'CODE'
_TEXT	ENDS
;	COMDAT ??8const_iterator@?$deque@PAUtagACTMSG@@V?$allocator@PAUtagACTMSG@@@std@@@std@@QBE_NABV012@@Z
_TEXT	SEGMENT PARA USE32 PUBLIC 'CODE'
_TEXT	ENDS
;	COMDAT ??0iterator@?$deque@PAUtagMAGICATKMSG@@V?$allocator@PAUtagMAGICATKMSG@@@std@@@std@@QAE@IPBV12@@Z
_TEXT	SEGMENT PARA USE32 PUBLIC 'CODE'
_TEXT	ENDS
;	COMDAT ??Dconst_iterator@?$deque@PAUtagMAGICATKMSG@@V?$allocator@PAUtagMAGICATKMSG@@@std@@@std@@QBEABQAUtagMAGICATKMSG@@XZ
_TEXT	SEGMENT PARA USE32 PUBLIC 'CODE'
_TEXT	ENDS
;	COMDAT ??8const_iterator@?$deque@PAUtagMAGICATKMSG@@V?$allocator@PAUtagMAGICATKMSG@@@std@@@std@@QBE_NABV012@@Z
_TEXT	SEGMENT PARA USE32 PUBLIC 'CODE'
_TEXT	ENDS
;	COMDAT ?Append@?$CSimpleStringT@D$0A@@ATL@@QAEXPBD@Z
_TEXT	SEGMENT PARA USE32 PUBLIC 'CODE'
_TEXT	ENDS
;	COMDAT ?pop_back@?$deque@PAUtagACTMSG@@V?$allocator@PAUtagACTMSG@@@std@@@std@@QAEXXZ
_TEXT	SEGMENT PARA USE32 PUBLIC 'CODE'
_TEXT	ENDS
;	COMDAT ??0?$_Deque_map@PAUtagACTMSG@@V?$allocator@PAUtagACTMSG@@@std@@@std@@IAE@V?$allocator@PAUtagACTMSG@@@1@@Z
_TEXT	SEGMENT PARA USE32 PUBLIC 'CODE'
_TEXT	ENDS
;	COMDAT ??0?$allocator@PAUtagACTMSG@@@std@@QAE@ABV01@@Z
_TEXT	SEGMENT PARA USE32 PUBLIC 'CODE'
_TEXT	ENDS
;	COMDAT ?deallocate@?$allocator@PAUtagACTMSG@@@std@@QAEXPAPAUtagACTMSG@@I@Z
_TEXT	SEGMENT PARA USE32 PUBLIC 'CODE'
_TEXT	ENDS
;	COMDAT ?deallocate@?$allocator@PAPAUtagACTMSG@@@std@@QAEXPAPAPAUtagACTMSG@@I@Z
_TEXT	SEGMENT PARA USE32 PUBLIC 'CODE'
_TEXT	ENDS
;	COMDAT ?destroy@?$allocator@PAPAUtagACTMSG@@@std@@QAEXPAPAPAUtagACTMSG@@@Z
_TEXT	SEGMENT PARA USE32 PUBLIC 'CODE'
_TEXT	ENDS
;	COMDAT ?pop_back@?$deque@PAUtagMAGICATKMSG@@V?$allocator@PAUtagMAGICATKMSG@@@std@@@std@@QAEXXZ
_TEXT	SEGMENT PARA USE32 PUBLIC 'CODE'
_TEXT	ENDS
;	COMDAT ??0?$_Deque_map@PAUtagMAGICATKMSG@@V?$allocator@PAUtagMAGICATKMSG@@@std@@@std@@IAE@V?$allocator@PAUtagMAGICATKMSG@@@1@@Z
_TEXT	SEGMENT PARA USE32 PUBLIC 'CODE'
_TEXT	ENDS
;	COMDAT ??0?$allocator@PAUtagMAGICATKMSG@@@std@@QAE@ABV01@@Z
_TEXT	SEGMENT PARA USE32 PUBLIC 'CODE'
_TEXT	ENDS
;	COMDAT ?deallocate@?$allocator@PAUtagMAGICATKMSG@@@std@@QAEXPAPAUtagMAGICATKMSG@@I@Z
_TEXT	SEGMENT PARA USE32 PUBLIC 'CODE'
_TEXT	ENDS
;	COMDAT ?deallocate@?$allocator@PAPAUtagMAGICATKMSG@@@std@@QAEXPAPAPAUtagMAGICATKMSG@@I@Z
_TEXT	SEGMENT PARA USE32 PUBLIC 'CODE'
_TEXT	ENDS
;	COMDAT ?destroy@?$allocator@PAPAUtagMAGICATKMSG@@@std@@QAEXPAPAPAUtagMAGICATKMSG@@@Z
_TEXT	SEGMENT PARA USE32 PUBLIC 'CODE'
_TEXT	ENDS
;	COMDAT ??0const_iterator@?$deque@PAUtagACTMSG@@V?$allocator@PAUtagACTMSG@@@std@@@std@@QAE@IPBV12@@Z
_TEXT	SEGMENT PARA USE32 PUBLIC 'CODE'
_TEXT	ENDS
;	COMDAT ??0const_iterator@?$deque@PAUtagMAGICATKMSG@@V?$allocator@PAUtagMAGICATKMSG@@@std@@@std@@QAE@IPBV12@@Z
_TEXT	SEGMENT PARA USE32 PUBLIC 'CODE'
_TEXT	ENDS
;	COMDAT ?Append@?$CSimpleStringT@D$0A@@ATL@@QAEXPBDH@Z
_TEXT	SEGMENT PARA USE32 PUBLIC 'CODE'
_TEXT	ENDS
;	COMDAT ?destroy@?$allocator@PAUtagACTMSG@@@std@@QAEXPAPAUtagACTMSG@@@Z
_TEXT	SEGMENT PARA USE32 PUBLIC 'CODE'
_TEXT	ENDS
;	COMDAT ?destroy@?$allocator@PAUtagMAGICATKMSG@@@std@@QAEXPAPAUtagMAGICATKMSG@@@Z
_TEXT	SEGMENT PARA USE32 PUBLIC 'CODE'
_TEXT	ENDS
;	COMDAT ??$_Iter_cat@Vconst_iterator@?$vector@EV?$allocator@E@std@@@std@@@std@@YA?AUrandom_access_iterator_tag@0@ABVconst_iterator@?$vector@EV?$allocator@E@std@@@0@@Z
_TEXT	SEGMENT PARA USE32 PUBLIC 'CODE'
_TEXT	ENDS
;	COMDAT ??$_Assign@Vconst_iterator@?$vector@EV?$allocator@E@std@@@std@@@?$vector@EV?$allocator@E@std@@@std@@QAEXVconst_iterator@01@0Uinput_iterator_tag@1@@Z
_TEXT	SEGMENT PARA USE32 PUBLIC 'CODE'
_TEXT	ENDS
;	COMDAT ??$_Iter_cat@Viterator@?$_Tree@V?$_Tmap_traits@KPAVCUser@@U?$less@K@std@@V?$allocator@U?$pair@$$CBKPAVCUser@@@std@@@3@$0A@@std@@@std@@@std@@YA?AUbidirectional_iterator_tag@0@ABViterator@?$_Tree@V?$_Tmap_traits@KPAVCUser@@U?$less@K@std@@V?$allocator@U?$pair@$$CBKPAVCUser@@@std@@@3@$0A@@std@@@0@@Z
_TEXT	SEGMENT PARA USE32 PUBLIC 'CODE'
_TEXT	ENDS
;	COMDAT ??$_Distance2@Viterator@?$_Tree@V?$_Tmap_traits@KPAVCUser@@U?$less@K@std@@V?$allocator@U?$pair@$$CBKPAVCUser@@@std@@@3@$0A@@std@@@std@@I@std@@YAXViterator@?$_Tree@V?$_Tmap_traits@KPAVCUser@@U?$less@K@std@@V?$allocator@U?$pair@$$CBKPAVCUser@@@std@@@3@$0A@@std@@@0@0AAIUbidirectional_iterator_tag@0@@Z
_TEXT	SEGMENT PARA USE32 PUBLIC 'CODE'
_TEXT	ENDS
;	COMDAT ??$_Iter_cat@Viterator@?$_Tree@V?$_Tmap_traits@KPAVCCtrl@@U?$less@K@std@@V?$allocator@U?$pair@$$CBKPAVCCtrl@@@std@@@3@$0A@@std@@@std@@@std@@YA?AUbidirectional_iterator_tag@0@ABViterator@?$_Tree@V?$_Tmap_traits@KPAVCCtrl@@U?$less@K@std@@V?$allocator@U?$pair@$$CBKPAVCCtrl@@@std@@@3@$0A@@std@@@0@@Z
_TEXT	SEGMENT PARA USE32 PUBLIC 'CODE'
_TEXT	ENDS
;	COMDAT ??$_Distance2@Viterator@?$_Tree@V?$_Tmap_traits@KPAVCCtrl@@U?$less@K@std@@V?$allocator@U?$pair@$$CBKPAVCCtrl@@@std@@@3@$0A@@std@@@std@@I@std@@YAXViterator@?$_Tree@V?$_Tmap_traits@KPAVCCtrl@@U?$less@K@std@@V?$allocator@U?$pair@$$CBKPAVCCtrl@@@std@@@3@$0A@@std@@@0@0AAIUbidirectional_iterator_tag@0@@Z
_TEXT	SEGMENT PARA USE32 PUBLIC 'CODE'
_TEXT	ENDS
;	COMDAT ??$_Uninitialized_copy@Vconst_iterator@?$vector@EV?$allocator@E@std@@@std@@PAEV?$allocator@E@3@@std@@YAPAEVconst_iterator@?$vector@EV?$allocator@E@std@@@0@0PAEAAV?$allocator@E@0@@Z
_TEXT	SEGMENT PARA USE32 PUBLIC 'CODE'
_TEXT	ENDS
;	COMDAT ??$_Iter_cat@Viterator@?$_Tree@V?$_Tmap_traits@KEU?$less@K@std@@V?$allocator@U?$pair@$$CBKE@std@@@2@$0A@@std@@@std@@@std@@YA?AUbidirectional_iterator_tag@0@ABViterator@?$_Tree@V?$_Tmap_traits@KEU?$less@K@std@@V?$allocator@U?$pair@$$CBKE@std@@@2@$0A@@std@@@0@@Z
_TEXT	SEGMENT PARA USE32 PUBLIC 'CODE'
_TEXT	ENDS
;	COMDAT ??$_Distance2@Viterator@?$_Tree@V?$_Tmap_traits@KEU?$less@K@std@@V?$allocator@U?$pair@$$CBKE@std@@@2@$0A@@std@@@std@@I@std@@YAXViterator@?$_Tree@V?$_Tmap_traits@KEU?$less@K@std@@V?$allocator@U?$pair@$$CBKE@std@@@2@$0A@@std@@@0@0AAIUbidirectional_iterator_tag@0@@Z
_TEXT	SEGMENT PARA USE32 PUBLIC 'CODE'
_TEXT	ENDS
;	COMDAT ??$_Ptr_cat@PAU__SPAWNREGION@CEventLua@@PAU12@@std@@YA?AU_Nonscalar_ptr_iterator_tag@0@AAPAU__SPAWNREGION@CEventLua@@0@Z
_TEXT	SEGMENT PARA USE32 PUBLIC 'CODE'
_TEXT	ENDS
;	COMDAT ??$_Uninit_fill_n@PAU__SPAWNREGION@CEventLua@@IU12@V?$allocator@U__SPAWNREGION@CEventLua@@@std@@@std@@YAXPAU__SPAWNREGION@CEventLua@@IABU12@AAV?$allocator@U__SPAWNREGION@CEventLua@@@0@U_Nonscalar_ptr_iterator_tag@0@@Z
_TEXT	SEGMENT PARA USE32 PUBLIC 'CODE'
_TEXT	ENDS
;	COMDAT ??$_Copy_opt@PAJPAJ@std@@YAPAJPAJ00U_Scalar_ptr_iterator_tag@0@@Z
_TEXT	SEGMENT PARA USE32 PUBLIC 'CODE'
_TEXT	ENDS
;	COMDAT ??$_Uninitialized_copy@PAJPAJV?$allocator@J@std@@@std@@YAPAJPAJ00AAV?$allocator@J@0@@Z
_TEXT	SEGMENT PARA USE32 PUBLIC 'CODE'
_TEXT	ENDS
;	COMDAT ??$_Copy_backward_opt@PAJPAJ@std@@YAPAJPAJ00U_Scalar_ptr_iterator_tag@0@@Z
_TEXT	SEGMENT PARA USE32 PUBLIC 'CODE'
_TEXT	ENDS
;	COMDAT ??$_Ptr_cat@PAUtagDROPITEM@@PAU1@@std@@YA?AU_Nonscalar_ptr_iterator_tag@0@AAPAUtagDROPITEM@@0@Z
_TEXT	SEGMENT PARA USE32 PUBLIC 'CODE'
_TEXT	ENDS
;	COMDAT ??$_Destroy_range@UtagDROPITEM@@V?$allocator@UtagDROPITEM@@@std@@@std@@YAXPAUtagDROPITEM@@0AAV?$allocator@UtagDROPITEM@@@0@U_Nonscalar_ptr_iterator_tag@0@@Z
_TEXT	SEGMENT PARA USE32 PUBLIC 'CODE'
_TEXT	ENDS
;	COMDAT ??$_Ptr_cat@PAUWORMON@@PAU1@@std@@YA?AU_Nonscalar_ptr_iterator_tag@0@AAPAUWORMON@@0@Z
_TEXT	SEGMENT PARA USE32 PUBLIC 'CODE'
_TEXT	ENDS
;	COMDAT ??$_Destroy_range@UWORMON@@V?$allocator@UWORMON@@@std@@@std@@YAXPAUWORMON@@0AAV?$allocator@UWORMON@@@0@U_Nonscalar_ptr_iterator_tag@0@@Z
_TEXT	SEGMENT PARA USE32 PUBLIC 'CODE'
_TEXT	ENDS
;	COMDAT ??$_Ptr_cat@PAU__ITEMGAME@CMiniGame@@PAU12@@std@@YA?AU_Nonscalar_ptr_iterator_tag@0@AAPAU__ITEMGAME@CMiniGame@@0@Z
_TEXT	SEGMENT PARA USE32 PUBLIC 'CODE'
_TEXT	ENDS
;	COMDAT ??$_Destroy_range@U__ITEMGAME@CMiniGame@@V?$allocator@U__ITEMGAME@CMiniGame@@@std@@@std@@YAXPAU__ITEMGAME@CMiniGame@@0AAV?$allocator@U__ITEMGAME@CMiniGame@@@0@U_Nonscalar_ptr_iterator_tag@0@@Z
_TEXT	SEGMENT PARA USE32 PUBLIC 'CODE'
_TEXT	ENDS
;	COMDAT ??$_Destroy_range@KV?$allocator@K@std@@@std@@YAXPAK0AAV?$allocator@K@0@U_Scalar_ptr_iterator_tag@0@@Z
_TEXT	SEGMENT PARA USE32 PUBLIC 'CODE'
_TEXT	ENDS
;	COMDAT ??$_Destroy_range@HV?$allocator@H@std@@@std@@YAXPAH0AAV?$allocator@H@0@U_Scalar_ptr_iterator_tag@0@@Z
_TEXT	SEGMENT PARA USE32 PUBLIC 'CODE'
_TEXT	ENDS
;	COMDAT ??$_Ptr_cat@PAU__ITEM@CExchange@@PAU12@@std@@YA?AU_Nonscalar_ptr_iterator_tag@0@AAPAU__ITEM@CExchange@@0@Z
_TEXT	SEGMENT PARA USE32 PUBLIC 'CODE'
_TEXT	ENDS
;	COMDAT ??$_Destroy_range@U__ITEM@CExchange@@V?$allocator@U__ITEM@CExchange@@@std@@@std@@YAXPAU__ITEM@CExchange@@0AAV?$allocator@U__ITEM@CExchange@@@0@U_Nonscalar_ptr_iterator_tag@0@@Z
_TEXT	SEGMENT PARA USE32 PUBLIC 'CODE'
_TEXT	ENDS
;	COMDAT ??$_Ptr_cat@PAU__POINT@CExchange@@PAU12@@std@@YA?AU_Nonscalar_ptr_iterator_tag@0@AAPAU__POINT@CExchange@@0@Z
_TEXT	SEGMENT PARA USE32 PUBLIC 'CODE'
_TEXT	ENDS
;	COMDAT ??$_Destroy_range@U__POINT@CExchange@@V?$allocator@U__POINT@CExchange@@@std@@@std@@YAXPAU__POINT@CExchange@@0AAV?$allocator@U__POINT@CExchange@@@0@U_Nonscalar_ptr_iterator_tag@0@@Z
_TEXT	SEGMENT PARA USE32 PUBLIC 'CODE'
_TEXT	ENDS
;	COMDAT ??$_Destroy_range@EV?$allocator@E@std@@@std@@YAXPAE0AAV?$allocator@E@0@U_Scalar_ptr_iterator_tag@0@@Z
_TEXT	SEGMENT PARA USE32 PUBLIC 'CODE'
_TEXT	ENDS
;	COMDAT ??$_Uninitialized_copy@PAU__SPAWNREGION@CEventLua@@PAU12@V?$allocator@U__SPAWNREGION@CEventLua@@@std@@@std@@YAPAU__SPAWNREGION@CEventLua@@PAU12@00AAV?$allocator@U__SPAWNREGION@CEventLua@@@0@@Z
_TEXT	SEGMENT PARA USE32 PUBLIC 'CODE'
_TEXT	ENDS
;	COMDAT ??$_Copy_backward_opt@PAU__SPAWNREGION@CEventLua@@PAU12@@std@@YAPAU__SPAWNREGION@CEventLua@@PAU12@00U_Nonscalar_ptr_iterator_tag@0@@Z
_TEXT	SEGMENT PARA USE32 PUBLIC 'CODE'
_TEXT	ENDS
;	COMDAT ??$_Ptr_cat@PAUD3DXVECTOR3@@PAU1@@std@@YA?AU_Nonscalar_ptr_iterator_tag@0@AAPAUD3DXVECTOR3@@0@Z
_TEXT	SEGMENT PARA USE32 PUBLIC 'CODE'
_TEXT	ENDS
;	COMDAT ??$_Destroy_range@UD3DXVECTOR3@@V?$allocator@UD3DXVECTOR3@@@std@@@std@@YAXPAUD3DXVECTOR3@@0AAV?$allocator@UD3DXVECTOR3@@@0@U_Nonscalar_ptr_iterator_tag@0@@Z
_TEXT	SEGMENT PARA USE32 PUBLIC 'CODE'
_TEXT	ENDS
;	COMDAT ??$_Ptr_cat@PAU_GIFTBOX@@PAU1@@std@@YA?AU_Nonscalar_ptr_iterator_tag@0@AAPAU_GIFTBOX@@0@Z
_TEXT	SEGMENT PARA USE32 PUBLIC 'CODE'
_TEXT	ENDS
;	COMDAT ??$_Destroy_range@U_GIFTBOX@@V?$allocator@U_GIFTBOX@@@std@@@std@@YAXPAU_GIFTBOX@@0AAV?$allocator@U_GIFTBOX@@@0@U_Nonscalar_ptr_iterator_tag@0@@Z
_TEXT	SEGMENT PARA USE32 PUBLIC 'CODE'
_TEXT	ENDS
;	COMDAT ??$_Destroy_range@JV?$allocator@J@std@@@std@@YAXPAJ0AAV?$allocator@J@0@U_Scalar_ptr_iterator_tag@0@@Z
_TEXT	SEGMENT PARA USE32 PUBLIC 'CODE'
_TEXT	ENDS
;	COMDAT ??$_Uninit_fill_n@JIJ@std@@YAXPAJIABJAAV?$allocator@J@0@U_Scalar_ptr_iterator_tag@0@@Z
_TEXT	SEGMENT PARA USE32 PUBLIC 'CODE'
_TEXT	ENDS
;	COMDAT ??$_Destroy_range@U__SPAWNREGION@CEventLua@@V?$allocator@U__SPAWNREGION@CEventLua@@@std@@@std@@YAXPAU__SPAWNREGION@CEventLua@@0AAV?$allocator@U__SPAWNREGION@CEventLua@@@0@U_Nonscalar_ptr_iterator_tag@0@@Z
_TEXT	SEGMENT PARA USE32 PUBLIC 'CODE'
_TEXT	ENDS
;	COMDAT ??$?0PAUtagACTMSG@@@?$allocator@PAPAUtagACTMSG@@@std@@QAE@ABV?$allocator@PAUtagACTMSG@@@1@@Z
_TEXT	SEGMENT PARA USE32 PUBLIC 'CODE'
_TEXT	ENDS
;	COMDAT ??$_Destroy@PAPAUtagACTMSG@@@std@@YAXPAPAPAUtagACTMSG@@@Z
_TEXT	SEGMENT PARA USE32 PUBLIC 'CODE'
_TEXT	ENDS
;	COMDAT ??$?0PAUtagMAGICATKMSG@@@?$allocator@PAPAUtagMAGICATKMSG@@@std@@QAE@ABV?$allocator@PAUtagMAGICATKMSG@@@1@@Z
_TEXT	SEGMENT PARA USE32 PUBLIC 'CODE'
_TEXT	ENDS
;	COMDAT ??$_Destroy@PAPAUtagMAGICATKMSG@@@std@@YAXPAPAPAUtagMAGICATKMSG@@@Z
_TEXT	SEGMENT PARA USE32 PUBLIC 'CODE'
_TEXT	ENDS
;	COMDAT ??$_Destroy@PAUtagACTMSG@@@std@@YAXPAPAUtagACTMSG@@@Z
_TEXT	SEGMENT PARA USE32 PUBLIC 'CODE'
_TEXT	ENDS
;	COMDAT ??$_Destroy@PAUtagMAGICATKMSG@@@std@@YAXPAPAUtagMAGICATKMSG@@@Z
_TEXT	SEGMENT PARA USE32 PUBLIC 'CODE'
_TEXT	ENDS
;	COMDAT ?destroy@?$allocator@UtagDROPITEM@@@std@@QAEXPAUtagDROPITEM@@@Z
_TEXT	SEGMENT PARA USE32 PUBLIC 'CODE'
_TEXT	ENDS
;	COMDAT ?destroy@?$allocator@UWORMON@@@std@@QAEXPAUWORMON@@@Z
_TEXT	SEGMENT PARA USE32 PUBLIC 'CODE'
_TEXT	ENDS
;	COMDAT ?destroy@?$allocator@U__ITEMGAME@CMiniGame@@@std@@QAEXPAU__ITEMGAME@CMiniGame@@@Z
_TEXT	SEGMENT PARA USE32 PUBLIC 'CODE'
_TEXT	ENDS
;	COMDAT ?destroy@?$allocator@U__ITEM@CExchange@@@std@@QAEXPAU__ITEM@CExchange@@@Z
_TEXT	SEGMENT PARA USE32 PUBLIC 'CODE'
_TEXT	ENDS
;	COMDAT ?destroy@?$allocator@U__POINT@CExchange@@@std@@QAEXPAU__POINT@CExchange@@@Z
_TEXT	SEGMENT PARA USE32 PUBLIC 'CODE'
_TEXT	ENDS
;	COMDAT ?begin@?$vector@EV?$allocator@E@std@@@std@@QAE?AViterator@12@XZ
_TEXT	SEGMENT PARA USE32 PUBLIC 'CODE'
_TEXT	ENDS
;	COMDAT ?end@?$vector@EV?$allocator@E@std@@@std@@QAE?AViterator@12@XZ
_TEXT	SEGMENT PARA USE32 PUBLIC 'CODE'
_TEXT	ENDS
;	COMDAT ?erase@?$vector@EV?$allocator@E@std@@@std@@QAE?AViterator@12@V312@0@Z
_TEXT	SEGMENT PARA USE32 PUBLIC 'CODE'
_TEXT	ENDS
;	COMDAT ?construct@?$allocator@U__SPAWNREGION@CEventLua@@@std@@QAEXPAU__SPAWNREGION@CEventLua@@ABU34@@Z
_TEXT	SEGMENT PARA USE32 PUBLIC 'CODE'
_TEXT	ENDS
;	COMDAT ?destroy@?$allocator@U__SPAWNREGION@CEventLua@@@std@@QAEXPAU__SPAWNREGION@CEventLua@@@Z
_TEXT	SEGMENT PARA USE32 PUBLIC 'CODE'
_TEXT	ENDS
;	COMDAT ?destroy@?$allocator@UD3DXVECTOR3@@@std@@QAEXPAUD3DXVECTOR3@@@Z
_TEXT	SEGMENT PARA USE32 PUBLIC 'CODE'
_TEXT	ENDS
;	COMDAT ?destroy@?$allocator@U_GIFTBOX@@@std@@QAEXPAU_GIFTBOX@@@Z
_TEXT	SEGMENT PARA USE32 PUBLIC 'CODE'
_TEXT	ENDS
;	COMDAT ??9const_iterator@?$vector@EV?$allocator@E@std@@@std@@QBE_NABV012@@Z
_TEXT	SEGMENT PARA USE32 PUBLIC 'CODE'
_TEXT	ENDS
;	COMDAT ??0iterator@?$vector@EV?$allocator@E@std@@@std@@QAE@PAE@Z
_TEXT	SEGMENT PARA USE32 PUBLIC 'CODE'
_TEXT	ENDS
;	COMDAT ??8const_iterator@?$vector@EV?$allocator@E@std@@@std@@QBE_NABV012@@Z
_TEXT	SEGMENT PARA USE32 PUBLIC 'CODE'
_TEXT	ENDS
;	COMDAT ??$insert@Vconst_iterator@?$vector@EV?$allocator@E@std@@@std@@@?$vector@EV?$allocator@E@std@@@std@@QAEXViterator@01@Vconst_iterator@01@1@Z
_TEXT	SEGMENT PARA USE32 PUBLIC 'CODE'
_TEXT	ENDS
;	COMDAT ??$_Ptr_cat@Vconst_iterator@?$vector@EV?$allocator@E@std@@@std@@PAE@std@@YA?AU_Nonscalar_ptr_iterator_tag@0@AAVconst_iterator@?$vector@EV?$allocator@E@std@@@0@AAPAE@Z
_TEXT	SEGMENT PARA USE32 PUBLIC 'CODE'
_TEXT	ENDS
;	COMDAT ??$_Uninit_copy@Vconst_iterator@?$vector@EV?$allocator@E@std@@@std@@PAEV?$allocator@E@3@@std@@YAPAEVconst_iterator@?$vector@EV?$allocator@E@std@@@0@0PAEAAV?$allocator@E@0@U_Nonscalar_ptr_iterator_tag@0@@Z
_TEXT	SEGMENT PARA USE32 PUBLIC 'CODE'
_TEXT	ENDS
;	COMDAT ??$_Uninit_copy@JJ@std@@YAPAJPAJ00AAV?$allocator@J@0@U_Scalar_ptr_iterator_tag@0@@Z
_TEXT	SEGMENT PARA USE32 PUBLIC 'CODE'
_TEXT	ENDS
;	COMDAT ??$_Uninit_copy@PAU__SPAWNREGION@CEventLua@@PAU12@V?$allocator@U__SPAWNREGION@CEventLua@@@std@@@std@@YAPAU__SPAWNREGION@CEventLua@@PAU12@00AAV?$allocator@U__SPAWNREGION@CEventLua@@@0@U_Nonscalar_ptr_iterator_tag@0@@Z
_TEXT	SEGMENT PARA USE32 PUBLIC 'CODE'
_TEXT	ENDS
;	COMDAT ??$fill_n@PAJIJ@std@@YAXPAJIABJ@Z
_TEXT	SEGMENT PARA USE32 PUBLIC 'CODE'
_TEXT	ENDS
;	COMDAT ??$_Destroy@UtagDROPITEM@@@std@@YAXPAUtagDROPITEM@@@Z
_TEXT	SEGMENT PARA USE32 PUBLIC 'CODE'
_TEXT	ENDS
;	COMDAT ??$_Destroy@UWORMON@@@std@@YAXPAUWORMON@@@Z
_TEXT	SEGMENT PARA USE32 PUBLIC 'CODE'
_TEXT	ENDS
;	COMDAT ??$_Destroy@U__ITEMGAME@CMiniGame@@@std@@YAXPAU__ITEMGAME@CMiniGame@@@Z
_TEXT	SEGMENT PARA USE32 PUBLIC 'CODE'
_TEXT	ENDS
;	COMDAT ??$_Destroy@U__ITEM@CExchange@@@std@@YAXPAU__ITEM@CExchange@@@Z
_TEXT	SEGMENT PARA USE32 PUBLIC 'CODE'
_TEXT	ENDS
;	COMDAT ??$_Destroy@U__POINT@CExchange@@@std@@YAXPAU__POINT@CExchange@@@Z
_TEXT	SEGMENT PARA USE32 PUBLIC 'CODE'
_TEXT	ENDS
;	COMDAT ??$copy@PAEPAE@std@@YAPAEPAE00@Z
_TEXT	SEGMENT PARA USE32 PUBLIC 'CODE'
_TEXT	ENDS
;	COMDAT ??$_Construct@U__SPAWNREGION@CEventLua@@U12@@std@@YAXPAU__SPAWNREGION@CEventLua@@ABU12@@Z
_TEXT	SEGMENT PARA USE32 PUBLIC 'CODE'
_TEXT	ENDS
;	COMDAT ??$_Destroy@U__SPAWNREGION@CEventLua@@@std@@YAXPAU__SPAWNREGION@CEventLua@@@Z
_TEXT	SEGMENT PARA USE32 PUBLIC 'CODE'
_TEXT	ENDS
;	COMDAT ??$_Destroy@UD3DXVECTOR3@@@std@@YAXPAUD3DXVECTOR3@@@Z
_TEXT	SEGMENT PARA USE32 PUBLIC 'CODE'
_TEXT	ENDS
;	COMDAT ??$_Destroy@U_GIFTBOX@@@std@@YAXPAU_GIFTBOX@@@Z
_TEXT	SEGMENT PARA USE32 PUBLIC 'CODE'
_TEXT	ENDS
;	COMDAT ?construct@?$allocator@E@std@@QAEXPAEABE@Z
_TEXT	SEGMENT PARA USE32 PUBLIC 'CODE'
_TEXT	ENDS
;	COMDAT ?destroy@?$allocator@E@std@@QAEXPAE@Z
_TEXT	SEGMENT PARA USE32 PUBLIC 'CODE'
_TEXT	ENDS
;	COMDAT ??Dconst_iterator@?$vector@EV?$allocator@E@std@@@std@@QBEABEXZ
_TEXT	SEGMENT PARA USE32 PUBLIC 'CODE'
_TEXT	ENDS
;	COMDAT ??Econst_iterator@?$vector@EV?$allocator@E@std@@@std@@QAEAAV012@XZ
_TEXT	SEGMENT PARA USE32 PUBLIC 'CODE'
_TEXT	ENDS
;	COMDAT ??$_Insert@Vconst_iterator@?$vector@EV?$allocator@E@std@@@std@@@?$vector@EV?$allocator@E@std@@@std@@QAEXViterator@01@Vconst_iterator@01@1Uforward_iterator_tag@1@@Z
_TEXT	SEGMENT PARA USE32 PUBLIC 'CODE'
_TEXT	ENDS
;	COMDAT ??$_Copy_opt@PAEPAE@std@@YAPAEPAE00U_Scalar_ptr_iterator_tag@0@@Z
_TEXT	SEGMENT PARA USE32 PUBLIC 'CODE'
_TEXT	ENDS
;	COMDAT ??$_Construct@EE@std@@YAXPAEABE@Z
_TEXT	SEGMENT PARA USE32 PUBLIC 'CODE'
_TEXT	ENDS
;	COMDAT ??$_Destroy@E@std@@YAXPAE@Z
_TEXT	SEGMENT PARA USE32 PUBLIC 'CODE'
_TEXT	ENDS
;	COMDAT ?capacity@?$vector@EV?$allocator@E@std@@@std@@QBEIXZ
_TEXT	SEGMENT PARA USE32 PUBLIC 'CODE'
_TEXT	ENDS
;	COMDAT ??Giterator@?$vector@EV?$allocator@E@std@@@std@@QBEHABVconst_iterator@12@@Z
_TEXT	SEGMENT PARA USE32 PUBLIC 'CODE'
_TEXT	ENDS
;	COMDAT ??Gconst_iterator@?$vector@EV?$allocator@E@std@@@std@@QBEHABV012@@Z
_TEXT	SEGMENT PARA USE32 PUBLIC 'CODE'
_TEXT	ENDS
;	COMDAT ??$_Distance@Vconst_iterator@?$vector@EV?$allocator@E@std@@@std@@I@std@@YAXVconst_iterator@?$vector@EV?$allocator@E@std@@@0@0AAI@Z
_TEXT	SEGMENT PARA USE32 PUBLIC 'CODE'
_TEXT	ENDS
;	COMDAT ??$_Ucopy@PAE@?$vector@EV?$allocator@E@std@@@std@@IAEPAEPAE00@Z
_TEXT	SEGMENT PARA USE32 PUBLIC 'CODE'
_TEXT	ENDS
;	COMDAT ??$advance@Vconst_iterator@?$vector@EV?$allocator@E@std@@@std@@H@std@@YAXAAVconst_iterator@?$vector@EV?$allocator@E@std@@@0@H@Z
_TEXT	SEGMENT PARA USE32 PUBLIC 'CODE'
_TEXT	ENDS
;	COMDAT ??$copy@Vconst_iterator@?$vector@EV?$allocator@E@std@@@std@@PAE@std@@YAPAEVconst_iterator@?$vector@EV?$allocator@E@std@@@0@0PAE@Z
_TEXT	SEGMENT PARA USE32 PUBLIC 'CODE'
_TEXT	ENDS
;	COMDAT ??$copy_backward@PAEPAE@std@@YAPAEPAE00@Z
_TEXT	SEGMENT PARA USE32 PUBLIC 'CODE'
_TEXT	ENDS
;	COMDAT ??$_Distance2@Vconst_iterator@?$vector@EV?$allocator@E@std@@@std@@I@std@@YAXVconst_iterator@?$vector@EV?$allocator@E@std@@@0@0AAIUrandom_access_iterator_tag@0@@Z
_TEXT	SEGMENT PARA USE32 PUBLIC 'CODE'
_TEXT	ENDS
;	COMDAT ??$_Uninitialized_copy@PAEPAEV?$allocator@E@std@@@std@@YAPAEPAE00AAV?$allocator@E@0@@Z
_TEXT	SEGMENT PARA USE32 PUBLIC 'CODE'
_TEXT	ENDS
;	COMDAT ??$_Advance@Vconst_iterator@?$vector@EV?$allocator@E@std@@@std@@H@std@@YAXAAVconst_iterator@?$vector@EV?$allocator@E@std@@@0@HUrandom_access_iterator_tag@0@@Z
_TEXT	SEGMENT PARA USE32 PUBLIC 'CODE'
_TEXT	ENDS
;	COMDAT ??$_Copy_opt@Vconst_iterator@?$vector@EV?$allocator@E@std@@@std@@PAE@std@@YAPAEVconst_iterator@?$vector@EV?$allocator@E@std@@@0@0PAEU_Nonscalar_ptr_iterator_tag@0@@Z
_TEXT	SEGMENT PARA USE32 PUBLIC 'CODE'
_TEXT	ENDS
;	COMDAT ??$_Copy_backward_opt@PAEPAE@std@@YAPAEPAE00U_Scalar_ptr_iterator_tag@0@@Z
_TEXT	SEGMENT PARA USE32 PUBLIC 'CODE'
_TEXT	ENDS
;	COMDAT ??Yconst_iterator@?$vector@EV?$allocator@E@std@@@std@@QAEAAV012@H@Z
_TEXT	SEGMENT PARA USE32 PUBLIC 'CODE'
_TEXT	ENDS
;	COMDAT ??$_Uninit_copy@EE@std@@YAPAEPAE00AAV?$allocator@E@0@U_Scalar_ptr_iterator_tag@0@@Z
_TEXT	SEGMENT PARA USE32 PUBLIC 'CODE'
_TEXT	ENDS
;	COMDAT ?deallocate@?$allocator@E@std@@QAEXPAEI@Z
_TEXT	SEGMENT PARA USE32 PUBLIC 'CODE'
_TEXT	ENDS
;	COMDAT ??$_Ucopy@Vconst_iterator@?$vector@EV?$allocator@E@std@@@std@@@?$vector@EV?$allocator@E@std@@@std@@IAEPAEVconst_iterator@01@0PAE@Z
_TEXT	SEGMENT PARA USE32 PUBLIC 'CODE'
_TEXT	ENDS
;	COMDAT ?allocate@?$allocator@E@std@@QAEPAEI@Z
_TEXT	SEGMENT PARA USE32 PUBLIC 'CODE'
_TEXT	ENDS
;	COMDAT ??$_Allocate@E@std@@YAPAEIPAE@Z
_TEXT	SEGMENT PARA USE32 PUBLIC 'CODE'
_TEXT	ENDS
;	COMDAT ?_Xlen@?$vector@EV?$allocator@E@std@@@std@@IBEXXZ
_TEXT	SEGMENT PARA USE32 PUBLIC 'CODE'
_TEXT	ENDS
;	COMDAT ??0length_error@std@@QAE@ABV?$basic_string@DU?$char_traits@D@std@@V?$allocator@D@2@@1@@Z
_TEXT	SEGMENT PARA USE32 PUBLIC 'CODE'
_TEXT	ENDS
;	COMDAT ??0logic_error@std@@QAE@ABV?$basic_string@DU?$char_traits@D@std@@V?$allocator@D@2@@1@@Z
_TEXT	SEGMENT PARA USE32 PUBLIC 'CODE'
_TEXT	ENDS
;	COMDAT ??_7logic_error@std@@6B@
CONST	SEGMENT DWORD USE32 PUBLIC 'CONST'
CONST	ENDS
;	COMDAT ??_Glogic_error@std@@UAEPAXI@Z
_TEXT	SEGMENT PARA USE32 PUBLIC 'CODE'
_TEXT	ENDS
;	COMDAT ?what@logic_error@std@@UBEPBDXZ
_TEXT	SEGMENT PARA USE32 PUBLIC 'CODE'
_TEXT	ENDS
;	COMDAT ?c_str@?$basic_string@DU?$char_traits@D@std@@V?$allocator@D@2@@std@@QBEPBDXZ
_TEXT	SEGMENT PARA USE32 PUBLIC 'CODE'
_TEXT	ENDS
;	COMDAT ??0?$basic_string@DU?$char_traits@D@std@@V?$allocator@D@2@@std@@QAE@ABV01@@Z
_TEXT	SEGMENT PARA USE32 PUBLIC 'CODE'
_TEXT	ENDS
;	COMDAT ??0?$_String_val@DV?$allocator@D@std@@@std@@IAE@V?$allocator@D@1@@Z
_TEXT	SEGMENT PARA USE32 PUBLIC 'CODE'
_TEXT	ENDS
;	COMDAT ??0?$allocator@D@std@@QAE@ABV01@@Z
_TEXT	SEGMENT PARA USE32 PUBLIC 'CODE'
_TEXT	ENDS
;	COMDAT ?_Tidy@?$basic_string@DU?$char_traits@D@std@@V?$allocator@D@2@@std@@IAEX_NI@Z
_TEXT	SEGMENT PARA USE32 PUBLIC 'CODE'
_TEXT	ENDS
;	COMDAT ?copy@?$char_traits@D@std@@SAPADPADPBDI@Z
_TEXT	SEGMENT PARA USE32 PUBLIC 'CODE'
_TEXT	ENDS
;	COMDAT ?deallocate@?$allocator@D@std@@QAEXPADI@Z
_TEXT	SEGMENT PARA USE32 PUBLIC 'CODE'
_TEXT	ENDS
;	COMDAT ?_Eos@?$basic_string@DU?$char_traits@D@std@@V?$allocator@D@2@@std@@IAEXI@Z
_TEXT	SEGMENT PARA USE32 PUBLIC 'CODE'
_TEXT	ENDS
;	COMDAT ?assign@?$char_traits@D@std@@SAXAADABD@Z
_TEXT	SEGMENT PARA USE32 PUBLIC 'CODE'
_TEXT	ENDS
;	COMDAT ?_Myptr@?$basic_string@DU?$char_traits@D@std@@V?$allocator@D@2@@std@@QAEPADXZ
_TEXT	SEGMENT PARA USE32 PUBLIC 'CODE'
_TEXT	ENDS
;	COMDAT ?assign@?$basic_string@DU?$char_traits@D@std@@V?$allocator@D@2@@std@@QAEAAV12@ABV12@II@Z
_TEXT	SEGMENT PARA USE32 PUBLIC 'CODE'
_TEXT	ENDS
;	COMDAT ?erase@?$basic_string@DU?$char_traits@D@std@@V?$allocator@D@2@@std@@QAEAAV12@II@Z
_TEXT	SEGMENT PARA USE32 PUBLIC 'CODE'
_TEXT	ENDS
;	COMDAT ?move@?$char_traits@D@std@@SAPADPADPBDI@Z
_TEXT	SEGMENT PARA USE32 PUBLIC 'CODE'
_TEXT	ENDS
;	COMDAT ?_Grow@?$basic_string@DU?$char_traits@D@std@@V?$allocator@D@2@@std@@IAE_NI_N@Z
_TEXT	SEGMENT PARA USE32 PUBLIC 'CODE'
_TEXT	ENDS
;	COMDAT ?max_size@?$basic_string@DU?$char_traits@D@std@@V?$allocator@D@2@@std@@QBEIXZ
_TEXT	SEGMENT PARA USE32 PUBLIC 'CODE'
_TEXT	ENDS
;	COMDAT ?max_size@?$allocator@D@std@@QBEIXZ
_TEXT	SEGMENT PARA USE32 PUBLIC 'CODE'
_TEXT	ENDS
;	COMDAT ?_Copy@?$basic_string@DU?$char_traits@D@std@@V?$allocator@D@2@@std@@IAEXII@Z
_TEXT	SEGMENT PARA USE32 PUBLIC 'CODE'
_TEXT	ENDS
;	COMDAT ?allocate@?$allocator@D@std@@QAEPADI@Z
_TEXT	SEGMENT PARA USE32 PUBLIC 'CODE'
_TEXT	ENDS
;	COMDAT ??$_Allocate@D@std@@YAPADIPAD@Z
_TEXT	SEGMENT PARA USE32 PUBLIC 'CODE'
_TEXT	ENDS
;	COMDAT ?npos@?$basic_string@DU?$char_traits@D@std@@V?$allocator@D@2@@std@@2IB
CONST	SEGMENT DWORD USE32 PUBLIC 'CONST'
CONST	ENDS
;	COMDAT ??1logic_error@std@@UAE@XZ
_TEXT	SEGMENT PARA USE32 PUBLIC 'CODE'
_TEXT	ENDS
;	COMDAT ??_7length_error@std@@6B@
CONST	SEGMENT DWORD USE32 PUBLIC 'CONST'
CONST	ENDS
;	COMDAT ??_Glength_error@std@@UAEPAXI@Z
_TEXT	SEGMENT PARA USE32 PUBLIC 'CODE'
_TEXT	ENDS
;	COMDAT ??1length_error@std@@UAE@XZ
_TEXT	SEGMENT PARA USE32 PUBLIC 'CODE'
_TEXT	ENDS
;	COMDAT ??0?$basic_string@DU?$char_traits@D@std@@V?$allocator@D@2@@std@@QAE@PBD@Z
_TEXT	SEGMENT PARA USE32 PUBLIC 'CODE'
_TEXT	ENDS
;	COMDAT ??0?$allocator@D@std@@QAE@XZ
_TEXT	SEGMENT PARA USE32 PUBLIC 'CODE'
_TEXT	ENDS
;	COMDAT ?assign@?$basic_string@DU?$char_traits@D@std@@V?$allocator@D@2@@std@@QAEAAV12@PBD@Z
_TEXT	SEGMENT PARA USE32 PUBLIC 'CODE'
_TEXT	ENDS
;	COMDAT ?assign@?$basic_string@DU?$char_traits@D@std@@V?$allocator@D@2@@std@@QAEAAV12@PBDI@Z
_TEXT	SEGMENT PARA USE32 PUBLIC 'CODE'
_TEXT	ENDS
;	COMDAT ?_Inside@?$basic_string@DU?$char_traits@D@std@@V?$allocator@D@2@@std@@IAE_NPBD@Z
_TEXT	SEGMENT PARA USE32 PUBLIC 'CODE'
_TEXT	ENDS
;	COMDAT ?length@?$char_traits@D@std@@SAIPBD@Z
_TEXT	SEGMENT PARA USE32 PUBLIC 'CODE'
_TEXT	ENDS
;	COMDAT ??_C@_0BD@OLBABOEK@vector?$DMT?$DO?5too?5long?$AA@
CONST	SEGMENT DWORD USE32 PUBLIC 'CONST'
CONST	ENDS
;	COMDAT ??1?$basic_string@DU?$char_traits@D@std@@V?$allocator@D@2@@std@@QAE@XZ
_TEXT	SEGMENT PARA USE32 PUBLIC 'CODE'
_TEXT	ENDS
;	COMDAT __TI3?AVlength_error@std@@
xdata$x	SEGMENT DWORD USE32 PUBLIC 'CONST'
xdata$x	ENDS
;	COMDAT __CTA3?AVlength_error@std@@
xdata$x	SEGMENT DWORD USE32 PUBLIC 'CONST'
xdata$x	ENDS
;	COMDAT __CT??_R0?AVlength_error@std@@@8??0length_error@std@@QAE@ABV01@@Z40
xdata$x	SEGMENT DWORD USE32 PUBLIC 'CONST'
xdata$x	ENDS
;	COMDAT ??_R0?AVlength_error@std@@@8
_DATA	SEGMENT DWORD USE32 PUBLIC 'DATA'
_DATA	ENDS
;	COMDAT ??0length_error@std@@QAE@ABV01@@Z
_TEXT	SEGMENT PARA USE32 PUBLIC 'CODE'
_TEXT	ENDS
;	COMDAT ??0logic_error@std@@QAE@ABV01@@Z
_TEXT	SEGMENT PARA USE32 PUBLIC 'CODE'
_TEXT	ENDS
;	COMDAT __CT??_R0?AVlogic_error@std@@@8??0logic_error@std@@QAE@ABV01@@Z40
xdata$x	SEGMENT DWORD USE32 PUBLIC 'CONST'
xdata$x	ENDS
;	COMDAT ??_R0?AVlogic_error@std@@@8
_DATA	SEGMENT DWORD USE32 PUBLIC 'DATA'
_DATA	ENDS
;	COMDAT __CT??_R0?AVexception@@@8??0exception@@QAE@ABV0@@Z12
xdata$x	SEGMENT DWORD USE32 PUBLIC 'CONST'
xdata$x	ENDS
;	COMDAT ??_R0?AVexception@@@8
_DATA	SEGMENT DWORD USE32 PUBLIC 'DATA'
_DATA	ENDS
;	COMDAT ?size@?$vector@EV?$allocator@E@std@@@std@@QBEIXZ
_TEXT	SEGMENT PARA USE32 PUBLIC 'CODE'
_TEXT	ENDS
;	COMDAT ?max_size@?$vector@EV?$allocator@E@std@@@std@@QBEIXZ
_TEXT	SEGMENT PARA USE32 PUBLIC 'CODE'
_TEXT	ENDS
;	COMDAT ?max_size@?$allocator@E@std@@QBEIXZ
_TEXT	SEGMENT PARA USE32 PUBLIC 'CODE'
_TEXT	ENDS
;	COMDAT ??2@YAPAXIPAX@Z
_TEXT	SEGMENT PARA USE32 PUBLIC 'CODE'
_TEXT	ENDS
;	COMDAT ?_Ptr_cat@std@@YA?AU_Scalar_ptr_iterator_tag@1@PAE0@Z
_TEXT	SEGMENT PARA USE32 PUBLIC 'CODE'
_TEXT	ENDS
;	COMDAT ??0const_iterator@?$vector@EV?$allocator@E@std@@@std@@QAE@PAE@Z
_TEXT	SEGMENT PARA USE32 PUBLIC 'CODE'
_TEXT	ENDS
;	COMDAT ?_Destroy@?$vector@EV?$allocator@E@std@@@std@@IAEXPAE0@Z
_TEXT	SEGMENT PARA USE32 PUBLIC 'CODE'
_TEXT	ENDS
;	COMDAT ??$_Destroy_range@EV?$allocator@E@std@@@std@@YAXPAE0AAV?$allocator@E@0@@Z
_TEXT	SEGMENT PARA USE32 PUBLIC 'CODE'
_TEXT	ENDS
;	COMDAT ?_Ptr_cat@std@@YA?AU_Scalar_ptr_iterator_tag@1@PAJ0@Z
_TEXT	SEGMENT PARA USE32 PUBLIC 'CODE'
_TEXT	ENDS
;	COMDAT ??9const_iterator@?$_Tree@V?$_Tmap_traits@KEU?$less@K@std@@V?$allocator@U?$pair@$$CBKE@std@@@2@$0A@@std@@@std@@QBE_NABV012@@Z
_TEXT	SEGMENT PARA USE32 PUBLIC 'CODE'
_TEXT	ENDS
;	COMDAT ??8const_iterator@?$_Tree@V?$_Tmap_traits@KEU?$less@K@std@@V?$allocator@U?$pair@$$CBKE@std@@@2@$0A@@std@@@std@@QBE_NABV012@@Z
_TEXT	SEGMENT PARA USE32 PUBLIC 'CODE'
_TEXT	ENDS
;	COMDAT ??Eiterator@?$_Tree@V?$_Tmap_traits@KEU?$less@K@std@@V?$allocator@U?$pair@$$CBKE@std@@@2@$0A@@std@@@std@@QAEAAV012@XZ
_TEXT	SEGMENT PARA USE32 PUBLIC 'CODE'
_TEXT	ENDS
;	COMDAT ??Econst_iterator@?$_Tree@V?$_Tmap_traits@KEU?$less@K@std@@V?$allocator@U?$pair@$$CBKE@std@@@2@$0A@@std@@@std@@QAEAAV012@XZ
_TEXT	SEGMENT PARA USE32 PUBLIC 'CODE'
_TEXT	ENDS
;	COMDAT ?_Inc@const_iterator@?$_Tree@V?$_Tmap_traits@KEU?$less@K@std@@V?$allocator@U?$pair@$$CBKE@std@@@2@$0A@@std@@@std@@QAEXXZ
_TEXT	SEGMENT PARA USE32 PUBLIC 'CODE'
_TEXT	ENDS
;	COMDAT ?_Min@?$_Tree@V?$_Tmap_traits@KEU?$less@K@std@@V?$allocator@U?$pair@$$CBKE@std@@@2@$0A@@std@@@std@@KAPAU_Node@?$_Tree_nod@V?$_Tmap_traits@KEU?$less@K@std@@V?$allocator@U?$pair@$$CBKE@std@@@2@$0A@@std@@@2@PAU342@@Z
_TEXT	SEGMENT PARA USE32 PUBLIC 'CODE'
_TEXT	ENDS
;	COMDAT ?_Left@?$_Tree@V?$_Tmap_traits@KEU?$less@K@std@@V?$allocator@U?$pair@$$CBKE@std@@@2@$0A@@std@@@std@@KAAAPAU_Node@?$_Tree_nod@V?$_Tmap_traits@KEU?$less@K@std@@V?$allocator@U?$pair@$$CBKE@std@@@2@$0A@@std@@@2@PAU342@@Z
_TEXT	SEGMENT PARA USE32 PUBLIC 'CODE'
_TEXT	ENDS
;	COMDAT ?_Isnil@?$_Tree@V?$_Tmap_traits@KEU?$less@K@std@@V?$allocator@U?$pair@$$CBKE@std@@@2@$0A@@std@@@std@@KAAADPAU_Node@?$_Tree_nod@V?$_Tmap_traits@KEU?$less@K@std@@V?$allocator@U?$pair@$$CBKE@std@@@2@$0A@@std@@@2@@Z
_TEXT	SEGMENT PARA USE32 PUBLIC 'CODE'
_TEXT	ENDS
;	COMDAT ?_Parent@?$_Tree@V?$_Tmap_traits@KEU?$less@K@std@@V?$allocator@U?$pair@$$CBKE@std@@@2@$0A@@std@@@std@@KAAAPAU_Node@?$_Tree_nod@V?$_Tmap_traits@KEU?$less@K@std@@V?$allocator@U?$pair@$$CBKE@std@@@2@$0A@@std@@@2@PAU342@@Z
_TEXT	SEGMENT PARA USE32 PUBLIC 'CODE'
_TEXT	ENDS
;	COMDAT ?_Right@?$_Tree@V?$_Tmap_traits@KEU?$less@K@std@@V?$allocator@U?$pair@$$CBKE@std@@@2@$0A@@std@@@std@@KAAAPAU_Node@?$_Tree_nod@V?$_Tmap_traits@KEU?$less@K@std@@V?$allocator@U?$pair@$$CBKE@std@@@2@$0A@@std@@@2@PAU342@@Z
_TEXT	SEGMENT PARA USE32 PUBLIC 'CODE'
_TEXT	ENDS
;	COMDAT ??9const_iterator@?$_Tree@V?$_Tmap_traits@KPAVCCtrl@@U?$less@K@std@@V?$allocator@U?$pair@$$CBKPAVCCtrl@@@std@@@3@$0A@@std@@@std@@QBE_NABV012@@Z
_TEXT	SEGMENT PARA USE32 PUBLIC 'CODE'
_TEXT	ENDS
;	COMDAT ??8const_iterator@?$_Tree@V?$_Tmap_traits@KPAVCCtrl@@U?$less@K@std@@V?$allocator@U?$pair@$$CBKPAVCCtrl@@@std@@@3@$0A@@std@@@std@@QBE_NABV012@@Z
_TEXT	SEGMENT PARA USE32 PUBLIC 'CODE'
_TEXT	ENDS
;	COMDAT ??Eiterator@?$_Tree@V?$_Tmap_traits@KPAVCCtrl@@U?$less@K@std@@V?$allocator@U?$pair@$$CBKPAVCCtrl@@@std@@@3@$0A@@std@@@std@@QAEAAV012@XZ
_TEXT	SEGMENT PARA USE32 PUBLIC 'CODE'
_TEXT	ENDS
;	COMDAT ??Econst_iterator@?$_Tree@V?$_Tmap_traits@KPAVCCtrl@@U?$less@K@std@@V?$allocator@U?$pair@$$CBKPAVCCtrl@@@std@@@3@$0A@@std@@@std@@QAEAAV012@XZ
_TEXT	SEGMENT PARA USE32 PUBLIC 'CODE'
_TEXT	ENDS
;	COMDAT ?_Inc@const_iterator@?$_Tree@V?$_Tmap_traits@KPAVCCtrl@@U?$less@K@std@@V?$allocator@U?$pair@$$CBKPAVCCtrl@@@std@@@3@$0A@@std@@@std@@QAEXXZ
_TEXT	SEGMENT PARA USE32 PUBLIC 'CODE'
_TEXT	ENDS
;	COMDAT ?_Min@?$_Tree@V?$_Tmap_traits@KPAVCCtrl@@U?$less@K@std@@V?$allocator@U?$pair@$$CBKPAVCCtrl@@@std@@@3@$0A@@std@@@std@@KAPAU_Node@?$_Tree_nod@V?$_Tmap_traits@KPAVCCtrl@@U?$less@K@std@@V?$allocator@U?$pair@$$CBKPAVCCtrl@@@std@@@3@$0A@@std@@@2@PAU342@@Z
_TEXT	SEGMENT PARA USE32 PUBLIC 'CODE'
_TEXT	ENDS
;	COMDAT ?_Left@?$_Tree@V?$_Tmap_traits@KPAVCCtrl@@U?$less@K@std@@V?$allocator@U?$pair@$$CBKPAVCCtrl@@@std@@@3@$0A@@std@@@std@@KAAAPAU_Node@?$_Tree_nod@V?$_Tmap_traits@KPAVCCtrl@@U?$less@K@std@@V?$allocator@U?$pair@$$CBKPAVCCtrl@@@std@@@3@$0A@@std@@@2@PAU342@@Z
_TEXT	SEGMENT PARA USE32 PUBLIC 'CODE'
_TEXT	ENDS
;	COMDAT ?_Isnil@?$_Tree@V?$_Tmap_traits@KPAVCCtrl@@U?$less@K@std@@V?$allocator@U?$pair@$$CBKPAVCCtrl@@@std@@@3@$0A@@std@@@std@@KAAADPAU_Node@?$_Tree_nod@V?$_Tmap_traits@KPAVCCtrl@@U?$less@K@std@@V?$allocator@U?$pair@$$CBKPAVCCtrl@@@std@@@3@$0A@@std@@@2@@Z
_TEXT	SEGMENT PARA USE32 PUBLIC 'CODE'
_TEXT	ENDS
;	COMDAT ?_Parent@?$_Tree@V?$_Tmap_traits@KPAVCCtrl@@U?$less@K@std@@V?$allocator@U?$pair@$$CBKPAVCCtrl@@@std@@@3@$0A@@std@@@std@@KAAAPAU_Node@?$_Tree_nod@V?$_Tmap_traits@KPAVCCtrl@@U?$less@K@std@@V?$allocator@U?$pair@$$CBKPAVCCtrl@@@std@@@3@$0A@@std@@@2@PAU342@@Z
_TEXT	SEGMENT PARA USE32 PUBLIC 'CODE'
_TEXT	ENDS
;	COMDAT ?_Right@?$_Tree@V?$_Tmap_traits@KPAVCCtrl@@U?$less@K@std@@V?$allocator@U?$pair@$$CBKPAVCCtrl@@@std@@@3@$0A@@std@@@std@@KAAAPAU_Node@?$_Tree_nod@V?$_Tmap_traits@KPAVCCtrl@@U?$less@K@std@@V?$allocator@U?$pair@$$CBKPAVCCtrl@@@std@@@3@$0A@@std@@@2@PAU342@@Z
_TEXT	SEGMENT PARA USE32 PUBLIC 'CODE'
_TEXT	ENDS
;	COMDAT ??9const_iterator@?$_Tree@V?$_Tmap_traits@KPAVCUser@@U?$less@K@std@@V?$allocator@U?$pair@$$CBKPAVCUser@@@std@@@3@$0A@@std@@@std@@QBE_NABV012@@Z
_TEXT	SEGMENT PARA USE32 PUBLIC 'CODE'
_TEXT	ENDS
;	COMDAT ??8const_iterator@?$_Tree@V?$_Tmap_traits@KPAVCUser@@U?$less@K@std@@V?$allocator@U?$pair@$$CBKPAVCUser@@@std@@@3@$0A@@std@@@std@@QBE_NABV012@@Z
_TEXT	SEGMENT PARA USE32 PUBLIC 'CODE'
_TEXT	ENDS
;	COMDAT ??Eiterator@?$_Tree@V?$_Tmap_traits@KPAVCUser@@U?$less@K@std@@V?$allocator@U?$pair@$$CBKPAVCUser@@@std@@@3@$0A@@std@@@std@@QAEAAV012@XZ
_TEXT	SEGMENT PARA USE32 PUBLIC 'CODE'
_TEXT	ENDS
;	COMDAT ??Econst_iterator@?$_Tree@V?$_Tmap_traits@KPAVCUser@@U?$less@K@std@@V?$allocator@U?$pair@$$CBKPAVCUser@@@std@@@3@$0A@@std@@@std@@QAEAAV012@XZ
_TEXT	SEGMENT PARA USE32 PUBLIC 'CODE'
_TEXT	ENDS
;	COMDAT ?_Inc@const_iterator@?$_Tree@V?$_Tmap_traits@KPAVCUser@@U?$less@K@std@@V?$allocator@U?$pair@$$CBKPAVCUser@@@std@@@3@$0A@@std@@@std@@QAEXXZ
_TEXT	SEGMENT PARA USE32 PUBLIC 'CODE'
_TEXT	ENDS
;	COMDAT ?_Min@?$_Tree@V?$_Tmap_traits@KPAVCUser@@U?$less@K@std@@V?$allocator@U?$pair@$$CBKPAVCUser@@@std@@@3@$0A@@std@@@std@@KAPAU_Node@?$_Tree_nod@V?$_Tmap_traits@KPAVCUser@@U?$less@K@std@@V?$allocator@U?$pair@$$CBKPAVCUser@@@std@@@3@$0A@@std@@@2@PAU342@@Z
_TEXT	SEGMENT PARA USE32 PUBLIC 'CODE'
_TEXT	ENDS
;	COMDAT ?_Left@?$_Tree@V?$_Tmap_traits@KPAVCUser@@U?$less@K@std@@V?$allocator@U?$pair@$$CBKPAVCUser@@@std@@@3@$0A@@std@@@std@@KAAAPAU_Node@?$_Tree_nod@V?$_Tmap_traits@KPAVCUser@@U?$less@K@std@@V?$allocator@U?$pair@$$CBKPAVCUser@@@std@@@3@$0A@@std@@@2@PAU342@@Z
_TEXT	SEGMENT PARA USE32 PUBLIC 'CODE'
_TEXT	ENDS
;	COMDAT ?_Isnil@?$_Tree@V?$_Tmap_traits@KPAVCUser@@U?$less@K@std@@V?$allocator@U?$pair@$$CBKPAVCUser@@@std@@@3@$0A@@std@@@std@@KAAADPAU_Node@?$_Tree_nod@V?$_Tmap_traits@KPAVCUser@@U?$less@K@std@@V?$allocator@U?$pair@$$CBKPAVCUser@@@std@@@3@$0A@@std@@@2@@Z
_TEXT	SEGMENT PARA USE32 PUBLIC 'CODE'
_TEXT	ENDS
;	COMDAT ?_Parent@?$_Tree@V?$_Tmap_traits@KPAVCUser@@U?$less@K@std@@V?$allocator@U?$pair@$$CBKPAVCUser@@@std@@@3@$0A@@std@@@std@@KAAAPAU_Node@?$_Tree_nod@V?$_Tmap_traits@KPAVCUser@@U?$less@K@std@@V?$allocator@U?$pair@$$CBKPAVCUser@@@std@@@3@$0A@@std@@@2@PAU342@@Z
_TEXT	SEGMENT PARA USE32 PUBLIC 'CODE'
_TEXT	ENDS
;	COMDAT ?_Right@?$_Tree@V?$_Tmap_traits@KPAVCUser@@U?$less@K@std@@V?$allocator@U?$pair@$$CBKPAVCUser@@@std@@@3@$0A@@std@@@std@@KAAAPAU_Node@?$_Tree_nod@V?$_Tmap_traits@KPAVCUser@@U?$less@K@std@@V?$allocator@U?$pair@$$CBKPAVCUser@@@std@@@3@$0A@@std@@@2@PAU342@@Z
_TEXT	SEGMENT PARA USE32 PUBLIC 'CODE'
_TEXT	ENDS
;	COMDAT ?_Psave@?$_Facetptr@V?$ctype@G@std@@@std@@2PBVfacet@locale@2@B
_DATA	SEGMENT DWORD USE32 PUBLIC 'DATA'
_DATA	ENDS
;	COMDAT ?_Psave@?$_Facetptr@V?$ctype@D@std@@@std@@2PBVfacet@locale@2@B
_DATA	SEGMENT DWORD USE32 PUBLIC 'DATA'
_DATA	ENDS
;	COMDAT ?ReleaseBufferSetLength@?$CSimpleStringT@D$0A@@ATL@@QAEXH@Z
_TEXT	SEGMENT PARA USE32 PUBLIC 'CODE'
_TEXT	ENDS
;	COMDAT ?SetLength@?$CSimpleStringT@D$0A@@ATL@@AAEXH@Z
_TEXT	SEGMENT PARA USE32 PUBLIC 'CODE'
_TEXT	ENDS
;	COMDAT ?AtlThrow@ATL@@YGXJ@Z
_TEXT	SEGMENT PARA USE32 PUBLIC 'CODE'
_TEXT	ENDS
;	COMDAT ?GetData@?$CSimpleStringT@D$0A@@ATL@@ABEPAUCStringData@2@XZ
_TEXT	SEGMENT PARA USE32 PUBLIC 'CODE'
_TEXT	ENDS
;	COMDAT ?CopyChars@?$CSimpleStringT@D$0A@@ATL@@SAXPADPBDH@Z
_TEXT	SEGMENT PARA USE32 PUBLIC 'CODE'
_TEXT	ENDS
;	COMDAT ?GetBuffer@?$CSimpleStringT@D$0A@@ATL@@QAEPADH@Z
_TEXT	SEGMENT PARA USE32 PUBLIC 'CODE'
_TEXT	ENDS
;	COMDAT ?PrepareWrite@?$CSimpleStringT@D$0A@@ATL@@AAEPADH@Z
_TEXT	SEGMENT PARA USE32 PUBLIC 'CODE'
_TEXT	ENDS
;	COMDAT ?PrepareWrite2@?$CSimpleStringT@D$0A@@ATL@@AAEXH@Z
_TEXT	SEGMENT PARA USE32 PUBLIC 'CODE'
_TEXT	ENDS
;	COMDAT ?IsShared@CStringData@ATL@@QBE_NXZ
_TEXT	SEGMENT PARA USE32 PUBLIC 'CODE'
_TEXT	ENDS
;	COMDAT ?Fork@?$CSimpleStringT@D$0A@@ATL@@AAEXH@Z
_TEXT	SEGMENT PARA USE32 PUBLIC 'CODE'
_TEXT	ENDS
;	COMDAT ?ThrowMemoryException@?$CSimpleStringT@D$0A@@ATL@@KAXXZ
_TEXT	SEGMENT PARA USE32 PUBLIC 'CODE'
_TEXT	ENDS
;	COMDAT ?data@CStringData@ATL@@QAEPAXXZ
_TEXT	SEGMENT PARA USE32 PUBLIC 'CODE'
_TEXT	ENDS
;	COMDAT ?Release@CStringData@ATL@@QAEXXZ
_TEXT	SEGMENT PARA USE32 PUBLIC 'CODE'
_TEXT	ENDS
;	COMDAT ?Attach@?$CSimpleStringT@D$0A@@ATL@@AAEXPAUCStringData@2@@Z
_TEXT	SEGMENT PARA USE32 PUBLIC 'CODE'
_TEXT	ENDS
;	COMDAT ?Reallocate@?$CSimpleStringT@D$0A@@ATL@@AAEXH@Z
_TEXT	SEGMENT PARA USE32 PUBLIC 'CODE'
_TEXT	ENDS
;	COMDAT ?GetLength@?$CSimpleStringT@D$0A@@ATL@@QBEHXZ
_TEXT	SEGMENT PARA USE32 PUBLIC 'CODE'
_TEXT	ENDS
;	COMDAT ?GetString@?$CSimpleStringT@D$0A@@ATL@@QBEPBDXZ
_TEXT	SEGMENT PARA USE32 PUBLIC 'CODE'
_TEXT	ENDS
;	COMDAT ?StringLength@?$CSimpleStringT@D$0A@@ATL@@SAHPBD@Z
_TEXT	SEGMENT PARA USE32 PUBLIC 'CODE'
_TEXT	ENDS
;	COMDAT ?compare@?$char_traits@D@std@@SAHPBD0I@Z
_TEXT	SEGMENT PARA USE32 PUBLIC 'CODE'
_TEXT	ENDS
;	COMDAT ?_Myptr@?$basic_string@DU?$char_traits@D@std@@V?$allocator@D@2@@std@@QBEPBDXZ
_TEXT	SEGMENT PARA USE32 PUBLIC 'CODE'
_TEXT	ENDS
;	COMDAT ?size@?$basic_string@DU?$char_traits@D@std@@V?$allocator@D@2@@std@@QBEIXZ
_TEXT	SEGMENT PARA USE32 PUBLIC 'CODE'
_TEXT	ENDS
;	COMDAT ??0?$CStringT@DV?$StrTraitMFC@DV?$ChTraitsCRT@D@ATL@@@@@ATL@@QAE@ABV01@@Z
_TEXT	SEGMENT PARA USE32 PUBLIC 'CODE'
_TEXT	ENDS
;	COMDAT ??0?$CSimpleStringT@D$0A@@ATL@@QAE@ABV01@@Z
_TEXT	SEGMENT PARA USE32 PUBLIC 'CODE'
_TEXT	ENDS
;	COMDAT ?CloneData@?$CSimpleStringT@D$0A@@ATL@@CAPAUCStringData@2@PAU32@@Z
_TEXT	SEGMENT PARA USE32 PUBLIC 'CODE'
_TEXT	ENDS
;	COMDAT ?IsLocked@CStringData@ATL@@QBE_NXZ
_TEXT	SEGMENT PARA USE32 PUBLIC 'CODE'
_TEXT	ENDS
;	COMDAT ?AddRef@CStringData@ATL@@QAEXXZ
_TEXT	SEGMENT PARA USE32 PUBLIC 'CODE'
_TEXT	ENDS
;	COMDAT ??1?$CSimpleStringT@D$0A@@ATL@@QAE@XZ
_TEXT	SEGMENT PARA USE32 PUBLIC 'CODE'
_TEXT	ENDS
;	COMDAT ??1?$CStringT@DV?$StrTraitMFC@DV?$ChTraitsCRT@D@ATL@@@@@ATL@@QAE@XZ
_TEXT	SEGMENT PARA USE32 PUBLIC 'CODE'
_TEXT	ENDS
;	COMDAT ??0?$CStringT@DV?$StrTraitMFC@DV?$ChTraitsCRT@D@ATL@@@@@ATL@@QAE@PBD@Z
_TEXT	SEGMENT PARA USE32 PUBLIC 'CODE'
_TEXT	ENDS
;	COMDAT ??0?$CSimpleStringT@D$0A@@ATL@@QAE@PAUIAtlStringMgr@1@@Z
_TEXT	SEGMENT PARA USE32 PUBLIC 'CODE'
_TEXT	ENDS
;	COMDAT ?GetDefaultManager@?$StrTraitMFC@DV?$ChTraitsCRT@D@ATL@@@@SAPAUIAtlStringMgr@ATL@@XZ
_TEXT	SEGMENT PARA USE32 PUBLIC 'CODE'
_TEXT	ENDS
;	COMDAT ?CheckImplicitLoad@?$CStringT@DV?$StrTraitMFC@DV?$ChTraitsCRT@D@ATL@@@@@ATL@@AAE_NPBX@Z
_TEXT	SEGMENT PARA USE32 PUBLIC 'CODE'
_TEXT	ENDS
;	COMDAT ?LoadStringA@?$CStringT@DV?$StrTraitMFC@DV?$ChTraitsCRT@D@ATL@@@@@ATL@@QAEHI@Z
_TEXT	SEGMENT PARA USE32 PUBLIC 'CODE'
_TEXT	ENDS
;	COMDAT ?FindStringResourceInstance@?$StrTraitMFC@DV?$ChTraitsCRT@D@ATL@@@@SAPAUHINSTANCE__@@I@Z
_TEXT	SEGMENT PARA USE32 PUBLIC 'CODE'
_TEXT	ENDS
;	COMDAT ?LoadStringA@?$CStringT@DV?$StrTraitMFC@DV?$ChTraitsCRT@D@ATL@@@@@ATL@@QAEHPAUHINSTANCE__@@I@Z
_TEXT	SEGMENT PARA USE32 PUBLIC 'CODE'
_TEXT	ENDS
;	COMDAT ?AtlGetStringResourceImage@ATL@@YAPBUATLSTRINGRESOURCEIMAGE@1@PAUHINSTANCE__@@I@Z
_TEXT	SEGMENT PARA USE32 PUBLIC 'CODE'
_TEXT	ENDS
;	COMDAT ?_AtlGetStringResourceImage@ATL@@YAPBUATLSTRINGRESOURCEIMAGE@1@PAUHINSTANCE__@@PAUHRSRC__@@I@Z
_TEXT	SEGMENT PARA USE32 PUBLIC 'CODE'
_TEXT	ENDS
;	COMDAT ?GetBaseTypeLength@?$ChTraitsCRT@D@ATL@@SAHPBGH@Z
_TEXT	SEGMENT PARA USE32 PUBLIC 'CODE'
_TEXT	ENDS
;	COMDAT ?_AtlGetConversionACP@ATL@@YGIXZ
_TEXT	SEGMENT PARA USE32 PUBLIC 'CODE'
_TEXT	ENDS
;	COMDAT ?g_pfnGetThreadACP@ATL@@3P6GIXZA
_DATA	SEGMENT DWORD USE32 PUBLIC 'DATA'
_DATA	ENDS
;	COMDAT ?_AtlGetThreadACPThunk@ATL@@YGIXZ
_TEXT	SEGMENT PARA USE32 PUBLIC 'CODE'
_TEXT	ENDS
;	COMDAT ?_AtlGetThreadACPReal@ATL@@YGIXZ
_TEXT	SEGMENT PARA USE32 PUBLIC 'CODE'
_TEXT	ENDS
;	COMDAT ?_AtlGetThreadACPFake@ATL@@YGIXZ
_TEXT	SEGMENT PARA USE32 PUBLIC 'CODE'
_TEXT	ENDS
;	COMDAT ?InterlockedExchangePointer@@YGPAXPAPAXPAX@Z
_TEXT	SEGMENT PARA USE32 PUBLIC 'CODE'
_TEXT	ENDS
;	COMDAT ?ConvertToBaseType@?$ChTraitsCRT@D@ATL@@SAXPADHPBGH@Z
_TEXT	SEGMENT PARA USE32 PUBLIC 'CODE'
_TEXT	ENDS
;	COMDAT ??4?$CStringT@DV?$StrTraitMFC@DV?$ChTraitsCRT@D@ATL@@@@@ATL@@QAEAAV01@PBD@Z
_TEXT	SEGMENT PARA USE32 PUBLIC 'CODE'
_TEXT	ENDS
;	COMDAT ??4?$CSimpleStringT@D$0A@@ATL@@QAEAAV01@PBD@Z
_TEXT	SEGMENT PARA USE32 PUBLIC 'CODE'
_TEXT	ENDS
;	COMDAT ?SetString@?$CSimpleStringT@D$0A@@ATL@@QAEXPBD@Z
_TEXT	SEGMENT PARA USE32 PUBLIC 'CODE'
_TEXT	ENDS
;	COMDAT ?SetString@?$CSimpleStringT@D$0A@@ATL@@QAEXPBDH@Z
_TEXT	SEGMENT PARA USE32 PUBLIC 'CODE'
_TEXT	ENDS
;	COMDAT ?Empty@?$CSimpleStringT@D$0A@@ATL@@QAEXXZ
_TEXT	SEGMENT PARA USE32 PUBLIC 'CODE'
_TEXT	ENDS
;	COMDAT ?CopyCharsOverlapped@?$CSimpleStringT@D$0A@@ATL@@SAXPADPBDH@Z
_TEXT	SEGMENT PARA USE32 PUBLIC 'CODE'
_TEXT	ENDS
sxdata	SEGMENT DWORD USE32 'SXDATA'
sxdata	ENDS
FLAT	GROUP _DATA, CONST, _BSS
	ASSUME	CS: FLAT, DS: FLAT, SS: FLAT
endif

INCLUDELIB LIBCMT
INCLUDELIB OLDNAMES

PUBLIC	?g_pfnGetThreadACP@ATL@@3P6GIXZA		; ATL::g_pfnGetThreadACP
PUBLIC	?_AtlGetThreadACPThunk@ATL@@YGIXZ		; ATL::_AtlGetThreadACPThunk
;	COMDAT ?g_pfnGetThreadACP@ATL@@3P6GIXZA
_DATA	SEGMENT
?g_pfnGetThreadACP@ATL@@3P6GIXZA DD FLAT:?_AtlGetThreadACPThunk@ATL@@YGIXZ ; ATL::g_pfnGetThreadACP
_DATA	ENDS
PUBLIC	?MakePath@@YAXPADPBD1@Z				; MakePath
; Function compile flags: /Ogty
; File c:\documents and settings\test\mes documents\source\virtuos_v17\build\program\_common\path.cpp
;	COMDAT ?MakePath@@YAXPADPBD1@Z
_TEXT	SEGMENT
_lpszFullPath$ = 8					; size = 4
_lpszDirName$ = 12					; size = 4
_lpszFileName$ = 16					; size = 4
?MakePath@@YAXPADPBD1@Z PROC NEAR			; MakePath, COMDAT

; 97   : 	_tcscpy( lpszFullPath, lpszDirName );

  00000	8b 44 24 08	 mov	 eax, DWORD PTR _lpszDirName$[esp-4]
  00004	56		 push	 esi
  00005	57		 push	 edi
  00006	8b 7c 24 0c	 mov	 edi, DWORD PTR _lpszFullPath$[esp+4]
  0000a	8b d7		 mov	 edx, edi
  0000c	2b d0		 sub	 edx, eax
  0000e	8b ff		 npad	 2
$L226960:
  00010	8a 08		 mov	 cl, BYTE PTR [eax]
  00012	88 0c 02	 mov	 BYTE PTR [edx+eax], cl
  00015	40		 inc	 eax
  00016	84 c9		 test	 cl, cl
  00018	75 f6		 jne	 SHORT $L226960

; 98   : 	_tcscat( lpszFullPath, lpszFileName );

  0001a	8b 44 24 14	 mov	 eax, DWORD PTR _lpszFileName$[esp+4]
  0001e	8b d0		 mov	 edx, eax
$L226964:
  00020	8a 08		 mov	 cl, BYTE PTR [eax]
  00022	40		 inc	 eax
  00023	84 c9		 test	 cl, cl
  00025	75 f9		 jne	 SHORT $L226964
  00027	2b c2		 sub	 eax, edx
  00029	4f		 dec	 edi
  0002a	8d 9b 00 00 00
	00		 npad	 6
$L226965:
  00030	8a 4f 01	 mov	 cl, BYTE PTR [edi+1]
  00033	47		 inc	 edi
  00034	84 c9		 test	 cl, cl
  00036	75 f8		 jne	 SHORT $L226965
  00038	8b c8		 mov	 ecx, eax
  0003a	c1 e9 02	 shr	 ecx, 2
  0003d	8b f2		 mov	 esi, edx
  0003f	f3 a5		 rep movsd
  00041	8b c8		 mov	 ecx, eax
  00043	83 e1 03	 and	 ecx, 3
  00046	f3 a4		 rep movsb
  00048	5f		 pop	 edi
  00049	5e		 pop	 esi

; 99   : }

  0004a	c3		 ret	 0
?MakePath@@YAXPADPBD1@Z ENDP				; MakePath
_TEXT	ENDS
PUBLIC	?InterlockedExchangePointer@@YGPAXPAPAXPAX@Z	; InterlockedExchangePointer
EXTRN	__imp__InterlockedExchange@8:NEAR
; Function compile flags: /Ogty
; File c:\program files\microsoft visual studio .net 2003\vc7\atlmfc\include\atlconv.h
;	COMDAT ?InterlockedExchangePointer@@YGPAXPAPAXPAX@Z
_TEXT	SEGMENT
_pp$ = 8						; size = 4
_pNew$ = 12						; size = 4
?InterlockedExchangePointer@@YGPAXPAPAXPAX@Z PROC NEAR	; InterlockedExchangePointer, COMDAT

; 92   : 	return( reinterpret_cast<void*>(static_cast<LONG_PTR>(::InterlockedExchange(reinterpret_cast<LONG*>(pp), static_cast<LONG>(reinterpret_cast<LONG_PTR>(pNew))))) );

  00000	ff 25 00 00 00
	00		 jmp	 DWORD PTR __imp__InterlockedExchange@8
?InterlockedExchangePointer@@YGPAXPAPAXPAX@Z ENDP	; InterlockedExchangePointer
_TEXT	ENDS
PUBLIC	?_AtlGetThreadACPFake@ATL@@YGIXZ		; ATL::_AtlGetThreadACPFake
EXTRN	__imp__GetThreadLocale@0:NEAR
EXTRN	___security_cookie:DWORD
EXTRN	@__security_check_cookie@4:NEAR
EXTRN	__imp__GetACP@0:NEAR
EXTRN	__imp__GetLocaleInfoA@16:NEAR
; Function compile flags: /Ogty
;	COMDAT ?_AtlGetThreadACPFake@ATL@@YGIXZ
_TEXT	SEGMENT
_szACP$ = -12						; size = 7
__$ArrayPad$ = -4					; size = 4
__$ReturnAddr$ = 4					; size = 4
?_AtlGetThreadACPFake@ATL@@YGIXZ PROC NEAR		; ATL::_AtlGetThreadACPFake, COMDAT

; 101  : {

  00000	83 ec 0c	 sub	 esp, 12			; 0000000cH
  00003	a1 00 00 00 00	 mov	 eax, DWORD PTR ___security_cookie
  00008	33 c4		 xor	 eax, esp
  0000a	56		 push	 esi
  0000b	89 44 24 0c	 mov	 DWORD PTR __$ArrayPad$[esp+16], eax

; 102  : 	UINT nACP = 0;

  0000f	33 f6		 xor	 esi, esi

; 103  : 
; 104  : 	LCID lcidThread = ::GetThreadLocale();

  00011	ff 15 00 00 00
	00		 call	 DWORD PTR __imp__GetThreadLocale@0

; 105  : 
; 106  : 	char szACP[7];
; 107  : 	// GetLocaleInfoA will fail for a Unicode-only LCID, but those are only supported on 
; 108  : 	// Windows 2000.  Since Windows 2000 supports CP_THREAD_ACP, this code path is never
; 109  : 	// executed on Windows 2000.
; 110  : 	if (::GetLocaleInfoA(lcidThread, LOCALE_IDEFAULTANSICODEPAGE, szACP, 7) != 0)

  00017	6a 07		 push	 7
  00019	8d 4c 24 08	 lea	 ecx, DWORD PTR _szACP$[esp+20]
  0001d	51		 push	 ecx
  0001e	68 04 10 00 00	 push	 4100			; 00001004H
  00023	50		 push	 eax
  00024	ff 15 00 00 00
	00		 call	 DWORD PTR __imp__GetLocaleInfoA@16
  0002a	85 c0		 test	 eax, eax
  0002c	74 27		 je	 SHORT $L226976

; 111  : 	{
; 112  : 		char* pch = szACP;
; 113  : 		while (*pch != '\0')

  0002e	8a 44 24 04	 mov	 al, BYTE PTR _szACP$[esp+16]
  00032	84 c0		 test	 al, al
  00034	8d 4c 24 04	 lea	 ecx, DWORD PTR _szACP$[esp+16]
  00038	74 1b		 je	 SHORT $L226976
  0003a	8d 9b 00 00 00
	00		 npad	 6
$L38556:

; 114  : 		{
; 115  : 			nACP *= 10;
; 116  : 			nACP += *pch++ - '0';

  00040	0f be c0	 movsx	 eax, al
  00043	8d 14 b6	 lea	 edx, DWORD PTR [esi+esi*4]
  00046	41		 inc	 ecx
  00047	8d 74 50 d0	 lea	 esi, DWORD PTR [eax+edx*2-48]
  0004b	8a 01		 mov	 al, BYTE PTR [ecx]
  0004d	84 c0		 test	 al, al
  0004f	75 ef		 jne	 SHORT $L38556

; 117  : 		}
; 118  : 	}
; 119  : 	// Use the Default ANSI Code Page if we were unable to get the thread ACP or if one does not exist.
; 120  : 	if (nACP == 0)

  00051	85 f6		 test	 esi, esi
  00053	75 16		 jne	 SHORT $L226977
$L226976:

; 121  : 		nACP = ::GetACP();

  00055	ff 15 00 00 00
	00		 call	 DWORD PTR __imp__GetACP@0
  0005b	5e		 pop	 esi

; 122  : 
; 123  : 	return nACP;
; 124  : }

  0005c	8b 4c 24 08	 mov	 ecx, DWORD PTR __$ArrayPad$[esp+12]
  00060	33 cc		 xor	 ecx, esp
  00062	e8 00 00 00 00	 call	 @__security_check_cookie@4
  00067	83 c4 0c	 add	 esp, 12			; 0000000cH
  0006a	c3		 ret	 0
$L226977:
  0006b	8b 4c 24 0c	 mov	 ecx, DWORD PTR __$ArrayPad$[esp+16]
  0006f	8b c6		 mov	 eax, esi
  00071	5e		 pop	 esi
  00072	33 cc		 xor	 ecx, esp
  00074	e8 00 00 00 00	 call	 @__security_check_cookie@4
  00079	83 c4 0c	 add	 esp, 12			; 0000000cH
  0007c	c3		 ret	 0
?_AtlGetThreadACPFake@ATL@@YGIXZ ENDP			; ATL::_AtlGetThreadACPFake
_TEXT	ENDS
PUBLIC	?_AtlGetThreadACPReal@ATL@@YGIXZ		; ATL::_AtlGetThreadACPReal
; Function compile flags: /Ogty
;	COMDAT ?_AtlGetThreadACPReal@ATL@@YGIXZ
_TEXT	SEGMENT
?_AtlGetThreadACPReal@ATL@@YGIXZ PROC NEAR		; ATL::_AtlGetThreadACPReal, COMDAT

; 128  : 	return( CP_THREAD_ACP );

  00000	b8 03 00 00 00	 mov	 eax, 3

; 129  : }

  00005	c3		 ret	 0
?_AtlGetThreadACPReal@ATL@@YGIXZ ENDP			; ATL::_AtlGetThreadACPReal
_TEXT	ENDS
EXTRN	__imp__GetVersionExA@4:NEAR
; Function compile flags: /Ogty
;	COMDAT ?_AtlGetThreadACPThunk@ATL@@YGIXZ
_TEXT	SEGMENT
_ver$ = -152						; size = 148
__$ArrayPad$ = -4					; size = 4
__$ReturnAddr$ = 4					; size = 4
?_AtlGetThreadACPThunk@ATL@@YGIXZ PROC NEAR		; ATL::_AtlGetThreadACPThunk, COMDAT

; 134  : {

  00000	81 ec 98 00 00
	00		 sub	 esp, 152		; 00000098H
  00006	a1 00 00 00 00	 mov	 eax, DWORD PTR ___security_cookie
  0000b	33 c4		 xor	 eax, esp
  0000d	89 84 24 94 00
	00 00		 mov	 DWORD PTR __$ArrayPad$[esp+152], eax

; 135  : 	OSVERSIONINFO ver;
; 136  : 	ATLGETTHREADACP pfnGetThreadACP;
; 137  : 
; 138  : 	ver.dwOSVersionInfoSize = sizeof( ver );
; 139  : 	::GetVersionEx( &ver );

  00014	8d 04 24	 lea	 eax, DWORD PTR _ver$[esp+152]
  00017	50		 push	 eax
  00018	c7 44 24 04 94
	00 00 00	 mov	 DWORD PTR _ver$[esp+156], 148 ; 00000094H
  00020	ff 15 00 00 00
	00		 call	 DWORD PTR __imp__GetVersionExA@4

; 140  : 	if( (ver.dwPlatformId == VER_PLATFORM_WIN32_NT) && (ver.dwMajorVersion >= 5) )

  00026	83 7c 24 10 02	 cmp	 DWORD PTR _ver$[esp+168], 2
  0002b	75 0c		 jne	 SHORT $L38566
  0002d	83 7c 24 04 05	 cmp	 DWORD PTR _ver$[esp+156], 5

; 141  : 	{
; 142  : 		// On Win2K, CP_THREAD_ACP is supported
; 143  : 		pfnGetThreadACP = _AtlGetThreadACPReal;

  00032	b8 00 00 00 00	 mov	 eax, OFFSET FLAT:?_AtlGetThreadACPReal@ATL@@YGIXZ ; ATL::_AtlGetThreadACPReal
  00037	73 05		 jae	 SHORT $L38567
$L38566:

; 144  : 	}
; 145  : 	else
; 146  : 	{
; 147  : 		pfnGetThreadACP = _AtlGetThreadACPFake;

  00039	b8 00 00 00 00	 mov	 eax, OFFSET FLAT:?_AtlGetThreadACPFake@ATL@@YGIXZ ; ATL::_AtlGetThreadACPFake
$L38567:

; 148  : 	}
; 149  : 	InterlockedExchangePointer( reinterpret_cast< void** >(&g_pfnGetThreadACP), pfnGetThreadACP );

  0003e	50		 push	 eax
  0003f	68 00 00 00 00	 push	 OFFSET FLAT:?g_pfnGetThreadACP@ATL@@3P6GIXZA ; ATL::g_pfnGetThreadACP
  00044	ff 15 00 00 00
	00		 call	 DWORD PTR __imp__InterlockedExchange@8

; 150  : 
; 151  : 	return( g_pfnGetThreadACP() );

  0004a	ff 15 00 00 00
	00		 call	 DWORD PTR ?g_pfnGetThreadACP@ATL@@3P6GIXZA ; ATL::g_pfnGetThreadACP

; 152  : }

  00050	8b 8c 24 94 00
	00 00		 mov	 ecx, DWORD PTR __$ArrayPad$[esp+152]
  00057	33 cc		 xor	 ecx, esp
  00059	e8 00 00 00 00	 call	 @__security_check_cookie@4
  0005e	81 c4 98 00 00
	00		 add	 esp, 152		; 00000098H
  00064	c3		 ret	 0
?_AtlGetThreadACPThunk@ATL@@YGIXZ ENDP			; ATL::_AtlGetThreadACPThunk
_TEXT	ENDS
PUBLIC	?_AtlGetConversionACP@ATL@@YGIXZ		; ATL::_AtlGetConversionACP
; Function compile flags: /Ogty
;	COMDAT ?_AtlGetConversionACP@ATL@@YGIXZ
_TEXT	SEGMENT
?_AtlGetConversionACP@ATL@@YGIXZ PROC NEAR		; ATL::_AtlGetConversionACP, COMDAT

; 158  : 	return( g_pfnGetThreadACP() );

  00000	ff 25 00 00 00
	00		 jmp	 DWORD PTR ?g_pfnGetThreadACP@ATL@@3P6GIXZA ; ATL::g_pfnGetThreadACP
?_AtlGetConversionACP@ATL@@YGIXZ ENDP			; ATL::_AtlGetConversionACP
_TEXT	ENDS
PUBLIC	?AtlThrow@ATL@@YGXJ@Z				; ATL::AtlThrow
EXTRN	?AfxThrowMemoryException@@YGXXZ:NEAR		; AfxThrowMemoryException
EXTRN	?AfxThrowOleException@@YGXJ@Z:NEAR		; AfxThrowOleException
; Function compile flags: /Ogty
; File c:\program files\microsoft visual studio .net 2003\vc7\atlmfc\include\atlexcept.h
;	COMDAT ?AtlThrow@ATL@@YGXJ@Z
_TEXT	SEGMENT
_hr$ = 8						; size = 4
?AtlThrow@ATL@@YGXJ@Z PROC NEAR				; ATL::AtlThrow, COMDAT

; 62   : 	ATLTRACE(atlTraceException, 0, _T("AtlThrow: hr = 0x%x\n"), hr );
; 63   : #ifdef _AFX
; 64   : 	if( hr == E_OUTOFMEMORY )

  00000	8b 44 24 04	 mov	 eax, DWORD PTR _hr$[esp-4]
  00004	3d 0e 00 07 80	 cmp	 eax, -2147024882	; 8007000eH
  00009	75 05		 jne	 SHORT $L39168

; 65   : 	{
; 66   : 		AfxThrowMemoryException();

  0000b	e8 00 00 00 00	 call	 ?AfxThrowMemoryException@@YGXXZ ; AfxThrowMemoryException
$L227000:
$L39168:

; 67   : 	}
; 68   : 	else
; 69   : 	{
; 70   : 		AfxThrowOleException( hr );

  00010	50		 push	 eax
  00011	e8 00 00 00 00	 call	 ?AfxThrowOleException@@YGXJ@Z ; AfxThrowOleException
$L227001:
$L226999:
  00016	cc		 int	 3
?AtlThrow@ATL@@YGXJ@Z ENDP				; ATL::AtlThrow
_TEXT	ENDS
PUBLIC	?_AtlGetStringResourceImage@ATL@@YAPBUATLSTRINGRESOURCEIMAGE@1@PAUHINSTANCE__@@PAUHRSRC__@@I@Z ; ATL::_AtlGetStringResourceImage
EXTRN	__imp__LoadResource@8:NEAR
EXTRN	__imp__SizeofResource@8:NEAR
EXTRN	__imp__LockResource@4:NEAR
; Function compile flags: /Ogty
; File c:\program files\microsoft visual studio .net 2003\vc7\atlmfc\include\atlcore.h
;	COMDAT ?_AtlGetStringResourceImage@ATL@@YAPBUATLSTRINGRESOURCEIMAGE@1@PAUHINSTANCE__@@PAUHRSRC__@@I@Z
_TEXT	SEGMENT
_hInstance$ = 8						; size = 4
_hResource$ = 12					; size = 4
_id$ = 16						; size = 4
?_AtlGetStringResourceImage@ATL@@YAPBUATLSTRINGRESOURCEIMAGE@1@PAUHINSTANCE__@@PAUHRSRC__@@I@Z PROC NEAR ; ATL::_AtlGetStringResourceImage, COMDAT

; 239  : {

  00000	53		 push	 ebx

; 240  : 	const ATLSTRINGRESOURCEIMAGE* pImage;
; 241  : 	const ATLSTRINGRESOURCEIMAGE* pImageEnd;
; 242  : 	ULONG nResourceSize;
; 243  : 	HGLOBAL hGlobal;
; 244  : 	UINT iIndex;
; 245  : 
; 246  : 	hGlobal = ::LoadResource( hInstance, hResource );

  00001	8b 5c 24 08	 mov	 ebx, DWORD PTR _hInstance$[esp]
  00005	57		 push	 edi
  00006	8b 7c 24 10	 mov	 edi, DWORD PTR _hResource$[esp+4]
  0000a	57		 push	 edi
  0000b	53		 push	 ebx
  0000c	ff 15 00 00 00
	00		 call	 DWORD PTR __imp__LoadResource@8

; 247  : 	if( hGlobal == NULL )

  00012	85 c0		 test	 eax, eax
  00014	75 03		 jne	 SHORT $L39522
  00016	5f		 pop	 edi
  00017	5b		 pop	 ebx

; 272  : 	{
; 273  : 		return( NULL );
; 274  : 	}
; 275  : 
; 276  : 	return( pImage );
; 277  : }

  00018	c3		 ret	 0
$L39522:
  00019	56		 push	 esi

; 248  : 	{
; 249  : 		return( NULL );
; 250  : 	}
; 251  : 
; 252  : 	pImage = (const ATLSTRINGRESOURCEIMAGE*)::LockResource( hGlobal );

  0001a	50		 push	 eax
  0001b	ff 15 00 00 00
	00		 call	 DWORD PTR __imp__LockResource@4
  00021	8b f0		 mov	 esi, eax

; 253  : 	if( pImage == NULL )

  00023	85 f6		 test	 esi, esi
  00025	75 06		 jne	 SHORT $L39524
$L227007:
  00027	5e		 pop	 esi
  00028	5f		 pop	 edi

; 254  : 	{
; 255  : 		return( NULL );

  00029	33 c0		 xor	 eax, eax
  0002b	5b		 pop	 ebx

; 272  : 	{
; 273  : 		return( NULL );
; 274  : 	}
; 275  : 
; 276  : 	return( pImage );
; 277  : }

  0002c	c3		 ret	 0
$L39524:

; 256  : 	}
; 257  : 
; 258  : 	nResourceSize = ::SizeofResource( hInstance, hResource );

  0002d	57		 push	 edi
  0002e	53		 push	 ebx
  0002f	ff 15 00 00 00
	00		 call	 DWORD PTR __imp__SizeofResource@8

; 259  : 	pImageEnd = (const ATLSTRINGRESOURCEIMAGE*)(LPBYTE( pImage )+nResourceSize);
; 260  : 	iIndex = id&0x000f;

  00035	8b 4c 24 18	 mov	 ecx, DWORD PTR _id$[esp+8]
  00039	03 c6		 add	 eax, esi
  0003b	83 e1 0f	 and	 ecx, 15			; 0000000fH

; 261  : 
; 262  : 	while( (iIndex > 0) && (pImage < pImageEnd) )

  0003e	76 0e		 jbe	 SHORT $L39528
$L39527:
  00040	3b f0		 cmp	 esi, eax
  00042	73 e3		 jae	 SHORT $L227007

; 263  : 	{
; 264  : 		pImage = (const ATLSTRINGRESOURCEIMAGE*)(LPBYTE( pImage )+(sizeof( ATLSTRINGRESOURCEIMAGE )+(pImage->nLength*sizeof( WCHAR ))));
; 265  : 		iIndex--;

  00044	49		 dec	 ecx
  00045	0f b7 16	 movzx	 edx, WORD PTR [esi]
  00048	8d 74 56 02	 lea	 esi, DWORD PTR [esi+edx*2+2]
  0004c	75 f2		 jne	 SHORT $L39527
$L39528:

; 266  : 	}
; 267  : 	if( pImage >= pImageEnd )

  0004e	3b f0		 cmp	 esi, eax

; 268  : 	{
; 269  : 		return( NULL );

  00050	73 d5		 jae	 SHORT $L227007

; 270  : 	}
; 271  : 	if( pImage->nLength == 0 )

  00052	66 8b 06	 mov	 ax, WORD PTR [esi]
  00055	66 f7 d8	 neg	 ax
  00058	1b c0		 sbb	 eax, eax
  0005a	23 c6		 and	 eax, esi
  0005c	5e		 pop	 esi
  0005d	5f		 pop	 edi
  0005e	5b		 pop	 ebx

; 272  : 	{
; 273  : 		return( NULL );
; 274  : 	}
; 275  : 
; 276  : 	return( pImage );
; 277  : }

  0005f	c3		 ret	 0
?_AtlGetStringResourceImage@ATL@@YAPBUATLSTRINGRESOURCEIMAGE@1@PAUHINSTANCE__@@PAUHRSRC__@@I@Z ENDP ; ATL::_AtlGetStringResourceImage
_TEXT	ENDS
PUBLIC	?AtlGetStringResourceImage@ATL@@YAPBUATLSTRINGRESOURCEIMAGE@1@PAUHINSTANCE__@@I@Z ; ATL::AtlGetStringResourceImage
EXTRN	__imp__FindResourceA@12:NEAR
; Function compile flags: /Ogty
;	COMDAT ?AtlGetStringResourceImage@ATL@@YAPBUATLSTRINGRESOURCEIMAGE@1@PAUHINSTANCE__@@I@Z
_TEXT	SEGMENT
_hInstance$ = 8						; size = 4
_id$ = 12						; size = 4
?AtlGetStringResourceImage@ATL@@YAPBUATLSTRINGRESOURCEIMAGE@1@PAUHINSTANCE__@@I@Z PROC NEAR ; ATL::AtlGetStringResourceImage, COMDAT

; 280  : {

  00000	56		 push	 esi

; 281  : 	HRSRC hResource;
; 282  : 
; 283  : 	hResource = ::FindResource( hInstance, MAKEINTRESOURCE( ((id>>4)+1) ), RT_STRING );

  00001	8b 74 24 0c	 mov	 esi, DWORD PTR _id$[esp]
  00005	8b c6		 mov	 eax, esi
  00007	c1 e8 04	 shr	 eax, 4
  0000a	57		 push	 edi
  0000b	8b 7c 24 0c	 mov	 edi, DWORD PTR _hInstance$[esp+4]
  0000f	40		 inc	 eax
  00010	0f b7 c8	 movzx	 ecx, ax
  00013	6a 06		 push	 6
  00015	51		 push	 ecx
  00016	57		 push	 edi
  00017	ff 15 00 00 00
	00		 call	 DWORD PTR __imp__FindResourceA@12

; 284  : 	if( hResource == NULL )

  0001d	85 c0		 test	 eax, eax
  0001f	75 03		 jne	 SHORT $L39545
  00021	5f		 pop	 edi
  00022	5e		 pop	 esi

; 290  : }

  00023	c3		 ret	 0
$L39545:

; 285  : 	{
; 286  : 		return( NULL );
; 287  : 	}
; 288  : 
; 289  : 	return _AtlGetStringResourceImage( hInstance, hResource, id );

  00024	56		 push	 esi
  00025	50		 push	 eax
  00026	57		 push	 edi
  00027	e8 00 00 00 00	 call	 ?_AtlGetStringResourceImage@ATL@@YAPBUATLSTRINGRESOURCEIMAGE@1@PAUHINSTANCE__@@PAUHRSRC__@@I@Z ; ATL::_AtlGetStringResourceImage
  0002c	83 c4 0c	 add	 esp, 12			; 0000000cH
  0002f	5f		 pop	 edi
  00030	5e		 pop	 esi

; 290  : }

  00031	c3		 ret	 0
?AtlGetStringResourceImage@ATL@@YAPBUATLSTRINGRESOURCEIMAGE@1@PAUHINSTANCE__@@I@Z ENDP ; ATL::AtlGetStringResourceImage
_TEXT	ENDS
PUBLIC	?data@CStringData@ATL@@QAEPAXXZ			; ATL::CStringData::data
; Function compile flags: /Ogty
; File c:\program files\microsoft visual studio .net 2003\vc7\atlmfc\include\atlsimpstr.h
;	COMDAT ?data@CStringData@ATL@@QAEPAXXZ
_TEXT	SEGMENT
?data@CStringData@ATL@@QAEPAXXZ PROC NEAR		; ATL::CStringData::data, COMDAT
; _this$ = ecx

; 66   : 		return (this+1);

  00000	8d 41 10	 lea	 eax, DWORD PTR [ecx+16]

; 67   : 	}

  00003	c3		 ret	 0
?data@CStringData@ATL@@QAEPAXXZ ENDP			; ATL::CStringData::data
_TEXT	ENDS
PUBLIC	?AddRef@CStringData@ATL@@QAEXXZ			; ATL::CStringData::AddRef
; Function compile flags: /Ogty
;	COMDAT ?AddRef@CStringData@ATL@@QAEXXZ
_TEXT	SEGMENT
?AddRef@CStringData@ATL@@QAEXXZ PROC NEAR		; ATL::CStringData::AddRef, COMDAT
; _this$ = ecx

; 71   : 		ATLASSERT(nRefs > 0);
; 72   : 		_InterlockedIncrement(&nRefs);

  00000	83 c1 0c	 add	 ecx, 12			; 0000000cH
  00003	b8 01 00 00 00	 mov	 eax, 1
  00008	f0 0f c1 01	 lock	  xadd	 DWORD PTR [ecx], eax

; 73   : 	}

  0000c	c3		 ret	 0
?AddRef@CStringData@ATL@@QAEXXZ ENDP			; ATL::CStringData::AddRef
_TEXT	ENDS
PUBLIC	?IsLocked@CStringData@ATL@@QBE_NXZ		; ATL::CStringData::IsLocked
; Function compile flags: /Ogty
;	COMDAT ?IsLocked@CStringData@ATL@@QBE_NXZ
_TEXT	SEGMENT
?IsLocked@CStringData@ATL@@QBE_NXZ PROC NEAR		; ATL::CStringData::IsLocked, COMDAT
; _this$ = ecx

; 76   : 		return nRefs < 0;

  00000	8b 51 0c	 mov	 edx, DWORD PTR [ecx+12]
  00003	33 c0		 xor	 eax, eax
  00005	85 d2		 test	 edx, edx
  00007	0f 9c c0	 setl	 al

; 77   : 	}

  0000a	c3		 ret	 0
?IsLocked@CStringData@ATL@@QBE_NXZ ENDP			; ATL::CStringData::IsLocked
_TEXT	ENDS
PUBLIC	?IsShared@CStringData@ATL@@QBE_NXZ		; ATL::CStringData::IsShared
; Function compile flags: /Ogty
;	COMDAT ?IsShared@CStringData@ATL@@QBE_NXZ
_TEXT	SEGMENT
?IsShared@CStringData@ATL@@QBE_NXZ PROC NEAR		; ATL::CStringData::IsShared, COMDAT
; _this$ = ecx

; 80   : 		return( nRefs > 1 ); 

  00000	8b 51 0c	 mov	 edx, DWORD PTR [ecx+12]
  00003	33 c0		 xor	 eax, eax
  00005	83 fa 01	 cmp	 edx, 1
  00008	0f 9f c0	 setg	 al

; 81   : 	}

  0000b	c3		 ret	 0
?IsShared@CStringData@ATL@@QBE_NXZ ENDP			; ATL::CStringData::IsShared
_TEXT	ENDS
PUBLIC	?Release@CStringData@ATL@@QAEXXZ		; ATL::CStringData::Release
; Function compile flags: /Ogty
;	COMDAT ?Release@CStringData@ATL@@QAEXXZ
_TEXT	SEGMENT
?Release@CStringData@ATL@@QAEXXZ PROC NEAR		; ATL::CStringData::Release, COMDAT
; _this$ = ecx

; 93   : 		ATLASSERT( nRefs != 0 );
; 94   : 
; 95   : 		if( _InterlockedDecrement( &nRefs ) <= 0 )

  00000	8d 41 0c	 lea	 eax, DWORD PTR [ecx+12]
  00003	83 ca ff	 or	 edx, -1
  00006	f0 0f c1 10	 lock	  xadd	 DWORD PTR [eax], edx
  0000a	4a		 dec	 edx
  0000b	85 d2		 test	 edx, edx
  0000d	7f 0a		 jg	 SHORT $L39885

; 96   : 		{
; 97   : 			pStringMgr->Free( this );

  0000f	8b 01		 mov	 eax, DWORD PTR [ecx]
  00011	8b 10		 mov	 edx, DWORD PTR [eax]
  00013	51		 push	 ecx
  00014	8b c8		 mov	 ecx, eax
  00016	ff 52 04	 call	 DWORD PTR [edx+4]
$L39885:

; 98   : 		}
; 99   : 	}

  00019	c3		 ret	 0
?Release@CStringData@ATL@@QAEXXZ ENDP			; ATL::CStringData::Release
_TEXT	ENDS
PUBLIC	?GetString@?$CSimpleStringT@D$0A@@ATL@@QBEPBDXZ	; ATL::CSimpleStringT<char,0>::GetString
; Function compile flags: /Ogty
;	COMDAT ?GetString@?$CSimpleStringT@D$0A@@ATL@@QBEPBDXZ
_TEXT	SEGMENT
?GetString@?$CSimpleStringT@D$0A@@ATL@@QBEPBDXZ PROC NEAR ; ATL::CSimpleStringT<char,0>::GetString, COMDAT
; _this$ = ecx

; 510  : 		return( m_pszData );

  00000	8b 01		 mov	 eax, DWORD PTR [ecx]

; 511  : 	}

  00002	c3		 ret	 0
?GetString@?$CSimpleStringT@D$0A@@ATL@@QBEPBDXZ ENDP	; ATL::CSimpleStringT<char,0>::GetString
_TEXT	ENDS
PUBLIC	?StringLength@?$CSimpleStringT@D$0A@@ATL@@SAHPBD@Z ; ATL::CSimpleStringT<char,0>::StringLength
; Function compile flags: /Ogty
;	COMDAT ?StringLength@?$CSimpleStringT@D$0A@@ATL@@SAHPBD@Z
_TEXT	SEGMENT
_psz$ = 8						; size = 4
?StringLength@?$CSimpleStringT@D$0A@@ATL@@SAHPBD@Z PROC NEAR ; ATL::CSimpleStringT<char,0>::StringLength, COMDAT

; 678  : 		if( psz == NULL )

  00000	8b 44 24 04	 mov	 eax, DWORD PTR _psz$[esp-4]
  00004	85 c0		 test	 eax, eax
  00006	75 01		 jne	 SHORT $L219971

; 683  : 	}

  00008	c3		 ret	 0
$L219971:

; 679  : 		{
; 680  : 			return( 0 );
; 681  : 		}
; 682  : 		return( int( strlen( psz ) ) );

  00009	8d 50 01	 lea	 edx, DWORD PTR [eax+1]
  0000c	8d 64 24 00	 npad	 4
$L227033:
  00010	8a 08		 mov	 cl, BYTE PTR [eax]
  00012	40		 inc	 eax
  00013	84 c9		 test	 cl, cl
  00015	75 f9		 jne	 SHORT $L227033
  00017	2b c2		 sub	 eax, edx

; 683  : 	}

  00019	c3		 ret	 0
?StringLength@?$CSimpleStringT@D$0A@@ATL@@SAHPBD@Z ENDP	; ATL::CSimpleStringT<char,0>::StringLength
_TEXT	ENDS
PUBLIC	?GetData@?$CSimpleStringT@D$0A@@ATL@@ABEPAUCStringData@2@XZ ; ATL::CSimpleStringT<char,0>::GetData
; Function compile flags: /Ogty
;	COMDAT ?GetData@?$CSimpleStringT@D$0A@@ATL@@ABEPAUCStringData@2@XZ
_TEXT	SEGMENT
?GetData@?$CSimpleStringT@D$0A@@ATL@@ABEPAUCStringData@2@XZ PROC NEAR ; ATL::CSimpleStringT<char,0>::GetData, COMDAT
; _this$ = ecx

; 731  : 		return( reinterpret_cast< CStringData* >( m_pszData )-1 );

  00000	8b 01		 mov	 eax, DWORD PTR [ecx]
  00002	83 e8 10	 sub	 eax, 16			; 00000010H

; 732  : 	}

  00005	c3		 ret	 0
?GetData@?$CSimpleStringT@D$0A@@ATL@@ABEPAUCStringData@2@XZ ENDP ; ATL::CSimpleStringT<char,0>::GetData
_TEXT	ENDS
PUBLIC	?SetLength@?$CSimpleStringT@D$0A@@ATL@@AAEXH@Z	; ATL::CSimpleStringT<char,0>::SetLength
; Function compile flags: /Ogty
;	COMDAT ?SetLength@?$CSimpleStringT@D$0A@@ATL@@AAEXH@Z
_TEXT	SEGMENT
_nLength$ = 8						; size = 4
?SetLength@?$CSimpleStringT@D$0A@@ATL@@AAEXH@Z PROC NEAR ; ATL::CSimpleStringT<char,0>::SetLength, COMDAT
; _this$ = ecx

; 790  : 		ATLASSERT( nLength >= 0 );
; 791  : 		ATLASSERT( nLength <= GetData()->nAllocLength );
; 792  : 
; 793  : 		if( nLength < 0 || nLength > GetData()->nAllocLength)

  00000	8b 44 24 04	 mov	 eax, DWORD PTR _nLength$[esp-4]
  00004	85 c0		 test	 eax, eax
  00006	7c 13		 jl	 SHORT $L219986
  00008	8b 11		 mov	 edx, DWORD PTR [ecx]
  0000a	3b 42 f8	 cmp	 eax, DWORD PTR [edx-8]
  0000d	7f 0c		 jg	 SHORT $L219986

; 794  : 			AtlThrow(E_INVALIDARG);
; 795  : 			
; 796  : 		GetData()->nDataLength = nLength;

  0000f	89 42 f4	 mov	 DWORD PTR [edx-12], eax

; 797  : 		m_pszData[nLength] = 0;

  00012	8b 09		 mov	 ecx, DWORD PTR [ecx]
  00014	c6 04 08 00	 mov	 BYTE PTR [eax+ecx], 0

; 798  : 	}

  00018	c2 04 00	 ret	 4
$L219986:
  0001b	68 57 00 07 80	 push	 -2147024809		; 80070057H
  00020	e8 00 00 00 00	 call	 ?AtlThrow@ATL@@YGXJ@Z	; ATL::AtlThrow
$L227047:
$L227046:
  00025	cc		 int	 3
?SetLength@?$CSimpleStringT@D$0A@@ATL@@AAEXH@Z ENDP	; ATL::CSimpleStringT<char,0>::SetLength
_TEXT	ENDS
PUBLIC	?FindStringResourceInstance@?$StrTraitMFC@DV?$ChTraitsCRT@D@ATL@@@@SAPAUHINSTANCE__@@I@Z ; StrTraitMFC<char,ATL::ChTraitsCRT<char> >::FindStringResourceInstance
EXTRN	?AfxFindStringResourceHandle@@YGPAUHINSTANCE__@@I@Z:NEAR ; AfxFindStringResourceHandle
; Function compile flags: /Ogty
; File c:\program files\microsoft visual studio .net 2003\vc7\atlmfc\include\afxstr.h
;	COMDAT ?FindStringResourceInstance@?$StrTraitMFC@DV?$ChTraitsCRT@D@ATL@@@@SAPAUHINSTANCE__@@I@Z
_TEXT	SEGMENT
_nID$ = 8						; size = 4
?FindStringResourceInstance@?$StrTraitMFC@DV?$ChTraitsCRT@D@ATL@@@@SAPAUHINSTANCE__@@I@Z PROC NEAR ; StrTraitMFC<char,ATL::ChTraitsCRT<char> >::FindStringResourceInstance, COMDAT

; 45   : 		return( AfxFindStringResourceHandle( nID ) );

  00000	8b 44 24 04	 mov	 eax, DWORD PTR _nID$[esp-4]
  00004	50		 push	 eax
  00005	e8 00 00 00 00	 call	 ?AfxFindStringResourceHandle@@YGPAUHINSTANCE__@@I@Z ; AfxFindStringResourceHandle

; 46   : 	}

  0000a	c3		 ret	 0
?FindStringResourceInstance@?$StrTraitMFC@DV?$ChTraitsCRT@D@ATL@@@@SAPAUHINSTANCE__@@I@Z ENDP ; StrTraitMFC<char,ATL::ChTraitsCRT<char> >::FindStringResourceInstance
_TEXT	ENDS
PUBLIC	?GetDefaultManager@?$StrTraitMFC@DV?$ChTraitsCRT@D@ATL@@@@SAPAUIAtlStringMgr@ATL@@XZ ; StrTraitMFC<char,ATL::ChTraitsCRT<char> >::GetDefaultManager
EXTRN	?AfxGetStringManager@@YGPAUIAtlStringMgr@ATL@@XZ:NEAR ; AfxGetStringManager
; Function compile flags: /Ogty
;	COMDAT ?GetDefaultManager@?$StrTraitMFC@DV?$ChTraitsCRT@D@ATL@@@@SAPAUIAtlStringMgr@ATL@@XZ
_TEXT	SEGMENT
?GetDefaultManager@?$StrTraitMFC@DV?$ChTraitsCRT@D@ATL@@@@SAPAUIAtlStringMgr@ATL@@XZ PROC NEAR ; StrTraitMFC<char,ATL::ChTraitsCRT<char> >::GetDefaultManager, COMDAT

; 50   : 		return( AfxGetStringManager() );

  00000	e9 00 00 00 00	 jmp	 ?AfxGetStringManager@@YGPAUIAtlStringMgr@ATL@@XZ ; AfxGetStringManager
?GetDefaultManager@?$StrTraitMFC@DV?$ChTraitsCRT@D@ATL@@@@SAPAUIAtlStringMgr@ATL@@XZ ENDP ; StrTraitMFC<char,ATL::ChTraitsCRT<char> >::GetDefaultManager
_TEXT	ENDS
PUBLIC	?Attach@?$CSimpleStringT@D$0A@@ATL@@AAEXPAUCStringData@2@@Z ; ATL::CSimpleStringT<char,0>::Attach
; Function compile flags: /Ogty
; File c:\program files\microsoft visual studio .net 2003\vc7\atlmfc\include\atlsimpstr.h
;	COMDAT ?Attach@?$CSimpleStringT@D$0A@@ATL@@AAEXPAUCStringData@2@@Z
_TEXT	SEGMENT
_pData$ = 8						; size = 4
?Attach@?$CSimpleStringT@D$0A@@ATL@@AAEXPAUCStringData@2@@Z PROC NEAR ; ATL::CSimpleStringT<char,0>::Attach, COMDAT
; _this$ = ecx

; 712  : 		m_pszData = static_cast< PXSTR >( pData->data() );

  00000	8b 44 24 04	 mov	 eax, DWORD PTR _pData$[esp-4]
  00004	83 c0 10	 add	 eax, 16			; 00000010H
  00007	89 01		 mov	 DWORD PTR [ecx], eax

; 713  : 	}

  00009	c2 04 00	 ret	 4
?Attach@?$CSimpleStringT@D$0A@@ATL@@AAEXPAUCStringData@2@@Z ENDP ; ATL::CSimpleStringT<char,0>::Attach
_TEXT	ENDS
PUBLIC	?GetBaseTypeLength@?$ChTraitsCRT@D@ATL@@SAHPBGH@Z ; ATL::ChTraitsCRT<char>::GetBaseTypeLength
EXTRN	__imp__WideCharToMultiByte@32:NEAR
; Function compile flags: /Ogty
; File c:\program files\microsoft visual studio .net 2003\vc7\atlmfc\include\cstringt.h
;	COMDAT ?GetBaseTypeLength@?$ChTraitsCRT@D@ATL@@SAHPBGH@Z
_TEXT	SEGMENT
_pszSource$ = 8						; size = 4
_nLength$ = 12						; size = 4
?GetBaseTypeLength@?$ChTraitsCRT@D@ATL@@SAHPBGH@Z PROC NEAR ; ATL::ChTraitsCRT<char>::GetBaseTypeLength, COMDAT

; 437  : 		// Returns required buffer length in XCHARs
; 438  : 		return ::WideCharToMultiByte( _AtlGetConversionACP(), 0, pszSource, nLength, NULL, 0, NULL, NULL );

  00000	ff 15 00 00 00
	00		 call	 DWORD PTR ?g_pfnGetThreadACP@ATL@@3P6GIXZA ; ATL::g_pfnGetThreadACP
  00006	8b 4c 24 08	 mov	 ecx, DWORD PTR _nLength$[esp-4]
  0000a	8b 54 24 04	 mov	 edx, DWORD PTR _pszSource$[esp-4]
  0000e	6a 00		 push	 0
  00010	6a 00		 push	 0
  00012	6a 00		 push	 0
  00014	6a 00		 push	 0
  00016	51		 push	 ecx
  00017	52		 push	 edx
  00018	6a 00		 push	 0
  0001a	50		 push	 eax
  0001b	ff 15 00 00 00
	00		 call	 DWORD PTR __imp__WideCharToMultiByte@32

; 439  : 	}

  00021	c3		 ret	 0
?GetBaseTypeLength@?$ChTraitsCRT@D@ATL@@SAHPBGH@Z ENDP	; ATL::ChTraitsCRT<char>::GetBaseTypeLength
_TEXT	ENDS
PUBLIC	?ConvertToBaseType@?$ChTraitsCRT@D@ATL@@SAXPADHPBGH@Z ; ATL::ChTraitsCRT<char>::ConvertToBaseType
; Function compile flags: /Ogty
;	COMDAT ?ConvertToBaseType@?$ChTraitsCRT@D@ATL@@SAXPADHPBGH@Z
_TEXT	SEGMENT
_pszDest$ = 8						; size = 4
_nDestLength$ = 12					; size = 4
_pszSrc$ = 16						; size = 4
_nSrcLength$ = 20					; size = 4
?ConvertToBaseType@?$ChTraitsCRT@D@ATL@@SAXPADHPBGH@Z PROC NEAR ; ATL::ChTraitsCRT<char>::ConvertToBaseType, COMDAT

; 452  : 		// nLen is in XCHARs
; 453  : 		::WideCharToMultiByte( _AtlGetConversionACP(), 0, pszSrc, nSrcLength, pszDest, nDestLength, NULL, NULL );

  00000	8b 44 24 08	 mov	 eax, DWORD PTR _nDestLength$[esp-4]
  00004	8b 4c 24 04	 mov	 ecx, DWORD PTR _pszDest$[esp-4]
  00008	8b 54 24 10	 mov	 edx, DWORD PTR _nSrcLength$[esp-4]
  0000c	6a 00		 push	 0
  0000e	6a 00		 push	 0
  00010	50		 push	 eax
  00011	8b 44 24 18	 mov	 eax, DWORD PTR _pszSrc$[esp+8]
  00015	51		 push	 ecx
  00016	52		 push	 edx
  00017	50		 push	 eax
  00018	6a 00		 push	 0
  0001a	ff 15 00 00 00
	00		 call	 DWORD PTR ?g_pfnGetThreadACP@ATL@@3P6GIXZA ; ATL::g_pfnGetThreadACP
  00020	50		 push	 eax
  00021	ff 15 00 00 00
	00		 call	 DWORD PTR __imp__WideCharToMultiByte@32

; 454  : 	}

  00027	c3		 ret	 0
?ConvertToBaseType@?$ChTraitsCRT@D@ATL@@SAXPADHPBGH@Z ENDP ; ATL::ChTraitsCRT<char>::ConvertToBaseType
_TEXT	ENDS
PUBLIC	?CopyChars@?$CSimpleStringT@D$0A@@ATL@@SAXPADPBDH@Z ; ATL::CSimpleStringT<char,0>::CopyChars
; Function compile flags: /Ogty
; File c:\program files\microsoft visual studio .net 2003\vc7\atlmfc\include\atlsimpstr.h
;	COMDAT ?CopyChars@?$CSimpleStringT@D$0A@@ATL@@SAXPADPBDH@Z
_TEXT	SEGMENT
_pchDest$ = 8						; size = 4
_pchSrc$ = 12						; size = 4
_nChars$ = 16						; size = 4
?CopyChars@?$CSimpleStringT@D$0A@@ATL@@SAXPADPBDH@Z PROC NEAR ; ATL::CSimpleStringT<char,0>::CopyChars, COMDAT

; 653  : 		memcpy( pchDest, pchSrc, nChars*sizeof( XCHAR ) );

  00000	8b 4c 24 0c	 mov	 ecx, DWORD PTR _nChars$[esp-4]
  00004	56		 push	 esi
  00005	8b 74 24 0c	 mov	 esi, DWORD PTR _pchSrc$[esp]
  00009	8b c1		 mov	 eax, ecx
  0000b	57		 push	 edi
  0000c	8b 7c 24 0c	 mov	 edi, DWORD PTR _pchDest$[esp+4]
  00010	c1 e9 02	 shr	 ecx, 2
  00013	f3 a5		 rep movsd
  00015	8b c8		 mov	 ecx, eax
  00017	83 e1 03	 and	 ecx, 3
  0001a	f3 a4		 rep movsb
  0001c	5f		 pop	 edi
  0001d	5e		 pop	 esi

; 654  : 	}

  0001e	c3		 ret	 0
?CopyChars@?$CSimpleStringT@D$0A@@ATL@@SAXPADPBDH@Z ENDP ; ATL::CSimpleStringT<char,0>::CopyChars
_TEXT	ENDS
PUBLIC	?CopyCharsOverlapped@?$CSimpleStringT@D$0A@@ATL@@SAXPADPBDH@Z ; ATL::CSimpleStringT<char,0>::CopyCharsOverlapped
EXTRN	_memmove:NEAR
; Function compile flags: /Ogty
;	COMDAT ?CopyCharsOverlapped@?$CSimpleStringT@D$0A@@ATL@@SAXPADPBDH@Z
_TEXT	SEGMENT
_pchDest$ = 8						; size = 4
_pchSrc$ = 12						; size = 4
_nChars$ = 16						; size = 4
?CopyCharsOverlapped@?$CSimpleStringT@D$0A@@ATL@@SAXPADPBDH@Z PROC NEAR ; ATL::CSimpleStringT<char,0>::CopyCharsOverlapped, COMDAT

; 657  : 		memmove( pchDest, pchSrc, nChars*sizeof( XCHAR ) );

  00000	e9 00 00 00 00	 jmp	 _memmove
?CopyCharsOverlapped@?$CSimpleStringT@D$0A@@ATL@@SAXPADPBDH@Z ENDP ; ATL::CSimpleStringT<char,0>::CopyCharsOverlapped
_TEXT	ENDS
PUBLIC	?ThrowMemoryException@?$CSimpleStringT@D$0A@@ATL@@KAXXZ ; ATL::CSimpleStringT<char,0>::ThrowMemoryException
; Function compile flags: /Ogty
;	COMDAT ?ThrowMemoryException@?$CSimpleStringT@D$0A@@ATL@@KAXXZ
_TEXT	SEGMENT
?ThrowMemoryException@?$CSimpleStringT@D$0A@@ATL@@KAXXZ PROC NEAR ; ATL::CSimpleStringT<char,0>::ThrowMemoryException, COMDAT

; 705  : 		AtlThrow( E_OUTOFMEMORY );

  00000	68 0e 00 07 80	 push	 -2147024882		; 8007000eH
  00005	e8 00 00 00 00	 call	 ?AtlThrow@ATL@@YGXJ@Z	; ATL::AtlThrow
$L227084:
$L227083:
  0000a	cc		 int	 3
?ThrowMemoryException@?$CSimpleStringT@D$0A@@ATL@@KAXXZ ENDP ; ATL::CSimpleStringT<char,0>::ThrowMemoryException
_TEXT	ENDS
PUBLIC	?Fork@?$CSimpleStringT@D$0A@@ATL@@AAEXH@Z	; ATL::CSimpleStringT<char,0>::Fork
; Function compile flags: /Ogty
;	COMDAT ?Fork@?$CSimpleStringT@D$0A@@ATL@@AAEXH@Z
_TEXT	SEGMENT
_this$ = -4						; size = 4
tv181 = 8						; size = 4
_nLength$ = 8						; size = 4
?Fork@?$CSimpleStringT@D$0A@@ATL@@AAEXH@Z PROC NEAR	; ATL::CSimpleStringT<char,0>::Fork, COMDAT
; _this$ = ecx

; 715  : 	{

  00000	51		 push	 ecx
  00001	53		 push	 ebx

; 716  : 		CStringData* pOldData = GetData();

  00002	8b 19		 mov	 ebx, DWORD PTR [ecx]
  00004	83 eb 10	 sub	 ebx, 16			; 00000010H
  00007	55		 push	 ebp

; 717  : 		int nOldLength = pOldData->nDataLength;

  00008	8b 6b 04	 mov	 ebp, DWORD PTR [ebx+4]
  0000b	89 4c 24 08	 mov	 DWORD PTR _this$[esp+12], ecx

; 718  : 		CStringData* pNewData = pOldData->pStringMgr->Clone()->Allocate( nLength, sizeof( XCHAR ) );

  0000f	8b 0b		 mov	 ecx, DWORD PTR [ebx]
  00011	8b 01		 mov	 eax, DWORD PTR [ecx]
  00013	56		 push	 esi
  00014	ff 50 10	 call	 DWORD PTR [eax+16]
  00017	8b 74 24 14	 mov	 esi, DWORD PTR _nLength$[esp+12]
  0001b	8b 10		 mov	 edx, DWORD PTR [eax]
  0001d	6a 01		 push	 1
  0001f	56		 push	 esi
  00020	8b c8		 mov	 ecx, eax
  00022	ff 12		 call	 DWORD PTR [edx]

; 719  : 		if( pNewData == NULL )

  00024	85 c0		 test	 eax, eax
  00026	75 05		 jne	 SHORT $L222762

; 720  : 		{
; 721  : 			ThrowMemoryException();

  00028	e8 00 00 00 00	 call	 ?ThrowMemoryException@?$CSimpleStringT@D$0A@@ATL@@KAXXZ ; ATL::CSimpleStringT<char,0>::ThrowMemoryException
$L227115:
$L222762:

; 722  : 		}
; 723  : 		int nCharsToCopy = ((nOldLength < nLength) ? nOldLength : nLength)+1;  // Copy '\0'

  0002d	3b ee		 cmp	 ebp, esi
  0002f	7d 02		 jge	 SHORT $L227089
  00031	8b f5		 mov	 esi, ebp
$L227089:
  00033	8d 4e 01	 lea	 ecx, DWORD PTR [esi+1]

; 724  : 		CopyChars( PXSTR( pNewData->data() ), PCXSTR( pOldData->data() ), nCharsToCopy );

  00036	8b d1		 mov	 edx, ecx
  00038	57		 push	 edi
  00039	c1 e9 02	 shr	 ecx, 2
  0003c	8d 78 10	 lea	 edi, DWORD PTR [eax+16]
  0003f	89 7c 24 18	 mov	 DWORD PTR tv181[esp+16], edi
  00043	8d 73 10	 lea	 esi, DWORD PTR [ebx+16]
  00046	f3 a5		 rep movsd
  00048	8b ca		 mov	 ecx, edx
  0004a	83 e1 03	 and	 ecx, 3
  0004d	f3 a4		 rep movsb

; 725  : 		pNewData->nDataLength = nOldLength;

  0004f	89 68 04	 mov	 DWORD PTR [eax+4], ebp

; 726  : 		pOldData->Release();

  00052	8d 43 0c	 lea	 eax, DWORD PTR [ebx+12]
  00055	83 c9 ff	 or	 ecx, -1
  00058	f0 0f c1 08	 lock	  xadd	 DWORD PTR [eax], ecx
  0005c	49		 dec	 ecx
  0005d	85 c9		 test	 ecx, ecx
  0005f	5f		 pop	 edi
  00060	7f 08		 jg	 SHORT $L227105
  00062	8b 0b		 mov	 ecx, DWORD PTR [ebx]
  00064	8b 11		 mov	 edx, DWORD PTR [ecx]
  00066	53		 push	 ebx
  00067	ff 52 04	 call	 DWORD PTR [edx+4]
$L227105:

; 727  : 		Attach( pNewData );

  0006a	8b 44 24 14	 mov	 eax, DWORD PTR tv181[esp+12]
  0006e	8b 4c 24 0c	 mov	 ecx, DWORD PTR _this$[esp+16]
  00072	5e		 pop	 esi
  00073	5d		 pop	 ebp
  00074	89 01		 mov	 DWORD PTR [ecx], eax
  00076	5b		 pop	 ebx

; 728  : 	}

  00077	59		 pop	 ecx
  00078	c2 04 00	 ret	 4
$L227114:
?Fork@?$CSimpleStringT@D$0A@@ATL@@AAEXH@Z ENDP		; ATL::CSimpleStringT<char,0>::Fork
_TEXT	ENDS
PUBLIC	?Reallocate@?$CSimpleStringT@D$0A@@ATL@@AAEXH@Z	; ATL::CSimpleStringT<char,0>::Reallocate
; Function compile flags: /Ogty
;	COMDAT ?Reallocate@?$CSimpleStringT@D$0A@@ATL@@AAEXH@Z
_TEXT	SEGMENT
_nLength$ = 8						; size = 4
?Reallocate@?$CSimpleStringT@D$0A@@ATL@@AAEXH@Z PROC NEAR ; ATL::CSimpleStringT<char,0>::Reallocate, COMDAT
; _this$ = ecx

; 776  : 	{

  00000	56		 push	 esi
  00001	57		 push	 edi

; 777  : 		CStringData* pOldData = GetData();
; 778  : 		ATLASSERT( pOldData->nAllocLength < nLength );
; 779  : 		IAtlStringMgr* pStringMgr = pOldData->pStringMgr;
; 780  : 		CStringData* pNewData = pStringMgr->Reallocate( pOldData, nLength, sizeof( XCHAR ) );

  00002	8b 7c 24 0c	 mov	 edi, DWORD PTR _nLength$[esp+4]
  00006	8b f1		 mov	 esi, ecx
  00008	8b 06		 mov	 eax, DWORD PTR [esi]
  0000a	8b 48 f0	 mov	 ecx, DWORD PTR [eax-16]
  0000d	8b 11		 mov	 edx, DWORD PTR [ecx]
  0000f	83 e8 10	 sub	 eax, 16			; 00000010H
  00012	6a 01		 push	 1
  00014	57		 push	 edi
  00015	50		 push	 eax
  00016	ff 52 08	 call	 DWORD PTR [edx+8]

; 781  : 		if( pNewData == NULL )

  00019	85 c0		 test	 eax, eax
  0001b	75 05		 jne	 SHORT $L222771

; 782  : 		{
; 783  : 			ThrowMemoryException();

  0001d	e8 00 00 00 00	 call	 ?ThrowMemoryException@?$CSimpleStringT@D$0A@@ATL@@KAXXZ ; ATL::CSimpleStringT<char,0>::ThrowMemoryException
$L227131:
$L222771:

; 784  : 		}
; 785  : 		Attach( pNewData );

  00022	83 c0 10	 add	 eax, 16			; 00000010H
  00025	5f		 pop	 edi
  00026	89 06		 mov	 DWORD PTR [esi], eax
  00028	5e		 pop	 esi

; 786  : 	}

  00029	c2 04 00	 ret	 4
$L227130:
?Reallocate@?$CSimpleStringT@D$0A@@ATL@@AAEXH@Z ENDP	; ATL::CSimpleStringT<char,0>::Reallocate
_TEXT	ENDS
PUBLIC	?GetLength@?$CSimpleStringT@D$0A@@ATL@@QBEHXZ	; ATL::CSimpleStringT<char,0>::GetLength
; Function compile flags: /Ogty
;	COMDAT ?GetLength@?$CSimpleStringT@D$0A@@ATL@@QBEHXZ
_TEXT	SEGMENT
?GetLength@?$CSimpleStringT@D$0A@@ATL@@QBEHXZ PROC NEAR	; ATL::CSimpleStringT<char,0>::GetLength, COMDAT
; _this$ = ecx

; 501  : 		return( GetData()->nDataLength );

  00000	8b 01		 mov	 eax, DWORD PTR [ecx]
  00002	8b 40 f4	 mov	 eax, DWORD PTR [eax-12]

; 502  : 	}

  00005	c3		 ret	 0
?GetLength@?$CSimpleStringT@D$0A@@ATL@@QBEHXZ ENDP	; ATL::CSimpleStringT<char,0>::GetLength
_TEXT	ENDS
PUBLIC	??0?$CSimpleStringT@D$0A@@ATL@@QAE@PAUIAtlStringMgr@1@@Z ; ATL::CSimpleStringT<char,0>::CSimpleStringT<char,0>
; Function compile flags: /Ogty
;	COMDAT ??0?$CSimpleStringT@D$0A@@ATL@@QAE@PAUIAtlStringMgr@1@@Z
_TEXT	SEGMENT
_pStringMgr$ = 8					; size = 4
??0?$CSimpleStringT@D$0A@@ATL@@QAE@PAUIAtlStringMgr@1@@Z PROC NEAR ; ATL::CSimpleStringT<char,0>::CSimpleStringT<char,0>, COMDAT
; _this$ = ecx

; 210  : 	explicit CSimpleStringT( IAtlStringMgr* pStringMgr ) throw()

  00000	56		 push	 esi
  00001	8b f1		 mov	 esi, ecx

; 211  : 	{
; 212  : 		ATLASSERT( pStringMgr != NULL );
; 213  : 		CStringData* pData = pStringMgr->GetNilString();

  00003	8b 4c 24 08	 mov	 ecx, DWORD PTR _pStringMgr$[esp]
  00007	8b 01		 mov	 eax, DWORD PTR [ecx]
  00009	ff 50 0c	 call	 DWORD PTR [eax+12]

; 214  : 		Attach( pData );

  0000c	83 c0 10	 add	 eax, 16			; 00000010H
  0000f	89 06		 mov	 DWORD PTR [esi], eax

; 215  : 	}

  00011	8b c6		 mov	 eax, esi
  00013	5e		 pop	 esi
  00014	c2 04 00	 ret	 4
??0?$CSimpleStringT@D$0A@@ATL@@QAE@PAUIAtlStringMgr@1@@Z ENDP ; ATL::CSimpleStringT<char,0>::CSimpleStringT<char,0>
_TEXT	ENDS
PUBLIC	??1?$CSimpleStringT@D$0A@@ATL@@QAE@XZ		; ATL::CSimpleStringT<char,0>::~CSimpleStringT<char,0>
; Function compile flags: /Ogty
;	COMDAT ??1?$CSimpleStringT@D$0A@@ATL@@QAE@XZ
_TEXT	SEGMENT
??1?$CSimpleStringT@D$0A@@ATL@@QAE@XZ PROC NEAR		; ATL::CSimpleStringT<char,0>::~CSimpleStringT<char,0>, COMDAT
; _this$ = ecx

; 263  : 		CStringData* pData = GetData();

  00000	8b 01		 mov	 eax, DWORD PTR [ecx]
  00002	83 e8 10	 sub	 eax, 16			; 00000010H

; 264  : 		pData->Release();

  00005	8d 48 0c	 lea	 ecx, DWORD PTR [eax+12]
  00008	83 ca ff	 or	 edx, -1
  0000b	f0 0f c1 11	 lock	  xadd	 DWORD PTR [ecx], edx
  0000f	4a		 dec	 edx
  00010	85 d2		 test	 edx, edx
  00012	7f 08		 jg	 SHORT $L227158
  00014	8b 08		 mov	 ecx, DWORD PTR [eax]
  00016	8b 11		 mov	 edx, DWORD PTR [ecx]
  00018	50		 push	 eax
  00019	ff 52 04	 call	 DWORD PTR [edx+4]
$L227158:

; 265  : 	}

  0001c	c3		 ret	 0
??1?$CSimpleStringT@D$0A@@ATL@@QAE@XZ ENDP		; ATL::CSimpleStringT<char,0>::~CSimpleStringT<char,0>
_TEXT	ENDS
PUBLIC	?ReleaseBufferSetLength@?$CSimpleStringT@D$0A@@ATL@@QAEXH@Z ; ATL::CSimpleStringT<char,0>::ReleaseBufferSetLength
; Function compile flags: /Ogty
;	COMDAT ?ReleaseBufferSetLength@?$CSimpleStringT@D$0A@@ATL@@QAEXH@Z
_TEXT	SEGMENT
_nNewLength$ = 8					; size = 4
?ReleaseBufferSetLength@?$CSimpleStringT@D$0A@@ATL@@QAEXH@Z PROC NEAR ; ATL::CSimpleStringT<char,0>::ReleaseBufferSetLength, COMDAT
; _this$ = ecx

; 547  : 		ATLASSERT( nNewLength >= 0 );
; 548  : 		SetLength( nNewLength );

  00000	8b 44 24 04	 mov	 eax, DWORD PTR _nNewLength$[esp-4]
  00004	85 c0		 test	 eax, eax
  00006	7c 13		 jl	 SHORT $L227171
  00008	8b 11		 mov	 edx, DWORD PTR [ecx]
  0000a	3b 42 f8	 cmp	 eax, DWORD PTR [edx-8]
  0000d	7f 0c		 jg	 SHORT $L227171
  0000f	89 42 f4	 mov	 DWORD PTR [edx-12], eax
  00012	8b 09		 mov	 ecx, DWORD PTR [ecx]
  00014	c6 04 08 00	 mov	 BYTE PTR [eax+ecx], 0

; 549  : 	}

  00018	c2 04 00	 ret	 4
$L227171:
  0001b	68 57 00 07 80	 push	 -2147024809		; 80070057H
  00020	e8 00 00 00 00	 call	 ?AtlThrow@ATL@@YGXJ@Z	; ATL::AtlThrow
$L227179:
$L227178:
  00025	cc		 int	 3
?ReleaseBufferSetLength@?$CSimpleStringT@D$0A@@ATL@@QAEXH@Z ENDP ; ATL::CSimpleStringT<char,0>::ReleaseBufferSetLength
_TEXT	ENDS
PUBLIC	?Empty@?$CSimpleStringT@D$0A@@ATL@@QAEXXZ	; ATL::CSimpleStringT<char,0>::Empty
; Function compile flags: /Ogty
;	COMDAT ?Empty@?$CSimpleStringT@D$0A@@ATL@@QAEXXZ
_TEXT	SEGMENT
?Empty@?$CSimpleStringT@D$0A@@ATL@@QAEXXZ PROC NEAR	; ATL::CSimpleStringT<char,0>::Empty, COMDAT
; _this$ = ecx

; 421  : 	{

  00000	56		 push	 esi
  00001	8b f1		 mov	 esi, ecx

; 422  : 		CStringData* pOldData = GetData();

  00003	8b 0e		 mov	 ecx, DWORD PTR [esi]

; 423  : 		IAtlStringMgr* pStringMgr = pOldData->pStringMgr;
; 424  : 		if( pOldData->nDataLength == 0 )

  00005	8b 51 f4	 mov	 edx, DWORD PTR [ecx-12]
  00008	85 d2		 test	 edx, edx
  0000a	8d 41 f0	 lea	 eax, DWORD PTR [ecx-16]
  0000d	57		 push	 edi
  0000e	8b 38		 mov	 edi, DWORD PTR [eax]
  00010	74 4c		 je	 SHORT $L227213
  00012	53		 push	 ebx

; 425  : 		{
; 426  : 			return;
; 427  : 		}
; 428  : 
; 429  : 		if( pOldData->IsLocked() )

  00013	8b 58 0c	 mov	 ebx, DWORD PTR [eax+12]
  00016	8d 50 0c	 lea	 edx, DWORD PTR [eax+12]
  00019	85 db		 test	 ebx, ebx
  0001b	5b		 pop	 ebx
  0001c	7d 20		 jge	 SHORT $L221323

; 430  : 		{
; 431  : 			// Don't reallocate a locked buffer that's shrinking
; 432  : 			SetLength( 0 );

  0001e	8b 41 f8	 mov	 eax, DWORD PTR [ecx-8]
  00021	85 c0		 test	 eax, eax
  00023	7d 0a		 jge	 SHORT $L227197
  00025	68 57 00 07 80	 push	 -2147024809		; 80070057H
  0002a	e8 00 00 00 00	 call	 ?AtlThrow@ATL@@YGXJ@Z	; ATL::AtlThrow
$L227218:
$L227197:
  0002f	c7 41 f4 00 00
	00 00		 mov	 DWORD PTR [ecx-12], 0
  00036	8b 06		 mov	 eax, DWORD PTR [esi]
  00038	5f		 pop	 edi
  00039	c6 00 00	 mov	 BYTE PTR [eax], 0
  0003c	5e		 pop	 esi

; 439  : 		}
; 440  : 	}

  0003d	c3		 ret	 0
$L221323:

; 433  : 		}
; 434  : 		else
; 435  : 		{
; 436  : 			pOldData->Release();

  0003e	83 c9 ff	 or	 ecx, -1
  00041	f0 0f c1 0a	 lock	  xadd	 DWORD PTR [edx], ecx
  00045	49		 dec	 ecx
  00046	85 c9		 test	 ecx, ecx
  00048	7f 08		 jg	 SHORT $L227208
  0004a	8b 08		 mov	 ecx, DWORD PTR [eax]
  0004c	8b 11		 mov	 edx, DWORD PTR [ecx]
  0004e	50		 push	 eax
  0004f	ff 52 04	 call	 DWORD PTR [edx+4]
$L227208:

; 437  : 			CStringData* pNewData = pStringMgr->GetNilString();

  00052	8b 07		 mov	 eax, DWORD PTR [edi]
  00054	8b cf		 mov	 ecx, edi
  00056	ff 50 0c	 call	 DWORD PTR [eax+12]

; 438  : 			Attach( pNewData );

  00059	83 c0 10	 add	 eax, 16			; 00000010H
  0005c	89 06		 mov	 DWORD PTR [esi], eax
$L227213:
  0005e	5f		 pop	 edi
  0005f	5e		 pop	 esi

; 439  : 		}
; 440  : 	}

  00060	c3		 ret	 0
$L227217:
?Empty@?$CSimpleStringT@D$0A@@ATL@@QAEXXZ ENDP		; ATL::CSimpleStringT<char,0>::Empty
_TEXT	ENDS
PUBLIC	?PrepareWrite2@?$CSimpleStringT@D$0A@@ATL@@AAEXH@Z ; ATL::CSimpleStringT<char,0>::PrepareWrite2
; Function compile flags: /Ogty
;	COMDAT ?PrepareWrite2@?$CSimpleStringT@D$0A@@ATL@@AAEXH@Z
_TEXT	SEGMENT
_nLength$ = 8						; size = 4
?PrepareWrite2@?$CSimpleStringT@D$0A@@ATL@@AAEXH@Z PROC NEAR ; ATL::CSimpleStringT<char,0>::PrepareWrite2, COMDAT
; _this$ = ecx

; 747  : 		CStringData* pOldData = GetData();

  00000	8b 01		 mov	 eax, DWORD PTR [ecx]

; 748  : 		if( pOldData->nDataLength > nLength )

  00002	8b 54 24 04	 mov	 edx, DWORD PTR _nLength$[esp-4]
  00006	83 e8 10	 sub	 eax, 16			; 00000010H
  00009	56		 push	 esi
  0000a	8b 70 04	 mov	 esi, DWORD PTR [eax+4]
  0000d	3b f2		 cmp	 esi, edx
  0000f	7e 02		 jle	 SHORT $L221345

; 749  : 		{
; 750  : 			nLength = pOldData->nDataLength;

  00011	8b d6		 mov	 edx, esi
$L221345:

; 751  : 		}
; 752  : 		if( pOldData->IsShared() )

  00013	83 78 0c 01	 cmp	 DWORD PTR [eax+12], 1
  00017	5e		 pop	 esi
  00018	7e 09		 jle	 SHORT $L221346

; 753  : 		{
; 754  : 			Fork( nLength );

  0001a	89 54 24 04	 mov	 DWORD PTR _nLength$[esp-4], edx
  0001e	e9 00 00 00 00	 jmp	 ?Fork@?$CSimpleStringT@D$0A@@ATL@@AAEXH@Z ; ATL::CSimpleStringT<char,0>::Fork
$L221346:

; 755  : 		}
; 756  : 		else if( pOldData->nAllocLength < nLength )

  00023	8b 40 08	 mov	 eax, DWORD PTR [eax+8]
  00026	3b c2		 cmp	 eax, edx
  00028	7d 1f		 jge	 SHORT $L221348

; 757  : 		{
; 758  : 			// Grow exponentially, until we hit 1K.
; 759  : 			int nNewLength = pOldData->nAllocLength;
; 760  : 			if( nNewLength > 1024 )

  0002a	3d 00 04 00 00	 cmp	 eax, 1024		; 00000400H
  0002f	7e 07		 jle	 SHORT $L221350

; 761  : 			{
; 762  : 				nNewLength += 1024;

  00031	05 00 04 00 00	 add	 eax, 1024		; 00000400H

; 763  : 			}
; 764  : 			else

  00036	eb 02		 jmp	 SHORT $L221351
$L221350:

; 765  : 			{
; 766  : 				nNewLength *= 2;

  00038	03 c0		 add	 eax, eax
$L221351:

; 767  : 			}
; 768  : 			if( nNewLength < nLength )

  0003a	3b c2		 cmp	 eax, edx
  0003c	7d 02		 jge	 SHORT $L221352

; 769  : 			{
; 770  : 				nNewLength = nLength;

  0003e	8b c2		 mov	 eax, edx
$L221352:

; 771  : 			}
; 772  : 			Reallocate( nNewLength );

  00040	89 44 24 04	 mov	 DWORD PTR _nLength$[esp-4], eax
  00044	e9 00 00 00 00	 jmp	 ?Reallocate@?$CSimpleStringT@D$0A@@ATL@@AAEXH@Z ; ATL::CSimpleStringT<char,0>::Reallocate
$L221348:

; 773  : 		}
; 774  : 	}

  00049	c2 04 00	 ret	 4
?PrepareWrite2@?$CSimpleStringT@D$0A@@ATL@@AAEXH@Z ENDP	; ATL::CSimpleStringT<char,0>::PrepareWrite2
_TEXT	ENDS
PUBLIC	?CloneData@?$CSimpleStringT@D$0A@@ATL@@CAPAUCStringData@2@PAU32@@Z ; ATL::CSimpleStringT<char,0>::CloneData
; Function compile flags: /Ogty
;	COMDAT ?CloneData@?$CSimpleStringT@D$0A@@ATL@@CAPAUCStringData@2@PAU32@@Z
_TEXT	SEGMENT
_pData$ = 8						; size = 4
?CloneData@?$CSimpleStringT@D$0A@@ATL@@CAPAUCStringData@2@PAU32@@Z PROC NEAR ; ATL::CSimpleStringT<char,0>::CloneData, COMDAT

; 801  : 	{

  00000	56		 push	 esi

; 802  : 		CStringData* pNewData = NULL;
; 803  : 
; 804  : 		IAtlStringMgr* pNewStringMgr = pData->pStringMgr->Clone();

  00001	8b 74 24 08	 mov	 esi, DWORD PTR _pData$[esp]
  00005	8b 0e		 mov	 ecx, DWORD PTR [esi]
  00007	8b 01		 mov	 eax, DWORD PTR [ecx]
  00009	ff 50 10	 call	 DWORD PTR [eax+16]

; 805  : 		if( !pData->IsLocked() && (pNewStringMgr == pData->pStringMgr) )

  0000c	8b 56 0c	 mov	 edx, DWORD PTR [esi+12]
  0000f	85 d2		 test	 edx, edx
  00011	8d 4e 0c	 lea	 ecx, DWORD PTR [esi+12]
  00014	7c 11		 jl	 SHORT $L221356
  00016	3b 06		 cmp	 eax, DWORD PTR [esi]
  00018	75 0d		 jne	 SHORT $L221356

; 806  : 		{
; 807  : 			pNewData = pData;

  0001a	8b c6		 mov	 eax, esi

; 808  : 			pNewData->AddRef();

  0001c	ba 01 00 00 00	 mov	 edx, 1
  00021	f0 0f c1 11	 lock	  xadd	 DWORD PTR [ecx], edx
  00025	5e		 pop	 esi

; 819  : 		}
; 820  : 
; 821  : 		return( pNewData );
; 822  : 	}

  00026	c3		 ret	 0
$L221356:

; 809  : 		}
; 810  : 		else
; 811  : 		{
; 812  : 			pNewData = pNewStringMgr->Allocate( pData->nDataLength, sizeof( XCHAR ) );

  00027	8b 4e 04	 mov	 ecx, DWORD PTR [esi+4]
  0002a	8b 10		 mov	 edx, DWORD PTR [eax]
  0002c	6a 01		 push	 1
  0002e	51		 push	 ecx
  0002f	8b c8		 mov	 ecx, eax
  00031	ff 12		 call	 DWORD PTR [edx]

; 813  : 			if( pNewData == NULL )

  00033	85 c0		 test	 eax, eax
  00035	75 05		 jne	 SHORT $L221359

; 814  : 			{
; 815  : 				ThrowMemoryException();

  00037	e9 00 00 00 00	 jmp	 ?ThrowMemoryException@?$CSimpleStringT@D$0A@@ATL@@KAXXZ ; ATL::CSimpleStringT<char,0>::ThrowMemoryException
$L221359:

; 816  : 			}
; 817  : 			pNewData->nDataLength = pData->nDataLength;

  0003c	8b 56 04	 mov	 edx, DWORD PTR [esi+4]
  0003f	89 50 04	 mov	 DWORD PTR [eax+4], edx

; 818  : 			CopyChars( PXSTR( pNewData->data() ), PCXSTR( pData->data() ), pData->nDataLength+1 );  // Copy '\0'

  00042	8b 4e 04	 mov	 ecx, DWORD PTR [esi+4]
  00045	41		 inc	 ecx
  00046	8b d1		 mov	 edx, ecx
  00048	57		 push	 edi
  00049	c1 e9 02	 shr	 ecx, 2
  0004c	83 c6 10	 add	 esi, 16			; 00000010H
  0004f	8d 78 10	 lea	 edi, DWORD PTR [eax+16]
  00052	f3 a5		 rep movsd
  00054	8b ca		 mov	 ecx, edx
  00056	83 e1 03	 and	 ecx, 3
  00059	f3 a4		 rep movsb
  0005b	5f		 pop	 edi
  0005c	5e		 pop	 esi

; 819  : 		}
; 820  : 
; 821  : 		return( pNewData );
; 822  : 	}

  0005d	c3		 ret	 0
?CloneData@?$CSimpleStringT@D$0A@@ATL@@CAPAUCStringData@2@PAU32@@Z ENDP ; ATL::CSimpleStringT<char,0>::CloneData
_TEXT	ENDS
PUBLIC	??1?$CStringT@DV?$StrTraitMFC@DV?$ChTraitsCRT@D@ATL@@@@@ATL@@QAE@XZ ; ATL::CStringT<char,StrTraitMFC<char,ATL::ChTraitsCRT<char> > >::~CStringT<char,StrTraitMFC<char,ATL::ChTraitsCRT<char> > >
; Function compile flags: /Ogty
; File c:\program files\microsoft visual studio .net 2003\vc7\atlmfc\include\cstringt.h
;	COMDAT ??1?$CStringT@DV?$StrTraitMFC@DV?$ChTraitsCRT@D@ATL@@@@@ATL@@QAE@XZ
_TEXT	SEGMENT
??1?$CStringT@DV?$StrTraitMFC@DV?$ChTraitsCRT@D@ATL@@@@@ATL@@QAE@XZ PROC NEAR ; ATL::CStringT<char,StrTraitMFC<char,ATL::ChTraitsCRT<char> > >::~CStringT<char,StrTraitMFC<char,ATL::ChTraitsCRT<char> > >, COMDAT
; _this$ = ecx

; 963  : 	}

  00000	8b 01		 mov	 eax, DWORD PTR [ecx]
  00002	83 e8 10	 sub	 eax, 16			; 00000010H
  00005	8d 48 0c	 lea	 ecx, DWORD PTR [eax+12]
  00008	83 ca ff	 or	 edx, -1
  0000b	f0 0f c1 11	 lock	  xadd	 DWORD PTR [ecx], edx
  0000f	4a		 dec	 edx
  00010	85 d2		 test	 edx, edx
  00012	7f 08		 jg	 SHORT $L227266
  00014	8b 08		 mov	 ecx, DWORD PTR [eax]
  00016	8b 11		 mov	 edx, DWORD PTR [ecx]
  00018	50		 push	 eax
  00019	ff 52 04	 call	 DWORD PTR [edx+4]
$L227266:
  0001c	c3		 ret	 0
??1?$CStringT@DV?$StrTraitMFC@DV?$ChTraitsCRT@D@ATL@@@@@ATL@@QAE@XZ ENDP ; ATL::CStringT<char,StrTraitMFC<char,ATL::ChTraitsCRT<char> > >::~CStringT<char,StrTraitMFC<char,ATL::ChTraitsCRT<char> > >
_TEXT	ENDS
PUBLIC	??0?$CSimpleStringT@D$0A@@ATL@@QAE@ABV01@@Z	; ATL::CSimpleStringT<char,0>::CSimpleStringT<char,0>
; Function compile flags: /Ogty
; File c:\program files\microsoft visual studio .net 2003\vc7\atlmfc\include\atlsimpstr.h
;	COMDAT ??0?$CSimpleStringT@D$0A@@ATL@@QAE@ABV01@@Z
_TEXT	SEGMENT
_strSrc$ = 8						; size = 4
??0?$CSimpleStringT@D$0A@@ATL@@QAE@ABV01@@Z PROC NEAR	; ATL::CSimpleStringT<char,0>::CSimpleStringT<char,0>, COMDAT
; _this$ = ecx

; 218  : 	{
; 219  : 		CStringData* pSrcData = strSrc.GetData();

  00000	8b 44 24 04	 mov	 eax, DWORD PTR _strSrc$[esp-4]
  00004	8b 00		 mov	 eax, DWORD PTR [eax]
  00006	56		 push	 esi
  00007	83 e8 10	 sub	 eax, 16			; 00000010H

; 220  : 		CStringData* pNewData = CloneData( pSrcData );

  0000a	50		 push	 eax
  0000b	8b f1		 mov	 esi, ecx
  0000d	e8 00 00 00 00	 call	 ?CloneData@?$CSimpleStringT@D$0A@@ATL@@CAPAUCStringData@2@PAU32@@Z ; ATL::CSimpleStringT<char,0>::CloneData

; 221  : 		Attach( pNewData );

  00012	83 c0 10	 add	 eax, 16			; 00000010H
  00015	89 06		 mov	 DWORD PTR [esi], eax
  00017	83 c4 04	 add	 esp, 4

; 222  : 	}

  0001a	8b c6		 mov	 eax, esi
  0001c	5e		 pop	 esi
  0001d	c2 04 00	 ret	 4
??0?$CSimpleStringT@D$0A@@ATL@@QAE@ABV01@@Z ENDP	; ATL::CSimpleStringT<char,0>::CSimpleStringT<char,0>
_TEXT	ENDS
PUBLIC	?PrepareWrite@?$CSimpleStringT@D$0A@@ATL@@AAEPADH@Z ; ATL::CSimpleStringT<char,0>::PrepareWrite
; Function compile flags: /Ogty
;	COMDAT ?PrepareWrite@?$CSimpleStringT@D$0A@@ATL@@AAEPADH@Z
_TEXT	SEGMENT
_nLength$ = 8						; size = 4
?PrepareWrite@?$CSimpleStringT@D$0A@@ATL@@AAEPADH@Z PROC NEAR ; ATL::CSimpleStringT<char,0>::PrepareWrite, COMDAT
; _this$ = ecx

; 734  : 	{

  00000	56		 push	 esi
  00001	8b f1		 mov	 esi, ecx

; 735  : 		CStringData* pOldData = GetData();

  00003	8b 06		 mov	 eax, DWORD PTR [esi]

; 736  : 		int nShared = 1-pOldData->nRefs;  // nShared < 0 means true, >= 0 means false

  00005	8b 50 fc	 mov	 edx, DWORD PTR [eax-4]
  00008	83 e8 10	 sub	 eax, 16			; 00000010H
  0000b	b9 01 00 00 00	 mov	 ecx, 1
  00010	2b ca		 sub	 ecx, edx

; 737  : 		int nTooShort = pOldData->nAllocLength-nLength;  // nTooShort < 0 means true, >= 0 means false

  00012	8b 50 08	 mov	 edx, DWORD PTR [eax+8]
  00015	8b 44 24 08	 mov	 eax, DWORD PTR _nLength$[esp]
  00019	2b d0		 sub	 edx, eax

; 738  : 		if( (nShared|nTooShort) < 0 )  // If either sign bit is set (i.e. either is less than zero), we need to copy data

  0001b	0b ca		 or	 ecx, edx
  0001d	7d 08		 jge	 SHORT $L227287

; 739  : 		{
; 740  : 			PrepareWrite2( nLength );

  0001f	50		 push	 eax
  00020	8b ce		 mov	 ecx, esi
  00022	e8 00 00 00 00	 call	 ?PrepareWrite2@?$CSimpleStringT@D$0A@@ATL@@AAEXH@Z ; ATL::CSimpleStringT<char,0>::PrepareWrite2
$L227287:

; 741  : 		}
; 742  : 
; 743  : 		return( m_pszData );

  00027	8b 06		 mov	 eax, DWORD PTR [esi]
  00029	5e		 pop	 esi

; 744  : 	}

  0002a	c2 04 00	 ret	 4
?PrepareWrite@?$CSimpleStringT@D$0A@@ATL@@AAEPADH@Z ENDP ; ATL::CSimpleStringT<char,0>::PrepareWrite
_TEXT	ENDS
PUBLIC	??0?$CStringT@DV?$StrTraitMFC@DV?$ChTraitsCRT@D@ATL@@@@@ATL@@QAE@ABV01@@Z ; ATL::CStringT<char,StrTraitMFC<char,ATL::ChTraitsCRT<char> > >::CStringT<char,StrTraitMFC<char,ATL::ChTraitsCRT<char> > >
; Function compile flags: /Ogty
; File c:\program files\microsoft visual studio .net 2003\vc7\atlmfc\include\cstringt.h
;	COMDAT ??0?$CStringT@DV?$StrTraitMFC@DV?$ChTraitsCRT@D@ATL@@@@@ATL@@QAE@ABV01@@Z
_TEXT	SEGMENT
_strSrc$ = 8						; size = 4
??0?$CStringT@DV?$StrTraitMFC@DV?$ChTraitsCRT@D@ATL@@@@@ATL@@QAE@ABV01@@Z PROC NEAR ; ATL::CStringT<char,StrTraitMFC<char,ATL::ChTraitsCRT<char> > >::CStringT<char,StrTraitMFC<char,ATL::ChTraitsCRT<char> > >, COMDAT
; _this$ = ecx

; 814  : 	{

  00000	8b 44 24 04	 mov	 eax, DWORD PTR _strSrc$[esp-4]
  00004	8b 00		 mov	 eax, DWORD PTR [eax]
  00006	56		 push	 esi
  00007	83 e8 10	 sub	 eax, 16			; 00000010H
  0000a	50		 push	 eax
  0000b	8b f1		 mov	 esi, ecx
  0000d	e8 00 00 00 00	 call	 ?CloneData@?$CSimpleStringT@D$0A@@ATL@@CAPAUCStringData@2@PAU32@@Z ; ATL::CSimpleStringT<char,0>::CloneData
  00012	83 c0 10	 add	 eax, 16			; 00000010H
  00015	89 06		 mov	 DWORD PTR [esi], eax
  00017	83 c4 04	 add	 esp, 4

; 815  : 	}

  0001a	8b c6		 mov	 eax, esi
  0001c	5e		 pop	 esi
  0001d	c2 04 00	 ret	 4
??0?$CStringT@DV?$StrTraitMFC@DV?$ChTraitsCRT@D@ATL@@@@@ATL@@QAE@ABV01@@Z ENDP ; ATL::CStringT<char,StrTraitMFC<char,ATL::ChTraitsCRT<char> > >::CStringT<char,StrTraitMFC<char,ATL::ChTraitsCRT<char> > >
_TEXT	ENDS
PUBLIC	?GetBuffer@?$CSimpleStringT@D$0A@@ATL@@QAEPADH@Z ; ATL::CSimpleStringT<char,0>::GetBuffer
; Function compile flags: /Ogty
; File c:\program files\microsoft visual studio .net 2003\vc7\atlmfc\include\atlsimpstr.h
;	COMDAT ?GetBuffer@?$CSimpleStringT@D$0A@@ATL@@QAEPADH@Z
_TEXT	SEGMENT
_nMinBufferLength$ = 8					; size = 4
?GetBuffer@?$CSimpleStringT@D$0A@@ATL@@QAEPADH@Z PROC NEAR ; ATL::CSimpleStringT<char,0>::GetBuffer, COMDAT
; _this$ = ecx

; 489  : 	{

  00000	56		 push	 esi
  00001	8b f1		 mov	 esi, ecx

; 490  : 		return( PrepareWrite( nMinBufferLength ) );

  00003	8b 06		 mov	 eax, DWORD PTR [esi]
  00005	8b 50 fc	 mov	 edx, DWORD PTR [eax-4]
  00008	83 e8 10	 sub	 eax, 16			; 00000010H
  0000b	b9 01 00 00 00	 mov	 ecx, 1
  00010	2b ca		 sub	 ecx, edx
  00012	8b 50 08	 mov	 edx, DWORD PTR [eax+8]
  00015	8b 44 24 08	 mov	 eax, DWORD PTR _nMinBufferLength$[esp]
  00019	2b d0		 sub	 edx, eax
  0001b	0b ca		 or	 ecx, edx
  0001d	7d 08		 jge	 SHORT $L227330
  0001f	50		 push	 eax
  00020	8b ce		 mov	 ecx, esi
  00022	e8 00 00 00 00	 call	 ?PrepareWrite2@?$CSimpleStringT@D$0A@@ATL@@AAEXH@Z ; ATL::CSimpleStringT<char,0>::PrepareWrite2
$L227330:
  00027	8b 06		 mov	 eax, DWORD PTR [esi]
  00029	5e		 pop	 esi

; 491  : 	}

  0002a	c2 04 00	 ret	 4
?GetBuffer@?$CSimpleStringT@D$0A@@ATL@@QAEPADH@Z ENDP	; ATL::CSimpleStringT<char,0>::GetBuffer
_TEXT	ENDS
PUBLIC	?LoadStringA@?$CStringT@DV?$StrTraitMFC@DV?$ChTraitsCRT@D@ATL@@@@@ATL@@QAEHPAUHINSTANCE__@@I@Z ; ATL::CStringT<char,StrTraitMFC<char,ATL::ChTraitsCRT<char> > >::LoadStringA
; Function compile flags: /Ogty
; File c:\program files\microsoft visual studio .net 2003\vc7\atlmfc\include\cstringt.h
;	COMDAT ?LoadStringA@?$CStringT@DV?$StrTraitMFC@DV?$ChTraitsCRT@D@ATL@@@@@ATL@@QAEHPAUHINSTANCE__@@I@Z
_TEXT	SEGMENT
_hInstance$ = 8						; size = 4
_nID$ = 12						; size = 4
?LoadStringA@?$CStringT@DV?$StrTraitMFC@DV?$ChTraitsCRT@D@ATL@@@@@ATL@@QAEHPAUHINSTANCE__@@I@Z PROC NEAR ; ATL::CStringT<char,StrTraitMFC<char,ATL::ChTraitsCRT<char> > >::LoadStringA, COMDAT
; _this$ = ecx

; 1981 : 	{

  00000	53		 push	 ebx
  00001	56		 push	 esi

; 1982 : 		const ATLSTRINGRESOURCEIMAGE* pImage = AtlGetStringResourceImage( hInstance, nID );

  00002	8b 74 24 10	 mov	 esi, DWORD PTR _nID$[esp+4]
  00006	8b c6		 mov	 eax, esi
  00008	c1 e8 04	 shr	 eax, 4
  0000b	57		 push	 edi
  0000c	8b 7c 24 10	 mov	 edi, DWORD PTR _hInstance$[esp+8]
  00010	40		 inc	 eax
  00011	8b d9		 mov	 ebx, ecx
  00013	0f b7 c8	 movzx	 ecx, ax
  00016	6a 06		 push	 6
  00018	51		 push	 ecx
  00019	57		 push	 edi
  0001a	ff 15 00 00 00
	00		 call	 DWORD PTR __imp__FindResourceA@12
  00020	85 c0		 test	 eax, eax
  00022	74 11		 je	 SHORT $L227410
  00024	56		 push	 esi
  00025	50		 push	 eax
  00026	57		 push	 edi
  00027	e8 00 00 00 00	 call	 ?_AtlGetStringResourceImage@ATL@@YAPBUATLSTRINGRESOURCEIMAGE@1@PAUHINSTANCE__@@PAUHRSRC__@@I@Z ; ATL::_AtlGetStringResourceImage
  0002c	8b f8		 mov	 edi, eax
  0002e	83 c4 0c	 add	 esp, 12			; 0000000cH

; 1983 : 		if( pImage == NULL )

  00031	85 ff		 test	 edi, edi
  00033	75 08		 jne	 SHORT $L219928
$L227410:
  00035	5f		 pop	 edi
  00036	5e		 pop	 esi

; 1984 : 		{
; 1985 : 			return( FALSE );

  00037	33 c0		 xor	 eax, eax
  00039	5b		 pop	 ebx

; 1994 : 	}

  0003a	c2 08 00	 ret	 8
$L219928:

; 1986 : 		}
; 1987 : 
; 1988 : 		int nLength = StringTraits::GetBaseTypeLength( pImage->achString, pImage->nLength );

  0003d	0f b7 37	 movzx	 esi, WORD PTR [edi]
  00040	55		 push	 ebp
  00041	ff 15 00 00 00
	00		 call	 DWORD PTR ?g_pfnGetThreadACP@ATL@@3P6GIXZA ; ATL::g_pfnGetThreadACP
  00047	6a 00		 push	 0
  00049	6a 00		 push	 0
  0004b	6a 00		 push	 0
  0004d	6a 00		 push	 0
  0004f	56		 push	 esi
  00050	8d 6f 02	 lea	 ebp, DWORD PTR [edi+2]
  00053	55		 push	 ebp
  00054	6a 00		 push	 0
  00056	50		 push	 eax
  00057	ff 15 00 00 00
	00		 call	 DWORD PTR __imp__WideCharToMultiByte@32
  0005d	8b f0		 mov	 esi, eax

; 1989 : 		PXSTR pszBuffer = GetBuffer( nLength );

  0005f	8b 03		 mov	 eax, DWORD PTR [ebx]
  00061	8b 48 fc	 mov	 ecx, DWORD PTR [eax-4]
  00064	83 e8 10	 sub	 eax, 16			; 00000010H
  00067	8b 40 08	 mov	 eax, DWORD PTR [eax+8]
  0006a	ba 01 00 00 00	 mov	 edx, 1
  0006f	2b d1		 sub	 edx, ecx
  00071	2b c6		 sub	 eax, esi
  00073	0b d0		 or	 edx, eax
  00075	7d 08		 jge	 SHORT $L227371
  00077	56		 push	 esi
  00078	8b cb		 mov	 ecx, ebx
  0007a	e8 00 00 00 00	 call	 ?PrepareWrite2@?$CSimpleStringT@D$0A@@ATL@@AAEXH@Z ; ATL::CSimpleStringT<char,0>::PrepareWrite2
$L227371:
  0007f	8b 03		 mov	 eax, DWORD PTR [ebx]

; 1990 : 		StringTraits::ConvertToBaseType( pszBuffer, nLength, pImage->achString, pImage->nLength );

  00081	0f b7 0f	 movzx	 ecx, WORD PTR [edi]
  00084	6a 00		 push	 0
  00086	6a 00		 push	 0
  00088	56		 push	 esi
  00089	50		 push	 eax
  0008a	51		 push	 ecx
  0008b	55		 push	 ebp
  0008c	6a 00		 push	 0
  0008e	ff 15 00 00 00
	00		 call	 DWORD PTR ?g_pfnGetThreadACP@ATL@@3P6GIXZA ; ATL::g_pfnGetThreadACP
  00094	50		 push	 eax
  00095	ff 15 00 00 00
	00		 call	 DWORD PTR __imp__WideCharToMultiByte@32

; 1991 : 		ReleaseBufferSetLength( nLength );

  0009b	85 f6		 test	 esi, esi
  0009d	5d		 pop	 ebp
  0009e	7c 1b		 jl	 SHORT $L227407
  000a0	8b 03		 mov	 eax, DWORD PTR [ebx]
  000a2	3b 70 f8	 cmp	 esi, DWORD PTR [eax-8]
  000a5	7f 14		 jg	 SHORT $L227407
  000a7	89 70 f4	 mov	 DWORD PTR [eax-12], esi
  000aa	8b 0b		 mov	 ecx, DWORD PTR [ebx]
  000ac	5f		 pop	 edi
  000ad	c6 04 0e 00	 mov	 BYTE PTR [esi+ecx], 0
  000b1	5e		 pop	 esi

; 1992 : 
; 1993 : 		return( TRUE );

  000b2	b8 01 00 00 00	 mov	 eax, 1
  000b7	5b		 pop	 ebx

; 1994 : 	}

  000b8	c2 08 00	 ret	 8
$L227407:
  000bb	68 57 00 07 80	 push	 -2147024809		; 80070057H
  000c0	e8 00 00 00 00	 call	 ?AtlThrow@ATL@@YGXJ@Z	; ATL::AtlThrow
$L227412:
$L227411:
  000c5	cc		 int	 3
?LoadStringA@?$CStringT@DV?$StrTraitMFC@DV?$ChTraitsCRT@D@ATL@@@@@ATL@@QAEHPAUHINSTANCE__@@I@Z ENDP ; ATL::CStringT<char,StrTraitMFC<char,ATL::ChTraitsCRT<char> > >::LoadStringA
_TEXT	ENDS
PUBLIC	?SetString@?$CSimpleStringT@D$0A@@ATL@@QAEXPBDH@Z ; ATL::CSimpleStringT<char,0>::SetString
; Function compile flags: /Ogty
; File c:\program files\microsoft visual studio .net 2003\vc7\atlmfc\include\atlsimpstr.h
;	COMDAT ?SetString@?$CSimpleStringT@D$0A@@ATL@@QAEXPBDH@Z
_TEXT	SEGMENT
_pszSrc$ = 8						; size = 4
_nLength$ = 12						; size = 4
?SetString@?$CSimpleStringT@D$0A@@ATL@@QAEXPBDH@Z PROC NEAR ; ATL::CSimpleStringT<char,0>::SetString, COMDAT
; _this$ = ecx

; 583  : 	{

  00000	53		 push	 ebx

; 584  : 		if( nLength == 0 )

  00001	8b 5c 24 0c	 mov	 ebx, DWORD PTR _nLength$[esp]
  00005	85 db		 test	 ebx, ebx
  00007	55		 push	 ebp
  00008	8b e9		 mov	 ebp, ecx
  0000a	75 0a		 jne	 SHORT $L221330

; 585  : 		{
; 586  : 			Empty();

  0000c	e8 00 00 00 00	 call	 ?Empty@?$CSimpleStringT@D$0A@@ATL@@QAEXXZ ; ATL::CSimpleStringT<char,0>::Empty
  00011	5d		 pop	 ebp
  00012	5b		 pop	 ebx

; 614  : 		}
; 615  : 	}

  00013	c2 08 00	 ret	 8
$L221330:

; 587  : 		}
; 588  : 		else
; 589  : 		{
; 590  : 			// It is possible that pszSrc points to a location inside of our 
; 591  : 			// buffer.  GetBuffer() might change m_pszData if (1) the buffer 
; 592  : 			// is shared or (2) the buffer is too small to hold the new 
; 593  : 			// string.  We detect this aliasing, and modify pszSrc to point
; 594  : 			// into the newly allocated buffer instead.
; 595  : 			
; 596  : 			if(pszSrc == NULL)

  00016	8b 54 24 0c	 mov	 edx, DWORD PTR _pszSrc$[esp+4]
  0001a	85 d2		 test	 edx, edx
  0001c	75 0a		 jne	 SHORT $L221332

; 612  : 			}
; 613  : 			ReleaseBufferSetLength( nLength );

$L227484:
  0001e	68 57 00 07 80	 push	 -2147024809		; 80070057H
  00023	e8 00 00 00 00	 call	 ?AtlThrow@ATL@@YGXJ@Z	; ATL::AtlThrow
$L227488:
$L221332:

; 597  : 				AtlThrow(E_INVALIDARG);			
; 598  : 				
; 599  : 			UINT nOldLength = GetLength();

  00028	8b 45 00	 mov	 eax, DWORD PTR [ebp]
  0002b	56		 push	 esi

; 600  : 			UINT_PTR nOffset = pszSrc-GetString();

  0002c	8b f2		 mov	 esi, edx
  0002e	2b f0		 sub	 esi, eax

; 601  : 			// If 0 <= nOffset <= nOldLength, then pszSrc points into our 
; 602  : 			// buffer
; 603  : 
; 604  : 			PXSTR pszBuffer = GetBuffer( nLength );

  00030	b9 01 00 00 00	 mov	 ecx, 1
  00035	2b 48 fc	 sub	 ecx, DWORD PTR [eax-4]
  00038	57		 push	 edi
  00039	8b 78 f4	 mov	 edi, DWORD PTR [eax-12]
  0003c	8b 40 f8	 mov	 eax, DWORD PTR [eax-8]
  0003f	2b c3		 sub	 eax, ebx
  00041	0b c8		 or	 ecx, eax
  00043	7d 0c		 jge	 SHORT $L227451
  00045	53		 push	 ebx
  00046	8b cd		 mov	 ecx, ebp
  00048	e8 00 00 00 00	 call	 ?PrepareWrite2@?$CSimpleStringT@D$0A@@ATL@@AAEXH@Z ; ATL::CSimpleStringT<char,0>::PrepareWrite2
  0004d	8b 54 24 14	 mov	 edx, DWORD PTR _pszSrc$[esp+12]
$L227451:

; 605  : 			if( nOffset <= nOldLength )

  00051	3b f7		 cmp	 esi, edi
  00053	8b 45 00	 mov	 eax, DWORD PTR [ebp]
  00056	77 10		 ja	 SHORT $L221337

; 606  : 			{
; 607  : 				CopyCharsOverlapped( pszBuffer, pszBuffer+nOffset, nLength );

  00058	53		 push	 ebx
  00059	8d 0c 30	 lea	 ecx, DWORD PTR [eax+esi]
  0005c	51		 push	 ecx
  0005d	50		 push	 eax
  0005e	e8 00 00 00 00	 call	 _memmove
  00063	83 c4 0c	 add	 esp, 12			; 0000000cH

; 608  : 			}
; 609  : 			else

  00066	eb 14		 jmp	 SHORT $L227458
$L221337:

; 610  : 			{
; 611  : 				CopyChars( pszBuffer, pszSrc, nLength );

  00068	8b cb		 mov	 ecx, ebx
  0006a	8b f2		 mov	 esi, edx
  0006c	8b d1		 mov	 edx, ecx
  0006e	c1 e9 02	 shr	 ecx, 2
  00071	8b f8		 mov	 edi, eax
  00073	f3 a5		 rep movsd
  00075	8b ca		 mov	 ecx, edx
  00077	83 e1 03	 and	 ecx, 3
  0007a	f3 a4		 rep movsb
$L227458:

; 612  : 			}
; 613  : 			ReleaseBufferSetLength( nLength );

  0007c	85 db		 test	 ebx, ebx
  0007e	5f		 pop	 edi
  0007f	5e		 pop	 esi
  00080	7c 9c		 jl	 SHORT $L227484
  00082	8b 45 00	 mov	 eax, DWORD PTR [ebp]
  00085	3b 58 f8	 cmp	 ebx, DWORD PTR [eax-8]
  00088	7f 94		 jg	 SHORT $L227484
  0008a	89 58 f4	 mov	 DWORD PTR [eax-12], ebx
  0008d	8b 45 00	 mov	 eax, DWORD PTR [ebp]
  00090	5d		 pop	 ebp
  00091	c6 04 03 00	 mov	 BYTE PTR [ebx+eax], 0
  00095	5b		 pop	 ebx

; 614  : 		}
; 615  : 	}

  00096	c2 08 00	 ret	 8
$L227487:
?SetString@?$CSimpleStringT@D$0A@@ATL@@QAEXPBDH@Z ENDP	; ATL::CSimpleStringT<char,0>::SetString
_TEXT	ENDS
PUBLIC	?Append@?$CSimpleStringT@D$0A@@ATL@@QAEXPBDH@Z	; ATL::CSimpleStringT<char,0>::Append
; Function compile flags: /Ogty
;	COMDAT ?Append@?$CSimpleStringT@D$0A@@ATL@@QAEXPBDH@Z
_TEXT	SEGMENT
_nOldLength$ = -4					; size = 4
_pszSrc$ = 8						; size = 4
_nLength$ = 12						; size = 4
?Append@?$CSimpleStringT@D$0A@@ATL@@QAEXPBDH@Z PROC NEAR ; ATL::CSimpleStringT<char,0>::Append, COMDAT
; _this$ = ecx

; 387  : 	{

  00000	51		 push	 ecx
  00001	53		 push	 ebx
  00002	55		 push	 ebp
  00003	8b e9		 mov	 ebp, ecx

; 388  : 		// See comment in SetString() about why we do this
; 389  : 		UINT_PTR nOffset = pszSrc-GetString();

  00005	8b 45 00	 mov	 eax, DWORD PTR [ebp]

; 390  : 
; 391  : 		UINT nOldLength = GetLength();
; 392  : 		int nNewLength = nOldLength+nLength;

  00008	8b 4c 24 14	 mov	 ecx, DWORD PTR _nLength$[esp+8]
  0000c	56		 push	 esi
  0000d	8b 70 f4	 mov	 esi, DWORD PTR [eax-12]
  00010	57		 push	 edi
  00011	8b 7c 24 18	 mov	 edi, DWORD PTR _pszSrc$[esp+16]
  00015	2b f8		 sub	 edi, eax
  00017	8d 1c 0e	 lea	 ebx, DWORD PTR [esi+ecx]

; 393  : 		PXSTR pszBuffer = GetBuffer( nNewLength );

  0001a	8b 48 fc	 mov	 ecx, DWORD PTR [eax-4]
  0001d	8b 40 f8	 mov	 eax, DWORD PTR [eax-8]
  00020	ba 01 00 00 00	 mov	 edx, 1
  00025	2b d1		 sub	 edx, ecx
  00027	2b c3		 sub	 eax, ebx
  00029	0b d0		 or	 edx, eax
  0002b	89 74 24 10	 mov	 DWORD PTR _nOldLength$[esp+20], esi
  0002f	7d 08		 jge	 SHORT $L227527
  00031	53		 push	 ebx
  00032	8b cd		 mov	 ecx, ebp
  00034	e8 00 00 00 00	 call	 ?PrepareWrite2@?$CSimpleStringT@D$0A@@ATL@@AAEXH@Z ; ATL::CSimpleStringT<char,0>::PrepareWrite2
$L227527:

; 394  : 		if( nOffset <= nOldLength )

  00039	3b fe		 cmp	 edi, esi
  0003b	8b 45 00	 mov	 eax, DWORD PTR [ebp]
  0003e	77 07		 ja	 SHORT $L225893

; 395  : 		{
; 396  : 			pszSrc = pszBuffer+nOffset;

  00040	8d 0c 38	 lea	 ecx, DWORD PTR [eax+edi]
  00043	89 4c 24 18	 mov	 DWORD PTR _pszSrc$[esp+16], ecx
$L225893:

; 397  : 			// No need to call CopyCharsOverlapped, since the destination is
; 398  : 			// beyond the end of the original buffer
; 399  : 		}
; 400  : 		CopyChars( pszBuffer+nOldLength, pszSrc, nLength );

  00047	8b 54 24 10	 mov	 edx, DWORD PTR _nOldLength$[esp+20]
  0004b	8b 4c 24 1c	 mov	 ecx, DWORD PTR _nLength$[esp+16]
  0004f	8b 74 24 18	 mov	 esi, DWORD PTR _pszSrc$[esp+16]
  00053	8d 3c 10	 lea	 edi, DWORD PTR [eax+edx]
  00056	8b c1		 mov	 eax, ecx
  00058	c1 e9 02	 shr	 ecx, 2
  0005b	f3 a5		 rep movsd
  0005d	8b c8		 mov	 ecx, eax
  0005f	83 e1 03	 and	 ecx, 3

; 401  : 		ReleaseBufferSetLength( nNewLength );

  00062	85 db		 test	 ebx, ebx
  00064	f3 a4		 rep movsb
  00066	7c 1a		 jl	 SHORT $L227557
  00068	8b 45 00	 mov	 eax, DWORD PTR [ebp]
  0006b	3b 58 f8	 cmp	 ebx, DWORD PTR [eax-8]
  0006e	7f 12		 jg	 SHORT $L227557
  00070	5f		 pop	 edi
  00071	89 58 f4	 mov	 DWORD PTR [eax-12], ebx
  00074	8b 4d 00	 mov	 ecx, DWORD PTR [ebp]
  00077	5e		 pop	 esi
  00078	5d		 pop	 ebp
  00079	c6 04 0b 00	 mov	 BYTE PTR [ebx+ecx], 0
  0007d	5b		 pop	 ebx

; 402  : 	}

  0007e	59		 pop	 ecx
  0007f	c2 08 00	 ret	 8

; 401  : 		ReleaseBufferSetLength( nNewLength );

$L227557:
  00082	68 57 00 07 80	 push	 -2147024809		; 80070057H
  00087	e8 00 00 00 00	 call	 ?AtlThrow@ATL@@YGXJ@Z	; ATL::AtlThrow
$L227561:
$L227560:
  0008c	cc		 int	 3
?Append@?$CSimpleStringT@D$0A@@ATL@@QAEXPBDH@Z ENDP	; ATL::CSimpleStringT<char,0>::Append
_TEXT	ENDS
PUBLIC	?LoadStringA@?$CStringT@DV?$StrTraitMFC@DV?$ChTraitsCRT@D@ATL@@@@@ATL@@QAEHI@Z ; ATL::CStringT<char,StrTraitMFC<char,ATL::ChTraitsCRT<char> > >::LoadStringA
; Function compile flags: /Ogty
; File c:\program files\microsoft visual studio .net 2003\vc7\atlmfc\include\cstringt.h
;	COMDAT ?LoadStringA@?$CStringT@DV?$StrTraitMFC@DV?$ChTraitsCRT@D@ATL@@@@@ATL@@QAEHI@Z
_TEXT	SEGMENT
_nID$ = 8						; size = 4
?LoadStringA@?$CStringT@DV?$StrTraitMFC@DV?$ChTraitsCRT@D@ATL@@@@@ATL@@QAEHI@Z PROC NEAR ; ATL::CStringT<char,StrTraitMFC<char,ATL::ChTraitsCRT<char> > >::LoadStringA, COMDAT
; _this$ = ecx

; 1969 : 	{

  00000	56		 push	 esi
  00001	57		 push	 edi

; 1970 : 		HINSTANCE hInst = StringTraits::FindStringResourceInstance( nID );

  00002	8b 7c 24 0c	 mov	 edi, DWORD PTR _nID$[esp+4]
  00006	57		 push	 edi
  00007	8b f1		 mov	 esi, ecx
  00009	e8 00 00 00 00	 call	 ?AfxFindStringResourceHandle@@YGPAUHINSTANCE__@@I@Z ; AfxFindStringResourceHandle

; 1971 : 		if( hInst == NULL )

  0000e	85 c0		 test	 eax, eax
  00010	75 05		 jne	 SHORT $L218601
  00012	5f		 pop	 edi
  00013	5e		 pop	 esi

; 1977 : 	}

  00014	c2 04 00	 ret	 4
$L218601:

; 1972 : 		{
; 1973 : 			return( FALSE );
; 1974 : 		}
; 1975 : 
; 1976 : 		return( LoadString( hInst, nID ) );		

  00017	57		 push	 edi
  00018	50		 push	 eax
  00019	8b ce		 mov	 ecx, esi
  0001b	e8 00 00 00 00	 call	 ?LoadStringA@?$CStringT@DV?$StrTraitMFC@DV?$ChTraitsCRT@D@ATL@@@@@ATL@@QAEHPAUHINSTANCE__@@I@Z ; ATL::CStringT<char,StrTraitMFC<char,ATL::ChTraitsCRT<char> > >::LoadStringA
  00020	5f		 pop	 edi
  00021	5e		 pop	 esi

; 1977 : 	}

  00022	c2 04 00	 ret	 4
?LoadStringA@?$CStringT@DV?$StrTraitMFC@DV?$ChTraitsCRT@D@ATL@@@@@ATL@@QAEHI@Z ENDP ; ATL::CStringT<char,StrTraitMFC<char,ATL::ChTraitsCRT<char> > >::LoadStringA
_TEXT	ENDS
PUBLIC	?CheckImplicitLoad@?$CStringT@DV?$StrTraitMFC@DV?$ChTraitsCRT@D@ATL@@@@@ATL@@AAE_NPBX@Z ; ATL::CStringT<char,StrTraitMFC<char,ATL::ChTraitsCRT<char> > >::CheckImplicitLoad
; Function compile flags: /Ogty
;	COMDAT ?CheckImplicitLoad@?$CStringT@DV?$StrTraitMFC@DV?$ChTraitsCRT@D@ATL@@@@@ATL@@AAE_NPBX@Z
_TEXT	SEGMENT
_pv$ = 8						; size = 4
?CheckImplicitLoad@?$CStringT@DV?$StrTraitMFC@DV?$ChTraitsCRT@D@ATL@@@@@ATL@@AAE_NPBX@Z PROC NEAR ; ATL::CStringT<char,StrTraitMFC<char,ATL::ChTraitsCRT<char> > >::CheckImplicitLoad, COMDAT
; _this$ = ecx

; 2229 : 	{

  00000	57		 push	 edi
  00001	8b f9		 mov	 edi, ecx

; 2230 : 		bool bRet = false;
; 2231 : 
; 2232 : 		if( (pv != NULL) && IS_INTRESOURCE( pv ) )

  00003	8b 4c 24 08	 mov	 ecx, DWORD PTR _pv$[esp]
  00007	32 c0		 xor	 al, al
  00009	85 c9		 test	 ecx, ecx
  0000b	74 22		 je	 SHORT $L219935
  0000d	f7 c1 00 00 ff
	ff		 test	 ecx, -65536		; ffff0000H
  00013	75 1a		 jne	 SHORT $L219935
  00015	56		 push	 esi

; 2233 : 		{
; 2234 : 			UINT nID = LOWORD( reinterpret_cast< DWORD_PTR >( pv ) );

  00016	0f b7 f1	 movzx	 esi, cx

; 2235 : 			if( !LoadString( nID ) )

  00019	56		 push	 esi
  0001a	e8 00 00 00 00	 call	 ?AfxFindStringResourceHandle@@YGPAUHINSTANCE__@@I@Z ; AfxFindStringResourceHandle
  0001f	85 c0		 test	 eax, eax
  00021	74 09		 je	 SHORT $L227578
  00023	56		 push	 esi
  00024	50		 push	 eax
  00025	8b cf		 mov	 ecx, edi
  00027	e8 00 00 00 00	 call	 ?LoadStringA@?$CStringT@DV?$StrTraitMFC@DV?$ChTraitsCRT@D@ATL@@@@@ATL@@QAEHPAUHINSTANCE__@@I@Z ; ATL::CStringT<char,StrTraitMFC<char,ATL::ChTraitsCRT<char> > >::LoadStringA
$L227578:

; 2236 : 			{
; 2237 : 				ATLTRACE( atlTraceString, 2, _T( "Warning: implicit LoadString(%u) failed\n" ), nID );
; 2238 : 			}
; 2239 : 			bRet = true;

  0002c	b0 01		 mov	 al, 1
  0002e	5e		 pop	 esi
$L219935:
  0002f	5f		 pop	 edi

; 2240 : 		}
; 2241 : 
; 2242 : 		return( bRet );
; 2243 : 	}

  00030	c2 04 00	 ret	 4
?CheckImplicitLoad@?$CStringT@DV?$StrTraitMFC@DV?$ChTraitsCRT@D@ATL@@@@@ATL@@AAE_NPBX@Z ENDP ; ATL::CStringT<char,StrTraitMFC<char,ATL::ChTraitsCRT<char> > >::CheckImplicitLoad
_TEXT	ENDS
PUBLIC	?SetString@?$CSimpleStringT@D$0A@@ATL@@QAEXPBD@Z ; ATL::CSimpleStringT<char,0>::SetString
; Function compile flags: /Ogty
; File c:\program files\microsoft visual studio .net 2003\vc7\atlmfc\include\atlsimpstr.h
;	COMDAT ?SetString@?$CSimpleStringT@D$0A@@ATL@@QAEXPBD@Z
_TEXT	SEGMENT
_pszSrc$ = 8						; size = 4
?SetString@?$CSimpleStringT@D$0A@@ATL@@QAEXPBD@Z PROC NEAR ; ATL::CSimpleStringT<char,0>::SetString, COMDAT
; _this$ = ecx

; 579  : 	{

  00000	56		 push	 esi

; 580  : 		SetString( pszSrc, StringLength( pszSrc ) );

  00001	8b 74 24 08	 mov	 esi, DWORD PTR _pszSrc$[esp]
  00005	85 f6		 test	 esi, esi
  00007	75 0d		 jne	 SHORT $L227590
  00009	33 c0		 xor	 eax, eax
  0000b	50		 push	 eax
  0000c	56		 push	 esi
  0000d	e8 00 00 00 00	 call	 ?SetString@?$CSimpleStringT@D$0A@@ATL@@QAEXPBDH@Z ; ATL::CSimpleStringT<char,0>::SetString
  00012	5e		 pop	 esi

; 581  : 	}

  00013	c2 04 00	 ret	 4

; 580  : 		SetString( pszSrc, StringLength( pszSrc ) );

$L227590:
  00016	8b c6		 mov	 eax, esi
  00018	57		 push	 edi
  00019	8d 78 01	 lea	 edi, DWORD PTR [eax+1]
  0001c	8d 64 24 00	 npad	 4
$L227592:
  00020	8a 10		 mov	 dl, BYTE PTR [eax]
  00022	40		 inc	 eax
  00023	84 d2		 test	 dl, dl
  00025	75 f9		 jne	 SHORT $L227592
  00027	2b c7		 sub	 eax, edi
  00029	5f		 pop	 edi
  0002a	50		 push	 eax
  0002b	56		 push	 esi
  0002c	e8 00 00 00 00	 call	 ?SetString@?$CSimpleStringT@D$0A@@ATL@@QAEXPBDH@Z ; ATL::CSimpleStringT<char,0>::SetString
  00031	5e		 pop	 esi

; 581  : 	}

  00032	c2 04 00	 ret	 4
?SetString@?$CSimpleStringT@D$0A@@ATL@@QAEXPBD@Z ENDP	; ATL::CSimpleStringT<char,0>::SetString
_TEXT	ENDS
PUBLIC	?Append@?$CSimpleStringT@D$0A@@ATL@@QAEXPBD@Z	; ATL::CSimpleStringT<char,0>::Append
; Function compile flags: /Ogty
;	COMDAT ?Append@?$CSimpleStringT@D$0A@@ATL@@QAEXPBD@Z
_TEXT	SEGMENT
_pszSrc$ = 8						; size = 4
?Append@?$CSimpleStringT@D$0A@@ATL@@QAEXPBD@Z PROC NEAR	; ATL::CSimpleStringT<char,0>::Append, COMDAT
; _this$ = ecx

; 383  : 	{

  00000	56		 push	 esi

; 384  : 		Append( pszSrc, StringLength( pszSrc ) );

  00001	8b 74 24 08	 mov	 esi, DWORD PTR _pszSrc$[esp]
  00005	85 f6		 test	 esi, esi
  00007	75 0d		 jne	 SHORT $L227599
  00009	33 c0		 xor	 eax, eax
  0000b	50		 push	 eax
  0000c	56		 push	 esi
  0000d	e8 00 00 00 00	 call	 ?Append@?$CSimpleStringT@D$0A@@ATL@@QAEXPBDH@Z ; ATL::CSimpleStringT<char,0>::Append
  00012	5e		 pop	 esi

; 385  : 	}

  00013	c2 04 00	 ret	 4

; 384  : 		Append( pszSrc, StringLength( pszSrc ) );

$L227599:
  00016	8b c6		 mov	 eax, esi
  00018	57		 push	 edi
  00019	8d 78 01	 lea	 edi, DWORD PTR [eax+1]
  0001c	8d 64 24 00	 npad	 4
$L227601:
  00020	8a 10		 mov	 dl, BYTE PTR [eax]
  00022	40		 inc	 eax
  00023	84 d2		 test	 dl, dl
  00025	75 f9		 jne	 SHORT $L227601
  00027	2b c7		 sub	 eax, edi
  00029	5f		 pop	 edi
  0002a	50		 push	 eax
  0002b	56		 push	 esi
  0002c	e8 00 00 00 00	 call	 ?Append@?$CSimpleStringT@D$0A@@ATL@@QAEXPBDH@Z ; ATL::CSimpleStringT<char,0>::Append
  00031	5e		 pop	 esi

; 385  : 	}

  00032	c2 04 00	 ret	 4
?Append@?$CSimpleStringT@D$0A@@ATL@@QAEXPBD@Z ENDP	; ATL::CSimpleStringT<char,0>::Append
_TEXT	ENDS
PUBLIC	??4?$CSimpleStringT@D$0A@@ATL@@QAEAAV01@PBD@Z	; ATL::CSimpleStringT<char,0>::operator=
; Function compile flags: /Ogty
;	COMDAT ??4?$CSimpleStringT@D$0A@@ATL@@QAEAAV01@PBD@Z
_TEXT	SEGMENT
_pszSrc$ = 8						; size = 4
??4?$CSimpleStringT@D$0A@@ATL@@QAEAAV01@PBD@Z PROC NEAR	; ATL::CSimpleStringT<char,0>::operator=, COMDAT
; _this$ = ecx

; 316  : 		SetString( pszSrc );

  00000	8b 54 24 04	 mov	 edx, DWORD PTR _pszSrc$[esp-4]
  00004	85 d2		 test	 edx, edx
  00006	57		 push	 edi
  00007	8b f9		 mov	 edi, ecx
  00009	75 0f		 jne	 SHORT $L227615
  0000b	33 c0		 xor	 eax, eax
  0000d	50		 push	 eax
  0000e	52		 push	 edx
  0000f	e8 00 00 00 00	 call	 ?SetString@?$CSimpleStringT@D$0A@@ATL@@QAEXPBDH@Z ; ATL::CSimpleStringT<char,0>::SetString

; 317  : 
; 318  : 		return( *this );

  00014	8b c7		 mov	 eax, edi
  00016	5f		 pop	 edi

; 319  : 	}

  00017	c2 04 00	 ret	 4

; 316  : 		SetString( pszSrc );

$L227615:
  0001a	8b c2		 mov	 eax, edx
  0001c	56		 push	 esi
  0001d	8d 70 01	 lea	 esi, DWORD PTR [eax+1]
$L227616:
  00020	8a 08		 mov	 cl, BYTE PTR [eax]
  00022	40		 inc	 eax
  00023	84 c9		 test	 cl, cl
  00025	75 f9		 jne	 SHORT $L227616
  00027	2b c6		 sub	 eax, esi
  00029	5e		 pop	 esi
  0002a	50		 push	 eax
  0002b	52		 push	 edx
  0002c	8b cf		 mov	 ecx, edi
  0002e	e8 00 00 00 00	 call	 ?SetString@?$CSimpleStringT@D$0A@@ATL@@QAEXPBDH@Z ; ATL::CSimpleStringT<char,0>::SetString

; 317  : 
; 318  : 		return( *this );

  00033	8b c7		 mov	 eax, edi
  00035	5f		 pop	 edi

; 319  : 	}

  00036	c2 04 00	 ret	 4
??4?$CSimpleStringT@D$0A@@ATL@@QAEAAV01@PBD@Z ENDP	; ATL::CSimpleStringT<char,0>::operator=
_TEXT	ENDS
PUBLIC	??Y?$CSimpleStringT@D$0A@@ATL@@QAEAAV01@PBD@Z	; ATL::CSimpleStringT<char,0>::operator+=
; Function compile flags: /Ogty
;	COMDAT ??Y?$CSimpleStringT@D$0A@@ATL@@QAEAAV01@PBD@Z
_TEXT	SEGMENT
_pszSrc$ = 8						; size = 4
??Y?$CSimpleStringT@D$0A@@ATL@@QAEAAV01@PBD@Z PROC NEAR	; ATL::CSimpleStringT<char,0>::operator+=, COMDAT
; _this$ = ecx

; 337  : 		Append( pszSrc );

  00000	8b 54 24 04	 mov	 edx, DWORD PTR _pszSrc$[esp-4]
  00004	85 d2		 test	 edx, edx
  00006	57		 push	 edi
  00007	8b f9		 mov	 edi, ecx
  00009	75 0f		 jne	 SHORT $L227629
  0000b	33 c0		 xor	 eax, eax
  0000d	50		 push	 eax
  0000e	52		 push	 edx
  0000f	e8 00 00 00 00	 call	 ?Append@?$CSimpleStringT@D$0A@@ATL@@QAEXPBDH@Z ; ATL::CSimpleStringT<char,0>::Append

; 338  : 
; 339  : 		return( *this );

  00014	8b c7		 mov	 eax, edi
  00016	5f		 pop	 edi

; 340  : 	}

  00017	c2 04 00	 ret	 4

; 337  : 		Append( pszSrc );

$L227629:
  0001a	8b c2		 mov	 eax, edx
  0001c	56		 push	 esi
  0001d	8d 70 01	 lea	 esi, DWORD PTR [eax+1]
$L227631:
  00020	8a 08		 mov	 cl, BYTE PTR [eax]
  00022	40		 inc	 eax
  00023	84 c9		 test	 cl, cl
  00025	75 f9		 jne	 SHORT $L227631
  00027	2b c6		 sub	 eax, esi
  00029	5e		 pop	 esi
  0002a	50		 push	 eax
  0002b	52		 push	 edx
  0002c	8b cf		 mov	 ecx, edi
  0002e	e8 00 00 00 00	 call	 ?Append@?$CSimpleStringT@D$0A@@ATL@@QAEXPBDH@Z ; ATL::CSimpleStringT<char,0>::Append

; 338  : 
; 339  : 		return( *this );

  00033	8b c7		 mov	 eax, edi
  00035	5f		 pop	 edi

; 340  : 	}

  00036	c2 04 00	 ret	 4
??Y?$CSimpleStringT@D$0A@@ATL@@QAEAAV01@PBD@Z ENDP	; ATL::CSimpleStringT<char,0>::operator+=
_TEXT	ENDS
PUBLIC	??4?$CStringT@DV?$StrTraitMFC@DV?$ChTraitsCRT@D@ATL@@@@@ATL@@QAEAAV01@PBD@Z ; ATL::CStringT<char,StrTraitMFC<char,ATL::ChTraitsCRT<char> > >::operator=
; Function compile flags: /Ogty
; File c:\program files\microsoft visual studio .net 2003\vc7\atlmfc\include\cstringt.h
;	COMDAT ??4?$CStringT@DV?$StrTraitMFC@DV?$ChTraitsCRT@D@ATL@@@@@ATL@@QAEAAV01@PBD@Z
_TEXT	SEGMENT
_pszSrc$ = 8						; size = 4
??4?$CStringT@DV?$StrTraitMFC@DV?$ChTraitsCRT@D@ATL@@@@@ATL@@QAEAAV01@PBD@Z PROC NEAR ; ATL::CStringT<char,StrTraitMFC<char,ATL::ChTraitsCRT<char> > >::operator=, COMDAT
; _this$ = ecx

; 983  : 		CThisSimpleString::operator=( pszSrc );

  00000	8b 54 24 04	 mov	 edx, DWORD PTR _pszSrc$[esp-4]
  00004	85 d2		 test	 edx, edx
  00006	57		 push	 edi
  00007	8b f9		 mov	 edi, ecx
  00009	75 0f		 jne	 SHORT $L227652
  0000b	33 c0		 xor	 eax, eax
  0000d	50		 push	 eax
  0000e	52		 push	 edx
  0000f	e8 00 00 00 00	 call	 ?SetString@?$CSimpleStringT@D$0A@@ATL@@QAEXPBDH@Z ; ATL::CSimpleStringT<char,0>::SetString

; 984  : 
; 985  : 		return( *this );

  00014	8b c7		 mov	 eax, edi
  00016	5f		 pop	 edi

; 986  : 	}

  00017	c2 04 00	 ret	 4

; 983  : 		CThisSimpleString::operator=( pszSrc );

$L227652:
  0001a	8b c2		 mov	 eax, edx
  0001c	56		 push	 esi
  0001d	8d 70 01	 lea	 esi, DWORD PTR [eax+1]
$L227654:
  00020	8a 08		 mov	 cl, BYTE PTR [eax]
  00022	40		 inc	 eax
  00023	84 c9		 test	 cl, cl
  00025	75 f9		 jne	 SHORT $L227654
  00027	2b c6		 sub	 eax, esi
  00029	5e		 pop	 esi
  0002a	50		 push	 eax
  0002b	52		 push	 edx
  0002c	8b cf		 mov	 ecx, edi
  0002e	e8 00 00 00 00	 call	 ?SetString@?$CSimpleStringT@D$0A@@ATL@@QAEXPBDH@Z ; ATL::CSimpleStringT<char,0>::SetString

; 984  : 
; 985  : 		return( *this );

  00033	8b c7		 mov	 eax, edi
  00035	5f		 pop	 edi

; 986  : 	}

  00036	c2 04 00	 ret	 4
??4?$CStringT@DV?$StrTraitMFC@DV?$ChTraitsCRT@D@ATL@@@@@ATL@@QAEAAV01@PBD@Z ENDP ; ATL::CStringT<char,StrTraitMFC<char,ATL::ChTraitsCRT<char> > >::operator=
_TEXT	ENDS
PUBLIC	??Y?$CStringT@DV?$StrTraitMFC@DV?$ChTraitsCRT@D@ATL@@@@@ATL@@QAEAAV01@PBD@Z ; ATL::CStringT<char,StrTraitMFC<char,ATL::ChTraitsCRT<char> > >::operator+=
; Function compile flags: /Ogty
;	COMDAT ??Y?$CStringT@DV?$StrTraitMFC@DV?$ChTraitsCRT@D@ATL@@@@@ATL@@QAEAAV01@PBD@Z
_TEXT	SEGMENT
_pszSrc$ = 8						; size = 4
??Y?$CStringT@DV?$StrTraitMFC@DV?$ChTraitsCRT@D@ATL@@@@@ATL@@QAEAAV01@PBD@Z PROC NEAR ; ATL::CStringT<char,StrTraitMFC<char,ATL::ChTraitsCRT<char> > >::operator+=, COMDAT
; _this$ = ecx

; 1043 : 		CThisSimpleString::operator+=( pszSrc );

  00000	8b 54 24 04	 mov	 edx, DWORD PTR _pszSrc$[esp-4]
  00004	85 d2		 test	 edx, edx
  00006	57		 push	 edi
  00007	8b f9		 mov	 edi, ecx
  00009	75 0f		 jne	 SHORT $L227674
  0000b	33 c0		 xor	 eax, eax
  0000d	50		 push	 eax
  0000e	52		 push	 edx
  0000f	e8 00 00 00 00	 call	 ?Append@?$CSimpleStringT@D$0A@@ATL@@QAEXPBDH@Z ; ATL::CSimpleStringT<char,0>::Append

; 1044 : 
; 1045 : 		return( *this );

  00014	8b c7		 mov	 eax, edi
  00016	5f		 pop	 edi

; 1046 : 	}

  00017	c2 04 00	 ret	 4

; 1043 : 		CThisSimpleString::operator+=( pszSrc );

$L227674:
  0001a	8b c2		 mov	 eax, edx
  0001c	56		 push	 esi
  0001d	8d 70 01	 lea	 esi, DWORD PTR [eax+1]
$L227677:
  00020	8a 08		 mov	 cl, BYTE PTR [eax]
  00022	40		 inc	 eax
  00023	84 c9		 test	 cl, cl
  00025	75 f9		 jne	 SHORT $L227677
  00027	2b c6		 sub	 eax, esi
  00029	5e		 pop	 esi
  0002a	50		 push	 eax
  0002b	52		 push	 edx
  0002c	8b cf		 mov	 ecx, edi
  0002e	e8 00 00 00 00	 call	 ?Append@?$CSimpleStringT@D$0A@@ATL@@QAEXPBDH@Z ; ATL::CSimpleStringT<char,0>::Append

; 1044 : 
; 1045 : 		return( *this );

  00033	8b c7		 mov	 eax, edi
  00035	5f		 pop	 edi

; 1046 : 	}

  00036	c2 04 00	 ret	 4
??Y?$CStringT@DV?$StrTraitMFC@DV?$ChTraitsCRT@D@ATL@@@@@ATL@@QAEAAV01@PBD@Z ENDP ; ATL::CStringT<char,StrTraitMFC<char,ATL::ChTraitsCRT<char> > >::operator+=
_TEXT	ENDS
PUBLIC	??0?$CStringT@DV?$StrTraitMFC@DV?$ChTraitsCRT@D@ATL@@@@@ATL@@QAE@PBD@Z ; ATL::CStringT<char,StrTraitMFC<char,ATL::ChTraitsCRT<char> > >::CStringT<char,StrTraitMFC<char,ATL::ChTraitsCRT<char> > >
EXTRN	__except_list:DWORD
EXTRN	___CxxFrameHandler:NEAR
;	COMDAT xdata$x
; File c:\program files\microsoft visual studio .net 2003\vc7\atlmfc\include\atlsimpstr.h
xdata$x	SEGMENT
$T227765 DD	0ffffffffH
	DD	FLAT:$L227681
$T227758 DD	019930520H
	DD	01H
	DD	FLAT:$T227765
	DD	2 DUP(00H)
	DD	2 DUP(00H)
; Function compile flags: /Ogty
; File c:\program files\microsoft visual studio .net 2003\vc7\atlmfc\include\cstringt.h
xdata$x	ENDS
;	COMDAT ??0?$CStringT@DV?$StrTraitMFC@DV?$ChTraitsCRT@D@ATL@@@@@ATL@@QAE@PBD@Z
_TEXT	SEGMENT
_this$ = -16						; size = 4
__$EHRec$ = -12						; size = 12
_pszSrc$ = 8						; size = 4
??0?$CStringT@DV?$StrTraitMFC@DV?$ChTraitsCRT@D@ATL@@@@@ATL@@QAE@PBD@Z PROC NEAR ; ATL::CStringT<char,StrTraitMFC<char,ATL::ChTraitsCRT<char> > >::CStringT<char,StrTraitMFC<char,ATL::ChTraitsCRT<char> > >, COMDAT
; _this$ = ecx

; 830  : 	{

  00000	6a ff		 push	 -1
  00002	68 00 00 00 00	 push	 __ehhandler$??0?$CStringT@DV?$StrTraitMFC@DV?$ChTraitsCRT@D@ATL@@@@@ATL@@QAE@PBD@Z
  00007	64 a1 00 00 00
	00		 mov	 eax, DWORD PTR fs:__except_list
  0000d	50		 push	 eax
  0000e	64 89 25 00 00
	00 00		 mov	 DWORD PTR fs:__except_list, esp
  00015	51		 push	 ecx
  00016	56		 push	 esi
  00017	8b f1		 mov	 esi, ecx
  00019	57		 push	 edi
  0001a	89 74 24 08	 mov	 DWORD PTR _this$[esp+24], esi
  0001e	e8 00 00 00 00	 call	 ?AfxGetStringManager@@YGPAUIAtlStringMgr@ATL@@XZ ; AfxGetStringManager
  00023	8b 10		 mov	 edx, DWORD PTR [eax]
  00025	8b c8		 mov	 ecx, eax
  00027	ff 52 0c	 call	 DWORD PTR [edx+12]
  0002a	83 c0 10	 add	 eax, 16			; 00000010H
  0002d	89 06		 mov	 DWORD PTR [esi], eax

; 831  : 		if( !CheckImplicitLoad( pszSrc ) )

  0002f	8b 54 24 1c	 mov	 edx, DWORD PTR _pszSrc$[esp+20]
  00033	85 d2		 test	 edx, edx
  00035	c7 44 24 14 00
	00 00 00	 mov	 DWORD PTR __$EHRec$[esp+32], 0
  0003d	74 33		 je	 SHORT $L227760
  0003f	f7 c2 00 00 ff
	ff		 test	 edx, -65536		; ffff0000H
  00045	75 2f		 jne	 SHORT $L227752
  00047	0f b7 fa	 movzx	 edi, dx
  0004a	57		 push	 edi
  0004b	e8 00 00 00 00	 call	 ?AfxFindStringResourceHandle@@YGPAUHINSTANCE__@@I@Z ; AfxFindStringResourceHandle
  00050	85 c0		 test	 eax, eax
  00052	74 3e		 je	 SHORT $L227762
  00054	57		 push	 edi
  00055	50		 push	 eax
  00056	8b ce		 mov	 ecx, esi
  00058	e8 00 00 00 00	 call	 ?LoadStringA@?$CStringT@DV?$StrTraitMFC@DV?$ChTraitsCRT@D@ATL@@@@@ATL@@QAEHPAUHINSTANCE__@@I@Z ; ATL::CStringT<char,StrTraitMFC<char,ATL::ChTraitsCRT<char> > >::LoadStringA
  0005d	5f		 pop	 edi

; 835  : 		}
; 836  : 	}

  0005e	8b c6		 mov	 eax, esi
  00060	5e		 pop	 esi
  00061	8b 4c 24 04	 mov	 ecx, DWORD PTR __$EHRec$[esp+16]
  00065	64 89 0d 00 00
	00 00		 mov	 DWORD PTR fs:__except_list, ecx
  0006c	83 c4 10	 add	 esp, 16			; 00000010H
  0006f	c2 04 00	 ret	 4
$L227760:

; 832  : 		{
; 833  : 			// nDestLength is in XCHARs
; 834  : 			*this = pszSrc;

  00072	33 c0		 xor	 eax, eax
  00074	eb 13		 jmp	 SHORT $L227751
$L227752:
  00076	8b c2		 mov	 eax, edx
  00078	8d 78 01	 lea	 edi, DWORD PTR [eax+1]
  0007b	eb 03 8d 49 00	 npad	 5
$L227761:
  00080	8a 08		 mov	 cl, BYTE PTR [eax]
  00082	40		 inc	 eax
  00083	84 c9		 test	 cl, cl
  00085	75 f9		 jne	 SHORT $L227761
  00087	2b c7		 sub	 eax, edi
$L227751:
  00089	50		 push	 eax
  0008a	52		 push	 edx
  0008b	8b ce		 mov	 ecx, esi
  0008d	e8 00 00 00 00	 call	 ?SetString@?$CSimpleStringT@D$0A@@ATL@@QAEXPBDH@Z ; ATL::CSimpleStringT<char,0>::SetString
$L227762:

; 835  : 		}
; 836  : 	}

  00092	8b 4c 24 0c	 mov	 ecx, DWORD PTR __$EHRec$[esp+24]
  00096	5f		 pop	 edi
  00097	8b c6		 mov	 eax, esi
  00099	5e		 pop	 esi
  0009a	64 89 0d 00 00
	00 00		 mov	 DWORD PTR fs:__except_list, ecx
  000a1	83 c4 10	 add	 esp, 16			; 00000010H
  000a4	c2 04 00	 ret	 4
_TEXT	ENDS
;	COMDAT text$x
text$x	SEGMENT
$L227681:
  00000	8b 4d f0	 mov	 ecx, DWORD PTR _this$[ebp]
  00003	e9 00 00 00 00	 jmp	 ??1?$CSimpleStringT@D$0A@@ATL@@QAE@XZ ; ATL::CSimpleStringT<char,0>::~CSimpleStringT<char,0>
__ehhandler$??0?$CStringT@DV?$StrTraitMFC@DV?$ChTraitsCRT@D@ATL@@@@@ATL@@QAE@PBD@Z:
  00008	b8 00 00 00 00	 mov	 eax, OFFSET FLAT:$T227758
  0000d	e9 00 00 00 00	 jmp	 ___CxxFrameHandler
text$x	ENDS
??0?$CStringT@DV?$StrTraitMFC@DV?$ChTraitsCRT@D@ATL@@@@@ATL@@QAE@PBD@Z ENDP ; ATL::CStringT<char,StrTraitMFC<char,ATL::ChTraitsCRT<char> > >::CStringT<char,StrTraitMFC<char,ATL::ChTraitsCRT<char> > >
PUBLIC	?MakePath@@YAXAAV?$CStringT@DV?$StrTraitMFC@DV?$ChTraitsCRT@D@ATL@@@@@ATL@@PBD1@Z ; MakePath
; Function compile flags: /Ogty
; File c:\documents and settings\test\mes documents\source\virtuos_v17\build\program\_common\path.cpp
;	COMDAT ?MakePath@@YAXAAV?$CStringT@DV?$StrTraitMFC@DV?$ChTraitsCRT@D@ATL@@@@@ATL@@PBD1@Z
_TEXT	SEGMENT
_strFullPath$ = 8					; size = 4
_lpszDirName$ = 12					; size = 4
_lpszFileName$ = 16					; size = 4
?MakePath@@YAXAAV?$CStringT@DV?$StrTraitMFC@DV?$ChTraitsCRT@D@ATL@@@@@ATL@@PBD1@Z PROC NEAR ; MakePath, COMDAT

; 37   : {

  00000	56		 push	 esi

; 38   : 	strFullPath = lpszDirName;

  00001	8b 74 24 0c	 mov	 esi, DWORD PTR _lpszDirName$[esp]
  00005	85 f6		 test	 esi, esi
  00007	57		 push	 edi
  00008	75 04		 jne	 SHORT $L227799
  0000a	33 c0		 xor	 eax, eax
  0000c	eb 0e		 jmp	 SHORT $L227797
$L227799:
  0000e	8b c6		 mov	 eax, esi
  00010	8d 50 01	 lea	 edx, DWORD PTR [eax+1]
$L227859:
  00013	8a 08		 mov	 cl, BYTE PTR [eax]
  00015	40		 inc	 eax
  00016	84 c9		 test	 cl, cl
  00018	75 f9		 jne	 SHORT $L227859
  0001a	2b c2		 sub	 eax, edx
$L227797:
  0001c	8b 7c 24 0c	 mov	 edi, DWORD PTR _strFullPath$[esp+4]
  00020	50		 push	 eax
  00021	56		 push	 esi
  00022	8b cf		 mov	 ecx, edi
  00024	e8 00 00 00 00	 call	 ?SetString@?$CSimpleStringT@D$0A@@ATL@@QAEXPBDH@Z ; ATL::CSimpleStringT<char,0>::SetString

; 39   : 	strFullPath += lpszDirName;

  00029	85 f6		 test	 esi, esi
  0002b	75 04		 jne	 SHORT $L227827
  0002d	33 c0		 xor	 eax, eax
  0002f	eb 0e		 jmp	 SHORT $L227826
$L227827:
  00031	8b c6		 mov	 eax, esi
  00033	8d 50 01	 lea	 edx, DWORD PTR [eax+1]
$L227860:
  00036	8a 08		 mov	 cl, BYTE PTR [eax]
  00038	40		 inc	 eax
  00039	84 c9		 test	 cl, cl
  0003b	75 f9		 jne	 SHORT $L227860
  0003d	2b c2		 sub	 eax, edx
$L227826:
  0003f	50		 push	 eax
  00040	56		 push	 esi
  00041	8b cf		 mov	 ecx, edi
  00043	e8 00 00 00 00	 call	 ?Append@?$CSimpleStringT@D$0A@@ATL@@QAEXPBDH@Z ; ATL::CSimpleStringT<char,0>::Append

; 40   : 	strFullPath += lpszFileName;

  00048	8b 54 24 14	 mov	 edx, DWORD PTR _lpszFileName$[esp+4]
  0004c	85 d2		 test	 edx, edx
  0004e	75 0e		 jne	 SHORT $L227857
  00050	33 c0		 xor	 eax, eax
  00052	50		 push	 eax
  00053	52		 push	 edx
  00054	8b cf		 mov	 ecx, edi
  00056	e8 00 00 00 00	 call	 ?Append@?$CSimpleStringT@D$0A@@ATL@@QAEXPBDH@Z ; ATL::CSimpleStringT<char,0>::Append
  0005b	5f		 pop	 edi
  0005c	5e		 pop	 esi

; 41   : }

  0005d	c3		 ret	 0

; 40   : 	strFullPath += lpszFileName;

$L227857:
  0005e	8b c2		 mov	 eax, edx
  00060	8d 70 01	 lea	 esi, DWORD PTR [eax+1]
$L227861:
  00063	8a 08		 mov	 cl, BYTE PTR [eax]
  00065	40		 inc	 eax
  00066	84 c9		 test	 cl, cl
  00068	75 f9		 jne	 SHORT $L227861
  0006a	2b c6		 sub	 eax, esi
  0006c	50		 push	 eax
  0006d	52		 push	 edx
  0006e	8b cf		 mov	 ecx, edi
  00070	e8 00 00 00 00	 call	 ?Append@?$CSimpleStringT@D$0A@@ATL@@QAEXPBDH@Z ; ATL::CSimpleStringT<char,0>::Append
  00075	5f		 pop	 edi
  00076	5e		 pop	 esi

; 41   : }

  00077	c3		 ret	 0
?MakePath@@YAXAAV?$CStringT@DV?$StrTraitMFC@DV?$ChTraitsCRT@D@ATL@@@@@ATL@@PBD1@Z ENDP ; MakePath
_TEXT	ENDS
PUBLIC	?MakePath@@YA?AV?$CStringT@DV?$StrTraitMFC@DV?$ChTraitsCRT@D@ATL@@@@@ATL@@PBDK0@Z ; MakePath
EXTRN	?GetLangData@CLangMan@@QAEPAU_LANG_DATA@@K@Z:NEAR ; CLangMan::GetLangData
EXTRN	?GetInstance@CLangMan@@SAPAV1@XZ:NEAR		; CLangMan::GetInstance
;	COMDAT xdata$x
; File c:\program files\microsoft visual studio .net 2003\vc7\atlmfc\include\atlsimpstr.h
xdata$x	SEGMENT
$T227997 DD	0ffffffffH
	DD	FLAT:$L227865
$T227992 DD	019930520H
	DD	01H
	DD	FLAT:$T227997
	DD	2 DUP(00H)
	DD	2 DUP(00H)
; Function compile flags: /Ogty
; File c:\documents and settings\test\mes documents\source\virtuos_v17\build\program\_common\path.cpp
xdata$x	ENDS
;	COMDAT ?MakePath@@YA?AV?$CStringT@DV?$StrTraitMFC@DV?$ChTraitsCRT@D@ATL@@@@@ATL@@PBDK0@Z
_TEXT	SEGMENT
$T227867 = -16						; size = 4
_strFullPath$ = -16					; size = 4
__$EHRec$ = -12						; size = 12
___$ReturnUdt$ = 8					; size = 4
_lpDir$ = 12						; size = 4
_dwLan$ = 16						; size = 4
_lpFile$ = 20						; size = 4
?MakePath@@YA?AV?$CStringT@DV?$StrTraitMFC@DV?$ChTraitsCRT@D@ATL@@@@@ATL@@PBDK0@Z PROC NEAR ; MakePath, COMDAT

; 44   : {

  00000	6a ff		 push	 -1
  00002	68 00 00 00 00	 push	 __ehhandler$?MakePath@@YA?AV?$CStringT@DV?$StrTraitMFC@DV?$ChTraitsCRT@D@ATL@@@@@ATL@@PBDK0@Z
  00007	64 a1 00 00 00
	00		 mov	 eax, DWORD PTR fs:__except_list
  0000d	50		 push	 eax
  0000e	64 89 25 00 00
	00 00		 mov	 DWORD PTR fs:__except_list, esp
  00015	51		 push	 ecx

; 45   : 	CString	strFullPath( lpDir );

  00016	8b 44 24 18	 mov	 eax, DWORD PTR _lpDir$[esp+12]
  0001a	56		 push	 esi
  0001b	50		 push	 eax
  0001c	8d 4c 24 08	 lea	 ecx, DWORD PTR _strFullPath$[esp+24]
  00020	c7 44 24 08 00
	00 00 00	 mov	 DWORD PTR $T227867[esp+24], 0
  00028	e8 00 00 00 00	 call	 ??0?$CStringT@DV?$StrTraitMFC@DV?$ChTraitsCRT@D@ATL@@@@@ATL@@QAE@PBD@Z ; ATL::CStringT<char,StrTraitMFC<char,ATL::ChTraitsCRT<char> > >::CStringT<char,StrTraitMFC<char,ATL::ChTraitsCRT<char> > >

; 46   : 
; 47   : #ifdef __LANG_1013
; 48   : 	strFullPath		+= CLangMan::GetInstance()->GetLangData( dwLan )->szPath;

  0002d	8b 4c 24 20	 mov	 ecx, DWORD PTR _dwLan$[esp+16]
  00031	51		 push	 ecx
  00032	c7 44 24 14 00
	00 00 00	 mov	 DWORD PTR __$EHRec$[esp+32], 0
  0003a	e8 00 00 00 00	 call	 ?GetInstance@CLangMan@@SAPAV1@XZ ; CLangMan::GetInstance
  0003f	8b c8		 mov	 ecx, eax
  00041	e8 00 00 00 00	 call	 ?GetLangData@CLangMan@@QAEPAU_LANG_DATA@@K@Z ; CLangMan::GetLangData
  00046	85 c0		 test	 eax, eax
  00048	75 04		 jne	 SHORT $L227896
  0004a	33 c9		 xor	 ecx, ecx
  0004c	eb 0e		 jmp	 SHORT $L227895
$L227896:
  0004e	8b c8		 mov	 ecx, eax
  00050	8d 71 01	 lea	 esi, DWORD PTR [ecx+1]
$L227993:
  00053	8a 11		 mov	 dl, BYTE PTR [ecx]
  00055	41		 inc	 ecx
  00056	84 d2		 test	 dl, dl
  00058	75 f9		 jne	 SHORT $L227993
  0005a	2b ce		 sub	 ecx, esi
$L227895:
  0005c	51		 push	 ecx
  0005d	50		 push	 eax
  0005e	8d 4c 24 0c	 lea	 ecx, DWORD PTR _strFullPath$[esp+28]
  00062	e8 00 00 00 00	 call	 ?Append@?$CSimpleStringT@D$0A@@ATL@@QAEXPBDH@Z ; ATL::CSimpleStringT<char,0>::Append

; 49   : #else	// __LANG_1013
; 50   : 	switch( dwLan )
; 51   : 	{
; 52   : 		case LANG_KOR:
; 53   : 			strFullPath += "Korean\\";
; 54   : 			break;
; 55   : 		case LANG_USA:
; 56   : 			strFullPath += "English\\";
; 57   : 			break;
; 58   : 		case LANG_JAP:
; 59   : 			strFullPath += "Japanese\\";
; 60   : 			break;
; 61   : 		case LANG_CHI:
; 62   : 			strFullPath += "Chinese\\";
; 63   : 			break;
; 64   : 		case LANG_THA:
; 65   : 			strFullPath += "Thailand\\";
; 66   : 			break;
; 67   : 		case LANG_TWN:
; 68   : 		case LANG_HK:
; 69   : 			strFullPath += "Taiwan\\";
; 70   : 			break;
; 71   : 		case LANG_VTN:
; 72   : 			strFullPath += "Vietnam\\";
; 73   : 			break;
; 74   : 		case LANG_RUS:
; 75   : 			strFullPath += "Russian\\";
; 76   : 			break;
; 77   : 		default:
; 78   : 			AfxMessageBox( "unknown language setting" );
; 79   : 			break;
; 80   : 	}
; 81   : #endif	// __LANG_1013
; 82   : 
; 83   : 	strFullPath		+= lpFile;

  00067	8b 54 24 24	 mov	 edx, DWORD PTR _lpFile$[esp+16]
  0006b	85 d2		 test	 edx, edx
  0006d	75 04		 jne	 SHORT $L227927
  0006f	33 c0		 xor	 eax, eax
  00071	eb 0e		 jmp	 SHORT $L227926
$L227927:
  00073	8b c2		 mov	 eax, edx
  00075	8d 70 01	 lea	 esi, DWORD PTR [eax+1]
$L227994:
  00078	8a 08		 mov	 cl, BYTE PTR [eax]
  0007a	40		 inc	 eax
  0007b	84 c9		 test	 cl, cl
  0007d	75 f9		 jne	 SHORT $L227994
  0007f	2b c6		 sub	 eax, esi
$L227926:
  00081	50		 push	 eax
  00082	52		 push	 edx
  00083	8d 4c 24 0c	 lea	 ecx, DWORD PTR _strFullPath$[esp+28]
  00087	e8 00 00 00 00	 call	 ?Append@?$CSimpleStringT@D$0A@@ATL@@QAEXPBDH@Z ; ATL::CSimpleStringT<char,0>::Append

; 84   : 	return strFullPath;

  0008c	8b 44 24 04	 mov	 eax, DWORD PTR _strFullPath$[esp+20]
  00090	83 c0 f0	 add	 eax, -16		; fffffff0H
  00093	50		 push	 eax
  00094	e8 00 00 00 00	 call	 ?CloneData@?$CSimpleStringT@D$0A@@ATL@@CAPAUCStringData@2@PAU32@@Z ; ATL::CSimpleStringT<char,0>::CloneData
  00099	8b 74 24 1c	 mov	 esi, DWORD PTR ___$ReturnUdt$[esp+20]
  0009d	83 c0 10	 add	 eax, 16			; 00000010H
  000a0	89 06		 mov	 DWORD PTR [esi], eax
  000a2	8b 44 24 08	 mov	 eax, DWORD PTR _strFullPath$[esp+24]
  000a6	83 c0 f0	 add	 eax, -16		; fffffff0H
  000a9	83 c4 04	 add	 esp, 4
  000ac	c7 44 24 10 ff
	ff ff ff	 mov	 DWORD PTR __$EHRec$[esp+28], -1
  000b4	8d 50 0c	 lea	 edx, DWORD PTR [eax+12]
  000b7	83 c9 ff	 or	 ecx, -1
  000ba	f0 0f c1 0a	 lock	  xadd	 DWORD PTR [edx], ecx
  000be	49		 dec	 ecx
  000bf	85 c9		 test	 ecx, ecx
  000c1	7f 08		 jg	 SHORT $L227995
  000c3	8b 08		 mov	 ecx, DWORD PTR [eax]
  000c5	8b 11		 mov	 edx, DWORD PTR [ecx]
  000c7	50		 push	 eax
  000c8	ff 52 04	 call	 DWORD PTR [edx+4]
$L227995:

; 85   : }

  000cb	8b 4c 24 08	 mov	 ecx, DWORD PTR __$EHRec$[esp+20]
  000cf	8b c6		 mov	 eax, esi
  000d1	5e		 pop	 esi
  000d2	64 89 0d 00 00
	00 00		 mov	 DWORD PTR fs:__except_list, ecx
  000d9	83 c4 10	 add	 esp, 16			; 00000010H
  000dc	c3		 ret	 0
_TEXT	ENDS
;	COMDAT text$x
text$x	SEGMENT
$L227865:
  00000	8d 4d f0	 lea	 ecx, DWORD PTR _strFullPath$[ebp]
  00003	e9 00 00 00 00	 jmp	 ??1?$CStringT@DV?$StrTraitMFC@DV?$ChTraitsCRT@D@ATL@@@@@ATL@@QAE@XZ ; ATL::CStringT<char,StrTraitMFC<char,ATL::ChTraitsCRT<char> > >::~CStringT<char,StrTraitMFC<char,ATL::ChTraitsCRT<char> > >
__ehhandler$?MakePath@@YA?AV?$CStringT@DV?$StrTraitMFC@DV?$ChTraitsCRT@D@ATL@@@@@ATL@@PBDK0@Z:
  00008	b8 00 00 00 00	 mov	 eax, OFFSET FLAT:$T227992
  0000d	e9 00 00 00 00	 jmp	 ___CxxFrameHandler
text$x	ENDS
?MakePath@@YA?AV?$CStringT@DV?$StrTraitMFC@DV?$ChTraitsCRT@D@ATL@@@@@ATL@@PBDK0@Z ENDP ; MakePath
PUBLIC	?MakePath@@YA?AV?$CStringT@DV?$StrTraitMFC@DV?$ChTraitsCRT@D@ATL@@@@@ATL@@PBD0@Z ; MakePath
;	COMDAT xdata$x
; File c:\program files\microsoft visual studio .net 2003\vc7\atlmfc\include\atlsimpstr.h
xdata$x	SEGMENT
$T228104 DD	0ffffffffH
	DD	FLAT:$L228003
$T228100 DD	019930520H
	DD	01H
	DD	FLAT:$T228104
	DD	2 DUP(00H)
	DD	2 DUP(00H)
; Function compile flags: /Ogty
; File c:\documents and settings\test\mes documents\source\virtuos_v17\build\program\_common\path.cpp
xdata$x	ENDS
;	COMDAT ?MakePath@@YA?AV?$CStringT@DV?$StrTraitMFC@DV?$ChTraitsCRT@D@ATL@@@@@ATL@@PBD0@Z
_TEXT	SEGMENT
$T228005 = -16						; size = 4
_strFullPath$ = -16					; size = 4
__$EHRec$ = -12						; size = 12
___$ReturnUdt$ = 8					; size = 4
_lpszDirName$ = 12					; size = 4
_lpszFileName$ = 16					; size = 4
?MakePath@@YA?AV?$CStringT@DV?$StrTraitMFC@DV?$ChTraitsCRT@D@ATL@@@@@ATL@@PBD0@Z PROC NEAR ; MakePath, COMDAT

; 89   : {

  00000	6a ff		 push	 -1
  00002	68 00 00 00 00	 push	 __ehhandler$?MakePath@@YA?AV?$CStringT@DV?$StrTraitMFC@DV?$ChTraitsCRT@D@ATL@@@@@ATL@@PBD0@Z
  00007	64 a1 00 00 00
	00		 mov	 eax, DWORD PTR fs:__except_list
  0000d	50		 push	 eax
  0000e	64 89 25 00 00
	00 00		 mov	 DWORD PTR fs:__except_list, esp
  00015	51		 push	 ecx

; 90   : 	CString strFullPath( lpszDirName );

  00016	8b 44 24 18	 mov	 eax, DWORD PTR _lpszDirName$[esp+12]
  0001a	56		 push	 esi
  0001b	50		 push	 eax
  0001c	8d 4c 24 08	 lea	 ecx, DWORD PTR _strFullPath$[esp+24]
  00020	c7 44 24 08 00
	00 00 00	 mov	 DWORD PTR $T228005[esp+24], 0
  00028	e8 00 00 00 00	 call	 ??0?$CStringT@DV?$StrTraitMFC@DV?$ChTraitsCRT@D@ATL@@@@@ATL@@QAE@PBD@Z ; ATL::CStringT<char,StrTraitMFC<char,ATL::ChTraitsCRT<char> > >::CStringT<char,StrTraitMFC<char,ATL::ChTraitsCRT<char> > >

; 91   : 	strFullPath += lpszFileName;

  0002d	8b 54 24 20	 mov	 edx, DWORD PTR _lpszFileName$[esp+16]
  00031	85 d2		 test	 edx, edx
  00033	c7 44 24 10 00
	00 00 00	 mov	 DWORD PTR __$EHRec$[esp+28], 0
  0003b	75 04		 jne	 SHORT $L228035
  0003d	33 c0		 xor	 eax, eax
  0003f	eb 0e		 jmp	 SHORT $L228034
$L228035:
  00041	8b c2		 mov	 eax, edx
  00043	8d 70 01	 lea	 esi, DWORD PTR [eax+1]
$L228101:
  00046	8a 08		 mov	 cl, BYTE PTR [eax]
  00048	40		 inc	 eax
  00049	84 c9		 test	 cl, cl
  0004b	75 f9		 jne	 SHORT $L228101
  0004d	2b c6		 sub	 eax, esi
$L228034:
  0004f	50		 push	 eax
  00050	52		 push	 edx
  00051	8d 4c 24 0c	 lea	 ecx, DWORD PTR _strFullPath$[esp+28]
  00055	e8 00 00 00 00	 call	 ?Append@?$CSimpleStringT@D$0A@@ATL@@QAEXPBDH@Z ; ATL::CSimpleStringT<char,0>::Append

; 92   : 	return strFullPath;

  0005a	8b 44 24 04	 mov	 eax, DWORD PTR _strFullPath$[esp+20]
  0005e	83 c0 f0	 add	 eax, -16		; fffffff0H
  00061	50		 push	 eax
  00062	e8 00 00 00 00	 call	 ?CloneData@?$CSimpleStringT@D$0A@@ATL@@CAPAUCStringData@2@PAU32@@Z ; ATL::CSimpleStringT<char,0>::CloneData
  00067	8b 74 24 1c	 mov	 esi, DWORD PTR ___$ReturnUdt$[esp+20]
  0006b	83 c0 10	 add	 eax, 16			; 00000010H
  0006e	89 06		 mov	 DWORD PTR [esi], eax
  00070	8b 44 24 08	 mov	 eax, DWORD PTR _strFullPath$[esp+24]
  00074	83 c0 f0	 add	 eax, -16		; fffffff0H
  00077	83 c4 04	 add	 esp, 4
  0007a	c7 44 24 10 ff
	ff ff ff	 mov	 DWORD PTR __$EHRec$[esp+28], -1
  00082	8d 48 0c	 lea	 ecx, DWORD PTR [eax+12]
  00085	83 ca ff	 or	 edx, -1
  00088	f0 0f c1 11	 lock	  xadd	 DWORD PTR [ecx], edx
  0008c	4a		 dec	 edx
  0008d	85 d2		 test	 edx, edx
  0008f	7f 08		 jg	 SHORT $L228102
  00091	8b 08		 mov	 ecx, DWORD PTR [eax]
  00093	8b 11		 mov	 edx, DWORD PTR [ecx]
  00095	50		 push	 eax
  00096	ff 52 04	 call	 DWORD PTR [edx+4]
$L228102:

; 93   : }

  00099	8b 4c 24 08	 mov	 ecx, DWORD PTR __$EHRec$[esp+20]
  0009d	8b c6		 mov	 eax, esi
  0009f	5e		 pop	 esi
  000a0	64 89 0d 00 00
	00 00		 mov	 DWORD PTR fs:__except_list, ecx
  000a7	83 c4 10	 add	 esp, 16			; 00000010H
  000aa	c3		 ret	 0
_TEXT	ENDS
;	COMDAT text$x
text$x	SEGMENT
$L228003:
  00000	8d 4d f0	 lea	 ecx, DWORD PTR _strFullPath$[ebp]
  00003	e9 00 00 00 00	 jmp	 ??1?$CStringT@DV?$StrTraitMFC@DV?$ChTraitsCRT@D@ATL@@@@@ATL@@QAE@XZ ; ATL::CStringT<char,StrTraitMFC<char,ATL::ChTraitsCRT<char> > >::~CStringT<char,StrTraitMFC<char,ATL::ChTraitsCRT<char> > >
__ehhandler$?MakePath@@YA?AV?$CStringT@DV?$StrTraitMFC@DV?$ChTraitsCRT@D@ATL@@@@@ATL@@PBD0@Z:
  00008	b8 00 00 00 00	 mov	 eax, OFFSET FLAT:$T228100
  0000d	e9 00 00 00 00	 jmp	 ___CxxFrameHandler
text$x	ENDS
?MakePath@@YA?AV?$CStringT@DV?$StrTraitMFC@DV?$ChTraitsCRT@D@ATL@@@@@ATL@@PBD0@Z ENDP ; MakePath
END
