; Listing generated by Microsoft (R) Optimizing Compiler Version 13.10.6030 

	TITLE	\Documents and Settings\test\Mes documents\Source\Virtuos_v17\Build\Program\_Common\pocket.cpp
	.386P
include listing.inc
if @Version gt 510
.model FLAT
else
_TEXT	SEGMENT PARA USE32 PUBLIC 'CODE'
_TEXT	ENDS
_DATA	SEGMENT DWORD USE32 PUBLIC 'DATA'
_DATA	ENDS
CONST	SEGMENT DWORD USE32 PUBLIC 'CONST'
CONST	ENDS
_BSS	SEGMENT DWORD USE32 PUBLIC 'BSS'
_BSS	ENDS
$$SYMBOLS	SEGMENT BYTE USE32 'DEBSYM'
$$SYMBOLS	ENDS
$$TYPES	SEGMENT BYTE USE32 'DEBTYP'
$$TYPES	ENDS
_TLS	SEGMENT DWORD USE32 PUBLIC 'TLS'
_TLS	ENDS
;	COMDAT ??_C@_0EK@GINEPMCL@template?5?$DMclass?5T?$DO?5BOOL?5CItemCon@
CONST	SEGMENT DWORD USE32 PUBLIC 'CONST'
CONST	ENDS
xdata$x	SEGMENT DWORD USE32 PUBLIC 'CONST'
xdata$x	ENDS
text$AFX_COL1	SEGMENT PARA USE32 PUBLIC ''
text$AFX_COL1	ENDS
;	COMDAT ?SelectMemberClear@__GuildCombatMember@CGuildCombat@@QAEXXZ
_TEXT	SEGMENT PARA USE32 PUBLIC 'CODE'
_TEXT	ENDS
;	COMDAT ??0__MINIGAME_PACKET@@QAE@GHHH@Z
_TEXT	SEGMENT PARA USE32 PUBLIC 'CODE'
_TEXT	ENDS
;	COMDAT ?Serialize@__MINIGAME_PACKET@@UAEXAAVCAr@@@Z
_TEXT	SEGMENT PARA USE32 PUBLIC 'CODE'
_TEXT	ENDS
;	COMDAT ?Serialize@__MINIGAME_EXT_PACKET@@UAEXAAVCAr@@@Z
_TEXT	SEGMENT PARA USE32 PUBLIC 'CODE'
_TEXT	ENDS
;	COMDAT ??0MINIGMAME_PRIZE_LIST@CRainbowRaceMng@@QAE@KHK@Z
_TEXT	SEGMENT PARA USE32 PUBLIC 'CODE'
_TEXT	ENDS
;	COMDAT ?RemovePlayerId2CampusId@CCampusMng@@QAEXK@Z
_TEXT	SEGMENT PARA USE32 PUBLIC 'CODE'
_TEXT	ENDS
;	COMDAT ??0CPocket@@QAE@XZ
_TEXT	SEGMENT PARA USE32 PUBLIC 'CODE'
_TEXT	ENDS
;	COMDAT ??_GCPocket@@UAEPAXI@Z
_TEXT	SEGMENT PARA USE32 PUBLIC 'CODE'
_TEXT	ENDS
;	COMDAT ??1CPocket@@UAE@XZ
_TEXT	SEGMENT PARA USE32 PUBLIC 'CODE'
_TEXT	ENDS
;	COMDAT ?Copy@CPocket@@QAEXAAV1@@Z
_TEXT	SEGMENT PARA USE32 PUBLIC 'CODE'
_TEXT	ENDS
;	COMDAT ?Serialize@CPocket@@QAEXAAVCAr@@@Z
_TEXT	SEGMENT PARA USE32 PUBLIC 'CODE'
_TEXT	ENDS
;	COMDAT ??0CPocketController@@QAE@XZ
_TEXT	SEGMENT PARA USE32 PUBLIC 'CODE'
_TEXT	ENDS
;	COMDAT ??_GCPocketController@@UAEPAXI@Z
_TEXT	SEGMENT PARA USE32 PUBLIC 'CODE'
_TEXT	ENDS
;	COMDAT ??1CPocketController@@UAE@XZ
_TEXT	SEGMENT PARA USE32 PUBLIC 'CODE'
_TEXT	ENDS
;	COMDAT ?Clear@CPocketController@@QAEXXZ
_TEXT	SEGMENT PARA USE32 PUBLIC 'CODE'
_TEXT	ENDS
;	COMDAT ?Avail@CPocketController@@QAEXHJ@Z
_TEXT	SEGMENT PARA USE32 PUBLIC 'CODE'
_TEXT	ENDS
;	COMDAT ?GetAtId@CPocketController@@QAEPAVCItemElem@@HHH@Z
_TEXT	SEGMENT PARA USE32 PUBLIC 'CODE'
_TEXT	ENDS
;	COMDAT ?Add@CPocketController@@QAEHHPAVCItemElem@@PAV?$vector@U_PocketController_Result@@V?$allocator@U_PocketController_Result@@@std@@@std@@@Z
_TEXT	SEGMENT PARA USE32 PUBLIC 'CODE'
_TEXT	ENDS
;	COMDAT ?RemoveAtId@CPocketController@@QAEHHHH@Z
_TEXT	SEGMENT PARA USE32 PUBLIC 'CODE'
_TEXT	ENDS
;	COMDAT ?RemoveItem@CPocketController@@QAEHKH@Z
_TEXT	SEGMENT PARA USE32 PUBLIC 'CODE'
_TEXT	ENDS
;	COMDAT ?GetEmptyCount@CPocketController@@QAEHXZ
_TEXT	SEGMENT PARA USE32 PUBLIC 'CODE'
_TEXT	ENDS
;	COMDAT ?IsAllClean@CPocketController@@QAEHXZ
_TEXT	SEGMENT PARA USE32 PUBLIC 'CODE'
_TEXT	ENDS
;	COMDAT ?GetCount@CPocketController@@QAEHK@Z
_TEXT	SEGMENT PARA USE32 PUBLIC 'CODE'
_TEXT	ENDS
;	COMDAT ?GetAvailable@CPocketController@@QAEJH@Z
_TEXT	SEGMENT PARA USE32 PUBLIC 'CODE'
_TEXT	ENDS
;	COMDAT ?SetAttribute@CPocketController@@QAEXHHH@Z
_TEXT	SEGMENT PARA USE32 PUBLIC 'CODE'
_TEXT	ENDS
;	COMDAT ?Copy@CPocketController@@QAEXAAV1@@Z
_TEXT	SEGMENT PARA USE32 PUBLIC 'CODE'
_TEXT	ENDS
;	COMDAT ?Serialize@CPocketController@@QAEXAAVCAr@@@Z
_TEXT	SEGMENT PARA USE32 PUBLIC 'CODE'
_TEXT	ENDS
;	COMDAT ?GetPocket@CPocketController@@QAEPAVCPocket@@H@Z
_TEXT	SEGMENT PARA USE32 PUBLIC 'CODE'
_TEXT	ENDS
;	COMDAT ?ProcessExpiring@CPocketController@@QAEXXZ
_TEXT	SEGMENT PARA USE32 PUBLIC 'CODE'
_TEXT	ENDS
;	COMDAT ?compare@?$basic_string@DU?$char_traits@D@std@@V?$allocator@D@2@@std@@QBEHABV12@@Z
_TEXT	SEGMENT PARA USE32 PUBLIC 'CODE'
_TEXT	ENDS
;	COMDAT ?IsFull@?$CStack@K@@QAEHXZ
_TEXT	SEGMENT PARA USE32 PUBLIC 'CODE'
_TEXT	ENDS
;	COMDAT ??A?$map@KPAVCCtrl@@U?$less@K@std@@V?$allocator@U?$pair@$$CBKPAVCCtrl@@@std@@@3@@std@@QAEAAPAVCCtrl@@ABK@Z
_TEXT	SEGMENT PARA USE32 PUBLIC 'CODE'
_TEXT	ENDS
;	COMDAT ??0?$pair@KPAVCCtrl@@@std@@QAE@ABKABQAVCCtrl@@@Z
_TEXT	SEGMENT PARA USE32 PUBLIC 'CODE'
_TEXT	ENDS
;	COMDAT ?GetMax@?$CItemContainer@VCItemElem@@@@QAEHXZ
_TEXT	SEGMENT PARA USE32 PUBLIC 'CODE'
_TEXT	ENDS
;	COMDAT ?GetEmptyCount@?$CItemContainer@VCItemElem@@@@QAEHXZ
_TEXT	SEGMENT PARA USE32 PUBLIC 'CODE'
_TEXT	ENDS
;	COMDAT ?GetCount@?$CItemContainer@VCItemElem@@@@QAEHK@Z
_TEXT	SEGMENT PARA USE32 PUBLIC 'CODE'
_TEXT	ENDS
;	COMDAT ??0?$deque@PAUtagACTMSG@@V?$allocator@PAUtagACTMSG@@@std@@@std@@QAE@XZ
_TEXT	SEGMENT PARA USE32 PUBLIC 'CODE'
_TEXT	ENDS
;	COMDAT ??1?$deque@PAUtagACTMSG@@V?$allocator@PAUtagACTMSG@@@std@@@std@@QAE@XZ
_TEXT	SEGMENT PARA USE32 PUBLIC 'CODE'
_TEXT	ENDS
;	COMDAT ?begin@?$deque@PAUtagACTMSG@@V?$allocator@PAUtagACTMSG@@@std@@@std@@QAE?AViterator@12@XZ
_TEXT	SEGMENT PARA USE32 PUBLIC 'CODE'
_TEXT	ENDS
;	COMDAT ?end@?$deque@PAUtagACTMSG@@V?$allocator@PAUtagACTMSG@@@std@@@std@@QAE?AViterator@12@XZ
_TEXT	SEGMENT PARA USE32 PUBLIC 'CODE'
_TEXT	ENDS
;	COMDAT ?empty@?$deque@PAUtagACTMSG@@V?$allocator@PAUtagACTMSG@@@std@@@std@@QBE_NXZ
_TEXT	SEGMENT PARA USE32 PUBLIC 'CODE'
_TEXT	ENDS
;	COMDAT ?clear@?$deque@PAUtagACTMSG@@V?$allocator@PAUtagACTMSG@@@std@@@std@@QAEXXZ
_TEXT	SEGMENT PARA USE32 PUBLIC 'CODE'
_TEXT	ENDS
;	COMDAT ??0?$deque@PAUtagMAGICATKMSG@@V?$allocator@PAUtagMAGICATKMSG@@@std@@@std@@QAE@XZ
_TEXT	SEGMENT PARA USE32 PUBLIC 'CODE'
_TEXT	ENDS
;	COMDAT ??1?$deque@PAUtagMAGICATKMSG@@V?$allocator@PAUtagMAGICATKMSG@@@std@@@std@@QAE@XZ
_TEXT	SEGMENT PARA USE32 PUBLIC 'CODE'
_TEXT	ENDS
;	COMDAT ?begin@?$deque@PAUtagMAGICATKMSG@@V?$allocator@PAUtagMAGICATKMSG@@@std@@@std@@QAE?AViterator@12@XZ
_TEXT	SEGMENT PARA USE32 PUBLIC 'CODE'
_TEXT	ENDS
;	COMDAT ?end@?$deque@PAUtagMAGICATKMSG@@V?$allocator@PAUtagMAGICATKMSG@@@std@@@std@@QAE?AViterator@12@XZ
_TEXT	SEGMENT PARA USE32 PUBLIC 'CODE'
_TEXT	ENDS
;	COMDAT ?empty@?$deque@PAUtagMAGICATKMSG@@V?$allocator@PAUtagMAGICATKMSG@@@std@@@std@@QBE_NXZ
_TEXT	SEGMENT PARA USE32 PUBLIC 'CODE'
_TEXT	ENDS
;	COMDAT ?clear@?$deque@PAUtagMAGICATKMSG@@V?$allocator@PAUtagMAGICATKMSG@@@std@@@std@@QAEXXZ
_TEXT	SEGMENT PARA USE32 PUBLIC 'CODE'
_TEXT	ENDS
;	COMDAT ??Diterator@?$deque@PAUtagACTMSG@@V?$allocator@PAUtagACTMSG@@@std@@@std@@QBEAAPAUtagACTMSG@@XZ
_TEXT	SEGMENT PARA USE32 PUBLIC 'CODE'
_TEXT	ENDS
;	COMDAT ??Eiterator@?$deque@PAUtagACTMSG@@V?$allocator@PAUtagACTMSG@@@std@@@std@@QAEAAV012@XZ
_TEXT	SEGMENT PARA USE32 PUBLIC 'CODE'
_TEXT	ENDS
;	COMDAT ??9const_iterator@?$deque@PAUtagACTMSG@@V?$allocator@PAUtagACTMSG@@@std@@@std@@QBE_NABV012@@Z
_TEXT	SEGMENT PARA USE32 PUBLIC 'CODE'
_TEXT	ENDS
;	COMDAT ??Diterator@?$deque@PAUtagMAGICATKMSG@@V?$allocator@PAUtagMAGICATKMSG@@@std@@@std@@QBEAAPAUtagMAGICATKMSG@@XZ
_TEXT	SEGMENT PARA USE32 PUBLIC 'CODE'
_TEXT	ENDS
;	COMDAT ??Eiterator@?$deque@PAUtagMAGICATKMSG@@V?$allocator@PAUtagMAGICATKMSG@@@std@@@std@@QAEAAV012@XZ
_TEXT	SEGMENT PARA USE32 PUBLIC 'CODE'
_TEXT	ENDS
;	COMDAT ??9const_iterator@?$deque@PAUtagMAGICATKMSG@@V?$allocator@PAUtagMAGICATKMSG@@@std@@@std@@QBE_NABV012@@Z
_TEXT	SEGMENT PARA USE32 PUBLIC 'CODE'
_TEXT	ENDS
;	COMDAT ?erase@?$_Tree@V?$_Tmap_traits@KU_Friend@@U?$less@K@std@@V?$allocator@U?$pair@$$CBKU_Friend@@@std@@@3@$0A@@std@@@std@@QAEIABK@Z
_TEXT	SEGMENT PARA USE32 PUBLIC 'CODE'
_TEXT	ENDS
;	COMDAT ?size@?$_Tree@V?$_Tmap_traits@KPAVCGuildMember@@U?$less@K@std@@V?$allocator@U?$pair@$$CBKPAVCGuildMember@@@std@@@3@$0A@@std@@@std@@QBEIXZ
_TEXT	SEGMENT PARA USE32 PUBLIC 'CODE'
_TEXT	ENDS
;	COMDAT ?size@?$_Tree@V?$_Tmap_traits@KPAVCGuild@@U?$less@K@std@@V?$allocator@U?$pair@$$CBKPAVCGuild@@@std@@@3@$0A@@std@@@std@@QBEIXZ
_TEXT	SEGMENT PARA USE32 PUBLIC 'CODE'
_TEXT	ENDS
;	COMDAT ?size@?$vector@PAU__JOINPLAYER@CGuildCombat@@V?$allocator@PAU__JOINPLAYER@CGuildCombat@@@std@@@std@@QBEIXZ
_TEXT	SEGMENT PARA USE32 PUBLIC 'CODE'
_TEXT	ENDS
;	COMDAT ??A?$vector@PAU__JOINPLAYER@CGuildCombat@@V?$allocator@PAU__JOINPLAYER@CGuildCombat@@@std@@@std@@QAEAAPAU__JOINPLAYER@CGuildCombat@@I@Z
_TEXT	SEGMENT PARA USE32 PUBLIC 'CODE'
_TEXT	ENDS
;	COMDAT ?clear@?$vector@PAU__JOINPLAYER@CGuildCombat@@V?$allocator@PAU__JOINPLAYER@CGuildCombat@@@std@@@std@@QAEXXZ
_TEXT	SEGMENT PARA USE32 PUBLIC 'CODE'
_TEXT	ENDS
;	COMDAT ?clear@?$list@PAU__JOINPLAYER@CGuildCombat@@V?$allocator@PAU__JOINPLAYER@CGuildCombat@@@std@@@std@@QAEXXZ
_TEXT	SEGMENT PARA USE32 PUBLIC 'CODE'
_TEXT	ENDS
;	COMDAT ?size@?$_Tree@V?$_Tmap_traits@KPAU_PlayerData@@U?$less@K@std@@V?$allocator@U?$pair@$$CBKPAU_PlayerData@@@std@@@3@$0A@@std@@@std@@QBEIXZ
_TEXT	SEGMENT PARA USE32 PUBLIC 'CODE'
_TEXT	ENDS
;	COMDAT ??0?$vector@U__SECRETROOM_MONSTER@@V?$allocator@U__SECRETROOM_MONSTER@@@std@@@std@@QAE@XZ
_TEXT	SEGMENT PARA USE32 PUBLIC 'CODE'
_TEXT	ENDS
;	COMDAT ??1?$vector@U__SECRETROOM_MONSTER@@V?$allocator@U__SECRETROOM_MONSTER@@@std@@@std@@QAE@XZ
_TEXT	SEGMENT PARA USE32 PUBLIC 'CODE'
_TEXT	ENDS
;	COMDAT ??0?$vector@V?$basic_string@DU?$char_traits@D@std@@V?$allocator@D@2@@std@@V?$allocator@V?$basic_string@DU?$char_traits@D@std@@V?$allocator@D@2@@std@@@2@@std@@QAE@XZ
_TEXT	SEGMENT PARA USE32 PUBLIC 'CODE'
_TEXT	ENDS
;	COMDAT ??1?$vector@V?$basic_string@DU?$char_traits@D@std@@V?$allocator@D@2@@std@@V?$allocator@V?$basic_string@DU?$char_traits@D@std@@V?$allocator@D@2@@std@@@2@@std@@QAE@XZ
_TEXT	SEGMENT PARA USE32 PUBLIC 'CODE'
_TEXT	ENDS
;	COMDAT ?size@?$vector@V?$basic_string@DU?$char_traits@D@std@@V?$allocator@D@2@@std@@V?$allocator@V?$basic_string@DU?$char_traits@D@std@@V?$allocator@D@2@@std@@@2@@std@@QBEIXZ
_TEXT	SEGMENT PARA USE32 PUBLIC 'CODE'
_TEXT	ENDS
;	COMDAT ??A?$vector@V?$basic_string@DU?$char_traits@D@std@@V?$allocator@D@2@@std@@V?$allocator@V?$basic_string@DU?$char_traits@D@std@@V?$allocator@D@2@@std@@@2@@std@@QAEAAV?$basic_string@DU?$char_traits@D@std@@V?$allocator@D@2@@1@I@Z
_TEXT	SEGMENT PARA USE32 PUBLIC 'CODE'
_TEXT	ENDS
;	COMDAT ?push_back@?$vector@V?$basic_string@DU?$char_traits@D@std@@V?$allocator@D@2@@std@@V?$allocator@V?$basic_string@DU?$char_traits@D@std@@V?$allocator@D@2@@std@@@2@@std@@QAEXABV?$basic_string@DU?$char_traits@D@std@@V?$allocator@D@2@@2@@Z
_TEXT	SEGMENT PARA USE32 PUBLIC 'CODE'
_TEXT	ENDS
;	COMDAT ?clear@?$vector@V?$basic_string@DU?$char_traits@D@std@@V?$allocator@D@2@@std@@V?$allocator@V?$basic_string@DU?$char_traits@D@std@@V?$allocator@D@2@@std@@@2@@std@@QAEXXZ
_TEXT	SEGMENT PARA USE32 PUBLIC 'CODE'
_TEXT	ENDS
;	COMDAT ?push_back@?$vector@UMINIGMAME_PRIZE_LIST@CRainbowRaceMng@@V?$allocator@UMINIGMAME_PRIZE_LIST@CRainbowRaceMng@@@std@@@std@@QAEXABUMINIGMAME_PRIZE_LIST@CRainbowRaceMng@@@Z
_TEXT	SEGMENT PARA USE32 PUBLIC 'CODE'
_TEXT	ENDS
;	COMDAT ?size@?$_Tree@V?$_Tmap_traits@KPAVCRainbowRace@@U?$less@K@std@@V?$allocator@U?$pair@$$CBKPAVCRainbowRace@@@std@@@3@$0A@@std@@@std@@QBEIXZ
_TEXT	SEGMENT PARA USE32 PUBLIC 'CODE'
_TEXT	ENDS
;	COMDAT ?size@?$vector@PAVCMiniGameBase@@V?$allocator@PAVCMiniGameBase@@@std@@@std@@QBEIXZ
_TEXT	SEGMENT PARA USE32 PUBLIC 'CODE'
_TEXT	ENDS
;	COMDAT ??A?$vector@PAVCMiniGameBase@@V?$allocator@PAVCMiniGameBase@@@std@@@std@@QAEAAPAVCMiniGameBase@@I@Z
_TEXT	SEGMENT PARA USE32 PUBLIC 'CODE'
_TEXT	ENDS
;	COMDAT ?size@?$vector@UGuildHouse_Furniture_Info@CGuildHouseBase@@V?$allocator@UGuildHouse_Furniture_Info@CGuildHouseBase@@@std@@@std@@QBEIXZ
_TEXT	SEGMENT PARA USE32 PUBLIC 'CODE'
_TEXT	ENDS
;	COMDAT ??A?$vector@UGuildHouse_Furniture_Info@CGuildHouseBase@@V?$allocator@UGuildHouse_Furniture_Info@CGuildHouseBase@@@std@@@std@@QAEAAUGuildHouse_Furniture_Info@CGuildHouseBase@@I@Z
_TEXT	SEGMENT PARA USE32 PUBLIC 'CODE'
_TEXT	ENDS
;	COMDAT ?empty@?$_Tree@V?$_Tmap_traits@KPAVCGuildHouseBase@@U?$less@K@std@@V?$allocator@U?$pair@$$CBKPAVCGuildHouseBase@@@std@@@3@$0A@@std@@@std@@QBE_NXZ
_TEXT	SEGMENT PARA USE32 PUBLIC 'CODE'
_TEXT	ENDS
;	COMDAT ?insert@?$_Tree@V?$_Tmap_traits@KPAVCGuildHouseBase@@U?$less@K@std@@V?$allocator@U?$pair@$$CBKPAVCGuildHouseBase@@@std@@@3@$0A@@std@@@std@@QAE?AU?$pair@Viterator@?$_Tree@V?$_Tmap_traits@KPAVCGuildHouseBase@@U?$less@K@std@@V?$allocator@U?$pair@$$CBKPAVCGuildHouseBase@@@std@@@3@$0A@@std@@@std@@_N@2@ABU?$pair@$$CBKPAVCGuildHouseBase@@@2@@Z
_TEXT	SEGMENT PARA USE32 PUBLIC 'CODE'
_TEXT	ENDS
;	COMDAT ?size@?$_Tree@V?$_Tmap_traits@KPAVCCampusMember@@U?$less@K@std@@V?$allocator@U?$pair@$$CBKPAVCCampusMember@@@std@@@3@$0A@@std@@@std@@QBEIXZ
_TEXT	SEGMENT PARA USE32 PUBLIC 'CODE'
_TEXT	ENDS
;	COMDAT ?empty@?$_Tree@V?$_Tmap_traits@KPAVCCampus@@U?$less@K@std@@V?$allocator@U?$pair@$$CBKPAVCCampus@@@std@@@3@$0A@@std@@@std@@QBE_NXZ
_TEXT	SEGMENT PARA USE32 PUBLIC 'CODE'
_TEXT	ENDS
;	COMDAT ?erase@?$_Tree@V?$_Tmap_traits@KKU?$less@K@std@@V?$allocator@U?$pair@$$CBKK@std@@@2@$0A@@std@@@std@@QAEIABK@Z
_TEXT	SEGMENT PARA USE32 PUBLIC 'CODE'
_TEXT	ENDS
;	COMDAT ?push_back@?$vector@U_PocketController_Result@@V?$allocator@U_PocketController_Result@@@std@@@std@@QAEXABU_PocketController_Result@@@Z
_TEXT	SEGMENT PARA USE32 PUBLIC 'CODE'
_TEXT	ENDS
;	COMDAT ?compare@?$basic_string@DU?$char_traits@D@std@@V?$allocator@D@2@@std@@QBEHIIPBDI@Z
_TEXT	SEGMENT PARA USE32 PUBLIC 'CODE'
_TEXT	ENDS
;	COMDAT ??0?$allocator@V?$basic_string@DU?$char_traits@D@std@@V?$allocator@D@2@@std@@@std@@QAE@XZ
_TEXT	SEGMENT PARA USE32 PUBLIC 'CODE'
_TEXT	ENDS
;	COMDAT ?insert@?$_Tree@V?$_Tmap_traits@KPAVCCtrl@@U?$less@K@std@@V?$allocator@U?$pair@$$CBKPAVCCtrl@@@std@@@3@$0A@@std@@@std@@QAE?AViterator@12@V312@ABU?$pair@$$CBKPAVCCtrl@@@2@@Z
_TEXT	SEGMENT PARA USE32 PUBLIC 'CODE'
_TEXT	ENDS
;	COMDAT ??0?$pair@$$CBKPAVCCtrl@@@std@@QAE@ABKABQAVCCtrl@@@Z
_TEXT	SEGMENT PARA USE32 PUBLIC 'CODE'
_TEXT	ENDS
;	COMDAT ?_Tidy@?$deque@PAUtagACTMSG@@V?$allocator@PAUtagACTMSG@@@std@@@std@@IAEXXZ
_TEXT	SEGMENT PARA USE32 PUBLIC 'CODE'
_TEXT	ENDS
;	COMDAT ??0?$_Deque_val@PAUtagACTMSG@@V?$allocator@PAUtagACTMSG@@@std@@@std@@IAE@V?$allocator@PAUtagACTMSG@@@1@@Z
_TEXT	SEGMENT PARA USE32 PUBLIC 'CODE'
_TEXT	ENDS
;	COMDAT ??0?$allocator@PAUtagACTMSG@@@std@@QAE@XZ
_TEXT	SEGMENT PARA USE32 PUBLIC 'CODE'
_TEXT	ENDS
;	COMDAT ?_Tidy@?$deque@PAUtagMAGICATKMSG@@V?$allocator@PAUtagMAGICATKMSG@@@std@@@std@@IAEXXZ
_TEXT	SEGMENT PARA USE32 PUBLIC 'CODE'
_TEXT	ENDS
;	COMDAT ??0?$_Deque_val@PAUtagMAGICATKMSG@@V?$allocator@PAUtagMAGICATKMSG@@@std@@@std@@IAE@V?$allocator@PAUtagMAGICATKMSG@@@1@@Z
_TEXT	SEGMENT PARA USE32 PUBLIC 'CODE'
_TEXT	ENDS
;	COMDAT ??0?$allocator@PAUtagMAGICATKMSG@@@std@@QAE@XZ
_TEXT	SEGMENT PARA USE32 PUBLIC 'CODE'
_TEXT	ENDS
;	COMDAT ??0iterator@?$deque@PAUtagACTMSG@@V?$allocator@PAUtagACTMSG@@@std@@@std@@QAE@IPBV12@@Z
_TEXT	SEGMENT PARA USE32 PUBLIC 'CODE'
_TEXT	ENDS
;	COMDAT ??Dconst_iterator@?$deque@PAUtagACTMSG@@V?$allocator@PAUtagACTMSG@@@std@@@std@@QBEABQAUtagACTMSG@@XZ
_TEXT	SEGMENT PARA USE32 PUBLIC 'CODE'
_TEXT	ENDS
;	COMDAT ??8const_iterator@?$deque@PAUtagACTMSG@@V?$allocator@PAUtagACTMSG@@@std@@@std@@QBE_NABV012@@Z
_TEXT	SEGMENT PARA USE32 PUBLIC 'CODE'
_TEXT	ENDS
;	COMDAT ??0iterator@?$deque@PAUtagMAGICATKMSG@@V?$allocator@PAUtagMAGICATKMSG@@@std@@@std@@QAE@IPBV12@@Z
_TEXT	SEGMENT PARA USE32 PUBLIC 'CODE'
_TEXT	ENDS
;	COMDAT ??Dconst_iterator@?$deque@PAUtagMAGICATKMSG@@V?$allocator@PAUtagMAGICATKMSG@@@std@@@std@@QBEABQAUtagMAGICATKMSG@@XZ
_TEXT	SEGMENT PARA USE32 PUBLIC 'CODE'
_TEXT	ENDS
;	COMDAT ??8const_iterator@?$deque@PAUtagMAGICATKMSG@@V?$allocator@PAUtagMAGICATKMSG@@@std@@@std@@QBE_NABV012@@Z
_TEXT	SEGMENT PARA USE32 PUBLIC 'CODE'
_TEXT	ENDS
;	COMDAT ?erase@?$_Tree@V?$_Tmap_traits@KU_Friend@@U?$less@K@std@@V?$allocator@U?$pair@$$CBKU_Friend@@@std@@@3@$0A@@std@@@std@@QAE?AViterator@12@V312@0@Z
_TEXT	SEGMENT PARA USE32 PUBLIC 'CODE'
_TEXT	ENDS
;	COMDAT ?equal_range@?$_Tree@V?$_Tmap_traits@KU_Friend@@U?$less@K@std@@V?$allocator@U?$pair@$$CBKU_Friend@@@std@@@3@$0A@@std@@@std@@QAE?AU?$pair@Viterator@?$_Tree@V?$_Tmap_traits@KU_Friend@@U?$less@K@std@@V?$allocator@U?$pair@$$CBKU_Friend@@@std@@@3@$0A@@std@@@std@@V123@@2@ABK@Z
_TEXT	SEGMENT PARA USE32 PUBLIC 'CODE'
_TEXT	ENDS
;	COMDAT ?begin@?$vector@PAU__JOINPLAYER@CGuildCombat@@V?$allocator@PAU__JOINPLAYER@CGuildCombat@@@std@@@std@@QAE?AViterator@12@XZ
_TEXT	SEGMENT PARA USE32 PUBLIC 'CODE'
_TEXT	ENDS
;	COMDAT ?_Tidy@?$vector@PAU__JOINPLAYER@CGuildCombat@@V?$allocator@PAU__JOINPLAYER@CGuildCombat@@@std@@@std@@IAEXXZ
_TEXT	SEGMENT PARA USE32 PUBLIC 'CODE'
_TEXT	ENDS
;	COMDAT ?_Nextnode@?$list@PAU__JOINPLAYER@CGuildCombat@@V?$allocator@PAU__JOINPLAYER@CGuildCombat@@@std@@@std@@KAAAPAU_Node@?$_List_nod@PAU__JOINPLAYER@CGuildCombat@@V?$allocator@PAU__JOINPLAYER@CGuildCombat@@@std@@@2@PAU342@@Z
_TEXT	SEGMENT PARA USE32 PUBLIC 'CODE'
_TEXT	ENDS
;	COMDAT ?_Prevnode@?$list@PAU__JOINPLAYER@CGuildCombat@@V?$allocator@PAU__JOINPLAYER@CGuildCombat@@@std@@@std@@KAAAPAU_Node@?$_List_nod@PAU__JOINPLAYER@CGuildCombat@@V?$allocator@PAU__JOINPLAYER@CGuildCombat@@@std@@@2@PAU342@@Z
_TEXT	SEGMENT PARA USE32 PUBLIC 'CODE'
_TEXT	ENDS
;	COMDAT ?deallocate@?$allocator@U_Node@?$_List_nod@PAU__JOINPLAYER@CGuildCombat@@V?$allocator@PAU__JOINPLAYER@CGuildCombat@@@std@@@std@@@std@@QAEXPAU_Node@?$_List_nod@PAU__JOINPLAYER@CGuildCombat@@V?$allocator@PAU__JOINPLAYER@CGuildCombat@@@std@@@2@I@Z
_TEXT	SEGMENT PARA USE32 PUBLIC 'CODE'
_TEXT	ENDS
;	COMDAT ?destroy@?$allocator@U_Node@?$_List_nod@PAU__JOINPLAYER@CGuildCombat@@V?$allocator@PAU__JOINPLAYER@CGuildCombat@@@std@@@std@@@std@@QAEXPAU_Node@?$_List_nod@PAU__JOINPLAYER@CGuildCombat@@V?$allocator@PAU__JOINPLAYER@CGuildCombat@@@std@@@2@@Z
_TEXT	SEGMENT PARA USE32 PUBLIC 'CODE'
_TEXT	ENDS
;	COMDAT ?_Buy@?$vector@U__SECRETROOM_MONSTER@@V?$allocator@U__SECRETROOM_MONSTER@@@std@@@std@@IAE_NI@Z
_TEXT	SEGMENT PARA USE32 PUBLIC 'CODE'
_TEXT	ENDS
;	COMDAT ?_Tidy@?$vector@U__SECRETROOM_MONSTER@@V?$allocator@U__SECRETROOM_MONSTER@@@std@@@std@@IAEXXZ
_TEXT	SEGMENT PARA USE32 PUBLIC 'CODE'
_TEXT	ENDS
;	COMDAT ??0?$_Vector_val@U__SECRETROOM_MONSTER@@V?$allocator@U__SECRETROOM_MONSTER@@@std@@@std@@IAE@V?$allocator@U__SECRETROOM_MONSTER@@@1@@Z
_TEXT	SEGMENT PARA USE32 PUBLIC 'CODE'
_TEXT	ENDS
;	COMDAT ??0?$allocator@U__SECRETROOM_MONSTER@@@std@@QAE@XZ
_TEXT	SEGMENT PARA USE32 PUBLIC 'CODE'
_TEXT	ENDS
;	COMDAT ?capacity@?$vector@V?$basic_string@DU?$char_traits@D@std@@V?$allocator@D@2@@std@@V?$allocator@V?$basic_string@DU?$char_traits@D@std@@V?$allocator@D@2@@std@@@2@@std@@QBEIXZ
_TEXT	SEGMENT PARA USE32 PUBLIC 'CODE'
_TEXT	ENDS
;	COMDAT ?begin@?$vector@V?$basic_string@DU?$char_traits@D@std@@V?$allocator@D@2@@std@@V?$allocator@V?$basic_string@DU?$char_traits@D@std@@V?$allocator@D@2@@std@@@2@@std@@QAE?AViterator@12@XZ
_TEXT	SEGMENT PARA USE32 PUBLIC 'CODE'
_TEXT	ENDS
;	COMDAT ?end@?$vector@V?$basic_string@DU?$char_traits@D@std@@V?$allocator@D@2@@std@@V?$allocator@V?$basic_string@DU?$char_traits@D@std@@V?$allocator@D@2@@std@@@2@@std@@QAE?AViterator@12@XZ
_TEXT	SEGMENT PARA USE32 PUBLIC 'CODE'
_TEXT	ENDS
;	COMDAT ?insert@?$vector@V?$basic_string@DU?$char_traits@D@std@@V?$allocator@D@2@@std@@V?$allocator@V?$basic_string@DU?$char_traits@D@std@@V?$allocator@D@2@@std@@@2@@std@@QAE?AViterator@12@V312@ABV?$basic_string@DU?$char_traits@D@std@@V?$allocator@D@2@@2@@Z
_TEXT	SEGMENT PARA USE32 PUBLIC 'CODE'
_TEXT	ENDS
;	COMDAT ?_Buy@?$vector@V?$basic_string@DU?$char_traits@D@std@@V?$allocator@D@2@@std@@V?$allocator@V?$basic_string@DU?$char_traits@D@std@@V?$allocator@D@2@@std@@@2@@std@@IAE_NI@Z
_TEXT	SEGMENT PARA USE32 PUBLIC 'CODE'
_TEXT	ENDS
;	COMDAT ?_Tidy@?$vector@V?$basic_string@DU?$char_traits@D@std@@V?$allocator@D@2@@std@@V?$allocator@V?$basic_string@DU?$char_traits@D@std@@V?$allocator@D@2@@std@@@2@@std@@IAEXXZ
_TEXT	SEGMENT PARA USE32 PUBLIC 'CODE'
_TEXT	ENDS
;	COMDAT ?_Ufill@?$vector@V?$basic_string@DU?$char_traits@D@std@@V?$allocator@D@2@@std@@V?$allocator@V?$basic_string@DU?$char_traits@D@std@@V?$allocator@D@2@@std@@@2@@std@@IAEPAV?$basic_string@DU?$char_traits@D@std@@V?$allocator@D@2@@2@PAV32@IABV32@@Z
_TEXT	SEGMENT PARA USE32 PUBLIC 'CODE'
_TEXT	ENDS
;	COMDAT ??0?$_Vector_val@V?$basic_string@DU?$char_traits@D@std@@V?$allocator@D@2@@std@@V?$allocator@V?$basic_string@DU?$char_traits@D@std@@V?$allocator@D@2@@std@@@2@@std@@IAE@V?$allocator@V?$basic_string@DU?$char_traits@D@std@@V?$allocator@D@2@@std@@@1@@Z
_TEXT	SEGMENT PARA USE32 PUBLIC 'CODE'
_TEXT	ENDS
;	COMDAT ?capacity@?$vector@UMINIGMAME_PRIZE_LIST@CRainbowRaceMng@@V?$allocator@UMINIGMAME_PRIZE_LIST@CRainbowRaceMng@@@std@@@std@@QBEIXZ
_TEXT	SEGMENT PARA USE32 PUBLIC 'CODE'
_TEXT	ENDS
;	COMDAT ?end@?$vector@UMINIGMAME_PRIZE_LIST@CRainbowRaceMng@@V?$allocator@UMINIGMAME_PRIZE_LIST@CRainbowRaceMng@@@std@@@std@@QAE?AViterator@12@XZ
_TEXT	SEGMENT PARA USE32 PUBLIC 'CODE'
_TEXT	ENDS
;	COMDAT ?size@?$vector@UMINIGMAME_PRIZE_LIST@CRainbowRaceMng@@V?$allocator@UMINIGMAME_PRIZE_LIST@CRainbowRaceMng@@@std@@@std@@QBEIXZ
_TEXT	SEGMENT PARA USE32 PUBLIC 'CODE'
_TEXT	ENDS
;	COMDAT ?insert@?$vector@UMINIGMAME_PRIZE_LIST@CRainbowRaceMng@@V?$allocator@UMINIGMAME_PRIZE_LIST@CRainbowRaceMng@@@std@@@std@@QAE?AViterator@12@V312@ABUMINIGMAME_PRIZE_LIST@CRainbowRaceMng@@@Z
_TEXT	SEGMENT PARA USE32 PUBLIC 'CODE'
_TEXT	ENDS
;	COMDAT ?_Ufill@?$vector@UMINIGMAME_PRIZE_LIST@CRainbowRaceMng@@V?$allocator@UMINIGMAME_PRIZE_LIST@CRainbowRaceMng@@@std@@@std@@IAEPAUMINIGMAME_PRIZE_LIST@CRainbowRaceMng@@PAU34@IABU34@@Z
_TEXT	SEGMENT PARA USE32 PUBLIC 'CODE'
_TEXT	ENDS
;	COMDAT ?begin@?$vector@PAVCMiniGameBase@@V?$allocator@PAVCMiniGameBase@@@std@@@std@@QAE?AViterator@12@XZ
_TEXT	SEGMENT PARA USE32 PUBLIC 'CODE'
_TEXT	ENDS
;	COMDAT ?begin@?$vector@UGuildHouse_Furniture_Info@CGuildHouseBase@@V?$allocator@UGuildHouse_Furniture_Info@CGuildHouseBase@@@std@@@std@@QAE?AViterator@12@XZ
_TEXT	SEGMENT PARA USE32 PUBLIC 'CODE'
_TEXT	ENDS
;	COMDAT ?_Isnil@?$_Tree@V?$_Tmap_traits@KPAVCGuildHouseBase@@U?$less@K@std@@V?$allocator@U?$pair@$$CBKPAVCGuildHouseBase@@@std@@@3@$0A@@std@@@std@@KAAADPAU_Node@?$_Tree_nod@V?$_Tmap_traits@KPAVCGuildHouseBase@@U?$less@K@std@@V?$allocator@U?$pair@$$CBKPAVCGuildHouseBase@@@std@@@3@$0A@@std@@@2@@Z
_TEXT	SEGMENT PARA USE32 PUBLIC 'CODE'
_TEXT	ENDS
;	COMDAT ?_Key@?$_Tree@V?$_Tmap_traits@KPAVCGuildHouseBase@@U?$less@K@std@@V?$allocator@U?$pair@$$CBKPAVCGuildHouseBase@@@std@@@3@$0A@@std@@@std@@KAABKPAU_Node@?$_Tree_nod@V?$_Tmap_traits@KPAVCGuildHouseBase@@U?$less@K@std@@V?$allocator@U?$pair@$$CBKPAVCGuildHouseBase@@@std@@@3@$0A@@std@@@2@@Z
_TEXT	SEGMENT PARA USE32 PUBLIC 'CODE'
_TEXT	ENDS
;	COMDAT ?_Left@?$_Tree@V?$_Tmap_traits@KPAVCGuildHouseBase@@U?$less@K@std@@V?$allocator@U?$pair@$$CBKPAVCGuildHouseBase@@@std@@@3@$0A@@std@@@std@@KAAAPAU_Node@?$_Tree_nod@V?$_Tmap_traits@KPAVCGuildHouseBase@@U?$less@K@std@@V?$allocator@U?$pair@$$CBKPAVCGuildHouseBase@@@std@@@3@$0A@@std@@@2@PAU342@@Z
_TEXT	SEGMENT PARA USE32 PUBLIC 'CODE'
_TEXT	ENDS
;	COMDAT ?_Right@?$_Tree@V?$_Tmap_traits@KPAVCGuildHouseBase@@U?$less@K@std@@V?$allocator@U?$pair@$$CBKPAVCGuildHouseBase@@@std@@@3@$0A@@std@@@std@@KAAAPAU_Node@?$_Tree_nod@V?$_Tmap_traits@KPAVCGuildHouseBase@@U?$less@K@std@@V?$allocator@U?$pair@$$CBKPAVCGuildHouseBase@@@std@@@3@$0A@@std@@@2@PAU342@@Z
_TEXT	SEGMENT PARA USE32 PUBLIC 'CODE'
_TEXT	ENDS
;	COMDAT ?begin@?$_Tree@V?$_Tmap_traits@KPAVCGuildHouseBase@@U?$less@K@std@@V?$allocator@U?$pair@$$CBKPAVCGuildHouseBase@@@std@@@3@$0A@@std@@@std@@QAE?AViterator@12@XZ
_TEXT	SEGMENT PARA USE32 PUBLIC 'CODE'
_TEXT	ENDS
;	COMDAT ?size@?$_Tree@V?$_Tmap_traits@KPAVCGuildHouseBase@@U?$less@K@std@@V?$allocator@U?$pair@$$CBKPAVCGuildHouseBase@@@std@@@3@$0A@@std@@@std@@QBEIXZ
_TEXT	SEGMENT PARA USE32 PUBLIC 'CODE'
_TEXT	ENDS
;	COMDAT ?_Insert@?$_Tree@V?$_Tmap_traits@KPAVCGuildHouseBase@@U?$less@K@std@@V?$allocator@U?$pair@$$CBKPAVCGuildHouseBase@@@std@@@3@$0A@@std@@@std@@IAE?AViterator@12@_NPAU_Node@?$_Tree_nod@V?$_Tmap_traits@KPAVCGuildHouseBase@@U?$less@K@std@@V?$allocator@U?$pair@$$CBKPAVCGuildHouseBase@@@std@@@3@$0A@@std@@@2@ABU?$pair@$$CBKPAVCGuildHouseBase@@@2@@Z
_TEXT	SEGMENT PARA USE32 PUBLIC 'CODE'
_TEXT	ENDS
;	COMDAT ?_Root@?$_Tree@V?$_Tmap_traits@KPAVCGuildHouseBase@@U?$less@K@std@@V?$allocator@U?$pair@$$CBKPAVCGuildHouseBase@@@std@@@3@$0A@@std@@@std@@IAEAAPAU_Node@?$_Tree_nod@V?$_Tmap_traits@KPAVCGuildHouseBase@@U?$less@K@std@@V?$allocator@U?$pair@$$CBKPAVCGuildHouseBase@@@std@@@3@$0A@@std@@@2@XZ
_TEXT	SEGMENT PARA USE32 PUBLIC 'CODE'
_TEXT	ENDS
;	COMDAT ?_Kfn@?$_Tmap_traits@KPAVCGuildHouseBase@@U?$less@K@std@@V?$allocator@U?$pair@$$CBKPAVCGuildHouseBase@@@std@@@3@$0A@@std@@SAABKABU?$pair@$$CBKPAVCGuildHouseBase@@@2@@Z
_TEXT	SEGMENT PARA USE32 PUBLIC 'CODE'
_TEXT	ENDS
;	COMDAT ??0?$pair@Viterator@?$_Tree@V?$_Tmap_traits@KPAVCGuildHouseBase@@U?$less@K@std@@V?$allocator@U?$pair@$$CBKPAVCGuildHouseBase@@@std@@@3@$0A@@std@@@std@@_N@std@@QAE@ABViterator@?$_Tree@V?$_Tmap_traits@KPAVCGuildHouseBase@@U?$less@K@std@@V?$allocator@U?$pair@$$CBKPAVCGuildHouseBase@@@std@@@3@$0A@@std@@@1@AB_N@Z
_TEXT	SEGMENT PARA USE32 PUBLIC 'CODE'
_TEXT	ENDS
;	COMDAT ??0iterator@?$_Tree@V?$_Tmap_traits@KPAVCGuildHouseBase@@U?$less@K@std@@V?$allocator@U?$pair@$$CBKPAVCGuildHouseBase@@@std@@@3@$0A@@std@@@std@@QAE@PAU_Node@?$_Tree_nod@V?$_Tmap_traits@KPAVCGuildHouseBase@@U?$less@K@std@@V?$allocator@U?$pair@$$CBKPAVCGuildHouseBase@@@std@@@3@$0A@@std@@@2@@Z
_TEXT	SEGMENT PARA USE32 PUBLIC 'CODE'
_TEXT	ENDS
;	COMDAT ??Fiterator@?$_Tree@V?$_Tmap_traits@KPAVCGuildHouseBase@@U?$less@K@std@@V?$allocator@U?$pair@$$CBKPAVCGuildHouseBase@@@std@@@3@$0A@@std@@@std@@QAEAAV012@XZ
_TEXT	SEGMENT PARA USE32 PUBLIC 'CODE'
_TEXT	ENDS
;	COMDAT ??8const_iterator@?$_Tree@V?$_Tmap_traits@KPAVCGuildHouseBase@@U?$less@K@std@@V?$allocator@U?$pair@$$CBKPAVCGuildHouseBase@@@std@@@3@$0A@@std@@@std@@QBE_NABV012@@Z
_TEXT	SEGMENT PARA USE32 PUBLIC 'CODE'
_TEXT	ENDS
;	COMDAT ?_Mynode@const_iterator@?$_Tree@V?$_Tmap_traits@KPAVCGuildHouseBase@@U?$less@K@std@@V?$allocator@U?$pair@$$CBKPAVCGuildHouseBase@@@std@@@3@$0A@@std@@@std@@QBEPAU_Node@?$_Tree_nod@V?$_Tmap_traits@KPAVCGuildHouseBase@@U?$less@K@std@@V?$allocator@U?$pair@$$CBKPAVCGuildHouseBase@@@std@@@3@$0A@@std@@@3@XZ
_TEXT	SEGMENT PARA USE32 PUBLIC 'CODE'
_TEXT	ENDS
;	COMDAT ?size@?$_Tree@V?$_Tmap_traits@KPAVCCampus@@U?$less@K@std@@V?$allocator@U?$pair@$$CBKPAVCCampus@@@std@@@3@$0A@@std@@@std@@QBEIXZ
_TEXT	SEGMENT PARA USE32 PUBLIC 'CODE'
_TEXT	ENDS
;	COMDAT ?erase@?$_Tree@V?$_Tmap_traits@KKU?$less@K@std@@V?$allocator@U?$pair@$$CBKK@std@@@2@$0A@@std@@@std@@QAE?AViterator@12@V312@0@Z
_TEXT	SEGMENT PARA USE32 PUBLIC 'CODE'
_TEXT	ENDS
;	COMDAT ?equal_range@?$_Tree@V?$_Tmap_traits@KKU?$less@K@std@@V?$allocator@U?$pair@$$CBKK@std@@@2@$0A@@std@@@std@@QAE?AU?$pair@Viterator@?$_Tree@V?$_Tmap_traits@KKU?$less@K@std@@V?$allocator@U?$pair@$$CBKK@std@@@2@$0A@@std@@@std@@V123@@2@ABK@Z
_TEXT	SEGMENT PARA USE32 PUBLIC 'CODE'
_TEXT	ENDS
;	COMDAT ?capacity@?$vector@U_PocketController_Result@@V?$allocator@U_PocketController_Result@@@std@@@std@@QBEIXZ
_TEXT	SEGMENT PARA USE32 PUBLIC 'CODE'
_TEXT	ENDS
;	COMDAT ?end@?$vector@U_PocketController_Result@@V?$allocator@U_PocketController_Result@@@std@@@std@@QAE?AViterator@12@XZ
_TEXT	SEGMENT PARA USE32 PUBLIC 'CODE'
_TEXT	ENDS
;	COMDAT ?size@?$vector@U_PocketController_Result@@V?$allocator@U_PocketController_Result@@@std@@@std@@QBEIXZ
_TEXT	SEGMENT PARA USE32 PUBLIC 'CODE'
_TEXT	ENDS
;	COMDAT ?insert@?$vector@U_PocketController_Result@@V?$allocator@U_PocketController_Result@@@std@@@std@@QAE?AViterator@12@V312@ABU_PocketController_Result@@@Z
_TEXT	SEGMENT PARA USE32 PUBLIC 'CODE'
_TEXT	ENDS
;	COMDAT ?_Ufill@?$vector@U_PocketController_Result@@V?$allocator@U_PocketController_Result@@@std@@@std@@IAEPAU_PocketController_Result@@PAU3@IABU3@@Z
_TEXT	SEGMENT PARA USE32 PUBLIC 'CODE'
_TEXT	ENDS
;	COMDAT ??Diterator@?$vector@PAU__JOINPLAYER@CGuildCombat@@V?$allocator@PAU__JOINPLAYER@CGuildCombat@@@std@@@std@@QBEAAPAU__JOINPLAYER@CGuildCombat@@XZ
_TEXT	SEGMENT PARA USE32 PUBLIC 'CODE'
_TEXT	ENDS
;	COMDAT ??Hiterator@?$vector@PAU__JOINPLAYER@CGuildCombat@@V?$allocator@PAU__JOINPLAYER@CGuildCombat@@@std@@@std@@QBE?AV012@H@Z
_TEXT	SEGMENT PARA USE32 PUBLIC 'CODE'
_TEXT	ENDS
;	COMDAT ??Diterator@?$vector@V?$basic_string@DU?$char_traits@D@std@@V?$allocator@D@2@@std@@V?$allocator@V?$basic_string@DU?$char_traits@D@std@@V?$allocator@D@2@@std@@@2@@std@@QBEAAV?$basic_string@DU?$char_traits@D@std@@V?$allocator@D@2@@2@XZ
_TEXT	SEGMENT PARA USE32 PUBLIC 'CODE'
_TEXT	ENDS
;	COMDAT ??Hiterator@?$vector@V?$basic_string@DU?$char_traits@D@std@@V?$allocator@D@2@@std@@V?$allocator@V?$basic_string@DU?$char_traits@D@std@@V?$allocator@D@2@@std@@@2@@std@@QBE?AV012@H@Z
_TEXT	SEGMENT PARA USE32 PUBLIC 'CODE'
_TEXT	ENDS
;	COMDAT ??Diterator@?$vector@PAVCMiniGameBase@@V?$allocator@PAVCMiniGameBase@@@std@@@std@@QBEAAPAVCMiniGameBase@@XZ
_TEXT	SEGMENT PARA USE32 PUBLIC 'CODE'
_TEXT	ENDS
;	COMDAT ??Hiterator@?$vector@PAVCMiniGameBase@@V?$allocator@PAVCMiniGameBase@@@std@@@std@@QBE?AV012@H@Z
_TEXT	SEGMENT PARA USE32 PUBLIC 'CODE'
_TEXT	ENDS
;	COMDAT ??Diterator@?$vector@UGuildHouse_Furniture_Info@CGuildHouseBase@@V?$allocator@UGuildHouse_Furniture_Info@CGuildHouseBase@@@std@@@std@@QBEAAUGuildHouse_Furniture_Info@CGuildHouseBase@@XZ
_TEXT	SEGMENT PARA USE32 PUBLIC 'CODE'
_TEXT	ENDS
;	COMDAT ??Hiterator@?$vector@UGuildHouse_Furniture_Info@CGuildHouseBase@@V?$allocator@UGuildHouse_Furniture_Info@CGuildHouseBase@@@std@@@std@@QBE?AV012@H@Z
_TEXT	SEGMENT PARA USE32 PUBLIC 'CODE'
_TEXT	ENDS
;	COMDAT ??0?$allocator@V?$basic_string@DU?$char_traits@D@std@@V?$allocator@D@2@@std@@@std@@QAE@ABV01@@Z
_TEXT	SEGMENT PARA USE32 PUBLIC 'CODE'
_TEXT	ENDS
;	COMDAT ?deallocate@?$allocator@V?$basic_string@DU?$char_traits@D@std@@V?$allocator@D@2@@std@@@std@@QAEXPAV?$basic_string@DU?$char_traits@D@std@@V?$allocator@D@2@@2@I@Z
_TEXT	SEGMENT PARA USE32 PUBLIC 'CODE'
_TEXT	ENDS
;	COMDAT ?allocate@?$allocator@V?$basic_string@DU?$char_traits@D@std@@V?$allocator@D@2@@std@@@std@@QAEPAV?$basic_string@DU?$char_traits@D@std@@V?$allocator@D@2@@2@I@Z
_TEXT	SEGMENT PARA USE32 PUBLIC 'CODE'
_TEXT	ENDS
;	COMDAT ?size@?$_Tree@V?$_Tmap_traits@KPAVCCtrl@@U?$less@K@std@@V?$allocator@U?$pair@$$CBKPAVCCtrl@@@std@@@3@$0A@@std@@@std@@QBEIXZ
_TEXT	SEGMENT PARA USE32 PUBLIC 'CODE'
_TEXT	ENDS
;	COMDAT ??0iterator@?$_Tree@V?$_Tmap_traits@KPAVCCtrl@@U?$less@K@std@@V?$allocator@U?$pair@$$CBKPAVCCtrl@@@std@@@3@$0A@@std@@@std@@QAE@XZ
_TEXT	SEGMENT PARA USE32 PUBLIC 'CODE'
_TEXT	ENDS
;	COMDAT ?pop_back@?$deque@PAUtagACTMSG@@V?$allocator@PAUtagACTMSG@@@std@@@std@@QAEXXZ
_TEXT	SEGMENT PARA USE32 PUBLIC 'CODE'
_TEXT	ENDS
;	COMDAT ??0?$_Deque_map@PAUtagACTMSG@@V?$allocator@PAUtagACTMSG@@@std@@@std@@IAE@V?$allocator@PAUtagACTMSG@@@1@@Z
_TEXT	SEGMENT PARA USE32 PUBLIC 'CODE'
_TEXT	ENDS
;	COMDAT ??0?$allocator@PAUtagACTMSG@@@std@@QAE@ABV01@@Z
_TEXT	SEGMENT PARA USE32 PUBLIC 'CODE'
_TEXT	ENDS
;	COMDAT ?deallocate@?$allocator@PAUtagACTMSG@@@std@@QAEXPAPAUtagACTMSG@@I@Z
_TEXT	SEGMENT PARA USE32 PUBLIC 'CODE'
_TEXT	ENDS
;	COMDAT ?deallocate@?$allocator@PAPAUtagACTMSG@@@std@@QAEXPAPAPAUtagACTMSG@@I@Z
_TEXT	SEGMENT PARA USE32 PUBLIC 'CODE'
_TEXT	ENDS
;	COMDAT ?destroy@?$allocator@PAPAUtagACTMSG@@@std@@QAEXPAPAPAUtagACTMSG@@@Z
_TEXT	SEGMENT PARA USE32 PUBLIC 'CODE'
_TEXT	ENDS
;	COMDAT ?pop_back@?$deque@PAUtagMAGICATKMSG@@V?$allocator@PAUtagMAGICATKMSG@@@std@@@std@@QAEXXZ
_TEXT	SEGMENT PARA USE32 PUBLIC 'CODE'
_TEXT	ENDS
;	COMDAT ??0?$_Deque_map@PAUtagMAGICATKMSG@@V?$allocator@PAUtagMAGICATKMSG@@@std@@@std@@IAE@V?$allocator@PAUtagMAGICATKMSG@@@1@@Z
_TEXT	SEGMENT PARA USE32 PUBLIC 'CODE'
_TEXT	ENDS
;	COMDAT ??0?$allocator@PAUtagMAGICATKMSG@@@std@@QAE@ABV01@@Z
_TEXT	SEGMENT PARA USE32 PUBLIC 'CODE'
_TEXT	ENDS
;	COMDAT ?deallocate@?$allocator@PAUtagMAGICATKMSG@@@std@@QAEXPAPAUtagMAGICATKMSG@@I@Z
_TEXT	SEGMENT PARA USE32 PUBLIC 'CODE'
_TEXT	ENDS
;	COMDAT ?deallocate@?$allocator@PAPAUtagMAGICATKMSG@@@std@@QAEXPAPAPAUtagMAGICATKMSG@@I@Z
_TEXT	SEGMENT PARA USE32 PUBLIC 'CODE'
_TEXT	ENDS
;	COMDAT ?destroy@?$allocator@PAPAUtagMAGICATKMSG@@@std@@QAEXPAPAPAUtagMAGICATKMSG@@@Z
_TEXT	SEGMENT PARA USE32 PUBLIC 'CODE'
_TEXT	ENDS
;	COMDAT ??0const_iterator@?$deque@PAUtagACTMSG@@V?$allocator@PAUtagACTMSG@@@std@@@std@@QAE@IPBV12@@Z
_TEXT	SEGMENT PARA USE32 PUBLIC 'CODE'
_TEXT	ENDS
;	COMDAT ??0const_iterator@?$deque@PAUtagMAGICATKMSG@@V?$allocator@PAUtagMAGICATKMSG@@@std@@@std@@QAE@IPBV12@@Z
_TEXT	SEGMENT PARA USE32 PUBLIC 'CODE'
_TEXT	ENDS
;	COMDAT ?begin@?$_Tree@V?$_Tmap_traits@KU_Friend@@U?$less@K@std@@V?$allocator@U?$pair@$$CBKU_Friend@@@std@@@3@$0A@@std@@@std@@QAE?AViterator@12@XZ
_TEXT	SEGMENT PARA USE32 PUBLIC 'CODE'
_TEXT	ENDS
;	COMDAT ?end@?$_Tree@V?$_Tmap_traits@KU_Friend@@U?$less@K@std@@V?$allocator@U?$pair@$$CBKU_Friend@@@std@@@3@$0A@@std@@@std@@QAE?AViterator@12@XZ
_TEXT	SEGMENT PARA USE32 PUBLIC 'CODE'
_TEXT	ENDS
;	COMDAT ?erase@?$_Tree@V?$_Tmap_traits@KU_Friend@@U?$less@K@std@@V?$allocator@U?$pair@$$CBKU_Friend@@@std@@@3@$0A@@std@@@std@@QAE?AViterator@12@V312@@Z
_TEXT	SEGMENT PARA USE32 PUBLIC 'CODE'
_TEXT	ENDS
;	COMDAT ?clear@?$_Tree@V?$_Tmap_traits@KU_Friend@@U?$less@K@std@@V?$allocator@U?$pair@$$CBKU_Friend@@@std@@@3@$0A@@std@@@std@@QAEXXZ
_TEXT	SEGMENT PARA USE32 PUBLIC 'CODE'
_TEXT	ENDS
;	COMDAT ?lower_bound@?$_Tree@V?$_Tmap_traits@KU_Friend@@U?$less@K@std@@V?$allocator@U?$pair@$$CBKU_Friend@@@std@@@3@$0A@@std@@@std@@QAE?AViterator@12@ABK@Z
_TEXT	SEGMENT PARA USE32 PUBLIC 'CODE'
_TEXT	ENDS
;	COMDAT ?upper_bound@?$_Tree@V?$_Tmap_traits@KU_Friend@@U?$less@K@std@@V?$allocator@U?$pair@$$CBKU_Friend@@@std@@@3@$0A@@std@@@std@@QAE?AViterator@12@ABK@Z
_TEXT	SEGMENT PARA USE32 PUBLIC 'CODE'
_TEXT	ENDS
;	COMDAT ??Eiterator@?$_Tree@V?$_Tmap_traits@KU_Friend@@U?$less@K@std@@V?$allocator@U?$pair@$$CBKU_Friend@@@std@@@3@$0A@@std@@@std@@QAE?AV012@H@Z
_TEXT	SEGMENT PARA USE32 PUBLIC 'CODE'
_TEXT	ENDS
;	COMDAT ??8const_iterator@?$_Tree@V?$_Tmap_traits@KU_Friend@@U?$less@K@std@@V?$allocator@U?$pair@$$CBKU_Friend@@@std@@@3@$0A@@std@@@std@@QBE_NABV012@@Z
_TEXT	SEGMENT PARA USE32 PUBLIC 'CODE'
_TEXT	ENDS
;	COMDAT ??9const_iterator@?$_Tree@V?$_Tmap_traits@KU_Friend@@U?$less@K@std@@V?$allocator@U?$pair@$$CBKU_Friend@@@std@@@3@$0A@@std@@@std@@QBE_NABV012@@Z
_TEXT	SEGMENT PARA USE32 PUBLIC 'CODE'
_TEXT	ENDS
;	COMDAT ?_Destroy@?$vector@PAU__JOINPLAYER@CGuildCombat@@V?$allocator@PAU__JOINPLAYER@CGuildCombat@@@std@@@std@@IAEXPAPAU__JOINPLAYER@CGuildCombat@@0@Z
_TEXT	SEGMENT PARA USE32 PUBLIC 'CODE'
_TEXT	ENDS
;	COMDAT ?deallocate@?$allocator@PAU__JOINPLAYER@CGuildCombat@@@std@@QAEXPAPAU__JOINPLAYER@CGuildCombat@@I@Z
_TEXT	SEGMENT PARA USE32 PUBLIC 'CODE'
_TEXT	ENDS
;	COMDAT ?max_size@?$vector@U__SECRETROOM_MONSTER@@V?$allocator@U__SECRETROOM_MONSTER@@@std@@@std@@QBEIXZ
_TEXT	SEGMENT PARA USE32 PUBLIC 'CODE'
_TEXT	ENDS
;	COMDAT ?_Destroy@?$vector@U__SECRETROOM_MONSTER@@V?$allocator@U__SECRETROOM_MONSTER@@@std@@@std@@IAEXPAU__SECRETROOM_MONSTER@@0@Z
_TEXT	SEGMENT PARA USE32 PUBLIC 'CODE'
_TEXT	ENDS
;	COMDAT ?_Xlen@?$vector@U__SECRETROOM_MONSTER@@V?$allocator@U__SECRETROOM_MONSTER@@@std@@@std@@IBEXXZ
_TEXT	SEGMENT PARA USE32 PUBLIC 'CODE'
_TEXT	ENDS
;	COMDAT ??0?$allocator@U__SECRETROOM_MONSTER@@@std@@QAE@ABV01@@Z
_TEXT	SEGMENT PARA USE32 PUBLIC 'CODE'
_TEXT	ENDS
;	COMDAT ?deallocate@?$allocator@U__SECRETROOM_MONSTER@@@std@@QAEXPAU__SECRETROOM_MONSTER@@I@Z
_TEXT	SEGMENT PARA USE32 PUBLIC 'CODE'
_TEXT	ENDS
;	COMDAT ?allocate@?$allocator@U__SECRETROOM_MONSTER@@@std@@QAEPAU__SECRETROOM_MONSTER@@I@Z
_TEXT	SEGMENT PARA USE32 PUBLIC 'CODE'
_TEXT	ENDS
;	COMDAT ?max_size@?$vector@V?$basic_string@DU?$char_traits@D@std@@V?$allocator@D@2@@std@@V?$allocator@V?$basic_string@DU?$char_traits@D@std@@V?$allocator@D@2@@std@@@2@@std@@QBEIXZ
_TEXT	SEGMENT PARA USE32 PUBLIC 'CODE'
_TEXT	ENDS
;	COMDAT ?_Destroy@?$vector@V?$basic_string@DU?$char_traits@D@std@@V?$allocator@D@2@@std@@V?$allocator@V?$basic_string@DU?$char_traits@D@std@@V?$allocator@D@2@@std@@@2@@std@@IAEXPAV?$basic_string@DU?$char_traits@D@std@@V?$allocator@D@2@@2@0@Z
_TEXT	SEGMENT PARA USE32 PUBLIC 'CODE'
_TEXT	ENDS
;	COMDAT ?_Insert_n@?$vector@V?$basic_string@DU?$char_traits@D@std@@V?$allocator@D@2@@std@@V?$allocator@V?$basic_string@DU?$char_traits@D@std@@V?$allocator@D@2@@std@@@2@@std@@IAEXViterator@12@IABV?$basic_string@DU?$char_traits@D@std@@V?$allocator@D@2@@2@@Z
_TEXT	SEGMENT PARA USE32 PUBLIC 'CODE'
_TEXT	ENDS
;	COMDAT ?_Xlen@?$vector@V?$basic_string@DU?$char_traits@D@std@@V?$allocator@D@2@@std@@V?$allocator@V?$basic_string@DU?$char_traits@D@std@@V?$allocator@D@2@@std@@@2@@std@@IBEXXZ
_TEXT	SEGMENT PARA USE32 PUBLIC 'CODE'
_TEXT	ENDS
;	COMDAT ?begin@?$vector@UMINIGMAME_PRIZE_LIST@CRainbowRaceMng@@V?$allocator@UMINIGMAME_PRIZE_LIST@CRainbowRaceMng@@@std@@@std@@QAE?AViterator@12@XZ
_TEXT	SEGMENT PARA USE32 PUBLIC 'CODE'
_TEXT	ENDS
;	COMDAT ?_Insert_n@?$vector@UMINIGMAME_PRIZE_LIST@CRainbowRaceMng@@V?$allocator@UMINIGMAME_PRIZE_LIST@CRainbowRaceMng@@@std@@@std@@IAEXViterator@12@IABUMINIGMAME_PRIZE_LIST@CRainbowRaceMng@@@Z
_TEXT	SEGMENT PARA USE32 PUBLIC 'CODE'
_TEXT	ENDS
;	COMDAT ?_Color@?$_Tree@V?$_Tmap_traits@KPAVCGuildHouseBase@@U?$less@K@std@@V?$allocator@U?$pair@$$CBKPAVCGuildHouseBase@@@std@@@3@$0A@@std@@@std@@KAAADPAU_Node@?$_Tree_nod@V?$_Tmap_traits@KPAVCGuildHouseBase@@U?$less@K@std@@V?$allocator@U?$pair@$$CBKPAVCGuildHouseBase@@@std@@@3@$0A@@std@@@2@@Z
_TEXT	SEGMENT PARA USE32 PUBLIC 'CODE'
_TEXT	ENDS
;	COMDAT ?_Parent@?$_Tree@V?$_Tmap_traits@KPAVCGuildHouseBase@@U?$less@K@std@@V?$allocator@U?$pair@$$CBKPAVCGuildHouseBase@@@std@@@3@$0A@@std@@@std@@KAAAPAU_Node@?$_Tree_nod@V?$_Tmap_traits@KPAVCGuildHouseBase@@U?$less@K@std@@V?$allocator@U?$pair@$$CBKPAVCGuildHouseBase@@@std@@@3@$0A@@std@@@2@PAU342@@Z
_TEXT	SEGMENT PARA USE32 PUBLIC 'CODE'
_TEXT	ENDS
;	COMDAT ?_Myval@?$_Tree@V?$_Tmap_traits@KPAVCGuildHouseBase@@U?$less@K@std@@V?$allocator@U?$pair@$$CBKPAVCGuildHouseBase@@@std@@@3@$0A@@std@@@std@@KAAAU?$pair@$$CBKPAVCGuildHouseBase@@@2@PAU_Node@?$_Tree_nod@V?$_Tmap_traits@KPAVCGuildHouseBase@@U?$less@K@std@@V?$allocator@U?$pair@$$CBKPAVCGuildHouseBase@@@std@@@3@$0A@@std@@@2@@Z
_TEXT	SEGMENT PARA USE32 PUBLIC 'CODE'
_TEXT	ENDS
;	COMDAT ?max_size@?$_Tree@V?$_Tmap_traits@KPAVCGuildHouseBase@@U?$less@K@std@@V?$allocator@U?$pair@$$CBKPAVCGuildHouseBase@@@std@@@3@$0A@@std@@@std@@QBEIXZ
_TEXT	SEGMENT PARA USE32 PUBLIC 'CODE'
_TEXT	ENDS
;	COMDAT ?_Lmost@?$_Tree@V?$_Tmap_traits@KPAVCGuildHouseBase@@U?$less@K@std@@V?$allocator@U?$pair@$$CBKPAVCGuildHouseBase@@@std@@@3@$0A@@std@@@std@@IAEAAPAU_Node@?$_Tree_nod@V?$_Tmap_traits@KPAVCGuildHouseBase@@U?$less@K@std@@V?$allocator@U?$pair@$$CBKPAVCGuildHouseBase@@@std@@@3@$0A@@std@@@2@XZ
_TEXT	SEGMENT PARA USE32 PUBLIC 'CODE'
_TEXT	ENDS
;	COMDAT ?_Lrotate@?$_Tree@V?$_Tmap_traits@KPAVCGuildHouseBase@@U?$less@K@std@@V?$allocator@U?$pair@$$CBKPAVCGuildHouseBase@@@std@@@3@$0A@@std@@@std@@IAEXPAU_Node@?$_Tree_nod@V?$_Tmap_traits@KPAVCGuildHouseBase@@U?$less@K@std@@V?$allocator@U?$pair@$$CBKPAVCGuildHouseBase@@@std@@@3@$0A@@std@@@2@@Z
_TEXT	SEGMENT PARA USE32 PUBLIC 'CODE'
_TEXT	ENDS
;	COMDAT ?_Rmost@?$_Tree@V?$_Tmap_traits@KPAVCGuildHouseBase@@U?$less@K@std@@V?$allocator@U?$pair@$$CBKPAVCGuildHouseBase@@@std@@@3@$0A@@std@@@std@@IAEAAPAU_Node@?$_Tree_nod@V?$_Tmap_traits@KPAVCGuildHouseBase@@U?$less@K@std@@V?$allocator@U?$pair@$$CBKPAVCGuildHouseBase@@@std@@@3@$0A@@std@@@2@XZ
_TEXT	SEGMENT PARA USE32 PUBLIC 'CODE'
_TEXT	ENDS
;	COMDAT ?_Rrotate@?$_Tree@V?$_Tmap_traits@KPAVCGuildHouseBase@@U?$less@K@std@@V?$allocator@U?$pair@$$CBKPAVCGuildHouseBase@@@std@@@3@$0A@@std@@@std@@IAEXPAU_Node@?$_Tree_nod@V?$_Tmap_traits@KPAVCGuildHouseBase@@U?$less@K@std@@V?$allocator@U?$pair@$$CBKPAVCGuildHouseBase@@@std@@@3@$0A@@std@@@2@@Z
_TEXT	SEGMENT PARA USE32 PUBLIC 'CODE'
_TEXT	ENDS
;	COMDAT ?_Buynode@?$_Tree@V?$_Tmap_traits@KPAVCGuildHouseBase@@U?$less@K@std@@V?$allocator@U?$pair@$$CBKPAVCGuildHouseBase@@@std@@@3@$0A@@std@@@std@@IAEPAU_Node@?$_Tree_nod@V?$_Tmap_traits@KPAVCGuildHouseBase@@U?$less@K@std@@V?$allocator@U?$pair@$$CBKPAVCGuildHouseBase@@@std@@@3@$0A@@std@@@2@PAU342@00ABU?$pair@$$CBKPAVCGuildHouseBase@@@2@D@Z
_TEXT	SEGMENT PARA USE32 PUBLIC 'CODE'
_TEXT	ENDS
;	COMDAT ??0const_iterator@?$_Tree@V?$_Tmap_traits@KPAVCGuildHouseBase@@U?$less@K@std@@V?$allocator@U?$pair@$$CBKPAVCGuildHouseBase@@@std@@@3@$0A@@std@@@std@@QAE@PAU_Node@?$_Tree_nod@V?$_Tmap_traits@KPAVCGuildHouseBase@@U?$less@K@std@@V?$allocator@U?$pair@$$CBKPAVCGuildHouseBase@@@std@@@3@$0A@@std@@@2@@Z
_TEXT	SEGMENT PARA USE32 PUBLIC 'CODE'
_TEXT	ENDS
;	COMDAT ??Fconst_iterator@?$_Tree@V?$_Tmap_traits@KPAVCGuildHouseBase@@U?$less@K@std@@V?$allocator@U?$pair@$$CBKPAVCGuildHouseBase@@@std@@@3@$0A@@std@@@std@@QAEAAV012@XZ
_TEXT	SEGMENT PARA USE32 PUBLIC 'CODE'
_TEXT	ENDS
;	COMDAT ?begin@?$_Tree@V?$_Tmap_traits@KKU?$less@K@std@@V?$allocator@U?$pair@$$CBKK@std@@@2@$0A@@std@@@std@@QAE?AViterator@12@XZ
_TEXT	SEGMENT PARA USE32 PUBLIC 'CODE'
_TEXT	ENDS
;	COMDAT ?end@?$_Tree@V?$_Tmap_traits@KKU?$less@K@std@@V?$allocator@U?$pair@$$CBKK@std@@@2@$0A@@std@@@std@@QAE?AViterator@12@XZ
_TEXT	SEGMENT PARA USE32 PUBLIC 'CODE'
_TEXT	ENDS
;	COMDAT ?erase@?$_Tree@V?$_Tmap_traits@KKU?$less@K@std@@V?$allocator@U?$pair@$$CBKK@std@@@2@$0A@@std@@@std@@QAE?AViterator@12@V312@@Z
_TEXT	SEGMENT PARA USE32 PUBLIC 'CODE'
_TEXT	ENDS
;	COMDAT ?clear@?$_Tree@V?$_Tmap_traits@KKU?$less@K@std@@V?$allocator@U?$pair@$$CBKK@std@@@2@$0A@@std@@@std@@QAEXXZ
_TEXT	SEGMENT PARA USE32 PUBLIC 'CODE'
_TEXT	ENDS
;	COMDAT ?lower_bound@?$_Tree@V?$_Tmap_traits@KKU?$less@K@std@@V?$allocator@U?$pair@$$CBKK@std@@@2@$0A@@std@@@std@@QAE?AViterator@12@ABK@Z
_TEXT	SEGMENT PARA USE32 PUBLIC 'CODE'
_TEXT	ENDS
;	COMDAT ?upper_bound@?$_Tree@V?$_Tmap_traits@KKU?$less@K@std@@V?$allocator@U?$pair@$$CBKK@std@@@2@$0A@@std@@@std@@QAE?AViterator@12@ABK@Z
_TEXT	SEGMENT PARA USE32 PUBLIC 'CODE'
_TEXT	ENDS
;	COMDAT ??Eiterator@?$_Tree@V?$_Tmap_traits@KKU?$less@K@std@@V?$allocator@U?$pair@$$CBKK@std@@@2@$0A@@std@@@std@@QAE?AV012@H@Z
_TEXT	SEGMENT PARA USE32 PUBLIC 'CODE'
_TEXT	ENDS
;	COMDAT ??8const_iterator@?$_Tree@V?$_Tmap_traits@KKU?$less@K@std@@V?$allocator@U?$pair@$$CBKK@std@@@2@$0A@@std@@@std@@QBE_NABV012@@Z
_TEXT	SEGMENT PARA USE32 PUBLIC 'CODE'
_TEXT	ENDS
;	COMDAT ??9const_iterator@?$_Tree@V?$_Tmap_traits@KKU?$less@K@std@@V?$allocator@U?$pair@$$CBKK@std@@@2@$0A@@std@@@std@@QBE_NABV012@@Z
_TEXT	SEGMENT PARA USE32 PUBLIC 'CODE'
_TEXT	ENDS
;	COMDAT ?begin@?$vector@U_PocketController_Result@@V?$allocator@U_PocketController_Result@@@std@@@std@@QAE?AViterator@12@XZ
_TEXT	SEGMENT PARA USE32 PUBLIC 'CODE'
_TEXT	ENDS
;	COMDAT ?_Insert_n@?$vector@U_PocketController_Result@@V?$allocator@U_PocketController_Result@@@std@@@std@@IAEXViterator@12@IABU_PocketController_Result@@@Z
_TEXT	SEGMENT PARA USE32 PUBLIC 'CODE'
_TEXT	ENDS
;	COMDAT ??0?$pair@Viterator@?$_Tree@V?$_Tmap_traits@KU_Friend@@U?$less@K@std@@V?$allocator@U?$pair@$$CBKU_Friend@@@std@@@3@$0A@@std@@@std@@V123@@std@@QAE@ABViterator@?$_Tree@V?$_Tmap_traits@KU_Friend@@U?$less@K@std@@V?$allocator@U?$pair@$$CBKU_Friend@@@std@@@3@$0A@@std@@@1@0@Z
_TEXT	SEGMENT PARA USE32 PUBLIC 'CODE'
_TEXT	ENDS
;	COMDAT ??0iterator@?$vector@PAU__JOINPLAYER@CGuildCombat@@V?$allocator@PAU__JOINPLAYER@CGuildCombat@@@std@@@std@@QAE@PAPAU__JOINPLAYER@CGuildCombat@@@Z
_TEXT	SEGMENT PARA USE32 PUBLIC 'CODE'
_TEXT	ENDS
;	COMDAT ??Yiterator@?$vector@PAU__JOINPLAYER@CGuildCombat@@V?$allocator@PAU__JOINPLAYER@CGuildCombat@@@std@@@std@@QAEAAV012@H@Z
_TEXT	SEGMENT PARA USE32 PUBLIC 'CODE'
_TEXT	ENDS
;	COMDAT ??Dconst_iterator@?$vector@PAU__JOINPLAYER@CGuildCombat@@V?$allocator@PAU__JOINPLAYER@CGuildCombat@@@std@@@std@@QBEABQAU__JOINPLAYER@CGuildCombat@@XZ
_TEXT	SEGMENT PARA USE32 PUBLIC 'CODE'
_TEXT	ENDS
;	COMDAT ??0iterator@?$vector@V?$basic_string@DU?$char_traits@D@std@@V?$allocator@D@2@@std@@V?$allocator@V?$basic_string@DU?$char_traits@D@std@@V?$allocator@D@2@@std@@@2@@std@@QAE@PAV?$basic_string@DU?$char_traits@D@std@@V?$allocator@D@2@@2@@Z
_TEXT	SEGMENT PARA USE32 PUBLIC 'CODE'
_TEXT	ENDS
;	COMDAT ??Yiterator@?$vector@V?$basic_string@DU?$char_traits@D@std@@V?$allocator@D@2@@std@@V?$allocator@V?$basic_string@DU?$char_traits@D@std@@V?$allocator@D@2@@std@@@2@@std@@QAEAAV012@H@Z
_TEXT	SEGMENT PARA USE32 PUBLIC 'CODE'
_TEXT	ENDS
;	COMDAT ??Giterator@?$vector@V?$basic_string@DU?$char_traits@D@std@@V?$allocator@D@2@@std@@V?$allocator@V?$basic_string@DU?$char_traits@D@std@@V?$allocator@D@2@@std@@@2@@std@@QBEHABVconst_iterator@12@@Z
_TEXT	SEGMENT PARA USE32 PUBLIC 'CODE'
_TEXT	ENDS
;	COMDAT ??Dconst_iterator@?$vector@V?$basic_string@DU?$char_traits@D@std@@V?$allocator@D@2@@std@@V?$allocator@V?$basic_string@DU?$char_traits@D@std@@V?$allocator@D@2@@std@@@2@@std@@QBEABV?$basic_string@DU?$char_traits@D@std@@V?$allocator@D@2@@2@XZ
_TEXT	SEGMENT PARA USE32 PUBLIC 'CODE'
_TEXT	ENDS
;	COMDAT ??0iterator@?$vector@UMINIGMAME_PRIZE_LIST@CRainbowRaceMng@@V?$allocator@UMINIGMAME_PRIZE_LIST@CRainbowRaceMng@@@std@@@std@@QAE@PAUMINIGMAME_PRIZE_LIST@CRainbowRaceMng@@@Z
_TEXT	SEGMENT PARA USE32 PUBLIC 'CODE'
_TEXT	ENDS
;	COMDAT ??Hiterator@?$vector@UMINIGMAME_PRIZE_LIST@CRainbowRaceMng@@V?$allocator@UMINIGMAME_PRIZE_LIST@CRainbowRaceMng@@@std@@@std@@QBE?AV012@H@Z
_TEXT	SEGMENT PARA USE32 PUBLIC 'CODE'
_TEXT	ENDS
;	COMDAT ??Giterator@?$vector@UMINIGMAME_PRIZE_LIST@CRainbowRaceMng@@V?$allocator@UMINIGMAME_PRIZE_LIST@CRainbowRaceMng@@@std@@@std@@QBEHABVconst_iterator@12@@Z
_TEXT	SEGMENT PARA USE32 PUBLIC 'CODE'
_TEXT	ENDS
;	COMDAT ??0iterator@?$vector@PAVCMiniGameBase@@V?$allocator@PAVCMiniGameBase@@@std@@@std@@QAE@PAPAVCMiniGameBase@@@Z
_TEXT	SEGMENT PARA USE32 PUBLIC 'CODE'
_TEXT	ENDS
;	COMDAT ??Yiterator@?$vector@PAVCMiniGameBase@@V?$allocator@PAVCMiniGameBase@@@std@@@std@@QAEAAV012@H@Z
_TEXT	SEGMENT PARA USE32 PUBLIC 'CODE'
_TEXT	ENDS
;	COMDAT ??Dconst_iterator@?$vector@PAVCMiniGameBase@@V?$allocator@PAVCMiniGameBase@@@std@@@std@@QBEABQAVCMiniGameBase@@XZ
_TEXT	SEGMENT PARA USE32 PUBLIC 'CODE'
_TEXT	ENDS
;	COMDAT ??0iterator@?$vector@UGuildHouse_Furniture_Info@CGuildHouseBase@@V?$allocator@UGuildHouse_Furniture_Info@CGuildHouseBase@@@std@@@std@@QAE@PAUGuildHouse_Furniture_Info@CGuildHouseBase@@@Z
_TEXT	SEGMENT PARA USE32 PUBLIC 'CODE'
_TEXT	ENDS
;	COMDAT ??Yiterator@?$vector@UGuildHouse_Furniture_Info@CGuildHouseBase@@V?$allocator@UGuildHouse_Furniture_Info@CGuildHouseBase@@@std@@@std@@QAEAAV012@H@Z
_TEXT	SEGMENT PARA USE32 PUBLIC 'CODE'
_TEXT	ENDS
;	COMDAT ??Dconst_iterator@?$vector@UGuildHouse_Furniture_Info@CGuildHouseBase@@V?$allocator@UGuildHouse_Furniture_Info@CGuildHouseBase@@@std@@@std@@QBEABUGuildHouse_Furniture_Info@CGuildHouseBase@@XZ
_TEXT	SEGMENT PARA USE32 PUBLIC 'CODE'
_TEXT	ENDS
;	COMDAT ??0?$pair@Viterator@?$_Tree@V?$_Tmap_traits@KKU?$less@K@std@@V?$allocator@U?$pair@$$CBKK@std@@@2@$0A@@std@@@std@@V123@@std@@QAE@ABViterator@?$_Tree@V?$_Tmap_traits@KKU?$less@K@std@@V?$allocator@U?$pair@$$CBKK@std@@@2@$0A@@std@@@1@0@Z
_TEXT	SEGMENT PARA USE32 PUBLIC 'CODE'
_TEXT	ENDS
;	COMDAT ??0iterator@?$vector@U_PocketController_Result@@V?$allocator@U_PocketController_Result@@@std@@@std@@QAE@PAU_PocketController_Result@@@Z
_TEXT	SEGMENT PARA USE32 PUBLIC 'CODE'
_TEXT	ENDS
;	COMDAT ??Hiterator@?$vector@U_PocketController_Result@@V?$allocator@U_PocketController_Result@@@std@@@std@@QBE?AV012@H@Z
_TEXT	SEGMENT PARA USE32 PUBLIC 'CODE'
_TEXT	ENDS
;	COMDAT ??Giterator@?$vector@U_PocketController_Result@@V?$allocator@U_PocketController_Result@@@std@@@std@@QBEHABVconst_iterator@12@@Z
_TEXT	SEGMENT PARA USE32 PUBLIC 'CODE'
_TEXT	ENDS
;	COMDAT ?max_size@?$allocator@V?$basic_string@DU?$char_traits@D@std@@V?$allocator@D@2@@std@@@std@@QBEIXZ
_TEXT	SEGMENT PARA USE32 PUBLIC 'CODE'
_TEXT	ENDS
;	COMDAT ??0const_iterator@?$_Tree@V?$_Tmap_traits@KPAVCCtrl@@U?$less@K@std@@V?$allocator@U?$pair@$$CBKPAVCCtrl@@@std@@@3@$0A@@std@@@std@@QAE@XZ
_TEXT	SEGMENT PARA USE32 PUBLIC 'CODE'
_TEXT	ENDS
;	COMDAT ?destroy@?$allocator@PAUtagACTMSG@@@std@@QAEXPAPAUtagACTMSG@@@Z
_TEXT	SEGMENT PARA USE32 PUBLIC 'CODE'
_TEXT	ENDS
;	COMDAT ?destroy@?$allocator@PAUtagMAGICATKMSG@@@std@@QAEXPAPAUtagMAGICATKMSG@@@Z
_TEXT	SEGMENT PARA USE32 PUBLIC 'CODE'
_TEXT	ENDS
;	COMDAT ?_Color@?$_Tree@V?$_Tmap_traits@KU_Friend@@U?$less@K@std@@V?$allocator@U?$pair@$$CBKU_Friend@@@std@@@3@$0A@@std@@@std@@KAAADPAU_Node@?$_Tree_nod@V?$_Tmap_traits@KU_Friend@@U?$less@K@std@@V?$allocator@U?$pair@$$CBKU_Friend@@@std@@@3@$0A@@std@@@2@@Z
_TEXT	SEGMENT PARA USE32 PUBLIC 'CODE'
_TEXT	ENDS
;	COMDAT ?_Isnil@?$_Tree@V?$_Tmap_traits@KU_Friend@@U?$less@K@std@@V?$allocator@U?$pair@$$CBKU_Friend@@@std@@@3@$0A@@std@@@std@@KAAADPAU_Node@?$_Tree_nod@V?$_Tmap_traits@KU_Friend@@U?$less@K@std@@V?$allocator@U?$pair@$$CBKU_Friend@@@std@@@3@$0A@@std@@@2@@Z
_TEXT	SEGMENT PARA USE32 PUBLIC 'CODE'
_TEXT	ENDS
;	COMDAT ?_Left@?$_Tree@V?$_Tmap_traits@KU_Friend@@U?$less@K@std@@V?$allocator@U?$pair@$$CBKU_Friend@@@std@@@3@$0A@@std@@@std@@KAAAPAU_Node@?$_Tree_nod@V?$_Tmap_traits@KU_Friend@@U?$less@K@std@@V?$allocator@U?$pair@$$CBKU_Friend@@@std@@@3@$0A@@std@@@2@PAU342@@Z
_TEXT	SEGMENT PARA USE32 PUBLIC 'CODE'
_TEXT	ENDS
;	COMDAT ?_Parent@?$_Tree@V?$_Tmap_traits@KU_Friend@@U?$less@K@std@@V?$allocator@U?$pair@$$CBKU_Friend@@@std@@@3@$0A@@std@@@std@@KAAAPAU_Node@?$_Tree_nod@V?$_Tmap_traits@KU_Friend@@U?$less@K@std@@V?$allocator@U?$pair@$$CBKU_Friend@@@std@@@3@$0A@@std@@@2@PAU342@@Z
_TEXT	SEGMENT PARA USE32 PUBLIC 'CODE'
_TEXT	ENDS
;	COMDAT ?_Right@?$_Tree@V?$_Tmap_traits@KU_Friend@@U?$less@K@std@@V?$allocator@U?$pair@$$CBKU_Friend@@@std@@@3@$0A@@std@@@std@@KAAAPAU_Node@?$_Tree_nod@V?$_Tmap_traits@KU_Friend@@U?$less@K@std@@V?$allocator@U?$pair@$$CBKU_Friend@@@std@@@3@$0A@@std@@@2@PAU342@@Z
_TEXT	SEGMENT PARA USE32 PUBLIC 'CODE'
_TEXT	ENDS
;	COMDAT ?_Erase@?$_Tree@V?$_Tmap_traits@KU_Friend@@U?$less@K@std@@V?$allocator@U?$pair@$$CBKU_Friend@@@std@@@3@$0A@@std@@@std@@IAEXPAU_Node@?$_Tree_nod@V?$_Tmap_traits@KU_Friend@@U?$less@K@std@@V?$allocator@U?$pair@$$CBKU_Friend@@@std@@@3@$0A@@std@@@2@@Z
_TEXT	SEGMENT PARA USE32 PUBLIC 'CODE'
_TEXT	ENDS
;	COMDAT ?_Lbound@?$_Tree@V?$_Tmap_traits@KU_Friend@@U?$less@K@std@@V?$allocator@U?$pair@$$CBKU_Friend@@@std@@@3@$0A@@std@@@std@@IBEPAU_Node@?$_Tree_nod@V?$_Tmap_traits@KU_Friend@@U?$less@K@std@@V?$allocator@U?$pair@$$CBKU_Friend@@@std@@@3@$0A@@std@@@2@ABK@Z
_TEXT	SEGMENT PARA USE32 PUBLIC 'CODE'
_TEXT	ENDS
;	COMDAT ?_Lmost@?$_Tree@V?$_Tmap_traits@KU_Friend@@U?$less@K@std@@V?$allocator@U?$pair@$$CBKU_Friend@@@std@@@3@$0A@@std@@@std@@IAEAAPAU_Node@?$_Tree_nod@V?$_Tmap_traits@KU_Friend@@U?$less@K@std@@V?$allocator@U?$pair@$$CBKU_Friend@@@std@@@3@$0A@@std@@@2@XZ
_TEXT	SEGMENT PARA USE32 PUBLIC 'CODE'
_TEXT	ENDS
;	COMDAT ?_Lrotate@?$_Tree@V?$_Tmap_traits@KU_Friend@@U?$less@K@std@@V?$allocator@U?$pair@$$CBKU_Friend@@@std@@@3@$0A@@std@@@std@@IAEXPAU_Node@?$_Tree_nod@V?$_Tmap_traits@KU_Friend@@U?$less@K@std@@V?$allocator@U?$pair@$$CBKU_Friend@@@std@@@3@$0A@@std@@@2@@Z
_TEXT	SEGMENT PARA USE32 PUBLIC 'CODE'
_TEXT	ENDS
;	COMDAT ?_Max@?$_Tree@V?$_Tmap_traits@KU_Friend@@U?$less@K@std@@V?$allocator@U?$pair@$$CBKU_Friend@@@std@@@3@$0A@@std@@@std@@KAPAU_Node@?$_Tree_nod@V?$_Tmap_traits@KU_Friend@@U?$less@K@std@@V?$allocator@U?$pair@$$CBKU_Friend@@@std@@@3@$0A@@std@@@2@PAU342@@Z
_TEXT	SEGMENT PARA USE32 PUBLIC 'CODE'
_TEXT	ENDS
;	COMDAT ?_Min@?$_Tree@V?$_Tmap_traits@KU_Friend@@U?$less@K@std@@V?$allocator@U?$pair@$$CBKU_Friend@@@std@@@3@$0A@@std@@@std@@KAPAU_Node@?$_Tree_nod@V?$_Tmap_traits@KU_Friend@@U?$less@K@std@@V?$allocator@U?$pair@$$CBKU_Friend@@@std@@@3@$0A@@std@@@2@PAU342@@Z
_TEXT	SEGMENT PARA USE32 PUBLIC 'CODE'
_TEXT	ENDS
;	COMDAT ?_Rmost@?$_Tree@V?$_Tmap_traits@KU_Friend@@U?$less@K@std@@V?$allocator@U?$pair@$$CBKU_Friend@@@std@@@3@$0A@@std@@@std@@IAEAAPAU_Node@?$_Tree_nod@V?$_Tmap_traits@KU_Friend@@U?$less@K@std@@V?$allocator@U?$pair@$$CBKU_Friend@@@std@@@3@$0A@@std@@@2@XZ
_TEXT	SEGMENT PARA USE32 PUBLIC 'CODE'
_TEXT	ENDS
;	COMDAT ?_Root@?$_Tree@V?$_Tmap_traits@KU_Friend@@U?$less@K@std@@V?$allocator@U?$pair@$$CBKU_Friend@@@std@@@3@$0A@@std@@@std@@IAEAAPAU_Node@?$_Tree_nod@V?$_Tmap_traits@KU_Friend@@U?$less@K@std@@V?$allocator@U?$pair@$$CBKU_Friend@@@std@@@3@$0A@@std@@@2@XZ
_TEXT	SEGMENT PARA USE32 PUBLIC 'CODE'
_TEXT	ENDS
;	COMDAT ?_Rrotate@?$_Tree@V?$_Tmap_traits@KU_Friend@@U?$less@K@std@@V?$allocator@U?$pair@$$CBKU_Friend@@@std@@@3@$0A@@std@@@std@@IAEXPAU_Node@?$_Tree_nod@V?$_Tmap_traits@KU_Friend@@U?$less@K@std@@V?$allocator@U?$pair@$$CBKU_Friend@@@std@@@3@$0A@@std@@@2@@Z
_TEXT	SEGMENT PARA USE32 PUBLIC 'CODE'
_TEXT	ENDS
;	COMDAT ?_Ubound@?$_Tree@V?$_Tmap_traits@KU_Friend@@U?$less@K@std@@V?$allocator@U?$pair@$$CBKU_Friend@@@std@@@3@$0A@@std@@@std@@IBEPAU_Node@?$_Tree_nod@V?$_Tmap_traits@KU_Friend@@U?$less@K@std@@V?$allocator@U?$pair@$$CBKU_Friend@@@std@@@3@$0A@@std@@@2@ABK@Z
_TEXT	SEGMENT PARA USE32 PUBLIC 'CODE'
_TEXT	ENDS
;	COMDAT ?deallocate@?$allocator@U_Node@?$_Tree_nod@V?$_Tmap_traits@KU_Friend@@U?$less@K@std@@V?$allocator@U?$pair@$$CBKU_Friend@@@std@@@3@$0A@@std@@@std@@@std@@QAEXPAU_Node@?$_Tree_nod@V?$_Tmap_traits@KU_Friend@@U?$less@K@std@@V?$allocator@U?$pair@$$CBKU_Friend@@@std@@@3@$0A@@std@@@2@I@Z
_TEXT	SEGMENT PARA USE32 PUBLIC 'CODE'
_TEXT	ENDS
;	COMDAT ?destroy@?$allocator@U_Node@?$_Tree_nod@V?$_Tmap_traits@KU_Friend@@U?$less@K@std@@V?$allocator@U?$pair@$$CBKU_Friend@@@std@@@3@$0A@@std@@@std@@@std@@QAEXPAU_Node@?$_Tree_nod@V?$_Tmap_traits@KU_Friend@@U?$less@K@std@@V?$allocator@U?$pair@$$CBKU_Friend@@@std@@@3@$0A@@std@@@2@@Z
_TEXT	SEGMENT PARA USE32 PUBLIC 'CODE'
_TEXT	ENDS
;	COMDAT ??0iterator@?$_Tree@V?$_Tmap_traits@KU_Friend@@U?$less@K@std@@V?$allocator@U?$pair@$$CBKU_Friend@@@std@@@3@$0A@@std@@@std@@QAE@PAU_Node@?$_Tree_nod@V?$_Tmap_traits@KU_Friend@@U?$less@K@std@@V?$allocator@U?$pair@$$CBKU_Friend@@@std@@@3@$0A@@std@@@2@@Z
_TEXT	SEGMENT PARA USE32 PUBLIC 'CODE'
_TEXT	ENDS
;	COMDAT ??Eiterator@?$_Tree@V?$_Tmap_traits@KU_Friend@@U?$less@K@std@@V?$allocator@U?$pair@$$CBKU_Friend@@@std@@@3@$0A@@std@@@std@@QAEAAV012@XZ
_TEXT	SEGMENT PARA USE32 PUBLIC 'CODE'
_TEXT	ENDS
;	COMDAT ?_Mynode@const_iterator@?$_Tree@V?$_Tmap_traits@KU_Friend@@U?$less@K@std@@V?$allocator@U?$pair@$$CBKU_Friend@@@std@@@3@$0A@@std@@@std@@QBEPAU_Node@?$_Tree_nod@V?$_Tmap_traits@KU_Friend@@U?$less@K@std@@V?$allocator@U?$pair@$$CBKU_Friend@@@std@@@3@$0A@@std@@@3@XZ
_TEXT	SEGMENT PARA USE32 PUBLIC 'CODE'
_TEXT	ENDS
;	COMDAT ?max_size@?$allocator@U__SECRETROOM_MONSTER@@@std@@QBEIXZ
_TEXT	SEGMENT PARA USE32 PUBLIC 'CODE'
_TEXT	ENDS
;	COMDAT ?max_size@?$vector@UMINIGMAME_PRIZE_LIST@CRainbowRaceMng@@V?$allocator@UMINIGMAME_PRIZE_LIST@CRainbowRaceMng@@@std@@@std@@QBEIXZ
_TEXT	SEGMENT PARA USE32 PUBLIC 'CODE'
_TEXT	ENDS
;	COMDAT ?_Destroy@?$vector@UMINIGMAME_PRIZE_LIST@CRainbowRaceMng@@V?$allocator@UMINIGMAME_PRIZE_LIST@CRainbowRaceMng@@@std@@@std@@IAEXPAUMINIGMAME_PRIZE_LIST@CRainbowRaceMng@@0@Z
_TEXT	SEGMENT PARA USE32 PUBLIC 'CODE'
_TEXT	ENDS
;	COMDAT ?_Xlen@?$vector@UMINIGMAME_PRIZE_LIST@CRainbowRaceMng@@V?$allocator@UMINIGMAME_PRIZE_LIST@CRainbowRaceMng@@@std@@@std@@IBEXXZ
_TEXT	SEGMENT PARA USE32 PUBLIC 'CODE'
_TEXT	ENDS
;	COMDAT ?deallocate@?$allocator@UMINIGMAME_PRIZE_LIST@CRainbowRaceMng@@@std@@QAEXPAUMINIGMAME_PRIZE_LIST@CRainbowRaceMng@@I@Z
_TEXT	SEGMENT PARA USE32 PUBLIC 'CODE'
_TEXT	ENDS
;	COMDAT ?allocate@?$allocator@UMINIGMAME_PRIZE_LIST@CRainbowRaceMng@@@std@@QAEPAUMINIGMAME_PRIZE_LIST@CRainbowRaceMng@@I@Z
_TEXT	SEGMENT PARA USE32 PUBLIC 'CODE'
_TEXT	ENDS
;	COMDAT ?max_size@?$allocator@U?$pair@$$CBKPAVCGuildHouseBase@@@std@@@std@@QBEIXZ
_TEXT	SEGMENT PARA USE32 PUBLIC 'CODE'
_TEXT	ENDS
;	COMDAT ?deallocate@?$allocator@U_Node@?$_Tree_nod@V?$_Tmap_traits@KPAVCGuildHouseBase@@U?$less@K@std@@V?$allocator@U?$pair@$$CBKPAVCGuildHouseBase@@@std@@@3@$0A@@std@@@std@@@std@@QAEXPAU_Node@?$_Tree_nod@V?$_Tmap_traits@KPAVCGuildHouseBase@@U?$less@K@std@@V?$allocator@U?$pair@$$CBKPAVCGuildHouseBase@@@std@@@3@$0A@@std@@@2@I@Z
_TEXT	SEGMENT PARA USE32 PUBLIC 'CODE'
_TEXT	ENDS
;	COMDAT ?allocate@?$allocator@U_Node@?$_Tree_nod@V?$_Tmap_traits@KPAVCGuildHouseBase@@U?$less@K@std@@V?$allocator@U?$pair@$$CBKPAVCGuildHouseBase@@@std@@@3@$0A@@std@@@std@@@std@@QAEPAU_Node@?$_Tree_nod@V?$_Tmap_traits@KPAVCGuildHouseBase@@U?$less@K@std@@V?$allocator@U?$pair@$$CBKPAVCGuildHouseBase@@@std@@@3@$0A@@std@@@2@I@Z
_TEXT	SEGMENT PARA USE32 PUBLIC 'CODE'
_TEXT	ENDS
;	COMDAT ?_Dec@const_iterator@?$_Tree@V?$_Tmap_traits@KPAVCGuildHouseBase@@U?$less@K@std@@V?$allocator@U?$pair@$$CBKPAVCGuildHouseBase@@@std@@@3@$0A@@std@@@std@@QAEXXZ
_TEXT	SEGMENT PARA USE32 PUBLIC 'CODE'
_TEXT	ENDS
;	COMDAT ?_Color@?$_Tree@V?$_Tmap_traits@KKU?$less@K@std@@V?$allocator@U?$pair@$$CBKK@std@@@2@$0A@@std@@@std@@KAAADPAU_Node@?$_Tree_nod@V?$_Tmap_traits@KKU?$less@K@std@@V?$allocator@U?$pair@$$CBKK@std@@@2@$0A@@std@@@2@@Z
_TEXT	SEGMENT PARA USE32 PUBLIC 'CODE'
_TEXT	ENDS
;	COMDAT ?_Isnil@?$_Tree@V?$_Tmap_traits@KKU?$less@K@std@@V?$allocator@U?$pair@$$CBKK@std@@@2@$0A@@std@@@std@@KAAADPAU_Node@?$_Tree_nod@V?$_Tmap_traits@KKU?$less@K@std@@V?$allocator@U?$pair@$$CBKK@std@@@2@$0A@@std@@@2@@Z
_TEXT	SEGMENT PARA USE32 PUBLIC 'CODE'
_TEXT	ENDS
;	COMDAT ?_Left@?$_Tree@V?$_Tmap_traits@KKU?$less@K@std@@V?$allocator@U?$pair@$$CBKK@std@@@2@$0A@@std@@@std@@KAAAPAU_Node@?$_Tree_nod@V?$_Tmap_traits@KKU?$less@K@std@@V?$allocator@U?$pair@$$CBKK@std@@@2@$0A@@std@@@2@PAU342@@Z
_TEXT	SEGMENT PARA USE32 PUBLIC 'CODE'
_TEXT	ENDS
;	COMDAT ?_Parent@?$_Tree@V?$_Tmap_traits@KKU?$less@K@std@@V?$allocator@U?$pair@$$CBKK@std@@@2@$0A@@std@@@std@@KAAAPAU_Node@?$_Tree_nod@V?$_Tmap_traits@KKU?$less@K@std@@V?$allocator@U?$pair@$$CBKK@std@@@2@$0A@@std@@@2@PAU342@@Z
_TEXT	SEGMENT PARA USE32 PUBLIC 'CODE'
_TEXT	ENDS
;	COMDAT ?_Right@?$_Tree@V?$_Tmap_traits@KKU?$less@K@std@@V?$allocator@U?$pair@$$CBKK@std@@@2@$0A@@std@@@std@@KAAAPAU_Node@?$_Tree_nod@V?$_Tmap_traits@KKU?$less@K@std@@V?$allocator@U?$pair@$$CBKK@std@@@2@$0A@@std@@@2@PAU342@@Z
_TEXT	SEGMENT PARA USE32 PUBLIC 'CODE'
_TEXT	ENDS
;	COMDAT ?_Erase@?$_Tree@V?$_Tmap_traits@KKU?$less@K@std@@V?$allocator@U?$pair@$$CBKK@std@@@2@$0A@@std@@@std@@IAEXPAU_Node@?$_Tree_nod@V?$_Tmap_traits@KKU?$less@K@std@@V?$allocator@U?$pair@$$CBKK@std@@@2@$0A@@std@@@2@@Z
_TEXT	SEGMENT PARA USE32 PUBLIC 'CODE'
_TEXT	ENDS
;	COMDAT ?_Lbound@?$_Tree@V?$_Tmap_traits@KKU?$less@K@std@@V?$allocator@U?$pair@$$CBKK@std@@@2@$0A@@std@@@std@@IBEPAU_Node@?$_Tree_nod@V?$_Tmap_traits@KKU?$less@K@std@@V?$allocator@U?$pair@$$CBKK@std@@@2@$0A@@std@@@2@ABK@Z
_TEXT	SEGMENT PARA USE32 PUBLIC 'CODE'
_TEXT	ENDS
;	COMDAT ?_Lmost@?$_Tree@V?$_Tmap_traits@KKU?$less@K@std@@V?$allocator@U?$pair@$$CBKK@std@@@2@$0A@@std@@@std@@IAEAAPAU_Node@?$_Tree_nod@V?$_Tmap_traits@KKU?$less@K@std@@V?$allocator@U?$pair@$$CBKK@std@@@2@$0A@@std@@@2@XZ
_TEXT	SEGMENT PARA USE32 PUBLIC 'CODE'
_TEXT	ENDS
;	COMDAT ?_Lrotate@?$_Tree@V?$_Tmap_traits@KKU?$less@K@std@@V?$allocator@U?$pair@$$CBKK@std@@@2@$0A@@std@@@std@@IAEXPAU_Node@?$_Tree_nod@V?$_Tmap_traits@KKU?$less@K@std@@V?$allocator@U?$pair@$$CBKK@std@@@2@$0A@@std@@@2@@Z
_TEXT	SEGMENT PARA USE32 PUBLIC 'CODE'
_TEXT	ENDS
;	COMDAT ?_Max@?$_Tree@V?$_Tmap_traits@KKU?$less@K@std@@V?$allocator@U?$pair@$$CBKK@std@@@2@$0A@@std@@@std@@KAPAU_Node@?$_Tree_nod@V?$_Tmap_traits@KKU?$less@K@std@@V?$allocator@U?$pair@$$CBKK@std@@@2@$0A@@std@@@2@PAU342@@Z
_TEXT	SEGMENT PARA USE32 PUBLIC 'CODE'
_TEXT	ENDS
;	COMDAT ?_Min@?$_Tree@V?$_Tmap_traits@KKU?$less@K@std@@V?$allocator@U?$pair@$$CBKK@std@@@2@$0A@@std@@@std@@KAPAU_Node@?$_Tree_nod@V?$_Tmap_traits@KKU?$less@K@std@@V?$allocator@U?$pair@$$CBKK@std@@@2@$0A@@std@@@2@PAU342@@Z
_TEXT	SEGMENT PARA USE32 PUBLIC 'CODE'
_TEXT	ENDS
;	COMDAT ?_Rmost@?$_Tree@V?$_Tmap_traits@KKU?$less@K@std@@V?$allocator@U?$pair@$$CBKK@std@@@2@$0A@@std@@@std@@IAEAAPAU_Node@?$_Tree_nod@V?$_Tmap_traits@KKU?$less@K@std@@V?$allocator@U?$pair@$$CBKK@std@@@2@$0A@@std@@@2@XZ
_TEXT	SEGMENT PARA USE32 PUBLIC 'CODE'
_TEXT	ENDS
;	COMDAT ?_Root@?$_Tree@V?$_Tmap_traits@KKU?$less@K@std@@V?$allocator@U?$pair@$$CBKK@std@@@2@$0A@@std@@@std@@IAEAAPAU_Node@?$_Tree_nod@V?$_Tmap_traits@KKU?$less@K@std@@V?$allocator@U?$pair@$$CBKK@std@@@2@$0A@@std@@@2@XZ
_TEXT	SEGMENT PARA USE32 PUBLIC 'CODE'
_TEXT	ENDS
;	COMDAT ?_Rrotate@?$_Tree@V?$_Tmap_traits@KKU?$less@K@std@@V?$allocator@U?$pair@$$CBKK@std@@@2@$0A@@std@@@std@@IAEXPAU_Node@?$_Tree_nod@V?$_Tmap_traits@KKU?$less@K@std@@V?$allocator@U?$pair@$$CBKK@std@@@2@$0A@@std@@@2@@Z
_TEXT	SEGMENT PARA USE32 PUBLIC 'CODE'
_TEXT	ENDS
;	COMDAT ?_Ubound@?$_Tree@V?$_Tmap_traits@KKU?$less@K@std@@V?$allocator@U?$pair@$$CBKK@std@@@2@$0A@@std@@@std@@IBEPAU_Node@?$_Tree_nod@V?$_Tmap_traits@KKU?$less@K@std@@V?$allocator@U?$pair@$$CBKK@std@@@2@$0A@@std@@@2@ABK@Z
_TEXT	SEGMENT PARA USE32 PUBLIC 'CODE'
_TEXT	ENDS
;	COMDAT ?deallocate@?$allocator@U_Node@?$_Tree_nod@V?$_Tmap_traits@KKU?$less@K@std@@V?$allocator@U?$pair@$$CBKK@std@@@2@$0A@@std@@@std@@@std@@QAEXPAU_Node@?$_Tree_nod@V?$_Tmap_traits@KKU?$less@K@std@@V?$allocator@U?$pair@$$CBKK@std@@@2@$0A@@std@@@2@I@Z
_TEXT	SEGMENT PARA USE32 PUBLIC 'CODE'
_TEXT	ENDS
;	COMDAT ?destroy@?$allocator@U_Node@?$_Tree_nod@V?$_Tmap_traits@KKU?$less@K@std@@V?$allocator@U?$pair@$$CBKK@std@@@2@$0A@@std@@@std@@@std@@QAEXPAU_Node@?$_Tree_nod@V?$_Tmap_traits@KKU?$less@K@std@@V?$allocator@U?$pair@$$CBKK@std@@@2@$0A@@std@@@2@@Z
_TEXT	SEGMENT PARA USE32 PUBLIC 'CODE'
_TEXT	ENDS
;	COMDAT ??0iterator@?$_Tree@V?$_Tmap_traits@KKU?$less@K@std@@V?$allocator@U?$pair@$$CBKK@std@@@2@$0A@@std@@@std@@QAE@PAU_Node@?$_Tree_nod@V?$_Tmap_traits@KKU?$less@K@std@@V?$allocator@U?$pair@$$CBKK@std@@@2@$0A@@std@@@2@@Z
_TEXT	SEGMENT PARA USE32 PUBLIC 'CODE'
_TEXT	ENDS
;	COMDAT ??Eiterator@?$_Tree@V?$_Tmap_traits@KKU?$less@K@std@@V?$allocator@U?$pair@$$CBKK@std@@@2@$0A@@std@@@std@@QAEAAV012@XZ
_TEXT	SEGMENT PARA USE32 PUBLIC 'CODE'
_TEXT	ENDS
;	COMDAT ?_Mynode@const_iterator@?$_Tree@V?$_Tmap_traits@KKU?$less@K@std@@V?$allocator@U?$pair@$$CBKK@std@@@2@$0A@@std@@@std@@QBEPAU_Node@?$_Tree_nod@V?$_Tmap_traits@KKU?$less@K@std@@V?$allocator@U?$pair@$$CBKK@std@@@2@$0A@@std@@@3@XZ
_TEXT	SEGMENT PARA USE32 PUBLIC 'CODE'
_TEXT	ENDS
;	COMDAT ?max_size@?$vector@U_PocketController_Result@@V?$allocator@U_PocketController_Result@@@std@@@std@@QBEIXZ
_TEXT	SEGMENT PARA USE32 PUBLIC 'CODE'
_TEXT	ENDS
;	COMDAT ?_Destroy@?$vector@U_PocketController_Result@@V?$allocator@U_PocketController_Result@@@std@@@std@@IAEXPAU_PocketController_Result@@0@Z
_TEXT	SEGMENT PARA USE32 PUBLIC 'CODE'
_TEXT	ENDS
;	COMDAT ?_Xlen@?$vector@U_PocketController_Result@@V?$allocator@U_PocketController_Result@@@std@@@std@@IBEXXZ
_TEXT	SEGMENT PARA USE32 PUBLIC 'CODE'
_TEXT	ENDS
;	COMDAT ?deallocate@?$allocator@U_PocketController_Result@@@std@@QAEXPAU_PocketController_Result@@I@Z
_TEXT	SEGMENT PARA USE32 PUBLIC 'CODE'
_TEXT	ENDS
;	COMDAT ?allocate@?$allocator@U_PocketController_Result@@@std@@QAEPAU_PocketController_Result@@I@Z
_TEXT	SEGMENT PARA USE32 PUBLIC 'CODE'
_TEXT	ENDS
;	COMDAT ??0const_iterator@?$vector@PAU__JOINPLAYER@CGuildCombat@@V?$allocator@PAU__JOINPLAYER@CGuildCombat@@@std@@@std@@QAE@PAPAU__JOINPLAYER@CGuildCombat@@@Z
_TEXT	SEGMENT PARA USE32 PUBLIC 'CODE'
_TEXT	ENDS
;	COMDAT ??0const_iterator@?$vector@V?$basic_string@DU?$char_traits@D@std@@V?$allocator@D@2@@std@@V?$allocator@V?$basic_string@DU?$char_traits@D@std@@V?$allocator@D@2@@std@@@2@@std@@QAE@PAV?$basic_string@DU?$char_traits@D@std@@V?$allocator@D@2@@2@@Z
_TEXT	SEGMENT PARA USE32 PUBLIC 'CODE'
_TEXT	ENDS
;	COMDAT ??Gconst_iterator@?$vector@V?$basic_string@DU?$char_traits@D@std@@V?$allocator@D@2@@std@@V?$allocator@V?$basic_string@DU?$char_traits@D@std@@V?$allocator@D@2@@std@@@2@@std@@QBEHABV012@@Z
_TEXT	SEGMENT PARA USE32 PUBLIC 'CODE'
_TEXT	ENDS
;	COMDAT ??Yiterator@?$vector@UMINIGMAME_PRIZE_LIST@CRainbowRaceMng@@V?$allocator@UMINIGMAME_PRIZE_LIST@CRainbowRaceMng@@@std@@@std@@QAEAAV012@H@Z
_TEXT	SEGMENT PARA USE32 PUBLIC 'CODE'
_TEXT	ENDS
;	COMDAT ??0const_iterator@?$vector@UMINIGMAME_PRIZE_LIST@CRainbowRaceMng@@V?$allocator@UMINIGMAME_PRIZE_LIST@CRainbowRaceMng@@@std@@@std@@QAE@PAUMINIGMAME_PRIZE_LIST@CRainbowRaceMng@@@Z
_TEXT	SEGMENT PARA USE32 PUBLIC 'CODE'
_TEXT	ENDS
;	COMDAT ??Gconst_iterator@?$vector@UMINIGMAME_PRIZE_LIST@CRainbowRaceMng@@V?$allocator@UMINIGMAME_PRIZE_LIST@CRainbowRaceMng@@@std@@@std@@QBEHABV012@@Z
_TEXT	SEGMENT PARA USE32 PUBLIC 'CODE'
_TEXT	ENDS
;	COMDAT ??0const_iterator@?$vector@PAVCMiniGameBase@@V?$allocator@PAVCMiniGameBase@@@std@@@std@@QAE@PAPAVCMiniGameBase@@@Z
_TEXT	SEGMENT PARA USE32 PUBLIC 'CODE'
_TEXT	ENDS
;	COMDAT ??0const_iterator@?$vector@UGuildHouse_Furniture_Info@CGuildHouseBase@@V?$allocator@UGuildHouse_Furniture_Info@CGuildHouseBase@@@std@@@std@@QAE@PAUGuildHouse_Furniture_Info@CGuildHouseBase@@@Z
_TEXT	SEGMENT PARA USE32 PUBLIC 'CODE'
_TEXT	ENDS
;	COMDAT ??Yiterator@?$vector@U_PocketController_Result@@V?$allocator@U_PocketController_Result@@@std@@@std@@QAEAAV012@H@Z
_TEXT	SEGMENT PARA USE32 PUBLIC 'CODE'
_TEXT	ENDS
;	COMDAT ??0const_iterator@?$vector@U_PocketController_Result@@V?$allocator@U_PocketController_Result@@@std@@@std@@QAE@PAU_PocketController_Result@@@Z
_TEXT	SEGMENT PARA USE32 PUBLIC 'CODE'
_TEXT	ENDS
;	COMDAT ??Gconst_iterator@?$vector@U_PocketController_Result@@V?$allocator@U_PocketController_Result@@@std@@@std@@QBEHABV012@@Z
_TEXT	SEGMENT PARA USE32 PUBLIC 'CODE'
_TEXT	ENDS
;	COMDAT ??0_Node@?$_Tree_nod@V?$_Tmap_traits@KPAVCGuildHouseBase@@U?$less@K@std@@V?$allocator@U?$pair@$$CBKPAVCGuildHouseBase@@@std@@@3@$0A@@std@@@std@@QAE@PAU012@00ABU?$pair@$$CBKPAVCGuildHouseBase@@@2@D@Z
_TEXT	SEGMENT PARA USE32 PUBLIC 'CODE'
_TEXT	ENDS
;	COMDAT ?_Key@?$_Tree@V?$_Tmap_traits@KU_Friend@@U?$less@K@std@@V?$allocator@U?$pair@$$CBKU_Friend@@@std@@@3@$0A@@std@@@std@@KAABKPAU_Node@?$_Tree_nod@V?$_Tmap_traits@KU_Friend@@U?$less@K@std@@V?$allocator@U?$pair@$$CBKU_Friend@@@std@@@3@$0A@@std@@@2@@Z
_TEXT	SEGMENT PARA USE32 PUBLIC 'CODE'
_TEXT	ENDS
;	COMDAT ?_Root@?$_Tree@V?$_Tmap_traits@KU_Friend@@U?$less@K@std@@V?$allocator@U?$pair@$$CBKU_Friend@@@std@@@3@$0A@@std@@@std@@IBEAAPAU_Node@?$_Tree_nod@V?$_Tmap_traits@KU_Friend@@U?$less@K@std@@V?$allocator@U?$pair@$$CBKU_Friend@@@std@@@3@$0A@@std@@@2@XZ
_TEXT	SEGMENT PARA USE32 PUBLIC 'CODE'
_TEXT	ENDS
;	COMDAT ??0const_iterator@?$_Tree@V?$_Tmap_traits@KU_Friend@@U?$less@K@std@@V?$allocator@U?$pair@$$CBKU_Friend@@@std@@@3@$0A@@std@@@std@@QAE@PAU_Node@?$_Tree_nod@V?$_Tmap_traits@KU_Friend@@U?$less@K@std@@V?$allocator@U?$pair@$$CBKU_Friend@@@std@@@3@$0A@@std@@@2@@Z
_TEXT	SEGMENT PARA USE32 PUBLIC 'CODE'
_TEXT	ENDS
;	COMDAT ??Econst_iterator@?$_Tree@V?$_Tmap_traits@KU_Friend@@U?$less@K@std@@V?$allocator@U?$pair@$$CBKU_Friend@@@std@@@3@$0A@@std@@@std@@QAEAAV012@XZ
_TEXT	SEGMENT PARA USE32 PUBLIC 'CODE'
_TEXT	ENDS
;	COMDAT ?max_size@?$allocator@UMINIGMAME_PRIZE_LIST@CRainbowRaceMng@@@std@@QBEIXZ
_TEXT	SEGMENT PARA USE32 PUBLIC 'CODE'
_TEXT	ENDS
;	COMDAT ?_Max@?$_Tree@V?$_Tmap_traits@KPAVCGuildHouseBase@@U?$less@K@std@@V?$allocator@U?$pair@$$CBKPAVCGuildHouseBase@@@std@@@3@$0A@@std@@@std@@KAPAU_Node@?$_Tree_nod@V?$_Tmap_traits@KPAVCGuildHouseBase@@U?$less@K@std@@V?$allocator@U?$pair@$$CBKPAVCGuildHouseBase@@@std@@@3@$0A@@std@@@2@PAU342@@Z
_TEXT	SEGMENT PARA USE32 PUBLIC 'CODE'
_TEXT	ENDS
;	COMDAT ?_Key@?$_Tree@V?$_Tmap_traits@KKU?$less@K@std@@V?$allocator@U?$pair@$$CBKK@std@@@2@$0A@@std@@@std@@KAABKPAU_Node@?$_Tree_nod@V?$_Tmap_traits@KKU?$less@K@std@@V?$allocator@U?$pair@$$CBKK@std@@@2@$0A@@std@@@2@@Z
_TEXT	SEGMENT PARA USE32 PUBLIC 'CODE'
_TEXT	ENDS
;	COMDAT ?_Root@?$_Tree@V?$_Tmap_traits@KKU?$less@K@std@@V?$allocator@U?$pair@$$CBKK@std@@@2@$0A@@std@@@std@@IBEAAPAU_Node@?$_Tree_nod@V?$_Tmap_traits@KKU?$less@K@std@@V?$allocator@U?$pair@$$CBKK@std@@@2@$0A@@std@@@2@XZ
_TEXT	SEGMENT PARA USE32 PUBLIC 'CODE'
_TEXT	ENDS
;	COMDAT ??0const_iterator@?$_Tree@V?$_Tmap_traits@KKU?$less@K@std@@V?$allocator@U?$pair@$$CBKK@std@@@2@$0A@@std@@@std@@QAE@PAU_Node@?$_Tree_nod@V?$_Tmap_traits@KKU?$less@K@std@@V?$allocator@U?$pair@$$CBKK@std@@@2@$0A@@std@@@2@@Z
_TEXT	SEGMENT PARA USE32 PUBLIC 'CODE'
_TEXT	ENDS
;	COMDAT ??Econst_iterator@?$_Tree@V?$_Tmap_traits@KKU?$less@K@std@@V?$allocator@U?$pair@$$CBKK@std@@@2@$0A@@std@@@std@@QAEAAV012@XZ
_TEXT	SEGMENT PARA USE32 PUBLIC 'CODE'
_TEXT	ENDS
;	COMDAT ?max_size@?$allocator@U_PocketController_Result@@@std@@QBEIXZ
_TEXT	SEGMENT PARA USE32 PUBLIC 'CODE'
_TEXT	ENDS
;	COMDAT ?_Myval@?$_Tree@V?$_Tmap_traits@KU_Friend@@U?$less@K@std@@V?$allocator@U?$pair@$$CBKU_Friend@@@std@@@3@$0A@@std@@@std@@KAAAU?$pair@$$CBKU_Friend@@@2@PAU_Node@?$_Tree_nod@V?$_Tmap_traits@KU_Friend@@U?$less@K@std@@V?$allocator@U?$pair@$$CBKU_Friend@@@std@@@3@$0A@@std@@@2@@Z
_TEXT	SEGMENT PARA USE32 PUBLIC 'CODE'
_TEXT	ENDS
;	COMDAT ?_Kfn@?$_Tmap_traits@KU_Friend@@U?$less@K@std@@V?$allocator@U?$pair@$$CBKU_Friend@@@std@@@3@$0A@@std@@SAABKABU?$pair@$$CBKU_Friend@@@2@@Z
_TEXT	SEGMENT PARA USE32 PUBLIC 'CODE'
_TEXT	ENDS
;	COMDAT ?_Inc@const_iterator@?$_Tree@V?$_Tmap_traits@KU_Friend@@U?$less@K@std@@V?$allocator@U?$pair@$$CBKU_Friend@@@std@@@3@$0A@@std@@@std@@QAEXXZ
_TEXT	SEGMENT PARA USE32 PUBLIC 'CODE'
_TEXT	ENDS
;	COMDAT ?_Myval@?$_Tree@V?$_Tmap_traits@KKU?$less@K@std@@V?$allocator@U?$pair@$$CBKK@std@@@2@$0A@@std@@@std@@KAAAU?$pair@$$CBKK@2@PAU_Node@?$_Tree_nod@V?$_Tmap_traits@KKU?$less@K@std@@V?$allocator@U?$pair@$$CBKK@std@@@2@$0A@@std@@@2@@Z
_TEXT	SEGMENT PARA USE32 PUBLIC 'CODE'
_TEXT	ENDS
;	COMDAT ?_Kfn@?$_Tmap_traits@KKU?$less@K@std@@V?$allocator@U?$pair@$$CBKK@std@@@2@$0A@@std@@SAABKABU?$pair@$$CBKK@2@@Z
_TEXT	SEGMENT PARA USE32 PUBLIC 'CODE'
_TEXT	ENDS
;	COMDAT ?_Inc@const_iterator@?$_Tree@V?$_Tmap_traits@KKU?$less@K@std@@V?$allocator@U?$pair@$$CBKK@std@@@2@$0A@@std@@@std@@QAEXXZ
_TEXT	SEGMENT PARA USE32 PUBLIC 'CODE'
_TEXT	ENDS
;	COMDAT ??$_Iter_cat@Vconst_iterator@?$vector@EV?$allocator@E@std@@@std@@@std@@YA?AUrandom_access_iterator_tag@0@ABVconst_iterator@?$vector@EV?$allocator@E@std@@@0@@Z
_TEXT	SEGMENT PARA USE32 PUBLIC 'CODE'
_TEXT	ENDS
;	COMDAT ??$_Assign@Vconst_iterator@?$vector@EV?$allocator@E@std@@@std@@@?$vector@EV?$allocator@E@std@@@std@@QAEXVconst_iterator@01@0Uinput_iterator_tag@1@@Z
_TEXT	SEGMENT PARA USE32 PUBLIC 'CODE'
_TEXT	ENDS
;	COMDAT ?SetItemContainer@?$CItemContainer@VCItemElem@@@@QAEXKKK@Z
_TEXT	SEGMENT PARA USE32 PUBLIC 'CODE'
_TEXT	ENDS
;	COMDAT ??0?$CItemContainer@VCItemElem@@@@QAE@XZ
_TEXT	SEGMENT PARA USE32 PUBLIC 'CODE'
_TEXT	ENDS
;	COMDAT ?Add@?$CItemContainer@VCItemElem@@@@QAEHPAVCItemElem@@PAEPAF1@Z
_TEXT	SEGMENT PARA USE32 PUBLIC 'CODE'
_TEXT	ENDS
;	COMDAT ?RemoveAtId@?$CItemContainer@VCItemElem@@@@QAEXK@Z
_TEXT	SEGMENT PARA USE32 PUBLIC 'CODE'
_TEXT	ENDS
;	COMDAT ?Copy@?$CItemContainer@VCItemElem@@@@QAEXAAV1@@Z
_TEXT	SEGMENT PARA USE32 PUBLIC 'CODE'
_TEXT	ENDS
;	COMDAT ?Serialize@?$CItemContainer@VCItemElem@@@@QAEXAAVCAr@@@Z
_TEXT	SEGMENT PARA USE32 PUBLIC 'CODE'
_TEXT	ENDS
;	COMDAT ??$_Iter_cat@Viterator@?$_Tree@V?$_Tmap_traits@KPAVCUser@@U?$less@K@std@@V?$allocator@U?$pair@$$CBKPAVCUser@@@std@@@3@$0A@@std@@@std@@@std@@YA?AUbidirectional_iterator_tag@0@ABViterator@?$_Tree@V?$_Tmap_traits@KPAVCUser@@U?$less@K@std@@V?$allocator@U?$pair@$$CBKPAVCUser@@@std@@@3@$0A@@std@@@0@@Z
_TEXT	SEGMENT PARA USE32 PUBLIC 'CODE'
_TEXT	ENDS
;	COMDAT ??$_Distance2@Viterator@?$_Tree@V?$_Tmap_traits@KPAVCUser@@U?$less@K@std@@V?$allocator@U?$pair@$$CBKPAVCUser@@@std@@@3@$0A@@std@@@std@@I@std@@YAXViterator@?$_Tree@V?$_Tmap_traits@KPAVCUser@@U?$less@K@std@@V?$allocator@U?$pair@$$CBKPAVCUser@@@std@@@3@$0A@@std@@@0@0AAIUbidirectional_iterator_tag@0@@Z
_TEXT	SEGMENT PARA USE32 PUBLIC 'CODE'
_TEXT	ENDS
;	COMDAT ??$_Iter_cat@Viterator@?$_Tree@V?$_Tmap_traits@KPAVCCtrl@@U?$less@K@std@@V?$allocator@U?$pair@$$CBKPAVCCtrl@@@std@@@3@$0A@@std@@@std@@@std@@YA?AUbidirectional_iterator_tag@0@ABViterator@?$_Tree@V?$_Tmap_traits@KPAVCCtrl@@U?$less@K@std@@V?$allocator@U?$pair@$$CBKPAVCCtrl@@@std@@@3@$0A@@std@@@0@@Z
_TEXT	SEGMENT PARA USE32 PUBLIC 'CODE'
_TEXT	ENDS
;	COMDAT ??$_Distance2@Viterator@?$_Tree@V?$_Tmap_traits@KPAVCCtrl@@U?$less@K@std@@V?$allocator@U?$pair@$$CBKPAVCCtrl@@@std@@@3@$0A@@std@@@std@@I@std@@YAXViterator@?$_Tree@V?$_Tmap_traits@KPAVCCtrl@@U?$less@K@std@@V?$allocator@U?$pair@$$CBKPAVCCtrl@@@std@@@3@$0A@@std@@@0@0AAIUbidirectional_iterator_tag@0@@Z
_TEXT	SEGMENT PARA USE32 PUBLIC 'CODE'
_TEXT	ENDS
;	COMDAT ??$_Uninitialized_copy@Vconst_iterator@?$vector@EV?$allocator@E@std@@@std@@PAEV?$allocator@E@3@@std@@YAPAEVconst_iterator@?$vector@EV?$allocator@E@std@@@0@0PAEAAV?$allocator@E@0@@Z
_TEXT	SEGMENT PARA USE32 PUBLIC 'CODE'
_TEXT	ENDS
;	COMDAT ??$_Iter_cat@Viterator@?$_Tree@V?$_Tmap_traits@KEU?$less@K@std@@V?$allocator@U?$pair@$$CBKE@std@@@2@$0A@@std@@@std@@@std@@YA?AUbidirectional_iterator_tag@0@ABViterator@?$_Tree@V?$_Tmap_traits@KEU?$less@K@std@@V?$allocator@U?$pair@$$CBKE@std@@@2@$0A@@std@@@0@@Z
_TEXT	SEGMENT PARA USE32 PUBLIC 'CODE'
_TEXT	ENDS
;	COMDAT ??$_Distance2@Viterator@?$_Tree@V?$_Tmap_traits@KEU?$less@K@std@@V?$allocator@U?$pair@$$CBKE@std@@@2@$0A@@std@@@std@@I@std@@YAXViterator@?$_Tree@V?$_Tmap_traits@KEU?$less@K@std@@V?$allocator@U?$pair@$$CBKE@std@@@2@$0A@@std@@@0@0AAIUbidirectional_iterator_tag@0@@Z
_TEXT	SEGMENT PARA USE32 PUBLIC 'CODE'
_TEXT	ENDS
;	COMDAT ??$_Ptr_cat@PAU__SPAWNREGION@CEventLua@@PAU12@@std@@YA?AU_Nonscalar_ptr_iterator_tag@0@AAPAU__SPAWNREGION@CEventLua@@0@Z
_TEXT	SEGMENT PARA USE32 PUBLIC 'CODE'
_TEXT	ENDS
;	COMDAT ??$_Uninit_fill_n@PAU__SPAWNREGION@CEventLua@@IU12@V?$allocator@U__SPAWNREGION@CEventLua@@@std@@@std@@YAXPAU__SPAWNREGION@CEventLua@@IABU12@AAV?$allocator@U__SPAWNREGION@CEventLua@@@0@U_Nonscalar_ptr_iterator_tag@0@@Z
_TEXT	SEGMENT PARA USE32 PUBLIC 'CODE'
_TEXT	ENDS
;	COMDAT ??$_Copy_opt@PAJPAJ@std@@YAPAJPAJ00U_Scalar_ptr_iterator_tag@0@@Z
_TEXT	SEGMENT PARA USE32 PUBLIC 'CODE'
_TEXT	ENDS
;	COMDAT ??$_Uninitialized_copy@PAJPAJV?$allocator@J@std@@@std@@YAPAJPAJ00AAV?$allocator@J@0@@Z
_TEXT	SEGMENT PARA USE32 PUBLIC 'CODE'
_TEXT	ENDS
;	COMDAT ??$_Copy_backward_opt@PAJPAJ@std@@YAPAJPAJ00U_Scalar_ptr_iterator_tag@0@@Z
_TEXT	SEGMENT PARA USE32 PUBLIC 'CODE'
_TEXT	ENDS
;	COMDAT ??$_Ptr_cat@PAUtagDROPITEM@@PAU1@@std@@YA?AU_Nonscalar_ptr_iterator_tag@0@AAPAUtagDROPITEM@@0@Z
_TEXT	SEGMENT PARA USE32 PUBLIC 'CODE'
_TEXT	ENDS
;	COMDAT ??$_Destroy_range@UtagDROPITEM@@V?$allocator@UtagDROPITEM@@@std@@@std@@YAXPAUtagDROPITEM@@0AAV?$allocator@UtagDROPITEM@@@0@U_Nonscalar_ptr_iterator_tag@0@@Z
_TEXT	SEGMENT PARA USE32 PUBLIC 'CODE'
_TEXT	ENDS
;	COMDAT ??$_Ptr_cat@PAUWORMON@@PAU1@@std@@YA?AU_Nonscalar_ptr_iterator_tag@0@AAPAUWORMON@@0@Z
_TEXT	SEGMENT PARA USE32 PUBLIC 'CODE'
_TEXT	ENDS
;	COMDAT ??$_Destroy_range@UWORMON@@V?$allocator@UWORMON@@@std@@@std@@YAXPAUWORMON@@0AAV?$allocator@UWORMON@@@0@U_Nonscalar_ptr_iterator_tag@0@@Z
_TEXT	SEGMENT PARA USE32 PUBLIC 'CODE'
_TEXT	ENDS
;	COMDAT ??$_Ptr_cat@PAU__ITEMGAME@CMiniGame@@PAU12@@std@@YA?AU_Nonscalar_ptr_iterator_tag@0@AAPAU__ITEMGAME@CMiniGame@@0@Z
_TEXT	SEGMENT PARA USE32 PUBLIC 'CODE'
_TEXT	ENDS
;	COMDAT ??$_Destroy_range@U__ITEMGAME@CMiniGame@@V?$allocator@U__ITEMGAME@CMiniGame@@@std@@@std@@YAXPAU__ITEMGAME@CMiniGame@@0AAV?$allocator@U__ITEMGAME@CMiniGame@@@0@U_Nonscalar_ptr_iterator_tag@0@@Z
_TEXT	SEGMENT PARA USE32 PUBLIC 'CODE'
_TEXT	ENDS
;	COMDAT ??$_Destroy_range@KV?$allocator@K@std@@@std@@YAXPAK0AAV?$allocator@K@0@U_Scalar_ptr_iterator_tag@0@@Z
_TEXT	SEGMENT PARA USE32 PUBLIC 'CODE'
_TEXT	ENDS
;	COMDAT ??$_Destroy_range@HV?$allocator@H@std@@@std@@YAXPAH0AAV?$allocator@H@0@U_Scalar_ptr_iterator_tag@0@@Z
_TEXT	SEGMENT PARA USE32 PUBLIC 'CODE'
_TEXT	ENDS
;	COMDAT ??$_Ptr_cat@PAU__ITEM@CExchange@@PAU12@@std@@YA?AU_Nonscalar_ptr_iterator_tag@0@AAPAU__ITEM@CExchange@@0@Z
_TEXT	SEGMENT PARA USE32 PUBLIC 'CODE'
_TEXT	ENDS
;	COMDAT ??$_Destroy_range@U__ITEM@CExchange@@V?$allocator@U__ITEM@CExchange@@@std@@@std@@YAXPAU__ITEM@CExchange@@0AAV?$allocator@U__ITEM@CExchange@@@0@U_Nonscalar_ptr_iterator_tag@0@@Z
_TEXT	SEGMENT PARA USE32 PUBLIC 'CODE'
_TEXT	ENDS
;	COMDAT ??$_Ptr_cat@PAU__POINT@CExchange@@PAU12@@std@@YA?AU_Nonscalar_ptr_iterator_tag@0@AAPAU__POINT@CExchange@@0@Z
_TEXT	SEGMENT PARA USE32 PUBLIC 'CODE'
_TEXT	ENDS
;	COMDAT ??$_Destroy_range@U__POINT@CExchange@@V?$allocator@U__POINT@CExchange@@@std@@@std@@YAXPAU__POINT@CExchange@@0AAV?$allocator@U__POINT@CExchange@@@0@U_Nonscalar_ptr_iterator_tag@0@@Z
_TEXT	SEGMENT PARA USE32 PUBLIC 'CODE'
_TEXT	ENDS
;	COMDAT ??$_Destroy_range@EV?$allocator@E@std@@@std@@YAXPAE0AAV?$allocator@E@0@U_Scalar_ptr_iterator_tag@0@@Z
_TEXT	SEGMENT PARA USE32 PUBLIC 'CODE'
_TEXT	ENDS
;	COMDAT ??$_Uninitialized_copy@PAU__SPAWNREGION@CEventLua@@PAU12@V?$allocator@U__SPAWNREGION@CEventLua@@@std@@@std@@YAPAU__SPAWNREGION@CEventLua@@PAU12@00AAV?$allocator@U__SPAWNREGION@CEventLua@@@0@@Z
_TEXT	SEGMENT PARA USE32 PUBLIC 'CODE'
_TEXT	ENDS
;	COMDAT ??$_Copy_backward_opt@PAU__SPAWNREGION@CEventLua@@PAU12@@std@@YAPAU__SPAWNREGION@CEventLua@@PAU12@00U_Nonscalar_ptr_iterator_tag@0@@Z
_TEXT	SEGMENT PARA USE32 PUBLIC 'CODE'
_TEXT	ENDS
;	COMDAT ??$_Ptr_cat@PAUD3DXVECTOR3@@PAU1@@std@@YA?AU_Nonscalar_ptr_iterator_tag@0@AAPAUD3DXVECTOR3@@0@Z
_TEXT	SEGMENT PARA USE32 PUBLIC 'CODE'
_TEXT	ENDS
;	COMDAT ??$_Destroy_range@UD3DXVECTOR3@@V?$allocator@UD3DXVECTOR3@@@std@@@std@@YAXPAUD3DXVECTOR3@@0AAV?$allocator@UD3DXVECTOR3@@@0@U_Nonscalar_ptr_iterator_tag@0@@Z
_TEXT	SEGMENT PARA USE32 PUBLIC 'CODE'
_TEXT	ENDS
;	COMDAT ??$_Ptr_cat@PAU_GIFTBOX@@PAU1@@std@@YA?AU_Nonscalar_ptr_iterator_tag@0@AAPAU_GIFTBOX@@0@Z
_TEXT	SEGMENT PARA USE32 PUBLIC 'CODE'
_TEXT	ENDS
;	COMDAT ??$_Destroy_range@U_GIFTBOX@@V?$allocator@U_GIFTBOX@@@std@@@std@@YAXPAU_GIFTBOX@@0AAV?$allocator@U_GIFTBOX@@@0@U_Nonscalar_ptr_iterator_tag@0@@Z
_TEXT	SEGMENT PARA USE32 PUBLIC 'CODE'
_TEXT	ENDS
;	COMDAT ??$_Destroy_range@JV?$allocator@J@std@@@std@@YAXPAJ0AAV?$allocator@J@0@U_Scalar_ptr_iterator_tag@0@@Z
_TEXT	SEGMENT PARA USE32 PUBLIC 'CODE'
_TEXT	ENDS
;	COMDAT ??$_Uninit_fill_n@JIJ@std@@YAXPAJIABJAAV?$allocator@J@0@U_Scalar_ptr_iterator_tag@0@@Z
_TEXT	SEGMENT PARA USE32 PUBLIC 'CODE'
_TEXT	ENDS
;	COMDAT ??$_Destroy_range@U__SPAWNREGION@CEventLua@@V?$allocator@U__SPAWNREGION@CEventLua@@@std@@@std@@YAXPAU__SPAWNREGION@CEventLua@@0AAV?$allocator@U__SPAWNREGION@CEventLua@@@0@U_Nonscalar_ptr_iterator_tag@0@@Z
_TEXT	SEGMENT PARA USE32 PUBLIC 'CODE'
_TEXT	ENDS
;	COMDAT ??$make_pair@KPAVCGuildHouseBase@@@std@@YA?AU?$pair@KPAVCGuildHouseBase@@@0@KPAVCGuildHouseBase@@@Z
_TEXT	SEGMENT PARA USE32 PUBLIC 'CODE'
_TEXT	ENDS
;	COMDAT ??$?0KPAVCGuildHouseBase@@@?$pair@$$CBKPAVCGuildHouseBase@@@std@@QAE@ABU?$pair@KPAVCGuildHouseBase@@@1@@Z
_TEXT	SEGMENT PARA USE32 PUBLIC 'CODE'
_TEXT	ENDS
;	COMDAT ??$_Distance@Viterator@?$_Tree@V?$_Tmap_traits@KU_Friend@@U?$less@K@std@@V?$allocator@U?$pair@$$CBKU_Friend@@@std@@@3@$0A@@std@@@std@@I@std@@YAXViterator@?$_Tree@V?$_Tmap_traits@KU_Friend@@U?$less@K@std@@V?$allocator@U?$pair@$$CBKU_Friend@@@std@@@3@$0A@@std@@@0@0AAI@Z
_TEXT	SEGMENT PARA USE32 PUBLIC 'CODE'
_TEXT	ENDS
;	COMDAT ??$_Distance@Viterator@?$_Tree@V?$_Tmap_traits@KKU?$less@K@std@@V?$allocator@U?$pair@$$CBKK@std@@@2@$0A@@std@@@std@@I@std@@YAXViterator@?$_Tree@V?$_Tmap_traits@KKU?$less@K@std@@V?$allocator@U?$pair@$$CBKK@std@@@2@$0A@@std@@@0@0AAI@Z
_TEXT	SEGMENT PARA USE32 PUBLIC 'CODE'
_TEXT	ENDS
;	COMDAT ??$_Destroy@U_Node@?$_List_nod@PAU__JOINPLAYER@CGuildCombat@@V?$allocator@PAU__JOINPLAYER@CGuildCombat@@@std@@@std@@@std@@YAXPAU_Node@?$_List_nod@PAU__JOINPLAYER@CGuildCombat@@V?$allocator@PAU__JOINPLAYER@CGuildCombat@@@std@@@0@@Z
_TEXT	SEGMENT PARA USE32 PUBLIC 'CODE'
_TEXT	ENDS
;	COMDAT ??$_Uninitialized_fill_n@PAV?$basic_string@DU?$char_traits@D@std@@V?$allocator@D@2@@std@@IV12@V?$allocator@V?$basic_string@DU?$char_traits@D@std@@V?$allocator@D@2@@std@@@2@@std@@YAXPAV?$basic_string@DU?$char_traits@D@std@@V?$allocator@D@2@@0@IABV10@AAV?$allocator@V?$basic_string@DU?$char_traits@D@std@@V?$allocator@D@2@@std@@@0@@Z
_TEXT	SEGMENT PARA USE32 PUBLIC 'CODE'
_TEXT	ENDS
;	COMDAT ??$_Uninitialized_fill_n@PAUMINIGMAME_PRIZE_LIST@CRainbowRaceMng@@IU12@V?$allocator@UMINIGMAME_PRIZE_LIST@CRainbowRaceMng@@@std@@@std@@YAXPAUMINIGMAME_PRIZE_LIST@CRainbowRaceMng@@IABU12@AAV?$allocator@UMINIGMAME_PRIZE_LIST@CRainbowRaceMng@@@0@@Z
_TEXT	SEGMENT PARA USE32 PUBLIC 'CODE'
_TEXT	ENDS
;	COMDAT ??$_Uninitialized_fill_n@PAU_PocketController_Result@@IU1@V?$allocator@U_PocketController_Result@@@std@@@std@@YAXPAU_PocketController_Result@@IABU1@AAV?$allocator@U_PocketController_Result@@@0@@Z
_TEXT	SEGMENT PARA USE32 PUBLIC 'CODE'
_TEXT	ENDS
;	COMDAT ??$_Allocate@V?$basic_string@DU?$char_traits@D@std@@V?$allocator@D@2@@std@@@std@@YAPAV?$basic_string@DU?$char_traits@D@std@@V?$allocator@D@2@@0@IPAV10@@Z
_TEXT	SEGMENT PARA USE32 PUBLIC 'CODE'
_TEXT	ENDS
;	COMDAT ??$?0PAUtagACTMSG@@@?$allocator@PAPAUtagACTMSG@@@std@@QAE@ABV?$allocator@PAUtagACTMSG@@@1@@Z
_TEXT	SEGMENT PARA USE32 PUBLIC 'CODE'
_TEXT	ENDS
;	COMDAT ??$_Destroy@PAPAUtagACTMSG@@@std@@YAXPAPAPAUtagACTMSG@@@Z
_TEXT	SEGMENT PARA USE32 PUBLIC 'CODE'
_TEXT	ENDS
;	COMDAT ??$?0PAUtagMAGICATKMSG@@@?$allocator@PAPAUtagMAGICATKMSG@@@std@@QAE@ABV?$allocator@PAUtagMAGICATKMSG@@@1@@Z
_TEXT	SEGMENT PARA USE32 PUBLIC 'CODE'
_TEXT	ENDS
;	COMDAT ??$_Destroy@PAPAUtagMAGICATKMSG@@@std@@YAXPAPAPAUtagMAGICATKMSG@@@Z
_TEXT	SEGMENT PARA USE32 PUBLIC 'CODE'
_TEXT	ENDS
;	COMDAT ??$_Destroy_range@PAU__JOINPLAYER@CGuildCombat@@V?$allocator@PAU__JOINPLAYER@CGuildCombat@@@std@@@std@@YAXPAPAU__JOINPLAYER@CGuildCombat@@0AAV?$allocator@PAU__JOINPLAYER@CGuildCombat@@@0@@Z
_TEXT	SEGMENT PARA USE32 PUBLIC 'CODE'
_TEXT	ENDS
;	COMDAT ??$_Destroy_range@U__SECRETROOM_MONSTER@@V?$allocator@U__SECRETROOM_MONSTER@@@std@@@std@@YAXPAU__SECRETROOM_MONSTER@@0AAV?$allocator@U__SECRETROOM_MONSTER@@@0@@Z
_TEXT	SEGMENT PARA USE32 PUBLIC 'CODE'
_TEXT	ENDS
;	COMDAT ??$_Allocate@U__SECRETROOM_MONSTER@@@std@@YAPAU__SECRETROOM_MONSTER@@IPAU1@@Z
_TEXT	SEGMENT PARA USE32 PUBLIC 'CODE'
_TEXT	ENDS
;	COMDAT ??$_Destroy_range@V?$basic_string@DU?$char_traits@D@std@@V?$allocator@D@2@@std@@V?$allocator@V?$basic_string@DU?$char_traits@D@std@@V?$allocator@D@2@@std@@@2@@std@@YAXPAV?$basic_string@DU?$char_traits@D@std@@V?$allocator@D@2@@0@0AAV?$allocator@V?$basic_string@DU?$char_traits@D@std@@V?$allocator@D@2@@std@@@0@@Z
_TEXT	SEGMENT PARA USE32 PUBLIC 'CODE'
_TEXT	ENDS
;	COMDAT ??$_Ucopy@PAV?$basic_string@DU?$char_traits@D@std@@V?$allocator@D@2@@std@@@?$vector@V?$basic_string@DU?$char_traits@D@std@@V?$allocator@D@2@@std@@V?$allocator@V?$basic_string@DU?$char_traits@D@std@@V?$allocator@D@2@@std@@@2@@std@@IAEPAV?$basic_string@DU?$char_traits@D@std@@V?$allocator@D@2@@1@PAV21@00@Z
_TEXT	SEGMENT PARA USE32 PUBLIC 'CODE'
_TEXT	ENDS
;	COMDAT ??$fill@PAV?$basic_string@DU?$char_traits@D@std@@V?$allocator@D@2@@std@@V12@@std@@YAXPAV?$basic_string@DU?$char_traits@D@std@@V?$allocator@D@2@@0@0ABV10@@Z
_TEXT	SEGMENT PARA USE32 PUBLIC 'CODE'
_TEXT	ENDS
;	COMDAT ??$copy_backward@PAV?$basic_string@DU?$char_traits@D@std@@V?$allocator@D@2@@std@@PAV12@@std@@YAPAV?$basic_string@DU?$char_traits@D@std@@V?$allocator@D@2@@0@PAV10@00@Z
_TEXT	SEGMENT PARA USE32 PUBLIC 'CODE'
_TEXT	ENDS
;	COMDAT ??$_Ucopy@PAUMINIGMAME_PRIZE_LIST@CRainbowRaceMng@@@?$vector@UMINIGMAME_PRIZE_LIST@CRainbowRaceMng@@V?$allocator@UMINIGMAME_PRIZE_LIST@CRainbowRaceMng@@@std@@@std@@IAEPAUMINIGMAME_PRIZE_LIST@CRainbowRaceMng@@PAU23@00@Z
_TEXT	SEGMENT PARA USE32 PUBLIC 'CODE'
_TEXT	ENDS
;	COMDAT ??$fill@PAUMINIGMAME_PRIZE_LIST@CRainbowRaceMng@@U12@@std@@YAXPAUMINIGMAME_PRIZE_LIST@CRainbowRaceMng@@0ABU12@@Z
_TEXT	SEGMENT PARA USE32 PUBLIC 'CODE'
_TEXT	ENDS
;	COMDAT ??$copy_backward@PAUMINIGMAME_PRIZE_LIST@CRainbowRaceMng@@PAU12@@std@@YAPAUMINIGMAME_PRIZE_LIST@CRainbowRaceMng@@PAU12@00@Z
_TEXT	SEGMENT PARA USE32 PUBLIC 'CODE'
_TEXT	ENDS
;	COMDAT ??$_Ucopy@PAU_PocketController_Result@@@?$vector@U_PocketController_Result@@V?$allocator@U_PocketController_Result@@@std@@@std@@IAEPAU_PocketController_Result@@PAU2@00@Z
_TEXT	SEGMENT PARA USE32 PUBLIC 'CODE'
_TEXT	ENDS
;	COMDAT ??$fill@PAU_PocketController_Result@@U1@@std@@YAXPAU_PocketController_Result@@0ABU1@@Z
_TEXT	SEGMENT PARA USE32 PUBLIC 'CODE'
_TEXT	ENDS
;	COMDAT ??$copy_backward@PAU_PocketController_Result@@PAU1@@std@@YAPAU_PocketController_Result@@PAU1@00@Z
_TEXT	SEGMENT PARA USE32 PUBLIC 'CODE'
_TEXT	ENDS
;	COMDAT ??$_Destroy@PAUtagACTMSG@@@std@@YAXPAPAUtagACTMSG@@@Z
_TEXT	SEGMENT PARA USE32 PUBLIC 'CODE'
_TEXT	ENDS
;	COMDAT ??$_Destroy@PAUtagMAGICATKMSG@@@std@@YAXPAPAUtagMAGICATKMSG@@@Z
_TEXT	SEGMENT PARA USE32 PUBLIC 'CODE'
_TEXT	ENDS
;	COMDAT ??$_Destroy@U_Node@?$_Tree_nod@V?$_Tmap_traits@KU_Friend@@U?$less@K@std@@V?$allocator@U?$pair@$$CBKU_Friend@@@std@@@3@$0A@@std@@@std@@@std@@YAXPAU_Node@?$_Tree_nod@V?$_Tmap_traits@KU_Friend@@U?$less@K@std@@V?$allocator@U?$pair@$$CBKU_Friend@@@std@@@3@$0A@@std@@@0@@Z
_TEXT	SEGMENT PARA USE32 PUBLIC 'CODE'
_TEXT	ENDS
;	COMDAT ??$_Destroy_range@UMINIGMAME_PRIZE_LIST@CRainbowRaceMng@@V?$allocator@UMINIGMAME_PRIZE_LIST@CRainbowRaceMng@@@std@@@std@@YAXPAUMINIGMAME_PRIZE_LIST@CRainbowRaceMng@@0AAV?$allocator@UMINIGMAME_PRIZE_LIST@CRainbowRaceMng@@@0@@Z
_TEXT	SEGMENT PARA USE32 PUBLIC 'CODE'
_TEXT	ENDS
;	COMDAT ??$_Allocate@UMINIGMAME_PRIZE_LIST@CRainbowRaceMng@@@std@@YAPAUMINIGMAME_PRIZE_LIST@CRainbowRaceMng@@IPAU12@@Z
_TEXT	SEGMENT PARA USE32 PUBLIC 'CODE'
_TEXT	ENDS
;	COMDAT ??$_Allocate@U_Node@?$_Tree_nod@V?$_Tmap_traits@KPAVCGuildHouseBase@@U?$less@K@std@@V?$allocator@U?$pair@$$CBKPAVCGuildHouseBase@@@std@@@3@$0A@@std@@@std@@@std@@YAPAU_Node@?$_Tree_nod@V?$_Tmap_traits@KPAVCGuildHouseBase@@U?$less@K@std@@V?$allocator@U?$pair@$$CBKPAVCGuildHouseBase@@@std@@@3@$0A@@std@@@0@IPAU120@@Z
_TEXT	SEGMENT PARA USE32 PUBLIC 'CODE'
_TEXT	ENDS
;	COMDAT ??$_Destroy@U_Node@?$_Tree_nod@V?$_Tmap_traits@KKU?$less@K@std@@V?$allocator@U?$pair@$$CBKK@std@@@2@$0A@@std@@@std@@@std@@YAXPAU_Node@?$_Tree_nod@V?$_Tmap_traits@KKU?$less@K@std@@V?$allocator@U?$pair@$$CBKK@std@@@2@$0A@@std@@@0@@Z
_TEXT	SEGMENT PARA USE32 PUBLIC 'CODE'
_TEXT	ENDS
;	COMDAT ??$_Destroy_range@U_PocketController_Result@@V?$allocator@U_PocketController_Result@@@std@@@std@@YAXPAU_PocketController_Result@@0AAV?$allocator@U_PocketController_Result@@@0@@Z
_TEXT	SEGMENT PARA USE32 PUBLIC 'CODE'
_TEXT	ENDS
;	COMDAT ??$_Allocate@U_PocketController_Result@@@std@@YAPAU_PocketController_Result@@IPAU1@@Z
_TEXT	SEGMENT PARA USE32 PUBLIC 'CODE'
_TEXT	ENDS
;	COMDAT ??_ECItemElem@@UAEPAXI@Z
_TEXT	SEGMENT PARA USE32 PUBLIC 'CODE'
_TEXT	ENDS
;	COMDAT ?destroy@?$allocator@UtagDROPITEM@@@std@@QAEXPAUtagDROPITEM@@@Z
_TEXT	SEGMENT PARA USE32 PUBLIC 'CODE'
_TEXT	ENDS
;	COMDAT ?destroy@?$allocator@UWORMON@@@std@@QAEXPAUWORMON@@@Z
_TEXT	SEGMENT PARA USE32 PUBLIC 'CODE'
_TEXT	ENDS
;	COMDAT ?destroy@?$allocator@U__ITEMGAME@CMiniGame@@@std@@QAEXPAU__ITEMGAME@CMiniGame@@@Z
_TEXT	SEGMENT PARA USE32 PUBLIC 'CODE'
_TEXT	ENDS
;	COMDAT ?destroy@?$allocator@U__ITEM@CExchange@@@std@@QAEXPAU__ITEM@CExchange@@@Z
_TEXT	SEGMENT PARA USE32 PUBLIC 'CODE'
_TEXT	ENDS
;	COMDAT ?destroy@?$allocator@U__POINT@CExchange@@@std@@QAEXPAU__POINT@CExchange@@@Z
_TEXT	SEGMENT PARA USE32 PUBLIC 'CODE'
_TEXT	ENDS
;	COMDAT ?begin@?$vector@EV?$allocator@E@std@@@std@@QAE?AViterator@12@XZ
_TEXT	SEGMENT PARA USE32 PUBLIC 'CODE'
_TEXT	ENDS
;	COMDAT ?end@?$vector@EV?$allocator@E@std@@@std@@QAE?AViterator@12@XZ
_TEXT	SEGMENT PARA USE32 PUBLIC 'CODE'
_TEXT	ENDS
;	COMDAT ?erase@?$vector@EV?$allocator@E@std@@@std@@QAE?AViterator@12@V312@0@Z
_TEXT	SEGMENT PARA USE32 PUBLIC 'CODE'
_TEXT	ENDS
;	COMDAT ?construct@?$allocator@U__SPAWNREGION@CEventLua@@@std@@QAEXPAU__SPAWNREGION@CEventLua@@ABU34@@Z
_TEXT	SEGMENT PARA USE32 PUBLIC 'CODE'
_TEXT	ENDS
;	COMDAT ?destroy@?$allocator@U__SPAWNREGION@CEventLua@@@std@@QAEXPAU__SPAWNREGION@CEventLua@@@Z
_TEXT	SEGMENT PARA USE32 PUBLIC 'CODE'
_TEXT	ENDS
;	COMDAT ?destroy@?$allocator@UD3DXVECTOR3@@@std@@QAEXPAUD3DXVECTOR3@@@Z
_TEXT	SEGMENT PARA USE32 PUBLIC 'CODE'
_TEXT	ENDS
;	COMDAT ?destroy@?$allocator@U_GIFTBOX@@@std@@QAEXPAU_GIFTBOX@@@Z
_TEXT	SEGMENT PARA USE32 PUBLIC 'CODE'
_TEXT	ENDS
;	COMDAT ??0?$pair@KPAVCGuildHouseBase@@@std@@QAE@ABKABQAVCGuildHouseBase@@@Z
_TEXT	SEGMENT PARA USE32 PUBLIC 'CODE'
_TEXT	ENDS
;	COMDAT ??9const_iterator@?$vector@EV?$allocator@E@std@@@std@@QBE_NABV012@@Z
_TEXT	SEGMENT PARA USE32 PUBLIC 'CODE'
_TEXT	ENDS
;	COMDAT ??0iterator@?$vector@EV?$allocator@E@std@@@std@@QAE@PAE@Z
_TEXT	SEGMENT PARA USE32 PUBLIC 'CODE'
_TEXT	ENDS
;	COMDAT ??8const_iterator@?$vector@EV?$allocator@E@std@@@std@@QBE_NABV012@@Z
_TEXT	SEGMENT PARA USE32 PUBLIC 'CODE'
_TEXT	ENDS
;	COMDAT ??$insert@Vconst_iterator@?$vector@EV?$allocator@E@std@@@std@@@?$vector@EV?$allocator@E@std@@@std@@QAEXViterator@01@Vconst_iterator@01@1@Z
_TEXT	SEGMENT PARA USE32 PUBLIC 'CODE'
_TEXT	ENDS
;	COMDAT ?Clear@?$CItemContainer@VCItemElem@@@@QAEXXZ
_TEXT	SEGMENT PARA USE32 PUBLIC 'CODE'
_TEXT	ENDS
;	COMDAT ?IsFull@?$CItemContainer@VCItemElem@@@@QAEHPAVCItemElem@@PAUItemProp@@F@Z
_TEXT	SEGMENT PARA USE32 PUBLIC 'CODE'
_TEXT	ENDS
;	COMDAT ??$_Ptr_cat@Vconst_iterator@?$vector@EV?$allocator@E@std@@@std@@PAE@std@@YA?AU_Nonscalar_ptr_iterator_tag@0@AAVconst_iterator@?$vector@EV?$allocator@E@std@@@0@AAPAE@Z
_TEXT	SEGMENT PARA USE32 PUBLIC 'CODE'
_TEXT	ENDS
;	COMDAT ??$_Uninit_copy@Vconst_iterator@?$vector@EV?$allocator@E@std@@@std@@PAEV?$allocator@E@3@@std@@YAPAEVconst_iterator@?$vector@EV?$allocator@E@std@@@0@0PAEAAV?$allocator@E@0@U_Nonscalar_ptr_iterator_tag@0@@Z
_TEXT	SEGMENT PARA USE32 PUBLIC 'CODE'
_TEXT	ENDS
;	COMDAT ??$_Uninit_copy@JJ@std@@YAPAJPAJ00AAV?$allocator@J@0@U_Scalar_ptr_iterator_tag@0@@Z
_TEXT	SEGMENT PARA USE32 PUBLIC 'CODE'
_TEXT	ENDS
;	COMDAT ??$_Uninit_copy@PAU__SPAWNREGION@CEventLua@@PAU12@V?$allocator@U__SPAWNREGION@CEventLua@@@std@@@std@@YAPAU__SPAWNREGION@CEventLua@@PAU12@00AAV?$allocator@U__SPAWNREGION@CEventLua@@@0@U_Nonscalar_ptr_iterator_tag@0@@Z
_TEXT	SEGMENT PARA USE32 PUBLIC 'CODE'
_TEXT	ENDS
;	COMDAT ??$fill_n@PAJIJ@std@@YAXPAJIABJ@Z
_TEXT	SEGMENT PARA USE32 PUBLIC 'CODE'
_TEXT	ENDS
;	COMDAT ??$_Iter_cat@Viterator@?$_Tree@V?$_Tmap_traits@KU_Friend@@U?$less@K@std@@V?$allocator@U?$pair@$$CBKU_Friend@@@std@@@3@$0A@@std@@@std@@@std@@YA?AUbidirectional_iterator_tag@0@ABViterator@?$_Tree@V?$_Tmap_traits@KU_Friend@@U?$less@K@std@@V?$allocator@U?$pair@$$CBKU_Friend@@@std@@@3@$0A@@std@@@0@@Z
_TEXT	SEGMENT PARA USE32 PUBLIC 'CODE'
_TEXT	ENDS
;	COMDAT ??$_Distance2@Viterator@?$_Tree@V?$_Tmap_traits@KU_Friend@@U?$less@K@std@@V?$allocator@U?$pair@$$CBKU_Friend@@@std@@@3@$0A@@std@@@std@@I@std@@YAXViterator@?$_Tree@V?$_Tmap_traits@KU_Friend@@U?$less@K@std@@V?$allocator@U?$pair@$$CBKU_Friend@@@std@@@3@$0A@@std@@@0@0AAIUbidirectional_iterator_tag@0@@Z
_TEXT	SEGMENT PARA USE32 PUBLIC 'CODE'
_TEXT	ENDS
;	COMDAT ??$_Iter_cat@Viterator@?$_Tree@V?$_Tmap_traits@KKU?$less@K@std@@V?$allocator@U?$pair@$$CBKK@std@@@2@$0A@@std@@@std@@@std@@YA?AUbidirectional_iterator_tag@0@ABViterator@?$_Tree@V?$_Tmap_traits@KKU?$less@K@std@@V?$allocator@U?$pair@$$CBKK@std@@@2@$0A@@std@@@0@@Z
_TEXT	SEGMENT PARA USE32 PUBLIC 'CODE'
_TEXT	ENDS
;	COMDAT ??$_Distance2@Viterator@?$_Tree@V?$_Tmap_traits@KKU?$less@K@std@@V?$allocator@U?$pair@$$CBKK@std@@@2@$0A@@std@@@std@@I@std@@YAXViterator@?$_Tree@V?$_Tmap_traits@KKU?$less@K@std@@V?$allocator@U?$pair@$$CBKK@std@@@2@$0A@@std@@@0@0AAIUbidirectional_iterator_tag@0@@Z
_TEXT	SEGMENT PARA USE32 PUBLIC 'CODE'
_TEXT	ENDS
;	COMDAT ??$_Ptr_cat@PAV?$basic_string@DU?$char_traits@D@std@@V?$allocator@D@2@@std@@PAV12@@std@@YA?AU_Nonscalar_ptr_iterator_tag@0@AAPAV?$basic_string@DU?$char_traits@D@std@@V?$allocator@D@2@@0@0@Z
_TEXT	SEGMENT PARA USE32 PUBLIC 'CODE'
_TEXT	ENDS
;	COMDAT ??$_Uninit_fill_n@PAV?$basic_string@DU?$char_traits@D@std@@V?$allocator@D@2@@std@@IV12@V?$allocator@V?$basic_string@DU?$char_traits@D@std@@V?$allocator@D@2@@std@@@2@@std@@YAXPAV?$basic_string@DU?$char_traits@D@std@@V?$allocator@D@2@@0@IABV10@AAV?$allocator@V?$basic_string@DU?$char_traits@D@std@@V?$allocator@D@2@@std@@@0@U_Nonscalar_ptr_iterator_tag@0@@Z
_TEXT	SEGMENT PARA USE32 PUBLIC 'CODE'
_TEXT	ENDS
;	COMDAT ??$_Ptr_cat@PAUMINIGMAME_PRIZE_LIST@CRainbowRaceMng@@PAU12@@std@@YA?AU_Nonscalar_ptr_iterator_tag@0@AAPAUMINIGMAME_PRIZE_LIST@CRainbowRaceMng@@0@Z
_TEXT	SEGMENT PARA USE32 PUBLIC 'CODE'
_TEXT	ENDS
;	COMDAT ??$_Uninit_fill_n@PAUMINIGMAME_PRIZE_LIST@CRainbowRaceMng@@IU12@V?$allocator@UMINIGMAME_PRIZE_LIST@CRainbowRaceMng@@@std@@@std@@YAXPAUMINIGMAME_PRIZE_LIST@CRainbowRaceMng@@IABU12@AAV?$allocator@UMINIGMAME_PRIZE_LIST@CRainbowRaceMng@@@0@U_Nonscalar_ptr_iterator_tag@0@@Z
_TEXT	SEGMENT PARA USE32 PUBLIC 'CODE'
_TEXT	ENDS
;	COMDAT ??$_Ptr_cat@PAU_PocketController_Result@@PAU1@@std@@YA?AU_Nonscalar_ptr_iterator_tag@0@AAPAU_PocketController_Result@@0@Z
_TEXT	SEGMENT PARA USE32 PUBLIC 'CODE'
_TEXT	ENDS
;	COMDAT ??$_Uninit_fill_n@PAU_PocketController_Result@@IU1@V?$allocator@U_PocketController_Result@@@std@@@std@@YAXPAU_PocketController_Result@@IABU1@AAV?$allocator@U_PocketController_Result@@@0@U_Nonscalar_ptr_iterator_tag@0@@Z
_TEXT	SEGMENT PARA USE32 PUBLIC 'CODE'
_TEXT	ENDS
;	COMDAT ??$_Ptr_cat@U__JOINPLAYER@CGuildCombat@@@std@@YA?AU_Scalar_ptr_iterator_tag@0@PAPAU__JOINPLAYER@CGuildCombat@@0@Z
_TEXT	SEGMENT PARA USE32 PUBLIC 'CODE'
_TEXT	ENDS
;	COMDAT ??$_Destroy_range@PAU__JOINPLAYER@CGuildCombat@@V?$allocator@PAU__JOINPLAYER@CGuildCombat@@@std@@@std@@YAXPAPAU__JOINPLAYER@CGuildCombat@@0AAV?$allocator@PAU__JOINPLAYER@CGuildCombat@@@0@U_Scalar_ptr_iterator_tag@0@@Z
_TEXT	SEGMENT PARA USE32 PUBLIC 'CODE'
_TEXT	ENDS
;	COMDAT ??$_Ptr_cat@PAU__SECRETROOM_MONSTER@@PAU1@@std@@YA?AU_Nonscalar_ptr_iterator_tag@0@AAPAU__SECRETROOM_MONSTER@@0@Z
_TEXT	SEGMENT PARA USE32 PUBLIC 'CODE'
_TEXT	ENDS
;	COMDAT ??$_Destroy_range@U__SECRETROOM_MONSTER@@V?$allocator@U__SECRETROOM_MONSTER@@@std@@@std@@YAXPAU__SECRETROOM_MONSTER@@0AAV?$allocator@U__SECRETROOM_MONSTER@@@0@U_Nonscalar_ptr_iterator_tag@0@@Z
_TEXT	SEGMENT PARA USE32 PUBLIC 'CODE'
_TEXT	ENDS
;	COMDAT ??$_Destroy_range@V?$basic_string@DU?$char_traits@D@std@@V?$allocator@D@2@@std@@V?$allocator@V?$basic_string@DU?$char_traits@D@std@@V?$allocator@D@2@@std@@@2@@std@@YAXPAV?$basic_string@DU?$char_traits@D@std@@V?$allocator@D@2@@0@0AAV?$allocator@V?$basic_string@DU?$char_traits@D@std@@V?$allocator@D@2@@std@@@0@U_Nonscalar_ptr_iterator_tag@0@@Z
_TEXT	SEGMENT PARA USE32 PUBLIC 'CODE'
_TEXT	ENDS
;	COMDAT ??$_Uninitialized_copy@PAV?$basic_string@DU?$char_traits@D@std@@V?$allocator@D@2@@std@@PAV12@V?$allocator@V?$basic_string@DU?$char_traits@D@std@@V?$allocator@D@2@@std@@@2@@std@@YAPAV?$basic_string@DU?$char_traits@D@std@@V?$allocator@D@2@@0@PAV10@00AAV?$allocator@V?$basic_string@DU?$char_traits@D@std@@V?$allocator@D@2@@std@@@0@@Z
_TEXT	SEGMENT PARA USE32 PUBLIC 'CODE'
_TEXT	ENDS
;	COMDAT ??$_Copy_backward_opt@PAV?$basic_string@DU?$char_traits@D@std@@V?$allocator@D@2@@std@@PAV12@@std@@YAPAV?$basic_string@DU?$char_traits@D@std@@V?$allocator@D@2@@0@PAV10@00U_Nonscalar_ptr_iterator_tag@0@@Z
_TEXT	SEGMENT PARA USE32 PUBLIC 'CODE'
_TEXT	ENDS
;	COMDAT ??$_Uninitialized_copy@PAUMINIGMAME_PRIZE_LIST@CRainbowRaceMng@@PAU12@V?$allocator@UMINIGMAME_PRIZE_LIST@CRainbowRaceMng@@@std@@@std@@YAPAUMINIGMAME_PRIZE_LIST@CRainbowRaceMng@@PAU12@00AAV?$allocator@UMINIGMAME_PRIZE_LIST@CRainbowRaceMng@@@0@@Z
_TEXT	SEGMENT PARA USE32 PUBLIC 'CODE'
_TEXT	ENDS
;	COMDAT ??$_Copy_backward_opt@PAUMINIGMAME_PRIZE_LIST@CRainbowRaceMng@@PAU12@@std@@YAPAUMINIGMAME_PRIZE_LIST@CRainbowRaceMng@@PAU12@00U_Nonscalar_ptr_iterator_tag@0@@Z
_TEXT	SEGMENT PARA USE32 PUBLIC 'CODE'
_TEXT	ENDS
;	COMDAT ??$_Uninitialized_copy@PAU_PocketController_Result@@PAU1@V?$allocator@U_PocketController_Result@@@std@@@std@@YAPAU_PocketController_Result@@PAU1@00AAV?$allocator@U_PocketController_Result@@@0@@Z
_TEXT	SEGMENT PARA USE32 PUBLIC 'CODE'
_TEXT	ENDS
;	COMDAT ??$_Copy_backward_opt@PAU_PocketController_Result@@PAU1@@std@@YAPAU_PocketController_Result@@PAU1@00U_Nonscalar_ptr_iterator_tag@0@@Z
_TEXT	SEGMENT PARA USE32 PUBLIC 'CODE'
_TEXT	ENDS
;	COMDAT ??$_Destroy_range@UMINIGMAME_PRIZE_LIST@CRainbowRaceMng@@V?$allocator@UMINIGMAME_PRIZE_LIST@CRainbowRaceMng@@@std@@@std@@YAXPAUMINIGMAME_PRIZE_LIST@CRainbowRaceMng@@0AAV?$allocator@UMINIGMAME_PRIZE_LIST@CRainbowRaceMng@@@0@U_Nonscalar_ptr_iterator_tag@0@@Z
_TEXT	SEGMENT PARA USE32 PUBLIC 'CODE'
_TEXT	ENDS
;	COMDAT ??$_Destroy_range@U_PocketController_Result@@V?$allocator@U_PocketController_Result@@@std@@@std@@YAXPAU_PocketController_Result@@0AAV?$allocator@U_PocketController_Result@@@0@U_Nonscalar_ptr_iterator_tag@0@@Z
_TEXT	SEGMENT PARA USE32 PUBLIC 'CODE'
_TEXT	ENDS
;	COMDAT ??$_Destroy@UtagDROPITEM@@@std@@YAXPAUtagDROPITEM@@@Z
_TEXT	SEGMENT PARA USE32 PUBLIC 'CODE'
_TEXT	ENDS
;	COMDAT ??$_Destroy@UWORMON@@@std@@YAXPAUWORMON@@@Z
_TEXT	SEGMENT PARA USE32 PUBLIC 'CODE'
_TEXT	ENDS
;	COMDAT ??$_Destroy@U__ITEMGAME@CMiniGame@@@std@@YAXPAU__ITEMGAME@CMiniGame@@@Z
_TEXT	SEGMENT PARA USE32 PUBLIC 'CODE'
_TEXT	ENDS
;	COMDAT ??$_Destroy@U__ITEM@CExchange@@@std@@YAXPAU__ITEM@CExchange@@@Z
_TEXT	SEGMENT PARA USE32 PUBLIC 'CODE'
_TEXT	ENDS
;	COMDAT ??$_Destroy@U__POINT@CExchange@@@std@@YAXPAU__POINT@CExchange@@@Z
_TEXT	SEGMENT PARA USE32 PUBLIC 'CODE'
_TEXT	ENDS
;	COMDAT ??$copy@PAEPAE@std@@YAPAEPAE00@Z
_TEXT	SEGMENT PARA USE32 PUBLIC 'CODE'
_TEXT	ENDS
;	COMDAT ??$_Construct@U__SPAWNREGION@CEventLua@@U12@@std@@YAXPAU__SPAWNREGION@CEventLua@@ABU12@@Z
_TEXT	SEGMENT PARA USE32 PUBLIC 'CODE'
_TEXT	ENDS
;	COMDAT ??$_Destroy@U__SPAWNREGION@CEventLua@@@std@@YAXPAU__SPAWNREGION@CEventLua@@@Z
_TEXT	SEGMENT PARA USE32 PUBLIC 'CODE'
_TEXT	ENDS
;	COMDAT ??$_Destroy@UD3DXVECTOR3@@@std@@YAXPAUD3DXVECTOR3@@@Z
_TEXT	SEGMENT PARA USE32 PUBLIC 'CODE'
_TEXT	ENDS
;	COMDAT ??$_Destroy@U_GIFTBOX@@@std@@YAXPAU_GIFTBOX@@@Z
_TEXT	SEGMENT PARA USE32 PUBLIC 'CODE'
_TEXT	ENDS
;	COMDAT ?construct@?$allocator@V?$basic_string@DU?$char_traits@D@std@@V?$allocator@D@2@@std@@@std@@QAEXPAV?$basic_string@DU?$char_traits@D@std@@V?$allocator@D@2@@2@ABV32@@Z
_TEXT	SEGMENT PARA USE32 PUBLIC 'CODE'
_TEXT	ENDS
;	COMDAT ?destroy@?$allocator@V?$basic_string@DU?$char_traits@D@std@@V?$allocator@D@2@@std@@@std@@QAEXPAV?$basic_string@DU?$char_traits@D@std@@V?$allocator@D@2@@2@@Z
_TEXT	SEGMENT PARA USE32 PUBLIC 'CODE'
_TEXT	ENDS
;	COMDAT ?construct@?$allocator@E@std@@QAEXPAEABE@Z
_TEXT	SEGMENT PARA USE32 PUBLIC 'CODE'
_TEXT	ENDS
;	COMDAT ?destroy@?$allocator@E@std@@QAEXPAE@Z
_TEXT	SEGMENT PARA USE32 PUBLIC 'CODE'
_TEXT	ENDS
;	COMDAT ??Dconst_iterator@?$vector@EV?$allocator@E@std@@@std@@QBEABEXZ
_TEXT	SEGMENT PARA USE32 PUBLIC 'CODE'
_TEXT	ENDS
;	COMDAT ??Econst_iterator@?$vector@EV?$allocator@E@std@@@std@@QAEAAV012@XZ
_TEXT	SEGMENT PARA USE32 PUBLIC 'CODE'
_TEXT	ENDS
;	COMDAT ?destroy@?$allocator@U__SECRETROOM_MONSTER@@@std@@QAEXPAU__SECRETROOM_MONSTER@@@Z
_TEXT	SEGMENT PARA USE32 PUBLIC 'CODE'
_TEXT	ENDS
;	COMDAT ?construct@?$allocator@UMINIGMAME_PRIZE_LIST@CRainbowRaceMng@@@std@@QAEXPAUMINIGMAME_PRIZE_LIST@CRainbowRaceMng@@ABU34@@Z
_TEXT	SEGMENT PARA USE32 PUBLIC 'CODE'
_TEXT	ENDS
;	COMDAT ?destroy@?$allocator@UMINIGMAME_PRIZE_LIST@CRainbowRaceMng@@@std@@QAEXPAUMINIGMAME_PRIZE_LIST@CRainbowRaceMng@@@Z
_TEXT	SEGMENT PARA USE32 PUBLIC 'CODE'
_TEXT	ENDS
;	COMDAT ?construct@?$allocator@U_PocketController_Result@@@std@@QAEXPAU_PocketController_Result@@ABU3@@Z
_TEXT	SEGMENT PARA USE32 PUBLIC 'CODE'
_TEXT	ENDS
;	COMDAT ?destroy@?$allocator@U_PocketController_Result@@@std@@QAEXPAU_PocketController_Result@@@Z
_TEXT	SEGMENT PARA USE32 PUBLIC 'CODE'
_TEXT	ENDS
;	COMDAT ??$_Insert@Vconst_iterator@?$vector@EV?$allocator@E@std@@@std@@@?$vector@EV?$allocator@E@std@@@std@@QAEXViterator@01@Vconst_iterator@01@1Uforward_iterator_tag@1@@Z
_TEXT	SEGMENT PARA USE32 PUBLIC 'CODE'
_TEXT	ENDS
;	COMDAT ??$_Uninit_copy@PAV?$basic_string@DU?$char_traits@D@std@@V?$allocator@D@2@@std@@PAV12@V?$allocator@V?$basic_string@DU?$char_traits@D@std@@V?$allocator@D@2@@std@@@2@@std@@YAPAV?$basic_string@DU?$char_traits@D@std@@V?$allocator@D@2@@0@PAV10@00AAV?$allocator@V?$basic_string@DU?$char_traits@D@std@@V?$allocator@D@2@@std@@@0@U_Nonscalar_ptr_iterator_tag@0@@Z
_TEXT	SEGMENT PARA USE32 PUBLIC 'CODE'
_TEXT	ENDS
;	COMDAT ??$_Uninit_copy@PAUMINIGMAME_PRIZE_LIST@CRainbowRaceMng@@PAU12@V?$allocator@UMINIGMAME_PRIZE_LIST@CRainbowRaceMng@@@std@@@std@@YAPAUMINIGMAME_PRIZE_LIST@CRainbowRaceMng@@PAU12@00AAV?$allocator@UMINIGMAME_PRIZE_LIST@CRainbowRaceMng@@@0@U_Nonscalar_ptr_iterator_tag@0@@Z
_TEXT	SEGMENT PARA USE32 PUBLIC 'CODE'
_TEXT	ENDS
;	COMDAT ??$_Uninit_copy@PAU_PocketController_Result@@PAU1@V?$allocator@U_PocketController_Result@@@std@@@std@@YAPAU_PocketController_Result@@PAU1@00AAV?$allocator@U_PocketController_Result@@@0@U_Nonscalar_ptr_iterator_tag@0@@Z
_TEXT	SEGMENT PARA USE32 PUBLIC 'CODE'
_TEXT	ENDS
;	COMDAT ??$_Copy_opt@PAEPAE@std@@YAPAEPAE00U_Scalar_ptr_iterator_tag@0@@Z
_TEXT	SEGMENT PARA USE32 PUBLIC 'CODE'
_TEXT	ENDS
;	COMDAT ??$_Construct@V?$basic_string@DU?$char_traits@D@std@@V?$allocator@D@2@@std@@V12@@std@@YAXPAV?$basic_string@DU?$char_traits@D@std@@V?$allocator@D@2@@0@ABV10@@Z
_TEXT	SEGMENT PARA USE32 PUBLIC 'CODE'
_TEXT	ENDS
;	COMDAT ??$_Destroy@V?$basic_string@DU?$char_traits@D@std@@V?$allocator@D@2@@std@@@std@@YAXPAV?$basic_string@DU?$char_traits@D@std@@V?$allocator@D@2@@0@@Z
_TEXT	SEGMENT PARA USE32 PUBLIC 'CODE'
_TEXT	ENDS
;	COMDAT ??$_Construct@EE@std@@YAXPAEABE@Z
_TEXT	SEGMENT PARA USE32 PUBLIC 'CODE'
_TEXT	ENDS
;	COMDAT ??$_Destroy@E@std@@YAXPAE@Z
_TEXT	SEGMENT PARA USE32 PUBLIC 'CODE'
_TEXT	ENDS
;	COMDAT ??$_Destroy@U__SECRETROOM_MONSTER@@@std@@YAXPAU__SECRETROOM_MONSTER@@@Z
_TEXT	SEGMENT PARA USE32 PUBLIC 'CODE'
_TEXT	ENDS
;	COMDAT ??$_Construct@UMINIGMAME_PRIZE_LIST@CRainbowRaceMng@@U12@@std@@YAXPAUMINIGMAME_PRIZE_LIST@CRainbowRaceMng@@ABU12@@Z
_TEXT	SEGMENT PARA USE32 PUBLIC 'CODE'
_TEXT	ENDS
;	COMDAT ??$_Destroy@UMINIGMAME_PRIZE_LIST@CRainbowRaceMng@@@std@@YAXPAUMINIGMAME_PRIZE_LIST@CRainbowRaceMng@@@Z
_TEXT	SEGMENT PARA USE32 PUBLIC 'CODE'
_TEXT	ENDS
;	COMDAT ??$_Construct@U_PocketController_Result@@U1@@std@@YAXPAU_PocketController_Result@@ABU1@@Z
_TEXT	SEGMENT PARA USE32 PUBLIC 'CODE'
_TEXT	ENDS
;	COMDAT ??$_Destroy@U_PocketController_Result@@@std@@YAXPAU_PocketController_Result@@@Z
_TEXT	SEGMENT PARA USE32 PUBLIC 'CODE'
_TEXT	ENDS
;	COMDAT ??_G?$basic_string@DU?$char_traits@D@std@@V?$allocator@D@2@@std@@QAEPAXI@Z
_TEXT	SEGMENT PARA USE32 PUBLIC 'CODE'
_TEXT	ENDS
;	COMDAT ?capacity@?$vector@EV?$allocator@E@std@@@std@@QBEIXZ
_TEXT	SEGMENT PARA USE32 PUBLIC 'CODE'
_TEXT	ENDS
;	COMDAT ??Giterator@?$vector@EV?$allocator@E@std@@@std@@QBEHABVconst_iterator@12@@Z
_TEXT	SEGMENT PARA USE32 PUBLIC 'CODE'
_TEXT	ENDS
;	COMDAT ??Gconst_iterator@?$vector@EV?$allocator@E@std@@@std@@QBEHABV012@@Z
_TEXT	SEGMENT PARA USE32 PUBLIC 'CODE'
_TEXT	ENDS
;	COMDAT ??$_Distance@Vconst_iterator@?$vector@EV?$allocator@E@std@@@std@@I@std@@YAXVconst_iterator@?$vector@EV?$allocator@E@std@@@0@0AAI@Z
_TEXT	SEGMENT PARA USE32 PUBLIC 'CODE'
_TEXT	ENDS
;	COMDAT ??$_Ucopy@PAE@?$vector@EV?$allocator@E@std@@@std@@IAEPAEPAE00@Z
_TEXT	SEGMENT PARA USE32 PUBLIC 'CODE'
_TEXT	ENDS
;	COMDAT ??$advance@Vconst_iterator@?$vector@EV?$allocator@E@std@@@std@@H@std@@YAXAAVconst_iterator@?$vector@EV?$allocator@E@std@@@0@H@Z
_TEXT	SEGMENT PARA USE32 PUBLIC 'CODE'
_TEXT	ENDS
;	COMDAT ??$copy@Vconst_iterator@?$vector@EV?$allocator@E@std@@@std@@PAE@std@@YAPAEVconst_iterator@?$vector@EV?$allocator@E@std@@@0@0PAE@Z
_TEXT	SEGMENT PARA USE32 PUBLIC 'CODE'
_TEXT	ENDS
;	COMDAT ??$copy_backward@PAEPAE@std@@YAPAEPAE00@Z
_TEXT	SEGMENT PARA USE32 PUBLIC 'CODE'
_TEXT	ENDS
;	COMDAT ??$_Distance2@Vconst_iterator@?$vector@EV?$allocator@E@std@@@std@@I@std@@YAXVconst_iterator@?$vector@EV?$allocator@E@std@@@0@0AAIUrandom_access_iterator_tag@0@@Z
_TEXT	SEGMENT PARA USE32 PUBLIC 'CODE'
_TEXT	ENDS
;	COMDAT ??$_Uninitialized_copy@PAEPAEV?$allocator@E@std@@@std@@YAPAEPAE00AAV?$allocator@E@0@@Z
_TEXT	SEGMENT PARA USE32 PUBLIC 'CODE'
_TEXT	ENDS
;	COMDAT ??$_Advance@Vconst_iterator@?$vector@EV?$allocator@E@std@@@std@@H@std@@YAXAAVconst_iterator@?$vector@EV?$allocator@E@std@@@0@HUrandom_access_iterator_tag@0@@Z
_TEXT	SEGMENT PARA USE32 PUBLIC 'CODE'
_TEXT	ENDS
;	COMDAT ??$_Copy_opt@Vconst_iterator@?$vector@EV?$allocator@E@std@@@std@@PAE@std@@YAPAEVconst_iterator@?$vector@EV?$allocator@E@std@@@0@0PAEU_Nonscalar_ptr_iterator_tag@0@@Z
_TEXT	SEGMENT PARA USE32 PUBLIC 'CODE'
_TEXT	ENDS
;	COMDAT ??$_Copy_backward_opt@PAEPAE@std@@YAPAEPAE00U_Scalar_ptr_iterator_tag@0@@Z
_TEXT	SEGMENT PARA USE32 PUBLIC 'CODE'
_TEXT	ENDS
;	COMDAT ??Yconst_iterator@?$vector@EV?$allocator@E@std@@@std@@QAEAAV012@H@Z
_TEXT	SEGMENT PARA USE32 PUBLIC 'CODE'
_TEXT	ENDS
;	COMDAT ??$_Uninit_copy@EE@std@@YAPAEPAE00AAV?$allocator@E@0@U_Scalar_ptr_iterator_tag@0@@Z
_TEXT	SEGMENT PARA USE32 PUBLIC 'CODE'
_TEXT	ENDS
;	COMDAT ?deallocate@?$allocator@E@std@@QAEXPAEI@Z
_TEXT	SEGMENT PARA USE32 PUBLIC 'CODE'
_TEXT	ENDS
;	COMDAT ??$_Ucopy@Vconst_iterator@?$vector@EV?$allocator@E@std@@@std@@@?$vector@EV?$allocator@E@std@@@std@@IAEPAEVconst_iterator@01@0PAE@Z
_TEXT	SEGMENT PARA USE32 PUBLIC 'CODE'
_TEXT	ENDS
;	COMDAT ?allocate@?$allocator@E@std@@QAEPAEI@Z
_TEXT	SEGMENT PARA USE32 PUBLIC 'CODE'
_TEXT	ENDS
;	COMDAT ??$_Allocate@E@std@@YAPAEIPAE@Z
_TEXT	SEGMENT PARA USE32 PUBLIC 'CODE'
_TEXT	ENDS
;	COMDAT ?_Xlen@?$vector@EV?$allocator@E@std@@@std@@IBEXXZ
_TEXT	SEGMENT PARA USE32 PUBLIC 'CODE'
_TEXT	ENDS
;	COMDAT ?size@?$vector@EV?$allocator@E@std@@@std@@QBEIXZ
_TEXT	SEGMENT PARA USE32 PUBLIC 'CODE'
_TEXT	ENDS
;	COMDAT ?max_size@?$vector@EV?$allocator@E@std@@@std@@QBEIXZ
_TEXT	SEGMENT PARA USE32 PUBLIC 'CODE'
_TEXT	ENDS
;	COMDAT ?max_size@?$allocator@E@std@@QBEIXZ
_TEXT	SEGMENT PARA USE32 PUBLIC 'CODE'
_TEXT	ENDS
;	COMDAT ?_Ptr_cat@std@@YA?AU_Scalar_ptr_iterator_tag@1@PAE0@Z
_TEXT	SEGMENT PARA USE32 PUBLIC 'CODE'
_TEXT	ENDS
;	COMDAT ??0const_iterator@?$vector@EV?$allocator@E@std@@@std@@QAE@PAE@Z
_TEXT	SEGMENT PARA USE32 PUBLIC 'CODE'
_TEXT	ENDS
;	COMDAT ?_Destroy@?$vector@EV?$allocator@E@std@@@std@@IAEXPAE0@Z
_TEXT	SEGMENT PARA USE32 PUBLIC 'CODE'
_TEXT	ENDS
;	COMDAT ??$_Destroy_range@EV?$allocator@E@std@@@std@@YAXPAE0AAV?$allocator@E@0@@Z
_TEXT	SEGMENT PARA USE32 PUBLIC 'CODE'
_TEXT	ENDS
;	COMDAT ??4?$basic_string@DU?$char_traits@D@std@@V?$allocator@D@2@@std@@QAEAAV01@ABV01@@Z
_TEXT	SEGMENT PARA USE32 PUBLIC 'CODE'
_TEXT	ENDS
;	COMDAT ?assign@?$basic_string@DU?$char_traits@D@std@@V?$allocator@D@2@@std@@QAEAAV12@ABV12@@Z
_TEXT	SEGMENT PARA USE32 PUBLIC 'CODE'
_TEXT	ENDS
;	COMDAT ?assign@?$basic_string@DU?$char_traits@D@std@@V?$allocator@D@2@@std@@QAEAAV12@ABV12@II@Z
_TEXT	SEGMENT PARA USE32 PUBLIC 'CODE'
_TEXT	ENDS
;	COMDAT ?erase@?$basic_string@DU?$char_traits@D@std@@V?$allocator@D@2@@std@@QAEAAV12@II@Z
_TEXT	SEGMENT PARA USE32 PUBLIC 'CODE'
_TEXT	ENDS
;	COMDAT ?move@?$char_traits@D@std@@SAPADPADPBDI@Z
_TEXT	SEGMENT PARA USE32 PUBLIC 'CODE'
_TEXT	ENDS
;	COMDAT ?_Grow@?$basic_string@DU?$char_traits@D@std@@V?$allocator@D@2@@std@@IAE_NI_N@Z
_TEXT	SEGMENT PARA USE32 PUBLIC 'CODE'
_TEXT	ENDS
;	COMDAT ?max_size@?$basic_string@DU?$char_traits@D@std@@V?$allocator@D@2@@std@@QBEIXZ
_TEXT	SEGMENT PARA USE32 PUBLIC 'CODE'
_TEXT	ENDS
;	COMDAT ?max_size@?$allocator@D@std@@QBEIXZ
_TEXT	SEGMENT PARA USE32 PUBLIC 'CODE'
_TEXT	ENDS
;	COMDAT ?_Copy@?$basic_string@DU?$char_traits@D@std@@V?$allocator@D@2@@std@@IAEXII@Z
_TEXT	SEGMENT PARA USE32 PUBLIC 'CODE'
_TEXT	ENDS
;	COMDAT ?allocate@?$allocator@D@std@@QAEPADI@Z
_TEXT	SEGMENT PARA USE32 PUBLIC 'CODE'
_TEXT	ENDS
;	COMDAT ??$_Allocate@D@std@@YAPADIPAD@Z
_TEXT	SEGMENT PARA USE32 PUBLIC 'CODE'
_TEXT	ENDS
;	COMDAT ?_Tidy@?$basic_string@DU?$char_traits@D@std@@V?$allocator@D@2@@std@@IAEX_NI@Z
_TEXT	SEGMENT PARA USE32 PUBLIC 'CODE'
_TEXT	ENDS
;	COMDAT ?deallocate@?$allocator@D@std@@QAEXPADI@Z
_TEXT	SEGMENT PARA USE32 PUBLIC 'CODE'
_TEXT	ENDS
;	COMDAT ?copy@?$char_traits@D@std@@SAPADPADPBDI@Z
_TEXT	SEGMENT PARA USE32 PUBLIC 'CODE'
_TEXT	ENDS
;	COMDAT ?_Myptr@?$basic_string@DU?$char_traits@D@std@@V?$allocator@D@2@@std@@QAEPADXZ
_TEXT	SEGMENT PARA USE32 PUBLIC 'CODE'
_TEXT	ENDS
;	COMDAT ?_Eos@?$basic_string@DU?$char_traits@D@std@@V?$allocator@D@2@@std@@IAEXI@Z
_TEXT	SEGMENT PARA USE32 PUBLIC 'CODE'
_TEXT	ENDS
;	COMDAT ?assign@?$char_traits@D@std@@SAXAADABD@Z
_TEXT	SEGMENT PARA USE32 PUBLIC 'CODE'
_TEXT	ENDS
;	COMDAT ?npos@?$basic_string@DU?$char_traits@D@std@@V?$allocator@D@2@@std@@2IB
CONST	SEGMENT DWORD USE32 PUBLIC 'CONST'
CONST	ENDS
;	COMDAT ?_Ptr_cat@std@@YA?AU_Scalar_ptr_iterator_tag@1@PAJ0@Z
_TEXT	SEGMENT PARA USE32 PUBLIC 'CODE'
_TEXT	ENDS
;	COMDAT ??9const_iterator@?$_Tree@V?$_Tmap_traits@KEU?$less@K@std@@V?$allocator@U?$pair@$$CBKE@std@@@2@$0A@@std@@@std@@QBE_NABV012@@Z
_TEXT	SEGMENT PARA USE32 PUBLIC 'CODE'
_TEXT	ENDS
;	COMDAT ??8const_iterator@?$_Tree@V?$_Tmap_traits@KEU?$less@K@std@@V?$allocator@U?$pair@$$CBKE@std@@@2@$0A@@std@@@std@@QBE_NABV012@@Z
_TEXT	SEGMENT PARA USE32 PUBLIC 'CODE'
_TEXT	ENDS
;	COMDAT ??Eiterator@?$_Tree@V?$_Tmap_traits@KEU?$less@K@std@@V?$allocator@U?$pair@$$CBKE@std@@@2@$0A@@std@@@std@@QAEAAV012@XZ
_TEXT	SEGMENT PARA USE32 PUBLIC 'CODE'
_TEXT	ENDS
;	COMDAT ??Econst_iterator@?$_Tree@V?$_Tmap_traits@KEU?$less@K@std@@V?$allocator@U?$pair@$$CBKE@std@@@2@$0A@@std@@@std@@QAEAAV012@XZ
_TEXT	SEGMENT PARA USE32 PUBLIC 'CODE'
_TEXT	ENDS
;	COMDAT ?_Inc@const_iterator@?$_Tree@V?$_Tmap_traits@KEU?$less@K@std@@V?$allocator@U?$pair@$$CBKE@std@@@2@$0A@@std@@@std@@QAEXXZ
_TEXT	SEGMENT PARA USE32 PUBLIC 'CODE'
_TEXT	ENDS
;	COMDAT ?_Min@?$_Tree@V?$_Tmap_traits@KEU?$less@K@std@@V?$allocator@U?$pair@$$CBKE@std@@@2@$0A@@std@@@std@@KAPAU_Node@?$_Tree_nod@V?$_Tmap_traits@KEU?$less@K@std@@V?$allocator@U?$pair@$$CBKE@std@@@2@$0A@@std@@@2@PAU342@@Z
_TEXT	SEGMENT PARA USE32 PUBLIC 'CODE'
_TEXT	ENDS
;	COMDAT ?_Left@?$_Tree@V?$_Tmap_traits@KEU?$less@K@std@@V?$allocator@U?$pair@$$CBKE@std@@@2@$0A@@std@@@std@@KAAAPAU_Node@?$_Tree_nod@V?$_Tmap_traits@KEU?$less@K@std@@V?$allocator@U?$pair@$$CBKE@std@@@2@$0A@@std@@@2@PAU342@@Z
_TEXT	SEGMENT PARA USE32 PUBLIC 'CODE'
_TEXT	ENDS
;	COMDAT ?_Isnil@?$_Tree@V?$_Tmap_traits@KEU?$less@K@std@@V?$allocator@U?$pair@$$CBKE@std@@@2@$0A@@std@@@std@@KAAADPAU_Node@?$_Tree_nod@V?$_Tmap_traits@KEU?$less@K@std@@V?$allocator@U?$pair@$$CBKE@std@@@2@$0A@@std@@@2@@Z
_TEXT	SEGMENT PARA USE32 PUBLIC 'CODE'
_TEXT	ENDS
;	COMDAT ?_Parent@?$_Tree@V?$_Tmap_traits@KEU?$less@K@std@@V?$allocator@U?$pair@$$CBKE@std@@@2@$0A@@std@@@std@@KAAAPAU_Node@?$_Tree_nod@V?$_Tmap_traits@KEU?$less@K@std@@V?$allocator@U?$pair@$$CBKE@std@@@2@$0A@@std@@@2@PAU342@@Z
_TEXT	SEGMENT PARA USE32 PUBLIC 'CODE'
_TEXT	ENDS
;	COMDAT ?_Right@?$_Tree@V?$_Tmap_traits@KEU?$less@K@std@@V?$allocator@U?$pair@$$CBKE@std@@@2@$0A@@std@@@std@@KAAAPAU_Node@?$_Tree_nod@V?$_Tmap_traits@KEU?$less@K@std@@V?$allocator@U?$pair@$$CBKE@std@@@2@$0A@@std@@@2@PAU342@@Z
_TEXT	SEGMENT PARA USE32 PUBLIC 'CODE'
_TEXT	ENDS
;	COMDAT ??9const_iterator@?$_Tree@V?$_Tmap_traits@KPAVCCtrl@@U?$less@K@std@@V?$allocator@U?$pair@$$CBKPAVCCtrl@@@std@@@3@$0A@@std@@@std@@QBE_NABV012@@Z
_TEXT	SEGMENT PARA USE32 PUBLIC 'CODE'
_TEXT	ENDS
;	COMDAT ??9const_iterator@?$_Tree@V?$_Tmap_traits@KPAVCUser@@U?$less@K@std@@V?$allocator@U?$pair@$$CBKPAVCUser@@@std@@@3@$0A@@std@@@std@@QBE_NABV012@@Z
_TEXT	SEGMENT PARA USE32 PUBLIC 'CODE'
_TEXT	ENDS
;	COMDAT ??8const_iterator@?$_Tree@V?$_Tmap_traits@KPAVCUser@@U?$less@K@std@@V?$allocator@U?$pair@$$CBKPAVCUser@@@std@@@3@$0A@@std@@@std@@QBE_NABV012@@Z
_TEXT	SEGMENT PARA USE32 PUBLIC 'CODE'
_TEXT	ENDS
;	COMDAT ??Eiterator@?$_Tree@V?$_Tmap_traits@KPAVCUser@@U?$less@K@std@@V?$allocator@U?$pair@$$CBKPAVCUser@@@std@@@3@$0A@@std@@@std@@QAEAAV012@XZ
_TEXT	SEGMENT PARA USE32 PUBLIC 'CODE'
_TEXT	ENDS
;	COMDAT ??Econst_iterator@?$_Tree@V?$_Tmap_traits@KPAVCUser@@U?$less@K@std@@V?$allocator@U?$pair@$$CBKPAVCUser@@@std@@@3@$0A@@std@@@std@@QAEAAV012@XZ
_TEXT	SEGMENT PARA USE32 PUBLIC 'CODE'
_TEXT	ENDS
;	COMDAT ?_Inc@const_iterator@?$_Tree@V?$_Tmap_traits@KPAVCUser@@U?$less@K@std@@V?$allocator@U?$pair@$$CBKPAVCUser@@@std@@@3@$0A@@std@@@std@@QAEXXZ
_TEXT	SEGMENT PARA USE32 PUBLIC 'CODE'
_TEXT	ENDS
;	COMDAT ?_Min@?$_Tree@V?$_Tmap_traits@KPAVCUser@@U?$less@K@std@@V?$allocator@U?$pair@$$CBKPAVCUser@@@std@@@3@$0A@@std@@@std@@KAPAU_Node@?$_Tree_nod@V?$_Tmap_traits@KPAVCUser@@U?$less@K@std@@V?$allocator@U?$pair@$$CBKPAVCUser@@@std@@@3@$0A@@std@@@2@PAU342@@Z
_TEXT	SEGMENT PARA USE32 PUBLIC 'CODE'
_TEXT	ENDS
;	COMDAT ?_Left@?$_Tree@V?$_Tmap_traits@KPAVCUser@@U?$less@K@std@@V?$allocator@U?$pair@$$CBKPAVCUser@@@std@@@3@$0A@@std@@@std@@KAAAPAU_Node@?$_Tree_nod@V?$_Tmap_traits@KPAVCUser@@U?$less@K@std@@V?$allocator@U?$pair@$$CBKPAVCUser@@@std@@@3@$0A@@std@@@2@PAU342@@Z
_TEXT	SEGMENT PARA USE32 PUBLIC 'CODE'
_TEXT	ENDS
;	COMDAT ?_Isnil@?$_Tree@V?$_Tmap_traits@KPAVCUser@@U?$less@K@std@@V?$allocator@U?$pair@$$CBKPAVCUser@@@std@@@3@$0A@@std@@@std@@KAAADPAU_Node@?$_Tree_nod@V?$_Tmap_traits@KPAVCUser@@U?$less@K@std@@V?$allocator@U?$pair@$$CBKPAVCUser@@@std@@@3@$0A@@std@@@2@@Z
_TEXT	SEGMENT PARA USE32 PUBLIC 'CODE'
_TEXT	ENDS
;	COMDAT ?_Parent@?$_Tree@V?$_Tmap_traits@KPAVCUser@@U?$less@K@std@@V?$allocator@U?$pair@$$CBKPAVCUser@@@std@@@3@$0A@@std@@@std@@KAAAPAU_Node@?$_Tree_nod@V?$_Tmap_traits@KPAVCUser@@U?$less@K@std@@V?$allocator@U?$pair@$$CBKPAVCUser@@@std@@@3@$0A@@std@@@2@PAU342@@Z
_TEXT	SEGMENT PARA USE32 PUBLIC 'CODE'
_TEXT	ENDS
;	COMDAT ?_Right@?$_Tree@V?$_Tmap_traits@KPAVCUser@@U?$less@K@std@@V?$allocator@U?$pair@$$CBKPAVCUser@@@std@@@3@$0A@@std@@@std@@KAAAPAU_Node@?$_Tree_nod@V?$_Tmap_traits@KPAVCUser@@U?$less@K@std@@V?$allocator@U?$pair@$$CBKPAVCUser@@@std@@@3@$0A@@std@@@2@PAU342@@Z
_TEXT	SEGMENT PARA USE32 PUBLIC 'CODE'
_TEXT	ENDS
;	COMDAT ?GetOffset@CAr@@QAEKXZ
_TEXT	SEGMENT PARA USE32 PUBLIC 'CODE'
_TEXT	ENDS
;	COMDAT ?GetPropA@CItemElem@@QAEPAUItemProp@@XZ
_TEXT	SEGMENT PARA USE32 PUBLIC 'CODE'
_TEXT	ENDS
;	COMDAT ?GetItemProp@CProject@@QAEPAUItemProp@@H@Z
_TEXT	SEGMENT PARA USE32 PUBLIC 'CODE'
_TEXT	ENDS
;	COMDAT ?LOG_RANGE@@YAXPBDHHH@Z
_TEXT	SEGMENT PARA USE32 PUBLIC 'CODE'
_TEXT	ENDS
;	COMDAT ??_C@_0BM@HMFGHCP@?$CFs?5min?3?$CFd?0?5max?3?$CFd?0?5index?3?$CFd?$AA@
CONST	SEGMENT DWORD USE32 PUBLIC 'CONST'
CONST	ENDS
;	COMDAT ?GetSize@?$CFixedArray@UItemProp@@@@QAEHXZ
_TEXT	SEGMENT PARA USE32 PUBLIC 'CODE'
_TEXT	ENDS
;	COMDAT ??_C@_0BI@BEIFNGEL@GetItemProp?5range_error?$AA@
CONST	SEGMENT DWORD USE32 PUBLIC 'CONST'
CONST	ENDS
;	COMDAT ?LOG_CALLSTACK@@YAXXZ
_TEXT	SEGMENT PARA USE32 PUBLIC 'CODE'
_TEXT	ENDS
;	COMDAT ?GetAt@?$CFixedArray@UItemProp@@@@QAEPAUItemProp@@K@Z
_TEXT	SEGMENT PARA USE32 PUBLIC 'CODE'
_TEXT	ENDS
;	COMDAT ??_7?$CItemContainer@VCItemElem@@@@6B@
CONST	SEGMENT DWORD USE32 PUBLIC 'CONST'
CONST	ENDS
;	COMDAT ??_G?$CItemContainer@VCItemElem@@@@UAEPAXI@Z
_TEXT	SEGMENT PARA USE32 PUBLIC 'CODE'
_TEXT	ENDS
;	COMDAT ?_Psave@?$_Facetptr@V?$ctype@G@std@@@std@@2PBVfacet@locale@2@B
_DATA	SEGMENT DWORD USE32 PUBLIC 'DATA'
_DATA	ENDS
;	COMDAT ?_Psave@?$_Facetptr@V?$ctype@D@std@@@std@@2PBVfacet@locale@2@B
_DATA	SEGMENT DWORD USE32 PUBLIC 'DATA'
_DATA	ENDS
;	COMDAT ??3@YAXPAX0@Z
_TEXT	SEGMENT PARA USE32 PUBLIC 'CODE'
_TEXT	ENDS
;	COMDAT ??2@YAPAXIPAX@Z
_TEXT	SEGMENT PARA USE32 PUBLIC 'CODE'
_TEXT	ENDS
;	COMDAT ??0?$basic_string@DU?$char_traits@D@std@@V?$allocator@D@2@@std@@QAE@ABV01@@Z
_TEXT	SEGMENT PARA USE32 PUBLIC 'CODE'
_TEXT	ENDS
;	COMDAT ??0?$_String_val@DV?$allocator@D@std@@@std@@IAE@V?$allocator@D@1@@Z
_TEXT	SEGMENT PARA USE32 PUBLIC 'CODE'
_TEXT	ENDS
;	COMDAT ??0?$allocator@D@std@@QAE@ABV01@@Z
_TEXT	SEGMENT PARA USE32 PUBLIC 'CODE'
_TEXT	ENDS
;	COMDAT ??_C@_0BD@OLBABOEK@vector?$DMT?$DO?5too?5long?$AA@
CONST	SEGMENT DWORD USE32 PUBLIC 'CONST'
CONST	ENDS
;	COMDAT ??$swap@D@std@@YAXAAD0@Z
_TEXT	SEGMENT PARA USE32 PUBLIC 'CODE'
_TEXT	ENDS
;	COMDAT __TI3?AVout_of_range@std@@
xdata$x	SEGMENT DWORD USE32 PUBLIC 'CONST'
xdata$x	ENDS
;	COMDAT ??1out_of_range@std@@UAE@XZ
_TEXT	SEGMENT PARA USE32 PUBLIC 'CODE'
_TEXT	ENDS
;	COMDAT ??_7out_of_range@std@@6B@
CONST	SEGMENT DWORD USE32 PUBLIC 'CONST'
CONST	ENDS
;	COMDAT ??_Gout_of_range@std@@UAEPAXI@Z
_TEXT	SEGMENT PARA USE32 PUBLIC 'CODE'
_TEXT	ENDS
;	COMDAT ?what@logic_error@std@@UBEPBDXZ
_TEXT	SEGMENT PARA USE32 PUBLIC 'CODE'
_TEXT	ENDS
;	COMDAT ??1logic_error@std@@UAE@XZ
_TEXT	SEGMENT PARA USE32 PUBLIC 'CODE'
_TEXT	ENDS
;	COMDAT ??_7logic_error@std@@6B@
CONST	SEGMENT DWORD USE32 PUBLIC 'CONST'
CONST	ENDS
;	COMDAT ??_Glogic_error@std@@UAEPAXI@Z
_TEXT	SEGMENT PARA USE32 PUBLIC 'CODE'
_TEXT	ENDS
;	COMDAT __CTA3?AVout_of_range@std@@
xdata$x	SEGMENT DWORD USE32 PUBLIC 'CONST'
xdata$x	ENDS
;	COMDAT __CT??_R0?AVout_of_range@std@@@8??0out_of_range@std@@QAE@ABV01@@Z40
xdata$x	SEGMENT DWORD USE32 PUBLIC 'CONST'
xdata$x	ENDS
;	COMDAT ??_R0?AVout_of_range@std@@@8
_DATA	SEGMENT DWORD USE32 PUBLIC 'DATA'
_DATA	ENDS
;	COMDAT ??0out_of_range@std@@QAE@ABV01@@Z
_TEXT	SEGMENT PARA USE32 PUBLIC 'CODE'
_TEXT	ENDS
;	COMDAT ??0logic_error@std@@QAE@ABV01@@Z
_TEXT	SEGMENT PARA USE32 PUBLIC 'CODE'
_TEXT	ENDS
;	COMDAT __CT??_R0?AVlogic_error@std@@@8??0logic_error@std@@QAE@ABV01@@Z40
xdata$x	SEGMENT DWORD USE32 PUBLIC 'CONST'
xdata$x	ENDS
;	COMDAT ??_R0?AVlogic_error@std@@@8
_DATA	SEGMENT DWORD USE32 PUBLIC 'DATA'
_DATA	ENDS
;	COMDAT __CT??_R0?AVexception@@@8??0exception@@QAE@ABV0@@Z12
xdata$x	SEGMENT DWORD USE32 PUBLIC 'CONST'
xdata$x	ENDS
;	COMDAT ??_R0?AVexception@@@8
_DATA	SEGMENT DWORD USE32 PUBLIC 'DATA'
_DATA	ENDS
;	COMDAT ??_C@_0BM@PAPJHAGI@invalid?5map?1set?$DMT?$DO?5iterator?$AA@
CONST	SEGMENT DWORD USE32 PUBLIC 'CONST'
CONST	ENDS
;	COMDAT ??0out_of_range@std@@QAE@ABV?$basic_string@DU?$char_traits@D@std@@V?$allocator@D@2@@1@@Z
_TEXT	SEGMENT PARA USE32 PUBLIC 'CODE'
_TEXT	ENDS
;	COMDAT ??0logic_error@std@@QAE@ABV?$basic_string@DU?$char_traits@D@std@@V?$allocator@D@2@@1@@Z
_TEXT	SEGMENT PARA USE32 PUBLIC 'CODE'
_TEXT	ENDS
;	COMDAT __TI3?AVlength_error@std@@
xdata$x	SEGMENT DWORD USE32 PUBLIC 'CONST'
xdata$x	ENDS
;	COMDAT ??1length_error@std@@UAE@XZ
_TEXT	SEGMENT PARA USE32 PUBLIC 'CODE'
_TEXT	ENDS
;	COMDAT ??_7length_error@std@@6B@
CONST	SEGMENT DWORD USE32 PUBLIC 'CONST'
CONST	ENDS
;	COMDAT ??_Glength_error@std@@UAEPAXI@Z
_TEXT	SEGMENT PARA USE32 PUBLIC 'CODE'
_TEXT	ENDS
;	COMDAT __CTA3?AVlength_error@std@@
xdata$x	SEGMENT DWORD USE32 PUBLIC 'CONST'
xdata$x	ENDS
;	COMDAT __CT??_R0?AVlength_error@std@@@8??0length_error@std@@QAE@ABV01@@Z40
xdata$x	SEGMENT DWORD USE32 PUBLIC 'CONST'
xdata$x	ENDS
;	COMDAT ??_R0?AVlength_error@std@@@8
_DATA	SEGMENT DWORD USE32 PUBLIC 'DATA'
_DATA	ENDS
;	COMDAT ??0length_error@std@@QAE@ABV01@@Z
_TEXT	SEGMENT PARA USE32 PUBLIC 'CODE'
_TEXT	ENDS
;	COMDAT ??_C@_0BE@JONHPENG@map?1set?$DMT?$DO?5too?5long?$AA@
CONST	SEGMENT DWORD USE32 PUBLIC 'CONST'
CONST	ENDS
;	COMDAT ??0length_error@std@@QAE@ABV?$basic_string@DU?$char_traits@D@std@@V?$allocator@D@2@@1@@Z
_TEXT	SEGMENT PARA USE32 PUBLIC 'CODE'
_TEXT	ENDS
;	COMDAT ?insert@?$_Tree@V?$_Tmap_traits@KPAVCCtrl@@U?$less@K@std@@V?$allocator@U?$pair@$$CBKPAVCCtrl@@@std@@@3@$0A@@std@@@std@@QAE?AU?$pair@Viterator@?$_Tree@V?$_Tmap_traits@KPAVCCtrl@@U?$less@K@std@@V?$allocator@U?$pair@$$CBKPAVCCtrl@@@std@@@3@$0A@@std@@@std@@_N@2@ABU?$pair@$$CBKPAVCCtrl@@@2@@Z
_TEXT	SEGMENT PARA USE32 PUBLIC 'CODE'
_TEXT	ENDS
;	COMDAT ?_Root@?$_Tree@V?$_Tmap_traits@KPAVCCtrl@@U?$less@K@std@@V?$allocator@U?$pair@$$CBKPAVCCtrl@@@std@@@3@$0A@@std@@@std@@IAEAAPAU_Node@?$_Tree_nod@V?$_Tmap_traits@KPAVCCtrl@@U?$less@K@std@@V?$allocator@U?$pair@$$CBKPAVCCtrl@@@std@@@3@$0A@@std@@@2@XZ
_TEXT	SEGMENT PARA USE32 PUBLIC 'CODE'
_TEXT	ENDS
;	COMDAT ?_Parent@?$_Tree@V?$_Tmap_traits@KPAVCCtrl@@U?$less@K@std@@V?$allocator@U?$pair@$$CBKPAVCCtrl@@@std@@@3@$0A@@std@@@std@@KAAAPAU_Node@?$_Tree_nod@V?$_Tmap_traits@KPAVCCtrl@@U?$less@K@std@@V?$allocator@U?$pair@$$CBKPAVCCtrl@@@std@@@3@$0A@@std@@@2@PAU342@@Z
_TEXT	SEGMENT PARA USE32 PUBLIC 'CODE'
_TEXT	ENDS
;	COMDAT ?_Left@?$_Tree@V?$_Tmap_traits@KPAVCCtrl@@U?$less@K@std@@V?$allocator@U?$pair@$$CBKPAVCCtrl@@@std@@@3@$0A@@std@@@std@@KAAAPAU_Node@?$_Tree_nod@V?$_Tmap_traits@KPAVCCtrl@@U?$less@K@std@@V?$allocator@U?$pair@$$CBKPAVCCtrl@@@std@@@3@$0A@@std@@@2@PAU342@@Z
_TEXT	SEGMENT PARA USE32 PUBLIC 'CODE'
_TEXT	ENDS
;	COMDAT ??0iterator@?$_Tree@V?$_Tmap_traits@KPAVCCtrl@@U?$less@K@std@@V?$allocator@U?$pair@$$CBKPAVCCtrl@@@std@@@3@$0A@@std@@@std@@QAE@PAU_Node@?$_Tree_nod@V?$_Tmap_traits@KPAVCCtrl@@U?$less@K@std@@V?$allocator@U?$pair@$$CBKPAVCCtrl@@@std@@@3@$0A@@std@@@2@@Z
_TEXT	SEGMENT PARA USE32 PUBLIC 'CODE'
_TEXT	ENDS
;	COMDAT ??0const_iterator@?$_Tree@V?$_Tmap_traits@KPAVCCtrl@@U?$less@K@std@@V?$allocator@U?$pair@$$CBKPAVCCtrl@@@std@@@3@$0A@@std@@@std@@QAE@PAU_Node@?$_Tree_nod@V?$_Tmap_traits@KPAVCCtrl@@U?$less@K@std@@V?$allocator@U?$pair@$$CBKPAVCCtrl@@@std@@@3@$0A@@std@@@2@@Z
_TEXT	SEGMENT PARA USE32 PUBLIC 'CODE'
_TEXT	ENDS
;	COMDAT ??0?$pair@Viterator@?$_Tree@V?$_Tmap_traits@KPAVCCtrl@@U?$less@K@std@@V?$allocator@U?$pair@$$CBKPAVCCtrl@@@std@@@3@$0A@@std@@@std@@_N@std@@QAE@ABViterator@?$_Tree@V?$_Tmap_traits@KPAVCCtrl@@U?$less@K@std@@V?$allocator@U?$pair@$$CBKPAVCCtrl@@@std@@@3@$0A@@std@@@1@AB_N@Z
_TEXT	SEGMENT PARA USE32 PUBLIC 'CODE'
_TEXT	ENDS
;	COMDAT ??Eiterator@?$_Tree@V?$_Tmap_traits@KPAVCCtrl@@U?$less@K@std@@V?$allocator@U?$pair@$$CBKPAVCCtrl@@@std@@@3@$0A@@std@@@std@@QAEAAV012@XZ
_TEXT	SEGMENT PARA USE32 PUBLIC 'CODE'
_TEXT	ENDS
;	COMDAT ??Econst_iterator@?$_Tree@V?$_Tmap_traits@KPAVCCtrl@@U?$less@K@std@@V?$allocator@U?$pair@$$CBKPAVCCtrl@@@std@@@3@$0A@@std@@@std@@QAEAAV012@XZ
_TEXT	SEGMENT PARA USE32 PUBLIC 'CODE'
_TEXT	ENDS
;	COMDAT ?_Inc@const_iterator@?$_Tree@V?$_Tmap_traits@KPAVCCtrl@@U?$less@K@std@@V?$allocator@U?$pair@$$CBKPAVCCtrl@@@std@@@3@$0A@@std@@@std@@QAEXXZ
_TEXT	SEGMENT PARA USE32 PUBLIC 'CODE'
_TEXT	ENDS
;	COMDAT ?_Min@?$_Tree@V?$_Tmap_traits@KPAVCCtrl@@U?$less@K@std@@V?$allocator@U?$pair@$$CBKPAVCCtrl@@@std@@@3@$0A@@std@@@std@@KAPAU_Node@?$_Tree_nod@V?$_Tmap_traits@KPAVCCtrl@@U?$less@K@std@@V?$allocator@U?$pair@$$CBKPAVCCtrl@@@std@@@3@$0A@@std@@@2@PAU342@@Z
_TEXT	SEGMENT PARA USE32 PUBLIC 'CODE'
_TEXT	ENDS
;	COMDAT ?_Right@?$_Tree@V?$_Tmap_traits@KPAVCCtrl@@U?$less@K@std@@V?$allocator@U?$pair@$$CBKPAVCCtrl@@@std@@@3@$0A@@std@@@std@@KAAAPAU_Node@?$_Tree_nod@V?$_Tmap_traits@KPAVCCtrl@@U?$less@K@std@@V?$allocator@U?$pair@$$CBKPAVCCtrl@@@std@@@3@$0A@@std@@@2@PAU342@@Z
_TEXT	SEGMENT PARA USE32 PUBLIC 'CODE'
_TEXT	ENDS
;	COMDAT ?_Isnil@?$_Tree@V?$_Tmap_traits@KPAVCCtrl@@U?$less@K@std@@V?$allocator@U?$pair@$$CBKPAVCCtrl@@@std@@@3@$0A@@std@@@std@@KAAADPAU_Node@?$_Tree_nod@V?$_Tmap_traits@KPAVCCtrl@@U?$less@K@std@@V?$allocator@U?$pair@$$CBKPAVCCtrl@@@std@@@3@$0A@@std@@@2@@Z
_TEXT	SEGMENT PARA USE32 PUBLIC 'CODE'
_TEXT	ENDS
;	COMDAT ??Fiterator@?$_Tree@V?$_Tmap_traits@KPAVCCtrl@@U?$less@K@std@@V?$allocator@U?$pair@$$CBKPAVCCtrl@@@std@@@3@$0A@@std@@@std@@QAEAAV012@XZ
_TEXT	SEGMENT PARA USE32 PUBLIC 'CODE'
_TEXT	ENDS
;	COMDAT ??Fconst_iterator@?$_Tree@V?$_Tmap_traits@KPAVCCtrl@@U?$less@K@std@@V?$allocator@U?$pair@$$CBKPAVCCtrl@@@std@@@3@$0A@@std@@@std@@QAEAAV012@XZ
_TEXT	SEGMENT PARA USE32 PUBLIC 'CODE'
_TEXT	ENDS
;	COMDAT ?_Dec@const_iterator@?$_Tree@V?$_Tmap_traits@KPAVCCtrl@@U?$less@K@std@@V?$allocator@U?$pair@$$CBKPAVCCtrl@@@std@@@3@$0A@@std@@@std@@QAEXXZ
_TEXT	SEGMENT PARA USE32 PUBLIC 'CODE'
_TEXT	ENDS
;	COMDAT ?_Max@?$_Tree@V?$_Tmap_traits@KPAVCCtrl@@U?$less@K@std@@V?$allocator@U?$pair@$$CBKPAVCCtrl@@@std@@@3@$0A@@std@@@std@@KAPAU_Node@?$_Tree_nod@V?$_Tmap_traits@KPAVCCtrl@@U?$less@K@std@@V?$allocator@U?$pair@$$CBKPAVCCtrl@@@std@@@3@$0A@@std@@@2@PAU342@@Z
_TEXT	SEGMENT PARA USE32 PUBLIC 'CODE'
_TEXT	ENDS
;	COMDAT ?_Rmost@?$_Tree@V?$_Tmap_traits@KPAVCCtrl@@U?$less@K@std@@V?$allocator@U?$pair@$$CBKPAVCCtrl@@@std@@@3@$0A@@std@@@std@@IAEAAPAU_Node@?$_Tree_nod@V?$_Tmap_traits@KPAVCCtrl@@U?$less@K@std@@V?$allocator@U?$pair@$$CBKPAVCCtrl@@@std@@@3@$0A@@std@@@2@XZ
_TEXT	SEGMENT PARA USE32 PUBLIC 'CODE'
_TEXT	ENDS
;	COMDAT ?_Kfn@?$_Tmap_traits@KPAVCCtrl@@U?$less@K@std@@V?$allocator@U?$pair@$$CBKPAVCCtrl@@@std@@@3@$0A@@std@@SAABKABU?$pair@$$CBKPAVCCtrl@@@2@@Z
_TEXT	SEGMENT PARA USE32 PUBLIC 'CODE'
_TEXT	ENDS
;	COMDAT ?begin@?$_Tree@V?$_Tmap_traits@KPAVCCtrl@@U?$less@K@std@@V?$allocator@U?$pair@$$CBKPAVCCtrl@@@std@@@3@$0A@@std@@@std@@QAE?AViterator@12@XZ
_TEXT	SEGMENT PARA USE32 PUBLIC 'CODE'
_TEXT	ENDS
;	COMDAT ?_Lmost@?$_Tree@V?$_Tmap_traits@KPAVCCtrl@@U?$less@K@std@@V?$allocator@U?$pair@$$CBKPAVCCtrl@@@std@@@3@$0A@@std@@@std@@IAEAAPAU_Node@?$_Tree_nod@V?$_Tmap_traits@KPAVCCtrl@@U?$less@K@std@@V?$allocator@U?$pair@$$CBKPAVCCtrl@@@std@@@3@$0A@@std@@@2@XZ
_TEXT	SEGMENT PARA USE32 PUBLIC 'CODE'
_TEXT	ENDS
;	COMDAT ?_Insert@?$_Tree@V?$_Tmap_traits@KPAVCCtrl@@U?$less@K@std@@V?$allocator@U?$pair@$$CBKPAVCCtrl@@@std@@@3@$0A@@std@@@std@@IAE?AViterator@12@_NPAU_Node@?$_Tree_nod@V?$_Tmap_traits@KPAVCCtrl@@U?$less@K@std@@V?$allocator@U?$pair@$$CBKPAVCCtrl@@@std@@@3@$0A@@std@@@2@ABU?$pair@$$CBKPAVCCtrl@@@2@@Z
_TEXT	SEGMENT PARA USE32 PUBLIC 'CODE'
_TEXT	ENDS
;	COMDAT ?max_size@?$_Tree@V?$_Tmap_traits@KPAVCCtrl@@U?$less@K@std@@V?$allocator@U?$pair@$$CBKPAVCCtrl@@@std@@@3@$0A@@std@@@std@@QBEIXZ
_TEXT	SEGMENT PARA USE32 PUBLIC 'CODE'
_TEXT	ENDS
;	COMDAT ?max_size@?$allocator@U?$pair@$$CBKPAVCCtrl@@@std@@@std@@QBEIXZ
_TEXT	SEGMENT PARA USE32 PUBLIC 'CODE'
_TEXT	ENDS
;	COMDAT ?_Buynode@?$_Tree@V?$_Tmap_traits@KPAVCCtrl@@U?$less@K@std@@V?$allocator@U?$pair@$$CBKPAVCCtrl@@@std@@@3@$0A@@std@@@std@@IAEPAU_Node@?$_Tree_nod@V?$_Tmap_traits@KPAVCCtrl@@U?$less@K@std@@V?$allocator@U?$pair@$$CBKPAVCCtrl@@@std@@@3@$0A@@std@@@2@PAU342@00ABU?$pair@$$CBKPAVCCtrl@@@2@D@Z
_TEXT	SEGMENT PARA USE32 PUBLIC 'CODE'
_TEXT	ENDS
;	COMDAT ?allocate@?$allocator@U_Node@?$_Tree_nod@V?$_Tmap_traits@KPAVCCtrl@@U?$less@K@std@@V?$allocator@U?$pair@$$CBKPAVCCtrl@@@std@@@3@$0A@@std@@@std@@@std@@QAEPAU_Node@?$_Tree_nod@V?$_Tmap_traits@KPAVCCtrl@@U?$less@K@std@@V?$allocator@U?$pair@$$CBKPAVCCtrl@@@std@@@3@$0A@@std@@@2@I@Z
_TEXT	SEGMENT PARA USE32 PUBLIC 'CODE'
_TEXT	ENDS
;	COMDAT ??$_Allocate@U_Node@?$_Tree_nod@V?$_Tmap_traits@KPAVCCtrl@@U?$less@K@std@@V?$allocator@U?$pair@$$CBKPAVCCtrl@@@std@@@3@$0A@@std@@@std@@@std@@YAPAU_Node@?$_Tree_nod@V?$_Tmap_traits@KPAVCCtrl@@U?$less@K@std@@V?$allocator@U?$pair@$$CBKPAVCCtrl@@@std@@@3@$0A@@std@@@0@IPAU120@@Z
_TEXT	SEGMENT PARA USE32 PUBLIC 'CODE'
_TEXT	ENDS
;	COMDAT ??0_Node@?$_Tree_nod@V?$_Tmap_traits@KPAVCCtrl@@U?$less@K@std@@V?$allocator@U?$pair@$$CBKPAVCCtrl@@@std@@@3@$0A@@std@@@std@@QAE@PAU012@00ABU?$pair@$$CBKPAVCCtrl@@@2@D@Z
_TEXT	SEGMENT PARA USE32 PUBLIC 'CODE'
_TEXT	ENDS
;	COMDAT ?deallocate@?$allocator@U_Node@?$_Tree_nod@V?$_Tmap_traits@KPAVCCtrl@@U?$less@K@std@@V?$allocator@U?$pair@$$CBKPAVCCtrl@@@std@@@3@$0A@@std@@@std@@@std@@QAEXPAU_Node@?$_Tree_nod@V?$_Tmap_traits@KPAVCCtrl@@U?$less@K@std@@V?$allocator@U?$pair@$$CBKPAVCCtrl@@@std@@@3@$0A@@std@@@2@I@Z
_TEXT	SEGMENT PARA USE32 PUBLIC 'CODE'
_TEXT	ENDS
;	COMDAT ?_Rrotate@?$_Tree@V?$_Tmap_traits@KPAVCCtrl@@U?$less@K@std@@V?$allocator@U?$pair@$$CBKPAVCCtrl@@@std@@@3@$0A@@std@@@std@@IAEXPAU_Node@?$_Tree_nod@V?$_Tmap_traits@KPAVCCtrl@@U?$less@K@std@@V?$allocator@U?$pair@$$CBKPAVCCtrl@@@std@@@3@$0A@@std@@@2@@Z
_TEXT	SEGMENT PARA USE32 PUBLIC 'CODE'
_TEXT	ENDS
;	COMDAT ?_Lrotate@?$_Tree@V?$_Tmap_traits@KPAVCCtrl@@U?$less@K@std@@V?$allocator@U?$pair@$$CBKPAVCCtrl@@@std@@@3@$0A@@std@@@std@@IAEXPAU_Node@?$_Tree_nod@V?$_Tmap_traits@KPAVCCtrl@@U?$less@K@std@@V?$allocator@U?$pair@$$CBKPAVCCtrl@@@std@@@3@$0A@@std@@@2@@Z
_TEXT	SEGMENT PARA USE32 PUBLIC 'CODE'
_TEXT	ENDS
;	COMDAT ?_Color@?$_Tree@V?$_Tmap_traits@KPAVCCtrl@@U?$less@K@std@@V?$allocator@U?$pair@$$CBKPAVCCtrl@@@std@@@3@$0A@@std@@@std@@KAAADPAU_Node@?$_Tree_nod@V?$_Tmap_traits@KPAVCCtrl@@U?$less@K@std@@V?$allocator@U?$pair@$$CBKPAVCCtrl@@@std@@@3@$0A@@std@@@2@@Z
_TEXT	SEGMENT PARA USE32 PUBLIC 'CODE'
_TEXT	ENDS
;	COMDAT ?compare@?$char_traits@D@std@@SAHPBD0I@Z
_TEXT	SEGMENT PARA USE32 PUBLIC 'CODE'
_TEXT	ENDS
;	COMDAT ?IsEmpty@CItemBase@@QAEHXZ
_TEXT	SEGMENT PARA USE32 PUBLIC 'CODE'
_TEXT	ENDS
;	COMDAT ??Diterator@?$_Tree@V?$_Tmap_traits@KPAVCCtrl@@U?$less@K@std@@V?$allocator@U?$pair@$$CBKPAVCCtrl@@@std@@@3@$0A@@std@@@std@@QBEAAU?$pair@$$CBKPAVCCtrl@@@2@XZ
_TEXT	SEGMENT PARA USE32 PUBLIC 'CODE'
_TEXT	ENDS
;	COMDAT ??Dconst_iterator@?$_Tree@V?$_Tmap_traits@KPAVCCtrl@@U?$less@K@std@@V?$allocator@U?$pair@$$CBKPAVCCtrl@@@std@@@3@$0A@@std@@@std@@QBEABU?$pair@$$CBKPAVCCtrl@@@2@XZ
_TEXT	SEGMENT PARA USE32 PUBLIC 'CODE'
_TEXT	ENDS
;	COMDAT ?_Myval@?$_Tree@V?$_Tmap_traits@KPAVCCtrl@@U?$less@K@std@@V?$allocator@U?$pair@$$CBKPAVCCtrl@@@std@@@3@$0A@@std@@@std@@KAAAU?$pair@$$CBKPAVCCtrl@@@2@PAU_Node@?$_Tree_nod@V?$_Tmap_traits@KPAVCCtrl@@U?$less@K@std@@V?$allocator@U?$pair@$$CBKPAVCCtrl@@@std@@@3@$0A@@std@@@2@@Z
_TEXT	SEGMENT PARA USE32 PUBLIC 'CODE'
_TEXT	ENDS
;	COMDAT ?_Mynode@const_iterator@?$_Tree@V?$_Tmap_traits@KPAVCCtrl@@U?$less@K@std@@V?$allocator@U?$pair@$$CBKPAVCCtrl@@@std@@@3@$0A@@std@@@std@@QBEPAU_Node@?$_Tree_nod@V?$_Tmap_traits@KPAVCCtrl@@U?$less@K@std@@V?$allocator@U?$pair@$$CBKPAVCCtrl@@@std@@@3@$0A@@std@@@3@XZ
_TEXT	SEGMENT PARA USE32 PUBLIC 'CODE'
_TEXT	ENDS
;	COMDAT ?_Key@?$_Tree@V?$_Tmap_traits@KPAVCCtrl@@U?$less@K@std@@V?$allocator@U?$pair@$$CBKPAVCCtrl@@@std@@@3@$0A@@std@@@std@@KAABKPAU_Node@?$_Tree_nod@V?$_Tmap_traits@KPAVCCtrl@@U?$less@K@std@@V?$allocator@U?$pair@$$CBKPAVCCtrl@@@std@@@3@$0A@@std@@@2@@Z
_TEXT	SEGMENT PARA USE32 PUBLIC 'CODE'
_TEXT	ENDS
;	COMDAT ??R?$less@K@std@@QBE_NABK0@Z
_TEXT	SEGMENT PARA USE32 PUBLIC 'CODE'
_TEXT	ENDS
;	COMDAT ?end@?$_Tree@V?$_Tmap_traits@KPAVCCtrl@@U?$less@K@std@@V?$allocator@U?$pair@$$CBKPAVCCtrl@@@std@@@3@$0A@@std@@@std@@QAE?AViterator@12@XZ
_TEXT	SEGMENT PARA USE32 PUBLIC 'CODE'
_TEXT	ENDS
;	COMDAT ??8const_iterator@?$_Tree@V?$_Tmap_traits@KPAVCCtrl@@U?$less@K@std@@V?$allocator@U?$pair@$$CBKPAVCCtrl@@@std@@@3@$0A@@std@@@std@@QBE_NABV012@@Z
_TEXT	SEGMENT PARA USE32 PUBLIC 'CODE'
_TEXT	ENDS
;	COMDAT ?lower_bound@?$_Tree@V?$_Tmap_traits@KPAVCCtrl@@U?$less@K@std@@V?$allocator@U?$pair@$$CBKPAVCCtrl@@@std@@@3@$0A@@std@@@std@@QAE?AViterator@12@ABK@Z
_TEXT	SEGMENT PARA USE32 PUBLIC 'CODE'
_TEXT	ENDS
;	COMDAT ?_Lbound@?$_Tree@V?$_Tmap_traits@KPAVCCtrl@@U?$less@K@std@@V?$allocator@U?$pair@$$CBKPAVCCtrl@@@std@@@3@$0A@@std@@@std@@IBEPAU_Node@?$_Tree_nod@V?$_Tmap_traits@KPAVCCtrl@@U?$less@K@std@@V?$allocator@U?$pair@$$CBKPAVCCtrl@@@std@@@3@$0A@@std@@@2@ABK@Z
_TEXT	SEGMENT PARA USE32 PUBLIC 'CODE'
_TEXT	ENDS
;	COMDAT ?_Root@?$_Tree@V?$_Tmap_traits@KPAVCCtrl@@U?$less@K@std@@V?$allocator@U?$pair@$$CBKPAVCCtrl@@@std@@@3@$0A@@std@@@std@@IBEAAPAU_Node@?$_Tree_nod@V?$_Tmap_traits@KPAVCCtrl@@U?$less@K@std@@V?$allocator@U?$pair@$$CBKPAVCCtrl@@@std@@@3@$0A@@std@@@2@XZ
_TEXT	SEGMENT PARA USE32 PUBLIC 'CODE'
_TEXT	ENDS
;	COMDAT ?_Myptr@?$basic_string@DU?$char_traits@D@std@@V?$allocator@D@2@@std@@QBEPBDXZ
_TEXT	SEGMENT PARA USE32 PUBLIC 'CODE'
_TEXT	ENDS
;	COMDAT ?size@?$basic_string@DU?$char_traits@D@std@@V?$allocator@D@2@@std@@QBEIXZ
_TEXT	SEGMENT PARA USE32 PUBLIC 'CODE'
_TEXT	ENDS
;	COMDAT ?IsNPC@CMover@@QAEHXZ
_TEXT	SEGMENT PARA USE32 PUBLIC 'CODE'
_TEXT	ENDS
;	COMDAT ??5CAr@@QAEAAV0@AAE@Z
_TEXT	SEGMENT PARA USE32 PUBLIC 'CODE'
_TEXT	ENDS
;	COMDAT ??6CAr@@QAEAAV0@E@Z
_TEXT	SEGMENT PARA USE32 PUBLIC 'CODE'
_TEXT	ENDS
;	COMDAT ??0_PocketController_Result@@QAE@HHH@Z
_TEXT	SEGMENT PARA USE32 PUBLIC 'CODE'
_TEXT	ENDS
;	COMDAT ?GetAtId@?$CItemContainer@VCItemElem@@@@QAEPAVCItemElem@@K@Z
_TEXT	SEGMENT PARA USE32 PUBLIC 'CODE'
_TEXT	ENDS
;	COMDAT ?IsAvailable@CPocketController@@QAEHHH@Z
_TEXT	SEGMENT PARA USE32 PUBLIC 'CODE'
_TEXT	ENDS
;	COMDAT ?SetExpired@CPocket@@QAEXH@Z
_TEXT	SEGMENT PARA USE32 PUBLIC 'CODE'
_TEXT	ENDS
;	COMDAT ?SetExpirationDate@CPocket@@QAEXJ@Z
_TEXT	SEGMENT PARA USE32 PUBLIC 'CODE'
_TEXT	ENDS
;	COMDAT ??_7CPocketController@@6B@
CONST	SEGMENT DWORD USE32 PUBLIC 'CONST'
CONST	ENDS
;	COMDAT ?GetExpirationDate@CPocket@@QAEJXZ
_TEXT	SEGMENT PARA USE32 PUBLIC 'CODE'
_TEXT	ENDS
;	COMDAT ?IsExpired@CPocket@@QAEHXZ
_TEXT	SEGMENT PARA USE32 PUBLIC 'CODE'
_TEXT	ENDS
;	COMDAT ??_7CPocket@@6B@
CONST	SEGMENT DWORD USE32 PUBLIC 'CONST'
CONST	ENDS
;	COMDAT ??1?$CItemContainer@VCItemElem@@@@UAE@XZ
_TEXT	SEGMENT PARA USE32 PUBLIC 'CODE'
_TEXT	ENDS
;	COMDAT ?erase@?$_Tree@V?$_Tmap_traits@KPAVCCtrl@@U?$less@K@std@@V?$allocator@U?$pair@$$CBKPAVCCtrl@@@std@@@3@$0A@@std@@@std@@QAEIABK@Z
_TEXT	SEGMENT PARA USE32 PUBLIC 'CODE'
_TEXT	ENDS
;	COMDAT ?equal_range@?$_Tree@V?$_Tmap_traits@KPAVCCtrl@@U?$less@K@std@@V?$allocator@U?$pair@$$CBKPAVCCtrl@@@std@@@3@$0A@@std@@@std@@QAE?AU?$pair@Viterator@?$_Tree@V?$_Tmap_traits@KPAVCCtrl@@U?$less@K@std@@V?$allocator@U?$pair@$$CBKPAVCCtrl@@@std@@@3@$0A@@std@@@std@@V123@@2@ABK@Z
_TEXT	SEGMENT PARA USE32 PUBLIC 'CODE'
_TEXT	ENDS
;	COMDAT ??0?$pair@Viterator@?$_Tree@V?$_Tmap_traits@KPAVCCtrl@@U?$less@K@std@@V?$allocator@U?$pair@$$CBKPAVCCtrl@@@std@@@3@$0A@@std@@@std@@V123@@std@@QAE@ABViterator@?$_Tree@V?$_Tmap_traits@KPAVCCtrl@@U?$less@K@std@@V?$allocator@U?$pair@$$CBKPAVCCtrl@@@std@@@3@$0A@@std@@@1@0@Z
_TEXT	SEGMENT PARA USE32 PUBLIC 'CODE'
_TEXT	ENDS
;	COMDAT ?upper_bound@?$_Tree@V?$_Tmap_traits@KPAVCCtrl@@U?$less@K@std@@V?$allocator@U?$pair@$$CBKPAVCCtrl@@@std@@@3@$0A@@std@@@std@@QAE?AViterator@12@ABK@Z
_TEXT	SEGMENT PARA USE32 PUBLIC 'CODE'
_TEXT	ENDS
;	COMDAT ?_Ubound@?$_Tree@V?$_Tmap_traits@KPAVCCtrl@@U?$less@K@std@@V?$allocator@U?$pair@$$CBKPAVCCtrl@@@std@@@3@$0A@@std@@@std@@IBEPAU_Node@?$_Tree_nod@V?$_Tmap_traits@KPAVCCtrl@@U?$less@K@std@@V?$allocator@U?$pair@$$CBKPAVCCtrl@@@std@@@3@$0A@@std@@@2@ABK@Z
_TEXT	SEGMENT PARA USE32 PUBLIC 'CODE'
_TEXT	ENDS
;	COMDAT ??$_Distance@Viterator@?$_Tree@V?$_Tmap_traits@KPAVCCtrl@@U?$less@K@std@@V?$allocator@U?$pair@$$CBKPAVCCtrl@@@std@@@3@$0A@@std@@@std@@I@std@@YAXViterator@?$_Tree@V?$_Tmap_traits@KPAVCCtrl@@U?$less@K@std@@V?$allocator@U?$pair@$$CBKPAVCCtrl@@@std@@@3@$0A@@std@@@0@0AAI@Z
_TEXT	SEGMENT PARA USE32 PUBLIC 'CODE'
_TEXT	ENDS
;	COMDAT ?erase@?$_Tree@V?$_Tmap_traits@KPAVCCtrl@@U?$less@K@std@@V?$allocator@U?$pair@$$CBKPAVCCtrl@@@std@@@3@$0A@@std@@@std@@QAE?AViterator@12@V312@0@Z
_TEXT	SEGMENT PARA USE32 PUBLIC 'CODE'
_TEXT	ENDS
;	COMDAT ?clear@?$_Tree@V?$_Tmap_traits@KPAVCCtrl@@U?$less@K@std@@V?$allocator@U?$pair@$$CBKPAVCCtrl@@@std@@@3@$0A@@std@@@std@@QAEXXZ
_TEXT	SEGMENT PARA USE32 PUBLIC 'CODE'
_TEXT	ENDS
;	COMDAT ?_Erase@?$_Tree@V?$_Tmap_traits@KPAVCCtrl@@U?$less@K@std@@V?$allocator@U?$pair@$$CBKPAVCCtrl@@@std@@@3@$0A@@std@@@std@@IAEXPAU_Node@?$_Tree_nod@V?$_Tmap_traits@KPAVCCtrl@@U?$less@K@std@@V?$allocator@U?$pair@$$CBKPAVCCtrl@@@std@@@3@$0A@@std@@@2@@Z
_TEXT	SEGMENT PARA USE32 PUBLIC 'CODE'
_TEXT	ENDS
;	COMDAT ?destroy@?$allocator@U_Node@?$_Tree_nod@V?$_Tmap_traits@KPAVCCtrl@@U?$less@K@std@@V?$allocator@U?$pair@$$CBKPAVCCtrl@@@std@@@3@$0A@@std@@@std@@@std@@QAEXPAU_Node@?$_Tree_nod@V?$_Tmap_traits@KPAVCCtrl@@U?$less@K@std@@V?$allocator@U?$pair@$$CBKPAVCCtrl@@@std@@@3@$0A@@std@@@2@@Z
_TEXT	SEGMENT PARA USE32 PUBLIC 'CODE'
_TEXT	ENDS
;	COMDAT ??$_Destroy@U_Node@?$_Tree_nod@V?$_Tmap_traits@KPAVCCtrl@@U?$less@K@std@@V?$allocator@U?$pair@$$CBKPAVCCtrl@@@std@@@3@$0A@@std@@@std@@@std@@YAXPAU_Node@?$_Tree_nod@V?$_Tmap_traits@KPAVCCtrl@@U?$less@K@std@@V?$allocator@U?$pair@$$CBKPAVCCtrl@@@std@@@3@$0A@@std@@@0@@Z
_TEXT	SEGMENT PARA USE32 PUBLIC 'CODE'
_TEXT	ENDS
;	COMDAT ?erase@?$_Tree@V?$_Tmap_traits@KPAVCCtrl@@U?$less@K@std@@V?$allocator@U?$pair@$$CBKPAVCCtrl@@@std@@@3@$0A@@std@@@std@@QAE?AViterator@12@V312@@Z
_TEXT	SEGMENT PARA USE32 PUBLIC 'CODE'
_TEXT	ENDS
;	COMDAT ??Eiterator@?$_Tree@V?$_Tmap_traits@KPAVCCtrl@@U?$less@K@std@@V?$allocator@U?$pair@$$CBKPAVCCtrl@@@std@@@3@$0A@@std@@@std@@QAE?AV012@H@Z
_TEXT	SEGMENT PARA USE32 PUBLIC 'CODE'
_TEXT	ENDS
;	COMDAT ??5@YAAAVCAr@@AAV0@AAUD3DXVECTOR3@@@Z
_TEXT	SEGMENT PARA USE32 PUBLIC 'CODE'
_TEXT	ENDS
;	COMDAT ??5CAr@@QAEAAV0@AAM@Z
_TEXT	SEGMENT PARA USE32 PUBLIC 'CODE'
_TEXT	ENDS
;	COMDAT ??5CAr@@QAEAAV0@AAJ@Z
_TEXT	SEGMENT PARA USE32 PUBLIC 'CODE'
_TEXT	ENDS
;	COMDAT ?time_null@@YAJXZ
_TEXT	SEGMENT PARA USE32 PUBLIC 'CODE'
_TEXT	ENDS
;	COMDAT ??6CAr@@QAEAAV0@J@Z
_TEXT	SEGMENT PARA USE32 PUBLIC 'CODE'
_TEXT	ENDS
;	COMDAT ??6@YAAAVCAr@@AAV0@UD3DXVECTOR3@@@Z
_TEXT	SEGMENT PARA USE32 PUBLIC 'CODE'
_TEXT	ENDS
;	COMDAT ??6CAr@@QAEAAV0@M@Z
_TEXT	SEGMENT PARA USE32 PUBLIC 'CODE'
_TEXT	ENDS
;	COMDAT ??1?$basic_string@DU?$char_traits@D@std@@V?$allocator@D@2@@std@@QAE@XZ
_TEXT	SEGMENT PARA USE32 PUBLIC 'CODE'
_TEXT	ENDS
;	COMDAT ??0?$basic_string@DU?$char_traits@D@std@@V?$allocator@D@2@@std@@QAE@PBD@Z
_TEXT	SEGMENT PARA USE32 PUBLIC 'CODE'
_TEXT	ENDS
;	COMDAT ??0?$allocator@D@std@@QAE@XZ
_TEXT	SEGMENT PARA USE32 PUBLIC 'CODE'
_TEXT	ENDS
;	COMDAT ?assign@?$basic_string@DU?$char_traits@D@std@@V?$allocator@D@2@@std@@QAEAAV12@PBD@Z
_TEXT	SEGMENT PARA USE32 PUBLIC 'CODE'
_TEXT	ENDS
;	COMDAT ?assign@?$basic_string@DU?$char_traits@D@std@@V?$allocator@D@2@@std@@QAEAAV12@PBDI@Z
_TEXT	SEGMENT PARA USE32 PUBLIC 'CODE'
_TEXT	ENDS
;	COMDAT ?_Inside@?$basic_string@DU?$char_traits@D@std@@V?$allocator@D@2@@std@@IAE_NPBD@Z
_TEXT	SEGMENT PARA USE32 PUBLIC 'CODE'
_TEXT	ENDS
;	COMDAT ?length@?$char_traits@D@std@@SAIPBD@Z
_TEXT	SEGMENT PARA USE32 PUBLIC 'CODE'
_TEXT	ENDS
;	COMDAT ?c_str@?$basic_string@DU?$char_traits@D@std@@V?$allocator@D@2@@std@@QBEPBDXZ
_TEXT	SEGMENT PARA USE32 PUBLIC 'CODE'
_TEXT	ENDS
;	COMDAT ??6CAr@@QAEAAV0@I@Z
_TEXT	SEGMENT PARA USE32 PUBLIC 'CODE'
_TEXT	ENDS
;	COMDAT ??_7__MINIGAME_EXT_PACKET@@6B@
CONST	SEGMENT DWORD USE32 PUBLIC 'CONST'
CONST	ENDS
;	COMDAT ??5CAr@@QAEAAV0@AAG@Z
_TEXT	SEGMENT PARA USE32 PUBLIC 'CODE'
_TEXT	ENDS
;	COMDAT ??5CAr@@QAEAAV0@AAH@Z
_TEXT	SEGMENT PARA USE32 PUBLIC 'CODE'
_TEXT	ENDS
;	COMDAT ??6CAr@@QAEAAV0@G@Z
_TEXT	SEGMENT PARA USE32 PUBLIC 'CODE'
_TEXT	ENDS
;	COMDAT ??6CAr@@QAEAAV0@H@Z
_TEXT	SEGMENT PARA USE32 PUBLIC 'CODE'
_TEXT	ENDS
;	COMDAT ??_7__MINIGAME_PACKET@@6B@
CONST	SEGMENT DWORD USE32 PUBLIC 'CONST'
CONST	ENDS
;	COMDAT ??1?$vector@KV?$allocator@K@std@@@std@@QAE@XZ
_TEXT	SEGMENT PARA USE32 PUBLIC 'CODE'
_TEXT	ENDS
;	COMDAT ?_Tidy@?$vector@KV?$allocator@K@std@@@std@@IAEXXZ
_TEXT	SEGMENT PARA USE32 PUBLIC 'CODE'
_TEXT	ENDS
;	COMDAT ?_Destroy@?$vector@KV?$allocator@K@std@@@std@@IAEXPAK0@Z
_TEXT	SEGMENT PARA USE32 PUBLIC 'CODE'
_TEXT	ENDS
;	COMDAT ??$_Destroy_range@KV?$allocator@K@std@@@std@@YAXPAK0AAV?$allocator@K@0@@Z
_TEXT	SEGMENT PARA USE32 PUBLIC 'CODE'
_TEXT	ENDS
;	COMDAT ?_Ptr_cat@std@@YA?AU_Scalar_ptr_iterator_tag@1@PAK0@Z
_TEXT	SEGMENT PARA USE32 PUBLIC 'CODE'
_TEXT	ENDS
;	COMDAT ?deallocate@?$allocator@K@std@@QAEXPAKI@Z
_TEXT	SEGMENT PARA USE32 PUBLIC 'CODE'
_TEXT	ENDS
;	COMDAT ??0?$vector@KV?$allocator@K@std@@@std@@QAE@XZ
_TEXT	SEGMENT PARA USE32 PUBLIC 'CODE'
_TEXT	ENDS
;	COMDAT ??0?$_Vector_val@KV?$allocator@K@std@@@std@@IAE@V?$allocator@K@1@@Z
_TEXT	SEGMENT PARA USE32 PUBLIC 'CODE'
_TEXT	ENDS
;	COMDAT ??0?$allocator@K@std@@QAE@ABV01@@Z
_TEXT	SEGMENT PARA USE32 PUBLIC 'CODE'
_TEXT	ENDS
;	COMDAT ??0?$allocator@K@std@@QAE@XZ
_TEXT	SEGMENT PARA USE32 PUBLIC 'CODE'
_TEXT	ENDS
;	COMDAT ?_Buy@?$vector@KV?$allocator@K@std@@@std@@IAE_NI@Z
_TEXT	SEGMENT PARA USE32 PUBLIC 'CODE'
_TEXT	ENDS
;	COMDAT ?max_size@?$vector@KV?$allocator@K@std@@@std@@QBEIXZ
_TEXT	SEGMENT PARA USE32 PUBLIC 'CODE'
_TEXT	ENDS
;	COMDAT ?max_size@?$allocator@K@std@@QBEIXZ
_TEXT	SEGMENT PARA USE32 PUBLIC 'CODE'
_TEXT	ENDS
;	COMDAT ?_Xlen@?$vector@KV?$allocator@K@std@@@std@@IBEXXZ
_TEXT	SEGMENT PARA USE32 PUBLIC 'CODE'
_TEXT	ENDS
;	COMDAT ?allocate@?$allocator@K@std@@QAEPAKI@Z
_TEXT	SEGMENT PARA USE32 PUBLIC 'CODE'
_TEXT	ENDS
;	COMDAT ??$_Allocate@K@std@@YAPAKIPAK@Z
_TEXT	SEGMENT PARA USE32 PUBLIC 'CODE'
_TEXT	ENDS
;	COMDAT ??5CAr@@QAEAAV0@AAK@Z
_TEXT	SEGMENT PARA USE32 PUBLIC 'CODE'
_TEXT	ENDS
;	COMDAT ??6CAr@@QAEAAV0@K@Z
_TEXT	SEGMENT PARA USE32 PUBLIC 'CODE'
_TEXT	ENDS
;	COMDAT ?IsStoring@CAr@@QBEHXZ
_TEXT	SEGMENT PARA USE32 PUBLIC 'CODE'
_TEXT	ENDS
;	COMDAT ??0D3DXVECTOR3@@QAE@MMM@Z
_TEXT	SEGMENT PARA USE32 PUBLIC 'CODE'
_TEXT	ENDS
;	COMDAT ?GetTickCount@CTime@ATL@@SG?AV12@XZ
_TEXT	SEGMENT PARA USE32 PUBLIC 'CODE'
_TEXT	ENDS
;	COMDAT ??0CTime@ATL@@QAE@_J@Z
_TEXT	SEGMENT PARA USE32 PUBLIC 'CODE'
_TEXT	ENDS
;	COMDAT ??0D3DXVECTOR3@@QAE@XZ
_TEXT	SEGMENT PARA USE32 PUBLIC 'CODE'
_TEXT	ENDS
;	COMDAT ??0CTime@ATL@@QAE@XZ
_TEXT	SEGMENT PARA USE32 PUBLIC 'CODE'
_TEXT	ENDS
sxdata	SEGMENT DWORD USE32 'SXDATA'
sxdata	ENDS
FLAT	GROUP _DATA, CONST, _BSS
	ASSUME	CS: FLAT, DS: FLAT, SS: FLAT
endif

INCLUDELIB LIBCMT
INCLUDELIB OLDNAMES

PUBLIC	??2@YAPAXIPAX@Z					; operator new
; Function compile flags: /Ogty
; File c:\program files\microsoft visual studio .net 2003\vc7\include\new.h
;	COMDAT ??2@YAPAXIPAX@Z
_TEXT	SEGMENT
___formal$ = 8						; size = 4
__P$ = 12						; size = 4
??2@YAPAXIPAX@Z PROC NEAR				; operator new, COMDAT

; 109  :         {return (_P); }

  00000	8b 44 24 08	 mov	 eax, DWORD PTR __P$[esp-4]
  00004	c3		 ret	 0
??2@YAPAXIPAX@Z ENDP					; operator new
_TEXT	ENDS
PUBLIC	??0CPocketController@@QAE@XZ			; CPocketController::CPocketController
PUBLIC	??_7CPocketController@@6B@			; CPocketController::`vftable'
PUBLIC	??_GCPocketController@@UAEPAXI@Z		; CPocketController::`scalar deleting destructor'
EXTRN	??_ECPocketController@@UAEPAXI@Z:NEAR		; CPocketController::`vector deleting destructor'
;	COMDAT ??_7CPocketController@@6B@
; File c:\documents and settings\test\mes documents\source\virtuos_v17\build\program\_common\pocket.cpp
CONST	SEGMENT
??_7CPocketController@@6B@ DD FLAT:??_ECPocketController@@UAEPAXI@Z ; CPocketController::`vftable'
; Function compile flags: /Ogty
CONST	ENDS
;	COMDAT ??0CPocketController@@QAE@XZ
_TEXT	SEGMENT
??0CPocketController@@QAE@XZ PROC NEAR			; CPocketController::CPocketController, COMDAT
; _this$ = ecx

; 55   : {

  00000	8b c1		 mov	 eax, ecx
  00002	c7 00 00 00 00
	00		 mov	 DWORD PTR [eax], OFFSET FLAT:??_7CPocketController@@6B@

; 56   : #ifdef __WORLDSERVER
; 57   : 	m_pMover	= NULL;

  00008	c7 40 04 00 00
	00 00		 mov	 DWORD PTR [eax+4], 0

; 58   : #endif	// __WORLDSERVER
; 59   : 	memset( m_apPocket, 0, sizeof(m_apPocket) );

  0000f	33 c9		 xor	 ecx, ecx
  00011	8d 50 08	 lea	 edx, DWORD PTR [eax+8]
  00014	89 0a		 mov	 DWORD PTR [edx], ecx
  00016	89 4a 04	 mov	 DWORD PTR [edx+4], ecx
  00019	89 4a 08	 mov	 DWORD PTR [edx+8], ecx

; 60   : #ifndef __OPT_MEM_0811
; 61   : 	Avail( 0 );
; 62   : #endif	// __OPT_MEM_0811
; 63   : }

  0001c	c3		 ret	 0
??0CPocketController@@QAE@XZ ENDP			; CPocketController::CPocketController
_TEXT	ENDS
PUBLIC	?Clear@CPocketController@@QAEXXZ		; CPocketController::Clear
; Function compile flags: /Ogty
;	COMDAT ?Clear@CPocketController@@QAEXXZ
_TEXT	SEGMENT
?Clear@CPocketController@@QAEXXZ PROC NEAR		; CPocketController::Clear, COMDAT
; _this$ = ecx

; 71   : {

  00000	56		 push	 esi
  00001	57		 push	 edi

; 72   : 	for( int i = 0; i < MAX_POCKET; i++ )

  00002	8d 71 08	 lea	 esi, DWORD PTR [ecx+8]
  00005	bf 03 00 00 00	 mov	 edi, 3
  0000a	8d 9b 00 00 00
	00		 npad	 6
$L249041:

; 73   : 		SAFE_DELETE( m_apPocket[i] );

  00010	8b 0e		 mov	 ecx, DWORD PTR [esi]
  00012	85 c9		 test	 ecx, ecx
  00014	74 0c		 je	 SHORT $L249042
  00016	8b 01		 mov	 eax, DWORD PTR [ecx]
  00018	6a 01		 push	 1
  0001a	ff 10		 call	 DWORD PTR [eax]
  0001c	c7 06 00 00 00
	00		 mov	 DWORD PTR [esi], 0
$L249042:
  00022	83 c6 04	 add	 esi, 4
  00025	4f		 dec	 edi
  00026	75 e8		 jne	 SHORT $L249041
  00028	5f		 pop	 edi
  00029	5e		 pop	 esi

; 74   : }

  0002a	c3		 ret	 0
?Clear@CPocketController@@QAEXXZ ENDP			; CPocketController::Clear
_TEXT	ENDS
PUBLIC	?GetMax@?$CItemContainer@VCItemElem@@@@QAEHXZ	; CItemContainer<CItemElem>::GetMax
; Function compile flags: /Ogty
; File c:\documents and settings\test\mes documents\source\virtuos_v17\build\program\_common\item.h
;	COMDAT ?GetMax@?$CItemContainer@VCItemElem@@@@QAEHXZ
_TEXT	SEGMENT
?GetMax@?$CItemContainer@VCItemElem@@@@QAEHXZ PROC NEAR	; CItemContainer<CItemElem>::GetMax, COMDAT
; _this$ = ecx

; 412  : 	int		GetMax() { return int( m_dwItemMax ); }

  00000	8b 41 0c	 mov	 eax, DWORD PTR [ecx+12]
  00003	c3		 ret	 0
?GetMax@?$CItemContainer@VCItemElem@@@@QAEHXZ ENDP	; CItemContainer<CItemElem>::GetMax
_TEXT	ENDS
PUBLIC	?capacity@?$vector@U_PocketController_Result@@V?$allocator@U_PocketController_Result@@@std@@@std@@QBEIXZ ; std::vector<_PocketController_Result,std::allocator<_PocketController_Result> >::capacity
; Function compile flags: /Ogty
; File c:\program files\microsoft visual studio .net 2003\vc7\include\vector
;	COMDAT ?capacity@?$vector@U_PocketController_Result@@V?$allocator@U_PocketController_Result@@@std@@@std@@QBEIXZ
_TEXT	SEGMENT
?capacity@?$vector@U_PocketController_Result@@V?$allocator@U_PocketController_Result@@@std@@@std@@QBEIXZ PROC NEAR ; std::vector<_PocketController_Result,std::allocator<_PocketController_Result> >::capacity, COMDAT
; _this$ = ecx

; 458  : 		return (_Myfirst == 0 ? 0 : _Myend - _Myfirst);

  00000	8b 41 04	 mov	 eax, DWORD PTR [ecx+4]
  00003	85 c0		 test	 eax, eax
  00005	75 01		 jne	 SHORT $L254412

; 459  : 		}

  00007	c3		 ret	 0
$L254412:

; 458  : 		return (_Myfirst == 0 ? 0 : _Myend - _Myfirst);

  00008	8b 49 0c	 mov	 ecx, DWORD PTR [ecx+12]
  0000b	2b c8		 sub	 ecx, eax
  0000d	b8 ab aa aa 2a	 mov	 eax, 715827883		; 2aaaaaabH
  00012	f7 e9		 imul	 ecx
  00014	d1 fa		 sar	 edx, 1
  00016	8b c2		 mov	 eax, edx
  00018	c1 e8 1f	 shr	 eax, 31			; 0000001fH
  0001b	03 c2		 add	 eax, edx

; 459  : 		}

  0001d	c3		 ret	 0
?capacity@?$vector@U_PocketController_Result@@V?$allocator@U_PocketController_Result@@@std@@@std@@QBEIXZ ENDP ; std::vector<_PocketController_Result,std::allocator<_PocketController_Result> >::capacity
_TEXT	ENDS
PUBLIC	?size@?$vector@U_PocketController_Result@@V?$allocator@U_PocketController_Result@@@std@@@std@@QBEIXZ ; std::vector<_PocketController_Result,std::allocator<_PocketController_Result> >::size
; Function compile flags: /Ogty
;	COMDAT ?size@?$vector@U_PocketController_Result@@V?$allocator@U_PocketController_Result@@@std@@@std@@QBEIXZ
_TEXT	SEGMENT
?size@?$vector@U_PocketController_Result@@V?$allocator@U_PocketController_Result@@@std@@@std@@QBEIXZ PROC NEAR ; std::vector<_PocketController_Result,std::allocator<_PocketController_Result> >::size, COMDAT
; _this$ = ecx

; 516  : 		return (_Myfirst == 0 ? 0 : _Mylast - _Myfirst);

  00000	8b 41 04	 mov	 eax, DWORD PTR [ecx+4]
  00003	85 c0		 test	 eax, eax
  00005	75 01		 jne	 SHORT $L254417

; 517  : 		}

  00007	c3		 ret	 0
$L254417:

; 516  : 		return (_Myfirst == 0 ? 0 : _Mylast - _Myfirst);

  00008	8b 49 08	 mov	 ecx, DWORD PTR [ecx+8]
  0000b	2b c8		 sub	 ecx, eax
  0000d	b8 ab aa aa 2a	 mov	 eax, 715827883		; 2aaaaaabH
  00012	f7 e9		 imul	 ecx
  00014	d1 fa		 sar	 edx, 1
  00016	8b c2		 mov	 eax, edx
  00018	c1 e8 1f	 shr	 eax, 31			; 0000001fH
  0001b	03 c2		 add	 eax, edx

; 517  : 		}

  0001d	c3		 ret	 0
?size@?$vector@U_PocketController_Result@@V?$allocator@U_PocketController_Result@@@std@@@std@@QBEIXZ ENDP ; std::vector<_PocketController_Result,std::allocator<_PocketController_Result> >::size
_TEXT	ENDS
PUBLIC	?deallocate@?$allocator@U_PocketController_Result@@@std@@QAEXPAU_PocketController_Result@@I@Z ; std::allocator<_PocketController_Result>::deallocate
EXTRN	??3@YAXPAX@Z:NEAR				; operator delete
; Function compile flags: /Ogty
; File c:\program files\microsoft visual studio .net 2003\vc7\include\xmemory
;	COMDAT ?deallocate@?$allocator@U_PocketController_Result@@@std@@QAEXPAU_PocketController_Result@@I@Z
_TEXT	SEGMENT
__Ptr$ = 8						; size = 4
___formal$ = 12						; size = 4
?deallocate@?$allocator@U_PocketController_Result@@@std@@QAEXPAU_PocketController_Result@@I@Z PROC NEAR ; std::allocator<_PocketController_Result>::deallocate, COMDAT
; _this$ = ecx

; 132  : 		operator delete(_Ptr);

  00000	8b 44 24 04	 mov	 eax, DWORD PTR __Ptr$[esp-4]
  00004	50		 push	 eax
  00005	e8 00 00 00 00	 call	 ??3@YAXPAX@Z		; operator delete
  0000a	59		 pop	 ecx

; 133  : 		}

  0000b	c2 08 00	 ret	 8
?deallocate@?$allocator@U_PocketController_Result@@@std@@QAEXPAU_PocketController_Result@@I@Z ENDP ; std::allocator<_PocketController_Result>::deallocate
_TEXT	ENDS
PUBLIC	??Yiterator@?$vector@U_PocketController_Result@@V?$allocator@U_PocketController_Result@@@std@@@std@@QAEAAV012@H@Z ; std::vector<_PocketController_Result,std::allocator<_PocketController_Result> >::iterator::operator+=
; Function compile flags: /Ogty
; File c:\program files\microsoft visual studio .net 2003\vc7\include\vector
;	COMDAT ??Yiterator@?$vector@U_PocketController_Result@@V?$allocator@U_PocketController_Result@@@std@@@std@@QAEAAV012@H@Z
_TEXT	SEGMENT
__Off$ = 8						; size = 4
??Yiterator@?$vector@U_PocketController_Result@@V?$allocator@U_PocketController_Result@@@std@@@std@@QAEAAV012@H@Z PROC NEAR ; std::vector<_PocketController_Result,std::allocator<_PocketController_Result> >::iterator::operator+=, COMDAT
; _this$ = ecx

; 255  : 			{	// increment by integer

  00000	8b c1		 mov	 eax, ecx

; 256  : 			this->_Myptr += _Off;

  00002	8b 4c 24 04	 mov	 ecx, DWORD PTR __Off$[esp-4]
  00006	8b 10		 mov	 edx, DWORD PTR [eax]
  00008	8d 0c 49	 lea	 ecx, DWORD PTR [ecx+ecx*2]
  0000b	c1 e1 02	 shl	 ecx, 2
  0000e	03 d1		 add	 edx, ecx
  00010	89 10		 mov	 DWORD PTR [eax], edx

; 257  : 			return (*this);
; 258  : 			}

  00012	c2 04 00	 ret	 4
??Yiterator@?$vector@U_PocketController_Result@@V?$allocator@U_PocketController_Result@@@std@@@std@@QAEAAV012@H@Z ENDP ; std::vector<_PocketController_Result,std::allocator<_PocketController_Result> >::iterator::operator+=
_TEXT	ENDS
PUBLIC	??0const_iterator@?$vector@U_PocketController_Result@@V?$allocator@U_PocketController_Result@@@std@@@std@@QAE@PAU_PocketController_Result@@@Z ; std::vector<_PocketController_Result,std::allocator<_PocketController_Result> >::const_iterator::const_iterator
; Function compile flags: /Ogty
;	COMDAT ??0const_iterator@?$vector@U_PocketController_Result@@V?$allocator@U_PocketController_Result@@@std@@@std@@QAE@PAU_PocketController_Result@@@Z
_TEXT	SEGMENT
__Ptr$ = 8						; size = 4
??0const_iterator@?$vector@U_PocketController_Result@@V?$allocator@U_PocketController_Result@@@std@@@std@@QAE@PAU_PocketController_Result@@@Z PROC NEAR ; std::vector<_PocketController_Result,std::allocator<_PocketController_Result> >::const_iterator::const_iterator, COMDAT
; _this$ = ecx

; 73   : 		const_iterator(_Tptr _Ptr)

  00000	8b c1		 mov	 eax, ecx

; 74   : 			{	// construct with pointer _Ptr
; 75   : 			_Myptr = _Ptr;

  00002	8b 4c 24 04	 mov	 ecx, DWORD PTR __Ptr$[esp-4]
  00006	89 08		 mov	 DWORD PTR [eax], ecx

; 76   : 			}

  00008	c2 04 00	 ret	 4
??0const_iterator@?$vector@U_PocketController_Result@@V?$allocator@U_PocketController_Result@@@std@@@std@@QAE@PAU_PocketController_Result@@@Z ENDP ; std::vector<_PocketController_Result,std::allocator<_PocketController_Result> >::const_iterator::const_iterator
_TEXT	ENDS
PUBLIC	??Gconst_iterator@?$vector@U_PocketController_Result@@V?$allocator@U_PocketController_Result@@@std@@@std@@QBEHABV012@@Z ; std::vector<_PocketController_Result,std::allocator<_PocketController_Result> >::const_iterator::operator-
; Function compile flags: /Ogty
;	COMDAT ??Gconst_iterator@?$vector@U_PocketController_Result@@V?$allocator@U_PocketController_Result@@@std@@@std@@QBEHABV012@@Z
_TEXT	SEGMENT
__Right$ = 8						; size = 4
??Gconst_iterator@?$vector@U_PocketController_Result@@V?$allocator@U_PocketController_Result@@@std@@@std@@QBEHABV012@@Z PROC NEAR ; std::vector<_PocketController_Result,std::allocator<_PocketController_Result> >::const_iterator::operator-, COMDAT
; _this$ = ecx

; 141  : 
; 142  : 
; 143  : 			return (_Myptr - _Right._Myptr);

  00000	8b 44 24 04	 mov	 eax, DWORD PTR __Right$[esp-4]
  00004	8b 10		 mov	 edx, DWORD PTR [eax]
  00006	8b 09		 mov	 ecx, DWORD PTR [ecx]
  00008	2b ca		 sub	 ecx, edx
  0000a	b8 ab aa aa 2a	 mov	 eax, 715827883		; 2aaaaaabH
  0000f	f7 e9		 imul	 ecx
  00011	d1 fa		 sar	 edx, 1
  00013	8b c2		 mov	 eax, edx
  00015	c1 e8 1f	 shr	 eax, 31			; 0000001fH
  00018	03 c2		 add	 eax, edx

; 144  : 			}

  0001a	c2 04 00	 ret	 4
??Gconst_iterator@?$vector@U_PocketController_Result@@V?$allocator@U_PocketController_Result@@@std@@@std@@QBEHABV012@@Z ENDP ; std::vector<_PocketController_Result,std::allocator<_PocketController_Result> >::const_iterator::operator-
_TEXT	ENDS
PUBLIC	?max_size@?$allocator@U_PocketController_Result@@@std@@QBEIXZ ; std::allocator<_PocketController_Result>::max_size
; Function compile flags: /Ogty
; File c:\program files\microsoft visual studio .net 2003\vc7\include\xmemory
;	COMDAT ?max_size@?$allocator@U_PocketController_Result@@@std@@QBEIXZ
_TEXT	SEGMENT
?max_size@?$allocator@U_PocketController_Result@@@std@@QBEIXZ PROC NEAR ; std::allocator<_PocketController_Result>::max_size, COMDAT
; _this$ = ecx

; 157  : 		_SIZT _Count = (_SIZT)(-1) / sizeof (_Ty);
; 158  : 		return (0 < _Count ? _Count : 1);

  00000	b8 55 55 55 15	 mov	 eax, 357913941		; 15555555H

; 159  : 		}

  00005	c3		 ret	 0
?max_size@?$allocator@U_PocketController_Result@@@std@@QBEIXZ ENDP ; std::allocator<_PocketController_Result>::max_size
_TEXT	ENDS
PUBLIC	??0?$CItemContainer@VCItemElem@@@@QAE@XZ	; CItemContainer<CItemElem>::CItemContainer<CItemElem>
PUBLIC	??_7?$CItemContainer@VCItemElem@@@@6B@		; CItemContainer<CItemElem>::`vftable'
PUBLIC	??_G?$CItemContainer@VCItemElem@@@@UAEPAXI@Z	; CItemContainer<CItemElem>::`scalar deleting destructor'
EXTRN	??_E?$CItemContainer@VCItemElem@@@@UAEPAXI@Z:NEAR ; CItemContainer<CItemElem>::`vector deleting destructor'
;	COMDAT ??_7?$CItemContainer@VCItemElem@@@@6B@
; File c:\documents and settings\test\mes documents\source\virtuos_v17\build\program\_common\item.h
CONST	SEGMENT
??_7?$CItemContainer@VCItemElem@@@@6B@ DD FLAT:??_E?$CItemContainer@VCItemElem@@@@UAEPAXI@Z ; CItemContainer<CItemElem>::`vftable'
; Function compile flags: /Ogty
CONST	ENDS
;	COMDAT ??0?$CItemContainer@VCItemElem@@@@QAE@XZ
_TEXT	SEGMENT
??0?$CItemContainer@VCItemElem@@@@QAE@XZ PROC NEAR	; CItemContainer<CItemElem>::CItemContainer<CItemElem>, COMDAT
; _this$ = ecx

; 461  : {

  00000	8b c1		 mov	 eax, ecx

; 462  : 	m_dwIndexNum = 0;

  00002	33 c9		 xor	 ecx, ecx
  00004	c7 00 00 00 00
	00		 mov	 DWORD PTR [eax], OFFSET FLAT:??_7?$CItemContainer@VCItemElem@@@@6B@
  0000a	89 48 08	 mov	 DWORD PTR [eax+8], ecx

; 463  : 	m_dwItemMax = 0;

  0000d	89 48 0c	 mov	 DWORD PTR [eax+12], ecx

; 464  : 
; 465  : 	m_apItem = NULL;

  00010	89 48 10	 mov	 DWORD PTR [eax+16], ecx

; 466  : 	m_apIndex = NULL;

  00013	89 48 04	 mov	 DWORD PTR [eax+4], ecx

; 467  : }

  00016	c3		 ret	 0
??0?$CItemContainer@VCItemElem@@@@QAE@XZ ENDP		; CItemContainer<CItemElem>::CItemContainer<CItemElem>
_TEXT	ENDS
PUBLIC	?RemoveAtId@?$CItemContainer@VCItemElem@@@@QAEXK@Z ; CItemContainer<CItemElem>::RemoveAtId
; Function compile flags: /Ogty
;	COMDAT ?RemoveAtId@?$CItemContainer@VCItemElem@@@@QAEXK@Z
_TEXT	SEGMENT
_dwObjId$ = 8						; size = 4
?RemoveAtId@?$CItemContainer@VCItemElem@@@@QAEXK@Z PROC NEAR ; CItemContainer<CItemElem>::RemoveAtId, COMDAT
; _this$ = ecx

; 768  : {

  00000	56		 push	 esi

; 769  : 	if( dwObjId >= m_dwItemMax )

  00001	8b 74 24 08	 mov	 esi, DWORD PTR _dwObjId$[esp]
  00005	57		 push	 edi
  00006	8b f9		 mov	 edi, ecx
  00008	8b 47 0c	 mov	 eax, DWORD PTR [edi+12]
  0000b	3b f0		 cmp	 esi, eax
  0000d	73 41		 jae	 SHORT $L251925

; 770  : 		return;
; 771  : 	if( m_apItem[ dwObjId ].m_dwObjIndex >= m_dwItemMax )

  0000f	8b 4f 10	 mov	 ecx, DWORD PTR [edi+16]
  00012	69 f6 b8 00 00
	00		 imul	 esi, 184		; 000000b8H
  00018	39 44 31 08	 cmp	 DWORD PTR [ecx+esi+8], eax
  0001c	73 32		 jae	 SHORT $L251925

; 772  : 		return;
; 773  : 	m_apItem[ dwObjId ].Empty();

  0001e	8b d1		 mov	 edx, ecx
  00020	8b 04 32	 mov	 eax, DWORD PTR [edx+esi]
  00023	8d 0c 32	 lea	 ecx, DWORD PTR [edx+esi]
  00026	ff 50 0c	 call	 DWORD PTR [eax+12]

; 774  : 	if( m_apItem[ dwObjId ].m_dwObjIndex >= m_dwIndexNum )

  00029	8b 4f 10	 mov	 ecx, DWORD PTR [edi+16]
  0002c	8b 54 31 08	 mov	 edx, DWORD PTR [ecx+esi+8]
  00030	3b 57 08	 cmp	 edx, DWORD PTR [edi+8]
  00033	72 1b		 jb	 SHORT $L251925

; 775  : 	{
; 776  : 		m_apIndex[ m_apItem[ dwObjId ].m_dwObjIndex ] = NULL_ID;

  00035	8b 57 04	 mov	 edx, DWORD PTR [edi+4]
  00038	8b c1		 mov	 eax, ecx
  0003a	8b 4c 30 08	 mov	 ecx, DWORD PTR [eax+esi+8]
  0003e	c7 04 8a ff ff
	ff ff		 mov	 DWORD PTR [edx+ecx*4], -1

; 777  : 		m_apItem[ dwObjId ].m_dwObjIndex = NULL_ID;

  00045	8b 47 10	 mov	 eax, DWORD PTR [edi+16]
  00048	c7 44 30 08 ff
	ff ff ff	 mov	 DWORD PTR [eax+esi+8], -1
$L251925:
  00050	5f		 pop	 edi
  00051	5e		 pop	 esi

; 778  : 	}
; 779  : }

  00052	c2 04 00	 ret	 4
?RemoveAtId@?$CItemContainer@VCItemElem@@@@QAEXK@Z ENDP	; CItemContainer<CItemElem>::RemoveAtId
_TEXT	ENDS
PUBLIC	??$fill@PAU_PocketController_Result@@U1@@std@@YAXPAU_PocketController_Result@@0ABU1@@Z ; std::fill<_PocketController_Result *,_PocketController_Result>
; Function compile flags: /Ogty
; File c:\program files\microsoft visual studio .net 2003\vc7\include\xutility
;	COMDAT ??$fill@PAU_PocketController_Result@@U1@@std@@YAXPAU_PocketController_Result@@0ABU1@@Z
_TEXT	SEGMENT
__First$ = 8						; size = 4
__Last$ = 12						; size = 4
__Val$ = 16						; size = 4
??$fill@PAU_PocketController_Result@@U1@@std@@YAXPAU_PocketController_Result@@0ABU1@@Z PROC NEAR ; std::fill<_PocketController_Result *,_PocketController_Result>, COMDAT

; 1135 : 	for (; _First != _Last; ++_First)

  00000	8b 44 24 04	 mov	 eax, DWORD PTR __First$[esp-4]
  00004	8b 4c 24 08	 mov	 ecx, DWORD PTR __Last$[esp-4]
  00008	3b c1		 cmp	 eax, ecx
  0000a	74 25		 je	 SHORT $L252777
  0000c	8b 54 24 0c	 mov	 edx, DWORD PTR __Val$[esp-4]
  00010	53		 push	 ebx
  00011	56		 push	 esi
  00012	57		 push	 edi
$L252775:

; 1136 : 		*_First = _Val;

  00013	8b f2		 mov	 esi, edx
  00015	8b 1e		 mov	 ebx, DWORD PTR [esi]
  00017	8b f8		 mov	 edi, eax
  00019	89 1f		 mov	 DWORD PTR [edi], ebx
  0001b	8b 5e 04	 mov	 ebx, DWORD PTR [esi+4]
  0001e	89 5f 04	 mov	 DWORD PTR [edi+4], ebx
  00021	8b 76 08	 mov	 esi, DWORD PTR [esi+8]
  00024	83 c0 0c	 add	 eax, 12			; 0000000cH
  00027	3b c1		 cmp	 eax, ecx
  00029	89 77 08	 mov	 DWORD PTR [edi+8], esi
  0002c	75 e5		 jne	 SHORT $L252775
  0002e	5f		 pop	 edi
  0002f	5e		 pop	 esi
  00030	5b		 pop	 ebx
$L252777:

; 1137 : 	}

  00031	c3		 ret	 0
??$fill@PAU_PocketController_Result@@U1@@std@@YAXPAU_PocketController_Result@@0ABU1@@Z ENDP ; std::fill<_PocketController_Result *,_PocketController_Result>
_TEXT	ENDS
PUBLIC	??$_Allocate@U_PocketController_Result@@@std@@YAPAU_PocketController_Result@@IPAU1@@Z ; std::_Allocate<_PocketController_Result>
EXTRN	??2@YAPAXI@Z:NEAR				; operator new
; Function compile flags: /Ogty
; File c:\program files\microsoft visual studio .net 2003\vc7\include\xmemory
;	COMDAT ??$_Allocate@U_PocketController_Result@@@std@@YAPAU_PocketController_Result@@IPAU1@@Z
_TEXT	SEGMENT
__Count$ = 8						; size = 4
___formal$ = 12						; size = 4
??$_Allocate@U_PocketController_Result@@@std@@YAPAU_PocketController_Result@@IPAU1@@Z PROC NEAR ; std::_Allocate<_PocketController_Result>, COMDAT

; 34   : 	return ((_Ty _FARQ *)operator new(_Count * sizeof (_Ty)));

  00000	8b 44 24 04	 mov	 eax, DWORD PTR __Count$[esp-4]
  00004	8d 04 40	 lea	 eax, DWORD PTR [eax+eax*2]
  00007	c1 e0 02	 shl	 eax, 2
  0000a	50		 push	 eax
  0000b	e8 00 00 00 00	 call	 ??2@YAPAXI@Z		; operator new
  00010	83 c4 04	 add	 esp, 4

; 35   : 	}

  00013	c3		 ret	 0
??$_Allocate@U_PocketController_Result@@@std@@YAPAU_PocketController_Result@@IPAU1@@Z ENDP ; std::_Allocate<_PocketController_Result>
_TEXT	ENDS
PUBLIC	??_ECItemElem@@UAEPAXI@Z			; CItemElem::`vector deleting destructor'
EXTRN	??_M@YGXPAXIHP6EX0@Z@Z:NEAR			; `eh vector destructor iterator'
EXTRN	??_V@YAXPAX@Z:NEAR				; operator delete[]
EXTRN	??1CItemElem@@UAE@XZ:NEAR			; CItemElem::~CItemElem
; Function compile flags: /Ogty
;	COMDAT ??_ECItemElem@@UAEPAXI@Z
_TEXT	SEGMENT
___flags$ = 8						; size = 4
??_ECItemElem@@UAEPAXI@Z PROC NEAR			; CItemElem::`vector deleting destructor', COMDAT
; _this$ = ecx
  00000	53		 push	 ebx
  00001	8a 5c 24 08	 mov	 bl, BYTE PTR ___flags$[esp]
  00005	f6 c3 02	 test	 bl, 2
  00008	56		 push	 esi
  00009	8b f1		 mov	 esi, ecx
  0000b	74 2e		 je	 SHORT $L252848
  0000d	8b 46 fc	 mov	 eax, DWORD PTR [esi-4]
  00010	57		 push	 edi
  00011	68 00 00 00 00	 push	 OFFSET FLAT:??1CItemElem@@UAE@XZ ; CItemElem::~CItemElem
  00016	8d 7e fc	 lea	 edi, DWORD PTR [esi-4]
  00019	50		 push	 eax
  0001a	68 b8 00 00 00	 push	 184			; 000000b8H
  0001f	56		 push	 esi
  00020	e8 00 00 00 00	 call	 ??_M@YGXPAXIHP6EX0@Z@Z
  00025	f6 c3 01	 test	 bl, 1
  00028	74 09		 je	 SHORT $L252849
  0002a	57		 push	 edi
  0002b	e8 00 00 00 00	 call	 ??_V@YAXPAX@Z		; operator delete[]
  00030	83 c4 04	 add	 esp, 4
$L252849:
  00033	8b c7		 mov	 eax, edi
  00035	5f		 pop	 edi
  00036	5e		 pop	 esi
  00037	5b		 pop	 ebx
  00038	c2 04 00	 ret	 4
$L252848:
  0003b	8b ce		 mov	 ecx, esi
  0003d	e8 00 00 00 00	 call	 ??1CItemElem@@UAE@XZ	; CItemElem::~CItemElem
  00042	f6 c3 01	 test	 bl, 1
  00045	74 09		 je	 SHORT $L252851
  00047	56		 push	 esi
  00048	e8 00 00 00 00	 call	 ??3@YAXPAX@Z		; operator delete
  0004d	83 c4 04	 add	 esp, 4
$L252851:
  00050	8b c6		 mov	 eax, esi
  00052	5e		 pop	 esi
  00053	5b		 pop	 ebx
  00054	c2 04 00	 ret	 4
??_ECItemElem@@UAEPAXI@Z ENDP				; CItemElem::`vector deleting destructor'
_TEXT	ENDS
PUBLIC	?Clear@?$CItemContainer@VCItemElem@@@@QAEXXZ	; CItemContainer<CItemElem>::Clear
; Function compile flags: /Ogty
; File c:\documents and settings\test\mes documents\source\virtuos_v17\build\program\_common\item.h
;	COMDAT ?Clear@?$CItemContainer@VCItemElem@@@@QAEXXZ
_TEXT	SEGMENT
?Clear@?$CItemContainer@VCItemElem@@@@QAEXXZ PROC NEAR	; CItemContainer<CItemElem>::Clear, COMDAT
; _this$ = ecx

; 482  : {

  00000	56		 push	 esi
  00001	57		 push	 edi
  00002	8b f9		 mov	 edi, ecx

; 483  : 	for( DWORD i = 0; i < m_dwItemMax; i++ )

  00004	8b 47 0c	 mov	 eax, DWORD PTR [edi+12]
  00007	33 f6		 xor	 esi, esi
  00009	85 c0		 test	 eax, eax
  0000b	76 43		 jbe	 SHORT $L252965
  0000d	53		 push	 ebx
  0000e	33 db		 xor	 ebx, ebx
$L252963:

; 484  : 	{
; 485  : 		m_apItem[ i ].Empty();

  00010	8b 47 10	 mov	 eax, DWORD PTR [edi+16]
  00013	8b 14 18	 mov	 edx, DWORD PTR [eax+ebx]
  00016	8d 0c 18	 lea	 ecx, DWORD PTR [eax+ebx]
  00019	ff 52 0c	 call	 DWORD PTR [edx+12]

; 486  : 		m_apItem[ i ].m_dwObjId = i;

  0001c	8b 47 10	 mov	 eax, DWORD PTR [edi+16]
  0001f	89 74 18 04	 mov	 DWORD PTR [eax+ebx+4], esi

; 487  : 		if( i < m_dwIndexNum )

  00023	3b 77 08	 cmp	 esi, DWORD PTR [edi+8]
  00026	73 0f		 jae	 SHORT $L252966

; 488  : 		{
; 489  : 			m_apItem[ i ].m_dwObjIndex = i;

  00028	8b 4f 10	 mov	 ecx, DWORD PTR [edi+16]
  0002b	89 74 19 08	 mov	 DWORD PTR [ecx+ebx+8], esi

; 490  : 			m_apIndex[ i ] = i;

  0002f	8b 57 04	 mov	 edx, DWORD PTR [edi+4]
  00032	89 34 b2	 mov	 DWORD PTR [edx+esi*4], esi

; 491  : 		}
; 492  : 		else 

  00035	eb 0a		 jmp	 SHORT $L252964
$L252966:

; 493  : 		{
; 494  : 			m_apIndex[ i ] = NULL_ID;

  00037	8b 47 04	 mov	 eax, DWORD PTR [edi+4]
  0003a	c7 04 b0 ff ff
	ff ff		 mov	 DWORD PTR [eax+esi*4], -1
$L252964:
  00041	8b 47 0c	 mov	 eax, DWORD PTR [edi+12]
  00044	46		 inc	 esi
  00045	81 c3 b8 00 00
	00		 add	 ebx, 184		; 000000b8H
  0004b	3b f0		 cmp	 esi, eax
  0004d	72 c1		 jb	 SHORT $L252963
  0004f	5b		 pop	 ebx
$L252965:
  00050	5f		 pop	 edi
  00051	5e		 pop	 esi

; 495  : 		}
; 496  : 	}
; 497  : }

  00052	c3		 ret	 0
?Clear@?$CItemContainer@VCItemElem@@@@QAEXXZ ENDP	; CItemContainer<CItemElem>::Clear
_TEXT	ENDS
PUBLIC	??$_Ptr_cat@PAU_PocketController_Result@@PAU1@@std@@YA?AU_Nonscalar_ptr_iterator_tag@0@AAPAU_PocketController_Result@@0@Z ; std::_Ptr_cat<_PocketController_Result *,_PocketController_Result *>
; Function compile flags: /Ogty
; File c:\program files\microsoft visual studio .net 2003\vc7\include\xutility
;	COMDAT ??$_Ptr_cat@PAU_PocketController_Result@@PAU1@@std@@YA?AU_Nonscalar_ptr_iterator_tag@0@AAPAU_PocketController_Result@@0@Z
_TEXT	SEGMENT
__Cat$ = -1						; size = 1
___formal$ = 8						; size = 4
___formal$ = 12						; size = 4
??$_Ptr_cat@PAU_PocketController_Result@@PAU1@@std@@YA?AU_Nonscalar_ptr_iterator_tag@0@AAPAU_PocketController_Result@@0@Z PROC NEAR ; std::_Ptr_cat<_PocketController_Result *,_PocketController_Result *>, COMDAT

; 211  : 	{	// return pointer category from arbitrary arguments

  00000	51		 push	 ecx

; 212  : 	_Nonscalar_ptr_iterator_tag _Cat;
; 213  : 	return (_Cat);

  00001	8a 44 24 03	 mov	 al, BYTE PTR __Cat$[esp+4]

; 214  : 	}

  00005	59		 pop	 ecx
  00006	c3		 ret	 0
??$_Ptr_cat@PAU_PocketController_Result@@PAU1@@std@@YA?AU_Nonscalar_ptr_iterator_tag@0@AAPAU_PocketController_Result@@0@Z ENDP ; std::_Ptr_cat<_PocketController_Result *,_PocketController_Result *>
_TEXT	ENDS
PUBLIC	??$_Copy_backward_opt@PAU_PocketController_Result@@PAU1@@std@@YAPAU_PocketController_Result@@PAU1@00U_Nonscalar_ptr_iterator_tag@0@@Z ; std::_Copy_backward_opt<_PocketController_Result *,_PocketController_Result *>
; Function compile flags: /Ogty
;	COMDAT ??$_Copy_backward_opt@PAU_PocketController_Result@@PAU1@@std@@YAPAU_PocketController_Result@@PAU1@00U_Nonscalar_ptr_iterator_tag@0@@Z
_TEXT	SEGMENT
__First$ = 8						; size = 4
__Last$ = 12						; size = 4
__Dest$ = 16						; size = 4
___formal$ = 20						; size = 1
??$_Copy_backward_opt@PAU_PocketController_Result@@PAU1@@std@@YAPAU_PocketController_Result@@PAU1@00U_Nonscalar_ptr_iterator_tag@0@@Z PROC NEAR ; std::_Copy_backward_opt<_PocketController_Result *,_PocketController_Result *>, COMDAT

; 1049 : 	while (_First != _Last)

  00000	8b 54 24 04	 mov	 edx, DWORD PTR __First$[esp-4]
  00004	8b 4c 24 08	 mov	 ecx, DWORD PTR __Last$[esp-4]
  00008	3b d1		 cmp	 edx, ecx
  0000a	8b 44 24 0c	 mov	 eax, DWORD PTR __Dest$[esp-4]
  0000e	74 24		 je	 SHORT $L253216
  00010	53		 push	 ebx
  00011	56		 push	 esi
  00012	57		 push	 edi
$L253215:

; 1050 : 		*--_Dest = *--_Last;

  00013	83 e9 0c	 sub	 ecx, 12			; 0000000cH
  00016	83 e8 0c	 sub	 eax, 12			; 0000000cH
  00019	3b ca		 cmp	 ecx, edx
  0001b	8b f1		 mov	 esi, ecx
  0001d	8b 1e		 mov	 ebx, DWORD PTR [esi]
  0001f	8b f8		 mov	 edi, eax
  00021	89 1f		 mov	 DWORD PTR [edi], ebx
  00023	8b 5e 04	 mov	 ebx, DWORD PTR [esi+4]
  00026	89 5f 04	 mov	 DWORD PTR [edi+4], ebx
  00029	8b 76 08	 mov	 esi, DWORD PTR [esi+8]
  0002c	89 77 08	 mov	 DWORD PTR [edi+8], esi
  0002f	75 e2		 jne	 SHORT $L253215
  00031	5f		 pop	 edi
  00032	5e		 pop	 esi
  00033	5b		 pop	 ebx
$L253216:

; 1051 : 	return (_Dest);
; 1052 : 	}

  00034	c3		 ret	 0
??$_Copy_backward_opt@PAU_PocketController_Result@@PAU1@@std@@YAPAU_PocketController_Result@@PAU1@00U_Nonscalar_ptr_iterator_tag@0@@Z ENDP ; std::_Copy_backward_opt<_PocketController_Result *,_PocketController_Result *>
_TEXT	ENDS
PUBLIC	??$_Construct@U_PocketController_Result@@U1@@std@@YAXPAU_PocketController_Result@@ABU1@@Z ; std::_Construct<_PocketController_Result,_PocketController_Result>
; Function compile flags: /Ogty
; File c:\program files\microsoft visual studio .net 2003\vc7\include\xmemory
;	COMDAT ??$_Construct@U_PocketController_Result@@U1@@std@@YAXPAU_PocketController_Result@@ABU1@@Z
_TEXT	SEGMENT
__Ptr$ = 8						; size = 4
__Val$ = 12						; size = 4
??$_Construct@U_PocketController_Result@@U1@@std@@YAXPAU_PocketController_Result@@ABU1@@Z PROC NEAR ; std::_Construct<_PocketController_Result,_PocketController_Result>, COMDAT

; 42   : 	new ((void _FARQ *)_Ptr) _T1(_Val);

  00000	8b 44 24 04	 mov	 eax, DWORD PTR __Ptr$[esp-4]
  00004	85 c0		 test	 eax, eax
  00006	74 14		 je	 SHORT $L254471
  00008	8b 4c 24 08	 mov	 ecx, DWORD PTR __Val$[esp-4]
  0000c	8b 11		 mov	 edx, DWORD PTR [ecx]
  0000e	89 10		 mov	 DWORD PTR [eax], edx
  00010	8b 51 04	 mov	 edx, DWORD PTR [ecx+4]
  00013	89 50 04	 mov	 DWORD PTR [eax+4], edx
  00016	8b 49 08	 mov	 ecx, DWORD PTR [ecx+8]
  00019	89 48 08	 mov	 DWORD PTR [eax+8], ecx
$L254471:

; 43   : 	}

  0001c	c3		 ret	 0
??$_Construct@U_PocketController_Result@@U1@@std@@YAXPAU_PocketController_Result@@ABU1@@Z ENDP ; std::_Construct<_PocketController_Result,_PocketController_Result>
_TEXT	ENDS
PUBLIC	??$_Destroy@U_PocketController_Result@@@std@@YAXPAU_PocketController_Result@@@Z ; std::_Destroy<_PocketController_Result>
; Function compile flags: /Ogty
;	COMDAT ??$_Destroy@U_PocketController_Result@@@std@@YAXPAU_PocketController_Result@@@Z
_TEXT	SEGMENT
__Ptr$ = 8						; size = 4
??$_Destroy@U_PocketController_Result@@@std@@YAXPAU_PocketController_Result@@@Z PROC NEAR ; std::_Destroy<_PocketController_Result>, COMDAT

; 49   : 	_DESTRUCTOR(_Ty, _Ptr);
; 50   : 	}

  00000	c3		 ret	 0
??$_Destroy@U_PocketController_Result@@@std@@YAXPAU_PocketController_Result@@@Z ENDP ; std::_Destroy<_PocketController_Result>
_TEXT	ENDS
PUBLIC	?assign@?$char_traits@D@std@@SAXAADABD@Z	; std::char_traits<char>::assign
; Function compile flags: /Ogty
; File c:\program files\microsoft visual studio .net 2003\vc7\include\iosfwd
;	COMDAT ?assign@?$char_traits@D@std@@SAXAADABD@Z
_TEXT	SEGMENT
__Left$ = 8						; size = 4
__Right$ = 12						; size = 4
?assign@?$char_traits@D@std@@SAXAADABD@Z PROC NEAR	; std::char_traits<char>::assign, COMDAT

; 331  : 		_Left = _Right;

  00000	8b 44 24 08	 mov	 eax, DWORD PTR __Right$[esp-4]
  00004	8a 08		 mov	 cl, BYTE PTR [eax]
  00006	8b 54 24 04	 mov	 edx, DWORD PTR __Left$[esp-4]
  0000a	88 0a		 mov	 BYTE PTR [edx], cl

; 332  : 		}

  0000c	c3		 ret	 0
?assign@?$char_traits@D@std@@SAXAADABD@Z ENDP		; std::char_traits<char>::assign
_TEXT	ENDS
PUBLIC	?length@?$char_traits@D@std@@SAIPBD@Z		; std::char_traits<char>::length
; Function compile flags: /Ogty
;	COMDAT ?length@?$char_traits@D@std@@SAIPBD@Z
_TEXT	SEGMENT
__First$ = 8						; size = 4
?length@?$char_traits@D@std@@SAIPBD@Z PROC NEAR		; std::char_traits<char>::length, COMDAT

; 352  : 		return (::strlen(_First));

  00000	8b 44 24 04	 mov	 eax, DWORD PTR __First$[esp-4]
  00004	8d 50 01	 lea	 edx, DWORD PTR [eax+1]
$L254485:
  00007	8a 08		 mov	 cl, BYTE PTR [eax]
  00009	40		 inc	 eax
  0000a	84 c9		 test	 cl, cl
  0000c	75 f9		 jne	 SHORT $L254485
  0000e	2b c2		 sub	 eax, edx

; 353  : 		}

  00010	c3		 ret	 0
?length@?$char_traits@D@std@@SAIPBD@Z ENDP		; std::char_traits<char>::length
_TEXT	ENDS
PUBLIC	?copy@?$char_traits@D@std@@SAPADPADPBDI@Z	; std::char_traits<char>::copy
; Function compile flags: /Ogty
;	COMDAT ?copy@?$char_traits@D@std@@SAPADPADPBDI@Z
_TEXT	SEGMENT
__First1$ = 8						; size = 4
__First2$ = 12						; size = 4
__Count$ = 16						; size = 4
?copy@?$char_traits@D@std@@SAPADPADPBDI@Z PROC NEAR	; std::char_traits<char>::copy, COMDAT

; 358  : 		return ((_Elem *)::memcpy(_First1, _First2, _Count));

  00000	8b 4c 24 0c	 mov	 ecx, DWORD PTR __Count$[esp-4]
  00004	56		 push	 esi
  00005	8b 74 24 0c	 mov	 esi, DWORD PTR __First2$[esp]
  00009	57		 push	 edi
  0000a	8b 7c 24 0c	 mov	 edi, DWORD PTR __First1$[esp+4]
  0000e	8b c1		 mov	 eax, ecx
  00010	8b d7		 mov	 edx, edi
  00012	c1 e9 02	 shr	 ecx, 2
  00015	f3 a5		 rep movsd
  00017	8b c8		 mov	 ecx, eax
  00019	83 e1 03	 and	 ecx, 3
  0001c	f3 a4		 rep movsb
  0001e	5f		 pop	 edi
  0001f	8b c2		 mov	 eax, edx
  00021	5e		 pop	 esi

; 359  : 		}

  00022	c3		 ret	 0
?copy@?$char_traits@D@std@@SAPADPADPBDI@Z ENDP		; std::char_traits<char>::copy
_TEXT	ENDS
PUBLIC	?move@?$char_traits@D@std@@SAPADPADPBDI@Z	; std::char_traits<char>::move
EXTRN	_memmove:NEAR
; Function compile flags: /Ogty
;	COMDAT ?move@?$char_traits@D@std@@SAPADPADPBDI@Z
_TEXT	SEGMENT
__First1$ = 8						; size = 4
__First2$ = 12						; size = 4
__Count$ = 16						; size = 4
?move@?$char_traits@D@std@@SAPADPADPBDI@Z PROC NEAR	; std::char_traits<char>::move, COMDAT

; 370  : 		return ((_Elem *)::memmove(_First1, _First2, _Count));

  00000	e9 00 00 00 00	 jmp	 _memmove
?move@?$char_traits@D@std@@SAPADPADPBDI@Z ENDP		; std::char_traits<char>::move
_TEXT	ENDS
PUBLIC	?time_null@@YAJXZ				; time_null
EXTRN	?g_tCurrent@@3JA:DWORD				; g_tCurrent
; Function compile flags: /Ogty
; File c:\documents and settings\test\mes documents\source\virtuos_v17\build\program\_network\cmnhdr.h
;	COMDAT ?time_null@@YAJXZ
_TEXT	SEGMENT
?time_null@@YAJXZ PROC NEAR				; time_null, COMDAT

; 702  : #if defined(__WORLDSERVER) || defined(__CLIENT)
; 703  : 	return	g_tCurrent;

  00000	a1 00 00 00 00	 mov	 eax, DWORD PTR ?g_tCurrent@@3JA ; g_tCurrent

; 704  : #else	//
; 705  : 	return time( NULL );
; 706  : #endif	//
; 707  : }

  00005	c3		 ret	 0
?time_null@@YAJXZ ENDP					; time_null
_TEXT	ENDS
PUBLIC	?LOG_RANGE@@YAXPBDHHH@Z				; LOG_RANGE
PUBLIC	??_C@_0BM@HMFGHCP@?$CFs?5min?3?$CFd?0?5max?3?$CFd?0?5index?3?$CFd?$AA@ ; `string'
EXTRN	?Error@@YAPBDPBDZZ:NEAR				; Error
;	COMDAT ??_C@_0BM@HMFGHCP@?$CFs?5min?3?$CFd?0?5max?3?$CFd?0?5index?3?$CFd?$AA@
; File c:\documents and settings\test\mes documents\source\virtuos_v17\build\program\_common\project.h
CONST	SEGMENT
??_C@_0BM@HMFGHCP@?$CFs?5min?3?$CFd?0?5max?3?$CFd?0?5index?3?$CFd?$AA@ DB '%'
	DB	's min:%d, max:%d, index:%d', 00H		; `string'
; Function compile flags: /Ogty
CONST	ENDS
;	COMDAT ?LOG_RANGE@@YAXPBDHHH@Z
_TEXT	SEGMENT
_szMsg$ = 8						; size = 4
_nMin$ = 12						; size = 4
_nMax$ = 16						; size = 4
_nIndex$ = 20						; size = 4
?LOG_RANGE@@YAXPBDHHH@Z PROC NEAR			; LOG_RANGE, COMDAT

; 559  : 	LPCTSTR szErr = Error( _T( "%s min:%d, max:%d, index:%d" ), szMsg, nMin, nMax, nIndex ); 

  00000	8b 44 24 10	 mov	 eax, DWORD PTR _nIndex$[esp-4]
  00004	8b 4c 24 0c	 mov	 ecx, DWORD PTR _nMax$[esp-4]
  00008	8b 54 24 08	 mov	 edx, DWORD PTR _nMin$[esp-4]
  0000c	50		 push	 eax
  0000d	8b 44 24 08	 mov	 eax, DWORD PTR _szMsg$[esp]
  00011	51		 push	 ecx
  00012	52		 push	 edx
  00013	50		 push	 eax
  00014	68 00 00 00 00	 push	 OFFSET FLAT:??_C@_0BM@HMFGHCP@?$CFs?5min?3?$CFd?0?5max?3?$CFd?0?5index?3?$CFd?$AA@
  00019	e8 00 00 00 00	 call	 ?Error@@YAPBDPBDZZ	; Error
  0001e	83 c4 14	 add	 esp, 20			; 00000014H

; 560  : 	ADDERRORMSG( szErr ); 
; 561  : }

  00021	c3		 ret	 0
?LOG_RANGE@@YAXPBDHHH@Z ENDP				; LOG_RANGE
_TEXT	ENDS
PUBLIC	?LOG_CALLSTACK@@YAXXZ				; LOG_CALLSTACK
; Function compile flags: /Ogty
;	COMDAT ?LOG_CALLSTACK@@YAXXZ
_TEXT	SEGMENT
?LOG_CALLSTACK@@YAXXZ PROC NEAR				; LOG_CALLSTACK, COMDAT

; 565  : #ifdef _DEBUG
; 566  : 	__asm int 3
; 567  : #endif
; 568  : 
; 569  : #if defined(__INTERNALSERVER)
; 570  : 	int *p = NULL;		//    
; 571  : 	*p = 1;
; 572  : #endif
; 573  : }

  00000	c3		 ret	 0
?LOG_CALLSTACK@@YAXXZ ENDP				; LOG_CALLSTACK
_TEXT	ENDS
PUBLIC	?IsEmpty@CItemBase@@QAEHXZ			; CItemBase::IsEmpty
; Function compile flags: /Ogty
; File c:\documents and settings\test\mes documents\source\virtuos_v17\build\program\_common\item.h
;	COMDAT ?IsEmpty@CItemBase@@QAEHXZ
_TEXT	SEGMENT
?IsEmpty@CItemBase@@QAEHXZ PROC NEAR			; CItemBase::IsEmpty, COMDAT
; _this$ = ecx

; 48   : 	BOOL			IsEmpty() { return m_dwItemId ? FALSE : TRUE; }

  00000	8b 51 0c	 mov	 edx, DWORD PTR [ecx+12]
  00003	33 c0		 xor	 eax, eax
  00005	85 d2		 test	 edx, edx
  00007	0f 94 c0	 sete	 al
  0000a	c3		 ret	 0
?IsEmpty@CItemBase@@QAEHXZ ENDP				; CItemBase::IsEmpty
_TEXT	ENDS
PUBLIC	?IsStoring@CAr@@QBEHXZ				; CAr::IsStoring
; Function compile flags: /Ogty
; File c:\documents and settings\test\mes documents\source\virtuos_v17\build\program\_network\misc\include\ar.h
;	COMDAT ?IsStoring@CAr@@QBEHXZ
_TEXT	SEGMENT
?IsStoring@CAr@@QBEHXZ PROC NEAR			; CAr::IsStoring, COMDAT
; _this$ = ecx

; 96   : 	{ return (m_nMode & CAr::load) == 0; }

  00000	33 c0		 xor	 eax, eax
  00002	8a 01		 mov	 al, BYTE PTR [ecx]
  00004	f7 d0		 not	 eax
  00006	83 e0 01	 and	 eax, 1
  00009	c3		 ret	 0
?IsStoring@CAr@@QBEHXZ ENDP				; CAr::IsStoring
_TEXT	ENDS
PUBLIC	??6CAr@@QAEAAV0@E@Z				; CAr::operator<<
EXTRN	?CheckBuf@CAr@@QAEXI@Z:NEAR			; CAr::CheckBuf
; Function compile flags: /Ogty
;	COMDAT ??6CAr@@QAEAAV0@E@Z
_TEXT	SEGMENT
_by$ = 8						; size = 1
??6CAr@@QAEAAV0@E@Z PROC NEAR				; CAr::operator<<, COMDAT
; _this$ = ecx

; 107  : 	{ CheckBuf( sizeof(BYTE) );

  00000	56		 push	 esi
  00001	6a 01		 push	 1
  00003	8b f1		 mov	 esi, ecx
  00005	e8 00 00 00 00	 call	 ?CheckBuf@CAr@@QAEXI@Z	; CAr::CheckBuf

; 108  : 		*(UNALIGNED BYTE*)m_lpBufCur = by; m_lpBufCur += sizeof(BYTE); return *this; }

  0000a	8b 46 08	 mov	 eax, DWORD PTR [esi+8]
  0000d	8a 4c 24 08	 mov	 cl, BYTE PTR _by$[esp]
  00011	88 08		 mov	 BYTE PTR [eax], cl
  00013	ff 46 08	 inc	 DWORD PTR [esi+8]
  00016	8b c6		 mov	 eax, esi
  00018	5e		 pop	 esi
  00019	c2 04 00	 ret	 4
??6CAr@@QAEAAV0@E@Z ENDP				; CAr::operator<<
_TEXT	ENDS
PUBLIC	??6CAr@@QAEAAV0@J@Z				; CAr::operator<<
; Function compile flags: /Ogty
;	COMDAT ??6CAr@@QAEAAV0@J@Z
_TEXT	SEGMENT
_l$ = 8							; size = 4
??6CAr@@QAEAAV0@J@Z PROC NEAR				; CAr::operator<<, COMDAT
; _this$ = ecx

; 113  : 	{ CheckBuf( sizeof(LONG) );

  00000	56		 push	 esi
  00001	6a 04		 push	 4
  00003	8b f1		 mov	 esi, ecx
  00005	e8 00 00 00 00	 call	 ?CheckBuf@CAr@@QAEXI@Z	; CAr::CheckBuf

; 114  : 		*(UNALIGNED LONG*)m_lpBufCur = l; m_lpBufCur += sizeof(LONG); return *this; }

  0000a	8b 46 08	 mov	 eax, DWORD PTR [esi+8]
  0000d	8b 4c 24 08	 mov	 ecx, DWORD PTR _l$[esp]
  00011	89 08		 mov	 DWORD PTR [eax], ecx
  00013	83 46 08 04	 add	 DWORD PTR [esi+8], 4
  00017	8b c6		 mov	 eax, esi
  00019	5e		 pop	 esi
  0001a	c2 04 00	 ret	 4
??6CAr@@QAEAAV0@J@Z ENDP				; CAr::operator<<
_TEXT	ENDS
PUBLIC	??5CAr@@QAEAAV0@AAE@Z				; CAr::operator>>
; Function compile flags: /Ogty
;	COMDAT ??5CAr@@QAEAAV0@AAE@Z
_TEXT	SEGMENT
_by$ = 8						; size = 4
??5CAr@@QAEAAV0@AAE@Z PROC NEAR				; CAr::operator>>, COMDAT
; _this$ = ecx

; 142  : 	{	CAR_SAFE_READ( BYTE, by );	}

  00000	8b c1		 mov	 eax, ecx
  00002	8b 48 08	 mov	 ecx, DWORD PTR [eax+8]
  00005	56		 push	 esi
  00006	8b 70 0c	 mov	 esi, DWORD PTR [eax+12]
  00009	8d 51 01	 lea	 edx, DWORD PTR [ecx+1]
  0000c	3b d6		 cmp	 edx, esi
  0000e	5e		 pop	 esi
  0000f	77 0e		 ja	 SHORT $L205448
  00011	8a 09		 mov	 cl, BYTE PTR [ecx]
  00013	8b 54 24 04	 mov	 edx, DWORD PTR _by$[esp-4]
  00017	88 0a		 mov	 BYTE PTR [edx], cl
  00019	ff 40 08	 inc	 DWORD PTR [eax+8]
  0001c	c2 04 00	 ret	 4
$L205448:
  0001f	8b 4c 24 04	 mov	 ecx, DWORD PTR _by$[esp-4]
  00023	c6 01 00	 mov	 BYTE PTR [ecx], 0
  00026	8b 50 0c	 mov	 edx, DWORD PTR [eax+12]
  00029	89 50 08	 mov	 DWORD PTR [eax+8], edx
  0002c	c2 04 00	 ret	 4
??5CAr@@QAEAAV0@AAE@Z ENDP				; CAr::operator>>
_TEXT	ENDS
PUBLIC	??5CAr@@QAEAAV0@AAJ@Z				; CAr::operator>>
; Function compile flags: /Ogty
;	COMDAT ??5CAr@@QAEAAV0@AAJ@Z
_TEXT	SEGMENT
_l$ = 8							; size = 4
??5CAr@@QAEAAV0@AAJ@Z PROC NEAR				; CAr::operator>>, COMDAT
; _this$ = ecx

; 152  : 	{	CAR_SAFE_READ( LONG, l );	}

  00000	8b c1		 mov	 eax, ecx
  00002	8b 48 08	 mov	 ecx, DWORD PTR [eax+8]
  00005	56		 push	 esi
  00006	8b 70 0c	 mov	 esi, DWORD PTR [eax+12]
  00009	8d 51 04	 lea	 edx, DWORD PTR [ecx+4]
  0000c	3b d6		 cmp	 edx, esi
  0000e	5e		 pop	 esi
  0000f	77 0f		 ja	 SHORT $L205498
  00011	8b 09		 mov	 ecx, DWORD PTR [ecx]
  00013	8b 54 24 04	 mov	 edx, DWORD PTR _l$[esp-4]
  00017	89 0a		 mov	 DWORD PTR [edx], ecx
  00019	83 40 08 04	 add	 DWORD PTR [eax+8], 4
  0001d	c2 04 00	 ret	 4
$L205498:
  00020	8b 4c 24 04	 mov	 ecx, DWORD PTR _l$[esp-4]
  00024	c7 01 00 00 00
	00		 mov	 DWORD PTR [ecx], 0
  0002a	8b 50 0c	 mov	 edx, DWORD PTR [eax+12]
  0002d	89 50 08	 mov	 DWORD PTR [eax+8], edx
  00030	c2 04 00	 ret	 4
??5CAr@@QAEAAV0@AAJ@Z ENDP				; CAr::operator>>
_TEXT	ENDS
PUBLIC	?GetOffset@CAr@@QAEKXZ				; CAr::GetOffset
; Function compile flags: /Ogty
;	COMDAT ?GetOffset@CAr@@QAEKXZ
_TEXT	SEGMENT
?GetOffset@CAr@@QAEKXZ PROC NEAR			; CAr::GetOffset, COMDAT
; _this$ = ecx

; 190  : 	ASSERT( IsStoring() );
; 191  : 	return( m_lpBufCur - m_lpBufStart );

  00000	8b 41 08	 mov	 eax, DWORD PTR [ecx+8]
  00003	2b 41 10	 sub	 eax, DWORD PTR [ecx+16]

; 192  : }

  00006	c3		 ret	 0
?GetOffset@CAr@@QAEKXZ ENDP				; CAr::GetOffset
_TEXT	ENDS
PUBLIC	?SetExpired@CPocket@@QAEXH@Z			; CPocket::SetExpired
; Function compile flags: /Ogty
; File c:\documents and settings\test\mes documents\source\virtuos_v17\build\program\_common\pocket.h
;	COMDAT ?SetExpired@CPocket@@QAEXH@Z
_TEXT	SEGMENT
_bExpired$ = 8						; size = 4
?SetExpired@CPocket@@QAEXH@Z PROC NEAR			; CPocket::SetExpired, COMDAT
; _this$ = ecx

; 18   : 	void	SetExpired( BOOL bExpired )	{	m_bExpired	= bExpired;		}

  00000	8b 44 24 04	 mov	 eax, DWORD PTR _bExpired$[esp-4]
  00004	89 41 14	 mov	 DWORD PTR [ecx+20], eax
  00007	c2 04 00	 ret	 4
?SetExpired@CPocket@@QAEXH@Z ENDP			; CPocket::SetExpired
_TEXT	ENDS
PUBLIC	?IsExpired@CPocket@@QAEHXZ			; CPocket::IsExpired
; Function compile flags: /Ogty
;	COMDAT ?IsExpired@CPocket@@QAEHXZ
_TEXT	SEGMENT
?IsExpired@CPocket@@QAEHXZ PROC NEAR			; CPocket::IsExpired, COMDAT
; _this$ = ecx

; 19   : 	BOOL	IsExpired( void )	{	return m_bExpired;	}

  00000	8b 41 14	 mov	 eax, DWORD PTR [ecx+20]
  00003	c3		 ret	 0
?IsExpired@CPocket@@QAEHXZ ENDP				; CPocket::IsExpired
_TEXT	ENDS
PUBLIC	?SetExpirationDate@CPocket@@QAEXJ@Z		; CPocket::SetExpirationDate
; Function compile flags: /Ogty
;	COMDAT ?SetExpirationDate@CPocket@@QAEXJ@Z
_TEXT	SEGMENT
_tExpirationDate$ = 8					; size = 4
?SetExpirationDate@CPocket@@QAEXJ@Z PROC NEAR		; CPocket::SetExpirationDate, COMDAT
; _this$ = ecx

; 20   : 	void	SetExpirationDate( time_t tExpirationDate )	{	m_tExpirationDate	= tExpirationDate;		}

  00000	8b 44 24 04	 mov	 eax, DWORD PTR _tExpirationDate$[esp-4]
  00004	89 41 18	 mov	 DWORD PTR [ecx+24], eax
  00007	c2 04 00	 ret	 4
?SetExpirationDate@CPocket@@QAEXJ@Z ENDP		; CPocket::SetExpirationDate
_TEXT	ENDS
PUBLIC	?GetExpirationDate@CPocket@@QAEJXZ		; CPocket::GetExpirationDate
; Function compile flags: /Ogty
;	COMDAT ?GetExpirationDate@CPocket@@QAEJXZ
_TEXT	SEGMENT
?GetExpirationDate@CPocket@@QAEJXZ PROC NEAR		; CPocket::GetExpirationDate, COMDAT
; _this$ = ecx

; 21   : 	time_t	GetExpirationDate( void )	{	return m_tExpirationDate;	}

  00000	8b 41 18	 mov	 eax, DWORD PTR [ecx+24]
  00003	c3		 ret	 0
?GetExpirationDate@CPocket@@QAEJXZ ENDP			; CPocket::GetExpirationDate
_TEXT	ENDS
PUBLIC	??0_PocketController_Result@@QAE@HHH@Z		; _PocketController_Result::_PocketController_Result
; Function compile flags: /Ogty
;	COMDAT ??0_PocketController_Result@@QAE@HHH@Z
_TEXT	SEGMENT
_p$ = 8							; size = 4
_i$ = 12						; size = 4
_n$ = 16						; size = 4
??0_PocketController_Result@@QAE@HHH@Z PROC NEAR	; _PocketController_Result::_PocketController_Result, COMDAT
; _this$ = ecx

; 41   : 	{
; 42   : 		nPocket		= p;
; 43   : 		nItem	= i;

  00000	8b 54 24 08	 mov	 edx, DWORD PTR _i$[esp-4]
  00004	8b c1		 mov	 eax, ecx
  00006	8b 4c 24 04	 mov	 ecx, DWORD PTR _p$[esp-4]
  0000a	89 08		 mov	 DWORD PTR [eax], ecx

; 44   : 		nNum	= n;

  0000c	8b 4c 24 0c	 mov	 ecx, DWORD PTR _n$[esp-4]
  00010	89 50 04	 mov	 DWORD PTR [eax+4], edx
  00013	89 48 08	 mov	 DWORD PTR [eax+8], ecx

; 45   : 	}

  00016	c2 0c 00	 ret	 12			; 0000000cH
??0_PocketController_Result@@QAE@HHH@Z ENDP		; _PocketController_Result::_PocketController_Result
_TEXT	ENDS
PUBLIC	?IsAvailable@CPocketController@@QAEHHH@Z	; CPocketController::IsAvailable
; Function compile flags: /Ogty
;	COMDAT ?IsAvailable@CPocketController@@QAEHHH@Z
_TEXT	SEGMENT
_nPocket$ = 8						; size = 4
_bExpiration$ = 12					; size = 4
?IsAvailable@CPocketController@@QAEHHH@Z PROC NEAR	; CPocketController::IsAvailable, COMDAT
; _this$ = ecx

; 70   : 		{	return( m_apPocket[nPocket] && ( !bExpiration || !m_apPocket[nPocket]->IsExpired() ) );		}

  00000	8b 44 24 04	 mov	 eax, DWORD PTR _nPocket$[esp-4]
  00004	8b 44 81 08	 mov	 eax, DWORD PTR [ecx+eax*4+8]
  00008	85 c0		 test	 eax, eax
  0000a	74 17		 je	 SHORT $L254542
  0000c	8b 4c 24 08	 mov	 ecx, DWORD PTR _bExpiration$[esp-4]
  00010	85 c9		 test	 ecx, ecx
  00012	74 07		 je	 SHORT $L254541
  00014	8b 48 14	 mov	 ecx, DWORD PTR [eax+20]
  00017	85 c9		 test	 ecx, ecx
  00019	75 08		 jne	 SHORT $L254542
$L254541:
  0001b	b8 01 00 00 00	 mov	 eax, 1
  00020	c2 08 00	 ret	 8
$L254542:
  00023	33 c0		 xor	 eax, eax
  00025	c2 08 00	 ret	 8
?IsAvailable@CPocketController@@QAEHHH@Z ENDP		; CPocketController::IsAvailable
_TEXT	ENDS
PUBLIC	?IsNPC@CMover@@QAEHXZ				; CMover::IsNPC
; Function compile flags: /Ogty
; File c:\documents and settings\test\mes documents\source\virtuos_v17\build\program\_common\mover.h
;	COMDAT ?IsNPC@CMover@@QAEHXZ
_TEXT	SEGMENT
?IsNPC@CMover@@QAEHXZ PROC NEAR				; CMover::IsNPC, COMDAT
; _this$ = ecx

; 1041 : 	BOOL			IsNPC()				{ return !m_bPlayer; }

  00000	8b 91 34 02 00
	00		 mov	 edx, DWORD PTR [ecx+564]
  00006	33 c0		 xor	 eax, eax
  00008	85 d2		 test	 edx, edx
  0000a	0f 94 c0	 sete	 al
  0000d	c3		 ret	 0
?IsNPC@CMover@@QAEHXZ ENDP				; CMover::IsNPC
_TEXT	ENDS
PUBLIC	?size@?$basic_string@DU?$char_traits@D@std@@V?$allocator@D@2@@std@@QBEIXZ ; std::basic_string<char,std::char_traits<char>,std::allocator<char> >::size
; Function compile flags: /Ogty
; File c:\program files\microsoft visual studio .net 2003\vc7\include\xstring
;	COMDAT ?size@?$basic_string@DU?$char_traits@D@std@@V?$allocator@D@2@@std@@QBEIXZ
_TEXT	SEGMENT
?size@?$basic_string@DU?$char_traits@D@std@@V?$allocator@D@2@@std@@QBEIXZ PROC NEAR ; std::basic_string<char,std::char_traits<char>,std::allocator<char> >::size, COMDAT
; _this$ = ecx

; 1109 : 		return (_Mysize);

  00000	8b 41 14	 mov	 eax, DWORD PTR [ecx+20]

; 1110 : 		}

  00003	c3		 ret	 0
?size@?$basic_string@DU?$char_traits@D@std@@V?$allocator@D@2@@std@@QBEIXZ ENDP ; std::basic_string<char,std::char_traits<char>,std::allocator<char> >::size
_TEXT	ENDS
PUBLIC	?GetSize@?$CFixedArray@UItemProp@@@@QAEHXZ	; CFixedArray<ItemProp>::GetSize
; Function compile flags: /Ogty
; File c:\documents and settings\test\mes documents\source\virtuos_v17\build\program\_common\data.h
;	COMDAT ?GetSize@?$CFixedArray@UItemProp@@@@QAEHXZ
_TEXT	SEGMENT
?GetSize@?$CFixedArray@UItemProp@@@@QAEHXZ PROC NEAR	; CFixedArray<ItemProp>::GetSize, COMDAT
; _this$ = ecx

; 221  : 	int  GetSize() { return m_nMaxIndex; }

  00000	8b 41 18	 mov	 eax, DWORD PTR [ecx+24]
  00003	c3		 ret	 0
?GetSize@?$CFixedArray@UItemProp@@@@QAEHXZ ENDP		; CFixedArray<ItemProp>::GetSize
_TEXT	ENDS
PUBLIC	?_Myptr@?$basic_string@DU?$char_traits@D@std@@V?$allocator@D@2@@std@@QBEPBDXZ ; std::basic_string<char,std::char_traits<char>,std::allocator<char> >::_Myptr
; Function compile flags: /Ogty
; File c:\program files\microsoft visual studio .net 2003\vc7\include\xstring
;	COMDAT ?_Myptr@?$basic_string@DU?$char_traits@D@std@@V?$allocator@D@2@@std@@QBEPBDXZ
_TEXT	SEGMENT
?_Myptr@?$basic_string@DU?$char_traits@D@std@@V?$allocator@D@2@@std@@QBEPBDXZ PROC NEAR ; std::basic_string<char,std::char_traits<char>,std::allocator<char> >::_Myptr, COMDAT
; _this$ = ecx

; 1537 : 		return (_BUF_SIZE <= _Myres ? _Bx._Ptr : _Bx._Buf);

  00000	83 79 18 10	 cmp	 DWORD PTR [ecx+24], 16	; 00000010H
  00004	72 04		 jb	 SHORT $L254560
  00006	8b 41 04	 mov	 eax, DWORD PTR [ecx+4]

; 1538 : 		}

  00009	c3		 ret	 0
$L254560:

; 1537 : 		return (_BUF_SIZE <= _Myres ? _Bx._Ptr : _Bx._Buf);

  0000a	8d 41 04	 lea	 eax, DWORD PTR [ecx+4]

; 1538 : 		}

  0000d	c3		 ret	 0
?_Myptr@?$basic_string@DU?$char_traits@D@std@@V?$allocator@D@2@@std@@QBEPBDXZ ENDP ; std::basic_string<char,std::char_traits<char>,std::allocator<char> >::_Myptr
_TEXT	ENDS
PUBLIC	??0?$allocator@D@std@@QAE@XZ			; std::allocator<char>::allocator<char>
; Function compile flags: /Ogty
; File c:\program files\microsoft visual studio .net 2003\vc7\include\xmemory
;	COMDAT ??0?$allocator@D@std@@QAE@XZ
_TEXT	SEGMENT
??0?$allocator@D@std@@QAE@XZ PROC NEAR			; std::allocator<char>::allocator<char>, COMDAT
; _this$ = ecx

; 111  : 	allocator()

  00000	8b c1		 mov	 eax, ecx

; 112  : 		{	// construct default allocator (do nothing)
; 113  : 		}

  00002	c3		 ret	 0
??0?$allocator@D@std@@QAE@XZ ENDP			; std::allocator<char>::allocator<char>
_TEXT	ENDS
PUBLIC	??0?$allocator@D@std@@QAE@ABV01@@Z		; std::allocator<char>::allocator<char>
; Function compile flags: /Ogty
;	COMDAT ??0?$allocator@D@std@@QAE@ABV01@@Z
_TEXT	SEGMENT
___formal$ = 8						; size = 4
??0?$allocator@D@std@@QAE@ABV01@@Z PROC NEAR		; std::allocator<char>::allocator<char>, COMDAT
; _this$ = ecx

; 115  : 	allocator(const allocator<_Ty>&)

  00000	8b c1		 mov	 eax, ecx

; 116  : 		{	// construct by copying (do nothing)
; 117  : 		}

  00002	c2 04 00	 ret	 4
??0?$allocator@D@std@@QAE@ABV01@@Z ENDP			; std::allocator<char>::allocator<char>
_TEXT	ENDS
PUBLIC	?_Myptr@?$basic_string@DU?$char_traits@D@std@@V?$allocator@D@2@@std@@QAEPADXZ ; std::basic_string<char,std::char_traits<char>,std::allocator<char> >::_Myptr
; Function compile flags: /Ogty
; File c:\program files\microsoft visual studio .net 2003\vc7\include\xstring
;	COMDAT ?_Myptr@?$basic_string@DU?$char_traits@D@std@@V?$allocator@D@2@@std@@QAEPADXZ
_TEXT	SEGMENT
?_Myptr@?$basic_string@DU?$char_traits@D@std@@V?$allocator@D@2@@std@@QAEPADXZ PROC NEAR ; std::basic_string<char,std::char_traits<char>,std::allocator<char> >::_Myptr, COMDAT
; _this$ = ecx

; 1532 : 		return (_BUF_SIZE <= _Myres ? _Bx._Ptr : _Bx._Buf);

  00000	83 79 18 10	 cmp	 DWORD PTR [ecx+24], 16	; 00000010H
  00004	72 04		 jb	 SHORT $L254571
  00006	8b 41 04	 mov	 eax, DWORD PTR [ecx+4]

; 1533 : 		}

  00009	c3		 ret	 0
$L254571:

; 1532 : 		return (_BUF_SIZE <= _Myres ? _Bx._Ptr : _Bx._Buf);

  0000a	8d 41 04	 lea	 eax, DWORD PTR [ecx+4]

; 1533 : 		}

  0000d	c3		 ret	 0
?_Myptr@?$basic_string@DU?$char_traits@D@std@@V?$allocator@D@2@@std@@QAEPADXZ ENDP ; std::basic_string<char,std::char_traits<char>,std::allocator<char> >::_Myptr
_TEXT	ENDS
PUBLIC	?deallocate@?$allocator@D@std@@QAEXPADI@Z	; std::allocator<char>::deallocate
; Function compile flags: /Ogty
; File c:\program files\microsoft visual studio .net 2003\vc7\include\xmemory
;	COMDAT ?deallocate@?$allocator@D@std@@QAEXPADI@Z
_TEXT	SEGMENT
__Ptr$ = 8						; size = 4
___formal$ = 12						; size = 4
?deallocate@?$allocator@D@std@@QAEXPADI@Z PROC NEAR	; std::allocator<char>::deallocate, COMDAT
; _this$ = ecx

; 132  : 		operator delete(_Ptr);

  00000	8b 44 24 04	 mov	 eax, DWORD PTR __Ptr$[esp-4]
  00004	50		 push	 eax
  00005	e8 00 00 00 00	 call	 ??3@YAXPAX@Z		; operator delete
  0000a	59		 pop	 ecx

; 133  : 		}

  0000b	c2 08 00	 ret	 8
?deallocate@?$allocator@D@std@@QAEXPADI@Z ENDP		; std::allocator<char>::deallocate
_TEXT	ENDS
PUBLIC	?_Inside@?$basic_string@DU?$char_traits@D@std@@V?$allocator@D@2@@std@@IAE_NPBD@Z ; std::basic_string<char,std::char_traits<char>,std::allocator<char> >::_Inside
; Function compile flags: /Ogty
; File c:\program files\microsoft visual studio .net 2003\vc7\include\xstring
;	COMDAT ?_Inside@?$basic_string@DU?$char_traits@D@std@@V?$allocator@D@2@@std@@IAE_NPBD@Z
_TEXT	SEGMENT
__Ptr$ = 8						; size = 4
?_Inside@?$basic_string@DU?$char_traits@D@std@@V?$allocator@D@2@@std@@IAE_NPBD@Z PROC NEAR ; std::basic_string<char,std::char_traits<char>,std::allocator<char> >::_Inside, COMDAT
; _this$ = ecx

; 1494 : 		{	// test if _Ptr points inside string

  00000	56		 push	 esi

; 1495 : 		if (_Ptr < _Myptr() || _Myptr() + _Mysize <= _Ptr)

  00001	8b 71 18	 mov	 esi, DWORD PTR [ecx+24]
  00004	83 fe 10	 cmp	 esi, 16			; 00000010H
  00007	57		 push	 edi
  00008	8d 41 04	 lea	 eax, DWORD PTR [ecx+4]
  0000b	72 04		 jb	 SHORT $L254584
  0000d	8b 10		 mov	 edx, DWORD PTR [eax]
  0000f	eb 02		 jmp	 SHORT $L254585
$L254584:
  00011	8b d0		 mov	 edx, eax
$L254585:
  00013	8b 7c 24 0c	 mov	 edi, DWORD PTR __Ptr$[esp+4]
  00017	3b fa		 cmp	 edi, edx
  00019	72 17		 jb	 SHORT $L222788
  0001b	83 fe 10	 cmp	 esi, 16			; 00000010H
  0001e	72 02		 jb	 SHORT $L254592
  00020	8b 00		 mov	 eax, DWORD PTR [eax]
$L254592:
  00022	8b 49 14	 mov	 ecx, DWORD PTR [ecx+20]
  00025	03 c8		 add	 ecx, eax
  00027	3b cf		 cmp	 ecx, edi
  00029	76 07		 jbe	 SHORT $L222788
  0002b	5f		 pop	 edi

; 1497 : 		else
; 1498 : 			return (true);

  0002c	b0 01		 mov	 al, 1
  0002e	5e		 pop	 esi

; 1499 : 		}

  0002f	c2 04 00	 ret	 4
$L222788:
  00032	5f		 pop	 edi

; 1496 : 			return (false);	// don't ask

  00033	32 c0		 xor	 al, al
  00035	5e		 pop	 esi

; 1499 : 		}

  00036	c2 04 00	 ret	 4
?_Inside@?$basic_string@DU?$char_traits@D@std@@V?$allocator@D@2@@std@@IAE_NPBD@Z ENDP ; std::basic_string<char,std::char_traits<char>,std::allocator<char> >::_Inside
_TEXT	ENDS
PUBLIC	?max_size@?$allocator@D@std@@QBEIXZ		; std::allocator<char>::max_size
; Function compile flags: /Ogty
; File c:\program files\microsoft visual studio .net 2003\vc7\include\xmemory
;	COMDAT ?max_size@?$allocator@D@std@@QBEIXZ
_TEXT	SEGMENT
?max_size@?$allocator@D@std@@QBEIXZ PROC NEAR		; std::allocator<char>::max_size, COMDAT
; _this$ = ecx

; 157  : 		_SIZT _Count = (_SIZT)(-1) / sizeof (_Ty);
; 158  : 		return (0 < _Count ? _Count : 1);

  00000	83 c8 ff	 or	 eax, -1

; 159  : 		}

  00003	c3		 ret	 0
?max_size@?$allocator@D@std@@QBEIXZ ENDP		; std::allocator<char>::max_size
_TEXT	ENDS
PUBLIC	?GetAt@?$CFixedArray@UItemProp@@@@QAEPAUItemProp@@K@Z ; CFixedArray<ItemProp>::GetAt
; Function compile flags: /Ogty
; File c:\documents and settings\test\mes documents\source\virtuos_v17\build\program\_common\data.h
;	COMDAT ?GetAt@?$CFixedArray@UItemProp@@@@QAEPAUItemProp@@K@Z
_TEXT	SEGMENT
_dwIndex$ = 8						; size = 4
?GetAt@?$CFixedArray@UItemProp@@@@QAEPAUItemProp@@K@Z PROC NEAR ; CFixedArray<ItemProp>::GetAt, COMDAT
; _this$ = ecx

; 270  : 	if( dwIndex >= (DWORD)m_nMaxIndex )

  00000	8b 44 24 04	 mov	 eax, DWORD PTR _dwIndex$[esp-4]
  00004	3b 41 18	 cmp	 eax, DWORD PTR [ecx+24]
  00007	72 05		 jb	 SHORT $L224299

; 271  : 		return NULL;

  00009	33 c0		 xor	 eax, eax

; 273  : }

  0000b	c2 04 00	 ret	 4
$L224299:

; 272  : 	return (T*) m_apOffset[ dwIndex ];

  0000e	8b 49 08	 mov	 ecx, DWORD PTR [ecx+8]
  00011	8b 04 81	 mov	 eax, DWORD PTR [ecx+eax*4]

; 273  : }

  00014	c2 04 00	 ret	 4
?GetAt@?$CFixedArray@UItemProp@@@@QAEPAUItemProp@@K@Z ENDP ; CFixedArray<ItemProp>::GetAt
_TEXT	ENDS
PUBLIC	??1?$CItemContainer@VCItemElem@@@@UAE@XZ	; CItemContainer<CItemElem>::~CItemContainer<CItemElem>
; Function compile flags: /Ogty
; File c:\documents and settings\test\mes documents\source\virtuos_v17\build\program\_common\item.h
;	COMDAT ??1?$CItemContainer@VCItemElem@@@@UAE@XZ
_TEXT	SEGMENT
??1?$CItemContainer@VCItemElem@@@@UAE@XZ PROC NEAR	; CItemContainer<CItemElem>::~CItemContainer<CItemElem>, COMDAT
; _this$ = ecx

; 476  : {

  00000	56		 push	 esi
  00001	8b f1		 mov	 esi, ecx

; 477  : 	SAFE_DELETE_ARRAY( m_apItem );

  00003	8b 4e 10	 mov	 ecx, DWORD PTR [esi+16]
  00006	85 c9		 test	 ecx, ecx
  00008	c7 06 00 00 00
	00		 mov	 DWORD PTR [esi], OFFSET FLAT:??_7?$CItemContainer@VCItemElem@@@@6B@
  0000e	74 22		 je	 SHORT $L224407
  00010	8b 51 fc	 mov	 edx, DWORD PTR [ecx-4]
  00013	85 d2		 test	 edx, edx
  00015	8d 41 fc	 lea	 eax, DWORD PTR [ecx-4]
  00018	74 08		 je	 SHORT $L254607
  0001a	8b 01		 mov	 eax, DWORD PTR [ecx]
  0001c	6a 03		 push	 3
  0001e	ff 10		 call	 DWORD PTR [eax]
  00020	eb 09		 jmp	 SHORT $L254608
$L254607:
  00022	50		 push	 eax
  00023	e8 00 00 00 00	 call	 ??_V@YAXPAX@Z		; operator delete[]
  00028	83 c4 04	 add	 esp, 4
$L254608:
  0002b	c7 46 10 00 00
	00 00		 mov	 DWORD PTR [esi+16], 0
$L224407:

; 478  : 	SAFE_DELETE_ARRAY( m_apIndex );

  00032	8b 46 04	 mov	 eax, DWORD PTR [esi+4]
  00035	85 c0		 test	 eax, eax
  00037	74 10		 je	 SHORT $L224412
  00039	50		 push	 eax
  0003a	e8 00 00 00 00	 call	 ??_V@YAXPAX@Z		; operator delete[]
  0003f	83 c4 04	 add	 esp, 4
  00042	c7 46 04 00 00
	00 00		 mov	 DWORD PTR [esi+4], 0
$L224412:
  00049	5e		 pop	 esi

; 479  : }

  0004a	c3		 ret	 0
??1?$CItemContainer@VCItemElem@@@@UAE@XZ ENDP		; CItemContainer<CItemElem>::~CItemContainer<CItemElem>
_TEXT	ENDS
PUBLIC	?GetAtId@?$CItemContainer@VCItemElem@@@@QAEPAVCItemElem@@K@Z ; CItemContainer<CItemElem>::GetAtId
; Function compile flags: /Ogty
;	COMDAT ?GetAtId@?$CItemContainer@VCItemElem@@@@QAEPAVCItemElem@@K@Z
_TEXT	SEGMENT
_dwId$ = 8						; size = 4
?GetAtId@?$CItemContainer@VCItemElem@@@@QAEPAVCItemElem@@K@Z PROC NEAR ; CItemContainer<CItemElem>::GetAtId, COMDAT
; _this$ = ecx

; 518  : 	if( dwId >= (DWORD)( GetMax() ) ) return NULL;

  00000	8b 44 24 04	 mov	 eax, DWORD PTR _dwId$[esp-4]
  00004	3b 41 0c	 cmp	 eax, DWORD PTR [ecx+12]
  00007	72 05		 jb	 SHORT $L224421
  00009	33 c0		 xor	 eax, eax

; 521  : 		return NULL;
; 522  : 	return pItemElem;
; 523  : }

  0000b	c2 04 00	 ret	 4
$L224421:

; 519  : 	T* pItemElem = &m_apItem[ dwId ];

  0000e	8b 51 10	 mov	 edx, DWORD PTR [ecx+16]
  00011	69 c0 b8 00 00
	00		 imul	 eax, 184		; 000000b8H
  00017	03 c2		 add	 eax, edx
  00019	8b c8		 mov	 ecx, eax

; 520  : 	if( pItemElem->IsEmpty() ) 

  0001b	8b 41 0c	 mov	 eax, DWORD PTR [ecx+12]
  0001e	f7 d8		 neg	 eax
  00020	1b c0		 sbb	 eax, eax
  00022	23 c1		 and	 eax, ecx

; 521  : 		return NULL;
; 522  : 	return pItemElem;
; 523  : }

  00024	c2 04 00	 ret	 4
?GetAtId@?$CItemContainer@VCItemElem@@@@QAEPAVCItemElem@@K@Z ENDP ; CItemContainer<CItemElem>::GetAtId
_TEXT	ENDS
PUBLIC	??$_Allocate@D@std@@YAPADIPAD@Z			; std::_Allocate<char>
; Function compile flags: /Ogty
; File c:\program files\microsoft visual studio .net 2003\vc7\include\xmemory
;	COMDAT ??$_Allocate@D@std@@YAPADIPAD@Z
_TEXT	SEGMENT
__Count$ = 8						; size = 4
___formal$ = 12						; size = 4
??$_Allocate@D@std@@YAPADIPAD@Z PROC NEAR		; std::_Allocate<char>, COMDAT

; 34   : 	return ((_Ty _FARQ *)operator new(_Count * sizeof (_Ty)));

  00000	8b 44 24 04	 mov	 eax, DWORD PTR __Count$[esp-4]
  00004	50		 push	 eax
  00005	e8 00 00 00 00	 call	 ??2@YAPAXI@Z		; operator new
  0000a	83 c4 04	 add	 esp, 4

; 35   : 	}

  0000d	c3		 ret	 0
??$_Allocate@D@std@@YAPADIPAD@Z ENDP			; std::_Allocate<char>
; Function compile flags: /Ogty
_TEXT	ENDS
;	COMDAT ??_G?$CItemContainer@VCItemElem@@@@UAEPAXI@Z
_TEXT	SEGMENT
___flags$ = 8						; size = 4
??_G?$CItemContainer@VCItemElem@@@@UAEPAXI@Z PROC NEAR	; CItemContainer<CItemElem>::`scalar deleting destructor', COMDAT
; _this$ = ecx
  00000	56		 push	 esi
  00001	8b f1		 mov	 esi, ecx
  00003	8b 4e 10	 mov	 ecx, DWORD PTR [esi+16]
  00006	85 c9		 test	 ecx, ecx
  00008	c7 06 00 00 00
	00		 mov	 DWORD PTR [esi], OFFSET FLAT:??_7?$CItemContainer@VCItemElem@@@@6B@
  0000e	74 22		 je	 SHORT $L254638
  00010	8b 51 fc	 mov	 edx, DWORD PTR [ecx-4]
  00013	85 d2		 test	 edx, edx
  00015	8d 41 fc	 lea	 eax, DWORD PTR [ecx-4]
  00018	74 08		 je	 SHORT $L254644
  0001a	8b 01		 mov	 eax, DWORD PTR [ecx]
  0001c	6a 03		 push	 3
  0001e	ff 10		 call	 DWORD PTR [eax]
  00020	eb 09		 jmp	 SHORT $L254645
$L254644:
  00022	50		 push	 eax
  00023	e8 00 00 00 00	 call	 ??_V@YAXPAX@Z		; operator delete[]
  00028	83 c4 04	 add	 esp, 4
$L254645:
  0002b	c7 46 10 00 00
	00 00		 mov	 DWORD PTR [esi+16], 0
$L254638:
  00032	8b 46 04	 mov	 eax, DWORD PTR [esi+4]
  00035	85 c0		 test	 eax, eax
  00037	74 10		 je	 SHORT $L254639
  00039	50		 push	 eax
  0003a	e8 00 00 00 00	 call	 ??_V@YAXPAX@Z		; operator delete[]
  0003f	83 c4 04	 add	 esp, 4
  00042	c7 46 04 00 00
	00 00		 mov	 DWORD PTR [esi+4], 0
$L254639:
  00049	f6 44 24 08 01	 test	 BYTE PTR ___flags$[esp], 1
  0004e	74 09		 je	 SHORT $L254649
  00050	56		 push	 esi
  00051	e8 00 00 00 00	 call	 ??3@YAXPAX@Z		; operator delete
  00056	83 c4 04	 add	 esp, 4
$L254649:
  00059	8b c6		 mov	 eax, esi
  0005b	5e		 pop	 esi
  0005c	c2 04 00	 ret	 4
??_G?$CItemContainer@VCItemElem@@@@UAEPAXI@Z ENDP	; CItemContainer<CItemElem>::`scalar deleting destructor'
_TEXT	ENDS
PUBLIC	??0CPocket@@QAE@XZ				; CPocket::CPocket
PUBLIC	??_7CPocket@@6B@				; CPocket::`vftable'
PUBLIC	??_GCPocket@@UAEPAXI@Z				; CPocket::`scalar deleting destructor'
EXTRN	??_ECPocket@@UAEPAXI@Z:NEAR			; CPocket::`vector deleting destructor'
;	COMDAT ??_7CPocket@@6B@
; File c:\documents and settings\test\mes documents\source\virtuos_v17\build\program\_common\item.h
CONST	SEGMENT
??_7CPocket@@6B@ DD FLAT:??_ECPocket@@UAEPAXI@Z		; CPocket::`vftable'
; Function compile flags: /Ogty
; File c:\documents and settings\test\mes documents\source\virtuos_v17\build\program\_common\pocket.cpp
CONST	ENDS
;	COMDAT ??0CPocket@@QAE@XZ
_TEXT	SEGMENT
??0CPocket@@QAE@XZ PROC NEAR				; CPocket::CPocket, COMDAT
; _this$ = ecx

; 12   : {

  00000	8b c1		 mov	 eax, ecx
  00002	33 c9		 xor	 ecx, ecx
  00004	89 48 08	 mov	 DWORD PTR [eax+8], ecx
  00007	89 48 0c	 mov	 DWORD PTR [eax+12], ecx
  0000a	89 48 10	 mov	 DWORD PTR [eax+16], ecx
  0000d	89 48 04	 mov	 DWORD PTR [eax+4], ecx
  00010	c7 00 00 00 00
	00		 mov	 DWORD PTR [eax], OFFSET FLAT:??_7CPocket@@6B@

; 13   : 	m_bExpired	= TRUE;

  00016	c7 40 14 01 00
	00 00		 mov	 DWORD PTR [eax+20], 1

; 14   : 	m_tExpirationDate	= 0;

  0001d	89 48 18	 mov	 DWORD PTR [eax+24], ecx

; 15   : }

  00020	c3		 ret	 0
??0CPocket@@QAE@XZ ENDP					; CPocket::CPocket
_TEXT	ENDS
PUBLIC	??1CPocket@@UAE@XZ				; CPocket::~CPocket
; Function compile flags: /Ogty
;	COMDAT ??1CPocket@@UAE@XZ
_TEXT	SEGMENT
??1CPocket@@UAE@XZ PROC NEAR				; CPocket::~CPocket, COMDAT
; _this$ = ecx

; 18   : {

  00000	56		 push	 esi
  00001	8b f1		 mov	 esi, ecx

; 19   : }

  00003	8b 4e 10	 mov	 ecx, DWORD PTR [esi+16]
  00006	85 c9		 test	 ecx, ecx
  00008	c7 06 00 00 00
	00		 mov	 DWORD PTR [esi], OFFSET FLAT:??_7?$CItemContainer@VCItemElem@@@@6B@
  0000e	74 22		 je	 SHORT $L254671
  00010	8b 51 fc	 mov	 edx, DWORD PTR [ecx-4]
  00013	85 d2		 test	 edx, edx
  00015	8d 41 fc	 lea	 eax, DWORD PTR [ecx-4]
  00018	74 08		 je	 SHORT $L254677
  0001a	8b 01		 mov	 eax, DWORD PTR [ecx]
  0001c	6a 03		 push	 3
  0001e	ff 10		 call	 DWORD PTR [eax]
  00020	eb 09		 jmp	 SHORT $L254678
$L254677:
  00022	50		 push	 eax
  00023	e8 00 00 00 00	 call	 ??_V@YAXPAX@Z		; operator delete[]
  00028	83 c4 04	 add	 esp, 4
$L254678:
  0002b	c7 46 10 00 00
	00 00		 mov	 DWORD PTR [esi+16], 0
$L254671:
  00032	8b 46 04	 mov	 eax, DWORD PTR [esi+4]
  00035	85 c0		 test	 eax, eax
  00037	74 10		 je	 SHORT $L254672
  00039	50		 push	 eax
  0003a	e8 00 00 00 00	 call	 ??_V@YAXPAX@Z		; operator delete[]
  0003f	83 c4 04	 add	 esp, 4
  00042	c7 46 04 00 00
	00 00		 mov	 DWORD PTR [esi+4], 0
$L254672:
  00049	5e		 pop	 esi
  0004a	c3		 ret	 0
??1CPocket@@UAE@XZ ENDP					; CPocket::~CPocket
_TEXT	ENDS
PUBLIC	??1CPocketController@@UAE@XZ			; CPocketController::~CPocketController
; Function compile flags: /Ogty
;	COMDAT ??1CPocketController@@UAE@XZ
_TEXT	SEGMENT
??1CPocketController@@UAE@XZ PROC NEAR			; CPocketController::~CPocketController, COMDAT
; _this$ = ecx

; 66   : {

  00000	c7 01 00 00 00
	00		 mov	 DWORD PTR [ecx], OFFSET FLAT:??_7CPocketController@@6B@

; 67   : 	Clear();

  00006	e9 00 00 00 00	 jmp	 ?Clear@CPocketController@@QAEXXZ ; CPocketController::Clear
??1CPocketController@@UAE@XZ ENDP			; CPocketController::~CPocketController
_TEXT	ENDS
PUBLIC	?GetAtId@CPocketController@@QAEPAVCItemElem@@HHH@Z ; CPocketController::GetAtId
; Function compile flags: /Ogty
;	COMDAT ?GetAtId@CPocketController@@QAEPAVCItemElem@@HHH@Z
_TEXT	SEGMENT
_nPocket$ = 8						; size = 4
_nItem$ = 12						; size = 4
_bExpiration$ = 16					; size = 4
?GetAtId@CPocketController@@QAEPAVCItemElem@@HHH@Z PROC NEAR ; CPocketController::GetAtId, COMDAT
; _this$ = ecx

; 101  : 	if( !IsAvailable( nPocket, bExpiration ) )

  00000	8b 44 24 04	 mov	 eax, DWORD PTR _nPocket$[esp-4]
  00004	8b 4c 81 08	 mov	 ecx, DWORD PTR [ecx+eax*4+8]
  00008	85 c9		 test	 ecx, ecx
  0000a	74 18		 je	 SHORT $L254698
  0000c	8b 44 24 0c	 mov	 eax, DWORD PTR _bExpiration$[esp-4]
  00010	85 c0		 test	 eax, eax
  00012	74 07		 je	 SHORT $L249069
  00014	8b 41 14	 mov	 eax, DWORD PTR [ecx+20]
  00017	85 c0		 test	 eax, eax

; 102  : 		return NULL;

  00019	75 09		 jne	 SHORT $L254698
$L249069:

; 103  : 	return m_apPocket[nPocket]->GetAtId( nItem );

  0001b	8b 44 24 08	 mov	 eax, DWORD PTR _nItem$[esp-4]
  0001f	3b 41 0c	 cmp	 eax, DWORD PTR [ecx+12]
  00022	72 05		 jb	 SHORT $L254712

; 101  : 	if( !IsAvailable( nPocket, bExpiration ) )

$L254698:

; 103  : 	return m_apPocket[nPocket]->GetAtId( nItem );

  00024	33 c0		 xor	 eax, eax

; 104  : }

  00026	c2 0c 00	 ret	 12			; 0000000cH

; 103  : 	return m_apPocket[nPocket]->GetAtId( nItem );

$L254712:
  00029	8b 51 10	 mov	 edx, DWORD PTR [ecx+16]
  0002c	69 c0 b8 00 00
	00		 imul	 eax, 184		; 000000b8H
  00032	03 c2		 add	 eax, edx
  00034	8b c8		 mov	 ecx, eax
  00036	8b 41 0c	 mov	 eax, DWORD PTR [ecx+12]
  00039	f7 d8		 neg	 eax
  0003b	1b c0		 sbb	 eax, eax
  0003d	23 c1		 and	 eax, ecx

; 104  : }

  0003f	c2 0c 00	 ret	 12			; 0000000cH
?GetAtId@CPocketController@@QAEPAVCItemElem@@HHH@Z ENDP	; CPocketController::GetAtId
_TEXT	ENDS
PUBLIC	?RemoveAtId@CPocketController@@QAEHHHH@Z	; CPocketController::RemoveAtId
EXTRN	?AddPocketRemoveItem@CUser@@QAEXHHF@Z:NEAR	; CUser::AddPocketRemoveItem
; Function compile flags: /Ogty
;	COMDAT ?RemoveAtId@CPocketController@@QAEHHHH@Z
_TEXT	SEGMENT
_nPocket$ = 8						; size = 4
_nItem$ = 12						; size = 4
_nNum$ = 16						; size = 4
?RemoveAtId@CPocketController@@QAEHHHH@Z PROC NEAR	; CPocketController::RemoveAtId, COMDAT
; _this$ = ecx

; 169  : 	if( !IsAvailable( nPocket ) )

  00000	8b 44 24 04	 mov	 eax, DWORD PTR _nPocket$[esp-4]
  00004	53		 push	 ebx
  00005	8b d9		 mov	 ebx, ecx
  00007	8b 4c 83 08	 mov	 ecx, DWORD PTR [ebx+eax*4+8]
  0000b	85 c9		 test	 ecx, ecx
  0000d	74 07		 je	 SHORT $L254736
  0000f	8b 41 14	 mov	 eax, DWORD PTR [ecx+20]
  00012	85 c0		 test	 eax, eax
  00014	74 06		 je	 SHORT $L249350
$L254736:

; 170  : 		return FALSE;

  00016	33 c0		 xor	 eax, eax
  00018	5b		 pop	 ebx

; 186  : }

  00019	c2 0c 00	 ret	 12			; 0000000cH
$L249350:

; 171  : 	CItemElem* pItemElem	= m_apPocket[nPocket]->GetAtId( nItem );

  0001c	8b 41 0c	 mov	 eax, DWORD PTR [ecx+12]
  0001f	56		 push	 esi
  00020	57		 push	 edi
  00021	8b 7c 24 14	 mov	 edi, DWORD PTR _nItem$[esp+8]
  00025	3b f8		 cmp	 edi, eax
  00027	73 15		 jae	 SHORT $L254760
  00029	8b 71 10	 mov	 esi, DWORD PTR [ecx+16]
  0002c	8b c7		 mov	 eax, edi
  0002e	69 c0 b8 00 00
	00		 imul	 eax, 184		; 000000b8H
  00034	8b 54 30 0c	 mov	 edx, DWORD PTR [eax+esi+12]
  00038	03 c6		 add	 eax, esi
  0003a	85 d2		 test	 edx, edx

; 172  : 	if( !pItemElem )

  0003c	75 08		 jne	 SHORT $L249352
$L254760:
  0003e	5f		 pop	 edi
  0003f	5e		 pop	 esi

; 173  : 		return FALSE;

  00040	33 c0		 xor	 eax, eax
  00042	5b		 pop	 ebx

; 186  : }

  00043	c2 0c 00	 ret	 12			; 0000000cH
$L249352:

; 174  : 
; 175  : 	if( pItemElem->m_nItemNum > nNum )

  00046	8b 74 24 18	 mov	 esi, DWORD PTR _nNum$[esp+8]

; 176  : 		pItemElem->m_nItemNum	-= nNum;

  0004a	33 d2		 xor	 edx, edx
  0004c	66 8b 90 80 00
	00 00		 mov	 dx, WORD PTR [eax+128]
  00053	55		 push	 ebp
  00054	0f bf ea	 movsx	 ebp, dx
  00057	3b ee		 cmp	 ebp, esi
  00059	5d		 pop	 ebp
  0005a	7e 0b		 jle	 SHORT $L249353
  0005c	2b d6		 sub	 edx, esi
  0005e	66 89 90 80 00
	00 00		 mov	 WORD PTR [eax+128], dx

; 177  : 	else

  00065	eb 06		 jmp	 SHORT $L249354
$L249353:

; 178  : 		m_apPocket[nPocket]->RemoveAtId( nItem );

  00067	57		 push	 edi
  00068	e8 00 00 00 00	 call	 ?RemoveAtId@?$CItemContainer@VCItemElem@@@@QAEXK@Z ; CItemContainer<CItemElem>::RemoveAtId
$L249354:

; 179  : 
; 180  : #ifdef __WORLDSERVER
; 181  : //	if( m_pMover->IsPlayer() )
; 182  : 		( (CUser*)m_pMover )->AddPocketRemoveItem( nPocket, nItem, nNum );

  0006d	8b 4c 24 10	 mov	 ecx, DWORD PTR _nPocket$[esp+8]
  00071	56		 push	 esi
  00072	57		 push	 edi
  00073	51		 push	 ecx
  00074	8b 4b 04	 mov	 ecx, DWORD PTR [ebx+4]
  00077	e8 00 00 00 00	 call	 ?AddPocketRemoveItem@CUser@@QAEXHHF@Z ; CUser::AddPocketRemoveItem
  0007c	5f		 pop	 edi
  0007d	5e		 pop	 esi

; 183  : #endif	// __WORLDSERVER
; 184  : 
; 185  : 	return TRUE;

  0007e	b8 01 00 00 00	 mov	 eax, 1
  00083	5b		 pop	 ebx

; 186  : }

  00084	c2 0c 00	 ret	 12			; 0000000cH
?RemoveAtId@CPocketController@@QAEHHHH@Z ENDP		; CPocketController::RemoveAtId
_TEXT	ENDS
PUBLIC	?RemoveItem@CPocketController@@QAEHKH@Z		; CPocketController::RemoveItem
; Function compile flags: /Ogty
;	COMDAT ?RemoveItem@CPocketController@@QAEHKH@Z
_TEXT	SEGMENT
tv354 = -8						; size = 4
_i$249363 = -4						; size = 4
_dwItemId$ = 8						; size = 4
_nNum$ = 12						; size = 4
?RemoveItem@CPocketController@@QAEHKH@Z PROC NEAR	; CPocketController::RemoveItem, COMDAT
; _this$ = ecx

; 189  : {

  00000	83 ec 08	 sub	 esp, 8
  00003	53		 push	 ebx

; 190  : 	short nRemnant	= nNum;

  00004	8b 5c 24 14	 mov	 ebx, DWORD PTR _nNum$[esp+8]
  00008	55		 push	 ebp
  00009	56		 push	 esi
  0000a	83 c1 08	 add	 ecx, 8
  0000d	57		 push	 edi

; 191  : 	CItemElem* pItemElem	= NULL;
; 192  : 
; 193  : 	for( int i = 0; i < MAX_POCKET; i++ )

  0000e	c7 44 24 14 00
	00 00 00	 mov	 DWORD PTR _i$249363[esp+24], 0
  00016	89 4c 24 10	 mov	 DWORD PTR tv354[esp+24], ecx
  0001a	8d 9b 00 00 00
	00		 npad	 6
$L254809:

; 194  : 	{
; 195  : 		if( IsAvailable( i ) )

  00020	8b 01		 mov	 eax, DWORD PTR [ecx]
  00022	85 c0		 test	 eax, eax
  00024	74 59		 je	 SHORT $L249365
  00026	8b 48 14	 mov	 ecx, DWORD PTR [eax+20]
  00029	85 c9		 test	 ecx, ecx
  0002b	75 52		 jne	 SHORT $L249365

; 196  : 		{
; 197  : 			int nMax	= m_apPocket[i]->GetMax();

  0002d	8b 68 0c	 mov	 ebp, DWORD PTR [eax+12]

; 198  : 			for( int j = 0; j < nMax && nRemnant > 0; j++ )

  00030	33 f6		 xor	 esi, esi
  00032	85 ed		 test	 ebp, ebp
  00034	7e 49		 jle	 SHORT $L249365

; 196  : 		{
; 197  : 			int nMax	= m_apPocket[i]->GetMax();

  00036	33 ff		 xor	 edi, edi
$L254808:

; 198  : 			for( int j = 0; j < nMax && nRemnant > 0; j++ )

  00038	66 85 db	 test	 bx, bx
  0003b	7e 42		 jle	 SHORT $L249365

; 199  : 			{
; 200  : 				pItemElem	= m_apPocket[i]->GetAtId( j ) ;

  0003d	8b 44 24 10	 mov	 eax, DWORD PTR tv354[esp+24]
  00041	8b 08		 mov	 ecx, DWORD PTR [eax]
  00043	3b 71 0c	 cmp	 esi, DWORD PTR [ecx+12]
  00046	73 2c		 jae	 SHORT $L249371
  00048	8b 41 10	 mov	 eax, DWORD PTR [ecx+16]
  0004b	8b 54 38 0c	 mov	 edx, DWORD PTR [eax+edi+12]
  0004f	03 c7		 add	 eax, edi
  00051	85 d2		 test	 edx, edx
  00053	74 1f		 je	 SHORT $L249371

; 201  : 				if( pItemElem && pItemElem->m_dwItemId == dwItemId )

  00055	8b 54 24 1c	 mov	 edx, DWORD PTR _dwItemId$[esp+20]
  00059	39 50 0c	 cmp	 DWORD PTR [eax+12], edx
  0005c	75 16		 jne	 SHORT $L249371

; 202  : 				{
; 203  : 					if( nRemnant > pItemElem->m_nItemNum )
; 204  : 					{
; 205  : 						nRemnant	-= pItemElem->m_nItemNum;

  0005e	33 d2		 xor	 edx, edx
  00060	66 8b 90 80 00
	00 00		 mov	 dx, WORD PTR [eax+128]
  00067	66 3b da	 cmp	 bx, dx
  0006a	7e 3f		 jle	 SHORT $L249374

; 206  : 						m_apPocket[i]->RemoveAtId( j );

  0006c	56		 push	 esi
  0006d	2b da		 sub	 ebx, edx
  0006f	e8 00 00 00 00	 call	 ?RemoveAtId@?$CItemContainer@VCItemElem@@@@QAEXK@Z ; CItemContainer<CItemElem>::RemoveAtId
$L249371:
  00074	46		 inc	 esi
  00075	81 c7 b8 00 00
	00		 add	 edi, 184		; 000000b8H
  0007b	3b f5		 cmp	 esi, ebp
  0007d	7c b9		 jl	 SHORT $L254808
$L249365:

; 191  : 	CItemElem* pItemElem	= NULL;
; 192  : 
; 193  : 	for( int i = 0; i < MAX_POCKET; i++ )

  0007f	8b 44 24 14	 mov	 eax, DWORD PTR _i$249363[esp+24]
  00083	8b 4c 24 10	 mov	 ecx, DWORD PTR tv354[esp+24]
  00087	40		 inc	 eax
  00088	83 c1 04	 add	 ecx, 4
  0008b	83 f8 03	 cmp	 eax, 3
  0008e	89 44 24 14	 mov	 DWORD PTR _i$249363[esp+24], eax
  00092	89 4c 24 10	 mov	 DWORD PTR tv354[esp+24], ecx
  00096	7c 88		 jl	 SHORT $L254809

; 213  : 					}
; 214  : 				}
; 215  : 			}
; 216  : 		}
; 217  : 	}
; 218  : 	return( nNum - nRemnant );

  00098	8b 44 24 20	 mov	 eax, DWORD PTR _nNum$[esp+20]
  0009c	5f		 pop	 edi
  0009d	0f bf cb	 movsx	 ecx, bx
  000a0	5e		 pop	 esi
  000a1	5d		 pop	 ebp
  000a2	2b c1		 sub	 eax, ecx
  000a4	5b		 pop	 ebx

; 219  : }

  000a5	83 c4 08	 add	 esp, 8
  000a8	c2 08 00	 ret	 8
$L249374:

; 207  : 					}
; 208  : 					else
; 209  : 					{
; 210  : 						pItemElem->m_nItemNum	-= nRemnant;

  000ab	66 29 98 80 00
	00 00		 sub	 WORD PTR [eax+128], bx

; 211  : 						nRemnant	= 0;
; 212  : 						return nNum;

  000b2	8b 44 24 20	 mov	 eax, DWORD PTR _nNum$[esp+20]
  000b6	5f		 pop	 edi
  000b7	5e		 pop	 esi
  000b8	5d		 pop	 ebp
  000b9	5b		 pop	 ebx

; 219  : }

  000ba	83 c4 08	 add	 esp, 8
  000bd	c2 08 00	 ret	 8
?RemoveItem@CPocketController@@QAEHKH@Z ENDP		; CPocketController::RemoveItem
_TEXT	ENDS
PUBLIC	?GetAvailable@CPocketController@@QAEJH@Z	; CPocketController::GetAvailable
; Function compile flags: /Ogty
;	COMDAT ?GetAvailable@CPocketController@@QAEJH@Z
_TEXT	SEGMENT
_nPocket$ = 8						; size = 4
?GetAvailable@CPocketController@@QAEJH@Z PROC NEAR	; CPocketController::GetAvailable, COMDAT
; _this$ = ecx

; 263  : 	if( IsAvailable( nPocket ) )

  00000	8b 44 24 04	 mov	 eax, DWORD PTR _nPocket$[esp-4]
  00004	8b 44 81 08	 mov	 eax, DWORD PTR [ecx+eax*4+8]
  00008	85 c0		 test	 eax, eax
  0000a	74 21		 je	 SHORT $L249414
  0000c	8b 48 14	 mov	 ecx, DWORD PTR [eax+20]
  0000f	85 c9		 test	 ecx, ecx
  00011	75 1a		 jne	 SHORT $L249414

; 264  : 	{
; 265  : 		if( m_apPocket[nPocket]->GetExpirationDate() )

  00013	8b 40 18	 mov	 eax, DWORD PTR [eax+24]
  00016	85 c0		 test	 eax, eax
  00018	74 13		 je	 SHORT $L249414

; 266  : 			return max( m_apPocket[nPocket]->GetExpirationDate() - time_null(), 0 );

  0001a	2b 05 00 00 00
	00		 sub	 eax, DWORD PTR ?g_tCurrent@@3JA ; g_tCurrent
  00020	33 c9		 xor	 ecx, ecx
  00022	85 c0		 test	 eax, eax
  00024	0f 9e c1	 setle	 cl
  00027	49		 dec	 ecx
  00028	23 c1		 and	 eax, ecx

; 269  : }

  0002a	c2 04 00	 ret	 4
$L249414:

; 267  : 	}
; 268  : 	return 0;

  0002d	33 c0		 xor	 eax, eax

; 269  : }

  0002f	c2 04 00	 ret	 4
?GetAvailable@CPocketController@@QAEJH@Z ENDP		; CPocketController::GetAvailable
_TEXT	ENDS
PUBLIC	?GetPocket@CPocketController@@QAEPAVCPocket@@H@Z ; CPocketController::GetPocket
; Function compile flags: /Ogty
;	COMDAT ?GetPocket@CPocketController@@QAEPAVCPocket@@H@Z
_TEXT	SEGMENT
_nPocket$ = 8						; size = 4
?GetPocket@CPocketController@@QAEPAVCPocket@@H@Z PROC NEAR ; CPocketController::GetPocket, COMDAT
; _this$ = ecx

; 340  : 	if( IsAvailable( nPocket, FALSE ) )

  00000	8b 44 24 04	 mov	 eax, DWORD PTR _nPocket$[esp-4]
  00004	8b 44 81 08	 mov	 eax, DWORD PTR [ecx+eax*4+8]

; 341  : 		return m_apPocket[nPocket];
; 342  : 	return NULL;
; 343  : }

  00008	c2 04 00	 ret	 4
?GetPocket@CPocketController@@QAEPAVCPocket@@H@Z ENDP	; CPocketController::GetPocket
_TEXT	ENDS
PUBLIC	?GetEmptyCount@?$CItemContainer@VCItemElem@@@@QAEHXZ ; CItemContainer<CItemElem>::GetEmptyCount
; Function compile flags: /Ogty
; File c:\documents and settings\test\mes documents\source\virtuos_v17\build\program\_common\item.h
;	COMDAT ?GetEmptyCount@?$CItemContainer@VCItemElem@@@@QAEHXZ
_TEXT	SEGMENT
?GetEmptyCount@?$CItemContainer@VCItemElem@@@@QAEHXZ PROC NEAR ; CItemContainer<CItemElem>::GetEmptyCount, COMDAT
; _this$ = ecx

; 417  : 		{

  00000	56		 push	 esi

; 423  : 			}
; 424  : 			return( nCount );

  00001	8b 71 0c	 mov	 esi, DWORD PTR [ecx+12]
  00004	33 c0		 xor	 eax, eax
  00006	85 f6		 test	 esi, esi
  00008	76 20		 jbe	 SHORT $L249503
  0000a	8b 51 10	 mov	 edx, DWORD PTR [ecx+16]
  0000d	83 c2 08	 add	 edx, 8
  00010	57		 push	 edi
$L249501:
  00011	8b 7a 04	 mov	 edi, DWORD PTR [edx+4]
  00014	85 ff		 test	 edi, edi
  00016	75 08		 jne	 SHORT $L249502
  00018	8b 3a		 mov	 edi, DWORD PTR [edx]
  0001a	3b 79 08	 cmp	 edi, DWORD PTR [ecx+8]
  0001d	73 01		 jae	 SHORT $L249502

; 420  : 			{
; 421  : 				if( m_apItem[i].IsEmpty() && m_apItem[i].m_dwObjIndex < m_dwIndexNum )
; 422  : 					nCount++;

  0001f	40		 inc	 eax
$L249502:

; 418  : 			int nCount	= 0;
; 419  : 			for( DWORD i = 0; i < m_dwItemMax; i++ )

  00020	81 c2 b8 00 00
	00		 add	 edx, 184		; 000000b8H
  00026	4e		 dec	 esi
  00027	75 e8		 jne	 SHORT $L249501
  00029	5f		 pop	 edi
$L249503:
  0002a	5e		 pop	 esi

; 425  : 		}

  0002b	c3		 ret	 0
?GetEmptyCount@?$CItemContainer@VCItemElem@@@@QAEHXZ ENDP ; CItemContainer<CItemElem>::GetEmptyCount
_TEXT	ENDS
PUBLIC	?GetCount@?$CItemContainer@VCItemElem@@@@QAEHK@Z ; CItemContainer<CItemElem>::GetCount
; Function compile flags: /Ogty
;	COMDAT ?GetCount@?$CItemContainer@VCItemElem@@@@QAEHK@Z
_TEXT	SEGMENT
_dwItemId$ = 8						; size = 4
?GetCount@?$CItemContainer@VCItemElem@@@@QAEHK@Z PROC NEAR ; CItemContainer<CItemElem>::GetCount, COMDAT
; _this$ = ecx

; 453  : 			}
; 454  : 			return( nCount );

  00000	8b 51 0c	 mov	 edx, DWORD PTR [ecx+12]
  00003	33 c0		 xor	 eax, eax
  00005	85 d2		 test	 edx, edx
  00007	76 24		 jbe	 SHORT $L249511
  00009	8b 49 10	 mov	 ecx, DWORD PTR [ecx+16]
  0000c	56		 push	 esi
  0000d	57		 push	 edi
  0000e	8b 7c 24 0c	 mov	 edi, DWORD PTR _dwItemId$[esp+4]
  00012	83 c1 0c	 add	 ecx, 12			; 0000000cH
  00015	8b f2		 mov	 esi, edx
$L249509:
  00017	8b 11		 mov	 edx, DWORD PTR [ecx]
  00019	85 d2		 test	 edx, edx
  0001b	74 05		 je	 SHORT $L249510

; 450  : 			{
; 451  : 				if( m_apItem[i].IsEmpty() == FALSE && m_apItem[i].m_dwItemId == dwItemId )

  0001d	3b d7		 cmp	 edx, edi
  0001f	75 01		 jne	 SHORT $L249510

; 452  : 					nCount++;

  00021	40		 inc	 eax
$L249510:

; 448  : 			int nCount	= 0;
; 449  : 			for( DWORD i = 0; i < m_dwItemMax; i++ )

  00022	81 c1 b8 00 00
	00		 add	 ecx, 184		; 000000b8H
  00028	4e		 dec	 esi
  00029	75 ec		 jne	 SHORT $L249509
  0002b	5f		 pop	 edi
  0002c	5e		 pop	 esi
$L249511:

; 455  : 		}

  0002d	c2 04 00	 ret	 4
?GetCount@?$CItemContainer@VCItemElem@@@@QAEHK@Z ENDP	; CItemContainer<CItemElem>::GetCount
_TEXT	ENDS
PUBLIC	??0iterator@?$vector@U_PocketController_Result@@V?$allocator@U_PocketController_Result@@@std@@@std@@QAE@PAU_PocketController_Result@@@Z ; std::vector<_PocketController_Result,std::allocator<_PocketController_Result> >::iterator::iterator
; Function compile flags: /Ogty
; File c:\program files\microsoft visual studio .net 2003\vc7\include\vector
;	COMDAT ??0iterator@?$vector@U_PocketController_Result@@V?$allocator@U_PocketController_Result@@@std@@@std@@QAE@PAU_PocketController_Result@@@Z
_TEXT	SEGMENT
__Ptr$ = 8						; size = 4
??0iterator@?$vector@U_PocketController_Result@@V?$allocator@U_PocketController_Result@@@std@@@std@@QAE@PAU_PocketController_Result@@@Z PROC NEAR ; std::vector<_PocketController_Result,std::allocator<_PocketController_Result> >::iterator::iterator, COMDAT
; _this$ = ecx

; 215  : 			{	// construct with pointer _Ptr

  00000	8b c1		 mov	 eax, ecx
  00002	8b 4c 24 04	 mov	 ecx, DWORD PTR __Ptr$[esp-4]
  00006	89 08		 mov	 DWORD PTR [eax], ecx

; 216  : 			}

  00008	c2 04 00	 ret	 4
??0iterator@?$vector@U_PocketController_Result@@V?$allocator@U_PocketController_Result@@@std@@@std@@QAE@PAU_PocketController_Result@@@Z ENDP ; std::vector<_PocketController_Result,std::allocator<_PocketController_Result> >::iterator::iterator
_TEXT	ENDS
PUBLIC	??Hiterator@?$vector@U_PocketController_Result@@V?$allocator@U_PocketController_Result@@@std@@@std@@QBE?AV012@H@Z ; std::vector<_PocketController_Result,std::allocator<_PocketController_Result> >::iterator::operator+
; Function compile flags: /Ogty
;	COMDAT ??Hiterator@?$vector@U_PocketController_Result@@V?$allocator@U_PocketController_Result@@@std@@@std@@QBE?AV012@H@Z
_TEXT	SEGMENT
___$ReturnUdt$ = 8					; size = 4
__Off$ = 12						; size = 4
??Hiterator@?$vector@U_PocketController_Result@@V?$allocator@U_PocketController_Result@@@std@@@std@@QBE?AV012@H@Z PROC NEAR ; std::vector<_PocketController_Result,std::allocator<_PocketController_Result> >::iterator::operator+, COMDAT
; _this$ = ecx

; 262  : 			iterator _Tmp = *this;
; 263  : 			return (_Tmp += _Off);

  00000	8b 44 24 08	 mov	 eax, DWORD PTR __Off$[esp-4]
  00004	8b 09		 mov	 ecx, DWORD PTR [ecx]
  00006	8d 04 40	 lea	 eax, DWORD PTR [eax+eax*2]
  00009	8d 14 81	 lea	 edx, DWORD PTR [ecx+eax*4]
  0000c	8b 44 24 04	 mov	 eax, DWORD PTR ___$ReturnUdt$[esp-4]
  00010	89 10		 mov	 DWORD PTR [eax], edx

; 264  : 			}

  00012	c2 08 00	 ret	 8
??Hiterator@?$vector@U_PocketController_Result@@V?$allocator@U_PocketController_Result@@@std@@@std@@QBE?AV012@H@Z ENDP ; std::vector<_PocketController_Result,std::allocator<_PocketController_Result> >::iterator::operator+
_TEXT	ENDS
PUBLIC	??Giterator@?$vector@U_PocketController_Result@@V?$allocator@U_PocketController_Result@@@std@@@std@@QBEHABVconst_iterator@12@@Z ; std::vector<_PocketController_Result,std::allocator<_PocketController_Result> >::iterator::operator-
; Function compile flags: /Ogty
;	COMDAT ??Giterator@?$vector@U_PocketController_Result@@V?$allocator@U_PocketController_Result@@@std@@@std@@QBEHABVconst_iterator@12@@Z
_TEXT	SEGMENT
__Right$ = 8						; size = 4
??Giterator@?$vector@U_PocketController_Result@@V?$allocator@U_PocketController_Result@@@std@@@std@@QBEHABVconst_iterator@12@@Z PROC NEAR ; std::vector<_PocketController_Result,std::allocator<_PocketController_Result> >::iterator::operator-, COMDAT
; _this$ = ecx

; 279  : 			return ((const_iterator)*this - _Right);

  00000	8b 01		 mov	 eax, DWORD PTR [ecx]
  00002	8b 4c 24 04	 mov	 ecx, DWORD PTR __Right$[esp-4]
  00006	2b 01		 sub	 eax, DWORD PTR [ecx]
  00008	8b c8		 mov	 ecx, eax
  0000a	b8 ab aa aa 2a	 mov	 eax, 715827883		; 2aaaaaabH
  0000f	f7 e9		 imul	 ecx
  00011	d1 fa		 sar	 edx, 1
  00013	8b c2		 mov	 eax, edx
  00015	c1 e8 1f	 shr	 eax, 31			; 0000001fH
  00018	03 c2		 add	 eax, edx

; 280  : 			}

  0001a	c2 04 00	 ret	 4
??Giterator@?$vector@U_PocketController_Result@@V?$allocator@U_PocketController_Result@@@std@@@std@@QBEHABVconst_iterator@12@@Z ENDP ; std::vector<_PocketController_Result,std::allocator<_PocketController_Result> >::iterator::operator-
_TEXT	ENDS
PUBLIC	?max_size@?$vector@U_PocketController_Result@@V?$allocator@U_PocketController_Result@@@std@@@std@@QBEIXZ ; std::vector<_PocketController_Result,std::allocator<_PocketController_Result> >::max_size
; Function compile flags: /Ogty
;	COMDAT ?max_size@?$vector@U_PocketController_Result@@V?$allocator@U_PocketController_Result@@@std@@@std@@QBEIXZ
_TEXT	SEGMENT
?max_size@?$vector@U_PocketController_Result@@V?$allocator@U_PocketController_Result@@@std@@@std@@QBEIXZ PROC NEAR ; std::vector<_PocketController_Result,std::allocator<_PocketController_Result> >::max_size, COMDAT
; _this$ = ecx

; 521  : 		return (this->_Alval.max_size());

  00000	b8 55 55 55 15	 mov	 eax, 357913941		; 15555555H

; 522  : 		}

  00005	c3		 ret	 0
?max_size@?$vector@U_PocketController_Result@@V?$allocator@U_PocketController_Result@@@std@@@std@@QBEIXZ ENDP ; std::vector<_PocketController_Result,std::allocator<_PocketController_Result> >::max_size
_TEXT	ENDS
PUBLIC	?allocate@?$allocator@U_PocketController_Result@@@std@@QAEPAU_PocketController_Result@@I@Z ; std::allocator<_PocketController_Result>::allocate
; Function compile flags: /Ogty
; File c:\program files\microsoft visual studio .net 2003\vc7\include\xmemory
;	COMDAT ?allocate@?$allocator@U_PocketController_Result@@@std@@QAEPAU_PocketController_Result@@I@Z
_TEXT	SEGMENT
__Count$ = 8						; size = 4
?allocate@?$allocator@U_PocketController_Result@@@std@@QAEPAU_PocketController_Result@@I@Z PROC NEAR ; std::allocator<_PocketController_Result>::allocate, COMDAT
; _this$ = ecx

; 137  : 		return (_Allocate(_Count, (pointer)0));

  00000	8b 44 24 04	 mov	 eax, DWORD PTR __Count$[esp-4]
  00004	8d 04 40	 lea	 eax, DWORD PTR [eax+eax*2]
  00007	c1 e0 02	 shl	 eax, 2
  0000a	50		 push	 eax
  0000b	e8 00 00 00 00	 call	 ??2@YAPAXI@Z		; operator new
  00010	83 c4 04	 add	 esp, 4

; 138  : 		}

  00013	c2 04 00	 ret	 4
?allocate@?$allocator@U_PocketController_Result@@@std@@QAEPAU_PocketController_Result@@I@Z ENDP ; std::allocator<_PocketController_Result>::allocate
_TEXT	ENDS
PUBLIC	?SetItemContainer@?$CItemContainer@VCItemElem@@@@QAEXKKK@Z ; CItemContainer<CItemElem>::SetItemContainer
EXTRN	??_L@YGXPAXIHP6EX0@Z1@Z:NEAR			; `eh vector constructor iterator'
EXTRN	??_U@YAPAXI@Z:NEAR				; operator new[]
EXTRN	??0CItemElem@@QAE@XZ:NEAR			; CItemElem::CItemElem
EXTRN	__except_list:DWORD
EXTRN	___CxxFrameHandler:NEAR
;	COMDAT xdata$x
; File c:\documents and settings\test\mes documents\source\virtuos_v17\build\program\_common\item.h
xdata$x	SEGMENT
$T254948 DD	0ffffffffH
	DD	FLAT:$L254941
$T254945 DD	019930520H
	DD	01H
	DD	FLAT:$T254948
	DD	2 DUP(00H)
	DD	2 DUP(00H)
; Function compile flags: /Ogty
xdata$x	ENDS
;	COMDAT ?SetItemContainer@?$CItemContainer@VCItemElem@@@@QAEXKKK@Z
_TEXT	SEGMENT
__$EHRec$ = -12						; size = 12
_dwItemType$ = 8					; size = 4
$T254937 = 12						; size = 4
_dwItemMax$ = 12					; size = 4
_dwExtra$ = 16						; size = 4
?SetItemContainer@?$CItemContainer@VCItemElem@@@@QAEXKKK@Z PROC NEAR ; CItemContainer<CItemElem>::SetItemContainer, COMDAT
; _this$ = ecx

; 500  : {

  00000	64 a1 00 00 00
	00		 mov	 eax, DWORD PTR fs:__except_list
  00006	6a ff		 push	 -1
  00008	68 00 00 00 00	 push	 __ehhandler$?SetItemContainer@?$CItemContainer@VCItemElem@@@@QAEXKKK@Z
  0000d	50		 push	 eax

; 501  : 	m_dwIndexNum = dwItemMax;

  0000e	8b 44 24 14	 mov	 eax, DWORD PTR _dwItemMax$[esp+8]
  00012	64 89 25 00 00
	00 00		 mov	 DWORD PTR fs:__except_list, esp
  00019	53		 push	 ebx
  0001a	56		 push	 esi
  0001b	8b f1		 mov	 esi, ecx

; 502  : 	m_dwItemMax = dwItemMax;
; 503  : 	if( dwExtra != NULL_ID )

  0001d	8b 4c 24 20	 mov	 ecx, DWORD PTR _dwExtra$[esp+16]
  00021	83 f9 ff	 cmp	 ecx, -1
  00024	57		 push	 edi
  00025	89 46 08	 mov	 DWORD PTR [esi+8], eax
  00028	89 46 0c	 mov	 DWORD PTR [esi+12], eax
  0002b	74 05		 je	 SHORT $L251840

; 504  : 		m_dwItemMax += dwExtra;

  0002d	03 c1		 add	 eax, ecx
  0002f	89 46 0c	 mov	 DWORD PTR [esi+12], eax
$L251840:

; 505  : 	
; 506  : 	SAFE_DELETE_ARRAY( m_apItem );

  00032	8b 4e 10	 mov	 ecx, DWORD PTR [esi+16]
  00035	33 db		 xor	 ebx, ebx
  00037	3b cb		 cmp	 ecx, ebx
  00039	74 1e		 je	 SHORT $L251841
  0003b	8b 51 fc	 mov	 edx, DWORD PTR [ecx-4]
  0003e	3b d3		 cmp	 edx, ebx
  00040	8d 41 fc	 lea	 eax, DWORD PTR [ecx-4]
  00043	74 08		 je	 SHORT $L254930
  00045	8b 01		 mov	 eax, DWORD PTR [ecx]
  00047	6a 03		 push	 3
  00049	ff 10		 call	 DWORD PTR [eax]
  0004b	eb 09		 jmp	 SHORT $L254931
$L254930:
  0004d	50		 push	 eax
  0004e	e8 00 00 00 00	 call	 ??_V@YAXPAX@Z		; operator delete[]
  00053	83 c4 04	 add	 esp, 4
$L254931:
  00056	89 5e 10	 mov	 DWORD PTR [esi+16], ebx
$L251841:

; 507  : 	SAFE_DELETE_ARRAY( m_apIndex );

  00059	8b 46 04	 mov	 eax, DWORD PTR [esi+4]
  0005c	3b c3		 cmp	 eax, ebx
  0005e	74 0c		 je	 SHORT $L251846
  00060	50		 push	 eax
  00061	e8 00 00 00 00	 call	 ??_V@YAXPAX@Z		; operator delete[]
  00066	83 c4 04	 add	 esp, 4
  00069	89 5e 04	 mov	 DWORD PTR [esi+4], ebx
$L251846:

; 508  : 
; 509  : 	m_apItem = new T[ m_dwItemMax ];

  0006c	8b 7e 0c	 mov	 edi, DWORD PTR [esi+12]
  0006f	8b cf		 mov	 ecx, edi
  00071	69 c9 b8 00 00
	00		 imul	 ecx, 184		; 000000b8H
  00077	83 c1 04	 add	 ecx, 4
  0007a	51		 push	 ecx
  0007b	e8 00 00 00 00	 call	 ??_U@YAPAXI@Z		; operator new[]
  00080	83 c4 04	 add	 esp, 4
  00083	89 44 24 20	 mov	 DWORD PTR $T254937[esp+20], eax
  00087	3b c3		 cmp	 eax, ebx
  00089	89 5c 24 14	 mov	 DWORD PTR __$EHRec$[esp+32], ebx
  0008d	74 1b		 je	 SHORT $L254939
  0008f	68 00 00 00 00	 push	 OFFSET FLAT:??1CItemElem@@UAE@XZ ; CItemElem::~CItemElem
  00094	68 00 00 00 00	 push	 OFFSET FLAT:??0CItemElem@@QAE@XZ ; CItemElem::CItemElem
  00099	57		 push	 edi
  0009a	8d 58 04	 lea	 ebx, DWORD PTR [eax+4]
  0009d	68 b8 00 00 00	 push	 184			; 000000b8H
  000a2	53		 push	 ebx
  000a3	89 38		 mov	 DWORD PTR [eax], edi
  000a5	e8 00 00 00 00	 call	 ??_L@YGXPAXIHP6EX0@Z1@Z
$L254939:

; 510  : 	m_apIndex = new DWORD[ m_dwItemMax ];

  000aa	8b 56 0c	 mov	 edx, DWORD PTR [esi+12]
  000ad	c1 e2 02	 shl	 edx, 2
  000b0	52		 push	 edx
  000b1	c7 44 24 18 ff
	ff ff ff	 mov	 DWORD PTR __$EHRec$[esp+36], -1
  000b9	89 5e 10	 mov	 DWORD PTR [esi+16], ebx
  000bc	e8 00 00 00 00	 call	 ??_U@YAPAXI@Z		; operator new[]
  000c1	83 c4 04	 add	 esp, 4

; 511  : 	Clear();

  000c4	8b ce		 mov	 ecx, esi
  000c6	89 46 04	 mov	 DWORD PTR [esi+4], eax
  000c9	e8 00 00 00 00	 call	 ?Clear@?$CItemContainer@VCItemElem@@@@QAEXXZ ; CItemContainer<CItemElem>::Clear

; 512  : }

  000ce	8b 4c 24 0c	 mov	 ecx, DWORD PTR __$EHRec$[esp+24]
  000d2	5f		 pop	 edi
  000d3	5e		 pop	 esi
  000d4	64 89 0d 00 00
	00 00		 mov	 DWORD PTR fs:__except_list, ecx
  000db	5b		 pop	 ebx
  000dc	83 c4 0c	 add	 esp, 12			; 0000000cH
  000df	c2 0c 00	 ret	 12			; 0000000cH
_TEXT	ENDS
;	COMDAT text$x
text$x	SEGMENT
$L254941:
  00000	8b 45 08	 mov	 eax, DWORD PTR $T254937[ebp-4]
  00003	50		 push	 eax
  00004	e8 00 00 00 00	 call	 ??_V@YAXPAX@Z		; operator delete[]
  00009	59		 pop	 ecx
  0000a	c3		 ret	 0
__ehhandler$?SetItemContainer@?$CItemContainer@VCItemElem@@@@QAEXKKK@Z:
  0000b	b8 00 00 00 00	 mov	 eax, OFFSET FLAT:$T254945
  00010	e9 00 00 00 00	 jmp	 ___CxxFrameHandler
text$x	ENDS
?SetItemContainer@?$CItemContainer@VCItemElem@@@@QAEXKKK@Z ENDP ; CItemContainer<CItemElem>::SetItemContainer
PUBLIC	?Copy@?$CItemContainer@VCItemElem@@@@QAEXAAV1@@Z ; CItemContainer<CItemElem>::Copy
; Function compile flags: /Ogty
;	COMDAT ?Copy@?$CItemContainer@VCItemElem@@@@QAEXAAV1@@Z
_TEXT	SEGMENT
_rItemContainer$ = 8					; size = 4
?Copy@?$CItemContainer@VCItemElem@@@@QAEXAAV1@@Z PROC NEAR ; CItemContainer<CItemElem>::Copy, COMDAT
; _this$ = ecx

; 884  : {

  00000	53		 push	 ebx
  00001	8b d9		 mov	 ebx, ecx

; 886  : 	memcpy( (void*)m_apIndex, (void*)rItemContainer.m_apIndex, sizeof(DWORD) * m_dwItemMax );

  00003	8b 4b 0c	 mov	 ecx, DWORD PTR [ebx+12]
  00006	c1 e1 02	 shl	 ecx, 2
  00009	55		 push	 ebp
  0000a	8b 6c 24 0c	 mov	 ebp, DWORD PTR _rItemContainer$[esp+4]
  0000e	8b 45 08	 mov	 eax, DWORD PTR [ebp+8]
  00011	56		 push	 esi
  00012	8b d1		 mov	 edx, ecx
  00014	57		 push	 edi
  00015	8b 7b 04	 mov	 edi, DWORD PTR [ebx+4]
  00018	89 43 08	 mov	 DWORD PTR [ebx+8], eax
  0001b	8b 75 04	 mov	 esi, DWORD PTR [ebp+4]
  0001e	c1 e9 02	 shr	 ecx, 2
  00021	f3 a5		 rep movsd
  00023	8b ca		 mov	 ecx, edx
  00025	83 e1 03	 and	 ecx, 3
  00028	f3 a4		 rep movsb

; 887  : 	for( u_long i = 0; i < m_dwItemMax; i++ )

  0002a	8b 43 0c	 mov	 eax, DWORD PTR [ebx+12]
  0002d	33 ff		 xor	 edi, edi
  0002f	85 c0		 test	 eax, eax
  00031	76 4f		 jbe	 SHORT $L251937

; 885  : 	m_dwIndexNum	= rItemContainer.m_dwIndexNum;

  00033	33 f6		 xor	 esi, esi
$L254960:

; 888  : 	{
; 889  : 		m_apItem[i].m_dwObjId	= rItemContainer.m_apItem[i].m_dwObjId;

  00035	8b 45 10	 mov	 eax, DWORD PTR [ebp+16]
  00038	8b 54 06 04	 mov	 edx, DWORD PTR [esi+eax+4]
  0003c	8b 4b 10	 mov	 ecx, DWORD PTR [ebx+16]
  0003f	89 54 31 04	 mov	 DWORD PTR [ecx+esi+4], edx

; 890  : 		m_apItem[i].m_dwObjIndex	= rItemContainer.m_apItem[i].m_dwObjIndex;

  00043	8b 45 10	 mov	 eax, DWORD PTR [ebp+16]
  00046	8b 4b 10	 mov	 ecx, DWORD PTR [ebx+16]
  00049	8b 54 06 08	 mov	 edx, DWORD PTR [esi+eax+8]
  0004d	89 54 31 08	 mov	 DWORD PTR [ecx+esi+8], edx

; 891  : 		if( rItemContainer.m_apItem[i].IsEmpty() == FALSE )

  00051	8b 45 10	 mov	 eax, DWORD PTR [ebp+16]
  00054	8b 4c 06 0c	 mov	 ecx, DWORD PTR [esi+eax+12]
  00058	85 c9		 test	 ecx, ecx

; 892  : 			m_apItem[i]		= rItemContainer.m_apItem[i];

  0005a	8b 4b 10	 mov	 ecx, DWORD PTR [ebx+16]
  0005d	74 0d		 je	 SHORT $L251938
  0005f	8b 14 31	 mov	 edx, DWORD PTR [ecx+esi]
  00062	03 ce		 add	 ecx, esi
  00064	03 c6		 add	 eax, esi
  00066	50		 push	 eax
  00067	ff 52 10	 call	 DWORD PTR [edx+16]

; 893  : 		else

  0006a	eb 08		 jmp	 SHORT $L251936
$L251938:

; 894  : 			m_apItem[i].Empty();

  0006c	8b 14 31	 mov	 edx, DWORD PTR [ecx+esi]
  0006f	03 ce		 add	 ecx, esi
  00071	ff 52 0c	 call	 DWORD PTR [edx+12]
$L251936:
  00074	8b 43 0c	 mov	 eax, DWORD PTR [ebx+12]
  00077	47		 inc	 edi
  00078	81 c6 b8 00 00
	00		 add	 esi, 184		; 000000b8H
  0007e	3b f8		 cmp	 edi, eax
  00080	72 b3		 jb	 SHORT $L254960
$L251937:
  00082	5f		 pop	 edi
  00083	5e		 pop	 esi
  00084	5d		 pop	 ebp
  00085	5b		 pop	 ebx

; 895  : 	}
; 896  : }

  00086	c2 04 00	 ret	 4
?Copy@?$CItemContainer@VCItemElem@@@@QAEXAAV1@@Z ENDP	; CItemContainer<CItemElem>::Copy
_TEXT	ENDS
PUBLIC	?Serialize@?$CItemContainer@VCItemElem@@@@QAEXAAVCAr@@@Z ; CItemContainer<CItemElem>::Serialize
EXTRN	?Read@CAr@@QAEXPAXI@Z:NEAR			; CAr::Read
EXTRN	?Write@CAr@@QAEXPBXI@Z:NEAR			; CAr::Write
EXTRN	?GetBuffer@CAr@@QAEPAEPAH@Z:NEAR		; CAr::GetBuffer
; Function compile flags: /Ogty
;	COMDAT ?Serialize@?$CItemContainer@VCItemElem@@@@QAEXAAVCAr@@@Z
_TEXT	SEGMENT
_chSize$ = -525						; size = 1
tv342 = -524						; size = 4
_uOffset$251949 = -520					; size = 4
_nBufSize$251956 = -516					; size = 4
_adwObjIndex$ = -512					; size = 512
_ar$ = 8						; size = 4
?Serialize@?$CItemContainer@VCItemElem@@@@QAEXAAVCAr@@@Z PROC NEAR ; CItemContainer<CItemElem>::Serialize, COMDAT
; _this$ = ecx

; 899  : {

  00000	81 ec 10 02 00
	00		 sub	 esp, 528		; 00000210H
  00006	53		 push	 ebx
  00007	55		 push	 ebp
  00008	56		 push	 esi

; 900  : 	DWORD	adwObjIndex[128];
; 901  : 
; 902  : 	unsigned char chSize	= 0;
; 903  : 
; 904  : 	if( ar.IsStoring() )

  00009	8b b4 24 20 02
	00 00		 mov	 esi, DWORD PTR _ar$[esp+536]
  00010	33 c0		 xor	 eax, eax
  00012	8a 06		 mov	 al, BYTE PTR [esi]
  00014	57		 push	 edi
  00015	8b f9		 mov	 edi, ecx
  00017	c6 44 24 13 00	 mov	 BYTE PTR _chSize$[esp+544], 0
  0001c	f7 d0		 not	 eax
  0001e	a8 01		 test	 al, 1
  00020	0f 84 d5 00 00
	00		 je	 $L251947

; 905  : 	{
; 906  : 		
; 907  : 		ar.Write( m_apIndex, sizeof(DWORD) * m_dwItemMax );

  00026	8b 4f 0c	 mov	 ecx, DWORD PTR [edi+12]
  00029	8b 57 04	 mov	 edx, DWORD PTR [edi+4]
  0002c	c1 e1 02	 shl	 ecx, 2
  0002f	51		 push	 ecx
  00030	52		 push	 edx
  00031	8b ce		 mov	 ecx, esi
  00033	e8 00 00 00 00	 call	 ?Write@CAr@@QAEXPBXI@Z	; CAr::Write

; 908  : 		
; 909  : 		u_long uOffset	= ar.GetOffset();

  00038	8b 6e 08	 mov	 ebp, DWORD PTR [esi+8]
  0003b	2b 6e 10	 sub	 ebp, DWORD PTR [esi+16]

; 910  : 		ar << chSize;

  0003e	6a 01		 push	 1
  00040	8b ce		 mov	 ecx, esi
  00042	89 6c 24 1c	 mov	 DWORD PTR _uOffset$251949[esp+548], ebp
  00046	e8 00 00 00 00	 call	 ?CheckBuf@CAr@@QAEXI@Z	; CAr::CheckBuf
  0004b	8b 46 08	 mov	 eax, DWORD PTR [esi+8]
  0004e	c6 00 00	 mov	 BYTE PTR [eax], 0
  00051	ff 46 08	 inc	 DWORD PTR [esi+8]

; 911  : 
; 912  : 		for( u_char ch = 0; ch < m_dwItemMax; ch++ )	// 0-504

  00054	8b 47 0c	 mov	 eax, DWORD PTR [edi+12]
  00057	32 db		 xor	 bl, bl
  00059	85 c0		 test	 eax, eax
  0005b	76 6b		 jbe	 SHORT $L251953
  0005d	c7 44 24 14 00
	00 00 00	 mov	 DWORD PTR tv342[esp+544], 0
  00065	eb 09 8d a4 24
	00 00 00 00 8b
	ff		 npad	 11
$L254999:

; 913  : 		{
; 914  : 			if( m_apItem[ch].IsEmpty() == FALSE )

  00070	8b 6c 24 14	 mov	 ebp, DWORD PTR tv342[esp+544]
  00074	8b 4f 10	 mov	 ecx, DWORD PTR [edi+16]
  00077	69 ed b8 00 00
	00		 imul	 ebp, 184		; 000000b8H
  0007d	8b 44 29 0c	 mov	 eax, DWORD PTR [ecx+ebp+12]
  00081	85 c0		 test	 eax, eax
  00083	74 22		 je	 SHORT $L251954

; 915  : 			{
; 916  : 				ar << ch;

  00085	6a 01		 push	 1
  00087	8b ce		 mov	 ecx, esi
  00089	e8 00 00 00 00	 call	 ?CheckBuf@CAr@@QAEXI@Z	; CAr::CheckBuf
  0008e	8b 56 08	 mov	 edx, DWORD PTR [esi+8]
  00091	88 1a		 mov	 BYTE PTR [edx], bl
  00093	ff 46 08	 inc	 DWORD PTR [esi+8]

; 917  : 				m_apItem[ch].Serialize( ar );

  00096	8b 47 10	 mov	 eax, DWORD PTR [edi+16]
  00099	8b 14 28	 mov	 edx, DWORD PTR [eax+ebp]
  0009c	8d 0c 28	 lea	 ecx, DWORD PTR [eax+ebp]
  0009f	56		 push	 esi
  000a0	ff 52 08	 call	 DWORD PTR [edx+8]

; 918  : 				chSize++;

  000a3	fe 44 24 13	 inc	 BYTE PTR _chSize$[esp+544]
$L251954:

; 919  : 			}
; 920  : 			adwObjIndex[ch]		= m_apItem[ch].m_dwObjIndex;

  000a7	8b 47 10	 mov	 eax, DWORD PTR [edi+16]
  000aa	8b 4c 28 08	 mov	 ecx, DWORD PTR [eax+ebp+8]
  000ae	8b 54 24 14	 mov	 edx, DWORD PTR tv342[esp+544]
  000b2	fe c3		 inc	 bl
  000b4	0f b6 c3	 movzx	 eax, bl
  000b7	89 4c 94 20	 mov	 DWORD PTR _adwObjIndex$[esp+edx*4+544], ecx
  000bb	3b 47 0c	 cmp	 eax, DWORD PTR [edi+12]
  000be	89 44 24 14	 mov	 DWORD PTR tv342[esp+544], eax
  000c2	72 ac		 jb	 SHORT $L254999

; 911  : 
; 912  : 		for( u_char ch = 0; ch < m_dwItemMax; ch++ )	// 0-504

  000c4	8b 6c 24 18	 mov	 ebp, DWORD PTR _uOffset$251949[esp+544]
$L251953:

; 921  : 		}
; 922  : 
; 923  : 		ar.Write( adwObjIndex, sizeof(DWORD) * m_dwItemMax );

  000c8	8b 47 0c	 mov	 eax, DWORD PTR [edi+12]
  000cb	c1 e0 02	 shl	 eax, 2
  000ce	50		 push	 eax
  000cf	8d 4c 24 24	 lea	 ecx, DWORD PTR _adwObjIndex$[esp+548]
  000d3	51		 push	 ecx
  000d4	8b ce		 mov	 ecx, esi
  000d6	e8 00 00 00 00	 call	 ?Write@CAr@@QAEXPBXI@Z	; CAr::Write

; 924  : 
; 925  : 		int nBufSize;
; 926  : 		LPBYTE lpBuf	= ar.GetBuffer( &nBufSize );

  000db	8d 54 24 1c	 lea	 edx, DWORD PTR _nBufSize$251956[esp+544]
  000df	52		 push	 edx
  000e0	8b ce		 mov	 ecx, esi
  000e2	e8 00 00 00 00	 call	 ?GetBuffer@CAr@@QAEPAEPAH@Z ; CAr::GetBuffer

; 927  : 		*( lpBuf + uOffset )	= chSize;

  000e7	8a 4c 24 13	 mov	 cl, BYTE PTR _chSize$[esp+544]
  000eb	5f		 pop	 edi
  000ec	5e		 pop	 esi
  000ed	88 0c 28	 mov	 BYTE PTR [eax+ebp], cl
  000f0	5d		 pop	 ebp
  000f1	5b		 pop	 ebx

; 949  : 		}
; 950  : 	}
; 951  : }

  000f2	81 c4 10 02 00
	00		 add	 esp, 528		; 00000210H
  000f8	c2 04 00	 ret	 4
$L251947:

; 928  : 	}
; 929  : 	else
; 930  : 	{
; 931  : 		ar.Read( m_apIndex, sizeof(DWORD) * m_dwItemMax );

  000fb	8b 57 0c	 mov	 edx, DWORD PTR [edi+12]
  000fe	8b 47 04	 mov	 eax, DWORD PTR [edi+4]
  00101	c1 e2 02	 shl	 edx, 2
  00104	52		 push	 edx
  00105	50		 push	 eax
  00106	8b ce		 mov	 ecx, esi
  00108	e8 00 00 00 00	 call	 ?Read@CAr@@QAEXPAXI@Z	; CAr::Read

; 932  : 		// Clear
; 933  : 		for( u_long i = 0; i < m_dwItemMax; i++ )

  0010d	8b 47 0c	 mov	 eax, DWORD PTR [edi+12]
  00110	33 db		 xor	 ebx, ebx
  00112	85 c0		 test	 eax, eax
  00114	76 1b		 jbe	 SHORT $L251963

; 928  : 	}
; 929  : 	else
; 930  : 	{
; 931  : 		ar.Read( m_apIndex, sizeof(DWORD) * m_dwItemMax );

  00116	33 ed		 xor	 ebp, ebp
$L251961:

; 934  : 			m_apItem[i].Empty();

  00118	8b 4f 10	 mov	 ecx, DWORD PTR [edi+16]
  0011b	8b 14 29	 mov	 edx, DWORD PTR [ecx+ebp]
  0011e	03 cd		 add	 ecx, ebp
  00120	ff 52 0c	 call	 DWORD PTR [edx+12]
  00123	8b 47 0c	 mov	 eax, DWORD PTR [edi+12]
  00126	43		 inc	 ebx
  00127	81 c5 b8 00 00
	00		 add	 ebp, 184		; 000000b8H
  0012d	3b d8		 cmp	 ebx, eax
  0012f	72 e7		 jb	 SHORT $L251961
$L251963:

; 935  : 
; 936  : 		ar >> chSize;

  00131	8b 46 08	 mov	 eax, DWORD PTR [esi+8]
  00134	8b 56 0c	 mov	 edx, DWORD PTR [esi+12]
  00137	8d 48 01	 lea	 ecx, DWORD PTR [eax+1]
  0013a	3b ca		 cmp	 ecx, edx
  0013c	77 07		 ja	 SHORT $L254983
  0013e	8a 00		 mov	 al, BYTE PTR [eax]
  00140	89 4e 08	 mov	 DWORD PTR [esi+8], ecx
  00143	eb 05		 jmp	 SHORT $L254984
$L254983:
  00145	32 c0		 xor	 al, al
  00147	89 56 08	 mov	 DWORD PTR [esi+8], edx
$L254984:

; 946  : 		for( i = 0; i < m_dwItemMax; i++ )

  0014a	0f b6 c0	 movzx	 eax, al
  0014d	85 c0		 test	 eax, eax
  0014f	76 33		 jbe	 SHORT $L251967

; 937  : 
; 938  : 		unsigned char ch;
; 939  : 		for( i = 0; i < chSize; i++ )

  00151	8b d8		 mov	 ebx, eax
$L251965:

; 940  : 		{
; 941  : 			ar >> ch;

  00153	8b 46 08	 mov	 eax, DWORD PTR [esi+8]
  00156	8b 56 0c	 mov	 edx, DWORD PTR [esi+12]
  00159	8d 48 01	 lea	 ecx, DWORD PTR [eax+1]
  0015c	3b ca		 cmp	 ecx, edx
  0015e	77 07		 ja	 SHORT $L254988
  00160	8a 00		 mov	 al, BYTE PTR [eax]
  00162	89 4e 08	 mov	 DWORD PTR [esi+8], ecx
  00165	eb 05		 jmp	 SHORT $L254989
$L254988:
  00167	32 c0		 xor	 al, al
  00169	89 56 08	 mov	 DWORD PTR [esi+8], edx
$L254989:

; 942  : 			m_apItem[ch].Serialize( ar );

  0016c	8b 4f 10	 mov	 ecx, DWORD PTR [edi+16]
  0016f	0f b6 c0	 movzx	 eax, al
  00172	69 c0 b8 00 00
	00		 imul	 eax, 184		; 000000b8H
  00178	8b 14 01	 mov	 edx, DWORD PTR [ecx+eax]
  0017b	03 c8		 add	 ecx, eax
  0017d	56		 push	 esi
  0017e	ff 52 08	 call	 DWORD PTR [edx+8]
  00181	4b		 dec	 ebx
  00182	75 cf		 jne	 SHORT $L251965
$L251967:

; 943  : 		}
; 944  : 
; 945  : 		ar.Read( adwObjIndex, sizeof(DWORD) * m_dwItemMax );

  00184	8b 47 0c	 mov	 eax, DWORD PTR [edi+12]
  00187	c1 e0 02	 shl	 eax, 2
  0018a	50		 push	 eax
  0018b	8d 4c 24 24	 lea	 ecx, DWORD PTR _adwObjIndex$[esp+548]
  0018f	51		 push	 ecx
  00190	8b ce		 mov	 ecx, esi
  00192	e8 00 00 00 00	 call	 ?Read@CAr@@QAEXPAXI@Z	; CAr::Read

; 946  : 		for( i = 0; i < m_dwItemMax; i++ )

  00197	8b 4f 0c	 mov	 ecx, DWORD PTR [edi+12]
  0019a	33 c0		 xor	 eax, eax
  0019c	85 c9		 test	 ecx, ecx
  0019e	76 1b		 jbe	 SHORT $L251971

; 943  : 		}
; 944  : 
; 945  : 		ar.Read( adwObjIndex, sizeof(DWORD) * m_dwItemMax );

  001a0	33 c9		 xor	 ecx, ecx
$L251969:

; 947  : 		{
; 948  : 			m_apItem[i].m_dwObjIndex	= adwObjIndex[i];

  001a2	8b 57 10	 mov	 edx, DWORD PTR [edi+16]
  001a5	8b 74 84 20	 mov	 esi, DWORD PTR _adwObjIndex$[esp+eax*4+544]
  001a9	89 74 11 08	 mov	 DWORD PTR [ecx+edx+8], esi
  001ad	8b 57 0c	 mov	 edx, DWORD PTR [edi+12]
  001b0	40		 inc	 eax
  001b1	81 c1 b8 00 00
	00		 add	 ecx, 184		; 000000b8H
  001b7	3b c2		 cmp	 eax, edx
  001b9	72 e7		 jb	 SHORT $L251969
$L251971:
  001bb	5f		 pop	 edi
  001bc	5e		 pop	 esi
  001bd	5d		 pop	 ebp
  001be	5b		 pop	 ebx

; 949  : 		}
; 950  : 	}
; 951  : }

  001bf	81 c4 10 02 00
	00		 add	 esp, 528		; 00000210H
  001c5	c2 04 00	 ret	 4
?Serialize@?$CItemContainer@VCItemElem@@@@QAEXAAVCAr@@@Z ENDP ; CItemContainer<CItemElem>::Serialize
_TEXT	ENDS
PUBLIC	??$copy_backward@PAU_PocketController_Result@@PAU1@@std@@YAPAU_PocketController_Result@@PAU1@00@Z ; std::copy_backward<_PocketController_Result *,_PocketController_Result *>
; Function compile flags: /Ogty
; File c:\program files\microsoft visual studio .net 2003\vc7\include\xutility
;	COMDAT ??$copy_backward@PAU_PocketController_Result@@PAU1@@std@@YAPAU_PocketController_Result@@PAU1@00@Z
_TEXT	SEGMENT
__Cat$255007 = -4					; size = 1
__First$ = 8						; size = 4
__Last$ = 12						; size = 4
__Dest$ = 16						; size = 4
??$copy_backward@PAU_PocketController_Result@@PAU1@@std@@YAPAU_PocketController_Result@@PAU1@00@Z PROC NEAR ; std::copy_backward<_PocketController_Result *,_PocketController_Result *>, COMDAT

; 1067 : 	{	// copy [_First, _Last) backwards to [..., _Dest)

  00000	51		 push	 ecx

; 1068 : 	return (_Copy_backward_opt(_First, _Last, _Dest,
; 1069 : 		_Ptr_cat(_First, _Dest)));

  00001	8b 04 24	 mov	 eax, DWORD PTR __Cat$255007[esp+4]
  00004	8b 4c 24 10	 mov	 ecx, DWORD PTR __Dest$[esp]
  00008	8b 54 24 0c	 mov	 edx, DWORD PTR __Last$[esp]
  0000c	50		 push	 eax
  0000d	8b 44 24 0c	 mov	 eax, DWORD PTR __First$[esp+4]
  00011	51		 push	 ecx
  00012	52		 push	 edx
  00013	50		 push	 eax
  00014	e8 00 00 00 00	 call	 ??$_Copy_backward_opt@PAU_PocketController_Result@@PAU1@@std@@YAPAU_PocketController_Result@@PAU1@00U_Nonscalar_ptr_iterator_tag@0@@Z ; std::_Copy_backward_opt<_PocketController_Result *,_PocketController_Result *>

; 1070 : 	}

  00019	83 c4 14	 add	 esp, 20			; 00000014H
  0001c	c3		 ret	 0
??$copy_backward@PAU_PocketController_Result@@PAU1@@std@@YAPAU_PocketController_Result@@PAU1@00@Z ENDP ; std::copy_backward<_PocketController_Result *,_PocketController_Result *>
_TEXT	ENDS
PUBLIC	?IsFull@?$CItemContainer@VCItemElem@@@@QAEHPAVCItemElem@@PAUItemProp@@F@Z ; CItemContainer<CItemElem>::IsFull
; Function compile flags: /Ogty
; File c:\documents and settings\test\mes documents\source\virtuos_v17\build\program\_common\item.h
;	COMDAT ?IsFull@?$CItemContainer@VCItemElem@@@@QAEHPAVCItemElem@@PAUItemProp@@F@Z
_TEXT	SEGMENT
_i$252978 = -4						; size = 4
_pElem$ = 8						; size = 4
_pItemProp$ = 12					; size = 4
tv285 = 16						; size = 4
_nNum$ = 16						; size = 2
?IsFull@?$CItemContainer@VCItemElem@@@@QAEHPAVCItemElem@@PAUItemProp@@F@Z PROC NEAR ; CItemContainer<CItemElem>::IsFull, COMDAT
; _this$ = ecx

; 631  : {

  00000	51		 push	 ecx

; 632  : 	int nId;
; 633  : 	short nNumtmp	= nNum;
; 634  : 	CItemElem* pElemtmp;
; 635  : 	for( DWORD i = 0; i < m_dwIndexNum; i++ )

  00001	8b 41 08	 mov	 eax, DWORD PTR [ecx+8]
  00004	85 c0		 test	 eax, eax
  00006	53		 push	 ebx
  00007	55		 push	 ebp
  00008	56		 push	 esi
  00009	8b 74 24 1c	 mov	 esi, DWORD PTR _nNum$[esp+12]
  0000d	57		 push	 edi
  0000e	c7 44 24 10 00
	00 00 00	 mov	 DWORD PTR _i$252978[esp+20], 0
  00016	0f 86 a8 00 00
	00		 jbe	 $L252981
  0001c	8b 41 04	 mov	 eax, DWORD PTR [ecx+4]
  0001f	8b 7c 24 1c	 mov	 edi, DWORD PTR _pItemProp$[esp+16]
  00023	8b 6c 24 18	 mov	 ebp, DWORD PTR _pElem$[esp+16]
  00027	89 44 24 20	 mov	 DWORD PTR tv285[esp+16], eax
  0002b	eb 03 8d 49 00	 npad	 5
$L255017:

; 636  : 	{
; 637  : 		nId	= m_apIndex[i];

  00030	8b 54 24 20	 mov	 edx, DWORD PTR tv285[esp+16]
  00034	8b 02		 mov	 eax, DWORD PTR [edx]

; 638  : 		if( nId < 0 || nId >= (int)( m_dwItemMax ) )

  00036	85 c0		 test	 eax, eax
  00038	7c 6b		 jl	 SHORT $L252980
  0003a	3b 41 0c	 cmp	 eax, DWORD PTR [ecx+12]
  0003d	7d 66		 jge	 SHORT $L252980

; 639  : 			continue;
; 640  : 		pElemtmp	= (CItemElem*)&m_apItem[nId];

  0003f	8b 51 10	 mov	 edx, DWORD PTR [ecx+16]
  00042	69 c0 b8 00 00
	00		 imul	 eax, 184		; 000000b8H
  00048	03 c2		 add	 eax, edx

; 641  : 		if( pElemtmp->IsEmpty() )

  0004a	8b 50 0c	 mov	 edx, DWORD PTR [eax+12]
  0004d	85 d2		 test	 edx, edx
  0004f	75 0f		 jne	 SHORT $L252986

; 642  : 		{
; 643  : 			if( nNumtmp > (short)pItemProp->dwPackMax )
; 644  : 				nNumtmp		-= (short)pItemProp->dwPackMax;

  00051	33 c0		 xor	 eax, eax
  00053	66 8b 47 6c	 mov	 ax, WORD PTR [edi+108]
  00057	66 3b f0	 cmp	 si, ax
  0005a	7e 75		 jle	 SHORT $L252994
  0005c	2b f0		 sub	 esi, eax

; 645  : 			else
; 646  : 				return FALSE;
; 647  : 		}
; 648  : 		else if( pElem->m_dwItemId == pElemtmp->m_dwItemId

  0005e	eb 45		 jmp	 SHORT $L252980
$L252986:

; 649  : 				&& pElem->m_byFlag == pElemtmp->m_byFlag && pElem->m_bCharged == pElemtmp->m_bCharged )

  00060	39 55 0c	 cmp	 DWORD PTR [ebp+12], edx
  00063	75 40		 jne	 SHORT $L252980
  00065	8a 95 82 00 00
	00		 mov	 dl, BYTE PTR [ebp+130]
  0006b	3a 90 82 00 00
	00		 cmp	 dl, BYTE PTR [eax+130]
  00071	75 32		 jne	 SHORT $L252980
  00073	8b 95 ac 00 00
	00		 mov	 edx, DWORD PTR [ebp+172]
  00079	3b 90 ac 00 00
	00		 cmp	 edx, DWORD PTR [eax+172]
  0007f	75 24		 jne	 SHORT $L252980

; 650  : 		{
; 651  : 			if( pElemtmp->m_nItemNum + nNumtmp > (short)pItemProp->dwPackMax )

  00081	0f bf 80 80 00
	00 00		 movsx	 eax, WORD PTR [eax+128]
  00088	0f bf ee	 movsx	 ebp, si
  0008b	0f bf d8	 movsx	 ebx, ax

; 652  : 				nNumtmp	-= ( (short)pItemProp->dwPackMax - pElemtmp->m_nItemNum );

  0008e	33 d2		 xor	 edx, edx
  00090	66 8b 57 6c	 mov	 dx, WORD PTR [edi+108]
  00094	03 dd		 add	 ebx, ebp
  00096	0f bf ea	 movsx	 ebp, dx
  00099	3b dd		 cmp	 ebx, ebp
  0009b	7e 34		 jle	 SHORT $L252994
  0009d	8b 6c 24 18	 mov	 ebp, DWORD PTR _pElem$[esp+16]
  000a1	2b c2		 sub	 eax, edx
  000a3	03 f0		 add	 esi, eax
$L252980:
  000a5	8b 44 24 10	 mov	 eax, DWORD PTR _i$252978[esp+20]
  000a9	8b 5c 24 20	 mov	 ebx, DWORD PTR tv285[esp+16]
  000ad	8b 51 08	 mov	 edx, DWORD PTR [ecx+8]
  000b0	40		 inc	 eax
  000b1	83 c3 04	 add	 ebx, 4
  000b4	3b c2		 cmp	 eax, edx
  000b6	89 44 24 10	 mov	 DWORD PTR _i$252978[esp+20], eax
  000ba	89 5c 24 20	 mov	 DWORD PTR tv285[esp+16], ebx
  000be	0f 82 6c ff ff
	ff		 jb	 $L255017
$L252981:
  000c4	5f		 pop	 edi
  000c5	5e		 pop	 esi
  000c6	5d		 pop	 ebp

; 655  : 		}
; 656  : 	}
; 657  : 
; 658  : 	return TRUE;

  000c7	b8 01 00 00 00	 mov	 eax, 1
  000cc	5b		 pop	 ebx

; 659  : }

  000cd	59		 pop	 ecx
  000ce	c2 0c 00	 ret	 12			; 0000000cH
$L252994:
  000d1	5f		 pop	 edi
  000d2	5e		 pop	 esi
  000d3	5d		 pop	 ebp

; 653  : 			else
; 654  : 				return FALSE;

  000d4	33 c0		 xor	 eax, eax
  000d6	5b		 pop	 ebx

; 659  : }

  000d7	59		 pop	 ecx
  000d8	c2 0c 00	 ret	 12			; 0000000cH
?IsFull@?$CItemContainer@VCItemElem@@@@QAEHPAVCItemElem@@PAUItemProp@@F@Z ENDP ; CItemContainer<CItemElem>::IsFull
_TEXT	ENDS
PUBLIC	?construct@?$allocator@U_PocketController_Result@@@std@@QAEXPAU_PocketController_Result@@ABU3@@Z ; std::allocator<_PocketController_Result>::construct
; Function compile flags: /Ogty
; File c:\program files\microsoft visual studio .net 2003\vc7\include\xmemory
;	COMDAT ?construct@?$allocator@U_PocketController_Result@@@std@@QAEXPAU_PocketController_Result@@ABU3@@Z
_TEXT	SEGMENT
__Ptr$ = 8						; size = 4
__Val$ = 12						; size = 4
?construct@?$allocator@U_PocketController_Result@@@std@@QAEXPAU_PocketController_Result@@ABU3@@Z PROC NEAR ; std::allocator<_PocketController_Result>::construct, COMDAT
; _this$ = ecx

; 147  : 		_Construct(_Ptr, _Val);

  00000	8b 44 24 04	 mov	 eax, DWORD PTR __Ptr$[esp-4]
  00004	85 c0		 test	 eax, eax
  00006	74 14		 je	 SHORT $L255030
  00008	8b 4c 24 08	 mov	 ecx, DWORD PTR __Val$[esp-4]
  0000c	8b 11		 mov	 edx, DWORD PTR [ecx]
  0000e	89 10		 mov	 DWORD PTR [eax], edx
  00010	8b 51 04	 mov	 edx, DWORD PTR [ecx+4]
  00013	89 50 04	 mov	 DWORD PTR [eax+4], edx
  00016	8b 49 08	 mov	 ecx, DWORD PTR [ecx+8]
  00019	89 48 08	 mov	 DWORD PTR [eax+8], ecx
$L255030:

; 148  : 		}

  0001c	c2 08 00	 ret	 8
?construct@?$allocator@U_PocketController_Result@@@std@@QAEXPAU_PocketController_Result@@ABU3@@Z ENDP ; std::allocator<_PocketController_Result>::construct
_TEXT	ENDS
PUBLIC	?destroy@?$allocator@U_PocketController_Result@@@std@@QAEXPAU_PocketController_Result@@@Z ; std::allocator<_PocketController_Result>::destroy
; Function compile flags: /Ogty
;	COMDAT ?destroy@?$allocator@U_PocketController_Result@@@std@@QAEXPAU_PocketController_Result@@@Z
_TEXT	SEGMENT
__Ptr$ = 8						; size = 4
?destroy@?$allocator@U_PocketController_Result@@@std@@QAEXPAU_PocketController_Result@@@Z PROC NEAR ; std::allocator<_PocketController_Result>::destroy, COMDAT
; _this$ = ecx

; 152  : 		_Destroy(_Ptr);
; 153  : 		}

  00000	c2 04 00	 ret	 4
?destroy@?$allocator@U_PocketController_Result@@@std@@QAEXPAU_PocketController_Result@@@Z ENDP ; std::allocator<_PocketController_Result>::destroy
_TEXT	ENDS
PUBLIC	??$_Uninit_copy@PAU_PocketController_Result@@PAU1@V?$allocator@U_PocketController_Result@@@std@@@std@@YAPAU_PocketController_Result@@PAU1@00AAV?$allocator@U_PocketController_Result@@@0@U_Nonscalar_ptr_iterator_tag@0@@Z ; std::_Uninit_copy<_PocketController_Result *,_PocketController_Result *,std::allocator<_PocketController_Result> >
EXTRN	__CxxThrowException@8:NEAR
; Function compile flags: /Ogty
; File c:\program files\microsoft visual studio .net 2003\vc7\include\memory
;	COMDAT ??$_Uninit_copy@PAU_PocketController_Result@@PAU1@V?$allocator@U_PocketController_Result@@@std@@@std@@YAPAU_PocketController_Result@@PAU1@00AAV?$allocator@U_PocketController_Result@@@0@U_Nonscalar_ptr_iterator_tag@0@@Z
_TEXT	SEGMENT
__First$ = 8						; size = 4
__Last$ = 12						; size = 4
__Dest$ = 16						; size = 4
__Al$ = 20						; size = 4
___formal$ = 24						; size = 1
??$_Uninit_copy@PAU_PocketController_Result@@PAU1@V?$allocator@U_PocketController_Result@@@std@@@std@@YAPAU_PocketController_Result@@PAU1@00AAV?$allocator@U_PocketController_Result@@@0@U_Nonscalar_ptr_iterator_tag@0@@Z PROC NEAR ; std::_Uninit_copy<_PocketController_Result *,_PocketController_Result *,std::allocator<_PocketController_Result> >, COMDAT

; 78   : 	_FwdIt _Next = _Dest;
; 79   : 
; 80   : 	_TRY_BEGIN
; 81   : 	for (; _First != _Last; ++_Dest, ++_First)

  00000	8b 4c 24 04	 mov	 ecx, DWORD PTR __First$[esp-4]
  00004	8b 54 24 08	 mov	 edx, DWORD PTR __Last$[esp-4]
  00008	3b ca		 cmp	 ecx, edx
  0000a	8b 44 24 0c	 mov	 eax, DWORD PTR __Dest$[esp-4]
  0000e	74 28		 je	 SHORT $L253399
  00010	53		 push	 ebx
  00011	56		 push	 esi
  00012	57		 push	 edi
$L253397:

; 82   : 		_Al.construct(_Dest, *_First);

  00013	85 c0		 test	 eax, eax
  00015	74 14		 je	 SHORT $L253398
  00017	8b f1		 mov	 esi, ecx
  00019	8b 1e		 mov	 ebx, DWORD PTR [esi]
  0001b	8b f8		 mov	 edi, eax
  0001d	89 1f		 mov	 DWORD PTR [edi], ebx
  0001f	8b 5e 04	 mov	 ebx, DWORD PTR [esi+4]
  00022	89 5f 04	 mov	 DWORD PTR [edi+4], ebx
  00025	8b 76 08	 mov	 esi, DWORD PTR [esi+8]
  00028	89 77 08	 mov	 DWORD PTR [edi+8], esi
$L253398:
  0002b	83 c1 0c	 add	 ecx, 12			; 0000000cH
  0002e	83 c0 0c	 add	 eax, 12			; 0000000cH
  00031	3b ca		 cmp	 ecx, edx
  00033	75 de		 jne	 SHORT $L253397
  00035	5f		 pop	 edi
  00036	5e		 pop	 esi
  00037	5b		 pop	 ebx
$L253399:

; 83   : 	_CATCH_ALL
; 84   : 	for (; _Next != _Dest; ++_Next)
; 85   : 		_Al.destroy(_Next);
; 86   : 	_RERAISE;
; 87   : 	_CATCH_END
; 88   : 	return (_Dest);
; 89   : 	}

  00038	c3		 ret	 0
??$_Uninit_copy@PAU_PocketController_Result@@PAU1@V?$allocator@U_PocketController_Result@@@std@@@std@@YAPAU_PocketController_Result@@PAU1@00AAV?$allocator@U_PocketController_Result@@@0@U_Nonscalar_ptr_iterator_tag@0@@Z ENDP ; std::_Uninit_copy<_PocketController_Result *,_PocketController_Result *,std::allocator<_PocketController_Result> >
_TEXT	ENDS
PUBLIC	??_C@_0BI@BEIFNGEL@GetItemProp?5range_error?$AA@ ; `string'
PUBLIC	?GetItemProp@CProject@@QAEPAUItemProp@@H@Z	; CProject::GetItemProp
;	COMDAT ??_C@_0BI@BEIFNGEL@GetItemProp?5range_error?$AA@
; File c:\documents and settings\test\mes documents\source\virtuos_v17\build\program\_common\data.h
CONST	SEGMENT
??_C@_0BI@BEIFNGEL@GetItemProp?5range_error?$AA@ DB 'GetItemProp range_er'
	DB	'ror', 00H					; `string'
; Function compile flags: /Ogty
; File c:\documents and settings\test\mes documents\source\virtuos_v17\build\program\_common\project.h
CONST	ENDS
;	COMDAT ?GetItemProp@CProject@@QAEPAUItemProp@@H@Z
_TEXT	SEGMENT
_nIndex$ = 8						; size = 4
?GetItemProp@CProject@@QAEPAUItemProp@@H@Z PROC NEAR	; CProject::GetItemProp, COMDAT
; _this$ = ecx

; 1364 : 	VERIFY_RANGE_ASSERT( nIndex, 0, m_aPropItem.GetSize(), "GetItemProp range_error", NULL );

  00000	8b 44 24 04	 mov	 eax, DWORD PTR _nIndex$[esp-4]
  00004	85 c0		 test	 eax, eax
  00006	7c 1a		 jl	 SHORT $L197914
  00008	8b 91 5c 02 00
	00		 mov	 edx, DWORD PTR [ecx+604]
  0000e	3b c2		 cmp	 eax, edx
  00010	7d 10		 jge	 SHORT $L197914

; 1365 : 	return m_aPropItem.GetAt( nIndex ); 

  00012	3b c2		 cmp	 eax, edx
  00014	73 28		 jae	 SHORT $L255100
  00016	8b 89 4c 02 00
	00		 mov	 ecx, DWORD PTR [ecx+588]
  0001c	8b 04 81	 mov	 eax, DWORD PTR [ecx+eax*4]

; 1366 : }

  0001f	c2 04 00	 ret	 4
$L197914:

; 1364 : 	VERIFY_RANGE_ASSERT( nIndex, 0, m_aPropItem.GetSize(), "GetItemProp range_error", NULL );

  00022	8b 91 5c 02 00
	00		 mov	 edx, DWORD PTR [ecx+604]
  00028	50		 push	 eax
  00029	52		 push	 edx
  0002a	6a 00		 push	 0
  0002c	68 00 00 00 00	 push	 OFFSET FLAT:??_C@_0BI@BEIFNGEL@GetItemProp?5range_error?$AA@
  00031	68 00 00 00 00	 push	 OFFSET FLAT:??_C@_0BM@HMFGHCP@?$CFs?5min?3?$CFd?0?5max?3?$CFd?0?5index?3?$CFd?$AA@
  00036	e8 00 00 00 00	 call	 ?Error@@YAPBDPBDZZ	; Error
  0003b	83 c4 14	 add	 esp, 20			; 00000014H
$L255100:
  0003e	33 c0		 xor	 eax, eax

; 1366 : }

  00040	c2 04 00	 ret	 4
?GetItemProp@CProject@@QAEPAUItemProp@@H@Z ENDP		; CProject::GetItemProp
_TEXT	ENDS
PUBLIC	?GetPropA@CItemElem@@QAEPAUItemProp@@XZ		; CItemElem::GetPropA
EXTRN	?prj@@3VCProject@@A:BYTE			; prj
; Function compile flags: /Ogty
; File c:\documents and settings\test\mes documents\source\virtuos_v17\build\program\_common\item.h
;	COMDAT ?GetPropA@CItemElem@@QAEPAUItemProp@@XZ
_TEXT	SEGMENT
?GetPropA@CItemElem@@QAEPAUItemProp@@XZ PROC NEAR	; CItemElem::GetPropA, COMDAT
; _this$ = ecx

; 229  : 	ItemProp*	GetProp()	{	return prj.GetItemProp( m_dwItemId );	}

  00000	8b 41 0c	 mov	 eax, DWORD PTR [ecx+12]
  00003	85 c0		 test	 eax, eax
  00005	8b 0d 5c 02 00
	00		 mov	 ecx, DWORD PTR ?prj@@3VCProject@@A+604
  0000b	7c 10		 jl	 SHORT $L255144
  0000d	3b c1		 cmp	 eax, ecx
  0000f	7d 0c		 jge	 SHORT $L255144
  00011	73 20		 jae	 SHORT $L255147
  00013	8b 0d 4c 02 00
	00		 mov	 ecx, DWORD PTR ?prj@@3VCProject@@A+588
  00019	8b 04 81	 mov	 eax, DWORD PTR [ecx+eax*4]
  0001c	c3		 ret	 0
$L255144:
  0001d	50		 push	 eax
  0001e	51		 push	 ecx
  0001f	6a 00		 push	 0
  00021	68 00 00 00 00	 push	 OFFSET FLAT:??_C@_0BI@BEIFNGEL@GetItemProp?5range_error?$AA@
  00026	68 00 00 00 00	 push	 OFFSET FLAT:??_C@_0BM@HMFGHCP@?$CFs?5min?3?$CFd?0?5max?3?$CFd?0?5index?3?$CFd?$AA@
  0002b	e8 00 00 00 00	 call	 ?Error@@YAPBDPBDZZ	; Error
  00030	83 c4 14	 add	 esp, 20			; 00000014H
$L255147:
  00033	33 c0		 xor	 eax, eax
  00035	c3		 ret	 0
?GetPropA@CItemElem@@QAEPAUItemProp@@XZ ENDP		; CItemElem::GetPropA
_TEXT	ENDS
PUBLIC	??6CAr@@QAEAAV0@H@Z				; CAr::operator<<
; Function compile flags: /Ogty
; File c:\documents and settings\test\mes documents\source\virtuos_v17\build\program\_network\misc\include\ar.h
;	COMDAT ??6CAr@@QAEAAV0@H@Z
_TEXT	SEGMENT
_i$ = 8							; size = 4
??6CAr@@QAEAAV0@H@Z PROC NEAR				; CAr::operator<<, COMDAT
; _this$ = ecx

; 99   : 	{ return CAr::operator<<((LONG)i); }

  00000	56		 push	 esi
  00001	6a 04		 push	 4
  00003	8b f1		 mov	 esi, ecx
  00005	e8 00 00 00 00	 call	 ?CheckBuf@CAr@@QAEXI@Z	; CAr::CheckBuf
  0000a	8b 46 08	 mov	 eax, DWORD PTR [esi+8]
  0000d	8b 4c 24 08	 mov	 ecx, DWORD PTR _i$[esp]
  00011	89 08		 mov	 DWORD PTR [eax], ecx
  00013	83 46 08 04	 add	 DWORD PTR [esi+8], 4
  00017	8b c6		 mov	 eax, esi
  00019	5e		 pop	 esi
  0001a	c2 04 00	 ret	 4
??6CAr@@QAEAAV0@H@Z ENDP				; CAr::operator<<
_TEXT	ENDS
PUBLIC	??5CAr@@QAEAAV0@AAH@Z				; CAr::operator>>
; Function compile flags: /Ogty
;	COMDAT ??5CAr@@QAEAAV0@AAH@Z
_TEXT	SEGMENT
_i$ = 8							; size = 4
??5CAr@@QAEAAV0@AAH@Z PROC NEAR				; CAr::operator>>, COMDAT
; _this$ = ecx

; 126  : 	{ return CAr::operator>>((LONG&)i); }

  00000	8b c1		 mov	 eax, ecx
  00002	8b 48 08	 mov	 ecx, DWORD PTR [eax+8]
  00005	56		 push	 esi
  00006	8b 70 0c	 mov	 esi, DWORD PTR [eax+12]
  00009	8d 51 04	 lea	 edx, DWORD PTR [ecx+4]
  0000c	3b d6		 cmp	 edx, esi
  0000e	5e		 pop	 esi
  0000f	77 0f		 ja	 SHORT $L255160
  00011	8b 09		 mov	 ecx, DWORD PTR [ecx]
  00013	8b 54 24 04	 mov	 edx, DWORD PTR _i$[esp-4]
  00017	89 0a		 mov	 DWORD PTR [edx], ecx
  00019	83 40 08 04	 add	 DWORD PTR [eax+8], 4
  0001d	c2 04 00	 ret	 4
$L255160:
  00020	8b 4c 24 04	 mov	 ecx, DWORD PTR _i$[esp-4]
  00024	c7 01 00 00 00
	00		 mov	 DWORD PTR [ecx], 0
  0002a	8b 50 0c	 mov	 edx, DWORD PTR [eax+12]
  0002d	89 50 08	 mov	 DWORD PTR [eax+8], edx
  00030	c2 04 00	 ret	 4
??5CAr@@QAEAAV0@AAH@Z ENDP				; CAr::operator>>
_TEXT	ENDS
PUBLIC	??0?$_String_val@DV?$allocator@D@std@@@std@@IAE@V?$allocator@D@1@@Z ; std::_String_val<char,std::allocator<char> >::_String_val<char,std::allocator<char> >
; Function compile flags: /Ogty
; File c:\program files\microsoft visual studio .net 2003\vc7\include\xstring
;	COMDAT ??0?$_String_val@DV?$allocator@D@std@@@std@@IAE@V?$allocator@D@1@@Z
_TEXT	SEGMENT
__Al$ = 8						; size = 1
??0?$_String_val@DV?$allocator@D@std@@@std@@IAE@V?$allocator@D@1@@Z PROC NEAR ; std::_String_val<char,std::allocator<char> >::_String_val<char,std::allocator<char> >, COMDAT
; _this$ = ecx

; 34   : 		{	// construct allocator from _Al

  00000	8b c1		 mov	 eax, ecx

; 35   : 		}

  00002	c2 04 00	 ret	 4
??0?$_String_val@DV?$allocator@D@std@@@std@@IAE@V?$allocator@D@1@@Z ENDP ; std::_String_val<char,std::allocator<char> >::_String_val<char,std::allocator<char> >
_TEXT	ENDS
PUBLIC	?_Eos@?$basic_string@DU?$char_traits@D@std@@V?$allocator@D@2@@std@@IAEXI@Z ; std::basic_string<char,std::char_traits<char>,std::allocator<char> >::_Eos
; Function compile flags: /Ogty
;	COMDAT ?_Eos@?$basic_string@DU?$char_traits@D@std@@V?$allocator@D@2@@std@@IAEXI@Z
_TEXT	SEGMENT
__Newsize$ = 8						; size = 4
?_Eos@?$basic_string@DU?$char_traits@D@std@@V?$allocator@D@2@@std@@IAEXI@Z PROC NEAR ; std::basic_string<char,std::char_traits<char>,std::allocator<char> >::_Eos, COMDAT
; _this$ = ecx

; 1475 : 		_Traits::assign(_Myptr()[_Mysize = _Newsize], _Elem());

  00000	83 79 18 10	 cmp	 DWORD PTR [ecx+24], 16	; 00000010H
  00004	8b 44 24 04	 mov	 eax, DWORD PTR __Newsize$[esp-4]
  00008	89 41 14	 mov	 DWORD PTR [ecx+20], eax
  0000b	72 0a		 jb	 SHORT $L255176
  0000d	8b 49 04	 mov	 ecx, DWORD PTR [ecx+4]
  00010	c6 04 01 00	 mov	 BYTE PTR [ecx+eax], 0

; 1476 : 		}

  00014	c2 04 00	 ret	 4

; 1475 : 		_Traits::assign(_Myptr()[_Mysize = _Newsize], _Elem());

$L255176:
  00017	c6 44 01 04 00	 mov	 BYTE PTR [ecx+eax+4], 0

; 1476 : 		}

  0001c	c2 04 00	 ret	 4
?_Eos@?$basic_string@DU?$char_traits@D@std@@V?$allocator@D@2@@std@@IAEXI@Z ENDP ; std::basic_string<char,std::char_traits<char>,std::allocator<char> >::_Eos
_TEXT	ENDS
PUBLIC	?max_size@?$basic_string@DU?$char_traits@D@std@@V?$allocator@D@2@@std@@QBEIXZ ; std::basic_string<char,std::char_traits<char>,std::allocator<char> >::max_size
; Function compile flags: /Ogty
;	COMDAT ?max_size@?$basic_string@DU?$char_traits@D@std@@V?$allocator@D@2@@std@@QBEIXZ
_TEXT	SEGMENT
?max_size@?$basic_string@DU?$char_traits@D@std@@V?$allocator@D@2@@std@@QBEIXZ PROC NEAR ; std::basic_string<char,std::char_traits<char>,std::allocator<char> >::max_size, COMDAT
; _this$ = ecx

; 1114 : 		size_type _Num = _Mybase::_Alval.max_size();
; 1115 : 		return (_Num <= 1 ? 1 : _Num - 1);

  00000	b8 fe ff ff ff	 mov	 eax, -2			; fffffffeH

; 1116 : 		}

  00005	c3		 ret	 0
?max_size@?$basic_string@DU?$char_traits@D@std@@V?$allocator@D@2@@std@@QBEIXZ ENDP ; std::basic_string<char,std::char_traits<char>,std::allocator<char> >::max_size
_TEXT	ENDS
PUBLIC	?allocate@?$allocator@D@std@@QAEPADI@Z		; std::allocator<char>::allocate
; Function compile flags: /Ogty
; File c:\program files\microsoft visual studio .net 2003\vc7\include\xmemory
;	COMDAT ?allocate@?$allocator@D@std@@QAEPADI@Z
_TEXT	SEGMENT
__Count$ = 8						; size = 4
?allocate@?$allocator@D@std@@QAEPADI@Z PROC NEAR	; std::allocator<char>::allocate, COMDAT
; _this$ = ecx

; 137  : 		return (_Allocate(_Count, (pointer)0));

  00000	8b 44 24 04	 mov	 eax, DWORD PTR __Count$[esp-4]
  00004	50		 push	 eax
  00005	e8 00 00 00 00	 call	 ??2@YAPAXI@Z		; operator new
  0000a	83 c4 04	 add	 esp, 4

; 138  : 		}

  0000d	c2 04 00	 ret	 4
?allocate@?$allocator@D@std@@QAEPADI@Z ENDP		; std::allocator<char>::allocate
; Function compile flags: /Ogty
_TEXT	ENDS
;	COMDAT ??_GCPocket@@UAEPAXI@Z
_TEXT	SEGMENT
___flags$ = 8						; size = 4
??_GCPocket@@UAEPAXI@Z PROC NEAR			; CPocket::`scalar deleting destructor', COMDAT
; _this$ = ecx
  00000	56		 push	 esi
  00001	8b f1		 mov	 esi, ecx
  00003	e8 00 00 00 00	 call	 ??1CPocket@@UAE@XZ	; CPocket::~CPocket
  00008	f6 44 24 08 01	 test	 BYTE PTR ___flags$[esp], 1
  0000d	74 09		 je	 SHORT $L255204
  0000f	56		 push	 esi
  00010	e8 00 00 00 00	 call	 ??3@YAXPAX@Z		; operator delete
  00015	83 c4 04	 add	 esp, 4
$L255204:
  00018	8b c6		 mov	 eax, esi
  0001a	5e		 pop	 esi
  0001b	c2 04 00	 ret	 4
??_GCPocket@@UAEPAXI@Z ENDP				; CPocket::`scalar deleting destructor'
_TEXT	ENDS
PUBLIC	?Copy@CPocket@@QAEXAAV1@@Z			; CPocket::Copy
; Function compile flags: /Ogty
; File c:\documents and settings\test\mes documents\source\virtuos_v17\build\program\_common\pocket.cpp
;	COMDAT ?Copy@CPocket@@QAEXAAV1@@Z
_TEXT	SEGMENT
_rPocket$ = 8						; size = 4
?Copy@CPocket@@QAEXAAV1@@Z PROC NEAR			; CPocket::Copy, COMDAT
; _this$ = ecx

; 22   : {

  00000	56		 push	 esi
  00001	57		 push	 edi

; 23   : 	CItemContainer<CItemElem>::Copy( rPocket );

  00002	8b 7c 24 0c	 mov	 edi, DWORD PTR _rPocket$[esp+4]
  00006	57		 push	 edi
  00007	8b f1		 mov	 esi, ecx
  00009	e8 00 00 00 00	 call	 ?Copy@?$CItemContainer@VCItemElem@@@@QAEXAAV1@@Z ; CItemContainer<CItemElem>::Copy

; 24   : 	m_bExpired	= rPocket.IsExpired();

  0000e	8b 47 14	 mov	 eax, DWORD PTR [edi+20]
  00011	89 46 14	 mov	 DWORD PTR [esi+20], eax

; 25   : 	m_tExpirationDate	= rPocket.GetExpirationDate();

  00014	8b 4f 18	 mov	 ecx, DWORD PTR [edi+24]
  00017	5f		 pop	 edi
  00018	89 4e 18	 mov	 DWORD PTR [esi+24], ecx
  0001b	5e		 pop	 esi

; 26   : }

  0001c	c2 04 00	 ret	 4
?Copy@CPocket@@QAEXAAV1@@Z ENDP				; CPocket::Copy
_TEXT	ENDS
PUBLIC	?Serialize@CPocket@@QAEXAAVCAr@@@Z		; CPocket::Serialize
; Function compile flags: /Ogty
;	COMDAT ?Serialize@CPocket@@QAEXAAVCAr@@@Z
_TEXT	SEGMENT
_ar$ = 8						; size = 4
?Serialize@CPocket@@QAEXAAVCAr@@@Z PROC NEAR		; CPocket::Serialize, COMDAT
; _this$ = ecx

; 29   : {

  00000	53		 push	 ebx
  00001	55		 push	 ebp
  00002	56		 push	 esi

; 30   : 	CItemContainer<CItemElem>::Serialize( ar );

  00003	8b 74 24 10	 mov	 esi, DWORD PTR _ar$[esp+8]
  00007	57		 push	 edi
  00008	56		 push	 esi
  00009	8b f9		 mov	 edi, ecx
  0000b	e8 00 00 00 00	 call	 ?Serialize@?$CItemContainer@VCItemElem@@@@QAEXAAVCAr@@@Z ; CItemContainer<CItemElem>::Serialize

; 31   : 	if( ar.IsStoring() )

  00010	33 c0		 xor	 eax, eax
  00012	8a 06		 mov	 al, BYTE PTR [esi]

; 32   : 	{
; 33   : 		ar << m_bExpired << m_tExpirationDate;

  00014	bd 04 00 00 00	 mov	 ebp, 4
  00019	f7 d0		 not	 eax
  0001b	a8 01		 test	 al, 1
  0001d	74 51		 je	 SHORT $L249020
  0001f	8b 5f 14	 mov	 ebx, DWORD PTR [edi+20]
  00022	55		 push	 ebp
  00023	8b ce		 mov	 ecx, esi
  00025	e8 00 00 00 00	 call	 ?CheckBuf@CAr@@QAEXI@Z	; CAr::CheckBuf
  0002a	8b 4e 08	 mov	 ecx, DWORD PTR [esi+8]
  0002d	89 19		 mov	 DWORD PTR [ecx], ebx
  0002f	01 6e 08	 add	 DWORD PTR [esi+8], ebp
  00032	8b 5f 18	 mov	 ebx, DWORD PTR [edi+24]
  00035	55		 push	 ebp
  00036	8b ce		 mov	 ecx, esi
  00038	e8 00 00 00 00	 call	 ?CheckBuf@CAr@@QAEXI@Z	; CAr::CheckBuf
  0003d	8b 56 08	 mov	 edx, DWORD PTR [esi+8]
  00040	89 1a		 mov	 DWORD PTR [edx], ebx
  00042	01 6e 08	 add	 DWORD PTR [esi+8], ebp

; 34   : 		if( m_tExpirationDate )

  00045	8b 7f 18	 mov	 edi, DWORD PTR [edi+24]
  00048	85 ff		 test	 edi, edi
  0004a	74 7b		 je	 SHORT $L255264

; 35   : 		{
; 36   : 			time_t	t	= m_tExpirationDate - time_null();

  0004c	8b 15 00 00 00
	00		 mov	 edx, DWORD PTR ?g_tCurrent@@3JA ; g_tCurrent

; 37   : 			ar << t;

  00052	55		 push	 ebp
  00053	8b ce		 mov	 ecx, esi
  00055	2b fa		 sub	 edi, edx
  00057	e8 00 00 00 00	 call	 ?CheckBuf@CAr@@QAEXI@Z	; CAr::CheckBuf
  0005c	8b 46 08	 mov	 eax, DWORD PTR [esi+8]
  0005f	89 38		 mov	 DWORD PTR [eax], edi
  00061	8b 46 08	 mov	 eax, DWORD PTR [esi+8]
  00064	03 c5		 add	 eax, ebp
$L255265:
  00066	5f		 pop	 edi
  00067	89 46 08	 mov	 DWORD PTR [esi+8], eax
  0006a	5e		 pop	 esi
  0006b	5d		 pop	 ebp
  0006c	5b		 pop	 ebx

; 47   : #ifdef __CLIENT
; 48   : 			m_tExpirationDate	= time_null() + t;
; 49   : #endif	// __CLIENT
; 50   : 		}
; 51   : 	}
; 52   : }

  0006d	c2 04 00	 ret	 4
$L249020:

; 38   : 		}
; 39   : 	}
; 40   : 	else
; 41   : 	{
; 42   : 		ar >> m_bExpired >> m_tExpirationDate;

  00070	8b 46 08	 mov	 eax, DWORD PTR [esi+8]
  00073	8b 5e 0c	 mov	 ebx, DWORD PTR [esi+12]
  00076	8d 50 04	 lea	 edx, DWORD PTR [eax+4]
  00079	33 c9		 xor	 ecx, ecx
  0007b	3b d3		 cmp	 edx, ebx
  0007d	77 0a		 ja	 SHORT $L255250
  0007f	8b 00		 mov	 eax, DWORD PTR [eax]
  00081	89 47 14	 mov	 DWORD PTR [edi+20], eax
  00084	01 6e 08	 add	 DWORD PTR [esi+8], ebp
  00087	eb 09		 jmp	 SHORT $L255251
$L255250:
  00089	89 4f 14	 mov	 DWORD PTR [edi+20], ecx
  0008c	8b 56 0c	 mov	 edx, DWORD PTR [esi+12]
  0008f	89 56 08	 mov	 DWORD PTR [esi+8], edx
$L255251:
  00092	8b 46 08	 mov	 eax, DWORD PTR [esi+8]
  00095	8b 5e 0c	 mov	 ebx, DWORD PTR [esi+12]
  00098	8d 50 04	 lea	 edx, DWORD PTR [eax+4]
  0009b	3b d3		 cmp	 edx, ebx
  0009d	77 0a		 ja	 SHORT $L255257
  0009f	8b 00		 mov	 eax, DWORD PTR [eax]
  000a1	89 47 18	 mov	 DWORD PTR [edi+24], eax
  000a4	01 6e 08	 add	 DWORD PTR [esi+8], ebp
  000a7	eb 09		 jmp	 SHORT $L255258
$L255257:
  000a9	89 4f 18	 mov	 DWORD PTR [edi+24], ecx
  000ac	8b 56 0c	 mov	 edx, DWORD PTR [esi+12]
  000af	89 56 08	 mov	 DWORD PTR [esi+8], edx
$L255258:

; 43   : 		if( m_tExpirationDate )

  000b2	39 4f 18	 cmp	 DWORD PTR [edi+24], ecx
  000b5	74 10		 je	 SHORT $L255264

; 44   : 		{
; 45   : 			time_t	t;
; 46   : 			ar >> t;

  000b7	8b 46 08	 mov	 eax, DWORD PTR [esi+8]
  000ba	8b 4e 0c	 mov	 ecx, DWORD PTR [esi+12]
  000bd	83 c0 04	 add	 eax, 4
  000c0	3b c1		 cmp	 eax, ecx
  000c2	76 a2		 jbe	 SHORT $L255265
  000c4	89 4e 08	 mov	 DWORD PTR [esi+8], ecx
$L255264:
  000c7	5f		 pop	 edi
  000c8	5e		 pop	 esi
  000c9	5d		 pop	 ebp
  000ca	5b		 pop	 ebx

; 47   : #ifdef __CLIENT
; 48   : 			m_tExpirationDate	= time_null() + t;
; 49   : #endif	// __CLIENT
; 50   : 		}
; 51   : 	}
; 52   : }

  000cb	c2 04 00	 ret	 4
?Serialize@CPocket@@QAEXAAVCAr@@@Z ENDP			; CPocket::Serialize
; Function compile flags: /Ogty
_TEXT	ENDS
;	COMDAT ??_GCPocketController@@UAEPAXI@Z
_TEXT	SEGMENT
___flags$ = 8						; size = 4
??_GCPocketController@@UAEPAXI@Z PROC NEAR		; CPocketController::`scalar deleting destructor', COMDAT
; _this$ = ecx
  00000	56		 push	 esi
  00001	8b f1		 mov	 esi, ecx
  00003	c7 06 00 00 00
	00		 mov	 DWORD PTR [esi], OFFSET FLAT:??_7CPocketController@@6B@
  00009	e8 00 00 00 00	 call	 ?Clear@CPocketController@@QAEXXZ ; CPocketController::Clear
  0000e	f6 44 24 08 01	 test	 BYTE PTR ___flags$[esp], 1
  00013	74 09		 je	 SHORT $L255272
  00015	56		 push	 esi
  00016	e8 00 00 00 00	 call	 ??3@YAXPAX@Z		; operator delete
  0001b	83 c4 04	 add	 esp, 4
$L255272:
  0001e	8b c6		 mov	 eax, esi
  00020	5e		 pop	 esi
  00021	c2 04 00	 ret	 4
??_GCPocketController@@UAEPAXI@Z ENDP			; CPocketController::`scalar deleting destructor'
_TEXT	ENDS
PUBLIC	?Avail@CPocketController@@QAEXHJ@Z		; CPocketController::Avail
; Function compile flags: /Ogty
;	COMDAT ?Avail@CPocketController@@QAEXHJ@Z
_TEXT	SEGMENT
_nPocket$ = 8						; size = 4
_t$ = 12						; size = 4
?Avail@CPocketController@@QAEXHJ@Z PROC NEAR		; CPocketController::Avail, COMDAT
; _this$ = ecx

; 77   : {

  00000	53		 push	 ebx

; 78   : 	time_t tCurrent		= time_null();

  00001	8b 1d 00 00 00
	00		 mov	 ebx, DWORD PTR ?g_tCurrent@@3JA ; g_tCurrent
  00007	55		 push	 ebp
  00008	56		 push	 esi

; 79   : 	if( m_apPocket[nPocket] )

  00009	8b 74 24 10	 mov	 esi, DWORD PTR _nPocket$[esp+8]
  0000d	57		 push	 edi
  0000e	8b f9		 mov	 edi, ecx
  00010	8b 44 b7 08	 mov	 eax, DWORD PTR [edi+esi*4+8]
  00014	33 ed		 xor	 ebp, ebp
  00016	3b c5		 cmp	 eax, ebp
  00018	74 15		 je	 SHORT $L249054

; 80   : 	{
; 81   : 		if( m_apPocket[nPocket]->IsExpired() )

  0001a	39 68 14	 cmp	 DWORD PTR [eax+20], ebp

; 82   : 			m_apPocket[nPocket]->SetExpirationDate( tCurrent + t );

  0001d	8b 4c 24 18	 mov	 ecx, DWORD PTR _t$[esp+12]
  00021	74 07		 je	 SHORT $L249055
  00023	03 d9		 add	 ebx, ecx
  00025	89 58 18	 mov	 DWORD PTR [eax+24], ebx

; 83   : 		else

  00028	eb 5b		 jmp	 SHORT $L255310
$L249055:

; 84   : 			m_apPocket[nPocket]->SetExpirationDate( m_apPocket[nPocket]->GetExpirationDate() + t );

  0002a	01 48 18	 add	 DWORD PTR [eax+24], ecx

; 85   : 	}
; 86   : 	else

  0002d	eb 56		 jmp	 SHORT $L255310
$L249054:

; 87   : 	{
; 88   : 		m_apPocket[nPocket]		= new CPocket;

  0002f	6a 1c		 push	 28			; 0000001cH
  00031	e8 00 00 00 00	 call	 ??2@YAPAXI@Z		; operator new
  00036	83 c4 04	 add	 esp, 4
  00039	3b c5		 cmp	 eax, ebp
  0003b	74 1e		 je	 SHORT $L255278
  0003d	89 68 08	 mov	 DWORD PTR [eax+8], ebp
  00040	89 68 0c	 mov	 DWORD PTR [eax+12], ebp
  00043	89 68 10	 mov	 DWORD PTR [eax+16], ebp
  00046	89 68 04	 mov	 DWORD PTR [eax+4], ebp
  00049	c7 00 00 00 00
	00		 mov	 DWORD PTR [eax], OFFSET FLAT:??_7CPocket@@6B@
  0004f	c7 40 14 01 00
	00 00		 mov	 DWORD PTR [eax+20], 1
  00056	89 68 18	 mov	 DWORD PTR [eax+24], ebp
  00059	eb 02		 jmp	 SHORT $L255279
$L255278:
  0005b	33 c0		 xor	 eax, eax
$L255279:

; 89   : 		m_apPocket[nPocket]->SetItemContainer( 0, nPocket == 0? POCKET_SLOT_SIZE_0: POCKET_SLOT_SIZE_1_2 );

  0005d	8b ce		 mov	 ecx, esi
  0005f	f7 d9		 neg	 ecx
  00061	1b c9		 sbb	 ecx, ecx
  00063	83 e1 12	 and	 ecx, 18			; 00000012H
  00066	6a ff		 push	 -1
  00068	83 c1 06	 add	 ecx, 6
  0006b	51		 push	 ecx
  0006c	55		 push	 ebp
  0006d	8b c8		 mov	 ecx, eax
  0006f	89 44 b7 08	 mov	 DWORD PTR [edi+esi*4+8], eax
  00073	e8 00 00 00 00	 call	 ?SetItemContainer@?$CItemContainer@VCItemElem@@@@QAEXKKK@Z ; CItemContainer<CItemElem>::SetItemContainer

; 90   : 		m_apPocket[nPocket]->SetExpirationDate( tCurrent + t );

  00078	8b 4c 24 18	 mov	 ecx, DWORD PTR _t$[esp+12]
  0007c	8b 54 b7 08	 mov	 edx, DWORD PTR [edi+esi*4+8]
  00080	03 d9		 add	 ebx, ecx
  00082	89 5a 18	 mov	 DWORD PTR [edx+24], ebx
$L255310:

; 91   : 	}
; 92   : 	m_apPocket[nPocket]->SetExpired( FALSE );
; 93   : 
; 94   : 	if( t == 0 )

  00085	3b cd		 cmp	 ecx, ebp
  00087	8b 44 b7 08	 mov	 eax, DWORD PTR [edi+esi*4+8]
  0008b	89 68 14	 mov	 DWORD PTR [eax+20], ebp
  0008e	75 07		 jne	 SHORT $L255318

; 95   : 		m_apPocket[nPocket]->SetExpirationDate( 0 );

  00090	8b 4c b7 08	 mov	 ecx, DWORD PTR [edi+esi*4+8]
  00094	89 69 18	 mov	 DWORD PTR [ecx+24], ebp
$L255318:
  00097	5f		 pop	 edi
  00098	5e		 pop	 esi
  00099	5d		 pop	 ebp
  0009a	5b		 pop	 ebx

; 96   : }

  0009b	c2 08 00	 ret	 8
?Avail@CPocketController@@QAEXHJ@Z ENDP			; CPocketController::Avail
_TEXT	ENDS
PUBLIC	?GetEmptyCount@CPocketController@@QAEHXZ	; CPocketController::GetEmptyCount
; Function compile flags: /Ogty
;	COMDAT ?GetEmptyCount@CPocketController@@QAEHXZ
_TEXT	SEGMENT
_nCount$ = -4						; size = 4
?GetEmptyCount@CPocketController@@QAEHXZ PROC NEAR	; CPocketController::GetEmptyCount, COMDAT
; _this$ = ecx

; 222  : {

  00000	51		 push	 ecx
  00001	53		 push	 ebx
  00002	55		 push	 ebp
  00003	56		 push	 esi
  00004	57		 push	 edi

; 223  : 	int nCount	= 0;

  00005	c7 44 24 10 00
	00 00 00	 mov	 DWORD PTR _nCount$[esp+20], 0
  0000d	8d 59 08	 lea	 ebx, DWORD PTR [ecx+8]
  00010	bd 03 00 00 00	 mov	 ebp, 3
$L255361:

; 224  : 	for( int i = 0; i < MAX_POCKET; i++ )
; 225  : 	{
; 226  : 		if( IsAvailable( i ) )

  00015	8b 13		 mov	 edx, DWORD PTR [ebx]
  00017	85 d2		 test	 edx, edx
  00019	74 32		 je	 SHORT $L249383
  0001b	8b 42 14	 mov	 eax, DWORD PTR [edx+20]
  0001e	85 c0		 test	 eax, eax
  00020	75 2b		 jne	 SHORT $L249383

; 228  : 	}
; 229  : 	return nCount;

  00022	8b 72 0c	 mov	 esi, DWORD PTR [edx+12]
  00025	33 ff		 xor	 edi, edi
  00027	85 f6		 test	 esi, esi
  00029	76 1e		 jbe	 SHORT $L255350
  0002b	8b 4a 10	 mov	 ecx, DWORD PTR [edx+16]
  0002e	83 c1 08	 add	 ecx, 8
$L255360:
  00031	8b 41 04	 mov	 eax, DWORD PTR [ecx+4]
  00034	85 c0		 test	 eax, eax
  00036	75 08		 jne	 SHORT $L255349
  00038	8b 01		 mov	 eax, DWORD PTR [ecx]
  0003a	3b 42 08	 cmp	 eax, DWORD PTR [edx+8]
  0003d	73 01		 jae	 SHORT $L255349

; 227  : 			nCount	+= m_apPocket[i]->GetEmptyCount();

  0003f	47		 inc	 edi
$L255349:
  00040	81 c1 b8 00 00
	00		 add	 ecx, 184		; 000000b8H
  00046	4e		 dec	 esi
  00047	75 e8		 jne	 SHORT $L255360
$L255350:
  00049	01 7c 24 10	 add	 DWORD PTR _nCount$[esp+20], edi
$L249383:
  0004d	83 c3 04	 add	 ebx, 4
  00050	4d		 dec	 ebp
  00051	75 c2		 jne	 SHORT $L255361

; 228  : 	}
; 229  : 	return nCount;

  00053	8b 44 24 10	 mov	 eax, DWORD PTR _nCount$[esp+20]
  00057	5f		 pop	 edi
  00058	5e		 pop	 esi
  00059	5d		 pop	 ebp
  0005a	5b		 pop	 ebx

; 230  : }

  0005b	59		 pop	 ecx
  0005c	c3		 ret	 0
?GetEmptyCount@CPocketController@@QAEHXZ ENDP		; CPocketController::GetEmptyCount
_TEXT	ENDS
PUBLIC	?IsAllClean@CPocketController@@QAEHXZ		; CPocketController::IsAllClean
; Function compile flags: /Ogty
;	COMDAT ?IsAllClean@CPocketController@@QAEHXZ
_TEXT	SEGMENT
_nCount$ = -8						; size = 4
tv332 = -4						; size = 4
?IsAllClean@CPocketController@@QAEHXZ PROC NEAR		; CPocketController::IsAllClean, COMDAT
; _this$ = ecx

; 234  : {

  00000	83 ec 08	 sub	 esp, 8
  00003	53		 push	 ebx
  00004	55		 push	 ebp
  00005	56		 push	 esi
  00006	57		 push	 edi

; 235  : 	int nCount	= 0,nCountMax = 0;

  00007	33 ff		 xor	 edi, edi
  00009	89 7c 24 10	 mov	 DWORD PTR _nCount$[esp+24], edi
  0000d	8d 59 08	 lea	 ebx, DWORD PTR [ecx+8]
  00010	c7 44 24 14 03
	00 00 00	 mov	 DWORD PTR tv332[esp+24], 3
$L255391:

; 236  : 	for( int i = 0; i < MAX_POCKET; i++ )
; 237  : 	{
; 238  : 		if( m_apPocket[i] != NULL )

  00018	8b 0b		 mov	 ecx, DWORD PTR [ebx]
  0001a	85 c9		 test	 ecx, ecx
  0001c	74 38		 je	 SHORT $L249394

; 245  : 		return TRUE;
; 246  : 	else
; 247  : 		return FALSE;

  0001e	8b 51 0c	 mov	 edx, DWORD PTR [ecx+12]
  00021	33 f6		 xor	 esi, esi
  00023	85 d2		 test	 edx, edx
  00025	76 20		 jbe	 SHORT $L255377
  00027	8b 41 10	 mov	 eax, DWORD PTR [ecx+16]
  0002a	83 c0 08	 add	 eax, 8
  0002d	8d 49 00	 npad	 3
$L255390:
  00030	8b 68 04	 mov	 ebp, DWORD PTR [eax+4]
  00033	85 ed		 test	 ebp, ebp
  00035	75 08		 jne	 SHORT $L255376
  00037	8b 28		 mov	 ebp, DWORD PTR [eax]
  00039	3b 69 08	 cmp	 ebp, DWORD PTR [ecx+8]
  0003c	73 01		 jae	 SHORT $L255376

; 239  : 		{
; 240  : 			nCount	+= m_apPocket[i]->GetEmptyCount();

  0003e	46		 inc	 esi
$L255376:
  0003f	05 b8 00 00 00	 add	 eax, 184		; 000000b8H
  00044	4a		 dec	 edx
  00045	75 e9		 jne	 SHORT $L255390
$L255377:
  00047	8b 54 24 10	 mov	 edx, DWORD PTR _nCount$[esp+24]

; 241  : 			nCountMax	+= m_apPocket[i]->GetMax();

  0004b	8b 41 0c	 mov	 eax, DWORD PTR [ecx+12]
  0004e	03 d6		 add	 edx, esi
  00050	89 54 24 10	 mov	 DWORD PTR _nCount$[esp+24], edx
  00054	03 f8		 add	 edi, eax
$L249394:
  00056	8b 44 24 14	 mov	 eax, DWORD PTR tv332[esp+24]
  0005a	83 c3 04	 add	 ebx, 4
  0005d	48		 dec	 eax
  0005e	89 44 24 14	 mov	 DWORD PTR tv332[esp+24], eax
  00062	75 b4		 jne	 SHORT $L255391

; 242  : 		}
; 243  : 	}
; 244  : 	if( nCount == nCountMax)

  00064	8b 4c 24 10	 mov	 ecx, DWORD PTR _nCount$[esp+24]
  00068	33 c0		 xor	 eax, eax
  0006a	3b cf		 cmp	 ecx, edi
  0006c	5f		 pop	 edi
  0006d	5e		 pop	 esi
  0006e	5d		 pop	 ebp
  0006f	0f 94 c0	 sete	 al
  00072	5b		 pop	 ebx

; 248  : }

  00073	83 c4 08	 add	 esp, 8
  00076	c3		 ret	 0
?IsAllClean@CPocketController@@QAEHXZ ENDP		; CPocketController::IsAllClean
_TEXT	ENDS
PUBLIC	?GetCount@CPocketController@@QAEHK@Z		; CPocketController::GetCount
; Function compile flags: /Ogty
;	COMDAT ?GetCount@CPocketController@@QAEHK@Z
_TEXT	SEGMENT
_dwItemId$ = 8						; size = 4
?GetCount@CPocketController@@QAEHK@Z PROC NEAR		; CPocketController::GetCount, COMDAT
; _this$ = ecx

; 251  : {

  00000	53		 push	 ebx
  00001	55		 push	 ebp
  00002	56		 push	 esi
  00003	57		 push	 edi

; 252  : 	int nCount	= 0;

  00004	33 c0		 xor	 eax, eax
  00006	8d 59 08	 lea	 ebx, DWORD PTR [ecx+8]
  00009	bd 03 00 00 00	 mov	 ebp, 3
  0000e	8b ff		 npad	 2
$L255432:

; 254  : 	{
; 255  : 		if( IsAvailable( i ) )

  00010	8b 0b		 mov	 ecx, DWORD PTR [ebx]
  00012	85 c9		 test	 ecx, ecx
  00014	74 32		 je	 SHORT $L249406
  00016	8b 51 14	 mov	 edx, DWORD PTR [ecx+20]
  00019	85 d2		 test	 edx, edx
  0001b	75 2b		 jne	 SHORT $L249406

; 257  : 	}
; 258  : 	return nCount;

  0001d	8b 51 0c	 mov	 edx, DWORD PTR [ecx+12]
  00020	33 ff		 xor	 edi, edi
  00022	85 d2		 test	 edx, edx
  00024	76 20		 jbe	 SHORT $L255422
  00026	8b 49 10	 mov	 ecx, DWORD PTR [ecx+16]
  00029	83 c1 0c	 add	 ecx, 12			; 0000000cH
  0002c	8b f2		 mov	 esi, edx
  0002e	8b ff		 npad	 2
$L255420:
  00030	8b 11		 mov	 edx, DWORD PTR [ecx]
  00032	85 d2		 test	 edx, edx
  00034	74 07		 je	 SHORT $L255421

; 256  : 			nCount	+= m_apPocket[i]->GetCount( dwItemId );

  00036	3b 54 24 14	 cmp	 edx, DWORD PTR _dwItemId$[esp+12]
  0003a	75 01		 jne	 SHORT $L255421
  0003c	47		 inc	 edi
$L255421:
  0003d	81 c1 b8 00 00
	00		 add	 ecx, 184		; 000000b8H
  00043	4e		 dec	 esi
  00044	75 ea		 jne	 SHORT $L255420
$L255422:
  00046	03 c7		 add	 eax, edi
$L249406:

; 253  : 	for( int i = 0; i < MAX_POCKET; i++ )

  00048	83 c3 04	 add	 ebx, 4
  0004b	4d		 dec	 ebp
  0004c	75 c2		 jne	 SHORT $L255432
  0004e	5f		 pop	 edi
  0004f	5e		 pop	 esi
  00050	5d		 pop	 ebp
  00051	5b		 pop	 ebx

; 259  : }

  00052	c2 04 00	 ret	 4
?GetCount@CPocketController@@QAEHK@Z ENDP		; CPocketController::GetCount
_TEXT	ENDS
PUBLIC	?SetAttribute@CPocketController@@QAEXHHH@Z	; CPocketController::SetAttribute
EXTRN	?AddPocketAttribute@CUser@@QAEXHHH@Z:NEAR	; CUser::AddPocketAttribute
; Function compile flags: /Ogty
;	COMDAT ?SetAttribute@CPocketController@@QAEXHHH@Z
_TEXT	SEGMENT
_nAttribute$ = 8					; size = 4
_nPocket$ = 12						; size = 4
_nData$ = 16						; size = 4
?SetAttribute@CPocketController@@QAEXHHH@Z PROC NEAR	; CPocketController::SetAttribute, COMDAT
; _this$ = ecx

; 272  : {

  00000	53		 push	 ebx

; 273  : 	switch( nAttribute )

  00001	8b 5c 24 10	 mov	 ebx, DWORD PTR _nData$[esp]
  00005	55		 push	 ebp
  00006	8b 6c 24 0c	 mov	 ebp, DWORD PTR _nAttribute$[esp+4]
  0000a	56		 push	 esi
  0000b	8b c5		 mov	 eax, ebp
  0000d	83 e8 00	 sub	 eax, 0
  00010	57		 push	 edi
  00011	8b 7c 24 18	 mov	 edi, DWORD PTR _nPocket$[esp+12]
  00015	8b f1		 mov	 esi, ecx
  00017	74 1c		 je	 SHORT $L249425
  00019	48		 dec	 eax
  0001a	75 24		 jne	 SHORT $L255453

; 279  : 				break;
; 280  : 			}
; 281  : 		case avail:
; 282  : 			{
; 283  : 				Avail( nPocket, (time_t)nData );

  0001c	53		 push	 ebx
  0001d	57		 push	 edi
  0001e	e8 00 00 00 00	 call	 ?Avail@CPocketController@@QAEXHJ@Z ; CPocketController::Avail

; 284  : 				break;
; 285  : 			}
; 286  : 		default:
; 287  : 			break;
; 288  : 	}
; 289  : #ifdef __WORLDSERVER
; 290  : 	( (CUser*)m_pMover )->AddPocketAttribute( nAttribute, nPocket, nData );

  00023	8b 4e 04	 mov	 ecx, DWORD PTR [esi+4]
  00026	53		 push	 ebx
  00027	57		 push	 edi
  00028	55		 push	 ebp
  00029	e8 00 00 00 00	 call	 ?AddPocketAttribute@CUser@@QAEXHHH@Z ; CUser::AddPocketAttribute
  0002e	5f		 pop	 edi
  0002f	5e		 pop	 esi
  00030	5d		 pop	 ebp
  00031	5b		 pop	 ebx

; 291  : #endif	// __WORLDSERVER
; 292  : }

  00032	c2 0c 00	 ret	 12			; 0000000cH
$L249425:

; 274  : 	{
; 275  : 		case expired:
; 276  : 			{
; 277  : 				if( IsAvailable( nPocket, FALSE ) )

  00035	8b 44 be 08	 mov	 eax, DWORD PTR [esi+edi*4+8]
  00039	85 c0		 test	 eax, eax
  0003b	74 03		 je	 SHORT $L255453

; 278  : 					m_apPocket[nPocket]->SetExpired( (BOOL)nData );

  0003d	89 58 14	 mov	 DWORD PTR [eax+20], ebx
$L255453:

; 284  : 				break;
; 285  : 			}
; 286  : 		default:
; 287  : 			break;
; 288  : 	}
; 289  : #ifdef __WORLDSERVER
; 290  : 	( (CUser*)m_pMover )->AddPocketAttribute( nAttribute, nPocket, nData );

  00040	8b 4e 04	 mov	 ecx, DWORD PTR [esi+4]
  00043	53		 push	 ebx
  00044	57		 push	 edi
  00045	55		 push	 ebp
  00046	e8 00 00 00 00	 call	 ?AddPocketAttribute@CUser@@QAEXHHH@Z ; CUser::AddPocketAttribute
  0004b	5f		 pop	 edi
  0004c	5e		 pop	 esi
  0004d	5d		 pop	 ebp
  0004e	5b		 pop	 ebx

; 291  : #endif	// __WORLDSERVER
; 292  : }

  0004f	c2 0c 00	 ret	 12			; 0000000cH
?SetAttribute@CPocketController@@QAEXHHH@Z ENDP		; CPocketController::SetAttribute
_TEXT	ENDS
PUBLIC	?Copy@CPocketController@@QAEXAAV1@@Z		; CPocketController::Copy
; Function compile flags: /Ogty
;	COMDAT ?Copy@CPocketController@@QAEXAAV1@@Z
_TEXT	SEGMENT
_this$ = -4						; size = 4
tv250 = 8						; size = 4
_rPocketController$ = 8					; size = 4
?Copy@CPocketController@@QAEXAAV1@@Z PROC NEAR		; CPocketController::Copy, COMDAT
; _this$ = ecx

; 296  : {

  00000	51		 push	 ecx
  00001	53		 push	 ebx
  00002	55		 push	 ebp
  00003	56		 push	 esi
  00004	8b f1		 mov	 esi, ecx
  00006	57		 push	 edi
  00007	89 74 24 10	 mov	 DWORD PTR _this$[esp+20], esi

; 297  : 	Clear();

  0000b	e8 00 00 00 00	 call	 ?Clear@CPocketController@@QAEXXZ ; CPocketController::Clear
  00010	8b 44 24 18	 mov	 eax, DWORD PTR _rPocketController$[esp+16]

; 298  : 	for( int i = 0; i < MAX_POCKET; i++ )

  00014	8b fe		 mov	 edi, esi
  00016	33 ed		 xor	 ebp, ebp
  00018	2b f8		 sub	 edi, eax
  0001a	8d 58 08	 lea	 ebx, DWORD PTR [eax+8]
  0001d	89 7c 24 18	 mov	 DWORD PTR tv250[esp+16], edi
$L255494:

; 299  : 	{
; 300  : 		if( rPocketController.IsAvailable( i, FALSE ) )

  00021	83 3b 00	 cmp	 DWORD PTR [ebx], 0
  00024	74 2b		 je	 SHORT $L249438

; 301  : 		{
; 302  : 			Avail( i );

  00026	6a 00		 push	 0
  00028	55		 push	 ebp
  00029	8b ce		 mov	 ecx, esi
  0002b	e8 00 00 00 00	 call	 ?Avail@CPocketController@@QAEXHJ@Z ; CPocketController::Avail

; 303  : 			m_apPocket[i]->Copy( *rPocketController.m_apPocket[i] );

  00030	8b 33		 mov	 esi, DWORD PTR [ebx]
  00032	8b 3c 1f	 mov	 edi, DWORD PTR [edi+ebx]
  00035	56		 push	 esi
  00036	8b cf		 mov	 ecx, edi
  00038	e8 00 00 00 00	 call	 ?Copy@?$CItemContainer@VCItemElem@@@@QAEXAAV1@@Z ; CItemContainer<CItemElem>::Copy
  0003d	8b 46 14	 mov	 eax, DWORD PTR [esi+20]
  00040	89 47 14	 mov	 DWORD PTR [edi+20], eax
  00043	8b 4e 18	 mov	 ecx, DWORD PTR [esi+24]
  00046	8b 74 24 10	 mov	 esi, DWORD PTR _this$[esp+20]
  0004a	89 4f 18	 mov	 DWORD PTR [edi+24], ecx
  0004d	8b 7c 24 18	 mov	 edi, DWORD PTR tv250[esp+16]
$L249438:
  00051	45		 inc	 ebp
  00052	83 c3 04	 add	 ebx, 4
  00055	83 fd 03	 cmp	 ebp, 3
  00058	7c c7		 jl	 SHORT $L255494
  0005a	5f		 pop	 edi
  0005b	5e		 pop	 esi
  0005c	5d		 pop	 ebp
  0005d	5b		 pop	 ebx

; 304  : 		}
; 305  : 	}
; 306  : }

  0005e	59		 pop	 ecx
  0005f	c2 04 00	 ret	 4
?Copy@CPocketController@@QAEXAAV1@@Z ENDP		; CPocketController::Copy
_TEXT	ENDS
PUBLIC	?Serialize@CPocketController@@QAEXAAVCAr@@@Z	; CPocketController::Serialize
; Function compile flags: /Ogty
;	COMDAT ?Serialize@CPocketController@@QAEXAAVCAr@@@Z
_TEXT	SEGMENT
_ar$ = 8						; size = 4
?Serialize@CPocketController@@QAEXAAVCAr@@@Z PROC NEAR	; CPocketController::Serialize, COMDAT
; _this$ = ecx

; 309  : {

  00000	53		 push	 ebx
  00001	55		 push	 ebp
  00002	56		 push	 esi

; 310  : 	if( ar.IsStoring() )

  00003	8b 74 24 10	 mov	 esi, DWORD PTR _ar$[esp+8]
  00007	33 c0		 xor	 eax, eax
  00009	8a 06		 mov	 al, BYTE PTR [esi]
  0000b	57		 push	 edi
  0000c	8b e9		 mov	 ebp, ecx
  0000e	f7 d0		 not	 eax
  00010	a8 01		 test	 al, 1
  00012	74 48		 je	 SHORT $L249445

; 311  : 	{
; 312  : 		for( int i = 0; i < MAX_POCKET; i++ )

  00014	8d 7d 08	 lea	 edi, DWORD PTR [ebp+8]
  00017	bb 03 00 00 00	 mov	 ebx, 3
  0001c	8d 64 24 00	 npad	 4
$L249447:

; 313  : 		{
; 314  : 			if( IsAvailable( i, FALSE ) )

  00020	83 3f 00	 cmp	 DWORD PTR [edi], 0

; 315  : 			{
; 316  : 				ar << (BYTE)1;

  00023	8b ce		 mov	 ecx, esi
  00025	6a 01		 push	 1
  00027	74 18		 je	 SHORT $L249450
  00029	e8 00 00 00 00	 call	 ?CheckBuf@CAr@@QAEXI@Z	; CAr::CheckBuf
  0002e	8b 4e 08	 mov	 ecx, DWORD PTR [esi+8]
  00031	c6 01 01	 mov	 BYTE PTR [ecx], 1
  00034	ff 46 08	 inc	 DWORD PTR [esi+8]

; 317  : 				m_apPocket[i]->Serialize( ar );

  00037	8b 0f		 mov	 ecx, DWORD PTR [edi]
  00039	56		 push	 esi
  0003a	e8 00 00 00 00	 call	 ?Serialize@CPocket@@QAEXAAVCAr@@@Z ; CPocket::Serialize

; 318  : 			}
; 319  : 			else

  0003f	eb 0e		 jmp	 SHORT $L249448
$L249450:

; 320  : 				ar << (BYTE)0;

  00041	e8 00 00 00 00	 call	 ?CheckBuf@CAr@@QAEXI@Z	; CAr::CheckBuf
  00046	8b 56 08	 mov	 edx, DWORD PTR [esi+8]
  00049	c6 02 00	 mov	 BYTE PTR [edx], 0
  0004c	ff 46 08	 inc	 DWORD PTR [esi+8]
$L249448:
  0004f	83 c7 04	 add	 edi, 4
  00052	4b		 dec	 ebx
  00053	75 cb		 jne	 SHORT $L249447
  00055	5f		 pop	 edi
  00056	5e		 pop	 esi
  00057	5d		 pop	 ebp
  00058	5b		 pop	 ebx

; 334  : 		}
; 335  : 	}
; 336  : }

  00059	c2 04 00	 ret	 4
$L249445:

; 321  : 		}
; 322  : 	}
; 323  : 	else
; 324  : 	{
; 325  : 		Clear();

  0005c	8b cd		 mov	 ecx, ebp
  0005e	e8 00 00 00 00	 call	 ?Clear@CPocketController@@QAEXXZ ; CPocketController::Clear

; 326  : 		for( int i = 0; i < MAX_POCKET; i++ )

  00063	33 ff		 xor	 edi, edi
  00065	8d 5d 08	 lea	 ebx, DWORD PTR [ebp+8]
  00068	eb 06 8d 9b 00
	00 00 00	 npad	 8
$L249456:

; 327  : 		{
; 328  : 			BYTE bExists;
; 329  : 			ar >> bExists;

  00070	8b 46 08	 mov	 eax, DWORD PTR [esi+8]
  00073	8b 56 0c	 mov	 edx, DWORD PTR [esi+12]
  00076	8d 48 01	 lea	 ecx, DWORD PTR [eax+1]
  00079	3b ca		 cmp	 ecx, edx
  0007b	77 2b		 ja	 SHORT $L255525
  0007d	8a 00		 mov	 al, BYTE PTR [eax]

; 330  : 			if( !bExists )

  0007f	84 c0		 test	 al, al
  00081	89 4e 08	 mov	 DWORD PTR [esi+8], ecx
  00084	74 12		 je	 SHORT $L249457

; 331  : 				continue;
; 332  : 			Avail( i );

  00086	6a 00		 push	 0
  00088	57		 push	 edi
  00089	8b cd		 mov	 ecx, ebp
  0008b	e8 00 00 00 00	 call	 ?Avail@CPocketController@@QAEXHJ@Z ; CPocketController::Avail

; 333  : 			m_apPocket[i]->Serialize( ar );

  00090	8b 0b		 mov	 ecx, DWORD PTR [ebx]
  00092	56		 push	 esi
  00093	e8 00 00 00 00	 call	 ?Serialize@CPocket@@QAEXAAVCAr@@@Z ; CPocket::Serialize
$L249457:
  00098	47		 inc	 edi
  00099	83 c3 04	 add	 ebx, 4
  0009c	83 ff 03	 cmp	 edi, 3
  0009f	7c cf		 jl	 SHORT $L249456
  000a1	5f		 pop	 edi
  000a2	5e		 pop	 esi
  000a3	5d		 pop	 ebp
  000a4	5b		 pop	 ebx

; 334  : 		}
; 335  : 	}
; 336  : }

  000a5	c2 04 00	 ret	 4
$L255525:

; 327  : 		{
; 328  : 			BYTE bExists;
; 329  : 			ar >> bExists;

  000a8	89 56 08	 mov	 DWORD PTR [esi+8], edx

; 330  : 			if( !bExists )

  000ab	eb eb		 jmp	 SHORT $L249457
?Serialize@CPocketController@@QAEXAAVCAr@@@Z ENDP	; CPocketController::Serialize
_TEXT	ENDS
PUBLIC	?ProcessExpiring@CPocketController@@QAEXXZ	; CPocketController::ProcessExpiring
; Function compile flags: /Ogty
;	COMDAT ?ProcessExpiring@CPocketController@@QAEXXZ
_TEXT	SEGMENT
?ProcessExpiring@CPocketController@@QAEXXZ PROC NEAR	; CPocketController::ProcessExpiring, COMDAT
; _this$ = ecx

; 347  : {

  00000	57		 push	 edi
  00001	8b f9		 mov	 edi, ecx

; 348  : 	if( m_pMover->IsNPC() )

  00003	8b 47 04	 mov	 eax, DWORD PTR [edi+4]
  00006	8b 88 34 02 00
	00		 mov	 ecx, DWORD PTR [eax+564]
  0000c	85 c9		 test	 ecx, ecx
  0000e	74 47		 je	 SHORT $L249476
  00010	53		 push	 ebx
  00011	56		 push	 esi

; 349  : 		return;
; 350  : 	CUser* pUser	= (CUser*)m_pMover;
; 351  : 
; 352  : 	for( int i = 1; i < MAX_POCKET; i++ )

  00012	be 01 00 00 00	 mov	 esi, 1
  00017	8d 5f 0c	 lea	 ebx, DWORD PTR [edi+12]
  0001a	8d 9b 00 00 00
	00		 npad	 6
$L255601:

; 353  : 	{
; 354  : 		if( IsAvailable( i ) )

  00020	8b 03		 mov	 eax, DWORD PTR [ebx]
  00022	85 c0		 test	 eax, eax
  00024	74 26		 je	 SHORT $L249475
  00026	8b 48 14	 mov	 ecx, DWORD PTR [eax+20]
  00029	85 c9		 test	 ecx, ecx
  0002b	75 1f		 jne	 SHORT $L249475

; 355  : 		{
; 356  : 			if( time_null() > m_apPocket[i]->GetExpirationDate() )

  0002d	8b 0d 00 00 00
	00		 mov	 ecx, DWORD PTR ?g_tCurrent@@3JA ; g_tCurrent
  00033	3b 48 18	 cmp	 ecx, DWORD PTR [eax+24]
  00036	7e 14		 jle	 SHORT $L249475

; 357  : 			{
; 358  : 				SetAttribute( expired, i, TRUE );

  00038	6a 01		 push	 1
  0003a	56		 push	 esi
  0003b	c7 40 14 01 00
	00 00		 mov	 DWORD PTR [eax+20], 1
  00042	8b 4f 04	 mov	 ecx, DWORD PTR [edi+4]
  00045	6a 00		 push	 0
  00047	e8 00 00 00 00	 call	 ?AddPocketAttribute@CUser@@QAEXHHH@Z ; CUser::AddPocketAttribute
$L249475:
  0004c	46		 inc	 esi
  0004d	83 c3 04	 add	 ebx, 4
  00050	83 fe 03	 cmp	 esi, 3
  00053	7c cb		 jl	 SHORT $L255601
  00055	5e		 pop	 esi
  00056	5b		 pop	 ebx
$L249476:
  00057	5f		 pop	 edi

; 359  : #ifdef __INTERNALSERVER
; 360  : 				pUser->AddPocketView();
; 361  : #endif	// __INTERNAL_SERVER
; 362  : 			}
; 363  : 		}
; 364  : 	}
; 365  : }

  00058	c3		 ret	 0
?ProcessExpiring@CPocketController@@QAEXXZ ENDP		; CPocketController::ProcessExpiring
_TEXT	ENDS
PUBLIC	?end@?$vector@U_PocketController_Result@@V?$allocator@U_PocketController_Result@@@std@@@std@@QAE?AViterator@12@XZ ; std::vector<_PocketController_Result,std::allocator<_PocketController_Result> >::end
; Function compile flags: /Ogty
; File c:\program files\microsoft visual studio .net 2003\vc7\include\vector
;	COMDAT ?end@?$vector@U_PocketController_Result@@V?$allocator@U_PocketController_Result@@@std@@@std@@QAE?AViterator@12@XZ
_TEXT	SEGMENT
___$ReturnUdt$ = 8					; size = 4
?end@?$vector@U_PocketController_Result@@V?$allocator@U_PocketController_Result@@@std@@@std@@QAE?AViterator@12@XZ PROC NEAR ; std::vector<_PocketController_Result,std::allocator<_PocketController_Result> >::end, COMDAT
; _this$ = ecx

; 473  : 		return (iterator(_Mylast));

  00000	8b 49 08	 mov	 ecx, DWORD PTR [ecx+8]
  00003	8b 44 24 04	 mov	 eax, DWORD PTR ___$ReturnUdt$[esp-4]
  00007	89 08		 mov	 DWORD PTR [eax], ecx

; 474  : 		}

  00009	c2 04 00	 ret	 4
?end@?$vector@U_PocketController_Result@@V?$allocator@U_PocketController_Result@@@std@@@std@@QAE?AViterator@12@XZ ENDP ; std::vector<_PocketController_Result,std::allocator<_PocketController_Result> >::end
_TEXT	ENDS
PUBLIC	?begin@?$vector@U_PocketController_Result@@V?$allocator@U_PocketController_Result@@@std@@@std@@QAE?AViterator@12@XZ ; std::vector<_PocketController_Result,std::allocator<_PocketController_Result> >::begin
; Function compile flags: /Ogty
;	COMDAT ?begin@?$vector@U_PocketController_Result@@V?$allocator@U_PocketController_Result@@@std@@@std@@QAE?AViterator@12@XZ
_TEXT	SEGMENT
___$ReturnUdt$ = 8					; size = 4
?begin@?$vector@U_PocketController_Result@@V?$allocator@U_PocketController_Result@@@std@@@std@@QAE?AViterator@12@XZ PROC NEAR ; std::vector<_PocketController_Result,std::allocator<_PocketController_Result> >::begin, COMDAT
; _this$ = ecx

; 463  : 		return (iterator(_Myfirst));

  00000	8b 49 04	 mov	 ecx, DWORD PTR [ecx+4]
  00003	8b 44 24 04	 mov	 eax, DWORD PTR ___$ReturnUdt$[esp-4]
  00007	89 08		 mov	 DWORD PTR [eax], ecx

; 464  : 		}

  00009	c2 04 00	 ret	 4
?begin@?$vector@U_PocketController_Result@@V?$allocator@U_PocketController_Result@@@std@@@std@@QAE?AViterator@12@XZ ENDP ; std::vector<_PocketController_Result,std::allocator<_PocketController_Result> >::begin
_TEXT	ENDS
PUBLIC	??_C@_0EK@GINEPMCL@template?5?$DMclass?5T?$DO?5BOOL?5CItemCon@ ; `string'
PUBLIC	?Add@?$CItemContainer@VCItemElem@@@@QAEHPAVCItemElem@@PAEPAF1@Z ; CItemContainer<CItemElem>::Add
EXTRN	?SetTexture@CItemBase@@QAEXXZ:NEAR		; CItemBase::SetTexture
;	COMDAT ??_C@_0EK@GINEPMCL@template?5?$DMclass?5T?$DO?5BOOL?5CItemCon@
; File c:\documents and settings\test\mes documents\source\virtuos_v17\build\program\_common\item.h
CONST	SEGMENT
??_C@_0EK@GINEPMCL@template?5?$DMclass?5T?$DO?5BOOL?5CItemCon@ DB 'templa'
	DB	'te <class T> BOOL CItemContainer<T>::Add( T* pElem... : nNumt'
	DB	'mp > 0', 00H				; `string'
; Function compile flags: /Ogty
CONST	ENDS
;	COMDAT ?Add@?$CItemContainer@VCItemElem@@@@QAEHPAVCItemElem@@PAEPAF1@Z
_TEXT	SEGMENT
_nNumtmp$ = -12						; size = 2
_i$251899 = -12						; size = 4
_this$ = -8						; size = 4
_i$251881 = -4						; size = 4
_pElem$ = 8						; size = 4
_pnId$ = 12						; size = 4
_pnNum$ = 16						; size = 4
$T255651 = 20						; size = 4
_pnCount$ = 20						; size = 4
?Add@?$CItemContainer@VCItemElem@@@@QAEHPAVCItemElem@@PAEPAF1@Z PROC NEAR ; CItemContainer<CItemElem>::Add, COMDAT
; _this$ = ecx

; 662  : {

  00000	83 ec 0c	 sub	 esp, 12			; 0000000cH

; 663  : 	if( pnId )

  00003	8b 44 24 14	 mov	 eax, DWORD PTR _pnId$[esp+8]
  00007	85 c0		 test	 eax, eax
  00009	53		 push	 ebx
  0000a	55		 push	 ebp
  0000b	56		 push	 esi
  0000c	8b f1		 mov	 esi, ecx
  0000e	57		 push	 edi
  0000f	8b 7c 24 2c	 mov	 edi, DWORD PTR _pnCount$[esp+24]
  00013	89 74 24 14	 mov	 DWORD PTR _this$[esp+28], esi
  00017	74 03		 je	 SHORT $L251870

; 664  : 		*pnCount	= 0;

  00019	c6 07 00	 mov	 BYTE PTR [edi], 0
$L251870:

; 665  : 	ItemProp* pItemProp		= pElem->GetProp();

  0001c	8b 6c 24 20	 mov	 ebp, DWORD PTR _pElem$[esp+24]
  00020	8b 45 0c	 mov	 eax, DWORD PTR [ebp+12]
  00023	85 c0		 test	 eax, eax
  00025	8b 0d 5c 02 00
	00		 mov	 ecx, DWORD PTR ?prj@@3VCProject@@A+604
  0002b	7c 48		 jl	 SHORT $L255679
  0002d	3b c1		 cmp	 eax, ecx
  0002f	7d 44		 jge	 SHORT $L255679
  00031	72 31		 jb	 SHORT $L255691
  00033	33 db		 xor	 ebx, ebx
  00035	89 5c 24 2c	 mov	 DWORD PTR $T255651[esp+24], ebx
$L255674:

; 666  : 	if( !pItemProp )

  00039	85 db		 test	 ebx, ebx

; 667  : 		return FALSE;

  0003b	74 1b		 je	 SHORT $L255705

; 668  : 
; 669  : #ifdef __TABBED_INV
; 670  : 	int nIndex = pItemProp->GetInvenIndex();
; 671  : #endif
; 672  : 
; 673  : 	BOOL bPackItem = TRUE;
; 674  : 	int nId;
; 675  : 
; 676  : 	short nNumtmp	= ( (CItemElem*)pElem )->m_nItemNum;

  0003d	33 c0		 xor	 eax, eax
  0003f	66 8b 85 80 00
	00 00		 mov	 ax, WORD PTR [ebp+128]

; 677  : 	if( IsFull( pElem, pItemProp, nNumtmp ) )	//    

  00046	8b ce		 mov	 ecx, esi
  00048	50		 push	 eax
  00049	53		 push	 ebx
  0004a	55		 push	 ebp
  0004b	89 44 24 1c	 mov	 DWORD PTR _nNumtmp$[esp+40], eax
  0004f	e8 00 00 00 00	 call	 ?IsFull@?$CItemContainer@VCItemElem@@@@QAEHPAVCItemElem@@PAUItemProp@@F@Z ; CItemContainer<CItemElem>::IsFull
  00054	85 c0		 test	 eax, eax
  00056	74 3f		 je	 SHORT $L251877
$L255705:
  00058	5f		 pop	 edi
  00059	5e		 pop	 esi
  0005a	5d		 pop	 ebp

; 678  : 		return FALSE;

  0005b	33 c0		 xor	 eax, eax
  0005d	5b		 pop	 ebx

; 765  : }

  0005e	83 c4 0c	 add	 esp, 12			; 0000000cH
  00061	c2 10 00	 ret	 16			; 00000010H

; 665  : 	ItemProp* pItemProp		= pElem->GetProp();

$L255691:
  00064	8b 0d 4c 02 00
	00		 mov	 ecx, DWORD PTR ?prj@@3VCProject@@A+588
  0006a	8b 14 81	 mov	 edx, DWORD PTR [ecx+eax*4]
  0006d	89 54 24 2c	 mov	 DWORD PTR $T255651[esp+24], edx
  00071	8b da		 mov	 ebx, edx
  00073	eb c4		 jmp	 SHORT $L255674
$L255679:
  00075	50		 push	 eax
  00076	51		 push	 ecx
  00077	6a 00		 push	 0
  00079	68 00 00 00 00	 push	 OFFSET FLAT:??_C@_0BI@BEIFNGEL@GetItemProp?5range_error?$AA@
  0007e	68 00 00 00 00	 push	 OFFSET FLAT:??_C@_0BM@HMFGHCP@?$CFs?5min?3?$CFd?0?5max?3?$CFd?0?5index?3?$CFd?$AA@
  00083	e8 00 00 00 00	 call	 ?Error@@YAPBDPBDZZ	; Error
  00088	83 c4 14	 add	 esp, 20			; 00000014H
  0008b	5f		 pop	 edi
  0008c	5e		 pop	 esi
  0008d	5d		 pop	 ebp

; 678  : 		return FALSE;

  0008e	33 c0		 xor	 eax, eax
  00090	5b		 pop	 ebx

; 765  : }

  00091	83 c4 0c	 add	 esp, 12			; 0000000cH
  00094	c2 10 00	 ret	 16			; 00000010H
$L251877:

; 679  : 
; 680  : 	if( pItemProp->dwPackMax == 1 )

  00097	83 7b 6c 01	 cmp	 DWORD PTR [ebx+108], 1

; 681  : 		bPackItem = FALSE;
; 682  : 
; 683  : 	CItemElem* pElemtmp;
; 684  : 	if( bPackItem )

  0009b	0f 84 e5 00 00
	00		 je	 $L255712

; 685  : 	{
; 686  : 		for( DWORD i = 0; i < m_dwIndexNum; i++ )

  000a1	8b 4e 08	 mov	 ecx, DWORD PTR [esi+8]
  000a4	33 c0		 xor	 eax, eax
  000a6	85 c9		 test	 ecx, ecx
  000a8	89 44 24 18	 mov	 DWORD PTR _i$251881[esp+28], eax
  000ac	0f 86 d4 00 00
	00		 jbe	 $L255712
$L251882:

; 687  : 		{
; 688  : 			nId	= m_apIndex[i];

  000b2	8b 4e 04	 mov	 ecx, DWORD PTR [esi+4]
  000b5	8b 1c 81	 mov	 ebx, DWORD PTR [ecx+eax*4]

; 689  : 			if( nId < 0 || nId >= (int)( m_dwItemMax ) )

  000b8	85 db		 test	 ebx, ebx
  000ba	0f 8c b2 00 00
	00		 jl	 $L251883
  000c0	3b 5e 0c	 cmp	 ebx, DWORD PTR [esi+12]
  000c3	0f 8d a9 00 00
	00		 jge	 $L251883

; 690  : 				continue;
; 691  : 			pElemtmp	= (CItemElem*)&m_apItem[nId];

  000c9	8b 4e 10	 mov	 ecx, DWORD PTR [esi+16]
  000cc	8b c3		 mov	 eax, ebx
  000ce	69 c0 b8 00 00
	00		 imul	 eax, 184		; 000000b8H
  000d4	03 c1		 add	 eax, ecx

; 692  : 			
; 693  : 			if( pElemtmp->IsEmpty() == FALSE && pElemtmp->m_dwItemId == pElem->m_dwItemId && pElemtmp->m_nItemNum < (short)pItemProp->dwPackMax 
; 694  : 				&& pElem->m_byFlag == pElemtmp->m_byFlag && pElem->m_bCharged == pElemtmp->m_bCharged )

  000d6	8b 48 0c	 mov	 ecx, DWORD PTR [eax+12]
  000d9	85 c9		 test	 ecx, ecx
  000db	0f 84 91 00 00
	00		 je	 $L251883
  000e1	3b 4d 0c	 cmp	 ecx, DWORD PTR [ebp+12]
  000e4	0f 85 88 00 00
	00		 jne	 $L251883
  000ea	66 8b 88 80 00
	00 00		 mov	 cx, WORD PTR [eax+128]
  000f1	8b 54 24 2c	 mov	 edx, DWORD PTR $T255651[esp+24]
  000f5	66 3b 4a 6c	 cmp	 cx, WORD PTR [edx+108]
  000f9	7d 77		 jge	 SHORT $L251883
  000fb	8a 95 82 00 00
	00		 mov	 dl, BYTE PTR [ebp+130]
  00101	3a 90 82 00 00
	00		 cmp	 dl, BYTE PTR [eax+130]
  00107	75 69		 jne	 SHORT $L251883
  00109	8b 95 ac 00 00
	00		 mov	 edx, DWORD PTR [ebp+172]
  0010f	3b 90 ac 00 00
	00		 cmp	 edx, DWORD PTR [eax+172]
  00115	75 5b		 jne	 SHORT $L251883

; 695  : 			{
; 696  : 				if( pElemtmp->m_nItemNum + nNumtmp > (short)pItemProp->dwPackMax )

  00117	0f bf 6c 24 10	 movsx	 ebp, WORD PTR _nNumtmp$[esp+28]
  0011c	0f bf d1	 movsx	 edx, cx
  0011f	03 d5		 add	 edx, ebp
  00121	8b 6c 24 2c	 mov	 ebp, DWORD PTR $T255651[esp+24]
  00125	0f bf 6d 6c	 movsx	 ebp, WORD PTR [ebp+108]
  00129	3b d5		 cmp	 edx, ebp
  0012b	0f 8e 35 01 00
	00		 jle	 $L251892

; 697  : 				{
; 698  : 					nNumtmp	-= ( (short)pItemProp->dwPackMax - pElemtmp->m_nItemNum );

  00131	8b 54 24 2c	 mov	 edx, DWORD PTR $T255651[esp+24]
  00135	0f bf 52 6c	 movsx	 edx, WORD PTR [edx+108]
  00139	8b 6c 24 10	 mov	 ebp, DWORD PTR _nNumtmp$[esp+28]
  0013d	2b ca		 sub	 ecx, edx
  0013f	03 e9		 add	 ebp, ecx

; 699  : 					pElemtmp->m_nItemNum	= (short)pItemProp->dwPackMax;
; 700  : 					if( pnId )

  00141	8b 4c 24 24	 mov	 ecx, DWORD PTR _pnId$[esp+24]
  00145	85 c9		 test	 ecx, ecx
  00147	89 6c 24 10	 mov	 DWORD PTR _nNumtmp$[esp+28], ebp

; 701  : 					{
; 702  : 						pnId[*pnCount]	= nId;
; 703  : 						pnNum[*pnCount]	= pElemtmp->m_nItemNum;
; 704  : 						( *pnCount )++;

  0014b	8b 6c 24 20	 mov	 ebp, DWORD PTR _pElem$[esp+24]
  0014f	66 89 90 80 00
	00 00		 mov	 WORD PTR [eax+128], dx
  00156	74 1a		 je	 SHORT $L251883
  00158	0f b6 17	 movzx	 edx, BYTE PTR [edi]
  0015b	88 1c 0a	 mov	 BYTE PTR [edx+ecx], bl
  0015e	66 8b 90 80 00
	00 00		 mov	 dx, WORD PTR [eax+128]
  00165	0f b6 0f	 movzx	 ecx, BYTE PTR [edi]
  00168	8b 44 24 28	 mov	 eax, DWORD PTR _pnNum$[esp+24]
  0016c	66 89 14 48	 mov	 WORD PTR [eax+ecx*2], dx
  00170	fe 07		 inc	 BYTE PTR [edi]
$L251883:
  00172	8b 44 24 18	 mov	 eax, DWORD PTR _i$251881[esp+28]
  00176	8b 4e 08	 mov	 ecx, DWORD PTR [esi+8]
  00179	40		 inc	 eax
  0017a	3b c1		 cmp	 eax, ecx
  0017c	89 44 24 18	 mov	 DWORD PTR _i$251881[esp+28], eax
  00180	0f 82 2c ff ff
	ff		 jb	 $L251882
$L255712:

; 713  : 					}
; 714  : 					nNumtmp = 0;
; 715  : 					break;
; 716  : 				}
; 717  : 			}
; 718  : 			
; 719  : 		}
; 720  : 	}
; 721  : 
; 722  : 	if( nNumtmp > 0 )

  00186	66 8b 6c 24 10	 mov	 bp, WORD PTR _nNumtmp$[esp+28]
  0018b	66 85 ed	 test	 bp, bp
  0018e	0f 8e c3 00 00
	00		 jle	 $L255708

; 723  : 	{
; 724  : 		for( DWORD i = 0; i < m_dwIndexNum; i++ )

  00194	8b 4e 08	 mov	 ecx, DWORD PTR [esi+8]
  00197	33 c0		 xor	 eax, eax
  00199	85 c9		 test	 ecx, ecx
  0019b	89 44 24 10	 mov	 DWORD PTR _i$251899[esp+28], eax
  0019f	0f 86 a0 00 00
	00		 jbe	 $L251915
$L251900:

; 725  : 		{
; 726  : 			nId	= m_apIndex[i];

  001a5	8b 4e 04	 mov	 ecx, DWORD PTR [esi+4]
  001a8	8b 1c 81	 mov	 ebx, DWORD PTR [ecx+eax*4]

; 727  : 			if( nId < 0 || nId >= (int)( m_dwItemMax ) )

  001ab	85 db		 test	 ebx, ebx
  001ad	0f 8c 7e 00 00
	00		 jl	 $L251901
  001b3	3b 5e 0c	 cmp	 ebx, DWORD PTR [esi+12]
  001b6	7d 79		 jge	 SHORT $L251901

; 728  : 				continue;
; 729  : 			pElemtmp	= (CItemElem*)&m_apItem[nId];

  001b8	8b 54 24 14	 mov	 edx, DWORD PTR _this$[esp+28]
  001bc	8b 4a 10	 mov	 ecx, DWORD PTR [edx+16]
  001bf	8b f3		 mov	 esi, ebx
  001c1	69 f6 b8 00 00
	00		 imul	 esi, 184		; 000000b8H

; 730  : 			if( pElemtmp->IsEmpty() )	//  

  001c7	8b 44 0e 0c	 mov	 eax, DWORD PTR [esi+ecx+12]
  001cb	03 f1		 add	 esi, ecx
  001cd	85 c0		 test	 eax, eax
  001cf	75 5c		 jne	 SHORT $L255707

; 731  : 			{
; 732  : 				*pElemtmp	= *( (CItemElem*)pElem );

  001d1	8b 4c 24 20	 mov	 ecx, DWORD PTR _pElem$[esp+24]
  001d5	8b 06		 mov	 eax, DWORD PTR [esi]
  001d7	51		 push	 ecx
  001d8	8b ce		 mov	 ecx, esi
  001da	ff 50 10	 call	 DWORD PTR [eax+16]

; 733  : 				pElemtmp->m_dwObjId	= nId;
; 734  : 				pElemtmp->m_dwObjIndex		= i;

  001dd	8b 54 24 10	 mov	 edx, DWORD PTR _i$251899[esp+28]

; 735  : 				pElemtmp->SetTexture();

  001e1	8b ce		 mov	 ecx, esi
  001e3	89 5e 04	 mov	 DWORD PTR [esi+4], ebx
  001e6	89 56 08	 mov	 DWORD PTR [esi+8], edx
  001e9	e8 00 00 00 00	 call	 ?SetTexture@CItemBase@@QAEXXZ ; CItemBase::SetTexture

; 736  : 				
; 737  : 				if( nNumtmp > (short)pItemProp->dwPackMax )

  001ee	8b 44 24 2c	 mov	 eax, DWORD PTR $T255651[esp+24]
  001f2	66 3b 68 6c	 cmp	 bp, WORD PTR [eax+108]
  001f6	0f 8e a7 00 00
	00		 jle	 $L251910

; 738  : 				{
; 739  : 					pElemtmp->m_nItemNum	= (short)pItemProp->dwPackMax;

  001fc	66 8b 48 6c	 mov	 cx, WORD PTR [eax+108]
  00200	66 89 8e 80 00
	00 00		 mov	 WORD PTR [esi+128], cx

; 740  : 					nNumtmp		-= (short)pItemProp->dwPackMax;

  00207	66 2b 68 6c	 sub	 bp, WORD PTR [eax+108]

; 741  : 					if( pnId ) {

  0020b	8b 44 24 24	 mov	 eax, DWORD PTR _pnId$[esp+24]
  0020f	85 c0		 test	 eax, eax
  00211	74 1a		 je	 SHORT $L255707

; 742  : 						pnId[*pnCount]	= nId;

  00213	0f b6 17	 movzx	 edx, BYTE PTR [edi]
  00216	88 1c 02	 mov	 BYTE PTR [edx+eax], bl

; 743  : 						pnNum[*pnCount]	= pElemtmp->m_nItemNum;

  00219	0f b6 0f	 movzx	 ecx, BYTE PTR [edi]
  0021c	66 8b 96 80 00
	00 00		 mov	 dx, WORD PTR [esi+128]
  00223	8b 44 24 28	 mov	 eax, DWORD PTR _pnNum$[esp+24]
  00227	66 89 14 48	 mov	 WORD PTR [eax+ecx*2], dx

; 744  : 						( *pnCount )++;

  0022b	fe 07		 inc	 BYTE PTR [edi]
$L255707:
  0022d	8b 74 24 14	 mov	 esi, DWORD PTR _this$[esp+28]
$L251901:

; 723  : 	{
; 724  : 		for( DWORD i = 0; i < m_dwIndexNum; i++ )

  00231	8b 44 24 10	 mov	 eax, DWORD PTR _i$251899[esp+28]
  00235	8b 4e 08	 mov	 ecx, DWORD PTR [esi+8]
  00238	40		 inc	 eax
  00239	3b c1		 cmp	 eax, ecx
  0023b	89 44 24 10	 mov	 DWORD PTR _i$251899[esp+28], eax
  0023f	0f 82 60 ff ff
	ff		 jb	 $L251900
$L251915:

; 756  : 					}
; 757  : 					break;
; 758  : 				}
; 759  : 			}
; 760  : 		}
; 761  : 	}
; 762  : 	if( nNumtmp > 0 )

  00245	66 85 ed	 test	 bp, bp
  00248	7e 0d		 jle	 SHORT $L255708

; 763  : 		Error( "template <class T> BOOL CItemContainer<T>::Add( T* pElem... : nNumtmp > 0" );

  0024a	68 00 00 00 00	 push	 OFFSET FLAT:??_C@_0EK@GINEPMCL@template?5?$DMclass?5T?$DO?5BOOL?5CItemCon@
  0024f	e8 00 00 00 00	 call	 ?Error@@YAPBDPBDZZ	; Error
  00254	83 c4 04	 add	 esp, 4
$L255708:
  00257	5f		 pop	 edi
  00258	5e		 pop	 esi
  00259	5d		 pop	 ebp

; 764  : 	return TRUE;

  0025a	b8 01 00 00 00	 mov	 eax, 1
  0025f	5b		 pop	 ebx

; 765  : }

  00260	83 c4 0c	 add	 esp, 12			; 0000000cH
  00263	c2 10 00	 ret	 16			; 00000010H
$L251892:

; 705  : 					}
; 706  : 				}
; 707  : 				else {
; 708  : 					pElemtmp->m_nItemNum	+= nNumtmp;

  00266	66 8b 4c 24 10	 mov	 cx, WORD PTR _nNumtmp$[esp+28]
  0026b	66 01 88 80 00
	00 00		 add	 WORD PTR [eax+128], cx

; 709  : 					if( pnId ) {

  00272	8b 4c 24 24	 mov	 ecx, DWORD PTR _pnId$[esp+24]
  00276	85 c9		 test	 ecx, ecx
  00278	74 dd		 je	 SHORT $L255708

; 710  : 						pnId[*pnCount]	= nId;

  0027a	0f b6 17	 movzx	 edx, BYTE PTR [edi]
  0027d	88 1c 0a	 mov	 BYTE PTR [edx+ecx], bl

; 711  : 						pnNum[*pnCount]		= pElemtmp->m_nItemNum;	

  00280	66 8b 90 80 00
	00 00		 mov	 dx, WORD PTR [eax+128]
  00287	0f b6 0f	 movzx	 ecx, BYTE PTR [edi]
  0028a	8b 44 24 28	 mov	 eax, DWORD PTR _pnNum$[esp+24]
  0028e	66 89 14 48	 mov	 WORD PTR [eax+ecx*2], dx

; 712  : 						( *pnCount )++;

  00292	fe 07		 inc	 BYTE PTR [edi]
  00294	5f		 pop	 edi
  00295	5e		 pop	 esi
  00296	5d		 pop	 ebp

; 764  : 	return TRUE;

  00297	b8 01 00 00 00	 mov	 eax, 1
  0029c	5b		 pop	 ebx

; 765  : }

  0029d	83 c4 0c	 add	 esp, 12			; 0000000cH
  002a0	c2 10 00	 ret	 16			; 00000010H
$L251910:

; 745  : 					}
; 746  : 				}
; 747  : 				else
; 748  : 				{
; 749  : 					pElemtmp->m_nItemNum	= nNumtmp;
; 750  : 					nNumtmp	= 0;
; 751  : 					if( pnId )

  002a3	8b 44 24 24	 mov	 eax, DWORD PTR _pnId$[esp+24]
  002a7	85 c0		 test	 eax, eax
  002a9	66 89 ae 80 00
	00 00		 mov	 WORD PTR [esi+128], bp
  002b0	74 a5		 je	 SHORT $L255708

; 752  : 					{
; 753  : 						pnId[*pnCount]	= nId;

  002b2	0f b6 0f	 movzx	 ecx, BYTE PTR [edi]
  002b5	88 1c 01	 mov	 BYTE PTR [ecx+eax], bl

; 754  : 						pnNum[*pnCount]		= pElemtmp->m_nItemNum;

  002b8	0f b6 17	 movzx	 edx, BYTE PTR [edi]
  002bb	66 8b 86 80 00
	00 00		 mov	 ax, WORD PTR [esi+128]
  002c2	8b 4c 24 28	 mov	 ecx, DWORD PTR _pnNum$[esp+24]
  002c6	66 89 04 51	 mov	 WORD PTR [ecx+edx*2], ax

; 755  : 						( *pnCount )++;

  002ca	fe 07		 inc	 BYTE PTR [edi]
  002cc	5f		 pop	 edi
  002cd	5e		 pop	 esi
  002ce	5d		 pop	 ebp

; 764  : 	return TRUE;

  002cf	b8 01 00 00 00	 mov	 eax, 1
  002d4	5b		 pop	 ebx

; 765  : }

  002d5	83 c4 0c	 add	 esp, 12			; 0000000cH
  002d8	c2 10 00	 ret	 16			; 00000010H
?Add@?$CItemContainer@VCItemElem@@@@QAEHPAVCItemElem@@PAEPAF1@Z ENDP ; CItemContainer<CItemElem>::Add
_TEXT	ENDS
PUBLIC	??$_Uninit_fill_n@PAU_PocketController_Result@@IU1@V?$allocator@U_PocketController_Result@@@std@@@std@@YAXPAU_PocketController_Result@@IABU1@AAV?$allocator@U_PocketController_Result@@@0@U_Nonscalar_ptr_iterator_tag@0@@Z ; std::_Uninit_fill_n<_PocketController_Result *,unsigned int,_PocketController_Result,std::allocator<_PocketController_Result> >
; Function compile flags: /Ogty
; File c:\program files\microsoft visual studio .net 2003\vc7\include\memory
;	COMDAT ??$_Uninit_fill_n@PAU_PocketController_Result@@IU1@V?$allocator@U_PocketController_Result@@@std@@@std@@YAXPAU_PocketController_Result@@IABU1@AAV?$allocator@U_PocketController_Result@@@0@U_Nonscalar_ptr_iterator_tag@0@@Z
_TEXT	SEGMENT
__First$ = 8						; size = 4
__Count$ = 12						; size = 4
__Val$ = 16						; size = 4
__Al$ = 20						; size = 4
___formal$ = 24						; size = 1
??$_Uninit_fill_n@PAU_PocketController_Result@@IU1@V?$allocator@U_PocketController_Result@@@std@@@std@@YAXPAU_PocketController_Result@@IABU1@AAV?$allocator@U_PocketController_Result@@@0@U_Nonscalar_ptr_iterator_tag@0@@Z PROC NEAR ; std::_Uninit_fill_n<_PocketController_Result *,unsigned int,_PocketController_Result,std::allocator<_PocketController_Result> >, COMDAT

; 208  : 	_FwdIt _Next = _First;
; 209  : 
; 210  : 	_TRY_BEGIN
; 211  : 	for (; 0 < _Count; --_Count, ++_First)

  00000	8b 44 24 08	 mov	 eax, DWORD PTR __Count$[esp-4]
  00004	85 c0		 test	 eax, eax
  00006	76 2e		 jbe	 SHORT $L253068
  00008	8b 54 24 0c	 mov	 edx, DWORD PTR __Val$[esp-4]
  0000c	53		 push	 ebx
  0000d	56		 push	 esi
  0000e	8b c8		 mov	 ecx, eax
  00010	8b 44 24 0c	 mov	 eax, DWORD PTR __First$[esp+4]
  00014	57		 push	 edi
$L253066:

; 212  : 		_Al.construct(_First, _Val);

  00015	85 c0		 test	 eax, eax
  00017	74 14		 je	 SHORT $L253067
  00019	8b f2		 mov	 esi, edx
  0001b	8b 1e		 mov	 ebx, DWORD PTR [esi]
  0001d	8b f8		 mov	 edi, eax
  0001f	89 1f		 mov	 DWORD PTR [edi], ebx
  00021	8b 5e 04	 mov	 ebx, DWORD PTR [esi+4]
  00024	89 5f 04	 mov	 DWORD PTR [edi+4], ebx
  00027	8b 76 08	 mov	 esi, DWORD PTR [esi+8]
  0002a	89 77 08	 mov	 DWORD PTR [edi+8], esi
$L253067:
  0002d	83 c0 0c	 add	 eax, 12			; 0000000cH
  00030	49		 dec	 ecx
  00031	75 e2		 jne	 SHORT $L253066
  00033	5f		 pop	 edi
  00034	5e		 pop	 esi
  00035	5b		 pop	 ebx
$L253068:

; 213  : 	_CATCH_ALL
; 214  : 	for (; _Next != _First; ++_Next)
; 215  : 		_Al.destroy(_Next);
; 216  : 	_RERAISE;
; 217  : 	_CATCH_END
; 218  : 	}

  00036	c3		 ret	 0
??$_Uninit_fill_n@PAU_PocketController_Result@@IU1@V?$allocator@U_PocketController_Result@@@std@@@std@@YAXPAU_PocketController_Result@@IABU1@AAV?$allocator@U_PocketController_Result@@@0@U_Nonscalar_ptr_iterator_tag@0@@Z ENDP ; std::_Uninit_fill_n<_PocketController_Result *,unsigned int,_PocketController_Result,std::allocator<_PocketController_Result> >
_TEXT	ENDS
PUBLIC	??$_Uninitialized_copy@PAU_PocketController_Result@@PAU1@V?$allocator@U_PocketController_Result@@@std@@@std@@YAPAU_PocketController_Result@@PAU1@00AAV?$allocator@U_PocketController_Result@@@0@@Z ; std::_Uninitialized_copy<_PocketController_Result *,_PocketController_Result *,std::allocator<_PocketController_Result> >
; Function compile flags: /Ogty
;	COMDAT ??$_Uninitialized_copy@PAU_PocketController_Result@@PAU1@V?$allocator@U_PocketController_Result@@@std@@@std@@YAPAU_PocketController_Result@@PAU1@00AAV?$allocator@U_PocketController_Result@@@0@@Z
_TEXT	SEGMENT
__Cat$255752 = -4					; size = 1
__First$ = 8						; size = 4
__Last$ = 12						; size = 4
__Dest$ = 16						; size = 4
__Al$ = 20						; size = 4
??$_Uninitialized_copy@PAU_PocketController_Result@@PAU1@V?$allocator@U_PocketController_Result@@@std@@@std@@YAPAU_PocketController_Result@@PAU1@00AAV?$allocator@U_PocketController_Result@@@0@@Z PROC NEAR ; std::_Uninitialized_copy<_PocketController_Result *,_PocketController_Result *,std::allocator<_PocketController_Result> >, COMDAT

; 126  : 	{	// copy [_First, _Last) to raw _Dest, using _Al

  00000	51		 push	 ecx

; 127  : 	return (_Uninit_copy(_First, _Last, _Dest, _Al,
; 128  : 		_Ptr_cat(_First, _Dest)));

  00001	8b 04 24	 mov	 eax, DWORD PTR __Cat$255752[esp+4]
  00004	8b 4c 24 14	 mov	 ecx, DWORD PTR __Al$[esp]
  00008	8b 54 24 10	 mov	 edx, DWORD PTR __Dest$[esp]
  0000c	50		 push	 eax
  0000d	8b 44 24 10	 mov	 eax, DWORD PTR __Last$[esp+4]
  00011	51		 push	 ecx
  00012	8b 4c 24 10	 mov	 ecx, DWORD PTR __First$[esp+8]
  00016	52		 push	 edx
  00017	50		 push	 eax
  00018	51		 push	 ecx
  00019	e8 00 00 00 00	 call	 ??$_Uninit_copy@PAU_PocketController_Result@@PAU1@V?$allocator@U_PocketController_Result@@@std@@@std@@YAPAU_PocketController_Result@@PAU1@00AAV?$allocator@U_PocketController_Result@@@0@U_Nonscalar_ptr_iterator_tag@0@@Z ; std::_Uninit_copy<_PocketController_Result *,_PocketController_Result *,std::allocator<_PocketController_Result> >

; 129  : 	}

  0001e	83 c4 18	 add	 esp, 24			; 00000018H
  00021	c3		 ret	 0
??$_Uninitialized_copy@PAU_PocketController_Result@@PAU1@V?$allocator@U_PocketController_Result@@@std@@@std@@YAPAU_PocketController_Result@@PAU1@00AAV?$allocator@U_PocketController_Result@@@0@@Z ENDP ; std::_Uninitialized_copy<_PocketController_Result *,_PocketController_Result *,std::allocator<_PocketController_Result> >
_TEXT	ENDS
PUBLIC	??$_Destroy_range@U_PocketController_Result@@V?$allocator@U_PocketController_Result@@@std@@@std@@YAXPAU_PocketController_Result@@0AAV?$allocator@U_PocketController_Result@@@0@U_Nonscalar_ptr_iterator_tag@0@@Z ; std::_Destroy_range<_PocketController_Result,std::allocator<_PocketController_Result> >
; Function compile flags: /Ogty
; File c:\program files\microsoft visual studio .net 2003\vc7\include\xmemory
;	COMDAT ??$_Destroy_range@U_PocketController_Result@@V?$allocator@U_PocketController_Result@@@std@@@std@@YAXPAU_PocketController_Result@@0AAV?$allocator@U_PocketController_Result@@@0@U_Nonscalar_ptr_iterator_tag@0@@Z
_TEXT	SEGMENT
__First$ = 8						; size = 4
__Last$ = 12						; size = 4
__Al$ = 16						; size = 4
___formal$ = 20						; size = 1
??$_Destroy_range@U_PocketController_Result@@V?$allocator@U_PocketController_Result@@@std@@@std@@YAXPAU_PocketController_Result@@0AAV?$allocator@U_PocketController_Result@@@0@U_Nonscalar_ptr_iterator_tag@0@@Z PROC NEAR ; std::_Destroy_range<_PocketController_Result,std::allocator<_PocketController_Result> >, COMDAT

; 225  : 	for (; _First != _Last; ++_First)
; 226  : 		_Al.destroy(_First);
; 227  : 	}

  00000	c3		 ret	 0
??$_Destroy_range@U_PocketController_Result@@V?$allocator@U_PocketController_Result@@@std@@@std@@YAXPAU_PocketController_Result@@0AAV?$allocator@U_PocketController_Result@@@0@U_Nonscalar_ptr_iterator_tag@0@@Z ENDP ; std::_Destroy_range<_PocketController_Result,std::allocator<_PocketController_Result> >
_TEXT	ENDS
PUBLIC	?_Tidy@?$basic_string@DU?$char_traits@D@std@@V?$allocator@D@2@@std@@IAEX_NI@Z ; std::basic_string<char,std::char_traits<char>,std::allocator<char> >::_Tidy
; Function compile flags: /Ogty
; File c:\program files\microsoft visual studio .net 2003\vc7\include\xstring
;	COMDAT ?_Tidy@?$basic_string@DU?$char_traits@D@std@@V?$allocator@D@2@@std@@IAEX_NI@Z
_TEXT	SEGMENT
__Built$ = 8						; size = 1
__Newsize$ = 12						; size = 4
?_Tidy@?$basic_string@DU?$char_traits@D@std@@V?$allocator@D@2@@std@@IAEX_NI@Z PROC NEAR ; std::basic_string<char,std::char_traits<char>,std::allocator<char> >::_Tidy, COMDAT
; _this$ = ecx

; 1510 : 		if (!_Built)

  00000	8a 44 24 04	 mov	 al, BYTE PTR __Built$[esp-4]
  00004	84 c0		 test	 al, al
  00006	53		 push	 ebx
  00007	55		 push	 ebp
  00008	8b 6c 24 10	 mov	 ebp, DWORD PTR __Newsize$[esp+4]
  0000c	8b d9		 mov	 ebx, ecx
  0000e	74 2f		 je	 SHORT $L255766

; 1511 : 			;
; 1512 : 		else if (_BUF_SIZE <= _Myres)

  00010	83 7b 18 10	 cmp	 DWORD PTR [ebx+24], 16	; 00000010H
  00014	72 29		 jb	 SHORT $L255766

; 1513 : 			{	// copy any leftovers to small buffer and deallocate
; 1514 : 			_Elem *_Ptr = _Bx._Ptr;
; 1515 : 			if (0 < _Newsize)

  00016	85 ed		 test	 ebp, ebp
  00018	8b 43 04	 mov	 eax, DWORD PTR [ebx+4]
  0001b	57		 push	 edi
  0001c	8d 7b 04	 lea	 edi, DWORD PTR [ebx+4]
  0001f	76 14		 jbe	 SHORT $L255763
  00021	56		 push	 esi

; 1516 : 				_Traits::copy(_Bx._Buf, _Ptr, _Newsize);

  00022	8b cd		 mov	 ecx, ebp
  00024	8b d1		 mov	 edx, ecx
  00026	c1 e9 02	 shr	 ecx, 2
  00029	8b f0		 mov	 esi, eax
  0002b	f3 a5		 rep movsd
  0002d	8b ca		 mov	 ecx, edx
  0002f	83 e1 03	 and	 ecx, 3
  00032	f3 a4		 rep movsb
  00034	5e		 pop	 esi
$L255763:

; 1517 : 			_Mybase::_Alval.deallocate(_Ptr, _Myres + 1);

  00035	50		 push	 eax
  00036	e8 00 00 00 00	 call	 ??3@YAXPAX@Z		; operator delete
  0003b	83 c4 04	 add	 esp, 4
  0003e	5f		 pop	 edi
$L255766:

; 1518 : 			}
; 1519 : 		_Myres = _BUF_SIZE - 1;
; 1520 : 		_Eos(_Newsize);

  0003f	89 6b 14	 mov	 DWORD PTR [ebx+20], ebp
  00042	c7 43 18 0f 00
	00 00		 mov	 DWORD PTR [ebx+24], 15	; 0000000fH
  00049	c6 44 2b 04 00	 mov	 BYTE PTR [ebx+ebp+4], 0
  0004e	5d		 pop	 ebp
  0004f	5b		 pop	 ebx

; 1521 : 		}

  00050	c2 08 00	 ret	 8
?_Tidy@?$basic_string@DU?$char_traits@D@std@@V?$allocator@D@2@@std@@IAEX_NI@Z ENDP ; std::basic_string<char,std::char_traits<char>,std::allocator<char> >::_Tidy
_TEXT	ENDS
PUBLIC	?erase@?$basic_string@DU?$char_traits@D@std@@V?$allocator@D@2@@std@@QAEAAV12@II@Z ; std::basic_string<char,std::char_traits<char>,std::allocator<char> >::erase
EXTRN	?_Xran@_String_base@std@@QBEXXZ:NEAR		; std::_String_base::_Xran
; Function compile flags: /Ogty
;	COMDAT ?erase@?$basic_string@DU?$char_traits@D@std@@V?$allocator@D@2@@std@@QAEAAV12@II@Z
_TEXT	SEGMENT
__Off$ = 8						; size = 4
__Count$ = 12						; size = 4
?erase@?$basic_string@DU?$char_traits@D@std@@V?$allocator@D@2@@std@@QAEAAV12@II@Z PROC NEAR ; std::basic_string<char,std::char_traits<char>,std::allocator<char> >::erase, COMDAT
; _this$ = ecx

; 792  : 		{	// erase elements [_Off, _Off + _Count)

  00000	55		 push	 ebp

; 793  : 		if (_Mysize < _Off)

  00001	8b 6c 24 08	 mov	 ebp, DWORD PTR __Off$[esp]
  00005	56		 push	 esi
  00006	8b f1		 mov	 esi, ecx
  00008	39 6e 14	 cmp	 DWORD PTR [esi+20], ebp
  0000b	57		 push	 edi
  0000c	73 05		 jae	 SHORT $L221371

; 794  : 			_String_base::_Xran();	// _Off off end

  0000e	e8 00 00 00 00	 call	 ?_Xran@_String_base@std@@QBEXXZ ; std::_String_base::_Xran
$L221371:

; 795  : 		if (_Mysize - _Off < _Count)

  00013	8b 46 14	 mov	 eax, DWORD PTR [esi+20]
  00016	8b 7c 24 14	 mov	 edi, DWORD PTR __Count$[esp+8]
  0001a	2b c5		 sub	 eax, ebp
  0001c	3b c7		 cmp	 eax, edi
  0001e	73 02		 jae	 SHORT $L221372

; 796  : 			_Count = _Mysize - _Off;	// trim _Count

  00020	8b f8		 mov	 edi, eax
$L221372:

; 797  : 		if (0 < _Count)

  00022	85 ff		 test	 edi, edi
  00024	76 47		 jbe	 SHORT $L255832

; 798  : 			{	// move elements down
; 799  : 			_Traits::move(_Myptr() + _Off, _Myptr() + _Off + _Count,
; 800  : 				_Mysize - _Off - _Count);

  00026	8b 4e 18	 mov	 ecx, DWORD PTR [esi+24]
  00029	83 f9 10	 cmp	 ecx, 16			; 00000010H
  0002c	53		 push	 ebx
  0002d	8d 5e 04	 lea	 ebx, DWORD PTR [esi+4]
  00030	72 04		 jb	 SHORT $L255798
  00032	8b 13		 mov	 edx, DWORD PTR [ebx]
  00034	eb 02		 jmp	 SHORT $L255799
$L255798:
  00036	8b d3		 mov	 edx, ebx
$L255799:
  00038	83 f9 10	 cmp	 ecx, 16			; 00000010H
  0003b	72 04		 jb	 SHORT $L255805
  0003d	8b 0b		 mov	 ecx, DWORD PTR [ebx]
  0003f	eb 02		 jmp	 SHORT $L255806
$L255805:
  00041	8b cb		 mov	 ecx, ebx
$L255806:
  00043	2b c7		 sub	 eax, edi

; 803  : 			}
; 804  : 		return (*this);

  00045	03 d5		 add	 edx, ebp
  00047	50		 push	 eax
  00048	03 d7		 add	 edx, edi
  0004a	52		 push	 edx
  0004b	03 cd		 add	 ecx, ebp
  0004d	51		 push	 ecx
  0004e	e8 00 00 00 00	 call	 _memmove
  00053	8b 46 14	 mov	 eax, DWORD PTR [esi+20]
  00056	8b 4e 18	 mov	 ecx, DWORD PTR [esi+24]
  00059	2b c7		 sub	 eax, edi
  0005b	83 c4 0c	 add	 esp, 12			; 0000000cH
  0005e	83 f9 10	 cmp	 ecx, 16			; 00000010H
  00061	89 46 14	 mov	 DWORD PTR [esi+20], eax
  00064	72 02		 jb	 SHORT $L255829

; 801  : 			size_type _Newsize = _Mysize - _Count;
; 802  : 			_Eos(_Newsize);

  00066	8b 1b		 mov	 ebx, DWORD PTR [ebx]
$L255829:
  00068	c6 04 03 00	 mov	 BYTE PTR [ebx+eax], 0
  0006c	5b		 pop	 ebx
$L255832:
  0006d	5f		 pop	 edi

; 803  : 			}
; 804  : 		return (*this);

  0006e	8b c6		 mov	 eax, esi
  00070	5e		 pop	 esi
  00071	5d		 pop	 ebp

; 805  : 		}

  00072	c2 08 00	 ret	 8
?erase@?$basic_string@DU?$char_traits@D@std@@V?$allocator@D@2@@std@@QAEAAV12@II@Z ENDP ; std::basic_string<char,std::char_traits<char>,std::allocator<char> >::erase
_TEXT	ENDS
PUBLIC	?_Copy@?$basic_string@DU?$char_traits@D@std@@V?$allocator@D@2@@std@@IAEXII@Z ; std::basic_string<char,std::char_traits<char>,std::allocator<char> >::_Copy
;	COMDAT xdata$x
; File c:\program files\microsoft visual studio .net 2003\vc7\include\iosfwd
xdata$x	SEGMENT
$T256036 DD	0ffffffffH
	DD	00H
	DD	0ffffffffH
	DD	00H
	DD	01H
	DD	00H
	DD	01H
	DD	00H
$T256038 DD	00H
	DD	00H
	DD	00H
	DD	FLAT:$L255839
$T256039 DD	00H
	DD	00H
	DD	00H
	DD	FLAT:$L255837
$T256037 DD	02H
	DD	02H
	DD	03H
	DD	01H
	DD	FLAT:$T256038
	DD	00H
	DD	00H
	DD	03H
	DD	01H
	DD	FLAT:$T256039
$T256031 DD	019930520H
	DD	04H
	DD	FLAT:$T256036
	DD	02H
	DD	FLAT:$T256037
	DD	2 DUP(00H)
; Function compile flags: /Ogty
; File c:\program files\microsoft visual studio .net 2003\vc7\include\xstring
xdata$x	ENDS
;	COMDAT ?_Copy@?$basic_string@DU?$char_traits@D@std@@V?$allocator@D@2@@std@@IAEXII@Z
_TEXT	SEGMENT
__Newres$ = -24						; size = 4
_this$ = -20						; size = 4
__$EHRec$ = -16						; size = 16
__Ptr$ = 8						; size = 4
__Newsize$ = 8						; size = 4
__Oldlen$ = 12						; size = 4
?_Copy@?$basic_string@DU?$char_traits@D@std@@V?$allocator@D@2@@std@@IAEXII@Z PROC NEAR ; std::basic_string<char,std::char_traits<char>,std::allocator<char> >::_Copy, COMDAT
; _this$ = ecx

; 1444 : 		{	// copy _Oldlen elements to newly allocated buffer

  00000	55		 push	 ebp
  00001	8b ec		 mov	 ebp, esp
  00003	6a ff		 push	 -1
  00005	68 00 00 00 00	 push	 __ehhandler$?_Copy@?$basic_string@DU?$char_traits@D@std@@V?$allocator@D@2@@std@@IAEXII@Z
  0000a	64 a1 00 00 00
	00		 mov	 eax, DWORD PTR fs:__except_list
  00010	50		 push	 eax
  00011	64 89 25 00 00
	00 00		 mov	 DWORD PTR fs:__except_list, esp
  00018	83 ec 0c	 sub	 esp, 12			; 0000000cH

; 1445 : 		size_type _Newres = _Newsize | _ALLOC_MASK;

  0001b	8b 45 08	 mov	 eax, DWORD PTR __Newsize$[ebp]
  0001e	53		 push	 ebx
  0001f	56		 push	 esi
  00020	8b d8		 mov	 ebx, eax
  00022	83 cb 0f	 or	 ebx, 15			; 0000000fH

; 1446 : 		if (max_size() < _Newres)

  00025	83 fb fe	 cmp	 ebx, -2			; fffffffeH
  00028	57		 push	 edi
  00029	8b f1		 mov	 esi, ecx
  0002b	89 65 f0	 mov	 DWORD PTR __$EHRec$[ebp], esp
  0002e	89 75 ec	 mov	 DWORD PTR _this$[ebp], esi
  00031	76 04		 jbe	 SHORT $L222778

; 1447 : 			_Newres = _Newsize;	// undo roundup if too big

  00033	8b d8		 mov	 ebx, eax

; 1448 : 		else if (_Newres / 3 < _Myres / 2

  00035	eb 22		 jmp	 SHORT $L222780
$L222778:

; 1449 : 			&& _Myres <= max_size() - _Myres / 2)

  00037	8b 7e 18	 mov	 edi, DWORD PTR [esi+24]
  0003a	b8 ab aa aa aa	 mov	 eax, -1431655765	; aaaaaaabH
  0003f	f7 e3		 mul	 ebx
  00041	8b cf		 mov	 ecx, edi
  00043	d1 e9		 shr	 ecx, 1
  00045	d1 ea		 shr	 edx, 1
  00047	3b d1		 cmp	 edx, ecx
  00049	73 0e		 jae	 SHORT $L222780
  0004b	b8 fe ff ff ff	 mov	 eax, -2			; fffffffeH
  00050	2b c1		 sub	 eax, ecx
  00052	3b f8		 cmp	 edi, eax
  00054	77 03		 ja	 SHORT $L222780

; 1450 : 			_Newres = _Myres + _Myres / 2;	// grow exponentially if possible

  00056	8d 1c 39	 lea	 ebx, DWORD PTR [ecx+edi]
$L222780:

; 1451 : 		_Elem *_Ptr;
; 1452 : 
; 1453 : 		_TRY_BEGIN
; 1454 : 			_Ptr = _Mybase::_Alval.allocate(_Newres + 1);

  00059	8d 4b 01	 lea	 ecx, DWORD PTR [ebx+1]
  0005c	51		 push	 ecx
  0005d	c7 45 fc 00 00
	00 00		 mov	 DWORD PTR __$EHRec$[ebp+12], 0
  00064	e8 00 00 00 00	 call	 ??2@YAPAXI@Z		; operator new
  00069	8b d0		 mov	 edx, eax
  0006b	83 c4 04	 add	 esp, 4
  0006e	89 55 08	 mov	 DWORD PTR __Ptr$[ebp], edx
  00071	eb 29		 jmp	 SHORT $L222782
$L255837:

; 1455 : 		_CATCH_ALL
; 1456 : 			_Newres = _Newsize;	// allocation failed, undo roundup and retry

  00073	8b 45 08	 mov	 eax, DWORD PTR __Newsize$[ebp]
  00076	89 45 e8	 mov	 DWORD PTR __Newres$[ebp], eax

; 1457 : 			_TRY_BEGIN
; 1458 : 				_Ptr = _Mybase::_Alval.allocate(_Newres + 1);

  00079	40		 inc	 eax
  0007a	89 65 f0	 mov	 DWORD PTR __$EHRec$[ebp], esp
  0007d	50		 push	 eax
  0007e	c6 45 fc 02	 mov	 BYTE PTR __$EHRec$[ebp+12], 2
  00082	e8 00 00 00 00	 call	 ??2@YAPAXI@Z		; operator new
  00087	89 45 08	 mov	 DWORD PTR __Ptr$[ebp], eax
  0008a	83 c4 04	 add	 esp, 4

; 1462 : 			_CATCH_END
; 1463 : 		_CATCH_END

  0008d	b8 00 00 00 00	 mov	 eax, $L256032
  00092	c3		 ret	 0
$L256032:
  00093	8b 5d e8	 mov	 ebx, DWORD PTR __Newres$[ebp]
  00096	8b 75 ec	 mov	 esi, DWORD PTR _this$[ebp]
  00099	8b 55 08	 mov	 edx, DWORD PTR __Ptr$[ebp]
$L222782:

; 1464 : 
; 1465 : 		if (0 < _Oldlen)

  0009c	8b 4d 0c	 mov	 ecx, DWORD PTR __Oldlen$[ebp]
  0009f	85 c9		 test	 ecx, ecx
  000a1	76 24		 jbe	 SHORT $L255956

; 1466 : 			_Traits::copy(_Ptr, _Myptr(), _Oldlen);	// copy existing elements

  000a3	83 7e 18 10	 cmp	 DWORD PTR [esi+24], 16	; 00000010H
  000a7	72 05		 jb	 SHORT $L255953
  000a9	8b 76 04	 mov	 esi, DWORD PTR [esi+4]
  000ac	eb 03		 jmp	 SHORT $L255954
$L255953:
  000ae	83 c6 04	 add	 esi, 4
$L255954:
  000b1	8b c1		 mov	 eax, ecx
  000b3	c1 e9 02	 shr	 ecx, 2
  000b6	8b fa		 mov	 edi, edx
  000b8	f3 a5		 rep movsd
  000ba	8b c8		 mov	 ecx, eax
  000bc	83 e1 03	 and	 ecx, 3
  000bf	f3 a4		 rep movsb
  000c1	8b 75 ec	 mov	 esi, DWORD PTR _this$[ebp]
  000c4	8b 4d 0c	 mov	 ecx, DWORD PTR __Oldlen$[ebp]
$L255956:

; 1467 : 		_Tidy(true);

  000c7	83 7e 18 10	 cmp	 DWORD PTR [esi+24], 16	; 00000010H
  000cb	72 12		 jb	 SHORT $L255992
  000cd	8b 4e 04	 mov	 ecx, DWORD PTR [esi+4]
  000d0	51		 push	 ecx
  000d1	e8 00 00 00 00	 call	 ??3@YAXPAX@Z		; operator delete
  000d6	8b 55 08	 mov	 edx, DWORD PTR __Ptr$[ebp]
  000d9	8b 4d 0c	 mov	 ecx, DWORD PTR __Oldlen$[ebp]
  000dc	83 c4 04	 add	 esp, 4
$L255992:

; 1468 : 		_Bx._Ptr = _Ptr;
; 1469 : 		_Myres = _Newres;
; 1470 : 		_Eos(_Oldlen);

  000df	83 fb 10	 cmp	 ebx, 16			; 00000010H
  000e2	8d 46 04	 lea	 eax, DWORD PTR [esi+4]
  000e5	c6 00 00	 mov	 BYTE PTR [eax], 0
  000e8	89 10		 mov	 DWORD PTR [eax], edx
  000ea	89 5e 18	 mov	 DWORD PTR [esi+24], ebx
  000ed	89 4e 14	 mov	 DWORD PTR [esi+20], ecx
  000f0	72 02		 jb	 SHORT $L256025
  000f2	8b c2		 mov	 eax, edx
$L256025:

; 1471 : 		}

  000f4	5f		 pop	 edi
  000f5	c6 04 08 00	 mov	 BYTE PTR [eax+ecx], 0
  000f9	8b 4d f4	 mov	 ecx, DWORD PTR __$EHRec$[ebp+4]
  000fc	5e		 pop	 esi
  000fd	64 89 0d 00 00
	00 00		 mov	 DWORD PTR fs:__except_list, ecx
  00104	5b		 pop	 ebx
  00105	8b e5		 mov	 esp, ebp
  00107	5d		 pop	 ebp
  00108	c2 08 00	 ret	 8
$L255839:

; 1459 : 			_CATCH_ALL
; 1460 : 			_Tidy(true);	// failed again, discard storage and reraise

  0010b	8b 75 ec	 mov	 esi, DWORD PTR _this$[ebp]
  0010e	83 7e 18 10	 cmp	 DWORD PTR [esi+24], 16	; 00000010H
  00112	72 0c		 jb	 SHORT $L255931
  00114	8b 56 04	 mov	 edx, DWORD PTR [esi+4]
  00117	52		 push	 edx
  00118	e8 00 00 00 00	 call	 ??3@YAXPAX@Z		; operator delete
  0011d	83 c4 04	 add	 esp, 4
$L255931:

; 1461 : 			_RERAISE;

  00120	6a 00		 push	 0
  00122	c7 46 18 0f 00
	00 00		 mov	 DWORD PTR [esi+24], 15	; 0000000fH
  00129	c7 46 14 00 00
	00 00		 mov	 DWORD PTR [esi+20], 0
  00130	6a 00		 push	 0
  00132	c6 46 04 00	 mov	 BYTE PTR [esi+4], 0
  00136	e8 00 00 00 00	 call	 __CxxThrowException@8
$L256040:
$L256035:
  0013b	cc		 int	 3
_TEXT	ENDS
;	COMDAT text$x
text$x	SEGMENT
__ehhandler$?_Copy@?$basic_string@DU?$char_traits@D@std@@V?$allocator@D@2@@std@@IAEXII@Z:
  00000	b8 00 00 00 00	 mov	 eax, OFFSET FLAT:$T256031
  00005	e9 00 00 00 00	 jmp	 ___CxxFrameHandler
text$x	ENDS
?_Copy@?$basic_string@DU?$char_traits@D@std@@V?$allocator@D@2@@std@@IAEXII@Z ENDP ; std::basic_string<char,std::char_traits<char>,std::allocator<char> >::_Copy
PUBLIC	??$_Uninitialized_fill_n@PAU_PocketController_Result@@IU1@V?$allocator@U_PocketController_Result@@@std@@@std@@YAXPAU_PocketController_Result@@IABU1@AAV?$allocator@U_PocketController_Result@@@0@@Z ; std::_Uninitialized_fill_n<_PocketController_Result *,unsigned int,_PocketController_Result,std::allocator<_PocketController_Result> >
; Function compile flags: /Ogty
; File c:\program files\microsoft visual studio .net 2003\vc7\include\memory
;	COMDAT ??$_Uninitialized_fill_n@PAU_PocketController_Result@@IU1@V?$allocator@U_PocketController_Result@@@std@@@std@@YAXPAU_PocketController_Result@@IABU1@AAV?$allocator@U_PocketController_Result@@@0@@Z
_TEXT	SEGMENT
__Cat$256049 = -4					; size = 1
__First$ = 8						; size = 4
__Count$ = 12						; size = 4
__Val$ = 16						; size = 4
__Al$ = 20						; size = 4
??$_Uninitialized_fill_n@PAU_PocketController_Result@@IU1@V?$allocator@U_PocketController_Result@@@std@@@std@@YAXPAU_PocketController_Result@@IABU1@AAV?$allocator@U_PocketController_Result@@@0@@Z PROC NEAR ; std::_Uninitialized_fill_n<_PocketController_Result *,unsigned int,_PocketController_Result,std::allocator<_PocketController_Result> >, COMDAT

; 255  : 	{	// copy _Count *_Val to raw _First, using _Al

  00000	51		 push	 ecx

; 256  : 	_Uninit_fill_n(_First, _Count, _Val, _Al,
; 257  : 		_Ptr_cat(_First, _First));

  00001	8b 04 24	 mov	 eax, DWORD PTR __Cat$256049[esp+4]
  00004	8b 4c 24 14	 mov	 ecx, DWORD PTR __Al$[esp]
  00008	8b 54 24 10	 mov	 edx, DWORD PTR __Val$[esp]
  0000c	50		 push	 eax
  0000d	8b 44 24 10	 mov	 eax, DWORD PTR __Count$[esp+4]
  00011	51		 push	 ecx
  00012	8b 4c 24 10	 mov	 ecx, DWORD PTR __First$[esp+8]
  00016	52		 push	 edx
  00017	50		 push	 eax
  00018	51		 push	 ecx
  00019	e8 00 00 00 00	 call	 ??$_Uninit_fill_n@PAU_PocketController_Result@@IU1@V?$allocator@U_PocketController_Result@@@std@@@std@@YAXPAU_PocketController_Result@@IABU1@AAV?$allocator@U_PocketController_Result@@@0@U_Nonscalar_ptr_iterator_tag@0@@Z ; std::_Uninit_fill_n<_PocketController_Result *,unsigned int,_PocketController_Result,std::allocator<_PocketController_Result> >

; 258  : 	}

  0001e	83 c4 18	 add	 esp, 24			; 00000018H
  00021	c3		 ret	 0
??$_Uninitialized_fill_n@PAU_PocketController_Result@@IU1@V?$allocator@U_PocketController_Result@@@std@@@std@@YAXPAU_PocketController_Result@@IABU1@AAV?$allocator@U_PocketController_Result@@@0@@Z ENDP ; std::_Uninitialized_fill_n<_PocketController_Result *,unsigned int,_PocketController_Result,std::allocator<_PocketController_Result> >
_TEXT	ENDS
PUBLIC	??$_Ucopy@PAU_PocketController_Result@@@?$vector@U_PocketController_Result@@V?$allocator@U_PocketController_Result@@@std@@@std@@IAEPAU_PocketController_Result@@PAU2@00@Z ; std::vector<_PocketController_Result,std::allocator<_PocketController_Result> >::_Ucopy<_PocketController_Result *>
; Function compile flags: /Ogty
; File c:\program files\microsoft visual studio .net 2003\vc7\include\vector
;	COMDAT ??$_Ucopy@PAU_PocketController_Result@@@?$vector@U_PocketController_Result@@V?$allocator@U_PocketController_Result@@@std@@@std@@IAEPAU_PocketController_Result@@PAU2@00@Z
_TEXT	SEGMENT
__First$ = 8						; size = 4
__Last$ = 12						; size = 4
__Cat$256063 = 16					; size = 1
__Ptr$ = 16						; size = 4
??$_Ucopy@PAU_PocketController_Result@@@?$vector@U_PocketController_Result@@V?$allocator@U_PocketController_Result@@@std@@@std@@IAEPAU_PocketController_Result@@PAU2@00@Z PROC NEAR ; std::vector<_PocketController_Result,std::allocator<_PocketController_Result> >::_Ucopy<_PocketController_Result *>, COMDAT
; _this$ = ecx

; 802  : 		{	// copy initializing [_First, _Last), using allocator
; 803  : 		return (_Uninitialized_copy(_First, _Last,
; 804  : 			_Ptr, this->_Alval));

  00000	8b 44 24 0c	 mov	 eax, DWORD PTR __Cat$256063[esp-4]
  00004	8b 54 24 08	 mov	 edx, DWORD PTR __Last$[esp-4]
  00008	50		 push	 eax
  00009	8b 44 24 08	 mov	 eax, DWORD PTR __First$[esp]
  0000d	51		 push	 ecx
  0000e	8b 4c 24 14	 mov	 ecx, DWORD PTR __Ptr$[esp+4]
  00012	51		 push	 ecx
  00013	52		 push	 edx
  00014	50		 push	 eax
  00015	e8 00 00 00 00	 call	 ??$_Uninit_copy@PAU_PocketController_Result@@PAU1@V?$allocator@U_PocketController_Result@@@std@@@std@@YAPAU_PocketController_Result@@PAU1@00AAV?$allocator@U_PocketController_Result@@@0@U_Nonscalar_ptr_iterator_tag@0@@Z ; std::_Uninit_copy<_PocketController_Result *,_PocketController_Result *,std::allocator<_PocketController_Result> >
  0001a	83 c4 14	 add	 esp, 20			; 00000014H

; 805  : 		}

  0001d	c2 0c 00	 ret	 12			; 0000000cH
??$_Ucopy@PAU_PocketController_Result@@@?$vector@U_PocketController_Result@@V?$allocator@U_PocketController_Result@@@std@@@std@@IAEPAU_PocketController_Result@@PAU2@00@Z ENDP ; std::vector<_PocketController_Result,std::allocator<_PocketController_Result> >::_Ucopy<_PocketController_Result *>
_TEXT	ENDS
PUBLIC	??$_Destroy_range@U_PocketController_Result@@V?$allocator@U_PocketController_Result@@@std@@@std@@YAXPAU_PocketController_Result@@0AAV?$allocator@U_PocketController_Result@@@0@@Z ; std::_Destroy_range<_PocketController_Result,std::allocator<_PocketController_Result> >
; Function compile flags: /Ogty
; File c:\program files\microsoft visual studio .net 2003\vc7\include\xmemory
;	COMDAT ??$_Destroy_range@U_PocketController_Result@@V?$allocator@U_PocketController_Result@@@std@@@std@@YAXPAU_PocketController_Result@@0AAV?$allocator@U_PocketController_Result@@@0@@Z
_TEXT	SEGMENT
__First$ = 8						; size = 4
__Last$ = 12						; size = 4
__Al$ = 16						; size = 4
??$_Destroy_range@U_PocketController_Result@@V?$allocator@U_PocketController_Result@@@std@@@std@@YAXPAU_PocketController_Result@@0AAV?$allocator@U_PocketController_Result@@@0@@Z PROC NEAR ; std::_Destroy_range<_PocketController_Result,std::allocator<_PocketController_Result> >, COMDAT

; 217  : 	_Destroy_range(_First, _Last, _Al, _Ptr_cat(_First, _Last));
; 218  : 	}

  00000	c3		 ret	 0
??$_Destroy_range@U_PocketController_Result@@V?$allocator@U_PocketController_Result@@@std@@@std@@YAXPAU_PocketController_Result@@0AAV?$allocator@U_PocketController_Result@@@0@@Z ENDP ; std::_Destroy_range<_PocketController_Result,std::allocator<_PocketController_Result> >
_TEXT	ENDS
PUBLIC	??1?$basic_string@DU?$char_traits@D@std@@V?$allocator@D@2@@std@@QAE@XZ ; std::basic_string<char,std::char_traits<char>,std::allocator<char> >::~basic_string<char,std::char_traits<char>,std::allocator<char> >
; Function compile flags: /Ogty
; File c:\program files\microsoft visual studio .net 2003\vc7\include\xstring
;	COMDAT ??1?$basic_string@DU?$char_traits@D@std@@V?$allocator@D@2@@std@@QAE@XZ
_TEXT	SEGMENT
??1?$basic_string@DU?$char_traits@D@std@@V?$allocator@D@2@@std@@QAE@XZ PROC NEAR ; std::basic_string<char,std::char_traits<char>,std::allocator<char> >::~basic_string<char,std::char_traits<char>,std::allocator<char> >, COMDAT
; _this$ = ecx

; 456  : 		{	// destroy the string

  00000	56		 push	 esi
  00001	8b f1		 mov	 esi, ecx

; 457  : 		_Tidy(true);

  00003	83 7e 18 10	 cmp	 DWORD PTR [esi+24], 16	; 00000010H
  00007	72 0c		 jb	 SHORT $L256112
  00009	8b 46 04	 mov	 eax, DWORD PTR [esi+4]
  0000c	50		 push	 eax
  0000d	e8 00 00 00 00	 call	 ??3@YAXPAX@Z		; operator delete
  00012	83 c4 04	 add	 esp, 4
$L256112:
  00015	33 c0		 xor	 eax, eax
  00017	c7 46 18 0f 00
	00 00		 mov	 DWORD PTR [esi+24], 15	; 0000000fH
  0001e	89 46 14	 mov	 DWORD PTR [esi+20], eax
  00021	88 46 04	 mov	 BYTE PTR [esi+4], al
  00024	5e		 pop	 esi

; 458  : 		}

  00025	c3		 ret	 0
??1?$basic_string@DU?$char_traits@D@std@@V?$allocator@D@2@@std@@QAE@XZ ENDP ; std::basic_string<char,std::char_traits<char>,std::allocator<char> >::~basic_string<char,std::char_traits<char>,std::allocator<char> >
_TEXT	ENDS
PUBLIC	?_Grow@?$basic_string@DU?$char_traits@D@std@@V?$allocator@D@2@@std@@IAE_NI_N@Z ; std::basic_string<char,std::char_traits<char>,std::allocator<char> >::_Grow
EXTRN	?_Xlen@_String_base@std@@QBEXXZ:NEAR		; std::_String_base::_Xlen
; Function compile flags: /Ogty
;	COMDAT ?_Grow@?$basic_string@DU?$char_traits@D@std@@V?$allocator@D@2@@std@@IAE_NI_N@Z
_TEXT	SEGMENT
__Newsize$ = 8						; size = 4
__Trim$ = 12						; size = 1
?_Grow@?$basic_string@DU?$char_traits@D@std@@V?$allocator@D@2@@std@@IAE_NI_N@Z PROC NEAR ; std::basic_string<char,std::char_traits<char>,std::allocator<char> >::_Grow, COMDAT
; _this$ = ecx

; 1480 : 		{	// ensure buffer is big enough, trim to size if _Trim is true

  00000	55		 push	 ebp
  00001	56		 push	 esi

; 1481 : 		if (max_size() < _Newsize)

  00002	8b 74 24 0c	 mov	 esi, DWORD PTR __Newsize$[esp+4]
  00006	83 fe fe	 cmp	 esi, -2			; fffffffeH
  00009	8b e9		 mov	 ebp, ecx
  0000b	76 05		 jbe	 SHORT $L221380

; 1482 : 			_String_base::_Xlen();	// result too long

  0000d	e8 00 00 00 00	 call	 ?_Xlen@_String_base@std@@QBEXXZ ; std::_String_base::_Xlen
$L221380:

; 1483 : 		if (_Myres < _Newsize)

  00012	8b 45 18	 mov	 eax, DWORD PTR [ebp+24]
  00015	3b c6		 cmp	 eax, esi
  00017	73 19		 jae	 SHORT $L221381

; 1484 : 			_Copy(_Newsize, _Mysize);	// reallocate to grow

  00019	8b 45 14	 mov	 eax, DWORD PTR [ebp+20]
  0001c	50		 push	 eax
  0001d	56		 push	 esi
  0001e	8b cd		 mov	 ecx, ebp
  00020	e8 00 00 00 00	 call	 ?_Copy@?$basic_string@DU?$char_traits@D@std@@V?$allocator@D@2@@std@@IAEXII@Z ; std::basic_string<char,std::char_traits<char>,std::allocator<char> >::_Copy

; 1490 : 		return (0 < _Newsize);	// return true only if more work to do

  00025	33 c0		 xor	 eax, eax
  00027	3b c6		 cmp	 eax, esi
  00029	1b c0		 sbb	 eax, eax
  0002b	5e		 pop	 esi
  0002c	f7 d8		 neg	 eax
  0002e	5d		 pop	 ebp

; 1491 : 		}

  0002f	c2 08 00	 ret	 8
$L221381:

; 1485 : 		else if (_Trim && _Newsize < _BUF_SIZE)

  00032	8a 4c 24 10	 mov	 cl, BYTE PTR __Trim$[esp+4]
  00036	84 c9		 test	 cl, cl
  00038	74 5c		 je	 SHORT $L221383
  0003a	83 fe 10	 cmp	 esi, 16			; 00000010H
  0003d	73 57		 jae	 SHORT $L221383
  0003f	53		 push	 ebx

; 1486 : 			_Tidy(true,	// copy and deallocate if trimming to small string
; 1487 : 				_Newsize < _Mysize ? _Newsize : _Mysize);

  00040	8b 5d 14	 mov	 ebx, DWORD PTR [ebp+20]
  00043	3b f3		 cmp	 esi, ebx
  00045	73 02		 jae	 SHORT $L256132
  00047	8b de		 mov	 ebx, esi
$L256132:
  00049	83 f8 10	 cmp	 eax, 16			; 00000010H
  0004c	72 2b		 jb	 SHORT $L256187
  0004e	85 db		 test	 ebx, ebx
  00050	8b 45 04	 mov	 eax, DWORD PTR [ebp+4]
  00053	57		 push	 edi
  00054	8d 7d 04	 lea	 edi, DWORD PTR [ebp+4]
  00057	76 16		 jbe	 SHORT $L256184
  00059	8b cb		 mov	 ecx, ebx
  0005b	8b d1		 mov	 edx, ecx
  0005d	c1 e9 02	 shr	 ecx, 2
  00060	8b f0		 mov	 esi, eax
  00062	f3 a5		 rep movsd
  00064	8b ca		 mov	 ecx, edx
  00066	83 e1 03	 and	 ecx, 3
  00069	f3 a4		 rep movsb
  0006b	8b 74 24 14	 mov	 esi, DWORD PTR __Newsize$[esp+12]
$L256184:
  0006f	50		 push	 eax
  00070	e8 00 00 00 00	 call	 ??3@YAXPAX@Z		; operator delete
  00075	83 c4 04	 add	 esp, 4
  00078	5f		 pop	 edi
$L256187:
  00079	89 5d 14	 mov	 DWORD PTR [ebp+20], ebx

; 1490 : 		return (0 < _Newsize);	// return true only if more work to do

  0007c	33 c0		 xor	 eax, eax
  0007e	c7 45 18 0f 00
	00 00		 mov	 DWORD PTR [ebp+24], 15	; 0000000fH
  00085	c6 44 2b 04 00	 mov	 BYTE PTR [ebx+ebp+4], 0
  0008a	3b c6		 cmp	 eax, esi
  0008c	5b		 pop	 ebx
  0008d	1b c0		 sbb	 eax, eax
  0008f	5e		 pop	 esi
  00090	f7 d8		 neg	 eax
  00092	5d		 pop	 ebp

; 1491 : 		}

  00093	c2 08 00	 ret	 8
$L221383:

; 1488 : 		else if (_Newsize == 0)

  00096	85 f6		 test	 esi, esi
  00098	75 23		 jne	 SHORT $L256223

; 1489 : 			_Eos(0);	// new size is zero, just null terminate

  0009a	83 f8 10	 cmp	 eax, 16			; 00000010H
  0009d	89 75 14	 mov	 DWORD PTR [ebp+20], esi
  000a0	72 14		 jb	 SHORT $L256221
  000a2	8b 6d 04	 mov	 ebp, DWORD PTR [ebp+4]

; 1490 : 		return (0 < _Newsize);	// return true only if more work to do

  000a5	33 c0		 xor	 eax, eax
  000a7	3b c6		 cmp	 eax, esi
  000a9	1b c0		 sbb	 eax, eax
  000ab	5e		 pop	 esi
  000ac	c6 45 00 00	 mov	 BYTE PTR [ebp], 0
  000b0	f7 d8		 neg	 eax
  000b2	5d		 pop	 ebp

; 1491 : 		}

  000b3	c2 08 00	 ret	 8

; 1489 : 			_Eos(0);	// new size is zero, just null terminate

$L256221:
  000b6	83 c5 04	 add	 ebp, 4
  000b9	c6 45 00 00	 mov	 BYTE PTR [ebp], 0
$L256223:

; 1490 : 		return (0 < _Newsize);	// return true only if more work to do

  000bd	33 c0		 xor	 eax, eax
  000bf	3b c6		 cmp	 eax, esi
  000c1	1b c0		 sbb	 eax, eax
  000c3	5e		 pop	 esi
  000c4	f7 d8		 neg	 eax
  000c6	5d		 pop	 ebp

; 1491 : 		}

  000c7	c2 08 00	 ret	 8
?_Grow@?$basic_string@DU?$char_traits@D@std@@V?$allocator@D@2@@std@@IAE_NI_N@Z ENDP ; std::basic_string<char,std::char_traits<char>,std::allocator<char> >::_Grow
_TEXT	ENDS
PUBLIC	?_Ufill@?$vector@U_PocketController_Result@@V?$allocator@U_PocketController_Result@@@std@@@std@@IAEPAU_PocketController_Result@@PAU3@IABU3@@Z ; std::vector<_PocketController_Result,std::allocator<_PocketController_Result> >::_Ufill
; Function compile flags: /Ogty
; File c:\program files\microsoft visual studio .net 2003\vc7\include\vector
;	COMDAT ?_Ufill@?$vector@U_PocketController_Result@@V?$allocator@U_PocketController_Result@@@std@@@std@@IAEPAU_PocketController_Result@@PAU3@IABU3@@Z
_TEXT	SEGMENT
__Ptr$ = 8						; size = 4
__Count$ = 12						; size = 4
__Cat$256238 = 16					; size = 1
__Val$ = 16						; size = 4
?_Ufill@?$vector@U_PocketController_Result@@V?$allocator@U_PocketController_Result@@@std@@@std@@IAEPAU_PocketController_Result@@PAU3@IABU3@@Z PROC NEAR ; std::vector<_PocketController_Result,std::allocator<_PocketController_Result> >::_Ufill, COMDAT
; _this$ = ecx

; 878  : 		_Uninitialized_fill_n(_Ptr, _Count, _Val, this->_Alval);

  00000	8b 44 24 0c	 mov	 eax, DWORD PTR __Cat$256238[esp-4]
  00004	56		 push	 esi
  00005	8b 74 24 0c	 mov	 esi, DWORD PTR __Count$[esp]
  00009	57		 push	 edi
  0000a	8b 7c 24 0c	 mov	 edi, DWORD PTR __Ptr$[esp+4]
  0000e	50		 push	 eax
  0000f	51		 push	 ecx
  00010	8b 4c 24 1c	 mov	 ecx, DWORD PTR __Val$[esp+12]
  00014	51		 push	 ecx
  00015	56		 push	 esi
  00016	57		 push	 edi
  00017	e8 00 00 00 00	 call	 ??$_Uninit_fill_n@PAU_PocketController_Result@@IU1@V?$allocator@U_PocketController_Result@@@std@@@std@@YAXPAU_PocketController_Result@@IABU1@AAV?$allocator@U_PocketController_Result@@@0@U_Nonscalar_ptr_iterator_tag@0@@Z ; std::_Uninit_fill_n<_PocketController_Result *,unsigned int,_PocketController_Result,std::allocator<_PocketController_Result> >

; 879  : 		return (_Ptr + _Count);

  0001c	8d 14 76	 lea	 edx, DWORD PTR [esi+esi*2]
  0001f	83 c4 14	 add	 esp, 20			; 00000014H
  00022	8d 04 97	 lea	 eax, DWORD PTR [edi+edx*4]
  00025	5f		 pop	 edi
  00026	5e		 pop	 esi

; 880  : 		}

  00027	c2 0c 00	 ret	 12			; 0000000cH
?_Ufill@?$vector@U_PocketController_Result@@V?$allocator@U_PocketController_Result@@@std@@@std@@IAEPAU_PocketController_Result@@PAU3@IABU3@@Z ENDP ; std::vector<_PocketController_Result,std::allocator<_PocketController_Result> >::_Ufill
_TEXT	ENDS
PUBLIC	?_Destroy@?$vector@U_PocketController_Result@@V?$allocator@U_PocketController_Result@@@std@@@std@@IAEXPAU_PocketController_Result@@0@Z ; std::vector<_PocketController_Result,std::allocator<_PocketController_Result> >::_Destroy
; Function compile flags: /Ogty
;	COMDAT ?_Destroy@?$vector@U_PocketController_Result@@V?$allocator@U_PocketController_Result@@@std@@@std@@IAEXPAU_PocketController_Result@@0@Z
_TEXT	SEGMENT
__First$ = 8						; size = 4
__Last$ = 12						; size = 4
?_Destroy@?$vector@U_PocketController_Result@@V?$allocator@U_PocketController_Result@@@std@@@std@@IAEXPAU_PocketController_Result@@0@Z PROC NEAR ; std::vector<_PocketController_Result,std::allocator<_PocketController_Result> >::_Destroy, COMDAT
; _this$ = ecx

; 787  : 		_Destroy_range(_First, _Last, this->_Alval);
; 788  : 		}

  00000	c2 08 00	 ret	 8
?_Destroy@?$vector@U_PocketController_Result@@V?$allocator@U_PocketController_Result@@@std@@@std@@IAEXPAU_PocketController_Result@@0@Z ENDP ; std::vector<_PocketController_Result,std::allocator<_PocketController_Result> >::_Destroy
_TEXT	ENDS
PUBLIC	??1logic_error@std@@UAE@XZ			; std::logic_error::~logic_error
PUBLIC	?what@logic_error@std@@UBEPBDXZ			; std::logic_error::what
PUBLIC	??_7logic_error@std@@6B@			; std::logic_error::`vftable'
PUBLIC	??_Glogic_error@std@@UAEPAXI@Z			; std::logic_error::`scalar deleting destructor'
EXTRN	??1exception@@UAE@XZ:NEAR			; exception::~exception
EXTRN	??_Elogic_error@std@@UAEPAXI@Z:NEAR		; std::logic_error::`vector deleting destructor'
;	COMDAT ??_7logic_error@std@@6B@
; File c:\program files\microsoft visual studio .net 2003\vc7\include\iosfwd
CONST	SEGMENT
??_7logic_error@std@@6B@ DD FLAT:??_Elogic_error@std@@UAEPAXI@Z ; std::logic_error::`vftable'
	DD	FLAT:?what@logic_error@std@@UBEPBDXZ
; Function compile flags: /Ogty
; File c:\program files\microsoft visual studio .net 2003\vc7\include\stdexcept
CONST	ENDS
;	COMDAT ??1logic_error@std@@UAE@XZ
_TEXT	SEGMENT
??1logic_error@std@@UAE@XZ PROC NEAR			; std::logic_error::~logic_error, COMDAT
; _this$ = ecx

; 23   : 		{}	// destroy the object

  00000	56		 push	 esi
  00001	8b f1		 mov	 esi, ecx
  00003	c7 06 00 00 00
	00		 mov	 DWORD PTR [esi], OFFSET FLAT:??_7logic_error@std@@6B@
  00009	83 7e 24 10	 cmp	 DWORD PTR [esi+36], 16	; 00000010H
  0000d	72 0c		 jb	 SHORT $L256305
  0000f	8b 46 10	 mov	 eax, DWORD PTR [esi+16]
  00012	50		 push	 eax
  00013	e8 00 00 00 00	 call	 ??3@YAXPAX@Z		; operator delete
  00018	83 c4 04	 add	 esp, 4
$L256305:
  0001b	33 c0		 xor	 eax, eax
  0001d	c7 46 24 0f 00
	00 00		 mov	 DWORD PTR [esi+36], 15	; 0000000fH
  00024	89 46 20	 mov	 DWORD PTR [esi+32], eax
  00027	88 46 10	 mov	 BYTE PTR [esi+16], al
  0002a	8b ce		 mov	 ecx, esi
  0002c	5e		 pop	 esi
  0002d	e9 00 00 00 00	 jmp	 ??1exception@@UAE@XZ	; exception::~exception
??1logic_error@std@@UAE@XZ ENDP				; std::logic_error::~logic_error
; Function compile flags: /Ogty
_TEXT	ENDS
;	COMDAT ?what@logic_error@std@@UBEPBDXZ
_TEXT	SEGMENT
?what@logic_error@std@@UBEPBDXZ PROC NEAR		; std::logic_error::what, COMDAT
; _this$ = ecx

; 27   : 		return (_Str.c_str());

  00000	83 79 24 10	 cmp	 DWORD PTR [ecx+36], 16	; 00000010H
  00004	72 04		 jb	 SHORT $L256338
  00006	8b 41 10	 mov	 eax, DWORD PTR [ecx+16]

; 28   : 		}

  00009	c3		 ret	 0

; 27   : 		return (_Str.c_str());

$L256338:
  0000a	8d 41 10	 lea	 eax, DWORD PTR [ecx+16]

; 28   : 		}

  0000d	c3		 ret	 0
?what@logic_error@std@@UBEPBDXZ ENDP			; std::logic_error::what
; Function compile flags: /Ogty
_TEXT	ENDS
;	COMDAT ??_Glogic_error@std@@UAEPAXI@Z
_TEXT	SEGMENT
___flags$ = 8						; size = 4
??_Glogic_error@std@@UAEPAXI@Z PROC NEAR		; std::logic_error::`scalar deleting destructor', COMDAT
; _this$ = ecx
  00000	56		 push	 esi
  00001	8b f1		 mov	 esi, ecx
  00003	e8 00 00 00 00	 call	 ??1logic_error@std@@UAE@XZ ; std::logic_error::~logic_error
  00008	f6 44 24 08 01	 test	 BYTE PTR ___flags$[esp], 1
  0000d	74 09		 je	 SHORT $L256346
  0000f	56		 push	 esi
  00010	e8 00 00 00 00	 call	 ??3@YAXPAX@Z		; operator delete
  00015	83 c4 04	 add	 esp, 4
$L256346:
  00018	8b c6		 mov	 eax, esi
  0001a	5e		 pop	 esi
  0001b	c2 04 00	 ret	 4
??_Glogic_error@std@@UAEPAXI@Z ENDP			; std::logic_error::`scalar deleting destructor'
_TEXT	ENDS
PUBLIC	?assign@?$basic_string@DU?$char_traits@D@std@@V?$allocator@D@2@@std@@QAEAAV12@ABV12@II@Z ; std::basic_string<char,std::char_traits<char>,std::allocator<char> >::assign
; Function compile flags: /Ogty
; File c:\program files\microsoft visual studio .net 2003\vc7\include\xstring
;	COMDAT ?assign@?$basic_string@DU?$char_traits@D@std@@V?$allocator@D@2@@std@@QAEAAV12@ABV12@II@Z
_TEXT	SEGMENT
__Right$ = 8						; size = 4
__Roff$ = 12						; size = 4
__Count$ = 16						; size = 4
?assign@?$basic_string@DU?$char_traits@D@std@@V?$allocator@D@2@@std@@QAEAAV12@ABV12@II@Z PROC NEAR ; std::basic_string<char,std::char_traits<char>,std::allocator<char> >::assign, COMDAT
; _this$ = ecx

; 590  : 		{	// assign _Right [_Roff, _Roff + _Count)

  00000	53		 push	 ebx
  00001	55		 push	 ebp
  00002	56		 push	 esi

; 591  : 		if (_Right.size() < _Roff)

  00003	8b 74 24 14	 mov	 esi, DWORD PTR __Roff$[esp+8]
  00007	57		 push	 edi
  00008	8b 7c 24 14	 mov	 edi, DWORD PTR __Right$[esp+12]
  0000c	39 77 14	 cmp	 DWORD PTR [edi+20], esi
  0000f	8b d9		 mov	 ebx, ecx
  00011	73 05		 jae	 SHORT $L220001

; 592  : 			_String_base::_Xran();	// _Roff off end

  00013	e8 00 00 00 00	 call	 ?_Xran@_String_base@std@@QBEXXZ ; std::_String_base::_Xran
$L220001:

; 593  : 		size_type _Num = _Right.size() - _Roff;

  00018	8b 6f 14	 mov	 ebp, DWORD PTR [edi+20]

; 594  : 		if (_Count < _Num)

  0001b	8b 44 24 1c	 mov	 eax, DWORD PTR __Count$[esp+12]
  0001f	2b ee		 sub	 ebp, esi
  00021	3b c5		 cmp	 eax, ebp
  00023	73 02		 jae	 SHORT $L220003

; 595  : 			_Num = _Count;	// trim _Num to size

  00025	8b e8		 mov	 ebp, eax
$L220003:

; 596  : 
; 597  : 		if (this == &_Right)

  00027	3b df		 cmp	 ebx, edi
  00029	75 1f		 jne	 SHORT $L220004

; 598  : 			erase((size_type)(_Roff + _Num)), erase(0, _Roff);	// substring

  0002b	6a ff		 push	 -1
  0002d	03 ee		 add	 ebp, esi
  0002f	55		 push	 ebp
  00030	8b cb		 mov	 ecx, ebx
  00032	e8 00 00 00 00	 call	 ?erase@?$basic_string@DU?$char_traits@D@std@@V?$allocator@D@2@@std@@QAEAAV12@II@Z ; std::basic_string<char,std::char_traits<char>,std::allocator<char> >::erase
  00037	56		 push	 esi
  00038	6a 00		 push	 0
  0003a	8b cb		 mov	 ecx, ebx
  0003c	e8 00 00 00 00	 call	 ?erase@?$basic_string@DU?$char_traits@D@std@@V?$allocator@D@2@@std@@QAEAAV12@II@Z ; std::basic_string<char,std::char_traits<char>,std::allocator<char> >::erase
  00041	5f		 pop	 edi
  00042	5e		 pop	 esi
  00043	5d		 pop	 ebp

; 603  : 			}
; 604  : 		return (*this);

  00044	8b c3		 mov	 eax, ebx
  00046	5b		 pop	 ebx

; 605  : 		}

  00047	c2 0c 00	 ret	 12			; 0000000cH
$L220004:

; 599  : 		else if (_Grow(_Num))

  0004a	83 fd fe	 cmp	 ebp, -2			; fffffffeH
  0004d	76 07		 jbe	 SHORT $L256455
  0004f	8b cb		 mov	 ecx, ebx
  00051	e8 00 00 00 00	 call	 ?_Xlen@_String_base@std@@QBEXXZ ; std::_String_base::_Xlen
$L256455:
  00056	8b 43 18	 mov	 eax, DWORD PTR [ebx+24]
  00059	3b c5		 cmp	 eax, ebp
  0005b	73 21		 jae	 SHORT $L256456
  0005d	8b 43 14	 mov	 eax, DWORD PTR [ebx+20]
  00060	50		 push	 eax
  00061	55		 push	 ebp
  00062	8b cb		 mov	 ecx, ebx
  00064	e8 00 00 00 00	 call	 ?_Copy@?$basic_string@DU?$char_traits@D@std@@V?$allocator@D@2@@std@@IAEXII@Z ; std::basic_string<char,std::char_traits<char>,std::allocator<char> >::_Copy
  00069	85 ed		 test	 ebp, ebp
$L256543:
  0006b	76 6d		 jbe	 SHORT $L256542

; 600  : 			{	// make room and assign new stuff
; 601  : 			_Traits::copy(_Myptr(), _Right._Myptr() + _Roff, _Num);

  0006d	8b 4f 18	 mov	 ecx, DWORD PTR [edi+24]
  00070	b8 10 00 00 00	 mov	 eax, 16			; 00000010H
  00075	3b c8		 cmp	 ecx, eax
  00077	72 2f		 jb	 SHORT $L256507
  00079	8b 57 04	 mov	 edx, DWORD PTR [edi+4]
  0007c	eb 2d		 jmp	 SHORT $L256508

; 599  : 		else if (_Grow(_Num))

$L256456:
  0007e	85 ed		 test	 ebp, ebp
  00080	75 e9		 jne	 SHORT $L256543
  00082	83 f8 10	 cmp	 eax, 16			; 00000010H
  00085	89 6b 14	 mov	 DWORD PTR [ebx+20], ebp
  00088	72 0f		 jb	 SHORT $L256499
  0008a	8b 43 04	 mov	 eax, DWORD PTR [ebx+4]
  0008d	5f		 pop	 edi
  0008e	5e		 pop	 esi
  0008f	c6 00 00	 mov	 BYTE PTR [eax], 0
  00092	5d		 pop	 ebp

; 603  : 			}
; 604  : 		return (*this);

  00093	8b c3		 mov	 eax, ebx
  00095	5b		 pop	 ebx

; 605  : 		}

  00096	c2 0c 00	 ret	 12			; 0000000cH

; 599  : 		else if (_Grow(_Num))

$L256499:
  00099	5f		 pop	 edi
  0009a	8d 43 04	 lea	 eax, DWORD PTR [ebx+4]
  0009d	5e		 pop	 esi
  0009e	c6 00 00	 mov	 BYTE PTR [eax], 0
  000a1	5d		 pop	 ebp

; 603  : 			}
; 604  : 		return (*this);

  000a2	8b c3		 mov	 eax, ebx
  000a4	5b		 pop	 ebx

; 605  : 		}

  000a5	c2 0c 00	 ret	 12			; 0000000cH

; 600  : 			{	// make room and assign new stuff
; 601  : 			_Traits::copy(_Myptr(), _Right._Myptr() + _Roff, _Num);

$L256507:
  000a8	8d 57 04	 lea	 edx, DWORD PTR [edi+4]
$L256508:
  000ab	39 43 18	 cmp	 DWORD PTR [ebx+24], eax
  000ae	8d 43 04	 lea	 eax, DWORD PTR [ebx+4]
  000b1	72 04		 jb	 SHORT $L256515
  000b3	8b 38		 mov	 edi, DWORD PTR [eax]
  000b5	eb 02		 jmp	 SHORT $L256516
$L256515:
  000b7	8b f8		 mov	 edi, eax
$L256516:
  000b9	03 f2		 add	 esi, edx
  000bb	8b cd		 mov	 ecx, ebp
  000bd	8b d1		 mov	 edx, ecx
  000bf	c1 e9 02	 shr	 ecx, 2
  000c2	f3 a5		 rep movsd
  000c4	8b ca		 mov	 ecx, edx
  000c6	83 e1 03	 and	 ecx, 3
  000c9	f3 a4		 rep movsb

; 602  : 			_Eos(_Num);

  000cb	83 7b 18 10	 cmp	 DWORD PTR [ebx+24], 16	; 00000010H
  000cf	89 6b 14	 mov	 DWORD PTR [ebx+20], ebp
  000d2	72 02		 jb	 SHORT $L256539
  000d4	8b 00		 mov	 eax, DWORD PTR [eax]
$L256539:
  000d6	c6 04 28 00	 mov	 BYTE PTR [eax+ebp], 0
$L256542:
  000da	5f		 pop	 edi
  000db	5e		 pop	 esi
  000dc	5d		 pop	 ebp

; 603  : 			}
; 604  : 		return (*this);

  000dd	8b c3		 mov	 eax, ebx
  000df	5b		 pop	 ebx

; 605  : 		}

  000e0	c2 0c 00	 ret	 12			; 0000000cH
?assign@?$basic_string@DU?$char_traits@D@std@@V?$allocator@D@2@@std@@QAEAAV12@ABV12@II@Z ENDP ; std::basic_string<char,std::char_traits<char>,std::allocator<char> >::assign
_TEXT	ENDS
PUBLIC	?assign@?$basic_string@DU?$char_traits@D@std@@V?$allocator@D@2@@std@@QAEAAV12@PBDI@Z ; std::basic_string<char,std::char_traits<char>,std::allocator<char> >::assign
; Function compile flags: /Ogty
;	COMDAT ?assign@?$basic_string@DU?$char_traits@D@std@@V?$allocator@D@2@@std@@QAEAAV12@PBDI@Z
_TEXT	SEGMENT
__Ptr$ = 8						; size = 4
__Num$ = 12						; size = 4
?assign@?$basic_string@DU?$char_traits@D@std@@V?$allocator@D@2@@std@@QAEAAV12@PBDI@Z PROC NEAR ; std::basic_string<char,std::char_traits<char>,std::allocator<char> >::assign, COMDAT
; _this$ = ecx

; 608  : 		{	// assign [_Ptr, _Ptr + _Num)

  00000	53		 push	 ebx
  00001	8b d9		 mov	 ebx, ecx

; 609  : 		if (_Inside(_Ptr))

  00003	8b 53 18	 mov	 edx, DWORD PTR [ebx+24]
  00006	83 fa 10	 cmp	 edx, 16			; 00000010H
  00009	56		 push	 esi
  0000a	57		 push	 edi
  0000b	72 05		 jb	 SHORT $L256565
  0000d	8b 43 04	 mov	 eax, DWORD PTR [ebx+4]
  00010	eb 03		 jmp	 SHORT $L256566
$L256565:
  00012	8d 43 04	 lea	 eax, DWORD PTR [ebx+4]
$L256566:
  00015	8b 74 24 10	 mov	 esi, DWORD PTR __Ptr$[esp+8]
  00019	3b f0		 cmp	 esi, eax
  0001b	72 34		 jb	 SHORT $L221367
  0001d	83 fa 10	 cmp	 edx, 16			; 00000010H
  00020	8d 43 04	 lea	 eax, DWORD PTR [ebx+4]
  00023	72 04		 jb	 SHORT $L256569
  00025	8b 08		 mov	 ecx, DWORD PTR [eax]
  00027	eb 02		 jmp	 SHORT $L256570
$L256569:
  00029	8b c8		 mov	 ecx, eax
$L256570:
  0002b	8b 7b 14	 mov	 edi, DWORD PTR [ebx+20]
  0002e	03 f9		 add	 edi, ecx
  00030	3b fe		 cmp	 edi, esi
  00032	76 1d		 jbe	 SHORT $L221367

; 610  : 			return (assign(*this, _Ptr - _Myptr(), _Num));	// substring

  00034	83 fa 10	 cmp	 edx, 16			; 00000010H
  00037	72 02		 jb	 SHORT $L256582
  00039	8b 00		 mov	 eax, DWORD PTR [eax]
$L256582:
  0003b	8b 4c 24 14	 mov	 ecx, DWORD PTR __Num$[esp+8]
  0003f	51		 push	 ecx
  00040	2b f0		 sub	 esi, eax
  00042	56		 push	 esi
  00043	53		 push	 ebx
  00044	8b cb		 mov	 ecx, ebx
  00046	e8 00 00 00 00	 call	 ?assign@?$basic_string@DU?$char_traits@D@std@@V?$allocator@D@2@@std@@QAEAAV12@ABV12@II@Z ; std::basic_string<char,std::char_traits<char>,std::allocator<char> >::assign
  0004b	5f		 pop	 edi
  0004c	5e		 pop	 esi
  0004d	5b		 pop	 ebx

; 618  : 		}

  0004e	c2 08 00	 ret	 8
$L221367:
  00051	55		 push	 ebp

; 611  : 
; 612  : 		if (_Grow(_Num))

  00052	8b 6c 24 18	 mov	 ebp, DWORD PTR __Num$[esp+12]
  00056	83 fd fe	 cmp	 ebp, -2			; fffffffeH
  00059	76 07		 jbe	 SHORT $L256680
  0005b	8b cb		 mov	 ecx, ebx
  0005d	e8 00 00 00 00	 call	 ?_Xlen@_String_base@std@@QBEXXZ ; std::_String_base::_Xlen
$L256680:
  00062	8b 43 18	 mov	 eax, DWORD PTR [ebx+24]
  00065	3b c5		 cmp	 eax, ebp
  00067	73 1b		 jae	 SHORT $L256681
  00069	8b 53 14	 mov	 edx, DWORD PTR [ebx+20]
  0006c	52		 push	 edx
  0006d	55		 push	 ebp
  0006e	8b cb		 mov	 ecx, ebx
  00070	e8 00 00 00 00	 call	 ?_Copy@?$basic_string@DU?$char_traits@D@std@@V?$allocator@D@2@@std@@IAEXII@Z ; std::basic_string<char,std::char_traits<char>,std::allocator<char> >::_Copy
  00075	85 ed		 test	 ebp, ebp
$L256761:
  00077	76 68		 jbe	 SHORT $L256758

; 613  : 			{	// make room and assign new stuff
; 614  : 			_Traits::copy(_Myptr(), _Ptr, _Num);

  00079	83 7b 18 10	 cmp	 DWORD PTR [ebx+24], 16	; 00000010H
  0007d	72 2f		 jb	 SHORT $L256733
  0007f	8b 7b 04	 mov	 edi, DWORD PTR [ebx+4]
  00082	eb 2d		 jmp	 SHORT $L256734

; 611  : 
; 612  : 		if (_Grow(_Num))

$L256681:
  00084	85 ed		 test	 ebp, ebp
  00086	75 ef		 jne	 SHORT $L256761
  00088	83 f8 10	 cmp	 eax, 16			; 00000010H
  0008b	89 6b 14	 mov	 DWORD PTR [ebx+20], ebp
  0008e	72 0f		 jb	 SHORT $L256724
  00090	8b 43 04	 mov	 eax, DWORD PTR [ebx+4]
  00093	5d		 pop	 ebp
  00094	5f		 pop	 edi
  00095	c6 00 00	 mov	 BYTE PTR [eax], 0
  00098	5e		 pop	 esi

; 616  : 			}
; 617  : 		return (*this);

  00099	8b c3		 mov	 eax, ebx
  0009b	5b		 pop	 ebx

; 618  : 		}

  0009c	c2 08 00	 ret	 8

; 611  : 
; 612  : 		if (_Grow(_Num))

$L256724:
  0009f	5d		 pop	 ebp
  000a0	8d 43 04	 lea	 eax, DWORD PTR [ebx+4]
  000a3	5f		 pop	 edi
  000a4	c6 00 00	 mov	 BYTE PTR [eax], 0
  000a7	5e		 pop	 esi

; 616  : 			}
; 617  : 		return (*this);

  000a8	8b c3		 mov	 eax, ebx
  000aa	5b		 pop	 ebx

; 618  : 		}

  000ab	c2 08 00	 ret	 8

; 613  : 			{	// make room and assign new stuff
; 614  : 			_Traits::copy(_Myptr(), _Ptr, _Num);

$L256733:
  000ae	8d 7b 04	 lea	 edi, DWORD PTR [ebx+4]
$L256734:
  000b1	8b cd		 mov	 ecx, ebp
  000b3	8b c1		 mov	 eax, ecx
  000b5	c1 e9 02	 shr	 ecx, 2
  000b8	f3 a5		 rep movsd
  000ba	8b c8		 mov	 ecx, eax
  000bc	83 e1 03	 and	 ecx, 3
  000bf	f3 a4		 rep movsb

; 615  : 			_Eos(_Num);

  000c1	83 7b 18 10	 cmp	 DWORD PTR [ebx+24], 16	; 00000010H
  000c5	89 6b 14	 mov	 DWORD PTR [ebx+20], ebp
  000c8	72 10		 jb	 SHORT $L256756
  000ca	8b 43 04	 mov	 eax, DWORD PTR [ebx+4]
  000cd	c6 04 28 00	 mov	 BYTE PTR [eax+ebp], 0
  000d1	5d		 pop	 ebp
  000d2	5f		 pop	 edi
  000d3	5e		 pop	 esi

; 616  : 			}
; 617  : 		return (*this);

  000d4	8b c3		 mov	 eax, ebx
  000d6	5b		 pop	 ebx

; 618  : 		}

  000d7	c2 08 00	 ret	 8

; 615  : 			_Eos(_Num);

$L256756:
  000da	8d 43 04	 lea	 eax, DWORD PTR [ebx+4]
  000dd	c6 04 28 00	 mov	 BYTE PTR [eax+ebp], 0
$L256758:
  000e1	5d		 pop	 ebp
  000e2	5f		 pop	 edi
  000e3	5e		 pop	 esi

; 616  : 			}
; 617  : 		return (*this);

  000e4	8b c3		 mov	 eax, ebx
  000e6	5b		 pop	 ebx

; 618  : 		}

  000e7	c2 08 00	 ret	 8
?assign@?$basic_string@DU?$char_traits@D@std@@V?$allocator@D@2@@std@@QAEAAV12@PBDI@Z ENDP ; std::basic_string<char,std::char_traits<char>,std::allocator<char> >::assign
_TEXT	ENDS
PUBLIC	??0?$basic_string@DU?$char_traits@D@std@@V?$allocator@D@2@@std@@QAE@ABV01@@Z ; std::basic_string<char,std::char_traits<char>,std::allocator<char> >::basic_string<char,std::char_traits<char>,std::allocator<char> >
; Function compile flags: /Ogty
;	COMDAT ??0?$basic_string@DU?$char_traits@D@std@@V?$allocator@D@2@@std@@QAE@ABV01@@Z
_TEXT	SEGMENT
__Right$ = 8						; size = 4
??0?$basic_string@DU?$char_traits@D@std@@V?$allocator@D@2@@std@@QAE@ABV01@@Z PROC NEAR ; std::basic_string<char,std::char_traits<char>,std::allocator<char> >::basic_string<char,std::char_traits<char>,std::allocator<char> >, COMDAT
; _this$ = ecx

; 323  : 		{	// construct by copying _Right

  00000	56		 push	 esi

; 324  : 		_Tidy();

  00001	33 c0		 xor	 eax, eax
  00003	8b f1		 mov	 esi, ecx

; 325  : 		assign(_Right, 0, npos);

  00005	6a ff		 push	 -1
  00007	89 46 14	 mov	 DWORD PTR [esi+20], eax
  0000a	c7 46 18 0f 00
	00 00		 mov	 DWORD PTR [esi+24], 15	; 0000000fH
  00011	50		 push	 eax
  00012	88 46 04	 mov	 BYTE PTR [esi+4], al
  00015	8b 44 24 10	 mov	 eax, DWORD PTR __Right$[esp+8]
  00019	50		 push	 eax
  0001a	e8 00 00 00 00	 call	 ?assign@?$basic_string@DU?$char_traits@D@std@@V?$allocator@D@2@@std@@QAEAAV12@ABV12@II@Z ; std::basic_string<char,std::char_traits<char>,std::allocator<char> >::assign

; 326  : 		}

  0001f	8b c6		 mov	 eax, esi
  00021	5e		 pop	 esi
  00022	c2 04 00	 ret	 4
??0?$basic_string@DU?$char_traits@D@std@@V?$allocator@D@2@@std@@QAE@ABV01@@Z ENDP ; std::basic_string<char,std::char_traits<char>,std::allocator<char> >::basic_string<char,std::char_traits<char>,std::allocator<char> >
_TEXT	ENDS
PUBLIC	?assign@?$basic_string@DU?$char_traits@D@std@@V?$allocator@D@2@@std@@QAEAAV12@PBD@Z ; std::basic_string<char,std::char_traits<char>,std::allocator<char> >::assign
; Function compile flags: /Ogty
;	COMDAT ?assign@?$basic_string@DU?$char_traits@D@std@@V?$allocator@D@2@@std@@QAEAAV12@PBD@Z
_TEXT	SEGMENT
__Ptr$ = 8						; size = 4
?assign@?$basic_string@DU?$char_traits@D@std@@V?$allocator@D@2@@std@@QAEAAV12@PBD@Z PROC NEAR ; std::basic_string<char,std::char_traits<char>,std::allocator<char> >::assign, COMDAT
; _this$ = ecx

; 621  : 		{	// assign [_Ptr, <null>)

  00000	56		 push	 esi

; 622  : 		return (assign(_Ptr, _Traits::length(_Ptr)));

  00001	8b 74 24 08	 mov	 esi, DWORD PTR __Ptr$[esp]
  00005	8b c6		 mov	 eax, esi
  00007	57		 push	 edi
  00008	8d 78 01	 lea	 edi, DWORD PTR [eax+1]
  0000b	eb 03 8d 49 00	 npad	 5
$L256835:
  00010	8a 10		 mov	 dl, BYTE PTR [eax]
  00012	40		 inc	 eax
  00013	84 d2		 test	 dl, dl
  00015	75 f9		 jne	 SHORT $L256835
  00017	2b c7		 sub	 eax, edi
  00019	50		 push	 eax
  0001a	56		 push	 esi
  0001b	e8 00 00 00 00	 call	 ?assign@?$basic_string@DU?$char_traits@D@std@@V?$allocator@D@2@@std@@QAEAAV12@PBDI@Z ; std::basic_string<char,std::char_traits<char>,std::allocator<char> >::assign
  00020	5f		 pop	 edi
  00021	5e		 pop	 esi

; 623  : 		}

  00022	c2 04 00	 ret	 4
?assign@?$basic_string@DU?$char_traits@D@std@@V?$allocator@D@2@@std@@QAEAAV12@PBD@Z ENDP ; std::basic_string<char,std::char_traits<char>,std::allocator<char> >::assign
_TEXT	ENDS
PUBLIC	??0logic_error@std@@QAE@ABV?$basic_string@DU?$char_traits@D@std@@V?$allocator@D@2@@1@@Z ; std::logic_error::logic_error
EXTRN	??0exception@@QAE@XZ:NEAR			; exception::exception
;	COMDAT xdata$x
; File c:\program files\microsoft visual studio .net 2003\vc7\include\iosfwd
xdata$x	SEGMENT
$T256939 DD	0ffffffffH
	DD	FLAT:$L256839
$T256937 DD	019930520H
	DD	01H
	DD	FLAT:$T256939
	DD	2 DUP(00H)
	DD	2 DUP(00H)
; Function compile flags: /Ogty
; File c:\program files\microsoft visual studio .net 2003\vc7\include\stdexcept
xdata$x	ENDS
;	COMDAT ??0logic_error@std@@QAE@ABV?$basic_string@DU?$char_traits@D@std@@V?$allocator@D@2@@1@@Z
_TEXT	SEGMENT
_this$ = -16						; size = 4
__$EHRec$ = -12						; size = 12
__Message$ = 8						; size = 4
??0logic_error@std@@QAE@ABV?$basic_string@DU?$char_traits@D@std@@V?$allocator@D@2@@1@@Z PROC NEAR ; std::logic_error::logic_error, COMDAT
; _this$ = ecx

; 19   : 		{	// construct from message string

  00000	6a ff		 push	 -1
  00002	68 00 00 00 00	 push	 __ehhandler$??0logic_error@std@@QAE@ABV?$basic_string@DU?$char_traits@D@std@@V?$allocator@D@2@@1@@Z
  00007	64 a1 00 00 00
	00		 mov	 eax, DWORD PTR fs:__except_list
  0000d	50		 push	 eax
  0000e	64 89 25 00 00
	00 00		 mov	 DWORD PTR fs:__except_list, esp
  00015	51		 push	 ecx
  00016	56		 push	 esi
  00017	8b f1		 mov	 esi, ecx
  00019	89 74 24 04	 mov	 DWORD PTR _this$[esp+20], esi
  0001d	e8 00 00 00 00	 call	 ??0exception@@QAE@XZ	; exception::exception
  00022	33 c0		 xor	 eax, eax
  00024	8d 4e 0c	 lea	 ecx, DWORD PTR [esi+12]
  00027	c7 06 00 00 00
	00		 mov	 DWORD PTR [esi], OFFSET FLAT:??_7logic_error@std@@6B@
  0002d	6a ff		 push	 -1
  0002f	89 41 14	 mov	 DWORD PTR [ecx+20], eax
  00032	c7 41 18 0f 00
	00 00		 mov	 DWORD PTR [ecx+24], 15	; 0000000fH
  00039	50		 push	 eax
  0003a	89 44 24 18	 mov	 DWORD PTR __$EHRec$[esp+36], eax
  0003e	88 41 04	 mov	 BYTE PTR [ecx+4], al
  00041	8b 44 24 20	 mov	 eax, DWORD PTR __Message$[esp+24]
  00045	50		 push	 eax
  00046	e8 00 00 00 00	 call	 ?assign@?$basic_string@DU?$char_traits@D@std@@V?$allocator@D@2@@std@@QAEAAV12@ABV12@II@Z ; std::basic_string<char,std::char_traits<char>,std::allocator<char> >::assign

; 20   : 		}

  0004b	8b 4c 24 08	 mov	 ecx, DWORD PTR __$EHRec$[esp+20]
  0004f	8b c6		 mov	 eax, esi
  00051	5e		 pop	 esi
  00052	64 89 0d 00 00
	00 00		 mov	 DWORD PTR fs:__except_list, ecx
  00059	83 c4 10	 add	 esp, 16			; 00000010H
  0005c	c2 04 00	 ret	 4
_TEXT	ENDS
;	COMDAT text$x
text$x	SEGMENT
$L256839:
  00000	8b 4d f0	 mov	 ecx, DWORD PTR _this$[ebp]
  00003	e9 00 00 00 00	 jmp	 ??1exception@@UAE@XZ	; exception::~exception
__ehhandler$??0logic_error@std@@QAE@ABV?$basic_string@DU?$char_traits@D@std@@V?$allocator@D@2@@1@@Z:
  00008	b8 00 00 00 00	 mov	 eax, OFFSET FLAT:$T256937
  0000d	e9 00 00 00 00	 jmp	 ___CxxFrameHandler
text$x	ENDS
??0logic_error@std@@QAE@ABV?$basic_string@DU?$char_traits@D@std@@V?$allocator@D@2@@1@@Z ENDP ; std::logic_error::logic_error
PUBLIC	??0length_error@std@@QAE@ABV?$basic_string@DU?$char_traits@D@std@@V?$allocator@D@2@@1@@Z ; std::length_error::length_error
PUBLIC	??_7length_error@std@@6B@			; std::length_error::`vftable'
PUBLIC	??_Glength_error@std@@UAEPAXI@Z			; std::length_error::`scalar deleting destructor'
EXTRN	??_Elength_error@std@@UAEPAXI@Z:NEAR		; std::length_error::`vector deleting destructor'
;	COMDAT ??_7length_error@std@@6B@
CONST	SEGMENT
??_7length_error@std@@6B@ DD FLAT:??_Elength_error@std@@UAEPAXI@Z ; std::length_error::`vftable'
	DD	FLAT:?what@logic_error@std@@UBEPBDXZ
; Function compile flags: /Ogty
CONST	ENDS
;	COMDAT ??0length_error@std@@QAE@ABV?$basic_string@DU?$char_traits@D@std@@V?$allocator@D@2@@1@@Z
_TEXT	SEGMENT
__Message$ = 8						; size = 4
??0length_error@std@@QAE@ABV?$basic_string@DU?$char_traits@D@std@@V?$allocator@D@2@@1@@Z PROC NEAR ; std::length_error::length_error, COMDAT
; _this$ = ecx

; 95   : 		{	// construct from message string

  00000	8b 44 24 04	 mov	 eax, DWORD PTR __Message$[esp-4]
  00004	56		 push	 esi
  00005	50		 push	 eax
  00006	8b f1		 mov	 esi, ecx
  00008	e8 00 00 00 00	 call	 ??0logic_error@std@@QAE@ABV?$basic_string@DU?$char_traits@D@std@@V?$allocator@D@2@@1@@Z ; std::logic_error::logic_error
  0000d	c7 06 00 00 00
	00		 mov	 DWORD PTR [esi], OFFSET FLAT:??_7length_error@std@@6B@

; 96   : 		}

  00013	8b c6		 mov	 eax, esi
  00015	5e		 pop	 esi
  00016	c2 04 00	 ret	 4
??0length_error@std@@QAE@ABV?$basic_string@DU?$char_traits@D@std@@V?$allocator@D@2@@1@@Z ENDP ; std::length_error::length_error
_TEXT	ENDS
PUBLIC	??1length_error@std@@UAE@XZ			; std::length_error::~length_error
; Function compile flags: /Ogty
;	COMDAT ??_Glength_error@std@@UAEPAXI@Z
_TEXT	SEGMENT
___flags$ = 8						; size = 4
??_Glength_error@std@@UAEPAXI@Z PROC NEAR		; std::length_error::`scalar deleting destructor', COMDAT
; _this$ = ecx
  00000	56		 push	 esi
  00001	8b f1		 mov	 esi, ecx
  00003	e8 00 00 00 00	 call	 ??1length_error@std@@UAE@XZ ; std::length_error::~length_error
  00008	f6 44 24 08 01	 test	 BYTE PTR ___flags$[esp], 1
  0000d	74 09		 je	 SHORT $L256949
  0000f	56		 push	 esi
  00010	e8 00 00 00 00	 call	 ??3@YAXPAX@Z		; operator delete
  00015	83 c4 04	 add	 esp, 4
$L256949:
  00018	8b c6		 mov	 eax, esi
  0001a	5e		 pop	 esi
  0001b	c2 04 00	 ret	 4
??_Glength_error@std@@UAEPAXI@Z ENDP			; std::length_error::`scalar deleting destructor'
; Function compile flags: /Ogty
_TEXT	ENDS
;	COMDAT ??1length_error@std@@UAE@XZ
_TEXT	SEGMENT
??1length_error@std@@UAE@XZ PROC NEAR			; std::length_error::~length_error, COMDAT
; _this$ = ecx

; 99   : 		{}	// destroy the object

  00000	56		 push	 esi
  00001	8b f1		 mov	 esi, ecx
  00003	c7 06 00 00 00
	00		 mov	 DWORD PTR [esi], OFFSET FLAT:??_7logic_error@std@@6B@
  00009	83 7e 24 10	 cmp	 DWORD PTR [esi+36], 16	; 00000010H
  0000d	72 0c		 jb	 SHORT $L257044
  0000f	8b 46 10	 mov	 eax, DWORD PTR [esi+16]
  00012	50		 push	 eax
  00013	e8 00 00 00 00	 call	 ??3@YAXPAX@Z		; operator delete
  00018	83 c4 04	 add	 esp, 4
$L257044:
  0001b	33 c0		 xor	 eax, eax
  0001d	c7 46 24 0f 00
	00 00		 mov	 DWORD PTR [esi+36], 15	; 0000000fH
  00024	89 46 20	 mov	 DWORD PTR [esi+32], eax
  00027	88 46 10	 mov	 BYTE PTR [esi+16], al
  0002a	8b ce		 mov	 ecx, esi
  0002c	5e		 pop	 esi
  0002d	e9 00 00 00 00	 jmp	 ??1exception@@UAE@XZ	; exception::~exception
??1length_error@std@@UAE@XZ ENDP			; std::length_error::~length_error
_TEXT	ENDS
PUBLIC	??0?$basic_string@DU?$char_traits@D@std@@V?$allocator@D@2@@std@@QAE@PBD@Z ; std::basic_string<char,std::char_traits<char>,std::allocator<char> >::basic_string<char,std::char_traits<char>,std::allocator<char> >
; Function compile flags: /Ogty
; File c:\program files\microsoft visual studio .net 2003\vc7\include\xstring
;	COMDAT ??0?$basic_string@DU?$char_traits@D@std@@V?$allocator@D@2@@std@@QAE@PBD@Z
_TEXT	SEGMENT
__Ptr$ = 8						; size = 4
??0?$basic_string@DU?$char_traits@D@std@@V?$allocator@D@2@@std@@QAE@PBD@Z PROC NEAR ; std::basic_string<char,std::char_traits<char>,std::allocator<char> >::basic_string<char,std::char_traits<char>,std::allocator<char> >, COMDAT
; _this$ = ecx

; 361  : 		_Tidy();
; 362  : 		assign(_Ptr);

  00000	8b 54 24 04	 mov	 edx, DWORD PTR __Ptr$[esp-4]
  00004	56		 push	 esi
  00005	8b f1		 mov	 esi, ecx
  00007	8b c2		 mov	 eax, edx
  00009	57		 push	 edi
  0000a	c7 46 18 0f 00
	00 00		 mov	 DWORD PTR [esi+24], 15	; 0000000fH
  00011	c7 46 14 00 00
	00 00		 mov	 DWORD PTR [esi+20], 0
  00018	c6 46 04 00	 mov	 BYTE PTR [esi+4], 0
  0001c	8d 78 01	 lea	 edi, DWORD PTR [eax+1]
  0001f	90		 npad	 1
$L257131:
  00020	8a 08		 mov	 cl, BYTE PTR [eax]
  00022	40		 inc	 eax
  00023	84 c9		 test	 cl, cl
  00025	75 f9		 jne	 SHORT $L257131
  00027	2b c7		 sub	 eax, edi
  00029	50		 push	 eax
  0002a	52		 push	 edx
  0002b	8b ce		 mov	 ecx, esi
  0002d	e8 00 00 00 00	 call	 ?assign@?$basic_string@DU?$char_traits@D@std@@V?$allocator@D@2@@std@@QAEAAV12@PBDI@Z ; std::basic_string<char,std::char_traits<char>,std::allocator<char> >::assign
  00032	5f		 pop	 edi

; 363  : 		}

  00033	8b c6		 mov	 eax, esi
  00035	5e		 pop	 esi
  00036	c2 04 00	 ret	 4
??0?$basic_string@DU?$char_traits@D@std@@V?$allocator@D@2@@std@@QAE@PBD@Z ENDP ; std::basic_string<char,std::char_traits<char>,std::allocator<char> >::basic_string<char,std::char_traits<char>,std::allocator<char> >
_TEXT	ENDS
PUBLIC	??_C@_0BD@OLBABOEK@vector?$DMT?$DO?5too?5long?$AA@ ; `string'
PUBLIC	__TI3?AVlength_error@std@@
PUBLIC	__CTA3?AVlength_error@std@@
PUBLIC	??_R0?AVlength_error@std@@@8			; std::length_error `RTTI Type Descriptor'
PUBLIC	__CT??_R0?AVlength_error@std@@@8??0length_error@std@@QAE@ABV01@@Z40
PUBLIC	??_R0?AVlogic_error@std@@@8			; std::logic_error `RTTI Type Descriptor'
PUBLIC	__CT??_R0?AVlogic_error@std@@@8??0logic_error@std@@QAE@ABV01@@Z40
PUBLIC	??_R0?AVexception@@@8				; exception `RTTI Type Descriptor'
PUBLIC	__CT??_R0?AVexception@@@8??0exception@@QAE@ABV0@@Z12
PUBLIC	?_Xlen@?$vector@U_PocketController_Result@@V?$allocator@U_PocketController_Result@@@std@@@std@@IBEXXZ ; std::vector<_PocketController_Result,std::allocator<_PocketController_Result> >::_Xlen
PUBLIC	??0logic_error@std@@QAE@ABV01@@Z		; std::logic_error::logic_error
PUBLIC	??0length_error@std@@QAE@ABV01@@Z		; std::length_error::length_error
EXTRN	??0exception@@QAE@ABV0@@Z:NEAR			; exception::exception
EXTRN	??_7type_info@@6B@:DWORD			; type_info::`vftable'
;	COMDAT xdata$x
; File c:\program files\microsoft visual studio .net 2003\vc7\include\stdexcept
xdata$x	SEGMENT
$T257252 DD	0ffffffffH
	DD	FLAT:$L257137
$T257249 DD	019930520H
	DD	01H
	DD	FLAT:$T257252
	DD	2 DUP(00H)
	DD	2 DUP(00H)
xdata$x	ENDS
;	COMDAT ??_C@_0BD@OLBABOEK@vector?$DMT?$DO?5too?5long?$AA@
CONST	SEGMENT
??_C@_0BD@OLBABOEK@vector?$DMT?$DO?5too?5long?$AA@ DB 'vector<T> too long'
	DB	00H						; `string'
CONST	ENDS
;	COMDAT __TI3?AVlength_error@std@@
xdata$x	SEGMENT
__TI3?AVlength_error@std@@ DD 00H
	DD	FLAT:??1length_error@std@@UAE@XZ
	DD	00H
	DD	FLAT:__CTA3?AVlength_error@std@@
xdata$x	ENDS
;	COMDAT __CTA3?AVlength_error@std@@
xdata$x	SEGMENT
__CTA3?AVlength_error@std@@ DD 03H
	DD	FLAT:__CT??_R0?AVlength_error@std@@@8??0length_error@std@@QAE@ABV01@@Z40
	DD	FLAT:__CT??_R0?AVlogic_error@std@@@8??0logic_error@std@@QAE@ABV01@@Z40
	DD	FLAT:__CT??_R0?AVexception@@@8??0exception@@QAE@ABV0@@Z12
xdata$x	ENDS
;	COMDAT __CT??_R0?AVlength_error@std@@@8??0length_error@std@@QAE@ABV01@@Z40
xdata$x	SEGMENT
__CT??_R0?AVlength_error@std@@@8??0length_error@std@@QAE@ABV01@@Z40 DD 00H
	DD	FLAT:??_R0?AVlength_error@std@@@8
	DD	00H
	DD	0ffffffffH
	ORG $+4
	DD	028H
	DD	FLAT:??0length_error@std@@QAE@ABV01@@Z
xdata$x	ENDS
;	COMDAT ??_R0?AVlength_error@std@@@8
_DATA	SEGMENT
??_R0?AVlength_error@std@@@8 DD FLAT:??_7type_info@@6B@	; std::length_error `RTTI Type Descriptor'
	DD	00H
	DB	'.?AVlength_error@std@@', 00H
_DATA	ENDS
;	COMDAT __CT??_R0?AVlogic_error@std@@@8??0logic_error@std@@QAE@ABV01@@Z40
xdata$x	SEGMENT
__CT??_R0?AVlogic_error@std@@@8??0logic_error@std@@QAE@ABV01@@Z40 DD 00H
	DD	FLAT:??_R0?AVlogic_error@std@@@8
	DD	00H
	DD	0ffffffffH
	ORG $+4
	DD	028H
	DD	FLAT:??0logic_error@std@@QAE@ABV01@@Z
xdata$x	ENDS
;	COMDAT ??_R0?AVlogic_error@std@@@8
_DATA	SEGMENT
??_R0?AVlogic_error@std@@@8 DD FLAT:??_7type_info@@6B@	; std::logic_error `RTTI Type Descriptor'
	DD	00H
	DB	'.?AVlogic_error@std@@', 00H
_DATA	ENDS
;	COMDAT __CT??_R0?AVexception@@@8??0exception@@QAE@ABV0@@Z12
xdata$x	SEGMENT
__CT??_R0?AVexception@@@8??0exception@@QAE@ABV0@@Z12 DD 00H
	DD	FLAT:??_R0?AVexception@@@8
	DD	00H
	DD	0ffffffffH
	ORG $+4
	DD	0cH
	DD	FLAT:??0exception@@QAE@ABV0@@Z
xdata$x	ENDS
;	COMDAT ??_R0?AVexception@@@8
_DATA	SEGMENT
??_R0?AVexception@@@8 DD FLAT:??_7type_info@@6B@	; exception `RTTI Type Descriptor'
	DD	00H
	DB	'.?AVexception@@', 00H
; Function compile flags: /Ogty
; File c:\program files\microsoft visual studio .net 2003\vc7\include\vector
_DATA	ENDS
;	COMDAT ?_Xlen@?$vector@U_PocketController_Result@@V?$allocator@U_PocketController_Result@@@std@@@std@@IBEXXZ
_TEXT	SEGMENT
$T257136 = -80						; size = 28
$T257135 = -52						; size = 40
__$EHRec$ = -12						; size = 12
?_Xlen@?$vector@U_PocketController_Result@@V?$allocator@U_PocketController_Result@@@std@@@std@@IBEXXZ PROC NEAR ; std::vector<_PocketController_Result,std::allocator<_PocketController_Result> >::_Xlen, COMDAT
; _this$ = ecx

; 883  : 		{	// report a length_error

  00000	6a ff		 push	 -1
  00002	68 00 00 00 00	 push	 __ehhandler$?_Xlen@?$vector@U_PocketController_Result@@V?$allocator@U_PocketController_Result@@@std@@@std@@IBEXXZ
  00007	64 a1 00 00 00
	00		 mov	 eax, DWORD PTR fs:__except_list
  0000d	50		 push	 eax
  0000e	64 89 25 00 00
	00 00		 mov	 DWORD PTR fs:__except_list, esp
  00015	83 ec 44	 sub	 esp, 68			; 00000044H

; 884  : 		_THROW(length_error, "vector<T> too long");

  00018	6a 12		 push	 18			; 00000012H
  0001a	68 00 00 00 00	 push	 OFFSET FLAT:??_C@_0BD@OLBABOEK@vector?$DMT?$DO?5too?5long?$AA@
  0001f	8d 4c 24 08	 lea	 ecx, DWORD PTR $T257136[esp+88]
  00023	c7 44 24 20 0f
	00 00 00	 mov	 DWORD PTR $T257136[esp+112], 15 ; 0000000fH
  0002b	c7 44 24 1c 00
	00 00 00	 mov	 DWORD PTR $T257136[esp+108], 0
  00033	c6 44 24 0c 00	 mov	 BYTE PTR $T257136[esp+92], 0
  00038	e8 00 00 00 00	 call	 ?assign@?$basic_string@DU?$char_traits@D@std@@V?$allocator@D@2@@std@@QAEAAV12@PBDI@Z ; std::basic_string<char,std::char_traits<char>,std::allocator<char> >::assign
  0003d	8d 04 24	 lea	 eax, DWORD PTR $T257136[esp+80]
  00040	50		 push	 eax
  00041	8d 4c 24 20	 lea	 ecx, DWORD PTR $T257135[esp+84]
  00045	c7 44 24 50 00
	00 00 00	 mov	 DWORD PTR __$EHRec$[esp+92], 0
  0004d	e8 00 00 00 00	 call	 ??0logic_error@std@@QAE@ABV?$basic_string@DU?$char_traits@D@std@@V?$allocator@D@2@@1@@Z ; std::logic_error::logic_error
  00052	68 00 00 00 00	 push	 OFFSET FLAT:__TI3?AVlength_error@std@@
  00057	8d 4c 24 20	 lea	 ecx, DWORD PTR $T257135[esp+84]
  0005b	51		 push	 ecx
  0005c	c7 44 24 24 00
	00 00 00	 mov	 DWORD PTR $T257135[esp+88], OFFSET FLAT:??_7length_error@std@@6B@
  00064	e8 00 00 00 00	 call	 __CxxThrowException@8
$L257253:
$L257251:
  00069	cc		 int	 3
_TEXT	ENDS
;	COMDAT text$x
text$x	SEGMENT
$L257137:
  00000	8d 4d b0	 lea	 ecx, DWORD PTR $T257136[ebp]
  00003	e9 00 00 00 00	 jmp	 ??1?$basic_string@DU?$char_traits@D@std@@V?$allocator@D@2@@std@@QAE@XZ ; std::basic_string<char,std::char_traits<char>,std::allocator<char> >::~basic_string<char,std::char_traits<char>,std::allocator<char> >
__ehhandler$?_Xlen@?$vector@U_PocketController_Result@@V?$allocator@U_PocketController_Result@@@std@@@std@@IBEXXZ:
  00008	b8 00 00 00 00	 mov	 eax, OFFSET FLAT:$T257249
  0000d	e9 00 00 00 00	 jmp	 ___CxxFrameHandler
text$x	ENDS
?_Xlen@?$vector@U_PocketController_Result@@V?$allocator@U_PocketController_Result@@@std@@@std@@IBEXXZ ENDP ; std::vector<_PocketController_Result,std::allocator<_PocketController_Result> >::_Xlen
;	COMDAT xdata$x
xdata$x	SEGMENT
$T257359 DD	0ffffffffH
	DD	FLAT:$L257259
$T257357 DD	019930520H
	DD	01H
	DD	FLAT:$T257359
	DD	2 DUP(00H)
	DD	2 DUP(00H)
; Function compile flags: /Ogty
xdata$x	ENDS
;	COMDAT ??0logic_error@std@@QAE@ABV01@@Z
_TEXT	SEGMENT
_this$ = -16						; size = 4
__$EHRec$ = -12						; size = 12
___that$ = 8						; size = 4
??0logic_error@std@@QAE@ABV01@@Z PROC NEAR		; std::logic_error::logic_error, COMDAT
; _this$ = ecx
  00000	6a ff		 push	 -1
  00002	68 00 00 00 00	 push	 __ehhandler$??0logic_error@std@@QAE@ABV01@@Z
  00007	64 a1 00 00 00
	00		 mov	 eax, DWORD PTR fs:__except_list
  0000d	50		 push	 eax
  0000e	64 89 25 00 00
	00 00		 mov	 DWORD PTR fs:__except_list, esp
  00015	51		 push	 ecx
  00016	56		 push	 esi
  00017	57		 push	 edi
  00018	8b 7c 24 1c	 mov	 edi, DWORD PTR ___that$[esp+20]
  0001c	8b f1		 mov	 esi, ecx
  0001e	57		 push	 edi
  0001f	89 74 24 0c	 mov	 DWORD PTR _this$[esp+28], esi
  00023	e8 00 00 00 00	 call	 ??0exception@@QAE@ABV0@@Z ; exception::exception
  00028	33 c0		 xor	 eax, eax
  0002a	6a ff		 push	 -1
  0002c	8d 4e 0c	 lea	 ecx, DWORD PTR [esi+12]
  0002f	c7 06 00 00 00
	00		 mov	 DWORD PTR [esi], OFFSET FLAT:??_7logic_error@std@@6B@
  00035	50		 push	 eax
  00036	83 c7 0c	 add	 edi, 12			; 0000000cH
  00039	c7 41 18 0f 00
	00 00		 mov	 DWORD PTR [ecx+24], 15	; 0000000fH
  00040	89 41 14	 mov	 DWORD PTR [ecx+20], eax
  00043	57		 push	 edi
  00044	89 44 24 20	 mov	 DWORD PTR __$EHRec$[esp+44], eax
  00048	88 41 04	 mov	 BYTE PTR [ecx+4], al
  0004b	e8 00 00 00 00	 call	 ?assign@?$basic_string@DU?$char_traits@D@std@@V?$allocator@D@2@@std@@QAEAAV12@ABV12@II@Z ; std::basic_string<char,std::char_traits<char>,std::allocator<char> >::assign
  00050	8b 4c 24 0c	 mov	 ecx, DWORD PTR __$EHRec$[esp+24]
  00054	5f		 pop	 edi
  00055	8b c6		 mov	 eax, esi
  00057	5e		 pop	 esi
  00058	64 89 0d 00 00
	00 00		 mov	 DWORD PTR fs:__except_list, ecx
  0005f	83 c4 10	 add	 esp, 16			; 00000010H
  00062	c2 04 00	 ret	 4
_TEXT	ENDS
;	COMDAT text$x
text$x	SEGMENT
$L257259:
  00000	8b 4d f0	 mov	 ecx, DWORD PTR _this$[ebp]
  00003	e9 00 00 00 00	 jmp	 ??1exception@@UAE@XZ	; exception::~exception
__ehhandler$??0logic_error@std@@QAE@ABV01@@Z:
  00008	b8 00 00 00 00	 mov	 eax, OFFSET FLAT:$T257357
  0000d	e9 00 00 00 00	 jmp	 ___CxxFrameHandler
text$x	ENDS
??0logic_error@std@@QAE@ABV01@@Z ENDP			; std::logic_error::logic_error
; Function compile flags: /Ogty
;	COMDAT ??0length_error@std@@QAE@ABV01@@Z
_TEXT	SEGMENT
___that$ = 8						; size = 4
??0length_error@std@@QAE@ABV01@@Z PROC NEAR		; std::length_error::length_error, COMDAT
; _this$ = ecx
  00000	8b 44 24 04	 mov	 eax, DWORD PTR ___that$[esp-4]
  00004	56		 push	 esi
  00005	50		 push	 eax
  00006	8b f1		 mov	 esi, ecx
  00008	e8 00 00 00 00	 call	 ??0logic_error@std@@QAE@ABV01@@Z
  0000d	c7 06 00 00 00
	00		 mov	 DWORD PTR [esi], OFFSET FLAT:??_7length_error@std@@6B@
  00013	8b c6		 mov	 eax, esi
  00015	5e		 pop	 esi
  00016	c2 04 00	 ret	 4
??0length_error@std@@QAE@ABV01@@Z ENDP			; std::length_error::length_error
_TEXT	ENDS
PUBLIC	?_Insert_n@?$vector@U_PocketController_Result@@V?$allocator@U_PocketController_Result@@@std@@@std@@IAEXViterator@12@IABU_PocketController_Result@@@Z ; std::vector<_PocketController_Result,std::allocator<_PocketController_Result> >::_Insert_n
;	COMDAT xdata$x
; File c:\program files\microsoft visual studio .net 2003\vc7\include\xutility
xdata$x	SEGMENT
$T257594 DD	0ffffffffH
	DD	00H
	DD	0ffffffffH
	DD	00H
	DD	0ffffffffH
	DD	00H
	DD	0ffffffffH
	DD	00H
$T257596 DD	00H
	DD	00H
	DD	00H
	DD	FLAT:$L257372
$T257597 DD	00H
	DD	00H
	DD	00H
	DD	FLAT:$L257374
$T257595 DD	00H
	DD	00H
	DD	01H
	DD	01H
	DD	FLAT:$T257596
	DD	02H
	DD	02H
	DD	03H
	DD	01H
	DD	FLAT:$T257597
$T257591 DD	019930520H
	DD	04H
	DD	FLAT:$T257594
	DD	02H
	DD	FLAT:$T257595
	DD	2 DUP(00H)
; Function compile flags: /Ogty
; File c:\program files\microsoft visual studio .net 2003\vc7\include\vector
xdata$x	ENDS
;	COMDAT ?_Insert_n@?$vector@U_PocketController_Result@@V?$allocator@U_PocketController_Result@@@std@@@std@@IAEXViterator@12@IABU_PocketController_Result@@@Z
_TEXT	SEGMENT
__Tmp$ = -28						; size = 12
__$EHRec$ = -16						; size = 16
tv427 = 8						; size = 4
tv414 = 8						; size = 4
__Cat$257585 = 8					; size = 1
__Cat$257572 = 8					; size = 1
__Cat$257548 = 8					; size = 1
__Cat$257509 = 8					; size = 1
__Cat$257485 = 8					; size = 1
__Cat$257463 = 8					; size = 1
__Where$ = 8						; size = 4
tv220 = 12						; size = 4
__Count$ = 12						; size = 4
tv398 = 16						; size = 4
__Newvec$251287 = 16					; size = 4
__Val$ = 16						; size = 4
?_Insert_n@?$vector@U_PocketController_Result@@V?$allocator@U_PocketController_Result@@@std@@@std@@IAEXViterator@12@IABU_PocketController_Result@@@Z PROC NEAR ; std::vector<_PocketController_Result,std::allocator<_PocketController_Result> >::_Insert_n, COMDAT
; _this$ = ecx

; 809  : 		{	// insert _Count * _Val at _Where

  00000	55		 push	 ebp
  00001	8b ec		 mov	 ebp, esp
  00003	6a ff		 push	 -1
  00005	68 00 00 00 00	 push	 __ehhandler$?_Insert_n@?$vector@U_PocketController_Result@@V?$allocator@U_PocketController_Result@@@std@@@std@@IAEXViterator@12@IABU_PocketController_Result@@@Z
  0000a	64 a1 00 00 00
	00		 mov	 eax, DWORD PTR fs:__except_list
  00010	50		 push	 eax
  00011	64 89 25 00 00
	00 00		 mov	 DWORD PTR fs:__except_list, esp
  00018	83 ec 10	 sub	 esp, 16			; 00000010H

; 810  : 		_Ty _Tmp = _Val;	// in case _Val is in sequence

  0001b	8b 45 10	 mov	 eax, DWORD PTR __Val$[ebp]
  0001e	53		 push	 ebx
  0001f	56		 push	 esi
  00020	8b f1		 mov	 esi, ecx
  00022	8b 08		 mov	 ecx, DWORD PTR [eax]
  00024	8b 50 04	 mov	 edx, DWORD PTR [eax+4]

; 811  : 		size_type _Capacity = capacity();

  00027	8b 5e 04	 mov	 ebx, DWORD PTR [esi+4]
  0002a	85 db		 test	 ebx, ebx
  0002c	8b 40 08	 mov	 eax, DWORD PTR [eax+8]
  0002f	57		 push	 edi
  00030	89 65 f0	 mov	 DWORD PTR __$EHRec$[ebp], esp
  00033	89 4d e4	 mov	 DWORD PTR __Tmp$[ebp], ecx
  00036	89 55 e8	 mov	 DWORD PTR __Tmp$[ebp+4], edx
  00039	89 45 ec	 mov	 DWORD PTR __Tmp$[ebp+8], eax
  0003c	75 04		 jne	 SHORT $L257379
  0003e	33 c9		 xor	 ecx, ecx
  00040	eb 15		 jmp	 SHORT $L257380
$L257379:
  00042	8b 4e 0c	 mov	 ecx, DWORD PTR [esi+12]
  00045	2b cb		 sub	 ecx, ebx
  00047	b8 ab aa aa 2a	 mov	 eax, 715827883		; 2aaaaaabH
  0004c	f7 e9		 imul	 ecx
  0004e	d1 fa		 sar	 edx, 1
  00050	8b ca		 mov	 ecx, edx
  00052	c1 e9 1f	 shr	 ecx, 31			; 0000001fH
  00055	03 ca		 add	 ecx, edx
$L257380:

; 812  : 
; 813  : 		if (_Count == 0)

  00057	8b 7d 0c	 mov	 edi, DWORD PTR __Count$[ebp]
  0005a	85 ff		 test	 edi, edi
  0005c	0f 84 3c 02 00
	00		 je	 $L251307

; 814  : 			;
; 815  : 		else if (max_size() - size() < _Count)

  00062	85 db		 test	 ebx, ebx
  00064	75 04		 jne	 SHORT $L257402
  00066	33 c0		 xor	 eax, eax
  00068	eb 15		 jmp	 SHORT $L257403
$L257402:
  0006a	8b 56 08	 mov	 edx, DWORD PTR [esi+8]
  0006d	2b d3		 sub	 edx, ebx
  0006f	b8 ab aa aa 2a	 mov	 eax, 715827883		; 2aaaaaabH
  00074	f7 ea		 imul	 edx
  00076	d1 fa		 sar	 edx, 1
  00078	8b c2		 mov	 eax, edx
  0007a	c1 e8 1f	 shr	 eax, 31			; 0000001fH
  0007d	03 c2		 add	 eax, edx
$L257403:
  0007f	ba 55 55 55 15	 mov	 edx, 357913941		; 15555555H
  00084	2b d0		 sub	 edx, eax
  00086	3b d7		 cmp	 edx, edi
  00088	73 07		 jae	 SHORT $L251283

; 816  : 			_Xlen();	// result too long

  0008a	8b ce		 mov	 ecx, esi
  0008c	e8 00 00 00 00	 call	 ?_Xlen@?$vector@U_PocketController_Result@@V?$allocator@U_PocketController_Result@@@std@@@std@@IBEXXZ ; std::vector<_PocketController_Result,std::allocator<_PocketController_Result> >::_Xlen
$L257598:
$L251283:

; 817  : 		else if (_Capacity < size() + _Count)

  00091	85 db		 test	 ebx, ebx
  00093	75 04		 jne	 SHORT $L257409
  00095	33 c0		 xor	 eax, eax
  00097	eb 15		 jmp	 SHORT $L257410
$L257409:
  00099	8b 56 08	 mov	 edx, DWORD PTR [esi+8]
  0009c	2b d3		 sub	 edx, ebx
  0009e	b8 ab aa aa 2a	 mov	 eax, 715827883		; 2aaaaaabH
  000a3	f7 ea		 imul	 edx
  000a5	d1 fa		 sar	 edx, 1
  000a7	8b c2		 mov	 eax, edx
  000a9	c1 e8 1f	 shr	 eax, 31			; 0000001fH
  000ac	03 c2		 add	 eax, edx
$L257410:
  000ae	03 c7		 add	 eax, edi
  000b0	3b c8		 cmp	 ecx, eax
  000b2	0f 83 0e 01 00
	00		 jae	 $L251285

; 818  : 			{	// not enough room, reallocate
; 819  : 			_Capacity = max_size() - _Capacity / 2 < _Capacity
; 820  : 				? 0 : _Capacity + _Capacity / 2;	// try to grow by 50%

  000b8	8b c1		 mov	 eax, ecx
  000ba	d1 e8		 shr	 eax, 1
  000bc	ba 55 55 55 15	 mov	 edx, 357913941		; 15555555H
  000c1	2b d0		 sub	 edx, eax
  000c3	3b d1		 cmp	 edx, ecx
  000c5	73 04		 jae	 SHORT $L257369
  000c7	33 c9		 xor	 ecx, ecx
  000c9	eb 02		 jmp	 SHORT $L257370
$L257369:
  000cb	03 c8		 add	 ecx, eax
$L257370:

; 821  : 			if (_Capacity < size() + _Count)

  000cd	85 db		 test	 ebx, ebx
  000cf	75 04		 jne	 SHORT $L257432
  000d1	33 c0		 xor	 eax, eax
  000d3	eb 15		 jmp	 SHORT $L257433
$L257432:
  000d5	8b 56 08	 mov	 edx, DWORD PTR [esi+8]
  000d8	2b d3		 sub	 edx, ebx
  000da	b8 ab aa aa 2a	 mov	 eax, 715827883		; 2aaaaaabH
  000df	f7 ea		 imul	 edx
  000e1	d1 fa		 sar	 edx, 1
  000e3	8b c2		 mov	 eax, edx
  000e5	c1 e8 1f	 shr	 eax, 31			; 0000001fH
  000e8	03 c2		 add	 eax, edx
$L257433:
  000ea	03 c7		 add	 eax, edi
  000ec	3b c8		 cmp	 ecx, eax
  000ee	73 0b		 jae	 SHORT $L251286

; 822  : 				_Capacity = size() + _Count;

  000f0	8b ce		 mov	 ecx, esi
  000f2	e8 00 00 00 00	 call	 ?size@?$vector@U_PocketController_Result@@V?$allocator@U_PocketController_Result@@@std@@@std@@QBEIXZ ; std::vector<_PocketController_Result,std::allocator<_PocketController_Result> >::size
  000f7	8b c8		 mov	 ecx, eax
  000f9	03 cf		 add	 ecx, edi
$L251286:

; 823  : 			pointer _Newvec = this->_Alval.allocate(_Capacity);

  000fb	8d 1c 49	 lea	 ebx, DWORD PTR [ecx+ecx*2]
  000fe	c1 e3 02	 shl	 ebx, 2
  00101	53		 push	 ebx
  00102	e8 00 00 00 00	 call	 ??2@YAPAXI@Z		; operator new

; 824  : 			pointer _Ptr = _Newvec;
; 825  : 
; 826  : 			_TRY_BEGIN
; 827  : 			_Ptr = _Ucopy(_Myfirst, _ITER_BASE(_Where),
; 828  : 				_Newvec);	// copy prefix

  00107	8b 55 08	 mov	 edx, DWORD PTR __Cat$257463[ebp]
  0010a	8b 4e 04	 mov	 ecx, DWORD PTR [esi+4]
  0010d	52		 push	 edx
  0010e	56		 push	 esi
  0010f	50		 push	 eax
  00110	89 45 10	 mov	 DWORD PTR __Newvec$251287[ebp], eax
  00113	8b 45 08	 mov	 eax, DWORD PTR __Where$[ebp]
  00116	50		 push	 eax
  00117	51		 push	 ecx
  00118	c7 45 fc 00 00
	00 00		 mov	 DWORD PTR __$EHRec$[ebp+12], 0
  0011f	e8 00 00 00 00	 call	 ??$_Uninit_copy@PAU_PocketController_Result@@PAU1@V?$allocator@U_PocketController_Result@@@std@@@std@@YAPAU_PocketController_Result@@PAU1@00AAV?$allocator@U_PocketController_Result@@@0@U_Nonscalar_ptr_iterator_tag@0@@Z ; std::_Uninit_copy<_PocketController_Result *,_PocketController_Result *,std::allocator<_PocketController_Result> >

; 829  : 			_Ptr = _Ufill(_Ptr, _Count, _Tmp);	// add new stuff

  00124	8b 4d 08	 mov	 ecx, DWORD PTR __Cat$257485[ebp]
  00127	83 c4 18	 add	 esp, 24			; 00000018H
  0012a	51		 push	 ecx
  0012b	56		 push	 esi
  0012c	8d 55 e4	 lea	 edx, DWORD PTR __Tmp$[ebp]
  0012f	52		 push	 edx
  00130	57		 push	 edi
  00131	50		 push	 eax
  00132	89 45 0c	 mov	 DWORD PTR tv220[ebp], eax
  00135	e8 00 00 00 00	 call	 ??$_Uninit_fill_n@PAU_PocketController_Result@@IU1@V?$allocator@U_PocketController_Result@@@std@@@std@@YAXPAU_PocketController_Result@@IABU1@AAV?$allocator@U_PocketController_Result@@@0@U_Nonscalar_ptr_iterator_tag@0@@Z ; std::_Uninit_fill_n<_PocketController_Result *,unsigned int,_PocketController_Result,std::allocator<_PocketController_Result> >

; 830  : 			_Ucopy(_ITER_BASE(_Where), _Mylast, _Ptr);	// copy suffix

  0013a	8b 55 08	 mov	 edx, DWORD PTR __Cat$257509[ebp]
  0013d	8b 4d 0c	 mov	 ecx, DWORD PTR tv220[ebp]
  00140	83 c4 14	 add	 esp, 20			; 00000014H
  00143	52		 push	 edx
  00144	8d 04 7f	 lea	 eax, DWORD PTR [edi+edi*2]
  00147	8d 04 81	 lea	 eax, DWORD PTR [ecx+eax*4]
  0014a	8b 4e 08	 mov	 ecx, DWORD PTR [esi+8]
  0014d	56		 push	 esi
  0014e	50		 push	 eax
  0014f	8b 45 08	 mov	 eax, DWORD PTR __Where$[ebp]
  00152	51		 push	 ecx
  00153	50		 push	 eax
  00154	e8 00 00 00 00	 call	 ??$_Uninit_copy@PAU_PocketController_Result@@PAU1@V?$allocator@U_PocketController_Result@@@std@@@std@@YAPAU_PocketController_Result@@PAU1@00AAV?$allocator@U_PocketController_Result@@@0@U_Nonscalar_ptr_iterator_tag@0@@Z ; std::_Uninit_copy<_PocketController_Result *,_PocketController_Result *,std::allocator<_PocketController_Result> >

; 835  : 			_CATCH_END
; 836  : 
; 837  : 			_Count += size();

  00159	8b 46 04	 mov	 eax, DWORD PTR [esi+4]
  0015c	83 c4 14	 add	 esp, 20			; 00000014H
  0015f	85 c0		 test	 eax, eax
  00161	74 15		 je	 SHORT $L257521
$L257520:
  00163	8b 4e 08	 mov	 ecx, DWORD PTR [esi+8]
  00166	2b c8		 sub	 ecx, eax
  00168	b8 ab aa aa 2a	 mov	 eax, 715827883		; 2aaaaaabH
  0016d	f7 e9		 imul	 ecx
  0016f	d1 fa		 sar	 edx, 1
  00171	8b c2		 mov	 eax, edx
  00173	c1 e8 1f	 shr	 eax, 31			; 0000001fH
  00176	03 c2		 add	 eax, edx
$L257521:
  00178	03 f8		 add	 edi, eax

; 838  : 			if (_Myfirst != 0)

  0017a	8b 46 04	 mov	 eax, DWORD PTR [esi+4]
  0017d	85 c0		 test	 eax, eax
  0017f	74 09		 je	 SHORT $L257525

; 839  : 				{	// destroy and deallocate old array
; 840  : 				_Destroy(_Myfirst, _Mylast);
; 841  : 				this->_Alval.deallocate(_Myfirst, _Myend - _Myfirst);

  00181	50		 push	 eax
  00182	e8 00 00 00 00	 call	 ??3@YAXPAX@Z		; operator delete
  00187	83 c4 04	 add	 esp, 4
$L257525:

; 842  : 				}
; 843  : 			_Myend = _Newvec + _Capacity;

  0018a	8b 45 10	 mov	 eax, DWORD PTR __Newvec$251287[ebp]

; 844  : 			_Mylast = _Newvec + _Count;

  0018d	8d 0c 7f	 lea	 ecx, DWORD PTR [edi+edi*2]
  00190	03 d8		 add	 ebx, eax
  00192	8d 14 88	 lea	 edx, DWORD PTR [eax+ecx*4]
  00195	89 5e 0c	 mov	 DWORD PTR [esi+12], ebx
  00198	89 56 08	 mov	 DWORD PTR [esi+8], edx

; 845  : 			_Myfirst = _Newvec;

  0019b	89 46 04	 mov	 DWORD PTR [esi+4], eax

; 873  : 			}
; 874  : 		}

  0019e	8b 4d f4	 mov	 ecx, DWORD PTR __$EHRec$[ebp+4]
  001a1	64 89 0d 00 00
	00 00		 mov	 DWORD PTR fs:__except_list, ecx
  001a8	5f		 pop	 edi
  001a9	5e		 pop	 esi
  001aa	5b		 pop	 ebx
  001ab	8b e5		 mov	 esp, ebp
  001ad	5d		 pop	 ebp
  001ae	c2 0c 00	 ret	 12			; 0000000cH
$L257372:

; 831  : 			_CATCH_ALL
; 832  : 			_Destroy(_Newvec, _Ptr);
; 833  : 			this->_Alval.deallocate(_Newvec, _Capacity);

  001b1	8b 45 10	 mov	 eax, DWORD PTR __Newvec$251287[ebp]
  001b4	50		 push	 eax
  001b5	e8 00 00 00 00	 call	 ??3@YAXPAX@Z		; operator delete
  001ba	83 c4 04	 add	 esp, 4
$L257374:

; 834  : 			_RERAISE;

  001bd	6a 00		 push	 0
  001bf	6a 00		 push	 0
  001c1	e8 00 00 00 00	 call	 __CxxThrowException@8
$L257599:
$L251285:

; 846  : 			}
; 847  : 		else if ((size_type)(_Mylast - _ITER_BASE(_Where)) < _Count)

  001c6	8b 4e 08	 mov	 ecx, DWORD PTR [esi+8]
  001c9	8b 5d 08	 mov	 ebx, DWORD PTR __Where$[ebp]
  001cc	8b d1		 mov	 edx, ecx
  001ce	2b d3		 sub	 edx, ebx
  001d0	b8 ab aa aa 2a	 mov	 eax, 715827883		; 2aaaaaabH
  001d5	f7 ea		 imul	 edx
  001d7	d1 fa		 sar	 edx, 1
  001d9	8b c2		 mov	 eax, edx
  001db	c1 e8 1f	 shr	 eax, 31			; 0000001fH
  001de	03 c2		 add	 eax, edx
  001e0	3b c7		 cmp	 eax, edi
  001e2	89 4d 10	 mov	 DWORD PTR tv398[ebp], ecx
  001e5	73 78		 jae	 SHORT $L251298

; 848  : 			{	// new stuff spills off end
; 849  : 			_Ucopy(_ITER_BASE(_Where), _Mylast,
; 850  : 				_ITER_BASE(_Where) + _Count);	// copy suffix

  001e7	8d 04 7f	 lea	 eax, DWORD PTR [edi+edi*2]
  001ea	c1 e0 02	 shl	 eax, 2
  001ed	89 45 08	 mov	 DWORD PTR tv414[ebp], eax
  001f0	8b 55 08	 mov	 edx, DWORD PTR __Cat$257548[ebp]
  001f3	52		 push	 edx
  001f4	56		 push	 esi
  001f5	03 c3		 add	 eax, ebx
  001f7	50		 push	 eax
  001f8	51		 push	 ecx
  001f9	53		 push	 ebx
  001fa	e8 00 00 00 00	 call	 ??$_Uninit_copy@PAU_PocketController_Result@@PAU1@V?$allocator@U_PocketController_Result@@@std@@@std@@YAPAU_PocketController_Result@@PAU1@00AAV?$allocator@U_PocketController_Result@@@0@U_Nonscalar_ptr_iterator_tag@0@@Z ; std::_Uninit_copy<_PocketController_Result *,_PocketController_Result *,std::allocator<_PocketController_Result> >

; 851  : 
; 852  : 			_TRY_BEGIN
; 853  : 			_Ufill(_Mylast, _Count - (_Mylast - _ITER_BASE(_Where)),
; 854  : 				_Tmp);	// insert new stuff off end

  001ff	8b 4e 08	 mov	 ecx, DWORD PTR [esi+8]
  00202	83 c4 14	 add	 esp, 20			; 00000014H
  00205	8d 45 e4	 lea	 eax, DWORD PTR __Tmp$[ebp]
  00208	50		 push	 eax
  00209	8b d1		 mov	 edx, ecx
  0020b	2b d3		 sub	 edx, ebx
  0020d	b8 ab aa aa 2a	 mov	 eax, 715827883		; 2aaaaaabH
  00212	f7 ea		 imul	 edx
  00214	d1 fa		 sar	 edx, 1
  00216	8b c2		 mov	 eax, edx
  00218	c1 e8 1f	 shr	 eax, 31			; 0000001fH
  0021b	03 c2		 add	 eax, edx
  0021d	2b f8		 sub	 edi, eax
  0021f	57		 push	 edi
  00220	51		 push	 ecx
  00221	8b ce		 mov	 ecx, esi
  00223	c7 45 fc 02 00
	00 00		 mov	 DWORD PTR __$EHRec$[ebp+12], 2
  0022a	e8 00 00 00 00	 call	 ?_Ufill@?$vector@U_PocketController_Result@@V?$allocator@U_PocketController_Result@@@std@@@std@@IAEPAU_PocketController_Result@@PAU3@IABU3@@Z ; std::vector<_PocketController_Result,std::allocator<_PocketController_Result> >::_Ufill

; 855  : 			_CATCH_ALL
; 856  : 			_Destroy(_ITER_BASE(_Where) + _Count, _Mylast + _Count);
; 857  : 			_RERAISE;
; 858  : 			_CATCH_END
; 859  : 
; 860  : 			_Mylast += _Count;

  0022f	8b 7e 08	 mov	 edi, DWORD PTR [esi+8]
  00232	8b 45 08	 mov	 eax, DWORD PTR tv414[ebp]
  00235	03 f8		 add	 edi, eax
  00237	89 7e 08	 mov	 DWORD PTR [esi+8], edi

; 861  : 			fill(_ITER_BASE(_Where), _Mylast - _Count,
; 862  : 				_Tmp);	// insert up to old end

  0023a	8d 4d e4	 lea	 ecx, DWORD PTR __Tmp$[ebp]
  0023d	8b f7		 mov	 esi, edi
  0023f	51		 push	 ecx
  00240	2b f0		 sub	 esi, eax
  00242	56		 push	 esi
  00243	53		 push	 ebx
  00244	e8 00 00 00 00	 call	 ??$fill@PAU_PocketController_Result@@U1@@std@@YAXPAU_PocketController_Result@@0ABU1@@Z ; std::fill<_PocketController_Result *,_PocketController_Result>
  00249	83 c4 0c	 add	 esp, 12			; 0000000cH

; 873  : 			}
; 874  : 		}

  0024c	8b 4d f4	 mov	 ecx, DWORD PTR __$EHRec$[ebp+4]
  0024f	64 89 0d 00 00
	00 00		 mov	 DWORD PTR fs:__except_list, ecx
  00256	5f		 pop	 edi
  00257	5e		 pop	 esi
  00258	5b		 pop	 ebx
  00259	8b e5		 mov	 esp, ebp
  0025b	5d		 pop	 ebp
  0025c	c2 0c 00	 ret	 12			; 0000000cH
$L251298:

; 863  : 			}
; 864  : 		else
; 865  : 			{	// new stuff can all be assigned
; 866  : 			pointer _Oldend = _Mylast;
; 867  : 			_Mylast = _Ucopy(_Oldend - _Count, _Oldend,
; 868  : 				_Mylast);	// copy suffix

  0025f	8d 3c 7f	 lea	 edi, DWORD PTR [edi+edi*2]
  00262	8b c1		 mov	 eax, ecx
  00264	c1 e7 02	 shl	 edi, 2
  00267	2b c7		 sub	 eax, edi
  00269	89 45 08	 mov	 DWORD PTR tv427[ebp], eax
  0026c	8b 55 08	 mov	 edx, DWORD PTR __Cat$257572[ebp]
  0026f	52		 push	 edx
  00270	56		 push	 esi
  00271	51		 push	 ecx
  00272	51		 push	 ecx
  00273	50		 push	 eax
  00274	e8 00 00 00 00	 call	 ??$_Uninit_copy@PAU_PocketController_Result@@PAU1@V?$allocator@U_PocketController_Result@@@std@@@std@@YAPAU_PocketController_Result@@PAU1@00AAV?$allocator@U_PocketController_Result@@@0@U_Nonscalar_ptr_iterator_tag@0@@Z ; std::_Uninit_copy<_PocketController_Result *,_PocketController_Result *,std::allocator<_PocketController_Result> >

; 869  : 			copy_backward(_ITER_BASE(_Where), _Oldend - _Count,
; 870  : 				_Oldend);	// copy hole

  00279	8b 4d 10	 mov	 ecx, DWORD PTR tv398[ebp]
  0027c	8b 55 08	 mov	 edx, DWORD PTR tv427[ebp]
  0027f	89 46 08	 mov	 DWORD PTR [esi+8], eax
  00282	8b 45 08	 mov	 eax, DWORD PTR __Cat$257585[ebp]
  00285	50		 push	 eax
  00286	51		 push	 ecx
  00287	52		 push	 edx
  00288	53		 push	 ebx
  00289	e8 00 00 00 00	 call	 ??$_Copy_backward_opt@PAU_PocketController_Result@@PAU1@@std@@YAPAU_PocketController_Result@@PAU1@00U_Nonscalar_ptr_iterator_tag@0@@Z ; std::_Copy_backward_opt<_PocketController_Result *,_PocketController_Result *>

; 871  : 			fill(_ITER_BASE(_Where), _ITER_BASE(_Where) + _Count,
; 872  : 				_Tmp);	// insert into hole

  0028e	8d 45 e4	 lea	 eax, DWORD PTR __Tmp$[ebp]
  00291	50		 push	 eax
  00292	03 fb		 add	 edi, ebx
  00294	57		 push	 edi
  00295	53		 push	 ebx
  00296	e8 00 00 00 00	 call	 ??$fill@PAU_PocketController_Result@@U1@@std@@YAXPAU_PocketController_Result@@0ABU1@@Z ; std::fill<_PocketController_Result *,_PocketController_Result>
  0029b	83 c4 30	 add	 esp, 48			; 00000030H
$L251307:

; 873  : 			}
; 874  : 		}

  0029e	8b 4d f4	 mov	 ecx, DWORD PTR __$EHRec$[ebp+4]
  002a1	5f		 pop	 edi
  002a2	5e		 pop	 esi
  002a3	64 89 0d 00 00
	00 00		 mov	 DWORD PTR fs:__except_list, ecx
  002aa	5b		 pop	 ebx
  002ab	8b e5		 mov	 esp, ebp
  002ad	5d		 pop	 ebp
  002ae	c2 0c 00	 ret	 12			; 0000000cH
$L257593:
_TEXT	ENDS
;	COMDAT text$x
text$x	SEGMENT
__ehhandler$?_Insert_n@?$vector@U_PocketController_Result@@V?$allocator@U_PocketController_Result@@@std@@@std@@IAEXViterator@12@IABU_PocketController_Result@@@Z:
  00000	b8 00 00 00 00	 mov	 eax, OFFSET FLAT:$T257591
  00005	e9 00 00 00 00	 jmp	 ___CxxFrameHandler
text$x	ENDS
?_Insert_n@?$vector@U_PocketController_Result@@V?$allocator@U_PocketController_Result@@@std@@@std@@IAEXViterator@12@IABU_PocketController_Result@@@Z ENDP ; std::vector<_PocketController_Result,std::allocator<_PocketController_Result> >::_Insert_n
PUBLIC	?insert@?$vector@U_PocketController_Result@@V?$allocator@U_PocketController_Result@@@std@@@std@@QAE?AViterator@12@V312@ABU_PocketController_Result@@@Z ; std::vector<_PocketController_Result,std::allocator<_PocketController_Result> >::insert
; Function compile flags: /Ogty
;	COMDAT ?insert@?$vector@U_PocketController_Result@@V?$allocator@U_PocketController_Result@@@std@@@std@@QAE?AViterator@12@V312@ABU_PocketController_Result@@@Z
_TEXT	SEGMENT
___$ReturnUdt$ = 8					; size = 4
tv90 = 12						; size = 4
__Where$ = 12						; size = 4
__Val$ = 16						; size = 4
?insert@?$vector@U_PocketController_Result@@V?$allocator@U_PocketController_Result@@@std@@@std@@QAE?AViterator@12@V312@ABU_PocketController_Result@@@Z PROC NEAR ; std::vector<_PocketController_Result,std::allocator<_PocketController_Result> >::insert, COMDAT
; _this$ = ecx

; 620  : 		{	// insert _Val at _Where

  00000	53		 push	 ebx

; 621  : 		size_type _Off = size() == 0 ? 0 : _Where - begin();

  00001	8b 5c 24 0c	 mov	 ebx, DWORD PTR __Where$[esp]
  00005	56		 push	 esi
  00006	57		 push	 edi
  00007	8b f9		 mov	 edi, ecx
  00009	8b 77 04	 mov	 esi, DWORD PTR [edi+4]
  0000c	85 f6		 test	 esi, esi
  0000e	74 1b		 je	 SHORT $L257666
  00010	8b 4f 08	 mov	 ecx, DWORD PTR [edi+8]
  00013	2b ce		 sub	 ecx, esi
  00015	b8 ab aa aa 2a	 mov	 eax, 715827883		; 2aaaaaabH
  0001a	f7 e9		 imul	 ecx
  0001c	d1 fa		 sar	 edx, 1
  0001e	8b c2		 mov	 eax, edx
  00020	c1 e8 1f	 shr	 eax, 31			; 0000001fH
  00023	03 c2		 add	 eax, edx
  00025	89 44 24 14	 mov	 DWORD PTR tv90[esp+8], eax
  00029	75 04		 jne	 SHORT $L257605
$L257666:
  0002b	33 f6		 xor	 esi, esi
  0002d	eb 14		 jmp	 SHORT $L257606
$L257605:
  0002f	8b cb		 mov	 ecx, ebx
  00031	2b ce		 sub	 ecx, esi
  00033	b8 ab aa aa 2a	 mov	 eax, 715827883		; 2aaaaaabH
  00038	f7 e9		 imul	 ecx
  0003a	d1 fa		 sar	 edx, 1
  0003c	8b f2		 mov	 esi, edx
  0003e	c1 ee 1f	 shr	 esi, 31			; 0000001fH
  00041	03 f2		 add	 esi, edx
$L257606:

; 622  : 		_Insert_n(_Where, (size_type)1, _Val);

  00043	8b 4c 24 18	 mov	 ecx, DWORD PTR __Val$[esp+8]
  00047	51		 push	 ecx
  00048	6a 01		 push	 1
  0004a	53		 push	 ebx
  0004b	8b cf		 mov	 ecx, edi
  0004d	e8 00 00 00 00	 call	 ?_Insert_n@?$vector@U_PocketController_Result@@V?$allocator@U_PocketController_Result@@@std@@@std@@IAEXViterator@12@IABU_PocketController_Result@@@Z ; std::vector<_PocketController_Result,std::allocator<_PocketController_Result> >::_Insert_n

; 623  : 		return (begin() + _Off);

  00052	8b 47 04	 mov	 eax, DWORD PTR [edi+4]
  00055	8d 14 76	 lea	 edx, DWORD PTR [esi+esi*2]
  00058	5f		 pop	 edi
  00059	8d 0c 90	 lea	 ecx, DWORD PTR [eax+edx*4]
  0005c	8b 44 24 0c	 mov	 eax, DWORD PTR ___$ReturnUdt$[esp+4]
  00060	5e		 pop	 esi
  00061	89 08		 mov	 DWORD PTR [eax], ecx
  00063	5b		 pop	 ebx

; 624  : 		}

  00064	c2 0c 00	 ret	 12			; 0000000cH
?insert@?$vector@U_PocketController_Result@@V?$allocator@U_PocketController_Result@@@std@@@std@@QAE?AViterator@12@V312@ABU_PocketController_Result@@@Z ENDP ; std::vector<_PocketController_Result,std::allocator<_PocketController_Result> >::insert
_TEXT	ENDS
PUBLIC	?push_back@?$vector@U_PocketController_Result@@V?$allocator@U_PocketController_Result@@@std@@@std@@QAEXABU_PocketController_Result@@@Z ; std::vector<_PocketController_Result,std::allocator<_PocketController_Result> >::push_back
; Function compile flags: /Ogty
;	COMDAT ?push_back@?$vector@U_PocketController_Result@@V?$allocator@U_PocketController_Result@@@std@@@std@@QAEXABU_PocketController_Result@@@Z
_TEXT	SEGMENT
__Cat$257705 = 8					; size = 1
$T257671 = 8						; size = 4
__Val$ = 8						; size = 4
?push_back@?$vector@U_PocketController_Result@@V?$allocator@U_PocketController_Result@@@std@@@std@@QAEXABU_PocketController_Result@@@Z PROC NEAR ; std::vector<_PocketController_Result,std::allocator<_PocketController_Result> >::push_back, COMDAT
; _this$ = ecx

; 579  : 		{	// insert element at end

  00000	56		 push	 esi
  00001	8b f1		 mov	 esi, ecx
  00003	57		 push	 edi

; 580  : 		if (size() < capacity())

  00004	8b 7e 04	 mov	 edi, DWORD PTR [esi+4]
  00007	85 ff		 test	 edi, edi
  00009	75 04		 jne	 SHORT $L257676
  0000b	33 c9		 xor	 ecx, ecx
  0000d	eb 15		 jmp	 SHORT $L257677
$L257676:
  0000f	8b 4e 08	 mov	 ecx, DWORD PTR [esi+8]
  00012	2b cf		 sub	 ecx, edi
  00014	b8 ab aa aa 2a	 mov	 eax, 715827883		; 2aaaaaabH
  00019	f7 e9		 imul	 ecx
  0001b	d1 fa		 sar	 edx, 1
  0001d	8b ca		 mov	 ecx, edx
  0001f	c1 e9 1f	 shr	 ecx, 31			; 0000001fH
  00022	03 ca		 add	 ecx, edx
$L257677:
  00024	85 ff		 test	 edi, edi
  00026	74 3d		 je	 SHORT $L250349
  00028	8b 56 0c	 mov	 edx, DWORD PTR [esi+12]
  0002b	2b d7		 sub	 edx, edi
  0002d	b8 ab aa aa 2a	 mov	 eax, 715827883		; 2aaaaaabH
  00032	f7 ea		 imul	 edx
  00034	d1 fa		 sar	 edx, 1
  00036	8b c2		 mov	 eax, edx
  00038	c1 e8 1f	 shr	 eax, 31			; 0000001fH
  0003b	03 c2		 add	 eax, edx
  0003d	3b c8		 cmp	 ecx, eax
  0003f	73 24		 jae	 SHORT $L250349

; 581  : 			_Mylast = _Ufill(_Mylast, 1, _Val);

  00041	8b 44 24 0c	 mov	 eax, DWORD PTR __Cat$257705[esp+4]
  00045	8b 4c 24 0c	 mov	 ecx, DWORD PTR __Val$[esp+4]
  00049	8b 7e 08	 mov	 edi, DWORD PTR [esi+8]
  0004c	50		 push	 eax
  0004d	56		 push	 esi
  0004e	51		 push	 ecx
  0004f	6a 01		 push	 1
  00051	57		 push	 edi
  00052	e8 00 00 00 00	 call	 ??$_Uninit_fill_n@PAU_PocketController_Result@@IU1@V?$allocator@U_PocketController_Result@@@std@@@std@@YAXPAU_PocketController_Result@@IABU1@AAV?$allocator@U_PocketController_Result@@@0@U_Nonscalar_ptr_iterator_tag@0@@Z ; std::_Uninit_fill_n<_PocketController_Result *,unsigned int,_PocketController_Result,std::allocator<_PocketController_Result> >
  00057	83 c4 14	 add	 esp, 20			; 00000014H
  0005a	83 c7 0c	 add	 edi, 12			; 0000000cH
  0005d	89 7e 08	 mov	 DWORD PTR [esi+8], edi
  00060	5f		 pop	 edi
  00061	5e		 pop	 esi

; 584  : 		}

  00062	c2 04 00	 ret	 4
$L250349:

; 582  : 		else
; 583  : 			insert(end(), _Val);

  00065	8b 54 24 0c	 mov	 edx, DWORD PTR __Val$[esp+4]
  00069	8b 46 08	 mov	 eax, DWORD PTR [esi+8]
  0006c	52		 push	 edx
  0006d	50		 push	 eax
  0006e	8d 44 24 14	 lea	 eax, DWORD PTR $T257671[esp+12]
  00072	50		 push	 eax
  00073	8b ce		 mov	 ecx, esi
  00075	e8 00 00 00 00	 call	 ?insert@?$vector@U_PocketController_Result@@V?$allocator@U_PocketController_Result@@@std@@@std@@QAE?AViterator@12@V312@ABU_PocketController_Result@@@Z ; std::vector<_PocketController_Result,std::allocator<_PocketController_Result> >::insert
  0007a	5f		 pop	 edi
  0007b	5e		 pop	 esi

; 584  : 		}

  0007c	c2 04 00	 ret	 4
?push_back@?$vector@U_PocketController_Result@@V?$allocator@U_PocketController_Result@@@std@@@std@@QAEXABU_PocketController_Result@@@Z ENDP ; std::vector<_PocketController_Result,std::allocator<_PocketController_Result> >::push_back
_TEXT	ENDS
PUBLIC	?Add@CPocketController@@QAEHHPAVCItemElem@@PAV?$vector@U_PocketController_Result@@V?$allocator@U_PocketController_Result@@@std@@@std@@@Z ; CPocketController::Add
EXTRN	___security_cookie:DWORD
EXTRN	@__security_check_cookie@4:NEAR
EXTRN	?AddPocketAddItem@CUser@@QAEXHPAVCItemElem@@@Z:NEAR ; CUser::AddPocketAddItem
; Function compile flags: /Ogty
; File c:\documents and settings\test\mes documents\source\virtuos_v17\build\program\_common\pocket.cpp
;	COMDAT ?Add@CPocketController@@QAEHHPAVCItemElem@@PAV?$vector@U_PocketController_Result@@V?$allocator@U_PocketController_Result@@@std@@@std@@@Z
_TEXT	SEGMENT
_nCount$ = -97						; size = 1
$T257749 = -96						; size = 4
$T257750 = -92						; size = 4
_result$249087 = -88					; size = 12
_anId$ = -76						; size = 24
_anNum$ = -52						; size = 48
__$ArrayPad$ = -4					; size = 4
__$ReturnAddr$ = 4					; size = 4
_nPocket$ = 8						; size = 4
_pItemElem$ = 12					; size = 4
_apResult$ = 16						; size = 4
?Add@CPocketController@@QAEHHPAVCItemElem@@PAV?$vector@U_PocketController_Result@@V?$allocator@U_PocketController_Result@@@std@@@std@@@Z PROC NEAR ; CPocketController::Add, COMDAT
; _this$ = ecx

; 138  : {

  00000	83 ec 64	 sub	 esp, 100		; 00000064H
  00003	a1 00 00 00 00	 mov	 eax, DWORD PTR ___security_cookie
  00008	33 c4		 xor	 eax, esp
  0000a	53		 push	 ebx
  0000b	8b 5c 24 74	 mov	 ebx, DWORD PTR _apResult$[esp+100]
  0000f	55		 push	 ebp

; 139  : 	BYTE anId[POCKET_SLOT_SIZE_1_2];
; 140  : 	short	anNum[POCKET_SLOT_SIZE_1_2];
; 141  : 	BYTE nCount	= 0;
; 142  : 
; 143  : #ifdef __SECURITY_FIXES
; 144  : 	if (nPocket < 0)

  00010	8b 6c 24 70	 mov	 ebp, DWORD PTR _nPocket$[esp+104]
  00014	85 ed		 test	 ebp, ebp
  00016	89 44 24 68	 mov	 DWORD PTR __$ArrayPad$[esp+108], eax
  0001a	8b 44 24 74	 mov	 eax, DWORD PTR _pItemElem$[esp+104]

; 156  : 			}
; 157  : 		}
; 158  : #ifdef __WORLDSERVER
; 159  : //		if( m_pMover->IsPlayer() )
; 160  : 			( (CUser*)m_pMover )->AddPocketAddItem( nPocket, pItemElem );

  0001e	89 4c 24 0c	 mov	 DWORD PTR $T257749[esp+108], ecx
  00022	89 44 24 10	 mov	 DWORD PTR $T257750[esp+108], eax
  00026	c6 44 24 0b 00	 mov	 BYTE PTR _nCount$[esp+108], 0
  0002b	0f 8c 9e 00 00
	00		 jl	 $L249081
  00031	8b 4c a9 08	 mov	 ecx, DWORD PTR [ecx+ebp*4+8]
  00035	85 c9		 test	 ecx, ecx
  00037	0f 84 92 00 00
	00		 je	 $L249081
  0003d	8b 51 14	 mov	 edx, DWORD PTR [ecx+20]
  00040	85 d2		 test	 edx, edx
  00042	0f 85 87 00 00
	00		 jne	 $L249081
  00048	8d 54 24 0b	 lea	 edx, DWORD PTR _nCount$[esp+108]
  0004c	52		 push	 edx
  0004d	8d 54 24 3c	 lea	 edx, DWORD PTR _anNum$[esp+112]
  00051	52		 push	 edx
  00052	8d 54 24 28	 lea	 edx, DWORD PTR _anId$[esp+116]
  00056	52		 push	 edx
  00057	50		 push	 eax
  00058	e8 00 00 00 00	 call	 ?Add@?$CItemContainer@VCItemElem@@@@QAEHPAVCItemElem@@PAEPAF1@Z ; CItemContainer<CItemElem>::Add
  0005d	85 c0		 test	 eax, eax
  0005f	74 6e		 je	 SHORT $L249081

; 145  : 		return FALSE;
; 146  : #endif // __SECURITY_FIXES
; 147  : 
; 148  : 	if( IsAvailable( nPocket ) && m_apPocket[nPocket]->Add( pItemElem, anId, anNum, &nCount ) )
; 149  : 	{
; 150  : 		if( apResult )

  00061	85 db		 test	 ebx, ebx
  00063	74 40		 je	 SHORT $L257756
  00065	56		 push	 esi
  00066	57		 push	 edi

; 163  : 	}
; 164  : 	return FALSE;

  00067	0f b6 7c 24 13	 movzx	 edi, BYTE PTR _nCount$[esp+116]
  0006c	33 f6		 xor	 esi, esi
  0006e	85 ff		 test	 edi, edi
  00070	7e 31		 jle	 SHORT $L257759

; 151  : 		{
; 152  : 			for( int i = 0; i < nCount; i++ )
; 153  : 			{
; 154  : 				PocketController_Result	result( nPocket, anId[i], anNum[i] ); 

  00072	89 6c 24 1c	 mov	 DWORD PTR _result$249087[esp+116], ebp
  00076	eb 08 8d a4 24
	00 00 00 00 90	 npad	 10
$L249084:
  00080	0f bf 4c 74 40	 movsx	 ecx, WORD PTR _anNum$[esp+esi*2+116]
  00085	0f b6 44 34 28	 movzx	 eax, BYTE PTR _anId$[esp+esi+116]

; 155  : 				apResult->push_back( result );

  0008a	8d 54 24 1c	 lea	 edx, DWORD PTR _result$249087[esp+116]
  0008e	89 4c 24 24	 mov	 DWORD PTR _result$249087[esp+124], ecx
  00092	52		 push	 edx
  00093	8b cb		 mov	 ecx, ebx
  00095	89 44 24 24	 mov	 DWORD PTR _result$249087[esp+124], eax
  00099	e8 00 00 00 00	 call	 ?push_back@?$vector@U_PocketController_Result@@V?$allocator@U_PocketController_Result@@@std@@@std@@QAEXABU_PocketController_Result@@@Z ; std::vector<_PocketController_Result,std::allocator<_PocketController_Result> >::push_back
  0009e	46		 inc	 esi
  0009f	3b f7		 cmp	 esi, edi
  000a1	7c dd		 jl	 SHORT $L249084
$L257759:
  000a3	5f		 pop	 edi
  000a4	5e		 pop	 esi
$L257756:

; 156  : 			}
; 157  : 		}
; 158  : #ifdef __WORLDSERVER
; 159  : //		if( m_pMover->IsPlayer() )
; 160  : 			( (CUser*)m_pMover )->AddPocketAddItem( nPocket, pItemElem );

  000a5	8b 44 24 10	 mov	 eax, DWORD PTR $T257750[esp+108]
  000a9	8b 4c 24 0c	 mov	 ecx, DWORD PTR $T257749[esp+108]
  000ad	8b 49 04	 mov	 ecx, DWORD PTR [ecx+4]
  000b0	50		 push	 eax
  000b1	55		 push	 ebp
  000b2	e8 00 00 00 00	 call	 ?AddPocketAddItem@CUser@@QAEXHPAVCItemElem@@@Z ; CUser::AddPocketAddItem
  000b7	5d		 pop	 ebp

; 161  : #endif	// __WORLDSERVER
; 162  : 		return TRUE;

  000b8	b8 01 00 00 00	 mov	 eax, 1
  000bd	5b		 pop	 ebx

; 165  : }

  000be	8b 4c 24 60	 mov	 ecx, DWORD PTR __$ArrayPad$[esp+100]
  000c2	33 cc		 xor	 ecx, esp
  000c4	e8 00 00 00 00	 call	 @__security_check_cookie@4
  000c9	83 c4 64	 add	 esp, 100		; 00000064H
  000cc	c2 0c 00	 ret	 12			; 0000000cH
$L249081:
  000cf	8b 4c 24 68	 mov	 ecx, DWORD PTR __$ArrayPad$[esp+108]
  000d3	5d		 pop	 ebp
  000d4	5b		 pop	 ebx
  000d5	33 cc		 xor	 ecx, esp
  000d7	33 c0		 xor	 eax, eax
  000d9	e8 00 00 00 00	 call	 @__security_check_cookie@4
  000de	83 c4 64	 add	 esp, 100		; 00000064H
  000e1	c2 0c 00	 ret	 12			; 0000000cH
?Add@CPocketController@@QAEHHPAVCItemElem@@PAV?$vector@U_PocketController_Result@@V?$allocator@U_PocketController_Result@@@std@@@std@@@Z ENDP ; CPocketController::Add
_TEXT	ENDS
END
