; Listing generated by Microsoft (R) Optimizing Compiler Version 13.10.6030 

	TITLE	\Documents and Settings\test\Mes documents\Source\Virtuos_v17\Build\Program\_Common\post.cpp
	.386P
include listing.inc
if @Version gt 510
.model FLAT
else
_TEXT	SEGMENT PARA USE32 PUBLIC 'CODE'
_TEXT	ENDS
_DATA	SEGMENT DWORD USE32 PUBLIC 'DATA'
_DATA	ENDS
CONST	SEGMENT DWORD USE32 PUBLIC 'CONST'
CONST	ENDS
_BSS	SEGMENT DWORD USE32 PUBLIC 'BSS'
_BSS	ENDS
$$SYMBOLS	SEGMENT BYTE USE32 'DEBSYM'
$$SYMBOLS	ENDS
$$TYPES	SEGMENT BYTE USE32 'DEBTYP'
$$TYPES	ENDS
_TLS	SEGMENT DWORD USE32 PUBLIC 'TLS'
_TLS	ENDS
;	COMDAT ??_C@_0DB@MPAFHBHH@CMailBox?3?3Read?5?9?5GetMail?5return?5@
CONST	SEGMENT DWORD USE32 PUBLIC 'CONST'
CONST	ENDS
;	COMDAT ??_C@_0DL@PDFCGBGC@CMailBox?3?3Read?5?9?5Create?5NewMail?4@
CONST	SEGMENT DWORD USE32 PUBLIC 'CONST'
CONST	ENDS
;	COMDAT ??_C@_0DD@KNAHADMB@CMailBox?3?3Read?5?9?5Create?5NewMail?5@
CONST	SEGMENT DWORD USE32 PUBLIC 'CONST'
CONST	ENDS
;	COMDAT ??_C@_0CL@MFDDDHOF@CMailBox?3?3ReadReq?5?9?5Mail?5Exist?4?5@
CONST	SEGMENT DWORD USE32 PUBLIC 'CONST'
CONST	ENDS
;	COMDAT ??_C@_0CL@NLKIBIJJ@CMailBox?3?3ReadReq?5?9?5New?5Failed?4?5@
CONST	SEGMENT DWORD USE32 PUBLIC 'CONST'
CONST	ENDS
;	COMDAT ??_C@_0CE@ONJNFFPI@AddMailBox?5Failed?5?9?5idReceiver?5?3@
CONST	SEGMENT DWORD USE32 PUBLIC 'CONST'
CONST	ENDS
text$yd	SEGMENT PARA USE32 PUBLIC 'CODE'
text$yd	ENDS
xdata$x	SEGMENT DWORD USE32 PUBLIC 'CONST'
xdata$x	ENDS
text$AFX_COL1	SEGMENT PARA USE32 PUBLIC ''
text$AFX_COL1	ENDS
;	COMDAT ??0CMail@@QAE@XZ
_TEXT	SEGMENT PARA USE32 PUBLIC 'CODE'
_TEXT	ENDS
;	COMDAT ??_GCMail@@UAEPAXI@Z
_TEXT	SEGMENT PARA USE32 PUBLIC 'CODE'
_TEXT	ENDS
;	COMDAT ??0CMail@@QAE@KPAVCItemElem@@HPAD1@Z
_TEXT	SEGMENT PARA USE32 PUBLIC 'CODE'
_TEXT	ENDS
;	COMDAT ??1CMail@@UAE@XZ
_TEXT	SEGMENT PARA USE32 PUBLIC 'CODE'
_TEXT	ENDS
;	COMDAT ?Clear@CMail@@QAEXXZ
_TEXT	SEGMENT PARA USE32 PUBLIC 'CODE'
_TEXT	ENDS
;	COMDAT ?GetCost@CMail@@QAEKXZ
_TEXT	SEGMENT PARA USE32 PUBLIC 'CODE'
_TEXT	ENDS
;	COMDAT ?GetMailInfo@CMail@@QAEXPAHPAK@Z
_TEXT	SEGMENT PARA USE32 PUBLIC 'CODE'
_TEXT	ENDS
;	COMDAT ?Serialize@CMail@@QAEXAAVCAr@@H@Z
_TEXT	SEGMENT PARA USE32 PUBLIC 'CODE'
_TEXT	ENDS
;	COMDAT ??0CMailBox@@QAE@XZ
_TEXT	SEGMENT PARA USE32 PUBLIC 'CODE'
_TEXT	ENDS
;	COMDAT ??_GCMailBox@@UAEPAXI@Z
_TEXT	SEGMENT PARA USE32 PUBLIC 'CODE'
_TEXT	ENDS
;	COMDAT ??0CMailBox@@QAE@K@Z
_TEXT	SEGMENT PARA USE32 PUBLIC 'CODE'
_TEXT	ENDS
;	COMDAT ??1CMailBox@@UAE@XZ
_TEXT	SEGMENT PARA USE32 PUBLIC 'CODE'
_TEXT	ENDS
;	COMDAT ?GetInstance@CMailBox@@SAPAV1@XZ
_TEXT	SEGMENT PARA USE32 PUBLIC 'CODE'
_TEXT	ENDS
;	COMDAT _$E2
text$yd	SEGMENT PARA USE32 PUBLIC 'CODE'
text$yd	ENDS
;	COMDAT ?Clear@CMailBox@@QAEXXZ
_TEXT	SEGMENT PARA USE32 PUBLIC 'CODE'
_TEXT	ENDS
;	COMDAT ?AddMail@CMailBox@@QAEKPAVCMail@@@Z
_TEXT	SEGMENT PARA USE32 PUBLIC 'CODE'
_TEXT	ENDS
;	COMDAT ?Read@CMailBox@@QAEXAAVCAr@@@Z
_TEXT	SEGMENT PARA USE32 PUBLIC 'CODE'
_TEXT	ENDS
;	COMDAT ?ReadReq@CMailBox@@QAEXAAVCAr@@@Z
_TEXT	SEGMENT PARA USE32 PUBLIC 'CODE'
_TEXT	ENDS
;	COMDAT ?Serialize@CMailBox@@QAEXAAVCAr@@H@Z
_TEXT	SEGMENT PARA USE32 PUBLIC 'CODE'
_TEXT	ENDS
;	COMDAT ?Find@CMailBox@@AAE?AViterator@?$vector@PAVCMail@@V?$allocator@PAVCMail@@@std@@@std@@K@Z
_TEXT	SEGMENT PARA USE32 PUBLIC 'CODE'
_TEXT	ENDS
;	COMDAT ?GetMail@CMailBox@@QAEPAVCMail@@K@Z
_TEXT	SEGMENT PARA USE32 PUBLIC 'CODE'
_TEXT	ENDS
;	COMDAT ?RemoveMail@CMailBox@@QAEHK@Z
_TEXT	SEGMENT PARA USE32 PUBLIC 'CODE'
_TEXT	ENDS
;	COMDAT ?RemoveMailItem@CMailBox@@QAEHK@Z
_TEXT	SEGMENT PARA USE32 PUBLIC 'CODE'
_TEXT	ENDS
;	COMDAT ?RemoveMailGold@CMailBox@@QAEHK@Z
_TEXT	SEGMENT PARA USE32 PUBLIC 'CODE'
_TEXT	ENDS
;	COMDAT ?ReadMail@CMailBox@@QAEHK@Z
_TEXT	SEGMENT PARA USE32 PUBLIC 'CODE'
_TEXT	ENDS
;	COMDAT ?IsStampedMailExists@CMailBox@@QAEHXZ
_TEXT	SEGMENT PARA USE32 PUBLIC 'CODE'
_TEXT	ENDS
;	COMDAT ??0CPost@@QAE@XZ
_TEXT	SEGMENT PARA USE32 PUBLIC 'CODE'
_TEXT	ENDS
;	COMDAT ??_GCPost@@UAEPAXI@Z
_TEXT	SEGMENT PARA USE32 PUBLIC 'CODE'
_TEXT	ENDS
;	COMDAT ??1?$map@KPAVCMailBox@@U?$less@K@std@@V?$allocator@U?$pair@$$CBKPAVCMailBox@@@std@@@3@@std@@QAE@XZ
_TEXT	SEGMENT PARA USE32 PUBLIC 'CODE'
_TEXT	ENDS
;	COMDAT ??1CPost@@UAE@XZ
_TEXT	SEGMENT PARA USE32 PUBLIC 'CODE'
_TEXT	ENDS
;	COMDAT ?Clear@CPost@@QAEXXZ
_TEXT	SEGMENT PARA USE32 PUBLIC 'CODE'
_TEXT	ENDS
;	COMDAT ?AddMail@CPost@@QAEKKPAVCMail@@@Z
_TEXT	SEGMENT PARA USE32 PUBLIC 'CODE'
_TEXT	ENDS
;	COMDAT ?GetMailBox@CPost@@QAEPAVCMailBox@@K@Z
_TEXT	SEGMENT PARA USE32 PUBLIC 'CODE'
_TEXT	ENDS
;	COMDAT ?AddMailBox@CPost@@QAEHPAVCMailBox@@@Z
_TEXT	SEGMENT PARA USE32 PUBLIC 'CODE'
_TEXT	ENDS
;	COMDAT ?Serialize@CPost@@QAEXAAVCAr@@H@Z
_TEXT	SEGMENT PARA USE32 PUBLIC 'CODE'
_TEXT	ENDS
;	COMDAT ?GetInstance@CPost@@SAPAV1@XZ
_TEXT	SEGMENT PARA USE32 PUBLIC 'CODE'
_TEXT	ENDS
;	COMDAT _$E4
text$yd	SEGMENT PARA USE32 PUBLIC 'CODE'
text$yd	ENDS
;	COMDAT ?compare@?$basic_string@DU?$char_traits@D@std@@V?$allocator@D@2@@std@@QBEHABV12@@Z
_TEXT	SEGMENT PARA USE32 PUBLIC 'CODE'
_TEXT	ENDS
;	COMDAT ?IsFull@?$CStack@K@@QAEHXZ
_TEXT	SEGMENT PARA USE32 PUBLIC 'CODE'
_TEXT	ENDS
;	COMDAT ??0?$pair@KPAVCCtrl@@@std@@QAE@ABKABQAVCCtrl@@@Z
_TEXT	SEGMENT PARA USE32 PUBLIC 'CODE'
_TEXT	ENDS
;	COMDAT ?GetMax@?$CItemContainer@VCItemElem@@@@QAEHXZ
_TEXT	SEGMENT PARA USE32 PUBLIC 'CODE'
_TEXT	ENDS
;	COMDAT ??0?$deque@PAUtagACTMSG@@V?$allocator@PAUtagACTMSG@@@std@@@std@@QAE@XZ
_TEXT	SEGMENT PARA USE32 PUBLIC 'CODE'
_TEXT	ENDS
;	COMDAT ??1?$deque@PAUtagACTMSG@@V?$allocator@PAUtagACTMSG@@@std@@@std@@QAE@XZ
_TEXT	SEGMENT PARA USE32 PUBLIC 'CODE'
_TEXT	ENDS
;	COMDAT ?begin@?$deque@PAUtagACTMSG@@V?$allocator@PAUtagACTMSG@@@std@@@std@@QAE?AViterator@12@XZ
_TEXT	SEGMENT PARA USE32 PUBLIC 'CODE'
_TEXT	ENDS
;	COMDAT ?end@?$deque@PAUtagACTMSG@@V?$allocator@PAUtagACTMSG@@@std@@@std@@QAE?AViterator@12@XZ
_TEXT	SEGMENT PARA USE32 PUBLIC 'CODE'
_TEXT	ENDS
;	COMDAT ?empty@?$deque@PAUtagACTMSG@@V?$allocator@PAUtagACTMSG@@@std@@@std@@QBE_NXZ
_TEXT	SEGMENT PARA USE32 PUBLIC 'CODE'
_TEXT	ENDS
;	COMDAT ?clear@?$deque@PAUtagACTMSG@@V?$allocator@PAUtagACTMSG@@@std@@@std@@QAEXXZ
_TEXT	SEGMENT PARA USE32 PUBLIC 'CODE'
_TEXT	ENDS
;	COMDAT ??0?$deque@PAUtagMAGICATKMSG@@V?$allocator@PAUtagMAGICATKMSG@@@std@@@std@@QAE@XZ
_TEXT	SEGMENT PARA USE32 PUBLIC 'CODE'
_TEXT	ENDS
;	COMDAT ??1?$deque@PAUtagMAGICATKMSG@@V?$allocator@PAUtagMAGICATKMSG@@@std@@@std@@QAE@XZ
_TEXT	SEGMENT PARA USE32 PUBLIC 'CODE'
_TEXT	ENDS
;	COMDAT ?begin@?$deque@PAUtagMAGICATKMSG@@V?$allocator@PAUtagMAGICATKMSG@@@std@@@std@@QAE?AViterator@12@XZ
_TEXT	SEGMENT PARA USE32 PUBLIC 'CODE'
_TEXT	ENDS
;	COMDAT ?end@?$deque@PAUtagMAGICATKMSG@@V?$allocator@PAUtagMAGICATKMSG@@@std@@@std@@QAE?AViterator@12@XZ
_TEXT	SEGMENT PARA USE32 PUBLIC 'CODE'
_TEXT	ENDS
;	COMDAT ?empty@?$deque@PAUtagMAGICATKMSG@@V?$allocator@PAUtagMAGICATKMSG@@@std@@@std@@QBE_NXZ
_TEXT	SEGMENT PARA USE32 PUBLIC 'CODE'
_TEXT	ENDS
;	COMDAT ?clear@?$deque@PAUtagMAGICATKMSG@@V?$allocator@PAUtagMAGICATKMSG@@@std@@@std@@QAEXXZ
_TEXT	SEGMENT PARA USE32 PUBLIC 'CODE'
_TEXT	ENDS
;	COMDAT ??Diterator@?$deque@PAUtagACTMSG@@V?$allocator@PAUtagACTMSG@@@std@@@std@@QBEAAPAUtagACTMSG@@XZ
_TEXT	SEGMENT PARA USE32 PUBLIC 'CODE'
_TEXT	ENDS
;	COMDAT ??Eiterator@?$deque@PAUtagACTMSG@@V?$allocator@PAUtagACTMSG@@@std@@@std@@QAEAAV012@XZ
_TEXT	SEGMENT PARA USE32 PUBLIC 'CODE'
_TEXT	ENDS
;	COMDAT ??9const_iterator@?$deque@PAUtagACTMSG@@V?$allocator@PAUtagACTMSG@@@std@@@std@@QBE_NABV012@@Z
_TEXT	SEGMENT PARA USE32 PUBLIC 'CODE'
_TEXT	ENDS
;	COMDAT ??Diterator@?$deque@PAUtagMAGICATKMSG@@V?$allocator@PAUtagMAGICATKMSG@@@std@@@std@@QBEAAPAUtagMAGICATKMSG@@XZ
_TEXT	SEGMENT PARA USE32 PUBLIC 'CODE'
_TEXT	ENDS
;	COMDAT ??Eiterator@?$deque@PAUtagMAGICATKMSG@@V?$allocator@PAUtagMAGICATKMSG@@@std@@@std@@QAEAAV012@XZ
_TEXT	SEGMENT PARA USE32 PUBLIC 'CODE'
_TEXT	ENDS
;	COMDAT ??9const_iterator@?$deque@PAUtagMAGICATKMSG@@V?$allocator@PAUtagMAGICATKMSG@@@std@@@std@@QBE_NABV012@@Z
_TEXT	SEGMENT PARA USE32 PUBLIC 'CODE'
_TEXT	ENDS
;	COMDAT ??0?$vector@PAVCMail@@V?$allocator@PAVCMail@@@std@@@std@@QAE@XZ
_TEXT	SEGMENT PARA USE32 PUBLIC 'CODE'
_TEXT	ENDS
;	COMDAT ??1?$vector@PAVCMail@@V?$allocator@PAVCMail@@@std@@@std@@QAE@XZ
_TEXT	SEGMENT PARA USE32 PUBLIC 'CODE'
_TEXT	ENDS
;	COMDAT ?begin@?$vector@PAVCMail@@V?$allocator@PAVCMail@@@std@@@std@@QAE?AViterator@12@XZ
_TEXT	SEGMENT PARA USE32 PUBLIC 'CODE'
_TEXT	ENDS
;	COMDAT ?end@?$vector@PAVCMail@@V?$allocator@PAVCMail@@@std@@@std@@QAE?AViterator@12@XZ
_TEXT	SEGMENT PARA USE32 PUBLIC 'CODE'
_TEXT	ENDS
;	COMDAT ?size@?$vector@PAVCMail@@V?$allocator@PAVCMail@@@std@@@std@@QBEIXZ
_TEXT	SEGMENT PARA USE32 PUBLIC 'CODE'
_TEXT	ENDS
;	COMDAT ?push_back@?$vector@PAVCMail@@V?$allocator@PAVCMail@@@std@@@std@@QAEXABQAVCMail@@@Z
_TEXT	SEGMENT PARA USE32 PUBLIC 'CODE'
_TEXT	ENDS
;	COMDAT ?erase@?$vector@PAVCMail@@V?$allocator@PAVCMail@@@std@@@std@@QAE?AViterator@12@V312@@Z
_TEXT	SEGMENT PARA USE32 PUBLIC 'CODE'
_TEXT	ENDS
;	COMDAT ?clear@?$vector@PAVCMail@@V?$allocator@PAVCMail@@@std@@@std@@QAEXXZ
_TEXT	SEGMENT PARA USE32 PUBLIC 'CODE'
_TEXT	ENDS
;	COMDAT ??0?$map@KPAVCMailBox@@U?$less@K@std@@V?$allocator@U?$pair@$$CBKPAVCMailBox@@@std@@@3@@std@@QAE@XZ
_TEXT	SEGMENT PARA USE32 PUBLIC 'CODE'
_TEXT	ENDS
;	COMDAT ??1?$_Tree@V?$_Tmap_traits@KPAVCMailBox@@U?$less@K@std@@V?$allocator@U?$pair@$$CBKPAVCMailBox@@@std@@@3@$0A@@std@@@std@@QAE@XZ
_TEXT	SEGMENT PARA USE32 PUBLIC 'CODE'
_TEXT	ENDS
;	COMDAT ?begin@?$_Tree@V?$_Tmap_traits@KPAVCMailBox@@U?$less@K@std@@V?$allocator@U?$pair@$$CBKPAVCMailBox@@@std@@@3@$0A@@std@@@std@@QAE?AViterator@12@XZ
_TEXT	SEGMENT PARA USE32 PUBLIC 'CODE'
_TEXT	ENDS
;	COMDAT ?end@?$_Tree@V?$_Tmap_traits@KPAVCMailBox@@U?$less@K@std@@V?$allocator@U?$pair@$$CBKPAVCMailBox@@@std@@@3@$0A@@std@@@std@@QAE?AViterator@12@XZ
_TEXT	SEGMENT PARA USE32 PUBLIC 'CODE'
_TEXT	ENDS
;	COMDAT ?size@?$_Tree@V?$_Tmap_traits@KPAVCMailBox@@U?$less@K@std@@V?$allocator@U?$pair@$$CBKPAVCMailBox@@@std@@@3@$0A@@std@@@std@@QBEIXZ
_TEXT	SEGMENT PARA USE32 PUBLIC 'CODE'
_TEXT	ENDS
;	COMDAT ?insert@?$_Tree@V?$_Tmap_traits@KPAVCMailBox@@U?$less@K@std@@V?$allocator@U?$pair@$$CBKPAVCMailBox@@@std@@@3@$0A@@std@@@std@@QAE?AU?$pair@Viterator@?$_Tree@V?$_Tmap_traits@KPAVCMailBox@@U?$less@K@std@@V?$allocator@U?$pair@$$CBKPAVCMailBox@@@std@@@3@$0A@@std@@@std@@_N@2@ABU?$pair@$$CBKPAVCMailBox@@@2@@Z
_TEXT	SEGMENT PARA USE32 PUBLIC 'CODE'
_TEXT	ENDS
;	COMDAT ?clear@?$_Tree@V?$_Tmap_traits@KPAVCMailBox@@U?$less@K@std@@V?$allocator@U?$pair@$$CBKPAVCMailBox@@@std@@@3@$0A@@std@@@std@@QAEXXZ
_TEXT	SEGMENT PARA USE32 PUBLIC 'CODE'
_TEXT	ENDS
;	COMDAT ?find@?$_Tree@V?$_Tmap_traits@KPAVCMailBox@@U?$less@K@std@@V?$allocator@U?$pair@$$CBKPAVCMailBox@@@std@@@3@$0A@@std@@@std@@QAE?AViterator@12@ABK@Z
_TEXT	SEGMENT PARA USE32 PUBLIC 'CODE'
_TEXT	ENDS
;	COMDAT ??Diterator@?$vector@PAVCMail@@V?$allocator@PAVCMail@@@std@@@std@@QBEAAPAVCMail@@XZ
_TEXT	SEGMENT PARA USE32 PUBLIC 'CODE'
_TEXT	ENDS
;	COMDAT ??Eiterator@?$vector@PAVCMail@@V?$allocator@PAVCMail@@@std@@@std@@QAEAAV012@XZ
_TEXT	SEGMENT PARA USE32 PUBLIC 'CODE'
_TEXT	ENDS
;	COMDAT ??9const_iterator@?$vector@PAVCMail@@V?$allocator@PAVCMail@@@std@@@std@@QBE_NABV012@@Z
_TEXT	SEGMENT PARA USE32 PUBLIC 'CODE'
_TEXT	ENDS
;	COMDAT ??Citerator@?$_Tree@V?$_Tmap_traits@KPAVCMailBox@@U?$less@K@std@@V?$allocator@U?$pair@$$CBKPAVCMailBox@@@std@@@3@$0A@@std@@@std@@QBEPAU?$pair@$$CBKPAVCMailBox@@@2@XZ
_TEXT	SEGMENT PARA USE32 PUBLIC 'CODE'
_TEXT	ENDS
;	COMDAT ??Eiterator@?$_Tree@V?$_Tmap_traits@KPAVCMailBox@@U?$less@K@std@@V?$allocator@U?$pair@$$CBKPAVCMailBox@@@std@@@3@$0A@@std@@@std@@QAEAAV012@XZ
_TEXT	SEGMENT PARA USE32 PUBLIC 'CODE'
_TEXT	ENDS
;	COMDAT ??9const_iterator@?$_Tree@V?$_Tmap_traits@KPAVCMailBox@@U?$less@K@std@@V?$allocator@U?$pair@$$CBKPAVCMailBox@@@std@@@3@$0A@@std@@@std@@QBE_NABV012@@Z
_TEXT	SEGMENT PARA USE32 PUBLIC 'CODE'
_TEXT	ENDS
;	COMDAT ??0?$pair@$$CBKPAVCMailBox@@@std@@QAE@ABKABQAVCMailBox@@@Z
_TEXT	SEGMENT PARA USE32 PUBLIC 'CODE'
_TEXT	ENDS
;	COMDAT ?compare@?$basic_string@DU?$char_traits@D@std@@V?$allocator@D@2@@std@@QBEHIIPBDI@Z
_TEXT	SEGMENT PARA USE32 PUBLIC 'CODE'
_TEXT	ENDS
;	COMDAT ?_Tidy@?$deque@PAUtagACTMSG@@V?$allocator@PAUtagACTMSG@@@std@@@std@@IAEXXZ
_TEXT	SEGMENT PARA USE32 PUBLIC 'CODE'
_TEXT	ENDS
;	COMDAT ??0?$_Deque_val@PAUtagACTMSG@@V?$allocator@PAUtagACTMSG@@@std@@@std@@IAE@V?$allocator@PAUtagACTMSG@@@1@@Z
_TEXT	SEGMENT PARA USE32 PUBLIC 'CODE'
_TEXT	ENDS
;	COMDAT ??0?$allocator@PAUtagACTMSG@@@std@@QAE@XZ
_TEXT	SEGMENT PARA USE32 PUBLIC 'CODE'
_TEXT	ENDS
;	COMDAT ?_Tidy@?$deque@PAUtagMAGICATKMSG@@V?$allocator@PAUtagMAGICATKMSG@@@std@@@std@@IAEXXZ
_TEXT	SEGMENT PARA USE32 PUBLIC 'CODE'
_TEXT	ENDS
;	COMDAT ??0?$_Deque_val@PAUtagMAGICATKMSG@@V?$allocator@PAUtagMAGICATKMSG@@@std@@@std@@IAE@V?$allocator@PAUtagMAGICATKMSG@@@1@@Z
_TEXT	SEGMENT PARA USE32 PUBLIC 'CODE'
_TEXT	ENDS
;	COMDAT ??0?$allocator@PAUtagMAGICATKMSG@@@std@@QAE@XZ
_TEXT	SEGMENT PARA USE32 PUBLIC 'CODE'
_TEXT	ENDS
;	COMDAT ??0iterator@?$deque@PAUtagACTMSG@@V?$allocator@PAUtagACTMSG@@@std@@@std@@QAE@IPBV12@@Z
_TEXT	SEGMENT PARA USE32 PUBLIC 'CODE'
_TEXT	ENDS
;	COMDAT ??Dconst_iterator@?$deque@PAUtagACTMSG@@V?$allocator@PAUtagACTMSG@@@std@@@std@@QBEABQAUtagACTMSG@@XZ
_TEXT	SEGMENT PARA USE32 PUBLIC 'CODE'
_TEXT	ENDS
;	COMDAT ??8const_iterator@?$deque@PAUtagACTMSG@@V?$allocator@PAUtagACTMSG@@@std@@@std@@QBE_NABV012@@Z
_TEXT	SEGMENT PARA USE32 PUBLIC 'CODE'
_TEXT	ENDS
;	COMDAT ??0iterator@?$deque@PAUtagMAGICATKMSG@@V?$allocator@PAUtagMAGICATKMSG@@@std@@@std@@QAE@IPBV12@@Z
_TEXT	SEGMENT PARA USE32 PUBLIC 'CODE'
_TEXT	ENDS
;	COMDAT ??Dconst_iterator@?$deque@PAUtagMAGICATKMSG@@V?$allocator@PAUtagMAGICATKMSG@@@std@@@std@@QBEABQAUtagMAGICATKMSG@@XZ
_TEXT	SEGMENT PARA USE32 PUBLIC 'CODE'
_TEXT	ENDS
;	COMDAT ??8const_iterator@?$deque@PAUtagMAGICATKMSG@@V?$allocator@PAUtagMAGICATKMSG@@@std@@@std@@QBE_NABV012@@Z
_TEXT	SEGMENT PARA USE32 PUBLIC 'CODE'
_TEXT	ENDS
;	COMDAT ?capacity@?$vector@PAVCMail@@V?$allocator@PAVCMail@@@std@@@std@@QBEIXZ
_TEXT	SEGMENT PARA USE32 PUBLIC 'CODE'
_TEXT	ENDS
;	COMDAT ?insert@?$vector@PAVCMail@@V?$allocator@PAVCMail@@@std@@@std@@QAE?AViterator@12@V312@ABQAVCMail@@@Z
_TEXT	SEGMENT PARA USE32 PUBLIC 'CODE'
_TEXT	ENDS
;	COMDAT ?_Buy@?$vector@PAVCMail@@V?$allocator@PAVCMail@@@std@@@std@@IAE_NI@Z
_TEXT	SEGMENT PARA USE32 PUBLIC 'CODE'
_TEXT	ENDS
;	COMDAT ?_Destroy@?$vector@PAVCMail@@V?$allocator@PAVCMail@@@std@@@std@@IAEXPAPAVCMail@@0@Z
_TEXT	SEGMENT PARA USE32 PUBLIC 'CODE'
_TEXT	ENDS
;	COMDAT ?_Tidy@?$vector@PAVCMail@@V?$allocator@PAVCMail@@@std@@@std@@IAEXXZ
_TEXT	SEGMENT PARA USE32 PUBLIC 'CODE'
_TEXT	ENDS
;	COMDAT ?_Ufill@?$vector@PAVCMail@@V?$allocator@PAVCMail@@@std@@@std@@IAEPAPAVCMail@@PAPAV3@IABQAV3@@Z
_TEXT	SEGMENT PARA USE32 PUBLIC 'CODE'
_TEXT	ENDS
;	COMDAT ??0?$_Vector_val@PAVCMail@@V?$allocator@PAVCMail@@@std@@@std@@IAE@V?$allocator@PAVCMail@@@1@@Z
_TEXT	SEGMENT PARA USE32 PUBLIC 'CODE'
_TEXT	ENDS
;	COMDAT ??0?$allocator@PAVCMail@@@std@@QAE@XZ
_TEXT	SEGMENT PARA USE32 PUBLIC 'CODE'
_TEXT	ENDS
;	COMDAT ?_Isnil@?$_Tree@V?$_Tmap_traits@KPAVCMailBox@@U?$less@K@std@@V?$allocator@U?$pair@$$CBKPAVCMailBox@@@std@@@3@$0A@@std@@@std@@KAAADPAU_Node@?$_Tree_nod@V?$_Tmap_traits@KPAVCMailBox@@U?$less@K@std@@V?$allocator@U?$pair@$$CBKPAVCMailBox@@@std@@@3@$0A@@std@@@2@@Z
_TEXT	SEGMENT PARA USE32 PUBLIC 'CODE'
_TEXT	ENDS
;	COMDAT ?_Key@?$_Tree@V?$_Tmap_traits@KPAVCMailBox@@U?$less@K@std@@V?$allocator@U?$pair@$$CBKPAVCMailBox@@@std@@@3@$0A@@std@@@std@@KAABKPAU_Node@?$_Tree_nod@V?$_Tmap_traits@KPAVCMailBox@@U?$less@K@std@@V?$allocator@U?$pair@$$CBKPAVCMailBox@@@std@@@3@$0A@@std@@@2@@Z
_TEXT	SEGMENT PARA USE32 PUBLIC 'CODE'
_TEXT	ENDS
;	COMDAT ?_Left@?$_Tree@V?$_Tmap_traits@KPAVCMailBox@@U?$less@K@std@@V?$allocator@U?$pair@$$CBKPAVCMailBox@@@std@@@3@$0A@@std@@@std@@KAAAPAU_Node@?$_Tree_nod@V?$_Tmap_traits@KPAVCMailBox@@U?$less@K@std@@V?$allocator@U?$pair@$$CBKPAVCMailBox@@@std@@@3@$0A@@std@@@2@PAU342@@Z
_TEXT	SEGMENT PARA USE32 PUBLIC 'CODE'
_TEXT	ENDS
;	COMDAT ?_Right@?$_Tree@V?$_Tmap_traits@KPAVCMailBox@@U?$less@K@std@@V?$allocator@U?$pair@$$CBKPAVCMailBox@@@std@@@3@$0A@@std@@@std@@KAAAPAU_Node@?$_Tree_nod@V?$_Tmap_traits@KPAVCMailBox@@U?$less@K@std@@V?$allocator@U?$pair@$$CBKPAVCMailBox@@@std@@@3@$0A@@std@@@2@PAU342@@Z
_TEXT	SEGMENT PARA USE32 PUBLIC 'CODE'
_TEXT	ENDS
;	COMDAT ??0?$_Tree@V?$_Tmap_traits@KPAVCMailBox@@U?$less@K@std@@V?$allocator@U?$pair@$$CBKPAVCMailBox@@@std@@@3@$0A@@std@@@std@@QAE@ABU?$less@K@1@ABV?$allocator@U?$pair@$$CBKPAVCMailBox@@@std@@@1@@Z
_TEXT	SEGMENT PARA USE32 PUBLIC 'CODE'
_TEXT	ENDS
;	COMDAT ?lower_bound@?$_Tree@V?$_Tmap_traits@KPAVCMailBox@@U?$less@K@std@@V?$allocator@U?$pair@$$CBKPAVCMailBox@@@std@@@3@$0A@@std@@@std@@QAE?AViterator@12@ABK@Z
_TEXT	SEGMENT PARA USE32 PUBLIC 'CODE'
_TEXT	ENDS
;	COMDAT ?_Erase@?$_Tree@V?$_Tmap_traits@KPAVCMailBox@@U?$less@K@std@@V?$allocator@U?$pair@$$CBKPAVCMailBox@@@std@@@3@$0A@@std@@@std@@IAEXPAU_Node@?$_Tree_nod@V?$_Tmap_traits@KPAVCMailBox@@U?$less@K@std@@V?$allocator@U?$pair@$$CBKPAVCMailBox@@@std@@@3@$0A@@std@@@2@@Z
_TEXT	SEGMENT PARA USE32 PUBLIC 'CODE'
_TEXT	ENDS
;	COMDAT ?_Insert@?$_Tree@V?$_Tmap_traits@KPAVCMailBox@@U?$less@K@std@@V?$allocator@U?$pair@$$CBKPAVCMailBox@@@std@@@3@$0A@@std@@@std@@IAE?AViterator@12@_NPAU_Node@?$_Tree_nod@V?$_Tmap_traits@KPAVCMailBox@@U?$less@K@std@@V?$allocator@U?$pair@$$CBKPAVCMailBox@@@std@@@3@$0A@@std@@@2@ABU?$pair@$$CBKPAVCMailBox@@@2@@Z
_TEXT	SEGMENT PARA USE32 PUBLIC 'CODE'
_TEXT	ENDS
;	COMDAT ?_Lmost@?$_Tree@V?$_Tmap_traits@KPAVCMailBox@@U?$less@K@std@@V?$allocator@U?$pair@$$CBKPAVCMailBox@@@std@@@3@$0A@@std@@@std@@IAEAAPAU_Node@?$_Tree_nod@V?$_Tmap_traits@KPAVCMailBox@@U?$less@K@std@@V?$allocator@U?$pair@$$CBKPAVCMailBox@@@std@@@3@$0A@@std@@@2@XZ
_TEXT	SEGMENT PARA USE32 PUBLIC 'CODE'
_TEXT	ENDS
;	COMDAT ?_Rmost@?$_Tree@V?$_Tmap_traits@KPAVCMailBox@@U?$less@K@std@@V?$allocator@U?$pair@$$CBKPAVCMailBox@@@std@@@3@$0A@@std@@@std@@IAEAAPAU_Node@?$_Tree_nod@V?$_Tmap_traits@KPAVCMailBox@@U?$less@K@std@@V?$allocator@U?$pair@$$CBKPAVCMailBox@@@std@@@3@$0A@@std@@@2@XZ
_TEXT	SEGMENT PARA USE32 PUBLIC 'CODE'
_TEXT	ENDS
;	COMDAT ?_Root@?$_Tree@V?$_Tmap_traits@KPAVCMailBox@@U?$less@K@std@@V?$allocator@U?$pair@$$CBKPAVCMailBox@@@std@@@3@$0A@@std@@@std@@IAEAAPAU_Node@?$_Tree_nod@V?$_Tmap_traits@KPAVCMailBox@@U?$less@K@std@@V?$allocator@U?$pair@$$CBKPAVCMailBox@@@std@@@3@$0A@@std@@@2@XZ
_TEXT	SEGMENT PARA USE32 PUBLIC 'CODE'
_TEXT	ENDS
;	COMDAT ?_Tidy@?$_Tree@V?$_Tmap_traits@KPAVCMailBox@@U?$less@K@std@@V?$allocator@U?$pair@$$CBKPAVCMailBox@@@std@@@3@$0A@@std@@@std@@IAEXXZ
_TEXT	SEGMENT PARA USE32 PUBLIC 'CODE'
_TEXT	ENDS
;	COMDAT ?_Kfn@?$_Tmap_traits@KPAVCMailBox@@U?$less@K@std@@V?$allocator@U?$pair@$$CBKPAVCMailBox@@@std@@@3@$0A@@std@@SAABKABU?$pair@$$CBKPAVCMailBox@@@2@@Z
_TEXT	SEGMENT PARA USE32 PUBLIC 'CODE'
_TEXT	ENDS
;	COMDAT ??0?$allocator@U?$pair@$$CBKPAVCMailBox@@@std@@@std@@QAE@XZ
_TEXT	SEGMENT PARA USE32 PUBLIC 'CODE'
_TEXT	ENDS
;	COMDAT ??0iterator@?$vector@PAVCMail@@V?$allocator@PAVCMail@@@std@@@std@@QAE@PAPAVCMail@@@Z
_TEXT	SEGMENT PARA USE32 PUBLIC 'CODE'
_TEXT	ENDS
;	COMDAT ??Dconst_iterator@?$vector@PAVCMail@@V?$allocator@PAVCMail@@@std@@@std@@QBEABQAVCMail@@XZ
_TEXT	SEGMENT PARA USE32 PUBLIC 'CODE'
_TEXT	ENDS
;	COMDAT ??8const_iterator@?$vector@PAVCMail@@V?$allocator@PAVCMail@@@std@@@std@@QBE_NABV012@@Z
_TEXT	SEGMENT PARA USE32 PUBLIC 'CODE'
_TEXT	ENDS
;	COMDAT ??0iterator@?$_Tree@V?$_Tmap_traits@KPAVCMailBox@@U?$less@K@std@@V?$allocator@U?$pair@$$CBKPAVCMailBox@@@std@@@3@$0A@@std@@@std@@QAE@PAU_Node@?$_Tree_nod@V?$_Tmap_traits@KPAVCMailBox@@U?$less@K@std@@V?$allocator@U?$pair@$$CBKPAVCMailBox@@@std@@@3@$0A@@std@@@2@@Z
_TEXT	SEGMENT PARA USE32 PUBLIC 'CODE'
_TEXT	ENDS
;	COMDAT ??Diterator@?$_Tree@V?$_Tmap_traits@KPAVCMailBox@@U?$less@K@std@@V?$allocator@U?$pair@$$CBKPAVCMailBox@@@std@@@3@$0A@@std@@@std@@QBEAAU?$pair@$$CBKPAVCMailBox@@@2@XZ
_TEXT	SEGMENT PARA USE32 PUBLIC 'CODE'
_TEXT	ENDS
;	COMDAT ??Fiterator@?$_Tree@V?$_Tmap_traits@KPAVCMailBox@@U?$less@K@std@@V?$allocator@U?$pair@$$CBKPAVCMailBox@@@std@@@3@$0A@@std@@@std@@QAEAAV012@XZ
_TEXT	SEGMENT PARA USE32 PUBLIC 'CODE'
_TEXT	ENDS
;	COMDAT ??Econst_iterator@?$_Tree@V?$_Tmap_traits@KPAVCMailBox@@U?$less@K@std@@V?$allocator@U?$pair@$$CBKPAVCMailBox@@@std@@@3@$0A@@std@@@std@@QAEAAV012@XZ
_TEXT	SEGMENT PARA USE32 PUBLIC 'CODE'
_TEXT	ENDS
;	COMDAT ??8const_iterator@?$_Tree@V?$_Tmap_traits@KPAVCMailBox@@U?$less@K@std@@V?$allocator@U?$pair@$$CBKPAVCMailBox@@@std@@@3@$0A@@std@@@std@@QBE_NABV012@@Z
_TEXT	SEGMENT PARA USE32 PUBLIC 'CODE'
_TEXT	ENDS
;	COMDAT ?_Mynode@const_iterator@?$_Tree@V?$_Tmap_traits@KPAVCMailBox@@U?$less@K@std@@V?$allocator@U?$pair@$$CBKPAVCMailBox@@@std@@@3@$0A@@std@@@std@@QBEPAU_Node@?$_Tree_nod@V?$_Tmap_traits@KPAVCMailBox@@U?$less@K@std@@V?$allocator@U?$pair@$$CBKPAVCMailBox@@@std@@@3@$0A@@std@@@3@XZ
_TEXT	SEGMENT PARA USE32 PUBLIC 'CODE'
_TEXT	ENDS
;	COMDAT ??0?$pair@Viterator@?$_Tree@V?$_Tmap_traits@KPAVCMailBox@@U?$less@K@std@@V?$allocator@U?$pair@$$CBKPAVCMailBox@@@std@@@3@$0A@@std@@@std@@_N@std@@QAE@ABViterator@?$_Tree@V?$_Tmap_traits@KPAVCMailBox@@U?$less@K@std@@V?$allocator@U?$pair@$$CBKPAVCMailBox@@@std@@@3@$0A@@std@@@1@AB_N@Z
_TEXT	SEGMENT PARA USE32 PUBLIC 'CODE'
_TEXT	ENDS
;	COMDAT ?pop_back@?$deque@PAUtagACTMSG@@V?$allocator@PAUtagACTMSG@@@std@@@std@@QAEXXZ
_TEXT	SEGMENT PARA USE32 PUBLIC 'CODE'
_TEXT	ENDS
;	COMDAT ??0?$_Deque_map@PAUtagACTMSG@@V?$allocator@PAUtagACTMSG@@@std@@@std@@IAE@V?$allocator@PAUtagACTMSG@@@1@@Z
_TEXT	SEGMENT PARA USE32 PUBLIC 'CODE'
_TEXT	ENDS
;	COMDAT ??0?$allocator@PAUtagACTMSG@@@std@@QAE@ABV01@@Z
_TEXT	SEGMENT PARA USE32 PUBLIC 'CODE'
_TEXT	ENDS
;	COMDAT ?deallocate@?$allocator@PAUtagACTMSG@@@std@@QAEXPAPAUtagACTMSG@@I@Z
_TEXT	SEGMENT PARA USE32 PUBLIC 'CODE'
_TEXT	ENDS
;	COMDAT ?deallocate@?$allocator@PAPAUtagACTMSG@@@std@@QAEXPAPAPAUtagACTMSG@@I@Z
_TEXT	SEGMENT PARA USE32 PUBLIC 'CODE'
_TEXT	ENDS
;	COMDAT ?destroy@?$allocator@PAPAUtagACTMSG@@@std@@QAEXPAPAPAUtagACTMSG@@@Z
_TEXT	SEGMENT PARA USE32 PUBLIC 'CODE'
_TEXT	ENDS
;	COMDAT ?pop_back@?$deque@PAUtagMAGICATKMSG@@V?$allocator@PAUtagMAGICATKMSG@@@std@@@std@@QAEXXZ
_TEXT	SEGMENT PARA USE32 PUBLIC 'CODE'
_TEXT	ENDS
;	COMDAT ??0?$_Deque_map@PAUtagMAGICATKMSG@@V?$allocator@PAUtagMAGICATKMSG@@@std@@@std@@IAE@V?$allocator@PAUtagMAGICATKMSG@@@1@@Z
_TEXT	SEGMENT PARA USE32 PUBLIC 'CODE'
_TEXT	ENDS
;	COMDAT ??0?$allocator@PAUtagMAGICATKMSG@@@std@@QAE@ABV01@@Z
_TEXT	SEGMENT PARA USE32 PUBLIC 'CODE'
_TEXT	ENDS
;	COMDAT ?deallocate@?$allocator@PAUtagMAGICATKMSG@@@std@@QAEXPAPAUtagMAGICATKMSG@@I@Z
_TEXT	SEGMENT PARA USE32 PUBLIC 'CODE'
_TEXT	ENDS
;	COMDAT ?deallocate@?$allocator@PAPAUtagMAGICATKMSG@@@std@@QAEXPAPAPAUtagMAGICATKMSG@@I@Z
_TEXT	SEGMENT PARA USE32 PUBLIC 'CODE'
_TEXT	ENDS
;	COMDAT ?destroy@?$allocator@PAPAUtagMAGICATKMSG@@@std@@QAEXPAPAPAUtagMAGICATKMSG@@@Z
_TEXT	SEGMENT PARA USE32 PUBLIC 'CODE'
_TEXT	ENDS
;	COMDAT ??0const_iterator@?$deque@PAUtagACTMSG@@V?$allocator@PAUtagACTMSG@@@std@@@std@@QAE@IPBV12@@Z
_TEXT	SEGMENT PARA USE32 PUBLIC 'CODE'
_TEXT	ENDS
;	COMDAT ??0const_iterator@?$deque@PAUtagMAGICATKMSG@@V?$allocator@PAUtagMAGICATKMSG@@@std@@@std@@QAE@IPBV12@@Z
_TEXT	SEGMENT PARA USE32 PUBLIC 'CODE'
_TEXT	ENDS
;	COMDAT ?max_size@?$vector@PAVCMail@@V?$allocator@PAVCMail@@@std@@@std@@QBEIXZ
_TEXT	SEGMENT PARA USE32 PUBLIC 'CODE'
_TEXT	ENDS
;	COMDAT ?_Insert_n@?$vector@PAVCMail@@V?$allocator@PAVCMail@@@std@@@std@@IAEXViterator@12@IABQAVCMail@@@Z
_TEXT	SEGMENT PARA USE32 PUBLIC 'CODE'
_TEXT	ENDS
;	COMDAT ?_Xlen@?$vector@PAVCMail@@V?$allocator@PAVCMail@@@std@@@std@@IBEXXZ
_TEXT	SEGMENT PARA USE32 PUBLIC 'CODE'
_TEXT	ENDS
;	COMDAT ??0?$allocator@PAVCMail@@@std@@QAE@ABV01@@Z
_TEXT	SEGMENT PARA USE32 PUBLIC 'CODE'
_TEXT	ENDS
;	COMDAT ?deallocate@?$allocator@PAVCMail@@@std@@QAEXPAPAVCMail@@I@Z
_TEXT	SEGMENT PARA USE32 PUBLIC 'CODE'
_TEXT	ENDS
;	COMDAT ?allocate@?$allocator@PAVCMail@@@std@@QAEPAPAVCMail@@I@Z
_TEXT	SEGMENT PARA USE32 PUBLIC 'CODE'
_TEXT	ENDS
;	COMDAT ?_Color@?$_Tree@V?$_Tmap_traits@KPAVCMailBox@@U?$less@K@std@@V?$allocator@U?$pair@$$CBKPAVCMailBox@@@std@@@3@$0A@@std@@@std@@KAAADPAU_Node@?$_Tree_nod@V?$_Tmap_traits@KPAVCMailBox@@U?$less@K@std@@V?$allocator@U?$pair@$$CBKPAVCMailBox@@@std@@@3@$0A@@std@@@2@@Z
_TEXT	SEGMENT PARA USE32 PUBLIC 'CODE'
_TEXT	ENDS
;	COMDAT ?_Parent@?$_Tree@V?$_Tmap_traits@KPAVCMailBox@@U?$less@K@std@@V?$allocator@U?$pair@$$CBKPAVCMailBox@@@std@@@3@$0A@@std@@@std@@KAAAPAU_Node@?$_Tree_nod@V?$_Tmap_traits@KPAVCMailBox@@U?$less@K@std@@V?$allocator@U?$pair@$$CBKPAVCMailBox@@@std@@@3@$0A@@std@@@2@PAU342@@Z
_TEXT	SEGMENT PARA USE32 PUBLIC 'CODE'
_TEXT	ENDS
;	COMDAT ?_Myval@?$_Tree@V?$_Tmap_traits@KPAVCMailBox@@U?$less@K@std@@V?$allocator@U?$pair@$$CBKPAVCMailBox@@@std@@@3@$0A@@std@@@std@@KAAAU?$pair@$$CBKPAVCMailBox@@@2@PAU_Node@?$_Tree_nod@V?$_Tmap_traits@KPAVCMailBox@@U?$less@K@std@@V?$allocator@U?$pair@$$CBKPAVCMailBox@@@std@@@3@$0A@@std@@@2@@Z
_TEXT	SEGMENT PARA USE32 PUBLIC 'CODE'
_TEXT	ENDS
;	COMDAT ?max_size@?$_Tree@V?$_Tmap_traits@KPAVCMailBox@@U?$less@K@std@@V?$allocator@U?$pair@$$CBKPAVCMailBox@@@std@@@3@$0A@@std@@@std@@QBEIXZ
_TEXT	SEGMENT PARA USE32 PUBLIC 'CODE'
_TEXT	ENDS
;	COMDAT ?erase@?$_Tree@V?$_Tmap_traits@KPAVCMailBox@@U?$less@K@std@@V?$allocator@U?$pair@$$CBKPAVCMailBox@@@std@@@3@$0A@@std@@@std@@QAE?AViterator@12@V312@0@Z
_TEXT	SEGMENT PARA USE32 PUBLIC 'CODE'
_TEXT	ENDS
;	COMDAT ?_Init@?$_Tree@V?$_Tmap_traits@KPAVCMailBox@@U?$less@K@std@@V?$allocator@U?$pair@$$CBKPAVCMailBox@@@std@@@3@$0A@@std@@@std@@IAEXXZ
_TEXT	SEGMENT PARA USE32 PUBLIC 'CODE'
_TEXT	ENDS
;	COMDAT ?_Lbound@?$_Tree@V?$_Tmap_traits@KPAVCMailBox@@U?$less@K@std@@V?$allocator@U?$pair@$$CBKPAVCMailBox@@@std@@@3@$0A@@std@@@std@@IBEPAU_Node@?$_Tree_nod@V?$_Tmap_traits@KPAVCMailBox@@U?$less@K@std@@V?$allocator@U?$pair@$$CBKPAVCMailBox@@@std@@@3@$0A@@std@@@2@ABK@Z
_TEXT	SEGMENT PARA USE32 PUBLIC 'CODE'
_TEXT	ENDS
;	COMDAT ?_Lrotate@?$_Tree@V?$_Tmap_traits@KPAVCMailBox@@U?$less@K@std@@V?$allocator@U?$pair@$$CBKPAVCMailBox@@@std@@@3@$0A@@std@@@std@@IAEXPAU_Node@?$_Tree_nod@V?$_Tmap_traits@KPAVCMailBox@@U?$less@K@std@@V?$allocator@U?$pair@$$CBKPAVCMailBox@@@std@@@3@$0A@@std@@@2@@Z
_TEXT	SEGMENT PARA USE32 PUBLIC 'CODE'
_TEXT	ENDS
;	COMDAT ?_Rrotate@?$_Tree@V?$_Tmap_traits@KPAVCMailBox@@U?$less@K@std@@V?$allocator@U?$pair@$$CBKPAVCMailBox@@@std@@@3@$0A@@std@@@std@@IAEXPAU_Node@?$_Tree_nod@V?$_Tmap_traits@KPAVCMailBox@@U?$less@K@std@@V?$allocator@U?$pair@$$CBKPAVCMailBox@@@std@@@3@$0A@@std@@@2@@Z
_TEXT	SEGMENT PARA USE32 PUBLIC 'CODE'
_TEXT	ENDS
;	COMDAT ?_Buynode@?$_Tree@V?$_Tmap_traits@KPAVCMailBox@@U?$less@K@std@@V?$allocator@U?$pair@$$CBKPAVCMailBox@@@std@@@3@$0A@@std@@@std@@IAEPAU_Node@?$_Tree_nod@V?$_Tmap_traits@KPAVCMailBox@@U?$less@K@std@@V?$allocator@U?$pair@$$CBKPAVCMailBox@@@std@@@3@$0A@@std@@@2@PAU342@00ABU?$pair@$$CBKPAVCMailBox@@@2@D@Z
_TEXT	SEGMENT PARA USE32 PUBLIC 'CODE'
_TEXT	ENDS
;	COMDAT ??0?$_Tree_val@V?$_Tmap_traits@KPAVCMailBox@@U?$less@K@std@@V?$allocator@U?$pair@$$CBKPAVCMailBox@@@std@@@3@$0A@@std@@@std@@IAE@ABU?$less@K@1@V?$allocator@U?$pair@$$CBKPAVCMailBox@@@std@@@1@@Z
_TEXT	SEGMENT PARA USE32 PUBLIC 'CODE'
_TEXT	ENDS
;	COMDAT ??0?$allocator@U?$pair@$$CBKPAVCMailBox@@@std@@@std@@QAE@ABV01@@Z
_TEXT	SEGMENT PARA USE32 PUBLIC 'CODE'
_TEXT	ENDS
;	COMDAT ?deallocate@?$allocator@U_Node@?$_Tree_nod@V?$_Tmap_traits@KPAVCMailBox@@U?$less@K@std@@V?$allocator@U?$pair@$$CBKPAVCMailBox@@@std@@@3@$0A@@std@@@std@@@std@@QAEXPAU_Node@?$_Tree_nod@V?$_Tmap_traits@KPAVCMailBox@@U?$less@K@std@@V?$allocator@U?$pair@$$CBKPAVCMailBox@@@std@@@3@$0A@@std@@@2@I@Z
_TEXT	SEGMENT PARA USE32 PUBLIC 'CODE'
_TEXT	ENDS
;	COMDAT ?destroy@?$allocator@U_Node@?$_Tree_nod@V?$_Tmap_traits@KPAVCMailBox@@U?$less@K@std@@V?$allocator@U?$pair@$$CBKPAVCMailBox@@@std@@@3@$0A@@std@@@std@@@std@@QAEXPAU_Node@?$_Tree_nod@V?$_Tmap_traits@KPAVCMailBox@@U?$less@K@std@@V?$allocator@U?$pair@$$CBKPAVCMailBox@@@std@@@3@$0A@@std@@@2@@Z
_TEXT	SEGMENT PARA USE32 PUBLIC 'CODE'
_TEXT	ENDS
;	COMDAT ?destroy@?$allocator@PAU_Node@?$_Tree_nod@V?$_Tmap_traits@KPAVCMailBox@@U?$less@K@std@@V?$allocator@U?$pair@$$CBKPAVCMailBox@@@std@@@3@$0A@@std@@@std@@@std@@QAEXPAPAU_Node@?$_Tree_nod@V?$_Tmap_traits@KPAVCMailBox@@U?$less@K@std@@V?$allocator@U?$pair@$$CBKPAVCMailBox@@@std@@@3@$0A@@std@@@2@@Z
_TEXT	SEGMENT PARA USE32 PUBLIC 'CODE'
_TEXT	ENDS
;	COMDAT ??Hiterator@?$vector@PAVCMail@@V?$allocator@PAVCMail@@@std@@@std@@QBE?AV012@H@Z
_TEXT	SEGMENT PARA USE32 PUBLIC 'CODE'
_TEXT	ENDS
;	COMDAT ??Giterator@?$vector@PAVCMail@@V?$allocator@PAVCMail@@@std@@@std@@QBEHABVconst_iterator@12@@Z
_TEXT	SEGMENT PARA USE32 PUBLIC 'CODE'
_TEXT	ENDS
;	COMDAT ??0const_iterator@?$vector@PAVCMail@@V?$allocator@PAVCMail@@@std@@@std@@QAE@PAPAVCMail@@@Z
_TEXT	SEGMENT PARA USE32 PUBLIC 'CODE'
_TEXT	ENDS
;	COMDAT ??0const_iterator@?$_Tree@V?$_Tmap_traits@KPAVCMailBox@@U?$less@K@std@@V?$allocator@U?$pair@$$CBKPAVCMailBox@@@std@@@3@$0A@@std@@@std@@QAE@PAU_Node@?$_Tree_nod@V?$_Tmap_traits@KPAVCMailBox@@U?$less@K@std@@V?$allocator@U?$pair@$$CBKPAVCMailBox@@@std@@@3@$0A@@std@@@2@@Z
_TEXT	SEGMENT PARA USE32 PUBLIC 'CODE'
_TEXT	ENDS
;	COMDAT ??Dconst_iterator@?$_Tree@V?$_Tmap_traits@KPAVCMailBox@@U?$less@K@std@@V?$allocator@U?$pair@$$CBKPAVCMailBox@@@std@@@3@$0A@@std@@@std@@QBEABU?$pair@$$CBKPAVCMailBox@@@2@XZ
_TEXT	SEGMENT PARA USE32 PUBLIC 'CODE'
_TEXT	ENDS
;	COMDAT ??Fconst_iterator@?$_Tree@V?$_Tmap_traits@KPAVCMailBox@@U?$less@K@std@@V?$allocator@U?$pair@$$CBKPAVCMailBox@@@std@@@3@$0A@@std@@@std@@QAEAAV012@XZ
_TEXT	SEGMENT PARA USE32 PUBLIC 'CODE'
_TEXT	ENDS
;	COMDAT ?_Inc@const_iterator@?$_Tree@V?$_Tmap_traits@KPAVCMailBox@@U?$less@K@std@@V?$allocator@U?$pair@$$CBKPAVCMailBox@@@std@@@3@$0A@@std@@@std@@QAEXXZ
_TEXT	SEGMENT PARA USE32 PUBLIC 'CODE'
_TEXT	ENDS
;	COMDAT ?destroy@?$allocator@PAUtagACTMSG@@@std@@QAEXPAPAUtagACTMSG@@@Z
_TEXT	SEGMENT PARA USE32 PUBLIC 'CODE'
_TEXT	ENDS
;	COMDAT ?destroy@?$allocator@PAUtagMAGICATKMSG@@@std@@QAEXPAPAUtagMAGICATKMSG@@@Z
_TEXT	SEGMENT PARA USE32 PUBLIC 'CODE'
_TEXT	ENDS
;	COMDAT ?max_size@?$allocator@PAVCMail@@@std@@QBEIXZ
_TEXT	SEGMENT PARA USE32 PUBLIC 'CODE'
_TEXT	ENDS
;	COMDAT ?erase@?$_Tree@V?$_Tmap_traits@KPAVCMailBox@@U?$less@K@std@@V?$allocator@U?$pair@$$CBKPAVCMailBox@@@std@@@3@$0A@@std@@@std@@QAE?AViterator@12@V312@@Z
_TEXT	SEGMENT PARA USE32 PUBLIC 'CODE'
_TEXT	ENDS
;	COMDAT ?_Min@?$_Tree@V?$_Tmap_traits@KPAVCMailBox@@U?$less@K@std@@V?$allocator@U?$pair@$$CBKPAVCMailBox@@@std@@@3@$0A@@std@@@std@@KAPAU_Node@?$_Tree_nod@V?$_Tmap_traits@KPAVCMailBox@@U?$less@K@std@@V?$allocator@U?$pair@$$CBKPAVCMailBox@@@std@@@3@$0A@@std@@@2@PAU342@@Z
_TEXT	SEGMENT PARA USE32 PUBLIC 'CODE'
_TEXT	ENDS
;	COMDAT ?_Root@?$_Tree@V?$_Tmap_traits@KPAVCMailBox@@U?$less@K@std@@V?$allocator@U?$pair@$$CBKPAVCMailBox@@@std@@@3@$0A@@std@@@std@@IBEAAPAU_Node@?$_Tree_nod@V?$_Tmap_traits@KPAVCMailBox@@U?$less@K@std@@V?$allocator@U?$pair@$$CBKPAVCMailBox@@@std@@@3@$0A@@std@@@2@XZ
_TEXT	SEGMENT PARA USE32 PUBLIC 'CODE'
_TEXT	ENDS
;	COMDAT ?_Buynode@?$_Tree@V?$_Tmap_traits@KPAVCMailBox@@U?$less@K@std@@V?$allocator@U?$pair@$$CBKPAVCMailBox@@@std@@@3@$0A@@std@@@std@@IAEPAU_Node@?$_Tree_nod@V?$_Tmap_traits@KPAVCMailBox@@U?$less@K@std@@V?$allocator@U?$pair@$$CBKPAVCMailBox@@@std@@@3@$0A@@std@@@2@XZ
_TEXT	SEGMENT PARA USE32 PUBLIC 'CODE'
_TEXT	ENDS
;	COMDAT ??0?$_Tree_ptr@V?$_Tmap_traits@KPAVCMailBox@@U?$less@K@std@@V?$allocator@U?$pair@$$CBKPAVCMailBox@@@std@@@3@$0A@@std@@@std@@IAE@ABU?$less@K@1@V?$allocator@U?$pair@$$CBKPAVCMailBox@@@std@@@1@@Z
_TEXT	SEGMENT PARA USE32 PUBLIC 'CODE'
_TEXT	ENDS
;	COMDAT ?max_size@?$allocator@U?$pair@$$CBKPAVCMailBox@@@std@@@std@@QBEIXZ
_TEXT	SEGMENT PARA USE32 PUBLIC 'CODE'
_TEXT	ENDS
;	COMDAT ?allocate@?$allocator@U_Node@?$_Tree_nod@V?$_Tmap_traits@KPAVCMailBox@@U?$less@K@std@@V?$allocator@U?$pair@$$CBKPAVCMailBox@@@std@@@3@$0A@@std@@@std@@@std@@QAEPAU_Node@?$_Tree_nod@V?$_Tmap_traits@KPAVCMailBox@@U?$less@K@std@@V?$allocator@U?$pair@$$CBKPAVCMailBox@@@std@@@3@$0A@@std@@@2@I@Z
_TEXT	SEGMENT PARA USE32 PUBLIC 'CODE'
_TEXT	ENDS
;	COMDAT ??Yiterator@?$vector@PAVCMail@@V?$allocator@PAVCMail@@@std@@@std@@QAEAAV012@H@Z
_TEXT	SEGMENT PARA USE32 PUBLIC 'CODE'
_TEXT	ENDS
;	COMDAT ??Gconst_iterator@?$vector@PAVCMail@@V?$allocator@PAVCMail@@@std@@@std@@QBEHABV012@@Z
_TEXT	SEGMENT PARA USE32 PUBLIC 'CODE'
_TEXT	ENDS
;	COMDAT ??Eiterator@?$_Tree@V?$_Tmap_traits@KPAVCMailBox@@U?$less@K@std@@V?$allocator@U?$pair@$$CBKPAVCMailBox@@@std@@@3@$0A@@std@@@std@@QAE?AV012@H@Z
_TEXT	SEGMENT PARA USE32 PUBLIC 'CODE'
_TEXT	ENDS
;	COMDAT ?_Dec@const_iterator@?$_Tree@V?$_Tmap_traits@KPAVCMailBox@@U?$less@K@std@@V?$allocator@U?$pair@$$CBKPAVCMailBox@@@std@@@3@$0A@@std@@@std@@QAEXXZ
_TEXT	SEGMENT PARA USE32 PUBLIC 'CODE'
_TEXT	ENDS
;	COMDAT ??0_Node@?$_Tree_nod@V?$_Tmap_traits@KPAVCMailBox@@U?$less@K@std@@V?$allocator@U?$pair@$$CBKPAVCMailBox@@@std@@@3@$0A@@std@@@std@@QAE@PAU012@00ABU?$pair@$$CBKPAVCMailBox@@@2@D@Z
_TEXT	SEGMENT PARA USE32 PUBLIC 'CODE'
_TEXT	ENDS
;	COMDAT ?_Max@?$_Tree@V?$_Tmap_traits@KPAVCMailBox@@U?$less@K@std@@V?$allocator@U?$pair@$$CBKPAVCMailBox@@@std@@@3@$0A@@std@@@std@@KAPAU_Node@?$_Tree_nod@V?$_Tmap_traits@KPAVCMailBox@@U?$less@K@std@@V?$allocator@U?$pair@$$CBKPAVCMailBox@@@std@@@3@$0A@@std@@@2@PAU342@@Z
_TEXT	SEGMENT PARA USE32 PUBLIC 'CODE'
_TEXT	ENDS
;	COMDAT ??0?$_Tree_nod@V?$_Tmap_traits@KPAVCMailBox@@U?$less@K@std@@V?$allocator@U?$pair@$$CBKPAVCMailBox@@@std@@@3@$0A@@std@@@std@@IAE@ABU?$less@K@1@V?$allocator@U?$pair@$$CBKPAVCMailBox@@@std@@@1@@Z
_TEXT	SEGMENT PARA USE32 PUBLIC 'CODE'
_TEXT	ENDS
;	COMDAT ?construct@?$allocator@PAU_Node@?$_Tree_nod@V?$_Tmap_traits@KPAVCMailBox@@U?$less@K@std@@V?$allocator@U?$pair@$$CBKPAVCMailBox@@@std@@@3@$0A@@std@@@std@@@std@@QAEXPAPAU_Node@?$_Tree_nod@V?$_Tmap_traits@KPAVCMailBox@@U?$less@K@std@@V?$allocator@U?$pair@$$CBKPAVCMailBox@@@std@@@3@$0A@@std@@@2@ABQAU342@@Z
_TEXT	SEGMENT PARA USE32 PUBLIC 'CODE'
_TEXT	ENDS
;	COMDAT ??0?$_Tmap_traits@KPAVCMailBox@@U?$less@K@std@@V?$allocator@U?$pair@$$CBKPAVCMailBox@@@std@@@3@$0A@@std@@QAE@U?$less@K@1@@Z
_TEXT	SEGMENT PARA USE32 PUBLIC 'CODE'
_TEXT	ENDS
;	COMDAT ??$_Iter_cat@Vconst_iterator@?$vector@EV?$allocator@E@std@@@std@@@std@@YA?AUrandom_access_iterator_tag@0@ABVconst_iterator@?$vector@EV?$allocator@E@std@@@0@@Z
_TEXT	SEGMENT PARA USE32 PUBLIC 'CODE'
_TEXT	ENDS
;	COMDAT ??$_Assign@Vconst_iterator@?$vector@EV?$allocator@E@std@@@std@@@?$vector@EV?$allocator@E@std@@@std@@QAEXVconst_iterator@01@0Uinput_iterator_tag@1@@Z
_TEXT	SEGMENT PARA USE32 PUBLIC 'CODE'
_TEXT	ENDS
;	COMDAT ??$_Iter_cat@Viterator@?$_Tree@V?$_Tmap_traits@KPAVCUser@@U?$less@K@std@@V?$allocator@U?$pair@$$CBKPAVCUser@@@std@@@3@$0A@@std@@@std@@@std@@YA?AUbidirectional_iterator_tag@0@ABViterator@?$_Tree@V?$_Tmap_traits@KPAVCUser@@U?$less@K@std@@V?$allocator@U?$pair@$$CBKPAVCUser@@@std@@@3@$0A@@std@@@0@@Z
_TEXT	SEGMENT PARA USE32 PUBLIC 'CODE'
_TEXT	ENDS
;	COMDAT ??$_Distance2@Viterator@?$_Tree@V?$_Tmap_traits@KPAVCUser@@U?$less@K@std@@V?$allocator@U?$pair@$$CBKPAVCUser@@@std@@@3@$0A@@std@@@std@@I@std@@YAXViterator@?$_Tree@V?$_Tmap_traits@KPAVCUser@@U?$less@K@std@@V?$allocator@U?$pair@$$CBKPAVCUser@@@std@@@3@$0A@@std@@@0@0AAIUbidirectional_iterator_tag@0@@Z
_TEXT	SEGMENT PARA USE32 PUBLIC 'CODE'
_TEXT	ENDS
;	COMDAT ??$_Iter_cat@Viterator@?$_Tree@V?$_Tmap_traits@KPAVCCtrl@@U?$less@K@std@@V?$allocator@U?$pair@$$CBKPAVCCtrl@@@std@@@3@$0A@@std@@@std@@@std@@YA?AUbidirectional_iterator_tag@0@ABViterator@?$_Tree@V?$_Tmap_traits@KPAVCCtrl@@U?$less@K@std@@V?$allocator@U?$pair@$$CBKPAVCCtrl@@@std@@@3@$0A@@std@@@0@@Z
_TEXT	SEGMENT PARA USE32 PUBLIC 'CODE'
_TEXT	ENDS
;	COMDAT ??$_Distance2@Viterator@?$_Tree@V?$_Tmap_traits@KPAVCCtrl@@U?$less@K@std@@V?$allocator@U?$pair@$$CBKPAVCCtrl@@@std@@@3@$0A@@std@@@std@@I@std@@YAXViterator@?$_Tree@V?$_Tmap_traits@KPAVCCtrl@@U?$less@K@std@@V?$allocator@U?$pair@$$CBKPAVCCtrl@@@std@@@3@$0A@@std@@@0@0AAIUbidirectional_iterator_tag@0@@Z
_TEXT	SEGMENT PARA USE32 PUBLIC 'CODE'
_TEXT	ENDS
;	COMDAT ??$_Uninitialized_copy@Vconst_iterator@?$vector@EV?$allocator@E@std@@@std@@PAEV?$allocator@E@3@@std@@YAPAEVconst_iterator@?$vector@EV?$allocator@E@std@@@0@0PAEAAV?$allocator@E@0@@Z
_TEXT	SEGMENT PARA USE32 PUBLIC 'CODE'
_TEXT	ENDS
;	COMDAT ??$_Iter_cat@Viterator@?$_Tree@V?$_Tmap_traits@KEU?$less@K@std@@V?$allocator@U?$pair@$$CBKE@std@@@2@$0A@@std@@@std@@@std@@YA?AUbidirectional_iterator_tag@0@ABViterator@?$_Tree@V?$_Tmap_traits@KEU?$less@K@std@@V?$allocator@U?$pair@$$CBKE@std@@@2@$0A@@std@@@0@@Z
_TEXT	SEGMENT PARA USE32 PUBLIC 'CODE'
_TEXT	ENDS
;	COMDAT ??$_Distance2@Viterator@?$_Tree@V?$_Tmap_traits@KEU?$less@K@std@@V?$allocator@U?$pair@$$CBKE@std@@@2@$0A@@std@@@std@@I@std@@YAXViterator@?$_Tree@V?$_Tmap_traits@KEU?$less@K@std@@V?$allocator@U?$pair@$$CBKE@std@@@2@$0A@@std@@@0@0AAIUbidirectional_iterator_tag@0@@Z
_TEXT	SEGMENT PARA USE32 PUBLIC 'CODE'
_TEXT	ENDS
;	COMDAT ??$_Ptr_cat@PAU__SPAWNREGION@CEventLua@@PAU12@@std@@YA?AU_Nonscalar_ptr_iterator_tag@0@AAPAU__SPAWNREGION@CEventLua@@0@Z
_TEXT	SEGMENT PARA USE32 PUBLIC 'CODE'
_TEXT	ENDS
;	COMDAT ??$_Uninit_fill_n@PAU__SPAWNREGION@CEventLua@@IU12@V?$allocator@U__SPAWNREGION@CEventLua@@@std@@@std@@YAXPAU__SPAWNREGION@CEventLua@@IABU12@AAV?$allocator@U__SPAWNREGION@CEventLua@@@0@U_Nonscalar_ptr_iterator_tag@0@@Z
_TEXT	SEGMENT PARA USE32 PUBLIC 'CODE'
_TEXT	ENDS
;	COMDAT ??$_Copy_opt@PAJPAJ@std@@YAPAJPAJ00U_Scalar_ptr_iterator_tag@0@@Z
_TEXT	SEGMENT PARA USE32 PUBLIC 'CODE'
_TEXT	ENDS
;	COMDAT ??$_Uninitialized_copy@PAJPAJV?$allocator@J@std@@@std@@YAPAJPAJ00AAV?$allocator@J@0@@Z
_TEXT	SEGMENT PARA USE32 PUBLIC 'CODE'
_TEXT	ENDS
;	COMDAT ??$_Copy_backward_opt@PAJPAJ@std@@YAPAJPAJ00U_Scalar_ptr_iterator_tag@0@@Z
_TEXT	SEGMENT PARA USE32 PUBLIC 'CODE'
_TEXT	ENDS
;	COMDAT ??$_Ptr_cat@PAUtagDROPITEM@@PAU1@@std@@YA?AU_Nonscalar_ptr_iterator_tag@0@AAPAUtagDROPITEM@@0@Z
_TEXT	SEGMENT PARA USE32 PUBLIC 'CODE'
_TEXT	ENDS
;	COMDAT ??$_Destroy_range@UtagDROPITEM@@V?$allocator@UtagDROPITEM@@@std@@@std@@YAXPAUtagDROPITEM@@0AAV?$allocator@UtagDROPITEM@@@0@U_Nonscalar_ptr_iterator_tag@0@@Z
_TEXT	SEGMENT PARA USE32 PUBLIC 'CODE'
_TEXT	ENDS
;	COMDAT ??$_Ptr_cat@PAUWORMON@@PAU1@@std@@YA?AU_Nonscalar_ptr_iterator_tag@0@AAPAUWORMON@@0@Z
_TEXT	SEGMENT PARA USE32 PUBLIC 'CODE'
_TEXT	ENDS
;	COMDAT ??$_Destroy_range@UWORMON@@V?$allocator@UWORMON@@@std@@@std@@YAXPAUWORMON@@0AAV?$allocator@UWORMON@@@0@U_Nonscalar_ptr_iterator_tag@0@@Z
_TEXT	SEGMENT PARA USE32 PUBLIC 'CODE'
_TEXT	ENDS
;	COMDAT ??$_Ptr_cat@PAU__ITEMGAME@CMiniGame@@PAU12@@std@@YA?AU_Nonscalar_ptr_iterator_tag@0@AAPAU__ITEMGAME@CMiniGame@@0@Z
_TEXT	SEGMENT PARA USE32 PUBLIC 'CODE'
_TEXT	ENDS
;	COMDAT ??$_Destroy_range@U__ITEMGAME@CMiniGame@@V?$allocator@U__ITEMGAME@CMiniGame@@@std@@@std@@YAXPAU__ITEMGAME@CMiniGame@@0AAV?$allocator@U__ITEMGAME@CMiniGame@@@0@U_Nonscalar_ptr_iterator_tag@0@@Z
_TEXT	SEGMENT PARA USE32 PUBLIC 'CODE'
_TEXT	ENDS
;	COMDAT ??$_Destroy_range@KV?$allocator@K@std@@@std@@YAXPAK0AAV?$allocator@K@0@U_Scalar_ptr_iterator_tag@0@@Z
_TEXT	SEGMENT PARA USE32 PUBLIC 'CODE'
_TEXT	ENDS
;	COMDAT ??$_Destroy_range@HV?$allocator@H@std@@@std@@YAXPAH0AAV?$allocator@H@0@U_Scalar_ptr_iterator_tag@0@@Z
_TEXT	SEGMENT PARA USE32 PUBLIC 'CODE'
_TEXT	ENDS
;	COMDAT ??$_Ptr_cat@PAU__ITEM@CExchange@@PAU12@@std@@YA?AU_Nonscalar_ptr_iterator_tag@0@AAPAU__ITEM@CExchange@@0@Z
_TEXT	SEGMENT PARA USE32 PUBLIC 'CODE'
_TEXT	ENDS
;	COMDAT ??$_Destroy_range@U__ITEM@CExchange@@V?$allocator@U__ITEM@CExchange@@@std@@@std@@YAXPAU__ITEM@CExchange@@0AAV?$allocator@U__ITEM@CExchange@@@0@U_Nonscalar_ptr_iterator_tag@0@@Z
_TEXT	SEGMENT PARA USE32 PUBLIC 'CODE'
_TEXT	ENDS
;	COMDAT ??$_Ptr_cat@PAU__POINT@CExchange@@PAU12@@std@@YA?AU_Nonscalar_ptr_iterator_tag@0@AAPAU__POINT@CExchange@@0@Z
_TEXT	SEGMENT PARA USE32 PUBLIC 'CODE'
_TEXT	ENDS
;	COMDAT ??$_Destroy_range@U__POINT@CExchange@@V?$allocator@U__POINT@CExchange@@@std@@@std@@YAXPAU__POINT@CExchange@@0AAV?$allocator@U__POINT@CExchange@@@0@U_Nonscalar_ptr_iterator_tag@0@@Z
_TEXT	SEGMENT PARA USE32 PUBLIC 'CODE'
_TEXT	ENDS
;	COMDAT ??$_Destroy_range@EV?$allocator@E@std@@@std@@YAXPAE0AAV?$allocator@E@0@U_Scalar_ptr_iterator_tag@0@@Z
_TEXT	SEGMENT PARA USE32 PUBLIC 'CODE'
_TEXT	ENDS
;	COMDAT ??$_Uninitialized_copy@PAU__SPAWNREGION@CEventLua@@PAU12@V?$allocator@U__SPAWNREGION@CEventLua@@@std@@@std@@YAPAU__SPAWNREGION@CEventLua@@PAU12@00AAV?$allocator@U__SPAWNREGION@CEventLua@@@0@@Z
_TEXT	SEGMENT PARA USE32 PUBLIC 'CODE'
_TEXT	ENDS
;	COMDAT ??$_Copy_backward_opt@PAU__SPAWNREGION@CEventLua@@PAU12@@std@@YAPAU__SPAWNREGION@CEventLua@@PAU12@00U_Nonscalar_ptr_iterator_tag@0@@Z
_TEXT	SEGMENT PARA USE32 PUBLIC 'CODE'
_TEXT	ENDS
;	COMDAT ??$_Ptr_cat@PAUD3DXVECTOR3@@PAU1@@std@@YA?AU_Nonscalar_ptr_iterator_tag@0@AAPAUD3DXVECTOR3@@0@Z
_TEXT	SEGMENT PARA USE32 PUBLIC 'CODE'
_TEXT	ENDS
;	COMDAT ??$_Destroy_range@UD3DXVECTOR3@@V?$allocator@UD3DXVECTOR3@@@std@@@std@@YAXPAUD3DXVECTOR3@@0AAV?$allocator@UD3DXVECTOR3@@@0@U_Nonscalar_ptr_iterator_tag@0@@Z
_TEXT	SEGMENT PARA USE32 PUBLIC 'CODE'
_TEXT	ENDS
;	COMDAT ??$_Ptr_cat@PAU_GIFTBOX@@PAU1@@std@@YA?AU_Nonscalar_ptr_iterator_tag@0@AAPAU_GIFTBOX@@0@Z
_TEXT	SEGMENT PARA USE32 PUBLIC 'CODE'
_TEXT	ENDS
;	COMDAT ??$_Destroy_range@U_GIFTBOX@@V?$allocator@U_GIFTBOX@@@std@@@std@@YAXPAU_GIFTBOX@@0AAV?$allocator@U_GIFTBOX@@@0@U_Nonscalar_ptr_iterator_tag@0@@Z
_TEXT	SEGMENT PARA USE32 PUBLIC 'CODE'
_TEXT	ENDS
;	COMDAT ??$_Destroy_range@JV?$allocator@J@std@@@std@@YAXPAJ0AAV?$allocator@J@0@U_Scalar_ptr_iterator_tag@0@@Z
_TEXT	SEGMENT PARA USE32 PUBLIC 'CODE'
_TEXT	ENDS
;	COMDAT ??$_Uninit_fill_n@JIJ@std@@YAXPAJIABJAAV?$allocator@J@0@U_Scalar_ptr_iterator_tag@0@@Z
_TEXT	SEGMENT PARA USE32 PUBLIC 'CODE'
_TEXT	ENDS
;	COMDAT ??$_Destroy_range@U__SPAWNREGION@CEventLua@@V?$allocator@U__SPAWNREGION@CEventLua@@@std@@@std@@YAXPAU__SPAWNREGION@CEventLua@@0AAV?$allocator@U__SPAWNREGION@CEventLua@@@0@U_Nonscalar_ptr_iterator_tag@0@@Z
_TEXT	SEGMENT PARA USE32 PUBLIC 'CODE'
_TEXT	ENDS
;	COMDAT ??$copy@PAPAVCMail@@PAPAV1@@std@@YAPAPAVCMail@@PAPAV1@00@Z
_TEXT	SEGMENT PARA USE32 PUBLIC 'CODE'
_TEXT	ENDS
;	COMDAT ??$_Destroy_range@PAVCMail@@V?$allocator@PAVCMail@@@std@@@std@@YAXPAPAVCMail@@0AAV?$allocator@PAVCMail@@@0@@Z
_TEXT	SEGMENT PARA USE32 PUBLIC 'CODE'
_TEXT	ENDS
;	COMDAT ??$_Uninitialized_fill_n@PAPAVCMail@@IPAV1@V?$allocator@PAVCMail@@@std@@@std@@YAXPAPAVCMail@@IABQAV1@AAV?$allocator@PAVCMail@@@0@@Z
_TEXT	SEGMENT PARA USE32 PUBLIC 'CODE'
_TEXT	ENDS
;	COMDAT ??$?0PAUtagACTMSG@@@?$allocator@PAPAUtagACTMSG@@@std@@QAE@ABV?$allocator@PAUtagACTMSG@@@1@@Z
_TEXT	SEGMENT PARA USE32 PUBLIC 'CODE'
_TEXT	ENDS
;	COMDAT ??$_Destroy@PAPAUtagACTMSG@@@std@@YAXPAPAPAUtagACTMSG@@@Z
_TEXT	SEGMENT PARA USE32 PUBLIC 'CODE'
_TEXT	ENDS
;	COMDAT ??$?0PAUtagMAGICATKMSG@@@?$allocator@PAPAUtagMAGICATKMSG@@@std@@QAE@ABV?$allocator@PAUtagMAGICATKMSG@@@1@@Z
_TEXT	SEGMENT PARA USE32 PUBLIC 'CODE'
_TEXT	ENDS
;	COMDAT ??$_Destroy@PAPAUtagMAGICATKMSG@@@std@@YAXPAPAPAUtagMAGICATKMSG@@@Z
_TEXT	SEGMENT PARA USE32 PUBLIC 'CODE'
_TEXT	ENDS
;	COMDAT ??$_Ucopy@PAPAVCMail@@@?$vector@PAVCMail@@V?$allocator@PAVCMail@@@std@@@std@@IAEPAPAVCMail@@PAPAV2@00@Z
_TEXT	SEGMENT PARA USE32 PUBLIC 'CODE'
_TEXT	ENDS
;	COMDAT ??$fill@PAPAVCMail@@PAV1@@std@@YAXPAPAVCMail@@0ABQAV1@@Z
_TEXT	SEGMENT PARA USE32 PUBLIC 'CODE'
_TEXT	ENDS
;	COMDAT ??$copy_backward@PAPAVCMail@@PAPAV1@@std@@YAPAPAVCMail@@PAPAV1@00@Z
_TEXT	SEGMENT PARA USE32 PUBLIC 'CODE'
_TEXT	ENDS
;	COMDAT ??$_Allocate@PAVCMail@@@std@@YAPAPAVCMail@@IPAPAV1@@Z
_TEXT	SEGMENT PARA USE32 PUBLIC 'CODE'
_TEXT	ENDS
;	COMDAT ??$_Destroy@U_Node@?$_Tree_nod@V?$_Tmap_traits@KPAVCMailBox@@U?$less@K@std@@V?$allocator@U?$pair@$$CBKPAVCMailBox@@@std@@@3@$0A@@std@@@std@@@std@@YAXPAU_Node@?$_Tree_nod@V?$_Tmap_traits@KPAVCMailBox@@U?$less@K@std@@V?$allocator@U?$pair@$$CBKPAVCMailBox@@@std@@@3@$0A@@std@@@0@@Z
_TEXT	SEGMENT PARA USE32 PUBLIC 'CODE'
_TEXT	ENDS
;	COMDAT ??$_Destroy@PAU_Node@?$_Tree_nod@V?$_Tmap_traits@KPAVCMailBox@@U?$less@K@std@@V?$allocator@U?$pair@$$CBKPAVCMailBox@@@std@@@3@$0A@@std@@@std@@@std@@YAXPAPAU_Node@?$_Tree_nod@V?$_Tmap_traits@KPAVCMailBox@@U?$less@K@std@@V?$allocator@U?$pair@$$CBKPAVCMailBox@@@std@@@3@$0A@@std@@@0@@Z
_TEXT	SEGMENT PARA USE32 PUBLIC 'CODE'
_TEXT	ENDS
;	COMDAT ??$_Destroy@PAUtagACTMSG@@@std@@YAXPAPAUtagACTMSG@@@Z
_TEXT	SEGMENT PARA USE32 PUBLIC 'CODE'
_TEXT	ENDS
;	COMDAT ??$_Destroy@PAUtagMAGICATKMSG@@@std@@YAXPAPAUtagMAGICATKMSG@@@Z
_TEXT	SEGMENT PARA USE32 PUBLIC 'CODE'
_TEXT	ENDS
;	COMDAT ??$?0U?$pair@$$CBKPAVCMailBox@@@std@@@?$allocator@PAU_Node@?$_Tree_nod@V?$_Tmap_traits@KPAVCMailBox@@U?$less@K@std@@V?$allocator@U?$pair@$$CBKPAVCMailBox@@@std@@@3@$0A@@std@@@std@@@std@@QAE@ABV?$allocator@U?$pair@$$CBKPAVCMailBox@@@std@@@1@@Z
_TEXT	SEGMENT PARA USE32 PUBLIC 'CODE'
_TEXT	ENDS
;	COMDAT ??$_Allocate@U_Node@?$_Tree_nod@V?$_Tmap_traits@KPAVCMailBox@@U?$less@K@std@@V?$allocator@U?$pair@$$CBKPAVCMailBox@@@std@@@3@$0A@@std@@@std@@@std@@YAPAU_Node@?$_Tree_nod@V?$_Tmap_traits@KPAVCMailBox@@U?$less@K@std@@V?$allocator@U?$pair@$$CBKPAVCMailBox@@@std@@@3@$0A@@std@@@0@IPAU120@@Z
_TEXT	SEGMENT PARA USE32 PUBLIC 'CODE'
_TEXT	ENDS
;	COMDAT ??$?0U?$pair@$$CBKPAVCMailBox@@@std@@@?$allocator@U_Node@?$_Tree_nod@V?$_Tmap_traits@KPAVCMailBox@@U?$less@K@std@@V?$allocator@U?$pair@$$CBKPAVCMailBox@@@std@@@3@$0A@@std@@@std@@@std@@QAE@ABV?$allocator@U?$pair@$$CBKPAVCMailBox@@@std@@@1@@Z
_TEXT	SEGMENT PARA USE32 PUBLIC 'CODE'
_TEXT	ENDS
;	COMDAT ??$_Construct@PAU_Node@?$_Tree_nod@V?$_Tmap_traits@KPAVCMailBox@@U?$less@K@std@@V?$allocator@U?$pair@$$CBKPAVCMailBox@@@std@@@3@$0A@@std@@@std@@PAU123@@std@@YAXPAPAU_Node@?$_Tree_nod@V?$_Tmap_traits@KPAVCMailBox@@U?$less@K@std@@V?$allocator@U?$pair@$$CBKPAVCMailBox@@@std@@@3@$0A@@std@@@0@ABQAU120@@Z
_TEXT	SEGMENT PARA USE32 PUBLIC 'CODE'
_TEXT	ENDS
;	COMDAT ?destroy@?$allocator@UtagDROPITEM@@@std@@QAEXPAUtagDROPITEM@@@Z
_TEXT	SEGMENT PARA USE32 PUBLIC 'CODE'
_TEXT	ENDS
;	COMDAT ?destroy@?$allocator@UWORMON@@@std@@QAEXPAUWORMON@@@Z
_TEXT	SEGMENT PARA USE32 PUBLIC 'CODE'
_TEXT	ENDS
;	COMDAT ?destroy@?$allocator@U__ITEMGAME@CMiniGame@@@std@@QAEXPAU__ITEMGAME@CMiniGame@@@Z
_TEXT	SEGMENT PARA USE32 PUBLIC 'CODE'
_TEXT	ENDS
;	COMDAT ?destroy@?$allocator@U__ITEM@CExchange@@@std@@QAEXPAU__ITEM@CExchange@@@Z
_TEXT	SEGMENT PARA USE32 PUBLIC 'CODE'
_TEXT	ENDS
;	COMDAT ?destroy@?$allocator@U__POINT@CExchange@@@std@@QAEXPAU__POINT@CExchange@@@Z
_TEXT	SEGMENT PARA USE32 PUBLIC 'CODE'
_TEXT	ENDS
;	COMDAT ?begin@?$vector@EV?$allocator@E@std@@@std@@QAE?AViterator@12@XZ
_TEXT	SEGMENT PARA USE32 PUBLIC 'CODE'
_TEXT	ENDS
;	COMDAT ?end@?$vector@EV?$allocator@E@std@@@std@@QAE?AViterator@12@XZ
_TEXT	SEGMENT PARA USE32 PUBLIC 'CODE'
_TEXT	ENDS
;	COMDAT ?erase@?$vector@EV?$allocator@E@std@@@std@@QAE?AViterator@12@V312@0@Z
_TEXT	SEGMENT PARA USE32 PUBLIC 'CODE'
_TEXT	ENDS
;	COMDAT ?construct@?$allocator@U__SPAWNREGION@CEventLua@@@std@@QAEXPAU__SPAWNREGION@CEventLua@@ABU34@@Z
_TEXT	SEGMENT PARA USE32 PUBLIC 'CODE'
_TEXT	ENDS
;	COMDAT ?destroy@?$allocator@U__SPAWNREGION@CEventLua@@@std@@QAEXPAU__SPAWNREGION@CEventLua@@@Z
_TEXT	SEGMENT PARA USE32 PUBLIC 'CODE'
_TEXT	ENDS
;	COMDAT ?destroy@?$allocator@UD3DXVECTOR3@@@std@@QAEXPAUD3DXVECTOR3@@@Z
_TEXT	SEGMENT PARA USE32 PUBLIC 'CODE'
_TEXT	ENDS
;	COMDAT ?destroy@?$allocator@U_GIFTBOX@@@std@@QAEXPAU_GIFTBOX@@@Z
_TEXT	SEGMENT PARA USE32 PUBLIC 'CODE'
_TEXT	ENDS
;	COMDAT ??9const_iterator@?$vector@EV?$allocator@E@std@@@std@@QBE_NABV012@@Z
_TEXT	SEGMENT PARA USE32 PUBLIC 'CODE'
_TEXT	ENDS
;	COMDAT ??0iterator@?$vector@EV?$allocator@E@std@@@std@@QAE@PAE@Z
_TEXT	SEGMENT PARA USE32 PUBLIC 'CODE'
_TEXT	ENDS
;	COMDAT ??8const_iterator@?$vector@EV?$allocator@E@std@@@std@@QBE_NABV012@@Z
_TEXT	SEGMENT PARA USE32 PUBLIC 'CODE'
_TEXT	ENDS
;	COMDAT ??$insert@Vconst_iterator@?$vector@EV?$allocator@E@std@@@std@@@?$vector@EV?$allocator@E@std@@@std@@QAEXViterator@01@Vconst_iterator@01@1@Z
_TEXT	SEGMENT PARA USE32 PUBLIC 'CODE'
_TEXT	ENDS
;	COMDAT ??$_Ptr_cat@Vconst_iterator@?$vector@EV?$allocator@E@std@@@std@@PAE@std@@YA?AU_Nonscalar_ptr_iterator_tag@0@AAVconst_iterator@?$vector@EV?$allocator@E@std@@@0@AAPAE@Z
_TEXT	SEGMENT PARA USE32 PUBLIC 'CODE'
_TEXT	ENDS
;	COMDAT ??$_Uninit_copy@Vconst_iterator@?$vector@EV?$allocator@E@std@@@std@@PAEV?$allocator@E@3@@std@@YAPAEVconst_iterator@?$vector@EV?$allocator@E@std@@@0@0PAEAAV?$allocator@E@0@U_Nonscalar_ptr_iterator_tag@0@@Z
_TEXT	SEGMENT PARA USE32 PUBLIC 'CODE'
_TEXT	ENDS
;	COMDAT ??$_Uninit_copy@JJ@std@@YAPAJPAJ00AAV?$allocator@J@0@U_Scalar_ptr_iterator_tag@0@@Z
_TEXT	SEGMENT PARA USE32 PUBLIC 'CODE'
_TEXT	ENDS
;	COMDAT ??$_Uninit_copy@PAU__SPAWNREGION@CEventLua@@PAU12@V?$allocator@U__SPAWNREGION@CEventLua@@@std@@@std@@YAPAU__SPAWNREGION@CEventLua@@PAU12@00AAV?$allocator@U__SPAWNREGION@CEventLua@@@0@U_Nonscalar_ptr_iterator_tag@0@@Z
_TEXT	SEGMENT PARA USE32 PUBLIC 'CODE'
_TEXT	ENDS
;	COMDAT ??$fill_n@PAJIJ@std@@YAXPAJIABJ@Z
_TEXT	SEGMENT PARA USE32 PUBLIC 'CODE'
_TEXT	ENDS
;	COMDAT ??$_Ptr_cat@VCMail@@@std@@YA?AU_Scalar_ptr_iterator_tag@0@PAPAVCMail@@0@Z
_TEXT	SEGMENT PARA USE32 PUBLIC 'CODE'
_TEXT	ENDS
;	COMDAT ??$_Copy_opt@PAPAVCMail@@PAPAV1@@std@@YAPAPAVCMail@@PAPAV1@00U_Scalar_ptr_iterator_tag@0@@Z
_TEXT	SEGMENT PARA USE32 PUBLIC 'CODE'
_TEXT	ENDS
;	COMDAT ??$_Destroy_range@PAVCMail@@V?$allocator@PAVCMail@@@std@@@std@@YAXPAPAVCMail@@0AAV?$allocator@PAVCMail@@@0@U_Scalar_ptr_iterator_tag@0@@Z
_TEXT	SEGMENT PARA USE32 PUBLIC 'CODE'
_TEXT	ENDS
;	COMDAT ??$_Uninit_fill_n@PAVCMail@@IPAV1@@std@@YAXPAPAVCMail@@IABQAV1@AAV?$allocator@PAVCMail@@@0@U_Scalar_ptr_iterator_tag@0@@Z
_TEXT	SEGMENT PARA USE32 PUBLIC 'CODE'
_TEXT	ENDS
;	COMDAT ??$_Uninitialized_copy@PAPAVCMail@@PAPAV1@V?$allocator@PAVCMail@@@std@@@std@@YAPAPAVCMail@@PAPAV1@00AAV?$allocator@PAVCMail@@@0@@Z
_TEXT	SEGMENT PARA USE32 PUBLIC 'CODE'
_TEXT	ENDS
;	COMDAT ??$_Copy_backward_opt@PAPAVCMail@@PAPAV1@@std@@YAPAPAVCMail@@PAPAV1@00U_Scalar_ptr_iterator_tag@0@@Z
_TEXT	SEGMENT PARA USE32 PUBLIC 'CODE'
_TEXT	ENDS
;	COMDAT ??$_Destroy@UtagDROPITEM@@@std@@YAXPAUtagDROPITEM@@@Z
_TEXT	SEGMENT PARA USE32 PUBLIC 'CODE'
_TEXT	ENDS
;	COMDAT ??$_Destroy@UWORMON@@@std@@YAXPAUWORMON@@@Z
_TEXT	SEGMENT PARA USE32 PUBLIC 'CODE'
_TEXT	ENDS
;	COMDAT ??$_Destroy@U__ITEMGAME@CMiniGame@@@std@@YAXPAU__ITEMGAME@CMiniGame@@@Z
_TEXT	SEGMENT PARA USE32 PUBLIC 'CODE'
_TEXT	ENDS
;	COMDAT ??$_Destroy@U__ITEM@CExchange@@@std@@YAXPAU__ITEM@CExchange@@@Z
_TEXT	SEGMENT PARA USE32 PUBLIC 'CODE'
_TEXT	ENDS
;	COMDAT ??$_Destroy@U__POINT@CExchange@@@std@@YAXPAU__POINT@CExchange@@@Z
_TEXT	SEGMENT PARA USE32 PUBLIC 'CODE'
_TEXT	ENDS
;	COMDAT ??$copy@PAEPAE@std@@YAPAEPAE00@Z
_TEXT	SEGMENT PARA USE32 PUBLIC 'CODE'
_TEXT	ENDS
;	COMDAT ??$_Construct@U__SPAWNREGION@CEventLua@@U12@@std@@YAXPAU__SPAWNREGION@CEventLua@@ABU12@@Z
_TEXT	SEGMENT PARA USE32 PUBLIC 'CODE'
_TEXT	ENDS
;	COMDAT ??$_Destroy@U__SPAWNREGION@CEventLua@@@std@@YAXPAU__SPAWNREGION@CEventLua@@@Z
_TEXT	SEGMENT PARA USE32 PUBLIC 'CODE'
_TEXT	ENDS
;	COMDAT ??$_Destroy@UD3DXVECTOR3@@@std@@YAXPAUD3DXVECTOR3@@@Z
_TEXT	SEGMENT PARA USE32 PUBLIC 'CODE'
_TEXT	ENDS
;	COMDAT ??$_Destroy@U_GIFTBOX@@@std@@YAXPAU_GIFTBOX@@@Z
_TEXT	SEGMENT PARA USE32 PUBLIC 'CODE'
_TEXT	ENDS
;	COMDAT ?construct@?$allocator@E@std@@QAEXPAEABE@Z
_TEXT	SEGMENT PARA USE32 PUBLIC 'CODE'
_TEXT	ENDS
;	COMDAT ?destroy@?$allocator@E@std@@QAEXPAE@Z
_TEXT	SEGMENT PARA USE32 PUBLIC 'CODE'
_TEXT	ENDS
;	COMDAT ??Dconst_iterator@?$vector@EV?$allocator@E@std@@@std@@QBEABEXZ
_TEXT	SEGMENT PARA USE32 PUBLIC 'CODE'
_TEXT	ENDS
;	COMDAT ??Econst_iterator@?$vector@EV?$allocator@E@std@@@std@@QAEAAV012@XZ
_TEXT	SEGMENT PARA USE32 PUBLIC 'CODE'
_TEXT	ENDS
;	COMDAT ??$_Insert@Vconst_iterator@?$vector@EV?$allocator@E@std@@@std@@@?$vector@EV?$allocator@E@std@@@std@@QAEXViterator@01@Vconst_iterator@01@1Uforward_iterator_tag@1@@Z
_TEXT	SEGMENT PARA USE32 PUBLIC 'CODE'
_TEXT	ENDS
;	COMDAT ??$fill_n@PAPAVCMail@@IPAV1@@std@@YAXPAPAVCMail@@IABQAV1@@Z
_TEXT	SEGMENT PARA USE32 PUBLIC 'CODE'
_TEXT	ENDS
;	COMDAT ??$_Uninit_copy@PAVCMail@@PAV1@@std@@YAPAPAVCMail@@PAPAV1@00AAV?$allocator@PAVCMail@@@0@U_Scalar_ptr_iterator_tag@0@@Z
_TEXT	SEGMENT PARA USE32 PUBLIC 'CODE'
_TEXT	ENDS
;	COMDAT ??$_Copy_opt@PAEPAE@std@@YAPAEPAE00U_Scalar_ptr_iterator_tag@0@@Z
_TEXT	SEGMENT PARA USE32 PUBLIC 'CODE'
_TEXT	ENDS
;	COMDAT ??$_Construct@EE@std@@YAXPAEABE@Z
_TEXT	SEGMENT PARA USE32 PUBLIC 'CODE'
_TEXT	ENDS
;	COMDAT ??$_Destroy@E@std@@YAXPAE@Z
_TEXT	SEGMENT PARA USE32 PUBLIC 'CODE'
_TEXT	ENDS
;	COMDAT ?capacity@?$vector@EV?$allocator@E@std@@@std@@QBEIXZ
_TEXT	SEGMENT PARA USE32 PUBLIC 'CODE'
_TEXT	ENDS
;	COMDAT ??Giterator@?$vector@EV?$allocator@E@std@@@std@@QBEHABVconst_iterator@12@@Z
_TEXT	SEGMENT PARA USE32 PUBLIC 'CODE'
_TEXT	ENDS
;	COMDAT ??Gconst_iterator@?$vector@EV?$allocator@E@std@@@std@@QBEHABV012@@Z
_TEXT	SEGMENT PARA USE32 PUBLIC 'CODE'
_TEXT	ENDS
;	COMDAT ??$_Distance@Vconst_iterator@?$vector@EV?$allocator@E@std@@@std@@I@std@@YAXVconst_iterator@?$vector@EV?$allocator@E@std@@@0@0AAI@Z
_TEXT	SEGMENT PARA USE32 PUBLIC 'CODE'
_TEXT	ENDS
;	COMDAT ??$_Ucopy@PAE@?$vector@EV?$allocator@E@std@@@std@@IAEPAEPAE00@Z
_TEXT	SEGMENT PARA USE32 PUBLIC 'CODE'
_TEXT	ENDS
;	COMDAT ??$advance@Vconst_iterator@?$vector@EV?$allocator@E@std@@@std@@H@std@@YAXAAVconst_iterator@?$vector@EV?$allocator@E@std@@@0@H@Z
_TEXT	SEGMENT PARA USE32 PUBLIC 'CODE'
_TEXT	ENDS
;	COMDAT ??$copy@Vconst_iterator@?$vector@EV?$allocator@E@std@@@std@@PAE@std@@YAPAEVconst_iterator@?$vector@EV?$allocator@E@std@@@0@0PAE@Z
_TEXT	SEGMENT PARA USE32 PUBLIC 'CODE'
_TEXT	ENDS
;	COMDAT ??$copy_backward@PAEPAE@std@@YAPAEPAE00@Z
_TEXT	SEGMENT PARA USE32 PUBLIC 'CODE'
_TEXT	ENDS
;	COMDAT ??$_Distance2@Vconst_iterator@?$vector@EV?$allocator@E@std@@@std@@I@std@@YAXVconst_iterator@?$vector@EV?$allocator@E@std@@@0@0AAIUrandom_access_iterator_tag@0@@Z
_TEXT	SEGMENT PARA USE32 PUBLIC 'CODE'
_TEXT	ENDS
;	COMDAT ??$_Uninitialized_copy@PAEPAEV?$allocator@E@std@@@std@@YAPAEPAE00AAV?$allocator@E@0@@Z
_TEXT	SEGMENT PARA USE32 PUBLIC 'CODE'
_TEXT	ENDS
;	COMDAT ??$_Advance@Vconst_iterator@?$vector@EV?$allocator@E@std@@@std@@H@std@@YAXAAVconst_iterator@?$vector@EV?$allocator@E@std@@@0@HUrandom_access_iterator_tag@0@@Z
_TEXT	SEGMENT PARA USE32 PUBLIC 'CODE'
_TEXT	ENDS
;	COMDAT ??$_Copy_opt@Vconst_iterator@?$vector@EV?$allocator@E@std@@@std@@PAE@std@@YAPAEVconst_iterator@?$vector@EV?$allocator@E@std@@@0@0PAEU_Nonscalar_ptr_iterator_tag@0@@Z
_TEXT	SEGMENT PARA USE32 PUBLIC 'CODE'
_TEXT	ENDS
;	COMDAT ??$_Copy_backward_opt@PAEPAE@std@@YAPAEPAE00U_Scalar_ptr_iterator_tag@0@@Z
_TEXT	SEGMENT PARA USE32 PUBLIC 'CODE'
_TEXT	ENDS
;	COMDAT ??Yconst_iterator@?$vector@EV?$allocator@E@std@@@std@@QAEAAV012@H@Z
_TEXT	SEGMENT PARA USE32 PUBLIC 'CODE'
_TEXT	ENDS
;	COMDAT ??$_Uninit_copy@EE@std@@YAPAEPAE00AAV?$allocator@E@0@U_Scalar_ptr_iterator_tag@0@@Z
_TEXT	SEGMENT PARA USE32 PUBLIC 'CODE'
_TEXT	ENDS
;	COMDAT ?deallocate@?$allocator@E@std@@QAEXPAEI@Z
_TEXT	SEGMENT PARA USE32 PUBLIC 'CODE'
_TEXT	ENDS
;	COMDAT ??$_Ucopy@Vconst_iterator@?$vector@EV?$allocator@E@std@@@std@@@?$vector@EV?$allocator@E@std@@@std@@IAEPAEVconst_iterator@01@0PAE@Z
_TEXT	SEGMENT PARA USE32 PUBLIC 'CODE'
_TEXT	ENDS
;	COMDAT ?allocate@?$allocator@E@std@@QAEPAEI@Z
_TEXT	SEGMENT PARA USE32 PUBLIC 'CODE'
_TEXT	ENDS
;	COMDAT ??$_Allocate@E@std@@YAPAEIPAE@Z
_TEXT	SEGMENT PARA USE32 PUBLIC 'CODE'
_TEXT	ENDS
;	COMDAT ?_Xlen@?$vector@EV?$allocator@E@std@@@std@@IBEXXZ
_TEXT	SEGMENT PARA USE32 PUBLIC 'CODE'
_TEXT	ENDS
;	COMDAT ?size@?$vector@EV?$allocator@E@std@@@std@@QBEIXZ
_TEXT	SEGMENT PARA USE32 PUBLIC 'CODE'
_TEXT	ENDS
;	COMDAT ?max_size@?$vector@EV?$allocator@E@std@@@std@@QBEIXZ
_TEXT	SEGMENT PARA USE32 PUBLIC 'CODE'
_TEXT	ENDS
;	COMDAT ?max_size@?$allocator@E@std@@QBEIXZ
_TEXT	SEGMENT PARA USE32 PUBLIC 'CODE'
_TEXT	ENDS
;	COMDAT ?_Ptr_cat@std@@YA?AU_Scalar_ptr_iterator_tag@1@PAE0@Z
_TEXT	SEGMENT PARA USE32 PUBLIC 'CODE'
_TEXT	ENDS
;	COMDAT ??0const_iterator@?$vector@EV?$allocator@E@std@@@std@@QAE@PAE@Z
_TEXT	SEGMENT PARA USE32 PUBLIC 'CODE'
_TEXT	ENDS
;	COMDAT ?_Destroy@?$vector@EV?$allocator@E@std@@@std@@IAEXPAE0@Z
_TEXT	SEGMENT PARA USE32 PUBLIC 'CODE'
_TEXT	ENDS
;	COMDAT ??$_Destroy_range@EV?$allocator@E@std@@@std@@YAXPAE0AAV?$allocator@E@0@@Z
_TEXT	SEGMENT PARA USE32 PUBLIC 'CODE'
_TEXT	ENDS
;	COMDAT ?_Ptr_cat@std@@YA?AU_Scalar_ptr_iterator_tag@1@PAJ0@Z
_TEXT	SEGMENT PARA USE32 PUBLIC 'CODE'
_TEXT	ENDS
;	COMDAT ??9const_iterator@?$_Tree@V?$_Tmap_traits@KEU?$less@K@std@@V?$allocator@U?$pair@$$CBKE@std@@@2@$0A@@std@@@std@@QBE_NABV012@@Z
_TEXT	SEGMENT PARA USE32 PUBLIC 'CODE'
_TEXT	ENDS
;	COMDAT ??8const_iterator@?$_Tree@V?$_Tmap_traits@KEU?$less@K@std@@V?$allocator@U?$pair@$$CBKE@std@@@2@$0A@@std@@@std@@QBE_NABV012@@Z
_TEXT	SEGMENT PARA USE32 PUBLIC 'CODE'
_TEXT	ENDS
;	COMDAT ??Eiterator@?$_Tree@V?$_Tmap_traits@KEU?$less@K@std@@V?$allocator@U?$pair@$$CBKE@std@@@2@$0A@@std@@@std@@QAEAAV012@XZ
_TEXT	SEGMENT PARA USE32 PUBLIC 'CODE'
_TEXT	ENDS
;	COMDAT ??Econst_iterator@?$_Tree@V?$_Tmap_traits@KEU?$less@K@std@@V?$allocator@U?$pair@$$CBKE@std@@@2@$0A@@std@@@std@@QAEAAV012@XZ
_TEXT	SEGMENT PARA USE32 PUBLIC 'CODE'
_TEXT	ENDS
;	COMDAT ?_Inc@const_iterator@?$_Tree@V?$_Tmap_traits@KEU?$less@K@std@@V?$allocator@U?$pair@$$CBKE@std@@@2@$0A@@std@@@std@@QAEXXZ
_TEXT	SEGMENT PARA USE32 PUBLIC 'CODE'
_TEXT	ENDS
;	COMDAT ?_Min@?$_Tree@V?$_Tmap_traits@KEU?$less@K@std@@V?$allocator@U?$pair@$$CBKE@std@@@2@$0A@@std@@@std@@KAPAU_Node@?$_Tree_nod@V?$_Tmap_traits@KEU?$less@K@std@@V?$allocator@U?$pair@$$CBKE@std@@@2@$0A@@std@@@2@PAU342@@Z
_TEXT	SEGMENT PARA USE32 PUBLIC 'CODE'
_TEXT	ENDS
;	COMDAT ?_Left@?$_Tree@V?$_Tmap_traits@KEU?$less@K@std@@V?$allocator@U?$pair@$$CBKE@std@@@2@$0A@@std@@@std@@KAAAPAU_Node@?$_Tree_nod@V?$_Tmap_traits@KEU?$less@K@std@@V?$allocator@U?$pair@$$CBKE@std@@@2@$0A@@std@@@2@PAU342@@Z
_TEXT	SEGMENT PARA USE32 PUBLIC 'CODE'
_TEXT	ENDS
;	COMDAT ?_Isnil@?$_Tree@V?$_Tmap_traits@KEU?$less@K@std@@V?$allocator@U?$pair@$$CBKE@std@@@2@$0A@@std@@@std@@KAAADPAU_Node@?$_Tree_nod@V?$_Tmap_traits@KEU?$less@K@std@@V?$allocator@U?$pair@$$CBKE@std@@@2@$0A@@std@@@2@@Z
_TEXT	SEGMENT PARA USE32 PUBLIC 'CODE'
_TEXT	ENDS
;	COMDAT ?_Parent@?$_Tree@V?$_Tmap_traits@KEU?$less@K@std@@V?$allocator@U?$pair@$$CBKE@std@@@2@$0A@@std@@@std@@KAAAPAU_Node@?$_Tree_nod@V?$_Tmap_traits@KEU?$less@K@std@@V?$allocator@U?$pair@$$CBKE@std@@@2@$0A@@std@@@2@PAU342@@Z
_TEXT	SEGMENT PARA USE32 PUBLIC 'CODE'
_TEXT	ENDS
;	COMDAT ?_Right@?$_Tree@V?$_Tmap_traits@KEU?$less@K@std@@V?$allocator@U?$pair@$$CBKE@std@@@2@$0A@@std@@@std@@KAAAPAU_Node@?$_Tree_nod@V?$_Tmap_traits@KEU?$less@K@std@@V?$allocator@U?$pair@$$CBKE@std@@@2@$0A@@std@@@2@PAU342@@Z
_TEXT	SEGMENT PARA USE32 PUBLIC 'CODE'
_TEXT	ENDS
;	COMDAT ??9const_iterator@?$_Tree@V?$_Tmap_traits@KPAVCCtrl@@U?$less@K@std@@V?$allocator@U?$pair@$$CBKPAVCCtrl@@@std@@@3@$0A@@std@@@std@@QBE_NABV012@@Z
_TEXT	SEGMENT PARA USE32 PUBLIC 'CODE'
_TEXT	ENDS
;	COMDAT ??8const_iterator@?$_Tree@V?$_Tmap_traits@KPAVCCtrl@@U?$less@K@std@@V?$allocator@U?$pair@$$CBKPAVCCtrl@@@std@@@3@$0A@@std@@@std@@QBE_NABV012@@Z
_TEXT	SEGMENT PARA USE32 PUBLIC 'CODE'
_TEXT	ENDS
;	COMDAT ??Eiterator@?$_Tree@V?$_Tmap_traits@KPAVCCtrl@@U?$less@K@std@@V?$allocator@U?$pair@$$CBKPAVCCtrl@@@std@@@3@$0A@@std@@@std@@QAEAAV012@XZ
_TEXT	SEGMENT PARA USE32 PUBLIC 'CODE'
_TEXT	ENDS
;	COMDAT ??Econst_iterator@?$_Tree@V?$_Tmap_traits@KPAVCCtrl@@U?$less@K@std@@V?$allocator@U?$pair@$$CBKPAVCCtrl@@@std@@@3@$0A@@std@@@std@@QAEAAV012@XZ
_TEXT	SEGMENT PARA USE32 PUBLIC 'CODE'
_TEXT	ENDS
;	COMDAT ?_Inc@const_iterator@?$_Tree@V?$_Tmap_traits@KPAVCCtrl@@U?$less@K@std@@V?$allocator@U?$pair@$$CBKPAVCCtrl@@@std@@@3@$0A@@std@@@std@@QAEXXZ
_TEXT	SEGMENT PARA USE32 PUBLIC 'CODE'
_TEXT	ENDS
;	COMDAT ?_Min@?$_Tree@V?$_Tmap_traits@KPAVCCtrl@@U?$less@K@std@@V?$allocator@U?$pair@$$CBKPAVCCtrl@@@std@@@3@$0A@@std@@@std@@KAPAU_Node@?$_Tree_nod@V?$_Tmap_traits@KPAVCCtrl@@U?$less@K@std@@V?$allocator@U?$pair@$$CBKPAVCCtrl@@@std@@@3@$0A@@std@@@2@PAU342@@Z
_TEXT	SEGMENT PARA USE32 PUBLIC 'CODE'
_TEXT	ENDS
;	COMDAT ?_Left@?$_Tree@V?$_Tmap_traits@KPAVCCtrl@@U?$less@K@std@@V?$allocator@U?$pair@$$CBKPAVCCtrl@@@std@@@3@$0A@@std@@@std@@KAAAPAU_Node@?$_Tree_nod@V?$_Tmap_traits@KPAVCCtrl@@U?$less@K@std@@V?$allocator@U?$pair@$$CBKPAVCCtrl@@@std@@@3@$0A@@std@@@2@PAU342@@Z
_TEXT	SEGMENT PARA USE32 PUBLIC 'CODE'
_TEXT	ENDS
;	COMDAT ?_Isnil@?$_Tree@V?$_Tmap_traits@KPAVCCtrl@@U?$less@K@std@@V?$allocator@U?$pair@$$CBKPAVCCtrl@@@std@@@3@$0A@@std@@@std@@KAAADPAU_Node@?$_Tree_nod@V?$_Tmap_traits@KPAVCCtrl@@U?$less@K@std@@V?$allocator@U?$pair@$$CBKPAVCCtrl@@@std@@@3@$0A@@std@@@2@@Z
_TEXT	SEGMENT PARA USE32 PUBLIC 'CODE'
_TEXT	ENDS
;	COMDAT ?_Parent@?$_Tree@V?$_Tmap_traits@KPAVCCtrl@@U?$less@K@std@@V?$allocator@U?$pair@$$CBKPAVCCtrl@@@std@@@3@$0A@@std@@@std@@KAAAPAU_Node@?$_Tree_nod@V?$_Tmap_traits@KPAVCCtrl@@U?$less@K@std@@V?$allocator@U?$pair@$$CBKPAVCCtrl@@@std@@@3@$0A@@std@@@2@PAU342@@Z
_TEXT	SEGMENT PARA USE32 PUBLIC 'CODE'
_TEXT	ENDS
;	COMDAT ?_Right@?$_Tree@V?$_Tmap_traits@KPAVCCtrl@@U?$less@K@std@@V?$allocator@U?$pair@$$CBKPAVCCtrl@@@std@@@3@$0A@@std@@@std@@KAAAPAU_Node@?$_Tree_nod@V?$_Tmap_traits@KPAVCCtrl@@U?$less@K@std@@V?$allocator@U?$pair@$$CBKPAVCCtrl@@@std@@@3@$0A@@std@@@2@PAU342@@Z
_TEXT	SEGMENT PARA USE32 PUBLIC 'CODE'
_TEXT	ENDS
;	COMDAT ??9const_iterator@?$_Tree@V?$_Tmap_traits@KPAVCUser@@U?$less@K@std@@V?$allocator@U?$pair@$$CBKPAVCUser@@@std@@@3@$0A@@std@@@std@@QBE_NABV012@@Z
_TEXT	SEGMENT PARA USE32 PUBLIC 'CODE'
_TEXT	ENDS
;	COMDAT ??8const_iterator@?$_Tree@V?$_Tmap_traits@KPAVCUser@@U?$less@K@std@@V?$allocator@U?$pair@$$CBKPAVCUser@@@std@@@3@$0A@@std@@@std@@QBE_NABV012@@Z
_TEXT	SEGMENT PARA USE32 PUBLIC 'CODE'
_TEXT	ENDS
;	COMDAT ??Eiterator@?$_Tree@V?$_Tmap_traits@KPAVCUser@@U?$less@K@std@@V?$allocator@U?$pair@$$CBKPAVCUser@@@std@@@3@$0A@@std@@@std@@QAEAAV012@XZ
_TEXT	SEGMENT PARA USE32 PUBLIC 'CODE'
_TEXT	ENDS
;	COMDAT ??Econst_iterator@?$_Tree@V?$_Tmap_traits@KPAVCUser@@U?$less@K@std@@V?$allocator@U?$pair@$$CBKPAVCUser@@@std@@@3@$0A@@std@@@std@@QAEAAV012@XZ
_TEXT	SEGMENT PARA USE32 PUBLIC 'CODE'
_TEXT	ENDS
;	COMDAT ?_Inc@const_iterator@?$_Tree@V?$_Tmap_traits@KPAVCUser@@U?$less@K@std@@V?$allocator@U?$pair@$$CBKPAVCUser@@@std@@@3@$0A@@std@@@std@@QAEXXZ
_TEXT	SEGMENT PARA USE32 PUBLIC 'CODE'
_TEXT	ENDS
;	COMDAT ?_Min@?$_Tree@V?$_Tmap_traits@KPAVCUser@@U?$less@K@std@@V?$allocator@U?$pair@$$CBKPAVCUser@@@std@@@3@$0A@@std@@@std@@KAPAU_Node@?$_Tree_nod@V?$_Tmap_traits@KPAVCUser@@U?$less@K@std@@V?$allocator@U?$pair@$$CBKPAVCUser@@@std@@@3@$0A@@std@@@2@PAU342@@Z
_TEXT	SEGMENT PARA USE32 PUBLIC 'CODE'
_TEXT	ENDS
;	COMDAT ?_Left@?$_Tree@V?$_Tmap_traits@KPAVCUser@@U?$less@K@std@@V?$allocator@U?$pair@$$CBKPAVCUser@@@std@@@3@$0A@@std@@@std@@KAAAPAU_Node@?$_Tree_nod@V?$_Tmap_traits@KPAVCUser@@U?$less@K@std@@V?$allocator@U?$pair@$$CBKPAVCUser@@@std@@@3@$0A@@std@@@2@PAU342@@Z
_TEXT	SEGMENT PARA USE32 PUBLIC 'CODE'
_TEXT	ENDS
;	COMDAT ?_Isnil@?$_Tree@V?$_Tmap_traits@KPAVCUser@@U?$less@K@std@@V?$allocator@U?$pair@$$CBKPAVCUser@@@std@@@3@$0A@@std@@@std@@KAAADPAU_Node@?$_Tree_nod@V?$_Tmap_traits@KPAVCUser@@U?$less@K@std@@V?$allocator@U?$pair@$$CBKPAVCUser@@@std@@@3@$0A@@std@@@2@@Z
_TEXT	SEGMENT PARA USE32 PUBLIC 'CODE'
_TEXT	ENDS
;	COMDAT ?_Parent@?$_Tree@V?$_Tmap_traits@KPAVCUser@@U?$less@K@std@@V?$allocator@U?$pair@$$CBKPAVCUser@@@std@@@3@$0A@@std@@@std@@KAAAPAU_Node@?$_Tree_nod@V?$_Tmap_traits@KPAVCUser@@U?$less@K@std@@V?$allocator@U?$pair@$$CBKPAVCUser@@@std@@@3@$0A@@std@@@2@PAU342@@Z
_TEXT	SEGMENT PARA USE32 PUBLIC 'CODE'
_TEXT	ENDS
;	COMDAT ?_Right@?$_Tree@V?$_Tmap_traits@KPAVCUser@@U?$less@K@std@@V?$allocator@U?$pair@$$CBKPAVCUser@@@std@@@3@$0A@@std@@@std@@KAAAPAU_Node@?$_Tree_nod@V?$_Tmap_traits@KPAVCUser@@U?$less@K@std@@V?$allocator@U?$pair@$$CBKPAVCUser@@@std@@@3@$0A@@std@@@2@PAU342@@Z
_TEXT	SEGMENT PARA USE32 PUBLIC 'CODE'
_TEXT	ENDS
;	COMDAT ?_Psave@?$_Facetptr@V?$ctype@G@std@@@std@@2PBVfacet@locale@2@B
_DATA	SEGMENT DWORD USE32 PUBLIC 'DATA'
_DATA	ENDS
;	COMDAT ?_Psave@?$_Facetptr@V?$ctype@D@std@@@std@@2PBVfacet@locale@2@B
_DATA	SEGMENT DWORD USE32 PUBLIC 'DATA'
_DATA	ENDS
;	COMDAT ??$swap@D@std@@YAXAAD0@Z
_TEXT	SEGMENT PARA USE32 PUBLIC 'CODE'
_TEXT	ENDS
;	COMDAT __TI3?AVout_of_range@std@@
xdata$x	SEGMENT DWORD USE32 PUBLIC 'CONST'
xdata$x	ENDS
;	COMDAT ??1out_of_range@std@@UAE@XZ
_TEXT	SEGMENT PARA USE32 PUBLIC 'CODE'
_TEXT	ENDS
;	COMDAT ??_7out_of_range@std@@6B@
CONST	SEGMENT DWORD USE32 PUBLIC 'CONST'
CONST	ENDS
;	COMDAT ??_Gout_of_range@std@@UAEPAXI@Z
_TEXT	SEGMENT PARA USE32 PUBLIC 'CODE'
_TEXT	ENDS
;	COMDAT ?what@logic_error@std@@UBEPBDXZ
_TEXT	SEGMENT PARA USE32 PUBLIC 'CODE'
_TEXT	ENDS
;	COMDAT ?c_str@?$basic_string@DU?$char_traits@D@std@@V?$allocator@D@2@@std@@QBEPBDXZ
_TEXT	SEGMENT PARA USE32 PUBLIC 'CODE'
_TEXT	ENDS
;	COMDAT ??1logic_error@std@@UAE@XZ
_TEXT	SEGMENT PARA USE32 PUBLIC 'CODE'
_TEXT	ENDS
;	COMDAT ??_7logic_error@std@@6B@
CONST	SEGMENT DWORD USE32 PUBLIC 'CONST'
CONST	ENDS
;	COMDAT ??_Glogic_error@std@@UAEPAXI@Z
_TEXT	SEGMENT PARA USE32 PUBLIC 'CODE'
_TEXT	ENDS
;	COMDAT __CTA3?AVout_of_range@std@@
xdata$x	SEGMENT DWORD USE32 PUBLIC 'CONST'
xdata$x	ENDS
;	COMDAT __CT??_R0?AVout_of_range@std@@@8??0out_of_range@std@@QAE@ABV01@@Z40
xdata$x	SEGMENT DWORD USE32 PUBLIC 'CONST'
xdata$x	ENDS
;	COMDAT ??_R0?AVout_of_range@std@@@8
_DATA	SEGMENT DWORD USE32 PUBLIC 'DATA'
_DATA	ENDS
;	COMDAT ??0out_of_range@std@@QAE@ABV01@@Z
_TEXT	SEGMENT PARA USE32 PUBLIC 'CODE'
_TEXT	ENDS
;	COMDAT ??0logic_error@std@@QAE@ABV01@@Z
_TEXT	SEGMENT PARA USE32 PUBLIC 'CODE'
_TEXT	ENDS
;	COMDAT ??0?$basic_string@DU?$char_traits@D@std@@V?$allocator@D@2@@std@@QAE@ABV01@@Z
_TEXT	SEGMENT PARA USE32 PUBLIC 'CODE'
_TEXT	ENDS
;	COMDAT ??0?$_String_val@DV?$allocator@D@std@@@std@@IAE@V?$allocator@D@1@@Z
_TEXT	SEGMENT PARA USE32 PUBLIC 'CODE'
_TEXT	ENDS
;	COMDAT ??0?$allocator@D@std@@QAE@ABV01@@Z
_TEXT	SEGMENT PARA USE32 PUBLIC 'CODE'
_TEXT	ENDS
;	COMDAT ?_Tidy@?$basic_string@DU?$char_traits@D@std@@V?$allocator@D@2@@std@@IAEX_NI@Z
_TEXT	SEGMENT PARA USE32 PUBLIC 'CODE'
_TEXT	ENDS
;	COMDAT ?copy@?$char_traits@D@std@@SAPADPADPBDI@Z
_TEXT	SEGMENT PARA USE32 PUBLIC 'CODE'
_TEXT	ENDS
;	COMDAT ?deallocate@?$allocator@D@std@@QAEXPADI@Z
_TEXT	SEGMENT PARA USE32 PUBLIC 'CODE'
_TEXT	ENDS
;	COMDAT ?_Eos@?$basic_string@DU?$char_traits@D@std@@V?$allocator@D@2@@std@@IAEXI@Z
_TEXT	SEGMENT PARA USE32 PUBLIC 'CODE'
_TEXT	ENDS
;	COMDAT ?assign@?$char_traits@D@std@@SAXAADABD@Z
_TEXT	SEGMENT PARA USE32 PUBLIC 'CODE'
_TEXT	ENDS
;	COMDAT ?_Myptr@?$basic_string@DU?$char_traits@D@std@@V?$allocator@D@2@@std@@QAEPADXZ
_TEXT	SEGMENT PARA USE32 PUBLIC 'CODE'
_TEXT	ENDS
;	COMDAT ?assign@?$basic_string@DU?$char_traits@D@std@@V?$allocator@D@2@@std@@QAEAAV12@ABV12@II@Z
_TEXT	SEGMENT PARA USE32 PUBLIC 'CODE'
_TEXT	ENDS
;	COMDAT ?erase@?$basic_string@DU?$char_traits@D@std@@V?$allocator@D@2@@std@@QAEAAV12@II@Z
_TEXT	SEGMENT PARA USE32 PUBLIC 'CODE'
_TEXT	ENDS
;	COMDAT ?move@?$char_traits@D@std@@SAPADPADPBDI@Z
_TEXT	SEGMENT PARA USE32 PUBLIC 'CODE'
_TEXT	ENDS
;	COMDAT ?_Grow@?$basic_string@DU?$char_traits@D@std@@V?$allocator@D@2@@std@@IAE_NI_N@Z
_TEXT	SEGMENT PARA USE32 PUBLIC 'CODE'
_TEXT	ENDS
;	COMDAT ?max_size@?$basic_string@DU?$char_traits@D@std@@V?$allocator@D@2@@std@@QBEIXZ
_TEXT	SEGMENT PARA USE32 PUBLIC 'CODE'
_TEXT	ENDS
;	COMDAT ?max_size@?$allocator@D@std@@QBEIXZ
_TEXT	SEGMENT PARA USE32 PUBLIC 'CODE'
_TEXT	ENDS
;	COMDAT ?_Copy@?$basic_string@DU?$char_traits@D@std@@V?$allocator@D@2@@std@@IAEXII@Z
_TEXT	SEGMENT PARA USE32 PUBLIC 'CODE'
_TEXT	ENDS
;	COMDAT ?allocate@?$allocator@D@std@@QAEPADI@Z
_TEXT	SEGMENT PARA USE32 PUBLIC 'CODE'
_TEXT	ENDS
;	COMDAT ??$_Allocate@D@std@@YAPADIPAD@Z
_TEXT	SEGMENT PARA USE32 PUBLIC 'CODE'
_TEXT	ENDS
;	COMDAT ?npos@?$basic_string@DU?$char_traits@D@std@@V?$allocator@D@2@@std@@2IB
CONST	SEGMENT DWORD USE32 PUBLIC 'CONST'
CONST	ENDS
;	COMDAT __CT??_R0?AVlogic_error@std@@@8??0logic_error@std@@QAE@ABV01@@Z40
xdata$x	SEGMENT DWORD USE32 PUBLIC 'CONST'
xdata$x	ENDS
;	COMDAT ??_R0?AVlogic_error@std@@@8
_DATA	SEGMENT DWORD USE32 PUBLIC 'DATA'
_DATA	ENDS
;	COMDAT __CT??_R0?AVexception@@@8??0exception@@QAE@ABV0@@Z12
xdata$x	SEGMENT DWORD USE32 PUBLIC 'CONST'
xdata$x	ENDS
;	COMDAT ??_R0?AVexception@@@8
_DATA	SEGMENT DWORD USE32 PUBLIC 'DATA'
_DATA	ENDS
;	COMDAT ??_C@_0BM@PAPJHAGI@invalid?5map?1set?$DMT?$DO?5iterator?$AA@
CONST	SEGMENT DWORD USE32 PUBLIC 'CONST'
CONST	ENDS
;	COMDAT ??0out_of_range@std@@QAE@ABV?$basic_string@DU?$char_traits@D@std@@V?$allocator@D@2@@1@@Z
_TEXT	SEGMENT PARA USE32 PUBLIC 'CODE'
_TEXT	ENDS
;	COMDAT ??0logic_error@std@@QAE@ABV?$basic_string@DU?$char_traits@D@std@@V?$allocator@D@2@@1@@Z
_TEXT	SEGMENT PARA USE32 PUBLIC 'CODE'
_TEXT	ENDS
;	COMDAT ??3@YAXPAX0@Z
_TEXT	SEGMENT PARA USE32 PUBLIC 'CODE'
_TEXT	ENDS
;	COMDAT ??2@YAPAXIPAX@Z
_TEXT	SEGMENT PARA USE32 PUBLIC 'CODE'
_TEXT	ENDS
;	COMDAT ??_C@_0BD@OLBABOEK@vector?$DMT?$DO?5too?5long?$AA@
CONST	SEGMENT DWORD USE32 PUBLIC 'CONST'
CONST	ENDS
;	COMDAT __TI3?AVlength_error@std@@
xdata$x	SEGMENT DWORD USE32 PUBLIC 'CONST'
xdata$x	ENDS
;	COMDAT ??1length_error@std@@UAE@XZ
_TEXT	SEGMENT PARA USE32 PUBLIC 'CODE'
_TEXT	ENDS
;	COMDAT ??_7length_error@std@@6B@
CONST	SEGMENT DWORD USE32 PUBLIC 'CONST'
CONST	ENDS
;	COMDAT ??_Glength_error@std@@UAEPAXI@Z
_TEXT	SEGMENT PARA USE32 PUBLIC 'CODE'
_TEXT	ENDS
;	COMDAT __CTA3?AVlength_error@std@@
xdata$x	SEGMENT DWORD USE32 PUBLIC 'CONST'
xdata$x	ENDS
;	COMDAT __CT??_R0?AVlength_error@std@@@8??0length_error@std@@QAE@ABV01@@Z40
xdata$x	SEGMENT DWORD USE32 PUBLIC 'CONST'
xdata$x	ENDS
;	COMDAT ??_R0?AVlength_error@std@@@8
_DATA	SEGMENT DWORD USE32 PUBLIC 'DATA'
_DATA	ENDS
;	COMDAT ??0length_error@std@@QAE@ABV01@@Z
_TEXT	SEGMENT PARA USE32 PUBLIC 'CODE'
_TEXT	ENDS
;	COMDAT ??1?$basic_string@DU?$char_traits@D@std@@V?$allocator@D@2@@std@@QAE@XZ
_TEXT	SEGMENT PARA USE32 PUBLIC 'CODE'
_TEXT	ENDS
;	COMDAT ??_C@_0BE@JONHPENG@map?1set?$DMT?$DO?5too?5long?$AA@
CONST	SEGMENT DWORD USE32 PUBLIC 'CONST'
CONST	ENDS
;	COMDAT ??0?$basic_string@DU?$char_traits@D@std@@V?$allocator@D@2@@std@@QAE@PBD@Z
_TEXT	SEGMENT PARA USE32 PUBLIC 'CODE'
_TEXT	ENDS
;	COMDAT ??0?$allocator@D@std@@QAE@XZ
_TEXT	SEGMENT PARA USE32 PUBLIC 'CODE'
_TEXT	ENDS
;	COMDAT ?assign@?$basic_string@DU?$char_traits@D@std@@V?$allocator@D@2@@std@@QAEAAV12@PBD@Z
_TEXT	SEGMENT PARA USE32 PUBLIC 'CODE'
_TEXT	ENDS
;	COMDAT ?assign@?$basic_string@DU?$char_traits@D@std@@V?$allocator@D@2@@std@@QAEAAV12@PBDI@Z
_TEXT	SEGMENT PARA USE32 PUBLIC 'CODE'
_TEXT	ENDS
;	COMDAT ?_Inside@?$basic_string@DU?$char_traits@D@std@@V?$allocator@D@2@@std@@IAE_NPBD@Z
_TEXT	SEGMENT PARA USE32 PUBLIC 'CODE'
_TEXT	ENDS
;	COMDAT ?length@?$char_traits@D@std@@SAIPBD@Z
_TEXT	SEGMENT PARA USE32 PUBLIC 'CODE'
_TEXT	ENDS
;	COMDAT ??0length_error@std@@QAE@ABV?$basic_string@DU?$char_traits@D@std@@V?$allocator@D@2@@1@@Z
_TEXT	SEGMENT PARA USE32 PUBLIC 'CODE'
_TEXT	ENDS
;	COMDAT ?compare@?$char_traits@D@std@@SAHPBD0I@Z
_TEXT	SEGMENT PARA USE32 PUBLIC 'CODE'
_TEXT	ENDS
;	COMDAT ??R?$less@K@std@@QBE_NABK0@Z
_TEXT	SEGMENT PARA USE32 PUBLIC 'CODE'
_TEXT	ENDS
;	COMDAT ?_Myptr@?$basic_string@DU?$char_traits@D@std@@V?$allocator@D@2@@std@@QBEPBDXZ
_TEXT	SEGMENT PARA USE32 PUBLIC 'CODE'
_TEXT	ENDS
;	COMDAT ?size@?$basic_string@DU?$char_traits@D@std@@V?$allocator@D@2@@std@@QBEIXZ
_TEXT	SEGMENT PARA USE32 PUBLIC 'CODE'
_TEXT	ENDS
;	COMDAT ?sPost@?1??GetInstance@CPost@@SAPAV2@XZ@4V2@A
_BSS	SEGMENT DWORD USE32 PUBLIC 'BSS'
_BSS	ENDS
;	COMDAT ?$S3@?1??GetInstance@CPost@@SAPAV2@XZ@4IA
_BSS	SEGMENT DWORD USE32 PUBLIC 'BSS'
_BSS	ENDS
;	COMDAT ??6CAr@@QAEAAV0@I@Z
_TEXT	SEGMENT PARA USE32 PUBLIC 'CODE'
_TEXT	ENDS
;	COMDAT ??_7CPost@@6B@
CONST	SEGMENT DWORD USE32 PUBLIC 'CONST'
CONST	ENDS
;	COMDAT ??6CAr@@QAEAAV0@H@Z
_TEXT	SEGMENT PARA USE32 PUBLIC 'CODE'
_TEXT	ENDS
;	COMDAT ??5CAr@@QAEAAV0@AAH@Z
_TEXT	SEGMENT PARA USE32 PUBLIC 'CODE'
_TEXT	ENDS
;	COMDAT ?sMailBox@?1??GetInstance@CMailBox@@SAPAV2@XZ@4V2@A
_BSS	SEGMENT DWORD USE32 PUBLIC 'BSS'
_BSS	ENDS
;	COMDAT ?$S1@?1??GetInstance@CMailBox@@SAPAV2@XZ@4IA
_BSS	SEGMENT DWORD USE32 PUBLIC 'BSS'
_BSS	ENDS
;	COMDAT ??_7CMailBox@@6B@
CONST	SEGMENT DWORD USE32 PUBLIC 'CONST'
CONST	ENDS
;	COMDAT ??5CAr@@QAEAAV0@AAJ@Z
_TEXT	SEGMENT PARA USE32 PUBLIC 'CODE'
_TEXT	ENDS
;	COMDAT ??5CAr@@QAEAAV0@AAE@Z
_TEXT	SEGMENT PARA USE32 PUBLIC 'CODE'
_TEXT	ENDS
;	COMDAT ??5CAr@@QAEAAV0@AAK@Z
_TEXT	SEGMENT PARA USE32 PUBLIC 'CODE'
_TEXT	ENDS
;	COMDAT ??6CAr@@QAEAAV0@J@Z
_TEXT	SEGMENT PARA USE32 PUBLIC 'CODE'
_TEXT	ENDS
;	COMDAT ??6CAr@@QAEAAV0@E@Z
_TEXT	SEGMENT PARA USE32 PUBLIC 'CODE'
_TEXT	ENDS
;	COMDAT ??6CAr@@QAEAAV0@K@Z
_TEXT	SEGMENT PARA USE32 PUBLIC 'CODE'
_TEXT	ENDS
;	COMDAT ?IsStoring@CAr@@QBEHXZ
_TEXT	SEGMENT PARA USE32 PUBLIC 'CODE'
_TEXT	ENDS
;	COMDAT ?GetTotalHours@COleDateTimeSpan@ATL@@QBENXZ
_TEXT	SEGMENT PARA USE32 PUBLIC 'CODE'
_TEXT	ENDS
;	COMDAT ?OLE_DATETIME_HALFSECOND@COleDateTimeSpan@ATL@@0NB
CONST	SEGMENT DWORD USE32 PUBLIC 'CONST'
CONST	ENDS
;	COMDAT ?GetTotalDays@COleDateTimeSpan@ATL@@QBENXZ
_TEXT	SEGMENT PARA USE32 PUBLIC 'CODE'
_TEXT	ENDS
;	COMDAT ??GCOleDateTimeSpan@ATL@@QBE?AV01@ABV01@@Z
_TEXT	SEGMENT PARA USE32 PUBLIC 'CODE'
_TEXT	ENDS
;	COMDAT ??0COleDateTimeSpan@ATL@@QAE@XZ
_TEXT	SEGMENT PARA USE32 PUBLIC 'CODE'
_TEXT	ENDS
;	COMDAT ?GetStatus@COleDateTimeSpan@ATL@@QBE?AW4DateTimeSpanStatus@12@XZ
_TEXT	SEGMENT PARA USE32 PUBLIC 'CODE'
_TEXT	ENDS
;	COMDAT ?SetStatus@COleDateTimeSpan@ATL@@QAEXW4DateTimeSpanStatus@12@@Z
_TEXT	SEGMENT PARA USE32 PUBLIC 'CODE'
_TEXT	ENDS
;	COMDAT ?CheckRange@COleDateTimeSpan@ATL@@QAEXXZ
_TEXT	SEGMENT PARA USE32 PUBLIC 'CODE'
_TEXT	ENDS
;	COMDAT ?GetDay@COleDateTime@ATL@@QBEHXZ
_TEXT	SEGMENT PARA USE32 PUBLIC 'CODE'
_TEXT	ENDS
;	COMDAT ?GetAsSystemTime@COleDateTime@ATL@@QBE_NAAU_SYSTEMTIME@@@Z
_TEXT	SEGMENT PARA USE32 PUBLIC 'CODE'
_TEXT	ENDS
;	COMDAT ?GetStatus@COleDateTime@ATL@@QBE?AW4DateTimeStatus@12@XZ
_TEXT	SEGMENT PARA USE32 PUBLIC 'CODE'
_TEXT	ENDS
;	COMDAT ?GetHour@COleDateTime@ATL@@QBEHXZ
_TEXT	SEGMENT PARA USE32 PUBLIC 'CODE'
_TEXT	ENDS
;	COMDAT ?GetMinute@COleDateTime@ATL@@QBEHXZ
_TEXT	SEGMENT PARA USE32 PUBLIC 'CODE'
_TEXT	ENDS
;	COMDAT ?GetSecond@COleDateTime@ATL@@QBEHXZ
_TEXT	SEGMENT PARA USE32 PUBLIC 'CODE'
_TEXT	ENDS
;	COMDAT ??0COleDateTimeSpan@ATL@@QAE@JHHH@Z
_TEXT	SEGMENT PARA USE32 PUBLIC 'CODE'
_TEXT	ENDS
;	COMDAT ?SetDateTimeSpan@COleDateTimeSpan@ATL@@QAEXJHHH@Z
_TEXT	SEGMENT PARA USE32 PUBLIC 'CODE'
_TEXT	ENDS
;	COMDAT ?GetYear@CTime@ATL@@QBEHXZ
_TEXT	SEGMENT PARA USE32 PUBLIC 'CODE'
_TEXT	ENDS
;	COMDAT ?GetLocalTm@CTime@ATL@@QBEPAUtm@@PAU3@@Z
_TEXT	SEGMENT PARA USE32 PUBLIC 'CODE'
_TEXT	ENDS
;	COMDAT ?GetMonth@CTime@ATL@@QBEHXZ
_TEXT	SEGMENT PARA USE32 PUBLIC 'CODE'
_TEXT	ENDS
;	COMDAT ?GetDay@CTime@ATL@@QBEHXZ
_TEXT	SEGMENT PARA USE32 PUBLIC 'CODE'
_TEXT	ENDS
;	COMDAT ?GetHour@CTime@ATL@@QBEHXZ
_TEXT	SEGMENT PARA USE32 PUBLIC 'CODE'
_TEXT	ENDS
;	COMDAT ?GetMinute@CTime@ATL@@QBEHXZ
_TEXT	SEGMENT PARA USE32 PUBLIC 'CODE'
_TEXT	ENDS
;	COMDAT ?GetSecond@CTime@ATL@@QBEHXZ
_TEXT	SEGMENT PARA USE32 PUBLIC 'CODE'
_TEXT	ENDS
;	COMDAT ?SetDateTime@COleDateTime@ATL@@QAEHHHHHHH@Z
_TEXT	SEGMENT PARA USE32 PUBLIC 'CODE'
_TEXT	ENDS
;	COMDAT ?GetTickCount@CTime@ATL@@SG?AV12@XZ
_TEXT	SEGMENT PARA USE32 PUBLIC 'CODE'
_TEXT	ENDS
;	COMDAT ??0CTime@ATL@@QAE@_J@Z
_TEXT	SEGMENT PARA USE32 PUBLIC 'CODE'
_TEXT	ENDS
;	COMDAT ??0COleDateTime@ATL@@QAE@XZ
_TEXT	SEGMENT PARA USE32 PUBLIC 'CODE'
_TEXT	ENDS
;	COMDAT ?time_null@@YAJXZ
_TEXT	SEGMENT PARA USE32 PUBLIC 'CODE'
_TEXT	ENDS
;	COMDAT ??_7CMail@@6B@
CONST	SEGMENT DWORD USE32 PUBLIC 'CONST'
CONST	ENDS
sxdata	SEGMENT DWORD USE32 'SXDATA'
sxdata	ENDS
FLAT	GROUP _DATA, CONST, _BSS
	ASSUME	CS: FLAT, DS: FLAT, SS: FLAT
endif

INCLUDELIB LIBCMT
INCLUDELIB OLDNAMES

PUBLIC	?s_nMail@CMail@@2KA				; CMail::s_nMail
PUBLIC	?OLE_DATETIME_HALFSECOND@COleDateTimeSpan@ATL@@0NB ; ATL::COleDateTimeSpan::OLE_DATETIME_HALFSECOND
_BSS	SEGMENT
?s_nMail@CMail@@2KA DD 01H DUP (?)			; CMail::s_nMail
_BSS	ENDS
;	COMDAT ?OLE_DATETIME_HALFSECOND@COleDateTimeSpan@ATL@@0NB
CONST	SEGMENT
?OLE_DATETIME_HALFSECOND@COleDateTimeSpan@ATL@@0NB DQ 03ed845c8a0ce5129r ; 5.78704e-006 ; ATL::COleDateTimeSpan::OLE_DATETIME_HALFSECOND
CONST	ENDS
PUBLIC	??0CMail@@QAE@XZ				; CMail::CMail
PUBLIC	??_7CMail@@6B@					; CMail::`vftable'
PUBLIC	??_GCMail@@UAEPAXI@Z				; CMail::`scalar deleting destructor'
EXTRN	??_ECMail@@UAEPAXI@Z:NEAR			; CMail::`vector deleting destructor'
;	COMDAT ??_7CMail@@6B@
; File c:\documents and settings\test\mes documents\source\virtuos_v17\build\program\_common\post.cpp
CONST	SEGMENT
??_7CMail@@6B@ DD FLAT:??_ECMail@@UAEPAXI@Z		; CMail::`vftable'
; Function compile flags: /Ogty
CONST	ENDS
;	COMDAT ??0CMail@@QAE@XZ
_TEXT	SEGMENT
??0CMail@@QAE@XZ PROC NEAR				; CMail::CMail, COMDAT
; _this$ = ecx

; 17   : {

  00000	8b c1		 mov	 eax, ecx

; 18   : 	m_nMail	= 0;

  00002	33 c9		 xor	 ecx, ecx
  00004	c7 00 00 00 00
	00		 mov	 DWORD PTR [eax], OFFSET FLAT:??_7CMail@@6B@
  0000a	89 48 04	 mov	 DWORD PTR [eax+4], ecx

; 19   : 	m_idSender	= 0;

  0000d	89 48 08	 mov	 DWORD PTR [eax+8], ecx

; 20   : 	m_pItemElem	= NULL;

  00010	89 48 0c	 mov	 DWORD PTR [eax+12], ecx

; 21   : 	m_tmCreate	= 0;

  00013	89 48 14	 mov	 DWORD PTR [eax+20], ecx

; 22   : 	m_byRead	= FALSE;

  00016	88 48 18	 mov	 BYTE PTR [eax+24], cl

; 23   : 	*m_szTitle	= '\0';

  00019	88 48 19	 mov	 BYTE PTR [eax+25], cl

; 24   : 	*m_szText	= '\0';

  0001c	88 48 39	 mov	 BYTE PTR [eax+57], cl

; 25   : #ifdef __DBSERVER
; 26   : 	m_pMailBox	= NULL;
; 27   : #endif	// __DBSERVER
; 28   : 	m_nGold		= 0;

  0001f	89 48 10	 mov	 DWORD PTR [eax+16], ecx

; 29   : }

  00022	c3		 ret	 0
??0CMail@@QAE@XZ ENDP					; CMail::CMail
_TEXT	ENDS
PUBLIC	??2@YAPAXIPAX@Z					; operator new
; Function compile flags: /Ogty
; File c:\program files\microsoft visual studio .net 2003\vc7\include\new.h
;	COMDAT ??2@YAPAXIPAX@Z
_TEXT	SEGMENT
___formal$ = 8						; size = 4
__P$ = 12						; size = 4
??2@YAPAXIPAX@Z PROC NEAR				; operator new, COMDAT

; 109  :         {return (_P); }

  00000	8b 44 24 08	 mov	 eax, DWORD PTR __P$[esp-4]
  00004	c3		 ret	 0
??2@YAPAXIPAX@Z ENDP					; operator new
_TEXT	ENDS
PUBLIC	?Clear@CMail@@QAEXXZ				; CMail::Clear
; Function compile flags: /Ogty
; File c:\documents and settings\test\mes documents\source\virtuos_v17\build\program\_common\post.cpp
;	COMDAT ?Clear@CMail@@QAEXXZ
_TEXT	SEGMENT
?Clear@CMail@@QAEXXZ PROC NEAR				; CMail::Clear, COMDAT
; _this$ = ecx

; 52   : {

  00000	56		 push	 esi
  00001	8b f1		 mov	 esi, ecx

; 53   : 	SAFE_DELETE( m_pItemElem );

  00003	8b 4e 0c	 mov	 ecx, DWORD PTR [esi+12]
  00006	85 c9		 test	 ecx, ecx
  00008	74 0d		 je	 SHORT $L226508
  0000a	8b 01		 mov	 eax, DWORD PTR [ecx]
  0000c	6a 01		 push	 1
  0000e	ff 10		 call	 DWORD PTR [eax]
  00010	c7 46 0c 00 00
	00 00		 mov	 DWORD PTR [esi+12], 0
$L226508:
  00017	5e		 pop	 esi

; 54   : }

  00018	c3		 ret	 0
?Clear@CMail@@QAEXXZ ENDP				; CMail::Clear
_TEXT	ENDS
PUBLIC	??3@YAXPAX0@Z					; operator delete
; Function compile flags: /Ogty
; File c:\program files\microsoft visual studio .net 2003\vc7\include\new.h
;	COMDAT ??3@YAXPAX0@Z
_TEXT	SEGMENT
___formal$ = 8						; size = 4
___formal$ = 12						; size = 4
??3@YAXPAX0@Z PROC NEAR					; operator delete, COMDAT

; 112  :         {return; }

  00000	c3		 ret	 0
??3@YAXPAX0@Z ENDP					; operator delete
_TEXT	ENDS
PUBLIC	?GetCost@CMail@@QAEKXZ				; CMail::GetCost
; Function compile flags: /Ogty
; File c:\documents and settings\test\mes documents\source\virtuos_v17\build\program\_common\post.cpp
;	COMDAT ?GetCost@CMail@@QAEKXZ
_TEXT	SEGMENT
?GetCost@CMail@@QAEKXZ PROC NEAR			; CMail::GetCost, COMDAT
; _this$ = ecx

; 58   : 	return 0;

  00000	33 c0		 xor	 eax, eax

; 59   : }

  00002	c3		 ret	 0
?GetCost@CMail@@QAEKXZ ENDP				; CMail::GetCost
_TEXT	ENDS
PUBLIC	?size@?$vector@PAVCMail@@V?$allocator@PAVCMail@@@std@@@std@@QBEIXZ ; std::vector<CMail *,std::allocator<CMail *> >::size
; Function compile flags: /Ogty
; File c:\program files\microsoft visual studio .net 2003\vc7\include\vector
;	COMDAT ?size@?$vector@PAVCMail@@V?$allocator@PAVCMail@@@std@@@std@@QBEIXZ
_TEXT	SEGMENT
?size@?$vector@PAVCMail@@V?$allocator@PAVCMail@@@std@@@std@@QBEIXZ PROC NEAR ; std::vector<CMail *,std::allocator<CMail *> >::size, COMDAT
; _this$ = ecx

; 516  : 		return (_Myfirst == 0 ? 0 : _Mylast - _Myfirst);

  00000	8b 51 04	 mov	 edx, DWORD PTR [ecx+4]
  00003	85 d2		 test	 edx, edx
  00005	75 03		 jne	 SHORT $L229337
  00007	33 c0		 xor	 eax, eax

; 517  : 		}

  00009	c3		 ret	 0
$L229337:

; 516  : 		return (_Myfirst == 0 ? 0 : _Mylast - _Myfirst);

  0000a	8b 41 08	 mov	 eax, DWORD PTR [ecx+8]
  0000d	2b c2		 sub	 eax, edx
  0000f	c1 f8 02	 sar	 eax, 2

; 517  : 		}

  00012	c3		 ret	 0
?size@?$vector@PAVCMail@@V?$allocator@PAVCMail@@@std@@@std@@QBEIXZ ENDP ; std::vector<CMail *,std::allocator<CMail *> >::size
_TEXT	ENDS
PUBLIC	?size@?$_Tree@V?$_Tmap_traits@KPAVCMailBox@@U?$less@K@std@@V?$allocator@U?$pair@$$CBKPAVCMailBox@@@std@@@3@$0A@@std@@@std@@QBEIXZ ; std::_Tree<std::_Tmap_traits<unsigned long,CMailBox *,std::less<unsigned long>,std::allocator<std::pair<unsigned long const ,CMailBox *> >,0> >::size
; Function compile flags: /Ogty
; File c:\program files\microsoft visual studio .net 2003\vc7\include\xtree
;	COMDAT ?size@?$_Tree@V?$_Tmap_traits@KPAVCMailBox@@U?$less@K@std@@V?$allocator@U?$pair@$$CBKPAVCMailBox@@@std@@@3@$0A@@std@@@std@@QBEIXZ
_TEXT	SEGMENT
?size@?$_Tree@V?$_Tmap_traits@KPAVCMailBox@@U?$less@K@std@@V?$allocator@U?$pair@$$CBKPAVCMailBox@@@std@@@3@$0A@@std@@@std@@QBEIXZ PROC NEAR ; std::_Tree<std::_Tmap_traits<unsigned long,CMailBox *,std::less<unsigned long>,std::allocator<std::pair<unsigned long const ,CMailBox *> >,0> >::size, COMDAT
; _this$ = ecx

; 448  : 		return (_Mysize);

  00000	8b 41 08	 mov	 eax, DWORD PTR [ecx+8]

; 449  : 		}

  00003	c3		 ret	 0
?size@?$_Tree@V?$_Tmap_traits@KPAVCMailBox@@U?$less@K@std@@V?$allocator@U?$pair@$$CBKPAVCMailBox@@@std@@@3@$0A@@std@@@std@@QBEIXZ ENDP ; std::_Tree<std::_Tmap_traits<unsigned long,CMailBox *,std::less<unsigned long>,std::allocator<std::pair<unsigned long const ,CMailBox *> >,0> >::size
_TEXT	ENDS
PUBLIC	??Eiterator@?$vector@PAVCMail@@V?$allocator@PAVCMail@@@std@@@std@@QAEAAV012@XZ ; std::vector<CMail *,std::allocator<CMail *> >::iterator::operator++
; Function compile flags: /Ogty
; File c:\program files\microsoft visual studio .net 2003\vc7\include\vector
;	COMDAT ??Eiterator@?$vector@PAVCMail@@V?$allocator@PAVCMail@@@std@@@std@@QAEAAV012@XZ
_TEXT	SEGMENT
??Eiterator@?$vector@PAVCMail@@V?$allocator@PAVCMail@@@std@@@std@@QAEAAV012@XZ PROC NEAR ; std::vector<CMail *,std::allocator<CMail *> >::iterator::operator++, COMDAT
; _this$ = ecx

; 229  : 			{	// preincrement

  00000	8b c1		 mov	 eax, ecx

; 230  : 			++this->_Myptr;

  00002	83 00 04	 add	 DWORD PTR [eax], 4

; 231  : 			return (*this);
; 232  : 			}

  00005	c3		 ret	 0
??Eiterator@?$vector@PAVCMail@@V?$allocator@PAVCMail@@@std@@@std@@QAEAAV012@XZ ENDP ; std::vector<CMail *,std::allocator<CMail *> >::iterator::operator++
_TEXT	ENDS
PUBLIC	??0?$pair@$$CBKPAVCMailBox@@@std@@QAE@ABKABQAVCMailBox@@@Z ; std::pair<unsigned long const ,CMailBox *>::pair<unsigned long const ,CMailBox *>
; Function compile flags: /Ogty
; File c:\program files\microsoft visual studio .net 2003\vc7\include\utility
;	COMDAT ??0?$pair@$$CBKPAVCMailBox@@@std@@QAE@ABKABQAVCMailBox@@@Z
_TEXT	SEGMENT
__Val1$ = 8						; size = 4
__Val2$ = 12						; size = 4
??0?$pair@$$CBKPAVCMailBox@@@std@@QAE@ABKABQAVCMailBox@@@Z PROC NEAR ; std::pair<unsigned long const ,CMailBox *>::pair<unsigned long const ,CMailBox *>, COMDAT
; _this$ = ecx

; 34   : 		{	// construct from specified values

  00000	8b c1		 mov	 eax, ecx
  00002	8b 4c 24 04	 mov	 ecx, DWORD PTR __Val1$[esp-4]
  00006	8b 11		 mov	 edx, DWORD PTR [ecx]
  00008	8b 4c 24 08	 mov	 ecx, DWORD PTR __Val2$[esp-4]
  0000c	89 10		 mov	 DWORD PTR [eax], edx
  0000e	8b 11		 mov	 edx, DWORD PTR [ecx]
  00010	89 50 04	 mov	 DWORD PTR [eax+4], edx

; 35   : 		}

  00013	c2 08 00	 ret	 8
??0?$pair@$$CBKPAVCMailBox@@@std@@QAE@ABKABQAVCMailBox@@@Z ENDP ; std::pair<unsigned long const ,CMailBox *>::pair<unsigned long const ,CMailBox *>
_TEXT	ENDS
PUBLIC	?capacity@?$vector@PAVCMail@@V?$allocator@PAVCMail@@@std@@@std@@QBEIXZ ; std::vector<CMail *,std::allocator<CMail *> >::capacity
; Function compile flags: /Ogty
; File c:\program files\microsoft visual studio .net 2003\vc7\include\vector
;	COMDAT ?capacity@?$vector@PAVCMail@@V?$allocator@PAVCMail@@@std@@@std@@QBEIXZ
_TEXT	SEGMENT
?capacity@?$vector@PAVCMail@@V?$allocator@PAVCMail@@@std@@@std@@QBEIXZ PROC NEAR ; std::vector<CMail *,std::allocator<CMail *> >::capacity, COMDAT
; _this$ = ecx

; 458  : 		return (_Myfirst == 0 ? 0 : _Myend - _Myfirst);

  00000	8b 51 04	 mov	 edx, DWORD PTR [ecx+4]
  00003	85 d2		 test	 edx, edx
  00005	75 03		 jne	 SHORT $L229351
  00007	33 c0		 xor	 eax, eax

; 459  : 		}

  00009	c3		 ret	 0
$L229351:

; 458  : 		return (_Myfirst == 0 ? 0 : _Myend - _Myfirst);

  0000a	8b 41 0c	 mov	 eax, DWORD PTR [ecx+12]
  0000d	2b c2		 sub	 eax, edx
  0000f	c1 f8 02	 sar	 eax, 2

; 459  : 		}

  00012	c3		 ret	 0
?capacity@?$vector@PAVCMail@@V?$allocator@PAVCMail@@@std@@@std@@QBEIXZ ENDP ; std::vector<CMail *,std::allocator<CMail *> >::capacity
_TEXT	ENDS
PUBLIC	??0?$allocator@PAVCMail@@@std@@QAE@XZ		; std::allocator<CMail *>::allocator<CMail *>
; Function compile flags: /Ogty
; File c:\program files\microsoft visual studio .net 2003\vc7\include\xmemory
;	COMDAT ??0?$allocator@PAVCMail@@@std@@QAE@XZ
_TEXT	SEGMENT
??0?$allocator@PAVCMail@@@std@@QAE@XZ PROC NEAR		; std::allocator<CMail *>::allocator<CMail *>, COMDAT
; _this$ = ecx

; 111  : 	allocator()

  00000	8b c1		 mov	 eax, ecx

; 112  : 		{	// construct default allocator (do nothing)
; 113  : 		}

  00002	c3		 ret	 0
??0?$allocator@PAVCMail@@@std@@QAE@XZ ENDP		; std::allocator<CMail *>::allocator<CMail *>
_TEXT	ENDS
PUBLIC	?_Isnil@?$_Tree@V?$_Tmap_traits@KPAVCMailBox@@U?$less@K@std@@V?$allocator@U?$pair@$$CBKPAVCMailBox@@@std@@@3@$0A@@std@@@std@@KAAADPAU_Node@?$_Tree_nod@V?$_Tmap_traits@KPAVCMailBox@@U?$less@K@std@@V?$allocator@U?$pair@$$CBKPAVCMailBox@@@std@@@3@$0A@@std@@@2@@Z ; std::_Tree<std::_Tmap_traits<unsigned long,CMailBox *,std::less<unsigned long>,std::allocator<std::pair<unsigned long const ,CMailBox *> >,0> >::_Isnil
; Function compile flags: /Ogty
; File c:\program files\microsoft visual studio .net 2003\vc7\include\xtree
;	COMDAT ?_Isnil@?$_Tree@V?$_Tmap_traits@KPAVCMailBox@@U?$less@K@std@@V?$allocator@U?$pair@$$CBKPAVCMailBox@@@std@@@3@$0A@@std@@@std@@KAAADPAU_Node@?$_Tree_nod@V?$_Tmap_traits@KPAVCMailBox@@U?$less@K@std@@V?$allocator@U?$pair@$$CBKPAVCMailBox@@@std@@@3@$0A@@std@@@2@@Z
_TEXT	SEGMENT
__Pnode$ = 8						; size = 4
?_Isnil@?$_Tree@V?$_Tmap_traits@KPAVCMailBox@@U?$less@K@std@@V?$allocator@U?$pair@$$CBKPAVCMailBox@@@std@@@3@$0A@@std@@@std@@KAAADPAU_Node@?$_Tree_nod@V?$_Tmap_traits@KPAVCMailBox@@U?$less@K@std@@V?$allocator@U?$pair@$$CBKPAVCMailBox@@@std@@@3@$0A@@std@@@2@@Z PROC NEAR ; std::_Tree<std::_Tmap_traits<unsigned long,CMailBox *,std::less<unsigned long>,std::allocator<std::pair<unsigned long const ,CMailBox *> >,0> >::_Isnil, COMDAT

; 137  : 		return ((_Charref)(*_Pnode)._Isnil);

  00000	8b 44 24 04	 mov	 eax, DWORD PTR __Pnode$[esp-4]
  00004	83 c0 15	 add	 eax, 21			; 00000015H

; 138  : 		}

  00007	c3		 ret	 0
?_Isnil@?$_Tree@V?$_Tmap_traits@KPAVCMailBox@@U?$less@K@std@@V?$allocator@U?$pair@$$CBKPAVCMailBox@@@std@@@3@$0A@@std@@@std@@KAAADPAU_Node@?$_Tree_nod@V?$_Tmap_traits@KPAVCMailBox@@U?$less@K@std@@V?$allocator@U?$pair@$$CBKPAVCMailBox@@@std@@@3@$0A@@std@@@2@@Z ENDP ; std::_Tree<std::_Tmap_traits<unsigned long,CMailBox *,std::less<unsigned long>,std::allocator<std::pair<unsigned long const ,CMailBox *> >,0> >::_Isnil
_TEXT	ENDS
PUBLIC	?_Left@?$_Tree@V?$_Tmap_traits@KPAVCMailBox@@U?$less@K@std@@V?$allocator@U?$pair@$$CBKPAVCMailBox@@@std@@@3@$0A@@std@@@std@@KAAAPAU_Node@?$_Tree_nod@V?$_Tmap_traits@KPAVCMailBox@@U?$less@K@std@@V?$allocator@U?$pair@$$CBKPAVCMailBox@@@std@@@3@$0A@@std@@@2@PAU342@@Z ; std::_Tree<std::_Tmap_traits<unsigned long,CMailBox *,std::less<unsigned long>,std::allocator<std::pair<unsigned long const ,CMailBox *> >,0> >::_Left
; Function compile flags: /Ogty
;	COMDAT ?_Left@?$_Tree@V?$_Tmap_traits@KPAVCMailBox@@U?$less@K@std@@V?$allocator@U?$pair@$$CBKPAVCMailBox@@@std@@@3@$0A@@std@@@std@@KAAAPAU_Node@?$_Tree_nod@V?$_Tmap_traits@KPAVCMailBox@@U?$less@K@std@@V?$allocator@U?$pair@$$CBKPAVCMailBox@@@std@@@3@$0A@@std@@@2@PAU342@@Z
_TEXT	SEGMENT
__Pnode$ = 8						; size = 4
?_Left@?$_Tree@V?$_Tmap_traits@KPAVCMailBox@@U?$less@K@std@@V?$allocator@U?$pair@$$CBKPAVCMailBox@@@std@@@3@$0A@@std@@@std@@KAAAPAU_Node@?$_Tree_nod@V?$_Tmap_traits@KPAVCMailBox@@U?$less@K@std@@V?$allocator@U?$pair@$$CBKPAVCMailBox@@@std@@@3@$0A@@std@@@2@PAU342@@Z PROC NEAR ; std::_Tree<std::_Tmap_traits<unsigned long,CMailBox *,std::less<unsigned long>,std::allocator<std::pair<unsigned long const ,CMailBox *> >,0> >::_Left, COMDAT

; 147  : 		return ((_Nodepref)(*_Pnode)._Left);

  00000	8b 44 24 04	 mov	 eax, DWORD PTR __Pnode$[esp-4]

; 148  : 		}

  00004	c3		 ret	 0
?_Left@?$_Tree@V?$_Tmap_traits@KPAVCMailBox@@U?$less@K@std@@V?$allocator@U?$pair@$$CBKPAVCMailBox@@@std@@@3@$0A@@std@@@std@@KAAAPAU_Node@?$_Tree_nod@V?$_Tmap_traits@KPAVCMailBox@@U?$less@K@std@@V?$allocator@U?$pair@$$CBKPAVCMailBox@@@std@@@3@$0A@@std@@@2@PAU342@@Z ENDP ; std::_Tree<std::_Tmap_traits<unsigned long,CMailBox *,std::less<unsigned long>,std::allocator<std::pair<unsigned long const ,CMailBox *> >,0> >::_Left
_TEXT	ENDS
PUBLIC	?_Right@?$_Tree@V?$_Tmap_traits@KPAVCMailBox@@U?$less@K@std@@V?$allocator@U?$pair@$$CBKPAVCMailBox@@@std@@@3@$0A@@std@@@std@@KAAAPAU_Node@?$_Tree_nod@V?$_Tmap_traits@KPAVCMailBox@@U?$less@K@std@@V?$allocator@U?$pair@$$CBKPAVCMailBox@@@std@@@3@$0A@@std@@@2@PAU342@@Z ; std::_Tree<std::_Tmap_traits<unsigned long,CMailBox *,std::less<unsigned long>,std::allocator<std::pair<unsigned long const ,CMailBox *> >,0> >::_Right
; Function compile flags: /Ogty
;	COMDAT ?_Right@?$_Tree@V?$_Tmap_traits@KPAVCMailBox@@U?$less@K@std@@V?$allocator@U?$pair@$$CBKPAVCMailBox@@@std@@@3@$0A@@std@@@std@@KAAAPAU_Node@?$_Tree_nod@V?$_Tmap_traits@KPAVCMailBox@@U?$less@K@std@@V?$allocator@U?$pair@$$CBKPAVCMailBox@@@std@@@3@$0A@@std@@@2@PAU342@@Z
_TEXT	SEGMENT
__Pnode$ = 8						; size = 4
?_Right@?$_Tree@V?$_Tmap_traits@KPAVCMailBox@@U?$less@K@std@@V?$allocator@U?$pair@$$CBKPAVCMailBox@@@std@@@3@$0A@@std@@@std@@KAAAPAU_Node@?$_Tree_nod@V?$_Tmap_traits@KPAVCMailBox@@U?$less@K@std@@V?$allocator@U?$pair@$$CBKPAVCMailBox@@@std@@@3@$0A@@std@@@2@PAU342@@Z PROC NEAR ; std::_Tree<std::_Tmap_traits<unsigned long,CMailBox *,std::less<unsigned long>,std::allocator<std::pair<unsigned long const ,CMailBox *> >,0> >::_Right, COMDAT

; 157  : 		return ((_Nodepref)(*_Pnode)._Right);

  00000	8b 44 24 04	 mov	 eax, DWORD PTR __Pnode$[esp-4]
  00004	83 c0 08	 add	 eax, 8

; 158  : 		}

  00007	c3		 ret	 0
?_Right@?$_Tree@V?$_Tmap_traits@KPAVCMailBox@@U?$less@K@std@@V?$allocator@U?$pair@$$CBKPAVCMailBox@@@std@@@3@$0A@@std@@@std@@KAAAPAU_Node@?$_Tree_nod@V?$_Tmap_traits@KPAVCMailBox@@U?$less@K@std@@V?$allocator@U?$pair@$$CBKPAVCMailBox@@@std@@@3@$0A@@std@@@2@PAU342@@Z ENDP ; std::_Tree<std::_Tmap_traits<unsigned long,CMailBox *,std::less<unsigned long>,std::allocator<std::pair<unsigned long const ,CMailBox *> >,0> >::_Right
_TEXT	ENDS
PUBLIC	?_Lmost@?$_Tree@V?$_Tmap_traits@KPAVCMailBox@@U?$less@K@std@@V?$allocator@U?$pair@$$CBKPAVCMailBox@@@std@@@3@$0A@@std@@@std@@IAEAAPAU_Node@?$_Tree_nod@V?$_Tmap_traits@KPAVCMailBox@@U?$less@K@std@@V?$allocator@U?$pair@$$CBKPAVCMailBox@@@std@@@3@$0A@@std@@@2@XZ ; std::_Tree<std::_Tmap_traits<unsigned long,CMailBox *,std::less<unsigned long>,std::allocator<std::pair<unsigned long const ,CMailBox *> >,0> >::_Lmost
; Function compile flags: /Ogty
;	COMDAT ?_Lmost@?$_Tree@V?$_Tmap_traits@KPAVCMailBox@@U?$less@K@std@@V?$allocator@U?$pair@$$CBKPAVCMailBox@@@std@@@3@$0A@@std@@@std@@IAEAAPAU_Node@?$_Tree_nod@V?$_Tmap_traits@KPAVCMailBox@@U?$less@K@std@@V?$allocator@U?$pair@$$CBKPAVCMailBox@@@std@@@3@$0A@@std@@@2@XZ
_TEXT	SEGMENT
?_Lmost@?$_Tree@V?$_Tmap_traits@KPAVCMailBox@@U?$less@K@std@@V?$allocator@U?$pair@$$CBKPAVCMailBox@@@std@@@3@$0A@@std@@@std@@IAEAAPAU_Node@?$_Tree_nod@V?$_Tmap_traits@KPAVCMailBox@@U?$less@K@std@@V?$allocator@U?$pair@$$CBKPAVCMailBox@@@std@@@3@$0A@@std@@@2@XZ PROC NEAR ; std::_Tree<std::_Tmap_traits<unsigned long,CMailBox *,std::less<unsigned long>,std::allocator<std::pair<unsigned long const ,CMailBox *> >,0> >::_Lmost, COMDAT
; _this$ = ecx

; 1005 : 		return (_Left(_Myhead));

  00000	8b 41 04	 mov	 eax, DWORD PTR [ecx+4]

; 1006 : 		}

  00003	c3		 ret	 0
?_Lmost@?$_Tree@V?$_Tmap_traits@KPAVCMailBox@@U?$less@K@std@@V?$allocator@U?$pair@$$CBKPAVCMailBox@@@std@@@3@$0A@@std@@@std@@IAEAAPAU_Node@?$_Tree_nod@V?$_Tmap_traits@KPAVCMailBox@@U?$less@K@std@@V?$allocator@U?$pair@$$CBKPAVCMailBox@@@std@@@3@$0A@@std@@@2@XZ ENDP ; std::_Tree<std::_Tmap_traits<unsigned long,CMailBox *,std::less<unsigned long>,std::allocator<std::pair<unsigned long const ,CMailBox *> >,0> >::_Lmost
_TEXT	ENDS
PUBLIC	?_Rmost@?$_Tree@V?$_Tmap_traits@KPAVCMailBox@@U?$less@K@std@@V?$allocator@U?$pair@$$CBKPAVCMailBox@@@std@@@3@$0A@@std@@@std@@IAEAAPAU_Node@?$_Tree_nod@V?$_Tmap_traits@KPAVCMailBox@@U?$less@K@std@@V?$allocator@U?$pair@$$CBKPAVCMailBox@@@std@@@3@$0A@@std@@@2@XZ ; std::_Tree<std::_Tmap_traits<unsigned long,CMailBox *,std::less<unsigned long>,std::allocator<std::pair<unsigned long const ,CMailBox *> >,0> >::_Rmost
; Function compile flags: /Ogty
;	COMDAT ?_Rmost@?$_Tree@V?$_Tmap_traits@KPAVCMailBox@@U?$less@K@std@@V?$allocator@U?$pair@$$CBKPAVCMailBox@@@std@@@3@$0A@@std@@@std@@IAEAAPAU_Node@?$_Tree_nod@V?$_Tmap_traits@KPAVCMailBox@@U?$less@K@std@@V?$allocator@U?$pair@$$CBKPAVCMailBox@@@std@@@3@$0A@@std@@@2@XZ
_TEXT	SEGMENT
?_Rmost@?$_Tree@V?$_Tmap_traits@KPAVCMailBox@@U?$less@K@std@@V?$allocator@U?$pair@$$CBKPAVCMailBox@@@std@@@3@$0A@@std@@@std@@IAEAAPAU_Node@?$_Tree_nod@V?$_Tmap_traits@KPAVCMailBox@@U?$less@K@std@@V?$allocator@U?$pair@$$CBKPAVCMailBox@@@std@@@3@$0A@@std@@@2@XZ PROC NEAR ; std::_Tree<std::_Tmap_traits<unsigned long,CMailBox *,std::less<unsigned long>,std::allocator<std::pair<unsigned long const ,CMailBox *> >,0> >::_Rmost, COMDAT
; _this$ = ecx

; 1049 : 		return (_Right(_Myhead));

  00000	8b 41 04	 mov	 eax, DWORD PTR [ecx+4]
  00003	83 c0 08	 add	 eax, 8

; 1050 : 		}

  00006	c3		 ret	 0
?_Rmost@?$_Tree@V?$_Tmap_traits@KPAVCMailBox@@U?$less@K@std@@V?$allocator@U?$pair@$$CBKPAVCMailBox@@@std@@@3@$0A@@std@@@std@@IAEAAPAU_Node@?$_Tree_nod@V?$_Tmap_traits@KPAVCMailBox@@U?$less@K@std@@V?$allocator@U?$pair@$$CBKPAVCMailBox@@@std@@@3@$0A@@std@@@2@XZ ENDP ; std::_Tree<std::_Tmap_traits<unsigned long,CMailBox *,std::less<unsigned long>,std::allocator<std::pair<unsigned long const ,CMailBox *> >,0> >::_Rmost
_TEXT	ENDS
PUBLIC	?_Kfn@?$_Tmap_traits@KPAVCMailBox@@U?$less@K@std@@V?$allocator@U?$pair@$$CBKPAVCMailBox@@@std@@@3@$0A@@std@@SAABKABU?$pair@$$CBKPAVCMailBox@@@2@@Z ; std::_Tmap_traits<unsigned long,CMailBox *,std::less<unsigned long>,std::allocator<std::pair<unsigned long const ,CMailBox *> >,0>::_Kfn
; Function compile flags: /Ogty
; File c:\program files\microsoft visual studio .net 2003\vc7\include\map
;	COMDAT ?_Kfn@?$_Tmap_traits@KPAVCMailBox@@U?$less@K@std@@V?$allocator@U?$pair@$$CBKPAVCMailBox@@@std@@@3@$0A@@std@@SAABKABU?$pair@$$CBKPAVCMailBox@@@2@@Z
_TEXT	SEGMENT
__Val$ = 8						; size = 4
?_Kfn@?$_Tmap_traits@KPAVCMailBox@@U?$less@K@std@@V?$allocator@U?$pair@$$CBKPAVCMailBox@@@std@@@3@$0A@@std@@SAABKABU?$pair@$$CBKPAVCMailBox@@@2@@Z PROC NEAR ; std::_Tmap_traits<unsigned long,CMailBox *,std::less<unsigned long>,std::allocator<std::pair<unsigned long const ,CMailBox *> >,0>::_Kfn, COMDAT

; 64   : 		return (_Val.first);

  00000	8b 44 24 04	 mov	 eax, DWORD PTR __Val$[esp-4]

; 65   : 		}

  00004	c3		 ret	 0
?_Kfn@?$_Tmap_traits@KPAVCMailBox@@U?$less@K@std@@V?$allocator@U?$pair@$$CBKPAVCMailBox@@@std@@@3@$0A@@std@@SAABKABU?$pair@$$CBKPAVCMailBox@@@2@@Z ENDP ; std::_Tmap_traits<unsigned long,CMailBox *,std::less<unsigned long>,std::allocator<std::pair<unsigned long const ,CMailBox *> >,0>::_Kfn
_TEXT	ENDS
PUBLIC	??0?$allocator@U?$pair@$$CBKPAVCMailBox@@@std@@@std@@QAE@XZ ; std::allocator<std::pair<unsigned long const ,CMailBox *> >::allocator<std::pair<unsigned long const ,CMailBox *> >
; Function compile flags: /Ogty
; File c:\program files\microsoft visual studio .net 2003\vc7\include\xmemory
;	COMDAT ??0?$allocator@U?$pair@$$CBKPAVCMailBox@@@std@@@std@@QAE@XZ
_TEXT	SEGMENT
??0?$allocator@U?$pair@$$CBKPAVCMailBox@@@std@@@std@@QAE@XZ PROC NEAR ; std::allocator<std::pair<unsigned long const ,CMailBox *> >::allocator<std::pair<unsigned long const ,CMailBox *> >, COMDAT
; _this$ = ecx

; 111  : 	allocator()

  00000	8b c1		 mov	 eax, ecx

; 112  : 		{	// construct default allocator (do nothing)
; 113  : 		}

  00002	c3		 ret	 0
??0?$allocator@U?$pair@$$CBKPAVCMailBox@@@std@@@std@@QAE@XZ ENDP ; std::allocator<std::pair<unsigned long const ,CMailBox *> >::allocator<std::pair<unsigned long const ,CMailBox *> >
_TEXT	ENDS
PUBLIC	??Dconst_iterator@?$vector@PAVCMail@@V?$allocator@PAVCMail@@@std@@@std@@QBEABQAVCMail@@XZ ; std::vector<CMail *,std::allocator<CMail *> >::const_iterator::operator*
; Function compile flags: /Ogty
; File c:\program files\microsoft visual studio .net 2003\vc7\include\vector
;	COMDAT ??Dconst_iterator@?$vector@PAVCMail@@V?$allocator@PAVCMail@@@std@@@std@@QBEABQAVCMail@@XZ
_TEXT	SEGMENT
??Dconst_iterator@?$vector@PAVCMail@@V?$allocator@PAVCMail@@@std@@@std@@QBEABQAVCMail@@XZ PROC NEAR ; std::vector<CMail *,std::allocator<CMail *> >::const_iterator::operator*, COMDAT
; _this$ = ecx

; 80   : 
; 81   : 
; 82   : 			return (*_Myptr);

  00000	8b 01		 mov	 eax, DWORD PTR [ecx]

; 83   : 			}

  00002	c3		 ret	 0
??Dconst_iterator@?$vector@PAVCMail@@V?$allocator@PAVCMail@@@std@@@std@@QBEABQAVCMail@@XZ ENDP ; std::vector<CMail *,std::allocator<CMail *> >::const_iterator::operator*
_TEXT	ENDS
PUBLIC	??8const_iterator@?$vector@PAVCMail@@V?$allocator@PAVCMail@@@std@@@std@@QBE_NABV012@@Z ; std::vector<CMail *,std::allocator<CMail *> >::const_iterator::operator==
; Function compile flags: /Ogty
;	COMDAT ??8const_iterator@?$vector@PAVCMail@@V?$allocator@PAVCMail@@@std@@@std@@QBE_NABV012@@Z
_TEXT	SEGMENT
__Right$ = 8						; size = 4
??8const_iterator@?$vector@PAVCMail@@V?$allocator@PAVCMail@@@std@@@std@@QBE_NABV012@@Z PROC NEAR ; std::vector<CMail *,std::allocator<CMail *> >::const_iterator::operator==, COMDAT
; _this$ = ecx

; 153  : 
; 154  : 
; 155  : 			return (_Myptr == _Right._Myptr);

  00000	8b 01		 mov	 eax, DWORD PTR [ecx]
  00002	8b 4c 24 04	 mov	 ecx, DWORD PTR __Right$[esp-4]
  00006	2b 01		 sub	 eax, DWORD PTR [ecx]
  00008	f7 d8		 neg	 eax
  0000a	1b c0		 sbb	 eax, eax
  0000c	40		 inc	 eax

; 156  : 			}

  0000d	c2 04 00	 ret	 4
??8const_iterator@?$vector@PAVCMail@@V?$allocator@PAVCMail@@@std@@@std@@QBE_NABV012@@Z ENDP ; std::vector<CMail *,std::allocator<CMail *> >::const_iterator::operator==
_TEXT	ENDS
PUBLIC	??8const_iterator@?$_Tree@V?$_Tmap_traits@KPAVCMailBox@@U?$less@K@std@@V?$allocator@U?$pair@$$CBKPAVCMailBox@@@std@@@3@$0A@@std@@@std@@QBE_NABV012@@Z ; std::_Tree<std::_Tmap_traits<unsigned long,CMailBox *,std::less<unsigned long>,std::allocator<std::pair<unsigned long const ,CMailBox *> >,0> >::const_iterator::operator==
; Function compile flags: /Ogty
; File c:\program files\microsoft visual studio .net 2003\vc7\include\xtree
;	COMDAT ??8const_iterator@?$_Tree@V?$_Tmap_traits@KPAVCMailBox@@U?$less@K@std@@V?$allocator@U?$pair@$$CBKPAVCMailBox@@@std@@@3@$0A@@std@@@std@@QBE_NABV012@@Z
_TEXT	SEGMENT
__Right$ = 8						; size = 4
??8const_iterator@?$_Tree@V?$_Tmap_traits@KPAVCMailBox@@U?$less@K@std@@V?$allocator@U?$pair@$$CBKPAVCMailBox@@@std@@@3@$0A@@std@@@std@@QBE_NABV012@@Z PROC NEAR ; std::_Tree<std::_Tmap_traits<unsigned long,CMailBox *,std::less<unsigned long>,std::allocator<std::pair<unsigned long const ,CMailBox *> >,0> >::const_iterator::operator==, COMDAT
; _this$ = ecx

; 241  : 			return (_Ptr == _Right._Ptr);

  00000	8b 01		 mov	 eax, DWORD PTR [ecx]
  00002	8b 4c 24 04	 mov	 ecx, DWORD PTR __Right$[esp-4]
  00006	2b 01		 sub	 eax, DWORD PTR [ecx]
  00008	f7 d8		 neg	 eax
  0000a	1b c0		 sbb	 eax, eax
  0000c	40		 inc	 eax

; 242  : 			}

  0000d	c2 04 00	 ret	 4
??8const_iterator@?$_Tree@V?$_Tmap_traits@KPAVCMailBox@@U?$less@K@std@@V?$allocator@U?$pair@$$CBKPAVCMailBox@@@std@@@3@$0A@@std@@@std@@QBE_NABV012@@Z ENDP ; std::_Tree<std::_Tmap_traits<unsigned long,CMailBox *,std::less<unsigned long>,std::allocator<std::pair<unsigned long const ,CMailBox *> >,0> >::const_iterator::operator==
_TEXT	ENDS
PUBLIC	?_Mynode@const_iterator@?$_Tree@V?$_Tmap_traits@KPAVCMailBox@@U?$less@K@std@@V?$allocator@U?$pair@$$CBKPAVCMailBox@@@std@@@3@$0A@@std@@@std@@QBEPAU_Node@?$_Tree_nod@V?$_Tmap_traits@KPAVCMailBox@@U?$less@K@std@@V?$allocator@U?$pair@$$CBKPAVCMailBox@@@std@@@3@$0A@@std@@@3@XZ ; std::_Tree<std::_Tmap_traits<unsigned long,CMailBox *,std::less<unsigned long>,std::allocator<std::pair<unsigned long const ,CMailBox *> >,0> >::const_iterator::_Mynode
; Function compile flags: /Ogty
;	COMDAT ?_Mynode@const_iterator@?$_Tree@V?$_Tmap_traits@KPAVCMailBox@@U?$less@K@std@@V?$allocator@U?$pair@$$CBKPAVCMailBox@@@std@@@3@$0A@@std@@@std@@QBEPAU_Node@?$_Tree_nod@V?$_Tmap_traits@KPAVCMailBox@@U?$less@K@std@@V?$allocator@U?$pair@$$CBKPAVCMailBox@@@std@@@3@$0A@@std@@@3@XZ
_TEXT	SEGMENT
?_Mynode@const_iterator@?$_Tree@V?$_Tmap_traits@KPAVCMailBox@@U?$less@K@std@@V?$allocator@U?$pair@$$CBKPAVCMailBox@@@std@@@3@$0A@@std@@@std@@QBEPAU_Node@?$_Tree_nod@V?$_Tmap_traits@KPAVCMailBox@@U?$less@K@std@@V?$allocator@U?$pair@$$CBKPAVCMailBox@@@std@@@3@$0A@@std@@@3@XZ PROC NEAR ; std::_Tree<std::_Tmap_traits<unsigned long,CMailBox *,std::less<unsigned long>,std::allocator<std::pair<unsigned long const ,CMailBox *> >,0> >::const_iterator::_Mynode, COMDAT
; _this$ = ecx

; 284  : 			return (_Ptr);

  00000	8b 01		 mov	 eax, DWORD PTR [ecx]

; 285  : 			}

  00002	c3		 ret	 0
?_Mynode@const_iterator@?$_Tree@V?$_Tmap_traits@KPAVCMailBox@@U?$less@K@std@@V?$allocator@U?$pair@$$CBKPAVCMailBox@@@std@@@3@$0A@@std@@@std@@QBEPAU_Node@?$_Tree_nod@V?$_Tmap_traits@KPAVCMailBox@@U?$less@K@std@@V?$allocator@U?$pair@$$CBKPAVCMailBox@@@std@@@3@$0A@@std@@@3@XZ ENDP ; std::_Tree<std::_Tmap_traits<unsigned long,CMailBox *,std::less<unsigned long>,std::allocator<std::pair<unsigned long const ,CMailBox *> >,0> >::const_iterator::_Mynode
_TEXT	ENDS
PUBLIC	??0?$pair@Viterator@?$_Tree@V?$_Tmap_traits@KPAVCMailBox@@U?$less@K@std@@V?$allocator@U?$pair@$$CBKPAVCMailBox@@@std@@@3@$0A@@std@@@std@@_N@std@@QAE@ABViterator@?$_Tree@V?$_Tmap_traits@KPAVCMailBox@@U?$less@K@std@@V?$allocator@U?$pair@$$CBKPAVCMailBox@@@std@@@3@$0A@@std@@@1@AB_N@Z ; std::pair<std::_Tree<std::_Tmap_traits<unsigned long,CMailBox *,std::less<unsigned long>,std::allocator<std::pair<unsigned long const ,CMailBox *> >,0> >::iterator,bool>::pair<std::_Tree<std::_Tmap_traits<unsigned long,CMailBox *,std::less<unsigned long>,std::allocator<std::pair<unsigned long const ,CMailBox *> >,0> >::iterator,bool>
; Function compile flags: /Ogty
; File c:\program files\microsoft visual studio .net 2003\vc7\include\utility
;	COMDAT ??0?$pair@Viterator@?$_Tree@V?$_Tmap_traits@KPAVCMailBox@@U?$less@K@std@@V?$allocator@U?$pair@$$CBKPAVCMailBox@@@std@@@3@$0A@@std@@@std@@_N@std@@QAE@ABViterator@?$_Tree@V?$_Tmap_traits@KPAVCMailBox@@U?$less@K@std@@V?$allocator@U?$pair@$$CBKPAVCMailBox@@@std@@@3@$0A@@std@@@1@AB_N@Z
_TEXT	SEGMENT
__Val1$ = 8						; size = 4
__Val2$ = 12						; size = 4
??0?$pair@Viterator@?$_Tree@V?$_Tmap_traits@KPAVCMailBox@@U?$less@K@std@@V?$allocator@U?$pair@$$CBKPAVCMailBox@@@std@@@3@$0A@@std@@@std@@_N@std@@QAE@ABViterator@?$_Tree@V?$_Tmap_traits@KPAVCMailBox@@U?$less@K@std@@V?$allocator@U?$pair@$$CBKPAVCMailBox@@@std@@@3@$0A@@std@@@1@AB_N@Z PROC NEAR ; std::pair<std::_Tree<std::_Tmap_traits<unsigned long,CMailBox *,std::less<unsigned long>,std::allocator<std::pair<unsigned long const ,CMailBox *> >,0> >::iterator,bool>::pair<std::_Tree<std::_Tmap_traits<unsigned long,CMailBox *,std::less<unsigned long>,std::allocator<std::pair<unsigned long const ,CMailBox *> >,0> >::iterator,bool>, COMDAT
; _this$ = ecx

; 34   : 		{	// construct from specified values

  00000	8b c1		 mov	 eax, ecx
  00002	8b 4c 24 04	 mov	 ecx, DWORD PTR __Val1$[esp-4]
  00006	8b 11		 mov	 edx, DWORD PTR [ecx]
  00008	8b 4c 24 08	 mov	 ecx, DWORD PTR __Val2$[esp-4]
  0000c	89 10		 mov	 DWORD PTR [eax], edx
  0000e	8a 11		 mov	 dl, BYTE PTR [ecx]
  00010	88 50 04	 mov	 BYTE PTR [eax+4], dl

; 35   : 		}

  00013	c2 08 00	 ret	 8
??0?$pair@Viterator@?$_Tree@V?$_Tmap_traits@KPAVCMailBox@@U?$less@K@std@@V?$allocator@U?$pair@$$CBKPAVCMailBox@@@std@@@3@$0A@@std@@@std@@_N@std@@QAE@ABViterator@?$_Tree@V?$_Tmap_traits@KPAVCMailBox@@U?$less@K@std@@V?$allocator@U?$pair@$$CBKPAVCMailBox@@@std@@@3@$0A@@std@@@1@AB_N@Z ENDP ; std::pair<std::_Tree<std::_Tmap_traits<unsigned long,CMailBox *,std::less<unsigned long>,std::allocator<std::pair<unsigned long const ,CMailBox *> >,0> >::iterator,bool>::pair<std::_Tree<std::_Tmap_traits<unsigned long,CMailBox *,std::less<unsigned long>,std::allocator<std::pair<unsigned long const ,CMailBox *> >,0> >::iterator,bool>
_TEXT	ENDS
PUBLIC	??0?$allocator@PAVCMail@@@std@@QAE@ABV01@@Z	; std::allocator<CMail *>::allocator<CMail *>
; Function compile flags: /Ogty
; File c:\program files\microsoft visual studio .net 2003\vc7\include\xmemory
;	COMDAT ??0?$allocator@PAVCMail@@@std@@QAE@ABV01@@Z
_TEXT	SEGMENT
___formal$ = 8						; size = 4
??0?$allocator@PAVCMail@@@std@@QAE@ABV01@@Z PROC NEAR	; std::allocator<CMail *>::allocator<CMail *>, COMDAT
; _this$ = ecx

; 115  : 	allocator(const allocator<_Ty>&)

  00000	8b c1		 mov	 eax, ecx

; 116  : 		{	// construct by copying (do nothing)
; 117  : 		}

  00002	c2 04 00	 ret	 4
??0?$allocator@PAVCMail@@@std@@QAE@ABV01@@Z ENDP	; std::allocator<CMail *>::allocator<CMail *>
_TEXT	ENDS
PUBLIC	?deallocate@?$allocator@PAVCMail@@@std@@QAEXPAPAVCMail@@I@Z ; std::allocator<CMail *>::deallocate
EXTRN	??3@YAXPAX@Z:NEAR				; operator delete
; Function compile flags: /Ogty
;	COMDAT ?deallocate@?$allocator@PAVCMail@@@std@@QAEXPAPAVCMail@@I@Z
_TEXT	SEGMENT
__Ptr$ = 8						; size = 4
___formal$ = 12						; size = 4
?deallocate@?$allocator@PAVCMail@@@std@@QAEXPAPAVCMail@@I@Z PROC NEAR ; std::allocator<CMail *>::deallocate, COMDAT
; _this$ = ecx

; 132  : 		operator delete(_Ptr);

  00000	8b 44 24 04	 mov	 eax, DWORD PTR __Ptr$[esp-4]
  00004	50		 push	 eax
  00005	e8 00 00 00 00	 call	 ??3@YAXPAX@Z		; operator delete
  0000a	59		 pop	 ecx

; 133  : 		}

  0000b	c2 08 00	 ret	 8
?deallocate@?$allocator@PAVCMail@@@std@@QAEXPAPAVCMail@@I@Z ENDP ; std::allocator<CMail *>::deallocate
_TEXT	ENDS
PUBLIC	?_Color@?$_Tree@V?$_Tmap_traits@KPAVCMailBox@@U?$less@K@std@@V?$allocator@U?$pair@$$CBKPAVCMailBox@@@std@@@3@$0A@@std@@@std@@KAAADPAU_Node@?$_Tree_nod@V?$_Tmap_traits@KPAVCMailBox@@U?$less@K@std@@V?$allocator@U?$pair@$$CBKPAVCMailBox@@@std@@@3@$0A@@std@@@2@@Z ; std::_Tree<std::_Tmap_traits<unsigned long,CMailBox *,std::less<unsigned long>,std::allocator<std::pair<unsigned long const ,CMailBox *> >,0> >::_Color
; Function compile flags: /Ogty
; File c:\program files\microsoft visual studio .net 2003\vc7\include\xtree
;	COMDAT ?_Color@?$_Tree@V?$_Tmap_traits@KPAVCMailBox@@U?$less@K@std@@V?$allocator@U?$pair@$$CBKPAVCMailBox@@@std@@@3@$0A@@std@@@std@@KAAADPAU_Node@?$_Tree_nod@V?$_Tmap_traits@KPAVCMailBox@@U?$less@K@std@@V?$allocator@U?$pair@$$CBKPAVCMailBox@@@std@@@3@$0A@@std@@@2@@Z
_TEXT	SEGMENT
__Pnode$ = 8						; size = 4
?_Color@?$_Tree@V?$_Tmap_traits@KPAVCMailBox@@U?$less@K@std@@V?$allocator@U?$pair@$$CBKPAVCMailBox@@@std@@@3@$0A@@std@@@std@@KAAADPAU_Node@?$_Tree_nod@V?$_Tmap_traits@KPAVCMailBox@@U?$less@K@std@@V?$allocator@U?$pair@$$CBKPAVCMailBox@@@std@@@3@$0A@@std@@@2@@Z PROC NEAR ; std::_Tree<std::_Tmap_traits<unsigned long,CMailBox *,std::less<unsigned long>,std::allocator<std::pair<unsigned long const ,CMailBox *> >,0> >::_Color, COMDAT

; 132  : 		return ((_Charref)(*_Pnode)._Color);

  00000	8b 44 24 04	 mov	 eax, DWORD PTR __Pnode$[esp-4]
  00004	83 c0 14	 add	 eax, 20			; 00000014H

; 133  : 		}

  00007	c3		 ret	 0
?_Color@?$_Tree@V?$_Tmap_traits@KPAVCMailBox@@U?$less@K@std@@V?$allocator@U?$pair@$$CBKPAVCMailBox@@@std@@@3@$0A@@std@@@std@@KAAADPAU_Node@?$_Tree_nod@V?$_Tmap_traits@KPAVCMailBox@@U?$less@K@std@@V?$allocator@U?$pair@$$CBKPAVCMailBox@@@std@@@3@$0A@@std@@@2@@Z ENDP ; std::_Tree<std::_Tmap_traits<unsigned long,CMailBox *,std::less<unsigned long>,std::allocator<std::pair<unsigned long const ,CMailBox *> >,0> >::_Color
_TEXT	ENDS
PUBLIC	?_Parent@?$_Tree@V?$_Tmap_traits@KPAVCMailBox@@U?$less@K@std@@V?$allocator@U?$pair@$$CBKPAVCMailBox@@@std@@@3@$0A@@std@@@std@@KAAAPAU_Node@?$_Tree_nod@V?$_Tmap_traits@KPAVCMailBox@@U?$less@K@std@@V?$allocator@U?$pair@$$CBKPAVCMailBox@@@std@@@3@$0A@@std@@@2@PAU342@@Z ; std::_Tree<std::_Tmap_traits<unsigned long,CMailBox *,std::less<unsigned long>,std::allocator<std::pair<unsigned long const ,CMailBox *> >,0> >::_Parent
; Function compile flags: /Ogty
;	COMDAT ?_Parent@?$_Tree@V?$_Tmap_traits@KPAVCMailBox@@U?$less@K@std@@V?$allocator@U?$pair@$$CBKPAVCMailBox@@@std@@@3@$0A@@std@@@std@@KAAAPAU_Node@?$_Tree_nod@V?$_Tmap_traits@KPAVCMailBox@@U?$less@K@std@@V?$allocator@U?$pair@$$CBKPAVCMailBox@@@std@@@3@$0A@@std@@@2@PAU342@@Z
_TEXT	SEGMENT
__Pnode$ = 8						; size = 4
?_Parent@?$_Tree@V?$_Tmap_traits@KPAVCMailBox@@U?$less@K@std@@V?$allocator@U?$pair@$$CBKPAVCMailBox@@@std@@@3@$0A@@std@@@std@@KAAAPAU_Node@?$_Tree_nod@V?$_Tmap_traits@KPAVCMailBox@@U?$less@K@std@@V?$allocator@U?$pair@$$CBKPAVCMailBox@@@std@@@3@$0A@@std@@@2@PAU342@@Z PROC NEAR ; std::_Tree<std::_Tmap_traits<unsigned long,CMailBox *,std::less<unsigned long>,std::allocator<std::pair<unsigned long const ,CMailBox *> >,0> >::_Parent, COMDAT

; 152  : 		return ((_Nodepref)(*_Pnode)._Parent);

  00000	8b 44 24 04	 mov	 eax, DWORD PTR __Pnode$[esp-4]
  00004	83 c0 04	 add	 eax, 4

; 153  : 		}

  00007	c3		 ret	 0
?_Parent@?$_Tree@V?$_Tmap_traits@KPAVCMailBox@@U?$less@K@std@@V?$allocator@U?$pair@$$CBKPAVCMailBox@@@std@@@3@$0A@@std@@@std@@KAAAPAU_Node@?$_Tree_nod@V?$_Tmap_traits@KPAVCMailBox@@U?$less@K@std@@V?$allocator@U?$pair@$$CBKPAVCMailBox@@@std@@@3@$0A@@std@@@2@PAU342@@Z ENDP ; std::_Tree<std::_Tmap_traits<unsigned long,CMailBox *,std::less<unsigned long>,std::allocator<std::pair<unsigned long const ,CMailBox *> >,0> >::_Parent
_TEXT	ENDS
PUBLIC	?_Myval@?$_Tree@V?$_Tmap_traits@KPAVCMailBox@@U?$less@K@std@@V?$allocator@U?$pair@$$CBKPAVCMailBox@@@std@@@3@$0A@@std@@@std@@KAAAU?$pair@$$CBKPAVCMailBox@@@2@PAU_Node@?$_Tree_nod@V?$_Tmap_traits@KPAVCMailBox@@U?$less@K@std@@V?$allocator@U?$pair@$$CBKPAVCMailBox@@@std@@@3@$0A@@std@@@2@@Z ; std::_Tree<std::_Tmap_traits<unsigned long,CMailBox *,std::less<unsigned long>,std::allocator<std::pair<unsigned long const ,CMailBox *> >,0> >::_Myval
; Function compile flags: /Ogty
;	COMDAT ?_Myval@?$_Tree@V?$_Tmap_traits@KPAVCMailBox@@U?$less@K@std@@V?$allocator@U?$pair@$$CBKPAVCMailBox@@@std@@@3@$0A@@std@@@std@@KAAAU?$pair@$$CBKPAVCMailBox@@@2@PAU_Node@?$_Tree_nod@V?$_Tmap_traits@KPAVCMailBox@@U?$less@K@std@@V?$allocator@U?$pair@$$CBKPAVCMailBox@@@std@@@3@$0A@@std@@@2@@Z
_TEXT	SEGMENT
__Pnode$ = 8						; size = 4
?_Myval@?$_Tree@V?$_Tmap_traits@KPAVCMailBox@@U?$less@K@std@@V?$allocator@U?$pair@$$CBKPAVCMailBox@@@std@@@3@$0A@@std@@@std@@KAAAU?$pair@$$CBKPAVCMailBox@@@2@PAU_Node@?$_Tree_nod@V?$_Tmap_traits@KPAVCMailBox@@U?$less@K@std@@V?$allocator@U?$pair@$$CBKPAVCMailBox@@@std@@@3@$0A@@std@@@2@@Z PROC NEAR ; std::_Tree<std::_Tmap_traits<unsigned long,CMailBox *,std::less<unsigned long>,std::allocator<std::pair<unsigned long const ,CMailBox *> >,0> >::_Myval, COMDAT

; 162  : 		return ((_Vref)(*_Pnode)._Myval);

  00000	8b 44 24 04	 mov	 eax, DWORD PTR __Pnode$[esp-4]
  00004	83 c0 0c	 add	 eax, 12			; 0000000cH

; 163  : 		}

  00007	c3		 ret	 0
?_Myval@?$_Tree@V?$_Tmap_traits@KPAVCMailBox@@U?$less@K@std@@V?$allocator@U?$pair@$$CBKPAVCMailBox@@@std@@@3@$0A@@std@@@std@@KAAAU?$pair@$$CBKPAVCMailBox@@@2@PAU_Node@?$_Tree_nod@V?$_Tmap_traits@KPAVCMailBox@@U?$less@K@std@@V?$allocator@U?$pair@$$CBKPAVCMailBox@@@std@@@3@$0A@@std@@@2@@Z ENDP ; std::_Tree<std::_Tmap_traits<unsigned long,CMailBox *,std::less<unsigned long>,std::allocator<std::pair<unsigned long const ,CMailBox *> >,0> >::_Myval
_TEXT	ENDS
PUBLIC	??0?$allocator@U?$pair@$$CBKPAVCMailBox@@@std@@@std@@QAE@ABV01@@Z ; std::allocator<std::pair<unsigned long const ,CMailBox *> >::allocator<std::pair<unsigned long const ,CMailBox *> >
; Function compile flags: /Ogty
; File c:\program files\microsoft visual studio .net 2003\vc7\include\xmemory
;	COMDAT ??0?$allocator@U?$pair@$$CBKPAVCMailBox@@@std@@@std@@QAE@ABV01@@Z
_TEXT	SEGMENT
___formal$ = 8						; size = 4
??0?$allocator@U?$pair@$$CBKPAVCMailBox@@@std@@@std@@QAE@ABV01@@Z PROC NEAR ; std::allocator<std::pair<unsigned long const ,CMailBox *> >::allocator<std::pair<unsigned long const ,CMailBox *> >, COMDAT
; _this$ = ecx

; 115  : 	allocator(const allocator<_Ty>&)

  00000	8b c1		 mov	 eax, ecx

; 116  : 		{	// construct by copying (do nothing)
; 117  : 		}

  00002	c2 04 00	 ret	 4
??0?$allocator@U?$pair@$$CBKPAVCMailBox@@@std@@@std@@QAE@ABV01@@Z ENDP ; std::allocator<std::pair<unsigned long const ,CMailBox *> >::allocator<std::pair<unsigned long const ,CMailBox *> >
_TEXT	ENDS
PUBLIC	?deallocate@?$allocator@U_Node@?$_Tree_nod@V?$_Tmap_traits@KPAVCMailBox@@U?$less@K@std@@V?$allocator@U?$pair@$$CBKPAVCMailBox@@@std@@@3@$0A@@std@@@std@@@std@@QAEXPAU_Node@?$_Tree_nod@V?$_Tmap_traits@KPAVCMailBox@@U?$less@K@std@@V?$allocator@U?$pair@$$CBKPAVCMailBox@@@std@@@3@$0A@@std@@@2@I@Z ; std::allocator<std::_Tree_nod<std::_Tmap_traits<unsigned long,CMailBox *,std::less<unsigned long>,std::allocator<std::pair<unsigned long const ,CMailBox *> >,0> >::_Node>::deallocate
; Function compile flags: /Ogty
;	COMDAT ?deallocate@?$allocator@U_Node@?$_Tree_nod@V?$_Tmap_traits@KPAVCMailBox@@U?$less@K@std@@V?$allocator@U?$pair@$$CBKPAVCMailBox@@@std@@@3@$0A@@std@@@std@@@std@@QAEXPAU_Node@?$_Tree_nod@V?$_Tmap_traits@KPAVCMailBox@@U?$less@K@std@@V?$allocator@U?$pair@$$CBKPAVCMailBox@@@std@@@3@$0A@@std@@@2@I@Z
_TEXT	SEGMENT
__Ptr$ = 8						; size = 4
___formal$ = 12						; size = 4
?deallocate@?$allocator@U_Node@?$_Tree_nod@V?$_Tmap_traits@KPAVCMailBox@@U?$less@K@std@@V?$allocator@U?$pair@$$CBKPAVCMailBox@@@std@@@3@$0A@@std@@@std@@@std@@QAEXPAU_Node@?$_Tree_nod@V?$_Tmap_traits@KPAVCMailBox@@U?$less@K@std@@V?$allocator@U?$pair@$$CBKPAVCMailBox@@@std@@@3@$0A@@std@@@2@I@Z PROC NEAR ; std::allocator<std::_Tree_nod<std::_Tmap_traits<unsigned long,CMailBox *,std::less<unsigned long>,std::allocator<std::pair<unsigned long const ,CMailBox *> >,0> >::_Node>::deallocate, COMDAT
; _this$ = ecx

; 132  : 		operator delete(_Ptr);

  00000	8b 44 24 04	 mov	 eax, DWORD PTR __Ptr$[esp-4]
  00004	50		 push	 eax
  00005	e8 00 00 00 00	 call	 ??3@YAXPAX@Z		; operator delete
  0000a	59		 pop	 ecx

; 133  : 		}

  0000b	c2 08 00	 ret	 8
?deallocate@?$allocator@U_Node@?$_Tree_nod@V?$_Tmap_traits@KPAVCMailBox@@U?$less@K@std@@V?$allocator@U?$pair@$$CBKPAVCMailBox@@@std@@@3@$0A@@std@@@std@@@std@@QAEXPAU_Node@?$_Tree_nod@V?$_Tmap_traits@KPAVCMailBox@@U?$less@K@std@@V?$allocator@U?$pair@$$CBKPAVCMailBox@@@std@@@3@$0A@@std@@@2@I@Z ENDP ; std::allocator<std::_Tree_nod<std::_Tmap_traits<unsigned long,CMailBox *,std::less<unsigned long>,std::allocator<std::pair<unsigned long const ,CMailBox *> >,0> >::_Node>::deallocate
_TEXT	ENDS
PUBLIC	??0const_iterator@?$vector@PAVCMail@@V?$allocator@PAVCMail@@@std@@@std@@QAE@PAPAVCMail@@@Z ; std::vector<CMail *,std::allocator<CMail *> >::const_iterator::const_iterator
; Function compile flags: /Ogty
; File c:\program files\microsoft visual studio .net 2003\vc7\include\vector
;	COMDAT ??0const_iterator@?$vector@PAVCMail@@V?$allocator@PAVCMail@@@std@@@std@@QAE@PAPAVCMail@@@Z
_TEXT	SEGMENT
__Ptr$ = 8						; size = 4
??0const_iterator@?$vector@PAVCMail@@V?$allocator@PAVCMail@@@std@@@std@@QAE@PAPAVCMail@@@Z PROC NEAR ; std::vector<CMail *,std::allocator<CMail *> >::const_iterator::const_iterator, COMDAT
; _this$ = ecx

; 73   : 		const_iterator(_Tptr _Ptr)

  00000	8b c1		 mov	 eax, ecx

; 74   : 			{	// construct with pointer _Ptr
; 75   : 			_Myptr = _Ptr;

  00002	8b 4c 24 04	 mov	 ecx, DWORD PTR __Ptr$[esp-4]
  00006	89 08		 mov	 DWORD PTR [eax], ecx

; 76   : 			}

  00008	c2 04 00	 ret	 4
??0const_iterator@?$vector@PAVCMail@@V?$allocator@PAVCMail@@@std@@@std@@QAE@PAPAVCMail@@@Z ENDP ; std::vector<CMail *,std::allocator<CMail *> >::const_iterator::const_iterator
_TEXT	ENDS
PUBLIC	??0const_iterator@?$_Tree@V?$_Tmap_traits@KPAVCMailBox@@U?$less@K@std@@V?$allocator@U?$pair@$$CBKPAVCMailBox@@@std@@@3@$0A@@std@@@std@@QAE@PAU_Node@?$_Tree_nod@V?$_Tmap_traits@KPAVCMailBox@@U?$less@K@std@@V?$allocator@U?$pair@$$CBKPAVCMailBox@@@std@@@3@$0A@@std@@@2@@Z ; std::_Tree<std::_Tmap_traits<unsigned long,CMailBox *,std::less<unsigned long>,std::allocator<std::pair<unsigned long const ,CMailBox *> >,0> >::const_iterator::const_iterator
; Function compile flags: /Ogty
; File c:\program files\microsoft visual studio .net 2003\vc7\include\xtree
;	COMDAT ??0const_iterator@?$_Tree@V?$_Tmap_traits@KPAVCMailBox@@U?$less@K@std@@V?$allocator@U?$pair@$$CBKPAVCMailBox@@@std@@@3@$0A@@std@@@std@@QAE@PAU_Node@?$_Tree_nod@V?$_Tmap_traits@KPAVCMailBox@@U?$less@K@std@@V?$allocator@U?$pair@$$CBKPAVCMailBox@@@std@@@3@$0A@@std@@@2@@Z
_TEXT	SEGMENT
__Pnode$ = 8						; size = 4
??0const_iterator@?$_Tree@V?$_Tmap_traits@KPAVCMailBox@@U?$less@K@std@@V?$allocator@U?$pair@$$CBKPAVCMailBox@@@std@@@3@$0A@@std@@@std@@QAE@PAU_Node@?$_Tree_nod@V?$_Tmap_traits@KPAVCMailBox@@U?$less@K@std@@V?$allocator@U?$pair@$$CBKPAVCMailBox@@@std@@@3@$0A@@std@@@2@@Z PROC NEAR ; std::_Tree<std::_Tmap_traits<unsigned long,CMailBox *,std::less<unsigned long>,std::allocator<std::pair<unsigned long const ,CMailBox *> >,0> >::const_iterator::const_iterator, COMDAT
; _this$ = ecx

; 200  : 			{	// construct with node pointer _Pnode

  00000	8b c1		 mov	 eax, ecx
  00002	8b 4c 24 04	 mov	 ecx, DWORD PTR __Pnode$[esp-4]
  00006	89 08		 mov	 DWORD PTR [eax], ecx

; 201  : 			}

  00008	c2 04 00	 ret	 4
??0const_iterator@?$_Tree@V?$_Tmap_traits@KPAVCMailBox@@U?$less@K@std@@V?$allocator@U?$pair@$$CBKPAVCMailBox@@@std@@@3@$0A@@std@@@std@@QAE@PAU_Node@?$_Tree_nod@V?$_Tmap_traits@KPAVCMailBox@@U?$less@K@std@@V?$allocator@U?$pair@$$CBKPAVCMailBox@@@std@@@3@$0A@@std@@@2@@Z ENDP ; std::_Tree<std::_Tmap_traits<unsigned long,CMailBox *,std::less<unsigned long>,std::allocator<std::pair<unsigned long const ,CMailBox *> >,0> >::const_iterator::const_iterator
_TEXT	ENDS
PUBLIC	??Dconst_iterator@?$_Tree@V?$_Tmap_traits@KPAVCMailBox@@U?$less@K@std@@V?$allocator@U?$pair@$$CBKPAVCMailBox@@@std@@@3@$0A@@std@@@std@@QBEABU?$pair@$$CBKPAVCMailBox@@@2@XZ ; std::_Tree<std::_Tmap_traits<unsigned long,CMailBox *,std::less<unsigned long>,std::allocator<std::pair<unsigned long const ,CMailBox *> >,0> >::const_iterator::operator*
; Function compile flags: /Ogty
;	COMDAT ??Dconst_iterator@?$_Tree@V?$_Tmap_traits@KPAVCMailBox@@U?$less@K@std@@V?$allocator@U?$pair@$$CBKPAVCMailBox@@@std@@@3@$0A@@std@@@std@@QBEABU?$pair@$$CBKPAVCMailBox@@@2@XZ
_TEXT	SEGMENT
??Dconst_iterator@?$_Tree@V?$_Tmap_traits@KPAVCMailBox@@U?$less@K@std@@V?$allocator@U?$pair@$$CBKPAVCMailBox@@@std@@@3@$0A@@std@@@std@@QBEABU?$pair@$$CBKPAVCMailBox@@@2@XZ PROC NEAR ; std::_Tree<std::_Tmap_traits<unsigned long,CMailBox *,std::less<unsigned long>,std::allocator<std::pair<unsigned long const ,CMailBox *> >,0> >::const_iterator::operator*, COMDAT
; _this$ = ecx

; 205  : 			return (_Myval(_Ptr));

  00000	8b 01		 mov	 eax, DWORD PTR [ecx]
  00002	83 c0 0c	 add	 eax, 12			; 0000000cH

; 206  : 			}

  00005	c3		 ret	 0
??Dconst_iterator@?$_Tree@V?$_Tmap_traits@KPAVCMailBox@@U?$less@K@std@@V?$allocator@U?$pair@$$CBKPAVCMailBox@@@std@@@3@$0A@@std@@@std@@QBEABU?$pair@$$CBKPAVCMailBox@@@2@XZ ENDP ; std::_Tree<std::_Tmap_traits<unsigned long,CMailBox *,std::less<unsigned long>,std::allocator<std::pair<unsigned long const ,CMailBox *> >,0> >::const_iterator::operator*
_TEXT	ENDS
PUBLIC	?max_size@?$allocator@PAVCMail@@@std@@QBEIXZ	; std::allocator<CMail *>::max_size
; Function compile flags: /Ogty
; File c:\program files\microsoft visual studio .net 2003\vc7\include\xmemory
;	COMDAT ?max_size@?$allocator@PAVCMail@@@std@@QBEIXZ
_TEXT	SEGMENT
?max_size@?$allocator@PAVCMail@@@std@@QBEIXZ PROC NEAR	; std::allocator<CMail *>::max_size, COMDAT
; _this$ = ecx

; 157  : 		_SIZT _Count = (_SIZT)(-1) / sizeof (_Ty);
; 158  : 		return (0 < _Count ? _Count : 1);

  00000	b8 ff ff ff 3f	 mov	 eax, 1073741823		; 3fffffffH

; 159  : 		}

  00005	c3		 ret	 0
?max_size@?$allocator@PAVCMail@@@std@@QBEIXZ ENDP	; std::allocator<CMail *>::max_size
_TEXT	ENDS
PUBLIC	?_Min@?$_Tree@V?$_Tmap_traits@KPAVCMailBox@@U?$less@K@std@@V?$allocator@U?$pair@$$CBKPAVCMailBox@@@std@@@3@$0A@@std@@@std@@KAPAU_Node@?$_Tree_nod@V?$_Tmap_traits@KPAVCMailBox@@U?$less@K@std@@V?$allocator@U?$pair@$$CBKPAVCMailBox@@@std@@@3@$0A@@std@@@2@PAU342@@Z ; std::_Tree<std::_Tmap_traits<unsigned long,CMailBox *,std::less<unsigned long>,std::allocator<std::pair<unsigned long const ,CMailBox *> >,0> >::_Min
; Function compile flags: /Ogty
; File c:\program files\microsoft visual studio .net 2003\vc7\include\xtree
;	COMDAT ?_Min@?$_Tree@V?$_Tmap_traits@KPAVCMailBox@@U?$less@K@std@@V?$allocator@U?$pair@$$CBKPAVCMailBox@@@std@@@3@$0A@@std@@@std@@KAPAU_Node@?$_Tree_nod@V?$_Tmap_traits@KPAVCMailBox@@U?$less@K@std@@V?$allocator@U?$pair@$$CBKPAVCMailBox@@@std@@@3@$0A@@std@@@2@PAU342@@Z
_TEXT	SEGMENT
__Pnode$ = 8						; size = 4
?_Min@?$_Tree@V?$_Tmap_traits@KPAVCMailBox@@U?$less@K@std@@V?$allocator@U?$pair@$$CBKPAVCMailBox@@@std@@@3@$0A@@std@@@std@@KAPAU_Node@?$_Tree_nod@V?$_Tmap_traits@KPAVCMailBox@@U?$less@K@std@@V?$allocator@U?$pair@$$CBKPAVCMailBox@@@std@@@3@$0A@@std@@@2@PAU342@@Z PROC NEAR ; std::_Tree<std::_Tmap_traits<unsigned long,CMailBox *,std::less<unsigned long>,std::allocator<std::pair<unsigned long const ,CMailBox *> >,0> >::_Min, COMDAT

; 1042 : 		while (!_Isnil(_Left(_Pnode)))

  00000	8b 44 24 04	 mov	 eax, DWORD PTR __Pnode$[esp-4]
  00004	8b 08		 mov	 ecx, DWORD PTR [eax]
  00006	8a 51 15	 mov	 dl, BYTE PTR [ecx+21]
  00009	84 d2		 test	 dl, dl
  0000b	75 0e		 jne	 SHORT $L227754
  0000d	8d 49 00	 npad	 3
$L227753:

; 1043 : 			_Pnode = _Left(_Pnode);

  00010	8b c1		 mov	 eax, ecx
  00012	8b 08		 mov	 ecx, DWORD PTR [eax]
  00014	8a 51 15	 mov	 dl, BYTE PTR [ecx+21]
  00017	84 d2		 test	 dl, dl
  00019	74 f5		 je	 SHORT $L227753
$L227754:

; 1044 : 		return (_Pnode);
; 1045 : 		}

  0001b	c3		 ret	 0
?_Min@?$_Tree@V?$_Tmap_traits@KPAVCMailBox@@U?$less@K@std@@V?$allocator@U?$pair@$$CBKPAVCMailBox@@@std@@@3@$0A@@std@@@std@@KAPAU_Node@?$_Tree_nod@V?$_Tmap_traits@KPAVCMailBox@@U?$less@K@std@@V?$allocator@U?$pair@$$CBKPAVCMailBox@@@std@@@3@$0A@@std@@@2@PAU342@@Z ENDP ; std::_Tree<std::_Tmap_traits<unsigned long,CMailBox *,std::less<unsigned long>,std::allocator<std::pair<unsigned long const ,CMailBox *> >,0> >::_Min
_TEXT	ENDS
PUBLIC	?_Root@?$_Tree@V?$_Tmap_traits@KPAVCMailBox@@U?$less@K@std@@V?$allocator@U?$pair@$$CBKPAVCMailBox@@@std@@@3@$0A@@std@@@std@@IBEAAPAU_Node@?$_Tree_nod@V?$_Tmap_traits@KPAVCMailBox@@U?$less@K@std@@V?$allocator@U?$pair@$$CBKPAVCMailBox@@@std@@@3@$0A@@std@@@2@XZ ; std::_Tree<std::_Tmap_traits<unsigned long,CMailBox *,std::less<unsigned long>,std::allocator<std::pair<unsigned long const ,CMailBox *> >,0> >::_Root
; Function compile flags: /Ogty
;	COMDAT ?_Root@?$_Tree@V?$_Tmap_traits@KPAVCMailBox@@U?$less@K@std@@V?$allocator@U?$pair@$$CBKPAVCMailBox@@@std@@@3@$0A@@std@@@std@@IBEAAPAU_Node@?$_Tree_nod@V?$_Tmap_traits@KPAVCMailBox@@U?$less@K@std@@V?$allocator@U?$pair@$$CBKPAVCMailBox@@@std@@@3@$0A@@std@@@2@XZ
_TEXT	SEGMENT
?_Root@?$_Tree@V?$_Tmap_traits@KPAVCMailBox@@U?$less@K@std@@V?$allocator@U?$pair@$$CBKPAVCMailBox@@@std@@@3@$0A@@std@@@std@@IBEAAPAU_Node@?$_Tree_nod@V?$_Tmap_traits@KPAVCMailBox@@U?$less@K@std@@V?$allocator@U?$pair@$$CBKPAVCMailBox@@@std@@@3@$0A@@std@@@2@XZ PROC NEAR ; std::_Tree<std::_Tmap_traits<unsigned long,CMailBox *,std::less<unsigned long>,std::allocator<std::pair<unsigned long const ,CMailBox *> >,0> >::_Root, COMDAT
; _this$ = ecx

; 1064 : 		return (_Parent(_Myhead));

  00000	8b 41 04	 mov	 eax, DWORD PTR [ecx+4]
  00003	83 c0 04	 add	 eax, 4

; 1065 : 		}

  00006	c3		 ret	 0
?_Root@?$_Tree@V?$_Tmap_traits@KPAVCMailBox@@U?$less@K@std@@V?$allocator@U?$pair@$$CBKPAVCMailBox@@@std@@@3@$0A@@std@@@std@@IBEAAPAU_Node@?$_Tree_nod@V?$_Tmap_traits@KPAVCMailBox@@U?$less@K@std@@V?$allocator@U?$pair@$$CBKPAVCMailBox@@@std@@@3@$0A@@std@@@2@XZ ENDP ; std::_Tree<std::_Tmap_traits<unsigned long,CMailBox *,std::less<unsigned long>,std::allocator<std::pair<unsigned long const ,CMailBox *> >,0> >::_Root
_TEXT	ENDS
PUBLIC	?max_size@?$allocator@U?$pair@$$CBKPAVCMailBox@@@std@@@std@@QBEIXZ ; std::allocator<std::pair<unsigned long const ,CMailBox *> >::max_size
; Function compile flags: /Ogty
; File c:\program files\microsoft visual studio .net 2003\vc7\include\xmemory
;	COMDAT ?max_size@?$allocator@U?$pair@$$CBKPAVCMailBox@@@std@@@std@@QBEIXZ
_TEXT	SEGMENT
?max_size@?$allocator@U?$pair@$$CBKPAVCMailBox@@@std@@@std@@QBEIXZ PROC NEAR ; std::allocator<std::pair<unsigned long const ,CMailBox *> >::max_size, COMDAT
; _this$ = ecx

; 157  : 		_SIZT _Count = (_SIZT)(-1) / sizeof (_Ty);
; 158  : 		return (0 < _Count ? _Count : 1);

  00000	b8 ff ff ff 1f	 mov	 eax, 536870911		; 1fffffffH

; 159  : 		}

  00005	c3		 ret	 0
?max_size@?$allocator@U?$pair@$$CBKPAVCMailBox@@@std@@@std@@QBEIXZ ENDP ; std::allocator<std::pair<unsigned long const ,CMailBox *> >::max_size
_TEXT	ENDS
PUBLIC	??Yiterator@?$vector@PAVCMail@@V?$allocator@PAVCMail@@@std@@@std@@QAEAAV012@H@Z ; std::vector<CMail *,std::allocator<CMail *> >::iterator::operator+=
; Function compile flags: /Ogty
; File c:\program files\microsoft visual studio .net 2003\vc7\include\vector
;	COMDAT ??Yiterator@?$vector@PAVCMail@@V?$allocator@PAVCMail@@@std@@@std@@QAEAAV012@H@Z
_TEXT	SEGMENT
__Off$ = 8						; size = 4
??Yiterator@?$vector@PAVCMail@@V?$allocator@PAVCMail@@@std@@@std@@QAEAAV012@H@Z PROC NEAR ; std::vector<CMail *,std::allocator<CMail *> >::iterator::operator+=, COMDAT
; _this$ = ecx

; 255  : 			{	// increment by integer

  00000	8b c1		 mov	 eax, ecx

; 256  : 			this->_Myptr += _Off;

  00002	8b 4c 24 04	 mov	 ecx, DWORD PTR __Off$[esp-4]
  00006	8d 14 8d 00 00
	00 00		 lea	 edx, DWORD PTR [ecx*4]
  0000d	01 10		 add	 DWORD PTR [eax], edx

; 257  : 			return (*this);
; 258  : 			}

  0000f	c2 04 00	 ret	 4
??Yiterator@?$vector@PAVCMail@@V?$allocator@PAVCMail@@@std@@@std@@QAEAAV012@H@Z ENDP ; std::vector<CMail *,std::allocator<CMail *> >::iterator::operator+=
_TEXT	ENDS
PUBLIC	??Gconst_iterator@?$vector@PAVCMail@@V?$allocator@PAVCMail@@@std@@@std@@QBEHABV012@@Z ; std::vector<CMail *,std::allocator<CMail *> >::const_iterator::operator-
; Function compile flags: /Ogty
;	COMDAT ??Gconst_iterator@?$vector@PAVCMail@@V?$allocator@PAVCMail@@@std@@@std@@QBEHABV012@@Z
_TEXT	SEGMENT
__Right$ = 8						; size = 4
??Gconst_iterator@?$vector@PAVCMail@@V?$allocator@PAVCMail@@@std@@@std@@QBEHABV012@@Z PROC NEAR ; std::vector<CMail *,std::allocator<CMail *> >::const_iterator::operator-, COMDAT
; _this$ = ecx

; 141  : 
; 142  : 
; 143  : 			return (_Myptr - _Right._Myptr);

  00000	8b 01		 mov	 eax, DWORD PTR [ecx]
  00002	8b 4c 24 04	 mov	 ecx, DWORD PTR __Right$[esp-4]
  00006	2b 01		 sub	 eax, DWORD PTR [ecx]
  00008	c1 f8 02	 sar	 eax, 2

; 144  : 			}

  0000b	c2 04 00	 ret	 4
??Gconst_iterator@?$vector@PAVCMail@@V?$allocator@PAVCMail@@@std@@@std@@QBEHABV012@@Z ENDP ; std::vector<CMail *,std::allocator<CMail *> >::const_iterator::operator-
_TEXT	ENDS
PUBLIC	??0CTime@ATL@@QAE@_J@Z				; ATL::CTime::CTime
; Function compile flags: /Ogty
; File c:\program files\microsoft visual studio .net 2003\vc7\atlmfc\include\atltime.inl
;	COMDAT ??0CTime@ATL@@QAE@_J@Z
_TEXT	SEGMENT
_time$ = 8						; size = 8
??0CTime@ATL@@QAE@_J@Z PROC NEAR			; ATL::CTime::CTime, COMDAT
; _this$ = ecx

; 167  : {

  00000	8b 54 24 08	 mov	 edx, DWORD PTR _time$[esp]
  00004	8b c1		 mov	 eax, ecx
  00006	8b 4c 24 04	 mov	 ecx, DWORD PTR _time$[esp-4]
  0000a	89 08		 mov	 DWORD PTR [eax], ecx
  0000c	89 50 04	 mov	 DWORD PTR [eax+4], edx

; 168  : }

  0000f	c2 08 00	 ret	 8
??0CTime@ATL@@QAE@_J@Z ENDP				; ATL::CTime::CTime
_TEXT	ENDS
PUBLIC	??0_Node@?$_Tree_nod@V?$_Tmap_traits@KPAVCMailBox@@U?$less@K@std@@V?$allocator@U?$pair@$$CBKPAVCMailBox@@@std@@@3@$0A@@std@@@std@@QAE@PAU012@00ABU?$pair@$$CBKPAVCMailBox@@@2@D@Z ; std::_Tree_nod<std::_Tmap_traits<unsigned long,CMailBox *,std::less<unsigned long>,std::allocator<std::pair<unsigned long const ,CMailBox *> >,0> >::_Node::_Node
; Function compile flags: /Ogty
; File c:\program files\microsoft visual studio .net 2003\vc7\include\xtree
;	COMDAT ??0_Node@?$_Tree_nod@V?$_Tmap_traits@KPAVCMailBox@@U?$less@K@std@@V?$allocator@U?$pair@$$CBKPAVCMailBox@@@std@@@3@$0A@@std@@@std@@QAE@PAU012@00ABU?$pair@$$CBKPAVCMailBox@@@2@D@Z
_TEXT	SEGMENT
__Larg$ = 8						; size = 4
__Parg$ = 12						; size = 4
__Rarg$ = 16						; size = 4
__Val$ = 20						; size = 4
__Carg$ = 24						; size = 1
??0_Node@?$_Tree_nod@V?$_Tmap_traits@KPAVCMailBox@@U?$less@K@std@@V?$allocator@U?$pair@$$CBKPAVCMailBox@@@std@@@3@$0A@@std@@@std@@QAE@PAU012@00ABU?$pair@$$CBKPAVCMailBox@@@2@D@Z PROC NEAR ; std::_Tree_nod<std::_Tmap_traits<unsigned long,CMailBox *,std::less<unsigned long>,std::allocator<std::pair<unsigned long const ,CMailBox *> >,0> >::_Node::_Node, COMDAT
; _this$ = ecx

; 40   : 			{	// construct a node with value

  00000	8b 54 24 08	 mov	 edx, DWORD PTR __Parg$[esp-4]
  00004	8b c1		 mov	 eax, ecx
  00006	8b 4c 24 04	 mov	 ecx, DWORD PTR __Larg$[esp-4]
  0000a	89 08		 mov	 DWORD PTR [eax], ecx
  0000c	8b 4c 24 0c	 mov	 ecx, DWORD PTR __Rarg$[esp-4]
  00010	89 48 08	 mov	 DWORD PTR [eax+8], ecx
  00013	8b 4c 24 10	 mov	 ecx, DWORD PTR __Val$[esp-4]
  00017	89 50 04	 mov	 DWORD PTR [eax+4], edx
  0001a	8b 11		 mov	 edx, DWORD PTR [ecx]
  0001c	89 50 0c	 mov	 DWORD PTR [eax+12], edx
  0001f	8b 49 04	 mov	 ecx, DWORD PTR [ecx+4]
  00022	8a 54 24 14	 mov	 dl, BYTE PTR __Carg$[esp-4]
  00026	89 48 10	 mov	 DWORD PTR [eax+16], ecx
  00029	88 50 14	 mov	 BYTE PTR [eax+20], dl
  0002c	c6 40 15 00	 mov	 BYTE PTR [eax+21], 0

; 41   : 			}

  00030	c2 14 00	 ret	 20			; 00000014H
??0_Node@?$_Tree_nod@V?$_Tmap_traits@KPAVCMailBox@@U?$less@K@std@@V?$allocator@U?$pair@$$CBKPAVCMailBox@@@std@@@3@$0A@@std@@@std@@QAE@PAU012@00ABU?$pair@$$CBKPAVCMailBox@@@2@D@Z ENDP ; std::_Tree_nod<std::_Tmap_traits<unsigned long,CMailBox *,std::less<unsigned long>,std::allocator<std::pair<unsigned long const ,CMailBox *> >,0> >::_Node::_Node
_TEXT	ENDS
PUBLIC	?_Max@?$_Tree@V?$_Tmap_traits@KPAVCMailBox@@U?$less@K@std@@V?$allocator@U?$pair@$$CBKPAVCMailBox@@@std@@@3@$0A@@std@@@std@@KAPAU_Node@?$_Tree_nod@V?$_Tmap_traits@KPAVCMailBox@@U?$less@K@std@@V?$allocator@U?$pair@$$CBKPAVCMailBox@@@std@@@3@$0A@@std@@@2@PAU342@@Z ; std::_Tree<std::_Tmap_traits<unsigned long,CMailBox *,std::less<unsigned long>,std::allocator<std::pair<unsigned long const ,CMailBox *> >,0> >::_Max
; Function compile flags: /Ogty
;	COMDAT ?_Max@?$_Tree@V?$_Tmap_traits@KPAVCMailBox@@U?$less@K@std@@V?$allocator@U?$pair@$$CBKPAVCMailBox@@@std@@@3@$0A@@std@@@std@@KAPAU_Node@?$_Tree_nod@V?$_Tmap_traits@KPAVCMailBox@@U?$less@K@std@@V?$allocator@U?$pair@$$CBKPAVCMailBox@@@std@@@3@$0A@@std@@@2@PAU342@@Z
_TEXT	SEGMENT
__Pnode$ = 8						; size = 4
?_Max@?$_Tree@V?$_Tmap_traits@KPAVCMailBox@@U?$less@K@std@@V?$allocator@U?$pair@$$CBKPAVCMailBox@@@std@@@3@$0A@@std@@@std@@KAPAU_Node@?$_Tree_nod@V?$_Tmap_traits@KPAVCMailBox@@U?$less@K@std@@V?$allocator@U?$pair@$$CBKPAVCMailBox@@@std@@@3@$0A@@std@@@2@PAU342@@Z PROC NEAR ; std::_Tree<std::_Tmap_traits<unsigned long,CMailBox *,std::less<unsigned long>,std::allocator<std::pair<unsigned long const ,CMailBox *> >,0> >::_Max, COMDAT

; 1035 : 		while (!_Isnil(_Right(_Pnode)))

  00000	8b 44 24 04	 mov	 eax, DWORD PTR __Pnode$[esp-4]
  00004	8b 48 08	 mov	 ecx, DWORD PTR [eax+8]
  00007	8a 51 15	 mov	 dl, BYTE PTR [ecx+21]
  0000a	84 d2		 test	 dl, dl
  0000c	75 0e		 jne	 SHORT $L227814
  0000e	8b ff		 npad	 2
$L227813:

; 1036 : 			_Pnode = _Right(_Pnode);

  00010	8b c1		 mov	 eax, ecx
  00012	8b 48 08	 mov	 ecx, DWORD PTR [eax+8]
  00015	8a 51 15	 mov	 dl, BYTE PTR [ecx+21]
  00018	84 d2		 test	 dl, dl
  0001a	74 f4		 je	 SHORT $L227813
$L227814:

; 1037 : 		return (_Pnode);
; 1038 : 		}

  0001c	c3		 ret	 0
?_Max@?$_Tree@V?$_Tmap_traits@KPAVCMailBox@@U?$less@K@std@@V?$allocator@U?$pair@$$CBKPAVCMailBox@@@std@@@3@$0A@@std@@@std@@KAPAU_Node@?$_Tree_nod@V?$_Tmap_traits@KPAVCMailBox@@U?$less@K@std@@V?$allocator@U?$pair@$$CBKPAVCMailBox@@@std@@@3@$0A@@std@@@2@PAU342@@Z ENDP ; std::_Tree<std::_Tmap_traits<unsigned long,CMailBox *,std::less<unsigned long>,std::allocator<std::pair<unsigned long const ,CMailBox *> >,0> >::_Max
_TEXT	ENDS
PUBLIC	??0?$_Tmap_traits@KPAVCMailBox@@U?$less@K@std@@V?$allocator@U?$pair@$$CBKPAVCMailBox@@@std@@@3@$0A@@std@@QAE@U?$less@K@1@@Z ; std::_Tmap_traits<unsigned long,CMailBox *,std::less<unsigned long>,std::allocator<std::pair<unsigned long const ,CMailBox *> >,0>::_Tmap_traits<unsigned long,CMailBox *,std::less<unsigned long>,std::allocator<std::pair<unsigned long const ,CMailBox *> >,0>
; Function compile flags: /Ogty
; File c:\program files\microsoft visual studio .net 2003\vc7\include\map
;	COMDAT ??0?$_Tmap_traits@KPAVCMailBox@@U?$less@K@std@@V?$allocator@U?$pair@$$CBKPAVCMailBox@@@std@@@3@$0A@@std@@QAE@U?$less@K@1@@Z
_TEXT	SEGMENT
__Parg$ = 8						; size = 1
??0?$_Tmap_traits@KPAVCMailBox@@U?$less@K@std@@V?$allocator@U?$pair@$$CBKPAVCMailBox@@@std@@@3@$0A@@std@@QAE@U?$less@K@1@@Z PROC NEAR ; std::_Tmap_traits<unsigned long,CMailBox *,std::less<unsigned long>,std::allocator<std::pair<unsigned long const ,CMailBox *> >,0>::_Tmap_traits<unsigned long,CMailBox *,std::less<unsigned long>,std::allocator<std::pair<unsigned long const ,CMailBox *> >,0>, COMDAT
; _this$ = ecx

; 38   : 		{	// construct with specified comparator

  00000	8b c1		 mov	 eax, ecx

; 39   : 		}

  00002	c2 04 00	 ret	 4
??0?$_Tmap_traits@KPAVCMailBox@@U?$less@K@std@@V?$allocator@U?$pair@$$CBKPAVCMailBox@@@std@@@3@$0A@@std@@QAE@U?$less@K@1@@Z ENDP ; std::_Tmap_traits<unsigned long,CMailBox *,std::less<unsigned long>,std::allocator<std::pair<unsigned long const ,CMailBox *> >,0>::_Tmap_traits<unsigned long,CMailBox *,std::less<unsigned long>,std::allocator<std::pair<unsigned long const ,CMailBox *> >,0>
_TEXT	ENDS
PUBLIC	?GetLocalTm@CTime@ATL@@QBEPAUtm@@PAU3@@Z	; ATL::CTime::GetLocalTm
EXTRN	__localtime64:NEAR
; Function compile flags: /Ogty
; File c:\program files\microsoft visual studio .net 2003\vc7\atlmfc\include\atltime.inl
;	COMDAT ?GetLocalTm@CTime@ATL@@QBEPAUtm@@PAU3@@Z
_TEXT	SEGMENT
_ptm$ = 8						; size = 4
?GetLocalTm@CTime@ATL@@QBEPAUtm@@PAU3@@Z PROC NEAR	; ATL::CTime::GetLocalTm, COMDAT
; _this$ = ecx

; 338  : {

  00000	53		 push	 ebx

; 339  : 	if (ptm != NULL)

  00001	8b 5c 24 08	 mov	 ebx, DWORD PTR _ptm$[esp]

; 340  : 	{
; 341  : 		struct tm* ptmTemp = _localtime64(&m_time);

  00005	51		 push	 ecx
  00006	e8 00 00 00 00	 call	 __localtime64
  0000b	83 c4 04	 add	 esp, 4
  0000e	85 db		 test	 ebx, ebx
  00010	74 19		 je	 SHORT $L42721

; 342  : 		if (ptmTemp == NULL)

  00012	85 c0		 test	 eax, eax
  00014	75 04		 jne	 SHORT $L42720
  00016	5b		 pop	 ebx

; 347  : 	}
; 348  : 	else
; 349  : 		return _localtime64(&m_time);
; 350  : }

  00017	c2 04 00	 ret	 4
$L42720:
  0001a	56		 push	 esi
  0001b	57		 push	 edi

; 343  : 			return NULL;    // indicates the m_time was not initialized!
; 344  : 
; 345  : 		*ptm = *ptmTemp;

  0001c	8b f0		 mov	 esi, eax
  0001e	b9 09 00 00 00	 mov	 ecx, 9
  00023	8b fb		 mov	 edi, ebx
  00025	f3 a5		 rep movsd
  00027	5f		 pop	 edi

; 346  : 		return ptm;

  00028	8b c3		 mov	 eax, ebx
  0002a	5e		 pop	 esi
$L42721:
  0002b	5b		 pop	 ebx

; 347  : 	}
; 348  : 	else
; 349  : 		return _localtime64(&m_time);
; 350  : }

  0002c	c2 04 00	 ret	 4
?GetLocalTm@CTime@ATL@@QBEPAUtm@@PAU3@@Z ENDP		; ATL::CTime::GetLocalTm
_TEXT	ENDS
PUBLIC	?GetYear@CTime@ATL@@QBEHXZ			; ATL::CTime::GetYear
; Function compile flags: /Ogty
;	COMDAT ?GetYear@CTime@ATL@@QBEHXZ
_TEXT	SEGMENT
?GetYear@CTime@ATL@@QBEHXZ PROC NEAR			; ATL::CTime::GetYear, COMDAT
; _this$ = ecx

; 377  : 	struct tm * ptm;
; 378  : 	ptm = GetLocalTm();

  00000	51		 push	 ecx
  00001	e8 00 00 00 00	 call	 __localtime64
  00006	83 c4 04	 add	 esp, 4

; 379  : 	return ptm ? (ptm->tm_year) + 1900 : 0 ; 

  00009	85 c0		 test	 eax, eax
  0000b	74 09		 je	 SHORT $L229499
  0000d	8b 40 14	 mov	 eax, DWORD PTR [eax+20]
  00010	05 6c 07 00 00	 add	 eax, 1900		; 0000076cH

; 380  : }

  00015	c3		 ret	 0
$L229499:

; 379  : 	return ptm ? (ptm->tm_year) + 1900 : 0 ; 

  00016	33 c0		 xor	 eax, eax

; 380  : }

  00018	c3		 ret	 0
?GetYear@CTime@ATL@@QBEHXZ ENDP				; ATL::CTime::GetYear
_TEXT	ENDS
PUBLIC	?GetMonth@CTime@ATL@@QBEHXZ			; ATL::CTime::GetMonth
; Function compile flags: /Ogty
;	COMDAT ?GetMonth@CTime@ATL@@QBEHXZ
_TEXT	SEGMENT
?GetMonth@CTime@ATL@@QBEHXZ PROC NEAR			; ATL::CTime::GetMonth, COMDAT
; _this$ = ecx

; 384  : 	struct tm * ptm;
; 385  : 	ptm = GetLocalTm();

  00000	51		 push	 ecx
  00001	e8 00 00 00 00	 call	 __localtime64
  00006	83 c4 04	 add	 esp, 4

; 386  : 	return ptm ? ptm->tm_mon + 1 : 0;

  00009	85 c0		 test	 eax, eax
  0000b	74 05		 je	 SHORT $L229512
  0000d	8b 40 10	 mov	 eax, DWORD PTR [eax+16]
  00010	40		 inc	 eax

; 387  : }

  00011	c3		 ret	 0
$L229512:

; 386  : 	return ptm ? ptm->tm_mon + 1 : 0;

  00012	33 c0		 xor	 eax, eax

; 387  : }

  00014	c3		 ret	 0
?GetMonth@CTime@ATL@@QBEHXZ ENDP			; ATL::CTime::GetMonth
_TEXT	ENDS
PUBLIC	?GetDay@CTime@ATL@@QBEHXZ			; ATL::CTime::GetDay
; Function compile flags: /Ogty
;	COMDAT ?GetDay@CTime@ATL@@QBEHXZ
_TEXT	SEGMENT
?GetDay@CTime@ATL@@QBEHXZ PROC NEAR			; ATL::CTime::GetDay, COMDAT
; _this$ = ecx

; 391  : 	struct tm * ptm;
; 392  : 	ptm = GetLocalTm();

  00000	51		 push	 ecx
  00001	e8 00 00 00 00	 call	 __localtime64
  00006	83 c4 04	 add	 esp, 4

; 393  : 	return ptm ? ptm->tm_mday : 0 ; 

  00009	85 c0		 test	 eax, eax
  0000b	74 04		 je	 SHORT $L229525
  0000d	8b 40 0c	 mov	 eax, DWORD PTR [eax+12]

; 394  : }

  00010	c3		 ret	 0
$L229525:

; 393  : 	return ptm ? ptm->tm_mday : 0 ; 

  00011	33 c0		 xor	 eax, eax

; 394  : }

  00013	c3		 ret	 0
?GetDay@CTime@ATL@@QBEHXZ ENDP				; ATL::CTime::GetDay
_TEXT	ENDS
PUBLIC	?GetHour@CTime@ATL@@QBEHXZ			; ATL::CTime::GetHour
; Function compile flags: /Ogty
;	COMDAT ?GetHour@CTime@ATL@@QBEHXZ
_TEXT	SEGMENT
?GetHour@CTime@ATL@@QBEHXZ PROC NEAR			; ATL::CTime::GetHour, COMDAT
; _this$ = ecx

; 398  : 	struct tm * ptm;
; 399  : 	ptm = GetLocalTm();

  00000	51		 push	 ecx
  00001	e8 00 00 00 00	 call	 __localtime64
  00006	83 c4 04	 add	 esp, 4

; 400  : 	return ptm ? ptm->tm_hour : -1 ; 

  00009	85 c0		 test	 eax, eax
  0000b	74 04		 je	 SHORT $L229538
  0000d	8b 40 08	 mov	 eax, DWORD PTR [eax+8]

; 401  : }

  00010	c3		 ret	 0
$L229538:

; 400  : 	return ptm ? ptm->tm_hour : -1 ; 

  00011	83 c8 ff	 or	 eax, -1

; 401  : }

  00014	c3		 ret	 0
?GetHour@CTime@ATL@@QBEHXZ ENDP				; ATL::CTime::GetHour
_TEXT	ENDS
PUBLIC	?GetMinute@CTime@ATL@@QBEHXZ			; ATL::CTime::GetMinute
; Function compile flags: /Ogty
;	COMDAT ?GetMinute@CTime@ATL@@QBEHXZ
_TEXT	SEGMENT
?GetMinute@CTime@ATL@@QBEHXZ PROC NEAR			; ATL::CTime::GetMinute, COMDAT
; _this$ = ecx

; 405  : 	struct tm * ptm;
; 406  : 	ptm = GetLocalTm();

  00000	51		 push	 ecx
  00001	e8 00 00 00 00	 call	 __localtime64
  00006	83 c4 04	 add	 esp, 4

; 407  : 	return ptm ? ptm->tm_min : -1 ; 

  00009	85 c0		 test	 eax, eax
  0000b	74 04		 je	 SHORT $L229551
  0000d	8b 40 04	 mov	 eax, DWORD PTR [eax+4]

; 408  : }

  00010	c3		 ret	 0
$L229551:

; 407  : 	return ptm ? ptm->tm_min : -1 ; 

  00011	83 c8 ff	 or	 eax, -1

; 408  : }

  00014	c3		 ret	 0
?GetMinute@CTime@ATL@@QBEHXZ ENDP			; ATL::CTime::GetMinute
_TEXT	ENDS
PUBLIC	?GetSecond@CTime@ATL@@QBEHXZ			; ATL::CTime::GetSecond
; Function compile flags: /Ogty
;	COMDAT ?GetSecond@CTime@ATL@@QBEHXZ
_TEXT	SEGMENT
?GetSecond@CTime@ATL@@QBEHXZ PROC NEAR			; ATL::CTime::GetSecond, COMDAT
; _this$ = ecx

; 412  : 	struct tm * ptm;
; 413  : 	ptm = GetLocalTm();

  00000	51		 push	 ecx
  00001	e8 00 00 00 00	 call	 __localtime64
  00006	83 c4 04	 add	 esp, 4

; 414  : 	return ptm ? ptm->tm_sec : -1 ;

  00009	85 c0		 test	 eax, eax
  0000b	74 03		 je	 SHORT $L229564
  0000d	8b 00		 mov	 eax, DWORD PTR [eax]

; 415  : }

  0000f	c3		 ret	 0
$L229564:

; 414  : 	return ptm ? ptm->tm_sec : -1 ;

  00010	83 c8 ff	 or	 eax, -1

; 415  : }

  00013	c3		 ret	 0
?GetSecond@CTime@ATL@@QBEHXZ ENDP			; ATL::CTime::GetSecond
_TEXT	ENDS
PUBLIC	??$fill@PAPAVCMail@@PAV1@@std@@YAXPAPAVCMail@@0ABQAV1@@Z ; std::fill<CMail * *,CMail *>
; Function compile flags: /Ogty
; File c:\program files\microsoft visual studio .net 2003\vc7\include\xutility
;	COMDAT ??$fill@PAPAVCMail@@PAV1@@std@@YAXPAPAVCMail@@0ABQAV1@@Z
_TEXT	SEGMENT
__First$ = 8						; size = 4
__Last$ = 12						; size = 4
__Val$ = 16						; size = 4
??$fill@PAPAVCMail@@PAV1@@std@@YAXPAPAVCMail@@0ABQAV1@@Z PROC NEAR ; std::fill<CMail * *,CMail *>, COMDAT

; 1135 : 	for (; _First != _Last; ++_First)

  00000	8b 44 24 04	 mov	 eax, DWORD PTR __First$[esp-4]
  00004	8b 4c 24 08	 mov	 ecx, DWORD PTR __Last$[esp-4]
  00008	3b c1		 cmp	 eax, ecx
  0000a	74 11		 je	 SHORT $L228270
  0000c	8b 54 24 0c	 mov	 edx, DWORD PTR __Val$[esp-4]
  00010	56		 push	 esi
$L228268:

; 1136 : 		*_First = _Val;

  00011	8b 32		 mov	 esi, DWORD PTR [edx]
  00013	89 30		 mov	 DWORD PTR [eax], esi
  00015	83 c0 04	 add	 eax, 4
  00018	3b c1		 cmp	 eax, ecx
  0001a	75 f5		 jne	 SHORT $L228268
  0001c	5e		 pop	 esi
$L228270:

; 1137 : 	}

  0001d	c3		 ret	 0
??$fill@PAPAVCMail@@PAV1@@std@@YAXPAPAVCMail@@0ABQAV1@@Z ENDP ; std::fill<CMail * *,CMail *>
_TEXT	ENDS
PUBLIC	??$_Allocate@PAVCMail@@@std@@YAPAPAVCMail@@IPAPAV1@@Z ; std::_Allocate<CMail *>
EXTRN	??2@YAPAXI@Z:NEAR				; operator new
; Function compile flags: /Ogty
; File c:\program files\microsoft visual studio .net 2003\vc7\include\xmemory
;	COMDAT ??$_Allocate@PAVCMail@@@std@@YAPAPAVCMail@@IPAPAV1@@Z
_TEXT	SEGMENT
__Count$ = 8						; size = 4
___formal$ = 12						; size = 4
??$_Allocate@PAVCMail@@@std@@YAPAPAVCMail@@IPAPAV1@@Z PROC NEAR ; std::_Allocate<CMail *>, COMDAT

; 34   : 	return ((_Ty _FARQ *)operator new(_Count * sizeof (_Ty)));

  00000	8b 44 24 04	 mov	 eax, DWORD PTR __Count$[esp-4]
  00004	8d 0c 85 00 00
	00 00		 lea	 ecx, DWORD PTR [eax*4]
  0000b	51		 push	 ecx
  0000c	e8 00 00 00 00	 call	 ??2@YAPAXI@Z		; operator new
  00011	83 c4 04	 add	 esp, 4

; 35   : 	}

  00014	c3		 ret	 0
??$_Allocate@PAVCMail@@@std@@YAPAPAVCMail@@IPAPAV1@@Z ENDP ; std::_Allocate<CMail *>
_TEXT	ENDS
PUBLIC	??$_Destroy@U_Node@?$_Tree_nod@V?$_Tmap_traits@KPAVCMailBox@@U?$less@K@std@@V?$allocator@U?$pair@$$CBKPAVCMailBox@@@std@@@3@$0A@@std@@@std@@@std@@YAXPAU_Node@?$_Tree_nod@V?$_Tmap_traits@KPAVCMailBox@@U?$less@K@std@@V?$allocator@U?$pair@$$CBKPAVCMailBox@@@std@@@3@$0A@@std@@@0@@Z ; std::_Destroy<std::_Tree_nod<std::_Tmap_traits<unsigned long,CMailBox *,std::less<unsigned long>,std::allocator<std::pair<unsigned long const ,CMailBox *> >,0> >::_Node>
; Function compile flags: /Ogty
;	COMDAT ??$_Destroy@U_Node@?$_Tree_nod@V?$_Tmap_traits@KPAVCMailBox@@U?$less@K@std@@V?$allocator@U?$pair@$$CBKPAVCMailBox@@@std@@@3@$0A@@std@@@std@@@std@@YAXPAU_Node@?$_Tree_nod@V?$_Tmap_traits@KPAVCMailBox@@U?$less@K@std@@V?$allocator@U?$pair@$$CBKPAVCMailBox@@@std@@@3@$0A@@std@@@0@@Z
_TEXT	SEGMENT
__Ptr$ = 8						; size = 4
??$_Destroy@U_Node@?$_Tree_nod@V?$_Tmap_traits@KPAVCMailBox@@U?$less@K@std@@V?$allocator@U?$pair@$$CBKPAVCMailBox@@@std@@@3@$0A@@std@@@std@@@std@@YAXPAU_Node@?$_Tree_nod@V?$_Tmap_traits@KPAVCMailBox@@U?$less@K@std@@V?$allocator@U?$pair@$$CBKPAVCMailBox@@@std@@@3@$0A@@std@@@0@@Z PROC NEAR ; std::_Destroy<std::_Tree_nod<std::_Tmap_traits<unsigned long,CMailBox *,std::less<unsigned long>,std::allocator<std::pair<unsigned long const ,CMailBox *> >,0> >::_Node>, COMDAT

; 49   : 	_DESTRUCTOR(_Ty, _Ptr);
; 50   : 	}

  00000	c3		 ret	 0
??$_Destroy@U_Node@?$_Tree_nod@V?$_Tmap_traits@KPAVCMailBox@@U?$less@K@std@@V?$allocator@U?$pair@$$CBKPAVCMailBox@@@std@@@3@$0A@@std@@@std@@@std@@YAXPAU_Node@?$_Tree_nod@V?$_Tmap_traits@KPAVCMailBox@@U?$less@K@std@@V?$allocator@U?$pair@$$CBKPAVCMailBox@@@std@@@3@$0A@@std@@@0@@Z ENDP ; std::_Destroy<std::_Tree_nod<std::_Tmap_traits<unsigned long,CMailBox *,std::less<unsigned long>,std::allocator<std::pair<unsigned long const ,CMailBox *> >,0> >::_Node>
_TEXT	ENDS
PUBLIC	??$_Destroy@PAU_Node@?$_Tree_nod@V?$_Tmap_traits@KPAVCMailBox@@U?$less@K@std@@V?$allocator@U?$pair@$$CBKPAVCMailBox@@@std@@@3@$0A@@std@@@std@@@std@@YAXPAPAU_Node@?$_Tree_nod@V?$_Tmap_traits@KPAVCMailBox@@U?$less@K@std@@V?$allocator@U?$pair@$$CBKPAVCMailBox@@@std@@@3@$0A@@std@@@0@@Z ; std::_Destroy<std::_Tree_nod<std::_Tmap_traits<unsigned long,CMailBox *,std::less<unsigned long>,std::allocator<std::pair<unsigned long const ,CMailBox *> >,0> >::_Node *>
; Function compile flags: /Ogty
;	COMDAT ??$_Destroy@PAU_Node@?$_Tree_nod@V?$_Tmap_traits@KPAVCMailBox@@U?$less@K@std@@V?$allocator@U?$pair@$$CBKPAVCMailBox@@@std@@@3@$0A@@std@@@std@@@std@@YAXPAPAU_Node@?$_Tree_nod@V?$_Tmap_traits@KPAVCMailBox@@U?$less@K@std@@V?$allocator@U?$pair@$$CBKPAVCMailBox@@@std@@@3@$0A@@std@@@0@@Z
_TEXT	SEGMENT
__Ptr$ = 8						; size = 4
??$_Destroy@PAU_Node@?$_Tree_nod@V?$_Tmap_traits@KPAVCMailBox@@U?$less@K@std@@V?$allocator@U?$pair@$$CBKPAVCMailBox@@@std@@@3@$0A@@std@@@std@@@std@@YAXPAPAU_Node@?$_Tree_nod@V?$_Tmap_traits@KPAVCMailBox@@U?$less@K@std@@V?$allocator@U?$pair@$$CBKPAVCMailBox@@@std@@@3@$0A@@std@@@0@@Z PROC NEAR ; std::_Destroy<std::_Tree_nod<std::_Tmap_traits<unsigned long,CMailBox *,std::less<unsigned long>,std::allocator<std::pair<unsigned long const ,CMailBox *> >,0> >::_Node *>, COMDAT

; 49   : 	_DESTRUCTOR(_Ty, _Ptr);
; 50   : 	}

  00000	c3		 ret	 0
??$_Destroy@PAU_Node@?$_Tree_nod@V?$_Tmap_traits@KPAVCMailBox@@U?$less@K@std@@V?$allocator@U?$pair@$$CBKPAVCMailBox@@@std@@@3@$0A@@std@@@std@@@std@@YAXPAPAU_Node@?$_Tree_nod@V?$_Tmap_traits@KPAVCMailBox@@U?$less@K@std@@V?$allocator@U?$pair@$$CBKPAVCMailBox@@@std@@@3@$0A@@std@@@0@@Z ENDP ; std::_Destroy<std::_Tree_nod<std::_Tmap_traits<unsigned long,CMailBox *,std::less<unsigned long>,std::allocator<std::pair<unsigned long const ,CMailBox *> >,0> >::_Node *>
_TEXT	ENDS
PUBLIC	??$?0U?$pair@$$CBKPAVCMailBox@@@std@@@?$allocator@PAU_Node@?$_Tree_nod@V?$_Tmap_traits@KPAVCMailBox@@U?$less@K@std@@V?$allocator@U?$pair@$$CBKPAVCMailBox@@@std@@@3@$0A@@std@@@std@@@std@@QAE@ABV?$allocator@U?$pair@$$CBKPAVCMailBox@@@std@@@1@@Z ; std::allocator<std::_Tree_nod<std::_Tmap_traits<unsigned long,CMailBox *,std::less<unsigned long>,std::allocator<std::pair<unsigned long const ,CMailBox *> >,0> >::_Node *>::allocator<std::_Tree_nod<std::_Tmap_traits<unsigned long,CMailBox *,std::less<unsigned long>,std::allocator<std::pair<unsigned long const ,CMailBox *> >,0> >::_Node *><std::pair<unsigned long const ,CMailBox *> >
; Function compile flags: /Ogty
;	COMDAT ??$?0U?$pair@$$CBKPAVCMailBox@@@std@@@?$allocator@PAU_Node@?$_Tree_nod@V?$_Tmap_traits@KPAVCMailBox@@U?$less@K@std@@V?$allocator@U?$pair@$$CBKPAVCMailBox@@@std@@@3@$0A@@std@@@std@@@std@@QAE@ABV?$allocator@U?$pair@$$CBKPAVCMailBox@@@std@@@1@@Z
_TEXT	SEGMENT
___formal$ = 8						; size = 4
??$?0U?$pair@$$CBKPAVCMailBox@@@std@@@?$allocator@PAU_Node@?$_Tree_nod@V?$_Tmap_traits@KPAVCMailBox@@U?$less@K@std@@V?$allocator@U?$pair@$$CBKPAVCMailBox@@@std@@@3@$0A@@std@@@std@@@std@@QAE@ABV?$allocator@U?$pair@$$CBKPAVCMailBox@@@std@@@1@@Z PROC NEAR ; std::allocator<std::_Tree_nod<std::_Tmap_traits<unsigned long,CMailBox *,std::less<unsigned long>,std::allocator<std::pair<unsigned long const ,CMailBox *> >,0> >::_Node *>::allocator<std::_Tree_nod<std::_Tmap_traits<unsigned long,CMailBox *,std::less<unsigned long>,std::allocator<std::pair<unsigned long const ,CMailBox *> >,0> >::_Node *><std::pair<unsigned long const ,CMailBox *> >, COMDAT
; _this$ = ecx

; 120  : 		allocator(const allocator<_Other>&)

  00000	8b c1		 mov	 eax, ecx

; 121  : 		{	// construct from a related allocator (do nothing)
; 122  : 		}

  00002	c2 04 00	 ret	 4
??$?0U?$pair@$$CBKPAVCMailBox@@@std@@@?$allocator@PAU_Node@?$_Tree_nod@V?$_Tmap_traits@KPAVCMailBox@@U?$less@K@std@@V?$allocator@U?$pair@$$CBKPAVCMailBox@@@std@@@3@$0A@@std@@@std@@@std@@QAE@ABV?$allocator@U?$pair@$$CBKPAVCMailBox@@@std@@@1@@Z ENDP ; std::allocator<std::_Tree_nod<std::_Tmap_traits<unsigned long,CMailBox *,std::less<unsigned long>,std::allocator<std::pair<unsigned long const ,CMailBox *> >,0> >::_Node *>::allocator<std::_Tree_nod<std::_Tmap_traits<unsigned long,CMailBox *,std::less<unsigned long>,std::allocator<std::pair<unsigned long const ,CMailBox *> >,0> >::_Node *><std::pair<unsigned long const ,CMailBox *> >
_TEXT	ENDS
PUBLIC	??$_Allocate@U_Node@?$_Tree_nod@V?$_Tmap_traits@KPAVCMailBox@@U?$less@K@std@@V?$allocator@U?$pair@$$CBKPAVCMailBox@@@std@@@3@$0A@@std@@@std@@@std@@YAPAU_Node@?$_Tree_nod@V?$_Tmap_traits@KPAVCMailBox@@U?$less@K@std@@V?$allocator@U?$pair@$$CBKPAVCMailBox@@@std@@@3@$0A@@std@@@0@IPAU120@@Z ; std::_Allocate<std::_Tree_nod<std::_Tmap_traits<unsigned long,CMailBox *,std::less<unsigned long>,std::allocator<std::pair<unsigned long const ,CMailBox *> >,0> >::_Node>
; Function compile flags: /Ogty
;	COMDAT ??$_Allocate@U_Node@?$_Tree_nod@V?$_Tmap_traits@KPAVCMailBox@@U?$less@K@std@@V?$allocator@U?$pair@$$CBKPAVCMailBox@@@std@@@3@$0A@@std@@@std@@@std@@YAPAU_Node@?$_Tree_nod@V?$_Tmap_traits@KPAVCMailBox@@U?$less@K@std@@V?$allocator@U?$pair@$$CBKPAVCMailBox@@@std@@@3@$0A@@std@@@0@IPAU120@@Z
_TEXT	SEGMENT
__Count$ = 8						; size = 4
___formal$ = 12						; size = 4
??$_Allocate@U_Node@?$_Tree_nod@V?$_Tmap_traits@KPAVCMailBox@@U?$less@K@std@@V?$allocator@U?$pair@$$CBKPAVCMailBox@@@std@@@3@$0A@@std@@@std@@@std@@YAPAU_Node@?$_Tree_nod@V?$_Tmap_traits@KPAVCMailBox@@U?$less@K@std@@V?$allocator@U?$pair@$$CBKPAVCMailBox@@@std@@@3@$0A@@std@@@0@IPAU120@@Z PROC NEAR ; std::_Allocate<std::_Tree_nod<std::_Tmap_traits<unsigned long,CMailBox *,std::less<unsigned long>,std::allocator<std::pair<unsigned long const ,CMailBox *> >,0> >::_Node>, COMDAT

; 34   : 	return ((_Ty _FARQ *)operator new(_Count * sizeof (_Ty)));

  00000	8b 44 24 04	 mov	 eax, DWORD PTR __Count$[esp-4]
  00004	8d 04 40	 lea	 eax, DWORD PTR [eax+eax*2]
  00007	c1 e0 03	 shl	 eax, 3
  0000a	50		 push	 eax
  0000b	e8 00 00 00 00	 call	 ??2@YAPAXI@Z		; operator new
  00010	83 c4 04	 add	 esp, 4

; 35   : 	}

  00013	c3		 ret	 0
??$_Allocate@U_Node@?$_Tree_nod@V?$_Tmap_traits@KPAVCMailBox@@U?$less@K@std@@V?$allocator@U?$pair@$$CBKPAVCMailBox@@@std@@@3@$0A@@std@@@std@@@std@@YAPAU_Node@?$_Tree_nod@V?$_Tmap_traits@KPAVCMailBox@@U?$less@K@std@@V?$allocator@U?$pair@$$CBKPAVCMailBox@@@std@@@3@$0A@@std@@@0@IPAU120@@Z ENDP ; std::_Allocate<std::_Tree_nod<std::_Tmap_traits<unsigned long,CMailBox *,std::less<unsigned long>,std::allocator<std::pair<unsigned long const ,CMailBox *> >,0> >::_Node>
_TEXT	ENDS
PUBLIC	??$?0U?$pair@$$CBKPAVCMailBox@@@std@@@?$allocator@U_Node@?$_Tree_nod@V?$_Tmap_traits@KPAVCMailBox@@U?$less@K@std@@V?$allocator@U?$pair@$$CBKPAVCMailBox@@@std@@@3@$0A@@std@@@std@@@std@@QAE@ABV?$allocator@U?$pair@$$CBKPAVCMailBox@@@std@@@1@@Z ; std::allocator<std::_Tree_nod<std::_Tmap_traits<unsigned long,CMailBox *,std::less<unsigned long>,std::allocator<std::pair<unsigned long const ,CMailBox *> >,0> >::_Node>::allocator<std::_Tree_nod<std::_Tmap_traits<unsigned long,CMailBox *,std::less<unsigned long>,std::allocator<std::pair<unsigned long const ,CMailBox *> >,0> >::_Node><std::pair<unsigned long const ,CMailBox *> >
; Function compile flags: /Ogty
;	COMDAT ??$?0U?$pair@$$CBKPAVCMailBox@@@std@@@?$allocator@U_Node@?$_Tree_nod@V?$_Tmap_traits@KPAVCMailBox@@U?$less@K@std@@V?$allocator@U?$pair@$$CBKPAVCMailBox@@@std@@@3@$0A@@std@@@std@@@std@@QAE@ABV?$allocator@U?$pair@$$CBKPAVCMailBox@@@std@@@1@@Z
_TEXT	SEGMENT
___formal$ = 8						; size = 4
??$?0U?$pair@$$CBKPAVCMailBox@@@std@@@?$allocator@U_Node@?$_Tree_nod@V?$_Tmap_traits@KPAVCMailBox@@U?$less@K@std@@V?$allocator@U?$pair@$$CBKPAVCMailBox@@@std@@@3@$0A@@std@@@std@@@std@@QAE@ABV?$allocator@U?$pair@$$CBKPAVCMailBox@@@std@@@1@@Z PROC NEAR ; std::allocator<std::_Tree_nod<std::_Tmap_traits<unsigned long,CMailBox *,std::less<unsigned long>,std::allocator<std::pair<unsigned long const ,CMailBox *> >,0> >::_Node>::allocator<std::_Tree_nod<std::_Tmap_traits<unsigned long,CMailBox *,std::less<unsigned long>,std::allocator<std::pair<unsigned long const ,CMailBox *> >,0> >::_Node><std::pair<unsigned long const ,CMailBox *> >, COMDAT
; _this$ = ecx

; 120  : 		allocator(const allocator<_Other>&)

  00000	8b c1		 mov	 eax, ecx

; 121  : 		{	// construct from a related allocator (do nothing)
; 122  : 		}

  00002	c2 04 00	 ret	 4
??$?0U?$pair@$$CBKPAVCMailBox@@@std@@@?$allocator@U_Node@?$_Tree_nod@V?$_Tmap_traits@KPAVCMailBox@@U?$less@K@std@@V?$allocator@U?$pair@$$CBKPAVCMailBox@@@std@@@3@$0A@@std@@@std@@@std@@QAE@ABV?$allocator@U?$pair@$$CBKPAVCMailBox@@@std@@@1@@Z ENDP ; std::allocator<std::_Tree_nod<std::_Tmap_traits<unsigned long,CMailBox *,std::less<unsigned long>,std::allocator<std::pair<unsigned long const ,CMailBox *> >,0> >::_Node>::allocator<std::_Tree_nod<std::_Tmap_traits<unsigned long,CMailBox *,std::less<unsigned long>,std::allocator<std::pair<unsigned long const ,CMailBox *> >,0> >::_Node><std::pair<unsigned long const ,CMailBox *> >
_TEXT	ENDS
PUBLIC	??$_Construct@PAU_Node@?$_Tree_nod@V?$_Tmap_traits@KPAVCMailBox@@U?$less@K@std@@V?$allocator@U?$pair@$$CBKPAVCMailBox@@@std@@@3@$0A@@std@@@std@@PAU123@@std@@YAXPAPAU_Node@?$_Tree_nod@V?$_Tmap_traits@KPAVCMailBox@@U?$less@K@std@@V?$allocator@U?$pair@$$CBKPAVCMailBox@@@std@@@3@$0A@@std@@@0@ABQAU120@@Z ; std::_Construct<std::_Tree_nod<std::_Tmap_traits<unsigned long,CMailBox *,std::less<unsigned long>,std::allocator<std::pair<unsigned long const ,CMailBox *> >,0> >::_Node *,std::_Tree_nod<std::_Tmap_traits<unsigned long,CMailBox *,std::less<unsigned long>,std::allocator<std::pair<unsigned long const ,CMailBox *> >,0> >::_Node *>
; Function compile flags: /Ogty
;	COMDAT ??$_Construct@PAU_Node@?$_Tree_nod@V?$_Tmap_traits@KPAVCMailBox@@U?$less@K@std@@V?$allocator@U?$pair@$$CBKPAVCMailBox@@@std@@@3@$0A@@std@@@std@@PAU123@@std@@YAXPAPAU_Node@?$_Tree_nod@V?$_Tmap_traits@KPAVCMailBox@@U?$less@K@std@@V?$allocator@U?$pair@$$CBKPAVCMailBox@@@std@@@3@$0A@@std@@@0@ABQAU120@@Z
_TEXT	SEGMENT
__Ptr$ = 8						; size = 4
__Val$ = 12						; size = 4
??$_Construct@PAU_Node@?$_Tree_nod@V?$_Tmap_traits@KPAVCMailBox@@U?$less@K@std@@V?$allocator@U?$pair@$$CBKPAVCMailBox@@@std@@@3@$0A@@std@@@std@@PAU123@@std@@YAXPAPAU_Node@?$_Tree_nod@V?$_Tmap_traits@KPAVCMailBox@@U?$less@K@std@@V?$allocator@U?$pair@$$CBKPAVCMailBox@@@std@@@3@$0A@@std@@@0@ABQAU120@@Z PROC NEAR ; std::_Construct<std::_Tree_nod<std::_Tmap_traits<unsigned long,CMailBox *,std::less<unsigned long>,std::allocator<std::pair<unsigned long const ,CMailBox *> >,0> >::_Node *,std::_Tree_nod<std::_Tmap_traits<unsigned long,CMailBox *,std::less<unsigned long>,std::allocator<std::pair<unsigned long const ,CMailBox *> >,0> >::_Node *>, COMDAT

; 42   : 	new ((void _FARQ *)_Ptr) _T1(_Val);

  00000	8b 44 24 04	 mov	 eax, DWORD PTR __Ptr$[esp-4]
  00004	85 c0		 test	 eax, eax
  00006	74 08		 je	 SHORT $L229601
  00008	8b 4c 24 08	 mov	 ecx, DWORD PTR __Val$[esp-4]
  0000c	8b 11		 mov	 edx, DWORD PTR [ecx]
  0000e	89 10		 mov	 DWORD PTR [eax], edx
$L229601:

; 43   : 	}

  00010	c3		 ret	 0
??$_Construct@PAU_Node@?$_Tree_nod@V?$_Tmap_traits@KPAVCMailBox@@U?$less@K@std@@V?$allocator@U?$pair@$$CBKPAVCMailBox@@@std@@@3@$0A@@std@@@std@@PAU123@@std@@YAXPAPAU_Node@?$_Tree_nod@V?$_Tmap_traits@KPAVCMailBox@@U?$less@K@std@@V?$allocator@U?$pair@$$CBKPAVCMailBox@@@std@@@3@$0A@@std@@@0@ABQAU120@@Z ENDP ; std::_Construct<std::_Tree_nod<std::_Tmap_traits<unsigned long,CMailBox *,std::less<unsigned long>,std::allocator<std::pair<unsigned long const ,CMailBox *> >,0> >::_Node *,std::_Tree_nod<std::_Tmap_traits<unsigned long,CMailBox *,std::less<unsigned long>,std::allocator<std::pair<unsigned long const ,CMailBox *> >,0> >::_Node *>
_TEXT	ENDS
PUBLIC	??$_Ptr_cat@VCMail@@@std@@YA?AU_Scalar_ptr_iterator_tag@0@PAPAVCMail@@0@Z ; std::_Ptr_cat<CMail>
; Function compile flags: /Ogty
; File c:\program files\microsoft visual studio .net 2003\vc7\include\xutility
;	COMDAT ??$_Ptr_cat@VCMail@@@std@@YA?AU_Scalar_ptr_iterator_tag@0@PAPAVCMail@@0@Z
_TEXT	SEGMENT
__Cat$ = -1						; size = 1
___formal$ = 8						; size = 4
___formal$ = 12						; size = 4
??$_Ptr_cat@VCMail@@@std@@YA?AU_Scalar_ptr_iterator_tag@0@PAPAVCMail@@0@Z PROC NEAR ; std::_Ptr_cat<CMail>, COMDAT

; 218  : 	{	// return pointer category from pointer to pointer arguments

  00000	51		 push	 ecx

; 219  : 	_Scalar_ptr_iterator_tag _Cat;
; 220  : 	return (_Cat);

  00001	8a 44 24 03	 mov	 al, BYTE PTR __Cat$[esp+4]

; 221  : 	}

  00005	59		 pop	 ecx
  00006	c3		 ret	 0
??$_Ptr_cat@VCMail@@@std@@YA?AU_Scalar_ptr_iterator_tag@0@PAPAVCMail@@0@Z ENDP ; std::_Ptr_cat<CMail>
_TEXT	ENDS
PUBLIC	??$_Copy_opt@PAPAVCMail@@PAPAV1@@std@@YAPAPAVCMail@@PAPAV1@00U_Scalar_ptr_iterator_tag@0@@Z ; std::_Copy_opt<CMail * *,CMail * *>
EXTRN	_memmove:NEAR
; Function compile flags: /Ogty
;	COMDAT ??$_Copy_opt@PAPAVCMail@@PAPAV1@@std@@YAPAPAVCMail@@PAPAV1@00U_Scalar_ptr_iterator_tag@0@@Z
_TEXT	SEGMENT
__First$ = 8						; size = 4
__Last$ = 12						; size = 4
__Dest$ = 16						; size = 4
___formal$ = 20						; size = 1
??$_Copy_opt@PAPAVCMail@@PAPAV1@@std@@YAPAPAVCMail@@PAPAV1@00U_Scalar_ptr_iterator_tag@0@@Z PROC NEAR ; std::_Copy_opt<CMail * *,CMail * *>, COMDAT

; 1031 : 	ptrdiff_t _Off = _Last - _First;	// NB: non-overlapping move

  00000	8b 4c 24 04	 mov	 ecx, DWORD PTR __First$[esp-4]
  00004	8b 44 24 08	 mov	 eax, DWORD PTR __Last$[esp-4]
  00008	2b c1		 sub	 eax, ecx
  0000a	56		 push	 esi
  0000b	c1 f8 02	 sar	 eax, 2

; 1032 : 	return ((_OutIt)::memmove(&*_Dest, &*_First,
; 1033 : 		_Off * sizeof (*_First)) + _Off);

  0000e	8d 34 85 00 00
	00 00		 lea	 esi, DWORD PTR [eax*4]
  00015	8b 44 24 10	 mov	 eax, DWORD PTR __Dest$[esp]
  00019	56		 push	 esi
  0001a	51		 push	 ecx
  0001b	50		 push	 eax
  0001c	e8 00 00 00 00	 call	 _memmove
  00021	83 c4 0c	 add	 esp, 12			; 0000000cH
  00024	03 c6		 add	 eax, esi
  00026	5e		 pop	 esi

; 1034 : 	}

  00027	c3		 ret	 0
??$_Copy_opt@PAPAVCMail@@PAPAV1@@std@@YAPAPAVCMail@@PAPAV1@00U_Scalar_ptr_iterator_tag@0@@Z ENDP ; std::_Copy_opt<CMail * *,CMail * *>
_TEXT	ENDS
PUBLIC	??$_Destroy_range@PAVCMail@@V?$allocator@PAVCMail@@@std@@@std@@YAXPAPAVCMail@@0AAV?$allocator@PAVCMail@@@0@U_Scalar_ptr_iterator_tag@0@@Z ; std::_Destroy_range<CMail *,std::allocator<CMail *> >
; Function compile flags: /Ogty
; File c:\program files\microsoft visual studio .net 2003\vc7\include\xmemory
;	COMDAT ??$_Destroy_range@PAVCMail@@V?$allocator@PAVCMail@@@std@@@std@@YAXPAPAVCMail@@0AAV?$allocator@PAVCMail@@@0@U_Scalar_ptr_iterator_tag@0@@Z
_TEXT	SEGMENT
__First$ = 8						; size = 4
__Last$ = 12						; size = 4
__Al$ = 16						; size = 4
___formal$ = 20						; size = 1
??$_Destroy_range@PAVCMail@@V?$allocator@PAVCMail@@@std@@@std@@YAXPAPAVCMail@@0AAV?$allocator@PAVCMail@@@0@U_Scalar_ptr_iterator_tag@0@@Z PROC NEAR ; std::_Destroy_range<CMail *,std::allocator<CMail *> >, COMDAT

; 234  : 	}

  00000	c3		 ret	 0
??$_Destroy_range@PAVCMail@@V?$allocator@PAVCMail@@@std@@@std@@YAXPAPAVCMail@@0AAV?$allocator@PAVCMail@@@0@U_Scalar_ptr_iterator_tag@0@@Z ENDP ; std::_Destroy_range<CMail *,std::allocator<CMail *> >
_TEXT	ENDS
PUBLIC	??$_Copy_backward_opt@PAPAVCMail@@PAPAV1@@std@@YAPAPAVCMail@@PAPAV1@00U_Scalar_ptr_iterator_tag@0@@Z ; std::_Copy_backward_opt<CMail * *,CMail * *>
; Function compile flags: /Ogty
; File c:\program files\microsoft visual studio .net 2003\vc7\include\xutility
;	COMDAT ??$_Copy_backward_opt@PAPAVCMail@@PAPAV1@@std@@YAPAPAVCMail@@PAPAV1@00U_Scalar_ptr_iterator_tag@0@@Z
_TEXT	SEGMENT
__First$ = 8						; size = 4
__Last$ = 12						; size = 4
__Dest$ = 16						; size = 4
___formal$ = 20						; size = 1
??$_Copy_backward_opt@PAPAVCMail@@PAPAV1@@std@@YAPAPAVCMail@@PAPAV1@00U_Scalar_ptr_iterator_tag@0@@Z PROC NEAR ; std::_Copy_backward_opt<CMail * *,CMail * *>, COMDAT

; 1059 : 	ptrdiff_t _Off = _Last - _First;	// NB: non-overlapping move

  00000	8b 4c 24 04	 mov	 ecx, DWORD PTR __First$[esp-4]
  00004	8b 44 24 08	 mov	 eax, DWORD PTR __Last$[esp-4]
  00008	2b c1		 sub	 eax, ecx
  0000a	c1 f8 02	 sar	 eax, 2

; 1060 : 	return ((_OutIt)memmove(&*_Dest - _Off, &*_First,
; 1061 : 		_Off * sizeof (*_First)));

  0000d	c1 e0 02	 shl	 eax, 2
  00010	50		 push	 eax
  00011	51		 push	 ecx
  00012	8b 4c 24 14	 mov	 ecx, DWORD PTR __Dest$[esp+4]
  00016	2b c8		 sub	 ecx, eax
  00018	51		 push	 ecx
  00019	e8 00 00 00 00	 call	 _memmove
  0001e	83 c4 0c	 add	 esp, 12			; 0000000cH

; 1062 : 	}

  00021	c3		 ret	 0
??$_Copy_backward_opt@PAPAVCMail@@PAPAV1@@std@@YAPAPAVCMail@@PAPAV1@00U_Scalar_ptr_iterator_tag@0@@Z ENDP ; std::_Copy_backward_opt<CMail * *,CMail * *>
_TEXT	ENDS
PUBLIC	??$fill_n@PAPAVCMail@@IPAV1@@std@@YAXPAPAVCMail@@IABQAV1@@Z ; std::fill_n<CMail * *,unsigned int,CMail *>
; Function compile flags: /Ogty
;	COMDAT ??$fill_n@PAPAVCMail@@IPAV1@@std@@YAXPAPAVCMail@@IABQAV1@@Z
_TEXT	SEGMENT
__First$ = 8						; size = 4
__Count$ = 12						; size = 4
__Val$ = 16						; size = 4
??$fill_n@PAPAVCMail@@IPAV1@@std@@YAXPAPAVCMail@@IABQAV1@@Z PROC NEAR ; std::fill_n<CMail * *,unsigned int,CMail *>, COMDAT

; 1160 : 	for (; 0 < _Count; --_Count, ++_First)

  00000	8b 4c 24 08	 mov	 ecx, DWORD PTR __Count$[esp-4]
  00004	85 c9		 test	 ecx, ecx
  00006	76 14		 jbe	 SHORT $L228603
  00008	8b 54 24 0c	 mov	 edx, DWORD PTR __Val$[esp-4]
  0000c	8b 44 24 04	 mov	 eax, DWORD PTR __First$[esp-4]
  00010	56		 push	 esi
$L228601:

; 1161 : 		*_First = _Val;

  00011	8b 32		 mov	 esi, DWORD PTR [edx]
  00013	89 30		 mov	 DWORD PTR [eax], esi
  00015	83 c0 04	 add	 eax, 4
  00018	49		 dec	 ecx
  00019	75 f6		 jne	 SHORT $L228601
  0001b	5e		 pop	 esi
$L228603:

; 1162 : 	}

  0001c	c3		 ret	 0
??$fill_n@PAPAVCMail@@IPAV1@@std@@YAXPAPAVCMail@@IABQAV1@@Z ENDP ; std::fill_n<CMail * *,unsigned int,CMail *>
_TEXT	ENDS
PUBLIC	??$_Uninit_copy@PAVCMail@@PAV1@@std@@YAPAPAVCMail@@PAPAV1@00AAV?$allocator@PAVCMail@@@0@U_Scalar_ptr_iterator_tag@0@@Z ; std::_Uninit_copy<CMail *,CMail *>
; Function compile flags: /Ogty
; File c:\program files\microsoft visual studio .net 2003\vc7\include\memory
;	COMDAT ??$_Uninit_copy@PAVCMail@@PAV1@@std@@YAPAPAVCMail@@PAPAV1@00AAV?$allocator@PAVCMail@@@0@U_Scalar_ptr_iterator_tag@0@@Z
_TEXT	SEGMENT
__First$ = 8						; size = 4
__Last$ = 12						; size = 4
__Dest$ = 16						; size = 4
___formal$ = 20						; size = 4
___formal$ = 24						; size = 1
??$_Uninit_copy@PAVCMail@@PAV1@@std@@YAPAPAVCMail@@PAPAV1@00AAV?$allocator@PAVCMail@@@0@U_Scalar_ptr_iterator_tag@0@@Z PROC NEAR ; std::_Uninit_copy<CMail *,CMail *>, COMDAT

; 106  : 	size_t _Count = (size_t)(_Last - _First);

  00000	8b 4c 24 04	 mov	 ecx, DWORD PTR __First$[esp-4]
  00004	8b 44 24 08	 mov	 eax, DWORD PTR __Last$[esp-4]
  00008	2b c1		 sub	 eax, ecx
  0000a	56		 push	 esi
  0000b	c1 f8 02	 sar	 eax, 2

; 107  : 	return ((_Ty2 *)memmove(&*_Dest, &*_First,
; 108  : 		_Count * sizeof (*_First)) + _Count);	// NB: non-overlapping move

  0000e	8d 34 85 00 00
	00 00		 lea	 esi, DWORD PTR [eax*4]
  00015	8b 44 24 10	 mov	 eax, DWORD PTR __Dest$[esp]
  00019	56		 push	 esi
  0001a	51		 push	 ecx
  0001b	50		 push	 eax
  0001c	e8 00 00 00 00	 call	 _memmove
  00021	83 c4 0c	 add	 esp, 12			; 0000000cH
  00024	03 c6		 add	 eax, esi
  00026	5e		 pop	 esi

; 109  : 	}

  00027	c3		 ret	 0
??$_Uninit_copy@PAVCMail@@PAV1@@std@@YAPAPAVCMail@@PAPAV1@00AAV?$allocator@PAVCMail@@@0@U_Scalar_ptr_iterator_tag@0@@Z ENDP ; std::_Uninit_copy<CMail *,CMail *>
_TEXT	ENDS
PUBLIC	?assign@?$char_traits@D@std@@SAXAADABD@Z	; std::char_traits<char>::assign
; Function compile flags: /Ogty
; File c:\program files\microsoft visual studio .net 2003\vc7\include\iosfwd
;	COMDAT ?assign@?$char_traits@D@std@@SAXAADABD@Z
_TEXT	SEGMENT
__Left$ = 8						; size = 4
__Right$ = 12						; size = 4
?assign@?$char_traits@D@std@@SAXAADABD@Z PROC NEAR	; std::char_traits<char>::assign, COMDAT

; 331  : 		_Left = _Right;

  00000	8b 44 24 08	 mov	 eax, DWORD PTR __Right$[esp-4]
  00004	8a 08		 mov	 cl, BYTE PTR [eax]
  00006	8b 54 24 04	 mov	 edx, DWORD PTR __Left$[esp-4]
  0000a	88 0a		 mov	 BYTE PTR [edx], cl

; 332  : 		}

  0000c	c3		 ret	 0
?assign@?$char_traits@D@std@@SAXAADABD@Z ENDP		; std::char_traits<char>::assign
_TEXT	ENDS
PUBLIC	?length@?$char_traits@D@std@@SAIPBD@Z		; std::char_traits<char>::length
; Function compile flags: /Ogty
;	COMDAT ?length@?$char_traits@D@std@@SAIPBD@Z
_TEXT	SEGMENT
__First$ = 8						; size = 4
?length@?$char_traits@D@std@@SAIPBD@Z PROC NEAR		; std::char_traits<char>::length, COMDAT

; 352  : 		return (::strlen(_First));

  00000	8b 44 24 04	 mov	 eax, DWORD PTR __First$[esp-4]
  00004	8d 50 01	 lea	 edx, DWORD PTR [eax+1]
$L229632:
  00007	8a 08		 mov	 cl, BYTE PTR [eax]
  00009	40		 inc	 eax
  0000a	84 c9		 test	 cl, cl
  0000c	75 f9		 jne	 SHORT $L229632
  0000e	2b c2		 sub	 eax, edx

; 353  : 		}

  00010	c3		 ret	 0
?length@?$char_traits@D@std@@SAIPBD@Z ENDP		; std::char_traits<char>::length
_TEXT	ENDS
PUBLIC	?copy@?$char_traits@D@std@@SAPADPADPBDI@Z	; std::char_traits<char>::copy
; Function compile flags: /Ogty
;	COMDAT ?copy@?$char_traits@D@std@@SAPADPADPBDI@Z
_TEXT	SEGMENT
__First1$ = 8						; size = 4
__First2$ = 12						; size = 4
__Count$ = 16						; size = 4
?copy@?$char_traits@D@std@@SAPADPADPBDI@Z PROC NEAR	; std::char_traits<char>::copy, COMDAT

; 358  : 		return ((_Elem *)::memcpy(_First1, _First2, _Count));

  00000	8b 4c 24 0c	 mov	 ecx, DWORD PTR __Count$[esp-4]
  00004	56		 push	 esi
  00005	8b 74 24 0c	 mov	 esi, DWORD PTR __First2$[esp]
  00009	57		 push	 edi
  0000a	8b 7c 24 0c	 mov	 edi, DWORD PTR __First1$[esp+4]
  0000e	8b c1		 mov	 eax, ecx
  00010	8b d7		 mov	 edx, edi
  00012	c1 e9 02	 shr	 ecx, 2
  00015	f3 a5		 rep movsd
  00017	8b c8		 mov	 ecx, eax
  00019	83 e1 03	 and	 ecx, 3
  0001c	f3 a4		 rep movsb
  0001e	5f		 pop	 edi
  0001f	8b c2		 mov	 eax, edx
  00021	5e		 pop	 esi

; 359  : 		}

  00022	c3		 ret	 0
?copy@?$char_traits@D@std@@SAPADPADPBDI@Z ENDP		; std::char_traits<char>::copy
_TEXT	ENDS
PUBLIC	?move@?$char_traits@D@std@@SAPADPADPBDI@Z	; std::char_traits<char>::move
; Function compile flags: /Ogty
;	COMDAT ?move@?$char_traits@D@std@@SAPADPADPBDI@Z
_TEXT	SEGMENT
__First1$ = 8						; size = 4
__First2$ = 12						; size = 4
__Count$ = 16						; size = 4
?move@?$char_traits@D@std@@SAPADPADPBDI@Z PROC NEAR	; std::char_traits<char>::move, COMDAT

; 370  : 		return ((_Elem *)::memmove(_First1, _First2, _Count));

  00000	e9 00 00 00 00	 jmp	 _memmove
?move@?$char_traits@D@std@@SAPADPADPBDI@Z ENDP		; std::char_traits<char>::move
_TEXT	ENDS
PUBLIC	__real@0000000000000000
PUBLIC	??0COleDateTimeSpan@ATL@@QAE@XZ			; ATL::COleDateTimeSpan::COleDateTimeSpan
EXTRN	__fltused:NEAR
;	COMDAT __real@0000000000000000
; File c:\program files\microsoft visual studio .net 2003\vc7\atlmfc\include\atlcomtime.inl
CONST	SEGMENT
__real@0000000000000000 DQ 00000000000000000r	; 0
; Function compile flags: /Ogty
CONST	ENDS
;	COMDAT ??0COleDateTimeSpan@ATL@@QAE@XZ
_TEXT	SEGMENT
??0COleDateTimeSpan@ATL@@QAE@XZ PROC NEAR		; ATL::COleDateTimeSpan::COleDateTimeSpan, COMDAT
; _this$ = ecx

; 30   : {

  00000	dd 05 00 00 00
	00		 fld	 QWORD PTR __real@0000000000000000
  00006	8b c1		 mov	 eax, ecx
  00008	dd 18		 fstp	 QWORD PTR [eax]
  0000a	c7 40 08 00 00
	00 00		 mov	 DWORD PTR [eax+8], 0

; 31   : }

  00011	c3		 ret	 0
??0COleDateTimeSpan@ATL@@QAE@XZ ENDP			; ATL::COleDateTimeSpan::COleDateTimeSpan
_TEXT	ENDS
PUBLIC	?SetStatus@COleDateTimeSpan@ATL@@QAEXW4DateTimeSpanStatus@12@@Z ; ATL::COleDateTimeSpan::SetStatus
; Function compile flags: /Ogty
;	COMDAT ?SetStatus@COleDateTimeSpan@ATL@@QAEXW4DateTimeSpanStatus@12@@Z
_TEXT	SEGMENT
_status$ = 8						; size = 4
?SetStatus@COleDateTimeSpan@ATL@@QAEXW4DateTimeSpanStatus@12@@Z PROC NEAR ; ATL::COleDateTimeSpan::SetStatus, COMDAT
; _this$ = ecx

; 45   : 	m_status = status;

  00000	8b 44 24 04	 mov	 eax, DWORD PTR _status$[esp-4]
  00004	89 41 08	 mov	 DWORD PTR [ecx+8], eax

; 46   : }

  00007	c2 04 00	 ret	 4
?SetStatus@COleDateTimeSpan@ATL@@QAEXW4DateTimeSpanStatus@12@@Z ENDP ; ATL::COleDateTimeSpan::SetStatus
_TEXT	ENDS
PUBLIC	?GetStatus@COleDateTimeSpan@ATL@@QBE?AW4DateTimeSpanStatus@12@XZ ; ATL::COleDateTimeSpan::GetStatus
; Function compile flags: /Ogty
;	COMDAT ?GetStatus@COleDateTimeSpan@ATL@@QBE?AW4DateTimeSpanStatus@12@XZ
_TEXT	SEGMENT
?GetStatus@COleDateTimeSpan@ATL@@QBE?AW4DateTimeSpanStatus@12@XZ PROC NEAR ; ATL::COleDateTimeSpan::GetStatus, COMDAT
; _this$ = ecx

; 50   : 	return m_status;

  00000	8b 41 08	 mov	 eax, DWORD PTR [ecx+8]

; 51   : }

  00003	c3		 ret	 0
?GetStatus@COleDateTimeSpan@ATL@@QBE?AW4DateTimeSpanStatus@12@XZ ENDP ; ATL::COleDateTimeSpan::GetStatus
_TEXT	ENDS
PUBLIC	__real@bed845c8a0ce5129
PUBLIC	?GetTotalDays@COleDateTimeSpan@ATL@@QBENXZ	; ATL::COleDateTimeSpan::GetTotalDays
EXTRN	__ftol2:NEAR
;	COMDAT __real@bed845c8a0ce5129
CONST	SEGMENT
__real@bed845c8a0ce5129 DQ 0bed845c8a0ce5129r	; -5.78704e-006
; Function compile flags: /Ogty
CONST	ENDS
;	COMDAT ?GetTotalDays@COleDateTimeSpan@ATL@@QBENXZ
_TEXT	SEGMENT
tv68 = -4						; size = 4
?GetTotalDays@COleDateTimeSpan@ATL@@QBENXZ PROC NEAR	; ATL::COleDateTimeSpan::GetTotalDays, COMDAT
; _this$ = ecx

; 58   : {

  00000	51		 push	 ecx

; 59   : 	ATLASSERT(GetStatus() == valid);
; 60   : 
; 61   : 	return LONG(m_span + (m_span < 0 ?
; 62   : 		-OLE_DATETIME_HALFSECOND : OLE_DATETIME_HALFSECOND));

  00001	dd 01		 fld	 QWORD PTR [ecx]
  00003	dc 1d 00 00 00
	00		 fcomp	 QWORD PTR __real@0000000000000000
  00009	df e0		 fnstsw	 ax
  0000b	f6 c4 05	 test	 ah, 5
  0000e	7a 15		 jp	 SHORT $L229655
  00010	dd 05 00 00 00
	00		 fld	 QWORD PTR __real@bed845c8a0ce5129
  00016	dc 01		 fadd	 QWORD PTR [ecx]
  00018	e8 00 00 00 00	 call	 __ftol2
  0001d	89 04 24	 mov	 DWORD PTR tv68[esp+4], eax
  00020	db 04 24	 fild	 DWORD PTR tv68[esp+4]

; 63   : }

  00023	59		 pop	 ecx
  00024	c3		 ret	 0
$L229655:

; 59   : 	ATLASSERT(GetStatus() == valid);
; 60   : 
; 61   : 	return LONG(m_span + (m_span < 0 ?
; 62   : 		-OLE_DATETIME_HALFSECOND : OLE_DATETIME_HALFSECOND));

  00025	dd 05 00 00 00
	00		 fld	 QWORD PTR ?OLE_DATETIME_HALFSECOND@COleDateTimeSpan@ATL@@0NB ; ATL::COleDateTimeSpan::OLE_DATETIME_HALFSECOND
  0002b	dc 01		 fadd	 QWORD PTR [ecx]
  0002d	e8 00 00 00 00	 call	 __ftol2
  00032	89 04 24	 mov	 DWORD PTR tv68[esp+4], eax
  00035	db 04 24	 fild	 DWORD PTR tv68[esp+4]

; 63   : }

  00038	59		 pop	 ecx
  00039	c3		 ret	 0
?GetTotalDays@COleDateTimeSpan@ATL@@QBENXZ ENDP		; ATL::COleDateTimeSpan::GetTotalDays
_TEXT	ENDS
PUBLIC	__real@4038000000000000
PUBLIC	?GetTotalHours@COleDateTimeSpan@ATL@@QBENXZ	; ATL::COleDateTimeSpan::GetTotalHours
;	COMDAT __real@4038000000000000
CONST	SEGMENT
__real@4038000000000000 DQ 04038000000000000r	; 24
; Function compile flags: /Ogty
CONST	ENDS
;	COMDAT ?GetTotalHours@COleDateTimeSpan@ATL@@QBENXZ
_TEXT	SEGMENT
tv128 = -4						; size = 4
?GetTotalHours@COleDateTimeSpan@ATL@@QBENXZ PROC NEAR	; ATL::COleDateTimeSpan::GetTotalHours, COMDAT
; _this$ = ecx

; 66   : {

  00000	51		 push	 ecx

; 67   : 	ATLASSERT(GetStatus() == valid);
; 68   : 
; 69   : 	return LONG((m_span + (m_span < 0 ? 
; 70   : 		-OLE_DATETIME_HALFSECOND : OLE_DATETIME_HALFSECOND)) * 24);

  00001	dd 01		 fld	 QWORD PTR [ecx]
  00003	dc 1d 00 00 00
	00		 fcomp	 QWORD PTR __real@0000000000000000
  00009	df e0		 fnstsw	 ax
  0000b	f6 c4 05	 test	 ah, 5
  0000e	7a 08		 jp	 SHORT $L229663
  00010	dd 05 00 00 00
	00		 fld	 QWORD PTR __real@bed845c8a0ce5129
  00016	eb 06		 jmp	 SHORT $L229664
$L229663:
  00018	dd 05 00 00 00
	00		 fld	 QWORD PTR ?OLE_DATETIME_HALFSECOND@COleDateTimeSpan@ATL@@0NB ; ATL::COleDateTimeSpan::OLE_DATETIME_HALFSECOND
$L229664:
  0001e	dc 01		 fadd	 QWORD PTR [ecx]
  00020	dc 0d 00 00 00
	00		 fmul	 QWORD PTR __real@4038000000000000
  00026	e8 00 00 00 00	 call	 __ftol2
  0002b	89 04 24	 mov	 DWORD PTR tv128[esp+4], eax
  0002e	db 04 24	 fild	 DWORD PTR tv128[esp+4]

; 71   : }

  00031	59		 pop	 ecx
  00032	c3		 ret	 0
?GetTotalHours@COleDateTimeSpan@ATL@@QBENXZ ENDP	; ATL::COleDateTimeSpan::GetTotalHours
_TEXT	ENDS
PUBLIC	__real@c14b964c80000000
PUBLIC	__real@414b964c80000000
PUBLIC	?CheckRange@COleDateTimeSpan@ATL@@QAEXXZ	; ATL::COleDateTimeSpan::CheckRange
;	COMDAT __real@c14b964c80000000
CONST	SEGMENT
__real@c14b964c80000000 DQ 0c14b964c80000000r	; -3.6159e+006
CONST	ENDS
;	COMDAT __real@414b964c80000000
CONST	SEGMENT
__real@414b964c80000000 DQ 0414b964c80000000r	; 3.6159e+006
; Function compile flags: /Ogty
CONST	ENDS
;	COMDAT ?CheckRange@COleDateTimeSpan@ATL@@QAEXXZ
_TEXT	SEGMENT
?CheckRange@COleDateTimeSpan@ATL@@QAEXXZ PROC NEAR	; ATL::COleDateTimeSpan::CheckRange, COMDAT
; _this$ = ecx

; 255  : 	if(m_span < -maxDaysInSpan || m_span > maxDaysInSpan)

  00000	dd 01		 fld	 QWORD PTR [ecx]
  00002	dc 1d 00 00 00
	00		 fcomp	 QWORD PTR __real@c14b964c80000000
  00008	df e0		 fnstsw	 ax
  0000a	f6 c4 05	 test	 ah, 5
  0000d	7b 0f		 jnp	 SHORT $L117063
  0000f	dd 01		 fld	 QWORD PTR [ecx]
  00011	dc 1d 00 00 00
	00		 fcomp	 QWORD PTR __real@414b964c80000000
  00017	df e0		 fnstsw	 ax
  00019	f6 c4 41	 test	 ah, 65			; 00000041H
  0001c	75 07		 jne	 SHORT $L117062
$L117063:

; 256  : 		m_status = invalid;

  0001e	c7 41 08 01 00
	00 00		 mov	 DWORD PTR [ecx+8], 1
$L117062:

; 257  : }

  00025	c3		 ret	 0
?CheckRange@COleDateTimeSpan@ATL@@QAEXXZ ENDP		; ATL::COleDateTimeSpan::CheckRange
_TEXT	ENDS
PUBLIC	??0COleDateTime@ATL@@QAE@XZ			; ATL::COleDateTime::COleDateTime
; Function compile flags: /Ogty
;	COMDAT ??0COleDateTime@ATL@@QAE@XZ
_TEXT	SEGMENT
??0COleDateTime@ATL@@QAE@XZ PROC NEAR			; ATL::COleDateTime::COleDateTime, COMDAT
; _this$ = ecx

; 270  : {

  00000	dd 05 00 00 00
	00		 fld	 QWORD PTR __real@0000000000000000
  00006	8b c1		 mov	 eax, ecx
  00008	dd 18		 fstp	 QWORD PTR [eax]
  0000a	c7 40 08 00 00
	00 00		 mov	 DWORD PTR [eax+8], 0

; 271  : }

  00011	c3		 ret	 0
??0COleDateTime@ATL@@QAE@XZ ENDP			; ATL::COleDateTime::COleDateTime
_TEXT	ENDS
PUBLIC	?GetStatus@COleDateTime@ATL@@QBE?AW4DateTimeStatus@12@XZ ; ATL::COleDateTime::GetStatus
; Function compile flags: /Ogty
;	COMDAT ?GetStatus@COleDateTime@ATL@@QBE?AW4DateTimeStatus@12@XZ
_TEXT	SEGMENT
?GetStatus@COleDateTime@ATL@@QBE?AW4DateTimeStatus@12@XZ PROC NEAR ; ATL::COleDateTime::GetStatus, COMDAT
; _this$ = ecx

; 331  : 	return m_status;

  00000	8b 41 08	 mov	 eax, DWORD PTR [ecx+8]

; 332  : }

  00003	c3		 ret	 0
?GetStatus@COleDateTime@ATL@@QBE?AW4DateTimeStatus@12@XZ ENDP ; ATL::COleDateTime::GetStatus
_TEXT	ENDS
PUBLIC	?GetAsSystemTime@COleDateTime@ATL@@QBE_NAAU_SYSTEMTIME@@@Z ; ATL::COleDateTime::GetAsSystemTime
EXTRN	__imp__VariantTimeToSystemTime@12:NEAR
; Function compile flags: /Ogty
;	COMDAT ?GetAsSystemTime@COleDateTime@ATL@@QBE_NAAU_SYSTEMTIME@@@Z
_TEXT	SEGMENT
_sysTime$ = 8						; size = 4
?GetAsSystemTime@COleDateTime@ATL@@QBE_NAAU_SYSTEMTIME@@@Z PROC NEAR ; ATL::COleDateTime::GetAsSystemTime, COMDAT
; _this$ = ecx

; 336  : 	return GetStatus() == valid && ::VariantTimeToSystemTime(m_dt, &sysTime);

  00000	8b 41 08	 mov	 eax, DWORD PTR [ecx+8]
  00003	85 c0		 test	 eax, eax
  00005	75 1f		 jne	 SHORT $L229683
  00007	8b 44 24 04	 mov	 eax, DWORD PTR _sysTime$[esp-4]
  0000b	dd 01		 fld	 QWORD PTR [ecx]
  0000d	50		 push	 eax
  0000e	83 ec 08	 sub	 esp, 8
  00011	dd 1c 24	 fstp	 QWORD PTR [esp]
  00014	ff 15 00 00 00
	00		 call	 DWORD PTR __imp__VariantTimeToSystemTime@12
  0001a	85 c0		 test	 eax, eax
  0001c	74 08		 je	 SHORT $L229683
  0001e	b8 01 00 00 00	 mov	 eax, 1

; 337  : }

  00023	c2 04 00	 ret	 4
$L229683:

; 336  : 	return GetStatus() == valid && ::VariantTimeToSystemTime(m_dt, &sysTime);

  00026	33 c0		 xor	 eax, eax

; 337  : }

  00028	c2 04 00	 ret	 4
?GetAsSystemTime@COleDateTime@ATL@@QBE_NAAU_SYSTEMTIME@@@Z ENDP ; ATL::COleDateTime::GetAsSystemTime
_TEXT	ENDS
PUBLIC	?GetDay@COleDateTime@ATL@@QBEHXZ		; ATL::COleDateTime::GetDay
; Function compile flags: /Ogty
;	COMDAT ?GetDay@COleDateTime@ATL@@QBEHXZ
_TEXT	SEGMENT
_st$ = -16						; size = 16
?GetDay@COleDateTime@ATL@@QBEHXZ PROC NEAR		; ATL::COleDateTime::GetDay, COMDAT
; _this$ = ecx

; 358  : 	SYSTEMTIME st;
; 359  : 	return GetAsSystemTime(st) ? st.wDay : error;

  00000	8b 41 08	 mov	 eax, DWORD PTR [ecx+8]
  00003	83 ec 10	 sub	 esp, 16			; 00000010H
  00006	85 c0		 test	 eax, eax
  00008	75 1f		 jne	 SHORT $L229692
  0000a	dd 01		 fld	 QWORD PTR [ecx]
  0000c	8d 04 24	 lea	 eax, DWORD PTR _st$[esp+16]
  0000f	50		 push	 eax
  00010	83 ec 08	 sub	 esp, 8
  00013	dd 1c 24	 fstp	 QWORD PTR [esp]
  00016	ff 15 00 00 00
	00		 call	 DWORD PTR __imp__VariantTimeToSystemTime@12
  0001c	85 c0		 test	 eax, eax
  0001e	74 09		 je	 SHORT $L229692
  00020	0f b7 44 24 06	 movzx	 eax, WORD PTR _st$[esp+22]

; 360  : }

  00025	83 c4 10	 add	 esp, 16			; 00000010H
  00028	c3		 ret	 0
$L229692:

; 358  : 	SYSTEMTIME st;
; 359  : 	return GetAsSystemTime(st) ? st.wDay : error;

  00029	83 c8 ff	 or	 eax, -1

; 360  : }

  0002c	83 c4 10	 add	 esp, 16			; 00000010H
  0002f	c3		 ret	 0
?GetDay@COleDateTime@ATL@@QBEHXZ ENDP			; ATL::COleDateTime::GetDay
_TEXT	ENDS
PUBLIC	?GetHour@COleDateTime@ATL@@QBEHXZ		; ATL::COleDateTime::GetHour
; Function compile flags: /Ogty
;	COMDAT ?GetHour@COleDateTime@ATL@@QBEHXZ
_TEXT	SEGMENT
_st$ = -16						; size = 16
?GetHour@COleDateTime@ATL@@QBEHXZ PROC NEAR		; ATL::COleDateTime::GetHour, COMDAT
; _this$ = ecx

; 364  : 	SYSTEMTIME st;
; 365  : 	return GetAsSystemTime(st) ? st.wHour : error;

  00000	8b 41 08	 mov	 eax, DWORD PTR [ecx+8]
  00003	83 ec 10	 sub	 esp, 16			; 00000010H
  00006	85 c0		 test	 eax, eax
  00008	75 1f		 jne	 SHORT $L229711
  0000a	dd 01		 fld	 QWORD PTR [ecx]
  0000c	8d 04 24	 lea	 eax, DWORD PTR _st$[esp+16]
  0000f	50		 push	 eax
  00010	83 ec 08	 sub	 esp, 8
  00013	dd 1c 24	 fstp	 QWORD PTR [esp]
  00016	ff 15 00 00 00
	00		 call	 DWORD PTR __imp__VariantTimeToSystemTime@12
  0001c	85 c0		 test	 eax, eax
  0001e	74 09		 je	 SHORT $L229711
  00020	0f b7 44 24 08	 movzx	 eax, WORD PTR _st$[esp+24]

; 366  : }

  00025	83 c4 10	 add	 esp, 16			; 00000010H
  00028	c3		 ret	 0
$L229711:

; 364  : 	SYSTEMTIME st;
; 365  : 	return GetAsSystemTime(st) ? st.wHour : error;

  00029	83 c8 ff	 or	 eax, -1

; 366  : }

  0002c	83 c4 10	 add	 esp, 16			; 00000010H
  0002f	c3		 ret	 0
?GetHour@COleDateTime@ATL@@QBEHXZ ENDP			; ATL::COleDateTime::GetHour
_TEXT	ENDS
PUBLIC	?GetMinute@COleDateTime@ATL@@QBEHXZ		; ATL::COleDateTime::GetMinute
; Function compile flags: /Ogty
;	COMDAT ?GetMinute@COleDateTime@ATL@@QBEHXZ
_TEXT	SEGMENT
_st$ = -16						; size = 16
?GetMinute@COleDateTime@ATL@@QBEHXZ PROC NEAR		; ATL::COleDateTime::GetMinute, COMDAT
; _this$ = ecx

; 370  : 	SYSTEMTIME st;
; 371  : 	return GetAsSystemTime(st) ? st.wMinute : error;

  00000	8b 41 08	 mov	 eax, DWORD PTR [ecx+8]
  00003	83 ec 10	 sub	 esp, 16			; 00000010H
  00006	85 c0		 test	 eax, eax
  00008	75 1f		 jne	 SHORT $L229730
  0000a	dd 01		 fld	 QWORD PTR [ecx]
  0000c	8d 04 24	 lea	 eax, DWORD PTR _st$[esp+16]
  0000f	50		 push	 eax
  00010	83 ec 08	 sub	 esp, 8
  00013	dd 1c 24	 fstp	 QWORD PTR [esp]
  00016	ff 15 00 00 00
	00		 call	 DWORD PTR __imp__VariantTimeToSystemTime@12
  0001c	85 c0		 test	 eax, eax
  0001e	74 09		 je	 SHORT $L229730
  00020	0f b7 44 24 0a	 movzx	 eax, WORD PTR _st$[esp+26]

; 372  : }

  00025	83 c4 10	 add	 esp, 16			; 00000010H
  00028	c3		 ret	 0
$L229730:

; 370  : 	SYSTEMTIME st;
; 371  : 	return GetAsSystemTime(st) ? st.wMinute : error;

  00029	83 c8 ff	 or	 eax, -1

; 372  : }

  0002c	83 c4 10	 add	 esp, 16			; 00000010H
  0002f	c3		 ret	 0
?GetMinute@COleDateTime@ATL@@QBEHXZ ENDP		; ATL::COleDateTime::GetMinute
_TEXT	ENDS
PUBLIC	?GetSecond@COleDateTime@ATL@@QBEHXZ		; ATL::COleDateTime::GetSecond
; Function compile flags: /Ogty
;	COMDAT ?GetSecond@COleDateTime@ATL@@QBEHXZ
_TEXT	SEGMENT
_st$ = -16						; size = 16
?GetSecond@COleDateTime@ATL@@QBEHXZ PROC NEAR		; ATL::COleDateTime::GetSecond, COMDAT
; _this$ = ecx

; 376  : 	SYSTEMTIME st;
; 377  : 	return GetAsSystemTime(st) ? st.wSecond : error;

  00000	8b 41 08	 mov	 eax, DWORD PTR [ecx+8]
  00003	83 ec 10	 sub	 esp, 16			; 00000010H
  00006	85 c0		 test	 eax, eax
  00008	75 1f		 jne	 SHORT $L229749
  0000a	dd 01		 fld	 QWORD PTR [ecx]
  0000c	8d 04 24	 lea	 eax, DWORD PTR _st$[esp+16]
  0000f	50		 push	 eax
  00010	83 ec 08	 sub	 esp, 8
  00013	dd 1c 24	 fstp	 QWORD PTR [esp]
  00016	ff 15 00 00 00
	00		 call	 DWORD PTR __imp__VariantTimeToSystemTime@12
  0001c	85 c0		 test	 eax, eax
  0001e	74 09		 je	 SHORT $L229749
  00020	0f b7 44 24 0c	 movzx	 eax, WORD PTR _st$[esp+28]

; 378  : }

  00025	83 c4 10	 add	 esp, 16			; 00000010H
  00028	c3		 ret	 0
$L229749:

; 376  : 	SYSTEMTIME st;
; 377  : 	return GetAsSystemTime(st) ? st.wSecond : error;

  00029	83 c8 ff	 or	 eax, -1

; 378  : }

  0002c	83 c4 10	 add	 esp, 16			; 00000010H
  0002f	c3		 ret	 0
?GetSecond@COleDateTime@ATL@@QBEHXZ ENDP		; ATL::COleDateTime::GetSecond
_TEXT	ENDS
PUBLIC	?SetDateTime@COleDateTime@ATL@@QAEHHHHHHH@Z	; ATL::COleDateTime::SetDateTime
EXTRN	__imp__SystemTimeToVariantTime@8:NEAR
; Function compile flags: /Ogty
;	COMDAT ?SetDateTime@COleDateTime@ATL@@QAEHHHHHHH@Z
_TEXT	SEGMENT
_st$ = -32						; size = 16
_sysTime$ = -16						; size = 16
_nYear$ = 8						; size = 4
_nMonth$ = 12						; size = 4
_nDay$ = 16						; size = 4
_nHour$ = 20						; size = 4
_nMin$ = 24						; size = 4
_nSec$ = 28						; size = 4
?SetDateTime@COleDateTime@ATL@@QAEHHHHHHH@Z PROC NEAR	; ATL::COleDateTime::SetDateTime, COMDAT
; _this$ = ecx

; 581  : {

  00000	83 ec 20	 sub	 esp, 32			; 00000020H

; 582  : 	SYSTEMTIME st;
; 583  : 	SYSTEMTIME sysTime;
; 584  : 	::ZeroMemory(&st, sizeof(SYSTEMTIME));
; 585  : 	::ZeroMemory(&sysTime, sizeof(SYSTEMTIME));
; 586  : 
; 587  : 	st.wYear = WORD(nYear);

  00003	66 8b 54 24 24	 mov	 dx, WORD PTR _nYear$[esp+28]
  00008	56		 push	 esi
  00009	8b f1		 mov	 esi, ecx
  0000b	33 c0		 xor	 eax, eax
  0000d	33 c9		 xor	 ecx, ecx
  0000f	89 44 24 04	 mov	 DWORD PTR _st$[esp+36], eax
  00013	89 4c 24 14	 mov	 DWORD PTR _sysTime$[esp+36], ecx
  00017	89 44 24 08	 mov	 DWORD PTR _st$[esp+40], eax
  0001b	89 44 24 0c	 mov	 DWORD PTR _st$[esp+44], eax
  0001f	89 4c 24 18	 mov	 DWORD PTR _sysTime$[esp+40], ecx
  00023	89 4c 24 1c	 mov	 DWORD PTR _sysTime$[esp+44], ecx
  00027	89 44 24 10	 mov	 DWORD PTR _st$[esp+48], eax

; 588  : 	st.wMonth = WORD(nMonth);

  0002b	66 8b 44 24 2c	 mov	 ax, WORD PTR _nMonth$[esp+32]
  00030	66 89 54 24 04	 mov	 WORD PTR _st$[esp+36], dx

; 589  : 	st.wDay = WORD(nDay);
; 590  : 	st.wHour = WORD(nHour);

  00035	66 8b 54 24 34	 mov	 dx, WORD PTR _nHour$[esp+32]
  0003a	89 4c 24 20	 mov	 DWORD PTR _sysTime$[esp+48], ecx
  0003e	66 8b 4c 24 30	 mov	 cx, WORD PTR _nDay$[esp+32]
  00043	66 89 54 24 0c	 mov	 WORD PTR _st$[esp+44], dx
  00048	66 89 44 24 06	 mov	 WORD PTR _st$[esp+38], ax

; 591  : 	st.wMinute = WORD(nMin);

  0004d	66 8b 44 24 38	 mov	 ax, WORD PTR _nMin$[esp+32]
  00052	66 89 4c 24 0a	 mov	 WORD PTR _st$[esp+42], cx

; 592  : 	st.wSecond = WORD(nSec);

  00057	66 8b 4c 24 3c	 mov	 cx, WORD PTR _nSec$[esp+32]

; 593  : 
; 594  : 	if (!::SystemTimeToVariantTime(&st, &m_dt))

  0005c	56		 push	 esi
  0005d	8d 54 24 08	 lea	 edx, DWORD PTR _st$[esp+40]
  00061	52		 push	 edx
  00062	66 89 44 24 16	 mov	 WORD PTR _st$[esp+54], ax
  00067	66 89 4c 24 18	 mov	 WORD PTR _st$[esp+56], cx
  0006c	ff 15 00 00 00
	00		 call	 DWORD PTR __imp__SystemTimeToVariantTime@8
  00072	85 c0		 test	 eax, eax

; 595  : 		return m_status = invalid;

  00074	74 67		 je	 SHORT $L229768

; 596  : 
; 597  : 	// Since SystemTimeToVariantTime tries to fix invalid dates, we cannot rely on it to tell us
; 598  : 	// whether the original SYSTEMTIME was incorrect. We check that using an additional call
; 599  : 	// to VariantTimeToSystemTime and then compare all SYSTEMTIME fields except for wDayOfWeek and
; 600  : 	// wMilliseconds.
; 601  : 	::VariantTimeToSystemTime(m_dt, &sysTime);

  00076	dd 06		 fld	 QWORD PTR [esi]
  00078	8d 44 24 14	 lea	 eax, DWORD PTR _sysTime$[esp+36]
  0007c	50		 push	 eax
  0007d	83 ec 08	 sub	 esp, 8
  00080	dd 1c 24	 fstp	 QWORD PTR [esp]
  00083	ff 15 00 00 00
	00		 call	 DWORD PTR __imp__VariantTimeToSystemTime@12

; 602  : 	return( m_status = (st.wYear == sysTime.wYear &&
; 603  : 				st.wMonth == sysTime.wMonth &&
; 604  : 				st.wDay == sysTime.wDay &&
; 605  : 				st.wHour == sysTime.wHour &&
; 606  : 				st.wMinute == sysTime.wMinute && 
; 607  : 				st.wSecond == sysTime.wSecond) ? valid : invalid );

  00089	66 8b 4c 24 04	 mov	 cx, WORD PTR _st$[esp+36]
  0008e	66 3b 4c 24 14	 cmp	 cx, WORD PTR _sysTime$[esp+36]
  00093	75 48		 jne	 SHORT $L229768
  00095	66 8b 54 24 06	 mov	 dx, WORD PTR _st$[esp+38]
  0009a	66 3b 54 24 16	 cmp	 dx, WORD PTR _sysTime$[esp+38]
  0009f	75 3c		 jne	 SHORT $L229768
  000a1	66 8b 44 24 0a	 mov	 ax, WORD PTR _st$[esp+42]
  000a6	66 3b 44 24 1a	 cmp	 ax, WORD PTR _sysTime$[esp+42]
  000ab	75 30		 jne	 SHORT $L229768
  000ad	66 8b 4c 24 0c	 mov	 cx, WORD PTR _st$[esp+44]
  000b2	66 3b 4c 24 1c	 cmp	 cx, WORD PTR _sysTime$[esp+44]
  000b7	75 24		 jne	 SHORT $L229768
  000b9	66 8b 54 24 0e	 mov	 dx, WORD PTR _st$[esp+46]
  000be	66 3b 54 24 1e	 cmp	 dx, WORD PTR _sysTime$[esp+46]
  000c3	75 18		 jne	 SHORT $L229768
  000c5	66 8b 44 24 10	 mov	 ax, WORD PTR _st$[esp+48]
  000ca	66 3b 44 24 20	 cmp	 ax, WORD PTR _sysTime$[esp+48]
  000cf	75 0c		 jne	 SHORT $L229768
  000d1	33 c0		 xor	 eax, eax
  000d3	89 46 08	 mov	 DWORD PTR [esi+8], eax
  000d6	5e		 pop	 esi

; 608  : }

  000d7	83 c4 20	 add	 esp, 32			; 00000020H
  000da	c2 18 00	 ret	 24			; 00000018H
$L229768:

; 602  : 	return( m_status = (st.wYear == sysTime.wYear &&
; 603  : 				st.wMonth == sysTime.wMonth &&
; 604  : 				st.wDay == sysTime.wDay &&
; 605  : 				st.wHour == sysTime.wHour &&
; 606  : 				st.wMinute == sysTime.wMinute && 
; 607  : 				st.wSecond == sysTime.wSecond) ? valid : invalid );

  000dd	b8 01 00 00 00	 mov	 eax, 1
  000e2	89 46 08	 mov	 DWORD PTR [esi+8], eax
  000e5	5e		 pop	 esi

; 608  : }

  000e6	83 c4 20	 add	 esp, 32			; 00000020H
  000e9	c2 18 00	 ret	 24			; 00000018H
?SetDateTime@COleDateTime@ATL@@QAEHHHHHHH@Z ENDP	; ATL::COleDateTime::SetDateTime
_TEXT	ENDS
PUBLIC	?time_null@@YAJXZ				; time_null
EXTRN	?g_tCurrent@@3JA:DWORD				; g_tCurrent
; Function compile flags: /Ogty
; File c:\documents and settings\test\mes documents\source\virtuos_v17\build\program\_network\cmnhdr.h
;	COMDAT ?time_null@@YAJXZ
_TEXT	SEGMENT
?time_null@@YAJXZ PROC NEAR				; time_null, COMDAT

; 702  : #if defined(__WORLDSERVER) || defined(__CLIENT)
; 703  : 	return	g_tCurrent;

  00000	a1 00 00 00 00	 mov	 eax, DWORD PTR ?g_tCurrent@@3JA ; g_tCurrent

; 704  : #else	//
; 705  : 	return time( NULL );
; 706  : #endif	//
; 707  : }

  00005	c3		 ret	 0
?time_null@@YAJXZ ENDP					; time_null
_TEXT	ENDS
PUBLIC	?IsStoring@CAr@@QBEHXZ				; CAr::IsStoring
; Function compile flags: /Ogty
; File c:\documents and settings\test\mes documents\source\virtuos_v17\build\program\_network\misc\include\ar.h
;	COMDAT ?IsStoring@CAr@@QBEHXZ
_TEXT	SEGMENT
?IsStoring@CAr@@QBEHXZ PROC NEAR			; CAr::IsStoring, COMDAT
; _this$ = ecx

; 96   : 	{ return (m_nMode & CAr::load) == 0; }

  00000	33 c0		 xor	 eax, eax
  00002	8a 01		 mov	 al, BYTE PTR [ecx]
  00004	f7 d0		 not	 eax
  00006	83 e0 01	 and	 eax, 1
  00009	c3		 ret	 0
?IsStoring@CAr@@QBEHXZ ENDP				; CAr::IsStoring
_TEXT	ENDS
PUBLIC	??6CAr@@QAEAAV0@E@Z				; CAr::operator<<
EXTRN	?CheckBuf@CAr@@QAEXI@Z:NEAR			; CAr::CheckBuf
; Function compile flags: /Ogty
;	COMDAT ??6CAr@@QAEAAV0@E@Z
_TEXT	SEGMENT
_by$ = 8						; size = 1
??6CAr@@QAEAAV0@E@Z PROC NEAR				; CAr::operator<<, COMDAT
; _this$ = ecx

; 107  : 	{ CheckBuf( sizeof(BYTE) );

  00000	56		 push	 esi
  00001	6a 01		 push	 1
  00003	8b f1		 mov	 esi, ecx
  00005	e8 00 00 00 00	 call	 ?CheckBuf@CAr@@QAEXI@Z	; CAr::CheckBuf

; 108  : 		*(UNALIGNED BYTE*)m_lpBufCur = by; m_lpBufCur += sizeof(BYTE); return *this; }

  0000a	8b 46 08	 mov	 eax, DWORD PTR [esi+8]
  0000d	8a 4c 24 08	 mov	 cl, BYTE PTR _by$[esp]
  00011	88 08		 mov	 BYTE PTR [eax], cl
  00013	ff 46 08	 inc	 DWORD PTR [esi+8]
  00016	8b c6		 mov	 eax, esi
  00018	5e		 pop	 esi
  00019	c2 04 00	 ret	 4
??6CAr@@QAEAAV0@E@Z ENDP				; CAr::operator<<
_TEXT	ENDS
PUBLIC	??6CAr@@QAEAAV0@J@Z				; CAr::operator<<
; Function compile flags: /Ogty
;	COMDAT ??6CAr@@QAEAAV0@J@Z
_TEXT	SEGMENT
_l$ = 8							; size = 4
??6CAr@@QAEAAV0@J@Z PROC NEAR				; CAr::operator<<, COMDAT
; _this$ = ecx

; 113  : 	{ CheckBuf( sizeof(LONG) );

  00000	56		 push	 esi
  00001	6a 04		 push	 4
  00003	8b f1		 mov	 esi, ecx
  00005	e8 00 00 00 00	 call	 ?CheckBuf@CAr@@QAEXI@Z	; CAr::CheckBuf

; 114  : 		*(UNALIGNED LONG*)m_lpBufCur = l; m_lpBufCur += sizeof(LONG); return *this; }

  0000a	8b 46 08	 mov	 eax, DWORD PTR [esi+8]
  0000d	8b 4c 24 08	 mov	 ecx, DWORD PTR _l$[esp]
  00011	89 08		 mov	 DWORD PTR [eax], ecx
  00013	83 46 08 04	 add	 DWORD PTR [esi+8], 4
  00017	8b c6		 mov	 eax, esi
  00019	5e		 pop	 esi
  0001a	c2 04 00	 ret	 4
??6CAr@@QAEAAV0@J@Z ENDP				; CAr::operator<<
_TEXT	ENDS
PUBLIC	??6CAr@@QAEAAV0@K@Z				; CAr::operator<<
; Function compile flags: /Ogty
;	COMDAT ??6CAr@@QAEAAV0@K@Z
_TEXT	SEGMENT
_dw$ = 8						; size = 4
??6CAr@@QAEAAV0@K@Z PROC NEAR				; CAr::operator<<, COMDAT
; _this$ = ecx

; 116  : 	{ CheckBuf( sizeof(DWORD) );

  00000	56		 push	 esi
  00001	6a 04		 push	 4
  00003	8b f1		 mov	 esi, ecx
  00005	e8 00 00 00 00	 call	 ?CheckBuf@CAr@@QAEXI@Z	; CAr::CheckBuf

; 117  : 		*(UNALIGNED DWORD*)m_lpBufCur = dw; m_lpBufCur += sizeof(DWORD); return *this; }

  0000a	8b 46 08	 mov	 eax, DWORD PTR [esi+8]
  0000d	8b 4c 24 08	 mov	 ecx, DWORD PTR _dw$[esp]
  00011	89 08		 mov	 DWORD PTR [eax], ecx
  00013	83 46 08 04	 add	 DWORD PTR [esi+8], 4
  00017	8b c6		 mov	 eax, esi
  00019	5e		 pop	 esi
  0001a	c2 04 00	 ret	 4
??6CAr@@QAEAAV0@K@Z ENDP				; CAr::operator<<
_TEXT	ENDS
PUBLIC	??5CAr@@QAEAAV0@AAE@Z				; CAr::operator>>
; Function compile flags: /Ogty
;	COMDAT ??5CAr@@QAEAAV0@AAE@Z
_TEXT	SEGMENT
_by$ = 8						; size = 4
??5CAr@@QAEAAV0@AAE@Z PROC NEAR				; CAr::operator>>, COMDAT
; _this$ = ecx

; 142  : 	{	CAR_SAFE_READ( BYTE, by );	}

  00000	8b c1		 mov	 eax, ecx
  00002	8b 48 08	 mov	 ecx, DWORD PTR [eax+8]
  00005	56		 push	 esi
  00006	8b 70 0c	 mov	 esi, DWORD PTR [eax+12]
  00009	8d 51 01	 lea	 edx, DWORD PTR [ecx+1]
  0000c	3b d6		 cmp	 edx, esi
  0000e	5e		 pop	 esi
  0000f	77 0e		 ja	 SHORT $L205448
  00011	8a 09		 mov	 cl, BYTE PTR [ecx]
  00013	8b 54 24 04	 mov	 edx, DWORD PTR _by$[esp-4]
  00017	88 0a		 mov	 BYTE PTR [edx], cl
  00019	ff 40 08	 inc	 DWORD PTR [eax+8]
  0001c	c2 04 00	 ret	 4
$L205448:
  0001f	8b 4c 24 04	 mov	 ecx, DWORD PTR _by$[esp-4]
  00023	c6 01 00	 mov	 BYTE PTR [ecx], 0
  00026	8b 50 0c	 mov	 edx, DWORD PTR [eax+12]
  00029	89 50 08	 mov	 DWORD PTR [eax+8], edx
  0002c	c2 04 00	 ret	 4
??5CAr@@QAEAAV0@AAE@Z ENDP				; CAr::operator>>
_TEXT	ENDS
PUBLIC	??5CAr@@QAEAAV0@AAK@Z				; CAr::operator>>
; Function compile flags: /Ogty
;	COMDAT ??5CAr@@QAEAAV0@AAK@Z
_TEXT	SEGMENT
_dw$ = 8						; size = 4
??5CAr@@QAEAAV0@AAK@Z PROC NEAR				; CAr::operator>>, COMDAT
; _this$ = ecx

; 146  : 	{	CAR_SAFE_READ( DWORD, dw );	}

  00000	8b c1		 mov	 eax, ecx
  00002	8b 48 08	 mov	 ecx, DWORD PTR [eax+8]
  00005	56		 push	 esi
  00006	8b 70 0c	 mov	 esi, DWORD PTR [eax+12]
  00009	8d 51 04	 lea	 edx, DWORD PTR [ecx+4]
  0000c	3b d6		 cmp	 edx, esi
  0000e	5e		 pop	 esi
  0000f	77 0f		 ja	 SHORT $L205468
  00011	8b 09		 mov	 ecx, DWORD PTR [ecx]
  00013	8b 54 24 04	 mov	 edx, DWORD PTR _dw$[esp-4]
  00017	89 0a		 mov	 DWORD PTR [edx], ecx
  00019	83 40 08 04	 add	 DWORD PTR [eax+8], 4
  0001d	c2 04 00	 ret	 4
$L205468:
  00020	8b 4c 24 04	 mov	 ecx, DWORD PTR _dw$[esp-4]
  00024	c7 01 00 00 00
	00		 mov	 DWORD PTR [ecx], 0
  0002a	8b 50 0c	 mov	 edx, DWORD PTR [eax+12]
  0002d	89 50 08	 mov	 DWORD PTR [eax+8], edx
  00030	c2 04 00	 ret	 4
??5CAr@@QAEAAV0@AAK@Z ENDP				; CAr::operator>>
_TEXT	ENDS
PUBLIC	??5CAr@@QAEAAV0@AAJ@Z				; CAr::operator>>
; Function compile flags: /Ogty
;	COMDAT ??5CAr@@QAEAAV0@AAJ@Z
_TEXT	SEGMENT
_l$ = 8							; size = 4
??5CAr@@QAEAAV0@AAJ@Z PROC NEAR				; CAr::operator>>, COMDAT
; _this$ = ecx

; 152  : 	{	CAR_SAFE_READ( LONG, l );	}

  00000	8b c1		 mov	 eax, ecx
  00002	8b 48 08	 mov	 ecx, DWORD PTR [eax+8]
  00005	56		 push	 esi
  00006	8b 70 0c	 mov	 esi, DWORD PTR [eax+12]
  00009	8d 51 04	 lea	 edx, DWORD PTR [ecx+4]
  0000c	3b d6		 cmp	 edx, esi
  0000e	5e		 pop	 esi
  0000f	77 0f		 ja	 SHORT $L205498
  00011	8b 09		 mov	 ecx, DWORD PTR [ecx]
  00013	8b 54 24 04	 mov	 edx, DWORD PTR _l$[esp-4]
  00017	89 0a		 mov	 DWORD PTR [edx], ecx
  00019	83 40 08 04	 add	 DWORD PTR [eax+8], 4
  0001d	c2 04 00	 ret	 4
$L205498:
  00020	8b 4c 24 04	 mov	 ecx, DWORD PTR _l$[esp-4]
  00024	c7 01 00 00 00
	00		 mov	 DWORD PTR [ecx], 0
  0002a	8b 50 0c	 mov	 edx, DWORD PTR [eax+12]
  0002d	89 50 08	 mov	 DWORD PTR [eax+8], edx
  00030	c2 04 00	 ret	 4
??5CAr@@QAEAAV0@AAJ@Z ENDP				; CAr::operator>>
_TEXT	ENDS
PUBLIC	?size@?$basic_string@DU?$char_traits@D@std@@V?$allocator@D@2@@std@@QBEIXZ ; std::basic_string<char,std::char_traits<char>,std::allocator<char> >::size
; Function compile flags: /Ogty
; File c:\program files\microsoft visual studio .net 2003\vc7\include\xstring
;	COMDAT ?size@?$basic_string@DU?$char_traits@D@std@@V?$allocator@D@2@@std@@QBEIXZ
_TEXT	SEGMENT
?size@?$basic_string@DU?$char_traits@D@std@@V?$allocator@D@2@@std@@QBEIXZ PROC NEAR ; std::basic_string<char,std::char_traits<char>,std::allocator<char> >::size, COMDAT
; _this$ = ecx

; 1109 : 		return (_Mysize);

  00000	8b 41 14	 mov	 eax, DWORD PTR [ecx+20]

; 1110 : 		}

  00003	c3		 ret	 0
?size@?$basic_string@DU?$char_traits@D@std@@V?$allocator@D@2@@std@@QBEIXZ ENDP ; std::basic_string<char,std::char_traits<char>,std::allocator<char> >::size
_TEXT	ENDS
PUBLIC	?_Myptr@?$basic_string@DU?$char_traits@D@std@@V?$allocator@D@2@@std@@QBEPBDXZ ; std::basic_string<char,std::char_traits<char>,std::allocator<char> >::_Myptr
; Function compile flags: /Ogty
;	COMDAT ?_Myptr@?$basic_string@DU?$char_traits@D@std@@V?$allocator@D@2@@std@@QBEPBDXZ
_TEXT	SEGMENT
?_Myptr@?$basic_string@DU?$char_traits@D@std@@V?$allocator@D@2@@std@@QBEPBDXZ PROC NEAR ; std::basic_string<char,std::char_traits<char>,std::allocator<char> >::_Myptr, COMDAT
; _this$ = ecx

; 1537 : 		return (_BUF_SIZE <= _Myres ? _Bx._Ptr : _Bx._Buf);

  00000	83 79 18 10	 cmp	 DWORD PTR [ecx+24], 16	; 00000010H
  00004	72 04		 jb	 SHORT $L229800
  00006	8b 41 04	 mov	 eax, DWORD PTR [ecx+4]

; 1538 : 		}

  00009	c3		 ret	 0
$L229800:

; 1537 : 		return (_BUF_SIZE <= _Myres ? _Bx._Ptr : _Bx._Buf);

  0000a	8d 41 04	 lea	 eax, DWORD PTR [ecx+4]

; 1538 : 		}

  0000d	c3		 ret	 0
?_Myptr@?$basic_string@DU?$char_traits@D@std@@V?$allocator@D@2@@std@@QBEPBDXZ ENDP ; std::basic_string<char,std::char_traits<char>,std::allocator<char> >::_Myptr
_TEXT	ENDS
PUBLIC	??0?$allocator@D@std@@QAE@XZ			; std::allocator<char>::allocator<char>
; Function compile flags: /Ogty
; File c:\program files\microsoft visual studio .net 2003\vc7\include\xmemory
;	COMDAT ??0?$allocator@D@std@@QAE@XZ
_TEXT	SEGMENT
??0?$allocator@D@std@@QAE@XZ PROC NEAR			; std::allocator<char>::allocator<char>, COMDAT
; _this$ = ecx

; 111  : 	allocator()

  00000	8b c1		 mov	 eax, ecx

; 112  : 		{	// construct default allocator (do nothing)
; 113  : 		}

  00002	c3		 ret	 0
??0?$allocator@D@std@@QAE@XZ ENDP			; std::allocator<char>::allocator<char>
_TEXT	ENDS
PUBLIC	??0?$allocator@D@std@@QAE@ABV01@@Z		; std::allocator<char>::allocator<char>
; Function compile flags: /Ogty
;	COMDAT ??0?$allocator@D@std@@QAE@ABV01@@Z
_TEXT	SEGMENT
___formal$ = 8						; size = 4
??0?$allocator@D@std@@QAE@ABV01@@Z PROC NEAR		; std::allocator<char>::allocator<char>, COMDAT
; _this$ = ecx

; 115  : 	allocator(const allocator<_Ty>&)

  00000	8b c1		 mov	 eax, ecx

; 116  : 		{	// construct by copying (do nothing)
; 117  : 		}

  00002	c2 04 00	 ret	 4
??0?$allocator@D@std@@QAE@ABV01@@Z ENDP			; std::allocator<char>::allocator<char>
_TEXT	ENDS
PUBLIC	??R?$less@K@std@@QBE_NABK0@Z			; std::less<unsigned long>::operator()
; Function compile flags: /Ogty
; File c:\program files\microsoft visual studio .net 2003\vc7\include\functional
;	COMDAT ??R?$less@K@std@@QBE_NABK0@Z
_TEXT	SEGMENT
__Left$ = 8						; size = 4
__Right$ = 12						; size = 4
??R?$less@K@std@@QBE_NABK0@Z PROC NEAR			; std::less<unsigned long>::operator(), COMDAT
; _this$ = ecx

; 139  : 		return (_Left < _Right);

  00000	8b 44 24 04	 mov	 eax, DWORD PTR __Left$[esp-4]
  00004	8b 08		 mov	 ecx, DWORD PTR [eax]
  00006	8b 54 24 08	 mov	 edx, DWORD PTR __Right$[esp-4]
  0000a	3b 0a		 cmp	 ecx, DWORD PTR [edx]
  0000c	1b c0		 sbb	 eax, eax
  0000e	f7 d8		 neg	 eax

; 140  : 		}

  00010	c2 08 00	 ret	 8
??R?$less@K@std@@QBE_NABK0@Z ENDP			; std::less<unsigned long>::operator()
_TEXT	ENDS
PUBLIC	?_Myptr@?$basic_string@DU?$char_traits@D@std@@V?$allocator@D@2@@std@@QAEPADXZ ; std::basic_string<char,std::char_traits<char>,std::allocator<char> >::_Myptr
; Function compile flags: /Ogty
; File c:\program files\microsoft visual studio .net 2003\vc7\include\xstring
;	COMDAT ?_Myptr@?$basic_string@DU?$char_traits@D@std@@V?$allocator@D@2@@std@@QAEPADXZ
_TEXT	SEGMENT
?_Myptr@?$basic_string@DU?$char_traits@D@std@@V?$allocator@D@2@@std@@QAEPADXZ PROC NEAR ; std::basic_string<char,std::char_traits<char>,std::allocator<char> >::_Myptr, COMDAT
; _this$ = ecx

; 1532 : 		return (_BUF_SIZE <= _Myres ? _Bx._Ptr : _Bx._Buf);

  00000	83 79 18 10	 cmp	 DWORD PTR [ecx+24], 16	; 00000010H
  00004	72 04		 jb	 SHORT $L229814
  00006	8b 41 04	 mov	 eax, DWORD PTR [ecx+4]

; 1533 : 		}

  00009	c3		 ret	 0
$L229814:

; 1532 : 		return (_BUF_SIZE <= _Myres ? _Bx._Ptr : _Bx._Buf);

  0000a	8d 41 04	 lea	 eax, DWORD PTR [ecx+4]

; 1533 : 		}

  0000d	c3		 ret	 0
?_Myptr@?$basic_string@DU?$char_traits@D@std@@V?$allocator@D@2@@std@@QAEPADXZ ENDP ; std::basic_string<char,std::char_traits<char>,std::allocator<char> >::_Myptr
_TEXT	ENDS
PUBLIC	?deallocate@?$allocator@D@std@@QAEXPADI@Z	; std::allocator<char>::deallocate
; Function compile flags: /Ogty
; File c:\program files\microsoft visual studio .net 2003\vc7\include\xmemory
;	COMDAT ?deallocate@?$allocator@D@std@@QAEXPADI@Z
_TEXT	SEGMENT
__Ptr$ = 8						; size = 4
___formal$ = 12						; size = 4
?deallocate@?$allocator@D@std@@QAEXPADI@Z PROC NEAR	; std::allocator<char>::deallocate, COMDAT
; _this$ = ecx

; 132  : 		operator delete(_Ptr);

  00000	8b 44 24 04	 mov	 eax, DWORD PTR __Ptr$[esp-4]
  00004	50		 push	 eax
  00005	e8 00 00 00 00	 call	 ??3@YAXPAX@Z		; operator delete
  0000a	59		 pop	 ecx

; 133  : 		}

  0000b	c2 08 00	 ret	 8
?deallocate@?$allocator@D@std@@QAEXPADI@Z ENDP		; std::allocator<char>::deallocate
_TEXT	ENDS
PUBLIC	?_Inside@?$basic_string@DU?$char_traits@D@std@@V?$allocator@D@2@@std@@IAE_NPBD@Z ; std::basic_string<char,std::char_traits<char>,std::allocator<char> >::_Inside
; Function compile flags: /Ogty
; File c:\program files\microsoft visual studio .net 2003\vc7\include\xstring
;	COMDAT ?_Inside@?$basic_string@DU?$char_traits@D@std@@V?$allocator@D@2@@std@@IAE_NPBD@Z
_TEXT	SEGMENT
__Ptr$ = 8						; size = 4
?_Inside@?$basic_string@DU?$char_traits@D@std@@V?$allocator@D@2@@std@@IAE_NPBD@Z PROC NEAR ; std::basic_string<char,std::char_traits<char>,std::allocator<char> >::_Inside, COMDAT
; _this$ = ecx

; 1494 : 		{	// test if _Ptr points inside string

  00000	56		 push	 esi

; 1495 : 		if (_Ptr < _Myptr() || _Myptr() + _Mysize <= _Ptr)

  00001	8b 71 18	 mov	 esi, DWORD PTR [ecx+24]
  00004	83 fe 10	 cmp	 esi, 16			; 00000010H
  00007	57		 push	 edi
  00008	8d 41 04	 lea	 eax, DWORD PTR [ecx+4]
  0000b	72 04		 jb	 SHORT $L229827
  0000d	8b 10		 mov	 edx, DWORD PTR [eax]
  0000f	eb 02		 jmp	 SHORT $L229828
$L229827:
  00011	8b d0		 mov	 edx, eax
$L229828:
  00013	8b 7c 24 0c	 mov	 edi, DWORD PTR __Ptr$[esp+4]
  00017	3b fa		 cmp	 edi, edx
  00019	72 17		 jb	 SHORT $L222788
  0001b	83 fe 10	 cmp	 esi, 16			; 00000010H
  0001e	72 02		 jb	 SHORT $L229835
  00020	8b 00		 mov	 eax, DWORD PTR [eax]
$L229835:
  00022	8b 49 14	 mov	 ecx, DWORD PTR [ecx+20]
  00025	03 c8		 add	 ecx, eax
  00027	3b cf		 cmp	 ecx, edi
  00029	76 07		 jbe	 SHORT $L222788
  0002b	5f		 pop	 edi

; 1497 : 		else
; 1498 : 			return (true);

  0002c	b0 01		 mov	 al, 1
  0002e	5e		 pop	 esi

; 1499 : 		}

  0002f	c2 04 00	 ret	 4
$L222788:
  00032	5f		 pop	 edi

; 1496 : 			return (false);	// don't ask

  00033	32 c0		 xor	 al, al
  00035	5e		 pop	 esi

; 1499 : 		}

  00036	c2 04 00	 ret	 4
?_Inside@?$basic_string@DU?$char_traits@D@std@@V?$allocator@D@2@@std@@IAE_NPBD@Z ENDP ; std::basic_string<char,std::char_traits<char>,std::allocator<char> >::_Inside
_TEXT	ENDS
PUBLIC	?max_size@?$allocator@D@std@@QBEIXZ		; std::allocator<char>::max_size
; Function compile flags: /Ogty
; File c:\program files\microsoft visual studio .net 2003\vc7\include\xmemory
;	COMDAT ?max_size@?$allocator@D@std@@QBEIXZ
_TEXT	SEGMENT
?max_size@?$allocator@D@std@@QBEIXZ PROC NEAR		; std::allocator<char>::max_size, COMDAT
; _this$ = ecx

; 157  : 		_SIZT _Count = (_SIZT)(-1) / sizeof (_Ty);
; 158  : 		return (0 < _Count ? _Count : 1);

  00000	83 c8 ff	 or	 eax, -1

; 159  : 		}

  00003	c3		 ret	 0
?max_size@?$allocator@D@std@@QBEIXZ ENDP		; std::allocator<char>::max_size
_TEXT	ENDS
PUBLIC	??$swap@D@std@@YAXAAD0@Z			; std::swap<char>
; Function compile flags: /Ogty
; File c:\program files\microsoft visual studio .net 2003\vc7\include\utility
;	COMDAT ??$swap@D@std@@YAXAAD0@Z
_TEXT	SEGMENT
__Left$ = 8						; size = 4
__Right$ = 12						; size = 4
??$swap@D@std@@YAXAAD0@Z PROC NEAR			; std::swap<char>, COMDAT

; 15   : 	_Ty _Tmp = _Left;

  00000	8b 44 24 04	 mov	 eax, DWORD PTR __Left$[esp-4]
  00004	8a 08		 mov	 cl, BYTE PTR [eax]
  00006	56		 push	 esi

; 16   : 	_Left = _Right, _Right = _Tmp;

  00007	8b 74 24 0c	 mov	 esi, DWORD PTR __Right$[esp]
  0000b	8a 16		 mov	 dl, BYTE PTR [esi]
  0000d	88 10		 mov	 BYTE PTR [eax], dl
  0000f	88 0e		 mov	 BYTE PTR [esi], cl
  00011	5e		 pop	 esi

; 17   : 	}

  00012	c3		 ret	 0
??$swap@D@std@@YAXAAD0@Z ENDP				; std::swap<char>
_TEXT	ENDS
PUBLIC	??$_Allocate@D@std@@YAPADIPAD@Z			; std::_Allocate<char>
; Function compile flags: /Ogty
; File c:\program files\microsoft visual studio .net 2003\vc7\include\xmemory
;	COMDAT ??$_Allocate@D@std@@YAPADIPAD@Z
_TEXT	SEGMENT
__Count$ = 8						; size = 4
___formal$ = 12						; size = 4
??$_Allocate@D@std@@YAPADIPAD@Z PROC NEAR		; std::_Allocate<char>, COMDAT

; 34   : 	return ((_Ty _FARQ *)operator new(_Count * sizeof (_Ty)));

  00000	8b 44 24 04	 mov	 eax, DWORD PTR __Count$[esp-4]
  00004	50		 push	 eax
  00005	e8 00 00 00 00	 call	 ??2@YAPAXI@Z		; operator new
  0000a	83 c4 04	 add	 esp, 4

; 35   : 	}

  0000d	c3		 ret	 0
??$_Allocate@D@std@@YAPADIPAD@Z ENDP			; std::_Allocate<char>
_TEXT	ENDS
PUBLIC	??0CMail@@QAE@KPAVCItemElem@@HPAD1@Z		; CMail::CMail
EXTRN	__imp__lstrcpyA@8:NEAR
; Function compile flags: /Ogty
; File c:\documents and settings\test\mes documents\source\virtuos_v17\build\program\_common\post.cpp
;	COMDAT ??0CMail@@QAE@KPAVCItemElem@@HPAD1@Z
_TEXT	SEGMENT
_idSender$ = 8						; size = 4
_pItemElem$ = 12					; size = 4
_nGold$ = 16						; size = 4
_szTitle$ = 20						; size = 4
_szText$ = 24						; size = 4
??0CMail@@QAE@KPAVCItemElem@@HPAD1@Z PROC NEAR		; CMail::CMail, COMDAT
; _this$ = ecx

; 33   : 	m_nMail	= 0;
; 34   : 	m_idSender	= idSender;

  00000	8b 44 24 04	 mov	 eax, DWORD PTR _idSender$[esp-4]
  00004	56		 push	 esi
  00005	8b f1		 mov	 esi, ecx

; 35   : 	m_pItemElem	= pItemElem;

  00007	8b 4c 24 0c	 mov	 ecx, DWORD PTR _pItemElem$[esp]
  0000b	57		 push	 edi

; 36   : 	m_tmCreate	= time_null();
; 37   : 	m_byRead	= FALSE;
; 38   : 	lstrcpy( m_szTitle, szTitle );

  0000c	8b 3d 00 00 00
	00		 mov	 edi, DWORD PTR __imp__lstrcpyA@8
  00012	89 46 08	 mov	 DWORD PTR [esi+8], eax
  00015	8b 44 24 18	 mov	 eax, DWORD PTR _szTitle$[esp+4]
  00019	89 4e 0c	 mov	 DWORD PTR [esi+12], ecx
  0001c	c7 06 00 00 00
	00		 mov	 DWORD PTR [esi], OFFSET FLAT:??_7CMail@@6B@
  00022	c7 46 04 00 00
	00 00		 mov	 DWORD PTR [esi+4], 0
  00029	8b 15 00 00 00
	00		 mov	 edx, DWORD PTR ?g_tCurrent@@3JA ; g_tCurrent
  0002f	50		 push	 eax
  00030	8d 4e 19	 lea	 ecx, DWORD PTR [esi+25]
  00033	51		 push	 ecx
  00034	89 56 14	 mov	 DWORD PTR [esi+20], edx
  00037	c6 46 18 00	 mov	 BYTE PTR [esi+24], 0
  0003b	ff d7		 call	 edi

; 39   : 	lstrcpy( m_szText, szText );

  0003d	8b 54 24 1c	 mov	 edx, DWORD PTR _szText$[esp+4]
  00041	52		 push	 edx
  00042	8d 46 39	 lea	 eax, DWORD PTR [esi+57]
  00045	50		 push	 eax
  00046	ff d7		 call	 edi
  00048	5f		 pop	 edi

; 40   : #ifdef __DBSERVER
; 41   : 	m_pMailBox	= NULL;
; 42   : #endif	// __DBSERVER
; 43   : 	m_nGold		= 0;

  00049	c7 46 10 00 00
	00 00		 mov	 DWORD PTR [esi+16], 0

; 44   : }

  00050	8b c6		 mov	 eax, esi
  00052	5e		 pop	 esi
  00053	c2 14 00	 ret	 20			; 00000014H
??0CMail@@QAE@KPAVCItemElem@@HPAD1@Z ENDP		; CMail::CMail
_TEXT	ENDS
PUBLIC	??1CMail@@UAE@XZ				; CMail::~CMail
; Function compile flags: /Ogty
;	COMDAT ??1CMail@@UAE@XZ
_TEXT	SEGMENT
??1CMail@@UAE@XZ PROC NEAR				; CMail::~CMail, COMDAT
; _this$ = ecx

; 47   : {

  00000	56		 push	 esi
  00001	8b f1		 mov	 esi, ecx

; 48   : 	Clear();

  00003	8b 4e 0c	 mov	 ecx, DWORD PTR [esi+12]
  00006	85 c9		 test	 ecx, ecx
  00008	c7 06 00 00 00
	00		 mov	 DWORD PTR [esi], OFFSET FLAT:??_7CMail@@6B@
  0000e	74 0d		 je	 SHORT $L229862
  00010	8b 01		 mov	 eax, DWORD PTR [ecx]
  00012	6a 01		 push	 1
  00014	ff 10		 call	 DWORD PTR [eax]
  00016	c7 46 0c 00 00
	00 00		 mov	 DWORD PTR [esi+12], 0
$L229862:
  0001d	5e		 pop	 esi

; 49   : }

  0001e	c3		 ret	 0
??1CMail@@UAE@XZ ENDP					; CMail::~CMail
_TEXT	ENDS
PUBLIC	?Serialize@CMail@@QAEXAAVCAr@@H@Z		; CMail::Serialize
EXTRN	?WriteString@CAr@@QAEXPBD@Z:NEAR		; CAr::WriteString
EXTRN	?ReadString@CAr@@QAEPADPADH@Z:NEAR		; CAr::ReadString
EXTRN	__except_list:DWORD
EXTRN	___CxxFrameHandler:NEAR
EXTRN	??0CItemElem@@QAE@XZ:NEAR			; CItemElem::CItemElem
;	COMDAT xdata$x
; File c:\documents and settings\test\mes documents\source\virtuos_v17\build\program\_network\misc\include\ar.h
xdata$x	SEGMENT
$T229991 DD	0ffffffffH
	DD	FLAT:$L229875
$T229986 DD	019930520H
	DD	01H
	DD	FLAT:$T229991
	DD	2 DUP(00H)
	DD	2 DUP(00H)
; Function compile flags: /Ogty
; File c:\documents and settings\test\mes documents\source\virtuos_v17\build\program\_common\post.cpp
xdata$x	ENDS
;	COMDAT ?Serialize@CMail@@QAEXAAVCAr@@H@Z
_TEXT	SEGMENT
__$EHRec$ = -12						; size = 12
$T229872 = 8						; size = 4
_ar$ = 8						; size = 4
_bData$ = 12						; size = 4
?Serialize@CMail@@QAEXAAVCAr@@H@Z PROC NEAR		; CMail::Serialize, COMDAT
; _this$ = ecx

; 90   : {

  00000	64 a1 00 00 00
	00		 mov	 eax, DWORD PTR fs:__except_list
  00006	6a ff		 push	 -1
  00008	68 00 00 00 00	 push	 __ehhandler$?Serialize@CMail@@QAEXAAVCAr@@H@Z
  0000d	50		 push	 eax

; 91   : 	if( bData )

  0000e	8b 44 24 14	 mov	 eax, DWORD PTR _bData$[esp+8]
  00012	64 89 25 00 00
	00 00		 mov	 DWORD PTR fs:__except_list, esp
  00019	53		 push	 ebx
  0001a	55		 push	 ebp
  0001b	56		 push	 esi

; 92   : 	{
; 93   : 		if( ar.IsStoring() )

  0001c	8b 74 24 1c	 mov	 esi, DWORD PTR _ar$[esp+20]
  00020	33 db		 xor	 ebx, ebx
  00022	3b c3		 cmp	 eax, ebx
  00024	57		 push	 edi
  00025	8b f9		 mov	 edi, ecx
  00027	0f 84 04 02 00
	00		 je	 $L226539
  0002d	33 c0		 xor	 eax, eax
  0002f	8a 06		 mov	 al, BYTE PTR [esi]

; 94   : 		{
; 95   : 			ar << m_nMail << m_idSender;

  00031	bd 04 00 00 00	 mov	 ebp, 4
  00036	f7 d0		 not	 eax
  00038	a8 01		 test	 al, 1
  0003a	0f 84 c9 00 00
	00		 je	 $L226540
  00040	8b 5f 04	 mov	 ebx, DWORD PTR [edi+4]
  00043	55		 push	 ebp
  00044	8b ce		 mov	 ecx, esi
  00046	e8 00 00 00 00	 call	 ?CheckBuf@CAr@@QAEXI@Z	; CAr::CheckBuf
  0004b	8b 4e 08	 mov	 ecx, DWORD PTR [esi+8]
  0004e	89 19		 mov	 DWORD PTR [ecx], ebx
  00050	01 6e 08	 add	 DWORD PTR [esi+8], ebp
  00053	8b 5f 08	 mov	 ebx, DWORD PTR [edi+8]
  00056	55		 push	 ebp
  00057	8b ce		 mov	 ecx, esi
  00059	e8 00 00 00 00	 call	 ?CheckBuf@CAr@@QAEXI@Z	; CAr::CheckBuf
  0005e	8b 56 08	 mov	 edx, DWORD PTR [esi+8]
  00061	89 1a		 mov	 DWORD PTR [edx], ebx
  00063	01 6e 08	 add	 DWORD PTR [esi+8], ebp

; 96   : 			if( m_pItemElem )

  00066	8b 47 0c	 mov	 eax, DWORD PTR [edi+12]
  00069	85 c0		 test	 eax, eax

; 97   : 			{
; 98   : 				ar << (BYTE)1;

  0006b	8b ce		 mov	 ecx, esi
  0006d	6a 01		 push	 1
  0006f	74 19		 je	 SHORT $L226541
  00071	e8 00 00 00 00	 call	 ?CheckBuf@CAr@@QAEXI@Z	; CAr::CheckBuf
  00076	8b 46 08	 mov	 eax, DWORD PTR [esi+8]
  00079	c6 00 01	 mov	 BYTE PTR [eax], 1
  0007c	ff 46 08	 inc	 DWORD PTR [esi+8]

; 99   : 				m_pItemElem->Serialize( ar );

  0007f	8b 4f 0c	 mov	 ecx, DWORD PTR [edi+12]
  00082	8b 11		 mov	 edx, DWORD PTR [ecx]
  00084	56		 push	 esi
  00085	ff 52 08	 call	 DWORD PTR [edx+8]

; 100  : 			}
; 101  : 			else

  00088	eb 0e		 jmp	 SHORT $L229892
$L226541:

; 102  : 			{
; 103  : 				ar << (BYTE)0;

  0008a	e8 00 00 00 00	 call	 ?CheckBuf@CAr@@QAEXI@Z	; CAr::CheckBuf
  0008f	8b 46 08	 mov	 eax, DWORD PTR [esi+8]
  00092	c6 00 00	 mov	 BYTE PTR [eax], 0
  00095	ff 46 08	 inc	 DWORD PTR [esi+8]
$L229892:

; 104  : 			}
; 105  : 			ar << m_nGold;

  00098	8b 5f 10	 mov	 ebx, DWORD PTR [edi+16]
  0009b	55		 push	 ebp
  0009c	8b ce		 mov	 ecx, esi
  0009e	e8 00 00 00 00	 call	 ?CheckBuf@CAr@@QAEXI@Z	; CAr::CheckBuf
  000a3	8b 4e 08	 mov	 ecx, DWORD PTR [esi+8]
  000a6	89 19		 mov	 DWORD PTR [ecx], ebx
  000a8	01 6e 08	 add	 DWORD PTR [esi+8], ebp

; 106  : 	//		ar << m_tmCreate;
; 107  : 			ar << time_null() - m_tmCreate;

  000ab	8b 1d 00 00 00
	00		 mov	 ebx, DWORD PTR ?g_tCurrent@@3JA ; g_tCurrent
  000b1	8b 57 14	 mov	 edx, DWORD PTR [edi+20]
  000b4	55		 push	 ebp
  000b5	8b ce		 mov	 ecx, esi
  000b7	2b da		 sub	 ebx, edx
  000b9	e8 00 00 00 00	 call	 ?CheckBuf@CAr@@QAEXI@Z	; CAr::CheckBuf
  000be	8b 56 08	 mov	 edx, DWORD PTR [esi+8]
  000c1	89 1a		 mov	 DWORD PTR [edx], ebx
  000c3	01 6e 08	 add	 DWORD PTR [esi+8], ebp

; 108  : 
; 109  : 			ar << m_byRead;

  000c6	8a 5f 18	 mov	 bl, BYTE PTR [edi+24]
  000c9	6a 01		 push	 1
  000cb	8b ce		 mov	 ecx, esi
  000cd	e8 00 00 00 00	 call	 ?CheckBuf@CAr@@QAEXI@Z	; CAr::CheckBuf
  000d2	8b 46 08	 mov	 eax, DWORD PTR [esi+8]
  000d5	88 18		 mov	 BYTE PTR [eax], bl
  000d7	8b 5e 08	 mov	 ebx, DWORD PTR [esi+8]

; 110  : 			ar.WriteString( m_szTitle );

  000da	8d 4f 19	 lea	 ecx, DWORD PTR [edi+25]
  000dd	51		 push	 ecx
  000de	43		 inc	 ebx
  000df	8b ce		 mov	 ecx, esi
  000e1	89 5e 08	 mov	 DWORD PTR [esi+8], ebx
  000e4	e8 00 00 00 00	 call	 ?WriteString@CAr@@QAEXPBD@Z ; CAr::WriteString

; 111  : 			ar.WriteString( m_szText );

  000e9	83 c7 39	 add	 edi, 57			; 00000039H
  000ec	57		 push	 edi
  000ed	8b ce		 mov	 ecx, esi
  000ef	e8 00 00 00 00	 call	 ?WriteString@CAr@@QAEXPBD@Z ; CAr::WriteString

; 153  : 		}
; 154  : 	}
; 155  : }

  000f4	8b 4c 24 10	 mov	 ecx, DWORD PTR __$EHRec$[esp+28]
  000f8	64 89 0d 00 00
	00 00		 mov	 DWORD PTR fs:__except_list, ecx
  000ff	5f		 pop	 edi
  00100	5e		 pop	 esi
  00101	5d		 pop	 ebp
  00102	5b		 pop	 ebx
  00103	83 c4 0c	 add	 esp, 12			; 0000000cH
  00106	c2 08 00	 ret	 8
$L226540:

; 112  : 		}
; 113  : 		else
; 114  : 		{
; 115  : 			ar >> m_nMail >> m_idSender;

  00109	8b 46 08	 mov	 eax, DWORD PTR [esi+8]
  0010c	8b 4e 0c	 mov	 ecx, DWORD PTR [esi+12]
  0010f	8d 50 04	 lea	 edx, DWORD PTR [eax+4]
  00112	3b d1		 cmp	 edx, ecx
  00114	77 0a		 ja	 SHORT $L229911
  00116	8b 00		 mov	 eax, DWORD PTR [eax]
  00118	89 47 04	 mov	 DWORD PTR [edi+4], eax
  0011b	01 6e 08	 add	 DWORD PTR [esi+8], ebp
  0011e	eb 09		 jmp	 SHORT $L229912
$L229911:
  00120	89 5f 04	 mov	 DWORD PTR [edi+4], ebx
  00123	8b 4e 0c	 mov	 ecx, DWORD PTR [esi+12]
  00126	89 4e 08	 mov	 DWORD PTR [esi+8], ecx
$L229912:
  00129	8b 46 08	 mov	 eax, DWORD PTR [esi+8]
  0012c	8b 4e 0c	 mov	 ecx, DWORD PTR [esi+12]
  0012f	8d 50 04	 lea	 edx, DWORD PTR [eax+4]
  00132	3b d1		 cmp	 edx, ecx
  00134	77 0a		 ja	 SHORT $L229917
  00136	8b 00		 mov	 eax, DWORD PTR [eax]
  00138	89 47 08	 mov	 DWORD PTR [edi+8], eax
  0013b	01 6e 08	 add	 DWORD PTR [esi+8], ebp
  0013e	eb 09		 jmp	 SHORT $L229918
$L229917:
  00140	89 5f 08	 mov	 DWORD PTR [edi+8], ebx
  00143	8b 4e 0c	 mov	 ecx, DWORD PTR [esi+12]
  00146	89 4e 08	 mov	 DWORD PTR [esi+8], ecx
$L229918:

; 116  : 
; 117  : 			//  
; 118  : //			//	BEGINTEST
; 119  : // 			Error( _T( "m_nMail:%d, m_idSender:%d" ), m_nMail, m_idSender );
; 120  : 
; 121  : 			BYTE byItemElem;
; 122  : 			ar >> byItemElem;

  00149	8b 46 08	 mov	 eax, DWORD PTR [esi+8]
  0014c	8b 56 0c	 mov	 edx, DWORD PTR [esi+12]
  0014f	8d 48 01	 lea	 ecx, DWORD PTR [eax+1]
  00152	3b ca		 cmp	 ecx, edx
  00154	77 2b		 ja	 SHORT $L229923
  00156	8a 00		 mov	 al, BYTE PTR [eax]

; 123  : 			if( byItemElem )

  00158	84 c0		 test	 al, al
  0015a	89 4e 08	 mov	 DWORD PTR [esi+8], ecx
  0015d	74 3c		 je	 SHORT $L226547

; 124  : 			{
; 125  : 				m_pItemElem	= new CItemElem;

  0015f	68 b8 00 00 00	 push	 184			; 000000b8H
  00164	e8 00 00 00 00	 call	 ??2@YAPAXI@Z		; operator new
  00169	83 c4 04	 add	 esp, 4
  0016c	89 44 24 20	 mov	 DWORD PTR $T229872[esp+24], eax
  00170	3b c3		 cmp	 eax, ebx
  00172	89 5c 24 18	 mov	 DWORD PTR __$EHRec$[esp+36], ebx
  00176	74 0e		 je	 SHORT $L229873
  00178	8b c8		 mov	 ecx, eax
  0017a	e8 00 00 00 00	 call	 ??0CItemElem@@QAE@XZ	; CItemElem::CItemElem
  0017f	eb 07		 jmp	 SHORT $L229874

; 116  : 
; 117  : 			//  
; 118  : //			//	BEGINTEST
; 119  : // 			Error( _T( "m_nMail:%d, m_idSender:%d" ), m_nMail, m_idSender );
; 120  : 
; 121  : 			BYTE byItemElem;
; 122  : 			ar >> byItemElem;

$L229923:
  00181	89 56 08	 mov	 DWORD PTR [esi+8], edx

; 123  : 			if( byItemElem )

  00184	eb 15		 jmp	 SHORT $L226547
$L229873:

; 124  : 			{
; 125  : 				m_pItemElem	= new CItemElem;

  00186	33 c0		 xor	 eax, eax
$L229874:
  00188	89 47 0c	 mov	 DWORD PTR [edi+12], eax

; 126  : 				m_pItemElem->Serialize( ar );

  0018b	8b 10		 mov	 edx, DWORD PTR [eax]
  0018d	56		 push	 esi
  0018e	8b c8		 mov	 ecx, eax
  00190	c7 44 24 1c ff
	ff ff ff	 mov	 DWORD PTR __$EHRec$[esp+40], -1
  00198	ff 52 08	 call	 DWORD PTR [edx+8]
$L226547:

; 127  : 			}
; 128  : 			ar >> m_nGold;

  0019b	8b 46 08	 mov	 eax, DWORD PTR [esi+8]
  0019e	8b 56 0c	 mov	 edx, DWORD PTR [esi+12]
  001a1	8d 48 04	 lea	 ecx, DWORD PTR [eax+4]
  001a4	3b ca		 cmp	 ecx, edx
  001a6	77 0c		 ja	 SHORT $L229928
  001a8	8b 10		 mov	 edx, DWORD PTR [eax]
  001aa	89 57 10	 mov	 DWORD PTR [edi+16], edx
  001ad	8b 46 08	 mov	 eax, DWORD PTR [esi+8]
  001b0	03 c5		 add	 eax, ebp
  001b2	eb 06		 jmp	 SHORT $L229989
$L229928:
  001b4	89 5f 10	 mov	 DWORD PTR [edi+16], ebx
  001b7	8b 46 0c	 mov	 eax, DWORD PTR [esi+12]
$L229989:

; 129  : 			time_t tm;
; 130  : 			ar >> tm;

  001ba	8b 56 0c	 mov	 edx, DWORD PTR [esi+12]
  001bd	8d 48 04	 lea	 ecx, DWORD PTR [eax+4]
  001c0	3b ca		 cmp	 ecx, edx
  001c2	89 46 08	 mov	 DWORD PTR [esi+8], eax
  001c5	77 07		 ja	 SHORT $L229934
  001c7	8b 00		 mov	 eax, DWORD PTR [eax]
  001c9	89 4e 08	 mov	 DWORD PTR [esi+8], ecx
  001cc	eb 05		 jmp	 SHORT $L229935
$L229934:
  001ce	33 c0		 xor	 eax, eax
  001d0	89 56 08	 mov	 DWORD PTR [esi+8], edx
$L229935:

; 131  : 			m_tmCreate	= time_null() - tm; 

  001d3	8b 0d 00 00 00
	00		 mov	 ecx, DWORD PTR ?g_tCurrent@@3JA ; g_tCurrent
  001d9	2b c8		 sub	 ecx, eax
  001db	89 4f 14	 mov	 DWORD PTR [edi+20], ecx

; 132  : 	//		ar >> m_tmCreate;
; 133  : 			ar >> m_byRead;

  001de	8b 46 08	 mov	 eax, DWORD PTR [esi+8]
  001e1	8b 4e 0c	 mov	 ecx, DWORD PTR [esi+12]
  001e4	8d 50 01	 lea	 edx, DWORD PTR [eax+1]
  001e7	3b d1		 cmp	 edx, ecx
  001e9	77 0a		 ja	 SHORT $L229942
  001eb	8a 00		 mov	 al, BYTE PTR [eax]
  001ed	88 47 18	 mov	 BYTE PTR [edi+24], al
  001f0	ff 46 08	 inc	 DWORD PTR [esi+8]
  001f3	eb 0a		 jmp	 SHORT $L229943
$L229942:
  001f5	c6 47 18 00	 mov	 BYTE PTR [edi+24], 0
  001f9	8b 4e 0c	 mov	 ecx, DWORD PTR [esi+12]
  001fc	89 4e 08	 mov	 DWORD PTR [esi+8], ecx
$L229943:

; 134  : 			ar.ReadString( m_szTitle, MAX_MAILTITLE );

  001ff	6a 20		 push	 32			; 00000020H
  00201	8d 57 19	 lea	 edx, DWORD PTR [edi+25]
  00204	52		 push	 edx
  00205	8b ce		 mov	 ecx, esi
  00207	e8 00 00 00 00	 call	 ?ReadString@CAr@@QAEPADPADH@Z ; CAr::ReadString

; 135  : 			ar.ReadString( m_szText, MAX_MAILTEXT );

  0020c	68 00 01 00 00	 push	 256			; 00000100H
  00211	83 c7 39	 add	 edi, 57			; 00000039H
  00214	57		 push	 edi
  00215	8b ce		 mov	 ecx, esi
  00217	e8 00 00 00 00	 call	 ?ReadString@CAr@@QAEPADPADH@Z ; CAr::ReadString

; 153  : 		}
; 154  : 	}
; 155  : }

  0021c	8b 4c 24 10	 mov	 ecx, DWORD PTR __$EHRec$[esp+28]
  00220	64 89 0d 00 00
	00 00		 mov	 DWORD PTR fs:__except_list, ecx
  00227	5f		 pop	 edi
  00228	5e		 pop	 esi
  00229	5d		 pop	 ebp
  0022a	5b		 pop	 ebx
  0022b	83 c4 0c	 add	 esp, 12			; 0000000cH
  0022e	c2 08 00	 ret	 8
$L226539:

; 136  : 		}
; 137  : 	}
; 138  : 	else	// no data
; 139  : 	{
; 140  : 		if( ar.IsStoring() )

  00231	33 c0		 xor	 eax, eax
  00233	8a 06		 mov	 al, BYTE PTR [esi]
  00235	f7 d0		 not	 eax
  00237	a8 01		 test	 al, 1
  00239	74 5c		 je	 SHORT $L226554

; 141  : 		{
; 142  : 			ar << m_nMail;

  0023b	8b 5f 04	 mov	 ebx, DWORD PTR [edi+4]
  0023e	bd 04 00 00 00	 mov	 ebp, 4
  00243	55		 push	 ebp
  00244	8b ce		 mov	 ecx, esi
  00246	e8 00 00 00 00	 call	 ?CheckBuf@CAr@@QAEXI@Z	; CAr::CheckBuf
  0024b	8b 4e 08	 mov	 ecx, DWORD PTR [esi+8]
  0024e	89 19		 mov	 DWORD PTR [ecx], ebx
  00250	01 6e 08	 add	 DWORD PTR [esi+8], ebp

; 143  : 			ar << time_null() - m_tmCreate;

  00253	8b 4f 14	 mov	 ecx, DWORD PTR [edi+20]
  00256	8b 1d 00 00 00
	00		 mov	 ebx, DWORD PTR ?g_tCurrent@@3JA ; g_tCurrent
  0025c	2b d9		 sub	 ebx, ecx
  0025e	55		 push	 ebp
  0025f	8b ce		 mov	 ecx, esi
  00261	e8 00 00 00 00	 call	 ?CheckBuf@CAr@@QAEXI@Z	; CAr::CheckBuf
  00266	8b 56 08	 mov	 edx, DWORD PTR [esi+8]
  00269	89 1a		 mov	 DWORD PTR [edx], ebx
  0026b	01 6e 08	 add	 DWORD PTR [esi+8], ebp

; 144  : 			ar << m_byRead;

  0026e	8a 5f 18	 mov	 bl, BYTE PTR [edi+24]
  00271	6a 01		 push	 1
  00273	8b ce		 mov	 ecx, esi
  00275	e8 00 00 00 00	 call	 ?CheckBuf@CAr@@QAEXI@Z	; CAr::CheckBuf
  0027a	8b 46 08	 mov	 eax, DWORD PTR [esi+8]
  0027d	88 18		 mov	 BYTE PTR [eax], bl
  0027f	ff 46 08	 inc	 DWORD PTR [esi+8]

; 153  : 		}
; 154  : 	}
; 155  : }

  00282	8b 4c 24 10	 mov	 ecx, DWORD PTR __$EHRec$[esp+28]
  00286	64 89 0d 00 00
	00 00		 mov	 DWORD PTR fs:__except_list, ecx
  0028d	5f		 pop	 edi
  0028e	5e		 pop	 esi
  0028f	5d		 pop	 ebp
  00290	5b		 pop	 ebx
  00291	83 c4 0c	 add	 esp, 12			; 0000000cH
  00294	c2 08 00	 ret	 8
$L226554:

; 145  : 		}
; 146  : 		else	// load
; 147  : 		{
; 148  : 			ar >> m_nMail;

  00297	8b 46 08	 mov	 eax, DWORD PTR [esi+8]
  0029a	8b 56 0c	 mov	 edx, DWORD PTR [esi+12]
  0029d	8d 48 04	 lea	 ecx, DWORD PTR [eax+4]
  002a0	3b ca		 cmp	 ecx, edx
  002a2	77 0d		 ja	 SHORT $L229966
  002a4	8b 10		 mov	 edx, DWORD PTR [eax]
  002a6	89 57 04	 mov	 DWORD PTR [edi+4], edx
  002a9	8b 46 08	 mov	 eax, DWORD PTR [esi+8]
  002ac	83 c0 04	 add	 eax, 4
  002af	eb 06		 jmp	 SHORT $L229990
$L229966:
  002b1	89 5f 04	 mov	 DWORD PTR [edi+4], ebx
  002b4	8b 46 0c	 mov	 eax, DWORD PTR [esi+12]
$L229990:

; 149  : 			time_t tm;
; 150  : 			ar >> tm;

  002b7	8b 56 0c	 mov	 edx, DWORD PTR [esi+12]
  002ba	8d 48 04	 lea	 ecx, DWORD PTR [eax+4]
  002bd	3b ca		 cmp	 ecx, edx
  002bf	89 46 08	 mov	 DWORD PTR [esi+8], eax
  002c2	77 07		 ja	 SHORT $L229972
  002c4	8b 00		 mov	 eax, DWORD PTR [eax]
  002c6	89 4e 08	 mov	 DWORD PTR [esi+8], ecx
  002c9	eb 05		 jmp	 SHORT $L229973
$L229972:
  002cb	33 c0		 xor	 eax, eax
  002cd	89 56 08	 mov	 DWORD PTR [esi+8], edx
$L229973:

; 151  : 			m_tmCreate	= time_null() - tm; 

  002d0	8b 0d 00 00 00
	00		 mov	 ecx, DWORD PTR ?g_tCurrent@@3JA ; g_tCurrent
  002d6	2b c8		 sub	 ecx, eax
  002d8	89 4f 14	 mov	 DWORD PTR [edi+20], ecx

; 152  : 			ar >> m_byRead;

  002db	8b 46 08	 mov	 eax, DWORD PTR [esi+8]
  002de	8b 4e 0c	 mov	 ecx, DWORD PTR [esi+12]
  002e1	8d 50 01	 lea	 edx, DWORD PTR [eax+1]
  002e4	3b d1		 cmp	 edx, ecx
  002e6	77 1d		 ja	 SHORT $L229980
  002e8	8a 00		 mov	 al, BYTE PTR [eax]
  002ea	88 47 18	 mov	 BYTE PTR [edi+24], al
  002ed	ff 46 08	 inc	 DWORD PTR [esi+8]

; 153  : 		}
; 154  : 	}
; 155  : }

  002f0	8b 4c 24 10	 mov	 ecx, DWORD PTR __$EHRec$[esp+28]
  002f4	64 89 0d 00 00
	00 00		 mov	 DWORD PTR fs:__except_list, ecx
  002fb	5f		 pop	 edi
  002fc	5e		 pop	 esi
  002fd	5d		 pop	 ebp
  002fe	5b		 pop	 ebx
  002ff	83 c4 0c	 add	 esp, 12			; 0000000cH
  00302	c2 08 00	 ret	 8

; 152  : 			ar >> m_byRead;

$L229980:
  00305	c6 47 18 00	 mov	 BYTE PTR [edi+24], 0
  00309	8b 4e 0c	 mov	 ecx, DWORD PTR [esi+12]

; 153  : 		}
; 154  : 	}
; 155  : }

  0030c	5f		 pop	 edi
  0030d	89 4e 08	 mov	 DWORD PTR [esi+8], ecx
  00310	8b 4c 24 0c	 mov	 ecx, DWORD PTR __$EHRec$[esp+24]
  00314	5e		 pop	 esi
  00315	5d		 pop	 ebp
  00316	64 89 0d 00 00
	00 00		 mov	 DWORD PTR fs:__except_list, ecx
  0031d	5b		 pop	 ebx
  0031e	83 c4 0c	 add	 esp, 12			; 0000000cH
  00321	c2 08 00	 ret	 8
_TEXT	ENDS
;	COMDAT text$x
text$x	SEGMENT
$L229875:
  00000	8b 45 04	 mov	 eax, DWORD PTR $T229872[ebp-4]
  00003	50		 push	 eax
  00004	e8 00 00 00 00	 call	 ??3@YAXPAX@Z		; operator delete
  00009	59		 pop	 ecx
  0000a	c3		 ret	 0
__ehhandler$?Serialize@CMail@@QAEXAAVCAr@@H@Z:
  0000b	b8 00 00 00 00	 mov	 eax, OFFSET FLAT:$T229986
  00010	e9 00 00 00 00	 jmp	 ___CxxFrameHandler
text$x	ENDS
?Serialize@CMail@@QAEXAAVCAr@@H@Z ENDP			; CMail::Serialize
PUBLIC	??Diterator@?$vector@PAVCMail@@V?$allocator@PAVCMail@@@std@@@std@@QBEAAPAVCMail@@XZ ; std::vector<CMail *,std::allocator<CMail *> >::iterator::operator*
; Function compile flags: /Ogty
; File c:\program files\microsoft visual studio .net 2003\vc7\include\vector
;	COMDAT ??Diterator@?$vector@PAVCMail@@V?$allocator@PAVCMail@@@std@@@std@@QBEAAPAVCMail@@XZ
_TEXT	SEGMENT
??Diterator@?$vector@PAVCMail@@V?$allocator@PAVCMail@@@std@@@std@@QBEAAPAVCMail@@XZ PROC NEAR ; std::vector<CMail *,std::allocator<CMail *> >::iterator::operator*, COMDAT
; _this$ = ecx

; 220  : 			return ((reference)**(const_iterator *)this);

  00000	8b 01		 mov	 eax, DWORD PTR [ecx]

; 221  : 			}

  00002	c3		 ret	 0
??Diterator@?$vector@PAVCMail@@V?$allocator@PAVCMail@@@std@@@std@@QBEAAPAVCMail@@XZ ENDP ; std::vector<CMail *,std::allocator<CMail *> >::iterator::operator*
_TEXT	ENDS
PUBLIC	??9const_iterator@?$vector@PAVCMail@@V?$allocator@PAVCMail@@@std@@@std@@QBE_NABV012@@Z ; std::vector<CMail *,std::allocator<CMail *> >::const_iterator::operator!=
; Function compile flags: /Ogty
;	COMDAT ??9const_iterator@?$vector@PAVCMail@@V?$allocator@PAVCMail@@@std@@@std@@QBE_NABV012@@Z
_TEXT	SEGMENT
__Right$ = 8						; size = 4
??9const_iterator@?$vector@PAVCMail@@V?$allocator@PAVCMail@@@std@@@std@@QBE_NABV012@@Z PROC NEAR ; std::vector<CMail *,std::allocator<CMail *> >::const_iterator::operator!=, COMDAT
; _this$ = ecx

; 160  : 			return (!(*this == _Right));

  00000	8b 01		 mov	 eax, DWORD PTR [ecx]
  00002	8b 54 24 04	 mov	 edx, DWORD PTR __Right$[esp-4]
  00006	56		 push	 esi
  00007	8b 32		 mov	 esi, DWORD PTR [edx]
  00009	33 c9		 xor	 ecx, ecx
  0000b	3b c6		 cmp	 eax, esi
  0000d	0f 95 c1	 setne	 cl
  00010	8a c1		 mov	 al, cl
  00012	5e		 pop	 esi

; 161  : 			}

  00013	c2 04 00	 ret	 4
??9const_iterator@?$vector@PAVCMail@@V?$allocator@PAVCMail@@@std@@@std@@QBE_NABV012@@Z ENDP ; std::vector<CMail *,std::allocator<CMail *> >::const_iterator::operator!=
_TEXT	ENDS
PUBLIC	??9const_iterator@?$_Tree@V?$_Tmap_traits@KPAVCMailBox@@U?$less@K@std@@V?$allocator@U?$pair@$$CBKPAVCMailBox@@@std@@@3@$0A@@std@@@std@@QBE_NABV012@@Z ; std::_Tree<std::_Tmap_traits<unsigned long,CMailBox *,std::less<unsigned long>,std::allocator<std::pair<unsigned long const ,CMailBox *> >,0> >::const_iterator::operator!=
; Function compile flags: /Ogty
; File c:\program files\microsoft visual studio .net 2003\vc7\include\xtree
;	COMDAT ??9const_iterator@?$_Tree@V?$_Tmap_traits@KPAVCMailBox@@U?$less@K@std@@V?$allocator@U?$pair@$$CBKPAVCMailBox@@@std@@@3@$0A@@std@@@std@@QBE_NABV012@@Z
_TEXT	SEGMENT
__Right$ = 8						; size = 4
??9const_iterator@?$_Tree@V?$_Tmap_traits@KPAVCMailBox@@U?$less@K@std@@V?$allocator@U?$pair@$$CBKPAVCMailBox@@@std@@@3@$0A@@std@@@std@@QBE_NABV012@@Z PROC NEAR ; std::_Tree<std::_Tmap_traits<unsigned long,CMailBox *,std::less<unsigned long>,std::allocator<std::pair<unsigned long const ,CMailBox *> >,0> >::const_iterator::operator!=, COMDAT
; _this$ = ecx

; 246  : 			return (!(*this == _Right));

  00000	8b 01		 mov	 eax, DWORD PTR [ecx]
  00002	8b 54 24 04	 mov	 edx, DWORD PTR __Right$[esp-4]
  00006	56		 push	 esi
  00007	8b 32		 mov	 esi, DWORD PTR [edx]
  00009	33 c9		 xor	 ecx, ecx
  0000b	3b c6		 cmp	 eax, esi
  0000d	0f 95 c1	 setne	 cl
  00010	8a c1		 mov	 al, cl
  00012	5e		 pop	 esi

; 247  : 			}

  00013	c2 04 00	 ret	 4
??9const_iterator@?$_Tree@V?$_Tmap_traits@KPAVCMailBox@@U?$less@K@std@@V?$allocator@U?$pair@$$CBKPAVCMailBox@@@std@@@3@$0A@@std@@@std@@QBE_NABV012@@Z ENDP ; std::_Tree<std::_Tmap_traits<unsigned long,CMailBox *,std::less<unsigned long>,std::allocator<std::pair<unsigned long const ,CMailBox *> >,0> >::const_iterator::operator!=
_TEXT	ENDS
PUBLIC	??0?$_Vector_val@PAVCMail@@V?$allocator@PAVCMail@@@std@@@std@@IAE@V?$allocator@PAVCMail@@@1@@Z ; std::_Vector_val<CMail *,std::allocator<CMail *> >::_Vector_val<CMail *,std::allocator<CMail *> >
; Function compile flags: /Ogty
; File c:\program files\microsoft visual studio .net 2003\vc7\include\vector
;	COMDAT ??0?$_Vector_val@PAVCMail@@V?$allocator@PAVCMail@@@std@@@std@@IAE@V?$allocator@PAVCMail@@@1@@Z
_TEXT	SEGMENT
__Al$ = 8						; size = 1
??0?$_Vector_val@PAVCMail@@V?$allocator@PAVCMail@@@std@@@std@@IAE@V?$allocator@PAVCMail@@@1@@Z PROC NEAR ; std::_Vector_val<CMail *,std::allocator<CMail *> >::_Vector_val<CMail *,std::allocator<CMail *> >, COMDAT
; _this$ = ecx

; 21   : 		{	// construct allocator from _Al

  00000	8b c1		 mov	 eax, ecx

; 22   : 		}

  00002	c2 04 00	 ret	 4
??0?$_Vector_val@PAVCMail@@V?$allocator@PAVCMail@@@std@@@std@@IAE@V?$allocator@PAVCMail@@@1@@Z ENDP ; std::_Vector_val<CMail *,std::allocator<CMail *> >::_Vector_val<CMail *,std::allocator<CMail *> >
_TEXT	ENDS
PUBLIC	?_Key@?$_Tree@V?$_Tmap_traits@KPAVCMailBox@@U?$less@K@std@@V?$allocator@U?$pair@$$CBKPAVCMailBox@@@std@@@3@$0A@@std@@@std@@KAABKPAU_Node@?$_Tree_nod@V?$_Tmap_traits@KPAVCMailBox@@U?$less@K@std@@V?$allocator@U?$pair@$$CBKPAVCMailBox@@@std@@@3@$0A@@std@@@2@@Z ; std::_Tree<std::_Tmap_traits<unsigned long,CMailBox *,std::less<unsigned long>,std::allocator<std::pair<unsigned long const ,CMailBox *> >,0> >::_Key
; Function compile flags: /Ogty
; File c:\program files\microsoft visual studio .net 2003\vc7\include\xtree
;	COMDAT ?_Key@?$_Tree@V?$_Tmap_traits@KPAVCMailBox@@U?$less@K@std@@V?$allocator@U?$pair@$$CBKPAVCMailBox@@@std@@@3@$0A@@std@@@std@@KAABKPAU_Node@?$_Tree_nod@V?$_Tmap_traits@KPAVCMailBox@@U?$less@K@std@@V?$allocator@U?$pair@$$CBKPAVCMailBox@@@std@@@3@$0A@@std@@@2@@Z
_TEXT	SEGMENT
__Pnode$ = 8						; size = 4
?_Key@?$_Tree@V?$_Tmap_traits@KPAVCMailBox@@U?$less@K@std@@V?$allocator@U?$pair@$$CBKPAVCMailBox@@@std@@@3@$0A@@std@@@std@@KAABKPAU_Node@?$_Tree_nod@V?$_Tmap_traits@KPAVCMailBox@@U?$less@K@std@@V?$allocator@U?$pair@$$CBKPAVCMailBox@@@std@@@3@$0A@@std@@@2@@Z PROC NEAR ; std::_Tree<std::_Tmap_traits<unsigned long,CMailBox *,std::less<unsigned long>,std::allocator<std::pair<unsigned long const ,CMailBox *> >,0> >::_Key, COMDAT

; 142  : 		return (_Mybase::_Kfn(_Myval(_Pnode)));

  00000	8b 44 24 04	 mov	 eax, DWORD PTR __Pnode$[esp-4]
  00004	83 c0 0c	 add	 eax, 12			; 0000000cH

; 143  : 		}

  00007	c3		 ret	 0
?_Key@?$_Tree@V?$_Tmap_traits@KPAVCMailBox@@U?$less@K@std@@V?$allocator@U?$pair@$$CBKPAVCMailBox@@@std@@@3@$0A@@std@@@std@@KAABKPAU_Node@?$_Tree_nod@V?$_Tmap_traits@KPAVCMailBox@@U?$less@K@std@@V?$allocator@U?$pair@$$CBKPAVCMailBox@@@std@@@3@$0A@@std@@@2@@Z ENDP ; std::_Tree<std::_Tmap_traits<unsigned long,CMailBox *,std::less<unsigned long>,std::allocator<std::pair<unsigned long const ,CMailBox *> >,0> >::_Key
_TEXT	ENDS
PUBLIC	?_Root@?$_Tree@V?$_Tmap_traits@KPAVCMailBox@@U?$less@K@std@@V?$allocator@U?$pair@$$CBKPAVCMailBox@@@std@@@3@$0A@@std@@@std@@IAEAAPAU_Node@?$_Tree_nod@V?$_Tmap_traits@KPAVCMailBox@@U?$less@K@std@@V?$allocator@U?$pair@$$CBKPAVCMailBox@@@std@@@3@$0A@@std@@@2@XZ ; std::_Tree<std::_Tmap_traits<unsigned long,CMailBox *,std::less<unsigned long>,std::allocator<std::pair<unsigned long const ,CMailBox *> >,0> >::_Root
; Function compile flags: /Ogty
;	COMDAT ?_Root@?$_Tree@V?$_Tmap_traits@KPAVCMailBox@@U?$less@K@std@@V?$allocator@U?$pair@$$CBKPAVCMailBox@@@std@@@3@$0A@@std@@@std@@IAEAAPAU_Node@?$_Tree_nod@V?$_Tmap_traits@KPAVCMailBox@@U?$less@K@std@@V?$allocator@U?$pair@$$CBKPAVCMailBox@@@std@@@3@$0A@@std@@@2@XZ
_TEXT	SEGMENT
?_Root@?$_Tree@V?$_Tmap_traits@KPAVCMailBox@@U?$less@K@std@@V?$allocator@U?$pair@$$CBKPAVCMailBox@@@std@@@3@$0A@@std@@@std@@IAEAAPAU_Node@?$_Tree_nod@V?$_Tmap_traits@KPAVCMailBox@@U?$less@K@std@@V?$allocator@U?$pair@$$CBKPAVCMailBox@@@std@@@3@$0A@@std@@@2@XZ PROC NEAR ; std::_Tree<std::_Tmap_traits<unsigned long,CMailBox *,std::less<unsigned long>,std::allocator<std::pair<unsigned long const ,CMailBox *> >,0> >::_Root, COMDAT
; _this$ = ecx

; 1059 : 		return (_Parent(_Myhead));

  00000	8b 41 04	 mov	 eax, DWORD PTR [ecx+4]
  00003	83 c0 04	 add	 eax, 4

; 1060 : 		}

  00006	c3		 ret	 0
?_Root@?$_Tree@V?$_Tmap_traits@KPAVCMailBox@@U?$less@K@std@@V?$allocator@U?$pair@$$CBKPAVCMailBox@@@std@@@3@$0A@@std@@@std@@IAEAAPAU_Node@?$_Tree_nod@V?$_Tmap_traits@KPAVCMailBox@@U?$less@K@std@@V?$allocator@U?$pair@$$CBKPAVCMailBox@@@std@@@3@$0A@@std@@@2@XZ ENDP ; std::_Tree<std::_Tmap_traits<unsigned long,CMailBox *,std::less<unsigned long>,std::allocator<std::pair<unsigned long const ,CMailBox *> >,0> >::_Root
_TEXT	ENDS
PUBLIC	??0iterator@?$vector@PAVCMail@@V?$allocator@PAVCMail@@@std@@@std@@QAE@PAPAVCMail@@@Z ; std::vector<CMail *,std::allocator<CMail *> >::iterator::iterator
; Function compile flags: /Ogty
; File c:\program files\microsoft visual studio .net 2003\vc7\include\vector
;	COMDAT ??0iterator@?$vector@PAVCMail@@V?$allocator@PAVCMail@@@std@@@std@@QAE@PAPAVCMail@@@Z
_TEXT	SEGMENT
__Ptr$ = 8						; size = 4
??0iterator@?$vector@PAVCMail@@V?$allocator@PAVCMail@@@std@@@std@@QAE@PAPAVCMail@@@Z PROC NEAR ; std::vector<CMail *,std::allocator<CMail *> >::iterator::iterator, COMDAT
; _this$ = ecx

; 215  : 			{	// construct with pointer _Ptr

  00000	8b c1		 mov	 eax, ecx
  00002	8b 4c 24 04	 mov	 ecx, DWORD PTR __Ptr$[esp-4]
  00006	89 08		 mov	 DWORD PTR [eax], ecx

; 216  : 			}

  00008	c2 04 00	 ret	 4
??0iterator@?$vector@PAVCMail@@V?$allocator@PAVCMail@@@std@@@std@@QAE@PAPAVCMail@@@Z ENDP ; std::vector<CMail *,std::allocator<CMail *> >::iterator::iterator
_TEXT	ENDS
PUBLIC	??0iterator@?$_Tree@V?$_Tmap_traits@KPAVCMailBox@@U?$less@K@std@@V?$allocator@U?$pair@$$CBKPAVCMailBox@@@std@@@3@$0A@@std@@@std@@QAE@PAU_Node@?$_Tree_nod@V?$_Tmap_traits@KPAVCMailBox@@U?$less@K@std@@V?$allocator@U?$pair@$$CBKPAVCMailBox@@@std@@@3@$0A@@std@@@2@@Z ; std::_Tree<std::_Tmap_traits<unsigned long,CMailBox *,std::less<unsigned long>,std::allocator<std::pair<unsigned long const ,CMailBox *> >,0> >::iterator::iterator
; Function compile flags: /Ogty
; File c:\program files\microsoft visual studio .net 2003\vc7\include\xtree
;	COMDAT ??0iterator@?$_Tree@V?$_Tmap_traits@KPAVCMailBox@@U?$less@K@std@@V?$allocator@U?$pair@$$CBKPAVCMailBox@@@std@@@3@$0A@@std@@@std@@QAE@PAU_Node@?$_Tree_nod@V?$_Tmap_traits@KPAVCMailBox@@U?$less@K@std@@V?$allocator@U?$pair@$$CBKPAVCMailBox@@@std@@@3@$0A@@std@@@2@@Z
_TEXT	SEGMENT
__Pnode$ = 8						; size = 4
??0iterator@?$_Tree@V?$_Tmap_traits@KPAVCMailBox@@U?$less@K@std@@V?$allocator@U?$pair@$$CBKPAVCMailBox@@@std@@@3@$0A@@std@@@std@@QAE@PAU_Node@?$_Tree_nod@V?$_Tmap_traits@KPAVCMailBox@@U?$less@K@std@@V?$allocator@U?$pair@$$CBKPAVCMailBox@@@std@@@3@$0A@@std@@@2@@Z PROC NEAR ; std::_Tree<std::_Tmap_traits<unsigned long,CMailBox *,std::less<unsigned long>,std::allocator<std::pair<unsigned long const ,CMailBox *> >,0> >::iterator::iterator, COMDAT
; _this$ = ecx

; 312  : 			{	// construct with node pointer _Pnode

  00000	8b c1		 mov	 eax, ecx
  00002	8b 4c 24 04	 mov	 ecx, DWORD PTR __Pnode$[esp-4]
  00006	89 08		 mov	 DWORD PTR [eax], ecx

; 313  : 			}

  00008	c2 04 00	 ret	 4
??0iterator@?$_Tree@V?$_Tmap_traits@KPAVCMailBox@@U?$less@K@std@@V?$allocator@U?$pair@$$CBKPAVCMailBox@@@std@@@3@$0A@@std@@@std@@QAE@PAU_Node@?$_Tree_nod@V?$_Tmap_traits@KPAVCMailBox@@U?$less@K@std@@V?$allocator@U?$pair@$$CBKPAVCMailBox@@@std@@@3@$0A@@std@@@2@@Z ENDP ; std::_Tree<std::_Tmap_traits<unsigned long,CMailBox *,std::less<unsigned long>,std::allocator<std::pair<unsigned long const ,CMailBox *> >,0> >::iterator::iterator
_TEXT	ENDS
PUBLIC	??Diterator@?$_Tree@V?$_Tmap_traits@KPAVCMailBox@@U?$less@K@std@@V?$allocator@U?$pair@$$CBKPAVCMailBox@@@std@@@3@$0A@@std@@@std@@QBEAAU?$pair@$$CBKPAVCMailBox@@@2@XZ ; std::_Tree<std::_Tmap_traits<unsigned long,CMailBox *,std::less<unsigned long>,std::allocator<std::pair<unsigned long const ,CMailBox *> >,0> >::iterator::operator*
; Function compile flags: /Ogty
;	COMDAT ??Diterator@?$_Tree@V?$_Tmap_traits@KPAVCMailBox@@U?$less@K@std@@V?$allocator@U?$pair@$$CBKPAVCMailBox@@@std@@@3@$0A@@std@@@std@@QBEAAU?$pair@$$CBKPAVCMailBox@@@2@XZ
_TEXT	SEGMENT
??Diterator@?$_Tree@V?$_Tmap_traits@KPAVCMailBox@@U?$less@K@std@@V?$allocator@U?$pair@$$CBKPAVCMailBox@@@std@@@3@$0A@@std@@@std@@QBEAAU?$pair@$$CBKPAVCMailBox@@@2@XZ PROC NEAR ; std::_Tree<std::_Tmap_traits<unsigned long,CMailBox *,std::less<unsigned long>,std::allocator<std::pair<unsigned long const ,CMailBox *> >,0> >::iterator::operator*, COMDAT
; _this$ = ecx

; 317  : 			return ((reference)**(const_iterator *)this);

  00000	8b 01		 mov	 eax, DWORD PTR [ecx]
  00002	83 c0 0c	 add	 eax, 12			; 0000000cH

; 318  : 			}

  00005	c3		 ret	 0
??Diterator@?$_Tree@V?$_Tmap_traits@KPAVCMailBox@@U?$less@K@std@@V?$allocator@U?$pair@$$CBKPAVCMailBox@@@std@@@3@$0A@@std@@@std@@QBEAAU?$pair@$$CBKPAVCMailBox@@@2@XZ ENDP ; std::_Tree<std::_Tmap_traits<unsigned long,CMailBox *,std::less<unsigned long>,std::allocator<std::pair<unsigned long const ,CMailBox *> >,0> >::iterator::operator*
_TEXT	ENDS
PUBLIC	?max_size@?$vector@PAVCMail@@V?$allocator@PAVCMail@@@std@@@std@@QBEIXZ ; std::vector<CMail *,std::allocator<CMail *> >::max_size
; Function compile flags: /Ogty
; File c:\program files\microsoft visual studio .net 2003\vc7\include\vector
;	COMDAT ?max_size@?$vector@PAVCMail@@V?$allocator@PAVCMail@@@std@@@std@@QBEIXZ
_TEXT	SEGMENT
?max_size@?$vector@PAVCMail@@V?$allocator@PAVCMail@@@std@@@std@@QBEIXZ PROC NEAR ; std::vector<CMail *,std::allocator<CMail *> >::max_size, COMDAT
; _this$ = ecx

; 521  : 		return (this->_Alval.max_size());

  00000	b8 ff ff ff 3f	 mov	 eax, 1073741823		; 3fffffffH

; 522  : 		}

  00005	c3		 ret	 0
?max_size@?$vector@PAVCMail@@V?$allocator@PAVCMail@@@std@@@std@@QBEIXZ ENDP ; std::vector<CMail *,std::allocator<CMail *> >::max_size
_TEXT	ENDS
PUBLIC	?allocate@?$allocator@PAVCMail@@@std@@QAEPAPAVCMail@@I@Z ; std::allocator<CMail *>::allocate
; Function compile flags: /Ogty
; File c:\program files\microsoft visual studio .net 2003\vc7\include\xmemory
;	COMDAT ?allocate@?$allocator@PAVCMail@@@std@@QAEPAPAVCMail@@I@Z
_TEXT	SEGMENT
__Count$ = 8						; size = 4
?allocate@?$allocator@PAVCMail@@@std@@QAEPAPAVCMail@@I@Z PROC NEAR ; std::allocator<CMail *>::allocate, COMDAT
; _this$ = ecx

; 137  : 		return (_Allocate(_Count, (pointer)0));

  00000	8b 44 24 04	 mov	 eax, DWORD PTR __Count$[esp-4]
  00004	8d 0c 85 00 00
	00 00		 lea	 ecx, DWORD PTR [eax*4]
  0000b	51		 push	 ecx
  0000c	e8 00 00 00 00	 call	 ??2@YAPAXI@Z		; operator new
  00011	83 c4 04	 add	 esp, 4

; 138  : 		}

  00014	c2 04 00	 ret	 4
?allocate@?$allocator@PAVCMail@@@std@@QAEPAPAVCMail@@I@Z ENDP ; std::allocator<CMail *>::allocate
_TEXT	ENDS
PUBLIC	?max_size@?$_Tree@V?$_Tmap_traits@KPAVCMailBox@@U?$less@K@std@@V?$allocator@U?$pair@$$CBKPAVCMailBox@@@std@@@3@$0A@@std@@@std@@QBEIXZ ; std::_Tree<std::_Tmap_traits<unsigned long,CMailBox *,std::less<unsigned long>,std::allocator<std::pair<unsigned long const ,CMailBox *> >,0> >::max_size
; Function compile flags: /Ogty
; File c:\program files\microsoft visual studio .net 2003\vc7\include\xtree
;	COMDAT ?max_size@?$_Tree@V?$_Tmap_traits@KPAVCMailBox@@U?$less@K@std@@V?$allocator@U?$pair@$$CBKPAVCMailBox@@@std@@@3@$0A@@std@@@std@@QBEIXZ
_TEXT	SEGMENT
?max_size@?$_Tree@V?$_Tmap_traits@KPAVCMailBox@@U?$less@K@std@@V?$allocator@U?$pair@$$CBKPAVCMailBox@@@std@@@3@$0A@@std@@@std@@QBEIXZ PROC NEAR ; std::_Tree<std::_Tmap_traits<unsigned long,CMailBox *,std::less<unsigned long>,std::allocator<std::pair<unsigned long const ,CMailBox *> >,0> >::max_size, COMDAT
; _this$ = ecx

; 453  : 		return (this->_Alval.max_size());

  00000	b8 ff ff ff 1f	 mov	 eax, 536870911		; 1fffffffH

; 454  : 		}

  00005	c3		 ret	 0
?max_size@?$_Tree@V?$_Tmap_traits@KPAVCMailBox@@U?$less@K@std@@V?$allocator@U?$pair@$$CBKPAVCMailBox@@@std@@@3@$0A@@std@@@std@@QBEIXZ ENDP ; std::_Tree<std::_Tmap_traits<unsigned long,CMailBox *,std::less<unsigned long>,std::allocator<std::pair<unsigned long const ,CMailBox *> >,0> >::max_size
_TEXT	ENDS
PUBLIC	?_Lbound@?$_Tree@V?$_Tmap_traits@KPAVCMailBox@@U?$less@K@std@@V?$allocator@U?$pair@$$CBKPAVCMailBox@@@std@@@3@$0A@@std@@@std@@IBEPAU_Node@?$_Tree_nod@V?$_Tmap_traits@KPAVCMailBox@@U?$less@K@std@@V?$allocator@U?$pair@$$CBKPAVCMailBox@@@std@@@3@$0A@@std@@@2@ABK@Z ; std::_Tree<std::_Tmap_traits<unsigned long,CMailBox *,std::less<unsigned long>,std::allocator<std::pair<unsigned long const ,CMailBox *> >,0> >::_Lbound
; Function compile flags: /Ogty
;	COMDAT ?_Lbound@?$_Tree@V?$_Tmap_traits@KPAVCMailBox@@U?$less@K@std@@V?$allocator@U?$pair@$$CBKPAVCMailBox@@@std@@@3@$0A@@std@@@std@@IBEPAU_Node@?$_Tree_nod@V?$_Tmap_traits@KPAVCMailBox@@U?$less@K@std@@V?$allocator@U?$pair@$$CBKPAVCMailBox@@@std@@@3@$0A@@std@@@2@ABK@Z
_TEXT	SEGMENT
__Keyval$ = 8						; size = 4
?_Lbound@?$_Tree@V?$_Tmap_traits@KPAVCMailBox@@U?$less@K@std@@V?$allocator@U?$pair@$$CBKPAVCMailBox@@@std@@@3@$0A@@std@@@std@@IBEPAU_Node@?$_Tree_nod@V?$_Tmap_traits@KPAVCMailBox@@U?$less@K@std@@V?$allocator@U?$pair@$$CBKPAVCMailBox@@@std@@@3@$0A@@std@@@2@ABK@Z PROC NEAR ; std::_Tree<std::_Tmap_traits<unsigned long,CMailBox *,std::less<unsigned long>,std::allocator<std::pair<unsigned long const ,CMailBox *> >,0> >::_Lbound, COMDAT
; _this$ = ecx

; 988  : 		_Nodeptr _Pnode = _Root();

  00000	8b 41 04	 mov	 eax, DWORD PTR [ecx+4]
  00003	8b 48 04	 mov	 ecx, DWORD PTR [eax+4]

; 989  : 		_Nodeptr _Wherenode = _Myhead;	// end() if search fails
; 990  : 
; 991  : 		while (!_Isnil(_Pnode))

  00006	8a 51 15	 mov	 dl, BYTE PTR [ecx+21]
  00009	84 d2		 test	 dl, dl
  0000b	75 1d		 jne	 SHORT $L227611
  0000d	8b 54 24 04	 mov	 edx, DWORD PTR __Keyval$[esp-4]
  00011	8b 12		 mov	 edx, DWORD PTR [edx]
  00013	53		 push	 ebx
$L227610:

; 992  : 			if (this->comp(_Key(_Pnode), _Keyval))

  00014	39 51 0c	 cmp	 DWORD PTR [ecx+12], edx
  00017	73 05		 jae	 SHORT $L227612

; 993  : 				_Pnode = _Right(_Pnode);	// descend right subtree

  00019	8b 49 08	 mov	 ecx, DWORD PTR [ecx+8]

; 994  : 			else

  0001c	eb 04		 jmp	 SHORT $L227613
$L227612:

; 995  : 				{	// _Pnode not less than _Keyval, remember it
; 996  : 				_Wherenode = _Pnode;

  0001e	8b c1		 mov	 eax, ecx

; 997  : 				_Pnode = _Left(_Pnode);	// descend left subtree

  00020	8b 09		 mov	 ecx, DWORD PTR [ecx]
$L227613:
  00022	8a 59 15	 mov	 bl, BYTE PTR [ecx+21]
  00025	84 db		 test	 bl, bl
  00027	74 eb		 je	 SHORT $L227610
  00029	5b		 pop	 ebx
$L227611:

; 998  : 				}
; 999  : 
; 1000 : 		return (_Wherenode);	// return best remembered candidate
; 1001 : 		}

  0002a	c2 04 00	 ret	 4
?_Lbound@?$_Tree@V?$_Tmap_traits@KPAVCMailBox@@U?$less@K@std@@V?$allocator@U?$pair@$$CBKPAVCMailBox@@@std@@@3@$0A@@std@@@std@@IBEPAU_Node@?$_Tree_nod@V?$_Tmap_traits@KPAVCMailBox@@U?$less@K@std@@V?$allocator@U?$pair@$$CBKPAVCMailBox@@@std@@@3@$0A@@std@@@2@ABK@Z ENDP ; std::_Tree<std::_Tmap_traits<unsigned long,CMailBox *,std::less<unsigned long>,std::allocator<std::pair<unsigned long const ,CMailBox *> >,0> >::_Lbound
_TEXT	ENDS
PUBLIC	?_Lrotate@?$_Tree@V?$_Tmap_traits@KPAVCMailBox@@U?$less@K@std@@V?$allocator@U?$pair@$$CBKPAVCMailBox@@@std@@@3@$0A@@std@@@std@@IAEXPAU_Node@?$_Tree_nod@V?$_Tmap_traits@KPAVCMailBox@@U?$less@K@std@@V?$allocator@U?$pair@$$CBKPAVCMailBox@@@std@@@3@$0A@@std@@@2@@Z ; std::_Tree<std::_Tmap_traits<unsigned long,CMailBox *,std::less<unsigned long>,std::allocator<std::pair<unsigned long const ,CMailBox *> >,0> >::_Lrotate
; Function compile flags: /Ogty
;	COMDAT ?_Lrotate@?$_Tree@V?$_Tmap_traits@KPAVCMailBox@@U?$less@K@std@@V?$allocator@U?$pair@$$CBKPAVCMailBox@@@std@@@3@$0A@@std@@@std@@IAEXPAU_Node@?$_Tree_nod@V?$_Tmap_traits@KPAVCMailBox@@U?$less@K@std@@V?$allocator@U?$pair@$$CBKPAVCMailBox@@@std@@@3@$0A@@std@@@2@@Z
_TEXT	SEGMENT
__Wherenode$ = 8					; size = 4
?_Lrotate@?$_Tree@V?$_Tmap_traits@KPAVCMailBox@@U?$less@K@std@@V?$allocator@U?$pair@$$CBKPAVCMailBox@@@std@@@3@$0A@@std@@@std@@IAEXPAU_Node@?$_Tree_nod@V?$_Tmap_traits@KPAVCMailBox@@U?$less@K@std@@V?$allocator@U?$pair@$$CBKPAVCMailBox@@@std@@@3@$0A@@std@@@2@@Z PROC NEAR ; std::_Tree<std::_Tmap_traits<unsigned long,CMailBox *,std::less<unsigned long>,std::allocator<std::pair<unsigned long const ,CMailBox *> >,0> >::_Lrotate, COMDAT
; _this$ = ecx

; 1015 : 		_Nodeptr _Pnode = _Right(_Wherenode);

  00000	8b 54 24 04	 mov	 edx, DWORD PTR __Wherenode$[esp-4]
  00004	8b 42 08	 mov	 eax, DWORD PTR [edx+8]
  00007	53		 push	 ebx
  00008	56		 push	 esi

; 1016 : 		_Right(_Wherenode) = _Left(_Pnode);

  00009	8b 30		 mov	 esi, DWORD PTR [eax]
  0000b	89 72 08	 mov	 DWORD PTR [edx+8], esi

; 1017 : 
; 1018 : 		if (!_Isnil(_Left(_Pnode)))

  0000e	8b 30		 mov	 esi, DWORD PTR [eax]
  00010	8a 5e 15	 mov	 bl, BYTE PTR [esi+21]
  00013	84 db		 test	 bl, bl
  00015	75 03		 jne	 SHORT $L227617

; 1019 : 			_Parent(_Left(_Pnode)) = _Wherenode;

  00017	89 56 04	 mov	 DWORD PTR [esi+4], edx
$L227617:

; 1020 : 		_Parent(_Pnode) = _Parent(_Wherenode);

  0001a	8b 72 04	 mov	 esi, DWORD PTR [edx+4]
  0001d	89 70 04	 mov	 DWORD PTR [eax+4], esi

; 1021 : 
; 1022 : 		if (_Wherenode == _Root())

  00020	8b 49 04	 mov	 ecx, DWORD PTR [ecx+4]
  00023	3b 51 04	 cmp	 edx, DWORD PTR [ecx+4]
  00026	75 0d		 jne	 SHORT $L227618

; 1023 : 			_Root() = _Pnode;

  00028	89 41 04	 mov	 DWORD PTR [ecx+4], eax
  0002b	5e		 pop	 esi

; 1028 : 
; 1029 : 		_Left(_Pnode) = _Wherenode;

  0002c	89 10		 mov	 DWORD PTR [eax], edx

; 1030 : 		_Parent(_Wherenode) = _Pnode;

  0002e	89 42 04	 mov	 DWORD PTR [edx+4], eax
  00031	5b		 pop	 ebx

; 1031 : 		}

  00032	c2 04 00	 ret	 4
$L227618:

; 1024 : 		else if (_Wherenode == _Left(_Parent(_Wherenode)))

  00035	8b 4a 04	 mov	 ecx, DWORD PTR [edx+4]
  00038	3b 11		 cmp	 edx, DWORD PTR [ecx]
  0003a	75 0c		 jne	 SHORT $L227620

; 1025 : 			_Left(_Parent(_Wherenode)) = _Pnode;

  0003c	89 01		 mov	 DWORD PTR [ecx], eax
  0003e	5e		 pop	 esi

; 1028 : 
; 1029 : 		_Left(_Pnode) = _Wherenode;

  0003f	89 10		 mov	 DWORD PTR [eax], edx

; 1030 : 		_Parent(_Wherenode) = _Pnode;

  00041	89 42 04	 mov	 DWORD PTR [edx+4], eax
  00044	5b		 pop	 ebx

; 1031 : 		}

  00045	c2 04 00	 ret	 4
$L227620:

; 1026 : 		else
; 1027 : 			_Right(_Parent(_Wherenode)) = _Pnode;

  00048	89 41 08	 mov	 DWORD PTR [ecx+8], eax
  0004b	5e		 pop	 esi

; 1028 : 
; 1029 : 		_Left(_Pnode) = _Wherenode;

  0004c	89 10		 mov	 DWORD PTR [eax], edx

; 1030 : 		_Parent(_Wherenode) = _Pnode;

  0004e	89 42 04	 mov	 DWORD PTR [edx+4], eax
  00051	5b		 pop	 ebx

; 1031 : 		}

  00052	c2 04 00	 ret	 4
?_Lrotate@?$_Tree@V?$_Tmap_traits@KPAVCMailBox@@U?$less@K@std@@V?$allocator@U?$pair@$$CBKPAVCMailBox@@@std@@@3@$0A@@std@@@std@@IAEXPAU_Node@?$_Tree_nod@V?$_Tmap_traits@KPAVCMailBox@@U?$less@K@std@@V?$allocator@U?$pair@$$CBKPAVCMailBox@@@std@@@3@$0A@@std@@@2@@Z ENDP ; std::_Tree<std::_Tmap_traits<unsigned long,CMailBox *,std::less<unsigned long>,std::allocator<std::pair<unsigned long const ,CMailBox *> >,0> >::_Lrotate
_TEXT	ENDS
PUBLIC	?_Rrotate@?$_Tree@V?$_Tmap_traits@KPAVCMailBox@@U?$less@K@std@@V?$allocator@U?$pair@$$CBKPAVCMailBox@@@std@@@3@$0A@@std@@@std@@IAEXPAU_Node@?$_Tree_nod@V?$_Tmap_traits@KPAVCMailBox@@U?$less@K@std@@V?$allocator@U?$pair@$$CBKPAVCMailBox@@@std@@@3@$0A@@std@@@2@@Z ; std::_Tree<std::_Tmap_traits<unsigned long,CMailBox *,std::less<unsigned long>,std::allocator<std::pair<unsigned long const ,CMailBox *> >,0> >::_Rrotate
; Function compile flags: /Ogty
;	COMDAT ?_Rrotate@?$_Tree@V?$_Tmap_traits@KPAVCMailBox@@U?$less@K@std@@V?$allocator@U?$pair@$$CBKPAVCMailBox@@@std@@@3@$0A@@std@@@std@@IAEXPAU_Node@?$_Tree_nod@V?$_Tmap_traits@KPAVCMailBox@@U?$less@K@std@@V?$allocator@U?$pair@$$CBKPAVCMailBox@@@std@@@3@$0A@@std@@@2@@Z
_TEXT	SEGMENT
__Wherenode$ = 8					; size = 4
?_Rrotate@?$_Tree@V?$_Tmap_traits@KPAVCMailBox@@U?$less@K@std@@V?$allocator@U?$pair@$$CBKPAVCMailBox@@@std@@@3@$0A@@std@@@std@@IAEXPAU_Node@?$_Tree_nod@V?$_Tmap_traits@KPAVCMailBox@@U?$less@K@std@@V?$allocator@U?$pair@$$CBKPAVCMailBox@@@std@@@3@$0A@@std@@@2@@Z PROC NEAR ; std::_Tree<std::_Tmap_traits<unsigned long,CMailBox *,std::less<unsigned long>,std::allocator<std::pair<unsigned long const ,CMailBox *> >,0> >::_Rrotate, COMDAT
; _this$ = ecx

; 1069 : 		_Nodeptr _Pnode = _Left(_Wherenode);

  00000	8b 54 24 04	 mov	 edx, DWORD PTR __Wherenode$[esp-4]
  00004	8b 02		 mov	 eax, DWORD PTR [edx]
  00006	53		 push	 ebx
  00007	56		 push	 esi

; 1070 : 		_Left(_Wherenode) = _Right(_Pnode);

  00008	8b 70 08	 mov	 esi, DWORD PTR [eax+8]
  0000b	89 32		 mov	 DWORD PTR [edx], esi

; 1071 : 
; 1072 : 		if (!_Isnil(_Right(_Pnode)))

  0000d	8b 70 08	 mov	 esi, DWORD PTR [eax+8]
  00010	8a 5e 15	 mov	 bl, BYTE PTR [esi+21]
  00013	84 db		 test	 bl, bl
  00015	75 03		 jne	 SHORT $L227625

; 1073 : 			_Parent(_Right(_Pnode)) = _Wherenode;

  00017	89 56 04	 mov	 DWORD PTR [esi+4], edx
$L227625:

; 1074 : 		_Parent(_Pnode) = _Parent(_Wherenode);

  0001a	8b 72 04	 mov	 esi, DWORD PTR [edx+4]
  0001d	89 70 04	 mov	 DWORD PTR [eax+4], esi

; 1075 : 
; 1076 : 		if (_Wherenode == _Root())

  00020	8b 49 04	 mov	 ecx, DWORD PTR [ecx+4]
  00023	3b 51 04	 cmp	 edx, DWORD PTR [ecx+4]
  00026	75 0e		 jne	 SHORT $L227626

; 1077 : 			_Root() = _Pnode;

  00028	89 41 04	 mov	 DWORD PTR [ecx+4], eax
  0002b	5e		 pop	 esi

; 1082 : 
; 1083 : 		_Right(_Pnode) = _Wherenode;

  0002c	89 50 08	 mov	 DWORD PTR [eax+8], edx

; 1084 : 		_Parent(_Wherenode) = _Pnode;

  0002f	89 42 04	 mov	 DWORD PTR [edx+4], eax
  00032	5b		 pop	 ebx

; 1085 : 		}

  00033	c2 04 00	 ret	 4
$L227626:

; 1078 : 		else if (_Wherenode == _Right(_Parent(_Wherenode)))

  00036	8b 4a 04	 mov	 ecx, DWORD PTR [edx+4]
  00039	3b 51 08	 cmp	 edx, DWORD PTR [ecx+8]
  0003c	75 0e		 jne	 SHORT $L227628

; 1079 : 			_Right(_Parent(_Wherenode)) = _Pnode;

  0003e	89 41 08	 mov	 DWORD PTR [ecx+8], eax
  00041	5e		 pop	 esi

; 1082 : 
; 1083 : 		_Right(_Pnode) = _Wherenode;

  00042	89 50 08	 mov	 DWORD PTR [eax+8], edx

; 1084 : 		_Parent(_Wherenode) = _Pnode;

  00045	89 42 04	 mov	 DWORD PTR [edx+4], eax
  00048	5b		 pop	 ebx

; 1085 : 		}

  00049	c2 04 00	 ret	 4
$L227628:

; 1080 : 		else
; 1081 : 			_Left(_Parent(_Wherenode)) = _Pnode;

  0004c	89 01		 mov	 DWORD PTR [ecx], eax
  0004e	5e		 pop	 esi

; 1082 : 
; 1083 : 		_Right(_Pnode) = _Wherenode;

  0004f	89 50 08	 mov	 DWORD PTR [eax+8], edx

; 1084 : 		_Parent(_Wherenode) = _Pnode;

  00052	89 42 04	 mov	 DWORD PTR [edx+4], eax
  00055	5b		 pop	 ebx

; 1085 : 		}

  00056	c2 04 00	 ret	 4
?_Rrotate@?$_Tree@V?$_Tmap_traits@KPAVCMailBox@@U?$less@K@std@@V?$allocator@U?$pair@$$CBKPAVCMailBox@@@std@@@3@$0A@@std@@@std@@IAEXPAU_Node@?$_Tree_nod@V?$_Tmap_traits@KPAVCMailBox@@U?$less@K@std@@V?$allocator@U?$pair@$$CBKPAVCMailBox@@@std@@@3@$0A@@std@@@2@@Z ENDP ; std::_Tree<std::_Tmap_traits<unsigned long,CMailBox *,std::less<unsigned long>,std::allocator<std::pair<unsigned long const ,CMailBox *> >,0> >::_Rrotate
_TEXT	ENDS
PUBLIC	?destroy@?$allocator@U_Node@?$_Tree_nod@V?$_Tmap_traits@KPAVCMailBox@@U?$less@K@std@@V?$allocator@U?$pair@$$CBKPAVCMailBox@@@std@@@3@$0A@@std@@@std@@@std@@QAEXPAU_Node@?$_Tree_nod@V?$_Tmap_traits@KPAVCMailBox@@U?$less@K@std@@V?$allocator@U?$pair@$$CBKPAVCMailBox@@@std@@@3@$0A@@std@@@2@@Z ; std::allocator<std::_Tree_nod<std::_Tmap_traits<unsigned long,CMailBox *,std::less<unsigned long>,std::allocator<std::pair<unsigned long const ,CMailBox *> >,0> >::_Node>::destroy
; Function compile flags: /Ogty
; File c:\program files\microsoft visual studio .net 2003\vc7\include\xmemory
;	COMDAT ?destroy@?$allocator@U_Node@?$_Tree_nod@V?$_Tmap_traits@KPAVCMailBox@@U?$less@K@std@@V?$allocator@U?$pair@$$CBKPAVCMailBox@@@std@@@3@$0A@@std@@@std@@@std@@QAEXPAU_Node@?$_Tree_nod@V?$_Tmap_traits@KPAVCMailBox@@U?$less@K@std@@V?$allocator@U?$pair@$$CBKPAVCMailBox@@@std@@@3@$0A@@std@@@2@@Z
_TEXT	SEGMENT
__Ptr$ = 8						; size = 4
?destroy@?$allocator@U_Node@?$_Tree_nod@V?$_Tmap_traits@KPAVCMailBox@@U?$less@K@std@@V?$allocator@U?$pair@$$CBKPAVCMailBox@@@std@@@3@$0A@@std@@@std@@@std@@QAEXPAU_Node@?$_Tree_nod@V?$_Tmap_traits@KPAVCMailBox@@U?$less@K@std@@V?$allocator@U?$pair@$$CBKPAVCMailBox@@@std@@@3@$0A@@std@@@2@@Z PROC NEAR ; std::allocator<std::_Tree_nod<std::_Tmap_traits<unsigned long,CMailBox *,std::less<unsigned long>,std::allocator<std::pair<unsigned long const ,CMailBox *> >,0> >::_Node>::destroy, COMDAT
; _this$ = ecx

; 152  : 		_Destroy(_Ptr);
; 153  : 		}

  00000	c2 04 00	 ret	 4
?destroy@?$allocator@U_Node@?$_Tree_nod@V?$_Tmap_traits@KPAVCMailBox@@U?$less@K@std@@V?$allocator@U?$pair@$$CBKPAVCMailBox@@@std@@@3@$0A@@std@@@std@@@std@@QAEXPAU_Node@?$_Tree_nod@V?$_Tmap_traits@KPAVCMailBox@@U?$less@K@std@@V?$allocator@U?$pair@$$CBKPAVCMailBox@@@std@@@3@$0A@@std@@@2@@Z ENDP ; std::allocator<std::_Tree_nod<std::_Tmap_traits<unsigned long,CMailBox *,std::less<unsigned long>,std::allocator<std::pair<unsigned long const ,CMailBox *> >,0> >::_Node>::destroy
_TEXT	ENDS
PUBLIC	?destroy@?$allocator@PAU_Node@?$_Tree_nod@V?$_Tmap_traits@KPAVCMailBox@@U?$less@K@std@@V?$allocator@U?$pair@$$CBKPAVCMailBox@@@std@@@3@$0A@@std@@@std@@@std@@QAEXPAPAU_Node@?$_Tree_nod@V?$_Tmap_traits@KPAVCMailBox@@U?$less@K@std@@V?$allocator@U?$pair@$$CBKPAVCMailBox@@@std@@@3@$0A@@std@@@2@@Z ; std::allocator<std::_Tree_nod<std::_Tmap_traits<unsigned long,CMailBox *,std::less<unsigned long>,std::allocator<std::pair<unsigned long const ,CMailBox *> >,0> >::_Node *>::destroy
; Function compile flags: /Ogty
;	COMDAT ?destroy@?$allocator@PAU_Node@?$_Tree_nod@V?$_Tmap_traits@KPAVCMailBox@@U?$less@K@std@@V?$allocator@U?$pair@$$CBKPAVCMailBox@@@std@@@3@$0A@@std@@@std@@@std@@QAEXPAPAU_Node@?$_Tree_nod@V?$_Tmap_traits@KPAVCMailBox@@U?$less@K@std@@V?$allocator@U?$pair@$$CBKPAVCMailBox@@@std@@@3@$0A@@std@@@2@@Z
_TEXT	SEGMENT
__Ptr$ = 8						; size = 4
?destroy@?$allocator@PAU_Node@?$_Tree_nod@V?$_Tmap_traits@KPAVCMailBox@@U?$less@K@std@@V?$allocator@U?$pair@$$CBKPAVCMailBox@@@std@@@3@$0A@@std@@@std@@@std@@QAEXPAPAU_Node@?$_Tree_nod@V?$_Tmap_traits@KPAVCMailBox@@U?$less@K@std@@V?$allocator@U?$pair@$$CBKPAVCMailBox@@@std@@@3@$0A@@std@@@2@@Z PROC NEAR ; std::allocator<std::_Tree_nod<std::_Tmap_traits<unsigned long,CMailBox *,std::less<unsigned long>,std::allocator<std::pair<unsigned long const ,CMailBox *> >,0> >::_Node *>::destroy, COMDAT
; _this$ = ecx

; 152  : 		_Destroy(_Ptr);
; 153  : 		}

  00000	c2 04 00	 ret	 4
?destroy@?$allocator@PAU_Node@?$_Tree_nod@V?$_Tmap_traits@KPAVCMailBox@@U?$less@K@std@@V?$allocator@U?$pair@$$CBKPAVCMailBox@@@std@@@3@$0A@@std@@@std@@@std@@QAEXPAPAU_Node@?$_Tree_nod@V?$_Tmap_traits@KPAVCMailBox@@U?$less@K@std@@V?$allocator@U?$pair@$$CBKPAVCMailBox@@@std@@@3@$0A@@std@@@2@@Z ENDP ; std::allocator<std::_Tree_nod<std::_Tmap_traits<unsigned long,CMailBox *,std::less<unsigned long>,std::allocator<std::pair<unsigned long const ,CMailBox *> >,0> >::_Node *>::destroy
_TEXT	ENDS
PUBLIC	??Hiterator@?$vector@PAVCMail@@V?$allocator@PAVCMail@@@std@@@std@@QBE?AV012@H@Z ; std::vector<CMail *,std::allocator<CMail *> >::iterator::operator+
; Function compile flags: /Ogty
; File c:\program files\microsoft visual studio .net 2003\vc7\include\vector
;	COMDAT ??Hiterator@?$vector@PAVCMail@@V?$allocator@PAVCMail@@@std@@@std@@QBE?AV012@H@Z
_TEXT	SEGMENT
___$ReturnUdt$ = 8					; size = 4
__Off$ = 12						; size = 4
??Hiterator@?$vector@PAVCMail@@V?$allocator@PAVCMail@@@std@@@std@@QBE?AV012@H@Z PROC NEAR ; std::vector<CMail *,std::allocator<CMail *> >::iterator::operator+, COMDAT
; _this$ = ecx

; 262  : 			iterator _Tmp = *this;
; 263  : 			return (_Tmp += _Off);

  00000	8b 01		 mov	 eax, DWORD PTR [ecx]
  00002	8b 4c 24 08	 mov	 ecx, DWORD PTR __Off$[esp-4]
  00006	8d 14 88	 lea	 edx, DWORD PTR [eax+ecx*4]
  00009	8b 44 24 04	 mov	 eax, DWORD PTR ___$ReturnUdt$[esp-4]
  0000d	89 10		 mov	 DWORD PTR [eax], edx

; 264  : 			}

  0000f	c2 08 00	 ret	 8
??Hiterator@?$vector@PAVCMail@@V?$allocator@PAVCMail@@@std@@@std@@QBE?AV012@H@Z ENDP ; std::vector<CMail *,std::allocator<CMail *> >::iterator::operator+
_TEXT	ENDS
PUBLIC	??Giterator@?$vector@PAVCMail@@V?$allocator@PAVCMail@@@std@@@std@@QBEHABVconst_iterator@12@@Z ; std::vector<CMail *,std::allocator<CMail *> >::iterator::operator-
; Function compile flags: /Ogty
;	COMDAT ??Giterator@?$vector@PAVCMail@@V?$allocator@PAVCMail@@@std@@@std@@QBEHABVconst_iterator@12@@Z
_TEXT	SEGMENT
__Right$ = 8						; size = 4
??Giterator@?$vector@PAVCMail@@V?$allocator@PAVCMail@@@std@@@std@@QBEHABVconst_iterator@12@@Z PROC NEAR ; std::vector<CMail *,std::allocator<CMail *> >::iterator::operator-, COMDAT
; _this$ = ecx

; 279  : 			return ((const_iterator)*this - _Right);

  00000	8b 01		 mov	 eax, DWORD PTR [ecx]
  00002	8b 4c 24 04	 mov	 ecx, DWORD PTR __Right$[esp-4]
  00006	2b 01		 sub	 eax, DWORD PTR [ecx]
  00008	c1 f8 02	 sar	 eax, 2

; 280  : 			}

  0000b	c2 04 00	 ret	 4
??Giterator@?$vector@PAVCMail@@V?$allocator@PAVCMail@@@std@@@std@@QBEHABVconst_iterator@12@@Z ENDP ; std::vector<CMail *,std::allocator<CMail *> >::iterator::operator-
_TEXT	ENDS
PUBLIC	?_Inc@const_iterator@?$_Tree@V?$_Tmap_traits@KPAVCMailBox@@U?$less@K@std@@V?$allocator@U?$pair@$$CBKPAVCMailBox@@@std@@@3@$0A@@std@@@std@@QAEXXZ ; std::_Tree<std::_Tmap_traits<unsigned long,CMailBox *,std::less<unsigned long>,std::allocator<std::pair<unsigned long const ,CMailBox *> >,0> >::const_iterator::_Inc
; Function compile flags: /Ogty
; File c:\program files\microsoft visual studio .net 2003\vc7\include\xtree
;	COMDAT ?_Inc@const_iterator@?$_Tree@V?$_Tmap_traits@KPAVCMailBox@@U?$less@K@std@@V?$allocator@U?$pair@$$CBKPAVCMailBox@@@std@@@3@$0A@@std@@@std@@QAEXXZ
_TEXT	SEGMENT
?_Inc@const_iterator@?$_Tree@V?$_Tmap_traits@KPAVCMailBox@@U?$less@K@std@@V?$allocator@U?$pair@$$CBKPAVCMailBox@@@std@@@3@$0A@@std@@@std@@QAEXXZ PROC NEAR ; std::_Tree<std::_Tmap_traits<unsigned long,CMailBox *,std::less<unsigned long>,std::allocator<std::pair<unsigned long const ,CMailBox *> >,0> >::const_iterator::_Inc, COMDAT
; _this$ = ecx

; 268  : 			if (_Isnil(_Ptr))

  00000	8b 01		 mov	 eax, DWORD PTR [ecx]
  00002	8a 50 15	 mov	 dl, BYTE PTR [eax+21]
  00005	84 d2		 test	 dl, dl
  00007	75 4d		 jne	 SHORT $L227679

; 269  : 				;	// end() shouldn't be incremented, don't move
; 270  : 			else if (!_Isnil(_Right(_Ptr)))

  00009	8b 50 08	 mov	 edx, DWORD PTR [eax+8]
  0000c	53		 push	 ebx
  0000d	8a 5a 15	 mov	 bl, BYTE PTR [edx+21]
  00010	84 db		 test	 bl, bl
  00012	75 1b		 jne	 SHORT $L230340

; 271  : 				_Ptr = _Min(_Right(_Ptr));	// ==> smallest of right subtree

  00014	8b 02		 mov	 eax, DWORD PTR [edx]
  00016	8a 58 15	 mov	 bl, BYTE PTR [eax+21]
  00019	84 db		 test	 bl, bl
  0001b	75 0e		 jne	 SHORT $L230321
  0001d	8d 49 00	 npad	 3
$L230320:
  00020	8b d0		 mov	 edx, eax
  00022	8b 02		 mov	 eax, DWORD PTR [edx]
  00024	8a 58 15	 mov	 bl, BYTE PTR [eax+21]
  00027	84 db		 test	 bl, bl
  00029	74 f5		 je	 SHORT $L230320
$L230321:
  0002b	89 11		 mov	 DWORD PTR [ecx], edx
  0002d	5b		 pop	 ebx

; 279  : 				}
; 280  : 			}

  0002e	c3		 ret	 0
$L230340:

; 272  : 			else
; 273  : 				{	// climb looking for right subtree
; 274  : 				_Nodeptr _Pnode;
; 275  : 				while (!_Isnil(_Pnode = _Parent(_Ptr))
; 276  : 					&& _Ptr == _Right(_Pnode))

  0002f	8b 40 04	 mov	 eax, DWORD PTR [eax+4]
  00032	8a 50 15	 mov	 dl, BYTE PTR [eax+21]
  00035	84 d2		 test	 dl, dl
  00037	75 1a		 jne	 SHORT $L227683
  00039	8d a4 24 00 00
	00 00		 npad	 7
$L227682:
  00040	8b 11		 mov	 edx, DWORD PTR [ecx]
  00042	3b 50 08	 cmp	 edx, DWORD PTR [eax+8]
  00045	75 0c		 jne	 SHORT $L227683

; 277  : 					_Ptr = _Pnode;	// ==> parent while right subtree

  00047	89 01		 mov	 DWORD PTR [ecx], eax
  00049	8b 40 04	 mov	 eax, DWORD PTR [eax+4]
  0004c	8a 50 15	 mov	 dl, BYTE PTR [eax+21]
  0004f	84 d2		 test	 dl, dl
  00051	74 ed		 je	 SHORT $L227682
$L227683:

; 278  : 				_Ptr = _Pnode;	// ==> parent (head if end())

  00053	89 01		 mov	 DWORD PTR [ecx], eax
  00055	5b		 pop	 ebx
$L227679:

; 279  : 				}
; 280  : 			}

  00056	c3		 ret	 0
?_Inc@const_iterator@?$_Tree@V?$_Tmap_traits@KPAVCMailBox@@U?$less@K@std@@V?$allocator@U?$pair@$$CBKPAVCMailBox@@@std@@@3@$0A@@std@@@std@@QAEXXZ ENDP ; std::_Tree<std::_Tmap_traits<unsigned long,CMailBox *,std::less<unsigned long>,std::allocator<std::pair<unsigned long const ,CMailBox *> >,0> >::const_iterator::_Inc
_TEXT	ENDS
PUBLIC	?allocate@?$allocator@U_Node@?$_Tree_nod@V?$_Tmap_traits@KPAVCMailBox@@U?$less@K@std@@V?$allocator@U?$pair@$$CBKPAVCMailBox@@@std@@@3@$0A@@std@@@std@@@std@@QAEPAU_Node@?$_Tree_nod@V?$_Tmap_traits@KPAVCMailBox@@U?$less@K@std@@V?$allocator@U?$pair@$$CBKPAVCMailBox@@@std@@@3@$0A@@std@@@2@I@Z ; std::allocator<std::_Tree_nod<std::_Tmap_traits<unsigned long,CMailBox *,std::less<unsigned long>,std::allocator<std::pair<unsigned long const ,CMailBox *> >,0> >::_Node>::allocate
; Function compile flags: /Ogty
; File c:\program files\microsoft visual studio .net 2003\vc7\include\xmemory
;	COMDAT ?allocate@?$allocator@U_Node@?$_Tree_nod@V?$_Tmap_traits@KPAVCMailBox@@U?$less@K@std@@V?$allocator@U?$pair@$$CBKPAVCMailBox@@@std@@@3@$0A@@std@@@std@@@std@@QAEPAU_Node@?$_Tree_nod@V?$_Tmap_traits@KPAVCMailBox@@U?$less@K@std@@V?$allocator@U?$pair@$$CBKPAVCMailBox@@@std@@@3@$0A@@std@@@2@I@Z
_TEXT	SEGMENT
__Count$ = 8						; size = 4
?allocate@?$allocator@U_Node@?$_Tree_nod@V?$_Tmap_traits@KPAVCMailBox@@U?$less@K@std@@V?$allocator@U?$pair@$$CBKPAVCMailBox@@@std@@@3@$0A@@std@@@std@@@std@@QAEPAU_Node@?$_Tree_nod@V?$_Tmap_traits@KPAVCMailBox@@U?$less@K@std@@V?$allocator@U?$pair@$$CBKPAVCMailBox@@@std@@@3@$0A@@std@@@2@I@Z PROC NEAR ; std::allocator<std::_Tree_nod<std::_Tmap_traits<unsigned long,CMailBox *,std::less<unsigned long>,std::allocator<std::pair<unsigned long const ,CMailBox *> >,0> >::_Node>::allocate, COMDAT
; _this$ = ecx

; 137  : 		return (_Allocate(_Count, (pointer)0));

  00000	8b 44 24 04	 mov	 eax, DWORD PTR __Count$[esp-4]
  00004	8d 04 40	 lea	 eax, DWORD PTR [eax+eax*2]
  00007	c1 e0 03	 shl	 eax, 3
  0000a	50		 push	 eax
  0000b	e8 00 00 00 00	 call	 ??2@YAPAXI@Z		; operator new
  00010	83 c4 04	 add	 esp, 4

; 138  : 		}

  00013	c2 04 00	 ret	 4
?allocate@?$allocator@U_Node@?$_Tree_nod@V?$_Tmap_traits@KPAVCMailBox@@U?$less@K@std@@V?$allocator@U?$pair@$$CBKPAVCMailBox@@@std@@@3@$0A@@std@@@std@@@std@@QAEPAU_Node@?$_Tree_nod@V?$_Tmap_traits@KPAVCMailBox@@U?$less@K@std@@V?$allocator@U?$pair@$$CBKPAVCMailBox@@@std@@@3@$0A@@std@@@2@I@Z ENDP ; std::allocator<std::_Tree_nod<std::_Tmap_traits<unsigned long,CMailBox *,std::less<unsigned long>,std::allocator<std::pair<unsigned long const ,CMailBox *> >,0> >::_Node>::allocate
_TEXT	ENDS
PUBLIC	?GetTickCount@CTime@ATL@@SG?AV12@XZ		; ATL::CTime::GetTickCount
EXTRN	__time64:NEAR
; Function compile flags: /Ogty
; File c:\program files\microsoft visual studio .net 2003\vc7\atlmfc\include\atltime.inl
;	COMDAT ?GetTickCount@CTime@ATL@@SG?AV12@XZ
_TEXT	SEGMENT
___$ReturnUdt$ = 8					; size = 4
?GetTickCount@CTime@ATL@@SG?AV12@XZ PROC NEAR		; ATL::CTime::GetTickCount, COMDAT

; 139  : 	return( CTime( ::_time64( NULL ) ) );

  00000	6a 00		 push	 0
  00002	e8 00 00 00 00	 call	 __time64
  00007	8b 4c 24 08	 mov	 ecx, DWORD PTR ___$ReturnUdt$[esp]
  0000b	89 01		 mov	 DWORD PTR [ecx], eax
  0000d	83 c4 04	 add	 esp, 4
  00010	89 51 04	 mov	 DWORD PTR [ecx+4], edx
  00013	8b c1		 mov	 eax, ecx

; 140  : }

  00015	c2 04 00	 ret	 4
?GetTickCount@CTime@ATL@@SG?AV12@XZ ENDP		; ATL::CTime::GetTickCount
_TEXT	ENDS
PUBLIC	?_Dec@const_iterator@?$_Tree@V?$_Tmap_traits@KPAVCMailBox@@U?$less@K@std@@V?$allocator@U?$pair@$$CBKPAVCMailBox@@@std@@@3@$0A@@std@@@std@@QAEXXZ ; std::_Tree<std::_Tmap_traits<unsigned long,CMailBox *,std::less<unsigned long>,std::allocator<std::pair<unsigned long const ,CMailBox *> >,0> >::const_iterator::_Dec
; Function compile flags: /Ogty
; File c:\program files\microsoft visual studio .net 2003\vc7\include\xtree
;	COMDAT ?_Dec@const_iterator@?$_Tree@V?$_Tmap_traits@KPAVCMailBox@@U?$less@K@std@@V?$allocator@U?$pair@$$CBKPAVCMailBox@@@std@@@3@$0A@@std@@@std@@QAEXXZ
_TEXT	SEGMENT
?_Dec@const_iterator@?$_Tree@V?$_Tmap_traits@KPAVCMailBox@@U?$less@K@std@@V?$allocator@U?$pair@$$CBKPAVCMailBox@@@std@@@3@$0A@@std@@@std@@QAEXXZ PROC NEAR ; std::_Tree<std::_Tmap_traits<unsigned long,CMailBox *,std::less<unsigned long>,std::allocator<std::pair<unsigned long const ,CMailBox *> >,0> >::const_iterator::_Dec, COMDAT
; _this$ = ecx

; 251  : 			if (_Isnil(_Ptr))

  00000	8b 01		 mov	 eax, DWORD PTR [ecx]
  00002	8a 50 15	 mov	 dl, BYTE PTR [eax+21]
  00005	84 d2		 test	 dl, dl
  00007	74 06		 je	 SHORT $L227796

; 252  : 				_Ptr = _Right(_Ptr);	// end() ==> rightmost

  00009	8b 40 08	 mov	 eax, DWORD PTR [eax+8]
  0000c	89 01		 mov	 DWORD PTR [ecx], eax

; 263  : 				}
; 264  : 			}

  0000e	c3		 ret	 0
$L227796:

; 253  : 			else if (!_Isnil(_Left(_Ptr)))

  0000f	8b 10		 mov	 edx, DWORD PTR [eax]
  00011	53		 push	 ebx
  00012	8a 5a 15	 mov	 bl, BYTE PTR [edx+21]
  00015	84 db		 test	 bl, bl
  00017	75 1a		 jne	 SHORT $L230411

; 254  : 				_Ptr = _Max(_Left(_Ptr));	// ==> largest of left subtree

  00019	8b 42 08	 mov	 eax, DWORD PTR [edx+8]
  0001c	8a 58 15	 mov	 bl, BYTE PTR [eax+21]
  0001f	84 db		 test	 bl, bl
  00021	75 0c		 jne	 SHORT $L230389
$L230388:
  00023	8b d0		 mov	 edx, eax
  00025	8b 42 08	 mov	 eax, DWORD PTR [edx+8]
  00028	8a 58 15	 mov	 bl, BYTE PTR [eax+21]
  0002b	84 db		 test	 bl, bl
  0002d	74 f4		 je	 SHORT $L230388
$L230389:
  0002f	89 11		 mov	 DWORD PTR [ecx], edx
  00031	5b		 pop	 ebx

; 263  : 				}
; 264  : 			}

  00032	c3		 ret	 0
$L230411:

; 255  : 			else
; 256  : 				{	// climb looking for left subtree
; 257  : 				_Nodeptr _Pnode;
; 258  : 				while (!_Isnil(_Pnode = _Parent(_Ptr))
; 259  : 					&& _Ptr == _Left(_Pnode))

  00033	8b 40 04	 mov	 eax, DWORD PTR [eax+4]
  00036	8a 50 15	 mov	 dl, BYTE PTR [eax+21]
  00039	84 d2		 test	 dl, dl
  0003b	75 1e		 jne	 SHORT $L230414
  0003d	8d 49 00	 npad	 3
$L227802:
  00040	8b 11		 mov	 edx, DWORD PTR [ecx]
  00042	3b 10		 cmp	 edx, DWORD PTR [eax]
  00044	75 0c		 jne	 SHORT $L227803

; 260  : 					_Ptr = _Pnode;	// ==> parent while left subtree

  00046	89 01		 mov	 DWORD PTR [ecx], eax
  00048	8b 40 04	 mov	 eax, DWORD PTR [eax+4]
  0004b	8a 50 15	 mov	 dl, BYTE PTR [eax+21]
  0004e	84 d2		 test	 dl, dl
  00050	74 ee		 je	 SHORT $L227802
$L227803:

; 261  : 				if (!_Isnil(_Pnode))

  00052	8a 50 15	 mov	 dl, BYTE PTR [eax+21]
  00055	84 d2		 test	 dl, dl
  00057	75 02		 jne	 SHORT $L230414

; 262  : 					_Ptr = _Pnode;	// ==> parent if not head

  00059	89 01		 mov	 DWORD PTR [ecx], eax
$L230414:
  0005b	5b		 pop	 ebx

; 263  : 				}
; 264  : 			}

  0005c	c3		 ret	 0
?_Dec@const_iterator@?$_Tree@V?$_Tmap_traits@KPAVCMailBox@@U?$less@K@std@@V?$allocator@U?$pair@$$CBKPAVCMailBox@@@std@@@3@$0A@@std@@@std@@QAEXXZ ENDP ; std::_Tree<std::_Tmap_traits<unsigned long,CMailBox *,std::less<unsigned long>,std::allocator<std::pair<unsigned long const ,CMailBox *> >,0> >::const_iterator::_Dec
_TEXT	ENDS
PUBLIC	??0?$_Tree_nod@V?$_Tmap_traits@KPAVCMailBox@@U?$less@K@std@@V?$allocator@U?$pair@$$CBKPAVCMailBox@@@std@@@3@$0A@@std@@@std@@IAE@ABU?$less@K@1@V?$allocator@U?$pair@$$CBKPAVCMailBox@@@std@@@1@@Z ; std::_Tree_nod<std::_Tmap_traits<unsigned long,CMailBox *,std::less<unsigned long>,std::allocator<std::pair<unsigned long const ,CMailBox *> >,0> >::_Tree_nod<std::_Tmap_traits<unsigned long,CMailBox *,std::less<unsigned long>,std::allocator<std::pair<unsigned long const ,CMailBox *> >,0> >
; Function compile flags: /Ogty
;	COMDAT ??0?$_Tree_nod@V?$_Tmap_traits@KPAVCMailBox@@U?$less@K@std@@V?$allocator@U?$pair@$$CBKPAVCMailBox@@@std@@@3@$0A@@std@@@std@@IAE@ABU?$less@K@1@V?$allocator@U?$pair@$$CBKPAVCMailBox@@@std@@@1@@Z
_TEXT	SEGMENT
__Parg$ = 8						; size = 4
__Al$ = 12						; size = 1
??0?$_Tree_nod@V?$_Tmap_traits@KPAVCMailBox@@U?$less@K@std@@V?$allocator@U?$pair@$$CBKPAVCMailBox@@@std@@@3@$0A@@std@@@std@@IAE@ABU?$less@K@1@V?$allocator@U?$pair@$$CBKPAVCMailBox@@@std@@@1@@Z PROC NEAR ; std::_Tree_nod<std::_Tmap_traits<unsigned long,CMailBox *,std::less<unsigned long>,std::allocator<std::pair<unsigned long const ,CMailBox *> >,0> >::_Tree_nod<std::_Tmap_traits<unsigned long,CMailBox *,std::less<unsigned long>,std::allocator<std::pair<unsigned long const ,CMailBox *> >,0> >, COMDAT
; _this$ = ecx

; 54   : 		{	// construct traits from _Parg and allocator from _Al

  00000	8b c1		 mov	 eax, ecx

; 55   : 		}

  00002	c2 08 00	 ret	 8
??0?$_Tree_nod@V?$_Tmap_traits@KPAVCMailBox@@U?$less@K@std@@V?$allocator@U?$pair@$$CBKPAVCMailBox@@@std@@@3@$0A@@std@@@std@@IAE@ABU?$less@K@1@V?$allocator@U?$pair@$$CBKPAVCMailBox@@@std@@@1@@Z ENDP ; std::_Tree_nod<std::_Tmap_traits<unsigned long,CMailBox *,std::less<unsigned long>,std::allocator<std::pair<unsigned long const ,CMailBox *> >,0> >::_Tree_nod<std::_Tmap_traits<unsigned long,CMailBox *,std::less<unsigned long>,std::allocator<std::pair<unsigned long const ,CMailBox *> >,0> >
_TEXT	ENDS
PUBLIC	?construct@?$allocator@PAU_Node@?$_Tree_nod@V?$_Tmap_traits@KPAVCMailBox@@U?$less@K@std@@V?$allocator@U?$pair@$$CBKPAVCMailBox@@@std@@@3@$0A@@std@@@std@@@std@@QAEXPAPAU_Node@?$_Tree_nod@V?$_Tmap_traits@KPAVCMailBox@@U?$less@K@std@@V?$allocator@U?$pair@$$CBKPAVCMailBox@@@std@@@3@$0A@@std@@@2@ABQAU342@@Z ; std::allocator<std::_Tree_nod<std::_Tmap_traits<unsigned long,CMailBox *,std::less<unsigned long>,std::allocator<std::pair<unsigned long const ,CMailBox *> >,0> >::_Node *>::construct
; Function compile flags: /Ogty
; File c:\program files\microsoft visual studio .net 2003\vc7\include\xmemory
;	COMDAT ?construct@?$allocator@PAU_Node@?$_Tree_nod@V?$_Tmap_traits@KPAVCMailBox@@U?$less@K@std@@V?$allocator@U?$pair@$$CBKPAVCMailBox@@@std@@@3@$0A@@std@@@std@@@std@@QAEXPAPAU_Node@?$_Tree_nod@V?$_Tmap_traits@KPAVCMailBox@@U?$less@K@std@@V?$allocator@U?$pair@$$CBKPAVCMailBox@@@std@@@3@$0A@@std@@@2@ABQAU342@@Z
_TEXT	SEGMENT
__Ptr$ = 8						; size = 4
__Val$ = 12						; size = 4
?construct@?$allocator@PAU_Node@?$_Tree_nod@V?$_Tmap_traits@KPAVCMailBox@@U?$less@K@std@@V?$allocator@U?$pair@$$CBKPAVCMailBox@@@std@@@3@$0A@@std@@@std@@@std@@QAEXPAPAU_Node@?$_Tree_nod@V?$_Tmap_traits@KPAVCMailBox@@U?$less@K@std@@V?$allocator@U?$pair@$$CBKPAVCMailBox@@@std@@@3@$0A@@std@@@2@ABQAU342@@Z PROC NEAR ; std::allocator<std::_Tree_nod<std::_Tmap_traits<unsigned long,CMailBox *,std::less<unsigned long>,std::allocator<std::pair<unsigned long const ,CMailBox *> >,0> >::_Node *>::construct, COMDAT
; _this$ = ecx

; 147  : 		_Construct(_Ptr, _Val);

  00000	8b 44 24 04	 mov	 eax, DWORD PTR __Ptr$[esp-4]
  00004	85 c0		 test	 eax, eax
  00006	74 08		 je	 SHORT $L230437
  00008	8b 4c 24 08	 mov	 ecx, DWORD PTR __Val$[esp-4]
  0000c	8b 11		 mov	 edx, DWORD PTR [ecx]
  0000e	89 10		 mov	 DWORD PTR [eax], edx
$L230437:

; 148  : 		}

  00010	c2 08 00	 ret	 8
?construct@?$allocator@PAU_Node@?$_Tree_nod@V?$_Tmap_traits@KPAVCMailBox@@U?$less@K@std@@V?$allocator@U?$pair@$$CBKPAVCMailBox@@@std@@@3@$0A@@std@@@std@@@std@@QAEXPAPAU_Node@?$_Tree_nod@V?$_Tmap_traits@KPAVCMailBox@@U?$less@K@std@@V?$allocator@U?$pair@$$CBKPAVCMailBox@@@std@@@3@$0A@@std@@@2@ABQAU342@@Z ENDP ; std::allocator<std::_Tree_nod<std::_Tmap_traits<unsigned long,CMailBox *,std::less<unsigned long>,std::allocator<std::pair<unsigned long const ,CMailBox *> >,0> >::_Node *>::construct
_TEXT	ENDS
PUBLIC	??$copy@PAPAVCMail@@PAPAV1@@std@@YAPAPAVCMail@@PAPAV1@00@Z ; std::copy<CMail * *,CMail * *>
; Function compile flags: /Ogty
; File c:\program files\microsoft visual studio .net 2003\vc7\include\xutility
;	COMDAT ??$copy@PAPAVCMail@@PAPAV1@@std@@YAPAPAVCMail@@PAPAV1@00@Z
_TEXT	SEGMENT
__First$ = 8						; size = 4
__Last$ = 12						; size = 4
__Dest$ = 16						; size = 4
??$copy@PAPAVCMail@@PAPAV1@@std@@YAPAPAVCMail@@PAPAV1@00@Z PROC NEAR ; std::copy<CMail * *,CMail * *>, COMDAT

; 1040 : 	return (_Copy_opt(_First, _Last, _Dest, _Ptr_cat(_First, _Dest)));

  00000	8b 4c 24 04	 mov	 ecx, DWORD PTR __First$[esp-4]
  00004	8b 44 24 08	 mov	 eax, DWORD PTR __Last$[esp-4]
  00008	2b c1		 sub	 eax, ecx
  0000a	56		 push	 esi
  0000b	c1 f8 02	 sar	 eax, 2
  0000e	8d 34 85 00 00
	00 00		 lea	 esi, DWORD PTR [eax*4]
  00015	8b 44 24 10	 mov	 eax, DWORD PTR __Dest$[esp]
  00019	56		 push	 esi
  0001a	51		 push	 ecx
  0001b	50		 push	 eax
  0001c	e8 00 00 00 00	 call	 _memmove
  00021	83 c4 0c	 add	 esp, 12			; 0000000cH
  00024	03 c6		 add	 eax, esi
  00026	5e		 pop	 esi

; 1041 : 	}

  00027	c3		 ret	 0
??$copy@PAPAVCMail@@PAPAV1@@std@@YAPAPAVCMail@@PAPAV1@00@Z ENDP ; std::copy<CMail * *,CMail * *>
_TEXT	ENDS
PUBLIC	??$_Destroy_range@PAVCMail@@V?$allocator@PAVCMail@@@std@@@std@@YAXPAPAVCMail@@0AAV?$allocator@PAVCMail@@@0@@Z ; std::_Destroy_range<CMail *,std::allocator<CMail *> >
; Function compile flags: /Ogty
; File c:\program files\microsoft visual studio .net 2003\vc7\include\xmemory
;	COMDAT ??$_Destroy_range@PAVCMail@@V?$allocator@PAVCMail@@@std@@@std@@YAXPAPAVCMail@@0AAV?$allocator@PAVCMail@@@0@@Z
_TEXT	SEGMENT
__First$ = 8						; size = 4
__Last$ = 12						; size = 4
__Al$ = 16						; size = 4
??$_Destroy_range@PAVCMail@@V?$allocator@PAVCMail@@@std@@@std@@YAXPAPAVCMail@@0AAV?$allocator@PAVCMail@@@0@@Z PROC NEAR ; std::_Destroy_range<CMail *,std::allocator<CMail *> >, COMDAT

; 217  : 	_Destroy_range(_First, _Last, _Al, _Ptr_cat(_First, _Last));
; 218  : 	}

  00000	c3		 ret	 0
??$_Destroy_range@PAVCMail@@V?$allocator@PAVCMail@@@std@@@std@@YAXPAPAVCMail@@0AAV?$allocator@PAVCMail@@@0@@Z ENDP ; std::_Destroy_range<CMail *,std::allocator<CMail *> >
_TEXT	ENDS
PUBLIC	??$copy_backward@PAPAVCMail@@PAPAV1@@std@@YAPAPAVCMail@@PAPAV1@00@Z ; std::copy_backward<CMail * *,CMail * *>
; Function compile flags: /Ogty
; File c:\program files\microsoft visual studio .net 2003\vc7\include\xutility
;	COMDAT ??$copy_backward@PAPAVCMail@@PAPAV1@@std@@YAPAPAVCMail@@PAPAV1@00@Z
_TEXT	SEGMENT
__First$ = 8						; size = 4
__Last$ = 12						; size = 4
__Dest$ = 16						; size = 4
??$copy_backward@PAPAVCMail@@PAPAV1@@std@@YAPAPAVCMail@@PAPAV1@00@Z PROC NEAR ; std::copy_backward<CMail * *,CMail * *>, COMDAT

; 1068 : 	return (_Copy_backward_opt(_First, _Last, _Dest,
; 1069 : 		_Ptr_cat(_First, _Dest)));

  00000	8b 4c 24 04	 mov	 ecx, DWORD PTR __First$[esp-4]
  00004	8b 44 24 08	 mov	 eax, DWORD PTR __Last$[esp-4]
  00008	2b c1		 sub	 eax, ecx
  0000a	c1 f8 02	 sar	 eax, 2
  0000d	c1 e0 02	 shl	 eax, 2
  00010	50		 push	 eax
  00011	51		 push	 ecx
  00012	8b 4c 24 14	 mov	 ecx, DWORD PTR __Dest$[esp+4]
  00016	2b c8		 sub	 ecx, eax
  00018	51		 push	 ecx
  00019	e8 00 00 00 00	 call	 _memmove
  0001e	83 c4 0c	 add	 esp, 12			; 0000000cH

; 1070 : 	}

  00021	c3		 ret	 0
??$copy_backward@PAPAVCMail@@PAPAV1@@std@@YAPAPAVCMail@@PAPAV1@00@Z ENDP ; std::copy_backward<CMail * *,CMail * *>
_TEXT	ENDS
PUBLIC	??$_Uninit_fill_n@PAVCMail@@IPAV1@@std@@YAXPAPAVCMail@@IABQAV1@AAV?$allocator@PAVCMail@@@0@U_Scalar_ptr_iterator_tag@0@@Z ; std::_Uninit_fill_n<CMail *,unsigned int,CMail *>
; Function compile flags: /Ogty
; File c:\program files\microsoft visual studio .net 2003\vc7\include\memory
;	COMDAT ??$_Uninit_fill_n@PAVCMail@@IPAV1@@std@@YAXPAPAVCMail@@IABQAV1@AAV?$allocator@PAVCMail@@@0@U_Scalar_ptr_iterator_tag@0@@Z
_TEXT	SEGMENT
__First$ = 8						; size = 4
__Count$ = 12						; size = 4
__Val$ = 16						; size = 4
___formal$ = 20						; size = 4
___formal$ = 24						; size = 1
??$_Uninit_fill_n@PAVCMail@@IPAV1@@std@@YAXPAPAVCMail@@IABQAV1@AAV?$allocator@PAVCMail@@@0@U_Scalar_ptr_iterator_tag@0@@Z PROC NEAR ; std::_Uninit_fill_n<CMail *,unsigned int,CMail *>, COMDAT

; 237  : 	fill_n(_First, _Count, _Val);

  00000	8b 4c 24 08	 mov	 ecx, DWORD PTR __Count$[esp-4]
  00004	85 c9		 test	 ecx, ecx
  00006	8b 44 24 04	 mov	 eax, DWORD PTR __First$[esp-4]
  0000a	76 10		 jbe	 SHORT $L230485
  0000c	8b 54 24 0c	 mov	 edx, DWORD PTR __Val$[esp-4]
  00010	56		 push	 esi
$L230483:
  00011	8b 32		 mov	 esi, DWORD PTR [edx]
  00013	89 30		 mov	 DWORD PTR [eax], esi
  00015	83 c0 04	 add	 eax, 4
  00018	49		 dec	 ecx
  00019	75 f6		 jne	 SHORT $L230483
  0001b	5e		 pop	 esi
$L230485:

; 238  : 	}

  0001c	c3		 ret	 0
??$_Uninit_fill_n@PAVCMail@@IPAV1@@std@@YAXPAPAVCMail@@IABQAV1@AAV?$allocator@PAVCMail@@@0@U_Scalar_ptr_iterator_tag@0@@Z ENDP ; std::_Uninit_fill_n<CMail *,unsigned int,CMail *>
_TEXT	ENDS
PUBLIC	??$_Uninitialized_copy@PAPAVCMail@@PAPAV1@V?$allocator@PAVCMail@@@std@@@std@@YAPAPAVCMail@@PAPAV1@00AAV?$allocator@PAVCMail@@@0@@Z ; std::_Uninitialized_copy<CMail * *,CMail * *,std::allocator<CMail *> >
; Function compile flags: /Ogty
;	COMDAT ??$_Uninitialized_copy@PAPAVCMail@@PAPAV1@V?$allocator@PAVCMail@@@std@@@std@@YAPAPAVCMail@@PAPAV1@00AAV?$allocator@PAVCMail@@@0@@Z
_TEXT	SEGMENT
__First$ = 8						; size = 4
__Last$ = 12						; size = 4
__Dest$ = 16						; size = 4
__Al$ = 20						; size = 4
??$_Uninitialized_copy@PAPAVCMail@@PAPAV1@V?$allocator@PAVCMail@@@std@@@std@@YAPAPAVCMail@@PAPAV1@00AAV?$allocator@PAVCMail@@@0@@Z PROC NEAR ; std::_Uninitialized_copy<CMail * *,CMail * *,std::allocator<CMail *> >, COMDAT

; 127  : 	return (_Uninit_copy(_First, _Last, _Dest, _Al,
; 128  : 		_Ptr_cat(_First, _Dest)));

  00000	8b 4c 24 04	 mov	 ecx, DWORD PTR __First$[esp-4]
  00004	8b 44 24 08	 mov	 eax, DWORD PTR __Last$[esp-4]
  00008	2b c1		 sub	 eax, ecx
  0000a	56		 push	 esi
  0000b	c1 f8 02	 sar	 eax, 2
  0000e	8d 34 85 00 00
	00 00		 lea	 esi, DWORD PTR [eax*4]
  00015	8b 44 24 10	 mov	 eax, DWORD PTR __Dest$[esp]
  00019	56		 push	 esi
  0001a	51		 push	 ecx
  0001b	50		 push	 eax
  0001c	e8 00 00 00 00	 call	 _memmove
  00021	83 c4 0c	 add	 esp, 12			; 0000000cH
  00024	03 c6		 add	 eax, esi
  00026	5e		 pop	 esi

; 129  : 	}

  00027	c3		 ret	 0
??$_Uninitialized_copy@PAPAVCMail@@PAPAV1@V?$allocator@PAVCMail@@@std@@@std@@YAPAPAVCMail@@PAPAV1@00AAV?$allocator@PAVCMail@@@0@@Z ENDP ; std::_Uninitialized_copy<CMail * *,CMail * *,std::allocator<CMail *> >
_TEXT	ENDS
PUBLIC	??GCOleDateTimeSpan@ATL@@QBE?AV01@ABV01@@Z	; ATL::COleDateTimeSpan::operator-
; Function compile flags: /Ogty
; File c:\program files\microsoft visual studio .net 2003\vc7\atlmfc\include\atlcomtime.inl
;	COMDAT ??GCOleDateTimeSpan@ATL@@QBE?AV01@ABV01@@Z
_TEXT	SEGMENT
_dateSpanTemp$ = -12					; size = 12
___$ReturnUdt$ = 8					; size = 4
_dateSpan$ = 12						; size = 4
??GCOleDateTimeSpan@ATL@@QBE?AV01@ABV01@@Z PROC NEAR	; ATL::COleDateTimeSpan::operator-, COMDAT
; _this$ = ecx

; 192  : {

  00000	83 ec 0c	 sub	 esp, 12			; 0000000cH

; 193  : 	COleDateTimeSpan dateSpanTemp;
; 194  : 
; 195  : 	// If either operand Null, result Null
; 196  : 	if (GetStatus() == null || dateSpan.GetStatus() == null)

  00003	8b 51 08	 mov	 edx, DWORD PTR [ecx+8]
  00006	dd 05 00 00 00
	00		 fld	 QWORD PTR __real@0000000000000000
  0000c	83 fa 02	 cmp	 edx, 2
  0000f	dd 1c 24	 fstp	 QWORD PTR _dateSpanTemp$[esp+12]
  00012	56		 push	 esi
  00013	c7 44 24 0c 00
	00 00 00	 mov	 DWORD PTR _dateSpanTemp$[esp+24], 0
  0001b	74 4f		 je	 SHORT $L117025
  0001d	8b 74 24 18	 mov	 esi, DWORD PTR _dateSpan$[esp+12]
  00021	8b 46 08	 mov	 eax, DWORD PTR [esi+8]
  00024	83 f8 02	 cmp	 eax, 2
  00027	74 43		 je	 SHORT $L117025

; 200  : 	}
; 201  : 
; 202  : 	// If either operand Invalid, result Invalid
; 203  : 	if (GetStatus() == invalid || dateSpan.GetStatus() == invalid)

  00029	83 fa 01	 cmp	 edx, 1
  0002c	74 37		 je	 SHORT $L117027
  0002e	83 f8 01	 cmp	 eax, 1
  00031	74 32		 je	 SHORT $L117027

; 207  : 	}
; 208  : 
; 209  : 	// Subtract spans and validate within legal range
; 210  : 	dateSpanTemp.m_span = m_span - dateSpan.m_span;

  00033	dd 01		 fld	 QWORD PTR [ecx]

; 211  : 	dateSpanTemp.CheckRange();

  00035	8d 4c 24 04	 lea	 ecx, DWORD PTR _dateSpanTemp$[esp+16]
  00039	dc 26		 fsub	 QWORD PTR [esi]
  0003b	dd 5c 24 04	 fstp	 QWORD PTR _dateSpanTemp$[esp+16]
  0003f	e8 00 00 00 00	 call	 ?CheckRange@COleDateTimeSpan@ATL@@QAEXXZ ; ATL::COleDateTimeSpan::CheckRange

; 212  : 
; 213  : 	return dateSpanTemp;

  00044	8b 44 24 14	 mov	 eax, DWORD PTR ___$ReturnUdt$[esp+12]
  00048	8b 54 24 04	 mov	 edx, DWORD PTR _dateSpanTemp$[esp+16]
  0004c	8b c8		 mov	 ecx, eax
  0004e	89 11		 mov	 DWORD PTR [ecx], edx
  00050	8b 54 24 08	 mov	 edx, DWORD PTR _dateSpanTemp$[esp+20]
  00054	89 51 04	 mov	 DWORD PTR [ecx+4], edx
  00057	8b 54 24 0c	 mov	 edx, DWORD PTR _dateSpanTemp$[esp+24]
  0005b	89 51 08	 mov	 DWORD PTR [ecx+8], edx
  0005e	5e		 pop	 esi

; 214  : }

  0005f	83 c4 0c	 add	 esp, 12			; 0000000cH
  00062	c2 08 00	 ret	 8
$L117027:

; 204  : 	{
; 205  : 		dateSpanTemp.SetStatus(invalid);

  00065	b9 01 00 00 00	 mov	 ecx, 1

; 206  : 		return dateSpanTemp;

  0006a	eb 05		 jmp	 SHORT $L230530
$L117025:

; 197  : 	{
; 198  : 		dateSpanTemp.SetStatus(null);

  0006c	b9 02 00 00 00	 mov	 ecx, 2
$L230530:

; 199  : 		return dateSpanTemp;

  00071	8b 44 24 14	 mov	 eax, DWORD PTR ___$ReturnUdt$[esp+12]
  00075	8b 74 24 04	 mov	 esi, DWORD PTR _dateSpanTemp$[esp+16]
  00079	8b d0		 mov	 edx, eax
  0007b	89 32		 mov	 DWORD PTR [edx], esi
  0007d	8b 74 24 08	 mov	 esi, DWORD PTR _dateSpanTemp$[esp+20]
  00081	89 72 04	 mov	 DWORD PTR [edx+4], esi
  00084	89 4a 08	 mov	 DWORD PTR [edx+8], ecx
  00087	5e		 pop	 esi

; 214  : }

  00088	83 c4 0c	 add	 esp, 12			; 0000000cH
  0008b	c2 08 00	 ret	 8
??GCOleDateTimeSpan@ATL@@QBE?AV01@ABV01@@Z ENDP		; ATL::COleDateTimeSpan::operator-
_TEXT	ENDS
PUBLIC	__real@3ee845c8a0ce5129
PUBLIC	__real@3f46c16c16c16c17
PUBLIC	__real@3fa5555555555555
PUBLIC	?SetDateTimeSpan@COleDateTimeSpan@ATL@@QAEXJHHH@Z ; ATL::COleDateTimeSpan::SetDateTimeSpan
;	COMDAT __real@3ee845c8a0ce5129
CONST	SEGMENT
__real@3ee845c8a0ce5129 DQ 03ee845c8a0ce5129r	; 1.15741e-005
CONST	ENDS
;	COMDAT __real@3f46c16c16c16c17
CONST	SEGMENT
__real@3f46c16c16c16c17 DQ 03f46c16c16c16c17r	; 0.000694444
CONST	ENDS
;	COMDAT __real@3fa5555555555555
CONST	SEGMENT
__real@3fa5555555555555 DQ 03fa5555555555555r	; 0.0416667
; Function compile flags: /Ogty
CONST	ENDS
;	COMDAT ?SetDateTimeSpan@COleDateTimeSpan@ATL@@QAEXJHHH@Z
_TEXT	SEGMENT
_lDays$ = 8						; size = 4
_nHours$ = 12						; size = 4
_nMins$ = 16						; size = 4
_nSecs$ = 20						; size = 4
?SetDateTimeSpan@COleDateTimeSpan@ATL@@QAEXJHHH@Z PROC NEAR ; ATL::COleDateTimeSpan::SetDateTimeSpan, COMDAT
; _this$ = ecx

; 246  : 	// Set date span by breaking into fractional days (all input ranges valid)
; 247  : 	m_span = lDays + ((double)nHours)/24 + ((double)nMins)/(24*60) +
; 248  : 		((double)nSecs)/(24*60*60);

  00000	db 44 24 10	 fild	 DWORD PTR _nSecs$[esp-4]

; 249  : 	m_status = valid;

  00004	c7 41 08 00 00
	00 00		 mov	 DWORD PTR [ecx+8], 0
  0000b	dc 0d 00 00 00
	00		 fmul	 QWORD PTR __real@3ee845c8a0ce5129
  00011	db 44 24 0c	 fild	 DWORD PTR _nMins$[esp-4]
  00015	dc 0d 00 00 00
	00		 fmul	 QWORD PTR __real@3f46c16c16c16c17
  0001b	de c1		 faddp	 ST(1), ST(0)
  0001d	db 44 24 08	 fild	 DWORD PTR _nHours$[esp-4]
  00021	dc 0d 00 00 00
	00		 fmul	 QWORD PTR __real@3fa5555555555555
  00027	de c1		 faddp	 ST(1), ST(0)
  00029	da 44 24 04	 fiadd	 DWORD PTR _lDays$[esp-4]

; 250  : 	CheckRange();

  0002d	dc 15 00 00 00
	00		 fcom	 QWORD PTR __real@c14b964c80000000
  00033	dd 11		 fst	 QWORD PTR [ecx]
  00035	df e0		 fnstsw	 ax
  00037	f6 c4 05	 test	 ah, 5
  0003a	7b 17		 jnp	 SHORT $L230545
  0003c	dc 1d 00 00 00
	00		 fcomp	 QWORD PTR __real@414b964c80000000
  00042	df e0		 fnstsw	 ax
  00044	f6 c4 41	 test	 ah, 65			; 00000041H
  00047	75 13		 jne	 SHORT $L230537
  00049	c7 41 08 01 00
	00 00		 mov	 DWORD PTR [ecx+8], 1

; 251  : }

  00050	c2 10 00	 ret	 16			; 00000010H
$L230545:

; 250  : 	CheckRange();

  00053	dd d8		 fstp	 ST(0)
  00055	c7 41 08 01 00
	00 00		 mov	 DWORD PTR [ecx+8], 1
$L230537:

; 251  : }

  0005c	c2 10 00	 ret	 16			; 00000010H
?SetDateTimeSpan@COleDateTimeSpan@ATL@@QAEXJHHH@Z ENDP	; ATL::COleDateTimeSpan::SetDateTimeSpan
_TEXT	ENDS
PUBLIC	??6CAr@@QAEAAV0@H@Z				; CAr::operator<<
; Function compile flags: /Ogty
; File c:\documents and settings\test\mes documents\source\virtuos_v17\build\program\_network\misc\include\ar.h
;	COMDAT ??6CAr@@QAEAAV0@H@Z
_TEXT	SEGMENT
_i$ = 8							; size = 4
??6CAr@@QAEAAV0@H@Z PROC NEAR				; CAr::operator<<, COMDAT
; _this$ = ecx

; 99   : 	{ return CAr::operator<<((LONG)i); }

  00000	56		 push	 esi
  00001	6a 04		 push	 4
  00003	8b f1		 mov	 esi, ecx
  00005	e8 00 00 00 00	 call	 ?CheckBuf@CAr@@QAEXI@Z	; CAr::CheckBuf
  0000a	8b 46 08	 mov	 eax, DWORD PTR [esi+8]
  0000d	8b 4c 24 08	 mov	 ecx, DWORD PTR _i$[esp]
  00011	89 08		 mov	 DWORD PTR [eax], ecx
  00013	83 46 08 04	 add	 DWORD PTR [esi+8], 4
  00017	8b c6		 mov	 eax, esi
  00019	5e		 pop	 esi
  0001a	c2 04 00	 ret	 4
??6CAr@@QAEAAV0@H@Z ENDP				; CAr::operator<<
_TEXT	ENDS
PUBLIC	??6CAr@@QAEAAV0@I@Z				; CAr::operator<<
; Function compile flags: /Ogty
;	COMDAT ??6CAr@@QAEAAV0@I@Z
_TEXT	SEGMENT
_u$ = 8							; size = 4
??6CAr@@QAEAAV0@I@Z PROC NEAR				; CAr::operator<<, COMDAT
; _this$ = ecx

; 101  : 	{ return CAr::operator<<((LONG)u); }

  00000	56		 push	 esi
  00001	6a 04		 push	 4
  00003	8b f1		 mov	 esi, ecx
  00005	e8 00 00 00 00	 call	 ?CheckBuf@CAr@@QAEXI@Z	; CAr::CheckBuf
  0000a	8b 46 08	 mov	 eax, DWORD PTR [esi+8]
  0000d	8b 4c 24 08	 mov	 ecx, DWORD PTR _u$[esp]
  00011	89 08		 mov	 DWORD PTR [eax], ecx
  00013	83 46 08 04	 add	 DWORD PTR [esi+8], 4
  00017	8b c6		 mov	 eax, esi
  00019	5e		 pop	 esi
  0001a	c2 04 00	 ret	 4
??6CAr@@QAEAAV0@I@Z ENDP				; CAr::operator<<
_TEXT	ENDS
PUBLIC	??5CAr@@QAEAAV0@AAH@Z				; CAr::operator>>
; Function compile flags: /Ogty
;	COMDAT ??5CAr@@QAEAAV0@AAH@Z
_TEXT	SEGMENT
_i$ = 8							; size = 4
??5CAr@@QAEAAV0@AAH@Z PROC NEAR				; CAr::operator>>, COMDAT
; _this$ = ecx

; 126  : 	{ return CAr::operator>>((LONG&)i); }

  00000	8b c1		 mov	 eax, ecx
  00002	8b 48 08	 mov	 ecx, DWORD PTR [eax+8]
  00005	56		 push	 esi
  00006	8b 70 0c	 mov	 esi, DWORD PTR [eax+12]
  00009	8d 51 04	 lea	 edx, DWORD PTR [ecx+4]
  0000c	3b d6		 cmp	 edx, esi
  0000e	5e		 pop	 esi
  0000f	77 0f		 ja	 SHORT $L230564
  00011	8b 09		 mov	 ecx, DWORD PTR [ecx]
  00013	8b 54 24 04	 mov	 edx, DWORD PTR _i$[esp-4]
  00017	89 0a		 mov	 DWORD PTR [edx], ecx
  00019	83 40 08 04	 add	 DWORD PTR [eax+8], 4
  0001d	c2 04 00	 ret	 4
$L230564:
  00020	8b 4c 24 04	 mov	 ecx, DWORD PTR _i$[esp-4]
  00024	c7 01 00 00 00
	00		 mov	 DWORD PTR [ecx], 0
  0002a	8b 50 0c	 mov	 edx, DWORD PTR [eax+12]
  0002d	89 50 08	 mov	 DWORD PTR [eax+8], edx
  00030	c2 04 00	 ret	 4
??5CAr@@QAEAAV0@AAH@Z ENDP				; CAr::operator>>
_TEXT	ENDS
PUBLIC	??0?$_String_val@DV?$allocator@D@std@@@std@@IAE@V?$allocator@D@1@@Z ; std::_String_val<char,std::allocator<char> >::_String_val<char,std::allocator<char> >
; Function compile flags: /Ogty
; File c:\program files\microsoft visual studio .net 2003\vc7\include\xstring
;	COMDAT ??0?$_String_val@DV?$allocator@D@std@@@std@@IAE@V?$allocator@D@1@@Z
_TEXT	SEGMENT
__Al$ = 8						; size = 1
??0?$_String_val@DV?$allocator@D@std@@@std@@IAE@V?$allocator@D@1@@Z PROC NEAR ; std::_String_val<char,std::allocator<char> >::_String_val<char,std::allocator<char> >, COMDAT
; _this$ = ecx

; 34   : 		{	// construct allocator from _Al

  00000	8b c1		 mov	 eax, ecx

; 35   : 		}

  00002	c2 04 00	 ret	 4
??0?$_String_val@DV?$allocator@D@std@@@std@@IAE@V?$allocator@D@1@@Z ENDP ; std::_String_val<char,std::allocator<char> >::_String_val<char,std::allocator<char> >
_TEXT	ENDS
PUBLIC	?_Eos@?$basic_string@DU?$char_traits@D@std@@V?$allocator@D@2@@std@@IAEXI@Z ; std::basic_string<char,std::char_traits<char>,std::allocator<char> >::_Eos
; Function compile flags: /Ogty
;	COMDAT ?_Eos@?$basic_string@DU?$char_traits@D@std@@V?$allocator@D@2@@std@@IAEXI@Z
_TEXT	SEGMENT
__Newsize$ = 8						; size = 4
?_Eos@?$basic_string@DU?$char_traits@D@std@@V?$allocator@D@2@@std@@IAEXI@Z PROC NEAR ; std::basic_string<char,std::char_traits<char>,std::allocator<char> >::_Eos, COMDAT
; _this$ = ecx

; 1475 : 		_Traits::assign(_Myptr()[_Mysize = _Newsize], _Elem());

  00000	83 79 18 10	 cmp	 DWORD PTR [ecx+24], 16	; 00000010H
  00004	8b 44 24 04	 mov	 eax, DWORD PTR __Newsize$[esp-4]
  00008	89 41 14	 mov	 DWORD PTR [ecx+20], eax
  0000b	72 0a		 jb	 SHORT $L230580
  0000d	8b 49 04	 mov	 ecx, DWORD PTR [ecx+4]
  00010	c6 04 01 00	 mov	 BYTE PTR [ecx+eax], 0

; 1476 : 		}

  00014	c2 04 00	 ret	 4

; 1475 : 		_Traits::assign(_Myptr()[_Mysize = _Newsize], _Elem());

$L230580:
  00017	c6 44 01 04 00	 mov	 BYTE PTR [ecx+eax+4], 0

; 1476 : 		}

  0001c	c2 04 00	 ret	 4
?_Eos@?$basic_string@DU?$char_traits@D@std@@V?$allocator@D@2@@std@@IAEXI@Z ENDP ; std::basic_string<char,std::char_traits<char>,std::allocator<char> >::_Eos
_TEXT	ENDS
PUBLIC	?max_size@?$basic_string@DU?$char_traits@D@std@@V?$allocator@D@2@@std@@QBEIXZ ; std::basic_string<char,std::char_traits<char>,std::allocator<char> >::max_size
; Function compile flags: /Ogty
;	COMDAT ?max_size@?$basic_string@DU?$char_traits@D@std@@V?$allocator@D@2@@std@@QBEIXZ
_TEXT	SEGMENT
?max_size@?$basic_string@DU?$char_traits@D@std@@V?$allocator@D@2@@std@@QBEIXZ PROC NEAR ; std::basic_string<char,std::char_traits<char>,std::allocator<char> >::max_size, COMDAT
; _this$ = ecx

; 1114 : 		size_type _Num = _Mybase::_Alval.max_size();
; 1115 : 		return (_Num <= 1 ? 1 : _Num - 1);

  00000	b8 fe ff ff ff	 mov	 eax, -2			; fffffffeH

; 1116 : 		}

  00005	c3		 ret	 0
?max_size@?$basic_string@DU?$char_traits@D@std@@V?$allocator@D@2@@std@@QBEIXZ ENDP ; std::basic_string<char,std::char_traits<char>,std::allocator<char> >::max_size
_TEXT	ENDS
PUBLIC	?allocate@?$allocator@D@std@@QAEPADI@Z		; std::allocator<char>::allocate
; Function compile flags: /Ogty
; File c:\program files\microsoft visual studio .net 2003\vc7\include\xmemory
;	COMDAT ?allocate@?$allocator@D@std@@QAEPADI@Z
_TEXT	SEGMENT
__Count$ = 8						; size = 4
?allocate@?$allocator@D@std@@QAEPADI@Z PROC NEAR	; std::allocator<char>::allocate, COMDAT
; _this$ = ecx

; 137  : 		return (_Allocate(_Count, (pointer)0));

  00000	8b 44 24 04	 mov	 eax, DWORD PTR __Count$[esp-4]
  00004	50		 push	 eax
  00005	e8 00 00 00 00	 call	 ??2@YAPAXI@Z		; operator new
  0000a	83 c4 04	 add	 esp, 4

; 138  : 		}

  0000d	c2 04 00	 ret	 4
?allocate@?$allocator@D@std@@QAEPADI@Z ENDP		; std::allocator<char>::allocate
; Function compile flags: /Ogty
_TEXT	ENDS
;	COMDAT ??_GCMail@@UAEPAXI@Z
_TEXT	SEGMENT
___flags$ = 8						; size = 4
??_GCMail@@UAEPAXI@Z PROC NEAR				; CMail::`scalar deleting destructor', COMDAT
; _this$ = ecx
  00000	56		 push	 esi
  00001	8b f1		 mov	 esi, ecx
  00003	8b 4e 0c	 mov	 ecx, DWORD PTR [esi+12]
  00006	85 c9		 test	 ecx, ecx
  00008	c7 06 00 00 00
	00		 mov	 DWORD PTR [esi], OFFSET FLAT:??_7CMail@@6B@
  0000e	74 0d		 je	 SHORT $L230624
  00010	8b 01		 mov	 eax, DWORD PTR [ecx]
  00012	6a 01		 push	 1
  00014	ff 10		 call	 DWORD PTR [eax]
  00016	c7 46 0c 00 00
	00 00		 mov	 DWORD PTR [esi+12], 0
$L230624:
  0001d	f6 44 24 08 01	 test	 BYTE PTR ___flags$[esp], 1
  00022	74 09		 je	 SHORT $L230630
  00024	56		 push	 esi
  00025	e8 00 00 00 00	 call	 ??3@YAXPAX@Z		; operator delete
  0002a	83 c4 04	 add	 esp, 4
$L230630:
  0002d	8b c6		 mov	 eax, esi
  0002f	5e		 pop	 esi
  00030	c2 04 00	 ret	 4
??_GCMail@@UAEPAXI@Z ENDP				; CMail::`scalar deleting destructor'
_TEXT	ENDS
PUBLIC	?begin@?$vector@PAVCMail@@V?$allocator@PAVCMail@@@std@@@std@@QAE?AViterator@12@XZ ; std::vector<CMail *,std::allocator<CMail *> >::begin
; Function compile flags: /Ogty
; File c:\program files\microsoft visual studio .net 2003\vc7\include\vector
;	COMDAT ?begin@?$vector@PAVCMail@@V?$allocator@PAVCMail@@@std@@@std@@QAE?AViterator@12@XZ
_TEXT	SEGMENT
___$ReturnUdt$ = 8					; size = 4
?begin@?$vector@PAVCMail@@V?$allocator@PAVCMail@@@std@@@std@@QAE?AViterator@12@XZ PROC NEAR ; std::vector<CMail *,std::allocator<CMail *> >::begin, COMDAT
; _this$ = ecx

; 463  : 		return (iterator(_Myfirst));

  00000	8b 49 04	 mov	 ecx, DWORD PTR [ecx+4]
  00003	8b 44 24 04	 mov	 eax, DWORD PTR ___$ReturnUdt$[esp-4]
  00007	89 08		 mov	 DWORD PTR [eax], ecx

; 464  : 		}

  00009	c2 04 00	 ret	 4
?begin@?$vector@PAVCMail@@V?$allocator@PAVCMail@@@std@@@std@@QAE?AViterator@12@XZ ENDP ; std::vector<CMail *,std::allocator<CMail *> >::begin
_TEXT	ENDS
PUBLIC	?end@?$vector@PAVCMail@@V?$allocator@PAVCMail@@@std@@@std@@QAE?AViterator@12@XZ ; std::vector<CMail *,std::allocator<CMail *> >::end
; Function compile flags: /Ogty
;	COMDAT ?end@?$vector@PAVCMail@@V?$allocator@PAVCMail@@@std@@@std@@QAE?AViterator@12@XZ
_TEXT	SEGMENT
___$ReturnUdt$ = 8					; size = 4
?end@?$vector@PAVCMail@@V?$allocator@PAVCMail@@@std@@@std@@QAE?AViterator@12@XZ PROC NEAR ; std::vector<CMail *,std::allocator<CMail *> >::end, COMDAT
; _this$ = ecx

; 473  : 		return (iterator(_Mylast));

  00000	8b 49 08	 mov	 ecx, DWORD PTR [ecx+8]
  00003	8b 44 24 04	 mov	 eax, DWORD PTR ___$ReturnUdt$[esp-4]
  00007	89 08		 mov	 DWORD PTR [eax], ecx

; 474  : 		}

  00009	c2 04 00	 ret	 4
?end@?$vector@PAVCMail@@V?$allocator@PAVCMail@@@std@@@std@@QAE?AViterator@12@XZ ENDP ; std::vector<CMail *,std::allocator<CMail *> >::end
_TEXT	ENDS
PUBLIC	?begin@?$_Tree@V?$_Tmap_traits@KPAVCMailBox@@U?$less@K@std@@V?$allocator@U?$pair@$$CBKPAVCMailBox@@@std@@@3@$0A@@std@@@std@@QAE?AViterator@12@XZ ; std::_Tree<std::_Tmap_traits<unsigned long,CMailBox *,std::less<unsigned long>,std::allocator<std::pair<unsigned long const ,CMailBox *> >,0> >::begin
; Function compile flags: /Ogty
; File c:\program files\microsoft visual studio .net 2003\vc7\include\xtree
;	COMDAT ?begin@?$_Tree@V?$_Tmap_traits@KPAVCMailBox@@U?$less@K@std@@V?$allocator@U?$pair@$$CBKPAVCMailBox@@@std@@@3@$0A@@std@@@std@@QAE?AViterator@12@XZ
_TEXT	SEGMENT
___$ReturnUdt$ = 8					; size = 4
?begin@?$_Tree@V?$_Tmap_traits@KPAVCMailBox@@U?$less@K@std@@V?$allocator@U?$pair@$$CBKPAVCMailBox@@@std@@@3@$0A@@std@@@std@@QAE?AViterator@12@XZ PROC NEAR ; std::_Tree<std::_Tmap_traits<unsigned long,CMailBox *,std::less<unsigned long>,std::allocator<std::pair<unsigned long const ,CMailBox *> >,0> >::begin, COMDAT
; _this$ = ecx

; 408  : 		return (_TREE_ITERATOR(_Lmost()));

  00000	8b 41 04	 mov	 eax, DWORD PTR [ecx+4]
  00003	8b 08		 mov	 ecx, DWORD PTR [eax]
  00005	8b 44 24 04	 mov	 eax, DWORD PTR ___$ReturnUdt$[esp-4]
  00009	89 08		 mov	 DWORD PTR [eax], ecx

; 409  : 		}

  0000b	c2 04 00	 ret	 4
?begin@?$_Tree@V?$_Tmap_traits@KPAVCMailBox@@U?$less@K@std@@V?$allocator@U?$pair@$$CBKPAVCMailBox@@@std@@@3@$0A@@std@@@std@@QAE?AViterator@12@XZ ENDP ; std::_Tree<std::_Tmap_traits<unsigned long,CMailBox *,std::less<unsigned long>,std::allocator<std::pair<unsigned long const ,CMailBox *> >,0> >::begin
_TEXT	ENDS
PUBLIC	?end@?$_Tree@V?$_Tmap_traits@KPAVCMailBox@@U?$less@K@std@@V?$allocator@U?$pair@$$CBKPAVCMailBox@@@std@@@3@$0A@@std@@@std@@QAE?AViterator@12@XZ ; std::_Tree<std::_Tmap_traits<unsigned long,CMailBox *,std::less<unsigned long>,std::allocator<std::pair<unsigned long const ,CMailBox *> >,0> >::end
; Function compile flags: /Ogty
;	COMDAT ?end@?$_Tree@V?$_Tmap_traits@KPAVCMailBox@@U?$less@K@std@@V?$allocator@U?$pair@$$CBKPAVCMailBox@@@std@@@3@$0A@@std@@@std@@QAE?AViterator@12@XZ
_TEXT	SEGMENT
___$ReturnUdt$ = 8					; size = 4
?end@?$_Tree@V?$_Tmap_traits@KPAVCMailBox@@U?$less@K@std@@V?$allocator@U?$pair@$$CBKPAVCMailBox@@@std@@@3@$0A@@std@@@std@@QAE?AViterator@12@XZ PROC NEAR ; std::_Tree<std::_Tmap_traits<unsigned long,CMailBox *,std::less<unsigned long>,std::allocator<std::pair<unsigned long const ,CMailBox *> >,0> >::end, COMDAT
; _this$ = ecx

; 418  : 		return (_TREE_ITERATOR(_Myhead));

  00000	8b 49 04	 mov	 ecx, DWORD PTR [ecx+4]
  00003	8b 44 24 04	 mov	 eax, DWORD PTR ___$ReturnUdt$[esp-4]
  00007	89 08		 mov	 DWORD PTR [eax], ecx

; 419  : 		}

  00009	c2 04 00	 ret	 4
?end@?$_Tree@V?$_Tmap_traits@KPAVCMailBox@@U?$less@K@std@@V?$allocator@U?$pair@$$CBKPAVCMailBox@@@std@@@3@$0A@@std@@@std@@QAE?AViterator@12@XZ ENDP ; std::_Tree<std::_Tmap_traits<unsigned long,CMailBox *,std::less<unsigned long>,std::allocator<std::pair<unsigned long const ,CMailBox *> >,0> >::end
_TEXT	ENDS
PUBLIC	??Citerator@?$_Tree@V?$_Tmap_traits@KPAVCMailBox@@U?$less@K@std@@V?$allocator@U?$pair@$$CBKPAVCMailBox@@@std@@@3@$0A@@std@@@std@@QBEPAU?$pair@$$CBKPAVCMailBox@@@2@XZ ; std::_Tree<std::_Tmap_traits<unsigned long,CMailBox *,std::less<unsigned long>,std::allocator<std::pair<unsigned long const ,CMailBox *> >,0> >::iterator::operator->
; Function compile flags: /Ogty
;	COMDAT ??Citerator@?$_Tree@V?$_Tmap_traits@KPAVCMailBox@@U?$less@K@std@@V?$allocator@U?$pair@$$CBKPAVCMailBox@@@std@@@3@$0A@@std@@@std@@QBEPAU?$pair@$$CBKPAVCMailBox@@@2@XZ
_TEXT	SEGMENT
??Citerator@?$_Tree@V?$_Tmap_traits@KPAVCMailBox@@U?$less@K@std@@V?$allocator@U?$pair@$$CBKPAVCMailBox@@@std@@@3@$0A@@std@@@std@@QBEPAU?$pair@$$CBKPAVCMailBox@@@2@XZ PROC NEAR ; std::_Tree<std::_Tmap_traits<unsigned long,CMailBox *,std::less<unsigned long>,std::allocator<std::pair<unsigned long const ,CMailBox *> >,0> >::iterator::operator->, COMDAT
; _this$ = ecx

; 322  : 			return (&**this);

  00000	8b 01		 mov	 eax, DWORD PTR [ecx]
  00002	83 c0 0c	 add	 eax, 12			; 0000000cH

; 323  : 			}

  00005	c3		 ret	 0
??Citerator@?$_Tree@V?$_Tmap_traits@KPAVCMailBox@@U?$less@K@std@@V?$allocator@U?$pair@$$CBKPAVCMailBox@@@std@@@3@$0A@@std@@@std@@QBEPAU?$pair@$$CBKPAVCMailBox@@@2@XZ ENDP ; std::_Tree<std::_Tmap_traits<unsigned long,CMailBox *,std::less<unsigned long>,std::allocator<std::pair<unsigned long const ,CMailBox *> >,0> >::iterator::operator->
_TEXT	ENDS
PUBLIC	?_Destroy@?$vector@PAVCMail@@V?$allocator@PAVCMail@@@std@@@std@@IAEXPAPAVCMail@@0@Z ; std::vector<CMail *,std::allocator<CMail *> >::_Destroy
; Function compile flags: /Ogty
; File c:\program files\microsoft visual studio .net 2003\vc7\include\vector
;	COMDAT ?_Destroy@?$vector@PAVCMail@@V?$allocator@PAVCMail@@@std@@@std@@IAEXPAPAVCMail@@0@Z
_TEXT	SEGMENT
__First$ = 8						; size = 4
__Last$ = 12						; size = 4
?_Destroy@?$vector@PAVCMail@@V?$allocator@PAVCMail@@@std@@@std@@IAEXPAPAVCMail@@0@Z PROC NEAR ; std::vector<CMail *,std::allocator<CMail *> >::_Destroy, COMDAT
; _this$ = ecx

; 787  : 		_Destroy_range(_First, _Last, this->_Alval);
; 788  : 		}

  00000	c2 08 00	 ret	 8
?_Destroy@?$vector@PAVCMail@@V?$allocator@PAVCMail@@@std@@@std@@IAEXPAPAVCMail@@0@Z ENDP ; std::vector<CMail *,std::allocator<CMail *> >::_Destroy
_TEXT	ENDS
PUBLIC	?_Tidy@?$vector@PAVCMail@@V?$allocator@PAVCMail@@@std@@@std@@IAEXXZ ; std::vector<CMail *,std::allocator<CMail *> >::_Tidy
; Function compile flags: /Ogty
;	COMDAT ?_Tidy@?$vector@PAVCMail@@V?$allocator@PAVCMail@@@std@@@std@@IAEXXZ
_TEXT	SEGMENT
?_Tidy@?$vector@PAVCMail@@V?$allocator@PAVCMail@@@std@@@std@@IAEXXZ PROC NEAR ; std::vector<CMail *,std::allocator<CMail *> >::_Tidy, COMDAT
; _this$ = ecx

; 791  : 		{	// free all storage

  00000	56		 push	 esi
  00001	8b f1		 mov	 esi, ecx

; 792  : 		if (_Myfirst != 0)

  00003	8b 46 04	 mov	 eax, DWORD PTR [esi+4]
  00006	85 c0		 test	 eax, eax
  00008	74 09		 je	 SHORT $L230713

; 793  : 			{	// something to free, destroy and deallocate it
; 794  : 			_Destroy(_Myfirst, _Mylast);
; 795  : 			this->_Alval.deallocate(_Myfirst, _Myend - _Myfirst);

  0000a	50		 push	 eax
  0000b	e8 00 00 00 00	 call	 ??3@YAXPAX@Z		; operator delete
  00010	83 c4 04	 add	 esp, 4
$L230713:

; 796  : 			}
; 797  : 		_Myfirst = 0, _Mylast = 0, _Myend = 0;

  00013	c7 46 04 00 00
	00 00		 mov	 DWORD PTR [esi+4], 0
  0001a	c7 46 08 00 00
	00 00		 mov	 DWORD PTR [esi+8], 0
  00021	c7 46 0c 00 00
	00 00		 mov	 DWORD PTR [esi+12], 0
  00028	5e		 pop	 esi

; 798  : 		}

  00029	c3		 ret	 0
?_Tidy@?$vector@PAVCMail@@V?$allocator@PAVCMail@@@std@@@std@@IAEXXZ ENDP ; std::vector<CMail *,std::allocator<CMail *> >::_Tidy
_TEXT	ENDS
PUBLIC	?lower_bound@?$_Tree@V?$_Tmap_traits@KPAVCMailBox@@U?$less@K@std@@V?$allocator@U?$pair@$$CBKPAVCMailBox@@@std@@@3@$0A@@std@@@std@@QAE?AViterator@12@ABK@Z ; std::_Tree<std::_Tmap_traits<unsigned long,CMailBox *,std::less<unsigned long>,std::allocator<std::pair<unsigned long const ,CMailBox *> >,0> >::lower_bound
; Function compile flags: /Ogty
; File c:\program files\microsoft visual studio .net 2003\vc7\include\xtree
;	COMDAT ?lower_bound@?$_Tree@V?$_Tmap_traits@KPAVCMailBox@@U?$less@K@std@@V?$allocator@U?$pair@$$CBKPAVCMailBox@@@std@@@3@$0A@@std@@@std@@QAE?AViterator@12@ABK@Z
_TEXT	SEGMENT
___$ReturnUdt$ = 8					; size = 4
__Keyval$ = 12						; size = 4
?lower_bound@?$_Tree@V?$_Tmap_traits@KPAVCMailBox@@U?$less@K@std@@V?$allocator@U?$pair@$$CBKPAVCMailBox@@@std@@@3@$0A@@std@@@std@@QAE?AViterator@12@ABK@Z PROC NEAR ; std::_Tree<std::_Tmap_traits<unsigned long,CMailBox *,std::less<unsigned long>,std::allocator<std::pair<unsigned long const ,CMailBox *> >,0> >::lower_bound, COMDAT
; _this$ = ecx

; 810  : 		return (_TREE_ITERATOR(_Lbound(_Keyval)));

  00000	8b 49 04	 mov	 ecx, DWORD PTR [ecx+4]
  00003	8b 41 04	 mov	 eax, DWORD PTR [ecx+4]
  00006	8a 50 15	 mov	 dl, BYTE PTR [eax+21]
  00009	84 d2		 test	 dl, dl
  0000b	75 1d		 jne	 SHORT $L230789
  0000d	8b 54 24 08	 mov	 edx, DWORD PTR __Keyval$[esp-4]
  00011	8b 12		 mov	 edx, DWORD PTR [edx]
  00013	53		 push	 ebx
$L230757:
  00014	39 50 0c	 cmp	 DWORD PTR [eax+12], edx
  00017	73 05		 jae	 SHORT $L230759
  00019	8b 40 08	 mov	 eax, DWORD PTR [eax+8]
  0001c	eb 04		 jmp	 SHORT $L230760
$L230759:
  0001e	8b c8		 mov	 ecx, eax
  00020	8b 00		 mov	 eax, DWORD PTR [eax]
$L230760:
  00022	8a 58 15	 mov	 bl, BYTE PTR [eax+21]
  00025	84 db		 test	 bl, bl
  00027	74 eb		 je	 SHORT $L230757
  00029	5b		 pop	 ebx
$L230789:
  0002a	8b 44 24 04	 mov	 eax, DWORD PTR ___$ReturnUdt$[esp-4]
  0002e	89 08		 mov	 DWORD PTR [eax], ecx

; 811  : 		}

  00030	c2 08 00	 ret	 8
?lower_bound@?$_Tree@V?$_Tmap_traits@KPAVCMailBox@@U?$less@K@std@@V?$allocator@U?$pair@$$CBKPAVCMailBox@@@std@@@3@$0A@@std@@@std@@QAE?AViterator@12@ABK@Z ENDP ; std::_Tree<std::_Tmap_traits<unsigned long,CMailBox *,std::less<unsigned long>,std::allocator<std::pair<unsigned long const ,CMailBox *> >,0> >::lower_bound
_TEXT	ENDS
PUBLIC	?_Erase@?$_Tree@V?$_Tmap_traits@KPAVCMailBox@@U?$less@K@std@@V?$allocator@U?$pair@$$CBKPAVCMailBox@@@std@@@3@$0A@@std@@@std@@IAEXPAU_Node@?$_Tree_nod@V?$_Tmap_traits@KPAVCMailBox@@U?$less@K@std@@V?$allocator@U?$pair@$$CBKPAVCMailBox@@@std@@@3@$0A@@std@@@2@@Z ; std::_Tree<std::_Tmap_traits<unsigned long,CMailBox *,std::less<unsigned long>,std::allocator<std::pair<unsigned long const ,CMailBox *> >,0> >::_Erase
; Function compile flags: /Ogty
;	COMDAT ?_Erase@?$_Tree@V?$_Tmap_traits@KPAVCMailBox@@U?$less@K@std@@V?$allocator@U?$pair@$$CBKPAVCMailBox@@@std@@@3@$0A@@std@@@std@@IAEXPAU_Node@?$_Tree_nod@V?$_Tmap_traits@KPAVCMailBox@@U?$less@K@std@@V?$allocator@U?$pair@$$CBKPAVCMailBox@@@std@@@3@$0A@@std@@@2@@Z
_TEXT	SEGMENT
__Rootnode$ = 8						; size = 4
?_Erase@?$_Tree@V?$_Tmap_traits@KPAVCMailBox@@U?$less@K@std@@V?$allocator@U?$pair@$$CBKPAVCMailBox@@@std@@@3@$0A@@std@@@std@@IAEXPAU_Node@?$_Tree_nod@V?$_Tmap_traits@KPAVCMailBox@@U?$less@K@std@@V?$allocator@U?$pair@$$CBKPAVCMailBox@@@std@@@3@$0A@@std@@@2@@Z PROC NEAR ; std::_Tree<std::_Tmap_traits<unsigned long,CMailBox *,std::less<unsigned long>,std::allocator<std::pair<unsigned long const ,CMailBox *> >,0> >::_Erase, COMDAT
; _this$ = ecx

; 890  : 		{	// free entire subtree, recursively

  00000	53		 push	 ebx
  00001	56		 push	 esi
  00002	57		 push	 edi

; 891  : 		for (_Nodeptr _Pnode = _Rootnode; !_Isnil(_Pnode); _Rootnode = _Pnode)

  00003	8b 7c 24 10	 mov	 edi, DWORD PTR __Rootnode$[esp+8]
  00007	8a 47 15	 mov	 al, BYTE PTR [edi+21]
  0000a	84 c0		 test	 al, al
  0000c	8b d9		 mov	 ebx, ecx
  0000e	8b f7		 mov	 esi, edi
  00010	75 1f		 jne	 SHORT $L227407
$L227405:

; 892  : 			{	// free subtrees, then node
; 893  : 			_Erase(_Right(_Pnode));

  00012	8b 46 08	 mov	 eax, DWORD PTR [esi+8]
  00015	50		 push	 eax
  00016	8b cb		 mov	 ecx, ebx
  00018	e8 00 00 00 00	 call	 ?_Erase@?$_Tree@V?$_Tmap_traits@KPAVCMailBox@@U?$less@K@std@@V?$allocator@U?$pair@$$CBKPAVCMailBox@@@std@@@3@$0A@@std@@@std@@IAEXPAU_Node@?$_Tree_nod@V?$_Tmap_traits@KPAVCMailBox@@U?$less@K@std@@V?$allocator@U?$pair@$$CBKPAVCMailBox@@@std@@@3@$0A@@std@@@2@@Z ; std::_Tree<std::_Tmap_traits<unsigned long,CMailBox *,std::less<unsigned long>,std::allocator<std::pair<unsigned long const ,CMailBox *> >,0> >::_Erase

; 894  : 			_Pnode = _Left(_Pnode);

  0001d	8b 36		 mov	 esi, DWORD PTR [esi]

; 895  : 			this->_Alnod.destroy(_Rootnode);	// destroy, free erased node
; 896  : 			this->_Alnod.deallocate(_Rootnode, 1);

  0001f	57		 push	 edi
  00020	e8 00 00 00 00	 call	 ??3@YAXPAX@Z		; operator delete
  00025	8a 46 15	 mov	 al, BYTE PTR [esi+21]
  00028	83 c4 04	 add	 esp, 4
  0002b	84 c0		 test	 al, al
  0002d	8b fe		 mov	 edi, esi
  0002f	74 e1		 je	 SHORT $L227405
$L227407:
  00031	5f		 pop	 edi
  00032	5e		 pop	 esi
  00033	5b		 pop	 ebx

; 897  : 			}
; 898  : 		}

  00034	c2 04 00	 ret	 4
?_Erase@?$_Tree@V?$_Tmap_traits@KPAVCMailBox@@U?$less@K@std@@V?$allocator@U?$pair@$$CBKPAVCMailBox@@@std@@@3@$0A@@std@@@std@@IAEXPAU_Node@?$_Tree_nod@V?$_Tmap_traits@KPAVCMailBox@@U?$less@K@std@@V?$allocator@U?$pair@$$CBKPAVCMailBox@@@std@@@3@$0A@@std@@@2@@Z ENDP ; std::_Tree<std::_Tmap_traits<unsigned long,CMailBox *,std::less<unsigned long>,std::allocator<std::pair<unsigned long const ,CMailBox *> >,0> >::_Erase
_TEXT	ENDS
PUBLIC	??Econst_iterator@?$_Tree@V?$_Tmap_traits@KPAVCMailBox@@U?$less@K@std@@V?$allocator@U?$pair@$$CBKPAVCMailBox@@@std@@@3@$0A@@std@@@std@@QAEAAV012@XZ ; std::_Tree<std::_Tmap_traits<unsigned long,CMailBox *,std::less<unsigned long>,std::allocator<std::pair<unsigned long const ,CMailBox *> >,0> >::const_iterator::operator++
; Function compile flags: /Ogty
;	COMDAT ??Econst_iterator@?$_Tree@V?$_Tmap_traits@KPAVCMailBox@@U?$less@K@std@@V?$allocator@U?$pair@$$CBKPAVCMailBox@@@std@@@3@$0A@@std@@@std@@QAEAAV012@XZ
_TEXT	SEGMENT
??Econst_iterator@?$_Tree@V?$_Tmap_traits@KPAVCMailBox@@U?$less@K@std@@V?$allocator@U?$pair@$$CBKPAVCMailBox@@@std@@@3@$0A@@std@@@std@@QAEAAV012@XZ PROC NEAR ; std::_Tree<std::_Tmap_traits<unsigned long,CMailBox *,std::less<unsigned long>,std::allocator<std::pair<unsigned long const ,CMailBox *> >,0> >::const_iterator::operator++, COMDAT
; _this$ = ecx

; 214  : 			{	// preincrement

  00000	56		 push	 esi
  00001	8b f1		 mov	 esi, ecx

; 215  : 			_Inc();

  00003	e8 00 00 00 00	 call	 ?_Inc@const_iterator@?$_Tree@V?$_Tmap_traits@KPAVCMailBox@@U?$less@K@std@@V?$allocator@U?$pair@$$CBKPAVCMailBox@@@std@@@3@$0A@@std@@@std@@QAEXXZ ; std::_Tree<std::_Tmap_traits<unsigned long,CMailBox *,std::less<unsigned long>,std::allocator<std::pair<unsigned long const ,CMailBox *> >,0> >::const_iterator::_Inc

; 216  : 			return (*this);

  00008	8b c6		 mov	 eax, esi
  0000a	5e		 pop	 esi

; 217  : 			}

  0000b	c3		 ret	 0
??Econst_iterator@?$_Tree@V?$_Tmap_traits@KPAVCMailBox@@U?$less@K@std@@V?$allocator@U?$pair@$$CBKPAVCMailBox@@@std@@@3@$0A@@std@@@std@@QAEAAV012@XZ ENDP ; std::_Tree<std::_Tmap_traits<unsigned long,CMailBox *,std::less<unsigned long>,std::allocator<std::pair<unsigned long const ,CMailBox *> >,0> >::const_iterator::operator++
_TEXT	ENDS
PUBLIC	?_Buynode@?$_Tree@V?$_Tmap_traits@KPAVCMailBox@@U?$less@K@std@@V?$allocator@U?$pair@$$CBKPAVCMailBox@@@std@@@3@$0A@@std@@@std@@IAEPAU_Node@?$_Tree_nod@V?$_Tmap_traits@KPAVCMailBox@@U?$less@K@std@@V?$allocator@U?$pair@$$CBKPAVCMailBox@@@std@@@3@$0A@@std@@@2@PAU342@00ABU?$pair@$$CBKPAVCMailBox@@@2@D@Z ; std::_Tree<std::_Tmap_traits<unsigned long,CMailBox *,std::less<unsigned long>,std::allocator<std::pair<unsigned long const ,CMailBox *> >,0> >::_Buynode
EXTRN	__CxxThrowException@8:NEAR
; Function compile flags: /Ogty
;	COMDAT ?_Buynode@?$_Tree@V?$_Tmap_traits@KPAVCMailBox@@U?$less@K@std@@V?$allocator@U?$pair@$$CBKPAVCMailBox@@@std@@@3@$0A@@std@@@std@@IAEPAU_Node@?$_Tree_nod@V?$_Tmap_traits@KPAVCMailBox@@U?$less@K@std@@V?$allocator@U?$pair@$$CBKPAVCMailBox@@@std@@@3@$0A@@std@@@2@PAU342@00ABU?$pair@$$CBKPAVCMailBox@@@2@D@Z
_TEXT	SEGMENT
__Larg$ = 8						; size = 4
__Parg$ = 12						; size = 4
__Rarg$ = 16						; size = 4
__Val$ = 20						; size = 4
__Carg$ = 24						; size = 1
?_Buynode@?$_Tree@V?$_Tmap_traits@KPAVCMailBox@@U?$less@K@std@@V?$allocator@U?$pair@$$CBKPAVCMailBox@@@std@@@3@$0A@@std@@@std@@IAEPAU_Node@?$_Tree_nod@V?$_Tmap_traits@KPAVCMailBox@@U?$less@K@std@@V?$allocator@U?$pair@$$CBKPAVCMailBox@@@std@@@3@$0A@@std@@@2@PAU342@00ABU?$pair@$$CBKPAVCMailBox@@@2@D@Z PROC NEAR ; std::_Tree<std::_Tmap_traits<unsigned long,CMailBox *,std::less<unsigned long>,std::allocator<std::pair<unsigned long const ,CMailBox *> >,0> >::_Buynode, COMDAT
; _this$ = ecx

; 1131 : 		_Nodeptr _Wherenode = this->_Alnod.allocate(1);

  00000	6a 18		 push	 24			; 00000018H
  00002	e8 00 00 00 00	 call	 ??2@YAPAXI@Z		; operator new
  00007	83 c4 04	 add	 esp, 4

; 1132 : 		_TRY_BEGIN
; 1133 : 		new (_Wherenode) _Node(_Larg, _Parg, _Rarg, _Val, _Carg);

  0000a	85 c0		 test	 eax, eax
  0000c	74 2e		 je	 SHORT $L230815
  0000e	8b 4c 24 04	 mov	 ecx, DWORD PTR __Larg$[esp-4]
  00012	8b 54 24 08	 mov	 edx, DWORD PTR __Parg$[esp-4]
  00016	89 08		 mov	 DWORD PTR [eax], ecx
  00018	8b 4c 24 0c	 mov	 ecx, DWORD PTR __Rarg$[esp-4]
  0001c	89 48 08	 mov	 DWORD PTR [eax+8], ecx
  0001f	8b 4c 24 10	 mov	 ecx, DWORD PTR __Val$[esp-4]
  00023	89 50 04	 mov	 DWORD PTR [eax+4], edx
  00026	8b 11		 mov	 edx, DWORD PTR [ecx]
  00028	89 50 0c	 mov	 DWORD PTR [eax+12], edx
  0002b	8b 49 04	 mov	 ecx, DWORD PTR [ecx+4]
  0002e	8a 54 24 14	 mov	 dl, BYTE PTR __Carg$[esp-4]
  00032	89 48 10	 mov	 DWORD PTR [eax+16], ecx
  00035	88 50 14	 mov	 BYTE PTR [eax+20], dl
  00038	c6 40 15 00	 mov	 BYTE PTR [eax+21], 0
$L230815:

; 1134 : 		_CATCH_ALL
; 1135 : 		this->_Alnod.deallocate(_Wherenode, 1);
; 1136 : 		_RERAISE;
; 1137 : 		_CATCH_END
; 1138 : 		return (_Wherenode);
; 1139 : 		}

  0003c	c2 14 00	 ret	 20			; 00000014H
?_Buynode@?$_Tree@V?$_Tmap_traits@KPAVCMailBox@@U?$less@K@std@@V?$allocator@U?$pair@$$CBKPAVCMailBox@@@std@@@3@$0A@@std@@@std@@IAEPAU_Node@?$_Tree_nod@V?$_Tmap_traits@KPAVCMailBox@@U?$less@K@std@@V?$allocator@U?$pair@$$CBKPAVCMailBox@@@std@@@3@$0A@@std@@@2@PAU342@00ABU?$pair@$$CBKPAVCMailBox@@@2@D@Z ENDP ; std::_Tree<std::_Tmap_traits<unsigned long,CMailBox *,std::less<unsigned long>,std::allocator<std::pair<unsigned long const ,CMailBox *> >,0> >::_Buynode
_TEXT	ENDS
PUBLIC	??Fconst_iterator@?$_Tree@V?$_Tmap_traits@KPAVCMailBox@@U?$less@K@std@@V?$allocator@U?$pair@$$CBKPAVCMailBox@@@std@@@3@$0A@@std@@@std@@QAEAAV012@XZ ; std::_Tree<std::_Tmap_traits<unsigned long,CMailBox *,std::less<unsigned long>,std::allocator<std::pair<unsigned long const ,CMailBox *> >,0> >::const_iterator::operator--
; Function compile flags: /Ogty
;	COMDAT ??Fconst_iterator@?$_Tree@V?$_Tmap_traits@KPAVCMailBox@@U?$less@K@std@@V?$allocator@U?$pair@$$CBKPAVCMailBox@@@std@@@3@$0A@@std@@@std@@QAEAAV012@XZ
_TEXT	SEGMENT
??Fconst_iterator@?$_Tree@V?$_Tmap_traits@KPAVCMailBox@@U?$less@K@std@@V?$allocator@U?$pair@$$CBKPAVCMailBox@@@std@@@3@$0A@@std@@@std@@QAEAAV012@XZ PROC NEAR ; std::_Tree<std::_Tmap_traits<unsigned long,CMailBox *,std::less<unsigned long>,std::allocator<std::pair<unsigned long const ,CMailBox *> >,0> >::const_iterator::operator--, COMDAT
; _this$ = ecx

; 227  : 			{	// predecrement

  00000	56		 push	 esi
  00001	8b f1		 mov	 esi, ecx

; 228  : 			_Dec();

  00003	e8 00 00 00 00	 call	 ?_Dec@const_iterator@?$_Tree@V?$_Tmap_traits@KPAVCMailBox@@U?$less@K@std@@V?$allocator@U?$pair@$$CBKPAVCMailBox@@@std@@@3@$0A@@std@@@std@@QAEXXZ ; std::_Tree<std::_Tmap_traits<unsigned long,CMailBox *,std::less<unsigned long>,std::allocator<std::pair<unsigned long const ,CMailBox *> >,0> >::const_iterator::_Dec

; 229  : 			return (*this);

  00008	8b c6		 mov	 eax, esi
  0000a	5e		 pop	 esi

; 230  : 			}

  0000b	c3		 ret	 0
??Fconst_iterator@?$_Tree@V?$_Tmap_traits@KPAVCMailBox@@U?$less@K@std@@V?$allocator@U?$pair@$$CBKPAVCMailBox@@@std@@@3@$0A@@std@@@std@@QAEAAV012@XZ ENDP ; std::_Tree<std::_Tmap_traits<unsigned long,CMailBox *,std::less<unsigned long>,std::allocator<std::pair<unsigned long const ,CMailBox *> >,0> >::const_iterator::operator--
_TEXT	ENDS
PUBLIC	?_Buynode@?$_Tree@V?$_Tmap_traits@KPAVCMailBox@@U?$less@K@std@@V?$allocator@U?$pair@$$CBKPAVCMailBox@@@std@@@3@$0A@@std@@@std@@IAEPAU_Node@?$_Tree_nod@V?$_Tmap_traits@KPAVCMailBox@@U?$less@K@std@@V?$allocator@U?$pair@$$CBKPAVCMailBox@@@std@@@3@$0A@@std@@@2@XZ ; std::_Tree<std::_Tmap_traits<unsigned long,CMailBox *,std::less<unsigned long>,std::allocator<std::pair<unsigned long const ,CMailBox *> >,0> >::_Buynode
; Function compile flags: /Ogty
;	COMDAT ?_Buynode@?$_Tree@V?$_Tmap_traits@KPAVCMailBox@@U?$less@K@std@@V?$allocator@U?$pair@$$CBKPAVCMailBox@@@std@@@3@$0A@@std@@@std@@IAEPAU_Node@?$_Tree_nod@V?$_Tmap_traits@KPAVCMailBox@@U?$less@K@std@@V?$allocator@U?$pair@$$CBKPAVCMailBox@@@std@@@3@$0A@@std@@@2@XZ
_TEXT	SEGMENT
?_Buynode@?$_Tree@V?$_Tmap_traits@KPAVCMailBox@@U?$less@K@std@@V?$allocator@U?$pair@$$CBKPAVCMailBox@@@std@@@3@$0A@@std@@@std@@IAEPAU_Node@?$_Tree_nod@V?$_Tmap_traits@KPAVCMailBox@@U?$less@K@std@@V?$allocator@U?$pair@$$CBKPAVCMailBox@@@std@@@3@$0A@@std@@@2@XZ PROC NEAR ; std::_Tree<std::_Tmap_traits<unsigned long,CMailBox *,std::less<unsigned long>,std::allocator<std::pair<unsigned long const ,CMailBox *> >,0> >::_Buynode, COMDAT
; _this$ = ecx

; 1106 : 		_Nodeptr _Wherenode = this->_Alnod.allocate(1);

  00000	6a 18		 push	 24			; 00000018H
  00002	e8 00 00 00 00	 call	 ??2@YAPAXI@Z		; operator new
  00007	83 c4 04	 add	 esp, 4

; 1107 : 		int _Linkcnt = 0;
; 1108 : 
; 1109 : 		_TRY_BEGIN
; 1110 : 		this->_Alptr.construct(&_Left(_Wherenode), 0);

  0000a	85 c0		 test	 eax, eax
  0000c	74 06		 je	 SHORT $L230881
  0000e	c7 00 00 00 00
	00		 mov	 DWORD PTR [eax], 0
$L230881:

; 1111 : 		++_Linkcnt;
; 1112 : 		this->_Alptr.construct(&_Parent(_Wherenode), 0);

  00014	8d 48 04	 lea	 ecx, DWORD PTR [eax+4]
  00017	85 c9		 test	 ecx, ecx
  00019	74 06		 je	 SHORT $L230909
  0001b	c7 01 00 00 00
	00		 mov	 DWORD PTR [ecx], 0
$L230909:

; 1113 : 		++_Linkcnt;
; 1114 : 		this->_Alptr.construct(&_Right(_Wherenode), 0);

  00021	8d 48 08	 lea	 ecx, DWORD PTR [eax+8]
  00024	85 c9		 test	 ecx, ecx
  00026	74 06		 je	 SHORT $L230936
  00028	c7 01 00 00 00
	00		 mov	 DWORD PTR [ecx], 0
$L230936:

; 1115 : 		_CATCH_ALL
; 1116 : 		if (1 < _Linkcnt)
; 1117 : 			this->_Alptr.destroy(&_Parent(_Wherenode));
; 1118 : 		if (0 < _Linkcnt)
; 1119 : 			this->_Alptr.destroy(&_Left(_Wherenode));
; 1120 : 		this->_Alnod.deallocate(_Wherenode, 1);
; 1121 : 		_RERAISE;
; 1122 : 		_CATCH_END
; 1123 : 		_Color(_Wherenode) = _Black;

  0002e	c6 40 14 01	 mov	 BYTE PTR [eax+20], 1

; 1124 : 		_Isnil(_Wherenode) = false;

  00032	c6 40 15 00	 mov	 BYTE PTR [eax+21], 0

; 1125 : 		return (_Wherenode);
; 1126 : 		}

  00036	c3		 ret	 0
?_Buynode@?$_Tree@V?$_Tmap_traits@KPAVCMailBox@@U?$less@K@std@@V?$allocator@U?$pair@$$CBKPAVCMailBox@@@std@@@3@$0A@@std@@@std@@IAEPAU_Node@?$_Tree_nod@V?$_Tmap_traits@KPAVCMailBox@@U?$less@K@std@@V?$allocator@U?$pair@$$CBKPAVCMailBox@@@std@@@3@$0A@@std@@@2@XZ ENDP ; std::_Tree<std::_Tmap_traits<unsigned long,CMailBox *,std::less<unsigned long>,std::allocator<std::pair<unsigned long const ,CMailBox *> >,0> >::_Buynode
_TEXT	ENDS
PUBLIC	??0?$_Tree_ptr@V?$_Tmap_traits@KPAVCMailBox@@U?$less@K@std@@V?$allocator@U?$pair@$$CBKPAVCMailBox@@@std@@@3@$0A@@std@@@std@@IAE@ABU?$less@K@1@V?$allocator@U?$pair@$$CBKPAVCMailBox@@@std@@@1@@Z ; std::_Tree_ptr<std::_Tmap_traits<unsigned long,CMailBox *,std::less<unsigned long>,std::allocator<std::pair<unsigned long const ,CMailBox *> >,0> >::_Tree_ptr<std::_Tmap_traits<unsigned long,CMailBox *,std::less<unsigned long>,std::allocator<std::pair<unsigned long const ,CMailBox *> >,0> >
; Function compile flags: /Ogty
;	COMDAT ??0?$_Tree_ptr@V?$_Tmap_traits@KPAVCMailBox@@U?$less@K@std@@V?$allocator@U?$pair@$$CBKPAVCMailBox@@@std@@@3@$0A@@std@@@std@@IAE@ABU?$less@K@1@V?$allocator@U?$pair@$$CBKPAVCMailBox@@@std@@@1@@Z
_TEXT	SEGMENT
__Parg$ = 8						; size = 4
__Al$ = 12						; size = 1
??0?$_Tree_ptr@V?$_Tmap_traits@KPAVCMailBox@@U?$less@K@std@@V?$allocator@U?$pair@$$CBKPAVCMailBox@@@std@@@3@$0A@@std@@@std@@IAE@ABU?$less@K@1@V?$allocator@U?$pair@$$CBKPAVCMailBox@@@std@@@1@@Z PROC NEAR ; std::_Tree_ptr<std::_Tmap_traits<unsigned long,CMailBox *,std::less<unsigned long>,std::allocator<std::pair<unsigned long const ,CMailBox *> >,0> >::_Tree_ptr<std::_Tmap_traits<unsigned long,CMailBox *,std::less<unsigned long>,std::allocator<std::pair<unsigned long const ,CMailBox *> >,0> >, COMDAT
; _this$ = ecx

; 76   : 		{	// construct base, and allocator from _Al

  00000	8b c1		 mov	 eax, ecx

; 77   : 		}

  00002	c2 08 00	 ret	 8
??0?$_Tree_ptr@V?$_Tmap_traits@KPAVCMailBox@@U?$less@K@std@@V?$allocator@U?$pair@$$CBKPAVCMailBox@@@std@@@3@$0A@@std@@@std@@IAE@ABU?$less@K@1@V?$allocator@U?$pair@$$CBKPAVCMailBox@@@std@@@1@@Z ENDP ; std::_Tree_ptr<std::_Tmap_traits<unsigned long,CMailBox *,std::less<unsigned long>,std::allocator<std::pair<unsigned long const ,CMailBox *> >,0> >::_Tree_ptr<std::_Tmap_traits<unsigned long,CMailBox *,std::less<unsigned long>,std::allocator<std::pair<unsigned long const ,CMailBox *> >,0> >
_TEXT	ENDS
PUBLIC	??$_Uninitialized_fill_n@PAPAVCMail@@IPAV1@V?$allocator@PAVCMail@@@std@@@std@@YAXPAPAVCMail@@IABQAV1@AAV?$allocator@PAVCMail@@@0@@Z ; std::_Uninitialized_fill_n<CMail * *,unsigned int,CMail *,std::allocator<CMail *> >
; Function compile flags: /Ogty
; File c:\program files\microsoft visual studio .net 2003\vc7\include\memory
;	COMDAT ??$_Uninitialized_fill_n@PAPAVCMail@@IPAV1@V?$allocator@PAVCMail@@@std@@@std@@YAXPAPAVCMail@@IABQAV1@AAV?$allocator@PAVCMail@@@0@@Z
_TEXT	SEGMENT
__First$ = 8						; size = 4
__Count$ = 12						; size = 4
__Val$ = 16						; size = 4
__Al$ = 20						; size = 4
??$_Uninitialized_fill_n@PAPAVCMail@@IPAV1@V?$allocator@PAVCMail@@@std@@@std@@YAXPAPAVCMail@@IABQAV1@AAV?$allocator@PAVCMail@@@0@@Z PROC NEAR ; std::_Uninitialized_fill_n<CMail * *,unsigned int,CMail *,std::allocator<CMail *> >, COMDAT

; 256  : 	_Uninit_fill_n(_First, _Count, _Val, _Al,
; 257  : 		_Ptr_cat(_First, _First));

  00000	8b 4c 24 08	 mov	 ecx, DWORD PTR __Count$[esp-4]
  00004	85 c9		 test	 ecx, ecx
  00006	8b 44 24 04	 mov	 eax, DWORD PTR __First$[esp-4]
  0000a	76 10		 jbe	 SHORT $L231005
  0000c	8b 54 24 0c	 mov	 edx, DWORD PTR __Val$[esp-4]
  00010	56		 push	 esi
$L231003:
  00011	8b 32		 mov	 esi, DWORD PTR [edx]
  00013	89 30		 mov	 DWORD PTR [eax], esi
  00015	83 c0 04	 add	 eax, 4
  00018	49		 dec	 ecx
  00019	75 f6		 jne	 SHORT $L231003
  0001b	5e		 pop	 esi
$L231005:

; 258  : 	}

  0001c	c3		 ret	 0
??$_Uninitialized_fill_n@PAPAVCMail@@IPAV1@V?$allocator@PAVCMail@@@std@@@std@@YAXPAPAVCMail@@IABQAV1@AAV?$allocator@PAVCMail@@@0@@Z ENDP ; std::_Uninitialized_fill_n<CMail * *,unsigned int,CMail *,std::allocator<CMail *> >
_TEXT	ENDS
PUBLIC	??$_Ucopy@PAPAVCMail@@@?$vector@PAVCMail@@V?$allocator@PAVCMail@@@std@@@std@@IAEPAPAVCMail@@PAPAV2@00@Z ; std::vector<CMail *,std::allocator<CMail *> >::_Ucopy<CMail * *>
; Function compile flags: /Ogty
; File c:\program files\microsoft visual studio .net 2003\vc7\include\vector
;	COMDAT ??$_Ucopy@PAPAVCMail@@@?$vector@PAVCMail@@V?$allocator@PAVCMail@@@std@@@std@@IAEPAPAVCMail@@PAPAV2@00@Z
_TEXT	SEGMENT
__First$ = 8						; size = 4
__Last$ = 12						; size = 4
__Ptr$ = 16						; size = 4
??$_Ucopy@PAPAVCMail@@@?$vector@PAVCMail@@V?$allocator@PAVCMail@@@std@@@std@@IAEPAPAVCMail@@PAPAV2@00@Z PROC NEAR ; std::vector<CMail *,std::allocator<CMail *> >::_Ucopy<CMail * *>, COMDAT
; _this$ = ecx

; 802  : 		{	// copy initializing [_First, _Last), using allocator
; 803  : 		return (_Uninitialized_copy(_First, _Last,
; 804  : 			_Ptr, this->_Alval));

  00000	8b 4c 24 04	 mov	 ecx, DWORD PTR __First$[esp-4]
  00004	8b 44 24 08	 mov	 eax, DWORD PTR __Last$[esp-4]
  00008	2b c1		 sub	 eax, ecx
  0000a	56		 push	 esi
  0000b	c1 f8 02	 sar	 eax, 2
  0000e	8d 34 85 00 00
	00 00		 lea	 esi, DWORD PTR [eax*4]
  00015	8b 44 24 10	 mov	 eax, DWORD PTR __Ptr$[esp]
  00019	56		 push	 esi
  0001a	51		 push	 ecx
  0001b	50		 push	 eax
  0001c	e8 00 00 00 00	 call	 _memmove
  00021	83 c4 0c	 add	 esp, 12			; 0000000cH
  00024	03 c6		 add	 eax, esi
  00026	5e		 pop	 esi

; 805  : 		}

  00027	c2 0c 00	 ret	 12			; 0000000cH
??$_Ucopy@PAPAVCMail@@@?$vector@PAVCMail@@V?$allocator@PAVCMail@@@std@@@std@@IAEPAPAVCMail@@PAPAV2@00@Z ENDP ; std::vector<CMail *,std::allocator<CMail *> >::_Ucopy<CMail * *>
_TEXT	ENDS
PUBLIC	??0COleDateTimeSpan@ATL@@QAE@JHHH@Z		; ATL::COleDateTimeSpan::COleDateTimeSpan
; Function compile flags: /Ogty
; File c:\program files\microsoft visual studio .net 2003\vc7\atlmfc\include\atlcomtime.inl
;	COMDAT ??0COleDateTimeSpan@ATL@@QAE@JHHH@Z
_TEXT	SEGMENT
_lDays$ = 8						; size = 4
_nHours$ = 12						; size = 4
_nMins$ = 16						; size = 4
_nSecs$ = 20						; size = 4
??0COleDateTimeSpan@ATL@@QAE@JHHH@Z PROC NEAR		; ATL::COleDateTimeSpan::COleDateTimeSpan, COMDAT
; _this$ = ecx

; 40   : 	SetDateTimeSpan(lDays, nHours, nMins, nSecs);

  00000	8b 44 24 10	 mov	 eax, DWORD PTR _nSecs$[esp-4]
  00004	8b 54 24 08	 mov	 edx, DWORD PTR _nHours$[esp-4]
  00008	56		 push	 esi
  00009	50		 push	 eax
  0000a	8b 44 24 0c	 mov	 eax, DWORD PTR _lDays$[esp+4]
  0000e	8b f1		 mov	 esi, ecx
  00010	8b 4c 24 14	 mov	 ecx, DWORD PTR _nMins$[esp+4]
  00014	51		 push	 ecx
  00015	52		 push	 edx
  00016	50		 push	 eax
  00017	8b ce		 mov	 ecx, esi
  00019	e8 00 00 00 00	 call	 ?SetDateTimeSpan@COleDateTimeSpan@ATL@@QAEXJHHH@Z ; ATL::COleDateTimeSpan::SetDateTimeSpan

; 41   : }

  0001e	8b c6		 mov	 eax, esi
  00020	5e		 pop	 esi
  00021	c2 10 00	 ret	 16			; 00000010H
??0COleDateTimeSpan@ATL@@QAE@JHHH@Z ENDP		; ATL::COleDateTimeSpan::COleDateTimeSpan
_TEXT	ENDS
PUBLIC	?_Tidy@?$basic_string@DU?$char_traits@D@std@@V?$allocator@D@2@@std@@IAEX_NI@Z ; std::basic_string<char,std::char_traits<char>,std::allocator<char> >::_Tidy
; Function compile flags: /Ogty
; File c:\program files\microsoft visual studio .net 2003\vc7\include\xstring
;	COMDAT ?_Tidy@?$basic_string@DU?$char_traits@D@std@@V?$allocator@D@2@@std@@IAEX_NI@Z
_TEXT	SEGMENT
__Built$ = 8						; size = 1
__Newsize$ = 12						; size = 4
?_Tidy@?$basic_string@DU?$char_traits@D@std@@V?$allocator@D@2@@std@@IAEX_NI@Z PROC NEAR ; std::basic_string<char,std::char_traits<char>,std::allocator<char> >::_Tidy, COMDAT
; _this$ = ecx

; 1510 : 		if (!_Built)

  00000	8a 44 24 04	 mov	 al, BYTE PTR __Built$[esp-4]
  00004	84 c0		 test	 al, al
  00006	53		 push	 ebx
  00007	55		 push	 ebp
  00008	8b 6c 24 10	 mov	 ebp, DWORD PTR __Newsize$[esp+4]
  0000c	8b d9		 mov	 ebx, ecx
  0000e	74 2f		 je	 SHORT $L231041

; 1511 : 			;
; 1512 : 		else if (_BUF_SIZE <= _Myres)

  00010	83 7b 18 10	 cmp	 DWORD PTR [ebx+24], 16	; 00000010H
  00014	72 29		 jb	 SHORT $L231041

; 1513 : 			{	// copy any leftovers to small buffer and deallocate
; 1514 : 			_Elem *_Ptr = _Bx._Ptr;
; 1515 : 			if (0 < _Newsize)

  00016	85 ed		 test	 ebp, ebp
  00018	8b 43 04	 mov	 eax, DWORD PTR [ebx+4]
  0001b	57		 push	 edi
  0001c	8d 7b 04	 lea	 edi, DWORD PTR [ebx+4]
  0001f	76 14		 jbe	 SHORT $L231038
  00021	56		 push	 esi

; 1516 : 				_Traits::copy(_Bx._Buf, _Ptr, _Newsize);

  00022	8b cd		 mov	 ecx, ebp
  00024	8b d1		 mov	 edx, ecx
  00026	c1 e9 02	 shr	 ecx, 2
  00029	8b f0		 mov	 esi, eax
  0002b	f3 a5		 rep movsd
  0002d	8b ca		 mov	 ecx, edx
  0002f	83 e1 03	 and	 ecx, 3
  00032	f3 a4		 rep movsb
  00034	5e		 pop	 esi
$L231038:

; 1517 : 			_Mybase::_Alval.deallocate(_Ptr, _Myres + 1);

  00035	50		 push	 eax
  00036	e8 00 00 00 00	 call	 ??3@YAXPAX@Z		; operator delete
  0003b	83 c4 04	 add	 esp, 4
  0003e	5f		 pop	 edi
$L231041:

; 1518 : 			}
; 1519 : 		_Myres = _BUF_SIZE - 1;
; 1520 : 		_Eos(_Newsize);

  0003f	89 6b 14	 mov	 DWORD PTR [ebx+20], ebp
  00042	c7 43 18 0f 00
	00 00		 mov	 DWORD PTR [ebx+24], 15	; 0000000fH
  00049	c6 44 2b 04 00	 mov	 BYTE PTR [ebx+ebp+4], 0
  0004e	5d		 pop	 ebp
  0004f	5b		 pop	 ebx

; 1521 : 		}

  00050	c2 08 00	 ret	 8
?_Tidy@?$basic_string@DU?$char_traits@D@std@@V?$allocator@D@2@@std@@IAEX_NI@Z ENDP ; std::basic_string<char,std::char_traits<char>,std::allocator<char> >::_Tidy
_TEXT	ENDS
PUBLIC	?erase@?$basic_string@DU?$char_traits@D@std@@V?$allocator@D@2@@std@@QAEAAV12@II@Z ; std::basic_string<char,std::char_traits<char>,std::allocator<char> >::erase
EXTRN	?_Xran@_String_base@std@@QBEXXZ:NEAR		; std::_String_base::_Xran
; Function compile flags: /Ogty
;	COMDAT ?erase@?$basic_string@DU?$char_traits@D@std@@V?$allocator@D@2@@std@@QAEAAV12@II@Z
_TEXT	SEGMENT
__Off$ = 8						; size = 4
__Count$ = 12						; size = 4
?erase@?$basic_string@DU?$char_traits@D@std@@V?$allocator@D@2@@std@@QAEAAV12@II@Z PROC NEAR ; std::basic_string<char,std::char_traits<char>,std::allocator<char> >::erase, COMDAT
; _this$ = ecx

; 792  : 		{	// erase elements [_Off, _Off + _Count)

  00000	55		 push	 ebp

; 793  : 		if (_Mysize < _Off)

  00001	8b 6c 24 08	 mov	 ebp, DWORD PTR __Off$[esp]
  00005	56		 push	 esi
  00006	8b f1		 mov	 esi, ecx
  00008	39 6e 14	 cmp	 DWORD PTR [esi+20], ebp
  0000b	57		 push	 edi
  0000c	73 05		 jae	 SHORT $L221371

; 794  : 			_String_base::_Xran();	// _Off off end

  0000e	e8 00 00 00 00	 call	 ?_Xran@_String_base@std@@QBEXXZ ; std::_String_base::_Xran
$L221371:

; 795  : 		if (_Mysize - _Off < _Count)

  00013	8b 46 14	 mov	 eax, DWORD PTR [esi+20]
  00016	8b 7c 24 14	 mov	 edi, DWORD PTR __Count$[esp+8]
  0001a	2b c5		 sub	 eax, ebp
  0001c	3b c7		 cmp	 eax, edi
  0001e	73 02		 jae	 SHORT $L221372

; 796  : 			_Count = _Mysize - _Off;	// trim _Count

  00020	8b f8		 mov	 edi, eax
$L221372:

; 797  : 		if (0 < _Count)

  00022	85 ff		 test	 edi, edi
  00024	76 47		 jbe	 SHORT $L231107

; 798  : 			{	// move elements down
; 799  : 			_Traits::move(_Myptr() + _Off, _Myptr() + _Off + _Count,
; 800  : 				_Mysize - _Off - _Count);

  00026	8b 4e 18	 mov	 ecx, DWORD PTR [esi+24]
  00029	83 f9 10	 cmp	 ecx, 16			; 00000010H
  0002c	53		 push	 ebx
  0002d	8d 5e 04	 lea	 ebx, DWORD PTR [esi+4]
  00030	72 04		 jb	 SHORT $L231073
  00032	8b 13		 mov	 edx, DWORD PTR [ebx]
  00034	eb 02		 jmp	 SHORT $L231074
$L231073:
  00036	8b d3		 mov	 edx, ebx
$L231074:
  00038	83 f9 10	 cmp	 ecx, 16			; 00000010H
  0003b	72 04		 jb	 SHORT $L231080
  0003d	8b 0b		 mov	 ecx, DWORD PTR [ebx]
  0003f	eb 02		 jmp	 SHORT $L231081
$L231080:
  00041	8b cb		 mov	 ecx, ebx
$L231081:
  00043	2b c7		 sub	 eax, edi

; 803  : 			}
; 804  : 		return (*this);

  00045	03 d5		 add	 edx, ebp
  00047	50		 push	 eax
  00048	03 d7		 add	 edx, edi
  0004a	52		 push	 edx
  0004b	03 cd		 add	 ecx, ebp
  0004d	51		 push	 ecx
  0004e	e8 00 00 00 00	 call	 _memmove
  00053	8b 46 14	 mov	 eax, DWORD PTR [esi+20]
  00056	8b 4e 18	 mov	 ecx, DWORD PTR [esi+24]
  00059	2b c7		 sub	 eax, edi
  0005b	83 c4 0c	 add	 esp, 12			; 0000000cH
  0005e	83 f9 10	 cmp	 ecx, 16			; 00000010H
  00061	89 46 14	 mov	 DWORD PTR [esi+20], eax
  00064	72 02		 jb	 SHORT $L231104

; 801  : 			size_type _Newsize = _Mysize - _Count;
; 802  : 			_Eos(_Newsize);

  00066	8b 1b		 mov	 ebx, DWORD PTR [ebx]
$L231104:
  00068	c6 04 03 00	 mov	 BYTE PTR [ebx+eax], 0
  0006c	5b		 pop	 ebx
$L231107:
  0006d	5f		 pop	 edi

; 803  : 			}
; 804  : 		return (*this);

  0006e	8b c6		 mov	 eax, esi
  00070	5e		 pop	 esi
  00071	5d		 pop	 ebp

; 805  : 		}

  00072	c2 08 00	 ret	 8
?erase@?$basic_string@DU?$char_traits@D@std@@V?$allocator@D@2@@std@@QAEAAV12@II@Z ENDP ; std::basic_string<char,std::char_traits<char>,std::allocator<char> >::erase
_TEXT	ENDS
PUBLIC	?_Copy@?$basic_string@DU?$char_traits@D@std@@V?$allocator@D@2@@std@@IAEXII@Z ; std::basic_string<char,std::char_traits<char>,std::allocator<char> >::_Copy
;	COMDAT xdata$x
; File c:\program files\microsoft visual studio .net 2003\vc7\include\iosfwd
xdata$x	SEGMENT
$T231311 DD	0ffffffffH
	DD	00H
	DD	0ffffffffH
	DD	00H
	DD	01H
	DD	00H
	DD	01H
	DD	00H
$T231313 DD	00H
	DD	00H
	DD	00H
	DD	FLAT:$L231114
$T231314 DD	00H
	DD	00H
	DD	00H
	DD	FLAT:$L231112
$T231312 DD	02H
	DD	02H
	DD	03H
	DD	01H
	DD	FLAT:$T231313
	DD	00H
	DD	00H
	DD	03H
	DD	01H
	DD	FLAT:$T231314
$T231306 DD	019930520H
	DD	04H
	DD	FLAT:$T231311
	DD	02H
	DD	FLAT:$T231312
	DD	2 DUP(00H)
; Function compile flags: /Ogty
; File c:\program files\microsoft visual studio .net 2003\vc7\include\xstring
xdata$x	ENDS
;	COMDAT ?_Copy@?$basic_string@DU?$char_traits@D@std@@V?$allocator@D@2@@std@@IAEXII@Z
_TEXT	SEGMENT
__Newres$ = -24						; size = 4
_this$ = -20						; size = 4
__$EHRec$ = -16						; size = 16
__Ptr$ = 8						; size = 4
__Newsize$ = 8						; size = 4
__Oldlen$ = 12						; size = 4
?_Copy@?$basic_string@DU?$char_traits@D@std@@V?$allocator@D@2@@std@@IAEXII@Z PROC NEAR ; std::basic_string<char,std::char_traits<char>,std::allocator<char> >::_Copy, COMDAT
; _this$ = ecx

; 1444 : 		{	// copy _Oldlen elements to newly allocated buffer

  00000	55		 push	 ebp
  00001	8b ec		 mov	 ebp, esp
  00003	6a ff		 push	 -1
  00005	68 00 00 00 00	 push	 __ehhandler$?_Copy@?$basic_string@DU?$char_traits@D@std@@V?$allocator@D@2@@std@@IAEXII@Z
  0000a	64 a1 00 00 00
	00		 mov	 eax, DWORD PTR fs:__except_list
  00010	50		 push	 eax
  00011	64 89 25 00 00
	00 00		 mov	 DWORD PTR fs:__except_list, esp
  00018	83 ec 0c	 sub	 esp, 12			; 0000000cH

; 1445 : 		size_type _Newres = _Newsize | _ALLOC_MASK;

  0001b	8b 45 08	 mov	 eax, DWORD PTR __Newsize$[ebp]
  0001e	53		 push	 ebx
  0001f	56		 push	 esi
  00020	8b d8		 mov	 ebx, eax
  00022	83 cb 0f	 or	 ebx, 15			; 0000000fH

; 1446 : 		if (max_size() < _Newres)

  00025	83 fb fe	 cmp	 ebx, -2			; fffffffeH
  00028	57		 push	 edi
  00029	8b f1		 mov	 esi, ecx
  0002b	89 65 f0	 mov	 DWORD PTR __$EHRec$[ebp], esp
  0002e	89 75 ec	 mov	 DWORD PTR _this$[ebp], esi
  00031	76 04		 jbe	 SHORT $L222778

; 1447 : 			_Newres = _Newsize;	// undo roundup if too big

  00033	8b d8		 mov	 ebx, eax

; 1448 : 		else if (_Newres / 3 < _Myres / 2

  00035	eb 22		 jmp	 SHORT $L222780
$L222778:

; 1449 : 			&& _Myres <= max_size() - _Myres / 2)

  00037	8b 7e 18	 mov	 edi, DWORD PTR [esi+24]
  0003a	b8 ab aa aa aa	 mov	 eax, -1431655765	; aaaaaaabH
  0003f	f7 e3		 mul	 ebx
  00041	8b cf		 mov	 ecx, edi
  00043	d1 e9		 shr	 ecx, 1
  00045	d1 ea		 shr	 edx, 1
  00047	3b d1		 cmp	 edx, ecx
  00049	73 0e		 jae	 SHORT $L222780
  0004b	b8 fe ff ff ff	 mov	 eax, -2			; fffffffeH
  00050	2b c1		 sub	 eax, ecx
  00052	3b f8		 cmp	 edi, eax
  00054	77 03		 ja	 SHORT $L222780

; 1450 : 			_Newres = _Myres + _Myres / 2;	// grow exponentially if possible

  00056	8d 1c 39	 lea	 ebx, DWORD PTR [ecx+edi]
$L222780:

; 1451 : 		_Elem *_Ptr;
; 1452 : 
; 1453 : 		_TRY_BEGIN
; 1454 : 			_Ptr = _Mybase::_Alval.allocate(_Newres + 1);

  00059	8d 4b 01	 lea	 ecx, DWORD PTR [ebx+1]
  0005c	51		 push	 ecx
  0005d	c7 45 fc 00 00
	00 00		 mov	 DWORD PTR __$EHRec$[ebp+12], 0
  00064	e8 00 00 00 00	 call	 ??2@YAPAXI@Z		; operator new
  00069	8b d0		 mov	 edx, eax
  0006b	83 c4 04	 add	 esp, 4
  0006e	89 55 08	 mov	 DWORD PTR __Ptr$[ebp], edx
  00071	eb 29		 jmp	 SHORT $L222782
$L231112:

; 1455 : 		_CATCH_ALL
; 1456 : 			_Newres = _Newsize;	// allocation failed, undo roundup and retry

  00073	8b 45 08	 mov	 eax, DWORD PTR __Newsize$[ebp]
  00076	89 45 e8	 mov	 DWORD PTR __Newres$[ebp], eax

; 1457 : 			_TRY_BEGIN
; 1458 : 				_Ptr = _Mybase::_Alval.allocate(_Newres + 1);

  00079	40		 inc	 eax
  0007a	89 65 f0	 mov	 DWORD PTR __$EHRec$[ebp], esp
  0007d	50		 push	 eax
  0007e	c6 45 fc 02	 mov	 BYTE PTR __$EHRec$[ebp+12], 2
  00082	e8 00 00 00 00	 call	 ??2@YAPAXI@Z		; operator new
  00087	89 45 08	 mov	 DWORD PTR __Ptr$[ebp], eax
  0008a	83 c4 04	 add	 esp, 4

; 1462 : 			_CATCH_END
; 1463 : 		_CATCH_END

  0008d	b8 00 00 00 00	 mov	 eax, $L231307
  00092	c3		 ret	 0
$L231307:
  00093	8b 5d e8	 mov	 ebx, DWORD PTR __Newres$[ebp]
  00096	8b 75 ec	 mov	 esi, DWORD PTR _this$[ebp]
  00099	8b 55 08	 mov	 edx, DWORD PTR __Ptr$[ebp]
$L222782:

; 1464 : 
; 1465 : 		if (0 < _Oldlen)

  0009c	8b 4d 0c	 mov	 ecx, DWORD PTR __Oldlen$[ebp]
  0009f	85 c9		 test	 ecx, ecx
  000a1	76 24		 jbe	 SHORT $L231231

; 1466 : 			_Traits::copy(_Ptr, _Myptr(), _Oldlen);	// copy existing elements

  000a3	83 7e 18 10	 cmp	 DWORD PTR [esi+24], 16	; 00000010H
  000a7	72 05		 jb	 SHORT $L231228
  000a9	8b 76 04	 mov	 esi, DWORD PTR [esi+4]
  000ac	eb 03		 jmp	 SHORT $L231229
$L231228:
  000ae	83 c6 04	 add	 esi, 4
$L231229:
  000b1	8b c1		 mov	 eax, ecx
  000b3	c1 e9 02	 shr	 ecx, 2
  000b6	8b fa		 mov	 edi, edx
  000b8	f3 a5		 rep movsd
  000ba	8b c8		 mov	 ecx, eax
  000bc	83 e1 03	 and	 ecx, 3
  000bf	f3 a4		 rep movsb
  000c1	8b 75 ec	 mov	 esi, DWORD PTR _this$[ebp]
  000c4	8b 4d 0c	 mov	 ecx, DWORD PTR __Oldlen$[ebp]
$L231231:

; 1467 : 		_Tidy(true);

  000c7	83 7e 18 10	 cmp	 DWORD PTR [esi+24], 16	; 00000010H
  000cb	72 12		 jb	 SHORT $L231267
  000cd	8b 4e 04	 mov	 ecx, DWORD PTR [esi+4]
  000d0	51		 push	 ecx
  000d1	e8 00 00 00 00	 call	 ??3@YAXPAX@Z		; operator delete
  000d6	8b 55 08	 mov	 edx, DWORD PTR __Ptr$[ebp]
  000d9	8b 4d 0c	 mov	 ecx, DWORD PTR __Oldlen$[ebp]
  000dc	83 c4 04	 add	 esp, 4
$L231267:

; 1468 : 		_Bx._Ptr = _Ptr;
; 1469 : 		_Myres = _Newres;
; 1470 : 		_Eos(_Oldlen);

  000df	83 fb 10	 cmp	 ebx, 16			; 00000010H
  000e2	8d 46 04	 lea	 eax, DWORD PTR [esi+4]
  000e5	c6 00 00	 mov	 BYTE PTR [eax], 0
  000e8	89 10		 mov	 DWORD PTR [eax], edx
  000ea	89 5e 18	 mov	 DWORD PTR [esi+24], ebx
  000ed	89 4e 14	 mov	 DWORD PTR [esi+20], ecx
  000f0	72 02		 jb	 SHORT $L231302
  000f2	8b c2		 mov	 eax, edx
$L231302:

; 1471 : 		}

  000f4	5f		 pop	 edi
  000f5	c6 04 08 00	 mov	 BYTE PTR [eax+ecx], 0
  000f9	8b 4d f4	 mov	 ecx, DWORD PTR __$EHRec$[ebp+4]
  000fc	5e		 pop	 esi
  000fd	64 89 0d 00 00
	00 00		 mov	 DWORD PTR fs:__except_list, ecx
  00104	5b		 pop	 ebx
  00105	8b e5		 mov	 esp, ebp
  00107	5d		 pop	 ebp
  00108	c2 08 00	 ret	 8
$L231114:

; 1459 : 			_CATCH_ALL
; 1460 : 			_Tidy(true);	// failed again, discard storage and reraise

  0010b	8b 75 ec	 mov	 esi, DWORD PTR _this$[ebp]
  0010e	83 7e 18 10	 cmp	 DWORD PTR [esi+24], 16	; 00000010H
  00112	72 0c		 jb	 SHORT $L231206
  00114	8b 56 04	 mov	 edx, DWORD PTR [esi+4]
  00117	52		 push	 edx
  00118	e8 00 00 00 00	 call	 ??3@YAXPAX@Z		; operator delete
  0011d	83 c4 04	 add	 esp, 4
$L231206:

; 1461 : 			_RERAISE;

  00120	6a 00		 push	 0
  00122	c7 46 18 0f 00
	00 00		 mov	 DWORD PTR [esi+24], 15	; 0000000fH
  00129	c7 46 14 00 00
	00 00		 mov	 DWORD PTR [esi+20], 0
  00130	6a 00		 push	 0
  00132	c6 46 04 00	 mov	 BYTE PTR [esi+4], 0
  00136	e8 00 00 00 00	 call	 __CxxThrowException@8
$L231315:
$L231310:
  0013b	cc		 int	 3
_TEXT	ENDS
;	COMDAT text$x
text$x	SEGMENT
__ehhandler$?_Copy@?$basic_string@DU?$char_traits@D@std@@V?$allocator@D@2@@std@@IAEXII@Z:
  00000	b8 00 00 00 00	 mov	 eax, OFFSET FLAT:$T231306
  00005	e9 00 00 00 00	 jmp	 ___CxxFrameHandler
text$x	ENDS
?_Copy@?$basic_string@DU?$char_traits@D@std@@V?$allocator@D@2@@std@@IAEXII@Z ENDP ; std::basic_string<char,std::char_traits<char>,std::allocator<char> >::_Copy
PUBLIC	?GetMailInfo@CMail@@QAEXPAHPAK@Z		; CMail::GetMailInfo
PUBLIC	__real@4010000000000000
PUBLIC	__real@4052000000000000
;	COMDAT __real@4010000000000000
; File c:\program files\microsoft visual studio .net 2003\vc7\atlmfc\include\atlcomtime.inl
CONST	SEGMENT
__real@4010000000000000 DQ 04010000000000000r	; 4
CONST	ENDS
;	COMDAT __real@4052000000000000
CONST	SEGMENT
__real@4052000000000000 DQ 04052000000000000r	; 72
; Function compile flags: /Ogty
; File c:\documents and settings\test\mes documents\source\virtuos_v17\build\program\_common\post.cpp
CONST	ENDS
;	COMDAT ?GetMailInfo@CMail@@QAEXPAHPAK@Z
_TEXT	SEGMENT
tv280 = -128						; size = 4
tv184 = -128						; size = 4
tv735 = -124						; size = 4
tv723 = -124						; size = 4
tv271 = -124						; size = 4
tv193 = -124						; size = 4
_cBase$ = -120						; size = 8
_cCurrent$ = -112					; size = 8
_temp2$ = -104						; size = 12
_BaseTime$ = -104					; size = 12
_ts$ = -92						; size = 12
_CurrentTime$ = -92					; size = 12
_st$231629 = -80					; size = 16
_temp$ = -80						; size = 12
_st$231798 = -64					; size = 16
_st$231656 = -64					; size = 16
_st$231771 = -48					; size = 16
_st$231683 = -48					; size = 16
_st$231744 = -32					; size = 16
_st$231710 = -32					; size = 16
_st$231825 = -16					; size = 16
_nKeepingDay$ = 8					; size = 4
_dwKeepingTime$ = 12					; size = 4
?GetMailInfo@CMail@@QAEXPAHPAK@Z PROC NEAR		; CMail::GetMailInfo, COMDAT
; _this$ = ecx

; 62   : {

  00000	55		 push	 ebp
  00001	8b ec		 mov	 ebp, esp
  00003	83 e4 f8	 and	 esp, -8			; fffffff8H
  00006	81 ec 84 00 00
	00		 sub	 esp, 132		; 00000084H

; 63   : 	COleDateTime BaseTime;
; 64   : 	COleDateTime CurrentTime;
; 65   : 	
; 66   : 	CTime cBase    = m_tmCreate;

  0000c	8b 41 14	 mov	 eax, DWORD PTR [ecx+20]
  0000f	dd 05 00 00 00
	00		 fld	 QWORD PTR __real@0000000000000000
  00015	53		 push	 ebx
  00016	dd 5c 24 20	 fstp	 QWORD PTR _BaseTime$[esp+136]
  0001a	dd 05 00 00 00
	00		 fld	 QWORD PTR __real@0000000000000000
  00020	56		 push	 esi
  00021	33 f6		 xor	 esi, esi
  00023	dd 5c 24 30	 fstp	 QWORD PTR _CurrentTime$[esp+140]
  00027	99		 cdq
  00028	57		 push	 edi

; 67   : 	CTime cCurrent = CTime::GetCurrentTime();

  00029	56		 push	 esi
  0002a	89 74 24 34	 mov	 DWORD PTR _BaseTime$[esp+156], esi
  0002e	89 74 24 40	 mov	 DWORD PTR _CurrentTime$[esp+156], esi
  00032	89 44 24 1c	 mov	 DWORD PTR _cBase$[esp+148], eax
  00036	89 54 24 20	 mov	 DWORD PTR _cBase$[esp+152], edx
  0003a	e8 00 00 00 00	 call	 __time64
  0003f	89 44 24 24	 mov	 DWORD PTR _cCurrent$[esp+148], eax

; 68   : 	
; 69   : 	BaseTime.SetDateTime( cBase.GetYear(), cBase.GetMonth(), cBase.GetDay(), cBase.GetHour(), cBase.GetMinute(), cBase.GetSecond() );		

  00043	8d 44 24 1c	 lea	 eax, DWORD PTR _cBase$[esp+148]
  00047	50		 push	 eax
  00048	89 54 24 2c	 mov	 DWORD PTR _cCurrent$[esp+156], edx
  0004c	e8 00 00 00 00	 call	 __localtime64
  00051	83 c4 08	 add	 esp, 8
  00054	3b c6		 cmp	 eax, esi
  00056	74 08		 je	 SHORT $L231353
  00058	8b 08		 mov	 ecx, DWORD PTR [eax]
  0005a	89 4c 24 10	 mov	 DWORD PTR tv184[esp+144], ecx
  0005e	eb 08		 jmp	 SHORT $L231354
$L231353:
  00060	c7 44 24 10 ff
	ff ff ff	 mov	 DWORD PTR tv184[esp+144], -1
$L231354:
  00068	8d 54 24 18	 lea	 edx, DWORD PTR _cBase$[esp+144]
  0006c	52		 push	 edx
  0006d	e8 00 00 00 00	 call	 __localtime64
  00072	83 c4 04	 add	 esp, 4
  00075	3b c6		 cmp	 eax, esi
  00077	74 09		 je	 SHORT $L231375
  00079	8b 40 04	 mov	 eax, DWORD PTR [eax+4]
  0007c	89 44 24 14	 mov	 DWORD PTR tv193[esp+144], eax
  00080	eb 08		 jmp	 SHORT $L231376
$L231375:
  00082	c7 44 24 14 ff
	ff ff ff	 mov	 DWORD PTR tv193[esp+144], -1
$L231376:
  0008a	8d 4c 24 18	 lea	 ecx, DWORD PTR _cBase$[esp+144]
  0008e	51		 push	 ecx
  0008f	e8 00 00 00 00	 call	 __localtime64
  00094	83 c4 04	 add	 esp, 4
  00097	3b c6		 cmp	 eax, esi
  00099	74 05		 je	 SHORT $L231397
  0009b	8b 58 08	 mov	 ebx, DWORD PTR [eax+8]
  0009e	eb 03		 jmp	 SHORT $L231398
$L231397:
  000a0	83 cb ff	 or	 ebx, -1
$L231398:
  000a3	8d 54 24 18	 lea	 edx, DWORD PTR _cBase$[esp+144]
  000a7	52		 push	 edx
  000a8	e8 00 00 00 00	 call	 __localtime64
  000ad	83 c4 04	 add	 esp, 4
  000b0	3b c6		 cmp	 eax, esi
  000b2	74 05		 je	 SHORT $L231419
  000b4	8b 78 0c	 mov	 edi, DWORD PTR [eax+12]
  000b7	eb 02		 jmp	 SHORT $L231420
$L231419:
  000b9	33 ff		 xor	 edi, edi
$L231420:
  000bb	8d 44 24 18	 lea	 eax, DWORD PTR _cBase$[esp+144]
  000bf	50		 push	 eax
  000c0	e8 00 00 00 00	 call	 __localtime64
  000c5	83 c4 04	 add	 esp, 4
  000c8	3b c6		 cmp	 eax, esi
  000ca	74 04		 je	 SHORT $L231440
  000cc	8b 70 10	 mov	 esi, DWORD PTR [eax+16]
  000cf	46		 inc	 esi
$L231440:
  000d0	8d 4c 24 18	 lea	 ecx, DWORD PTR _cBase$[esp+144]
  000d4	51		 push	 ecx
  000d5	e8 00 00 00 00	 call	 __localtime64
  000da	83 c4 04	 add	 esp, 4
  000dd	85 c0		 test	 eax, eax
  000df	74 0a		 je	 SHORT $L231461
  000e1	8b 40 14	 mov	 eax, DWORD PTR [eax+20]
  000e4	05 6c 07 00 00	 add	 eax, 1900		; 0000076cH
  000e9	eb 02		 jmp	 SHORT $L231462
$L231461:
  000eb	33 c0		 xor	 eax, eax
$L231462:
  000ed	8b 54 24 10	 mov	 edx, DWORD PTR tv184[esp+144]
  000f1	8b 4c 24 14	 mov	 ecx, DWORD PTR tv193[esp+144]
  000f5	52		 push	 edx
  000f6	51		 push	 ecx
  000f7	53		 push	 ebx
  000f8	57		 push	 edi
  000f9	56		 push	 esi
  000fa	50		 push	 eax
  000fb	8d 4c 24 40	 lea	 ecx, DWORD PTR _BaseTime$[esp+168]
  000ff	e8 00 00 00 00	 call	 ?SetDateTime@COleDateTime@ATL@@QAEHHHHHHH@Z ; ATL::COleDateTime::SetDateTime

; 70   : 	CurrentTime.SetDateTime( cCurrent.GetYear(), cCurrent.GetMonth(), cCurrent.GetDay(), cCurrent.GetHour(), cCurrent.GetMinute(), cCurrent.GetSecond() );

  00104	8d 54 24 20	 lea	 edx, DWORD PTR _cCurrent$[esp+144]
  00108	52		 push	 edx
  00109	e8 00 00 00 00	 call	 __localtime64
  0010e	83 c4 04	 add	 esp, 4
  00111	85 c0		 test	 eax, eax
  00113	74 08		 je	 SHORT $L231483
  00115	8b 00		 mov	 eax, DWORD PTR [eax]
  00117	89 44 24 14	 mov	 DWORD PTR tv271[esp+144], eax
  0011b	eb 08		 jmp	 SHORT $L231484
$L231483:
  0011d	c7 44 24 14 ff
	ff ff ff	 mov	 DWORD PTR tv271[esp+144], -1
$L231484:
  00125	8d 4c 24 20	 lea	 ecx, DWORD PTR _cCurrent$[esp+144]
  00129	51		 push	 ecx
  0012a	e8 00 00 00 00	 call	 __localtime64
  0012f	83 c4 04	 add	 esp, 4
  00132	85 c0		 test	 eax, eax
  00134	74 09		 je	 SHORT $L231505
  00136	8b 50 04	 mov	 edx, DWORD PTR [eax+4]
  00139	89 54 24 10	 mov	 DWORD PTR tv280[esp+144], edx
  0013d	eb 08		 jmp	 SHORT $L231506
$L231505:
  0013f	c7 44 24 10 ff
	ff ff ff	 mov	 DWORD PTR tv280[esp+144], -1
$L231506:
  00147	8d 44 24 20	 lea	 eax, DWORD PTR _cCurrent$[esp+144]
  0014b	50		 push	 eax
  0014c	e8 00 00 00 00	 call	 __localtime64
  00151	83 c4 04	 add	 esp, 4
  00154	85 c0		 test	 eax, eax
  00156	74 05		 je	 SHORT $L231527
  00158	8b 58 08	 mov	 ebx, DWORD PTR [eax+8]
  0015b	eb 03		 jmp	 SHORT $L231528
$L231527:
  0015d	83 cb ff	 or	 ebx, -1
$L231528:
  00160	8d 4c 24 20	 lea	 ecx, DWORD PTR _cCurrent$[esp+144]
  00164	51		 push	 ecx
  00165	e8 00 00 00 00	 call	 __localtime64
  0016a	83 c4 04	 add	 esp, 4
  0016d	85 c0		 test	 eax, eax
  0016f	74 05		 je	 SHORT $L231549
  00171	8b 78 0c	 mov	 edi, DWORD PTR [eax+12]
  00174	eb 02		 jmp	 SHORT $L231550
$L231549:
  00176	33 ff		 xor	 edi, edi
$L231550:
  00178	8d 54 24 20	 lea	 edx, DWORD PTR _cCurrent$[esp+144]
  0017c	52		 push	 edx
  0017d	e8 00 00 00 00	 call	 __localtime64
  00182	83 c4 04	 add	 esp, 4
  00185	85 c0		 test	 eax, eax
  00187	74 06		 je	 SHORT $L231571
  00189	8b 70 10	 mov	 esi, DWORD PTR [eax+16]
  0018c	46		 inc	 esi
  0018d	eb 02		 jmp	 SHORT $L231572
$L231571:
  0018f	33 f6		 xor	 esi, esi
$L231572:
  00191	8d 44 24 20	 lea	 eax, DWORD PTR _cCurrent$[esp+144]
  00195	50		 push	 eax
  00196	e8 00 00 00 00	 call	 __localtime64
  0019b	83 c4 04	 add	 esp, 4
  0019e	85 c0		 test	 eax, eax
  001a0	74 0a		 je	 SHORT $L231593
  001a2	8b 40 14	 mov	 eax, DWORD PTR [eax+20]
  001a5	05 6c 07 00 00	 add	 eax, 1900		; 0000076cH
  001aa	eb 02		 jmp	 SHORT $L231594
$L231593:
  001ac	33 c0		 xor	 eax, eax
$L231594:
  001ae	8b 4c 24 14	 mov	 ecx, DWORD PTR tv271[esp+144]
  001b2	8b 54 24 10	 mov	 edx, DWORD PTR tv280[esp+144]
  001b6	51		 push	 ecx
  001b7	52		 push	 edx
  001b8	53		 push	 ebx
  001b9	57		 push	 edi
  001ba	56		 push	 esi
  001bb	50		 push	 eax
  001bc	8d 4c 24 4c	 lea	 ecx, DWORD PTR _CurrentTime$[esp+168]
  001c0	e8 00 00 00 00	 call	 ?SetDateTime@COleDateTime@ATL@@QAEHHHHHHH@Z ; ATL::COleDateTime::SetDateTime

; 71   : 	
; 72   : 	COleDateTimeSpan temp( BaseTime.GetDay(), BaseTime.GetHour(), BaseTime.GetMinute(), BaseTime.GetSecond() );

  001c5	8b 44 24 30	 mov	 eax, DWORD PTR _BaseTime$[esp+152]
  001c9	85 c0		 test	 eax, eax
  001cb	8b 35 00 00 00
	00		 mov	 esi, DWORD PTR __imp__VariantTimeToSystemTime@12
  001d1	75 1c		 jne	 SHORT $L231620
  001d3	dd 44 24 28	 fld	 QWORD PTR _BaseTime$[esp+144]
  001d7	8d 44 24 40	 lea	 eax, DWORD PTR _st$231629[esp+144]
  001db	50		 push	 eax
  001dc	83 ec 08	 sub	 esp, 8
  001df	dd 1c 24	 fstp	 QWORD PTR [esp]
  001e2	ff d6		 call	 esi
  001e4	85 c0		 test	 eax, eax
  001e6	74 07		 je	 SHORT $L231620
  001e8	0f b7 5c 24 4c	 movzx	 ebx, WORD PTR _st$231629[esp+156]
  001ed	eb 03		 jmp	 SHORT $L231621
$L231620:
  001ef	83 cb ff	 or	 ebx, -1
$L231621:
  001f2	8b 44 24 30	 mov	 eax, DWORD PTR _BaseTime$[esp+152]
  001f6	85 c0		 test	 eax, eax
  001f8	75 1c		 jne	 SHORT $L231647
  001fa	dd 44 24 28	 fld	 QWORD PTR _BaseTime$[esp+144]
  001fe	8d 4c 24 50	 lea	 ecx, DWORD PTR _st$231656[esp+144]
  00202	51		 push	 ecx
  00203	83 ec 08	 sub	 esp, 8
  00206	dd 1c 24	 fstp	 QWORD PTR [esp]
  00209	ff d6		 call	 esi
  0020b	85 c0		 test	 eax, eax
  0020d	74 07		 je	 SHORT $L231647
  0020f	0f b7 7c 24 5a	 movzx	 edi, WORD PTR _st$231656[esp+154]
  00214	eb 03		 jmp	 SHORT $L231648
$L231647:
  00216	83 cf ff	 or	 edi, -1
$L231648:
  00219	8b 44 24 30	 mov	 eax, DWORD PTR _BaseTime$[esp+152]
  0021d	85 c0		 test	 eax, eax
  0021f	75 1c		 jne	 SHORT $L231674
  00221	dd 44 24 28	 fld	 QWORD PTR _BaseTime$[esp+144]
  00225	8d 54 24 60	 lea	 edx, DWORD PTR _st$231683[esp+144]
  00229	52		 push	 edx
  0022a	83 ec 08	 sub	 esp, 8
  0022d	dd 1c 24	 fstp	 QWORD PTR [esp]
  00230	ff d6		 call	 esi
  00232	85 c0		 test	 eax, eax
  00234	74 07		 je	 SHORT $L231674
  00236	0f b7 74 24 68	 movzx	 esi, WORD PTR _st$231683[esp+152]
  0023b	eb 03		 jmp	 SHORT $L231675
$L231674:
  0023d	83 ce ff	 or	 esi, -1
$L231675:
  00240	8b 44 24 30	 mov	 eax, DWORD PTR _BaseTime$[esp+152]
  00244	85 c0		 test	 eax, eax
  00246	75 20		 jne	 SHORT $L231701
  00248	dd 44 24 28	 fld	 QWORD PTR _BaseTime$[esp+144]
  0024c	8d 44 24 70	 lea	 eax, DWORD PTR _st$231710[esp+144]
  00250	50		 push	 eax
  00251	83 ec 08	 sub	 esp, 8
  00254	dd 1c 24	 fstp	 QWORD PTR [esp]
  00257	ff 15 00 00 00
	00		 call	 DWORD PTR __imp__VariantTimeToSystemTime@12
  0025d	85 c0		 test	 eax, eax
  0025f	74 07		 je	 SHORT $L231701
  00261	0f b7 44 24 76	 movzx	 eax, WORD PTR _st$231710[esp+150]
  00266	eb 03		 jmp	 SHORT $L231702
$L231701:
  00268	83 c8 ff	 or	 eax, -1
$L231702:
  0026b	53		 push	 ebx
  0026c	57		 push	 edi
  0026d	56		 push	 esi
  0026e	50		 push	 eax
  0026f	8d 4c 24 50	 lea	 ecx, DWORD PTR _temp$[esp+160]
  00273	e8 00 00 00 00	 call	 ?SetDateTimeSpan@COleDateTimeSpan@ATL@@QAEXJHHH@Z ; ATL::COleDateTimeSpan::SetDateTimeSpan

; 73   : 	COleDateTimeSpan temp2( CurrentTime.GetDay(), CurrentTime.GetHour(), CurrentTime.GetMinute(), CurrentTime.GetSecond() );

  00278	8b 44 24 3c	 mov	 eax, DWORD PTR _CurrentTime$[esp+152]
  0027c	85 c0		 test	 eax, eax
  0027e	8b 35 00 00 00
	00		 mov	 esi, DWORD PTR __imp__VariantTimeToSystemTime@12
  00284	75 1c		 jne	 SHORT $L231735
  00286	dd 44 24 34	 fld	 QWORD PTR _CurrentTime$[esp+144]
  0028a	8d 4c 24 70	 lea	 ecx, DWORD PTR _st$231744[esp+144]
  0028e	51		 push	 ecx
  0028f	83 ec 08	 sub	 esp, 8
  00292	dd 1c 24	 fstp	 QWORD PTR [esp]
  00295	ff d6		 call	 esi
  00297	85 c0		 test	 eax, eax
  00299	74 07		 je	 SHORT $L231735
  0029b	0f b7 5c 24 7c	 movzx	 ebx, WORD PTR _st$231744[esp+156]
  002a0	eb 03		 jmp	 SHORT $L231736
$L231735:
  002a2	83 cb ff	 or	 ebx, -1
$L231736:
  002a5	8b 44 24 3c	 mov	 eax, DWORD PTR _CurrentTime$[esp+152]
  002a9	85 c0		 test	 eax, eax
  002ab	75 1c		 jne	 SHORT $L231762
  002ad	dd 44 24 34	 fld	 QWORD PTR _CurrentTime$[esp+144]
  002b1	8d 54 24 60	 lea	 edx, DWORD PTR _st$231771[esp+144]
  002b5	52		 push	 edx
  002b6	83 ec 08	 sub	 esp, 8
  002b9	dd 1c 24	 fstp	 QWORD PTR [esp]
  002bc	ff d6		 call	 esi
  002be	85 c0		 test	 eax, eax
  002c0	74 07		 je	 SHORT $L231762
  002c2	0f b7 7c 24 6a	 movzx	 edi, WORD PTR _st$231771[esp+154]
  002c7	eb 03		 jmp	 SHORT $L231763
$L231762:
  002c9	83 cf ff	 or	 edi, -1
$L231763:
  002cc	8b 44 24 3c	 mov	 eax, DWORD PTR _CurrentTime$[esp+152]
  002d0	85 c0		 test	 eax, eax
  002d2	75 1c		 jne	 SHORT $L231789
  002d4	dd 44 24 34	 fld	 QWORD PTR _CurrentTime$[esp+144]
  002d8	8d 44 24 50	 lea	 eax, DWORD PTR _st$231798[esp+144]
  002dc	50		 push	 eax
  002dd	83 ec 08	 sub	 esp, 8
  002e0	dd 1c 24	 fstp	 QWORD PTR [esp]
  002e3	ff d6		 call	 esi
  002e5	85 c0		 test	 eax, eax
  002e7	74 07		 je	 SHORT $L231789
  002e9	0f b7 74 24 58	 movzx	 esi, WORD PTR _st$231798[esp+152]
  002ee	eb 03		 jmp	 SHORT $L231790
$L231789:
  002f0	83 ce ff	 or	 esi, -1
$L231790:
  002f3	8b 44 24 3c	 mov	 eax, DWORD PTR _CurrentTime$[esp+152]
  002f7	85 c0		 test	 eax, eax
  002f9	75 26		 jne	 SHORT $L231816
  002fb	dd 44 24 34	 fld	 QWORD PTR _CurrentTime$[esp+144]
  002ff	8d 8c 24 80 00
	00 00		 lea	 ecx, DWORD PTR _st$231825[esp+144]
  00306	51		 push	 ecx
  00307	83 ec 08	 sub	 esp, 8
  0030a	dd 1c 24	 fstp	 QWORD PTR [esp]
  0030d	ff 15 00 00 00
	00		 call	 DWORD PTR __imp__VariantTimeToSystemTime@12
  00313	85 c0		 test	 eax, eax
  00315	74 0a		 je	 SHORT $L231816
  00317	0f b7 84 24 86
	00 00 00	 movzx	 eax, WORD PTR _st$231825[esp+150]
  0031f	eb 03		 jmp	 SHORT $L231817
$L231816:
  00321	83 c8 ff	 or	 eax, -1
$L231817:
  00324	53		 push	 ebx
  00325	57		 push	 edi
  00326	56		 push	 esi
  00327	50		 push	 eax
  00328	8d 4c 24 38	 lea	 ecx, DWORD PTR _temp2$[esp+160]
  0032c	e8 00 00 00 00	 call	 ?SetDateTimeSpan@COleDateTimeSpan@ATL@@QAEXJHHH@Z ; ATL::COleDateTimeSpan::SetDateTimeSpan

; 74   : 
; 75   : 	COleDateTimeSpan ts = temp2 - temp;

  00331	8d 54 24 40	 lea	 edx, DWORD PTR _temp$[esp+144]
  00335	52		 push	 edx
  00336	8d 44 24 38	 lea	 eax, DWORD PTR _ts$[esp+148]
  0033a	50		 push	 eax
  0033b	8d 4c 24 30	 lea	 ecx, DWORD PTR _temp2$[esp+152]
  0033f	e8 00 00 00 00	 call	 ??GCOleDateTimeSpan@ATL@@QBE?AV01@ABV01@@Z ; ATL::COleDateTimeSpan::operator-

; 76   : 
; 77   : 	int nGap = -1;
; 78   : 
; 79   : 	nGap = (int)( (MAX_KEEP_MAX_DAY+1) - ts.GetTotalDays() );

  00344	dd 44 24 34	 fld	 QWORD PTR _ts$[esp+144]
  00348	dc 1d 00 00 00
	00		 fcomp	 QWORD PTR __real@0000000000000000
  0034e	df e0		 fnstsw	 ax
  00350	f6 c4 05	 test	 ah, 5
  00353	7a 08		 jp	 SHORT $L231838
  00355	dd 05 00 00 00
	00		 fld	 QWORD PTR __real@bed845c8a0ce5129
  0035b	eb 06		 jmp	 SHORT $L231839
$L231838:
  0035d	dd 05 00 00 00
	00		 fld	 QWORD PTR ?OLE_DATETIME_HALFSECOND@COleDateTimeSpan@ATL@@0NB ; ATL::COleDateTimeSpan::OLE_DATETIME_HALFSECOND
$L231839:
  00363	dd 44 24 34	 fld	 QWORD PTR _ts$[esp+144]
  00367	d8 c1		 fadd	 ST(0), ST(1)
  00369	e8 00 00 00 00	 call	 __ftol2
  0036e	dd d8		 fstp	 ST(0)
  00370	89 44 24 14	 mov	 DWORD PTR tv735[esp+144], eax
  00374	db 44 24 14	 fild	 DWORD PTR tv735[esp+144]
  00378	dc 2d 00 00 00
	00		 fsubr	 QWORD PTR __real@4010000000000000
  0037e	e8 00 00 00 00	 call	 __ftol2

; 80   : 
; 81   : 	if( dwKeepingTime )

  00383	8b 7d 0c	 mov	 edi, DWORD PTR _dwKeepingTime$[ebp]
  00386	85 ff		 test	 edi, edi
  00388	8b f0		 mov	 esi, eax
  0038a	74 51		 je	 SHORT $L231859

; 82   : 	{
; 83   : 		*dwKeepingTime = (DWORD)( (MAX_KEEP_MAX_DAY*24) - ts.GetTotalHours() );

  0038c	dd 44 24 34	 fld	 QWORD PTR _ts$[esp+144]
  00390	dc 1d 00 00 00
	00		 fcomp	 QWORD PTR __real@0000000000000000
  00396	df e0		 fnstsw	 ax
  00398	f6 c4 05	 test	 ah, 5
  0039b	7a 08		 jp	 SHORT $L231845
  0039d	dd 05 00 00 00
	00		 fld	 QWORD PTR __real@bed845c8a0ce5129
  003a3	eb 06		 jmp	 SHORT $L231846
$L231845:
  003a5	dd 05 00 00 00
	00		 fld	 QWORD PTR ?OLE_DATETIME_HALFSECOND@COleDateTimeSpan@ATL@@0NB ; ATL::COleDateTimeSpan::OLE_DATETIME_HALFSECOND
$L231846:
  003ab	dc 44 24 34	 fadd	 QWORD PTR _ts$[esp+144]
  003af	dc 0d 00 00 00
	00		 fmul	 QWORD PTR __real@4038000000000000
  003b5	e8 00 00 00 00	 call	 __ftol2
  003ba	89 44 24 14	 mov	 DWORD PTR tv723[esp+144], eax
  003be	db 44 24 14	 fild	 DWORD PTR tv723[esp+144]
  003c2	dc 2d 00 00 00
	00		 fsubr	 QWORD PTR __real@4052000000000000
  003c8	e8 00 00 00 00	 call	 __ftol2

; 84   : 	}
; 85   : 
; 86   : 	*nKeepingDay = nGap;

  003cd	8b 4d 08	 mov	 ecx, DWORD PTR _nKeepingDay$[ebp]
  003d0	89 07		 mov	 DWORD PTR [edi], eax
  003d2	89 31		 mov	 DWORD PTR [ecx], esi

; 87   : }

  003d4	5f		 pop	 edi
  003d5	5e		 pop	 esi
  003d6	5b		 pop	 ebx
  003d7	8b e5		 mov	 esp, ebp
  003d9	5d		 pop	 ebp
  003da	c2 08 00	 ret	 8
$L231859:

; 84   : 	}
; 85   : 
; 86   : 	*nKeepingDay = nGap;

  003dd	8b 55 08	 mov	 edx, DWORD PTR _nKeepingDay$[ebp]

; 87   : }

  003e0	5f		 pop	 edi
  003e1	89 32		 mov	 DWORD PTR [edx], esi
  003e3	5e		 pop	 esi
  003e4	5b		 pop	 ebx
  003e5	8b e5		 mov	 esp, ebp
  003e7	5d		 pop	 ebp
  003e8	c2 08 00	 ret	 8
?GetMailInfo@CMail@@QAEXPAHPAK@Z ENDP			; CMail::GetMailInfo
_TEXT	ENDS
PUBLIC	?Find@CMailBox@@AAE?AViterator@?$vector@PAVCMail@@V?$allocator@PAVCMail@@@std@@@std@@K@Z ; CMailBox::Find
; Function compile flags: /Ogty
;	COMDAT ?Find@CMailBox@@AAE?AViterator@?$vector@PAVCMail@@V?$allocator@PAVCMail@@@std@@@std@@K@Z
_TEXT	SEGMENT
___$ReturnUdt$ = 8					; size = 4
_nMail$ = 12						; size = 4
?Find@CMailBox@@AAE?AViterator@?$vector@PAVCMail@@V?$allocator@PAVCMail@@@std@@@std@@K@Z PROC NEAR ; CMailBox::Find, COMDAT
; _this$ = ecx

; 386  : 	MailVectorItr i = begin();

  00000	8b 51 08	 mov	 edx, DWORD PTR [ecx+8]

; 387  : 	for( ; i != end(); ++i )
; 388  : 	{
; 389  : 		CMail* pMail	= *i;
; 390  : 		if( pMail->m_nMail == nMail )
; 391  : 			break;
; 392  : 	}
; 393  : 	return i;

  00003	8b 49 0c	 mov	 ecx, DWORD PTR [ecx+12]
  00006	3b d1		 cmp	 edx, ecx
  00008	74 1e		 je	 SHORT $L231927
  0000a	8b 44 24 08	 mov	 eax, DWORD PTR _nMail$[esp-4]
  0000e	56		 push	 esi
  0000f	90		 npad	 1
$L231889:
  00010	8b 32		 mov	 esi, DWORD PTR [edx]
  00012	39 46 04	 cmp	 DWORD PTR [esi+4], eax
  00015	74 07		 je	 SHORT $L231926
  00017	83 c2 04	 add	 edx, 4
  0001a	3b d1		 cmp	 edx, ecx
  0001c	75 f2		 jne	 SHORT $L231889
$L231926:
  0001e	8b 44 24 08	 mov	 eax, DWORD PTR ___$ReturnUdt$[esp]
  00022	89 10		 mov	 DWORD PTR [eax], edx
  00024	5e		 pop	 esi

; 394  : }

  00025	c2 08 00	 ret	 8
$L231927:

; 387  : 	for( ; i != end(); ++i )
; 388  : 	{
; 389  : 		CMail* pMail	= *i;
; 390  : 		if( pMail->m_nMail == nMail )
; 391  : 			break;
; 392  : 	}
; 393  : 	return i;

  00028	8b 44 24 04	 mov	 eax, DWORD PTR ___$ReturnUdt$[esp-4]
  0002c	89 10		 mov	 DWORD PTR [eax], edx

; 394  : }

  0002e	c2 08 00	 ret	 8
?Find@CMailBox@@AAE?AViterator@?$vector@PAVCMail@@V?$allocator@PAVCMail@@@std@@@std@@K@Z ENDP ; CMailBox::Find
_TEXT	ENDS
PUBLIC	?GetMail@CMailBox@@QAEPAVCMail@@K@Z		; CMailBox::GetMail
; Function compile flags: /Ogty
;	COMDAT ?GetMail@CMailBox@@QAEPAVCMail@@K@Z
_TEXT	SEGMENT
_nMail$ = 8						; size = 4
?GetMail@CMailBox@@QAEPAVCMail@@K@Z PROC NEAR		; CMailBox::GetMail, COMDAT
; _this$ = ecx

; 398  : 	MailVectorItr i = Find( nMail );

  00000	8b 41 08	 mov	 eax, DWORD PTR [ecx+8]
  00003	8b 49 0c	 mov	 ecx, DWORD PTR [ecx+12]
  00006	3b c1		 cmp	 eax, ecx
  00008	74 1e		 je	 SHORT $L226810
  0000a	8b 54 24 04	 mov	 edx, DWORD PTR _nMail$[esp-4]
  0000e	56		 push	 esi
  0000f	90		 npad	 1
$L232003:
  00010	8b 30		 mov	 esi, DWORD PTR [eax]
  00012	39 56 04	 cmp	 DWORD PTR [esi+4], edx
  00015	74 07		 je	 SHORT $L232054
  00017	83 c0 04	 add	 eax, 4
  0001a	3b c1		 cmp	 eax, ecx
  0001c	75 f2		 jne	 SHORT $L232003
$L232054:

; 399  : 	if( i != end() )

  0001e	3b c1		 cmp	 eax, ecx
  00020	5e		 pop	 esi
  00021	74 05		 je	 SHORT $L226810

; 400  : 		return *i;

  00023	8b 00		 mov	 eax, DWORD PTR [eax]

; 406  : }

  00025	c2 04 00	 ret	 4
$L226810:

; 401  : 
; 402  : #ifdef __CLIENT
; 403  : 	Error( _T( "CMailBox::GetMail failed!!!!" ) );
; 404  : #endif
; 405  : 	return NULL;

  00028	33 c0		 xor	 eax, eax

; 406  : }

  0002a	c2 04 00	 ret	 4
?GetMail@CMailBox@@QAEPAVCMail@@K@Z ENDP		; CMailBox::GetMail
_TEXT	ENDS
PUBLIC	?RemoveMailItem@CMailBox@@QAEHK@Z		; CMailBox::RemoveMailItem
; Function compile flags: /Ogty
;	COMDAT ?RemoveMailItem@CMailBox@@QAEHK@Z
_TEXT	SEGMENT
_nMail$ = 8						; size = 4
?RemoveMailItem@CMailBox@@QAEHK@Z PROC NEAR		; CMailBox::RemoveMailItem, COMDAT
; _this$ = ecx

; 434  : 	CMail* pMail	= GetMail( nMail );

  00000	8b 41 08	 mov	 eax, DWORD PTR [ecx+8]
  00003	8b 49 0c	 mov	 ecx, DWORD PTR [ecx+12]
  00006	3b c1		 cmp	 eax, ecx
  00008	56		 push	 esi
  00009	74 3a		 je	 SHORT $L226829
  0000b	8b 54 24 08	 mov	 edx, DWORD PTR _nMail$[esp]
  0000f	90		 npad	 1
$L232203:
  00010	8b 30		 mov	 esi, DWORD PTR [eax]
  00012	39 56 04	 cmp	 DWORD PTR [esi+4], edx
  00015	74 07		 je	 SHORT $L232236
  00017	83 c0 04	 add	 eax, 4
  0001a	3b c1		 cmp	 eax, ecx
  0001c	75 f2		 jne	 SHORT $L232203
$L232236:
  0001e	3b c1		 cmp	 eax, ecx
  00020	74 23		 je	 SHORT $L226829
  00022	8b 30		 mov	 esi, DWORD PTR [eax]

; 435  : 	if( pMail && pMail->m_pItemElem )

  00024	85 f6		 test	 esi, esi
  00026	74 1d		 je	 SHORT $L226829
  00028	8b 4e 0c	 mov	 ecx, DWORD PTR [esi+12]
  0002b	85 c9		 test	 ecx, ecx
  0002d	74 16		 je	 SHORT $L226829

; 436  : 	{
; 437  : 		SAFE_DELETE( pMail->m_pItemElem );

  0002f	8b 01		 mov	 eax, DWORD PTR [ecx]
  00031	6a 01		 push	 1
  00033	ff 10		 call	 DWORD PTR [eax]
  00035	c7 46 0c 00 00
	00 00		 mov	 DWORD PTR [esi+12], 0

; 438  : 
; 439  : #ifdef __CLIENT
; 440  : 		Error( _T( "CMailBox::RemoveMailItem nMail:%d" ), nMail );
; 441  : #endif
; 442  : 		return TRUE;

  0003c	b8 01 00 00 00	 mov	 eax, 1
  00041	5e		 pop	 esi

; 449  : }

  00042	c2 04 00	 ret	 4
$L226829:

; 443  : 	}
; 444  : 
; 445  : #ifdef __CLIENT
; 446  : 		Error( _T( "CMailBox::RemoveMailItem Failed nMail:%d" ), nMail );
; 447  : #endif
; 448  : 	return FALSE;

  00045	33 c0		 xor	 eax, eax
  00047	5e		 pop	 esi

; 449  : }

  00048	c2 04 00	 ret	 4
?RemoveMailItem@CMailBox@@QAEHK@Z ENDP			; CMailBox::RemoveMailItem
_TEXT	ENDS
PUBLIC	?RemoveMailGold@CMailBox@@QAEHK@Z		; CMailBox::RemoveMailGold
; Function compile flags: /Ogty
;	COMDAT ?RemoveMailGold@CMailBox@@QAEHK@Z
_TEXT	SEGMENT
_nMail$ = 8						; size = 4
?RemoveMailGold@CMailBox@@QAEHK@Z PROC NEAR		; CMailBox::RemoveMailGold, COMDAT
; _this$ = ecx

; 453  : 	CMail* pMail	= GetMail( nMail );

  00000	8b 41 08	 mov	 eax, DWORD PTR [ecx+8]
  00003	8b 49 0c	 mov	 ecx, DWORD PTR [ecx+12]
  00006	3b c1		 cmp	 eax, ecx
  00008	74 35		 je	 SHORT $L226839
  0000a	8b 54 24 04	 mov	 edx, DWORD PTR _nMail$[esp-4]
  0000e	56		 push	 esi
  0000f	90		 npad	 1
$L232380:
  00010	8b 30		 mov	 esi, DWORD PTR [eax]
  00012	39 56 04	 cmp	 DWORD PTR [esi+4], edx
  00015	74 07		 je	 SHORT $L232413
  00017	83 c0 04	 add	 eax, 4
  0001a	3b c1		 cmp	 eax, ecx
  0001c	75 f2		 jne	 SHORT $L232380
$L232413:
  0001e	3b c1		 cmp	 eax, ecx
  00020	5e		 pop	 esi
  00021	74 1c		 je	 SHORT $L226839
  00023	8b 00		 mov	 eax, DWORD PTR [eax]

; 454  : 	if( pMail && pMail->m_nGold > 0 )

  00025	85 c0		 test	 eax, eax
  00027	74 16		 je	 SHORT $L226839
  00029	8b 48 10	 mov	 ecx, DWORD PTR [eax+16]
  0002c	85 c9		 test	 ecx, ecx
  0002e	76 0f		 jbe	 SHORT $L226839

; 455  : 	{
; 456  : 		pMail->m_nGold	= 0;

  00030	c7 40 10 00 00
	00 00		 mov	 DWORD PTR [eax+16], 0

; 457  : #ifdef __CLIENT
; 458  : 		Error( _T( "CMailBox::RemoveMailGold nMail:%d" ), nMail );
; 459  : #endif
; 460  : 		return TRUE;

  00037	b8 01 00 00 00	 mov	 eax, 1

; 466  : }

  0003c	c2 04 00	 ret	 4
$L226839:

; 461  : 	}
; 462  : #ifdef __CLIENT
; 463  : 		Error( _T( "CMailBox::RemoveMailGold Failed nMail:%d" ), nMail );
; 464  : #endif
; 465  : 	return FALSE;

  0003f	33 c0		 xor	 eax, eax

; 466  : }

  00041	c2 04 00	 ret	 4
?RemoveMailGold@CMailBox@@QAEHK@Z ENDP			; CMailBox::RemoveMailGold
_TEXT	ENDS
PUBLIC	?ReadMail@CMailBox@@QAEHK@Z			; CMailBox::ReadMail
; Function compile flags: /Ogty
;	COMDAT ?ReadMail@CMailBox@@QAEHK@Z
_TEXT	SEGMENT
_nMail$ = 8						; size = 4
?ReadMail@CMailBox@@QAEHK@Z PROC NEAR			; CMailBox::ReadMail, COMDAT
; _this$ = ecx

; 470  : 	CMail* pMail	= GetMail( nMail );

  00000	8b 41 08	 mov	 eax, DWORD PTR [ecx+8]
  00003	8b 49 0c	 mov	 ecx, DWORD PTR [ecx+12]
  00006	3b c1		 cmp	 eax, ecx
  00008	74 2b		 je	 SHORT $L226845
  0000a	8b 54 24 04	 mov	 edx, DWORD PTR _nMail$[esp-4]
  0000e	56		 push	 esi
  0000f	90		 npad	 1
$L232566:
  00010	8b 30		 mov	 esi, DWORD PTR [eax]
  00012	39 56 04	 cmp	 DWORD PTR [esi+4], edx
  00015	74 07		 je	 SHORT $L232591
  00017	83 c0 04	 add	 eax, 4
  0001a	3b c1		 cmp	 eax, ecx
  0001c	75 f2		 jne	 SHORT $L232566
$L232591:
  0001e	3b c1		 cmp	 eax, ecx
  00020	5e		 pop	 esi
  00021	74 12		 je	 SHORT $L226845
  00023	8b 00		 mov	 eax, DWORD PTR [eax]

; 471  : 	if( pMail )

  00025	85 c0		 test	 eax, eax
  00027	74 0c		 je	 SHORT $L226845

; 472  : 	{
; 473  : 		pMail->m_byRead	= TRUE;

  00029	c6 40 18 01	 mov	 BYTE PTR [eax+24], 1

; 474  : 
; 475  : #ifdef __CLIENT
; 476  : 		Error( _T( "CMailBox::ReadMail nMail:%d" ), nMail );
; 477  : #endif
; 478  : 		return TRUE;

  0002d	b8 01 00 00 00	 mov	 eax, 1

; 485  : }

  00032	c2 04 00	 ret	 4
$L226845:

; 479  : 	}
; 480  : 
; 481  : #ifdef __CLIENT
; 482  : 		Error( _T( "CMailBox::ReadMail Failed nMail:%d" ), nMail );
; 483  : #endif
; 484  : 	return FALSE;

  00035	33 c0		 xor	 eax, eax

; 485  : }

  00037	c2 04 00	 ret	 4
?ReadMail@CMailBox@@QAEHK@Z ENDP			; CMailBox::ReadMail
_TEXT	ENDS
PUBLIC	?IsStampedMailExists@CMailBox@@QAEHXZ		; CMailBox::IsStampedMailExists
; Function compile flags: /Ogty
;	COMDAT ?IsStampedMailExists@CMailBox@@QAEHXZ
_TEXT	SEGMENT
?IsStampedMailExists@CMailBox@@QAEHXZ PROC NEAR		; CMailBox::IsStampedMailExists, COMDAT
; _this$ = ecx

; 489  : 	MailVectorItr i = begin();

  00000	8b 41 08	 mov	 eax, DWORD PTR [ecx+8]

; 499  : 		}
; 500  : 	}
; 501  : 
; 502  : #ifdef __CLIENT
; 503  : 		Error( _T( "CMailBox::IsStampedMailExists Failed" ) );
; 504  : #endif
; 505  : 	return FALSE;

  00003	8b 49 0c	 mov	 ecx, DWORD PTR [ecx+12]
  00006	3b c1		 cmp	 eax, ecx
  00008	53		 push	 ebx
  00009	74 15		 je	 SHORT $L226855
  0000b	eb 03 8d 49 00	 npad	 5

; 490  : 	for( ; i != end(); ++i )

$L232616:

; 491  : 	{
; 492  : 		CMail* pMail	= *i;
; 493  : 		if( pMail->m_byRead == FALSE )

  00010	8b 10		 mov	 edx, DWORD PTR [eax]
  00012	8a 5a 18	 mov	 bl, BYTE PTR [edx+24]
  00015	84 db		 test	 bl, bl
  00017	74 0b		 je	 SHORT $L232650
  00019	83 c0 04	 add	 eax, 4
  0001c	3b c1		 cmp	 eax, ecx
  0001e	75 f0		 jne	 SHORT $L232616
$L226855:

; 499  : 		}
; 500  : 	}
; 501  : 
; 502  : #ifdef __CLIENT
; 503  : 		Error( _T( "CMailBox::IsStampedMailExists Failed" ) );
; 504  : #endif
; 505  : 	return FALSE;

  00020	33 c0		 xor	 eax, eax
  00022	5b		 pop	 ebx

; 506  : }

  00023	c3		 ret	 0
$L232650:

; 494  : 		{
; 495  : #ifdef __CLIENT
; 496  : 		Error( _T( "CMailBox::IsStampedMailExists" ) );
; 497  : #endif
; 498  : 			return TRUE;

  00024	b8 01 00 00 00	 mov	 eax, 1
  00029	5b		 pop	 ebx

; 506  : }

  0002a	c3		 ret	 0
?IsStampedMailExists@CMailBox@@QAEHXZ ENDP		; CMailBox::IsStampedMailExists
_TEXT	ENDS
PUBLIC	??1?$vector@PAVCMail@@V?$allocator@PAVCMail@@@std@@@std@@QAE@XZ ; std::vector<CMail *,std::allocator<CMail *> >::~vector<CMail *,std::allocator<CMail *> >
; Function compile flags: /Ogty
; File c:\program files\microsoft visual studio .net 2003\vc7\include\vector
;	COMDAT ??1?$vector@PAVCMail@@V?$allocator@PAVCMail@@@std@@@std@@QAE@XZ
_TEXT	SEGMENT
??1?$vector@PAVCMail@@V?$allocator@PAVCMail@@@std@@@std@@QAE@XZ PROC NEAR ; std::vector<CMail *,std::allocator<CMail *> >::~vector<CMail *,std::allocator<CMail *> >, COMDAT
; _this$ = ecx

; 387  : 		{	// destroy the object

  00000	56		 push	 esi
  00001	8b f1		 mov	 esi, ecx

; 388  : 		_Tidy();

  00003	8b 46 04	 mov	 eax, DWORD PTR [esi+4]
  00006	85 c0		 test	 eax, eax
  00008	74 09		 je	 SHORT $L232666
  0000a	50		 push	 eax
  0000b	e8 00 00 00 00	 call	 ??3@YAXPAX@Z		; operator delete
  00010	83 c4 04	 add	 esp, 4
$L232666:
  00013	c7 46 04 00 00
	00 00		 mov	 DWORD PTR [esi+4], 0
  0001a	c7 46 08 00 00
	00 00		 mov	 DWORD PTR [esi+8], 0
  00021	c7 46 0c 00 00
	00 00		 mov	 DWORD PTR [esi+12], 0
  00028	5e		 pop	 esi

; 389  : 		}

  00029	c3		 ret	 0
??1?$vector@PAVCMail@@V?$allocator@PAVCMail@@@std@@@std@@QAE@XZ ENDP ; std::vector<CMail *,std::allocator<CMail *> >::~vector<CMail *,std::allocator<CMail *> >
_TEXT	ENDS
PUBLIC	?erase@?$vector@PAVCMail@@V?$allocator@PAVCMail@@@std@@@std@@QAE?AViterator@12@V312@@Z ; std::vector<CMail *,std::allocator<CMail *> >::erase
; Function compile flags: /Ogty
;	COMDAT ?erase@?$vector@PAVCMail@@V?$allocator@PAVCMail@@@std@@@std@@QAE?AViterator@12@V312@@Z
_TEXT	SEGMENT
___$ReturnUdt$ = 8					; size = 4
__Where$ = 12						; size = 4
?erase@?$vector@PAVCMail@@V?$allocator@PAVCMail@@@std@@@std@@QAE?AViterator@12@V312@@Z PROC NEAR ; std::vector<CMail *,std::allocator<CMail *> >::erase, COMDAT
; _this$ = ecx

; 723  : 		{	// erase element at where

  00000	56		 push	 esi
  00001	57		 push	 edi

; 724  : 		copy(_ITER_BASE(_Where) + 1, _Mylast, _ITER_BASE(_Where));

  00002	8b 7c 24 10	 mov	 edi, DWORD PTR __Where$[esp+4]
  00006	8b f1		 mov	 esi, ecx
  00008	8b 4e 08	 mov	 ecx, DWORD PTR [esi+8]
  0000b	8d 47 04	 lea	 eax, DWORD PTR [edi+4]
  0000e	2b c8		 sub	 ecx, eax
  00010	c1 f9 02	 sar	 ecx, 2
  00013	c1 e1 02	 shl	 ecx, 2
  00016	51		 push	 ecx
  00017	50		 push	 eax
  00018	57		 push	 edi
  00019	e8 00 00 00 00	 call	 _memmove

; 725  : 		_Destroy(_Mylast - 1, _Mylast);
; 726  : 		--_Mylast;

  0001e	83 46 08 fc	 add	 DWORD PTR [esi+8], -4	; fffffffcH

; 727  : 		return (_Where);

  00022	8b 44 24 18	 mov	 eax, DWORD PTR ___$ReturnUdt$[esp+16]
  00026	83 c4 0c	 add	 esp, 12			; 0000000cH
  00029	89 38		 mov	 DWORD PTR [eax], edi
  0002b	5f		 pop	 edi
  0002c	5e		 pop	 esi

; 728  : 		}

  0002d	c2 08 00	 ret	 8
?erase@?$vector@PAVCMail@@V?$allocator@PAVCMail@@@std@@@std@@QAE?AViterator@12@V312@@Z ENDP ; std::vector<CMail *,std::allocator<CMail *> >::erase
_TEXT	ENDS
PUBLIC	?clear@?$vector@PAVCMail@@V?$allocator@PAVCMail@@@std@@@std@@QAEXXZ ; std::vector<CMail *,std::allocator<CMail *> >::clear
; Function compile flags: /Ogty
;	COMDAT ?clear@?$vector@PAVCMail@@V?$allocator@PAVCMail@@@std@@@std@@QAEXXZ
_TEXT	SEGMENT
?clear@?$vector@PAVCMail@@V?$allocator@PAVCMail@@@std@@@std@@QAEXXZ PROC NEAR ; std::vector<CMail *,std::allocator<CMail *> >::clear, COMDAT
; _this$ = ecx

; 743  : 		{	// erase all

  00000	56		 push	 esi
  00001	8b f1		 mov	 esi, ecx

; 744  : 		_Tidy();

  00003	8b 46 04	 mov	 eax, DWORD PTR [esi+4]
  00006	85 c0		 test	 eax, eax
  00008	74 09		 je	 SHORT $L232703
  0000a	50		 push	 eax
  0000b	e8 00 00 00 00	 call	 ??3@YAXPAX@Z		; operator delete
  00010	83 c4 04	 add	 esp, 4
$L232703:
  00013	c7 46 04 00 00
	00 00		 mov	 DWORD PTR [esi+4], 0
  0001a	c7 46 08 00 00
	00 00		 mov	 DWORD PTR [esi+8], 0
  00021	c7 46 0c 00 00
	00 00		 mov	 DWORD PTR [esi+12], 0
  00028	5e		 pop	 esi

; 745  : 		}

  00029	c3		 ret	 0
?clear@?$vector@PAVCMail@@V?$allocator@PAVCMail@@@std@@@std@@QAEXXZ ENDP ; std::vector<CMail *,std::allocator<CMail *> >::clear
_TEXT	ENDS
PUBLIC	?clear@?$_Tree@V?$_Tmap_traits@KPAVCMailBox@@U?$less@K@std@@V?$allocator@U?$pair@$$CBKPAVCMailBox@@@std@@@3@$0A@@std@@@std@@QAEXXZ ; std::_Tree<std::_Tmap_traits<unsigned long,CMailBox *,std::less<unsigned long>,std::allocator<std::pair<unsigned long const ,CMailBox *> >,0> >::clear
; Function compile flags: /Ogty
; File c:\program files\microsoft visual studio .net 2003\vc7\include\xtree
;	COMDAT ?clear@?$_Tree@V?$_Tmap_traits@KPAVCMailBox@@U?$less@K@std@@V?$allocator@U?$pair@$$CBKPAVCMailBox@@@std@@@3@$0A@@std@@@std@@QAEXXZ
_TEXT	SEGMENT
?clear@?$_Tree@V?$_Tmap_traits@KPAVCMailBox@@U?$less@K@std@@V?$allocator@U?$pair@$$CBKPAVCMailBox@@@std@@@3@$0A@@std@@@std@@QAEXXZ PROC NEAR ; std::_Tree<std::_Tmap_traits<unsigned long,CMailBox *,std::less<unsigned long>,std::allocator<std::pair<unsigned long const ,CMailBox *> >,0> >::clear, COMDAT
; _this$ = ecx

; 780  : 		{	// erase all

  00000	56		 push	 esi
  00001	8b f1		 mov	 esi, ecx

; 781  : 		_Erase(_Root());

  00003	8b 46 04	 mov	 eax, DWORD PTR [esi+4]
  00006	8b 48 04	 mov	 ecx, DWORD PTR [eax+4]
  00009	51		 push	 ecx
  0000a	8b ce		 mov	 ecx, esi
  0000c	e8 00 00 00 00	 call	 ?_Erase@?$_Tree@V?$_Tmap_traits@KPAVCMailBox@@U?$less@K@std@@V?$allocator@U?$pair@$$CBKPAVCMailBox@@@std@@@3@$0A@@std@@@std@@IAEXPAU_Node@?$_Tree_nod@V?$_Tmap_traits@KPAVCMailBox@@U?$less@K@std@@V?$allocator@U?$pair@$$CBKPAVCMailBox@@@std@@@3@$0A@@std@@@2@@Z ; std::_Tree<std::_Tmap_traits<unsigned long,CMailBox *,std::less<unsigned long>,std::allocator<std::pair<unsigned long const ,CMailBox *> >,0> >::_Erase

; 782  : 		_Root() = _Myhead, _Mysize = 0;

  00011	8b 46 04	 mov	 eax, DWORD PTR [esi+4]
  00014	89 40 04	 mov	 DWORD PTR [eax+4], eax

; 783  : 		_Lmost() = _Myhead, _Rmost() = _Myhead;

  00017	8b 46 04	 mov	 eax, DWORD PTR [esi+4]
  0001a	c7 46 08 00 00
	00 00		 mov	 DWORD PTR [esi+8], 0
  00021	89 00		 mov	 DWORD PTR [eax], eax
  00023	8b 76 04	 mov	 esi, DWORD PTR [esi+4]
  00026	89 76 08	 mov	 DWORD PTR [esi+8], esi
  00029	5e		 pop	 esi

; 784  : 		}

  0002a	c3		 ret	 0
?clear@?$_Tree@V?$_Tmap_traits@KPAVCMailBox@@U?$less@K@std@@V?$allocator@U?$pair@$$CBKPAVCMailBox@@@std@@@3@$0A@@std@@@std@@QAEXXZ ENDP ; std::_Tree<std::_Tmap_traits<unsigned long,CMailBox *,std::less<unsigned long>,std::allocator<std::pair<unsigned long const ,CMailBox *> >,0> >::clear
_TEXT	ENDS
PUBLIC	?find@?$_Tree@V?$_Tmap_traits@KPAVCMailBox@@U?$less@K@std@@V?$allocator@U?$pair@$$CBKPAVCMailBox@@@std@@@3@$0A@@std@@@std@@QAE?AViterator@12@ABK@Z ; std::_Tree<std::_Tmap_traits<unsigned long,CMailBox *,std::less<unsigned long>,std::allocator<std::pair<unsigned long const ,CMailBox *> >,0> >::find
; Function compile flags: /Ogty
;	COMDAT ?find@?$_Tree@V?$_Tmap_traits@KPAVCMailBox@@U?$less@K@std@@V?$allocator@U?$pair@$$CBKPAVCMailBox@@@std@@@3@$0A@@std@@@std@@QAE?AViterator@12@ABK@Z
_TEXT	SEGMENT
$T232747 = -4						; size = 4
___$ReturnUdt$ = 8					; size = 4
__Where$ = 12						; size = 4
__Keyval$ = 12						; size = 4
?find@?$_Tree@V?$_Tmap_traits@KPAVCMailBox@@U?$less@K@std@@V?$allocator@U?$pair@$$CBKPAVCMailBox@@@std@@@3@$0A@@std@@@std@@QAE?AViterator@12@ABK@Z PROC NEAR ; std::_Tree<std::_Tmap_traits<unsigned long,CMailBox *,std::less<unsigned long>,std::allocator<std::pair<unsigned long const ,CMailBox *> >,0> >::find, COMDAT
; _this$ = ecx

; 787  : 		{	// find an element in mutable sequence that matches _Keyval

  00000	51		 push	 ecx

; 788  : 		iterator _Where = lower_bound(_Keyval);

  00001	8b 51 04	 mov	 edx, DWORD PTR [ecx+4]
  00004	8b 42 04	 mov	 eax, DWORD PTR [edx+4]
  00007	53		 push	 ebx
  00008	8a 58 15	 mov	 bl, BYTE PTR [eax+21]
  0000b	84 db		 test	 bl, bl
  0000d	56		 push	 esi
  0000e	57		 push	 edi
  0000f	8b 7c 24 18	 mov	 edi, DWORD PTR __Keyval$[esp+12]
  00013	75 17		 jne	 SHORT $L232824
  00015	8b 37		 mov	 esi, DWORD PTR [edi]
$L232823:
  00017	39 70 0c	 cmp	 DWORD PTR [eax+12], esi
  0001a	73 05		 jae	 SHORT $L232825
  0001c	8b 40 08	 mov	 eax, DWORD PTR [eax+8]
  0001f	eb 04		 jmp	 SHORT $L232826
$L232825:
  00021	8b d0		 mov	 edx, eax
  00023	8b 00		 mov	 eax, DWORD PTR [eax]
$L232826:
  00025	8a 58 15	 mov	 bl, BYTE PTR [eax+21]
  00028	84 db		 test	 bl, bl
  0002a	74 eb		 je	 SHORT $L232823
$L232824:

; 789  : 		return (_Where == end() || this->comp(_Keyval, _Key(_Where._Mynode()))
; 790  : 			? end() : _Where);

  0002c	8b 41 04	 mov	 eax, DWORD PTR [ecx+4]
  0002f	3b d0		 cmp	 edx, eax
  00031	89 54 24 18	 mov	 DWORD PTR __Where$[esp+12], edx
  00035	74 1a		 je	 SHORT $L232746
  00037	8b 0f		 mov	 ecx, DWORD PTR [edi]
  00039	3b 4a 0c	 cmp	 ecx, DWORD PTR [edx+12]
  0003c	72 13		 jb	 SHORT $L232746
  0003e	8d 44 24 18	 lea	 eax, DWORD PTR __Where$[esp+12]
  00042	8b 10		 mov	 edx, DWORD PTR [eax]
  00044	8b 44 24 14	 mov	 eax, DWORD PTR ___$ReturnUdt$[esp+12]
  00048	5f		 pop	 edi
  00049	5e		 pop	 esi
  0004a	89 10		 mov	 DWORD PTR [eax], edx
  0004c	5b		 pop	 ebx

; 791  : 		}

  0004d	59		 pop	 ecx
  0004e	c2 08 00	 ret	 8
$L232746:

; 789  : 		return (_Where == end() || this->comp(_Keyval, _Key(_Where._Mynode()))
; 790  : 			? end() : _Where);

  00051	89 44 24 0c	 mov	 DWORD PTR $T232747[esp+16], eax
  00055	8d 44 24 0c	 lea	 eax, DWORD PTR $T232747[esp+16]
  00059	8b 10		 mov	 edx, DWORD PTR [eax]
  0005b	8b 44 24 14	 mov	 eax, DWORD PTR ___$ReturnUdt$[esp+12]
  0005f	5f		 pop	 edi
  00060	5e		 pop	 esi
  00061	89 10		 mov	 DWORD PTR [eax], edx
  00063	5b		 pop	 ebx

; 791  : 		}

  00064	59		 pop	 ecx
  00065	c2 08 00	 ret	 8
?find@?$_Tree@V?$_Tmap_traits@KPAVCMailBox@@U?$less@K@std@@V?$allocator@U?$pair@$$CBKPAVCMailBox@@@std@@@3@$0A@@std@@@std@@QAE?AViterator@12@ABK@Z ENDP ; std::_Tree<std::_Tmap_traits<unsigned long,CMailBox *,std::less<unsigned long>,std::allocator<std::pair<unsigned long const ,CMailBox *> >,0> >::find
_TEXT	ENDS
PUBLIC	??Eiterator@?$_Tree@V?$_Tmap_traits@KPAVCMailBox@@U?$less@K@std@@V?$allocator@U?$pair@$$CBKPAVCMailBox@@@std@@@3@$0A@@std@@@std@@QAEAAV012@XZ ; std::_Tree<std::_Tmap_traits<unsigned long,CMailBox *,std::less<unsigned long>,std::allocator<std::pair<unsigned long const ,CMailBox *> >,0> >::iterator::operator++
; Function compile flags: /Ogty
;	COMDAT ??Eiterator@?$_Tree@V?$_Tmap_traits@KPAVCMailBox@@U?$less@K@std@@V?$allocator@U?$pair@$$CBKPAVCMailBox@@@std@@@3@$0A@@std@@@std@@QAEAAV012@XZ
_TEXT	SEGMENT
??Eiterator@?$_Tree@V?$_Tmap_traits@KPAVCMailBox@@U?$less@K@std@@V?$allocator@U?$pair@$$CBKPAVCMailBox@@@std@@@3@$0A@@std@@@std@@QAEAAV012@XZ PROC NEAR ; std::_Tree<std::_Tmap_traits<unsigned long,CMailBox *,std::less<unsigned long>,std::allocator<std::pair<unsigned long const ,CMailBox *> >,0> >::iterator::operator++, COMDAT
; _this$ = ecx

; 326  : 			{	// preincrement

  00000	56		 push	 esi
  00001	8b f1		 mov	 esi, ecx

; 327  : 			++(*(const_iterator *)this);

  00003	e8 00 00 00 00	 call	 ?_Inc@const_iterator@?$_Tree@V?$_Tmap_traits@KPAVCMailBox@@U?$less@K@std@@V?$allocator@U?$pair@$$CBKPAVCMailBox@@@std@@@3@$0A@@std@@@std@@QAEXXZ ; std::_Tree<std::_Tmap_traits<unsigned long,CMailBox *,std::less<unsigned long>,std::allocator<std::pair<unsigned long const ,CMailBox *> >,0> >::const_iterator::_Inc

; 328  : 			return (*this);

  00008	8b c6		 mov	 eax, esi
  0000a	5e		 pop	 esi

; 329  : 			}

  0000b	c3		 ret	 0
??Eiterator@?$_Tree@V?$_Tmap_traits@KPAVCMailBox@@U?$less@K@std@@V?$allocator@U?$pair@$$CBKPAVCMailBox@@@std@@@3@$0A@@std@@@std@@QAEAAV012@XZ ENDP ; std::_Tree<std::_Tmap_traits<unsigned long,CMailBox *,std::less<unsigned long>,std::allocator<std::pair<unsigned long const ,CMailBox *> >,0> >::iterator::operator++
_TEXT	ENDS
PUBLIC	?_Ufill@?$vector@PAVCMail@@V?$allocator@PAVCMail@@@std@@@std@@IAEPAPAVCMail@@PAPAV3@IABQAV3@@Z ; std::vector<CMail *,std::allocator<CMail *> >::_Ufill
; Function compile flags: /Ogty
; File c:\program files\microsoft visual studio .net 2003\vc7\include\vector
;	COMDAT ?_Ufill@?$vector@PAVCMail@@V?$allocator@PAVCMail@@@std@@@std@@IAEPAPAVCMail@@PAPAV3@IABQAV3@@Z
_TEXT	SEGMENT
__Ptr$ = 8						; size = 4
__Count$ = 12						; size = 4
__Val$ = 16						; size = 4
?_Ufill@?$vector@PAVCMail@@V?$allocator@PAVCMail@@@std@@@std@@IAEPAPAVCMail@@PAPAV3@IABQAV3@@Z PROC NEAR ; std::vector<CMail *,std::allocator<CMail *> >::_Ufill, COMDAT
; _this$ = ecx

; 877  : 		{	// copy initializing _Count * _Val, using allocator

  00000	56		 push	 esi

; 878  : 		_Uninitialized_fill_n(_Ptr, _Count, _Val, this->_Alval);

  00001	8b 74 24 0c	 mov	 esi, DWORD PTR __Count$[esp]
  00005	85 f6		 test	 esi, esi
  00007	57		 push	 edi
  00008	8b 7c 24 0c	 mov	 edi, DWORD PTR __Ptr$[esp+4]
  0000c	8b c7		 mov	 eax, edi
  0000e	76 12		 jbe	 SHORT $L232951
  00010	8b 54 24 14	 mov	 edx, DWORD PTR __Val$[esp+4]
  00014	8b ce		 mov	 ecx, esi
  00016	53		 push	 ebx
$L232944:
  00017	8b 1a		 mov	 ebx, DWORD PTR [edx]
  00019	89 18		 mov	 DWORD PTR [eax], ebx
  0001b	83 c0 04	 add	 eax, 4
  0001e	49		 dec	 ecx
  0001f	75 f6		 jne	 SHORT $L232944
  00021	5b		 pop	 ebx
$L232951:

; 879  : 		return (_Ptr + _Count);

  00022	8d 04 b7	 lea	 eax, DWORD PTR [edi+esi*4]
  00025	5f		 pop	 edi
  00026	5e		 pop	 esi

; 880  : 		}

  00027	c2 0c 00	 ret	 12			; 0000000cH
?_Ufill@?$vector@PAVCMail@@V?$allocator@PAVCMail@@@std@@@std@@IAEPAPAVCMail@@PAPAV3@IABQAV3@@Z ENDP ; std::vector<CMail *,std::allocator<CMail *> >::_Ufill
_TEXT	ENDS
PUBLIC	??Fiterator@?$_Tree@V?$_Tmap_traits@KPAVCMailBox@@U?$less@K@std@@V?$allocator@U?$pair@$$CBKPAVCMailBox@@@std@@@3@$0A@@std@@@std@@QAEAAV012@XZ ; std::_Tree<std::_Tmap_traits<unsigned long,CMailBox *,std::less<unsigned long>,std::allocator<std::pair<unsigned long const ,CMailBox *> >,0> >::iterator::operator--
; Function compile flags: /Ogty
; File c:\program files\microsoft visual studio .net 2003\vc7\include\xtree
;	COMDAT ??Fiterator@?$_Tree@V?$_Tmap_traits@KPAVCMailBox@@U?$less@K@std@@V?$allocator@U?$pair@$$CBKPAVCMailBox@@@std@@@3@$0A@@std@@@std@@QAEAAV012@XZ
_TEXT	SEGMENT
??Fiterator@?$_Tree@V?$_Tmap_traits@KPAVCMailBox@@U?$less@K@std@@V?$allocator@U?$pair@$$CBKPAVCMailBox@@@std@@@3@$0A@@std@@@std@@QAEAAV012@XZ PROC NEAR ; std::_Tree<std::_Tmap_traits<unsigned long,CMailBox *,std::less<unsigned long>,std::allocator<std::pair<unsigned long const ,CMailBox *> >,0> >::iterator::operator--, COMDAT
; _this$ = ecx

; 339  : 			{	// predecrement

  00000	56		 push	 esi
  00001	8b f1		 mov	 esi, ecx

; 340  : 			--(*(const_iterator *)this);

  00003	e8 00 00 00 00	 call	 ?_Dec@const_iterator@?$_Tree@V?$_Tmap_traits@KPAVCMailBox@@U?$less@K@std@@V?$allocator@U?$pair@$$CBKPAVCMailBox@@@std@@@3@$0A@@std@@@std@@QAEXXZ ; std::_Tree<std::_Tmap_traits<unsigned long,CMailBox *,std::less<unsigned long>,std::allocator<std::pair<unsigned long const ,CMailBox *> >,0> >::const_iterator::_Dec

; 341  : 			return (*this);

  00008	8b c6		 mov	 eax, esi
  0000a	5e		 pop	 esi

; 342  : 			}

  0000b	c3		 ret	 0
??Fiterator@?$_Tree@V?$_Tmap_traits@KPAVCMailBox@@U?$less@K@std@@V?$allocator@U?$pair@$$CBKPAVCMailBox@@@std@@@3@$0A@@std@@@std@@QAEAAV012@XZ ENDP ; std::_Tree<std::_Tmap_traits<unsigned long,CMailBox *,std::less<unsigned long>,std::allocator<std::pair<unsigned long const ,CMailBox *> >,0> >::iterator::operator--
_TEXT	ENDS
PUBLIC	?_Init@?$_Tree@V?$_Tmap_traits@KPAVCMailBox@@U?$less@K@std@@V?$allocator@U?$pair@$$CBKPAVCMailBox@@@std@@@3@$0A@@std@@@std@@IAEXXZ ; std::_Tree<std::_Tmap_traits<unsigned long,CMailBox *,std::less<unsigned long>,std::allocator<std::pair<unsigned long const ,CMailBox *> >,0> >::_Init
; Function compile flags: /Ogty
;	COMDAT ?_Init@?$_Tree@V?$_Tmap_traits@KPAVCMailBox@@U?$less@K@std@@V?$allocator@U?$pair@$$CBKPAVCMailBox@@@std@@@3@$0A@@std@@@std@@IAEXXZ
_TEXT	SEGMENT
?_Init@?$_Tree@V?$_Tmap_traits@KPAVCMailBox@@U?$less@K@std@@V?$allocator@U?$pair@$$CBKPAVCMailBox@@@std@@@3@$0A@@std@@@std@@IAEXXZ PROC NEAR ; std::_Tree<std::_Tmap_traits<unsigned long,CMailBox *,std::less<unsigned long>,std::allocator<std::pair<unsigned long const ,CMailBox *> >,0> >::_Init, COMDAT
; _this$ = ecx

; 901  : 		{	// create head/nil node and make tree empty

  00000	56		 push	 esi
  00001	8b f1		 mov	 esi, ecx

; 902  : 		_Myhead = _Buynode();

  00003	e8 00 00 00 00	 call	 ?_Buynode@?$_Tree@V?$_Tmap_traits@KPAVCMailBox@@U?$less@K@std@@V?$allocator@U?$pair@$$CBKPAVCMailBox@@@std@@@3@$0A@@std@@@std@@IAEPAU_Node@?$_Tree_nod@V?$_Tmap_traits@KPAVCMailBox@@U?$less@K@std@@V?$allocator@U?$pair@$$CBKPAVCMailBox@@@std@@@3@$0A@@std@@@2@XZ ; std::_Tree<std::_Tmap_traits<unsigned long,CMailBox *,std::less<unsigned long>,std::allocator<std::pair<unsigned long const ,CMailBox *> >,0> >::_Buynode
  00008	89 46 04	 mov	 DWORD PTR [esi+4], eax

; 903  : 		_Isnil(_Myhead) = true;

  0000b	c6 40 15 01	 mov	 BYTE PTR [eax+21], 1

; 904  : 		_Root() = _Myhead;

  0000f	8b 46 04	 mov	 eax, DWORD PTR [esi+4]
  00012	89 40 04	 mov	 DWORD PTR [eax+4], eax

; 905  : 		_Lmost() = _Myhead, _Rmost() = _Myhead;

  00015	8b 46 04	 mov	 eax, DWORD PTR [esi+4]
  00018	89 00		 mov	 DWORD PTR [eax], eax
  0001a	8b 46 04	 mov	 eax, DWORD PTR [esi+4]
  0001d	89 40 08	 mov	 DWORD PTR [eax+8], eax

; 906  : 		_Mysize = 0;

  00020	c7 46 08 00 00
	00 00		 mov	 DWORD PTR [esi+8], 0
  00027	5e		 pop	 esi

; 907  : 		}

  00028	c3		 ret	 0
?_Init@?$_Tree@V?$_Tmap_traits@KPAVCMailBox@@U?$less@K@std@@V?$allocator@U?$pair@$$CBKPAVCMailBox@@@std@@@3@$0A@@std@@@std@@IAEXXZ ENDP ; std::_Tree<std::_Tmap_traits<unsigned long,CMailBox *,std::less<unsigned long>,std::allocator<std::pair<unsigned long const ,CMailBox *> >,0> >::_Init
_TEXT	ENDS
PUBLIC	??0?$_Tree_val@V?$_Tmap_traits@KPAVCMailBox@@U?$less@K@std@@V?$allocator@U?$pair@$$CBKPAVCMailBox@@@std@@@3@$0A@@std@@@std@@IAE@ABU?$less@K@1@V?$allocator@U?$pair@$$CBKPAVCMailBox@@@std@@@1@@Z ; std::_Tree_val<std::_Tmap_traits<unsigned long,CMailBox *,std::less<unsigned long>,std::allocator<std::pair<unsigned long const ,CMailBox *> >,0> >::_Tree_val<std::_Tmap_traits<unsigned long,CMailBox *,std::less<unsigned long>,std::allocator<std::pair<unsigned long const ,CMailBox *> >,0> >
; Function compile flags: /Ogty
;	COMDAT ??0?$_Tree_val@V?$_Tmap_traits@KPAVCMailBox@@U?$less@K@std@@V?$allocator@U?$pair@$$CBKPAVCMailBox@@@std@@@3@$0A@@std@@@std@@IAE@ABU?$less@K@1@V?$allocator@U?$pair@$$CBKPAVCMailBox@@@std@@@1@@Z
_TEXT	SEGMENT
__Parg$ = 8						; size = 4
__Al$ = 12						; size = 1
??0?$_Tree_val@V?$_Tmap_traits@KPAVCMailBox@@U?$less@K@std@@V?$allocator@U?$pair@$$CBKPAVCMailBox@@@std@@@3@$0A@@std@@@std@@IAE@ABU?$less@K@1@V?$allocator@U?$pair@$$CBKPAVCMailBox@@@std@@@1@@Z PROC NEAR ; std::_Tree_val<std::_Tmap_traits<unsigned long,CMailBox *,std::less<unsigned long>,std::allocator<std::pair<unsigned long const ,CMailBox *> >,0> >::_Tree_val<std::_Tmap_traits<unsigned long,CMailBox *,std::less<unsigned long>,std::allocator<std::pair<unsigned long const ,CMailBox *> >,0> >, COMDAT
; _this$ = ecx

; 95   : 		{	// construct base, and allocator from _Al

  00000	8b c1		 mov	 eax, ecx

; 96   : 		}

  00002	c2 08 00	 ret	 8
??0?$_Tree_val@V?$_Tmap_traits@KPAVCMailBox@@U?$less@K@std@@V?$allocator@U?$pair@$$CBKPAVCMailBox@@@std@@@3@$0A@@std@@@std@@IAE@ABU?$less@K@1@V?$allocator@U?$pair@$$CBKPAVCMailBox@@@std@@@1@@Z ENDP ; std::_Tree_val<std::_Tmap_traits<unsigned long,CMailBox *,std::less<unsigned long>,std::allocator<std::pair<unsigned long const ,CMailBox *> >,0> >::_Tree_val<std::_Tmap_traits<unsigned long,CMailBox *,std::less<unsigned long>,std::allocator<std::pair<unsigned long const ,CMailBox *> >,0> >
_TEXT	ENDS
PUBLIC	??Eiterator@?$_Tree@V?$_Tmap_traits@KPAVCMailBox@@U?$less@K@std@@V?$allocator@U?$pair@$$CBKPAVCMailBox@@@std@@@3@$0A@@std@@@std@@QAE?AV012@H@Z ; std::_Tree<std::_Tmap_traits<unsigned long,CMailBox *,std::less<unsigned long>,std::allocator<std::pair<unsigned long const ,CMailBox *> >,0> >::iterator::operator++
; Function compile flags: /Ogty
;	COMDAT ??Eiterator@?$_Tree@V?$_Tmap_traits@KPAVCMailBox@@U?$less@K@std@@V?$allocator@U?$pair@$$CBKPAVCMailBox@@@std@@@3@$0A@@std@@@std@@QAE?AV012@H@Z
_TEXT	SEGMENT
___$ReturnUdt$ = 8					; size = 4
___formal$ = 12						; size = 4
??Eiterator@?$_Tree@V?$_Tmap_traits@KPAVCMailBox@@U?$less@K@std@@V?$allocator@U?$pair@$$CBKPAVCMailBox@@@std@@@3@$0A@@std@@@std@@QAE?AV012@H@Z PROC NEAR ; std::_Tree<std::_Tmap_traits<unsigned long,CMailBox *,std::less<unsigned long>,std::allocator<std::pair<unsigned long const ,CMailBox *> >,0> >::iterator::operator++, COMDAT
; _this$ = ecx

; 332  : 			{	// postincrement

  00000	56		 push	 esi

; 333  : 			iterator _Tmp = *this;

  00001	8b 31		 mov	 esi, DWORD PTR [ecx]

; 334  : 			++*this;

  00003	e8 00 00 00 00	 call	 ?_Inc@const_iterator@?$_Tree@V?$_Tmap_traits@KPAVCMailBox@@U?$less@K@std@@V?$allocator@U?$pair@$$CBKPAVCMailBox@@@std@@@3@$0A@@std@@@std@@QAEXXZ ; std::_Tree<std::_Tmap_traits<unsigned long,CMailBox *,std::less<unsigned long>,std::allocator<std::pair<unsigned long const ,CMailBox *> >,0> >::const_iterator::_Inc

; 335  : 			return (_Tmp);

  00008	8b 44 24 08	 mov	 eax, DWORD PTR ___$ReturnUdt$[esp]
  0000c	89 30		 mov	 DWORD PTR [eax], esi
  0000e	5e		 pop	 esi

; 336  : 			}

  0000f	c2 08 00	 ret	 8
??Eiterator@?$_Tree@V?$_Tmap_traits@KPAVCMailBox@@U?$less@K@std@@V?$allocator@U?$pair@$$CBKPAVCMailBox@@@std@@@3@$0A@@std@@@std@@QAE?AV012@H@Z ENDP ; std::_Tree<std::_Tmap_traits<unsigned long,CMailBox *,std::less<unsigned long>,std::allocator<std::pair<unsigned long const ,CMailBox *> >,0> >::iterator::operator++
_TEXT	ENDS
PUBLIC	??1?$basic_string@DU?$char_traits@D@std@@V?$allocator@D@2@@std@@QAE@XZ ; std::basic_string<char,std::char_traits<char>,std::allocator<char> >::~basic_string<char,std::char_traits<char>,std::allocator<char> >
; Function compile flags: /Ogty
; File c:\program files\microsoft visual studio .net 2003\vc7\include\xstring
;	COMDAT ??1?$basic_string@DU?$char_traits@D@std@@V?$allocator@D@2@@std@@QAE@XZ
_TEXT	SEGMENT
??1?$basic_string@DU?$char_traits@D@std@@V?$allocator@D@2@@std@@QAE@XZ PROC NEAR ; std::basic_string<char,std::char_traits<char>,std::allocator<char> >::~basic_string<char,std::char_traits<char>,std::allocator<char> >, COMDAT
; _this$ = ecx

; 456  : 		{	// destroy the string

  00000	56		 push	 esi
  00001	8b f1		 mov	 esi, ecx

; 457  : 		_Tidy(true);

  00003	83 7e 18 10	 cmp	 DWORD PTR [esi+24], 16	; 00000010H
  00007	72 0c		 jb	 SHORT $L233084
  00009	8b 46 04	 mov	 eax, DWORD PTR [esi+4]
  0000c	50		 push	 eax
  0000d	e8 00 00 00 00	 call	 ??3@YAXPAX@Z		; operator delete
  00012	83 c4 04	 add	 esp, 4
$L233084:
  00015	33 c0		 xor	 eax, eax
  00017	c7 46 18 0f 00
	00 00		 mov	 DWORD PTR [esi+24], 15	; 0000000fH
  0001e	89 46 14	 mov	 DWORD PTR [esi+20], eax
  00021	88 46 04	 mov	 BYTE PTR [esi+4], al
  00024	5e		 pop	 esi

; 458  : 		}

  00025	c3		 ret	 0
??1?$basic_string@DU?$char_traits@D@std@@V?$allocator@D@2@@std@@QAE@XZ ENDP ; std::basic_string<char,std::char_traits<char>,std::allocator<char> >::~basic_string<char,std::char_traits<char>,std::allocator<char> >
_TEXT	ENDS
PUBLIC	?_Grow@?$basic_string@DU?$char_traits@D@std@@V?$allocator@D@2@@std@@IAE_NI_N@Z ; std::basic_string<char,std::char_traits<char>,std::allocator<char> >::_Grow
EXTRN	?_Xlen@_String_base@std@@QBEXXZ:NEAR		; std::_String_base::_Xlen
; Function compile flags: /Ogty
;	COMDAT ?_Grow@?$basic_string@DU?$char_traits@D@std@@V?$allocator@D@2@@std@@IAE_NI_N@Z
_TEXT	SEGMENT
__Newsize$ = 8						; size = 4
__Trim$ = 12						; size = 1
?_Grow@?$basic_string@DU?$char_traits@D@std@@V?$allocator@D@2@@std@@IAE_NI_N@Z PROC NEAR ; std::basic_string<char,std::char_traits<char>,std::allocator<char> >::_Grow, COMDAT
; _this$ = ecx

; 1480 : 		{	// ensure buffer is big enough, trim to size if _Trim is true

  00000	55		 push	 ebp
  00001	56		 push	 esi

; 1481 : 		if (max_size() < _Newsize)

  00002	8b 74 24 0c	 mov	 esi, DWORD PTR __Newsize$[esp+4]
  00006	83 fe fe	 cmp	 esi, -2			; fffffffeH
  00009	8b e9		 mov	 ebp, ecx
  0000b	76 05		 jbe	 SHORT $L221380

; 1482 : 			_String_base::_Xlen();	// result too long

  0000d	e8 00 00 00 00	 call	 ?_Xlen@_String_base@std@@QBEXXZ ; std::_String_base::_Xlen
$L221380:

; 1483 : 		if (_Myres < _Newsize)

  00012	8b 45 18	 mov	 eax, DWORD PTR [ebp+24]
  00015	3b c6		 cmp	 eax, esi
  00017	73 19		 jae	 SHORT $L221381

; 1484 : 			_Copy(_Newsize, _Mysize);	// reallocate to grow

  00019	8b 45 14	 mov	 eax, DWORD PTR [ebp+20]
  0001c	50		 push	 eax
  0001d	56		 push	 esi
  0001e	8b cd		 mov	 ecx, ebp
  00020	e8 00 00 00 00	 call	 ?_Copy@?$basic_string@DU?$char_traits@D@std@@V?$allocator@D@2@@std@@IAEXII@Z ; std::basic_string<char,std::char_traits<char>,std::allocator<char> >::_Copy

; 1490 : 		return (0 < _Newsize);	// return true only if more work to do

  00025	33 c0		 xor	 eax, eax
  00027	3b c6		 cmp	 eax, esi
  00029	1b c0		 sbb	 eax, eax
  0002b	5e		 pop	 esi
  0002c	f7 d8		 neg	 eax
  0002e	5d		 pop	 ebp

; 1491 : 		}

  0002f	c2 08 00	 ret	 8
$L221381:

; 1485 : 		else if (_Trim && _Newsize < _BUF_SIZE)

  00032	8a 4c 24 10	 mov	 cl, BYTE PTR __Trim$[esp+4]
  00036	84 c9		 test	 cl, cl
  00038	74 5c		 je	 SHORT $L221383
  0003a	83 fe 10	 cmp	 esi, 16			; 00000010H
  0003d	73 57		 jae	 SHORT $L221383
  0003f	53		 push	 ebx

; 1486 : 			_Tidy(true,	// copy and deallocate if trimming to small string
; 1487 : 				_Newsize < _Mysize ? _Newsize : _Mysize);

  00040	8b 5d 14	 mov	 ebx, DWORD PTR [ebp+20]
  00043	3b f3		 cmp	 esi, ebx
  00045	73 02		 jae	 SHORT $L233105
  00047	8b de		 mov	 ebx, esi
$L233105:
  00049	83 f8 10	 cmp	 eax, 16			; 00000010H
  0004c	72 2b		 jb	 SHORT $L233159
  0004e	85 db		 test	 ebx, ebx
  00050	8b 45 04	 mov	 eax, DWORD PTR [ebp+4]
  00053	57		 push	 edi
  00054	8d 7d 04	 lea	 edi, DWORD PTR [ebp+4]
  00057	76 16		 jbe	 SHORT $L233157
  00059	8b cb		 mov	 ecx, ebx
  0005b	8b d1		 mov	 edx, ecx
  0005d	c1 e9 02	 shr	 ecx, 2
  00060	8b f0		 mov	 esi, eax
  00062	f3 a5		 rep movsd
  00064	8b ca		 mov	 ecx, edx
  00066	83 e1 03	 and	 ecx, 3
  00069	f3 a4		 rep movsb
  0006b	8b 74 24 14	 mov	 esi, DWORD PTR __Newsize$[esp+12]
$L233157:
  0006f	50		 push	 eax
  00070	e8 00 00 00 00	 call	 ??3@YAXPAX@Z		; operator delete
  00075	83 c4 04	 add	 esp, 4
  00078	5f		 pop	 edi
$L233159:
  00079	89 5d 14	 mov	 DWORD PTR [ebp+20], ebx

; 1490 : 		return (0 < _Newsize);	// return true only if more work to do

  0007c	33 c0		 xor	 eax, eax
  0007e	c7 45 18 0f 00
	00 00		 mov	 DWORD PTR [ebp+24], 15	; 0000000fH
  00085	c6 44 2b 04 00	 mov	 BYTE PTR [ebx+ebp+4], 0
  0008a	3b c6		 cmp	 eax, esi
  0008c	5b		 pop	 ebx
  0008d	1b c0		 sbb	 eax, eax
  0008f	5e		 pop	 esi
  00090	f7 d8		 neg	 eax
  00092	5d		 pop	 ebp

; 1491 : 		}

  00093	c2 08 00	 ret	 8
$L221383:

; 1488 : 		else if (_Newsize == 0)

  00096	85 f6		 test	 esi, esi
  00098	75 23		 jne	 SHORT $L233196

; 1489 : 			_Eos(0);	// new size is zero, just null terminate

  0009a	83 f8 10	 cmp	 eax, 16			; 00000010H
  0009d	89 75 14	 mov	 DWORD PTR [ebp+20], esi
  000a0	72 14		 jb	 SHORT $L233194
  000a2	8b 6d 04	 mov	 ebp, DWORD PTR [ebp+4]

; 1490 : 		return (0 < _Newsize);	// return true only if more work to do

  000a5	33 c0		 xor	 eax, eax
  000a7	3b c6		 cmp	 eax, esi
  000a9	1b c0		 sbb	 eax, eax
  000ab	5e		 pop	 esi
  000ac	c6 45 00 00	 mov	 BYTE PTR [ebp], 0
  000b0	f7 d8		 neg	 eax
  000b2	5d		 pop	 ebp

; 1491 : 		}

  000b3	c2 08 00	 ret	 8

; 1489 : 			_Eos(0);	// new size is zero, just null terminate

$L233194:
  000b6	83 c5 04	 add	 ebp, 4
  000b9	c6 45 00 00	 mov	 BYTE PTR [ebp], 0
$L233196:

; 1490 : 		return (0 < _Newsize);	// return true only if more work to do

  000bd	33 c0		 xor	 eax, eax
  000bf	3b c6		 cmp	 eax, esi
  000c1	1b c0		 sbb	 eax, eax
  000c3	5e		 pop	 esi
  000c4	f7 d8		 neg	 eax
  000c6	5d		 pop	 ebp

; 1491 : 		}

  000c7	c2 08 00	 ret	 8
?_Grow@?$basic_string@DU?$char_traits@D@std@@V?$allocator@D@2@@std@@IAE_NI_N@Z ENDP ; std::basic_string<char,std::char_traits<char>,std::allocator<char> >::_Grow
_TEXT	ENDS
PUBLIC	?Clear@CMailBox@@QAEXXZ				; CMailBox::Clear
; Function compile flags: /Ogty
; File c:\documents and settings\test\mes documents\source\virtuos_v17\build\program\_common\post.cpp
;	COMDAT ?Clear@CMailBox@@QAEXXZ
_TEXT	SEGMENT
?Clear@CMailBox@@QAEXXZ PROC NEAR			; CMailBox::Clear, COMDAT
; _this$ = ecx

; 193  : {

  00000	56		 push	 esi
  00001	57		 push	 edi
  00002	8b f9		 mov	 edi, ecx

; 194  : 	for( MailVectorItr i = begin(); i != end(); ++i )

  00004	8b 77 08	 mov	 esi, DWORD PTR [edi+8]
  00007	3b 77 0c	 cmp	 esi, DWORD PTR [edi+12]
  0000a	74 20		 je	 SHORT $L226707
  0000c	8d 64 24 00	 npad	 4
$L233225:

; 195  : 	{
; 196  : #ifdef __DBSERVER
; 197  : 		if( m_pPost )
; 198  : 			m_pPost->m_mapMail4Proc.erase( (*i)->m_nMail );
; 199  : #endif	// __DBSERVER
; 200  : 		SAFE_DELETE( *i );

  00010	8b 0e		 mov	 ecx, DWORD PTR [esi]
  00012	85 c9		 test	 ecx, ecx
  00014	74 0c		 je	 SHORT $L226706
  00016	8b 01		 mov	 eax, DWORD PTR [ecx]
  00018	6a 01		 push	 1
  0001a	ff 10		 call	 DWORD PTR [eax]
  0001c	c7 06 00 00 00
	00		 mov	 DWORD PTR [esi], 0
$L226706:
  00022	8b 47 0c	 mov	 eax, DWORD PTR [edi+12]
  00025	83 c6 04	 add	 esi, 4
  00028	3b f0		 cmp	 esi, eax
  0002a	75 e4		 jne	 SHORT $L233225
$L226707:

; 201  : 	}
; 202  : 	clear();

  0002c	8b 47 08	 mov	 eax, DWORD PTR [edi+8]
  0002f	85 c0		 test	 eax, eax
  00031	74 09		 je	 SHORT $L233290
  00033	50		 push	 eax
  00034	e8 00 00 00 00	 call	 ??3@YAXPAX@Z		; operator delete
  00039	83 c4 04	 add	 esp, 4
$L233290:
  0003c	c7 47 08 00 00
	00 00		 mov	 DWORD PTR [edi+8], 0
  00043	c7 47 0c 00 00
	00 00		 mov	 DWORD PTR [edi+12], 0
  0004a	c7 47 10 00 00
	00 00		 mov	 DWORD PTR [edi+16], 0
  00051	5f		 pop	 edi
  00052	5e		 pop	 esi

; 203  : 
; 204  : #ifdef __CLIENT
; 205  : 	Error( _T( "CMailBox::Clear" ) );
; 206  : #endif
; 207  : }

  00053	c3		 ret	 0
?Clear@CMailBox@@QAEXXZ ENDP				; CMailBox::Clear
_TEXT	ENDS
PUBLIC	?RemoveMail@CMailBox@@QAEHK@Z			; CMailBox::RemoveMail
; Function compile flags: /Ogty
;	COMDAT ?RemoveMail@CMailBox@@QAEHK@Z
_TEXT	SEGMENT
_nMail$ = 8						; size = 4
?RemoveMail@CMailBox@@QAEHK@Z PROC NEAR			; CMailBox::RemoveMail, COMDAT
; _this$ = ecx

; 409  : {

  00000	56		 push	 esi
  00001	57		 push	 edi
  00002	8b f9		 mov	 edi, ecx

; 410  : 	MailVectorItr i = Find( nMail );

  00004	8b 77 08	 mov	 esi, DWORD PTR [edi+8]
  00007	8b 47 0c	 mov	 eax, DWORD PTR [edi+12]
  0000a	3b f0		 cmp	 esi, eax
  0000c	74 54		 je	 SHORT $L226818
  0000e	8b 4c 24 0c	 mov	 ecx, DWORD PTR _nMail$[esp+4]
$L233374:
  00012	8b 16		 mov	 edx, DWORD PTR [esi]
  00014	39 4a 04	 cmp	 DWORD PTR [edx+4], ecx
  00017	74 07		 je	 SHORT $L233476
  00019	83 c6 04	 add	 esi, 4
  0001c	3b f0		 cmp	 esi, eax
  0001e	75 f2		 jne	 SHORT $L233374
$L233476:

; 411  : 	if( i != end() )

  00020	3b f0		 cmp	 esi, eax
  00022	74 3e		 je	 SHORT $L226818

; 412  : 	{
; 413  : #ifdef __DBSERVER
; 414  : 		if( m_pPost )
; 415  : 			m_pPost->m_mapMail4Proc.erase( (*i)->m_nMail );
; 416  : #endif	// __DBSERVER
; 417  : 		SAFE_DELETE( *i );

  00024	8b 0e		 mov	 ecx, DWORD PTR [esi]
  00026	85 c9		 test	 ecx, ecx
  00028	74 0c		 je	 SHORT $L226819
  0002a	8b 01		 mov	 eax, DWORD PTR [ecx]
  0002c	6a 01		 push	 1
  0002e	ff 10		 call	 DWORD PTR [eax]
  00030	c7 06 00 00 00
	00		 mov	 DWORD PTR [esi], 0
$L226819:

; 418  : 		erase( i );

  00036	8b 4f 0c	 mov	 ecx, DWORD PTR [edi+12]
  00039	8d 46 04	 lea	 eax, DWORD PTR [esi+4]
  0003c	2b c8		 sub	 ecx, eax
  0003e	c1 f9 02	 sar	 ecx, 2
  00041	c1 e1 02	 shl	 ecx, 2
  00044	51		 push	 ecx
  00045	50		 push	 eax
  00046	56		 push	 esi
  00047	e8 00 00 00 00	 call	 _memmove
  0004c	8b 47 0c	 mov	 eax, DWORD PTR [edi+12]
  0004f	83 c4 0c	 add	 esp, 12			; 0000000cH
  00052	83 c0 fc	 add	 eax, -4			; fffffffcH
  00055	89 47 0c	 mov	 DWORD PTR [edi+12], eax
  00058	5f		 pop	 edi

; 419  : 
; 420  : #ifdef __CLIENT
; 421  : 		Error( _T( "CMailBox::RemoveMail OK nMail:%d"), nMail  );
; 422  : #endif
; 423  : 		return TRUE;

  00059	b8 01 00 00 00	 mov	 eax, 1
  0005e	5e		 pop	 esi

; 430  : }

  0005f	c2 04 00	 ret	 4
$L226818:
  00062	5f		 pop	 edi

; 424  : 	}
; 425  : 
; 426  : #ifdef __CLIENT
; 427  : 		Error( _T( "CMailBox::RemoveMail Failed nMail:%d" ), nMail );
; 428  : #endif
; 429  : 	return FALSE;

  00063	33 c0		 xor	 eax, eax
  00065	5e		 pop	 esi

; 430  : }

  00066	c2 04 00	 ret	 4
?RemoveMail@CMailBox@@QAEHK@Z ENDP			; CMailBox::RemoveMail
_TEXT	ENDS
PUBLIC	?Clear@CPost@@QAEXXZ				; CPost::Clear
; Function compile flags: /Ogty
;	COMDAT ?Clear@CPost@@QAEXXZ
_TEXT	SEGMENT
_i$226956 = -4						; size = 4
?Clear@CPost@@QAEXXZ PROC NEAR				; CPost::Clear, COMDAT
; _this$ = ecx

; 518  : {

  00000	51		 push	 ecx
  00001	53		 push	 ebx
  00002	56		 push	 esi
  00003	57		 push	 edi
  00004	8b f9		 mov	 edi, ecx

; 519  : 	for( map<u_long, CMailBox*>::iterator i = m_mapMailBox.begin(); i != m_mapMailBox.end(); ++i )

  00006	8b 4f 08	 mov	 ecx, DWORD PTR [edi+8]
  00009	8b 01		 mov	 eax, DWORD PTR [ecx]
  0000b	3b c1		 cmp	 eax, ecx
  0000d	89 44 24 0c	 mov	 DWORD PTR _i$226956[esp+16], eax
  00011	74 1f		 je	 SHORT $L233669
$L233522:

; 520  : 	{
; 521  : 		CMailBox* pMailBox	= i->second;

  00013	8b 48 10	 mov	 ecx, DWORD PTR [eax+16]

; 522  : 		SAFE_DELETE( pMailBox );

  00016	85 c9		 test	 ecx, ecx
  00018	74 06		 je	 SHORT $L226960
  0001a	8b 01		 mov	 eax, DWORD PTR [ecx]
  0001c	6a 01		 push	 1
  0001e	ff 10		 call	 DWORD PTR [eax]
$L226960:
  00020	8d 4c 24 0c	 lea	 ecx, DWORD PTR _i$226956[esp+16]
  00024	e8 00 00 00 00	 call	 ?_Inc@const_iterator@?$_Tree@V?$_Tmap_traits@KPAVCMailBox@@U?$less@K@std@@V?$allocator@U?$pair@$$CBKPAVCMailBox@@@std@@@3@$0A@@std@@@std@@QAEXXZ ; std::_Tree<std::_Tmap_traits<unsigned long,CMailBox *,std::less<unsigned long>,std::allocator<std::pair<unsigned long const ,CMailBox *> >,0> >::const_iterator::_Inc
  00029	8b 44 24 0c	 mov	 eax, DWORD PTR _i$226956[esp+16]
  0002d	3b 47 08	 cmp	 eax, DWORD PTR [edi+8]
  00030	75 e1		 jne	 SHORT $L233522
$L233669:

; 523  : 	}
; 524  : 	m_mapMailBox.clear();

  00032	8b 4f 08	 mov	 ecx, DWORD PTR [edi+8]
  00035	8b 59 04	 mov	 ebx, DWORD PTR [ecx+4]
  00038	8a 43 15	 mov	 al, BYTE PTR [ebx+21]
  0003b	83 c7 04	 add	 edi, 4
  0003e	84 c0		 test	 al, al
  00040	8b f3		 mov	 esi, ebx
  00042	75 1f		 jne	 SHORT $L233642
$L233640:
  00044	8b 56 08	 mov	 edx, DWORD PTR [esi+8]
  00047	52		 push	 edx
  00048	8b cf		 mov	 ecx, edi
  0004a	e8 00 00 00 00	 call	 ?_Erase@?$_Tree@V?$_Tmap_traits@KPAVCMailBox@@U?$less@K@std@@V?$allocator@U?$pair@$$CBKPAVCMailBox@@@std@@@3@$0A@@std@@@std@@IAEXPAU_Node@?$_Tree_nod@V?$_Tmap_traits@KPAVCMailBox@@U?$less@K@std@@V?$allocator@U?$pair@$$CBKPAVCMailBox@@@std@@@3@$0A@@std@@@2@@Z ; std::_Tree<std::_Tmap_traits<unsigned long,CMailBox *,std::less<unsigned long>,std::allocator<std::pair<unsigned long const ,CMailBox *> >,0> >::_Erase
  0004f	8b 36		 mov	 esi, DWORD PTR [esi]
  00051	53		 push	 ebx
  00052	e8 00 00 00 00	 call	 ??3@YAXPAX@Z		; operator delete
  00057	8a 46 15	 mov	 al, BYTE PTR [esi+21]
  0005a	83 c4 04	 add	 esp, 4
  0005d	84 c0		 test	 al, al
  0005f	8b de		 mov	 ebx, esi
  00061	74 e1		 je	 SHORT $L233640
$L233642:
  00063	8b 47 04	 mov	 eax, DWORD PTR [edi+4]
  00066	89 40 04	 mov	 DWORD PTR [eax+4], eax
  00069	8b 47 04	 mov	 eax, DWORD PTR [edi+4]
  0006c	c7 47 08 00 00
	00 00		 mov	 DWORD PTR [edi+8], 0
  00073	89 00		 mov	 DWORD PTR [eax], eax
  00075	8b 7f 04	 mov	 edi, DWORD PTR [edi+4]
  00078	89 7f 08	 mov	 DWORD PTR [edi+8], edi
  0007b	5f		 pop	 edi
  0007c	5e		 pop	 esi
  0007d	5b		 pop	 ebx

; 525  : #ifdef __DBSERVER
; 526  : #ifdef _DEBUG
; 527  : 	TRACE( "CPost::m_mapMail4Proc.size() = %d\n", m_mapMail4Proc.size() );
; 528  : #endif	// _DEBUG
; 529  : 	m_mapMail4Proc.clear();
; 530  : #endif	// __DBSERVER
; 531  : }

  0007e	59		 pop	 ecx
  0007f	c3		 ret	 0
?Clear@CPost@@QAEXXZ ENDP				; CPost::Clear
_TEXT	ENDS
PUBLIC	?GetMailBox@CPost@@QAEPAVCMailBox@@K@Z		; CPost::GetMailBox
; Function compile flags: /Ogty
;	COMDAT ?GetMailBox@CPost@@QAEPAVCMailBox@@K@Z
_TEXT	SEGMENT
_i$ = -4						; size = 4
_idReceiver$ = 8					; size = 4
?GetMailBox@CPost@@QAEPAVCMailBox@@K@Z PROC NEAR	; CPost::GetMailBox, COMDAT
; _this$ = ecx

; 553  : {

  00000	51		 push	 ecx
  00001	56		 push	 esi
  00002	8b f1		 mov	 esi, ecx

; 554  : 	map<u_long, CMailBox*>::iterator i = m_mapMailBox.find( idReceiver );

  00004	8d 44 24 0c	 lea	 eax, DWORD PTR _idReceiver$[esp+4]
  00008	50		 push	 eax
  00009	8d 4c 24 08	 lea	 ecx, DWORD PTR _i$[esp+12]
  0000d	51		 push	 ecx
  0000e	8d 4e 04	 lea	 ecx, DWORD PTR [esi+4]
  00011	e8 00 00 00 00	 call	 ?find@?$_Tree@V?$_Tmap_traits@KPAVCMailBox@@U?$less@K@std@@V?$allocator@U?$pair@$$CBKPAVCMailBox@@@std@@@3@$0A@@std@@@std@@QAE?AViterator@12@ABK@Z ; std::_Tree<std::_Tmap_traits<unsigned long,CMailBox *,std::less<unsigned long>,std::allocator<std::pair<unsigned long const ,CMailBox *> >,0> >::find

; 555  : 	if( i != m_mapMailBox.end() )

  00016	8b 4e 08	 mov	 ecx, DWORD PTR [esi+8]
  00019	8b 44 24 04	 mov	 eax, DWORD PTR _i$[esp+8]
  0001d	3b c1		 cmp	 eax, ecx
  0001f	5e		 pop	 esi
  00020	74 07		 je	 SHORT $L227013

; 556  : 		return i->second;

  00022	8b 40 10	 mov	 eax, DWORD PTR [eax+16]

; 558  : }

  00025	59		 pop	 ecx
  00026	c2 04 00	 ret	 4
$L227013:

; 557  : 	return NULL;

  00029	33 c0		 xor	 eax, eax

; 558  : }

  0002b	59		 pop	 ecx
  0002c	c2 04 00	 ret	 4
?GetMailBox@CPost@@QAEPAVCMailBox@@K@Z ENDP		; CPost::GetMailBox
_TEXT	ENDS
PUBLIC	??0?$_Tree@V?$_Tmap_traits@KPAVCMailBox@@U?$less@K@std@@V?$allocator@U?$pair@$$CBKPAVCMailBox@@@std@@@3@$0A@@std@@@std@@QAE@ABU?$less@K@1@ABV?$allocator@U?$pair@$$CBKPAVCMailBox@@@std@@@1@@Z ; std::_Tree<std::_Tmap_traits<unsigned long,CMailBox *,std::less<unsigned long>,std::allocator<std::pair<unsigned long const ,CMailBox *> >,0> >::_Tree<std::_Tmap_traits<unsigned long,CMailBox *,std::less<unsigned long>,std::allocator<std::pair<unsigned long const ,CMailBox *> >,0> >
; Function compile flags: /Ogty
; File c:\program files\microsoft visual studio .net 2003\vc7\include\xtree
;	COMDAT ??0?$_Tree@V?$_Tmap_traits@KPAVCMailBox@@U?$less@K@std@@V?$allocator@U?$pair@$$CBKPAVCMailBox@@@std@@@3@$0A@@std@@@std@@QAE@ABU?$less@K@1@ABV?$allocator@U?$pair@$$CBKPAVCMailBox@@@std@@@1@@Z
_TEXT	SEGMENT
__Parg$ = 8						; size = 4
__Al$ = 12						; size = 4
??0?$_Tree@V?$_Tmap_traits@KPAVCMailBox@@U?$less@K@std@@V?$allocator@U?$pair@$$CBKPAVCMailBox@@@std@@@3@$0A@@std@@@std@@QAE@ABU?$less@K@1@ABV?$allocator@U?$pair@$$CBKPAVCMailBox@@@std@@@1@@Z PROC NEAR ; std::_Tree<std::_Tmap_traits<unsigned long,CMailBox *,std::less<unsigned long>,std::allocator<std::pair<unsigned long const ,CMailBox *> >,0> >::_Tree<std::_Tmap_traits<unsigned long,CMailBox *,std::less<unsigned long>,std::allocator<std::pair<unsigned long const ,CMailBox *> >,0> >, COMDAT
; _this$ = ecx

; 361  : 		{	// construct empty tree

  00000	56		 push	 esi
  00001	8b f1		 mov	 esi, ecx

; 362  : 		_Init();

  00003	e8 00 00 00 00	 call	 ?_Buynode@?$_Tree@V?$_Tmap_traits@KPAVCMailBox@@U?$less@K@std@@V?$allocator@U?$pair@$$CBKPAVCMailBox@@@std@@@3@$0A@@std@@@std@@IAEPAU_Node@?$_Tree_nod@V?$_Tmap_traits@KPAVCMailBox@@U?$less@K@std@@V?$allocator@U?$pair@$$CBKPAVCMailBox@@@std@@@3@$0A@@std@@@2@XZ ; std::_Tree<std::_Tmap_traits<unsigned long,CMailBox *,std::less<unsigned long>,std::allocator<std::pair<unsigned long const ,CMailBox *> >,0> >::_Buynode
  00008	89 46 04	 mov	 DWORD PTR [esi+4], eax
  0000b	c6 40 15 01	 mov	 BYTE PTR [eax+21], 1
  0000f	8b 46 04	 mov	 eax, DWORD PTR [esi+4]
  00012	89 40 04	 mov	 DWORD PTR [eax+4], eax
  00015	8b 46 04	 mov	 eax, DWORD PTR [esi+4]
  00018	89 00		 mov	 DWORD PTR [eax], eax
  0001a	8b 46 04	 mov	 eax, DWORD PTR [esi+4]
  0001d	89 40 08	 mov	 DWORD PTR [eax+8], eax
  00020	c7 46 08 00 00
	00 00		 mov	 DWORD PTR [esi+8], 0

; 363  : 		}

  00027	8b c6		 mov	 eax, esi
  00029	5e		 pop	 esi
  0002a	c2 08 00	 ret	 8
??0?$_Tree@V?$_Tmap_traits@KPAVCMailBox@@U?$less@K@std@@V?$allocator@U?$pair@$$CBKPAVCMailBox@@@std@@@3@$0A@@std@@@std@@QAE@ABU?$less@K@1@ABV?$allocator@U?$pair@$$CBKPAVCMailBox@@@std@@@1@@Z ENDP ; std::_Tree<std::_Tmap_traits<unsigned long,CMailBox *,std::less<unsigned long>,std::allocator<std::pair<unsigned long const ,CMailBox *> >,0> >::_Tree<std::_Tmap_traits<unsigned long,CMailBox *,std::less<unsigned long>,std::allocator<std::pair<unsigned long const ,CMailBox *> >,0> >
_TEXT	ENDS
PUBLIC	??1logic_error@std@@UAE@XZ			; std::logic_error::~logic_error
PUBLIC	?what@logic_error@std@@UBEPBDXZ			; std::logic_error::what
PUBLIC	??_7logic_error@std@@6B@			; std::logic_error::`vftable'
PUBLIC	??_Glogic_error@std@@UAEPAXI@Z			; std::logic_error::`scalar deleting destructor'
EXTRN	??1exception@@UAE@XZ:NEAR			; exception::~exception
EXTRN	??_Elogic_error@std@@UAEPAXI@Z:NEAR		; std::logic_error::`vector deleting destructor'
;	COMDAT ??_7logic_error@std@@6B@
; File c:\program files\microsoft visual studio .net 2003\vc7\include\iosfwd
CONST	SEGMENT
??_7logic_error@std@@6B@ DD FLAT:??_Elogic_error@std@@UAEPAXI@Z ; std::logic_error::`vftable'
	DD	FLAT:?what@logic_error@std@@UBEPBDXZ
; Function compile flags: /Ogty
; File c:\program files\microsoft visual studio .net 2003\vc7\include\stdexcept
CONST	ENDS
;	COMDAT ??1logic_error@std@@UAE@XZ
_TEXT	SEGMENT
??1logic_error@std@@UAE@XZ PROC NEAR			; std::logic_error::~logic_error, COMDAT
; _this$ = ecx

; 23   : 		{}	// destroy the object

  00000	56		 push	 esi
  00001	8b f1		 mov	 esi, ecx
  00003	c7 06 00 00 00
	00		 mov	 DWORD PTR [esi], OFFSET FLAT:??_7logic_error@std@@6B@
  00009	83 7e 24 10	 cmp	 DWORD PTR [esi+36], 16	; 00000010H
  0000d	72 0c		 jb	 SHORT $L233902
  0000f	8b 46 10	 mov	 eax, DWORD PTR [esi+16]
  00012	50		 push	 eax
  00013	e8 00 00 00 00	 call	 ??3@YAXPAX@Z		; operator delete
  00018	83 c4 04	 add	 esp, 4
$L233902:
  0001b	33 c0		 xor	 eax, eax
  0001d	c7 46 24 0f 00
	00 00		 mov	 DWORD PTR [esi+36], 15	; 0000000fH
  00024	89 46 20	 mov	 DWORD PTR [esi+32], eax
  00027	88 46 10	 mov	 BYTE PTR [esi+16], al
  0002a	8b ce		 mov	 ecx, esi
  0002c	5e		 pop	 esi
  0002d	e9 00 00 00 00	 jmp	 ??1exception@@UAE@XZ	; exception::~exception
??1logic_error@std@@UAE@XZ ENDP				; std::logic_error::~logic_error
; Function compile flags: /Ogty
_TEXT	ENDS
;	COMDAT ?what@logic_error@std@@UBEPBDXZ
_TEXT	SEGMENT
?what@logic_error@std@@UBEPBDXZ PROC NEAR		; std::logic_error::what, COMDAT
; _this$ = ecx

; 27   : 		return (_Str.c_str());

  00000	83 79 24 10	 cmp	 DWORD PTR [ecx+36], 16	; 00000010H
  00004	72 04		 jb	 SHORT $L233935
  00006	8b 41 10	 mov	 eax, DWORD PTR [ecx+16]

; 28   : 		}

  00009	c3		 ret	 0

; 27   : 		return (_Str.c_str());

$L233935:
  0000a	8d 41 10	 lea	 eax, DWORD PTR [ecx+16]

; 28   : 		}

  0000d	c3		 ret	 0
?what@logic_error@std@@UBEPBDXZ ENDP			; std::logic_error::what
; Function compile flags: /Ogty
_TEXT	ENDS
;	COMDAT ??_Glogic_error@std@@UAEPAXI@Z
_TEXT	SEGMENT
___flags$ = 8						; size = 4
??_Glogic_error@std@@UAEPAXI@Z PROC NEAR		; std::logic_error::`scalar deleting destructor', COMDAT
; _this$ = ecx
  00000	56		 push	 esi
  00001	8b f1		 mov	 esi, ecx
  00003	e8 00 00 00 00	 call	 ??1logic_error@std@@UAE@XZ ; std::logic_error::~logic_error
  00008	f6 44 24 08 01	 test	 BYTE PTR ___flags$[esp], 1
  0000d	74 09		 je	 SHORT $L233943
  0000f	56		 push	 esi
  00010	e8 00 00 00 00	 call	 ??3@YAXPAX@Z		; operator delete
  00015	83 c4 04	 add	 esp, 4
$L233943:
  00018	8b c6		 mov	 eax, esi
  0001a	5e		 pop	 esi
  0001b	c2 04 00	 ret	 4
??_Glogic_error@std@@UAEPAXI@Z ENDP			; std::logic_error::`scalar deleting destructor'
_TEXT	ENDS
PUBLIC	?assign@?$basic_string@DU?$char_traits@D@std@@V?$allocator@D@2@@std@@QAEAAV12@ABV12@II@Z ; std::basic_string<char,std::char_traits<char>,std::allocator<char> >::assign
; Function compile flags: /Ogty
; File c:\program files\microsoft visual studio .net 2003\vc7\include\xstring
;	COMDAT ?assign@?$basic_string@DU?$char_traits@D@std@@V?$allocator@D@2@@std@@QAEAAV12@ABV12@II@Z
_TEXT	SEGMENT
__Right$ = 8						; size = 4
__Roff$ = 12						; size = 4
__Count$ = 16						; size = 4
?assign@?$basic_string@DU?$char_traits@D@std@@V?$allocator@D@2@@std@@QAEAAV12@ABV12@II@Z PROC NEAR ; std::basic_string<char,std::char_traits<char>,std::allocator<char> >::assign, COMDAT
; _this$ = ecx

; 590  : 		{	// assign _Right [_Roff, _Roff + _Count)

  00000	53		 push	 ebx
  00001	55		 push	 ebp
  00002	56		 push	 esi

; 591  : 		if (_Right.size() < _Roff)

  00003	8b 74 24 14	 mov	 esi, DWORD PTR __Roff$[esp+8]
  00007	57		 push	 edi
  00008	8b 7c 24 14	 mov	 edi, DWORD PTR __Right$[esp+12]
  0000c	39 77 14	 cmp	 DWORD PTR [edi+20], esi
  0000f	8b d9		 mov	 ebx, ecx
  00011	73 05		 jae	 SHORT $L220001

; 592  : 			_String_base::_Xran();	// _Roff off end

  00013	e8 00 00 00 00	 call	 ?_Xran@_String_base@std@@QBEXXZ ; std::_String_base::_Xran
$L220001:

; 593  : 		size_type _Num = _Right.size() - _Roff;

  00018	8b 6f 14	 mov	 ebp, DWORD PTR [edi+20]

; 594  : 		if (_Count < _Num)

  0001b	8b 44 24 1c	 mov	 eax, DWORD PTR __Count$[esp+12]
  0001f	2b ee		 sub	 ebp, esi
  00021	3b c5		 cmp	 eax, ebp
  00023	73 02		 jae	 SHORT $L220003

; 595  : 			_Num = _Count;	// trim _Num to size

  00025	8b e8		 mov	 ebp, eax
$L220003:

; 596  : 
; 597  : 		if (this == &_Right)

  00027	3b df		 cmp	 ebx, edi
  00029	75 1f		 jne	 SHORT $L220004

; 598  : 			erase((size_type)(_Roff + _Num)), erase(0, _Roff);	// substring

  0002b	6a ff		 push	 -1
  0002d	03 ee		 add	 ebp, esi
  0002f	55		 push	 ebp
  00030	8b cb		 mov	 ecx, ebx
  00032	e8 00 00 00 00	 call	 ?erase@?$basic_string@DU?$char_traits@D@std@@V?$allocator@D@2@@std@@QAEAAV12@II@Z ; std::basic_string<char,std::char_traits<char>,std::allocator<char> >::erase
  00037	56		 push	 esi
  00038	6a 00		 push	 0
  0003a	8b cb		 mov	 ecx, ebx
  0003c	e8 00 00 00 00	 call	 ?erase@?$basic_string@DU?$char_traits@D@std@@V?$allocator@D@2@@std@@QAEAAV12@II@Z ; std::basic_string<char,std::char_traits<char>,std::allocator<char> >::erase
  00041	5f		 pop	 edi
  00042	5e		 pop	 esi
  00043	5d		 pop	 ebp

; 603  : 			}
; 604  : 		return (*this);

  00044	8b c3		 mov	 eax, ebx
  00046	5b		 pop	 ebx

; 605  : 		}

  00047	c2 0c 00	 ret	 12			; 0000000cH
$L220004:

; 599  : 		else if (_Grow(_Num))

  0004a	83 fd fe	 cmp	 ebp, -2			; fffffffeH
  0004d	76 07		 jbe	 SHORT $L234052
  0004f	8b cb		 mov	 ecx, ebx
  00051	e8 00 00 00 00	 call	 ?_Xlen@_String_base@std@@QBEXXZ ; std::_String_base::_Xlen
$L234052:
  00056	8b 43 18	 mov	 eax, DWORD PTR [ebx+24]
  00059	3b c5		 cmp	 eax, ebp
  0005b	73 21		 jae	 SHORT $L234053
  0005d	8b 43 14	 mov	 eax, DWORD PTR [ebx+20]
  00060	50		 push	 eax
  00061	55		 push	 ebp
  00062	8b cb		 mov	 ecx, ebx
  00064	e8 00 00 00 00	 call	 ?_Copy@?$basic_string@DU?$char_traits@D@std@@V?$allocator@D@2@@std@@IAEXII@Z ; std::basic_string<char,std::char_traits<char>,std::allocator<char> >::_Copy
  00069	85 ed		 test	 ebp, ebp
$L234140:
  0006b	76 6d		 jbe	 SHORT $L234139

; 600  : 			{	// make room and assign new stuff
; 601  : 			_Traits::copy(_Myptr(), _Right._Myptr() + _Roff, _Num);

  0006d	8b 4f 18	 mov	 ecx, DWORD PTR [edi+24]
  00070	b8 10 00 00 00	 mov	 eax, 16			; 00000010H
  00075	3b c8		 cmp	 ecx, eax
  00077	72 2f		 jb	 SHORT $L234104
  00079	8b 57 04	 mov	 edx, DWORD PTR [edi+4]
  0007c	eb 2d		 jmp	 SHORT $L234105

; 599  : 		else if (_Grow(_Num))

$L234053:
  0007e	85 ed		 test	 ebp, ebp
  00080	75 e9		 jne	 SHORT $L234140
  00082	83 f8 10	 cmp	 eax, 16			; 00000010H
  00085	89 6b 14	 mov	 DWORD PTR [ebx+20], ebp
  00088	72 0f		 jb	 SHORT $L234096
  0008a	8b 43 04	 mov	 eax, DWORD PTR [ebx+4]
  0008d	5f		 pop	 edi
  0008e	5e		 pop	 esi
  0008f	c6 00 00	 mov	 BYTE PTR [eax], 0
  00092	5d		 pop	 ebp

; 603  : 			}
; 604  : 		return (*this);

  00093	8b c3		 mov	 eax, ebx
  00095	5b		 pop	 ebx

; 605  : 		}

  00096	c2 0c 00	 ret	 12			; 0000000cH

; 599  : 		else if (_Grow(_Num))

$L234096:
  00099	5f		 pop	 edi
  0009a	8d 43 04	 lea	 eax, DWORD PTR [ebx+4]
  0009d	5e		 pop	 esi
  0009e	c6 00 00	 mov	 BYTE PTR [eax], 0
  000a1	5d		 pop	 ebp

; 603  : 			}
; 604  : 		return (*this);

  000a2	8b c3		 mov	 eax, ebx
  000a4	5b		 pop	 ebx

; 605  : 		}

  000a5	c2 0c 00	 ret	 12			; 0000000cH

; 600  : 			{	// make room and assign new stuff
; 601  : 			_Traits::copy(_Myptr(), _Right._Myptr() + _Roff, _Num);

$L234104:
  000a8	8d 57 04	 lea	 edx, DWORD PTR [edi+4]
$L234105:
  000ab	39 43 18	 cmp	 DWORD PTR [ebx+24], eax
  000ae	8d 43 04	 lea	 eax, DWORD PTR [ebx+4]
  000b1	72 04		 jb	 SHORT $L234112
  000b3	8b 38		 mov	 edi, DWORD PTR [eax]
  000b5	eb 02		 jmp	 SHORT $L234113
$L234112:
  000b7	8b f8		 mov	 edi, eax
$L234113:
  000b9	03 f2		 add	 esi, edx
  000bb	8b cd		 mov	 ecx, ebp
  000bd	8b d1		 mov	 edx, ecx
  000bf	c1 e9 02	 shr	 ecx, 2
  000c2	f3 a5		 rep movsd
  000c4	8b ca		 mov	 ecx, edx
  000c6	83 e1 03	 and	 ecx, 3
  000c9	f3 a4		 rep movsb

; 602  : 			_Eos(_Num);

  000cb	83 7b 18 10	 cmp	 DWORD PTR [ebx+24], 16	; 00000010H
  000cf	89 6b 14	 mov	 DWORD PTR [ebx+20], ebp
  000d2	72 02		 jb	 SHORT $L234136
  000d4	8b 00		 mov	 eax, DWORD PTR [eax]
$L234136:
  000d6	c6 04 28 00	 mov	 BYTE PTR [eax+ebp], 0
$L234139:
  000da	5f		 pop	 edi
  000db	5e		 pop	 esi
  000dc	5d		 pop	 ebp

; 603  : 			}
; 604  : 		return (*this);

  000dd	8b c3		 mov	 eax, ebx
  000df	5b		 pop	 ebx

; 605  : 		}

  000e0	c2 0c 00	 ret	 12			; 0000000cH
?assign@?$basic_string@DU?$char_traits@D@std@@V?$allocator@D@2@@std@@QAEAAV12@ABV12@II@Z ENDP ; std::basic_string<char,std::char_traits<char>,std::allocator<char> >::assign
_TEXT	ENDS
PUBLIC	?assign@?$basic_string@DU?$char_traits@D@std@@V?$allocator@D@2@@std@@QAEAAV12@PBDI@Z ; std::basic_string<char,std::char_traits<char>,std::allocator<char> >::assign
; Function compile flags: /Ogty
;	COMDAT ?assign@?$basic_string@DU?$char_traits@D@std@@V?$allocator@D@2@@std@@QAEAAV12@PBDI@Z
_TEXT	SEGMENT
__Ptr$ = 8						; size = 4
__Num$ = 12						; size = 4
?assign@?$basic_string@DU?$char_traits@D@std@@V?$allocator@D@2@@std@@QAEAAV12@PBDI@Z PROC NEAR ; std::basic_string<char,std::char_traits<char>,std::allocator<char> >::assign, COMDAT
; _this$ = ecx

; 608  : 		{	// assign [_Ptr, _Ptr + _Num)

  00000	53		 push	 ebx
  00001	8b d9		 mov	 ebx, ecx

; 609  : 		if (_Inside(_Ptr))

  00003	8b 53 18	 mov	 edx, DWORD PTR [ebx+24]
  00006	83 fa 10	 cmp	 edx, 16			; 00000010H
  00009	56		 push	 esi
  0000a	57		 push	 edi
  0000b	72 05		 jb	 SHORT $L234166
  0000d	8b 43 04	 mov	 eax, DWORD PTR [ebx+4]
  00010	eb 03		 jmp	 SHORT $L234167
$L234166:
  00012	8d 43 04	 lea	 eax, DWORD PTR [ebx+4]
$L234167:
  00015	8b 74 24 10	 mov	 esi, DWORD PTR __Ptr$[esp+8]
  00019	3b f0		 cmp	 esi, eax
  0001b	72 34		 jb	 SHORT $L221367
  0001d	83 fa 10	 cmp	 edx, 16			; 00000010H
  00020	8d 43 04	 lea	 eax, DWORD PTR [ebx+4]
  00023	72 04		 jb	 SHORT $L234170
  00025	8b 08		 mov	 ecx, DWORD PTR [eax]
  00027	eb 02		 jmp	 SHORT $L234171
$L234170:
  00029	8b c8		 mov	 ecx, eax
$L234171:
  0002b	8b 7b 14	 mov	 edi, DWORD PTR [ebx+20]
  0002e	03 f9		 add	 edi, ecx
  00030	3b fe		 cmp	 edi, esi
  00032	76 1d		 jbe	 SHORT $L221367

; 610  : 			return (assign(*this, _Ptr - _Myptr(), _Num));	// substring

  00034	83 fa 10	 cmp	 edx, 16			; 00000010H
  00037	72 02		 jb	 SHORT $L234179
  00039	8b 00		 mov	 eax, DWORD PTR [eax]
$L234179:
  0003b	8b 4c 24 14	 mov	 ecx, DWORD PTR __Num$[esp+8]
  0003f	51		 push	 ecx
  00040	2b f0		 sub	 esi, eax
  00042	56		 push	 esi
  00043	53		 push	 ebx
  00044	8b cb		 mov	 ecx, ebx
  00046	e8 00 00 00 00	 call	 ?assign@?$basic_string@DU?$char_traits@D@std@@V?$allocator@D@2@@std@@QAEAAV12@ABV12@II@Z ; std::basic_string<char,std::char_traits<char>,std::allocator<char> >::assign
  0004b	5f		 pop	 edi
  0004c	5e		 pop	 esi
  0004d	5b		 pop	 ebx

; 618  : 		}

  0004e	c2 08 00	 ret	 8
$L221367:
  00051	55		 push	 ebp

; 611  : 
; 612  : 		if (_Grow(_Num))

  00052	8b 6c 24 18	 mov	 ebp, DWORD PTR __Num$[esp+12]
  00056	83 fd fe	 cmp	 ebp, -2			; fffffffeH
  00059	76 07		 jbe	 SHORT $L234277
  0005b	8b cb		 mov	 ecx, ebx
  0005d	e8 00 00 00 00	 call	 ?_Xlen@_String_base@std@@QBEXXZ ; std::_String_base::_Xlen
$L234277:
  00062	8b 43 18	 mov	 eax, DWORD PTR [ebx+24]
  00065	3b c5		 cmp	 eax, ebp
  00067	73 1b		 jae	 SHORT $L234278
  00069	8b 53 14	 mov	 edx, DWORD PTR [ebx+20]
  0006c	52		 push	 edx
  0006d	55		 push	 ebp
  0006e	8b cb		 mov	 ecx, ebx
  00070	e8 00 00 00 00	 call	 ?_Copy@?$basic_string@DU?$char_traits@D@std@@V?$allocator@D@2@@std@@IAEXII@Z ; std::basic_string<char,std::char_traits<char>,std::allocator<char> >::_Copy
  00075	85 ed		 test	 ebp, ebp
$L234358:
  00077	76 68		 jbe	 SHORT $L234355

; 613  : 			{	// make room and assign new stuff
; 614  : 			_Traits::copy(_Myptr(), _Ptr, _Num);

  00079	83 7b 18 10	 cmp	 DWORD PTR [ebx+24], 16	; 00000010H
  0007d	72 2f		 jb	 SHORT $L234330
  0007f	8b 7b 04	 mov	 edi, DWORD PTR [ebx+4]
  00082	eb 2d		 jmp	 SHORT $L234331

; 611  : 
; 612  : 		if (_Grow(_Num))

$L234278:
  00084	85 ed		 test	 ebp, ebp
  00086	75 ef		 jne	 SHORT $L234358
  00088	83 f8 10	 cmp	 eax, 16			; 00000010H
  0008b	89 6b 14	 mov	 DWORD PTR [ebx+20], ebp
  0008e	72 0f		 jb	 SHORT $L234321
  00090	8b 43 04	 mov	 eax, DWORD PTR [ebx+4]
  00093	5d		 pop	 ebp
  00094	5f		 pop	 edi
  00095	c6 00 00	 mov	 BYTE PTR [eax], 0
  00098	5e		 pop	 esi

; 616  : 			}
; 617  : 		return (*this);

  00099	8b c3		 mov	 eax, ebx
  0009b	5b		 pop	 ebx

; 618  : 		}

  0009c	c2 08 00	 ret	 8

; 611  : 
; 612  : 		if (_Grow(_Num))

$L234321:
  0009f	5d		 pop	 ebp
  000a0	8d 43 04	 lea	 eax, DWORD PTR [ebx+4]
  000a3	5f		 pop	 edi
  000a4	c6 00 00	 mov	 BYTE PTR [eax], 0
  000a7	5e		 pop	 esi

; 616  : 			}
; 617  : 		return (*this);

  000a8	8b c3		 mov	 eax, ebx
  000aa	5b		 pop	 ebx

; 618  : 		}

  000ab	c2 08 00	 ret	 8

; 613  : 			{	// make room and assign new stuff
; 614  : 			_Traits::copy(_Myptr(), _Ptr, _Num);

$L234330:
  000ae	8d 7b 04	 lea	 edi, DWORD PTR [ebx+4]
$L234331:
  000b1	8b cd		 mov	 ecx, ebp
  000b3	8b c1		 mov	 eax, ecx
  000b5	c1 e9 02	 shr	 ecx, 2
  000b8	f3 a5		 rep movsd
  000ba	8b c8		 mov	 ecx, eax
  000bc	83 e1 03	 and	 ecx, 3
  000bf	f3 a4		 rep movsb

; 615  : 			_Eos(_Num);

  000c1	83 7b 18 10	 cmp	 DWORD PTR [ebx+24], 16	; 00000010H
  000c5	89 6b 14	 mov	 DWORD PTR [ebx+20], ebp
  000c8	72 10		 jb	 SHORT $L234353
  000ca	8b 43 04	 mov	 eax, DWORD PTR [ebx+4]
  000cd	c6 04 28 00	 mov	 BYTE PTR [eax+ebp], 0
  000d1	5d		 pop	 ebp
  000d2	5f		 pop	 edi
  000d3	5e		 pop	 esi

; 616  : 			}
; 617  : 		return (*this);

  000d4	8b c3		 mov	 eax, ebx
  000d6	5b		 pop	 ebx

; 618  : 		}

  000d7	c2 08 00	 ret	 8

; 615  : 			_Eos(_Num);

$L234353:
  000da	8d 43 04	 lea	 eax, DWORD PTR [ebx+4]
  000dd	c6 04 28 00	 mov	 BYTE PTR [eax+ebp], 0
$L234355:
  000e1	5d		 pop	 ebp
  000e2	5f		 pop	 edi
  000e3	5e		 pop	 esi

; 616  : 			}
; 617  : 		return (*this);

  000e4	8b c3		 mov	 eax, ebx
  000e6	5b		 pop	 ebx

; 618  : 		}

  000e7	c2 08 00	 ret	 8
?assign@?$basic_string@DU?$char_traits@D@std@@V?$allocator@D@2@@std@@QAEAAV12@PBDI@Z ENDP ; std::basic_string<char,std::char_traits<char>,std::allocator<char> >::assign
_TEXT	ENDS
PUBLIC	??1CMailBox@@UAE@XZ				; CMailBox::~CMailBox
PUBLIC	??_7CMailBox@@6B@				; CMailBox::`vftable'
PUBLIC	??_GCMailBox@@UAEPAXI@Z				; CMailBox::`scalar deleting destructor'
EXTRN	??_ECMailBox@@UAEPAXI@Z:NEAR			; CMailBox::`vector deleting destructor'
;	COMDAT xdata$x
; File c:\program files\microsoft visual studio .net 2003\vc7\include\xmemory
xdata$x	SEGMENT
$T234390 DD	0ffffffffH
	DD	FLAT:$L234366
$T234388 DD	019930520H
	DD	01H
	DD	FLAT:$T234390
	DD	2 DUP(00H)
	DD	2 DUP(00H)
xdata$x	ENDS
;	COMDAT ??_7CMailBox@@6B@
CONST	SEGMENT
??_7CMailBox@@6B@ DD FLAT:??_ECMailBox@@UAEPAXI@Z	; CMailBox::`vftable'
; Function compile flags: /Ogty
; File c:\documents and settings\test\mes documents\source\virtuos_v17\build\program\_common\post.cpp
CONST	ENDS
;	COMDAT ??1CMailBox@@UAE@XZ
_TEXT	SEGMENT
$T234386 = -20						; size = 4
_this$ = -16						; size = 4
__$EHRec$ = -12						; size = 12
??1CMailBox@@UAE@XZ PROC NEAR				; CMailBox::~CMailBox, COMDAT
; _this$ = ecx

; 178  : {

  00000	6a ff		 push	 -1
  00002	68 00 00 00 00	 push	 __ehhandler$??1CMailBox@@UAE@XZ
  00007	64 a1 00 00 00
	00		 mov	 eax, DWORD PTR fs:__except_list
  0000d	50		 push	 eax
  0000e	64 89 25 00 00
	00 00		 mov	 DWORD PTR fs:__except_list, esp
  00015	83 ec 08	 sub	 esp, 8
  00018	56		 push	 esi
  00019	8b f1		 mov	 esi, ecx
  0001b	57		 push	 edi
  0001c	89 74 24 0c	 mov	 DWORD PTR _this$[esp+28], esi
  00020	c7 06 00 00 00
	00		 mov	 DWORD PTR [esi], OFFSET FLAT:??_7CMailBox@@6B@
  00026	33 ff		 xor	 edi, edi
  00028	89 7c 24 18	 mov	 DWORD PTR __$EHRec$[esp+36], edi

; 179  : 	Clear();

  0002c	e8 00 00 00 00	 call	 ?Clear@CMailBox@@QAEXXZ	; CMailBox::Clear

; 180  : 
; 181  : #ifdef __CLIENT
; 182  : 	Error( _T( "CMailBox::~CMailBox" ) );
; 183  : #endif
; 184  : }

  00031	8b 46 08	 mov	 eax, DWORD PTR [esi+8]
  00034	3b c7		 cmp	 eax, edi
  00036	74 09		 je	 SHORT $L234384
  00038	50		 push	 eax
  00039	e8 00 00 00 00	 call	 ??3@YAXPAX@Z		; operator delete
  0003e	83 c4 04	 add	 esp, 4
$L234384:
  00041	8b 4c 24 10	 mov	 ecx, DWORD PTR __$EHRec$[esp+28]
  00045	89 7e 08	 mov	 DWORD PTR [esi+8], edi
  00048	89 7e 0c	 mov	 DWORD PTR [esi+12], edi
  0004b	89 7e 10	 mov	 DWORD PTR [esi+16], edi
  0004e	5f		 pop	 edi
  0004f	5e		 pop	 esi
  00050	64 89 0d 00 00
	00 00		 mov	 DWORD PTR fs:__except_list, ecx
  00057	83 c4 14	 add	 esp, 20			; 00000014H
  0005a	c3		 ret	 0
_TEXT	ENDS
;	COMDAT text$x
text$x	SEGMENT
$L234366:
  00000	83 7d f0 00	 cmp	 DWORD PTR _this$[ebp], 0
  00004	0f 84 0e 00 00
	00		 je	 $L234364
  0000a	8b 45 f0	 mov	 eax, DWORD PTR _this$[ebp]
  0000d	83 c0 04	 add	 eax, 4
  00010	89 45 ec	 mov	 DWORD PTR $T234386[ebp], eax
  00013	e9 07 00 00 00	 jmp	 $L234365
$L234364:
  00018	c7 45 ec 00 00
	00 00		 mov	 DWORD PTR $T234386[ebp], 0
$L234365:
  0001f	8b 4d ec	 mov	 ecx, DWORD PTR $T234386[ebp]
  00022	e9 00 00 00 00	 jmp	 ??1?$vector@PAVCMail@@V?$allocator@PAVCMail@@@std@@@std@@QAE@XZ ; std::vector<CMail *,std::allocator<CMail *> >::~vector<CMail *,std::allocator<CMail *> >
__ehhandler$??1CMailBox@@UAE@XZ:
  00027	b8 00 00 00 00	 mov	 eax, OFFSET FLAT:$T234388
  0002c	e9 00 00 00 00	 jmp	 ___CxxFrameHandler
text$x	ENDS
??1CMailBox@@UAE@XZ ENDP				; CMailBox::~CMailBox
PUBLIC	??0?$basic_string@DU?$char_traits@D@std@@V?$allocator@D@2@@std@@QAE@ABV01@@Z ; std::basic_string<char,std::char_traits<char>,std::allocator<char> >::basic_string<char,std::char_traits<char>,std::allocator<char> >
; Function compile flags: /Ogty
; File c:\program files\microsoft visual studio .net 2003\vc7\include\xstring
;	COMDAT ??0?$basic_string@DU?$char_traits@D@std@@V?$allocator@D@2@@std@@QAE@ABV01@@Z
_TEXT	SEGMENT
__Right$ = 8						; size = 4
??0?$basic_string@DU?$char_traits@D@std@@V?$allocator@D@2@@std@@QAE@ABV01@@Z PROC NEAR ; std::basic_string<char,std::char_traits<char>,std::allocator<char> >::basic_string<char,std::char_traits<char>,std::allocator<char> >, COMDAT
; _this$ = ecx

; 323  : 		{	// construct by copying _Right

  00000	56		 push	 esi

; 324  : 		_Tidy();

  00001	33 c0		 xor	 eax, eax
  00003	8b f1		 mov	 esi, ecx

; 325  : 		assign(_Right, 0, npos);

  00005	6a ff		 push	 -1
  00007	89 46 14	 mov	 DWORD PTR [esi+20], eax
  0000a	c7 46 18 0f 00
	00 00		 mov	 DWORD PTR [esi+24], 15	; 0000000fH
  00011	50		 push	 eax
  00012	88 46 04	 mov	 BYTE PTR [esi+4], al
  00015	8b 44 24 10	 mov	 eax, DWORD PTR __Right$[esp+8]
  00019	50		 push	 eax
  0001a	e8 00 00 00 00	 call	 ?assign@?$basic_string@DU?$char_traits@D@std@@V?$allocator@D@2@@std@@QAEAAV12@ABV12@II@Z ; std::basic_string<char,std::char_traits<char>,std::allocator<char> >::assign

; 326  : 		}

  0001f	8b c6		 mov	 eax, esi
  00021	5e		 pop	 esi
  00022	c2 04 00	 ret	 4
??0?$basic_string@DU?$char_traits@D@std@@V?$allocator@D@2@@std@@QAE@ABV01@@Z ENDP ; std::basic_string<char,std::char_traits<char>,std::allocator<char> >::basic_string<char,std::char_traits<char>,std::allocator<char> >
_TEXT	ENDS
PUBLIC	?assign@?$basic_string@DU?$char_traits@D@std@@V?$allocator@D@2@@std@@QAEAAV12@PBD@Z ; std::basic_string<char,std::char_traits<char>,std::allocator<char> >::assign
; Function compile flags: /Ogty
;	COMDAT ?assign@?$basic_string@DU?$char_traits@D@std@@V?$allocator@D@2@@std@@QAEAAV12@PBD@Z
_TEXT	SEGMENT
__Ptr$ = 8						; size = 4
?assign@?$basic_string@DU?$char_traits@D@std@@V?$allocator@D@2@@std@@QAEAAV12@PBD@Z PROC NEAR ; std::basic_string<char,std::char_traits<char>,std::allocator<char> >::assign, COMDAT
; _this$ = ecx

; 621  : 		{	// assign [_Ptr, <null>)

  00000	56		 push	 esi

; 622  : 		return (assign(_Ptr, _Traits::length(_Ptr)));

  00001	8b 74 24 08	 mov	 esi, DWORD PTR __Ptr$[esp]
  00005	8b c6		 mov	 eax, esi
  00007	57		 push	 edi
  00008	8d 78 01	 lea	 edi, DWORD PTR [eax+1]
  0000b	eb 03 8d 49 00	 npad	 5
$L234466:
  00010	8a 10		 mov	 dl, BYTE PTR [eax]
  00012	40		 inc	 eax
  00013	84 d2		 test	 dl, dl
  00015	75 f9		 jne	 SHORT $L234466
  00017	2b c7		 sub	 eax, edi
  00019	50		 push	 eax
  0001a	56		 push	 esi
  0001b	e8 00 00 00 00	 call	 ?assign@?$basic_string@DU?$char_traits@D@std@@V?$allocator@D@2@@std@@QAEAAV12@PBDI@Z ; std::basic_string<char,std::char_traits<char>,std::allocator<char> >::assign
  00020	5f		 pop	 edi
  00021	5e		 pop	 esi

; 623  : 		}

  00022	c2 04 00	 ret	 4
?assign@?$basic_string@DU?$char_traits@D@std@@V?$allocator@D@2@@std@@QAEAAV12@PBD@Z ENDP ; std::basic_string<char,std::char_traits<char>,std::allocator<char> >::assign
; Function compile flags: /Ogty
_TEXT	ENDS
;	COMDAT ??_GCMailBox@@UAEPAXI@Z
_TEXT	SEGMENT
___flags$ = 8						; size = 4
??_GCMailBox@@UAEPAXI@Z PROC NEAR			; CMailBox::`scalar deleting destructor', COMDAT
; _this$ = ecx
  00000	56		 push	 esi
  00001	8b f1		 mov	 esi, ecx
  00003	e8 00 00 00 00	 call	 ??1CMailBox@@UAE@XZ	; CMailBox::~CMailBox
  00008	f6 44 24 08 01	 test	 BYTE PTR ___flags$[esp], 1
  0000d	74 09		 je	 SHORT $L234470
  0000f	56		 push	 esi
  00010	e8 00 00 00 00	 call	 ??3@YAXPAX@Z		; operator delete
  00015	83 c4 04	 add	 esp, 4
$L234470:
  00018	8b c6		 mov	 eax, esi
  0001a	5e		 pop	 esi
  0001b	c2 04 00	 ret	 4
??_GCMailBox@@UAEPAXI@Z ENDP				; CMailBox::`scalar deleting destructor'
_TEXT	ENDS
PUBLIC	??0logic_error@std@@QAE@ABV?$basic_string@DU?$char_traits@D@std@@V?$allocator@D@2@@1@@Z ; std::logic_error::logic_error
EXTRN	??0exception@@QAE@XZ:NEAR			; exception::exception
;	COMDAT xdata$x
; File c:\program files\microsoft visual studio .net 2003\vc7\include\iosfwd
xdata$x	SEGMENT
$T234574 DD	0ffffffffH
	DD	FLAT:$L234474
$T234572 DD	019930520H
	DD	01H
	DD	FLAT:$T234574
	DD	2 DUP(00H)
	DD	2 DUP(00H)
; Function compile flags: /Ogty
; File c:\program files\microsoft visual studio .net 2003\vc7\include\stdexcept
xdata$x	ENDS
;	COMDAT ??0logic_error@std@@QAE@ABV?$basic_string@DU?$char_traits@D@std@@V?$allocator@D@2@@1@@Z
_TEXT	SEGMENT
_this$ = -16						; size = 4
__$EHRec$ = -12						; size = 12
__Message$ = 8						; size = 4
??0logic_error@std@@QAE@ABV?$basic_string@DU?$char_traits@D@std@@V?$allocator@D@2@@1@@Z PROC NEAR ; std::logic_error::logic_error, COMDAT
; _this$ = ecx

; 19   : 		{	// construct from message string

  00000	6a ff		 push	 -1
  00002	68 00 00 00 00	 push	 __ehhandler$??0logic_error@std@@QAE@ABV?$basic_string@DU?$char_traits@D@std@@V?$allocator@D@2@@1@@Z
  00007	64 a1 00 00 00
	00		 mov	 eax, DWORD PTR fs:__except_list
  0000d	50		 push	 eax
  0000e	64 89 25 00 00
	00 00		 mov	 DWORD PTR fs:__except_list, esp
  00015	51		 push	 ecx
  00016	56		 push	 esi
  00017	8b f1		 mov	 esi, ecx
  00019	89 74 24 04	 mov	 DWORD PTR _this$[esp+20], esi
  0001d	e8 00 00 00 00	 call	 ??0exception@@QAE@XZ	; exception::exception
  00022	33 c0		 xor	 eax, eax
  00024	8d 4e 0c	 lea	 ecx, DWORD PTR [esi+12]
  00027	c7 06 00 00 00
	00		 mov	 DWORD PTR [esi], OFFSET FLAT:??_7logic_error@std@@6B@
  0002d	6a ff		 push	 -1
  0002f	89 41 14	 mov	 DWORD PTR [ecx+20], eax
  00032	c7 41 18 0f 00
	00 00		 mov	 DWORD PTR [ecx+24], 15	; 0000000fH
  00039	50		 push	 eax
  0003a	89 44 24 18	 mov	 DWORD PTR __$EHRec$[esp+36], eax
  0003e	88 41 04	 mov	 BYTE PTR [ecx+4], al
  00041	8b 44 24 20	 mov	 eax, DWORD PTR __Message$[esp+24]
  00045	50		 push	 eax
  00046	e8 00 00 00 00	 call	 ?assign@?$basic_string@DU?$char_traits@D@std@@V?$allocator@D@2@@std@@QAEAAV12@ABV12@II@Z ; std::basic_string<char,std::char_traits<char>,std::allocator<char> >::assign

; 20   : 		}

  0004b	8b 4c 24 08	 mov	 ecx, DWORD PTR __$EHRec$[esp+20]
  0004f	8b c6		 mov	 eax, esi
  00051	5e		 pop	 esi
  00052	64 89 0d 00 00
	00 00		 mov	 DWORD PTR fs:__except_list, ecx
  00059	83 c4 10	 add	 esp, 16			; 00000010H
  0005c	c2 04 00	 ret	 4
_TEXT	ENDS
;	COMDAT text$x
text$x	SEGMENT
$L234474:
  00000	8b 4d f0	 mov	 ecx, DWORD PTR _this$[ebp]
  00003	e9 00 00 00 00	 jmp	 ??1exception@@UAE@XZ	; exception::~exception
__ehhandler$??0logic_error@std@@QAE@ABV?$basic_string@DU?$char_traits@D@std@@V?$allocator@D@2@@1@@Z:
  00008	b8 00 00 00 00	 mov	 eax, OFFSET FLAT:$T234572
  0000d	e9 00 00 00 00	 jmp	 ___CxxFrameHandler
text$x	ENDS
??0logic_error@std@@QAE@ABV?$basic_string@DU?$char_traits@D@std@@V?$allocator@D@2@@1@@Z ENDP ; std::logic_error::logic_error
PUBLIC	??0length_error@std@@QAE@ABV?$basic_string@DU?$char_traits@D@std@@V?$allocator@D@2@@1@@Z ; std::length_error::length_error
PUBLIC	??_7length_error@std@@6B@			; std::length_error::`vftable'
PUBLIC	??_Glength_error@std@@UAEPAXI@Z			; std::length_error::`scalar deleting destructor'
EXTRN	??_Elength_error@std@@UAEPAXI@Z:NEAR		; std::length_error::`vector deleting destructor'
;	COMDAT ??_7length_error@std@@6B@
CONST	SEGMENT
??_7length_error@std@@6B@ DD FLAT:??_Elength_error@std@@UAEPAXI@Z ; std::length_error::`vftable'
	DD	FLAT:?what@logic_error@std@@UBEPBDXZ
; Function compile flags: /Ogty
CONST	ENDS
;	COMDAT ??0length_error@std@@QAE@ABV?$basic_string@DU?$char_traits@D@std@@V?$allocator@D@2@@1@@Z
_TEXT	SEGMENT
__Message$ = 8						; size = 4
??0length_error@std@@QAE@ABV?$basic_string@DU?$char_traits@D@std@@V?$allocator@D@2@@1@@Z PROC NEAR ; std::length_error::length_error, COMDAT
; _this$ = ecx

; 95   : 		{	// construct from message string

  00000	8b 44 24 04	 mov	 eax, DWORD PTR __Message$[esp-4]
  00004	56		 push	 esi
  00005	50		 push	 eax
  00006	8b f1		 mov	 esi, ecx
  00008	e8 00 00 00 00	 call	 ??0logic_error@std@@QAE@ABV?$basic_string@DU?$char_traits@D@std@@V?$allocator@D@2@@1@@Z ; std::logic_error::logic_error
  0000d	c7 06 00 00 00
	00		 mov	 DWORD PTR [esi], OFFSET FLAT:??_7length_error@std@@6B@

; 96   : 		}

  00013	8b c6		 mov	 eax, esi
  00015	5e		 pop	 esi
  00016	c2 04 00	 ret	 4
??0length_error@std@@QAE@ABV?$basic_string@DU?$char_traits@D@std@@V?$allocator@D@2@@1@@Z ENDP ; std::length_error::length_error
_TEXT	ENDS
PUBLIC	??1length_error@std@@UAE@XZ			; std::length_error::~length_error
; Function compile flags: /Ogty
;	COMDAT ??_Glength_error@std@@UAEPAXI@Z
_TEXT	SEGMENT
___flags$ = 8						; size = 4
??_Glength_error@std@@UAEPAXI@Z PROC NEAR		; std::length_error::`scalar deleting destructor', COMDAT
; _this$ = ecx
  00000	56		 push	 esi
  00001	8b f1		 mov	 esi, ecx
  00003	e8 00 00 00 00	 call	 ??1length_error@std@@UAE@XZ ; std::length_error::~length_error
  00008	f6 44 24 08 01	 test	 BYTE PTR ___flags$[esp], 1
  0000d	74 09		 je	 SHORT $L234584
  0000f	56		 push	 esi
  00010	e8 00 00 00 00	 call	 ??3@YAXPAX@Z		; operator delete
  00015	83 c4 04	 add	 esp, 4
$L234584:
  00018	8b c6		 mov	 eax, esi
  0001a	5e		 pop	 esi
  0001b	c2 04 00	 ret	 4
??_Glength_error@std@@UAEPAXI@Z ENDP			; std::length_error::`scalar deleting destructor'
; Function compile flags: /Ogty
_TEXT	ENDS
;	COMDAT ??1length_error@std@@UAE@XZ
_TEXT	SEGMENT
??1length_error@std@@UAE@XZ PROC NEAR			; std::length_error::~length_error, COMDAT
; _this$ = ecx

; 99   : 		{}	// destroy the object

  00000	56		 push	 esi
  00001	8b f1		 mov	 esi, ecx
  00003	c7 06 00 00 00
	00		 mov	 DWORD PTR [esi], OFFSET FLAT:??_7logic_error@std@@6B@
  00009	83 7e 24 10	 cmp	 DWORD PTR [esi+36], 16	; 00000010H
  0000d	72 0c		 jb	 SHORT $L234672
  0000f	8b 46 10	 mov	 eax, DWORD PTR [esi+16]
  00012	50		 push	 eax
  00013	e8 00 00 00 00	 call	 ??3@YAXPAX@Z		; operator delete
  00018	83 c4 04	 add	 esp, 4
$L234672:
  0001b	33 c0		 xor	 eax, eax
  0001d	c7 46 24 0f 00
	00 00		 mov	 DWORD PTR [esi+36], 15	; 0000000fH
  00024	89 46 20	 mov	 DWORD PTR [esi+32], eax
  00027	88 46 10	 mov	 BYTE PTR [esi+16], al
  0002a	8b ce		 mov	 ecx, esi
  0002c	5e		 pop	 esi
  0002d	e9 00 00 00 00	 jmp	 ??1exception@@UAE@XZ	; exception::~exception
??1length_error@std@@UAE@XZ ENDP			; std::length_error::~length_error
_TEXT	ENDS
PUBLIC	??0out_of_range@std@@QAE@ABV?$basic_string@DU?$char_traits@D@std@@V?$allocator@D@2@@1@@Z ; std::out_of_range::out_of_range
PUBLIC	??_7out_of_range@std@@6B@			; std::out_of_range::`vftable'
PUBLIC	??_Gout_of_range@std@@UAEPAXI@Z			; std::out_of_range::`scalar deleting destructor'
EXTRN	??_Eout_of_range@std@@UAEPAXI@Z:NEAR		; std::out_of_range::`vector deleting destructor'
;	COMDAT ??_7out_of_range@std@@6B@
CONST	SEGMENT
??_7out_of_range@std@@6B@ DD FLAT:??_Eout_of_range@std@@UAEPAXI@Z ; std::out_of_range::`vftable'
	DD	FLAT:?what@logic_error@std@@UBEPBDXZ
; Function compile flags: /Ogty
CONST	ENDS
;	COMDAT ??0out_of_range@std@@QAE@ABV?$basic_string@DU?$char_traits@D@std@@V?$allocator@D@2@@1@@Z
_TEXT	SEGMENT
__Message$ = 8						; size = 4
??0out_of_range@std@@QAE@ABV?$basic_string@DU?$char_traits@D@std@@V?$allocator@D@2@@1@@Z PROC NEAR ; std::out_of_range::out_of_range, COMDAT
; _this$ = ecx

; 118  : 		{	// construct from message string

  00000	8b 44 24 04	 mov	 eax, DWORD PTR __Message$[esp-4]
  00004	56		 push	 esi
  00005	50		 push	 eax
  00006	8b f1		 mov	 esi, ecx
  00008	e8 00 00 00 00	 call	 ??0logic_error@std@@QAE@ABV?$basic_string@DU?$char_traits@D@std@@V?$allocator@D@2@@1@@Z ; std::logic_error::logic_error
  0000d	c7 06 00 00 00
	00		 mov	 DWORD PTR [esi], OFFSET FLAT:??_7out_of_range@std@@6B@

; 119  : 		}

  00013	8b c6		 mov	 eax, esi
  00015	5e		 pop	 esi
  00016	c2 04 00	 ret	 4
??0out_of_range@std@@QAE@ABV?$basic_string@DU?$char_traits@D@std@@V?$allocator@D@2@@1@@Z ENDP ; std::out_of_range::out_of_range
_TEXT	ENDS
PUBLIC	??1out_of_range@std@@UAE@XZ			; std::out_of_range::~out_of_range
; Function compile flags: /Ogty
;	COMDAT ??_Gout_of_range@std@@UAEPAXI@Z
_TEXT	SEGMENT
___flags$ = 8						; size = 4
??_Gout_of_range@std@@UAEPAXI@Z PROC NEAR		; std::out_of_range::`scalar deleting destructor', COMDAT
; _this$ = ecx
  00000	56		 push	 esi
  00001	8b f1		 mov	 esi, ecx
  00003	e8 00 00 00 00	 call	 ??1out_of_range@std@@UAE@XZ ; std::out_of_range::~out_of_range
  00008	f6 44 24 08 01	 test	 BYTE PTR ___flags$[esp], 1
  0000d	74 09		 je	 SHORT $L234698
  0000f	56		 push	 esi
  00010	e8 00 00 00 00	 call	 ??3@YAXPAX@Z		; operator delete
  00015	83 c4 04	 add	 esp, 4
$L234698:
  00018	8b c6		 mov	 eax, esi
  0001a	5e		 pop	 esi
  0001b	c2 04 00	 ret	 4
??_Gout_of_range@std@@UAEPAXI@Z ENDP			; std::out_of_range::`scalar deleting destructor'
; Function compile flags: /Ogty
_TEXT	ENDS
;	COMDAT ??1out_of_range@std@@UAE@XZ
_TEXT	SEGMENT
??1out_of_range@std@@UAE@XZ PROC NEAR			; std::out_of_range::~out_of_range, COMDAT
; _this$ = ecx

; 122  : 		{}	// destroy the object

  00000	56		 push	 esi
  00001	8b f1		 mov	 esi, ecx
  00003	c7 06 00 00 00
	00		 mov	 DWORD PTR [esi], OFFSET FLAT:??_7logic_error@std@@6B@
  00009	83 7e 24 10	 cmp	 DWORD PTR [esi+36], 16	; 00000010H
  0000d	72 0c		 jb	 SHORT $L234785
  0000f	8b 46 10	 mov	 eax, DWORD PTR [esi+16]
  00012	50		 push	 eax
  00013	e8 00 00 00 00	 call	 ??3@YAXPAX@Z		; operator delete
  00018	83 c4 04	 add	 esp, 4
$L234785:
  0001b	33 c0		 xor	 eax, eax
  0001d	c7 46 24 0f 00
	00 00		 mov	 DWORD PTR [esi+36], 15	; 0000000fH
  00024	89 46 20	 mov	 DWORD PTR [esi+32], eax
  00027	88 46 10	 mov	 BYTE PTR [esi+16], al
  0002a	8b ce		 mov	 ecx, esi
  0002c	5e		 pop	 esi
  0002d	e9 00 00 00 00	 jmp	 ??1exception@@UAE@XZ	; exception::~exception
??1out_of_range@std@@UAE@XZ ENDP			; std::out_of_range::~out_of_range
_TEXT	ENDS
PUBLIC	??0?$basic_string@DU?$char_traits@D@std@@V?$allocator@D@2@@std@@QAE@PBD@Z ; std::basic_string<char,std::char_traits<char>,std::allocator<char> >::basic_string<char,std::char_traits<char>,std::allocator<char> >
; Function compile flags: /Ogty
; File c:\program files\microsoft visual studio .net 2003\vc7\include\xstring
;	COMDAT ??0?$basic_string@DU?$char_traits@D@std@@V?$allocator@D@2@@std@@QAE@PBD@Z
_TEXT	SEGMENT
__Ptr$ = 8						; size = 4
??0?$basic_string@DU?$char_traits@D@std@@V?$allocator@D@2@@std@@QAE@PBD@Z PROC NEAR ; std::basic_string<char,std::char_traits<char>,std::allocator<char> >::basic_string<char,std::char_traits<char>,std::allocator<char> >, COMDAT
; _this$ = ecx

; 361  : 		_Tidy();
; 362  : 		assign(_Ptr);

  00000	8b 54 24 04	 mov	 edx, DWORD PTR __Ptr$[esp-4]
  00004	56		 push	 esi
  00005	8b f1		 mov	 esi, ecx
  00007	8b c2		 mov	 eax, edx
  00009	57		 push	 edi
  0000a	c7 46 18 0f 00
	00 00		 mov	 DWORD PTR [esi+24], 15	; 0000000fH
  00011	c7 46 14 00 00
	00 00		 mov	 DWORD PTR [esi+20], 0
  00018	c6 46 04 00	 mov	 BYTE PTR [esi+4], 0
  0001c	8d 78 01	 lea	 edi, DWORD PTR [eax+1]
  0001f	90		 npad	 1
$L234880:
  00020	8a 08		 mov	 cl, BYTE PTR [eax]
  00022	40		 inc	 eax
  00023	84 c9		 test	 cl, cl
  00025	75 f9		 jne	 SHORT $L234880
  00027	2b c7		 sub	 eax, edi
  00029	50		 push	 eax
  0002a	52		 push	 edx
  0002b	8b ce		 mov	 ecx, esi
  0002d	e8 00 00 00 00	 call	 ?assign@?$basic_string@DU?$char_traits@D@std@@V?$allocator@D@2@@std@@QAEAAV12@PBDI@Z ; std::basic_string<char,std::char_traits<char>,std::allocator<char> >::assign
  00032	5f		 pop	 edi

; 363  : 		}

  00033	8b c6		 mov	 eax, esi
  00035	5e		 pop	 esi
  00036	c2 04 00	 ret	 4
??0?$basic_string@DU?$char_traits@D@std@@V?$allocator@D@2@@std@@QAE@PBD@Z ENDP ; std::basic_string<char,std::char_traits<char>,std::allocator<char> >::basic_string<char,std::char_traits<char>,std::allocator<char> >
_TEXT	ENDS
PUBLIC	?_Insert@?$_Tree@V?$_Tmap_traits@KPAVCMailBox@@U?$less@K@std@@V?$allocator@U?$pair@$$CBKPAVCMailBox@@@std@@@3@$0A@@std@@@std@@IAE?AViterator@12@_NPAU_Node@?$_Tree_nod@V?$_Tmap_traits@KPAVCMailBox@@U?$less@K@std@@V?$allocator@U?$pair@$$CBKPAVCMailBox@@@std@@@3@$0A@@std@@@2@ABU?$pair@$$CBKPAVCMailBox@@@2@@Z ; std::_Tree<std::_Tmap_traits<unsigned long,CMailBox *,std::less<unsigned long>,std::allocator<std::pair<unsigned long const ,CMailBox *> >,0> >::_Insert
PUBLIC	__TI3?AVlength_error@std@@
PUBLIC	__CTA3?AVlength_error@std@@
PUBLIC	??_R0?AVlength_error@std@@@8			; std::length_error `RTTI Type Descriptor'
PUBLIC	__CT??_R0?AVlength_error@std@@@8??0length_error@std@@QAE@ABV01@@Z40
PUBLIC	??_R0?AVlogic_error@std@@@8			; std::logic_error `RTTI Type Descriptor'
PUBLIC	__CT??_R0?AVlogic_error@std@@@8??0logic_error@std@@QAE@ABV01@@Z40
PUBLIC	??_R0?AVexception@@@8				; exception `RTTI Type Descriptor'
PUBLIC	__CT??_R0?AVexception@@@8??0exception@@QAE@ABV0@@Z12
PUBLIC	??_C@_0BE@JONHPENG@map?1set?$DMT?$DO?5too?5long?$AA@ ; `string'
PUBLIC	??0logic_error@std@@QAE@ABV01@@Z		; std::logic_error::logic_error
PUBLIC	??0length_error@std@@QAE@ABV01@@Z		; std::length_error::length_error
EXTRN	??0exception@@QAE@ABV0@@Z:NEAR			; exception::exception
EXTRN	??_7type_info@@6B@:DWORD			; type_info::`vftable'
;	COMDAT xdata$x
; File c:\program files\microsoft visual studio .net 2003\vc7\include\xtree
xdata$x	SEGMENT
$T235256 DD	0ffffffffH
	DD	FLAT:$L234886
$T235251 DD	019930520H
	DD	01H
	DD	FLAT:$T235256
	DD	2 DUP(00H)
	DD	2 DUP(00H)
xdata$x	ENDS
;	COMDAT ??_C@_0BE@JONHPENG@map?1set?$DMT?$DO?5too?5long?$AA@
CONST	SEGMENT
??_C@_0BE@JONHPENG@map?1set?$DMT?$DO?5too?5long?$AA@ DB 'map/set<T> too l'
	DB	'ong', 00H					; `string'
CONST	ENDS
;	COMDAT __TI3?AVlength_error@std@@
xdata$x	SEGMENT
__TI3?AVlength_error@std@@ DD 00H
	DD	FLAT:??1length_error@std@@UAE@XZ
	DD	00H
	DD	FLAT:__CTA3?AVlength_error@std@@
xdata$x	ENDS
;	COMDAT __CTA3?AVlength_error@std@@
xdata$x	SEGMENT
__CTA3?AVlength_error@std@@ DD 03H
	DD	FLAT:__CT??_R0?AVlength_error@std@@@8??0length_error@std@@QAE@ABV01@@Z40
	DD	FLAT:__CT??_R0?AVlogic_error@std@@@8??0logic_error@std@@QAE@ABV01@@Z40
	DD	FLAT:__CT??_R0?AVexception@@@8??0exception@@QAE@ABV0@@Z12
xdata$x	ENDS
;	COMDAT __CT??_R0?AVlength_error@std@@@8??0length_error@std@@QAE@ABV01@@Z40
xdata$x	SEGMENT
__CT??_R0?AVlength_error@std@@@8??0length_error@std@@QAE@ABV01@@Z40 DD 00H
	DD	FLAT:??_R0?AVlength_error@std@@@8
	DD	00H
	DD	0ffffffffH
	ORG $+4
	DD	028H
	DD	FLAT:??0length_error@std@@QAE@ABV01@@Z
xdata$x	ENDS
;	COMDAT ??_R0?AVlength_error@std@@@8
_DATA	SEGMENT
??_R0?AVlength_error@std@@@8 DD FLAT:??_7type_info@@6B@	; std::length_error `RTTI Type Descriptor'
	DD	00H
	DB	'.?AVlength_error@std@@', 00H
_DATA	ENDS
;	COMDAT __CT??_R0?AVlogic_error@std@@@8??0logic_error@std@@QAE@ABV01@@Z40
xdata$x	SEGMENT
__CT??_R0?AVlogic_error@std@@@8??0logic_error@std@@QAE@ABV01@@Z40 DD 00H
	DD	FLAT:??_R0?AVlogic_error@std@@@8
	DD	00H
	DD	0ffffffffH
	ORG $+4
	DD	028H
	DD	FLAT:??0logic_error@std@@QAE@ABV01@@Z
xdata$x	ENDS
;	COMDAT ??_R0?AVlogic_error@std@@@8
_DATA	SEGMENT
??_R0?AVlogic_error@std@@@8 DD FLAT:??_7type_info@@6B@	; std::logic_error `RTTI Type Descriptor'
	DD	00H
	DB	'.?AVlogic_error@std@@', 00H
_DATA	ENDS
;	COMDAT __CT??_R0?AVexception@@@8??0exception@@QAE@ABV0@@Z12
xdata$x	SEGMENT
__CT??_R0?AVexception@@@8??0exception@@QAE@ABV0@@Z12 DD 00H
	DD	FLAT:??_R0?AVexception@@@8
	DD	00H
	DD	0ffffffffH
	ORG $+4
	DD	0cH
	DD	FLAT:??0exception@@QAE@ABV0@@Z
xdata$x	ENDS
;	COMDAT ??_R0?AVexception@@@8
_DATA	SEGMENT
??_R0?AVexception@@@8 DD FLAT:??_7type_info@@6B@	; exception `RTTI Type Descriptor'
	DD	00H
	DB	'.?AVexception@@', 00H
; Function compile flags: /Ogty
_DATA	ENDS
;	COMDAT ?_Insert@?$_Tree@V?$_Tmap_traits@KPAVCMailBox@@U?$less@K@std@@V?$allocator@U?$pair@$$CBKPAVCMailBox@@@std@@@3@$0A@@std@@@std@@IAE?AViterator@12@_NPAU_Node@?$_Tree_nod@V?$_Tmap_traits@KPAVCMailBox@@U?$less@K@std@@V?$allocator@U?$pair@$$CBKPAVCMailBox@@@std@@@3@$0A@@std@@@2@ABU?$pair@$$CBKPAVCMailBox@@@2@@Z
_TEXT	SEGMENT
$T234885 = -80						; size = 28
$T234884 = -52						; size = 40
__$EHRec$ = -12						; size = 12
___$ReturnUdt$ = 8					; size = 4
__Addleft$ = 12						; size = 1
__Wherenode$ = 16					; size = 4
__Newnode$ = 20						; size = 4
__Val$ = 20						; size = 4
?_Insert@?$_Tree@V?$_Tmap_traits@KPAVCMailBox@@U?$less@K@std@@V?$allocator@U?$pair@$$CBKPAVCMailBox@@@std@@@3@$0A@@std@@@std@@IAE?AViterator@12@_NPAU_Node@?$_Tree_nod@V?$_Tmap_traits@KPAVCMailBox@@U?$less@K@std@@V?$allocator@U?$pair@$$CBKPAVCMailBox@@@std@@@3@$0A@@std@@@2@ABU?$pair@$$CBKPAVCMailBox@@@2@@Z PROC NEAR ; std::_Tree<std::_Tmap_traits<unsigned long,CMailBox *,std::less<unsigned long>,std::allocator<std::pair<unsigned long const ,CMailBox *> >,0> >::_Insert, COMDAT
; _this$ = ecx

; 911  : 		{	// add node with value next to _Wherenode, to left if _Addnode

  00000	64 a1 00 00 00
	00		 mov	 eax, DWORD PTR fs:__except_list
  00006	6a ff		 push	 -1
  00008	68 00 00 00 00	 push	 __ehhandler$?_Insert@?$_Tree@V?$_Tmap_traits@KPAVCMailBox@@U?$less@K@std@@V?$allocator@U?$pair@$$CBKPAVCMailBox@@@std@@@3@$0A@@std@@@std@@IAE?AViterator@12@_NPAU_Node@?$_Tree_nod@V?$_Tmap_traits@KPAVCMailBox@@U?$less@K@std@@V?$allocator@U?$pair@$$CBKPAVCMailBox@@@std@@@3@$0A@@std@@@2@ABU?$pair@$$CBKPAVCMailBox@@@2@@Z
  0000d	50		 push	 eax
  0000e	64 89 25 00 00
	00 00		 mov	 DWORD PTR fs:__except_list, esp
  00015	83 ec 44	 sub	 esp, 68			; 00000044H
  00018	56		 push	 esi
  00019	57		 push	 edi
  0001a	8b f9		 mov	 edi, ecx

; 912  : 		if (max_size() - 1 <= _Mysize)

  0001c	81 7f 08 fe ff
	ff 1f		 cmp	 DWORD PTR [edi+8], 536870910 ; 1ffffffeH
  00023	72 4c		 jb	 SHORT $L227411

; 913  : 			_THROW(length_error, "map/set<T> too long");

  00025	6a 13		 push	 19			; 00000013H
  00027	33 f6		 xor	 esi, esi
  00029	68 00 00 00 00	 push	 OFFSET FLAT:??_C@_0BE@JONHPENG@map?1set?$DMT?$DO?5too?5long?$AA@
  0002e	8d 4c 24 10	 lea	 ecx, DWORD PTR $T234885[esp+96]
  00032	c7 44 24 28 0f
	00 00 00	 mov	 DWORD PTR $T234885[esp+120], 15 ; 0000000fH
  0003a	89 74 24 24	 mov	 DWORD PTR $T234885[esp+116], esi
  0003e	c6 44 24 14 00	 mov	 BYTE PTR $T234885[esp+100], 0
  00043	e8 00 00 00 00	 call	 ?assign@?$basic_string@DU?$char_traits@D@std@@V?$allocator@D@2@@std@@QAEAAV12@PBDI@Z ; std::basic_string<char,std::char_traits<char>,std::allocator<char> >::assign
  00048	8d 44 24 08	 lea	 eax, DWORD PTR $T234885[esp+88]
  0004c	50		 push	 eax
  0004d	8d 4c 24 28	 lea	 ecx, DWORD PTR $T234884[esp+92]
  00051	89 74 24 58	 mov	 DWORD PTR __$EHRec$[esp+100], esi
  00055	e8 00 00 00 00	 call	 ??0logic_error@std@@QAE@ABV?$basic_string@DU?$char_traits@D@std@@V?$allocator@D@2@@1@@Z ; std::logic_error::logic_error
  0005a	68 00 00 00 00	 push	 OFFSET FLAT:__TI3?AVlength_error@std@@
  0005f	8d 4c 24 28	 lea	 ecx, DWORD PTR $T234884[esp+92]
  00063	51		 push	 ecx
  00064	c7 44 24 2c 00
	00 00 00	 mov	 DWORD PTR $T234884[esp+96], OFFSET FLAT:??_7length_error@std@@6B@
  0006c	e8 00 00 00 00	 call	 __CxxThrowException@8
$L235257:
$L227411:

; 914  : 		_Nodeptr _Newnode = _Buynode(_Myhead, _Wherenode, _Myhead,
; 915  : 			_Val, _Red);

  00071	8b 54 24 68	 mov	 edx, DWORD PTR __Val$[esp+84]
  00075	8b 47 04	 mov	 eax, DWORD PTR [edi+4]
  00078	8b 74 24 64	 mov	 esi, DWORD PTR __Wherenode$[esp+84]
  0007c	53		 push	 ebx
  0007d	6a 00		 push	 0
  0007f	52		 push	 edx
  00080	50		 push	 eax
  00081	56		 push	 esi
  00082	50		 push	 eax
  00083	8b cf		 mov	 ecx, edi
  00085	e8 00 00 00 00	 call	 ?_Buynode@?$_Tree@V?$_Tmap_traits@KPAVCMailBox@@U?$less@K@std@@V?$allocator@U?$pair@$$CBKPAVCMailBox@@@std@@@3@$0A@@std@@@std@@IAEPAU_Node@?$_Tree_nod@V?$_Tmap_traits@KPAVCMailBox@@U?$less@K@std@@V?$allocator@U?$pair@$$CBKPAVCMailBox@@@std@@@3@$0A@@std@@@2@PAU342@00ABU?$pair@$$CBKPAVCMailBox@@@2@D@Z ; std::_Tree<std::_Tmap_traits<unsigned long,CMailBox *,std::less<unsigned long>,std::allocator<std::pair<unsigned long const ,CMailBox *> >,0> >::_Buynode

; 916  : 
; 917  : 		++_Mysize;

  0008a	8b 5f 08	 mov	 ebx, DWORD PTR [edi+8]
  0008d	8b c8		 mov	 ecx, eax

; 918  : 		if (_Wherenode == _Myhead)

  0008f	8b 47 04	 mov	 eax, DWORD PTR [edi+4]
  00092	43		 inc	 ebx
  00093	3b f0		 cmp	 esi, eax
  00095	89 4c 24 6c	 mov	 DWORD PTR __Newnode$[esp+88], ecx
  00099	89 5f 08	 mov	 DWORD PTR [edi+8], ebx
  0009c	75 10		 jne	 SHORT $L227416

; 919  : 			{	// first node in tree, just set head values
; 920  : 			_Root() = _Newnode;

  0009e	89 48 04	 mov	 DWORD PTR [eax+4], ecx

; 921  : 			_Lmost() = _Newnode, _Rmost() = _Newnode;

  000a1	8b 47 04	 mov	 eax, DWORD PTR [edi+4]
  000a4	89 08		 mov	 DWORD PTR [eax], ecx
  000a6	8b 57 04	 mov	 edx, DWORD PTR [edi+4]
  000a9	89 4a 08	 mov	 DWORD PTR [edx+8], ecx

; 922  : 			}
; 923  : 		else if (_Addleft)

  000ac	eb 23		 jmp	 SHORT $L227421
$L227416:
  000ae	8a 44 24 64	 mov	 al, BYTE PTR __Addleft$[esp+88]
  000b2	84 c0		 test	 al, al
  000b4	74 0d		 je	 SHORT $L227418

; 924  : 			{	// add to left of _Wherenode
; 925  : 			_Left(_Wherenode) = _Newnode;

  000b6	89 0e		 mov	 DWORD PTR [esi], ecx

; 926  : 			if (_Wherenode == _Lmost())

  000b8	8b 47 04	 mov	 eax, DWORD PTR [edi+4]
  000bb	3b 30		 cmp	 esi, DWORD PTR [eax]
  000bd	75 12		 jne	 SHORT $L227421

; 927  : 				_Lmost() = _Newnode;

  000bf	89 08		 mov	 DWORD PTR [eax], ecx

; 928  : 			}
; 929  : 		else

  000c1	eb 0e		 jmp	 SHORT $L227421
$L227418:

; 930  : 			{	// add to right of _Wherenode
; 931  : 			_Right(_Wherenode) = _Newnode;

  000c3	89 4e 08	 mov	 DWORD PTR [esi+8], ecx

; 932  : 			if (_Wherenode == _Rmost())

  000c6	8b 47 04	 mov	 eax, DWORD PTR [edi+4]
  000c9	3b 70 08	 cmp	 esi, DWORD PTR [eax+8]
  000cc	75 03		 jne	 SHORT $L227421

; 933  : 				_Rmost() = _Newnode;

  000ce	89 48 08	 mov	 DWORD PTR [eax+8], ecx
$L227421:

; 934  : 			}
; 935  : 
; 936  : 		for (_Nodeptr _Pnode = _Newnode; _Color(_Parent(_Pnode)) == _Red; )

  000d1	8b 51 04	 mov	 edx, DWORD PTR [ecx+4]
  000d4	80 7a 14 00	 cmp	 BYTE PTR [edx+20], 0
  000d8	8d 41 04	 lea	 eax, DWORD PTR [ecx+4]
  000db	8b f1		 mov	 esi, ecx
  000dd	b3 01		 mov	 bl, 1
  000df	0f 85 a5 00 00
	00		 jne	 $L227425
  000e5	55		 push	 ebp
$L227424:

; 937  : 			if (_Parent(_Pnode) == _Left(_Parent(_Parent(_Pnode))))

  000e6	8b 08		 mov	 ecx, DWORD PTR [eax]
  000e8	8b 69 04	 mov	 ebp, DWORD PTR [ecx+4]
  000eb	8b 55 00	 mov	 edx, DWORD PTR [ebp]
  000ee	3b ca		 cmp	 ecx, edx
  000f0	75 50		 jne	 SHORT $L227426

; 938  : 				{	// fixup red-red in left subtree
; 939  : 				_Wherenode = _Right(_Parent(_Parent(_Pnode)));

  000f2	8b 55 08	 mov	 edx, DWORD PTR [ebp+8]

; 940  : 				if (_Color(_Wherenode) == _Red)

  000f5	80 7a 14 00	 cmp	 BYTE PTR [edx+20], 0
  000f9	75 18		 jne	 SHORT $L227427
$L235255:

; 941  : 					{	// parent has two red children, blacken both
; 942  : 					_Color(_Parent(_Pnode)) = _Black;

  000fb	8b 08		 mov	 ecx, DWORD PTR [eax]
  000fd	88 59 14	 mov	 BYTE PTR [ecx+20], bl

; 943  : 					_Color(_Wherenode) = _Black;

  00100	88 5a 14	 mov	 BYTE PTR [edx+20], bl

; 944  : 					_Color(_Parent(_Parent(_Pnode))) = _Red;

  00103	8b 10		 mov	 edx, DWORD PTR [eax]
  00105	8b 4a 04	 mov	 ecx, DWORD PTR [edx+4]
  00108	c6 41 14 00	 mov	 BYTE PTR [ecx+20], 0

; 945  : 					_Pnode = _Parent(_Parent(_Pnode));

  0010c	8b 10		 mov	 edx, DWORD PTR [eax]
  0010e	8b 72 04	 mov	 esi, DWORD PTR [edx+4]

; 946  : 					}
; 947  : 				else

  00111	eb 61		 jmp	 SHORT $L227432
$L227427:

; 948  : 					{	// parent has red and black children
; 949  : 					if (_Pnode == _Right(_Parent(_Pnode)))

  00113	3b 71 08	 cmp	 esi, DWORD PTR [ecx+8]
  00116	75 0a		 jne	 SHORT $L227429

; 950  : 						{	// rotate right child to left
; 951  : 						_Pnode = _Parent(_Pnode);

  00118	8b f1		 mov	 esi, ecx

; 952  : 						_Lrotate(_Pnode);

  0011a	56		 push	 esi
  0011b	8b cf		 mov	 ecx, edi
  0011d	e8 00 00 00 00	 call	 ?_Lrotate@?$_Tree@V?$_Tmap_traits@KPAVCMailBox@@U?$less@K@std@@V?$allocator@U?$pair@$$CBKPAVCMailBox@@@std@@@3@$0A@@std@@@std@@IAEXPAU_Node@?$_Tree_nod@V?$_Tmap_traits@KPAVCMailBox@@U?$less@K@std@@V?$allocator@U?$pair@$$CBKPAVCMailBox@@@std@@@3@$0A@@std@@@2@@Z ; std::_Tree<std::_Tmap_traits<unsigned long,CMailBox *,std::less<unsigned long>,std::allocator<std::pair<unsigned long const ,CMailBox *> >,0> >::_Lrotate
$L227429:

; 953  : 						}
; 954  : 					_Color(_Parent(_Pnode)) = _Black;	// propagate red up

  00122	8b 46 04	 mov	 eax, DWORD PTR [esi+4]
  00125	88 58 14	 mov	 BYTE PTR [eax+20], bl

; 955  : 					_Color(_Parent(_Parent(_Pnode))) = _Red;

  00128	8b 4e 04	 mov	 ecx, DWORD PTR [esi+4]
  0012b	8b 51 04	 mov	 edx, DWORD PTR [ecx+4]
  0012e	c6 42 14 00	 mov	 BYTE PTR [edx+20], 0

; 956  : 					_Rrotate(_Parent(_Parent(_Pnode)));

  00132	8b 46 04	 mov	 eax, DWORD PTR [esi+4]
  00135	8b 48 04	 mov	 ecx, DWORD PTR [eax+4]
  00138	51		 push	 ecx
  00139	8b cf		 mov	 ecx, edi
  0013b	e8 00 00 00 00	 call	 ?_Rrotate@?$_Tree@V?$_Tmap_traits@KPAVCMailBox@@U?$less@K@std@@V?$allocator@U?$pair@$$CBKPAVCMailBox@@@std@@@3@$0A@@std@@@std@@IAEXPAU_Node@?$_Tree_nod@V?$_Tmap_traits@KPAVCMailBox@@U?$less@K@std@@V?$allocator@U?$pair@$$CBKPAVCMailBox@@@std@@@3@$0A@@std@@@2@@Z ; std::_Tree<std::_Tmap_traits<unsigned long,CMailBox *,std::less<unsigned long>,std::allocator<std::pair<unsigned long const ,CMailBox *> >,0> >::_Rrotate

; 957  : 					}
; 958  : 				}
; 959  : 			else

  00140	eb 32		 jmp	 SHORT $L227432
$L227426:

; 960  : 				{	// fixup red-red in right subtree
; 961  : 				_Wherenode = _Left(_Parent(_Parent(_Pnode)));
; 962  : 				if (_Color(_Wherenode) == _Red)

  00142	80 7a 14 00	 cmp	 BYTE PTR [edx+20], 0

; 963  : 					{	// parent has two red children, blacken both
; 964  : 					_Color(_Parent(_Pnode)) = _Black;
; 965  : 					_Color(_Wherenode) = _Black;
; 966  : 					_Color(_Parent(_Parent(_Pnode))) = _Red;
; 967  : 					_Pnode = _Parent(_Parent(_Pnode));
; 968  : 					}
; 969  : 				else

  00146	74 b3		 je	 SHORT $L235255

; 970  : 					{	// parent has red and black children
; 971  : 					if (_Pnode == _Left(_Parent(_Pnode)))

  00148	3b 31		 cmp	 esi, DWORD PTR [ecx]
  0014a	75 0a		 jne	 SHORT $L227433

; 972  : 						{	// rotate left child to right
; 973  : 						_Pnode = _Parent(_Pnode);

  0014c	8b f1		 mov	 esi, ecx

; 974  : 						_Rrotate(_Pnode);

  0014e	56		 push	 esi
  0014f	8b cf		 mov	 ecx, edi
  00151	e8 00 00 00 00	 call	 ?_Rrotate@?$_Tree@V?$_Tmap_traits@KPAVCMailBox@@U?$less@K@std@@V?$allocator@U?$pair@$$CBKPAVCMailBox@@@std@@@3@$0A@@std@@@std@@IAEXPAU_Node@?$_Tree_nod@V?$_Tmap_traits@KPAVCMailBox@@U?$less@K@std@@V?$allocator@U?$pair@$$CBKPAVCMailBox@@@std@@@3@$0A@@std@@@2@@Z ; std::_Tree<std::_Tmap_traits<unsigned long,CMailBox *,std::less<unsigned long>,std::allocator<std::pair<unsigned long const ,CMailBox *> >,0> >::_Rrotate
$L227433:

; 975  : 						}
; 976  : 					_Color(_Parent(_Pnode)) = _Black;	// propagate red up

  00156	8b 46 04	 mov	 eax, DWORD PTR [esi+4]
  00159	88 58 14	 mov	 BYTE PTR [eax+20], bl

; 977  : 					_Color(_Parent(_Parent(_Pnode))) = _Red;

  0015c	8b 4e 04	 mov	 ecx, DWORD PTR [esi+4]
  0015f	8b 51 04	 mov	 edx, DWORD PTR [ecx+4]
  00162	c6 42 14 00	 mov	 BYTE PTR [edx+20], 0

; 978  : 					_Lrotate(_Parent(_Parent(_Pnode)));

  00166	8b 46 04	 mov	 eax, DWORD PTR [esi+4]
  00169	8b 48 04	 mov	 ecx, DWORD PTR [eax+4]
  0016c	51		 push	 ecx
  0016d	8b cf		 mov	 ecx, edi
  0016f	e8 00 00 00 00	 call	 ?_Lrotate@?$_Tree@V?$_Tmap_traits@KPAVCMailBox@@U?$less@K@std@@V?$allocator@U?$pair@$$CBKPAVCMailBox@@@std@@@3@$0A@@std@@@std@@IAEXPAU_Node@?$_Tree_nod@V?$_Tmap_traits@KPAVCMailBox@@U?$less@K@std@@V?$allocator@U?$pair@$$CBKPAVCMailBox@@@std@@@3@$0A@@std@@@2@@Z ; std::_Tree<std::_Tmap_traits<unsigned long,CMailBox *,std::less<unsigned long>,std::allocator<std::pair<unsigned long const ,CMailBox *> >,0> >::_Lrotate
$L227432:
  00174	8b 56 04	 mov	 edx, DWORD PTR [esi+4]
  00177	8a 4a 14	 mov	 cl, BYTE PTR [edx+20]
  0017a	84 c9		 test	 cl, cl
  0017c	8d 46 04	 lea	 eax, DWORD PTR [esi+4]
  0017f	0f 84 61 ff ff
	ff		 je	 $L227424
  00185	8b 4c 24 70	 mov	 ecx, DWORD PTR __Newnode$[esp+92]
  00189	5d		 pop	 ebp
$L227425:

; 979  : 					}
; 980  : 				}
; 981  : 
; 982  : 		_Color(_Root()) = _Black;	// root is always black

  0018a	8b 47 04	 mov	 eax, DWORD PTR [edi+4]
  0018d	8b 50 04	 mov	 edx, DWORD PTR [eax+4]

; 983  : 		return (_TREE_ITERATOR(_Newnode));

  00190	8b 44 24 60	 mov	 eax, DWORD PTR ___$ReturnUdt$[esp+88]
  00194	88 5a 14	 mov	 BYTE PTR [edx+20], bl
  00197	5b		 pop	 ebx
  00198	89 08		 mov	 DWORD PTR [eax], ecx

; 984  : 		}

  0019a	8b 4c 24 4c	 mov	 ecx, DWORD PTR __$EHRec$[esp+88]
  0019e	5f		 pop	 edi
  0019f	5e		 pop	 esi
  001a0	64 89 0d 00 00
	00 00		 mov	 DWORD PTR fs:__except_list, ecx
  001a7	83 c4 50	 add	 esp, 80			; 00000050H
  001aa	c2 10 00	 ret	 16			; 00000010H
$L235254:
_TEXT	ENDS
;	COMDAT text$x
text$x	SEGMENT
$L234886:
  00000	8d 4d b0	 lea	 ecx, DWORD PTR $T234885[ebp]
  00003	e9 00 00 00 00	 jmp	 ??1?$basic_string@DU?$char_traits@D@std@@V?$allocator@D@2@@std@@QAE@XZ ; std::basic_string<char,std::char_traits<char>,std::allocator<char> >::~basic_string<char,std::char_traits<char>,std::allocator<char> >
__ehhandler$?_Insert@?$_Tree@V?$_Tmap_traits@KPAVCMailBox@@U?$less@K@std@@V?$allocator@U?$pair@$$CBKPAVCMailBox@@@std@@@3@$0A@@std@@@std@@IAE?AViterator@12@_NPAU_Node@?$_Tree_nod@V?$_Tmap_traits@KPAVCMailBox@@U?$less@K@std@@V?$allocator@U?$pair@$$CBKPAVCMailBox@@@std@@@3@$0A@@std@@@2@ABU?$pair@$$CBKPAVCMailBox@@@2@@Z:
  00008	b8 00 00 00 00	 mov	 eax, OFFSET FLAT:$T235251
  0000d	e9 00 00 00 00	 jmp	 ___CxxFrameHandler
text$x	ENDS
?_Insert@?$_Tree@V?$_Tmap_traits@KPAVCMailBox@@U?$less@K@std@@V?$allocator@U?$pair@$$CBKPAVCMailBox@@@std@@@3@$0A@@std@@@std@@IAE?AViterator@12@_NPAU_Node@?$_Tree_nod@V?$_Tmap_traits@KPAVCMailBox@@U?$less@K@std@@V?$allocator@U?$pair@$$CBKPAVCMailBox@@@std@@@3@$0A@@std@@@2@ABU?$pair@$$CBKPAVCMailBox@@@2@@Z ENDP ; std::_Tree<std::_Tmap_traits<unsigned long,CMailBox *,std::less<unsigned long>,std::allocator<std::pair<unsigned long const ,CMailBox *> >,0> >::_Insert
;	COMDAT xdata$x
xdata$x	SEGMENT
$T235363 DD	0ffffffffH
	DD	FLAT:$L235263
$T235361 DD	019930520H
	DD	01H
	DD	FLAT:$T235363
	DD	2 DUP(00H)
	DD	2 DUP(00H)
; Function compile flags: /Ogty
xdata$x	ENDS
;	COMDAT ??0logic_error@std@@QAE@ABV01@@Z
_TEXT	SEGMENT
_this$ = -16						; size = 4
__$EHRec$ = -12						; size = 12
___that$ = 8						; size = 4
??0logic_error@std@@QAE@ABV01@@Z PROC NEAR		; std::logic_error::logic_error, COMDAT
; _this$ = ecx
  00000	6a ff		 push	 -1
  00002	68 00 00 00 00	 push	 __ehhandler$??0logic_error@std@@QAE@ABV01@@Z
  00007	64 a1 00 00 00
	00		 mov	 eax, DWORD PTR fs:__except_list
  0000d	50		 push	 eax
  0000e	64 89 25 00 00
	00 00		 mov	 DWORD PTR fs:__except_list, esp
  00015	51		 push	 ecx
  00016	56		 push	 esi
  00017	57		 push	 edi
  00018	8b 7c 24 1c	 mov	 edi, DWORD PTR ___that$[esp+20]
  0001c	8b f1		 mov	 esi, ecx
  0001e	57		 push	 edi
  0001f	89 74 24 0c	 mov	 DWORD PTR _this$[esp+28], esi
  00023	e8 00 00 00 00	 call	 ??0exception@@QAE@ABV0@@Z ; exception::exception
  00028	33 c0		 xor	 eax, eax
  0002a	6a ff		 push	 -1
  0002c	8d 4e 0c	 lea	 ecx, DWORD PTR [esi+12]
  0002f	c7 06 00 00 00
	00		 mov	 DWORD PTR [esi], OFFSET FLAT:??_7logic_error@std@@6B@
  00035	50		 push	 eax
  00036	83 c7 0c	 add	 edi, 12			; 0000000cH
  00039	c7 41 18 0f 00
	00 00		 mov	 DWORD PTR [ecx+24], 15	; 0000000fH
  00040	89 41 14	 mov	 DWORD PTR [ecx+20], eax
  00043	57		 push	 edi
  00044	89 44 24 20	 mov	 DWORD PTR __$EHRec$[esp+44], eax
  00048	88 41 04	 mov	 BYTE PTR [ecx+4], al
  0004b	e8 00 00 00 00	 call	 ?assign@?$basic_string@DU?$char_traits@D@std@@V?$allocator@D@2@@std@@QAEAAV12@ABV12@II@Z ; std::basic_string<char,std::char_traits<char>,std::allocator<char> >::assign
  00050	8b 4c 24 0c	 mov	 ecx, DWORD PTR __$EHRec$[esp+24]
  00054	5f		 pop	 edi
  00055	8b c6		 mov	 eax, esi
  00057	5e		 pop	 esi
  00058	64 89 0d 00 00
	00 00		 mov	 DWORD PTR fs:__except_list, ecx
  0005f	83 c4 10	 add	 esp, 16			; 00000010H
  00062	c2 04 00	 ret	 4
_TEXT	ENDS
;	COMDAT text$x
text$x	SEGMENT
$L235263:
  00000	8b 4d f0	 mov	 ecx, DWORD PTR _this$[ebp]
  00003	e9 00 00 00 00	 jmp	 ??1exception@@UAE@XZ	; exception::~exception
__ehhandler$??0logic_error@std@@QAE@ABV01@@Z:
  00008	b8 00 00 00 00	 mov	 eax, OFFSET FLAT:$T235361
  0000d	e9 00 00 00 00	 jmp	 ___CxxFrameHandler
text$x	ENDS
??0logic_error@std@@QAE@ABV01@@Z ENDP			; std::logic_error::logic_error
; Function compile flags: /Ogty
;	COMDAT ??0length_error@std@@QAE@ABV01@@Z
_TEXT	SEGMENT
___that$ = 8						; size = 4
??0length_error@std@@QAE@ABV01@@Z PROC NEAR		; std::length_error::length_error, COMDAT
; _this$ = ecx
  00000	8b 44 24 04	 mov	 eax, DWORD PTR ___that$[esp-4]
  00004	56		 push	 esi
  00005	50		 push	 eax
  00006	8b f1		 mov	 esi, ecx
  00008	e8 00 00 00 00	 call	 ??0logic_error@std@@QAE@ABV01@@Z
  0000d	c7 06 00 00 00
	00		 mov	 DWORD PTR [esi], OFFSET FLAT:??_7length_error@std@@6B@
  00013	8b c6		 mov	 eax, esi
  00015	5e		 pop	 esi
  00016	c2 04 00	 ret	 4
??0length_error@std@@QAE@ABV01@@Z ENDP			; std::length_error::length_error
_TEXT	ENDS
PUBLIC	??_C@_0BD@OLBABOEK@vector?$DMT?$DO?5too?5long?$AA@ ; `string'
PUBLIC	?_Xlen@?$vector@PAVCMail@@V?$allocator@PAVCMail@@@std@@@std@@IBEXXZ ; std::vector<CMail *,std::allocator<CMail *> >::_Xlen
;	COMDAT xdata$x
; File c:\program files\microsoft visual studio .net 2003\vc7\include\stdexcept
xdata$x	SEGMENT
$T235490 DD	0ffffffffH
	DD	FLAT:$L235375
$T235487 DD	019930520H
	DD	01H
	DD	FLAT:$T235490
	DD	2 DUP(00H)
	DD	2 DUP(00H)
xdata$x	ENDS
;	COMDAT ??_C@_0BD@OLBABOEK@vector?$DMT?$DO?5too?5long?$AA@
CONST	SEGMENT
??_C@_0BD@OLBABOEK@vector?$DMT?$DO?5too?5long?$AA@ DB 'vector<T> too long'
	DB	00H						; `string'
; Function compile flags: /Ogty
; File c:\program files\microsoft visual studio .net 2003\vc7\include\vector
CONST	ENDS
;	COMDAT ?_Xlen@?$vector@PAVCMail@@V?$allocator@PAVCMail@@@std@@@std@@IBEXXZ
_TEXT	SEGMENT
$T235374 = -80						; size = 28
$T235373 = -52						; size = 40
__$EHRec$ = -12						; size = 12
?_Xlen@?$vector@PAVCMail@@V?$allocator@PAVCMail@@@std@@@std@@IBEXXZ PROC NEAR ; std::vector<CMail *,std::allocator<CMail *> >::_Xlen, COMDAT
; _this$ = ecx

; 883  : 		{	// report a length_error

  00000	6a ff		 push	 -1
  00002	68 00 00 00 00	 push	 __ehhandler$?_Xlen@?$vector@PAVCMail@@V?$allocator@PAVCMail@@@std@@@std@@IBEXXZ
  00007	64 a1 00 00 00
	00		 mov	 eax, DWORD PTR fs:__except_list
  0000d	50		 push	 eax
  0000e	64 89 25 00 00
	00 00		 mov	 DWORD PTR fs:__except_list, esp
  00015	83 ec 44	 sub	 esp, 68			; 00000044H

; 884  : 		_THROW(length_error, "vector<T> too long");

  00018	6a 12		 push	 18			; 00000012H
  0001a	68 00 00 00 00	 push	 OFFSET FLAT:??_C@_0BD@OLBABOEK@vector?$DMT?$DO?5too?5long?$AA@
  0001f	8d 4c 24 08	 lea	 ecx, DWORD PTR $T235374[esp+88]
  00023	c7 44 24 20 0f
	00 00 00	 mov	 DWORD PTR $T235374[esp+112], 15 ; 0000000fH
  0002b	c7 44 24 1c 00
	00 00 00	 mov	 DWORD PTR $T235374[esp+108], 0
  00033	c6 44 24 0c 00	 mov	 BYTE PTR $T235374[esp+92], 0
  00038	e8 00 00 00 00	 call	 ?assign@?$basic_string@DU?$char_traits@D@std@@V?$allocator@D@2@@std@@QAEAAV12@PBDI@Z ; std::basic_string<char,std::char_traits<char>,std::allocator<char> >::assign
  0003d	8d 04 24	 lea	 eax, DWORD PTR $T235374[esp+80]
  00040	50		 push	 eax
  00041	8d 4c 24 20	 lea	 ecx, DWORD PTR $T235373[esp+84]
  00045	c7 44 24 50 00
	00 00 00	 mov	 DWORD PTR __$EHRec$[esp+92], 0
  0004d	e8 00 00 00 00	 call	 ??0logic_error@std@@QAE@ABV?$basic_string@DU?$char_traits@D@std@@V?$allocator@D@2@@1@@Z ; std::logic_error::logic_error
  00052	68 00 00 00 00	 push	 OFFSET FLAT:__TI3?AVlength_error@std@@
  00057	8d 4c 24 20	 lea	 ecx, DWORD PTR $T235373[esp+84]
  0005b	51		 push	 ecx
  0005c	c7 44 24 24 00
	00 00 00	 mov	 DWORD PTR $T235373[esp+88], OFFSET FLAT:??_7length_error@std@@6B@
  00064	e8 00 00 00 00	 call	 __CxxThrowException@8
$L235491:
$L235489:
  00069	cc		 int	 3
_TEXT	ENDS
;	COMDAT text$x
text$x	SEGMENT
$L235375:
  00000	8d 4d b0	 lea	 ecx, DWORD PTR $T235374[ebp]
  00003	e9 00 00 00 00	 jmp	 ??1?$basic_string@DU?$char_traits@D@std@@V?$allocator@D@2@@std@@QAE@XZ ; std::basic_string<char,std::char_traits<char>,std::allocator<char> >::~basic_string<char,std::char_traits<char>,std::allocator<char> >
__ehhandler$?_Xlen@?$vector@PAVCMail@@V?$allocator@PAVCMail@@@std@@@std@@IBEXXZ:
  00008	b8 00 00 00 00	 mov	 eax, OFFSET FLAT:$T235487
  0000d	e9 00 00 00 00	 jmp	 ___CxxFrameHandler
text$x	ENDS
?_Xlen@?$vector@PAVCMail@@V?$allocator@PAVCMail@@@std@@@std@@IBEXXZ ENDP ; std::vector<CMail *,std::allocator<CMail *> >::_Xlen
PUBLIC	?erase@?$_Tree@V?$_Tmap_traits@KPAVCMailBox@@U?$less@K@std@@V?$allocator@U?$pair@$$CBKPAVCMailBox@@@std@@@3@$0A@@std@@@std@@QAE?AViterator@12@V312@@Z ; std::_Tree<std::_Tmap_traits<unsigned long,CMailBox *,std::less<unsigned long>,std::allocator<std::pair<unsigned long const ,CMailBox *> >,0> >::erase
PUBLIC	__TI3?AVout_of_range@std@@
PUBLIC	__CTA3?AVout_of_range@std@@
PUBLIC	??_R0?AVout_of_range@std@@@8			; std::out_of_range `RTTI Type Descriptor'
PUBLIC	__CT??_R0?AVout_of_range@std@@@8??0out_of_range@std@@QAE@ABV01@@Z40
PUBLIC	??_C@_0BM@PAPJHAGI@invalid?5map?1set?$DMT?$DO?5iterator?$AA@ ; `string'
PUBLIC	??0out_of_range@std@@QAE@ABV01@@Z		; std::out_of_range::out_of_range
;	COMDAT xdata$x
; File c:\program files\microsoft visual studio .net 2003\vc7\include\xmemory
xdata$x	SEGMENT
$T235989 DD	0ffffffffH
	DD	FLAT:$L235503
$T235981 DD	019930520H
	DD	01H
	DD	FLAT:$T235989
	DD	2 DUP(00H)
	DD	2 DUP(00H)
xdata$x	ENDS
;	COMDAT ??_C@_0BM@PAPJHAGI@invalid?5map?1set?$DMT?$DO?5iterator?$AA@
CONST	SEGMENT
??_C@_0BM@PAPJHAGI@invalid?5map?1set?$DMT?$DO?5iterator?$AA@ DB 'invalid '
	DB	'map/set<T> iterator', 00H			; `string'
CONST	ENDS
;	COMDAT __TI3?AVout_of_range@std@@
xdata$x	SEGMENT
__TI3?AVout_of_range@std@@ DD 00H
	DD	FLAT:??1out_of_range@std@@UAE@XZ
	DD	00H
	DD	FLAT:__CTA3?AVout_of_range@std@@
xdata$x	ENDS
;	COMDAT __CTA3?AVout_of_range@std@@
xdata$x	SEGMENT
__CTA3?AVout_of_range@std@@ DD 03H
	DD	FLAT:__CT??_R0?AVout_of_range@std@@@8??0out_of_range@std@@QAE@ABV01@@Z40
	DD	FLAT:__CT??_R0?AVlogic_error@std@@@8??0logic_error@std@@QAE@ABV01@@Z40
	DD	FLAT:__CT??_R0?AVexception@@@8??0exception@@QAE@ABV0@@Z12
xdata$x	ENDS
;	COMDAT __CT??_R0?AVout_of_range@std@@@8??0out_of_range@std@@QAE@ABV01@@Z40
xdata$x	SEGMENT
__CT??_R0?AVout_of_range@std@@@8??0out_of_range@std@@QAE@ABV01@@Z40 DD 00H
	DD	FLAT:??_R0?AVout_of_range@std@@@8
	DD	00H
	DD	0ffffffffH
	ORG $+4
	DD	028H
	DD	FLAT:??0out_of_range@std@@QAE@ABV01@@Z
xdata$x	ENDS
;	COMDAT ??_R0?AVout_of_range@std@@@8
_DATA	SEGMENT
??_R0?AVout_of_range@std@@@8 DD FLAT:??_7type_info@@6B@	; std::out_of_range `RTTI Type Descriptor'
	DD	00H
	DB	'.?AVout_of_range@std@@', 00H
; Function compile flags: /Ogty
; File c:\program files\microsoft visual studio .net 2003\vc7\include\xtree
_DATA	ENDS
;	COMDAT ?erase@?$_Tree@V?$_Tmap_traits@KPAVCMailBox@@U?$less@K@std@@V?$allocator@U?$pair@$$CBKPAVCMailBox@@@std@@@3@$0A@@std@@@std@@QAE?AViterator@12@V312@@Z
_TEXT	SEGMENT
__Erasednode$ = -84					; size = 4
$T235498 = -80						; size = 28
$T235497 = -52						; size = 40
__$EHRec$ = -12						; size = 12
___$ReturnUdt$ = 8					; size = 4
__Where$ = 12						; size = 4
?erase@?$_Tree@V?$_Tmap_traits@KPAVCMailBox@@U?$less@K@std@@V?$allocator@U?$pair@$$CBKPAVCMailBox@@@std@@@3@$0A@@std@@@std@@QAE?AViterator@12@V312@@Z PROC NEAR ; std::_Tree<std::_Tmap_traits<unsigned long,CMailBox *,std::less<unsigned long>,std::allocator<std::pair<unsigned long const ,CMailBox *> >,0> >::erase, COMDAT
; _this$ = ecx

; 590  : 		{	// erase element at _Where

  00000	64 a1 00 00 00
	00		 mov	 eax, DWORD PTR fs:__except_list
  00006	6a ff		 push	 -1
  00008	68 00 00 00 00	 push	 __ehhandler$?erase@?$_Tree@V?$_Tmap_traits@KPAVCMailBox@@U?$less@K@std@@V?$allocator@U?$pair@$$CBKPAVCMailBox@@@std@@@3@$0A@@std@@@std@@QAE?AViterator@12@V312@@Z
  0000d	50		 push	 eax

; 591  : 		if (_Isnil(_Where._Mynode()))

  0000e	8b 44 24 14	 mov	 eax, DWORD PTR __Where$[esp+8]
  00012	64 89 25 00 00
	00 00		 mov	 DWORD PTR fs:__except_list, esp
  00019	83 ec 48	 sub	 esp, 72			; 00000048H
  0001c	55		 push	 ebp
  0001d	8b e9		 mov	 ebp, ecx
  0001f	8a 48 15	 mov	 cl, BYTE PTR [eax+21]
  00022	84 c9		 test	 cl, cl
  00024	56		 push	 esi
  00025	74 4c		 je	 SHORT $L227704

; 592  : 			_THROW(out_of_range, "invalid map/set<T> iterator");

  00027	6a 1b		 push	 27			; 0000001bH
  00029	33 f6		 xor	 esi, esi
  0002b	68 00 00 00 00	 push	 OFFSET FLAT:??_C@_0BM@PAPJHAGI@invalid?5map?1set?$DMT?$DO?5iterator?$AA@
  00030	8d 4c 24 14	 lea	 ecx, DWORD PTR $T235498[esp+100]
  00034	c7 44 24 2c 0f
	00 00 00	 mov	 DWORD PTR $T235498[esp+124], 15 ; 0000000fH
  0003c	89 74 24 28	 mov	 DWORD PTR $T235498[esp+120], esi
  00040	c6 44 24 18 00	 mov	 BYTE PTR $T235498[esp+104], 0
  00045	e8 00 00 00 00	 call	 ?assign@?$basic_string@DU?$char_traits@D@std@@V?$allocator@D@2@@std@@QAEAAV12@PBDI@Z ; std::basic_string<char,std::char_traits<char>,std::allocator<char> >::assign
  0004a	8d 44 24 0c	 lea	 eax, DWORD PTR $T235498[esp+92]
  0004e	50		 push	 eax
  0004f	8d 4c 24 2c	 lea	 ecx, DWORD PTR $T235497[esp+96]
  00053	89 74 24 5c	 mov	 DWORD PTR __$EHRec$[esp+104], esi
  00057	e8 00 00 00 00	 call	 ??0logic_error@std@@QAE@ABV?$basic_string@DU?$char_traits@D@std@@V?$allocator@D@2@@1@@Z ; std::logic_error::logic_error
  0005c	68 00 00 00 00	 push	 OFFSET FLAT:__TI3?AVout_of_range@std@@
  00061	8d 4c 24 2c	 lea	 ecx, DWORD PTR $T235497[esp+96]
  00065	51		 push	 ecx
  00066	c7 44 24 30 00
	00 00 00	 mov	 DWORD PTR $T235497[esp+100], OFFSET FLAT:??_7out_of_range@std@@6B@
  0006e	e8 00 00 00 00	 call	 __CxxThrowException@8
$L235990:
$L227704:
  00073	53		 push	 ebx

; 593  : 		_Nodeptr _Erasednode = _Where._Mynode();	// node to erase

  00074	8b d8		 mov	 ebx, eax
  00076	57		 push	 edi

; 594  : 		++_Where;	// save successor iterator for return

  00077	8d 4c 24 6c	 lea	 ecx, DWORD PTR __Where$[esp+96]
  0007b	89 5c 24 10	 mov	 DWORD PTR __Erasednode$[esp+100], ebx
  0007f	e8 00 00 00 00	 call	 ?_Inc@const_iterator@?$_Tree@V?$_Tmap_traits@KPAVCMailBox@@U?$less@K@std@@V?$allocator@U?$pair@$$CBKPAVCMailBox@@@std@@@3@$0A@@std@@@std@@QAEXXZ ; std::_Tree<std::_Tmap_traits<unsigned long,CMailBox *,std::less<unsigned long>,std::allocator<std::pair<unsigned long const ,CMailBox *> >,0> >::const_iterator::_Inc

; 595  : 
; 596  : 		_Nodeptr _Fixnode;	// the node to recolor as needed
; 597  : 		_Nodeptr _Fixnodeparent;	// parent of _Fixnode (which may be nil)
; 598  : 		_Nodeptr _Pnode = _Erasednode;
; 599  : 
; 600  : 		if (_Isnil(_Left(_Pnode)))

  00084	8b 03		 mov	 eax, DWORD PTR [ebx]
  00086	8a 48 15	 mov	 cl, BYTE PTR [eax+21]
  00089	84 c9		 test	 cl, cl
  0008b	74 05		 je	 SHORT $L227712

; 601  : 			_Fixnode = _Right(_Pnode);	// must stitch up right subtree

  0008d	8b 7b 08	 mov	 edi, DWORD PTR [ebx+8]

; 602  : 		else if (_Isnil(_Right(_Pnode)))

  00090	eb 19		 jmp	 SHORT $L235984
$L227712:
  00092	8b 53 08	 mov	 edx, DWORD PTR [ebx+8]
  00095	8a 4a 15	 mov	 cl, BYTE PTR [edx+21]
  00098	84 c9		 test	 cl, cl
  0009a	74 04		 je	 SHORT $L227714

; 603  : 			_Fixnode = _Left(_Pnode);	// must stitch up left subtree

  0009c	8b f8		 mov	 edi, eax

; 604  : 		else

  0009e	eb 0b		 jmp	 SHORT $L235984
$L227714:

; 605  : 			{	// two subtrees, must lift successor node to replace erased
; 606  : 			_Pnode = _Where._Mynode();	// _Pnode is successor node
; 607  : 			_Fixnode = _Right(_Pnode);	// _Fixnode is its only subtree

  000a0	8b 4c 24 6c	 mov	 ecx, DWORD PTR __Where$[esp+96]

; 608  : 			}
; 609  : 
; 610  : 		if (_Pnode == _Erasednode)

  000a4	3b cb		 cmp	 ecx, ebx
  000a6	8b 79 08	 mov	 edi, DWORD PTR [ecx+8]
  000a9	75 6e		 jne	 SHORT $L227716
$L235984:

; 611  : 			{	// at most one subtree, relink it
; 612  : 			_Fixnodeparent = _Parent(_Erasednode);
; 613  : 			if (!_Isnil(_Fixnode))

  000ab	8a 47 15	 mov	 al, BYTE PTR [edi+21]
  000ae	84 c0		 test	 al, al
  000b0	8b 73 04	 mov	 esi, DWORD PTR [ebx+4]
  000b3	75 03		 jne	 SHORT $L227717

; 614  : 				_Parent(_Fixnode) = _Fixnodeparent;	// link up

  000b5	89 77 04	 mov	 DWORD PTR [edi+4], esi
$L227717:

; 615  : 
; 616  : 			if (_Root() == _Erasednode)

  000b8	8b 45 04	 mov	 eax, DWORD PTR [ebp+4]
  000bb	39 58 04	 cmp	 DWORD PTR [eax+4], ebx
  000be	75 05		 jne	 SHORT $L227718

; 617  : 				_Root() = _Fixnode;	// link down from root

  000c0	89 78 04	 mov	 DWORD PTR [eax+4], edi

; 618  : 			else if (_Left(_Fixnodeparent) == _Erasednode)

  000c3	eb 0b		 jmp	 SHORT $L227721
$L227718:
  000c5	39 1e		 cmp	 DWORD PTR [esi], ebx
  000c7	75 04		 jne	 SHORT $L227720

; 619  : 				_Left(_Fixnodeparent) = _Fixnode;	// link down to left

  000c9	89 3e		 mov	 DWORD PTR [esi], edi

; 620  : 			else

  000cb	eb 03		 jmp	 SHORT $L227721
$L227720:

; 621  : 				_Right(_Fixnodeparent) = _Fixnode;	// link down to right

  000cd	89 7e 08	 mov	 DWORD PTR [esi+8], edi
$L227721:

; 622  : 
; 623  : 			if (_Lmost() == _Erasednode)

  000d0	8b 5d 04	 mov	 ebx, DWORD PTR [ebp+4]
  000d3	8b 03		 mov	 eax, DWORD PTR [ebx]
  000d5	3b 44 24 10	 cmp	 eax, DWORD PTR __Erasednode$[esp+100]
  000d9	75 16		 jne	 SHORT $L227722

; 624  : 				_Lmost() = _Isnil(_Fixnode)
; 625  : 					? _Fixnodeparent	// smallest is parent of erased node
; 626  : 					: _Min(_Fixnode);	// smallest in relinked subtree

  000db	8a 47 15	 mov	 al, BYTE PTR [edi+21]
  000de	84 c0		 test	 al, al
  000e0	74 04		 je	 SHORT $L235499
  000e2	8b c6		 mov	 eax, esi
  000e4	eb 09		 jmp	 SHORT $L235500
$L235499:
  000e6	57		 push	 edi
  000e7	e8 00 00 00 00	 call	 ?_Min@?$_Tree@V?$_Tmap_traits@KPAVCMailBox@@U?$less@K@std@@V?$allocator@U?$pair@$$CBKPAVCMailBox@@@std@@@3@$0A@@std@@@std@@KAPAU_Node@?$_Tree_nod@V?$_Tmap_traits@KPAVCMailBox@@U?$less@K@std@@V?$allocator@U?$pair@$$CBKPAVCMailBox@@@std@@@3@$0A@@std@@@2@PAU342@@Z ; std::_Tree<std::_Tmap_traits<unsigned long,CMailBox *,std::less<unsigned long>,std::allocator<std::pair<unsigned long const ,CMailBox *> >,0> >::_Min
  000ec	83 c4 04	 add	 esp, 4
$L235500:
  000ef	89 03		 mov	 DWORD PTR [ebx], eax
$L227722:

; 627  : 
; 628  : 			if (_Rmost() == _Erasednode)

  000f1	8b 5d 04	 mov	 ebx, DWORD PTR [ebp+4]
  000f4	8b 4c 24 10	 mov	 ecx, DWORD PTR __Erasednode$[esp+100]
  000f8	39 4b 08	 cmp	 DWORD PTR [ebx+8], ecx
  000fb	75 74		 jne	 SHORT $L235818

; 629  : 				_Rmost() = _Isnil(_Fixnode)
; 630  : 					? _Fixnodeparent	// largest is parent of erased node
; 631  : 					: _Max(_Fixnode);	// largest in relinked subtree

  000fd	8a 47 15	 mov	 al, BYTE PTR [edi+21]
  00100	84 c0		 test	 al, al
  00102	74 07		 je	 SHORT $L235501
  00104	8b c6		 mov	 eax, esi
  00106	89 43 08	 mov	 DWORD PTR [ebx+8], eax

; 632  : 			}
; 633  : 		else

  00109	eb 66		 jmp	 SHORT $L235818
$L235501:

; 629  : 				_Rmost() = _Isnil(_Fixnode)
; 630  : 					? _Fixnodeparent	// largest is parent of erased node
; 631  : 					: _Max(_Fixnode);	// largest in relinked subtree

  0010b	57		 push	 edi
  0010c	e8 00 00 00 00	 call	 ?_Max@?$_Tree@V?$_Tmap_traits@KPAVCMailBox@@U?$less@K@std@@V?$allocator@U?$pair@$$CBKPAVCMailBox@@@std@@@3@$0A@@std@@@std@@KAPAU_Node@?$_Tree_nod@V?$_Tmap_traits@KPAVCMailBox@@U?$less@K@std@@V?$allocator@U?$pair@$$CBKPAVCMailBox@@@std@@@3@$0A@@std@@@2@PAU342@@Z ; std::_Tree<std::_Tmap_traits<unsigned long,CMailBox *,std::less<unsigned long>,std::allocator<std::pair<unsigned long const ,CMailBox *> >,0> >::_Max
  00111	83 c4 04	 add	 esp, 4
  00114	89 43 08	 mov	 DWORD PTR [ebx+8], eax

; 632  : 			}
; 633  : 		else

  00117	eb 58		 jmp	 SHORT $L235818
$L227716:

; 634  : 			{	// erased has two subtrees, _Pnode is successor to erased
; 635  : 			_Parent(_Left(_Erasednode)) = _Pnode;	// link left up

  00119	89 48 04	 mov	 DWORD PTR [eax+4], ecx

; 636  : 			_Left(_Pnode) = _Left(_Erasednode);	// link successor down

  0011c	8b 13		 mov	 edx, DWORD PTR [ebx]
  0011e	89 11		 mov	 DWORD PTR [ecx], edx

; 637  : 
; 638  : 			if (_Pnode == _Right(_Erasednode))

  00120	3b 4b 08	 cmp	 ecx, DWORD PTR [ebx+8]
  00123	75 04		 jne	 SHORT $L227725

; 639  : 				_Fixnodeparent = _Pnode;	// successor is next to erased

  00125	8b f1		 mov	 esi, ecx

; 640  : 			else

  00127	eb 1b		 jmp	 SHORT $L227726
$L227725:

; 641  : 				{	// successor further down, link in place of erased
; 642  : 				_Fixnodeparent = _Parent(_Pnode);	// parent is successor's
; 643  : 				if (!_Isnil(_Fixnode))

  00129	8a 47 15	 mov	 al, BYTE PTR [edi+21]
  0012c	84 c0		 test	 al, al
  0012e	8b 71 04	 mov	 esi, DWORD PTR [ecx+4]
  00131	75 03		 jne	 SHORT $L227727

; 644  : 					_Parent(_Fixnode) = _Fixnodeparent;	// link fix up

  00133	89 77 04	 mov	 DWORD PTR [edi+4], esi
$L227727:

; 645  : 				_Left(_Fixnodeparent) = _Fixnode;	// link fix down

  00136	89 3e		 mov	 DWORD PTR [esi], edi

; 646  : 				_Right(_Pnode) = _Right(_Erasednode);	// link successor down

  00138	8b 43 08	 mov	 eax, DWORD PTR [ebx+8]
  0013b	89 41 08	 mov	 DWORD PTR [ecx+8], eax

; 647  : 				_Parent(_Right(_Erasednode)) = _Pnode;	// link right up

  0013e	8b 53 08	 mov	 edx, DWORD PTR [ebx+8]
  00141	89 4a 04	 mov	 DWORD PTR [edx+4], ecx
$L227726:

; 648  : 				}
; 649  : 
; 650  : 			if (_Root() == _Erasednode)

  00144	8b 45 04	 mov	 eax, DWORD PTR [ebp+4]
  00147	39 58 04	 cmp	 DWORD PTR [eax+4], ebx
  0014a	75 05		 jne	 SHORT $L227728

; 651  : 				_Root() = _Pnode;	// link down from root

  0014c	89 48 04	 mov	 DWORD PTR [eax+4], ecx

; 652  : 			else if (_Left(_Parent(_Erasednode)) == _Erasednode)

  0014f	eb 0e		 jmp	 SHORT $L227731
$L227728:
  00151	8b 43 04	 mov	 eax, DWORD PTR [ebx+4]
  00154	39 18		 cmp	 DWORD PTR [eax], ebx
  00156	75 04		 jne	 SHORT $L227730

; 653  : 				_Left(_Parent(_Erasednode)) = _Pnode;	// link down to left

  00158	89 08		 mov	 DWORD PTR [eax], ecx

; 654  : 			else

  0015a	eb 03		 jmp	 SHORT $L227731
$L227730:

; 655  : 				_Right(_Parent(_Erasednode)) = _Pnode;	// link down to right

  0015c	89 48 08	 mov	 DWORD PTR [eax+8], ecx
$L227731:

; 656  : 
; 657  : 			_Parent(_Pnode) = _Parent(_Erasednode);	// link successor up

  0015f	8b 43 04	 mov	 eax, DWORD PTR [ebx+4]
  00162	89 41 04	 mov	 DWORD PTR [ecx+4], eax

; 658  : 			std::swap(_Color(_Pnode), _Color(_Erasednode));	// recolor it

  00165	8a 53 14	 mov	 dl, BYTE PTR [ebx+20]
  00168	8a 41 14	 mov	 al, BYTE PTR [ecx+20]
  0016b	88 51 14	 mov	 BYTE PTR [ecx+20], dl
  0016e	88 43 14	 mov	 BYTE PTR [ebx+20], al
$L235818:

; 659  : 			}
; 660  : 
; 661  : 		if (_Color(_Erasednode) == _Black)

  00171	8b 44 24 10	 mov	 eax, DWORD PTR __Erasednode$[esp+100]
  00175	8a 48 14	 mov	 cl, BYTE PTR [eax+20]
  00178	b3 01		 mov	 bl, 1
  0017a	3a cb		 cmp	 cl, bl
  0017c	0f 85 ff 00 00
	00		 jne	 $L227732

; 662  : 			{	// erasing black link, must recolor/rebalance tree
; 663  : 			for (; _Fixnode != _Root() && _Color(_Fixnode) == _Black;
; 664  : 				_Fixnodeparent = _Parent(_Fixnode))

  00182	8b 4d 04	 mov	 ecx, DWORD PTR [ebp+4]
  00185	3b 79 04	 cmp	 edi, DWORD PTR [ecx+4]
  00188	0f 84 f0 00 00
	00		 je	 $L227735
  0018e	8b ff		 npad	 2
$L227733:
  00190	38 5f 14	 cmp	 BYTE PTR [edi+20], bl
  00193	0f 85 e5 00 00
	00		 jne	 $L227735

; 665  : 				if (_Fixnode == _Left(_Fixnodeparent))

  00199	8b 06		 mov	 eax, DWORD PTR [esi]
  0019b	3b f8		 cmp	 edi, eax
  0019d	75 67		 jne	 SHORT $L227736

; 666  : 					{	// fixup left subtree
; 667  : 					_Pnode = _Right(_Fixnodeparent);

  0019f	8b 46 08	 mov	 eax, DWORD PTR [esi+8]

; 668  : 					if (_Color(_Pnode) == _Red)

  001a2	8a 48 14	 mov	 cl, BYTE PTR [eax+20]
  001a5	84 c9		 test	 cl, cl
  001a7	75 12		 jne	 SHORT $L227737

; 669  : 						{	// rotate red up from right subtree
; 670  : 						_Color(_Pnode) = _Black;

  001a9	88 58 14	 mov	 BYTE PTR [eax+20], bl

; 671  : 						_Color(_Fixnodeparent) = _Red;
; 672  : 						_Lrotate(_Fixnodeparent);

  001ac	56		 push	 esi
  001ad	8b cd		 mov	 ecx, ebp
  001af	c6 46 14 00	 mov	 BYTE PTR [esi+20], 0
  001b3	e8 00 00 00 00	 call	 ?_Lrotate@?$_Tree@V?$_Tmap_traits@KPAVCMailBox@@U?$less@K@std@@V?$allocator@U?$pair@$$CBKPAVCMailBox@@@std@@@3@$0A@@std@@@std@@IAEXPAU_Node@?$_Tree_nod@V?$_Tmap_traits@KPAVCMailBox@@U?$less@K@std@@V?$allocator@U?$pair@$$CBKPAVCMailBox@@@std@@@3@$0A@@std@@@2@@Z ; std::_Tree<std::_Tmap_traits<unsigned long,CMailBox *,std::less<unsigned long>,std::allocator<std::pair<unsigned long const ,CMailBox *> >,0> >::_Lrotate

; 673  : 						_Pnode = _Right(_Fixnodeparent);

  001b8	8b 46 08	 mov	 eax, DWORD PTR [esi+8]
$L227737:

; 674  : 						}
; 675  : 
; 676  : 					if (_Isnil(_Pnode))

  001bb	8a 48 15	 mov	 cl, BYTE PTR [eax+21]
  001be	84 c9		 test	 cl, cl

; 677  : 						_Fixnode = _Fixnodeparent;	// shouldn't happen
; 678  : 					else if (_Color(_Left(_Pnode)) == _Black

  001c0	75 76		 jne	 SHORT $L235987

; 679  : 						&& _Color(_Right(_Pnode)) == _Black)

  001c2	8b 10		 mov	 edx, DWORD PTR [eax]
  001c4	38 5a 14	 cmp	 BYTE PTR [edx+20], bl
  001c7	75 08		 jne	 SHORT $L227740
  001c9	8b 48 08	 mov	 ecx, DWORD PTR [eax+8]
  001cc	38 59 14	 cmp	 BYTE PTR [ecx+20], bl
  001cf	74 63		 je	 SHORT $L235988
$L227740:

; 680  : 						{	// redden right subtree with black children
; 681  : 						_Color(_Pnode) = _Red;
; 682  : 						_Fixnode = _Fixnodeparent;
; 683  : 						}
; 684  : 					else
; 685  : 						{	// must rearrange right subtree
; 686  : 						if (_Color(_Right(_Pnode)) == _Black)

  001d1	8b 48 08	 mov	 ecx, DWORD PTR [eax+8]
  001d4	38 59 14	 cmp	 BYTE PTR [ecx+20], bl
  001d7	75 14		 jne	 SHORT $L227742

; 687  : 							{	// rotate red up from left sub-subtree
; 688  : 							_Color(_Left(_Pnode)) = _Black;

  001d9	8b 10		 mov	 edx, DWORD PTR [eax]
  001db	88 5a 14	 mov	 BYTE PTR [edx+20], bl

; 689  : 							_Color(_Pnode) = _Red;
; 690  : 							_Rrotate(_Pnode);

  001de	50		 push	 eax
  001df	8b cd		 mov	 ecx, ebp
  001e1	c6 40 14 00	 mov	 BYTE PTR [eax+20], 0
  001e5	e8 00 00 00 00	 call	 ?_Rrotate@?$_Tree@V?$_Tmap_traits@KPAVCMailBox@@U?$less@K@std@@V?$allocator@U?$pair@$$CBKPAVCMailBox@@@std@@@3@$0A@@std@@@std@@IAEXPAU_Node@?$_Tree_nod@V?$_Tmap_traits@KPAVCMailBox@@U?$less@K@std@@V?$allocator@U?$pair@$$CBKPAVCMailBox@@@std@@@3@$0A@@std@@@2@@Z ; std::_Tree<std::_Tmap_traits<unsigned long,CMailBox *,std::less<unsigned long>,std::allocator<std::pair<unsigned long const ,CMailBox *> >,0> >::_Rrotate

; 691  : 							_Pnode = _Right(_Fixnodeparent);

  001ea	8b 46 08	 mov	 eax, DWORD PTR [esi+8]
$L227742:

; 692  : 							}
; 693  : 
; 694  : 						_Color(_Pnode) = _Color(_Fixnodeparent);

  001ed	8a 4e 14	 mov	 cl, BYTE PTR [esi+20]
  001f0	88 48 14	 mov	 BYTE PTR [eax+20], cl

; 695  : 						_Color(_Fixnodeparent) = _Black;

  001f3	88 5e 14	 mov	 BYTE PTR [esi+20], bl

; 696  : 						_Color(_Right(_Pnode)) = _Black;

  001f6	8b 50 08	 mov	 edx, DWORD PTR [eax+8]

; 697  : 						_Lrotate(_Fixnodeparent);

  001f9	56		 push	 esi
  001fa	8b cd		 mov	 ecx, ebp
  001fc	88 5a 14	 mov	 BYTE PTR [edx+20], bl
  001ff	e8 00 00 00 00	 call	 ?_Lrotate@?$_Tree@V?$_Tmap_traits@KPAVCMailBox@@U?$less@K@std@@V?$allocator@U?$pair@$$CBKPAVCMailBox@@@std@@@3@$0A@@std@@@std@@IAEXPAU_Node@?$_Tree_nod@V?$_Tmap_traits@KPAVCMailBox@@U?$less@K@std@@V?$allocator@U?$pair@$$CBKPAVCMailBox@@@std@@@3@$0A@@std@@@2@@Z ; std::_Tree<std::_Tmap_traits<unsigned long,CMailBox *,std::less<unsigned long>,std::allocator<std::pair<unsigned long const ,CMailBox *> >,0> >::_Lrotate

; 698  : 						break;	// tree now recolored/rebalanced

  00204	eb 78		 jmp	 SHORT $L227735
$L227736:

; 699  : 						}
; 700  : 					}
; 701  : 				else
; 702  : 					{	// fixup right subtree
; 703  : 					_Pnode = _Left(_Fixnodeparent);
; 704  : 					if (_Color(_Pnode) == _Red)

  00206	8a 48 14	 mov	 cl, BYTE PTR [eax+20]
  00209	84 c9		 test	 cl, cl
  0020b	75 11		 jne	 SHORT $L227744

; 705  : 						{	// rotate red up from left subtree
; 706  : 						_Color(_Pnode) = _Black;

  0020d	88 58 14	 mov	 BYTE PTR [eax+20], bl

; 707  : 						_Color(_Fixnodeparent) = _Red;
; 708  : 						_Rrotate(_Fixnodeparent);

  00210	56		 push	 esi
  00211	8b cd		 mov	 ecx, ebp
  00213	c6 46 14 00	 mov	 BYTE PTR [esi+20], 0
  00217	e8 00 00 00 00	 call	 ?_Rrotate@?$_Tree@V?$_Tmap_traits@KPAVCMailBox@@U?$less@K@std@@V?$allocator@U?$pair@$$CBKPAVCMailBox@@@std@@@3@$0A@@std@@@std@@IAEXPAU_Node@?$_Tree_nod@V?$_Tmap_traits@KPAVCMailBox@@U?$less@K@std@@V?$allocator@U?$pair@$$CBKPAVCMailBox@@@std@@@3@$0A@@std@@@2@@Z ; std::_Tree<std::_Tmap_traits<unsigned long,CMailBox *,std::less<unsigned long>,std::allocator<std::pair<unsigned long const ,CMailBox *> >,0> >::_Rrotate

; 709  : 						_Pnode = _Left(_Fixnodeparent);

  0021c	8b 06		 mov	 eax, DWORD PTR [esi]
$L227744:

; 710  : 						}
; 711  : 					if (_Isnil(_Pnode))

  0021e	8a 48 15	 mov	 cl, BYTE PTR [eax+21]
  00221	84 c9		 test	 cl, cl

; 712  : 						_Fixnode = _Fixnodeparent;	// shouldn't happen
; 713  : 					else if (_Color(_Right(_Pnode)) == _Black

  00223	75 13		 jne	 SHORT $L235987

; 714  : 						&& _Color(_Left(_Pnode)) == _Black)

  00225	8b 50 08	 mov	 edx, DWORD PTR [eax+8]
  00228	38 5a 14	 cmp	 BYTE PTR [edx+20], bl
  0022b	75 20		 jne	 SHORT $L227747
  0022d	8b 08		 mov	 ecx, DWORD PTR [eax]
  0022f	38 59 14	 cmp	 BYTE PTR [ecx+20], bl
  00232	75 19		 jne	 SHORT $L227747
$L235988:

; 715  : 						{	// redden left subtree with black children
; 716  : 						_Color(_Pnode) = _Red;

  00234	c6 40 14 00	 mov	 BYTE PTR [eax+20], 0
$L235987:

; 662  : 			{	// erasing black link, must recolor/rebalance tree
; 663  : 			for (; _Fixnode != _Root() && _Color(_Fixnode) == _Black;
; 664  : 				_Fixnodeparent = _Parent(_Fixnode))

  00238	8b 55 04	 mov	 edx, DWORD PTR [ebp+4]
  0023b	8b 42 04	 mov	 eax, DWORD PTR [edx+4]

; 717  : 						_Fixnode = _Fixnodeparent;

  0023e	8b fe		 mov	 edi, esi
  00240	3b f8		 cmp	 edi, eax
  00242	8b 76 04	 mov	 esi, DWORD PTR [esi+4]
  00245	0f 85 45 ff ff
	ff		 jne	 $L227733

; 662  : 			{	// erasing black link, must recolor/rebalance tree
; 663  : 			for (; _Fixnode != _Root() && _Color(_Fixnode) == _Black;
; 664  : 				_Fixnodeparent = _Parent(_Fixnode))

  0024b	eb 31		 jmp	 SHORT $L227735
$L227747:

; 718  : 						}
; 719  : 					else
; 720  : 						{	// must rearrange left subtree
; 721  : 						if (_Color(_Left(_Pnode)) == _Black)

  0024d	8b 08		 mov	 ecx, DWORD PTR [eax]
  0024f	38 59 14	 cmp	 BYTE PTR [ecx+20], bl
  00252	75 14		 jne	 SHORT $L227749

; 722  : 							{	// rotate red up from right sub-subtree
; 723  : 							_Color(_Right(_Pnode)) = _Black;

  00254	8b 50 08	 mov	 edx, DWORD PTR [eax+8]
  00257	88 5a 14	 mov	 BYTE PTR [edx+20], bl

; 724  : 							_Color(_Pnode) = _Red;
; 725  : 							_Lrotate(_Pnode);

  0025a	50		 push	 eax
  0025b	8b cd		 mov	 ecx, ebp
  0025d	c6 40 14 00	 mov	 BYTE PTR [eax+20], 0
  00261	e8 00 00 00 00	 call	 ?_Lrotate@?$_Tree@V?$_Tmap_traits@KPAVCMailBox@@U?$less@K@std@@V?$allocator@U?$pair@$$CBKPAVCMailBox@@@std@@@3@$0A@@std@@@std@@IAEXPAU_Node@?$_Tree_nod@V?$_Tmap_traits@KPAVCMailBox@@U?$less@K@std@@V?$allocator@U?$pair@$$CBKPAVCMailBox@@@std@@@3@$0A@@std@@@2@@Z ; std::_Tree<std::_Tmap_traits<unsigned long,CMailBox *,std::less<unsigned long>,std::allocator<std::pair<unsigned long const ,CMailBox *> >,0> >::_Lrotate

; 726  : 							_Pnode = _Left(_Fixnodeparent);

  00266	8b 06		 mov	 eax, DWORD PTR [esi]
$L227749:

; 727  : 							}
; 728  : 
; 729  : 						_Color(_Pnode) = _Color(_Fixnodeparent);

  00268	8a 4e 14	 mov	 cl, BYTE PTR [esi+20]
  0026b	88 48 14	 mov	 BYTE PTR [eax+20], cl

; 730  : 						_Color(_Fixnodeparent) = _Black;

  0026e	88 5e 14	 mov	 BYTE PTR [esi+20], bl

; 731  : 						_Color(_Left(_Pnode)) = _Black;

  00271	8b 10		 mov	 edx, DWORD PTR [eax]

; 732  : 						_Rrotate(_Fixnodeparent);

  00273	56		 push	 esi
  00274	8b cd		 mov	 ecx, ebp
  00276	88 5a 14	 mov	 BYTE PTR [edx+20], bl
  00279	e8 00 00 00 00	 call	 ?_Rrotate@?$_Tree@V?$_Tmap_traits@KPAVCMailBox@@U?$less@K@std@@V?$allocator@U?$pair@$$CBKPAVCMailBox@@@std@@@3@$0A@@std@@@std@@IAEXPAU_Node@?$_Tree_nod@V?$_Tmap_traits@KPAVCMailBox@@U?$less@K@std@@V?$allocator@U?$pair@$$CBKPAVCMailBox@@@std@@@3@$0A@@std@@@2@@Z ; std::_Tree<std::_Tmap_traits<unsigned long,CMailBox *,std::less<unsigned long>,std::allocator<std::pair<unsigned long const ,CMailBox *> >,0> >::_Rrotate
$L227735:

; 733  : 						break;	// tree now recolored/rebalanced
; 734  : 						}
; 735  : 					}
; 736  : 
; 737  : 			_Color(_Fixnode) = _Black;	// ensure stopping node is black

  0027e	88 5f 14	 mov	 BYTE PTR [edi+20], bl
$L227732:

; 738  : 			}
; 739  : 
; 740  : 		this->_Alnod.destroy(_Erasednode);	// destroy, free erased node
; 741  : 		this->_Alnod.deallocate(_Erasednode, 1);

  00281	8b 44 24 10	 mov	 eax, DWORD PTR __Erasednode$[esp+100]
  00285	50		 push	 eax
  00286	e8 00 00 00 00	 call	 ??3@YAXPAX@Z		; operator delete

; 742  : 
; 743  : 		if (0 < _Mysize)

  0028b	8b 45 08	 mov	 eax, DWORD PTR [ebp+8]
  0028e	83 c4 04	 add	 esp, 4
  00291	85 c0		 test	 eax, eax
  00293	5f		 pop	 edi
  00294	5b		 pop	 ebx
  00295	76 04		 jbe	 SHORT $L227750

; 744  : 			--_Mysize;

  00297	48		 dec	 eax
  00298	89 45 08	 mov	 DWORD PTR [ebp+8], eax
$L227750:

; 745  : 
; 746  : 		return (_Where);	// return successor iterator

  0029b	8b 4c 24 64	 mov	 ecx, DWORD PTR __Where$[esp+88]
  0029f	8b 44 24 60	 mov	 eax, DWORD PTR ___$ReturnUdt$[esp+88]
  002a3	89 08		 mov	 DWORD PTR [eax], ecx

; 747  : 		}

  002a5	8b 4c 24 50	 mov	 ecx, DWORD PTR __$EHRec$[esp+92]
  002a9	5e		 pop	 esi
  002aa	5d		 pop	 ebp
  002ab	64 89 0d 00 00
	00 00		 mov	 DWORD PTR fs:__except_list, ecx
  002b2	83 c4 54	 add	 esp, 84			; 00000054H
  002b5	c2 08 00	 ret	 8
$L235986:
_TEXT	ENDS
;	COMDAT text$x
text$x	SEGMENT
$L235503:
  00000	8d 4d b0	 lea	 ecx, DWORD PTR $T235498[ebp]
  00003	e9 00 00 00 00	 jmp	 ??1?$basic_string@DU?$char_traits@D@std@@V?$allocator@D@2@@std@@QAE@XZ ; std::basic_string<char,std::char_traits<char>,std::allocator<char> >::~basic_string<char,std::char_traits<char>,std::allocator<char> >
__ehhandler$?erase@?$_Tree@V?$_Tmap_traits@KPAVCMailBox@@U?$less@K@std@@V?$allocator@U?$pair@$$CBKPAVCMailBox@@@std@@@3@$0A@@std@@@std@@QAE?AViterator@12@V312@@Z:
  00008	b8 00 00 00 00	 mov	 eax, OFFSET FLAT:$T235981
  0000d	e9 00 00 00 00	 jmp	 ___CxxFrameHandler
text$x	ENDS
?erase@?$_Tree@V?$_Tmap_traits@KPAVCMailBox@@U?$less@K@std@@V?$allocator@U?$pair@$$CBKPAVCMailBox@@@std@@@3@$0A@@std@@@std@@QAE?AViterator@12@V312@@Z ENDP ; std::_Tree<std::_Tmap_traits<unsigned long,CMailBox *,std::less<unsigned long>,std::allocator<std::pair<unsigned long const ,CMailBox *> >,0> >::erase
; Function compile flags: /Ogty
;	COMDAT ??0out_of_range@std@@QAE@ABV01@@Z
_TEXT	SEGMENT
___that$ = 8						; size = 4
??0out_of_range@std@@QAE@ABV01@@Z PROC NEAR		; std::out_of_range::out_of_range, COMDAT
; _this$ = ecx
  00000	8b 44 24 04	 mov	 eax, DWORD PTR ___that$[esp-4]
  00004	56		 push	 esi
  00005	50		 push	 eax
  00006	8b f1		 mov	 esi, ecx
  00008	e8 00 00 00 00	 call	 ??0logic_error@std@@QAE@ABV01@@Z
  0000d	c7 06 00 00 00
	00		 mov	 DWORD PTR [esi], OFFSET FLAT:??_7out_of_range@std@@6B@
  00013	8b c6		 mov	 eax, esi
  00015	5e		 pop	 esi
  00016	c2 04 00	 ret	 4
??0out_of_range@std@@QAE@ABV01@@Z ENDP			; std::out_of_range::out_of_range
_TEXT	ENDS
PUBLIC	?insert@?$_Tree@V?$_Tmap_traits@KPAVCMailBox@@U?$less@K@std@@V?$allocator@U?$pair@$$CBKPAVCMailBox@@@std@@@3@$0A@@std@@@std@@QAE?AU?$pair@Viterator@?$_Tree@V?$_Tmap_traits@KPAVCMailBox@@U?$less@K@std@@V?$allocator@U?$pair@$$CBKPAVCMailBox@@@std@@@3@$0A@@std@@@std@@_N@2@ABU?$pair@$$CBKPAVCMailBox@@@2@@Z ; std::_Tree<std::_Tmap_traits<unsigned long,CMailBox *,std::less<unsigned long>,std::allocator<std::pair<unsigned long const ,CMailBox *> >,0> >::insert
; Function compile flags: /Ogty
;	COMDAT ?insert@?$_Tree@V?$_Tmap_traits@KPAVCMailBox@@U?$less@K@std@@V?$allocator@U?$pair@$$CBKPAVCMailBox@@@std@@@3@$0A@@std@@@std@@QAE?AU?$pair@Viterator@?$_Tree@V?$_Tmap_traits@KPAVCMailBox@@U?$less@K@std@@V?$allocator@U?$pair@$$CBKPAVCMailBox@@@std@@@3@$0A@@std@@@std@@_N@2@ABU?$pair@$$CBKPAVCMailBox@@@2@@Z
_TEXT	SEGMENT
__Addleft$ = -4						; size = 1
___$ReturnUdt$ = 8					; size = 4
$T236008 = 12						; size = 4
$T236006 = 12						; size = 4
__Where$227226 = 12					; size = 4
__Val$ = 12						; size = 4
?insert@?$_Tree@V?$_Tmap_traits@KPAVCMailBox@@U?$less@K@std@@V?$allocator@U?$pair@$$CBKPAVCMailBox@@@std@@@3@$0A@@std@@@std@@QAE?AU?$pair@Viterator@?$_Tree@V?$_Tmap_traits@KPAVCMailBox@@U?$less@K@std@@V?$allocator@U?$pair@$$CBKPAVCMailBox@@@std@@@3@$0A@@std@@@std@@_N@2@ABU?$pair@$$CBKPAVCMailBox@@@2@@Z PROC NEAR ; std::_Tree<std::_Tmap_traits<unsigned long,CMailBox *,std::less<unsigned long>,std::allocator<std::pair<unsigned long const ,CMailBox *> >,0> >::insert, COMDAT
; _this$ = ecx

; 477  : 		{	// try to insert node with value _Val

  00000	51		 push	 ecx
  00001	55		 push	 ebp

; 478  : 		_Nodeptr _Trynode = _Root();
; 479  : 		_Nodeptr _Wherenode = _Myhead;
; 480  : 		bool _Addleft = true;	// add to left of head if tree empty
; 481  : 		while (!_Isnil(_Trynode))

  00002	8b 6c 24 10	 mov	 ebp, DWORD PTR __Val$[esp+4]
  00006	56		 push	 esi
  00007	57		 push	 edi
  00008	8b f9		 mov	 edi, ecx
  0000a	8b 77 04	 mov	 esi, DWORD PTR [edi+4]
  0000d	8b 46 04	 mov	 eax, DWORD PTR [esi+4]
  00010	8a 50 15	 mov	 dl, BYTE PTR [eax+21]
  00013	84 d2		 test	 dl, dl
  00015	b1 01		 mov	 cl, 1
  00017	88 4c 24 0c	 mov	 BYTE PTR __Addleft$[esp+16], cl
  0001b	75 20		 jne	 SHORT $L227216
  0001d	8b 55 00	 mov	 edx, DWORD PTR [ebp]
$L227215:

; 482  : 			{	// look for leaf to insert before (_Addleft) or after
; 483  : 			_Wherenode = _Trynode;
; 484  : 			_Addleft = this->comp(this->_Kfn(_Val), _Key(_Trynode));

  00020	3b 50 0c	 cmp	 edx, DWORD PTR [eax+12]
  00023	0f 92 c1	 setb	 cl

; 485  : 			_Trynode = _Addleft ? _Left(_Trynode) : _Right(_Trynode);

  00026	84 c9		 test	 cl, cl
  00028	8b f0		 mov	 esi, eax
  0002a	88 4c 24 0c	 mov	 BYTE PTR __Addleft$[esp+16], cl
  0002e	74 04		 je	 SHORT $L236000
  00030	8b 00		 mov	 eax, DWORD PTR [eax]
  00032	eb 03		 jmp	 SHORT $L236001
$L236000:
  00034	8b 40 08	 mov	 eax, DWORD PTR [eax+8]
$L236001:

; 478  : 		_Nodeptr _Trynode = _Root();
; 479  : 		_Nodeptr _Wherenode = _Myhead;
; 480  : 		bool _Addleft = true;	// add to left of head if tree empty
; 481  : 		while (!_Isnil(_Trynode))

  00037	80 78 15 00	 cmp	 BYTE PTR [eax+21], 0
  0003b	74 e3		 je	 SHORT $L227215
$L227216:

; 486  : 			}
; 487  : 
; 488  : 		if (this->_Multi)
; 489  : 			return (_Pairib(_Insert(_Addleft, _Wherenode, _Val), true));
; 490  : 		else
; 491  : 			{	// insert only if unique
; 492  : 			iterator _Where = _TREE_ITERATOR(_Wherenode);
; 493  : 			if (!_Addleft)

  0003d	84 c9		 test	 cl, cl
  0003f	8b d6		 mov	 edx, esi
  00041	89 54 24 18	 mov	 DWORD PTR __Where$227226[esp+12], edx
  00045	74 33		 je	 SHORT $L236100

; 494  : 				;	// need to test if insert after is okay
; 495  : 			else if (_Where == begin())

  00047	8b 47 04	 mov	 eax, DWORD PTR [edi+4]
  0004a	3b 30		 cmp	 esi, DWORD PTR [eax]

; 496  : 				return (_Pairib(_Insert(true, _Wherenode, _Val), true));

  0004c	8d 4c 24 18	 lea	 ecx, DWORD PTR $T236006[esp+12]
  00050	75 1f		 jne	 SHORT $L227231
  00052	55		 push	 ebp
  00053	56		 push	 esi
  00054	6a 01		 push	 1
  00056	51		 push	 ecx
  00057	8b cf		 mov	 ecx, edi
  00059	e8 00 00 00 00	 call	 ?_Insert@?$_Tree@V?$_Tmap_traits@KPAVCMailBox@@U?$less@K@std@@V?$allocator@U?$pair@$$CBKPAVCMailBox@@@std@@@3@$0A@@std@@@std@@IAE?AViterator@12@_NPAU_Node@?$_Tree_nod@V?$_Tmap_traits@KPAVCMailBox@@U?$less@K@std@@V?$allocator@U?$pair@$$CBKPAVCMailBox@@@std@@@3@$0A@@std@@@2@ABU?$pair@$$CBKPAVCMailBox@@@2@@Z ; std::_Tree<std::_Tmap_traits<unsigned long,CMailBox *,std::less<unsigned long>,std::allocator<std::pair<unsigned long const ,CMailBox *> >,0> >::_Insert
  0005e	8b 10		 mov	 edx, DWORD PTR [eax]
  00060	8b 44 24 14	 mov	 eax, DWORD PTR ___$ReturnUdt$[esp+12]
  00064	5f		 pop	 edi
  00065	5e		 pop	 esi
  00066	c6 40 04 01	 mov	 BYTE PTR [eax+4], 1

; 502  : 			else
; 503  : 				return (_Pairib(_Where, false));

  0006a	89 10		 mov	 DWORD PTR [eax], edx
  0006c	5d		 pop	 ebp

; 504  : 			}
; 505  : 		}

  0006d	59		 pop	 ecx
  0006e	c2 08 00	 ret	 8
$L227231:

; 497  : 			else
; 498  : 				--_Where;	// need to test if insert before is okay

  00071	e8 00 00 00 00	 call	 ?_Dec@const_iterator@?$_Tree@V?$_Tmap_traits@KPAVCMailBox@@U?$less@K@std@@V?$allocator@U?$pair@$$CBKPAVCMailBox@@@std@@@3@$0A@@std@@@std@@QAEXXZ ; std::_Tree<std::_Tmap_traits<unsigned long,CMailBox *,std::less<unsigned long>,std::allocator<std::pair<unsigned long const ,CMailBox *> >,0> >::const_iterator::_Dec
  00076	8b 54 24 18	 mov	 edx, DWORD PTR __Where$227226[esp+12]
$L236100:

; 499  : 
; 500  : 			if (this->comp(_Key(_Where._Mynode()), this->_Kfn(_Val)))

  0007a	8b 42 0c	 mov	 eax, DWORD PTR [edx+12]
  0007d	3b 45 00	 cmp	 eax, DWORD PTR [ebp]
  00080	73 26		 jae	 SHORT $L227236

; 501  : 				return (_Pairib(_Insert(_Addleft, _Wherenode, _Val), true));

  00082	8b 4c 24 0c	 mov	 ecx, DWORD PTR __Addleft$[esp+16]
  00086	55		 push	 ebp
  00087	56		 push	 esi
  00088	51		 push	 ecx
  00089	8d 54 24 24	 lea	 edx, DWORD PTR $T236008[esp+24]
  0008d	52		 push	 edx
  0008e	8b cf		 mov	 ecx, edi
  00090	e8 00 00 00 00	 call	 ?_Insert@?$_Tree@V?$_Tmap_traits@KPAVCMailBox@@U?$less@K@std@@V?$allocator@U?$pair@$$CBKPAVCMailBox@@@std@@@3@$0A@@std@@@std@@IAE?AViterator@12@_NPAU_Node@?$_Tree_nod@V?$_Tmap_traits@KPAVCMailBox@@U?$less@K@std@@V?$allocator@U?$pair@$$CBKPAVCMailBox@@@std@@@3@$0A@@std@@@2@ABU?$pair@$$CBKPAVCMailBox@@@2@@Z ; std::_Tree<std::_Tmap_traits<unsigned long,CMailBox *,std::less<unsigned long>,std::allocator<std::pair<unsigned long const ,CMailBox *> >,0> >::_Insert
  00095	8b 08		 mov	 ecx, DWORD PTR [eax]
  00097	8b 44 24 14	 mov	 eax, DWORD PTR ___$ReturnUdt$[esp+12]
  0009b	5f		 pop	 edi
  0009c	5e		 pop	 esi
  0009d	89 08		 mov	 DWORD PTR [eax], ecx
  0009f	c6 40 04 01	 mov	 BYTE PTR [eax+4], 1
  000a3	5d		 pop	 ebp

; 504  : 			}
; 505  : 		}

  000a4	59		 pop	 ecx
  000a5	c2 08 00	 ret	 8
$L227236:

; 502  : 			else
; 503  : 				return (_Pairib(_Where, false));

  000a8	8b 44 24 14	 mov	 eax, DWORD PTR ___$ReturnUdt$[esp+12]
  000ac	5f		 pop	 edi
  000ad	5e		 pop	 esi
  000ae	c6 40 04 00	 mov	 BYTE PTR [eax+4], 0
  000b2	89 10		 mov	 DWORD PTR [eax], edx
  000b4	5d		 pop	 ebp

; 504  : 			}
; 505  : 		}

  000b5	59		 pop	 ecx
  000b6	c2 08 00	 ret	 8
?insert@?$_Tree@V?$_Tmap_traits@KPAVCMailBox@@U?$less@K@std@@V?$allocator@U?$pair@$$CBKPAVCMailBox@@@std@@@3@$0A@@std@@@std@@QAE?AU?$pair@Viterator@?$_Tree@V?$_Tmap_traits@KPAVCMailBox@@U?$less@K@std@@V?$allocator@U?$pair@$$CBKPAVCMailBox@@@std@@@3@$0A@@std@@@std@@_N@2@ABU?$pair@$$CBKPAVCMailBox@@@2@@Z ENDP ; std::_Tree<std::_Tmap_traits<unsigned long,CMailBox *,std::less<unsigned long>,std::allocator<std::pair<unsigned long const ,CMailBox *> >,0> >::insert
_TEXT	ENDS
PUBLIC	?_Buy@?$vector@PAVCMail@@V?$allocator@PAVCMail@@@std@@@std@@IAE_NI@Z ; std::vector<CMail *,std::allocator<CMail *> >::_Buy
; Function compile flags: /Ogty
; File c:\program files\microsoft visual studio .net 2003\vc7\include\vector
;	COMDAT ?_Buy@?$vector@PAVCMail@@V?$allocator@PAVCMail@@@std@@@std@@IAE_NI@Z
_TEXT	SEGMENT
__Capacity$ = 8						; size = 4
?_Buy@?$vector@PAVCMail@@V?$allocator@PAVCMail@@@std@@@std@@IAE_NI@Z PROC NEAR ; std::vector<CMail *,std::allocator<CMail *> >::_Buy, COMDAT
; _this$ = ecx

; 771  : 		_Myfirst = 0, _Mylast = 0, _Myend = 0;
; 772  : 		if (_Capacity == 0)

  00000	8b 44 24 04	 mov	 eax, DWORD PTR __Capacity$[esp-4]
  00004	56		 push	 esi
  00005	8b f1		 mov	 esi, ecx
  00007	33 c9		 xor	 ecx, ecx
  00009	3b c1		 cmp	 eax, ecx
  0000b	89 4e 04	 mov	 DWORD PTR [esi+4], ecx
  0000e	89 4e 08	 mov	 DWORD PTR [esi+8], ecx
  00011	89 4e 0c	 mov	 DWORD PTR [esi+12], ecx
  00014	75 06		 jne	 SHORT $L227338

; 773  : 			return (false);

  00016	32 c0		 xor	 al, al
  00018	5e		 pop	 esi

; 783  : 		}

  00019	c2 04 00	 ret	 4
$L227338:

; 774  : 		else if (max_size() < _Capacity)

  0001c	3d ff ff ff 3f	 cmp	 eax, 1073741823		; 3fffffffH
  00021	76 07		 jbe	 SHORT $L227340

; 775  : 			_Xlen();	// result too long

  00023	8b ce		 mov	 ecx, esi
  00025	e8 00 00 00 00	 call	 ?_Xlen@?$vector@PAVCMail@@V?$allocator@PAVCMail@@@std@@@std@@IBEXXZ ; std::vector<CMail *,std::allocator<CMail *> >::_Xlen
$L236162:
$L227340:
  0002a	57		 push	 edi

; 776  : 		else
; 777  : 			{	// nonempty array, allocate storage
; 778  : 			_Myfirst = this->_Alval.allocate(_Capacity);

  0002b	8d 3c 85 00 00
	00 00		 lea	 edi, DWORD PTR [eax*4]
  00032	57		 push	 edi
  00033	e8 00 00 00 00	 call	 ??2@YAPAXI@Z		; operator new

; 779  : 			_Mylast = _Myfirst;
; 780  : 			_Myend = _Myfirst + _Capacity;

  00038	03 f8		 add	 edi, eax
  0003a	83 c4 04	 add	 esp, 4
  0003d	89 7e 0c	 mov	 DWORD PTR [esi+12], edi
  00040	89 46 04	 mov	 DWORD PTR [esi+4], eax
  00043	89 46 08	 mov	 DWORD PTR [esi+8], eax
  00046	5f		 pop	 edi

; 781  : 			}
; 782  : 		return (true);

  00047	b0 01		 mov	 al, 1
  00049	5e		 pop	 esi

; 783  : 		}

  0004a	c2 04 00	 ret	 4
$L236161:
?_Buy@?$vector@PAVCMail@@V?$allocator@PAVCMail@@@std@@@std@@IAE_NI@Z ENDP ; std::vector<CMail *,std::allocator<CMail *> >::_Buy
_TEXT	ENDS
PUBLIC	?_Insert_n@?$vector@PAVCMail@@V?$allocator@PAVCMail@@@std@@@std@@IAEXViterator@12@IABQAVCMail@@@Z ; std::vector<CMail *,std::allocator<CMail *> >::_Insert_n
; Function compile flags: /Ogty
;	COMDAT ?_Insert_n@?$vector@PAVCMail@@V?$allocator@PAVCMail@@@std@@@std@@IAEXViterator@12@IABQAVCMail@@@Z
_TEXT	SEGMENT
__Newvec$227536 = -4					; size = 4
tv393 = 8						; size = 4
__Where$ = 8						; size = 4
tv382 = 12						; size = 4
__Count$ = 12						; size = 4
__Tmp$ = 16						; size = 4
__Val$ = 16						; size = 4
?_Insert_n@?$vector@PAVCMail@@V?$allocator@PAVCMail@@@std@@@std@@IAEXViterator@12@IABQAVCMail@@@Z PROC NEAR ; std::vector<CMail *,std::allocator<CMail *> >::_Insert_n, COMDAT
; _this$ = ecx

; 809  : 		{	// insert _Count * _Val at _Where

  00000	51		 push	 ecx

; 810  : 		_Ty _Tmp = _Val;	// in case _Val is in sequence

  00001	8b 44 24 10	 mov	 eax, DWORD PTR __Val$[esp]
  00005	56		 push	 esi
  00006	8b f1		 mov	 esi, ecx

; 811  : 		size_type _Capacity = capacity();

  00008	8b 56 04	 mov	 edx, DWORD PTR [esi+4]
  0000b	85 d2		 test	 edx, edx
  0000d	8b 08		 mov	 ecx, DWORD PTR [eax]
  0000f	57		 push	 edi
  00010	89 4c 24 18	 mov	 DWORD PTR __Tmp$[esp+8], ecx
  00014	75 04		 jne	 SHORT $L236176
  00016	33 c0		 xor	 eax, eax
  00018	eb 08		 jmp	 SHORT $L236177
$L236176:
  0001a	8b 46 0c	 mov	 eax, DWORD PTR [esi+12]
  0001d	2b c2		 sub	 eax, edx
  0001f	c1 f8 02	 sar	 eax, 2
$L236177:

; 812  : 
; 813  : 		if (_Count == 0)

  00022	8b 7c 24 14	 mov	 edi, DWORD PTR __Count$[esp+8]
  00026	85 ff		 test	 edi, edi
  00028	0f 84 ac 01 00
	00		 je	 $L227556

; 814  : 			;
; 815  : 		else if (max_size() - size() < _Count)

  0002e	85 d2		 test	 edx, edx
  00030	75 04		 jne	 SHORT $L236199
  00032	33 c9		 xor	 ecx, ecx
  00034	eb 08		 jmp	 SHORT $L236200
$L236199:
  00036	8b 4e 08	 mov	 ecx, DWORD PTR [esi+8]
  00039	2b ca		 sub	 ecx, edx
  0003b	c1 f9 02	 sar	 ecx, 2
$L236200:
  0003e	53		 push	 ebx
  0003f	bb ff ff ff 3f	 mov	 ebx, 1073741823		; 3fffffffH
  00044	2b d9		 sub	 ebx, ecx
  00046	3b df		 cmp	 ebx, edi
  00048	73 07		 jae	 SHORT $L227532

; 816  : 			_Xlen();	// result too long

  0004a	8b ce		 mov	 ecx, esi
  0004c	e8 00 00 00 00	 call	 ?_Xlen@?$vector@PAVCMail@@V?$allocator@PAVCMail@@@std@@@std@@IBEXXZ ; std::vector<CMail *,std::allocator<CMail *> >::_Xlen
$L236331:
$L227532:

; 817  : 		else if (_Capacity < size() + _Count)

  00051	85 d2		 test	 edx, edx
  00053	75 04		 jne	 SHORT $L236206
  00055	33 c9		 xor	 ecx, ecx
  00057	eb 08		 jmp	 SHORT $L236207
$L236206:
  00059	8b 4e 08	 mov	 ecx, DWORD PTR [esi+8]
  0005c	2b ca		 sub	 ecx, edx
  0005e	c1 f9 02	 sar	 ecx, 2
$L236207:
  00061	03 cf		 add	 ecx, edi
  00063	3b c1		 cmp	 eax, ecx
  00065	55		 push	 ebp
  00066	0f 83 d6 00 00
	00		 jae	 $L227534

; 818  : 			{	// not enough room, reallocate
; 819  : 			_Capacity = max_size() - _Capacity / 2 < _Capacity
; 820  : 				? 0 : _Capacity + _Capacity / 2;	// try to grow by 50%

  0006c	8b c8		 mov	 ecx, eax
  0006e	d1 e9		 shr	 ecx, 1
  00070	bb ff ff ff 3f	 mov	 ebx, 1073741823		; 3fffffffH
  00075	2b d9		 sub	 ebx, ecx
  00077	3b d8		 cmp	 ebx, eax
  00079	73 04		 jae	 SHORT $L236166
  0007b	33 c0		 xor	 eax, eax
  0007d	eb 02		 jmp	 SHORT $L236167
$L236166:
  0007f	03 c1		 add	 eax, ecx
$L236167:

; 821  : 			if (_Capacity < size() + _Count)

  00081	85 d2		 test	 edx, edx
  00083	75 04		 jne	 SHORT $L236229
  00085	33 c9		 xor	 ecx, ecx
  00087	eb 08		 jmp	 SHORT $L236230
$L236229:
  00089	8b 4e 08	 mov	 ecx, DWORD PTR [esi+8]
  0008c	2b ca		 sub	 ecx, edx
  0008e	c1 f9 02	 sar	 ecx, 2
$L236230:
  00091	03 cf		 add	 ecx, edi
  00093	3b c1		 cmp	 eax, ecx
  00095	73 12		 jae	 SHORT $L227535

; 822  : 				_Capacity = size() + _Count;

  00097	85 d2		 test	 edx, edx
  00099	75 04		 jne	 SHORT $L236236
  0009b	33 c0		 xor	 eax, eax
  0009d	eb 08		 jmp	 SHORT $L236237
$L236236:
  0009f	8b 46 08	 mov	 eax, DWORD PTR [esi+8]
  000a2	2b c2		 sub	 eax, edx
  000a4	c1 f8 02	 sar	 eax, 2
$L236237:
  000a7	03 c7		 add	 eax, edi
$L227535:

; 823  : 			pointer _Newvec = this->_Alval.allocate(_Capacity);

  000a9	c1 e0 02	 shl	 eax, 2
  000ac	50		 push	 eax
  000ad	89 44 24 20	 mov	 DWORD PTR tv382[esp+20], eax
  000b1	e8 00 00 00 00	 call	 ??2@YAPAXI@Z		; operator new

; 824  : 			pointer _Ptr = _Newvec;
; 825  : 
; 826  : 			_TRY_BEGIN
; 827  : 			_Ptr = _Ucopy(_Myfirst, _ITER_BASE(_Where),
; 828  : 				_Newvec);	// copy prefix

  000b6	8b 4e 04	 mov	 ecx, DWORD PTR [esi+4]
  000b9	8b 5c 24 1c	 mov	 ebx, DWORD PTR __Where$[esp+20]
  000bd	8b d0		 mov	 edx, eax
  000bf	8b c3		 mov	 eax, ebx
  000c1	2b c1		 sub	 eax, ecx
  000c3	c1 f8 02	 sar	 eax, 2
  000c6	8d 2c 85 00 00
	00 00		 lea	 ebp, DWORD PTR [eax*4]
  000cd	55		 push	 ebp
  000ce	51		 push	 ecx
  000cf	52		 push	 edx
  000d0	89 54 24 20	 mov	 DWORD PTR __Newvec$227536[esp+36], edx
  000d4	e8 00 00 00 00	 call	 _memmove
  000d9	83 c4 10	 add	 esp, 16			; 00000010H

; 829  : 			_Ptr = _Ufill(_Ptr, _Count, _Tmp);	// add new stuff

  000dc	8d 54 24 20	 lea	 edx, DWORD PTR __Tmp$[esp+16]
  000e0	52		 push	 edx
  000e1	03 c5		 add	 eax, ebp
  000e3	57		 push	 edi
  000e4	50		 push	 eax
  000e5	8b ce		 mov	 ecx, esi
  000e7	e8 00 00 00 00	 call	 ?_Ufill@?$vector@PAVCMail@@V?$allocator@PAVCMail@@@std@@@std@@IAEPAPAVCMail@@PAPAV3@IABQAV3@@Z ; std::vector<CMail *,std::allocator<CMail *> >::_Ufill

; 830  : 			_Ucopy(_ITER_BASE(_Where), _Mylast, _Ptr);	// copy suffix

  000ec	8b 4e 08	 mov	 ecx, DWORD PTR [esi+8]
  000ef	2b cb		 sub	 ecx, ebx
  000f1	c1 f9 02	 sar	 ecx, 2
  000f4	c1 e1 02	 shl	 ecx, 2
  000f7	51		 push	 ecx
  000f8	53		 push	 ebx
  000f9	50		 push	 eax
  000fa	e8 00 00 00 00	 call	 _memmove

; 831  : 			_CATCH_ALL
; 832  : 			_Destroy(_Newvec, _Ptr);
; 833  : 			this->_Alval.deallocate(_Newvec, _Capacity);
; 834  : 			_RERAISE;
; 835  : 			_CATCH_END
; 836  : 
; 837  : 			_Count += size();

  000ff	8b 46 04	 mov	 eax, DWORD PTR [esi+4]
  00102	83 c4 0c	 add	 esp, 12			; 0000000cH
  00105	85 c0		 test	 eax, eax
  00107	75 04		 jne	 SHORT $L236318
  00109	33 c9		 xor	 ecx, ecx
  0010b	eb 08		 jmp	 SHORT $L236319
$L236318:
  0010d	8b 4e 08	 mov	 ecx, DWORD PTR [esi+8]
  00110	2b c8		 sub	 ecx, eax
  00112	c1 f9 02	 sar	 ecx, 2
$L236319:
  00115	03 f9		 add	 edi, ecx

; 838  : 			if (_Myfirst != 0)

  00117	85 c0		 test	 eax, eax
  00119	74 09		 je	 SHORT $L236322

; 839  : 				{	// destroy and deallocate old array
; 840  : 				_Destroy(_Myfirst, _Mylast);
; 841  : 				this->_Alval.deallocate(_Myfirst, _Myend - _Myfirst);

  0011b	50		 push	 eax
  0011c	e8 00 00 00 00	 call	 ??3@YAXPAX@Z		; operator delete
  00121	83 c4 04	 add	 esp, 4
$L236322:

; 842  : 				}
; 843  : 			_Myend = _Newvec + _Capacity;

  00124	8b 44 24 10	 mov	 eax, DWORD PTR __Newvec$227536[esp+20]
  00128	8b 54 24 1c	 mov	 edx, DWORD PTR tv382[esp+16]
  0012c	5d		 pop	 ebp
  0012d	5b		 pop	 ebx

; 844  : 			_Mylast = _Newvec + _Count;

  0012e	8d 0c b8	 lea	 ecx, DWORD PTR [eax+edi*4]
  00131	03 d0		 add	 edx, eax
  00133	5f		 pop	 edi
  00134	89 56 0c	 mov	 DWORD PTR [esi+12], edx
  00137	89 4e 08	 mov	 DWORD PTR [esi+8], ecx

; 845  : 			_Myfirst = _Newvec;

  0013a	89 46 04	 mov	 DWORD PTR [esi+4], eax
  0013d	5e		 pop	 esi

; 873  : 			}
; 874  : 		}

  0013e	59		 pop	 ecx
  0013f	c2 0c 00	 ret	 12			; 0000000cH
$L227534:

; 846  : 			}
; 847  : 		else if ((size_type)(_Mylast - _ITER_BASE(_Where)) < _Count)

  00142	8b 6e 08	 mov	 ebp, DWORD PTR [esi+8]
  00145	8b 5c 24 18	 mov	 ebx, DWORD PTR __Where$[esp+16]
  00149	8b d5		 mov	 edx, ebp
  0014b	2b d3		 sub	 edx, ebx
  0014d	c1 fa 02	 sar	 edx, 2
  00150	3b d7		 cmp	 edx, edi

; 848  : 			{	// new stuff spills off end
; 849  : 			_Ucopy(_ITER_BASE(_Where), _Mylast,
; 850  : 				_ITER_BASE(_Where) + _Count);	// copy suffix

  00152	8d 04 bd 00 00
	00 00		 lea	 eax, DWORD PTR [edi*4]
  00159	8b ce		 mov	 ecx, esi
  0015b	89 44 24 18	 mov	 DWORD PTR tv393[esp+16], eax
  0015f	73 4b		 jae	 SHORT $L227547
  00161	03 c3		 add	 eax, ebx
  00163	50		 push	 eax
  00164	55		 push	 ebp
  00165	53		 push	 ebx
  00166	e8 00 00 00 00	 call	 ??$_Ucopy@PAPAVCMail@@@?$vector@PAVCMail@@V?$allocator@PAVCMail@@@std@@@std@@IAEPAPAVCMail@@PAPAV2@00@Z ; std::vector<CMail *,std::allocator<CMail *> >::_Ucopy<CMail * *>

; 851  : 
; 852  : 			_TRY_BEGIN
; 853  : 			_Ufill(_Mylast, _Count - (_Mylast - _ITER_BASE(_Where)),
; 854  : 				_Tmp);	// insert new stuff off end

  0016b	8b 46 08	 mov	 eax, DWORD PTR [esi+8]
  0016e	8b d0		 mov	 edx, eax
  00170	2b d3		 sub	 edx, ebx
  00172	8d 4c 24 20	 lea	 ecx, DWORD PTR __Tmp$[esp+16]
  00176	51		 push	 ecx
  00177	c1 fa 02	 sar	 edx, 2
  0017a	2b fa		 sub	 edi, edx
  0017c	57		 push	 edi
  0017d	50		 push	 eax
  0017e	8b ce		 mov	 ecx, esi
  00180	e8 00 00 00 00	 call	 ?_Ufill@?$vector@PAVCMail@@V?$allocator@PAVCMail@@@std@@@std@@IAEPAPAVCMail@@PAPAV3@IABQAV3@@Z ; std::vector<CMail *,std::allocator<CMail *> >::_Ufill

; 855  : 			_CATCH_ALL
; 856  : 			_Destroy(_ITER_BASE(_Where) + _Count, _Mylast + _Count);
; 857  : 			_RERAISE;
; 858  : 			_CATCH_END
; 859  : 
; 860  : 			_Mylast += _Count;

  00185	8b 4e 08	 mov	 ecx, DWORD PTR [esi+8]
  00188	8b 44 24 18	 mov	 eax, DWORD PTR tv393[esp+16]
  0018c	03 c8		 add	 ecx, eax
  0018e	89 4e 08	 mov	 DWORD PTR [esi+8], ecx
  00191	8b f1		 mov	 esi, ecx

; 861  : 			fill(_ITER_BASE(_Where), _Mylast - _Count,
; 862  : 				_Tmp);	// insert up to old end

  00193	8d 4c 24 20	 lea	 ecx, DWORD PTR __Tmp$[esp+16]
  00197	51		 push	 ecx
  00198	2b f0		 sub	 esi, eax
  0019a	56		 push	 esi
  0019b	53		 push	 ebx
  0019c	e8 00 00 00 00	 call	 ??$fill@PAPAVCMail@@PAV1@@std@@YAXPAPAVCMail@@0ABQAV1@@Z ; std::fill<CMail * *,CMail *>
  001a1	83 c4 0c	 add	 esp, 12			; 0000000cH
  001a4	5d		 pop	 ebp
  001a5	5b		 pop	 ebx
  001a6	5f		 pop	 edi
  001a7	5e		 pop	 esi

; 873  : 			}
; 874  : 		}

  001a8	59		 pop	 ecx
  001a9	c2 0c 00	 ret	 12			; 0000000cH
$L227547:

; 863  : 			}
; 864  : 		else
; 865  : 			{	// new stuff can all be assigned
; 866  : 			pointer _Oldend = _Mylast;
; 867  : 			_Mylast = _Ucopy(_Oldend - _Count, _Oldend,
; 868  : 				_Mylast);	// copy suffix

  001ac	55		 push	 ebp
  001ad	8b fd		 mov	 edi, ebp
  001af	2b f8		 sub	 edi, eax
  001b1	55		 push	 ebp
  001b2	57		 push	 edi
  001b3	e8 00 00 00 00	 call	 ??$_Ucopy@PAPAVCMail@@@?$vector@PAVCMail@@V?$allocator@PAVCMail@@@std@@@std@@IAEPAPAVCMail@@PAPAV2@00@Z ; std::vector<CMail *,std::allocator<CMail *> >::_Ucopy<CMail * *>

; 869  : 			copy_backward(_ITER_BASE(_Where), _Oldend - _Count,
; 870  : 				_Oldend);	// copy hole

  001b8	55		 push	 ebp
  001b9	57		 push	 edi
  001ba	53		 push	 ebx
  001bb	89 46 08	 mov	 DWORD PTR [esi+8], eax
  001be	e8 00 00 00 00	 call	 ??$copy_backward@PAPAVCMail@@PAPAV1@@std@@YAPAPAVCMail@@PAPAV1@00@Z ; std::copy_backward<CMail * *,CMail * *>

; 871  : 			fill(_ITER_BASE(_Where), _ITER_BASE(_Where) + _Count,
; 872  : 				_Tmp);	// insert into hole

  001c3	8b 44 24 24	 mov	 eax, DWORD PTR tv393[esp+28]
  001c7	8d 54 24 2c	 lea	 edx, DWORD PTR __Tmp$[esp+28]
  001cb	52		 push	 edx
  001cc	03 c3		 add	 eax, ebx
  001ce	50		 push	 eax
  001cf	53		 push	 ebx
  001d0	e8 00 00 00 00	 call	 ??$fill@PAPAVCMail@@PAV1@@std@@YAXPAPAVCMail@@0ABQAV1@@Z ; std::fill<CMail * *,CMail *>
  001d5	83 c4 18	 add	 esp, 24			; 00000018H
  001d8	5d		 pop	 ebp
  001d9	5b		 pop	 ebx
$L227556:
  001da	5f		 pop	 edi
  001db	5e		 pop	 esi

; 873  : 			}
; 874  : 		}

  001dc	59		 pop	 ecx
  001dd	c2 0c 00	 ret	 12			; 0000000cH
$L236330:
?_Insert_n@?$vector@PAVCMail@@V?$allocator@PAVCMail@@@std@@@std@@IAEXViterator@12@IABQAVCMail@@@Z ENDP ; std::vector<CMail *,std::allocator<CMail *> >::_Insert_n
_TEXT	ENDS
PUBLIC	?erase@?$_Tree@V?$_Tmap_traits@KPAVCMailBox@@U?$less@K@std@@V?$allocator@U?$pair@$$CBKPAVCMailBox@@@std@@@3@$0A@@std@@@std@@QAE?AViterator@12@V312@0@Z ; std::_Tree<std::_Tmap_traits<unsigned long,CMailBox *,std::less<unsigned long>,std::allocator<std::pair<unsigned long const ,CMailBox *> >,0> >::erase
; Function compile flags: /Ogty
; File c:\program files\microsoft visual studio .net 2003\vc7\include\xtree
;	COMDAT ?erase@?$_Tree@V?$_Tmap_traits@KPAVCMailBox@@U?$less@K@std@@V?$allocator@U?$pair@$$CBKPAVCMailBox@@@std@@@3@$0A@@std@@@std@@QAE?AViterator@12@V312@0@Z
_TEXT	SEGMENT
___$ReturnUdt$ = 8					; size = 4
$T236338 = 12						; size = 4
__First$ = 12						; size = 4
__Last$ = 16						; size = 4
?erase@?$_Tree@V?$_Tmap_traits@KPAVCMailBox@@U?$less@K@std@@V?$allocator@U?$pair@$$CBKPAVCMailBox@@@std@@@3@$0A@@std@@@std@@QAE?AViterator@12@V312@0@Z PROC NEAR ; std::_Tree<std::_Tmap_traits<unsigned long,CMailBox *,std::less<unsigned long>,std::allocator<std::pair<unsigned long const ,CMailBox *> >,0> >::erase, COMDAT
; _this$ = ecx

; 750  : 		{	// erase [_First, _Last)

  00000	53		 push	 ebx

; 751  : 		if (_First == begin() && _Last == end())

  00001	8b 5c 24 10	 mov	 ebx, DWORD PTR __Last$[esp]
  00005	56		 push	 esi
  00006	8b 74 24 10	 mov	 esi, DWORD PTR __First$[esp+4]
  0000a	57		 push	 edi
  0000b	8b f9		 mov	 edi, ecx
  0000d	8b 47 04	 mov	 eax, DWORD PTR [edi+4]
  00010	3b 30		 cmp	 esi, DWORD PTR [eax]
  00012	75 38		 jne	 SHORT $L236670
  00014	3b d8		 cmp	 ebx, eax
  00016	75 34		 jne	 SHORT $L236670

; 752  : 			{	// erase all
; 753  : 			clear();

  00018	8b 40 04	 mov	 eax, DWORD PTR [eax+4]
  0001b	50		 push	 eax
  0001c	8b cf		 mov	 ecx, edi
  0001e	e8 00 00 00 00	 call	 ?_Erase@?$_Tree@V?$_Tmap_traits@KPAVCMailBox@@U?$less@K@std@@V?$allocator@U?$pair@$$CBKPAVCMailBox@@@std@@@3@$0A@@std@@@std@@IAEXPAU_Node@?$_Tree_nod@V?$_Tmap_traits@KPAVCMailBox@@U?$less@K@std@@V?$allocator@U?$pair@$$CBKPAVCMailBox@@@std@@@3@$0A@@std@@@2@@Z ; std::_Tree<std::_Tmap_traits<unsigned long,CMailBox *,std::less<unsigned long>,std::allocator<std::pair<unsigned long const ,CMailBox *> >,0> >::_Erase
  00023	8b 47 04	 mov	 eax, DWORD PTR [edi+4]
  00026	89 40 04	 mov	 DWORD PTR [eax+4], eax
  00029	8b 47 04	 mov	 eax, DWORD PTR [edi+4]
  0002c	c7 47 08 00 00
	00 00		 mov	 DWORD PTR [edi+8], 0
  00033	89 00		 mov	 DWORD PTR [eax], eax
  00035	8b 47 04	 mov	 eax, DWORD PTR [edi+4]
  00038	89 40 08	 mov	 DWORD PTR [eax+8], eax

; 754  : 			return (begin());

  0003b	8b 4f 04	 mov	 ecx, DWORD PTR [edi+4]
  0003e	8b 11		 mov	 edx, DWORD PTR [ecx]
  00040	8b 44 24 10	 mov	 eax, DWORD PTR ___$ReturnUdt$[esp+8]
  00044	5f		 pop	 edi
  00045	5e		 pop	 esi
  00046	89 10		 mov	 DWORD PTR [eax], edx
  00048	5b		 pop	 ebx

; 761  : 			}
; 762  : 		}

  00049	c2 0c 00	 ret	 12			; 0000000cH
$L236670:

; 755  : 			}
; 756  : 		else
; 757  : 			{	// partial erase, one at a time
; 758  : 			while (_First != _Last)

  0004c	3b f3		 cmp	 esi, ebx
  0004e	74 5b		 je	 SHORT $L227600
$L227599:

; 759  : 				erase(_First++);

  00050	8a 46 15	 mov	 al, BYTE PTR [esi+21]
  00053	84 c0		 test	 al, al
  00055	8b ce		 mov	 ecx, esi
  00057	75 41		 jne	 SHORT $L236650
  00059	8b 46 08	 mov	 eax, DWORD PTR [esi+8]
  0005c	8a 50 15	 mov	 dl, BYTE PTR [eax+21]
  0005f	84 d2		 test	 dl, dl
  00061	75 1a		 jne	 SHORT $L236672
  00063	8b f0		 mov	 esi, eax
  00065	8b 06		 mov	 eax, DWORD PTR [esi]
  00067	8a 50 15	 mov	 dl, BYTE PTR [eax+21]
  0006a	84 d2		 test	 dl, dl
  0006c	75 2c		 jne	 SHORT $L236650
  0006e	8b ff		 npad	 2
$L236664:
  00070	8b f0		 mov	 esi, eax
  00072	8b 06		 mov	 eax, DWORD PTR [esi]
  00074	8a 50 15	 mov	 dl, BYTE PTR [eax+21]
  00077	84 d2		 test	 dl, dl
  00079	74 f5		 je	 SHORT $L236664
  0007b	eb 1d		 jmp	 SHORT $L236650
$L236672:
  0007d	8b 46 04	 mov	 eax, DWORD PTR [esi+4]
  00080	8a 50 15	 mov	 dl, BYTE PTR [eax+21]
  00083	84 d2		 test	 dl, dl
  00085	75 11		 jne	 SHORT $L236653
$L236652:
  00087	3b 70 08	 cmp	 esi, DWORD PTR [eax+8]
  0008a	75 0c		 jne	 SHORT $L236653
  0008c	8b f0		 mov	 esi, eax
  0008e	8b 40 04	 mov	 eax, DWORD PTR [eax+4]
  00091	8a 50 15	 mov	 dl, BYTE PTR [eax+21]
  00094	84 d2		 test	 dl, dl
  00096	74 ef		 je	 SHORT $L236652
$L236653:
  00098	8b f0		 mov	 esi, eax
$L236650:
  0009a	51		 push	 ecx
  0009b	8d 44 24 18	 lea	 eax, DWORD PTR $T236338[esp+12]
  0009f	50		 push	 eax
  000a0	8b cf		 mov	 ecx, edi
  000a2	e8 00 00 00 00	 call	 ?erase@?$_Tree@V?$_Tmap_traits@KPAVCMailBox@@U?$less@K@std@@V?$allocator@U?$pair@$$CBKPAVCMailBox@@@std@@@3@$0A@@std@@@std@@QAE?AViterator@12@V312@@Z ; std::_Tree<std::_Tmap_traits<unsigned long,CMailBox *,std::less<unsigned long>,std::allocator<std::pair<unsigned long const ,CMailBox *> >,0> >::erase
  000a7	3b f3		 cmp	 esi, ebx
  000a9	75 a5		 jne	 SHORT $L227599
$L227600:

; 760  : 			return (_First);

  000ab	8b 44 24 10	 mov	 eax, DWORD PTR ___$ReturnUdt$[esp+8]
  000af	5f		 pop	 edi
  000b0	89 30		 mov	 DWORD PTR [eax], esi
  000b2	5e		 pop	 esi
  000b3	5b		 pop	 ebx

; 761  : 			}
; 762  : 		}

  000b4	c2 0c 00	 ret	 12			; 0000000cH
?erase@?$_Tree@V?$_Tmap_traits@KPAVCMailBox@@U?$less@K@std@@V?$allocator@U?$pair@$$CBKPAVCMailBox@@@std@@@3@$0A@@std@@@std@@QAE?AViterator@12@V312@0@Z ENDP ; std::_Tree<std::_Tmap_traits<unsigned long,CMailBox *,std::less<unsigned long>,std::allocator<std::pair<unsigned long const ,CMailBox *> >,0> >::erase
_TEXT	ENDS
PUBLIC	?AddMailBox@CPost@@QAEHPAVCMailBox@@@Z		; CPost::AddMailBox
; Function compile flags: /Ogty
; File c:\documents and settings\test\mes documents\source\virtuos_v17\build\program\_common\post.cpp
;	COMDAT ?AddMailBox@CPost@@QAEHPAVCMailBox@@@Z
_TEXT	SEGMENT
$T236679 = -16						; size = 8
$T236680 = -8						; size = 8
_pMailBox$ = 8						; size = 4
?AddMailBox@CPost@@QAEHPAVCMailBox@@@Z PROC NEAR	; CPost::AddMailBox, COMDAT
; _this$ = ecx

; 561  : {

  00000	83 ec 10	 sub	 esp, 16			; 00000010H

; 562  : #ifdef __DBSERVER
; 563  : 	pMailBox->SetPost( this );
; 564  : #endif	// __DBSERVER
; 565  : 	return m_mapMailBox.insert( map<u_long, CMailBox*>::value_type( pMailBox->m_idReceiver, pMailBox ) ).second;

  00003	8b 44 24 14	 mov	 eax, DWORD PTR _pMailBox$[esp+12]
  00007	8b 50 14	 mov	 edx, DWORD PTR [eax+20]
  0000a	89 44 24 04	 mov	 DWORD PTR $T236679[esp+20], eax
  0000e	8d 04 24	 lea	 eax, DWORD PTR $T236679[esp+16]
  00011	89 14 24	 mov	 DWORD PTR $T236679[esp+16], edx
  00014	50		 push	 eax
  00015	8d 54 24 0c	 lea	 edx, DWORD PTR $T236680[esp+20]
  00019	52		 push	 edx
  0001a	83 c1 04	 add	 ecx, 4
  0001d	e8 00 00 00 00	 call	 ?insert@?$_Tree@V?$_Tmap_traits@KPAVCMailBox@@U?$less@K@std@@V?$allocator@U?$pair@$$CBKPAVCMailBox@@@std@@@3@$0A@@std@@@std@@QAE?AU?$pair@Viterator@?$_Tree@V?$_Tmap_traits@KPAVCMailBox@@U?$less@K@std@@V?$allocator@U?$pair@$$CBKPAVCMailBox@@@std@@@3@$0A@@std@@@std@@_N@2@ABU?$pair@$$CBKPAVCMailBox@@@2@@Z ; std::_Tree<std::_Tmap_traits<unsigned long,CMailBox *,std::less<unsigned long>,std::allocator<std::pair<unsigned long const ,CMailBox *> >,0> >::insert
  00022	0f b6 40 04	 movzx	 eax, BYTE PTR [eax+4]

; 566  : }

  00026	83 c4 10	 add	 esp, 16			; 00000010H
  00029	c2 04 00	 ret	 4
?AddMailBox@CPost@@QAEHPAVCMailBox@@@Z ENDP		; CPost::AddMailBox
_TEXT	ENDS
PUBLIC	??0?$vector@PAVCMail@@V?$allocator@PAVCMail@@@std@@@std@@QAE@XZ ; std::vector<CMail *,std::allocator<CMail *> >::vector<CMail *,std::allocator<CMail *> >
; Function compile flags: /Ogty
; File c:\program files\microsoft visual studio .net 2003\vc7\include\vector
;	COMDAT ??0?$vector@PAVCMail@@V?$allocator@PAVCMail@@@std@@@std@@QAE@XZ
_TEXT	SEGMENT
??0?$vector@PAVCMail@@V?$allocator@PAVCMail@@@std@@@std@@QAE@XZ PROC NEAR ; std::vector<CMail *,std::allocator<CMail *> >::vector<CMail *,std::allocator<CMail *> >, COMDAT
; _this$ = ecx

; 299  : 		{	// construct empty vector

  00000	8b c1		 mov	 eax, ecx

; 300  : 		_Buy(0);

  00002	33 c9		 xor	 ecx, ecx
  00004	89 48 04	 mov	 DWORD PTR [eax+4], ecx
  00007	89 48 08	 mov	 DWORD PTR [eax+8], ecx
  0000a	89 48 0c	 mov	 DWORD PTR [eax+12], ecx

; 301  : 		}

  0000d	c3		 ret	 0
??0?$vector@PAVCMail@@V?$allocator@PAVCMail@@@std@@@std@@QAE@XZ ENDP ; std::vector<CMail *,std::allocator<CMail *> >::vector<CMail *,std::allocator<CMail *> >
_TEXT	ENDS
PUBLIC	?insert@?$vector@PAVCMail@@V?$allocator@PAVCMail@@@std@@@std@@QAE?AViterator@12@V312@ABQAVCMail@@@Z ; std::vector<CMail *,std::allocator<CMail *> >::insert
; Function compile flags: /Ogty
;	COMDAT ?insert@?$vector@PAVCMail@@V?$allocator@PAVCMail@@@std@@@std@@QAE?AViterator@12@V312@ABQAVCMail@@@Z
_TEXT	SEGMENT
___$ReturnUdt$ = 8					; size = 4
__Where$ = 12						; size = 4
__Val$ = 16						; size = 4
?insert@?$vector@PAVCMail@@V?$allocator@PAVCMail@@@std@@@std@@QAE?AViterator@12@V312@ABQAVCMail@@@Z PROC NEAR ; std::vector<CMail *,std::allocator<CMail *> >::insert, COMDAT
; _this$ = ecx

; 621  : 		size_type _Off = size() == 0 ? 0 : _Where - begin();

  00000	8b 54 24 08	 mov	 edx, DWORD PTR __Where$[esp-4]
  00004	56		 push	 esi
  00005	57		 push	 edi
  00006	8b f9		 mov	 edi, ecx
  00008	8b 4f 04	 mov	 ecx, DWORD PTR [edi+4]
  0000b	85 c9		 test	 ecx, ecx
  0000d	74 0c		 je	 SHORT $L236810
  0000f	8b 47 08	 mov	 eax, DWORD PTR [edi+8]
  00012	2b c1		 sub	 eax, ecx
  00014	c1 f8 02	 sar	 eax, 2
  00017	85 c0		 test	 eax, eax
  00019	75 04		 jne	 SHORT $L236749
$L236810:
  0001b	33 f6		 xor	 esi, esi
  0001d	eb 07		 jmp	 SHORT $L236750
$L236749:
  0001f	8b f2		 mov	 esi, edx
  00021	2b f1		 sub	 esi, ecx
  00023	c1 fe 02	 sar	 esi, 2
$L236750:

; 622  : 		_Insert_n(_Where, (size_type)1, _Val);

  00026	8b 44 24 14	 mov	 eax, DWORD PTR __Val$[esp+4]
  0002a	50		 push	 eax
  0002b	6a 01		 push	 1
  0002d	52		 push	 edx
  0002e	8b cf		 mov	 ecx, edi
  00030	e8 00 00 00 00	 call	 ?_Insert_n@?$vector@PAVCMail@@V?$allocator@PAVCMail@@@std@@@std@@IAEXViterator@12@IABQAVCMail@@@Z ; std::vector<CMail *,std::allocator<CMail *> >::_Insert_n

; 623  : 		return (begin() + _Off);

  00035	8b 4f 04	 mov	 ecx, DWORD PTR [edi+4]
  00038	8b 44 24 0c	 mov	 eax, DWORD PTR ___$ReturnUdt$[esp+4]
  0003c	8d 14 b1	 lea	 edx, DWORD PTR [ecx+esi*4]
  0003f	5f		 pop	 edi
  00040	89 10		 mov	 DWORD PTR [eax], edx
  00042	5e		 pop	 esi

; 624  : 		}

  00043	c2 0c 00	 ret	 12			; 0000000cH
?insert@?$vector@PAVCMail@@V?$allocator@PAVCMail@@@std@@@std@@QAE?AViterator@12@V312@ABQAVCMail@@@Z ENDP ; std::vector<CMail *,std::allocator<CMail *> >::insert
_TEXT	ENDS
PUBLIC	?_Tidy@?$_Tree@V?$_Tmap_traits@KPAVCMailBox@@U?$less@K@std@@V?$allocator@U?$pair@$$CBKPAVCMailBox@@@std@@@3@$0A@@std@@@std@@IAEXXZ ; std::_Tree<std::_Tmap_traits<unsigned long,CMailBox *,std::less<unsigned long>,std::allocator<std::pair<unsigned long const ,CMailBox *> >,0> >::_Tidy
; Function compile flags: /Ogty
; File c:\program files\microsoft visual studio .net 2003\vc7\include\xtree
;	COMDAT ?_Tidy@?$_Tree@V?$_Tmap_traits@KPAVCMailBox@@U?$less@K@std@@V?$allocator@U?$pair@$$CBKPAVCMailBox@@@std@@@3@$0A@@std@@@std@@IAEXXZ
_TEXT	SEGMENT
$T236816 = -4						; size = 4
?_Tidy@?$_Tree@V?$_Tmap_traits@KPAVCMailBox@@U?$less@K@std@@V?$allocator@U?$pair@$$CBKPAVCMailBox@@@std@@@3@$0A@@std@@@std@@IAEXXZ PROC NEAR ; std::_Tree<std::_Tmap_traits<unsigned long,CMailBox *,std::less<unsigned long>,std::allocator<std::pair<unsigned long const ,CMailBox *> >,0> >::_Tidy, COMDAT
; _this$ = ecx

; 1142 : 		{	// free all storage

  00000	51		 push	 ecx
  00001	56		 push	 esi
  00002	8b f1		 mov	 esi, ecx

; 1143 : 		erase(begin(), end());

  00004	8b 46 04	 mov	 eax, DWORD PTR [esi+4]
  00007	8b 08		 mov	 ecx, DWORD PTR [eax]
  00009	50		 push	 eax
  0000a	51		 push	 ecx
  0000b	8d 44 24 0c	 lea	 eax, DWORD PTR $T236816[esp+16]
  0000f	50		 push	 eax
  00010	8b ce		 mov	 ecx, esi
  00012	e8 00 00 00 00	 call	 ?erase@?$_Tree@V?$_Tmap_traits@KPAVCMailBox@@U?$less@K@std@@V?$allocator@U?$pair@$$CBKPAVCMailBox@@@std@@@3@$0A@@std@@@std@@QAE?AViterator@12@V312@0@Z ; std::_Tree<std::_Tmap_traits<unsigned long,CMailBox *,std::less<unsigned long>,std::allocator<std::pair<unsigned long const ,CMailBox *> >,0> >::erase

; 1144 : 		this->_Alptr.destroy(&_Left(_Myhead));
; 1145 : 		this->_Alptr.destroy(&_Parent(_Myhead));
; 1146 : 		this->_Alptr.destroy(&_Right(_Myhead));
; 1147 : 		this->_Alnod.deallocate(_Myhead, 1);

  00017	8b 4e 04	 mov	 ecx, DWORD PTR [esi+4]
  0001a	51		 push	 ecx
  0001b	e8 00 00 00 00	 call	 ??3@YAXPAX@Z		; operator delete
  00020	83 c4 04	 add	 esp, 4

; 1148 : 		_Myhead = 0, _Mysize = 0;

  00023	33 c0		 xor	 eax, eax
  00025	89 46 04	 mov	 DWORD PTR [esi+4], eax
  00028	89 46 08	 mov	 DWORD PTR [esi+8], eax
  0002b	5e		 pop	 esi

; 1149 : 		}

  0002c	59		 pop	 ecx
  0002d	c3		 ret	 0
?_Tidy@?$_Tree@V?$_Tmap_traits@KPAVCMailBox@@U?$less@K@std@@V?$allocator@U?$pair@$$CBKPAVCMailBox@@@std@@@3@$0A@@std@@@std@@IAEXXZ ENDP ; std::_Tree<std::_Tmap_traits<unsigned long,CMailBox *,std::less<unsigned long>,std::allocator<std::pair<unsigned long const ,CMailBox *> >,0> >::_Tidy
_TEXT	ENDS
PUBLIC	??0CMailBox@@QAE@XZ				; CMailBox::CMailBox
; Function compile flags: /Ogty
; File c:\documents and settings\test\mes documents\source\virtuos_v17\build\program\_common\post.cpp
;	COMDAT ??0CMailBox@@QAE@XZ
_TEXT	SEGMENT
??0CMailBox@@QAE@XZ PROC NEAR				; CMailBox::CMailBox, COMDAT
; _this$ = ecx

; 158  : {

  00000	8b c1		 mov	 eax, ecx
  00002	33 c9		 xor	 ecx, ecx
  00004	89 48 08	 mov	 DWORD PTR [eax+8], ecx
  00007	89 48 0c	 mov	 DWORD PTR [eax+12], ecx
  0000a	89 48 10	 mov	 DWORD PTR [eax+16], ecx
  0000d	c7 00 00 00 00
	00		 mov	 DWORD PTR [eax], OFFSET FLAT:??_7CMailBox@@6B@

; 159  : 	m_idReceiver	= 0;

  00013	89 48 14	 mov	 DWORD PTR [eax+20], ecx

; 160  : #ifdef __WORLDSERVER
; 161  : 	m_nStatus	= CMailBox::nodata;

  00016	89 48 18	 mov	 DWORD PTR [eax+24], ecx

; 162  : #endif	// __WORLDSERVER
; 163  : }

  00019	c3		 ret	 0
??0CMailBox@@QAE@XZ ENDP				; CMailBox::CMailBox
_TEXT	ENDS
PUBLIC	??0CMailBox@@QAE@K@Z				; CMailBox::CMailBox
; Function compile flags: /Ogty
;	COMDAT ??0CMailBox@@QAE@K@Z
_TEXT	SEGMENT
_idReceiver$ = 8					; size = 4
??0CMailBox@@QAE@K@Z PROC NEAR				; CMailBox::CMailBox, COMDAT
; _this$ = ecx

; 167  : 	m_idReceiver	= idReceiver;

  00000	8b 54 24 04	 mov	 edx, DWORD PTR _idReceiver$[esp-4]
  00004	8b c1		 mov	 eax, ecx
  00006	33 c9		 xor	 ecx, ecx
  00008	89 48 08	 mov	 DWORD PTR [eax+8], ecx
  0000b	89 48 0c	 mov	 DWORD PTR [eax+12], ecx
  0000e	89 48 10	 mov	 DWORD PTR [eax+16], ecx
  00011	c7 00 00 00 00
	00		 mov	 DWORD PTR [eax], OFFSET FLAT:??_7CMailBox@@6B@
  00017	89 50 14	 mov	 DWORD PTR [eax+20], edx

; 168  : #ifdef __WORLDSERVER
; 169  : 	m_nStatus	= CMailBox::nodata;

  0001a	89 48 18	 mov	 DWORD PTR [eax+24], ecx

; 170  : #endif	// __WORLDSERVER
; 171  : 
; 172  : #ifdef __CLIENT
; 173  : 	Error( _T( "CMailBox::CMailBox" ) );
; 174  : #endif
; 175  : }

  0001d	c2 04 00	 ret	 4
??0CMailBox@@QAE@K@Z ENDP				; CMailBox::CMailBox
_TEXT	ENDS
PUBLIC	?GetInstance@CMailBox@@SAPAV1@XZ		; CMailBox::GetInstance
EXTRN	_atexit:NEAR
;	COMDAT ?sMailBox@?1??GetInstance@CMailBox@@SAPAV2@XZ@4V2@A
; File c:\program files\microsoft visual studio .net 2003\vc7\include\xmemory
_BSS	SEGMENT
?sMailBox@?1??GetInstance@CMailBox@@SAPAV2@XZ@4V2@A DB 01cH DUP (?) ; `CMailBox::GetInstance'::`2'::sMailBox
_BSS	ENDS
;	COMDAT ?$S1@?1??GetInstance@CMailBox@@SAPAV2@XZ@4IA
_BSS	SEGMENT
?$S1@?1??GetInstance@CMailBox@@SAPAV2@XZ@4IA DD 01H DUP (?) ; `CMailBox::GetInstance'::`2'::$S1
_BSS	ENDS
;	COMDAT xdata$x
xdata$x	SEGMENT
$T237181 DD	0ffffffffH
	DD	FLAT:$L237059
$T237178 DD	019930520H
	DD	01H
	DD	FLAT:$T237181
	DD	2 DUP(00H)
	DD	2 DUP(00H)
; Function compile flags: /Ogty
; File c:\documents and settings\test\mes documents\source\virtuos_v17\build\program\_common\post.cpp
xdata$x	ENDS
;	COMDAT ?GetInstance@CMailBox@@SAPAV1@XZ
_TEXT	SEGMENT
__$EHRec$ = -12						; size = 12
?GetInstance@CMailBox@@SAPAV1@XZ PROC NEAR		; CMailBox::GetInstance, COMDAT

; 187  : {

  00000	64 a1 00 00 00
	00		 mov	 eax, DWORD PTR fs:__except_list

; 188  : 	static CMailBox	sMailBox;

  00006	8a 0d 00 00 00
	00		 mov	 cl, BYTE PTR ?$S1@?1??GetInstance@CMailBox@@SAPAV2@XZ@4IA
  0000c	6a ff		 push	 -1
  0000e	68 00 00 00 00	 push	 __ehhandler$?GetInstance@CMailBox@@SAPAV1@XZ
  00013	50		 push	 eax
  00014	b8 01 00 00 00	 mov	 eax, 1
  00019	84 c8		 test	 cl, al
  0001b	64 89 25 00 00
	00 00		 mov	 DWORD PTR fs:__except_list, esp
  00022	75 38		 jne	 SHORT $L237179
  00024	09 05 00 00 00
	00		 or	 DWORD PTR ?$S1@?1??GetInstance@CMailBox@@SAPAV2@XZ@4IA, eax
  0002a	33 c0		 xor	 eax, eax
  0002c	68 00 00 00 00	 push	 OFFSET FLAT:_$E2
  00031	a3 08 00 00 00	 mov	 DWORD PTR ?sMailBox@?1??GetInstance@CMailBox@@SAPAV2@XZ@4V2@A+8, eax
  00036	a3 0c 00 00 00	 mov	 DWORD PTR ?sMailBox@?1??GetInstance@CMailBox@@SAPAV2@XZ@4V2@A+12, eax
  0003b	a3 10 00 00 00	 mov	 DWORD PTR ?sMailBox@?1??GetInstance@CMailBox@@SAPAV2@XZ@4V2@A+16, eax
  00040	c7 05 00 00 00
	00 00 00 00 00	 mov	 DWORD PTR ?sMailBox@?1??GetInstance@CMailBox@@SAPAV2@XZ@4V2@A, OFFSET FLAT:??_7CMailBox@@6B@
  0004a	a3 14 00 00 00	 mov	 DWORD PTR ?sMailBox@?1??GetInstance@CMailBox@@SAPAV2@XZ@4V2@A+20, eax
  0004f	a3 18 00 00 00	 mov	 DWORD PTR ?sMailBox@?1??GetInstance@CMailBox@@SAPAV2@XZ@4V2@A+24, eax
  00054	e8 00 00 00 00	 call	 _atexit
  00059	83 c4 04	 add	 esp, 4
$L237179:

; 189  : 	return &sMailBox;
; 190  : }

  0005c	8b 0c 24	 mov	 ecx, DWORD PTR __$EHRec$[esp+12]
  0005f	b8 00 00 00 00	 mov	 eax, OFFSET FLAT:?sMailBox@?1??GetInstance@CMailBox@@SAPAV2@XZ@4V2@A
  00064	64 89 0d 00 00
	00 00		 mov	 DWORD PTR fs:__except_list, ecx
  0006b	83 c4 0c	 add	 esp, 12			; 0000000cH
  0006e	c3		 ret	 0
_TEXT	ENDS
;	COMDAT text$x
text$x	SEGMENT
$L237059:
  00000	a1 00 00 00 00	 mov	 eax, DWORD PTR ?$S1@?1??GetInstance@CMailBox@@SAPAV2@XZ@4IA
  00005	83 e0 fe	 and	 eax, -2			; fffffffeH
  00008	a3 00 00 00 00	 mov	 DWORD PTR ?$S1@?1??GetInstance@CMailBox@@SAPAV2@XZ@4IA, eax
  0000d	c3		 ret	 0
__ehhandler$?GetInstance@CMailBox@@SAPAV1@XZ:
  0000e	b8 00 00 00 00	 mov	 eax, OFFSET FLAT:$T237178
  00013	e9 00 00 00 00	 jmp	 ___CxxFrameHandler
text$x	ENDS
?GetInstance@CMailBox@@SAPAV1@XZ ENDP			; CMailBox::GetInstance
PUBLIC	?push_back@?$vector@PAVCMail@@V?$allocator@PAVCMail@@@std@@@std@@QAEXABQAVCMail@@@Z ; std::vector<CMail *,std::allocator<CMail *> >::push_back
; Function compile flags: /Ogty
; File c:\program files\microsoft visual studio .net 2003\vc7\include\vector
;	COMDAT ?push_back@?$vector@PAVCMail@@V?$allocator@PAVCMail@@@std@@@std@@QAEXABQAVCMail@@@Z
_TEXT	SEGMENT
__Val$ = 8						; size = 4
?push_back@?$vector@PAVCMail@@V?$allocator@PAVCMail@@@std@@@std@@QAEXABQAVCMail@@@Z PROC NEAR ; std::vector<CMail *,std::allocator<CMail *> >::push_back, COMDAT
; _this$ = ecx

; 579  : 		{	// insert element at end

  00000	56		 push	 esi

; 580  : 		if (size() < capacity())

  00001	8b 71 04	 mov	 esi, DWORD PTR [ecx+4]
  00004	85 f6		 test	 esi, esi
  00006	75 04		 jne	 SHORT $L237193
  00008	33 d2		 xor	 edx, edx
  0000a	eb 08		 jmp	 SHORT $L237194
$L237193:
  0000c	8b 51 08	 mov	 edx, DWORD PTR [ecx+8]
  0000f	2b d6		 sub	 edx, esi
  00011	c1 fa 02	 sar	 edx, 2
$L237194:
  00014	85 f6		 test	 esi, esi
  00016	74 21		 je	 SHORT $L227176
  00018	8b 41 0c	 mov	 eax, DWORD PTR [ecx+12]
  0001b	2b c6		 sub	 eax, esi
  0001d	c1 f8 02	 sar	 eax, 2
  00020	3b d0		 cmp	 edx, eax
  00022	73 15		 jae	 SHORT $L227176

; 581  : 			_Mylast = _Ufill(_Mylast, 1, _Val);

  00024	8b 41 08	 mov	 eax, DWORD PTR [ecx+8]
  00027	8b 54 24 08	 mov	 edx, DWORD PTR __Val$[esp]
  0002b	8b 12		 mov	 edx, DWORD PTR [edx]
  0002d	89 10		 mov	 DWORD PTR [eax], edx
  0002f	83 c0 04	 add	 eax, 4
  00032	89 41 08	 mov	 DWORD PTR [ecx+8], eax
  00035	5e		 pop	 esi

; 584  : 		}

  00036	c2 04 00	 ret	 4
$L227176:

; 582  : 		else
; 583  : 			insert(end(), _Val);

  00039	8b 54 24 08	 mov	 edx, DWORD PTR __Val$[esp]
  0003d	8b 41 08	 mov	 eax, DWORD PTR [ecx+8]
  00040	52		 push	 edx
  00041	6a 01		 push	 1
  00043	50		 push	 eax
  00044	e8 00 00 00 00	 call	 ?_Insert_n@?$vector@PAVCMail@@V?$allocator@PAVCMail@@@std@@@std@@IAEXViterator@12@IABQAVCMail@@@Z ; std::vector<CMail *,std::allocator<CMail *> >::_Insert_n
  00049	5e		 pop	 esi

; 584  : 		}

  0004a	c2 04 00	 ret	 4
?push_back@?$vector@PAVCMail@@V?$allocator@PAVCMail@@@std@@@std@@QAEXABQAVCMail@@@Z ENDP ; std::vector<CMail *,std::allocator<CMail *> >::push_back
_TEXT	ENDS
PUBLIC	??1?$_Tree@V?$_Tmap_traits@KPAVCMailBox@@U?$less@K@std@@V?$allocator@U?$pair@$$CBKPAVCMailBox@@@std@@@3@$0A@@std@@@std@@QAE@XZ ; std::_Tree<std::_Tmap_traits<unsigned long,CMailBox *,std::less<unsigned long>,std::allocator<std::pair<unsigned long const ,CMailBox *> >,0> >::~_Tree<std::_Tmap_traits<unsigned long,CMailBox *,std::less<unsigned long>,std::allocator<std::pair<unsigned long const ,CMailBox *> >,0> >
; Function compile flags: /Ogty
; File c:\program files\microsoft visual studio .net 2003\vc7\include\xtree
;	COMDAT ??1?$_Tree@V?$_Tmap_traits@KPAVCMailBox@@U?$less@K@std@@V?$allocator@U?$pair@$$CBKPAVCMailBox@@@std@@@3@$0A@@std@@@std@@QAE@XZ
_TEXT	SEGMENT
$T237440 = -4						; size = 4
??1?$_Tree@V?$_Tmap_traits@KPAVCMailBox@@U?$less@K@std@@V?$allocator@U?$pair@$$CBKPAVCMailBox@@@std@@@3@$0A@@std@@@std@@QAE@XZ PROC NEAR ; std::_Tree<std::_Tmap_traits<unsigned long,CMailBox *,std::less<unsigned long>,std::allocator<std::pair<unsigned long const ,CMailBox *> >,0> >::~_Tree<std::_Tmap_traits<unsigned long,CMailBox *,std::less<unsigned long>,std::allocator<std::pair<unsigned long const ,CMailBox *> >,0> >, COMDAT
; _this$ = ecx

; 391  : 		{	// destroy tree

  00000	51		 push	 ecx
  00001	56		 push	 esi
  00002	8b f1		 mov	 esi, ecx

; 392  : 		_Tidy();

  00004	8b 46 04	 mov	 eax, DWORD PTR [esi+4]
  00007	8b 08		 mov	 ecx, DWORD PTR [eax]
  00009	50		 push	 eax
  0000a	51		 push	 ecx
  0000b	8d 44 24 0c	 lea	 eax, DWORD PTR $T237440[esp+16]
  0000f	50		 push	 eax
  00010	8b ce		 mov	 ecx, esi
  00012	e8 00 00 00 00	 call	 ?erase@?$_Tree@V?$_Tmap_traits@KPAVCMailBox@@U?$less@K@std@@V?$allocator@U?$pair@$$CBKPAVCMailBox@@@std@@@3@$0A@@std@@@std@@QAE?AViterator@12@V312@0@Z ; std::_Tree<std::_Tmap_traits<unsigned long,CMailBox *,std::less<unsigned long>,std::allocator<std::pair<unsigned long const ,CMailBox *> >,0> >::erase
  00017	8b 4e 04	 mov	 ecx, DWORD PTR [esi+4]
  0001a	51		 push	 ecx
  0001b	e8 00 00 00 00	 call	 ??3@YAXPAX@Z		; operator delete
  00020	83 c4 04	 add	 esp, 4
  00023	33 c0		 xor	 eax, eax
  00025	89 46 04	 mov	 DWORD PTR [esi+4], eax
  00028	89 46 08	 mov	 DWORD PTR [esi+8], eax
  0002b	5e		 pop	 esi

; 393  : 		}

  0002c	59		 pop	 ecx
  0002d	c3		 ret	 0
??1?$_Tree@V?$_Tmap_traits@KPAVCMailBox@@U?$less@K@std@@V?$allocator@U?$pair@$$CBKPAVCMailBox@@@std@@@3@$0A@@std@@@std@@QAE@XZ ENDP ; std::_Tree<std::_Tmap_traits<unsigned long,CMailBox *,std::less<unsigned long>,std::allocator<std::pair<unsigned long const ,CMailBox *> >,0> >::~_Tree<std::_Tmap_traits<unsigned long,CMailBox *,std::less<unsigned long>,std::allocator<std::pair<unsigned long const ,CMailBox *> >,0> >
_TEXT	ENDS
PUBLIC	?AddMail@CMailBox@@QAEKPAVCMail@@@Z		; CMailBox::AddMail
; Function compile flags: /Ogty
; File c:\documents and settings\test\mes documents\source\virtuos_v17\build\program\_common\post.cpp
;	COMDAT ?AddMail@CMailBox@@QAEKPAVCMail@@@Z
_TEXT	SEGMENT
_pMail$ = 8						; size = 4
?AddMail@CMailBox@@QAEKPAVCMail@@@Z PROC NEAR		; CMailBox::AddMail, COMDAT
; _this$ = ecx

; 210  : {

  00000	56		 push	 esi
  00001	57		 push	 edi

; 211  : 	if( 0 == pMail->m_nMail )

  00002	8b 7c 24 0c	 mov	 edi, DWORD PTR _pMail$[esp+4]
  00006	8b 47 04	 mov	 eax, DWORD PTR [edi+4]
  00009	85 c0		 test	 eax, eax
  0000b	75 10		 jne	 SHORT $L226716

; 212  : 		pMail->m_nMail	= ++CMail::s_nMail;

  0000d	a1 00 00 00 00	 mov	 eax, DWORD PTR ?s_nMail@CMail@@2KA ; CMail::s_nMail
  00012	40		 inc	 eax
  00013	a3 00 00 00 00	 mov	 DWORD PTR ?s_nMail@CMail@@2KA, eax ; CMail::s_nMail
  00018	89 47 04	 mov	 DWORD PTR [edi+4], eax

; 213  : 	else

  0001b	eb 05		 jmp	 SHORT $L226717
$L226716:

; 214  : 		CMail::s_nMail	= pMail->m_nMail;

  0001d	a3 00 00 00 00	 mov	 DWORD PTR ?s_nMail@CMail@@2KA, eax ; CMail::s_nMail
$L226717:

; 215  : 
; 216  : #ifdef __CLIENT
; 217  : 	Error( _T( "CMailBox::AddMail  nMail:%d sMail:%d" ), pMail->m_nMail, CMail::s_nMail );
; 218  : #endif
; 219  : 
; 220  : 	// : POST: m_nMail      .
; 221  : 	//      .
; 222  : 
; 223  : 	push_back( pMail );

  00022	8b 71 08	 mov	 esi, DWORD PTR [ecx+8]
  00025	83 c1 04	 add	 ecx, 4
  00028	85 f6		 test	 esi, esi
  0002a	75 04		 jne	 SHORT $L237691
  0002c	33 d2		 xor	 edx, edx
  0002e	eb 08		 jmp	 SHORT $L237692
$L237691:
  00030	8b 51 08	 mov	 edx, DWORD PTR [ecx+8]
  00033	2b d6		 sub	 edx, esi
  00035	c1 fa 02	 sar	 edx, 2
$L237692:
  00038	85 f6		 test	 esi, esi
  0003a	74 1f		 je	 SHORT $L237684
  0003c	8b 41 0c	 mov	 eax, DWORD PTR [ecx+12]
  0003f	2b c6		 sub	 eax, esi
  00041	c1 f8 02	 sar	 eax, 2
  00044	3b d0		 cmp	 edx, eax
  00046	73 13		 jae	 SHORT $L237684
  00048	8b 41 08	 mov	 eax, DWORD PTR [ecx+8]
  0004b	89 38		 mov	 DWORD PTR [eax], edi
  0004d	83 c0 04	 add	 eax, 4
  00050	89 41 08	 mov	 DWORD PTR [ecx+8], eax

; 224  : #ifdef __DBSERVER
; 225  : 	pMail->SetMailBox( this );
; 226  : 	if( m_pPost )
; 227  : 	{
; 228  : 		bool bResult	= m_pPost->m_mapMail4Proc.insert( map<u_long, CMail*>::value_type( pMail->m_nMail, pMail ) ).second;
; 229  : 		if( bResult == FALSE )
; 230  : 		{
; 231  : 			Error( "AddMail Failed - nMail : %d, idSender : %d", pMail->m_nMail, pMail->m_idSender );
; 232  : 		}
; 233  : 		else
; 234  : 		{
; 235  : // 			//	BEGINTEST
; 236  : // 			Error( "CMailBox::AddMail Sender[%d] nMail[%d]", pMail->m_idSender, pMail->m_nMail );
; 237  : 		}
; 238  : 	}
; 239  : #endif	// __DBSERVER
; 240  : 	return pMail->m_nMail;

  00053	8b 47 04	 mov	 eax, DWORD PTR [edi+4]
  00056	5f		 pop	 edi
  00057	5e		 pop	 esi

; 241  : }

  00058	c2 04 00	 ret	 4

; 215  : 
; 216  : #ifdef __CLIENT
; 217  : 	Error( _T( "CMailBox::AddMail  nMail:%d sMail:%d" ), pMail->m_nMail, CMail::s_nMail );
; 218  : #endif
; 219  : 
; 220  : 	// : POST: m_nMail      .
; 221  : 	//      .
; 222  : 
; 223  : 	push_back( pMail );

$L237684:
  0005b	8b 41 08	 mov	 eax, DWORD PTR [ecx+8]
  0005e	8d 54 24 0c	 lea	 edx, DWORD PTR _pMail$[esp+4]
  00062	52		 push	 edx
  00063	6a 01		 push	 1
  00065	50		 push	 eax
  00066	e8 00 00 00 00	 call	 ?_Insert_n@?$vector@PAVCMail@@V?$allocator@PAVCMail@@@std@@@std@@IAEXViterator@12@IABQAVCMail@@@Z ; std::vector<CMail *,std::allocator<CMail *> >::_Insert_n

; 224  : #ifdef __DBSERVER
; 225  : 	pMail->SetMailBox( this );
; 226  : 	if( m_pPost )
; 227  : 	{
; 228  : 		bool bResult	= m_pPost->m_mapMail4Proc.insert( map<u_long, CMail*>::value_type( pMail->m_nMail, pMail ) ).second;
; 229  : 		if( bResult == FALSE )
; 230  : 		{
; 231  : 			Error( "AddMail Failed - nMail : %d, idSender : %d", pMail->m_nMail, pMail->m_idSender );
; 232  : 		}
; 233  : 		else
; 234  : 		{
; 235  : // 			//	BEGINTEST
; 236  : // 			Error( "CMailBox::AddMail Sender[%d] nMail[%d]", pMail->m_idSender, pMail->m_nMail );
; 237  : 		}
; 238  : 	}
; 239  : #endif	// __DBSERVER
; 240  : 	return pMail->m_nMail;

  0006b	8b 47 04	 mov	 eax, DWORD PTR [edi+4]
  0006e	5f		 pop	 edi
  0006f	5e		 pop	 esi

; 241  : }

  00070	c2 04 00	 ret	 4
?AddMail@CMailBox@@QAEKPAVCMail@@@Z ENDP		; CMailBox::AddMail
_TEXT	ENDS
PUBLIC	??_C@_0DB@MPAFHBHH@CMailBox?3?3Read?5?9?5GetMail?5return?5@ ; `string'
PUBLIC	??_C@_0DL@PDFCGBGC@CMailBox?3?3Read?5?9?5Create?5NewMail?4@ ; `string'
PUBLIC	??_C@_0DD@KNAHADMB@CMailBox?3?3Read?5?9?5Create?5NewMail?5@ ; `string'
PUBLIC	?Read@CMailBox@@QAEXAAVCAr@@@Z			; CMailBox::Read
EXTRN	?Error@@YAPBDPBDZZ:NEAR				; Error
EXTRN	___security_cookie:DWORD
EXTRN	@__security_check_cookie@4:NEAR
;	COMDAT xdata$x
xdata$x	SEGMENT
$T238255 DD	0ffffffffH
	DD	FLAT:$L237730
$T238236 DD	019930520H
	DD	01H
	DD	FLAT:$T238255
	DD	2 DUP(00H)
	DD	2 DUP(00H)
xdata$x	ENDS
;	COMDAT ??_C@_0DB@MPAFHBHH@CMailBox?3?3Read?5?9?5GetMail?5return?5@
CONST	SEGMENT
??_C@_0DB@MPAFHBHH@CMailBox?3?3Read?5?9?5GetMail?5return?5@ DB 'CMailBox:'
	DB	':Read - GetMail return NULL. nMail : %d', 00H ; `string'
CONST	ENDS
;	COMDAT ??_C@_0DL@PDFCGBGC@CMailBox?3?3Read?5?9?5Create?5NewMail?4@
CONST	SEGMENT
??_C@_0DL@PDFCGBGC@CMailBox?3?3Read?5?9?5Create?5NewMail?4@ DB 'CMailBox:'
	DB	':Read - Create NewMail. nMail : %d, Sender : %07d', 00H ; `string'
CONST	ENDS
;	COMDAT ??_C@_0DD@KNAHADMB@CMailBox?3?3Read?5?9?5Create?5NewMail?5@
CONST	SEGMENT
??_C@_0DD@KNAHADMB@CMailBox?3?3Read?5?9?5Create?5NewMail?5@ DB 'CMailBox:'
	DB	':Read - Create NewMail Failed. nMail : %d', 00H ; `string'
; Function compile flags: /Ogty
CONST	ENDS
;	COMDAT ?Read@CMailBox@@QAEXAAVCAr@@@Z
_TEXT	SEGMENT
_nMail$226728 = -348					; size = 4
$T238233 = -344						; size = 4
tv353 = -340						; size = 4
_pNewMail$226733 = -336					; size = 4
_temp$ = -332						; size = 316
__$ArrayPad$ = -16					; size = 4
__$EHRec$ = -12						; size = 12
__$ReturnAddr$ = 4					; size = 4
_ar$ = 8						; size = 4
?Read@CMailBox@@QAEXAAVCAr@@@Z PROC NEAR		; CMailBox::Read, COMDAT
; _this$ = ecx

; 262  : {

  00000	6a ff		 push	 -1
  00002	68 00 00 00 00	 push	 __ehhandler$?Read@CMailBox@@QAEXAAVCAr@@@Z
  00007	64 a1 00 00 00
	00		 mov	 eax, DWORD PTR fs:__except_list
  0000d	50		 push	 eax
  0000e	64 89 25 00 00
	00 00		 mov	 DWORD PTR fs:__except_list, esp
  00015	81 ec 50 01 00
	00		 sub	 esp, 336		; 00000150H
  0001b	a1 00 00 00 00	 mov	 eax, DWORD PTR ___security_cookie
  00020	33 c4		 xor	 eax, esp
  00022	53		 push	 ebx
  00023	55		 push	 ebp
  00024	8b ac 24 68 01
	00 00		 mov	 ebp, DWORD PTR _ar$[esp+352]

; 263  : 	int nSize;
; 264  : 	ar >> nSize;

  0002b	8b 55 0c	 mov	 edx, DWORD PTR [ebp+12]
  0002e	89 84 24 54 01
	00 00		 mov	 DWORD PTR __$ArrayPad$[esp+356], eax
  00035	8b 45 08	 mov	 eax, DWORD PTR [ebp+8]
  00038	56		 push	 esi
  00039	8b f1		 mov	 esi, ecx
  0003b	8d 48 04	 lea	 ecx, DWORD PTR [eax+4]
  0003e	33 db		 xor	 ebx, ebx
  00040	3b ca		 cmp	 ecx, edx

; 266  : 	for( int i = 0; i < nSize; i++ )

  00042	89 74 24 10	 mov	 DWORD PTR $T238233[esp+360], esi
  00046	77 07		 ja	 SHORT $L237741
  00048	8b 00		 mov	 eax, DWORD PTR [eax]
  0004a	89 4d 08	 mov	 DWORD PTR [ebp+8], ecx
  0004d	eb 05		 jmp	 SHORT $L237742

; 263  : 	int nSize;
; 264  : 	ar >> nSize;

$L237741:
  0004f	33 c0		 xor	 eax, eax
  00051	89 55 08	 mov	 DWORD PTR [ebp+8], edx
$L237742:

; 265  : 	CMail temp;

  00054	33 c9		 xor	 ecx, ecx
  00056	c7 44 24 1c 00
	00 00 00	 mov	 DWORD PTR _temp$[esp+360], OFFSET FLAT:??_7CMail@@6B@
  0005e	89 5c 24 20	 mov	 DWORD PTR _temp$[esp+364], ebx
  00062	89 5c 24 24	 mov	 DWORD PTR _temp$[esp+368], ebx
  00066	89 4c 24 28	 mov	 DWORD PTR _temp$[esp+372], ecx
  0006a	89 5c 24 30	 mov	 DWORD PTR _temp$[esp+380], ebx
  0006e	88 5c 24 34	 mov	 BYTE PTR _temp$[esp+384], bl
  00072	88 5c 24 35	 mov	 BYTE PTR _temp$[esp+385], bl
  00076	88 5c 24 55	 mov	 BYTE PTR _temp$[esp+417], bl
  0007a	89 5c 24 2c	 mov	 DWORD PTR _temp$[esp+376], ebx

; 266  : 	for( int i = 0; i < nSize; i++ )

  0007e	3b c3		 cmp	 eax, ebx
  00080	89 9c 24 64 01
	00 00		 mov	 DWORD PTR __$EHRec$[esp+368], ebx
  00087	0f 8e 6a 01 00
	00		 jle	 $L226727
  0008d	57		 push	 edi
  0008e	89 44 24 18	 mov	 DWORD PTR tv353[esp+364], eax
$L226725:

; 267  : 	{
; 268  : 		u_long nMail;
; 269  : 		ar >> nMail;

  00092	8b 45 08	 mov	 eax, DWORD PTR [ebp+8]
  00095	8b 55 0c	 mov	 edx, DWORD PTR [ebp+12]
  00098	8d 48 04	 lea	 ecx, DWORD PTR [eax+4]
  0009b	3b ca		 cmp	 ecx, edx
  0009d	77 0b		 ja	 SHORT $L237750
  0009f	8b 38		 mov	 edi, DWORD PTR [eax]
  000a1	89 7c 24 10	 mov	 DWORD PTR _nMail$226728[esp+364], edi
  000a5	89 4d 08	 mov	 DWORD PTR [ebp+8], ecx
  000a8	eb 09		 jmp	 SHORT $L237751
$L237750:
  000aa	89 5c 24 10	 mov	 DWORD PTR _nMail$226728[esp+364], ebx
  000ae	89 55 08	 mov	 DWORD PTR [ebp+8], edx
  000b1	8b fb		 mov	 edi, ebx
$L237751:

; 270  : 		CMail* pMail	= GetMail( nMail );

  000b3	8b 46 08	 mov	 eax, DWORD PTR [esi+8]
  000b6	8b 56 0c	 mov	 edx, DWORD PTR [esi+12]
  000b9	3b c2		 cmp	 eax, edx
  000bb	74 35		 je	 SHORT $L238248
  000bd	8d 49 00	 npad	 3
$L237881:
  000c0	8b 08		 mov	 ecx, DWORD PTR [eax]
  000c2	39 79 04	 cmp	 DWORD PTR [ecx+4], edi
  000c5	74 0a		 je	 SHORT $L238240
  000c7	8b 4e 0c	 mov	 ecx, DWORD PTR [esi+12]
  000ca	83 c0 04	 add	 eax, 4
  000cd	3b c1		 cmp	 eax, ecx
  000cf	75 ef		 jne	 SHORT $L237881
$L238240:
  000d1	3b c2		 cmp	 eax, edx
  000d3	74 1d		 je	 SHORT $L238248
  000d5	8b 30		 mov	 esi, DWORD PTR [eax]

; 271  : 		if( pMail )

  000d7	3b f3		 cmp	 esi, ebx
  000d9	74 17		 je	 SHORT $L238248

; 272  : 		{
; 273  : // 			//	BEGINTEST
; 274  : // 			Error( "CMailBox::Read " );
; 275  : 
; 276  : 			pMail->Clear();

  000db	8b 4e 0c	 mov	 ecx, DWORD PTR [esi+12]
  000de	3b cb		 cmp	 ecx, ebx
  000e0	74 09		 je	 SHORT $L238244
  000e2	8b 01		 mov	 eax, DWORD PTR [ecx]
  000e4	6a 01		 push	 1
  000e6	ff 10		 call	 DWORD PTR [eax]
  000e8	89 5e 0c	 mov	 DWORD PTR [esi+12], ebx
$L238244:

; 277  : 			pMail->Serialize( ar, TRUE );

  000eb	8b ce		 mov	 ecx, esi

; 278  : 		}
; 279  : 		else

  000ed	e9 e5 00 00 00	 jmp	 $L238254
$L238248:

; 280  : 		{
; 281  : 
; 282  : // 			//	BEGINTEST
; 283  : // 			Error( "CMailBox::Read pMail == NULL" );
; 284  : 
; 285  : 			// mail not found
; 286  : 			Error( "CMailBox::Read - GetMail return NULL. nMail : %d", nMail );

  000f2	57		 push	 edi
  000f3	68 00 00 00 00	 push	 OFFSET FLAT:??_C@_0DB@MPAFHBHH@CMailBox?3?3Read?5?9?5GetMail?5return?5@
  000f8	e8 00 00 00 00	 call	 ?Error@@YAPBDPBDZZ	; Error

; 287  : 			//temp.Clear();
; 288  : 			//temp.Serialize( ar, TRUE );
; 289  : 			CMail* pNewMail = new CMail;

  000fd	68 3c 01 00 00	 push	 316			; 0000013cH
  00102	e8 00 00 00 00	 call	 ??2@YAPAXI@Z		; operator new
  00107	83 c4 0c	 add	 esp, 12			; 0000000cH
  0010a	3b c3		 cmp	 eax, ebx
  0010c	74 22		 je	 SHORT $L237728
  0010e	c7 00 00 00 00
	00		 mov	 DWORD PTR [eax], OFFSET FLAT:??_7CMail@@6B@
  00114	89 58 04	 mov	 DWORD PTR [eax+4], ebx
  00117	89 58 08	 mov	 DWORD PTR [eax+8], ebx
  0011a	89 58 0c	 mov	 DWORD PTR [eax+12], ebx
  0011d	89 58 14	 mov	 DWORD PTR [eax+20], ebx
  00120	88 58 18	 mov	 BYTE PTR [eax+24], bl
  00123	88 58 19	 mov	 BYTE PTR [eax+25], bl
  00126	88 58 39	 mov	 BYTE PTR [eax+57], bl
  00129	89 58 10	 mov	 DWORD PTR [eax+16], ebx
  0012c	8b f0		 mov	 esi, eax
  0012e	eb 02		 jmp	 SHORT $L237729
$L237728:
  00130	33 f6		 xor	 esi, esi
$L237729:

; 290  : 			if( pNewMail != NULL )

  00132	3b f3		 cmp	 esi, ebx
  00134	89 74 24 1c	 mov	 DWORD PTR _pNewMail$226733[esp+364], esi
  00138	74 79		 je	 SHORT $L226738

; 291  : 			{
; 292  : 				pNewMail->Clear();

  0013a	8b 4e 0c	 mov	 ecx, DWORD PTR [esi+12]
  0013d	3b cb		 cmp	 ecx, ebx
  0013f	74 09		 je	 SHORT $L238245
  00141	8b 11		 mov	 edx, DWORD PTR [ecx]
  00143	6a 01		 push	 1
  00145	ff 12		 call	 DWORD PTR [edx]
  00147	89 5e 0c	 mov	 DWORD PTR [esi+12], ebx
$L238245:

; 293  : 				pNewMail->Serialize( ar, TRUE );

  0014a	6a 01		 push	 1
  0014c	55		 push	 ebp
  0014d	8b ce		 mov	 ecx, esi
  0014f	e8 00 00 00 00	 call	 ?Serialize@CMail@@QAEXAAVCAr@@H@Z ; CMail::Serialize

; 294  : 				push_back( pNewMail );

  00154	8b 4c 24 14	 mov	 ecx, DWORD PTR $T238233[esp+364]
  00158	8b 41 08	 mov	 eax, DWORD PTR [ecx+8]
  0015b	83 c1 04	 add	 ecx, 4
  0015e	3b c3		 cmp	 eax, ebx
  00160	75 04		 jne	 SHORT $L238134
  00162	33 ff		 xor	 edi, edi
  00164	eb 08		 jmp	 SHORT $L238135
$L238134:
  00166	8b 79 08	 mov	 edi, DWORD PTR [ecx+8]
  00169	2b f8		 sub	 edi, eax
  0016b	c1 ff 02	 sar	 edi, 2
$L238135:
  0016e	3b c3		 cmp	 eax, ebx
  00170	74 19		 je	 SHORT $L238196
  00172	8b 51 0c	 mov	 edx, DWORD PTR [ecx+12]
  00175	2b d0		 sub	 edx, eax
  00177	c1 fa 02	 sar	 edx, 2
  0017a	3b fa		 cmp	 edi, edx
  0017c	73 0d		 jae	 SHORT $L238196
  0017e	8b 41 08	 mov	 eax, DWORD PTR [ecx+8]
  00181	89 30		 mov	 DWORD PTR [eax], esi
  00183	83 c0 04	 add	 eax, 4
  00186	89 41 08	 mov	 DWORD PTR [ecx+8], eax
  00189	eb 10		 jmp	 SHORT $L238190
$L238196:
  0018b	8b 41 08	 mov	 eax, DWORD PTR [ecx+8]
  0018e	8d 54 24 1c	 lea	 edx, DWORD PTR _pNewMail$226733[esp+364]
  00192	52		 push	 edx
  00193	6a 01		 push	 1
  00195	50		 push	 eax
  00196	e8 00 00 00 00	 call	 ?_Insert_n@?$vector@PAVCMail@@V?$allocator@PAVCMail@@@std@@@std@@IAEXViterator@12@IABQAVCMail@@@Z ; std::vector<CMail *,std::allocator<CMail *> >::_Insert_n
$L238190:

; 295  : 				Error( "CMailBox::Read - Create NewMail. nMail : %d, Sender : %07d", nMail, pNewMail->m_idSender );

  0019b	8b 46 08	 mov	 eax, DWORD PTR [esi+8]
  0019e	8b 4c 24 10	 mov	 ecx, DWORD PTR _nMail$226728[esp+364]
  001a2	50		 push	 eax
  001a3	51		 push	 ecx
  001a4	68 00 00 00 00	 push	 OFFSET FLAT:??_C@_0DL@PDFCGBGC@CMailBox?3?3Read?5?9?5Create?5NewMail?4@
  001a9	e8 00 00 00 00	 call	 ?Error@@YAPBDPBDZZ	; Error
  001ae	83 c4 0c	 add	 esp, 12			; 0000000cH

; 296  : 			}
; 297  : 			else

  001b1	eb 2c		 jmp	 SHORT $L226726
$L226738:

; 298  : 			{
; 299  : 				Error( "CMailBox::Read - Create NewMail Failed. nMail : %d", nMail );

  001b3	57		 push	 edi
  001b4	68 00 00 00 00	 push	 OFFSET FLAT:??_C@_0DD@KNAHADMB@CMailBox?3?3Read?5?9?5Create?5NewMail?5@
  001b9	e8 00 00 00 00	 call	 ?Error@@YAPBDPBDZZ	; Error

; 300  : 				temp.Clear();

  001be	8b 4c 24 34	 mov	 ecx, DWORD PTR _temp$[esp+384]
  001c2	83 c4 08	 add	 esp, 8
  001c5	3b cb		 cmp	 ecx, ebx
  001c7	74 0a		 je	 SHORT $L238246
  001c9	8b 11		 mov	 edx, DWORD PTR [ecx]
  001cb	6a 01		 push	 1
  001cd	ff 12		 call	 DWORD PTR [edx]
  001cf	89 5c 24 2c	 mov	 DWORD PTR _temp$[esp+376], ebx
$L238246:

; 301  : 				temp.Serialize( ar, TRUE );

  001d3	8d 4c 24 20	 lea	 ecx, DWORD PTR _temp$[esp+364]
$L238254:
  001d7	6a 01		 push	 1
  001d9	55		 push	 ebp
  001da	e8 00 00 00 00	 call	 ?Serialize@CMail@@QAEXAAVCAr@@H@Z ; CMail::Serialize
$L226726:
  001df	8b 44 24 18	 mov	 eax, DWORD PTR tv353[esp+364]
  001e3	8b 74 24 14	 mov	 esi, DWORD PTR $T238233[esp+364]
  001e7	48		 dec	 eax
  001e8	89 44 24 18	 mov	 DWORD PTR tv353[esp+364], eax
  001ec	0f 85 a0 fe ff
	ff		 jne	 $L226725
  001f2	8b 4c 24 2c	 mov	 ecx, DWORD PTR _temp$[esp+376]
  001f6	5f		 pop	 edi
$L226727:

; 302  : 			}
; 303  : 		}
; 304  : 	}
; 305  : 	m_nStatus	= CMailBox::data;

  001f7	c7 46 18 02 00
	00 00		 mov	 DWORD PTR [esi+24], 2
  001fe	5e		 pop	 esi
  001ff	5d		 pop	 ebp

; 306  : }

  00200	3b cb		 cmp	 ecx, ebx
  00202	c7 84 24 5c 01
	00 00 ff ff ff
	ff		 mov	 DWORD PTR __$EHRec$[esp+360], -1
  0020d	c7 44 24 14 00
	00 00 00	 mov	 DWORD PTR _temp$[esp+352], OFFSET FLAT:??_7CMail@@6B@
  00215	5b		 pop	 ebx
  00216	74 06		 je	 SHORT $L238231
  00218	8b 01		 mov	 eax, DWORD PTR [ecx]
  0021a	6a 01		 push	 1
  0021c	ff 10		 call	 DWORD PTR [eax]
$L238231:
  0021e	8b 8c 24 50 01
	00 00		 mov	 ecx, DWORD PTR __$EHRec$[esp+348]
  00225	64 89 0d 00 00
	00 00		 mov	 DWORD PTR fs:__except_list, ecx
  0022c	8b 8c 24 4c 01
	00 00		 mov	 ecx, DWORD PTR __$ArrayPad$[esp+348]
  00233	33 cc		 xor	 ecx, esp
  00235	e8 00 00 00 00	 call	 @__security_check_cookie@4
  0023a	81 c4 5c 01 00
	00		 add	 esp, 348		; 0000015cH
  00240	c2 04 00	 ret	 4
_TEXT	ENDS
;	COMDAT text$x
text$x	SEGMENT
$L237730:
  00000	8d 8d b4 fe ff
	ff		 lea	 ecx, DWORD PTR _temp$[ebp]
  00006	e9 00 00 00 00	 jmp	 ??1CMail@@UAE@XZ	; CMail::~CMail
__ehhandler$?Read@CMailBox@@QAEXAAVCAr@@@Z:
  0000b	b8 00 00 00 00	 mov	 eax, OFFSET FLAT:$T238236
  00010	e9 00 00 00 00	 jmp	 ___CxxFrameHandler
text$x	ENDS
?Read@CMailBox@@QAEXAAVCAr@@@Z ENDP			; CMailBox::Read
PUBLIC	??_C@_0CL@MFDDDHOF@CMailBox?3?3ReadReq?5?9?5Mail?5Exist?4?5@ ; `string'
PUBLIC	??_C@_0CL@NLKIBIJJ@CMailBox?3?3ReadReq?5?9?5New?5Failed?4?5@ ; `string'
PUBLIC	?ReadReq@CMailBox@@QAEXAAVCAr@@@Z		; CMailBox::ReadReq
;	COMDAT xdata$x
xdata$x	SEGMENT
$T238787 DD	0ffffffffH
	DD	FLAT:$L238267
$T238772 DD	019930520H
	DD	01H
	DD	FLAT:$T238787
	DD	2 DUP(00H)
	DD	2 DUP(00H)
xdata$x	ENDS
;	COMDAT ??_C@_0CL@MFDDDHOF@CMailBox?3?3ReadReq?5?9?5Mail?5Exist?4?5@
CONST	SEGMENT
??_C@_0CL@MFDDDHOF@CMailBox?3?3ReadReq?5?9?5Mail?5Exist?4?5@ DB 'CMailBox'
	DB	'::ReadReq - Mail Exist. nMail : %d', 00H	; `string'
CONST	ENDS
;	COMDAT ??_C@_0CL@NLKIBIJJ@CMailBox?3?3ReadReq?5?9?5New?5Failed?4?5@
CONST	SEGMENT
??_C@_0CL@NLKIBIJJ@CMailBox?3?3ReadReq?5?9?5New?5Failed?4?5@ DB 'CMailBox'
	DB	'::ReadReq - New Failed. nMail : %d', 00H	; `string'
; Function compile flags: /Ogty
CONST	ENDS
;	COMDAT ?ReadReq@CMailBox@@QAEXAAVCAr@@@Z
_TEXT	SEGMENT
$T238769 = -344						; size = 4
tv358 = -340						; size = 4
_pNewMail$226756 = -336					; size = 4
_temp$226764 = -332					; size = 316
__$ArrayPad$ = -16					; size = 4
__$EHRec$ = -12						; size = 12
__$ReturnAddr$ = 4					; size = 4
_ar$ = 8						; size = 4
?ReadReq@CMailBox@@QAEXAAVCAr@@@Z PROC NEAR		; CMailBox::ReadReq, COMDAT
; _this$ = ecx

; 309  : {

  00000	6a ff		 push	 -1
  00002	68 00 00 00 00	 push	 __ehhandler$?ReadReq@CMailBox@@QAEXAAVCAr@@@Z
  00007	64 a1 00 00 00
	00		 mov	 eax, DWORD PTR fs:__except_list
  0000d	50		 push	 eax
  0000e	64 89 25 00 00
	00 00		 mov	 DWORD PTR fs:__except_list, esp
  00015	81 ec 4c 01 00
	00		 sub	 esp, 332		; 0000014cH
  0001b	a1 00 00 00 00	 mov	 eax, DWORD PTR ___security_cookie
  00020	33 c4		 xor	 eax, esp
  00022	53		 push	 ebx
  00023	55		 push	 ebp
  00024	8b ac 24 64 01
	00 00		 mov	 ebp, DWORD PTR _ar$[esp+348]

; 310  : 	int nSize;
; 311  : 	ar >> nSize;

  0002b	8b 55 0c	 mov	 edx, DWORD PTR [ebp+12]
  0002e	89 84 24 50 01
	00 00		 mov	 DWORD PTR __$ArrayPad$[esp+352], eax
  00035	8b 45 08	 mov	 eax, DWORD PTR [ebp+8]
  00038	56		 push	 esi
  00039	8b f1		 mov	 esi, ecx
  0003b	8d 48 04	 lea	 ecx, DWORD PTR [eax+4]
  0003e	33 db		 xor	 ebx, ebx
  00040	3b ca		 cmp	 ecx, edx

; 312  : 
; 313  : 	for( int i = 0; i < nSize; i++ )

  00042	89 74 24 0c	 mov	 DWORD PTR $T238769[esp+356], esi
  00046	77 07		 ja	 SHORT $L238277
  00048	8b 00		 mov	 eax, DWORD PTR [eax]
  0004a	89 4d 08	 mov	 DWORD PTR [ebp+8], ecx
  0004d	eb 05		 jmp	 SHORT $L238279

; 310  : 	int nSize;
; 311  : 	ar >> nSize;

$L238277:
  0004f	33 c0		 xor	 eax, eax
  00051	89 55 08	 mov	 DWORD PTR [ebp+8], edx
$L238279:

; 312  : 
; 313  : 	for( int i = 0; i < nSize; i++ )

  00054	3b c3		 cmp	 eax, ebx
  00056	0f 8e 9f 01 00
	00		 jle	 $L238780
  0005c	57		 push	 edi
  0005d	89 44 24 14	 mov	 DWORD PTR tv358[esp+360], eax
  00061	eb 04		 jmp	 SHORT $L226748
$L238781:
  00063	8b 74 24 10	 mov	 esi, DWORD PTR $T238769[esp+360]
$L226748:

; 314  : 	{
; 315  : 		u_long nMail;
; 316  : 		ar >> nMail;

  00067	8b 45 08	 mov	 eax, DWORD PTR [ebp+8]
  0006a	8b 55 0c	 mov	 edx, DWORD PTR [ebp+12]
  0006d	8d 48 04	 lea	 ecx, DWORD PTR [eax+4]
  00070	3b ca		 cmp	 ecx, edx
  00072	77 07		 ja	 SHORT $L238282
  00074	8b 38		 mov	 edi, DWORD PTR [eax]
  00076	89 4d 08	 mov	 DWORD PTR [ebp+8], ecx
  00079	eb 05		 jmp	 SHORT $L238283
$L238282:
  0007b	33 ff		 xor	 edi, edi
  0007d	89 55 08	 mov	 DWORD PTR [ebp+8], edx
$L238283:

; 317  : 
; 318  : 		CMail* pMail	= GetMail( nMail );

  00080	8b 46 08	 mov	 eax, DWORD PTR [esi+8]
  00083	8b 56 0c	 mov	 edx, DWORD PTR [esi+12]
  00086	3b c2		 cmp	 eax, edx
  00088	74 4e		 je	 SHORT $L226753
  0008a	8d 9b 00 00 00
	00		 npad	 6
$L238424:
  00090	8b 08		 mov	 ecx, DWORD PTR [eax]
  00092	39 79 04	 cmp	 DWORD PTR [ecx+4], edi
  00095	74 0a		 je	 SHORT $L238776
  00097	8b 4e 0c	 mov	 ecx, DWORD PTR [esi+12]
  0009a	83 c0 04	 add	 eax, 4
  0009d	3b c1		 cmp	 eax, ecx
  0009f	75 ef		 jne	 SHORT $L238424
$L238776:
  000a1	3b c2		 cmp	 eax, edx
  000a3	74 33		 je	 SHORT $L226753
  000a5	8b 30		 mov	 esi, DWORD PTR [eax]

; 319  : 
; 320  : 		if( pMail != NULL )

  000a7	3b f3		 cmp	 esi, ebx
  000a9	74 2d		 je	 SHORT $L226753

; 321  : 		{
; 322  : 			Error( "CMailBox::ReadReq - Mail Exist. nMail : %d", nMail );

  000ab	57		 push	 edi
  000ac	68 00 00 00 00	 push	 OFFSET FLAT:??_C@_0CL@MFDDDHOF@CMailBox?3?3ReadReq?5?9?5Mail?5Exist?4?5@
  000b1	e8 00 00 00 00	 call	 ?Error@@YAPBDPBDZZ	; Error

; 323  : 			pMail->Clear();

  000b6	8b 4e 0c	 mov	 ecx, DWORD PTR [esi+12]
  000b9	83 c4 08	 add	 esp, 8
  000bc	3b cb		 cmp	 ecx, ebx
  000be	74 09		 je	 SHORT $L238782
  000c0	8b 01		 mov	 eax, DWORD PTR [ecx]
  000c2	6a 01		 push	 1
  000c4	ff 10		 call	 DWORD PTR [eax]
  000c6	89 5e 0c	 mov	 DWORD PTR [esi+12], ebx
$L238782:

; 324  : 			pMail->Serialize( ar, TRUE );

  000c9	6a 01		 push	 1
  000cb	55		 push	 ebp
  000cc	8b ce		 mov	 ecx, esi
  000ce	e8 00 00 00 00	 call	 ?Serialize@CMail@@QAEXAAVCAr@@H@Z ; CMail::Serialize

; 325  : 		}
; 326  : 		else

  000d3	e9 0b 01 00 00	 jmp	 $L226749
$L226753:

; 327  : 		{
; 328  : 			CMail* pNewMail = new CMail;

  000d8	68 3c 01 00 00	 push	 316			; 0000013cH
  000dd	e8 00 00 00 00	 call	 ??2@YAPAXI@Z		; operator new
  000e2	83 c4 04	 add	 esp, 4
  000e5	3b c3		 cmp	 eax, ebx
  000e7	74 22		 je	 SHORT $L238264
  000e9	c7 00 00 00 00
	00		 mov	 DWORD PTR [eax], OFFSET FLAT:??_7CMail@@6B@
  000ef	89 58 04	 mov	 DWORD PTR [eax+4], ebx
  000f2	89 58 08	 mov	 DWORD PTR [eax+8], ebx
  000f5	89 58 0c	 mov	 DWORD PTR [eax+12], ebx
  000f8	89 58 14	 mov	 DWORD PTR [eax+20], ebx
  000fb	88 58 18	 mov	 BYTE PTR [eax+24], bl
  000fe	88 58 19	 mov	 BYTE PTR [eax+25], bl
  00101	88 58 39	 mov	 BYTE PTR [eax+57], bl
  00104	89 58 10	 mov	 DWORD PTR [eax+16], ebx
  00107	8b f0		 mov	 esi, eax
  00109	eb 02		 jmp	 SHORT $L238265
$L238264:
  0010b	33 f6		 xor	 esi, esi
$L238265:

; 329  : 			if( pNewMail != NULL )

  0010d	3b f3		 cmp	 esi, ebx
  0010f	89 74 24 18	 mov	 DWORD PTR _pNewMail$226756[esp+360], esi
  00113	74 63		 je	 SHORT $L226761

; 330  : 			{
; 331  : 				pNewMail->Clear();

  00115	8b 4e 0c	 mov	 ecx, DWORD PTR [esi+12]
  00118	3b cb		 cmp	 ecx, ebx
  0011a	74 09		 je	 SHORT $L238783
  0011c	8b 11		 mov	 edx, DWORD PTR [ecx]
  0011e	6a 01		 push	 1
  00120	ff 12		 call	 DWORD PTR [edx]
  00122	89 5e 0c	 mov	 DWORD PTR [esi+12], ebx
$L238783:

; 332  : 				pNewMail->Serialize( ar, TRUE );

  00125	6a 01		 push	 1
  00127	55		 push	 ebp
  00128	8b ce		 mov	 ecx, esi
  0012a	e8 00 00 00 00	 call	 ?Serialize@CMail@@QAEXAAVCAr@@H@Z ; CMail::Serialize

; 333  : 				push_back( pNewMail );

  0012f	8b 4c 24 10	 mov	 ecx, DWORD PTR $T238769[esp+360]
  00133	8b 41 08	 mov	 eax, DWORD PTR [ecx+8]
  00136	83 c1 04	 add	 ecx, 4
  00139	3b c3		 cmp	 eax, ebx
  0013b	75 04		 jne	 SHORT $L238704
  0013d	33 ff		 xor	 edi, edi
  0013f	eb 08		 jmp	 SHORT $L238705
$L238704:
  00141	8b 79 08	 mov	 edi, DWORD PTR [ecx+8]
  00144	2b f8		 sub	 edi, eax
  00146	c1 ff 02	 sar	 edi, 2
$L238705:
  00149	3b c3		 cmp	 eax, ebx
  0014b	74 19		 je	 SHORT $L238697
  0014d	8b 51 0c	 mov	 edx, DWORD PTR [ecx+12]
  00150	2b d0		 sub	 edx, eax
  00152	c1 fa 02	 sar	 edx, 2
  00155	3b fa		 cmp	 edi, edx
  00157	73 0d		 jae	 SHORT $L238697
  00159	8b 41 08	 mov	 eax, DWORD PTR [ecx+8]
  0015c	89 30		 mov	 DWORD PTR [eax], esi
  0015e	83 c0 04	 add	 eax, 4
  00161	89 41 08	 mov	 DWORD PTR [ecx+8], eax
  00164	eb 7d		 jmp	 SHORT $L226749
$L238697:
  00166	8b 41 08	 mov	 eax, DWORD PTR [ecx+8]
  00169	8d 54 24 18	 lea	 edx, DWORD PTR _pNewMail$226756[esp+360]
  0016d	52		 push	 edx
  0016e	6a 01		 push	 1
  00170	50		 push	 eax
  00171	e8 00 00 00 00	 call	 ?_Insert_n@?$vector@PAVCMail@@V?$allocator@PAVCMail@@@std@@@std@@IAEXViterator@12@IABQAVCMail@@@Z ; std::vector<CMail *,std::allocator<CMail *> >::_Insert_n

; 334  : 			}
; 335  : 			else

  00176	eb 6b		 jmp	 SHORT $L226749
$L226761:

; 336  : 			{
; 337  : 				Error( "CMailBox::ReadReq - New Failed. nMail : %d", nMail );

  00178	57		 push	 edi
  00179	68 00 00 00 00	 push	 OFFSET FLAT:??_C@_0CL@NLKIBIJJ@CMailBox?3?3ReadReq?5?9?5New?5Failed?4?5@
  0017e	e8 00 00 00 00	 call	 ?Error@@YAPBDPBDZZ	; Error

; 338  : 				CMail temp;

  00183	be 00 00 00 00	 mov	 esi, OFFSET FLAT:??_7CMail@@6B@
  00188	83 c4 08	 add	 esp, 8
  0018b	89 74 24 1c	 mov	 DWORD PTR _temp$226764[esp+360], esi
  0018f	89 5c 24 20	 mov	 DWORD PTR _temp$226764[esp+364], ebx
  00193	89 5c 24 24	 mov	 DWORD PTR _temp$226764[esp+368], ebx
  00197	89 5c 24 28	 mov	 DWORD PTR _temp$226764[esp+372], ebx
  0019b	89 5c 24 30	 mov	 DWORD PTR _temp$226764[esp+380], ebx
  0019f	88 5c 24 34	 mov	 BYTE PTR _temp$226764[esp+384], bl
  001a3	88 5c 24 35	 mov	 BYTE PTR _temp$226764[esp+385], bl
  001a7	88 5c 24 55	 mov	 BYTE PTR _temp$226764[esp+417], bl
  001ab	89 5c 24 2c	 mov	 DWORD PTR _temp$226764[esp+376], ebx

; 339  : 				temp.Clear();
; 340  : 				temp.Serialize( ar, TRUE );

  001af	6a 01		 push	 1
  001b1	55		 push	 ebp
  001b2	8d 4c 24 24	 lea	 ecx, DWORD PTR _temp$226764[esp+368]
  001b6	89 9c 24 6c 01
	00 00		 mov	 DWORD PTR __$EHRec$[esp+376], ebx
  001bd	e8 00 00 00 00	 call	 ?Serialize@CMail@@QAEXAAVCAr@@H@Z ; CMail::Serialize

; 341  : 			}

  001c2	8b 4c 24 28	 mov	 ecx, DWORD PTR _temp$226764[esp+372]
  001c6	3b cb		 cmp	 ecx, ebx
  001c8	c7 84 24 64 01
	00 00 ff ff ff
	ff		 mov	 DWORD PTR __$EHRec$[esp+368], -1
  001d3	89 74 24 1c	 mov	 DWORD PTR _temp$226764[esp+360], esi
  001d7	74 0a		 je	 SHORT $L226749
  001d9	8b 01		 mov	 eax, DWORD PTR [ecx]
  001db	6a 01		 push	 1
  001dd	ff 10		 call	 DWORD PTR [eax]
  001df	89 5c 24 28	 mov	 DWORD PTR _temp$226764[esp+372], ebx
$L226749:
  001e3	ff 4c 24 14	 dec	 DWORD PTR tv358[esp+360]
  001e7	0f 85 76 fe ff
	ff		 jne	 $L238781

; 342  : 		}
; 343  : 	}
; 344  : 	m_nStatus	= CMailBox::data;

  001ed	8b 4c 24 10	 mov	 ecx, DWORD PTR $T238769[esp+360]
  001f1	c7 41 18 02 00
	00 00		 mov	 DWORD PTR [ecx+24], 2
  001f8	5f		 pop	 edi
  001f9	eb 07		 jmp	 SHORT $L226750
$L238780:
  001fb	c7 46 18 02 00
	00 00		 mov	 DWORD PTR [esi+24], 2
$L226750:

; 345  : }

  00202	8b 8c 24 58 01
	00 00		 mov	 ecx, DWORD PTR __$EHRec$[esp+356]
  00209	5e		 pop	 esi
  0020a	5d		 pop	 ebp
  0020b	64 89 0d 00 00
	00 00		 mov	 DWORD PTR fs:__except_list, ecx
  00212	8b 8c 24 4c 01
	00 00		 mov	 ecx, DWORD PTR __$ArrayPad$[esp+348]
  00219	5b		 pop	 ebx
  0021a	33 cc		 xor	 ecx, esp
  0021c	e8 00 00 00 00	 call	 @__security_check_cookie@4
  00221	81 c4 58 01 00
	00		 add	 esp, 344		; 00000158H
  00227	c2 04 00	 ret	 4
_TEXT	ENDS
;	COMDAT text$x
text$x	SEGMENT
$L238267:
  00000	8d 8d b4 fe ff
	ff		 lea	 ecx, DWORD PTR _temp$226764[ebp]
  00006	e9 00 00 00 00	 jmp	 ??1CMail@@UAE@XZ	; CMail::~CMail
__ehhandler$?ReadReq@CMailBox@@QAEXAAVCAr@@@Z:
  0000b	b8 00 00 00 00	 mov	 eax, OFFSET FLAT:$T238772
  00010	e9 00 00 00 00	 jmp	 ___CxxFrameHandler
text$x	ENDS
?ReadReq@CMailBox@@QAEXAAVCAr@@@Z ENDP			; CMailBox::ReadReq
PUBLIC	?Serialize@CMailBox@@QAEXAAVCAr@@H@Z		; CMailBox::Serialize
; Function compile flags: /Ogty
;	COMDAT ?Serialize@CMailBox@@QAEXAAVCAr@@H@Z
_TEXT	SEGMENT
tv221 = 8						; size = 4
_ar$ = 8						; size = 4
_bData$ = 12						; size = 4
?Serialize@CMailBox@@QAEXAAVCAr@@H@Z PROC NEAR		; CMailBox::Serialize, COMDAT
; _this$ = ecx

; 349  : {

  00000	53		 push	 ebx
  00001	55		 push	 ebp
  00002	56		 push	 esi

; 350  : 	if( ar.IsStoring() )

  00003	8b 74 24 10	 mov	 esi, DWORD PTR _ar$[esp+8]
  00007	33 c0		 xor	 eax, eax
  00009	8a 06		 mov	 al, BYTE PTR [esi]
  0000b	57		 push	 edi
  0000c	8b e9		 mov	 ebp, ecx
  0000e	f7 d0		 not	 eax
  00010	a8 01		 test	 al, 1
  00012	74 66		 je	 SHORT $L226770

; 351  : 	{
; 352  : 		ar << m_idReceiver;

  00014	8b 5d 14	 mov	 ebx, DWORD PTR [ebp+20]
  00017	bf 04 00 00 00	 mov	 edi, 4
  0001c	57		 push	 edi
  0001d	8b ce		 mov	 ecx, esi
  0001f	e8 00 00 00 00	 call	 ?CheckBuf@CAr@@QAEXI@Z	; CAr::CheckBuf
  00024	8b 4e 08	 mov	 ecx, DWORD PTR [esi+8]
  00027	89 19		 mov	 DWORD PTR [ecx], ebx
  00029	01 7e 08	 add	 DWORD PTR [esi+8], edi

; 353  : 		ar << (int)size();

  0002c	8b 45 08	 mov	 eax, DWORD PTR [ebp+8]
  0002f	33 db		 xor	 ebx, ebx
  00031	3b c3		 cmp	 eax, ebx
  00033	74 08		 je	 SHORT $L238811
  00035	8b 5d 0c	 mov	 ebx, DWORD PTR [ebp+12]
  00038	2b d8		 sub	 ebx, eax
  0003a	c1 fb 02	 sar	 ebx, 2
$L238811:
  0003d	57		 push	 edi
  0003e	8b ce		 mov	 ecx, esi
  00040	e8 00 00 00 00	 call	 ?CheckBuf@CAr@@QAEXI@Z	; CAr::CheckBuf
  00045	8b 56 08	 mov	 edx, DWORD PTR [esi+8]
  00048	89 1a		 mov	 DWORD PTR [edx], ebx
  0004a	01 7e 08	 add	 DWORD PTR [esi+8], edi

; 354  : 		for( MailVectorItr i = begin(); i != end(); ++i )

  0004d	8b 7d 08	 mov	 edi, DWORD PTR [ebp+8]
  00050	3b 7d 0c	 cmp	 edi, DWORD PTR [ebp+12]
  00053	0f 84 bb 00 00
	00		 je	 $L226784
  00059	8b 5c 24 18	 mov	 ebx, DWORD PTR _bData$[esp+12]
  0005d	8d 49 00	 npad	 3
$L238841:

; 355  : 		{
; 356  : 			CMail* pMail	= *i;
; 357  : 			pMail->Serialize( ar, bData );

  00060	8b 0f		 mov	 ecx, DWORD PTR [edi]
  00062	53		 push	 ebx
  00063	56		 push	 esi
  00064	e8 00 00 00 00	 call	 ?Serialize@CMail@@QAEXAAVCAr@@H@Z ; CMail::Serialize
  00069	8b 45 0c	 mov	 eax, DWORD PTR [ebp+12]
  0006c	83 c7 04	 add	 edi, 4
  0006f	3b f8		 cmp	 edi, eax
  00071	75 ed		 jne	 SHORT $L238841
  00073	5f		 pop	 edi
  00074	5e		 pop	 esi
  00075	5d		 pop	 ebp
  00076	5b		 pop	 ebx

; 380  : 		}
; 381  : 	}
; 382  : }

  00077	c2 08 00	 ret	 8
$L226770:

; 358  : 		}
; 359  : 	}
; 360  : 	else
; 361  : 	{
; 362  : 		Clear();

  0007a	8b cd		 mov	 ecx, ebp
  0007c	e8 00 00 00 00	 call	 ?Clear@CMailBox@@QAEXXZ	; CMailBox::Clear

; 363  : 		ar >> m_idReceiver;

  00081	8b 46 08	 mov	 eax, DWORD PTR [esi+8]
  00084	8b 56 0c	 mov	 edx, DWORD PTR [esi+12]
  00087	8d 48 04	 lea	 ecx, DWORD PTR [eax+4]
  0008a	33 db		 xor	 ebx, ebx
  0008c	3b ca		 cmp	 ecx, edx
  0008e	77 0d		 ja	 SHORT $L238877
  00090	8b 10		 mov	 edx, DWORD PTR [eax]
  00092	89 55 14	 mov	 DWORD PTR [ebp+20], edx
  00095	8b 46 08	 mov	 eax, DWORD PTR [esi+8]
  00098	83 c0 04	 add	 eax, 4
  0009b	eb 06		 jmp	 SHORT $L238899
$L238877:
  0009d	89 5d 14	 mov	 DWORD PTR [ebp+20], ebx
  000a0	8b 46 0c	 mov	 eax, DWORD PTR [esi+12]
$L238899:

; 364  : 		int nSize;
; 365  : 		ar >> nSize;

  000a3	8b 56 0c	 mov	 edx, DWORD PTR [esi+12]
  000a6	8d 48 04	 lea	 ecx, DWORD PTR [eax+4]
  000a9	3b ca		 cmp	 ecx, edx
  000ab	89 46 08	 mov	 DWORD PTR [esi+8], eax
  000ae	77 07		 ja	 SHORT $L238889
  000b0	8b 00		 mov	 eax, DWORD PTR [eax]
  000b2	89 4e 08	 mov	 DWORD PTR [esi+8], ecx
  000b5	eb 05		 jmp	 SHORT $L238890
$L238889:
  000b7	33 c0		 xor	 eax, eax
  000b9	89 56 08	 mov	 DWORD PTR [esi+8], edx
$L238890:

; 366  : 
; 367  : #ifdef __MAIL_REQUESTING_BOX
; 368  : 		if( g_WndMng.m_bWaitRequestMail && nSize <= 0 )
; 369  : 			g_DPlay.SendQueryMailBox();
; 370  : #endif //__MAIL_REQUESTING_BOX
; 371  : 
; 372  : #ifdef __CLIENT
; 373  : 			Error( _T( "CMailBox::Serialize m_idReceiver:%d, nSize:%d" ), m_idReceiver, nSize );
; 374  : #endif
; 375  : 		for( int i = 0; i < nSize; i++ )

  000bc	3b c3		 cmp	 eax, ebx
  000be	7e 54		 jle	 SHORT $L226784
  000c0	89 44 24 14	 mov	 DWORD PTR tv221[esp+12], eax
$L226782:

; 376  : 		{
; 377  : 			CMail* pMail	= new CMail;

  000c4	68 3c 01 00 00	 push	 316			; 0000013cH
  000c9	e8 00 00 00 00	 call	 ??2@YAPAXI@Z		; operator new
  000ce	83 c4 04	 add	 esp, 4
  000d1	3b c3		 cmp	 eax, ebx
  000d3	74 22		 je	 SHORT $L238796
  000d5	c7 00 00 00 00
	00		 mov	 DWORD PTR [eax], OFFSET FLAT:??_7CMail@@6B@
  000db	89 58 04	 mov	 DWORD PTR [eax+4], ebx
  000de	89 58 08	 mov	 DWORD PTR [eax+8], ebx
  000e1	89 58 0c	 mov	 DWORD PTR [eax+12], ebx
  000e4	89 58 14	 mov	 DWORD PTR [eax+20], ebx
  000e7	88 58 18	 mov	 BYTE PTR [eax+24], bl
  000ea	88 58 19	 mov	 BYTE PTR [eax+25], bl
  000ed	88 58 39	 mov	 BYTE PTR [eax+57], bl
  000f0	89 58 10	 mov	 DWORD PTR [eax+16], ebx
  000f3	8b f8		 mov	 edi, eax
  000f5	eb 02		 jmp	 SHORT $L238797
$L238796:
  000f7	33 ff		 xor	 edi, edi
$L238797:

; 378  : 			pMail->Serialize( ar, bData );

  000f9	8b 4c 24 18	 mov	 ecx, DWORD PTR _bData$[esp+12]
  000fd	51		 push	 ecx
  000fe	56		 push	 esi
  000ff	8b cf		 mov	 ecx, edi
  00101	e8 00 00 00 00	 call	 ?Serialize@CMail@@QAEXAAVCAr@@H@Z ; CMail::Serialize

; 379  : 			AddMail( pMail );

  00106	57		 push	 edi
  00107	8b cd		 mov	 ecx, ebp
  00109	e8 00 00 00 00	 call	 ?AddMail@CMailBox@@QAEKPAVCMail@@@Z ; CMailBox::AddMail
  0010e	ff 4c 24 14	 dec	 DWORD PTR tv221[esp+12]
  00112	75 b0		 jne	 SHORT $L226782
$L226784:
  00114	5f		 pop	 edi
  00115	5e		 pop	 esi
  00116	5d		 pop	 ebp
  00117	5b		 pop	 ebx

; 380  : 		}
; 381  : 	}
; 382  : }

  00118	c2 08 00	 ret	 8
?Serialize@CMailBox@@QAEXAAVCAr@@H@Z ENDP		; CMailBox::Serialize
_TEXT	ENDS
PUBLIC	??1?$map@KPAVCMailBox@@U?$less@K@std@@V?$allocator@U?$pair@$$CBKPAVCMailBox@@@std@@@3@@std@@QAE@XZ ; std::map<unsigned long,CMailBox *,std::less<unsigned long>,std::allocator<std::pair<unsigned long const ,CMailBox *> > >::~map<unsigned long,CMailBox *,std::less<unsigned long>,std::allocator<std::pair<unsigned long const ,CMailBox *> > >
; Function compile flags: /Ogty
;	COMDAT ??1?$map@KPAVCMailBox@@U?$less@K@std@@V?$allocator@U?$pair@$$CBKPAVCMailBox@@@std@@@3@@std@@QAE@XZ
_TEXT	SEGMENT
$T239002 = -4						; size = 4
??1?$map@KPAVCMailBox@@U?$less@K@std@@V?$allocator@U?$pair@$$CBKPAVCMailBox@@@std@@@3@@std@@QAE@XZ PROC NEAR ; std::map<unsigned long,CMailBox *,std::less<unsigned long>,std::allocator<std::pair<unsigned long const ,CMailBox *> > >::~map<unsigned long,CMailBox *,std::less<unsigned long>,std::allocator<std::pair<unsigned long const ,CMailBox *> > >, COMDAT
; _this$ = ecx
  00000	51		 push	 ecx
  00001	56		 push	 esi
  00002	8b f1		 mov	 esi, ecx
  00004	8b 46 04	 mov	 eax, DWORD PTR [esi+4]
  00007	8b 08		 mov	 ecx, DWORD PTR [eax]
  00009	50		 push	 eax
  0000a	51		 push	 ecx
  0000b	8d 44 24 0c	 lea	 eax, DWORD PTR $T239002[esp+16]
  0000f	50		 push	 eax
  00010	8b ce		 mov	 ecx, esi
  00012	e8 00 00 00 00	 call	 ?erase@?$_Tree@V?$_Tmap_traits@KPAVCMailBox@@U?$less@K@std@@V?$allocator@U?$pair@$$CBKPAVCMailBox@@@std@@@3@$0A@@std@@@std@@QAE?AViterator@12@V312@0@Z ; std::_Tree<std::_Tmap_traits<unsigned long,CMailBox *,std::less<unsigned long>,std::allocator<std::pair<unsigned long const ,CMailBox *> >,0> >::erase
  00017	8b 4e 04	 mov	 ecx, DWORD PTR [esi+4]
  0001a	51		 push	 ecx
  0001b	e8 00 00 00 00	 call	 ??3@YAXPAX@Z		; operator delete
  00020	83 c4 04	 add	 esp, 4
  00023	33 c0		 xor	 eax, eax
  00025	89 46 04	 mov	 DWORD PTR [esi+4], eax
  00028	89 46 08	 mov	 DWORD PTR [esi+8], eax
  0002b	5e		 pop	 esi
  0002c	59		 pop	 ecx
  0002d	c3		 ret	 0
??1?$map@KPAVCMailBox@@U?$less@K@std@@V?$allocator@U?$pair@$$CBKPAVCMailBox@@@std@@@3@@std@@QAE@XZ ENDP ; std::map<unsigned long,CMailBox *,std::less<unsigned long>,std::allocator<std::pair<unsigned long const ,CMailBox *> > >::~map<unsigned long,CMailBox *,std::less<unsigned long>,std::allocator<std::pair<unsigned long const ,CMailBox *> > >
_TEXT	ENDS
PUBLIC	??_7CPost@@6B@					; CPost::`vftable'
PUBLIC	??_GCPost@@UAEPAXI@Z				; CPost::`scalar deleting destructor'
PUBLIC	??1CPost@@UAE@XZ				; CPost::~CPost
EXTRN	??_ECPost@@UAEPAXI@Z:NEAR			; CPost::`vector deleting destructor'
;	COMDAT xdata$x
; File c:\program files\microsoft visual studio .net 2003\vc7\include\xmemory
xdata$x	SEGMENT
$T239195 DD	0ffffffffH
	DD	FLAT:$L239031
$T239193 DD	019930520H
	DD	01H
	DD	FLAT:$T239195
	DD	2 DUP(00H)
	DD	2 DUP(00H)
xdata$x	ENDS
;	COMDAT ??_7CPost@@6B@
CONST	SEGMENT
??_7CPost@@6B@ DD FLAT:??_ECPost@@UAEPAXI@Z		; CPost::`vftable'
; Function compile flags: /Ogty
; File c:\documents and settings\test\mes documents\source\virtuos_v17\build\program\_common\post.cpp
CONST	ENDS
;	COMDAT ??1CPost@@UAE@XZ
_TEXT	SEGMENT
$T239164 = -16						; size = 4
_this$ = -16						; size = 4
__$EHRec$ = -12						; size = 12
??1CPost@@UAE@XZ PROC NEAR				; CPost::~CPost, COMDAT
; _this$ = ecx

; 513  : {

  00000	6a ff		 push	 -1
  00002	68 00 00 00 00	 push	 __ehhandler$??1CPost@@UAE@XZ
  00007	64 a1 00 00 00
	00		 mov	 eax, DWORD PTR fs:__except_list
  0000d	50		 push	 eax
  0000e	64 89 25 00 00
	00 00		 mov	 DWORD PTR fs:__except_list, esp
  00015	51		 push	 ecx
  00016	56		 push	 esi
  00017	8b f1		 mov	 esi, ecx
  00019	89 74 24 04	 mov	 DWORD PTR _this$[esp+20], esi
  0001d	c7 06 00 00 00
	00		 mov	 DWORD PTR [esi], OFFSET FLAT:??_7CPost@@6B@
  00023	c7 44 24 10 00
	00 00 00	 mov	 DWORD PTR __$EHRec$[esp+28], 0

; 514  : 	Clear();

  0002b	e8 00 00 00 00	 call	 ?Clear@CPost@@QAEXXZ	; CPost::Clear

; 515  : }

  00030	8b 46 08	 mov	 eax, DWORD PTR [esi+8]
  00033	8b 08		 mov	 ecx, DWORD PTR [eax]
  00035	83 c6 04	 add	 esi, 4
  00038	50		 push	 eax
  00039	51		 push	 ecx
  0003a	8d 44 24 0c	 lea	 eax, DWORD PTR $T239164[esp+28]
  0003e	50		 push	 eax
  0003f	8b ce		 mov	 ecx, esi
  00041	c7 44 24 1c ff
	ff ff ff	 mov	 DWORD PTR __$EHRec$[esp+40], -1
  00049	e8 00 00 00 00	 call	 ?erase@?$_Tree@V?$_Tmap_traits@KPAVCMailBox@@U?$less@K@std@@V?$allocator@U?$pair@$$CBKPAVCMailBox@@@std@@@3@$0A@@std@@@std@@QAE?AViterator@12@V312@0@Z ; std::_Tree<std::_Tmap_traits<unsigned long,CMailBox *,std::less<unsigned long>,std::allocator<std::pair<unsigned long const ,CMailBox *> >,0> >::erase
  0004e	8b 4e 04	 mov	 ecx, DWORD PTR [esi+4]
  00051	51		 push	 ecx
  00052	e8 00 00 00 00	 call	 ??3@YAXPAX@Z		; operator delete
  00057	8b 4c 24 0c	 mov	 ecx, DWORD PTR __$EHRec$[esp+24]
  0005b	83 c4 04	 add	 esp, 4
  0005e	c7 46 04 00 00
	00 00		 mov	 DWORD PTR [esi+4], 0
  00065	c7 46 08 00 00
	00 00		 mov	 DWORD PTR [esi+8], 0
  0006c	5e		 pop	 esi
  0006d	64 89 0d 00 00
	00 00		 mov	 DWORD PTR fs:__except_list, ecx
  00074	83 c4 10	 add	 esp, 16			; 00000010H
  00077	c3		 ret	 0
_TEXT	ENDS
;	COMDAT text$x
text$x	SEGMENT
$L239031:
  00000	8b 4d f0	 mov	 ecx, DWORD PTR _this$[ebp]
  00003	83 c1 04	 add	 ecx, 4
  00006	e9 00 00 00 00	 jmp	 ??1?$map@KPAVCMailBox@@U?$less@K@std@@V?$allocator@U?$pair@$$CBKPAVCMailBox@@@std@@@3@@std@@QAE@XZ
__ehhandler$??1CPost@@UAE@XZ:
  0000b	b8 00 00 00 00	 mov	 eax, OFFSET FLAT:$T239193
  00010	e9 00 00 00 00	 jmp	 ___CxxFrameHandler
text$x	ENDS
??1CPost@@UAE@XZ ENDP					; CPost::~CPost
PUBLIC	?AddMail@CPost@@QAEKKPAVCMail@@@Z		; CPost::AddMail
PUBLIC	??_C@_0CE@ONJNFFPI@AddMailBox?5Failed?5?9?5idReceiver?5?3@ ; `string'
;	COMDAT xdata$x
; File c:\program files\microsoft visual studio .net 2003\vc7\include\utility
xdata$x	SEGMENT
$T239415 DD	0ffffffffH
	DD	FLAT:$L239205
$T239412 DD	019930520H
	DD	01H
	DD	FLAT:$T239415
	DD	2 DUP(00H)
	DD	2 DUP(00H)
xdata$x	ENDS
;	COMDAT ??_C@_0CE@ONJNFFPI@AddMailBox?5Failed?5?9?5idReceiver?5?3@
CONST	SEGMENT
??_C@_0CE@ONJNFFPI@AddMailBox?5Failed?5?9?5idReceiver?5?3@ DB 'AddMailBox'
	DB	' Failed - idReceiver : %d', 00H		; `string'
; Function compile flags: /Ogty
; File c:\documents and settings\test\mes documents\source\virtuos_v17\build\program\_common\post.cpp
CONST	ENDS
;	COMDAT ?AddMail@CPost@@QAEKKPAVCMail@@@Z
_TEXT	SEGMENT
$T239202 = -32						; size = 4
$T239406 = -28						; size = 8
_i$239277 = -28						; size = 4
$T239407 = -20						; size = 8
__$EHRec$ = -12						; size = 12
$T239279 = 8						; size = 4
_idReceiver$ = 8					; size = 4
_pMail$ = 12						; size = 4
?AddMail@CPost@@QAEKKPAVCMail@@@Z PROC NEAR		; CPost::AddMail, COMDAT
; _this$ = ecx

; 534  : {

  00000	6a ff		 push	 -1
  00002	68 00 00 00 00	 push	 __ehhandler$?AddMail@CPost@@QAEKKPAVCMail@@@Z
  00007	64 a1 00 00 00
	00		 mov	 eax, DWORD PTR fs:__except_list
  0000d	50		 push	 eax
  0000e	64 89 25 00 00
	00 00		 mov	 DWORD PTR fs:__except_list, esp
  00015	83 ec 14	 sub	 esp, 20			; 00000014H
  00018	53		 push	 ebx
  00019	55		 push	 ebp

; 535  : 	CMailBox* pMailBox	= GetMailBox( idReceiver );

  0001a	8b 6c 24 2c	 mov	 ebp, DWORD PTR _idReceiver$[esp+36]
  0001e	56		 push	 esi
  0001f	57		 push	 edi
  00020	8b f1		 mov	 esi, ecx
  00022	8d 44 24 34	 lea	 eax, DWORD PTR $T239279[esp+44]
  00026	50		 push	 eax
  00027	8d 4c 24 18	 lea	 ecx, DWORD PTR _i$239277[esp+52]
  0002b	8d 7e 04	 lea	 edi, DWORD PTR [esi+4]
  0002e	51		 push	 ecx
  0002f	8b cf		 mov	 ecx, edi
  00031	89 6c 24 3c	 mov	 DWORD PTR $T239279[esp+52], ebp
  00035	e8 00 00 00 00	 call	 ?find@?$_Tree@V?$_Tmap_traits@KPAVCMailBox@@U?$less@K@std@@V?$allocator@U?$pair@$$CBKPAVCMailBox@@@std@@@3@$0A@@std@@@std@@QAE?AViterator@12@ABK@Z ; std::_Tree<std::_Tmap_traits<unsigned long,CMailBox *,std::less<unsigned long>,std::allocator<std::pair<unsigned long const ,CMailBox *> >,0> >::find
  0003a	8b 76 08	 mov	 esi, DWORD PTR [esi+8]
  0003d	8b 44 24 14	 mov	 eax, DWORD PTR _i$239277[esp+48]
  00041	33 db		 xor	 ebx, ebx
  00043	3b c6		 cmp	 eax, esi
  00045	74 07		 je	 SHORT $L239413
  00047	8b 70 10	 mov	 esi, DWORD PTR [eax+16]

; 536  : 	if( !pMailBox )

  0004a	3b f3		 cmp	 esi, ebx
  0004c	75 60		 jne	 SHORT $L226998
$L239413:

; 537  : 	{
; 538  : 		pMailBox	= new CMailBox( idReceiver );

  0004e	6a 1c		 push	 28			; 0000001cH
  00050	e8 00 00 00 00	 call	 ??2@YAPAXI@Z		; operator new
  00055	83 c4 04	 add	 esp, 4
  00058	3b c3		 cmp	 eax, ebx
  0005a	74 17		 je	 SHORT $L239203
  0005c	89 58 08	 mov	 DWORD PTR [eax+8], ebx
  0005f	89 58 0c	 mov	 DWORD PTR [eax+12], ebx
  00062	89 58 10	 mov	 DWORD PTR [eax+16], ebx
  00065	c7 00 00 00 00
	00		 mov	 DWORD PTR [eax], OFFSET FLAT:??_7CMailBox@@6B@
  0006b	89 68 14	 mov	 DWORD PTR [eax+20], ebp
  0006e	89 58 18	 mov	 DWORD PTR [eax+24], ebx
  00071	eb 02		 jmp	 SHORT $L239204
$L239203:
  00073	33 c0		 xor	 eax, eax
$L239204:

; 539  : 		if( AddMailBox( pMailBox ) == FALSE )

  00075	8b 50 14	 mov	 edx, DWORD PTR [eax+20]
  00078	8b f0		 mov	 esi, eax
  0007a	89 44 24 18	 mov	 DWORD PTR $T239406[esp+52], eax
  0007e	8d 44 24 14	 lea	 eax, DWORD PTR $T239406[esp+48]
  00082	50		 push	 eax
  00083	8d 4c 24 20	 lea	 ecx, DWORD PTR $T239407[esp+52]
  00087	51		 push	 ecx
  00088	8b cf		 mov	 ecx, edi
  0008a	c7 44 24 34 ff
	ff ff ff	 mov	 DWORD PTR __$EHRec$[esp+64], -1
  00092	89 54 24 1c	 mov	 DWORD PTR $T239406[esp+56], edx
  00096	e8 00 00 00 00	 call	 ?insert@?$_Tree@V?$_Tmap_traits@KPAVCMailBox@@U?$less@K@std@@V?$allocator@U?$pair@$$CBKPAVCMailBox@@@std@@@3@$0A@@std@@@std@@QAE?AU?$pair@Viterator@?$_Tree@V?$_Tmap_traits@KPAVCMailBox@@U?$less@K@std@@V?$allocator@U?$pair@$$CBKPAVCMailBox@@@std@@@3@$0A@@std@@@std@@_N@2@ABU?$pair@$$CBKPAVCMailBox@@@2@@Z ; std::_Tree<std::_Tmap_traits<unsigned long,CMailBox *,std::less<unsigned long>,std::allocator<std::pair<unsigned long const ,CMailBox *> >,0> >::insert
  0009b	38 58 04	 cmp	 BYTE PTR [eax+4], bl
  0009e	75 0e		 jne	 SHORT $L226998

; 540  : 		{
; 541  : 			Error( "AddMailBox Failed - idReceiver : %d", idReceiver );

  000a0	55		 push	 ebp
  000a1	68 00 00 00 00	 push	 OFFSET FLAT:??_C@_0CE@ONJNFFPI@AddMailBox?5Failed?5?9?5idReceiver?5?3@
  000a6	e8 00 00 00 00	 call	 ?Error@@YAPBDPBDZZ	; Error
  000ab	83 c4 08	 add	 esp, 8
$L226998:

; 542  : 		}
; 543  : 		else
; 544  : 		{
; 545  : // 			//	BEGINTEST
; 546  : // 			Error( "CPost::AddMail [%d]", idReceiver );
; 547  : 		}
; 548  : 	}
; 549  : 	return pMailBox->AddMail( pMail );

  000ae	8b 54 24 38	 mov	 edx, DWORD PTR _pMail$[esp+44]
  000b2	52		 push	 edx
  000b3	8b ce		 mov	 ecx, esi
  000b5	e8 00 00 00 00	 call	 ?AddMail@CMailBox@@QAEKPAVCMail@@@Z ; CMailBox::AddMail

; 550  : }

  000ba	8b 4c 24 24	 mov	 ecx, DWORD PTR __$EHRec$[esp+48]
  000be	5f		 pop	 edi
  000bf	5e		 pop	 esi
  000c0	5d		 pop	 ebp
  000c1	5b		 pop	 ebx
  000c2	64 89 0d 00 00
	00 00		 mov	 DWORD PTR fs:__except_list, ecx
  000c9	83 c4 20	 add	 esp, 32			; 00000020H
  000cc	c2 08 00	 ret	 8
_TEXT	ENDS
;	COMDAT text$x
text$x	SEGMENT
$L239205:
  00000	8b 45 e0	 mov	 eax, DWORD PTR $T239202[ebp]
  00003	50		 push	 eax
  00004	e8 00 00 00 00	 call	 ??3@YAXPAX@Z		; operator delete
  00009	59		 pop	 ecx
  0000a	c3		 ret	 0
__ehhandler$?AddMail@CPost@@QAEKKPAVCMail@@@Z:
  0000b	b8 00 00 00 00	 mov	 eax, OFFSET FLAT:$T239412
  00010	e9 00 00 00 00	 jmp	 ___CxxFrameHandler
text$x	ENDS
?AddMail@CPost@@QAEKKPAVCMail@@@Z ENDP			; CPost::AddMail
PUBLIC	?Serialize@CPost@@QAEXAAVCAr@@H@Z		; CPost::Serialize
;	COMDAT xdata$x
; File c:\program files\microsoft visual studio .net 2003\vc7\include\utility
xdata$x	SEGMENT
$T239676 DD	0ffffffffH
	DD	FLAT:$L239426
$T239671 DD	019930520H
	DD	01H
	DD	FLAT:$T239676
	DD	2 DUP(00H)
	DD	2 DUP(00H)
; Function compile flags: /Ogty
; File c:\documents and settings\test\mes documents\source\virtuos_v17\build\program\_common\post.cpp
xdata$x	ENDS
;	COMDAT ?Serialize@CPost@@QAEXAAVCAr@@H@Z
_TEXT	SEGMENT
$T239423 = -44						; size = 4
tv172 = -40						; size = 4
_i$227058 = -40						; size = 4
tv334 = -36						; size = 4
$T239664 = -32						; size = 8
$T239665 = -24						; size = 8
__$EHRec$ = -12						; size = 12
_ar$ = 8						; size = 4
_bData$ = 12						; size = 4
?Serialize@CPost@@QAEXAAVCAr@@H@Z PROC NEAR		; CPost::Serialize, COMDAT
; _this$ = ecx

; 569  : {

  00000	55		 push	 ebp
  00001	8b ec		 mov	 ebp, esp
  00003	83 e4 f8	 and	 esp, -8			; fffffff8H
  00006	6a ff		 push	 -1
  00008	68 00 00 00 00	 push	 __ehhandler$?Serialize@CPost@@QAEXAAVCAr@@H@Z
  0000d	64 a1 00 00 00
	00		 mov	 eax, DWORD PTR fs:__except_list
  00013	50		 push	 eax
  00014	64 89 25 00 00
	00 00		 mov	 DWORD PTR fs:__except_list, esp
  0001b	83 ec 20	 sub	 esp, 32			; 00000020H
  0001e	53		 push	 ebx
  0001f	56		 push	 esi

; 570  : 	if( ar.IsStoring() )

  00020	8b 75 08	 mov	 esi, DWORD PTR _ar$[ebp]
  00023	33 c0		 xor	 eax, eax
  00025	8a 06		 mov	 al, BYTE PTR [esi]
  00027	57		 push	 edi
  00028	8b f9		 mov	 edi, ecx
  0002a	f7 d0		 not	 eax
  0002c	a8 01		 test	 al, 1
  0002e	74 60		 je	 SHORT $L227052

; 571  : 	{
; 572  : 		ar << m_mapMailBox.size();

  00030	8b 5f 0c	 mov	 ebx, DWORD PTR [edi+12]
  00033	6a 04		 push	 4
  00035	8b ce		 mov	 ecx, esi
  00037	e8 00 00 00 00	 call	 ?CheckBuf@CAr@@QAEXI@Z	; CAr::CheckBuf
  0003c	8b 4e 08	 mov	 ecx, DWORD PTR [esi+8]
  0003f	89 19		 mov	 DWORD PTR [ecx], ebx
  00041	83 46 08 04	 add	 DWORD PTR [esi+8], 4

; 573  : 		for( map<u_long, CMailBox*>::iterator i = m_mapMailBox.begin(); i != m_mapMailBox.end(); ++i )

  00045	8b 4f 08	 mov	 ecx, DWORD PTR [edi+8]
  00048	8b 01		 mov	 eax, DWORD PTR [ecx]
  0004a	3b c1		 cmp	 eax, ecx
  0004c	89 44 24 10	 mov	 DWORD PTR _i$227058[esp+56], eax
  00050	0f 84 cb 00 00
	00		 je	 $L227070
  00056	8b 5d 0c	 mov	 ebx, DWORD PTR _bData$[ebp]
  00059	8d a4 24 00 00
	00 00		 npad	 7
$L239478:

; 574  : 		{
; 575  : 			CMailBox* pMailBox	= i->second;
; 576  : 			pMailBox->Serialize( ar, bData );

  00060	8b 48 10	 mov	 ecx, DWORD PTR [eax+16]
  00063	53		 push	 ebx
  00064	56		 push	 esi
  00065	e8 00 00 00 00	 call	 ?Serialize@CMailBox@@QAEXAAVCAr@@H@Z ; CMailBox::Serialize
  0006a	8d 4c 24 10	 lea	 ecx, DWORD PTR _i$227058[esp+56]
  0006e	e8 00 00 00 00	 call	 ?_Inc@const_iterator@?$_Tree@V?$_Tmap_traits@KPAVCMailBox@@U?$less@K@std@@V?$allocator@U?$pair@$$CBKPAVCMailBox@@@std@@@3@$0A@@std@@@std@@QAEXXZ ; std::_Tree<std::_Tmap_traits<unsigned long,CMailBox *,std::less<unsigned long>,std::allocator<std::pair<unsigned long const ,CMailBox *> >,0> >::const_iterator::_Inc
  00073	8b 44 24 10	 mov	 eax, DWORD PTR _i$227058[esp+56]
  00077	3b 47 08	 cmp	 eax, DWORD PTR [edi+8]
  0007a	75 e4		 jne	 SHORT $L239478

; 588  : 		}
; 589  : 	}
; 590  : }

  0007c	8b 4c 24 2c	 mov	 ecx, DWORD PTR __$EHRec$[esp+56]
  00080	64 89 0d 00 00
	00 00		 mov	 DWORD PTR fs:__except_list, ecx
  00087	5f		 pop	 edi
  00088	5e		 pop	 esi
  00089	5b		 pop	 ebx
  0008a	8b e5		 mov	 esp, ebp
  0008c	5d		 pop	 ebp
  0008d	c2 08 00	 ret	 8
$L227052:

; 577  : 		}
; 578  : 	}
; 579  : 	else
; 580  : 	{
; 581  : 		int nSize;
; 582  : 		ar >> nSize;

  00090	8b 46 08	 mov	 eax, DWORD PTR [esi+8]
  00093	8b 56 0c	 mov	 edx, DWORD PTR [esi+12]
  00096	8d 48 04	 lea	 ecx, DWORD PTR [eax+4]
  00099	33 db		 xor	 ebx, ebx
  0009b	3b ca		 cmp	 ecx, edx
  0009d	77 07		 ja	 SHORT $L239536
  0009f	8b 00		 mov	 eax, DWORD PTR [eax]
  000a1	89 4e 08	 mov	 DWORD PTR [esi+8], ecx
  000a4	eb 05		 jmp	 SHORT $L239537
$L239536:
  000a6	33 c0		 xor	 eax, eax
  000a8	89 56 08	 mov	 DWORD PTR [esi+8], edx
$L239537:

; 583  : 		for( int i = 0; i < nSize; i++ )

  000ab	3b c3		 cmp	 eax, ebx
  000ad	7e 72		 jle	 SHORT $L227070
  000af	83 c7 04	 add	 edi, 4
  000b2	89 7c 24 14	 mov	 DWORD PTR tv334[esp+56], edi
  000b6	89 44 24 10	 mov	 DWORD PTR tv172[esp+56], eax
  000ba	8d 9b 00 00 00
	00		 npad	 6
$L227068:

; 584  : 		{
; 585  : 			CMailBox* pMailBox	= new CMailBox;

  000c0	6a 1c		 push	 28			; 0000001cH
  000c2	e8 00 00 00 00	 call	 ??2@YAPAXI@Z		; operator new
  000c7	83 c4 04	 add	 esp, 4
  000ca	3b c3		 cmp	 eax, ebx
  000cc	74 19		 je	 SHORT $L239424
  000ce	89 58 08	 mov	 DWORD PTR [eax+8], ebx
  000d1	89 58 0c	 mov	 DWORD PTR [eax+12], ebx
  000d4	89 58 10	 mov	 DWORD PTR [eax+16], ebx
  000d7	c7 00 00 00 00
	00		 mov	 DWORD PTR [eax], OFFSET FLAT:??_7CMailBox@@6B@
  000dd	89 58 14	 mov	 DWORD PTR [eax+20], ebx
  000e0	89 58 18	 mov	 DWORD PTR [eax+24], ebx
  000e3	8b f8		 mov	 edi, eax
  000e5	eb 02		 jmp	 SHORT $L239425
$L239424:
  000e7	33 ff		 xor	 edi, edi
$L239425:

; 586  : 			pMailBox->Serialize( ar, bData );

  000e9	8b 55 0c	 mov	 edx, DWORD PTR _bData$[ebp]
  000ec	52		 push	 edx
  000ed	56		 push	 esi
  000ee	8b cf		 mov	 ecx, edi
  000f0	c7 44 24 3c ff
	ff ff ff	 mov	 DWORD PTR __$EHRec$[esp+72], -1
  000f8	e8 00 00 00 00	 call	 ?Serialize@CMailBox@@QAEXAAVCAr@@H@Z ; CMailBox::Serialize

; 587  : 			AddMailBox( pMailBox );

  000fd	8b 47 14	 mov	 eax, DWORD PTR [edi+20]
  00100	8d 4c 24 18	 lea	 ecx, DWORD PTR $T239664[esp+56]
  00104	51		 push	 ecx
  00105	8b 4c 24 18	 mov	 ecx, DWORD PTR tv334[esp+60]
  00109	8d 54 24 24	 lea	 edx, DWORD PTR $T239665[esp+60]
  0010d	52		 push	 edx
  0010e	89 44 24 20	 mov	 DWORD PTR $T239664[esp+64], eax
  00112	89 7c 24 24	 mov	 DWORD PTR $T239664[esp+68], edi
  00116	e8 00 00 00 00	 call	 ?insert@?$_Tree@V?$_Tmap_traits@KPAVCMailBox@@U?$less@K@std@@V?$allocator@U?$pair@$$CBKPAVCMailBox@@@std@@@3@$0A@@std@@@std@@QAE?AU?$pair@Viterator@?$_Tree@V?$_Tmap_traits@KPAVCMailBox@@U?$less@K@std@@V?$allocator@U?$pair@$$CBKPAVCMailBox@@@std@@@3@$0A@@std@@@std@@_N@2@ABU?$pair@$$CBKPAVCMailBox@@@2@@Z ; std::_Tree<std::_Tmap_traits<unsigned long,CMailBox *,std::less<unsigned long>,std::allocator<std::pair<unsigned long const ,CMailBox *> >,0> >::insert
  0011b	ff 4c 24 10	 dec	 DWORD PTR tv172[esp+56]
  0011f	75 9f		 jne	 SHORT $L227068
$L227070:

; 588  : 		}
; 589  : 	}
; 590  : }

  00121	8b 4c 24 2c	 mov	 ecx, DWORD PTR __$EHRec$[esp+56]
  00125	5f		 pop	 edi
  00126	5e		 pop	 esi
  00127	64 89 0d 00 00
	00 00		 mov	 DWORD PTR fs:__except_list, ecx
  0012e	5b		 pop	 ebx
  0012f	8b e5		 mov	 esp, ebp
  00131	5d		 pop	 ebp
  00132	c2 08 00	 ret	 8
_TEXT	ENDS
;	COMDAT text$x
text$x	SEGMENT
$L239426:
  00000	8b 45 d4	 mov	 eax, DWORD PTR $T239423[ebp]
  00003	50		 push	 eax
  00004	e8 00 00 00 00	 call	 ??3@YAXPAX@Z		; operator delete
  00009	59		 pop	 ecx
  0000a	c3		 ret	 0
__ehhandler$?Serialize@CPost@@QAEXAAVCAr@@H@Z:
  0000b	b8 00 00 00 00	 mov	 eax, OFFSET FLAT:$T239671
  00010	e9 00 00 00 00	 jmp	 ___CxxFrameHandler
text$x	ENDS
?Serialize@CPost@@QAEXAAVCAr@@H@Z ENDP			; CPost::Serialize
PUBLIC	??0?$map@KPAVCMailBox@@U?$less@K@std@@V?$allocator@U?$pair@$$CBKPAVCMailBox@@@std@@@3@@std@@QAE@XZ ; std::map<unsigned long,CMailBox *,std::less<unsigned long>,std::allocator<std::pair<unsigned long const ,CMailBox *> > >::map<unsigned long,CMailBox *,std::less<unsigned long>,std::allocator<std::pair<unsigned long const ,CMailBox *> > >
; Function compile flags: /Ogty
; File c:\program files\microsoft visual studio .net 2003\vc7\include\map
;	COMDAT ??0?$map@KPAVCMailBox@@U?$less@K@std@@V?$allocator@U?$pair@$$CBKPAVCMailBox@@@std@@@3@@std@@QAE@XZ
_TEXT	SEGMENT
??0?$map@KPAVCMailBox@@U?$less@K@std@@V?$allocator@U?$pair@$$CBKPAVCMailBox@@@std@@@3@@std@@QAE@XZ PROC NEAR ; std::map<unsigned long,CMailBox *,std::less<unsigned long>,std::allocator<std::pair<unsigned long const ,CMailBox *> > >::map<unsigned long,CMailBox *,std::less<unsigned long>,std::allocator<std::pair<unsigned long const ,CMailBox *> > >, COMDAT
; _this$ = ecx

; 102  : 		{	// construct empty map from defaults

  00000	56		 push	 esi
  00001	8b f1		 mov	 esi, ecx
  00003	e8 00 00 00 00	 call	 ?_Buynode@?$_Tree@V?$_Tmap_traits@KPAVCMailBox@@U?$less@K@std@@V?$allocator@U?$pair@$$CBKPAVCMailBox@@@std@@@3@$0A@@std@@@std@@IAEPAU_Node@?$_Tree_nod@V?$_Tmap_traits@KPAVCMailBox@@U?$less@K@std@@V?$allocator@U?$pair@$$CBKPAVCMailBox@@@std@@@3@$0A@@std@@@2@XZ ; std::_Tree<std::_Tmap_traits<unsigned long,CMailBox *,std::less<unsigned long>,std::allocator<std::pair<unsigned long const ,CMailBox *> >,0> >::_Buynode
  00008	89 46 04	 mov	 DWORD PTR [esi+4], eax
  0000b	c6 40 15 01	 mov	 BYTE PTR [eax+21], 1
  0000f	8b 46 04	 mov	 eax, DWORD PTR [esi+4]
  00012	89 40 04	 mov	 DWORD PTR [eax+4], eax
  00015	8b 46 04	 mov	 eax, DWORD PTR [esi+4]
  00018	89 00		 mov	 DWORD PTR [eax], eax
  0001a	8b 46 04	 mov	 eax, DWORD PTR [esi+4]
  0001d	89 40 08	 mov	 DWORD PTR [eax+8], eax
  00020	c7 46 08 00 00
	00 00		 mov	 DWORD PTR [esi+8], 0

; 103  : 		}

  00027	8b c6		 mov	 eax, esi
  00029	5e		 pop	 esi
  0002a	c3		 ret	 0
??0?$map@KPAVCMailBox@@U?$less@K@std@@V?$allocator@U?$pair@$$CBKPAVCMailBox@@@std@@@3@@std@@QAE@XZ ENDP ; std::map<unsigned long,CMailBox *,std::less<unsigned long>,std::allocator<std::pair<unsigned long const ,CMailBox *> > >::map<unsigned long,CMailBox *,std::less<unsigned long>,std::allocator<std::pair<unsigned long const ,CMailBox *> > >
_TEXT	ENDS
PUBLIC	??0CPost@@QAE@XZ				; CPost::CPost
; Function compile flags: /Ogty
; File c:\documents and settings\test\mes documents\source\virtuos_v17\build\program\_common\post.cpp
;	COMDAT ??0CPost@@QAE@XZ
_TEXT	SEGMENT
??0CPost@@QAE@XZ PROC NEAR				; CPost::CPost, COMDAT
; _this$ = ecx

; 509  : {

  00000	56		 push	 esi
  00001	57		 push	 edi
  00002	8b f9		 mov	 edi, ecx
  00004	8d 77 04	 lea	 esi, DWORD PTR [edi+4]
  00007	8b ce		 mov	 ecx, esi
  00009	c7 07 00 00 00
	00		 mov	 DWORD PTR [edi], OFFSET FLAT:??_7CPost@@6B@
  0000f	e8 00 00 00 00	 call	 ?_Buynode@?$_Tree@V?$_Tmap_traits@KPAVCMailBox@@U?$less@K@std@@V?$allocator@U?$pair@$$CBKPAVCMailBox@@@std@@@3@$0A@@std@@@std@@IAEPAU_Node@?$_Tree_nod@V?$_Tmap_traits@KPAVCMailBox@@U?$less@K@std@@V?$allocator@U?$pair@$$CBKPAVCMailBox@@@std@@@3@$0A@@std@@@2@XZ ; std::_Tree<std::_Tmap_traits<unsigned long,CMailBox *,std::less<unsigned long>,std::allocator<std::pair<unsigned long const ,CMailBox *> >,0> >::_Buynode
  00014	89 46 04	 mov	 DWORD PTR [esi+4], eax
  00017	c6 40 15 01	 mov	 BYTE PTR [eax+21], 1
  0001b	8b 46 04	 mov	 eax, DWORD PTR [esi+4]
  0001e	89 40 04	 mov	 DWORD PTR [eax+4], eax
  00021	8b 46 04	 mov	 eax, DWORD PTR [esi+4]
  00024	89 00		 mov	 DWORD PTR [eax], eax
  00026	8b 46 04	 mov	 eax, DWORD PTR [esi+4]
  00029	89 40 08	 mov	 DWORD PTR [eax+8], eax

; 510  : }

  0002c	8b c7		 mov	 eax, edi
  0002e	5f		 pop	 edi
  0002f	c7 46 08 00 00
	00 00		 mov	 DWORD PTR [esi+8], 0
  00036	5e		 pop	 esi
  00037	c3		 ret	 0
??0CPost@@QAE@XZ ENDP					; CPost::CPost
; Function compile flags: /Ogty
_TEXT	ENDS
;	COMDAT ??_GCPost@@UAEPAXI@Z
_TEXT	SEGMENT
___flags$ = 8						; size = 4
??_GCPost@@UAEPAXI@Z PROC NEAR				; CPost::`scalar deleting destructor', COMDAT
; _this$ = ecx
  00000	56		 push	 esi
  00001	8b f1		 mov	 esi, ecx
  00003	e8 00 00 00 00	 call	 ??1CPost@@UAE@XZ	; CPost::~CPost
  00008	f6 44 24 08 01	 test	 BYTE PTR ___flags$[esp], 1
  0000d	74 09		 je	 SHORT $L240067
  0000f	56		 push	 esi
  00010	e8 00 00 00 00	 call	 ??3@YAXPAX@Z		; operator delete
  00015	83 c4 04	 add	 esp, 4
$L240067:
  00018	8b c6		 mov	 eax, esi
  0001a	5e		 pop	 esi
  0001b	c2 04 00	 ret	 4
??_GCPost@@UAEPAXI@Z ENDP				; CPost::`scalar deleting destructor'
_TEXT	ENDS
PUBLIC	?GetInstance@CPost@@SAPAV1@XZ			; CPost::GetInstance
;	COMDAT ?sPost@?1??GetInstance@CPost@@SAPAV2@XZ@4V2@A
; File c:\program files\microsoft visual studio .net 2003\vc7\include\xtree
_BSS	SEGMENT
?sPost@?1??GetInstance@CPost@@SAPAV2@XZ@4V2@A DB 010H DUP (?) ; `CPost::GetInstance'::`2'::sPost
_BSS	ENDS
;	COMDAT ?$S3@?1??GetInstance@CPost@@SAPAV2@XZ@4IA
_BSS	SEGMENT
?$S3@?1??GetInstance@CPost@@SAPAV2@XZ@4IA DD 01H DUP (?) ; `CPost::GetInstance'::`2'::$S3
_BSS	ENDS
;	COMDAT xdata$x
xdata$x	SEGMENT
$T240341 DD	0ffffffffH
	DD	FLAT:$L240071
$T240338 DD	019930520H
	DD	01H
	DD	FLAT:$T240341
	DD	2 DUP(00H)
	DD	2 DUP(00H)
; Function compile flags: /Ogty
; File c:\documents and settings\test\mes documents\source\virtuos_v17\build\program\_common\post.cpp
xdata$x	ENDS
;	COMDAT ?GetInstance@CPost@@SAPAV1@XZ
_TEXT	SEGMENT
__$EHRec$ = -12						; size = 12
?GetInstance@CPost@@SAPAV1@XZ PROC NEAR			; CPost::GetInstance, COMDAT

; 593  : {

  00000	64 a1 00 00 00
	00		 mov	 eax, DWORD PTR fs:__except_list
  00006	6a ff		 push	 -1
  00008	68 00 00 00 00	 push	 __ehhandler$?GetInstance@CPost@@SAPAV1@XZ
  0000d	50		 push	 eax

; 594  : 	static CPost	sPost;

  0000e	f6 05 00 00 00
	00 01		 test	 BYTE PTR ?$S3@?1??GetInstance@CPost@@SAPAV2@XZ@4IA, 1
  00015	64 89 25 00 00
	00 00		 mov	 DWORD PTR fs:__except_list, esp
  0001c	75 5a		 jne	 SHORT $L240339
  0001e	83 0d 00 00 00
	00 01		 or	 DWORD PTR ?$S3@?1??GetInstance@CPost@@SAPAV2@XZ@4IA, 1
  00025	b9 04 00 00 00	 mov	 ecx, OFFSET FLAT:?sPost@?1??GetInstance@CPost@@SAPAV2@XZ@4V2@A+4
  0002a	c7 44 24 08 00
	00 00 00	 mov	 DWORD PTR __$EHRec$[esp+20], 0
  00032	c7 05 00 00 00
	00 00 00 00 00	 mov	 DWORD PTR ?sPost@?1??GetInstance@CPost@@SAPAV2@XZ@4V2@A, OFFSET FLAT:??_7CPost@@6B@
  0003c	e8 00 00 00 00	 call	 ?_Buynode@?$_Tree@V?$_Tmap_traits@KPAVCMailBox@@U?$less@K@std@@V?$allocator@U?$pair@$$CBKPAVCMailBox@@@std@@@3@$0A@@std@@@std@@IAEPAU_Node@?$_Tree_nod@V?$_Tmap_traits@KPAVCMailBox@@U?$less@K@std@@V?$allocator@U?$pair@$$CBKPAVCMailBox@@@std@@@3@$0A@@std@@@2@XZ ; std::_Tree<std::_Tmap_traits<unsigned long,CMailBox *,std::less<unsigned long>,std::allocator<std::pair<unsigned long const ,CMailBox *> >,0> >::_Buynode
  00041	a3 08 00 00 00	 mov	 DWORD PTR ?sPost@?1??GetInstance@CPost@@SAPAV2@XZ@4V2@A+8, eax
  00046	c6 40 15 01	 mov	 BYTE PTR [eax+21], 1
  0004a	a1 08 00 00 00	 mov	 eax, DWORD PTR ?sPost@?1??GetInstance@CPost@@SAPAV2@XZ@4V2@A+8
  0004f	89 40 04	 mov	 DWORD PTR [eax+4], eax
  00052	a1 08 00 00 00	 mov	 eax, DWORD PTR ?sPost@?1??GetInstance@CPost@@SAPAV2@XZ@4V2@A+8
  00057	89 00		 mov	 DWORD PTR [eax], eax
  00059	a1 08 00 00 00	 mov	 eax, DWORD PTR ?sPost@?1??GetInstance@CPost@@SAPAV2@XZ@4V2@A+8
  0005e	89 40 08	 mov	 DWORD PTR [eax+8], eax
  00061	68 00 00 00 00	 push	 OFFSET FLAT:_$E4
  00066	c7 05 0c 00 00
	00 00 00 00 00	 mov	 DWORD PTR ?sPost@?1??GetInstance@CPost@@SAPAV2@XZ@4V2@A+12, 0
  00070	e8 00 00 00 00	 call	 _atexit
  00075	83 c4 04	 add	 esp, 4
$L240339:

; 595  : 	return &sPost;
; 596  : }

  00078	8b 0c 24	 mov	 ecx, DWORD PTR __$EHRec$[esp+12]
  0007b	b8 00 00 00 00	 mov	 eax, OFFSET FLAT:?sPost@?1??GetInstance@CPost@@SAPAV2@XZ@4V2@A
  00080	64 89 0d 00 00
	00 00		 mov	 DWORD PTR fs:__except_list, ecx
  00087	83 c4 0c	 add	 esp, 12			; 0000000cH
  0008a	c3		 ret	 0
_TEXT	ENDS
;	COMDAT text$x
text$x	SEGMENT
$L240071:
  00000	a1 00 00 00 00	 mov	 eax, DWORD PTR ?$S3@?1??GetInstance@CPost@@SAPAV2@XZ@4IA
  00005	83 e0 fe	 and	 eax, -2			; fffffffeH
  00008	a3 00 00 00 00	 mov	 DWORD PTR ?$S3@?1??GetInstance@CPost@@SAPAV2@XZ@4IA, eax
  0000d	c3		 ret	 0
__ehhandler$?GetInstance@CPost@@SAPAV1@XZ:
  0000e	b8 00 00 00 00	 mov	 eax, OFFSET FLAT:$T240338
  00013	e9 00 00 00 00	 jmp	 ___CxxFrameHandler
text$x	ENDS
?GetInstance@CPost@@SAPAV1@XZ ENDP			; CPost::GetInstance
; Function compile flags: /Ogty
;	COMDAT _$E2
text$yd	SEGMENT
_$E2	PROC NEAR					; COMDAT
  00000	b9 00 00 00 00	 mov	 ecx, OFFSET FLAT:?sMailBox@?1??GetInstance@CMailBox@@SAPAV2@XZ@4V2@A
  00005	e9 00 00 00 00	 jmp	 ??1CMailBox@@UAE@XZ	; CMailBox::~CMailBox
_$E2	ENDP
; Function compile flags: /Ogty
text$yd	ENDS
;	COMDAT _$E4
text$yd	SEGMENT
_$E4	PROC NEAR					; COMDAT
  00000	b9 00 00 00 00	 mov	 ecx, OFFSET FLAT:?sPost@?1??GetInstance@CPost@@SAPAV2@XZ@4V2@A
  00005	e9 00 00 00 00	 jmp	 ??1CPost@@UAE@XZ	; CPost::~CPost
_$E4	ENDP
text$yd	ENDS
END
