; Listing generated by Microsoft (R) Optimizing Compiler Version 13.10.6030 

	TITLE	\Documents and Settings\test\Mes documents\Source\Virtuos_v17\Build\Program\_Common\profile.cpp
	.386P
include listing.inc
if @Version gt 510
.model FLAT
else
_TEXT	SEGMENT PARA USE32 PUBLIC 'CODE'
_TEXT	ENDS
_DATA	SEGMENT DWORD USE32 PUBLIC 'DATA'
_DATA	ENDS
CONST	SEGMENT DWORD USE32 PUBLIC 'CONST'
CONST	ENDS
_BSS	SEGMENT DWORD USE32 PUBLIC 'BSS'
_BSS	ENDS
$$SYMBOLS	SEGMENT BYTE USE32 'DEBSYM'
$$SYMBOLS	ENDS
$$TYPES	SEGMENT BYTE USE32 'DEBTYP'
$$TYPES	ENDS
_TLS	SEGMENT DWORD USE32 PUBLIC 'TLS'
_TLS	ENDS
;	COMDAT ??_C@_04BAJDEDPD@Root?$AA@
CONST	SEGMENT DWORD USE32 PUBLIC 'CONST'
CONST	ENDS
text$yc	SEGMENT PARA USE32 PUBLIC 'CODE'
text$yc	ENDS
CRT$XCA	SEGMENT DWORD USE32 PUBLIC 'DATA'
CRT$XCA	ENDS
CRT$XCU	SEGMENT DWORD USE32 PUBLIC 'DATA'
CRT$XCU	ENDS
CRT$XCL	SEGMENT DWORD USE32 PUBLIC 'DATA'
CRT$XCL	ENDS
CRT$XCC	SEGMENT DWORD USE32 PUBLIC 'DATA'
CRT$XCC	ENDS
CRT$XCZ	SEGMENT DWORD USE32 PUBLIC 'DATA'
CRT$XCZ	ENDS
text$yd	SEGMENT PARA USE32 PUBLIC 'CODE'
text$yd	ENDS
xdata$x	SEGMENT DWORD USE32 PUBLIC 'CONST'
xdata$x	ENDS
text$AFX_COL1	SEGMENT PARA USE32 PUBLIC ''
text$AFX_COL1	ENDS
;	COMDAT ?Profile_Get_Ticks@@YAXPA_J@Z
_TEXT	SEGMENT PARA USE32 PUBLIC 'CODE'
_TEXT	ENDS
;	COMDAT ?Profile_Get_Tick_Rate@@YAMXZ
_TEXT	SEGMENT PARA USE32 PUBLIC 'CODE'
_TEXT	ENDS
;	COMDAT ??0CProfileNode@@QAE@PBDPAV0@@Z
_TEXT	SEGMENT PARA USE32 PUBLIC 'CODE'
_TEXT	ENDS
;	COMDAT ??1CProfileNode@@QAE@XZ
_TEXT	SEGMENT PARA USE32 PUBLIC 'CODE'
_TEXT	ENDS
;	COMDAT ??_GCProfileNode@@QAEPAXI@Z
_TEXT	SEGMENT PARA USE32 PUBLIC 'CODE'
_TEXT	ENDS
;	COMDAT ?Get_Sub_Node@CProfileNode@@QAEPAV1@PBD@Z
_TEXT	SEGMENT PARA USE32 PUBLIC 'CODE'
_TEXT	ENDS
;	COMDAT ?Reset@CProfileNode@@QAEXXZ
_TEXT	SEGMENT PARA USE32 PUBLIC 'CODE'
_TEXT	ENDS
;	COMDAT ?Call@CProfileNode@@QAEXXZ
_TEXT	SEGMENT PARA USE32 PUBLIC 'CODE'
_TEXT	ENDS
;	COMDAT ?Return@CProfileNode@@QAE_NXZ
_TEXT	SEGMENT PARA USE32 PUBLIC 'CODE'
_TEXT	ENDS
;	COMDAT ??0CProfileIterator@@IAE@PAVCProfileNode@@@Z
_TEXT	SEGMENT PARA USE32 PUBLIC 'CODE'
_TEXT	ENDS
;	COMDAT ?First@CProfileIterator@@QAEXXZ
_TEXT	SEGMENT PARA USE32 PUBLIC 'CODE'
_TEXT	ENDS
;	COMDAT ?Next@CProfileIterator@@QAEXXZ
_TEXT	SEGMENT PARA USE32 PUBLIC 'CODE'
_TEXT	ENDS
;	COMDAT ?NextPreOrder@CProfileIterator@@QAEXXZ
_TEXT	SEGMENT PARA USE32 PUBLIC 'CODE'
_TEXT	ENDS
;	COMDAT ?Is_Done@CProfileIterator@@QAE_NXZ
_TEXT	SEGMENT PARA USE32 PUBLIC 'CODE'
_TEXT	ENDS
;	COMDAT ?Enter_Child@CProfileIterator@@QAEXH@Z
_TEXT	SEGMENT PARA USE32 PUBLIC 'CODE'
_TEXT	ENDS
;	COMDAT ?Enter_Parent@CProfileIterator@@QAEXXZ
_TEXT	SEGMENT PARA USE32 PUBLIC 'CODE'
_TEXT	ENDS
;	COMDAT _$E1
text$yc	SEGMENT PARA USE32 PUBLIC 'CODE'
text$yc	ENDS
;	COMDAT _$E2
text$yd	SEGMENT PARA USE32 PUBLIC 'CODE'
text$yd	ENDS
;	COMDAT ?Start_Profile@CProfileManager@@SAXPBD@Z
_TEXT	SEGMENT PARA USE32 PUBLIC 'CODE'
_TEXT	ENDS
;	COMDAT ?Stop_Profile@CProfileManager@@SAXXZ
_TEXT	SEGMENT PARA USE32 PUBLIC 'CODE'
_TEXT	ENDS
;	COMDAT ?Reset@CProfileManager@@SAXXZ
_TEXT	SEGMENT PARA USE32 PUBLIC 'CODE'
_TEXT	ENDS
;	COMDAT ?Increment_Frame_Counter@CProfileManager@@SAXXZ
_TEXT	SEGMENT PARA USE32 PUBLIC 'CODE'
_TEXT	ENDS
;	COMDAT ?Get_Time_Since_Reset@CProfileManager@@SAMXZ
_TEXT	SEGMENT PARA USE32 PUBLIC 'CODE'
_TEXT	ENDS
;	COMDAT ?compare@?$basic_string@DU?$char_traits@D@std@@V?$allocator@D@2@@std@@QBEHABV12@@Z
_TEXT	SEGMENT PARA USE32 PUBLIC 'CODE'
_TEXT	ENDS
;	COMDAT ?IsFull@?$CStack@K@@QAEHXZ
_TEXT	SEGMENT PARA USE32 PUBLIC 'CODE'
_TEXT	ENDS
;	COMDAT ??0?$pair@KPAVCCtrl@@@std@@QAE@ABKABQAVCCtrl@@@Z
_TEXT	SEGMENT PARA USE32 PUBLIC 'CODE'
_TEXT	ENDS
;	COMDAT ?GetMax@?$CItemContainer@VCItemElem@@@@QAEHXZ
_TEXT	SEGMENT PARA USE32 PUBLIC 'CODE'
_TEXT	ENDS
;	COMDAT ??0?$deque@PAUtagACTMSG@@V?$allocator@PAUtagACTMSG@@@std@@@std@@QAE@XZ
_TEXT	SEGMENT PARA USE32 PUBLIC 'CODE'
_TEXT	ENDS
;	COMDAT ??1?$deque@PAUtagACTMSG@@V?$allocator@PAUtagACTMSG@@@std@@@std@@QAE@XZ
_TEXT	SEGMENT PARA USE32 PUBLIC 'CODE'
_TEXT	ENDS
;	COMDAT ?begin@?$deque@PAUtagACTMSG@@V?$allocator@PAUtagACTMSG@@@std@@@std@@QAE?AViterator@12@XZ
_TEXT	SEGMENT PARA USE32 PUBLIC 'CODE'
_TEXT	ENDS
;	COMDAT ?end@?$deque@PAUtagACTMSG@@V?$allocator@PAUtagACTMSG@@@std@@@std@@QAE?AViterator@12@XZ
_TEXT	SEGMENT PARA USE32 PUBLIC 'CODE'
_TEXT	ENDS
;	COMDAT ?empty@?$deque@PAUtagACTMSG@@V?$allocator@PAUtagACTMSG@@@std@@@std@@QBE_NXZ
_TEXT	SEGMENT PARA USE32 PUBLIC 'CODE'
_TEXT	ENDS
;	COMDAT ?clear@?$deque@PAUtagACTMSG@@V?$allocator@PAUtagACTMSG@@@std@@@std@@QAEXXZ
_TEXT	SEGMENT PARA USE32 PUBLIC 'CODE'
_TEXT	ENDS
;	COMDAT ??0?$deque@PAUtagMAGICATKMSG@@V?$allocator@PAUtagMAGICATKMSG@@@std@@@std@@QAE@XZ
_TEXT	SEGMENT PARA USE32 PUBLIC 'CODE'
_TEXT	ENDS
;	COMDAT ??1?$deque@PAUtagMAGICATKMSG@@V?$allocator@PAUtagMAGICATKMSG@@@std@@@std@@QAE@XZ
_TEXT	SEGMENT PARA USE32 PUBLIC 'CODE'
_TEXT	ENDS
;	COMDAT ?begin@?$deque@PAUtagMAGICATKMSG@@V?$allocator@PAUtagMAGICATKMSG@@@std@@@std@@QAE?AViterator@12@XZ
_TEXT	SEGMENT PARA USE32 PUBLIC 'CODE'
_TEXT	ENDS
;	COMDAT ?end@?$deque@PAUtagMAGICATKMSG@@V?$allocator@PAUtagMAGICATKMSG@@@std@@@std@@QAE?AViterator@12@XZ
_TEXT	SEGMENT PARA USE32 PUBLIC 'CODE'
_TEXT	ENDS
;	COMDAT ?empty@?$deque@PAUtagMAGICATKMSG@@V?$allocator@PAUtagMAGICATKMSG@@@std@@@std@@QBE_NXZ
_TEXT	SEGMENT PARA USE32 PUBLIC 'CODE'
_TEXT	ENDS
;	COMDAT ?clear@?$deque@PAUtagMAGICATKMSG@@V?$allocator@PAUtagMAGICATKMSG@@@std@@@std@@QAEXXZ
_TEXT	SEGMENT PARA USE32 PUBLIC 'CODE'
_TEXT	ENDS
;	COMDAT ??Diterator@?$deque@PAUtagACTMSG@@V?$allocator@PAUtagACTMSG@@@std@@@std@@QBEAAPAUtagACTMSG@@XZ
_TEXT	SEGMENT PARA USE32 PUBLIC 'CODE'
_TEXT	ENDS
;	COMDAT ??Eiterator@?$deque@PAUtagACTMSG@@V?$allocator@PAUtagACTMSG@@@std@@@std@@QAEAAV012@XZ
_TEXT	SEGMENT PARA USE32 PUBLIC 'CODE'
_TEXT	ENDS
;	COMDAT ??9const_iterator@?$deque@PAUtagACTMSG@@V?$allocator@PAUtagACTMSG@@@std@@@std@@QBE_NABV012@@Z
_TEXT	SEGMENT PARA USE32 PUBLIC 'CODE'
_TEXT	ENDS
;	COMDAT ??Diterator@?$deque@PAUtagMAGICATKMSG@@V?$allocator@PAUtagMAGICATKMSG@@@std@@@std@@QBEAAPAUtagMAGICATKMSG@@XZ
_TEXT	SEGMENT PARA USE32 PUBLIC 'CODE'
_TEXT	ENDS
;	COMDAT ??Eiterator@?$deque@PAUtagMAGICATKMSG@@V?$allocator@PAUtagMAGICATKMSG@@@std@@@std@@QAEAAV012@XZ
_TEXT	SEGMENT PARA USE32 PUBLIC 'CODE'
_TEXT	ENDS
;	COMDAT ??9const_iterator@?$deque@PAUtagMAGICATKMSG@@V?$allocator@PAUtagMAGICATKMSG@@@std@@@std@@QBE_NABV012@@Z
_TEXT	SEGMENT PARA USE32 PUBLIC 'CODE'
_TEXT	ENDS
;	COMDAT ?compare@?$basic_string@DU?$char_traits@D@std@@V?$allocator@D@2@@std@@QBEHIIPBDI@Z
_TEXT	SEGMENT PARA USE32 PUBLIC 'CODE'
_TEXT	ENDS
;	COMDAT ?_Tidy@?$deque@PAUtagACTMSG@@V?$allocator@PAUtagACTMSG@@@std@@@std@@IAEXXZ
_TEXT	SEGMENT PARA USE32 PUBLIC 'CODE'
_TEXT	ENDS
;	COMDAT ??0?$_Deque_val@PAUtagACTMSG@@V?$allocator@PAUtagACTMSG@@@std@@@std@@IAE@V?$allocator@PAUtagACTMSG@@@1@@Z
_TEXT	SEGMENT PARA USE32 PUBLIC 'CODE'
_TEXT	ENDS
;	COMDAT ??0?$allocator@PAUtagACTMSG@@@std@@QAE@XZ
_TEXT	SEGMENT PARA USE32 PUBLIC 'CODE'
_TEXT	ENDS
;	COMDAT ?_Tidy@?$deque@PAUtagMAGICATKMSG@@V?$allocator@PAUtagMAGICATKMSG@@@std@@@std@@IAEXXZ
_TEXT	SEGMENT PARA USE32 PUBLIC 'CODE'
_TEXT	ENDS
;	COMDAT ??0?$_Deque_val@PAUtagMAGICATKMSG@@V?$allocator@PAUtagMAGICATKMSG@@@std@@@std@@IAE@V?$allocator@PAUtagMAGICATKMSG@@@1@@Z
_TEXT	SEGMENT PARA USE32 PUBLIC 'CODE'
_TEXT	ENDS
;	COMDAT ??0?$allocator@PAUtagMAGICATKMSG@@@std@@QAE@XZ
_TEXT	SEGMENT PARA USE32 PUBLIC 'CODE'
_TEXT	ENDS
;	COMDAT ??0iterator@?$deque@PAUtagACTMSG@@V?$allocator@PAUtagACTMSG@@@std@@@std@@QAE@IPBV12@@Z
_TEXT	SEGMENT PARA USE32 PUBLIC 'CODE'
_TEXT	ENDS
;	COMDAT ??Dconst_iterator@?$deque@PAUtagACTMSG@@V?$allocator@PAUtagACTMSG@@@std@@@std@@QBEABQAUtagACTMSG@@XZ
_TEXT	SEGMENT PARA USE32 PUBLIC 'CODE'
_TEXT	ENDS
;	COMDAT ??8const_iterator@?$deque@PAUtagACTMSG@@V?$allocator@PAUtagACTMSG@@@std@@@std@@QBE_NABV012@@Z
_TEXT	SEGMENT PARA USE32 PUBLIC 'CODE'
_TEXT	ENDS
;	COMDAT ??0iterator@?$deque@PAUtagMAGICATKMSG@@V?$allocator@PAUtagMAGICATKMSG@@@std@@@std@@QAE@IPBV12@@Z
_TEXT	SEGMENT PARA USE32 PUBLIC 'CODE'
_TEXT	ENDS
;	COMDAT ??Dconst_iterator@?$deque@PAUtagMAGICATKMSG@@V?$allocator@PAUtagMAGICATKMSG@@@std@@@std@@QBEABQAUtagMAGICATKMSG@@XZ
_TEXT	SEGMENT PARA USE32 PUBLIC 'CODE'
_TEXT	ENDS
;	COMDAT ??8const_iterator@?$deque@PAUtagMAGICATKMSG@@V?$allocator@PAUtagMAGICATKMSG@@@std@@@std@@QBE_NABV012@@Z
_TEXT	SEGMENT PARA USE32 PUBLIC 'CODE'
_TEXT	ENDS
;	COMDAT ?pop_back@?$deque@PAUtagACTMSG@@V?$allocator@PAUtagACTMSG@@@std@@@std@@QAEXXZ
_TEXT	SEGMENT PARA USE32 PUBLIC 'CODE'
_TEXT	ENDS
;	COMDAT ??0?$_Deque_map@PAUtagACTMSG@@V?$allocator@PAUtagACTMSG@@@std@@@std@@IAE@V?$allocator@PAUtagACTMSG@@@1@@Z
_TEXT	SEGMENT PARA USE32 PUBLIC 'CODE'
_TEXT	ENDS
;	COMDAT ??0?$allocator@PAUtagACTMSG@@@std@@QAE@ABV01@@Z
_TEXT	SEGMENT PARA USE32 PUBLIC 'CODE'
_TEXT	ENDS
;	COMDAT ?deallocate@?$allocator@PAUtagACTMSG@@@std@@QAEXPAPAUtagACTMSG@@I@Z
_TEXT	SEGMENT PARA USE32 PUBLIC 'CODE'
_TEXT	ENDS
;	COMDAT ?deallocate@?$allocator@PAPAUtagACTMSG@@@std@@QAEXPAPAPAUtagACTMSG@@I@Z
_TEXT	SEGMENT PARA USE32 PUBLIC 'CODE'
_TEXT	ENDS
;	COMDAT ?destroy@?$allocator@PAPAUtagACTMSG@@@std@@QAEXPAPAPAUtagACTMSG@@@Z
_TEXT	SEGMENT PARA USE32 PUBLIC 'CODE'
_TEXT	ENDS
;	COMDAT ?pop_back@?$deque@PAUtagMAGICATKMSG@@V?$allocator@PAUtagMAGICATKMSG@@@std@@@std@@QAEXXZ
_TEXT	SEGMENT PARA USE32 PUBLIC 'CODE'
_TEXT	ENDS
;	COMDAT ??0?$_Deque_map@PAUtagMAGICATKMSG@@V?$allocator@PAUtagMAGICATKMSG@@@std@@@std@@IAE@V?$allocator@PAUtagMAGICATKMSG@@@1@@Z
_TEXT	SEGMENT PARA USE32 PUBLIC 'CODE'
_TEXT	ENDS
;	COMDAT ??0?$allocator@PAUtagMAGICATKMSG@@@std@@QAE@ABV01@@Z
_TEXT	SEGMENT PARA USE32 PUBLIC 'CODE'
_TEXT	ENDS
;	COMDAT ?deallocate@?$allocator@PAUtagMAGICATKMSG@@@std@@QAEXPAPAUtagMAGICATKMSG@@I@Z
_TEXT	SEGMENT PARA USE32 PUBLIC 'CODE'
_TEXT	ENDS
;	COMDAT ?deallocate@?$allocator@PAPAUtagMAGICATKMSG@@@std@@QAEXPAPAPAUtagMAGICATKMSG@@I@Z
_TEXT	SEGMENT PARA USE32 PUBLIC 'CODE'
_TEXT	ENDS
;	COMDAT ?destroy@?$allocator@PAPAUtagMAGICATKMSG@@@std@@QAEXPAPAPAUtagMAGICATKMSG@@@Z
_TEXT	SEGMENT PARA USE32 PUBLIC 'CODE'
_TEXT	ENDS
;	COMDAT ??0const_iterator@?$deque@PAUtagACTMSG@@V?$allocator@PAUtagACTMSG@@@std@@@std@@QAE@IPBV12@@Z
_TEXT	SEGMENT PARA USE32 PUBLIC 'CODE'
_TEXT	ENDS
;	COMDAT ??0const_iterator@?$deque@PAUtagMAGICATKMSG@@V?$allocator@PAUtagMAGICATKMSG@@@std@@@std@@QAE@IPBV12@@Z
_TEXT	SEGMENT PARA USE32 PUBLIC 'CODE'
_TEXT	ENDS
;	COMDAT ?destroy@?$allocator@PAUtagACTMSG@@@std@@QAEXPAPAUtagACTMSG@@@Z
_TEXT	SEGMENT PARA USE32 PUBLIC 'CODE'
_TEXT	ENDS
;	COMDAT ?destroy@?$allocator@PAUtagMAGICATKMSG@@@std@@QAEXPAPAUtagMAGICATKMSG@@@Z
_TEXT	SEGMENT PARA USE32 PUBLIC 'CODE'
_TEXT	ENDS
;	COMDAT ??$_Iter_cat@Vconst_iterator@?$vector@EV?$allocator@E@std@@@std@@@std@@YA?AUrandom_access_iterator_tag@0@ABVconst_iterator@?$vector@EV?$allocator@E@std@@@0@@Z
_TEXT	SEGMENT PARA USE32 PUBLIC 'CODE'
_TEXT	ENDS
;	COMDAT ??$_Assign@Vconst_iterator@?$vector@EV?$allocator@E@std@@@std@@@?$vector@EV?$allocator@E@std@@@std@@QAEXVconst_iterator@01@0Uinput_iterator_tag@1@@Z
_TEXT	SEGMENT PARA USE32 PUBLIC 'CODE'
_TEXT	ENDS
;	COMDAT ??$_Iter_cat@Viterator@?$_Tree@V?$_Tmap_traits@KPAVCUser@@U?$less@K@std@@V?$allocator@U?$pair@$$CBKPAVCUser@@@std@@@3@$0A@@std@@@std@@@std@@YA?AUbidirectional_iterator_tag@0@ABViterator@?$_Tree@V?$_Tmap_traits@KPAVCUser@@U?$less@K@std@@V?$allocator@U?$pair@$$CBKPAVCUser@@@std@@@3@$0A@@std@@@0@@Z
_TEXT	SEGMENT PARA USE32 PUBLIC 'CODE'
_TEXT	ENDS
;	COMDAT ??$_Distance2@Viterator@?$_Tree@V?$_Tmap_traits@KPAVCUser@@U?$less@K@std@@V?$allocator@U?$pair@$$CBKPAVCUser@@@std@@@3@$0A@@std@@@std@@I@std@@YAXViterator@?$_Tree@V?$_Tmap_traits@KPAVCUser@@U?$less@K@std@@V?$allocator@U?$pair@$$CBKPAVCUser@@@std@@@3@$0A@@std@@@0@0AAIUbidirectional_iterator_tag@0@@Z
_TEXT	SEGMENT PARA USE32 PUBLIC 'CODE'
_TEXT	ENDS
;	COMDAT ??$_Iter_cat@Viterator@?$_Tree@V?$_Tmap_traits@KPAVCCtrl@@U?$less@K@std@@V?$allocator@U?$pair@$$CBKPAVCCtrl@@@std@@@3@$0A@@std@@@std@@@std@@YA?AUbidirectional_iterator_tag@0@ABViterator@?$_Tree@V?$_Tmap_traits@KPAVCCtrl@@U?$less@K@std@@V?$allocator@U?$pair@$$CBKPAVCCtrl@@@std@@@3@$0A@@std@@@0@@Z
_TEXT	SEGMENT PARA USE32 PUBLIC 'CODE'
_TEXT	ENDS
;	COMDAT ??$_Distance2@Viterator@?$_Tree@V?$_Tmap_traits@KPAVCCtrl@@U?$less@K@std@@V?$allocator@U?$pair@$$CBKPAVCCtrl@@@std@@@3@$0A@@std@@@std@@I@std@@YAXViterator@?$_Tree@V?$_Tmap_traits@KPAVCCtrl@@U?$less@K@std@@V?$allocator@U?$pair@$$CBKPAVCCtrl@@@std@@@3@$0A@@std@@@0@0AAIUbidirectional_iterator_tag@0@@Z
_TEXT	SEGMENT PARA USE32 PUBLIC 'CODE'
_TEXT	ENDS
;	COMDAT ??$_Uninitialized_copy@Vconst_iterator@?$vector@EV?$allocator@E@std@@@std@@PAEV?$allocator@E@3@@std@@YAPAEVconst_iterator@?$vector@EV?$allocator@E@std@@@0@0PAEAAV?$allocator@E@0@@Z
_TEXT	SEGMENT PARA USE32 PUBLIC 'CODE'
_TEXT	ENDS
;	COMDAT ??$_Iter_cat@Viterator@?$_Tree@V?$_Tmap_traits@KEU?$less@K@std@@V?$allocator@U?$pair@$$CBKE@std@@@2@$0A@@std@@@std@@@std@@YA?AUbidirectional_iterator_tag@0@ABViterator@?$_Tree@V?$_Tmap_traits@KEU?$less@K@std@@V?$allocator@U?$pair@$$CBKE@std@@@2@$0A@@std@@@0@@Z
_TEXT	SEGMENT PARA USE32 PUBLIC 'CODE'
_TEXT	ENDS
;	COMDAT ??$_Distance2@Viterator@?$_Tree@V?$_Tmap_traits@KEU?$less@K@std@@V?$allocator@U?$pair@$$CBKE@std@@@2@$0A@@std@@@std@@I@std@@YAXViterator@?$_Tree@V?$_Tmap_traits@KEU?$less@K@std@@V?$allocator@U?$pair@$$CBKE@std@@@2@$0A@@std@@@0@0AAIUbidirectional_iterator_tag@0@@Z
_TEXT	SEGMENT PARA USE32 PUBLIC 'CODE'
_TEXT	ENDS
;	COMDAT ??$_Ptr_cat@PAU__SPAWNREGION@CEventLua@@PAU12@@std@@YA?AU_Nonscalar_ptr_iterator_tag@0@AAPAU__SPAWNREGION@CEventLua@@0@Z
_TEXT	SEGMENT PARA USE32 PUBLIC 'CODE'
_TEXT	ENDS
;	COMDAT ??$_Uninit_fill_n@PAU__SPAWNREGION@CEventLua@@IU12@V?$allocator@U__SPAWNREGION@CEventLua@@@std@@@std@@YAXPAU__SPAWNREGION@CEventLua@@IABU12@AAV?$allocator@U__SPAWNREGION@CEventLua@@@0@U_Nonscalar_ptr_iterator_tag@0@@Z
_TEXT	SEGMENT PARA USE32 PUBLIC 'CODE'
_TEXT	ENDS
;	COMDAT ??$_Copy_opt@PAJPAJ@std@@YAPAJPAJ00U_Scalar_ptr_iterator_tag@0@@Z
_TEXT	SEGMENT PARA USE32 PUBLIC 'CODE'
_TEXT	ENDS
;	COMDAT ??$_Uninitialized_copy@PAJPAJV?$allocator@J@std@@@std@@YAPAJPAJ00AAV?$allocator@J@0@@Z
_TEXT	SEGMENT PARA USE32 PUBLIC 'CODE'
_TEXT	ENDS
;	COMDAT ??$_Copy_backward_opt@PAJPAJ@std@@YAPAJPAJ00U_Scalar_ptr_iterator_tag@0@@Z
_TEXT	SEGMENT PARA USE32 PUBLIC 'CODE'
_TEXT	ENDS
;	COMDAT ??$_Ptr_cat@PAUtagDROPITEM@@PAU1@@std@@YA?AU_Nonscalar_ptr_iterator_tag@0@AAPAUtagDROPITEM@@0@Z
_TEXT	SEGMENT PARA USE32 PUBLIC 'CODE'
_TEXT	ENDS
;	COMDAT ??$_Destroy_range@UtagDROPITEM@@V?$allocator@UtagDROPITEM@@@std@@@std@@YAXPAUtagDROPITEM@@0AAV?$allocator@UtagDROPITEM@@@0@U_Nonscalar_ptr_iterator_tag@0@@Z
_TEXT	SEGMENT PARA USE32 PUBLIC 'CODE'
_TEXT	ENDS
;	COMDAT ??$_Ptr_cat@PAUWORMON@@PAU1@@std@@YA?AU_Nonscalar_ptr_iterator_tag@0@AAPAUWORMON@@0@Z
_TEXT	SEGMENT PARA USE32 PUBLIC 'CODE'
_TEXT	ENDS
;	COMDAT ??$_Destroy_range@UWORMON@@V?$allocator@UWORMON@@@std@@@std@@YAXPAUWORMON@@0AAV?$allocator@UWORMON@@@0@U_Nonscalar_ptr_iterator_tag@0@@Z
_TEXT	SEGMENT PARA USE32 PUBLIC 'CODE'
_TEXT	ENDS
;	COMDAT ??$_Ptr_cat@PAU__ITEMGAME@CMiniGame@@PAU12@@std@@YA?AU_Nonscalar_ptr_iterator_tag@0@AAPAU__ITEMGAME@CMiniGame@@0@Z
_TEXT	SEGMENT PARA USE32 PUBLIC 'CODE'
_TEXT	ENDS
;	COMDAT ??$_Destroy_range@U__ITEMGAME@CMiniGame@@V?$allocator@U__ITEMGAME@CMiniGame@@@std@@@std@@YAXPAU__ITEMGAME@CMiniGame@@0AAV?$allocator@U__ITEMGAME@CMiniGame@@@0@U_Nonscalar_ptr_iterator_tag@0@@Z
_TEXT	SEGMENT PARA USE32 PUBLIC 'CODE'
_TEXT	ENDS
;	COMDAT ??$_Destroy_range@KV?$allocator@K@std@@@std@@YAXPAK0AAV?$allocator@K@0@U_Scalar_ptr_iterator_tag@0@@Z
_TEXT	SEGMENT PARA USE32 PUBLIC 'CODE'
_TEXT	ENDS
;	COMDAT ??$_Destroy_range@HV?$allocator@H@std@@@std@@YAXPAH0AAV?$allocator@H@0@U_Scalar_ptr_iterator_tag@0@@Z
_TEXT	SEGMENT PARA USE32 PUBLIC 'CODE'
_TEXT	ENDS
;	COMDAT ??$_Ptr_cat@PAU__ITEM@CExchange@@PAU12@@std@@YA?AU_Nonscalar_ptr_iterator_tag@0@AAPAU__ITEM@CExchange@@0@Z
_TEXT	SEGMENT PARA USE32 PUBLIC 'CODE'
_TEXT	ENDS
;	COMDAT ??$_Destroy_range@U__ITEM@CExchange@@V?$allocator@U__ITEM@CExchange@@@std@@@std@@YAXPAU__ITEM@CExchange@@0AAV?$allocator@U__ITEM@CExchange@@@0@U_Nonscalar_ptr_iterator_tag@0@@Z
_TEXT	SEGMENT PARA USE32 PUBLIC 'CODE'
_TEXT	ENDS
;	COMDAT ??$_Ptr_cat@PAU__POINT@CExchange@@PAU12@@std@@YA?AU_Nonscalar_ptr_iterator_tag@0@AAPAU__POINT@CExchange@@0@Z
_TEXT	SEGMENT PARA USE32 PUBLIC 'CODE'
_TEXT	ENDS
;	COMDAT ??$_Destroy_range@U__POINT@CExchange@@V?$allocator@U__POINT@CExchange@@@std@@@std@@YAXPAU__POINT@CExchange@@0AAV?$allocator@U__POINT@CExchange@@@0@U_Nonscalar_ptr_iterator_tag@0@@Z
_TEXT	SEGMENT PARA USE32 PUBLIC 'CODE'
_TEXT	ENDS
;	COMDAT ??$_Destroy_range@EV?$allocator@E@std@@@std@@YAXPAE0AAV?$allocator@E@0@U_Scalar_ptr_iterator_tag@0@@Z
_TEXT	SEGMENT PARA USE32 PUBLIC 'CODE'
_TEXT	ENDS
;	COMDAT ??$_Uninitialized_copy@PAU__SPAWNREGION@CEventLua@@PAU12@V?$allocator@U__SPAWNREGION@CEventLua@@@std@@@std@@YAPAU__SPAWNREGION@CEventLua@@PAU12@00AAV?$allocator@U__SPAWNREGION@CEventLua@@@0@@Z
_TEXT	SEGMENT PARA USE32 PUBLIC 'CODE'
_TEXT	ENDS
;	COMDAT ??$_Copy_backward_opt@PAU__SPAWNREGION@CEventLua@@PAU12@@std@@YAPAU__SPAWNREGION@CEventLua@@PAU12@00U_Nonscalar_ptr_iterator_tag@0@@Z
_TEXT	SEGMENT PARA USE32 PUBLIC 'CODE'
_TEXT	ENDS
;	COMDAT ??$_Ptr_cat@PAUD3DXVECTOR3@@PAU1@@std@@YA?AU_Nonscalar_ptr_iterator_tag@0@AAPAUD3DXVECTOR3@@0@Z
_TEXT	SEGMENT PARA USE32 PUBLIC 'CODE'
_TEXT	ENDS
;	COMDAT ??$_Destroy_range@UD3DXVECTOR3@@V?$allocator@UD3DXVECTOR3@@@std@@@std@@YAXPAUD3DXVECTOR3@@0AAV?$allocator@UD3DXVECTOR3@@@0@U_Nonscalar_ptr_iterator_tag@0@@Z
_TEXT	SEGMENT PARA USE32 PUBLIC 'CODE'
_TEXT	ENDS
;	COMDAT ??$_Ptr_cat@PAU_GIFTBOX@@PAU1@@std@@YA?AU_Nonscalar_ptr_iterator_tag@0@AAPAU_GIFTBOX@@0@Z
_TEXT	SEGMENT PARA USE32 PUBLIC 'CODE'
_TEXT	ENDS
;	COMDAT ??$_Destroy_range@U_GIFTBOX@@V?$allocator@U_GIFTBOX@@@std@@@std@@YAXPAU_GIFTBOX@@0AAV?$allocator@U_GIFTBOX@@@0@U_Nonscalar_ptr_iterator_tag@0@@Z
_TEXT	SEGMENT PARA USE32 PUBLIC 'CODE'
_TEXT	ENDS
;	COMDAT ??$_Destroy_range@JV?$allocator@J@std@@@std@@YAXPAJ0AAV?$allocator@J@0@U_Scalar_ptr_iterator_tag@0@@Z
_TEXT	SEGMENT PARA USE32 PUBLIC 'CODE'
_TEXT	ENDS
;	COMDAT ??$_Uninit_fill_n@JIJ@std@@YAXPAJIABJAAV?$allocator@J@0@U_Scalar_ptr_iterator_tag@0@@Z
_TEXT	SEGMENT PARA USE32 PUBLIC 'CODE'
_TEXT	ENDS
;	COMDAT ??$_Destroy_range@U__SPAWNREGION@CEventLua@@V?$allocator@U__SPAWNREGION@CEventLua@@@std@@@std@@YAXPAU__SPAWNREGION@CEventLua@@0AAV?$allocator@U__SPAWNREGION@CEventLua@@@0@U_Nonscalar_ptr_iterator_tag@0@@Z
_TEXT	SEGMENT PARA USE32 PUBLIC 'CODE'
_TEXT	ENDS
;	COMDAT ??$?0PAUtagACTMSG@@@?$allocator@PAPAUtagACTMSG@@@std@@QAE@ABV?$allocator@PAUtagACTMSG@@@1@@Z
_TEXT	SEGMENT PARA USE32 PUBLIC 'CODE'
_TEXT	ENDS
;	COMDAT ??$_Destroy@PAPAUtagACTMSG@@@std@@YAXPAPAPAUtagACTMSG@@@Z
_TEXT	SEGMENT PARA USE32 PUBLIC 'CODE'
_TEXT	ENDS
;	COMDAT ??$?0PAUtagMAGICATKMSG@@@?$allocator@PAPAUtagMAGICATKMSG@@@std@@QAE@ABV?$allocator@PAUtagMAGICATKMSG@@@1@@Z
_TEXT	SEGMENT PARA USE32 PUBLIC 'CODE'
_TEXT	ENDS
;	COMDAT ??$_Destroy@PAPAUtagMAGICATKMSG@@@std@@YAXPAPAPAUtagMAGICATKMSG@@@Z
_TEXT	SEGMENT PARA USE32 PUBLIC 'CODE'
_TEXT	ENDS
;	COMDAT ??$_Destroy@PAUtagACTMSG@@@std@@YAXPAPAUtagACTMSG@@@Z
_TEXT	SEGMENT PARA USE32 PUBLIC 'CODE'
_TEXT	ENDS
;	COMDAT ??$_Destroy@PAUtagMAGICATKMSG@@@std@@YAXPAPAUtagMAGICATKMSG@@@Z
_TEXT	SEGMENT PARA USE32 PUBLIC 'CODE'
_TEXT	ENDS
;	COMDAT ?destroy@?$allocator@UtagDROPITEM@@@std@@QAEXPAUtagDROPITEM@@@Z
_TEXT	SEGMENT PARA USE32 PUBLIC 'CODE'
_TEXT	ENDS
;	COMDAT ?destroy@?$allocator@UWORMON@@@std@@QAEXPAUWORMON@@@Z
_TEXT	SEGMENT PARA USE32 PUBLIC 'CODE'
_TEXT	ENDS
;	COMDAT ?destroy@?$allocator@U__ITEMGAME@CMiniGame@@@std@@QAEXPAU__ITEMGAME@CMiniGame@@@Z
_TEXT	SEGMENT PARA USE32 PUBLIC 'CODE'
_TEXT	ENDS
;	COMDAT ?destroy@?$allocator@U__ITEM@CExchange@@@std@@QAEXPAU__ITEM@CExchange@@@Z
_TEXT	SEGMENT PARA USE32 PUBLIC 'CODE'
_TEXT	ENDS
;	COMDAT ?destroy@?$allocator@U__POINT@CExchange@@@std@@QAEXPAU__POINT@CExchange@@@Z
_TEXT	SEGMENT PARA USE32 PUBLIC 'CODE'
_TEXT	ENDS
;	COMDAT ?begin@?$vector@EV?$allocator@E@std@@@std@@QAE?AViterator@12@XZ
_TEXT	SEGMENT PARA USE32 PUBLIC 'CODE'
_TEXT	ENDS
;	COMDAT ?end@?$vector@EV?$allocator@E@std@@@std@@QAE?AViterator@12@XZ
_TEXT	SEGMENT PARA USE32 PUBLIC 'CODE'
_TEXT	ENDS
;	COMDAT ?erase@?$vector@EV?$allocator@E@std@@@std@@QAE?AViterator@12@V312@0@Z
_TEXT	SEGMENT PARA USE32 PUBLIC 'CODE'
_TEXT	ENDS
;	COMDAT ?construct@?$allocator@U__SPAWNREGION@CEventLua@@@std@@QAEXPAU__SPAWNREGION@CEventLua@@ABU34@@Z
_TEXT	SEGMENT PARA USE32 PUBLIC 'CODE'
_TEXT	ENDS
;	COMDAT ?destroy@?$allocator@U__SPAWNREGION@CEventLua@@@std@@QAEXPAU__SPAWNREGION@CEventLua@@@Z
_TEXT	SEGMENT PARA USE32 PUBLIC 'CODE'
_TEXT	ENDS
;	COMDAT ?destroy@?$allocator@UD3DXVECTOR3@@@std@@QAEXPAUD3DXVECTOR3@@@Z
_TEXT	SEGMENT PARA USE32 PUBLIC 'CODE'
_TEXT	ENDS
;	COMDAT ?destroy@?$allocator@U_GIFTBOX@@@std@@QAEXPAU_GIFTBOX@@@Z
_TEXT	SEGMENT PARA USE32 PUBLIC 'CODE'
_TEXT	ENDS
;	COMDAT ??9const_iterator@?$vector@EV?$allocator@E@std@@@std@@QBE_NABV012@@Z
_TEXT	SEGMENT PARA USE32 PUBLIC 'CODE'
_TEXT	ENDS
;	COMDAT ??0iterator@?$vector@EV?$allocator@E@std@@@std@@QAE@PAE@Z
_TEXT	SEGMENT PARA USE32 PUBLIC 'CODE'
_TEXT	ENDS
;	COMDAT ??8const_iterator@?$vector@EV?$allocator@E@std@@@std@@QBE_NABV012@@Z
_TEXT	SEGMENT PARA USE32 PUBLIC 'CODE'
_TEXT	ENDS
;	COMDAT ??$insert@Vconst_iterator@?$vector@EV?$allocator@E@std@@@std@@@?$vector@EV?$allocator@E@std@@@std@@QAEXViterator@01@Vconst_iterator@01@1@Z
_TEXT	SEGMENT PARA USE32 PUBLIC 'CODE'
_TEXT	ENDS
;	COMDAT ??$_Ptr_cat@Vconst_iterator@?$vector@EV?$allocator@E@std@@@std@@PAE@std@@YA?AU_Nonscalar_ptr_iterator_tag@0@AAVconst_iterator@?$vector@EV?$allocator@E@std@@@0@AAPAE@Z
_TEXT	SEGMENT PARA USE32 PUBLIC 'CODE'
_TEXT	ENDS
;	COMDAT ??$_Uninit_copy@Vconst_iterator@?$vector@EV?$allocator@E@std@@@std@@PAEV?$allocator@E@3@@std@@YAPAEVconst_iterator@?$vector@EV?$allocator@E@std@@@0@0PAEAAV?$allocator@E@0@U_Nonscalar_ptr_iterator_tag@0@@Z
_TEXT	SEGMENT PARA USE32 PUBLIC 'CODE'
_TEXT	ENDS
;	COMDAT ??$_Uninit_copy@JJ@std@@YAPAJPAJ00AAV?$allocator@J@0@U_Scalar_ptr_iterator_tag@0@@Z
_TEXT	SEGMENT PARA USE32 PUBLIC 'CODE'
_TEXT	ENDS
;	COMDAT ??$_Uninit_copy@PAU__SPAWNREGION@CEventLua@@PAU12@V?$allocator@U__SPAWNREGION@CEventLua@@@std@@@std@@YAPAU__SPAWNREGION@CEventLua@@PAU12@00AAV?$allocator@U__SPAWNREGION@CEventLua@@@0@U_Nonscalar_ptr_iterator_tag@0@@Z
_TEXT	SEGMENT PARA USE32 PUBLIC 'CODE'
_TEXT	ENDS
;	COMDAT ??$fill_n@PAJIJ@std@@YAXPAJIABJ@Z
_TEXT	SEGMENT PARA USE32 PUBLIC 'CODE'
_TEXT	ENDS
;	COMDAT ??$_Destroy@UtagDROPITEM@@@std@@YAXPAUtagDROPITEM@@@Z
_TEXT	SEGMENT PARA USE32 PUBLIC 'CODE'
_TEXT	ENDS
;	COMDAT ??$_Destroy@UWORMON@@@std@@YAXPAUWORMON@@@Z
_TEXT	SEGMENT PARA USE32 PUBLIC 'CODE'
_TEXT	ENDS
;	COMDAT ??$_Destroy@U__ITEMGAME@CMiniGame@@@std@@YAXPAU__ITEMGAME@CMiniGame@@@Z
_TEXT	SEGMENT PARA USE32 PUBLIC 'CODE'
_TEXT	ENDS
;	COMDAT ??$_Destroy@U__ITEM@CExchange@@@std@@YAXPAU__ITEM@CExchange@@@Z
_TEXT	SEGMENT PARA USE32 PUBLIC 'CODE'
_TEXT	ENDS
;	COMDAT ??$_Destroy@U__POINT@CExchange@@@std@@YAXPAU__POINT@CExchange@@@Z
_TEXT	SEGMENT PARA USE32 PUBLIC 'CODE'
_TEXT	ENDS
;	COMDAT ??$copy@PAEPAE@std@@YAPAEPAE00@Z
_TEXT	SEGMENT PARA USE32 PUBLIC 'CODE'
_TEXT	ENDS
;	COMDAT ??$_Construct@U__SPAWNREGION@CEventLua@@U12@@std@@YAXPAU__SPAWNREGION@CEventLua@@ABU12@@Z
_TEXT	SEGMENT PARA USE32 PUBLIC 'CODE'
_TEXT	ENDS
;	COMDAT ??$_Destroy@U__SPAWNREGION@CEventLua@@@std@@YAXPAU__SPAWNREGION@CEventLua@@@Z
_TEXT	SEGMENT PARA USE32 PUBLIC 'CODE'
_TEXT	ENDS
;	COMDAT ??$_Destroy@UD3DXVECTOR3@@@std@@YAXPAUD3DXVECTOR3@@@Z
_TEXT	SEGMENT PARA USE32 PUBLIC 'CODE'
_TEXT	ENDS
;	COMDAT ??$_Destroy@U_GIFTBOX@@@std@@YAXPAU_GIFTBOX@@@Z
_TEXT	SEGMENT PARA USE32 PUBLIC 'CODE'
_TEXT	ENDS
;	COMDAT ?construct@?$allocator@E@std@@QAEXPAEABE@Z
_TEXT	SEGMENT PARA USE32 PUBLIC 'CODE'
_TEXT	ENDS
;	COMDAT ?destroy@?$allocator@E@std@@QAEXPAE@Z
_TEXT	SEGMENT PARA USE32 PUBLIC 'CODE'
_TEXT	ENDS
;	COMDAT ??Dconst_iterator@?$vector@EV?$allocator@E@std@@@std@@QBEABEXZ
_TEXT	SEGMENT PARA USE32 PUBLIC 'CODE'
_TEXT	ENDS
;	COMDAT ??Econst_iterator@?$vector@EV?$allocator@E@std@@@std@@QAEAAV012@XZ
_TEXT	SEGMENT PARA USE32 PUBLIC 'CODE'
_TEXT	ENDS
;	COMDAT ??$_Insert@Vconst_iterator@?$vector@EV?$allocator@E@std@@@std@@@?$vector@EV?$allocator@E@std@@@std@@QAEXViterator@01@Vconst_iterator@01@1Uforward_iterator_tag@1@@Z
_TEXT	SEGMENT PARA USE32 PUBLIC 'CODE'
_TEXT	ENDS
;	COMDAT ??$_Copy_opt@PAEPAE@std@@YAPAEPAE00U_Scalar_ptr_iterator_tag@0@@Z
_TEXT	SEGMENT PARA USE32 PUBLIC 'CODE'
_TEXT	ENDS
;	COMDAT ??$_Construct@EE@std@@YAXPAEABE@Z
_TEXT	SEGMENT PARA USE32 PUBLIC 'CODE'
_TEXT	ENDS
;	COMDAT ??$_Destroy@E@std@@YAXPAE@Z
_TEXT	SEGMENT PARA USE32 PUBLIC 'CODE'
_TEXT	ENDS
;	COMDAT ?capacity@?$vector@EV?$allocator@E@std@@@std@@QBEIXZ
_TEXT	SEGMENT PARA USE32 PUBLIC 'CODE'
_TEXT	ENDS
;	COMDAT ??Giterator@?$vector@EV?$allocator@E@std@@@std@@QBEHABVconst_iterator@12@@Z
_TEXT	SEGMENT PARA USE32 PUBLIC 'CODE'
_TEXT	ENDS
;	COMDAT ??Gconst_iterator@?$vector@EV?$allocator@E@std@@@std@@QBEHABV012@@Z
_TEXT	SEGMENT PARA USE32 PUBLIC 'CODE'
_TEXT	ENDS
;	COMDAT ??$_Distance@Vconst_iterator@?$vector@EV?$allocator@E@std@@@std@@I@std@@YAXVconst_iterator@?$vector@EV?$allocator@E@std@@@0@0AAI@Z
_TEXT	SEGMENT PARA USE32 PUBLIC 'CODE'
_TEXT	ENDS
;	COMDAT ??$_Ucopy@PAE@?$vector@EV?$allocator@E@std@@@std@@IAEPAEPAE00@Z
_TEXT	SEGMENT PARA USE32 PUBLIC 'CODE'
_TEXT	ENDS
;	COMDAT ??$advance@Vconst_iterator@?$vector@EV?$allocator@E@std@@@std@@H@std@@YAXAAVconst_iterator@?$vector@EV?$allocator@E@std@@@0@H@Z
_TEXT	SEGMENT PARA USE32 PUBLIC 'CODE'
_TEXT	ENDS
;	COMDAT ??$copy@Vconst_iterator@?$vector@EV?$allocator@E@std@@@std@@PAE@std@@YAPAEVconst_iterator@?$vector@EV?$allocator@E@std@@@0@0PAE@Z
_TEXT	SEGMENT PARA USE32 PUBLIC 'CODE'
_TEXT	ENDS
;	COMDAT ??$copy_backward@PAEPAE@std@@YAPAEPAE00@Z
_TEXT	SEGMENT PARA USE32 PUBLIC 'CODE'
_TEXT	ENDS
;	COMDAT ??$_Distance2@Vconst_iterator@?$vector@EV?$allocator@E@std@@@std@@I@std@@YAXVconst_iterator@?$vector@EV?$allocator@E@std@@@0@0AAIUrandom_access_iterator_tag@0@@Z
_TEXT	SEGMENT PARA USE32 PUBLIC 'CODE'
_TEXT	ENDS
;	COMDAT ??$_Uninitialized_copy@PAEPAEV?$allocator@E@std@@@std@@YAPAEPAE00AAV?$allocator@E@0@@Z
_TEXT	SEGMENT PARA USE32 PUBLIC 'CODE'
_TEXT	ENDS
;	COMDAT ??$_Advance@Vconst_iterator@?$vector@EV?$allocator@E@std@@@std@@H@std@@YAXAAVconst_iterator@?$vector@EV?$allocator@E@std@@@0@HUrandom_access_iterator_tag@0@@Z
_TEXT	SEGMENT PARA USE32 PUBLIC 'CODE'
_TEXT	ENDS
;	COMDAT ??$_Copy_opt@Vconst_iterator@?$vector@EV?$allocator@E@std@@@std@@PAE@std@@YAPAEVconst_iterator@?$vector@EV?$allocator@E@std@@@0@0PAEU_Nonscalar_ptr_iterator_tag@0@@Z
_TEXT	SEGMENT PARA USE32 PUBLIC 'CODE'
_TEXT	ENDS
;	COMDAT ??$_Copy_backward_opt@PAEPAE@std@@YAPAEPAE00U_Scalar_ptr_iterator_tag@0@@Z
_TEXT	SEGMENT PARA USE32 PUBLIC 'CODE'
_TEXT	ENDS
;	COMDAT ??Yconst_iterator@?$vector@EV?$allocator@E@std@@@std@@QAEAAV012@H@Z
_TEXT	SEGMENT PARA USE32 PUBLIC 'CODE'
_TEXT	ENDS
;	COMDAT ??$_Uninit_copy@EE@std@@YAPAEPAE00AAV?$allocator@E@0@U_Scalar_ptr_iterator_tag@0@@Z
_TEXT	SEGMENT PARA USE32 PUBLIC 'CODE'
_TEXT	ENDS
;	COMDAT ?deallocate@?$allocator@E@std@@QAEXPAEI@Z
_TEXT	SEGMENT PARA USE32 PUBLIC 'CODE'
_TEXT	ENDS
;	COMDAT ??$_Ucopy@Vconst_iterator@?$vector@EV?$allocator@E@std@@@std@@@?$vector@EV?$allocator@E@std@@@std@@IAEPAEVconst_iterator@01@0PAE@Z
_TEXT	SEGMENT PARA USE32 PUBLIC 'CODE'
_TEXT	ENDS
;	COMDAT ?allocate@?$allocator@E@std@@QAEPAEI@Z
_TEXT	SEGMENT PARA USE32 PUBLIC 'CODE'
_TEXT	ENDS
;	COMDAT ??$_Allocate@E@std@@YAPAEIPAE@Z
_TEXT	SEGMENT PARA USE32 PUBLIC 'CODE'
_TEXT	ENDS
;	COMDAT ?_Xlen@?$vector@EV?$allocator@E@std@@@std@@IBEXXZ
_TEXT	SEGMENT PARA USE32 PUBLIC 'CODE'
_TEXT	ENDS
;	COMDAT ??0length_error@std@@QAE@ABV?$basic_string@DU?$char_traits@D@std@@V?$allocator@D@2@@1@@Z
_TEXT	SEGMENT PARA USE32 PUBLIC 'CODE'
_TEXT	ENDS
;	COMDAT ??0logic_error@std@@QAE@ABV?$basic_string@DU?$char_traits@D@std@@V?$allocator@D@2@@1@@Z
_TEXT	SEGMENT PARA USE32 PUBLIC 'CODE'
_TEXT	ENDS
;	COMDAT ??_7logic_error@std@@6B@
CONST	SEGMENT DWORD USE32 PUBLIC 'CONST'
CONST	ENDS
;	COMDAT ??_Glogic_error@std@@UAEPAXI@Z
_TEXT	SEGMENT PARA USE32 PUBLIC 'CODE'
_TEXT	ENDS
;	COMDAT ?what@logic_error@std@@UBEPBDXZ
_TEXT	SEGMENT PARA USE32 PUBLIC 'CODE'
_TEXT	ENDS
;	COMDAT ?c_str@?$basic_string@DU?$char_traits@D@std@@V?$allocator@D@2@@std@@QBEPBDXZ
_TEXT	SEGMENT PARA USE32 PUBLIC 'CODE'
_TEXT	ENDS
;	COMDAT ??0?$basic_string@DU?$char_traits@D@std@@V?$allocator@D@2@@std@@QAE@ABV01@@Z
_TEXT	SEGMENT PARA USE32 PUBLIC 'CODE'
_TEXT	ENDS
;	COMDAT ??0?$_String_val@DV?$allocator@D@std@@@std@@IAE@V?$allocator@D@1@@Z
_TEXT	SEGMENT PARA USE32 PUBLIC 'CODE'
_TEXT	ENDS
;	COMDAT ??0?$allocator@D@std@@QAE@ABV01@@Z
_TEXT	SEGMENT PARA USE32 PUBLIC 'CODE'
_TEXT	ENDS
;	COMDAT ?_Tidy@?$basic_string@DU?$char_traits@D@std@@V?$allocator@D@2@@std@@IAEX_NI@Z
_TEXT	SEGMENT PARA USE32 PUBLIC 'CODE'
_TEXT	ENDS
;	COMDAT ?copy@?$char_traits@D@std@@SAPADPADPBDI@Z
_TEXT	SEGMENT PARA USE32 PUBLIC 'CODE'
_TEXT	ENDS
;	COMDAT ?deallocate@?$allocator@D@std@@QAEXPADI@Z
_TEXT	SEGMENT PARA USE32 PUBLIC 'CODE'
_TEXT	ENDS
;	COMDAT ?_Eos@?$basic_string@DU?$char_traits@D@std@@V?$allocator@D@2@@std@@IAEXI@Z
_TEXT	SEGMENT PARA USE32 PUBLIC 'CODE'
_TEXT	ENDS
;	COMDAT ?assign@?$char_traits@D@std@@SAXAADABD@Z
_TEXT	SEGMENT PARA USE32 PUBLIC 'CODE'
_TEXT	ENDS
;	COMDAT ?_Myptr@?$basic_string@DU?$char_traits@D@std@@V?$allocator@D@2@@std@@QAEPADXZ
_TEXT	SEGMENT PARA USE32 PUBLIC 'CODE'
_TEXT	ENDS
;	COMDAT ?assign@?$basic_string@DU?$char_traits@D@std@@V?$allocator@D@2@@std@@QAEAAV12@ABV12@II@Z
_TEXT	SEGMENT PARA USE32 PUBLIC 'CODE'
_TEXT	ENDS
;	COMDAT ?erase@?$basic_string@DU?$char_traits@D@std@@V?$allocator@D@2@@std@@QAEAAV12@II@Z
_TEXT	SEGMENT PARA USE32 PUBLIC 'CODE'
_TEXT	ENDS
;	COMDAT ?move@?$char_traits@D@std@@SAPADPADPBDI@Z
_TEXT	SEGMENT PARA USE32 PUBLIC 'CODE'
_TEXT	ENDS
;	COMDAT ?_Grow@?$basic_string@DU?$char_traits@D@std@@V?$allocator@D@2@@std@@IAE_NI_N@Z
_TEXT	SEGMENT PARA USE32 PUBLIC 'CODE'
_TEXT	ENDS
;	COMDAT ?max_size@?$basic_string@DU?$char_traits@D@std@@V?$allocator@D@2@@std@@QBEIXZ
_TEXT	SEGMENT PARA USE32 PUBLIC 'CODE'
_TEXT	ENDS
;	COMDAT ?max_size@?$allocator@D@std@@QBEIXZ
_TEXT	SEGMENT PARA USE32 PUBLIC 'CODE'
_TEXT	ENDS
;	COMDAT ?_Copy@?$basic_string@DU?$char_traits@D@std@@V?$allocator@D@2@@std@@IAEXII@Z
_TEXT	SEGMENT PARA USE32 PUBLIC 'CODE'
_TEXT	ENDS
;	COMDAT ?allocate@?$allocator@D@std@@QAEPADI@Z
_TEXT	SEGMENT PARA USE32 PUBLIC 'CODE'
_TEXT	ENDS
;	COMDAT ??$_Allocate@D@std@@YAPADIPAD@Z
_TEXT	SEGMENT PARA USE32 PUBLIC 'CODE'
_TEXT	ENDS
;	COMDAT ?npos@?$basic_string@DU?$char_traits@D@std@@V?$allocator@D@2@@std@@2IB
CONST	SEGMENT DWORD USE32 PUBLIC 'CONST'
CONST	ENDS
;	COMDAT ??1logic_error@std@@UAE@XZ
_TEXT	SEGMENT PARA USE32 PUBLIC 'CODE'
_TEXT	ENDS
;	COMDAT ??_7length_error@std@@6B@
CONST	SEGMENT DWORD USE32 PUBLIC 'CONST'
CONST	ENDS
;	COMDAT ??_Glength_error@std@@UAEPAXI@Z
_TEXT	SEGMENT PARA USE32 PUBLIC 'CODE'
_TEXT	ENDS
;	COMDAT ??1length_error@std@@UAE@XZ
_TEXT	SEGMENT PARA USE32 PUBLIC 'CODE'
_TEXT	ENDS
;	COMDAT ??0?$basic_string@DU?$char_traits@D@std@@V?$allocator@D@2@@std@@QAE@PBD@Z
_TEXT	SEGMENT PARA USE32 PUBLIC 'CODE'
_TEXT	ENDS
;	COMDAT ??0?$allocator@D@std@@QAE@XZ
_TEXT	SEGMENT PARA USE32 PUBLIC 'CODE'
_TEXT	ENDS
;	COMDAT ?assign@?$basic_string@DU?$char_traits@D@std@@V?$allocator@D@2@@std@@QAEAAV12@PBD@Z
_TEXT	SEGMENT PARA USE32 PUBLIC 'CODE'
_TEXT	ENDS
;	COMDAT ?assign@?$basic_string@DU?$char_traits@D@std@@V?$allocator@D@2@@std@@QAEAAV12@PBDI@Z
_TEXT	SEGMENT PARA USE32 PUBLIC 'CODE'
_TEXT	ENDS
;	COMDAT ?_Inside@?$basic_string@DU?$char_traits@D@std@@V?$allocator@D@2@@std@@IAE_NPBD@Z
_TEXT	SEGMENT PARA USE32 PUBLIC 'CODE'
_TEXT	ENDS
;	COMDAT ?length@?$char_traits@D@std@@SAIPBD@Z
_TEXT	SEGMENT PARA USE32 PUBLIC 'CODE'
_TEXT	ENDS
;	COMDAT ??_C@_0BD@OLBABOEK@vector?$DMT?$DO?5too?5long?$AA@
CONST	SEGMENT DWORD USE32 PUBLIC 'CONST'
CONST	ENDS
;	COMDAT ??1?$basic_string@DU?$char_traits@D@std@@V?$allocator@D@2@@std@@QAE@XZ
_TEXT	SEGMENT PARA USE32 PUBLIC 'CODE'
_TEXT	ENDS
;	COMDAT __TI3?AVlength_error@std@@
xdata$x	SEGMENT DWORD USE32 PUBLIC 'CONST'
xdata$x	ENDS
;	COMDAT __CTA3?AVlength_error@std@@
xdata$x	SEGMENT DWORD USE32 PUBLIC 'CONST'
xdata$x	ENDS
;	COMDAT __CT??_R0?AVlength_error@std@@@8??0length_error@std@@QAE@ABV01@@Z40
xdata$x	SEGMENT DWORD USE32 PUBLIC 'CONST'
xdata$x	ENDS
;	COMDAT ??_R0?AVlength_error@std@@@8
_DATA	SEGMENT DWORD USE32 PUBLIC 'DATA'
_DATA	ENDS
;	COMDAT ??0length_error@std@@QAE@ABV01@@Z
_TEXT	SEGMENT PARA USE32 PUBLIC 'CODE'
_TEXT	ENDS
;	COMDAT ??0logic_error@std@@QAE@ABV01@@Z
_TEXT	SEGMENT PARA USE32 PUBLIC 'CODE'
_TEXT	ENDS
;	COMDAT __CT??_R0?AVlogic_error@std@@@8??0logic_error@std@@QAE@ABV01@@Z40
xdata$x	SEGMENT DWORD USE32 PUBLIC 'CONST'
xdata$x	ENDS
;	COMDAT ??_R0?AVlogic_error@std@@@8
_DATA	SEGMENT DWORD USE32 PUBLIC 'DATA'
_DATA	ENDS
;	COMDAT __CT??_R0?AVexception@@@8??0exception@@QAE@ABV0@@Z12
xdata$x	SEGMENT DWORD USE32 PUBLIC 'CONST'
xdata$x	ENDS
;	COMDAT ??_R0?AVexception@@@8
_DATA	SEGMENT DWORD USE32 PUBLIC 'DATA'
_DATA	ENDS
;	COMDAT ?size@?$vector@EV?$allocator@E@std@@@std@@QBEIXZ
_TEXT	SEGMENT PARA USE32 PUBLIC 'CODE'
_TEXT	ENDS
;	COMDAT ?max_size@?$vector@EV?$allocator@E@std@@@std@@QBEIXZ
_TEXT	SEGMENT PARA USE32 PUBLIC 'CODE'
_TEXT	ENDS
;	COMDAT ?max_size@?$allocator@E@std@@QBEIXZ
_TEXT	SEGMENT PARA USE32 PUBLIC 'CODE'
_TEXT	ENDS
;	COMDAT ??2@YAPAXIPAX@Z
_TEXT	SEGMENT PARA USE32 PUBLIC 'CODE'
_TEXT	ENDS
;	COMDAT ?_Ptr_cat@std@@YA?AU_Scalar_ptr_iterator_tag@1@PAE0@Z
_TEXT	SEGMENT PARA USE32 PUBLIC 'CODE'
_TEXT	ENDS
;	COMDAT ??0const_iterator@?$vector@EV?$allocator@E@std@@@std@@QAE@PAE@Z
_TEXT	SEGMENT PARA USE32 PUBLIC 'CODE'
_TEXT	ENDS
;	COMDAT ?_Destroy@?$vector@EV?$allocator@E@std@@@std@@IAEXPAE0@Z
_TEXT	SEGMENT PARA USE32 PUBLIC 'CODE'
_TEXT	ENDS
;	COMDAT ??$_Destroy_range@EV?$allocator@E@std@@@std@@YAXPAE0AAV?$allocator@E@0@@Z
_TEXT	SEGMENT PARA USE32 PUBLIC 'CODE'
_TEXT	ENDS
;	COMDAT ?_Ptr_cat@std@@YA?AU_Scalar_ptr_iterator_tag@1@PAJ0@Z
_TEXT	SEGMENT PARA USE32 PUBLIC 'CODE'
_TEXT	ENDS
;	COMDAT ??9const_iterator@?$_Tree@V?$_Tmap_traits@KEU?$less@K@std@@V?$allocator@U?$pair@$$CBKE@std@@@2@$0A@@std@@@std@@QBE_NABV012@@Z
_TEXT	SEGMENT PARA USE32 PUBLIC 'CODE'
_TEXT	ENDS
;	COMDAT ??8const_iterator@?$_Tree@V?$_Tmap_traits@KEU?$less@K@std@@V?$allocator@U?$pair@$$CBKE@std@@@2@$0A@@std@@@std@@QBE_NABV012@@Z
_TEXT	SEGMENT PARA USE32 PUBLIC 'CODE'
_TEXT	ENDS
;	COMDAT ??Eiterator@?$_Tree@V?$_Tmap_traits@KEU?$less@K@std@@V?$allocator@U?$pair@$$CBKE@std@@@2@$0A@@std@@@std@@QAEAAV012@XZ
_TEXT	SEGMENT PARA USE32 PUBLIC 'CODE'
_TEXT	ENDS
;	COMDAT ??Econst_iterator@?$_Tree@V?$_Tmap_traits@KEU?$less@K@std@@V?$allocator@U?$pair@$$CBKE@std@@@2@$0A@@std@@@std@@QAEAAV012@XZ
_TEXT	SEGMENT PARA USE32 PUBLIC 'CODE'
_TEXT	ENDS
;	COMDAT ?_Inc@const_iterator@?$_Tree@V?$_Tmap_traits@KEU?$less@K@std@@V?$allocator@U?$pair@$$CBKE@std@@@2@$0A@@std@@@std@@QAEXXZ
_TEXT	SEGMENT PARA USE32 PUBLIC 'CODE'
_TEXT	ENDS
;	COMDAT ?_Min@?$_Tree@V?$_Tmap_traits@KEU?$less@K@std@@V?$allocator@U?$pair@$$CBKE@std@@@2@$0A@@std@@@std@@KAPAU_Node@?$_Tree_nod@V?$_Tmap_traits@KEU?$less@K@std@@V?$allocator@U?$pair@$$CBKE@std@@@2@$0A@@std@@@2@PAU342@@Z
_TEXT	SEGMENT PARA USE32 PUBLIC 'CODE'
_TEXT	ENDS
;	COMDAT ?_Left@?$_Tree@V?$_Tmap_traits@KEU?$less@K@std@@V?$allocator@U?$pair@$$CBKE@std@@@2@$0A@@std@@@std@@KAAAPAU_Node@?$_Tree_nod@V?$_Tmap_traits@KEU?$less@K@std@@V?$allocator@U?$pair@$$CBKE@std@@@2@$0A@@std@@@2@PAU342@@Z
_TEXT	SEGMENT PARA USE32 PUBLIC 'CODE'
_TEXT	ENDS
;	COMDAT ?_Isnil@?$_Tree@V?$_Tmap_traits@KEU?$less@K@std@@V?$allocator@U?$pair@$$CBKE@std@@@2@$0A@@std@@@std@@KAAADPAU_Node@?$_Tree_nod@V?$_Tmap_traits@KEU?$less@K@std@@V?$allocator@U?$pair@$$CBKE@std@@@2@$0A@@std@@@2@@Z
_TEXT	SEGMENT PARA USE32 PUBLIC 'CODE'
_TEXT	ENDS
;	COMDAT ?_Parent@?$_Tree@V?$_Tmap_traits@KEU?$less@K@std@@V?$allocator@U?$pair@$$CBKE@std@@@2@$0A@@std@@@std@@KAAAPAU_Node@?$_Tree_nod@V?$_Tmap_traits@KEU?$less@K@std@@V?$allocator@U?$pair@$$CBKE@std@@@2@$0A@@std@@@2@PAU342@@Z
_TEXT	SEGMENT PARA USE32 PUBLIC 'CODE'
_TEXT	ENDS
;	COMDAT ?_Right@?$_Tree@V?$_Tmap_traits@KEU?$less@K@std@@V?$allocator@U?$pair@$$CBKE@std@@@2@$0A@@std@@@std@@KAAAPAU_Node@?$_Tree_nod@V?$_Tmap_traits@KEU?$less@K@std@@V?$allocator@U?$pair@$$CBKE@std@@@2@$0A@@std@@@2@PAU342@@Z
_TEXT	SEGMENT PARA USE32 PUBLIC 'CODE'
_TEXT	ENDS
;	COMDAT ??9const_iterator@?$_Tree@V?$_Tmap_traits@KPAVCCtrl@@U?$less@K@std@@V?$allocator@U?$pair@$$CBKPAVCCtrl@@@std@@@3@$0A@@std@@@std@@QBE_NABV012@@Z
_TEXT	SEGMENT PARA USE32 PUBLIC 'CODE'
_TEXT	ENDS
;	COMDAT ??8const_iterator@?$_Tree@V?$_Tmap_traits@KPAVCCtrl@@U?$less@K@std@@V?$allocator@U?$pair@$$CBKPAVCCtrl@@@std@@@3@$0A@@std@@@std@@QBE_NABV012@@Z
_TEXT	SEGMENT PARA USE32 PUBLIC 'CODE'
_TEXT	ENDS
;	COMDAT ??Eiterator@?$_Tree@V?$_Tmap_traits@KPAVCCtrl@@U?$less@K@std@@V?$allocator@U?$pair@$$CBKPAVCCtrl@@@std@@@3@$0A@@std@@@std@@QAEAAV012@XZ
_TEXT	SEGMENT PARA USE32 PUBLIC 'CODE'
_TEXT	ENDS
;	COMDAT ??Econst_iterator@?$_Tree@V?$_Tmap_traits@KPAVCCtrl@@U?$less@K@std@@V?$allocator@U?$pair@$$CBKPAVCCtrl@@@std@@@3@$0A@@std@@@std@@QAEAAV012@XZ
_TEXT	SEGMENT PARA USE32 PUBLIC 'CODE'
_TEXT	ENDS
;	COMDAT ?_Inc@const_iterator@?$_Tree@V?$_Tmap_traits@KPAVCCtrl@@U?$less@K@std@@V?$allocator@U?$pair@$$CBKPAVCCtrl@@@std@@@3@$0A@@std@@@std@@QAEXXZ
_TEXT	SEGMENT PARA USE32 PUBLIC 'CODE'
_TEXT	ENDS
;	COMDAT ?_Min@?$_Tree@V?$_Tmap_traits@KPAVCCtrl@@U?$less@K@std@@V?$allocator@U?$pair@$$CBKPAVCCtrl@@@std@@@3@$0A@@std@@@std@@KAPAU_Node@?$_Tree_nod@V?$_Tmap_traits@KPAVCCtrl@@U?$less@K@std@@V?$allocator@U?$pair@$$CBKPAVCCtrl@@@std@@@3@$0A@@std@@@2@PAU342@@Z
_TEXT	SEGMENT PARA USE32 PUBLIC 'CODE'
_TEXT	ENDS
;	COMDAT ?_Left@?$_Tree@V?$_Tmap_traits@KPAVCCtrl@@U?$less@K@std@@V?$allocator@U?$pair@$$CBKPAVCCtrl@@@std@@@3@$0A@@std@@@std@@KAAAPAU_Node@?$_Tree_nod@V?$_Tmap_traits@KPAVCCtrl@@U?$less@K@std@@V?$allocator@U?$pair@$$CBKPAVCCtrl@@@std@@@3@$0A@@std@@@2@PAU342@@Z
_TEXT	SEGMENT PARA USE32 PUBLIC 'CODE'
_TEXT	ENDS
;	COMDAT ?_Isnil@?$_Tree@V?$_Tmap_traits@KPAVCCtrl@@U?$less@K@std@@V?$allocator@U?$pair@$$CBKPAVCCtrl@@@std@@@3@$0A@@std@@@std@@KAAADPAU_Node@?$_Tree_nod@V?$_Tmap_traits@KPAVCCtrl@@U?$less@K@std@@V?$allocator@U?$pair@$$CBKPAVCCtrl@@@std@@@3@$0A@@std@@@2@@Z
_TEXT	SEGMENT PARA USE32 PUBLIC 'CODE'
_TEXT	ENDS
;	COMDAT ?_Parent@?$_Tree@V?$_Tmap_traits@KPAVCCtrl@@U?$less@K@std@@V?$allocator@U?$pair@$$CBKPAVCCtrl@@@std@@@3@$0A@@std@@@std@@KAAAPAU_Node@?$_Tree_nod@V?$_Tmap_traits@KPAVCCtrl@@U?$less@K@std@@V?$allocator@U?$pair@$$CBKPAVCCtrl@@@std@@@3@$0A@@std@@@2@PAU342@@Z
_TEXT	SEGMENT PARA USE32 PUBLIC 'CODE'
_TEXT	ENDS
;	COMDAT ?_Right@?$_Tree@V?$_Tmap_traits@KPAVCCtrl@@U?$less@K@std@@V?$allocator@U?$pair@$$CBKPAVCCtrl@@@std@@@3@$0A@@std@@@std@@KAAAPAU_Node@?$_Tree_nod@V?$_Tmap_traits@KPAVCCtrl@@U?$less@K@std@@V?$allocator@U?$pair@$$CBKPAVCCtrl@@@std@@@3@$0A@@std@@@2@PAU342@@Z
_TEXT	SEGMENT PARA USE32 PUBLIC 'CODE'
_TEXT	ENDS
;	COMDAT ??9const_iterator@?$_Tree@V?$_Tmap_traits@KPAVCUser@@U?$less@K@std@@V?$allocator@U?$pair@$$CBKPAVCUser@@@std@@@3@$0A@@std@@@std@@QBE_NABV012@@Z
_TEXT	SEGMENT PARA USE32 PUBLIC 'CODE'
_TEXT	ENDS
;	COMDAT ??8const_iterator@?$_Tree@V?$_Tmap_traits@KPAVCUser@@U?$less@K@std@@V?$allocator@U?$pair@$$CBKPAVCUser@@@std@@@3@$0A@@std@@@std@@QBE_NABV012@@Z
_TEXT	SEGMENT PARA USE32 PUBLIC 'CODE'
_TEXT	ENDS
;	COMDAT ??Eiterator@?$_Tree@V?$_Tmap_traits@KPAVCUser@@U?$less@K@std@@V?$allocator@U?$pair@$$CBKPAVCUser@@@std@@@3@$0A@@std@@@std@@QAEAAV012@XZ
_TEXT	SEGMENT PARA USE32 PUBLIC 'CODE'
_TEXT	ENDS
;	COMDAT ??Econst_iterator@?$_Tree@V?$_Tmap_traits@KPAVCUser@@U?$less@K@std@@V?$allocator@U?$pair@$$CBKPAVCUser@@@std@@@3@$0A@@std@@@std@@QAEAAV012@XZ
_TEXT	SEGMENT PARA USE32 PUBLIC 'CODE'
_TEXT	ENDS
;	COMDAT ?_Inc@const_iterator@?$_Tree@V?$_Tmap_traits@KPAVCUser@@U?$less@K@std@@V?$allocator@U?$pair@$$CBKPAVCUser@@@std@@@3@$0A@@std@@@std@@QAEXXZ
_TEXT	SEGMENT PARA USE32 PUBLIC 'CODE'
_TEXT	ENDS
;	COMDAT ?_Min@?$_Tree@V?$_Tmap_traits@KPAVCUser@@U?$less@K@std@@V?$allocator@U?$pair@$$CBKPAVCUser@@@std@@@3@$0A@@std@@@std@@KAPAU_Node@?$_Tree_nod@V?$_Tmap_traits@KPAVCUser@@U?$less@K@std@@V?$allocator@U?$pair@$$CBKPAVCUser@@@std@@@3@$0A@@std@@@2@PAU342@@Z
_TEXT	SEGMENT PARA USE32 PUBLIC 'CODE'
_TEXT	ENDS
;	COMDAT ?_Left@?$_Tree@V?$_Tmap_traits@KPAVCUser@@U?$less@K@std@@V?$allocator@U?$pair@$$CBKPAVCUser@@@std@@@3@$0A@@std@@@std@@KAAAPAU_Node@?$_Tree_nod@V?$_Tmap_traits@KPAVCUser@@U?$less@K@std@@V?$allocator@U?$pair@$$CBKPAVCUser@@@std@@@3@$0A@@std@@@2@PAU342@@Z
_TEXT	SEGMENT PARA USE32 PUBLIC 'CODE'
_TEXT	ENDS
;	COMDAT ?_Isnil@?$_Tree@V?$_Tmap_traits@KPAVCUser@@U?$less@K@std@@V?$allocator@U?$pair@$$CBKPAVCUser@@@std@@@3@$0A@@std@@@std@@KAAADPAU_Node@?$_Tree_nod@V?$_Tmap_traits@KPAVCUser@@U?$less@K@std@@V?$allocator@U?$pair@$$CBKPAVCUser@@@std@@@3@$0A@@std@@@2@@Z
_TEXT	SEGMENT PARA USE32 PUBLIC 'CODE'
_TEXT	ENDS
;	COMDAT ?_Parent@?$_Tree@V?$_Tmap_traits@KPAVCUser@@U?$less@K@std@@V?$allocator@U?$pair@$$CBKPAVCUser@@@std@@@3@$0A@@std@@@std@@KAAAPAU_Node@?$_Tree_nod@V?$_Tmap_traits@KPAVCUser@@U?$less@K@std@@V?$allocator@U?$pair@$$CBKPAVCUser@@@std@@@3@$0A@@std@@@2@PAU342@@Z
_TEXT	SEGMENT PARA USE32 PUBLIC 'CODE'
_TEXT	ENDS
;	COMDAT ?_Right@?$_Tree@V?$_Tmap_traits@KPAVCUser@@U?$less@K@std@@V?$allocator@U?$pair@$$CBKPAVCUser@@@std@@@3@$0A@@std@@@std@@KAAAPAU_Node@?$_Tree_nod@V?$_Tmap_traits@KPAVCUser@@U?$less@K@std@@V?$allocator@U?$pair@$$CBKPAVCUser@@@std@@@3@$0A@@std@@@2@PAU342@@Z
_TEXT	SEGMENT PARA USE32 PUBLIC 'CODE'
_TEXT	ENDS
;	COMDAT ?_Psave@?$_Facetptr@V?$ctype@G@std@@@std@@2PBVfacet@locale@2@B
_DATA	SEGMENT DWORD USE32 PUBLIC 'DATA'
_DATA	ENDS
;	COMDAT ?_Psave@?$_Facetptr@V?$ctype@D@std@@@std@@2PBVfacet@locale@2@B
_DATA	SEGMENT DWORD USE32 PUBLIC 'DATA'
_DATA	ENDS
;	COMDAT ?compare@?$char_traits@D@std@@SAHPBD0I@Z
_TEXT	SEGMENT PARA USE32 PUBLIC 'CODE'
_TEXT	ENDS
;	COMDAT ?_Myptr@?$basic_string@DU?$char_traits@D@std@@V?$allocator@D@2@@std@@QBEPBDXZ
_TEXT	SEGMENT PARA USE32 PUBLIC 'CODE'
_TEXT	ENDS
;	COMDAT ?size@?$basic_string@DU?$char_traits@D@std@@V?$allocator@D@2@@std@@QBEIXZ
_TEXT	SEGMENT PARA USE32 PUBLIC 'CODE'
_TEXT	ENDS
;	COMDAT ?Get_Name@CProfileNode@@QAEPBDXZ
_TEXT	SEGMENT PARA USE32 PUBLIC 'CODE'
_TEXT	ENDS
;	COMDAT ?Get_Parent@CProfileNode@@QAEPAV1@XZ
_TEXT	SEGMENT PARA USE32 PUBLIC 'CODE'
_TEXT	ENDS
;	COMDAT ?GetCurrentNode@CProfileIterator@@QAEPAVCProfileNode@@XZ
_TEXT	SEGMENT PARA USE32 PUBLIC 'CODE'
_TEXT	ENDS
;	COMDAT ?Get_Sibling@CProfileNode@@QAEPAV1@XZ
_TEXT	SEGMENT PARA USE32 PUBLIC 'CODE'
_TEXT	ENDS
;	COMDAT ?Get_Child@CProfileNode@@QAEPAV1@XZ
_TEXT	SEGMENT PARA USE32 PUBLIC 'CODE'
_TEXT	ENDS
;	COMDAT ?_CPUFrequency@?1??Profile_Get_Tick_Rate@@YAMXZ@4MA
_DATA	SEGMENT DWORD USE32 PUBLIC 'DATA'
_DATA	ENDS
sxdata	SEGMENT DWORD USE32 'SXDATA'
sxdata	ENDS
FLAT	GROUP _DATA, CONST, _BSS
	ASSUME	CS: FLAT, DS: FLAT, SS: FLAT
endif

INCLUDELIB LIBCMT
INCLUDELIB OLDNAMES

PUBLIC	?CurrentNode@CProfileManager@@0PAVCProfileNode@@A ; CProfileManager::CurrentNode
PUBLIC	?FrameCounter@CProfileManager@@0HA		; CProfileManager::FrameCounter
PUBLIC	?ResetTime@CProfileManager@@0_JA		; CProfileManager::ResetTime
_BSS	SEGMENT
?FrameCounter@CProfileManager@@0HA DD 01H DUP (?)	; CProfileManager::FrameCounter
	ALIGN	8

?ResetTime@CProfileManager@@0_JA DQ 01H DUP (?)		; CProfileManager::ResetTime
_BSS	ENDS
_DATA	SEGMENT
?CurrentNode@CProfileManager@@0PAVCProfileNode@@A DD FLAT:?Root@CProfileManager@@0VCProfileNode@@A ; CProfileManager::CurrentNode
_DATA	ENDS
PUBLIC	?Profile_Get_Ticks@@YAXPA_J@Z			; Profile_Get_Ticks
; Function compile flags: /Ogty
; File c:\documents and settings\test\mes documents\source\virtuos_v17\build\program\_common\profile.cpp
;	COMDAT ?Profile_Get_Ticks@@YAXPA_J@Z
_TEXT	SEGMENT
_ticks$ = 8						; size = 4
?Profile_Get_Ticks@@YAXPA_J@Z PROC NEAR			; Profile_Get_Ticks, COMDAT

; 16   : 	__asm
; 17   : 	{
; 18   : 		push edx;

  00000	52		 push	 edx

; 19   : 		push ecx;

  00001	51		 push	 ecx

; 20   : 		mov ecx,ticks;

  00002	8b 4c 24 0c	 mov	 ecx, DWORD PTR _ticks$[esp+4]

; 21   : 		_emit 0Fh

  00006	0f		 DB	 15			; 0000000fH

; 22   : 		_emit 31h

  00007	31		 DB	 49			; 00000031H

; 23   : 		mov [ecx],eax;

  00008	89 01		 mov	 DWORD PTR [ecx], eax

; 24   : 		mov [ecx+4],edx;

  0000a	89 51 04	 mov	 DWORD PTR [ecx+4], edx

; 25   : 		pop ecx;

  0000d	59		 pop	 ecx

; 26   : 		pop edx;

  0000e	5a		 pop	 edx

; 27   : 	}
; 28   : }

  0000f	c3		 ret	 0
?Profile_Get_Ticks@@YAXPA_J@Z ENDP			; Profile_Get_Ticks
_TEXT	ENDS
PUBLIC	?Profile_Get_Tick_Rate@@YAMXZ			; Profile_Get_Tick_Rate
PUBLIC	?_CPUFrequency@?1??Profile_Get_Tick_Rate@@YAMXZ@4MA ; `Profile_Get_Tick_Rate'::`2'::_CPUFrequency
PUBLIC	__real@bf800000
EXTRN	__fltused:NEAR
EXTRN	__imp__QueryPerformanceFrequency@4:NEAR
;	COMDAT __real@bf800000
CONST	SEGMENT
__real@bf800000 DD 0bf800000r			; -1
CONST	ENDS
;	COMDAT ?_CPUFrequency@?1??Profile_Get_Tick_Rate@@YAMXZ@4MA
_DATA	SEGMENT
?_CPUFrequency@?1??Profile_Get_Tick_Rate@@YAMXZ@4MA DD 0bf800000r ; -1 ; `Profile_Get_Tick_Rate'::`2'::_CPUFrequency
; Function compile flags: /Ogty
_DATA	ENDS
;	COMDAT ?Profile_Get_Tick_Rate@@YAMXZ
_TEXT	SEGMENT
_curr_rate$225604 = -8					; size = 8
?Profile_Get_Tick_Rate@@YAMXZ PROC NEAR			; Profile_Get_Tick_Rate, COMDAT

; 32   : 	static float _CPUFrequency = -1.0f;
; 33   : 	
; 34   : 	if (_CPUFrequency == -1.0f) {

  00000	d9 05 00 00 00
	00		 fld	 DWORD PTR __real@bf800000
  00006	83 ec 08	 sub	 esp, 8
  00009	d9 05 00 00 00
	00		 fld	 DWORD PTR ?_CPUFrequency@?1??Profile_Get_Tick_Rate@@YAMXZ@4MA ; `Profile_Get_Tick_Rate'::`2'::_CPUFrequency
  0000f	da e9		 fucompp
  00011	df e0		 fnstsw	 ax
  00013	f6 c4 44	 test	 ah, 68			; 00000044H
  00016	7a 20		 jp	 SHORT $L226944

; 35   : 		__int64 curr_rate = 0;

  00018	33 c0		 xor	 eax, eax
  0001a	89 04 24	 mov	 DWORD PTR _curr_rate$225604[esp+8], eax
  0001d	89 44 24 04	 mov	 DWORD PTR _curr_rate$225604[esp+12], eax

; 36   : 		::QueryPerformanceFrequency ((LARGE_INTEGER *)&curr_rate);

  00021	8d 04 24	 lea	 eax, DWORD PTR _curr_rate$225604[esp+8]
  00024	50		 push	 eax
  00025	ff 15 00 00 00
	00		 call	 DWORD PTR __imp__QueryPerformanceFrequency@4

; 37   : 		_CPUFrequency = (float)curr_rate;

  0002b	df 2c 24	 fild	 QWORD PTR _curr_rate$225604[esp+8]
  0002e	d9 15 00 00 00
	00		 fst	 DWORD PTR ?_CPUFrequency@?1??Profile_Get_Tick_Rate@@YAMXZ@4MA ; `Profile_Get_Tick_Rate'::`2'::_CPUFrequency

; 41   : }

  00034	83 c4 08	 add	 esp, 8
  00037	c3		 ret	 0
$L226944:

; 38   : 	} 
; 39   : 	
; 40   : 	return _CPUFrequency;

  00038	d9 05 00 00 00
	00		 fld	 DWORD PTR ?_CPUFrequency@?1??Profile_Get_Tick_Rate@@YAMXZ@4MA ; `Profile_Get_Tick_Rate'::`2'::_CPUFrequency

; 41   : }

  0003e	83 c4 08	 add	 esp, 8
  00041	c3		 ret	 0
?Profile_Get_Tick_Rate@@YAMXZ ENDP			; Profile_Get_Tick_Rate
_TEXT	ENDS
PUBLIC	??1CProfileNode@@QAE@XZ				; CProfileNode::~CProfileNode
PUBLIC	??_GCProfileNode@@QAEPAXI@Z			; CProfileNode::`scalar deleting destructor'
EXTRN	??3@YAXPAX@Z:NEAR				; operator delete
; Function compile flags: /Ogty
;	COMDAT ??_GCProfileNode@@QAEPAXI@Z
_TEXT	SEGMENT
___flags$ = 8						; size = 4
??_GCProfileNode@@QAEPAXI@Z PROC NEAR			; CProfileNode::`scalar deleting destructor', COMDAT
; _this$ = ecx
  00000	56		 push	 esi
  00001	8b f1		 mov	 esi, ecx
  00003	e8 00 00 00 00	 call	 ??1CProfileNode@@QAE@XZ	; CProfileNode::~CProfileNode
  00008	f6 44 24 08 01	 test	 BYTE PTR ___flags$[esp], 1
  0000d	74 09		 je	 SHORT $L226958
  0000f	56		 push	 esi
  00010	e8 00 00 00 00	 call	 ??3@YAXPAX@Z		; operator delete
  00015	83 c4 04	 add	 esp, 4
$L226958:
  00018	8b c6		 mov	 eax, esi
  0001a	5e		 pop	 esi
  0001b	c2 04 00	 ret	 4
??_GCProfileNode@@QAEPAXI@Z ENDP			; CProfileNode::`scalar deleting destructor'
_TEXT	ENDS
PUBLIC	?Reset@CProfileNode@@QAEXXZ			; CProfileNode::Reset
; Function compile flags: /Ogty
;	COMDAT ?Reset@CProfileNode@@QAEXXZ
_TEXT	SEGMENT
?Reset@CProfileNode@@QAEXXZ PROC NEAR			; CProfileNode::Reset, COMDAT
; _this$ = ecx

; 107  : {

  00000	56		 push	 esi
  00001	57		 push	 edi
  00002	8b f1		 mov	 esi, ecx
  00004	33 ff		 xor	 edi, edi
$L226962:

; 108  : 	TotalCalls = 0;
; 109  : 	TotalTime = 0.0f;
; 110  : 
; 111  : 	if ( Child ) {

  00006	8b 4e 20	 mov	 ecx, DWORD PTR [esi+32]
  00009	3b cf		 cmp	 ecx, edi
  0000b	89 7e 04	 mov	 DWORD PTR [esi+4], edi
  0000e	89 7e 08	 mov	 DWORD PTR [esi+8], edi
  00011	74 05		 je	 SHORT $L225642

; 112  : 		Child->Reset();

  00013	e8 00 00 00 00	 call	 ?Reset@CProfileNode@@QAEXXZ ; CProfileNode::Reset
$L225642:

; 113  : 	}
; 114  : 	if ( Sibling ) {

  00018	8b 76 24	 mov	 esi, DWORD PTR [esi+36]
  0001b	3b f7		 cmp	 esi, edi

; 115  : 		Sibling->Reset();

  0001d	75 e7		 jne	 SHORT $L226962
  0001f	5f		 pop	 edi
  00020	5e		 pop	 esi

; 116  : 	}
; 117  : }

  00021	c3		 ret	 0
?Reset@CProfileNode@@QAEXXZ ENDP			; CProfileNode::Reset
_TEXT	ENDS
PUBLIC	?Call@CProfileNode@@QAEXXZ			; CProfileNode::Call
; Function compile flags: /Ogty
;	COMDAT ?Call@CProfileNode@@QAEXXZ
_TEXT	SEGMENT
$T226970 = -4						; size = 4
?Call@CProfileNode@@QAEXXZ PROC NEAR			; CProfileNode::Call, COMDAT
; _this$ = ecx

; 121  : {

  00000	51		 push	 ecx

; 122  : 	TotalCalls++;

  00001	ff 41 04	 inc	 DWORD PTR [ecx+4]

; 123  : 	if (RecursionCounter++ == 0) {

  00004	8b 41 18	 mov	 eax, DWORD PTR [ecx+24]
  00007	85 c0		 test	 eax, eax
  00009	8d 50 01	 lea	 edx, DWORD PTR [eax+1]
  0000c	89 51 18	 mov	 DWORD PTR [ecx+24], edx
  0000f	75 15		 jne	 SHORT $L226968

; 124  : 		Profile_Get_Ticks(&StartTime);

  00011	83 c1 10	 add	 ecx, 16			; 00000010H
  00014	89 0c 24	 mov	 DWORD PTR $T226970[esp+4], ecx
  00017	52		 push	 edx
  00018	51		 push	 ecx
  00019	8b 4c 24 08	 mov	 ecx, DWORD PTR $T226970[esp+12]
  0001d	0f		 DB	 15			; 0000000fH
  0001e	31		 DB	 49			; 00000031H
  0001f	89 01		 mov	 DWORD PTR [ecx], eax
  00021	89 51 04	 mov	 DWORD PTR [ecx+4], edx
  00024	59		 pop	 ecx
  00025	5a		 pop	 edx
$L226968:

; 125  : 	}
; 126  : }

  00026	59		 pop	 ecx
  00027	c3		 ret	 0
?Call@CProfileNode@@QAEXXZ ENDP				; CProfileNode::Call
_TEXT	ENDS
PUBLIC	?Return@CProfileNode@@QAE_NXZ			; CProfileNode::Return
; Function compile flags: /Ogty
;	COMDAT ?Return@CProfileNode@@QAE_NXZ
_TEXT	SEGMENT
tv141 = -12						; size = 4
$T226977 = -12						; size = 4
_time$225654 = -8					; size = 8
?Return@CProfileNode@@QAE_NXZ PROC NEAR			; CProfileNode::Return, COMDAT
; _this$ = ecx

; 130  : {

  00000	83 ec 0c	 sub	 esp, 12			; 0000000cH
  00003	56		 push	 esi
  00004	8b f1		 mov	 esi, ecx

; 131  : 	if ( --RecursionCounter == 0 && TotalCalls != 0 ) { 

  00006	ff 4e 18	 dec	 DWORD PTR [esi+24]
  00009	75 4f		 jne	 SHORT $L225653
  0000b	8b 46 04	 mov	 eax, DWORD PTR [esi+4]
  0000e	85 c0		 test	 eax, eax
  00010	74 48		 je	 SHORT $L225653

; 132  : 		__int64 time;
; 133  : 		Profile_Get_Ticks(&time);

  00012	8d 44 24 08	 lea	 eax, DWORD PTR _time$225654[esp+16]
  00016	89 44 24 04	 mov	 DWORD PTR $T226977[esp+16], eax
  0001a	52		 push	 edx
  0001b	51		 push	 ecx
  0001c	8b 4c 24 0c	 mov	 ecx, DWORD PTR $T226977[esp+24]
  00020	0f		 DB	 15			; 0000000fH
  00021	31		 DB	 49			; 00000031H
  00022	89 01		 mov	 DWORD PTR [ecx], eax
  00024	89 51 04	 mov	 DWORD PTR [ecx+4], edx
  00027	59		 pop	 ecx
  00028	5a		 pop	 edx

; 134  : 		time-=StartTime;

  00029	8b 54 24 08	 mov	 edx, DWORD PTR _time$225654[esp+16]
  0002d	8b 4e 10	 mov	 ecx, DWORD PTR [esi+16]
  00030	8b 44 24 0c	 mov	 eax, DWORD PTR _time$225654[esp+20]
  00034	2b d1		 sub	 edx, ecx
  00036	89 54 24 08	 mov	 DWORD PTR _time$225654[esp+16], edx
  0003a	8b 56 14	 mov	 edx, DWORD PTR [esi+20]
  0003d	1b c2		 sbb	 eax, edx
  0003f	89 44 24 0c	 mov	 DWORD PTR _time$225654[esp+20], eax

; 135  : 		TotalTime += (float)time / Profile_Get_Tick_Rate();

  00043	df 6c 24 08	 fild	 QWORD PTR _time$225654[esp+16]
  00047	d9 5c 24 04	 fstp	 DWORD PTR tv141[esp+16]
  0004b	e8 00 00 00 00	 call	 ?Profile_Get_Tick_Rate@@YAMXZ ; Profile_Get_Tick_Rate
  00050	d8 7c 24 04	 fdivr	 DWORD PTR tv141[esp+16]
  00054	d8 46 08	 fadd	 DWORD PTR [esi+8]
  00057	d9 5e 08	 fstp	 DWORD PTR [esi+8]
$L225653:

; 136  : 	}
; 137  : 	return ( RecursionCounter == 0 );

  0005a	8b 4e 18	 mov	 ecx, DWORD PTR [esi+24]
  0005d	33 c0		 xor	 eax, eax
  0005f	85 c9		 test	 ecx, ecx
  00061	0f 94 c0	 sete	 al

; 138  : }

  00064	5e		 pop	 esi
  00065	83 c4 0c	 add	 esp, 12			; 0000000cH
  00068	c3		 ret	 0
?Return@CProfileNode@@QAE_NXZ ENDP			; CProfileNode::Return
_TEXT	ENDS
PUBLIC	?Is_Done@CProfileIterator@@QAE_NXZ		; CProfileIterator::Is_Done
; Function compile flags: /Ogty
;	COMDAT ?Is_Done@CProfileIterator@@QAE_NXZ
_TEXT	SEGMENT
?Is_Done@CProfileIterator@@QAE_NXZ PROC NEAR		; CProfileIterator::Is_Done, COMDAT
; _this$ = ecx

; 195  : 	return CurrentChild == NULL;

  00000	8b 51 08	 mov	 edx, DWORD PTR [ecx+8]
  00003	33 c0		 xor	 eax, eax
  00005	85 d2		 test	 edx, edx
  00007	0f 94 c0	 sete	 al

; 196  : }

  0000a	c3		 ret	 0
?Is_Done@CProfileIterator@@QAE_NXZ ENDP			; CProfileIterator::Is_Done
_TEXT	ENDS
PUBLIC	?Reset@CProfileManager@@SAXXZ			; CProfileManager::Reset
; Function compile flags: /Ogty
;	COMDAT ?Reset@CProfileManager@@SAXXZ
_TEXT	SEGMENT
?Reset@CProfileManager@@SAXXZ PROC NEAR			; CProfileManager::Reset, COMDAT

; 276  : 	Root.Reset(); 

  00000	8b 0d 20 00 00
	00		 mov	 ecx, DWORD PTR ?Root@CProfileManager@@0VCProfileNode@@A+32
  00006	33 c0		 xor	 eax, eax
  00008	3b c8		 cmp	 ecx, eax
  0000a	a3 04 00 00 00	 mov	 DWORD PTR ?Root@CProfileManager@@0VCProfileNode@@A+4, eax
  0000f	a3 08 00 00 00	 mov	 DWORD PTR ?Root@CProfileManager@@0VCProfileNode@@A+8, eax
  00014	74 05		 je	 SHORT $L226986
  00016	e8 00 00 00 00	 call	 ?Reset@CProfileNode@@QAEXXZ ; CProfileNode::Reset
$L226986:
  0001b	8b 0d 24 00 00
	00		 mov	 ecx, DWORD PTR ?Root@CProfileManager@@0VCProfileNode@@A+36
  00021	3b c8		 cmp	 ecx, eax
  00023	74 05		 je	 SHORT $L226987
  00025	e8 00 00 00 00	 call	 ?Reset@CProfileNode@@QAEXXZ ; CProfileNode::Reset
$L226987:

; 277  : 	FrameCounter = 0;

  0002a	a3 00 00 00 00	 mov	 DWORD PTR ?FrameCounter@CProfileManager@@0HA, eax ; CProfileManager::FrameCounter

; 278  : 	Profile_Get_Ticks(&ResetTime);

  0002f	52		 push	 edx
  00030	51		 push	 ecx
  00031	b9 00 00 00 00	 mov	 ecx, OFFSET FLAT:?ResetTime@CProfileManager@@0_JA ; CProfileManager::ResetTime
  00036	0f		 DB	 15			; 0000000fH
  00037	31		 DB	 49			; 00000031H
  00038	89 01		 mov	 DWORD PTR [ecx], eax
  0003a	89 51 04	 mov	 DWORD PTR [ecx+4], edx
  0003d	59		 pop	 ecx
  0003e	5a		 pop	 edx

; 279  : }

  0003f	c3		 ret	 0
?Reset@CProfileManager@@SAXXZ ENDP			; CProfileManager::Reset
_TEXT	ENDS
PUBLIC	?Increment_Frame_Counter@CProfileManager@@SAXXZ	; CProfileManager::Increment_Frame_Counter
; Function compile flags: /Ogty
;	COMDAT ?Increment_Frame_Counter@CProfileManager@@SAXXZ
_TEXT	SEGMENT
?Increment_Frame_Counter@CProfileManager@@SAXXZ PROC NEAR ; CProfileManager::Increment_Frame_Counter, COMDAT

; 287  : 	FrameCounter++;

  00000	ff 05 00 00 00
	00		 inc	 DWORD PTR ?FrameCounter@CProfileManager@@0HA ; CProfileManager::FrameCounter

; 288  : }

  00006	c3		 ret	 0
?Increment_Frame_Counter@CProfileManager@@SAXXZ ENDP	; CProfileManager::Increment_Frame_Counter
_TEXT	ENDS
PUBLIC	?Get_Time_Since_Reset@CProfileManager@@SAMXZ	; CProfileManager::Get_Time_Since_Reset
; Function compile flags: /Ogty
;	COMDAT ?Get_Time_Since_Reset@CProfileManager@@SAMXZ
_TEXT	SEGMENT
_curr_rate$227008 = -16					; size = 8
$T227003 = -16						; size = 4
_time$ = -8						; size = 8
?Get_Time_Since_Reset@CProfileManager@@SAMXZ PROC NEAR	; CProfileManager::Get_Time_Since_Reset, COMDAT

; 295  : {

  00000	83 ec 10	 sub	 esp, 16			; 00000010H

; 296  : 	__int64 time;
; 297  : 	Profile_Get_Ticks(&time);

  00003	8d 44 24 08	 lea	 eax, DWORD PTR _time$[esp+16]
  00007	89 04 24	 mov	 DWORD PTR $T227003[esp+16], eax
  0000a	52		 push	 edx
  0000b	51		 push	 ecx
  0000c	8b 4c 24 08	 mov	 ecx, DWORD PTR $T227003[esp+24]
  00010	0f		 DB	 15			; 0000000fH
  00011	31		 DB	 49			; 00000031H
  00012	89 01		 mov	 DWORD PTR [ecx], eax
  00014	89 51 04	 mov	 DWORD PTR [ecx+4], edx
  00017	59		 pop	 ecx
  00018	5a		 pop	 edx

; 298  : 	time -= ResetTime;
; 299  : 	return (float)time / Profile_Get_Tick_Rate();

  00019	d9 05 00 00 00
	00		 fld	 DWORD PTR __real@bf800000
  0001f	8b 54 24 08	 mov	 edx, DWORD PTR _time$[esp+16]
  00023	d9 05 00 00 00
	00		 fld	 DWORD PTR ?_CPUFrequency@?1??Profile_Get_Tick_Rate@@YAMXZ@4MA ; `Profile_Get_Tick_Rate'::`2'::_CPUFrequency
  00029	8b 0d 00 00 00
	00		 mov	 ecx, DWORD PTR ?ResetTime@CProfileManager@@0_JA
  0002f	da e9		 fucompp
  00031	8b 44 24 0c	 mov	 eax, DWORD PTR _time$[esp+20]
  00035	2b d1		 sub	 edx, ecx
  00037	89 54 24 08	 mov	 DWORD PTR _time$[esp+16], edx
  0003b	8b 15 04 00 00
	00		 mov	 edx, DWORD PTR ?ResetTime@CProfileManager@@0_JA+4
  00041	1b c2		 sbb	 eax, edx
  00043	89 44 24 0c	 mov	 DWORD PTR _time$[esp+20], eax
  00047	df e0		 fnstsw	 ax
  00049	f6 c4 44	 test	 ah, 68			; 00000044H
  0004c	7a 1c		 jp	 SHORT $L227010
  0004e	33 c0		 xor	 eax, eax
  00050	89 04 24	 mov	 DWORD PTR _curr_rate$227008[esp+16], eax
  00053	89 44 24 04	 mov	 DWORD PTR _curr_rate$227008[esp+20], eax
  00057	8d 04 24	 lea	 eax, DWORD PTR _curr_rate$227008[esp+16]
  0005a	50		 push	 eax
  0005b	ff 15 00 00 00
	00		 call	 DWORD PTR __imp__QueryPerformanceFrequency@4
  00061	df 2c 24	 fild	 QWORD PTR _curr_rate$227008[esp+16]
  00064	d9 1d 00 00 00
	00		 fstp	 DWORD PTR ?_CPUFrequency@?1??Profile_Get_Tick_Rate@@YAMXZ@4MA ; `Profile_Get_Tick_Rate'::`2'::_CPUFrequency
$L227010:
  0006a	df 6c 24 08	 fild	 QWORD PTR _time$[esp+16]
  0006e	d8 35 00 00 00
	00		 fdiv	 DWORD PTR ?_CPUFrequency@?1??Profile_Get_Tick_Rate@@YAMXZ@4MA ; `Profile_Get_Tick_Rate'::`2'::_CPUFrequency

; 300  : }

  00074	83 c4 10	 add	 esp, 16			; 00000010H
  00077	c3		 ret	 0
?Get_Time_Since_Reset@CProfileManager@@SAMXZ ENDP	; CProfileManager::Get_Time_Since_Reset
_TEXT	ENDS
PUBLIC	?Get_Parent@CProfileNode@@QAEPAV1@XZ		; CProfileNode::Get_Parent
; Function compile flags: /Ogty
; File c:\documents and settings\test\mes documents\source\virtuos_v17\build\program\_common\profile.h
;	COMDAT ?Get_Parent@CProfileNode@@QAEPAV1@XZ
_TEXT	SEGMENT
?Get_Parent@CProfileNode@@QAEPAV1@XZ PROC NEAR		; CProfileNode::Get_Parent, COMDAT
; _this$ = ecx

; 22   : 	CProfileNode * Get_Parent( void )		{ return Parent; }

  00000	8b 41 1c	 mov	 eax, DWORD PTR [ecx+28]
  00003	c3		 ret	 0
?Get_Parent@CProfileNode@@QAEPAV1@XZ ENDP		; CProfileNode::Get_Parent
_TEXT	ENDS
PUBLIC	?Get_Sibling@CProfileNode@@QAEPAV1@XZ		; CProfileNode::Get_Sibling
; Function compile flags: /Ogty
;	COMDAT ?Get_Sibling@CProfileNode@@QAEPAV1@XZ
_TEXT	SEGMENT
?Get_Sibling@CProfileNode@@QAEPAV1@XZ PROC NEAR		; CProfileNode::Get_Sibling, COMDAT
; _this$ = ecx

; 23   : 	CProfileNode * Get_Sibling( void )		{ return Sibling; }

  00000	8b 41 24	 mov	 eax, DWORD PTR [ecx+36]
  00003	c3		 ret	 0
?Get_Sibling@CProfileNode@@QAEPAV1@XZ ENDP		; CProfileNode::Get_Sibling
_TEXT	ENDS
PUBLIC	?Get_Child@CProfileNode@@QAEPAV1@XZ		; CProfileNode::Get_Child
; Function compile flags: /Ogty
;	COMDAT ?Get_Child@CProfileNode@@QAEPAV1@XZ
_TEXT	SEGMENT
?Get_Child@CProfileNode@@QAEPAV1@XZ PROC NEAR		; CProfileNode::Get_Child, COMDAT
; _this$ = ecx

; 24   : 	CProfileNode * Get_Child( void )			{ return Child; }

  00000	8b 41 20	 mov	 eax, DWORD PTR [ecx+32]
  00003	c3		 ret	 0
?Get_Child@CProfileNode@@QAEPAV1@XZ ENDP		; CProfileNode::Get_Child
_TEXT	ENDS
PUBLIC	?Get_Name@CProfileNode@@QAEPBDXZ		; CProfileNode::Get_Name
; Function compile flags: /Ogty
;	COMDAT ?Get_Name@CProfileNode@@QAEPBDXZ
_TEXT	SEGMENT
?Get_Name@CProfileNode@@QAEPBDXZ PROC NEAR		; CProfileNode::Get_Name, COMDAT
; _this$ = ecx

; 30   : 	const char *	Get_Name( void )				{ return Name; }

  00000	8b 01		 mov	 eax, DWORD PTR [ecx]
  00002	c3		 ret	 0
?Get_Name@CProfileNode@@QAEPBDXZ ENDP			; CProfileNode::Get_Name
_TEXT	ENDS
PUBLIC	?GetCurrentNode@CProfileIterator@@QAEPAVCProfileNode@@XZ ; CProfileIterator::GetCurrentNode
; Function compile flags: /Ogty
;	COMDAT ?GetCurrentNode@CProfileIterator@@QAEPAVCProfileNode@@XZ
_TEXT	SEGMENT
?GetCurrentNode@CProfileIterator@@QAEPAVCProfileNode@@XZ PROC NEAR ; CProfileIterator::GetCurrentNode, COMDAT
; _this$ = ecx

; 74   : 	CProfileNode* GetCurrentNode() { return CurrentChild; }

  00000	8b 41 08	 mov	 eax, DWORD PTR [ecx+8]
  00003	c3		 ret	 0
?GetCurrentNode@CProfileIterator@@QAEPAVCProfileNode@@XZ ENDP ; CProfileIterator::GetCurrentNode
_TEXT	ENDS
PUBLIC	??0CProfileNode@@QAE@PBDPAV0@@Z			; CProfileNode::CProfileNode
; Function compile flags: /Ogty
; File c:\documents and settings\test\mes documents\source\virtuos_v17\build\program\_common\profile.cpp
;	COMDAT ??0CProfileNode@@QAE@PBDPAV0@@Z
_TEXT	SEGMENT
_name$ = 8						; size = 4
_parent$ = 12						; size = 4
??0CProfileNode@@QAE@PBDPAV0@@Z PROC NEAR		; CProfileNode::CProfileNode, COMDAT
; _this$ = ecx

; 67   : {

  00000	8b 54 24 08	 mov	 edx, DWORD PTR _parent$[esp-4]
  00004	8b c1		 mov	 eax, ecx
  00006	8b 4c 24 04	 mov	 ecx, DWORD PTR _name$[esp-4]
  0000a	89 08		 mov	 DWORD PTR [eax], ecx
  0000c	33 c9		 xor	 ecx, ecx
  0000e	89 48 10	 mov	 DWORD PTR [eax+16], ecx
  00011	89 48 14	 mov	 DWORD PTR [eax+20], ecx
  00014	89 48 18	 mov	 DWORD PTR [eax+24], ecx
  00017	89 50 1c	 mov	 DWORD PTR [eax+28], edx
  0001a	89 48 20	 mov	 DWORD PTR [eax+32], ecx
  0001d	89 48 24	 mov	 DWORD PTR [eax+36], ecx

; 68   : 	Reset();

  00020	89 48 04	 mov	 DWORD PTR [eax+4], ecx
  00023	89 48 08	 mov	 DWORD PTR [eax+8], ecx

; 69   : }

  00026	c2 08 00	 ret	 8
??0CProfileNode@@QAE@PBDPAV0@@Z ENDP			; CProfileNode::CProfileNode
; Function compile flags: /Ogty
_TEXT	ENDS
;	COMDAT ??1CProfileNode@@QAE@XZ
_TEXT	SEGMENT
??1CProfileNode@@QAE@XZ PROC NEAR			; CProfileNode::~CProfileNode, COMDAT
; _this$ = ecx

; 73   : {

  00000	56		 push	 esi
  00001	8b f1		 mov	 esi, ecx
  00003	57		 push	 edi

; 74   : 	delete Child;

  00004	8b 7e 20	 mov	 edi, DWORD PTR [esi+32]
  00007	85 ff		 test	 edi, edi
  00009	74 10		 je	 SHORT $L227039
  0000b	8b cf		 mov	 ecx, edi
  0000d	e8 00 00 00 00	 call	 ??1CProfileNode@@QAE@XZ	; CProfileNode::~CProfileNode
  00012	57		 push	 edi
  00013	e8 00 00 00 00	 call	 ??3@YAXPAX@Z		; operator delete
  00018	83 c4 04	 add	 esp, 4
$L227039:

; 75   : 	delete Sibling;

  0001b	8b 76 24	 mov	 esi, DWORD PTR [esi+36]
  0001e	85 f6		 test	 esi, esi
  00020	74 10		 je	 SHORT $L227043
  00022	8b ce		 mov	 ecx, esi
  00024	e8 00 00 00 00	 call	 ??1CProfileNode@@QAE@XZ	; CProfileNode::~CProfileNode
  00029	56		 push	 esi
  0002a	e8 00 00 00 00	 call	 ??3@YAXPAX@Z		; operator delete
  0002f	83 c4 04	 add	 esp, 4
$L227043:
  00032	5f		 pop	 edi
  00033	5e		 pop	 esi

; 76   : }

  00034	c3		 ret	 0
??1CProfileNode@@QAE@XZ ENDP				; CProfileNode::~CProfileNode
_TEXT	ENDS
PUBLIC	?Get_Sub_Node@CProfileNode@@QAEPAV1@PBD@Z	; CProfileNode::Get_Sub_Node
EXTRN	??2@YAPAXI@Z:NEAR				; operator new
EXTRN	__except_list:DWORD
EXTRN	___CxxFrameHandler:NEAR
;	COMDAT xdata$x
xdata$x	SEGMENT
$T227082 DD	0ffffffffH
	DD	FLAT:$L227060
$T227076 DD	019930520H
	DD	01H
	DD	FLAT:$T227082
	DD	2 DUP(00H)
	DD	2 DUP(00H)
; Function compile flags: /Ogty
xdata$x	ENDS
;	COMDAT ?Get_Sub_Node@CProfileNode@@QAEPAV1@PBD@Z
_TEXT	SEGMENT
$T227057 = -16						; size = 4
__$EHRec$ = -12						; size = 12
_name$ = 8						; size = 4
?Get_Sub_Node@CProfileNode@@QAEPAV1@PBD@Z PROC NEAR	; CProfileNode::Get_Sub_Node, COMDAT
; _this$ = ecx

; 88   : {

  00000	6a ff		 push	 -1
  00002	68 00 00 00 00	 push	 __ehhandler$?Get_Sub_Node@CProfileNode@@QAEPAV1@PBD@Z
  00007	64 a1 00 00 00
	00		 mov	 eax, DWORD PTR fs:__except_list
  0000d	50		 push	 eax
  0000e	64 89 25 00 00
	00 00		 mov	 DWORD PTR fs:__except_list, esp
  00015	51		 push	 ecx
  00016	53		 push	 ebx

; 89   : 	// Try to find this sub node
; 90   : 	CProfileNode * child = Child;
; 91   : 	while ( child ) {

  00017	8b 5c 24 18	 mov	 ebx, DWORD PTR _name$[esp+16]
  0001b	56		 push	 esi
  0001c	57		 push	 edi
  0001d	8b f9		 mov	 edi, ecx
  0001f	8b 47 20	 mov	 eax, DWORD PTR [edi+32]
  00022	33 f6		 xor	 esi, esi
  00024	3b c6		 cmp	 eax, esi
  00026	74 0b		 je	 SHORT $L225631
$L225630:

; 92   : 		if ( child->Name == name ) {

  00028	39 18		 cmp	 DWORD PTR [eax], ebx
  0002a	74 3c		 je	 SHORT $L225627

; 93   : 			return child;
; 94   : 		}
; 95   : 		child = child->Sibling;

  0002c	8b 40 24	 mov	 eax, DWORD PTR [eax+36]
  0002f	3b c6		 cmp	 eax, esi
  00031	75 f5		 jne	 SHORT $L225630
$L225631:

; 96   : 	}
; 97   : 
; 98   : 	// We didn't find it, so add it
; 99   : 	CProfileNode * node = new CProfileNode( name, this );

  00033	6a 28		 push	 40			; 00000028H
  00035	e8 00 00 00 00	 call	 ??2@YAPAXI@Z		; operator new
  0003a	83 c4 04	 add	 esp, 4
  0003d	3b c6		 cmp	 eax, esi
  0003f	74 1c		 je	 SHORT $L227058
  00041	89 18		 mov	 DWORD PTR [eax], ebx
  00043	89 70 10	 mov	 DWORD PTR [eax+16], esi
  00046	89 70 14	 mov	 DWORD PTR [eax+20], esi
  00049	89 70 18	 mov	 DWORD PTR [eax+24], esi
  0004c	89 78 1c	 mov	 DWORD PTR [eax+28], edi
  0004f	89 70 20	 mov	 DWORD PTR [eax+32], esi
  00052	89 70 24	 mov	 DWORD PTR [eax+36], esi
  00055	89 70 04	 mov	 DWORD PTR [eax+4], esi
  00058	89 70 08	 mov	 DWORD PTR [eax+8], esi
  0005b	eb 02		 jmp	 SHORT $L227059
$L227058:
  0005d	33 c0		 xor	 eax, eax
$L227059:

; 100  : 	node->Sibling = Child;

  0005f	8b 4f 20	 mov	 ecx, DWORD PTR [edi+32]
  00062	89 48 24	 mov	 DWORD PTR [eax+36], ecx

; 101  : 	Child = node;

  00065	89 47 20	 mov	 DWORD PTR [edi+32], eax
$L225627:

; 102  : 	return node;
; 103  : }

  00068	8b 4c 24 10	 mov	 ecx, DWORD PTR __$EHRec$[esp+28]
  0006c	5f		 pop	 edi
  0006d	5e		 pop	 esi
  0006e	5b		 pop	 ebx
  0006f	64 89 0d 00 00
	00 00		 mov	 DWORD PTR fs:__except_list, ecx
  00076	83 c4 10	 add	 esp, 16			; 00000010H
  00079	c2 04 00	 ret	 4
_TEXT	ENDS
;	COMDAT text$x
text$x	SEGMENT
$L227060:
  00000	8b 45 f0	 mov	 eax, DWORD PTR $T227057[ebp]
  00003	50		 push	 eax
  00004	e8 00 00 00 00	 call	 ??3@YAXPAX@Z		; operator delete
  00009	59		 pop	 ecx
  0000a	c3		 ret	 0
__ehhandler$?Get_Sub_Node@CProfileNode@@QAEPAV1@PBD@Z:
  0000b	b8 00 00 00 00	 mov	 eax, OFFSET FLAT:$T227076
  00010	e9 00 00 00 00	 jmp	 ___CxxFrameHandler
text$x	ENDS
?Get_Sub_Node@CProfileNode@@QAEPAV1@PBD@Z ENDP		; CProfileNode::Get_Sub_Node
PUBLIC	??0CProfileIterator@@IAE@PAVCProfileNode@@@Z	; CProfileIterator::CProfileIterator
; Function compile flags: /Ogty
;	COMDAT ??0CProfileIterator@@IAE@PAVCProfileNode@@@Z
_TEXT	SEGMENT
_start$ = 8						; size = 4
??0CProfileIterator@@IAE@PAVCProfileNode@@@Z PROC NEAR	; CProfileIterator::CProfileIterator, COMDAT
; _this$ = ecx

; 148  : {

  00000	8b c1		 mov	 eax, ecx

; 149  : 	CurrentParent = start;

  00002	8b 4c 24 04	 mov	 ecx, DWORD PTR _start$[esp-4]
  00006	c7 00 00 00 00
	00		 mov	 DWORD PTR [eax], 0
  0000c	89 48 04	 mov	 DWORD PTR [eax+4], ecx

; 150  : 	CurrentChild = CurrentParent->Get_Child();

  0000f	8b 49 20	 mov	 ecx, DWORD PTR [ecx+32]
  00012	89 48 08	 mov	 DWORD PTR [eax+8], ecx

; 151  : }

  00015	c2 04 00	 ret	 4
??0CProfileIterator@@IAE@PAVCProfileNode@@@Z ENDP	; CProfileIterator::CProfileIterator
_TEXT	ENDS
PUBLIC	?First@CProfileIterator@@QAEXXZ			; CProfileIterator::First
; Function compile flags: /Ogty
;	COMDAT ?First@CProfileIterator@@QAEXXZ
_TEXT	SEGMENT
?First@CProfileIterator@@QAEXXZ PROC NEAR		; CProfileIterator::First, COMDAT
; _this$ = ecx

; 155  : 	CurrentChild = CurrentParent->Get_Child();

  00000	8b 41 04	 mov	 eax, DWORD PTR [ecx+4]
  00003	8b 50 20	 mov	 edx, DWORD PTR [eax+32]
  00006	89 51 08	 mov	 DWORD PTR [ecx+8], edx

; 156  : }

  00009	c3		 ret	 0
?First@CProfileIterator@@QAEXXZ ENDP			; CProfileIterator::First
_TEXT	ENDS
PUBLIC	?Next@CProfileIterator@@QAEXXZ			; CProfileIterator::Next
; Function compile flags: /Ogty
;	COMDAT ?Next@CProfileIterator@@QAEXXZ
_TEXT	SEGMENT
?Next@CProfileIterator@@QAEXXZ PROC NEAR		; CProfileIterator::Next, COMDAT
; _this$ = ecx

; 161  : 	CurrentChild = CurrentChild->Get_Sibling();

  00000	8b 41 08	 mov	 eax, DWORD PTR [ecx+8]
  00003	8b 50 24	 mov	 edx, DWORD PTR [eax+36]
  00006	89 51 08	 mov	 DWORD PTR [ecx+8], edx

; 162  : }

  00009	c3		 ret	 0
?Next@CProfileIterator@@QAEXXZ ENDP			; CProfileIterator::Next
_TEXT	ENDS
PUBLIC	?NextPreOrder@CProfileIterator@@QAEXXZ		; CProfileIterator::NextPreOrder
; Function compile flags: /Ogty
;	COMDAT ?NextPreOrder@CProfileIterator@@QAEXXZ
_TEXT	SEGMENT
?NextPreOrder@CProfileIterator@@QAEXXZ PROC NEAR	; CProfileIterator::NextPreOrder, COMDAT
; _this$ = ecx

; 166  : 	CProfileNode* pNode = GetCurrentNode();

  00000	8b 41 08	 mov	 eax, DWORD PTR [ecx+8]

; 167  : 	if( pNode->Get_Child() )

  00003	8b 50 20	 mov	 edx, DWORD PTR [eax+32]
  00006	85 d2		 test	 edx, edx
  00008	74 0f		 je	 SHORT $L225673

; 168  : 	{
; 169  : 		CurrentParent = pNode;
; 170  : 		pNode = pNode->Get_Child();
; 171  : 		m_nPrefixDepth++;

  0000a	8b 11		 mov	 edx, DWORD PTR [ecx]
  0000c	89 41 04	 mov	 DWORD PTR [ecx+4], eax
  0000f	8b 40 20	 mov	 eax, DWORD PTR [eax+32]
  00012	42		 inc	 edx
  00013	89 11		 mov	 DWORD PTR [ecx], edx

; 187  : 	}
; 188  : 	
; 189  : 	CurrentChild = pNode;

  00015	89 41 08	 mov	 DWORD PTR [ecx+8], eax

; 190  : 
; 191  : }

  00018	c3		 ret	 0
$L225673:

; 172  : 	}
; 173  : 	else if( pNode->Get_Sibling() )

  00019	8b 50 24	 mov	 edx, DWORD PTR [eax+36]
  0001c	85 d2		 test	 edx, edx
  0001e	74 04		 je	 SHORT $L227141

; 187  : 	}
; 188  : 	
; 189  : 	CurrentChild = pNode;

  00020	89 51 08	 mov	 DWORD PTR [ecx+8], edx

; 190  : 
; 191  : }

  00023	c3		 ret	 0
$L227141:

; 174  : 		pNode = pNode->Get_Sibling();
; 175  : 	else
; 176  : 	{
; 177  : 		while( m_nPrefixDepth>0 )

  00024	83 39 00	 cmp	 DWORD PTR [ecx], 0
  00027	76 1e		 jbe	 SHORT $L227142
  00029	8d a4 24 00 00
	00 00		 npad	 7
$L225678:

; 178  : 		{
; 179  : 			CurrentChild = pNode;
; 180  : 			pNode = pNode->Get_Parent();
; 181  : 			m_nPrefixDepth--;

  00030	8b 11		 mov	 edx, DWORD PTR [ecx]
  00032	4a		 dec	 edx
  00033	89 41 08	 mov	 DWORD PTR [ecx+8], eax
  00036	8b 40 1c	 mov	 eax, DWORD PTR [eax+28]
  00039	89 11		 mov	 DWORD PTR [ecx], edx

; 182  : 			if( pNode->Get_Sibling() )

  0003b	8b 50 24	 mov	 edx, DWORD PTR [eax+36]
  0003e	85 d2		 test	 edx, edx
  00040	75 05		 jne	 SHORT $L227142
  00042	83 39 00	 cmp	 DWORD PTR [ecx], 0
  00045	77 e9		 ja	 SHORT $L225678
$L227142:

; 183  : 				break;
; 184  : 		}
; 185  : 		CurrentParent = pNode->Get_Parent();

  00047	8b 50 1c	 mov	 edx, DWORD PTR [eax+28]
  0004a	89 51 04	 mov	 DWORD PTR [ecx+4], edx

; 186  : 		pNode = pNode->Get_Sibling();

  0004d	8b 40 24	 mov	 eax, DWORD PTR [eax+36]

; 187  : 	}
; 188  : 	
; 189  : 	CurrentChild = pNode;

  00050	89 41 08	 mov	 DWORD PTR [ecx+8], eax

; 190  : 
; 191  : }

  00053	c3		 ret	 0
?NextPreOrder@CProfileIterator@@QAEXXZ ENDP		; CProfileIterator::NextPreOrder
_TEXT	ENDS
PUBLIC	?Enter_Child@CProfileIterator@@QAEXH@Z		; CProfileIterator::Enter_Child
; Function compile flags: /Ogty
;	COMDAT ?Enter_Child@CProfileIterator@@QAEXH@Z
_TEXT	SEGMENT
_index$ = 8						; size = 4
?Enter_Child@CProfileIterator@@QAEXH@Z PROC NEAR	; CProfileIterator::Enter_Child, COMDAT
; _this$ = ecx

; 200  : 	CurrentChild = CurrentParent->Get_Child();

  00000	8b 41 04	 mov	 eax, DWORD PTR [ecx+4]
  00003	8b 40 20	 mov	 eax, DWORD PTR [eax+32]

; 201  : 	while ( (CurrentChild != NULL) && (index != 0) ) {

  00006	85 c0		 test	 eax, eax
  00008	89 41 08	 mov	 DWORD PTR [ecx+8], eax
  0000b	74 16		 je	 SHORT $L225691
  0000d	8b 44 24 04	 mov	 eax, DWORD PTR _index$[esp-4]
$L225690:
  00011	85 c0		 test	 eax, eax
  00013	74 0e		 je	 SHORT $L225691

; 202  : 		index--;
; 203  : 		CurrentChild = CurrentChild->Get_Sibling();

  00015	8b 51 08	 mov	 edx, DWORD PTR [ecx+8]
  00018	8b 52 24	 mov	 edx, DWORD PTR [edx+36]
  0001b	48		 dec	 eax
  0001c	85 d2		 test	 edx, edx
  0001e	89 51 08	 mov	 DWORD PTR [ecx+8], edx
  00021	75 ee		 jne	 SHORT $L225690
$L225691:

; 204  : 	}
; 205  : 
; 206  : 	if ( CurrentChild != NULL ) {

  00023	8b 41 08	 mov	 eax, DWORD PTR [ecx+8]
  00026	85 c0		 test	 eax, eax
  00028	74 09		 je	 SHORT $L225692

; 207  : 		CurrentParent = CurrentChild;

  0002a	89 41 04	 mov	 DWORD PTR [ecx+4], eax

; 208  : 		CurrentChild = CurrentParent->Get_Child();

  0002d	8b 40 20	 mov	 eax, DWORD PTR [eax+32]
  00030	89 41 08	 mov	 DWORD PTR [ecx+8], eax
$L225692:

; 209  : 	}
; 210  : }

  00033	c2 04 00	 ret	 4
?Enter_Child@CProfileIterator@@QAEXH@Z ENDP		; CProfileIterator::Enter_Child
_TEXT	ENDS
PUBLIC	?Enter_Parent@CProfileIterator@@QAEXXZ		; CProfileIterator::Enter_Parent
; Function compile flags: /Ogty
;	COMDAT ?Enter_Parent@CProfileIterator@@QAEXXZ
_TEXT	SEGMENT
?Enter_Parent@CProfileIterator@@QAEXXZ PROC NEAR	; CProfileIterator::Enter_Parent, COMDAT
; _this$ = ecx

; 215  : 	if ( CurrentParent->Get_Parent() != NULL ) {

  00000	8b 41 04	 mov	 eax, DWORD PTR [ecx+4]
  00003	8b 40 1c	 mov	 eax, DWORD PTR [eax+28]
  00006	85 c0		 test	 eax, eax
  00008	74 03		 je	 SHORT $L225697

; 216  : 		CurrentParent = CurrentParent->Get_Parent();

  0000a	89 41 04	 mov	 DWORD PTR [ecx+4], eax
$L225697:

; 217  : 	}
; 218  : 	CurrentChild = CurrentParent->Get_Child();

  0000d	8b 51 04	 mov	 edx, DWORD PTR [ecx+4]
  00010	8b 42 20	 mov	 eax, DWORD PTR [edx+32]
  00013	89 41 08	 mov	 DWORD PTR [ecx+8], eax

; 219  : }

  00016	c3		 ret	 0
?Enter_Parent@CProfileIterator@@QAEXXZ ENDP		; CProfileIterator::Enter_Parent
_TEXT	ENDS
PUBLIC	?Start_Profile@CProfileManager@@SAXPBD@Z	; CProfileManager::Start_Profile
; Function compile flags: /Ogty
;	COMDAT ?Start_Profile@CProfileManager@@SAXPBD@Z
_TEXT	SEGMENT
$T227187 = 8						; size = 4
_name$ = 8						; size = 4
?Start_Profile@CProfileManager@@SAXPBD@Z PROC NEAR	; CProfileManager::Start_Profile, COMDAT

; 248  : 	if (name != CurrentNode->Get_Name()) {

  00000	a1 00 00 00 00	 mov	 eax, DWORD PTR ?CurrentNode@CProfileManager@@0PAVCProfileNode@@A ; CProfileManager::CurrentNode
  00005	8b 4c 24 04	 mov	 ecx, DWORD PTR _name$[esp-4]
  00009	3b 08		 cmp	 ecx, DWORD PTR [eax]
  0000b	74 0d		 je	 SHORT $L225714

; 249  : 		CurrentNode = CurrentNode->Get_Sub_Node( name );

  0000d	51		 push	 ecx
  0000e	8b c8		 mov	 ecx, eax
  00010	e8 00 00 00 00	 call	 ?Get_Sub_Node@CProfileNode@@QAEPAV1@PBD@Z ; CProfileNode::Get_Sub_Node
  00015	a3 00 00 00 00	 mov	 DWORD PTR ?CurrentNode@CProfileManager@@0PAVCProfileNode@@A, eax ; CProfileManager::CurrentNode
$L225714:

; 250  : 	} 
; 251  : 	
; 252  : 	CurrentNode->Call();

  0001a	ff 40 04	 inc	 DWORD PTR [eax+4]
  0001d	8b 48 18	 mov	 ecx, DWORD PTR [eax+24]
  00020	85 c9		 test	 ecx, ecx
  00022	8d 51 01	 lea	 edx, DWORD PTR [ecx+1]
  00025	89 50 18	 mov	 DWORD PTR [eax+24], edx
  00028	75 16		 jne	 SHORT $L227191
  0002a	83 c0 10	 add	 eax, 16			; 00000010H
  0002d	89 44 24 04	 mov	 DWORD PTR $T227187[esp-4], eax
  00031	52		 push	 edx
  00032	51		 push	 ecx
  00033	8b 4c 24 0c	 mov	 ecx, DWORD PTR $T227187[esp+4]
  00037	0f		 DB	 15			; 0000000fH
  00038	31		 DB	 49			; 00000031H
  00039	89 01		 mov	 DWORD PTR [ecx], eax
  0003b	89 51 04	 mov	 DWORD PTR [ecx+4], edx
  0003e	59		 pop	 ecx
  0003f	5a		 pop	 edx
$L227191:

; 253  : }

  00040	c3		 ret	 0
?Start_Profile@CProfileManager@@SAXPBD@Z ENDP		; CProfileManager::Start_Profile
_TEXT	ENDS
PUBLIC	?Stop_Profile@CProfileManager@@SAXXZ		; CProfileManager::Stop_Profile
; Function compile flags: /Ogty
;	COMDAT ?Stop_Profile@CProfileManager@@SAXXZ
_TEXT	SEGMENT
?Stop_Profile@CProfileManager@@SAXXZ PROC NEAR		; CProfileManager::Stop_Profile, COMDAT

; 261  : 	// Return will indicate whether we should back up to our parent (we may
; 262  : 	// be profiling a recursive function)
; 263  : 	if (CurrentNode->Return()) {

  00000	8b 0d 00 00 00
	00		 mov	 ecx, DWORD PTR ?CurrentNode@CProfileManager@@0PAVCProfileNode@@A ; CProfileManager::CurrentNode
  00006	e8 00 00 00 00	 call	 ?Return@CProfileNode@@QAE_NXZ ; CProfileNode::Return
  0000b	84 c0		 test	 al, al
  0000d	74 0e		 je	 SHORT $L225718

; 264  : 		CurrentNode = CurrentNode->Get_Parent();

  0000f	a1 00 00 00 00	 mov	 eax, DWORD PTR ?CurrentNode@CProfileManager@@0PAVCProfileNode@@A ; CProfileManager::CurrentNode
  00014	8b 48 1c	 mov	 ecx, DWORD PTR [eax+28]
  00017	89 0d 00 00 00
	00		 mov	 DWORD PTR ?CurrentNode@CProfileManager@@0PAVCProfileNode@@A, ecx ; CProfileManager::CurrentNode
$L225718:

; 265  : 	}
; 266  : }

  0001d	c3		 ret	 0
?Stop_Profile@CProfileManager@@SAXXZ ENDP		; CProfileManager::Stop_Profile
_TEXT	ENDS
PUBLIC	??_C@_04BAJDEDPD@Root?$AA@			; `string'
PUBLIC	?Root@CProfileManager@@0VCProfileNode@@A	; CProfileManager::Root
EXTRN	_atexit:NEAR
CRT$XCU	SEGMENT
_$S3	DD	FLAT:_$E1
CRT$XCU	ENDS
_DATA	SEGMENT
	ORG $+4
?Root@CProfileManager@@0VCProfileNode@@A DD FLAT:??_C@_04BAJDEDPD@Root?$AA@ ; CProfileManager::Root
	DD	00H
	DD	000000000r			; 0
	DB	4 DUP(00H)
	DQ	0000000000000000H
	DD	00H
	DD	00H
	DD	00H
	DD	00H
_DATA	ENDS
;	COMDAT ??_C@_04BAJDEDPD@Root?$AA@
CONST	SEGMENT
??_C@_04BAJDEDPD@Root?$AA@ DB 'Root', 00H		; `string'
; Function compile flags: /Ogty
CONST	ENDS
;	COMDAT _$E1
text$yc	SEGMENT
_$E1	PROC NEAR					; COMDAT

; 228  : CProfileNode	CProfileManager::Root( "Root", NULL );

  00000	68 00 00 00 00	 push	 OFFSET FLAT:_$E2
  00005	e8 00 00 00 00	 call	 _atexit
  0000a	59		 pop	 ecx
  0000b	c3		 ret	 0
_$E1	ENDP
; Function compile flags: /Ogty
text$yc	ENDS
;	COMDAT _$E2
text$yd	SEGMENT
_$E2	PROC NEAR					; COMDAT
  00000	8b 0d 20 00 00
	00		 mov	 ecx, DWORD PTR ?Root@CProfileManager@@0VCProfileNode@@A+32
  00006	85 c9		 test	 ecx, ecx
  00008	56		 push	 esi
  00009	8b f1		 mov	 esi, ecx
  0000b	74 0e		 je	 SHORT $L227240
  0000d	e8 00 00 00 00	 call	 ??1CProfileNode@@QAE@XZ	; CProfileNode::~CProfileNode
  00012	56		 push	 esi
  00013	e8 00 00 00 00	 call	 ??3@YAXPAX@Z		; operator delete
  00018	83 c4 04	 add	 esp, 4
$L227240:
  0001b	8b 0d 24 00 00
	00		 mov	 ecx, DWORD PTR ?Root@CProfileManager@@0VCProfileNode@@A+36
  00021	85 c9		 test	 ecx, ecx
  00023	8b f1		 mov	 esi, ecx
  00025	74 0e		 je	 SHORT $L227244
  00027	e8 00 00 00 00	 call	 ??1CProfileNode@@QAE@XZ	; CProfileNode::~CProfileNode
  0002c	56		 push	 esi
  0002d	e8 00 00 00 00	 call	 ??3@YAXPAX@Z		; operator delete
  00032	83 c4 04	 add	 esp, 4
$L227244:
  00035	5e		 pop	 esi
  00036	c3		 ret	 0
_$E2	ENDP
text$yd	ENDS
END
