; Listing generated by Microsoft (R) Optimizing Compiler Version 13.10.6030 

	TITLE	\Documents and Settings\test\Mes documents\Source\Virtuos_v17\Build\Program\_Common\ProjectLux.cpp
	.386P
include listing.inc
if @Version gt 510
.model FLAT
else
_TEXT	SEGMENT PARA USE32 PUBLIC 'CODE'
_TEXT	ENDS
_DATA	SEGMENT DWORD USE32 PUBLIC 'DATA'
_DATA	ENDS
CONST	SEGMENT DWORD USE32 PUBLIC 'CONST'
CONST	ENDS
_BSS	SEGMENT DWORD USE32 PUBLIC 'BSS'
_BSS	ENDS
$$SYMBOLS	SEGMENT BYTE USE32 'DEBSYM'
$$SYMBOLS	ENDS
$$TYPES	SEGMENT BYTE USE32 'DEBTYP'
$$TYPES	ENDS
_TLS	SEGMENT DWORD USE32 PUBLIC 'TLS'
_TLS	ENDS
;	COMDAT ??_C@_0CM@NNPGAIKO@?$CFs?$CI?$CFd?$CJ?5?3?5MoverID?$DN?$CFd?5SCAN?5?$LM?$LN?E?M?$LK?m?$LH@
CONST	SEGMENT DWORD USE32 PUBLIC 'CONST'
CONST	ENDS
;	COMDAT ??_C@_03JOGALCLM@job?$AA@
CONST	SEGMENT DWORD USE32 PUBLIC 'CONST'
CONST	ENDS
;	COMDAT ??_C@_05CCGOGOBM@range?$AA@
CONST	SEGMENT DWORD USE32 PUBLIC 'CONST'
CONST	ENDS
;	COMDAT ??_C@_05KOGNICEN@quest?$AA@
CONST	SEGMENT DWORD USE32 PUBLIC 'CONST'
CONST	ENDS
;	COMDAT ??_C@_04NHONDGDE@item?$AA@
CONST	SEGMENT DWORD USE32 PUBLIC 'CONST'
CONST	ENDS
;	COMDAT ??_C@_04LCKNAMOM@chao?$AA@
CONST	SEGMENT DWORD USE32 PUBLIC 'CONST'
CONST	ENDS
;	COMDAT ??_C@_0CE@DOIGNPAP@?$CFs?$CI?$CFd?$CJ?5?3?5MoverID?$DN?$CFd?5syntax?5error@
CONST	SEGMENT DWORD USE32 PUBLIC 'CONST'
CONST	ENDS
;	COMDAT ??_C@_04BMFHCNCO@scan?$AA@
CONST	SEGMENT DWORD USE32 PUBLIC 'CONST'
CONST	ENDS
;	COMDAT ??_C@_0CO@POCBHHIE@?$CFs?$CI?$CFd?$CJ?5?3?5MoverID?$DN?$CFd?5BATTLE?5?$LM?$LN?E?M?$LK@
CONST	SEGMENT DWORD USE32 PUBLIC 'CONST'
CONST	ENDS
;	COMDAT ??_C@_06FDAMAAOH@Attack?$AA@
CONST	SEGMENT DWORD USE32 PUBLIC 'CONST'
CONST	ENDS
;	COMDAT ??_C@_07EAMOHMIH@cunning?$AA@
CONST	SEGMENT DWORD USE32 PUBLIC 'CONST'
CONST	ENDS
;	COMDAT ??_C@_03IMLOALHE@low?$AA@
CONST	SEGMENT DWORD USE32 PUBLIC 'CONST'
CONST	ENDS
;	COMDAT ??_C@_03JOEFDEFC@Sam?$AA@
CONST	SEGMENT DWORD USE32 PUBLIC 'CONST'
CONST	ENDS
;	COMDAT ??_C@_02MKAICKHL@Hi?$AA@
CONST	SEGMENT DWORD USE32 PUBLIC 'CONST'
CONST	ENDS
;	COMDAT ??_C@_08ENEHKLFG@Recovery?$AA@
CONST	SEGMENT DWORD USE32 PUBLIC 'CONST'
CONST	ENDS
;	COMDAT ??_C@_01OMGOGALD@u?$AA@
CONST	SEGMENT DWORD USE32 PUBLIC 'CONST'
CONST	ENDS
;	COMDAT ??_C@_01GOHFPIOK@m?$AA@
CONST	SEGMENT DWORD USE32 PUBLIC 'CONST'
CONST	ENDS
;	COMDAT ??_C@_0M@JLIIOCOM@RangeAttack?$AA@
CONST	SEGMENT DWORD USE32 PUBLIC 'CONST'
CONST	ENDS
;	COMDAT ??_C@_0BA@LLHANEDJ@KeepRangeAttack?$AA@
CONST	SEGMENT DWORD USE32 PUBLIC 'CONST'
CONST	ENDS
;	COMDAT ??_C@_06DLFKBJMP@Summon?$AA@
CONST	SEGMENT DWORD USE32 PUBLIC 'CONST'
CONST	ENDS
;	COMDAT ??_C@_05LDPELMJE@Evade?$AA@
CONST	SEGMENT DWORD USE32 PUBLIC 'CONST'
CONST	ENDS
;	COMDAT ??_C@_06CJKGKNBJ@Helper?$AA@
CONST	SEGMENT DWORD USE32 PUBLIC 'CONST'
CONST	ENDS
;	COMDAT ??_C@_03NFKEKGGK@all?$AA@
CONST	SEGMENT DWORD USE32 PUBLIC 'CONST'
CONST	ENDS
;	COMDAT ??_C@_03DOHHJLGM@sam?$AA@
CONST	SEGMENT DWORD USE32 PUBLIC 'CONST'
CONST	ENDS
;	COMDAT ??_C@_07NPHLJPC@Berserk?$AA@
CONST	SEGMENT DWORD USE32 PUBLIC 'CONST'
CONST	ENDS
;	COMDAT ??_C@_0N@MDBDBIOA@Randomtarget?$AA@
CONST	SEGMENT DWORD USE32 PUBLIC 'CONST'
CONST	ENDS
;	COMDAT ??_C@_0BP@IMGBJKKL@?$LM?R?H?$KP?G?R?$LM?v?5?$MA?V?$LE?B?5?$LA?$LD?$LM?v?$LA?$KB?5?$LD?J?$LJ?$KL?5?$LI?$LJ?$LE?Y?$AA@
CONST	SEGMENT DWORD USE32 PUBLIC 'CONST'
CONST	ENDS
;	COMDAT ??_C@_0BK@IFOEIIPC@?$CFs?$CI?$CFd?$CJ?5?3?5MoverID?$DN?$CFd?5?$CFs?5?$CFs?$AA@
CONST	SEGMENT DWORD USE32 PUBLIC 'CONST'
CONST	ENDS
;	COMDAT ??_C@_0DC@EACAAEFB@?$CFs?$CI?$CFd?$CJ?5?3?5MoverID?$DN?$CFd?5?A?v?A?$KE?$LF?G?A?v?5?$LO?J?$MA@
CONST	SEGMENT DWORD USE32 PUBLIC 'CONST'
CONST	ENDS
;	COMDAT ??_C@_0CH@ICOKIFCB@?A?v?A?$KE?$LF?H?5?$LI?s?$LN?$LK?E?M?5?$LO?F?$MA?L?$LF?p?$LA?$KB?5?G?A?$LH?N?F?$NL?F?$LM?$LP@
CONST	SEGMENT DWORD USE32 PUBLIC 'CONST'
CONST	ENDS
;	COMDAT ??_C@_0DG@EGDLGKJJ@Berserk?$LI?m?$LH?I?$MA?G?5?$LF?$KF?$LJ?L?A?v?$LJ?h?$LM?v?$MA?G?5?$LJ?$PM?$MA?$KH?$LA@
CONST	SEGMENT DWORD USE32 PUBLIC 'CONST'
CONST	ENDS
;	COMDAT ??_C@_0CM@FCIKAEFM@?$CFs?$CI?$CFd?$CJ?5?3?5MoverID?$DN?$CFd?5MOVE?5?$LM?$LN?E?M?$LK?m?$LH@
CONST	SEGMENT DWORD USE32 PUBLIC 'CONST'
CONST	ENDS
;	COMDAT ??_C@_04MPEDGKBA@Loot?$AA@
CONST	SEGMENT DWORD USE32 PUBLIC 'CONST'
CONST	ENDS
;	COMDAT ??_C@_01LPLHEDKD@d?$AA@
CONST	SEGMENT DWORD USE32 PUBLIC 'CONST'
CONST	ENDS
;	COMDAT ??_C@_0CG@JGKNAMHK@?$CFs?$CI?$CFd?$CJ?5?3?5MoverID?$DN?$CFd?5AI?5?$LE?Y?$MA?$LN?$LP?$KB?5?$HL?5@
CONST	SEGMENT DWORD USE32 PUBLIC 'CONST'
CONST	ENDS
;	COMDAT ??_C@_05CGLFOOHA@?$CDSCAN?$AA@
CONST	SEGMENT DWORD USE32 PUBLIC 'CONST'
CONST	ENDS
;	COMDAT ??_C@_07IHMGMGKA@?$CDBATTLE?$AA@
CONST	SEGMENT DWORD USE32 PUBLIC 'CONST'
CONST	ENDS
;	COMDAT ??_C@_05EJCOBEBF@?$CDMOVE?$AA@
CONST	SEGMENT DWORD USE32 PUBLIC 'CONST'
CONST	ENDS
;	COMDAT ??_C@_0CP@OOJHDEOA@?$CFs?$CI?$CFd?$CJ?5?3?5MoverID?$DN?$CFd?5?$LM?$LN?E?M?$LK?m?$LH?$LA?$MA?L?$LI?$KH@
CONST	SEGMENT DWORD USE32 PUBLIC 'CONST'
CONST	ENDS
;	COMDAT ??_C@_0CI@FPILLNG@?$CFs?$CI?$CFd?$CJ?5?3?5MoverID?$DN?$CFd?5?$LM?$LN?E?M?$LK?m?$LH?$LA?$CI?$DM?$CJ?$MA@
CONST	SEGMENT DWORD USE32 PUBLIC 'CONST'
CONST	ENDS
xdata$x	SEGMENT DWORD USE32 PUBLIC 'CONST'
xdata$x	ENDS
text$AFX_COL1	SEGMENT PARA USE32 PUBLIC ''
text$AFX_COL1	ENDS
;	COMDAT ?LoadPropMoverEx_AI_SCAN@CProject@@QAEHPBDAAVCScript@@H@Z
_TEXT	SEGMENT PARA USE32 PUBLIC 'CODE'
_TEXT	ENDS
;	COMDAT ?LoadPropMoverEx_AI_BATTLE@CProject@@QAEHPBDAAVCScript@@H@Z
_TEXT	SEGMENT PARA USE32 PUBLIC 'CODE'
_TEXT	ENDS
;	COMDAT ?LoadPropMoverEx_AI_MOVE@CProject@@QAEHPBDAAVCScript@@H@Z
_TEXT	SEGMENT PARA USE32 PUBLIC 'CODE'
_TEXT	ENDS
;	COMDAT ?LoadPropMoverEx_AI@CProject@@QAEHPBDAAVCScript@@H@Z
_TEXT	SEGMENT PARA USE32 PUBLIC 'CODE'
_TEXT	ENDS
;	COMDAT ?Format@?$CStringT@DV?$StrTraitMFC@DV?$ChTraitsCRT@D@ATL@@@@@ATL@@QAAXPBDZZ
_TEXT	SEGMENT PARA USE32 PUBLIC 'CODE'
_TEXT	ENDS
;	COMDAT ?compare@?$basic_string@DU?$char_traits@D@std@@V?$allocator@D@2@@std@@QBEHABV12@@Z
_TEXT	SEGMENT PARA USE32 PUBLIC 'CODE'
_TEXT	ENDS
;	COMDAT ?IsFull@?$CStack@K@@QAEHXZ
_TEXT	SEGMENT PARA USE32 PUBLIC 'CODE'
_TEXT	ENDS
;	COMDAT ??0?$pair@KPAVCCtrl@@@std@@QAE@ABKABQAVCCtrl@@@Z
_TEXT	SEGMENT PARA USE32 PUBLIC 'CODE'
_TEXT	ENDS
;	COMDAT ?GetMax@?$CItemContainer@VCItemElem@@@@QAEHXZ
_TEXT	SEGMENT PARA USE32 PUBLIC 'CODE'
_TEXT	ENDS
;	COMDAT ??0?$deque@PAUtagACTMSG@@V?$allocator@PAUtagACTMSG@@@std@@@std@@QAE@XZ
_TEXT	SEGMENT PARA USE32 PUBLIC 'CODE'
_TEXT	ENDS
;	COMDAT ??1?$deque@PAUtagACTMSG@@V?$allocator@PAUtagACTMSG@@@std@@@std@@QAE@XZ
_TEXT	SEGMENT PARA USE32 PUBLIC 'CODE'
_TEXT	ENDS
;	COMDAT ?begin@?$deque@PAUtagACTMSG@@V?$allocator@PAUtagACTMSG@@@std@@@std@@QAE?AViterator@12@XZ
_TEXT	SEGMENT PARA USE32 PUBLIC 'CODE'
_TEXT	ENDS
;	COMDAT ?end@?$deque@PAUtagACTMSG@@V?$allocator@PAUtagACTMSG@@@std@@@std@@QAE?AViterator@12@XZ
_TEXT	SEGMENT PARA USE32 PUBLIC 'CODE'
_TEXT	ENDS
;	COMDAT ?empty@?$deque@PAUtagACTMSG@@V?$allocator@PAUtagACTMSG@@@std@@@std@@QBE_NXZ
_TEXT	SEGMENT PARA USE32 PUBLIC 'CODE'
_TEXT	ENDS
;	COMDAT ?clear@?$deque@PAUtagACTMSG@@V?$allocator@PAUtagACTMSG@@@std@@@std@@QAEXXZ
_TEXT	SEGMENT PARA USE32 PUBLIC 'CODE'
_TEXT	ENDS
;	COMDAT ??0?$deque@PAUtagMAGICATKMSG@@V?$allocator@PAUtagMAGICATKMSG@@@std@@@std@@QAE@XZ
_TEXT	SEGMENT PARA USE32 PUBLIC 'CODE'
_TEXT	ENDS
;	COMDAT ??1?$deque@PAUtagMAGICATKMSG@@V?$allocator@PAUtagMAGICATKMSG@@@std@@@std@@QAE@XZ
_TEXT	SEGMENT PARA USE32 PUBLIC 'CODE'
_TEXT	ENDS
;	COMDAT ?begin@?$deque@PAUtagMAGICATKMSG@@V?$allocator@PAUtagMAGICATKMSG@@@std@@@std@@QAE?AViterator@12@XZ
_TEXT	SEGMENT PARA USE32 PUBLIC 'CODE'
_TEXT	ENDS
;	COMDAT ?end@?$deque@PAUtagMAGICATKMSG@@V?$allocator@PAUtagMAGICATKMSG@@@std@@@std@@QAE?AViterator@12@XZ
_TEXT	SEGMENT PARA USE32 PUBLIC 'CODE'
_TEXT	ENDS
;	COMDAT ?empty@?$deque@PAUtagMAGICATKMSG@@V?$allocator@PAUtagMAGICATKMSG@@@std@@@std@@QBE_NXZ
_TEXT	SEGMENT PARA USE32 PUBLIC 'CODE'
_TEXT	ENDS
;	COMDAT ?clear@?$deque@PAUtagMAGICATKMSG@@V?$allocator@PAUtagMAGICATKMSG@@@std@@@std@@QAEXXZ
_TEXT	SEGMENT PARA USE32 PUBLIC 'CODE'
_TEXT	ENDS
;	COMDAT ??Diterator@?$deque@PAUtagACTMSG@@V?$allocator@PAUtagACTMSG@@@std@@@std@@QBEAAPAUtagACTMSG@@XZ
_TEXT	SEGMENT PARA USE32 PUBLIC 'CODE'
_TEXT	ENDS
;	COMDAT ??Eiterator@?$deque@PAUtagACTMSG@@V?$allocator@PAUtagACTMSG@@@std@@@std@@QAEAAV012@XZ
_TEXT	SEGMENT PARA USE32 PUBLIC 'CODE'
_TEXT	ENDS
;	COMDAT ??9const_iterator@?$deque@PAUtagACTMSG@@V?$allocator@PAUtagACTMSG@@@std@@@std@@QBE_NABV012@@Z
_TEXT	SEGMENT PARA USE32 PUBLIC 'CODE'
_TEXT	ENDS
;	COMDAT ??Diterator@?$deque@PAUtagMAGICATKMSG@@V?$allocator@PAUtagMAGICATKMSG@@@std@@@std@@QBEAAPAUtagMAGICATKMSG@@XZ
_TEXT	SEGMENT PARA USE32 PUBLIC 'CODE'
_TEXT	ENDS
;	COMDAT ??Eiterator@?$deque@PAUtagMAGICATKMSG@@V?$allocator@PAUtagMAGICATKMSG@@@std@@@std@@QAEAAV012@XZ
_TEXT	SEGMENT PARA USE32 PUBLIC 'CODE'
_TEXT	ENDS
;	COMDAT ??9const_iterator@?$deque@PAUtagMAGICATKMSG@@V?$allocator@PAUtagMAGICATKMSG@@@std@@@std@@QBE_NABV012@@Z
_TEXT	SEGMENT PARA USE32 PUBLIC 'CODE'
_TEXT	ENDS
;	COMDAT ?size@?$_Tree@V?$_Tmap_traits@KPAVCGuildMember@@U?$less@K@std@@V?$allocator@U?$pair@$$CBKPAVCGuildMember@@@std@@@3@$0A@@std@@@std@@QBEIXZ
_TEXT	SEGMENT PARA USE32 PUBLIC 'CODE'
_TEXT	ENDS
;	COMDAT ?size@?$_Tree@V?$_Tmap_traits@KPAVCGuild@@U?$less@K@std@@V?$allocator@U?$pair@$$CBKPAVCGuild@@@std@@@3@$0A@@std@@@std@@QBEIXZ
_TEXT	SEGMENT PARA USE32 PUBLIC 'CODE'
_TEXT	ENDS
;	COMDAT ?FormatV@?$CStringT@DV?$StrTraitMFC@DV?$ChTraitsCRT@D@ATL@@@@@ATL@@QAEXPBDPAD@Z
_TEXT	SEGMENT PARA USE32 PUBLIC 'CODE'
_TEXT	ENDS
;	COMDAT ?compare@?$basic_string@DU?$char_traits@D@std@@V?$allocator@D@2@@std@@QBEHIIPBDI@Z
_TEXT	SEGMENT PARA USE32 PUBLIC 'CODE'
_TEXT	ENDS
;	COMDAT ?_Tidy@?$deque@PAUtagACTMSG@@V?$allocator@PAUtagACTMSG@@@std@@@std@@IAEXXZ
_TEXT	SEGMENT PARA USE32 PUBLIC 'CODE'
_TEXT	ENDS
;	COMDAT ??0?$_Deque_val@PAUtagACTMSG@@V?$allocator@PAUtagACTMSG@@@std@@@std@@IAE@V?$allocator@PAUtagACTMSG@@@1@@Z
_TEXT	SEGMENT PARA USE32 PUBLIC 'CODE'
_TEXT	ENDS
;	COMDAT ??0?$allocator@PAUtagACTMSG@@@std@@QAE@XZ
_TEXT	SEGMENT PARA USE32 PUBLIC 'CODE'
_TEXT	ENDS
;	COMDAT ?_Tidy@?$deque@PAUtagMAGICATKMSG@@V?$allocator@PAUtagMAGICATKMSG@@@std@@@std@@IAEXXZ
_TEXT	SEGMENT PARA USE32 PUBLIC 'CODE'
_TEXT	ENDS
;	COMDAT ??0?$_Deque_val@PAUtagMAGICATKMSG@@V?$allocator@PAUtagMAGICATKMSG@@@std@@@std@@IAE@V?$allocator@PAUtagMAGICATKMSG@@@1@@Z
_TEXT	SEGMENT PARA USE32 PUBLIC 'CODE'
_TEXT	ENDS
;	COMDAT ??0?$allocator@PAUtagMAGICATKMSG@@@std@@QAE@XZ
_TEXT	SEGMENT PARA USE32 PUBLIC 'CODE'
_TEXT	ENDS
;	COMDAT ??0iterator@?$deque@PAUtagACTMSG@@V?$allocator@PAUtagACTMSG@@@std@@@std@@QAE@IPBV12@@Z
_TEXT	SEGMENT PARA USE32 PUBLIC 'CODE'
_TEXT	ENDS
;	COMDAT ??Dconst_iterator@?$deque@PAUtagACTMSG@@V?$allocator@PAUtagACTMSG@@@std@@@std@@QBEABQAUtagACTMSG@@XZ
_TEXT	SEGMENT PARA USE32 PUBLIC 'CODE'
_TEXT	ENDS
;	COMDAT ??8const_iterator@?$deque@PAUtagACTMSG@@V?$allocator@PAUtagACTMSG@@@std@@@std@@QBE_NABV012@@Z
_TEXT	SEGMENT PARA USE32 PUBLIC 'CODE'
_TEXT	ENDS
;	COMDAT ??0iterator@?$deque@PAUtagMAGICATKMSG@@V?$allocator@PAUtagMAGICATKMSG@@@std@@@std@@QAE@IPBV12@@Z
_TEXT	SEGMENT PARA USE32 PUBLIC 'CODE'
_TEXT	ENDS
;	COMDAT ??Dconst_iterator@?$deque@PAUtagMAGICATKMSG@@V?$allocator@PAUtagMAGICATKMSG@@@std@@@std@@QBEABQAUtagMAGICATKMSG@@XZ
_TEXT	SEGMENT PARA USE32 PUBLIC 'CODE'
_TEXT	ENDS
;	COMDAT ??8const_iterator@?$deque@PAUtagMAGICATKMSG@@V?$allocator@PAUtagMAGICATKMSG@@@std@@@std@@QBE_NABV012@@Z
_TEXT	SEGMENT PARA USE32 PUBLIC 'CODE'
_TEXT	ENDS
;	COMDAT ?pop_back@?$deque@PAUtagACTMSG@@V?$allocator@PAUtagACTMSG@@@std@@@std@@QAEXXZ
_TEXT	SEGMENT PARA USE32 PUBLIC 'CODE'
_TEXT	ENDS
;	COMDAT ??0?$_Deque_map@PAUtagACTMSG@@V?$allocator@PAUtagACTMSG@@@std@@@std@@IAE@V?$allocator@PAUtagACTMSG@@@1@@Z
_TEXT	SEGMENT PARA USE32 PUBLIC 'CODE'
_TEXT	ENDS
;	COMDAT ??0?$allocator@PAUtagACTMSG@@@std@@QAE@ABV01@@Z
_TEXT	SEGMENT PARA USE32 PUBLIC 'CODE'
_TEXT	ENDS
;	COMDAT ?deallocate@?$allocator@PAUtagACTMSG@@@std@@QAEXPAPAUtagACTMSG@@I@Z
_TEXT	SEGMENT PARA USE32 PUBLIC 'CODE'
_TEXT	ENDS
;	COMDAT ?deallocate@?$allocator@PAPAUtagACTMSG@@@std@@QAEXPAPAPAUtagACTMSG@@I@Z
_TEXT	SEGMENT PARA USE32 PUBLIC 'CODE'
_TEXT	ENDS
;	COMDAT ?destroy@?$allocator@PAPAUtagACTMSG@@@std@@QAEXPAPAPAUtagACTMSG@@@Z
_TEXT	SEGMENT PARA USE32 PUBLIC 'CODE'
_TEXT	ENDS
;	COMDAT ?pop_back@?$deque@PAUtagMAGICATKMSG@@V?$allocator@PAUtagMAGICATKMSG@@@std@@@std@@QAEXXZ
_TEXT	SEGMENT PARA USE32 PUBLIC 'CODE'
_TEXT	ENDS
;	COMDAT ??0?$_Deque_map@PAUtagMAGICATKMSG@@V?$allocator@PAUtagMAGICATKMSG@@@std@@@std@@IAE@V?$allocator@PAUtagMAGICATKMSG@@@1@@Z
_TEXT	SEGMENT PARA USE32 PUBLIC 'CODE'
_TEXT	ENDS
;	COMDAT ??0?$allocator@PAUtagMAGICATKMSG@@@std@@QAE@ABV01@@Z
_TEXT	SEGMENT PARA USE32 PUBLIC 'CODE'
_TEXT	ENDS
;	COMDAT ?deallocate@?$allocator@PAUtagMAGICATKMSG@@@std@@QAEXPAPAUtagMAGICATKMSG@@I@Z
_TEXT	SEGMENT PARA USE32 PUBLIC 'CODE'
_TEXT	ENDS
;	COMDAT ?deallocate@?$allocator@PAPAUtagMAGICATKMSG@@@std@@QAEXPAPAPAUtagMAGICATKMSG@@I@Z
_TEXT	SEGMENT PARA USE32 PUBLIC 'CODE'
_TEXT	ENDS
;	COMDAT ?destroy@?$allocator@PAPAUtagMAGICATKMSG@@@std@@QAEXPAPAPAUtagMAGICATKMSG@@@Z
_TEXT	SEGMENT PARA USE32 PUBLIC 'CODE'
_TEXT	ENDS
;	COMDAT ??0const_iterator@?$deque@PAUtagACTMSG@@V?$allocator@PAUtagACTMSG@@@std@@@std@@QAE@IPBV12@@Z
_TEXT	SEGMENT PARA USE32 PUBLIC 'CODE'
_TEXT	ENDS
;	COMDAT ??0const_iterator@?$deque@PAUtagMAGICATKMSG@@V?$allocator@PAUtagMAGICATKMSG@@@std@@@std@@QAE@IPBV12@@Z
_TEXT	SEGMENT PARA USE32 PUBLIC 'CODE'
_TEXT	ENDS
;	COMDAT ?destroy@?$allocator@PAUtagACTMSG@@@std@@QAEXPAPAUtagACTMSG@@@Z
_TEXT	SEGMENT PARA USE32 PUBLIC 'CODE'
_TEXT	ENDS
;	COMDAT ?destroy@?$allocator@PAUtagMAGICATKMSG@@@std@@QAEXPAPAUtagMAGICATKMSG@@@Z
_TEXT	SEGMENT PARA USE32 PUBLIC 'CODE'
_TEXT	ENDS
;	COMDAT ??$_Iter_cat@Vconst_iterator@?$vector@EV?$allocator@E@std@@@std@@@std@@YA?AUrandom_access_iterator_tag@0@ABVconst_iterator@?$vector@EV?$allocator@E@std@@@0@@Z
_TEXT	SEGMENT PARA USE32 PUBLIC 'CODE'
_TEXT	ENDS
;	COMDAT ??$_Assign@Vconst_iterator@?$vector@EV?$allocator@E@std@@@std@@@?$vector@EV?$allocator@E@std@@@std@@QAEXVconst_iterator@01@0Uinput_iterator_tag@1@@Z
_TEXT	SEGMENT PARA USE32 PUBLIC 'CODE'
_TEXT	ENDS
;	COMDAT ??$_Iter_cat@Viterator@?$_Tree@V?$_Tmap_traits@KPAVCUser@@U?$less@K@std@@V?$allocator@U?$pair@$$CBKPAVCUser@@@std@@@3@$0A@@std@@@std@@@std@@YA?AUbidirectional_iterator_tag@0@ABViterator@?$_Tree@V?$_Tmap_traits@KPAVCUser@@U?$less@K@std@@V?$allocator@U?$pair@$$CBKPAVCUser@@@std@@@3@$0A@@std@@@0@@Z
_TEXT	SEGMENT PARA USE32 PUBLIC 'CODE'
_TEXT	ENDS
;	COMDAT ??$_Distance2@Viterator@?$_Tree@V?$_Tmap_traits@KPAVCUser@@U?$less@K@std@@V?$allocator@U?$pair@$$CBKPAVCUser@@@std@@@3@$0A@@std@@@std@@I@std@@YAXViterator@?$_Tree@V?$_Tmap_traits@KPAVCUser@@U?$less@K@std@@V?$allocator@U?$pair@$$CBKPAVCUser@@@std@@@3@$0A@@std@@@0@0AAIUbidirectional_iterator_tag@0@@Z
_TEXT	SEGMENT PARA USE32 PUBLIC 'CODE'
_TEXT	ENDS
;	COMDAT ??$_Iter_cat@Viterator@?$_Tree@V?$_Tmap_traits@KPAVCCtrl@@U?$less@K@std@@V?$allocator@U?$pair@$$CBKPAVCCtrl@@@std@@@3@$0A@@std@@@std@@@std@@YA?AUbidirectional_iterator_tag@0@ABViterator@?$_Tree@V?$_Tmap_traits@KPAVCCtrl@@U?$less@K@std@@V?$allocator@U?$pair@$$CBKPAVCCtrl@@@std@@@3@$0A@@std@@@0@@Z
_TEXT	SEGMENT PARA USE32 PUBLIC 'CODE'
_TEXT	ENDS
;	COMDAT ??$_Distance2@Viterator@?$_Tree@V?$_Tmap_traits@KPAVCCtrl@@U?$less@K@std@@V?$allocator@U?$pair@$$CBKPAVCCtrl@@@std@@@3@$0A@@std@@@std@@I@std@@YAXViterator@?$_Tree@V?$_Tmap_traits@KPAVCCtrl@@U?$less@K@std@@V?$allocator@U?$pair@$$CBKPAVCCtrl@@@std@@@3@$0A@@std@@@0@0AAIUbidirectional_iterator_tag@0@@Z
_TEXT	SEGMENT PARA USE32 PUBLIC 'CODE'
_TEXT	ENDS
;	COMDAT ??$_Uninitialized_copy@Vconst_iterator@?$vector@EV?$allocator@E@std@@@std@@PAEV?$allocator@E@3@@std@@YAPAEVconst_iterator@?$vector@EV?$allocator@E@std@@@0@0PAEAAV?$allocator@E@0@@Z
_TEXT	SEGMENT PARA USE32 PUBLIC 'CODE'
_TEXT	ENDS
;	COMDAT ??$_Iter_cat@Viterator@?$_Tree@V?$_Tmap_traits@KEU?$less@K@std@@V?$allocator@U?$pair@$$CBKE@std@@@2@$0A@@std@@@std@@@std@@YA?AUbidirectional_iterator_tag@0@ABViterator@?$_Tree@V?$_Tmap_traits@KEU?$less@K@std@@V?$allocator@U?$pair@$$CBKE@std@@@2@$0A@@std@@@0@@Z
_TEXT	SEGMENT PARA USE32 PUBLIC 'CODE'
_TEXT	ENDS
;	COMDAT ??$_Distance2@Viterator@?$_Tree@V?$_Tmap_traits@KEU?$less@K@std@@V?$allocator@U?$pair@$$CBKE@std@@@2@$0A@@std@@@std@@I@std@@YAXViterator@?$_Tree@V?$_Tmap_traits@KEU?$less@K@std@@V?$allocator@U?$pair@$$CBKE@std@@@2@$0A@@std@@@0@0AAIUbidirectional_iterator_tag@0@@Z
_TEXT	SEGMENT PARA USE32 PUBLIC 'CODE'
_TEXT	ENDS
;	COMDAT ??$_Ptr_cat@PAU__SPAWNREGION@CEventLua@@PAU12@@std@@YA?AU_Nonscalar_ptr_iterator_tag@0@AAPAU__SPAWNREGION@CEventLua@@0@Z
_TEXT	SEGMENT PARA USE32 PUBLIC 'CODE'
_TEXT	ENDS
;	COMDAT ??$_Uninit_fill_n@PAU__SPAWNREGION@CEventLua@@IU12@V?$allocator@U__SPAWNREGION@CEventLua@@@std@@@std@@YAXPAU__SPAWNREGION@CEventLua@@IABU12@AAV?$allocator@U__SPAWNREGION@CEventLua@@@0@U_Nonscalar_ptr_iterator_tag@0@@Z
_TEXT	SEGMENT PARA USE32 PUBLIC 'CODE'
_TEXT	ENDS
;	COMDAT ??$_Copy_opt@PAJPAJ@std@@YAPAJPAJ00U_Scalar_ptr_iterator_tag@0@@Z
_TEXT	SEGMENT PARA USE32 PUBLIC 'CODE'
_TEXT	ENDS
;	COMDAT ??$_Uninitialized_copy@PAJPAJV?$allocator@J@std@@@std@@YAPAJPAJ00AAV?$allocator@J@0@@Z
_TEXT	SEGMENT PARA USE32 PUBLIC 'CODE'
_TEXT	ENDS
;	COMDAT ??$_Copy_backward_opt@PAJPAJ@std@@YAPAJPAJ00U_Scalar_ptr_iterator_tag@0@@Z
_TEXT	SEGMENT PARA USE32 PUBLIC 'CODE'
_TEXT	ENDS
;	COMDAT ??$_Ptr_cat@PAUtagDROPITEM@@PAU1@@std@@YA?AU_Nonscalar_ptr_iterator_tag@0@AAPAUtagDROPITEM@@0@Z
_TEXT	SEGMENT PARA USE32 PUBLIC 'CODE'
_TEXT	ENDS
;	COMDAT ??$_Destroy_range@UtagDROPITEM@@V?$allocator@UtagDROPITEM@@@std@@@std@@YAXPAUtagDROPITEM@@0AAV?$allocator@UtagDROPITEM@@@0@U_Nonscalar_ptr_iterator_tag@0@@Z
_TEXT	SEGMENT PARA USE32 PUBLIC 'CODE'
_TEXT	ENDS
;	COMDAT ??$_Ptr_cat@PAUWORMON@@PAU1@@std@@YA?AU_Nonscalar_ptr_iterator_tag@0@AAPAUWORMON@@0@Z
_TEXT	SEGMENT PARA USE32 PUBLIC 'CODE'
_TEXT	ENDS
;	COMDAT ??$_Destroy_range@UWORMON@@V?$allocator@UWORMON@@@std@@@std@@YAXPAUWORMON@@0AAV?$allocator@UWORMON@@@0@U_Nonscalar_ptr_iterator_tag@0@@Z
_TEXT	SEGMENT PARA USE32 PUBLIC 'CODE'
_TEXT	ENDS
;	COMDAT ??$_Ptr_cat@PAU__ITEMGAME@CMiniGame@@PAU12@@std@@YA?AU_Nonscalar_ptr_iterator_tag@0@AAPAU__ITEMGAME@CMiniGame@@0@Z
_TEXT	SEGMENT PARA USE32 PUBLIC 'CODE'
_TEXT	ENDS
;	COMDAT ??$_Destroy_range@U__ITEMGAME@CMiniGame@@V?$allocator@U__ITEMGAME@CMiniGame@@@std@@@std@@YAXPAU__ITEMGAME@CMiniGame@@0AAV?$allocator@U__ITEMGAME@CMiniGame@@@0@U_Nonscalar_ptr_iterator_tag@0@@Z
_TEXT	SEGMENT PARA USE32 PUBLIC 'CODE'
_TEXT	ENDS
;	COMDAT ??$_Destroy_range@KV?$allocator@K@std@@@std@@YAXPAK0AAV?$allocator@K@0@U_Scalar_ptr_iterator_tag@0@@Z
_TEXT	SEGMENT PARA USE32 PUBLIC 'CODE'
_TEXT	ENDS
;	COMDAT ??$_Destroy_range@HV?$allocator@H@std@@@std@@YAXPAH0AAV?$allocator@H@0@U_Scalar_ptr_iterator_tag@0@@Z
_TEXT	SEGMENT PARA USE32 PUBLIC 'CODE'
_TEXT	ENDS
;	COMDAT ??$_Ptr_cat@PAU__ITEM@CExchange@@PAU12@@std@@YA?AU_Nonscalar_ptr_iterator_tag@0@AAPAU__ITEM@CExchange@@0@Z
_TEXT	SEGMENT PARA USE32 PUBLIC 'CODE'
_TEXT	ENDS
;	COMDAT ??$_Destroy_range@U__ITEM@CExchange@@V?$allocator@U__ITEM@CExchange@@@std@@@std@@YAXPAU__ITEM@CExchange@@0AAV?$allocator@U__ITEM@CExchange@@@0@U_Nonscalar_ptr_iterator_tag@0@@Z
_TEXT	SEGMENT PARA USE32 PUBLIC 'CODE'
_TEXT	ENDS
;	COMDAT ??$_Ptr_cat@PAU__POINT@CExchange@@PAU12@@std@@YA?AU_Nonscalar_ptr_iterator_tag@0@AAPAU__POINT@CExchange@@0@Z
_TEXT	SEGMENT PARA USE32 PUBLIC 'CODE'
_TEXT	ENDS
;	COMDAT ??$_Destroy_range@U__POINT@CExchange@@V?$allocator@U__POINT@CExchange@@@std@@@std@@YAXPAU__POINT@CExchange@@0AAV?$allocator@U__POINT@CExchange@@@0@U_Nonscalar_ptr_iterator_tag@0@@Z
_TEXT	SEGMENT PARA USE32 PUBLIC 'CODE'
_TEXT	ENDS
;	COMDAT ??$_Destroy_range@EV?$allocator@E@std@@@std@@YAXPAE0AAV?$allocator@E@0@U_Scalar_ptr_iterator_tag@0@@Z
_TEXT	SEGMENT PARA USE32 PUBLIC 'CODE'
_TEXT	ENDS
;	COMDAT ??$_Uninitialized_copy@PAU__SPAWNREGION@CEventLua@@PAU12@V?$allocator@U__SPAWNREGION@CEventLua@@@std@@@std@@YAPAU__SPAWNREGION@CEventLua@@PAU12@00AAV?$allocator@U__SPAWNREGION@CEventLua@@@0@@Z
_TEXT	SEGMENT PARA USE32 PUBLIC 'CODE'
_TEXT	ENDS
;	COMDAT ??$_Copy_backward_opt@PAU__SPAWNREGION@CEventLua@@PAU12@@std@@YAPAU__SPAWNREGION@CEventLua@@PAU12@00U_Nonscalar_ptr_iterator_tag@0@@Z
_TEXT	SEGMENT PARA USE32 PUBLIC 'CODE'
_TEXT	ENDS
;	COMDAT ??$_Ptr_cat@PAUD3DXVECTOR3@@PAU1@@std@@YA?AU_Nonscalar_ptr_iterator_tag@0@AAPAUD3DXVECTOR3@@0@Z
_TEXT	SEGMENT PARA USE32 PUBLIC 'CODE'
_TEXT	ENDS
;	COMDAT ??$_Destroy_range@UD3DXVECTOR3@@V?$allocator@UD3DXVECTOR3@@@std@@@std@@YAXPAUD3DXVECTOR3@@0AAV?$allocator@UD3DXVECTOR3@@@0@U_Nonscalar_ptr_iterator_tag@0@@Z
_TEXT	SEGMENT PARA USE32 PUBLIC 'CODE'
_TEXT	ENDS
;	COMDAT ??$_Ptr_cat@PAU_GIFTBOX@@PAU1@@std@@YA?AU_Nonscalar_ptr_iterator_tag@0@AAPAU_GIFTBOX@@0@Z
_TEXT	SEGMENT PARA USE32 PUBLIC 'CODE'
_TEXT	ENDS
;	COMDAT ??$_Destroy_range@U_GIFTBOX@@V?$allocator@U_GIFTBOX@@@std@@@std@@YAXPAU_GIFTBOX@@0AAV?$allocator@U_GIFTBOX@@@0@U_Nonscalar_ptr_iterator_tag@0@@Z
_TEXT	SEGMENT PARA USE32 PUBLIC 'CODE'
_TEXT	ENDS
;	COMDAT ??$_Destroy_range@JV?$allocator@J@std@@@std@@YAXPAJ0AAV?$allocator@J@0@U_Scalar_ptr_iterator_tag@0@@Z
_TEXT	SEGMENT PARA USE32 PUBLIC 'CODE'
_TEXT	ENDS
;	COMDAT ??$_Uninit_fill_n@JIJ@std@@YAXPAJIABJAAV?$allocator@J@0@U_Scalar_ptr_iterator_tag@0@@Z
_TEXT	SEGMENT PARA USE32 PUBLIC 'CODE'
_TEXT	ENDS
;	COMDAT ??$_Destroy_range@U__SPAWNREGION@CEventLua@@V?$allocator@U__SPAWNREGION@CEventLua@@@std@@@std@@YAXPAU__SPAWNREGION@CEventLua@@0AAV?$allocator@U__SPAWNREGION@CEventLua@@@0@U_Nonscalar_ptr_iterator_tag@0@@Z
_TEXT	SEGMENT PARA USE32 PUBLIC 'CODE'
_TEXT	ENDS
;	COMDAT ??1?$CFixedArray@UtagWORLD@@@@UAE@XZ
_TEXT	SEGMENT PARA USE32 PUBLIC 'CODE'
_TEXT	ENDS
;	COMDAT ?GetAt@?$CFixedArray@UtagWORLD@@@@QAEPAUtagWORLD@@K@Z
_TEXT	SEGMENT PARA USE32 PUBLIC 'CODE'
_TEXT	ENDS
;	COMDAT ??$?0PAUtagACTMSG@@@?$allocator@PAPAUtagACTMSG@@@std@@QAE@ABV?$allocator@PAUtagACTMSG@@@1@@Z
_TEXT	SEGMENT PARA USE32 PUBLIC 'CODE'
_TEXT	ENDS
;	COMDAT ??$_Destroy@PAPAUtagACTMSG@@@std@@YAXPAPAPAUtagACTMSG@@@Z
_TEXT	SEGMENT PARA USE32 PUBLIC 'CODE'
_TEXT	ENDS
;	COMDAT ??$?0PAUtagMAGICATKMSG@@@?$allocator@PAPAUtagMAGICATKMSG@@@std@@QAE@ABV?$allocator@PAUtagMAGICATKMSG@@@1@@Z
_TEXT	SEGMENT PARA USE32 PUBLIC 'CODE'
_TEXT	ENDS
;	COMDAT ??$_Destroy@PAPAUtagMAGICATKMSG@@@std@@YAXPAPAPAUtagMAGICATKMSG@@@Z
_TEXT	SEGMENT PARA USE32 PUBLIC 'CODE'
_TEXT	ENDS
;	COMDAT ??$_Destroy@PAUtagACTMSG@@@std@@YAXPAPAUtagACTMSG@@@Z
_TEXT	SEGMENT PARA USE32 PUBLIC 'CODE'
_TEXT	ENDS
;	COMDAT ??$_Destroy@PAUtagMAGICATKMSG@@@std@@YAXPAPAUtagMAGICATKMSG@@@Z
_TEXT	SEGMENT PARA USE32 PUBLIC 'CODE'
_TEXT	ENDS
;	COMDAT ??_G?$CFixedArray@UtagWORLD@@@@UAEPAXI@Z
_TEXT	SEGMENT PARA USE32 PUBLIC 'CODE'
_TEXT	ENDS
;	COMDAT ?destroy@?$allocator@UtagDROPITEM@@@std@@QAEXPAUtagDROPITEM@@@Z
_TEXT	SEGMENT PARA USE32 PUBLIC 'CODE'
_TEXT	ENDS
;	COMDAT ?destroy@?$allocator@UWORMON@@@std@@QAEXPAUWORMON@@@Z
_TEXT	SEGMENT PARA USE32 PUBLIC 'CODE'
_TEXT	ENDS
;	COMDAT ?destroy@?$allocator@U__ITEMGAME@CMiniGame@@@std@@QAEXPAU__ITEMGAME@CMiniGame@@@Z
_TEXT	SEGMENT PARA USE32 PUBLIC 'CODE'
_TEXT	ENDS
;	COMDAT ?destroy@?$allocator@U__ITEM@CExchange@@@std@@QAEXPAU__ITEM@CExchange@@@Z
_TEXT	SEGMENT PARA USE32 PUBLIC 'CODE'
_TEXT	ENDS
;	COMDAT ?destroy@?$allocator@U__POINT@CExchange@@@std@@QAEXPAU__POINT@CExchange@@@Z
_TEXT	SEGMENT PARA USE32 PUBLIC 'CODE'
_TEXT	ENDS
;	COMDAT ?begin@?$vector@EV?$allocator@E@std@@@std@@QAE?AViterator@12@XZ
_TEXT	SEGMENT PARA USE32 PUBLIC 'CODE'
_TEXT	ENDS
;	COMDAT ?end@?$vector@EV?$allocator@E@std@@@std@@QAE?AViterator@12@XZ
_TEXT	SEGMENT PARA USE32 PUBLIC 'CODE'
_TEXT	ENDS
;	COMDAT ?erase@?$vector@EV?$allocator@E@std@@@std@@QAE?AViterator@12@V312@0@Z
_TEXT	SEGMENT PARA USE32 PUBLIC 'CODE'
_TEXT	ENDS
;	COMDAT ?construct@?$allocator@U__SPAWNREGION@CEventLua@@@std@@QAEXPAU__SPAWNREGION@CEventLua@@ABU34@@Z
_TEXT	SEGMENT PARA USE32 PUBLIC 'CODE'
_TEXT	ENDS
;	COMDAT ?destroy@?$allocator@U__SPAWNREGION@CEventLua@@@std@@QAEXPAU__SPAWNREGION@CEventLua@@@Z
_TEXT	SEGMENT PARA USE32 PUBLIC 'CODE'
_TEXT	ENDS
;	COMDAT ?destroy@?$allocator@UD3DXVECTOR3@@@std@@QAEXPAUD3DXVECTOR3@@@Z
_TEXT	SEGMENT PARA USE32 PUBLIC 'CODE'
_TEXT	ENDS
;	COMDAT ?destroy@?$allocator@U_GIFTBOX@@@std@@QAEXPAU_GIFTBOX@@@Z
_TEXT	SEGMENT PARA USE32 PUBLIC 'CODE'
_TEXT	ENDS
;	COMDAT ??9const_iterator@?$vector@EV?$allocator@E@std@@@std@@QBE_NABV012@@Z
_TEXT	SEGMENT PARA USE32 PUBLIC 'CODE'
_TEXT	ENDS
;	COMDAT ??0iterator@?$vector@EV?$allocator@E@std@@@std@@QAE@PAE@Z
_TEXT	SEGMENT PARA USE32 PUBLIC 'CODE'
_TEXT	ENDS
;	COMDAT ??8const_iterator@?$vector@EV?$allocator@E@std@@@std@@QBE_NABV012@@Z
_TEXT	SEGMENT PARA USE32 PUBLIC 'CODE'
_TEXT	ENDS
;	COMDAT ??$insert@Vconst_iterator@?$vector@EV?$allocator@E@std@@@std@@@?$vector@EV?$allocator@E@std@@@std@@QAEXViterator@01@Vconst_iterator@01@1@Z
_TEXT	SEGMENT PARA USE32 PUBLIC 'CODE'
_TEXT	ENDS
;	COMDAT ??$_Ptr_cat@Vconst_iterator@?$vector@EV?$allocator@E@std@@@std@@PAE@std@@YA?AU_Nonscalar_ptr_iterator_tag@0@AAVconst_iterator@?$vector@EV?$allocator@E@std@@@0@AAPAE@Z
_TEXT	SEGMENT PARA USE32 PUBLIC 'CODE'
_TEXT	ENDS
;	COMDAT ??$_Uninit_copy@Vconst_iterator@?$vector@EV?$allocator@E@std@@@std@@PAEV?$allocator@E@3@@std@@YAPAEVconst_iterator@?$vector@EV?$allocator@E@std@@@0@0PAEAAV?$allocator@E@0@U_Nonscalar_ptr_iterator_tag@0@@Z
_TEXT	SEGMENT PARA USE32 PUBLIC 'CODE'
_TEXT	ENDS
;	COMDAT ??$_Uninit_copy@JJ@std@@YAPAJPAJ00AAV?$allocator@J@0@U_Scalar_ptr_iterator_tag@0@@Z
_TEXT	SEGMENT PARA USE32 PUBLIC 'CODE'
_TEXT	ENDS
;	COMDAT ??$_Uninit_copy@PAU__SPAWNREGION@CEventLua@@PAU12@V?$allocator@U__SPAWNREGION@CEventLua@@@std@@@std@@YAPAU__SPAWNREGION@CEventLua@@PAU12@00AAV?$allocator@U__SPAWNREGION@CEventLua@@@0@U_Nonscalar_ptr_iterator_tag@0@@Z
_TEXT	SEGMENT PARA USE32 PUBLIC 'CODE'
_TEXT	ENDS
;	COMDAT ??$fill_n@PAJIJ@std@@YAXPAJIABJ@Z
_TEXT	SEGMENT PARA USE32 PUBLIC 'CODE'
_TEXT	ENDS
;	COMDAT ??$_Destroy@UtagDROPITEM@@@std@@YAXPAUtagDROPITEM@@@Z
_TEXT	SEGMENT PARA USE32 PUBLIC 'CODE'
_TEXT	ENDS
;	COMDAT ??$_Destroy@UWORMON@@@std@@YAXPAUWORMON@@@Z
_TEXT	SEGMENT PARA USE32 PUBLIC 'CODE'
_TEXT	ENDS
;	COMDAT ??$_Destroy@U__ITEMGAME@CMiniGame@@@std@@YAXPAU__ITEMGAME@CMiniGame@@@Z
_TEXT	SEGMENT PARA USE32 PUBLIC 'CODE'
_TEXT	ENDS
;	COMDAT ??$_Destroy@U__ITEM@CExchange@@@std@@YAXPAU__ITEM@CExchange@@@Z
_TEXT	SEGMENT PARA USE32 PUBLIC 'CODE'
_TEXT	ENDS
;	COMDAT ??$_Destroy@U__POINT@CExchange@@@std@@YAXPAU__POINT@CExchange@@@Z
_TEXT	SEGMENT PARA USE32 PUBLIC 'CODE'
_TEXT	ENDS
;	COMDAT ??$copy@PAEPAE@std@@YAPAEPAE00@Z
_TEXT	SEGMENT PARA USE32 PUBLIC 'CODE'
_TEXT	ENDS
;	COMDAT ??$_Construct@U__SPAWNREGION@CEventLua@@U12@@std@@YAXPAU__SPAWNREGION@CEventLua@@ABU12@@Z
_TEXT	SEGMENT PARA USE32 PUBLIC 'CODE'
_TEXT	ENDS
;	COMDAT ??$_Destroy@U__SPAWNREGION@CEventLua@@@std@@YAXPAU__SPAWNREGION@CEventLua@@@Z
_TEXT	SEGMENT PARA USE32 PUBLIC 'CODE'
_TEXT	ENDS
;	COMDAT ??$_Destroy@UD3DXVECTOR3@@@std@@YAXPAUD3DXVECTOR3@@@Z
_TEXT	SEGMENT PARA USE32 PUBLIC 'CODE'
_TEXT	ENDS
;	COMDAT ??$_Destroy@U_GIFTBOX@@@std@@YAXPAU_GIFTBOX@@@Z
_TEXT	SEGMENT PARA USE32 PUBLIC 'CODE'
_TEXT	ENDS
;	COMDAT ?construct@?$allocator@E@std@@QAEXPAEABE@Z
_TEXT	SEGMENT PARA USE32 PUBLIC 'CODE'
_TEXT	ENDS
;	COMDAT ?destroy@?$allocator@E@std@@QAEXPAE@Z
_TEXT	SEGMENT PARA USE32 PUBLIC 'CODE'
_TEXT	ENDS
;	COMDAT ??Dconst_iterator@?$vector@EV?$allocator@E@std@@@std@@QBEABEXZ
_TEXT	SEGMENT PARA USE32 PUBLIC 'CODE'
_TEXT	ENDS
;	COMDAT ??Econst_iterator@?$vector@EV?$allocator@E@std@@@std@@QAEAAV012@XZ
_TEXT	SEGMENT PARA USE32 PUBLIC 'CODE'
_TEXT	ENDS
;	COMDAT ??$_Insert@Vconst_iterator@?$vector@EV?$allocator@E@std@@@std@@@?$vector@EV?$allocator@E@std@@@std@@QAEXViterator@01@Vconst_iterator@01@1Uforward_iterator_tag@1@@Z
_TEXT	SEGMENT PARA USE32 PUBLIC 'CODE'
_TEXT	ENDS
;	COMDAT ??$_Copy_opt@PAEPAE@std@@YAPAEPAE00U_Scalar_ptr_iterator_tag@0@@Z
_TEXT	SEGMENT PARA USE32 PUBLIC 'CODE'
_TEXT	ENDS
;	COMDAT ??$_Construct@EE@std@@YAXPAEABE@Z
_TEXT	SEGMENT PARA USE32 PUBLIC 'CODE'
_TEXT	ENDS
;	COMDAT ??$_Destroy@E@std@@YAXPAE@Z
_TEXT	SEGMENT PARA USE32 PUBLIC 'CODE'
_TEXT	ENDS
;	COMDAT ?capacity@?$vector@EV?$allocator@E@std@@@std@@QBEIXZ
_TEXT	SEGMENT PARA USE32 PUBLIC 'CODE'
_TEXT	ENDS
;	COMDAT ??Giterator@?$vector@EV?$allocator@E@std@@@std@@QBEHABVconst_iterator@12@@Z
_TEXT	SEGMENT PARA USE32 PUBLIC 'CODE'
_TEXT	ENDS
;	COMDAT ??Gconst_iterator@?$vector@EV?$allocator@E@std@@@std@@QBEHABV012@@Z
_TEXT	SEGMENT PARA USE32 PUBLIC 'CODE'
_TEXT	ENDS
;	COMDAT ??$_Distance@Vconst_iterator@?$vector@EV?$allocator@E@std@@@std@@I@std@@YAXVconst_iterator@?$vector@EV?$allocator@E@std@@@0@0AAI@Z
_TEXT	SEGMENT PARA USE32 PUBLIC 'CODE'
_TEXT	ENDS
;	COMDAT ??$_Ucopy@PAE@?$vector@EV?$allocator@E@std@@@std@@IAEPAEPAE00@Z
_TEXT	SEGMENT PARA USE32 PUBLIC 'CODE'
_TEXT	ENDS
;	COMDAT ??$advance@Vconst_iterator@?$vector@EV?$allocator@E@std@@@std@@H@std@@YAXAAVconst_iterator@?$vector@EV?$allocator@E@std@@@0@H@Z
_TEXT	SEGMENT PARA USE32 PUBLIC 'CODE'
_TEXT	ENDS
;	COMDAT ??$copy@Vconst_iterator@?$vector@EV?$allocator@E@std@@@std@@PAE@std@@YAPAEVconst_iterator@?$vector@EV?$allocator@E@std@@@0@0PAE@Z
_TEXT	SEGMENT PARA USE32 PUBLIC 'CODE'
_TEXT	ENDS
;	COMDAT ??$copy_backward@PAEPAE@std@@YAPAEPAE00@Z
_TEXT	SEGMENT PARA USE32 PUBLIC 'CODE'
_TEXT	ENDS
;	COMDAT ??$_Distance2@Vconst_iterator@?$vector@EV?$allocator@E@std@@@std@@I@std@@YAXVconst_iterator@?$vector@EV?$allocator@E@std@@@0@0AAIUrandom_access_iterator_tag@0@@Z
_TEXT	SEGMENT PARA USE32 PUBLIC 'CODE'
_TEXT	ENDS
;	COMDAT ??$_Uninitialized_copy@PAEPAEV?$allocator@E@std@@@std@@YAPAEPAE00AAV?$allocator@E@0@@Z
_TEXT	SEGMENT PARA USE32 PUBLIC 'CODE'
_TEXT	ENDS
;	COMDAT ??$_Advance@Vconst_iterator@?$vector@EV?$allocator@E@std@@@std@@H@std@@YAXAAVconst_iterator@?$vector@EV?$allocator@E@std@@@0@HUrandom_access_iterator_tag@0@@Z
_TEXT	SEGMENT PARA USE32 PUBLIC 'CODE'
_TEXT	ENDS
;	COMDAT ??$_Copy_opt@Vconst_iterator@?$vector@EV?$allocator@E@std@@@std@@PAE@std@@YAPAEVconst_iterator@?$vector@EV?$allocator@E@std@@@0@0PAEU_Nonscalar_ptr_iterator_tag@0@@Z
_TEXT	SEGMENT PARA USE32 PUBLIC 'CODE'
_TEXT	ENDS
;	COMDAT ??$_Copy_backward_opt@PAEPAE@std@@YAPAEPAE00U_Scalar_ptr_iterator_tag@0@@Z
_TEXT	SEGMENT PARA USE32 PUBLIC 'CODE'
_TEXT	ENDS
;	COMDAT ??Yconst_iterator@?$vector@EV?$allocator@E@std@@@std@@QAEAAV012@H@Z
_TEXT	SEGMENT PARA USE32 PUBLIC 'CODE'
_TEXT	ENDS
;	COMDAT ??$_Uninit_copy@EE@std@@YAPAEPAE00AAV?$allocator@E@0@U_Scalar_ptr_iterator_tag@0@@Z
_TEXT	SEGMENT PARA USE32 PUBLIC 'CODE'
_TEXT	ENDS
;	COMDAT ?deallocate@?$allocator@E@std@@QAEXPAEI@Z
_TEXT	SEGMENT PARA USE32 PUBLIC 'CODE'
_TEXT	ENDS
;	COMDAT ??$_Ucopy@Vconst_iterator@?$vector@EV?$allocator@E@std@@@std@@@?$vector@EV?$allocator@E@std@@@std@@IAEPAEVconst_iterator@01@0PAE@Z
_TEXT	SEGMENT PARA USE32 PUBLIC 'CODE'
_TEXT	ENDS
;	COMDAT ?allocate@?$allocator@E@std@@QAEPAEI@Z
_TEXT	SEGMENT PARA USE32 PUBLIC 'CODE'
_TEXT	ENDS
;	COMDAT ??$_Allocate@E@std@@YAPAEIPAE@Z
_TEXT	SEGMENT PARA USE32 PUBLIC 'CODE'
_TEXT	ENDS
;	COMDAT ?_Xlen@?$vector@EV?$allocator@E@std@@@std@@IBEXXZ
_TEXT	SEGMENT PARA USE32 PUBLIC 'CODE'
_TEXT	ENDS
;	COMDAT ??0length_error@std@@QAE@ABV?$basic_string@DU?$char_traits@D@std@@V?$allocator@D@2@@1@@Z
_TEXT	SEGMENT PARA USE32 PUBLIC 'CODE'
_TEXT	ENDS
;	COMDAT ??0logic_error@std@@QAE@ABV?$basic_string@DU?$char_traits@D@std@@V?$allocator@D@2@@1@@Z
_TEXT	SEGMENT PARA USE32 PUBLIC 'CODE'
_TEXT	ENDS
;	COMDAT ??_7logic_error@std@@6B@
CONST	SEGMENT DWORD USE32 PUBLIC 'CONST'
CONST	ENDS
;	COMDAT ??_Glogic_error@std@@UAEPAXI@Z
_TEXT	SEGMENT PARA USE32 PUBLIC 'CODE'
_TEXT	ENDS
;	COMDAT ?what@logic_error@std@@UBEPBDXZ
_TEXT	SEGMENT PARA USE32 PUBLIC 'CODE'
_TEXT	ENDS
;	COMDAT ?c_str@?$basic_string@DU?$char_traits@D@std@@V?$allocator@D@2@@std@@QBEPBDXZ
_TEXT	SEGMENT PARA USE32 PUBLIC 'CODE'
_TEXT	ENDS
;	COMDAT ??0?$basic_string@DU?$char_traits@D@std@@V?$allocator@D@2@@std@@QAE@ABV01@@Z
_TEXT	SEGMENT PARA USE32 PUBLIC 'CODE'
_TEXT	ENDS
;	COMDAT ??0?$_String_val@DV?$allocator@D@std@@@std@@IAE@V?$allocator@D@1@@Z
_TEXT	SEGMENT PARA USE32 PUBLIC 'CODE'
_TEXT	ENDS
;	COMDAT ??0?$allocator@D@std@@QAE@ABV01@@Z
_TEXT	SEGMENT PARA USE32 PUBLIC 'CODE'
_TEXT	ENDS
;	COMDAT ?_Tidy@?$basic_string@DU?$char_traits@D@std@@V?$allocator@D@2@@std@@IAEX_NI@Z
_TEXT	SEGMENT PARA USE32 PUBLIC 'CODE'
_TEXT	ENDS
;	COMDAT ?copy@?$char_traits@D@std@@SAPADPADPBDI@Z
_TEXT	SEGMENT PARA USE32 PUBLIC 'CODE'
_TEXT	ENDS
;	COMDAT ?deallocate@?$allocator@D@std@@QAEXPADI@Z
_TEXT	SEGMENT PARA USE32 PUBLIC 'CODE'
_TEXT	ENDS
;	COMDAT ?_Eos@?$basic_string@DU?$char_traits@D@std@@V?$allocator@D@2@@std@@IAEXI@Z
_TEXT	SEGMENT PARA USE32 PUBLIC 'CODE'
_TEXT	ENDS
;	COMDAT ?assign@?$char_traits@D@std@@SAXAADABD@Z
_TEXT	SEGMENT PARA USE32 PUBLIC 'CODE'
_TEXT	ENDS
;	COMDAT ?_Myptr@?$basic_string@DU?$char_traits@D@std@@V?$allocator@D@2@@std@@QAEPADXZ
_TEXT	SEGMENT PARA USE32 PUBLIC 'CODE'
_TEXT	ENDS
;	COMDAT ?assign@?$basic_string@DU?$char_traits@D@std@@V?$allocator@D@2@@std@@QAEAAV12@ABV12@II@Z
_TEXT	SEGMENT PARA USE32 PUBLIC 'CODE'
_TEXT	ENDS
;	COMDAT ?erase@?$basic_string@DU?$char_traits@D@std@@V?$allocator@D@2@@std@@QAEAAV12@II@Z
_TEXT	SEGMENT PARA USE32 PUBLIC 'CODE'
_TEXT	ENDS
;	COMDAT ?move@?$char_traits@D@std@@SAPADPADPBDI@Z
_TEXT	SEGMENT PARA USE32 PUBLIC 'CODE'
_TEXT	ENDS
;	COMDAT ?_Grow@?$basic_string@DU?$char_traits@D@std@@V?$allocator@D@2@@std@@IAE_NI_N@Z
_TEXT	SEGMENT PARA USE32 PUBLIC 'CODE'
_TEXT	ENDS
;	COMDAT ?max_size@?$basic_string@DU?$char_traits@D@std@@V?$allocator@D@2@@std@@QBEIXZ
_TEXT	SEGMENT PARA USE32 PUBLIC 'CODE'
_TEXT	ENDS
;	COMDAT ?max_size@?$allocator@D@std@@QBEIXZ
_TEXT	SEGMENT PARA USE32 PUBLIC 'CODE'
_TEXT	ENDS
;	COMDAT ?_Copy@?$basic_string@DU?$char_traits@D@std@@V?$allocator@D@2@@std@@IAEXII@Z
_TEXT	SEGMENT PARA USE32 PUBLIC 'CODE'
_TEXT	ENDS
;	COMDAT ?allocate@?$allocator@D@std@@QAEPADI@Z
_TEXT	SEGMENT PARA USE32 PUBLIC 'CODE'
_TEXT	ENDS
;	COMDAT ??$_Allocate@D@std@@YAPADIPAD@Z
_TEXT	SEGMENT PARA USE32 PUBLIC 'CODE'
_TEXT	ENDS
;	COMDAT ?npos@?$basic_string@DU?$char_traits@D@std@@V?$allocator@D@2@@std@@2IB
CONST	SEGMENT DWORD USE32 PUBLIC 'CONST'
CONST	ENDS
;	COMDAT ??1logic_error@std@@UAE@XZ
_TEXT	SEGMENT PARA USE32 PUBLIC 'CODE'
_TEXT	ENDS
;	COMDAT ??_7length_error@std@@6B@
CONST	SEGMENT DWORD USE32 PUBLIC 'CONST'
CONST	ENDS
;	COMDAT ??_Glength_error@std@@UAEPAXI@Z
_TEXT	SEGMENT PARA USE32 PUBLIC 'CODE'
_TEXT	ENDS
;	COMDAT ??1length_error@std@@UAE@XZ
_TEXT	SEGMENT PARA USE32 PUBLIC 'CODE'
_TEXT	ENDS
;	COMDAT ??0?$basic_string@DU?$char_traits@D@std@@V?$allocator@D@2@@std@@QAE@PBD@Z
_TEXT	SEGMENT PARA USE32 PUBLIC 'CODE'
_TEXT	ENDS
;	COMDAT ??0?$allocator@D@std@@QAE@XZ
_TEXT	SEGMENT PARA USE32 PUBLIC 'CODE'
_TEXT	ENDS
;	COMDAT ?assign@?$basic_string@DU?$char_traits@D@std@@V?$allocator@D@2@@std@@QAEAAV12@PBD@Z
_TEXT	SEGMENT PARA USE32 PUBLIC 'CODE'
_TEXT	ENDS
;	COMDAT ?assign@?$basic_string@DU?$char_traits@D@std@@V?$allocator@D@2@@std@@QAEAAV12@PBDI@Z
_TEXT	SEGMENT PARA USE32 PUBLIC 'CODE'
_TEXT	ENDS
;	COMDAT ?_Inside@?$basic_string@DU?$char_traits@D@std@@V?$allocator@D@2@@std@@IAE_NPBD@Z
_TEXT	SEGMENT PARA USE32 PUBLIC 'CODE'
_TEXT	ENDS
;	COMDAT ?length@?$char_traits@D@std@@SAIPBD@Z
_TEXT	SEGMENT PARA USE32 PUBLIC 'CODE'
_TEXT	ENDS
;	COMDAT ??_C@_0BD@OLBABOEK@vector?$DMT?$DO?5too?5long?$AA@
CONST	SEGMENT DWORD USE32 PUBLIC 'CONST'
CONST	ENDS
;	COMDAT ??1?$basic_string@DU?$char_traits@D@std@@V?$allocator@D@2@@std@@QAE@XZ
_TEXT	SEGMENT PARA USE32 PUBLIC 'CODE'
_TEXT	ENDS
;	COMDAT __TI3?AVlength_error@std@@
xdata$x	SEGMENT DWORD USE32 PUBLIC 'CONST'
xdata$x	ENDS
;	COMDAT __CTA3?AVlength_error@std@@
xdata$x	SEGMENT DWORD USE32 PUBLIC 'CONST'
xdata$x	ENDS
;	COMDAT __CT??_R0?AVlength_error@std@@@8??0length_error@std@@QAE@ABV01@@Z40
xdata$x	SEGMENT DWORD USE32 PUBLIC 'CONST'
xdata$x	ENDS
;	COMDAT ??_R0?AVlength_error@std@@@8
_DATA	SEGMENT DWORD USE32 PUBLIC 'DATA'
_DATA	ENDS
;	COMDAT ??0length_error@std@@QAE@ABV01@@Z
_TEXT	SEGMENT PARA USE32 PUBLIC 'CODE'
_TEXT	ENDS
;	COMDAT ??0logic_error@std@@QAE@ABV01@@Z
_TEXT	SEGMENT PARA USE32 PUBLIC 'CODE'
_TEXT	ENDS
;	COMDAT __CT??_R0?AVlogic_error@std@@@8??0logic_error@std@@QAE@ABV01@@Z40
xdata$x	SEGMENT DWORD USE32 PUBLIC 'CONST'
xdata$x	ENDS
;	COMDAT ??_R0?AVlogic_error@std@@@8
_DATA	SEGMENT DWORD USE32 PUBLIC 'DATA'
_DATA	ENDS
;	COMDAT __CT??_R0?AVexception@@@8??0exception@@QAE@ABV0@@Z12
xdata$x	SEGMENT DWORD USE32 PUBLIC 'CONST'
xdata$x	ENDS
;	COMDAT ??_R0?AVexception@@@8
_DATA	SEGMENT DWORD USE32 PUBLIC 'DATA'
_DATA	ENDS
;	COMDAT ?size@?$vector@EV?$allocator@E@std@@@std@@QBEIXZ
_TEXT	SEGMENT PARA USE32 PUBLIC 'CODE'
_TEXT	ENDS
;	COMDAT ?max_size@?$vector@EV?$allocator@E@std@@@std@@QBEIXZ
_TEXT	SEGMENT PARA USE32 PUBLIC 'CODE'
_TEXT	ENDS
;	COMDAT ?max_size@?$allocator@E@std@@QBEIXZ
_TEXT	SEGMENT PARA USE32 PUBLIC 'CODE'
_TEXT	ENDS
;	COMDAT ??2@YAPAXIPAX@Z
_TEXT	SEGMENT PARA USE32 PUBLIC 'CODE'
_TEXT	ENDS
;	COMDAT ?_Ptr_cat@std@@YA?AU_Scalar_ptr_iterator_tag@1@PAE0@Z
_TEXT	SEGMENT PARA USE32 PUBLIC 'CODE'
_TEXT	ENDS
;	COMDAT ??0const_iterator@?$vector@EV?$allocator@E@std@@@std@@QAE@PAE@Z
_TEXT	SEGMENT PARA USE32 PUBLIC 'CODE'
_TEXT	ENDS
;	COMDAT ?_Destroy@?$vector@EV?$allocator@E@std@@@std@@IAEXPAE0@Z
_TEXT	SEGMENT PARA USE32 PUBLIC 'CODE'
_TEXT	ENDS
;	COMDAT ??$_Destroy_range@EV?$allocator@E@std@@@std@@YAXPAE0AAV?$allocator@E@0@@Z
_TEXT	SEGMENT PARA USE32 PUBLIC 'CODE'
_TEXT	ENDS
;	COMDAT ??_7?$CFixedArray@UtagWORLD@@@@6B@
CONST	SEGMENT DWORD USE32 PUBLIC 'CONST'
CONST	ENDS
;	COMDAT ?_Ptr_cat@std@@YA?AU_Scalar_ptr_iterator_tag@1@PAJ0@Z
_TEXT	SEGMENT PARA USE32 PUBLIC 'CODE'
_TEXT	ENDS
;	COMDAT ??9const_iterator@?$_Tree@V?$_Tmap_traits@KEU?$less@K@std@@V?$allocator@U?$pair@$$CBKE@std@@@2@$0A@@std@@@std@@QBE_NABV012@@Z
_TEXT	SEGMENT PARA USE32 PUBLIC 'CODE'
_TEXT	ENDS
;	COMDAT ??8const_iterator@?$_Tree@V?$_Tmap_traits@KEU?$less@K@std@@V?$allocator@U?$pair@$$CBKE@std@@@2@$0A@@std@@@std@@QBE_NABV012@@Z
_TEXT	SEGMENT PARA USE32 PUBLIC 'CODE'
_TEXT	ENDS
;	COMDAT ??Eiterator@?$_Tree@V?$_Tmap_traits@KEU?$less@K@std@@V?$allocator@U?$pair@$$CBKE@std@@@2@$0A@@std@@@std@@QAEAAV012@XZ
_TEXT	SEGMENT PARA USE32 PUBLIC 'CODE'
_TEXT	ENDS
;	COMDAT ??Econst_iterator@?$_Tree@V?$_Tmap_traits@KEU?$less@K@std@@V?$allocator@U?$pair@$$CBKE@std@@@2@$0A@@std@@@std@@QAEAAV012@XZ
_TEXT	SEGMENT PARA USE32 PUBLIC 'CODE'
_TEXT	ENDS
;	COMDAT ?_Inc@const_iterator@?$_Tree@V?$_Tmap_traits@KEU?$less@K@std@@V?$allocator@U?$pair@$$CBKE@std@@@2@$0A@@std@@@std@@QAEXXZ
_TEXT	SEGMENT PARA USE32 PUBLIC 'CODE'
_TEXT	ENDS
;	COMDAT ?_Min@?$_Tree@V?$_Tmap_traits@KEU?$less@K@std@@V?$allocator@U?$pair@$$CBKE@std@@@2@$0A@@std@@@std@@KAPAU_Node@?$_Tree_nod@V?$_Tmap_traits@KEU?$less@K@std@@V?$allocator@U?$pair@$$CBKE@std@@@2@$0A@@std@@@2@PAU342@@Z
_TEXT	SEGMENT PARA USE32 PUBLIC 'CODE'
_TEXT	ENDS
;	COMDAT ?_Left@?$_Tree@V?$_Tmap_traits@KEU?$less@K@std@@V?$allocator@U?$pair@$$CBKE@std@@@2@$0A@@std@@@std@@KAAAPAU_Node@?$_Tree_nod@V?$_Tmap_traits@KEU?$less@K@std@@V?$allocator@U?$pair@$$CBKE@std@@@2@$0A@@std@@@2@PAU342@@Z
_TEXT	SEGMENT PARA USE32 PUBLIC 'CODE'
_TEXT	ENDS
;	COMDAT ?_Isnil@?$_Tree@V?$_Tmap_traits@KEU?$less@K@std@@V?$allocator@U?$pair@$$CBKE@std@@@2@$0A@@std@@@std@@KAAADPAU_Node@?$_Tree_nod@V?$_Tmap_traits@KEU?$less@K@std@@V?$allocator@U?$pair@$$CBKE@std@@@2@$0A@@std@@@2@@Z
_TEXT	SEGMENT PARA USE32 PUBLIC 'CODE'
_TEXT	ENDS
;	COMDAT ?_Parent@?$_Tree@V?$_Tmap_traits@KEU?$less@K@std@@V?$allocator@U?$pair@$$CBKE@std@@@2@$0A@@std@@@std@@KAAAPAU_Node@?$_Tree_nod@V?$_Tmap_traits@KEU?$less@K@std@@V?$allocator@U?$pair@$$CBKE@std@@@2@$0A@@std@@@2@PAU342@@Z
_TEXT	SEGMENT PARA USE32 PUBLIC 'CODE'
_TEXT	ENDS
;	COMDAT ?_Right@?$_Tree@V?$_Tmap_traits@KEU?$less@K@std@@V?$allocator@U?$pair@$$CBKE@std@@@2@$0A@@std@@@std@@KAAAPAU_Node@?$_Tree_nod@V?$_Tmap_traits@KEU?$less@K@std@@V?$allocator@U?$pair@$$CBKE@std@@@2@$0A@@std@@@2@PAU342@@Z
_TEXT	SEGMENT PARA USE32 PUBLIC 'CODE'
_TEXT	ENDS
;	COMDAT ??9const_iterator@?$_Tree@V?$_Tmap_traits@KPAVCCtrl@@U?$less@K@std@@V?$allocator@U?$pair@$$CBKPAVCCtrl@@@std@@@3@$0A@@std@@@std@@QBE_NABV012@@Z
_TEXT	SEGMENT PARA USE32 PUBLIC 'CODE'
_TEXT	ENDS
;	COMDAT ??8const_iterator@?$_Tree@V?$_Tmap_traits@KPAVCCtrl@@U?$less@K@std@@V?$allocator@U?$pair@$$CBKPAVCCtrl@@@std@@@3@$0A@@std@@@std@@QBE_NABV012@@Z
_TEXT	SEGMENT PARA USE32 PUBLIC 'CODE'
_TEXT	ENDS
;	COMDAT ??Eiterator@?$_Tree@V?$_Tmap_traits@KPAVCCtrl@@U?$less@K@std@@V?$allocator@U?$pair@$$CBKPAVCCtrl@@@std@@@3@$0A@@std@@@std@@QAEAAV012@XZ
_TEXT	SEGMENT PARA USE32 PUBLIC 'CODE'
_TEXT	ENDS
;	COMDAT ??Econst_iterator@?$_Tree@V?$_Tmap_traits@KPAVCCtrl@@U?$less@K@std@@V?$allocator@U?$pair@$$CBKPAVCCtrl@@@std@@@3@$0A@@std@@@std@@QAEAAV012@XZ
_TEXT	SEGMENT PARA USE32 PUBLIC 'CODE'
_TEXT	ENDS
;	COMDAT ?_Inc@const_iterator@?$_Tree@V?$_Tmap_traits@KPAVCCtrl@@U?$less@K@std@@V?$allocator@U?$pair@$$CBKPAVCCtrl@@@std@@@3@$0A@@std@@@std@@QAEXXZ
_TEXT	SEGMENT PARA USE32 PUBLIC 'CODE'
_TEXT	ENDS
;	COMDAT ?_Min@?$_Tree@V?$_Tmap_traits@KPAVCCtrl@@U?$less@K@std@@V?$allocator@U?$pair@$$CBKPAVCCtrl@@@std@@@3@$0A@@std@@@std@@KAPAU_Node@?$_Tree_nod@V?$_Tmap_traits@KPAVCCtrl@@U?$less@K@std@@V?$allocator@U?$pair@$$CBKPAVCCtrl@@@std@@@3@$0A@@std@@@2@PAU342@@Z
_TEXT	SEGMENT PARA USE32 PUBLIC 'CODE'
_TEXT	ENDS
;	COMDAT ?_Left@?$_Tree@V?$_Tmap_traits@KPAVCCtrl@@U?$less@K@std@@V?$allocator@U?$pair@$$CBKPAVCCtrl@@@std@@@3@$0A@@std@@@std@@KAAAPAU_Node@?$_Tree_nod@V?$_Tmap_traits@KPAVCCtrl@@U?$less@K@std@@V?$allocator@U?$pair@$$CBKPAVCCtrl@@@std@@@3@$0A@@std@@@2@PAU342@@Z
_TEXT	SEGMENT PARA USE32 PUBLIC 'CODE'
_TEXT	ENDS
;	COMDAT ?_Isnil@?$_Tree@V?$_Tmap_traits@KPAVCCtrl@@U?$less@K@std@@V?$allocator@U?$pair@$$CBKPAVCCtrl@@@std@@@3@$0A@@std@@@std@@KAAADPAU_Node@?$_Tree_nod@V?$_Tmap_traits@KPAVCCtrl@@U?$less@K@std@@V?$allocator@U?$pair@$$CBKPAVCCtrl@@@std@@@3@$0A@@std@@@2@@Z
_TEXT	SEGMENT PARA USE32 PUBLIC 'CODE'
_TEXT	ENDS
;	COMDAT ?_Parent@?$_Tree@V?$_Tmap_traits@KPAVCCtrl@@U?$less@K@std@@V?$allocator@U?$pair@$$CBKPAVCCtrl@@@std@@@3@$0A@@std@@@std@@KAAAPAU_Node@?$_Tree_nod@V?$_Tmap_traits@KPAVCCtrl@@U?$less@K@std@@V?$allocator@U?$pair@$$CBKPAVCCtrl@@@std@@@3@$0A@@std@@@2@PAU342@@Z
_TEXT	SEGMENT PARA USE32 PUBLIC 'CODE'
_TEXT	ENDS
;	COMDAT ?_Right@?$_Tree@V?$_Tmap_traits@KPAVCCtrl@@U?$less@K@std@@V?$allocator@U?$pair@$$CBKPAVCCtrl@@@std@@@3@$0A@@std@@@std@@KAAAPAU_Node@?$_Tree_nod@V?$_Tmap_traits@KPAVCCtrl@@U?$less@K@std@@V?$allocator@U?$pair@$$CBKPAVCCtrl@@@std@@@3@$0A@@std@@@2@PAU342@@Z
_TEXT	SEGMENT PARA USE32 PUBLIC 'CODE'
_TEXT	ENDS
;	COMDAT ??9const_iterator@?$_Tree@V?$_Tmap_traits@KPAVCUser@@U?$less@K@std@@V?$allocator@U?$pair@$$CBKPAVCUser@@@std@@@3@$0A@@std@@@std@@QBE_NABV012@@Z
_TEXT	SEGMENT PARA USE32 PUBLIC 'CODE'
_TEXT	ENDS
;	COMDAT ??8const_iterator@?$_Tree@V?$_Tmap_traits@KPAVCUser@@U?$less@K@std@@V?$allocator@U?$pair@$$CBKPAVCUser@@@std@@@3@$0A@@std@@@std@@QBE_NABV012@@Z
_TEXT	SEGMENT PARA USE32 PUBLIC 'CODE'
_TEXT	ENDS
;	COMDAT ??Eiterator@?$_Tree@V?$_Tmap_traits@KPAVCUser@@U?$less@K@std@@V?$allocator@U?$pair@$$CBKPAVCUser@@@std@@@3@$0A@@std@@@std@@QAEAAV012@XZ
_TEXT	SEGMENT PARA USE32 PUBLIC 'CODE'
_TEXT	ENDS
;	COMDAT ??Econst_iterator@?$_Tree@V?$_Tmap_traits@KPAVCUser@@U?$less@K@std@@V?$allocator@U?$pair@$$CBKPAVCUser@@@std@@@3@$0A@@std@@@std@@QAEAAV012@XZ
_TEXT	SEGMENT PARA USE32 PUBLIC 'CODE'
_TEXT	ENDS
;	COMDAT ?_Inc@const_iterator@?$_Tree@V?$_Tmap_traits@KPAVCUser@@U?$less@K@std@@V?$allocator@U?$pair@$$CBKPAVCUser@@@std@@@3@$0A@@std@@@std@@QAEXXZ
_TEXT	SEGMENT PARA USE32 PUBLIC 'CODE'
_TEXT	ENDS
;	COMDAT ?_Min@?$_Tree@V?$_Tmap_traits@KPAVCUser@@U?$less@K@std@@V?$allocator@U?$pair@$$CBKPAVCUser@@@std@@@3@$0A@@std@@@std@@KAPAU_Node@?$_Tree_nod@V?$_Tmap_traits@KPAVCUser@@U?$less@K@std@@V?$allocator@U?$pair@$$CBKPAVCUser@@@std@@@3@$0A@@std@@@2@PAU342@@Z
_TEXT	SEGMENT PARA USE32 PUBLIC 'CODE'
_TEXT	ENDS
;	COMDAT ?_Left@?$_Tree@V?$_Tmap_traits@KPAVCUser@@U?$less@K@std@@V?$allocator@U?$pair@$$CBKPAVCUser@@@std@@@3@$0A@@std@@@std@@KAAAPAU_Node@?$_Tree_nod@V?$_Tmap_traits@KPAVCUser@@U?$less@K@std@@V?$allocator@U?$pair@$$CBKPAVCUser@@@std@@@3@$0A@@std@@@2@PAU342@@Z
_TEXT	SEGMENT PARA USE32 PUBLIC 'CODE'
_TEXT	ENDS
;	COMDAT ?_Isnil@?$_Tree@V?$_Tmap_traits@KPAVCUser@@U?$less@K@std@@V?$allocator@U?$pair@$$CBKPAVCUser@@@std@@@3@$0A@@std@@@std@@KAAADPAU_Node@?$_Tree_nod@V?$_Tmap_traits@KPAVCUser@@U?$less@K@std@@V?$allocator@U?$pair@$$CBKPAVCUser@@@std@@@3@$0A@@std@@@2@@Z
_TEXT	SEGMENT PARA USE32 PUBLIC 'CODE'
_TEXT	ENDS
;	COMDAT ?_Parent@?$_Tree@V?$_Tmap_traits@KPAVCUser@@U?$less@K@std@@V?$allocator@U?$pair@$$CBKPAVCUser@@@std@@@3@$0A@@std@@@std@@KAAAPAU_Node@?$_Tree_nod@V?$_Tmap_traits@KPAVCUser@@U?$less@K@std@@V?$allocator@U?$pair@$$CBKPAVCUser@@@std@@@3@$0A@@std@@@2@PAU342@@Z
_TEXT	SEGMENT PARA USE32 PUBLIC 'CODE'
_TEXT	ENDS
;	COMDAT ?_Right@?$_Tree@V?$_Tmap_traits@KPAVCUser@@U?$less@K@std@@V?$allocator@U?$pair@$$CBKPAVCUser@@@std@@@3@$0A@@std@@@std@@KAAAPAU_Node@?$_Tree_nod@V?$_Tmap_traits@KPAVCUser@@U?$less@K@std@@V?$allocator@U?$pair@$$CBKPAVCUser@@@std@@@3@$0A@@std@@@2@PAU342@@Z
_TEXT	SEGMENT PARA USE32 PUBLIC 'CODE'
_TEXT	ENDS
;	COMDAT ?_Psave@?$_Facetptr@V?$ctype@G@std@@@std@@2PBVfacet@locale@2@B
_DATA	SEGMENT DWORD USE32 PUBLIC 'DATA'
_DATA	ENDS
;	COMDAT ?_Psave@?$_Facetptr@V?$ctype@D@std@@@std@@2PBVfacet@locale@2@B
_DATA	SEGMENT DWORD USE32 PUBLIC 'DATA'
_DATA	ENDS
;	COMDAT ?compare@?$char_traits@D@std@@SAHPBD0I@Z
_TEXT	SEGMENT PARA USE32 PUBLIC 'CODE'
_TEXT	ENDS
;	COMDAT ?ReleaseBufferSetLength@?$CSimpleStringT@D$0A@@ATL@@QAEXH@Z
_TEXT	SEGMENT PARA USE32 PUBLIC 'CODE'
_TEXT	ENDS
;	COMDAT ?SetLength@?$CSimpleStringT@D$0A@@ATL@@AAEXH@Z
_TEXT	SEGMENT PARA USE32 PUBLIC 'CODE'
_TEXT	ENDS
;	COMDAT ?GetData@?$CSimpleStringT@D$0A@@ATL@@ABEPAUCStringData@2@XZ
_TEXT	SEGMENT PARA USE32 PUBLIC 'CODE'
_TEXT	ENDS
;	COMDAT ?Format@?$ChTraitsCRT@D@ATL@@SAHPADPBD0@Z
_TEXT	SEGMENT PARA USE32 PUBLIC 'CODE'
_TEXT	ENDS
;	COMDAT ?GetBuffer@?$CSimpleStringT@D$0A@@ATL@@QAEPADH@Z
_TEXT	SEGMENT PARA USE32 PUBLIC 'CODE'
_TEXT	ENDS
;	COMDAT ?PrepareWrite@?$CSimpleStringT@D$0A@@ATL@@AAEPADH@Z
_TEXT	SEGMENT PARA USE32 PUBLIC 'CODE'
_TEXT	ENDS
;	COMDAT ?PrepareWrite2@?$CSimpleStringT@D$0A@@ATL@@AAEXH@Z
_TEXT	SEGMENT PARA USE32 PUBLIC 'CODE'
_TEXT	ENDS
;	COMDAT ?IsShared@CStringData@ATL@@QBE_NXZ
_TEXT	SEGMENT PARA USE32 PUBLIC 'CODE'
_TEXT	ENDS
;	COMDAT ?Fork@?$CSimpleStringT@D$0A@@ATL@@AAEXH@Z
_TEXT	SEGMENT PARA USE32 PUBLIC 'CODE'
_TEXT	ENDS
;	COMDAT ?ThrowMemoryException@?$CSimpleStringT@D$0A@@ATL@@KAXXZ
_TEXT	SEGMENT PARA USE32 PUBLIC 'CODE'
_TEXT	ENDS
;	COMDAT ?CopyChars@?$CSimpleStringT@D$0A@@ATL@@SAXPADPBDH@Z
_TEXT	SEGMENT PARA USE32 PUBLIC 'CODE'
_TEXT	ENDS
;	COMDAT ?data@CStringData@ATL@@QAEPAXXZ
_TEXT	SEGMENT PARA USE32 PUBLIC 'CODE'
_TEXT	ENDS
;	COMDAT ?Release@CStringData@ATL@@QAEXXZ
_TEXT	SEGMENT PARA USE32 PUBLIC 'CODE'
_TEXT	ENDS
;	COMDAT ?Attach@?$CSimpleStringT@D$0A@@ATL@@AAEXPAUCStringData@2@@Z
_TEXT	SEGMENT PARA USE32 PUBLIC 'CODE'
_TEXT	ENDS
;	COMDAT ?Reallocate@?$CSimpleStringT@D$0A@@ATL@@AAEXH@Z
_TEXT	SEGMENT PARA USE32 PUBLIC 'CODE'
_TEXT	ENDS
;	COMDAT ?GetFormattedLength@?$ChTraitsCRT@D@ATL@@SAHPBDPAD@Z
_TEXT	SEGMENT PARA USE32 PUBLIC 'CODE'
_TEXT	ENDS
;	COMDAT ?AtlThrow@ATL@@YGXJ@Z
_TEXT	SEGMENT PARA USE32 PUBLIC 'CODE'
_TEXT	ENDS
;	COMDAT ?_Myptr@?$basic_string@DU?$char_traits@D@std@@V?$allocator@D@2@@std@@QBEPBDXZ
_TEXT	SEGMENT PARA USE32 PUBLIC 'CODE'
_TEXT	ENDS
;	COMDAT ?size@?$basic_string@DU?$char_traits@D@std@@V?$allocator@D@2@@std@@QBEIXZ
_TEXT	SEGMENT PARA USE32 PUBLIC 'CODE'
_TEXT	ENDS
;	COMDAT ??1?$CStringT@DV?$StrTraitMFC@DV?$ChTraitsCRT@D@ATL@@@@@ATL@@QAE@XZ
_TEXT	SEGMENT PARA USE32 PUBLIC 'CODE'
_TEXT	ENDS
;	COMDAT ??1?$CSimpleStringT@D$0A@@ATL@@QAE@XZ
_TEXT	SEGMENT PARA USE32 PUBLIC 'CODE'
_TEXT	ENDS
;	COMDAT ??0?$CStringT@DV?$StrTraitMFC@DV?$ChTraitsCRT@D@ATL@@@@@ATL@@QAE@XZ
_TEXT	SEGMENT PARA USE32 PUBLIC 'CODE'
_TEXT	ENDS
;	COMDAT ??0?$CSimpleStringT@D$0A@@ATL@@QAE@PAUIAtlStringMgr@1@@Z
_TEXT	SEGMENT PARA USE32 PUBLIC 'CODE'
_TEXT	ENDS
;	COMDAT ?GetDefaultManager@?$StrTraitMFC@DV?$ChTraitsCRT@D@ATL@@@@SAPAUIAtlStringMgr@ATL@@XZ
_TEXT	SEGMENT PARA USE32 PUBLIC 'CODE'
_TEXT	ENDS
;	COMDAT ??_C@_01MCMALHOG@a?$AA@
CONST	SEGMENT DWORD USE32 PUBLIC 'CONST'
CONST	ENDS
;	COMDAT ??B?$CSimpleStringT@D$0A@@ATL@@QBEPBDXZ
_TEXT	SEGMENT PARA USE32 PUBLIC 'CODE'
_TEXT	ENDS
;	COMDAT ?GetMoverProp@CProject@@QAEPAUMoverProp@@H@Z
_TEXT	SEGMENT PARA USE32 PUBLIC 'CODE'
_TEXT	ENDS
;	COMDAT ?LOG_RANGE@@YAXPBDHHH@Z
_TEXT	SEGMENT PARA USE32 PUBLIC 'CODE'
_TEXT	ENDS
;	COMDAT ??_C@_0BM@HMFGHCP@?$CFs?5min?3?$CFd?0?5max?3?$CFd?0?5index?3?$CFd?$AA@
CONST	SEGMENT DWORD USE32 PUBLIC 'CONST'
CONST	ENDS
;	COMDAT ??_C@_0BJ@GKPOBPPI@GetMoverProp?5range_error?$AA@
CONST	SEGMENT DWORD USE32 PUBLIC 'CONST'
CONST	ENDS
;	COMDAT ??5CAr@@QAEAAV0@AAK@Z
_TEXT	SEGMENT PARA USE32 PUBLIC 'CODE'
_TEXT	ENDS
;	COMDAT ??6CAr@@QAEAAV0@K@Z
_TEXT	SEGMENT PARA USE32 PUBLIC 'CODE'
_TEXT	ENDS
;	COMDAT ?IsStoring@CAr@@QBEHXZ
_TEXT	SEGMENT PARA USE32 PUBLIC 'CODE'
_TEXT	ENDS
;	COMDAT ?GetTickCount@CTime@ATL@@SG?AV12@XZ
_TEXT	SEGMENT PARA USE32 PUBLIC 'CODE'
_TEXT	ENDS
;	COMDAT ??0CTime@ATL@@QAE@_J@Z
_TEXT	SEGMENT PARA USE32 PUBLIC 'CODE'
_TEXT	ENDS
;	COMDAT ??0CTime@ATL@@QAE@XZ
_TEXT	SEGMENT PARA USE32 PUBLIC 'CODE'
_TEXT	ENDS
sxdata	SEGMENT DWORD USE32 'SXDATA'
sxdata	ENDS
FLAT	GROUP _DATA, CONST, _BSS
	ASSUME	CS: FLAT, DS: FLAT, SS: FLAT
endif

INCLUDELIB LIBCMT
INCLUDELIB OLDNAMES

PUBLIC	?AtlThrow@ATL@@YGXJ@Z				; ATL::AtlThrow
EXTRN	?AfxThrowMemoryException@@YGXXZ:NEAR		; AfxThrowMemoryException
EXTRN	?AfxThrowOleException@@YGXJ@Z:NEAR		; AfxThrowOleException
; Function compile flags: /Ogty
; File c:\program files\microsoft visual studio .net 2003\vc7\atlmfc\include\atlexcept.h
;	COMDAT ?AtlThrow@ATL@@YGXJ@Z
_TEXT	SEGMENT
_hr$ = 8						; size = 4
?AtlThrow@ATL@@YGXJ@Z PROC NEAR				; ATL::AtlThrow, COMDAT

; 62   : 	ATLTRACE(atlTraceException, 0, _T("AtlThrow: hr = 0x%x\n"), hr );
; 63   : #ifdef _AFX
; 64   : 	if( hr == E_OUTOFMEMORY )

  00000	8b 44 24 04	 mov	 eax, DWORD PTR _hr$[esp-4]
  00004	3d 0e 00 07 80	 cmp	 eax, -2147024882	; 8007000eH
  00009	75 05		 jne	 SHORT $L39168

; 65   : 	{
; 66   : 		AfxThrowMemoryException();

  0000b	e8 00 00 00 00	 call	 ?AfxThrowMemoryException@@YGXXZ ; AfxThrowMemoryException
$L229883:
$L39168:

; 67   : 	}
; 68   : 	else
; 69   : 	{
; 70   : 		AfxThrowOleException( hr );

  00010	50		 push	 eax
  00011	e8 00 00 00 00	 call	 ?AfxThrowOleException@@YGXJ@Z ; AfxThrowOleException
$L229884:
$L229882:
  00016	cc		 int	 3
?AtlThrow@ATL@@YGXJ@Z ENDP				; ATL::AtlThrow
_TEXT	ENDS
PUBLIC	?data@CStringData@ATL@@QAEPAXXZ			; ATL::CStringData::data
; Function compile flags: /Ogty
; File c:\program files\microsoft visual studio .net 2003\vc7\atlmfc\include\atlsimpstr.h
;	COMDAT ?data@CStringData@ATL@@QAEPAXXZ
_TEXT	SEGMENT
?data@CStringData@ATL@@QAEPAXXZ PROC NEAR		; ATL::CStringData::data, COMDAT
; _this$ = ecx

; 66   : 		return (this+1);

  00000	8d 41 10	 lea	 eax, DWORD PTR [ecx+16]

; 67   : 	}

  00003	c3		 ret	 0
?data@CStringData@ATL@@QAEPAXXZ ENDP			; ATL::CStringData::data
_TEXT	ENDS
PUBLIC	?IsShared@CStringData@ATL@@QBE_NXZ		; ATL::CStringData::IsShared
; Function compile flags: /Ogty
;	COMDAT ?IsShared@CStringData@ATL@@QBE_NXZ
_TEXT	SEGMENT
?IsShared@CStringData@ATL@@QBE_NXZ PROC NEAR		; ATL::CStringData::IsShared, COMDAT
; _this$ = ecx

; 80   : 		return( nRefs > 1 ); 

  00000	8b 51 0c	 mov	 edx, DWORD PTR [ecx+12]
  00003	33 c0		 xor	 eax, eax
  00005	83 fa 01	 cmp	 edx, 1
  00008	0f 9f c0	 setg	 al

; 81   : 	}

  0000b	c3		 ret	 0
?IsShared@CStringData@ATL@@QBE_NXZ ENDP			; ATL::CStringData::IsShared
_TEXT	ENDS
PUBLIC	?Release@CStringData@ATL@@QAEXXZ		; ATL::CStringData::Release
; Function compile flags: /Ogty
;	COMDAT ?Release@CStringData@ATL@@QAEXXZ
_TEXT	SEGMENT
?Release@CStringData@ATL@@QAEXXZ PROC NEAR		; ATL::CStringData::Release, COMDAT
; _this$ = ecx

; 93   : 		ATLASSERT( nRefs != 0 );
; 94   : 
; 95   : 		if( _InterlockedDecrement( &nRefs ) <= 0 )

  00000	8d 41 0c	 lea	 eax, DWORD PTR [ecx+12]
  00003	83 ca ff	 or	 edx, -1
  00006	f0 0f c1 10	 lock	  xadd	 DWORD PTR [eax], edx
  0000a	4a		 dec	 edx
  0000b	85 d2		 test	 edx, edx
  0000d	7f 0a		 jg	 SHORT $L39885

; 96   : 		{
; 97   : 			pStringMgr->Free( this );

  0000f	8b 01		 mov	 eax, DWORD PTR [ecx]
  00011	8b 10		 mov	 edx, DWORD PTR [eax]
  00013	51		 push	 ecx
  00014	8b c8		 mov	 ecx, eax
  00016	ff 52 04	 call	 DWORD PTR [edx+4]
$L39885:

; 98   : 		}
; 99   : 	}

  00019	c3		 ret	 0
?Release@CStringData@ATL@@QAEXXZ ENDP			; ATL::CStringData::Release
_TEXT	ENDS
PUBLIC	?LOG_RANGE@@YAXPBDHHH@Z				; LOG_RANGE
PUBLIC	??_C@_0BM@HMFGHCP@?$CFs?5min?3?$CFd?0?5max?3?$CFd?0?5index?3?$CFd?$AA@ ; `string'
EXTRN	?Error@@YAPBDPBDZZ:NEAR				; Error
;	COMDAT ??_C@_0BM@HMFGHCP@?$CFs?5min?3?$CFd?0?5max?3?$CFd?0?5index?3?$CFd?$AA@
; File c:\documents and settings\test\mes documents\source\virtuos_v17\build\program\_common\project.h
CONST	SEGMENT
??_C@_0BM@HMFGHCP@?$CFs?5min?3?$CFd?0?5max?3?$CFd?0?5index?3?$CFd?$AA@ DB '%'
	DB	's min:%d, max:%d, index:%d', 00H		; `string'
; Function compile flags: /Ogty
CONST	ENDS
;	COMDAT ?LOG_RANGE@@YAXPBDHHH@Z
_TEXT	SEGMENT
_szMsg$ = 8						; size = 4
_nMin$ = 12						; size = 4
_nMax$ = 16						; size = 4
_nIndex$ = 20						; size = 4
?LOG_RANGE@@YAXPBDHHH@Z PROC NEAR			; LOG_RANGE, COMDAT

; 559  : 	LPCTSTR szErr = Error( _T( "%s min:%d, max:%d, index:%d" ), szMsg, nMin, nMax, nIndex ); 

  00000	8b 44 24 10	 mov	 eax, DWORD PTR _nIndex$[esp-4]
  00004	8b 4c 24 0c	 mov	 ecx, DWORD PTR _nMax$[esp-4]
  00008	8b 54 24 08	 mov	 edx, DWORD PTR _nMin$[esp-4]
  0000c	50		 push	 eax
  0000d	8b 44 24 08	 mov	 eax, DWORD PTR _szMsg$[esp]
  00011	51		 push	 ecx
  00012	52		 push	 edx
  00013	50		 push	 eax
  00014	68 00 00 00 00	 push	 OFFSET FLAT:??_C@_0BM@HMFGHCP@?$CFs?5min?3?$CFd?0?5max?3?$CFd?0?5index?3?$CFd?$AA@
  00019	e8 00 00 00 00	 call	 ?Error@@YAPBDPBDZZ	; Error
  0001e	83 c4 14	 add	 esp, 20			; 00000014H

; 560  : 	ADDERRORMSG( szErr ); 
; 561  : }

  00021	c3		 ret	 0
?LOG_RANGE@@YAXPBDHHH@Z ENDP				; LOG_RANGE
_TEXT	ENDS
PUBLIC	??_C@_0BJ@GKPOBPPI@GetMoverProp?5range_error?$AA@ ; `string'
PUBLIC	?GetMoverProp@CProject@@QAEPAUMoverProp@@H@Z	; CProject::GetMoverProp
;	COMDAT ??_C@_0BJ@GKPOBPPI@GetMoverProp?5range_error?$AA@
CONST	SEGMENT
??_C@_0BJ@GKPOBPPI@GetMoverProp?5range_error?$AA@ DB 'GetMoverProp range_'
	DB	'error', 00H					; `string'
; Function compile flags: /Ogty
CONST	ENDS
;	COMDAT ?GetMoverProp@CProject@@QAEPAUMoverProp@@H@Z
_TEXT	SEGMENT
_nIndex$ = 8						; size = 4
?GetMoverProp@CProject@@QAEPAUMoverProp@@H@Z PROC NEAR	; CProject::GetMoverProp, COMDAT
; _this$ = ecx

; 1381 : 	VERIFY_RANGE( nIndex, 0, m_nMoverPropSize, "GetMoverProp range_error", NULL );

  00000	8b 44 24 04	 mov	 eax, DWORD PTR _nIndex$[esp-4]
  00004	85 c0		 test	 eax, eax
  00006	7c 19		 jl	 SHORT $L197938
  00008	3b 81 d0 01 00
	00		 cmp	 eax, DWORD PTR [ecx+464]
  0000e	7d 11		 jge	 SHORT $L197938

; 1382 : 	return m_pPropMover + nIndex;

  00010	8b 91 d4 01 00
	00		 mov	 edx, DWORD PTR [ecx+468]
  00016	69 c0 d8 06 00
	00		 imul	 eax, 1752		; 000006d8H
  0001c	03 c2		 add	 eax, edx

; 1383 : }

  0001e	c2 04 00	 ret	 4
$L197938:

; 1381 : 	VERIFY_RANGE( nIndex, 0, m_nMoverPropSize, "GetMoverProp range_error", NULL );

  00021	50		 push	 eax
  00022	8b 81 d0 01 00
	00		 mov	 eax, DWORD PTR [ecx+464]
  00028	50		 push	 eax
  00029	6a 00		 push	 0
  0002b	68 00 00 00 00	 push	 OFFSET FLAT:??_C@_0BJ@GKPOBPPI@GetMoverProp?5range_error?$AA@
  00030	68 00 00 00 00	 push	 OFFSET FLAT:??_C@_0BM@HMFGHCP@?$CFs?5min?3?$CFd?0?5max?3?$CFd?0?5index?3?$CFd?$AA@
  00035	e8 00 00 00 00	 call	 ?Error@@YAPBDPBDZZ	; Error
  0003a	83 c4 14	 add	 esp, 20			; 00000014H
  0003d	33 c0		 xor	 eax, eax

; 1383 : }

  0003f	c2 04 00	 ret	 4
?GetMoverProp@CProject@@QAEPAUMoverProp@@H@Z ENDP	; CProject::GetMoverProp
_TEXT	ENDS
PUBLIC	??B?$CSimpleStringT@D$0A@@ATL@@QBEPBDXZ		; ATL::CSimpleStringT<char,0>::operator char const *
; Function compile flags: /Ogty
; File c:\program files\microsoft visual studio .net 2003\vc7\atlmfc\include\atlsimpstr.h
;	COMDAT ??B?$CSimpleStringT@D$0A@@ATL@@QBEPBDXZ
_TEXT	SEGMENT
??B?$CSimpleStringT@D$0A@@ATL@@QBEPBDXZ PROC NEAR	; ATL::CSimpleStringT<char,0>::operator char const *, COMDAT
; _this$ = ecx

; 379  : 		return( m_pszData );

  00000	8b 01		 mov	 eax, DWORD PTR [ecx]

; 380  : 	}

  00002	c3		 ret	 0
??B?$CSimpleStringT@D$0A@@ATL@@QBEPBDXZ ENDP		; ATL::CSimpleStringT<char,0>::operator char const *
_TEXT	ENDS
PUBLIC	?GetData@?$CSimpleStringT@D$0A@@ATL@@ABEPAUCStringData@2@XZ ; ATL::CSimpleStringT<char,0>::GetData
; Function compile flags: /Ogty
;	COMDAT ?GetData@?$CSimpleStringT@D$0A@@ATL@@ABEPAUCStringData@2@XZ
_TEXT	SEGMENT
?GetData@?$CSimpleStringT@D$0A@@ATL@@ABEPAUCStringData@2@XZ PROC NEAR ; ATL::CSimpleStringT<char,0>::GetData, COMDAT
; _this$ = ecx

; 731  : 		return( reinterpret_cast< CStringData* >( m_pszData )-1 );

  00000	8b 01		 mov	 eax, DWORD PTR [ecx]
  00002	83 e8 10	 sub	 eax, 16			; 00000010H

; 732  : 	}

  00005	c3		 ret	 0
?GetData@?$CSimpleStringT@D$0A@@ATL@@ABEPAUCStringData@2@XZ ENDP ; ATL::CSimpleStringT<char,0>::GetData
_TEXT	ENDS
PUBLIC	?SetLength@?$CSimpleStringT@D$0A@@ATL@@AAEXH@Z	; ATL::CSimpleStringT<char,0>::SetLength
; Function compile flags: /Ogty
;	COMDAT ?SetLength@?$CSimpleStringT@D$0A@@ATL@@AAEXH@Z
_TEXT	SEGMENT
_nLength$ = 8						; size = 4
?SetLength@?$CSimpleStringT@D$0A@@ATL@@AAEXH@Z PROC NEAR ; ATL::CSimpleStringT<char,0>::SetLength, COMDAT
; _this$ = ecx

; 790  : 		ATLASSERT( nLength >= 0 );
; 791  : 		ATLASSERT( nLength <= GetData()->nAllocLength );
; 792  : 
; 793  : 		if( nLength < 0 || nLength > GetData()->nAllocLength)

  00000	8b 44 24 04	 mov	 eax, DWORD PTR _nLength$[esp-4]
  00004	85 c0		 test	 eax, eax
  00006	7c 13		 jl	 SHORT $L219986
  00008	8b 11		 mov	 edx, DWORD PTR [ecx]
  0000a	3b 42 f8	 cmp	 eax, DWORD PTR [edx-8]
  0000d	7f 0c		 jg	 SHORT $L219986

; 794  : 			AtlThrow(E_INVALIDARG);
; 795  : 			
; 796  : 		GetData()->nDataLength = nLength;

  0000f	89 42 f4	 mov	 DWORD PTR [edx-12], eax

; 797  : 		m_pszData[nLength] = 0;

  00012	8b 09		 mov	 ecx, DWORD PTR [ecx]
  00014	c6 04 08 00	 mov	 BYTE PTR [eax+ecx], 0

; 798  : 	}

  00018	c2 04 00	 ret	 4
$L219986:
  0001b	68 57 00 07 80	 push	 -2147024809		; 80070057H
  00020	e8 00 00 00 00	 call	 ?AtlThrow@ATL@@YGXJ@Z	; ATL::AtlThrow
$L229921:
$L229920:
  00025	cc		 int	 3
?SetLength@?$CSimpleStringT@D$0A@@ATL@@AAEXH@Z ENDP	; ATL::CSimpleStringT<char,0>::SetLength
_TEXT	ENDS
PUBLIC	?GetDefaultManager@?$StrTraitMFC@DV?$ChTraitsCRT@D@ATL@@@@SAPAUIAtlStringMgr@ATL@@XZ ; StrTraitMFC<char,ATL::ChTraitsCRT<char> >::GetDefaultManager
EXTRN	?AfxGetStringManager@@YGPAUIAtlStringMgr@ATL@@XZ:NEAR ; AfxGetStringManager
; Function compile flags: /Ogty
; File c:\program files\microsoft visual studio .net 2003\vc7\atlmfc\include\afxstr.h
;	COMDAT ?GetDefaultManager@?$StrTraitMFC@DV?$ChTraitsCRT@D@ATL@@@@SAPAUIAtlStringMgr@ATL@@XZ
_TEXT	SEGMENT
?GetDefaultManager@?$StrTraitMFC@DV?$ChTraitsCRT@D@ATL@@@@SAPAUIAtlStringMgr@ATL@@XZ PROC NEAR ; StrTraitMFC<char,ATL::ChTraitsCRT<char> >::GetDefaultManager, COMDAT

; 50   : 		return( AfxGetStringManager() );

  00000	e9 00 00 00 00	 jmp	 ?AfxGetStringManager@@YGPAUIAtlStringMgr@ATL@@XZ ; AfxGetStringManager
?GetDefaultManager@?$StrTraitMFC@DV?$ChTraitsCRT@D@ATL@@@@SAPAUIAtlStringMgr@ATL@@XZ ENDP ; StrTraitMFC<char,ATL::ChTraitsCRT<char> >::GetDefaultManager
_TEXT	ENDS
PUBLIC	?Attach@?$CSimpleStringT@D$0A@@ATL@@AAEXPAUCStringData@2@@Z ; ATL::CSimpleStringT<char,0>::Attach
; Function compile flags: /Ogty
; File c:\program files\microsoft visual studio .net 2003\vc7\atlmfc\include\atlsimpstr.h
;	COMDAT ?Attach@?$CSimpleStringT@D$0A@@ATL@@AAEXPAUCStringData@2@@Z
_TEXT	SEGMENT
_pData$ = 8						; size = 4
?Attach@?$CSimpleStringT@D$0A@@ATL@@AAEXPAUCStringData@2@@Z PROC NEAR ; ATL::CSimpleStringT<char,0>::Attach, COMDAT
; _this$ = ecx

; 712  : 		m_pszData = static_cast< PXSTR >( pData->data() );

  00000	8b 44 24 04	 mov	 eax, DWORD PTR _pData$[esp-4]
  00004	83 c0 10	 add	 eax, 16			; 00000010H
  00007	89 01		 mov	 DWORD PTR [ecx], eax

; 713  : 	}

  00009	c2 04 00	 ret	 4
?Attach@?$CSimpleStringT@D$0A@@ATL@@AAEXPAUCStringData@2@@Z ENDP ; ATL::CSimpleStringT<char,0>::Attach
_TEXT	ENDS
PUBLIC	?GetFormattedLength@?$ChTraitsCRT@D@ATL@@SAHPBDPAD@Z ; ATL::ChTraitsCRT<char>::GetFormattedLength
EXTRN	__vscprintf:NEAR
; Function compile flags: /Ogty
; File c:\program files\microsoft visual studio .net 2003\vc7\atlmfc\include\cstringt.h
;	COMDAT ?GetFormattedLength@?$ChTraitsCRT@D@ATL@@SAHPBDPAD@Z
_TEXT	SEGMENT
_pszFormat$ = 8						; size = 4
_args$ = 12						; size = 4
?GetFormattedLength@?$ChTraitsCRT@D@ATL@@SAHPBDPAD@Z PROC NEAR ; ATL::ChTraitsCRT<char>::GetFormattedLength, COMDAT

; 408  : 		return _vscprintf( pszFormat, args );

  00000	e9 00 00 00 00	 jmp	 __vscprintf
?GetFormattedLength@?$ChTraitsCRT@D@ATL@@SAHPBDPAD@Z ENDP ; ATL::ChTraitsCRT<char>::GetFormattedLength
_TEXT	ENDS
PUBLIC	?Format@?$ChTraitsCRT@D@ATL@@SAHPADPBD0@Z	; ATL::ChTraitsCRT<char>::Format
EXTRN	_vsprintf:NEAR
; Function compile flags: /Ogty
;	COMDAT ?Format@?$ChTraitsCRT@D@ATL@@SAHPADPBD0@Z
_TEXT	SEGMENT
_pszBuffer$ = 8						; size = 4
_pszFormat$ = 12					; size = 4
_args$ = 16						; size = 4
?Format@?$ChTraitsCRT@D@ATL@@SAHPADPBD0@Z PROC NEAR	; ATL::ChTraitsCRT<char>::Format, COMDAT

; 413  : 		return vsprintf( pszBuffer, pszFormat, args );

  00000	e9 00 00 00 00	 jmp	 _vsprintf
?Format@?$ChTraitsCRT@D@ATL@@SAHPADPBD0@Z ENDP		; ATL::ChTraitsCRT<char>::Format
_TEXT	ENDS
PUBLIC	?CopyChars@?$CSimpleStringT@D$0A@@ATL@@SAXPADPBDH@Z ; ATL::CSimpleStringT<char,0>::CopyChars
; Function compile flags: /Ogty
; File c:\program files\microsoft visual studio .net 2003\vc7\atlmfc\include\atlsimpstr.h
;	COMDAT ?CopyChars@?$CSimpleStringT@D$0A@@ATL@@SAXPADPBDH@Z
_TEXT	SEGMENT
_pchDest$ = 8						; size = 4
_pchSrc$ = 12						; size = 4
_nChars$ = 16						; size = 4
?CopyChars@?$CSimpleStringT@D$0A@@ATL@@SAXPADPBDH@Z PROC NEAR ; ATL::CSimpleStringT<char,0>::CopyChars, COMDAT

; 653  : 		memcpy( pchDest, pchSrc, nChars*sizeof( XCHAR ) );

  00000	8b 4c 24 0c	 mov	 ecx, DWORD PTR _nChars$[esp-4]
  00004	56		 push	 esi
  00005	8b 74 24 0c	 mov	 esi, DWORD PTR _pchSrc$[esp]
  00009	8b c1		 mov	 eax, ecx
  0000b	57		 push	 edi
  0000c	8b 7c 24 0c	 mov	 edi, DWORD PTR _pchDest$[esp+4]
  00010	c1 e9 02	 shr	 ecx, 2
  00013	f3 a5		 rep movsd
  00015	8b c8		 mov	 ecx, eax
  00017	83 e1 03	 and	 ecx, 3
  0001a	f3 a4		 rep movsb
  0001c	5f		 pop	 edi
  0001d	5e		 pop	 esi

; 654  : 	}

  0001e	c3		 ret	 0
?CopyChars@?$CSimpleStringT@D$0A@@ATL@@SAXPADPBDH@Z ENDP ; ATL::CSimpleStringT<char,0>::CopyChars
_TEXT	ENDS
PUBLIC	?ThrowMemoryException@?$CSimpleStringT@D$0A@@ATL@@KAXXZ ; ATL::CSimpleStringT<char,0>::ThrowMemoryException
; Function compile flags: /Ogty
;	COMDAT ?ThrowMemoryException@?$CSimpleStringT@D$0A@@ATL@@KAXXZ
_TEXT	SEGMENT
?ThrowMemoryException@?$CSimpleStringT@D$0A@@ATL@@KAXXZ PROC NEAR ; ATL::CSimpleStringT<char,0>::ThrowMemoryException, COMDAT

; 705  : 		AtlThrow( E_OUTOFMEMORY );

  00000	68 0e 00 07 80	 push	 -2147024882		; 8007000eH
  00005	e8 00 00 00 00	 call	 ?AtlThrow@ATL@@YGXJ@Z	; ATL::AtlThrow
$L229947:
$L229946:
  0000a	cc		 int	 3
?ThrowMemoryException@?$CSimpleStringT@D$0A@@ATL@@KAXXZ ENDP ; ATL::CSimpleStringT<char,0>::ThrowMemoryException
_TEXT	ENDS
PUBLIC	?Fork@?$CSimpleStringT@D$0A@@ATL@@AAEXH@Z	; ATL::CSimpleStringT<char,0>::Fork
; Function compile flags: /Ogty
;	COMDAT ?Fork@?$CSimpleStringT@D$0A@@ATL@@AAEXH@Z
_TEXT	SEGMENT
_this$ = -4						; size = 4
tv181 = 8						; size = 4
_nLength$ = 8						; size = 4
?Fork@?$CSimpleStringT@D$0A@@ATL@@AAEXH@Z PROC NEAR	; ATL::CSimpleStringT<char,0>::Fork, COMDAT
; _this$ = ecx

; 715  : 	{

  00000	51		 push	 ecx
  00001	53		 push	 ebx

; 716  : 		CStringData* pOldData = GetData();

  00002	8b 19		 mov	 ebx, DWORD PTR [ecx]
  00004	83 eb 10	 sub	 ebx, 16			; 00000010H
  00007	55		 push	 ebp

; 717  : 		int nOldLength = pOldData->nDataLength;

  00008	8b 6b 04	 mov	 ebp, DWORD PTR [ebx+4]
  0000b	89 4c 24 08	 mov	 DWORD PTR _this$[esp+12], ecx

; 718  : 		CStringData* pNewData = pOldData->pStringMgr->Clone()->Allocate( nLength, sizeof( XCHAR ) );

  0000f	8b 0b		 mov	 ecx, DWORD PTR [ebx]
  00011	8b 01		 mov	 eax, DWORD PTR [ecx]
  00013	56		 push	 esi
  00014	ff 50 10	 call	 DWORD PTR [eax+16]
  00017	8b 74 24 14	 mov	 esi, DWORD PTR _nLength$[esp+12]
  0001b	8b 10		 mov	 edx, DWORD PTR [eax]
  0001d	6a 01		 push	 1
  0001f	56		 push	 esi
  00020	8b c8		 mov	 ecx, eax
  00022	ff 12		 call	 DWORD PTR [edx]

; 719  : 		if( pNewData == NULL )

  00024	85 c0		 test	 eax, eax
  00026	75 05		 jne	 SHORT $L222762

; 720  : 		{
; 721  : 			ThrowMemoryException();

  00028	e8 00 00 00 00	 call	 ?ThrowMemoryException@?$CSimpleStringT@D$0A@@ATL@@KAXXZ ; ATL::CSimpleStringT<char,0>::ThrowMemoryException
$L229978:
$L222762:

; 722  : 		}
; 723  : 		int nCharsToCopy = ((nOldLength < nLength) ? nOldLength : nLength)+1;  // Copy '\0'

  0002d	3b ee		 cmp	 ebp, esi
  0002f	7d 02		 jge	 SHORT $L229952
  00031	8b f5		 mov	 esi, ebp
$L229952:
  00033	8d 4e 01	 lea	 ecx, DWORD PTR [esi+1]

; 724  : 		CopyChars( PXSTR( pNewData->data() ), PCXSTR( pOldData->data() ), nCharsToCopy );

  00036	8b d1		 mov	 edx, ecx
  00038	57		 push	 edi
  00039	c1 e9 02	 shr	 ecx, 2
  0003c	8d 78 10	 lea	 edi, DWORD PTR [eax+16]
  0003f	89 7c 24 18	 mov	 DWORD PTR tv181[esp+16], edi
  00043	8d 73 10	 lea	 esi, DWORD PTR [ebx+16]
  00046	f3 a5		 rep movsd
  00048	8b ca		 mov	 ecx, edx
  0004a	83 e1 03	 and	 ecx, 3
  0004d	f3 a4		 rep movsb

; 725  : 		pNewData->nDataLength = nOldLength;

  0004f	89 68 04	 mov	 DWORD PTR [eax+4], ebp

; 726  : 		pOldData->Release();

  00052	8d 43 0c	 lea	 eax, DWORD PTR [ebx+12]
  00055	83 c9 ff	 or	 ecx, -1
  00058	f0 0f c1 08	 lock	  xadd	 DWORD PTR [eax], ecx
  0005c	49		 dec	 ecx
  0005d	85 c9		 test	 ecx, ecx
  0005f	5f		 pop	 edi
  00060	7f 08		 jg	 SHORT $L229968
  00062	8b 0b		 mov	 ecx, DWORD PTR [ebx]
  00064	8b 11		 mov	 edx, DWORD PTR [ecx]
  00066	53		 push	 ebx
  00067	ff 52 04	 call	 DWORD PTR [edx+4]
$L229968:

; 727  : 		Attach( pNewData );

  0006a	8b 44 24 14	 mov	 eax, DWORD PTR tv181[esp+12]
  0006e	8b 4c 24 0c	 mov	 ecx, DWORD PTR _this$[esp+16]
  00072	5e		 pop	 esi
  00073	5d		 pop	 ebp
  00074	89 01		 mov	 DWORD PTR [ecx], eax
  00076	5b		 pop	 ebx

; 728  : 	}

  00077	59		 pop	 ecx
  00078	c2 04 00	 ret	 4
$L229977:
?Fork@?$CSimpleStringT@D$0A@@ATL@@AAEXH@Z ENDP		; ATL::CSimpleStringT<char,0>::Fork
_TEXT	ENDS
PUBLIC	?Reallocate@?$CSimpleStringT@D$0A@@ATL@@AAEXH@Z	; ATL::CSimpleStringT<char,0>::Reallocate
; Function compile flags: /Ogty
;	COMDAT ?Reallocate@?$CSimpleStringT@D$0A@@ATL@@AAEXH@Z
_TEXT	SEGMENT
_nLength$ = 8						; size = 4
?Reallocate@?$CSimpleStringT@D$0A@@ATL@@AAEXH@Z PROC NEAR ; ATL::CSimpleStringT<char,0>::Reallocate, COMDAT
; _this$ = ecx

; 776  : 	{

  00000	56		 push	 esi
  00001	57		 push	 edi

; 777  : 		CStringData* pOldData = GetData();
; 778  : 		ATLASSERT( pOldData->nAllocLength < nLength );
; 779  : 		IAtlStringMgr* pStringMgr = pOldData->pStringMgr;
; 780  : 		CStringData* pNewData = pStringMgr->Reallocate( pOldData, nLength, sizeof( XCHAR ) );

  00002	8b 7c 24 0c	 mov	 edi, DWORD PTR _nLength$[esp+4]
  00006	8b f1		 mov	 esi, ecx
  00008	8b 06		 mov	 eax, DWORD PTR [esi]
  0000a	8b 48 f0	 mov	 ecx, DWORD PTR [eax-16]
  0000d	8b 11		 mov	 edx, DWORD PTR [ecx]
  0000f	83 e8 10	 sub	 eax, 16			; 00000010H
  00012	6a 01		 push	 1
  00014	57		 push	 edi
  00015	50		 push	 eax
  00016	ff 52 08	 call	 DWORD PTR [edx+8]

; 781  : 		if( pNewData == NULL )

  00019	85 c0		 test	 eax, eax
  0001b	75 05		 jne	 SHORT $L222771

; 782  : 		{
; 783  : 			ThrowMemoryException();

  0001d	e8 00 00 00 00	 call	 ?ThrowMemoryException@?$CSimpleStringT@D$0A@@ATL@@KAXXZ ; ATL::CSimpleStringT<char,0>::ThrowMemoryException
$L229994:
$L222771:

; 784  : 		}
; 785  : 		Attach( pNewData );

  00022	83 c0 10	 add	 eax, 16			; 00000010H
  00025	5f		 pop	 edi
  00026	89 06		 mov	 DWORD PTR [esi], eax
  00028	5e		 pop	 esi

; 786  : 	}

  00029	c2 04 00	 ret	 4
$L229993:
?Reallocate@?$CSimpleStringT@D$0A@@ATL@@AAEXH@Z ENDP	; ATL::CSimpleStringT<char,0>::Reallocate
_TEXT	ENDS
PUBLIC	??_C@_0CM@NNPGAIKO@?$CFs?$CI?$CFd?$CJ?5?3?5MoverID?$DN?$CFd?5SCAN?5?$LM?$LN?E?M?$LK?m?$LH@ ; `string'
PUBLIC	??_C@_03JOGALCLM@job?$AA@			; `string'
PUBLIC	??_C@_05CCGOGOBM@range?$AA@			; `string'
PUBLIC	??_C@_05KOGNICEN@quest?$AA@			; `string'
PUBLIC	??_C@_04NHONDGDE@item?$AA@			; `string'
PUBLIC	??_C@_04LCKNAMOM@chao?$AA@			; `string'
PUBLIC	??_C@_0CE@DOIGNPAP@?$CFs?$CI?$CFd?$CJ?5?3?5MoverID?$DN?$CFd?5syntax?5error@ ; `string'
PUBLIC	??_C@_04BMFHCNCO@scan?$AA@			; `string'
PUBLIC	?LoadPropMoverEx_AI_SCAN@CProject@@QAEHPBDAAVCScript@@H@Z ; CProject::LoadPropMoverEx_AI_SCAN
EXTRN	_strcmpi:NEAR
EXTRN	?GetNumber@CScanner@@QAEHH@Z:NEAR		; CScanner::GetNumber
;	COMDAT ??_C@_0CM@NNPGAIKO@?$CFs?$CI?$CFd?$CJ?5?3?5MoverID?$DN?$CFd?5SCAN?5?$LM?$LN?E?M?$LK?m?$LH@
CONST	SEGMENT
??_C@_0CM@NNPGAIKO@?$CFs?$CI?$CFd?$CJ?5?3?5MoverID?$DN?$CFd?5SCAN?5?$LM?$LN?E?M?$LK?m?$LH@ DB '%'
	DB	's(%d) : MoverID=%d SCAN ', 0bcH, 0bdH, 0c5H, 0cdH, 0baH, 0edH
	DB	0b7H, 0b0H, ' { ', 0baH, 0fcH, 0c1H, 0b3H, 0c0H, 0bdH, '.', 00H ; `string'
CONST	ENDS
;	COMDAT ??_C@_03JOGALCLM@job?$AA@
CONST	SEGMENT
??_C@_03JOGALCLM@job?$AA@ DB 'job', 00H			; `string'
CONST	ENDS
;	COMDAT ??_C@_05CCGOGOBM@range?$AA@
CONST	SEGMENT
??_C@_05CCGOGOBM@range?$AA@ DB 'range', 00H		; `string'
CONST	ENDS
;	COMDAT ??_C@_05KOGNICEN@quest?$AA@
CONST	SEGMENT
??_C@_05KOGNICEN@quest?$AA@ DB 'quest', 00H		; `string'
CONST	ENDS
;	COMDAT ??_C@_04NHONDGDE@item?$AA@
CONST	SEGMENT
??_C@_04NHONDGDE@item?$AA@ DB 'item', 00H		; `string'
CONST	ENDS
;	COMDAT ??_C@_04LCKNAMOM@chao?$AA@
CONST	SEGMENT
??_C@_04LCKNAMOM@chao?$AA@ DB 'chao', 00H		; `string'
CONST	ENDS
;	COMDAT ??_C@_04BMFHCNCO@scan?$AA@
CONST	SEGMENT
??_C@_04BMFHCNCO@scan?$AA@ DB 'scan', 00H		; `string'
CONST	ENDS
;	COMDAT ??_C@_0CE@DOIGNPAP@?$CFs?$CI?$CFd?$CJ?5?3?5MoverID?$DN?$CFd?5syntax?5error@
CONST	SEGMENT
??_C@_0CE@DOIGNPAP@?$CFs?$CI?$CFd?$CJ?5?3?5MoverID?$DN?$CFd?5syntax?5error@ DB '%'
	DB	's(%d) : MoverID=%d syntax error %s', 00H	; `string'
; Function compile flags: /Ogty
; File c:\documents and settings\test\mes documents\source\virtuos_v17\build\program\_common\projectlux.cpp
CONST	ENDS
;	COMDAT ?LoadPropMoverEx_AI_SCAN@CProject@@QAEHPBDAAVCScript@@H@Z
_TEXT	SEGMENT
_nCommand$ = -4						; size = 4
_szFileName$ = 8					; size = 4
_script$ = 12						; size = 4
_nVal$ = 16						; size = 4
?LoadPropMoverEx_AI_SCAN@CProject@@QAEHPBDAAVCScript@@H@Z PROC NEAR ; CProject::LoadPropMoverEx_AI_SCAN, COMDAT
; _this$ = ecx

; 50   : {

  00000	51		 push	 ecx
  00001	53		 push	 ebx
  00002	56		 push	 esi

; 51   : 	AICMD nCommand = AICMD_NONE;
; 52   : 
; 53   : 	script.GetToken();	// {

  00003	8b 74 24 14	 mov	 esi, DWORD PTR _script$[esp+8]
  00007	8b 06		 mov	 eax, DWORD PTR [esi]
  00009	57		 push	 edi
  0000a	33 ff		 xor	 edi, edi
  0000c	8b d9		 mov	 ebx, ecx
  0000e	57		 push	 edi
  0000f	8b ce		 mov	 ecx, esi
  00011	89 7c 24 10	 mov	 DWORD PTR _nCommand$[esp+20], edi
  00015	ff 50 14	 call	 DWORD PTR [eax+20]

; 54   : 	if( script.token[0] != '{' )	// #SCAN  { .

  00018	8b 4e 24	 mov	 ecx, DWORD PTR [esi+36]
  0001b	80 39 7b	 cmp	 BYTE PTR [ecx], 123	; 0000007bH
  0001e	74 29		 je	 SHORT $L230005

; 55   : 	{
; 56   : 		Error( "%s(%d) : MoverID=%d SCAN  { .", szFileName, script.GetLineNum(), nVal );

  00020	8b 54 24 1c	 mov	 edx, DWORD PTR _nVal$[esp+12]
  00024	8b 06		 mov	 eax, DWORD PTR [esi]
  00026	52		 push	 edx
  00027	57		 push	 edi
  00028	8b ce		 mov	 ecx, esi
  0002a	ff 50 1c	 call	 DWORD PTR [eax+28]
  0002d	8b 4c 24 18	 mov	 ecx, DWORD PTR _szFileName$[esp+16]
  00031	50		 push	 eax
  00032	51		 push	 ecx
  00033	68 00 00 00 00	 push	 OFFSET FLAT:??_C@_0CM@NNPGAIKO@?$CFs?$CI?$CFd?$CJ?5?3?5MoverID?$DN?$CFd?5SCAN?5?$LM?$LN?E?M?$LK?m?$LH@
  00038	e8 00 00 00 00	 call	 ?Error@@YAPBDPBDZZ	; Error
  0003d	83 c4 10	 add	 esp, 16			; 00000010H
  00040	5f		 pop	 edi
  00041	5e		 pop	 esi

; 57   : 		return FALSE;

  00042	33 c0		 xor	 eax, eax
  00044	5b		 pop	 ebx

; 107  : }

  00045	59		 pop	 ecx
  00046	c2 0c 00	 ret	 12			; 0000000cH

; 58   : 	}
; 59   : 
; 60   : 	MoverProp* pProp = GetMoverProp( nVal );

$L230005:
  00049	55		 push	 ebp
  0004a	8b 6c 24 20	 mov	 ebp, DWORD PTR _nVal$[esp+16]
  0004e	3b ef		 cmp	 ebp, edi
  00050	7c 1a		 jl	 SHORT $L230009
  00052	3b ab d0 01 00
	00		 cmp	 ebp, DWORD PTR [ebx+464]
  00058	7d 12		 jge	 SHORT $L230009
  0005a	8b 83 d4 01 00
	00		 mov	 eax, DWORD PTR [ebx+468]
  00060	8b fd		 mov	 edi, ebp
  00062	69 ff d8 06 00
	00		 imul	 edi, 1752		; 000006d8H
  00068	03 f8		 add	 edi, eax
  0006a	eb 1b		 jmp	 SHORT $L230019
$L230009:
  0006c	8b 93 d0 01 00
	00		 mov	 edx, DWORD PTR [ebx+464]
  00072	55		 push	 ebp
  00073	52		 push	 edx
  00074	57		 push	 edi
  00075	68 00 00 00 00	 push	 OFFSET FLAT:??_C@_0BJ@GKPOBPPI@GetMoverProp?5range_error?$AA@
  0007a	68 00 00 00 00	 push	 OFFSET FLAT:??_C@_0BM@HMFGHCP@?$CFs?5min?3?$CFd?0?5max?3?$CFd?0?5index?3?$CFd?$AA@
  0007f	e8 00 00 00 00	 call	 ?Error@@YAPBDPBDZZ	; Error
  00084	83 c4 14	 add	 esp, 20			; 00000014H
$L230019:

; 61   : 	
; 62   : 	while(1)
; 63   : 	{
; 64   : 		script.GetToken();		//   ,.

  00087	8b 06		 mov	 eax, DWORD PTR [esi]
  00089	6a 00		 push	 0
  0008b	8b ce		 mov	 ecx, esi
  0008d	ff 50 14	 call	 DWORD PTR [eax+20]

; 65   : 		if( script.token[0] == '}' )	// SCAN .

  00090	8b 46 24	 mov	 eax, DWORD PTR [esi+36]
  00093	80 38 7d	 cmp	 BYTE PTR [eax], 125	; 0000007dH
  00096	0f 84 0c 01 00
	00		 je	 $L230020
  0009c	8d 64 24 00	 npad	 4
$L228358:

; 66   : 			break;
; 67   : 
; 68   : 		if( script.tokenType == IDENTIFIER )		//  .

  000a0	83 be 28 08 00
	00 02		 cmp	 DWORD PTR [esi+2088], 2
  000a7	0f 85 e6 00 00
	00		 jne	 $L230022

; 69   : 		{
; 70   : 			if( nCommand == AICMD_SCAN )		// scan .

  000ad	8b 5c 24 10	 mov	 ebx, DWORD PTR _nCommand$[esp+20]
  000b1	83 fb 01	 cmp	 ebx, 1
  000b4	0f 85 b8 00 00
	00		 jne	 $L228377

; 71   : 			{
; 72   : 				if( strcmpi( script.token, "job" ) == 0 )		//   

  000ba	68 00 00 00 00	 push	 OFFSET FLAT:??_C@_03JOGALCLM@job?$AA@
  000bf	50		 push	 eax
  000c0	e8 00 00 00 00	 call	 _strcmpi
  000c5	83 c4 08	 add	 esp, 8
  000c8	85 c0		 test	 eax, eax
  000ca	75 13		 jne	 SHORT $L228363

; 73   : 					pProp->m_nScanJob = script.GetNumber();

  000cc	50		 push	 eax
  000cd	8b ce		 mov	 ecx, esi
  000cf	e8 00 00 00 00	 call	 ?GetNumber@CScanner@@QAEHH@Z ; CScanner::GetNumber
  000d4	89 87 dc 01 00
	00		 mov	 DWORD PTR [edi+476], eax

; 74   : 				else 

  000da	e9 93 00 00 00	 jmp	 $L228377
$L228363:

; 75   : 				if( strcmpi( script.token, "range" ) == 0 )		//   

  000df	8b 4e 24	 mov	 ecx, DWORD PTR [esi+36]
  000e2	68 00 00 00 00	 push	 OFFSET FLAT:??_C@_05CCGOGOBM@range?$AA@
  000e7	51		 push	 ecx
  000e8	e8 00 00 00 00	 call	 _strcmpi
  000ed	83 c4 08	 add	 esp, 8
  000f0	85 c0		 test	 eax, eax
  000f2	75 11		 jne	 SHORT $L228366

; 76   : 					pProp->m_nAttackFirstRange = script.GetNumber();

  000f4	50		 push	 eax
  000f5	8b ce		 mov	 ecx, esi
  000f7	e8 00 00 00 00	 call	 ?GetNumber@CScanner@@QAEHH@Z ; CScanner::GetNumber
  000fc	66 89 87 86 02
	00 00		 mov	 WORD PTR [edi+646], ax

; 77   : 				else 

  00103	eb 6d		 jmp	 SHORT $L228377
$L228366:

; 78   : 				if( strcmpi( script.token, "quest" ) == 0 )	//     

  00105	8b 56 24	 mov	 edx, DWORD PTR [esi+36]
  00108	68 00 00 00 00	 push	 OFFSET FLAT:??_C@_05KOGNICEN@quest?$AA@
  0010d	52		 push	 edx
  0010e	e8 00 00 00 00	 call	 _strcmpi
  00113	83 c4 08	 add	 esp, 8
  00116	85 c0		 test	 eax, eax
  00118	75 10		 jne	 SHORT $L228369

; 79   : 					pProp->m_dwScanQuestId = script.GetNumber();

  0011a	50		 push	 eax
  0011b	8b ce		 mov	 ecx, esi
  0011d	e8 00 00 00 00	 call	 ?GetNumber@CScanner@@QAEHH@Z ; CScanner::GetNumber
  00122	89 87 44 02 00
	00		 mov	 DWORD PTR [edi+580], eax

; 80   : 				else 

  00128	eb 48		 jmp	 SHORT $L228377
$L228369:

; 81   : 				if( strcmpi( script.token, "item" ) == 0 )	//      

  0012a	8b 46 24	 mov	 eax, DWORD PTR [esi+36]
  0012d	68 00 00 00 00	 push	 OFFSET FLAT:??_C@_04NHONDGDE@item?$AA@
  00132	50		 push	 eax
  00133	e8 00 00 00 00	 call	 _strcmpi
  00138	83 c4 08	 add	 esp, 8
  0013b	85 c0		 test	 eax, eax
  0013d	75 10		 jne	 SHORT $L228372

; 82   : 					pProp->m_dwScanItemIdx = script.GetNumber();

  0013f	50		 push	 eax
  00140	8b ce		 mov	 ecx, esi
  00142	e8 00 00 00 00	 call	 ?GetNumber@CScanner@@QAEHH@Z ; CScanner::GetNumber
  00147	89 87 48 02 00
	00		 mov	 DWORD PTR [edi+584], eax

; 83   : 				else

  0014d	eb 23		 jmp	 SHORT $L228377
$L228372:

; 84   : 				if( strcmpi( script.token, "chao" ) == 0 )	//      

  0014f	8b 4e 24	 mov	 ecx, DWORD PTR [esi+36]
  00152	68 00 00 00 00	 push	 OFFSET FLAT:??_C@_04LCKNAMOM@chao?$AA@
  00157	51		 push	 ecx
  00158	e8 00 00 00 00	 call	 _strcmpi
  0015d	83 c4 08	 add	 esp, 8
  00160	85 c0		 test	 eax, eax

; 85   : 					pProp->m_nScanChao = script.GetNumber();

  00162	8b ce		 mov	 ecx, esi
  00164	75 4f		 jne	 SHORT $L228375
  00166	50		 push	 eax
  00167	e8 00 00 00 00	 call	 ?GetNumber@CScanner@@QAEHH@Z ; CScanner::GetNumber
  0016c	89 87 4c 02 00
	00		 mov	 DWORD PTR [edi+588], eax
$L228377:

; 91   : 				}
; 92   : 			}
; 93   : 			if( strcmpi( script.Token, "scan" ) == 0 )	// .

  00172	8b 46 20	 mov	 eax, DWORD PTR [esi+32]
  00175	68 00 00 00 00	 push	 OFFSET FLAT:??_C@_04BMFHCNCO@scan?$AA@
  0017a	50		 push	 eax
  0017b	e8 00 00 00 00	 call	 _strcmpi
  00180	83 c4 08	 add	 esp, 8
  00183	85 c0		 test	 eax, eax
  00185	75 0c		 jne	 SHORT $L230022

; 94   : 			{
; 95   : 				if( nCommand )	//      .

  00187	85 db		 test	 ebx, ebx
  00189	75 30		 jne	 SHORT $L230021

; 99   : 				}
; 100  : 				nCommand =	AICMD_SCAN;	// scan

  0018b	c7 44 24 10 01
	00 00 00	 mov	 DWORD PTR _nCommand$[esp+20], 1
$L230022:

; 61   : 	
; 62   : 	while(1)
; 63   : 	{
; 64   : 		script.GetToken();		//   ,.

  00193	8b 16		 mov	 edx, DWORD PTR [esi]
  00195	6a 00		 push	 0
  00197	8b ce		 mov	 ecx, esi
  00199	ff 52 14	 call	 DWORD PTR [edx+20]

; 65   : 		if( script.token[0] == '}' )	// SCAN .

  0019c	8b 46 24	 mov	 eax, DWORD PTR [esi+36]
  0019f	80 38 7d	 cmp	 BYTE PTR [eax], 125	; 0000007dH
  001a2	0f 85 f8 fe ff
	ff		 jne	 $L228358
$L230020:
  001a8	5d		 pop	 ebp
  001a9	5f		 pop	 edi
  001aa	5e		 pop	 esi

; 101  : 				//pProp->m_nAttackFirstRange = 3;
; 102  : 			}
; 103  : 		}
; 104  : 	}
; 105  : 
; 106  : 	return TRUE;

  001ab	b8 01 00 00 00	 mov	 eax, 1
  001b0	5b		 pop	 ebx

; 107  : }

  001b1	59		 pop	 ecx
  001b2	c2 0c 00	 ret	 12			; 0000000cH
$L228375:

; 86   : 				else
; 87   : 				{
; 88   : 					//         
; 89   : 					SYNTAX_ERROR;

  001b5	8b 46 24	 mov	 eax, DWORD PTR [esi+36]
  001b8	50		 push	 eax

; 90   : 					return FALSE;

  001b9	eb 06		 jmp	 SHORT $L230024
$L230021:

; 96   : 				{
; 97   : 					SYNTAX_ERROR;

  001bb	8b 4e 24	 mov	 ecx, DWORD PTR [esi+36]
  001be	51		 push	 ecx
  001bf	8b ce		 mov	 ecx, esi
$L230024:
  001c1	8b 16		 mov	 edx, DWORD PTR [esi]
  001c3	55		 push	 ebp
  001c4	6a 00		 push	 0
  001c6	ff 52 1c	 call	 DWORD PTR [edx+28]
  001c9	50		 push	 eax
  001ca	8b 44 24 24	 mov	 eax, DWORD PTR _szFileName$[esp+28]
  001ce	50		 push	 eax
  001cf	68 00 00 00 00	 push	 OFFSET FLAT:??_C@_0CE@DOIGNPAP@?$CFs?$CI?$CFd?$CJ?5?3?5MoverID?$DN?$CFd?5syntax?5error@
  001d4	e8 00 00 00 00	 call	 ?Error@@YAPBDPBDZZ	; Error
  001d9	83 c4 14	 add	 esp, 20			; 00000014H
  001dc	5d		 pop	 ebp
  001dd	5f		 pop	 edi
  001de	5e		 pop	 esi

; 98   : 					return FALSE;

  001df	33 c0		 xor	 eax, eax
  001e1	5b		 pop	 ebx

; 107  : }

  001e2	59		 pop	 ecx
  001e3	c2 0c 00	 ret	 12			; 0000000cH
?LoadPropMoverEx_AI_SCAN@CProject@@QAEHPBDAAVCScript@@H@Z ENDP ; CProject::LoadPropMoverEx_AI_SCAN
_TEXT	ENDS
PUBLIC	??_C@_0CM@FCIKAEFM@?$CFs?$CI?$CFd?$CJ?5?3?5MoverID?$DN?$CFd?5MOVE?5?$LM?$LN?E?M?$LK?m?$LH@ ; `string'
PUBLIC	??_C@_04MPEDGKBA@Loot?$AA@			; `string'
PUBLIC	??_C@_01LPLHEDKD@d?$AA@				; `string'
PUBLIC	?LoadPropMoverEx_AI_MOVE@CProject@@QAEHPBDAAVCScript@@H@Z ; CProject::LoadPropMoverEx_AI_MOVE
EXTRN	_atoi:NEAR
;	COMDAT ??_C@_0CM@FCIKAEFM@?$CFs?$CI?$CFd?$CJ?5?3?5MoverID?$DN?$CFd?5MOVE?5?$LM?$LN?E?M?$LK?m?$LH@
; File c:\documents and settings\test\mes documents\source\virtuos_v17\build\program\_common\project.h
CONST	SEGMENT
??_C@_0CM@FCIKAEFM@?$CFs?$CI?$CFd?$CJ?5?3?5MoverID?$DN?$CFd?5MOVE?5?$LM?$LN?E?M?$LK?m?$LH@ DB '%'
	DB	's(%d) : MoverID=%d MOVE ', 0bcH, 0bdH, 0c5H, 0cdH, 0baH, 0edH
	DB	0b7H, 0b0H, ' { ', 0baH, 0fcH, 0c1H, 0b3H, 0c0H, 0bdH, '.', 00H ; `string'
CONST	ENDS
;	COMDAT ??_C@_04MPEDGKBA@Loot?$AA@
CONST	SEGMENT
??_C@_04MPEDGKBA@Loot?$AA@ DB 'Loot', 00H		; `string'
CONST	ENDS
;	COMDAT ??_C@_01LPLHEDKD@d?$AA@
CONST	SEGMENT
??_C@_01LPLHEDKD@d?$AA@ DB 'd', 00H			; `string'
; Function compile flags: /Ogty
; File c:\documents and settings\test\mes documents\source\virtuos_v17\build\program\_common\projectlux.cpp
CONST	ENDS
;	COMDAT ?LoadPropMoverEx_AI_MOVE@CProject@@QAEHPBDAAVCScript@@H@Z
_TEXT	SEGMENT
_szFileName$ = 8					; size = 4
_script$ = 12						; size = 4
_nVal$ = 16						; size = 4
?LoadPropMoverEx_AI_MOVE@CProject@@QAEHPBDAAVCScript@@H@Z PROC NEAR ; CProject::LoadPropMoverEx_AI_MOVE, COMDAT
; _this$ = ecx

; 364  : {

  00000	53		 push	 ebx
  00001	55		 push	 ebp
  00002	56		 push	 esi

; 365  : 	AICMD nCommand = AICMD_NONE;
; 366  : 	
; 367  : 	script.GetToken();	// {

  00003	8b 74 24 14	 mov	 esi, DWORD PTR _script$[esp+8]
  00007	8b 06		 mov	 eax, DWORD PTR [esi]
  00009	8b d9		 mov	 ebx, ecx
  0000b	33 ed		 xor	 ebp, ebp
  0000d	55		 push	 ebp
  0000e	8b ce		 mov	 ecx, esi
  00010	ff 50 14	 call	 DWORD PTR [eax+20]

; 368  : 	if( script.token[0] != '{' )	// #MOVE  { .

  00013	8b 4e 24	 mov	 ecx, DWORD PTR [esi+36]
  00016	80 39 7b	 cmp	 BYTE PTR [ecx], 123	; 0000007bH
  00019	74 28		 je	 SHORT $L230035

; 369  : 	{
; 370  : 		Error( "%s(%d) : MoverID=%d MOVE  { .", szFileName, script.GetLineNum(), nVal );

  0001b	8b 54 24 18	 mov	 edx, DWORD PTR _nVal$[esp+8]
  0001f	8b 06		 mov	 eax, DWORD PTR [esi]
  00021	52		 push	 edx
  00022	55		 push	 ebp
  00023	8b ce		 mov	 ecx, esi
  00025	ff 50 1c	 call	 DWORD PTR [eax+28]
  00028	8b 4c 24 14	 mov	 ecx, DWORD PTR _szFileName$[esp+12]
  0002c	50		 push	 eax
  0002d	51		 push	 ecx
  0002e	68 00 00 00 00	 push	 OFFSET FLAT:??_C@_0CM@FCIKAEFM@?$CFs?$CI?$CFd?$CJ?5?3?5MoverID?$DN?$CFd?5MOVE?5?$LM?$LN?E?M?$LK?m?$LH@
  00033	e8 00 00 00 00	 call	 ?Error@@YAPBDPBDZZ	; Error
  00038	83 c4 10	 add	 esp, 16			; 00000010H
  0003b	5e		 pop	 esi
  0003c	5d		 pop	 ebp

; 371  : 		return FALSE;

  0003d	33 c0		 xor	 eax, eax
  0003f	5b		 pop	 ebx

; 418  : }

  00040	c2 0c 00	 ret	 12			; 0000000cH

; 372  : 	}
; 373  : 	
; 374  : 	MoverProp* pProp = GetMoverProp( nVal );

$L230035:
  00043	57		 push	 edi
  00044	8b 7c 24 1c	 mov	 edi, DWORD PTR _nVal$[esp+12]
  00048	85 ff		 test	 edi, edi
  0004a	7c 18		 jl	 SHORT $L230039
  0004c	3b bb d0 01 00
	00		 cmp	 edi, DWORD PTR [ebx+464]
  00052	7d 10		 jge	 SHORT $L230039
  00054	8b 83 d4 01 00
	00		 mov	 eax, DWORD PTR [ebx+468]
  0005a	69 ff d8 06 00
	00		 imul	 edi, 1752		; 000006d8H
  00060	03 f8		 add	 edi, eax
  00062	eb 1e		 jmp	 SHORT $L230045
$L230039:
  00064	8b 93 d0 01 00
	00		 mov	 edx, DWORD PTR [ebx+464]
  0006a	57		 push	 edi
  0006b	52		 push	 edx
  0006c	6a 00		 push	 0
  0006e	68 00 00 00 00	 push	 OFFSET FLAT:??_C@_0BJ@GKPOBPPI@GetMoverProp?5range_error?$AA@
  00073	68 00 00 00 00	 push	 OFFSET FLAT:??_C@_0BM@HMFGHCP@?$CFs?5min?3?$CFd?0?5max?3?$CFd?0?5index?3?$CFd?$AA@
  00078	e8 00 00 00 00	 call	 ?Error@@YAPBDPBDZZ	; Error
  0007d	83 c4 14	 add	 esp, 20			; 00000014H
  00080	33 ff		 xor	 edi, edi
$L230045:

; 375  : 	
; 376  : 	while(1)
; 377  : 	{
; 378  : 		script.GetToken();		//   ,.

  00082	8b 06		 mov	 eax, DWORD PTR [esi]
  00084	33 db		 xor	 ebx, ebx
  00086	53		 push	 ebx
  00087	8b ce		 mov	 ecx, esi
  00089	ff 50 14	 call	 DWORD PTR [eax+20]

; 379  : 		if( script.token[0] == '}' )	// MOVE .

  0008c	8b 46 24	 mov	 eax, DWORD PTR [esi+36]
  0008f	80 38 7d	 cmp	 BYTE PTR [eax], 125	; 0000007dH
  00092	74 74		 je	 SHORT $L230046
$L228532:

; 380  : 			break;
; 381  : 
; 382  : 		if( script.tokenType == IDENTIFIER )		//  .

  00094	8b 8e 28 08 00
	00		 mov	 ecx, DWORD PTR [esi+2088]
  0009a	83 f9 02	 cmp	 ecx, 2
  0009d	75 3c		 jne	 SHORT $L228535

; 383  : 		{
; 384  : 			if( strcmpi( script.token, "Loot" ) == 0 )		// .  .

  0009f	68 00 00 00 00	 push	 OFFSET FLAT:??_C@_04MPEDGKBA@Loot?$AA@
  000a4	50		 push	 eax
  000a5	e8 00 00 00 00	 call	 _strcmpi
  000aa	83 c4 08	 add	 esp, 8
  000ad	85 c0		 test	 eax, eax
  000af	75 0d		 jne	 SHORT $L228536

; 385  : 			{
; 386  : 				nCommand = AICMD_LOOT;

  000b1	bd 0d 00 00 00	 mov	 ebp, 13			; 0000000dH

; 387  : //				pProp->m_nLoot = 1;		// :  
; 388  : 				pProp->m_nLoot	= 0;

  000b6	89 9f 3c 02 00
	00		 mov	 DWORD PTR [edi+572], ebx

; 389  : 			} else

  000bc	eb 3a		 jmp	 SHORT $L228546
$L228536:

; 390  : 			if( strcmpi( script.token, "d" ) == 0 )		// Loot 

  000be	8b 4e 24	 mov	 ecx, DWORD PTR [esi+36]
  000c1	68 00 00 00 00	 push	 OFFSET FLAT:??_C@_01LPLHEDKD@d?$AA@
  000c6	51		 push	 ecx
  000c7	e8 00 00 00 00	 call	 _strcmpi
  000cc	83 c4 08	 add	 esp, 8
  000cf	85 c0		 test	 eax, eax
  000d1	75 41		 jne	 SHORT $L228539

; 391  : 			{
; 392  : //				pProp->m_nLoot = 2;		// 2 d.
; 393  : 				pProp->m_nLoot	= 0;	// :  

  000d3	89 9f 3c 02 00
	00		 mov	 DWORD PTR [edi+572], ebx

; 398  : 			}
; 399  : 		} else

  000d9	eb 1d		 jmp	 SHORT $L228546
$L228535:

; 400  : 		///////////  .
; 401  : 		if( script.tokenType == NUMBER )

  000db	83 f9 03	 cmp	 ecx, 3
  000de	75 18		 jne	 SHORT $L228546

; 402  : 		{
; 403  : 			if( nCommand == 0 )		//    .

  000e0	3b eb		 cmp	 ebp, ebx
  000e2	74 49		 je	 SHORT $L230047

; 407  : 			}
; 408  : 			else if( nCommand == AICMD_LOOT )

  000e4	83 fd 0d	 cmp	 ebp, 13			; 0000000dH
  000e7	75 0f		 jne	 SHORT $L228546

; 409  : 			{
; 410  : 				if( script.tokenType != NUMBER )
; 411  : 					UNIDENTIFY_ERROR;
; 412  : 				pProp->m_nLootProb = atoi( script.token );

  000e9	50		 push	 eax
  000ea	e8 00 00 00 00	 call	 _atoi
  000ef	83 c4 04	 add	 esp, 4
  000f2	89 87 40 02 00
	00		 mov	 DWORD PTR [edi+576], eax
$L228546:
  000f8	8b 16		 mov	 edx, DWORD PTR [esi]
  000fa	53		 push	 ebx
  000fb	8b ce		 mov	 ecx, esi
  000fd	ff 52 14	 call	 DWORD PTR [edx+20]
  00100	8b 46 24	 mov	 eax, DWORD PTR [esi+36]
  00103	80 38 7d	 cmp	 BYTE PTR [eax], 125	; 0000007dH
  00106	75 8c		 jne	 SHORT $L228532
$L230046:
  00108	5f		 pop	 edi
  00109	5e		 pop	 esi
  0010a	5d		 pop	 ebp

; 413  : 			}
; 414  : 		}
; 415  : 	}
; 416  : 	
; 417  : 	return TRUE;

  0010b	b8 01 00 00 00	 mov	 eax, 1
  00110	5b		 pop	 ebx

; 418  : }

  00111	c2 0c 00	 ret	 12			; 0000000cH
$L228539:

; 394  : 			} else
; 395  : 			{
; 396  : 				SYNTAX_ERROR;	//   .

  00114	8b 46 24	 mov	 eax, DWORD PTR [esi+36]
  00117	8b 4c 24 1c	 mov	 ecx, DWORD PTR _nVal$[esp+12]
  0011b	8b 16		 mov	 edx, DWORD PTR [esi]
  0011d	50		 push	 eax
  0011e	51		 push	 ecx
  0011f	53		 push	 ebx
  00120	8b ce		 mov	 ecx, esi
  00122	ff 52 1c	 call	 DWORD PTR [edx+28]
  00125	50		 push	 eax
  00126	8b 44 24 20	 mov	 eax, DWORD PTR _szFileName$[esp+24]
  0012a	50		 push	 eax

; 397  : 				return FALSE;

  0012b	eb 17		 jmp	 SHORT $L230049
$L230047:

; 404  : 			{
; 405  : 				SYNTAX_ERROR;

  0012d	8b 4e 24	 mov	 ecx, DWORD PTR [esi+36]
  00130	8b 54 24 1c	 mov	 edx, DWORD PTR _nVal$[esp+12]
  00134	8b 06		 mov	 eax, DWORD PTR [esi]
  00136	51		 push	 ecx
  00137	52		 push	 edx
  00138	53		 push	 ebx
  00139	8b ce		 mov	 ecx, esi
  0013b	ff 50 1c	 call	 DWORD PTR [eax+28]
  0013e	8b 4c 24 1c	 mov	 ecx, DWORD PTR _szFileName$[esp+20]
  00142	50		 push	 eax
  00143	51		 push	 ecx
$L230049:
  00144	68 00 00 00 00	 push	 OFFSET FLAT:??_C@_0CE@DOIGNPAP@?$CFs?$CI?$CFd?$CJ?5?3?5MoverID?$DN?$CFd?5syntax?5error@
  00149	e8 00 00 00 00	 call	 ?Error@@YAPBDPBDZZ	; Error
  0014e	83 c4 14	 add	 esp, 20			; 00000014H
  00151	5f		 pop	 edi
  00152	5e		 pop	 esi
  00153	5d		 pop	 ebp

; 406  : 				return FALSE;

  00154	33 c0		 xor	 eax, eax
  00156	5b		 pop	 ebx

; 418  : }

  00157	c2 0c 00	 ret	 12			; 0000000cH
?LoadPropMoverEx_AI_MOVE@CProject@@QAEHPBDAAVCScript@@H@Z ENDP ; CProject::LoadPropMoverEx_AI_MOVE
_TEXT	ENDS
PUBLIC	??0?$CSimpleStringT@D$0A@@ATL@@QAE@PAUIAtlStringMgr@1@@Z ; ATL::CSimpleStringT<char,0>::CSimpleStringT<char,0>
; Function compile flags: /Ogty
; File c:\program files\microsoft visual studio .net 2003\vc7\atlmfc\include\atlsimpstr.h
;	COMDAT ??0?$CSimpleStringT@D$0A@@ATL@@QAE@PAUIAtlStringMgr@1@@Z
_TEXT	SEGMENT
_pStringMgr$ = 8					; size = 4
??0?$CSimpleStringT@D$0A@@ATL@@QAE@PAUIAtlStringMgr@1@@Z PROC NEAR ; ATL::CSimpleStringT<char,0>::CSimpleStringT<char,0>, COMDAT
; _this$ = ecx

; 210  : 	explicit CSimpleStringT( IAtlStringMgr* pStringMgr ) throw()

  00000	56		 push	 esi
  00001	8b f1		 mov	 esi, ecx

; 211  : 	{
; 212  : 		ATLASSERT( pStringMgr != NULL );
; 213  : 		CStringData* pData = pStringMgr->GetNilString();

  00003	8b 4c 24 08	 mov	 ecx, DWORD PTR _pStringMgr$[esp]
  00007	8b 01		 mov	 eax, DWORD PTR [ecx]
  00009	ff 50 0c	 call	 DWORD PTR [eax+12]

; 214  : 		Attach( pData );

  0000c	83 c0 10	 add	 eax, 16			; 00000010H
  0000f	89 06		 mov	 DWORD PTR [esi], eax

; 215  : 	}

  00011	8b c6		 mov	 eax, esi
  00013	5e		 pop	 esi
  00014	c2 04 00	 ret	 4
??0?$CSimpleStringT@D$0A@@ATL@@QAE@PAUIAtlStringMgr@1@@Z ENDP ; ATL::CSimpleStringT<char,0>::CSimpleStringT<char,0>
_TEXT	ENDS
PUBLIC	??1?$CSimpleStringT@D$0A@@ATL@@QAE@XZ		; ATL::CSimpleStringT<char,0>::~CSimpleStringT<char,0>
; Function compile flags: /Ogty
;	COMDAT ??1?$CSimpleStringT@D$0A@@ATL@@QAE@XZ
_TEXT	SEGMENT
??1?$CSimpleStringT@D$0A@@ATL@@QAE@XZ PROC NEAR		; ATL::CSimpleStringT<char,0>::~CSimpleStringT<char,0>, COMDAT
; _this$ = ecx

; 263  : 		CStringData* pData = GetData();

  00000	8b 01		 mov	 eax, DWORD PTR [ecx]
  00002	83 e8 10	 sub	 eax, 16			; 00000010H

; 264  : 		pData->Release();

  00005	8d 48 0c	 lea	 ecx, DWORD PTR [eax+12]
  00008	83 ca ff	 or	 edx, -1
  0000b	f0 0f c1 11	 lock	  xadd	 DWORD PTR [ecx], edx
  0000f	4a		 dec	 edx
  00010	85 d2		 test	 edx, edx
  00012	7f 08		 jg	 SHORT $L230070
  00014	8b 08		 mov	 ecx, DWORD PTR [eax]
  00016	8b 11		 mov	 edx, DWORD PTR [ecx]
  00018	50		 push	 eax
  00019	ff 52 04	 call	 DWORD PTR [edx+4]
$L230070:

; 265  : 	}

  0001c	c3		 ret	 0
??1?$CSimpleStringT@D$0A@@ATL@@QAE@XZ ENDP		; ATL::CSimpleStringT<char,0>::~CSimpleStringT<char,0>
_TEXT	ENDS
PUBLIC	?ReleaseBufferSetLength@?$CSimpleStringT@D$0A@@ATL@@QAEXH@Z ; ATL::CSimpleStringT<char,0>::ReleaseBufferSetLength
; Function compile flags: /Ogty
;	COMDAT ?ReleaseBufferSetLength@?$CSimpleStringT@D$0A@@ATL@@QAEXH@Z
_TEXT	SEGMENT
_nNewLength$ = 8					; size = 4
?ReleaseBufferSetLength@?$CSimpleStringT@D$0A@@ATL@@QAEXH@Z PROC NEAR ; ATL::CSimpleStringT<char,0>::ReleaseBufferSetLength, COMDAT
; _this$ = ecx

; 547  : 		ATLASSERT( nNewLength >= 0 );
; 548  : 		SetLength( nNewLength );

  00000	8b 44 24 04	 mov	 eax, DWORD PTR _nNewLength$[esp-4]
  00004	85 c0		 test	 eax, eax
  00006	7c 13		 jl	 SHORT $L230088
  00008	8b 11		 mov	 edx, DWORD PTR [ecx]
  0000a	3b 42 f8	 cmp	 eax, DWORD PTR [edx-8]
  0000d	7f 0c		 jg	 SHORT $L230088
  0000f	89 42 f4	 mov	 DWORD PTR [edx-12], eax
  00012	8b 09		 mov	 ecx, DWORD PTR [ecx]
  00014	c6 04 08 00	 mov	 BYTE PTR [eax+ecx], 0

; 549  : 	}

  00018	c2 04 00	 ret	 4
$L230088:
  0001b	68 57 00 07 80	 push	 -2147024809		; 80070057H
  00020	e8 00 00 00 00	 call	 ?AtlThrow@ATL@@YGXJ@Z	; ATL::AtlThrow
$L230091:
$L230090:
  00025	cc		 int	 3
?ReleaseBufferSetLength@?$CSimpleStringT@D$0A@@ATL@@QAEXH@Z ENDP ; ATL::CSimpleStringT<char,0>::ReleaseBufferSetLength
_TEXT	ENDS
PUBLIC	?PrepareWrite2@?$CSimpleStringT@D$0A@@ATL@@AAEXH@Z ; ATL::CSimpleStringT<char,0>::PrepareWrite2
; Function compile flags: /Ogty
;	COMDAT ?PrepareWrite2@?$CSimpleStringT@D$0A@@ATL@@AAEXH@Z
_TEXT	SEGMENT
_nLength$ = 8						; size = 4
?PrepareWrite2@?$CSimpleStringT@D$0A@@ATL@@AAEXH@Z PROC NEAR ; ATL::CSimpleStringT<char,0>::PrepareWrite2, COMDAT
; _this$ = ecx

; 747  : 		CStringData* pOldData = GetData();

  00000	8b 01		 mov	 eax, DWORD PTR [ecx]

; 748  : 		if( pOldData->nDataLength > nLength )

  00002	8b 54 24 04	 mov	 edx, DWORD PTR _nLength$[esp-4]
  00006	83 e8 10	 sub	 eax, 16			; 00000010H
  00009	56		 push	 esi
  0000a	8b 70 04	 mov	 esi, DWORD PTR [eax+4]
  0000d	3b f2		 cmp	 esi, edx
  0000f	7e 02		 jle	 SHORT $L221345

; 749  : 		{
; 750  : 			nLength = pOldData->nDataLength;

  00011	8b d6		 mov	 edx, esi
$L221345:

; 751  : 		}
; 752  : 		if( pOldData->IsShared() )

  00013	83 78 0c 01	 cmp	 DWORD PTR [eax+12], 1
  00017	5e		 pop	 esi
  00018	7e 09		 jle	 SHORT $L221346

; 753  : 		{
; 754  : 			Fork( nLength );

  0001a	89 54 24 04	 mov	 DWORD PTR _nLength$[esp-4], edx
  0001e	e9 00 00 00 00	 jmp	 ?Fork@?$CSimpleStringT@D$0A@@ATL@@AAEXH@Z ; ATL::CSimpleStringT<char,0>::Fork
$L221346:

; 755  : 		}
; 756  : 		else if( pOldData->nAllocLength < nLength )

  00023	8b 40 08	 mov	 eax, DWORD PTR [eax+8]
  00026	3b c2		 cmp	 eax, edx
  00028	7d 1f		 jge	 SHORT $L221348

; 757  : 		{
; 758  : 			// Grow exponentially, until we hit 1K.
; 759  : 			int nNewLength = pOldData->nAllocLength;
; 760  : 			if( nNewLength > 1024 )

  0002a	3d 00 04 00 00	 cmp	 eax, 1024		; 00000400H
  0002f	7e 07		 jle	 SHORT $L221350

; 761  : 			{
; 762  : 				nNewLength += 1024;

  00031	05 00 04 00 00	 add	 eax, 1024		; 00000400H

; 763  : 			}
; 764  : 			else

  00036	eb 02		 jmp	 SHORT $L221351
$L221350:

; 765  : 			{
; 766  : 				nNewLength *= 2;

  00038	03 c0		 add	 eax, eax
$L221351:

; 767  : 			}
; 768  : 			if( nNewLength < nLength )

  0003a	3b c2		 cmp	 eax, edx
  0003c	7d 02		 jge	 SHORT $L221352

; 769  : 			{
; 770  : 				nNewLength = nLength;

  0003e	8b c2		 mov	 eax, edx
$L221352:

; 771  : 			}
; 772  : 			Reallocate( nNewLength );

  00040	89 44 24 04	 mov	 DWORD PTR _nLength$[esp-4], eax
  00044	e9 00 00 00 00	 jmp	 ?Reallocate@?$CSimpleStringT@D$0A@@ATL@@AAEXH@Z ; ATL::CSimpleStringT<char,0>::Reallocate
$L221348:

; 773  : 		}
; 774  : 	}

  00049	c2 04 00	 ret	 4
?PrepareWrite2@?$CSimpleStringT@D$0A@@ATL@@AAEXH@Z ENDP	; ATL::CSimpleStringT<char,0>::PrepareWrite2
_TEXT	ENDS
PUBLIC	??0?$CStringT@DV?$StrTraitMFC@DV?$ChTraitsCRT@D@ATL@@@@@ATL@@QAE@XZ ; ATL::CStringT<char,StrTraitMFC<char,ATL::ChTraitsCRT<char> > >::CStringT<char,StrTraitMFC<char,ATL::ChTraitsCRT<char> > >
; Function compile flags: /Ogty
; File c:\program files\microsoft visual studio .net 2003\vc7\atlmfc\include\cstringt.h
;	COMDAT ??0?$CStringT@DV?$StrTraitMFC@DV?$ChTraitsCRT@D@ATL@@@@@ATL@@QAE@XZ
_TEXT	SEGMENT
??0?$CStringT@DV?$StrTraitMFC@DV?$ChTraitsCRT@D@ATL@@@@@ATL@@QAE@XZ PROC NEAR ; ATL::CStringT<char,StrTraitMFC<char,ATL::ChTraitsCRT<char> > >::CStringT<char,StrTraitMFC<char,ATL::ChTraitsCRT<char> > >, COMDAT
; _this$ = ecx

; 796  : 	{

  00000	56		 push	 esi
  00001	8b f1		 mov	 esi, ecx
  00003	e8 00 00 00 00	 call	 ?AfxGetStringManager@@YGPAUIAtlStringMgr@ATL@@XZ ; AfxGetStringManager
  00008	8b 10		 mov	 edx, DWORD PTR [eax]
  0000a	8b c8		 mov	 ecx, eax
  0000c	ff 52 0c	 call	 DWORD PTR [edx+12]
  0000f	83 c0 10	 add	 eax, 16			; 00000010H
  00012	89 06		 mov	 DWORD PTR [esi], eax

; 797  : 	}

  00014	8b c6		 mov	 eax, esi
  00016	5e		 pop	 esi
  00017	c3		 ret	 0
??0?$CStringT@DV?$StrTraitMFC@DV?$ChTraitsCRT@D@ATL@@@@@ATL@@QAE@XZ ENDP ; ATL::CStringT<char,StrTraitMFC<char,ATL::ChTraitsCRT<char> > >::CStringT<char,StrTraitMFC<char,ATL::ChTraitsCRT<char> > >
_TEXT	ENDS
PUBLIC	??1?$CStringT@DV?$StrTraitMFC@DV?$ChTraitsCRT@D@ATL@@@@@ATL@@QAE@XZ ; ATL::CStringT<char,StrTraitMFC<char,ATL::ChTraitsCRT<char> > >::~CStringT<char,StrTraitMFC<char,ATL::ChTraitsCRT<char> > >
; Function compile flags: /Ogty
;	COMDAT ??1?$CStringT@DV?$StrTraitMFC@DV?$ChTraitsCRT@D@ATL@@@@@ATL@@QAE@XZ
_TEXT	SEGMENT
??1?$CStringT@DV?$StrTraitMFC@DV?$ChTraitsCRT@D@ATL@@@@@ATL@@QAE@XZ PROC NEAR ; ATL::CStringT<char,StrTraitMFC<char,ATL::ChTraitsCRT<char> > >::~CStringT<char,StrTraitMFC<char,ATL::ChTraitsCRT<char> > >, COMDAT
; _this$ = ecx

; 963  : 	}

  00000	8b 01		 mov	 eax, DWORD PTR [ecx]
  00002	83 e8 10	 sub	 eax, 16			; 00000010H
  00005	8d 48 0c	 lea	 ecx, DWORD PTR [eax+12]
  00008	83 ca ff	 or	 edx, -1
  0000b	f0 0f c1 11	 lock	  xadd	 DWORD PTR [ecx], edx
  0000f	4a		 dec	 edx
  00010	85 d2		 test	 edx, edx
  00012	7f 08		 jg	 SHORT $L230140
  00014	8b 08		 mov	 ecx, DWORD PTR [eax]
  00016	8b 11		 mov	 edx, DWORD PTR [ecx]
  00018	50		 push	 eax
  00019	ff 52 04	 call	 DWORD PTR [edx+4]
$L230140:
  0001c	c3		 ret	 0
??1?$CStringT@DV?$StrTraitMFC@DV?$ChTraitsCRT@D@ATL@@@@@ATL@@QAE@XZ ENDP ; ATL::CStringT<char,StrTraitMFC<char,ATL::ChTraitsCRT<char> > >::~CStringT<char,StrTraitMFC<char,ATL::ChTraitsCRT<char> > >
_TEXT	ENDS
PUBLIC	?PrepareWrite@?$CSimpleStringT@D$0A@@ATL@@AAEPADH@Z ; ATL::CSimpleStringT<char,0>::PrepareWrite
; Function compile flags: /Ogty
; File c:\program files\microsoft visual studio .net 2003\vc7\atlmfc\include\atlsimpstr.h
;	COMDAT ?PrepareWrite@?$CSimpleStringT@D$0A@@ATL@@AAEPADH@Z
_TEXT	SEGMENT
_nLength$ = 8						; size = 4
?PrepareWrite@?$CSimpleStringT@D$0A@@ATL@@AAEPADH@Z PROC NEAR ; ATL::CSimpleStringT<char,0>::PrepareWrite, COMDAT
; _this$ = ecx

; 734  : 	{

  00000	56		 push	 esi
  00001	8b f1		 mov	 esi, ecx

; 735  : 		CStringData* pOldData = GetData();

  00003	8b 06		 mov	 eax, DWORD PTR [esi]

; 736  : 		int nShared = 1-pOldData->nRefs;  // nShared < 0 means true, >= 0 means false

  00005	8b 50 fc	 mov	 edx, DWORD PTR [eax-4]
  00008	83 e8 10	 sub	 eax, 16			; 00000010H
  0000b	b9 01 00 00 00	 mov	 ecx, 1
  00010	2b ca		 sub	 ecx, edx

; 737  : 		int nTooShort = pOldData->nAllocLength-nLength;  // nTooShort < 0 means true, >= 0 means false

  00012	8b 50 08	 mov	 edx, DWORD PTR [eax+8]
  00015	8b 44 24 08	 mov	 eax, DWORD PTR _nLength$[esp]
  00019	2b d0		 sub	 edx, eax

; 738  : 		if( (nShared|nTooShort) < 0 )  // If either sign bit is set (i.e. either is less than zero), we need to copy data

  0001b	0b ca		 or	 ecx, edx
  0001d	7d 08		 jge	 SHORT $L230149

; 739  : 		{
; 740  : 			PrepareWrite2( nLength );

  0001f	50		 push	 eax
  00020	8b ce		 mov	 ecx, esi
  00022	e8 00 00 00 00	 call	 ?PrepareWrite2@?$CSimpleStringT@D$0A@@ATL@@AAEXH@Z ; ATL::CSimpleStringT<char,0>::PrepareWrite2
$L230149:

; 741  : 		}
; 742  : 
; 743  : 		return( m_pszData );

  00027	8b 06		 mov	 eax, DWORD PTR [esi]
  00029	5e		 pop	 esi

; 744  : 	}

  0002a	c2 04 00	 ret	 4
?PrepareWrite@?$CSimpleStringT@D$0A@@ATL@@AAEPADH@Z ENDP ; ATL::CSimpleStringT<char,0>::PrepareWrite
_TEXT	ENDS
PUBLIC	?GetBuffer@?$CSimpleStringT@D$0A@@ATL@@QAEPADH@Z ; ATL::CSimpleStringT<char,0>::GetBuffer
; Function compile flags: /Ogty
;	COMDAT ?GetBuffer@?$CSimpleStringT@D$0A@@ATL@@QAEPADH@Z
_TEXT	SEGMENT
_nMinBufferLength$ = 8					; size = 4
?GetBuffer@?$CSimpleStringT@D$0A@@ATL@@QAEPADH@Z PROC NEAR ; ATL::CSimpleStringT<char,0>::GetBuffer, COMDAT
; _this$ = ecx

; 489  : 	{

  00000	56		 push	 esi
  00001	8b f1		 mov	 esi, ecx

; 490  : 		return( PrepareWrite( nMinBufferLength ) );

  00003	8b 06		 mov	 eax, DWORD PTR [esi]
  00005	8b 50 fc	 mov	 edx, DWORD PTR [eax-4]
  00008	83 e8 10	 sub	 eax, 16			; 00000010H
  0000b	b9 01 00 00 00	 mov	 ecx, 1
  00010	2b ca		 sub	 ecx, edx
  00012	8b 50 08	 mov	 edx, DWORD PTR [eax+8]
  00015	8b 44 24 08	 mov	 eax, DWORD PTR _nMinBufferLength$[esp]
  00019	2b d0		 sub	 edx, eax
  0001b	0b ca		 or	 ecx, edx
  0001d	7d 08		 jge	 SHORT $L230166
  0001f	50		 push	 eax
  00020	8b ce		 mov	 ecx, esi
  00022	e8 00 00 00 00	 call	 ?PrepareWrite2@?$CSimpleStringT@D$0A@@ATL@@AAEXH@Z ; ATL::CSimpleStringT<char,0>::PrepareWrite2
$L230166:
  00027	8b 06		 mov	 eax, DWORD PTR [esi]
  00029	5e		 pop	 esi

; 491  : 	}

  0002a	c2 04 00	 ret	 4
?GetBuffer@?$CSimpleStringT@D$0A@@ATL@@QAEPADH@Z ENDP	; ATL::CSimpleStringT<char,0>::GetBuffer
_TEXT	ENDS
PUBLIC	?FormatV@?$CStringT@DV?$StrTraitMFC@DV?$ChTraitsCRT@D@ATL@@@@@ATL@@QAEXPBDPAD@Z ; ATL::CStringT<char,StrTraitMFC<char,ATL::ChTraitsCRT<char> > >::FormatV
; Function compile flags: /Ogty
; File c:\program files\microsoft visual studio .net 2003\vc7\atlmfc\include\cstringt.h
;	COMDAT ?FormatV@?$CStringT@DV?$StrTraitMFC@DV?$ChTraitsCRT@D@ATL@@@@@ATL@@QAEXPBDPAD@Z
_TEXT	SEGMENT
_pszFormat$ = 8						; size = 4
_args$ = 12						; size = 4
?FormatV@?$CStringT@DV?$StrTraitMFC@DV?$ChTraitsCRT@D@ATL@@@@@ATL@@QAEXPBDPAD@Z PROC NEAR ; ATL::CStringT<char,StrTraitMFC<char,ATL::ChTraitsCRT<char> > >::FormatV, COMDAT
; _this$ = ecx

; 1855 : 	{

  00000	53		 push	 ebx

; 1856 : 		ATLASSERT( AtlIsValidString( pszFormat ) );
; 1857 : 		if(pszFormat == NULL)

  00001	8b 5c 24 08	 mov	 ebx, DWORD PTR _pszFormat$[esp]
  00005	85 db		 test	 ebx, ebx
  00007	57		 push	 edi
  00008	8b f9		 mov	 edi, ecx
  0000a	75 0a		 jne	 SHORT $L228660

; 1858 : 			AtlThrow(E_INVALIDARG);

  0000c	68 57 00 07 80	 push	 -2147024809		; 80070057H
  00011	e8 00 00 00 00	 call	 ?AtlThrow@ATL@@YGXJ@Z	; ATL::AtlThrow
$L230230:
$L228660:
  00016	55		 push	 ebp

; 1859 : 
; 1860 : 		int nLength = StringTraits::GetFormattedLength( pszFormat, args );

  00017	8b 6c 24 14	 mov	 ebp, DWORD PTR _args$[esp+8]
  0001b	56		 push	 esi
  0001c	55		 push	 ebp
  0001d	53		 push	 ebx
  0001e	e8 00 00 00 00	 call	 __vscprintf
  00023	8b f0		 mov	 esi, eax

; 1861 : 		PXSTR pszBuffer = GetBuffer( nLength );

  00025	8b 07		 mov	 eax, DWORD PTR [edi]
  00027	8b 50 fc	 mov	 edx, DWORD PTR [eax-4]
  0002a	83 e8 10	 sub	 eax, 16			; 00000010H
  0002d	b9 01 00 00 00	 mov	 ecx, 1
  00032	2b ca		 sub	 ecx, edx
  00034	8b 50 08	 mov	 edx, DWORD PTR [eax+8]
  00037	2b d6		 sub	 edx, esi
  00039	83 c4 08	 add	 esp, 8
  0003c	0b ca		 or	 ecx, edx
  0003e	7d 08		 jge	 SHORT $L230196
  00040	56		 push	 esi
  00041	8b cf		 mov	 ecx, edi
  00043	e8 00 00 00 00	 call	 ?PrepareWrite2@?$CSimpleStringT@D$0A@@ATL@@AAEXH@Z ; ATL::CSimpleStringT<char,0>::PrepareWrite2
$L230196:

; 1862 : 		StringTraits::Format( pszBuffer, pszFormat, args );

  00048	8b 07		 mov	 eax, DWORD PTR [edi]
  0004a	55		 push	 ebp
  0004b	53		 push	 ebx
  0004c	50		 push	 eax
  0004d	e8 00 00 00 00	 call	 _vsprintf
  00052	83 c4 0c	 add	 esp, 12			; 0000000cH

; 1863 : 		ReleaseBufferSetLength( nLength );

  00055	85 f6		 test	 esi, esi
  00057	7c 17		 jl	 SHORT $L230226
  00059	8b 07		 mov	 eax, DWORD PTR [edi]
  0005b	3b 70 f8	 cmp	 esi, DWORD PTR [eax-8]
  0005e	7f 10		 jg	 SHORT $L230226
  00060	89 70 f4	 mov	 DWORD PTR [eax-12], esi
  00063	8b 0f		 mov	 ecx, DWORD PTR [edi]
  00065	c6 04 0e 00	 mov	 BYTE PTR [esi+ecx], 0
  00069	5e		 pop	 esi
  0006a	5d		 pop	 ebp
  0006b	5f		 pop	 edi
  0006c	5b		 pop	 ebx

; 1864 : 	}

  0006d	c2 08 00	 ret	 8
$L230226:
  00070	68 57 00 07 80	 push	 -2147024809		; 80070057H
  00075	e8 00 00 00 00	 call	 ?AtlThrow@ATL@@YGXJ@Z	; ATL::AtlThrow
$L230231:
$L230229:
  0007a	cc		 int	 3
?FormatV@?$CStringT@DV?$StrTraitMFC@DV?$ChTraitsCRT@D@ATL@@@@@ATL@@QAEXPBDPAD@Z ENDP ; ATL::CStringT<char,StrTraitMFC<char,ATL::ChTraitsCRT<char> > >::FormatV
_TEXT	ENDS
PUBLIC	?Format@?$CStringT@DV?$StrTraitMFC@DV?$ChTraitsCRT@D@ATL@@@@@ATL@@QAAXPBDZZ ; ATL::CStringT<char,StrTraitMFC<char,ATL::ChTraitsCRT<char> > >::Format
; Function compile flags: /Ogty
;	COMDAT ?Format@?$CStringT@DV?$StrTraitMFC@DV?$ChTraitsCRT@D@ATL@@@@@ATL@@QAAXPBDZZ
_TEXT	SEGMENT
_this$ = 8						; size = 4
_pszFormat$ = 12					; size = 4
?Format@?$CStringT@DV?$StrTraitMFC@DV?$ChTraitsCRT@D@ATL@@@@@ATL@@QAAXPBDZZ PROC NEAR ; ATL::CStringT<char,StrTraitMFC<char,ATL::ChTraitsCRT<char> > >::Format, COMDAT

; 1796 : 		ATLASSERT( AtlIsValidString( pszFormat ) );
; 1797 : 		
; 1798 : 		va_list argList;
; 1799 : 		va_start( argList, pszFormat );
; 1800 : 		FormatV( pszFormat, argList );

  00000	8b 4c 24 08	 mov	 ecx, DWORD PTR _pszFormat$[esp-4]
  00004	8d 44 24 0c	 lea	 eax, DWORD PTR _pszFormat$[esp]
  00008	50		 push	 eax
  00009	51		 push	 ecx
  0000a	8b 4c 24 0c	 mov	 ecx, DWORD PTR _this$[esp+4]
  0000e	e8 00 00 00 00	 call	 ?FormatV@?$CStringT@DV?$StrTraitMFC@DV?$ChTraitsCRT@D@ATL@@@@@ATL@@QAEXPBDPAD@Z ; ATL::CStringT<char,StrTraitMFC<char,ATL::ChTraitsCRT<char> > >::FormatV

; 1801 : 		va_end( argList );
; 1802 : 	}

  00013	c3		 ret	 0
?Format@?$CStringT@DV?$StrTraitMFC@DV?$ChTraitsCRT@D@ATL@@@@@ATL@@QAAXPBDZZ ENDP ; ATL::CStringT<char,StrTraitMFC<char,ATL::ChTraitsCRT<char> > >::Format
_TEXT	ENDS
PUBLIC	??_C@_0CO@POCBHHIE@?$CFs?$CI?$CFd?$CJ?5?3?5MoverID?$DN?$CFd?5BATTLE?5?$LM?$LN?E?M?$LK@ ; `string'
PUBLIC	??_C@_06FDAMAAOH@Attack?$AA@			; `string'
PUBLIC	??_C@_07EAMOHMIH@cunning?$AA@			; `string'
PUBLIC	??_C@_03IMLOALHE@low?$AA@			; `string'
PUBLIC	??_C@_03JOEFDEFC@Sam?$AA@			; `string'
PUBLIC	??_C@_02MKAICKHL@Hi?$AA@			; `string'
PUBLIC	??_C@_08ENEHKLFG@Recovery?$AA@			; `string'
PUBLIC	??_C@_01OMGOGALD@u?$AA@				; `string'
PUBLIC	??_C@_01GOHFPIOK@m?$AA@				; `string'
PUBLIC	??_C@_0M@JLIIOCOM@RangeAttack?$AA@		; `string'
PUBLIC	??_C@_0BA@LLHANEDJ@KeepRangeAttack?$AA@		; `string'
PUBLIC	??_C@_06DLFKBJMP@Summon?$AA@			; `string'
PUBLIC	??_C@_05LDPELMJE@Evade?$AA@			; `string'
PUBLIC	??_C@_06CJKGKNBJ@Helper?$AA@			; `string'
PUBLIC	??_C@_03NFKEKGGK@all?$AA@			; `string'
PUBLIC	??_C@_03DOHHJLGM@sam?$AA@			; `string'
PUBLIC	??_C@_07NPHLJPC@Berserk?$AA@			; `string'
PUBLIC	??_C@_0N@MDBDBIOA@Randomtarget?$AA@		; `string'
PUBLIC	??_C@_0BP@IMGBJKKL@?$LM?R?H?$KP?G?R?$LM?v?5?$MA?V?$LE?B?5?$LA?$LD?$LM?v?$LA?$KB?5?$LD?J?$LJ?$KL?5?$LI?$LJ?$LE?Y?$AA@ ; `string'
PUBLIC	??_C@_0BK@IFOEIIPC@?$CFs?$CI?$CFd?$CJ?5?3?5MoverID?$DN?$CFd?5?$CFs?5?$CFs?$AA@ ; `string'
PUBLIC	??_C@_0DC@EACAAEFB@?$CFs?$CI?$CFd?$CJ?5?3?5MoverID?$DN?$CFd?5?A?v?A?$KE?$LF?G?A?v?5?$LO?J?$MA@ ; `string'
PUBLIC	??_C@_0CH@ICOKIFCB@?A?v?A?$KE?$LF?H?5?$LI?s?$LN?$LK?E?M?5?$LO?F?$MA?L?$LF?p?$LA?$KB?5?G?A?$LH?N?F?$NL?F?$LM?$LP@ ; `string'
PUBLIC	??_C@_0DG@EGDLGKJJ@Berserk?$LI?m?$LH?I?$MA?G?5?$LF?$KF?$LJ?L?A?v?$LJ?h?$LM?v?$MA?G?5?$LJ?$PM?$MA?$KH?$LA@ ; `string'
PUBLIC	?LoadPropMoverEx_AI_BATTLE@CProject@@QAEHPBDAAVCScript@@H@Z ; CProject::LoadPropMoverEx_AI_BATTLE
PUBLIC	??_C@_01MCMALHOG@a?$AA@				; `string'
PUBLIC	__real@00000000
PUBLIC	__real@41a00000
EXTRN	?GetFloat@CScanner@@QAEMH@Z:NEAR		; CScanner::GetFloat
EXTRN	__except_list:DWORD
EXTRN	__fltused:NEAR
EXTRN	___CxxFrameHandler:NEAR
;	COMDAT xdata$x
; File c:\program files\microsoft visual studio .net 2003\vc7\atlmfc\include\atlsimpstr.h
xdata$x	SEGMENT
$T230281 DD	0ffffffffH
	DD	FLAT:$L230238
$T230261 DD	019930520H
	DD	01H
	DD	FLAT:$T230281
	DD	2 DUP(00H)
	DD	2 DUP(00H)
xdata$x	ENDS
;	COMDAT ??_C@_0CO@POCBHHIE@?$CFs?$CI?$CFd?$CJ?5?3?5MoverID?$DN?$CFd?5BATTLE?5?$LM?$LN?E?M?$LK@
CONST	SEGMENT
??_C@_0CO@POCBHHIE@?$CFs?$CI?$CFd?$CJ?5?3?5MoverID?$DN?$CFd?5BATTLE?5?$LM?$LN?E?M?$LK@ DB '%'
	DB	's(%d) : MoverID=%d BATTLE ', 0bcH, 0bdH, 0c5H, 0cdH, 0baH, 0edH
	DB	0b7H, 0b0H, ' { ', 0baH, 0fcH, 0c1H, 0b3H, 0c0H, 0bdH, '.', 00H ; `string'
CONST	ENDS
;	COMDAT ??_C@_06FDAMAAOH@Attack?$AA@
CONST	SEGMENT
??_C@_06FDAMAAOH@Attack?$AA@ DB 'Attack', 00H		; `string'
CONST	ENDS
;	COMDAT ??_C@_07EAMOHMIH@cunning?$AA@
CONST	SEGMENT
??_C@_07EAMOHMIH@cunning?$AA@ DB 'cunning', 00H		; `string'
CONST	ENDS
;	COMDAT ??_C@_03IMLOALHE@low?$AA@
CONST	SEGMENT
??_C@_03IMLOALHE@low?$AA@ DB 'low', 00H			; `string'
CONST	ENDS
;	COMDAT ??_C@_03JOEFDEFC@Sam?$AA@
CONST	SEGMENT
??_C@_03JOEFDEFC@Sam?$AA@ DB 'Sam', 00H			; `string'
CONST	ENDS
;	COMDAT ??_C@_02MKAICKHL@Hi?$AA@
CONST	SEGMENT
??_C@_02MKAICKHL@Hi?$AA@ DB 'Hi', 00H			; `string'
CONST	ENDS
;	COMDAT ??_C@_08ENEHKLFG@Recovery?$AA@
CONST	SEGMENT
??_C@_08ENEHKLFG@Recovery?$AA@ DB 'Recovery', 00H	; `string'
CONST	ENDS
;	COMDAT ??_C@_01OMGOGALD@u?$AA@
CONST	SEGMENT
??_C@_01OMGOGALD@u?$AA@ DB 'u', 00H			; `string'
CONST	ENDS
;	COMDAT ??_C@_01GOHFPIOK@m?$AA@
CONST	SEGMENT
??_C@_01GOHFPIOK@m?$AA@ DB 'm', 00H			; `string'
CONST	ENDS
;	COMDAT ??_C@_01MCMALHOG@a?$AA@
CONST	SEGMENT
??_C@_01MCMALHOG@a?$AA@ DB 'a', 00H			; `string'
CONST	ENDS
;	COMDAT ??_C@_0M@JLIIOCOM@RangeAttack?$AA@
CONST	SEGMENT
??_C@_0M@JLIIOCOM@RangeAttack?$AA@ DB 'RangeAttack', 00H ; `string'
CONST	ENDS
;	COMDAT ??_C@_0BA@LLHANEDJ@KeepRangeAttack?$AA@
CONST	SEGMENT
??_C@_0BA@LLHANEDJ@KeepRangeAttack?$AA@ DB 'KeepRangeAttack', 00H ; `string'
CONST	ENDS
;	COMDAT ??_C@_06DLFKBJMP@Summon?$AA@
CONST	SEGMENT
??_C@_06DLFKBJMP@Summon?$AA@ DB 'Summon', 00H		; `string'
CONST	ENDS
;	COMDAT ??_C@_05LDPELMJE@Evade?$AA@
CONST	SEGMENT
??_C@_05LDPELMJE@Evade?$AA@ DB 'Evade', 00H		; `string'
CONST	ENDS
;	COMDAT ??_C@_06CJKGKNBJ@Helper?$AA@
CONST	SEGMENT
??_C@_06CJKGKNBJ@Helper?$AA@ DB 'Helper', 00H		; `string'
CONST	ENDS
;	COMDAT ??_C@_03NFKEKGGK@all?$AA@
CONST	SEGMENT
??_C@_03NFKEKGGK@all?$AA@ DB 'all', 00H			; `string'
CONST	ENDS
;	COMDAT ??_C@_03DOHHJLGM@sam?$AA@
CONST	SEGMENT
??_C@_03DOHHJLGM@sam?$AA@ DB 'sam', 00H			; `string'
CONST	ENDS
;	COMDAT ??_C@_07NPHLJPC@Berserk?$AA@
CONST	SEGMENT
??_C@_07NPHLJPC@Berserk?$AA@ DB 'Berserk', 00H		; `string'
CONST	ENDS
;	COMDAT ??_C@_0N@MDBDBIOA@Randomtarget?$AA@
CONST	SEGMENT
??_C@_0N@MDBDBIOA@Randomtarget?$AA@ DB 'Randomtarget', 00H ; `string'
CONST	ENDS
;	COMDAT ??_C@_0BP@IMGBJKKL@?$LM?R?H?$KP?G?R?$LM?v?5?$MA?V?$LE?B?5?$LA?$LD?$LM?v?$LA?$KB?5?$LD?J?$LJ?$KL?5?$LI?$LJ?$LE?Y?$AA@
CONST	SEGMENT
??_C@_0BP@IMGBJKKL@?$LM?R?H?$KP?G?R?$LM?v?5?$MA?V?$LE?B?5?$LA?$LD?$LM?v?$LA?$KB?5?$LD?J?$LJ?$KL?5?$LI?$LJ?$LE?Y?$AA@ DB 0bcH
	DB	0d2H, 0c8H, 0afH, 0c7H, 0d2H, 0bcH, 0f6H, ' ', 0c0H, 0d6H, 0b4H
	DB	0c2H, ' ', 0b0H, 0b3H, 0bcH, 0f6H, 0b0H, 0a1H, ' ', 0b3H, 0caH
	DB	0b9H, 0abH, ' ', 0b8H, 0b9H, 0b4H, 0d9H, 00H	; `string'
CONST	ENDS
;	COMDAT ??_C@_0BK@IFOEIIPC@?$CFs?$CI?$CFd?$CJ?5?3?5MoverID?$DN?$CFd?5?$CFs?5?$CFs?$AA@
CONST	SEGMENT
??_C@_0BK@IFOEIIPC@?$CFs?$CI?$CFd?$CJ?5?3?5MoverID?$DN?$CFd?5?$CFs?5?$CFs?$AA@ DB '%'
	DB	's(%d) : MoverID=%d %s %s', 00H		; `string'
CONST	ENDS
;	COMDAT ??_C@_0DC@EACAAEFB@?$CFs?$CI?$CFd?$CJ?5?3?5MoverID?$DN?$CFd?5?A?v?A?$KE?$LF?G?A?v?5?$LO?J?$MA@
CONST	SEGMENT
??_C@_0DC@EACAAEFB@?$CFs?$CI?$CFd?$CJ?5?3?5MoverID?$DN?$CFd?5?A?v?A?$KE?$LF?G?A?v?5?$LO?J?$MA@ DB '%'
	DB	's(%d) : MoverID=%d ', 0c1H, 0f6H, 0c1H, 0a4H, 0b5H, 0c7H, 0c1H
	DB	0f6H, ' ', 0beH, 0caH, 0c0H, 0baH, ' ', 0b5H, 0f0H, 0c6H, 0c4H
	DB	0c0H, 0ceH, ' error %s', 00H			; `string'
CONST	ENDS
;	COMDAT ??_C@_0CH@ICOKIFCB@?A?v?A?$KE?$LF?H?5?$LI?s?$LN?$LK?E?M?5?$LO?F?$MA?L?$LF?p?$LA?$KB?5?G?A?$LH?N?F?$NL?F?$LM?$LP@
CONST	SEGMENT
??_C@_0CH@ICOKIFCB@?A?v?A?$KE?$LF?H?5?$LI?s?$LN?$LK?E?M?5?$LO?F?$MA?L?$LF?p?$LA?$KB?5?G?A?$LH?N?F?$NL?F?$LM?$LP@ DB 0c1H
	DB	0f6H, 0c1H, 0a4H, 0b5H, 0c8H, ' ', 0b8H, 0f3H, 0bdH, 0baH, 0c5H
	DB	0cdH, ' ', 0beH, 0c6H, 0c0H, 0ccH, 0b5H, 0f0H, 0b0H, 0a1H, ' ', 0c7H
	DB	0c1H, 0b7H, 0ceH, 0c6H, 0dbH, 0c6H, 0bcH, 0bfH, 0a1H, ' ', 0beH
	DB	0f8H, 0c0H, 0bdH, 00H			; `string'
CONST	ENDS
;	COMDAT __real@00000000
CONST	SEGMENT
__real@00000000 DD 000000000r			; 0
CONST	ENDS
;	COMDAT __real@41a00000
CONST	SEGMENT
__real@41a00000 DD 041a00000r			; 20
CONST	ENDS
;	COMDAT ??_C@_0DG@EGDLGKJJ@Berserk?$LI?m?$LH?I?$MA?G?5?$LF?$KF?$LJ?L?A?v?$LJ?h?$LM?v?$MA?G?5?$LJ?$PM?$MA?$KH?$LA@
CONST	SEGMENT
??_C@_0DG@EGDLGKJJ@Berserk?$LI?m?$LH?I?$MA?G?5?$LF?$KF?$LJ?L?A?v?$LJ?h?$LM?v?$MA?G?5?$LJ?$PM?$MA?$KH?$LA@ DB 'B'
	DB	'erserk', 0b8H, 0edH, 0b7H, 0c9H, 0c0H, 0c7H, ' ', 0b5H, 0a5H, 0b9H
	DB	0ccH, 0c1H, 0f6H, 0b9H, 0e8H, 0bcH, 0f6H, 0c0H, 0c7H, ' ', 0b9H
	DB	0fcH, 0c0H, 0a7H, 0b0H, 0a1H, ' ', 0c0H, 0ccH, 0bbH, 0f3H, 0c7H
	DB	0d1H, 0b0H, 0c5H, ' ', 0b0H, 0b0H, 0c0H, 0baH, 0b5H, 0f0H, '? '
	DB	'%f', 00H					; `string'
; Function compile flags: /Ogty
; File c:\documents and settings\test\mes documents\source\virtuos_v17\build\program\_common\projectlux.cpp
CONST	ENDS
;	COMDAT ?LoadPropMoverEx_AI_BATTLE@CProject@@QAEHPBDAAVCScript@@H@Z
_TEXT	SEGMENT
_this$ = -16						; size = 4
__$EHRec$ = -12						; size = 12
_str$228518 = 8						; size = 4
_szFileName$ = 8					; size = 4
_script$ = 12						; size = 4
_nVal$ = 16						; size = 4
?LoadPropMoverEx_AI_BATTLE@CProject@@QAEHPBDAAVCScript@@H@Z PROC NEAR ; CProject::LoadPropMoverEx_AI_BATTLE, COMDAT
; _this$ = ecx

; 111  : {

  00000	6a ff		 push	 -1
  00002	68 00 00 00 00	 push	 __ehhandler$?LoadPropMoverEx_AI_BATTLE@CProject@@QAEHPBDAAVCScript@@H@Z
  00007	64 a1 00 00 00
	00		 mov	 eax, DWORD PTR fs:__except_list
  0000d	50		 push	 eax
  0000e	64 89 25 00 00
	00 00		 mov	 DWORD PTR fs:__except_list, esp
  00015	51		 push	 ecx
  00016	53		 push	 ebx
  00017	55		 push	 ebp
  00018	56		 push	 esi

; 112  : 	AICMD nCommand = AICMD_NONE;
; 113  : 
; 114  : 	script.GetToken();	// {

  00019	8b 74 24 24	 mov	 esi, DWORD PTR _script$[esp+24]
  0001d	8b 06		 mov	 eax, DWORD PTR [esi]
  0001f	8b d9		 mov	 ebx, ecx
  00021	33 ed		 xor	 ebp, ebp
  00023	55		 push	 ebp
  00024	8b ce		 mov	 ecx, esi
  00026	89 5c 24 10	 mov	 DWORD PTR _this$[esp+32], ebx
  0002a	ff 50 14	 call	 DWORD PTR [eax+20]

; 115  : 	if( script.token[0] != '{' )	// #BATTLE  { .

  0002d	8b 4e 24	 mov	 ecx, DWORD PTR [esi+36]
  00030	80 39 7b	 cmp	 BYTE PTR [ecx], 123	; 0000007bH
  00033	74 36		 je	 SHORT $L230246

; 116  : 	{
; 117  : 		Error( "%s(%d) : MoverID=%d BATTLE  { .", szFileName, script.GetLineNum(), nVal );

  00035	8b 54 24 28	 mov	 edx, DWORD PTR _nVal$[esp+24]
  00039	8b 06		 mov	 eax, DWORD PTR [esi]
  0003b	52		 push	 edx
  0003c	55		 push	 ebp
  0003d	8b ce		 mov	 ecx, esi
  0003f	ff 50 1c	 call	 DWORD PTR [eax+28]
  00042	8b 4c 24 24	 mov	 ecx, DWORD PTR _szFileName$[esp+28]
  00046	50		 push	 eax
  00047	51		 push	 ecx
  00048	68 00 00 00 00	 push	 OFFSET FLAT:??_C@_0CO@POCBHHIE@?$CFs?$CI?$CFd?$CJ?5?3?5MoverID?$DN?$CFd?5BATTLE?5?$LM?$LN?E?M?$LK@
  0004d	e8 00 00 00 00	 call	 ?Error@@YAPBDPBDZZ	; Error
  00052	83 c4 10	 add	 esp, 16			; 00000010H
  00055	5e		 pop	 esi
  00056	5d		 pop	 ebp

; 118  : 		return FALSE;

  00057	33 c0		 xor	 eax, eax
  00059	5b		 pop	 ebx

; 354  : 			}
; 355  : 		}
; 356  : 		
; 357  : 	}
; 358  : 	
; 359  : 	return TRUE;
; 360  : }

  0005a	8b 4c 24 04	 mov	 ecx, DWORD PTR __$EHRec$[esp+16]
  0005e	64 89 0d 00 00
	00 00		 mov	 DWORD PTR fs:__except_list, ecx
  00065	83 c4 10	 add	 esp, 16			; 00000010H
  00068	c2 0c 00	 ret	 12			; 0000000cH

; 119  : 	}
; 120  : 
; 121  : 	MoverProp* pProp = GetMoverProp( nVal );

$L230246:
  0006b	57		 push	 edi
  0006c	8b 7c 24 2c	 mov	 edi, DWORD PTR _nVal$[esp+28]
  00070	85 ff		 test	 edi, edi
  00072	7c 18		 jl	 SHORT $L230250
  00074	3b bb d0 01 00
	00		 cmp	 edi, DWORD PTR [ebx+464]
  0007a	7d 10		 jge	 SHORT $L230250
  0007c	8b 83 d4 01 00
	00		 mov	 eax, DWORD PTR [ebx+468]
  00082	69 ff d8 06 00
	00		 imul	 edi, 1752		; 000006d8H
  00088	03 f8		 add	 edi, eax
  0008a	eb 1e		 jmp	 SHORT $L230263
$L230250:
  0008c	8b 83 d0 01 00
	00		 mov	 eax, DWORD PTR [ebx+464]
  00092	57		 push	 edi
  00093	50		 push	 eax
  00094	6a 00		 push	 0
  00096	68 00 00 00 00	 push	 OFFSET FLAT:??_C@_0BJ@GKPOBPPI@GetMoverProp?5range_error?$AA@
  0009b	68 00 00 00 00	 push	 OFFSET FLAT:??_C@_0BM@HMFGHCP@?$CFs?5min?3?$CFd?0?5max?3?$CFd?0?5index?3?$CFd?$AA@
  000a0	e8 00 00 00 00	 call	 ?Error@@YAPBDPBDZZ	; Error
  000a5	83 c4 14	 add	 esp, 20			; 00000014H
  000a8	33 ff		 xor	 edi, edi
$L230263:

; 122  : 	
; 123  : 	while(1)
; 124  : 	{
; 125  : 		script.GetToken();		//   ,.

  000aa	8b 16		 mov	 edx, DWORD PTR [esi]
  000ac	6a 00		 push	 0
  000ae	8b ce		 mov	 ecx, esi
  000b0	ff 52 14	 call	 DWORD PTR [edx+20]

; 126  : 		if( script.token[0] == '}' )	// BATTLE .

  000b3	8b 46 24	 mov	 eax, DWORD PTR [esi+36]
  000b6	80 38 7d	 cmp	 BYTE PTR [eax], 125	; 0000007dH
  000b9	0f 84 63 06 00
	00		 je	 $L230264
  000bf	8b 5c 24 24	 mov	 ebx, DWORD PTR _szFileName$[esp+28]
  000c3	eb 0b 8d a4 24
	00 00 00 00 8d
	64 24 00	 npad	 13
$L228393:

; 127  : 			break;
; 128  : 
; 129  : 		if( script.tokenType == IDENTIFIER )		//  .

  000d0	8b 8e 28 08 00
	00		 mov	 ecx, DWORD PTR [esi+2088]
  000d6	83 f9 02	 cmp	 ecx, 2
  000d9	0f 85 81 03 00
	00		 jne	 $L228396

; 130  : 		{
; 131  : 			//---- Attack
; 132  : 			if( strcmpi( script.token, "Attack" ) == 0 )	//  .

  000df	68 00 00 00 00	 push	 OFFSET FLAT:??_C@_06FDAMAAOH@Attack?$AA@
  000e4	50		 push	 eax
  000e5	e8 00 00 00 00	 call	 _strcmpi
  000ea	83 c4 08	 add	 esp, 8
  000ed	85 c0		 test	 eax, eax
  000ef	75 11		 jne	 SHORT $L228397

; 133  : 			{
; 134  : 				nCommand =	AICMD_ATTACK;	//	 "" .

  000f1	bd 02 00 00 00	 mov	 ebp, 2

; 135  : 				pProp->m_bMeleeAttack = 1;	//  AI .

  000f6	c6 87 f4 01 00
	00 01		 mov	 BYTE PTR [edi+500], 1

; 136  : 			} else

  000fd	e9 0b 06 00 00	 jmp	 $L228495
$L228397:

; 137  : 			//--- cunning
; 138  : 			if( strcmpi( script.token, "cunning" ) == 0 )	//   

  00102	8b 46 24	 mov	 eax, DWORD PTR [esi+36]
  00105	68 00 00 00 00	 push	 OFFSET FLAT:??_C@_07EAMOHMIH@cunning?$AA@
  0010a	50		 push	 eax
  0010b	e8 00 00 00 00	 call	 _strcmpi
  00110	83 c4 08	 add	 esp, 8
  00113	85 c0		 test	 eax, eax
  00115	0f 85 89 00 00
	00		 jne	 $L228400

; 139  : 			{
; 140  : 				if( nCommand == 0 )		// cunning   .

  0011b	85 ed		 test	 ebp, ebp
  0011d	0f 84 29 02 00
	00		 je	 $L230268

; 141  : 				{
; 142  : 					SYNTAX_ERROR;
; 143  : 					return FALSE;
; 144  : 				} else
; 145  : 				if( nCommand == AICMD_ATTACK )		// Attack <xxx> cunning  .

  00123	83 fd 02	 cmp	 ebp, 2
  00126	0f 85 e1 05 00
	00		 jne	 $L228495

; 146  : 				{
; 147  : 					script.GetToken();

  0012c	8b 16		 mov	 edx, DWORD PTR [esi]
  0012e	50		 push	 eax
  0012f	8b ce		 mov	 ecx, esi
  00131	ff 52 14	 call	 DWORD PTR [edx+20]

; 148  : 					if( strcmpi( script.token, "low" ) == 0 )		//    

  00134	8b 46 24	 mov	 eax, DWORD PTR [esi+36]
  00137	68 00 00 00 00	 push	 OFFSET FLAT:??_C@_03IMLOALHE@low?$AA@
  0013c	50		 push	 eax
  0013d	e8 00 00 00 00	 call	 _strcmpi
  00142	83 c4 08	 add	 esp, 8
  00145	85 c0		 test	 eax, eax
  00147	75 0f		 jne	 SHORT $L228405

; 149  : 						pProp->m_nLvCond = 1;

  00149	c7 87 e4 01 00
	00 01 00 00 00	 mov	 DWORD PTR [edi+484], 1

; 150  : 					else if( strcmpi( script.token, "Sam" ) == 0 )	//   .

  00153	e9 b5 05 00 00	 jmp	 $L228495
$L228405:
  00158	8b 4e 24	 mov	 ecx, DWORD PTR [esi+36]
  0015b	68 00 00 00 00	 push	 OFFSET FLAT:??_C@_03JOEFDEFC@Sam?$AA@
  00160	51		 push	 ecx
  00161	e8 00 00 00 00	 call	 _strcmpi
  00166	83 c4 08	 add	 esp, 8
  00169	85 c0		 test	 eax, eax
  0016b	75 0f		 jne	 SHORT $L228408

; 151  : 						pProp->m_nLvCond = 2;

  0016d	c7 87 e4 01 00
	00 02 00 00 00	 mov	 DWORD PTR [edi+484], 2

; 152  : 					else if( strcmpi( script.token, "Hi" ) == 0 )	//   .

  00177	e9 91 05 00 00	 jmp	 $L228495
$L228408:
  0017c	8b 56 24	 mov	 edx, DWORD PTR [esi+36]
  0017f	68 00 00 00 00	 push	 OFFSET FLAT:??_C@_02MKAICKHL@Hi?$AA@
  00184	52		 push	 edx
  00185	e8 00 00 00 00	 call	 _strcmpi
  0018a	83 c4 08	 add	 esp, 8
  0018d	85 c0		 test	 eax, eax
  0018f	0f 85 b7 01 00
	00		 jne	 $L230268

; 153  : 						pProp->m_nLvCond = 3;

  00195	c7 87 e4 01 00
	00 03 00 00 00	 mov	 DWORD PTR [edi+484], 3

; 154  : 					else
; 155  : 					{
; 156  : 						SYNTAX_ERROR;
; 157  : 						return FALSE;
; 158  : 					}
; 159  : 				}
; 160  : 			} else

  0019f	e9 69 05 00 00	 jmp	 $L228495
$L228400:

; 161  : 			//--- Recovery
; 162  : 			if( strcmpi( script.token, "Recovery" ) == 0 )	//  .

  001a4	8b 46 24	 mov	 eax, DWORD PTR [esi+36]
  001a7	68 00 00 00 00	 push	 OFFSET FLAT:??_C@_08ENEHKLFG@Recovery?$AA@
  001ac	50		 push	 eax
  001ad	e8 00 00 00 00	 call	 _strcmpi
  001b2	83 c4 08	 add	 esp, 8
  001b5	85 c0		 test	 eax, eax
  001b7	75 27		 jne	 SHORT $L228415

; 163  : 			{
; 164  : 				nCommand = AICMD_RECOVERY;		//  "" .

  001b9	bd 05 00 00 00	 mov	 ebp, 5

; 165  : 				pProp->m_bRecvCond = 1;			//  1( )

  001be	c6 87 f6 01 00
	00 01		 mov	 BYTE PTR [edi+502], 1

; 166  : 				pProp->m_nRecvCondMe = 0;

  001c5	89 87 e8 01 00
	00		 mov	 DWORD PTR [edi+488], eax

; 167  : 				pProp->m_nRecvCondHow = 100;

  001cb	c7 87 ec 01 00
	00 64 00 00 00	 mov	 DWORD PTR [edi+492], 100 ; 00000064H

; 168  : 				pProp->m_nRecvCondMP = 0;

  001d5	89 87 f0 01 00
	00		 mov	 DWORD PTR [edi+496], eax

; 169  : 			} else

  001db	e9 2d 05 00 00	 jmp	 $L228495
$L228415:

; 170  : 			//--- . u= m=, a=/
; 171  : 			if( strcmpi( script.token, "u" ) == 0 || 
; 172  : 				strcmpi( script.token, "m" ) == 0 || 
; 173  : 				strcmpi( script.token, "a" ) == 0 )	// 

  001e0	8b 4e 24	 mov	 ecx, DWORD PTR [esi+36]
  001e3	68 00 00 00 00	 push	 OFFSET FLAT:??_C@_01OMGOGALD@u?$AA@
  001e8	51		 push	 ecx
  001e9	e8 00 00 00 00	 call	 _strcmpi
  001ee	83 c4 08	 add	 esp, 8
  001f1	85 c0		 test	 eax, eax
  001f3	0f 84 de 01 00
	00		 je	 $L228419
  001f9	8b 56 24	 mov	 edx, DWORD PTR [esi+36]
  001fc	68 00 00 00 00	 push	 OFFSET FLAT:??_C@_01GOHFPIOK@m?$AA@
  00201	52		 push	 edx
  00202	e8 00 00 00 00	 call	 _strcmpi
  00207	83 c4 08	 add	 esp, 8
  0020a	85 c0		 test	 eax, eax
  0020c	0f 84 c5 01 00
	00		 je	 $L228419
  00212	8b 46 24	 mov	 eax, DWORD PTR [esi+36]
  00215	68 00 00 00 00	 push	 OFFSET FLAT:??_C@_01MCMALHOG@a?$AA@
  0021a	50		 push	 eax
  0021b	e8 00 00 00 00	 call	 _strcmpi
  00220	83 c4 08	 add	 esp, 8
  00223	85 c0		 test	 eax, eax
  00225	0f 84 ac 01 00
	00		 je	 $L228419

; 191  : 				}
; 192  : 			} else
; 193  : 			if( strcmpi( script.token, "RangeAttack" ) == 0 )	//  

  0022b	8b 4e 24	 mov	 ecx, DWORD PTR [esi+36]
  0022e	68 00 00 00 00	 push	 OFFSET FLAT:??_C@_0M@JLIIOCOM@RangeAttack?$AA@
  00233	51		 push	 ecx
  00234	e8 00 00 00 00	 call	 _strcmpi
  00239	83 c4 08	 add	 esp, 8
  0023c	85 c0		 test	 eax, eax
  0023e	75 0a		 jne	 SHORT $L228431

; 194  : 			{
; 195  : 				nCommand = AICMD_RANGEATTACK;

  00240	bd 06 00 00 00	 mov	 ebp, 6

; 196  : 			} else

  00245	e9 c3 04 00 00	 jmp	 $L228495
$L228431:

; 197  : 			if( strcmpi( script.token, "KeepRangeAttack" ) == 0 )	//   

  0024a	8b 56 24	 mov	 edx, DWORD PTR [esi+36]
  0024d	68 00 00 00 00	 push	 OFFSET FLAT:??_C@_0BA@LLHANEDJ@KeepRangeAttack?$AA@
  00252	52		 push	 edx
  00253	e8 00 00 00 00	 call	 _strcmpi
  00258	83 c4 08	 add	 esp, 8
  0025b	85 c0		 test	 eax, eax
  0025d	75 0a		 jne	 SHORT $L228434

; 198  : 			{
; 199  : 				nCommand = AICMD_KEEP_RANGEATTACK;

  0025f	bd 07 00 00 00	 mov	 ebp, 7

; 200  : 			} else

  00264	e9 a4 04 00 00	 jmp	 $L228495
$L228434:

; 201  : 			if( strcmpi( script.token, "Summon" ) == 0 )		//  

  00269	8b 46 24	 mov	 eax, DWORD PTR [esi+36]
  0026c	68 00 00 00 00	 push	 OFFSET FLAT:??_C@_06DLFKBJMP@Summon?$AA@
  00271	50		 push	 eax
  00272	e8 00 00 00 00	 call	 _strcmpi
  00277	83 c4 08	 add	 esp, 8
  0027a	85 c0		 test	 eax, eax
  0027c	75 0a		 jne	 SHORT $L228437

; 202  : 			{
; 203  : 				nCommand = AICMD_SUMMON;

  0027e	bd 08 00 00 00	 mov	 ebp, 8

; 204  : 			} else

  00283	e9 85 04 00 00	 jmp	 $L228495
$L228437:

; 205  : 			if( strcmpi( script.token, "Evade" ) == 0 )			// 

  00288	8b 4e 24	 mov	 ecx, DWORD PTR [esi+36]
  0028b	68 00 00 00 00	 push	 OFFSET FLAT:??_C@_05LDPELMJE@Evade?$AA@
  00290	51		 push	 ecx
  00291	e8 00 00 00 00	 call	 _strcmpi
  00296	83 c4 08	 add	 esp, 8
  00299	85 c0		 test	 eax, eax
  0029b	75 0a		 jne	 SHORT $L228440

; 206  : 			{
; 207  : 				nCommand = AICMD_EVADE;

  0029d	bd 09 00 00 00	 mov	 ebp, 9

; 208  : 			} else

  002a2	e9 66 04 00 00	 jmp	 $L228495
$L228440:

; 209  : 			if( strcmpi( script.token, "Helper" ) == 0 )		// .

  002a7	8b 56 24	 mov	 edx, DWORD PTR [esi+36]
  002aa	68 00 00 00 00	 push	 OFFSET FLAT:??_C@_06CJKGKNBJ@Helper?$AA@
  002af	52		 push	 edx
  002b0	e8 00 00 00 00	 call	 _strcmpi
  002b5	83 c4 08	 add	 esp, 8
  002b8	85 c0		 test	 eax, eax
  002ba	75 2a		 jne	 SHORT $L228443

; 210  : 			{
; 211  : 				nCommand = AICMD_HELPER;

  002bc	bd 0a 00 00 00	 mov	 ebp, 10			; 0000000aH

; 212  : 				pProp->m_tmUnitHelp = 0;			//    . 0 .

  002c1	89 87 30 02 00
	00		 mov	 DWORD PTR [edi+560], eax

; 213  : 				pProp->m_nHelpRangeMul = 2;			//   2.

  002c7	c7 87 2c 02 00
	00 02 00 00 00	 mov	 DWORD PTR [edi+556], 2

; 214  : 				pProp->m_bHelpWho = 1;

  002d1	c6 87 f7 01 00
	00 01		 mov	 BYTE PTR [edi+503], 1

; 215  : 				pProp->m_nCallHelperMax = 5;

  002d8	66 c7 87 b2 01
	00 00 05 00	 mov	 WORD PTR [edi+434], 5

; 216  : 			} else

  002e1	e9 27 04 00 00	 jmp	 $L228495
$L228443:

; 217  : 			// helper ..
; 218  : 			if( strcmpi( script.token, "all" ) == 0 ||
; 219  : 				strcmpi( script.token, "sam" ) == 0 )

  002e6	8b 46 24	 mov	 eax, DWORD PTR [esi+36]
  002e9	68 00 00 00 00	 push	 OFFSET FLAT:??_C@_03NFKEKGGK@all?$AA@
  002ee	50		 push	 eax
  002ef	e8 00 00 00 00	 call	 _strcmpi
  002f4	83 c4 08	 add	 esp, 8
  002f7	85 c0		 test	 eax, eax
  002f9	0f 84 85 00 00
	00		 je	 $L228447
  002ff	8b 4e 24	 mov	 ecx, DWORD PTR [esi+36]
  00302	68 00 00 00 00	 push	 OFFSET FLAT:??_C@_03DOHHJLGM@sam?$AA@
  00307	51		 push	 ecx
  00308	e8 00 00 00 00	 call	 _strcmpi
  0030d	83 c4 08	 add	 esp, 8
  00310	85 c0		 test	 eax, eax
  00312	74 70		 je	 SHORT $L228447

; 234  : 			if( strcmpi( script.token, "Berserk" ) == 0 )		// .

  00314	8b 56 24	 mov	 edx, DWORD PTR [esi+36]
  00317	68 00 00 00 00	 push	 OFFSET FLAT:??_C@_07NPHLJPC@Berserk?$AA@
  0031c	52		 push	 edx
  0031d	e8 00 00 00 00	 call	 _strcmpi
  00322	83 c4 08	 add	 esp, 8
  00325	85 c0		 test	 eax, eax
  00327	75 0a		 jne	 SHORT $L228457

; 235  : 			{
; 236  : 				nCommand = AICMD_BERSERK;

  00329	bd 0b 00 00 00	 mov	 ebp, 11			; 0000000bH

; 237  : 			} else

  0032e	e9 da 03 00 00	 jmp	 $L228495
$L228457:

; 238  : 			if( strcmpi( script.token, "Randomtarget" ) == 0 )	

  00333	8b 46 24	 mov	 eax, DWORD PTR [esi+36]
  00336	68 00 00 00 00	 push	 OFFSET FLAT:??_C@_0N@MDBDBIOA@Randomtarget?$AA@
  0033b	50		 push	 eax
  0033c	e8 00 00 00 00	 call	 _strcmpi
  00341	83 c4 08	 add	 esp, 8
  00344	85 c0		 test	 eax, eax
  00346	0f 84 c1 03 00
	00		 je	 $L228495
$L230268:

; 255  : 			{
; 256  : 				SYNTAX_ERROR;

  0034c	8b 4e 24	 mov	 ecx, DWORD PTR [esi+36]
  0034f	8b 54 24 2c	 mov	 edx, DWORD PTR _nVal$[esp+28]
  00353	8b 06		 mov	 eax, DWORD PTR [esi]
  00355	51		 push	 ecx
  00356	52		 push	 edx
  00357	8b ce		 mov	 ecx, esi
  00359	6a 00		 push	 0
  0035b	ff 50 1c	 call	 DWORD PTR [eax+28]
  0035e	50		 push	 eax
  0035f	53		 push	 ebx
  00360	68 00 00 00 00	 push	 OFFSET FLAT:??_C@_0CE@DOIGNPAP@?$CFs?$CI?$CFd?$CJ?5?3?5MoverID?$DN?$CFd?5syntax?5error@
  00365	e8 00 00 00 00	 call	 ?Error@@YAPBDPBDZZ	; Error
  0036a	83 c4 14	 add	 esp, 20			; 00000014H
  0036d	5f		 pop	 edi
  0036e	5e		 pop	 esi
  0036f	5d		 pop	 ebp

; 257  : 				return FALSE;

  00370	33 c0		 xor	 eax, eax
  00372	5b		 pop	 ebx

; 354  : 			}
; 355  : 		}
; 356  : 		
; 357  : 	}
; 358  : 	
; 359  : 	return TRUE;
; 360  : }

  00373	8b 4c 24 04	 mov	 ecx, DWORD PTR __$EHRec$[esp+16]
  00377	64 89 0d 00 00
	00 00		 mov	 DWORD PTR fs:__except_list, ecx
  0037e	83 c4 10	 add	 esp, 16			; 00000010H
  00381	c2 0c 00	 ret	 12			; 0000000cH
$L228447:

; 220  : 			{
; 221  : 				if( nCommand == 0 ) // all/sam     .

  00384	85 ed		 test	 ebp, ebp
  00386	74 c4		 je	 SHORT $L230268

; 222  : 				{
; 223  : 					SYNTAX_ERROR;
; 224  : 					return FALSE;
; 225  : 				} else
; 226  : 				if( nCommand == AICMD_HELPER )

  00388	83 fd 0a	 cmp	 ebp, 10			; 0000000aH
  0038b	0f 85 7c 03 00
	00		 jne	 $L228495

; 227  : 				{
; 228  : 					if( strcmpi( script.token, "all" ) == 0 )			// .

  00391	8b 4e 24	 mov	 ecx, DWORD PTR [esi+36]
  00394	68 00 00 00 00	 push	 OFFSET FLAT:??_C@_03NFKEKGGK@all?$AA@
  00399	51		 push	 ecx
  0039a	e8 00 00 00 00	 call	 _strcmpi
  0039f	83 c4 08	 add	 esp, 8
  003a2	85 c0		 test	 eax, eax
  003a4	75 0c		 jne	 SHORT $L228453

; 229  : 						pProp->m_bHelpWho = 1;	

  003a6	c6 87 f7 01 00
	00 01		 mov	 BYTE PTR [edi+503], 1

; 230  : 					else if( strcmpi( script.token, "sam" ) == 0 )		//  

  003ad	e9 5b 03 00 00	 jmp	 $L228495
$L228453:
  003b2	8b 56 24	 mov	 edx, DWORD PTR [esi+36]
  003b5	68 00 00 00 00	 push	 OFFSET FLAT:??_C@_03DOHHJLGM@sam?$AA@
  003ba	52		 push	 edx
  003bb	e8 00 00 00 00	 call	 _strcmpi
  003c0	83 c4 08	 add	 esp, 8
  003c3	85 c0		 test	 eax, eax
  003c5	0f 85 42 03 00
	00		 jne	 $L228495

; 231  : 						pProp->m_bHelpWho = 2;

  003cb	c6 87 f7 01 00
	00 02		 mov	 BYTE PTR [edi+503], 2

; 232  : 				}
; 233  : 			} else

  003d2	e9 36 03 00 00	 jmp	 $L228495
$L228419:

; 174  : 			{
; 175  : 				if( nCommand == 0 )		// u,m,a   .

  003d7	85 ed		 test	 ebp, ebp
  003d9	0f 84 6d ff ff
	ff		 je	 $L230268

; 176  : 				{
; 177  : 					SYNTAX_ERROR;
; 178  : 					return FALSE;
; 179  : 				} else
; 180  : 				if( nCommand == AICMD_RECOVERY )		// recovery xx xx xx (u,m,a)  .

  003df	83 fd 05	 cmp	 ebp, 5
  003e2	0f 85 25 03 00
	00		 jne	 $L228495

; 181  : 				{
; 182  : //					script.GetToken();
; 183  : 					if( strcmpi( script.token, "u" ) == 0 )		//  .

  003e8	8b 46 24	 mov	 eax, DWORD PTR [esi+36]
  003eb	68 00 00 00 00	 push	 OFFSET FLAT:??_C@_01OMGOGALD@u?$AA@
  003f0	50		 push	 eax
  003f1	e8 00 00 00 00	 call	 _strcmpi
  003f6	83 c4 08	 add	 esp, 8
  003f9	85 c0		 test	 eax, eax
  003fb	75 13		 jne	 SHORT $L228425

; 184  : 						pProp->m_bRecvCondWho = 1;

  003fd	c6 87 f5 01 00
	00 01		 mov	 BYTE PTR [edi+501], 1

; 189  : 
; 190  : 					pProp->m_bRecvCond = 2;			//    /  .

  00404	c6 87 f6 01 00
	00 02		 mov	 BYTE PTR [edi+502], 2

; 239  : 			{
; 240  : 			} else
; 241  : //			if( strcmpi( script.token, "Loot" ) == 0 )		// .  .
; 242  : //			{
; 243  : //				nCommand = AICMD_LOOT;
; 244  : //				pProp->m_nLoot = 1;
; 245  : //			} else
; 246  : 			{
; 247  : 				SYNTAX_ERROR;	//   .
; 248  : 				return FALSE;
; 249  : 			}
; 250  : 		} else

  0040b	e9 fd 02 00 00	 jmp	 $L228495
$L228425:

; 185  : 					else if( strcmpi( script.token, "m" ) == 0 )	//  

  00410	8b 4e 24	 mov	 ecx, DWORD PTR [esi+36]
  00413	68 00 00 00 00	 push	 OFFSET FLAT:??_C@_01GOHFPIOK@m?$AA@
  00418	51		 push	 ecx
  00419	e8 00 00 00 00	 call	 _strcmpi
  0041e	83 c4 08	 add	 esp, 8
  00421	85 c0		 test	 eax, eax
  00423	75 13		 jne	 SHORT $L228427

; 186  : 						pProp->m_bRecvCondWho = 2;

  00425	c6 87 f5 01 00
	00 02		 mov	 BYTE PTR [edi+501], 2

; 189  : 
; 190  : 					pProp->m_bRecvCond = 2;			//    /  .

  0042c	c6 87 f6 01 00
	00 02		 mov	 BYTE PTR [edi+502], 2

; 239  : 			{
; 240  : 			} else
; 241  : //			if( strcmpi( script.token, "Loot" ) == 0 )		// .  .
; 242  : //			{
; 243  : //				nCommand = AICMD_LOOT;
; 244  : //				pProp->m_nLoot = 1;
; 245  : //			} else
; 246  : 			{
; 247  : 				SYNTAX_ERROR;	//   .
; 248  : 				return FALSE;
; 249  : 			}
; 250  : 		} else

  00433	e9 d5 02 00 00	 jmp	 $L228495
$L228427:

; 187  : 					else if( strcmpi( script.token, "a" ) == 0 )	//  ,

  00438	8b 56 24	 mov	 edx, DWORD PTR [esi+36]
  0043b	68 00 00 00 00	 push	 OFFSET FLAT:??_C@_01MCMALHOG@a?$AA@
  00440	52		 push	 edx
  00441	e8 00 00 00 00	 call	 _strcmpi
  00446	83 c4 08	 add	 esp, 8
  00449	85 c0		 test	 eax, eax
  0044b	75 07		 jne	 SHORT $L228429

; 188  : 						pProp->m_bRecvCondWho = 3;

  0044d	c6 87 f5 01 00
	00 03		 mov	 BYTE PTR [edi+501], 3
$L228429:

; 189  : 
; 190  : 					pProp->m_bRecvCond = 2;			//    /  .

  00454	c6 87 f6 01 00
	00 02		 mov	 BYTE PTR [edi+502], 2

; 239  : 			{
; 240  : 			} else
; 241  : //			if( strcmpi( script.token, "Loot" ) == 0 )		// .  .
; 242  : //			{
; 243  : //				nCommand = AICMD_LOOT;
; 244  : //				pProp->m_nLoot = 1;
; 245  : //			} else
; 246  : 			{
; 247  : 				SYNTAX_ERROR;	//   .
; 248  : 				return FALSE;
; 249  : 			}
; 250  : 		} else

  0045b	e9 ad 02 00 00	 jmp	 $L228495
$L228396:

; 251  : 		///////////  .
; 252  : 		if( script.tokenType == NUMBER )

  00460	83 f9 03	 cmp	 ecx, 3
  00463	0f 85 a4 02 00
	00		 jne	 $L228495

; 253  : 		{
; 254  : 			if( nCommand == 0 )		//    .

  00469	85 ed		 test	 ebp, ebp
  0046b	0f 84 db fe ff
	ff		 je	 $L230268

; 258  : 			} else
; 259  : 			if( nCommand == AICMD_ATTACK )		//  .

  00471	83 fd 02	 cmp	 ebp, 2
  00474	75 14		 jne	 SHORT $L228467

; 260  : 			{
; 261  : 				int nNum = atoi( script.token );		//   .

  00476	50		 push	 eax
  00477	e8 00 00 00 00	 call	 _atoi
  0047c	83 c4 04	 add	 esp, 4

; 262  : 				// nNum  %;
; 263  : 				pProp->m_nHPCond = nNum;				//  HP nNum% .

  0047f	89 87 e0 01 00
	00		 mov	 DWORD PTR [edi+480], eax

; 264  : 			} else

  00485	e9 83 02 00 00	 jmp	 $L228495
$L228467:

; 265  : 			if( nCommand == AICMD_RECOVERY )	// 

  0048a	83 fd 05	 cmp	 ebp, 5
  0048d	75 4b		 jne	 SHORT $L228470

; 266  : 			{
; 267  : 				int nNum = atoi( script.token );

  0048f	50		 push	 eax
  00490	e8 00 00 00 00	 call	 _atoi

; 268  : 				if( pProp->m_nRecvCondMe == 0 )		//  (HP %?)

  00495	8b 8f e8 01 00
	00		 mov	 ecx, DWORD PTR [edi+488]
  0049b	83 c4 04	 add	 esp, 4
  0049e	85 c9		 test	 ecx, ecx
  004a0	75 0b		 jne	 SHORT $L228472

; 269  : 				{
; 270  : 					pProp->m_nRecvCondMe = nNum;

  004a2	89 87 e8 01 00
	00		 mov	 DWORD PTR [edi+488], eax

; 271  : 				} else

  004a8	e9 60 02 00 00	 jmp	 $L228495
$L228472:

; 272  : 				if( pProp->m_nRecvCondHow == 100 )	//  (% )

  004ad	83 bf ec 01 00
	00 64		 cmp	 DWORD PTR [edi+492], 100 ; 00000064H
  004b4	75 0b		 jne	 SHORT $L228474

; 273  : 				{
; 274  : 					pProp->m_nRecvCondHow = nNum;

  004b6	89 87 ec 01 00
	00		 mov	 DWORD PTR [edi+492], eax

; 275  : 				} else

  004bc	e9 4c 02 00 00	 jmp	 $L228495
$L228474:

; 276  : 				if( pProp->m_nRecvCondMP == 0 )		// %  .

  004c1	8b 8f f0 01 00
	00		 mov	 ecx, DWORD PTR [edi+496]
  004c7	85 c9		 test	 ecx, ecx
  004c9	0f 85 3e 02 00
	00		 jne	 $L228495

; 277  : 				{
; 278  : 					pProp->m_nRecvCondMP = nNum;

  004cf	89 87 f0 01 00
	00		 mov	 DWORD PTR [edi+496], eax

; 279  : 				}
; 280  : 			} else

  004d5	e9 33 02 00 00	 jmp	 $L228495
$L228470:

; 281  : 			if( nCommand == AICMD_RANGEATTACK || nCommand == AICMD_KEEP_RANGEATTACK )	//  

  004da	83 fd 06	 cmp	 ebp, 6
  004dd	0f 84 e8 01 00
	00		 je	 $L228479
  004e3	83 fd 07	 cmp	 ebp, 7
  004e6	0f 84 df 01 00
	00		 je	 $L228479

; 304  : 					} else
; 305  : 					{
; 306  : 						if( nJob >0 || nJob < MAX_JOB )
; 307  : 							pProp->m_bRangeAttack[ nJob ] = (BYTE)nRange;		//    .
; 308  : 						else
; 309  : 							SYNTAX_ERROR;
; 310  : 					}
; 311  : 				}
; 312  : 			} else
; 313  : 			if( nCommand == AICMD_SUMMON )		//  .

  004ec	83 fd 08	 cmp	 ebp, 8
  004ef	0f 85 d0 00 00
	00		 jne	 $L228497

; 314  : 			{
; 315  : 				pProp->m_nSummProb = atoi( script.token );	//   

  004f5	50		 push	 eax
  004f6	e8 00 00 00 00	 call	 _atoi
  004fb	83 c4 04	 add	 esp, 4

; 316  : 				pProp->m_nSummNum  = script.GetNumber();		//   .

  004fe	6a 00		 push	 0
  00500	8b ce		 mov	 ecx, esi
  00502	89 87 20 02 00
	00		 mov	 DWORD PTR [edi+544], eax
  00508	e8 00 00 00 00	 call	 ?GetNumber@CScanner@@QAEHH@Z ; CScanner::GetNumber

; 317  : 				if( pProp->m_nSummNum > MAX_SUMMON )

  0050d	3b c5		 cmp	 eax, ebp
  0050f	89 87 24 02 00
	00		 mov	 DWORD PTR [edi+548], eax
  00515	7e 2c		 jle	 SHORT $L228498

; 318  : 				{
; 319  : 					CUSTOM_ERROR( "    " );

  00517	8b 46 24	 mov	 eax, DWORD PTR [esi+36]
  0051a	8b 4c 24 2c	 mov	 ecx, DWORD PTR _nVal$[esp+28]
  0051e	8b 16		 mov	 edx, DWORD PTR [esi]
  00520	50		 push	 eax
  00521	68 00 00 00 00	 push	 OFFSET FLAT:??_C@_0BP@IMGBJKKL@?$LM?R?H?$KP?G?R?$LM?v?5?$MA?V?$LE?B?5?$LA?$LD?$LM?v?$LA?$KB?5?$LD?J?$LJ?$KL?5?$LI?$LJ?$LE?Y?$AA@
  00526	51		 push	 ecx
  00527	6a 00		 push	 0
  00529	8b ce		 mov	 ecx, esi
  0052b	ff 52 1c	 call	 DWORD PTR [edx+28]
  0052e	50		 push	 eax
  0052f	53		 push	 ebx
  00530	68 00 00 00 00	 push	 OFFSET FLAT:??_C@_0BK@IFOEIIPC@?$CFs?$CI?$CFd?$CJ?5?3?5MoverID?$DN?$CFd?5?$CFs?5?$CFs?$AA@
  00535	e8 00 00 00 00	 call	 ?Error@@YAPBDPBDZZ	; Error
  0053a	83 c4 18	 add	 esp, 24			; 00000018H

; 320  : #if __VER >= 12 // __NEW_SUMMON_RULE				
; 321  : 					pProp->m_nSummNum = MAX_SUMMON;

  0053d	89 af 24 02 00
	00		 mov	 DWORD PTR [edi+548], ebp
$L228498:

; 322  : #endif // __NEW_SUMMON_RULE
; 323  : 				}
; 324  : 
; 325  : 				script.GetToken();					//  

  00543	8b 06		 mov	 eax, DWORD PTR [esi]
  00545	6a 00		 push	 0
  00547	8b ce		 mov	 ecx, esi
  00549	ff 50 14	 call	 DWORD PTR [eax+20]

; 326  : 				if( script.tokenType != NUMBER )

  0054c	83 be 28 08 00
	00 03		 cmp	 DWORD PTR [esi+2088], 3
  00553	74 21		 je	 SHORT $L228501

; 327  : 					UNIDENTIFY_ERROR;

  00555	8b 4e 24	 mov	 ecx, DWORD PTR [esi+36]
  00558	8b 54 24 2c	 mov	 edx, DWORD PTR _nVal$[esp+28]
  0055c	8b 06		 mov	 eax, DWORD PTR [esi]
  0055e	51		 push	 ecx
  0055f	52		 push	 edx
  00560	6a 00		 push	 0
  00562	8b ce		 mov	 ecx, esi
  00564	ff 50 1c	 call	 DWORD PTR [eax+28]
  00567	50		 push	 eax
  00568	53		 push	 ebx
  00569	68 00 00 00 00	 push	 OFFSET FLAT:??_C@_0DC@EACAAEFB@?$CFs?$CI?$CFd?$CJ?5?3?5MoverID?$DN?$CFd?5?A?v?A?$KE?$LF?G?A?v?5?$LO?J?$MA@
  0056e	e8 00 00 00 00	 call	 ?Error@@YAPBDPBDZZ	; Error
  00573	83 c4 14	 add	 esp, 20			; 00000014H
$L228501:

; 328  : 				pProp->m_nSummID = atoi( script.token );

  00576	8b 4e 24	 mov	 ecx, DWORD PTR [esi+36]
  00579	51		 push	 ecx
  0057a	e8 00 00 00 00	 call	 _atoi

; 329  : 				if( GetMoverProp( pProp->m_nSummID ) == NULL )

  0057f	8b 4c 24 14	 mov	 ecx, DWORD PTR _this$[esp+36]
  00583	83 c4 04	 add	 esp, 4
  00586	50		 push	 eax
  00587	89 87 28 02 00
	00		 mov	 DWORD PTR [edi+552], eax
  0058d	e8 00 00 00 00	 call	 ?GetMoverProp@CProject@@QAEPAUMoverProp@@H@Z ; CProject::GetMoverProp
  00592	85 c0		 test	 eax, eax
  00594	0f 85 73 01 00
	00		 jne	 $L228495

; 330  : 					CUSTOM_ERROR( "    " );

  0059a	8b 56 24	 mov	 edx, DWORD PTR [esi+36]
  0059d	8b 44 24 2c	 mov	 eax, DWORD PTR _nVal$[esp+28]
  005a1	52		 push	 edx
  005a2	8b 16		 mov	 edx, DWORD PTR [esi]
  005a4	68 00 00 00 00	 push	 OFFSET FLAT:??_C@_0CH@ICOKIFCB@?A?v?A?$KE?$LF?H?5?$LI?s?$LN?$LK?E?M?5?$LO?F?$MA?L?$LF?p?$LA?$KB?5?G?A?$LH?N?F?$NL?F?$LM?$LP@
  005a9	50		 push	 eax
  005aa	6a 00		 push	 0
  005ac	8b ce		 mov	 ecx, esi
  005ae	ff 52 1c	 call	 DWORD PTR [edx+28]
  005b1	50		 push	 eax
  005b2	53		 push	 ebx
  005b3	68 00 00 00 00	 push	 OFFSET FLAT:??_C@_0BK@IFOEIIPC@?$CFs?$CI?$CFd?$CJ?5?3?5MoverID?$DN?$CFd?5?$CFs?5?$CFs?$AA@
  005b8	e8 00 00 00 00	 call	 ?Error@@YAPBDPBDZZ	; Error
  005bd	83 c4 18	 add	 esp, 24			; 00000018H

; 331  : 			} else

  005c0	e9 48 01 00 00	 jmp	 $L228495
$L228497:

; 332  : 			if( nCommand == AICMD_EVADE )	//   .

  005c5	83 fd 09	 cmp	 ebp, 9
  005c8	75 15		 jne	 SHORT $L228506

; 333  : 			{
; 334  : 				pProp->m_nRunawayHP = atoi( script.token );		// % ?

  005ca	50		 push	 eax
  005cb	e8 00 00 00 00	 call	 _atoi
  005d0	83 c4 04	 add	 esp, 4
  005d3	66 89 87 b0 01
	00 00		 mov	 WORD PTR [edi+432], ax

; 335  : 			} else

  005da	e9 2e 01 00 00	 jmp	 $L228495
$L228506:

; 336  : 			if( nCommand == AICMD_HELPER )	//   .

  005df	83 fd 0a	 cmp	 ebp, 10			; 0000000aH
  005e2	75 36		 jne	 SHORT $L228508

; 337  : 			{
; 338  : 				int nNum = atoi( script.token );

  005e4	50		 push	 eax
  005e5	e8 00 00 00 00	 call	 _atoi

; 339  : 				if( pProp->m_tmUnitHelp == 0 )		//    ..

  005ea	8b 8f 30 02 00
	00		 mov	 ecx, DWORD PTR [edi+560]
  005f0	83 c4 04	 add	 esp, 4
  005f3	85 c9		 test	 ecx, ecx
  005f5	75 0b		 jne	 SHORT $L228510

; 340  : 					pProp->m_tmUnitHelp = (DWORD)nNum;		//     .

  005f7	89 87 30 02 00
	00		 mov	 DWORD PTR [edi+560], eax

; 341  : 				else if( pProp->m_nHelpRangeMul == 2 )		//    ..

  005fd	e9 0b 01 00 00	 jmp	 $L228495
$L228510:
  00602	83 bf 2c 02 00
	00 02		 cmp	 DWORD PTR [edi+556], 2
  00609	0f 85 fe 00 00
	00		 jne	 $L228495

; 342  : 					pProp->m_nHelpRangeMul = nNum;			// 

  0060f	89 87 2c 02 00
	00		 mov	 DWORD PTR [edi+556], eax

; 343  : 			} else

  00615	e9 f3 00 00 00	 jmp	 $L228495
$L228508:

; 344  : 			if( nCommand == AICMD_BERSERK )	//   .

  0061a	83 fd 0b	 cmp	 ebp, 11			; 0000000bH
  0061d	0f 85 ea 00 00
	00		 jne	 $L228495

; 345  : 			{
; 346  : 				pProp->m_nBerserkHP = atoi( script.token );		//   %. 0 .

  00623	50		 push	 eax
  00624	e8 00 00 00 00	 call	 _atoi
  00629	83 c4 04	 add	 esp, 4

; 347  : 				pProp->m_fBerserkDmgMul = script.GetFloat();	//   .

  0062c	6a 00		 push	 0
  0062e	8b ce		 mov	 ecx, esi
  00630	89 87 34 02 00
	00		 mov	 DWORD PTR [edi+564], eax
  00636	e8 00 00 00 00	 call	 ?GetFloat@CScanner@@QAEMH@Z ; CScanner::GetFloat

; 348  : 				if( pProp->m_fBerserkDmgMul <= 0 || pProp->m_fBerserkDmgMul >= 20.0f )

  0063b	d8 15 00 00 00
	00		 fcom	 DWORD PTR __real@00000000
  00641	d9 97 38 02 00
	00		 fst	 DWORD PTR [edi+568]
  00647	df e0		 fnstsw	 ax
  00649	f6 c4 41	 test	 ah, 65			; 00000041H
  0064c	7b 13		 jnp	 SHORT $L230274
  0064e	d8 1d 00 00 00
	00		 fcomp	 DWORD PTR __real@41a00000
  00654	df e0		 fnstsw	 ax
  00656	f6 c4 01	 test	 ah, 1
  00659	0f 85 ae 00 00
	00		 jne	 $L228495
  0065f	eb 02		 jmp	 SHORT $L228517
$L230274:
  00661	dd d8		 fstp	 ST(0)
$L228517:

; 349  : 				{
; 350  : 					CString str;

  00663	8d 4c 24 24	 lea	 ecx, DWORD PTR _str$228518[esp+28]
  00667	e8 00 00 00 00	 call	 ??0?$CStringT@DV?$StrTraitMFC@DV?$ChTraitsCRT@D@ATL@@@@@ATL@@QAE@XZ ; ATL::CStringT<char,StrTraitMFC<char,ATL::ChTraitsCRT<char> > >::CStringT<char,StrTraitMFC<char,ATL::ChTraitsCRT<char> > >

; 351  : 					str.Format( "Berserk    ? %f", pProp->m_fBerserkDmgMul );

  0066c	d9 87 38 02 00
	00		 fld	 DWORD PTR [edi+568]
  00672	83 ec 08	 sub	 esp, 8
  00675	dd 1c 24	 fstp	 QWORD PTR [esp]
  00678	8d 44 24 2c	 lea	 eax, DWORD PTR _str$228518[esp+36]
  0067c	68 00 00 00 00	 push	 OFFSET FLAT:??_C@_0DG@EGDLGKJJ@Berserk?$LI?m?$LH?I?$MA?G?5?$LF?$KF?$LJ?L?A?v?$LJ?h?$LM?v?$MA?G?5?$LJ?$PM?$MA?$KH?$LA@
  00681	50		 push	 eax
  00682	c7 44 24 2c 00
	00 00 00	 mov	 DWORD PTR __$EHRec$[esp+56], 0
  0068a	e8 00 00 00 00	 call	 ?Format@?$CStringT@DV?$StrTraitMFC@DV?$ChTraitsCRT@D@ATL@@@@@ATL@@QAAXPBDZZ ; ATL::CStringT<char,StrTraitMFC<char,ATL::ChTraitsCRT<char> > >::Format

; 352  : 					CUSTOM_ERROR( (LPCTSTR)str );

  0068f	8b 4e 24	 mov	 ecx, DWORD PTR [esi+36]
  00692	8b 54 24 34	 mov	 edx, DWORD PTR _str$228518[esp+44]
  00696	8b 44 24 3c	 mov	 eax, DWORD PTR _nVal$[esp+44]
  0069a	83 c4 10	 add	 esp, 16			; 00000010H
  0069d	51		 push	 ecx
  0069e	52		 push	 edx
  0069f	8b 16		 mov	 edx, DWORD PTR [esi]
  006a1	50		 push	 eax
  006a2	6a 00		 push	 0
  006a4	8b ce		 mov	 ecx, esi
  006a6	ff 52 1c	 call	 DWORD PTR [edx+28]
  006a9	50		 push	 eax
  006aa	53		 push	 ebx
  006ab	68 00 00 00 00	 push	 OFFSET FLAT:??_C@_0BK@IFOEIIPC@?$CFs?$CI?$CFd?$CJ?5?3?5MoverID?$DN?$CFd?5?$CFs?5?$CFs?$AA@
  006b0	e8 00 00 00 00	 call	 ?Error@@YAPBDPBDZZ	; Error
  006b5	83 c4 18	 add	 esp, 24			; 00000018H

; 353  : 				}

  006b8	8d 4c 24 24	 lea	 ecx, DWORD PTR _str$228518[esp+28]
  006bc	c7 44 24 1c ff
	ff ff ff	 mov	 DWORD PTR __$EHRec$[esp+40], -1
  006c4	e8 00 00 00 00	 call	 ??1?$CStringT@DV?$StrTraitMFC@DV?$ChTraitsCRT@D@ATL@@@@@ATL@@QAE@XZ ; ATL::CStringT<char,StrTraitMFC<char,ATL::ChTraitsCRT<char> > >::~CStringT<char,StrTraitMFC<char,ATL::ChTraitsCRT<char> > >
  006c9	eb 42		 jmp	 SHORT $L228495
$L228479:

; 282  : 			{
; 283  : 				int nJob = MAX_JOB;
; 284  : 				int nRange	= atoi( script.token );			

  006cb	50		 push	 eax
  006cc	e8 00 00 00 00	 call	 _atoi
  006d1	83 c4 04	 add	 esp, 4

; 285  : 
; 286  : 				if( nCommand == AICMD_KEEP_RANGEATTACK )

  006d4	83 fd 07	 cmp	 ebp, 7

; 289  : 					if( nJob >= MAX_JOB )		//  .
; 290  : 					{
; 291  : 						memset( pProp->m_bRangeAttack, nRange, sizeof(pProp->m_bRangeAttack) );		//   .

  006d7	8d 8f f8 01 00
	00		 lea	 ecx, DWORD PTR [edi+504]
  006dd	75 05		 jne	 SHORT $L230269

; 287  : 				{
; 288  : 					nRange |= 0x80;		// KEEP_RANGE  1 .

  006df	0d 80 00 00 00	 or	 eax, 128		; 00000080H
$L230269:

; 292  : 					} else
; 293  : 					{
; 294  : 						if( nJob >0 || nJob < MAX_JOB )
; 295  : 							pProp->m_bRangeAttack[ nJob ] = (BYTE)nRange;		//    .
; 296  : 						else
; 297  : 							SYNTAX_ERROR;
; 298  : 					}
; 299  : 				} else
; 300  : 				{
; 301  : 					if( nJob >= MAX_JOB )		//  .
; 302  : 					{
; 303  : 						memset( pProp->m_bRangeAttack, nRange, sizeof(pProp->m_bRangeAttack) );		//   .

  006e4	8a d0		 mov	 dl, al
  006e6	8a f2		 mov	 dh, dl
  006e8	8b c2		 mov	 eax, edx
  006ea	c1 e0 10	 shl	 eax, 16			; 00000010H
  006ed	66 8b c2	 mov	 ax, dx
  006f0	89 01		 mov	 DWORD PTR [ecx], eax
  006f2	89 41 04	 mov	 DWORD PTR [ecx+4], eax
  006f5	89 41 08	 mov	 DWORD PTR [ecx+8], eax
  006f8	89 41 0c	 mov	 DWORD PTR [ecx+12], eax
  006fb	89 41 10	 mov	 DWORD PTR [ecx+16], eax
  006fe	89 41 14	 mov	 DWORD PTR [ecx+20], eax
  00701	89 41 18	 mov	 DWORD PTR [ecx+24], eax
  00704	89 41 1c	 mov	 DWORD PTR [ecx+28], eax
  00707	89 41 20	 mov	 DWORD PTR [ecx+32], eax
  0070a	89 41 24	 mov	 DWORD PTR [ecx+36], eax
$L228495:
  0070d	8b 06		 mov	 eax, DWORD PTR [esi]
  0070f	6a 00		 push	 0
  00711	8b ce		 mov	 ecx, esi
  00713	ff 50 14	 call	 DWORD PTR [eax+20]
  00716	8b 46 24	 mov	 eax, DWORD PTR [esi+36]
  00719	80 38 7d	 cmp	 BYTE PTR [eax], 125	; 0000007dH
  0071c	0f 85 ae f9 ff
	ff		 jne	 $L228393
$L230264:

; 354  : 			}
; 355  : 		}
; 356  : 		
; 357  : 	}
; 358  : 	
; 359  : 	return TRUE;
; 360  : }

  00722	8b 4c 24 14	 mov	 ecx, DWORD PTR __$EHRec$[esp+32]
  00726	5f		 pop	 edi
  00727	5e		 pop	 esi
  00728	5d		 pop	 ebp
  00729	b8 01 00 00 00	 mov	 eax, 1
  0072e	5b		 pop	 ebx
  0072f	64 89 0d 00 00
	00 00		 mov	 DWORD PTR fs:__except_list, ecx
  00736	83 c4 10	 add	 esp, 16			; 00000010H
  00739	c2 0c 00	 ret	 12			; 0000000cH
_TEXT	ENDS
;	COMDAT text$x
text$x	SEGMENT
$L230238:
  00000	8d 4d 04	 lea	 ecx, DWORD PTR _str$228518[ebp-4]
  00003	e9 00 00 00 00	 jmp	 ??1?$CStringT@DV?$StrTraitMFC@DV?$ChTraitsCRT@D@ATL@@@@@ATL@@QAE@XZ ; ATL::CStringT<char,StrTraitMFC<char,ATL::ChTraitsCRT<char> > >::~CStringT<char,StrTraitMFC<char,ATL::ChTraitsCRT<char> > >
__ehhandler$?LoadPropMoverEx_AI_BATTLE@CProject@@QAEHPBDAAVCScript@@H@Z:
  00008	b8 00 00 00 00	 mov	 eax, OFFSET FLAT:$T230261
  0000d	e9 00 00 00 00	 jmp	 ___CxxFrameHandler
text$x	ENDS
?LoadPropMoverEx_AI_BATTLE@CProject@@QAEHPBDAAVCScript@@H@Z ENDP ; CProject::LoadPropMoverEx_AI_BATTLE
PUBLIC	??_C@_0CG@JGKNAMHK@?$CFs?$CI?$CFd?$CJ?5?3?5MoverID?$DN?$CFd?5AI?5?$LE?Y?$MA?$LN?$LP?$KB?5?$HL?5@ ; `string'
PUBLIC	??_C@_05CGLFOOHA@?$CDSCAN?$AA@			; `string'
PUBLIC	??_C@_07IHMGMGKA@?$CDBATTLE?$AA@		; `string'
PUBLIC	??_C@_05EJCOBEBF@?$CDMOVE?$AA@			; `string'
PUBLIC	??_C@_0CP@OOJHDEOA@?$CFs?$CI?$CFd?$CJ?5?3?5MoverID?$DN?$CFd?5?$LM?$LN?E?M?$LK?m?$LH?$LA?$MA?L?$LI?$KH@ ; `string'
PUBLIC	??_C@_0CI@FPILLNG@?$CFs?$CI?$CFd?$CJ?5?3?5MoverID?$DN?$CFd?5?$LM?$LN?E?M?$LK?m?$LH?$LA?$CI?$DM?$CJ?$MA@ ; `string'
PUBLIC	?LoadPropMoverEx_AI@CProject@@QAEHPBDAAVCScript@@H@Z ; CProject::LoadPropMoverEx_AI
;	COMDAT ??_C@_0CG@JGKNAMHK@?$CFs?$CI?$CFd?$CJ?5?3?5MoverID?$DN?$CFd?5AI?5?$LE?Y?$MA?$LN?$LP?$KB?5?$HL?5@
; File c:\program files\microsoft visual studio .net 2003\vc7\atlmfc\include\atlsimpstr.h
CONST	SEGMENT
??_C@_0CG@JGKNAMHK@?$CFs?$CI?$CFd?$CJ?5?3?5MoverID?$DN?$CFd?5AI?5?$LE?Y?$MA?$LN?$LP?$KB?5?$HL?5@ DB '%'
	DB	's(%d) : MoverID=%d AI ', 0b4H, 0d9H, 0c0H, 0bdH, 0bfH, 0a1H, ' '
	DB	'{ ', 0beH, 0f8H, 0c0H, 0bdH, '.', 00H	; `string'
CONST	ENDS
;	COMDAT ??_C@_05CGLFOOHA@?$CDSCAN?$AA@
CONST	SEGMENT
??_C@_05CGLFOOHA@?$CDSCAN?$AA@ DB '#SCAN', 00H		; `string'
CONST	ENDS
;	COMDAT ??_C@_07IHMGMGKA@?$CDBATTLE?$AA@
CONST	SEGMENT
??_C@_07IHMGMGKA@?$CDBATTLE?$AA@ DB '#BATTLE', 00H	; `string'
CONST	ENDS
;	COMDAT ??_C@_05EJCOBEBF@?$CDMOVE?$AA@
CONST	SEGMENT
??_C@_05EJCOBEBF@?$CDMOVE?$AA@ DB '#MOVE', 00H		; `string'
CONST	ENDS
;	COMDAT ??_C@_0CP@OOJHDEOA@?$CFs?$CI?$CFd?$CJ?5?3?5MoverID?$DN?$CFd?5?$LM?$LN?E?M?$LK?m?$LH?$LA?$MA?L?$LI?$KH@
CONST	SEGMENT
??_C@_0CP@OOJHDEOA@?$CFs?$CI?$CFd?$CJ?5?3?5MoverID?$DN?$CFd?5?$LM?$LN?E?M?$LK?m?$LH?$LA?$MA?L?$LI?$KH@ DB '%'
	DB	's(%d) : MoverID=%d ', 0bcH, 0bdH, 0c5H, 0cdH, 0baH, 0edH, 0b7H
	DB	0b0H, 0c0H, 0ccH, 0b8H, 0a7H, 0c0H, 0ccH, ' ', 0c0H, 0ccH, 0bbH
	DB	0f3H, 0c7H, 0d4H, '(%s) ', 00H		; `string'
CONST	ENDS
;	COMDAT ??_C@_0CI@FPILLNG@?$CFs?$CI?$CFd?$CJ?5?3?5MoverID?$DN?$CFd?5?$LM?$LN?E?M?$LK?m?$LH?$LA?$CI?$DM?$CJ?$MA@
CONST	SEGMENT
??_C@_0CI@FPILLNG@?$CFs?$CI?$CFd?$CJ?5?3?5MoverID?$DN?$CFd?5?$LM?$LN?E?M?$LK?m?$LH?$LA?$CI?$DM?$CJ?$MA@ DB '%'
	DB	's(%d) : MoverID=%d ', 0bcH, 0bdH, 0c5H, 0cdH, 0baH, 0edH, 0b7H
	DB	0b0H, '(<)', 0c0H, 0ccH, ' ', 0beH, 0f8H, 0c0H, 0bdH, '.', 00H ; `string'
; Function compile flags: /Ogty
; File c:\documents and settings\test\mes documents\source\virtuos_v17\build\program\_common\projectlux.cpp
CONST	ENDS
;	COMDAT ?LoadPropMoverEx_AI@CProject@@QAEHPBDAAVCScript@@H@Z
_TEXT	SEGMENT
_szFileName$ = 8					; size = 4
_script$ = 12						; size = 4
_nVal$ = 16						; size = 4
?LoadPropMoverEx_AI@CProject@@QAEHPBDAAVCScript@@H@Z PROC NEAR ; CProject::LoadPropMoverEx_AI, COMDAT
; _this$ = ecx

; 423  : {

  00000	55		 push	 ebp
  00001	56		 push	 esi

; 424  : 	script.GetToken();		// {

  00002	8b 74 24 10	 mov	 esi, DWORD PTR _script$[esp+4]
  00006	8b 06		 mov	 eax, DWORD PTR [esi]
  00008	8b e9		 mov	 ebp, ecx
  0000a	6a 00		 push	 0
  0000c	8b ce		 mov	 ecx, esi
  0000e	ff 50 14	 call	 DWORD PTR [eax+20]

; 425  : 
; 426  : 	if( script.token[0] != '{' )

  00011	8b 4e 24	 mov	 ecx, DWORD PTR [esi+36]
  00014	80 39 7b	 cmp	 BYTE PTR [ecx], 123	; 0000007bH

; 427  : 	{
; 428  : 		Error( "%s(%d) : MoverID=%d AI  { .", szFileName, script.GetLineNum(), nVal );

  00017	8b ce		 mov	 ecx, esi
  00019	74 26		 je	 SHORT $L230300
  0001b	8b 54 24 14	 mov	 edx, DWORD PTR _nVal$[esp+4]
  0001f	8b 06		 mov	 eax, DWORD PTR [esi]
  00021	52		 push	 edx
  00022	6a 00		 push	 0
  00024	ff 50 1c	 call	 DWORD PTR [eax+28]
  00027	8b 4c 24 10	 mov	 ecx, DWORD PTR _szFileName$[esp+8]
  0002b	50		 push	 eax
  0002c	51		 push	 ecx
  0002d	68 00 00 00 00	 push	 OFFSET FLAT:??_C@_0CG@JGKNAMHK@?$CFs?$CI?$CFd?$CJ?5?3?5MoverID?$DN?$CFd?5AI?5?$LE?Y?$MA?$LN?$LP?$KB?5?$HL?5@
  00032	e8 00 00 00 00	 call	 ?Error@@YAPBDPBDZZ	; Error
  00037	83 c4 10	 add	 esp, 16			; 00000010H
  0003a	5e		 pop	 esi

; 429  : 		return FALSE;

  0003b	33 c0		 xor	 eax, eax
  0003d	5d		 pop	 ebp

; 471  : }

  0003e	c2 0c 00	 ret	 12			; 0000000cH
$L230300:

; 430  : 	}
; 431  : 
; 432  : 	while(1)
; 433  : 	{
; 434  : 		script.GetToken();

  00041	8b 16		 mov	 edx, DWORD PTR [esi]
  00043	53		 push	 ebx
  00044	57		 push	 edi
  00045	6a 00		 push	 0
  00047	ff 52 14	 call	 DWORD PTR [edx+20]

; 435  : 
; 436  : 		if( script.token[0] == '}' )		//   .

  0004a	8b 46 24	 mov	 eax, DWORD PTR [esi+36]
  0004d	8a 00		 mov	 al, BYTE PTR [eax]
  0004f	3c 7d		 cmp	 al, 125			; 0000007dH
  00051	0f 84 88 00 00
	00		 je	 $L230301
  00057	8b 7c 24 1c	 mov	 edi, DWORD PTR _nVal$[esp+12]
  0005b	8b 5c 24 14	 mov	 ebx, DWORD PTR _szFileName$[esp+12]
  0005f	90		 npad	 1
$L228557:

; 437  : 			break;
; 438  : 
; 439  : 		//   .
; 440  : 		if( script.token[0] == '#' )		// #????   .  #SCAN  .

  00060	3c 23		 cmp	 al, 35			; 00000023H
  00062	0f 85 a9 00 00
	00		 jne	 $L228560

; 441  : 		{
; 442  : //			script.GetToken();	// SCAN/BATTLE/MOVING
; 443  : 			if( strcmpi( script.Token, "#SCAN" ) == 0 )	// 

  00068	8b 46 20	 mov	 eax, DWORD PTR [esi+32]
  0006b	68 00 00 00 00	 push	 OFFSET FLAT:??_C@_05CGLFOOHA@?$CDSCAN?$AA@
  00070	50		 push	 eax
  00071	e8 00 00 00 00	 call	 _strcmpi
  00076	83 c4 08	 add	 esp, 8
  00079	85 c0		 test	 eax, eax
  0007b	75 0c		 jne	 SHORT $L228561

; 444  : 			{
; 445  : 				if( LoadPropMoverEx_AI_SCAN( szFileName, script, nVal ) == FALSE )

  0007d	57		 push	 edi
  0007e	56		 push	 esi
  0007f	53		 push	 ebx
  00080	8b cd		 mov	 ecx, ebp
  00082	e8 00 00 00 00	 call	 ?LoadPropMoverEx_AI_SCAN@CProject@@QAEHPBDAAVCScript@@H@Z ; CProject::LoadPropMoverEx_AI_SCAN

; 446  : 					return FALSE;
; 447  : 			} else

  00087	eb 40		 jmp	 SHORT $L230308
$L228561:

; 448  : 			if( strcmpi( script.Token, "#BATTLE" ) == 0 )	

  00089	8b 46 20	 mov	 eax, DWORD PTR [esi+32]
  0008c	68 00 00 00 00	 push	 OFFSET FLAT:??_C@_07IHMGMGKA@?$CDBATTLE?$AA@
  00091	50		 push	 eax
  00092	e8 00 00 00 00	 call	 _strcmpi
  00097	83 c4 08	 add	 esp, 8
  0009a	85 c0		 test	 eax, eax
  0009c	75 0c		 jne	 SHORT $L228565

; 449  : 			{
; 450  : 				if( LoadPropMoverEx_AI_BATTLE( szFileName, script, nVal ) == FALSE )

  0009e	57		 push	 edi
  0009f	56		 push	 esi
  000a0	53		 push	 ebx
  000a1	8b cd		 mov	 ecx, ebp
  000a3	e8 00 00 00 00	 call	 ?LoadPropMoverEx_AI_BATTLE@CProject@@QAEHPBDAAVCScript@@H@Z ; CProject::LoadPropMoverEx_AI_BATTLE

; 451  : 					return FALSE;
; 452  : 			} else

  000a8	eb 1f		 jmp	 SHORT $L230308
$L228565:

; 453  : 			if( strcmpi( script.Token, "#MOVE" ) == 0 )	

  000aa	8b 46 20	 mov	 eax, DWORD PTR [esi+32]
  000ad	68 00 00 00 00	 push	 OFFSET FLAT:??_C@_05EJCOBEBF@?$CDMOVE?$AA@
  000b2	50		 push	 eax
  000b3	e8 00 00 00 00	 call	 _strcmpi
  000b8	83 c4 08	 add	 esp, 8
  000bb	85 c0		 test	 eax, eax
  000bd	75 2c		 jne	 SHORT $L228569

; 454  : 			{
; 455  : 				if( LoadPropMoverEx_AI_MOVE( szFileName, script, nVal ) == FALSE )

  000bf	57		 push	 edi
  000c0	56		 push	 esi
  000c1	53		 push	 ebx
  000c2	8b cd		 mov	 ecx, ebp
  000c4	e8 00 00 00 00	 call	 ?LoadPropMoverEx_AI_MOVE@CProject@@QAEHPBDAAVCScript@@H@Z ; CProject::LoadPropMoverEx_AI_MOVE
$L230308:
  000c9	85 c0		 test	 eax, eax
  000cb	74 5d		 je	 SHORT $L230302
  000cd	8b 16		 mov	 edx, DWORD PTR [esi]
  000cf	6a 00		 push	 0
  000d1	8b ce		 mov	 ecx, esi
  000d3	ff 52 14	 call	 DWORD PTR [edx+20]
  000d6	8b 46 24	 mov	 eax, DWORD PTR [esi+36]
  000d9	8a 00		 mov	 al, BYTE PTR [eax]
  000db	3c 7d		 cmp	 al, 125			; 0000007dH
  000dd	75 81		 jne	 SHORT $L228557
$L230301:
  000df	5f		 pop	 edi
  000e0	5b		 pop	 ebx
  000e1	5e		 pop	 esi

; 467  : 		}
; 468  : 	}
; 469  : 
; 470  : 	return TRUE;

  000e2	b8 01 00 00 00	 mov	 eax, 1
  000e7	5d		 pop	 ebp

; 471  : }

  000e8	c2 0c 00	 ret	 12			; 0000000cH
$L228569:

; 456  : 					return FALSE;
; 457  : 			} else
; 458  : 			{
; 459  : 				Error( "%s(%d) : MoverID=%d  (%s) ", szFileName, script.GetLineNum(), nVal, script.Token );

  000eb	8b 4e 20	 mov	 ecx, DWORD PTR [esi+32]
  000ee	8b 16		 mov	 edx, DWORD PTR [esi]
  000f0	51		 push	 ecx
  000f1	57		 push	 edi
  000f2	6a 00		 push	 0
  000f4	8b ce		 mov	 ecx, esi
  000f6	ff 52 1c	 call	 DWORD PTR [edx+28]
  000f9	50		 push	 eax
  000fa	53		 push	 ebx
  000fb	68 00 00 00 00	 push	 OFFSET FLAT:??_C@_0CP@OOJHDEOA@?$CFs?$CI?$CFd?$CJ?5?3?5MoverID?$DN?$CFd?5?$LM?$LN?E?M?$LK?m?$LH?$LA?$MA?L?$LI?$KH@
  00100	e8 00 00 00 00	 call	 ?Error@@YAPBDPBDZZ	; Error
  00105	83 c4 14	 add	 esp, 20			; 00000014H
  00108	5f		 pop	 edi
  00109	5b		 pop	 ebx
  0010a	5e		 pop	 esi

; 466  : 			return FALSE;

  0010b	33 c0		 xor	 eax, eax
  0010d	5d		 pop	 ebp

; 471  : }

  0010e	c2 0c 00	 ret	 12			; 0000000cH
$L228560:

; 460  : 				return FALSE;
; 461  : 			}
; 462  : 		} else
; 463  : 		{
; 464  : 			//  .
; 465  : 			Error( "%s(%d) : MoverID=%d (<) .", szFileName, script.GetLineNum(), nVal );

  00111	8b 06		 mov	 eax, DWORD PTR [esi]
  00113	57		 push	 edi
  00114	6a 00		 push	 0
  00116	8b ce		 mov	 ecx, esi
  00118	ff 50 1c	 call	 DWORD PTR [eax+28]
  0011b	50		 push	 eax
  0011c	53		 push	 ebx
  0011d	68 00 00 00 00	 push	 OFFSET FLAT:??_C@_0CI@FPILLNG@?$CFs?$CI?$CFd?$CJ?5?3?5MoverID?$DN?$CFd?5?$LM?$LN?E?M?$LK?m?$LH?$LA?$CI?$DM?$CJ?$MA@
  00122	e8 00 00 00 00	 call	 ?Error@@YAPBDPBDZZ	; Error
  00127	83 c4 10	 add	 esp, 16			; 00000010H
$L230302:
  0012a	5f		 pop	 edi
  0012b	5b		 pop	 ebx
  0012c	5e		 pop	 esi

; 466  : 			return FALSE;

  0012d	33 c0		 xor	 eax, eax
  0012f	5d		 pop	 ebp

; 471  : }

  00130	c2 0c 00	 ret	 12			; 0000000cH
?LoadPropMoverEx_AI@CProject@@QAEHPBDAAVCScript@@H@Z ENDP ; CProject::LoadPropMoverEx_AI
_TEXT	ENDS
END
