; Listing generated by Microsoft (R) Optimizing Compiler Version 13.10.6030 

	TITLE	\Documents and Settings\test\Mes documents\Source\Virtuos_v17\Build\Program\_Common\randomoption.cpp
	.386P
include listing.inc
if @Version gt 510
.model FLAT
else
_TEXT	SEGMENT PARA USE32 PUBLIC 'CODE'
_TEXT	ENDS
_DATA	SEGMENT DWORD USE32 PUBLIC 'DATA'
_DATA	ENDS
CONST	SEGMENT DWORD USE32 PUBLIC 'CONST'
CONST	ENDS
_BSS	SEGMENT DWORD USE32 PUBLIC 'BSS'
_BSS	ENDS
$$SYMBOLS	SEGMENT BYTE USE32 'DEBSYM'
$$SYMBOLS	ENDS
$$TYPES	SEGMENT BYTE USE32 'DEBTYP'
$$TYPES	ENDS
_TLS	SEGMENT DWORD USE32 PUBLIC 'TLS'
_TLS	ENDS
;	COMDAT ??_C@_0CH@GDAGBDLK@Awakening?3?5nDst?5?$DN?5?$CFd?0?5dwTotalPro@
CONST	SEGMENT DWORD USE32 PUBLIC 'CONST'
CONST	ENDS
;	COMDAT ??_C@_09DMNPBJDH@Awakening?$AA@
CONST	SEGMENT DWORD USE32 PUBLIC 'CONST'
CONST	ENDS
;	COMDAT ??_C@_08KKEHFANF@Blessing?$AA@
CONST	SEGMENT DWORD USE32 PUBLIC 'CONST'
CONST	ENDS
;	COMDAT ??_C@_09NPHHCKIJ@SystemPet?$AA@
CONST	SEGMENT DWORD USE32 PUBLIC 'CONST'
CONST	ENDS
;	COMDAT ??_C@_06HFBIFKDE@EatPet?$AA@
CONST	SEGMENT DWORD USE32 PUBLIC 'CONST'
CONST	ENDS
;	COMDAT ??_C@_0DC@KGDBDMMM@CRandomOptionProperty?4DetermineR@
CONST	SEGMENT DWORD USE32 PUBLIC 'CONST'
CONST	ENDS
;	COMDAT ??_C@_0DB@BIDMLGEE@pn64RandomOption?5is?5NULL?5in?5SetS@
CONST	SEGMENT DWORD USE32 PUBLIC 'CONST'
CONST	ENDS
;	COMDAT ??_C@_0DK@LIADPBBI@bCheckedSafeFlag?5is?5already?5true@
CONST	SEGMENT DWORD USE32 PUBLIC 'CONST'
CONST	ENDS
;	COMDAT ??_C@_0DD@LJDGNMPF@pn64RandomOption?5is?5NULL?5in?5Rese@
CONST	SEGMENT DWORD USE32 PUBLIC 'CONST'
CONST	ENDS
;	COMDAT ??_C@_0DN@MEFMADHD@bCheckedSafeFlag?5is?5already?5fals@
CONST	SEGMENT DWORD USE32 PUBLIC 'CONST'
CONST	ENDS
text$yd	SEGMENT PARA USE32 PUBLIC 'CODE'
text$yd	ENDS
xdata$x	SEGMENT DWORD USE32 PUBLIC 'CONST'
xdata$x	ENDS
text$AFX_COL1	SEGMENT PARA USE32 PUBLIC ''
text$AFX_COL1	ENDS
;	COMDAT ??0_AdjData@@QAE@FK@Z
_TEXT	SEGMENT PARA USE32 PUBLIC 'CODE'
_TEXT	ENDS
;	COMDAT ??0_RANDOM_OPTION@@QAE@XZ
_TEXT	SEGMENT PARA USE32 PUBLIC 'CODE'
_TEXT	ENDS
;	COMDAT ??0_RANDOM_OPTION@@QAE@PAU0@@Z
_TEXT	SEGMENT PARA USE32 PUBLIC 'CODE'
_TEXT	ENDS
;	COMDAT ??0CRandomOptionProperty@@QAE@XZ
_TEXT	SEGMENT PARA USE32 PUBLIC 'CODE'
_TEXT	ENDS
;	COMDAT ??_GCRandomOptionProperty@@UAEPAXI@Z
_TEXT	SEGMENT PARA USE32 PUBLIC 'CODE'
_TEXT	ENDS
;	COMDAT ??1CRandomOptionProperty@@UAE@XZ
_TEXT	SEGMENT PARA USE32 PUBLIC 'CODE'
_TEXT	ENDS
;	COMDAT ?GetInstance@CRandomOptionProperty@@SAPAV1@XZ
_TEXT	SEGMENT PARA USE32 PUBLIC 'CODE'
_TEXT	ENDS
;	COMDAT _$E2
text$yd	SEGMENT PARA USE32 PUBLIC 'CODE'
text$yd	ENDS
;	COMDAT ?LoadScriptBlock@CRandomOptionProperty@@QAEXAAVCScript@@H@Z
_TEXT	SEGMENT PARA USE32 PUBLIC 'CODE'
_TEXT	ENDS
;	COMDAT ??1_RANDOM_OPTION@@QAE@XZ
_TEXT	SEGMENT PARA USE32 PUBLIC 'CODE'
_TEXT	ENDS
;	COMDAT ?LoadScript@CRandomOptionProperty@@QAEHPBD@Z
_TEXT	SEGMENT PARA USE32 PUBLIC 'CODE'
_TEXT	ENDS
;	COMDAT ?SetParam@CRandomOptionProperty@@QAEXPA_JHH@Z
_TEXT	SEGMENT PARA USE32 PUBLIC 'CODE'
_TEXT	ENDS
;	COMDAT ?GetRandomOptionKind@CRandomOptionProperty@@QAEHPAVCItemElem@@@Z
_TEXT	SEGMENT PARA USE32 PUBLIC 'CODE'
_TEXT	ENDS
;	COMDAT ?GetParam@CRandomOptionProperty@@QAEH_JHPAH1@Z
_TEXT	SEGMENT PARA USE32 PUBLIC 'CODE'
_TEXT	ENDS
;	COMDAT ?GetRandomOptionSize@CRandomOptionProperty@@QAEH_J@Z
_TEXT	SEGMENT PARA USE32 PUBLIC 'CODE'
_TEXT	ENDS
;	COMDAT ?GetViewRandomOptionSize@CRandomOptionProperty@@QAEH_J@Z
_TEXT	SEGMENT PARA USE32 PUBLIC 'CODE'
_TEXT	ENDS
;	COMDAT ?GenRandomOption@CRandomOptionProperty@@QAEHPA_JHH_N@Z
_TEXT	SEGMENT PARA USE32 PUBLIC 'CODE'
_TEXT	ENDS
;	COMDAT ?DetermineRandomOptionSize@CRandomOptionProperty@@AAEHH@Z
_TEXT	SEGMENT PARA USE32 PUBLIC 'CODE'
_TEXT	ENDS
;	COMDAT ?DetermineRandomOptionDst@CRandomOptionProperty@@AAEPAU_RANDOM_OPTION@@HH@Z
_TEXT	SEGMENT PARA USE32 PUBLIC 'CODE'
_TEXT	ENDS
;	COMDAT ?DetermineRandomOptionAdj@CRandomOptionProperty@@AAEFPAU_RANDOM_OPTION@@_N@Z
_TEXT	SEGMENT PARA USE32 PUBLIC 'CODE'
_TEXT	ENDS
;	COMDAT ?GetRandomOptionKindIndex@CRandomOptionProperty@@AAEHHH@Z
_TEXT	SEGMENT PARA USE32 PUBLIC 'CODE'
_TEXT	ENDS
;	COMDAT ?InitializeRandomOption@CRandomOptionProperty@@QAEXPA_J@Z
_TEXT	SEGMENT PARA USE32 PUBLIC 'CODE'
_TEXT	ENDS
;	COMDAT ?SetSafeFlag@CRandomOptionProperty@@QAEXPA_J@Z
_TEXT	SEGMENT PARA USE32 PUBLIC 'CODE'
_TEXT	ENDS
;	COMDAT ?ResetSafeFlag@CRandomOptionProperty@@QAEXPA_J@Z
_TEXT	SEGMENT PARA USE32 PUBLIC 'CODE'
_TEXT	ENDS
;	COMDAT ?IsCheckedSafeFlag@CRandomOptionProperty@@QAE_N_J@Z
_TEXT	SEGMENT PARA USE32 PUBLIC 'CODE'
_TEXT	ENDS
;	COMDAT ?MergeRandomOption@CRandomOptionProperty@@QAEHPAVCItemElem@@0H@Z
_TEXT	SEGMENT PARA USE32 PUBLIC 'CODE'
_TEXT	ENDS
;	COMDAT ?AwakeningExtension@CRandomOptionProperty@@AAEXXZ
_TEXT	SEGMENT PARA USE32 PUBLIC 'CODE'
_TEXT	ENDS
;	COMDAT ?GetUpperProbability@CRandomOptionProperty@@AAEHH@Z
_TEXT	SEGMENT PARA USE32 PUBLIC 'CODE'
_TEXT	ENDS
;	COMDAT ??8ATL@@YA_NABV?$CStringT@DV?$StrTraitMFC@DV?$ChTraitsCRT@D@ATL@@@@@0@PBD@Z
_TEXT	SEGMENT PARA USE32 PUBLIC 'CODE'
_TEXT	ENDS
;	COMDAT ?compare@?$basic_string@DU?$char_traits@D@std@@V?$allocator@D@2@@std@@QBEHABV12@@Z
_TEXT	SEGMENT PARA USE32 PUBLIC 'CODE'
_TEXT	ENDS
;	COMDAT ?IsFull@?$CStack@K@@QAEHXZ
_TEXT	SEGMENT PARA USE32 PUBLIC 'CODE'
_TEXT	ENDS
;	COMDAT ??0?$pair@KPAVCCtrl@@@std@@QAE@ABKABQAVCCtrl@@@Z
_TEXT	SEGMENT PARA USE32 PUBLIC 'CODE'
_TEXT	ENDS
;	COMDAT ?GetMax@?$CItemContainer@VCItemElem@@@@QAEHXZ
_TEXT	SEGMENT PARA USE32 PUBLIC 'CODE'
_TEXT	ENDS
;	COMDAT ??0?$deque@PAUtagACTMSG@@V?$allocator@PAUtagACTMSG@@@std@@@std@@QAE@XZ
_TEXT	SEGMENT PARA USE32 PUBLIC 'CODE'
_TEXT	ENDS
;	COMDAT ??1?$deque@PAUtagACTMSG@@V?$allocator@PAUtagACTMSG@@@std@@@std@@QAE@XZ
_TEXT	SEGMENT PARA USE32 PUBLIC 'CODE'
_TEXT	ENDS
;	COMDAT ?begin@?$deque@PAUtagACTMSG@@V?$allocator@PAUtagACTMSG@@@std@@@std@@QAE?AViterator@12@XZ
_TEXT	SEGMENT PARA USE32 PUBLIC 'CODE'
_TEXT	ENDS
;	COMDAT ?end@?$deque@PAUtagACTMSG@@V?$allocator@PAUtagACTMSG@@@std@@@std@@QAE?AViterator@12@XZ
_TEXT	SEGMENT PARA USE32 PUBLIC 'CODE'
_TEXT	ENDS
;	COMDAT ?empty@?$deque@PAUtagACTMSG@@V?$allocator@PAUtagACTMSG@@@std@@@std@@QBE_NXZ
_TEXT	SEGMENT PARA USE32 PUBLIC 'CODE'
_TEXT	ENDS
;	COMDAT ?clear@?$deque@PAUtagACTMSG@@V?$allocator@PAUtagACTMSG@@@std@@@std@@QAEXXZ
_TEXT	SEGMENT PARA USE32 PUBLIC 'CODE'
_TEXT	ENDS
;	COMDAT ??0?$deque@PAUtagMAGICATKMSG@@V?$allocator@PAUtagMAGICATKMSG@@@std@@@std@@QAE@XZ
_TEXT	SEGMENT PARA USE32 PUBLIC 'CODE'
_TEXT	ENDS
;	COMDAT ??1?$deque@PAUtagMAGICATKMSG@@V?$allocator@PAUtagMAGICATKMSG@@@std@@@std@@QAE@XZ
_TEXT	SEGMENT PARA USE32 PUBLIC 'CODE'
_TEXT	ENDS
;	COMDAT ?begin@?$deque@PAUtagMAGICATKMSG@@V?$allocator@PAUtagMAGICATKMSG@@@std@@@std@@QAE?AViterator@12@XZ
_TEXT	SEGMENT PARA USE32 PUBLIC 'CODE'
_TEXT	ENDS
;	COMDAT ?end@?$deque@PAUtagMAGICATKMSG@@V?$allocator@PAUtagMAGICATKMSG@@@std@@@std@@QAE?AViterator@12@XZ
_TEXT	SEGMENT PARA USE32 PUBLIC 'CODE'
_TEXT	ENDS
;	COMDAT ?empty@?$deque@PAUtagMAGICATKMSG@@V?$allocator@PAUtagMAGICATKMSG@@@std@@@std@@QBE_NXZ
_TEXT	SEGMENT PARA USE32 PUBLIC 'CODE'
_TEXT	ENDS
;	COMDAT ?clear@?$deque@PAUtagMAGICATKMSG@@V?$allocator@PAUtagMAGICATKMSG@@@std@@@std@@QAEXXZ
_TEXT	SEGMENT PARA USE32 PUBLIC 'CODE'
_TEXT	ENDS
;	COMDAT ??Diterator@?$deque@PAUtagACTMSG@@V?$allocator@PAUtagACTMSG@@@std@@@std@@QBEAAPAUtagACTMSG@@XZ
_TEXT	SEGMENT PARA USE32 PUBLIC 'CODE'
_TEXT	ENDS
;	COMDAT ??Eiterator@?$deque@PAUtagACTMSG@@V?$allocator@PAUtagACTMSG@@@std@@@std@@QAEAAV012@XZ
_TEXT	SEGMENT PARA USE32 PUBLIC 'CODE'
_TEXT	ENDS
;	COMDAT ??9const_iterator@?$deque@PAUtagACTMSG@@V?$allocator@PAUtagACTMSG@@@std@@@std@@QBE_NABV012@@Z
_TEXT	SEGMENT PARA USE32 PUBLIC 'CODE'
_TEXT	ENDS
;	COMDAT ??Diterator@?$deque@PAUtagMAGICATKMSG@@V?$allocator@PAUtagMAGICATKMSG@@@std@@@std@@QBEAAPAUtagMAGICATKMSG@@XZ
_TEXT	SEGMENT PARA USE32 PUBLIC 'CODE'
_TEXT	ENDS
;	COMDAT ??Eiterator@?$deque@PAUtagMAGICATKMSG@@V?$allocator@PAUtagMAGICATKMSG@@@std@@@std@@QAEAAV012@XZ
_TEXT	SEGMENT PARA USE32 PUBLIC 'CODE'
_TEXT	ENDS
;	COMDAT ??9const_iterator@?$deque@PAUtagMAGICATKMSG@@V?$allocator@PAUtagMAGICATKMSG@@@std@@@std@@QBE_NABV012@@Z
_TEXT	SEGMENT PARA USE32 PUBLIC 'CODE'
_TEXT	ENDS
;	COMDAT ??0?$vector@U_AdjData@@V?$allocator@U_AdjData@@@std@@@std@@QAE@XZ
_TEXT	SEGMENT PARA USE32 PUBLIC 'CODE'
_TEXT	ENDS
;	COMDAT ??1?$vector@U_AdjData@@V?$allocator@U_AdjData@@@std@@@std@@QAE@XZ
_TEXT	SEGMENT PARA USE32 PUBLIC 'CODE'
_TEXT	ENDS
;	COMDAT ?begin@?$vector@U_AdjData@@V?$allocator@U_AdjData@@@std@@@std@@QAE?AViterator@12@XZ
_TEXT	SEGMENT PARA USE32 PUBLIC 'CODE'
_TEXT	ENDS
;	COMDAT ?end@?$vector@U_AdjData@@V?$allocator@U_AdjData@@@std@@@std@@QAE?AViterator@12@XZ
_TEXT	SEGMENT PARA USE32 PUBLIC 'CODE'
_TEXT	ENDS
;	COMDAT ?size@?$vector@U_AdjData@@V?$allocator@U_AdjData@@@std@@@std@@QBEIXZ
_TEXT	SEGMENT PARA USE32 PUBLIC 'CODE'
_TEXT	ENDS
;	COMDAT ??A?$vector@U_AdjData@@V?$allocator@U_AdjData@@@std@@@std@@QAEAAU_AdjData@@I@Z
_TEXT	SEGMENT PARA USE32 PUBLIC 'CODE'
_TEXT	ENDS
;	COMDAT ?push_back@?$vector@U_AdjData@@V?$allocator@U_AdjData@@@std@@@std@@QAEXABU_AdjData@@@Z
_TEXT	SEGMENT PARA USE32 PUBLIC 'CODE'
_TEXT	ENDS
;	COMDAT ?clear@?$vector@U_AdjData@@V?$allocator@U_AdjData@@@std@@@std@@QAEXXZ
_TEXT	SEGMENT PARA USE32 PUBLIC 'CODE'
_TEXT	ENDS
;	COMDAT ??0?$vector@U_RANDOM_OPTION@@V?$allocator@U_RANDOM_OPTION@@@std@@@std@@QAE@XZ
_TEXT	SEGMENT PARA USE32 PUBLIC 'CODE'
_TEXT	ENDS
;	COMDAT ??1?$vector@U_RANDOM_OPTION@@V?$allocator@U_RANDOM_OPTION@@@std@@@std@@QAE@XZ
_TEXT	SEGMENT PARA USE32 PUBLIC 'CODE'
_TEXT	ENDS
;	COMDAT ?size@?$vector@U_RANDOM_OPTION@@V?$allocator@U_RANDOM_OPTION@@@std@@@std@@QBEIXZ
_TEXT	SEGMENT PARA USE32 PUBLIC 'CODE'
_TEXT	ENDS
;	COMDAT ??A?$vector@U_RANDOM_OPTION@@V?$allocator@U_RANDOM_OPTION@@@std@@@std@@QAEAAU_RANDOM_OPTION@@I@Z
_TEXT	SEGMENT PARA USE32 PUBLIC 'CODE'
_TEXT	ENDS
;	COMDAT ?push_back@?$vector@U_RANDOM_OPTION@@V?$allocator@U_RANDOM_OPTION@@@std@@@std@@QAEXABU_RANDOM_OPTION@@@Z
_TEXT	SEGMENT PARA USE32 PUBLIC 'CODE'
_TEXT	ENDS
;	COMDAT ?Compare@?$CStringT@DV?$StrTraitMFC@DV?$ChTraitsCRT@D@ATL@@@@@ATL@@QBEHPBD@Z
_TEXT	SEGMENT PARA USE32 PUBLIC 'CODE'
_TEXT	ENDS
;	COMDAT ?compare@?$basic_string@DU?$char_traits@D@std@@V?$allocator@D@2@@std@@QBEHIIPBDI@Z
_TEXT	SEGMENT PARA USE32 PUBLIC 'CODE'
_TEXT	ENDS
;	COMDAT ?_Tidy@?$deque@PAUtagACTMSG@@V?$allocator@PAUtagACTMSG@@@std@@@std@@IAEXXZ
_TEXT	SEGMENT PARA USE32 PUBLIC 'CODE'
_TEXT	ENDS
;	COMDAT ??0?$_Deque_val@PAUtagACTMSG@@V?$allocator@PAUtagACTMSG@@@std@@@std@@IAE@V?$allocator@PAUtagACTMSG@@@1@@Z
_TEXT	SEGMENT PARA USE32 PUBLIC 'CODE'
_TEXT	ENDS
;	COMDAT ??0?$allocator@PAUtagACTMSG@@@std@@QAE@XZ
_TEXT	SEGMENT PARA USE32 PUBLIC 'CODE'
_TEXT	ENDS
;	COMDAT ?_Tidy@?$deque@PAUtagMAGICATKMSG@@V?$allocator@PAUtagMAGICATKMSG@@@std@@@std@@IAEXXZ
_TEXT	SEGMENT PARA USE32 PUBLIC 'CODE'
_TEXT	ENDS
;	COMDAT ??0?$_Deque_val@PAUtagMAGICATKMSG@@V?$allocator@PAUtagMAGICATKMSG@@@std@@@std@@IAE@V?$allocator@PAUtagMAGICATKMSG@@@1@@Z
_TEXT	SEGMENT PARA USE32 PUBLIC 'CODE'
_TEXT	ENDS
;	COMDAT ??0?$allocator@PAUtagMAGICATKMSG@@@std@@QAE@XZ
_TEXT	SEGMENT PARA USE32 PUBLIC 'CODE'
_TEXT	ENDS
;	COMDAT ??0iterator@?$deque@PAUtagACTMSG@@V?$allocator@PAUtagACTMSG@@@std@@@std@@QAE@IPBV12@@Z
_TEXT	SEGMENT PARA USE32 PUBLIC 'CODE'
_TEXT	ENDS
;	COMDAT ??Dconst_iterator@?$deque@PAUtagACTMSG@@V?$allocator@PAUtagACTMSG@@@std@@@std@@QBEABQAUtagACTMSG@@XZ
_TEXT	SEGMENT PARA USE32 PUBLIC 'CODE'
_TEXT	ENDS
;	COMDAT ??8const_iterator@?$deque@PAUtagACTMSG@@V?$allocator@PAUtagACTMSG@@@std@@@std@@QBE_NABV012@@Z
_TEXT	SEGMENT PARA USE32 PUBLIC 'CODE'
_TEXT	ENDS
;	COMDAT ??0iterator@?$deque@PAUtagMAGICATKMSG@@V?$allocator@PAUtagMAGICATKMSG@@@std@@@std@@QAE@IPBV12@@Z
_TEXT	SEGMENT PARA USE32 PUBLIC 'CODE'
_TEXT	ENDS
;	COMDAT ??Dconst_iterator@?$deque@PAUtagMAGICATKMSG@@V?$allocator@PAUtagMAGICATKMSG@@@std@@@std@@QBEABQAUtagMAGICATKMSG@@XZ
_TEXT	SEGMENT PARA USE32 PUBLIC 'CODE'
_TEXT	ENDS
;	COMDAT ??8const_iterator@?$deque@PAUtagMAGICATKMSG@@V?$allocator@PAUtagMAGICATKMSG@@@std@@@std@@QBE_NABV012@@Z
_TEXT	SEGMENT PARA USE32 PUBLIC 'CODE'
_TEXT	ENDS
;	COMDAT ?capacity@?$vector@U_AdjData@@V?$allocator@U_AdjData@@@std@@@std@@QBEIXZ
_TEXT	SEGMENT PARA USE32 PUBLIC 'CODE'
_TEXT	ENDS
;	COMDAT ?insert@?$vector@U_AdjData@@V?$allocator@U_AdjData@@@std@@@std@@QAE?AViterator@12@V312@ABU_AdjData@@@Z
_TEXT	SEGMENT PARA USE32 PUBLIC 'CODE'
_TEXT	ENDS
;	COMDAT ?_Buy@?$vector@U_AdjData@@V?$allocator@U_AdjData@@@std@@@std@@IAE_NI@Z
_TEXT	SEGMENT PARA USE32 PUBLIC 'CODE'
_TEXT	ENDS
;	COMDAT ?_Tidy@?$vector@U_AdjData@@V?$allocator@U_AdjData@@@std@@@std@@IAEXXZ
_TEXT	SEGMENT PARA USE32 PUBLIC 'CODE'
_TEXT	ENDS
;	COMDAT ?_Ufill@?$vector@U_AdjData@@V?$allocator@U_AdjData@@@std@@@std@@IAEPAU_AdjData@@PAU3@IABU3@@Z
_TEXT	SEGMENT PARA USE32 PUBLIC 'CODE'
_TEXT	ENDS
;	COMDAT ??0?$_Vector_val@U_AdjData@@V?$allocator@U_AdjData@@@std@@@std@@IAE@V?$allocator@U_AdjData@@@1@@Z
_TEXT	SEGMENT PARA USE32 PUBLIC 'CODE'
_TEXT	ENDS
;	COMDAT ??0?$allocator@U_AdjData@@@std@@QAE@XZ
_TEXT	SEGMENT PARA USE32 PUBLIC 'CODE'
_TEXT	ENDS
;	COMDAT ??0iterator@?$vector@U_AdjData@@V?$allocator@U_AdjData@@@std@@@std@@QAE@PAU_AdjData@@@Z
_TEXT	SEGMENT PARA USE32 PUBLIC 'CODE'
_TEXT	ENDS
;	COMDAT ??Diterator@?$vector@U_AdjData@@V?$allocator@U_AdjData@@@std@@@std@@QBEAAU_AdjData@@XZ
_TEXT	SEGMENT PARA USE32 PUBLIC 'CODE'
_TEXT	ENDS
;	COMDAT ??Hiterator@?$vector@U_AdjData@@V?$allocator@U_AdjData@@@std@@@std@@QBE?AV012@H@Z
_TEXT	SEGMENT PARA USE32 PUBLIC 'CODE'
_TEXT	ENDS
;	COMDAT ?capacity@?$vector@U_RANDOM_OPTION@@V?$allocator@U_RANDOM_OPTION@@@std@@@std@@QBEIXZ
_TEXT	SEGMENT PARA USE32 PUBLIC 'CODE'
_TEXT	ENDS
;	COMDAT ?begin@?$vector@U_RANDOM_OPTION@@V?$allocator@U_RANDOM_OPTION@@@std@@@std@@QAE?AViterator@12@XZ
_TEXT	SEGMENT PARA USE32 PUBLIC 'CODE'
_TEXT	ENDS
;	COMDAT ?end@?$vector@U_RANDOM_OPTION@@V?$allocator@U_RANDOM_OPTION@@@std@@@std@@QAE?AViterator@12@XZ
_TEXT	SEGMENT PARA USE32 PUBLIC 'CODE'
_TEXT	ENDS
;	COMDAT ?insert@?$vector@U_RANDOM_OPTION@@V?$allocator@U_RANDOM_OPTION@@@std@@@std@@QAE?AViterator@12@V312@ABU_RANDOM_OPTION@@@Z
_TEXT	SEGMENT PARA USE32 PUBLIC 'CODE'
_TEXT	ENDS
;	COMDAT ?_Buy@?$vector@U_RANDOM_OPTION@@V?$allocator@U_RANDOM_OPTION@@@std@@@std@@IAE_NI@Z
_TEXT	SEGMENT PARA USE32 PUBLIC 'CODE'
_TEXT	ENDS
;	COMDAT ?_Tidy@?$vector@U_RANDOM_OPTION@@V?$allocator@U_RANDOM_OPTION@@@std@@@std@@IAEXXZ
_TEXT	SEGMENT PARA USE32 PUBLIC 'CODE'
_TEXT	ENDS
;	COMDAT ?_Ufill@?$vector@U_RANDOM_OPTION@@V?$allocator@U_RANDOM_OPTION@@@std@@@std@@IAEPAU_RANDOM_OPTION@@PAU3@IABU3@@Z
_TEXT	SEGMENT PARA USE32 PUBLIC 'CODE'
_TEXT	ENDS
;	COMDAT ??0?$_Vector_val@U_RANDOM_OPTION@@V?$allocator@U_RANDOM_OPTION@@@std@@@std@@IAE@V?$allocator@U_RANDOM_OPTION@@@1@@Z
_TEXT	SEGMENT PARA USE32 PUBLIC 'CODE'
_TEXT	ENDS
;	COMDAT ??0?$allocator@U_RANDOM_OPTION@@@std@@QAE@XZ
_TEXT	SEGMENT PARA USE32 PUBLIC 'CODE'
_TEXT	ENDS
;	COMDAT ??Diterator@?$vector@U_RANDOM_OPTION@@V?$allocator@U_RANDOM_OPTION@@@std@@@std@@QBEAAU_RANDOM_OPTION@@XZ
_TEXT	SEGMENT PARA USE32 PUBLIC 'CODE'
_TEXT	ENDS
;	COMDAT ??Hiterator@?$vector@U_RANDOM_OPTION@@V?$allocator@U_RANDOM_OPTION@@@std@@@std@@QBE?AV012@H@Z
_TEXT	SEGMENT PARA USE32 PUBLIC 'CODE'
_TEXT	ENDS
;	COMDAT ?StringCompare@?$ChTraitsCRT@D@ATL@@SAHPBD0@Z
_TEXT	SEGMENT PARA USE32 PUBLIC 'CODE'
_TEXT	ENDS
;	COMDAT ?pop_back@?$deque@PAUtagACTMSG@@V?$allocator@PAUtagACTMSG@@@std@@@std@@QAEXXZ
_TEXT	SEGMENT PARA USE32 PUBLIC 'CODE'
_TEXT	ENDS
;	COMDAT ??0?$_Deque_map@PAUtagACTMSG@@V?$allocator@PAUtagACTMSG@@@std@@@std@@IAE@V?$allocator@PAUtagACTMSG@@@1@@Z
_TEXT	SEGMENT PARA USE32 PUBLIC 'CODE'
_TEXT	ENDS
;	COMDAT ??0?$allocator@PAUtagACTMSG@@@std@@QAE@ABV01@@Z
_TEXT	SEGMENT PARA USE32 PUBLIC 'CODE'
_TEXT	ENDS
;	COMDAT ?deallocate@?$allocator@PAUtagACTMSG@@@std@@QAEXPAPAUtagACTMSG@@I@Z
_TEXT	SEGMENT PARA USE32 PUBLIC 'CODE'
_TEXT	ENDS
;	COMDAT ?deallocate@?$allocator@PAPAUtagACTMSG@@@std@@QAEXPAPAPAUtagACTMSG@@I@Z
_TEXT	SEGMENT PARA USE32 PUBLIC 'CODE'
_TEXT	ENDS
;	COMDAT ?destroy@?$allocator@PAPAUtagACTMSG@@@std@@QAEXPAPAPAUtagACTMSG@@@Z
_TEXT	SEGMENT PARA USE32 PUBLIC 'CODE'
_TEXT	ENDS
;	COMDAT ?pop_back@?$deque@PAUtagMAGICATKMSG@@V?$allocator@PAUtagMAGICATKMSG@@@std@@@std@@QAEXXZ
_TEXT	SEGMENT PARA USE32 PUBLIC 'CODE'
_TEXT	ENDS
;	COMDAT ??0?$_Deque_map@PAUtagMAGICATKMSG@@V?$allocator@PAUtagMAGICATKMSG@@@std@@@std@@IAE@V?$allocator@PAUtagMAGICATKMSG@@@1@@Z
_TEXT	SEGMENT PARA USE32 PUBLIC 'CODE'
_TEXT	ENDS
;	COMDAT ??0?$allocator@PAUtagMAGICATKMSG@@@std@@QAE@ABV01@@Z
_TEXT	SEGMENT PARA USE32 PUBLIC 'CODE'
_TEXT	ENDS
;	COMDAT ?deallocate@?$allocator@PAUtagMAGICATKMSG@@@std@@QAEXPAPAUtagMAGICATKMSG@@I@Z
_TEXT	SEGMENT PARA USE32 PUBLIC 'CODE'
_TEXT	ENDS
;	COMDAT ?deallocate@?$allocator@PAPAUtagMAGICATKMSG@@@std@@QAEXPAPAPAUtagMAGICATKMSG@@I@Z
_TEXT	SEGMENT PARA USE32 PUBLIC 'CODE'
_TEXT	ENDS
;	COMDAT ?destroy@?$allocator@PAPAUtagMAGICATKMSG@@@std@@QAEXPAPAPAUtagMAGICATKMSG@@@Z
_TEXT	SEGMENT PARA USE32 PUBLIC 'CODE'
_TEXT	ENDS
;	COMDAT ??0const_iterator@?$deque@PAUtagACTMSG@@V?$allocator@PAUtagACTMSG@@@std@@@std@@QAE@IPBV12@@Z
_TEXT	SEGMENT PARA USE32 PUBLIC 'CODE'
_TEXT	ENDS
;	COMDAT ??0const_iterator@?$deque@PAUtagMAGICATKMSG@@V?$allocator@PAUtagMAGICATKMSG@@@std@@@std@@QAE@IPBV12@@Z
_TEXT	SEGMENT PARA USE32 PUBLIC 'CODE'
_TEXT	ENDS
;	COMDAT ?max_size@?$vector@U_AdjData@@V?$allocator@U_AdjData@@@std@@@std@@QBEIXZ
_TEXT	SEGMENT PARA USE32 PUBLIC 'CODE'
_TEXT	ENDS
;	COMDAT ?_Destroy@?$vector@U_AdjData@@V?$allocator@U_AdjData@@@std@@@std@@IAEXPAU_AdjData@@0@Z
_TEXT	SEGMENT PARA USE32 PUBLIC 'CODE'
_TEXT	ENDS
;	COMDAT ?_Insert_n@?$vector@U_AdjData@@V?$allocator@U_AdjData@@@std@@@std@@IAEXViterator@12@IABU_AdjData@@@Z
_TEXT	SEGMENT PARA USE32 PUBLIC 'CODE'
_TEXT	ENDS
;	COMDAT ?_Xlen@?$vector@U_AdjData@@V?$allocator@U_AdjData@@@std@@@std@@IBEXXZ
_TEXT	SEGMENT PARA USE32 PUBLIC 'CODE'
_TEXT	ENDS
;	COMDAT ??0?$allocator@U_AdjData@@@std@@QAE@ABV01@@Z
_TEXT	SEGMENT PARA USE32 PUBLIC 'CODE'
_TEXT	ENDS
;	COMDAT ?deallocate@?$allocator@U_AdjData@@@std@@QAEXPAU_AdjData@@I@Z
_TEXT	SEGMENT PARA USE32 PUBLIC 'CODE'
_TEXT	ENDS
;	COMDAT ?allocate@?$allocator@U_AdjData@@@std@@QAEPAU_AdjData@@I@Z
_TEXT	SEGMENT PARA USE32 PUBLIC 'CODE'
_TEXT	ENDS
;	COMDAT ??Yiterator@?$vector@U_AdjData@@V?$allocator@U_AdjData@@@std@@@std@@QAEAAV012@H@Z
_TEXT	SEGMENT PARA USE32 PUBLIC 'CODE'
_TEXT	ENDS
;	COMDAT ??Giterator@?$vector@U_AdjData@@V?$allocator@U_AdjData@@@std@@@std@@QBEHABVconst_iterator@12@@Z
_TEXT	SEGMENT PARA USE32 PUBLIC 'CODE'
_TEXT	ENDS
;	COMDAT ??0const_iterator@?$vector@U_AdjData@@V?$allocator@U_AdjData@@@std@@@std@@QAE@PAU_AdjData@@@Z
_TEXT	SEGMENT PARA USE32 PUBLIC 'CODE'
_TEXT	ENDS
;	COMDAT ??Dconst_iterator@?$vector@U_AdjData@@V?$allocator@U_AdjData@@@std@@@std@@QBEABU_AdjData@@XZ
_TEXT	SEGMENT PARA USE32 PUBLIC 'CODE'
_TEXT	ENDS
;	COMDAT ?max_size@?$vector@U_RANDOM_OPTION@@V?$allocator@U_RANDOM_OPTION@@@std@@@std@@QBEIXZ
_TEXT	SEGMENT PARA USE32 PUBLIC 'CODE'
_TEXT	ENDS
;	COMDAT ?_Destroy@?$vector@U_RANDOM_OPTION@@V?$allocator@U_RANDOM_OPTION@@@std@@@std@@IAEXPAU_RANDOM_OPTION@@0@Z
_TEXT	SEGMENT PARA USE32 PUBLIC 'CODE'
_TEXT	ENDS
;	COMDAT ?_Insert_n@?$vector@U_RANDOM_OPTION@@V?$allocator@U_RANDOM_OPTION@@@std@@@std@@IAEXViterator@12@IABU_RANDOM_OPTION@@@Z
_TEXT	SEGMENT PARA USE32 PUBLIC 'CODE'
_TEXT	ENDS
;	COMDAT ?_Xlen@?$vector@U_RANDOM_OPTION@@V?$allocator@U_RANDOM_OPTION@@@std@@@std@@IBEXXZ
_TEXT	SEGMENT PARA USE32 PUBLIC 'CODE'
_TEXT	ENDS
;	COMDAT ??0?$allocator@U_RANDOM_OPTION@@@std@@QAE@ABV01@@Z
_TEXT	SEGMENT PARA USE32 PUBLIC 'CODE'
_TEXT	ENDS
;	COMDAT ?deallocate@?$allocator@U_RANDOM_OPTION@@@std@@QAEXPAU_RANDOM_OPTION@@I@Z
_TEXT	SEGMENT PARA USE32 PUBLIC 'CODE'
_TEXT	ENDS
;	COMDAT ?allocate@?$allocator@U_RANDOM_OPTION@@@std@@QAEPAU_RANDOM_OPTION@@I@Z
_TEXT	SEGMENT PARA USE32 PUBLIC 'CODE'
_TEXT	ENDS
;	COMDAT ??0iterator@?$vector@U_RANDOM_OPTION@@V?$allocator@U_RANDOM_OPTION@@@std@@@std@@QAE@PAU_RANDOM_OPTION@@@Z
_TEXT	SEGMENT PARA USE32 PUBLIC 'CODE'
_TEXT	ENDS
;	COMDAT ??Yiterator@?$vector@U_RANDOM_OPTION@@V?$allocator@U_RANDOM_OPTION@@@std@@@std@@QAEAAV012@H@Z
_TEXT	SEGMENT PARA USE32 PUBLIC 'CODE'
_TEXT	ENDS
;	COMDAT ??Giterator@?$vector@U_RANDOM_OPTION@@V?$allocator@U_RANDOM_OPTION@@@std@@@std@@QBEHABVconst_iterator@12@@Z
_TEXT	SEGMENT PARA USE32 PUBLIC 'CODE'
_TEXT	ENDS
;	COMDAT ??Dconst_iterator@?$vector@U_RANDOM_OPTION@@V?$allocator@U_RANDOM_OPTION@@@std@@@std@@QBEABU_RANDOM_OPTION@@XZ
_TEXT	SEGMENT PARA USE32 PUBLIC 'CODE'
_TEXT	ENDS
;	COMDAT ??0_RANDOM_OPTION@@QAE@ABU0@@Z
_TEXT	SEGMENT PARA USE32 PUBLIC 'CODE'
_TEXT	ENDS
;	COMDAT ?destroy@?$allocator@PAUtagACTMSG@@@std@@QAEXPAPAUtagACTMSG@@@Z
_TEXT	SEGMENT PARA USE32 PUBLIC 'CODE'
_TEXT	ENDS
;	COMDAT ?destroy@?$allocator@PAUtagMAGICATKMSG@@@std@@QAEXPAPAUtagMAGICATKMSG@@@Z
_TEXT	SEGMENT PARA USE32 PUBLIC 'CODE'
_TEXT	ENDS
;	COMDAT ??0?$vector@U_AdjData@@V?$allocator@U_AdjData@@@std@@@std@@QAE@ABV01@@Z
_TEXT	SEGMENT PARA USE32 PUBLIC 'CODE'
_TEXT	ENDS
;	COMDAT ?max_size@?$allocator@U_AdjData@@@std@@QBEIXZ
_TEXT	SEGMENT PARA USE32 PUBLIC 'CODE'
_TEXT	ENDS
;	COMDAT ??Gconst_iterator@?$vector@U_AdjData@@V?$allocator@U_AdjData@@@std@@@std@@QBEHABV012@@Z
_TEXT	SEGMENT PARA USE32 PUBLIC 'CODE'
_TEXT	ENDS
;	COMDAT ?max_size@?$allocator@U_RANDOM_OPTION@@@std@@QBEIXZ
_TEXT	SEGMENT PARA USE32 PUBLIC 'CODE'
_TEXT	ENDS
;	COMDAT ??0const_iterator@?$vector@U_RANDOM_OPTION@@V?$allocator@U_RANDOM_OPTION@@@std@@@std@@QAE@PAU_RANDOM_OPTION@@@Z
_TEXT	SEGMENT PARA USE32 PUBLIC 'CODE'
_TEXT	ENDS
;	COMDAT ??Gconst_iterator@?$vector@U_RANDOM_OPTION@@V?$allocator@U_RANDOM_OPTION@@@std@@@std@@QBEHABV012@@Z
_TEXT	SEGMENT PARA USE32 PUBLIC 'CODE'
_TEXT	ENDS
;	COMDAT ?begin@?$vector@U_AdjData@@V?$allocator@U_AdjData@@@std@@@std@@QBE?AVconst_iterator@12@XZ
_TEXT	SEGMENT PARA USE32 PUBLIC 'CODE'
_TEXT	ENDS
;	COMDAT ?end@?$vector@U_AdjData@@V?$allocator@U_AdjData@@@std@@@std@@QBE?AVconst_iterator@12@XZ
_TEXT	SEGMENT PARA USE32 PUBLIC 'CODE'
_TEXT	ENDS
;	COMDAT ??$_Iter_cat@Vconst_iterator@?$vector@EV?$allocator@E@std@@@std@@@std@@YA?AUrandom_access_iterator_tag@0@ABVconst_iterator@?$vector@EV?$allocator@E@std@@@0@@Z
_TEXT	SEGMENT PARA USE32 PUBLIC 'CODE'
_TEXT	ENDS
;	COMDAT ??$_Assign@Vconst_iterator@?$vector@EV?$allocator@E@std@@@std@@@?$vector@EV?$allocator@E@std@@@std@@QAEXVconst_iterator@01@0Uinput_iterator_tag@1@@Z
_TEXT	SEGMENT PARA USE32 PUBLIC 'CODE'
_TEXT	ENDS
;	COMDAT ??$_Iter_cat@Viterator@?$_Tree@V?$_Tmap_traits@KPAVCUser@@U?$less@K@std@@V?$allocator@U?$pair@$$CBKPAVCUser@@@std@@@3@$0A@@std@@@std@@@std@@YA?AUbidirectional_iterator_tag@0@ABViterator@?$_Tree@V?$_Tmap_traits@KPAVCUser@@U?$less@K@std@@V?$allocator@U?$pair@$$CBKPAVCUser@@@std@@@3@$0A@@std@@@0@@Z
_TEXT	SEGMENT PARA USE32 PUBLIC 'CODE'
_TEXT	ENDS
;	COMDAT ??$_Distance2@Viterator@?$_Tree@V?$_Tmap_traits@KPAVCUser@@U?$less@K@std@@V?$allocator@U?$pair@$$CBKPAVCUser@@@std@@@3@$0A@@std@@@std@@I@std@@YAXViterator@?$_Tree@V?$_Tmap_traits@KPAVCUser@@U?$less@K@std@@V?$allocator@U?$pair@$$CBKPAVCUser@@@std@@@3@$0A@@std@@@0@0AAIUbidirectional_iterator_tag@0@@Z
_TEXT	SEGMENT PARA USE32 PUBLIC 'CODE'
_TEXT	ENDS
;	COMDAT ??$_Iter_cat@Viterator@?$_Tree@V?$_Tmap_traits@KPAVCCtrl@@U?$less@K@std@@V?$allocator@U?$pair@$$CBKPAVCCtrl@@@std@@@3@$0A@@std@@@std@@@std@@YA?AUbidirectional_iterator_tag@0@ABViterator@?$_Tree@V?$_Tmap_traits@KPAVCCtrl@@U?$less@K@std@@V?$allocator@U?$pair@$$CBKPAVCCtrl@@@std@@@3@$0A@@std@@@0@@Z
_TEXT	SEGMENT PARA USE32 PUBLIC 'CODE'
_TEXT	ENDS
;	COMDAT ??$_Distance2@Viterator@?$_Tree@V?$_Tmap_traits@KPAVCCtrl@@U?$less@K@std@@V?$allocator@U?$pair@$$CBKPAVCCtrl@@@std@@@3@$0A@@std@@@std@@I@std@@YAXViterator@?$_Tree@V?$_Tmap_traits@KPAVCCtrl@@U?$less@K@std@@V?$allocator@U?$pair@$$CBKPAVCCtrl@@@std@@@3@$0A@@std@@@0@0AAIUbidirectional_iterator_tag@0@@Z
_TEXT	SEGMENT PARA USE32 PUBLIC 'CODE'
_TEXT	ENDS
;	COMDAT ??$_Uninitialized_copy@Vconst_iterator@?$vector@EV?$allocator@E@std@@@std@@PAEV?$allocator@E@3@@std@@YAPAEVconst_iterator@?$vector@EV?$allocator@E@std@@@0@0PAEAAV?$allocator@E@0@@Z
_TEXT	SEGMENT PARA USE32 PUBLIC 'CODE'
_TEXT	ENDS
;	COMDAT ??$_Iter_cat@Viterator@?$_Tree@V?$_Tmap_traits@KEU?$less@K@std@@V?$allocator@U?$pair@$$CBKE@std@@@2@$0A@@std@@@std@@@std@@YA?AUbidirectional_iterator_tag@0@ABViterator@?$_Tree@V?$_Tmap_traits@KEU?$less@K@std@@V?$allocator@U?$pair@$$CBKE@std@@@2@$0A@@std@@@0@@Z
_TEXT	SEGMENT PARA USE32 PUBLIC 'CODE'
_TEXT	ENDS
;	COMDAT ??$_Distance2@Viterator@?$_Tree@V?$_Tmap_traits@KEU?$less@K@std@@V?$allocator@U?$pair@$$CBKE@std@@@2@$0A@@std@@@std@@I@std@@YAXViterator@?$_Tree@V?$_Tmap_traits@KEU?$less@K@std@@V?$allocator@U?$pair@$$CBKE@std@@@2@$0A@@std@@@0@0AAIUbidirectional_iterator_tag@0@@Z
_TEXT	SEGMENT PARA USE32 PUBLIC 'CODE'
_TEXT	ENDS
;	COMDAT ??$_Ptr_cat@PAU__SPAWNREGION@CEventLua@@PAU12@@std@@YA?AU_Nonscalar_ptr_iterator_tag@0@AAPAU__SPAWNREGION@CEventLua@@0@Z
_TEXT	SEGMENT PARA USE32 PUBLIC 'CODE'
_TEXT	ENDS
;	COMDAT ??$_Uninit_fill_n@PAU__SPAWNREGION@CEventLua@@IU12@V?$allocator@U__SPAWNREGION@CEventLua@@@std@@@std@@YAXPAU__SPAWNREGION@CEventLua@@IABU12@AAV?$allocator@U__SPAWNREGION@CEventLua@@@0@U_Nonscalar_ptr_iterator_tag@0@@Z
_TEXT	SEGMENT PARA USE32 PUBLIC 'CODE'
_TEXT	ENDS
;	COMDAT ??$_Copy_opt@PAJPAJ@std@@YAPAJPAJ00U_Scalar_ptr_iterator_tag@0@@Z
_TEXT	SEGMENT PARA USE32 PUBLIC 'CODE'
_TEXT	ENDS
;	COMDAT ??$_Uninitialized_copy@PAJPAJV?$allocator@J@std@@@std@@YAPAJPAJ00AAV?$allocator@J@0@@Z
_TEXT	SEGMENT PARA USE32 PUBLIC 'CODE'
_TEXT	ENDS
;	COMDAT ??$_Copy_backward_opt@PAJPAJ@std@@YAPAJPAJ00U_Scalar_ptr_iterator_tag@0@@Z
_TEXT	SEGMENT PARA USE32 PUBLIC 'CODE'
_TEXT	ENDS
;	COMDAT ??$_Ptr_cat@PAUtagDROPITEM@@PAU1@@std@@YA?AU_Nonscalar_ptr_iterator_tag@0@AAPAUtagDROPITEM@@0@Z
_TEXT	SEGMENT PARA USE32 PUBLIC 'CODE'
_TEXT	ENDS
;	COMDAT ??$_Destroy_range@UtagDROPITEM@@V?$allocator@UtagDROPITEM@@@std@@@std@@YAXPAUtagDROPITEM@@0AAV?$allocator@UtagDROPITEM@@@0@U_Nonscalar_ptr_iterator_tag@0@@Z
_TEXT	SEGMENT PARA USE32 PUBLIC 'CODE'
_TEXT	ENDS
;	COMDAT ??$_Ptr_cat@PAUWORMON@@PAU1@@std@@YA?AU_Nonscalar_ptr_iterator_tag@0@AAPAUWORMON@@0@Z
_TEXT	SEGMENT PARA USE32 PUBLIC 'CODE'
_TEXT	ENDS
;	COMDAT ??$_Destroy_range@UWORMON@@V?$allocator@UWORMON@@@std@@@std@@YAXPAUWORMON@@0AAV?$allocator@UWORMON@@@0@U_Nonscalar_ptr_iterator_tag@0@@Z
_TEXT	SEGMENT PARA USE32 PUBLIC 'CODE'
_TEXT	ENDS
;	COMDAT ??$_Ptr_cat@PAU__ITEMGAME@CMiniGame@@PAU12@@std@@YA?AU_Nonscalar_ptr_iterator_tag@0@AAPAU__ITEMGAME@CMiniGame@@0@Z
_TEXT	SEGMENT PARA USE32 PUBLIC 'CODE'
_TEXT	ENDS
;	COMDAT ??$_Destroy_range@U__ITEMGAME@CMiniGame@@V?$allocator@U__ITEMGAME@CMiniGame@@@std@@@std@@YAXPAU__ITEMGAME@CMiniGame@@0AAV?$allocator@U__ITEMGAME@CMiniGame@@@0@U_Nonscalar_ptr_iterator_tag@0@@Z
_TEXT	SEGMENT PARA USE32 PUBLIC 'CODE'
_TEXT	ENDS
;	COMDAT ??$_Destroy_range@KV?$allocator@K@std@@@std@@YAXPAK0AAV?$allocator@K@0@U_Scalar_ptr_iterator_tag@0@@Z
_TEXT	SEGMENT PARA USE32 PUBLIC 'CODE'
_TEXT	ENDS
;	COMDAT ??$_Destroy_range@HV?$allocator@H@std@@@std@@YAXPAH0AAV?$allocator@H@0@U_Scalar_ptr_iterator_tag@0@@Z
_TEXT	SEGMENT PARA USE32 PUBLIC 'CODE'
_TEXT	ENDS
;	COMDAT ??$_Ptr_cat@PAU__ITEM@CExchange@@PAU12@@std@@YA?AU_Nonscalar_ptr_iterator_tag@0@AAPAU__ITEM@CExchange@@0@Z
_TEXT	SEGMENT PARA USE32 PUBLIC 'CODE'
_TEXT	ENDS
;	COMDAT ??$_Destroy_range@U__ITEM@CExchange@@V?$allocator@U__ITEM@CExchange@@@std@@@std@@YAXPAU__ITEM@CExchange@@0AAV?$allocator@U__ITEM@CExchange@@@0@U_Nonscalar_ptr_iterator_tag@0@@Z
_TEXT	SEGMENT PARA USE32 PUBLIC 'CODE'
_TEXT	ENDS
;	COMDAT ??$_Ptr_cat@PAU__POINT@CExchange@@PAU12@@std@@YA?AU_Nonscalar_ptr_iterator_tag@0@AAPAU__POINT@CExchange@@0@Z
_TEXT	SEGMENT PARA USE32 PUBLIC 'CODE'
_TEXT	ENDS
;	COMDAT ??$_Destroy_range@U__POINT@CExchange@@V?$allocator@U__POINT@CExchange@@@std@@@std@@YAXPAU__POINT@CExchange@@0AAV?$allocator@U__POINT@CExchange@@@0@U_Nonscalar_ptr_iterator_tag@0@@Z
_TEXT	SEGMENT PARA USE32 PUBLIC 'CODE'
_TEXT	ENDS
;	COMDAT ??$_Destroy_range@EV?$allocator@E@std@@@std@@YAXPAE0AAV?$allocator@E@0@U_Scalar_ptr_iterator_tag@0@@Z
_TEXT	SEGMENT PARA USE32 PUBLIC 'CODE'
_TEXT	ENDS
;	COMDAT ??$_Uninitialized_copy@PAU__SPAWNREGION@CEventLua@@PAU12@V?$allocator@U__SPAWNREGION@CEventLua@@@std@@@std@@YAPAU__SPAWNREGION@CEventLua@@PAU12@00AAV?$allocator@U__SPAWNREGION@CEventLua@@@0@@Z
_TEXT	SEGMENT PARA USE32 PUBLIC 'CODE'
_TEXT	ENDS
;	COMDAT ??$_Copy_backward_opt@PAU__SPAWNREGION@CEventLua@@PAU12@@std@@YAPAU__SPAWNREGION@CEventLua@@PAU12@00U_Nonscalar_ptr_iterator_tag@0@@Z
_TEXT	SEGMENT PARA USE32 PUBLIC 'CODE'
_TEXT	ENDS
;	COMDAT ??$_Ptr_cat@PAUD3DXVECTOR3@@PAU1@@std@@YA?AU_Nonscalar_ptr_iterator_tag@0@AAPAUD3DXVECTOR3@@0@Z
_TEXT	SEGMENT PARA USE32 PUBLIC 'CODE'
_TEXT	ENDS
;	COMDAT ??$_Destroy_range@UD3DXVECTOR3@@V?$allocator@UD3DXVECTOR3@@@std@@@std@@YAXPAUD3DXVECTOR3@@0AAV?$allocator@UD3DXVECTOR3@@@0@U_Nonscalar_ptr_iterator_tag@0@@Z
_TEXT	SEGMENT PARA USE32 PUBLIC 'CODE'
_TEXT	ENDS
;	COMDAT ??$_Ptr_cat@PAU_GIFTBOX@@PAU1@@std@@YA?AU_Nonscalar_ptr_iterator_tag@0@AAPAU_GIFTBOX@@0@Z
_TEXT	SEGMENT PARA USE32 PUBLIC 'CODE'
_TEXT	ENDS
;	COMDAT ??$_Destroy_range@U_GIFTBOX@@V?$allocator@U_GIFTBOX@@@std@@@std@@YAXPAU_GIFTBOX@@0AAV?$allocator@U_GIFTBOX@@@0@U_Nonscalar_ptr_iterator_tag@0@@Z
_TEXT	SEGMENT PARA USE32 PUBLIC 'CODE'
_TEXT	ENDS
;	COMDAT ??$_Destroy_range@JV?$allocator@J@std@@@std@@YAXPAJ0AAV?$allocator@J@0@U_Scalar_ptr_iterator_tag@0@@Z
_TEXT	SEGMENT PARA USE32 PUBLIC 'CODE'
_TEXT	ENDS
;	COMDAT ??$_Uninit_fill_n@JIJ@std@@YAXPAJIABJAAV?$allocator@J@0@U_Scalar_ptr_iterator_tag@0@@Z
_TEXT	SEGMENT PARA USE32 PUBLIC 'CODE'
_TEXT	ENDS
;	COMDAT ??$_Destroy_range@U__SPAWNREGION@CEventLua@@V?$allocator@U__SPAWNREGION@CEventLua@@@std@@@std@@YAXPAU__SPAWNREGION@CEventLua@@0AAV?$allocator@U__SPAWNREGION@CEventLua@@@0@U_Nonscalar_ptr_iterator_tag@0@@Z
_TEXT	SEGMENT PARA USE32 PUBLIC 'CODE'
_TEXT	ENDS
;	COMDAT ??$assign@Viterator@?$vector@U_AdjData@@V?$allocator@U_AdjData@@@std@@@std@@@?$vector@U_AdjData@@V?$allocator@U_AdjData@@@std@@@std@@QAEXViterator@01@0@Z
_TEXT	SEGMENT PARA USE32 PUBLIC 'CODE'
_TEXT	ENDS
;	COMDAT ??$_Uninitialized_fill_n@PAU_AdjData@@IU1@V?$allocator@U_AdjData@@@std@@@std@@YAXPAU_AdjData@@IABU1@AAV?$allocator@U_AdjData@@@0@@Z
_TEXT	SEGMENT PARA USE32 PUBLIC 'CODE'
_TEXT	ENDS
;	COMDAT ??$_Uninitialized_fill_n@PAU_RANDOM_OPTION@@IU1@V?$allocator@U_RANDOM_OPTION@@@std@@@std@@YAXPAU_RANDOM_OPTION@@IABU1@AAV?$allocator@U_RANDOM_OPTION@@@0@@Z
_TEXT	SEGMENT PARA USE32 PUBLIC 'CODE'
_TEXT	ENDS
;	COMDAT ??$?0PAUtagACTMSG@@@?$allocator@PAPAUtagACTMSG@@@std@@QAE@ABV?$allocator@PAUtagACTMSG@@@1@@Z
_TEXT	SEGMENT PARA USE32 PUBLIC 'CODE'
_TEXT	ENDS
;	COMDAT ??$_Destroy@PAPAUtagACTMSG@@@std@@YAXPAPAPAUtagACTMSG@@@Z
_TEXT	SEGMENT PARA USE32 PUBLIC 'CODE'
_TEXT	ENDS
;	COMDAT ??$?0PAUtagMAGICATKMSG@@@?$allocator@PAPAUtagMAGICATKMSG@@@std@@QAE@ABV?$allocator@PAUtagMAGICATKMSG@@@1@@Z
_TEXT	SEGMENT PARA USE32 PUBLIC 'CODE'
_TEXT	ENDS
;	COMDAT ??$_Destroy@PAPAUtagMAGICATKMSG@@@std@@YAXPAPAPAUtagMAGICATKMSG@@@Z
_TEXT	SEGMENT PARA USE32 PUBLIC 'CODE'
_TEXT	ENDS
;	COMDAT ??$_Destroy_range@U_AdjData@@V?$allocator@U_AdjData@@@std@@@std@@YAXPAU_AdjData@@0AAV?$allocator@U_AdjData@@@0@@Z
_TEXT	SEGMENT PARA USE32 PUBLIC 'CODE'
_TEXT	ENDS
;	COMDAT ??$_Ucopy@PAU_AdjData@@@?$vector@U_AdjData@@V?$allocator@U_AdjData@@@std@@@std@@IAEPAU_AdjData@@PAU2@00@Z
_TEXT	SEGMENT PARA USE32 PUBLIC 'CODE'
_TEXT	ENDS
;	COMDAT ??$fill@PAU_AdjData@@U1@@std@@YAXPAU_AdjData@@0ABU1@@Z
_TEXT	SEGMENT PARA USE32 PUBLIC 'CODE'
_TEXT	ENDS
;	COMDAT ??$copy_backward@PAU_AdjData@@PAU1@@std@@YAPAU_AdjData@@PAU1@00@Z
_TEXT	SEGMENT PARA USE32 PUBLIC 'CODE'
_TEXT	ENDS
;	COMDAT ??$_Allocate@U_AdjData@@@std@@YAPAU_AdjData@@IPAU1@@Z
_TEXT	SEGMENT PARA USE32 PUBLIC 'CODE'
_TEXT	ENDS
;	COMDAT ??$_Destroy_range@U_RANDOM_OPTION@@V?$allocator@U_RANDOM_OPTION@@@std@@@std@@YAXPAU_RANDOM_OPTION@@0AAV?$allocator@U_RANDOM_OPTION@@@0@@Z
_TEXT	SEGMENT PARA USE32 PUBLIC 'CODE'
_TEXT	ENDS
;	COMDAT ??$_Ucopy@PAU_RANDOM_OPTION@@@?$vector@U_RANDOM_OPTION@@V?$allocator@U_RANDOM_OPTION@@@std@@@std@@IAEPAU_RANDOM_OPTION@@PAU2@00@Z
_TEXT	SEGMENT PARA USE32 PUBLIC 'CODE'
_TEXT	ENDS
;	COMDAT ??$fill@PAU_RANDOM_OPTION@@U1@@std@@YAXPAU_RANDOM_OPTION@@0ABU1@@Z
_TEXT	SEGMENT PARA USE32 PUBLIC 'CODE'
_TEXT	ENDS
;	COMDAT ??$copy_backward@PAU_RANDOM_OPTION@@PAU1@@std@@YAPAU_RANDOM_OPTION@@PAU1@00@Z
_TEXT	SEGMENT PARA USE32 PUBLIC 'CODE'
_TEXT	ENDS
;	COMDAT ??$_Allocate@U_RANDOM_OPTION@@@std@@YAPAU_RANDOM_OPTION@@IPAU1@@Z
_TEXT	SEGMENT PARA USE32 PUBLIC 'CODE'
_TEXT	ENDS
;	COMDAT ??$_Destroy@PAUtagACTMSG@@@std@@YAXPAPAUtagACTMSG@@@Z
_TEXT	SEGMENT PARA USE32 PUBLIC 'CODE'
_TEXT	ENDS
;	COMDAT ??$_Destroy@PAUtagMAGICATKMSG@@@std@@YAXPAPAUtagMAGICATKMSG@@@Z
_TEXT	SEGMENT PARA USE32 PUBLIC 'CODE'
_TEXT	ENDS
;	COMDAT ??$_Ucopy@Vconst_iterator@?$vector@U_AdjData@@V?$allocator@U_AdjData@@@std@@@std@@@?$vector@U_AdjData@@V?$allocator@U_AdjData@@@std@@@std@@IAEPAU_AdjData@@Vconst_iterator@01@0PAU2@@Z
_TEXT	SEGMENT PARA USE32 PUBLIC 'CODE'
_TEXT	ENDS
;	COMDAT ??4_RANDOM_OPTION@@QAEAAU0@ABU0@@Z
_TEXT	SEGMENT PARA USE32 PUBLIC 'CODE'
_TEXT	ENDS
;	COMDAT ?destroy@?$allocator@UtagDROPITEM@@@std@@QAEXPAUtagDROPITEM@@@Z
_TEXT	SEGMENT PARA USE32 PUBLIC 'CODE'
_TEXT	ENDS
;	COMDAT ?destroy@?$allocator@UWORMON@@@std@@QAEXPAUWORMON@@@Z
_TEXT	SEGMENT PARA USE32 PUBLIC 'CODE'
_TEXT	ENDS
;	COMDAT ?destroy@?$allocator@U__ITEMGAME@CMiniGame@@@std@@QAEXPAU__ITEMGAME@CMiniGame@@@Z
_TEXT	SEGMENT PARA USE32 PUBLIC 'CODE'
_TEXT	ENDS
;	COMDAT ?destroy@?$allocator@U__ITEM@CExchange@@@std@@QAEXPAU__ITEM@CExchange@@@Z
_TEXT	SEGMENT PARA USE32 PUBLIC 'CODE'
_TEXT	ENDS
;	COMDAT ?destroy@?$allocator@U__POINT@CExchange@@@std@@QAEXPAU__POINT@CExchange@@@Z
_TEXT	SEGMENT PARA USE32 PUBLIC 'CODE'
_TEXT	ENDS
;	COMDAT ?begin@?$vector@EV?$allocator@E@std@@@std@@QAE?AViterator@12@XZ
_TEXT	SEGMENT PARA USE32 PUBLIC 'CODE'
_TEXT	ENDS
;	COMDAT ?end@?$vector@EV?$allocator@E@std@@@std@@QAE?AViterator@12@XZ
_TEXT	SEGMENT PARA USE32 PUBLIC 'CODE'
_TEXT	ENDS
;	COMDAT ?erase@?$vector@EV?$allocator@E@std@@@std@@QAE?AViterator@12@V312@0@Z
_TEXT	SEGMENT PARA USE32 PUBLIC 'CODE'
_TEXT	ENDS
;	COMDAT ?construct@?$allocator@U__SPAWNREGION@CEventLua@@@std@@QAEXPAU__SPAWNREGION@CEventLua@@ABU34@@Z
_TEXT	SEGMENT PARA USE32 PUBLIC 'CODE'
_TEXT	ENDS
;	COMDAT ?destroy@?$allocator@U__SPAWNREGION@CEventLua@@@std@@QAEXPAU__SPAWNREGION@CEventLua@@@Z
_TEXT	SEGMENT PARA USE32 PUBLIC 'CODE'
_TEXT	ENDS
;	COMDAT ?destroy@?$allocator@UD3DXVECTOR3@@@std@@QAEXPAUD3DXVECTOR3@@@Z
_TEXT	SEGMENT PARA USE32 PUBLIC 'CODE'
_TEXT	ENDS
;	COMDAT ?destroy@?$allocator@U_GIFTBOX@@@std@@QAEXPAU_GIFTBOX@@@Z
_TEXT	SEGMENT PARA USE32 PUBLIC 'CODE'
_TEXT	ENDS
;	COMDAT ??4?$vector@U_AdjData@@V?$allocator@U_AdjData@@@std@@@std@@QAEAAV01@ABV01@@Z
_TEXT	SEGMENT PARA USE32 PUBLIC 'CODE'
_TEXT	ENDS
;	COMDAT ??9const_iterator@?$vector@EV?$allocator@E@std@@@std@@QBE_NABV012@@Z
_TEXT	SEGMENT PARA USE32 PUBLIC 'CODE'
_TEXT	ENDS
;	COMDAT ??0iterator@?$vector@EV?$allocator@E@std@@@std@@QAE@PAE@Z
_TEXT	SEGMENT PARA USE32 PUBLIC 'CODE'
_TEXT	ENDS
;	COMDAT ??8const_iterator@?$vector@EV?$allocator@E@std@@@std@@QBE_NABV012@@Z
_TEXT	SEGMENT PARA USE32 PUBLIC 'CODE'
_TEXT	ENDS
;	COMDAT ??$insert@Vconst_iterator@?$vector@EV?$allocator@E@std@@@std@@@?$vector@EV?$allocator@E@std@@@std@@QAEXViterator@01@Vconst_iterator@01@1@Z
_TEXT	SEGMENT PARA USE32 PUBLIC 'CODE'
_TEXT	ENDS
;	COMDAT ??$_Ptr_cat@Vconst_iterator@?$vector@EV?$allocator@E@std@@@std@@PAE@std@@YA?AU_Nonscalar_ptr_iterator_tag@0@AAVconst_iterator@?$vector@EV?$allocator@E@std@@@0@AAPAE@Z
_TEXT	SEGMENT PARA USE32 PUBLIC 'CODE'
_TEXT	ENDS
;	COMDAT ??$_Uninit_copy@Vconst_iterator@?$vector@EV?$allocator@E@std@@@std@@PAEV?$allocator@E@3@@std@@YAPAEVconst_iterator@?$vector@EV?$allocator@E@std@@@0@0PAEAAV?$allocator@E@0@U_Nonscalar_ptr_iterator_tag@0@@Z
_TEXT	SEGMENT PARA USE32 PUBLIC 'CODE'
_TEXT	ENDS
;	COMDAT ??$_Uninit_copy@JJ@std@@YAPAJPAJ00AAV?$allocator@J@0@U_Scalar_ptr_iterator_tag@0@@Z
_TEXT	SEGMENT PARA USE32 PUBLIC 'CODE'
_TEXT	ENDS
;	COMDAT ??$_Uninit_copy@PAU__SPAWNREGION@CEventLua@@PAU12@V?$allocator@U__SPAWNREGION@CEventLua@@@std@@@std@@YAPAU__SPAWNREGION@CEventLua@@PAU12@00AAV?$allocator@U__SPAWNREGION@CEventLua@@@0@U_Nonscalar_ptr_iterator_tag@0@@Z
_TEXT	SEGMENT PARA USE32 PUBLIC 'CODE'
_TEXT	ENDS
;	COMDAT ??$fill_n@PAJIJ@std@@YAXPAJIABJ@Z
_TEXT	SEGMENT PARA USE32 PUBLIC 'CODE'
_TEXT	ENDS
;	COMDAT ??$_Iter_cat@Viterator@?$vector@U_AdjData@@V?$allocator@U_AdjData@@@std@@@std@@@std@@YA?AUrandom_access_iterator_tag@0@ABViterator@?$vector@U_AdjData@@V?$allocator@U_AdjData@@@std@@@0@@Z
_TEXT	SEGMENT PARA USE32 PUBLIC 'CODE'
_TEXT	ENDS
;	COMDAT ??$_Assign@Viterator@?$vector@U_AdjData@@V?$allocator@U_AdjData@@@std@@@std@@@?$vector@U_AdjData@@V?$allocator@U_AdjData@@@std@@@std@@QAEXViterator@01@0Uinput_iterator_tag@1@@Z
_TEXT	SEGMENT PARA USE32 PUBLIC 'CODE'
_TEXT	ENDS
;	COMDAT ??$_Ptr_cat@PAU_AdjData@@PAU1@@std@@YA?AU_Nonscalar_ptr_iterator_tag@0@AAPAU_AdjData@@0@Z
_TEXT	SEGMENT PARA USE32 PUBLIC 'CODE'
_TEXT	ENDS
;	COMDAT ??$_Uninit_fill_n@PAU_AdjData@@IU1@V?$allocator@U_AdjData@@@std@@@std@@YAXPAU_AdjData@@IABU1@AAV?$allocator@U_AdjData@@@0@U_Nonscalar_ptr_iterator_tag@0@@Z
_TEXT	SEGMENT PARA USE32 PUBLIC 'CODE'
_TEXT	ENDS
;	COMDAT ??$_Ptr_cat@PAU_RANDOM_OPTION@@PAU1@@std@@YA?AU_Nonscalar_ptr_iterator_tag@0@AAPAU_RANDOM_OPTION@@0@Z
_TEXT	SEGMENT PARA USE32 PUBLIC 'CODE'
_TEXT	ENDS
;	COMDAT ??$_Uninit_fill_n@PAU_RANDOM_OPTION@@IU1@V?$allocator@U_RANDOM_OPTION@@@std@@@std@@YAXPAU_RANDOM_OPTION@@IABU1@AAV?$allocator@U_RANDOM_OPTION@@@0@U_Nonscalar_ptr_iterator_tag@0@@Z
_TEXT	SEGMENT PARA USE32 PUBLIC 'CODE'
_TEXT	ENDS
;	COMDAT ??$_Destroy_range@U_AdjData@@V?$allocator@U_AdjData@@@std@@@std@@YAXPAU_AdjData@@0AAV?$allocator@U_AdjData@@@0@U_Nonscalar_ptr_iterator_tag@0@@Z
_TEXT	SEGMENT PARA USE32 PUBLIC 'CODE'
_TEXT	ENDS
;	COMDAT ??$_Uninitialized_copy@PAU_AdjData@@PAU1@V?$allocator@U_AdjData@@@std@@@std@@YAPAU_AdjData@@PAU1@00AAV?$allocator@U_AdjData@@@0@@Z
_TEXT	SEGMENT PARA USE32 PUBLIC 'CODE'
_TEXT	ENDS
;	COMDAT ??$_Copy_backward_opt@PAU_AdjData@@PAU1@@std@@YAPAU_AdjData@@PAU1@00U_Nonscalar_ptr_iterator_tag@0@@Z
_TEXT	SEGMENT PARA USE32 PUBLIC 'CODE'
_TEXT	ENDS
;	COMDAT ??$_Destroy_range@U_RANDOM_OPTION@@V?$allocator@U_RANDOM_OPTION@@@std@@@std@@YAXPAU_RANDOM_OPTION@@0AAV?$allocator@U_RANDOM_OPTION@@@0@U_Nonscalar_ptr_iterator_tag@0@@Z
_TEXT	SEGMENT PARA USE32 PUBLIC 'CODE'
_TEXT	ENDS
;	COMDAT ??$_Uninitialized_copy@PAU_RANDOM_OPTION@@PAU1@V?$allocator@U_RANDOM_OPTION@@@std@@@std@@YAPAU_RANDOM_OPTION@@PAU1@00AAV?$allocator@U_RANDOM_OPTION@@@0@@Z
_TEXT	SEGMENT PARA USE32 PUBLIC 'CODE'
_TEXT	ENDS
;	COMDAT ??$_Copy_backward_opt@PAU_RANDOM_OPTION@@PAU1@@std@@YAPAU_RANDOM_OPTION@@PAU1@00U_Nonscalar_ptr_iterator_tag@0@@Z
_TEXT	SEGMENT PARA USE32 PUBLIC 'CODE'
_TEXT	ENDS
;	COMDAT ??$_Uninitialized_copy@Vconst_iterator@?$vector@U_AdjData@@V?$allocator@U_AdjData@@@std@@@std@@PAU_AdjData@@V?$allocator@U_AdjData@@@3@@std@@YAPAU_AdjData@@Vconst_iterator@?$vector@U_AdjData@@V?$allocator@U_AdjData@@@std@@@0@0PAU1@AAV?$allocator@U_AdjData@@@0@@Z
_TEXT	SEGMENT PARA USE32 PUBLIC 'CODE'
_TEXT	ENDS
;	COMDAT ??$_Destroy@UtagDROPITEM@@@std@@YAXPAUtagDROPITEM@@@Z
_TEXT	SEGMENT PARA USE32 PUBLIC 'CODE'
_TEXT	ENDS
;	COMDAT ??$_Destroy@UWORMON@@@std@@YAXPAUWORMON@@@Z
_TEXT	SEGMENT PARA USE32 PUBLIC 'CODE'
_TEXT	ENDS
;	COMDAT ??$_Destroy@U__ITEMGAME@CMiniGame@@@std@@YAXPAU__ITEMGAME@CMiniGame@@@Z
_TEXT	SEGMENT PARA USE32 PUBLIC 'CODE'
_TEXT	ENDS
;	COMDAT ??$_Destroy@U__ITEM@CExchange@@@std@@YAXPAU__ITEM@CExchange@@@Z
_TEXT	SEGMENT PARA USE32 PUBLIC 'CODE'
_TEXT	ENDS
;	COMDAT ??$_Destroy@U__POINT@CExchange@@@std@@YAXPAU__POINT@CExchange@@@Z
_TEXT	SEGMENT PARA USE32 PUBLIC 'CODE'
_TEXT	ENDS
;	COMDAT ??$copy@PAEPAE@std@@YAPAEPAE00@Z
_TEXT	SEGMENT PARA USE32 PUBLIC 'CODE'
_TEXT	ENDS
;	COMDAT ??$_Construct@U__SPAWNREGION@CEventLua@@U12@@std@@YAXPAU__SPAWNREGION@CEventLua@@ABU12@@Z
_TEXT	SEGMENT PARA USE32 PUBLIC 'CODE'
_TEXT	ENDS
;	COMDAT ??$_Destroy@U__SPAWNREGION@CEventLua@@@std@@YAXPAU__SPAWNREGION@CEventLua@@@Z
_TEXT	SEGMENT PARA USE32 PUBLIC 'CODE'
_TEXT	ENDS
;	COMDAT ??$_Destroy@UD3DXVECTOR3@@@std@@YAXPAUD3DXVECTOR3@@@Z
_TEXT	SEGMENT PARA USE32 PUBLIC 'CODE'
_TEXT	ENDS
;	COMDAT ??$_Destroy@U_GIFTBOX@@@std@@YAXPAU_GIFTBOX@@@Z
_TEXT	SEGMENT PARA USE32 PUBLIC 'CODE'
_TEXT	ENDS
;	COMDAT ??$copy@PAU_AdjData@@PAU1@@std@@YAPAU_AdjData@@PAU1@00@Z
_TEXT	SEGMENT PARA USE32 PUBLIC 'CODE'
_TEXT	ENDS
;	COMDAT ?construct@?$allocator@E@std@@QAEXPAEABE@Z
_TEXT	SEGMENT PARA USE32 PUBLIC 'CODE'
_TEXT	ENDS
;	COMDAT ?destroy@?$allocator@E@std@@QAEXPAE@Z
_TEXT	SEGMENT PARA USE32 PUBLIC 'CODE'
_TEXT	ENDS
;	COMDAT ??Dconst_iterator@?$vector@EV?$allocator@E@std@@@std@@QBEABEXZ
_TEXT	SEGMENT PARA USE32 PUBLIC 'CODE'
_TEXT	ENDS
;	COMDAT ??Econst_iterator@?$vector@EV?$allocator@E@std@@@std@@QAEAAV012@XZ
_TEXT	SEGMENT PARA USE32 PUBLIC 'CODE'
_TEXT	ENDS
;	COMDAT ?erase@?$vector@U_AdjData@@V?$allocator@U_AdjData@@@std@@@std@@QAE?AViterator@12@V312@0@Z
_TEXT	SEGMENT PARA USE32 PUBLIC 'CODE'
_TEXT	ENDS
;	COMDAT ?construct@?$allocator@U_AdjData@@@std@@QAEXPAU_AdjData@@ABU3@@Z
_TEXT	SEGMENT PARA USE32 PUBLIC 'CODE'
_TEXT	ENDS
;	COMDAT ?destroy@?$allocator@U_AdjData@@@std@@QAEXPAU_AdjData@@@Z
_TEXT	SEGMENT PARA USE32 PUBLIC 'CODE'
_TEXT	ENDS
;	COMDAT ?construct@?$allocator@U_RANDOM_OPTION@@@std@@QAEXPAU_RANDOM_OPTION@@ABU3@@Z
_TEXT	SEGMENT PARA USE32 PUBLIC 'CODE'
_TEXT	ENDS
;	COMDAT ?destroy@?$allocator@U_RANDOM_OPTION@@@std@@QAEXPAU_RANDOM_OPTION@@@Z
_TEXT	SEGMENT PARA USE32 PUBLIC 'CODE'
_TEXT	ENDS
;	COMDAT ??9const_iterator@?$vector@U_AdjData@@V?$allocator@U_AdjData@@@std@@@std@@QBE_NABV012@@Z
_TEXT	SEGMENT PARA USE32 PUBLIC 'CODE'
_TEXT	ENDS
;	COMDAT ??8const_iterator@?$vector@U_AdjData@@V?$allocator@U_AdjData@@@std@@@std@@QBE_NABV012@@Z
_TEXT	SEGMENT PARA USE32 PUBLIC 'CODE'
_TEXT	ENDS
;	COMDAT ??$_Insert@Vconst_iterator@?$vector@EV?$allocator@E@std@@@std@@@?$vector@EV?$allocator@E@std@@@std@@QAEXViterator@01@Vconst_iterator@01@1Uforward_iterator_tag@1@@Z
_TEXT	SEGMENT PARA USE32 PUBLIC 'CODE'
_TEXT	ENDS
;	COMDAT ??$insert@Viterator@?$vector@U_AdjData@@V?$allocator@U_AdjData@@@std@@@std@@@?$vector@U_AdjData@@V?$allocator@U_AdjData@@@std@@@std@@QAEXViterator@01@00@Z
_TEXT	SEGMENT PARA USE32 PUBLIC 'CODE'
_TEXT	ENDS
;	COMDAT ??$_Uninit_copy@PAU_AdjData@@PAU1@V?$allocator@U_AdjData@@@std@@@std@@YAPAU_AdjData@@PAU1@00AAV?$allocator@U_AdjData@@@0@U_Nonscalar_ptr_iterator_tag@0@@Z
_TEXT	SEGMENT PARA USE32 PUBLIC 'CODE'
_TEXT	ENDS
;	COMDAT ??$_Uninit_copy@PAU_RANDOM_OPTION@@PAU1@V?$allocator@U_RANDOM_OPTION@@@std@@@std@@YAPAU_RANDOM_OPTION@@PAU1@00AAV?$allocator@U_RANDOM_OPTION@@@0@U_Nonscalar_ptr_iterator_tag@0@@Z
_TEXT	SEGMENT PARA USE32 PUBLIC 'CODE'
_TEXT	ENDS
;	COMDAT ??$_Ptr_cat@Vconst_iterator@?$vector@U_AdjData@@V?$allocator@U_AdjData@@@std@@@std@@PAU_AdjData@@@std@@YA?AU_Nonscalar_ptr_iterator_tag@0@AAVconst_iterator@?$vector@U_AdjData@@V?$allocator@U_AdjData@@@std@@@0@AAPAU_AdjData@@@Z
_TEXT	SEGMENT PARA USE32 PUBLIC 'CODE'
_TEXT	ENDS
;	COMDAT ??$_Uninit_copy@Vconst_iterator@?$vector@U_AdjData@@V?$allocator@U_AdjData@@@std@@@std@@PAU_AdjData@@V?$allocator@U_AdjData@@@3@@std@@YAPAU_AdjData@@Vconst_iterator@?$vector@U_AdjData@@V?$allocator@U_AdjData@@@std@@@0@0PAU1@AAV?$allocator@U_AdjData@@@0@U_Nonscalar_ptr_iterator_tag@0@@Z
_TEXT	SEGMENT PARA USE32 PUBLIC 'CODE'
_TEXT	ENDS
;	COMDAT ??$_Copy_opt@PAEPAE@std@@YAPAEPAE00U_Scalar_ptr_iterator_tag@0@@Z
_TEXT	SEGMENT PARA USE32 PUBLIC 'CODE'
_TEXT	ENDS
;	COMDAT ??$_Copy_opt@PAU_AdjData@@PAU1@@std@@YAPAU_AdjData@@PAU1@00U_Nonscalar_ptr_iterator_tag@0@@Z
_TEXT	SEGMENT PARA USE32 PUBLIC 'CODE'
_TEXT	ENDS
;	COMDAT ??$_Construct@EE@std@@YAXPAEABE@Z
_TEXT	SEGMENT PARA USE32 PUBLIC 'CODE'
_TEXT	ENDS
;	COMDAT ??$_Destroy@E@std@@YAXPAE@Z
_TEXT	SEGMENT PARA USE32 PUBLIC 'CODE'
_TEXT	ENDS
;	COMDAT ??$_Construct@U_AdjData@@U1@@std@@YAXPAU_AdjData@@ABU1@@Z
_TEXT	SEGMENT PARA USE32 PUBLIC 'CODE'
_TEXT	ENDS
;	COMDAT ??$_Destroy@U_AdjData@@@std@@YAXPAU_AdjData@@@Z
_TEXT	SEGMENT PARA USE32 PUBLIC 'CODE'
_TEXT	ENDS
;	COMDAT ??$_Construct@U_RANDOM_OPTION@@U1@@std@@YAXPAU_RANDOM_OPTION@@ABU1@@Z
_TEXT	SEGMENT PARA USE32 PUBLIC 'CODE'
_TEXT	ENDS
;	COMDAT ??$_Destroy@U_RANDOM_OPTION@@@std@@YAXPAU_RANDOM_OPTION@@@Z
_TEXT	SEGMENT PARA USE32 PUBLIC 'CODE'
_TEXT	ENDS
;	COMDAT ??_G_RANDOM_OPTION@@QAEPAXI@Z
_TEXT	SEGMENT PARA USE32 PUBLIC 'CODE'
_TEXT	ENDS
;	COMDAT ?capacity@?$vector@EV?$allocator@E@std@@@std@@QBEIXZ
_TEXT	SEGMENT PARA USE32 PUBLIC 'CODE'
_TEXT	ENDS
;	COMDAT ??Econst_iterator@?$vector@U_AdjData@@V?$allocator@U_AdjData@@@std@@@std@@QAEAAV012@XZ
_TEXT	SEGMENT PARA USE32 PUBLIC 'CODE'
_TEXT	ENDS
;	COMDAT ??Giterator@?$vector@EV?$allocator@E@std@@@std@@QBEHABVconst_iterator@12@@Z
_TEXT	SEGMENT PARA USE32 PUBLIC 'CODE'
_TEXT	ENDS
;	COMDAT ??Gconst_iterator@?$vector@EV?$allocator@E@std@@@std@@QBEHABV012@@Z
_TEXT	SEGMENT PARA USE32 PUBLIC 'CODE'
_TEXT	ENDS
;	COMDAT ??$_Distance@Vconst_iterator@?$vector@EV?$allocator@E@std@@@std@@I@std@@YAXVconst_iterator@?$vector@EV?$allocator@E@std@@@0@0AAI@Z
_TEXT	SEGMENT PARA USE32 PUBLIC 'CODE'
_TEXT	ENDS
;	COMDAT ??$_Ucopy@PAE@?$vector@EV?$allocator@E@std@@@std@@IAEPAEPAE00@Z
_TEXT	SEGMENT PARA USE32 PUBLIC 'CODE'
_TEXT	ENDS
;	COMDAT ??$advance@Vconst_iterator@?$vector@EV?$allocator@E@std@@@std@@H@std@@YAXAAVconst_iterator@?$vector@EV?$allocator@E@std@@@0@H@Z
_TEXT	SEGMENT PARA USE32 PUBLIC 'CODE'
_TEXT	ENDS
;	COMDAT ??$copy@Vconst_iterator@?$vector@EV?$allocator@E@std@@@std@@PAE@std@@YAPAEVconst_iterator@?$vector@EV?$allocator@E@std@@@0@0PAE@Z
_TEXT	SEGMENT PARA USE32 PUBLIC 'CODE'
_TEXT	ENDS
;	COMDAT ??$copy_backward@PAEPAE@std@@YAPAEPAE00@Z
_TEXT	SEGMENT PARA USE32 PUBLIC 'CODE'
_TEXT	ENDS
;	COMDAT ??$_Insert@Viterator@?$vector@U_AdjData@@V?$allocator@U_AdjData@@@std@@@std@@@?$vector@U_AdjData@@V?$allocator@U_AdjData@@@std@@@std@@QAEXViterator@01@00Uforward_iterator_tag@1@@Z
_TEXT	SEGMENT PARA USE32 PUBLIC 'CODE'
_TEXT	ENDS
;	COMDAT ??$_Distance2@Vconst_iterator@?$vector@EV?$allocator@E@std@@@std@@I@std@@YAXVconst_iterator@?$vector@EV?$allocator@E@std@@@0@0AAIUrandom_access_iterator_tag@0@@Z
_TEXT	SEGMENT PARA USE32 PUBLIC 'CODE'
_TEXT	ENDS
;	COMDAT ??$_Uninitialized_copy@PAEPAEV?$allocator@E@std@@@std@@YAPAEPAE00AAV?$allocator@E@0@@Z
_TEXT	SEGMENT PARA USE32 PUBLIC 'CODE'
_TEXT	ENDS
;	COMDAT ??$_Advance@Vconst_iterator@?$vector@EV?$allocator@E@std@@@std@@H@std@@YAXAAVconst_iterator@?$vector@EV?$allocator@E@std@@@0@HUrandom_access_iterator_tag@0@@Z
_TEXT	SEGMENT PARA USE32 PUBLIC 'CODE'
_TEXT	ENDS
;	COMDAT ??$_Copy_opt@Vconst_iterator@?$vector@EV?$allocator@E@std@@@std@@PAE@std@@YAPAEVconst_iterator@?$vector@EV?$allocator@E@std@@@0@0PAEU_Nonscalar_ptr_iterator_tag@0@@Z
_TEXT	SEGMENT PARA USE32 PUBLIC 'CODE'
_TEXT	ENDS
;	COMDAT ??$_Copy_backward_opt@PAEPAE@std@@YAPAEPAE00U_Scalar_ptr_iterator_tag@0@@Z
_TEXT	SEGMENT PARA USE32 PUBLIC 'CODE'
_TEXT	ENDS
;	COMDAT ??$_Distance@Viterator@?$vector@U_AdjData@@V?$allocator@U_AdjData@@@std@@@std@@I@std@@YAXViterator@?$vector@U_AdjData@@V?$allocator@U_AdjData@@@std@@@0@0AAI@Z
_TEXT	SEGMENT PARA USE32 PUBLIC 'CODE'
_TEXT	ENDS
;	COMDAT ??$_Ucopy@Viterator@?$vector@U_AdjData@@V?$allocator@U_AdjData@@@std@@@std@@@?$vector@U_AdjData@@V?$allocator@U_AdjData@@@std@@@std@@IAEPAU_AdjData@@Viterator@01@0PAU2@@Z
_TEXT	SEGMENT PARA USE32 PUBLIC 'CODE'
_TEXT	ENDS
;	COMDAT ??$advance@Viterator@?$vector@U_AdjData@@V?$allocator@U_AdjData@@@std@@@std@@H@std@@YAXAAViterator@?$vector@U_AdjData@@V?$allocator@U_AdjData@@@std@@@0@H@Z
_TEXT	SEGMENT PARA USE32 PUBLIC 'CODE'
_TEXT	ENDS
;	COMDAT ??$copy@Viterator@?$vector@U_AdjData@@V?$allocator@U_AdjData@@@std@@@std@@PAU_AdjData@@@std@@YAPAU_AdjData@@Viterator@?$vector@U_AdjData@@V?$allocator@U_AdjData@@@std@@@0@0PAU1@@Z
_TEXT	SEGMENT PARA USE32 PUBLIC 'CODE'
_TEXT	ENDS
;	COMDAT ??Yconst_iterator@?$vector@EV?$allocator@E@std@@@std@@QAEAAV012@H@Z
_TEXT	SEGMENT PARA USE32 PUBLIC 'CODE'
_TEXT	ENDS
;	COMDAT ??$_Uninit_copy@EE@std@@YAPAEPAE00AAV?$allocator@E@0@U_Scalar_ptr_iterator_tag@0@@Z
_TEXT	SEGMENT PARA USE32 PUBLIC 'CODE'
_TEXT	ENDS
;	COMDAT ??$_Distance2@Viterator@?$vector@U_AdjData@@V?$allocator@U_AdjData@@@std@@@std@@I@std@@YAXViterator@?$vector@U_AdjData@@V?$allocator@U_AdjData@@@std@@@0@0AAIUrandom_access_iterator_tag@0@@Z
_TEXT	SEGMENT PARA USE32 PUBLIC 'CODE'
_TEXT	ENDS
;	COMDAT ??$_Uninitialized_copy@Viterator@?$vector@U_AdjData@@V?$allocator@U_AdjData@@@std@@@std@@PAU_AdjData@@V?$allocator@U_AdjData@@@3@@std@@YAPAU_AdjData@@Viterator@?$vector@U_AdjData@@V?$allocator@U_AdjData@@@std@@@0@0PAU1@AAV?$allocator@U_AdjData@@@0@@Z
_TEXT	SEGMENT PARA USE32 PUBLIC 'CODE'
_TEXT	ENDS
;	COMDAT ??$_Advance@Viterator@?$vector@U_AdjData@@V?$allocator@U_AdjData@@@std@@@std@@H@std@@YAXAAViterator@?$vector@U_AdjData@@V?$allocator@U_AdjData@@@std@@@0@HUrandom_access_iterator_tag@0@@Z
_TEXT	SEGMENT PARA USE32 PUBLIC 'CODE'
_TEXT	ENDS
;	COMDAT ??$_Ptr_cat@Viterator@?$vector@U_AdjData@@V?$allocator@U_AdjData@@@std@@@std@@PAU_AdjData@@@std@@YA?AU_Nonscalar_ptr_iterator_tag@0@AAViterator@?$vector@U_AdjData@@V?$allocator@U_AdjData@@@std@@@0@AAPAU_AdjData@@@Z
_TEXT	SEGMENT PARA USE32 PUBLIC 'CODE'
_TEXT	ENDS
;	COMDAT ??$_Copy_opt@Viterator@?$vector@U_AdjData@@V?$allocator@U_AdjData@@@std@@@std@@PAU_AdjData@@@std@@YAPAU_AdjData@@Viterator@?$vector@U_AdjData@@V?$allocator@U_AdjData@@@std@@@0@0PAU1@U_Nonscalar_ptr_iterator_tag@0@@Z
_TEXT	SEGMENT PARA USE32 PUBLIC 'CODE'
_TEXT	ENDS
;	COMDAT ??Eiterator@?$vector@U_AdjData@@V?$allocator@U_AdjData@@@std@@@std@@QAEAAV012@XZ
_TEXT	SEGMENT PARA USE32 PUBLIC 'CODE'
_TEXT	ENDS
;	COMDAT ??$_Uninit_copy@Viterator@?$vector@U_AdjData@@V?$allocator@U_AdjData@@@std@@@std@@PAU_AdjData@@V?$allocator@U_AdjData@@@3@@std@@YAPAU_AdjData@@Viterator@?$vector@U_AdjData@@V?$allocator@U_AdjData@@@std@@@0@0PAU1@AAV?$allocator@U_AdjData@@@0@U_Nonscalar_ptr_iterator_tag@0@@Z
_TEXT	SEGMENT PARA USE32 PUBLIC 'CODE'
_TEXT	ENDS
;	COMDAT ??3@YAXPAX0@Z
_TEXT	SEGMENT PARA USE32 PUBLIC 'CODE'
_TEXT	ENDS
;	COMDAT ?deallocate@?$allocator@E@std@@QAEXPAEI@Z
_TEXT	SEGMENT PARA USE32 PUBLIC 'CODE'
_TEXT	ENDS
;	COMDAT ??$_Ucopy@Vconst_iterator@?$vector@EV?$allocator@E@std@@@std@@@?$vector@EV?$allocator@E@std@@@std@@IAEPAEVconst_iterator@01@0PAE@Z
_TEXT	SEGMENT PARA USE32 PUBLIC 'CODE'
_TEXT	ENDS
;	COMDAT ?allocate@?$allocator@E@std@@QAEPAEI@Z
_TEXT	SEGMENT PARA USE32 PUBLIC 'CODE'
_TEXT	ENDS
;	COMDAT ??$_Allocate@E@std@@YAPAEIPAE@Z
_TEXT	SEGMENT PARA USE32 PUBLIC 'CODE'
_TEXT	ENDS
;	COMDAT ?_Xlen@?$vector@EV?$allocator@E@std@@@std@@IBEXXZ
_TEXT	SEGMENT PARA USE32 PUBLIC 'CODE'
_TEXT	ENDS
;	COMDAT ?size@?$vector@EV?$allocator@E@std@@@std@@QBEIXZ
_TEXT	SEGMENT PARA USE32 PUBLIC 'CODE'
_TEXT	ENDS
;	COMDAT ?max_size@?$vector@EV?$allocator@E@std@@@std@@QBEIXZ
_TEXT	SEGMENT PARA USE32 PUBLIC 'CODE'
_TEXT	ENDS
;	COMDAT ?max_size@?$allocator@E@std@@QBEIXZ
_TEXT	SEGMENT PARA USE32 PUBLIC 'CODE'
_TEXT	ENDS
;	COMDAT ??2@YAPAXIPAX@Z
_TEXT	SEGMENT PARA USE32 PUBLIC 'CODE'
_TEXT	ENDS
;	COMDAT ?_Ptr_cat@std@@YA?AU_Scalar_ptr_iterator_tag@1@PAE0@Z
_TEXT	SEGMENT PARA USE32 PUBLIC 'CODE'
_TEXT	ENDS
;	COMDAT ??0const_iterator@?$vector@EV?$allocator@E@std@@@std@@QAE@PAE@Z
_TEXT	SEGMENT PARA USE32 PUBLIC 'CODE'
_TEXT	ENDS
;	COMDAT ?_Destroy@?$vector@EV?$allocator@E@std@@@std@@IAEXPAE0@Z
_TEXT	SEGMENT PARA USE32 PUBLIC 'CODE'
_TEXT	ENDS
;	COMDAT ??$_Destroy_range@EV?$allocator@E@std@@@std@@YAXPAE0AAV?$allocator@E@0@@Z
_TEXT	SEGMENT PARA USE32 PUBLIC 'CODE'
_TEXT	ENDS
;	COMDAT ?_Ptr_cat@std@@YA?AU_Scalar_ptr_iterator_tag@1@PAJ0@Z
_TEXT	SEGMENT PARA USE32 PUBLIC 'CODE'
_TEXT	ENDS
;	COMDAT ??9const_iterator@?$_Tree@V?$_Tmap_traits@KEU?$less@K@std@@V?$allocator@U?$pair@$$CBKE@std@@@2@$0A@@std@@@std@@QBE_NABV012@@Z
_TEXT	SEGMENT PARA USE32 PUBLIC 'CODE'
_TEXT	ENDS
;	COMDAT ??8const_iterator@?$_Tree@V?$_Tmap_traits@KEU?$less@K@std@@V?$allocator@U?$pair@$$CBKE@std@@@2@$0A@@std@@@std@@QBE_NABV012@@Z
_TEXT	SEGMENT PARA USE32 PUBLIC 'CODE'
_TEXT	ENDS
;	COMDAT ??Eiterator@?$_Tree@V?$_Tmap_traits@KEU?$less@K@std@@V?$allocator@U?$pair@$$CBKE@std@@@2@$0A@@std@@@std@@QAEAAV012@XZ
_TEXT	SEGMENT PARA USE32 PUBLIC 'CODE'
_TEXT	ENDS
;	COMDAT ??Econst_iterator@?$_Tree@V?$_Tmap_traits@KEU?$less@K@std@@V?$allocator@U?$pair@$$CBKE@std@@@2@$0A@@std@@@std@@QAEAAV012@XZ
_TEXT	SEGMENT PARA USE32 PUBLIC 'CODE'
_TEXT	ENDS
;	COMDAT ?_Inc@const_iterator@?$_Tree@V?$_Tmap_traits@KEU?$less@K@std@@V?$allocator@U?$pair@$$CBKE@std@@@2@$0A@@std@@@std@@QAEXXZ
_TEXT	SEGMENT PARA USE32 PUBLIC 'CODE'
_TEXT	ENDS
;	COMDAT ?_Min@?$_Tree@V?$_Tmap_traits@KEU?$less@K@std@@V?$allocator@U?$pair@$$CBKE@std@@@2@$0A@@std@@@std@@KAPAU_Node@?$_Tree_nod@V?$_Tmap_traits@KEU?$less@K@std@@V?$allocator@U?$pair@$$CBKE@std@@@2@$0A@@std@@@2@PAU342@@Z
_TEXT	SEGMENT PARA USE32 PUBLIC 'CODE'
_TEXT	ENDS
;	COMDAT ?_Left@?$_Tree@V?$_Tmap_traits@KEU?$less@K@std@@V?$allocator@U?$pair@$$CBKE@std@@@2@$0A@@std@@@std@@KAAAPAU_Node@?$_Tree_nod@V?$_Tmap_traits@KEU?$less@K@std@@V?$allocator@U?$pair@$$CBKE@std@@@2@$0A@@std@@@2@PAU342@@Z
_TEXT	SEGMENT PARA USE32 PUBLIC 'CODE'
_TEXT	ENDS
;	COMDAT ?_Isnil@?$_Tree@V?$_Tmap_traits@KEU?$less@K@std@@V?$allocator@U?$pair@$$CBKE@std@@@2@$0A@@std@@@std@@KAAADPAU_Node@?$_Tree_nod@V?$_Tmap_traits@KEU?$less@K@std@@V?$allocator@U?$pair@$$CBKE@std@@@2@$0A@@std@@@2@@Z
_TEXT	SEGMENT PARA USE32 PUBLIC 'CODE'
_TEXT	ENDS
;	COMDAT ?_Parent@?$_Tree@V?$_Tmap_traits@KEU?$less@K@std@@V?$allocator@U?$pair@$$CBKE@std@@@2@$0A@@std@@@std@@KAAAPAU_Node@?$_Tree_nod@V?$_Tmap_traits@KEU?$less@K@std@@V?$allocator@U?$pair@$$CBKE@std@@@2@$0A@@std@@@2@PAU342@@Z
_TEXT	SEGMENT PARA USE32 PUBLIC 'CODE'
_TEXT	ENDS
;	COMDAT ?_Right@?$_Tree@V?$_Tmap_traits@KEU?$less@K@std@@V?$allocator@U?$pair@$$CBKE@std@@@2@$0A@@std@@@std@@KAAAPAU_Node@?$_Tree_nod@V?$_Tmap_traits@KEU?$less@K@std@@V?$allocator@U?$pair@$$CBKE@std@@@2@$0A@@std@@@2@PAU342@@Z
_TEXT	SEGMENT PARA USE32 PUBLIC 'CODE'
_TEXT	ENDS
;	COMDAT ??9const_iterator@?$_Tree@V?$_Tmap_traits@KPAVCCtrl@@U?$less@K@std@@V?$allocator@U?$pair@$$CBKPAVCCtrl@@@std@@@3@$0A@@std@@@std@@QBE_NABV012@@Z
_TEXT	SEGMENT PARA USE32 PUBLIC 'CODE'
_TEXT	ENDS
;	COMDAT ??8const_iterator@?$_Tree@V?$_Tmap_traits@KPAVCCtrl@@U?$less@K@std@@V?$allocator@U?$pair@$$CBKPAVCCtrl@@@std@@@3@$0A@@std@@@std@@QBE_NABV012@@Z
_TEXT	SEGMENT PARA USE32 PUBLIC 'CODE'
_TEXT	ENDS
;	COMDAT ??Eiterator@?$_Tree@V?$_Tmap_traits@KPAVCCtrl@@U?$less@K@std@@V?$allocator@U?$pair@$$CBKPAVCCtrl@@@std@@@3@$0A@@std@@@std@@QAEAAV012@XZ
_TEXT	SEGMENT PARA USE32 PUBLIC 'CODE'
_TEXT	ENDS
;	COMDAT ??Econst_iterator@?$_Tree@V?$_Tmap_traits@KPAVCCtrl@@U?$less@K@std@@V?$allocator@U?$pair@$$CBKPAVCCtrl@@@std@@@3@$0A@@std@@@std@@QAEAAV012@XZ
_TEXT	SEGMENT PARA USE32 PUBLIC 'CODE'
_TEXT	ENDS
;	COMDAT ?_Inc@const_iterator@?$_Tree@V?$_Tmap_traits@KPAVCCtrl@@U?$less@K@std@@V?$allocator@U?$pair@$$CBKPAVCCtrl@@@std@@@3@$0A@@std@@@std@@QAEXXZ
_TEXT	SEGMENT PARA USE32 PUBLIC 'CODE'
_TEXT	ENDS
;	COMDAT ?_Min@?$_Tree@V?$_Tmap_traits@KPAVCCtrl@@U?$less@K@std@@V?$allocator@U?$pair@$$CBKPAVCCtrl@@@std@@@3@$0A@@std@@@std@@KAPAU_Node@?$_Tree_nod@V?$_Tmap_traits@KPAVCCtrl@@U?$less@K@std@@V?$allocator@U?$pair@$$CBKPAVCCtrl@@@std@@@3@$0A@@std@@@2@PAU342@@Z
_TEXT	SEGMENT PARA USE32 PUBLIC 'CODE'
_TEXT	ENDS
;	COMDAT ?_Left@?$_Tree@V?$_Tmap_traits@KPAVCCtrl@@U?$less@K@std@@V?$allocator@U?$pair@$$CBKPAVCCtrl@@@std@@@3@$0A@@std@@@std@@KAAAPAU_Node@?$_Tree_nod@V?$_Tmap_traits@KPAVCCtrl@@U?$less@K@std@@V?$allocator@U?$pair@$$CBKPAVCCtrl@@@std@@@3@$0A@@std@@@2@PAU342@@Z
_TEXT	SEGMENT PARA USE32 PUBLIC 'CODE'
_TEXT	ENDS
;	COMDAT ?_Isnil@?$_Tree@V?$_Tmap_traits@KPAVCCtrl@@U?$less@K@std@@V?$allocator@U?$pair@$$CBKPAVCCtrl@@@std@@@3@$0A@@std@@@std@@KAAADPAU_Node@?$_Tree_nod@V?$_Tmap_traits@KPAVCCtrl@@U?$less@K@std@@V?$allocator@U?$pair@$$CBKPAVCCtrl@@@std@@@3@$0A@@std@@@2@@Z
_TEXT	SEGMENT PARA USE32 PUBLIC 'CODE'
_TEXT	ENDS
;	COMDAT ?_Parent@?$_Tree@V?$_Tmap_traits@KPAVCCtrl@@U?$less@K@std@@V?$allocator@U?$pair@$$CBKPAVCCtrl@@@std@@@3@$0A@@std@@@std@@KAAAPAU_Node@?$_Tree_nod@V?$_Tmap_traits@KPAVCCtrl@@U?$less@K@std@@V?$allocator@U?$pair@$$CBKPAVCCtrl@@@std@@@3@$0A@@std@@@2@PAU342@@Z
_TEXT	SEGMENT PARA USE32 PUBLIC 'CODE'
_TEXT	ENDS
;	COMDAT ?_Right@?$_Tree@V?$_Tmap_traits@KPAVCCtrl@@U?$less@K@std@@V?$allocator@U?$pair@$$CBKPAVCCtrl@@@std@@@3@$0A@@std@@@std@@KAAAPAU_Node@?$_Tree_nod@V?$_Tmap_traits@KPAVCCtrl@@U?$less@K@std@@V?$allocator@U?$pair@$$CBKPAVCCtrl@@@std@@@3@$0A@@std@@@2@PAU342@@Z
_TEXT	SEGMENT PARA USE32 PUBLIC 'CODE'
_TEXT	ENDS
;	COMDAT ??9const_iterator@?$_Tree@V?$_Tmap_traits@KPAVCUser@@U?$less@K@std@@V?$allocator@U?$pair@$$CBKPAVCUser@@@std@@@3@$0A@@std@@@std@@QBE_NABV012@@Z
_TEXT	SEGMENT PARA USE32 PUBLIC 'CODE'
_TEXT	ENDS
;	COMDAT ??8const_iterator@?$_Tree@V?$_Tmap_traits@KPAVCUser@@U?$less@K@std@@V?$allocator@U?$pair@$$CBKPAVCUser@@@std@@@3@$0A@@std@@@std@@QBE_NABV012@@Z
_TEXT	SEGMENT PARA USE32 PUBLIC 'CODE'
_TEXT	ENDS
;	COMDAT ??Eiterator@?$_Tree@V?$_Tmap_traits@KPAVCUser@@U?$less@K@std@@V?$allocator@U?$pair@$$CBKPAVCUser@@@std@@@3@$0A@@std@@@std@@QAEAAV012@XZ
_TEXT	SEGMENT PARA USE32 PUBLIC 'CODE'
_TEXT	ENDS
;	COMDAT ??Econst_iterator@?$_Tree@V?$_Tmap_traits@KPAVCUser@@U?$less@K@std@@V?$allocator@U?$pair@$$CBKPAVCUser@@@std@@@3@$0A@@std@@@std@@QAEAAV012@XZ
_TEXT	SEGMENT PARA USE32 PUBLIC 'CODE'
_TEXT	ENDS
;	COMDAT ?_Inc@const_iterator@?$_Tree@V?$_Tmap_traits@KPAVCUser@@U?$less@K@std@@V?$allocator@U?$pair@$$CBKPAVCUser@@@std@@@3@$0A@@std@@@std@@QAEXXZ
_TEXT	SEGMENT PARA USE32 PUBLIC 'CODE'
_TEXT	ENDS
;	COMDAT ?_Min@?$_Tree@V?$_Tmap_traits@KPAVCUser@@U?$less@K@std@@V?$allocator@U?$pair@$$CBKPAVCUser@@@std@@@3@$0A@@std@@@std@@KAPAU_Node@?$_Tree_nod@V?$_Tmap_traits@KPAVCUser@@U?$less@K@std@@V?$allocator@U?$pair@$$CBKPAVCUser@@@std@@@3@$0A@@std@@@2@PAU342@@Z
_TEXT	SEGMENT PARA USE32 PUBLIC 'CODE'
_TEXT	ENDS
;	COMDAT ?_Left@?$_Tree@V?$_Tmap_traits@KPAVCUser@@U?$less@K@std@@V?$allocator@U?$pair@$$CBKPAVCUser@@@std@@@3@$0A@@std@@@std@@KAAAPAU_Node@?$_Tree_nod@V?$_Tmap_traits@KPAVCUser@@U?$less@K@std@@V?$allocator@U?$pair@$$CBKPAVCUser@@@std@@@3@$0A@@std@@@2@PAU342@@Z
_TEXT	SEGMENT PARA USE32 PUBLIC 'CODE'
_TEXT	ENDS
;	COMDAT ?_Isnil@?$_Tree@V?$_Tmap_traits@KPAVCUser@@U?$less@K@std@@V?$allocator@U?$pair@$$CBKPAVCUser@@@std@@@3@$0A@@std@@@std@@KAAADPAU_Node@?$_Tree_nod@V?$_Tmap_traits@KPAVCUser@@U?$less@K@std@@V?$allocator@U?$pair@$$CBKPAVCUser@@@std@@@3@$0A@@std@@@2@@Z
_TEXT	SEGMENT PARA USE32 PUBLIC 'CODE'
_TEXT	ENDS
;	COMDAT ?_Parent@?$_Tree@V?$_Tmap_traits@KPAVCUser@@U?$less@K@std@@V?$allocator@U?$pair@$$CBKPAVCUser@@@std@@@3@$0A@@std@@@std@@KAAAPAU_Node@?$_Tree_nod@V?$_Tmap_traits@KPAVCUser@@U?$less@K@std@@V?$allocator@U?$pair@$$CBKPAVCUser@@@std@@@3@$0A@@std@@@2@PAU342@@Z
_TEXT	SEGMENT PARA USE32 PUBLIC 'CODE'
_TEXT	ENDS
;	COMDAT ?_Right@?$_Tree@V?$_Tmap_traits@KPAVCUser@@U?$less@K@std@@V?$allocator@U?$pair@$$CBKPAVCUser@@@std@@@3@$0A@@std@@@std@@KAAAPAU_Node@?$_Tree_nod@V?$_Tmap_traits@KPAVCUser@@U?$less@K@std@@V?$allocator@U?$pair@$$CBKPAVCUser@@@std@@@3@$0A@@std@@@2@PAU342@@Z
_TEXT	SEGMENT PARA USE32 PUBLIC 'CODE'
_TEXT	ENDS
;	COMDAT ?_Psave@?$_Facetptr@V?$ctype@G@std@@@std@@2PBVfacet@locale@2@B
_DATA	SEGMENT DWORD USE32 PUBLIC 'DATA'
_DATA	ENDS
;	COMDAT ?_Psave@?$_Facetptr@V?$ctype@D@std@@@std@@2PBVfacet@locale@2@B
_DATA	SEGMENT DWORD USE32 PUBLIC 'DATA'
_DATA	ENDS
;	COMDAT __TI3?AVlength_error@std@@
xdata$x	SEGMENT DWORD USE32 PUBLIC 'CONST'
xdata$x	ENDS
;	COMDAT ??1length_error@std@@UAE@XZ
_TEXT	SEGMENT PARA USE32 PUBLIC 'CODE'
_TEXT	ENDS
;	COMDAT ??_7length_error@std@@6B@
CONST	SEGMENT DWORD USE32 PUBLIC 'CONST'
CONST	ENDS
;	COMDAT ??_Glength_error@std@@UAEPAXI@Z
_TEXT	SEGMENT PARA USE32 PUBLIC 'CODE'
_TEXT	ENDS
;	COMDAT ?what@logic_error@std@@UBEPBDXZ
_TEXT	SEGMENT PARA USE32 PUBLIC 'CODE'
_TEXT	ENDS
;	COMDAT ?c_str@?$basic_string@DU?$char_traits@D@std@@V?$allocator@D@2@@std@@QBEPBDXZ
_TEXT	SEGMENT PARA USE32 PUBLIC 'CODE'
_TEXT	ENDS
;	COMDAT ??1logic_error@std@@UAE@XZ
_TEXT	SEGMENT PARA USE32 PUBLIC 'CODE'
_TEXT	ENDS
;	COMDAT ??_7logic_error@std@@6B@
CONST	SEGMENT DWORD USE32 PUBLIC 'CONST'
CONST	ENDS
;	COMDAT ??_Glogic_error@std@@UAEPAXI@Z
_TEXT	SEGMENT PARA USE32 PUBLIC 'CODE'
_TEXT	ENDS
;	COMDAT __CTA3?AVlength_error@std@@
xdata$x	SEGMENT DWORD USE32 PUBLIC 'CONST'
xdata$x	ENDS
;	COMDAT __CT??_R0?AVlength_error@std@@@8??0length_error@std@@QAE@ABV01@@Z40
xdata$x	SEGMENT DWORD USE32 PUBLIC 'CONST'
xdata$x	ENDS
;	COMDAT ??_R0?AVlength_error@std@@@8
_DATA	SEGMENT DWORD USE32 PUBLIC 'DATA'
_DATA	ENDS
;	COMDAT ??0length_error@std@@QAE@ABV01@@Z
_TEXT	SEGMENT PARA USE32 PUBLIC 'CODE'
_TEXT	ENDS
;	COMDAT ??0logic_error@std@@QAE@ABV01@@Z
_TEXT	SEGMENT PARA USE32 PUBLIC 'CODE'
_TEXT	ENDS
;	COMDAT ??0?$basic_string@DU?$char_traits@D@std@@V?$allocator@D@2@@std@@QAE@ABV01@@Z
_TEXT	SEGMENT PARA USE32 PUBLIC 'CODE'
_TEXT	ENDS
;	COMDAT ??0?$_String_val@DV?$allocator@D@std@@@std@@IAE@V?$allocator@D@1@@Z
_TEXT	SEGMENT PARA USE32 PUBLIC 'CODE'
_TEXT	ENDS
;	COMDAT ??0?$allocator@D@std@@QAE@ABV01@@Z
_TEXT	SEGMENT PARA USE32 PUBLIC 'CODE'
_TEXT	ENDS
;	COMDAT ?_Tidy@?$basic_string@DU?$char_traits@D@std@@V?$allocator@D@2@@std@@IAEX_NI@Z
_TEXT	SEGMENT PARA USE32 PUBLIC 'CODE'
_TEXT	ENDS
;	COMDAT ?copy@?$char_traits@D@std@@SAPADPADPBDI@Z
_TEXT	SEGMENT PARA USE32 PUBLIC 'CODE'
_TEXT	ENDS
;	COMDAT ?deallocate@?$allocator@D@std@@QAEXPADI@Z
_TEXT	SEGMENT PARA USE32 PUBLIC 'CODE'
_TEXT	ENDS
;	COMDAT ?_Eos@?$basic_string@DU?$char_traits@D@std@@V?$allocator@D@2@@std@@IAEXI@Z
_TEXT	SEGMENT PARA USE32 PUBLIC 'CODE'
_TEXT	ENDS
;	COMDAT ?assign@?$char_traits@D@std@@SAXAADABD@Z
_TEXT	SEGMENT PARA USE32 PUBLIC 'CODE'
_TEXT	ENDS
;	COMDAT ?_Myptr@?$basic_string@DU?$char_traits@D@std@@V?$allocator@D@2@@std@@QAEPADXZ
_TEXT	SEGMENT PARA USE32 PUBLIC 'CODE'
_TEXT	ENDS
;	COMDAT ?assign@?$basic_string@DU?$char_traits@D@std@@V?$allocator@D@2@@std@@QAEAAV12@ABV12@II@Z
_TEXT	SEGMENT PARA USE32 PUBLIC 'CODE'
_TEXT	ENDS
;	COMDAT ?erase@?$basic_string@DU?$char_traits@D@std@@V?$allocator@D@2@@std@@QAEAAV12@II@Z
_TEXT	SEGMENT PARA USE32 PUBLIC 'CODE'
_TEXT	ENDS
;	COMDAT ?move@?$char_traits@D@std@@SAPADPADPBDI@Z
_TEXT	SEGMENT PARA USE32 PUBLIC 'CODE'
_TEXT	ENDS
;	COMDAT ?_Grow@?$basic_string@DU?$char_traits@D@std@@V?$allocator@D@2@@std@@IAE_NI_N@Z
_TEXT	SEGMENT PARA USE32 PUBLIC 'CODE'
_TEXT	ENDS
;	COMDAT ?max_size@?$basic_string@DU?$char_traits@D@std@@V?$allocator@D@2@@std@@QBEIXZ
_TEXT	SEGMENT PARA USE32 PUBLIC 'CODE'
_TEXT	ENDS
;	COMDAT ?max_size@?$allocator@D@std@@QBEIXZ
_TEXT	SEGMENT PARA USE32 PUBLIC 'CODE'
_TEXT	ENDS
;	COMDAT ?_Copy@?$basic_string@DU?$char_traits@D@std@@V?$allocator@D@2@@std@@IAEXII@Z
_TEXT	SEGMENT PARA USE32 PUBLIC 'CODE'
_TEXT	ENDS
;	COMDAT ?allocate@?$allocator@D@std@@QAEPADI@Z
_TEXT	SEGMENT PARA USE32 PUBLIC 'CODE'
_TEXT	ENDS
;	COMDAT ??$_Allocate@D@std@@YAPADIPAD@Z
_TEXT	SEGMENT PARA USE32 PUBLIC 'CODE'
_TEXT	ENDS
;	COMDAT ?npos@?$basic_string@DU?$char_traits@D@std@@V?$allocator@D@2@@std@@2IB
CONST	SEGMENT DWORD USE32 PUBLIC 'CONST'
CONST	ENDS
;	COMDAT __CT??_R0?AVlogic_error@std@@@8??0logic_error@std@@QAE@ABV01@@Z40
xdata$x	SEGMENT DWORD USE32 PUBLIC 'CONST'
xdata$x	ENDS
;	COMDAT ??_R0?AVlogic_error@std@@@8
_DATA	SEGMENT DWORD USE32 PUBLIC 'DATA'
_DATA	ENDS
;	COMDAT __CT??_R0?AVexception@@@8??0exception@@QAE@ABV0@@Z12
xdata$x	SEGMENT DWORD USE32 PUBLIC 'CONST'
xdata$x	ENDS
;	COMDAT ??_R0?AVexception@@@8
_DATA	SEGMENT DWORD USE32 PUBLIC 'DATA'
_DATA	ENDS
;	COMDAT ??1?$basic_string@DU?$char_traits@D@std@@V?$allocator@D@2@@std@@QAE@XZ
_TEXT	SEGMENT PARA USE32 PUBLIC 'CODE'
_TEXT	ENDS
;	COMDAT ??_C@_0BD@OLBABOEK@vector?$DMT?$DO?5too?5long?$AA@
CONST	SEGMENT DWORD USE32 PUBLIC 'CONST'
CONST	ENDS
;	COMDAT ??0?$basic_string@DU?$char_traits@D@std@@V?$allocator@D@2@@std@@QAE@PBD@Z
_TEXT	SEGMENT PARA USE32 PUBLIC 'CODE'
_TEXT	ENDS
;	COMDAT ??0?$allocator@D@std@@QAE@XZ
_TEXT	SEGMENT PARA USE32 PUBLIC 'CODE'
_TEXT	ENDS
;	COMDAT ?assign@?$basic_string@DU?$char_traits@D@std@@V?$allocator@D@2@@std@@QAEAAV12@PBD@Z
_TEXT	SEGMENT PARA USE32 PUBLIC 'CODE'
_TEXT	ENDS
;	COMDAT ?assign@?$basic_string@DU?$char_traits@D@std@@V?$allocator@D@2@@std@@QAEAAV12@PBDI@Z
_TEXT	SEGMENT PARA USE32 PUBLIC 'CODE'
_TEXT	ENDS
;	COMDAT ?_Inside@?$basic_string@DU?$char_traits@D@std@@V?$allocator@D@2@@std@@IAE_NPBD@Z
_TEXT	SEGMENT PARA USE32 PUBLIC 'CODE'
_TEXT	ENDS
;	COMDAT ?length@?$char_traits@D@std@@SAIPBD@Z
_TEXT	SEGMENT PARA USE32 PUBLIC 'CODE'
_TEXT	ENDS
;	COMDAT ??0length_error@std@@QAE@ABV?$basic_string@DU?$char_traits@D@std@@V?$allocator@D@2@@1@@Z
_TEXT	SEGMENT PARA USE32 PUBLIC 'CODE'
_TEXT	ENDS
;	COMDAT ??0logic_error@std@@QAE@ABV?$basic_string@DU?$char_traits@D@std@@V?$allocator@D@2@@1@@Z
_TEXT	SEGMENT PARA USE32 PUBLIC 'CODE'
_TEXT	ENDS
;	COMDAT ?compare@?$char_traits@D@std@@SAHPBD0I@Z
_TEXT	SEGMENT PARA USE32 PUBLIC 'CODE'
_TEXT	ENDS
;	COMDAT ?GetString@?$CSimpleStringT@D$0A@@ATL@@QBEPBDXZ
_TEXT	SEGMENT PARA USE32 PUBLIC 'CODE'
_TEXT	ENDS
;	COMDAT ?_Myptr@?$basic_string@DU?$char_traits@D@std@@V?$allocator@D@2@@std@@QBEPBDXZ
_TEXT	SEGMENT PARA USE32 PUBLIC 'CODE'
_TEXT	ENDS
;	COMDAT ?size@?$basic_string@DU?$char_traits@D@std@@V?$allocator@D@2@@std@@QBEIXZ
_TEXT	SEGMENT PARA USE32 PUBLIC 'CODE'
_TEXT	ENDS
;	COMDAT ?GetRandomOptItemIdPtr@CItemElem@@QAEPA_JXZ
_TEXT	SEGMENT PARA USE32 PUBLIC 'CODE'
_TEXT	ENDS
;	COMDAT ?GetRandomOptItemId@CItemElem@@QAE_JXZ
_TEXT	SEGMENT PARA USE32 PUBLIC 'CODE'
_TEXT	ENDS
;	COMDAT ?xRandom@@YAKK@Z
_TEXT	SEGMENT PARA USE32 PUBLIC 'CODE'
_TEXT	ENDS
;	COMDAT ?xRand@@YAKXZ
_TEXT	SEGMENT PARA USE32 PUBLIC 'CODE'
_TEXT	ENDS
;	COMDAT ?GetLevel@CPet@@QAEEXZ
_TEXT	SEGMENT PARA USE32 PUBLIC 'CODE'
_TEXT	ENDS
;	COMDAT ?GetPropA@CItemElem@@QAEPAUItemProp@@XZ
_TEXT	SEGMENT PARA USE32 PUBLIC 'CODE'
_TEXT	ENDS
;	COMDAT ?GetItemProp@CProject@@QAEPAUItemProp@@H@Z
_TEXT	SEGMENT PARA USE32 PUBLIC 'CODE'
_TEXT	ENDS
;	COMDAT ?LOG_RANGE@@YAXPBDHHH@Z
_TEXT	SEGMENT PARA USE32 PUBLIC 'CODE'
_TEXT	ENDS
;	COMDAT ??_C@_0BM@HMFGHCP@?$CFs?5min?3?$CFd?0?5max?3?$CFd?0?5index?3?$CFd?$AA@
CONST	SEGMENT DWORD USE32 PUBLIC 'CONST'
CONST	ENDS
;	COMDAT ?GetSize@?$CFixedArray@UItemProp@@@@QAEHXZ
_TEXT	SEGMENT PARA USE32 PUBLIC 'CODE'
_TEXT	ENDS
;	COMDAT ??_C@_0BI@BEIFNGEL@GetItemProp?5range_error?$AA@
CONST	SEGMENT DWORD USE32 PUBLIC 'CONST'
CONST	ENDS
;	COMDAT ?LOG_CALLSTACK@@YAXXZ
_TEXT	SEGMENT PARA USE32 PUBLIC 'CODE'
_TEXT	ENDS
;	COMDAT ?GetAt@?$CFixedArray@UItemProp@@@@QAEPAUItemProp@@K@Z
_TEXT	SEGMENT PARA USE32 PUBLIC 'CODE'
_TEXT	ENDS
;	COMDAT ?sRandomOptionProperty@?1??GetInstance@CRandomOptionProperty@@SAPAV2@XZ@4V2@A
_BSS	SEGMENT DWORD USE32 PUBLIC 'BSS'
_BSS	ENDS
;	COMDAT ?$S1@?1??GetInstance@CRandomOptionProperty@@SAPAV2@XZ@4IA
_BSS	SEGMENT DWORD USE32 PUBLIC 'BSS'
_BSS	ENDS
;	COMDAT ??_7CRandomOptionProperty@@6B@
CONST	SEGMENT DWORD USE32 PUBLIC 'CONST'
CONST	ENDS
sxdata	SEGMENT DWORD USE32 'SXDATA'
sxdata	ENDS
FLAT	GROUP _DATA, CONST, _BSS
	ASSUME	CS: FLAT, DS: FLAT, SS: FLAT
endif

INCLUDELIB LIBCMT
INCLUDELIB OLDNAMES

PUBLIC	??0_AdjData@@QAE@FK@Z				; _AdjData::_AdjData
; Function compile flags: /Ogty
; File c:\documents and settings\test\mes documents\source\virtuos_v17\build\program\_common\randomoption.h
;	COMDAT ??0_AdjData@@QAE@FK@Z
_TEXT	SEGMENT
_n$ = 8							; size = 2
_dw$ = 12						; size = 4
??0_AdjData@@QAE@FK@Z PROC NEAR				; _AdjData::_AdjData, COMDAT
; _this$ = ecx

; 25   : 	{
; 26   : 		nAdj	= n;
; 27   : 		dwProb	= dw;

  00000	8b 54 24 08	 mov	 edx, DWORD PTR _dw$[esp-4]
  00004	8b c1		 mov	 eax, ecx
  00006	66 8b 4c 24 04	 mov	 cx, WORD PTR _n$[esp-4]
  0000b	66 89 08	 mov	 WORD PTR [eax], cx
  0000e	89 50 04	 mov	 DWORD PTR [eax+4], edx

; 28   : 	}

  00011	c2 08 00	 ret	 8
??0_AdjData@@QAE@FK@Z ENDP				; _AdjData::_AdjData
_TEXT	ENDS
PUBLIC	??2@YAPAXIPAX@Z					; operator new
; Function compile flags: /Ogty
; File c:\program files\microsoft visual studio .net 2003\vc7\include\new.h
;	COMDAT ??2@YAPAXIPAX@Z
_TEXT	SEGMENT
___formal$ = 8						; size = 4
__P$ = 12						; size = 4
??2@YAPAXIPAX@Z PROC NEAR				; operator new, COMDAT

; 109  :         {return (_P); }

  00000	8b 44 24 08	 mov	 eax, DWORD PTR __P$[esp-4]
  00004	c3		 ret	 0
??2@YAPAXIPAX@Z ENDP					; operator new
_TEXT	ENDS
PUBLIC	??3@YAXPAX0@Z					; operator delete
; Function compile flags: /Ogty
;	COMDAT ??3@YAXPAX0@Z
_TEXT	SEGMENT
___formal$ = 8						; size = 4
___formal$ = 12						; size = 4
??3@YAXPAX0@Z PROC NEAR					; operator delete, COMDAT

; 112  :         {return; }

  00000	c3		 ret	 0
??3@YAXPAX0@Z ENDP					; operator delete
_TEXT	ENDS
PUBLIC	?GetParam@CRandomOptionProperty@@QAEH_JHPAH1@Z	; CRandomOptionProperty::GetParam
EXTRN	__allshr:NEAR
; Function compile flags: /Ogty
; File c:\documents and settings\test\mes documents\source\virtuos_v17\build\program\_common\randomoption.cpp
;	COMDAT ?GetParam@CRandomOptionProperty@@QAEH_JHPAH1@Z
_TEXT	SEGMENT
_nRandomOptItemId$ = 8					; size = 8
_i$ = 16						; size = 4
_pnDst$ = 20						; size = 4
_pnAdj$ = 24						; size = 4
?GetParam@CRandomOptionProperty@@QAEH_JHPAH1@Z PROC NEAR ; CRandomOptionProperty::GetParam, COMDAT
; _this$ = ecx

; 155  : //	ASSERT( i < MAX_RANDOM_OPTION );
; 156  : 	if( i >= MAX_RANDOM_OPTION )

  00000	8b 44 24 0c	 mov	 eax, DWORD PTR _i$[esp-4]
  00004	83 f8 03	 cmp	 eax, 3
  00007	7c 05		 jl	 SHORT $L226464

; 157  : 		return FALSE;

  00009	33 c0		 xor	 eax, eax

; 171  : }

  0000b	c2 14 00	 ret	 20			; 00000014H
$L226464:

; 158  : 
; 159  : 	int nRandomOption	= static_cast<int>( nRandomOptItemId >> ( 8 + i * 18 ) );	//      

  0000e	8b 54 24 08	 mov	 edx, DWORD PTR _nRandomOptItemId$[esp]
  00012	8d 0c c0	 lea	 ecx, DWORD PTR [eax+eax*8]
  00015	8b 44 24 04	 mov	 eax, DWORD PTR _nRandomOptItemId$[esp-4]
  00019	8d 4c 09 08	 lea	 ecx, DWORD PTR [ecx+ecx+8]
  0001d	e8 00 00 00 00	 call	 __allshr

; 160  : 	*pnAdj	= nRandomOption & 0x000001FF;	//  9 .

  00022	8b 54 24 14	 mov	 edx, DWORD PTR _pnAdj$[esp-4]
  00026	8b c8		 mov	 ecx, eax
  00028	81 e1 ff 01 00
	00		 and	 ecx, 511		; 000001ffH

; 161  : 	if( nRandomOption & 0x00000200 )	//  10  1 

  0002e	f6 c4 02	 test	 ah, 2
  00031	89 0a		 mov	 DWORD PTR [edx], ecx
  00033	74 04		 je	 SHORT $L226467

; 162  : 		*pnAdj	= -*pnAdj;

  00035	f7 d9		 neg	 ecx
  00037	89 0a		 mov	 DWORD PTR [edx], ecx
$L226467:

; 163  : 	nRandomOption	= nRandomOption >> 10;	// 10 , 
; 164  : 
; 165  : 	//	mulcom	BEGIN100405	  
; 166  : 	//*pnDst	= nRandomOption & 0x000000FF;	// 8 
; 167  : 	*pnDst	= nRandomOption & 0x0000007F;	// 8 

  00039	8b 4c 24 10	 mov	 ecx, DWORD PTR _pnDst$[esp-4]

; 168  : 	//	mulcom	END100405	  
; 169  : 
; 170  : 	return ( *pnDst > 0 );

  0003d	c1 f8 0a	 sar	 eax, 10			; 0000000aH
  00040	83 e0 7f	 and	 eax, 127		; 0000007fH
  00043	89 01		 mov	 DWORD PTR [ecx], eax
  00045	b8 00 00 00 00	 mov	 eax, 0
  0004a	0f 9f c0	 setg	 al

; 171  : }

  0004d	c2 14 00	 ret	 20			; 00000014H
?GetParam@CRandomOptionProperty@@QAEH_JHPAH1@Z ENDP	; CRandomOptionProperty::GetParam
_TEXT	ENDS
PUBLIC	?GetViewRandomOptionSize@CRandomOptionProperty@@QAEH_J@Z ; CRandomOptionProperty::GetViewRandomOptionSize
; Function compile flags: /Ogty
;	COMDAT ?GetViewRandomOptionSize@CRandomOptionProperty@@QAEH_J@Z
_TEXT	SEGMENT
_n64RandomOptItemId$ = 8				; size = 8
?GetViewRandomOptionSize@CRandomOptionProperty@@QAEH_J@Z PROC NEAR ; CRandomOptionProperty::GetViewRandomOptionSize, COMDAT
; _this$ = ecx

; 204  : {

  00000	53		 push	 ebx
  00001	55		 push	 ebp

; 205  : 	int nSize	= 0;
; 206  : 
; 207  : 	__int64 i	= 0x3FFFF << 8;
; 208  : 	for( int j = 0; j < MAX_RANDOM_OPTION; j++ )

  00002	8b 6c 24 0c	 mov	 ebp, DWORD PTR _n64RandomOptItemId$[esp+4]
  00006	56		 push	 esi
  00007	57		 push	 edi
  00008	33 c0		 xor	 eax, eax
  0000a	33 ff		 xor	 edi, edi
  0000c	be 00 ff ff 03	 mov	 esi, 67108608		; 03ffff00H
  00011	33 db		 xor	 ebx, ebx
$L226489:

; 209  : 	{
; 210  : 		if( n64RandomOptItemId & i )

  00013	8b d7		 mov	 edx, edi
  00015	23 54 24 18	 and	 edx, DWORD PTR _n64RandomOptItemId$[esp+16]
  00019	8b ce		 mov	 ecx, esi
  0001b	23 cd		 and	 ecx, ebp
  0001d	0b ca		 or	 ecx, edx
  0001f	74 0e		 je	 SHORT $L226485

; 211  : 			nSize++;
; 212  : 		else
; 213  : 			return nSize;
; 214  : 
; 215  : 		i	= i << 18;

  00021	0f a4 f7 12	 shld	 edi, esi, 18
  00025	40		 inc	 eax
  00026	c1 e6 12	 shl	 esi, 18			; 00000012H
  00029	43		 inc	 ebx
  0002a	83 fb 03	 cmp	 ebx, 3
  0002d	7c e4		 jl	 SHORT $L226489
$L226485:
  0002f	5f		 pop	 edi
  00030	5e		 pop	 esi
  00031	5d		 pop	 ebp
  00032	5b		 pop	 ebx

; 216  : 	}
; 217  : 
; 218  : 	return nSize;
; 219  : }

  00033	c2 08 00	 ret	 8
?GetViewRandomOptionSize@CRandomOptionProperty@@QAEH_J@Z ENDP ; CRandomOptionProperty::GetViewRandomOptionSize
_TEXT	ENDS
PUBLIC	?GetRandomOptionKindIndex@CRandomOptionProperty@@AAEHHH@Z ; CRandomOptionProperty::GetRandomOptionKindIndex
; Function compile flags: /Ogty
;	COMDAT ?GetRandomOptionKindIndex@CRandomOptionProperty@@AAEHHH@Z
_TEXT	SEGMENT
_nRandomOptionKind$ = 8					; size = 4
_nParts$ = 12						; size = 4
?GetRandomOptionKindIndex@CRandomOptionProperty@@AAEHHH@Z PROC NEAR ; CRandomOptionProperty::GetRandomOptionKindIndex, COMDAT
; _this$ = ecx

; 331  : #if __VER >= 12 // __J12_0
; 332  : 	//PARTS_HAND: 4, PARTS_FOOT: 5, PARTS_CAP: 6
; 333  : 	//       
; 334  : 	if( nRandomOptionKind == eAwakening && ( nParts == PARTS_HAND || nParts == PARTS_FOOT || nParts == PARTS_CAP ) )

  00000	8b 4c 24 04	 mov	 ecx, DWORD PTR _nRandomOptionKind$[esp-4]
  00004	85 c9		 test	 ecx, ecx
  00006	75 13		 jne	 SHORT $L226561
  00008	8b 44 24 08	 mov	 eax, DWORD PTR _nParts$[esp-4]
  0000c	83 f8 04	 cmp	 eax, 4
  0000f	74 0c		 je	 SHORT $L226560
  00011	83 f8 05	 cmp	 eax, 5
  00014	74 07		 je	 SHORT $L226560
  00016	83 f8 06	 cmp	 eax, 6

; 335  : 		return eMaxRandomOptionKind + nParts - PARTS_HAND;

  00019	74 02		 je	 SHORT $L226560
$L226561:

; 336  : #endif	// __J12_0
; 337  : 	return nRandomOptionKind;

  0001b	8b c1		 mov	 eax, ecx
$L226560:

; 338  : }

  0001d	c2 08 00	 ret	 8
?GetRandomOptionKindIndex@CRandomOptionProperty@@AAEHHH@Z ENDP ; CRandomOptionProperty::GetRandomOptionKindIndex
_TEXT	ENDS
PUBLIC	?InitializeRandomOption@CRandomOptionProperty@@QAEXPA_J@Z ; CRandomOptionProperty::InitializeRandomOption
; Function compile flags: /Ogty
;	COMDAT ?InitializeRandomOption@CRandomOptionProperty@@QAEXPA_J@Z
_TEXT	SEGMENT
_pnRandomOptItemId$ = 8					; size = 4
?InitializeRandomOption@CRandomOptionProperty@@QAEXPA_J@Z PROC NEAR ; CRandomOptionProperty::InitializeRandomOption, COMDAT
; _this$ = ecx

; 342  : 	*pnRandomOptItemId	&= 0xC0000000000000FF;

  00000	8b 44 24 04	 mov	 eax, DWORD PTR _pnRandomOptItemId$[esp-4]
  00004	81 20 ff 00 00
	00		 and	 DWORD PTR [eax], 255	; 000000ffH
  0000a	81 60 04 00 00
	00 c0		 and	 DWORD PTR [eax+4], -1073741824 ; c0000000H

; 343  : }

  00011	c2 04 00	 ret	 4
?InitializeRandomOption@CRandomOptionProperty@@QAEXPA_J@Z ENDP ; CRandomOptionProperty::InitializeRandomOption
_TEXT	ENDS
PUBLIC	?IsCheckedSafeFlag@CRandomOptionProperty@@QAE_N_J@Z ; CRandomOptionProperty::IsCheckedSafeFlag
; Function compile flags: /Ogty
;	COMDAT ?IsCheckedSafeFlag@CRandomOptionProperty@@QAE_N_J@Z
_TEXT	SEGMENT
_n64RandomeOption$ = 8					; size = 8
?IsCheckedSafeFlag@CRandomOptionProperty@@QAE_N_J@Z PROC NEAR ; CRandomOptionProperty::IsCheckedSafeFlag, COMDAT
; _this$ = ecx

; 399  : 	if( (n64RandomeOption & _AWAKE_SAFE_FLAG) == _AWAKE_SAFE_FLAG )

  00000	8b 44 24 08	 mov	 eax, DWORD PTR _n64RandomeOption$[esp]
  00004	25 00 00 00 20	 and	 eax, 536870912		; 20000000H
  00009	33 c9		 xor	 ecx, ecx
  0000b	75 0c		 jne	 SHORT $L226593
  0000d	3d 00 00 00 20	 cmp	 eax, 536870912		; 20000000H
  00012	75 05		 jne	 SHORT $L226593

; 400  : 	{
; 401  : #ifdef __PROTECT_AWAKE
; 402  : 		return	true;

  00014	b0 01		 mov	 al, 1

; 407  : }

  00016	c2 08 00	 ret	 8
$L226593:

; 403  : #endif	
; 404  : 	}
; 405  : 
; 406  : 	return	false;

  00019	32 c0		 xor	 al, al

; 407  : }

  0001b	c2 08 00	 ret	 8
?IsCheckedSafeFlag@CRandomOptionProperty@@QAE_N_J@Z ENDP ; CRandomOptionProperty::IsCheckedSafeFlag
_TEXT	ENDS
PUBLIC	?size@?$vector@U_AdjData@@V?$allocator@U_AdjData@@@std@@@std@@QBEIXZ ; std::vector<_AdjData,std::allocator<_AdjData> >::size
; Function compile flags: /Ogty
; File c:\program files\microsoft visual studio .net 2003\vc7\include\vector
;	COMDAT ?size@?$vector@U_AdjData@@V?$allocator@U_AdjData@@@std@@@std@@QBEIXZ
_TEXT	SEGMENT
?size@?$vector@U_AdjData@@V?$allocator@U_AdjData@@@std@@@std@@QBEIXZ PROC NEAR ; std::vector<_AdjData,std::allocator<_AdjData> >::size, COMDAT
; _this$ = ecx

; 516  : 		return (_Myfirst == 0 ? 0 : _Mylast - _Myfirst);

  00000	8b 51 04	 mov	 edx, DWORD PTR [ecx+4]
  00003	85 d2		 test	 edx, edx
  00005	75 03		 jne	 SHORT $L229348
  00007	33 c0		 xor	 eax, eax

; 517  : 		}

  00009	c3		 ret	 0
$L229348:

; 516  : 		return (_Myfirst == 0 ? 0 : _Mylast - _Myfirst);

  0000a	8b 41 08	 mov	 eax, DWORD PTR [ecx+8]
  0000d	2b c2		 sub	 eax, edx
  0000f	c1 f8 03	 sar	 eax, 3

; 517  : 		}

  00012	c3		 ret	 0
?size@?$vector@U_AdjData@@V?$allocator@U_AdjData@@@std@@@std@@QBEIXZ ENDP ; std::vector<_AdjData,std::allocator<_AdjData> >::size
_TEXT	ENDS
PUBLIC	?size@?$vector@U_RANDOM_OPTION@@V?$allocator@U_RANDOM_OPTION@@@std@@@std@@QBEIXZ ; std::vector<_RANDOM_OPTION,std::allocator<_RANDOM_OPTION> >::size
; Function compile flags: /Ogty
;	COMDAT ?size@?$vector@U_RANDOM_OPTION@@V?$allocator@U_RANDOM_OPTION@@@std@@@std@@QBEIXZ
_TEXT	SEGMENT
?size@?$vector@U_RANDOM_OPTION@@V?$allocator@U_RANDOM_OPTION@@@std@@@std@@QBEIXZ PROC NEAR ; std::vector<_RANDOM_OPTION,std::allocator<_RANDOM_OPTION> >::size, COMDAT
; _this$ = ecx

; 516  : 		return (_Myfirst == 0 ? 0 : _Mylast - _Myfirst);

  00000	8b 41 04	 mov	 eax, DWORD PTR [ecx+4]
  00003	85 c0		 test	 eax, eax
  00005	75 01		 jne	 SHORT $L229353

; 517  : 		}

  00007	c3		 ret	 0
$L229353:

; 516  : 		return (_Myfirst == 0 ? 0 : _Mylast - _Myfirst);

  00008	8b 49 08	 mov	 ecx, DWORD PTR [ecx+8]
  0000b	2b c8		 sub	 ecx, eax
  0000d	b8 ab aa aa 2a	 mov	 eax, 715827883		; 2aaaaaabH
  00012	f7 e9		 imul	 ecx
  00014	c1 fa 02	 sar	 edx, 2
  00017	8b c2		 mov	 eax, edx
  00019	c1 e8 1f	 shr	 eax, 31			; 0000001fH
  0001c	03 c2		 add	 eax, edx

; 517  : 		}

  0001e	c3		 ret	 0
?size@?$vector@U_RANDOM_OPTION@@V?$allocator@U_RANDOM_OPTION@@@std@@@std@@QBEIXZ ENDP ; std::vector<_RANDOM_OPTION,std::allocator<_RANDOM_OPTION> >::size
_TEXT	ENDS
PUBLIC	?capacity@?$vector@U_AdjData@@V?$allocator@U_AdjData@@@std@@@std@@QBEIXZ ; std::vector<_AdjData,std::allocator<_AdjData> >::capacity
; Function compile flags: /Ogty
;	COMDAT ?capacity@?$vector@U_AdjData@@V?$allocator@U_AdjData@@@std@@@std@@QBEIXZ
_TEXT	SEGMENT
?capacity@?$vector@U_AdjData@@V?$allocator@U_AdjData@@@std@@@std@@QBEIXZ PROC NEAR ; std::vector<_AdjData,std::allocator<_AdjData> >::capacity, COMDAT
; _this$ = ecx

; 458  : 		return (_Myfirst == 0 ? 0 : _Myend - _Myfirst);

  00000	8b 51 04	 mov	 edx, DWORD PTR [ecx+4]
  00003	85 d2		 test	 edx, edx
  00005	75 03		 jne	 SHORT $L229358
  00007	33 c0		 xor	 eax, eax

; 459  : 		}

  00009	c3		 ret	 0
$L229358:

; 458  : 		return (_Myfirst == 0 ? 0 : _Myend - _Myfirst);

  0000a	8b 41 0c	 mov	 eax, DWORD PTR [ecx+12]
  0000d	2b c2		 sub	 eax, edx
  0000f	c1 f8 03	 sar	 eax, 3

; 459  : 		}

  00012	c3		 ret	 0
?capacity@?$vector@U_AdjData@@V?$allocator@U_AdjData@@@std@@@std@@QBEIXZ ENDP ; std::vector<_AdjData,std::allocator<_AdjData> >::capacity
_TEXT	ENDS
PUBLIC	??0?$allocator@U_AdjData@@@std@@QAE@XZ		; std::allocator<_AdjData>::allocator<_AdjData>
; Function compile flags: /Ogty
; File c:\program files\microsoft visual studio .net 2003\vc7\include\xmemory
;	COMDAT ??0?$allocator@U_AdjData@@@std@@QAE@XZ
_TEXT	SEGMENT
??0?$allocator@U_AdjData@@@std@@QAE@XZ PROC NEAR	; std::allocator<_AdjData>::allocator<_AdjData>, COMDAT
; _this$ = ecx

; 111  : 	allocator()

  00000	8b c1		 mov	 eax, ecx

; 112  : 		{	// construct default allocator (do nothing)
; 113  : 		}

  00002	c3		 ret	 0
??0?$allocator@U_AdjData@@@std@@QAE@XZ ENDP		; std::allocator<_AdjData>::allocator<_AdjData>
_TEXT	ENDS
PUBLIC	?capacity@?$vector@U_RANDOM_OPTION@@V?$allocator@U_RANDOM_OPTION@@@std@@@std@@QBEIXZ ; std::vector<_RANDOM_OPTION,std::allocator<_RANDOM_OPTION> >::capacity
; Function compile flags: /Ogty
; File c:\program files\microsoft visual studio .net 2003\vc7\include\vector
;	COMDAT ?capacity@?$vector@U_RANDOM_OPTION@@V?$allocator@U_RANDOM_OPTION@@@std@@@std@@QBEIXZ
_TEXT	SEGMENT
?capacity@?$vector@U_RANDOM_OPTION@@V?$allocator@U_RANDOM_OPTION@@@std@@@std@@QBEIXZ PROC NEAR ; std::vector<_RANDOM_OPTION,std::allocator<_RANDOM_OPTION> >::capacity, COMDAT
; _this$ = ecx

; 458  : 		return (_Myfirst == 0 ? 0 : _Myend - _Myfirst);

  00000	8b 41 04	 mov	 eax, DWORD PTR [ecx+4]
  00003	85 c0		 test	 eax, eax
  00005	75 01		 jne	 SHORT $L229366

; 459  : 		}

  00007	c3		 ret	 0
$L229366:

; 458  : 		return (_Myfirst == 0 ? 0 : _Myend - _Myfirst);

  00008	8b 49 0c	 mov	 ecx, DWORD PTR [ecx+12]
  0000b	2b c8		 sub	 ecx, eax
  0000d	b8 ab aa aa 2a	 mov	 eax, 715827883		; 2aaaaaabH
  00012	f7 e9		 imul	 ecx
  00014	c1 fa 02	 sar	 edx, 2
  00017	8b c2		 mov	 eax, edx
  00019	c1 e8 1f	 shr	 eax, 31			; 0000001fH
  0001c	03 c2		 add	 eax, edx

; 459  : 		}

  0001e	c3		 ret	 0
?capacity@?$vector@U_RANDOM_OPTION@@V?$allocator@U_RANDOM_OPTION@@@std@@@std@@QBEIXZ ENDP ; std::vector<_RANDOM_OPTION,std::allocator<_RANDOM_OPTION> >::capacity
_TEXT	ENDS
PUBLIC	??0?$allocator@U_RANDOM_OPTION@@@std@@QAE@XZ	; std::allocator<_RANDOM_OPTION>::allocator<_RANDOM_OPTION>
; Function compile flags: /Ogty
; File c:\program files\microsoft visual studio .net 2003\vc7\include\xmemory
;	COMDAT ??0?$allocator@U_RANDOM_OPTION@@@std@@QAE@XZ
_TEXT	SEGMENT
??0?$allocator@U_RANDOM_OPTION@@@std@@QAE@XZ PROC NEAR	; std::allocator<_RANDOM_OPTION>::allocator<_RANDOM_OPTION>, COMDAT
; _this$ = ecx

; 111  : 	allocator()

  00000	8b c1		 mov	 eax, ecx

; 112  : 		{	// construct default allocator (do nothing)
; 113  : 		}

  00002	c3		 ret	 0
??0?$allocator@U_RANDOM_OPTION@@@std@@QAE@XZ ENDP	; std::allocator<_RANDOM_OPTION>::allocator<_RANDOM_OPTION>
_TEXT	ENDS
PUBLIC	?StringCompare@?$ChTraitsCRT@D@ATL@@SAHPBD0@Z	; ATL::ChTraitsCRT<char>::StringCompare
EXTRN	__mbscmp:NEAR
; Function compile flags: /Ogty
; File c:\program files\microsoft visual studio .net 2003\vc7\atlmfc\include\cstringt.h
;	COMDAT ?StringCompare@?$ChTraitsCRT@D@ATL@@SAHPBD0@Z
_TEXT	SEGMENT
_pszA$ = 8						; size = 4
_pszB$ = 12						; size = 4
?StringCompare@?$ChTraitsCRT@D@ATL@@SAHPBD0@Z PROC NEAR	; ATL::ChTraitsCRT<char>::StringCompare, COMDAT

; 336  : 		return _mbscmp( reinterpret_cast< const unsigned char* >( pszA ), reinterpret_cast< const unsigned char* >( pszB ) );

  00000	e9 00 00 00 00	 jmp	 __mbscmp
?StringCompare@?$ChTraitsCRT@D@ATL@@SAHPBD0@Z ENDP	; ATL::ChTraitsCRT<char>::StringCompare
_TEXT	ENDS
PUBLIC	??0?$allocator@U_AdjData@@@std@@QAE@ABV01@@Z	; std::allocator<_AdjData>::allocator<_AdjData>
; Function compile flags: /Ogty
; File c:\program files\microsoft visual studio .net 2003\vc7\include\xmemory
;	COMDAT ??0?$allocator@U_AdjData@@@std@@QAE@ABV01@@Z
_TEXT	SEGMENT
___formal$ = 8						; size = 4
??0?$allocator@U_AdjData@@@std@@QAE@ABV01@@Z PROC NEAR	; std::allocator<_AdjData>::allocator<_AdjData>, COMDAT
; _this$ = ecx

; 115  : 	allocator(const allocator<_Ty>&)

  00000	8b c1		 mov	 eax, ecx

; 116  : 		{	// construct by copying (do nothing)
; 117  : 		}

  00002	c2 04 00	 ret	 4
??0?$allocator@U_AdjData@@@std@@QAE@ABV01@@Z ENDP	; std::allocator<_AdjData>::allocator<_AdjData>
_TEXT	ENDS
PUBLIC	?deallocate@?$allocator@U_AdjData@@@std@@QAEXPAU_AdjData@@I@Z ; std::allocator<_AdjData>::deallocate
EXTRN	??3@YAXPAX@Z:NEAR				; operator delete
; Function compile flags: /Ogty
;	COMDAT ?deallocate@?$allocator@U_AdjData@@@std@@QAEXPAU_AdjData@@I@Z
_TEXT	SEGMENT
__Ptr$ = 8						; size = 4
___formal$ = 12						; size = 4
?deallocate@?$allocator@U_AdjData@@@std@@QAEXPAU_AdjData@@I@Z PROC NEAR ; std::allocator<_AdjData>::deallocate, COMDAT
; _this$ = ecx

; 132  : 		operator delete(_Ptr);

  00000	8b 44 24 04	 mov	 eax, DWORD PTR __Ptr$[esp-4]
  00004	50		 push	 eax
  00005	e8 00 00 00 00	 call	 ??3@YAXPAX@Z		; operator delete
  0000a	59		 pop	 ecx

; 133  : 		}

  0000b	c2 08 00	 ret	 8
?deallocate@?$allocator@U_AdjData@@@std@@QAEXPAU_AdjData@@I@Z ENDP ; std::allocator<_AdjData>::deallocate
_TEXT	ENDS
PUBLIC	??Yiterator@?$vector@U_AdjData@@V?$allocator@U_AdjData@@@std@@@std@@QAEAAV012@H@Z ; std::vector<_AdjData,std::allocator<_AdjData> >::iterator::operator+=
; Function compile flags: /Ogty
; File c:\program files\microsoft visual studio .net 2003\vc7\include\vector
;	COMDAT ??Yiterator@?$vector@U_AdjData@@V?$allocator@U_AdjData@@@std@@@std@@QAEAAV012@H@Z
_TEXT	SEGMENT
__Off$ = 8						; size = 4
??Yiterator@?$vector@U_AdjData@@V?$allocator@U_AdjData@@@std@@@std@@QAEAAV012@H@Z PROC NEAR ; std::vector<_AdjData,std::allocator<_AdjData> >::iterator::operator+=, COMDAT
; _this$ = ecx

; 255  : 			{	// increment by integer

  00000	8b c1		 mov	 eax, ecx

; 256  : 			this->_Myptr += _Off;

  00002	8b 4c 24 04	 mov	 ecx, DWORD PTR __Off$[esp-4]
  00006	8d 14 cd 00 00
	00 00		 lea	 edx, DWORD PTR [ecx*8]
  0000d	01 10		 add	 DWORD PTR [eax], edx

; 257  : 			return (*this);
; 258  : 			}

  0000f	c2 04 00	 ret	 4
??Yiterator@?$vector@U_AdjData@@V?$allocator@U_AdjData@@@std@@@std@@QAEAAV012@H@Z ENDP ; std::vector<_AdjData,std::allocator<_AdjData> >::iterator::operator+=
_TEXT	ENDS
PUBLIC	??0const_iterator@?$vector@U_AdjData@@V?$allocator@U_AdjData@@@std@@@std@@QAE@PAU_AdjData@@@Z ; std::vector<_AdjData,std::allocator<_AdjData> >::const_iterator::const_iterator
; Function compile flags: /Ogty
;	COMDAT ??0const_iterator@?$vector@U_AdjData@@V?$allocator@U_AdjData@@@std@@@std@@QAE@PAU_AdjData@@@Z
_TEXT	SEGMENT
__Ptr$ = 8						; size = 4
??0const_iterator@?$vector@U_AdjData@@V?$allocator@U_AdjData@@@std@@@std@@QAE@PAU_AdjData@@@Z PROC NEAR ; std::vector<_AdjData,std::allocator<_AdjData> >::const_iterator::const_iterator, COMDAT
; _this$ = ecx

; 73   : 		const_iterator(_Tptr _Ptr)

  00000	8b c1		 mov	 eax, ecx

; 74   : 			{	// construct with pointer _Ptr
; 75   : 			_Myptr = _Ptr;

  00002	8b 4c 24 04	 mov	 ecx, DWORD PTR __Ptr$[esp-4]
  00006	89 08		 mov	 DWORD PTR [eax], ecx

; 76   : 			}

  00008	c2 04 00	 ret	 4
??0const_iterator@?$vector@U_AdjData@@V?$allocator@U_AdjData@@@std@@@std@@QAE@PAU_AdjData@@@Z ENDP ; std::vector<_AdjData,std::allocator<_AdjData> >::const_iterator::const_iterator
_TEXT	ENDS
PUBLIC	??Dconst_iterator@?$vector@U_AdjData@@V?$allocator@U_AdjData@@@std@@@std@@QBEABU_AdjData@@XZ ; std::vector<_AdjData,std::allocator<_AdjData> >::const_iterator::operator*
; Function compile flags: /Ogty
;	COMDAT ??Dconst_iterator@?$vector@U_AdjData@@V?$allocator@U_AdjData@@@std@@@std@@QBEABU_AdjData@@XZ
_TEXT	SEGMENT
??Dconst_iterator@?$vector@U_AdjData@@V?$allocator@U_AdjData@@@std@@@std@@QBEABU_AdjData@@XZ PROC NEAR ; std::vector<_AdjData,std::allocator<_AdjData> >::const_iterator::operator*, COMDAT
; _this$ = ecx

; 80   : 
; 81   : 
; 82   : 			return (*_Myptr);

  00000	8b 01		 mov	 eax, DWORD PTR [ecx]

; 83   : 			}

  00002	c3		 ret	 0
??Dconst_iterator@?$vector@U_AdjData@@V?$allocator@U_AdjData@@@std@@@std@@QBEABU_AdjData@@XZ ENDP ; std::vector<_AdjData,std::allocator<_AdjData> >::const_iterator::operator*
_TEXT	ENDS
PUBLIC	??0?$allocator@U_RANDOM_OPTION@@@std@@QAE@ABV01@@Z ; std::allocator<_RANDOM_OPTION>::allocator<_RANDOM_OPTION>
; Function compile flags: /Ogty
; File c:\program files\microsoft visual studio .net 2003\vc7\include\xmemory
;	COMDAT ??0?$allocator@U_RANDOM_OPTION@@@std@@QAE@ABV01@@Z
_TEXT	SEGMENT
___formal$ = 8						; size = 4
??0?$allocator@U_RANDOM_OPTION@@@std@@QAE@ABV01@@Z PROC NEAR ; std::allocator<_RANDOM_OPTION>::allocator<_RANDOM_OPTION>, COMDAT
; _this$ = ecx

; 115  : 	allocator(const allocator<_Ty>&)

  00000	8b c1		 mov	 eax, ecx

; 116  : 		{	// construct by copying (do nothing)
; 117  : 		}

  00002	c2 04 00	 ret	 4
??0?$allocator@U_RANDOM_OPTION@@@std@@QAE@ABV01@@Z ENDP	; std::allocator<_RANDOM_OPTION>::allocator<_RANDOM_OPTION>
_TEXT	ENDS
PUBLIC	?deallocate@?$allocator@U_RANDOM_OPTION@@@std@@QAEXPAU_RANDOM_OPTION@@I@Z ; std::allocator<_RANDOM_OPTION>::deallocate
; Function compile flags: /Ogty
;	COMDAT ?deallocate@?$allocator@U_RANDOM_OPTION@@@std@@QAEXPAU_RANDOM_OPTION@@I@Z
_TEXT	SEGMENT
__Ptr$ = 8						; size = 4
___formal$ = 12						; size = 4
?deallocate@?$allocator@U_RANDOM_OPTION@@@std@@QAEXPAU_RANDOM_OPTION@@I@Z PROC NEAR ; std::allocator<_RANDOM_OPTION>::deallocate, COMDAT
; _this$ = ecx

; 132  : 		operator delete(_Ptr);

  00000	8b 44 24 04	 mov	 eax, DWORD PTR __Ptr$[esp-4]
  00004	50		 push	 eax
  00005	e8 00 00 00 00	 call	 ??3@YAXPAX@Z		; operator delete
  0000a	59		 pop	 ecx

; 133  : 		}

  0000b	c2 08 00	 ret	 8
?deallocate@?$allocator@U_RANDOM_OPTION@@@std@@QAEXPAU_RANDOM_OPTION@@I@Z ENDP ; std::allocator<_RANDOM_OPTION>::deallocate
_TEXT	ENDS
PUBLIC	??Yiterator@?$vector@U_RANDOM_OPTION@@V?$allocator@U_RANDOM_OPTION@@@std@@@std@@QAEAAV012@H@Z ; std::vector<_RANDOM_OPTION,std::allocator<_RANDOM_OPTION> >::iterator::operator+=
; Function compile flags: /Ogty
; File c:\program files\microsoft visual studio .net 2003\vc7\include\vector
;	COMDAT ??Yiterator@?$vector@U_RANDOM_OPTION@@V?$allocator@U_RANDOM_OPTION@@@std@@@std@@QAEAAV012@H@Z
_TEXT	SEGMENT
__Off$ = 8						; size = 4
??Yiterator@?$vector@U_RANDOM_OPTION@@V?$allocator@U_RANDOM_OPTION@@@std@@@std@@QAEAAV012@H@Z PROC NEAR ; std::vector<_RANDOM_OPTION,std::allocator<_RANDOM_OPTION> >::iterator::operator+=, COMDAT
; _this$ = ecx

; 255  : 			{	// increment by integer

  00000	8b c1		 mov	 eax, ecx

; 256  : 			this->_Myptr += _Off;

  00002	8b 4c 24 04	 mov	 ecx, DWORD PTR __Off$[esp-4]
  00006	8b 10		 mov	 edx, DWORD PTR [eax]
  00008	8d 0c 49	 lea	 ecx, DWORD PTR [ecx+ecx*2]
  0000b	c1 e1 03	 shl	 ecx, 3
  0000e	03 d1		 add	 edx, ecx
  00010	89 10		 mov	 DWORD PTR [eax], edx

; 257  : 			return (*this);
; 258  : 			}

  00012	c2 04 00	 ret	 4
??Yiterator@?$vector@U_RANDOM_OPTION@@V?$allocator@U_RANDOM_OPTION@@@std@@@std@@QAEAAV012@H@Z ENDP ; std::vector<_RANDOM_OPTION,std::allocator<_RANDOM_OPTION> >::iterator::operator+=
_TEXT	ENDS
PUBLIC	??Dconst_iterator@?$vector@U_RANDOM_OPTION@@V?$allocator@U_RANDOM_OPTION@@@std@@@std@@QBEABU_RANDOM_OPTION@@XZ ; std::vector<_RANDOM_OPTION,std::allocator<_RANDOM_OPTION> >::const_iterator::operator*
; Function compile flags: /Ogty
;	COMDAT ??Dconst_iterator@?$vector@U_RANDOM_OPTION@@V?$allocator@U_RANDOM_OPTION@@@std@@@std@@QBEABU_RANDOM_OPTION@@XZ
_TEXT	SEGMENT
??Dconst_iterator@?$vector@U_RANDOM_OPTION@@V?$allocator@U_RANDOM_OPTION@@@std@@@std@@QBEABU_RANDOM_OPTION@@XZ PROC NEAR ; std::vector<_RANDOM_OPTION,std::allocator<_RANDOM_OPTION> >::const_iterator::operator*, COMDAT
; _this$ = ecx

; 80   : 
; 81   : 
; 82   : 			return (*_Myptr);

  00000	8b 01		 mov	 eax, DWORD PTR [ecx]

; 83   : 			}

  00002	c3		 ret	 0
??Dconst_iterator@?$vector@U_RANDOM_OPTION@@V?$allocator@U_RANDOM_OPTION@@@std@@@std@@QBEABU_RANDOM_OPTION@@XZ ENDP ; std::vector<_RANDOM_OPTION,std::allocator<_RANDOM_OPTION> >::const_iterator::operator*
_TEXT	ENDS
PUBLIC	?max_size@?$allocator@U_AdjData@@@std@@QBEIXZ	; std::allocator<_AdjData>::max_size
; Function compile flags: /Ogty
; File c:\program files\microsoft visual studio .net 2003\vc7\include\xmemory
;	COMDAT ?max_size@?$allocator@U_AdjData@@@std@@QBEIXZ
_TEXT	SEGMENT
?max_size@?$allocator@U_AdjData@@@std@@QBEIXZ PROC NEAR	; std::allocator<_AdjData>::max_size, COMDAT
; _this$ = ecx

; 157  : 		_SIZT _Count = (_SIZT)(-1) / sizeof (_Ty);
; 158  : 		return (0 < _Count ? _Count : 1);

  00000	b8 ff ff ff 1f	 mov	 eax, 536870911		; 1fffffffH

; 159  : 		}

  00005	c3		 ret	 0
?max_size@?$allocator@U_AdjData@@@std@@QBEIXZ ENDP	; std::allocator<_AdjData>::max_size
_TEXT	ENDS
PUBLIC	??Gconst_iterator@?$vector@U_AdjData@@V?$allocator@U_AdjData@@@std@@@std@@QBEHABV012@@Z ; std::vector<_AdjData,std::allocator<_AdjData> >::const_iterator::operator-
; Function compile flags: /Ogty
; File c:\program files\microsoft visual studio .net 2003\vc7\include\vector
;	COMDAT ??Gconst_iterator@?$vector@U_AdjData@@V?$allocator@U_AdjData@@@std@@@std@@QBEHABV012@@Z
_TEXT	SEGMENT
__Right$ = 8						; size = 4
??Gconst_iterator@?$vector@U_AdjData@@V?$allocator@U_AdjData@@@std@@@std@@QBEHABV012@@Z PROC NEAR ; std::vector<_AdjData,std::allocator<_AdjData> >::const_iterator::operator-, COMDAT
; _this$ = ecx

; 141  : 
; 142  : 
; 143  : 			return (_Myptr - _Right._Myptr);

  00000	8b 01		 mov	 eax, DWORD PTR [ecx]
  00002	8b 4c 24 04	 mov	 ecx, DWORD PTR __Right$[esp-4]
  00006	2b 01		 sub	 eax, DWORD PTR [ecx]
  00008	c1 f8 03	 sar	 eax, 3

; 144  : 			}

  0000b	c2 04 00	 ret	 4
??Gconst_iterator@?$vector@U_AdjData@@V?$allocator@U_AdjData@@@std@@@std@@QBEHABV012@@Z ENDP ; std::vector<_AdjData,std::allocator<_AdjData> >::const_iterator::operator-
_TEXT	ENDS
PUBLIC	?max_size@?$allocator@U_RANDOM_OPTION@@@std@@QBEIXZ ; std::allocator<_RANDOM_OPTION>::max_size
; Function compile flags: /Ogty
; File c:\program files\microsoft visual studio .net 2003\vc7\include\xmemory
;	COMDAT ?max_size@?$allocator@U_RANDOM_OPTION@@@std@@QBEIXZ
_TEXT	SEGMENT
?max_size@?$allocator@U_RANDOM_OPTION@@@std@@QBEIXZ PROC NEAR ; std::allocator<_RANDOM_OPTION>::max_size, COMDAT
; _this$ = ecx

; 157  : 		_SIZT _Count = (_SIZT)(-1) / sizeof (_Ty);
; 158  : 		return (0 < _Count ? _Count : 1);

  00000	b8 aa aa aa 0a	 mov	 eax, 178956970		; 0aaaaaaaH

; 159  : 		}

  00005	c3		 ret	 0
?max_size@?$allocator@U_RANDOM_OPTION@@@std@@QBEIXZ ENDP ; std::allocator<_RANDOM_OPTION>::max_size
_TEXT	ENDS
PUBLIC	??0const_iterator@?$vector@U_RANDOM_OPTION@@V?$allocator@U_RANDOM_OPTION@@@std@@@std@@QAE@PAU_RANDOM_OPTION@@@Z ; std::vector<_RANDOM_OPTION,std::allocator<_RANDOM_OPTION> >::const_iterator::const_iterator
; Function compile flags: /Ogty
; File c:\program files\microsoft visual studio .net 2003\vc7\include\vector
;	COMDAT ??0const_iterator@?$vector@U_RANDOM_OPTION@@V?$allocator@U_RANDOM_OPTION@@@std@@@std@@QAE@PAU_RANDOM_OPTION@@@Z
_TEXT	SEGMENT
__Ptr$ = 8						; size = 4
??0const_iterator@?$vector@U_RANDOM_OPTION@@V?$allocator@U_RANDOM_OPTION@@@std@@@std@@QAE@PAU_RANDOM_OPTION@@@Z PROC NEAR ; std::vector<_RANDOM_OPTION,std::allocator<_RANDOM_OPTION> >::const_iterator::const_iterator, COMDAT
; _this$ = ecx

; 73   : 		const_iterator(_Tptr _Ptr)

  00000	8b c1		 mov	 eax, ecx

; 74   : 			{	// construct with pointer _Ptr
; 75   : 			_Myptr = _Ptr;

  00002	8b 4c 24 04	 mov	 ecx, DWORD PTR __Ptr$[esp-4]
  00006	89 08		 mov	 DWORD PTR [eax], ecx

; 76   : 			}

  00008	c2 04 00	 ret	 4
??0const_iterator@?$vector@U_RANDOM_OPTION@@V?$allocator@U_RANDOM_OPTION@@@std@@@std@@QAE@PAU_RANDOM_OPTION@@@Z ENDP ; std::vector<_RANDOM_OPTION,std::allocator<_RANDOM_OPTION> >::const_iterator::const_iterator
_TEXT	ENDS
PUBLIC	??Gconst_iterator@?$vector@U_RANDOM_OPTION@@V?$allocator@U_RANDOM_OPTION@@@std@@@std@@QBEHABV012@@Z ; std::vector<_RANDOM_OPTION,std::allocator<_RANDOM_OPTION> >::const_iterator::operator-
; Function compile flags: /Ogty
;	COMDAT ??Gconst_iterator@?$vector@U_RANDOM_OPTION@@V?$allocator@U_RANDOM_OPTION@@@std@@@std@@QBEHABV012@@Z
_TEXT	SEGMENT
__Right$ = 8						; size = 4
??Gconst_iterator@?$vector@U_RANDOM_OPTION@@V?$allocator@U_RANDOM_OPTION@@@std@@@std@@QBEHABV012@@Z PROC NEAR ; std::vector<_RANDOM_OPTION,std::allocator<_RANDOM_OPTION> >::const_iterator::operator-, COMDAT
; _this$ = ecx

; 141  : 
; 142  : 
; 143  : 			return (_Myptr - _Right._Myptr);

  00000	8b 44 24 04	 mov	 eax, DWORD PTR __Right$[esp-4]
  00004	8b 10		 mov	 edx, DWORD PTR [eax]
  00006	8b 09		 mov	 ecx, DWORD PTR [ecx]
  00008	2b ca		 sub	 ecx, edx
  0000a	b8 ab aa aa 2a	 mov	 eax, 715827883		; 2aaaaaabH
  0000f	f7 e9		 imul	 ecx
  00011	c1 fa 02	 sar	 edx, 2
  00014	8b c2		 mov	 eax, edx
  00016	c1 e8 1f	 shr	 eax, 31			; 0000001fH
  00019	03 c2		 add	 eax, edx

; 144  : 			}

  0001b	c2 04 00	 ret	 4
??Gconst_iterator@?$vector@U_RANDOM_OPTION@@V?$allocator@U_RANDOM_OPTION@@@std@@@std@@QBEHABV012@@Z ENDP ; std::vector<_RANDOM_OPTION,std::allocator<_RANDOM_OPTION> >::const_iterator::operator-
_TEXT	ENDS
PUBLIC	?begin@?$vector@U_AdjData@@V?$allocator@U_AdjData@@@std@@@std@@QBE?AVconst_iterator@12@XZ ; std::vector<_AdjData,std::allocator<_AdjData> >::begin
; Function compile flags: /Ogty
;	COMDAT ?begin@?$vector@U_AdjData@@V?$allocator@U_AdjData@@@std@@@std@@QBE?AVconst_iterator@12@XZ
_TEXT	SEGMENT
___$ReturnUdt$ = 8					; size = 4
?begin@?$vector@U_AdjData@@V?$allocator@U_AdjData@@@std@@@std@@QBE?AVconst_iterator@12@XZ PROC NEAR ; std::vector<_AdjData,std::allocator<_AdjData> >::begin, COMDAT
; _this$ = ecx

; 468  : 		return (const_iterator(_Myfirst));

  00000	8b 49 04	 mov	 ecx, DWORD PTR [ecx+4]
  00003	8b 44 24 04	 mov	 eax, DWORD PTR ___$ReturnUdt$[esp-4]
  00007	89 08		 mov	 DWORD PTR [eax], ecx

; 469  : 		}

  00009	c2 04 00	 ret	 4
?begin@?$vector@U_AdjData@@V?$allocator@U_AdjData@@@std@@@std@@QBE?AVconst_iterator@12@XZ ENDP ; std::vector<_AdjData,std::allocator<_AdjData> >::begin
_TEXT	ENDS
PUBLIC	?end@?$vector@U_AdjData@@V?$allocator@U_AdjData@@@std@@@std@@QBE?AVconst_iterator@12@XZ ; std::vector<_AdjData,std::allocator<_AdjData> >::end
; Function compile flags: /Ogty
;	COMDAT ?end@?$vector@U_AdjData@@V?$allocator@U_AdjData@@@std@@@std@@QBE?AVconst_iterator@12@XZ
_TEXT	SEGMENT
___$ReturnUdt$ = 8					; size = 4
?end@?$vector@U_AdjData@@V?$allocator@U_AdjData@@@std@@@std@@QBE?AVconst_iterator@12@XZ PROC NEAR ; std::vector<_AdjData,std::allocator<_AdjData> >::end, COMDAT
; _this$ = ecx

; 478  : 		return (const_iterator(_Mylast));

  00000	8b 49 08	 mov	 ecx, DWORD PTR [ecx+8]
  00003	8b 44 24 04	 mov	 eax, DWORD PTR ___$ReturnUdt$[esp-4]
  00007	89 08		 mov	 DWORD PTR [eax], ecx

; 479  : 		}

  00009	c2 04 00	 ret	 4
?end@?$vector@U_AdjData@@V?$allocator@U_AdjData@@@std@@@std@@QBE?AVconst_iterator@12@XZ ENDP ; std::vector<_AdjData,std::allocator<_AdjData> >::end
_TEXT	ENDS
PUBLIC	??$fill@PAU_AdjData@@U1@@std@@YAXPAU_AdjData@@0ABU1@@Z ; std::fill<_AdjData *,_AdjData>
; Function compile flags: /Ogty
; File c:\program files\microsoft visual studio .net 2003\vc7\include\xutility
;	COMDAT ??$fill@PAU_AdjData@@U1@@std@@YAXPAU_AdjData@@0ABU1@@Z
_TEXT	SEGMENT
__First$ = 8						; size = 4
__Last$ = 12						; size = 4
__Val$ = 16						; size = 4
??$fill@PAU_AdjData@@U1@@std@@YAXPAU_AdjData@@0ABU1@@Z PROC NEAR ; std::fill<_AdjData *,_AdjData>, COMDAT

; 1135 : 	for (; _First != _Last; ++_First)

  00000	8b 44 24 04	 mov	 eax, DWORD PTR __First$[esp-4]
  00004	8b 54 24 08	 mov	 edx, DWORD PTR __Last$[esp-4]
  00008	3b c2		 cmp	 eax, edx
  0000a	74 17		 je	 SHORT $L227828
  0000c	8b 4c 24 0c	 mov	 ecx, DWORD PTR __Val$[esp-4]
  00010	56		 push	 esi
$L227826:

; 1136 : 		*_First = _Val;

  00011	8b 31		 mov	 esi, DWORD PTR [ecx]
  00013	89 30		 mov	 DWORD PTR [eax], esi
  00015	8b 71 04	 mov	 esi, DWORD PTR [ecx+4]
  00018	89 70 04	 mov	 DWORD PTR [eax+4], esi
  0001b	83 c0 08	 add	 eax, 8
  0001e	3b c2		 cmp	 eax, edx
  00020	75 ef		 jne	 SHORT $L227826
  00022	5e		 pop	 esi
$L227828:

; 1137 : 	}

  00023	c3		 ret	 0
??$fill@PAU_AdjData@@U1@@std@@YAXPAU_AdjData@@0ABU1@@Z ENDP ; std::fill<_AdjData *,_AdjData>
_TEXT	ENDS
PUBLIC	??$_Allocate@U_AdjData@@@std@@YAPAU_AdjData@@IPAU1@@Z ; std::_Allocate<_AdjData>
EXTRN	??2@YAPAXI@Z:NEAR				; operator new
; Function compile flags: /Ogty
; File c:\program files\microsoft visual studio .net 2003\vc7\include\xmemory
;	COMDAT ??$_Allocate@U_AdjData@@@std@@YAPAU_AdjData@@IPAU1@@Z
_TEXT	SEGMENT
__Count$ = 8						; size = 4
___formal$ = 12						; size = 4
??$_Allocate@U_AdjData@@@std@@YAPAU_AdjData@@IPAU1@@Z PROC NEAR ; std::_Allocate<_AdjData>, COMDAT

; 34   : 	return ((_Ty _FARQ *)operator new(_Count * sizeof (_Ty)));

  00000	8b 44 24 04	 mov	 eax, DWORD PTR __Count$[esp-4]
  00004	8d 0c c5 00 00
	00 00		 lea	 ecx, DWORD PTR [eax*8]
  0000b	51		 push	 ecx
  0000c	e8 00 00 00 00	 call	 ??2@YAPAXI@Z		; operator new
  00011	83 c4 04	 add	 esp, 4

; 35   : 	}

  00014	c3		 ret	 0
??$_Allocate@U_AdjData@@@std@@YAPAU_AdjData@@IPAU1@@Z ENDP ; std::_Allocate<_AdjData>
_TEXT	ENDS
PUBLIC	??$_Allocate@U_RANDOM_OPTION@@@std@@YAPAU_RANDOM_OPTION@@IPAU1@@Z ; std::_Allocate<_RANDOM_OPTION>
; Function compile flags: /Ogty
;	COMDAT ??$_Allocate@U_RANDOM_OPTION@@@std@@YAPAU_RANDOM_OPTION@@IPAU1@@Z
_TEXT	SEGMENT
__Count$ = 8						; size = 4
___formal$ = 12						; size = 4
??$_Allocate@U_RANDOM_OPTION@@@std@@YAPAU_RANDOM_OPTION@@IPAU1@@Z PROC NEAR ; std::_Allocate<_RANDOM_OPTION>, COMDAT

; 34   : 	return ((_Ty _FARQ *)operator new(_Count * sizeof (_Ty)));

  00000	8b 44 24 04	 mov	 eax, DWORD PTR __Count$[esp-4]
  00004	8d 04 40	 lea	 eax, DWORD PTR [eax+eax*2]
  00007	c1 e0 03	 shl	 eax, 3
  0000a	50		 push	 eax
  0000b	e8 00 00 00 00	 call	 ??2@YAPAXI@Z		; operator new
  00010	83 c4 04	 add	 esp, 4

; 35   : 	}

  00013	c3		 ret	 0
??$_Allocate@U_RANDOM_OPTION@@@std@@YAPAU_RANDOM_OPTION@@IPAU1@@Z ENDP ; std::_Allocate<_RANDOM_OPTION>
_TEXT	ENDS
PUBLIC	??$_Iter_cat@Viterator@?$vector@U_AdjData@@V?$allocator@U_AdjData@@@std@@@std@@@std@@YA?AUrandom_access_iterator_tag@0@ABViterator@?$vector@U_AdjData@@V?$allocator@U_AdjData@@@std@@@0@@Z ; std::_Iter_cat<std::vector<_AdjData,std::allocator<_AdjData> >::iterator>
; Function compile flags: /Ogty
; File c:\program files\microsoft visual studio .net 2003\vc7\include\xutility
;	COMDAT ??$_Iter_cat@Viterator@?$vector@U_AdjData@@V?$allocator@U_AdjData@@@std@@@std@@@std@@YA?AUrandom_access_iterator_tag@0@ABViterator@?$vector@U_AdjData@@V?$allocator@U_AdjData@@@std@@@0@@Z
_TEXT	SEGMENT
___$ReturnUdt$ = 8					; size = 4
___formal$ = 12						; size = 4
??$_Iter_cat@Viterator@?$vector@U_AdjData@@V?$allocator@U_AdjData@@@std@@@std@@@std@@YA?AUrandom_access_iterator_tag@0@ABViterator@?$vector@U_AdjData@@V?$allocator@U_AdjData@@@std@@@0@@Z PROC NEAR ; std::_Iter_cat<std::vector<_AdjData,std::allocator<_AdjData> >::iterator>, COMDAT

; 202  : 	typename iterator_traits<_Iter>::iterator_category _Cat;
; 203  : 	return (_Cat);

  00000	8b 44 24 04	 mov	 eax, DWORD PTR ___$ReturnUdt$[esp-4]

; 204  : 	}

  00004	c3		 ret	 0
??$_Iter_cat@Viterator@?$vector@U_AdjData@@V?$allocator@U_AdjData@@@std@@@std@@@std@@YA?AUrandom_access_iterator_tag@0@ABViterator@?$vector@U_AdjData@@V?$allocator@U_AdjData@@@std@@@0@@Z ENDP ; std::_Iter_cat<std::vector<_AdjData,std::allocator<_AdjData> >::iterator>
_TEXT	ENDS
PUBLIC	??$_Ptr_cat@PAU_AdjData@@PAU1@@std@@YA?AU_Nonscalar_ptr_iterator_tag@0@AAPAU_AdjData@@0@Z ; std::_Ptr_cat<_AdjData *,_AdjData *>
; Function compile flags: /Ogty
;	COMDAT ??$_Ptr_cat@PAU_AdjData@@PAU1@@std@@YA?AU_Nonscalar_ptr_iterator_tag@0@AAPAU_AdjData@@0@Z
_TEXT	SEGMENT
__Cat$ = -1						; size = 1
___formal$ = 8						; size = 4
___formal$ = 12						; size = 4
??$_Ptr_cat@PAU_AdjData@@PAU1@@std@@YA?AU_Nonscalar_ptr_iterator_tag@0@AAPAU_AdjData@@0@Z PROC NEAR ; std::_Ptr_cat<_AdjData *,_AdjData *>, COMDAT

; 211  : 	{	// return pointer category from arbitrary arguments

  00000	51		 push	 ecx

; 212  : 	_Nonscalar_ptr_iterator_tag _Cat;
; 213  : 	return (_Cat);

  00001	8a 44 24 03	 mov	 al, BYTE PTR __Cat$[esp+4]

; 214  : 	}

  00005	59		 pop	 ecx
  00006	c3		 ret	 0
??$_Ptr_cat@PAU_AdjData@@PAU1@@std@@YA?AU_Nonscalar_ptr_iterator_tag@0@AAPAU_AdjData@@0@Z ENDP ; std::_Ptr_cat<_AdjData *,_AdjData *>
_TEXT	ENDS
PUBLIC	??$_Ptr_cat@PAU_RANDOM_OPTION@@PAU1@@std@@YA?AU_Nonscalar_ptr_iterator_tag@0@AAPAU_RANDOM_OPTION@@0@Z ; std::_Ptr_cat<_RANDOM_OPTION *,_RANDOM_OPTION *>
; Function compile flags: /Ogty
;	COMDAT ??$_Ptr_cat@PAU_RANDOM_OPTION@@PAU1@@std@@YA?AU_Nonscalar_ptr_iterator_tag@0@AAPAU_RANDOM_OPTION@@0@Z
_TEXT	SEGMENT
__Cat$ = -1						; size = 1
___formal$ = 8						; size = 4
___formal$ = 12						; size = 4
??$_Ptr_cat@PAU_RANDOM_OPTION@@PAU1@@std@@YA?AU_Nonscalar_ptr_iterator_tag@0@AAPAU_RANDOM_OPTION@@0@Z PROC NEAR ; std::_Ptr_cat<_RANDOM_OPTION *,_RANDOM_OPTION *>, COMDAT

; 211  : 	{	// return pointer category from arbitrary arguments

  00000	51		 push	 ecx

; 212  : 	_Nonscalar_ptr_iterator_tag _Cat;
; 213  : 	return (_Cat);

  00001	8a 44 24 03	 mov	 al, BYTE PTR __Cat$[esp+4]

; 214  : 	}

  00005	59		 pop	 ecx
  00006	c3		 ret	 0
??$_Ptr_cat@PAU_RANDOM_OPTION@@PAU1@@std@@YA?AU_Nonscalar_ptr_iterator_tag@0@AAPAU_RANDOM_OPTION@@0@Z ENDP ; std::_Ptr_cat<_RANDOM_OPTION *,_RANDOM_OPTION *>
_TEXT	ENDS
PUBLIC	??$_Copy_backward_opt@PAU_AdjData@@PAU1@@std@@YAPAU_AdjData@@PAU1@00U_Nonscalar_ptr_iterator_tag@0@@Z ; std::_Copy_backward_opt<_AdjData *,_AdjData *>
; Function compile flags: /Ogty
;	COMDAT ??$_Copy_backward_opt@PAU_AdjData@@PAU1@@std@@YAPAU_AdjData@@PAU1@00U_Nonscalar_ptr_iterator_tag@0@@Z
_TEXT	SEGMENT
__First$ = 8						; size = 4
__Last$ = 12						; size = 4
__Dest$ = 16						; size = 4
___formal$ = 20						; size = 1
??$_Copy_backward_opt@PAU_AdjData@@PAU1@@std@@YAPAU_AdjData@@PAU1@00U_Nonscalar_ptr_iterator_tag@0@@Z PROC NEAR ; std::_Copy_backward_opt<_AdjData *,_AdjData *>, COMDAT

; 1049 : 	while (_First != _Last)

  00000	8b 54 24 04	 mov	 edx, DWORD PTR __First$[esp-4]
  00004	8b 4c 24 08	 mov	 ecx, DWORD PTR __Last$[esp-4]
  00008	3b d1		 cmp	 edx, ecx
  0000a	8b 44 24 0c	 mov	 eax, DWORD PTR __Dest$[esp-4]
  0000e	74 17		 je	 SHORT $L228155
  00010	56		 push	 esi
$L228154:

; 1050 : 		*--_Dest = *--_Last;

  00011	8b 71 f8	 mov	 esi, DWORD PTR [ecx-8]
  00014	83 e9 08	 sub	 ecx, 8
  00017	83 e8 08	 sub	 eax, 8
  0001a	3b ca		 cmp	 ecx, edx
  0001c	89 30		 mov	 DWORD PTR [eax], esi
  0001e	8b 71 04	 mov	 esi, DWORD PTR [ecx+4]
  00021	89 70 04	 mov	 DWORD PTR [eax+4], esi
  00024	75 eb		 jne	 SHORT $L228154
  00026	5e		 pop	 esi
$L228155:

; 1051 : 	return (_Dest);
; 1052 : 	}

  00027	c3		 ret	 0
??$_Copy_backward_opt@PAU_AdjData@@PAU1@@std@@YAPAU_AdjData@@PAU1@00U_Nonscalar_ptr_iterator_tag@0@@Z ENDP ; std::_Copy_backward_opt<_AdjData *,_AdjData *>
_TEXT	ENDS
PUBLIC	??8const_iterator@?$vector@U_AdjData@@V?$allocator@U_AdjData@@@std@@@std@@QBE_NABV012@@Z ; std::vector<_AdjData,std::allocator<_AdjData> >::const_iterator::operator==
; Function compile flags: /Ogty
; File c:\program files\microsoft visual studio .net 2003\vc7\include\vector
;	COMDAT ??8const_iterator@?$vector@U_AdjData@@V?$allocator@U_AdjData@@@std@@@std@@QBE_NABV012@@Z
_TEXT	SEGMENT
__Right$ = 8						; size = 4
??8const_iterator@?$vector@U_AdjData@@V?$allocator@U_AdjData@@@std@@@std@@QBE_NABV012@@Z PROC NEAR ; std::vector<_AdjData,std::allocator<_AdjData> >::const_iterator::operator==, COMDAT
; _this$ = ecx

; 153  : 
; 154  : 
; 155  : 			return (_Myptr == _Right._Myptr);

  00000	8b 01		 mov	 eax, DWORD PTR [ecx]
  00002	8b 4c 24 04	 mov	 ecx, DWORD PTR __Right$[esp-4]
  00006	2b 01		 sub	 eax, DWORD PTR [ecx]
  00008	f7 d8		 neg	 eax
  0000a	1b c0		 sbb	 eax, eax
  0000c	40		 inc	 eax

; 156  : 			}

  0000d	c2 04 00	 ret	 4
??8const_iterator@?$vector@U_AdjData@@V?$allocator@U_AdjData@@@std@@@std@@QBE_NABV012@@Z ENDP ; std::vector<_AdjData,std::allocator<_AdjData> >::const_iterator::operator==
_TEXT	ENDS
PUBLIC	??$_Ptr_cat@Vconst_iterator@?$vector@U_AdjData@@V?$allocator@U_AdjData@@@std@@@std@@PAU_AdjData@@@std@@YA?AU_Nonscalar_ptr_iterator_tag@0@AAVconst_iterator@?$vector@U_AdjData@@V?$allocator@U_AdjData@@@std@@@0@AAPAU_AdjData@@@Z ; std::_Ptr_cat<std::vector<_AdjData,std::allocator<_AdjData> >::const_iterator,_AdjData *>
; Function compile flags: /Ogty
; File c:\program files\microsoft visual studio .net 2003\vc7\include\xutility
;	COMDAT ??$_Ptr_cat@Vconst_iterator@?$vector@U_AdjData@@V?$allocator@U_AdjData@@@std@@@std@@PAU_AdjData@@@std@@YA?AU_Nonscalar_ptr_iterator_tag@0@AAVconst_iterator@?$vector@U_AdjData@@V?$allocator@U_AdjData@@@std@@@0@AAPAU_AdjData@@@Z
_TEXT	SEGMENT
__Cat$ = -1						; size = 1
___formal$ = 8						; size = 4
___formal$ = 12						; size = 4
??$_Ptr_cat@Vconst_iterator@?$vector@U_AdjData@@V?$allocator@U_AdjData@@@std@@@std@@PAU_AdjData@@@std@@YA?AU_Nonscalar_ptr_iterator_tag@0@AAVconst_iterator@?$vector@U_AdjData@@V?$allocator@U_AdjData@@@std@@@0@AAPAU_AdjData@@@Z PROC NEAR ; std::_Ptr_cat<std::vector<_AdjData,std::allocator<_AdjData> >::const_iterator,_AdjData *>, COMDAT

; 211  : 	{	// return pointer category from arbitrary arguments

  00000	51		 push	 ecx

; 212  : 	_Nonscalar_ptr_iterator_tag _Cat;
; 213  : 	return (_Cat);

  00001	8a 44 24 03	 mov	 al, BYTE PTR __Cat$[esp+4]

; 214  : 	}

  00005	59		 pop	 ecx
  00006	c3		 ret	 0
??$_Ptr_cat@Vconst_iterator@?$vector@U_AdjData@@V?$allocator@U_AdjData@@@std@@@std@@PAU_AdjData@@@std@@YA?AU_Nonscalar_ptr_iterator_tag@0@AAVconst_iterator@?$vector@U_AdjData@@V?$allocator@U_AdjData@@@std@@@0@AAPAU_AdjData@@@Z ENDP ; std::_Ptr_cat<std::vector<_AdjData,std::allocator<_AdjData> >::const_iterator,_AdjData *>
_TEXT	ENDS
PUBLIC	??$_Copy_opt@PAU_AdjData@@PAU1@@std@@YAPAU_AdjData@@PAU1@00U_Nonscalar_ptr_iterator_tag@0@@Z ; std::_Copy_opt<_AdjData *,_AdjData *>
; Function compile flags: /Ogty
;	COMDAT ??$_Copy_opt@PAU_AdjData@@PAU1@@std@@YAPAU_AdjData@@PAU1@00U_Nonscalar_ptr_iterator_tag@0@@Z
_TEXT	SEGMENT
__First$ = 8						; size = 4
__Last$ = 12						; size = 4
__Dest$ = 16						; size = 4
___formal$ = 20						; size = 1
??$_Copy_opt@PAU_AdjData@@PAU1@@std@@YAPAU_AdjData@@PAU1@00U_Nonscalar_ptr_iterator_tag@0@@Z PROC NEAR ; std::_Copy_opt<_AdjData *,_AdjData *>, COMDAT

; 1021 : 	for (; _First != _Last; ++_Dest, ++_First)

  00000	8b 4c 24 04	 mov	 ecx, DWORD PTR __First$[esp-4]
  00004	8b 54 24 08	 mov	 edx, DWORD PTR __Last$[esp-4]
  00008	3b ca		 cmp	 ecx, edx
  0000a	8b 44 24 0c	 mov	 eax, DWORD PTR __Dest$[esp-4]
  0000e	74 16		 je	 SHORT $L228447
  00010	56		 push	 esi
$L228445:

; 1022 : 		*_Dest = *_First;

  00011	8b 31		 mov	 esi, DWORD PTR [ecx]
  00013	89 30		 mov	 DWORD PTR [eax], esi
  00015	8b 71 04	 mov	 esi, DWORD PTR [ecx+4]
  00018	89 70 04	 mov	 DWORD PTR [eax+4], esi
  0001b	83 c1 08	 add	 ecx, 8
  0001e	83 c0 08	 add	 eax, 8
  00021	3b ca		 cmp	 ecx, edx
  00023	75 ec		 jne	 SHORT $L228445
  00025	5e		 pop	 esi
$L228447:

; 1023 : 	return (_Dest);
; 1024 : 	}

  00026	c3		 ret	 0
??$_Copy_opt@PAU_AdjData@@PAU1@@std@@YAPAU_AdjData@@PAU1@00U_Nonscalar_ptr_iterator_tag@0@@Z ENDP ; std::_Copy_opt<_AdjData *,_AdjData *>
_TEXT	ENDS
PUBLIC	??$_Construct@U_AdjData@@U1@@std@@YAXPAU_AdjData@@ABU1@@Z ; std::_Construct<_AdjData,_AdjData>
; Function compile flags: /Ogty
; File c:\program files\microsoft visual studio .net 2003\vc7\include\xmemory
;	COMDAT ??$_Construct@U_AdjData@@U1@@std@@YAXPAU_AdjData@@ABU1@@Z
_TEXT	SEGMENT
__Ptr$ = 8						; size = 4
__Val$ = 12						; size = 4
??$_Construct@U_AdjData@@U1@@std@@YAXPAU_AdjData@@ABU1@@Z PROC NEAR ; std::_Construct<_AdjData,_AdjData>, COMDAT

; 42   : 	new ((void _FARQ *)_Ptr) _T1(_Val);

  00000	8b 44 24 04	 mov	 eax, DWORD PTR __Ptr$[esp-4]
  00004	85 c0		 test	 eax, eax
  00006	74 0e		 je	 SHORT $L229477
  00008	8b 4c 24 08	 mov	 ecx, DWORD PTR __Val$[esp-4]
  0000c	8b 11		 mov	 edx, DWORD PTR [ecx]
  0000e	89 10		 mov	 DWORD PTR [eax], edx
  00010	8b 49 04	 mov	 ecx, DWORD PTR [ecx+4]
  00013	89 48 04	 mov	 DWORD PTR [eax+4], ecx
$L229477:

; 43   : 	}

  00016	c3		 ret	 0
??$_Construct@U_AdjData@@U1@@std@@YAXPAU_AdjData@@ABU1@@Z ENDP ; std::_Construct<_AdjData,_AdjData>
_TEXT	ENDS
PUBLIC	??$_Destroy@U_AdjData@@@std@@YAXPAU_AdjData@@@Z	; std::_Destroy<_AdjData>
; Function compile flags: /Ogty
;	COMDAT ??$_Destroy@U_AdjData@@@std@@YAXPAU_AdjData@@@Z
_TEXT	SEGMENT
__Ptr$ = 8						; size = 4
??$_Destroy@U_AdjData@@@std@@YAXPAU_AdjData@@@Z PROC NEAR ; std::_Destroy<_AdjData>, COMDAT

; 49   : 	_DESTRUCTOR(_Ty, _Ptr);
; 50   : 	}

  00000	c3		 ret	 0
??$_Destroy@U_AdjData@@@std@@YAXPAU_AdjData@@@Z ENDP	; std::_Destroy<_AdjData>
_TEXT	ENDS
PUBLIC	??Econst_iterator@?$vector@U_AdjData@@V?$allocator@U_AdjData@@@std@@@std@@QAEAAV012@XZ ; std::vector<_AdjData,std::allocator<_AdjData> >::const_iterator::operator++
; Function compile flags: /Ogty
; File c:\program files\microsoft visual studio .net 2003\vc7\include\vector
;	COMDAT ??Econst_iterator@?$vector@U_AdjData@@V?$allocator@U_AdjData@@@std@@@std@@QAEAAV012@XZ
_TEXT	SEGMENT
??Econst_iterator@?$vector@U_AdjData@@V?$allocator@U_AdjData@@@std@@@std@@QAEAAV012@XZ PROC NEAR ; std::vector<_AdjData,std::allocator<_AdjData> >::const_iterator::operator++, COMDAT
; _this$ = ecx

; 91   : 			{	// preincrement

  00000	8b c1		 mov	 eax, ecx

; 92   : 			++_Myptr;

  00002	83 00 08	 add	 DWORD PTR [eax], 8

; 93   : 			return (*this);
; 94   : 			}

  00005	c3		 ret	 0
??Econst_iterator@?$vector@U_AdjData@@V?$allocator@U_AdjData@@@std@@@std@@QAEAAV012@XZ ENDP ; std::vector<_AdjData,std::allocator<_AdjData> >::const_iterator::operator++
_TEXT	ENDS
PUBLIC	??$_Advance@Viterator@?$vector@U_AdjData@@V?$allocator@U_AdjData@@@std@@@std@@H@std@@YAXAAViterator@?$vector@U_AdjData@@V?$allocator@U_AdjData@@@std@@@0@HUrandom_access_iterator_tag@0@@Z ; std::_Advance<std::vector<_AdjData,std::allocator<_AdjData> >::iterator,int>
; Function compile flags: /Ogty
; File c:\program files\microsoft visual studio .net 2003\vc7\include\iterator
;	COMDAT ??$_Advance@Viterator@?$vector@U_AdjData@@V?$allocator@U_AdjData@@@std@@@std@@H@std@@YAXAAViterator@?$vector@U_AdjData@@V?$allocator@U_AdjData@@@std@@@0@HUrandom_access_iterator_tag@0@@Z
_TEXT	SEGMENT
__Where$ = 8						; size = 4
__Off$ = 12						; size = 4
___formal$ = 16						; size = 1
??$_Advance@Viterator@?$vector@U_AdjData@@V?$allocator@U_AdjData@@@std@@@std@@H@std@@YAXAAViterator@?$vector@U_AdjData@@V?$allocator@U_AdjData@@@std@@@0@HUrandom_access_iterator_tag@0@@Z PROC NEAR ; std::_Advance<std::vector<_AdjData,std::allocator<_AdjData> >::iterator,int>, COMDAT

; 324  : 	_Where += _Off;

  00000	8b 44 24 08	 mov	 eax, DWORD PTR __Off$[esp-4]
  00004	8d 0c c5 00 00
	00 00		 lea	 ecx, DWORD PTR [eax*8]
  0000b	8b 44 24 04	 mov	 eax, DWORD PTR __Where$[esp-4]
  0000f	01 08		 add	 DWORD PTR [eax], ecx

; 325  : 	}

  00011	c3		 ret	 0
??$_Advance@Viterator@?$vector@U_AdjData@@V?$allocator@U_AdjData@@@std@@@std@@H@std@@YAXAAViterator@?$vector@U_AdjData@@V?$allocator@U_AdjData@@@std@@@0@HUrandom_access_iterator_tag@0@@Z ENDP ; std::_Advance<std::vector<_AdjData,std::allocator<_AdjData> >::iterator,int>
_TEXT	ENDS
PUBLIC	??$_Ptr_cat@Viterator@?$vector@U_AdjData@@V?$allocator@U_AdjData@@@std@@@std@@PAU_AdjData@@@std@@YA?AU_Nonscalar_ptr_iterator_tag@0@AAViterator@?$vector@U_AdjData@@V?$allocator@U_AdjData@@@std@@@0@AAPAU_AdjData@@@Z ; std::_Ptr_cat<std::vector<_AdjData,std::allocator<_AdjData> >::iterator,_AdjData *>
; Function compile flags: /Ogty
; File c:\program files\microsoft visual studio .net 2003\vc7\include\xutility
;	COMDAT ??$_Ptr_cat@Viterator@?$vector@U_AdjData@@V?$allocator@U_AdjData@@@std@@@std@@PAU_AdjData@@@std@@YA?AU_Nonscalar_ptr_iterator_tag@0@AAViterator@?$vector@U_AdjData@@V?$allocator@U_AdjData@@@std@@@0@AAPAU_AdjData@@@Z
_TEXT	SEGMENT
__Cat$ = -1						; size = 1
___formal$ = 8						; size = 4
___formal$ = 12						; size = 4
??$_Ptr_cat@Viterator@?$vector@U_AdjData@@V?$allocator@U_AdjData@@@std@@@std@@PAU_AdjData@@@std@@YA?AU_Nonscalar_ptr_iterator_tag@0@AAViterator@?$vector@U_AdjData@@V?$allocator@U_AdjData@@@std@@@0@AAPAU_AdjData@@@Z PROC NEAR ; std::_Ptr_cat<std::vector<_AdjData,std::allocator<_AdjData> >::iterator,_AdjData *>, COMDAT

; 211  : 	{	// return pointer category from arbitrary arguments

  00000	51		 push	 ecx

; 212  : 	_Nonscalar_ptr_iterator_tag _Cat;
; 213  : 	return (_Cat);

  00001	8a 44 24 03	 mov	 al, BYTE PTR __Cat$[esp+4]

; 214  : 	}

  00005	59		 pop	 ecx
  00006	c3		 ret	 0
??$_Ptr_cat@Viterator@?$vector@U_AdjData@@V?$allocator@U_AdjData@@@std@@@std@@PAU_AdjData@@@std@@YA?AU_Nonscalar_ptr_iterator_tag@0@AAViterator@?$vector@U_AdjData@@V?$allocator@U_AdjData@@@std@@@0@AAPAU_AdjData@@@Z ENDP ; std::_Ptr_cat<std::vector<_AdjData,std::allocator<_AdjData> >::iterator,_AdjData *>
_TEXT	ENDS
PUBLIC	??Eiterator@?$vector@U_AdjData@@V?$allocator@U_AdjData@@@std@@@std@@QAEAAV012@XZ ; std::vector<_AdjData,std::allocator<_AdjData> >::iterator::operator++
; Function compile flags: /Ogty
; File c:\program files\microsoft visual studio .net 2003\vc7\include\vector
;	COMDAT ??Eiterator@?$vector@U_AdjData@@V?$allocator@U_AdjData@@@std@@@std@@QAEAAV012@XZ
_TEXT	SEGMENT
??Eiterator@?$vector@U_AdjData@@V?$allocator@U_AdjData@@@std@@@std@@QAEAAV012@XZ PROC NEAR ; std::vector<_AdjData,std::allocator<_AdjData> >::iterator::operator++, COMDAT
; _this$ = ecx

; 229  : 			{	// preincrement

  00000	8b c1		 mov	 eax, ecx

; 230  : 			++this->_Myptr;

  00002	83 00 08	 add	 DWORD PTR [eax], 8

; 231  : 			return (*this);
; 232  : 			}

  00005	c3		 ret	 0
??Eiterator@?$vector@U_AdjData@@V?$allocator@U_AdjData@@@std@@@std@@QAEAAV012@XZ ENDP ; std::vector<_AdjData,std::allocator<_AdjData> >::iterator::operator++
_TEXT	ENDS
PUBLIC	?assign@?$char_traits@D@std@@SAXAADABD@Z	; std::char_traits<char>::assign
; Function compile flags: /Ogty
; File c:\program files\microsoft visual studio .net 2003\vc7\include\iosfwd
;	COMDAT ?assign@?$char_traits@D@std@@SAXAADABD@Z
_TEXT	SEGMENT
__Left$ = 8						; size = 4
__Right$ = 12						; size = 4
?assign@?$char_traits@D@std@@SAXAADABD@Z PROC NEAR	; std::char_traits<char>::assign, COMDAT

; 331  : 		_Left = _Right;

  00000	8b 44 24 08	 mov	 eax, DWORD PTR __Right$[esp-4]
  00004	8a 08		 mov	 cl, BYTE PTR [eax]
  00006	8b 54 24 04	 mov	 edx, DWORD PTR __Left$[esp-4]
  0000a	88 0a		 mov	 BYTE PTR [edx], cl

; 332  : 		}

  0000c	c3		 ret	 0
?assign@?$char_traits@D@std@@SAXAADABD@Z ENDP		; std::char_traits<char>::assign
_TEXT	ENDS
PUBLIC	?length@?$char_traits@D@std@@SAIPBD@Z		; std::char_traits<char>::length
; Function compile flags: /Ogty
;	COMDAT ?length@?$char_traits@D@std@@SAIPBD@Z
_TEXT	SEGMENT
__First$ = 8						; size = 4
?length@?$char_traits@D@std@@SAIPBD@Z PROC NEAR		; std::char_traits<char>::length, COMDAT

; 352  : 		return (::strlen(_First));

  00000	8b 44 24 04	 mov	 eax, DWORD PTR __First$[esp-4]
  00004	8d 50 01	 lea	 edx, DWORD PTR [eax+1]
$L229506:
  00007	8a 08		 mov	 cl, BYTE PTR [eax]
  00009	40		 inc	 eax
  0000a	84 c9		 test	 cl, cl
  0000c	75 f9		 jne	 SHORT $L229506
  0000e	2b c2		 sub	 eax, edx

; 353  : 		}

  00010	c3		 ret	 0
?length@?$char_traits@D@std@@SAIPBD@Z ENDP		; std::char_traits<char>::length
_TEXT	ENDS
PUBLIC	?copy@?$char_traits@D@std@@SAPADPADPBDI@Z	; std::char_traits<char>::copy
; Function compile flags: /Ogty
;	COMDAT ?copy@?$char_traits@D@std@@SAPADPADPBDI@Z
_TEXT	SEGMENT
__First1$ = 8						; size = 4
__First2$ = 12						; size = 4
__Count$ = 16						; size = 4
?copy@?$char_traits@D@std@@SAPADPADPBDI@Z PROC NEAR	; std::char_traits<char>::copy, COMDAT

; 358  : 		return ((_Elem *)::memcpy(_First1, _First2, _Count));

  00000	8b 4c 24 0c	 mov	 ecx, DWORD PTR __Count$[esp-4]
  00004	56		 push	 esi
  00005	8b 74 24 0c	 mov	 esi, DWORD PTR __First2$[esp]
  00009	57		 push	 edi
  0000a	8b 7c 24 0c	 mov	 edi, DWORD PTR __First1$[esp+4]
  0000e	8b c1		 mov	 eax, ecx
  00010	8b d7		 mov	 edx, edi
  00012	c1 e9 02	 shr	 ecx, 2
  00015	f3 a5		 rep movsd
  00017	8b c8		 mov	 ecx, eax
  00019	83 e1 03	 and	 ecx, 3
  0001c	f3 a4		 rep movsb
  0001e	5f		 pop	 edi
  0001f	8b c2		 mov	 eax, edx
  00021	5e		 pop	 esi

; 359  : 		}

  00022	c3		 ret	 0
?copy@?$char_traits@D@std@@SAPADPADPBDI@Z ENDP		; std::char_traits<char>::copy
_TEXT	ENDS
PUBLIC	?move@?$char_traits@D@std@@SAPADPADPBDI@Z	; std::char_traits<char>::move
EXTRN	_memmove:NEAR
; Function compile flags: /Ogty
;	COMDAT ?move@?$char_traits@D@std@@SAPADPADPBDI@Z
_TEXT	SEGMENT
__First1$ = 8						; size = 4
__First2$ = 12						; size = 4
__Count$ = 16						; size = 4
?move@?$char_traits@D@std@@SAPADPADPBDI@Z PROC NEAR	; std::char_traits<char>::move, COMDAT

; 370  : 		return ((_Elem *)::memmove(_First1, _First2, _Count));

  00000	e9 00 00 00 00	 jmp	 _memmove
?move@?$char_traits@D@std@@SAPADPADPBDI@Z ENDP		; std::char_traits<char>::move
_TEXT	ENDS
PUBLIC	?xRand@@YAKXZ					; xRand
EXTRN	?g_next@@3KA:DWORD				; g_next
; Function compile flags: /Ogty
; File c:\documents and settings\test\mes documents\source\virtuos_v17\build\program\_common\xutil.h
;	COMDAT ?xRand@@YAKXZ
_TEXT	SEGMENT
?xRand@@YAKXZ PROC NEAR					; xRand, COMDAT

; 16   : 	g_next = g_next * 1103515245 + 12345;// + nRandomSeed[ i++ ];

  00000	a1 00 00 00 00	 mov	 eax, DWORD PTR ?g_next@@3KA ; g_next
  00005	69 c0 6d 4e c6
	41		 imul	 eax, 1103515245		; 41c64e6dH
  0000b	05 39 30 00 00	 add	 eax, 12345		; 00003039H
  00010	a3 00 00 00 00	 mov	 DWORD PTR ?g_next@@3KA, eax ; g_next

; 17   : 	return g_next;	//   .
; 18   : }

  00015	c3		 ret	 0
?xRand@@YAKXZ ENDP					; xRand
_TEXT	ENDS
PUBLIC	?xRandom@@YAKK@Z				; xRandom
; Function compile flags: /Ogty
;	COMDAT ?xRandom@@YAKK@Z
_TEXT	SEGMENT
_num$ = 8						; size = 4
?xRandom@@YAKK@Z PROC NEAR				; xRandom, COMDAT

; 22   : 	return  xRand() % num;

  00000	a1 00 00 00 00	 mov	 eax, DWORD PTR ?g_next@@3KA ; g_next
  00005	69 c0 6d 4e c6
	41		 imul	 eax, 1103515245		; 41c64e6dH
  0000b	05 39 30 00 00	 add	 eax, 12345		; 00003039H
  00010	a3 00 00 00 00	 mov	 DWORD PTR ?g_next@@3KA, eax ; g_next
  00015	33 d2		 xor	 edx, edx
  00017	f7 74 24 04	 div	 DWORD PTR _num$[esp-4]
  0001b	8b c2		 mov	 eax, edx

; 23   : }

  0001d	c3		 ret	 0
?xRandom@@YAKK@Z ENDP					; xRandom
_TEXT	ENDS
PUBLIC	?LOG_RANGE@@YAXPBDHHH@Z				; LOG_RANGE
PUBLIC	??_C@_0BM@HMFGHCP@?$CFs?5min?3?$CFd?0?5max?3?$CFd?0?5index?3?$CFd?$AA@ ; `string'
EXTRN	?Error@@YAPBDPBDZZ:NEAR				; Error
;	COMDAT ??_C@_0BM@HMFGHCP@?$CFs?5min?3?$CFd?0?5max?3?$CFd?0?5index?3?$CFd?$AA@
; File c:\documents and settings\test\mes documents\source\virtuos_v17\build\program\_common\project.h
CONST	SEGMENT
??_C@_0BM@HMFGHCP@?$CFs?5min?3?$CFd?0?5max?3?$CFd?0?5index?3?$CFd?$AA@ DB '%'
	DB	's min:%d, max:%d, index:%d', 00H		; `string'
; Function compile flags: /Ogty
CONST	ENDS
;	COMDAT ?LOG_RANGE@@YAXPBDHHH@Z
_TEXT	SEGMENT
_szMsg$ = 8						; size = 4
_nMin$ = 12						; size = 4
_nMax$ = 16						; size = 4
_nIndex$ = 20						; size = 4
?LOG_RANGE@@YAXPBDHHH@Z PROC NEAR			; LOG_RANGE, COMDAT

; 559  : 	LPCTSTR szErr = Error( _T( "%s min:%d, max:%d, index:%d" ), szMsg, nMin, nMax, nIndex ); 

  00000	8b 44 24 10	 mov	 eax, DWORD PTR _nIndex$[esp-4]
  00004	8b 4c 24 0c	 mov	 ecx, DWORD PTR _nMax$[esp-4]
  00008	8b 54 24 08	 mov	 edx, DWORD PTR _nMin$[esp-4]
  0000c	50		 push	 eax
  0000d	8b 44 24 08	 mov	 eax, DWORD PTR _szMsg$[esp]
  00011	51		 push	 ecx
  00012	52		 push	 edx
  00013	50		 push	 eax
  00014	68 00 00 00 00	 push	 OFFSET FLAT:??_C@_0BM@HMFGHCP@?$CFs?5min?3?$CFd?0?5max?3?$CFd?0?5index?3?$CFd?$AA@
  00019	e8 00 00 00 00	 call	 ?Error@@YAPBDPBDZZ	; Error
  0001e	83 c4 14	 add	 esp, 20			; 00000014H

; 560  : 	ADDERRORMSG( szErr ); 
; 561  : }

  00021	c3		 ret	 0
?LOG_RANGE@@YAXPBDHHH@Z ENDP				; LOG_RANGE
_TEXT	ENDS
PUBLIC	?LOG_CALLSTACK@@YAXXZ				; LOG_CALLSTACK
; Function compile flags: /Ogty
;	COMDAT ?LOG_CALLSTACK@@YAXXZ
_TEXT	SEGMENT
?LOG_CALLSTACK@@YAXXZ PROC NEAR				; LOG_CALLSTACK, COMDAT

; 565  : #ifdef _DEBUG
; 566  : 	__asm int 3
; 567  : #endif
; 568  : 
; 569  : #if defined(__INTERNALSERVER)
; 570  : 	int *p = NULL;		//    
; 571  : 	*p = 1;
; 572  : #endif
; 573  : }

  00000	c3		 ret	 0
?LOG_CALLSTACK@@YAXXZ ENDP				; LOG_CALLSTACK
_TEXT	ENDS
PUBLIC	?GetLevel@CPet@@QAEEXZ				; CPet::GetLevel
; Function compile flags: /Ogty
; File c:\documents and settings\test\mes documents\source\virtuos_v17\build\program\_common\pet.h
;	COMDAT ?GetLevel@CPet@@QAEEXZ
_TEXT	SEGMENT
?GetLevel@CPet@@QAEEXZ PROC NEAR			; CPet::GetLevel, COMDAT
; _this$ = ecx

; 134  : 	BYTE	GetLevel( void )	{	return m_nLevel;	}

  00000	8a 41 05	 mov	 al, BYTE PTR [ecx+5]
  00003	c3		 ret	 0
?GetLevel@CPet@@QAEEXZ ENDP				; CPet::GetLevel
_TEXT	ENDS
PUBLIC	?GetRandomOptItemId@CItemElem@@QAE_JXZ		; CItemElem::GetRandomOptItemId
; Function compile flags: /Ogty
; File c:\documents and settings\test\mes documents\source\virtuos_v17\build\program\_common\item.h
;	COMDAT ?GetRandomOptItemId@CItemElem@@QAE_JXZ
_TEXT	SEGMENT
?GetRandomOptItemId@CItemElem@@QAE_JXZ PROC NEAR	; CItemElem::GetRandomOptItemId, COMDAT
; _this$ = ecx

; 167  : 	__int64		GetRandomOptItemId( void )	{	return m_iRandomOptItemId;	}

  00000	8b 81 98 00 00
	00		 mov	 eax, DWORD PTR [ecx+152]
  00006	8b 91 9c 00 00
	00		 mov	 edx, DWORD PTR [ecx+156]
  0000c	c3		 ret	 0
?GetRandomOptItemId@CItemElem@@QAE_JXZ ENDP		; CItemElem::GetRandomOptItemId
_TEXT	ENDS
PUBLIC	?GetRandomOptItemIdPtr@CItemElem@@QAEPA_JXZ	; CItemElem::GetRandomOptItemIdPtr
; Function compile flags: /Ogty
;	COMDAT ?GetRandomOptItemIdPtr@CItemElem@@QAEPA_JXZ
_TEXT	SEGMENT
?GetRandomOptItemIdPtr@CItemElem@@QAEPA_JXZ PROC NEAR	; CItemElem::GetRandomOptItemIdPtr, COMDAT
; _this$ = ecx

; 171  : 	__int64*	GetRandomOptItemIdPtr( void )	{	return &m_iRandomOptItemId;	}

  00000	8d 81 98 00 00
	00		 lea	 eax, DWORD PTR [ecx+152]
  00006	c3		 ret	 0
?GetRandomOptItemIdPtr@CItemElem@@QAEPA_JXZ ENDP	; CItemElem::GetRandomOptItemIdPtr
_TEXT	ENDS
PUBLIC	?size@?$basic_string@DU?$char_traits@D@std@@V?$allocator@D@2@@std@@QBEIXZ ; std::basic_string<char,std::char_traits<char>,std::allocator<char> >::size
; Function compile flags: /Ogty
; File c:\program files\microsoft visual studio .net 2003\vc7\include\xstring
;	COMDAT ?size@?$basic_string@DU?$char_traits@D@std@@V?$allocator@D@2@@std@@QBEIXZ
_TEXT	SEGMENT
?size@?$basic_string@DU?$char_traits@D@std@@V?$allocator@D@2@@std@@QBEIXZ PROC NEAR ; std::basic_string<char,std::char_traits<char>,std::allocator<char> >::size, COMDAT
; _this$ = ecx

; 1109 : 		return (_Mysize);

  00000	8b 41 14	 mov	 eax, DWORD PTR [ecx+20]

; 1110 : 		}

  00003	c3		 ret	 0
?size@?$basic_string@DU?$char_traits@D@std@@V?$allocator@D@2@@std@@QBEIXZ ENDP ; std::basic_string<char,std::char_traits<char>,std::allocator<char> >::size
_TEXT	ENDS
PUBLIC	?GetSize@?$CFixedArray@UItemProp@@@@QAEHXZ	; CFixedArray<ItemProp>::GetSize
; Function compile flags: /Ogty
; File c:\documents and settings\test\mes documents\source\virtuos_v17\build\program\_common\data.h
;	COMDAT ?GetSize@?$CFixedArray@UItemProp@@@@QAEHXZ
_TEXT	SEGMENT
?GetSize@?$CFixedArray@UItemProp@@@@QAEHXZ PROC NEAR	; CFixedArray<ItemProp>::GetSize, COMDAT
; _this$ = ecx

; 221  : 	int  GetSize() { return m_nMaxIndex; }

  00000	8b 41 18	 mov	 eax, DWORD PTR [ecx+24]
  00003	c3		 ret	 0
?GetSize@?$CFixedArray@UItemProp@@@@QAEHXZ ENDP		; CFixedArray<ItemProp>::GetSize
_TEXT	ENDS
PUBLIC	?GetString@?$CSimpleStringT@D$0A@@ATL@@QBEPBDXZ	; ATL::CSimpleStringT<char,0>::GetString
; Function compile flags: /Ogty
; File c:\program files\microsoft visual studio .net 2003\vc7\atlmfc\include\atlsimpstr.h
;	COMDAT ?GetString@?$CSimpleStringT@D$0A@@ATL@@QBEPBDXZ
_TEXT	SEGMENT
?GetString@?$CSimpleStringT@D$0A@@ATL@@QBEPBDXZ PROC NEAR ; ATL::CSimpleStringT<char,0>::GetString, COMDAT
; _this$ = ecx

; 510  : 		return( m_pszData );

  00000	8b 01		 mov	 eax, DWORD PTR [ecx]

; 511  : 	}

  00002	c3		 ret	 0
?GetString@?$CSimpleStringT@D$0A@@ATL@@QBEPBDXZ ENDP	; ATL::CSimpleStringT<char,0>::GetString
_TEXT	ENDS
PUBLIC	?_Myptr@?$basic_string@DU?$char_traits@D@std@@V?$allocator@D@2@@std@@QBEPBDXZ ; std::basic_string<char,std::char_traits<char>,std::allocator<char> >::_Myptr
; Function compile flags: /Ogty
; File c:\program files\microsoft visual studio .net 2003\vc7\include\xstring
;	COMDAT ?_Myptr@?$basic_string@DU?$char_traits@D@std@@V?$allocator@D@2@@std@@QBEPBDXZ
_TEXT	SEGMENT
?_Myptr@?$basic_string@DU?$char_traits@D@std@@V?$allocator@D@2@@std@@QBEPBDXZ PROC NEAR ; std::basic_string<char,std::char_traits<char>,std::allocator<char> >::_Myptr, COMDAT
; _this$ = ecx

; 1537 : 		return (_BUF_SIZE <= _Myres ? _Bx._Ptr : _Bx._Buf);

  00000	83 79 18 10	 cmp	 DWORD PTR [ecx+24], 16	; 00000010H
  00004	72 04		 jb	 SHORT $L229550
  00006	8b 41 04	 mov	 eax, DWORD PTR [ecx+4]

; 1538 : 		}

  00009	c3		 ret	 0
$L229550:

; 1537 : 		return (_BUF_SIZE <= _Myres ? _Bx._Ptr : _Bx._Buf);

  0000a	8d 41 04	 lea	 eax, DWORD PTR [ecx+4]

; 1538 : 		}

  0000d	c3		 ret	 0
?_Myptr@?$basic_string@DU?$char_traits@D@std@@V?$allocator@D@2@@std@@QBEPBDXZ ENDP ; std::basic_string<char,std::char_traits<char>,std::allocator<char> >::_Myptr
_TEXT	ENDS
PUBLIC	??0?$allocator@D@std@@QAE@XZ			; std::allocator<char>::allocator<char>
; Function compile flags: /Ogty
; File c:\program files\microsoft visual studio .net 2003\vc7\include\xmemory
;	COMDAT ??0?$allocator@D@std@@QAE@XZ
_TEXT	SEGMENT
??0?$allocator@D@std@@QAE@XZ PROC NEAR			; std::allocator<char>::allocator<char>, COMDAT
; _this$ = ecx

; 111  : 	allocator()

  00000	8b c1		 mov	 eax, ecx

; 112  : 		{	// construct default allocator (do nothing)
; 113  : 		}

  00002	c3		 ret	 0
??0?$allocator@D@std@@QAE@XZ ENDP			; std::allocator<char>::allocator<char>
_TEXT	ENDS
PUBLIC	??0?$allocator@D@std@@QAE@ABV01@@Z		; std::allocator<char>::allocator<char>
; Function compile flags: /Ogty
;	COMDAT ??0?$allocator@D@std@@QAE@ABV01@@Z
_TEXT	SEGMENT
___formal$ = 8						; size = 4
??0?$allocator@D@std@@QAE@ABV01@@Z PROC NEAR		; std::allocator<char>::allocator<char>, COMDAT
; _this$ = ecx

; 115  : 	allocator(const allocator<_Ty>&)

  00000	8b c1		 mov	 eax, ecx

; 116  : 		{	// construct by copying (do nothing)
; 117  : 		}

  00002	c2 04 00	 ret	 4
??0?$allocator@D@std@@QAE@ABV01@@Z ENDP			; std::allocator<char>::allocator<char>
_TEXT	ENDS
PUBLIC	?_Myptr@?$basic_string@DU?$char_traits@D@std@@V?$allocator@D@2@@std@@QAEPADXZ ; std::basic_string<char,std::char_traits<char>,std::allocator<char> >::_Myptr
; Function compile flags: /Ogty
; File c:\program files\microsoft visual studio .net 2003\vc7\include\xstring
;	COMDAT ?_Myptr@?$basic_string@DU?$char_traits@D@std@@V?$allocator@D@2@@std@@QAEPADXZ
_TEXT	SEGMENT
?_Myptr@?$basic_string@DU?$char_traits@D@std@@V?$allocator@D@2@@std@@QAEPADXZ PROC NEAR ; std::basic_string<char,std::char_traits<char>,std::allocator<char> >::_Myptr, COMDAT
; _this$ = ecx

; 1532 : 		return (_BUF_SIZE <= _Myres ? _Bx._Ptr : _Bx._Buf);

  00000	83 79 18 10	 cmp	 DWORD PTR [ecx+24], 16	; 00000010H
  00004	72 04		 jb	 SHORT $L229561
  00006	8b 41 04	 mov	 eax, DWORD PTR [ecx+4]

; 1533 : 		}

  00009	c3		 ret	 0
$L229561:

; 1532 : 		return (_BUF_SIZE <= _Myres ? _Bx._Ptr : _Bx._Buf);

  0000a	8d 41 04	 lea	 eax, DWORD PTR [ecx+4]

; 1533 : 		}

  0000d	c3		 ret	 0
?_Myptr@?$basic_string@DU?$char_traits@D@std@@V?$allocator@D@2@@std@@QAEPADXZ ENDP ; std::basic_string<char,std::char_traits<char>,std::allocator<char> >::_Myptr
_TEXT	ENDS
PUBLIC	?deallocate@?$allocator@D@std@@QAEXPADI@Z	; std::allocator<char>::deallocate
; Function compile flags: /Ogty
; File c:\program files\microsoft visual studio .net 2003\vc7\include\xmemory
;	COMDAT ?deallocate@?$allocator@D@std@@QAEXPADI@Z
_TEXT	SEGMENT
__Ptr$ = 8						; size = 4
___formal$ = 12						; size = 4
?deallocate@?$allocator@D@std@@QAEXPADI@Z PROC NEAR	; std::allocator<char>::deallocate, COMDAT
; _this$ = ecx

; 132  : 		operator delete(_Ptr);

  00000	8b 44 24 04	 mov	 eax, DWORD PTR __Ptr$[esp-4]
  00004	50		 push	 eax
  00005	e8 00 00 00 00	 call	 ??3@YAXPAX@Z		; operator delete
  0000a	59		 pop	 ecx

; 133  : 		}

  0000b	c2 08 00	 ret	 8
?deallocate@?$allocator@D@std@@QAEXPADI@Z ENDP		; std::allocator<char>::deallocate
_TEXT	ENDS
PUBLIC	?_Inside@?$basic_string@DU?$char_traits@D@std@@V?$allocator@D@2@@std@@IAE_NPBD@Z ; std::basic_string<char,std::char_traits<char>,std::allocator<char> >::_Inside
; Function compile flags: /Ogty
; File c:\program files\microsoft visual studio .net 2003\vc7\include\xstring
;	COMDAT ?_Inside@?$basic_string@DU?$char_traits@D@std@@V?$allocator@D@2@@std@@IAE_NPBD@Z
_TEXT	SEGMENT
__Ptr$ = 8						; size = 4
?_Inside@?$basic_string@DU?$char_traits@D@std@@V?$allocator@D@2@@std@@IAE_NPBD@Z PROC NEAR ; std::basic_string<char,std::char_traits<char>,std::allocator<char> >::_Inside, COMDAT
; _this$ = ecx

; 1494 : 		{	// test if _Ptr points inside string

  00000	56		 push	 esi

; 1495 : 		if (_Ptr < _Myptr() || _Myptr() + _Mysize <= _Ptr)

  00001	8b 71 18	 mov	 esi, DWORD PTR [ecx+24]
  00004	83 fe 10	 cmp	 esi, 16			; 00000010H
  00007	57		 push	 edi
  00008	8d 41 04	 lea	 eax, DWORD PTR [ecx+4]
  0000b	72 04		 jb	 SHORT $L229573
  0000d	8b 10		 mov	 edx, DWORD PTR [eax]
  0000f	eb 02		 jmp	 SHORT $L229574
$L229573:
  00011	8b d0		 mov	 edx, eax
$L229574:
  00013	8b 7c 24 0c	 mov	 edi, DWORD PTR __Ptr$[esp+4]
  00017	3b fa		 cmp	 edi, edx
  00019	72 17		 jb	 SHORT $L222788
  0001b	83 fe 10	 cmp	 esi, 16			; 00000010H
  0001e	72 02		 jb	 SHORT $L229581
  00020	8b 00		 mov	 eax, DWORD PTR [eax]
$L229581:
  00022	8b 49 14	 mov	 ecx, DWORD PTR [ecx+20]
  00025	03 c8		 add	 ecx, eax
  00027	3b cf		 cmp	 ecx, edi
  00029	76 07		 jbe	 SHORT $L222788
  0002b	5f		 pop	 edi

; 1497 : 		else
; 1498 : 			return (true);

  0002c	b0 01		 mov	 al, 1
  0002e	5e		 pop	 esi

; 1499 : 		}

  0002f	c2 04 00	 ret	 4
$L222788:
  00032	5f		 pop	 edi

; 1496 : 			return (false);	// don't ask

  00033	32 c0		 xor	 al, al
  00035	5e		 pop	 esi

; 1499 : 		}

  00036	c2 04 00	 ret	 4
?_Inside@?$basic_string@DU?$char_traits@D@std@@V?$allocator@D@2@@std@@IAE_NPBD@Z ENDP ; std::basic_string<char,std::char_traits<char>,std::allocator<char> >::_Inside
_TEXT	ENDS
PUBLIC	?max_size@?$allocator@D@std@@QBEIXZ		; std::allocator<char>::max_size
; Function compile flags: /Ogty
; File c:\program files\microsoft visual studio .net 2003\vc7\include\xmemory
;	COMDAT ?max_size@?$allocator@D@std@@QBEIXZ
_TEXT	SEGMENT
?max_size@?$allocator@D@std@@QBEIXZ PROC NEAR		; std::allocator<char>::max_size, COMDAT
; _this$ = ecx

; 157  : 		_SIZT _Count = (_SIZT)(-1) / sizeof (_Ty);
; 158  : 		return (0 < _Count ? _Count : 1);

  00000	83 c8 ff	 or	 eax, -1

; 159  : 		}

  00003	c3		 ret	 0
?max_size@?$allocator@D@std@@QBEIXZ ENDP		; std::allocator<char>::max_size
_TEXT	ENDS
PUBLIC	?GetAt@?$CFixedArray@UItemProp@@@@QAEPAUItemProp@@K@Z ; CFixedArray<ItemProp>::GetAt
; Function compile flags: /Ogty
; File c:\documents and settings\test\mes documents\source\virtuos_v17\build\program\_common\data.h
;	COMDAT ?GetAt@?$CFixedArray@UItemProp@@@@QAEPAUItemProp@@K@Z
_TEXT	SEGMENT
_dwIndex$ = 8						; size = 4
?GetAt@?$CFixedArray@UItemProp@@@@QAEPAUItemProp@@K@Z PROC NEAR ; CFixedArray<ItemProp>::GetAt, COMDAT
; _this$ = ecx

; 270  : 	if( dwIndex >= (DWORD)m_nMaxIndex )

  00000	8b 44 24 04	 mov	 eax, DWORD PTR _dwIndex$[esp-4]
  00004	3b 41 18	 cmp	 eax, DWORD PTR [ecx+24]
  00007	72 05		 jb	 SHORT $L224299

; 271  : 		return NULL;

  00009	33 c0		 xor	 eax, eax

; 273  : }

  0000b	c2 04 00	 ret	 4
$L224299:

; 272  : 	return (T*) m_apOffset[ dwIndex ];

  0000e	8b 49 08	 mov	 ecx, DWORD PTR [ecx+8]
  00011	8b 04 81	 mov	 eax, DWORD PTR [ecx+eax*4]

; 273  : }

  00014	c2 04 00	 ret	 4
?GetAt@?$CFixedArray@UItemProp@@@@QAEPAUItemProp@@K@Z ENDP ; CFixedArray<ItemProp>::GetAt
_TEXT	ENDS
PUBLIC	??$_Allocate@D@std@@YAPADIPAD@Z			; std::_Allocate<char>
; Function compile flags: /Ogty
; File c:\program files\microsoft visual studio .net 2003\vc7\include\xmemory
;	COMDAT ??$_Allocate@D@std@@YAPADIPAD@Z
_TEXT	SEGMENT
__Count$ = 8						; size = 4
___formal$ = 12						; size = 4
??$_Allocate@D@std@@YAPADIPAD@Z PROC NEAR		; std::_Allocate<char>, COMDAT

; 34   : 	return ((_Ty _FARQ *)operator new(_Count * sizeof (_Ty)));

  00000	8b 44 24 04	 mov	 eax, DWORD PTR __Count$[esp-4]
  00004	50		 push	 eax
  00005	e8 00 00 00 00	 call	 ??2@YAPAXI@Z		; operator new
  0000a	83 c4 04	 add	 esp, 4

; 35   : 	}

  0000d	c3		 ret	 0
??$_Allocate@D@std@@YAPADIPAD@Z ENDP			; std::_Allocate<char>
_TEXT	ENDS
PUBLIC	?GetRandomOptionSize@CRandomOptionProperty@@QAEH_J@Z ; CRandomOptionProperty::GetRandomOptionSize
; Function compile flags: /Ogty
; File c:\documents and settings\test\mes documents\source\virtuos_v17\build\program\_common\randomoption.cpp
;	COMDAT ?GetRandomOptionSize@CRandomOptionProperty@@QAEH_J@Z
_TEXT	SEGMENT
_nRandomOptItemId$ = 8					; size = 8
?GetRandomOptionSize@CRandomOptionProperty@@QAEH_J@Z PROC NEAR ; CRandomOptionProperty::GetRandomOptionSize, COMDAT
; _this$ = ecx

; 174  : {

  00000	55		 push	 ebp

; 175  : 	int nSize	= 0;
; 176  : 
; 177  : 	//	mulcom	BEGIN100405	  
; 178  : 	bool	bCheckedSafeFlag = false;
; 179  : 	bCheckedSafeFlag	= IsCheckedSafeFlag( nRandomOptItemId );

  00001	8b 6c 24 0c	 mov	 ebp, DWORD PTR _nRandomOptItemId$[esp+4]
  00005	8b cd		 mov	 ecx, ebp
  00007	33 c0		 xor	 eax, eax
  00009	81 e1 00 00 00
	20		 and	 ecx, 536870912		; 20000000H
  0000f	33 d2		 xor	 edx, edx
  00011	75 0c		 jne	 SHORT $L226474
  00013	81 f9 00 00 00
	20		 cmp	 ecx, 536870912		; 20000000H

; 180  : 
; 181  : 	if( bCheckedSafeFlag == true )

  00019	75 04		 jne	 SHORT $L226474
  0001b	5d		 pop	 ebp

; 196  : 	}
; 197  : 
; 198  : 	return nSize;
; 199  : }

  0001c	c2 08 00	 ret	 8
$L226474:
  0001f	53		 push	 ebx
  00020	56		 push	 esi
  00021	57		 push	 edi

; 182  : 	{
; 183  : 		return	nSize;
; 184  : 	}
; 185  : 	//	mulcom	END100405	  
; 186  : 
; 187  : 	__int64 i	= 0x3FFFF << 8;

  00022	33 ff		 xor	 edi, edi
  00024	be 00 ff ff 03	 mov	 esi, 67108608		; 03ffff00H

; 188  : 	for( int j = 0; j < MAX_RANDOM_OPTION; j++ )

  00029	33 db		 xor	 ebx, ebx
  0002b	eb 03 8d 49 00	 npad	 5
$L226477:

; 189  : 	{
; 190  : 		if( nRandomOptItemId & i )

  00030	8b 54 24 14	 mov	 edx, DWORD PTR _nRandomOptItemId$[esp+12]
  00034	8b ce		 mov	 ecx, esi
  00036	23 ca		 and	 ecx, edx
  00038	8b d7		 mov	 edx, edi
  0003a	23 d5		 and	 edx, ebp
  0003c	0b ca		 or	 ecx, edx
  0003e	74 0e		 je	 SHORT $L229604

; 191  : 			nSize++;
; 192  : 		else
; 193  : 			return nSize;
; 194  : 
; 195  : 		i	= i << 18;

  00040	0f a4 f7 12	 shld	 edi, esi, 18
  00044	40		 inc	 eax
  00045	c1 e6 12	 shl	 esi, 18			; 00000012H
  00048	43		 inc	 ebx
  00049	83 fb 03	 cmp	 ebx, 3
  0004c	7c e2		 jl	 SHORT $L226477
$L229604:
  0004e	5f		 pop	 edi
  0004f	5e		 pop	 esi
  00050	5b		 pop	 ebx
  00051	5d		 pop	 ebp

; 196  : 	}
; 197  : 
; 198  : 	return nSize;
; 199  : }

  00052	c2 08 00	 ret	 8
?GetRandomOptionSize@CRandomOptionProperty@@QAEH_J@Z ENDP ; CRandomOptionProperty::GetRandomOptionSize
_TEXT	ENDS
PUBLIC	?DetermineRandomOptionSize@CRandomOptionProperty@@AAEHH@Z ; CRandomOptionProperty::DetermineRandomOptionSize
; Function compile flags: /Ogty
;	COMDAT ?DetermineRandomOptionSize@CRandomOptionProperty@@AAEHH@Z
_TEXT	SEGMENT
_nRandomOptionKind$ = 8					; size = 4
?DetermineRandomOptionSize@CRandomOptionProperty@@AAEHH@Z PROC NEAR ; CRandomOptionProperty::DetermineRandomOptionSize, COMDAT
; _this$ = ecx

; 274  : 	int nUpper	= m_anRandomOptionProb[nRandomOptionKind][MAX_RANDOM_OPTION - 1];

  00000	8b 44 24 04	 mov	 eax, DWORD PTR _nRandomOptionKind$[esp-4]
  00004	8d 04 40	 lea	 eax, DWORD PTR [eax+eax*2]
  00007	8d 0c 81	 lea	 ecx, DWORD PTR [ecx+eax*4]

; 275  : 	DWORD dwRand	= xRandom( nUpper );

  0000a	a1 00 00 00 00	 mov	 eax, DWORD PTR ?g_next@@3KA ; g_next
  0000f	69 c0 6d 4e c6
	41		 imul	 eax, 1103515245		; 41c64e6dH
  00015	05 39 30 00 00	 add	 eax, 12345		; 00003039H
  0001a	56		 push	 esi
  0001b	8b 71 0c	 mov	 esi, DWORD PTR [ecx+12]
  0001e	33 d2		 xor	 edx, edx
  00020	a3 00 00 00 00	 mov	 DWORD PTR ?g_next@@3KA, eax ; g_next
  00025	f7 f6		 div	 esi

; 276  : 	for( int i = 0; i < MAX_RANDOM_OPTION; i++ )

  00027	33 c0		 xor	 eax, eax
  00029	83 c1 04	 add	 ecx, 4
  0002c	8d 64 24 00	 npad	 4
$L226521:

; 277  : 	{
; 278  : 		if( (int)( dwRand ) < m_anRandomOptionProb[nRandomOptionKind][i] )

  00030	8b 31		 mov	 esi, DWORD PTR [ecx]
  00032	40		 inc	 eax
  00033	3b d6		 cmp	 edx, esi
  00035	7c 0a		 jl	 SHORT $L226517
  00037	83 c1 04	 add	 ecx, 4
  0003a	83 f8 03	 cmp	 eax, 3
  0003d	7c f1		 jl	 SHORT $L226521

; 279  : 			return i + 1;
; 280  : 	}
; 281  : 	return 0;

  0003f	33 c0		 xor	 eax, eax
$L226517:
  00041	5e		 pop	 esi

; 282  : }

  00042	c2 04 00	 ret	 4
?DetermineRandomOptionSize@CRandomOptionProperty@@AAEHH@Z ENDP ; CRandomOptionProperty::DetermineRandomOptionSize
_TEXT	ENDS
PUBLIC	?SetSafeFlag@CRandomOptionProperty@@QAEXPA_J@Z	; CRandomOptionProperty::SetSafeFlag
PUBLIC	??_C@_0DB@BIDMLGEE@pn64RandomOption?5is?5NULL?5in?5SetS@ ; `string'
PUBLIC	??_C@_0DK@LIADPBBI@bCheckedSafeFlag?5is?5already?5true@ ; `string'
EXTRN	?WriteLog@@YAXPBDZZ:NEAR			; WriteLog
;	COMDAT ??_C@_0DB@BIDMLGEE@pn64RandomOption?5is?5NULL?5in?5SetS@
CONST	SEGMENT
??_C@_0DB@BIDMLGEE@pn64RandomOption?5is?5NULL?5in?5SetS@ DB 'pn64RandomOp'
	DB	'tion is NULL in SetSafeFlag function', 00H	; `string'
CONST	ENDS
;	COMDAT ??_C@_0DK@LIADPBBI@bCheckedSafeFlag?5is?5already?5true@
CONST	SEGMENT
??_C@_0DK@LIADPBBI@bCheckedSafeFlag?5is?5already?5true@ DB 'bCheckedSafeF'
	DB	'lag is already true in SetSafeFlag function.', 00H ; `string'
; Function compile flags: /Ogty
CONST	ENDS
;	COMDAT ?SetSafeFlag@CRandomOptionProperty@@QAEXPA_J@Z
_TEXT	SEGMENT
_pn64RandomOption$ = 8					; size = 4
?SetSafeFlag@CRandomOptionProperty@@QAEXPA_J@Z PROC NEAR ; CRandomOptionProperty::SetSafeFlag, COMDAT
; _this$ = ecx

; 351  : 	if( pn64RandomOption == NULL )

  00000	8b 54 24 04	 mov	 edx, DWORD PTR _pn64RandomOption$[esp-4]
  00004	85 d2		 test	 edx, edx
  00006	75 10		 jne	 SHORT $L226571

; 352  : 	{
; 353  : 		WriteLog( "pn64RandomOption is NULL in SetSafeFlag function" );

  00008	68 00 00 00 00	 push	 OFFSET FLAT:??_C@_0DB@BIDMLGEE@pn64RandomOption?5is?5NULL?5in?5SetS@
  0000d	e8 00 00 00 00	 call	 ?WriteLog@@YAXPBDZZ	; WriteLog
  00012	83 c4 04	 add	 esp, 4

; 367  : 		}
; 368  : 	}
; 369  : 
; 370  : 	return;
; 371  : }

  00015	c2 04 00	 ret	 4
$L226571:

; 354  : 	}
; 355  : 	else
; 356  : 	{
; 357  : 		bool	bCheckedSafeFlag = false;
; 358  : 		bCheckedSafeFlag	= IsCheckedSafeFlag( *pn64RandomOption );

  00018	8b 42 04	 mov	 eax, DWORD PTR [edx+4]
  0001b	56		 push	 esi
  0001c	8b c8		 mov	 ecx, eax
  0001e	81 e1 00 00 00
	20		 and	 ecx, 536870912		; 20000000H
  00024	33 f6		 xor	 esi, esi
  00026	57		 push	 edi
  00027	8b 3a		 mov	 edi, DWORD PTR [edx]
  00029	75 1a		 jne	 SHORT $L226575
  0002b	81 f9 00 00 00
	20		 cmp	 ecx, 536870912		; 20000000H

; 359  : 
; 360  : 		if( bCheckedSafeFlag == true )

  00031	75 12		 jne	 SHORT $L226575

; 361  : 		{
; 362  : 			WriteLog( "bCheckedSafeFlag is already true in SetSafeFlag function." );

  00033	68 00 00 00 00	 push	 OFFSET FLAT:??_C@_0DK@LIADPBBI@bCheckedSafeFlag?5is?5already?5true@
  00038	e8 00 00 00 00	 call	 ?WriteLog@@YAXPBDZZ	; WriteLog
  0003d	83 c4 04	 add	 esp, 4
  00040	5f		 pop	 edi
  00041	5e		 pop	 esi

; 367  : 		}
; 368  : 	}
; 369  : 
; 370  : 	return;
; 371  : }

  00042	c2 04 00	 ret	 4
$L226575:

; 363  : 		}
; 364  : 		else
; 365  : 		{
; 366  : 			*pn64RandomOption = *pn64RandomOption | _AWAKE_SAFE_FLAG;

  00045	89 3a		 mov	 DWORD PTR [edx], edi
  00047	0d 00 00 00 20	 or	 eax, 536870912		; 20000000H
  0004c	5f		 pop	 edi
  0004d	89 42 04	 mov	 DWORD PTR [edx+4], eax
  00050	5e		 pop	 esi

; 367  : 		}
; 368  : 	}
; 369  : 
; 370  : 	return;
; 371  : }

  00051	c2 04 00	 ret	 4
?SetSafeFlag@CRandomOptionProperty@@QAEXPA_J@Z ENDP	; CRandomOptionProperty::SetSafeFlag
_TEXT	ENDS
PUBLIC	?ResetSafeFlag@CRandomOptionProperty@@QAEXPA_J@Z ; CRandomOptionProperty::ResetSafeFlag
PUBLIC	??_C@_0DD@LJDGNMPF@pn64RandomOption?5is?5NULL?5in?5Rese@ ; `string'
PUBLIC	??_C@_0DN@MEFMADHD@bCheckedSafeFlag?5is?5already?5fals@ ; `string'
;	COMDAT ??_C@_0DD@LJDGNMPF@pn64RandomOption?5is?5NULL?5in?5Rese@
CONST	SEGMENT
??_C@_0DD@LJDGNMPF@pn64RandomOption?5is?5NULL?5in?5Rese@ DB 'pn64RandomOp'
	DB	'tion is NULL in ResetSafeFlag function', 00H ; `string'
CONST	ENDS
;	COMDAT ??_C@_0DN@MEFMADHD@bCheckedSafeFlag?5is?5already?5fals@
CONST	SEGMENT
??_C@_0DN@MEFMADHD@bCheckedSafeFlag?5is?5already?5fals@ DB 'bCheckedSafeF'
	DB	'lag is already false in ResetSafeFlag function.', 00H ; `string'
; Function compile flags: /Ogty
CONST	ENDS
;	COMDAT ?ResetSafeFlag@CRandomOptionProperty@@QAEXPA_J@Z
_TEXT	SEGMENT
_pn64RandomOption$ = 8					; size = 4
?ResetSafeFlag@CRandomOptionProperty@@QAEXPA_J@Z PROC NEAR ; CRandomOptionProperty::ResetSafeFlag, COMDAT
; _this$ = ecx

; 375  : 	if( pn64RandomOption == NULL )

  00000	8b 54 24 04	 mov	 edx, DWORD PTR _pn64RandomOption$[esp-4]
  00004	85 d2		 test	 edx, edx
  00006	75 10		 jne	 SHORT $L226582

; 376  : 	{
; 377  : 		WriteLog( "pn64RandomOption is NULL in ResetSafeFlag function" );

  00008	68 00 00 00 00	 push	 OFFSET FLAT:??_C@_0DD@LJDGNMPF@pn64RandomOption?5is?5NULL?5in?5Rese@
  0000d	e8 00 00 00 00	 call	 ?WriteLog@@YAXPBDZZ	; WriteLog
  00012	83 c4 04	 add	 esp, 4

; 391  : 		}
; 392  : 	}
; 393  : 
; 394  : 	return;
; 395  : }

  00015	c2 04 00	 ret	 4
$L226582:

; 378  : 	}
; 379  : 	else
; 380  : 	{
; 381  : 		bool	bCheckedSafeFalg = false;
; 382  : 		bCheckedSafeFalg	= IsCheckedSafeFlag( *pn64RandomOption );

  00018	8b 4a 04	 mov	 ecx, DWORD PTR [edx+4]
  0001b	56		 push	 esi
  0001c	8b c1		 mov	 eax, ecx
  0001e	25 00 00 00 20	 and	 eax, 536870912		; 20000000H
  00023	33 f6		 xor	 esi, esi
  00025	57		 push	 edi
  00026	8b 3a		 mov	 edi, DWORD PTR [edx]
  00028	75 17		 jne	 SHORT $L226586
  0002a	3d 00 00 00 20	 cmp	 eax, 536870912		; 20000000H

; 383  : 
; 384  : 		if( bCheckedSafeFalg == true )

  0002f	75 10		 jne	 SHORT $L226586

; 385  : 		{
; 386  : 			*pn64RandomOption = *pn64RandomOption & ~(_AWAKE_SAFE_FLAG);

  00031	89 3a		 mov	 DWORD PTR [edx], edi
  00033	81 e1 ff ff ff
	df		 and	 ecx, -536870913		; dfffffffH
  00039	5f		 pop	 edi
  0003a	89 4a 04	 mov	 DWORD PTR [edx+4], ecx
  0003d	5e		 pop	 esi

; 391  : 		}
; 392  : 	}
; 393  : 
; 394  : 	return;
; 395  : }

  0003e	c2 04 00	 ret	 4
$L226586:

; 387  : 		}
; 388  : 		else
; 389  : 		{
; 390  : 			WriteLog( "bCheckedSafeFlag is already false in ResetSafeFlag function." );

  00041	68 00 00 00 00	 push	 OFFSET FLAT:??_C@_0DN@MEFMADHD@bCheckedSafeFlag?5is?5already?5fals@
  00046	e8 00 00 00 00	 call	 ?WriteLog@@YAXPBDZZ	; WriteLog
  0004b	83 c4 04	 add	 esp, 4
  0004e	5f		 pop	 edi
  0004f	5e		 pop	 esi

; 391  : 		}
; 392  : 	}
; 393  : 
; 394  : 	return;
; 395  : }

  00050	c2 04 00	 ret	 4
?ResetSafeFlag@CRandomOptionProperty@@QAEXPA_J@Z ENDP	; CRandomOptionProperty::ResetSafeFlag
_TEXT	ENDS
PUBLIC	?Compare@?$CStringT@DV?$StrTraitMFC@DV?$ChTraitsCRT@D@ATL@@@@@ATL@@QBEHPBD@Z ; ATL::CStringT<char,StrTraitMFC<char,ATL::ChTraitsCRT<char> > >::Compare
; Function compile flags: /Ogty
; File c:\program files\microsoft visual studio .net 2003\vc7\atlmfc\include\cstringt.h
;	COMDAT ?Compare@?$CStringT@DV?$StrTraitMFC@DV?$ChTraitsCRT@D@ATL@@@@@ATL@@QBEHPBD@Z
_TEXT	SEGMENT
_psz$ = 8						; size = 4
?Compare@?$CStringT@DV?$StrTraitMFC@DV?$ChTraitsCRT@D@ATL@@@@@ATL@@QBEHPBD@Z PROC NEAR ; ATL::CStringT<char,StrTraitMFC<char,ATL::ChTraitsCRT<char> > >::Compare, COMDAT
; _this$ = ecx

; 1088 : 		ATLASSERT( AtlIsValidString( psz ) );
; 1089 : 		return( StringTraits::StringCompare( GetString(), psz ) );

  00000	8b 44 24 04	 mov	 eax, DWORD PTR _psz$[esp-4]
  00004	8b 09		 mov	 ecx, DWORD PTR [ecx]
  00006	50		 push	 eax
  00007	51		 push	 ecx
  00008	e8 00 00 00 00	 call	 __mbscmp
  0000d	83 c4 08	 add	 esp, 8

; 1090 : 	}

  00010	c2 04 00	 ret	 4
?Compare@?$CStringT@DV?$StrTraitMFC@DV?$ChTraitsCRT@D@ATL@@@@@ATL@@QBEHPBD@Z ENDP ; ATL::CStringT<char,StrTraitMFC<char,ATL::ChTraitsCRT<char> > >::Compare
_TEXT	ENDS
PUBLIC	??0?$_Vector_val@U_AdjData@@V?$allocator@U_AdjData@@@std@@@std@@IAE@V?$allocator@U_AdjData@@@1@@Z ; std::_Vector_val<_AdjData,std::allocator<_AdjData> >::_Vector_val<_AdjData,std::allocator<_AdjData> >
; Function compile flags: /Ogty
; File c:\program files\microsoft visual studio .net 2003\vc7\include\vector
;	COMDAT ??0?$_Vector_val@U_AdjData@@V?$allocator@U_AdjData@@@std@@@std@@IAE@V?$allocator@U_AdjData@@@1@@Z
_TEXT	SEGMENT
__Al$ = 8						; size = 1
??0?$_Vector_val@U_AdjData@@V?$allocator@U_AdjData@@@std@@@std@@IAE@V?$allocator@U_AdjData@@@1@@Z PROC NEAR ; std::_Vector_val<_AdjData,std::allocator<_AdjData> >::_Vector_val<_AdjData,std::allocator<_AdjData> >, COMDAT
; _this$ = ecx

; 21   : 		{	// construct allocator from _Al

  00000	8b c1		 mov	 eax, ecx

; 22   : 		}

  00002	c2 04 00	 ret	 4
??0?$_Vector_val@U_AdjData@@V?$allocator@U_AdjData@@@std@@@std@@IAE@V?$allocator@U_AdjData@@@1@@Z ENDP ; std::_Vector_val<_AdjData,std::allocator<_AdjData> >::_Vector_val<_AdjData,std::allocator<_AdjData> >
_TEXT	ENDS
PUBLIC	??0iterator@?$vector@U_AdjData@@V?$allocator@U_AdjData@@@std@@@std@@QAE@PAU_AdjData@@@Z ; std::vector<_AdjData,std::allocator<_AdjData> >::iterator::iterator
; Function compile flags: /Ogty
;	COMDAT ??0iterator@?$vector@U_AdjData@@V?$allocator@U_AdjData@@@std@@@std@@QAE@PAU_AdjData@@@Z
_TEXT	SEGMENT
__Ptr$ = 8						; size = 4
??0iterator@?$vector@U_AdjData@@V?$allocator@U_AdjData@@@std@@@std@@QAE@PAU_AdjData@@@Z PROC NEAR ; std::vector<_AdjData,std::allocator<_AdjData> >::iterator::iterator, COMDAT
; _this$ = ecx

; 215  : 			{	// construct with pointer _Ptr

  00000	8b c1		 mov	 eax, ecx
  00002	8b 4c 24 04	 mov	 ecx, DWORD PTR __Ptr$[esp-4]
  00006	89 08		 mov	 DWORD PTR [eax], ecx

; 216  : 			}

  00008	c2 04 00	 ret	 4
??0iterator@?$vector@U_AdjData@@V?$allocator@U_AdjData@@@std@@@std@@QAE@PAU_AdjData@@@Z ENDP ; std::vector<_AdjData,std::allocator<_AdjData> >::iterator::iterator
_TEXT	ENDS
PUBLIC	??Diterator@?$vector@U_AdjData@@V?$allocator@U_AdjData@@@std@@@std@@QBEAAU_AdjData@@XZ ; std::vector<_AdjData,std::allocator<_AdjData> >::iterator::operator*
; Function compile flags: /Ogty
;	COMDAT ??Diterator@?$vector@U_AdjData@@V?$allocator@U_AdjData@@@std@@@std@@QBEAAU_AdjData@@XZ
_TEXT	SEGMENT
??Diterator@?$vector@U_AdjData@@V?$allocator@U_AdjData@@@std@@@std@@QBEAAU_AdjData@@XZ PROC NEAR ; std::vector<_AdjData,std::allocator<_AdjData> >::iterator::operator*, COMDAT
; _this$ = ecx

; 220  : 			return ((reference)**(const_iterator *)this);

  00000	8b 01		 mov	 eax, DWORD PTR [ecx]

; 221  : 			}

  00002	c3		 ret	 0
??Diterator@?$vector@U_AdjData@@V?$allocator@U_AdjData@@@std@@@std@@QBEAAU_AdjData@@XZ ENDP ; std::vector<_AdjData,std::allocator<_AdjData> >::iterator::operator*
_TEXT	ENDS
PUBLIC	??Hiterator@?$vector@U_AdjData@@V?$allocator@U_AdjData@@@std@@@std@@QBE?AV012@H@Z ; std::vector<_AdjData,std::allocator<_AdjData> >::iterator::operator+
; Function compile flags: /Ogty
;	COMDAT ??Hiterator@?$vector@U_AdjData@@V?$allocator@U_AdjData@@@std@@@std@@QBE?AV012@H@Z
_TEXT	SEGMENT
___$ReturnUdt$ = 8					; size = 4
__Off$ = 12						; size = 4
??Hiterator@?$vector@U_AdjData@@V?$allocator@U_AdjData@@@std@@@std@@QBE?AV012@H@Z PROC NEAR ; std::vector<_AdjData,std::allocator<_AdjData> >::iterator::operator+, COMDAT
; _this$ = ecx

; 262  : 			iterator _Tmp = *this;
; 263  : 			return (_Tmp += _Off);

  00000	8b 01		 mov	 eax, DWORD PTR [ecx]
  00002	8b 4c 24 08	 mov	 ecx, DWORD PTR __Off$[esp-4]
  00006	8d 14 c8	 lea	 edx, DWORD PTR [eax+ecx*8]
  00009	8b 44 24 04	 mov	 eax, DWORD PTR ___$ReturnUdt$[esp-4]
  0000d	89 10		 mov	 DWORD PTR [eax], edx

; 264  : 			}

  0000f	c2 08 00	 ret	 8
??Hiterator@?$vector@U_AdjData@@V?$allocator@U_AdjData@@@std@@@std@@QBE?AV012@H@Z ENDP ; std::vector<_AdjData,std::allocator<_AdjData> >::iterator::operator+
_TEXT	ENDS
PUBLIC	??0?$_Vector_val@U_RANDOM_OPTION@@V?$allocator@U_RANDOM_OPTION@@@std@@@std@@IAE@V?$allocator@U_RANDOM_OPTION@@@1@@Z ; std::_Vector_val<_RANDOM_OPTION,std::allocator<_RANDOM_OPTION> >::_Vector_val<_RANDOM_OPTION,std::allocator<_RANDOM_OPTION> >
; Function compile flags: /Ogty
;	COMDAT ??0?$_Vector_val@U_RANDOM_OPTION@@V?$allocator@U_RANDOM_OPTION@@@std@@@std@@IAE@V?$allocator@U_RANDOM_OPTION@@@1@@Z
_TEXT	SEGMENT
__Al$ = 8						; size = 1
??0?$_Vector_val@U_RANDOM_OPTION@@V?$allocator@U_RANDOM_OPTION@@@std@@@std@@IAE@V?$allocator@U_RANDOM_OPTION@@@1@@Z PROC NEAR ; std::_Vector_val<_RANDOM_OPTION,std::allocator<_RANDOM_OPTION> >::_Vector_val<_RANDOM_OPTION,std::allocator<_RANDOM_OPTION> >, COMDAT
; _this$ = ecx

; 21   : 		{	// construct allocator from _Al

  00000	8b c1		 mov	 eax, ecx

; 22   : 		}

  00002	c2 04 00	 ret	 4
??0?$_Vector_val@U_RANDOM_OPTION@@V?$allocator@U_RANDOM_OPTION@@@std@@@std@@IAE@V?$allocator@U_RANDOM_OPTION@@@1@@Z ENDP ; std::_Vector_val<_RANDOM_OPTION,std::allocator<_RANDOM_OPTION> >::_Vector_val<_RANDOM_OPTION,std::allocator<_RANDOM_OPTION> >
_TEXT	ENDS
PUBLIC	??Diterator@?$vector@U_RANDOM_OPTION@@V?$allocator@U_RANDOM_OPTION@@@std@@@std@@QBEAAU_RANDOM_OPTION@@XZ ; std::vector<_RANDOM_OPTION,std::allocator<_RANDOM_OPTION> >::iterator::operator*
; Function compile flags: /Ogty
;	COMDAT ??Diterator@?$vector@U_RANDOM_OPTION@@V?$allocator@U_RANDOM_OPTION@@@std@@@std@@QBEAAU_RANDOM_OPTION@@XZ
_TEXT	SEGMENT
??Diterator@?$vector@U_RANDOM_OPTION@@V?$allocator@U_RANDOM_OPTION@@@std@@@std@@QBEAAU_RANDOM_OPTION@@XZ PROC NEAR ; std::vector<_RANDOM_OPTION,std::allocator<_RANDOM_OPTION> >::iterator::operator*, COMDAT
; _this$ = ecx

; 220  : 			return ((reference)**(const_iterator *)this);

  00000	8b 01		 mov	 eax, DWORD PTR [ecx]

; 221  : 			}

  00002	c3		 ret	 0
??Diterator@?$vector@U_RANDOM_OPTION@@V?$allocator@U_RANDOM_OPTION@@@std@@@std@@QBEAAU_RANDOM_OPTION@@XZ ENDP ; std::vector<_RANDOM_OPTION,std::allocator<_RANDOM_OPTION> >::iterator::operator*
_TEXT	ENDS
PUBLIC	??Hiterator@?$vector@U_RANDOM_OPTION@@V?$allocator@U_RANDOM_OPTION@@@std@@@std@@QBE?AV012@H@Z ; std::vector<_RANDOM_OPTION,std::allocator<_RANDOM_OPTION> >::iterator::operator+
; Function compile flags: /Ogty
;	COMDAT ??Hiterator@?$vector@U_RANDOM_OPTION@@V?$allocator@U_RANDOM_OPTION@@@std@@@std@@QBE?AV012@H@Z
_TEXT	SEGMENT
___$ReturnUdt$ = 8					; size = 4
__Off$ = 12						; size = 4
??Hiterator@?$vector@U_RANDOM_OPTION@@V?$allocator@U_RANDOM_OPTION@@@std@@@std@@QBE?AV012@H@Z PROC NEAR ; std::vector<_RANDOM_OPTION,std::allocator<_RANDOM_OPTION> >::iterator::operator+, COMDAT
; _this$ = ecx

; 262  : 			iterator _Tmp = *this;
; 263  : 			return (_Tmp += _Off);

  00000	8b 44 24 08	 mov	 eax, DWORD PTR __Off$[esp-4]
  00004	8b 09		 mov	 ecx, DWORD PTR [ecx]
  00006	8d 04 40	 lea	 eax, DWORD PTR [eax+eax*2]
  00009	8d 14 c1	 lea	 edx, DWORD PTR [ecx+eax*8]
  0000c	8b 44 24 04	 mov	 eax, DWORD PTR ___$ReturnUdt$[esp-4]
  00010	89 10		 mov	 DWORD PTR [eax], edx

; 264  : 			}

  00012	c2 08 00	 ret	 8
??Hiterator@?$vector@U_RANDOM_OPTION@@V?$allocator@U_RANDOM_OPTION@@@std@@@std@@QBE?AV012@H@Z ENDP ; std::vector<_RANDOM_OPTION,std::allocator<_RANDOM_OPTION> >::iterator::operator+
_TEXT	ENDS
PUBLIC	?max_size@?$vector@U_AdjData@@V?$allocator@U_AdjData@@@std@@@std@@QBEIXZ ; std::vector<_AdjData,std::allocator<_AdjData> >::max_size
; Function compile flags: /Ogty
;	COMDAT ?max_size@?$vector@U_AdjData@@V?$allocator@U_AdjData@@@std@@@std@@QBEIXZ
_TEXT	SEGMENT
?max_size@?$vector@U_AdjData@@V?$allocator@U_AdjData@@@std@@@std@@QBEIXZ PROC NEAR ; std::vector<_AdjData,std::allocator<_AdjData> >::max_size, COMDAT
; _this$ = ecx

; 521  : 		return (this->_Alval.max_size());

  00000	b8 ff ff ff 1f	 mov	 eax, 536870911		; 1fffffffH

; 522  : 		}

  00005	c3		 ret	 0
?max_size@?$vector@U_AdjData@@V?$allocator@U_AdjData@@@std@@@std@@QBEIXZ ENDP ; std::vector<_AdjData,std::allocator<_AdjData> >::max_size
_TEXT	ENDS
PUBLIC	?allocate@?$allocator@U_AdjData@@@std@@QAEPAU_AdjData@@I@Z ; std::allocator<_AdjData>::allocate
; Function compile flags: /Ogty
; File c:\program files\microsoft visual studio .net 2003\vc7\include\xmemory
;	COMDAT ?allocate@?$allocator@U_AdjData@@@std@@QAEPAU_AdjData@@I@Z
_TEXT	SEGMENT
__Count$ = 8						; size = 4
?allocate@?$allocator@U_AdjData@@@std@@QAEPAU_AdjData@@I@Z PROC NEAR ; std::allocator<_AdjData>::allocate, COMDAT
; _this$ = ecx

; 137  : 		return (_Allocate(_Count, (pointer)0));

  00000	8b 44 24 04	 mov	 eax, DWORD PTR __Count$[esp-4]
  00004	8d 0c c5 00 00
	00 00		 lea	 ecx, DWORD PTR [eax*8]
  0000b	51		 push	 ecx
  0000c	e8 00 00 00 00	 call	 ??2@YAPAXI@Z		; operator new
  00011	83 c4 04	 add	 esp, 4

; 138  : 		}

  00014	c2 04 00	 ret	 4
?allocate@?$allocator@U_AdjData@@@std@@QAEPAU_AdjData@@I@Z ENDP ; std::allocator<_AdjData>::allocate
_TEXT	ENDS
PUBLIC	??Giterator@?$vector@U_AdjData@@V?$allocator@U_AdjData@@@std@@@std@@QBEHABVconst_iterator@12@@Z ; std::vector<_AdjData,std::allocator<_AdjData> >::iterator::operator-
; Function compile flags: /Ogty
; File c:\program files\microsoft visual studio .net 2003\vc7\include\vector
;	COMDAT ??Giterator@?$vector@U_AdjData@@V?$allocator@U_AdjData@@@std@@@std@@QBEHABVconst_iterator@12@@Z
_TEXT	SEGMENT
__Right$ = 8						; size = 4
??Giterator@?$vector@U_AdjData@@V?$allocator@U_AdjData@@@std@@@std@@QBEHABVconst_iterator@12@@Z PROC NEAR ; std::vector<_AdjData,std::allocator<_AdjData> >::iterator::operator-, COMDAT
; _this$ = ecx

; 279  : 			return ((const_iterator)*this - _Right);

  00000	8b 01		 mov	 eax, DWORD PTR [ecx]
  00002	8b 4c 24 04	 mov	 ecx, DWORD PTR __Right$[esp-4]
  00006	2b 01		 sub	 eax, DWORD PTR [ecx]
  00008	c1 f8 03	 sar	 eax, 3

; 280  : 			}

  0000b	c2 04 00	 ret	 4
??Giterator@?$vector@U_AdjData@@V?$allocator@U_AdjData@@@std@@@std@@QBEHABVconst_iterator@12@@Z ENDP ; std::vector<_AdjData,std::allocator<_AdjData> >::iterator::operator-
_TEXT	ENDS
PUBLIC	?max_size@?$vector@U_RANDOM_OPTION@@V?$allocator@U_RANDOM_OPTION@@@std@@@std@@QBEIXZ ; std::vector<_RANDOM_OPTION,std::allocator<_RANDOM_OPTION> >::max_size
; Function compile flags: /Ogty
;	COMDAT ?max_size@?$vector@U_RANDOM_OPTION@@V?$allocator@U_RANDOM_OPTION@@@std@@@std@@QBEIXZ
_TEXT	SEGMENT
?max_size@?$vector@U_RANDOM_OPTION@@V?$allocator@U_RANDOM_OPTION@@@std@@@std@@QBEIXZ PROC NEAR ; std::vector<_RANDOM_OPTION,std::allocator<_RANDOM_OPTION> >::max_size, COMDAT
; _this$ = ecx

; 521  : 		return (this->_Alval.max_size());

  00000	b8 aa aa aa 0a	 mov	 eax, 178956970		; 0aaaaaaaH

; 522  : 		}

  00005	c3		 ret	 0
?max_size@?$vector@U_RANDOM_OPTION@@V?$allocator@U_RANDOM_OPTION@@@std@@@std@@QBEIXZ ENDP ; std::vector<_RANDOM_OPTION,std::allocator<_RANDOM_OPTION> >::max_size
_TEXT	ENDS
PUBLIC	?allocate@?$allocator@U_RANDOM_OPTION@@@std@@QAEPAU_RANDOM_OPTION@@I@Z ; std::allocator<_RANDOM_OPTION>::allocate
; Function compile flags: /Ogty
; File c:\program files\microsoft visual studio .net 2003\vc7\include\xmemory
;	COMDAT ?allocate@?$allocator@U_RANDOM_OPTION@@@std@@QAEPAU_RANDOM_OPTION@@I@Z
_TEXT	SEGMENT
__Count$ = 8						; size = 4
?allocate@?$allocator@U_RANDOM_OPTION@@@std@@QAEPAU_RANDOM_OPTION@@I@Z PROC NEAR ; std::allocator<_RANDOM_OPTION>::allocate, COMDAT
; _this$ = ecx

; 137  : 		return (_Allocate(_Count, (pointer)0));

  00000	8b 44 24 04	 mov	 eax, DWORD PTR __Count$[esp-4]
  00004	8d 04 40	 lea	 eax, DWORD PTR [eax+eax*2]
  00007	c1 e0 03	 shl	 eax, 3
  0000a	50		 push	 eax
  0000b	e8 00 00 00 00	 call	 ??2@YAPAXI@Z		; operator new
  00010	83 c4 04	 add	 esp, 4

; 138  : 		}

  00013	c2 04 00	 ret	 4
?allocate@?$allocator@U_RANDOM_OPTION@@@std@@QAEPAU_RANDOM_OPTION@@I@Z ENDP ; std::allocator<_RANDOM_OPTION>::allocate
_TEXT	ENDS
PUBLIC	??0iterator@?$vector@U_RANDOM_OPTION@@V?$allocator@U_RANDOM_OPTION@@@std@@@std@@QAE@PAU_RANDOM_OPTION@@@Z ; std::vector<_RANDOM_OPTION,std::allocator<_RANDOM_OPTION> >::iterator::iterator
; Function compile flags: /Ogty
; File c:\program files\microsoft visual studio .net 2003\vc7\include\vector
;	COMDAT ??0iterator@?$vector@U_RANDOM_OPTION@@V?$allocator@U_RANDOM_OPTION@@@std@@@std@@QAE@PAU_RANDOM_OPTION@@@Z
_TEXT	SEGMENT
__Ptr$ = 8						; size = 4
??0iterator@?$vector@U_RANDOM_OPTION@@V?$allocator@U_RANDOM_OPTION@@@std@@@std@@QAE@PAU_RANDOM_OPTION@@@Z PROC NEAR ; std::vector<_RANDOM_OPTION,std::allocator<_RANDOM_OPTION> >::iterator::iterator, COMDAT
; _this$ = ecx

; 215  : 			{	// construct with pointer _Ptr

  00000	8b c1		 mov	 eax, ecx
  00002	8b 4c 24 04	 mov	 ecx, DWORD PTR __Ptr$[esp-4]
  00006	89 08		 mov	 DWORD PTR [eax], ecx

; 216  : 			}

  00008	c2 04 00	 ret	 4
??0iterator@?$vector@U_RANDOM_OPTION@@V?$allocator@U_RANDOM_OPTION@@@std@@@std@@QAE@PAU_RANDOM_OPTION@@@Z ENDP ; std::vector<_RANDOM_OPTION,std::allocator<_RANDOM_OPTION> >::iterator::iterator
_TEXT	ENDS
PUBLIC	??Giterator@?$vector@U_RANDOM_OPTION@@V?$allocator@U_RANDOM_OPTION@@@std@@@std@@QBEHABVconst_iterator@12@@Z ; std::vector<_RANDOM_OPTION,std::allocator<_RANDOM_OPTION> >::iterator::operator-
; Function compile flags: /Ogty
;	COMDAT ??Giterator@?$vector@U_RANDOM_OPTION@@V?$allocator@U_RANDOM_OPTION@@@std@@@std@@QBEHABVconst_iterator@12@@Z
_TEXT	SEGMENT
__Right$ = 8						; size = 4
??Giterator@?$vector@U_RANDOM_OPTION@@V?$allocator@U_RANDOM_OPTION@@@std@@@std@@QBEHABVconst_iterator@12@@Z PROC NEAR ; std::vector<_RANDOM_OPTION,std::allocator<_RANDOM_OPTION> >::iterator::operator-, COMDAT
; _this$ = ecx

; 279  : 			return ((const_iterator)*this - _Right);

  00000	8b 01		 mov	 eax, DWORD PTR [ecx]
  00002	8b 4c 24 04	 mov	 ecx, DWORD PTR __Right$[esp-4]
  00006	2b 01		 sub	 eax, DWORD PTR [ecx]
  00008	8b c8		 mov	 ecx, eax
  0000a	b8 ab aa aa 2a	 mov	 eax, 715827883		; 2aaaaaabH
  0000f	f7 e9		 imul	 ecx
  00011	c1 fa 02	 sar	 edx, 2
  00014	8b c2		 mov	 eax, edx
  00016	c1 e8 1f	 shr	 eax, 31			; 0000001fH
  00019	03 c2		 add	 eax, edx

; 280  : 			}

  0001b	c2 04 00	 ret	 4
??Giterator@?$vector@U_RANDOM_OPTION@@V?$allocator@U_RANDOM_OPTION@@@std@@@std@@QBEHABVconst_iterator@12@@Z ENDP ; std::vector<_RANDOM_OPTION,std::allocator<_RANDOM_OPTION> >::iterator::operator-
_TEXT	ENDS
PUBLIC	??$copy_backward@PAU_AdjData@@PAU1@@std@@YAPAU_AdjData@@PAU1@00@Z ; std::copy_backward<_AdjData *,_AdjData *>
; Function compile flags: /Ogty
; File c:\program files\microsoft visual studio .net 2003\vc7\include\xutility
;	COMDAT ??$copy_backward@PAU_AdjData@@PAU1@@std@@YAPAU_AdjData@@PAU1@00@Z
_TEXT	SEGMENT
__First$ = 8						; size = 4
__Last$ = 12						; size = 4
__Dest$ = 16						; size = 4
??$copy_backward@PAU_AdjData@@PAU1@@std@@YAPAU_AdjData@@PAU1@00@Z PROC NEAR ; std::copy_backward<_AdjData *,_AdjData *>, COMDAT

; 1068 : 	return (_Copy_backward_opt(_First, _Last, _Dest,
; 1069 : 		_Ptr_cat(_First, _Dest)));

  00000	8b 4c 24 08	 mov	 ecx, DWORD PTR __Last$[esp-4]
  00004	8b 54 24 04	 mov	 edx, DWORD PTR __First$[esp-4]
  00008	3b d1		 cmp	 edx, ecx
  0000a	8b 44 24 0c	 mov	 eax, DWORD PTR __Dest$[esp-4]
  0000e	74 17		 je	 SHORT $L229759
  00010	56		 push	 esi
$L229758:
  00011	8b 71 f8	 mov	 esi, DWORD PTR [ecx-8]
  00014	83 e9 08	 sub	 ecx, 8
  00017	83 e8 08	 sub	 eax, 8
  0001a	3b ca		 cmp	 ecx, edx
  0001c	89 30		 mov	 DWORD PTR [eax], esi
  0001e	8b 71 04	 mov	 esi, DWORD PTR [ecx+4]
  00021	89 70 04	 mov	 DWORD PTR [eax+4], esi
  00024	75 eb		 jne	 SHORT $L229758
  00026	5e		 pop	 esi
$L229759:

; 1070 : 	}

  00027	c3		 ret	 0
??$copy_backward@PAU_AdjData@@PAU1@@std@@YAPAU_AdjData@@PAU1@00@Z ENDP ; std::copy_backward<_AdjData *,_AdjData *>
_TEXT	ENDS
PUBLIC	??$copy@PAU_AdjData@@PAU1@@std@@YAPAU_AdjData@@PAU1@00@Z ; std::copy<_AdjData *,_AdjData *>
; Function compile flags: /Ogty
;	COMDAT ??$copy@PAU_AdjData@@PAU1@@std@@YAPAU_AdjData@@PAU1@00@Z
_TEXT	SEGMENT
__First$ = 8						; size = 4
__Last$ = 12						; size = 4
__Dest$ = 16						; size = 4
??$copy@PAU_AdjData@@PAU1@@std@@YAPAU_AdjData@@PAU1@00@Z PROC NEAR ; std::copy<_AdjData *,_AdjData *>, COMDAT

; 1040 : 	return (_Copy_opt(_First, _Last, _Dest, _Ptr_cat(_First, _Dest)));

  00000	8b 4c 24 04	 mov	 ecx, DWORD PTR __First$[esp-4]
  00004	8b 54 24 08	 mov	 edx, DWORD PTR __Last$[esp-4]
  00008	3b ca		 cmp	 ecx, edx
  0000a	8b 44 24 0c	 mov	 eax, DWORD PTR __Dest$[esp-4]
  0000e	74 16		 je	 SHORT $L229778
  00010	56		 push	 esi
$L229776:
  00011	8b 31		 mov	 esi, DWORD PTR [ecx]
  00013	89 30		 mov	 DWORD PTR [eax], esi
  00015	8b 71 04	 mov	 esi, DWORD PTR [ecx+4]
  00018	89 70 04	 mov	 DWORD PTR [eax+4], esi
  0001b	83 c1 08	 add	 ecx, 8
  0001e	83 c0 08	 add	 eax, 8
  00021	3b ca		 cmp	 ecx, edx
  00023	75 ec		 jne	 SHORT $L229776
  00025	5e		 pop	 esi
$L229778:

; 1041 : 	}

  00026	c3		 ret	 0
??$copy@PAU_AdjData@@PAU1@@std@@YAPAU_AdjData@@PAU1@00@Z ENDP ; std::copy<_AdjData *,_AdjData *>
_TEXT	ENDS
PUBLIC	?construct@?$allocator@U_AdjData@@@std@@QAEXPAU_AdjData@@ABU3@@Z ; std::allocator<_AdjData>::construct
; Function compile flags: /Ogty
; File c:\program files\microsoft visual studio .net 2003\vc7\include\xmemory
;	COMDAT ?construct@?$allocator@U_AdjData@@@std@@QAEXPAU_AdjData@@ABU3@@Z
_TEXT	SEGMENT
__Ptr$ = 8						; size = 4
__Val$ = 12						; size = 4
?construct@?$allocator@U_AdjData@@@std@@QAEXPAU_AdjData@@ABU3@@Z PROC NEAR ; std::allocator<_AdjData>::construct, COMDAT
; _this$ = ecx

; 147  : 		_Construct(_Ptr, _Val);

  00000	8b 44 24 04	 mov	 eax, DWORD PTR __Ptr$[esp-4]
  00004	85 c0		 test	 eax, eax
  00006	74 0e		 je	 SHORT $L229798
  00008	8b 4c 24 08	 mov	 ecx, DWORD PTR __Val$[esp-4]
  0000c	8b 11		 mov	 edx, DWORD PTR [ecx]
  0000e	89 10		 mov	 DWORD PTR [eax], edx
  00010	8b 49 04	 mov	 ecx, DWORD PTR [ecx+4]
  00013	89 48 04	 mov	 DWORD PTR [eax+4], ecx
$L229798:

; 148  : 		}

  00016	c2 08 00	 ret	 8
?construct@?$allocator@U_AdjData@@@std@@QAEXPAU_AdjData@@ABU3@@Z ENDP ; std::allocator<_AdjData>::construct
_TEXT	ENDS
PUBLIC	?destroy@?$allocator@U_AdjData@@@std@@QAEXPAU_AdjData@@@Z ; std::allocator<_AdjData>::destroy
; Function compile flags: /Ogty
;	COMDAT ?destroy@?$allocator@U_AdjData@@@std@@QAEXPAU_AdjData@@@Z
_TEXT	SEGMENT
__Ptr$ = 8						; size = 4
?destroy@?$allocator@U_AdjData@@@std@@QAEXPAU_AdjData@@@Z PROC NEAR ; std::allocator<_AdjData>::destroy, COMDAT
; _this$ = ecx

; 152  : 		_Destroy(_Ptr);
; 153  : 		}

  00000	c2 04 00	 ret	 4
?destroy@?$allocator@U_AdjData@@@std@@QAEXPAU_AdjData@@@Z ENDP ; std::allocator<_AdjData>::destroy
_TEXT	ENDS
PUBLIC	??9const_iterator@?$vector@U_AdjData@@V?$allocator@U_AdjData@@@std@@@std@@QBE_NABV012@@Z ; std::vector<_AdjData,std::allocator<_AdjData> >::const_iterator::operator!=
; Function compile flags: /Ogty
; File c:\program files\microsoft visual studio .net 2003\vc7\include\vector
;	COMDAT ??9const_iterator@?$vector@U_AdjData@@V?$allocator@U_AdjData@@@std@@@std@@QBE_NABV012@@Z
_TEXT	SEGMENT
__Right$ = 8						; size = 4
??9const_iterator@?$vector@U_AdjData@@V?$allocator@U_AdjData@@@std@@@std@@QBE_NABV012@@Z PROC NEAR ; std::vector<_AdjData,std::allocator<_AdjData> >::const_iterator::operator!=, COMDAT
; _this$ = ecx

; 160  : 			return (!(*this == _Right));

  00000	8b 01		 mov	 eax, DWORD PTR [ecx]
  00002	8b 54 24 04	 mov	 edx, DWORD PTR __Right$[esp-4]
  00006	56		 push	 esi
  00007	8b 32		 mov	 esi, DWORD PTR [edx]
  00009	33 c9		 xor	 ecx, ecx
  0000b	3b c6		 cmp	 eax, esi
  0000d	0f 95 c1	 setne	 cl
  00010	8a c1		 mov	 al, cl
  00012	5e		 pop	 esi

; 161  : 			}

  00013	c2 04 00	 ret	 4
??9const_iterator@?$vector@U_AdjData@@V?$allocator@U_AdjData@@@std@@@std@@QBE_NABV012@@Z ENDP ; std::vector<_AdjData,std::allocator<_AdjData> >::const_iterator::operator!=
_TEXT	ENDS
PUBLIC	??$_Uninit_copy@PAU_AdjData@@PAU1@V?$allocator@U_AdjData@@@std@@@std@@YAPAU_AdjData@@PAU1@00AAV?$allocator@U_AdjData@@@0@U_Nonscalar_ptr_iterator_tag@0@@Z ; std::_Uninit_copy<_AdjData *,_AdjData *,std::allocator<_AdjData> >
EXTRN	__CxxThrowException@8:NEAR
; Function compile flags: /Ogty
; File c:\program files\microsoft visual studio .net 2003\vc7\include\memory
;	COMDAT ??$_Uninit_copy@PAU_AdjData@@PAU1@V?$allocator@U_AdjData@@@std@@@std@@YAPAU_AdjData@@PAU1@00AAV?$allocator@U_AdjData@@@0@U_Nonscalar_ptr_iterator_tag@0@@Z
_TEXT	SEGMENT
__First$ = 8						; size = 4
__Last$ = 12						; size = 4
__Dest$ = 16						; size = 4
__Al$ = 20						; size = 4
___formal$ = 24						; size = 1
??$_Uninit_copy@PAU_AdjData@@PAU1@V?$allocator@U_AdjData@@@std@@@std@@YAPAU_AdjData@@PAU1@00AAV?$allocator@U_AdjData@@@0@U_Nonscalar_ptr_iterator_tag@0@@Z PROC NEAR ; std::_Uninit_copy<_AdjData *,_AdjData *,std::allocator<_AdjData> >, COMDAT

; 78   : 	_FwdIt _Next = _Dest;
; 79   : 
; 80   : 	_TRY_BEGIN
; 81   : 	for (; _First != _Last; ++_Dest, ++_First)

  00000	8b 4c 24 04	 mov	 ecx, DWORD PTR __First$[esp-4]
  00004	8b 54 24 08	 mov	 edx, DWORD PTR __Last$[esp-4]
  00008	3b ca		 cmp	 ecx, edx
  0000a	8b 44 24 0c	 mov	 eax, DWORD PTR __Dest$[esp-4]
  0000e	74 1a		 je	 SHORT $L228417
  00010	56		 push	 esi
$L228415:

; 82   : 		_Al.construct(_Dest, *_First);

  00011	85 c0		 test	 eax, eax
  00013	74 0a		 je	 SHORT $L228416
  00015	8b 31		 mov	 esi, DWORD PTR [ecx]
  00017	89 30		 mov	 DWORD PTR [eax], esi
  00019	8b 71 04	 mov	 esi, DWORD PTR [ecx+4]
  0001c	89 70 04	 mov	 DWORD PTR [eax+4], esi
$L228416:
  0001f	83 c1 08	 add	 ecx, 8
  00022	83 c0 08	 add	 eax, 8
  00025	3b ca		 cmp	 ecx, edx
  00027	75 e8		 jne	 SHORT $L228415
  00029	5e		 pop	 esi
$L228417:

; 83   : 	_CATCH_ALL
; 84   : 	for (; _Next != _Dest; ++_Next)
; 85   : 		_Al.destroy(_Next);
; 86   : 	_RERAISE;
; 87   : 	_CATCH_END
; 88   : 	return (_Dest);
; 89   : 	}

  0002a	c3		 ret	 0
??$_Uninit_copy@PAU_AdjData@@PAU1@V?$allocator@U_AdjData@@@std@@@std@@YAPAU_AdjData@@PAU1@00AAV?$allocator@U_AdjData@@@0@U_Nonscalar_ptr_iterator_tag@0@@Z ENDP ; std::_Uninit_copy<_AdjData *,_AdjData *,std::allocator<_AdjData> >
_TEXT	ENDS
PUBLIC	??$_Uninit_copy@Vconst_iterator@?$vector@U_AdjData@@V?$allocator@U_AdjData@@@std@@@std@@PAU_AdjData@@V?$allocator@U_AdjData@@@3@@std@@YAPAU_AdjData@@Vconst_iterator@?$vector@U_AdjData@@V?$allocator@U_AdjData@@@std@@@0@0PAU1@AAV?$allocator@U_AdjData@@@0@U_Nonscalar_ptr_iterator_tag@0@@Z ; std::_Uninit_copy<std::vector<_AdjData,std::allocator<_AdjData> >::const_iterator,_AdjData *,std::allocator<_AdjData> >
; Function compile flags: /Ogty
;	COMDAT ??$_Uninit_copy@Vconst_iterator@?$vector@U_AdjData@@V?$allocator@U_AdjData@@@std@@@std@@PAU_AdjData@@V?$allocator@U_AdjData@@@3@@std@@YAPAU_AdjData@@Vconst_iterator@?$vector@U_AdjData@@V?$allocator@U_AdjData@@@std@@@0@0PAU1@AAV?$allocator@U_AdjData@@@0@U_Nonscalar_ptr_iterator_tag@0@@Z
_TEXT	SEGMENT
__First$ = 8						; size = 4
__Last$ = 12						; size = 4
__Dest$ = 16						; size = 4
__Al$ = 20						; size = 4
___formal$ = 24						; size = 1
??$_Uninit_copy@Vconst_iterator@?$vector@U_AdjData@@V?$allocator@U_AdjData@@@std@@@std@@PAU_AdjData@@V?$allocator@U_AdjData@@@3@@std@@YAPAU_AdjData@@Vconst_iterator@?$vector@U_AdjData@@V?$allocator@U_AdjData@@@std@@@0@0PAU1@AAV?$allocator@U_AdjData@@@0@U_Nonscalar_ptr_iterator_tag@0@@Z PROC NEAR ; std::_Uninit_copy<std::vector<_AdjData,std::allocator<_AdjData> >::const_iterator,_AdjData *,std::allocator<_AdjData> >, COMDAT

; 78   : 	_FwdIt _Next = _Dest;
; 79   : 
; 80   : 	_TRY_BEGIN
; 81   : 	for (; _First != _Last; ++_Dest, ++_First)

  00000	8b 4c 24 04	 mov	 ecx, DWORD PTR __First$[esp-4]
  00004	8b 54 24 08	 mov	 edx, DWORD PTR __Last$[esp-4]
  00008	3b ca		 cmp	 ecx, edx
  0000a	8b 44 24 0c	 mov	 eax, DWORD PTR __Dest$[esp-4]
  0000e	74 1a		 je	 SHORT $L228437
  00010	56		 push	 esi
$L229857:

; 82   : 		_Al.construct(_Dest, *_First);

  00011	85 c0		 test	 eax, eax
  00013	74 0a		 je	 SHORT $L228436
  00015	8b 31		 mov	 esi, DWORD PTR [ecx]
  00017	89 30		 mov	 DWORD PTR [eax], esi
  00019	8b 71 04	 mov	 esi, DWORD PTR [ecx+4]
  0001c	89 70 04	 mov	 DWORD PTR [eax+4], esi
$L228436:
  0001f	83 c1 08	 add	 ecx, 8
  00022	83 c0 08	 add	 eax, 8
  00025	3b ca		 cmp	 ecx, edx
  00027	75 e8		 jne	 SHORT $L229857
  00029	5e		 pop	 esi
$L228437:

; 83   : 	_CATCH_ALL
; 84   : 	for (; _Next != _Dest; ++_Next)
; 85   : 		_Al.destroy(_Next);
; 86   : 	_RERAISE;
; 87   : 	_CATCH_END
; 88   : 	return (_Dest);
; 89   : 	}

  0002a	c3		 ret	 0
??$_Uninit_copy@Vconst_iterator@?$vector@U_AdjData@@V?$allocator@U_AdjData@@@std@@@std@@PAU_AdjData@@V?$allocator@U_AdjData@@@3@@std@@YAPAU_AdjData@@Vconst_iterator@?$vector@U_AdjData@@V?$allocator@U_AdjData@@@std@@@0@0PAU1@AAV?$allocator@U_AdjData@@@0@U_Nonscalar_ptr_iterator_tag@0@@Z ENDP ; std::_Uninit_copy<std::vector<_AdjData,std::allocator<_AdjData> >::const_iterator,_AdjData *,std::allocator<_AdjData> >
_TEXT	ENDS
PUBLIC	??$advance@Viterator@?$vector@U_AdjData@@V?$allocator@U_AdjData@@@std@@@std@@H@std@@YAXAAViterator@?$vector@U_AdjData@@V?$allocator@U_AdjData@@@std@@@0@H@Z ; std::advance<std::vector<_AdjData,std::allocator<_AdjData> >::iterator,int>
; Function compile flags: /Ogty
; File c:\program files\microsoft visual studio .net 2003\vc7\include\iterator
;	COMDAT ??$advance@Viterator@?$vector@U_AdjData@@V?$allocator@U_AdjData@@@std@@@std@@H@std@@YAXAAViterator@?$vector@U_AdjData@@V?$allocator@U_AdjData@@@std@@@0@H@Z
_TEXT	SEGMENT
__Where$ = 8						; size = 4
__Off$ = 12						; size = 4
??$advance@Viterator@?$vector@U_AdjData@@V?$allocator@U_AdjData@@@std@@@std@@H@std@@YAXAAViterator@?$vector@U_AdjData@@V?$allocator@U_AdjData@@@std@@@0@H@Z PROC NEAR ; std::advance<std::vector<_AdjData,std::allocator<_AdjData> >::iterator,int>, COMDAT

; 295  : 	_Advance(_Where, _Off, _Iter_cat(_Where));

  00000	8b 44 24 08	 mov	 eax, DWORD PTR __Off$[esp-4]
  00004	8d 0c c5 00 00
	00 00		 lea	 ecx, DWORD PTR [eax*8]
  0000b	8b 44 24 04	 mov	 eax, DWORD PTR __Where$[esp-4]
  0000f	01 08		 add	 DWORD PTR [eax], ecx

; 296  : 	}

  00011	c3		 ret	 0
??$advance@Viterator@?$vector@U_AdjData@@V?$allocator@U_AdjData@@@std@@@std@@H@std@@YAXAAViterator@?$vector@U_AdjData@@V?$allocator@U_AdjData@@@std@@@0@H@Z ENDP ; std::advance<std::vector<_AdjData,std::allocator<_AdjData> >::iterator,int>
_TEXT	ENDS
PUBLIC	??$_Distance2@Viterator@?$vector@U_AdjData@@V?$allocator@U_AdjData@@@std@@@std@@I@std@@YAXViterator@?$vector@U_AdjData@@V?$allocator@U_AdjData@@@std@@@0@0AAIUrandom_access_iterator_tag@0@@Z ; std::_Distance2<std::vector<_AdjData,std::allocator<_AdjData> >::iterator,unsigned int>
; Function compile flags: /Ogty
; File c:\program files\microsoft visual studio .net 2003\vc7\include\xutility
;	COMDAT ??$_Distance2@Viterator@?$vector@U_AdjData@@V?$allocator@U_AdjData@@@std@@@std@@I@std@@YAXViterator@?$vector@U_AdjData@@V?$allocator@U_AdjData@@@std@@@0@0AAIUrandom_access_iterator_tag@0@@Z
_TEXT	SEGMENT
__First$ = 8						; size = 4
__Last$ = 12						; size = 4
__Off$ = 16						; size = 4
___formal$ = 20						; size = 1
??$_Distance2@Viterator@?$vector@U_AdjData@@V?$allocator@U_AdjData@@@std@@@std@@I@std@@YAXViterator@?$vector@U_AdjData@@V?$allocator@U_AdjData@@@std@@@0@0AAIUrandom_access_iterator_tag@0@@Z PROC NEAR ; std::_Distance2<std::vector<_AdjData,std::allocator<_AdjData> >::iterator,unsigned int>, COMDAT

; 479  : 
; 480  : 
; 481  : 	_Off += _Last - _First;

  00000	8b 54 24 04	 mov	 edx, DWORD PTR __First$[esp-4]
  00004	8b 4c 24 08	 mov	 ecx, DWORD PTR __Last$[esp-4]
  00008	8b 44 24 0c	 mov	 eax, DWORD PTR __Off$[esp-4]
  0000c	2b ca		 sub	 ecx, edx
  0000e	8b 10		 mov	 edx, DWORD PTR [eax]
  00010	c1 f9 03	 sar	 ecx, 3
  00013	03 d1		 add	 edx, ecx
  00015	89 10		 mov	 DWORD PTR [eax], edx

; 482  : 	}

  00017	c3		 ret	 0
??$_Distance2@Viterator@?$vector@U_AdjData@@V?$allocator@U_AdjData@@@std@@@std@@I@std@@YAXViterator@?$vector@U_AdjData@@V?$allocator@U_AdjData@@@std@@@0@0AAIUrandom_access_iterator_tag@0@@Z ENDP ; std::_Distance2<std::vector<_AdjData,std::allocator<_AdjData> >::iterator,unsigned int>
_TEXT	ENDS
PUBLIC	??$_Copy_opt@Viterator@?$vector@U_AdjData@@V?$allocator@U_AdjData@@@std@@@std@@PAU_AdjData@@@std@@YAPAU_AdjData@@Viterator@?$vector@U_AdjData@@V?$allocator@U_AdjData@@@std@@@0@0PAU1@U_Nonscalar_ptr_iterator_tag@0@@Z ; std::_Copy_opt<std::vector<_AdjData,std::allocator<_AdjData> >::iterator,_AdjData *>
; Function compile flags: /Ogty
;	COMDAT ??$_Copy_opt@Viterator@?$vector@U_AdjData@@V?$allocator@U_AdjData@@@std@@@std@@PAU_AdjData@@@std@@YAPAU_AdjData@@Viterator@?$vector@U_AdjData@@V?$allocator@U_AdjData@@@std@@@0@0PAU1@U_Nonscalar_ptr_iterator_tag@0@@Z
_TEXT	SEGMENT
__First$ = 8						; size = 4
__Last$ = 12						; size = 4
__Dest$ = 16						; size = 4
___formal$ = 20						; size = 1
??$_Copy_opt@Viterator@?$vector@U_AdjData@@V?$allocator@U_AdjData@@@std@@@std@@PAU_AdjData@@@std@@YAPAU_AdjData@@Viterator@?$vector@U_AdjData@@V?$allocator@U_AdjData@@@std@@@0@0PAU1@U_Nonscalar_ptr_iterator_tag@0@@Z PROC NEAR ; std::_Copy_opt<std::vector<_AdjData,std::allocator<_AdjData> >::iterator,_AdjData *>, COMDAT

; 1021 : 	for (; _First != _Last; ++_Dest, ++_First)

  00000	8b 4c 24 04	 mov	 ecx, DWORD PTR __First$[esp-4]
  00004	8b 54 24 08	 mov	 edx, DWORD PTR __Last$[esp-4]
  00008	3b ca		 cmp	 ecx, edx
  0000a	8b 44 24 0c	 mov	 eax, DWORD PTR __Dest$[esp-4]
  0000e	74 16		 je	 SHORT $L228873
  00010	56		 push	 esi
$L229934:

; 1022 : 		*_Dest = *_First;

  00011	8b 31		 mov	 esi, DWORD PTR [ecx]
  00013	89 30		 mov	 DWORD PTR [eax], esi
  00015	8b 71 04	 mov	 esi, DWORD PTR [ecx+4]
  00018	89 70 04	 mov	 DWORD PTR [eax+4], esi
  0001b	83 c1 08	 add	 ecx, 8
  0001e	83 c0 08	 add	 eax, 8
  00021	3b ca		 cmp	 ecx, edx
  00023	75 ec		 jne	 SHORT $L229934
  00025	5e		 pop	 esi
$L228873:

; 1023 : 	return (_Dest);
; 1024 : 	}

  00026	c3		 ret	 0
??$_Copy_opt@Viterator@?$vector@U_AdjData@@V?$allocator@U_AdjData@@@std@@@std@@PAU_AdjData@@@std@@YAPAU_AdjData@@Viterator@?$vector@U_AdjData@@V?$allocator@U_AdjData@@@std@@@0@0PAU1@U_Nonscalar_ptr_iterator_tag@0@@Z ENDP ; std::_Copy_opt<std::vector<_AdjData,std::allocator<_AdjData> >::iterator,_AdjData *>
_TEXT	ENDS
PUBLIC	??$_Uninit_copy@Viterator@?$vector@U_AdjData@@V?$allocator@U_AdjData@@@std@@@std@@PAU_AdjData@@V?$allocator@U_AdjData@@@3@@std@@YAPAU_AdjData@@Viterator@?$vector@U_AdjData@@V?$allocator@U_AdjData@@@std@@@0@0PAU1@AAV?$allocator@U_AdjData@@@0@U_Nonscalar_ptr_iterator_tag@0@@Z ; std::_Uninit_copy<std::vector<_AdjData,std::allocator<_AdjData> >::iterator,_AdjData *,std::allocator<_AdjData> >
; Function compile flags: /Ogty
; File c:\program files\microsoft visual studio .net 2003\vc7\include\memory
;	COMDAT ??$_Uninit_copy@Viterator@?$vector@U_AdjData@@V?$allocator@U_AdjData@@@std@@@std@@PAU_AdjData@@V?$allocator@U_AdjData@@@3@@std@@YAPAU_AdjData@@Viterator@?$vector@U_AdjData@@V?$allocator@U_AdjData@@@std@@@0@0PAU1@AAV?$allocator@U_AdjData@@@0@U_Nonscalar_ptr_iterator_tag@0@@Z
_TEXT	SEGMENT
__First$ = 8						; size = 4
__Last$ = 12						; size = 4
__Dest$ = 16						; size = 4
__Al$ = 20						; size = 4
___formal$ = 24						; size = 1
??$_Uninit_copy@Viterator@?$vector@U_AdjData@@V?$allocator@U_AdjData@@@std@@@std@@PAU_AdjData@@V?$allocator@U_AdjData@@@3@@std@@YAPAU_AdjData@@Viterator@?$vector@U_AdjData@@V?$allocator@U_AdjData@@@std@@@0@0PAU1@AAV?$allocator@U_AdjData@@@0@U_Nonscalar_ptr_iterator_tag@0@@Z PROC NEAR ; std::_Uninit_copy<std::vector<_AdjData,std::allocator<_AdjData> >::iterator,_AdjData *,std::allocator<_AdjData> >, COMDAT

; 78   : 	_FwdIt _Next = _Dest;
; 79   : 
; 80   : 	_TRY_BEGIN
; 81   : 	for (; _First != _Last; ++_Dest, ++_First)

  00000	8b 4c 24 04	 mov	 ecx, DWORD PTR __First$[esp-4]
  00004	8b 54 24 08	 mov	 edx, DWORD PTR __Last$[esp-4]
  00008	3b ca		 cmp	 ecx, edx
  0000a	8b 44 24 0c	 mov	 eax, DWORD PTR __Dest$[esp-4]
  0000e	74 1a		 je	 SHORT $L228881
  00010	56		 push	 esi
$L229961:

; 82   : 		_Al.construct(_Dest, *_First);

  00011	85 c0		 test	 eax, eax
  00013	74 0a		 je	 SHORT $L228880
  00015	8b 31		 mov	 esi, DWORD PTR [ecx]
  00017	89 30		 mov	 DWORD PTR [eax], esi
  00019	8b 71 04	 mov	 esi, DWORD PTR [ecx+4]
  0001c	89 70 04	 mov	 DWORD PTR [eax+4], esi
$L228880:
  0001f	83 c1 08	 add	 ecx, 8
  00022	83 c0 08	 add	 eax, 8
  00025	3b ca		 cmp	 ecx, edx
  00027	75 e8		 jne	 SHORT $L229961
  00029	5e		 pop	 esi
$L228881:

; 83   : 	_CATCH_ALL
; 84   : 	for (; _Next != _Dest; ++_Next)
; 85   : 		_Al.destroy(_Next);
; 86   : 	_RERAISE;
; 87   : 	_CATCH_END
; 88   : 	return (_Dest);
; 89   : 	}

  0002a	c3		 ret	 0
??$_Uninit_copy@Viterator@?$vector@U_AdjData@@V?$allocator@U_AdjData@@@std@@@std@@PAU_AdjData@@V?$allocator@U_AdjData@@@3@@std@@YAPAU_AdjData@@Viterator@?$vector@U_AdjData@@V?$allocator@U_AdjData@@@std@@@0@0PAU1@AAV?$allocator@U_AdjData@@@0@U_Nonscalar_ptr_iterator_tag@0@@Z ENDP ; std::_Uninit_copy<std::vector<_AdjData,std::allocator<_AdjData> >::iterator,_AdjData *,std::allocator<_AdjData> >
_TEXT	ENDS
PUBLIC	??_C@_0BI@BEIFNGEL@GetItemProp?5range_error?$AA@ ; `string'
PUBLIC	?GetItemProp@CProject@@QAEPAUItemProp@@H@Z	; CProject::GetItemProp
;	COMDAT ??_C@_0BI@BEIFNGEL@GetItemProp?5range_error?$AA@
; File c:\documents and settings\test\mes documents\source\virtuos_v17\build\program\_common\data.h
CONST	SEGMENT
??_C@_0BI@BEIFNGEL@GetItemProp?5range_error?$AA@ DB 'GetItemProp range_er'
	DB	'ror', 00H					; `string'
; Function compile flags: /Ogty
; File c:\documents and settings\test\mes documents\source\virtuos_v17\build\program\_common\project.h
CONST	ENDS
;	COMDAT ?GetItemProp@CProject@@QAEPAUItemProp@@H@Z
_TEXT	SEGMENT
_nIndex$ = 8						; size = 4
?GetItemProp@CProject@@QAEPAUItemProp@@H@Z PROC NEAR	; CProject::GetItemProp, COMDAT
; _this$ = ecx

; 1364 : 	VERIFY_RANGE_ASSERT( nIndex, 0, m_aPropItem.GetSize(), "GetItemProp range_error", NULL );

  00000	8b 44 24 04	 mov	 eax, DWORD PTR _nIndex$[esp-4]
  00004	85 c0		 test	 eax, eax
  00006	7c 1a		 jl	 SHORT $L197914
  00008	8b 91 5c 02 00
	00		 mov	 edx, DWORD PTR [ecx+604]
  0000e	3b c2		 cmp	 eax, edx
  00010	7d 10		 jge	 SHORT $L197914

; 1365 : 	return m_aPropItem.GetAt( nIndex ); 

  00012	3b c2		 cmp	 eax, edx
  00014	73 28		 jae	 SHORT $L230033
  00016	8b 89 4c 02 00
	00		 mov	 ecx, DWORD PTR [ecx+588]
  0001c	8b 04 81	 mov	 eax, DWORD PTR [ecx+eax*4]

; 1366 : }

  0001f	c2 04 00	 ret	 4
$L197914:

; 1364 : 	VERIFY_RANGE_ASSERT( nIndex, 0, m_aPropItem.GetSize(), "GetItemProp range_error", NULL );

  00022	8b 91 5c 02 00
	00		 mov	 edx, DWORD PTR [ecx+604]
  00028	50		 push	 eax
  00029	52		 push	 edx
  0002a	6a 00		 push	 0
  0002c	68 00 00 00 00	 push	 OFFSET FLAT:??_C@_0BI@BEIFNGEL@GetItemProp?5range_error?$AA@
  00031	68 00 00 00 00	 push	 OFFSET FLAT:??_C@_0BM@HMFGHCP@?$CFs?5min?3?$CFd?0?5max?3?$CFd?0?5index?3?$CFd?$AA@
  00036	e8 00 00 00 00	 call	 ?Error@@YAPBDPBDZZ	; Error
  0003b	83 c4 14	 add	 esp, 20			; 00000014H
$L230033:
  0003e	33 c0		 xor	 eax, eax

; 1366 : }

  00040	c2 04 00	 ret	 4
?GetItemProp@CProject@@QAEPAUItemProp@@H@Z ENDP		; CProject::GetItemProp
_TEXT	ENDS
PUBLIC	?GetPropA@CItemElem@@QAEPAUItemProp@@XZ		; CItemElem::GetPropA
EXTRN	?prj@@3VCProject@@A:BYTE			; prj
; Function compile flags: /Ogty
; File c:\documents and settings\test\mes documents\source\virtuos_v17\build\program\_common\item.h
;	COMDAT ?GetPropA@CItemElem@@QAEPAUItemProp@@XZ
_TEXT	SEGMENT
?GetPropA@CItemElem@@QAEPAUItemProp@@XZ PROC NEAR	; CItemElem::GetPropA, COMDAT
; _this$ = ecx

; 229  : 	ItemProp*	GetProp()	{	return prj.GetItemProp( m_dwItemId );	}

  00000	8b 41 0c	 mov	 eax, DWORD PTR [ecx+12]
  00003	85 c0		 test	 eax, eax
  00005	8b 0d 5c 02 00
	00		 mov	 ecx, DWORD PTR ?prj@@3VCProject@@A+604
  0000b	7c 10		 jl	 SHORT $L230064
  0000d	3b c1		 cmp	 eax, ecx
  0000f	7d 0c		 jge	 SHORT $L230064
  00011	73 20		 jae	 SHORT $L230080
  00013	8b 0d 4c 02 00
	00		 mov	 ecx, DWORD PTR ?prj@@3VCProject@@A+588
  00019	8b 04 81	 mov	 eax, DWORD PTR [ecx+eax*4]
  0001c	c3		 ret	 0
$L230064:
  0001d	50		 push	 eax
  0001e	51		 push	 ecx
  0001f	6a 00		 push	 0
  00021	68 00 00 00 00	 push	 OFFSET FLAT:??_C@_0BI@BEIFNGEL@GetItemProp?5range_error?$AA@
  00026	68 00 00 00 00	 push	 OFFSET FLAT:??_C@_0BM@HMFGHCP@?$CFs?5min?3?$CFd?0?5max?3?$CFd?0?5index?3?$CFd?$AA@
  0002b	e8 00 00 00 00	 call	 ?Error@@YAPBDPBDZZ	; Error
  00030	83 c4 14	 add	 esp, 20			; 00000014H
$L230080:
  00033	33 c0		 xor	 eax, eax
  00035	c3		 ret	 0
?GetPropA@CItemElem@@QAEPAUItemProp@@XZ ENDP		; CItemElem::GetPropA
_TEXT	ENDS
PUBLIC	??0?$_String_val@DV?$allocator@D@std@@@std@@IAE@V?$allocator@D@1@@Z ; std::_String_val<char,std::allocator<char> >::_String_val<char,std::allocator<char> >
; Function compile flags: /Ogty
; File c:\program files\microsoft visual studio .net 2003\vc7\include\xstring
;	COMDAT ??0?$_String_val@DV?$allocator@D@std@@@std@@IAE@V?$allocator@D@1@@Z
_TEXT	SEGMENT
__Al$ = 8						; size = 1
??0?$_String_val@DV?$allocator@D@std@@@std@@IAE@V?$allocator@D@1@@Z PROC NEAR ; std::_String_val<char,std::allocator<char> >::_String_val<char,std::allocator<char> >, COMDAT
; _this$ = ecx

; 34   : 		{	// construct allocator from _Al

  00000	8b c1		 mov	 eax, ecx

; 35   : 		}

  00002	c2 04 00	 ret	 4
??0?$_String_val@DV?$allocator@D@std@@@std@@IAE@V?$allocator@D@1@@Z ENDP ; std::_String_val<char,std::allocator<char> >::_String_val<char,std::allocator<char> >
_TEXT	ENDS
PUBLIC	?_Eos@?$basic_string@DU?$char_traits@D@std@@V?$allocator@D@2@@std@@IAEXI@Z ; std::basic_string<char,std::char_traits<char>,std::allocator<char> >::_Eos
; Function compile flags: /Ogty
;	COMDAT ?_Eos@?$basic_string@DU?$char_traits@D@std@@V?$allocator@D@2@@std@@IAEXI@Z
_TEXT	SEGMENT
__Newsize$ = 8						; size = 4
?_Eos@?$basic_string@DU?$char_traits@D@std@@V?$allocator@D@2@@std@@IAEXI@Z PROC NEAR ; std::basic_string<char,std::char_traits<char>,std::allocator<char> >::_Eos, COMDAT
; _this$ = ecx

; 1475 : 		_Traits::assign(_Myptr()[_Mysize = _Newsize], _Elem());

  00000	83 79 18 10	 cmp	 DWORD PTR [ecx+24], 16	; 00000010H
  00004	8b 44 24 04	 mov	 eax, DWORD PTR __Newsize$[esp-4]
  00008	89 41 14	 mov	 DWORD PTR [ecx+20], eax
  0000b	72 0a		 jb	 SHORT $L230096
  0000d	8b 49 04	 mov	 ecx, DWORD PTR [ecx+4]
  00010	c6 04 01 00	 mov	 BYTE PTR [ecx+eax], 0

; 1476 : 		}

  00014	c2 04 00	 ret	 4

; 1475 : 		_Traits::assign(_Myptr()[_Mysize = _Newsize], _Elem());

$L230096:
  00017	c6 44 01 04 00	 mov	 BYTE PTR [ecx+eax+4], 0

; 1476 : 		}

  0001c	c2 04 00	 ret	 4
?_Eos@?$basic_string@DU?$char_traits@D@std@@V?$allocator@D@2@@std@@IAEXI@Z ENDP ; std::basic_string<char,std::char_traits<char>,std::allocator<char> >::_Eos
_TEXT	ENDS
PUBLIC	?max_size@?$basic_string@DU?$char_traits@D@std@@V?$allocator@D@2@@std@@QBEIXZ ; std::basic_string<char,std::char_traits<char>,std::allocator<char> >::max_size
; Function compile flags: /Ogty
;	COMDAT ?max_size@?$basic_string@DU?$char_traits@D@std@@V?$allocator@D@2@@std@@QBEIXZ
_TEXT	SEGMENT
?max_size@?$basic_string@DU?$char_traits@D@std@@V?$allocator@D@2@@std@@QBEIXZ PROC NEAR ; std::basic_string<char,std::char_traits<char>,std::allocator<char> >::max_size, COMDAT
; _this$ = ecx

; 1114 : 		size_type _Num = _Mybase::_Alval.max_size();
; 1115 : 		return (_Num <= 1 ? 1 : _Num - 1);

  00000	b8 fe ff ff ff	 mov	 eax, -2			; fffffffeH

; 1116 : 		}

  00005	c3		 ret	 0
?max_size@?$basic_string@DU?$char_traits@D@std@@V?$allocator@D@2@@std@@QBEIXZ ENDP ; std::basic_string<char,std::char_traits<char>,std::allocator<char> >::max_size
_TEXT	ENDS
PUBLIC	?allocate@?$allocator@D@std@@QAEPADI@Z		; std::allocator<char>::allocate
; Function compile flags: /Ogty
; File c:\program files\microsoft visual studio .net 2003\vc7\include\xmemory
;	COMDAT ?allocate@?$allocator@D@std@@QAEPADI@Z
_TEXT	SEGMENT
__Count$ = 8						; size = 4
?allocate@?$allocator@D@std@@QAEPADI@Z PROC NEAR	; std::allocator<char>::allocate, COMDAT
; _this$ = ecx

; 137  : 		return (_Allocate(_Count, (pointer)0));

  00000	8b 44 24 04	 mov	 eax, DWORD PTR __Count$[esp-4]
  00004	50		 push	 eax
  00005	e8 00 00 00 00	 call	 ??2@YAPAXI@Z		; operator new
  0000a	83 c4 04	 add	 esp, 4

; 138  : 		}

  0000d	c2 04 00	 ret	 4
?allocate@?$allocator@D@std@@QAEPADI@Z ENDP		; std::allocator<char>::allocate
_TEXT	ENDS
PUBLIC	?SetParam@CRandomOptionProperty@@QAEXPA_JHH@Z	; CRandomOptionProperty::SetParam
EXTRN	__allshl:NEAR
; Function compile flags: /Ogty
; File c:\documents and settings\test\mes documents\source\virtuos_v17\build\program\_common\randomoption.cpp
;	COMDAT ?SetParam@CRandomOptionProperty@@QAEXPA_JHH@Z
_TEXT	SEGMENT
_pnRandomOptItemId$ = 8					; size = 4
_nDst$ = 12						; size = 4
_nAdj$ = 16						; size = 4
?SetParam@CRandomOptionProperty@@QAEXPA_JHH@Z PROC NEAR	; CRandomOptionProperty::SetParam, COMDAT
; _this$ = ecx

; 85   : {

  00000	53		 push	 ebx

; 86   : 	int nSize	= GetRandomOptionSize( *pnRandomOptItemId );

  00001	8b 5c 24 08	 mov	 ebx, DWORD PTR _pnRandomOptItemId$[esp]
  00005	8b 43 04	 mov	 eax, DWORD PTR [ebx+4]
  00008	55		 push	 ebp
  00009	8b 2b		 mov	 ebp, DWORD PTR [ebx]
  0000b	56		 push	 esi
  0000c	57		 push	 edi
  0000d	50		 push	 eax
  0000e	55		 push	 ebp
  0000f	e8 00 00 00 00	 call	 ?GetRandomOptionSize@CRandomOptionProperty@@QAEH_J@Z ; CRandomOptionProperty::GetRandomOptionSize
  00014	8b c8		 mov	 ecx, eax

; 87   : 	ASSERT( nSize < MAX_RANDOM_OPTION );
; 88   : 
; 89   : 	__int64 nRandomOptionItemId		= nDst;
; 90   : 	nRandomOptionItemId		= nRandomOptionItemId << 10;		// 2 | 8 | 10 | 8 | 10 | 8 | 10 | 8

  00016	8b 44 24 18	 mov	 eax, DWORD PTR _nDst$[esp+12]
  0001a	99		 cdq
  0001b	8b f0		 mov	 esi, eax

; 91   : 	//	2 : 
; 92   : 
; 93   : 	//	1 :
; 94   : 	//	7 :
; 95   : 	//	10 :
; 96   : 
; 97   : 	//	8 :
; 98   : 
; 99   : 	if( nAdj < 0 )

  0001d	8b 44 24 1c	 mov	 eax, DWORD PTR _nAdj$[esp+12]
  00021	8b fa		 mov	 edi, edx
  00023	0f a4 f7 0a	 shld	 edi, esi, 10
  00027	c1 e6 0a	 shl	 esi, 10			; 0000000aH
  0002a	85 c0		 test	 eax, eax
  0002c	7d 07		 jge	 SHORT $L226436

; 100  : 	{
; 101  : 		nRandomOptionItemId	|= 0x0200;	//     1
; 102  : 		nRandomOptionItemId	= nRandomOptionItemId | ( -nAdj );

  0002e	f7 d8		 neg	 eax

; 103  : 	}
; 104  : 	else
; 105  : 		nRandomOptionItemId	= nRandomOptionItemId | nAdj;
; 106  : 
; 107  : 	nRandomOptionItemId	= nRandomOptionItemId << ( 8 + 18 * nSize );	//   
; 108  : 	*pnRandomOptItemId	|= nRandomOptionItemId;		//   

  00030	0d 00 02 00 00	 or	 eax, 512		; 00000200H
$L226436:
  00035	99		 cdq
  00036	0b f0		 or	 esi, eax
  00038	0b fa		 or	 edi, edx
  0003a	8d 0c c9	 lea	 ecx, DWORD PTR [ecx+ecx*8]
  0003d	8d 4c 09 08	 lea	 ecx, DWORD PTR [ecx+ecx+8]
  00041	8b c6		 mov	 eax, esi
  00043	8b d7		 mov	 edx, edi
  00045	e8 00 00 00 00	 call	 __allshl
  0004a	8b 4b 04	 mov	 ecx, DWORD PTR [ebx+4]
  0004d	5f		 pop	 edi
  0004e	5e		 pop	 esi
  0004f	0b c5		 or	 eax, ebp
  00051	0b d1		 or	 edx, ecx
  00053	5d		 pop	 ebp
  00054	89 03		 mov	 DWORD PTR [ebx], eax
  00056	89 53 04	 mov	 DWORD PTR [ebx+4], edx
  00059	5b		 pop	 ebx

; 109  : }

  0005a	c2 0c 00	 ret	 12			; 0000000cH
?SetParam@CRandomOptionProperty@@QAEXPA_JHH@Z ENDP	; CRandomOptionProperty::SetParam
_TEXT	ENDS
PUBLIC	?GetRandomOptionKind@CRandomOptionProperty@@QAEHPAVCItemElem@@@Z ; CRandomOptionProperty::GetRandomOptionKind
; Function compile flags: /Ogty
;	COMDAT ?GetRandomOptionKind@CRandomOptionProperty@@QAEHPAVCItemElem@@@Z
_TEXT	SEGMENT
_pItemElem$ = 8						; size = 4
?GetRandomOptionKind@CRandomOptionProperty@@QAEHPAVCItemElem@@@Z PROC NEAR ; CRandomOptionProperty::GetRandomOptionKind, COMDAT
; _this$ = ecx

; 113  : 	ItemProp* pProp		= pItemElem->GetProp();

  00000	8b 0d 5c 02 00
	00		 mov	 ecx, DWORD PTR ?prj@@3VCProject@@A+604
  00006	56		 push	 esi
  00007	8b 74 24 08	 mov	 esi, DWORD PTR _pItemElem$[esp]
  0000b	8b 46 0c	 mov	 eax, DWORD PTR [esi+12]
  0000e	85 c0		 test	 eax, eax
  00010	7c 11		 jl	 SHORT $L230177
  00012	3b c1		 cmp	 eax, ecx
  00014	7d 0d		 jge	 SHORT $L230177
  00016	73 21		 jae	 SHORT $L230197
  00018	8b 0d 4c 02 00
	00		 mov	 ecx, DWORD PTR ?prj@@3VCProject@@A+588
  0001e	8b 04 81	 mov	 eax, DWORD PTR [ecx+eax*4]
  00021	eb 18		 jmp	 SHORT $L230172
$L230177:
  00023	50		 push	 eax
  00024	51		 push	 ecx
  00025	6a 00		 push	 0
  00027	68 00 00 00 00	 push	 OFFSET FLAT:??_C@_0BI@BEIFNGEL@GetItemProp?5range_error?$AA@
  0002c	68 00 00 00 00	 push	 OFFSET FLAT:??_C@_0BM@HMFGHCP@?$CFs?5min?3?$CFd?0?5max?3?$CFd?0?5index?3?$CFd?$AA@
  00031	e8 00 00 00 00	 call	 ?Error@@YAPBDPBDZZ	; Error
  00036	83 c4 14	 add	 esp, 20			; 00000014H
$L230197:
  00039	33 c0		 xor	 eax, eax
$L230172:

; 114  : 	switch( pProp->dwParts )

  0003b	8b 88 a8 00 00
	00		 mov	 ecx, DWORD PTR [eax+168]
  00041	83 c1 fe	 add	 ecx, -2			; fffffffeH
  00044	83 f9 1b	 cmp	 ecx, 27			; 0000001bH
  00047	77 1d		 ja	 SHORT $L226451
  00049	0f b6 91 00 00
	00 00		 movzx	 edx, BYTE PTR $L230196[ecx]
  00050	ff 24 95 00 00
	00 00		 jmp	 DWORD PTR $L230198[edx*4]
$L226447:

; 115  : 	{
; 116  : 		case PARTS_UPPER_BODY:
; 117  : 		case PARTS_RWEAPON:
; 118  : 		case PARTS_SHIELD:
; 119  : #if __VER >= 12 // __J12_0
; 120  : 		//    
; 121  : 		case PARTS_HAND:	// 
; 122  : 		case PARTS_FOOT:	// 
; 123  : 		case PARTS_CAP:		// 
; 124  : #endif	// __J12_0
; 125  : 			{
; 126  : 					return static_cast<int>( eAwakening );

  00057	33 c0		 xor	 eax, eax
  00059	5e		 pop	 esi

; 144  : 					return static_cast<int>( eEatPet );
; 145  : 
; 146  : 				break;
; 147  : 			}
; 148  : #endif	// __PET_0519
; 149  : 	}
; 150  : 	return -1;
; 151  : }

  0005a	c2 04 00	 ret	 4
$L226449:

; 127  : 			}
; 128  : 		case PARTS_CLOTH:
; 129  : 		case PARTS_CLOAK:
; 130  : #if __VER >= 12 // __J12_0
; 131  : 		case PARTS_HAT:		//  
; 132  : 		case PARTS_GLOVE:	//  
; 133  : 		case PARTS_BOOTS:	//  
; 134  : #endif	// __J12_0
; 135  : 			return static_cast<int>( eBlessing );

  0005d	b8 01 00 00 00	 mov	 eax, 1
  00062	5e		 pop	 esi

; 144  : 					return static_cast<int>( eEatPet );
; 145  : 
; 146  : 				break;
; 147  : 			}
; 148  : #endif	// __PET_0519
; 149  : 	}
; 150  : 	return -1;
; 151  : }

  00063	c2 04 00	 ret	 4
$L226451:

; 136  : #if __VER >= 12 // __PET_0519
; 137  : 		default:
; 138  : 			{
; 139  : 				// C   ?
; 140  : 				if( pProp->dwItemKind3 == IK3_EGG && pItemElem->m_pPet && pItemElem->m_pPet->GetLevel() >= PL_C )

  00066	8b 40 78	 mov	 eax, DWORD PTR [eax+120]
  00069	83 f8 78	 cmp	 eax, 120		; 00000078H
  0006c	75 19		 jne	 SHORT $L226452
  0006e	8b 8e a8 00 00
	00		 mov	 ecx, DWORD PTR [esi+168]
  00074	85 c9		 test	 ecx, ecx
  00076	74 0f		 je	 SHORT $L226452
  00078	80 79 05 02	 cmp	 BYTE PTR [ecx+5], 2
  0007c	72 09		 jb	 SHORT $L226452

; 141  : 					return static_cast<int>( eSystemPet );

  0007e	b8 02 00 00 00	 mov	 eax, 2
  00083	5e		 pop	 esi

; 144  : 					return static_cast<int>( eEatPet );
; 145  : 
; 146  : 				break;
; 147  : 			}
; 148  : #endif	// __PET_0519
; 149  : 	}
; 150  : 	return -1;
; 151  : }

  00084	c2 04 00	 ret	 4
$L226452:

; 142  : 				// ?
; 143  : 				else if( pProp->dwItemKind3 == IK3_PET )

  00087	33 c9		 xor	 ecx, ecx
  00089	83 f8 64	 cmp	 eax, 100		; 00000064H
  0008c	0f 94 c1	 sete	 cl
  0008f	5e		 pop	 esi
  00090	8d 0c 8d ff ff
	ff ff		 lea	 ecx, DWORD PTR [ecx*4-1]
  00097	8b c1		 mov	 eax, ecx

; 144  : 					return static_cast<int>( eEatPet );
; 145  : 
; 146  : 				break;
; 147  : 			}
; 148  : #endif	// __PET_0519
; 149  : 	}
; 150  : 	return -1;
; 151  : }

  00099	c2 04 00	 ret	 4
$L230198:
  0009c	00 00 00 00	 DD	 $L226447
  000a0	00 00 00 00	 DD	 $L226449
  000a4	00 00 00 00	 DD	 $L226451
$L230196:
  000a8	00		 DB	 0
  000a9	02		 DB	 2
  000aa	00		 DB	 0
  000ab	00		 DB	 0
  000ac	00		 DB	 0
  000ad	02		 DB	 2
  000ae	01		 DB	 1
  000af	02		 DB	 2
  000b0	00		 DB	 0
  000b1	00		 DB	 0
  000b2	02		 DB	 2
  000b3	02		 DB	 2
  000b4	02		 DB	 2
  000b5	02		 DB	 2
  000b6	02		 DB	 2
  000b7	02		 DB	 2
  000b8	02		 DB	 2
  000b9	02		 DB	 2
  000ba	02		 DB	 2
  000bb	02		 DB	 2
  000bc	02		 DB	 2
  000bd	02		 DB	 2
  000be	02		 DB	 2
  000bf	02		 DB	 2
  000c0	01		 DB	 1
  000c1	01		 DB	 1
  000c2	01		 DB	 1
  000c3	01		 DB	 1
?GetRandomOptionKind@CRandomOptionProperty@@QAEHPAVCItemElem@@@Z ENDP ; CRandomOptionProperty::GetRandomOptionKind
_TEXT	ENDS
PUBLIC	??8ATL@@YA_NABV?$CStringT@DV?$StrTraitMFC@DV?$ChTraitsCRT@D@ATL@@@@@0@PBD@Z ; ATL::operator==
; Function compile flags: /Ogty
; File c:\program files\microsoft visual studio .net 2003\vc7\atlmfc\include\cstringt.h
;	COMDAT ??8ATL@@YA_NABV?$CStringT@DV?$StrTraitMFC@DV?$ChTraitsCRT@D@ATL@@@@@0@PBD@Z
_TEXT	SEGMENT
_str1$ = 8						; size = 4
_psz2$ = 12						; size = 4
??8ATL@@YA_NABV?$CStringT@DV?$StrTraitMFC@DV?$ChTraitsCRT@D@ATL@@@@@0@PBD@Z PROC NEAR ; ATL::operator==, COMDAT

; 2088 : 		return( str1.Compare( psz2 ) == 0 );

  00000	8b 4c 24 08	 mov	 ecx, DWORD PTR _psz2$[esp-4]
  00004	8b 44 24 04	 mov	 eax, DWORD PTR _str1$[esp-4]
  00008	8b 00		 mov	 eax, DWORD PTR [eax]
  0000a	51		 push	 ecx
  0000b	50		 push	 eax
  0000c	e8 00 00 00 00	 call	 __mbscmp
  00011	83 c4 08	 add	 esp, 8
  00014	f7 d8		 neg	 eax
  00016	1b c0		 sbb	 eax, eax
  00018	40		 inc	 eax

; 2089 : 	}

  00019	c3		 ret	 0
??8ATL@@YA_NABV?$CStringT@DV?$StrTraitMFC@DV?$ChTraitsCRT@D@ATL@@@@@0@PBD@Z ENDP ; ATL::operator==
_TEXT	ENDS
PUBLIC	?begin@?$vector@U_AdjData@@V?$allocator@U_AdjData@@@std@@@std@@QAE?AViterator@12@XZ ; std::vector<_AdjData,std::allocator<_AdjData> >::begin
; Function compile flags: /Ogty
; File c:\program files\microsoft visual studio .net 2003\vc7\include\vector
;	COMDAT ?begin@?$vector@U_AdjData@@V?$allocator@U_AdjData@@@std@@@std@@QAE?AViterator@12@XZ
_TEXT	SEGMENT
___$ReturnUdt$ = 8					; size = 4
?begin@?$vector@U_AdjData@@V?$allocator@U_AdjData@@@std@@@std@@QAE?AViterator@12@XZ PROC NEAR ; std::vector<_AdjData,std::allocator<_AdjData> >::begin, COMDAT
; _this$ = ecx

; 463  : 		return (iterator(_Myfirst));

  00000	8b 49 04	 mov	 ecx, DWORD PTR [ecx+4]
  00003	8b 44 24 04	 mov	 eax, DWORD PTR ___$ReturnUdt$[esp-4]
  00007	89 08		 mov	 DWORD PTR [eax], ecx

; 464  : 		}

  00009	c2 04 00	 ret	 4
?begin@?$vector@U_AdjData@@V?$allocator@U_AdjData@@@std@@@std@@QAE?AViterator@12@XZ ENDP ; std::vector<_AdjData,std::allocator<_AdjData> >::begin
_TEXT	ENDS
PUBLIC	?end@?$vector@U_AdjData@@V?$allocator@U_AdjData@@@std@@@std@@QAE?AViterator@12@XZ ; std::vector<_AdjData,std::allocator<_AdjData> >::end
; Function compile flags: /Ogty
;	COMDAT ?end@?$vector@U_AdjData@@V?$allocator@U_AdjData@@@std@@@std@@QAE?AViterator@12@XZ
_TEXT	SEGMENT
___$ReturnUdt$ = 8					; size = 4
?end@?$vector@U_AdjData@@V?$allocator@U_AdjData@@@std@@@std@@QAE?AViterator@12@XZ PROC NEAR ; std::vector<_AdjData,std::allocator<_AdjData> >::end, COMDAT
; _this$ = ecx

; 473  : 		return (iterator(_Mylast));

  00000	8b 49 08	 mov	 ecx, DWORD PTR [ecx+8]
  00003	8b 44 24 04	 mov	 eax, DWORD PTR ___$ReturnUdt$[esp-4]
  00007	89 08		 mov	 DWORD PTR [eax], ecx

; 474  : 		}

  00009	c2 04 00	 ret	 4
?end@?$vector@U_AdjData@@V?$allocator@U_AdjData@@@std@@@std@@QAE?AViterator@12@XZ ENDP ; std::vector<_AdjData,std::allocator<_AdjData> >::end
_TEXT	ENDS
PUBLIC	??A?$vector@U_AdjData@@V?$allocator@U_AdjData@@@std@@@std@@QAEAAU_AdjData@@I@Z ; std::vector<_AdjData,std::allocator<_AdjData> >::operator[]
; Function compile flags: /Ogty
;	COMDAT ??A?$vector@U_AdjData@@V?$allocator@U_AdjData@@@std@@@std@@QAEAAU_AdjData@@I@Z
_TEXT	SEGMENT
__Pos$ = 8						; size = 4
??A?$vector@U_AdjData@@V?$allocator@U_AdjData@@@std@@@std@@QAEAAU_AdjData@@I@Z PROC NEAR ; std::vector<_AdjData,std::allocator<_AdjData> >::operator[], COMDAT
; _this$ = ecx

; 555  : 		return (*(begin() + _Pos));

  00000	8b 41 04	 mov	 eax, DWORD PTR [ecx+4]
  00003	8b 4c 24 04	 mov	 ecx, DWORD PTR __Pos$[esp-4]
  00007	8d 04 c8	 lea	 eax, DWORD PTR [eax+ecx*8]

; 556  : 		}

  0000a	c2 04 00	 ret	 4
??A?$vector@U_AdjData@@V?$allocator@U_AdjData@@@std@@@std@@QAEAAU_AdjData@@I@Z ENDP ; std::vector<_AdjData,std::allocator<_AdjData> >::operator[]
_TEXT	ENDS
PUBLIC	?begin@?$vector@U_RANDOM_OPTION@@V?$allocator@U_RANDOM_OPTION@@@std@@@std@@QAE?AViterator@12@XZ ; std::vector<_RANDOM_OPTION,std::allocator<_RANDOM_OPTION> >::begin
; Function compile flags: /Ogty
;	COMDAT ?begin@?$vector@U_RANDOM_OPTION@@V?$allocator@U_RANDOM_OPTION@@@std@@@std@@QAE?AViterator@12@XZ
_TEXT	SEGMENT
___$ReturnUdt$ = 8					; size = 4
?begin@?$vector@U_RANDOM_OPTION@@V?$allocator@U_RANDOM_OPTION@@@std@@@std@@QAE?AViterator@12@XZ PROC NEAR ; std::vector<_RANDOM_OPTION,std::allocator<_RANDOM_OPTION> >::begin, COMDAT
; _this$ = ecx

; 463  : 		return (iterator(_Myfirst));

  00000	8b 49 04	 mov	 ecx, DWORD PTR [ecx+4]
  00003	8b 44 24 04	 mov	 eax, DWORD PTR ___$ReturnUdt$[esp-4]
  00007	89 08		 mov	 DWORD PTR [eax], ecx

; 464  : 		}

  00009	c2 04 00	 ret	 4
?begin@?$vector@U_RANDOM_OPTION@@V?$allocator@U_RANDOM_OPTION@@@std@@@std@@QAE?AViterator@12@XZ ENDP ; std::vector<_RANDOM_OPTION,std::allocator<_RANDOM_OPTION> >::begin
_TEXT	ENDS
PUBLIC	?end@?$vector@U_RANDOM_OPTION@@V?$allocator@U_RANDOM_OPTION@@@std@@@std@@QAE?AViterator@12@XZ ; std::vector<_RANDOM_OPTION,std::allocator<_RANDOM_OPTION> >::end
; Function compile flags: /Ogty
;	COMDAT ?end@?$vector@U_RANDOM_OPTION@@V?$allocator@U_RANDOM_OPTION@@@std@@@std@@QAE?AViterator@12@XZ
_TEXT	SEGMENT
___$ReturnUdt$ = 8					; size = 4
?end@?$vector@U_RANDOM_OPTION@@V?$allocator@U_RANDOM_OPTION@@@std@@@std@@QAE?AViterator@12@XZ PROC NEAR ; std::vector<_RANDOM_OPTION,std::allocator<_RANDOM_OPTION> >::end, COMDAT
; _this$ = ecx

; 473  : 		return (iterator(_Mylast));

  00000	8b 49 08	 mov	 ecx, DWORD PTR [ecx+8]
  00003	8b 44 24 04	 mov	 eax, DWORD PTR ___$ReturnUdt$[esp-4]
  00007	89 08		 mov	 DWORD PTR [eax], ecx

; 474  : 		}

  00009	c2 04 00	 ret	 4
?end@?$vector@U_RANDOM_OPTION@@V?$allocator@U_RANDOM_OPTION@@@std@@@std@@QAE?AViterator@12@XZ ENDP ; std::vector<_RANDOM_OPTION,std::allocator<_RANDOM_OPTION> >::end
_TEXT	ENDS
PUBLIC	??$_Uninit_fill_n@PAU_AdjData@@IU1@V?$allocator@U_AdjData@@@std@@@std@@YAXPAU_AdjData@@IABU1@AAV?$allocator@U_AdjData@@@0@U_Nonscalar_ptr_iterator_tag@0@@Z ; std::_Uninit_fill_n<_AdjData *,unsigned int,_AdjData,std::allocator<_AdjData> >
; Function compile flags: /Ogty
; File c:\program files\microsoft visual studio .net 2003\vc7\include\memory
;	COMDAT ??$_Uninit_fill_n@PAU_AdjData@@IU1@V?$allocator@U_AdjData@@@std@@@std@@YAXPAU_AdjData@@IABU1@AAV?$allocator@U_AdjData@@@0@U_Nonscalar_ptr_iterator_tag@0@@Z
_TEXT	SEGMENT
__First$ = 8						; size = 4
__Count$ = 12						; size = 4
__Val$ = 16						; size = 4
__Al$ = 20						; size = 4
___formal$ = 24						; size = 1
??$_Uninit_fill_n@PAU_AdjData@@IU1@V?$allocator@U_AdjData@@@std@@@std@@YAXPAU_AdjData@@IABU1@AAV?$allocator@U_AdjData@@@0@U_Nonscalar_ptr_iterator_tag@0@@Z PROC NEAR ; std::_Uninit_fill_n<_AdjData *,unsigned int,_AdjData,std::allocator<_AdjData> >, COMDAT

; 208  : 	_FwdIt _Next = _First;
; 209  : 
; 210  : 	_TRY_BEGIN
; 211  : 	for (; 0 < _Count; --_Count, ++_First)

  00000	8b 44 24 08	 mov	 eax, DWORD PTR __Count$[esp-4]
  00004	85 c0		 test	 eax, eax
  00006	76 20		 jbe	 SHORT $L228093
  00008	8b 4c 24 0c	 mov	 ecx, DWORD PTR __Val$[esp-4]
  0000c	8b d0		 mov	 edx, eax
  0000e	8b 44 24 04	 mov	 eax, DWORD PTR __First$[esp-4]
  00012	56		 push	 esi
$L228091:

; 212  : 		_Al.construct(_First, _Val);

  00013	85 c0		 test	 eax, eax
  00015	74 0a		 je	 SHORT $L228092
  00017	8b 31		 mov	 esi, DWORD PTR [ecx]
  00019	89 30		 mov	 DWORD PTR [eax], esi
  0001b	8b 71 04	 mov	 esi, DWORD PTR [ecx+4]
  0001e	89 70 04	 mov	 DWORD PTR [eax+4], esi
$L228092:
  00021	83 c0 08	 add	 eax, 8
  00024	4a		 dec	 edx
  00025	75 ec		 jne	 SHORT $L228091
  00027	5e		 pop	 esi
$L228093:

; 213  : 	_CATCH_ALL
; 214  : 	for (; _Next != _First; ++_Next)
; 215  : 		_Al.destroy(_Next);
; 216  : 	_RERAISE;
; 217  : 	_CATCH_END
; 218  : 	}

  00028	c3		 ret	 0
??$_Uninit_fill_n@PAU_AdjData@@IU1@V?$allocator@U_AdjData@@@std@@@std@@YAXPAU_AdjData@@IABU1@AAV?$allocator@U_AdjData@@@0@U_Nonscalar_ptr_iterator_tag@0@@Z ENDP ; std::_Uninit_fill_n<_AdjData *,unsigned int,_AdjData,std::allocator<_AdjData> >
_TEXT	ENDS
PUBLIC	??$_Destroy_range@U_AdjData@@V?$allocator@U_AdjData@@@std@@@std@@YAXPAU_AdjData@@0AAV?$allocator@U_AdjData@@@0@U_Nonscalar_ptr_iterator_tag@0@@Z ; std::_Destroy_range<_AdjData,std::allocator<_AdjData> >
; Function compile flags: /Ogty
; File c:\program files\microsoft visual studio .net 2003\vc7\include\xmemory
;	COMDAT ??$_Destroy_range@U_AdjData@@V?$allocator@U_AdjData@@@std@@@std@@YAXPAU_AdjData@@0AAV?$allocator@U_AdjData@@@0@U_Nonscalar_ptr_iterator_tag@0@@Z
_TEXT	SEGMENT
__First$ = 8						; size = 4
__Last$ = 12						; size = 4
__Al$ = 16						; size = 4
___formal$ = 20						; size = 1
??$_Destroy_range@U_AdjData@@V?$allocator@U_AdjData@@@std@@@std@@YAXPAU_AdjData@@0AAV?$allocator@U_AdjData@@@0@U_Nonscalar_ptr_iterator_tag@0@@Z PROC NEAR ; std::_Destroy_range<_AdjData,std::allocator<_AdjData> >, COMDAT

; 225  : 	for (; _First != _Last; ++_First)
; 226  : 		_Al.destroy(_First);
; 227  : 	}

  00000	c3		 ret	 0
??$_Destroy_range@U_AdjData@@V?$allocator@U_AdjData@@@std@@@std@@YAXPAU_AdjData@@0AAV?$allocator@U_AdjData@@@0@U_Nonscalar_ptr_iterator_tag@0@@Z ENDP ; std::_Destroy_range<_AdjData,std::allocator<_AdjData> >
_TEXT	ENDS
PUBLIC	??$_Uninitialized_copy@PAU_AdjData@@PAU1@V?$allocator@U_AdjData@@@std@@@std@@YAPAU_AdjData@@PAU1@00AAV?$allocator@U_AdjData@@@0@@Z ; std::_Uninitialized_copy<_AdjData *,_AdjData *,std::allocator<_AdjData> >
; Function compile flags: /Ogty
; File c:\program files\microsoft visual studio .net 2003\vc7\include\memory
;	COMDAT ??$_Uninitialized_copy@PAU_AdjData@@PAU1@V?$allocator@U_AdjData@@@std@@@std@@YAPAU_AdjData@@PAU1@00AAV?$allocator@U_AdjData@@@0@@Z
_TEXT	SEGMENT
__Cat$230346 = -4					; size = 1
__First$ = 8						; size = 4
__Last$ = 12						; size = 4
__Dest$ = 16						; size = 4
__Al$ = 20						; size = 4
??$_Uninitialized_copy@PAU_AdjData@@PAU1@V?$allocator@U_AdjData@@@std@@@std@@YAPAU_AdjData@@PAU1@00AAV?$allocator@U_AdjData@@@0@@Z PROC NEAR ; std::_Uninitialized_copy<_AdjData *,_AdjData *,std::allocator<_AdjData> >, COMDAT

; 126  : 	{	// copy [_First, _Last) to raw _Dest, using _Al

  00000	51		 push	 ecx

; 127  : 	return (_Uninit_copy(_First, _Last, _Dest, _Al,
; 128  : 		_Ptr_cat(_First, _Dest)));

  00001	8b 04 24	 mov	 eax, DWORD PTR __Cat$230346[esp+4]
  00004	8b 4c 24 14	 mov	 ecx, DWORD PTR __Al$[esp]
  00008	8b 54 24 10	 mov	 edx, DWORD PTR __Dest$[esp]
  0000c	50		 push	 eax
  0000d	8b 44 24 10	 mov	 eax, DWORD PTR __Last$[esp+4]
  00011	51		 push	 ecx
  00012	8b 4c 24 10	 mov	 ecx, DWORD PTR __First$[esp+8]
  00016	52		 push	 edx
  00017	50		 push	 eax
  00018	51		 push	 ecx
  00019	e8 00 00 00 00	 call	 ??$_Uninit_copy@PAU_AdjData@@PAU1@V?$allocator@U_AdjData@@@std@@@std@@YAPAU_AdjData@@PAU1@00AAV?$allocator@U_AdjData@@@0@U_Nonscalar_ptr_iterator_tag@0@@Z ; std::_Uninit_copy<_AdjData *,_AdjData *,std::allocator<_AdjData> >

; 129  : 	}

  0001e	83 c4 18	 add	 esp, 24			; 00000018H
  00021	c3		 ret	 0
??$_Uninitialized_copy@PAU_AdjData@@PAU1@V?$allocator@U_AdjData@@@std@@@std@@YAPAU_AdjData@@PAU1@00AAV?$allocator@U_AdjData@@@0@@Z ENDP ; std::_Uninitialized_copy<_AdjData *,_AdjData *,std::allocator<_AdjData> >
_TEXT	ENDS
PUBLIC	??$_Uninitialized_copy@Vconst_iterator@?$vector@U_AdjData@@V?$allocator@U_AdjData@@@std@@@std@@PAU_AdjData@@V?$allocator@U_AdjData@@@3@@std@@YAPAU_AdjData@@Vconst_iterator@?$vector@U_AdjData@@V?$allocator@U_AdjData@@@std@@@0@0PAU1@AAV?$allocator@U_AdjData@@@0@@Z ; std::_Uninitialized_copy<std::vector<_AdjData,std::allocator<_AdjData> >::const_iterator,_AdjData *,std::allocator<_AdjData> >
; Function compile flags: /Ogty
;	COMDAT ??$_Uninitialized_copy@Vconst_iterator@?$vector@U_AdjData@@V?$allocator@U_AdjData@@@std@@@std@@PAU_AdjData@@V?$allocator@U_AdjData@@@3@@std@@YAPAU_AdjData@@Vconst_iterator@?$vector@U_AdjData@@V?$allocator@U_AdjData@@@std@@@0@0PAU1@AAV?$allocator@U_AdjData@@@0@@Z
_TEXT	SEGMENT
__Cat$230354 = -4					; size = 1
__First$ = 8						; size = 4
__Last$ = 12						; size = 4
__Dest$ = 16						; size = 4
__Al$ = 20						; size = 4
??$_Uninitialized_copy@Vconst_iterator@?$vector@U_AdjData@@V?$allocator@U_AdjData@@@std@@@std@@PAU_AdjData@@V?$allocator@U_AdjData@@@3@@std@@YAPAU_AdjData@@Vconst_iterator@?$vector@U_AdjData@@V?$allocator@U_AdjData@@@std@@@0@0PAU1@AAV?$allocator@U_AdjData@@@0@@Z PROC NEAR ; std::_Uninitialized_copy<std::vector<_AdjData,std::allocator<_AdjData> >::const_iterator,_AdjData *,std::allocator<_AdjData> >, COMDAT

; 126  : 	{	// copy [_First, _Last) to raw _Dest, using _Al

  00000	51		 push	 ecx

; 127  : 	return (_Uninit_copy(_First, _Last, _Dest, _Al,
; 128  : 		_Ptr_cat(_First, _Dest)));

  00001	8b 04 24	 mov	 eax, DWORD PTR __Cat$230354[esp+4]
  00004	8b 4c 24 14	 mov	 ecx, DWORD PTR __Al$[esp]
  00008	8b 54 24 10	 mov	 edx, DWORD PTR __Dest$[esp]
  0000c	50		 push	 eax
  0000d	8b 44 24 10	 mov	 eax, DWORD PTR __Last$[esp+4]
  00011	51		 push	 ecx
  00012	8b 4c 24 10	 mov	 ecx, DWORD PTR __First$[esp+8]
  00016	52		 push	 edx
  00017	50		 push	 eax
  00018	51		 push	 ecx
  00019	e8 00 00 00 00	 call	 ??$_Uninit_copy@Vconst_iterator@?$vector@U_AdjData@@V?$allocator@U_AdjData@@@std@@@std@@PAU_AdjData@@V?$allocator@U_AdjData@@@3@@std@@YAPAU_AdjData@@Vconst_iterator@?$vector@U_AdjData@@V?$allocator@U_AdjData@@@std@@@0@0PAU1@AAV?$allocator@U_AdjData@@@0@U_Nonscalar_ptr_iterator_tag@0@@Z ; std::_Uninit_copy<std::vector<_AdjData,std::allocator<_AdjData> >::const_iterator,_AdjData *,std::allocator<_AdjData> >

; 129  : 	}

  0001e	83 c4 18	 add	 esp, 24			; 00000018H
  00021	c3		 ret	 0
??$_Uninitialized_copy@Vconst_iterator@?$vector@U_AdjData@@V?$allocator@U_AdjData@@@std@@@std@@PAU_AdjData@@V?$allocator@U_AdjData@@@3@@std@@YAPAU_AdjData@@Vconst_iterator@?$vector@U_AdjData@@V?$allocator@U_AdjData@@@std@@@0@0PAU1@AAV?$allocator@U_AdjData@@@0@@Z ENDP ; std::_Uninitialized_copy<std::vector<_AdjData,std::allocator<_AdjData> >::const_iterator,_AdjData *,std::allocator<_AdjData> >
_TEXT	ENDS
PUBLIC	??$_Distance@Viterator@?$vector@U_AdjData@@V?$allocator@U_AdjData@@@std@@@std@@I@std@@YAXViterator@?$vector@U_AdjData@@V?$allocator@U_AdjData@@@std@@@0@0AAI@Z ; std::_Distance<std::vector<_AdjData,std::allocator<_AdjData> >::iterator,unsigned int>
; Function compile flags: /Ogty
; File c:\program files\microsoft visual studio .net 2003\vc7\include\xutility
;	COMDAT ??$_Distance@Viterator@?$vector@U_AdjData@@V?$allocator@U_AdjData@@@std@@@std@@I@std@@YAXViterator@?$vector@U_AdjData@@V?$allocator@U_AdjData@@@std@@@0@0AAI@Z
_TEXT	SEGMENT
__First$ = 8						; size = 4
__Last$ = 12						; size = 4
__Off$ = 16						; size = 4
??$_Distance@Viterator@?$vector@U_AdjData@@V?$allocator@U_AdjData@@@std@@@std@@I@std@@YAXViterator@?$vector@U_AdjData@@V?$allocator@U_AdjData@@@std@@@0@0AAI@Z PROC NEAR ; std::_Distance<std::vector<_AdjData,std::allocator<_AdjData> >::iterator,unsigned int>, COMDAT

; 498  : 	_Distance2(_First, _Last, _Off, _Iter_cat(_First));

  00000	8b 54 24 04	 mov	 edx, DWORD PTR __First$[esp-4]
  00004	8b 4c 24 08	 mov	 ecx, DWORD PTR __Last$[esp-4]
  00008	8b 44 24 0c	 mov	 eax, DWORD PTR __Off$[esp-4]
  0000c	2b ca		 sub	 ecx, edx
  0000e	8b 10		 mov	 edx, DWORD PTR [eax]
  00010	c1 f9 03	 sar	 ecx, 3
  00013	03 d1		 add	 edx, ecx
  00015	89 10		 mov	 DWORD PTR [eax], edx

; 499  : 	}

  00017	c3		 ret	 0
??$_Distance@Viterator@?$vector@U_AdjData@@V?$allocator@U_AdjData@@@std@@@std@@I@std@@YAXViterator@?$vector@U_AdjData@@V?$allocator@U_AdjData@@@std@@@0@0AAI@Z ENDP ; std::_Distance<std::vector<_AdjData,std::allocator<_AdjData> >::iterator,unsigned int>
_TEXT	ENDS
PUBLIC	??$copy@Viterator@?$vector@U_AdjData@@V?$allocator@U_AdjData@@@std@@@std@@PAU_AdjData@@@std@@YAPAU_AdjData@@Viterator@?$vector@U_AdjData@@V?$allocator@U_AdjData@@@std@@@0@0PAU1@@Z ; std::copy<std::vector<_AdjData,std::allocator<_AdjData> >::iterator,_AdjData *>
; Function compile flags: /Ogty
;	COMDAT ??$copy@Viterator@?$vector@U_AdjData@@V?$allocator@U_AdjData@@@std@@@std@@PAU_AdjData@@@std@@YAPAU_AdjData@@Viterator@?$vector@U_AdjData@@V?$allocator@U_AdjData@@@std@@@0@0PAU1@@Z
_TEXT	SEGMENT
__First$ = 8						; size = 4
__Last$ = 12						; size = 4
__Dest$ = 16						; size = 4
??$copy@Viterator@?$vector@U_AdjData@@V?$allocator@U_AdjData@@@std@@@std@@PAU_AdjData@@@std@@YAPAU_AdjData@@Viterator@?$vector@U_AdjData@@V?$allocator@U_AdjData@@@std@@@0@0PAU1@@Z PROC NEAR ; std::copy<std::vector<_AdjData,std::allocator<_AdjData> >::iterator,_AdjData *>, COMDAT

; 1040 : 	return (_Copy_opt(_First, _Last, _Dest, _Ptr_cat(_First, _Dest)));

  00000	8b 4c 24 04	 mov	 ecx, DWORD PTR __First$[esp-4]
  00004	8b 54 24 08	 mov	 edx, DWORD PTR __Last$[esp-4]
  00008	3b ca		 cmp	 ecx, edx
  0000a	8b 44 24 0c	 mov	 eax, DWORD PTR __Dest$[esp-4]
  0000e	74 16		 je	 SHORT $L230424
  00010	56		 push	 esi
$L230426:
  00011	8b 31		 mov	 esi, DWORD PTR [ecx]
  00013	89 30		 mov	 DWORD PTR [eax], esi
  00015	8b 71 04	 mov	 esi, DWORD PTR [ecx+4]
  00018	89 70 04	 mov	 DWORD PTR [eax+4], esi
  0001b	83 c1 08	 add	 ecx, 8
  0001e	83 c0 08	 add	 eax, 8
  00021	3b ca		 cmp	 ecx, edx
  00023	75 ec		 jne	 SHORT $L230426
  00025	5e		 pop	 esi
$L230424:

; 1041 : 	}

  00026	c3		 ret	 0
??$copy@Viterator@?$vector@U_AdjData@@V?$allocator@U_AdjData@@@std@@@std@@PAU_AdjData@@@std@@YAPAU_AdjData@@Viterator@?$vector@U_AdjData@@V?$allocator@U_AdjData@@@std@@@0@0PAU1@@Z ENDP ; std::copy<std::vector<_AdjData,std::allocator<_AdjData> >::iterator,_AdjData *>
_TEXT	ENDS
PUBLIC	??$_Uninitialized_copy@Viterator@?$vector@U_AdjData@@V?$allocator@U_AdjData@@@std@@@std@@PAU_AdjData@@V?$allocator@U_AdjData@@@3@@std@@YAPAU_AdjData@@Viterator@?$vector@U_AdjData@@V?$allocator@U_AdjData@@@std@@@0@0PAU1@AAV?$allocator@U_AdjData@@@0@@Z ; std::_Uninitialized_copy<std::vector<_AdjData,std::allocator<_AdjData> >::iterator,_AdjData *,std::allocator<_AdjData> >
; Function compile flags: /Ogty
; File c:\program files\microsoft visual studio .net 2003\vc7\include\memory
;	COMDAT ??$_Uninitialized_copy@Viterator@?$vector@U_AdjData@@V?$allocator@U_AdjData@@@std@@@std@@PAU_AdjData@@V?$allocator@U_AdjData@@@3@@std@@YAPAU_AdjData@@Viterator@?$vector@U_AdjData@@V?$allocator@U_AdjData@@@std@@@0@0PAU1@AAV?$allocator@U_AdjData@@@0@@Z
_TEXT	SEGMENT
__Cat$230441 = -4					; size = 1
__First$ = 8						; size = 4
__Last$ = 12						; size = 4
__Dest$ = 16						; size = 4
__Al$ = 20						; size = 4
??$_Uninitialized_copy@Viterator@?$vector@U_AdjData@@V?$allocator@U_AdjData@@@std@@@std@@PAU_AdjData@@V?$allocator@U_AdjData@@@3@@std@@YAPAU_AdjData@@Viterator@?$vector@U_AdjData@@V?$allocator@U_AdjData@@@std@@@0@0PAU1@AAV?$allocator@U_AdjData@@@0@@Z PROC NEAR ; std::_Uninitialized_copy<std::vector<_AdjData,std::allocator<_AdjData> >::iterator,_AdjData *,std::allocator<_AdjData> >, COMDAT

; 126  : 	{	// copy [_First, _Last) to raw _Dest, using _Al

  00000	51		 push	 ecx

; 127  : 	return (_Uninit_copy(_First, _Last, _Dest, _Al,
; 128  : 		_Ptr_cat(_First, _Dest)));

  00001	8b 04 24	 mov	 eax, DWORD PTR __Cat$230441[esp+4]
  00004	8b 4c 24 14	 mov	 ecx, DWORD PTR __Al$[esp]
  00008	8b 54 24 10	 mov	 edx, DWORD PTR __Dest$[esp]
  0000c	50		 push	 eax
  0000d	8b 44 24 10	 mov	 eax, DWORD PTR __Last$[esp+4]
  00011	51		 push	 ecx
  00012	8b 4c 24 10	 mov	 ecx, DWORD PTR __First$[esp+8]
  00016	52		 push	 edx
  00017	50		 push	 eax
  00018	51		 push	 ecx
  00019	e8 00 00 00 00	 call	 ??$_Uninit_copy@Viterator@?$vector@U_AdjData@@V?$allocator@U_AdjData@@@std@@@std@@PAU_AdjData@@V?$allocator@U_AdjData@@@3@@std@@YAPAU_AdjData@@Viterator@?$vector@U_AdjData@@V?$allocator@U_AdjData@@@std@@@0@0PAU1@AAV?$allocator@U_AdjData@@@0@U_Nonscalar_ptr_iterator_tag@0@@Z ; std::_Uninit_copy<std::vector<_AdjData,std::allocator<_AdjData> >::iterator,_AdjData *,std::allocator<_AdjData> >

; 129  : 	}

  0001e	83 c4 18	 add	 esp, 24			; 00000018H
  00021	c3		 ret	 0
??$_Uninitialized_copy@Viterator@?$vector@U_AdjData@@V?$allocator@U_AdjData@@@std@@@std@@PAU_AdjData@@V?$allocator@U_AdjData@@@3@@std@@YAPAU_AdjData@@Viterator@?$vector@U_AdjData@@V?$allocator@U_AdjData@@@std@@@0@0PAU1@AAV?$allocator@U_AdjData@@@0@@Z ENDP ; std::_Uninitialized_copy<std::vector<_AdjData,std::allocator<_AdjData> >::iterator,_AdjData *,std::allocator<_AdjData> >
_TEXT	ENDS
PUBLIC	?_Tidy@?$basic_string@DU?$char_traits@D@std@@V?$allocator@D@2@@std@@IAEX_NI@Z ; std::basic_string<char,std::char_traits<char>,std::allocator<char> >::_Tidy
; Function compile flags: /Ogty
; File c:\program files\microsoft visual studio .net 2003\vc7\include\xstring
;	COMDAT ?_Tidy@?$basic_string@DU?$char_traits@D@std@@V?$allocator@D@2@@std@@IAEX_NI@Z
_TEXT	SEGMENT
__Built$ = 8						; size = 1
__Newsize$ = 12						; size = 4
?_Tidy@?$basic_string@DU?$char_traits@D@std@@V?$allocator@D@2@@std@@IAEX_NI@Z PROC NEAR ; std::basic_string<char,std::char_traits<char>,std::allocator<char> >::_Tidy, COMDAT
; _this$ = ecx

; 1510 : 		if (!_Built)

  00000	8a 44 24 04	 mov	 al, BYTE PTR __Built$[esp-4]
  00004	84 c0		 test	 al, al
  00006	53		 push	 ebx
  00007	55		 push	 ebp
  00008	8b 6c 24 10	 mov	 ebp, DWORD PTR __Newsize$[esp+4]
  0000c	8b d9		 mov	 ebx, ecx
  0000e	74 2f		 je	 SHORT $L230450

; 1511 : 			;
; 1512 : 		else if (_BUF_SIZE <= _Myres)

  00010	83 7b 18 10	 cmp	 DWORD PTR [ebx+24], 16	; 00000010H
  00014	72 29		 jb	 SHORT $L230450

; 1513 : 			{	// copy any leftovers to small buffer and deallocate
; 1514 : 			_Elem *_Ptr = _Bx._Ptr;
; 1515 : 			if (0 < _Newsize)

  00016	85 ed		 test	 ebp, ebp
  00018	8b 43 04	 mov	 eax, DWORD PTR [ebx+4]
  0001b	57		 push	 edi
  0001c	8d 7b 04	 lea	 edi, DWORD PTR [ebx+4]
  0001f	76 14		 jbe	 SHORT $L230446
  00021	56		 push	 esi

; 1516 : 				_Traits::copy(_Bx._Buf, _Ptr, _Newsize);

  00022	8b cd		 mov	 ecx, ebp
  00024	8b d1		 mov	 edx, ecx
  00026	c1 e9 02	 shr	 ecx, 2
  00029	8b f0		 mov	 esi, eax
  0002b	f3 a5		 rep movsd
  0002d	8b ca		 mov	 ecx, edx
  0002f	83 e1 03	 and	 ecx, 3
  00032	f3 a4		 rep movsb
  00034	5e		 pop	 esi
$L230446:

; 1517 : 			_Mybase::_Alval.deallocate(_Ptr, _Myres + 1);

  00035	50		 push	 eax
  00036	e8 00 00 00 00	 call	 ??3@YAXPAX@Z		; operator delete
  0003b	83 c4 04	 add	 esp, 4
  0003e	5f		 pop	 edi
$L230450:

; 1518 : 			}
; 1519 : 		_Myres = _BUF_SIZE - 1;
; 1520 : 		_Eos(_Newsize);

  0003f	89 6b 14	 mov	 DWORD PTR [ebx+20], ebp
  00042	c7 43 18 0f 00
	00 00		 mov	 DWORD PTR [ebx+24], 15	; 0000000fH
  00049	c6 44 2b 04 00	 mov	 BYTE PTR [ebx+ebp+4], 0
  0004e	5d		 pop	 ebp
  0004f	5b		 pop	 ebx

; 1521 : 		}

  00050	c2 08 00	 ret	 8
?_Tidy@?$basic_string@DU?$char_traits@D@std@@V?$allocator@D@2@@std@@IAEX_NI@Z ENDP ; std::basic_string<char,std::char_traits<char>,std::allocator<char> >::_Tidy
_TEXT	ENDS
PUBLIC	?erase@?$basic_string@DU?$char_traits@D@std@@V?$allocator@D@2@@std@@QAEAAV12@II@Z ; std::basic_string<char,std::char_traits<char>,std::allocator<char> >::erase
EXTRN	?_Xran@_String_base@std@@QBEXXZ:NEAR		; std::_String_base::_Xran
; Function compile flags: /Ogty
;	COMDAT ?erase@?$basic_string@DU?$char_traits@D@std@@V?$allocator@D@2@@std@@QAEAAV12@II@Z
_TEXT	SEGMENT
__Off$ = 8						; size = 4
__Count$ = 12						; size = 4
?erase@?$basic_string@DU?$char_traits@D@std@@V?$allocator@D@2@@std@@QAEAAV12@II@Z PROC NEAR ; std::basic_string<char,std::char_traits<char>,std::allocator<char> >::erase, COMDAT
; _this$ = ecx

; 792  : 		{	// erase elements [_Off, _Off + _Count)

  00000	55		 push	 ebp

; 793  : 		if (_Mysize < _Off)

  00001	8b 6c 24 08	 mov	 ebp, DWORD PTR __Off$[esp]
  00005	56		 push	 esi
  00006	8b f1		 mov	 esi, ecx
  00008	39 6e 14	 cmp	 DWORD PTR [esi+20], ebp
  0000b	57		 push	 edi
  0000c	73 05		 jae	 SHORT $L221371

; 794  : 			_String_base::_Xran();	// _Off off end

  0000e	e8 00 00 00 00	 call	 ?_Xran@_String_base@std@@QBEXXZ ; std::_String_base::_Xran
$L221371:

; 795  : 		if (_Mysize - _Off < _Count)

  00013	8b 46 14	 mov	 eax, DWORD PTR [esi+20]
  00016	8b 7c 24 14	 mov	 edi, DWORD PTR __Count$[esp+8]
  0001a	2b c5		 sub	 eax, ebp
  0001c	3b c7		 cmp	 eax, edi
  0001e	73 02		 jae	 SHORT $L221372

; 796  : 			_Count = _Mysize - _Off;	// trim _Count

  00020	8b f8		 mov	 edi, eax
$L221372:

; 797  : 		if (0 < _Count)

  00022	85 ff		 test	 edi, edi
  00024	76 47		 jbe	 SHORT $L230515

; 798  : 			{	// move elements down
; 799  : 			_Traits::move(_Myptr() + _Off, _Myptr() + _Off + _Count,
; 800  : 				_Mysize - _Off - _Count);

  00026	8b 4e 18	 mov	 ecx, DWORD PTR [esi+24]
  00029	83 f9 10	 cmp	 ecx, 16			; 00000010H
  0002c	53		 push	 ebx
  0002d	8d 5e 04	 lea	 ebx, DWORD PTR [esi+4]
  00030	72 04		 jb	 SHORT $L230480
  00032	8b 13		 mov	 edx, DWORD PTR [ebx]
  00034	eb 02		 jmp	 SHORT $L230481
$L230480:
  00036	8b d3		 mov	 edx, ebx
$L230481:
  00038	83 f9 10	 cmp	 ecx, 16			; 00000010H
  0003b	72 04		 jb	 SHORT $L230487
  0003d	8b 0b		 mov	 ecx, DWORD PTR [ebx]
  0003f	eb 02		 jmp	 SHORT $L230488
$L230487:
  00041	8b cb		 mov	 ecx, ebx
$L230488:
  00043	2b c7		 sub	 eax, edi

; 803  : 			}
; 804  : 		return (*this);

  00045	03 d5		 add	 edx, ebp
  00047	50		 push	 eax
  00048	03 d7		 add	 edx, edi
  0004a	52		 push	 edx
  0004b	03 cd		 add	 ecx, ebp
  0004d	51		 push	 ecx
  0004e	e8 00 00 00 00	 call	 _memmove
  00053	8b 46 14	 mov	 eax, DWORD PTR [esi+20]
  00056	8b 4e 18	 mov	 ecx, DWORD PTR [esi+24]
  00059	2b c7		 sub	 eax, edi
  0005b	83 c4 0c	 add	 esp, 12			; 0000000cH
  0005e	83 f9 10	 cmp	 ecx, 16			; 00000010H
  00061	89 46 14	 mov	 DWORD PTR [esi+20], eax
  00064	72 02		 jb	 SHORT $L230510

; 801  : 			size_type _Newsize = _Mysize - _Count;
; 802  : 			_Eos(_Newsize);

  00066	8b 1b		 mov	 ebx, DWORD PTR [ebx]
$L230510:
  00068	c6 04 03 00	 mov	 BYTE PTR [ebx+eax], 0
  0006c	5b		 pop	 ebx
$L230515:
  0006d	5f		 pop	 edi

; 803  : 			}
; 804  : 		return (*this);

  0006e	8b c6		 mov	 eax, esi
  00070	5e		 pop	 esi
  00071	5d		 pop	 ebp

; 805  : 		}

  00072	c2 08 00	 ret	 8
?erase@?$basic_string@DU?$char_traits@D@std@@V?$allocator@D@2@@std@@QAEAAV12@II@Z ENDP ; std::basic_string<char,std::char_traits<char>,std::allocator<char> >::erase
_TEXT	ENDS
PUBLIC	?_Copy@?$basic_string@DU?$char_traits@D@std@@V?$allocator@D@2@@std@@IAEXII@Z ; std::basic_string<char,std::char_traits<char>,std::allocator<char> >::_Copy
EXTRN	__except_list:DWORD
EXTRN	___CxxFrameHandler:NEAR
;	COMDAT xdata$x
; File c:\program files\microsoft visual studio .net 2003\vc7\include\iosfwd
xdata$x	SEGMENT
$T230720 DD	0ffffffffH
	DD	00H
	DD	0ffffffffH
	DD	00H
	DD	01H
	DD	00H
	DD	01H
	DD	00H
$T230722 DD	00H
	DD	00H
	DD	00H
	DD	FLAT:$L230522
$T230723 DD	00H
	DD	00H
	DD	00H
	DD	FLAT:$L230520
$T230721 DD	02H
	DD	02H
	DD	03H
	DD	01H
	DD	FLAT:$T230722
	DD	00H
	DD	00H
	DD	03H
	DD	01H
	DD	FLAT:$T230723
$T230714 DD	019930520H
	DD	04H
	DD	FLAT:$T230720
	DD	02H
	DD	FLAT:$T230721
	DD	2 DUP(00H)
; Function compile flags: /Ogty
; File c:\program files\microsoft visual studio .net 2003\vc7\include\xstring
xdata$x	ENDS
;	COMDAT ?_Copy@?$basic_string@DU?$char_traits@D@std@@V?$allocator@D@2@@std@@IAEXII@Z
_TEXT	SEGMENT
__Newres$ = -24						; size = 4
_this$ = -20						; size = 4
__$EHRec$ = -16						; size = 16
__Ptr$ = 8						; size = 4
__Newsize$ = 8						; size = 4
__Oldlen$ = 12						; size = 4
?_Copy@?$basic_string@DU?$char_traits@D@std@@V?$allocator@D@2@@std@@IAEXII@Z PROC NEAR ; std::basic_string<char,std::char_traits<char>,std::allocator<char> >::_Copy, COMDAT
; _this$ = ecx

; 1444 : 		{	// copy _Oldlen elements to newly allocated buffer

  00000	55		 push	 ebp
  00001	8b ec		 mov	 ebp, esp
  00003	6a ff		 push	 -1
  00005	68 00 00 00 00	 push	 __ehhandler$?_Copy@?$basic_string@DU?$char_traits@D@std@@V?$allocator@D@2@@std@@IAEXII@Z
  0000a	64 a1 00 00 00
	00		 mov	 eax, DWORD PTR fs:__except_list
  00010	50		 push	 eax
  00011	64 89 25 00 00
	00 00		 mov	 DWORD PTR fs:__except_list, esp
  00018	83 ec 0c	 sub	 esp, 12			; 0000000cH

; 1445 : 		size_type _Newres = _Newsize | _ALLOC_MASK;

  0001b	8b 45 08	 mov	 eax, DWORD PTR __Newsize$[ebp]
  0001e	53		 push	 ebx
  0001f	56		 push	 esi
  00020	8b d8		 mov	 ebx, eax
  00022	83 cb 0f	 or	 ebx, 15			; 0000000fH

; 1446 : 		if (max_size() < _Newres)

  00025	83 fb fe	 cmp	 ebx, -2			; fffffffeH
  00028	57		 push	 edi
  00029	8b f1		 mov	 esi, ecx
  0002b	89 65 f0	 mov	 DWORD PTR __$EHRec$[ebp], esp
  0002e	89 75 ec	 mov	 DWORD PTR _this$[ebp], esi
  00031	76 04		 jbe	 SHORT $L222778

; 1447 : 			_Newres = _Newsize;	// undo roundup if too big

  00033	8b d8		 mov	 ebx, eax

; 1448 : 		else if (_Newres / 3 < _Myres / 2

  00035	eb 22		 jmp	 SHORT $L222780
$L222778:

; 1449 : 			&& _Myres <= max_size() - _Myres / 2)

  00037	8b 7e 18	 mov	 edi, DWORD PTR [esi+24]
  0003a	b8 ab aa aa aa	 mov	 eax, -1431655765	; aaaaaaabH
  0003f	f7 e3		 mul	 ebx
  00041	8b cf		 mov	 ecx, edi
  00043	d1 e9		 shr	 ecx, 1
  00045	d1 ea		 shr	 edx, 1
  00047	3b d1		 cmp	 edx, ecx
  00049	73 0e		 jae	 SHORT $L222780
  0004b	b8 fe ff ff ff	 mov	 eax, -2			; fffffffeH
  00050	2b c1		 sub	 eax, ecx
  00052	3b f8		 cmp	 edi, eax
  00054	77 03		 ja	 SHORT $L222780

; 1450 : 			_Newres = _Myres + _Myres / 2;	// grow exponentially if possible

  00056	8d 1c 39	 lea	 ebx, DWORD PTR [ecx+edi]
$L222780:

; 1451 : 		_Elem *_Ptr;
; 1452 : 
; 1453 : 		_TRY_BEGIN
; 1454 : 			_Ptr = _Mybase::_Alval.allocate(_Newres + 1);

  00059	8d 4b 01	 lea	 ecx, DWORD PTR [ebx+1]
  0005c	51		 push	 ecx
  0005d	c7 45 fc 00 00
	00 00		 mov	 DWORD PTR __$EHRec$[ebp+12], 0
  00064	e8 00 00 00 00	 call	 ??2@YAPAXI@Z		; operator new
  00069	8b d0		 mov	 edx, eax
  0006b	83 c4 04	 add	 esp, 4
  0006e	89 55 08	 mov	 DWORD PTR __Ptr$[ebp], edx
  00071	eb 29		 jmp	 SHORT $L222782
$L230520:

; 1455 : 		_CATCH_ALL
; 1456 : 			_Newres = _Newsize;	// allocation failed, undo roundup and retry

  00073	8b 45 08	 mov	 eax, DWORD PTR __Newsize$[ebp]
  00076	89 45 e8	 mov	 DWORD PTR __Newres$[ebp], eax

; 1457 : 			_TRY_BEGIN
; 1458 : 				_Ptr = _Mybase::_Alval.allocate(_Newres + 1);

  00079	40		 inc	 eax
  0007a	89 65 f0	 mov	 DWORD PTR __$EHRec$[ebp], esp
  0007d	50		 push	 eax
  0007e	c6 45 fc 02	 mov	 BYTE PTR __$EHRec$[ebp+12], 2
  00082	e8 00 00 00 00	 call	 ??2@YAPAXI@Z		; operator new
  00087	89 45 08	 mov	 DWORD PTR __Ptr$[ebp], eax
  0008a	83 c4 04	 add	 esp, 4

; 1462 : 			_CATCH_END
; 1463 : 		_CATCH_END

  0008d	b8 00 00 00 00	 mov	 eax, $L230715
  00092	c3		 ret	 0
$L230715:
  00093	8b 5d e8	 mov	 ebx, DWORD PTR __Newres$[ebp]
  00096	8b 75 ec	 mov	 esi, DWORD PTR _this$[ebp]
  00099	8b 55 08	 mov	 edx, DWORD PTR __Ptr$[ebp]
$L222782:

; 1464 : 
; 1465 : 		if (0 < _Oldlen)

  0009c	8b 4d 0c	 mov	 ecx, DWORD PTR __Oldlen$[ebp]
  0009f	85 c9		 test	 ecx, ecx
  000a1	76 24		 jbe	 SHORT $L230639

; 1466 : 			_Traits::copy(_Ptr, _Myptr(), _Oldlen);	// copy existing elements

  000a3	83 7e 18 10	 cmp	 DWORD PTR [esi+24], 16	; 00000010H
  000a7	72 05		 jb	 SHORT $L230636
  000a9	8b 76 04	 mov	 esi, DWORD PTR [esi+4]
  000ac	eb 03		 jmp	 SHORT $L230637
$L230636:
  000ae	83 c6 04	 add	 esi, 4
$L230637:
  000b1	8b c1		 mov	 eax, ecx
  000b3	c1 e9 02	 shr	 ecx, 2
  000b6	8b fa		 mov	 edi, edx
  000b8	f3 a5		 rep movsd
  000ba	8b c8		 mov	 ecx, eax
  000bc	83 e1 03	 and	 ecx, 3
  000bf	f3 a4		 rep movsb
  000c1	8b 75 ec	 mov	 esi, DWORD PTR _this$[ebp]
  000c4	8b 4d 0c	 mov	 ecx, DWORD PTR __Oldlen$[ebp]
$L230639:

; 1467 : 		_Tidy(true);

  000c7	83 7e 18 10	 cmp	 DWORD PTR [esi+24], 16	; 00000010H
  000cb	72 12		 jb	 SHORT $L230675
  000cd	8b 4e 04	 mov	 ecx, DWORD PTR [esi+4]
  000d0	51		 push	 ecx
  000d1	e8 00 00 00 00	 call	 ??3@YAXPAX@Z		; operator delete
  000d6	8b 55 08	 mov	 edx, DWORD PTR __Ptr$[ebp]
  000d9	8b 4d 0c	 mov	 ecx, DWORD PTR __Oldlen$[ebp]
  000dc	83 c4 04	 add	 esp, 4
$L230675:

; 1468 : 		_Bx._Ptr = _Ptr;
; 1469 : 		_Myres = _Newres;
; 1470 : 		_Eos(_Oldlen);

  000df	83 fb 10	 cmp	 ebx, 16			; 00000010H
  000e2	8d 46 04	 lea	 eax, DWORD PTR [esi+4]
  000e5	c6 00 00	 mov	 BYTE PTR [eax], 0
  000e8	89 10		 mov	 DWORD PTR [eax], edx
  000ea	89 5e 18	 mov	 DWORD PTR [esi+24], ebx
  000ed	89 4e 14	 mov	 DWORD PTR [esi+20], ecx
  000f0	72 02		 jb	 SHORT $L230710
  000f2	8b c2		 mov	 eax, edx
$L230710:

; 1471 : 		}

  000f4	5f		 pop	 edi
  000f5	c6 04 08 00	 mov	 BYTE PTR [eax+ecx], 0
  000f9	8b 4d f4	 mov	 ecx, DWORD PTR __$EHRec$[ebp+4]
  000fc	5e		 pop	 esi
  000fd	64 89 0d 00 00
	00 00		 mov	 DWORD PTR fs:__except_list, ecx
  00104	5b		 pop	 ebx
  00105	8b e5		 mov	 esp, ebp
  00107	5d		 pop	 ebp
  00108	c2 08 00	 ret	 8
$L230522:

; 1459 : 			_CATCH_ALL
; 1460 : 			_Tidy(true);	// failed again, discard storage and reraise

  0010b	8b 75 ec	 mov	 esi, DWORD PTR _this$[ebp]
  0010e	83 7e 18 10	 cmp	 DWORD PTR [esi+24], 16	; 00000010H
  00112	72 0c		 jb	 SHORT $L230615
  00114	8b 56 04	 mov	 edx, DWORD PTR [esi+4]
  00117	52		 push	 edx
  00118	e8 00 00 00 00	 call	 ??3@YAXPAX@Z		; operator delete
  0011d	83 c4 04	 add	 esp, 4
$L230615:

; 1461 : 			_RERAISE;

  00120	6a 00		 push	 0
  00122	c7 46 18 0f 00
	00 00		 mov	 DWORD PTR [esi+24], 15	; 0000000fH
  00129	c7 46 14 00 00
	00 00		 mov	 DWORD PTR [esi+20], 0
  00130	6a 00		 push	 0
  00132	c6 46 04 00	 mov	 BYTE PTR [esi+4], 0
  00136	e8 00 00 00 00	 call	 __CxxThrowException@8
$L230725:
$L230719:
  0013b	cc		 int	 3
_TEXT	ENDS
;	COMDAT text$x
text$x	SEGMENT
__ehhandler$?_Copy@?$basic_string@DU?$char_traits@D@std@@V?$allocator@D@2@@std@@IAEXII@Z:
  00000	b8 00 00 00 00	 mov	 eax, OFFSET FLAT:$T230714
  00005	e9 00 00 00 00	 jmp	 ___CxxFrameHandler
text$x	ENDS
?_Copy@?$basic_string@DU?$char_traits@D@std@@V?$allocator@D@2@@std@@IAEXII@Z ENDP ; std::basic_string<char,std::char_traits<char>,std::allocator<char> >::_Copy
PUBLIC	??_C@_0DC@KGDBDMMM@CRandomOptionProperty?4DetermineR@ ; `string'
PUBLIC	?DetermineRandomOptionAdj@CRandomOptionProperty@@AAEFPAU_RANDOM_OPTION@@_N@Z ; CRandomOptionProperty::DetermineRandomOptionAdj
;	COMDAT ??_C@_0DC@KGDBDMMM@CRandomOptionProperty?4DetermineR@
; File c:\program files\microsoft visual studio .net 2003\vc7\include\vector
CONST	SEGMENT
??_C@_0DC@KGDBDMMM@CRandomOptionProperty?4DetermineR@ DB 'CRandomOptionPr'
	DB	'operty.DetermineRandomOptionAdj: 0', 00H	; `string'
; Function compile flags: /Ogty
; File c:\documents and settings\test\mes documents\source\virtuos_v17\build\program\_common\randomoption.cpp
CONST	ENDS
;	COMDAT ?DetermineRandomOptionAdj@CRandomOptionProperty@@AAEFPAU_RANDOM_OPTION@@_N@Z
_TEXT	SEGMENT
_pRandomOption$ = 8					; size = 4
_bDecreaseAdj$ = 12					; size = 1
?DetermineRandomOptionAdj@CRandomOptionProperty@@AAEFPAU_RANDOM_OPTION@@_N@Z PROC NEAR ; CRandomOptionProperty::DetermineRandomOptionAdj, COMDAT
; _this$ = ecx

; 304  : 	ASSERT( pRandomOption );
; 305  : 	DWORD dwRand	= xRandom( 1000000000 );	// 0 - 9999999

  00000	a1 00 00 00 00	 mov	 eax, DWORD PTR ?g_next@@3KA ; g_next
  00005	69 c0 6d 4e c6
	41		 imul	 eax, 1103515245		; 41c64e6dH
  0000b	53		 push	 ebx
  0000c	55		 push	 ebp
  0000d	56		 push	 esi
  0000e	05 39 30 00 00	 add	 eax, 12345		; 00003039H
  00013	33 d2		 xor	 edx, edx
  00015	57		 push	 edi

; 306  : 	for( DWORD i = 0; i < pRandomOption->aAdjData.size(); i++ )

  00016	8b 7c 24 14	 mov	 edi, DWORD PTR _pRandomOption$[esp+12]
  0001a	a3 00 00 00 00	 mov	 DWORD PTR ?g_next@@3KA, eax ; g_next
  0001f	8b 5f 0c	 mov	 ebx, DWORD PTR [edi+12]
  00022	b9 00 ca 9a 3b	 mov	 ecx, 1000000000		; 3b9aca00H
  00027	f7 f1		 div	 ecx
  00029	33 f6		 xor	 esi, esi
  0002b	eb 03 8d 49 00	 npad	 5
$L226548:
  00030	85 db		 test	 ebx, ebx
  00032	74 3b		 je	 SHORT $L226550
  00034	8b 47 10	 mov	 eax, DWORD PTR [edi+16]
  00037	2b c3		 sub	 eax, ebx
  00039	c1 f8 03	 sar	 eax, 3
  0003c	3b f0		 cmp	 esi, eax
  0003e	73 2f		 jae	 SHORT $L226550
  00040	8b 47 0c	 mov	 eax, DWORD PTR [edi+12]

; 307  : 	{
; 308  : 		AdjData	ad	= pRandomOption->aAdjData[i];
; 309  : 		if( dwRand < ad.dwProb )

  00043	8b 6c f0 04	 mov	 ebp, DWORD PTR [eax+esi*8+4]
  00047	3b d5		 cmp	 edx, ebp
  00049	8d 0c f0	 lea	 ecx, DWORD PTR [eax+esi*8]
  0004c	8b 01		 mov	 eax, DWORD PTR [ecx]
  0004e	72 03		 jb	 SHORT $L230857

; 306  : 	for( DWORD i = 0; i < pRandomOption->aAdjData.size(); i++ )

  00050	46		 inc	 esi
  00051	eb dd		 jmp	 SHORT $L226548
$L230857:

; 310  : 		{
; 311  : 			//	mulcom	BEGIN100405
; 312  : 			//return ad.nAdj;
; 313  : 			if( bDecreaseAdj == true && i > 0 )

  00053	80 7c 24 18 01	 cmp	 BYTE PTR _bDecreaseAdj$[esp+12], 1
  00058	75 25		 jne	 SHORT $L226544
  0005a	85 f6		 test	 esi, esi
  0005c	76 21		 jbe	 SHORT $L226544

; 314  : 			{
; 315  : 				return	( pRandomOption->aAdjData[i-1].nAdj );

  0005e	8b 4f 0c	 mov	 ecx, DWORD PTR [edi+12]
  00061	5f		 pop	 edi
  00062	8d 44 f1 f8	 lea	 eax, DWORD PTR [ecx+esi*8-8]
  00066	66 8b 00	 mov	 ax, WORD PTR [eax]
  00069	5e		 pop	 esi
  0006a	5d		 pop	 ebp
  0006b	5b		 pop	 ebx

; 326  : }

  0006c	c2 08 00	 ret	 8
$L226550:

; 316  : 			}
; 317  : 			else
; 318  : 			{
; 319  : 				return ad.nAdj;
; 320  : 			}
; 321  : 			//	mulcom	END100405
; 322  : 		}
; 323  : 	}
; 324  : 	Error( "CRandomOptionProperty.DetermineRandomOptionAdj: 0" );

  0006f	68 00 00 00 00	 push	 OFFSET FLAT:??_C@_0DC@KGDBDMMM@CRandomOptionProperty?4DetermineR@
  00074	e8 00 00 00 00	 call	 ?Error@@YAPBDPBDZZ	; Error
  00079	83 c4 04	 add	 esp, 4

; 325  : 	return 0;

  0007c	66 33 c0	 xor	 ax, ax
$L226544:
  0007f	5f		 pop	 edi
  00080	5e		 pop	 esi
  00081	5d		 pop	 ebp
  00082	5b		 pop	 ebx

; 326  : }

  00083	c2 08 00	 ret	 8
?DetermineRandomOptionAdj@CRandomOptionProperty@@AAEFPAU_RANDOM_OPTION@@_N@Z ENDP ; CRandomOptionProperty::DetermineRandomOptionAdj
_TEXT	ENDS
PUBLIC	??A?$vector@U_RANDOM_OPTION@@V?$allocator@U_RANDOM_OPTION@@@std@@@std@@QAEAAU_RANDOM_OPTION@@I@Z ; std::vector<_RANDOM_OPTION,std::allocator<_RANDOM_OPTION> >::operator[]
; Function compile flags: /Ogty
; File c:\program files\microsoft visual studio .net 2003\vc7\include\vector
;	COMDAT ??A?$vector@U_RANDOM_OPTION@@V?$allocator@U_RANDOM_OPTION@@@std@@@std@@QAEAAU_RANDOM_OPTION@@I@Z
_TEXT	SEGMENT
__Pos$ = 8						; size = 4
??A?$vector@U_RANDOM_OPTION@@V?$allocator@U_RANDOM_OPTION@@@std@@@std@@QAEAAU_RANDOM_OPTION@@I@Z PROC NEAR ; std::vector<_RANDOM_OPTION,std::allocator<_RANDOM_OPTION> >::operator[], COMDAT
; _this$ = ecx

; 555  : 		return (*(begin() + _Pos));

  00000	8b 44 24 04	 mov	 eax, DWORD PTR __Pos$[esp-4]
  00004	8b 49 04	 mov	 ecx, DWORD PTR [ecx+4]
  00007	8d 04 40	 lea	 eax, DWORD PTR [eax+eax*2]
  0000a	8d 04 c1	 lea	 eax, DWORD PTR [ecx+eax*8]

; 556  : 		}

  0000d	c2 04 00	 ret	 4
??A?$vector@U_RANDOM_OPTION@@V?$allocator@U_RANDOM_OPTION@@@std@@@std@@QAEAAU_RANDOM_OPTION@@I@Z ENDP ; std::vector<_RANDOM_OPTION,std::allocator<_RANDOM_OPTION> >::operator[]
_TEXT	ENDS
PUBLIC	??$_Uninitialized_fill_n@PAU_AdjData@@IU1@V?$allocator@U_AdjData@@@std@@@std@@YAXPAU_AdjData@@IABU1@AAV?$allocator@U_AdjData@@@0@@Z ; std::_Uninitialized_fill_n<_AdjData *,unsigned int,_AdjData,std::allocator<_AdjData> >
; Function compile flags: /Ogty
; File c:\program files\microsoft visual studio .net 2003\vc7\include\memory
;	COMDAT ??$_Uninitialized_fill_n@PAU_AdjData@@IU1@V?$allocator@U_AdjData@@@std@@@std@@YAXPAU_AdjData@@IABU1@AAV?$allocator@U_AdjData@@@0@@Z
_TEXT	SEGMENT
__Cat$230904 = -4					; size = 1
__First$ = 8						; size = 4
__Count$ = 12						; size = 4
__Val$ = 16						; size = 4
__Al$ = 20						; size = 4
??$_Uninitialized_fill_n@PAU_AdjData@@IU1@V?$allocator@U_AdjData@@@std@@@std@@YAXPAU_AdjData@@IABU1@AAV?$allocator@U_AdjData@@@0@@Z PROC NEAR ; std::_Uninitialized_fill_n<_AdjData *,unsigned int,_AdjData,std::allocator<_AdjData> >, COMDAT

; 255  : 	{	// copy _Count *_Val to raw _First, using _Al

  00000	51		 push	 ecx

; 256  : 	_Uninit_fill_n(_First, _Count, _Val, _Al,
; 257  : 		_Ptr_cat(_First, _First));

  00001	8b 04 24	 mov	 eax, DWORD PTR __Cat$230904[esp+4]
  00004	8b 4c 24 14	 mov	 ecx, DWORD PTR __Al$[esp]
  00008	8b 54 24 10	 mov	 edx, DWORD PTR __Val$[esp]
  0000c	50		 push	 eax
  0000d	8b 44 24 10	 mov	 eax, DWORD PTR __Count$[esp+4]
  00011	51		 push	 ecx
  00012	8b 4c 24 10	 mov	 ecx, DWORD PTR __First$[esp+8]
  00016	52		 push	 edx
  00017	50		 push	 eax
  00018	51		 push	 ecx
  00019	e8 00 00 00 00	 call	 ??$_Uninit_fill_n@PAU_AdjData@@IU1@V?$allocator@U_AdjData@@@std@@@std@@YAXPAU_AdjData@@IABU1@AAV?$allocator@U_AdjData@@@0@U_Nonscalar_ptr_iterator_tag@0@@Z ; std::_Uninit_fill_n<_AdjData *,unsigned int,_AdjData,std::allocator<_AdjData> >

; 258  : 	}

  0001e	83 c4 18	 add	 esp, 24			; 00000018H
  00021	c3		 ret	 0
??$_Uninitialized_fill_n@PAU_AdjData@@IU1@V?$allocator@U_AdjData@@@std@@@std@@YAXPAU_AdjData@@IABU1@AAV?$allocator@U_AdjData@@@0@@Z ENDP ; std::_Uninitialized_fill_n<_AdjData *,unsigned int,_AdjData,std::allocator<_AdjData> >
_TEXT	ENDS
PUBLIC	??$_Destroy_range@U_AdjData@@V?$allocator@U_AdjData@@@std@@@std@@YAXPAU_AdjData@@0AAV?$allocator@U_AdjData@@@0@@Z ; std::_Destroy_range<_AdjData,std::allocator<_AdjData> >
; Function compile flags: /Ogty
; File c:\program files\microsoft visual studio .net 2003\vc7\include\xmemory
;	COMDAT ??$_Destroy_range@U_AdjData@@V?$allocator@U_AdjData@@@std@@@std@@YAXPAU_AdjData@@0AAV?$allocator@U_AdjData@@@0@@Z
_TEXT	SEGMENT
__First$ = 8						; size = 4
__Last$ = 12						; size = 4
__Al$ = 16						; size = 4
??$_Destroy_range@U_AdjData@@V?$allocator@U_AdjData@@@std@@@std@@YAXPAU_AdjData@@0AAV?$allocator@U_AdjData@@@0@@Z PROC NEAR ; std::_Destroy_range<_AdjData,std::allocator<_AdjData> >, COMDAT

; 217  : 	_Destroy_range(_First, _Last, _Al, _Ptr_cat(_First, _Last));
; 218  : 	}

  00000	c3		 ret	 0
??$_Destroy_range@U_AdjData@@V?$allocator@U_AdjData@@@std@@@std@@YAXPAU_AdjData@@0AAV?$allocator@U_AdjData@@@0@@Z ENDP ; std::_Destroy_range<_AdjData,std::allocator<_AdjData> >
_TEXT	ENDS
PUBLIC	??$_Ucopy@PAU_AdjData@@@?$vector@U_AdjData@@V?$allocator@U_AdjData@@@std@@@std@@IAEPAU_AdjData@@PAU2@00@Z ; std::vector<_AdjData,std::allocator<_AdjData> >::_Ucopy<_AdjData *>
; Function compile flags: /Ogty
; File c:\program files\microsoft visual studio .net 2003\vc7\include\vector
;	COMDAT ??$_Ucopy@PAU_AdjData@@@?$vector@U_AdjData@@V?$allocator@U_AdjData@@@std@@@std@@IAEPAU_AdjData@@PAU2@00@Z
_TEXT	SEGMENT
__First$ = 8						; size = 4
__Last$ = 12						; size = 4
__Cat$230926 = 16					; size = 1
__Ptr$ = 16						; size = 4
??$_Ucopy@PAU_AdjData@@@?$vector@U_AdjData@@V?$allocator@U_AdjData@@@std@@@std@@IAEPAU_AdjData@@PAU2@00@Z PROC NEAR ; std::vector<_AdjData,std::allocator<_AdjData> >::_Ucopy<_AdjData *>, COMDAT
; _this$ = ecx

; 802  : 		{	// copy initializing [_First, _Last), using allocator
; 803  : 		return (_Uninitialized_copy(_First, _Last,
; 804  : 			_Ptr, this->_Alval));

  00000	8b 44 24 0c	 mov	 eax, DWORD PTR __Cat$230926[esp-4]
  00004	8b 54 24 08	 mov	 edx, DWORD PTR __Last$[esp-4]
  00008	50		 push	 eax
  00009	8b 44 24 08	 mov	 eax, DWORD PTR __First$[esp]
  0000d	51		 push	 ecx
  0000e	8b 4c 24 14	 mov	 ecx, DWORD PTR __Ptr$[esp+4]
  00012	51		 push	 ecx
  00013	52		 push	 edx
  00014	50		 push	 eax
  00015	e8 00 00 00 00	 call	 ??$_Uninit_copy@PAU_AdjData@@PAU1@V?$allocator@U_AdjData@@@std@@@std@@YAPAU_AdjData@@PAU1@00AAV?$allocator@U_AdjData@@@0@U_Nonscalar_ptr_iterator_tag@0@@Z ; std::_Uninit_copy<_AdjData *,_AdjData *,std::allocator<_AdjData> >
  0001a	83 c4 14	 add	 esp, 20			; 00000014H

; 805  : 		}

  0001d	c2 0c 00	 ret	 12			; 0000000cH
??$_Ucopy@PAU_AdjData@@@?$vector@U_AdjData@@V?$allocator@U_AdjData@@@std@@@std@@IAEPAU_AdjData@@PAU2@00@Z ENDP ; std::vector<_AdjData,std::allocator<_AdjData> >::_Ucopy<_AdjData *>
_TEXT	ENDS
PUBLIC	??$_Ucopy@Vconst_iterator@?$vector@U_AdjData@@V?$allocator@U_AdjData@@@std@@@std@@@?$vector@U_AdjData@@V?$allocator@U_AdjData@@@std@@@std@@IAEPAU_AdjData@@Vconst_iterator@01@0PAU2@@Z ; std::vector<_AdjData,std::allocator<_AdjData> >::_Ucopy<std::vector<_AdjData,std::allocator<_AdjData> >::const_iterator>
; Function compile flags: /Ogty
;	COMDAT ??$_Ucopy@Vconst_iterator@?$vector@U_AdjData@@V?$allocator@U_AdjData@@@std@@@std@@@?$vector@U_AdjData@@V?$allocator@U_AdjData@@@std@@@std@@IAEPAU_AdjData@@Vconst_iterator@01@0PAU2@@Z
_TEXT	SEGMENT
__First$ = 8						; size = 4
__Last$ = 12						; size = 4
__Cat$230942 = 16					; size = 1
__Ptr$ = 16						; size = 4
??$_Ucopy@Vconst_iterator@?$vector@U_AdjData@@V?$allocator@U_AdjData@@@std@@@std@@@?$vector@U_AdjData@@V?$allocator@U_AdjData@@@std@@@std@@IAEPAU_AdjData@@Vconst_iterator@01@0PAU2@@Z PROC NEAR ; std::vector<_AdjData,std::allocator<_AdjData> >::_Ucopy<std::vector<_AdjData,std::allocator<_AdjData> >::const_iterator>, COMDAT
; _this$ = ecx

; 802  : 		{	// copy initializing [_First, _Last), using allocator
; 803  : 		return (_Uninitialized_copy(_First, _Last,
; 804  : 			_Ptr, this->_Alval));

  00000	8b 44 24 0c	 mov	 eax, DWORD PTR __Cat$230942[esp-4]
  00004	8b 54 24 08	 mov	 edx, DWORD PTR __Last$[esp-4]
  00008	50		 push	 eax
  00009	8b 44 24 08	 mov	 eax, DWORD PTR __First$[esp]
  0000d	51		 push	 ecx
  0000e	8b 4c 24 14	 mov	 ecx, DWORD PTR __Ptr$[esp+4]
  00012	51		 push	 ecx
  00013	52		 push	 edx
  00014	50		 push	 eax
  00015	e8 00 00 00 00	 call	 ??$_Uninit_copy@Vconst_iterator@?$vector@U_AdjData@@V?$allocator@U_AdjData@@@std@@@std@@PAU_AdjData@@V?$allocator@U_AdjData@@@3@@std@@YAPAU_AdjData@@Vconst_iterator@?$vector@U_AdjData@@V?$allocator@U_AdjData@@@std@@@0@0PAU1@AAV?$allocator@U_AdjData@@@0@U_Nonscalar_ptr_iterator_tag@0@@Z ; std::_Uninit_copy<std::vector<_AdjData,std::allocator<_AdjData> >::const_iterator,_AdjData *,std::allocator<_AdjData> >
  0001a	83 c4 14	 add	 esp, 20			; 00000014H

; 805  : 		}

  0001d	c2 0c 00	 ret	 12			; 0000000cH
??$_Ucopy@Vconst_iterator@?$vector@U_AdjData@@V?$allocator@U_AdjData@@@std@@@std@@@?$vector@U_AdjData@@V?$allocator@U_AdjData@@@std@@@std@@IAEPAU_AdjData@@Vconst_iterator@01@0PAU2@@Z ENDP ; std::vector<_AdjData,std::allocator<_AdjData> >::_Ucopy<std::vector<_AdjData,std::allocator<_AdjData> >::const_iterator>
_TEXT	ENDS
PUBLIC	??$_Ucopy@Viterator@?$vector@U_AdjData@@V?$allocator@U_AdjData@@@std@@@std@@@?$vector@U_AdjData@@V?$allocator@U_AdjData@@@std@@@std@@IAEPAU_AdjData@@Viterator@01@0PAU2@@Z ; std::vector<_AdjData,std::allocator<_AdjData> >::_Ucopy<std::vector<_AdjData,std::allocator<_AdjData> >::iterator>
; Function compile flags: /Ogty
;	COMDAT ??$_Ucopy@Viterator@?$vector@U_AdjData@@V?$allocator@U_AdjData@@@std@@@std@@@?$vector@U_AdjData@@V?$allocator@U_AdjData@@@std@@@std@@IAEPAU_AdjData@@Viterator@01@0PAU2@@Z
_TEXT	SEGMENT
__First$ = 8						; size = 4
__Last$ = 12						; size = 4
__Cat$230960 = 16					; size = 1
__Ptr$ = 16						; size = 4
??$_Ucopy@Viterator@?$vector@U_AdjData@@V?$allocator@U_AdjData@@@std@@@std@@@?$vector@U_AdjData@@V?$allocator@U_AdjData@@@std@@@std@@IAEPAU_AdjData@@Viterator@01@0PAU2@@Z PROC NEAR ; std::vector<_AdjData,std::allocator<_AdjData> >::_Ucopy<std::vector<_AdjData,std::allocator<_AdjData> >::iterator>, COMDAT
; _this$ = ecx

; 802  : 		{	// copy initializing [_First, _Last), using allocator
; 803  : 		return (_Uninitialized_copy(_First, _Last,
; 804  : 			_Ptr, this->_Alval));

  00000	8b 44 24 0c	 mov	 eax, DWORD PTR __Cat$230960[esp-4]
  00004	8b 54 24 08	 mov	 edx, DWORD PTR __Last$[esp-4]
  00008	50		 push	 eax
  00009	8b 44 24 08	 mov	 eax, DWORD PTR __First$[esp]
  0000d	51		 push	 ecx
  0000e	8b 4c 24 14	 mov	 ecx, DWORD PTR __Ptr$[esp+4]
  00012	51		 push	 ecx
  00013	52		 push	 edx
  00014	50		 push	 eax
  00015	e8 00 00 00 00	 call	 ??$_Uninit_copy@Viterator@?$vector@U_AdjData@@V?$allocator@U_AdjData@@@std@@@std@@PAU_AdjData@@V?$allocator@U_AdjData@@@3@@std@@YAPAU_AdjData@@Viterator@?$vector@U_AdjData@@V?$allocator@U_AdjData@@@std@@@0@0PAU1@AAV?$allocator@U_AdjData@@@0@U_Nonscalar_ptr_iterator_tag@0@@Z ; std::_Uninit_copy<std::vector<_AdjData,std::allocator<_AdjData> >::iterator,_AdjData *,std::allocator<_AdjData> >
  0001a	83 c4 14	 add	 esp, 20			; 00000014H

; 805  : 		}

  0001d	c2 0c 00	 ret	 12			; 0000000cH
??$_Ucopy@Viterator@?$vector@U_AdjData@@V?$allocator@U_AdjData@@@std@@@std@@@?$vector@U_AdjData@@V?$allocator@U_AdjData@@@std@@@std@@IAEPAU_AdjData@@Viterator@01@0PAU2@@Z ENDP ; std::vector<_AdjData,std::allocator<_AdjData> >::_Ucopy<std::vector<_AdjData,std::allocator<_AdjData> >::iterator>
_TEXT	ENDS
PUBLIC	??1?$basic_string@DU?$char_traits@D@std@@V?$allocator@D@2@@std@@QAE@XZ ; std::basic_string<char,std::char_traits<char>,std::allocator<char> >::~basic_string<char,std::char_traits<char>,std::allocator<char> >
; Function compile flags: /Ogty
; File c:\program files\microsoft visual studio .net 2003\vc7\include\xstring
;	COMDAT ??1?$basic_string@DU?$char_traits@D@std@@V?$allocator@D@2@@std@@QAE@XZ
_TEXT	SEGMENT
??1?$basic_string@DU?$char_traits@D@std@@V?$allocator@D@2@@std@@QAE@XZ PROC NEAR ; std::basic_string<char,std::char_traits<char>,std::allocator<char> >::~basic_string<char,std::char_traits<char>,std::allocator<char> >, COMDAT
; _this$ = ecx

; 456  : 		{	// destroy the string

  00000	56		 push	 esi
  00001	8b f1		 mov	 esi, ecx

; 457  : 		_Tidy(true);

  00003	83 7e 18 10	 cmp	 DWORD PTR [esi+24], 16	; 00000010H
  00007	72 0c		 jb	 SHORT $L231000
  00009	8b 46 04	 mov	 eax, DWORD PTR [esi+4]
  0000c	50		 push	 eax
  0000d	e8 00 00 00 00	 call	 ??3@YAXPAX@Z		; operator delete
  00012	83 c4 04	 add	 esp, 4
$L231000:
  00015	33 c0		 xor	 eax, eax
  00017	c7 46 18 0f 00
	00 00		 mov	 DWORD PTR [esi+24], 15	; 0000000fH
  0001e	89 46 14	 mov	 DWORD PTR [esi+20], eax
  00021	88 46 04	 mov	 BYTE PTR [esi+4], al
  00024	5e		 pop	 esi

; 458  : 		}

  00025	c3		 ret	 0
??1?$basic_string@DU?$char_traits@D@std@@V?$allocator@D@2@@std@@QAE@XZ ENDP ; std::basic_string<char,std::char_traits<char>,std::allocator<char> >::~basic_string<char,std::char_traits<char>,std::allocator<char> >
_TEXT	ENDS
PUBLIC	?_Grow@?$basic_string@DU?$char_traits@D@std@@V?$allocator@D@2@@std@@IAE_NI_N@Z ; std::basic_string<char,std::char_traits<char>,std::allocator<char> >::_Grow
EXTRN	?_Xlen@_String_base@std@@QBEXXZ:NEAR		; std::_String_base::_Xlen
; Function compile flags: /Ogty
;	COMDAT ?_Grow@?$basic_string@DU?$char_traits@D@std@@V?$allocator@D@2@@std@@IAE_NI_N@Z
_TEXT	SEGMENT
__Newsize$ = 8						; size = 4
__Trim$ = 12						; size = 1
?_Grow@?$basic_string@DU?$char_traits@D@std@@V?$allocator@D@2@@std@@IAE_NI_N@Z PROC NEAR ; std::basic_string<char,std::char_traits<char>,std::allocator<char> >::_Grow, COMDAT
; _this$ = ecx

; 1480 : 		{	// ensure buffer is big enough, trim to size if _Trim is true

  00000	55		 push	 ebp
  00001	56		 push	 esi

; 1481 : 		if (max_size() < _Newsize)

  00002	8b 74 24 0c	 mov	 esi, DWORD PTR __Newsize$[esp+4]
  00006	83 fe fe	 cmp	 esi, -2			; fffffffeH
  00009	8b e9		 mov	 ebp, ecx
  0000b	76 05		 jbe	 SHORT $L221380

; 1482 : 			_String_base::_Xlen();	// result too long

  0000d	e8 00 00 00 00	 call	 ?_Xlen@_String_base@std@@QBEXXZ ; std::_String_base::_Xlen
$L221380:

; 1483 : 		if (_Myres < _Newsize)

  00012	8b 45 18	 mov	 eax, DWORD PTR [ebp+24]
  00015	3b c6		 cmp	 eax, esi
  00017	73 19		 jae	 SHORT $L221381

; 1484 : 			_Copy(_Newsize, _Mysize);	// reallocate to grow

  00019	8b 45 14	 mov	 eax, DWORD PTR [ebp+20]
  0001c	50		 push	 eax
  0001d	56		 push	 esi
  0001e	8b cd		 mov	 ecx, ebp
  00020	e8 00 00 00 00	 call	 ?_Copy@?$basic_string@DU?$char_traits@D@std@@V?$allocator@D@2@@std@@IAEXII@Z ; std::basic_string<char,std::char_traits<char>,std::allocator<char> >::_Copy

; 1490 : 		return (0 < _Newsize);	// return true only if more work to do

  00025	33 c0		 xor	 eax, eax
  00027	3b c6		 cmp	 eax, esi
  00029	1b c0		 sbb	 eax, eax
  0002b	5e		 pop	 esi
  0002c	f7 d8		 neg	 eax
  0002e	5d		 pop	 ebp

; 1491 : 		}

  0002f	c2 08 00	 ret	 8
$L221381:

; 1485 : 		else if (_Trim && _Newsize < _BUF_SIZE)

  00032	8a 4c 24 10	 mov	 cl, BYTE PTR __Trim$[esp+4]
  00036	84 c9		 test	 cl, cl
  00038	74 5c		 je	 SHORT $L221383
  0003a	83 fe 10	 cmp	 esi, 16			; 00000010H
  0003d	73 57		 jae	 SHORT $L221383
  0003f	53		 push	 ebx

; 1486 : 			_Tidy(true,	// copy and deallocate if trimming to small string
; 1487 : 				_Newsize < _Mysize ? _Newsize : _Mysize);

  00040	8b 5d 14	 mov	 ebx, DWORD PTR [ebp+20]
  00043	3b f3		 cmp	 esi, ebx
  00045	73 02		 jae	 SHORT $L231021
  00047	8b de		 mov	 ebx, esi
$L231021:
  00049	83 f8 10	 cmp	 eax, 16			; 00000010H
  0004c	72 2b		 jb	 SHORT $L231075
  0004e	85 db		 test	 ebx, ebx
  00050	8b 45 04	 mov	 eax, DWORD PTR [ebp+4]
  00053	57		 push	 edi
  00054	8d 7d 04	 lea	 edi, DWORD PTR [ebp+4]
  00057	76 16		 jbe	 SHORT $L231073
  00059	8b cb		 mov	 ecx, ebx
  0005b	8b d1		 mov	 edx, ecx
  0005d	c1 e9 02	 shr	 ecx, 2
  00060	8b f0		 mov	 esi, eax
  00062	f3 a5		 rep movsd
  00064	8b ca		 mov	 ecx, edx
  00066	83 e1 03	 and	 ecx, 3
  00069	f3 a4		 rep movsb
  0006b	8b 74 24 14	 mov	 esi, DWORD PTR __Newsize$[esp+12]
$L231073:
  0006f	50		 push	 eax
  00070	e8 00 00 00 00	 call	 ??3@YAXPAX@Z		; operator delete
  00075	83 c4 04	 add	 esp, 4
  00078	5f		 pop	 edi
$L231075:
  00079	89 5d 14	 mov	 DWORD PTR [ebp+20], ebx

; 1490 : 		return (0 < _Newsize);	// return true only if more work to do

  0007c	33 c0		 xor	 eax, eax
  0007e	c7 45 18 0f 00
	00 00		 mov	 DWORD PTR [ebp+24], 15	; 0000000fH
  00085	c6 44 2b 04 00	 mov	 BYTE PTR [ebx+ebp+4], 0
  0008a	3b c6		 cmp	 eax, esi
  0008c	5b		 pop	 ebx
  0008d	1b c0		 sbb	 eax, eax
  0008f	5e		 pop	 esi
  00090	f7 d8		 neg	 eax
  00092	5d		 pop	 ebp

; 1491 : 		}

  00093	c2 08 00	 ret	 8
$L221383:

; 1488 : 		else if (_Newsize == 0)

  00096	85 f6		 test	 esi, esi
  00098	75 23		 jne	 SHORT $L231112

; 1489 : 			_Eos(0);	// new size is zero, just null terminate

  0009a	83 f8 10	 cmp	 eax, 16			; 00000010H
  0009d	89 75 14	 mov	 DWORD PTR [ebp+20], esi
  000a0	72 14		 jb	 SHORT $L231110
  000a2	8b 6d 04	 mov	 ebp, DWORD PTR [ebp+4]

; 1490 : 		return (0 < _Newsize);	// return true only if more work to do

  000a5	33 c0		 xor	 eax, eax
  000a7	3b c6		 cmp	 eax, esi
  000a9	1b c0		 sbb	 eax, eax
  000ab	5e		 pop	 esi
  000ac	c6 45 00 00	 mov	 BYTE PTR [ebp], 0
  000b0	f7 d8		 neg	 eax
  000b2	5d		 pop	 ebp

; 1491 : 		}

  000b3	c2 08 00	 ret	 8

; 1489 : 			_Eos(0);	// new size is zero, just null terminate

$L231110:
  000b6	83 c5 04	 add	 ebp, 4
  000b9	c6 45 00 00	 mov	 BYTE PTR [ebp], 0
$L231112:

; 1490 : 		return (0 < _Newsize);	// return true only if more work to do

  000bd	33 c0		 xor	 eax, eax
  000bf	3b c6		 cmp	 eax, esi
  000c1	1b c0		 sbb	 eax, eax
  000c3	5e		 pop	 esi
  000c4	f7 d8		 neg	 eax
  000c6	5d		 pop	 ebp

; 1491 : 		}

  000c7	c2 08 00	 ret	 8
?_Grow@?$basic_string@DU?$char_traits@D@std@@V?$allocator@D@2@@std@@IAE_NI_N@Z ENDP ; std::basic_string<char,std::char_traits<char>,std::allocator<char> >::_Grow
_TEXT	ENDS
PUBLIC	?GetUpperProbability@CRandomOptionProperty@@AAEHH@Z ; CRandomOptionProperty::GetUpperProbability
; Function compile flags: /Ogty
; File c:\documents and settings\test\mes documents\source\virtuos_v17\build\program\_common\randomoption.cpp
;	COMDAT ?GetUpperProbability@CRandomOptionProperty@@AAEHH@Z
_TEXT	SEGMENT
_iRandomOptionKindIndex$ = 8				; size = 4
?GetUpperProbability@CRandomOptionProperty@@AAEHH@Z PROC NEAR ; CRandomOptionProperty::GetUpperProbability, COMDAT
; _this$ = ecx

; 466  : 	int iLast	= m_aRandomOption[iRandomOptionKindIndex].size() - 1;

  00000	8b 44 24 04	 mov	 eax, DWORD PTR _iRandomOptionKindIndex$[esp-4]
  00004	c1 e0 04	 shl	 eax, 4
  00007	56		 push	 esi
  00008	8d 34 08	 lea	 esi, DWORD PTR [eax+ecx]
  0000b	8b 46 38	 mov	 eax, DWORD PTR [esi+56]
  0000e	85 c0		 test	 eax, eax
  00010	75 10		 jne	 SHORT $L231123

; 467  : 	return m_aRandomOption[iRandomOptionKindIndex][iLast].nProb;

  00012	8d 0c 40	 lea	 ecx, DWORD PTR [eax+eax*2]
  00015	8b d0		 mov	 edx, eax
  00017	8d 44 ca e8	 lea	 eax, DWORD PTR [edx+ecx*8-24]
  0001b	8b 40 04	 mov	 eax, DWORD PTR [eax+4]
  0001e	5e		 pop	 esi

; 468  : }

  0001f	c2 04 00	 ret	 4

; 466  : 	int iLast	= m_aRandomOption[iRandomOptionKindIndex].size() - 1;

$L231123:
  00022	8b 4e 3c	 mov	 ecx, DWORD PTR [esi+60]
  00025	2b c8		 sub	 ecx, eax
  00027	b8 ab aa aa 2a	 mov	 eax, 715827883		; 2aaaaaabH
  0002c	f7 e9		 imul	 ecx
  0002e	c1 fa 02	 sar	 edx, 2
  00031	8b c2		 mov	 eax, edx
  00033	c1 e8 1f	 shr	 eax, 31			; 0000001fH
  00036	03 c2		 add	 eax, edx

; 467  : 	return m_aRandomOption[iRandomOptionKindIndex][iLast].nProb;

  00038	8b 56 38	 mov	 edx, DWORD PTR [esi+56]
  0003b	8d 0c 40	 lea	 ecx, DWORD PTR [eax+eax*2]
  0003e	8d 44 ca e8	 lea	 eax, DWORD PTR [edx+ecx*8-24]
  00042	8b 40 04	 mov	 eax, DWORD PTR [eax+4]
  00045	5e		 pop	 esi

; 468  : }

  00046	c2 04 00	 ret	 4
?GetUpperProbability@CRandomOptionProperty@@AAEHH@Z ENDP ; CRandomOptionProperty::GetUpperProbability
_TEXT	ENDS
PUBLIC	?_Ufill@?$vector@U_AdjData@@V?$allocator@U_AdjData@@@std@@@std@@IAEPAU_AdjData@@PAU3@IABU3@@Z ; std::vector<_AdjData,std::allocator<_AdjData> >::_Ufill
; Function compile flags: /Ogty
; File c:\program files\microsoft visual studio .net 2003\vc7\include\vector
;	COMDAT ?_Ufill@?$vector@U_AdjData@@V?$allocator@U_AdjData@@@std@@@std@@IAEPAU_AdjData@@PAU3@IABU3@@Z
_TEXT	SEGMENT
__Ptr$ = 8						; size = 4
__Count$ = 12						; size = 4
__Cat$231194 = 16					; size = 1
__Val$ = 16						; size = 4
?_Ufill@?$vector@U_AdjData@@V?$allocator@U_AdjData@@@std@@@std@@IAEPAU_AdjData@@PAU3@IABU3@@Z PROC NEAR ; std::vector<_AdjData,std::allocator<_AdjData> >::_Ufill, COMDAT
; _this$ = ecx

; 878  : 		_Uninitialized_fill_n(_Ptr, _Count, _Val, this->_Alval);

  00000	8b 44 24 0c	 mov	 eax, DWORD PTR __Cat$231194[esp-4]
  00004	56		 push	 esi
  00005	8b 74 24 0c	 mov	 esi, DWORD PTR __Count$[esp]
  00009	57		 push	 edi
  0000a	8b 7c 24 0c	 mov	 edi, DWORD PTR __Ptr$[esp+4]
  0000e	50		 push	 eax
  0000f	51		 push	 ecx
  00010	8b 4c 24 1c	 mov	 ecx, DWORD PTR __Val$[esp+12]
  00014	51		 push	 ecx
  00015	56		 push	 esi
  00016	57		 push	 edi
  00017	e8 00 00 00 00	 call	 ??$_Uninit_fill_n@PAU_AdjData@@IU1@V?$allocator@U_AdjData@@@std@@@std@@YAXPAU_AdjData@@IABU1@AAV?$allocator@U_AdjData@@@0@U_Nonscalar_ptr_iterator_tag@0@@Z ; std::_Uninit_fill_n<_AdjData *,unsigned int,_AdjData,std::allocator<_AdjData> >
  0001c	83 c4 14	 add	 esp, 20			; 00000014H

; 879  : 		return (_Ptr + _Count);

  0001f	8d 04 f7	 lea	 eax, DWORD PTR [edi+esi*8]
  00022	5f		 pop	 edi
  00023	5e		 pop	 esi

; 880  : 		}

  00024	c2 0c 00	 ret	 12			; 0000000cH
?_Ufill@?$vector@U_AdjData@@V?$allocator@U_AdjData@@@std@@@std@@IAEPAU_AdjData@@PAU3@IABU3@@Z ENDP ; std::vector<_AdjData,std::allocator<_AdjData> >::_Ufill
_TEXT	ENDS
PUBLIC	?_Destroy@?$vector@U_AdjData@@V?$allocator@U_AdjData@@@std@@@std@@IAEXPAU_AdjData@@0@Z ; std::vector<_AdjData,std::allocator<_AdjData> >::_Destroy
; Function compile flags: /Ogty
;	COMDAT ?_Destroy@?$vector@U_AdjData@@V?$allocator@U_AdjData@@@std@@@std@@IAEXPAU_AdjData@@0@Z
_TEXT	SEGMENT
__First$ = 8						; size = 4
__Last$ = 12						; size = 4
?_Destroy@?$vector@U_AdjData@@V?$allocator@U_AdjData@@@std@@@std@@IAEXPAU_AdjData@@0@Z PROC NEAR ; std::vector<_AdjData,std::allocator<_AdjData> >::_Destroy, COMDAT
; _this$ = ecx

; 787  : 		_Destroy_range(_First, _Last, this->_Alval);
; 788  : 		}

  00000	c2 08 00	 ret	 8
?_Destroy@?$vector@U_AdjData@@V?$allocator@U_AdjData@@@std@@@std@@IAEXPAU_AdjData@@0@Z ENDP ; std::vector<_AdjData,std::allocator<_AdjData> >::_Destroy
_TEXT	ENDS
PUBLIC	?erase@?$vector@U_AdjData@@V?$allocator@U_AdjData@@@std@@@std@@QAE?AViterator@12@V312@0@Z ; std::vector<_AdjData,std::allocator<_AdjData> >::erase
; Function compile flags: /Ogty
;	COMDAT ?erase@?$vector@U_AdjData@@V?$allocator@U_AdjData@@@std@@@std@@QAE?AViterator@12@V312@0@Z
_TEXT	SEGMENT
___$ReturnUdt$ = 8					; size = 4
__First$ = 12						; size = 4
__Last$ = 16						; size = 4
?erase@?$vector@U_AdjData@@V?$allocator@U_AdjData@@@std@@@std@@QAE?AViterator@12@V312@0@Z PROC NEAR ; std::vector<_AdjData,std::allocator<_AdjData> >::erase, COMDAT
; _this$ = ecx

; 732  : 		if (_First != _Last)

  00000	8b 44 24 0c	 mov	 eax, DWORD PTR __Last$[esp-4]
  00004	57		 push	 edi
  00005	8b 7c 24 0c	 mov	 edi, DWORD PTR __First$[esp]
  00009	3b f8		 cmp	 edi, eax
  0000b	74 24		 je	 SHORT $L231241
  0000d	56		 push	 esi

; 733  : 			{	// worth doing, copy down over hole
; 734  : 			pointer _Ptr = copy(_ITER_BASE(_Last), _Mylast,
; 735  : 				_ITER_BASE(_First));

  0000e	8b 71 08	 mov	 esi, DWORD PTR [ecx+8]
  00011	3b c6		 cmp	 eax, esi
  00013	8b d7		 mov	 edx, edi
  00015	74 16		 je	 SHORT $L231233
  00017	53		 push	 ebx
$L231231:
  00018	8b 18		 mov	 ebx, DWORD PTR [eax]
  0001a	89 1a		 mov	 DWORD PTR [edx], ebx
  0001c	8b 58 04	 mov	 ebx, DWORD PTR [eax+4]
  0001f	89 5a 04	 mov	 DWORD PTR [edx+4], ebx
  00022	83 c0 08	 add	 eax, 8
  00025	83 c2 08	 add	 edx, 8
  00028	3b c6		 cmp	 eax, esi
  0002a	75 ec		 jne	 SHORT $L231231
  0002c	5b		 pop	 ebx
$L231233:

; 736  : 			_Destroy(_Ptr, _Mylast);
; 737  : 			_Mylast = _Ptr;

  0002d	89 51 08	 mov	 DWORD PTR [ecx+8], edx
  00030	5e		 pop	 esi
$L231241:

; 738  : 			}
; 739  : 		return (_First);

  00031	8b 44 24 08	 mov	 eax, DWORD PTR ___$ReturnUdt$[esp]
  00035	89 38		 mov	 DWORD PTR [eax], edi
  00037	5f		 pop	 edi

; 740  : 		}

  00038	c2 0c 00	 ret	 12			; 0000000cH
?erase@?$vector@U_AdjData@@V?$allocator@U_AdjData@@@std@@@std@@QAE?AViterator@12@V312@0@Z ENDP ; std::vector<_AdjData,std::allocator<_AdjData> >::erase
_TEXT	ENDS
PUBLIC	??1logic_error@std@@UAE@XZ			; std::logic_error::~logic_error
PUBLIC	?what@logic_error@std@@UBEPBDXZ			; std::logic_error::what
PUBLIC	??_7logic_error@std@@6B@			; std::logic_error::`vftable'
PUBLIC	??_Glogic_error@std@@UAEPAXI@Z			; std::logic_error::`scalar deleting destructor'
EXTRN	??1exception@@UAE@XZ:NEAR			; exception::~exception
EXTRN	??_Elogic_error@std@@UAEPAXI@Z:NEAR		; std::logic_error::`vector deleting destructor'
;	COMDAT ??_7logic_error@std@@6B@
; File c:\program files\microsoft visual studio .net 2003\vc7\include\iosfwd
CONST	SEGMENT
??_7logic_error@std@@6B@ DD FLAT:??_Elogic_error@std@@UAEPAXI@Z ; std::logic_error::`vftable'
	DD	FLAT:?what@logic_error@std@@UBEPBDXZ
; Function compile flags: /Ogty
; File c:\program files\microsoft visual studio .net 2003\vc7\include\stdexcept
CONST	ENDS
;	COMDAT ??1logic_error@std@@UAE@XZ
_TEXT	SEGMENT
??1logic_error@std@@UAE@XZ PROC NEAR			; std::logic_error::~logic_error, COMDAT
; _this$ = ecx

; 23   : 		{}	// destroy the object

  00000	56		 push	 esi
  00001	8b f1		 mov	 esi, ecx
  00003	c7 06 00 00 00
	00		 mov	 DWORD PTR [esi], OFFSET FLAT:??_7logic_error@std@@6B@
  00009	83 7e 24 10	 cmp	 DWORD PTR [esi+36], 16	; 00000010H
  0000d	72 0c		 jb	 SHORT $L231303
  0000f	8b 46 10	 mov	 eax, DWORD PTR [esi+16]
  00012	50		 push	 eax
  00013	e8 00 00 00 00	 call	 ??3@YAXPAX@Z		; operator delete
  00018	83 c4 04	 add	 esp, 4
$L231303:
  0001b	33 c0		 xor	 eax, eax
  0001d	c7 46 24 0f 00
	00 00		 mov	 DWORD PTR [esi+36], 15	; 0000000fH
  00024	89 46 20	 mov	 DWORD PTR [esi+32], eax
  00027	88 46 10	 mov	 BYTE PTR [esi+16], al
  0002a	8b ce		 mov	 ecx, esi
  0002c	5e		 pop	 esi
  0002d	e9 00 00 00 00	 jmp	 ??1exception@@UAE@XZ	; exception::~exception
??1logic_error@std@@UAE@XZ ENDP				; std::logic_error::~logic_error
; Function compile flags: /Ogty
_TEXT	ENDS
;	COMDAT ?what@logic_error@std@@UBEPBDXZ
_TEXT	SEGMENT
?what@logic_error@std@@UBEPBDXZ PROC NEAR		; std::logic_error::what, COMDAT
; _this$ = ecx

; 27   : 		return (_Str.c_str());

  00000	83 79 24 10	 cmp	 DWORD PTR [ecx+36], 16	; 00000010H
  00004	72 04		 jb	 SHORT $L231336
  00006	8b 41 10	 mov	 eax, DWORD PTR [ecx+16]

; 28   : 		}

  00009	c3		 ret	 0

; 27   : 		return (_Str.c_str());

$L231336:
  0000a	8d 41 10	 lea	 eax, DWORD PTR [ecx+16]

; 28   : 		}

  0000d	c3		 ret	 0
?what@logic_error@std@@UBEPBDXZ ENDP			; std::logic_error::what
; Function compile flags: /Ogty
_TEXT	ENDS
;	COMDAT ??_Glogic_error@std@@UAEPAXI@Z
_TEXT	SEGMENT
___flags$ = 8						; size = 4
??_Glogic_error@std@@UAEPAXI@Z PROC NEAR		; std::logic_error::`scalar deleting destructor', COMDAT
; _this$ = ecx
  00000	56		 push	 esi
  00001	8b f1		 mov	 esi, ecx
  00003	e8 00 00 00 00	 call	 ??1logic_error@std@@UAE@XZ ; std::logic_error::~logic_error
  00008	f6 44 24 08 01	 test	 BYTE PTR ___flags$[esp], 1
  0000d	74 09		 je	 SHORT $L231343
  0000f	56		 push	 esi
  00010	e8 00 00 00 00	 call	 ??3@YAXPAX@Z		; operator delete
  00015	83 c4 04	 add	 esp, 4
$L231343:
  00018	8b c6		 mov	 eax, esi
  0001a	5e		 pop	 esi
  0001b	c2 04 00	 ret	 4
??_Glogic_error@std@@UAEPAXI@Z ENDP			; std::logic_error::`scalar deleting destructor'
_TEXT	ENDS
PUBLIC	?assign@?$basic_string@DU?$char_traits@D@std@@V?$allocator@D@2@@std@@QAEAAV12@ABV12@II@Z ; std::basic_string<char,std::char_traits<char>,std::allocator<char> >::assign
; Function compile flags: /Ogty
; File c:\program files\microsoft visual studio .net 2003\vc7\include\xstring
;	COMDAT ?assign@?$basic_string@DU?$char_traits@D@std@@V?$allocator@D@2@@std@@QAEAAV12@ABV12@II@Z
_TEXT	SEGMENT
__Right$ = 8						; size = 4
__Roff$ = 12						; size = 4
__Count$ = 16						; size = 4
?assign@?$basic_string@DU?$char_traits@D@std@@V?$allocator@D@2@@std@@QAEAAV12@ABV12@II@Z PROC NEAR ; std::basic_string<char,std::char_traits<char>,std::allocator<char> >::assign, COMDAT
; _this$ = ecx

; 590  : 		{	// assign _Right [_Roff, _Roff + _Count)

  00000	53		 push	 ebx
  00001	55		 push	 ebp
  00002	56		 push	 esi

; 591  : 		if (_Right.size() < _Roff)

  00003	8b 74 24 14	 mov	 esi, DWORD PTR __Roff$[esp+8]
  00007	57		 push	 edi
  00008	8b 7c 24 14	 mov	 edi, DWORD PTR __Right$[esp+12]
  0000c	39 77 14	 cmp	 DWORD PTR [edi+20], esi
  0000f	8b d9		 mov	 ebx, ecx
  00011	73 05		 jae	 SHORT $L220001

; 592  : 			_String_base::_Xran();	// _Roff off end

  00013	e8 00 00 00 00	 call	 ?_Xran@_String_base@std@@QBEXXZ ; std::_String_base::_Xran
$L220001:

; 593  : 		size_type _Num = _Right.size() - _Roff;

  00018	8b 6f 14	 mov	 ebp, DWORD PTR [edi+20]

; 594  : 		if (_Count < _Num)

  0001b	8b 44 24 1c	 mov	 eax, DWORD PTR __Count$[esp+12]
  0001f	2b ee		 sub	 ebp, esi
  00021	3b c5		 cmp	 eax, ebp
  00023	73 02		 jae	 SHORT $L220003

; 595  : 			_Num = _Count;	// trim _Num to size

  00025	8b e8		 mov	 ebp, eax
$L220003:

; 596  : 
; 597  : 		if (this == &_Right)

  00027	3b df		 cmp	 ebx, edi
  00029	75 1f		 jne	 SHORT $L220004

; 598  : 			erase((size_type)(_Roff + _Num)), erase(0, _Roff);	// substring

  0002b	6a ff		 push	 -1
  0002d	03 ee		 add	 ebp, esi
  0002f	55		 push	 ebp
  00030	8b cb		 mov	 ecx, ebx
  00032	e8 00 00 00 00	 call	 ?erase@?$basic_string@DU?$char_traits@D@std@@V?$allocator@D@2@@std@@QAEAAV12@II@Z ; std::basic_string<char,std::char_traits<char>,std::allocator<char> >::erase
  00037	56		 push	 esi
  00038	6a 00		 push	 0
  0003a	8b cb		 mov	 ecx, ebx
  0003c	e8 00 00 00 00	 call	 ?erase@?$basic_string@DU?$char_traits@D@std@@V?$allocator@D@2@@std@@QAEAAV12@II@Z ; std::basic_string<char,std::char_traits<char>,std::allocator<char> >::erase
  00041	5f		 pop	 edi
  00042	5e		 pop	 esi
  00043	5d		 pop	 ebp

; 603  : 			}
; 604  : 		return (*this);

  00044	8b c3		 mov	 eax, ebx
  00046	5b		 pop	 ebx

; 605  : 		}

  00047	c2 0c 00	 ret	 12			; 0000000cH
$L220004:

; 599  : 		else if (_Grow(_Num))

  0004a	83 fd fe	 cmp	 ebp, -2			; fffffffeH
  0004d	76 07		 jbe	 SHORT $L231465
  0004f	8b cb		 mov	 ecx, ebx
  00051	e8 00 00 00 00	 call	 ?_Xlen@_String_base@std@@QBEXXZ ; std::_String_base::_Xlen
$L231465:
  00056	8b 43 18	 mov	 eax, DWORD PTR [ebx+24]
  00059	3b c5		 cmp	 eax, ebp
  0005b	73 21		 jae	 SHORT $L231466
  0005d	8b 43 14	 mov	 eax, DWORD PTR [ebx+20]
  00060	50		 push	 eax
  00061	55		 push	 ebp
  00062	8b cb		 mov	 ecx, ebx
  00064	e8 00 00 00 00	 call	 ?_Copy@?$basic_string@DU?$char_traits@D@std@@V?$allocator@D@2@@std@@IAEXII@Z ; std::basic_string<char,std::char_traits<char>,std::allocator<char> >::_Copy
  00069	85 ed		 test	 ebp, ebp
$L231540:
  0006b	76 6d		 jbe	 SHORT $L231539

; 600  : 			{	// make room and assign new stuff
; 601  : 			_Traits::copy(_Myptr(), _Right._Myptr() + _Roff, _Num);

  0006d	8b 4f 18	 mov	 ecx, DWORD PTR [edi+24]
  00070	b8 10 00 00 00	 mov	 eax, 16			; 00000010H
  00075	3b c8		 cmp	 ecx, eax
  00077	72 2f		 jb	 SHORT $L231504
  00079	8b 57 04	 mov	 edx, DWORD PTR [edi+4]
  0007c	eb 2d		 jmp	 SHORT $L231505

; 599  : 		else if (_Grow(_Num))

$L231466:
  0007e	85 ed		 test	 ebp, ebp
  00080	75 e9		 jne	 SHORT $L231540
  00082	83 f8 10	 cmp	 eax, 16			; 00000010H
  00085	89 6b 14	 mov	 DWORD PTR [ebx+20], ebp
  00088	72 0f		 jb	 SHORT $L231458
  0008a	8b 43 04	 mov	 eax, DWORD PTR [ebx+4]
  0008d	5f		 pop	 edi
  0008e	5e		 pop	 esi
  0008f	c6 00 00	 mov	 BYTE PTR [eax], 0
  00092	5d		 pop	 ebp

; 603  : 			}
; 604  : 		return (*this);

  00093	8b c3		 mov	 eax, ebx
  00095	5b		 pop	 ebx

; 605  : 		}

  00096	c2 0c 00	 ret	 12			; 0000000cH

; 599  : 		else if (_Grow(_Num))

$L231458:
  00099	5f		 pop	 edi
  0009a	8d 43 04	 lea	 eax, DWORD PTR [ebx+4]
  0009d	5e		 pop	 esi
  0009e	c6 00 00	 mov	 BYTE PTR [eax], 0
  000a1	5d		 pop	 ebp

; 603  : 			}
; 604  : 		return (*this);

  000a2	8b c3		 mov	 eax, ebx
  000a4	5b		 pop	 ebx

; 605  : 		}

  000a5	c2 0c 00	 ret	 12			; 0000000cH

; 600  : 			{	// make room and assign new stuff
; 601  : 			_Traits::copy(_Myptr(), _Right._Myptr() + _Roff, _Num);

$L231504:
  000a8	8d 57 04	 lea	 edx, DWORD PTR [edi+4]
$L231505:
  000ab	39 43 18	 cmp	 DWORD PTR [ebx+24], eax
  000ae	8d 43 04	 lea	 eax, DWORD PTR [ebx+4]
  000b1	72 04		 jb	 SHORT $L231511
  000b3	8b 38		 mov	 edi, DWORD PTR [eax]
  000b5	eb 02		 jmp	 SHORT $L231512
$L231511:
  000b7	8b f8		 mov	 edi, eax
$L231512:
  000b9	03 f2		 add	 esi, edx
  000bb	8b cd		 mov	 ecx, ebp
  000bd	8b d1		 mov	 edx, ecx
  000bf	c1 e9 02	 shr	 ecx, 2
  000c2	f3 a5		 rep movsd
  000c4	8b ca		 mov	 ecx, edx
  000c6	83 e1 03	 and	 ecx, 3
  000c9	f3 a4		 rep movsb

; 602  : 			_Eos(_Num);

  000cb	83 7b 18 10	 cmp	 DWORD PTR [ebx+24], 16	; 00000010H
  000cf	89 6b 14	 mov	 DWORD PTR [ebx+20], ebp
  000d2	72 02		 jb	 SHORT $L231534
  000d4	8b 00		 mov	 eax, DWORD PTR [eax]
$L231534:
  000d6	c6 04 28 00	 mov	 BYTE PTR [eax+ebp], 0
$L231539:
  000da	5f		 pop	 edi
  000db	5e		 pop	 esi
  000dc	5d		 pop	 ebp

; 603  : 			}
; 604  : 		return (*this);

  000dd	8b c3		 mov	 eax, ebx
  000df	5b		 pop	 ebx

; 605  : 		}

  000e0	c2 0c 00	 ret	 12			; 0000000cH
?assign@?$basic_string@DU?$char_traits@D@std@@V?$allocator@D@2@@std@@QAEAAV12@ABV12@II@Z ENDP ; std::basic_string<char,std::char_traits<char>,std::allocator<char> >::assign
_TEXT	ENDS
PUBLIC	?assign@?$basic_string@DU?$char_traits@D@std@@V?$allocator@D@2@@std@@QAEAAV12@PBDI@Z ; std::basic_string<char,std::char_traits<char>,std::allocator<char> >::assign
; Function compile flags: /Ogty
;	COMDAT ?assign@?$basic_string@DU?$char_traits@D@std@@V?$allocator@D@2@@std@@QAEAAV12@PBDI@Z
_TEXT	SEGMENT
__Ptr$ = 8						; size = 4
__Num$ = 12						; size = 4
?assign@?$basic_string@DU?$char_traits@D@std@@V?$allocator@D@2@@std@@QAEAAV12@PBDI@Z PROC NEAR ; std::basic_string<char,std::char_traits<char>,std::allocator<char> >::assign, COMDAT
; _this$ = ecx

; 608  : 		{	// assign [_Ptr, _Ptr + _Num)

  00000	53		 push	 ebx
  00001	8b d9		 mov	 ebx, ecx

; 609  : 		if (_Inside(_Ptr))

  00003	8b 53 18	 mov	 edx, DWORD PTR [ebx+24]
  00006	83 fa 10	 cmp	 edx, 16			; 00000010H
  00009	56		 push	 esi
  0000a	57		 push	 edi
  0000b	72 05		 jb	 SHORT $L231561
  0000d	8b 43 04	 mov	 eax, DWORD PTR [ebx+4]
  00010	eb 03		 jmp	 SHORT $L231562
$L231561:
  00012	8d 43 04	 lea	 eax, DWORD PTR [ebx+4]
$L231562:
  00015	8b 74 24 10	 mov	 esi, DWORD PTR __Ptr$[esp+8]
  00019	3b f0		 cmp	 esi, eax
  0001b	72 34		 jb	 SHORT $L221367
  0001d	83 fa 10	 cmp	 edx, 16			; 00000010H
  00020	8d 43 04	 lea	 eax, DWORD PTR [ebx+4]
  00023	72 04		 jb	 SHORT $L231565
  00025	8b 08		 mov	 ecx, DWORD PTR [eax]
  00027	eb 02		 jmp	 SHORT $L231566
$L231565:
  00029	8b c8		 mov	 ecx, eax
$L231566:
  0002b	8b 7b 14	 mov	 edi, DWORD PTR [ebx+20]
  0002e	03 f9		 add	 edi, ecx
  00030	3b fe		 cmp	 edi, esi
  00032	76 1d		 jbe	 SHORT $L221367

; 610  : 			return (assign(*this, _Ptr - _Myptr(), _Num));	// substring

  00034	83 fa 10	 cmp	 edx, 16			; 00000010H
  00037	72 02		 jb	 SHORT $L231578
  00039	8b 00		 mov	 eax, DWORD PTR [eax]
$L231578:
  0003b	8b 4c 24 14	 mov	 ecx, DWORD PTR __Num$[esp+8]
  0003f	51		 push	 ecx
  00040	2b f0		 sub	 esi, eax
  00042	56		 push	 esi
  00043	53		 push	 ebx
  00044	8b cb		 mov	 ecx, ebx
  00046	e8 00 00 00 00	 call	 ?assign@?$basic_string@DU?$char_traits@D@std@@V?$allocator@D@2@@std@@QAEAAV12@ABV12@II@Z ; std::basic_string<char,std::char_traits<char>,std::allocator<char> >::assign
  0004b	5f		 pop	 edi
  0004c	5e		 pop	 esi
  0004d	5b		 pop	 ebx

; 618  : 		}

  0004e	c2 08 00	 ret	 8
$L221367:
  00051	55		 push	 ebp

; 611  : 
; 612  : 		if (_Grow(_Num))

  00052	8b 6c 24 18	 mov	 ebp, DWORD PTR __Num$[esp+12]
  00056	83 fd fe	 cmp	 ebp, -2			; fffffffeH
  00059	76 07		 jbe	 SHORT $L231690
  0005b	8b cb		 mov	 ecx, ebx
  0005d	e8 00 00 00 00	 call	 ?_Xlen@_String_base@std@@QBEXXZ ; std::_String_base::_Xlen
$L231690:
  00062	8b 43 18	 mov	 eax, DWORD PTR [ebx+24]
  00065	3b c5		 cmp	 eax, ebp
  00067	73 1b		 jae	 SHORT $L231691
  00069	8b 53 14	 mov	 edx, DWORD PTR [ebx+20]
  0006c	52		 push	 edx
  0006d	55		 push	 ebp
  0006e	8b cb		 mov	 ecx, ebx
  00070	e8 00 00 00 00	 call	 ?_Copy@?$basic_string@DU?$char_traits@D@std@@V?$allocator@D@2@@std@@IAEXII@Z ; std::basic_string<char,std::char_traits<char>,std::allocator<char> >::_Copy
  00075	85 ed		 test	 ebp, ebp
$L231758:
  00077	76 68		 jbe	 SHORT $L231755

; 613  : 			{	// make room and assign new stuff
; 614  : 			_Traits::copy(_Myptr(), _Ptr, _Num);

  00079	83 7b 18 10	 cmp	 DWORD PTR [ebx+24], 16	; 00000010H
  0007d	72 2f		 jb	 SHORT $L231730
  0007f	8b 7b 04	 mov	 edi, DWORD PTR [ebx+4]
  00082	eb 2d		 jmp	 SHORT $L231731

; 611  : 
; 612  : 		if (_Grow(_Num))

$L231691:
  00084	85 ed		 test	 ebp, ebp
  00086	75 ef		 jne	 SHORT $L231758
  00088	83 f8 10	 cmp	 eax, 16			; 00000010H
  0008b	89 6b 14	 mov	 DWORD PTR [ebx+20], ebp
  0008e	72 0f		 jb	 SHORT $L231721
  00090	8b 43 04	 mov	 eax, DWORD PTR [ebx+4]
  00093	5d		 pop	 ebp
  00094	5f		 pop	 edi
  00095	c6 00 00	 mov	 BYTE PTR [eax], 0
  00098	5e		 pop	 esi

; 616  : 			}
; 617  : 		return (*this);

  00099	8b c3		 mov	 eax, ebx
  0009b	5b		 pop	 ebx

; 618  : 		}

  0009c	c2 08 00	 ret	 8

; 611  : 
; 612  : 		if (_Grow(_Num))

$L231721:
  0009f	5d		 pop	 ebp
  000a0	8d 43 04	 lea	 eax, DWORD PTR [ebx+4]
  000a3	5f		 pop	 edi
  000a4	c6 00 00	 mov	 BYTE PTR [eax], 0
  000a7	5e		 pop	 esi

; 616  : 			}
; 617  : 		return (*this);

  000a8	8b c3		 mov	 eax, ebx
  000aa	5b		 pop	 ebx

; 618  : 		}

  000ab	c2 08 00	 ret	 8

; 613  : 			{	// make room and assign new stuff
; 614  : 			_Traits::copy(_Myptr(), _Ptr, _Num);

$L231730:
  000ae	8d 7b 04	 lea	 edi, DWORD PTR [ebx+4]
$L231731:
  000b1	8b cd		 mov	 ecx, ebp
  000b3	8b c1		 mov	 eax, ecx
  000b5	c1 e9 02	 shr	 ecx, 2
  000b8	f3 a5		 rep movsd
  000ba	8b c8		 mov	 ecx, eax
  000bc	83 e1 03	 and	 ecx, 3
  000bf	f3 a4		 rep movsb

; 615  : 			_Eos(_Num);

  000c1	83 7b 18 10	 cmp	 DWORD PTR [ebx+24], 16	; 00000010H
  000c5	89 6b 14	 mov	 DWORD PTR [ebx+20], ebp
  000c8	72 10		 jb	 SHORT $L231753
  000ca	8b 43 04	 mov	 eax, DWORD PTR [ebx+4]
  000cd	c6 04 28 00	 mov	 BYTE PTR [eax+ebp], 0
  000d1	5d		 pop	 ebp
  000d2	5f		 pop	 edi
  000d3	5e		 pop	 esi

; 616  : 			}
; 617  : 		return (*this);

  000d4	8b c3		 mov	 eax, ebx
  000d6	5b		 pop	 ebx

; 618  : 		}

  000d7	c2 08 00	 ret	 8

; 615  : 			_Eos(_Num);

$L231753:
  000da	8d 43 04	 lea	 eax, DWORD PTR [ebx+4]
  000dd	c6 04 28 00	 mov	 BYTE PTR [eax+ebp], 0
$L231755:
  000e1	5d		 pop	 ebp
  000e2	5f		 pop	 edi
  000e3	5e		 pop	 esi

; 616  : 			}
; 617  : 		return (*this);

  000e4	8b c3		 mov	 eax, ebx
  000e6	5b		 pop	 ebx

; 618  : 		}

  000e7	c2 08 00	 ret	 8
?assign@?$basic_string@DU?$char_traits@D@std@@V?$allocator@D@2@@std@@QAEAAV12@PBDI@Z ENDP ; std::basic_string<char,std::char_traits<char>,std::allocator<char> >::assign
_TEXT	ENDS
PUBLIC	?DetermineRandomOptionDst@CRandomOptionProperty@@AAEPAU_RANDOM_OPTION@@HH@Z ; CRandomOptionProperty::DetermineRandomOptionDst
; Function compile flags: /Ogty
; File c:\documents and settings\test\mes documents\source\virtuos_v17\build\program\_common\randomoption.cpp
;	COMDAT ?DetermineRandomOptionDst@CRandomOptionProperty@@AAEPAU_RANDOM_OPTION@@HH@Z
_TEXT	SEGMENT
_dwRand$ = 8						; size = 4
_nRandomOptionKind$ = 8					; size = 4
_nParts$ = 12						; size = 4
?DetermineRandomOptionDst@CRandomOptionProperty@@AAEPAU_RANDOM_OPTION@@HH@Z PROC NEAR ; CRandomOptionProperty::DetermineRandomOptionDst, COMDAT
; _this$ = ecx

; 286  : 	int iRandomOptionKindIndex	= GetRandomOptionKindIndex( nRandomOptionKind, nParts );

  00000	8b 54 24 04	 mov	 edx, DWORD PTR _nRandomOptionKind$[esp-4]
  00004	85 d2		 test	 edx, edx
  00006	75 13		 jne	 SHORT $L231764
  00008	8b 44 24 08	 mov	 eax, DWORD PTR _nParts$[esp-4]
  0000c	83 f8 04	 cmp	 eax, 4
  0000f	74 0c		 je	 SHORT $L231763
  00011	83 f8 05	 cmp	 eax, 5
  00014	74 07		 je	 SHORT $L231763
  00016	83 f8 06	 cmp	 eax, 6
  00019	74 02		 je	 SHORT $L231763
$L231764:
  0001b	8b c2		 mov	 eax, edx
$L231763:
  0001d	53		 push	 ebx
  0001e	55		 push	 ebp

; 287  : 	DWORD dwRand	= xRandom( GetUpperProbability( iRandomOptionKindIndex ) );

  0001f	c1 e0 04	 shl	 eax, 4
  00022	56		 push	 esi
  00023	8d 34 08	 lea	 esi, DWORD PTR [eax+ecx]
  00026	8b 46 38	 mov	 eax, DWORD PTR [esi+56]
  00029	85 c0		 test	 eax, eax
  0002b	57		 push	 edi
  0002c	74 16		 je	 SHORT $L231836
$L231835:
  0002e	8b 4e 3c	 mov	 ecx, DWORD PTR [esi+60]
  00031	2b c8		 sub	 ecx, eax
  00033	b8 ab aa aa 2a	 mov	 eax, 715827883		; 2aaaaaabH
  00038	f7 e9		 imul	 ecx
  0003a	c1 fa 02	 sar	 edx, 2
  0003d	8b c2		 mov	 eax, edx
  0003f	c1 e8 1f	 shr	 eax, 31			; 0000001fH
  00042	03 c2		 add	 eax, edx
$L231836:
  00044	8b 4e 38	 mov	 ecx, DWORD PTR [esi+56]

; 292  : 		{
; 293  : 			return pRandomOption;
; 294  : 		}
; 295  : 	}
; 296  : 	return NULL;

  00047	8d 04 40	 lea	 eax, DWORD PTR [eax+eax*2]
  0004a	8d 44 c1 e8	 lea	 eax, DWORD PTR [ecx+eax*8-24]
  0004e	8b 48 04	 mov	 ecx, DWORD PTR [eax+4]
  00051	a1 00 00 00 00	 mov	 eax, DWORD PTR ?g_next@@3KA ; g_next
  00056	69 c0 6d 4e c6
	41		 imul	 eax, 1103515245		; 41c64e6dH
  0005c	05 39 30 00 00	 add	 eax, 12345		; 00003039H
  00061	33 d2		 xor	 edx, edx
  00063	a3 00 00 00 00	 mov	 DWORD PTR ?g_next@@3KA, eax ; g_next
  00068	f7 f1		 div	 ecx
  0006a	8b 5e 38	 mov	 ebx, DWORD PTR [esi+56]
  0006d	33 ff		 xor	 edi, edi
  0006f	33 ed		 xor	 ebp, ebp
  00071	89 54 24 14	 mov	 DWORD PTR _dwRand$[esp+12], edx
$L226534:

; 288  : 	for( DWORD i = 0; i < m_aRandomOption[iRandomOptionKindIndex].size(); i++ )

  00075	85 db		 test	 ebx, ebx
  00077	74 31		 je	 SHORT $L226536
  00079	8b 4e 3c	 mov	 ecx, DWORD PTR [esi+60]
  0007c	2b cb		 sub	 ecx, ebx
  0007e	b8 ab aa aa 2a	 mov	 eax, 715827883		; 2aaaaaabH
  00083	f7 e9		 imul	 ecx
  00085	c1 fa 02	 sar	 edx, 2
  00088	8b c2		 mov	 eax, edx
  0008a	c1 e8 1f	 shr	 eax, 31			; 0000001fH
  0008d	03 c2		 add	 eax, edx
  0008f	3b f8		 cmp	 edi, eax
  00091	73 17		 jae	 SHORT $L226536

; 289  : 	{
; 290  : 		RANDOM_OPTION* pRandomOption	= &m_aRandomOption[iRandomOptionKindIndex][i];

  00093	8b 46 38	 mov	 eax, DWORD PTR [esi+56]

; 291  : 		if( (int)( dwRand ) < pRandomOption->nProb )

  00096	8b 54 24 14	 mov	 edx, DWORD PTR _dwRand$[esp+12]
  0009a	8b 4c 28 04	 mov	 ecx, DWORD PTR [eax+ebp+4]
  0009e	03 c5		 add	 eax, ebp
  000a0	3b d1		 cmp	 edx, ecx
  000a2	7c 08		 jl	 SHORT $L226530
  000a4	47		 inc	 edi
  000a5	83 c5 18	 add	 ebp, 24			; 00000018H
  000a8	eb cb		 jmp	 SHORT $L226534
$L226536:

; 292  : 		{
; 293  : 			return pRandomOption;
; 294  : 		}
; 295  : 	}
; 296  : 	return NULL;

  000aa	33 c0		 xor	 eax, eax
$L226530:
  000ac	5f		 pop	 edi
  000ad	5e		 pop	 esi
  000ae	5d		 pop	 ebp
  000af	5b		 pop	 ebx

; 297  : }

  000b0	c2 08 00	 ret	 8
?DetermineRandomOptionDst@CRandomOptionProperty@@AAEPAU_RANDOM_OPTION@@HH@Z ENDP ; CRandomOptionProperty::DetermineRandomOptionDst
_TEXT	ENDS
PUBLIC	?_Tidy@?$vector@U_AdjData@@V?$allocator@U_AdjData@@@std@@@std@@IAEXXZ ; std::vector<_AdjData,std::allocator<_AdjData> >::_Tidy
; Function compile flags: /Ogty
; File c:\program files\microsoft visual studio .net 2003\vc7\include\vector
;	COMDAT ?_Tidy@?$vector@U_AdjData@@V?$allocator@U_AdjData@@@std@@@std@@IAEXXZ
_TEXT	SEGMENT
?_Tidy@?$vector@U_AdjData@@V?$allocator@U_AdjData@@@std@@@std@@IAEXXZ PROC NEAR ; std::vector<_AdjData,std::allocator<_AdjData> >::_Tidy, COMDAT
; _this$ = ecx

; 791  : 		{	// free all storage

  00000	56		 push	 esi
  00001	8b f1		 mov	 esi, ecx

; 792  : 		if (_Myfirst != 0)

  00003	8b 46 04	 mov	 eax, DWORD PTR [esi+4]
  00006	85 c0		 test	 eax, eax
  00008	74 09		 je	 SHORT $L231937

; 793  : 			{	// something to free, destroy and deallocate it
; 794  : 			_Destroy(_Myfirst, _Mylast);
; 795  : 			this->_Alval.deallocate(_Myfirst, _Myend - _Myfirst);

  0000a	50		 push	 eax
  0000b	e8 00 00 00 00	 call	 ??3@YAXPAX@Z		; operator delete
  00010	83 c4 04	 add	 esp, 4
$L231937:

; 796  : 			}
; 797  : 		_Myfirst = 0, _Mylast = 0, _Myend = 0;

  00013	c7 46 04 00 00
	00 00		 mov	 DWORD PTR [esi+4], 0
  0001a	c7 46 08 00 00
	00 00		 mov	 DWORD PTR [esi+8], 0
  00021	c7 46 0c 00 00
	00 00		 mov	 DWORD PTR [esi+12], 0
  00028	5e		 pop	 esi

; 798  : 		}

  00029	c3		 ret	 0
?_Tidy@?$vector@U_AdjData@@V?$allocator@U_AdjData@@@std@@@std@@IAEXXZ ENDP ; std::vector<_AdjData,std::allocator<_AdjData> >::_Tidy
_TEXT	ENDS
PUBLIC	??0?$basic_string@DU?$char_traits@D@std@@V?$allocator@D@2@@std@@QAE@ABV01@@Z ; std::basic_string<char,std::char_traits<char>,std::allocator<char> >::basic_string<char,std::char_traits<char>,std::allocator<char> >
; Function compile flags: /Ogty
; File c:\program files\microsoft visual studio .net 2003\vc7\include\xstring
;	COMDAT ??0?$basic_string@DU?$char_traits@D@std@@V?$allocator@D@2@@std@@QAE@ABV01@@Z
_TEXT	SEGMENT
__Right$ = 8						; size = 4
??0?$basic_string@DU?$char_traits@D@std@@V?$allocator@D@2@@std@@QAE@ABV01@@Z PROC NEAR ; std::basic_string<char,std::char_traits<char>,std::allocator<char> >::basic_string<char,std::char_traits<char>,std::allocator<char> >, COMDAT
; _this$ = ecx

; 323  : 		{	// construct by copying _Right

  00000	56		 push	 esi

; 324  : 		_Tidy();

  00001	33 c0		 xor	 eax, eax
  00003	8b f1		 mov	 esi, ecx

; 325  : 		assign(_Right, 0, npos);

  00005	6a ff		 push	 -1
  00007	89 46 14	 mov	 DWORD PTR [esi+20], eax
  0000a	c7 46 18 0f 00
	00 00		 mov	 DWORD PTR [esi+24], 15	; 0000000fH
  00011	50		 push	 eax
  00012	88 46 04	 mov	 BYTE PTR [esi+4], al
  00015	8b 44 24 10	 mov	 eax, DWORD PTR __Right$[esp+8]
  00019	50		 push	 eax
  0001a	e8 00 00 00 00	 call	 ?assign@?$basic_string@DU?$char_traits@D@std@@V?$allocator@D@2@@std@@QAEAAV12@ABV12@II@Z ; std::basic_string<char,std::char_traits<char>,std::allocator<char> >::assign

; 326  : 		}

  0001f	8b c6		 mov	 eax, esi
  00021	5e		 pop	 esi
  00022	c2 04 00	 ret	 4
??0?$basic_string@DU?$char_traits@D@std@@V?$allocator@D@2@@std@@QAE@ABV01@@Z ENDP ; std::basic_string<char,std::char_traits<char>,std::allocator<char> >::basic_string<char,std::char_traits<char>,std::allocator<char> >
_TEXT	ENDS
PUBLIC	?assign@?$basic_string@DU?$char_traits@D@std@@V?$allocator@D@2@@std@@QAEAAV12@PBD@Z ; std::basic_string<char,std::char_traits<char>,std::allocator<char> >::assign
; Function compile flags: /Ogty
;	COMDAT ?assign@?$basic_string@DU?$char_traits@D@std@@V?$allocator@D@2@@std@@QAEAAV12@PBD@Z
_TEXT	SEGMENT
__Ptr$ = 8						; size = 4
?assign@?$basic_string@DU?$char_traits@D@std@@V?$allocator@D@2@@std@@QAEAAV12@PBD@Z PROC NEAR ; std::basic_string<char,std::char_traits<char>,std::allocator<char> >::assign, COMDAT
; _this$ = ecx

; 621  : 		{	// assign [_Ptr, <null>)

  00000	56		 push	 esi

; 622  : 		return (assign(_Ptr, _Traits::length(_Ptr)));

  00001	8b 74 24 08	 mov	 esi, DWORD PTR __Ptr$[esp]
  00005	8b c6		 mov	 eax, esi
  00007	57		 push	 edi
  00008	8d 78 01	 lea	 edi, DWORD PTR [eax+1]
  0000b	eb 03 8d 49 00	 npad	 5
$L232013:
  00010	8a 10		 mov	 dl, BYTE PTR [eax]
  00012	40		 inc	 eax
  00013	84 d2		 test	 dl, dl
  00015	75 f9		 jne	 SHORT $L232013
  00017	2b c7		 sub	 eax, edi
  00019	50		 push	 eax
  0001a	56		 push	 esi
  0001b	e8 00 00 00 00	 call	 ?assign@?$basic_string@DU?$char_traits@D@std@@V?$allocator@D@2@@std@@QAEAAV12@PBDI@Z ; std::basic_string<char,std::char_traits<char>,std::allocator<char> >::assign
  00020	5f		 pop	 edi
  00021	5e		 pop	 esi

; 623  : 		}

  00022	c2 04 00	 ret	 4
?assign@?$basic_string@DU?$char_traits@D@std@@V?$allocator@D@2@@std@@QAEAAV12@PBD@Z ENDP ; std::basic_string<char,std::char_traits<char>,std::allocator<char> >::assign
_TEXT	ENDS
PUBLIC	?GenRandomOption@CRandomOptionProperty@@QAEHPA_JHH_N@Z ; CRandomOptionProperty::GenRandomOption
; Function compile flags: /Ogty
; File c:\documents and settings\test\mes documents\source\virtuos_v17\build\program\_common\randomoption.cpp
;	COMDAT ?GenRandomOption@CRandomOptionProperty@@QAEHPA_JHH_N@Z
_TEXT	SEGMENT
_bDecreaseAdj$226510 = -8				; size = 1
$T232032 = -4						; size = 4
_nDecreaseNumber$ = 8					; size = 4
_pnRandomOptItemId$ = 8					; size = 4
_nRandomOptionKind$ = 12				; size = 4
_nParts$ = 16						; size = 4
_nRandomOptionSize$ = 20				; size = 4
_bDecreaseFlag$ = 20					; size = 1
?GenRandomOption@CRandomOptionProperty@@QAEHPA_JHH_N@Z PROC NEAR ; CRandomOptionProperty::GenRandomOption, COMDAT
; _this$ = ecx

; 227  : { 

  00000	83 ec 08	 sub	 esp, 8
  00003	53		 push	 ebx

; 228  : 	if( GetRandomOptionSize( *pnRandomOptItemId )  > 0 )

  00004	8b 5c 24 10	 mov	 ebx, DWORD PTR _pnRandomOptItemId$[esp+8]
  00008	8b 43 04	 mov	 eax, DWORD PTR [ebx+4]
  0000b	55		 push	 ebp
  0000c	8b e9		 mov	 ebp, ecx
  0000e	8b 0b		 mov	 ecx, DWORD PTR [ebx]
  00010	50		 push	 eax
  00011	51		 push	 ecx
  00012	8b cd		 mov	 ecx, ebp
  00014	e8 00 00 00 00	 call	 ?GetRandomOptionSize@CRandomOptionProperty@@QAEH_J@Z ; CRandomOptionProperty::GetRandomOptionSize
  00019	85 c0		 test	 eax, eax
  0001b	7e 0a		 jle	 SHORT $L226501
  0001d	5d		 pop	 ebp

; 229  : 	{
; 230  : 		return FALSE;

  0001e	33 c0		 xor	 eax, eax
  00020	5b		 pop	 ebx

; 270  : }

  00021	83 c4 08	 add	 esp, 8
  00024	c2 10 00	 ret	 16			; 00000010H
$L226501:

; 231  : 	}
; 232  : 
; 233  : 	int nRandomOptionSize	= DetermineRandomOptionSize( nRandomOptionKind );

  00027	8b 54 24 18	 mov	 edx, DWORD PTR _nRandomOptionKind$[esp+12]
  0002b	57		 push	 edi
  0002c	52		 push	 edx
  0002d	8b cd		 mov	 ecx, ebp
  0002f	e8 00 00 00 00	 call	 ?DetermineRandomOptionSize@CRandomOptionProperty@@AAEHH@Z ; CRandomOptionProperty::DetermineRandomOptionSize
  00034	8b f8		 mov	 edi, eax

; 234  : 
; 235  : 	//	mulcom	BEGIN100405	  
; 236  : 	int	nDecreaseNumber	= -1;
; 237  : 
; 238  : 	if( bDecreaseFlag == true )

  00036	80 7c 24 24 01	 cmp	 BYTE PTR _bDecreaseFlag$[esp+16], 1
  0003b	c7 44 24 18 ff
	ff ff ff	 mov	 DWORD PTR _nDecreaseNumber$[esp+16], -1
  00043	75 1d		 jne	 SHORT $L232034

; 239  : 	{
; 240  : 		nDecreaseNumber = xRandom( nRandomOptionSize );

  00045	a1 00 00 00 00	 mov	 eax, DWORD PTR ?g_next@@3KA ; g_next
  0004a	69 c0 6d 4e c6
	41		 imul	 eax, 1103515245		; 41c64e6dH
  00050	05 39 30 00 00	 add	 eax, 12345		; 00003039H
  00055	33 d2		 xor	 edx, edx
  00057	a3 00 00 00 00	 mov	 DWORD PTR ?g_next@@3KA, eax ; g_next
  0005c	f7 f7		 div	 edi
  0005e	89 54 24 18	 mov	 DWORD PTR _nDecreaseNumber$[esp+16], edx
$L232034:

; 241  : 	}
; 242  : 	//	mulcom	END100405	  
; 243  : 
; 244  : 	
; 245  : 	while( nRandomOptionSize-- > 0 )

  00062	85 ff		 test	 edi, edi
  00064	0f 8e 9b 00 00
	00		 jle	 $L232035
  0006a	56		 push	 esi
  0006b	eb 04		 jmp	 SHORT $L226506
$L232036:
  0006d	8b 7c 24 28	 mov	 edi, DWORD PTR _nRandomOptionSize$[esp+20]
$L226506:

; 246  : 	{
; 247  : 		RANDOM_OPTION* pRandomOption	= DetermineRandomOptionDst( nRandomOptionKind, nParts );

  00071	8b 44 24 24	 mov	 eax, DWORD PTR _nParts$[esp+20]
  00075	8b 4c 24 20	 mov	 ecx, DWORD PTR _nRandomOptionKind$[esp+20]
  00079	50		 push	 eax
  0007a	51		 push	 ecx
  0007b	4f		 dec	 edi
  0007c	8b cd		 mov	 ecx, ebp
  0007e	89 7c 24 30	 mov	 DWORD PTR _nRandomOptionSize$[esp+28], edi
  00082	e8 00 00 00 00	 call	 ?DetermineRandomOptionDst@CRandomOptionProperty@@AAEPAU_RANDOM_OPTION@@HH@Z ; CRandomOptionProperty::DetermineRandomOptionDst

; 248  : 		ASSERT( pRandomOption );
; 249  : 
; 250  : 
; 251  : 		//	mulcom	BEGIN100405	  
; 252  : 		//short nAdj	= DetermineRandomOptionAdj( pRandomOption );
; 253  : 		bool	bDecreaseAdj	= false;
; 254  : 
; 255  : 		if( nRandomOptionSize == nDecreaseNumber )

  00087	3b 7c 24 1c	 cmp	 edi, DWORD PTR _nDecreaseNumber$[esp+20]
  0008b	0f 94 c2	 sete	 dl
  0008e	8b f0		 mov	 esi, eax
  00090	88 54 24 10	 mov	 BYTE PTR _bDecreaseAdj$226510[esp+24], dl

; 256  : 		{
; 257  : 			bDecreaseAdj = true;
; 258  : 		}
; 259  : 		else
; 260  : 		{
; 261  : 			bDecreaseAdj = false;
; 262  : 		}
; 263  : 
; 264  : 		short nAdj	= DetermineRandomOptionAdj( pRandomOption, bDecreaseAdj );

  00094	8b 44 24 10	 mov	 eax, DWORD PTR _bDecreaseAdj$226510[esp+24]
  00098	50		 push	 eax
  00099	56		 push	 esi
  0009a	8b cd		 mov	 ecx, ebp
  0009c	e8 00 00 00 00	 call	 ?DetermineRandomOptionAdj@CRandomOptionProperty@@AAEFPAU_RANDOM_OPTION@@_N@Z ; CRandomOptionProperty::DetermineRandomOptionAdj

; 265  : 		//	mulcom	END100405	  
; 266  : 
; 267  : 		SetParam( pnRandomOptItemId, pRandomOption->nDst, nAdj );

  000a1	0f bf c8	 movsx	 ecx, ax
  000a4	8b 03		 mov	 eax, DWORD PTR [ebx]
  000a6	89 4c 24 14	 mov	 DWORD PTR $T232032[esp+24], ecx
  000aa	8b 4b 04	 mov	 ecx, DWORD PTR [ebx+4]
  000ad	51		 push	 ecx
  000ae	50		 push	 eax
  000af	8b cd		 mov	 ecx, ebp
  000b1	e8 00 00 00 00	 call	 ?GetRandomOptionSize@CRandomOptionProperty@@QAEH_J@Z ; CRandomOptionProperty::GetRandomOptionSize
  000b6	8b c8		 mov	 ecx, eax
  000b8	8b 06		 mov	 eax, DWORD PTR [esi]
  000ba	99		 cdq
  000bb	8b f0		 mov	 esi, eax
  000bd	8b 44 24 14	 mov	 eax, DWORD PTR $T232032[esp+24]
  000c1	8b fa		 mov	 edi, edx
  000c3	0f a4 f7 0a	 shld	 edi, esi, 10
  000c7	c1 e6 0a	 shl	 esi, 10			; 0000000aH
  000ca	85 c0		 test	 eax, eax
  000cc	7d 07		 jge	 SHORT $L232029
  000ce	f7 d8		 neg	 eax

; 268  : 	}
; 269  : 	return TRUE;

  000d0	0d 00 02 00 00	 or	 eax, 512		; 00000200H
$L232029:
  000d5	99		 cdq
  000d6	0b f0		 or	 esi, eax
  000d8	0b fa		 or	 edi, edx
  000da	8d 0c c9	 lea	 ecx, DWORD PTR [ecx+ecx*8]
  000dd	8d 4c 09 08	 lea	 ecx, DWORD PTR [ecx+ecx+8]
  000e1	8b c6		 mov	 eax, esi
  000e3	8b d7		 mov	 edx, edi
  000e5	e8 00 00 00 00	 call	 __allshl
  000ea	8b 33		 mov	 esi, DWORD PTR [ebx]
  000ec	8b 4b 04	 mov	 ecx, DWORD PTR [ebx+4]
  000ef	0b c6		 or	 eax, esi
  000f1	89 03		 mov	 DWORD PTR [ebx], eax
  000f3	8b 44 24 28	 mov	 eax, DWORD PTR _nRandomOptionSize$[esp+20]
  000f7	0b d1		 or	 edx, ecx
  000f9	85 c0		 test	 eax, eax
  000fb	89 53 04	 mov	 DWORD PTR [ebx+4], edx
  000fe	0f 8f 69 ff ff
	ff		 jg	 $L232036
  00104	5e		 pop	 esi
$L232035:
  00105	5f		 pop	 edi
  00106	5d		 pop	 ebp
  00107	b8 01 00 00 00	 mov	 eax, 1
  0010c	5b		 pop	 ebx

; 270  : }

  0010d	83 c4 08	 add	 esp, 8
  00110	c2 10 00	 ret	 16			; 00000010H
?GenRandomOption@CRandomOptionProperty@@QAEHPA_JHH_N@Z ENDP ; CRandomOptionProperty::GenRandomOption
_TEXT	ENDS
PUBLIC	??1?$vector@U_AdjData@@V?$allocator@U_AdjData@@@std@@@std@@QAE@XZ ; std::vector<_AdjData,std::allocator<_AdjData> >::~vector<_AdjData,std::allocator<_AdjData> >
; Function compile flags: /Ogty
; File c:\program files\microsoft visual studio .net 2003\vc7\include\vector
;	COMDAT ??1?$vector@U_AdjData@@V?$allocator@U_AdjData@@@std@@@std@@QAE@XZ
_TEXT	SEGMENT
??1?$vector@U_AdjData@@V?$allocator@U_AdjData@@@std@@@std@@QAE@XZ PROC NEAR ; std::vector<_AdjData,std::allocator<_AdjData> >::~vector<_AdjData,std::allocator<_AdjData> >, COMDAT
; _this$ = ecx

; 387  : 		{	// destroy the object

  00000	56		 push	 esi
  00001	8b f1		 mov	 esi, ecx

; 388  : 		_Tidy();

  00003	8b 46 04	 mov	 eax, DWORD PTR [esi+4]
  00006	85 c0		 test	 eax, eax
  00008	74 09		 je	 SHORT $L232048
  0000a	50		 push	 eax
  0000b	e8 00 00 00 00	 call	 ??3@YAXPAX@Z		; operator delete
  00010	83 c4 04	 add	 esp, 4
$L232048:
  00013	c7 46 04 00 00
	00 00		 mov	 DWORD PTR [esi+4], 0
  0001a	c7 46 08 00 00
	00 00		 mov	 DWORD PTR [esi+8], 0
  00021	c7 46 0c 00 00
	00 00		 mov	 DWORD PTR [esi+12], 0
  00028	5e		 pop	 esi

; 389  : 		}

  00029	c3		 ret	 0
??1?$vector@U_AdjData@@V?$allocator@U_AdjData@@@std@@@std@@QAE@XZ ENDP ; std::vector<_AdjData,std::allocator<_AdjData> >::~vector<_AdjData,std::allocator<_AdjData> >
_TEXT	ENDS
PUBLIC	?clear@?$vector@U_AdjData@@V?$allocator@U_AdjData@@@std@@@std@@QAEXXZ ; std::vector<_AdjData,std::allocator<_AdjData> >::clear
; Function compile flags: /Ogty
;	COMDAT ?clear@?$vector@U_AdjData@@V?$allocator@U_AdjData@@@std@@@std@@QAEXXZ
_TEXT	SEGMENT
?clear@?$vector@U_AdjData@@V?$allocator@U_AdjData@@@std@@@std@@QAEXXZ PROC NEAR ; std::vector<_AdjData,std::allocator<_AdjData> >::clear, COMDAT
; _this$ = ecx

; 743  : 		{	// erase all

  00000	56		 push	 esi
  00001	8b f1		 mov	 esi, ecx

; 744  : 		_Tidy();

  00003	8b 46 04	 mov	 eax, DWORD PTR [esi+4]
  00006	85 c0		 test	 eax, eax
  00008	74 09		 je	 SHORT $L232062
  0000a	50		 push	 eax
  0000b	e8 00 00 00 00	 call	 ??3@YAXPAX@Z		; operator delete
  00010	83 c4 04	 add	 esp, 4
$L232062:
  00013	c7 46 04 00 00
	00 00		 mov	 DWORD PTR [esi+4], 0
  0001a	c7 46 08 00 00
	00 00		 mov	 DWORD PTR [esi+8], 0
  00021	c7 46 0c 00 00
	00 00		 mov	 DWORD PTR [esi+12], 0
  00028	5e		 pop	 esi

; 745  : 		}

  00029	c3		 ret	 0
?clear@?$vector@U_AdjData@@V?$allocator@U_AdjData@@@std@@@std@@QAEXXZ ENDP ; std::vector<_AdjData,std::allocator<_AdjData> >::clear
_TEXT	ENDS
PUBLIC	??0logic_error@std@@QAE@ABV?$basic_string@DU?$char_traits@D@std@@V?$allocator@D@2@@1@@Z ; std::logic_error::logic_error
EXTRN	??0exception@@QAE@XZ:NEAR			; exception::exception
;	COMDAT xdata$x
; File c:\program files\microsoft visual studio .net 2003\vc7\include\iosfwd
xdata$x	SEGMENT
$T232168 DD	0ffffffffH
	DD	FLAT:$L232068
$T232166 DD	019930520H
	DD	01H
	DD	FLAT:$T232168
	DD	2 DUP(00H)
	DD	2 DUP(00H)
; Function compile flags: /Ogty
; File c:\program files\microsoft visual studio .net 2003\vc7\include\stdexcept
xdata$x	ENDS
;	COMDAT ??0logic_error@std@@QAE@ABV?$basic_string@DU?$char_traits@D@std@@V?$allocator@D@2@@1@@Z
_TEXT	SEGMENT
_this$ = -16						; size = 4
__$EHRec$ = -12						; size = 12
__Message$ = 8						; size = 4
??0logic_error@std@@QAE@ABV?$basic_string@DU?$char_traits@D@std@@V?$allocator@D@2@@1@@Z PROC NEAR ; std::logic_error::logic_error, COMDAT
; _this$ = ecx

; 19   : 		{	// construct from message string

  00000	6a ff		 push	 -1
  00002	68 00 00 00 00	 push	 __ehhandler$??0logic_error@std@@QAE@ABV?$basic_string@DU?$char_traits@D@std@@V?$allocator@D@2@@1@@Z
  00007	64 a1 00 00 00
	00		 mov	 eax, DWORD PTR fs:__except_list
  0000d	50		 push	 eax
  0000e	64 89 25 00 00
	00 00		 mov	 DWORD PTR fs:__except_list, esp
  00015	51		 push	 ecx
  00016	56		 push	 esi
  00017	8b f1		 mov	 esi, ecx
  00019	89 74 24 04	 mov	 DWORD PTR _this$[esp+20], esi
  0001d	e8 00 00 00 00	 call	 ??0exception@@QAE@XZ	; exception::exception
  00022	33 c0		 xor	 eax, eax
  00024	8d 4e 0c	 lea	 ecx, DWORD PTR [esi+12]
  00027	c7 06 00 00 00
	00		 mov	 DWORD PTR [esi], OFFSET FLAT:??_7logic_error@std@@6B@
  0002d	6a ff		 push	 -1
  0002f	89 41 14	 mov	 DWORD PTR [ecx+20], eax
  00032	c7 41 18 0f 00
	00 00		 mov	 DWORD PTR [ecx+24], 15	; 0000000fH
  00039	50		 push	 eax
  0003a	89 44 24 18	 mov	 DWORD PTR __$EHRec$[esp+36], eax
  0003e	88 41 04	 mov	 BYTE PTR [ecx+4], al
  00041	8b 44 24 20	 mov	 eax, DWORD PTR __Message$[esp+24]
  00045	50		 push	 eax
  00046	e8 00 00 00 00	 call	 ?assign@?$basic_string@DU?$char_traits@D@std@@V?$allocator@D@2@@std@@QAEAAV12@ABV12@II@Z ; std::basic_string<char,std::char_traits<char>,std::allocator<char> >::assign

; 20   : 		}

  0004b	8b 4c 24 08	 mov	 ecx, DWORD PTR __$EHRec$[esp+20]
  0004f	8b c6		 mov	 eax, esi
  00051	5e		 pop	 esi
  00052	64 89 0d 00 00
	00 00		 mov	 DWORD PTR fs:__except_list, ecx
  00059	83 c4 10	 add	 esp, 16			; 00000010H
  0005c	c2 04 00	 ret	 4
_TEXT	ENDS
;	COMDAT text$x
text$x	SEGMENT
$L232068:
  00000	8b 4d f0	 mov	 ecx, DWORD PTR _this$[ebp]
  00003	e9 00 00 00 00	 jmp	 ??1exception@@UAE@XZ	; exception::~exception
__ehhandler$??0logic_error@std@@QAE@ABV?$basic_string@DU?$char_traits@D@std@@V?$allocator@D@2@@1@@Z:
  00008	b8 00 00 00 00	 mov	 eax, OFFSET FLAT:$T232166
  0000d	e9 00 00 00 00	 jmp	 ___CxxFrameHandler
text$x	ENDS
??0logic_error@std@@QAE@ABV?$basic_string@DU?$char_traits@D@std@@V?$allocator@D@2@@1@@Z ENDP ; std::logic_error::logic_error
PUBLIC	??0length_error@std@@QAE@ABV?$basic_string@DU?$char_traits@D@std@@V?$allocator@D@2@@1@@Z ; std::length_error::length_error
PUBLIC	??_7length_error@std@@6B@			; std::length_error::`vftable'
PUBLIC	??_Glength_error@std@@UAEPAXI@Z			; std::length_error::`scalar deleting destructor'
EXTRN	??_Elength_error@std@@UAEPAXI@Z:NEAR		; std::length_error::`vector deleting destructor'
;	COMDAT ??_7length_error@std@@6B@
CONST	SEGMENT
??_7length_error@std@@6B@ DD FLAT:??_Elength_error@std@@UAEPAXI@Z ; std::length_error::`vftable'
	DD	FLAT:?what@logic_error@std@@UBEPBDXZ
; Function compile flags: /Ogty
CONST	ENDS
;	COMDAT ??0length_error@std@@QAE@ABV?$basic_string@DU?$char_traits@D@std@@V?$allocator@D@2@@1@@Z
_TEXT	SEGMENT
__Message$ = 8						; size = 4
??0length_error@std@@QAE@ABV?$basic_string@DU?$char_traits@D@std@@V?$allocator@D@2@@1@@Z PROC NEAR ; std::length_error::length_error, COMDAT
; _this$ = ecx

; 95   : 		{	// construct from message string

  00000	8b 44 24 04	 mov	 eax, DWORD PTR __Message$[esp-4]
  00004	56		 push	 esi
  00005	50		 push	 eax
  00006	8b f1		 mov	 esi, ecx
  00008	e8 00 00 00 00	 call	 ??0logic_error@std@@QAE@ABV?$basic_string@DU?$char_traits@D@std@@V?$allocator@D@2@@1@@Z ; std::logic_error::logic_error
  0000d	c7 06 00 00 00
	00		 mov	 DWORD PTR [esi], OFFSET FLAT:??_7length_error@std@@6B@

; 96   : 		}

  00013	8b c6		 mov	 eax, esi
  00015	5e		 pop	 esi
  00016	c2 04 00	 ret	 4
??0length_error@std@@QAE@ABV?$basic_string@DU?$char_traits@D@std@@V?$allocator@D@2@@1@@Z ENDP ; std::length_error::length_error
_TEXT	ENDS
PUBLIC	??1length_error@std@@UAE@XZ			; std::length_error::~length_error
; Function compile flags: /Ogty
;	COMDAT ??_Glength_error@std@@UAEPAXI@Z
_TEXT	SEGMENT
___flags$ = 8						; size = 4
??_Glength_error@std@@UAEPAXI@Z PROC NEAR		; std::length_error::`scalar deleting destructor', COMDAT
; _this$ = ecx
  00000	56		 push	 esi
  00001	8b f1		 mov	 esi, ecx
  00003	e8 00 00 00 00	 call	 ??1length_error@std@@UAE@XZ ; std::length_error::~length_error
  00008	f6 44 24 08 01	 test	 BYTE PTR ___flags$[esp], 1
  0000d	74 09		 je	 SHORT $L232178
  0000f	56		 push	 esi
  00010	e8 00 00 00 00	 call	 ??3@YAXPAX@Z		; operator delete
  00015	83 c4 04	 add	 esp, 4
$L232178:
  00018	8b c6		 mov	 eax, esi
  0001a	5e		 pop	 esi
  0001b	c2 04 00	 ret	 4
??_Glength_error@std@@UAEPAXI@Z ENDP			; std::length_error::`scalar deleting destructor'
; Function compile flags: /Ogty
_TEXT	ENDS
;	COMDAT ??1length_error@std@@UAE@XZ
_TEXT	SEGMENT
??1length_error@std@@UAE@XZ PROC NEAR			; std::length_error::~length_error, COMDAT
; _this$ = ecx

; 99   : 		{}	// destroy the object

  00000	56		 push	 esi
  00001	8b f1		 mov	 esi, ecx
  00003	c7 06 00 00 00
	00		 mov	 DWORD PTR [esi], OFFSET FLAT:??_7logic_error@std@@6B@
  00009	83 7e 24 10	 cmp	 DWORD PTR [esi+36], 16	; 00000010H
  0000d	72 0c		 jb	 SHORT $L232266
  0000f	8b 46 10	 mov	 eax, DWORD PTR [esi+16]
  00012	50		 push	 eax
  00013	e8 00 00 00 00	 call	 ??3@YAXPAX@Z		; operator delete
  00018	83 c4 04	 add	 esp, 4
$L232266:
  0001b	33 c0		 xor	 eax, eax
  0001d	c7 46 24 0f 00
	00 00		 mov	 DWORD PTR [esi+36], 15	; 0000000fH
  00024	89 46 20	 mov	 DWORD PTR [esi+32], eax
  00027	88 46 10	 mov	 BYTE PTR [esi+16], al
  0002a	8b ce		 mov	 ecx, esi
  0002c	5e		 pop	 esi
  0002d	e9 00 00 00 00	 jmp	 ??1exception@@UAE@XZ	; exception::~exception
??1length_error@std@@UAE@XZ ENDP			; std::length_error::~length_error
_TEXT	ENDS
PUBLIC	??0?$basic_string@DU?$char_traits@D@std@@V?$allocator@D@2@@std@@QAE@PBD@Z ; std::basic_string<char,std::char_traits<char>,std::allocator<char> >::basic_string<char,std::char_traits<char>,std::allocator<char> >
; Function compile flags: /Ogty
; File c:\program files\microsoft visual studio .net 2003\vc7\include\xstring
;	COMDAT ??0?$basic_string@DU?$char_traits@D@std@@V?$allocator@D@2@@std@@QAE@PBD@Z
_TEXT	SEGMENT
__Ptr$ = 8						; size = 4
??0?$basic_string@DU?$char_traits@D@std@@V?$allocator@D@2@@std@@QAE@PBD@Z PROC NEAR ; std::basic_string<char,std::char_traits<char>,std::allocator<char> >::basic_string<char,std::char_traits<char>,std::allocator<char> >, COMDAT
; _this$ = ecx

; 361  : 		_Tidy();
; 362  : 		assign(_Ptr);

  00000	8b 54 24 04	 mov	 edx, DWORD PTR __Ptr$[esp-4]
  00004	56		 push	 esi
  00005	8b f1		 mov	 esi, ecx
  00007	8b c2		 mov	 eax, edx
  00009	57		 push	 edi
  0000a	c7 46 18 0f 00
	00 00		 mov	 DWORD PTR [esi+24], 15	; 0000000fH
  00011	c7 46 14 00 00
	00 00		 mov	 DWORD PTR [esi+20], 0
  00018	c6 46 04 00	 mov	 BYTE PTR [esi+4], 0
  0001c	8d 78 01	 lea	 edi, DWORD PTR [eax+1]
  0001f	90		 npad	 1
$L232360:
  00020	8a 08		 mov	 cl, BYTE PTR [eax]
  00022	40		 inc	 eax
  00023	84 c9		 test	 cl, cl
  00025	75 f9		 jne	 SHORT $L232360
  00027	2b c7		 sub	 eax, edi
  00029	50		 push	 eax
  0002a	52		 push	 edx
  0002b	8b ce		 mov	 ecx, esi
  0002d	e8 00 00 00 00	 call	 ?assign@?$basic_string@DU?$char_traits@D@std@@V?$allocator@D@2@@std@@QAEAAV12@PBDI@Z ; std::basic_string<char,std::char_traits<char>,std::allocator<char> >::assign
  00032	5f		 pop	 edi

; 363  : 		}

  00033	8b c6		 mov	 eax, esi
  00035	5e		 pop	 esi
  00036	c2 04 00	 ret	 4
??0?$basic_string@DU?$char_traits@D@std@@V?$allocator@D@2@@std@@QAE@PBD@Z ENDP ; std::basic_string<char,std::char_traits<char>,std::allocator<char> >::basic_string<char,std::char_traits<char>,std::allocator<char> >
_TEXT	ENDS
PUBLIC	??1_RANDOM_OPTION@@QAE@XZ			; _RANDOM_OPTION::~_RANDOM_OPTION
; Function compile flags: /Ogty
;	COMDAT ??1_RANDOM_OPTION@@QAE@XZ
_TEXT	SEGMENT
??1_RANDOM_OPTION@@QAE@XZ PROC NEAR			; _RANDOM_OPTION::~_RANDOM_OPTION, COMDAT
; _this$ = ecx
  00000	56		 push	 esi
  00001	8b f1		 mov	 esi, ecx
  00003	8b 46 0c	 mov	 eax, DWORD PTR [esi+12]
  00006	85 c0		 test	 eax, eax
  00008	74 09		 je	 SHORT $L232382
  0000a	50		 push	 eax
  0000b	e8 00 00 00 00	 call	 ??3@YAXPAX@Z		; operator delete
  00010	83 c4 04	 add	 esp, 4
$L232382:
  00013	c7 46 0c 00 00
	00 00		 mov	 DWORD PTR [esi+12], 0
  0001a	c7 46 10 00 00
	00 00		 mov	 DWORD PTR [esi+16], 0
  00021	c7 46 14 00 00
	00 00		 mov	 DWORD PTR [esi+20], 0
  00028	5e		 pop	 esi
  00029	c3		 ret	 0
??1_RANDOM_OPTION@@QAE@XZ ENDP				; _RANDOM_OPTION::~_RANDOM_OPTION
_TEXT	ENDS
PUBLIC	??_C@_0BD@OLBABOEK@vector?$DMT?$DO?5too?5long?$AA@ ; `string'
PUBLIC	__TI3?AVlength_error@std@@
PUBLIC	__CTA3?AVlength_error@std@@
PUBLIC	??_R0?AVlength_error@std@@@8			; std::length_error `RTTI Type Descriptor'
PUBLIC	__CT??_R0?AVlength_error@std@@@8??0length_error@std@@QAE@ABV01@@Z40
PUBLIC	??_R0?AVlogic_error@std@@@8			; std::logic_error `RTTI Type Descriptor'
PUBLIC	__CT??_R0?AVlogic_error@std@@@8??0logic_error@std@@QAE@ABV01@@Z40
PUBLIC	??_R0?AVexception@@@8				; exception `RTTI Type Descriptor'
PUBLIC	__CT??_R0?AVexception@@@8??0exception@@QAE@ABV0@@Z12
PUBLIC	?_Xlen@?$vector@U_AdjData@@V?$allocator@U_AdjData@@@std@@@std@@IBEXXZ ; std::vector<_AdjData,std::allocator<_AdjData> >::_Xlen
PUBLIC	??0logic_error@std@@QAE@ABV01@@Z		; std::logic_error::logic_error
PUBLIC	??0length_error@std@@QAE@ABV01@@Z		; std::length_error::length_error
EXTRN	??0exception@@QAE@ABV0@@Z:NEAR			; exception::exception
EXTRN	??_7type_info@@6B@:DWORD			; type_info::`vftable'
;	COMDAT xdata$x
; File c:\program files\microsoft visual studio .net 2003\vc7\include\stdexcept
xdata$x	SEGMENT
$T232505 DD	0ffffffffH
	DD	FLAT:$L232390
$T232502 DD	019930520H
	DD	01H
	DD	FLAT:$T232505
	DD	2 DUP(00H)
	DD	2 DUP(00H)
xdata$x	ENDS
;	COMDAT ??_C@_0BD@OLBABOEK@vector?$DMT?$DO?5too?5long?$AA@
CONST	SEGMENT
??_C@_0BD@OLBABOEK@vector?$DMT?$DO?5too?5long?$AA@ DB 'vector<T> too long'
	DB	00H						; `string'
CONST	ENDS
;	COMDAT __TI3?AVlength_error@std@@
xdata$x	SEGMENT
__TI3?AVlength_error@std@@ DD 00H
	DD	FLAT:??1length_error@std@@UAE@XZ
	DD	00H
	DD	FLAT:__CTA3?AVlength_error@std@@
xdata$x	ENDS
;	COMDAT __CTA3?AVlength_error@std@@
xdata$x	SEGMENT
__CTA3?AVlength_error@std@@ DD 03H
	DD	FLAT:__CT??_R0?AVlength_error@std@@@8??0length_error@std@@QAE@ABV01@@Z40
	DD	FLAT:__CT??_R0?AVlogic_error@std@@@8??0logic_error@std@@QAE@ABV01@@Z40
	DD	FLAT:__CT??_R0?AVexception@@@8??0exception@@QAE@ABV0@@Z12
xdata$x	ENDS
;	COMDAT __CT??_R0?AVlength_error@std@@@8??0length_error@std@@QAE@ABV01@@Z40
xdata$x	SEGMENT
__CT??_R0?AVlength_error@std@@@8??0length_error@std@@QAE@ABV01@@Z40 DD 00H
	DD	FLAT:??_R0?AVlength_error@std@@@8
	DD	00H
	DD	0ffffffffH
	ORG $+4
	DD	028H
	DD	FLAT:??0length_error@std@@QAE@ABV01@@Z
xdata$x	ENDS
;	COMDAT ??_R0?AVlength_error@std@@@8
_DATA	SEGMENT
??_R0?AVlength_error@std@@@8 DD FLAT:??_7type_info@@6B@	; std::length_error `RTTI Type Descriptor'
	DD	00H
	DB	'.?AVlength_error@std@@', 00H
_DATA	ENDS
;	COMDAT __CT??_R0?AVlogic_error@std@@@8??0logic_error@std@@QAE@ABV01@@Z40
xdata$x	SEGMENT
__CT??_R0?AVlogic_error@std@@@8??0logic_error@std@@QAE@ABV01@@Z40 DD 00H
	DD	FLAT:??_R0?AVlogic_error@std@@@8
	DD	00H
	DD	0ffffffffH
	ORG $+4
	DD	028H
	DD	FLAT:??0logic_error@std@@QAE@ABV01@@Z
xdata$x	ENDS
;	COMDAT ??_R0?AVlogic_error@std@@@8
_DATA	SEGMENT
??_R0?AVlogic_error@std@@@8 DD FLAT:??_7type_info@@6B@	; std::logic_error `RTTI Type Descriptor'
	DD	00H
	DB	'.?AVlogic_error@std@@', 00H
_DATA	ENDS
;	COMDAT __CT??_R0?AVexception@@@8??0exception@@QAE@ABV0@@Z12
xdata$x	SEGMENT
__CT??_R0?AVexception@@@8??0exception@@QAE@ABV0@@Z12 DD 00H
	DD	FLAT:??_R0?AVexception@@@8
	DD	00H
	DD	0ffffffffH
	ORG $+4
	DD	0cH
	DD	FLAT:??0exception@@QAE@ABV0@@Z
xdata$x	ENDS
;	COMDAT ??_R0?AVexception@@@8
_DATA	SEGMENT
??_R0?AVexception@@@8 DD FLAT:??_7type_info@@6B@	; exception `RTTI Type Descriptor'
	DD	00H
	DB	'.?AVexception@@', 00H
; Function compile flags: /Ogty
; File c:\program files\microsoft visual studio .net 2003\vc7\include\vector
_DATA	ENDS
;	COMDAT ?_Xlen@?$vector@U_AdjData@@V?$allocator@U_AdjData@@@std@@@std@@IBEXXZ
_TEXT	SEGMENT
$T232389 = -80						; size = 28
$T232388 = -52						; size = 40
__$EHRec$ = -12						; size = 12
?_Xlen@?$vector@U_AdjData@@V?$allocator@U_AdjData@@@std@@@std@@IBEXXZ PROC NEAR ; std::vector<_AdjData,std::allocator<_AdjData> >::_Xlen, COMDAT
; _this$ = ecx

; 883  : 		{	// report a length_error

  00000	6a ff		 push	 -1
  00002	68 00 00 00 00	 push	 __ehhandler$?_Xlen@?$vector@U_AdjData@@V?$allocator@U_AdjData@@@std@@@std@@IBEXXZ
  00007	64 a1 00 00 00
	00		 mov	 eax, DWORD PTR fs:__except_list
  0000d	50		 push	 eax
  0000e	64 89 25 00 00
	00 00		 mov	 DWORD PTR fs:__except_list, esp
  00015	83 ec 44	 sub	 esp, 68			; 00000044H

; 884  : 		_THROW(length_error, "vector<T> too long");

  00018	6a 12		 push	 18			; 00000012H
  0001a	68 00 00 00 00	 push	 OFFSET FLAT:??_C@_0BD@OLBABOEK@vector?$DMT?$DO?5too?5long?$AA@
  0001f	8d 4c 24 08	 lea	 ecx, DWORD PTR $T232389[esp+88]
  00023	c7 44 24 20 0f
	00 00 00	 mov	 DWORD PTR $T232389[esp+112], 15 ; 0000000fH
  0002b	c7 44 24 1c 00
	00 00 00	 mov	 DWORD PTR $T232389[esp+108], 0
  00033	c6 44 24 0c 00	 mov	 BYTE PTR $T232389[esp+92], 0
  00038	e8 00 00 00 00	 call	 ?assign@?$basic_string@DU?$char_traits@D@std@@V?$allocator@D@2@@std@@QAEAAV12@PBDI@Z ; std::basic_string<char,std::char_traits<char>,std::allocator<char> >::assign
  0003d	8d 04 24	 lea	 eax, DWORD PTR $T232389[esp+80]
  00040	50		 push	 eax
  00041	8d 4c 24 20	 lea	 ecx, DWORD PTR $T232388[esp+84]
  00045	c7 44 24 50 00
	00 00 00	 mov	 DWORD PTR __$EHRec$[esp+92], 0
  0004d	e8 00 00 00 00	 call	 ??0logic_error@std@@QAE@ABV?$basic_string@DU?$char_traits@D@std@@V?$allocator@D@2@@1@@Z ; std::logic_error::logic_error
  00052	68 00 00 00 00	 push	 OFFSET FLAT:__TI3?AVlength_error@std@@
  00057	8d 4c 24 20	 lea	 ecx, DWORD PTR $T232388[esp+84]
  0005b	51		 push	 ecx
  0005c	c7 44 24 24 00
	00 00 00	 mov	 DWORD PTR $T232388[esp+88], OFFSET FLAT:??_7length_error@std@@6B@
  00064	e8 00 00 00 00	 call	 __CxxThrowException@8
$L232506:
$L232504:
  00069	cc		 int	 3
_TEXT	ENDS
;	COMDAT text$x
text$x	SEGMENT
$L232390:
  00000	8d 4d b0	 lea	 ecx, DWORD PTR $T232389[ebp]
  00003	e9 00 00 00 00	 jmp	 ??1?$basic_string@DU?$char_traits@D@std@@V?$allocator@D@2@@std@@QAE@XZ ; std::basic_string<char,std::char_traits<char>,std::allocator<char> >::~basic_string<char,std::char_traits<char>,std::allocator<char> >
__ehhandler$?_Xlen@?$vector@U_AdjData@@V?$allocator@U_AdjData@@@std@@@std@@IBEXXZ:
  00008	b8 00 00 00 00	 mov	 eax, OFFSET FLAT:$T232502
  0000d	e9 00 00 00 00	 jmp	 ___CxxFrameHandler
text$x	ENDS
?_Xlen@?$vector@U_AdjData@@V?$allocator@U_AdjData@@@std@@@std@@IBEXXZ ENDP ; std::vector<_AdjData,std::allocator<_AdjData> >::_Xlen
;	COMDAT xdata$x
xdata$x	SEGMENT
$T232612 DD	0ffffffffH
	DD	FLAT:$L232512
$T232610 DD	019930520H
	DD	01H
	DD	FLAT:$T232612
	DD	2 DUP(00H)
	DD	2 DUP(00H)
; Function compile flags: /Ogty
xdata$x	ENDS
;	COMDAT ??0logic_error@std@@QAE@ABV01@@Z
_TEXT	SEGMENT
_this$ = -16						; size = 4
__$EHRec$ = -12						; size = 12
___that$ = 8						; size = 4
??0logic_error@std@@QAE@ABV01@@Z PROC NEAR		; std::logic_error::logic_error, COMDAT
; _this$ = ecx
  00000	6a ff		 push	 -1
  00002	68 00 00 00 00	 push	 __ehhandler$??0logic_error@std@@QAE@ABV01@@Z
  00007	64 a1 00 00 00
	00		 mov	 eax, DWORD PTR fs:__except_list
  0000d	50		 push	 eax
  0000e	64 89 25 00 00
	00 00		 mov	 DWORD PTR fs:__except_list, esp
  00015	51		 push	 ecx
  00016	56		 push	 esi
  00017	57		 push	 edi
  00018	8b 7c 24 1c	 mov	 edi, DWORD PTR ___that$[esp+20]
  0001c	8b f1		 mov	 esi, ecx
  0001e	57		 push	 edi
  0001f	89 74 24 0c	 mov	 DWORD PTR _this$[esp+28], esi
  00023	e8 00 00 00 00	 call	 ??0exception@@QAE@ABV0@@Z ; exception::exception
  00028	33 c0		 xor	 eax, eax
  0002a	6a ff		 push	 -1
  0002c	8d 4e 0c	 lea	 ecx, DWORD PTR [esi+12]
  0002f	c7 06 00 00 00
	00		 mov	 DWORD PTR [esi], OFFSET FLAT:??_7logic_error@std@@6B@
  00035	50		 push	 eax
  00036	83 c7 0c	 add	 edi, 12			; 0000000cH
  00039	c7 41 18 0f 00
	00 00		 mov	 DWORD PTR [ecx+24], 15	; 0000000fH
  00040	89 41 14	 mov	 DWORD PTR [ecx+20], eax
  00043	57		 push	 edi
  00044	89 44 24 20	 mov	 DWORD PTR __$EHRec$[esp+44], eax
  00048	88 41 04	 mov	 BYTE PTR [ecx+4], al
  0004b	e8 00 00 00 00	 call	 ?assign@?$basic_string@DU?$char_traits@D@std@@V?$allocator@D@2@@std@@QAEAAV12@ABV12@II@Z ; std::basic_string<char,std::char_traits<char>,std::allocator<char> >::assign
  00050	8b 4c 24 0c	 mov	 ecx, DWORD PTR __$EHRec$[esp+24]
  00054	5f		 pop	 edi
  00055	8b c6		 mov	 eax, esi
  00057	5e		 pop	 esi
  00058	64 89 0d 00 00
	00 00		 mov	 DWORD PTR fs:__except_list, ecx
  0005f	83 c4 10	 add	 esp, 16			; 00000010H
  00062	c2 04 00	 ret	 4
_TEXT	ENDS
;	COMDAT text$x
text$x	SEGMENT
$L232512:
  00000	8b 4d f0	 mov	 ecx, DWORD PTR _this$[ebp]
  00003	e9 00 00 00 00	 jmp	 ??1exception@@UAE@XZ	; exception::~exception
__ehhandler$??0logic_error@std@@QAE@ABV01@@Z:
  00008	b8 00 00 00 00	 mov	 eax, OFFSET FLAT:$T232610
  0000d	e9 00 00 00 00	 jmp	 ___CxxFrameHandler
text$x	ENDS
??0logic_error@std@@QAE@ABV01@@Z ENDP			; std::logic_error::logic_error
; Function compile flags: /Ogty
;	COMDAT ??0length_error@std@@QAE@ABV01@@Z
_TEXT	SEGMENT
___that$ = 8						; size = 4
??0length_error@std@@QAE@ABV01@@Z PROC NEAR		; std::length_error::length_error, COMDAT
; _this$ = ecx
  00000	8b 44 24 04	 mov	 eax, DWORD PTR ___that$[esp-4]
  00004	56		 push	 esi
  00005	50		 push	 eax
  00006	8b f1		 mov	 esi, ecx
  00008	e8 00 00 00 00	 call	 ??0logic_error@std@@QAE@ABV01@@Z
  0000d	c7 06 00 00 00
	00		 mov	 DWORD PTR [esi], OFFSET FLAT:??_7length_error@std@@6B@
  00013	8b c6		 mov	 eax, esi
  00015	5e		 pop	 esi
  00016	c2 04 00	 ret	 4
??0length_error@std@@QAE@ABV01@@Z ENDP			; std::length_error::length_error
_TEXT	ENDS
PUBLIC	?_Xlen@?$vector@U_RANDOM_OPTION@@V?$allocator@U_RANDOM_OPTION@@@std@@@std@@IBEXXZ ; std::vector<_RANDOM_OPTION,std::allocator<_RANDOM_OPTION> >::_Xlen
;	COMDAT xdata$x
; File c:\program files\microsoft visual studio .net 2003\vc7\include\stdexcept
xdata$x	SEGMENT
$T232739 DD	0ffffffffH
	DD	FLAT:$L232624
$T232736 DD	019930520H
	DD	01H
	DD	FLAT:$T232739
	DD	2 DUP(00H)
	DD	2 DUP(00H)
; Function compile flags: /Ogty
; File c:\program files\microsoft visual studio .net 2003\vc7\include\vector
xdata$x	ENDS
;	COMDAT ?_Xlen@?$vector@U_RANDOM_OPTION@@V?$allocator@U_RANDOM_OPTION@@@std@@@std@@IBEXXZ
_TEXT	SEGMENT
$T232623 = -80						; size = 28
$T232622 = -52						; size = 40
__$EHRec$ = -12						; size = 12
?_Xlen@?$vector@U_RANDOM_OPTION@@V?$allocator@U_RANDOM_OPTION@@@std@@@std@@IBEXXZ PROC NEAR ; std::vector<_RANDOM_OPTION,std::allocator<_RANDOM_OPTION> >::_Xlen, COMDAT
; _this$ = ecx

; 883  : 		{	// report a length_error

  00000	6a ff		 push	 -1
  00002	68 00 00 00 00	 push	 __ehhandler$?_Xlen@?$vector@U_RANDOM_OPTION@@V?$allocator@U_RANDOM_OPTION@@@std@@@std@@IBEXXZ
  00007	64 a1 00 00 00
	00		 mov	 eax, DWORD PTR fs:__except_list
  0000d	50		 push	 eax
  0000e	64 89 25 00 00
	00 00		 mov	 DWORD PTR fs:__except_list, esp
  00015	83 ec 44	 sub	 esp, 68			; 00000044H

; 884  : 		_THROW(length_error, "vector<T> too long");

  00018	6a 12		 push	 18			; 00000012H
  0001a	68 00 00 00 00	 push	 OFFSET FLAT:??_C@_0BD@OLBABOEK@vector?$DMT?$DO?5too?5long?$AA@
  0001f	8d 4c 24 08	 lea	 ecx, DWORD PTR $T232623[esp+88]
  00023	c7 44 24 20 0f
	00 00 00	 mov	 DWORD PTR $T232623[esp+112], 15 ; 0000000fH
  0002b	c7 44 24 1c 00
	00 00 00	 mov	 DWORD PTR $T232623[esp+108], 0
  00033	c6 44 24 0c 00	 mov	 BYTE PTR $T232623[esp+92], 0
  00038	e8 00 00 00 00	 call	 ?assign@?$basic_string@DU?$char_traits@D@std@@V?$allocator@D@2@@std@@QAEAAV12@PBDI@Z ; std::basic_string<char,std::char_traits<char>,std::allocator<char> >::assign
  0003d	8d 04 24	 lea	 eax, DWORD PTR $T232623[esp+80]
  00040	50		 push	 eax
  00041	8d 4c 24 20	 lea	 ecx, DWORD PTR $T232622[esp+84]
  00045	c7 44 24 50 00
	00 00 00	 mov	 DWORD PTR __$EHRec$[esp+92], 0
  0004d	e8 00 00 00 00	 call	 ??0logic_error@std@@QAE@ABV?$basic_string@DU?$char_traits@D@std@@V?$allocator@D@2@@1@@Z ; std::logic_error::logic_error
  00052	68 00 00 00 00	 push	 OFFSET FLAT:__TI3?AVlength_error@std@@
  00057	8d 4c 24 20	 lea	 ecx, DWORD PTR $T232622[esp+84]
  0005b	51		 push	 ecx
  0005c	c7 44 24 24 00
	00 00 00	 mov	 DWORD PTR $T232622[esp+88], OFFSET FLAT:??_7length_error@std@@6B@
  00064	e8 00 00 00 00	 call	 __CxxThrowException@8
$L232740:
$L232738:
  00069	cc		 int	 3
_TEXT	ENDS
;	COMDAT text$x
text$x	SEGMENT
$L232624:
  00000	8d 4d b0	 lea	 ecx, DWORD PTR $T232623[ebp]
  00003	e9 00 00 00 00	 jmp	 ??1?$basic_string@DU?$char_traits@D@std@@V?$allocator@D@2@@std@@QAE@XZ ; std::basic_string<char,std::char_traits<char>,std::allocator<char> >::~basic_string<char,std::char_traits<char>,std::allocator<char> >
__ehhandler$?_Xlen@?$vector@U_RANDOM_OPTION@@V?$allocator@U_RANDOM_OPTION@@@std@@@std@@IBEXXZ:
  00008	b8 00 00 00 00	 mov	 eax, OFFSET FLAT:$T232736
  0000d	e9 00 00 00 00	 jmp	 ___CxxFrameHandler
text$x	ENDS
?_Xlen@?$vector@U_RANDOM_OPTION@@V?$allocator@U_RANDOM_OPTION@@@std@@@std@@IBEXXZ ENDP ; std::vector<_RANDOM_OPTION,std::allocator<_RANDOM_OPTION> >::_Xlen
PUBLIC	??_G_RANDOM_OPTION@@QAEPAXI@Z			; _RANDOM_OPTION::`scalar deleting destructor'
; Function compile flags: /Ogty
;	COMDAT ??_G_RANDOM_OPTION@@QAEPAXI@Z
_TEXT	SEGMENT
___flags$ = 8						; size = 4
??_G_RANDOM_OPTION@@QAEPAXI@Z PROC NEAR			; _RANDOM_OPTION::`scalar deleting destructor', COMDAT
; _this$ = ecx
  00000	56		 push	 esi
  00001	8b f1		 mov	 esi, ecx
  00003	e8 00 00 00 00	 call	 ??1_RANDOM_OPTION@@QAE@XZ
  00008	f6 44 24 08 01	 test	 BYTE PTR ___flags$[esp], 1
  0000d	74 09		 je	 SHORT $L232746
  0000f	56		 push	 esi
  00010	e8 00 00 00 00	 call	 ??3@YAXPAX@Z		; operator delete
  00015	83 c4 04	 add	 esp, 4
$L232746:
  00018	8b c6		 mov	 eax, esi
  0001a	5e		 pop	 esi
  0001b	c2 04 00	 ret	 4
??_G_RANDOM_OPTION@@QAEPAXI@Z ENDP			; _RANDOM_OPTION::`scalar deleting destructor'
_TEXT	ENDS
PUBLIC	??$_Insert@Viterator@?$vector@U_AdjData@@V?$allocator@U_AdjData@@@std@@@std@@@?$vector@U_AdjData@@V?$allocator@U_AdjData@@@std@@@std@@QAEXViterator@01@00Uforward_iterator_tag@1@@Z ; std::vector<_AdjData,std::allocator<_AdjData> >::_Insert<std::vector<_AdjData,std::allocator<_AdjData> >::iterator>
;	COMDAT xdata$x
; File c:\program files\microsoft visual studio .net 2003\vc7\include\xutility
xdata$x	SEGMENT
$T233117 DD	0ffffffffH
	DD	00H
	DD	0ffffffffH
	DD	00H
	DD	0ffffffffH
	DD	00H
	DD	0ffffffffH
	DD	00H
$T233119 DD	00H
	DD	00H
	DD	00H
	DD	FLAT:$L232755
$T233120 DD	00H
	DD	00H
	DD	00H
	DD	FLAT:$L232757
$T233118 DD	00H
	DD	00H
	DD	01H
	DD	01H
	DD	FLAT:$T233119
	DD	02H
	DD	02H
	DD	03H
	DD	01H
	DD	FLAT:$T233120
$T233114 DD	019930520H
	DD	04H
	DD	FLAT:$T233117
	DD	02H
	DD	FLAT:$T233118
	DD	2 DUP(00H)
; Function compile flags: /Ogty
; File c:\program files\microsoft visual studio .net 2003\vc7\include\vector
xdata$x	ENDS
;	COMDAT ??$_Insert@Viterator@?$vector@U_AdjData@@V?$allocator@U_AdjData@@@std@@@std@@@?$vector@U_AdjData@@V?$allocator@U_AdjData@@@std@@@std@@QAEXViterator@01@00Uforward_iterator_tag@1@@Z
_TEXT	SEGMENT
__Newvec$228608 = -28					; size = 4
tv479 = -24						; size = 4
__Count$ = -20						; size = 4
__$EHRec$ = -16						; size = 16
tv496 = 8						; size = 4
tv483 = 8						; size = 4
__Where$ = 8						; size = 4
__Cat$233109 = 12					; size = 1
__Cat$233084 = 12					; size = 1
__Cat$232941 = 12					; size = 1
__Cat$233008 = 12					; size = 1
__Cat$232893 = 12					; size = 1
__Cat$232919 = 12					; size = 1
__First$ = 12						; size = 4
__Last$ = 16						; size = 4
___formal$ = 20						; size = 1
??$_Insert@Viterator@?$vector@U_AdjData@@V?$allocator@U_AdjData@@@std@@@std@@@?$vector@U_AdjData@@V?$allocator@U_AdjData@@@std@@@std@@QAEXViterator@01@00Uforward_iterator_tag@1@@Z PROC NEAR ; std::vector<_AdjData,std::allocator<_AdjData> >::_Insert<std::vector<_AdjData,std::allocator<_AdjData> >::iterator>, COMDAT
; _this$ = ecx

; 653  : 		void _Insert(iterator _Where,

  00000	55		 push	 ebp
  00001	8b ec		 mov	 ebp, esp
  00003	6a ff		 push	 -1
  00005	68 00 00 00 00	 push	 __ehhandler$??$_Insert@Viterator@?$vector@U_AdjData@@V?$allocator@U_AdjData@@@std@@@std@@@?$vector@U_AdjData@@V?$allocator@U_AdjData@@@std@@@std@@QAEXViterator@01@00Uforward_iterator_tag@1@@Z
  0000a	64 a1 00 00 00
	00		 mov	 eax, DWORD PTR fs:__except_list
  00010	50		 push	 eax
  00011	64 89 25 00 00
	00 00		 mov	 DWORD PTR fs:__except_list, esp
  00018	83 ec 10	 sub	 esp, 16			; 00000010H

; 654  : 			_Iter _First, _Iter _Last, forward_iterator_tag)
; 655  : 		{	// insert [_First, _Last) at _Where, forward iterators
; 656  : 		size_type _Count = 0;
; 657  : 		_Distance(_First, _Last, _Count);

  0001b	8b 45 10	 mov	 eax, DWORD PTR __Last$[ebp]
  0001e	53		 push	 ebx
  0001f	56		 push	 esi
  00020	57		 push	 edi
  00021	8b 7d 0c	 mov	 edi, DWORD PTR __First$[ebp]
  00024	8b f1		 mov	 esi, ecx

; 658  : 		size_type _Capacity = capacity();

  00026	8b 56 04	 mov	 edx, DWORD PTR [esi+4]
  00029	2b c7		 sub	 eax, edi
  0002b	c1 f8 03	 sar	 eax, 3
  0002e	85 d2		 test	 edx, edx
  00030	89 65 f0	 mov	 DWORD PTR __$EHRec$[ebp], esp
  00033	89 45 ec	 mov	 DWORD PTR __Count$[ebp], eax
  00036	75 04		 jne	 SHORT $L232802
  00038	33 c9		 xor	 ecx, ecx
  0003a	eb 08		 jmp	 SHORT $L232803
$L232802:
  0003c	8b 4e 0c	 mov	 ecx, DWORD PTR [esi+12]
  0003f	2b ca		 sub	 ecx, edx
  00041	c1 f9 03	 sar	 ecx, 3
$L232803:

; 659  : 
; 660  : 		if (_Count == 0)

  00044	85 c0		 test	 eax, eax
  00046	0f 84 e4 01 00
	00		 je	 $L228637

; 661  : 			;
; 662  : 		else if (max_size() - size() < _Count)

  0004c	85 d2		 test	 edx, edx
  0004e	75 04		 jne	 SHORT $L232825
  00050	33 ff		 xor	 edi, edi
  00052	eb 08		 jmp	 SHORT $L232826
$L232825:
  00054	8b 7e 08	 mov	 edi, DWORD PTR [esi+8]
  00057	2b fa		 sub	 edi, edx
  00059	c1 ff 03	 sar	 edi, 3
$L232826:
  0005c	bb ff ff ff 1f	 mov	 ebx, 536870911		; 1fffffffH
  00061	2b df		 sub	 ebx, edi
  00063	3b d8		 cmp	 ebx, eax
  00065	73 07		 jae	 SHORT $L228604

; 663  : 			_Xlen();	// result too long

  00067	8b ce		 mov	 ecx, esi
  00069	e8 00 00 00 00	 call	 ?_Xlen@?$vector@U_AdjData@@V?$allocator@U_AdjData@@@std@@@std@@IBEXXZ ; std::vector<_AdjData,std::allocator<_AdjData> >::_Xlen
$L233121:
$L228604:

; 664  : 		else if (_Capacity < size() + _Count)

  0006e	85 d2		 test	 edx, edx
  00070	75 04		 jne	 SHORT $L232832
  00072	33 ff		 xor	 edi, edi
  00074	eb 08		 jmp	 SHORT $L232833
$L232832:
  00076	8b 7e 08	 mov	 edi, DWORD PTR [esi+8]
  00079	2b fa		 sub	 edi, edx
  0007b	c1 ff 03	 sar	 edi, 3
$L232833:
  0007e	03 f8		 add	 edi, eax
  00080	3b cf		 cmp	 ecx, edi
  00082	0f 83 f2 00 00
	00		 jae	 $L228606

; 665  : 			{	// not enough room, reallocate
; 666  : 			_Capacity = max_size() - _Capacity / 2 < _Capacity
; 667  : 				? 0 : _Capacity + _Capacity / 2;	// try to grow by 50%

  00088	8b f9		 mov	 edi, ecx
  0008a	d1 ef		 shr	 edi, 1
  0008c	bb ff ff ff 1f	 mov	 ebx, 536870911		; 1fffffffH
  00091	2b df		 sub	 ebx, edi
  00093	3b d9		 cmp	 ebx, ecx
  00095	73 04		 jae	 SHORT $L232750
  00097	33 c9		 xor	 ecx, ecx
  00099	eb 02		 jmp	 SHORT $L232751
$L232750:
  0009b	03 cf		 add	 ecx, edi
$L232751:

; 668  : 			if (_Capacity < size() + _Count)

  0009d	85 d2		 test	 edx, edx
  0009f	75 04		 jne	 SHORT $L232855
  000a1	33 ff		 xor	 edi, edi
  000a3	eb 08		 jmp	 SHORT $L232856
$L232855:
  000a5	8b 7e 08	 mov	 edi, DWORD PTR [esi+8]
  000a8	2b fa		 sub	 edi, edx
  000aa	c1 ff 03	 sar	 edi, 3
$L232856:
  000ad	03 f8		 add	 edi, eax
  000af	3b cf		 cmp	 ecx, edi
  000b1	73 12		 jae	 SHORT $L228607

; 669  : 				_Capacity = size() + _Count;

  000b3	85 d2		 test	 edx, edx
  000b5	75 04		 jne	 SHORT $L232862
  000b7	33 c9		 xor	 ecx, ecx
  000b9	eb 08		 jmp	 SHORT $L232863
$L232862:
  000bb	8b 4e 08	 mov	 ecx, DWORD PTR [esi+8]
  000be	2b ca		 sub	 ecx, edx
  000c0	c1 f9 03	 sar	 ecx, 3
$L232863:
  000c3	03 c8		 add	 ecx, eax
$L228607:

; 670  : 			pointer _Newvec = this->_Alval.allocate(_Capacity);

  000c5	c1 e1 03	 shl	 ecx, 3
  000c8	51		 push	 ecx
  000c9	89 4d e8	 mov	 DWORD PTR tv479[ebp], ecx
  000cc	e8 00 00 00 00	 call	 ??2@YAPAXI@Z		; operator new

; 671  : 			pointer _Ptr = _Newvec;
; 672  : 
; 673  : 			_TRY_BEGIN
; 674  : 			_Ptr = _Ucopy(_Myfirst, _ITER_BASE(_Where),
; 675  : 				_Newvec);	// copy prefix

  000d1	8b 4d 0c	 mov	 ecx, DWORD PTR __Cat$232893[ebp]
  000d4	8b 5d 08	 mov	 ebx, DWORD PTR __Where$[ebp]
  000d7	51		 push	 ecx
  000d8	8b f8		 mov	 edi, eax
  000da	8b 46 04	 mov	 eax, DWORD PTR [esi+4]
  000dd	56		 push	 esi
  000de	57		 push	 edi
  000df	53		 push	 ebx
  000e0	50		 push	 eax
  000e1	89 7d e4	 mov	 DWORD PTR __Newvec$228608[ebp], edi
  000e4	c7 45 fc 00 00
	00 00		 mov	 DWORD PTR __$EHRec$[ebp+12], 0
  000eb	e8 00 00 00 00	 call	 ??$_Uninit_copy@PAU_AdjData@@PAU1@V?$allocator@U_AdjData@@@std@@@std@@YAPAU_AdjData@@PAU1@00AAV?$allocator@U_AdjData@@@0@U_Nonscalar_ptr_iterator_tag@0@@Z ; std::_Uninit_copy<_AdjData *,_AdjData *,std::allocator<_AdjData> >

; 676  : 			_Ptr = _Ucopy(_First, _Last, _Ptr);	// add new stuff

  000f0	8b 55 0c	 mov	 edx, DWORD PTR __Cat$232919[ebp]
  000f3	8b 4d 0c	 mov	 ecx, DWORD PTR __First$[ebp]
  000f6	83 c4 18	 add	 esp, 24			; 00000018H
  000f9	52		 push	 edx
  000fa	56		 push	 esi
  000fb	50		 push	 eax
  000fc	8b 45 10	 mov	 eax, DWORD PTR __Last$[ebp]
  000ff	50		 push	 eax
  00100	51		 push	 ecx
  00101	e8 00 00 00 00	 call	 ??$_Uninit_copy@Viterator@?$vector@U_AdjData@@V?$allocator@U_AdjData@@@std@@@std@@PAU_AdjData@@V?$allocator@U_AdjData@@@3@@std@@YAPAU_AdjData@@Viterator@?$vector@U_AdjData@@V?$allocator@U_AdjData@@@std@@@0@0PAU1@AAV?$allocator@U_AdjData@@@0@U_Nonscalar_ptr_iterator_tag@0@@Z ; std::_Uninit_copy<std::vector<_AdjData,std::allocator<_AdjData> >::iterator,_AdjData *,std::allocator<_AdjData> >

; 677  : 			_Ucopy(_ITER_BASE(_Where), _Mylast, _Ptr);	// copy suffix

  00106	8b 55 0c	 mov	 edx, DWORD PTR __Cat$232941[ebp]
  00109	8b 4e 08	 mov	 ecx, DWORD PTR [esi+8]
  0010c	83 c4 14	 add	 esp, 20			; 00000014H
  0010f	52		 push	 edx
  00110	56		 push	 esi
  00111	50		 push	 eax
  00112	51		 push	 ecx
  00113	53		 push	 ebx
  00114	e8 00 00 00 00	 call	 ??$_Uninit_copy@PAU_AdjData@@PAU1@V?$allocator@U_AdjData@@@std@@@std@@YAPAU_AdjData@@PAU1@00AAV?$allocator@U_AdjData@@@0@U_Nonscalar_ptr_iterator_tag@0@@Z ; std::_Uninit_copy<_AdjData *,_AdjData *,std::allocator<_AdjData> >

; 682  : 			_CATCH_END
; 683  : 
; 684  : 			_Count += size();

  00119	8b 4e 04	 mov	 ecx, DWORD PTR [esi+4]
  0011c	83 c4 14	 add	 esp, 20			; 00000014H
  0011f	85 c9		 test	 ecx, ecx
  00121	75 04		 jne	 SHORT $L232954
  00123	33 c0		 xor	 eax, eax
  00125	eb 08		 jmp	 SHORT $L232955
$L232954:
  00127	8b 46 08	 mov	 eax, DWORD PTR [esi+8]
  0012a	2b c1		 sub	 eax, ecx
  0012c	c1 f8 03	 sar	 eax, 3
$L232955:
  0012f	8b 5d ec	 mov	 ebx, DWORD PTR __Count$[ebp]
  00132	03 d8		 add	 ebx, eax

; 685  : 			if (_Myfirst != 0)

  00134	85 c9		 test	 ecx, ecx
  00136	74 09		 je	 SHORT $L232958

; 686  : 				{	// destroy and deallocate old array
; 687  : 				_Destroy(_Myfirst, _Mylast);
; 688  : 				this->_Alval.deallocate(_Myfirst, _Myend - _Myfirst);

  00138	51		 push	 ecx
  00139	e8 00 00 00 00	 call	 ??3@YAXPAX@Z		; operator delete
  0013e	83 c4 04	 add	 esp, 4
$L232958:

; 689  : 				}
; 690  : 			_Myend = _Newvec + _Capacity;

  00141	8b 45 e8	 mov	 eax, DWORD PTR tv479[ebp]
  00144	03 c7		 add	 eax, edi

; 691  : 			_Mylast = _Newvec + _Count;

  00146	8d 0c df	 lea	 ecx, DWORD PTR [edi+ebx*8]
  00149	89 46 0c	 mov	 DWORD PTR [esi+12], eax
  0014c	89 4e 08	 mov	 DWORD PTR [esi+8], ecx

; 692  : 			_Myfirst = _Newvec;

  0014f	89 7e 04	 mov	 DWORD PTR [esi+4], edi

; 719  : 			}
; 720  : 		}

  00152	8b 4d f4	 mov	 ecx, DWORD PTR __$EHRec$[ebp+4]
  00155	64 89 0d 00 00
	00 00		 mov	 DWORD PTR fs:__except_list, ecx
  0015c	5f		 pop	 edi
  0015d	5e		 pop	 esi
  0015e	5b		 pop	 ebx
  0015f	8b e5		 mov	 esp, ebp
  00161	5d		 pop	 ebp
  00162	c2 10 00	 ret	 16			; 00000010H
$L232755:

; 678  : 			_CATCH_ALL
; 679  : 			_Destroy(_Newvec, _Ptr);
; 680  : 			this->_Alval.deallocate(_Newvec, _Capacity);

  00165	8b 55 e4	 mov	 edx, DWORD PTR __Newvec$228608[ebp]
  00168	52		 push	 edx
  00169	e8 00 00 00 00	 call	 ??3@YAXPAX@Z		; operator delete
  0016e	83 c4 04	 add	 esp, 4
$L232757:

; 681  : 			_RERAISE;

  00171	6a 00		 push	 0
  00173	6a 00		 push	 0
  00175	e8 00 00 00 00	 call	 __CxxThrowException@8
$L233122:
$L228606:

; 693  : 			}
; 694  : 		else if ((size_type)(end() - _Where) < _Count)

  0017a	8b 5e 08	 mov	 ebx, DWORD PTR [esi+8]
  0017d	8b 7d 08	 mov	 edi, DWORD PTR __Where$[ebp]
  00180	8b cb		 mov	 ecx, ebx
  00182	2b cf		 sub	 ecx, edi
  00184	c1 f9 03	 sar	 ecx, 3
  00187	3b c8		 cmp	 ecx, eax
  00189	73 6b		 jae	 SHORT $L228620

; 695  : 			{	// new stuff spills off end
; 696  : 			_Ucopy(_ITER_BASE(_Where), _Mylast,
; 697  : 				_ITER_BASE(_Where) + _Count);	// copy suffix

  0018b	8b 55 0c	 mov	 edx, DWORD PTR __Cat$233008[ebp]
  0018e	52		 push	 edx
  0018f	c1 e0 03	 shl	 eax, 3
  00192	89 45 08	 mov	 DWORD PTR tv483[ebp], eax
  00195	56		 push	 esi
  00196	03 c7		 add	 eax, edi
  00198	50		 push	 eax
  00199	53		 push	 ebx
  0019a	57		 push	 edi
  0019b	e8 00 00 00 00	 call	 ??$_Uninit_copy@PAU_AdjData@@PAU1@V?$allocator@U_AdjData@@@std@@@std@@YAPAU_AdjData@@PAU1@00AAV?$allocator@U_AdjData@@@0@U_Nonscalar_ptr_iterator_tag@0@@Z ; std::_Uninit_copy<_AdjData *,_AdjData *,std::allocator<_AdjData> >

; 698  : 			_Iter _Mid = _First;
; 699  : 			advance(_Mid, end() - _Where);

  001a0	8b 46 08	 mov	 eax, DWORD PTR [esi+8]
  001a3	8b 55 0c	 mov	 edx, DWORD PTR __First$[ebp]
  001a6	8b c8		 mov	 ecx, eax
  001a8	2b cf		 sub	 ecx, edi
  001aa	c1 f9 03	 sar	 ecx, 3
  001ad	8d 1c ca	 lea	 ebx, DWORD PTR [edx+ecx*8]

; 700  : 
; 701  : 			_TRY_BEGIN
; 702  : 			_Ucopy(_Mid, _Last, _Mylast);	// insert new stuff off end

  001b0	8b 4d 0c	 mov	 ecx, DWORD PTR __Cat$233084[ebp]
  001b3	8b 55 10	 mov	 edx, DWORD PTR __Last$[ebp]
  001b6	51		 push	 ecx
  001b7	56		 push	 esi
  001b8	50		 push	 eax
  001b9	52		 push	 edx
  001ba	53		 push	 ebx
  001bb	c7 45 fc 02 00
	00 00		 mov	 DWORD PTR __$EHRec$[ebp+12], 2
  001c2	e8 00 00 00 00	 call	 ??$_Uninit_copy@Viterator@?$vector@U_AdjData@@V?$allocator@U_AdjData@@@std@@@std@@PAU_AdjData@@V?$allocator@U_AdjData@@@3@@std@@YAPAU_AdjData@@Viterator@?$vector@U_AdjData@@V?$allocator@U_AdjData@@@std@@@0@0PAU1@AAV?$allocator@U_AdjData@@@0@U_Nonscalar_ptr_iterator_tag@0@@Z ; std::_Uninit_copy<std::vector<_AdjData,std::allocator<_AdjData> >::iterator,_AdjData *,std::allocator<_AdjData> >

; 703  : 			_CATCH_ALL
; 704  : 			_Destroy(_ITER_BASE(_Where) + _Count, _Mylast + _Count);
; 705  : 			_RERAISE;
; 706  : 			_CATCH_END
; 707  : 
; 708  : 			_Mylast += _Count;

  001c7	8b 4e 08	 mov	 ecx, DWORD PTR [esi+8]
  001ca	8b 45 08	 mov	 eax, DWORD PTR tv483[ebp]
  001cd	83 c4 28	 add	 esp, 40			; 00000028H
  001d0	03 c8		 add	 ecx, eax

; 709  : 			copy(_First, _Mid, _ITER_BASE(_Where));	// insert to old end

  001d2	57		 push	 edi
  001d3	89 4e 08	 mov	 DWORD PTR [esi+8], ecx
  001d6	8b 4d 0c	 mov	 ecx, DWORD PTR __First$[ebp]
  001d9	53		 push	 ebx
  001da	51		 push	 ecx
  001db	e8 00 00 00 00	 call	 ??$copy@Viterator@?$vector@U_AdjData@@V?$allocator@U_AdjData@@@std@@@std@@PAU_AdjData@@@std@@YAPAU_AdjData@@Viterator@?$vector@U_AdjData@@V?$allocator@U_AdjData@@@std@@@0@0PAU1@@Z ; std::copy<std::vector<_AdjData,std::allocator<_AdjData> >::iterator,_AdjData *>
  001e0	83 c4 0c	 add	 esp, 12			; 0000000cH

; 719  : 			}
; 720  : 		}

  001e3	8b 4d f4	 mov	 ecx, DWORD PTR __$EHRec$[ebp+4]
  001e6	64 89 0d 00 00
	00 00		 mov	 DWORD PTR fs:__except_list, ecx
  001ed	5f		 pop	 edi
  001ee	5e		 pop	 esi
  001ef	5b		 pop	 ebx
  001f0	8b e5		 mov	 esp, ebp
  001f2	5d		 pop	 ebp
  001f3	c2 10 00	 ret	 16			; 00000010H
$L228620:

; 710  : 			}
; 711  : 		else
; 712  : 			{	// new stuff can all be assigned
; 713  : 			pointer _Oldend = _Mylast;
; 714  : 			_Mylast = _Ucopy(_Oldend - _Count, _Oldend,
; 715  : 				_Mylast);	// copy suffix

  001f6	8b 4d 0c	 mov	 ecx, DWORD PTR __Cat$233109[ebp]
  001f9	51		 push	 ecx
  001fa	56		 push	 esi
  001fb	8d 14 c5 00 00
	00 00		 lea	 edx, DWORD PTR [eax*8]
  00202	53		 push	 ebx
  00203	8b c3		 mov	 eax, ebx
  00205	2b c2		 sub	 eax, edx
  00207	53		 push	 ebx
  00208	50		 push	 eax
  00209	89 45 08	 mov	 DWORD PTR tv496[ebp], eax
  0020c	e8 00 00 00 00	 call	 ??$_Uninit_copy@PAU_AdjData@@PAU1@V?$allocator@U_AdjData@@@std@@@std@@YAPAU_AdjData@@PAU1@00AAV?$allocator@U_AdjData@@@0@U_Nonscalar_ptr_iterator_tag@0@@Z ; std::_Uninit_copy<_AdjData *,_AdjData *,std::allocator<_AdjData> >

; 716  : 			copy_backward(_ITER_BASE(_Where), _Oldend - _Count,
; 717  : 				_Oldend);	// copy hole

  00211	8b 55 08	 mov	 edx, DWORD PTR tv496[ebp]
  00214	53		 push	 ebx
  00215	52		 push	 edx
  00216	57		 push	 edi
  00217	89 46 08	 mov	 DWORD PTR [esi+8], eax
  0021a	e8 00 00 00 00	 call	 ??$copy_backward@PAU_AdjData@@PAU1@@std@@YAPAU_AdjData@@PAU1@00@Z ; std::copy_backward<_AdjData *,_AdjData *>

; 718  : 			copy(_First, _Last, _ITER_BASE(_Where));	// insert into hole

  0021f	8b 45 10	 mov	 eax, DWORD PTR __Last$[ebp]
  00222	8b 4d 0c	 mov	 ecx, DWORD PTR __First$[ebp]
  00225	57		 push	 edi
  00226	50		 push	 eax
  00227	51		 push	 ecx
  00228	e8 00 00 00 00	 call	 ??$copy@Viterator@?$vector@U_AdjData@@V?$allocator@U_AdjData@@@std@@@std@@PAU_AdjData@@@std@@YAPAU_AdjData@@Viterator@?$vector@U_AdjData@@V?$allocator@U_AdjData@@@std@@@0@0PAU1@@Z ; std::copy<std::vector<_AdjData,std::allocator<_AdjData> >::iterator,_AdjData *>
  0022d	83 c4 2c	 add	 esp, 44			; 0000002cH
$L228637:

; 719  : 			}
; 720  : 		}

  00230	8b 4d f4	 mov	 ecx, DWORD PTR __$EHRec$[ebp+4]
  00233	5f		 pop	 edi
  00234	5e		 pop	 esi
  00235	64 89 0d 00 00
	00 00		 mov	 DWORD PTR fs:__except_list, ecx
  0023c	5b		 pop	 ebx
  0023d	8b e5		 mov	 esp, ebp
  0023f	5d		 pop	 ebp
  00240	c2 10 00	 ret	 16			; 00000010H
$L233116:
_TEXT	ENDS
;	COMDAT text$x
text$x	SEGMENT
__ehhandler$??$_Insert@Viterator@?$vector@U_AdjData@@V?$allocator@U_AdjData@@@std@@@std@@@?$vector@U_AdjData@@V?$allocator@U_AdjData@@@std@@@std@@QAEXViterator@01@00Uforward_iterator_tag@1@@Z:
  00000	b8 00 00 00 00	 mov	 eax, OFFSET FLAT:$T233114
  00005	e9 00 00 00 00	 jmp	 ___CxxFrameHandler
text$x	ENDS
??$_Insert@Viterator@?$vector@U_AdjData@@V?$allocator@U_AdjData@@@std@@@std@@@?$vector@U_AdjData@@V?$allocator@U_AdjData@@@std@@@std@@QAEXViterator@01@00Uforward_iterator_tag@1@@Z ENDP ; std::vector<_AdjData,std::allocator<_AdjData> >::_Insert<std::vector<_AdjData,std::allocator<_AdjData> >::iterator>
PUBLIC	?_Buy@?$vector@U_AdjData@@V?$allocator@U_AdjData@@@std@@@std@@IAE_NI@Z ; std::vector<_AdjData,std::allocator<_AdjData> >::_Buy
; Function compile flags: /Ogty
;	COMDAT ?_Buy@?$vector@U_AdjData@@V?$allocator@U_AdjData@@@std@@@std@@IAE_NI@Z
_TEXT	SEGMENT
__Capacity$ = 8						; size = 4
?_Buy@?$vector@U_AdjData@@V?$allocator@U_AdjData@@@std@@@std@@IAE_NI@Z PROC NEAR ; std::vector<_AdjData,std::allocator<_AdjData> >::_Buy, COMDAT
; _this$ = ecx

; 771  : 		_Myfirst = 0, _Mylast = 0, _Myend = 0;
; 772  : 		if (_Capacity == 0)

  00000	8b 44 24 04	 mov	 eax, DWORD PTR __Capacity$[esp-4]
  00004	56		 push	 esi
  00005	8b f1		 mov	 esi, ecx
  00007	33 c9		 xor	 ecx, ecx
  00009	3b c1		 cmp	 eax, ecx
  0000b	89 4e 04	 mov	 DWORD PTR [esi+4], ecx
  0000e	89 4e 08	 mov	 DWORD PTR [esi+8], ecx
  00011	89 4e 0c	 mov	 DWORD PTR [esi+12], ecx
  00014	75 06		 jne	 SHORT $L226949

; 773  : 			return (false);

  00016	32 c0		 xor	 al, al
  00018	5e		 pop	 esi

; 783  : 		}

  00019	c2 04 00	 ret	 4
$L226949:

; 774  : 		else if (max_size() < _Capacity)

  0001c	3d ff ff ff 1f	 cmp	 eax, 536870911		; 1fffffffH
  00021	76 07		 jbe	 SHORT $L226951

; 775  : 			_Xlen();	// result too long

  00023	8b ce		 mov	 ecx, esi
  00025	e8 00 00 00 00	 call	 ?_Xlen@?$vector@U_AdjData@@V?$allocator@U_AdjData@@@std@@@std@@IBEXXZ ; std::vector<_AdjData,std::allocator<_AdjData> >::_Xlen
$L233152:
$L226951:
  0002a	57		 push	 edi

; 776  : 		else
; 777  : 			{	// nonempty array, allocate storage
; 778  : 			_Myfirst = this->_Alval.allocate(_Capacity);

  0002b	8d 3c c5 00 00
	00 00		 lea	 edi, DWORD PTR [eax*8]
  00032	57		 push	 edi
  00033	e8 00 00 00 00	 call	 ??2@YAPAXI@Z		; operator new

; 779  : 			_Mylast = _Myfirst;
; 780  : 			_Myend = _Myfirst + _Capacity;

  00038	03 f8		 add	 edi, eax
  0003a	83 c4 04	 add	 esp, 4
  0003d	89 7e 0c	 mov	 DWORD PTR [esi+12], edi
  00040	89 46 04	 mov	 DWORD PTR [esi+4], eax
  00043	89 46 08	 mov	 DWORD PTR [esi+8], eax
  00046	5f		 pop	 edi

; 781  : 			}
; 782  : 		return (true);

  00047	b0 01		 mov	 al, 1
  00049	5e		 pop	 esi

; 783  : 		}

  0004a	c2 04 00	 ret	 4
$L233151:
?_Buy@?$vector@U_AdjData@@V?$allocator@U_AdjData@@@std@@@std@@IAE_NI@Z ENDP ; std::vector<_AdjData,std::allocator<_AdjData> >::_Buy
_TEXT	ENDS
PUBLIC	?_Buy@?$vector@U_RANDOM_OPTION@@V?$allocator@U_RANDOM_OPTION@@@std@@@std@@IAE_NI@Z ; std::vector<_RANDOM_OPTION,std::allocator<_RANDOM_OPTION> >::_Buy
; Function compile flags: /Ogty
;	COMDAT ?_Buy@?$vector@U_RANDOM_OPTION@@V?$allocator@U_RANDOM_OPTION@@@std@@@std@@IAE_NI@Z
_TEXT	SEGMENT
__Capacity$ = 8						; size = 4
?_Buy@?$vector@U_RANDOM_OPTION@@V?$allocator@U_RANDOM_OPTION@@@std@@@std@@IAE_NI@Z PROC NEAR ; std::vector<_RANDOM_OPTION,std::allocator<_RANDOM_OPTION> >::_Buy, COMDAT
; _this$ = ecx

; 771  : 		_Myfirst = 0, _Mylast = 0, _Myend = 0;
; 772  : 		if (_Capacity == 0)

  00000	8b 44 24 04	 mov	 eax, DWORD PTR __Capacity$[esp-4]
  00004	56		 push	 esi
  00005	8b f1		 mov	 esi, ecx
  00007	33 c9		 xor	 ecx, ecx
  00009	3b c1		 cmp	 eax, ecx
  0000b	89 4e 04	 mov	 DWORD PTR [esi+4], ecx
  0000e	89 4e 08	 mov	 DWORD PTR [esi+8], ecx
  00011	89 4e 0c	 mov	 DWORD PTR [esi+12], ecx
  00014	75 06		 jne	 SHORT $L227002

; 773  : 			return (false);

  00016	32 c0		 xor	 al, al
  00018	5e		 pop	 esi

; 783  : 		}

  00019	c2 04 00	 ret	 4
$L227002:

; 774  : 		else if (max_size() < _Capacity)

  0001c	3d aa aa aa 0a	 cmp	 eax, 178956970		; 0aaaaaaaH
  00021	76 07		 jbe	 SHORT $L227004

; 775  : 			_Xlen();	// result too long

  00023	8b ce		 mov	 ecx, esi
  00025	e8 00 00 00 00	 call	 ?_Xlen@?$vector@U_RANDOM_OPTION@@V?$allocator@U_RANDOM_OPTION@@@std@@@std@@IBEXXZ ; std::vector<_RANDOM_OPTION,std::allocator<_RANDOM_OPTION> >::_Xlen
$L233181:
$L227004:
  0002a	57		 push	 edi

; 776  : 		else
; 777  : 			{	// nonempty array, allocate storage
; 778  : 			_Myfirst = this->_Alval.allocate(_Capacity);

  0002b	8d 3c 40	 lea	 edi, DWORD PTR [eax+eax*2]
  0002e	c1 e7 03	 shl	 edi, 3
  00031	57		 push	 edi
  00032	e8 00 00 00 00	 call	 ??2@YAPAXI@Z		; operator new

; 779  : 			_Mylast = _Myfirst;
; 780  : 			_Myend = _Myfirst + _Capacity;

  00037	03 f8		 add	 edi, eax
  00039	83 c4 04	 add	 esp, 4
  0003c	89 7e 0c	 mov	 DWORD PTR [esi+12], edi
  0003f	89 46 04	 mov	 DWORD PTR [esi+4], eax
  00042	89 46 08	 mov	 DWORD PTR [esi+8], eax
  00045	5f		 pop	 edi

; 781  : 			}
; 782  : 		return (true);

  00046	b0 01		 mov	 al, 1
  00048	5e		 pop	 esi

; 783  : 		}

  00049	c2 04 00	 ret	 4
$L233180:
?_Buy@?$vector@U_RANDOM_OPTION@@V?$allocator@U_RANDOM_OPTION@@@std@@@std@@IAE_NI@Z ENDP ; std::vector<_RANDOM_OPTION,std::allocator<_RANDOM_OPTION> >::_Buy
_TEXT	ENDS
PUBLIC	?_Insert_n@?$vector@U_AdjData@@V?$allocator@U_AdjData@@@std@@@std@@IAEXViterator@12@IABU_AdjData@@@Z ; std::vector<_AdjData,std::allocator<_AdjData> >::_Insert_n
;	COMDAT xdata$x
; File c:\program files\microsoft visual studio .net 2003\vc7\include\xutility
xdata$x	SEGMENT
$T233403 DD	0ffffffffH
	DD	00H
	DD	0ffffffffH
	DD	00H
	DD	0ffffffffH
	DD	00H
	DD	0ffffffffH
	DD	00H
$T233405 DD	00H
	DD	00H
	DD	00H
	DD	FLAT:$L233188
$T233406 DD	00H
	DD	00H
	DD	00H
	DD	FLAT:$L233190
$T233404 DD	00H
	DD	00H
	DD	01H
	DD	01H
	DD	FLAT:$T233405
	DD	02H
	DD	02H
	DD	03H
	DD	01H
	DD	FLAT:$T233406
$T233400 DD	019930520H
	DD	04H
	DD	FLAT:$T233403
	DD	02H
	DD	FLAT:$T233404
	DD	2 DUP(00H)
; Function compile flags: /Ogty
; File c:\program files\microsoft visual studio .net 2003\vc7\include\vector
xdata$x	ENDS
;	COMDAT ?_Insert_n@?$vector@U_AdjData@@V?$allocator@U_AdjData@@@std@@@std@@IAEXViterator@12@IABU_AdjData@@@Z
_TEXT	SEGMENT
__Tmp$ = -28						; size = 8
__Newvec$227109 = -20					; size = 4
__$EHRec$ = -16						; size = 16
tv446 = 8						; size = 4
__Cat$233372 = 8					; size = 1
__Cat$233310 = 8					; size = 1
__Cat$233333 = 8					; size = 1
__Cat$233287 = 8					; size = 1
__Where$ = 8						; size = 4
tv445 = 12						; size = 4
__Count$ = 12						; size = 4
tv430 = 16						; size = 4
tv220 = 16						; size = 4
__Val$ = 16						; size = 4
?_Insert_n@?$vector@U_AdjData@@V?$allocator@U_AdjData@@@std@@@std@@IAEXViterator@12@IABU_AdjData@@@Z PROC NEAR ; std::vector<_AdjData,std::allocator<_AdjData> >::_Insert_n, COMDAT
; _this$ = ecx

; 809  : 		{	// insert _Count * _Val at _Where

  00000	55		 push	 ebp
  00001	8b ec		 mov	 ebp, esp
  00003	6a ff		 push	 -1
  00005	68 00 00 00 00	 push	 __ehhandler$?_Insert_n@?$vector@U_AdjData@@V?$allocator@U_AdjData@@@std@@@std@@IAEXViterator@12@IABU_AdjData@@@Z
  0000a	64 a1 00 00 00
	00		 mov	 eax, DWORD PTR fs:__except_list
  00010	50		 push	 eax
  00011	64 89 25 00 00
	00 00		 mov	 DWORD PTR fs:__except_list, esp
  00018	83 ec 10	 sub	 esp, 16			; 00000010H

; 810  : 		_Ty _Tmp = _Val;	// in case _Val is in sequence

  0001b	8b 45 10	 mov	 eax, DWORD PTR __Val$[ebp]
  0001e	8b 50 04	 mov	 edx, DWORD PTR [eax+4]
  00021	53		 push	 ebx
  00022	56		 push	 esi
  00023	8b f1		 mov	 esi, ecx
  00025	8b 08		 mov	 ecx, DWORD PTR [eax]
  00027	89 4d e4	 mov	 DWORD PTR __Tmp$[ebp], ecx

; 811  : 		size_type _Capacity = capacity();

  0002a	8b 4e 04	 mov	 ecx, DWORD PTR [esi+4]
  0002d	85 c9		 test	 ecx, ecx
  0002f	57		 push	 edi
  00030	89 65 f0	 mov	 DWORD PTR __$EHRec$[ebp], esp
  00033	89 55 e8	 mov	 DWORD PTR __Tmp$[ebp+4], edx
  00036	75 04		 jne	 SHORT $L233196
  00038	33 c0		 xor	 eax, eax
  0003a	eb 08		 jmp	 SHORT $L233197
$L233196:
  0003c	8b 46 0c	 mov	 eax, DWORD PTR [esi+12]
  0003f	2b c1		 sub	 eax, ecx
  00041	c1 f8 03	 sar	 eax, 3
$L233197:

; 812  : 
; 813  : 		if (_Count == 0)

  00044	8b 5d 0c	 mov	 ebx, DWORD PTR __Count$[ebp]
  00047	85 db		 test	 ebx, ebx
  00049	0f 84 e1 01 00
	00		 je	 $L227129

; 814  : 			;
; 815  : 		else if (max_size() - size() < _Count)

  0004f	85 c9		 test	 ecx, ecx
  00051	75 04		 jne	 SHORT $L233219
  00053	33 d2		 xor	 edx, edx
  00055	eb 08		 jmp	 SHORT $L233220
$L233219:
  00057	8b 56 08	 mov	 edx, DWORD PTR [esi+8]
  0005a	2b d1		 sub	 edx, ecx
  0005c	c1 fa 03	 sar	 edx, 3
$L233220:
  0005f	bf ff ff ff 1f	 mov	 edi, 536870911		; 1fffffffH
  00064	2b fa		 sub	 edi, edx
  00066	3b fb		 cmp	 edi, ebx
  00068	73 07		 jae	 SHORT $L227105

; 816  : 			_Xlen();	// result too long

  0006a	8b ce		 mov	 ecx, esi
  0006c	e8 00 00 00 00	 call	 ?_Xlen@?$vector@U_AdjData@@V?$allocator@U_AdjData@@@std@@@std@@IBEXXZ ; std::vector<_AdjData,std::allocator<_AdjData> >::_Xlen
$L233407:
$L227105:

; 817  : 		else if (_Capacity < size() + _Count)

  00071	85 c9		 test	 ecx, ecx
  00073	75 04		 jne	 SHORT $L233226
  00075	33 d2		 xor	 edx, edx
  00077	eb 08		 jmp	 SHORT $L233227
$L233226:
  00079	8b 56 08	 mov	 edx, DWORD PTR [esi+8]
  0007c	2b d1		 sub	 edx, ecx
  0007e	c1 fa 03	 sar	 edx, 3
$L233227:
  00081	03 d3		 add	 edx, ebx
  00083	3b c2		 cmp	 eax, edx
  00085	0f 83 f8 00 00
	00		 jae	 $L227107

; 818  : 			{	// not enough room, reallocate
; 819  : 			_Capacity = max_size() - _Capacity / 2 < _Capacity
; 820  : 				? 0 : _Capacity + _Capacity / 2;	// try to grow by 50%

  0008b	8b d0		 mov	 edx, eax
  0008d	d1 ea		 shr	 edx, 1
  0008f	bf ff ff ff 1f	 mov	 edi, 536870911		; 1fffffffH
  00094	2b fa		 sub	 edi, edx
  00096	3b f8		 cmp	 edi, eax
  00098	73 04		 jae	 SHORT $L233185
  0009a	33 c0		 xor	 eax, eax
  0009c	eb 02		 jmp	 SHORT $L233186
$L233185:
  0009e	03 c2		 add	 eax, edx
$L233186:

; 821  : 			if (_Capacity < size() + _Count)

  000a0	85 c9		 test	 ecx, ecx
  000a2	75 04		 jne	 SHORT $L233249
  000a4	33 d2		 xor	 edx, edx
  000a6	eb 08		 jmp	 SHORT $L233250
$L233249:
  000a8	8b 56 08	 mov	 edx, DWORD PTR [esi+8]
  000ab	2b d1		 sub	 edx, ecx
  000ad	c1 fa 03	 sar	 edx, 3
$L233250:
  000b0	03 d3		 add	 edx, ebx
  000b2	3b c2		 cmp	 eax, edx
  000b4	73 12		 jae	 SHORT $L227108

; 822  : 				_Capacity = size() + _Count;

  000b6	85 c9		 test	 ecx, ecx
  000b8	75 04		 jne	 SHORT $L233256
  000ba	33 c0		 xor	 eax, eax
  000bc	eb 08		 jmp	 SHORT $L233257
$L233256:
  000be	8b 46 08	 mov	 eax, DWORD PTR [esi+8]
  000c1	2b c1		 sub	 eax, ecx
  000c3	c1 f8 03	 sar	 eax, 3
$L233257:
  000c6	03 c3		 add	 eax, ebx
$L227108:

; 823  : 			pointer _Newvec = this->_Alval.allocate(_Capacity);

  000c8	c1 e0 03	 shl	 eax, 3
  000cb	50		 push	 eax
  000cc	89 45 0c	 mov	 DWORD PTR tv445[ebp], eax
  000cf	e8 00 00 00 00	 call	 ??2@YAPAXI@Z		; operator new

; 824  : 			pointer _Ptr = _Newvec;
; 825  : 
; 826  : 			_TRY_BEGIN
; 827  : 			_Ptr = _Ucopy(_Myfirst, _ITER_BASE(_Where),
; 828  : 				_Newvec);	// copy prefix

  000d4	8b 4d 08	 mov	 ecx, DWORD PTR __Cat$233287[ebp]
  000d7	8b 55 08	 mov	 edx, DWORD PTR __Where$[ebp]
  000da	51		 push	 ecx
  000db	8b f8		 mov	 edi, eax
  000dd	8b 46 04	 mov	 eax, DWORD PTR [esi+4]
  000e0	56		 push	 esi
  000e1	57		 push	 edi
  000e2	52		 push	 edx
  000e3	50		 push	 eax
  000e4	89 7d ec	 mov	 DWORD PTR __Newvec$227109[ebp], edi
  000e7	c7 45 fc 00 00
	00 00		 mov	 DWORD PTR __$EHRec$[ebp+12], 0
  000ee	e8 00 00 00 00	 call	 ??$_Uninit_copy@PAU_AdjData@@PAU1@V?$allocator@U_AdjData@@@std@@@std@@YAPAU_AdjData@@PAU1@00AAV?$allocator@U_AdjData@@@0@U_Nonscalar_ptr_iterator_tag@0@@Z ; std::_Uninit_copy<_AdjData *,_AdjData *,std::allocator<_AdjData> >

; 829  : 			_Ptr = _Ufill(_Ptr, _Count, _Tmp);	// add new stuff

  000f3	8b 4d 08	 mov	 ecx, DWORD PTR __Cat$233310[ebp]
  000f6	83 c4 18	 add	 esp, 24			; 00000018H
  000f9	51		 push	 ecx
  000fa	56		 push	 esi
  000fb	8d 55 e4	 lea	 edx, DWORD PTR __Tmp$[ebp]
  000fe	52		 push	 edx
  000ff	53		 push	 ebx
  00100	50		 push	 eax
  00101	89 45 10	 mov	 DWORD PTR tv220[ebp], eax
  00104	e8 00 00 00 00	 call	 ??$_Uninit_fill_n@PAU_AdjData@@IU1@V?$allocator@U_AdjData@@@std@@@std@@YAXPAU_AdjData@@IABU1@AAV?$allocator@U_AdjData@@@0@U_Nonscalar_ptr_iterator_tag@0@@Z ; std::_Uninit_fill_n<_AdjData *,unsigned int,_AdjData,std::allocator<_AdjData> >

; 830  : 			_Ucopy(_ITER_BASE(_Where), _Mylast, _Ptr);	// copy suffix

  00109	8b 55 08	 mov	 edx, DWORD PTR __Cat$233333[ebp]
  0010c	8b 45 10	 mov	 eax, DWORD PTR tv220[ebp]
  0010f	8b 4e 08	 mov	 ecx, DWORD PTR [esi+8]
  00112	83 c4 14	 add	 esp, 20			; 00000014H
  00115	52		 push	 edx
  00116	8d 04 d8	 lea	 eax, DWORD PTR [eax+ebx*8]
  00119	56		 push	 esi
  0011a	50		 push	 eax
  0011b	8b 45 08	 mov	 eax, DWORD PTR __Where$[ebp]
  0011e	51		 push	 ecx
  0011f	50		 push	 eax
  00120	e8 00 00 00 00	 call	 ??$_Uninit_copy@PAU_AdjData@@PAU1@V?$allocator@U_AdjData@@@std@@@std@@YAPAU_AdjData@@PAU1@00AAV?$allocator@U_AdjData@@@0@U_Nonscalar_ptr_iterator_tag@0@@Z ; std::_Uninit_copy<_AdjData *,_AdjData *,std::allocator<_AdjData> >

; 835  : 			_CATCH_END
; 836  : 
; 837  : 			_Count += size();

  00125	8b 4e 04	 mov	 ecx, DWORD PTR [esi+4]
  00128	83 c4 14	 add	 esp, 20			; 00000014H
  0012b	85 c9		 test	 ecx, ecx
  0012d	75 04		 jne	 SHORT $L233344
  0012f	33 c0		 xor	 eax, eax
  00131	eb 08		 jmp	 SHORT $L233345
$L233344:
  00133	8b 46 08	 mov	 eax, DWORD PTR [esi+8]
  00136	2b c1		 sub	 eax, ecx
  00138	c1 f8 03	 sar	 eax, 3
$L233345:
  0013b	03 d8		 add	 ebx, eax

; 838  : 			if (_Myfirst != 0)

  0013d	85 c9		 test	 ecx, ecx
  0013f	74 09		 je	 SHORT $L233347

; 839  : 				{	// destroy and deallocate old array
; 840  : 				_Destroy(_Myfirst, _Mylast);
; 841  : 				this->_Alval.deallocate(_Myfirst, _Myend - _Myfirst);

  00141	51		 push	 ecx
  00142	e8 00 00 00 00	 call	 ??3@YAXPAX@Z		; operator delete
  00147	83 c4 04	 add	 esp, 4
$L233347:

; 842  : 				}
; 843  : 			_Myend = _Newvec + _Capacity;

  0014a	8b 4d 0c	 mov	 ecx, DWORD PTR tv445[ebp]
  0014d	03 cf		 add	 ecx, edi

; 844  : 			_Mylast = _Newvec + _Count;

  0014f	8d 14 df	 lea	 edx, DWORD PTR [edi+ebx*8]
  00152	89 4e 0c	 mov	 DWORD PTR [esi+12], ecx
  00155	89 56 08	 mov	 DWORD PTR [esi+8], edx

; 845  : 			_Myfirst = _Newvec;

  00158	89 7e 04	 mov	 DWORD PTR [esi+4], edi

; 873  : 			}
; 874  : 		}

  0015b	8b 4d f4	 mov	 ecx, DWORD PTR __$EHRec$[ebp+4]
  0015e	64 89 0d 00 00
	00 00		 mov	 DWORD PTR fs:__except_list, ecx
  00165	5f		 pop	 edi
  00166	5e		 pop	 esi
  00167	5b		 pop	 ebx
  00168	8b e5		 mov	 esp, ebp
  0016a	5d		 pop	 ebp
  0016b	c2 0c 00	 ret	 12			; 0000000cH
$L233188:

; 831  : 			_CATCH_ALL
; 832  : 			_Destroy(_Newvec, _Ptr);
; 833  : 			this->_Alval.deallocate(_Newvec, _Capacity);

  0016e	8b 45 ec	 mov	 eax, DWORD PTR __Newvec$227109[ebp]
  00171	50		 push	 eax
  00172	e8 00 00 00 00	 call	 ??3@YAXPAX@Z		; operator delete
  00177	83 c4 04	 add	 esp, 4
$L233190:

; 834  : 			_RERAISE;

  0017a	6a 00		 push	 0
  0017c	6a 00		 push	 0
  0017e	e8 00 00 00 00	 call	 __CxxThrowException@8
$L233408:
$L227107:

; 846  : 			}
; 847  : 		else if ((size_type)(_Mylast - _ITER_BASE(_Where)) < _Count)

  00183	8b 46 08	 mov	 eax, DWORD PTR [esi+8]
  00186	8b 7d 08	 mov	 edi, DWORD PTR __Where$[ebp]
  00189	8b c8		 mov	 ecx, eax
  0018b	2b cf		 sub	 ecx, edi
  0018d	c1 f9 03	 sar	 ecx, 3
  00190	3b cb		 cmp	 ecx, ebx

; 848  : 			{	// new stuff spills off end
; 849  : 			_Ucopy(_ITER_BASE(_Where), _Mylast,
; 850  : 				_ITER_BASE(_Where) + _Count);	// copy suffix

  00192	8d 0c dd 00 00
	00 00		 lea	 ecx, DWORD PTR [ebx*8]
  00199	89 4d 08	 mov	 DWORD PTR tv446[ebp], ecx
  0019c	8b 55 08	 mov	 edx, DWORD PTR __Cat$233372[ebp]
  0019f	52		 push	 edx
  001a0	89 45 10	 mov	 DWORD PTR tv430[ebp], eax
  001a3	56		 push	 esi
  001a4	73 5d		 jae	 SHORT $L227120
  001a6	03 cf		 add	 ecx, edi
  001a8	51		 push	 ecx
  001a9	50		 push	 eax
  001aa	57		 push	 edi
  001ab	e8 00 00 00 00	 call	 ??$_Uninit_copy@PAU_AdjData@@PAU1@V?$allocator@U_AdjData@@@std@@@std@@YAPAU_AdjData@@PAU1@00AAV?$allocator@U_AdjData@@@0@U_Nonscalar_ptr_iterator_tag@0@@Z ; std::_Uninit_copy<_AdjData *,_AdjData *,std::allocator<_AdjData> >

; 851  : 
; 852  : 			_TRY_BEGIN
; 853  : 			_Ufill(_Mylast, _Count - (_Mylast - _ITER_BASE(_Where)),
; 854  : 				_Tmp);	// insert new stuff off end

  001b0	8b 46 08	 mov	 eax, DWORD PTR [esi+8]
  001b3	8b d0		 mov	 edx, eax
  001b5	83 c4 14	 add	 esp, 20			; 00000014H
  001b8	2b d7		 sub	 edx, edi
  001ba	8d 4d e4	 lea	 ecx, DWORD PTR __Tmp$[ebp]
  001bd	51		 push	 ecx
  001be	c1 fa 03	 sar	 edx, 3
  001c1	2b da		 sub	 ebx, edx
  001c3	53		 push	 ebx
  001c4	50		 push	 eax
  001c5	8b ce		 mov	 ecx, esi
  001c7	c7 45 fc 02 00
	00 00		 mov	 DWORD PTR __$EHRec$[ebp+12], 2
  001ce	e8 00 00 00 00	 call	 ?_Ufill@?$vector@U_AdjData@@V?$allocator@U_AdjData@@@std@@@std@@IAEPAU_AdjData@@PAU3@IABU3@@Z ; std::vector<_AdjData,std::allocator<_AdjData> >::_Ufill

; 855  : 			_CATCH_ALL
; 856  : 			_Destroy(_ITER_BASE(_Where) + _Count, _Mylast + _Count);
; 857  : 			_RERAISE;
; 858  : 			_CATCH_END
; 859  : 
; 860  : 			_Mylast += _Count;

  001d3	8b 5e 08	 mov	 ebx, DWORD PTR [esi+8]
  001d6	8b 45 08	 mov	 eax, DWORD PTR tv446[ebp]
  001d9	03 d8		 add	 ebx, eax
  001db	89 5e 08	 mov	 DWORD PTR [esi+8], ebx

; 861  : 			fill(_ITER_BASE(_Where), _Mylast - _Count,
; 862  : 				_Tmp);	// insert up to old end

  001de	8d 4d e4	 lea	 ecx, DWORD PTR __Tmp$[ebp]
  001e1	8b f3		 mov	 esi, ebx
  001e3	51		 push	 ecx
  001e4	2b f0		 sub	 esi, eax
  001e6	56		 push	 esi
  001e7	57		 push	 edi
  001e8	e8 00 00 00 00	 call	 ??$fill@PAU_AdjData@@U1@@std@@YAXPAU_AdjData@@0ABU1@@Z ; std::fill<_AdjData *,_AdjData>
  001ed	83 c4 0c	 add	 esp, 12			; 0000000cH

; 873  : 			}
; 874  : 		}

  001f0	8b 4d f4	 mov	 ecx, DWORD PTR __$EHRec$[ebp+4]
  001f3	64 89 0d 00 00
	00 00		 mov	 DWORD PTR fs:__except_list, ecx
  001fa	5f		 pop	 edi
  001fb	5e		 pop	 esi
  001fc	5b		 pop	 ebx
  001fd	8b e5		 mov	 esp, ebp
  001ff	5d		 pop	 ebp
  00200	c2 0c 00	 ret	 12			; 0000000cH
$L227120:

; 863  : 			}
; 864  : 		else
; 865  : 			{	// new stuff can all be assigned
; 866  : 			pointer _Oldend = _Mylast;
; 867  : 			_Mylast = _Ucopy(_Oldend - _Count, _Oldend,
; 868  : 				_Mylast);	// copy suffix

  00203	50		 push	 eax
  00204	8b d8		 mov	 ebx, eax
  00206	2b d9		 sub	 ebx, ecx
  00208	50		 push	 eax
  00209	53		 push	 ebx
  0020a	e8 00 00 00 00	 call	 ??$_Uninit_copy@PAU_AdjData@@PAU1@V?$allocator@U_AdjData@@@std@@@std@@YAPAU_AdjData@@PAU1@00AAV?$allocator@U_AdjData@@@0@U_Nonscalar_ptr_iterator_tag@0@@Z ; std::_Uninit_copy<_AdjData *,_AdjData *,std::allocator<_AdjData> >
  0020f	89 46 08	 mov	 DWORD PTR [esi+8], eax

; 869  : 			copy_backward(_ITER_BASE(_Where), _Oldend - _Count,
; 870  : 				_Oldend);	// copy hole

  00212	8b 45 10	 mov	 eax, DWORD PTR tv430[ebp]
  00215	50		 push	 eax
  00216	53		 push	 ebx
  00217	57		 push	 edi
  00218	e8 00 00 00 00	 call	 ??$copy_backward@PAU_AdjData@@PAU1@@std@@YAPAU_AdjData@@PAU1@00@Z ; std::copy_backward<_AdjData *,_AdjData *>

; 871  : 			fill(_ITER_BASE(_Where), _ITER_BASE(_Where) + _Count,
; 872  : 				_Tmp);	// insert into hole

  0021d	8b 55 08	 mov	 edx, DWORD PTR tv446[ebp]
  00220	8d 4d e4	 lea	 ecx, DWORD PTR __Tmp$[ebp]
  00223	51		 push	 ecx
  00224	03 d7		 add	 edx, edi
  00226	52		 push	 edx
  00227	57		 push	 edi
  00228	e8 00 00 00 00	 call	 ??$fill@PAU_AdjData@@U1@@std@@YAXPAU_AdjData@@0ABU1@@Z ; std::fill<_AdjData *,_AdjData>
  0022d	83 c4 2c	 add	 esp, 44			; 0000002cH
$L227129:

; 873  : 			}
; 874  : 		}

  00230	8b 4d f4	 mov	 ecx, DWORD PTR __$EHRec$[ebp+4]
  00233	5f		 pop	 edi
  00234	5e		 pop	 esi
  00235	64 89 0d 00 00
	00 00		 mov	 DWORD PTR fs:__except_list, ecx
  0023c	5b		 pop	 ebx
  0023d	8b e5		 mov	 esp, ebp
  0023f	5d		 pop	 ebp
  00240	c2 0c 00	 ret	 12			; 0000000cH
$L233402:
_TEXT	ENDS
;	COMDAT text$x
text$x	SEGMENT
__ehhandler$?_Insert_n@?$vector@U_AdjData@@V?$allocator@U_AdjData@@@std@@@std@@IAEXViterator@12@IABU_AdjData@@@Z:
  00000	b8 00 00 00 00	 mov	 eax, OFFSET FLAT:$T233400
  00005	e9 00 00 00 00	 jmp	 ___CxxFrameHandler
text$x	ENDS
?_Insert_n@?$vector@U_AdjData@@V?$allocator@U_AdjData@@@std@@@std@@IAEXViterator@12@IABU_AdjData@@@Z ENDP ; std::vector<_AdjData,std::allocator<_AdjData> >::_Insert_n
PUBLIC	??0?$vector@U_AdjData@@V?$allocator@U_AdjData@@@std@@@std@@QAE@ABV01@@Z ; std::vector<_AdjData,std::allocator<_AdjData> >::vector<_AdjData,std::allocator<_AdjData> >
;	COMDAT xdata$x
; File c:\program files\microsoft visual studio .net 2003\vc7\include\xutility
xdata$x	SEGMENT
$T233532 DD	0ffffffffH
	DD	00H
	DD	0ffffffffH
	DD	00H
$T233534 DD	00H
	DD	00H
	DD	00H
	DD	FLAT:$L233417
$T233533 DD	00H
	DD	00H
	DD	01H
	DD	01H
	DD	FLAT:$T233534
$T233528 DD	019930520H
	DD	02H
	DD	FLAT:$T233532
	DD	01H
	DD	FLAT:$T233533
	DD	2 DUP(00H)
; Function compile flags: /Ogty
; File c:\program files\microsoft visual studio .net 2003\vc7\include\vector
xdata$x	ENDS
;	COMDAT ??0?$vector@U_AdjData@@V?$allocator@U_AdjData@@@std@@@std@@QAE@ABV01@@Z
_TEXT	SEGMENT
_this$ = -20						; size = 4
__$EHRec$ = -16						; size = 16
__Cat$233521 = 8					; size = 1
__Right$ = 8						; size = 4
??0?$vector@U_AdjData@@V?$allocator@U_AdjData@@@std@@@std@@QAE@ABV01@@Z PROC NEAR ; std::vector<_AdjData,std::allocator<_AdjData> >::vector<_AdjData,std::allocator<_AdjData> >, COMDAT
; _this$ = ecx

; 329  : 		{	// construct by copying _Right

  00000	55		 push	 ebp
  00001	8b ec		 mov	 ebp, esp
  00003	6a ff		 push	 -1
  00005	68 00 00 00 00	 push	 __ehhandler$??0?$vector@U_AdjData@@V?$allocator@U_AdjData@@@std@@@std@@QAE@ABV01@@Z
  0000a	64 a1 00 00 00
	00		 mov	 eax, DWORD PTR fs:__except_list
  00010	50		 push	 eax
  00011	64 89 25 00 00
	00 00		 mov	 DWORD PTR fs:__except_list, esp
  00018	83 ec 08	 sub	 esp, 8
  0001b	53		 push	 ebx

; 330  : 		if (_Buy(_Right.size()))

  0001c	8b 5d 08	 mov	 ebx, DWORD PTR __Right$[ebp]
  0001f	56		 push	 esi
  00020	8b f1		 mov	 esi, ecx
  00022	8b 4b 04	 mov	 ecx, DWORD PTR [ebx+4]
  00025	33 d2		 xor	 edx, edx
  00027	3b ca		 cmp	 ecx, edx
  00029	57		 push	 edi
  0002a	89 65 f0	 mov	 DWORD PTR __$EHRec$[ebp], esp
  0002d	89 75 ec	 mov	 DWORD PTR _this$[ebp], esi
  00030	75 04		 jne	 SHORT $L233436
  00032	33 c0		 xor	 eax, eax
  00034	eb 08		 jmp	 SHORT $L233437
$L233436:
  00036	8b 43 08	 mov	 eax, DWORD PTR [ebx+8]
  00039	2b c1		 sub	 eax, ecx
  0003b	c1 f8 03	 sar	 eax, 3
$L233437:
  0003e	3b c2		 cmp	 eax, edx
  00040	89 56 04	 mov	 DWORD PTR [esi+4], edx
  00043	89 56 08	 mov	 DWORD PTR [esi+8], edx
  00046	89 56 0c	 mov	 DWORD PTR [esi+12], edx
  00049	74 46		 je	 SHORT $L227261
  0004b	3d ff ff ff 1f	 cmp	 eax, 536870911		; 1fffffffH
  00050	76 07		 jbe	 SHORT $L233466
  00052	8b ce		 mov	 ecx, esi
  00054	e8 00 00 00 00	 call	 ?_Xlen@?$vector@U_AdjData@@V?$allocator@U_AdjData@@@std@@@std@@IBEXXZ ; std::vector<_AdjData,std::allocator<_AdjData> >::_Xlen
$L233535:
$L233466:
  00059	8d 3c c5 00 00
	00 00		 lea	 edi, DWORD PTR [eax*8]
  00060	57		 push	 edi
  00061	e8 00 00 00 00	 call	 ??2@YAPAXI@Z		; operator new

; 331  : 			_TRY_BEGIN
; 332  : 			_Mylast = _Ucopy(_Right.begin(), _Right.end(), _Myfirst);

  00066	8b 55 08	 mov	 edx, DWORD PTR __Cat$233521[ebp]
  00069	52		 push	 edx
  0006a	03 f8		 add	 edi, eax
  0006c	56		 push	 esi
  0006d	89 46 04	 mov	 DWORD PTR [esi+4], eax
  00070	89 46 08	 mov	 DWORD PTR [esi+8], eax
  00073	89 7e 0c	 mov	 DWORD PTR [esi+12], edi
  00076	8b 4b 08	 mov	 ecx, DWORD PTR [ebx+8]
  00079	8b 5b 04	 mov	 ebx, DWORD PTR [ebx+4]
  0007c	50		 push	 eax
  0007d	51		 push	 ecx
  0007e	53		 push	 ebx
  0007f	c7 45 fc 00 00
	00 00		 mov	 DWORD PTR __$EHRec$[ebp+12], 0
  00086	e8 00 00 00 00	 call	 ??$_Uninit_copy@Vconst_iterator@?$vector@U_AdjData@@V?$allocator@U_AdjData@@@std@@@std@@PAU_AdjData@@V?$allocator@U_AdjData@@@3@@std@@YAPAU_AdjData@@Vconst_iterator@?$vector@U_AdjData@@V?$allocator@U_AdjData@@@std@@@0@0PAU1@AAV?$allocator@U_AdjData@@@0@U_Nonscalar_ptr_iterator_tag@0@@Z ; std::_Uninit_copy<std::vector<_AdjData,std::allocator<_AdjData> >::const_iterator,_AdjData *,std::allocator<_AdjData> >
  0008b	83 c4 18	 add	 esp, 24			; 00000018H
  0008e	89 46 08	 mov	 DWORD PTR [esi+8], eax
$L227261:

; 336  : 			_CATCH_END
; 337  : 		}

  00091	8b 4d f4	 mov	 ecx, DWORD PTR __$EHRec$[ebp+4]
  00094	5f		 pop	 edi
  00095	8b c6		 mov	 eax, esi
  00097	5e		 pop	 esi
  00098	64 89 0d 00 00
	00 00		 mov	 DWORD PTR fs:__except_list, ecx
  0009f	5b		 pop	 ebx
  000a0	8b e5		 mov	 esp, ebp
  000a2	5d		 pop	 ebp
  000a3	c2 04 00	 ret	 4
$L233417:

; 333  : 			_CATCH_ALL
; 334  : 			_Tidy();

  000a6	8b 4d ec	 mov	 ecx, DWORD PTR _this$[ebp]
  000a9	e8 00 00 00 00	 call	 ?_Tidy@?$vector@U_AdjData@@V?$allocator@U_AdjData@@@std@@@std@@IAEXXZ ; std::vector<_AdjData,std::allocator<_AdjData> >::_Tidy

; 335  : 			_RERAISE;

  000ae	6a 00		 push	 0
  000b0	6a 00		 push	 0
  000b2	e8 00 00 00 00	 call	 __CxxThrowException@8
$L233536:
$L233531:
  000b7	cc		 int	 3
_TEXT	ENDS
;	COMDAT text$x
text$x	SEGMENT
__ehhandler$??0?$vector@U_AdjData@@V?$allocator@U_AdjData@@@std@@@std@@QAE@ABV01@@Z:
  00000	b8 00 00 00 00	 mov	 eax, OFFSET FLAT:$T233528
  00005	e9 00 00 00 00	 jmp	 ___CxxFrameHandler
text$x	ENDS
??0?$vector@U_AdjData@@V?$allocator@U_AdjData@@@std@@@std@@QAE@ABV01@@Z ENDP ; std::vector<_AdjData,std::allocator<_AdjData> >::vector<_AdjData,std::allocator<_AdjData> >
PUBLIC	??4?$vector@U_AdjData@@V?$allocator@U_AdjData@@@std@@@std@@QAEAAV01@ABV01@@Z ; std::vector<_AdjData,std::allocator<_AdjData> >::operator=
; Function compile flags: /Ogty
;	COMDAT ??4?$vector@U_AdjData@@V?$allocator@U_AdjData@@@std@@@std@@QAEAAV01@ABV01@@Z
_TEXT	SEGMENT
__Cat$233629 = 8					; size = 1
__Right$ = 8						; size = 4
??4?$vector@U_AdjData@@V?$allocator@U_AdjData@@@std@@@std@@QAEAAV01@ABV01@@Z PROC NEAR ; std::vector<_AdjData,std::allocator<_AdjData> >::operator=, COMDAT
; _this$ = ecx

; 392  : 		{	// assign _Right

  00000	56		 push	 esi
  00001	57		 push	 edi

; 393  : 		if (this != &_Right)

  00002	8b 7c 24 0c	 mov	 edi, DWORD PTR __Right$[esp+4]
  00006	8b f1		 mov	 esi, ecx
  00008	3b f7		 cmp	 esi, edi
  0000a	0f 84 2d 01 00
	00		 je	 $L233648
  00010	53		 push	 ebx

; 394  : 			{	// worth doing
; 395  : 
; 396  : 
; 397  : 			if (_Right.size() == 0)

  00011	8b 5f 04	 mov	 ebx, DWORD PTR [edi+4]
  00014	33 d2		 xor	 edx, edx
  00016	3b da		 cmp	 ebx, edx
  00018	55		 push	 ebp
  00019	74 0e		 je	 SHORT $L233646
  0001b	8b 6f 08	 mov	 ebp, DWORD PTR [edi+8]
  0001e	8b cd		 mov	 ecx, ebp
  00020	2b cb		 sub	 ecx, ebx
  00022	c1 f9 03	 sar	 ecx, 3
  00025	3b ca		 cmp	 ecx, edx
  00027	75 24		 jne	 SHORT $L227999
$L233646:

; 398  : 				clear();	// new sequence empty, free storage

  00029	8b 46 04	 mov	 eax, DWORD PTR [esi+4]
  0002c	3b c2		 cmp	 eax, edx
  0002e	74 0b		 je	 SHORT $L233563
  00030	50		 push	 eax
  00031	e8 00 00 00 00	 call	 ??3@YAXPAX@Z		; operator delete
  00036	83 c4 04	 add	 esp, 4
  00039	33 d2		 xor	 edx, edx
$L233563:
  0003b	5d		 pop	 ebp
  0003c	5b		 pop	 ebx
  0003d	5f		 pop	 edi
  0003e	89 56 04	 mov	 DWORD PTR [esi+4], edx
  00041	89 56 08	 mov	 DWORD PTR [esi+8], edx
  00044	89 56 0c	 mov	 DWORD PTR [esi+12], edx

; 422  : 				}
; 423  : 			}
; 424  : 		return (*this);

  00047	8b c6		 mov	 eax, esi
  00049	5e		 pop	 esi

; 425  : 		}

  0004a	c2 04 00	 ret	 4
$L227999:

; 399  : 			else if (_Right.size() <= size())

  0004d	8b 46 04	 mov	 eax, DWORD PTR [esi+4]
  00050	3b c2		 cmp	 eax, edx
  00052	75 04		 jne	 SHORT $L233578
  00054	33 d2		 xor	 edx, edx
  00056	eb 08		 jmp	 SHORT $L233579
$L233578:
  00058	8b 56 08	 mov	 edx, DWORD PTR [esi+8]
  0005b	2b d0		 sub	 edx, eax
  0005d	c1 fa 03	 sar	 edx, 3
$L233579:
  00060	3b ca		 cmp	 ecx, edx
  00062	77 40		 ja	 SHORT $L228001

; 400  : 				{	// enough elements, copy new and destroy old
; 401  : 				pointer _Ptr = copy(_Right._Myfirst, _Right._Mylast,
; 402  : 					_Myfirst);	// copy new

  00064	50		 push	 eax
  00065	55		 push	 ebp
  00066	53		 push	 ebx
  00067	e8 00 00 00 00	 call	 ??$copy@PAU_AdjData@@PAU1@@std@@YAPAU_AdjData@@PAU1@00@Z ; std::copy<_AdjData *,_AdjData *>

; 403  : 				_Destroy(_Ptr, _Mylast);	// destroy old
; 404  : 				_Mylast = _Myfirst + _Right.size();

  0006c	8b 47 04	 mov	 eax, DWORD PTR [edi+4]
  0006f	83 c4 0c	 add	 esp, 12			; 0000000cH
  00072	85 c0		 test	 eax, eax
  00074	75 14		 jne	 SHORT $L233585
  00076	8b 46 04	 mov	 eax, DWORD PTR [esi+4]
  00079	5d		 pop	 ebp
  0007a	33 ff		 xor	 edi, edi
  0007c	8d 0c f8	 lea	 ecx, DWORD PTR [eax+edi*8]
  0007f	5b		 pop	 ebx
  00080	5f		 pop	 edi
  00081	89 4e 08	 mov	 DWORD PTR [esi+8], ecx

; 422  : 				}
; 423  : 			}
; 424  : 		return (*this);

  00084	8b c6		 mov	 eax, esi
  00086	5e		 pop	 esi

; 425  : 		}

  00087	c2 04 00	 ret	 4

; 403  : 				_Destroy(_Ptr, _Mylast);	// destroy old
; 404  : 				_Mylast = _Myfirst + _Right.size();

$L233585:
  0008a	8b 7f 08	 mov	 edi, DWORD PTR [edi+8]
  0008d	2b f8		 sub	 edi, eax
  0008f	8b 46 04	 mov	 eax, DWORD PTR [esi+4]
  00092	5d		 pop	 ebp
  00093	c1 ff 03	 sar	 edi, 3
  00096	8d 0c f8	 lea	 ecx, DWORD PTR [eax+edi*8]
  00099	5b		 pop	 ebx
  0009a	5f		 pop	 edi
  0009b	89 4e 08	 mov	 DWORD PTR [esi+8], ecx

; 422  : 				}
; 423  : 			}
; 424  : 		return (*this);

  0009e	8b c6		 mov	 eax, esi
  000a0	5e		 pop	 esi

; 425  : 		}

  000a1	c2 04 00	 ret	 4
$L228001:

; 405  : 				}
; 406  : 			else if (_Right.size() <= capacity())

  000a4	85 c0		 test	 eax, eax
  000a6	75 04		 jne	 SHORT $L233599
  000a8	33 d2		 xor	 edx, edx
  000aa	eb 08		 jmp	 SHORT $L233600
$L233599:
  000ac	8b 56 0c	 mov	 edx, DWORD PTR [esi+12]
  000af	2b d0		 sub	 edx, eax
  000b1	c1 fa 03	 sar	 edx, 3
$L233600:
  000b4	3b ca		 cmp	 ecx, edx
  000b6	77 41		 ja	 SHORT $L228011

; 407  : 				{	// enough room, copy and construct new
; 408  : 				pointer _Ptr = _Right._Myfirst + size();

  000b8	85 c0		 test	 eax, eax
  000ba	75 04		 jne	 SHORT $L233606
  000bc	33 d2		 xor	 edx, edx
  000be	eb 08		 jmp	 SHORT $L233607
$L233606:
  000c0	8b 56 08	 mov	 edx, DWORD PTR [esi+8]
  000c3	2b d0		 sub	 edx, eax
  000c5	c1 fa 03	 sar	 edx, 3
$L233607:
  000c8	8b 4f 04	 mov	 ecx, DWORD PTR [edi+4]

; 409  : 				copy(_Right._Myfirst, _Ptr, _Myfirst);

  000cb	50		 push	 eax
  000cc	8d 1c d1	 lea	 ebx, DWORD PTR [ecx+edx*8]
  000cf	53		 push	 ebx
  000d0	51		 push	 ecx
  000d1	e8 00 00 00 00	 call	 ??$copy@PAU_AdjData@@PAU1@@std@@YAPAU_AdjData@@PAU1@00@Z ; std::copy<_AdjData *,_AdjData *>

; 410  : 				_Mylast = _Ucopy(_Ptr, _Right._Mylast, _Mylast);

  000d6	8b 54 24 20	 mov	 edx, DWORD PTR __Cat$233629[esp+24]
  000da	8b 46 08	 mov	 eax, DWORD PTR [esi+8]
  000dd	8b 7f 08	 mov	 edi, DWORD PTR [edi+8]
  000e0	52		 push	 edx
  000e1	56		 push	 esi
  000e2	50		 push	 eax
  000e3	57		 push	 edi
  000e4	53		 push	 ebx
  000e5	e8 00 00 00 00	 call	 ??$_Uninit_copy@PAU_AdjData@@PAU1@V?$allocator@U_AdjData@@@std@@@std@@YAPAU_AdjData@@PAU1@00AAV?$allocator@U_AdjData@@@0@U_Nonscalar_ptr_iterator_tag@0@@Z ; std::_Uninit_copy<_AdjData *,_AdjData *,std::allocator<_AdjData> >
  000ea	83 c4 20	 add	 esp, 32			; 00000020H
  000ed	5d		 pop	 ebp
  000ee	5b		 pop	 ebx
  000ef	89 46 08	 mov	 DWORD PTR [esi+8], eax
  000f2	5f		 pop	 edi

; 422  : 				}
; 423  : 			}
; 424  : 		return (*this);

  000f3	8b c6		 mov	 eax, esi
  000f5	5e		 pop	 esi

; 425  : 		}

  000f6	c2 04 00	 ret	 4
$L228011:

; 411  : 				}
; 412  : 			else
; 413  : 				{	// not enough room, allocate new array and construct new
; 414  : 				if (_Myfirst != 0)

  000f9	85 c0		 test	 eax, eax
  000fb	74 09		 je	 SHORT $L233636

; 415  : 					{	// discard old array
; 416  : 					_Destroy(_Myfirst, _Mylast);
; 417  : 					this->_Alval.deallocate(_Myfirst, _Myend - _Myfirst);

  000fd	50		 push	 eax
  000fe	e8 00 00 00 00	 call	 ??3@YAXPAX@Z		; operator delete
  00103	83 c4 04	 add	 esp, 4
$L233636:

; 418  : 					}
; 419  : 				if (_Buy(_Right.size()))

  00106	8b 4f 04	 mov	 ecx, DWORD PTR [edi+4]
  00109	85 c9		 test	 ecx, ecx
  0010b	75 04		 jne	 SHORT $L233643
  0010d	33 c0		 xor	 eax, eax
  0010f	eb 08		 jmp	 SHORT $L233644
$L233643:
  00111	8b 47 08	 mov	 eax, DWORD PTR [edi+8]
  00114	2b c1		 sub	 eax, ecx
  00116	c1 f8 03	 sar	 eax, 3
$L233644:
  00119	50		 push	 eax
  0011a	8b ce		 mov	 ecx, esi
  0011c	e8 00 00 00 00	 call	 ?_Buy@?$vector@U_AdjData@@V?$allocator@U_AdjData@@@std@@@std@@IAE_NI@Z ; std::vector<_AdjData,std::allocator<_AdjData> >::_Buy
  00121	84 c0		 test	 al, al
  00123	74 16		 je	 SHORT $L233647

; 420  : 					_Mylast = _Ucopy(_Right._Myfirst, _Right._Mylast,
; 421  : 						_Myfirst);

  00125	8b 46 04	 mov	 eax, DWORD PTR [esi+4]
  00128	8b 4f 08	 mov	 ecx, DWORD PTR [edi+8]
  0012b	8b 57 04	 mov	 edx, DWORD PTR [edi+4]
  0012e	50		 push	 eax
  0012f	51		 push	 ecx
  00130	52		 push	 edx
  00131	8b ce		 mov	 ecx, esi
  00133	e8 00 00 00 00	 call	 ??$_Ucopy@PAU_AdjData@@@?$vector@U_AdjData@@V?$allocator@U_AdjData@@@std@@@std@@IAEPAU_AdjData@@PAU2@00@Z ; std::vector<_AdjData,std::allocator<_AdjData> >::_Ucopy<_AdjData *>
  00138	89 46 08	 mov	 DWORD PTR [esi+8], eax
$L233647:
  0013b	5d		 pop	 ebp
  0013c	5b		 pop	 ebx
$L233648:
  0013d	5f		 pop	 edi

; 422  : 				}
; 423  : 			}
; 424  : 		return (*this);

  0013e	8b c6		 mov	 eax, esi
  00140	5e		 pop	 esi

; 425  : 		}

  00141	c2 04 00	 ret	 4
??4?$vector@U_AdjData@@V?$allocator@U_AdjData@@@std@@@std@@QAEAAV01@ABV01@@Z ENDP ; std::vector<_AdjData,std::allocator<_AdjData> >::operator=
_TEXT	ENDS
PUBLIC	??$insert@Viterator@?$vector@U_AdjData@@V?$allocator@U_AdjData@@@std@@@std@@@?$vector@U_AdjData@@V?$allocator@U_AdjData@@@std@@@std@@QAEXViterator@01@00@Z ; std::vector<_AdjData,std::allocator<_AdjData> >::insert<std::vector<_AdjData,std::allocator<_AdjData> >::iterator>
; Function compile flags: /Ogty
;	COMDAT ??$insert@Viterator@?$vector@U_AdjData@@V?$allocator@U_AdjData@@@std@@@std@@@?$vector@U_AdjData@@V?$allocator@U_AdjData@@@std@@@std@@QAEXViterator@01@00@Z
_TEXT	SEGMENT
__Where$ = 8						; size = 4
__First$ = 12						; size = 4
$T233656 = 16						; size = 1
__Last$ = 16						; size = 4
??$insert@Viterator@?$vector@U_AdjData@@V?$allocator@U_AdjData@@@std@@@std@@@?$vector@U_AdjData@@V?$allocator@U_AdjData@@@std@@@std@@QAEXViterator@01@00@Z PROC NEAR ; std::vector<_AdjData,std::allocator<_AdjData> >::insert<std::vector<_AdjData,std::allocator<_AdjData> >::iterator>, COMDAT
; _this$ = ecx

; 633  : 		{	// insert [_First, _Last) at _Where
; 634  : 		_Insert(_Where, _First, _Last, _Iter_cat(_First));

  00000	8b 44 24 0c	 mov	 eax, DWORD PTR $T233656[esp-4]
  00004	8b 54 24 0c	 mov	 edx, DWORD PTR __Last$[esp-4]
  00008	50		 push	 eax
  00009	8b 44 24 0c	 mov	 eax, DWORD PTR __First$[esp]
  0000d	52		 push	 edx
  0000e	8b 54 24 0c	 mov	 edx, DWORD PTR __Where$[esp+4]
  00012	50		 push	 eax
  00013	52		 push	 edx
  00014	e8 00 00 00 00	 call	 ??$_Insert@Viterator@?$vector@U_AdjData@@V?$allocator@U_AdjData@@@std@@@std@@@?$vector@U_AdjData@@V?$allocator@U_AdjData@@@std@@@std@@QAEXViterator@01@00Uforward_iterator_tag@1@@Z ; std::vector<_AdjData,std::allocator<_AdjData> >::_Insert<std::vector<_AdjData,std::allocator<_AdjData> >::iterator>

; 635  : 		}

  00019	c2 0c 00	 ret	 12			; 0000000cH
??$insert@Viterator@?$vector@U_AdjData@@V?$allocator@U_AdjData@@@std@@@std@@@?$vector@U_AdjData@@V?$allocator@U_AdjData@@@std@@@std@@QAEXViterator@01@00@Z ENDP ; std::vector<_AdjData,std::allocator<_AdjData> >::insert<std::vector<_AdjData,std::allocator<_AdjData> >::iterator>
_TEXT	ENDS
PUBLIC	??$_Destroy@U_RANDOM_OPTION@@@std@@YAXPAU_RANDOM_OPTION@@@Z ; std::_Destroy<_RANDOM_OPTION>
; Function compile flags: /Ogty
; File c:\program files\microsoft visual studio .net 2003\vc7\include\xmemory
;	COMDAT ??$_Destroy@U_RANDOM_OPTION@@@std@@YAXPAU_RANDOM_OPTION@@@Z
_TEXT	SEGMENT
__Ptr$ = 8						; size = 4
??$_Destroy@U_RANDOM_OPTION@@@std@@YAXPAU_RANDOM_OPTION@@@Z PROC NEAR ; std::_Destroy<_RANDOM_OPTION>, COMDAT

; 49   : 	_DESTRUCTOR(_Ty, _Ptr);

  00000	8b 4c 24 04	 mov	 ecx, DWORD PTR __Ptr$[esp-4]
  00004	e9 00 00 00 00	 jmp	 ??1_RANDOM_OPTION@@QAE@XZ
??$_Destroy@U_RANDOM_OPTION@@@std@@YAXPAU_RANDOM_OPTION@@@Z ENDP ; std::_Destroy<_RANDOM_OPTION>
_TEXT	ENDS
PUBLIC	??0?$vector@U_AdjData@@V?$allocator@U_AdjData@@@std@@@std@@QAE@XZ ; std::vector<_AdjData,std::allocator<_AdjData> >::vector<_AdjData,std::allocator<_AdjData> >
; Function compile flags: /Ogty
; File c:\program files\microsoft visual studio .net 2003\vc7\include\vector
;	COMDAT ??0?$vector@U_AdjData@@V?$allocator@U_AdjData@@@std@@@std@@QAE@XZ
_TEXT	SEGMENT
??0?$vector@U_AdjData@@V?$allocator@U_AdjData@@@std@@@std@@QAE@XZ PROC NEAR ; std::vector<_AdjData,std::allocator<_AdjData> >::vector<_AdjData,std::allocator<_AdjData> >, COMDAT
; _this$ = ecx

; 299  : 		{	// construct empty vector

  00000	8b c1		 mov	 eax, ecx

; 300  : 		_Buy(0);

  00002	33 c9		 xor	 ecx, ecx
  00004	89 48 04	 mov	 DWORD PTR [eax+4], ecx
  00007	89 48 08	 mov	 DWORD PTR [eax+8], ecx
  0000a	89 48 0c	 mov	 DWORD PTR [eax+12], ecx

; 301  : 		}

  0000d	c3		 ret	 0
??0?$vector@U_AdjData@@V?$allocator@U_AdjData@@@std@@@std@@QAE@XZ ENDP ; std::vector<_AdjData,std::allocator<_AdjData> >::vector<_AdjData,std::allocator<_AdjData> >
_TEXT	ENDS
PUBLIC	??0?$vector@U_RANDOM_OPTION@@V?$allocator@U_RANDOM_OPTION@@@std@@@std@@QAE@XZ ; std::vector<_RANDOM_OPTION,std::allocator<_RANDOM_OPTION> >::vector<_RANDOM_OPTION,std::allocator<_RANDOM_OPTION> >
; Function compile flags: /Ogty
;	COMDAT ??0?$vector@U_RANDOM_OPTION@@V?$allocator@U_RANDOM_OPTION@@@std@@@std@@QAE@XZ
_TEXT	SEGMENT
??0?$vector@U_RANDOM_OPTION@@V?$allocator@U_RANDOM_OPTION@@@std@@@std@@QAE@XZ PROC NEAR ; std::vector<_RANDOM_OPTION,std::allocator<_RANDOM_OPTION> >::vector<_RANDOM_OPTION,std::allocator<_RANDOM_OPTION> >, COMDAT
; _this$ = ecx

; 299  : 		{	// construct empty vector

  00000	8b c1		 mov	 eax, ecx

; 300  : 		_Buy(0);

  00002	33 c9		 xor	 ecx, ecx
  00004	89 48 04	 mov	 DWORD PTR [eax+4], ecx
  00007	89 48 08	 mov	 DWORD PTR [eax+8], ecx
  0000a	89 48 0c	 mov	 DWORD PTR [eax+12], ecx

; 301  : 		}

  0000d	c3		 ret	 0
??0?$vector@U_RANDOM_OPTION@@V?$allocator@U_RANDOM_OPTION@@@std@@@std@@QAE@XZ ENDP ; std::vector<_RANDOM_OPTION,std::allocator<_RANDOM_OPTION> >::vector<_RANDOM_OPTION,std::allocator<_RANDOM_OPTION> >
_TEXT	ENDS
PUBLIC	?insert@?$vector@U_AdjData@@V?$allocator@U_AdjData@@@std@@@std@@QAE?AViterator@12@V312@ABU_AdjData@@@Z ; std::vector<_AdjData,std::allocator<_AdjData> >::insert
; Function compile flags: /Ogty
;	COMDAT ?insert@?$vector@U_AdjData@@V?$allocator@U_AdjData@@@std@@@std@@QAE?AViterator@12@V312@ABU_AdjData@@@Z
_TEXT	SEGMENT
___$ReturnUdt$ = 8					; size = 4
__Where$ = 12						; size = 4
__Val$ = 16						; size = 4
?insert@?$vector@U_AdjData@@V?$allocator@U_AdjData@@@std@@@std@@QAE?AViterator@12@V312@ABU_AdjData@@@Z PROC NEAR ; std::vector<_AdjData,std::allocator<_AdjData> >::insert, COMDAT
; _this$ = ecx

; 621  : 		size_type _Off = size() == 0 ? 0 : _Where - begin();

  00000	8b 54 24 08	 mov	 edx, DWORD PTR __Where$[esp-4]
  00004	56		 push	 esi
  00005	57		 push	 edi
  00006	8b f9		 mov	 edi, ecx
  00008	8b 4f 04	 mov	 ecx, DWORD PTR [edi+4]
  0000b	85 c9		 test	 ecx, ecx
  0000d	74 0c		 je	 SHORT $L233853
  0000f	8b 47 08	 mov	 eax, DWORD PTR [edi+8]
  00012	2b c1		 sub	 eax, ecx
  00014	c1 f8 03	 sar	 eax, 3
  00017	85 c0		 test	 eax, eax
  00019	75 04		 jne	 SHORT $L233792
$L233853:
  0001b	33 f6		 xor	 esi, esi
  0001d	eb 07		 jmp	 SHORT $L233793
$L233792:
  0001f	8b f2		 mov	 esi, edx
  00021	2b f1		 sub	 esi, ecx
  00023	c1 fe 03	 sar	 esi, 3
$L233793:

; 622  : 		_Insert_n(_Where, (size_type)1, _Val);

  00026	8b 44 24 14	 mov	 eax, DWORD PTR __Val$[esp+4]
  0002a	50		 push	 eax
  0002b	6a 01		 push	 1
  0002d	52		 push	 edx
  0002e	8b cf		 mov	 ecx, edi
  00030	e8 00 00 00 00	 call	 ?_Insert_n@?$vector@U_AdjData@@V?$allocator@U_AdjData@@@std@@@std@@IAEXViterator@12@IABU_AdjData@@@Z ; std::vector<_AdjData,std::allocator<_AdjData> >::_Insert_n

; 623  : 		return (begin() + _Off);

  00035	8b 4f 04	 mov	 ecx, DWORD PTR [edi+4]
  00038	8b 44 24 0c	 mov	 eax, DWORD PTR ___$ReturnUdt$[esp+4]
  0003c	8d 14 f1	 lea	 edx, DWORD PTR [ecx+esi*8]
  0003f	5f		 pop	 edi
  00040	89 10		 mov	 DWORD PTR [eax], edx
  00042	5e		 pop	 esi

; 624  : 		}

  00043	c2 0c 00	 ret	 12			; 0000000cH
?insert@?$vector@U_AdjData@@V?$allocator@U_AdjData@@@std@@@std@@QAE?AViterator@12@V312@ABU_AdjData@@@Z ENDP ; std::vector<_AdjData,std::allocator<_AdjData> >::insert
_TEXT	ENDS
PUBLIC	??0_RANDOM_OPTION@@QAE@ABU0@@Z			; _RANDOM_OPTION::_RANDOM_OPTION
; Function compile flags: /Ogty
;	COMDAT ??0_RANDOM_OPTION@@QAE@ABU0@@Z
_TEXT	SEGMENT
___that$ = 8						; size = 4
??0_RANDOM_OPTION@@QAE@ABU0@@Z PROC NEAR		; _RANDOM_OPTION::_RANDOM_OPTION, COMDAT
; _this$ = ecx
  00000	8b 44 24 04	 mov	 eax, DWORD PTR ___that$[esp-4]
  00004	56		 push	 esi
  00005	8b f1		 mov	 esi, ecx
  00007	8b 08		 mov	 ecx, DWORD PTR [eax]
  00009	89 0e		 mov	 DWORD PTR [esi], ecx
  0000b	8b 50 04	 mov	 edx, DWORD PTR [eax+4]
  0000e	83 c0 08	 add	 eax, 8
  00011	50		 push	 eax
  00012	8d 4e 08	 lea	 ecx, DWORD PTR [esi+8]
  00015	89 56 04	 mov	 DWORD PTR [esi+4], edx
  00018	e8 00 00 00 00	 call	 ??0?$vector@U_AdjData@@V?$allocator@U_AdjData@@@std@@@std@@QAE@ABV01@@Z ; std::vector<_AdjData,std::allocator<_AdjData> >::vector<_AdjData,std::allocator<_AdjData> >
  0001d	8b c6		 mov	 eax, esi
  0001f	5e		 pop	 esi
  00020	c2 04 00	 ret	 4
??0_RANDOM_OPTION@@QAE@ABU0@@Z ENDP			; _RANDOM_OPTION::_RANDOM_OPTION
_TEXT	ENDS
PUBLIC	??4_RANDOM_OPTION@@QAEAAU0@ABU0@@Z		; _RANDOM_OPTION::operator=
; Function compile flags: /Ogty
;	COMDAT ??4_RANDOM_OPTION@@QAEAAU0@ABU0@@Z
_TEXT	SEGMENT
___that$ = 8						; size = 4
??4_RANDOM_OPTION@@QAEAAU0@ABU0@@Z PROC NEAR		; _RANDOM_OPTION::operator=, COMDAT
; _this$ = ecx
  00000	8b 44 24 04	 mov	 eax, DWORD PTR ___that$[esp-4]
  00004	56		 push	 esi
  00005	8b f1		 mov	 esi, ecx
  00007	8b 08		 mov	 ecx, DWORD PTR [eax]
  00009	89 0e		 mov	 DWORD PTR [esi], ecx
  0000b	8b 50 04	 mov	 edx, DWORD PTR [eax+4]
  0000e	83 c0 08	 add	 eax, 8
  00011	50		 push	 eax
  00012	8d 4e 08	 lea	 ecx, DWORD PTR [esi+8]
  00015	89 56 04	 mov	 DWORD PTR [esi+4], edx
  00018	e8 00 00 00 00	 call	 ??4?$vector@U_AdjData@@V?$allocator@U_AdjData@@@std@@@std@@QAEAAV01@ABV01@@Z ; std::vector<_AdjData,std::allocator<_AdjData> >::operator=
  0001d	8b c6		 mov	 eax, esi
  0001f	5e		 pop	 esi
  00020	c2 04 00	 ret	 4
??4_RANDOM_OPTION@@QAEAAU0@ABU0@@Z ENDP			; _RANDOM_OPTION::operator=
_TEXT	ENDS
PUBLIC	??$_Assign@Viterator@?$vector@U_AdjData@@V?$allocator@U_AdjData@@@std@@@std@@@?$vector@U_AdjData@@V?$allocator@U_AdjData@@@std@@@std@@QAEXViterator@01@0Uinput_iterator_tag@1@@Z ; std::vector<_AdjData,std::allocator<_AdjData> >::_Assign<std::vector<_AdjData,std::allocator<_AdjData> >::iterator>
; Function compile flags: /Ogty
;	COMDAT ??$_Assign@Viterator@?$vector@U_AdjData@@V?$allocator@U_AdjData@@@std@@@std@@@?$vector@U_AdjData@@V?$allocator@U_AdjData@@@std@@@std@@QAEXViterator@01@0Uinput_iterator_tag@1@@Z
_TEXT	SEGMENT
__First$ = 8						; size = 4
$T233984 = 12						; size = 1
__Last$ = 12						; size = 4
___formal$ = 16						; size = 1
??$_Assign@Viterator@?$vector@U_AdjData@@V?$allocator@U_AdjData@@@std@@@std@@@?$vector@U_AdjData@@V?$allocator@U_AdjData@@@std@@@std@@QAEXViterator@01@0Uinput_iterator_tag@1@@Z PROC NEAR ; std::vector<_AdjData,std::allocator<_AdjData> >::_Assign<std::vector<_AdjData,std::allocator<_AdjData> >::iterator>, COMDAT
; _this$ = ecx

; 609  : 		{	// assign [_First, _Last), input iterators
; 610  : 		erase(begin(), end());

  00000	8b 51 04	 mov	 edx, DWORD PTR [ecx+4]
  00003	56		 push	 esi
  00004	8b 71 08	 mov	 esi, DWORD PTR [ecx+8]
  00007	3b d6		 cmp	 edx, esi
  00009	74 1f		 je	 SHORT $L233954
  0000b	3b f6		 cmp	 esi, esi
  0000d	8b c6		 mov	 eax, esi
  0000f	74 16		 je	 SHORT $L233950
  00011	57		 push	 edi
$L233948:
  00012	8b 38		 mov	 edi, DWORD PTR [eax]
  00014	89 3a		 mov	 DWORD PTR [edx], edi
  00016	8b 78 04	 mov	 edi, DWORD PTR [eax+4]
  00019	89 7a 04	 mov	 DWORD PTR [edx+4], edi
  0001c	83 c0 08	 add	 eax, 8
  0001f	83 c2 08	 add	 edx, 8
  00022	3b c6		 cmp	 eax, esi
  00024	75 ec		 jne	 SHORT $L233948
  00026	5f		 pop	 edi
$L233950:
  00027	89 51 08	 mov	 DWORD PTR [ecx+8], edx
$L233954:

; 611  : 		insert(begin(), _First, _Last);

  0002a	8b 54 24 0c	 mov	 edx, DWORD PTR $T233984[esp]
  0002e	8b 41 04	 mov	 eax, DWORD PTR [ecx+4]
  00031	52		 push	 edx
  00032	8b 54 24 10	 mov	 edx, DWORD PTR __Last$[esp+4]
  00036	52		 push	 edx
  00037	8b 54 24 10	 mov	 edx, DWORD PTR __First$[esp+8]
  0003b	52		 push	 edx
  0003c	50		 push	 eax
  0003d	e8 00 00 00 00	 call	 ??$_Insert@Viterator@?$vector@U_AdjData@@V?$allocator@U_AdjData@@@std@@@std@@@?$vector@U_AdjData@@V?$allocator@U_AdjData@@@std@@@std@@QAEXViterator@01@00Uforward_iterator_tag@1@@Z ; std::vector<_AdjData,std::allocator<_AdjData> >::_Insert<std::vector<_AdjData,std::allocator<_AdjData> >::iterator>
  00042	5e		 pop	 esi

; 612  : 		}

  00043	c2 0c 00	 ret	 12			; 0000000cH
??$_Assign@Viterator@?$vector@U_AdjData@@V?$allocator@U_AdjData@@@std@@@std@@@?$vector@U_AdjData@@V?$allocator@U_AdjData@@@std@@@std@@QAEXViterator@01@0Uinput_iterator_tag@1@@Z ENDP ; std::vector<_AdjData,std::allocator<_AdjData> >::_Assign<std::vector<_AdjData,std::allocator<_AdjData> >::iterator>
_TEXT	ENDS
PUBLIC	??$_Copy_backward_opt@PAU_RANDOM_OPTION@@PAU1@@std@@YAPAU_RANDOM_OPTION@@PAU1@00U_Nonscalar_ptr_iterator_tag@0@@Z ; std::_Copy_backward_opt<_RANDOM_OPTION *,_RANDOM_OPTION *>
; Function compile flags: /Ogty
; File c:\program files\microsoft visual studio .net 2003\vc7\include\xutility
;	COMDAT ??$_Copy_backward_opt@PAU_RANDOM_OPTION@@PAU1@@std@@YAPAU_RANDOM_OPTION@@PAU1@00U_Nonscalar_ptr_iterator_tag@0@@Z
_TEXT	SEGMENT
__First$ = 8						; size = 4
__Last$ = 12						; size = 4
__Dest$ = 16						; size = 4
___formal$ = 20						; size = 1
??$_Copy_backward_opt@PAU_RANDOM_OPTION@@PAU1@@std@@YAPAU_RANDOM_OPTION@@PAU1@00U_Nonscalar_ptr_iterator_tag@0@@Z PROC NEAR ; std::_Copy_backward_opt<_RANDOM_OPTION *,_RANDOM_OPTION *>, COMDAT

; 1048 : 	{	// copy [_First, _Last) backwards to [..., _Dest), arbitrary iterators

  00000	53		 push	 ebx

; 1049 : 	while (_First != _Last)

  00001	8b 5c 24 08	 mov	 ebx, DWORD PTR __First$[esp]
  00005	56		 push	 esi
  00006	8b 74 24 10	 mov	 esi, DWORD PTR __Last$[esp+4]
  0000a	3b de		 cmp	 ebx, esi
  0000c	74 2c		 je	 SHORT $L233999
  0000e	57		 push	 edi
  0000f	8b 7c 24 18	 mov	 edi, DWORD PTR __Dest$[esp+8]
$L228202:

; 1050 : 		*--_Dest = *--_Last;

  00013	8b 46 e8	 mov	 eax, DWORD PTR [esi-24]
  00016	83 ee 18	 sub	 esi, 24			; 00000018H
  00019	83 ef 18	 sub	 edi, 24			; 00000018H
  0001c	89 07		 mov	 DWORD PTR [edi], eax
  0001e	8b 4e 04	 mov	 ecx, DWORD PTR [esi+4]
  00021	8d 56 08	 lea	 edx, DWORD PTR [esi+8]
  00024	89 4f 04	 mov	 DWORD PTR [edi+4], ecx
  00027	52		 push	 edx
  00028	8d 4f 08	 lea	 ecx, DWORD PTR [edi+8]
  0002b	e8 00 00 00 00	 call	 ??4?$vector@U_AdjData@@V?$allocator@U_AdjData@@@std@@@std@@QAEAAV01@ABV01@@Z ; std::vector<_AdjData,std::allocator<_AdjData> >::operator=
  00030	3b f3		 cmp	 esi, ebx
  00032	75 df		 jne	 SHORT $L228202

; 1051 : 	return (_Dest);

  00034	8b c7		 mov	 eax, edi
  00036	5f		 pop	 edi
  00037	5e		 pop	 esi
  00038	5b		 pop	 ebx

; 1052 : 	}

  00039	c3		 ret	 0
$L233999:

; 1051 : 	return (_Dest);

  0003a	8b 44 24 14	 mov	 eax, DWORD PTR __Dest$[esp+4]
  0003e	5e		 pop	 esi
  0003f	5b		 pop	 ebx

; 1052 : 	}

  00040	c3		 ret	 0
??$_Copy_backward_opt@PAU_RANDOM_OPTION@@PAU1@@std@@YAPAU_RANDOM_OPTION@@PAU1@00U_Nonscalar_ptr_iterator_tag@0@@Z ENDP ; std::_Copy_backward_opt<_RANDOM_OPTION *,_RANDOM_OPTION *>
_TEXT	ENDS
PUBLIC	?destroy@?$allocator@U_RANDOM_OPTION@@@std@@QAEXPAU_RANDOM_OPTION@@@Z ; std::allocator<_RANDOM_OPTION>::destroy
; Function compile flags: /Ogty
; File c:\program files\microsoft visual studio .net 2003\vc7\include\xmemory
;	COMDAT ?destroy@?$allocator@U_RANDOM_OPTION@@@std@@QAEXPAU_RANDOM_OPTION@@@Z
_TEXT	SEGMENT
__Ptr$ = 8						; size = 4
?destroy@?$allocator@U_RANDOM_OPTION@@@std@@QAEXPAU_RANDOM_OPTION@@@Z PROC NEAR ; std::allocator<_RANDOM_OPTION>::destroy, COMDAT
; _this$ = ecx

; 152  : 		_Destroy(_Ptr);

  00000	8b 4c 24 04	 mov	 ecx, DWORD PTR __Ptr$[esp-4]
  00004	e8 00 00 00 00	 call	 ??1_RANDOM_OPTION@@QAE@XZ

; 153  : 		}

  00009	c2 04 00	 ret	 4
?destroy@?$allocator@U_RANDOM_OPTION@@@std@@QAEXPAU_RANDOM_OPTION@@@Z ENDP ; std::allocator<_RANDOM_OPTION>::destroy
_TEXT	ENDS
PUBLIC	??$_Construct@U_RANDOM_OPTION@@U1@@std@@YAXPAU_RANDOM_OPTION@@ABU1@@Z ; std::_Construct<_RANDOM_OPTION,_RANDOM_OPTION>
;	COMDAT xdata$x
; File c:\program files\microsoft visual studio .net 2003\vc7\atlmfc\include\cstringt.h
xdata$x	SEGMENT
$T234031 DD	0ffffffffH
	DD	FLAT:$L234020
$T234029 DD	019930520H
	DD	01H
	DD	FLAT:$T234031
	DD	2 DUP(00H)
	DD	2 DUP(00H)
; Function compile flags: /Ogty
; File c:\program files\microsoft visual studio .net 2003\vc7\include\xmemory
xdata$x	ENDS
;	COMDAT ??$_Construct@U_RANDOM_OPTION@@U1@@std@@YAXPAU_RANDOM_OPTION@@ABU1@@Z
_TEXT	SEGMENT
$T234017 = -16						; size = 4
__$EHRec$ = -12						; size = 12
__Ptr$ = 8						; size = 4
__Val$ = 12						; size = 4
??$_Construct@U_RANDOM_OPTION@@U1@@std@@YAXPAU_RANDOM_OPTION@@ABU1@@Z PROC NEAR ; std::_Construct<_RANDOM_OPTION,_RANDOM_OPTION>, COMDAT

; 41   : 	{	// construct object at _Ptr with value _Val

  00000	6a ff		 push	 -1
  00002	68 00 00 00 00	 push	 __ehhandler$??$_Construct@U_RANDOM_OPTION@@U1@@std@@YAXPAU_RANDOM_OPTION@@ABU1@@Z
  00007	64 a1 00 00 00
	00		 mov	 eax, DWORD PTR fs:__except_list
  0000d	50		 push	 eax
  0000e	64 89 25 00 00
	00 00		 mov	 DWORD PTR fs:__except_list, esp
  00015	51		 push	 ecx

; 42   : 	new ((void _FARQ *)_Ptr) _T1(_Val);

  00016	8b 44 24 14	 mov	 eax, DWORD PTR __Ptr$[esp+12]
  0001a	89 04 24	 mov	 DWORD PTR $T234017[esp+16], eax
  0001d	85 c0		 test	 eax, eax
  0001f	c7 44 24 0c 00
	00 00 00	 mov	 DWORD PTR __$EHRec$[esp+24], 0
  00027	74 1a		 je	 SHORT $L234018
  00029	8b 4c 24 18	 mov	 ecx, DWORD PTR __Val$[esp+12]
  0002d	8b 11		 mov	 edx, DWORD PTR [ecx]
  0002f	89 10		 mov	 DWORD PTR [eax], edx
  00031	8b 51 04	 mov	 edx, DWORD PTR [ecx+4]
  00034	83 c1 08	 add	 ecx, 8
  00037	51		 push	 ecx
  00038	8d 48 08	 lea	 ecx, DWORD PTR [eax+8]
  0003b	89 50 04	 mov	 DWORD PTR [eax+4], edx
  0003e	e8 00 00 00 00	 call	 ??0?$vector@U_AdjData@@V?$allocator@U_AdjData@@@std@@@std@@QAE@ABV01@@Z ; std::vector<_AdjData,std::allocator<_AdjData> >::vector<_AdjData,std::allocator<_AdjData> >
$L234018:

; 43   : 	}

  00043	8b 4c 24 04	 mov	 ecx, DWORD PTR __$EHRec$[esp+16]
  00047	64 89 0d 00 00
	00 00		 mov	 DWORD PTR fs:__except_list, ecx
  0004e	83 c4 10	 add	 esp, 16			; 00000010H
  00051	c3		 ret	 0
_TEXT	ENDS
;	COMDAT text$x
text$x	SEGMENT
$L234020:
  00000	8b 45 04	 mov	 eax, DWORD PTR __Ptr$[ebp-4]
  00003	50		 push	 eax
  00004	8b 4d f0	 mov	 ecx, DWORD PTR $T234017[ebp]
  00007	51		 push	 ecx
  00008	e8 00 00 00 00	 call	 ??3@YAXPAX0@Z		; operator delete
  0000d	83 c4 08	 add	 esp, 8
  00010	c3		 ret	 0
__ehhandler$??$_Construct@U_RANDOM_OPTION@@U1@@std@@YAXPAU_RANDOM_OPTION@@ABU1@@Z:
  00011	b8 00 00 00 00	 mov	 eax, OFFSET FLAT:$T234029
  00016	e9 00 00 00 00	 jmp	 ___CxxFrameHandler
text$x	ENDS
??$_Construct@U_RANDOM_OPTION@@U1@@std@@YAXPAU_RANDOM_OPTION@@ABU1@@Z ENDP ; std::_Construct<_RANDOM_OPTION,_RANDOM_OPTION>
PUBLIC	??0_RANDOM_OPTION@@QAE@XZ			; _RANDOM_OPTION::_RANDOM_OPTION
; Function compile flags: /Ogty
; File c:\documents and settings\test\mes documents\source\virtuos_v17\build\program\_common\randomoption.h
;	COMDAT ??0_RANDOM_OPTION@@QAE@XZ
_TEXT	SEGMENT
??0_RANDOM_OPTION@@QAE@XZ PROC NEAR			; _RANDOM_OPTION::_RANDOM_OPTION, COMDAT
; _this$ = ecx

; 36   : 	_RANDOM_OPTION()

  00000	8b c1		 mov	 eax, ecx
  00002	33 c9		 xor	 ecx, ecx
  00004	89 48 0c	 mov	 DWORD PTR [eax+12], ecx
  00007	89 48 10	 mov	 DWORD PTR [eax+16], ecx
  0000a	89 48 14	 mov	 DWORD PTR [eax+20], ecx

; 37   : 	{
; 38   : 		nDst	= 0;

  0000d	89 08		 mov	 DWORD PTR [eax], ecx

; 39   : 		nProb	= 0;

  0000f	89 48 04	 mov	 DWORD PTR [eax+4], ecx

; 40   : 	}

  00012	c3		 ret	 0
??0_RANDOM_OPTION@@QAE@XZ ENDP				; _RANDOM_OPTION::_RANDOM_OPTION
_TEXT	ENDS
PUBLIC	?push_back@?$vector@U_AdjData@@V?$allocator@U_AdjData@@@std@@@std@@QAEXABU_AdjData@@@Z ; std::vector<_AdjData,std::allocator<_AdjData> >::push_back
; Function compile flags: /Ogty
; File c:\program files\microsoft visual studio .net 2003\vc7\include\vector
;	COMDAT ?push_back@?$vector@U_AdjData@@V?$allocator@U_AdjData@@@std@@@std@@QAEXABU_AdjData@@@Z
_TEXT	SEGMENT
__Cat$234164 = 8					; size = 1
__Val$ = 8						; size = 4
?push_back@?$vector@U_AdjData@@V?$allocator@U_AdjData@@@std@@@std@@QAEXABU_AdjData@@@Z PROC NEAR ; std::vector<_AdjData,std::allocator<_AdjData> >::push_back, COMDAT
; _this$ = ecx

; 579  : 		{	// insert element at end

  00000	56		 push	 esi
  00001	8b f1		 mov	 esi, ecx

; 580  : 		if (size() < capacity())

  00003	8b 56 04	 mov	 edx, DWORD PTR [esi+4]
  00006	85 d2		 test	 edx, edx
  00008	75 04		 jne	 SHORT $L234134
  0000a	33 c9		 xor	 ecx, ecx
  0000c	eb 08		 jmp	 SHORT $L234135
$L234134:
  0000e	8b 4e 08	 mov	 ecx, DWORD PTR [esi+8]
  00011	2b ca		 sub	 ecx, edx
  00013	c1 f9 03	 sar	 ecx, 3
$L234135:
  00016	85 d2		 test	 edx, edx
  00018	74 31		 je	 SHORT $L226734
  0001a	8b 46 0c	 mov	 eax, DWORD PTR [esi+12]
  0001d	2b c2		 sub	 eax, edx
  0001f	c1 f8 03	 sar	 eax, 3
  00022	3b c8		 cmp	 ecx, eax
  00024	73 25		 jae	 SHORT $L226734

; 581  : 			_Mylast = _Ufill(_Mylast, 1, _Val);

  00026	8b 44 24 08	 mov	 eax, DWORD PTR __Cat$234164[esp]
  0002a	8b 4c 24 08	 mov	 ecx, DWORD PTR __Val$[esp]
  0002e	57		 push	 edi
  0002f	8b 7e 08	 mov	 edi, DWORD PTR [esi+8]
  00032	50		 push	 eax
  00033	56		 push	 esi
  00034	51		 push	 ecx
  00035	6a 01		 push	 1
  00037	57		 push	 edi
  00038	e8 00 00 00 00	 call	 ??$_Uninit_fill_n@PAU_AdjData@@IU1@V?$allocator@U_AdjData@@@std@@@std@@YAXPAU_AdjData@@IABU1@AAV?$allocator@U_AdjData@@@0@U_Nonscalar_ptr_iterator_tag@0@@Z ; std::_Uninit_fill_n<_AdjData *,unsigned int,_AdjData,std::allocator<_AdjData> >
  0003d	83 c4 14	 add	 esp, 20			; 00000014H
  00040	83 c7 08	 add	 edi, 8
  00043	89 7e 08	 mov	 DWORD PTR [esi+8], edi
  00046	5f		 pop	 edi
  00047	5e		 pop	 esi

; 584  : 		}

  00048	c2 04 00	 ret	 4
$L226734:

; 582  : 		else
; 583  : 			insert(end(), _Val);

  0004b	8b 54 24 08	 mov	 edx, DWORD PTR __Val$[esp]
  0004f	8b 46 08	 mov	 eax, DWORD PTR [esi+8]
  00052	52		 push	 edx
  00053	6a 01		 push	 1
  00055	50		 push	 eax
  00056	8b ce		 mov	 ecx, esi
  00058	e8 00 00 00 00	 call	 ?_Insert_n@?$vector@U_AdjData@@V?$allocator@U_AdjData@@@std@@@std@@IAEXViterator@12@IABU_AdjData@@@Z ; std::vector<_AdjData,std::allocator<_AdjData> >::_Insert_n
  0005d	5e		 pop	 esi

; 584  : 		}

  0005e	c2 04 00	 ret	 4
?push_back@?$vector@U_AdjData@@V?$allocator@U_AdjData@@@std@@@std@@QAEXABU_AdjData@@@Z ENDP ; std::vector<_AdjData,std::allocator<_AdjData> >::push_back
_TEXT	ENDS
PUBLIC	??$assign@Viterator@?$vector@U_AdjData@@V?$allocator@U_AdjData@@@std@@@std@@@?$vector@U_AdjData@@V?$allocator@U_AdjData@@@std@@@std@@QAEXViterator@01@0@Z ; std::vector<_AdjData,std::allocator<_AdjData> >::assign<std::vector<_AdjData,std::allocator<_AdjData> >::iterator>
; Function compile flags: /Ogty
;	COMDAT ??$assign@Viterator@?$vector@U_AdjData@@V?$allocator@U_AdjData@@@std@@@std@@@?$vector@U_AdjData@@V?$allocator@U_AdjData@@@std@@@std@@QAEXViterator@01@0@Z
_TEXT	SEGMENT
__First$ = 8						; size = 4
$T234283 = 12						; size = 1
__Last$ = 12						; size = 4
??$assign@Viterator@?$vector@U_AdjData@@V?$allocator@U_AdjData@@@std@@@std@@@?$vector@U_AdjData@@V?$allocator@U_AdjData@@@std@@@std@@QAEXViterator@01@0@Z PROC NEAR ; std::vector<_AdjData,std::allocator<_AdjData> >::assign<std::vector<_AdjData,std::allocator<_AdjData> >::iterator>, COMDAT
; _this$ = ecx

; 597  : 		{	// assign [_First, _Last)
; 598  : 		_Assign(_First, _Last, _Iter_cat(_First));

  00000	8b 44 24 08	 mov	 eax, DWORD PTR $T234283[esp-4]
  00004	8b 54 24 08	 mov	 edx, DWORD PTR __Last$[esp-4]
  00008	50		 push	 eax
  00009	8b 44 24 08	 mov	 eax, DWORD PTR __First$[esp]
  0000d	52		 push	 edx
  0000e	50		 push	 eax
  0000f	e8 00 00 00 00	 call	 ??$_Assign@Viterator@?$vector@U_AdjData@@V?$allocator@U_AdjData@@@std@@@std@@@?$vector@U_AdjData@@V?$allocator@U_AdjData@@@std@@@std@@QAEXViterator@01@0Uinput_iterator_tag@1@@Z ; std::vector<_AdjData,std::allocator<_AdjData> >::_Assign<std::vector<_AdjData,std::allocator<_AdjData> >::iterator>

; 599  : 		}

  00014	c2 08 00	 ret	 8
??$assign@Viterator@?$vector@U_AdjData@@V?$allocator@U_AdjData@@@std@@@std@@@?$vector@U_AdjData@@V?$allocator@U_AdjData@@@std@@@std@@QAEXViterator@01@0@Z ENDP ; std::vector<_AdjData,std::allocator<_AdjData> >::assign<std::vector<_AdjData,std::allocator<_AdjData> >::iterator>
_TEXT	ENDS
PUBLIC	??$fill@PAU_RANDOM_OPTION@@U1@@std@@YAXPAU_RANDOM_OPTION@@0ABU1@@Z ; std::fill<_RANDOM_OPTION *,_RANDOM_OPTION>
; Function compile flags: /Ogty
; File c:\program files\microsoft visual studio .net 2003\vc7\include\xutility
;	COMDAT ??$fill@PAU_RANDOM_OPTION@@U1@@std@@YAXPAU_RANDOM_OPTION@@0ABU1@@Z
_TEXT	SEGMENT
__First$ = 8						; size = 4
__Last$ = 12						; size = 4
__Val$ = 16						; size = 4
??$fill@PAU_RANDOM_OPTION@@U1@@std@@YAXPAU_RANDOM_OPTION@@0ABU1@@Z PROC NEAR ; std::fill<_RANDOM_OPTION *,_RANDOM_OPTION>, COMDAT

; 1134 : 	{	// copy _Val through [_First, _Last)

  00000	55		 push	 ebp

; 1135 : 	for (; _First != _Last; ++_First)

  00001	8b 6c 24 0c	 mov	 ebp, DWORD PTR __Last$[esp]
  00005	56		 push	 esi
  00006	8b 74 24 0c	 mov	 esi, DWORD PTR __First$[esp+4]
  0000a	3b f5		 cmp	 esi, ebp
  0000c	74 25		 je	 SHORT $L227882
  0000e	53		 push	 ebx
  0000f	57		 push	 edi
  00010	8b 7c 24 1c	 mov	 edi, DWORD PTR __Val$[esp+12]
  00014	8d 5f 08	 lea	 ebx, DWORD PTR [edi+8]
$L227880:

; 1136 : 		*_First = _Val;

  00017	8b 07		 mov	 eax, DWORD PTR [edi]
  00019	89 06		 mov	 DWORD PTR [esi], eax
  0001b	8b 4f 04	 mov	 ecx, DWORD PTR [edi+4]
  0001e	89 4e 04	 mov	 DWORD PTR [esi+4], ecx
  00021	53		 push	 ebx
  00022	8d 4e 08	 lea	 ecx, DWORD PTR [esi+8]
  00025	e8 00 00 00 00	 call	 ??4?$vector@U_AdjData@@V?$allocator@U_AdjData@@@std@@@std@@QAEAAV01@ABV01@@Z ; std::vector<_AdjData,std::allocator<_AdjData> >::operator=
  0002a	83 c6 18	 add	 esi, 24			; 00000018H
  0002d	3b f5		 cmp	 esi, ebp
  0002f	75 e6		 jne	 SHORT $L227880
  00031	5f		 pop	 edi
  00032	5b		 pop	 ebx
$L227882:
  00033	5e		 pop	 esi
  00034	5d		 pop	 ebp

; 1137 : 	}

  00035	c3		 ret	 0
??$fill@PAU_RANDOM_OPTION@@U1@@std@@YAXPAU_RANDOM_OPTION@@0ABU1@@Z ENDP ; std::fill<_RANDOM_OPTION *,_RANDOM_OPTION>
_TEXT	ENDS
PUBLIC	??$copy_backward@PAU_RANDOM_OPTION@@PAU1@@std@@YAPAU_RANDOM_OPTION@@PAU1@00@Z ; std::copy_backward<_RANDOM_OPTION *,_RANDOM_OPTION *>
; Function compile flags: /Ogty
;	COMDAT ??$copy_backward@PAU_RANDOM_OPTION@@PAU1@@std@@YAPAU_RANDOM_OPTION@@PAU1@00@Z
_TEXT	SEGMENT
__Cat$234302 = -4					; size = 1
__First$ = 8						; size = 4
__Last$ = 12						; size = 4
__Dest$ = 16						; size = 4
??$copy_backward@PAU_RANDOM_OPTION@@PAU1@@std@@YAPAU_RANDOM_OPTION@@PAU1@00@Z PROC NEAR ; std::copy_backward<_RANDOM_OPTION *,_RANDOM_OPTION *>, COMDAT

; 1067 : 	{	// copy [_First, _Last) backwards to [..., _Dest)

  00000	51		 push	 ecx

; 1068 : 	return (_Copy_backward_opt(_First, _Last, _Dest,
; 1069 : 		_Ptr_cat(_First, _Dest)));

  00001	8b 04 24	 mov	 eax, DWORD PTR __Cat$234302[esp+4]
  00004	8b 4c 24 10	 mov	 ecx, DWORD PTR __Dest$[esp]
  00008	8b 54 24 0c	 mov	 edx, DWORD PTR __Last$[esp]
  0000c	50		 push	 eax
  0000d	8b 44 24 0c	 mov	 eax, DWORD PTR __First$[esp+4]
  00011	51		 push	 ecx
  00012	52		 push	 edx
  00013	50		 push	 eax
  00014	e8 00 00 00 00	 call	 ??$_Copy_backward_opt@PAU_RANDOM_OPTION@@PAU1@@std@@YAPAU_RANDOM_OPTION@@PAU1@00U_Nonscalar_ptr_iterator_tag@0@@Z ; std::_Copy_backward_opt<_RANDOM_OPTION *,_RANDOM_OPTION *>

; 1070 : 	}

  00019	83 c4 14	 add	 esp, 20			; 00000014H
  0001c	c3		 ret	 0
??$copy_backward@PAU_RANDOM_OPTION@@PAU1@@std@@YAPAU_RANDOM_OPTION@@PAU1@00@Z ENDP ; std::copy_backward<_RANDOM_OPTION *,_RANDOM_OPTION *>
_TEXT	ENDS
PUBLIC	??$_Destroy_range@U_RANDOM_OPTION@@V?$allocator@U_RANDOM_OPTION@@@std@@@std@@YAXPAU_RANDOM_OPTION@@0AAV?$allocator@U_RANDOM_OPTION@@@0@U_Nonscalar_ptr_iterator_tag@0@@Z ; std::_Destroy_range<_RANDOM_OPTION,std::allocator<_RANDOM_OPTION> >
; Function compile flags: /Ogty
; File c:\program files\microsoft visual studio .net 2003\vc7\include\xmemory
;	COMDAT ??$_Destroy_range@U_RANDOM_OPTION@@V?$allocator@U_RANDOM_OPTION@@@std@@@std@@YAXPAU_RANDOM_OPTION@@0AAV?$allocator@U_RANDOM_OPTION@@@0@U_Nonscalar_ptr_iterator_tag@0@@Z
_TEXT	SEGMENT
__First$ = 8						; size = 4
__Last$ = 12						; size = 4
__Al$ = 16						; size = 4
___formal$ = 20						; size = 1
??$_Destroy_range@U_RANDOM_OPTION@@V?$allocator@U_RANDOM_OPTION@@@std@@@std@@YAXPAU_RANDOM_OPTION@@0AAV?$allocator@U_RANDOM_OPTION@@@0@U_Nonscalar_ptr_iterator_tag@0@@Z PROC NEAR ; std::_Destroy_range<_RANDOM_OPTION,std::allocator<_RANDOM_OPTION> >, COMDAT

; 224  : 	{	// destroy [_First, _Last), arbitrary type

  00000	56		 push	 esi

; 225  : 	for (; _First != _Last; ++_First)

  00001	8b 74 24 08	 mov	 esi, DWORD PTR __First$[esp]
  00005	57		 push	 edi
  00006	8b 7c 24 10	 mov	 edi, DWORD PTR __Last$[esp+4]
  0000a	3b f7		 cmp	 esi, edi
  0000c	74 10		 je	 SHORT $L228159
  0000e	8b ff		 npad	 2
$L228157:

; 226  : 		_Al.destroy(_First);

  00010	8b ce		 mov	 ecx, esi
  00012	e8 00 00 00 00	 call	 ??1_RANDOM_OPTION@@QAE@XZ
  00017	83 c6 18	 add	 esi, 24			; 00000018H
  0001a	3b f7		 cmp	 esi, edi
  0001c	75 f2		 jne	 SHORT $L228157
$L228159:
  0001e	5f		 pop	 edi
  0001f	5e		 pop	 esi

; 227  : 	}

  00020	c3		 ret	 0
??$_Destroy_range@U_RANDOM_OPTION@@V?$allocator@U_RANDOM_OPTION@@@std@@@std@@YAXPAU_RANDOM_OPTION@@0AAV?$allocator@U_RANDOM_OPTION@@@0@U_Nonscalar_ptr_iterator_tag@0@@Z ENDP ; std::_Destroy_range<_RANDOM_OPTION,std::allocator<_RANDOM_OPTION> >
_TEXT	ENDS
PUBLIC	?construct@?$allocator@U_RANDOM_OPTION@@@std@@QAEXPAU_RANDOM_OPTION@@ABU3@@Z ; std::allocator<_RANDOM_OPTION>::construct
; Function compile flags: /Ogty
;	COMDAT ?construct@?$allocator@U_RANDOM_OPTION@@@std@@QAEXPAU_RANDOM_OPTION@@ABU3@@Z
_TEXT	SEGMENT
__Ptr$ = 8						; size = 4
__Val$ = 12						; size = 4
?construct@?$allocator@U_RANDOM_OPTION@@@std@@QAEXPAU_RANDOM_OPTION@@ABU3@@Z PROC NEAR ; std::allocator<_RANDOM_OPTION>::construct, COMDAT
; _this$ = ecx

; 147  : 		_Construct(_Ptr, _Val);

  00000	8b 44 24 08	 mov	 eax, DWORD PTR __Val$[esp-4]
  00004	8b 4c 24 04	 mov	 ecx, DWORD PTR __Ptr$[esp-4]
  00008	50		 push	 eax
  00009	51		 push	 ecx
  0000a	e8 00 00 00 00	 call	 ??$_Construct@U_RANDOM_OPTION@@U1@@std@@YAXPAU_RANDOM_OPTION@@ABU1@@Z ; std::_Construct<_RANDOM_OPTION,_RANDOM_OPTION>
  0000f	83 c4 08	 add	 esp, 8

; 148  : 		}

  00012	c2 08 00	 ret	 8
?construct@?$allocator@U_RANDOM_OPTION@@@std@@QAEXPAU_RANDOM_OPTION@@ABU3@@Z ENDP ; std::allocator<_RANDOM_OPTION>::construct
_TEXT	ENDS
PUBLIC	??$_Uninit_copy@PAU_RANDOM_OPTION@@PAU1@V?$allocator@U_RANDOM_OPTION@@@std@@@std@@YAPAU_RANDOM_OPTION@@PAU1@00AAV?$allocator@U_RANDOM_OPTION@@@0@U_Nonscalar_ptr_iterator_tag@0@@Z ; std::_Uninit_copy<_RANDOM_OPTION *,_RANDOM_OPTION *,std::allocator<_RANDOM_OPTION> >
;	COMDAT xdata$x
xdata$x	SEGMENT
$T234454 DD	0ffffffffH
	DD	00H
	DD	00H
	DD	FLAT:$L234341
	DD	0ffffffffH
	DD	00H
$T234456 DD	00H
	DD	00H
	DD	00H
	DD	FLAT:$L234334
$T234455 DD	00H
	DD	01H
	DD	02H
	DD	01H
	DD	FLAT:$T234456
$T234447 DD	019930520H
	DD	03H
	DD	FLAT:$T234454
	DD	01H
	DD	FLAT:$T234455
	DD	2 DUP(00H)
; Function compile flags: /Ogty
; File c:\program files\microsoft visual studio .net 2003\vc7\include\memory
xdata$x	ENDS
;	COMDAT ??$_Uninit_copy@PAU_RANDOM_OPTION@@PAU1@V?$allocator@U_RANDOM_OPTION@@@std@@@std@@YAPAU_RANDOM_OPTION@@PAU1@00AAV?$allocator@U_RANDOM_OPTION@@@0@U_Nonscalar_ptr_iterator_tag@0@@Z
_TEXT	SEGMENT
__Next$ = -20						; size = 4
__$EHRec$ = -16						; size = 16
$T234363 = 8						; size = 4
__First$ = 8						; size = 4
__Last$ = 12						; size = 4
__Dest$ = 16						; size = 4
__Al$ = 20						; size = 4
___formal$ = 24						; size = 1
??$_Uninit_copy@PAU_RANDOM_OPTION@@PAU1@V?$allocator@U_RANDOM_OPTION@@@std@@@std@@YAPAU_RANDOM_OPTION@@PAU1@00AAV?$allocator@U_RANDOM_OPTION@@@0@U_Nonscalar_ptr_iterator_tag@0@@Z PROC NEAR ; std::_Uninit_copy<_RANDOM_OPTION *,_RANDOM_OPTION *,std::allocator<_RANDOM_OPTION> >, COMDAT

; 77   : 	{	// copy [_First, _Last) to raw _Dest, using _Al, arbitrary type

  00000	55		 push	 ebp
  00001	8b ec		 mov	 ebp, esp
  00003	6a ff		 push	 -1
  00005	68 00 00 00 00	 push	 __ehhandler$??$_Uninit_copy@PAU_RANDOM_OPTION@@PAU1@V?$allocator@U_RANDOM_OPTION@@@std@@@std@@YAPAU_RANDOM_OPTION@@PAU1@00AAV?$allocator@U_RANDOM_OPTION@@@0@U_Nonscalar_ptr_iterator_tag@0@@Z
  0000a	64 a1 00 00 00
	00		 mov	 eax, DWORD PTR fs:__except_list
  00010	50		 push	 eax
  00011	64 89 25 00 00
	00 00		 mov	 DWORD PTR fs:__except_list, esp
  00018	83 ec 08	 sub	 esp, 8
  0001b	53		 push	 ebx
  0001c	56		 push	 esi

; 78   : 	_FwdIt _Next = _Dest;

  0001d	8b 75 10	 mov	 esi, DWORD PTR __Dest$[ebp]
  00020	57		 push	 edi

; 79   : 
; 80   : 	_TRY_BEGIN

  00021	8b 7d 08	 mov	 edi, DWORD PTR __First$[ebp]
  00024	33 db		 xor	 ebx, ebx
  00026	89 65 f0	 mov	 DWORD PTR __$EHRec$[ebp], esp
  00029	89 75 ec	 mov	 DWORD PTR __Next$[ebp], esi
  0002c	89 5d fc	 mov	 DWORD PTR __$EHRec$[ebp+12], ebx
  0002f	90		 npad	 1
$L228424:

; 81   : 	for (; _First != _Last; ++_Dest, ++_First)

  00030	3b 7d 0c	 cmp	 edi, DWORD PTR __Last$[ebp]
  00033	74 69		 je	 SHORT $L228426

; 82   : 		_Al.construct(_Dest, *_First);

  00035	89 75 08	 mov	 DWORD PTR $T234363[ebp], esi
  00038	3b f3		 cmp	 esi, ebx
  0003a	c6 45 fc 01	 mov	 BYTE PTR __$EHRec$[ebp+12], 1
  0003e	74 16		 je	 SHORT $L234364
  00040	8b 07		 mov	 eax, DWORD PTR [edi]
  00042	89 06		 mov	 DWORD PTR [esi], eax
  00044	8b 4f 04	 mov	 ecx, DWORD PTR [edi+4]
  00047	8d 57 08	 lea	 edx, DWORD PTR [edi+8]
  0004a	89 4e 04	 mov	 DWORD PTR [esi+4], ecx
  0004d	52		 push	 edx
  0004e	8d 4e 08	 lea	 ecx, DWORD PTR [esi+8]
  00051	e8 00 00 00 00	 call	 ??0?$vector@U_AdjData@@V?$allocator@U_AdjData@@@std@@@std@@QAE@ABV01@@Z ; std::vector<_AdjData,std::allocator<_AdjData> >::vector<_AdjData,std::allocator<_AdjData> >
$L234364:
  00056	83 c6 18	 add	 esi, 24			; 00000018H
  00059	88 5d fc	 mov	 BYTE PTR __$EHRec$[ebp+12], bl
  0005c	89 75 10	 mov	 DWORD PTR __Dest$[ebp], esi
  0005f	83 c7 18	 add	 edi, 24			; 00000018H
  00062	eb cc		 jmp	 SHORT $L228424
$L234334:

; 84   : 	for (; _Next != _Dest; ++_Next)

  00064	8b 7d ec	 mov	 edi, DWORD PTR __Next$[ebp]
  00067	8b 45 10	 mov	 eax, DWORD PTR __Dest$[ebp]
  0006a	33 db		 xor	 ebx, ebx
  0006c	3b f8		 cmp	 edi, eax
  0006e	74 27		 je	 SHORT $L228429

; 83   : 	_CATCH_ALL

  00070	8d 77 0c	 lea	 esi, DWORD PTR [edi+12]
$L228427:

; 85   : 		_Al.destroy(_Next);

  00073	8b 06		 mov	 eax, DWORD PTR [esi]
  00075	3b c3		 cmp	 eax, ebx
  00077	74 09		 je	 SHORT $L234443
  00079	50		 push	 eax
  0007a	e8 00 00 00 00	 call	 ??3@YAXPAX@Z		; operator delete
  0007f	83 c4 04	 add	 esp, 4
$L234443:
  00082	8b 45 10	 mov	 eax, DWORD PTR __Dest$[ebp]
  00085	89 1e		 mov	 DWORD PTR [esi], ebx
  00087	89 5e 04	 mov	 DWORD PTR [esi+4], ebx
  0008a	89 5e 08	 mov	 DWORD PTR [esi+8], ebx
  0008d	83 c7 18	 add	 edi, 24			; 00000018H
  00090	83 c6 18	 add	 esi, 24			; 00000018H
  00093	3b f8		 cmp	 edi, eax
  00095	75 dc		 jne	 SHORT $L228427
$L228429:

; 86   : 	_RERAISE;

  00097	53		 push	 ebx
  00098	53		 push	 ebx
  00099	e8 00 00 00 00	 call	 __CxxThrowException@8
$L234457:
$L228426:

; 87   : 	_CATCH_END
; 88   : 	return (_Dest);
; 89   : 	}

  0009e	8b 4d f4	 mov	 ecx, DWORD PTR __$EHRec$[ebp+4]
  000a1	5f		 pop	 edi
  000a2	8b c6		 mov	 eax, esi
  000a4	5e		 pop	 esi
  000a5	64 89 0d 00 00
	00 00		 mov	 DWORD PTR fs:__except_list, ecx
  000ac	5b		 pop	 ebx
  000ad	8b e5		 mov	 esp, ebp
  000af	5d		 pop	 ebp
  000b0	c3		 ret	 0
$L234453:
_TEXT	ENDS
;	COMDAT text$x
text$x	SEGMENT
$L234341:
  00000	8b 45 10	 mov	 eax, DWORD PTR __Dest$[ebp]
  00003	50		 push	 eax
  00004	8b 4d 08	 mov	 ecx, DWORD PTR $T234363[ebp]
  00007	51		 push	 ecx
  00008	e8 00 00 00 00	 call	 ??3@YAXPAX0@Z		; operator delete
  0000d	83 c4 08	 add	 esp, 8
  00010	c3		 ret	 0
__ehhandler$??$_Uninit_copy@PAU_RANDOM_OPTION@@PAU1@V?$allocator@U_RANDOM_OPTION@@@std@@@std@@YAPAU_RANDOM_OPTION@@PAU1@00AAV?$allocator@U_RANDOM_OPTION@@@0@U_Nonscalar_ptr_iterator_tag@0@@Z:
  00011	b8 00 00 00 00	 mov	 eax, OFFSET FLAT:$T234447
  00016	e9 00 00 00 00	 jmp	 ___CxxFrameHandler
text$x	ENDS
??$_Uninit_copy@PAU_RANDOM_OPTION@@PAU1@V?$allocator@U_RANDOM_OPTION@@@std@@@std@@YAPAU_RANDOM_OPTION@@PAU1@00AAV?$allocator@U_RANDOM_OPTION@@@0@U_Nonscalar_ptr_iterator_tag@0@@Z ENDP ; std::_Uninit_copy<_RANDOM_OPTION *,_RANDOM_OPTION *,std::allocator<_RANDOM_OPTION> >
PUBLIC	??0_RANDOM_OPTION@@QAE@PAU0@@Z			; _RANDOM_OPTION::_RANDOM_OPTION
;	COMDAT xdata$x
; File c:\program files\microsoft visual studio .net 2003\vc7\include\xutility
xdata$x	SEGMENT
$T234602 DD	0ffffffffH
	DD	FLAT:$L234464
$T234600 DD	019930520H
	DD	01H
	DD	FLAT:$T234602
	DD	2 DUP(00H)
	DD	2 DUP(00H)
; Function compile flags: /Ogty
; File c:\documents and settings\test\mes documents\source\virtuos_v17\build\program\_common\randomoption.h
xdata$x	ENDS
;	COMDAT ??0_RANDOM_OPTION@@QAE@PAU0@@Z
_TEXT	SEGMENT
_this$ = -16						; size = 4
__$EHRec$ = -12						; size = 12
$T234592 = 8						; size = 1
_pRandomOption$ = 8					; size = 4
??0_RANDOM_OPTION@@QAE@PAU0@@Z PROC NEAR		; _RANDOM_OPTION::_RANDOM_OPTION, COMDAT
; _this$ = ecx

; 41   : 	_RANDOM_OPTION( _RANDOM_OPTION* pRandomOption )

  00000	6a ff		 push	 -1
  00002	68 00 00 00 00	 push	 __ehhandler$??0_RANDOM_OPTION@@QAE@PAU0@@Z
  00007	64 a1 00 00 00
	00		 mov	 eax, DWORD PTR fs:__except_list
  0000d	50		 push	 eax
  0000e	64 89 25 00 00
	00 00		 mov	 DWORD PTR fs:__except_list, esp
  00015	51		 push	 ecx
  00016	56		 push	 esi
  00017	8b f1		 mov	 esi, ecx
  00019	8d 4e 08	 lea	 ecx, DWORD PTR [esi+8]
  0001c	33 c0		 xor	 eax, eax
  0001e	57		 push	 edi
  0001f	89 74 24 08	 mov	 DWORD PTR _this$[esp+24], esi
  00023	89 41 04	 mov	 DWORD PTR [ecx+4], eax
  00026	89 41 08	 mov	 DWORD PTR [ecx+8], eax
  00029	89 41 0c	 mov	 DWORD PTR [ecx+12], eax

; 42   : 	{
; 43   : 		nDst	= pRandomOption->nDst;
; 44   : 		nProb	= pRandomOption->nProb;
; 45   : 		aAdjData.assign( pRandomOption->aAdjData.begin(), pRandomOption->aAdjData.end() );

  0002c	8b 7c 24 1c	 mov	 edi, DWORD PTR $T234592[esp+20]
  00030	89 44 24 14	 mov	 DWORD PTR __$EHRec$[esp+32], eax
  00034	8b 44 24 1c	 mov	 eax, DWORD PTR _pRandomOption$[esp+20]
  00038	8b 10		 mov	 edx, DWORD PTR [eax]
  0003a	89 16		 mov	 DWORD PTR [esi], edx
  0003c	8b 50 04	 mov	 edx, DWORD PTR [eax+4]
  0003f	89 56 04	 mov	 DWORD PTR [esi+4], edx
  00042	8b 50 10	 mov	 edx, DWORD PTR [eax+16]
  00045	8b 40 0c	 mov	 eax, DWORD PTR [eax+12]
  00048	57		 push	 edi
  00049	52		 push	 edx
  0004a	50		 push	 eax
  0004b	e8 00 00 00 00	 call	 ??$_Assign@Viterator@?$vector@U_AdjData@@V?$allocator@U_AdjData@@@std@@@std@@@?$vector@U_AdjData@@V?$allocator@U_AdjData@@@std@@@std@@QAEXViterator@01@0Uinput_iterator_tag@1@@Z ; std::vector<_AdjData,std::allocator<_AdjData> >::_Assign<std::vector<_AdjData,std::allocator<_AdjData> >::iterator>

; 46   : 	}

  00050	8b 4c 24 0c	 mov	 ecx, DWORD PTR __$EHRec$[esp+24]
  00054	5f		 pop	 edi
  00055	8b c6		 mov	 eax, esi
  00057	5e		 pop	 esi
  00058	64 89 0d 00 00
	00 00		 mov	 DWORD PTR fs:__except_list, ecx
  0005f	83 c4 10	 add	 esp, 16			; 00000010H
  00062	c2 04 00	 ret	 4
_TEXT	ENDS
;	COMDAT text$x
text$x	SEGMENT
$L234464:
  00000	8b 4d f0	 mov	 ecx, DWORD PTR _this$[ebp]
  00003	83 c1 08	 add	 ecx, 8
  00006	e9 00 00 00 00	 jmp	 ??1?$vector@U_AdjData@@V?$allocator@U_AdjData@@@std@@@std@@QAE@XZ ; std::vector<_AdjData,std::allocator<_AdjData> >::~vector<_AdjData,std::allocator<_AdjData> >
__ehhandler$??0_RANDOM_OPTION@@QAE@PAU0@@Z:
  0000b	b8 00 00 00 00	 mov	 eax, OFFSET FLAT:$T234600
  00010	e9 00 00 00 00	 jmp	 ___CxxFrameHandler
text$x	ENDS
??0_RANDOM_OPTION@@QAE@PAU0@@Z ENDP			; _RANDOM_OPTION::_RANDOM_OPTION
PUBLIC	??$_Destroy_range@U_RANDOM_OPTION@@V?$allocator@U_RANDOM_OPTION@@@std@@@std@@YAXPAU_RANDOM_OPTION@@0AAV?$allocator@U_RANDOM_OPTION@@@0@@Z ; std::_Destroy_range<_RANDOM_OPTION,std::allocator<_RANDOM_OPTION> >
; Function compile flags: /Ogty
; File c:\program files\microsoft visual studio .net 2003\vc7\include\xmemory
;	COMDAT ??$_Destroy_range@U_RANDOM_OPTION@@V?$allocator@U_RANDOM_OPTION@@@std@@@std@@YAXPAU_RANDOM_OPTION@@0AAV?$allocator@U_RANDOM_OPTION@@@0@@Z
_TEXT	SEGMENT
__First$ = 8						; size = 4
__Last$ = 12						; size = 4
__Al$ = 16						; size = 4
??$_Destroy_range@U_RANDOM_OPTION@@V?$allocator@U_RANDOM_OPTION@@@std@@@std@@YAXPAU_RANDOM_OPTION@@0AAV?$allocator@U_RANDOM_OPTION@@@0@@Z PROC NEAR ; std::_Destroy_range<_RANDOM_OPTION,std::allocator<_RANDOM_OPTION> >, COMDAT

; 216  : 	{	// destroy [_First, _Last)

  00000	56		 push	 esi

; 217  : 	_Destroy_range(_First, _Last, _Al, _Ptr_cat(_First, _Last));

  00001	8b 74 24 08	 mov	 esi, DWORD PTR __First$[esp]
  00005	57		 push	 edi
  00006	8b 7c 24 10	 mov	 edi, DWORD PTR __Last$[esp+4]
  0000a	3b f7		 cmp	 esi, edi
  0000c	74 10		 je	 SHORT $L234643
  0000e	8b ff		 npad	 2
$L234641:
  00010	8b ce		 mov	 ecx, esi
  00012	e8 00 00 00 00	 call	 ??1_RANDOM_OPTION@@QAE@XZ
  00017	83 c6 18	 add	 esi, 24			; 00000018H
  0001a	3b f7		 cmp	 esi, edi
  0001c	75 f2		 jne	 SHORT $L234641
$L234643:
  0001e	5f		 pop	 edi
  0001f	5e		 pop	 esi

; 218  : 	}

  00020	c3		 ret	 0
??$_Destroy_range@U_RANDOM_OPTION@@V?$allocator@U_RANDOM_OPTION@@@std@@@std@@YAXPAU_RANDOM_OPTION@@0AAV?$allocator@U_RANDOM_OPTION@@@0@@Z ENDP ; std::_Destroy_range<_RANDOM_OPTION,std::allocator<_RANDOM_OPTION> >
_TEXT	ENDS
PUBLIC	??$_Uninit_fill_n@PAU_RANDOM_OPTION@@IU1@V?$allocator@U_RANDOM_OPTION@@@std@@@std@@YAXPAU_RANDOM_OPTION@@IABU1@AAV?$allocator@U_RANDOM_OPTION@@@0@U_Nonscalar_ptr_iterator_tag@0@@Z ; std::_Uninit_fill_n<_RANDOM_OPTION *,unsigned int,_RANDOM_OPTION,std::allocator<_RANDOM_OPTION> >
;	COMDAT xdata$x
xdata$x	SEGMENT
$T234772 DD	0ffffffffH
	DD	00H
	DD	00H
	DD	FLAT:$L234659
	DD	0ffffffffH
	DD	00H
$T234774 DD	00H
	DD	00H
	DD	00H
	DD	FLAT:$L234652
$T234773 DD	00H
	DD	01H
	DD	02H
	DD	01H
	DD	FLAT:$T234774
$T234765 DD	019930520H
	DD	03H
	DD	FLAT:$T234772
	DD	01H
	DD	FLAT:$T234773
	DD	2 DUP(00H)
; Function compile flags: /Ogty
; File c:\program files\microsoft visual studio .net 2003\vc7\include\memory
xdata$x	ENDS
;	COMDAT ??$_Uninit_fill_n@PAU_RANDOM_OPTION@@IU1@V?$allocator@U_RANDOM_OPTION@@@std@@@std@@YAXPAU_RANDOM_OPTION@@IABU1@AAV?$allocator@U_RANDOM_OPTION@@@0@U_Nonscalar_ptr_iterator_tag@0@@Z
_TEXT	SEGMENT
__Next$ = -20						; size = 4
__$EHRec$ = -16						; size = 16
__First$ = 8						; size = 4
$T234681 = 12						; size = 4
__Count$ = 12						; size = 4
__Val$ = 16						; size = 4
__Al$ = 20						; size = 4
___formal$ = 24						; size = 1
??$_Uninit_fill_n@PAU_RANDOM_OPTION@@IU1@V?$allocator@U_RANDOM_OPTION@@@std@@@std@@YAXPAU_RANDOM_OPTION@@IABU1@AAV?$allocator@U_RANDOM_OPTION@@@0@U_Nonscalar_ptr_iterator_tag@0@@Z PROC NEAR ; std::_Uninit_fill_n<_RANDOM_OPTION *,unsigned int,_RANDOM_OPTION,std::allocator<_RANDOM_OPTION> >, COMDAT

; 207  : 	{	// copy _Count *_Val to raw _First, using _Al, arbitrary type

  00000	55		 push	 ebp
  00001	8b ec		 mov	 ebp, esp
  00003	6a ff		 push	 -1
  00005	68 00 00 00 00	 push	 __ehhandler$??$_Uninit_fill_n@PAU_RANDOM_OPTION@@IU1@V?$allocator@U_RANDOM_OPTION@@@std@@@std@@YAXPAU_RANDOM_OPTION@@IABU1@AAV?$allocator@U_RANDOM_OPTION@@@0@U_Nonscalar_ptr_iterator_tag@0@@Z
  0000a	64 a1 00 00 00
	00		 mov	 eax, DWORD PTR fs:__except_list
  00010	50		 push	 eax
  00011	64 89 25 00 00
	00 00		 mov	 DWORD PTR fs:__except_list, esp
  00018	83 ec 08	 sub	 esp, 8
  0001b	53		 push	 ebx
  0001c	56		 push	 esi

; 208  : 	_FwdIt _Next = _First;

  0001d	8b 75 08	 mov	 esi, DWORD PTR __First$[ebp]
  00020	57		 push	 edi

; 209  : 
; 210  : 	_TRY_BEGIN

  00021	8b 7d 0c	 mov	 edi, DWORD PTR __Count$[ebp]
  00024	33 db		 xor	 ebx, ebx
  00026	89 65 f0	 mov	 DWORD PTR __$EHRec$[ebp], esp
  00029	89 75 ec	 mov	 DWORD PTR __Next$[ebp], esi
  0002c	89 5d fc	 mov	 DWORD PTR __$EHRec$[ebp+12], ebx
  0002f	90		 npad	 1
$L228102:

; 211  : 	for (; 0 < _Count; --_Count, ++_First)

  00030	3b fb		 cmp	 edi, ebx
  00032	76 6a		 jbe	 SHORT $L228104

; 212  : 		_Al.construct(_First, _Val);

  00034	89 75 0c	 mov	 DWORD PTR $T234681[ebp], esi
  00037	3b f3		 cmp	 esi, ebx
  00039	c6 45 fc 01	 mov	 BYTE PTR __$EHRec$[ebp+12], 1
  0003d	74 19		 je	 SHORT $L234682
  0003f	8b 45 10	 mov	 eax, DWORD PTR __Val$[ebp]
  00042	8b 08		 mov	 ecx, DWORD PTR [eax]
  00044	89 0e		 mov	 DWORD PTR [esi], ecx
  00046	8b 50 04	 mov	 edx, DWORD PTR [eax+4]
  00049	83 c0 08	 add	 eax, 8
  0004c	50		 push	 eax
  0004d	8d 4e 08	 lea	 ecx, DWORD PTR [esi+8]
  00050	89 56 04	 mov	 DWORD PTR [esi+4], edx
  00053	e8 00 00 00 00	 call	 ??0?$vector@U_AdjData@@V?$allocator@U_AdjData@@@std@@@std@@QAE@ABV01@@Z ; std::vector<_AdjData,std::allocator<_AdjData> >::vector<_AdjData,std::allocator<_AdjData> >
$L234682:
  00058	4f		 dec	 edi
  00059	83 c6 18	 add	 esi, 24			; 00000018H
  0005c	88 5d fc	 mov	 BYTE PTR __$EHRec$[ebp+12], bl
  0005f	89 75 08	 mov	 DWORD PTR __First$[ebp], esi
  00062	eb cc		 jmp	 SHORT $L228102
$L234652:

; 214  : 	for (; _Next != _First; ++_Next)

  00064	8b 7d ec	 mov	 edi, DWORD PTR __Next$[ebp]
  00067	8b 45 08	 mov	 eax, DWORD PTR __First$[ebp]
  0006a	33 db		 xor	 ebx, ebx
  0006c	3b f8		 cmp	 edi, eax
  0006e	74 27		 je	 SHORT $L228107

; 213  : 	_CATCH_ALL

  00070	8d 77 0c	 lea	 esi, DWORD PTR [edi+12]
$L228105:

; 215  : 		_Al.destroy(_Next);

  00073	8b 06		 mov	 eax, DWORD PTR [esi]
  00075	3b c3		 cmp	 eax, ebx
  00077	74 09		 je	 SHORT $L234759
  00079	50		 push	 eax
  0007a	e8 00 00 00 00	 call	 ??3@YAXPAX@Z		; operator delete
  0007f	83 c4 04	 add	 esp, 4
$L234759:
  00082	8b 45 08	 mov	 eax, DWORD PTR __First$[ebp]
  00085	89 1e		 mov	 DWORD PTR [esi], ebx
  00087	89 5e 04	 mov	 DWORD PTR [esi+4], ebx
  0008a	89 5e 08	 mov	 DWORD PTR [esi+8], ebx
  0008d	83 c7 18	 add	 edi, 24			; 00000018H
  00090	83 c6 18	 add	 esi, 24			; 00000018H
  00093	3b f8		 cmp	 edi, eax
  00095	75 dc		 jne	 SHORT $L228105
$L228107:

; 216  : 	_RERAISE;

  00097	53		 push	 ebx
  00098	53		 push	 ebx
  00099	e8 00 00 00 00	 call	 __CxxThrowException@8
$L234775:
$L228104:

; 217  : 	_CATCH_END
; 218  : 	}

  0009e	8b 4d f4	 mov	 ecx, DWORD PTR __$EHRec$[ebp+4]
  000a1	5f		 pop	 edi
  000a2	5e		 pop	 esi
  000a3	64 89 0d 00 00
	00 00		 mov	 DWORD PTR fs:__except_list, ecx
  000aa	5b		 pop	 ebx
  000ab	8b e5		 mov	 esp, ebp
  000ad	5d		 pop	 ebp
  000ae	c3		 ret	 0
$L234771:
_TEXT	ENDS
;	COMDAT text$x
text$x	SEGMENT
$L234659:
  00000	8b 45 08	 mov	 eax, DWORD PTR __First$[ebp]
  00003	50		 push	 eax
  00004	8b 4d 0c	 mov	 ecx, DWORD PTR $T234681[ebp]
  00007	51		 push	 ecx
  00008	e8 00 00 00 00	 call	 ??3@YAXPAX0@Z		; operator delete
  0000d	83 c4 08	 add	 esp, 8
  00010	c3		 ret	 0
__ehhandler$??$_Uninit_fill_n@PAU_RANDOM_OPTION@@IU1@V?$allocator@U_RANDOM_OPTION@@@std@@@std@@YAXPAU_RANDOM_OPTION@@IABU1@AAV?$allocator@U_RANDOM_OPTION@@@0@U_Nonscalar_ptr_iterator_tag@0@@Z:
  00011	b8 00 00 00 00	 mov	 eax, OFFSET FLAT:$T234765
  00016	e9 00 00 00 00	 jmp	 ___CxxFrameHandler
text$x	ENDS
??$_Uninit_fill_n@PAU_RANDOM_OPTION@@IU1@V?$allocator@U_RANDOM_OPTION@@@std@@@std@@YAXPAU_RANDOM_OPTION@@IABU1@AAV?$allocator@U_RANDOM_OPTION@@@0@U_Nonscalar_ptr_iterator_tag@0@@Z ENDP ; std::_Uninit_fill_n<_RANDOM_OPTION *,unsigned int,_RANDOM_OPTION,std::allocator<_RANDOM_OPTION> >
PUBLIC	??$_Uninitialized_copy@PAU_RANDOM_OPTION@@PAU1@V?$allocator@U_RANDOM_OPTION@@@std@@@std@@YAPAU_RANDOM_OPTION@@PAU1@00AAV?$allocator@U_RANDOM_OPTION@@@0@@Z ; std::_Uninitialized_copy<_RANDOM_OPTION *,_RANDOM_OPTION *,std::allocator<_RANDOM_OPTION> >
; Function compile flags: /Ogty
;	COMDAT ??$_Uninitialized_copy@PAU_RANDOM_OPTION@@PAU1@V?$allocator@U_RANDOM_OPTION@@@std@@@std@@YAPAU_RANDOM_OPTION@@PAU1@00AAV?$allocator@U_RANDOM_OPTION@@@0@@Z
_TEXT	SEGMENT
__Cat$234784 = -4					; size = 1
__First$ = 8						; size = 4
__Last$ = 12						; size = 4
__Dest$ = 16						; size = 4
__Al$ = 20						; size = 4
??$_Uninitialized_copy@PAU_RANDOM_OPTION@@PAU1@V?$allocator@U_RANDOM_OPTION@@@std@@@std@@YAPAU_RANDOM_OPTION@@PAU1@00AAV?$allocator@U_RANDOM_OPTION@@@0@@Z PROC NEAR ; std::_Uninitialized_copy<_RANDOM_OPTION *,_RANDOM_OPTION *,std::allocator<_RANDOM_OPTION> >, COMDAT

; 126  : 	{	// copy [_First, _Last) to raw _Dest, using _Al

  00000	51		 push	 ecx

; 127  : 	return (_Uninit_copy(_First, _Last, _Dest, _Al,
; 128  : 		_Ptr_cat(_First, _Dest)));

  00001	8b 04 24	 mov	 eax, DWORD PTR __Cat$234784[esp+4]
  00004	8b 4c 24 14	 mov	 ecx, DWORD PTR __Al$[esp]
  00008	8b 54 24 10	 mov	 edx, DWORD PTR __Dest$[esp]
  0000c	50		 push	 eax
  0000d	8b 44 24 10	 mov	 eax, DWORD PTR __Last$[esp+4]
  00011	51		 push	 ecx
  00012	8b 4c 24 10	 mov	 ecx, DWORD PTR __First$[esp+8]
  00016	52		 push	 edx
  00017	50		 push	 eax
  00018	51		 push	 ecx
  00019	e8 00 00 00 00	 call	 ??$_Uninit_copy@PAU_RANDOM_OPTION@@PAU1@V?$allocator@U_RANDOM_OPTION@@@std@@@std@@YAPAU_RANDOM_OPTION@@PAU1@00AAV?$allocator@U_RANDOM_OPTION@@@0@U_Nonscalar_ptr_iterator_tag@0@@Z ; std::_Uninit_copy<_RANDOM_OPTION *,_RANDOM_OPTION *,std::allocator<_RANDOM_OPTION> >

; 129  : 	}

  0001e	83 c4 18	 add	 esp, 24			; 00000018H
  00021	c3		 ret	 0
??$_Uninitialized_copy@PAU_RANDOM_OPTION@@PAU1@V?$allocator@U_RANDOM_OPTION@@@std@@@std@@YAPAU_RANDOM_OPTION@@PAU1@00AAV?$allocator@U_RANDOM_OPTION@@@0@@Z ENDP ; std::_Uninitialized_copy<_RANDOM_OPTION *,_RANDOM_OPTION *,std::allocator<_RANDOM_OPTION> >
_TEXT	ENDS
PUBLIC	?_Destroy@?$vector@U_RANDOM_OPTION@@V?$allocator@U_RANDOM_OPTION@@@std@@@std@@IAEXPAU_RANDOM_OPTION@@0@Z ; std::vector<_RANDOM_OPTION,std::allocator<_RANDOM_OPTION> >::_Destroy
; Function compile flags: /Ogty
; File c:\program files\microsoft visual studio .net 2003\vc7\include\vector
;	COMDAT ?_Destroy@?$vector@U_RANDOM_OPTION@@V?$allocator@U_RANDOM_OPTION@@@std@@@std@@IAEXPAU_RANDOM_OPTION@@0@Z
_TEXT	SEGMENT
__First$ = 8						; size = 4
__Last$ = 12						; size = 4
?_Destroy@?$vector@U_RANDOM_OPTION@@V?$allocator@U_RANDOM_OPTION@@@std@@@std@@IAEXPAU_RANDOM_OPTION@@0@Z PROC NEAR ; std::vector<_RANDOM_OPTION,std::allocator<_RANDOM_OPTION> >::_Destroy, COMDAT
; _this$ = ecx

; 786  : 		{	// destroy [_First, _Last) using allocator

  00000	56		 push	 esi

; 787  : 		_Destroy_range(_First, _Last, this->_Alval);

  00001	8b 74 24 08	 mov	 esi, DWORD PTR __First$[esp]
  00005	57		 push	 edi
  00006	8b 7c 24 10	 mov	 edi, DWORD PTR __Last$[esp+4]
  0000a	3b f7		 cmp	 esi, edi
  0000c	74 10		 je	 SHORT $L234843
  0000e	8b ff		 npad	 2
$L234841:
  00010	8b ce		 mov	 ecx, esi
  00012	e8 00 00 00 00	 call	 ??1_RANDOM_OPTION@@QAE@XZ
  00017	83 c6 18	 add	 esi, 24			; 00000018H
  0001a	3b f7		 cmp	 esi, edi
  0001c	75 f2		 jne	 SHORT $L234841
$L234843:
  0001e	5f		 pop	 edi
  0001f	5e		 pop	 esi

; 788  : 		}

  00020	c2 08 00	 ret	 8
?_Destroy@?$vector@U_RANDOM_OPTION@@V?$allocator@U_RANDOM_OPTION@@@std@@@std@@IAEXPAU_RANDOM_OPTION@@0@Z ENDP ; std::vector<_RANDOM_OPTION,std::allocator<_RANDOM_OPTION> >::_Destroy
_TEXT	ENDS
PUBLIC	??$_Uninitialized_fill_n@PAU_RANDOM_OPTION@@IU1@V?$allocator@U_RANDOM_OPTION@@@std@@@std@@YAXPAU_RANDOM_OPTION@@IABU1@AAV?$allocator@U_RANDOM_OPTION@@@0@@Z ; std::_Uninitialized_fill_n<_RANDOM_OPTION *,unsigned int,_RANDOM_OPTION,std::allocator<_RANDOM_OPTION> >
; Function compile flags: /Ogty
; File c:\program files\microsoft visual studio .net 2003\vc7\include\memory
;	COMDAT ??$_Uninitialized_fill_n@PAU_RANDOM_OPTION@@IU1@V?$allocator@U_RANDOM_OPTION@@@std@@@std@@YAXPAU_RANDOM_OPTION@@IABU1@AAV?$allocator@U_RANDOM_OPTION@@@0@@Z
_TEXT	SEGMENT
__Cat$234856 = -4					; size = 1
__First$ = 8						; size = 4
__Count$ = 12						; size = 4
__Val$ = 16						; size = 4
__Al$ = 20						; size = 4
??$_Uninitialized_fill_n@PAU_RANDOM_OPTION@@IU1@V?$allocator@U_RANDOM_OPTION@@@std@@@std@@YAXPAU_RANDOM_OPTION@@IABU1@AAV?$allocator@U_RANDOM_OPTION@@@0@@Z PROC NEAR ; std::_Uninitialized_fill_n<_RANDOM_OPTION *,unsigned int,_RANDOM_OPTION,std::allocator<_RANDOM_OPTION> >, COMDAT

; 255  : 	{	// copy _Count *_Val to raw _First, using _Al

  00000	51		 push	 ecx

; 256  : 	_Uninit_fill_n(_First, _Count, _Val, _Al,
; 257  : 		_Ptr_cat(_First, _First));

  00001	8b 04 24	 mov	 eax, DWORD PTR __Cat$234856[esp+4]
  00004	8b 4c 24 14	 mov	 ecx, DWORD PTR __Al$[esp]
  00008	8b 54 24 10	 mov	 edx, DWORD PTR __Val$[esp]
  0000c	50		 push	 eax
  0000d	8b 44 24 10	 mov	 eax, DWORD PTR __Count$[esp+4]
  00011	51		 push	 ecx
  00012	8b 4c 24 10	 mov	 ecx, DWORD PTR __First$[esp+8]
  00016	52		 push	 edx
  00017	50		 push	 eax
  00018	51		 push	 ecx
  00019	e8 00 00 00 00	 call	 ??$_Uninit_fill_n@PAU_RANDOM_OPTION@@IU1@V?$allocator@U_RANDOM_OPTION@@@std@@@std@@YAXPAU_RANDOM_OPTION@@IABU1@AAV?$allocator@U_RANDOM_OPTION@@@0@U_Nonscalar_ptr_iterator_tag@0@@Z ; std::_Uninit_fill_n<_RANDOM_OPTION *,unsigned int,_RANDOM_OPTION,std::allocator<_RANDOM_OPTION> >

; 258  : 	}

  0001e	83 c4 18	 add	 esp, 24			; 00000018H
  00021	c3		 ret	 0
??$_Uninitialized_fill_n@PAU_RANDOM_OPTION@@IU1@V?$allocator@U_RANDOM_OPTION@@@std@@@std@@YAXPAU_RANDOM_OPTION@@IABU1@AAV?$allocator@U_RANDOM_OPTION@@@0@@Z ENDP ; std::_Uninitialized_fill_n<_RANDOM_OPTION *,unsigned int,_RANDOM_OPTION,std::allocator<_RANDOM_OPTION> >
_TEXT	ENDS
PUBLIC	??$_Ucopy@PAU_RANDOM_OPTION@@@?$vector@U_RANDOM_OPTION@@V?$allocator@U_RANDOM_OPTION@@@std@@@std@@IAEPAU_RANDOM_OPTION@@PAU2@00@Z ; std::vector<_RANDOM_OPTION,std::allocator<_RANDOM_OPTION> >::_Ucopy<_RANDOM_OPTION *>
; Function compile flags: /Ogty
; File c:\program files\microsoft visual studio .net 2003\vc7\include\vector
;	COMDAT ??$_Ucopy@PAU_RANDOM_OPTION@@@?$vector@U_RANDOM_OPTION@@V?$allocator@U_RANDOM_OPTION@@@std@@@std@@IAEPAU_RANDOM_OPTION@@PAU2@00@Z
_TEXT	SEGMENT
__First$ = 8						; size = 4
__Last$ = 12						; size = 4
__Cat$234870 = 16					; size = 1
__Ptr$ = 16						; size = 4
??$_Ucopy@PAU_RANDOM_OPTION@@@?$vector@U_RANDOM_OPTION@@V?$allocator@U_RANDOM_OPTION@@@std@@@std@@IAEPAU_RANDOM_OPTION@@PAU2@00@Z PROC NEAR ; std::vector<_RANDOM_OPTION,std::allocator<_RANDOM_OPTION> >::_Ucopy<_RANDOM_OPTION *>, COMDAT
; _this$ = ecx

; 802  : 		{	// copy initializing [_First, _Last), using allocator
; 803  : 		return (_Uninitialized_copy(_First, _Last,
; 804  : 			_Ptr, this->_Alval));

  00000	8b 44 24 0c	 mov	 eax, DWORD PTR __Cat$234870[esp-4]
  00004	8b 54 24 08	 mov	 edx, DWORD PTR __Last$[esp-4]
  00008	50		 push	 eax
  00009	8b 44 24 08	 mov	 eax, DWORD PTR __First$[esp]
  0000d	51		 push	 ecx
  0000e	8b 4c 24 14	 mov	 ecx, DWORD PTR __Ptr$[esp+4]
  00012	51		 push	 ecx
  00013	52		 push	 edx
  00014	50		 push	 eax
  00015	e8 00 00 00 00	 call	 ??$_Uninit_copy@PAU_RANDOM_OPTION@@PAU1@V?$allocator@U_RANDOM_OPTION@@@std@@@std@@YAPAU_RANDOM_OPTION@@PAU1@00AAV?$allocator@U_RANDOM_OPTION@@@0@U_Nonscalar_ptr_iterator_tag@0@@Z ; std::_Uninit_copy<_RANDOM_OPTION *,_RANDOM_OPTION *,std::allocator<_RANDOM_OPTION> >
  0001a	83 c4 14	 add	 esp, 20			; 00000014H

; 805  : 		}

  0001d	c2 0c 00	 ret	 12			; 0000000cH
??$_Ucopy@PAU_RANDOM_OPTION@@@?$vector@U_RANDOM_OPTION@@V?$allocator@U_RANDOM_OPTION@@@std@@@std@@IAEPAU_RANDOM_OPTION@@PAU2@00@Z ENDP ; std::vector<_RANDOM_OPTION,std::allocator<_RANDOM_OPTION> >::_Ucopy<_RANDOM_OPTION *>
_TEXT	ENDS
PUBLIC	?_Tidy@?$vector@U_RANDOM_OPTION@@V?$allocator@U_RANDOM_OPTION@@@std@@@std@@IAEXXZ ; std::vector<_RANDOM_OPTION,std::allocator<_RANDOM_OPTION> >::_Tidy
; Function compile flags: /Ogty
;	COMDAT ?_Tidy@?$vector@U_RANDOM_OPTION@@V?$allocator@U_RANDOM_OPTION@@@std@@@std@@IAEXXZ
_TEXT	SEGMENT
?_Tidy@?$vector@U_RANDOM_OPTION@@V?$allocator@U_RANDOM_OPTION@@@std@@@std@@IAEXXZ PROC NEAR ; std::vector<_RANDOM_OPTION,std::allocator<_RANDOM_OPTION> >::_Tidy, COMDAT
; _this$ = ecx

; 791  : 		{	// free all storage

  00000	53		 push	 ebx
  00001	8b d9		 mov	 ebx, ecx
  00003	56		 push	 esi

; 792  : 		if (_Myfirst != 0)

  00004	8b 73 04	 mov	 esi, DWORD PTR [ebx+4]
  00007	85 f6		 test	 esi, esi
  00009	74 23		 je	 SHORT $L234961
  0000b	57		 push	 edi

; 793  : 			{	// something to free, destroy and deallocate it
; 794  : 			_Destroy(_Myfirst, _Mylast);

  0000c	8b 7b 08	 mov	 edi, DWORD PTR [ebx+8]
  0000f	3b f7		 cmp	 esi, edi
  00011	74 0e		 je	 SHORT $L234954
$L234952:
  00013	8b ce		 mov	 ecx, esi
  00015	e8 00 00 00 00	 call	 ??1_RANDOM_OPTION@@QAE@XZ
  0001a	83 c6 18	 add	 esi, 24			; 00000018H
  0001d	3b f7		 cmp	 esi, edi
  0001f	75 f2		 jne	 SHORT $L234952
$L234954:

; 795  : 			this->_Alval.deallocate(_Myfirst, _Myend - _Myfirst);

  00021	8b 43 04	 mov	 eax, DWORD PTR [ebx+4]
  00024	50		 push	 eax
  00025	e8 00 00 00 00	 call	 ??3@YAXPAX@Z		; operator delete
  0002a	83 c4 04	 add	 esp, 4
  0002d	5f		 pop	 edi
$L234961:
  0002e	5e		 pop	 esi

; 796  : 			}
; 797  : 		_Myfirst = 0, _Mylast = 0, _Myend = 0;

  0002f	c7 43 04 00 00
	00 00		 mov	 DWORD PTR [ebx+4], 0
  00036	c7 43 08 00 00
	00 00		 mov	 DWORD PTR [ebx+8], 0
  0003d	c7 43 0c 00 00
	00 00		 mov	 DWORD PTR [ebx+12], 0
  00044	5b		 pop	 ebx

; 798  : 		}

  00045	c3		 ret	 0
?_Tidy@?$vector@U_RANDOM_OPTION@@V?$allocator@U_RANDOM_OPTION@@@std@@@std@@IAEXXZ ENDP ; std::vector<_RANDOM_OPTION,std::allocator<_RANDOM_OPTION> >::_Tidy
_TEXT	ENDS
PUBLIC	?_Ufill@?$vector@U_RANDOM_OPTION@@V?$allocator@U_RANDOM_OPTION@@@std@@@std@@IAEPAU_RANDOM_OPTION@@PAU3@IABU3@@Z ; std::vector<_RANDOM_OPTION,std::allocator<_RANDOM_OPTION> >::_Ufill
; Function compile flags: /Ogty
;	COMDAT ?_Ufill@?$vector@U_RANDOM_OPTION@@V?$allocator@U_RANDOM_OPTION@@@std@@@std@@IAEPAU_RANDOM_OPTION@@PAU3@IABU3@@Z
_TEXT	SEGMENT
__Ptr$ = 8						; size = 4
__Count$ = 12						; size = 4
__Cat$234980 = 16					; size = 1
__Val$ = 16						; size = 4
?_Ufill@?$vector@U_RANDOM_OPTION@@V?$allocator@U_RANDOM_OPTION@@@std@@@std@@IAEPAU_RANDOM_OPTION@@PAU3@IABU3@@Z PROC NEAR ; std::vector<_RANDOM_OPTION,std::allocator<_RANDOM_OPTION> >::_Ufill, COMDAT
; _this$ = ecx

; 878  : 		_Uninitialized_fill_n(_Ptr, _Count, _Val, this->_Alval);

  00000	8b 44 24 0c	 mov	 eax, DWORD PTR __Cat$234980[esp-4]
  00004	56		 push	 esi
  00005	8b 74 24 0c	 mov	 esi, DWORD PTR __Count$[esp]
  00009	57		 push	 edi
  0000a	8b 7c 24 0c	 mov	 edi, DWORD PTR __Ptr$[esp+4]
  0000e	50		 push	 eax
  0000f	51		 push	 ecx
  00010	8b 4c 24 1c	 mov	 ecx, DWORD PTR __Val$[esp+12]
  00014	51		 push	 ecx
  00015	56		 push	 esi
  00016	57		 push	 edi
  00017	e8 00 00 00 00	 call	 ??$_Uninit_fill_n@PAU_RANDOM_OPTION@@IU1@V?$allocator@U_RANDOM_OPTION@@@std@@@std@@YAXPAU_RANDOM_OPTION@@IABU1@AAV?$allocator@U_RANDOM_OPTION@@@0@U_Nonscalar_ptr_iterator_tag@0@@Z ; std::_Uninit_fill_n<_RANDOM_OPTION *,unsigned int,_RANDOM_OPTION,std::allocator<_RANDOM_OPTION> >

; 879  : 		return (_Ptr + _Count);

  0001c	8d 14 76	 lea	 edx, DWORD PTR [esi+esi*2]
  0001f	83 c4 14	 add	 esp, 20			; 00000014H
  00022	8d 04 d7	 lea	 eax, DWORD PTR [edi+edx*8]
  00025	5f		 pop	 edi
  00026	5e		 pop	 esi

; 880  : 		}

  00027	c2 0c 00	 ret	 12			; 0000000cH
?_Ufill@?$vector@U_RANDOM_OPTION@@V?$allocator@U_RANDOM_OPTION@@@std@@@std@@IAEPAU_RANDOM_OPTION@@PAU3@IABU3@@Z ENDP ; std::vector<_RANDOM_OPTION,std::allocator<_RANDOM_OPTION> >::_Ufill
_TEXT	ENDS
PUBLIC	?_Insert_n@?$vector@U_RANDOM_OPTION@@V?$allocator@U_RANDOM_OPTION@@@std@@@std@@IAEXViterator@12@IABU_RANDOM_OPTION@@@Z ; std::vector<_RANDOM_OPTION,std::allocator<_RANDOM_OPTION> >::_Insert_n
;	COMDAT xdata$x
; File c:\program files\microsoft visual studio .net 2003\vc7\include\xmemory
xdata$x	SEGMENT
$T235245 DD	0ffffffffH
	DD	FLAT:$L234991
	DD	00H
	DD	00H
	DD	00H
	DD	00H
	DD	00H
	DD	00H
	DD	00H
	DD	00H
$T235247 DD	00H
	DD	00H
	DD	00H
	DD	FLAT:$L234988
$T235248 DD	00H
	DD	00H
	DD	00H
	DD	FLAT:$L234990
$T235246 DD	01H
	DD	01H
	DD	02H
	DD	01H
	DD	FLAT:$T235247
	DD	03H
	DD	03H
	DD	04H
	DD	01H
	DD	FLAT:$T235248
$T235242 DD	019930520H
	DD	05H
	DD	FLAT:$T235245
	DD	02H
	DD	FLAT:$T235246
	DD	2 DUP(00H)
; Function compile flags: /Ogty
; File c:\program files\microsoft visual studio .net 2003\vc7\include\vector
xdata$x	ENDS
;	COMDAT ?_Insert_n@?$vector@U_RANDOM_OPTION@@V?$allocator@U_RANDOM_OPTION@@@std@@@std@@IAEXViterator@12@IABU_RANDOM_OPTION@@@Z
_TEXT	SEGMENT
__Tmp$ = -48						; size = 24
__Newvec$227186 = -24					; size = 4
_this$ = -20						; size = 4
__$EHRec$ = -16						; size = 16
tv464 = 8						; size = 4
__Cat$235208 = 8					; size = 1
__Cat$235194 = 8					; size = 1
__Cat$235170 = 8					; size = 1
__Cat$235131 = 8					; size = 1
__Cat$235108 = 8					; size = 1
__Cat$235085 = 8					; size = 1
__Where$ = 8						; size = 4
__Ptr$227187 = 12					; size = 4
__Count$ = 12						; size = 4
tv451 = 16						; size = 4
tv450 = 16						; size = 4
tv435 = 16						; size = 4
__Val$ = 16						; size = 4
?_Insert_n@?$vector@U_RANDOM_OPTION@@V?$allocator@U_RANDOM_OPTION@@@std@@@std@@IAEXViterator@12@IABU_RANDOM_OPTION@@@Z PROC NEAR ; std::vector<_RANDOM_OPTION,std::allocator<_RANDOM_OPTION> >::_Insert_n, COMDAT
; _this$ = ecx

; 809  : 		{	// insert _Count * _Val at _Where

  00000	55		 push	 ebp
  00001	8b ec		 mov	 ebp, esp
  00003	6a ff		 push	 -1
  00005	68 00 00 00 00	 push	 __ehhandler$?_Insert_n@?$vector@U_RANDOM_OPTION@@V?$allocator@U_RANDOM_OPTION@@@std@@@std@@IAEXViterator@12@IABU_RANDOM_OPTION@@@Z
  0000a	64 a1 00 00 00
	00		 mov	 eax, DWORD PTR fs:__except_list
  00010	50		 push	 eax
  00011	64 89 25 00 00
	00 00		 mov	 DWORD PTR fs:__except_list, esp
  00018	83 ec 24	 sub	 esp, 36			; 00000024H

; 810  : 		_Ty _Tmp = _Val;	// in case _Val is in sequence

  0001b	8b 45 10	 mov	 eax, DWORD PTR __Val$[ebp]
  0001e	8b 50 04	 mov	 edx, DWORD PTR [eax+4]
  00021	53		 push	 ebx
  00022	56		 push	 esi
  00023	8b f1		 mov	 esi, ecx
  00025	8b 08		 mov	 ecx, DWORD PTR [eax]
  00027	57		 push	 edi
  00028	83 c0 08	 add	 eax, 8
  0002b	89 65 f0	 mov	 DWORD PTR __$EHRec$[ebp], esp
  0002e	89 4d d0	 mov	 DWORD PTR __Tmp$[ebp], ecx
  00031	50		 push	 eax
  00032	8d 4d d8	 lea	 ecx, DWORD PTR __Tmp$[ebp+8]
  00035	89 75 ec	 mov	 DWORD PTR _this$[ebp], esi
  00038	89 55 d4	 mov	 DWORD PTR __Tmp$[ebp+4], edx
  0003b	e8 00 00 00 00	 call	 ??0?$vector@U_AdjData@@V?$allocator@U_AdjData@@@std@@@std@@QAE@ABV01@@Z ; std::vector<_AdjData,std::allocator<_AdjData> >::vector<_AdjData,std::allocator<_AdjData> >

; 811  : 		size_type _Capacity = capacity();

  00040	8b 5e 04	 mov	 ebx, DWORD PTR [esi+4]
  00043	33 c9		 xor	 ecx, ecx
  00045	3b d9		 cmp	 ebx, ecx
  00047	89 4d fc	 mov	 DWORD PTR __$EHRec$[ebp+12], ecx
  0004a	74 16		 je	 SHORT $L235001
  0004c	8b 4e 0c	 mov	 ecx, DWORD PTR [esi+12]
  0004f	2b cb		 sub	 ecx, ebx
  00051	b8 ab aa aa 2a	 mov	 eax, 715827883		; 2aaaaaabH
  00056	f7 e9		 imul	 ecx
  00058	c1 fa 02	 sar	 edx, 2
  0005b	8b ca		 mov	 ecx, edx
  0005d	c1 e9 1f	 shr	 ecx, 31			; 0000001fH
  00060	03 ca		 add	 ecx, edx
$L235001:

; 812  : 
; 813  : 		if (_Count == 0)

  00062	8b 7d 0c	 mov	 edi, DWORD PTR __Count$[ebp]
  00065	85 ff		 test	 edi, edi
  00067	0f 84 75 02 00
	00		 je	 $L227206

; 814  : 			;
; 815  : 		else if (max_size() - size() < _Count)

  0006d	85 db		 test	 ebx, ebx
  0006f	75 04		 jne	 SHORT $L235024
  00071	33 c0		 xor	 eax, eax
  00073	eb 16		 jmp	 SHORT $L235025
$L235024:
  00075	8b 56 08	 mov	 edx, DWORD PTR [esi+8]
  00078	2b d3		 sub	 edx, ebx
  0007a	b8 ab aa aa 2a	 mov	 eax, 715827883		; 2aaaaaabH
  0007f	f7 ea		 imul	 edx
  00081	c1 fa 02	 sar	 edx, 2
  00084	8b c2		 mov	 eax, edx
  00086	c1 e8 1f	 shr	 eax, 31			; 0000001fH
  00089	03 c2		 add	 eax, edx
$L235025:
  0008b	ba aa aa aa 0a	 mov	 edx, 178956970		; 0aaaaaaaH
  00090	2b d0		 sub	 edx, eax
  00092	3b d7		 cmp	 edx, edi
  00094	73 07		 jae	 SHORT $L227182

; 816  : 			_Xlen();	// result too long

  00096	8b ce		 mov	 ecx, esi
  00098	e8 00 00 00 00	 call	 ?_Xlen@?$vector@U_RANDOM_OPTION@@V?$allocator@U_RANDOM_OPTION@@@std@@@std@@IBEXXZ ; std::vector<_RANDOM_OPTION,std::allocator<_RANDOM_OPTION> >::_Xlen
$L235249:
$L227182:

; 817  : 		else if (_Capacity < size() + _Count)

  0009d	85 db		 test	 ebx, ebx
  0009f	75 04		 jne	 SHORT $L235031
  000a1	33 c0		 xor	 eax, eax
  000a3	eb 16		 jmp	 SHORT $L235032
$L235031:
  000a5	8b 56 08	 mov	 edx, DWORD PTR [esi+8]
  000a8	2b d3		 sub	 edx, ebx
  000aa	b8 ab aa aa 2a	 mov	 eax, 715827883		; 2aaaaaabH
  000af	f7 ea		 imul	 edx
  000b1	c1 fa 02	 sar	 edx, 2
  000b4	8b c2		 mov	 eax, edx
  000b6	c1 e8 1f	 shr	 eax, 31			; 0000001fH
  000b9	03 c2		 add	 eax, edx
$L235032:
  000bb	03 c7		 add	 eax, edi
  000bd	3b c8		 cmp	 ecx, eax
  000bf	0f 83 26 01 00
	00		 jae	 $L227184

; 818  : 			{	// not enough room, reallocate
; 819  : 			_Capacity = max_size() - _Capacity / 2 < _Capacity
; 820  : 				? 0 : _Capacity + _Capacity / 2;	// try to grow by 50%

  000c5	8b c1		 mov	 eax, ecx
  000c7	d1 e8		 shr	 eax, 1
  000c9	ba aa aa aa 0a	 mov	 edx, 178956970		; 0aaaaaaaH
  000ce	2b d0		 sub	 edx, eax
  000d0	3b d1		 cmp	 edx, ecx
  000d2	73 04		 jae	 SHORT $L234985
  000d4	33 c9		 xor	 ecx, ecx
  000d6	eb 02		 jmp	 SHORT $L234986
$L234985:
  000d8	03 c8		 add	 ecx, eax
$L234986:

; 821  : 			if (_Capacity < size() + _Count)

  000da	85 db		 test	 ebx, ebx
  000dc	75 04		 jne	 SHORT $L235054
  000de	33 c0		 xor	 eax, eax
  000e0	eb 16		 jmp	 SHORT $L235055
$L235054:
  000e2	8b 56 08	 mov	 edx, DWORD PTR [esi+8]
  000e5	2b d3		 sub	 edx, ebx
  000e7	b8 ab aa aa 2a	 mov	 eax, 715827883		; 2aaaaaabH
  000ec	f7 ea		 imul	 edx
  000ee	c1 fa 02	 sar	 edx, 2
  000f1	8b c2		 mov	 eax, edx
  000f3	c1 e8 1f	 shr	 eax, 31			; 0000001fH
  000f6	03 c2		 add	 eax, edx
$L235055:
  000f8	03 c7		 add	 eax, edi
  000fa	3b c8		 cmp	 ecx, eax
  000fc	73 0b		 jae	 SHORT $L227185

; 822  : 				_Capacity = size() + _Count;

  000fe	8b ce		 mov	 ecx, esi
  00100	e8 00 00 00 00	 call	 ?size@?$vector@U_RANDOM_OPTION@@V?$allocator@U_RANDOM_OPTION@@@std@@@std@@QBEIXZ ; std::vector<_RANDOM_OPTION,std::allocator<_RANDOM_OPTION> >::size
  00105	8b c8		 mov	 ecx, eax
  00107	03 cf		 add	 ecx, edi
$L227185:

; 823  : 			pointer _Newvec = this->_Alval.allocate(_Capacity);

  00109	8d 0c 49	 lea	 ecx, DWORD PTR [ecx+ecx*2]
  0010c	c1 e1 03	 shl	 ecx, 3
  0010f	51		 push	 ecx
  00110	89 4d 10	 mov	 DWORD PTR tv450[ebp], ecx
  00113	e8 00 00 00 00	 call	 ??2@YAPAXI@Z		; operator new

; 824  : 			pointer _Ptr = _Newvec;
; 825  : 
; 826  : 			_TRY_BEGIN
; 827  : 			_Ptr = _Ucopy(_Myfirst, _ITER_BASE(_Where),
; 828  : 				_Newvec);	// copy prefix

  00118	8b 4d 08	 mov	 ecx, DWORD PTR __Cat$235085[ebp]
  0011b	8b 55 08	 mov	 edx, DWORD PTR __Where$[ebp]
  0011e	51		 push	 ecx
  0011f	8b d8		 mov	 ebx, eax
  00121	8b 46 04	 mov	 eax, DWORD PTR [esi+4]
  00124	56		 push	 esi
  00125	53		 push	 ebx
  00126	52		 push	 edx
  00127	50		 push	 eax
  00128	89 5d e8	 mov	 DWORD PTR __Newvec$227186[ebp], ebx
  0012b	89 5d 0c	 mov	 DWORD PTR __Ptr$227187[ebp], ebx
  0012e	c6 45 fc 01	 mov	 BYTE PTR __$EHRec$[ebp+12], 1
  00132	e8 00 00 00 00	 call	 ??$_Uninit_copy@PAU_RANDOM_OPTION@@PAU1@V?$allocator@U_RANDOM_OPTION@@@std@@@std@@YAPAU_RANDOM_OPTION@@PAU1@00AAV?$allocator@U_RANDOM_OPTION@@@0@U_Nonscalar_ptr_iterator_tag@0@@Z ; std::_Uninit_copy<_RANDOM_OPTION *,_RANDOM_OPTION *,std::allocator<_RANDOM_OPTION> >

; 829  : 			_Ptr = _Ufill(_Ptr, _Count, _Tmp);	// add new stuff

  00137	8b 4d 08	 mov	 ecx, DWORD PTR __Cat$235108[ebp]
  0013a	83 c4 18	 add	 esp, 24			; 00000018H
  0013d	51		 push	 ecx
  0013e	56		 push	 esi
  0013f	8d 55 d0	 lea	 edx, DWORD PTR __Tmp$[ebp]
  00142	52		 push	 edx
  00143	57		 push	 edi
  00144	50		 push	 eax
  00145	89 45 0c	 mov	 DWORD PTR __Ptr$227187[ebp], eax
  00148	e8 00 00 00 00	 call	 ??$_Uninit_fill_n@PAU_RANDOM_OPTION@@IU1@V?$allocator@U_RANDOM_OPTION@@@std@@@std@@YAXPAU_RANDOM_OPTION@@IABU1@AAV?$allocator@U_RANDOM_OPTION@@@0@U_Nonscalar_ptr_iterator_tag@0@@Z ; std::_Uninit_fill_n<_RANDOM_OPTION *,unsigned int,_RANDOM_OPTION,std::allocator<_RANDOM_OPTION> >

; 830  : 			_Ucopy(_ITER_BASE(_Where), _Mylast, _Ptr);	// copy suffix

  0014d	8b 55 08	 mov	 edx, DWORD PTR __Cat$235131[ebp]
  00150	8b 4d 0c	 mov	 ecx, DWORD PTR __Ptr$227187[ebp]
  00153	83 c4 14	 add	 esp, 20			; 00000014H
  00156	52		 push	 edx
  00157	8d 04 7f	 lea	 eax, DWORD PTR [edi+edi*2]
  0015a	8d 04 c1	 lea	 eax, DWORD PTR [ecx+eax*8]
  0015d	8b 4e 08	 mov	 ecx, DWORD PTR [esi+8]
  00160	56		 push	 esi
  00161	50		 push	 eax
  00162	89 45 0c	 mov	 DWORD PTR __Ptr$227187[ebp], eax
  00165	8b 45 08	 mov	 eax, DWORD PTR __Where$[ebp]
  00168	51		 push	 ecx
  00169	50		 push	 eax
  0016a	e8 00 00 00 00	 call	 ??$_Uninit_copy@PAU_RANDOM_OPTION@@PAU1@V?$allocator@U_RANDOM_OPTION@@@std@@@std@@YAPAU_RANDOM_OPTION@@PAU1@00AAV?$allocator@U_RANDOM_OPTION@@@0@U_Nonscalar_ptr_iterator_tag@0@@Z ; std::_Uninit_copy<_RANDOM_OPTION *,_RANDOM_OPTION *,std::allocator<_RANDOM_OPTION> >

; 835  : 			_CATCH_END
; 836  : 
; 837  : 			_Count += size();

  0016f	8b 46 04	 mov	 eax, DWORD PTR [esi+4]
  00172	83 c4 14	 add	 esp, 20			; 00000014H
  00175	85 c0		 test	 eax, eax
  00177	74 16		 je	 SHORT $L235143
$L235142:
  00179	8b 4e 08	 mov	 ecx, DWORD PTR [esi+8]
  0017c	2b c8		 sub	 ecx, eax
  0017e	b8 ab aa aa 2a	 mov	 eax, 715827883		; 2aaaaaabH
  00183	f7 e9		 imul	 ecx
  00185	c1 fa 02	 sar	 edx, 2
  00188	8b c2		 mov	 eax, edx
  0018a	c1 e8 1f	 shr	 eax, 31			; 0000001fH
  0018d	03 c2		 add	 eax, edx
$L235143:
  0018f	03 f8		 add	 edi, eax

; 838  : 			if (_Myfirst != 0)

  00191	8b 46 04	 mov	 eax, DWORD PTR [esi+4]
  00194	85 c0		 test	 eax, eax
  00196	74 18		 je	 SHORT $L235146

; 839  : 				{	// destroy and deallocate old array
; 840  : 				_Destroy(_Myfirst, _Mylast);

  00198	8b 4e 08	 mov	 ecx, DWORD PTR [esi+8]
  0019b	51		 push	 ecx
  0019c	50		 push	 eax
  0019d	8b ce		 mov	 ecx, esi
  0019f	e8 00 00 00 00	 call	 ?_Destroy@?$vector@U_RANDOM_OPTION@@V?$allocator@U_RANDOM_OPTION@@@std@@@std@@IAEXPAU_RANDOM_OPTION@@0@Z ; std::vector<_RANDOM_OPTION,std::allocator<_RANDOM_OPTION> >::_Destroy

; 841  : 				this->_Alval.deallocate(_Myfirst, _Myend - _Myfirst);

  001a4	8b 56 04	 mov	 edx, DWORD PTR [esi+4]
  001a7	52		 push	 edx
  001a8	e8 00 00 00 00	 call	 ??3@YAXPAX@Z		; operator delete
  001ad	83 c4 04	 add	 esp, 4
$L235146:

; 842  : 				}
; 843  : 			_Myend = _Newvec + _Capacity;

  001b0	8b 45 10	 mov	 eax, DWORD PTR tv450[ebp]

; 844  : 			_Mylast = _Newvec + _Count;

  001b3	8d 0c 7f	 lea	 ecx, DWORD PTR [edi+edi*2]
  001b6	03 c3		 add	 eax, ebx
  001b8	8d 14 cb	 lea	 edx, DWORD PTR [ebx+ecx*8]
  001bb	89 46 0c	 mov	 DWORD PTR [esi+12], eax
  001be	89 56 08	 mov	 DWORD PTR [esi+8], edx

; 845  : 			_Myfirst = _Newvec;

  001c1	89 5e 04	 mov	 DWORD PTR [esi+4], ebx

; 846  : 			}
; 847  : 		else if ((size_type)(_Mylast - _ITER_BASE(_Where)) < _Count)

  001c4	e9 19 01 00 00	 jmp	 $L227206
$L234988:

; 831  : 			_CATCH_ALL
; 832  : 			_Destroy(_Newvec, _Ptr);

  001c9	8b 45 0c	 mov	 eax, DWORD PTR __Ptr$227187[ebp]
  001cc	8b 75 e8	 mov	 esi, DWORD PTR __Newvec$227186[ebp]
  001cf	8b 4d ec	 mov	 ecx, DWORD PTR _this$[ebp]
  001d2	50		 push	 eax
  001d3	56		 push	 esi
  001d4	e8 00 00 00 00	 call	 ?_Destroy@?$vector@U_RANDOM_OPTION@@V?$allocator@U_RANDOM_OPTION@@@std@@@std@@IAEXPAU_RANDOM_OPTION@@0@Z ; std::vector<_RANDOM_OPTION,std::allocator<_RANDOM_OPTION> >::_Destroy

; 833  : 			this->_Alval.deallocate(_Newvec, _Capacity);

  001d9	56		 push	 esi
  001da	e8 00 00 00 00	 call	 ??3@YAXPAX@Z		; operator delete
  001df	83 c4 04	 add	 esp, 4

; 834  : 			_RERAISE;

  001e2	6a 00		 push	 0
  001e4	6a 00		 push	 0
  001e6	e8 00 00 00 00	 call	 __CxxThrowException@8
$L235250:
$L227184:

; 846  : 			}
; 847  : 		else if ((size_type)(_Mylast - _ITER_BASE(_Where)) < _Count)

  001eb	8b 4e 08	 mov	 ecx, DWORD PTR [esi+8]
  001ee	8b 5d 08	 mov	 ebx, DWORD PTR __Where$[ebp]
  001f1	8b d1		 mov	 edx, ecx
  001f3	2b d3		 sub	 edx, ebx
  001f5	b8 ab aa aa 2a	 mov	 eax, 715827883		; 2aaaaaabH
  001fa	f7 ea		 imul	 edx
  001fc	c1 fa 02	 sar	 edx, 2
  001ff	8b c2		 mov	 eax, edx
  00201	c1 e8 1f	 shr	 eax, 31			; 0000001fH
  00204	03 c2		 add	 eax, edx
  00206	3b c7		 cmp	 eax, edi
  00208	89 4d 10	 mov	 DWORD PTR tv435[ebp], ecx
  0020b	0f 83 92 00 00
	00		 jae	 $L227197

; 848  : 			{	// new stuff spills off end
; 849  : 			_Ucopy(_ITER_BASE(_Where), _Mylast,
; 850  : 				_ITER_BASE(_Where) + _Count);	// copy suffix

  00211	8b 55 08	 mov	 edx, DWORD PTR __Cat$235170[ebp]
  00214	52		 push	 edx
  00215	8d 04 7f	 lea	 eax, DWORD PTR [edi+edi*2]
  00218	c1 e0 03	 shl	 eax, 3
  0021b	89 45 10	 mov	 DWORD PTR tv451[ebp], eax
  0021e	56		 push	 esi
  0021f	03 c3		 add	 eax, ebx
  00221	50		 push	 eax
  00222	51		 push	 ecx
  00223	53		 push	 ebx
  00224	e8 00 00 00 00	 call	 ??$_Uninit_copy@PAU_RANDOM_OPTION@@PAU1@V?$allocator@U_RANDOM_OPTION@@@std@@@std@@YAPAU_RANDOM_OPTION@@PAU1@00AAV?$allocator@U_RANDOM_OPTION@@@0@U_Nonscalar_ptr_iterator_tag@0@@Z ; std::_Uninit_copy<_RANDOM_OPTION *,_RANDOM_OPTION *,std::allocator<_RANDOM_OPTION> >

; 851  : 
; 852  : 			_TRY_BEGIN
; 853  : 			_Ufill(_Mylast, _Count - (_Mylast - _ITER_BASE(_Where)),
; 854  : 				_Tmp);	// insert new stuff off end

  00229	8b 4e 08	 mov	 ecx, DWORD PTR [esi+8]
  0022c	83 c4 14	 add	 esp, 20			; 00000014H
  0022f	8d 45 d0	 lea	 eax, DWORD PTR __Tmp$[ebp]
  00232	50		 push	 eax
  00233	8b d1		 mov	 edx, ecx
  00235	2b d3		 sub	 edx, ebx
  00237	b8 ab aa aa 2a	 mov	 eax, 715827883		; 2aaaaaabH
  0023c	f7 ea		 imul	 edx
  0023e	c1 fa 02	 sar	 edx, 2
  00241	8b c2		 mov	 eax, edx
  00243	c1 e8 1f	 shr	 eax, 31			; 0000001fH
  00246	03 c2		 add	 eax, edx
  00248	2b f8		 sub	 edi, eax
  0024a	57		 push	 edi
  0024b	51		 push	 ecx
  0024c	8b ce		 mov	 ecx, esi
  0024e	c6 45 fc 03	 mov	 BYTE PTR __$EHRec$[ebp+12], 3
  00252	e8 00 00 00 00	 call	 ?_Ufill@?$vector@U_RANDOM_OPTION@@V?$allocator@U_RANDOM_OPTION@@@std@@@std@@IAEPAU_RANDOM_OPTION@@PAU3@IABU3@@Z ; std::vector<_RANDOM_OPTION,std::allocator<_RANDOM_OPTION> >::_Ufill

; 858  : 			_CATCH_END
; 859  : 
; 860  : 			_Mylast += _Count;

  00257	8b 7e 08	 mov	 edi, DWORD PTR [esi+8]
  0025a	8b 45 10	 mov	 eax, DWORD PTR tv451[ebp]
  0025d	03 f8		 add	 edi, eax
  0025f	89 7e 08	 mov	 DWORD PTR [esi+8], edi

; 861  : 			fill(_ITER_BASE(_Where), _Mylast - _Count,
; 862  : 				_Tmp);	// insert up to old end

  00262	8d 4d d0	 lea	 ecx, DWORD PTR __Tmp$[ebp]
  00265	8b f7		 mov	 esi, edi
  00267	51		 push	 ecx
  00268	2b f0		 sub	 esi, eax
  0026a	56		 push	 esi
  0026b	53		 push	 ebx
  0026c	c7 45 fc 00 00
	00 00		 mov	 DWORD PTR __$EHRec$[ebp+12], 0
  00273	e8 00 00 00 00	 call	 ??$fill@PAU_RANDOM_OPTION@@U1@@std@@YAXPAU_RANDOM_OPTION@@0ABU1@@Z ; std::fill<_RANDOM_OPTION *,_RANDOM_OPTION>
  00278	83 c4 0c	 add	 esp, 12			; 0000000cH

; 863  : 			}
; 864  : 		else

  0027b	eb 65		 jmp	 SHORT $L227206
$L234990:

; 855  : 			_CATCH_ALL
; 856  : 			_Destroy(_ITER_BASE(_Where) + _Count, _Mylast + _Count);

  0027d	8b 45 0c	 mov	 eax, DWORD PTR __Count$[ebp]
  00280	8b 4d ec	 mov	 ecx, DWORD PTR _this$[ebp]
  00283	8b 51 08	 mov	 edx, DWORD PTR [ecx+8]
  00286	8d 04 40	 lea	 eax, DWORD PTR [eax+eax*2]
  00289	c1 e0 03	 shl	 eax, 3
  0028c	03 d0		 add	 edx, eax
  0028e	52		 push	 edx
  0028f	8b 55 08	 mov	 edx, DWORD PTR __Where$[ebp]
  00292	03 c2		 add	 eax, edx
  00294	50		 push	 eax
  00295	e8 00 00 00 00	 call	 ?_Destroy@?$vector@U_RANDOM_OPTION@@V?$allocator@U_RANDOM_OPTION@@@std@@@std@@IAEXPAU_RANDOM_OPTION@@0@Z ; std::vector<_RANDOM_OPTION,std::allocator<_RANDOM_OPTION> >::_Destroy

; 857  : 			_RERAISE;

  0029a	6a 00		 push	 0
  0029c	6a 00		 push	 0
  0029e	e8 00 00 00 00	 call	 __CxxThrowException@8
$L235251:
$L227197:

; 865  : 			{	// new stuff can all be assigned
; 866  : 			pointer _Oldend = _Mylast;
; 867  : 			_Mylast = _Ucopy(_Oldend - _Count, _Oldend,
; 868  : 				_Mylast);	// copy suffix

  002a3	8d 3c 7f	 lea	 edi, DWORD PTR [edi+edi*2]
  002a6	8b c1		 mov	 eax, ecx
  002a8	c1 e7 03	 shl	 edi, 3
  002ab	2b c7		 sub	 eax, edi
  002ad	89 45 08	 mov	 DWORD PTR tv464[ebp], eax
  002b0	8b 55 08	 mov	 edx, DWORD PTR __Cat$235194[ebp]
  002b3	52		 push	 edx
  002b4	56		 push	 esi
  002b5	51		 push	 ecx
  002b6	51		 push	 ecx
  002b7	50		 push	 eax
  002b8	e8 00 00 00 00	 call	 ??$_Uninit_copy@PAU_RANDOM_OPTION@@PAU1@V?$allocator@U_RANDOM_OPTION@@@std@@@std@@YAPAU_RANDOM_OPTION@@PAU1@00AAV?$allocator@U_RANDOM_OPTION@@@0@U_Nonscalar_ptr_iterator_tag@0@@Z ; std::_Uninit_copy<_RANDOM_OPTION *,_RANDOM_OPTION *,std::allocator<_RANDOM_OPTION> >

; 869  : 			copy_backward(_ITER_BASE(_Where), _Oldend - _Count,
; 870  : 				_Oldend);	// copy hole

  002bd	8b 4d 10	 mov	 ecx, DWORD PTR tv435[ebp]
  002c0	8b 55 08	 mov	 edx, DWORD PTR tv464[ebp]
  002c3	89 46 08	 mov	 DWORD PTR [esi+8], eax
  002c6	8b 45 08	 mov	 eax, DWORD PTR __Cat$235208[ebp]
  002c9	50		 push	 eax
  002ca	51		 push	 ecx
  002cb	52		 push	 edx
  002cc	53		 push	 ebx
  002cd	e8 00 00 00 00	 call	 ??$_Copy_backward_opt@PAU_RANDOM_OPTION@@PAU1@@std@@YAPAU_RANDOM_OPTION@@PAU1@00U_Nonscalar_ptr_iterator_tag@0@@Z ; std::_Copy_backward_opt<_RANDOM_OPTION *,_RANDOM_OPTION *>

; 871  : 			fill(_ITER_BASE(_Where), _ITER_BASE(_Where) + _Count,
; 872  : 				_Tmp);	// insert into hole

  002d2	8d 45 d0	 lea	 eax, DWORD PTR __Tmp$[ebp]
  002d5	50		 push	 eax
  002d6	03 fb		 add	 edi, ebx
  002d8	57		 push	 edi
  002d9	53		 push	 ebx
  002da	e8 00 00 00 00	 call	 ??$fill@PAU_RANDOM_OPTION@@U1@@std@@YAXPAU_RANDOM_OPTION@@0ABU1@@Z ; std::fill<_RANDOM_OPTION *,_RANDOM_OPTION>
  002df	83 c4 30	 add	 esp, 48			; 00000030H
$L227206:

; 873  : 			}
; 874  : 		}

  002e2	8b 45 dc	 mov	 eax, DWORD PTR __Tmp$[ebp+12]
  002e5	85 c0		 test	 eax, eax
  002e7	74 09		 je	 SHORT $L235240
  002e9	50		 push	 eax
  002ea	e8 00 00 00 00	 call	 ??3@YAXPAX@Z		; operator delete
  002ef	83 c4 04	 add	 esp, 4
$L235240:
  002f2	8b 4d f4	 mov	 ecx, DWORD PTR __$EHRec$[ebp+4]
  002f5	5f		 pop	 edi
  002f6	5e		 pop	 esi
  002f7	64 89 0d 00 00
	00 00		 mov	 DWORD PTR fs:__except_list, ecx
  002fe	5b		 pop	 ebx
  002ff	8b e5		 mov	 esp, ebp
  00301	5d		 pop	 ebp
  00302	c2 0c 00	 ret	 12			; 0000000cH
$L235244:
_TEXT	ENDS
;	COMDAT text$x
text$x	SEGMENT
$L234991:
  00000	8d 4d d0	 lea	 ecx, DWORD PTR __Tmp$[ebp]
  00003	e9 00 00 00 00	 jmp	 ??1_RANDOM_OPTION@@QAE@XZ
__ehhandler$?_Insert_n@?$vector@U_RANDOM_OPTION@@V?$allocator@U_RANDOM_OPTION@@@std@@@std@@IAEXViterator@12@IABU_RANDOM_OPTION@@@Z:
  00008	b8 00 00 00 00	 mov	 eax, OFFSET FLAT:$T235242
  0000d	e9 00 00 00 00	 jmp	 ___CxxFrameHandler
text$x	ENDS
?_Insert_n@?$vector@U_RANDOM_OPTION@@V?$allocator@U_RANDOM_OPTION@@@std@@@std@@IAEXViterator@12@IABU_RANDOM_OPTION@@@Z ENDP ; std::vector<_RANDOM_OPTION,std::allocator<_RANDOM_OPTION> >::_Insert_n
PUBLIC	??1?$vector@U_RANDOM_OPTION@@V?$allocator@U_RANDOM_OPTION@@@std@@@std@@QAE@XZ ; std::vector<_RANDOM_OPTION,std::allocator<_RANDOM_OPTION> >::~vector<_RANDOM_OPTION,std::allocator<_RANDOM_OPTION> >
; Function compile flags: /Ogty
;	COMDAT ??1?$vector@U_RANDOM_OPTION@@V?$allocator@U_RANDOM_OPTION@@@std@@@std@@QAE@XZ
_TEXT	SEGMENT
??1?$vector@U_RANDOM_OPTION@@V?$allocator@U_RANDOM_OPTION@@@std@@@std@@QAE@XZ PROC NEAR ; std::vector<_RANDOM_OPTION,std::allocator<_RANDOM_OPTION> >::~vector<_RANDOM_OPTION,std::allocator<_RANDOM_OPTION> >, COMDAT
; _this$ = ecx

; 388  : 		_Tidy();

  00000	e9 00 00 00 00	 jmp	 ?_Tidy@?$vector@U_RANDOM_OPTION@@V?$allocator@U_RANDOM_OPTION@@@std@@@std@@IAEXXZ ; std::vector<_RANDOM_OPTION,std::allocator<_RANDOM_OPTION> >::_Tidy
??1?$vector@U_RANDOM_OPTION@@V?$allocator@U_RANDOM_OPTION@@@std@@@std@@QAE@XZ ENDP ; std::vector<_RANDOM_OPTION,std::allocator<_RANDOM_OPTION> >::~vector<_RANDOM_OPTION,std::allocator<_RANDOM_OPTION> >
_TEXT	ENDS
PUBLIC	?insert@?$vector@U_RANDOM_OPTION@@V?$allocator@U_RANDOM_OPTION@@@std@@@std@@QAE?AViterator@12@V312@ABU_RANDOM_OPTION@@@Z ; std::vector<_RANDOM_OPTION,std::allocator<_RANDOM_OPTION> >::insert
; Function compile flags: /Ogty
;	COMDAT ?insert@?$vector@U_RANDOM_OPTION@@V?$allocator@U_RANDOM_OPTION@@@std@@@std@@QAE?AViterator@12@V312@ABU_RANDOM_OPTION@@@Z
_TEXT	SEGMENT
___$ReturnUdt$ = 8					; size = 4
tv90 = 12						; size = 4
__Where$ = 12						; size = 4
__Val$ = 16						; size = 4
?insert@?$vector@U_RANDOM_OPTION@@V?$allocator@U_RANDOM_OPTION@@@std@@@std@@QAE?AViterator@12@V312@ABU_RANDOM_OPTION@@@Z PROC NEAR ; std::vector<_RANDOM_OPTION,std::allocator<_RANDOM_OPTION> >::insert, COMDAT
; _this$ = ecx

; 620  : 		{	// insert _Val at _Where

  00000	53		 push	 ebx

; 621  : 		size_type _Off = size() == 0 ? 0 : _Where - begin();

  00001	8b 5c 24 0c	 mov	 ebx, DWORD PTR __Where$[esp]
  00005	56		 push	 esi
  00006	57		 push	 edi
  00007	8b f9		 mov	 edi, ecx
  00009	8b 77 04	 mov	 esi, DWORD PTR [edi+4]
  0000c	85 f6		 test	 esi, esi
  0000e	74 1c		 je	 SHORT $L235321
  00010	8b 4f 08	 mov	 ecx, DWORD PTR [edi+8]
  00013	2b ce		 sub	 ecx, esi
  00015	b8 ab aa aa 2a	 mov	 eax, 715827883		; 2aaaaaabH
  0001a	f7 e9		 imul	 ecx
  0001c	c1 fa 02	 sar	 edx, 2
  0001f	8b c2		 mov	 eax, edx
  00021	c1 e8 1f	 shr	 eax, 31			; 0000001fH
  00024	03 c2		 add	 eax, edx
  00026	89 44 24 14	 mov	 DWORD PTR tv90[esp+8], eax
  0002a	75 04		 jne	 SHORT $L235260
$L235321:
  0002c	33 f6		 xor	 esi, esi
  0002e	eb 15		 jmp	 SHORT $L235261
$L235260:
  00030	8b cb		 mov	 ecx, ebx
  00032	2b ce		 sub	 ecx, esi
  00034	b8 ab aa aa 2a	 mov	 eax, 715827883		; 2aaaaaabH
  00039	f7 e9		 imul	 ecx
  0003b	c1 fa 02	 sar	 edx, 2
  0003e	8b f2		 mov	 esi, edx
  00040	c1 ee 1f	 shr	 esi, 31			; 0000001fH
  00043	03 f2		 add	 esi, edx
$L235261:

; 622  : 		_Insert_n(_Where, (size_type)1, _Val);

  00045	8b 4c 24 18	 mov	 ecx, DWORD PTR __Val$[esp+8]
  00049	51		 push	 ecx
  0004a	6a 01		 push	 1
  0004c	53		 push	 ebx
  0004d	8b cf		 mov	 ecx, edi
  0004f	e8 00 00 00 00	 call	 ?_Insert_n@?$vector@U_RANDOM_OPTION@@V?$allocator@U_RANDOM_OPTION@@@std@@@std@@IAEXViterator@12@IABU_RANDOM_OPTION@@@Z ; std::vector<_RANDOM_OPTION,std::allocator<_RANDOM_OPTION> >::_Insert_n

; 623  : 		return (begin() + _Off);

  00054	8b 47 04	 mov	 eax, DWORD PTR [edi+4]
  00057	8d 14 76	 lea	 edx, DWORD PTR [esi+esi*2]
  0005a	5f		 pop	 edi
  0005b	8d 0c d0	 lea	 ecx, DWORD PTR [eax+edx*8]
  0005e	8b 44 24 0c	 mov	 eax, DWORD PTR ___$ReturnUdt$[esp+4]
  00062	5e		 pop	 esi
  00063	89 08		 mov	 DWORD PTR [eax], ecx
  00065	5b		 pop	 ebx

; 624  : 		}

  00066	c2 0c 00	 ret	 12			; 0000000cH
?insert@?$vector@U_RANDOM_OPTION@@V?$allocator@U_RANDOM_OPTION@@@std@@@std@@QAE?AViterator@12@V312@ABU_RANDOM_OPTION@@@Z ENDP ; std::vector<_RANDOM_OPTION,std::allocator<_RANDOM_OPTION> >::insert
_TEXT	ENDS
PUBLIC	??_7CRandomOptionProperty@@6B@			; CRandomOptionProperty::`vftable'
PUBLIC	??_GCRandomOptionProperty@@UAEPAXI@Z		; CRandomOptionProperty::`scalar deleting destructor'
PUBLIC	??0CRandomOptionProperty@@QAE@XZ		; CRandomOptionProperty::CRandomOptionProperty
EXTRN	??_ECRandomOptionProperty@@UAEPAXI@Z:NEAR	; CRandomOptionProperty::`vector deleting destructor'
EXTRN	??_L@YGXPAXIHP6EX0@Z1@Z:NEAR			; `eh vector constructor iterator'
;	COMDAT ??_7CRandomOptionProperty@@6B@
; File c:\documents and settings\test\mes documents\source\virtuos_v17\build\program\_common\randomoption.cpp
CONST	SEGMENT
??_7CRandomOptionProperty@@6B@ DD FLAT:??_ECRandomOptionProperty@@UAEPAXI@Z ; CRandomOptionProperty::`vftable'
; Function compile flags: /Ogty
CONST	ENDS
;	COMDAT ??0CRandomOptionProperty@@QAE@XZ
_TEXT	SEGMENT
??0CRandomOptionProperty@@QAE@XZ PROC NEAR		; CRandomOptionProperty::CRandomOptionProperty, COMDAT
; _this$ = ecx

; 5    : {

  00000	56		 push	 esi
  00001	57		 push	 edi
  00002	68 00 00 00 00	 push	 OFFSET FLAT:??1?$vector@U_RANDOM_OPTION@@V?$allocator@U_RANDOM_OPTION@@@std@@@std@@QAE@XZ ; std::vector<_RANDOM_OPTION,std::allocator<_RANDOM_OPTION> >::~vector<_RANDOM_OPTION,std::allocator<_RANDOM_OPTION> >
  00007	68 00 00 00 00	 push	 OFFSET FLAT:??0?$vector@U_RANDOM_OPTION@@V?$allocator@U_RANDOM_OPTION@@@std@@@std@@QAE@XZ ; std::vector<_RANDOM_OPTION,std::allocator<_RANDOM_OPTION> >::vector<_RANDOM_OPTION,std::allocator<_RANDOM_OPTION> >
  0000c	8b f1		 mov	 esi, ecx
  0000e	6a 07		 push	 7
  00010	6a 10		 push	 16			; 00000010H
  00012	8d 46 34	 lea	 eax, DWORD PTR [esi+52]
  00015	50		 push	 eax
  00016	c7 06 00 00 00
	00		 mov	 DWORD PTR [esi], OFFSET FLAT:??_7CRandomOptionProperty@@6B@
  0001c	e8 00 00 00 00	 call	 ??_L@YGXPAXIHP6EX0@Z1@Z

; 6    : 	memset( m_anRandomOptionProb, 0, sizeof(m_anRandomOptionProb) );

  00021	33 c0		 xor	 eax, eax
  00023	8d 7e 04	 lea	 edi, DWORD PTR [esi+4]
  00026	b9 0c 00 00 00	 mov	 ecx, 12			; 0000000cH
  0002b	f3 ab		 rep stosd
  0002d	5f		 pop	 edi

; 7    : }

  0002e	8b c6		 mov	 eax, esi
  00030	5e		 pop	 esi
  00031	c3		 ret	 0
??0CRandomOptionProperty@@QAE@XZ ENDP			; CRandomOptionProperty::CRandomOptionProperty
_TEXT	ENDS
PUBLIC	??1CRandomOptionProperty@@UAE@XZ		; CRandomOptionProperty::~CRandomOptionProperty
EXTRN	??_M@YGXPAXIHP6EX0@Z@Z:NEAR			; `eh vector destructor iterator'
; Function compile flags: /Ogty
;	COMDAT ??1CRandomOptionProperty@@UAE@XZ
_TEXT	SEGMENT
??1CRandomOptionProperty@@UAE@XZ PROC NEAR		; CRandomOptionProperty::~CRandomOptionProperty, COMDAT
; _this$ = ecx

; 11   : }

  00000	68 00 00 00 00	 push	 OFFSET FLAT:??1?$vector@U_RANDOM_OPTION@@V?$allocator@U_RANDOM_OPTION@@@std@@@std@@QAE@XZ ; std::vector<_RANDOM_OPTION,std::allocator<_RANDOM_OPTION> >::~vector<_RANDOM_OPTION,std::allocator<_RANDOM_OPTION> >
  00005	6a 07		 push	 7
  00007	c7 01 00 00 00
	00		 mov	 DWORD PTR [ecx], OFFSET FLAT:??_7CRandomOptionProperty@@6B@
  0000d	6a 10		 push	 16			; 00000010H
  0000f	83 c1 34	 add	 ecx, 52			; 00000034H
  00012	51		 push	 ecx
  00013	e8 00 00 00 00	 call	 ??_M@YGXPAXIHP6EX0@Z@Z
  00018	c3		 ret	 0
??1CRandomOptionProperty@@UAE@XZ ENDP			; CRandomOptionProperty::~CRandomOptionProperty
_TEXT	ENDS
PUBLIC	?push_back@?$vector@U_RANDOM_OPTION@@V?$allocator@U_RANDOM_OPTION@@@std@@@std@@QAEXABU_RANDOM_OPTION@@@Z ; std::vector<_RANDOM_OPTION,std::allocator<_RANDOM_OPTION> >::push_back
; Function compile flags: /Ogty
; File c:\program files\microsoft visual studio .net 2003\vc7\include\vector
;	COMDAT ?push_back@?$vector@U_RANDOM_OPTION@@V?$allocator@U_RANDOM_OPTION@@@std@@@std@@QAEXABU_RANDOM_OPTION@@@Z
_TEXT	SEGMENT
__Cat$235369 = 8					; size = 1
$T235334 = 8						; size = 4
__Val$ = 8						; size = 4
?push_back@?$vector@U_RANDOM_OPTION@@V?$allocator@U_RANDOM_OPTION@@@std@@@std@@QAEXABU_RANDOM_OPTION@@@Z PROC NEAR ; std::vector<_RANDOM_OPTION,std::allocator<_RANDOM_OPTION> >::push_back, COMDAT
; _this$ = ecx

; 579  : 		{	// insert element at end

  00000	56		 push	 esi
  00001	8b f1		 mov	 esi, ecx
  00003	57		 push	 edi

; 580  : 		if (size() < capacity())

  00004	8b 7e 04	 mov	 edi, DWORD PTR [esi+4]
  00007	85 ff		 test	 edi, edi
  00009	75 04		 jne	 SHORT $L235340
  0000b	33 c9		 xor	 ecx, ecx
  0000d	eb 16		 jmp	 SHORT $L235341
$L235340:
  0000f	8b 4e 08	 mov	 ecx, DWORD PTR [esi+8]
  00012	2b cf		 sub	 ecx, edi
  00014	b8 ab aa aa 2a	 mov	 eax, 715827883		; 2aaaaaabH
  00019	f7 e9		 imul	 ecx
  0001b	c1 fa 02	 sar	 edx, 2
  0001e	8b ca		 mov	 ecx, edx
  00020	c1 e9 1f	 shr	 ecx, 31			; 0000001fH
  00023	03 ca		 add	 ecx, edx
$L235341:
  00025	85 ff		 test	 edi, edi
  00027	74 3e		 je	 SHORT $L226874
  00029	8b 56 0c	 mov	 edx, DWORD PTR [esi+12]
  0002c	2b d7		 sub	 edx, edi
  0002e	b8 ab aa aa 2a	 mov	 eax, 715827883		; 2aaaaaabH
  00033	f7 ea		 imul	 edx
  00035	c1 fa 02	 sar	 edx, 2
  00038	8b c2		 mov	 eax, edx
  0003a	c1 e8 1f	 shr	 eax, 31			; 0000001fH
  0003d	03 c2		 add	 eax, edx
  0003f	3b c8		 cmp	 ecx, eax
  00041	73 24		 jae	 SHORT $L226874

; 581  : 			_Mylast = _Ufill(_Mylast, 1, _Val);

  00043	8b 44 24 0c	 mov	 eax, DWORD PTR __Cat$235369[esp+4]
  00047	8b 4c 24 0c	 mov	 ecx, DWORD PTR __Val$[esp+4]
  0004b	8b 7e 08	 mov	 edi, DWORD PTR [esi+8]
  0004e	50		 push	 eax
  0004f	56		 push	 esi
  00050	51		 push	 ecx
  00051	6a 01		 push	 1
  00053	57		 push	 edi
  00054	e8 00 00 00 00	 call	 ??$_Uninit_fill_n@PAU_RANDOM_OPTION@@IU1@V?$allocator@U_RANDOM_OPTION@@@std@@@std@@YAXPAU_RANDOM_OPTION@@IABU1@AAV?$allocator@U_RANDOM_OPTION@@@0@U_Nonscalar_ptr_iterator_tag@0@@Z ; std::_Uninit_fill_n<_RANDOM_OPTION *,unsigned int,_RANDOM_OPTION,std::allocator<_RANDOM_OPTION> >
  00059	83 c4 14	 add	 esp, 20			; 00000014H
  0005c	83 c7 18	 add	 edi, 24			; 00000018H
  0005f	89 7e 08	 mov	 DWORD PTR [esi+8], edi
  00062	5f		 pop	 edi
  00063	5e		 pop	 esi

; 584  : 		}

  00064	c2 04 00	 ret	 4
$L226874:

; 582  : 		else
; 583  : 			insert(end(), _Val);

  00067	8b 54 24 0c	 mov	 edx, DWORD PTR __Val$[esp+4]
  0006b	8b 46 08	 mov	 eax, DWORD PTR [esi+8]
  0006e	52		 push	 edx
  0006f	50		 push	 eax
  00070	8d 44 24 14	 lea	 eax, DWORD PTR $T235334[esp+12]
  00074	50		 push	 eax
  00075	8b ce		 mov	 ecx, esi
  00077	e8 00 00 00 00	 call	 ?insert@?$vector@U_RANDOM_OPTION@@V?$allocator@U_RANDOM_OPTION@@@std@@@std@@QAE?AViterator@12@V312@ABU_RANDOM_OPTION@@@Z ; std::vector<_RANDOM_OPTION,std::allocator<_RANDOM_OPTION> >::insert
  0007c	5f		 pop	 edi
  0007d	5e		 pop	 esi

; 584  : 		}

  0007e	c2 04 00	 ret	 4
?push_back@?$vector@U_RANDOM_OPTION@@V?$allocator@U_RANDOM_OPTION@@@std@@@std@@QAEXABU_RANDOM_OPTION@@@Z ENDP ; std::vector<_RANDOM_OPTION,std::allocator<_RANDOM_OPTION> >::push_back
; Function compile flags: /Ogty
_TEXT	ENDS
;	COMDAT ??_GCRandomOptionProperty@@UAEPAXI@Z
_TEXT	SEGMENT
___flags$ = 8						; size = 4
??_GCRandomOptionProperty@@UAEPAXI@Z PROC NEAR		; CRandomOptionProperty::`scalar deleting destructor', COMDAT
; _this$ = ecx
  00000	56		 push	 esi
  00001	8b f1		 mov	 esi, ecx
  00003	e8 00 00 00 00	 call	 ??1CRandomOptionProperty@@UAE@XZ ; CRandomOptionProperty::~CRandomOptionProperty
  00008	f6 44 24 08 01	 test	 BYTE PTR ___flags$[esp], 1
  0000d	74 09		 je	 SHORT $L235391
  0000f	56		 push	 esi
  00010	e8 00 00 00 00	 call	 ??3@YAXPAX@Z		; operator delete
  00015	83 c4 04	 add	 esp, 4
$L235391:
  00018	8b c6		 mov	 eax, esi
  0001a	5e		 pop	 esi
  0001b	c2 04 00	 ret	 4
??_GCRandomOptionProperty@@UAEPAXI@Z ENDP		; CRandomOptionProperty::`scalar deleting destructor'
_TEXT	ENDS
PUBLIC	?GetInstance@CRandomOptionProperty@@SAPAV1@XZ	; CRandomOptionProperty::GetInstance
EXTRN	_atexit:NEAR
;	COMDAT ?sRandomOptionProperty@?1??GetInstance@CRandomOptionProperty@@SAPAV2@XZ@4V2@A
; File c:\documents and settings\test\mes documents\source\virtuos_v17\build\program\_common\randomoption.cpp
_BSS	SEGMENT
?sRandomOptionProperty@?1??GetInstance@CRandomOptionProperty@@SAPAV2@XZ@4V2@A DB 0a4H DUP (?) ; `CRandomOptionProperty::GetInstance'::`2'::sRandomOptionProperty
_BSS	ENDS
;	COMDAT ?$S1@?1??GetInstance@CRandomOptionProperty@@SAPAV2@XZ@4IA
_BSS	SEGMENT
?$S1@?1??GetInstance@CRandomOptionProperty@@SAPAV2@XZ@4IA DD 01H DUP (?) ; `CRandomOptionProperty::GetInstance'::`2'::$S1
_BSS	ENDS
;	COMDAT xdata$x
xdata$x	SEGMENT
$T235404 DD	0ffffffffH
	DD	FLAT:$L235395
$T235401 DD	019930520H
	DD	01H
	DD	FLAT:$T235404
	DD	2 DUP(00H)
	DD	2 DUP(00H)
; Function compile flags: /Ogty
xdata$x	ENDS
;	COMDAT ?GetInstance@CRandomOptionProperty@@SAPAV1@XZ
_TEXT	SEGMENT
__$EHRec$ = -12						; size = 12
?GetInstance@CRandomOptionProperty@@SAPAV1@XZ PROC NEAR	; CRandomOptionProperty::GetInstance, COMDAT

; 14   : {

  00000	64 a1 00 00 00
	00		 mov	 eax, DWORD PTR fs:__except_list

; 15   : 	static	CRandomOptionProperty	sRandomOptionProperty;

  00006	8a 0d 00 00 00
	00		 mov	 cl, BYTE PTR ?$S1@?1??GetInstance@CRandomOptionProperty@@SAPAV2@XZ@4IA
  0000c	6a ff		 push	 -1
  0000e	68 00 00 00 00	 push	 __ehhandler$?GetInstance@CRandomOptionProperty@@SAPAV1@XZ
  00013	50		 push	 eax
  00014	b8 01 00 00 00	 mov	 eax, 1
  00019	84 c8		 test	 cl, al
  0001b	64 89 25 00 00
	00 00		 mov	 DWORD PTR fs:__except_list, esp
  00022	57		 push	 edi
  00023	75 4b		 jne	 SHORT $L235402
  00025	09 05 00 00 00
	00		 or	 DWORD PTR ?$S1@?1??GetInstance@CRandomOptionProperty@@SAPAV2@XZ@4IA, eax
  0002b	68 00 00 00 00	 push	 OFFSET FLAT:??1?$vector@U_RANDOM_OPTION@@V?$allocator@U_RANDOM_OPTION@@@std@@@std@@QAE@XZ ; std::vector<_RANDOM_OPTION,std::allocator<_RANDOM_OPTION> >::~vector<_RANDOM_OPTION,std::allocator<_RANDOM_OPTION> >
  00030	68 00 00 00 00	 push	 OFFSET FLAT:??0?$vector@U_RANDOM_OPTION@@V?$allocator@U_RANDOM_OPTION@@@std@@@std@@QAE@XZ ; std::vector<_RANDOM_OPTION,std::allocator<_RANDOM_OPTION> >::vector<_RANDOM_OPTION,std::allocator<_RANDOM_OPTION> >
  00035	6a 07		 push	 7
  00037	6a 10		 push	 16			; 00000010H
  00039	68 34 00 00 00	 push	 OFFSET FLAT:?sRandomOptionProperty@?1??GetInstance@CRandomOptionProperty@@SAPAV2@XZ@4V2@A+52
  0003e	c7 44 24 20 00
	00 00 00	 mov	 DWORD PTR __$EHRec$[esp+44], 0
  00046	c7 05 00 00 00
	00 00 00 00 00	 mov	 DWORD PTR ?sRandomOptionProperty@?1??GetInstance@CRandomOptionProperty@@SAPAV2@XZ@4V2@A, OFFSET FLAT:??_7CRandomOptionProperty@@6B@
  00050	e8 00 00 00 00	 call	 ??_L@YGXPAXIHP6EX0@Z1@Z
  00055	33 c0		 xor	 eax, eax
  00057	b9 0c 00 00 00	 mov	 ecx, 12			; 0000000cH
  0005c	bf 04 00 00 00	 mov	 edi, OFFSET FLAT:?sRandomOptionProperty@?1??GetInstance@CRandomOptionProperty@@SAPAV2@XZ@4V2@A+4
  00061	68 00 00 00 00	 push	 OFFSET FLAT:_$E2
  00066	f3 ab		 rep stosd
  00068	e8 00 00 00 00	 call	 _atexit
  0006d	83 c4 04	 add	 esp, 4
$L235402:

; 16   : 
; 17   : 	return	&sRandomOptionProperty;
; 18   : }

  00070	8b 4c 24 04	 mov	 ecx, DWORD PTR __$EHRec$[esp+16]
  00074	b8 00 00 00 00	 mov	 eax, OFFSET FLAT:?sRandomOptionProperty@?1??GetInstance@CRandomOptionProperty@@SAPAV2@XZ@4V2@A
  00079	64 89 0d 00 00
	00 00		 mov	 DWORD PTR fs:__except_list, ecx
  00080	5f		 pop	 edi
  00081	83 c4 0c	 add	 esp, 12			; 0000000cH
  00084	c3		 ret	 0
_TEXT	ENDS
;	COMDAT text$x
text$x	SEGMENT
$L235395:
  00000	a1 00 00 00 00	 mov	 eax, DWORD PTR ?$S1@?1??GetInstance@CRandomOptionProperty@@SAPAV2@XZ@4IA
  00005	83 e0 fe	 and	 eax, -2			; fffffffeH
  00008	a3 00 00 00 00	 mov	 DWORD PTR ?$S1@?1??GetInstance@CRandomOptionProperty@@SAPAV2@XZ@4IA, eax
  0000d	c3		 ret	 0
__ehhandler$?GetInstance@CRandomOptionProperty@@SAPAV1@XZ:
  0000e	b8 00 00 00 00	 mov	 eax, OFFSET FLAT:$T235401
  00013	e9 00 00 00 00	 jmp	 ___CxxFrameHandler
text$x	ENDS
?GetInstance@CRandomOptionProperty@@SAPAV1@XZ ENDP	; CRandomOptionProperty::GetInstance
PUBLIC	??_C@_0CH@GDAGBDLK@Awakening?3?5nDst?5?$DN?5?$CFd?0?5dwTotalPro@ ; `string'
PUBLIC	?LoadScriptBlock@CRandomOptionProperty@@QAEXAAVCScript@@H@Z ; CRandomOptionProperty::LoadScriptBlock
EXTRN	?GetNumber@CScanner@@QAEHH@Z:NEAR		; CScanner::GetNumber
;	COMDAT xdata$x
; File c:\program files\microsoft visual studio .net 2003\vc7\include\xmemory
xdata$x	SEGMENT
$T235808 DD	0ffffffffH
	DD	FLAT:$L235411
$T235796 DD	019930520H
	DD	01H
	DD	FLAT:$T235808
	DD	2 DUP(00H)
	DD	2 DUP(00H)
xdata$x	ENDS
;	COMDAT ??_C@_0CH@GDAGBDLK@Awakening?3?5nDst?5?$DN?5?$CFd?0?5dwTotalPro@
CONST	SEGMENT
??_C@_0CH@GDAGBDLK@Awakening?3?5nDst?5?$DN?5?$CFd?0?5dwTotalPro@ DB 'Awak'
	DB	'ening: nDst = %d, dwTotalProb = %d', 00H	; `string'
; Function compile flags: /Ogty
; File c:\documents and settings\test\mes documents\source\virtuos_v17\build\program\_common\randomoption.cpp
CONST	ENDS
;	COMDAT ?LoadScriptBlock@CRandomOptionProperty@@QAEXAAVCScript@@H@Z
_TEXT	SEGMENT
tv319 = -64						; size = 4
_dwTotalProb3$226394 = -64				; size = 4
_nTotalProb2$ = -60					; size = 4
_nAdj$226393 = -56					; size = 2
_this$ = -56						; size = 4
tv393 = -52						; size = 4
__Cat$235701 = -52					; size = 1
$T235410 = -48						; size = 8
_ro$ = -40						; size = 24
__$EHRec$ = -12						; size = 12
_s$ = 8							; size = 4
_nRandomOptionKind$ = 12				; size = 4
?LoadScriptBlock@CRandomOptionProperty@@QAEXAAVCScript@@H@Z PROC NEAR ; CRandomOptionProperty::LoadScriptBlock, COMDAT
; _this$ = ecx

; 21   : {

  00000	55		 push	 ebp
  00001	8b ec		 mov	 ebp, esp
  00003	83 e4 f8	 and	 esp, -8			; fffffff8H
  00006	6a ff		 push	 -1
  00008	68 00 00 00 00	 push	 __ehhandler$?LoadScriptBlock@CRandomOptionProperty@@QAEXAAVCScript@@H@Z
  0000d	64 a1 00 00 00
	00		 mov	 eax, DWORD PTR fs:__except_list
  00013	50		 push	 eax
  00014	64 89 25 00 00
	00 00		 mov	 DWORD PTR fs:__except_list, esp
  0001b	83 ec 38	 sub	 esp, 56			; 00000038H

; 22   : 	int nTotalProb1		= 0;

  0001e	8b 45 0c	 mov	 eax, DWORD PTR _nRandomOptionKind$[ebp]
  00021	53		 push	 ebx
  00022	56		 push	 esi
  00023	8b 75 08	 mov	 esi, DWORD PTR _s$[ebp]
  00026	8d 04 40	 lea	 eax, DWORD PTR [eax+eax*2]
  00029	57		 push	 edi
  0002a	89 4c 24 18	 mov	 DWORD PTR _this$[esp+80], ecx
  0002e	33 ff		 xor	 edi, edi
  00030	8d 5c 81 04	 lea	 ebx, DWORD PTR [ecx+eax*4+4]
  00034	c7 44 24 10 03
	00 00 00	 mov	 DWORD PTR tv319[esp+80], 3
  0003c	8d 64 24 00	 npad	 4
$L226384:

; 23   : 	for( int i = 0; i < 3; i++ )	// 3	//       
; 24   : 	{
; 25   : 		m_anRandomOptionProb[nRandomOptionKind][i]	= s.GetNumber() + nTotalProb1;

  00040	6a 00		 push	 0
  00042	8b ce		 mov	 ecx, esi
  00044	e8 00 00 00 00	 call	 ?GetNumber@CScanner@@QAEHH@Z ; CScanner::GetNumber
  00049	03 c7		 add	 eax, edi
  0004b	89 03		 mov	 DWORD PTR [ebx], eax

; 26   : 		nTotalProb1	= m_anRandomOptionProb[nRandomOptionKind][i];

  0004d	8b f8		 mov	 edi, eax
  0004f	8b 44 24 10	 mov	 eax, DWORD PTR tv319[esp+80]
  00053	83 c3 04	 add	 ebx, 4
  00056	48		 dec	 eax
  00057	89 44 24 10	 mov	 DWORD PTR tv319[esp+80], eax
  0005b	75 e3		 jne	 SHORT $L226384

; 27   : 	}
; 28   : 	s.GetToken();	// {

  0005d	8b 16		 mov	 edx, DWORD PTR [esi]
  0005f	33 ff		 xor	 edi, edi
  00061	57		 push	 edi
  00062	8b ce		 mov	 ecx, esi
  00064	ff 52 14	 call	 DWORD PTR [edx+20]

; 29   : 	int nTotalProb2	= 0;
; 30   : 	RANDOM_OPTION	ro;

  00067	33 c0		 xor	 eax, eax
  00069	33 db		 xor	 ebx, ebx
  0006b	89 7c 24 14	 mov	 DWORD PTR _nTotalProb2$[esp+80], edi
  0006f	89 5c 24 34	 mov	 DWORD PTR _ro$[esp+92], ebx
  00073	89 7c 24 38	 mov	 DWORD PTR _ro$[esp+96], edi
  00077	89 44 24 3c	 mov	 DWORD PTR _ro$[esp+100], eax
  0007b	89 44 24 28	 mov	 DWORD PTR _ro$[esp+80], eax
  0007f	89 44 24 2c	 mov	 DWORD PTR _ro$[esp+84], eax

; 31   : 	ro.nDst		= s.GetNumber();

  00083	50		 push	 eax
  00084	8b ce		 mov	 ecx, esi
  00086	89 44 24 50	 mov	 DWORD PTR __$EHRec$[esp+92], eax
  0008a	e8 00 00 00 00	 call	 ?GetNumber@CScanner@@QAEHH@Z ; CScanner::GetNumber
  0008f	89 44 24 28	 mov	 DWORD PTR _ro$[esp+80], eax

; 32   : 	while( *s.token != '}' )

  00093	8b 46 24	 mov	 eax, DWORD PTR [esi+36]
  00096	80 38 7d	 cmp	 BYTE PTR [eax], 125	; 0000007dH
  00099	0f 84 43 01 00
	00		 je	 $L226391
  0009f	8b 45 0c	 mov	 eax, DWORD PTR _nRandomOptionKind$[ebp]
  000a2	8b 4c 24 18	 mov	 ecx, DWORD PTR _this$[esp+80]
  000a6	c1 e0 04	 shl	 eax, 4
  000a9	8d 54 08 34	 lea	 edx, DWORD PTR [eax+ecx+52]
  000ad	89 54 24 1c	 mov	 DWORD PTR tv393[esp+80], edx
$L226390:

; 33   : 	{
; 34   : 		ASSERT( ro.nDst <= 0xFF );	// 255	// 8
; 35   : 		ro.nProb	= s.GetNumber() + nTotalProb2;

  000b1	6a 00		 push	 0
  000b3	8b ce		 mov	 ecx, esi
  000b5	e8 00 00 00 00	 call	 ?GetNumber@CScanner@@QAEHH@Z ; CScanner::GetNumber
  000ba	03 44 24 14	 add	 eax, DWORD PTR _nTotalProb2$[esp+80]
  000be	89 44 24 2c	 mov	 DWORD PTR _ro$[esp+84], eax

; 36   : 		nTotalProb2		= ro.nProb;

  000c2	89 44 24 14	 mov	 DWORD PTR _nTotalProb2$[esp+80], eax

; 37   : 		s.GetToken();	// {

  000c6	8b 06		 mov	 eax, DWORD PTR [esi]
  000c8	6a 00		 push	 0
  000ca	8b ce		 mov	 ecx, esi
  000cc	ff 50 14	 call	 DWORD PTR [eax+20]

; 38   : 		short	nAdj	= s.GetNumber();

  000cf	6a 00		 push	 0
  000d1	8b ce		 mov	 ecx, esi
  000d3	e8 00 00 00 00	 call	 ?GetNumber@CScanner@@QAEHH@Z ; CScanner::GetNumber

; 39   : 		DWORD dwTotalProb3	= 0;
; 40   : 		while( *s.token != '}' )

  000d8	8b 4e 24	 mov	 ecx, DWORD PTR [esi+36]
  000db	89 44 24 18	 mov	 DWORD PTR _nAdj$226393[esp+80], eax
  000df	80 39 7d	 cmp	 BYTE PTR [ecx], 125	; 0000007dH
  000e2	c7 44 24 10 00
	00 00 00	 mov	 DWORD PTR _dwTotalProb3$226394[esp+80], 0
  000ea	0f 84 98 00 00
	00		 je	 $L235803
$L226396:

; 41   : 		{
; 42   : 			DWORD dwProb	= s.GetNumber() + dwTotalProb3;

  000f0	6a 00		 push	 0
  000f2	8b ce		 mov	 ecx, esi
  000f4	e8 00 00 00 00	 call	 ?GetNumber@CScanner@@QAEHH@Z ; CScanner::GetNumber
  000f9	8b 4c 24 10	 mov	 ecx, DWORD PTR _dwTotalProb3$226394[esp+80]

; 43   : 			dwTotalProb3	= dwProb;
; 44   : 			ASSERT( abs( nAdj ) <= 0x1FF );		// 511	// 1 | 9
; 45   : 			ro.aAdjData.push_back( AdjData( nAdj, dwProb ) );

  000fd	66 8b 54 24 18	 mov	 dx, WORD PTR _nAdj$226393[esp+80]
  00102	03 c1		 add	 eax, ecx
  00104	85 db		 test	 ebx, ebx
  00106	89 44 24 10	 mov	 DWORD PTR _dwTotalProb3$226394[esp+80], eax
  0010a	66 89 54 24 20	 mov	 WORD PTR $T235410[esp+80], dx
  0010f	89 44 24 24	 mov	 DWORD PTR $T235410[esp+84], eax
  00113	74 37		 je	 SHORT $L235744
  00115	8b 4c 24 3c	 mov	 ecx, DWORD PTR _ro$[esp+100]
  00119	8b c7		 mov	 eax, edi
  0011b	2b c3		 sub	 eax, ebx
  0011d	2b cb		 sub	 ecx, ebx
  0011f	c1 f8 03	 sar	 eax, 3
  00122	c1 f9 03	 sar	 ecx, 3
  00125	3b c1		 cmp	 eax, ecx
  00127	73 23		 jae	 SHORT $L235744
  00129	8b 44 24 1c	 mov	 eax, DWORD PTR __Cat$235701[esp+80]
  0012d	50		 push	 eax
  0012e	8d 4c 24 34	 lea	 ecx, DWORD PTR _ro$[esp+92]
  00132	51		 push	 ecx
  00133	8d 54 24 28	 lea	 edx, DWORD PTR $T235410[esp+88]
  00137	52		 push	 edx
  00138	6a 01		 push	 1
  0013a	57		 push	 edi
  0013b	e8 00 00 00 00	 call	 ??$_Uninit_fill_n@PAU_AdjData@@IU1@V?$allocator@U_AdjData@@@std@@@std@@YAXPAU_AdjData@@IABU1@AAV?$allocator@U_AdjData@@@0@U_Nonscalar_ptr_iterator_tag@0@@Z ; std::_Uninit_fill_n<_AdjData *,unsigned int,_AdjData,std::allocator<_AdjData> >
  00140	83 c4 14	 add	 esp, 20			; 00000014H
  00143	83 c7 08	 add	 edi, 8
  00146	89 7c 24 38	 mov	 DWORD PTR _ro$[esp+96], edi
  0014a	eb 19		 jmp	 SHORT $L235739
$L235744:
  0014c	8d 44 24 20	 lea	 eax, DWORD PTR $T235410[esp+80]
  00150	50		 push	 eax
  00151	6a 01		 push	 1
  00153	57		 push	 edi
  00154	8d 4c 24 3c	 lea	 ecx, DWORD PTR _ro$[esp+100]
  00158	e8 00 00 00 00	 call	 ?_Insert_n@?$vector@U_AdjData@@V?$allocator@U_AdjData@@@std@@@std@@IAEXViterator@12@IABU_AdjData@@@Z ; std::vector<_AdjData,std::allocator<_AdjData> >::_Insert_n
  0015d	8b 7c 24 38	 mov	 edi, DWORD PTR _ro$[esp+96]
  00161	8b 5c 24 34	 mov	 ebx, DWORD PTR _ro$[esp+92]
$L235739:

; 46   : 			nAdj	= s.GetNumber();

  00165	6a 00		 push	 0
  00167	8b ce		 mov	 ecx, esi
  00169	e8 00 00 00 00	 call	 ?GetNumber@CScanner@@QAEHH@Z ; CScanner::GetNumber
  0016e	8b 4e 24	 mov	 ecx, DWORD PTR [esi+36]
  00171	89 44 24 18	 mov	 DWORD PTR _nAdj$226393[esp+80], eax
  00175	80 39 7d	 cmp	 BYTE PTR [ecx], 125	; 0000007dH
  00178	0f 85 72 ff ff
	ff		 jne	 $L226396

; 47   : 		}
; 48   : 		if( dwTotalProb3 != 1000000000 )

  0017e	81 7c 24 10 00
	ca 9a 3b	 cmp	 DWORD PTR _dwTotalProb3$226394[esp+80], 1000000000 ; 3b9aca00H
  00186	74 17		 je	 SHORT $L226401
$L235803:

; 49   : 			Error( "Awakening: nDst = %d, dwTotalProb = %d", ro.nDst, dwTotalProb3 );

  00188	8b 54 24 10	 mov	 edx, DWORD PTR _dwTotalProb3$226394[esp+80]
  0018c	8b 44 24 28	 mov	 eax, DWORD PTR _ro$[esp+80]
  00190	52		 push	 edx
  00191	50		 push	 eax
  00192	68 00 00 00 00	 push	 OFFSET FLAT:??_C@_0CH@GDAGBDLK@Awakening?3?5nDst?5?$DN?5?$CFd?0?5dwTotalPro@
  00197	e8 00 00 00 00	 call	 ?Error@@YAPBDPBDZZ	; Error
  0019c	83 c4 0c	 add	 esp, 12			; 0000000cH
$L226401:

; 50   : 		m_aRandomOption[nRandomOptionKind].push_back( ro );

  0019f	8d 4c 24 28	 lea	 ecx, DWORD PTR _ro$[esp+80]
  001a3	51		 push	 ecx
  001a4	8b 4c 24 20	 mov	 ecx, DWORD PTR tv393[esp+84]
  001a8	e8 00 00 00 00	 call	 ?push_back@?$vector@U_RANDOM_OPTION@@V?$allocator@U_RANDOM_OPTION@@@std@@@std@@QAEXABU_RANDOM_OPTION@@@Z ; std::vector<_RANDOM_OPTION,std::allocator<_RANDOM_OPTION> >::push_back

; 51   : 		ro.aAdjData.clear();

  001ad	85 db		 test	 ebx, ebx
  001af	74 09		 je	 SHORT $L235761
  001b1	53		 push	 ebx
  001b2	e8 00 00 00 00	 call	 ??3@YAXPAX@Z		; operator delete
  001b7	83 c4 04	 add	 esp, 4
$L235761:
  001ba	33 ff		 xor	 edi, edi
  001bc	33 db		 xor	 ebx, ebx

; 52   : 		ro.nDst		= s.GetNumber();

  001be	57		 push	 edi
  001bf	8b ce		 mov	 ecx, esi
  001c1	89 5c 24 38	 mov	 DWORD PTR _ro$[esp+96], ebx
  001c5	89 7c 24 3c	 mov	 DWORD PTR _ro$[esp+100], edi
  001c9	89 7c 24 40	 mov	 DWORD PTR _ro$[esp+104], edi
  001cd	e8 00 00 00 00	 call	 ?GetNumber@CScanner@@QAEHH@Z ; CScanner::GetNumber
  001d2	8b 56 24	 mov	 edx, DWORD PTR [esi+36]
  001d5	89 44 24 28	 mov	 DWORD PTR _ro$[esp+80], eax
  001d9	80 3a 7d	 cmp	 BYTE PTR [edx], 125	; 0000007dH
  001dc	0f 85 cf fe ff
	ff		 jne	 $L226390
$L226391:

; 53   : 	}
; 54   : }

  001e2	8b 4c 24 44	 mov	 ecx, DWORD PTR __$EHRec$[esp+80]
  001e6	5f		 pop	 edi
  001e7	5e		 pop	 esi
  001e8	64 89 0d 00 00
	00 00		 mov	 DWORD PTR fs:__except_list, ecx
  001ef	5b		 pop	 ebx
  001f0	8b e5		 mov	 esp, ebp
  001f2	5d		 pop	 ebp
  001f3	c2 08 00	 ret	 8
_TEXT	ENDS
;	COMDAT text$x
text$x	SEGMENT
$L235411:
  00000	8d 4d d8	 lea	 ecx, DWORD PTR _ro$[ebp]
  00003	e9 00 00 00 00	 jmp	 ??1_RANDOM_OPTION@@QAE@XZ
__ehhandler$?LoadScriptBlock@CRandomOptionProperty@@QAEXAAVCScript@@H@Z:
  00008	b8 00 00 00 00	 mov	 eax, OFFSET FLAT:$T235796
  0000d	e9 00 00 00 00	 jmp	 ___CxxFrameHandler
text$x	ENDS
?LoadScriptBlock@CRandomOptionProperty@@QAEXAAVCScript@@H@Z ENDP ; CRandomOptionProperty::LoadScriptBlock
PUBLIC	?MergeRandomOption@CRandomOptionProperty@@QAEHPAVCItemElem@@0H@Z ; CRandomOptionProperty::MergeRandomOption
; Function compile flags: /Ogty
;	COMDAT ?MergeRandomOption@CRandomOptionProperty@@QAEHPAVCItemElem@@0H@Z
_TEXT	SEGMENT
tv160 = -4						; size = 4
tv145 = 8						; size = 4
_pItemElemMain$ = 8					; size = 4
_pItemElemDestroy$ = 12					; size = 4
_nMaxCombinedSize$ = 16					; size = 4
?MergeRandomOption@CRandomOptionProperty@@QAEHPAVCItemElem@@0H@Z PROC NEAR ; CRandomOptionProperty::MergeRandomOption, COMDAT
; _this$ = ecx

; 412  : {

  00000	51		 push	 ecx

; 413  : 	int nMainSize = g_xRandomOptionProperty->GetRandomOptionSize( pItemElemMain->GetRandomOptItemId() );

  00001	8b 4c 24 08	 mov	 ecx, DWORD PTR _pItemElemMain$[esp]
  00005	8b 81 98 00 00
	00		 mov	 eax, DWORD PTR [ecx+152]
  0000b	81 c1 98 00 00
	00		 add	 ecx, 152		; 00000098H
  00011	55		 push	 ebp
  00012	89 4c 24 04	 mov	 DWORD PTR tv160[esp+8], ecx
  00016	8b 49 04	 mov	 ecx, DWORD PTR [ecx+4]
  00019	56		 push	 esi
  0001a	51		 push	 ecx
  0001b	50		 push	 eax
  0001c	e8 00 00 00 00	 call	 ?GetInstance@CRandomOptionProperty@@SAPAV1@XZ ; CRandomOptionProperty::GetInstance
  00021	8b c8		 mov	 ecx, eax
  00023	e8 00 00 00 00	 call	 ?GetRandomOptionSize@CRandomOptionProperty@@QAEH_J@Z ; CRandomOptionProperty::GetRandomOptionSize

; 414  : 	int nDestroySize = g_xRandomOptionProperty->GetRandomOptionSize( pItemElemDestroy->GetRandomOptItemId() );

  00028	8b 6c 24 14	 mov	 ebp, DWORD PTR _pItemElemDestroy$[esp+8]
  0002c	8b 8d 9c 00 00
	00		 mov	 ecx, DWORD PTR [ebp+156]
  00032	8b f0		 mov	 esi, eax
  00034	8b 85 98 00 00
	00		 mov	 eax, DWORD PTR [ebp+152]
  0003a	51		 push	 ecx
  0003b	50		 push	 eax
  0003c	e8 00 00 00 00	 call	 ?GetInstance@CRandomOptionProperty@@SAPAV1@XZ ; CRandomOptionProperty::GetInstance
  00041	8b c8		 mov	 ecx, eax
  00043	e8 00 00 00 00	 call	 ?GetRandomOptionSize@CRandomOptionProperty@@QAEH_J@Z ; CRandomOptionProperty::GetRandomOptionSize

; 415  : 
; 416  : 	if( nMainSize + nDestroySize > nMaxCombinedSize )

  00048	8b 54 24 18	 mov	 edx, DWORD PTR _nMaxCombinedSize$[esp+8]
  0004c	8d 0c 30	 lea	 ecx, DWORD PTR [eax+esi]
  0004f	3b ca		 cmp	 ecx, edx
  00051	7e 0b		 jle	 SHORT $L226602
  00053	5e		 pop	 esi

; 417  : 		return 1;

  00054	b8 01 00 00 00	 mov	 eax, 1
  00059	5d		 pop	 ebp

; 426  : }

  0005a	59		 pop	 ecx
  0005b	c2 0c 00	 ret	 12			; 0000000cH
$L226602:

; 418  : 
; 419  : 	for( int i = 0; i < nDestroySize; i++ )

  0005e	85 c0		 test	 eax, eax
  00060	7e 75		 jle	 SHORT $L226606
  00062	53		 push	 ebx
  00063	57		 push	 edi
  00064	bb 08 00 00 00	 mov	 ebx, 8
  00069	89 44 24 18	 mov	 DWORD PTR tv145[esp+16], eax
  0006d	8d 49 00	 npad	 3
$L226604:

; 420  : 	{
; 421  : 		int nDst, nAdj;
; 422  : 		if( g_xRandomOptionProperty->GetParam( pItemElemDestroy->GetRandomOptItemId(), i, &nDst, &nAdj ) )

  00070	8b b5 98 00 00
	00		 mov	 esi, DWORD PTR [ebp+152]
  00076	8b bd 9c 00 00
	00		 mov	 edi, DWORD PTR [ebp+156]
  0007c	e8 00 00 00 00	 call	 ?GetInstance@CRandomOptionProperty@@SAPAV1@XZ ; CRandomOptionProperty::GetInstance
  00081	83 fb 3e	 cmp	 ebx, 62			; 0000003eH
  00084	7d 41		 jge	 SHORT $L226605
  00086	8b c6		 mov	 eax, esi
  00088	8b d7		 mov	 edx, edi
  0008a	8b cb		 mov	 ecx, ebx
  0008c	e8 00 00 00 00	 call	 __allshr
  00091	8b c8		 mov	 ecx, eax
  00093	81 e1 ff 01 00
	00		 and	 ecx, 511		; 000001ffH
  00099	f6 c4 02	 test	 ah, 2
  0009c	74 02		 je	 SHORT $L235829
  0009e	f7 d9		 neg	 ecx
$L235829:
  000a0	c1 f8 0a	 sar	 eax, 10			; 0000000aH
  000a3	83 e0 7f	 and	 eax, 127		; 0000007fH
  000a6	ba 00 00 00 00	 mov	 edx, 0
  000ab	0f 9f c2	 setg	 dl
  000ae	8b f0		 mov	 esi, eax
  000b0	85 d2		 test	 edx, edx
  000b2	74 13		 je	 SHORT $L226605

; 423  : 			g_xRandomOptionProperty->SetParam( pItemElemMain->GetRandomOptItemIdPtr(), nDst, nAdj );

  000b4	8b 54 24 10	 mov	 edx, DWORD PTR tv160[esp+20]
  000b8	51		 push	 ecx
  000b9	56		 push	 esi
  000ba	52		 push	 edx
  000bb	e8 00 00 00 00	 call	 ?GetInstance@CRandomOptionProperty@@SAPAV1@XZ ; CRandomOptionProperty::GetInstance
  000c0	8b c8		 mov	 ecx, eax
  000c2	e8 00 00 00 00	 call	 ?SetParam@CRandomOptionProperty@@QAEXPA_JHH@Z ; CRandomOptionProperty::SetParam
$L226605:
  000c7	8b 44 24 18	 mov	 eax, DWORD PTR tv145[esp+16]
  000cb	83 c3 12	 add	 ebx, 18			; 00000012H
  000ce	48		 dec	 eax
  000cf	89 44 24 18	 mov	 DWORD PTR tv145[esp+16], eax
  000d3	75 9b		 jne	 SHORT $L226604
  000d5	5f		 pop	 edi
  000d6	5b		 pop	 ebx
$L226606:
  000d7	5e		 pop	 esi

; 424  : 	}
; 425  : 	return 0;

  000d8	33 c0		 xor	 eax, eax
  000da	5d		 pop	 ebp

; 426  : }

  000db	59		 pop	 ecx
  000dc	c2 0c 00	 ret	 12			; 0000000cH
?MergeRandomOption@CRandomOptionProperty@@QAEHPAVCItemElem@@0H@Z ENDP ; CRandomOptionProperty::MergeRandomOption
_TEXT	ENDS
PUBLIC	?AwakeningExtension@CRandomOptionProperty@@AAEXXZ ; CRandomOptionProperty::AwakeningExtension
;	COMDAT xdata$x
; File c:\program files\microsoft visual studio .net 2003\vc7\include\xmemory
xdata$x	SEGMENT
$T236588 DD	0ffffffffH
	DD	FLAT:$L236081
	DD	0ffffffffH
	DD	FLAT:$L235843
$T236576 DD	019930520H
	DD	02H
	DD	FLAT:$T236588
	DD	2 DUP(00H)
	DD	2 DUP(00H)
; Function compile flags: /Ogty
; File c:\documents and settings\test\mes documents\source\virtuos_v17\build\program\_common\randomoption.cpp
xdata$x	ENDS
;	COMDAT ?AwakeningExtension@CRandomOptionProperty@@AAEXXZ
_TEXT	SEGMENT
$T236540 = -152						; size = 1
_this$ = -152						; size = 4
_i$226617 = -148					; size = 4
tv684 = -144						; size = 4
tv220 = -140						; size = 4
_iRandomOptionKindIndex$226627 = -136			; size = 4
tv168 = -132						; size = 4
_nProb$226622 = -128					; size = 4
tv664 = -124						; size = 4
_ro$226633 = -120					; size = 24
_anTotal$ = -96						; size = 12
_anDst$ = -84						; size = 72
__$EHRec$ = -12						; size = 12
?AwakeningExtension@CRandomOptionProperty@@AAEXXZ PROC NEAR ; CRandomOptionProperty::AwakeningExtension, COMDAT
; _this$ = ecx

; 431  : {

  00000	6a ff		 push	 -1
  00002	68 00 00 00 00	 push	 __ehhandler$?AwakeningExtension@CRandomOptionProperty@@AAEXXZ
  00007	64 a1 00 00 00
	00		 mov	 eax, DWORD PTR fs:__except_list
  0000d	50		 push	 eax
  0000e	64 89 25 00 00
	00 00		 mov	 DWORD PTR fs:__except_list, esp
  00015	81 ec 8c 00 00
	00		 sub	 esp, 140		; 0000008cH

; 432  : 	int	anDst[eAwakeningExtension][6]	= {		//      
; 433  : 		DST_CHR_CHANCECRITICAL, DST_ATKPOWER, DST_SPELL_RATE, DST_ATTACKSPEED, DST_MP_MAX, DST_FP_MAX,

  0001b	b8 25 00 00 00	 mov	 eax, 37			; 00000025H
  00020	53		 push	 ebx
  00021	89 44 24 5c	 mov	 DWORD PTR _anDst$[esp+176], eax

; 434  : 		DST_CRITICAL_BONUS, DST_SPEED, DST_ADJDEF, DST_HP_MAX, DST_MP_MAX, DST_FP_MAX,

  00025	89 44 24 74	 mov	 DWORD PTR _anDst$[esp+200], eax

; 435  : 		DST_STR, DST_DEX, DST_INT, DST_STA, DST_MP_MAX, DST_FP_MAX	};

  00029	89 84 24 8c 00
	00 00		 mov	 DWORD PTR _anDst$[esp+224], eax

; 436  : 	int anTotal[eAwakeningExtension];
; 437  : 	memset( anTotal, 0, sizeof(int) * eAwakeningExtension );

  00030	33 c0		 xor	 eax, eax
  00032	55		 push	 ebp
  00033	ba 24 00 00 00	 mov	 edx, 36			; 00000024H
  00038	89 44 24 40	 mov	 DWORD PTR _anTotal$[esp+160], eax

; 438  : 
; 439  : 	//        
; 440  : 	//     
; 441  : 	for( DWORD i = 0; i < m_aRandomOption[eAwakening].size(); i++ )

  0003c	33 ed		 xor	 ebp, ebp
  0003e	56		 push	 esi
  0003f	89 44 24 48	 mov	 DWORD PTR _anTotal$[esp+168], eax
  00043	33 db		 xor	 ebx, ebx
  00045	57		 push	 edi
  00046	89 4c 24 10	 mov	 DWORD PTR _this$[esp+168], ecx
  0004a	c7 44 24 54 09
	00 00 00	 mov	 DWORD PTR _anDst$[esp+168], 9
  00052	c7 44 24 58 53
	00 00 00	 mov	 DWORD PTR _anDst$[esp+172], 83 ; 00000053H
  0005a	c7 44 24 5c 4b
	00 00 00	 mov	 DWORD PTR _anDst$[esp+176], 75 ; 0000004bH
  00062	c7 44 24 60 18
	00 00 00	 mov	 DWORD PTR _anDst$[esp+180], 24 ; 00000018H
  0006a	89 54 24 64	 mov	 DWORD PTR _anDst$[esp+184], edx
  0006e	c7 44 24 6c 4d
	00 00 00	 mov	 DWORD PTR _anDst$[esp+192], 77 ; 0000004dH
  00076	c7 44 24 70 0b
	00 00 00	 mov	 DWORD PTR _anDst$[esp+196], 11 ; 0000000bH
  0007e	c7 44 24 74 1a
	00 00 00	 mov	 DWORD PTR _anDst$[esp+200], 26 ; 0000001aH
  00086	c7 44 24 78 23
	00 00 00	 mov	 DWORD PTR _anDst$[esp+204], 35 ; 00000023H
  0008e	89 54 24 7c	 mov	 DWORD PTR _anDst$[esp+208], edx
  00092	c7 84 24 84 00
	00 00 01 00 00
	00		 mov	 DWORD PTR _anDst$[esp+216], 1
  0009d	c7 84 24 88 00
	00 00 02 00 00
	00		 mov	 DWORD PTR _anDst$[esp+220], 2
  000a8	c7 84 24 8c 00
	00 00 03 00 00
	00		 mov	 DWORD PTR _anDst$[esp+224], 3
  000b3	c7 84 24 90 00
	00 00 04 00 00
	00		 mov	 DWORD PTR _anDst$[esp+228], 4
  000be	89 94 24 94 00
	00 00		 mov	 DWORD PTR _anDst$[esp+232], edx
  000c5	89 44 24 50	 mov	 DWORD PTR _anTotal$[esp+176], eax
  000c9	89 5c 24 14	 mov	 DWORD PTR _i$226617[esp+168], ebx
  000cd	8d 49 00	 npad	 3
$L226618:
  000d0	8b 41 38	 mov	 eax, DWORD PTR [ecx+56]
  000d3	3b c5		 cmp	 eax, ebp
  000d5	0f 84 6e 01 00
	00		 je	 $L236584
  000db	8b 51 3c	 mov	 edx, DWORD PTR [ecx+60]
  000de	2b d0		 sub	 edx, eax
  000e0	b8 ab aa aa 2a	 mov	 eax, 715827883		; 2aaaaaabH
  000e5	f7 ea		 imul	 edx
  000e7	c1 fa 02	 sar	 edx, 2
  000ea	8b c2		 mov	 eax, edx
  000ec	c1 e8 1f	 shr	 eax, 31			; 0000001fH
  000ef	03 c2		 add	 eax, edx
  000f1	3b d8		 cmp	 ebx, eax
  000f3	0f 83 50 01 00
	00		 jae	 $L236584

; 442  : 	{
; 443  : 		RANDOM_OPTION* pRandomOption	= &m_aRandomOption[eAwakening][i];

  000f9	8b 79 38	 mov	 edi, DWORD PTR [ecx+56]
  000fc	8d 34 5b	 lea	 esi, DWORD PTR [ebx+ebx*2]
  000ff	c1 e6 03	 shl	 esi, 3

; 444  : 		int nProb	= ( i == 0?
; 445  : 			m_aRandomOption[eAwakening][i].nProb:
; 446  : 			m_aRandomOption[eAwakening][i].nProb - m_aRandomOption[eAwakening][i-1].nProb );

  00102	3b dd		 cmp	 ebx, ebp
  00104	75 09		 jne	 SHORT $L235841
  00106	8b 4f 04	 mov	 ecx, DWORD PTR [edi+4]
  00109	89 4c 24 28	 mov	 DWORD PTR _nProb$226622[esp+168], ecx
  0010d	eb 0c		 jmp	 SHORT $L235842
$L235841:
  0010f	8b 44 3e 04	 mov	 eax, DWORD PTR [esi+edi+4]
  00113	2b 44 3e ec	 sub	 eax, DWORD PTR [esi+edi-20]
  00117	89 44 24 28	 mov	 DWORD PTR _nProb$226622[esp+168], eax
$L235842:

; 447  : 
; 448  : 		for( int j = 0; j < eAwakeningExtension; j++ )

  0011b	ba 04 00 00 00	 mov	 edx, 4
  00120	89 54 24 18	 mov	 DWORD PTR tv684[esp+168], edx
  00124	8d 5c 24 48	 lea	 ebx, DWORD PTR _anTotal$[esp+168]
  00128	8d 4c 24 54	 lea	 ecx, DWORD PTR _anDst$[esp+168]
  0012c	c7 44 24 1c 03
	00 00 00	 mov	 DWORD PTR tv220[esp+168], 3
$L236585:

; 449  : 		{
; 450  : 			int iRandomOptionKindIndex	= GetRandomOptionKindIndex( eAwakening, PARTS_HAND + j );

  00134	83 fa 04	 cmp	 edx, 4
  00137	74 0e		 je	 SHORT $L236586
  00139	83 fa 05	 cmp	 edx, 5
  0013c	74 09		 je	 SHORT $L236586
  0013e	83 fa 06	 cmp	 edx, 6
  00141	89 6c 24 20	 mov	 DWORD PTR _iRandomOptionKindIndex$226627[esp+168], ebp
  00145	75 04		 jne	 SHORT $L236073
$L236586:
  00147	89 54 24 20	 mov	 DWORD PTR _iRandomOptionKindIndex$226627[esp+168], edx
$L236073:

; 451  : 			for( int k = 0; k < 6; k++ )

  0014b	89 4c 24 2c	 mov	 DWORD PTR tv664[esp+168], ecx
  0014f	c7 44 24 24 06
	00 00 00	 mov	 DWORD PTR tv168[esp+168], 6
  00157	eb 07 8d a4 24
	00 00 00 00	 npad	 9
$L226629:

; 452  : 				if( pRandomOption->nDst == anDst[j][k] )

  00160	8b 04 3e	 mov	 eax, DWORD PTR [esi+edi]
  00163	3b 01		 cmp	 eax, DWORD PTR [ecx]
  00165	0f 85 9d 00 00
	00		 jne	 $L226630

; 453  : 				{
; 454  : 					RANDOM_OPTION ro( pRandomOption );

  0016b	89 6c 24 3c	 mov	 DWORD PTR _ro$226633[esp+180], ebp
  0016f	89 6c 24 40	 mov	 DWORD PTR _ro$226633[esp+184], ebp
  00173	89 6c 24 44	 mov	 DWORD PTR _ro$226633[esp+188], ebp
  00177	8b 54 3e 04	 mov	 edx, DWORD PTR [esi+edi+4]
  0017b	8b 4c 3e 0c	 mov	 ecx, DWORD PTR [esi+edi+12]
  0017f	89 ac 24 a4 00
	00 00		 mov	 DWORD PTR __$EHRec$[esp+176], ebp
  00186	ff 74 24 10	 push	 DWORD PTR $T236540[esp+168]
  0018a	89 44 24 34	 mov	 DWORD PTR _ro$226633[esp+172], eax
  0018e	8b 44 3e 10	 mov	 eax, DWORD PTR [esi+edi+16]
  00192	50		 push	 eax
  00193	89 54 24 3c	 mov	 DWORD PTR _ro$226633[esp+180], edx
  00197	51		 push	 ecx
  00198	33 d2		 xor	 edx, edx
  0019a	52		 push	 edx
  0019b	8d 4c 24 48	 lea	 ecx, DWORD PTR _ro$226633[esp+192]
  0019f	e8 00 00 00 00	 call	 ??$_Insert@Viterator@?$vector@U_AdjData@@V?$allocator@U_AdjData@@@std@@@std@@@?$vector@U_AdjData@@V?$allocator@U_AdjData@@@std@@@std@@QAEXViterator@01@00Uforward_iterator_tag@1@@Z ; std::vector<_AdjData,std::allocator<_AdjData> >::_Insert<std::vector<_AdjData,std::allocator<_AdjData> >::iterator>

; 455  : 					ro.nProb	= anTotal[j] + nProb;

  001a4	8b 03		 mov	 eax, DWORD PTR [ebx]
  001a6	8b 4c 24 28	 mov	 ecx, DWORD PTR _nProb$226622[esp+168]

; 456  : 					anTotal[j]	= ro.nProb;
; 457  : 					m_aRandomOption[iRandomOptionKindIndex].push_back( ro );

  001aa	8b 54 24 10	 mov	 edx, DWORD PTR _this$[esp+168]
  001ae	03 c1		 add	 eax, ecx
  001b0	8b 4c 24 20	 mov	 ecx, DWORD PTR _iRandomOptionKindIndex$226627[esp+168]
  001b4	89 44 24 34	 mov	 DWORD PTR _ro$226633[esp+172], eax
  001b8	89 03		 mov	 DWORD PTR [ebx], eax
  001ba	8d 44 24 30	 lea	 eax, DWORD PTR _ro$226633[esp+168]
  001be	c1 e1 04	 shl	 ecx, 4
  001c1	50		 push	 eax
  001c2	8d 4c 11 34	 lea	 ecx, DWORD PTR [ecx+edx+52]
  001c6	c7 84 24 a8 00
	00 00 01 00 00
	00		 mov	 DWORD PTR __$EHRec$[esp+180], 1
  001d1	e8 00 00 00 00	 call	 ?push_back@?$vector@U_RANDOM_OPTION@@V?$allocator@U_RANDOM_OPTION@@@std@@@std@@QAEXABU_RANDOM_OPTION@@@Z ; std::vector<_RANDOM_OPTION,std::allocator<_RANDOM_OPTION> >::push_back

; 458  : 				}

  001d6	8b 44 24 3c	 mov	 eax, DWORD PTR _ro$226633[esp+180]
  001da	33 ed		 xor	 ebp, ebp
  001dc	3b c5		 cmp	 eax, ebp
  001de	c7 84 24 a4 00
	00 00 ff ff ff
	ff		 mov	 DWORD PTR __$EHRec$[esp+176], -1
  001e9	74 09		 je	 SHORT $L236570
  001eb	50		 push	 eax
  001ec	e8 00 00 00 00	 call	 ??3@YAXPAX@Z		; operator delete
  001f1	83 c4 04	 add	 esp, 4
$L236570:
  001f4	8b 54 24 18	 mov	 edx, DWORD PTR tv684[esp+168]
  001f8	8b 4c 24 2c	 mov	 ecx, DWORD PTR tv664[esp+168]
  001fc	89 6c 24 3c	 mov	 DWORD PTR _ro$226633[esp+180], ebp
  00200	89 6c 24 40	 mov	 DWORD PTR _ro$226633[esp+184], ebp
  00204	89 6c 24 44	 mov	 DWORD PTR _ro$226633[esp+188], ebp
$L226630:
  00208	8b 44 24 24	 mov	 eax, DWORD PTR tv168[esp+168]
  0020c	83 c1 04	 add	 ecx, 4
  0020f	48		 dec	 eax
  00210	89 4c 24 2c	 mov	 DWORD PTR tv664[esp+168], ecx
  00214	89 44 24 24	 mov	 DWORD PTR tv168[esp+168], eax
  00218	0f 85 42 ff ff
	ff		 jne	 $L226629
  0021e	8b 44 24 1c	 mov	 eax, DWORD PTR tv220[esp+168]
  00222	42		 inc	 edx
  00223	83 c3 04	 add	 ebx, 4
  00226	48		 dec	 eax
  00227	89 54 24 18	 mov	 DWORD PTR tv684[esp+168], edx
  0022b	89 44 24 1c	 mov	 DWORD PTR tv220[esp+168], eax
  0022f	0f 85 ff fe ff
	ff		 jne	 $L236585
  00235	8b 44 24 14	 mov	 eax, DWORD PTR _i$226617[esp+168]
  00239	8b 4c 24 10	 mov	 ecx, DWORD PTR _this$[esp+168]
  0023d	40		 inc	 eax
  0023e	89 44 24 14	 mov	 DWORD PTR _i$226617[esp+168], eax
  00242	8b d8		 mov	 ebx, eax
  00244	e9 87 fe ff ff	 jmp	 $L226618
$L236584:

; 459  : 		}
; 460  : 	}
; 461  : }

  00249	8b 8c 24 9c 00
	00 00		 mov	 ecx, DWORD PTR __$EHRec$[esp+168]
  00250	5f		 pop	 edi
  00251	5e		 pop	 esi
  00252	5d		 pop	 ebp
  00253	5b		 pop	 ebx
  00254	64 89 0d 00 00
	00 00		 mov	 DWORD PTR fs:__except_list, ecx
  0025b	81 c4 98 00 00
	00		 add	 esp, 152		; 00000098H
  00261	c3		 ret	 0
_TEXT	ENDS
;	COMDAT text$x
text$x	SEGMENT
$L236081:
  00000	8d 4d 90	 lea	 ecx, DWORD PTR _ro$226633[ebp+8]
  00003	e9 00 00 00 00	 jmp	 ??1?$vector@U_AdjData@@V?$allocator@U_AdjData@@@std@@@std@@QAE@XZ ; std::vector<_AdjData,std::allocator<_AdjData> >::~vector<_AdjData,std::allocator<_AdjData> >
$L235843:
  00008	8d 4d 88	 lea	 ecx, DWORD PTR _ro$226633[ebp]
  0000b	e9 00 00 00 00	 jmp	 ??1_RANDOM_OPTION@@QAE@XZ
__ehhandler$?AwakeningExtension@CRandomOptionProperty@@AAEXXZ:
  00010	b8 00 00 00 00	 mov	 eax, OFFSET FLAT:$T236576
  00015	e9 00 00 00 00	 jmp	 ___CxxFrameHandler
text$x	ENDS
?AwakeningExtension@CRandomOptionProperty@@AAEXXZ ENDP	; CRandomOptionProperty::AwakeningExtension
PUBLIC	??_C@_09DMNPBJDH@Awakening?$AA@			; `string'
PUBLIC	??_C@_08KKEHFANF@Blessing?$AA@			; `string'
PUBLIC	??_C@_09NPHHCKIJ@SystemPet?$AA@			; `string'
PUBLIC	??_C@_06HFBIFKDE@EatPet?$AA@			; `string'
PUBLIC	?LoadScript@CRandomOptionProperty@@QAEHPBD@Z	; CRandomOptionProperty::LoadScript
EXTRN	___security_cookie:DWORD
EXTRN	@__security_check_cookie@4:NEAR
EXTRN	??0CScript@@QAE@H@Z:NEAR			; CScript::CScript
EXTRN	??1CScript@@UAE@XZ:NEAR				; CScript::~CScript
EXTRN	?Load@CScript@@QAEHPBDHH@Z:NEAR			; CScript::Load
EXTRN	?GetToken@CScript@@UAEHH@Z:NEAR			; CScript::GetToken
;	COMDAT xdata$x
; File c:\program files\microsoft visual studio .net 2003\vc7\atlmfc\include\cstringt.h
xdata$x	SEGMENT
$T236702 DD	0ffffffffH
	DD	FLAT:$L236597
$T236693 DD	019930520H
	DD	01H
	DD	FLAT:$T236702
	DD	2 DUP(00H)
	DD	2 DUP(00H)
xdata$x	ENDS
;	COMDAT ??_C@_09DMNPBJDH@Awakening?$AA@
CONST	SEGMENT
??_C@_09DMNPBJDH@Awakening?$AA@ DB 'Awakening', 00H	; `string'
CONST	ENDS
;	COMDAT ??_C@_08KKEHFANF@Blessing?$AA@
CONST	SEGMENT
??_C@_08KKEHFANF@Blessing?$AA@ DB 'Blessing', 00H	; `string'
CONST	ENDS
;	COMDAT ??_C@_09NPHHCKIJ@SystemPet?$AA@
CONST	SEGMENT
??_C@_09NPHHCKIJ@SystemPet?$AA@ DB 'SystemPet', 00H	; `string'
CONST	ENDS
;	COMDAT ??_C@_06HFBIFKDE@EatPet?$AA@
CONST	SEGMENT
??_C@_06HFBIFKDE@EatPet?$AA@ DB 'EatPet', 00H		; `string'
; Function compile flags: /Ogty
; File c:\documents and settings\test\mes documents\source\virtuos_v17\build\program\_common\randomoption.cpp
CONST	ENDS
;	COMDAT ?LoadScript@CRandomOptionProperty@@QAEHPBD@Z
_TEXT	SEGMENT
_s$ = -3552						; size = 3536
__$ArrayPad$ = -16					; size = 4
__$EHRec$ = -12						; size = 12
__$ReturnAddr$ = 4					; size = 4
_szFile$ = 8						; size = 4
?LoadScript@CRandomOptionProperty@@QAEHPBD@Z PROC NEAR	; CRandomOptionProperty::LoadScript, COMDAT
; _this$ = ecx

; 57   : {

  00000	6a ff		 push	 -1
  00002	68 00 00 00 00	 push	 __ehhandler$?LoadScript@CRandomOptionProperty@@QAEHPBD@Z
  00007	64 a1 00 00 00
	00		 mov	 eax, DWORD PTR fs:__except_list
  0000d	50		 push	 eax
  0000e	64 89 25 00 00
	00 00		 mov	 DWORD PTR fs:__except_list, esp
  00015	81 ec d4 0d 00
	00		 sub	 esp, 3540		; 00000dd4H
  0001b	a1 00 00 00 00	 mov	 eax, DWORD PTR ___security_cookie
  00020	33 c4		 xor	 eax, esp
  00022	56		 push	 esi
  00023	57		 push	 edi
  00024	8b bc 24 ec 0d
	00 00		 mov	 edi, DWORD PTR _szFile$[esp+3556]
  0002b	8b f1		 mov	 esi, ecx

; 58   : 	CScript s;

  0002d	6a 00		 push	 0
  0002f	8d 4c 24 0c	 lea	 ecx, DWORD PTR _s$[esp+3564]
  00033	89 84 24 dc 0d
	00 00		 mov	 DWORD PTR __$ArrayPad$[esp+3564], eax
  0003a	e8 00 00 00 00	 call	 ??0CScript@@QAE@H@Z	; CScript::CScript

; 59   : 	if( s.Load( szFile ) == FALSE )

  0003f	6a 00		 push	 0
  00041	6a 01		 push	 1
  00043	57		 push	 edi
  00044	8d 4c 24 14	 lea	 ecx, DWORD PTR _s$[esp+3572]
  00048	c7 84 24 f0 0d
	00 00 00 00 00
	00		 mov	 DWORD PTR __$EHRec$[esp+3580], 0
  00053	e8 00 00 00 00	 call	 ?Load@CScript@@QAEHPBDHH@Z ; CScript::Load
  00058	85 c0		 test	 eax, eax

; 60   : 		return FALSE;

  0005a	8d 4c 24 08	 lea	 ecx, DWORD PTR _s$[esp+3560]
  0005e	75 17		 jne	 SHORT $L226410
  00060	c7 84 24 e4 0d
	00 00 ff ff ff
	ff		 mov	 DWORD PTR __$EHRec$[esp+3568], -1
  0006b	e8 00 00 00 00	 call	 ??1CScript@@UAE@XZ	; CScript::~CScript
  00070	33 c0		 xor	 eax, eax
  00072	e9 ce 00 00 00	 jmp	 $L226408
$L226410:

; 61   : 
; 62   : 	s.GetToken();	// subject or FINISHED

  00077	6a 00		 push	 0
  00079	e8 00 00 00 00	 call	 ?GetToken@CScript@@UAEHH@Z ; CScript::GetToken

; 63   : 	while( s.tok != FINISHED )

  0007e	8b 84 24 34 08
	00 00		 mov	 eax, DWORD PTR _s$[esp+5652]
  00085	bf 15 00 00 00	 mov	 edi, 21			; 00000015H
  0008a	3b c7		 cmp	 eax, edi
  0008c	0f 84 93 00 00
	00		 je	 $L226414
$L226413:

; 64   : 	{
; 65   : 		if( s.Token == _T( "Awakening" ) )

  00092	8b 44 24 28	 mov	 eax, DWORD PTR _s$[esp+3592]
  00096	68 00 00 00 00	 push	 OFFSET FLAT:??_C@_09DMNPBJDH@Awakening?$AA@
  0009b	50		 push	 eax
  0009c	e8 00 00 00 00	 call	 __mbscmp
  000a1	83 c4 08	 add	 esp, 8
  000a4	85 c0		 test	 eax, eax
  000a6	75 03		 jne	 SHORT $L226415

; 66   : 			LoadScriptBlock( s, eAwakening );

  000a8	50		 push	 eax

; 67   : 		else if( s.Token == _T( "Blessing" ) )

  000a9	eb 56		 jmp	 SHORT $L236700
$L226415:
  000ab	8b 54 24 28	 mov	 edx, DWORD PTR _s$[esp+3592]
  000af	68 00 00 00 00	 push	 OFFSET FLAT:??_C@_08KKEHFANF@Blessing?$AA@
  000b4	52		 push	 edx
  000b5	e8 00 00 00 00	 call	 __mbscmp
  000ba	83 c4 08	 add	 esp, 8
  000bd	85 c0		 test	 eax, eax
  000bf	75 09		 jne	 SHORT $L226418

; 68   : 			LoadScriptBlock( s, eBlessing );

  000c1	6a 01		 push	 1
  000c3	8d 44 24 0c	 lea	 eax, DWORD PTR _s$[esp+3564]
  000c7	50		 push	 eax

; 69   : #if __VER >= 12 // __PET_0519
; 70   : 		//      
; 71   : 		else if( s.Token == _T( "SystemPet" ) )

  000c8	eb 3c		 jmp	 SHORT $L236701
$L226418:
  000ca	8b 4c 24 28	 mov	 ecx, DWORD PTR _s$[esp+3592]
  000ce	68 00 00 00 00	 push	 OFFSET FLAT:??_C@_09NPHHCKIJ@SystemPet?$AA@
  000d3	51		 push	 ecx
  000d4	e8 00 00 00 00	 call	 __mbscmp
  000d9	83 c4 08	 add	 esp, 8
  000dc	85 c0		 test	 eax, eax
  000de	75 09		 jne	 SHORT $L226421

; 72   : 			LoadScriptBlock( s, eSystemPet );

  000e0	6a 02		 push	 2
  000e2	8d 54 24 0c	 lea	 edx, DWORD PTR _s$[esp+3564]
  000e6	52		 push	 edx

; 73   : 		else if( s.Token == _T( "EatPet" ) )

  000e7	eb 1d		 jmp	 SHORT $L236701
$L226421:
  000e9	8b 44 24 28	 mov	 eax, DWORD PTR _s$[esp+3592]
  000ed	68 00 00 00 00	 push	 OFFSET FLAT:??_C@_06HFBIFKDE@EatPet?$AA@
  000f2	50		 push	 eax
  000f3	e8 00 00 00 00	 call	 __mbscmp
  000f8	83 c4 08	 add	 esp, 8
  000fb	85 c0		 test	 eax, eax
  000fd	75 0e		 jne	 SHORT $L226424

; 74   : 			LoadScriptBlock( s, eEatPet );

  000ff	6a 03		 push	 3
$L236700:
  00101	8d 4c 24 0c	 lea	 ecx, DWORD PTR _s$[esp+3564]
  00105	51		 push	 ecx
$L236701:
  00106	8b ce		 mov	 ecx, esi
  00108	e8 00 00 00 00	 call	 ?LoadScriptBlock@CRandomOptionProperty@@QAEXAAVCScript@@H@Z ; CRandomOptionProperty::LoadScriptBlock
$L226424:

; 75   : #endif	// __PET_0519
; 76   : 		s.GetToken();

  0010d	6a 00		 push	 0
  0010f	8d 4c 24 0c	 lea	 ecx, DWORD PTR _s$[esp+3564]
  00113	e8 00 00 00 00	 call	 ?GetToken@CScript@@UAEHH@Z ; CScript::GetToken
  00118	39 bc 24 34 08
	00 00		 cmp	 DWORD PTR _s$[esp+5652], edi
  0011f	0f 85 6d ff ff
	ff		 jne	 $L226413
$L226414:

; 77   : 	}
; 78   : #if __VER >= 12 // __J12_0
; 79   : 	AwakeningExtension();	// ,       

  00125	8b ce		 mov	 ecx, esi
  00127	e8 00 00 00 00	 call	 ?AwakeningExtension@CRandomOptionProperty@@AAEXXZ ; CRandomOptionProperty::AwakeningExtension

; 80   : #endif	// __J12_0
; 81   : 	return TRUE;

  0012c	8d 4c 24 08	 lea	 ecx, DWORD PTR _s$[esp+3560]
  00130	c7 84 24 e4 0d
	00 00 ff ff ff
	ff		 mov	 DWORD PTR __$EHRec$[esp+3568], -1
  0013b	e8 00 00 00 00	 call	 ??1CScript@@UAE@XZ	; CScript::~CScript
  00140	b8 01 00 00 00	 mov	 eax, 1
$L226408:

; 82   : }

  00145	8b 8c 24 dc 0d
	00 00		 mov	 ecx, DWORD PTR __$EHRec$[esp+3560]
  0014c	5f		 pop	 edi
  0014d	64 89 0d 00 00
	00 00		 mov	 DWORD PTR fs:__except_list, ecx
  00154	8b 8c 24 d4 0d
	00 00		 mov	 ecx, DWORD PTR __$ArrayPad$[esp+3556]
  0015b	5e		 pop	 esi
  0015c	33 cc		 xor	 ecx, esp
  0015e	e8 00 00 00 00	 call	 @__security_check_cookie@4
  00163	81 c4 e0 0d 00
	00		 add	 esp, 3552		; 00000de0H
  00169	c2 04 00	 ret	 4
_TEXT	ENDS
;	COMDAT text$x
text$x	SEGMENT
$L236597:
  00000	8d 8d 20 f2 ff
	ff		 lea	 ecx, DWORD PTR _s$[ebp]
  00006	e9 00 00 00 00	 jmp	 ??1CScript@@UAE@XZ	; CScript::~CScript
__ehhandler$?LoadScript@CRandomOptionProperty@@QAEHPBD@Z:
  0000b	b8 00 00 00 00	 mov	 eax, OFFSET FLAT:$T236693
  00010	e9 00 00 00 00	 jmp	 ___CxxFrameHandler
text$x	ENDS
?LoadScript@CRandomOptionProperty@@QAEHPBD@Z ENDP	; CRandomOptionProperty::LoadScript
; Function compile flags: /Ogty
;	COMDAT _$E2
text$yd	SEGMENT
_$E2	PROC NEAR					; COMDAT
  00000	b9 00 00 00 00	 mov	 ecx, OFFSET FLAT:?sRandomOptionProperty@?1??GetInstance@CRandomOptionProperty@@SAPAV2@XZ@4V2@A
  00005	e9 00 00 00 00	 jmp	 ??1CRandomOptionProperty@@UAE@XZ ; CRandomOptionProperty::~CRandomOptionProperty
_$E2	ENDP
text$yd	ENDS
END
