; Listing generated by Microsoft (R) Optimizing Compiler Version 13.10.6030 

	TITLE	.\rangda.cpp
	.386P
include listing.inc
if @Version gt 510
.model FLAT
else
_TEXT	SEGMENT PARA USE32 PUBLIC 'CODE'
_TEXT	ENDS
_DATA	SEGMENT DWORD USE32 PUBLIC 'DATA'
_DATA	ENDS
CONST	SEGMENT DWORD USE32 PUBLIC 'CONST'
CONST	ENDS
_BSS	SEGMENT DWORD USE32 PUBLIC 'BSS'
_BSS	ENDS
$$SYMBOLS	SEGMENT BYTE USE32 'DEBSYM'
$$SYMBOLS	ENDS
$$TYPES	SEGMENT BYTE USE32 'DEBTYP'
$$TYPES	ENDS
_TLS	SEGMENT DWORD USE32 PUBLIC 'TLS'
_TLS	ENDS
;	COMDAT ??_C@_0BC@MOGJFHKK@tr1?3?3bad_weak_ptr?$AA@
CONST	SEGMENT DWORD USE32 PUBLIC 'CONST'
CONST	ENDS
;	COMDAT ??_C@_0BI@HBEONIOH@CRangda?4ProcessReplace?3?$AA@
CONST	SEGMENT DWORD USE32 PUBLIC 'CONST'
CONST	ENDS
;	COMDAT ??_C@_0BJ@FGFPLBDO@CRangda?4ProcessGenerate?3?$AA@
CONST	SEGMENT DWORD USE32 PUBLIC 'CONST'
CONST	ENDS
;	COMDAT ??_C@_0EG@BHMGAOAH@CRangda?4CreateMonster?3?5monster?5?$DN@
CONST	SEGMENT DWORD USE32 PUBLIC 'CONST'
CONST	ENDS
;	COMDAT ??_C@_09GJAOAHBN@nInterval?$AA@
CONST	SEGMENT DWORD USE32 PUBLIC 'CONST'
CONST	ENDS
;	COMDAT ??_C@_08MFLLMLOO@nReplace?$AA@
CONST	SEGMENT DWORD USE32 PUBLIC 'CONST'
CONST	ENDS
;	COMDAT ??_C@_0O@DFAEABEH@bActiveAttack?$AA@
CONST	SEGMENT DWORD USE32 PUBLIC 'CONST'
CONST	ENDS
;	COMDAT ??_C@_07DEMLKDGM@vRangda?$AA@
CONST	SEGMENT DWORD USE32 PUBLIC 'CONST'
CONST	ENDS
text$yd	SEGMENT PARA USE32 PUBLIC 'CODE'
text$yd	ENDS
xdata$x	SEGMENT DWORD USE32 PUBLIC 'CONST'
xdata$x	ENDS
text$AFX_COL1	SEGMENT PARA USE32 PUBLIC ''
text$AFX_COL1	ENDS
;	COMDAT ?SetInterval@CRangda@@QAEXH@Z
_TEXT	SEGMENT PARA USE32 PUBLIC 'CODE'
_TEXT	ENDS
;	COMDAT ?SetReplace@CRangda@@QAEXH@Z
_TEXT	SEGMENT PARA USE32 PUBLIC 'CODE'
_TEXT	ENDS
;	COMDAT ?SetActiveAttack@CRangda@@QAEXH@Z
_TEXT	SEGMENT PARA USE32 PUBLIC 'CODE'
_TEXT	ENDS
;	COMDAT ?what@bad_weak_ptr@boost@@UBEPBDXZ
_TEXT	SEGMENT PARA USE32 PUBLIC 'CODE'
_TEXT	ENDS
;	COMDAT ??1sp_counted_base@detail@boost@@UAE@XZ
_TEXT	SEGMENT PARA USE32 PUBLIC 'CODE'
_TEXT	ENDS
;	COMDAT ?destroy@sp_counted_base@detail@boost@@UAEXXZ
_TEXT	SEGMENT PARA USE32 PUBLIC 'CODE'
_TEXT	ENDS
;	COMDAT ?add_ref_copy@sp_counted_base@detail@boost@@QAEXXZ
_TEXT	SEGMENT PARA USE32 PUBLIC 'CODE'
_TEXT	ENDS
;	COMDAT ?add_ref_lock@sp_counted_base@detail@boost@@QAE_NXZ
_TEXT	SEGMENT PARA USE32 PUBLIC 'CODE'
_TEXT	ENDS
;	COMDAT ?release@sp_counted_base@detail@boost@@QAEXXZ
_TEXT	SEGMENT PARA USE32 PUBLIC 'CODE'
_TEXT	ENDS
;	COMDAT ?weak_add_ref@sp_counted_base@detail@boost@@QAEXXZ
_TEXT	SEGMENT PARA USE32 PUBLIC 'CODE'
_TEXT	ENDS
;	COMDAT ?weak_release@sp_counted_base@detail@boost@@QAEXXZ
_TEXT	SEGMENT PARA USE32 PUBLIC 'CODE'
_TEXT	ENDS
;	COMDAT ?use_count@sp_counted_base@detail@boost@@QBEJXZ
_TEXT	SEGMENT PARA USE32 PUBLIC 'CODE'
_TEXT	ENDS
;	COMDAT ??_Gsp_counted_base@detail@boost@@UAEPAXI@Z
_TEXT	SEGMENT PARA USE32 PUBLIC 'CODE'
_TEXT	ENDS
;	COMDAT ?use_count@shared_count@detail@boost@@QBEJXZ
_TEXT	SEGMENT PARA USE32 PUBLIC 'CODE'
_TEXT	ENDS
;	COMDAT ??0bad_weak_ptr@boost@@QAE@XZ
_TEXT	SEGMENT PARA USE32 PUBLIC 'CODE'
_TEXT	ENDS
;	COMDAT ??1bad_weak_ptr@boost@@UAE@XZ
_TEXT	SEGMENT PARA USE32 PUBLIC 'CODE'
_TEXT	ENDS
;	COMDAT ??_Gbad_weak_ptr@boost@@UAEPAXI@Z
_TEXT	SEGMENT PARA USE32 PUBLIC 'CODE'
_TEXT	ENDS
;	COMDAT ?GetCooltime@CLordSkillComponent@@QAEHXZ
_TEXT	SEGMENT PARA USE32 PUBLIC 'CODE'
_TEXT	ENDS
;	COMDAT ?SetTick@CLordSkillComponent@@QAEXH@Z
_TEXT	SEGMENT PARA USE32 PUBLIC 'CODE'
_TEXT	ENDS
;	COMDAT ??1CLordSkillComponentExecutable@@UAE@XZ
_TEXT	SEGMENT PARA USE32 PUBLIC 'CODE'
_TEXT	ENDS
;	COMDAT ?Use@CLordSkillComponentExecutable@@IAEXXZ
_TEXT	SEGMENT PARA USE32 PUBLIC 'CODE'
_TEXT	ENDS
;	COMDAT ?Execute@CLordSkillComponentExecutable@@UAEXKKPAX@Z
_TEXT	SEGMENT PARA USE32 PUBLIC 'CODE'
_TEXT	ENDS
;	COMDAT ??_GCLordSkillComponentExecutable@@UAEPAXI@Z
_TEXT	SEGMENT PARA USE32 PUBLIC 'CODE'
_TEXT	ENDS
;	COMDAT ?GetDeposit@CCandidate@@QBE_JXZ
_TEXT	SEGMENT PARA USE32 PUBLIC 'CODE'
_TEXT	ENDS
;	COMDAT ?GetVote@CCandidate@@QAEHXZ
_TEXT	SEGMENT PARA USE32 PUBLIC 'CODE'
_TEXT	ENDS
;	COMDAT ?GetCreate@CCandidate@@QAEJXZ
_TEXT	SEGMENT PARA USE32 PUBLIC 'CODE'
_TEXT	ENDS
;	COMDAT ??0CRangda@@QAE@K@Z
_TEXT	SEGMENT PARA USE32 PUBLIC 'CODE'
_TEXT	ENDS
;	COMDAT ??_GCRangda@@UAEPAXI@Z
_TEXT	SEGMENT PARA USE32 PUBLIC 'CODE'
_TEXT	ENDS
;	COMDAT ??0CRangda@@QAE@KHHH@Z
_TEXT	SEGMENT PARA USE32 PUBLIC 'CODE'
_TEXT	ENDS
;	COMDAT ??1CRangda@@UAE@XZ
_TEXT	SEGMENT PARA USE32 PUBLIC 'CODE'
_TEXT	ENDS
;	COMDAT ?AddPos@CRangda@@QAEXABU_RANGDA_POS@@@Z
_TEXT	SEGMENT PARA USE32 PUBLIC 'CODE'
_TEXT	ENDS
;	COMDAT ?GetRandomPos@CRangda@@AAE?AU_RANGDA_POS@@XZ
_TEXT	SEGMENT PARA USE32 PUBLIC 'CODE'
_TEXT	ENDS
;	COMDAT ?SetObj@CRangda@@AAEXK@Z
_TEXT	SEGMENT PARA USE32 PUBLIC 'CODE'
_TEXT	ENDS
;	COMDAT ?OnTimer@CRangda@@QAEXXZ
_TEXT	SEGMENT PARA USE32 PUBLIC 'CODE'
_TEXT	ENDS
;	COMDAT ?GetMonster@CRangda@@AAEPAVCMover@@XZ
_TEXT	SEGMENT PARA USE32 PUBLIC 'CODE'
_TEXT	ENDS
;	COMDAT ?ProcessReplace@CRangda@@AAEXPAVCMover@@@Z
_TEXT	SEGMENT PARA USE32 PUBLIC 'CODE'
_TEXT	ENDS
;	COMDAT ?ProcessGenerate@CRangda@@AAEXXZ
_TEXT	SEGMENT PARA USE32 PUBLIC 'CODE'
_TEXT	ENDS
;	COMDAT ?IsDamaged@CRangda@@AAEHPAVCMover@@@Z
_TEXT	SEGMENT PARA USE32 PUBLIC 'CODE'
_TEXT	ENDS
;	COMDAT ?HavetoReplace@CRangda@@AAEHXZ
_TEXT	SEGMENT PARA USE32 PUBLIC 'CODE'
_TEXT	ENDS
;	COMDAT ?HavetoGenerate@CRangda@@AAEHXZ
_TEXT	SEGMENT PARA USE32 PUBLIC 'CODE'
_TEXT	ENDS
;	COMDAT ?CreateMonster@CRangda@@AAEXXZ
_TEXT	SEGMENT PARA USE32 PUBLIC 'CODE'
_TEXT	ENDS
;	COMDAT ??0CRangdaController@@AAE@XZ
_TEXT	SEGMENT PARA USE32 PUBLIC 'CODE'
_TEXT	ENDS
;	COMDAT ??_GCRangdaController@@UAEPAXI@Z
_TEXT	SEGMENT PARA USE32 PUBLIC 'CODE'
_TEXT	ENDS
;	COMDAT ??1CRangdaController@@UAE@XZ
_TEXT	SEGMENT PARA USE32 PUBLIC 'CODE'
_TEXT	ENDS
;	COMDAT ?Instance@CRangdaController@@SAPAV1@XZ
_TEXT	SEGMENT PARA USE32 PUBLIC 'CODE'
_TEXT	ENDS
;	COMDAT _$E2
text$yd	SEGMENT PARA USE32 PUBLIC 'CODE'
text$yd	ENDS
;	COMDAT ?AddRangda@CRangdaController@@QAEXPAVCRangda@@@Z
_TEXT	SEGMENT PARA USE32 PUBLIC 'CODE'
_TEXT	ENDS
;	COMDAT ?OnTimer@CRangdaController@@QAEXXZ
_TEXT	SEGMENT PARA USE32 PUBLIC 'CODE'
_TEXT	ENDS
;	COMDAT ?LoadScript@CRangdaController@@QAEHPBD@Z
_TEXT	SEGMENT PARA USE32 PUBLIC 'CODE'
_TEXT	ENDS
;	COMDAT ??0_RANGDA_POS@@QAE@XZ
_TEXT	SEGMENT PARA USE32 PUBLIC 'CODE'
_TEXT	ENDS
;	COMDAT ??8ATL@@YA_NABV?$CStringT@DV?$StrTraitMFC@DV?$ChTraitsCRT@D@ATL@@@@@0@PBD@Z
_TEXT	SEGMENT PARA USE32 PUBLIC 'CODE'
_TEXT	ENDS
;	COMDAT ?compare@?$basic_string@DU?$char_traits@D@std@@V?$allocator@D@2@@std@@QBEHABV12@@Z
_TEXT	SEGMENT PARA USE32 PUBLIC 'CODE'
_TEXT	ENDS
;	COMDAT ?IsFull@?$CStack@K@@QAEHXZ
_TEXT	SEGMENT PARA USE32 PUBLIC 'CODE'
_TEXT	ENDS
;	COMDAT ??0?$pair@KPAVCCtrl@@@std@@QAE@ABKABQAVCCtrl@@@Z
_TEXT	SEGMENT PARA USE32 PUBLIC 'CODE'
_TEXT	ENDS
;	COMDAT ?GetMax@?$CItemContainer@VCItemElem@@@@QAEHXZ
_TEXT	SEGMENT PARA USE32 PUBLIC 'CODE'
_TEXT	ENDS
;	COMDAT ??0?$deque@PAUtagACTMSG@@V?$allocator@PAUtagACTMSG@@@std@@@std@@QAE@XZ
_TEXT	SEGMENT PARA USE32 PUBLIC 'CODE'
_TEXT	ENDS
;	COMDAT ??1?$deque@PAUtagACTMSG@@V?$allocator@PAUtagACTMSG@@@std@@@std@@QAE@XZ
_TEXT	SEGMENT PARA USE32 PUBLIC 'CODE'
_TEXT	ENDS
;	COMDAT ?begin@?$deque@PAUtagACTMSG@@V?$allocator@PAUtagACTMSG@@@std@@@std@@QAE?AViterator@12@XZ
_TEXT	SEGMENT PARA USE32 PUBLIC 'CODE'
_TEXT	ENDS
;	COMDAT ?end@?$deque@PAUtagACTMSG@@V?$allocator@PAUtagACTMSG@@@std@@@std@@QAE?AViterator@12@XZ
_TEXT	SEGMENT PARA USE32 PUBLIC 'CODE'
_TEXT	ENDS
;	COMDAT ?empty@?$deque@PAUtagACTMSG@@V?$allocator@PAUtagACTMSG@@@std@@@std@@QBE_NXZ
_TEXT	SEGMENT PARA USE32 PUBLIC 'CODE'
_TEXT	ENDS
;	COMDAT ?clear@?$deque@PAUtagACTMSG@@V?$allocator@PAUtagACTMSG@@@std@@@std@@QAEXXZ
_TEXT	SEGMENT PARA USE32 PUBLIC 'CODE'
_TEXT	ENDS
;	COMDAT ??0?$deque@PAUtagMAGICATKMSG@@V?$allocator@PAUtagMAGICATKMSG@@@std@@@std@@QAE@XZ
_TEXT	SEGMENT PARA USE32 PUBLIC 'CODE'
_TEXT	ENDS
;	COMDAT ??1?$deque@PAUtagMAGICATKMSG@@V?$allocator@PAUtagMAGICATKMSG@@@std@@@std@@QAE@XZ
_TEXT	SEGMENT PARA USE32 PUBLIC 'CODE'
_TEXT	ENDS
;	COMDAT ?begin@?$deque@PAUtagMAGICATKMSG@@V?$allocator@PAUtagMAGICATKMSG@@@std@@@std@@QAE?AViterator@12@XZ
_TEXT	SEGMENT PARA USE32 PUBLIC 'CODE'
_TEXT	ENDS
;	COMDAT ?end@?$deque@PAUtagMAGICATKMSG@@V?$allocator@PAUtagMAGICATKMSG@@@std@@@std@@QAE?AViterator@12@XZ
_TEXT	SEGMENT PARA USE32 PUBLIC 'CODE'
_TEXT	ENDS
;	COMDAT ?empty@?$deque@PAUtagMAGICATKMSG@@V?$allocator@PAUtagMAGICATKMSG@@@std@@@std@@QBE_NXZ
_TEXT	SEGMENT PARA USE32 PUBLIC 'CODE'
_TEXT	ENDS
;	COMDAT ?clear@?$deque@PAUtagMAGICATKMSG@@V?$allocator@PAUtagMAGICATKMSG@@@std@@@std@@QAEXXZ
_TEXT	SEGMENT PARA USE32 PUBLIC 'CODE'
_TEXT	ENDS
;	COMDAT ??Diterator@?$deque@PAUtagACTMSG@@V?$allocator@PAUtagACTMSG@@@std@@@std@@QBEAAPAUtagACTMSG@@XZ
_TEXT	SEGMENT PARA USE32 PUBLIC 'CODE'
_TEXT	ENDS
;	COMDAT ??Eiterator@?$deque@PAUtagACTMSG@@V?$allocator@PAUtagACTMSG@@@std@@@std@@QAEAAV012@XZ
_TEXT	SEGMENT PARA USE32 PUBLIC 'CODE'
_TEXT	ENDS
;	COMDAT ??9const_iterator@?$deque@PAUtagACTMSG@@V?$allocator@PAUtagACTMSG@@@std@@@std@@QBE_NABV012@@Z
_TEXT	SEGMENT PARA USE32 PUBLIC 'CODE'
_TEXT	ENDS
;	COMDAT ??Diterator@?$deque@PAUtagMAGICATKMSG@@V?$allocator@PAUtagMAGICATKMSG@@@std@@@std@@QBEAAPAUtagMAGICATKMSG@@XZ
_TEXT	SEGMENT PARA USE32 PUBLIC 'CODE'
_TEXT	ENDS
;	COMDAT ??Eiterator@?$deque@PAUtagMAGICATKMSG@@V?$allocator@PAUtagMAGICATKMSG@@@std@@@std@@QAEAAV012@XZ
_TEXT	SEGMENT PARA USE32 PUBLIC 'CODE'
_TEXT	ENDS
;	COMDAT ??9const_iterator@?$deque@PAUtagMAGICATKMSG@@V?$allocator@PAUtagMAGICATKMSG@@@std@@@std@@QBE_NABV012@@Z
_TEXT	SEGMENT PARA USE32 PUBLIC 'CODE'
_TEXT	ENDS
;	COMDAT ??0?$vector@U_RANGDA_POS@@V?$allocator@U_RANGDA_POS@@@std@@@std@@QAE@XZ
_TEXT	SEGMENT PARA USE32 PUBLIC 'CODE'
_TEXT	ENDS
;	COMDAT ??1?$vector@U_RANGDA_POS@@V?$allocator@U_RANGDA_POS@@@std@@@std@@QAE@XZ
_TEXT	SEGMENT PARA USE32 PUBLIC 'CODE'
_TEXT	ENDS
;	COMDAT ?size@?$vector@U_RANGDA_POS@@V?$allocator@U_RANGDA_POS@@@std@@@std@@QBEIXZ
_TEXT	SEGMENT PARA USE32 PUBLIC 'CODE'
_TEXT	ENDS
;	COMDAT ??A?$vector@U_RANGDA_POS@@V?$allocator@U_RANGDA_POS@@@std@@@std@@QAEAAU_RANGDA_POS@@I@Z
_TEXT	SEGMENT PARA USE32 PUBLIC 'CODE'
_TEXT	ENDS
;	COMDAT ?push_back@?$vector@U_RANGDA_POS@@V?$allocator@U_RANGDA_POS@@@std@@@std@@QAEXABU_RANGDA_POS@@@Z
_TEXT	SEGMENT PARA USE32 PUBLIC 'CODE'
_TEXT	ENDS
;	COMDAT ??0?$vector@PAVCRangda@@V?$allocator@PAVCRangda@@@std@@@std@@QAE@XZ
_TEXT	SEGMENT PARA USE32 PUBLIC 'CODE'
_TEXT	ENDS
;	COMDAT ??1?$vector@PAVCRangda@@V?$allocator@PAVCRangda@@@std@@@std@@QAE@XZ
_TEXT	SEGMENT PARA USE32 PUBLIC 'CODE'
_TEXT	ENDS
;	COMDAT ?begin@?$vector@PAVCRangda@@V?$allocator@PAVCRangda@@@std@@@std@@QAE?AViterator@12@XZ
_TEXT	SEGMENT PARA USE32 PUBLIC 'CODE'
_TEXT	ENDS
;	COMDAT ?end@?$vector@PAVCRangda@@V?$allocator@PAVCRangda@@@std@@@std@@QAE?AViterator@12@XZ
_TEXT	SEGMENT PARA USE32 PUBLIC 'CODE'
_TEXT	ENDS
;	COMDAT ?push_back@?$vector@PAVCRangda@@V?$allocator@PAVCRangda@@@std@@@std@@QAEXABQAVCRangda@@@Z
_TEXT	SEGMENT PARA USE32 PUBLIC 'CODE'
_TEXT	ENDS
;	COMDAT ?clear@?$vector@PAVCRangda@@V?$allocator@PAVCRangda@@@std@@@std@@QAEXXZ
_TEXT	SEGMENT PARA USE32 PUBLIC 'CODE'
_TEXT	ENDS
;	COMDAT ??R?$less@PAVsp_counted_base@detail@boost@@@std@@QBE_NABQAVsp_counted_base@detail@boost@@0@Z
_TEXT	SEGMENT PARA USE32 PUBLIC 'CODE'
_TEXT	ENDS
;	COMDAT ?size@?$vector@PAVCLordSkillComponentExecutable@@V?$allocator@PAVCLordSkillComponentExecutable@@@std@@@std@@QBEIXZ
_TEXT	SEGMENT PARA USE32 PUBLIC 'CODE'
_TEXT	ENDS
;	COMDAT ?size@?$vector@V?$shared_ptr@VCCandidate@@@boost@@V?$allocator@V?$shared_ptr@VCCandidate@@@boost@@@std@@@std@@QBEIXZ
_TEXT	SEGMENT PARA USE32 PUBLIC 'CODE'
_TEXT	ENDS
;	COMDAT ??0?$vector@MV?$allocator@M@std@@@std@@QAE@XZ
_TEXT	SEGMENT PARA USE32 PUBLIC 'CODE'
_TEXT	ENDS
;	COMDAT ??1?$vector@MV?$allocator@M@std@@@std@@QAE@XZ
_TEXT	SEGMENT PARA USE32 PUBLIC 'CODE'
_TEXT	ENDS
;	COMDAT ??C?$shared_ptr@VCCandidate@@@boost@@QBEPAVCCandidate@@XZ
_TEXT	SEGMENT PARA USE32 PUBLIC 'CODE'
_TEXT	ENDS
;	COMDAT ?size@?$vector@PAVCLEComponent@@V?$allocator@PAVCLEComponent@@@std@@@std@@QBEIXZ
_TEXT	SEGMENT PARA USE32 PUBLIC 'CODE'
_TEXT	ENDS
;	COMDAT ?size@?$vector@U?$pair@M_J@std@@V?$allocator@U?$pair@M_J@std@@@2@@std@@QBEIXZ
_TEXT	SEGMENT PARA USE32 PUBLIC 'CODE'
_TEXT	ENDS
;	COMDAT ??Diterator@?$vector@PAVCRangda@@V?$allocator@PAVCRangda@@@std@@@std@@QBEAAPAVCRangda@@XZ
_TEXT	SEGMENT PARA USE32 PUBLIC 'CODE'
_TEXT	ENDS
;	COMDAT ??Eiterator@?$vector@PAVCRangda@@V?$allocator@PAVCRangda@@@std@@@std@@QAEAAV012@XZ
_TEXT	SEGMENT PARA USE32 PUBLIC 'CODE'
_TEXT	ENDS
;	COMDAT ??9const_iterator@?$vector@PAVCRangda@@V?$allocator@PAVCRangda@@@std@@@std@@QBE_NABV012@@Z
_TEXT	SEGMENT PARA USE32 PUBLIC 'CODE'
_TEXT	ENDS
;	COMDAT ?Compare@?$CStringT@DV?$StrTraitMFC@DV?$ChTraitsCRT@D@ATL@@@@@ATL@@QBEHPBD@Z
_TEXT	SEGMENT PARA USE32 PUBLIC 'CODE'
_TEXT	ENDS
;	COMDAT ?compare@?$basic_string@DU?$char_traits@D@std@@V?$allocator@D@2@@std@@QBEHIIPBDI@Z
_TEXT	SEGMENT PARA USE32 PUBLIC 'CODE'
_TEXT	ENDS
;	COMDAT ?_Tidy@?$deque@PAUtagACTMSG@@V?$allocator@PAUtagACTMSG@@@std@@@std@@IAEXXZ
_TEXT	SEGMENT PARA USE32 PUBLIC 'CODE'
_TEXT	ENDS
;	COMDAT ??0?$_Deque_val@PAUtagACTMSG@@V?$allocator@PAUtagACTMSG@@@std@@@std@@IAE@V?$allocator@PAUtagACTMSG@@@1@@Z
_TEXT	SEGMENT PARA USE32 PUBLIC 'CODE'
_TEXT	ENDS
;	COMDAT ??0?$allocator@PAUtagACTMSG@@@std@@QAE@XZ
_TEXT	SEGMENT PARA USE32 PUBLIC 'CODE'
_TEXT	ENDS
;	COMDAT ?_Tidy@?$deque@PAUtagMAGICATKMSG@@V?$allocator@PAUtagMAGICATKMSG@@@std@@@std@@IAEXXZ
_TEXT	SEGMENT PARA USE32 PUBLIC 'CODE'
_TEXT	ENDS
;	COMDAT ??0?$_Deque_val@PAUtagMAGICATKMSG@@V?$allocator@PAUtagMAGICATKMSG@@@std@@@std@@IAE@V?$allocator@PAUtagMAGICATKMSG@@@1@@Z
_TEXT	SEGMENT PARA USE32 PUBLIC 'CODE'
_TEXT	ENDS
;	COMDAT ??0?$allocator@PAUtagMAGICATKMSG@@@std@@QAE@XZ
_TEXT	SEGMENT PARA USE32 PUBLIC 'CODE'
_TEXT	ENDS
;	COMDAT ??0iterator@?$deque@PAUtagACTMSG@@V?$allocator@PAUtagACTMSG@@@std@@@std@@QAE@IPBV12@@Z
_TEXT	SEGMENT PARA USE32 PUBLIC 'CODE'
_TEXT	ENDS
;	COMDAT ??Dconst_iterator@?$deque@PAUtagACTMSG@@V?$allocator@PAUtagACTMSG@@@std@@@std@@QBEABQAUtagACTMSG@@XZ
_TEXT	SEGMENT PARA USE32 PUBLIC 'CODE'
_TEXT	ENDS
;	COMDAT ??8const_iterator@?$deque@PAUtagACTMSG@@V?$allocator@PAUtagACTMSG@@@std@@@std@@QBE_NABV012@@Z
_TEXT	SEGMENT PARA USE32 PUBLIC 'CODE'
_TEXT	ENDS
;	COMDAT ??0iterator@?$deque@PAUtagMAGICATKMSG@@V?$allocator@PAUtagMAGICATKMSG@@@std@@@std@@QAE@IPBV12@@Z
_TEXT	SEGMENT PARA USE32 PUBLIC 'CODE'
_TEXT	ENDS
;	COMDAT ??Dconst_iterator@?$deque@PAUtagMAGICATKMSG@@V?$allocator@PAUtagMAGICATKMSG@@@std@@@std@@QBEABQAUtagMAGICATKMSG@@XZ
_TEXT	SEGMENT PARA USE32 PUBLIC 'CODE'
_TEXT	ENDS
;	COMDAT ??8const_iterator@?$deque@PAUtagMAGICATKMSG@@V?$allocator@PAUtagMAGICATKMSG@@@std@@@std@@QBE_NABV012@@Z
_TEXT	SEGMENT PARA USE32 PUBLIC 'CODE'
_TEXT	ENDS
;	COMDAT ?capacity@?$vector@U_RANGDA_POS@@V?$allocator@U_RANGDA_POS@@@std@@@std@@QBEIXZ
_TEXT	SEGMENT PARA USE32 PUBLIC 'CODE'
_TEXT	ENDS
;	COMDAT ?begin@?$vector@U_RANGDA_POS@@V?$allocator@U_RANGDA_POS@@@std@@@std@@QAE?AViterator@12@XZ
_TEXT	SEGMENT PARA USE32 PUBLIC 'CODE'
_TEXT	ENDS
;	COMDAT ?end@?$vector@U_RANGDA_POS@@V?$allocator@U_RANGDA_POS@@@std@@@std@@QAE?AViterator@12@XZ
_TEXT	SEGMENT PARA USE32 PUBLIC 'CODE'
_TEXT	ENDS
;	COMDAT ?insert@?$vector@U_RANGDA_POS@@V?$allocator@U_RANGDA_POS@@@std@@@std@@QAE?AViterator@12@V312@ABU_RANGDA_POS@@@Z
_TEXT	SEGMENT PARA USE32 PUBLIC 'CODE'
_TEXT	ENDS
;	COMDAT ?_Buy@?$vector@U_RANGDA_POS@@V?$allocator@U_RANGDA_POS@@@std@@@std@@IAE_NI@Z
_TEXT	SEGMENT PARA USE32 PUBLIC 'CODE'
_TEXT	ENDS
;	COMDAT ?_Tidy@?$vector@U_RANGDA_POS@@V?$allocator@U_RANGDA_POS@@@std@@@std@@IAEXXZ
_TEXT	SEGMENT PARA USE32 PUBLIC 'CODE'
_TEXT	ENDS
;	COMDAT ?_Ufill@?$vector@U_RANGDA_POS@@V?$allocator@U_RANGDA_POS@@@std@@@std@@IAEPAU_RANGDA_POS@@PAU3@IABU3@@Z
_TEXT	SEGMENT PARA USE32 PUBLIC 'CODE'
_TEXT	ENDS
;	COMDAT ??0?$_Vector_val@U_RANGDA_POS@@V?$allocator@U_RANGDA_POS@@@std@@@std@@IAE@V?$allocator@U_RANGDA_POS@@@1@@Z
_TEXT	SEGMENT PARA USE32 PUBLIC 'CODE'
_TEXT	ENDS
;	COMDAT ??0?$allocator@U_RANGDA_POS@@@std@@QAE@XZ
_TEXT	SEGMENT PARA USE32 PUBLIC 'CODE'
_TEXT	ENDS
;	COMDAT ?capacity@?$vector@PAVCRangda@@V?$allocator@PAVCRangda@@@std@@@std@@QBEIXZ
_TEXT	SEGMENT PARA USE32 PUBLIC 'CODE'
_TEXT	ENDS
;	COMDAT ?size@?$vector@PAVCRangda@@V?$allocator@PAVCRangda@@@std@@@std@@QBEIXZ
_TEXT	SEGMENT PARA USE32 PUBLIC 'CODE'
_TEXT	ENDS
;	COMDAT ?insert@?$vector@PAVCRangda@@V?$allocator@PAVCRangda@@@std@@@std@@QAE?AViterator@12@V312@ABQAVCRangda@@@Z
_TEXT	SEGMENT PARA USE32 PUBLIC 'CODE'
_TEXT	ENDS
;	COMDAT ?_Buy@?$vector@PAVCRangda@@V?$allocator@PAVCRangda@@@std@@@std@@IAE_NI@Z
_TEXT	SEGMENT PARA USE32 PUBLIC 'CODE'
_TEXT	ENDS
;	COMDAT ?_Tidy@?$vector@PAVCRangda@@V?$allocator@PAVCRangda@@@std@@@std@@IAEXXZ
_TEXT	SEGMENT PARA USE32 PUBLIC 'CODE'
_TEXT	ENDS
;	COMDAT ?_Ufill@?$vector@PAVCRangda@@V?$allocator@PAVCRangda@@@std@@@std@@IAEPAPAVCRangda@@PAPAV3@IABQAV3@@Z
_TEXT	SEGMENT PARA USE32 PUBLIC 'CODE'
_TEXT	ENDS
;	COMDAT ??0?$_Vector_val@PAVCRangda@@V?$allocator@PAVCRangda@@@std@@@std@@IAE@V?$allocator@PAVCRangda@@@1@@Z
_TEXT	SEGMENT PARA USE32 PUBLIC 'CODE'
_TEXT	ENDS
;	COMDAT ??0?$allocator@PAVCRangda@@@std@@QAE@XZ
_TEXT	SEGMENT PARA USE32 PUBLIC 'CODE'
_TEXT	ENDS
;	COMDAT ?_Buy@?$vector@MV?$allocator@M@std@@@std@@IAE_NI@Z
_TEXT	SEGMENT PARA USE32 PUBLIC 'CODE'
_TEXT	ENDS
;	COMDAT ?_Tidy@?$vector@MV?$allocator@M@std@@@std@@IAEXXZ
_TEXT	SEGMENT PARA USE32 PUBLIC 'CODE'
_TEXT	ENDS
;	COMDAT ??0?$_Vector_val@MV?$allocator@M@std@@@std@@IAE@V?$allocator@M@1@@Z
_TEXT	SEGMENT PARA USE32 PUBLIC 'CODE'
_TEXT	ENDS
;	COMDAT ??0?$allocator@M@std@@QAE@XZ
_TEXT	SEGMENT PARA USE32 PUBLIC 'CODE'
_TEXT	ENDS
;	COMDAT ??0iterator@?$vector@PAVCRangda@@V?$allocator@PAVCRangda@@@std@@@std@@QAE@PAPAVCRangda@@@Z
_TEXT	SEGMENT PARA USE32 PUBLIC 'CODE'
_TEXT	ENDS
;	COMDAT ??Dconst_iterator@?$vector@PAVCRangda@@V?$allocator@PAVCRangda@@@std@@@std@@QBEABQAVCRangda@@XZ
_TEXT	SEGMENT PARA USE32 PUBLIC 'CODE'
_TEXT	ENDS
;	COMDAT ??8const_iterator@?$vector@PAVCRangda@@V?$allocator@PAVCRangda@@@std@@@std@@QBE_NABV012@@Z
_TEXT	SEGMENT PARA USE32 PUBLIC 'CODE'
_TEXT	ENDS
;	COMDAT ??Diterator@?$vector@U_RANGDA_POS@@V?$allocator@U_RANGDA_POS@@@std@@@std@@QBEAAU_RANGDA_POS@@XZ
_TEXT	SEGMENT PARA USE32 PUBLIC 'CODE'
_TEXT	ENDS
;	COMDAT ??Hiterator@?$vector@U_RANGDA_POS@@V?$allocator@U_RANGDA_POS@@@std@@@std@@QBE?AV012@H@Z
_TEXT	SEGMENT PARA USE32 PUBLIC 'CODE'
_TEXT	ENDS
;	COMDAT ?StringCompare@?$ChTraitsCRT@D@ATL@@SAHPBD0@Z
_TEXT	SEGMENT PARA USE32 PUBLIC 'CODE'
_TEXT	ENDS
;	COMDAT ?pop_back@?$deque@PAUtagACTMSG@@V?$allocator@PAUtagACTMSG@@@std@@@std@@QAEXXZ
_TEXT	SEGMENT PARA USE32 PUBLIC 'CODE'
_TEXT	ENDS
;	COMDAT ??0?$_Deque_map@PAUtagACTMSG@@V?$allocator@PAUtagACTMSG@@@std@@@std@@IAE@V?$allocator@PAUtagACTMSG@@@1@@Z
_TEXT	SEGMENT PARA USE32 PUBLIC 'CODE'
_TEXT	ENDS
;	COMDAT ??0?$allocator@PAUtagACTMSG@@@std@@QAE@ABV01@@Z
_TEXT	SEGMENT PARA USE32 PUBLIC 'CODE'
_TEXT	ENDS
;	COMDAT ?deallocate@?$allocator@PAUtagACTMSG@@@std@@QAEXPAPAUtagACTMSG@@I@Z
_TEXT	SEGMENT PARA USE32 PUBLIC 'CODE'
_TEXT	ENDS
;	COMDAT ?deallocate@?$allocator@PAPAUtagACTMSG@@@std@@QAEXPAPAPAUtagACTMSG@@I@Z
_TEXT	SEGMENT PARA USE32 PUBLIC 'CODE'
_TEXT	ENDS
;	COMDAT ?destroy@?$allocator@PAPAUtagACTMSG@@@std@@QAEXPAPAPAUtagACTMSG@@@Z
_TEXT	SEGMENT PARA USE32 PUBLIC 'CODE'
_TEXT	ENDS
;	COMDAT ?pop_back@?$deque@PAUtagMAGICATKMSG@@V?$allocator@PAUtagMAGICATKMSG@@@std@@@std@@QAEXXZ
_TEXT	SEGMENT PARA USE32 PUBLIC 'CODE'
_TEXT	ENDS
;	COMDAT ??0?$_Deque_map@PAUtagMAGICATKMSG@@V?$allocator@PAUtagMAGICATKMSG@@@std@@@std@@IAE@V?$allocator@PAUtagMAGICATKMSG@@@1@@Z
_TEXT	SEGMENT PARA USE32 PUBLIC 'CODE'
_TEXT	ENDS
;	COMDAT ??0?$allocator@PAUtagMAGICATKMSG@@@std@@QAE@ABV01@@Z
_TEXT	SEGMENT PARA USE32 PUBLIC 'CODE'
_TEXT	ENDS
;	COMDAT ?deallocate@?$allocator@PAUtagMAGICATKMSG@@@std@@QAEXPAPAUtagMAGICATKMSG@@I@Z
_TEXT	SEGMENT PARA USE32 PUBLIC 'CODE'
_TEXT	ENDS
;	COMDAT ?deallocate@?$allocator@PAPAUtagMAGICATKMSG@@@std@@QAEXPAPAPAUtagMAGICATKMSG@@I@Z
_TEXT	SEGMENT PARA USE32 PUBLIC 'CODE'
_TEXT	ENDS
;	COMDAT ?destroy@?$allocator@PAPAUtagMAGICATKMSG@@@std@@QAEXPAPAPAUtagMAGICATKMSG@@@Z
_TEXT	SEGMENT PARA USE32 PUBLIC 'CODE'
_TEXT	ENDS
;	COMDAT ??0const_iterator@?$deque@PAUtagACTMSG@@V?$allocator@PAUtagACTMSG@@@std@@@std@@QAE@IPBV12@@Z
_TEXT	SEGMENT PARA USE32 PUBLIC 'CODE'
_TEXT	ENDS
;	COMDAT ??0const_iterator@?$deque@PAUtagMAGICATKMSG@@V?$allocator@PAUtagMAGICATKMSG@@@std@@@std@@QAE@IPBV12@@Z
_TEXT	SEGMENT PARA USE32 PUBLIC 'CODE'
_TEXT	ENDS
;	COMDAT ?max_size@?$vector@U_RANGDA_POS@@V?$allocator@U_RANGDA_POS@@@std@@@std@@QBEIXZ
_TEXT	SEGMENT PARA USE32 PUBLIC 'CODE'
_TEXT	ENDS
;	COMDAT ?_Destroy@?$vector@U_RANGDA_POS@@V?$allocator@U_RANGDA_POS@@@std@@@std@@IAEXPAU_RANGDA_POS@@0@Z
_TEXT	SEGMENT PARA USE32 PUBLIC 'CODE'
_TEXT	ENDS
;	COMDAT ?_Insert_n@?$vector@U_RANGDA_POS@@V?$allocator@U_RANGDA_POS@@@std@@@std@@IAEXViterator@12@IABU_RANGDA_POS@@@Z
_TEXT	SEGMENT PARA USE32 PUBLIC 'CODE'
_TEXT	ENDS
;	COMDAT ?_Xlen@?$vector@U_RANGDA_POS@@V?$allocator@U_RANGDA_POS@@@std@@@std@@IBEXXZ
_TEXT	SEGMENT PARA USE32 PUBLIC 'CODE'
_TEXT	ENDS
;	COMDAT ??0?$allocator@U_RANGDA_POS@@@std@@QAE@ABV01@@Z
_TEXT	SEGMENT PARA USE32 PUBLIC 'CODE'
_TEXT	ENDS
;	COMDAT ?deallocate@?$allocator@U_RANGDA_POS@@@std@@QAEXPAU_RANGDA_POS@@I@Z
_TEXT	SEGMENT PARA USE32 PUBLIC 'CODE'
_TEXT	ENDS
;	COMDAT ?allocate@?$allocator@U_RANGDA_POS@@@std@@QAEPAU_RANGDA_POS@@I@Z
_TEXT	SEGMENT PARA USE32 PUBLIC 'CODE'
_TEXT	ENDS
;	COMDAT ?max_size@?$vector@PAVCRangda@@V?$allocator@PAVCRangda@@@std@@@std@@QBEIXZ
_TEXT	SEGMENT PARA USE32 PUBLIC 'CODE'
_TEXT	ENDS
;	COMDAT ?_Destroy@?$vector@PAVCRangda@@V?$allocator@PAVCRangda@@@std@@@std@@IAEXPAPAVCRangda@@0@Z
_TEXT	SEGMENT PARA USE32 PUBLIC 'CODE'
_TEXT	ENDS
;	COMDAT ?_Insert_n@?$vector@PAVCRangda@@V?$allocator@PAVCRangda@@@std@@@std@@IAEXViterator@12@IABQAVCRangda@@@Z
_TEXT	SEGMENT PARA USE32 PUBLIC 'CODE'
_TEXT	ENDS
;	COMDAT ?_Xlen@?$vector@PAVCRangda@@V?$allocator@PAVCRangda@@@std@@@std@@IBEXXZ
_TEXT	SEGMENT PARA USE32 PUBLIC 'CODE'
_TEXT	ENDS
;	COMDAT ??0?$allocator@PAVCRangda@@@std@@QAE@ABV01@@Z
_TEXT	SEGMENT PARA USE32 PUBLIC 'CODE'
_TEXT	ENDS
;	COMDAT ?deallocate@?$allocator@PAVCRangda@@@std@@QAEXPAPAVCRangda@@I@Z
_TEXT	SEGMENT PARA USE32 PUBLIC 'CODE'
_TEXT	ENDS
;	COMDAT ?allocate@?$allocator@PAVCRangda@@@std@@QAEPAPAVCRangda@@I@Z
_TEXT	SEGMENT PARA USE32 PUBLIC 'CODE'
_TEXT	ENDS
;	COMDAT ?max_size@?$vector@MV?$allocator@M@std@@@std@@QBEIXZ
_TEXT	SEGMENT PARA USE32 PUBLIC 'CODE'
_TEXT	ENDS
;	COMDAT ?_Destroy@?$vector@MV?$allocator@M@std@@@std@@IAEXPAM0@Z
_TEXT	SEGMENT PARA USE32 PUBLIC 'CODE'
_TEXT	ENDS
;	COMDAT ?_Xlen@?$vector@MV?$allocator@M@std@@@std@@IBEXXZ
_TEXT	SEGMENT PARA USE32 PUBLIC 'CODE'
_TEXT	ENDS
;	COMDAT ??0?$allocator@M@std@@QAE@ABV01@@Z
_TEXT	SEGMENT PARA USE32 PUBLIC 'CODE'
_TEXT	ENDS
;	COMDAT ?deallocate@?$allocator@M@std@@QAEXPAMI@Z
_TEXT	SEGMENT PARA USE32 PUBLIC 'CODE'
_TEXT	ENDS
;	COMDAT ?allocate@?$allocator@M@std@@QAEPAMI@Z
_TEXT	SEGMENT PARA USE32 PUBLIC 'CODE'
_TEXT	ENDS
;	COMDAT ??Hiterator@?$vector@PAVCRangda@@V?$allocator@PAVCRangda@@@std@@@std@@QBE?AV012@H@Z
_TEXT	SEGMENT PARA USE32 PUBLIC 'CODE'
_TEXT	ENDS
;	COMDAT ??Giterator@?$vector@PAVCRangda@@V?$allocator@PAVCRangda@@@std@@@std@@QBEHABVconst_iterator@12@@Z
_TEXT	SEGMENT PARA USE32 PUBLIC 'CODE'
_TEXT	ENDS
;	COMDAT ??0const_iterator@?$vector@PAVCRangda@@V?$allocator@PAVCRangda@@@std@@@std@@QAE@PAPAVCRangda@@@Z
_TEXT	SEGMENT PARA USE32 PUBLIC 'CODE'
_TEXT	ENDS
;	COMDAT ??0iterator@?$vector@U_RANGDA_POS@@V?$allocator@U_RANGDA_POS@@@std@@@std@@QAE@PAU_RANGDA_POS@@@Z
_TEXT	SEGMENT PARA USE32 PUBLIC 'CODE'
_TEXT	ENDS
;	COMDAT ??Yiterator@?$vector@U_RANGDA_POS@@V?$allocator@U_RANGDA_POS@@@std@@@std@@QAEAAV012@H@Z
_TEXT	SEGMENT PARA USE32 PUBLIC 'CODE'
_TEXT	ENDS
;	COMDAT ??Giterator@?$vector@U_RANGDA_POS@@V?$allocator@U_RANGDA_POS@@@std@@@std@@QBEHABVconst_iterator@12@@Z
_TEXT	SEGMENT PARA USE32 PUBLIC 'CODE'
_TEXT	ENDS
;	COMDAT ??Dconst_iterator@?$vector@U_RANGDA_POS@@V?$allocator@U_RANGDA_POS@@@std@@@std@@QBEABU_RANGDA_POS@@XZ
_TEXT	SEGMENT PARA USE32 PUBLIC 'CODE'
_TEXT	ENDS
;	COMDAT ?destroy@?$allocator@PAUtagACTMSG@@@std@@QAEXPAPAUtagACTMSG@@@Z
_TEXT	SEGMENT PARA USE32 PUBLIC 'CODE'
_TEXT	ENDS
;	COMDAT ?destroy@?$allocator@PAUtagMAGICATKMSG@@@std@@QAEXPAPAUtagMAGICATKMSG@@@Z
_TEXT	SEGMENT PARA USE32 PUBLIC 'CODE'
_TEXT	ENDS
;	COMDAT ?max_size@?$allocator@U_RANGDA_POS@@@std@@QBEIXZ
_TEXT	SEGMENT PARA USE32 PUBLIC 'CODE'
_TEXT	ENDS
;	COMDAT ?max_size@?$allocator@PAVCRangda@@@std@@QBEIXZ
_TEXT	SEGMENT PARA USE32 PUBLIC 'CODE'
_TEXT	ENDS
;	COMDAT ?max_size@?$allocator@M@std@@QBEIXZ
_TEXT	SEGMENT PARA USE32 PUBLIC 'CODE'
_TEXT	ENDS
;	COMDAT ??Yiterator@?$vector@PAVCRangda@@V?$allocator@PAVCRangda@@@std@@@std@@QAEAAV012@H@Z
_TEXT	SEGMENT PARA USE32 PUBLIC 'CODE'
_TEXT	ENDS
;	COMDAT ??Gconst_iterator@?$vector@PAVCRangda@@V?$allocator@PAVCRangda@@@std@@@std@@QBEHABV012@@Z
_TEXT	SEGMENT PARA USE32 PUBLIC 'CODE'
_TEXT	ENDS
;	COMDAT ??0const_iterator@?$vector@U_RANGDA_POS@@V?$allocator@U_RANGDA_POS@@@std@@@std@@QAE@PAU_RANGDA_POS@@@Z
_TEXT	SEGMENT PARA USE32 PUBLIC 'CODE'
_TEXT	ENDS
;	COMDAT ??Gconst_iterator@?$vector@U_RANGDA_POS@@V?$allocator@U_RANGDA_POS@@@std@@@std@@QBEHABV012@@Z
_TEXT	SEGMENT PARA USE32 PUBLIC 'CODE'
_TEXT	ENDS
;	COMDAT ??$_Iter_cat@Vconst_iterator@?$vector@EV?$allocator@E@std@@@std@@@std@@YA?AUrandom_access_iterator_tag@0@ABVconst_iterator@?$vector@EV?$allocator@E@std@@@0@@Z
_TEXT	SEGMENT PARA USE32 PUBLIC 'CODE'
_TEXT	ENDS
;	COMDAT ??$_Assign@Vconst_iterator@?$vector@EV?$allocator@E@std@@@std@@@?$vector@EV?$allocator@E@std@@@std@@QAEXVconst_iterator@01@0Uinput_iterator_tag@1@@Z
_TEXT	SEGMENT PARA USE32 PUBLIC 'CODE'
_TEXT	ENDS
;	COMDAT ??$_Iter_cat@Viterator@?$_Tree@V?$_Tmap_traits@KPAVCUser@@U?$less@K@std@@V?$allocator@U?$pair@$$CBKPAVCUser@@@std@@@3@$0A@@std@@@std@@@std@@YA?AUbidirectional_iterator_tag@0@ABViterator@?$_Tree@V?$_Tmap_traits@KPAVCUser@@U?$less@K@std@@V?$allocator@U?$pair@$$CBKPAVCUser@@@std@@@3@$0A@@std@@@0@@Z
_TEXT	SEGMENT PARA USE32 PUBLIC 'CODE'
_TEXT	ENDS
;	COMDAT ??$_Distance2@Viterator@?$_Tree@V?$_Tmap_traits@KPAVCUser@@U?$less@K@std@@V?$allocator@U?$pair@$$CBKPAVCUser@@@std@@@3@$0A@@std@@@std@@I@std@@YAXViterator@?$_Tree@V?$_Tmap_traits@KPAVCUser@@U?$less@K@std@@V?$allocator@U?$pair@$$CBKPAVCUser@@@std@@@3@$0A@@std@@@0@0AAIUbidirectional_iterator_tag@0@@Z
_TEXT	SEGMENT PARA USE32 PUBLIC 'CODE'
_TEXT	ENDS
;	COMDAT ??$_Iter_cat@Viterator@?$_Tree@V?$_Tmap_traits@KPAVCCtrl@@U?$less@K@std@@V?$allocator@U?$pair@$$CBKPAVCCtrl@@@std@@@3@$0A@@std@@@std@@@std@@YA?AUbidirectional_iterator_tag@0@ABViterator@?$_Tree@V?$_Tmap_traits@KPAVCCtrl@@U?$less@K@std@@V?$allocator@U?$pair@$$CBKPAVCCtrl@@@std@@@3@$0A@@std@@@0@@Z
_TEXT	SEGMENT PARA USE32 PUBLIC 'CODE'
_TEXT	ENDS
;	COMDAT ??$_Distance2@Viterator@?$_Tree@V?$_Tmap_traits@KPAVCCtrl@@U?$less@K@std@@V?$allocator@U?$pair@$$CBKPAVCCtrl@@@std@@@3@$0A@@std@@@std@@I@std@@YAXViterator@?$_Tree@V?$_Tmap_traits@KPAVCCtrl@@U?$less@K@std@@V?$allocator@U?$pair@$$CBKPAVCCtrl@@@std@@@3@$0A@@std@@@0@0AAIUbidirectional_iterator_tag@0@@Z
_TEXT	SEGMENT PARA USE32 PUBLIC 'CODE'
_TEXT	ENDS
;	COMDAT ??$_Uninitialized_copy@Vconst_iterator@?$vector@EV?$allocator@E@std@@@std@@PAEV?$allocator@E@3@@std@@YAPAEVconst_iterator@?$vector@EV?$allocator@E@std@@@0@0PAEAAV?$allocator@E@0@@Z
_TEXT	SEGMENT PARA USE32 PUBLIC 'CODE'
_TEXT	ENDS
;	COMDAT ??$_Iter_cat@Viterator@?$_Tree@V?$_Tmap_traits@KEU?$less@K@std@@V?$allocator@U?$pair@$$CBKE@std@@@2@$0A@@std@@@std@@@std@@YA?AUbidirectional_iterator_tag@0@ABViterator@?$_Tree@V?$_Tmap_traits@KEU?$less@K@std@@V?$allocator@U?$pair@$$CBKE@std@@@2@$0A@@std@@@0@@Z
_TEXT	SEGMENT PARA USE32 PUBLIC 'CODE'
_TEXT	ENDS
;	COMDAT ??$_Distance2@Viterator@?$_Tree@V?$_Tmap_traits@KEU?$less@K@std@@V?$allocator@U?$pair@$$CBKE@std@@@2@$0A@@std@@@std@@I@std@@YAXViterator@?$_Tree@V?$_Tmap_traits@KEU?$less@K@std@@V?$allocator@U?$pair@$$CBKE@std@@@2@$0A@@std@@@0@0AAIUbidirectional_iterator_tag@0@@Z
_TEXT	SEGMENT PARA USE32 PUBLIC 'CODE'
_TEXT	ENDS
;	COMDAT ??$_Ptr_cat@PAU__SPAWNREGION@CEventLua@@PAU12@@std@@YA?AU_Nonscalar_ptr_iterator_tag@0@AAPAU__SPAWNREGION@CEventLua@@0@Z
_TEXT	SEGMENT PARA USE32 PUBLIC 'CODE'
_TEXT	ENDS
;	COMDAT ??$_Uninit_fill_n@PAU__SPAWNREGION@CEventLua@@IU12@V?$allocator@U__SPAWNREGION@CEventLua@@@std@@@std@@YAXPAU__SPAWNREGION@CEventLua@@IABU12@AAV?$allocator@U__SPAWNREGION@CEventLua@@@0@U_Nonscalar_ptr_iterator_tag@0@@Z
_TEXT	SEGMENT PARA USE32 PUBLIC 'CODE'
_TEXT	ENDS
;	COMDAT ??$_Copy_opt@PAJPAJ@std@@YAPAJPAJ00U_Scalar_ptr_iterator_tag@0@@Z
_TEXT	SEGMENT PARA USE32 PUBLIC 'CODE'
_TEXT	ENDS
;	COMDAT ??$_Uninitialized_copy@PAJPAJV?$allocator@J@std@@@std@@YAPAJPAJ00AAV?$allocator@J@0@@Z
_TEXT	SEGMENT PARA USE32 PUBLIC 'CODE'
_TEXT	ENDS
;	COMDAT ??$_Copy_backward_opt@PAJPAJ@std@@YAPAJPAJ00U_Scalar_ptr_iterator_tag@0@@Z
_TEXT	SEGMENT PARA USE32 PUBLIC 'CODE'
_TEXT	ENDS
;	COMDAT ??$_Ptr_cat@PAUtagDROPITEM@@PAU1@@std@@YA?AU_Nonscalar_ptr_iterator_tag@0@AAPAUtagDROPITEM@@0@Z
_TEXT	SEGMENT PARA USE32 PUBLIC 'CODE'
_TEXT	ENDS
;	COMDAT ??$_Destroy_range@UtagDROPITEM@@V?$allocator@UtagDROPITEM@@@std@@@std@@YAXPAUtagDROPITEM@@0AAV?$allocator@UtagDROPITEM@@@0@U_Nonscalar_ptr_iterator_tag@0@@Z
_TEXT	SEGMENT PARA USE32 PUBLIC 'CODE'
_TEXT	ENDS
;	COMDAT ??$_Ptr_cat@PAUWORMON@@PAU1@@std@@YA?AU_Nonscalar_ptr_iterator_tag@0@AAPAUWORMON@@0@Z
_TEXT	SEGMENT PARA USE32 PUBLIC 'CODE'
_TEXT	ENDS
;	COMDAT ??$_Destroy_range@UWORMON@@V?$allocator@UWORMON@@@std@@@std@@YAXPAUWORMON@@0AAV?$allocator@UWORMON@@@0@U_Nonscalar_ptr_iterator_tag@0@@Z
_TEXT	SEGMENT PARA USE32 PUBLIC 'CODE'
_TEXT	ENDS
;	COMDAT ??$_Ptr_cat@PAU__ITEMGAME@CMiniGame@@PAU12@@std@@YA?AU_Nonscalar_ptr_iterator_tag@0@AAPAU__ITEMGAME@CMiniGame@@0@Z
_TEXT	SEGMENT PARA USE32 PUBLIC 'CODE'
_TEXT	ENDS
;	COMDAT ??$_Destroy_range@U__ITEMGAME@CMiniGame@@V?$allocator@U__ITEMGAME@CMiniGame@@@std@@@std@@YAXPAU__ITEMGAME@CMiniGame@@0AAV?$allocator@U__ITEMGAME@CMiniGame@@@0@U_Nonscalar_ptr_iterator_tag@0@@Z
_TEXT	SEGMENT PARA USE32 PUBLIC 'CODE'
_TEXT	ENDS
;	COMDAT ??$_Destroy_range@KV?$allocator@K@std@@@std@@YAXPAK0AAV?$allocator@K@0@U_Scalar_ptr_iterator_tag@0@@Z
_TEXT	SEGMENT PARA USE32 PUBLIC 'CODE'
_TEXT	ENDS
;	COMDAT ??$_Destroy_range@HV?$allocator@H@std@@@std@@YAXPAH0AAV?$allocator@H@0@U_Scalar_ptr_iterator_tag@0@@Z
_TEXT	SEGMENT PARA USE32 PUBLIC 'CODE'
_TEXT	ENDS
;	COMDAT ??$_Ptr_cat@PAU__ITEM@CExchange@@PAU12@@std@@YA?AU_Nonscalar_ptr_iterator_tag@0@AAPAU__ITEM@CExchange@@0@Z
_TEXT	SEGMENT PARA USE32 PUBLIC 'CODE'
_TEXT	ENDS
;	COMDAT ??$_Destroy_range@U__ITEM@CExchange@@V?$allocator@U__ITEM@CExchange@@@std@@@std@@YAXPAU__ITEM@CExchange@@0AAV?$allocator@U__ITEM@CExchange@@@0@U_Nonscalar_ptr_iterator_tag@0@@Z
_TEXT	SEGMENT PARA USE32 PUBLIC 'CODE'
_TEXT	ENDS
;	COMDAT ??$_Ptr_cat@PAU__POINT@CExchange@@PAU12@@std@@YA?AU_Nonscalar_ptr_iterator_tag@0@AAPAU__POINT@CExchange@@0@Z
_TEXT	SEGMENT PARA USE32 PUBLIC 'CODE'
_TEXT	ENDS
;	COMDAT ??$_Destroy_range@U__POINT@CExchange@@V?$allocator@U__POINT@CExchange@@@std@@@std@@YAXPAU__POINT@CExchange@@0AAV?$allocator@U__POINT@CExchange@@@0@U_Nonscalar_ptr_iterator_tag@0@@Z
_TEXT	SEGMENT PARA USE32 PUBLIC 'CODE'
_TEXT	ENDS
;	COMDAT ??$_Destroy_range@EV?$allocator@E@std@@@std@@YAXPAE0AAV?$allocator@E@0@U_Scalar_ptr_iterator_tag@0@@Z
_TEXT	SEGMENT PARA USE32 PUBLIC 'CODE'
_TEXT	ENDS
;	COMDAT ??$_Uninitialized_copy@PAU__SPAWNREGION@CEventLua@@PAU12@V?$allocator@U__SPAWNREGION@CEventLua@@@std@@@std@@YAPAU__SPAWNREGION@CEventLua@@PAU12@00AAV?$allocator@U__SPAWNREGION@CEventLua@@@0@@Z
_TEXT	SEGMENT PARA USE32 PUBLIC 'CODE'
_TEXT	ENDS
;	COMDAT ??$_Copy_backward_opt@PAU__SPAWNREGION@CEventLua@@PAU12@@std@@YAPAU__SPAWNREGION@CEventLua@@PAU12@00U_Nonscalar_ptr_iterator_tag@0@@Z
_TEXT	SEGMENT PARA USE32 PUBLIC 'CODE'
_TEXT	ENDS
;	COMDAT ??$_Ptr_cat@PAUD3DXVECTOR3@@PAU1@@std@@YA?AU_Nonscalar_ptr_iterator_tag@0@AAPAUD3DXVECTOR3@@0@Z
_TEXT	SEGMENT PARA USE32 PUBLIC 'CODE'
_TEXT	ENDS
;	COMDAT ??$_Destroy_range@UD3DXVECTOR3@@V?$allocator@UD3DXVECTOR3@@@std@@@std@@YAXPAUD3DXVECTOR3@@0AAV?$allocator@UD3DXVECTOR3@@@0@U_Nonscalar_ptr_iterator_tag@0@@Z
_TEXT	SEGMENT PARA USE32 PUBLIC 'CODE'
_TEXT	ENDS
;	COMDAT ??$_Ptr_cat@PAU_GIFTBOX@@PAU1@@std@@YA?AU_Nonscalar_ptr_iterator_tag@0@AAPAU_GIFTBOX@@0@Z
_TEXT	SEGMENT PARA USE32 PUBLIC 'CODE'
_TEXT	ENDS
;	COMDAT ??$_Destroy_range@U_GIFTBOX@@V?$allocator@U_GIFTBOX@@@std@@@std@@YAXPAU_GIFTBOX@@0AAV?$allocator@U_GIFTBOX@@@0@U_Nonscalar_ptr_iterator_tag@0@@Z
_TEXT	SEGMENT PARA USE32 PUBLIC 'CODE'
_TEXT	ENDS
;	COMDAT ??$_Destroy_range@JV?$allocator@J@std@@@std@@YAXPAJ0AAV?$allocator@J@0@U_Scalar_ptr_iterator_tag@0@@Z
_TEXT	SEGMENT PARA USE32 PUBLIC 'CODE'
_TEXT	ENDS
;	COMDAT ??$_Uninit_fill_n@JIJ@std@@YAXPAJIABJAAV?$allocator@J@0@U_Scalar_ptr_iterator_tag@0@@Z
_TEXT	SEGMENT PARA USE32 PUBLIC 'CODE'
_TEXT	ENDS
;	COMDAT ??$_Destroy_range@U__SPAWNREGION@CEventLua@@V?$allocator@U__SPAWNREGION@CEventLua@@@std@@@std@@YAXPAU__SPAWNREGION@CEventLua@@0AAV?$allocator@U__SPAWNREGION@CEventLua@@@0@U_Nonscalar_ptr_iterator_tag@0@@Z
_TEXT	SEGMENT PARA USE32 PUBLIC 'CODE'
_TEXT	ENDS
;	COMDAT ??1?$CFixedArray@UtagWORLD@@@@UAE@XZ
_TEXT	SEGMENT PARA USE32 PUBLIC 'CODE'
_TEXT	ENDS
;	COMDAT ?GetAt@?$CFixedArray@UtagWORLD@@@@QAEPAUtagWORLD@@K@Z
_TEXT	SEGMENT PARA USE32 PUBLIC 'CODE'
_TEXT	ENDS
;	COMDAT ??$throw_exception@Vbad_weak_ptr@boost@@@boost@@YAXABVbad_weak_ptr@0@@Z
_TEXT	SEGMENT PARA USE32 PUBLIC 'CODE'
_TEXT	ENDS
;	COMDAT ??$_Uninitialized_fill_n@PAU_RANGDA_POS@@IU1@V?$allocator@U_RANGDA_POS@@@std@@@std@@YAXPAU_RANGDA_POS@@IABU1@AAV?$allocator@U_RANGDA_POS@@@0@@Z
_TEXT	SEGMENT PARA USE32 PUBLIC 'CODE'
_TEXT	ENDS
;	COMDAT ??$_Uninitialized_fill_n@PAPAVCRangda@@IPAV1@V?$allocator@PAVCRangda@@@std@@@std@@YAXPAPAVCRangda@@IABQAV1@AAV?$allocator@PAVCRangda@@@0@@Z
_TEXT	SEGMENT PARA USE32 PUBLIC 'CODE'
_TEXT	ENDS
;	COMDAT ??$?0PAUtagACTMSG@@@?$allocator@PAPAUtagACTMSG@@@std@@QAE@ABV?$allocator@PAUtagACTMSG@@@1@@Z
_TEXT	SEGMENT PARA USE32 PUBLIC 'CODE'
_TEXT	ENDS
;	COMDAT ??$_Destroy@PAPAUtagACTMSG@@@std@@YAXPAPAPAUtagACTMSG@@@Z
_TEXT	SEGMENT PARA USE32 PUBLIC 'CODE'
_TEXT	ENDS
;	COMDAT ??$?0PAUtagMAGICATKMSG@@@?$allocator@PAPAUtagMAGICATKMSG@@@std@@QAE@ABV?$allocator@PAUtagMAGICATKMSG@@@1@@Z
_TEXT	SEGMENT PARA USE32 PUBLIC 'CODE'
_TEXT	ENDS
;	COMDAT ??$_Destroy@PAPAUtagMAGICATKMSG@@@std@@YAXPAPAPAUtagMAGICATKMSG@@@Z
_TEXT	SEGMENT PARA USE32 PUBLIC 'CODE'
_TEXT	ENDS
;	COMDAT ??$_Destroy_range@U_RANGDA_POS@@V?$allocator@U_RANGDA_POS@@@std@@@std@@YAXPAU_RANGDA_POS@@0AAV?$allocator@U_RANGDA_POS@@@0@@Z
_TEXT	SEGMENT PARA USE32 PUBLIC 'CODE'
_TEXT	ENDS
;	COMDAT ??$_Ucopy@PAU_RANGDA_POS@@@?$vector@U_RANGDA_POS@@V?$allocator@U_RANGDA_POS@@@std@@@std@@IAEPAU_RANGDA_POS@@PAU2@00@Z
_TEXT	SEGMENT PARA USE32 PUBLIC 'CODE'
_TEXT	ENDS
;	COMDAT ??$fill@PAU_RANGDA_POS@@U1@@std@@YAXPAU_RANGDA_POS@@0ABU1@@Z
_TEXT	SEGMENT PARA USE32 PUBLIC 'CODE'
_TEXT	ENDS
;	COMDAT ??$copy_backward@PAU_RANGDA_POS@@PAU1@@std@@YAPAU_RANGDA_POS@@PAU1@00@Z
_TEXT	SEGMENT PARA USE32 PUBLIC 'CODE'
_TEXT	ENDS
;	COMDAT ??$_Allocate@U_RANGDA_POS@@@std@@YAPAU_RANGDA_POS@@IPAU1@@Z
_TEXT	SEGMENT PARA USE32 PUBLIC 'CODE'
_TEXT	ENDS
;	COMDAT ??$_Destroy_range@PAVCRangda@@V?$allocator@PAVCRangda@@@std@@@std@@YAXPAPAVCRangda@@0AAV?$allocator@PAVCRangda@@@0@@Z
_TEXT	SEGMENT PARA USE32 PUBLIC 'CODE'
_TEXT	ENDS
;	COMDAT ??$_Ucopy@PAPAVCRangda@@@?$vector@PAVCRangda@@V?$allocator@PAVCRangda@@@std@@@std@@IAEPAPAVCRangda@@PAPAV2@00@Z
_TEXT	SEGMENT PARA USE32 PUBLIC 'CODE'
_TEXT	ENDS
;	COMDAT ??$fill@PAPAVCRangda@@PAV1@@std@@YAXPAPAVCRangda@@0ABQAV1@@Z
_TEXT	SEGMENT PARA USE32 PUBLIC 'CODE'
_TEXT	ENDS
;	COMDAT ??$copy_backward@PAPAVCRangda@@PAPAV1@@std@@YAPAPAVCRangda@@PAPAV1@00@Z
_TEXT	SEGMENT PARA USE32 PUBLIC 'CODE'
_TEXT	ENDS
;	COMDAT ??$_Allocate@PAVCRangda@@@std@@YAPAPAVCRangda@@IPAPAV1@@Z
_TEXT	SEGMENT PARA USE32 PUBLIC 'CODE'
_TEXT	ENDS
;	COMDAT ??$_Destroy_range@MV?$allocator@M@std@@@std@@YAXPAM0AAV?$allocator@M@0@@Z
_TEXT	SEGMENT PARA USE32 PUBLIC 'CODE'
_TEXT	ENDS
;	COMDAT ??$_Allocate@M@std@@YAPAMIPAM@Z
_TEXT	SEGMENT PARA USE32 PUBLIC 'CODE'
_TEXT	ENDS
;	COMDAT ??$_Destroy@PAUtagACTMSG@@@std@@YAXPAPAUtagACTMSG@@@Z
_TEXT	SEGMENT PARA USE32 PUBLIC 'CODE'
_TEXT	ENDS
;	COMDAT ??$_Destroy@PAUtagMAGICATKMSG@@@std@@YAXPAPAUtagMAGICATKMSG@@@Z
_TEXT	SEGMENT PARA USE32 PUBLIC 'CODE'
_TEXT	ENDS
;	COMDAT ??_G?$CFixedArray@UtagWORLD@@@@UAEPAXI@Z
_TEXT	SEGMENT PARA USE32 PUBLIC 'CODE'
_TEXT	ENDS
;	COMDAT ??0bad_weak_ptr@boost@@QAE@ABV01@@Z
_TEXT	SEGMENT PARA USE32 PUBLIC 'CODE'
_TEXT	ENDS
;	COMDAT ?destroy@?$allocator@UtagDROPITEM@@@std@@QAEXPAUtagDROPITEM@@@Z
_TEXT	SEGMENT PARA USE32 PUBLIC 'CODE'
_TEXT	ENDS
;	COMDAT ?destroy@?$allocator@UWORMON@@@std@@QAEXPAUWORMON@@@Z
_TEXT	SEGMENT PARA USE32 PUBLIC 'CODE'
_TEXT	ENDS
;	COMDAT ?destroy@?$allocator@U__ITEMGAME@CMiniGame@@@std@@QAEXPAU__ITEMGAME@CMiniGame@@@Z
_TEXT	SEGMENT PARA USE32 PUBLIC 'CODE'
_TEXT	ENDS
;	COMDAT ?destroy@?$allocator@U__ITEM@CExchange@@@std@@QAEXPAU__ITEM@CExchange@@@Z
_TEXT	SEGMENT PARA USE32 PUBLIC 'CODE'
_TEXT	ENDS
;	COMDAT ?destroy@?$allocator@U__POINT@CExchange@@@std@@QAEXPAU__POINT@CExchange@@@Z
_TEXT	SEGMENT PARA USE32 PUBLIC 'CODE'
_TEXT	ENDS
;	COMDAT ?begin@?$vector@EV?$allocator@E@std@@@std@@QAE?AViterator@12@XZ
_TEXT	SEGMENT PARA USE32 PUBLIC 'CODE'
_TEXT	ENDS
;	COMDAT ?end@?$vector@EV?$allocator@E@std@@@std@@QAE?AViterator@12@XZ
_TEXT	SEGMENT PARA USE32 PUBLIC 'CODE'
_TEXT	ENDS
;	COMDAT ?erase@?$vector@EV?$allocator@E@std@@@std@@QAE?AViterator@12@V312@0@Z
_TEXT	SEGMENT PARA USE32 PUBLIC 'CODE'
_TEXT	ENDS
;	COMDAT ?construct@?$allocator@U__SPAWNREGION@CEventLua@@@std@@QAEXPAU__SPAWNREGION@CEventLua@@ABU34@@Z
_TEXT	SEGMENT PARA USE32 PUBLIC 'CODE'
_TEXT	ENDS
;	COMDAT ?destroy@?$allocator@U__SPAWNREGION@CEventLua@@@std@@QAEXPAU__SPAWNREGION@CEventLua@@@Z
_TEXT	SEGMENT PARA USE32 PUBLIC 'CODE'
_TEXT	ENDS
;	COMDAT ?destroy@?$allocator@UD3DXVECTOR3@@@std@@QAEXPAUD3DXVECTOR3@@@Z
_TEXT	SEGMENT PARA USE32 PUBLIC 'CODE'
_TEXT	ENDS
;	COMDAT ?destroy@?$allocator@U_GIFTBOX@@@std@@QAEXPAU_GIFTBOX@@@Z
_TEXT	SEGMENT PARA USE32 PUBLIC 'CODE'
_TEXT	ENDS
;	COMDAT ??9const_iterator@?$vector@EV?$allocator@E@std@@@std@@QBE_NABV012@@Z
_TEXT	SEGMENT PARA USE32 PUBLIC 'CODE'
_TEXT	ENDS
;	COMDAT ??0iterator@?$vector@EV?$allocator@E@std@@@std@@QAE@PAE@Z
_TEXT	SEGMENT PARA USE32 PUBLIC 'CODE'
_TEXT	ENDS
;	COMDAT ??8const_iterator@?$vector@EV?$allocator@E@std@@@std@@QBE_NABV012@@Z
_TEXT	SEGMENT PARA USE32 PUBLIC 'CODE'
_TEXT	ENDS
;	COMDAT ??$insert@Vconst_iterator@?$vector@EV?$allocator@E@std@@@std@@@?$vector@EV?$allocator@E@std@@@std@@QAEXViterator@01@Vconst_iterator@01@1@Z
_TEXT	SEGMENT PARA USE32 PUBLIC 'CODE'
_TEXT	ENDS
;	COMDAT ??$_Ptr_cat@Vconst_iterator@?$vector@EV?$allocator@E@std@@@std@@PAE@std@@YA?AU_Nonscalar_ptr_iterator_tag@0@AAVconst_iterator@?$vector@EV?$allocator@E@std@@@0@AAPAE@Z
_TEXT	SEGMENT PARA USE32 PUBLIC 'CODE'
_TEXT	ENDS
;	COMDAT ??$_Uninit_copy@Vconst_iterator@?$vector@EV?$allocator@E@std@@@std@@PAEV?$allocator@E@3@@std@@YAPAEVconst_iterator@?$vector@EV?$allocator@E@std@@@0@0PAEAAV?$allocator@E@0@U_Nonscalar_ptr_iterator_tag@0@@Z
_TEXT	SEGMENT PARA USE32 PUBLIC 'CODE'
_TEXT	ENDS
;	COMDAT ??$_Uninit_copy@JJ@std@@YAPAJPAJ00AAV?$allocator@J@0@U_Scalar_ptr_iterator_tag@0@@Z
_TEXT	SEGMENT PARA USE32 PUBLIC 'CODE'
_TEXT	ENDS
;	COMDAT ??$_Uninit_copy@PAU__SPAWNREGION@CEventLua@@PAU12@V?$allocator@U__SPAWNREGION@CEventLua@@@std@@@std@@YAPAU__SPAWNREGION@CEventLua@@PAU12@00AAV?$allocator@U__SPAWNREGION@CEventLua@@@0@U_Nonscalar_ptr_iterator_tag@0@@Z
_TEXT	SEGMENT PARA USE32 PUBLIC 'CODE'
_TEXT	ENDS
;	COMDAT ??$fill_n@PAJIJ@std@@YAXPAJIABJ@Z
_TEXT	SEGMENT PARA USE32 PUBLIC 'CODE'
_TEXT	ENDS
;	COMDAT ??$_Ptr_cat@PAU_RANGDA_POS@@PAU1@@std@@YA?AU_Nonscalar_ptr_iterator_tag@0@AAPAU_RANGDA_POS@@0@Z
_TEXT	SEGMENT PARA USE32 PUBLIC 'CODE'
_TEXT	ENDS
;	COMDAT ??$_Uninit_fill_n@PAU_RANGDA_POS@@IU1@V?$allocator@U_RANGDA_POS@@@std@@@std@@YAXPAU_RANGDA_POS@@IABU1@AAV?$allocator@U_RANGDA_POS@@@0@U_Nonscalar_ptr_iterator_tag@0@@Z
_TEXT	SEGMENT PARA USE32 PUBLIC 'CODE'
_TEXT	ENDS
;	COMDAT ??$_Ptr_cat@VCRangda@@@std@@YA?AU_Scalar_ptr_iterator_tag@0@PAPAVCRangda@@0@Z
_TEXT	SEGMENT PARA USE32 PUBLIC 'CODE'
_TEXT	ENDS
;	COMDAT ??$_Uninit_fill_n@PAVCRangda@@IPAV1@@std@@YAXPAPAVCRangda@@IABQAV1@AAV?$allocator@PAVCRangda@@@0@U_Scalar_ptr_iterator_tag@0@@Z
_TEXT	SEGMENT PARA USE32 PUBLIC 'CODE'
_TEXT	ENDS
;	COMDAT ??$_Destroy_range@U_RANGDA_POS@@V?$allocator@U_RANGDA_POS@@@std@@@std@@YAXPAU_RANGDA_POS@@0AAV?$allocator@U_RANGDA_POS@@@0@U_Nonscalar_ptr_iterator_tag@0@@Z
_TEXT	SEGMENT PARA USE32 PUBLIC 'CODE'
_TEXT	ENDS
;	COMDAT ??$_Uninitialized_copy@PAU_RANGDA_POS@@PAU1@V?$allocator@U_RANGDA_POS@@@std@@@std@@YAPAU_RANGDA_POS@@PAU1@00AAV?$allocator@U_RANGDA_POS@@@0@@Z
_TEXT	SEGMENT PARA USE32 PUBLIC 'CODE'
_TEXT	ENDS
;	COMDAT ??$_Copy_backward_opt@PAU_RANGDA_POS@@PAU1@@std@@YAPAU_RANGDA_POS@@PAU1@00U_Nonscalar_ptr_iterator_tag@0@@Z
_TEXT	SEGMENT PARA USE32 PUBLIC 'CODE'
_TEXT	ENDS
;	COMDAT ??$_Destroy_range@PAVCRangda@@V?$allocator@PAVCRangda@@@std@@@std@@YAXPAPAVCRangda@@0AAV?$allocator@PAVCRangda@@@0@U_Scalar_ptr_iterator_tag@0@@Z
_TEXT	SEGMENT PARA USE32 PUBLIC 'CODE'
_TEXT	ENDS
;	COMDAT ??$_Uninitialized_copy@PAPAVCRangda@@PAPAV1@V?$allocator@PAVCRangda@@@std@@@std@@YAPAPAVCRangda@@PAPAV1@00AAV?$allocator@PAVCRangda@@@0@@Z
_TEXT	SEGMENT PARA USE32 PUBLIC 'CODE'
_TEXT	ENDS
;	COMDAT ??$_Copy_backward_opt@PAPAVCRangda@@PAPAV1@@std@@YAPAPAVCRangda@@PAPAV1@00U_Scalar_ptr_iterator_tag@0@@Z
_TEXT	SEGMENT PARA USE32 PUBLIC 'CODE'
_TEXT	ENDS
;	COMDAT ??$_Destroy_range@MV?$allocator@M@std@@@std@@YAXPAM0AAV?$allocator@M@0@U_Scalar_ptr_iterator_tag@0@@Z
_TEXT	SEGMENT PARA USE32 PUBLIC 'CODE'
_TEXT	ENDS
;	COMDAT ??$_Destroy@UtagDROPITEM@@@std@@YAXPAUtagDROPITEM@@@Z
_TEXT	SEGMENT PARA USE32 PUBLIC 'CODE'
_TEXT	ENDS
;	COMDAT ??$_Destroy@UWORMON@@@std@@YAXPAUWORMON@@@Z
_TEXT	SEGMENT PARA USE32 PUBLIC 'CODE'
_TEXT	ENDS
;	COMDAT ??$_Destroy@U__ITEMGAME@CMiniGame@@@std@@YAXPAU__ITEMGAME@CMiniGame@@@Z
_TEXT	SEGMENT PARA USE32 PUBLIC 'CODE'
_TEXT	ENDS
;	COMDAT ??$_Destroy@U__ITEM@CExchange@@@std@@YAXPAU__ITEM@CExchange@@@Z
_TEXT	SEGMENT PARA USE32 PUBLIC 'CODE'
_TEXT	ENDS
;	COMDAT ??$_Destroy@U__POINT@CExchange@@@std@@YAXPAU__POINT@CExchange@@@Z
_TEXT	SEGMENT PARA USE32 PUBLIC 'CODE'
_TEXT	ENDS
;	COMDAT ??$copy@PAEPAE@std@@YAPAEPAE00@Z
_TEXT	SEGMENT PARA USE32 PUBLIC 'CODE'
_TEXT	ENDS
;	COMDAT ??$_Construct@U__SPAWNREGION@CEventLua@@U12@@std@@YAXPAU__SPAWNREGION@CEventLua@@ABU12@@Z
_TEXT	SEGMENT PARA USE32 PUBLIC 'CODE'
_TEXT	ENDS
;	COMDAT ??$_Destroy@U__SPAWNREGION@CEventLua@@@std@@YAXPAU__SPAWNREGION@CEventLua@@@Z
_TEXT	SEGMENT PARA USE32 PUBLIC 'CODE'
_TEXT	ENDS
;	COMDAT ??$_Destroy@UD3DXVECTOR3@@@std@@YAXPAUD3DXVECTOR3@@@Z
_TEXT	SEGMENT PARA USE32 PUBLIC 'CODE'
_TEXT	ENDS
;	COMDAT ??$_Destroy@U_GIFTBOX@@@std@@YAXPAU_GIFTBOX@@@Z
_TEXT	SEGMENT PARA USE32 PUBLIC 'CODE'
_TEXT	ENDS
;	COMDAT ?construct@?$allocator@E@std@@QAEXPAEABE@Z
_TEXT	SEGMENT PARA USE32 PUBLIC 'CODE'
_TEXT	ENDS
;	COMDAT ?destroy@?$allocator@E@std@@QAEXPAE@Z
_TEXT	SEGMENT PARA USE32 PUBLIC 'CODE'
_TEXT	ENDS
;	COMDAT ??Dconst_iterator@?$vector@EV?$allocator@E@std@@@std@@QBEABEXZ
_TEXT	SEGMENT PARA USE32 PUBLIC 'CODE'
_TEXT	ENDS
;	COMDAT ??Econst_iterator@?$vector@EV?$allocator@E@std@@@std@@QAEAAV012@XZ
_TEXT	SEGMENT PARA USE32 PUBLIC 'CODE'
_TEXT	ENDS
;	COMDAT ?construct@?$allocator@U_RANGDA_POS@@@std@@QAEXPAU_RANGDA_POS@@ABU3@@Z
_TEXT	SEGMENT PARA USE32 PUBLIC 'CODE'
_TEXT	ENDS
;	COMDAT ?destroy@?$allocator@U_RANGDA_POS@@@std@@QAEXPAU_RANGDA_POS@@@Z
_TEXT	SEGMENT PARA USE32 PUBLIC 'CODE'
_TEXT	ENDS
;	COMDAT ??$_Insert@Vconst_iterator@?$vector@EV?$allocator@E@std@@@std@@@?$vector@EV?$allocator@E@std@@@std@@QAEXViterator@01@Vconst_iterator@01@1Uforward_iterator_tag@1@@Z
_TEXT	SEGMENT PARA USE32 PUBLIC 'CODE'
_TEXT	ENDS
;	COMDAT ??$fill_n@PAPAVCRangda@@IPAV1@@std@@YAXPAPAVCRangda@@IABQAV1@@Z
_TEXT	SEGMENT PARA USE32 PUBLIC 'CODE'
_TEXT	ENDS
;	COMDAT ??$_Uninit_copy@PAU_RANGDA_POS@@PAU1@V?$allocator@U_RANGDA_POS@@@std@@@std@@YAPAU_RANGDA_POS@@PAU1@00AAV?$allocator@U_RANGDA_POS@@@0@U_Nonscalar_ptr_iterator_tag@0@@Z
_TEXT	SEGMENT PARA USE32 PUBLIC 'CODE'
_TEXT	ENDS
;	COMDAT ??$_Uninit_copy@PAVCRangda@@PAV1@@std@@YAPAPAVCRangda@@PAPAV1@00AAV?$allocator@PAVCRangda@@@0@U_Scalar_ptr_iterator_tag@0@@Z
_TEXT	SEGMENT PARA USE32 PUBLIC 'CODE'
_TEXT	ENDS
;	COMDAT ??$_Copy_opt@PAEPAE@std@@YAPAEPAE00U_Scalar_ptr_iterator_tag@0@@Z
_TEXT	SEGMENT PARA USE32 PUBLIC 'CODE'
_TEXT	ENDS
;	COMDAT ??$_Construct@EE@std@@YAXPAEABE@Z
_TEXT	SEGMENT PARA USE32 PUBLIC 'CODE'
_TEXT	ENDS
;	COMDAT ??$_Destroy@E@std@@YAXPAE@Z
_TEXT	SEGMENT PARA USE32 PUBLIC 'CODE'
_TEXT	ENDS
;	COMDAT ??$_Construct@U_RANGDA_POS@@U1@@std@@YAXPAU_RANGDA_POS@@ABU1@@Z
_TEXT	SEGMENT PARA USE32 PUBLIC 'CODE'
_TEXT	ENDS
;	COMDAT ??$_Destroy@U_RANGDA_POS@@@std@@YAXPAU_RANGDA_POS@@@Z
_TEXT	SEGMENT PARA USE32 PUBLIC 'CODE'
_TEXT	ENDS
;	COMDAT ?capacity@?$vector@EV?$allocator@E@std@@@std@@QBEIXZ
_TEXT	SEGMENT PARA USE32 PUBLIC 'CODE'
_TEXT	ENDS
;	COMDAT ??Giterator@?$vector@EV?$allocator@E@std@@@std@@QBEHABVconst_iterator@12@@Z
_TEXT	SEGMENT PARA USE32 PUBLIC 'CODE'
_TEXT	ENDS
;	COMDAT ??Gconst_iterator@?$vector@EV?$allocator@E@std@@@std@@QBEHABV012@@Z
_TEXT	SEGMENT PARA USE32 PUBLIC 'CODE'
_TEXT	ENDS
;	COMDAT ??$_Distance@Vconst_iterator@?$vector@EV?$allocator@E@std@@@std@@I@std@@YAXVconst_iterator@?$vector@EV?$allocator@E@std@@@0@0AAI@Z
_TEXT	SEGMENT PARA USE32 PUBLIC 'CODE'
_TEXT	ENDS
;	COMDAT ??$_Ucopy@PAE@?$vector@EV?$allocator@E@std@@@std@@IAEPAEPAE00@Z
_TEXT	SEGMENT PARA USE32 PUBLIC 'CODE'
_TEXT	ENDS
;	COMDAT ??$advance@Vconst_iterator@?$vector@EV?$allocator@E@std@@@std@@H@std@@YAXAAVconst_iterator@?$vector@EV?$allocator@E@std@@@0@H@Z
_TEXT	SEGMENT PARA USE32 PUBLIC 'CODE'
_TEXT	ENDS
;	COMDAT ??$copy@Vconst_iterator@?$vector@EV?$allocator@E@std@@@std@@PAE@std@@YAPAEVconst_iterator@?$vector@EV?$allocator@E@std@@@0@0PAE@Z
_TEXT	SEGMENT PARA USE32 PUBLIC 'CODE'
_TEXT	ENDS
;	COMDAT ??$copy_backward@PAEPAE@std@@YAPAEPAE00@Z
_TEXT	SEGMENT PARA USE32 PUBLIC 'CODE'
_TEXT	ENDS
;	COMDAT ??$_Distance2@Vconst_iterator@?$vector@EV?$allocator@E@std@@@std@@I@std@@YAXVconst_iterator@?$vector@EV?$allocator@E@std@@@0@0AAIUrandom_access_iterator_tag@0@@Z
_TEXT	SEGMENT PARA USE32 PUBLIC 'CODE'
_TEXT	ENDS
;	COMDAT ??$_Uninitialized_copy@PAEPAEV?$allocator@E@std@@@std@@YAPAEPAE00AAV?$allocator@E@0@@Z
_TEXT	SEGMENT PARA USE32 PUBLIC 'CODE'
_TEXT	ENDS
;	COMDAT ??$_Advance@Vconst_iterator@?$vector@EV?$allocator@E@std@@@std@@H@std@@YAXAAVconst_iterator@?$vector@EV?$allocator@E@std@@@0@HUrandom_access_iterator_tag@0@@Z
_TEXT	SEGMENT PARA USE32 PUBLIC 'CODE'
_TEXT	ENDS
;	COMDAT ??$_Copy_opt@Vconst_iterator@?$vector@EV?$allocator@E@std@@@std@@PAE@std@@YAPAEVconst_iterator@?$vector@EV?$allocator@E@std@@@0@0PAEU_Nonscalar_ptr_iterator_tag@0@@Z
_TEXT	SEGMENT PARA USE32 PUBLIC 'CODE'
_TEXT	ENDS
;	COMDAT ??$_Copy_backward_opt@PAEPAE@std@@YAPAEPAE00U_Scalar_ptr_iterator_tag@0@@Z
_TEXT	SEGMENT PARA USE32 PUBLIC 'CODE'
_TEXT	ENDS
;	COMDAT ??Yconst_iterator@?$vector@EV?$allocator@E@std@@@std@@QAEAAV012@H@Z
_TEXT	SEGMENT PARA USE32 PUBLIC 'CODE'
_TEXT	ENDS
;	COMDAT ??$_Uninit_copy@EE@std@@YAPAEPAE00AAV?$allocator@E@0@U_Scalar_ptr_iterator_tag@0@@Z
_TEXT	SEGMENT PARA USE32 PUBLIC 'CODE'
_TEXT	ENDS
;	COMDAT ?deallocate@?$allocator@E@std@@QAEXPAEI@Z
_TEXT	SEGMENT PARA USE32 PUBLIC 'CODE'
_TEXT	ENDS
;	COMDAT ??$_Ucopy@Vconst_iterator@?$vector@EV?$allocator@E@std@@@std@@@?$vector@EV?$allocator@E@std@@@std@@IAEPAEVconst_iterator@01@0PAE@Z
_TEXT	SEGMENT PARA USE32 PUBLIC 'CODE'
_TEXT	ENDS
;	COMDAT ?allocate@?$allocator@E@std@@QAEPAEI@Z
_TEXT	SEGMENT PARA USE32 PUBLIC 'CODE'
_TEXT	ENDS
;	COMDAT ??$_Allocate@E@std@@YAPAEIPAE@Z
_TEXT	SEGMENT PARA USE32 PUBLIC 'CODE'
_TEXT	ENDS
;	COMDAT ?_Xlen@?$vector@EV?$allocator@E@std@@@std@@IBEXXZ
_TEXT	SEGMENT PARA USE32 PUBLIC 'CODE'
_TEXT	ENDS
;	COMDAT ?size@?$vector@EV?$allocator@E@std@@@std@@QBEIXZ
_TEXT	SEGMENT PARA USE32 PUBLIC 'CODE'
_TEXT	ENDS
;	COMDAT ?max_size@?$vector@EV?$allocator@E@std@@@std@@QBEIXZ
_TEXT	SEGMENT PARA USE32 PUBLIC 'CODE'
_TEXT	ENDS
;	COMDAT ?max_size@?$allocator@E@std@@QBEIXZ
_TEXT	SEGMENT PARA USE32 PUBLIC 'CODE'
_TEXT	ENDS
;	COMDAT ??2@YAPAXIPAX@Z
_TEXT	SEGMENT PARA USE32 PUBLIC 'CODE'
_TEXT	ENDS
;	COMDAT ?_Ptr_cat@std@@YA?AU_Scalar_ptr_iterator_tag@1@PAE0@Z
_TEXT	SEGMENT PARA USE32 PUBLIC 'CODE'
_TEXT	ENDS
;	COMDAT ??0const_iterator@?$vector@EV?$allocator@E@std@@@std@@QAE@PAE@Z
_TEXT	SEGMENT PARA USE32 PUBLIC 'CODE'
_TEXT	ENDS
;	COMDAT ?_Destroy@?$vector@EV?$allocator@E@std@@@std@@IAEXPAE0@Z
_TEXT	SEGMENT PARA USE32 PUBLIC 'CODE'
_TEXT	ENDS
;	COMDAT ??$_Destroy_range@EV?$allocator@E@std@@@std@@YAXPAE0AAV?$allocator@E@0@@Z
_TEXT	SEGMENT PARA USE32 PUBLIC 'CODE'
_TEXT	ENDS
;	COMDAT ?_Ptr_cat@std@@YA?AU_Scalar_ptr_iterator_tag@1@PAM0@Z
_TEXT	SEGMENT PARA USE32 PUBLIC 'CODE'
_TEXT	ENDS
;	COMDAT __CTA2?AVbad_weak_ptr@boost@@
xdata$x	SEGMENT DWORD USE32 PUBLIC 'CONST'
xdata$x	ENDS
;	COMDAT __CT??_R0?AVexception@@@8??0exception@@QAE@ABV0@@Z12
xdata$x	SEGMENT DWORD USE32 PUBLIC 'CONST'
xdata$x	ENDS
;	COMDAT ??_R0?AVexception@@@8
_DATA	SEGMENT DWORD USE32 PUBLIC 'DATA'
_DATA	ENDS
;	COMDAT __CT??_R0?AVbad_weak_ptr@boost@@@8??0bad_weak_ptr@boost@@QAE@ABV01@@Z12
xdata$x	SEGMENT DWORD USE32 PUBLIC 'CONST'
xdata$x	ENDS
;	COMDAT ??_R0?AVbad_weak_ptr@boost@@@8
_DATA	SEGMENT DWORD USE32 PUBLIC 'DATA'
_DATA	ENDS
;	COMDAT __TI2?AVbad_weak_ptr@boost@@
xdata$x	SEGMENT DWORD USE32 PUBLIC 'CONST'
xdata$x	ENDS
;	COMDAT ??_7?$CFixedArray@UtagWORLD@@@@6B@
CONST	SEGMENT DWORD USE32 PUBLIC 'CONST'
CONST	ENDS
;	COMDAT ?_Ptr_cat@std@@YA?AU_Scalar_ptr_iterator_tag@1@PAJ0@Z
_TEXT	SEGMENT PARA USE32 PUBLIC 'CODE'
_TEXT	ENDS
;	COMDAT ??9const_iterator@?$_Tree@V?$_Tmap_traits@KEU?$less@K@std@@V?$allocator@U?$pair@$$CBKE@std@@@2@$0A@@std@@@std@@QBE_NABV012@@Z
_TEXT	SEGMENT PARA USE32 PUBLIC 'CODE'
_TEXT	ENDS
;	COMDAT ??8const_iterator@?$_Tree@V?$_Tmap_traits@KEU?$less@K@std@@V?$allocator@U?$pair@$$CBKE@std@@@2@$0A@@std@@@std@@QBE_NABV012@@Z
_TEXT	SEGMENT PARA USE32 PUBLIC 'CODE'
_TEXT	ENDS
;	COMDAT ??Eiterator@?$_Tree@V?$_Tmap_traits@KEU?$less@K@std@@V?$allocator@U?$pair@$$CBKE@std@@@2@$0A@@std@@@std@@QAEAAV012@XZ
_TEXT	SEGMENT PARA USE32 PUBLIC 'CODE'
_TEXT	ENDS
;	COMDAT ??Econst_iterator@?$_Tree@V?$_Tmap_traits@KEU?$less@K@std@@V?$allocator@U?$pair@$$CBKE@std@@@2@$0A@@std@@@std@@QAEAAV012@XZ
_TEXT	SEGMENT PARA USE32 PUBLIC 'CODE'
_TEXT	ENDS
;	COMDAT ?_Inc@const_iterator@?$_Tree@V?$_Tmap_traits@KEU?$less@K@std@@V?$allocator@U?$pair@$$CBKE@std@@@2@$0A@@std@@@std@@QAEXXZ
_TEXT	SEGMENT PARA USE32 PUBLIC 'CODE'
_TEXT	ENDS
;	COMDAT ?_Min@?$_Tree@V?$_Tmap_traits@KEU?$less@K@std@@V?$allocator@U?$pair@$$CBKE@std@@@2@$0A@@std@@@std@@KAPAU_Node@?$_Tree_nod@V?$_Tmap_traits@KEU?$less@K@std@@V?$allocator@U?$pair@$$CBKE@std@@@2@$0A@@std@@@2@PAU342@@Z
_TEXT	SEGMENT PARA USE32 PUBLIC 'CODE'
_TEXT	ENDS
;	COMDAT ?_Left@?$_Tree@V?$_Tmap_traits@KEU?$less@K@std@@V?$allocator@U?$pair@$$CBKE@std@@@2@$0A@@std@@@std@@KAAAPAU_Node@?$_Tree_nod@V?$_Tmap_traits@KEU?$less@K@std@@V?$allocator@U?$pair@$$CBKE@std@@@2@$0A@@std@@@2@PAU342@@Z
_TEXT	SEGMENT PARA USE32 PUBLIC 'CODE'
_TEXT	ENDS
;	COMDAT ?_Isnil@?$_Tree@V?$_Tmap_traits@KEU?$less@K@std@@V?$allocator@U?$pair@$$CBKE@std@@@2@$0A@@std@@@std@@KAAADPAU_Node@?$_Tree_nod@V?$_Tmap_traits@KEU?$less@K@std@@V?$allocator@U?$pair@$$CBKE@std@@@2@$0A@@std@@@2@@Z
_TEXT	SEGMENT PARA USE32 PUBLIC 'CODE'
_TEXT	ENDS
;	COMDAT ?_Parent@?$_Tree@V?$_Tmap_traits@KEU?$less@K@std@@V?$allocator@U?$pair@$$CBKE@std@@@2@$0A@@std@@@std@@KAAAPAU_Node@?$_Tree_nod@V?$_Tmap_traits@KEU?$less@K@std@@V?$allocator@U?$pair@$$CBKE@std@@@2@$0A@@std@@@2@PAU342@@Z
_TEXT	SEGMENT PARA USE32 PUBLIC 'CODE'
_TEXT	ENDS
;	COMDAT ?_Right@?$_Tree@V?$_Tmap_traits@KEU?$less@K@std@@V?$allocator@U?$pair@$$CBKE@std@@@2@$0A@@std@@@std@@KAAAPAU_Node@?$_Tree_nod@V?$_Tmap_traits@KEU?$less@K@std@@V?$allocator@U?$pair@$$CBKE@std@@@2@$0A@@std@@@2@PAU342@@Z
_TEXT	SEGMENT PARA USE32 PUBLIC 'CODE'
_TEXT	ENDS
;	COMDAT ??9const_iterator@?$_Tree@V?$_Tmap_traits@KPAVCCtrl@@U?$less@K@std@@V?$allocator@U?$pair@$$CBKPAVCCtrl@@@std@@@3@$0A@@std@@@std@@QBE_NABV012@@Z
_TEXT	SEGMENT PARA USE32 PUBLIC 'CODE'
_TEXT	ENDS
;	COMDAT ??8const_iterator@?$_Tree@V?$_Tmap_traits@KPAVCCtrl@@U?$less@K@std@@V?$allocator@U?$pair@$$CBKPAVCCtrl@@@std@@@3@$0A@@std@@@std@@QBE_NABV012@@Z
_TEXT	SEGMENT PARA USE32 PUBLIC 'CODE'
_TEXT	ENDS
;	COMDAT ??Eiterator@?$_Tree@V?$_Tmap_traits@KPAVCCtrl@@U?$less@K@std@@V?$allocator@U?$pair@$$CBKPAVCCtrl@@@std@@@3@$0A@@std@@@std@@QAEAAV012@XZ
_TEXT	SEGMENT PARA USE32 PUBLIC 'CODE'
_TEXT	ENDS
;	COMDAT ??Econst_iterator@?$_Tree@V?$_Tmap_traits@KPAVCCtrl@@U?$less@K@std@@V?$allocator@U?$pair@$$CBKPAVCCtrl@@@std@@@3@$0A@@std@@@std@@QAEAAV012@XZ
_TEXT	SEGMENT PARA USE32 PUBLIC 'CODE'
_TEXT	ENDS
;	COMDAT ?_Inc@const_iterator@?$_Tree@V?$_Tmap_traits@KPAVCCtrl@@U?$less@K@std@@V?$allocator@U?$pair@$$CBKPAVCCtrl@@@std@@@3@$0A@@std@@@std@@QAEXXZ
_TEXT	SEGMENT PARA USE32 PUBLIC 'CODE'
_TEXT	ENDS
;	COMDAT ?_Min@?$_Tree@V?$_Tmap_traits@KPAVCCtrl@@U?$less@K@std@@V?$allocator@U?$pair@$$CBKPAVCCtrl@@@std@@@3@$0A@@std@@@std@@KAPAU_Node@?$_Tree_nod@V?$_Tmap_traits@KPAVCCtrl@@U?$less@K@std@@V?$allocator@U?$pair@$$CBKPAVCCtrl@@@std@@@3@$0A@@std@@@2@PAU342@@Z
_TEXT	SEGMENT PARA USE32 PUBLIC 'CODE'
_TEXT	ENDS
;	COMDAT ?_Left@?$_Tree@V?$_Tmap_traits@KPAVCCtrl@@U?$less@K@std@@V?$allocator@U?$pair@$$CBKPAVCCtrl@@@std@@@3@$0A@@std@@@std@@KAAAPAU_Node@?$_Tree_nod@V?$_Tmap_traits@KPAVCCtrl@@U?$less@K@std@@V?$allocator@U?$pair@$$CBKPAVCCtrl@@@std@@@3@$0A@@std@@@2@PAU342@@Z
_TEXT	SEGMENT PARA USE32 PUBLIC 'CODE'
_TEXT	ENDS
;	COMDAT ?_Isnil@?$_Tree@V?$_Tmap_traits@KPAVCCtrl@@U?$less@K@std@@V?$allocator@U?$pair@$$CBKPAVCCtrl@@@std@@@3@$0A@@std@@@std@@KAAADPAU_Node@?$_Tree_nod@V?$_Tmap_traits@KPAVCCtrl@@U?$less@K@std@@V?$allocator@U?$pair@$$CBKPAVCCtrl@@@std@@@3@$0A@@std@@@2@@Z
_TEXT	SEGMENT PARA USE32 PUBLIC 'CODE'
_TEXT	ENDS
;	COMDAT ?_Parent@?$_Tree@V?$_Tmap_traits@KPAVCCtrl@@U?$less@K@std@@V?$allocator@U?$pair@$$CBKPAVCCtrl@@@std@@@3@$0A@@std@@@std@@KAAAPAU_Node@?$_Tree_nod@V?$_Tmap_traits@KPAVCCtrl@@U?$less@K@std@@V?$allocator@U?$pair@$$CBKPAVCCtrl@@@std@@@3@$0A@@std@@@2@PAU342@@Z
_TEXT	SEGMENT PARA USE32 PUBLIC 'CODE'
_TEXT	ENDS
;	COMDAT ?_Right@?$_Tree@V?$_Tmap_traits@KPAVCCtrl@@U?$less@K@std@@V?$allocator@U?$pair@$$CBKPAVCCtrl@@@std@@@3@$0A@@std@@@std@@KAAAPAU_Node@?$_Tree_nod@V?$_Tmap_traits@KPAVCCtrl@@U?$less@K@std@@V?$allocator@U?$pair@$$CBKPAVCCtrl@@@std@@@3@$0A@@std@@@2@PAU342@@Z
_TEXT	SEGMENT PARA USE32 PUBLIC 'CODE'
_TEXT	ENDS
;	COMDAT ??9const_iterator@?$_Tree@V?$_Tmap_traits@KPAVCUser@@U?$less@K@std@@V?$allocator@U?$pair@$$CBKPAVCUser@@@std@@@3@$0A@@std@@@std@@QBE_NABV012@@Z
_TEXT	SEGMENT PARA USE32 PUBLIC 'CODE'
_TEXT	ENDS
;	COMDAT ??8const_iterator@?$_Tree@V?$_Tmap_traits@KPAVCUser@@U?$less@K@std@@V?$allocator@U?$pair@$$CBKPAVCUser@@@std@@@3@$0A@@std@@@std@@QBE_NABV012@@Z
_TEXT	SEGMENT PARA USE32 PUBLIC 'CODE'
_TEXT	ENDS
;	COMDAT ??Eiterator@?$_Tree@V?$_Tmap_traits@KPAVCUser@@U?$less@K@std@@V?$allocator@U?$pair@$$CBKPAVCUser@@@std@@@3@$0A@@std@@@std@@QAEAAV012@XZ
_TEXT	SEGMENT PARA USE32 PUBLIC 'CODE'
_TEXT	ENDS
;	COMDAT ??Econst_iterator@?$_Tree@V?$_Tmap_traits@KPAVCUser@@U?$less@K@std@@V?$allocator@U?$pair@$$CBKPAVCUser@@@std@@@3@$0A@@std@@@std@@QAEAAV012@XZ
_TEXT	SEGMENT PARA USE32 PUBLIC 'CODE'
_TEXT	ENDS
;	COMDAT ?_Inc@const_iterator@?$_Tree@V?$_Tmap_traits@KPAVCUser@@U?$less@K@std@@V?$allocator@U?$pair@$$CBKPAVCUser@@@std@@@3@$0A@@std@@@std@@QAEXXZ
_TEXT	SEGMENT PARA USE32 PUBLIC 'CODE'
_TEXT	ENDS
;	COMDAT ?_Min@?$_Tree@V?$_Tmap_traits@KPAVCUser@@U?$less@K@std@@V?$allocator@U?$pair@$$CBKPAVCUser@@@std@@@3@$0A@@std@@@std@@KAPAU_Node@?$_Tree_nod@V?$_Tmap_traits@KPAVCUser@@U?$less@K@std@@V?$allocator@U?$pair@$$CBKPAVCUser@@@std@@@3@$0A@@std@@@2@PAU342@@Z
_TEXT	SEGMENT PARA USE32 PUBLIC 'CODE'
_TEXT	ENDS
;	COMDAT ?_Left@?$_Tree@V?$_Tmap_traits@KPAVCUser@@U?$less@K@std@@V?$allocator@U?$pair@$$CBKPAVCUser@@@std@@@3@$0A@@std@@@std@@KAAAPAU_Node@?$_Tree_nod@V?$_Tmap_traits@KPAVCUser@@U?$less@K@std@@V?$allocator@U?$pair@$$CBKPAVCUser@@@std@@@3@$0A@@std@@@2@PAU342@@Z
_TEXT	SEGMENT PARA USE32 PUBLIC 'CODE'
_TEXT	ENDS
;	COMDAT ?_Isnil@?$_Tree@V?$_Tmap_traits@KPAVCUser@@U?$less@K@std@@V?$allocator@U?$pair@$$CBKPAVCUser@@@std@@@3@$0A@@std@@@std@@KAAADPAU_Node@?$_Tree_nod@V?$_Tmap_traits@KPAVCUser@@U?$less@K@std@@V?$allocator@U?$pair@$$CBKPAVCUser@@@std@@@3@$0A@@std@@@2@@Z
_TEXT	SEGMENT PARA USE32 PUBLIC 'CODE'
_TEXT	ENDS
;	COMDAT ?_Parent@?$_Tree@V?$_Tmap_traits@KPAVCUser@@U?$less@K@std@@V?$allocator@U?$pair@$$CBKPAVCUser@@@std@@@3@$0A@@std@@@std@@KAAAPAU_Node@?$_Tree_nod@V?$_Tmap_traits@KPAVCUser@@U?$less@K@std@@V?$allocator@U?$pair@$$CBKPAVCUser@@@std@@@3@$0A@@std@@@2@PAU342@@Z
_TEXT	SEGMENT PARA USE32 PUBLIC 'CODE'
_TEXT	ENDS
;	COMDAT ?_Right@?$_Tree@V?$_Tmap_traits@KPAVCUser@@U?$less@K@std@@V?$allocator@U?$pair@$$CBKPAVCUser@@@std@@@3@$0A@@std@@@std@@KAAAPAU_Node@?$_Tree_nod@V?$_Tmap_traits@KPAVCUser@@U?$less@K@std@@V?$allocator@U?$pair@$$CBKPAVCUser@@@std@@@3@$0A@@std@@@2@PAU342@@Z
_TEXT	SEGMENT PARA USE32 PUBLIC 'CODE'
_TEXT	ENDS
;	COMDAT ?_Psave@?$_Facetptr@V?$ctype@G@std@@@std@@2PBVfacet@locale@2@B
_DATA	SEGMENT DWORD USE32 PUBLIC 'DATA'
_DATA	ENDS
;	COMDAT ?_Psave@?$_Facetptr@V?$ctype@D@std@@@std@@2PBVfacet@locale@2@B
_DATA	SEGMENT DWORD USE32 PUBLIC 'DATA'
_DATA	ENDS
;	COMDAT __TI3?AVlength_error@std@@
xdata$x	SEGMENT DWORD USE32 PUBLIC 'CONST'
xdata$x	ENDS
;	COMDAT ??1length_error@std@@UAE@XZ
_TEXT	SEGMENT PARA USE32 PUBLIC 'CODE'
_TEXT	ENDS
;	COMDAT ??_7length_error@std@@6B@
CONST	SEGMENT DWORD USE32 PUBLIC 'CONST'
CONST	ENDS
;	COMDAT ??_Glength_error@std@@UAEPAXI@Z
_TEXT	SEGMENT PARA USE32 PUBLIC 'CODE'
_TEXT	ENDS
;	COMDAT ?what@logic_error@std@@UBEPBDXZ
_TEXT	SEGMENT PARA USE32 PUBLIC 'CODE'
_TEXT	ENDS
;	COMDAT ?c_str@?$basic_string@DU?$char_traits@D@std@@V?$allocator@D@2@@std@@QBEPBDXZ
_TEXT	SEGMENT PARA USE32 PUBLIC 'CODE'
_TEXT	ENDS
;	COMDAT ??1logic_error@std@@UAE@XZ
_TEXT	SEGMENT PARA USE32 PUBLIC 'CODE'
_TEXT	ENDS
;	COMDAT ??_7logic_error@std@@6B@
CONST	SEGMENT DWORD USE32 PUBLIC 'CONST'
CONST	ENDS
;	COMDAT ??_Glogic_error@std@@UAEPAXI@Z
_TEXT	SEGMENT PARA USE32 PUBLIC 'CODE'
_TEXT	ENDS
;	COMDAT __CTA3?AVlength_error@std@@
xdata$x	SEGMENT DWORD USE32 PUBLIC 'CONST'
xdata$x	ENDS
;	COMDAT __CT??_R0?AVlength_error@std@@@8??0length_error@std@@QAE@ABV01@@Z40
xdata$x	SEGMENT DWORD USE32 PUBLIC 'CONST'
xdata$x	ENDS
;	COMDAT ??_R0?AVlength_error@std@@@8
_DATA	SEGMENT DWORD USE32 PUBLIC 'DATA'
_DATA	ENDS
;	COMDAT ??0length_error@std@@QAE@ABV01@@Z
_TEXT	SEGMENT PARA USE32 PUBLIC 'CODE'
_TEXT	ENDS
;	COMDAT ??0logic_error@std@@QAE@ABV01@@Z
_TEXT	SEGMENT PARA USE32 PUBLIC 'CODE'
_TEXT	ENDS
;	COMDAT ??0?$basic_string@DU?$char_traits@D@std@@V?$allocator@D@2@@std@@QAE@ABV01@@Z
_TEXT	SEGMENT PARA USE32 PUBLIC 'CODE'
_TEXT	ENDS
;	COMDAT ??0?$_String_val@DV?$allocator@D@std@@@std@@IAE@V?$allocator@D@1@@Z
_TEXT	SEGMENT PARA USE32 PUBLIC 'CODE'
_TEXT	ENDS
;	COMDAT ??0?$allocator@D@std@@QAE@ABV01@@Z
_TEXT	SEGMENT PARA USE32 PUBLIC 'CODE'
_TEXT	ENDS
;	COMDAT ?_Tidy@?$basic_string@DU?$char_traits@D@std@@V?$allocator@D@2@@std@@IAEX_NI@Z
_TEXT	SEGMENT PARA USE32 PUBLIC 'CODE'
_TEXT	ENDS
;	COMDAT ?copy@?$char_traits@D@std@@SAPADPADPBDI@Z
_TEXT	SEGMENT PARA USE32 PUBLIC 'CODE'
_TEXT	ENDS
;	COMDAT ?deallocate@?$allocator@D@std@@QAEXPADI@Z
_TEXT	SEGMENT PARA USE32 PUBLIC 'CODE'
_TEXT	ENDS
;	COMDAT ?_Eos@?$basic_string@DU?$char_traits@D@std@@V?$allocator@D@2@@std@@IAEXI@Z
_TEXT	SEGMENT PARA USE32 PUBLIC 'CODE'
_TEXT	ENDS
;	COMDAT ?assign@?$char_traits@D@std@@SAXAADABD@Z
_TEXT	SEGMENT PARA USE32 PUBLIC 'CODE'
_TEXT	ENDS
;	COMDAT ?_Myptr@?$basic_string@DU?$char_traits@D@std@@V?$allocator@D@2@@std@@QAEPADXZ
_TEXT	SEGMENT PARA USE32 PUBLIC 'CODE'
_TEXT	ENDS
;	COMDAT ?assign@?$basic_string@DU?$char_traits@D@std@@V?$allocator@D@2@@std@@QAEAAV12@ABV12@II@Z
_TEXT	SEGMENT PARA USE32 PUBLIC 'CODE'
_TEXT	ENDS
;	COMDAT ?erase@?$basic_string@DU?$char_traits@D@std@@V?$allocator@D@2@@std@@QAEAAV12@II@Z
_TEXT	SEGMENT PARA USE32 PUBLIC 'CODE'
_TEXT	ENDS
;	COMDAT ?move@?$char_traits@D@std@@SAPADPADPBDI@Z
_TEXT	SEGMENT PARA USE32 PUBLIC 'CODE'
_TEXT	ENDS
;	COMDAT ?_Grow@?$basic_string@DU?$char_traits@D@std@@V?$allocator@D@2@@std@@IAE_NI_N@Z
_TEXT	SEGMENT PARA USE32 PUBLIC 'CODE'
_TEXT	ENDS
;	COMDAT ?max_size@?$basic_string@DU?$char_traits@D@std@@V?$allocator@D@2@@std@@QBEIXZ
_TEXT	SEGMENT PARA USE32 PUBLIC 'CODE'
_TEXT	ENDS
;	COMDAT ?max_size@?$allocator@D@std@@QBEIXZ
_TEXT	SEGMENT PARA USE32 PUBLIC 'CODE'
_TEXT	ENDS
;	COMDAT ?_Copy@?$basic_string@DU?$char_traits@D@std@@V?$allocator@D@2@@std@@IAEXII@Z
_TEXT	SEGMENT PARA USE32 PUBLIC 'CODE'
_TEXT	ENDS
;	COMDAT ?allocate@?$allocator@D@std@@QAEPADI@Z
_TEXT	SEGMENT PARA USE32 PUBLIC 'CODE'
_TEXT	ENDS
;	COMDAT ??$_Allocate@D@std@@YAPADIPAD@Z
_TEXT	SEGMENT PARA USE32 PUBLIC 'CODE'
_TEXT	ENDS
;	COMDAT ?npos@?$basic_string@DU?$char_traits@D@std@@V?$allocator@D@2@@std@@2IB
CONST	SEGMENT DWORD USE32 PUBLIC 'CONST'
CONST	ENDS
;	COMDAT __CT??_R0?AVlogic_error@std@@@8??0logic_error@std@@QAE@ABV01@@Z40
xdata$x	SEGMENT DWORD USE32 PUBLIC 'CONST'
xdata$x	ENDS
;	COMDAT ??_R0?AVlogic_error@std@@@8
_DATA	SEGMENT DWORD USE32 PUBLIC 'DATA'
_DATA	ENDS
;	COMDAT ??1?$basic_string@DU?$char_traits@D@std@@V?$allocator@D@2@@std@@QAE@XZ
_TEXT	SEGMENT PARA USE32 PUBLIC 'CODE'
_TEXT	ENDS
;	COMDAT ??_C@_0BD@OLBABOEK@vector?$DMT?$DO?5too?5long?$AA@
CONST	SEGMENT DWORD USE32 PUBLIC 'CONST'
CONST	ENDS
;	COMDAT ??0?$basic_string@DU?$char_traits@D@std@@V?$allocator@D@2@@std@@QAE@PBD@Z
_TEXT	SEGMENT PARA USE32 PUBLIC 'CODE'
_TEXT	ENDS
;	COMDAT ??0?$allocator@D@std@@QAE@XZ
_TEXT	SEGMENT PARA USE32 PUBLIC 'CODE'
_TEXT	ENDS
;	COMDAT ?assign@?$basic_string@DU?$char_traits@D@std@@V?$allocator@D@2@@std@@QAEAAV12@PBD@Z
_TEXT	SEGMENT PARA USE32 PUBLIC 'CODE'
_TEXT	ENDS
;	COMDAT ?assign@?$basic_string@DU?$char_traits@D@std@@V?$allocator@D@2@@std@@QAEAAV12@PBDI@Z
_TEXT	SEGMENT PARA USE32 PUBLIC 'CODE'
_TEXT	ENDS
;	COMDAT ?_Inside@?$basic_string@DU?$char_traits@D@std@@V?$allocator@D@2@@std@@IAE_NPBD@Z
_TEXT	SEGMENT PARA USE32 PUBLIC 'CODE'
_TEXT	ENDS
;	COMDAT ?length@?$char_traits@D@std@@SAIPBD@Z
_TEXT	SEGMENT PARA USE32 PUBLIC 'CODE'
_TEXT	ENDS
;	COMDAT ??0length_error@std@@QAE@ABV?$basic_string@DU?$char_traits@D@std@@V?$allocator@D@2@@1@@Z
_TEXT	SEGMENT PARA USE32 PUBLIC 'CODE'
_TEXT	ENDS
;	COMDAT ??0logic_error@std@@QAE@ABV?$basic_string@DU?$char_traits@D@std@@V?$allocator@D@2@@1@@Z
_TEXT	SEGMENT PARA USE32 PUBLIC 'CODE'
_TEXT	ENDS
;	COMDAT ?compare@?$char_traits@D@std@@SAHPBD0I@Z
_TEXT	SEGMENT PARA USE32 PUBLIC 'CODE'
_TEXT	ENDS
;	COMDAT ?GetString@?$CSimpleStringT@D$0A@@ATL@@QBEPBDXZ
_TEXT	SEGMENT PARA USE32 PUBLIC 'CODE'
_TEXT	ENDS
;	COMDAT ?_Myptr@?$basic_string@DU?$char_traits@D@std@@V?$allocator@D@2@@std@@QBEPBDXZ
_TEXT	SEGMENT PARA USE32 PUBLIC 'CODE'
_TEXT	ENDS
;	COMDAT ?size@?$basic_string@DU?$char_traits@D@std@@V?$allocator@D@2@@std@@QBEIXZ
_TEXT	SEGMENT PARA USE32 PUBLIC 'CODE'
_TEXT	ENDS
;	COMDAT ??0D3DXVECTOR3@@QAE@XZ
_TEXT	SEGMENT PARA USE32 PUBLIC 'CODE'
_TEXT	ENDS
;	COMDAT ?sRangdaController@?1??Instance@CRangdaController@@SAPAV2@XZ@4V2@A
_BSS	SEGMENT DWORD USE32 PUBLIC 'BSS'
_BSS	ENDS
;	COMDAT ?$S1@?1??Instance@CRangdaController@@SAPAV2@XZ@4IA
_BSS	SEGMENT DWORD USE32 PUBLIC 'BSS'
_BSS	ENDS
;	COMDAT ??_7CRangdaController@@6B@
CONST	SEGMENT DWORD USE32 PUBLIC 'CONST'
CONST	ENDS
;	COMDAT ?GetIndex@CObj@@QAEKXZ
_TEXT	SEGMENT PARA USE32 PUBLIC 'CODE'
_TEXT	ENDS
;	COMDAT ?GetPos@CObj@@QAE?AUD3DXVECTOR3@@XZ
_TEXT	SEGMENT PARA USE32 PUBLIC 'CODE'
_TEXT	ENDS
;	COMDAT ?GetId@CCtrl@@QAEKXZ
_TEXT	SEGMENT PARA USE32 PUBLIC 'CODE'
_TEXT	ENDS
;	COMDAT ?IsValidObj@@YAHPAVCObj@@@Z
_TEXT	SEGMENT PARA USE32 PUBLIC 'CODE'
_TEXT	ENDS
;	COMDAT ?IsDelete@CObj@@QAEHXZ
_TEXT	SEGMENT PARA USE32 PUBLIC 'CODE'
_TEXT	ENDS
;	COMDAT ??_7CRangda@@6B@
CONST	SEGMENT DWORD USE32 PUBLIC 'CONST'
CONST	ENDS
;	COMDAT ??5CAr@@QAEAAV0@AAH@Z
_TEXT	SEGMENT PARA USE32 PUBLIC 'CODE'
_TEXT	ENDS
;	COMDAT ??5CAr@@QAEAAV0@AAJ@Z
_TEXT	SEGMENT PARA USE32 PUBLIC 'CODE'
_TEXT	ENDS
;	COMDAT ??6CAr@@QAEAAV0@H@Z
_TEXT	SEGMENT PARA USE32 PUBLIC 'CODE'
_TEXT	ENDS
;	COMDAT ??6CAr@@QAEAAV0@J@Z
_TEXT	SEGMENT PARA USE32 PUBLIC 'CODE'
_TEXT	ENDS
;	COMDAT ??0?$vector@HV?$allocator@H@std@@@std@@QAE@XZ
_TEXT	SEGMENT PARA USE32 PUBLIC 'CODE'
_TEXT	ENDS
;	COMDAT ??0?$_Vector_val@HV?$allocator@H@std@@@std@@IAE@V?$allocator@H@1@@Z
_TEXT	SEGMENT PARA USE32 PUBLIC 'CODE'
_TEXT	ENDS
;	COMDAT ??0?$allocator@H@std@@QAE@ABV01@@Z
_TEXT	SEGMENT PARA USE32 PUBLIC 'CODE'
_TEXT	ENDS
;	COMDAT ??0?$allocator@H@std@@QAE@XZ
_TEXT	SEGMENT PARA USE32 PUBLIC 'CODE'
_TEXT	ENDS
;	COMDAT ?_Buy@?$vector@HV?$allocator@H@std@@@std@@IAE_NI@Z
_TEXT	SEGMENT PARA USE32 PUBLIC 'CODE'
_TEXT	ENDS
;	COMDAT ?max_size@?$vector@HV?$allocator@H@std@@@std@@QBEIXZ
_TEXT	SEGMENT PARA USE32 PUBLIC 'CODE'
_TEXT	ENDS
;	COMDAT ?max_size@?$allocator@H@std@@QBEIXZ
_TEXT	SEGMENT PARA USE32 PUBLIC 'CODE'
_TEXT	ENDS
;	COMDAT ?_Xlen@?$vector@HV?$allocator@H@std@@@std@@IBEXXZ
_TEXT	SEGMENT PARA USE32 PUBLIC 'CODE'
_TEXT	ENDS
;	COMDAT ?allocate@?$allocator@H@std@@QAEPAHI@Z
_TEXT	SEGMENT PARA USE32 PUBLIC 'CODE'
_TEXT	ENDS
;	COMDAT ??$_Allocate@H@std@@YAPAHIPAH@Z
_TEXT	SEGMENT PARA USE32 PUBLIC 'CODE'
_TEXT	ENDS
;	COMDAT ??1?$vector@HV?$allocator@H@std@@@std@@QAE@XZ
_TEXT	SEGMENT PARA USE32 PUBLIC 'CODE'
_TEXT	ENDS
;	COMDAT ?_Tidy@?$vector@HV?$allocator@H@std@@@std@@IAEXXZ
_TEXT	SEGMENT PARA USE32 PUBLIC 'CODE'
_TEXT	ENDS
;	COMDAT ?_Destroy@?$vector@HV?$allocator@H@std@@@std@@IAEXPAH0@Z
_TEXT	SEGMENT PARA USE32 PUBLIC 'CODE'
_TEXT	ENDS
;	COMDAT ??$_Destroy_range@HV?$allocator@H@std@@@std@@YAXPAH0AAV?$allocator@H@0@@Z
_TEXT	SEGMENT PARA USE32 PUBLIC 'CODE'
_TEXT	ENDS
;	COMDAT ?_Ptr_cat@std@@YA?AU_Scalar_ptr_iterator_tag@1@PAH0@Z
_TEXT	SEGMENT PARA USE32 PUBLIC 'CODE'
_TEXT	ENDS
;	COMDAT ?deallocate@?$allocator@H@std@@QAEXPAHI@Z
_TEXT	SEGMENT PARA USE32 PUBLIC 'CODE'
_TEXT	ENDS
;	COMDAT ??_7CLordSkillComponentExecutable@@6B@
CONST	SEGMENT DWORD USE32 PUBLIC 'CONST'
CONST	ENDS
;	COMDAT ??_7bad_weak_ptr@boost@@6B@
CONST	SEGMENT DWORD USE32 PUBLIC 'CONST'
CONST	ENDS
;	COMDAT ??_7sp_counted_base@detail@boost@@6B@
CONST	SEGMENT DWORD USE32 PUBLIC 'CONST'
CONST	ENDS
sxdata	SEGMENT DWORD USE32 'SXDATA'
sxdata	ENDS
FLAT	GROUP _DATA, CONST, _BSS
	ASSUME	CS: FLAT, DS: FLAT, SS: FLAT
endif

INCLUDELIB LIBCMT
INCLUDELIB OLDNAMES

PUBLIC	?SetInterval@CRangda@@QAEXH@Z			; CRangda::SetInterval
; Function compile flags: /Ogty
; File c:\documents and settings\test\mes documents\source\virtuos_v17\build\program\worldserver\rangda.h
;	COMDAT ?SetInterval@CRangda@@QAEXH@Z
_TEXT	SEGMENT
_nInterval$ = 8						; size = 4
?SetInterval@CRangda@@QAEXH@Z PROC NEAR			; CRangda::SetInterval, COMDAT
; _this$ = ecx

; 21   : 	void	SetInterval( int nInterval )	{	m_nInterval	= nInterval;	}	//   

  00000	8b 44 24 04	 mov	 eax, DWORD PTR _nInterval$[esp-4]
  00004	89 41 08	 mov	 DWORD PTR [ecx+8], eax
  00007	c2 04 00	 ret	 4
?SetInterval@CRangda@@QAEXH@Z ENDP			; CRangda::SetInterval
_TEXT	ENDS
PUBLIC	?SetReplace@CRangda@@QAEXH@Z			; CRangda::SetReplace
; Function compile flags: /Ogty
;	COMDAT ?SetReplace@CRangda@@QAEXH@Z
_TEXT	SEGMENT
_nReplace$ = 8						; size = 4
?SetReplace@CRangda@@QAEXH@Z PROC NEAR			; CRangda::SetReplace, COMDAT
; _this$ = ecx

; 22   : 	void	SetReplace( int nReplace )	{	m_nReplace	= nReplace;		}	//   

  00000	8b 44 24 04	 mov	 eax, DWORD PTR _nReplace$[esp-4]
  00004	89 41 0c	 mov	 DWORD PTR [ecx+12], eax
  00007	c2 04 00	 ret	 4
?SetReplace@CRangda@@QAEXH@Z ENDP			; CRangda::SetReplace
_TEXT	ENDS
PUBLIC	?SetActiveAttack@CRangda@@QAEXH@Z		; CRangda::SetActiveAttack
; Function compile flags: /Ogty
;	COMDAT ?SetActiveAttack@CRangda@@QAEXH@Z
_TEXT	SEGMENT
_bActiveAttack$ = 8					; size = 4
?SetActiveAttack@CRangda@@QAEXH@Z PROC NEAR		; CRangda::SetActiveAttack, COMDAT
; _this$ = ecx

; 23   : 	void	SetActiveAttack( BOOL bActiveAttack )	{	m_bActiveAttack		= bActiveAttack;	}	//   

  00000	8b 44 24 04	 mov	 eax, DWORD PTR _bActiveAttack$[esp-4]
  00004	89 41 10	 mov	 DWORD PTR [ecx+16], eax
  00007	c2 04 00	 ret	 4
?SetActiveAttack@CRangda@@QAEXH@Z ENDP			; CRangda::SetActiveAttack
_TEXT	ENDS
PUBLIC	??2@YAPAXIPAX@Z					; operator new
; Function compile flags: /Ogty
; File c:\program files\microsoft visual studio .net 2003\vc7\include\new.h
;	COMDAT ??2@YAPAXIPAX@Z
_TEXT	SEGMENT
___formal$ = 8						; size = 4
__P$ = 12						; size = 4
??2@YAPAXIPAX@Z PROC NEAR				; operator new, COMDAT

; 109  :         {return (_P); }

  00000	8b 44 24 08	 mov	 eax, DWORD PTR __P$[esp-4]
  00004	c3		 ret	 0
??2@YAPAXIPAX@Z ENDP					; operator new
_TEXT	ENDS
PUBLIC	?SetObj@CRangda@@AAEXK@Z			; CRangda::SetObj
; Function compile flags: /Ogty
; File c:\documents and settings\test\mes documents\source\virtuos_v17\build\program\worldserver\rangda.cpp
;	COMDAT ?SetObj@CRangda@@AAEXK@Z
_TEXT	SEGMENT
_objid$ = 8						; size = 4
?SetObj@CRangda@@AAEXK@Z PROC NEAR			; CRangda::SetObj, COMDAT
; _this$ = ecx

; 66   : 	m_objid		= objid;

  00000	8b 44 24 04	 mov	 eax, DWORD PTR _objid$[esp-4]

; 67   : 	m_nGenerateCountdown	= m_nInterval;

  00004	8b 51 08	 mov	 edx, DWORD PTR [ecx+8]
  00007	89 41 34	 mov	 DWORD PTR [ecx+52], eax

; 68   : 	m_nReplaceCountdown		= m_nReplace;

  0000a	8b 41 0c	 mov	 eax, DWORD PTR [ecx+12]
  0000d	89 51 24	 mov	 DWORD PTR [ecx+36], edx
  00010	89 41 28	 mov	 DWORD PTR [ecx+40], eax

; 69   : 	m_bReplaceable	= TRUE;

  00013	c7 41 2c 01 00
	00 00		 mov	 DWORD PTR [ecx+44], 1

; 70   : }

  0001a	c2 04 00	 ret	 4
?SetObj@CRangda@@AAEXK@Z ENDP				; CRangda::SetObj
_TEXT	ENDS
PUBLIC	?IsDamaged@CRangda@@AAEHPAVCMover@@@Z		; CRangda::IsDamaged
EXTRN	?GetHitPoint@CMover@@QAEHXZ:NEAR		; CMover::GetHitPoint
EXTRN	?GetMaxHitPoint@CMover@@QAEHXZ:NEAR		; CMover::GetMaxHitPoint
; Function compile flags: /Ogty
;	COMDAT ?IsDamaged@CRangda@@AAEHPAVCMover@@@Z
_TEXT	SEGMENT
_pMonster$ = 8						; size = 4
?IsDamaged@CRangda@@AAEHPAVCMover@@@Z PROC NEAR		; CRangda::IsDamaged, COMDAT
; _this$ = ecx

; 118  : {	//  ?

  00000	56		 push	 esi

; 119  : 	return ( pMonster->GetHitPoint() < pMonster->GetMaxHitPoint() );

  00001	8b 74 24 08	 mov	 esi, DWORD PTR _pMonster$[esp]
  00005	57		 push	 edi
  00006	8b ce		 mov	 ecx, esi
  00008	e8 00 00 00 00	 call	 ?GetMaxHitPoint@CMover@@QAEHXZ ; CMover::GetMaxHitPoint
  0000d	8b ce		 mov	 ecx, esi
  0000f	8b f8		 mov	 edi, eax
  00011	e8 00 00 00 00	 call	 ?GetHitPoint@CMover@@QAEHXZ ; CMover::GetHitPoint
  00016	33 c9		 xor	 ecx, ecx
  00018	3b c7		 cmp	 eax, edi
  0001a	0f 9c c1	 setl	 cl
  0001d	5f		 pop	 edi
  0001e	5e		 pop	 esi
  0001f	8b c1		 mov	 eax, ecx

; 120  : }

  00021	c2 04 00	 ret	 4
?IsDamaged@CRangda@@AAEHPAVCMover@@@Z ENDP		; CRangda::IsDamaged
_TEXT	ENDS
PUBLIC	?HavetoReplace@CRangda@@AAEHXZ			; CRangda::HavetoReplace
; Function compile flags: /Ogty
;	COMDAT ?HavetoReplace@CRangda@@AAEHXZ
_TEXT	SEGMENT
?HavetoReplace@CRangda@@AAEHXZ PROC NEAR		; CRangda::HavetoReplace, COMDAT
; _this$ = ecx

; 124  : 	if( m_nReplaceCountdown > 0 )

  00000	8b 41 28	 mov	 eax, DWORD PTR [ecx+40]
  00003	85 c0		 test	 eax, eax
  00005	7e 04		 jle	 SHORT $L229167

; 125  : 		m_nReplaceCountdown--;

  00007	48		 dec	 eax
  00008	89 41 28	 mov	 DWORD PTR [ecx+40], eax
$L229167:

; 126  : 	return ( m_nReplaceCountdown == 0 );

  0000b	8b 51 28	 mov	 edx, DWORD PTR [ecx+40]
  0000e	33 c0		 xor	 eax, eax
  00010	85 d2		 test	 edx, edx
  00012	0f 94 c0	 sete	 al

; 127  : }

  00015	c3		 ret	 0
?HavetoReplace@CRangda@@AAEHXZ ENDP			; CRangda::HavetoReplace
_TEXT	ENDS
PUBLIC	?HavetoGenerate@CRangda@@AAEHXZ			; CRangda::HavetoGenerate
; Function compile flags: /Ogty
;	COMDAT ?HavetoGenerate@CRangda@@AAEHXZ
_TEXT	SEGMENT
?HavetoGenerate@CRangda@@AAEHXZ PROC NEAR		; CRangda::HavetoGenerate, COMDAT
; _this$ = ecx

; 131  : 	if( m_nGenerateCountdown > 0 )

  00000	8b 41 24	 mov	 eax, DWORD PTR [ecx+36]
  00003	85 c0		 test	 eax, eax
  00005	7e 04		 jle	 SHORT $L229172

; 132  : 		m_nGenerateCountdown--;

  00007	48		 dec	 eax
  00008	89 41 24	 mov	 DWORD PTR [ecx+36], eax
$L229172:

; 133  : 	return ( m_nGenerateCountdown == 0 );

  0000b	8b 51 24	 mov	 edx, DWORD PTR [ecx+36]
  0000e	33 c0		 xor	 eax, eax
  00010	85 d2		 test	 edx, edx
  00012	0f 94 c0	 sete	 al

; 134  : }

  00015	c3		 ret	 0
?HavetoGenerate@CRangda@@AAEHXZ ENDP			; CRangda::HavetoGenerate
_TEXT	ENDS
PUBLIC	?size@?$vector@U_RANGDA_POS@@V?$allocator@U_RANGDA_POS@@@std@@@std@@QBEIXZ ; std::vector<_RANGDA_POS,std::allocator<_RANGDA_POS> >::size
; Function compile flags: /Ogty
; File c:\program files\microsoft visual studio .net 2003\vc7\include\vector
;	COMDAT ?size@?$vector@U_RANGDA_POS@@V?$allocator@U_RANGDA_POS@@@std@@@std@@QBEIXZ
_TEXT	SEGMENT
?size@?$vector@U_RANGDA_POS@@V?$allocator@U_RANGDA_POS@@@std@@@std@@QBEIXZ PROC NEAR ; std::vector<_RANGDA_POS,std::allocator<_RANGDA_POS> >::size, COMDAT
; _this$ = ecx

; 516  : 		return (_Myfirst == 0 ? 0 : _Mylast - _Myfirst);

  00000	8b 51 04	 mov	 edx, DWORD PTR [ecx+4]
  00003	85 d2		 test	 edx, edx
  00005	75 03		 jne	 SHORT $L231884
  00007	33 c0		 xor	 eax, eax

; 517  : 		}

  00009	c3		 ret	 0
$L231884:

; 516  : 		return (_Myfirst == 0 ? 0 : _Mylast - _Myfirst);

  0000a	8b 41 08	 mov	 eax, DWORD PTR [ecx+8]
  0000d	2b c2		 sub	 eax, edx
  0000f	c1 f8 04	 sar	 eax, 4

; 517  : 		}

  00012	c3		 ret	 0
?size@?$vector@U_RANGDA_POS@@V?$allocator@U_RANGDA_POS@@@std@@@std@@QBEIXZ ENDP ; std::vector<_RANGDA_POS,std::allocator<_RANGDA_POS> >::size
_TEXT	ENDS
PUBLIC	??Eiterator@?$vector@PAVCRangda@@V?$allocator@PAVCRangda@@@std@@@std@@QAEAAV012@XZ ; std::vector<CRangda *,std::allocator<CRangda *> >::iterator::operator++
; Function compile flags: /Ogty
;	COMDAT ??Eiterator@?$vector@PAVCRangda@@V?$allocator@PAVCRangda@@@std@@@std@@QAEAAV012@XZ
_TEXT	SEGMENT
??Eiterator@?$vector@PAVCRangda@@V?$allocator@PAVCRangda@@@std@@@std@@QAEAAV012@XZ PROC NEAR ; std::vector<CRangda *,std::allocator<CRangda *> >::iterator::operator++, COMDAT
; _this$ = ecx

; 229  : 			{	// preincrement

  00000	8b c1		 mov	 eax, ecx

; 230  : 			++this->_Myptr;

  00002	83 00 04	 add	 DWORD PTR [eax], 4

; 231  : 			return (*this);
; 232  : 			}

  00005	c3		 ret	 0
??Eiterator@?$vector@PAVCRangda@@V?$allocator@PAVCRangda@@@std@@@std@@QAEAAV012@XZ ENDP ; std::vector<CRangda *,std::allocator<CRangda *> >::iterator::operator++
_TEXT	ENDS
PUBLIC	?capacity@?$vector@U_RANGDA_POS@@V?$allocator@U_RANGDA_POS@@@std@@@std@@QBEIXZ ; std::vector<_RANGDA_POS,std::allocator<_RANGDA_POS> >::capacity
; Function compile flags: /Ogty
;	COMDAT ?capacity@?$vector@U_RANGDA_POS@@V?$allocator@U_RANGDA_POS@@@std@@@std@@QBEIXZ
_TEXT	SEGMENT
?capacity@?$vector@U_RANGDA_POS@@V?$allocator@U_RANGDA_POS@@@std@@@std@@QBEIXZ PROC NEAR ; std::vector<_RANGDA_POS,std::allocator<_RANGDA_POS> >::capacity, COMDAT
; _this$ = ecx

; 458  : 		return (_Myfirst == 0 ? 0 : _Myend - _Myfirst);

  00000	8b 51 04	 mov	 edx, DWORD PTR [ecx+4]
  00003	85 d2		 test	 edx, edx
  00005	75 03		 jne	 SHORT $L231892
  00007	33 c0		 xor	 eax, eax

; 459  : 		}

  00009	c3		 ret	 0
$L231892:

; 458  : 		return (_Myfirst == 0 ? 0 : _Myend - _Myfirst);

  0000a	8b 41 0c	 mov	 eax, DWORD PTR [ecx+12]
  0000d	2b c2		 sub	 eax, edx
  0000f	c1 f8 04	 sar	 eax, 4

; 459  : 		}

  00012	c3		 ret	 0
?capacity@?$vector@U_RANGDA_POS@@V?$allocator@U_RANGDA_POS@@@std@@@std@@QBEIXZ ENDP ; std::vector<_RANGDA_POS,std::allocator<_RANGDA_POS> >::capacity
_TEXT	ENDS
PUBLIC	??0?$allocator@U_RANGDA_POS@@@std@@QAE@XZ	; std::allocator<_RANGDA_POS>::allocator<_RANGDA_POS>
; Function compile flags: /Ogty
; File c:\program files\microsoft visual studio .net 2003\vc7\include\xmemory
;	COMDAT ??0?$allocator@U_RANGDA_POS@@@std@@QAE@XZ
_TEXT	SEGMENT
??0?$allocator@U_RANGDA_POS@@@std@@QAE@XZ PROC NEAR	; std::allocator<_RANGDA_POS>::allocator<_RANGDA_POS>, COMDAT
; _this$ = ecx

; 111  : 	allocator()

  00000	8b c1		 mov	 eax, ecx

; 112  : 		{	// construct default allocator (do nothing)
; 113  : 		}

  00002	c3		 ret	 0
??0?$allocator@U_RANGDA_POS@@@std@@QAE@XZ ENDP		; std::allocator<_RANGDA_POS>::allocator<_RANGDA_POS>
_TEXT	ENDS
PUBLIC	?capacity@?$vector@PAVCRangda@@V?$allocator@PAVCRangda@@@std@@@std@@QBEIXZ ; std::vector<CRangda *,std::allocator<CRangda *> >::capacity
; Function compile flags: /Ogty
; File c:\program files\microsoft visual studio .net 2003\vc7\include\vector
;	COMDAT ?capacity@?$vector@PAVCRangda@@V?$allocator@PAVCRangda@@@std@@@std@@QBEIXZ
_TEXT	SEGMENT
?capacity@?$vector@PAVCRangda@@V?$allocator@PAVCRangda@@@std@@@std@@QBEIXZ PROC NEAR ; std::vector<CRangda *,std::allocator<CRangda *> >::capacity, COMDAT
; _this$ = ecx

; 458  : 		return (_Myfirst == 0 ? 0 : _Myend - _Myfirst);

  00000	8b 51 04	 mov	 edx, DWORD PTR [ecx+4]
  00003	85 d2		 test	 edx, edx
  00005	75 03		 jne	 SHORT $L231900
  00007	33 c0		 xor	 eax, eax

; 459  : 		}

  00009	c3		 ret	 0
$L231900:

; 458  : 		return (_Myfirst == 0 ? 0 : _Myend - _Myfirst);

  0000a	8b 41 0c	 mov	 eax, DWORD PTR [ecx+12]
  0000d	2b c2		 sub	 eax, edx
  0000f	c1 f8 02	 sar	 eax, 2

; 459  : 		}

  00012	c3		 ret	 0
?capacity@?$vector@PAVCRangda@@V?$allocator@PAVCRangda@@@std@@@std@@QBEIXZ ENDP ; std::vector<CRangda *,std::allocator<CRangda *> >::capacity
_TEXT	ENDS
PUBLIC	?size@?$vector@PAVCRangda@@V?$allocator@PAVCRangda@@@std@@@std@@QBEIXZ ; std::vector<CRangda *,std::allocator<CRangda *> >::size
; Function compile flags: /Ogty
;	COMDAT ?size@?$vector@PAVCRangda@@V?$allocator@PAVCRangda@@@std@@@std@@QBEIXZ
_TEXT	SEGMENT
?size@?$vector@PAVCRangda@@V?$allocator@PAVCRangda@@@std@@@std@@QBEIXZ PROC NEAR ; std::vector<CRangda *,std::allocator<CRangda *> >::size, COMDAT
; _this$ = ecx

; 516  : 		return (_Myfirst == 0 ? 0 : _Mylast - _Myfirst);

  00000	8b 51 04	 mov	 edx, DWORD PTR [ecx+4]
  00003	85 d2		 test	 edx, edx
  00005	75 03		 jne	 SHORT $L231905
  00007	33 c0		 xor	 eax, eax

; 517  : 		}

  00009	c3		 ret	 0
$L231905:

; 516  : 		return (_Myfirst == 0 ? 0 : _Mylast - _Myfirst);

  0000a	8b 41 08	 mov	 eax, DWORD PTR [ecx+8]
  0000d	2b c2		 sub	 eax, edx
  0000f	c1 f8 02	 sar	 eax, 2

; 517  : 		}

  00012	c3		 ret	 0
?size@?$vector@PAVCRangda@@V?$allocator@PAVCRangda@@@std@@@std@@QBEIXZ ENDP ; std::vector<CRangda *,std::allocator<CRangda *> >::size
_TEXT	ENDS
PUBLIC	??0?$allocator@PAVCRangda@@@std@@QAE@XZ		; std::allocator<CRangda *>::allocator<CRangda *>
; Function compile flags: /Ogty
; File c:\program files\microsoft visual studio .net 2003\vc7\include\xmemory
;	COMDAT ??0?$allocator@PAVCRangda@@@std@@QAE@XZ
_TEXT	SEGMENT
??0?$allocator@PAVCRangda@@@std@@QAE@XZ PROC NEAR	; std::allocator<CRangda *>::allocator<CRangda *>, COMDAT
; _this$ = ecx

; 111  : 	allocator()

  00000	8b c1		 mov	 eax, ecx

; 112  : 		{	// construct default allocator (do nothing)
; 113  : 		}

  00002	c3		 ret	 0
??0?$allocator@PAVCRangda@@@std@@QAE@XZ ENDP		; std::allocator<CRangda *>::allocator<CRangda *>
_TEXT	ENDS
PUBLIC	??Dconst_iterator@?$vector@PAVCRangda@@V?$allocator@PAVCRangda@@@std@@@std@@QBEABQAVCRangda@@XZ ; std::vector<CRangda *,std::allocator<CRangda *> >::const_iterator::operator*
; Function compile flags: /Ogty
; File c:\program files\microsoft visual studio .net 2003\vc7\include\vector
;	COMDAT ??Dconst_iterator@?$vector@PAVCRangda@@V?$allocator@PAVCRangda@@@std@@@std@@QBEABQAVCRangda@@XZ
_TEXT	SEGMENT
??Dconst_iterator@?$vector@PAVCRangda@@V?$allocator@PAVCRangda@@@std@@@std@@QBEABQAVCRangda@@XZ PROC NEAR ; std::vector<CRangda *,std::allocator<CRangda *> >::const_iterator::operator*, COMDAT
; _this$ = ecx

; 80   : 
; 81   : 
; 82   : 			return (*_Myptr);

  00000	8b 01		 mov	 eax, DWORD PTR [ecx]

; 83   : 			}

  00002	c3		 ret	 0
??Dconst_iterator@?$vector@PAVCRangda@@V?$allocator@PAVCRangda@@@std@@@std@@QBEABQAVCRangda@@XZ ENDP ; std::vector<CRangda *,std::allocator<CRangda *> >::const_iterator::operator*
_TEXT	ENDS
PUBLIC	??8const_iterator@?$vector@PAVCRangda@@V?$allocator@PAVCRangda@@@std@@@std@@QBE_NABV012@@Z ; std::vector<CRangda *,std::allocator<CRangda *> >::const_iterator::operator==
; Function compile flags: /Ogty
;	COMDAT ??8const_iterator@?$vector@PAVCRangda@@V?$allocator@PAVCRangda@@@std@@@std@@QBE_NABV012@@Z
_TEXT	SEGMENT
__Right$ = 8						; size = 4
??8const_iterator@?$vector@PAVCRangda@@V?$allocator@PAVCRangda@@@std@@@std@@QBE_NABV012@@Z PROC NEAR ; std::vector<CRangda *,std::allocator<CRangda *> >::const_iterator::operator==, COMDAT
; _this$ = ecx

; 153  : 
; 154  : 
; 155  : 			return (_Myptr == _Right._Myptr);

  00000	8b 01		 mov	 eax, DWORD PTR [ecx]
  00002	8b 4c 24 04	 mov	 ecx, DWORD PTR __Right$[esp-4]
  00006	2b 01		 sub	 eax, DWORD PTR [ecx]
  00008	f7 d8		 neg	 eax
  0000a	1b c0		 sbb	 eax, eax
  0000c	40		 inc	 eax

; 156  : 			}

  0000d	c2 04 00	 ret	 4
??8const_iterator@?$vector@PAVCRangda@@V?$allocator@PAVCRangda@@@std@@@std@@QBE_NABV012@@Z ENDP ; std::vector<CRangda *,std::allocator<CRangda *> >::const_iterator::operator==
_TEXT	ENDS
PUBLIC	?StringCompare@?$ChTraitsCRT@D@ATL@@SAHPBD0@Z	; ATL::ChTraitsCRT<char>::StringCompare
EXTRN	__mbscmp:NEAR
; Function compile flags: /Ogty
; File c:\program files\microsoft visual studio .net 2003\vc7\atlmfc\include\cstringt.h
;	COMDAT ?StringCompare@?$ChTraitsCRT@D@ATL@@SAHPBD0@Z
_TEXT	SEGMENT
_pszA$ = 8						; size = 4
_pszB$ = 12						; size = 4
?StringCompare@?$ChTraitsCRT@D@ATL@@SAHPBD0@Z PROC NEAR	; ATL::ChTraitsCRT<char>::StringCompare, COMDAT

; 336  : 		return _mbscmp( reinterpret_cast< const unsigned char* >( pszA ), reinterpret_cast< const unsigned char* >( pszB ) );

  00000	e9 00 00 00 00	 jmp	 __mbscmp
?StringCompare@?$ChTraitsCRT@D@ATL@@SAHPBD0@Z ENDP	; ATL::ChTraitsCRT<char>::StringCompare
_TEXT	ENDS
PUBLIC	??0?$allocator@U_RANGDA_POS@@@std@@QAE@ABV01@@Z	; std::allocator<_RANGDA_POS>::allocator<_RANGDA_POS>
; Function compile flags: /Ogty
; File c:\program files\microsoft visual studio .net 2003\vc7\include\xmemory
;	COMDAT ??0?$allocator@U_RANGDA_POS@@@std@@QAE@ABV01@@Z
_TEXT	SEGMENT
___formal$ = 8						; size = 4
??0?$allocator@U_RANGDA_POS@@@std@@QAE@ABV01@@Z PROC NEAR ; std::allocator<_RANGDA_POS>::allocator<_RANGDA_POS>, COMDAT
; _this$ = ecx

; 115  : 	allocator(const allocator<_Ty>&)

  00000	8b c1		 mov	 eax, ecx

; 116  : 		{	// construct by copying (do nothing)
; 117  : 		}

  00002	c2 04 00	 ret	 4
??0?$allocator@U_RANGDA_POS@@@std@@QAE@ABV01@@Z ENDP	; std::allocator<_RANGDA_POS>::allocator<_RANGDA_POS>
_TEXT	ENDS
PUBLIC	?deallocate@?$allocator@U_RANGDA_POS@@@std@@QAEXPAU_RANGDA_POS@@I@Z ; std::allocator<_RANGDA_POS>::deallocate
EXTRN	??3@YAXPAX@Z:NEAR				; operator delete
; Function compile flags: /Ogty
;	COMDAT ?deallocate@?$allocator@U_RANGDA_POS@@@std@@QAEXPAU_RANGDA_POS@@I@Z
_TEXT	SEGMENT
__Ptr$ = 8						; size = 4
___formal$ = 12						; size = 4
?deallocate@?$allocator@U_RANGDA_POS@@@std@@QAEXPAU_RANGDA_POS@@I@Z PROC NEAR ; std::allocator<_RANGDA_POS>::deallocate, COMDAT
; _this$ = ecx

; 132  : 		operator delete(_Ptr);

  00000	8b 44 24 04	 mov	 eax, DWORD PTR __Ptr$[esp-4]
  00004	50		 push	 eax
  00005	e8 00 00 00 00	 call	 ??3@YAXPAX@Z		; operator delete
  0000a	59		 pop	 ecx

; 133  : 		}

  0000b	c2 08 00	 ret	 8
?deallocate@?$allocator@U_RANGDA_POS@@@std@@QAEXPAU_RANGDA_POS@@I@Z ENDP ; std::allocator<_RANGDA_POS>::deallocate
_TEXT	ENDS
PUBLIC	??0?$allocator@PAVCRangda@@@std@@QAE@ABV01@@Z	; std::allocator<CRangda *>::allocator<CRangda *>
; Function compile flags: /Ogty
;	COMDAT ??0?$allocator@PAVCRangda@@@std@@QAE@ABV01@@Z
_TEXT	SEGMENT
___formal$ = 8						; size = 4
??0?$allocator@PAVCRangda@@@std@@QAE@ABV01@@Z PROC NEAR	; std::allocator<CRangda *>::allocator<CRangda *>, COMDAT
; _this$ = ecx

; 115  : 	allocator(const allocator<_Ty>&)

  00000	8b c1		 mov	 eax, ecx

; 116  : 		{	// construct by copying (do nothing)
; 117  : 		}

  00002	c2 04 00	 ret	 4
??0?$allocator@PAVCRangda@@@std@@QAE@ABV01@@Z ENDP	; std::allocator<CRangda *>::allocator<CRangda *>
_TEXT	ENDS
PUBLIC	?deallocate@?$allocator@PAVCRangda@@@std@@QAEXPAPAVCRangda@@I@Z ; std::allocator<CRangda *>::deallocate
; Function compile flags: /Ogty
;	COMDAT ?deallocate@?$allocator@PAVCRangda@@@std@@QAEXPAPAVCRangda@@I@Z
_TEXT	SEGMENT
__Ptr$ = 8						; size = 4
___formal$ = 12						; size = 4
?deallocate@?$allocator@PAVCRangda@@@std@@QAEXPAPAVCRangda@@I@Z PROC NEAR ; std::allocator<CRangda *>::deallocate, COMDAT
; _this$ = ecx

; 132  : 		operator delete(_Ptr);

  00000	8b 44 24 04	 mov	 eax, DWORD PTR __Ptr$[esp-4]
  00004	50		 push	 eax
  00005	e8 00 00 00 00	 call	 ??3@YAXPAX@Z		; operator delete
  0000a	59		 pop	 ecx

; 133  : 		}

  0000b	c2 08 00	 ret	 8
?deallocate@?$allocator@PAVCRangda@@@std@@QAEXPAPAVCRangda@@I@Z ENDP ; std::allocator<CRangda *>::deallocate
_TEXT	ENDS
PUBLIC	??0const_iterator@?$vector@PAVCRangda@@V?$allocator@PAVCRangda@@@std@@@std@@QAE@PAPAVCRangda@@@Z ; std::vector<CRangda *,std::allocator<CRangda *> >::const_iterator::const_iterator
; Function compile flags: /Ogty
; File c:\program files\microsoft visual studio .net 2003\vc7\include\vector
;	COMDAT ??0const_iterator@?$vector@PAVCRangda@@V?$allocator@PAVCRangda@@@std@@@std@@QAE@PAPAVCRangda@@@Z
_TEXT	SEGMENT
__Ptr$ = 8						; size = 4
??0const_iterator@?$vector@PAVCRangda@@V?$allocator@PAVCRangda@@@std@@@std@@QAE@PAPAVCRangda@@@Z PROC NEAR ; std::vector<CRangda *,std::allocator<CRangda *> >::const_iterator::const_iterator, COMDAT
; _this$ = ecx

; 73   : 		const_iterator(_Tptr _Ptr)

  00000	8b c1		 mov	 eax, ecx

; 74   : 			{	// construct with pointer _Ptr
; 75   : 			_Myptr = _Ptr;

  00002	8b 4c 24 04	 mov	 ecx, DWORD PTR __Ptr$[esp-4]
  00006	89 08		 mov	 DWORD PTR [eax], ecx

; 76   : 			}

  00008	c2 04 00	 ret	 4
??0const_iterator@?$vector@PAVCRangda@@V?$allocator@PAVCRangda@@@std@@@std@@QAE@PAPAVCRangda@@@Z ENDP ; std::vector<CRangda *,std::allocator<CRangda *> >::const_iterator::const_iterator
_TEXT	ENDS
PUBLIC	??Yiterator@?$vector@U_RANGDA_POS@@V?$allocator@U_RANGDA_POS@@@std@@@std@@QAEAAV012@H@Z ; std::vector<_RANGDA_POS,std::allocator<_RANGDA_POS> >::iterator::operator+=
; Function compile flags: /Ogty
;	COMDAT ??Yiterator@?$vector@U_RANGDA_POS@@V?$allocator@U_RANGDA_POS@@@std@@@std@@QAEAAV012@H@Z
_TEXT	SEGMENT
__Off$ = 8						; size = 4
??Yiterator@?$vector@U_RANGDA_POS@@V?$allocator@U_RANGDA_POS@@@std@@@std@@QAEAAV012@H@Z PROC NEAR ; std::vector<_RANGDA_POS,std::allocator<_RANGDA_POS> >::iterator::operator+=, COMDAT
; _this$ = ecx

; 255  : 			{	// increment by integer

  00000	8b c1		 mov	 eax, ecx

; 256  : 			this->_Myptr += _Off;

  00002	8b 4c 24 04	 mov	 ecx, DWORD PTR __Off$[esp-4]
  00006	8b 10		 mov	 edx, DWORD PTR [eax]
  00008	c1 e1 04	 shl	 ecx, 4
  0000b	03 d1		 add	 edx, ecx
  0000d	89 10		 mov	 DWORD PTR [eax], edx

; 257  : 			return (*this);
; 258  : 			}

  0000f	c2 04 00	 ret	 4
??Yiterator@?$vector@U_RANGDA_POS@@V?$allocator@U_RANGDA_POS@@@std@@@std@@QAEAAV012@H@Z ENDP ; std::vector<_RANGDA_POS,std::allocator<_RANGDA_POS> >::iterator::operator+=
_TEXT	ENDS
PUBLIC	??Dconst_iterator@?$vector@U_RANGDA_POS@@V?$allocator@U_RANGDA_POS@@@std@@@std@@QBEABU_RANGDA_POS@@XZ ; std::vector<_RANGDA_POS,std::allocator<_RANGDA_POS> >::const_iterator::operator*
; Function compile flags: /Ogty
;	COMDAT ??Dconst_iterator@?$vector@U_RANGDA_POS@@V?$allocator@U_RANGDA_POS@@@std@@@std@@QBEABU_RANGDA_POS@@XZ
_TEXT	SEGMENT
??Dconst_iterator@?$vector@U_RANGDA_POS@@V?$allocator@U_RANGDA_POS@@@std@@@std@@QBEABU_RANGDA_POS@@XZ PROC NEAR ; std::vector<_RANGDA_POS,std::allocator<_RANGDA_POS> >::const_iterator::operator*, COMDAT
; _this$ = ecx

; 80   : 
; 81   : 
; 82   : 			return (*_Myptr);

  00000	8b 01		 mov	 eax, DWORD PTR [ecx]

; 83   : 			}

  00002	c3		 ret	 0
??Dconst_iterator@?$vector@U_RANGDA_POS@@V?$allocator@U_RANGDA_POS@@@std@@@std@@QBEABU_RANGDA_POS@@XZ ENDP ; std::vector<_RANGDA_POS,std::allocator<_RANGDA_POS> >::const_iterator::operator*
_TEXT	ENDS
PUBLIC	?max_size@?$allocator@U_RANGDA_POS@@@std@@QBEIXZ ; std::allocator<_RANGDA_POS>::max_size
; Function compile flags: /Ogty
; File c:\program files\microsoft visual studio .net 2003\vc7\include\xmemory
;	COMDAT ?max_size@?$allocator@U_RANGDA_POS@@@std@@QBEIXZ
_TEXT	SEGMENT
?max_size@?$allocator@U_RANGDA_POS@@@std@@QBEIXZ PROC NEAR ; std::allocator<_RANGDA_POS>::max_size, COMDAT
; _this$ = ecx

; 157  : 		_SIZT _Count = (_SIZT)(-1) / sizeof (_Ty);
; 158  : 		return (0 < _Count ? _Count : 1);

  00000	b8 ff ff ff 0f	 mov	 eax, 268435455		; 0fffffffH

; 159  : 		}

  00005	c3		 ret	 0
?max_size@?$allocator@U_RANGDA_POS@@@std@@QBEIXZ ENDP	; std::allocator<_RANGDA_POS>::max_size
_TEXT	ENDS
PUBLIC	?max_size@?$allocator@PAVCRangda@@@std@@QBEIXZ	; std::allocator<CRangda *>::max_size
; Function compile flags: /Ogty
;	COMDAT ?max_size@?$allocator@PAVCRangda@@@std@@QBEIXZ
_TEXT	SEGMENT
?max_size@?$allocator@PAVCRangda@@@std@@QBEIXZ PROC NEAR ; std::allocator<CRangda *>::max_size, COMDAT
; _this$ = ecx

; 157  : 		_SIZT _Count = (_SIZT)(-1) / sizeof (_Ty);
; 158  : 		return (0 < _Count ? _Count : 1);

  00000	b8 ff ff ff 3f	 mov	 eax, 1073741823		; 3fffffffH

; 159  : 		}

  00005	c3		 ret	 0
?max_size@?$allocator@PAVCRangda@@@std@@QBEIXZ ENDP	; std::allocator<CRangda *>::max_size
_TEXT	ENDS
PUBLIC	??Yiterator@?$vector@PAVCRangda@@V?$allocator@PAVCRangda@@@std@@@std@@QAEAAV012@H@Z ; std::vector<CRangda *,std::allocator<CRangda *> >::iterator::operator+=
; Function compile flags: /Ogty
; File c:\program files\microsoft visual studio .net 2003\vc7\include\vector
;	COMDAT ??Yiterator@?$vector@PAVCRangda@@V?$allocator@PAVCRangda@@@std@@@std@@QAEAAV012@H@Z
_TEXT	SEGMENT
__Off$ = 8						; size = 4
??Yiterator@?$vector@PAVCRangda@@V?$allocator@PAVCRangda@@@std@@@std@@QAEAAV012@H@Z PROC NEAR ; std::vector<CRangda *,std::allocator<CRangda *> >::iterator::operator+=, COMDAT
; _this$ = ecx

; 255  : 			{	// increment by integer

  00000	8b c1		 mov	 eax, ecx

; 256  : 			this->_Myptr += _Off;

  00002	8b 4c 24 04	 mov	 ecx, DWORD PTR __Off$[esp-4]
  00006	8d 14 8d 00 00
	00 00		 lea	 edx, DWORD PTR [ecx*4]
  0000d	01 10		 add	 DWORD PTR [eax], edx

; 257  : 			return (*this);
; 258  : 			}

  0000f	c2 04 00	 ret	 4
??Yiterator@?$vector@PAVCRangda@@V?$allocator@PAVCRangda@@@std@@@std@@QAEAAV012@H@Z ENDP ; std::vector<CRangda *,std::allocator<CRangda *> >::iterator::operator+=
_TEXT	ENDS
PUBLIC	??Gconst_iterator@?$vector@PAVCRangda@@V?$allocator@PAVCRangda@@@std@@@std@@QBEHABV012@@Z ; std::vector<CRangda *,std::allocator<CRangda *> >::const_iterator::operator-
; Function compile flags: /Ogty
;	COMDAT ??Gconst_iterator@?$vector@PAVCRangda@@V?$allocator@PAVCRangda@@@std@@@std@@QBEHABV012@@Z
_TEXT	SEGMENT
__Right$ = 8						; size = 4
??Gconst_iterator@?$vector@PAVCRangda@@V?$allocator@PAVCRangda@@@std@@@std@@QBEHABV012@@Z PROC NEAR ; std::vector<CRangda *,std::allocator<CRangda *> >::const_iterator::operator-, COMDAT
; _this$ = ecx

; 141  : 
; 142  : 
; 143  : 			return (_Myptr - _Right._Myptr);

  00000	8b 01		 mov	 eax, DWORD PTR [ecx]
  00002	8b 4c 24 04	 mov	 ecx, DWORD PTR __Right$[esp-4]
  00006	2b 01		 sub	 eax, DWORD PTR [ecx]
  00008	c1 f8 02	 sar	 eax, 2

; 144  : 			}

  0000b	c2 04 00	 ret	 4
??Gconst_iterator@?$vector@PAVCRangda@@V?$allocator@PAVCRangda@@@std@@@std@@QBEHABV012@@Z ENDP ; std::vector<CRangda *,std::allocator<CRangda *> >::const_iterator::operator-
_TEXT	ENDS
PUBLIC	??0const_iterator@?$vector@U_RANGDA_POS@@V?$allocator@U_RANGDA_POS@@@std@@@std@@QAE@PAU_RANGDA_POS@@@Z ; std::vector<_RANGDA_POS,std::allocator<_RANGDA_POS> >::const_iterator::const_iterator
; Function compile flags: /Ogty
;	COMDAT ??0const_iterator@?$vector@U_RANGDA_POS@@V?$allocator@U_RANGDA_POS@@@std@@@std@@QAE@PAU_RANGDA_POS@@@Z
_TEXT	SEGMENT
__Ptr$ = 8						; size = 4
??0const_iterator@?$vector@U_RANGDA_POS@@V?$allocator@U_RANGDA_POS@@@std@@@std@@QAE@PAU_RANGDA_POS@@@Z PROC NEAR ; std::vector<_RANGDA_POS,std::allocator<_RANGDA_POS> >::const_iterator::const_iterator, COMDAT
; _this$ = ecx

; 73   : 		const_iterator(_Tptr _Ptr)

  00000	8b c1		 mov	 eax, ecx

; 74   : 			{	// construct with pointer _Ptr
; 75   : 			_Myptr = _Ptr;

  00002	8b 4c 24 04	 mov	 ecx, DWORD PTR __Ptr$[esp-4]
  00006	89 08		 mov	 DWORD PTR [eax], ecx

; 76   : 			}

  00008	c2 04 00	 ret	 4
??0const_iterator@?$vector@U_RANGDA_POS@@V?$allocator@U_RANGDA_POS@@@std@@@std@@QAE@PAU_RANGDA_POS@@@Z ENDP ; std::vector<_RANGDA_POS,std::allocator<_RANGDA_POS> >::const_iterator::const_iterator
_TEXT	ENDS
PUBLIC	??Gconst_iterator@?$vector@U_RANGDA_POS@@V?$allocator@U_RANGDA_POS@@@std@@@std@@QBEHABV012@@Z ; std::vector<_RANGDA_POS,std::allocator<_RANGDA_POS> >::const_iterator::operator-
; Function compile flags: /Ogty
;	COMDAT ??Gconst_iterator@?$vector@U_RANGDA_POS@@V?$allocator@U_RANGDA_POS@@@std@@@std@@QBEHABV012@@Z
_TEXT	SEGMENT
__Right$ = 8						; size = 4
??Gconst_iterator@?$vector@U_RANGDA_POS@@V?$allocator@U_RANGDA_POS@@@std@@@std@@QBEHABV012@@Z PROC NEAR ; std::vector<_RANGDA_POS,std::allocator<_RANGDA_POS> >::const_iterator::operator-, COMDAT
; _this$ = ecx

; 141  : 
; 142  : 
; 143  : 			return (_Myptr - _Right._Myptr);

  00000	8b 01		 mov	 eax, DWORD PTR [ecx]
  00002	8b 4c 24 04	 mov	 ecx, DWORD PTR __Right$[esp-4]
  00006	2b 01		 sub	 eax, DWORD PTR [ecx]
  00008	c1 f8 04	 sar	 eax, 4

; 144  : 			}

  0000b	c2 04 00	 ret	 4
??Gconst_iterator@?$vector@U_RANGDA_POS@@V?$allocator@U_RANGDA_POS@@@std@@@std@@QBEHABV012@@Z ENDP ; std::vector<_RANGDA_POS,std::allocator<_RANGDA_POS> >::const_iterator::operator-
_TEXT	ENDS
PUBLIC	??$fill@PAU_RANGDA_POS@@U1@@std@@YAXPAU_RANGDA_POS@@0ABU1@@Z ; std::fill<_RANGDA_POS *,_RANGDA_POS>
; Function compile flags: /Ogty
; File c:\program files\microsoft visual studio .net 2003\vc7\include\xutility
;	COMDAT ??$fill@PAU_RANGDA_POS@@U1@@std@@YAXPAU_RANGDA_POS@@0ABU1@@Z
_TEXT	SEGMENT
__First$ = 8						; size = 4
__Last$ = 12						; size = 4
__Val$ = 16						; size = 4
??$fill@PAU_RANGDA_POS@@U1@@std@@YAXPAU_RANGDA_POS@@0ABU1@@Z PROC NEAR ; std::fill<_RANGDA_POS *,_RANGDA_POS>, COMDAT

; 1135 : 	for (; _First != _Last; ++_First)

  00000	8b 44 24 04	 mov	 eax, DWORD PTR __First$[esp-4]
  00004	8b 4c 24 08	 mov	 ecx, DWORD PTR __Last$[esp-4]
  00008	3b c1		 cmp	 eax, ecx
  0000a	74 2b		 je	 SHORT $L230657
  0000c	8b 54 24 0c	 mov	 edx, DWORD PTR __Val$[esp-4]
  00010	53		 push	 ebx
  00011	56		 push	 esi
  00012	57		 push	 edi
$L230655:

; 1136 : 		*_First = _Val;

  00013	8b f2		 mov	 esi, edx
  00015	8b 1e		 mov	 ebx, DWORD PTR [esi]
  00017	8b f8		 mov	 edi, eax
  00019	89 1f		 mov	 DWORD PTR [edi], ebx
  0001b	8b 5e 04	 mov	 ebx, DWORD PTR [esi+4]
  0001e	89 5f 04	 mov	 DWORD PTR [edi+4], ebx
  00021	8b 5e 08	 mov	 ebx, DWORD PTR [esi+8]
  00024	89 5f 08	 mov	 DWORD PTR [edi+8], ebx
  00027	8b 76 0c	 mov	 esi, DWORD PTR [esi+12]
  0002a	83 c0 10	 add	 eax, 16			; 00000010H
  0002d	3b c1		 cmp	 eax, ecx
  0002f	89 77 0c	 mov	 DWORD PTR [edi+12], esi
  00032	75 df		 jne	 SHORT $L230655
  00034	5f		 pop	 edi
  00035	5e		 pop	 esi
  00036	5b		 pop	 ebx
$L230657:

; 1137 : 	}

  00037	c3		 ret	 0
??$fill@PAU_RANGDA_POS@@U1@@std@@YAXPAU_RANGDA_POS@@0ABU1@@Z ENDP ; std::fill<_RANGDA_POS *,_RANGDA_POS>
_TEXT	ENDS
PUBLIC	??$_Allocate@U_RANGDA_POS@@@std@@YAPAU_RANGDA_POS@@IPAU1@@Z ; std::_Allocate<_RANGDA_POS>
EXTRN	??2@YAPAXI@Z:NEAR				; operator new
; Function compile flags: /Ogty
; File c:\program files\microsoft visual studio .net 2003\vc7\include\xmemory
;	COMDAT ??$_Allocate@U_RANGDA_POS@@@std@@YAPAU_RANGDA_POS@@IPAU1@@Z
_TEXT	SEGMENT
__Count$ = 8						; size = 4
___formal$ = 12						; size = 4
??$_Allocate@U_RANGDA_POS@@@std@@YAPAU_RANGDA_POS@@IPAU1@@Z PROC NEAR ; std::_Allocate<_RANGDA_POS>, COMDAT

; 34   : 	return ((_Ty _FARQ *)operator new(_Count * sizeof (_Ty)));

  00000	8b 44 24 04	 mov	 eax, DWORD PTR __Count$[esp-4]
  00004	c1 e0 04	 shl	 eax, 4
  00007	50		 push	 eax
  00008	e8 00 00 00 00	 call	 ??2@YAPAXI@Z		; operator new
  0000d	83 c4 04	 add	 esp, 4

; 35   : 	}

  00010	c3		 ret	 0
??$_Allocate@U_RANGDA_POS@@@std@@YAPAU_RANGDA_POS@@IPAU1@@Z ENDP ; std::_Allocate<_RANGDA_POS>
_TEXT	ENDS
PUBLIC	??$fill@PAPAVCRangda@@PAV1@@std@@YAXPAPAVCRangda@@0ABQAV1@@Z ; std::fill<CRangda * *,CRangda *>
; Function compile flags: /Ogty
; File c:\program files\microsoft visual studio .net 2003\vc7\include\xutility
;	COMDAT ??$fill@PAPAVCRangda@@PAV1@@std@@YAXPAPAVCRangda@@0ABQAV1@@Z
_TEXT	SEGMENT
__First$ = 8						; size = 4
__Last$ = 12						; size = 4
__Val$ = 16						; size = 4
??$fill@PAPAVCRangda@@PAV1@@std@@YAXPAPAVCRangda@@0ABQAV1@@Z PROC NEAR ; std::fill<CRangda * *,CRangda *>, COMDAT

; 1135 : 	for (; _First != _Last; ++_First)

  00000	8b 44 24 04	 mov	 eax, DWORD PTR __First$[esp-4]
  00004	8b 4c 24 08	 mov	 ecx, DWORD PTR __Last$[esp-4]
  00008	3b c1		 cmp	 eax, ecx
  0000a	74 11		 je	 SHORT $L230711
  0000c	8b 54 24 0c	 mov	 edx, DWORD PTR __Val$[esp-4]
  00010	56		 push	 esi
$L230709:

; 1136 : 		*_First = _Val;

  00011	8b 32		 mov	 esi, DWORD PTR [edx]
  00013	89 30		 mov	 DWORD PTR [eax], esi
  00015	83 c0 04	 add	 eax, 4
  00018	3b c1		 cmp	 eax, ecx
  0001a	75 f5		 jne	 SHORT $L230709
  0001c	5e		 pop	 esi
$L230711:

; 1137 : 	}

  0001d	c3		 ret	 0
??$fill@PAPAVCRangda@@PAV1@@std@@YAXPAPAVCRangda@@0ABQAV1@@Z ENDP ; std::fill<CRangda * *,CRangda *>
_TEXT	ENDS
PUBLIC	??$_Allocate@PAVCRangda@@@std@@YAPAPAVCRangda@@IPAPAV1@@Z ; std::_Allocate<CRangda *>
; Function compile flags: /Ogty
; File c:\program files\microsoft visual studio .net 2003\vc7\include\xmemory
;	COMDAT ??$_Allocate@PAVCRangda@@@std@@YAPAPAVCRangda@@IPAPAV1@@Z
_TEXT	SEGMENT
__Count$ = 8						; size = 4
___formal$ = 12						; size = 4
??$_Allocate@PAVCRangda@@@std@@YAPAPAVCRangda@@IPAPAV1@@Z PROC NEAR ; std::_Allocate<CRangda *>, COMDAT

; 34   : 	return ((_Ty _FARQ *)operator new(_Count * sizeof (_Ty)));

  00000	8b 44 24 04	 mov	 eax, DWORD PTR __Count$[esp-4]
  00004	8d 0c 85 00 00
	00 00		 lea	 ecx, DWORD PTR [eax*4]
  0000b	51		 push	 ecx
  0000c	e8 00 00 00 00	 call	 ??2@YAPAXI@Z		; operator new
  00011	83 c4 04	 add	 esp, 4

; 35   : 	}

  00014	c3		 ret	 0
??$_Allocate@PAVCRangda@@@std@@YAPAPAVCRangda@@IPAPAV1@@Z ENDP ; std::_Allocate<CRangda *>
_TEXT	ENDS
PUBLIC	??$_Ptr_cat@PAU_RANGDA_POS@@PAU1@@std@@YA?AU_Nonscalar_ptr_iterator_tag@0@AAPAU_RANGDA_POS@@0@Z ; std::_Ptr_cat<_RANGDA_POS *,_RANGDA_POS *>
; Function compile flags: /Ogty
; File c:\program files\microsoft visual studio .net 2003\vc7\include\xutility
;	COMDAT ??$_Ptr_cat@PAU_RANGDA_POS@@PAU1@@std@@YA?AU_Nonscalar_ptr_iterator_tag@0@AAPAU_RANGDA_POS@@0@Z
_TEXT	SEGMENT
__Cat$ = -1						; size = 1
___formal$ = 8						; size = 4
___formal$ = 12						; size = 4
??$_Ptr_cat@PAU_RANGDA_POS@@PAU1@@std@@YA?AU_Nonscalar_ptr_iterator_tag@0@AAPAU_RANGDA_POS@@0@Z PROC NEAR ; std::_Ptr_cat<_RANGDA_POS *,_RANGDA_POS *>, COMDAT

; 211  : 	{	// return pointer category from arbitrary arguments

  00000	51		 push	 ecx

; 212  : 	_Nonscalar_ptr_iterator_tag _Cat;
; 213  : 	return (_Cat);

  00001	8a 44 24 03	 mov	 al, BYTE PTR __Cat$[esp+4]

; 214  : 	}

  00005	59		 pop	 ecx
  00006	c3		 ret	 0
??$_Ptr_cat@PAU_RANGDA_POS@@PAU1@@std@@YA?AU_Nonscalar_ptr_iterator_tag@0@AAPAU_RANGDA_POS@@0@Z ENDP ; std::_Ptr_cat<_RANGDA_POS *,_RANGDA_POS *>
_TEXT	ENDS
PUBLIC	??$_Ptr_cat@VCRangda@@@std@@YA?AU_Scalar_ptr_iterator_tag@0@PAPAVCRangda@@0@Z ; std::_Ptr_cat<CRangda>
; Function compile flags: /Ogty
;	COMDAT ??$_Ptr_cat@VCRangda@@@std@@YA?AU_Scalar_ptr_iterator_tag@0@PAPAVCRangda@@0@Z
_TEXT	SEGMENT
__Cat$ = -1						; size = 1
___formal$ = 8						; size = 4
___formal$ = 12						; size = 4
??$_Ptr_cat@VCRangda@@@std@@YA?AU_Scalar_ptr_iterator_tag@0@PAPAVCRangda@@0@Z PROC NEAR ; std::_Ptr_cat<CRangda>, COMDAT

; 218  : 	{	// return pointer category from pointer to pointer arguments

  00000	51		 push	 ecx

; 219  : 	_Scalar_ptr_iterator_tag _Cat;
; 220  : 	return (_Cat);

  00001	8a 44 24 03	 mov	 al, BYTE PTR __Cat$[esp+4]

; 221  : 	}

  00005	59		 pop	 ecx
  00006	c3		 ret	 0
??$_Ptr_cat@VCRangda@@@std@@YA?AU_Scalar_ptr_iterator_tag@0@PAPAVCRangda@@0@Z ENDP ; std::_Ptr_cat<CRangda>
_TEXT	ENDS
PUBLIC	??$_Copy_backward_opt@PAU_RANGDA_POS@@PAU1@@std@@YAPAU_RANGDA_POS@@PAU1@00U_Nonscalar_ptr_iterator_tag@0@@Z ; std::_Copy_backward_opt<_RANGDA_POS *,_RANGDA_POS *>
; Function compile flags: /Ogty
;	COMDAT ??$_Copy_backward_opt@PAU_RANGDA_POS@@PAU1@@std@@YAPAU_RANGDA_POS@@PAU1@00U_Nonscalar_ptr_iterator_tag@0@@Z
_TEXT	SEGMENT
__First$ = 8						; size = 4
__Last$ = 12						; size = 4
__Dest$ = 16						; size = 4
___formal$ = 20						; size = 1
??$_Copy_backward_opt@PAU_RANGDA_POS@@PAU1@@std@@YAPAU_RANGDA_POS@@PAU1@00U_Nonscalar_ptr_iterator_tag@0@@Z PROC NEAR ; std::_Copy_backward_opt<_RANGDA_POS *,_RANGDA_POS *>, COMDAT

; 1049 : 	while (_First != _Last)

  00000	8b 54 24 04	 mov	 edx, DWORD PTR __First$[esp-4]
  00004	8b 4c 24 08	 mov	 ecx, DWORD PTR __Last$[esp-4]
  00008	3b d1		 cmp	 edx, ecx
  0000a	8b 44 24 0c	 mov	 eax, DWORD PTR __Dest$[esp-4]
  0000e	74 2a		 je	 SHORT $L230970
  00010	53		 push	 ebx
  00011	56		 push	 esi
  00012	57		 push	 edi
$L230969:

; 1050 : 		*--_Dest = *--_Last;

  00013	83 e9 10	 sub	 ecx, 16			; 00000010H
  00016	83 e8 10	 sub	 eax, 16			; 00000010H
  00019	3b ca		 cmp	 ecx, edx
  0001b	8b f1		 mov	 esi, ecx
  0001d	8b 1e		 mov	 ebx, DWORD PTR [esi]
  0001f	8b f8		 mov	 edi, eax
  00021	89 1f		 mov	 DWORD PTR [edi], ebx
  00023	8b 5e 04	 mov	 ebx, DWORD PTR [esi+4]
  00026	89 5f 04	 mov	 DWORD PTR [edi+4], ebx
  00029	8b 5e 08	 mov	 ebx, DWORD PTR [esi+8]
  0002c	89 5f 08	 mov	 DWORD PTR [edi+8], ebx
  0002f	8b 76 0c	 mov	 esi, DWORD PTR [esi+12]
  00032	89 77 0c	 mov	 DWORD PTR [edi+12], esi
  00035	75 dc		 jne	 SHORT $L230969
  00037	5f		 pop	 edi
  00038	5e		 pop	 esi
  00039	5b		 pop	 ebx
$L230970:

; 1051 : 	return (_Dest);
; 1052 : 	}

  0003a	c3		 ret	 0
??$_Copy_backward_opt@PAU_RANGDA_POS@@PAU1@@std@@YAPAU_RANGDA_POS@@PAU1@00U_Nonscalar_ptr_iterator_tag@0@@Z ENDP ; std::_Copy_backward_opt<_RANGDA_POS *,_RANGDA_POS *>
_TEXT	ENDS
PUBLIC	??$_Destroy_range@PAVCRangda@@V?$allocator@PAVCRangda@@@std@@@std@@YAXPAPAVCRangda@@0AAV?$allocator@PAVCRangda@@@0@U_Scalar_ptr_iterator_tag@0@@Z ; std::_Destroy_range<CRangda *,std::allocator<CRangda *> >
; Function compile flags: /Ogty
; File c:\program files\microsoft visual studio .net 2003\vc7\include\xmemory
;	COMDAT ??$_Destroy_range@PAVCRangda@@V?$allocator@PAVCRangda@@@std@@@std@@YAXPAPAVCRangda@@0AAV?$allocator@PAVCRangda@@@0@U_Scalar_ptr_iterator_tag@0@@Z
_TEXT	SEGMENT
__First$ = 8						; size = 4
__Last$ = 12						; size = 4
__Al$ = 16						; size = 4
___formal$ = 20						; size = 1
??$_Destroy_range@PAVCRangda@@V?$allocator@PAVCRangda@@@std@@@std@@YAXPAPAVCRangda@@0AAV?$allocator@PAVCRangda@@@0@U_Scalar_ptr_iterator_tag@0@@Z PROC NEAR ; std::_Destroy_range<CRangda *,std::allocator<CRangda *> >, COMDAT

; 234  : 	}

  00000	c3		 ret	 0
??$_Destroy_range@PAVCRangda@@V?$allocator@PAVCRangda@@@std@@@std@@YAXPAPAVCRangda@@0AAV?$allocator@PAVCRangda@@@0@U_Scalar_ptr_iterator_tag@0@@Z ENDP ; std::_Destroy_range<CRangda *,std::allocator<CRangda *> >
_TEXT	ENDS
PUBLIC	??$_Copy_backward_opt@PAPAVCRangda@@PAPAV1@@std@@YAPAPAVCRangda@@PAPAV1@00U_Scalar_ptr_iterator_tag@0@@Z ; std::_Copy_backward_opt<CRangda * *,CRangda * *>
EXTRN	_memmove:NEAR
; Function compile flags: /Ogty
; File c:\program files\microsoft visual studio .net 2003\vc7\include\xutility
;	COMDAT ??$_Copy_backward_opt@PAPAVCRangda@@PAPAV1@@std@@YAPAPAVCRangda@@PAPAV1@00U_Scalar_ptr_iterator_tag@0@@Z
_TEXT	SEGMENT
__First$ = 8						; size = 4
__Last$ = 12						; size = 4
__Dest$ = 16						; size = 4
___formal$ = 20						; size = 1
??$_Copy_backward_opt@PAPAVCRangda@@PAPAV1@@std@@YAPAPAVCRangda@@PAPAV1@00U_Scalar_ptr_iterator_tag@0@@Z PROC NEAR ; std::_Copy_backward_opt<CRangda * *,CRangda * *>, COMDAT

; 1059 : 	ptrdiff_t _Off = _Last - _First;	// NB: non-overlapping move

  00000	8b 4c 24 04	 mov	 ecx, DWORD PTR __First$[esp-4]
  00004	8b 44 24 08	 mov	 eax, DWORD PTR __Last$[esp-4]
  00008	2b c1		 sub	 eax, ecx
  0000a	c1 f8 02	 sar	 eax, 2

; 1060 : 	return ((_OutIt)memmove(&*_Dest - _Off, &*_First,
; 1061 : 		_Off * sizeof (*_First)));

  0000d	c1 e0 02	 shl	 eax, 2
  00010	50		 push	 eax
  00011	51		 push	 ecx
  00012	8b 4c 24 14	 mov	 ecx, DWORD PTR __Dest$[esp+4]
  00016	2b c8		 sub	 ecx, eax
  00018	51		 push	 ecx
  00019	e8 00 00 00 00	 call	 _memmove
  0001e	83 c4 0c	 add	 esp, 12			; 0000000cH

; 1062 : 	}

  00021	c3		 ret	 0
??$_Copy_backward_opt@PAPAVCRangda@@PAPAV1@@std@@YAPAPAVCRangda@@PAPAV1@00U_Scalar_ptr_iterator_tag@0@@Z ENDP ; std::_Copy_backward_opt<CRangda * *,CRangda * *>
_TEXT	ENDS
PUBLIC	??$fill_n@PAPAVCRangda@@IPAV1@@std@@YAXPAPAVCRangda@@IABQAV1@@Z ; std::fill_n<CRangda * *,unsigned int,CRangda *>
; Function compile flags: /Ogty
;	COMDAT ??$fill_n@PAPAVCRangda@@IPAV1@@std@@YAXPAPAVCRangda@@IABQAV1@@Z
_TEXT	SEGMENT
__First$ = 8						; size = 4
__Count$ = 12						; size = 4
__Val$ = 16						; size = 4
??$fill_n@PAPAVCRangda@@IPAV1@@std@@YAXPAPAVCRangda@@IABQAV1@@Z PROC NEAR ; std::fill_n<CRangda * *,unsigned int,CRangda *>, COMDAT

; 1160 : 	for (; 0 < _Count; --_Count, ++_First)

  00000	8b 4c 24 08	 mov	 ecx, DWORD PTR __Count$[esp-4]
  00004	85 c9		 test	 ecx, ecx
  00006	76 14		 jbe	 SHORT $L231136
  00008	8b 54 24 0c	 mov	 edx, DWORD PTR __Val$[esp-4]
  0000c	8b 44 24 04	 mov	 eax, DWORD PTR __First$[esp-4]
  00010	56		 push	 esi
$L231134:

; 1161 : 		*_First = _Val;

  00011	8b 32		 mov	 esi, DWORD PTR [edx]
  00013	89 30		 mov	 DWORD PTR [eax], esi
  00015	83 c0 04	 add	 eax, 4
  00018	49		 dec	 ecx
  00019	75 f6		 jne	 SHORT $L231134
  0001b	5e		 pop	 esi
$L231136:

; 1162 : 	}

  0001c	c3		 ret	 0
??$fill_n@PAPAVCRangda@@IPAV1@@std@@YAXPAPAVCRangda@@IABQAV1@@Z ENDP ; std::fill_n<CRangda * *,unsigned int,CRangda *>
_TEXT	ENDS
PUBLIC	??$_Uninit_copy@PAVCRangda@@PAV1@@std@@YAPAPAVCRangda@@PAPAV1@00AAV?$allocator@PAVCRangda@@@0@U_Scalar_ptr_iterator_tag@0@@Z ; std::_Uninit_copy<CRangda *,CRangda *>
; Function compile flags: /Ogty
; File c:\program files\microsoft visual studio .net 2003\vc7\include\memory
;	COMDAT ??$_Uninit_copy@PAVCRangda@@PAV1@@std@@YAPAPAVCRangda@@PAPAV1@00AAV?$allocator@PAVCRangda@@@0@U_Scalar_ptr_iterator_tag@0@@Z
_TEXT	SEGMENT
__First$ = 8						; size = 4
__Last$ = 12						; size = 4
__Dest$ = 16						; size = 4
___formal$ = 20						; size = 4
___formal$ = 24						; size = 1
??$_Uninit_copy@PAVCRangda@@PAV1@@std@@YAPAPAVCRangda@@PAPAV1@00AAV?$allocator@PAVCRangda@@@0@U_Scalar_ptr_iterator_tag@0@@Z PROC NEAR ; std::_Uninit_copy<CRangda *,CRangda *>, COMDAT

; 106  : 	size_t _Count = (size_t)(_Last - _First);

  00000	8b 4c 24 04	 mov	 ecx, DWORD PTR __First$[esp-4]
  00004	8b 44 24 08	 mov	 eax, DWORD PTR __Last$[esp-4]
  00008	2b c1		 sub	 eax, ecx
  0000a	56		 push	 esi
  0000b	c1 f8 02	 sar	 eax, 2

; 107  : 	return ((_Ty2 *)memmove(&*_Dest, &*_First,
; 108  : 		_Count * sizeof (*_First)) + _Count);	// NB: non-overlapping move

  0000e	8d 34 85 00 00
	00 00		 lea	 esi, DWORD PTR [eax*4]
  00015	8b 44 24 10	 mov	 eax, DWORD PTR __Dest$[esp]
  00019	56		 push	 esi
  0001a	51		 push	 ecx
  0001b	50		 push	 eax
  0001c	e8 00 00 00 00	 call	 _memmove
  00021	83 c4 0c	 add	 esp, 12			; 0000000cH
  00024	03 c6		 add	 eax, esi
  00026	5e		 pop	 esi

; 109  : 	}

  00027	c3		 ret	 0
??$_Uninit_copy@PAVCRangda@@PAV1@@std@@YAPAPAVCRangda@@PAPAV1@00AAV?$allocator@PAVCRangda@@@0@U_Scalar_ptr_iterator_tag@0@@Z ENDP ; std::_Uninit_copy<CRangda *,CRangda *>
_TEXT	ENDS
PUBLIC	??$_Construct@U_RANGDA_POS@@U1@@std@@YAXPAU_RANGDA_POS@@ABU1@@Z ; std::_Construct<_RANGDA_POS,_RANGDA_POS>
; Function compile flags: /Ogty
; File c:\program files\microsoft visual studio .net 2003\vc7\include\xmemory
;	COMDAT ??$_Construct@U_RANGDA_POS@@U1@@std@@YAXPAU_RANGDA_POS@@ABU1@@Z
_TEXT	SEGMENT
__Ptr$ = 8						; size = 4
__Val$ = 12						; size = 4
??$_Construct@U_RANGDA_POS@@U1@@std@@YAXPAU_RANGDA_POS@@ABU1@@Z PROC NEAR ; std::_Construct<_RANGDA_POS,_RANGDA_POS>, COMDAT

; 42   : 	new ((void _FARQ *)_Ptr) _T1(_Val);

  00000	8b 44 24 04	 mov	 eax, DWORD PTR __Ptr$[esp-4]
  00004	85 c0		 test	 eax, eax
  00006	74 1a		 je	 SHORT $L232009
  00008	8b 4c 24 08	 mov	 ecx, DWORD PTR __Val$[esp-4]
  0000c	8b 11		 mov	 edx, DWORD PTR [ecx]
  0000e	89 10		 mov	 DWORD PTR [eax], edx
  00010	8b 51 04	 mov	 edx, DWORD PTR [ecx+4]
  00013	89 50 04	 mov	 DWORD PTR [eax+4], edx
  00016	8b 51 08	 mov	 edx, DWORD PTR [ecx+8]
  00019	89 50 08	 mov	 DWORD PTR [eax+8], edx
  0001c	8b 49 0c	 mov	 ecx, DWORD PTR [ecx+12]
  0001f	89 48 0c	 mov	 DWORD PTR [eax+12], ecx
$L232009:

; 43   : 	}

  00022	c3		 ret	 0
??$_Construct@U_RANGDA_POS@@U1@@std@@YAXPAU_RANGDA_POS@@ABU1@@Z ENDP ; std::_Construct<_RANGDA_POS,_RANGDA_POS>
_TEXT	ENDS
PUBLIC	??$_Destroy@U_RANGDA_POS@@@std@@YAXPAU_RANGDA_POS@@@Z ; std::_Destroy<_RANGDA_POS>
; Function compile flags: /Ogty
;	COMDAT ??$_Destroy@U_RANGDA_POS@@@std@@YAXPAU_RANGDA_POS@@@Z
_TEXT	SEGMENT
__Ptr$ = 8						; size = 4
??$_Destroy@U_RANGDA_POS@@@std@@YAXPAU_RANGDA_POS@@@Z PROC NEAR ; std::_Destroy<_RANGDA_POS>, COMDAT

; 49   : 	_DESTRUCTOR(_Ty, _Ptr);
; 50   : 	}

  00000	c3		 ret	 0
??$_Destroy@U_RANGDA_POS@@@std@@YAXPAU_RANGDA_POS@@@Z ENDP ; std::_Destroy<_RANGDA_POS>
_TEXT	ENDS
PUBLIC	?assign@?$char_traits@D@std@@SAXAADABD@Z	; std::char_traits<char>::assign
; Function compile flags: /Ogty
; File c:\program files\microsoft visual studio .net 2003\vc7\include\iosfwd
;	COMDAT ?assign@?$char_traits@D@std@@SAXAADABD@Z
_TEXT	SEGMENT
__Left$ = 8						; size = 4
__Right$ = 12						; size = 4
?assign@?$char_traits@D@std@@SAXAADABD@Z PROC NEAR	; std::char_traits<char>::assign, COMDAT

; 331  : 		_Left = _Right;

  00000	8b 44 24 08	 mov	 eax, DWORD PTR __Right$[esp-4]
  00004	8a 08		 mov	 cl, BYTE PTR [eax]
  00006	8b 54 24 04	 mov	 edx, DWORD PTR __Left$[esp-4]
  0000a	88 0a		 mov	 BYTE PTR [edx], cl

; 332  : 		}

  0000c	c3		 ret	 0
?assign@?$char_traits@D@std@@SAXAADABD@Z ENDP		; std::char_traits<char>::assign
_TEXT	ENDS
PUBLIC	?length@?$char_traits@D@std@@SAIPBD@Z		; std::char_traits<char>::length
; Function compile flags: /Ogty
;	COMDAT ?length@?$char_traits@D@std@@SAIPBD@Z
_TEXT	SEGMENT
__First$ = 8						; size = 4
?length@?$char_traits@D@std@@SAIPBD@Z PROC NEAR		; std::char_traits<char>::length, COMDAT

; 352  : 		return (::strlen(_First));

  00000	8b 44 24 04	 mov	 eax, DWORD PTR __First$[esp-4]
  00004	8d 50 01	 lea	 edx, DWORD PTR [eax+1]
$L232023:
  00007	8a 08		 mov	 cl, BYTE PTR [eax]
  00009	40		 inc	 eax
  0000a	84 c9		 test	 cl, cl
  0000c	75 f9		 jne	 SHORT $L232023
  0000e	2b c2		 sub	 eax, edx

; 353  : 		}

  00010	c3		 ret	 0
?length@?$char_traits@D@std@@SAIPBD@Z ENDP		; std::char_traits<char>::length
_TEXT	ENDS
PUBLIC	?copy@?$char_traits@D@std@@SAPADPADPBDI@Z	; std::char_traits<char>::copy
; Function compile flags: /Ogty
;	COMDAT ?copy@?$char_traits@D@std@@SAPADPADPBDI@Z
_TEXT	SEGMENT
__First1$ = 8						; size = 4
__First2$ = 12						; size = 4
__Count$ = 16						; size = 4
?copy@?$char_traits@D@std@@SAPADPADPBDI@Z PROC NEAR	; std::char_traits<char>::copy, COMDAT

; 358  : 		return ((_Elem *)::memcpy(_First1, _First2, _Count));

  00000	8b 4c 24 0c	 mov	 ecx, DWORD PTR __Count$[esp-4]
  00004	56		 push	 esi
  00005	8b 74 24 0c	 mov	 esi, DWORD PTR __First2$[esp]
  00009	57		 push	 edi
  0000a	8b 7c 24 0c	 mov	 edi, DWORD PTR __First1$[esp+4]
  0000e	8b c1		 mov	 eax, ecx
  00010	8b d7		 mov	 edx, edi
  00012	c1 e9 02	 shr	 ecx, 2
  00015	f3 a5		 rep movsd
  00017	8b c8		 mov	 ecx, eax
  00019	83 e1 03	 and	 ecx, 3
  0001c	f3 a4		 rep movsb
  0001e	5f		 pop	 edi
  0001f	8b c2		 mov	 eax, edx
  00021	5e		 pop	 esi

; 359  : 		}

  00022	c3		 ret	 0
?copy@?$char_traits@D@std@@SAPADPADPBDI@Z ENDP		; std::char_traits<char>::copy
_TEXT	ENDS
PUBLIC	?move@?$char_traits@D@std@@SAPADPADPBDI@Z	; std::char_traits<char>::move
; Function compile flags: /Ogty
;	COMDAT ?move@?$char_traits@D@std@@SAPADPADPBDI@Z
_TEXT	SEGMENT
__First1$ = 8						; size = 4
__First2$ = 12						; size = 4
__Count$ = 16						; size = 4
?move@?$char_traits@D@std@@SAPADPADPBDI@Z PROC NEAR	; std::char_traits<char>::move, COMDAT

; 370  : 		return ((_Elem *)::memmove(_First1, _First2, _Count));

  00000	e9 00 00 00 00	 jmp	 _memmove
?move@?$char_traits@D@std@@SAPADPADPBDI@Z ENDP		; std::char_traits<char>::move
_TEXT	ENDS
PUBLIC	??0D3DXVECTOR3@@QAE@XZ				; D3DXVECTOR3::D3DXVECTOR3
; Function compile flags: /Ogty
; File c:\documents and settings\test\mes documents\source\virtuos_v17\build\program\dx_sdk\d3dx9math.h
;	COMDAT ??0D3DXVECTOR3@@QAE@XZ
_TEXT	SEGMENT
??0D3DXVECTOR3@@QAE@XZ PROC NEAR			; D3DXVECTOR3::D3DXVECTOR3, COMDAT
; _this$ = ecx

; 165  :     D3DXVECTOR3() {};

  00000	8b c1		 mov	 eax, ecx
  00002	c3		 ret	 0
??0D3DXVECTOR3@@QAE@XZ ENDP				; D3DXVECTOR3::D3DXVECTOR3
_TEXT	ENDS
PUBLIC	?IsDelete@CObj@@QAEHXZ				; CObj::IsDelete
; Function compile flags: /Ogty
; File c:\documents and settings\test\mes documents\source\virtuos_v17\build\program\_common\obj.h
;	COMDAT ?IsDelete@CObj@@QAEHXZ
_TEXT	SEGMENT
?IsDelete@CObj@@QAEHXZ PROC NEAR			; CObj::IsDelete, COMDAT
; _this$ = ecx

; 180  : 	BOOL			IsDelete()	{ return (m_dwFlags & OBJ_FLAG_DELETE);  }

  00000	8b 41 04	 mov	 eax, DWORD PTR [ecx+4]
  00003	83 e0 01	 and	 eax, 1
  00006	c3		 ret	 0
?IsDelete@CObj@@QAEHXZ ENDP				; CObj::IsDelete
_TEXT	ENDS
PUBLIC	?GetIndex@CObj@@QAEKXZ				; CObj::GetIndex
; Function compile flags: /Ogty
;	COMDAT ?GetIndex@CObj@@QAEKXZ
_TEXT	SEGMENT
?GetIndex@CObj@@QAEKXZ PROC NEAR			; CObj::GetIndex, COMDAT
; _this$ = ecx

; 207  : 	DWORD			GetIndex() { return m_dwIndex; }

  00000	8b 81 74 01 00
	00		 mov	 eax, DWORD PTR [ecx+372]
  00006	c3		 ret	 0
?GetIndex@CObj@@QAEKXZ ENDP				; CObj::GetIndex
_TEXT	ENDS
PUBLIC	?GetPos@CObj@@QAE?AUD3DXVECTOR3@@XZ		; CObj::GetPos
; Function compile flags: /Ogty
;	COMDAT ?GetPos@CObj@@QAE?AUD3DXVECTOR3@@XZ
_TEXT	SEGMENT
___$ReturnUdt$ = 8					; size = 4
?GetPos@CObj@@QAE?AUD3DXVECTOR3@@XZ PROC NEAR		; CObj::GetPos, COMDAT
; _this$ = ecx

; 215  : 	D3DXVECTOR3		GetPos()	{ return m_vPos; }

  00000	8b 44 24 04	 mov	 eax, DWORD PTR ___$ReturnUdt$[esp-4]
  00004	81 c1 60 01 00
	00		 add	 ecx, 352		; 00000160H
  0000a	56		 push	 esi
  0000b	8b 31		 mov	 esi, DWORD PTR [ecx]
  0000d	8b d0		 mov	 edx, eax
  0000f	89 32		 mov	 DWORD PTR [edx], esi
  00011	8b 71 04	 mov	 esi, DWORD PTR [ecx+4]
  00014	89 72 04	 mov	 DWORD PTR [edx+4], esi
  00017	8b 49 08	 mov	 ecx, DWORD PTR [ecx+8]
  0001a	89 4a 08	 mov	 DWORD PTR [edx+8], ecx
  0001d	5e		 pop	 esi
  0001e	c2 04 00	 ret	 4
?GetPos@CObj@@QAE?AUD3DXVECTOR3@@XZ ENDP		; CObj::GetPos
_TEXT	ENDS
PUBLIC	?IsValidObj@@YAHPAVCObj@@@Z			; IsValidObj
; Function compile flags: /Ogty
;	COMDAT ?IsValidObj@@YAHPAVCObj@@@Z
_TEXT	SEGMENT
_pObj$ = 8						; size = 4
?IsValidObj@@YAHPAVCObj@@@Z PROC NEAR			; IsValidObj, COMDAT

; 327  : 	return pObj && ( pObj->IsDelete() == FALSE ); 

  00000	8b 44 24 04	 mov	 eax, DWORD PTR _pObj$[esp-4]
  00004	85 c0		 test	 eax, eax
  00006	74 0c		 je	 SHORT $L232046
  00008	f6 40 04 01	 test	 BYTE PTR [eax+4], 1
  0000c	75 06		 jne	 SHORT $L232046
  0000e	b8 01 00 00 00	 mov	 eax, 1

; 328  : }

  00013	c3		 ret	 0
$L232046:

; 327  : 	return pObj && ( pObj->IsDelete() == FALSE ); 

  00014	33 c0		 xor	 eax, eax

; 328  : }

  00016	c3		 ret	 0
?IsValidObj@@YAHPAVCObj@@@Z ENDP			; IsValidObj
_TEXT	ENDS
PUBLIC	?GetId@CCtrl@@QAEKXZ				; CCtrl::GetId
; Function compile flags: /Ogty
; File c:\documents and settings\test\mes documents\source\virtuos_v17\build\program\_common\ctrl.h
;	COMDAT ?GetId@CCtrl@@QAEKXZ
_TEXT	SEGMENT
?GetId@CCtrl@@QAEKXZ PROC NEAR				; CCtrl::GetId, COMDAT
; _this$ = ecx

; 58   : 	OBJID			GetId()					{ return m_objid;   }

  00000	8b 81 bc 01 00
	00		 mov	 eax, DWORD PTR [ecx+444]
  00006	c3		 ret	 0
?GetId@CCtrl@@QAEKXZ ENDP				; CCtrl::GetId
_TEXT	ENDS
PUBLIC	?size@?$basic_string@DU?$char_traits@D@std@@V?$allocator@D@2@@std@@QBEIXZ ; std::basic_string<char,std::char_traits<char>,std::allocator<char> >::size
; Function compile flags: /Ogty
; File c:\program files\microsoft visual studio .net 2003\vc7\include\xstring
;	COMDAT ?size@?$basic_string@DU?$char_traits@D@std@@V?$allocator@D@2@@std@@QBEIXZ
_TEXT	SEGMENT
?size@?$basic_string@DU?$char_traits@D@std@@V?$allocator@D@2@@std@@QBEIXZ PROC NEAR ; std::basic_string<char,std::char_traits<char>,std::allocator<char> >::size, COMDAT
; _this$ = ecx

; 1109 : 		return (_Mysize);

  00000	8b 41 14	 mov	 eax, DWORD PTR [ecx+20]

; 1110 : 		}

  00003	c3		 ret	 0
?size@?$basic_string@DU?$char_traits@D@std@@V?$allocator@D@2@@std@@QBEIXZ ENDP ; std::basic_string<char,std::char_traits<char>,std::allocator<char> >::size
_TEXT	ENDS
PUBLIC	?GetString@?$CSimpleStringT@D$0A@@ATL@@QBEPBDXZ	; ATL::CSimpleStringT<char,0>::GetString
; Function compile flags: /Ogty
; File c:\program files\microsoft visual studio .net 2003\vc7\atlmfc\include\atlsimpstr.h
;	COMDAT ?GetString@?$CSimpleStringT@D$0A@@ATL@@QBEPBDXZ
_TEXT	SEGMENT
?GetString@?$CSimpleStringT@D$0A@@ATL@@QBEPBDXZ PROC NEAR ; ATL::CSimpleStringT<char,0>::GetString, COMDAT
; _this$ = ecx

; 510  : 		return( m_pszData );

  00000	8b 01		 mov	 eax, DWORD PTR [ecx]

; 511  : 	}

  00002	c3		 ret	 0
?GetString@?$CSimpleStringT@D$0A@@ATL@@QBEPBDXZ ENDP	; ATL::CSimpleStringT<char,0>::GetString
_TEXT	ENDS
PUBLIC	?_Myptr@?$basic_string@DU?$char_traits@D@std@@V?$allocator@D@2@@std@@QBEPBDXZ ; std::basic_string<char,std::char_traits<char>,std::allocator<char> >::_Myptr
; Function compile flags: /Ogty
; File c:\program files\microsoft visual studio .net 2003\vc7\include\xstring
;	COMDAT ?_Myptr@?$basic_string@DU?$char_traits@D@std@@V?$allocator@D@2@@std@@QBEPBDXZ
_TEXT	SEGMENT
?_Myptr@?$basic_string@DU?$char_traits@D@std@@V?$allocator@D@2@@std@@QBEPBDXZ PROC NEAR ; std::basic_string<char,std::char_traits<char>,std::allocator<char> >::_Myptr, COMDAT
; _this$ = ecx

; 1537 : 		return (_BUF_SIZE <= _Myres ? _Bx._Ptr : _Bx._Buf);

  00000	83 79 18 10	 cmp	 DWORD PTR [ecx+24], 16	; 00000010H
  00004	72 04		 jb	 SHORT $L232063
  00006	8b 41 04	 mov	 eax, DWORD PTR [ecx+4]

; 1538 : 		}

  00009	c3		 ret	 0
$L232063:

; 1537 : 		return (_BUF_SIZE <= _Myres ? _Bx._Ptr : _Bx._Buf);

  0000a	8d 41 04	 lea	 eax, DWORD PTR [ecx+4]

; 1538 : 		}

  0000d	c3		 ret	 0
?_Myptr@?$basic_string@DU?$char_traits@D@std@@V?$allocator@D@2@@std@@QBEPBDXZ ENDP ; std::basic_string<char,std::char_traits<char>,std::allocator<char> >::_Myptr
_TEXT	ENDS
PUBLIC	??0?$allocator@D@std@@QAE@XZ			; std::allocator<char>::allocator<char>
; Function compile flags: /Ogty
; File c:\program files\microsoft visual studio .net 2003\vc7\include\xmemory
;	COMDAT ??0?$allocator@D@std@@QAE@XZ
_TEXT	SEGMENT
??0?$allocator@D@std@@QAE@XZ PROC NEAR			; std::allocator<char>::allocator<char>, COMDAT
; _this$ = ecx

; 111  : 	allocator()

  00000	8b c1		 mov	 eax, ecx

; 112  : 		{	// construct default allocator (do nothing)
; 113  : 		}

  00002	c3		 ret	 0
??0?$allocator@D@std@@QAE@XZ ENDP			; std::allocator<char>::allocator<char>
_TEXT	ENDS
PUBLIC	??0?$allocator@D@std@@QAE@ABV01@@Z		; std::allocator<char>::allocator<char>
; Function compile flags: /Ogty
;	COMDAT ??0?$allocator@D@std@@QAE@ABV01@@Z
_TEXT	SEGMENT
___formal$ = 8						; size = 4
??0?$allocator@D@std@@QAE@ABV01@@Z PROC NEAR		; std::allocator<char>::allocator<char>, COMDAT
; _this$ = ecx

; 115  : 	allocator(const allocator<_Ty>&)

  00000	8b c1		 mov	 eax, ecx

; 116  : 		{	// construct by copying (do nothing)
; 117  : 		}

  00002	c2 04 00	 ret	 4
??0?$allocator@D@std@@QAE@ABV01@@Z ENDP			; std::allocator<char>::allocator<char>
_TEXT	ENDS
PUBLIC	?_Myptr@?$basic_string@DU?$char_traits@D@std@@V?$allocator@D@2@@std@@QAEPADXZ ; std::basic_string<char,std::char_traits<char>,std::allocator<char> >::_Myptr
; Function compile flags: /Ogty
; File c:\program files\microsoft visual studio .net 2003\vc7\include\xstring
;	COMDAT ?_Myptr@?$basic_string@DU?$char_traits@D@std@@V?$allocator@D@2@@std@@QAEPADXZ
_TEXT	SEGMENT
?_Myptr@?$basic_string@DU?$char_traits@D@std@@V?$allocator@D@2@@std@@QAEPADXZ PROC NEAR ; std::basic_string<char,std::char_traits<char>,std::allocator<char> >::_Myptr, COMDAT
; _this$ = ecx

; 1532 : 		return (_BUF_SIZE <= _Myres ? _Bx._Ptr : _Bx._Buf);

  00000	83 79 18 10	 cmp	 DWORD PTR [ecx+24], 16	; 00000010H
  00004	72 04		 jb	 SHORT $L232074
  00006	8b 41 04	 mov	 eax, DWORD PTR [ecx+4]

; 1533 : 		}

  00009	c3		 ret	 0
$L232074:

; 1532 : 		return (_BUF_SIZE <= _Myres ? _Bx._Ptr : _Bx._Buf);

  0000a	8d 41 04	 lea	 eax, DWORD PTR [ecx+4]

; 1533 : 		}

  0000d	c3		 ret	 0
?_Myptr@?$basic_string@DU?$char_traits@D@std@@V?$allocator@D@2@@std@@QAEPADXZ ENDP ; std::basic_string<char,std::char_traits<char>,std::allocator<char> >::_Myptr
_TEXT	ENDS
PUBLIC	?deallocate@?$allocator@D@std@@QAEXPADI@Z	; std::allocator<char>::deallocate
; Function compile flags: /Ogty
; File c:\program files\microsoft visual studio .net 2003\vc7\include\xmemory
;	COMDAT ?deallocate@?$allocator@D@std@@QAEXPADI@Z
_TEXT	SEGMENT
__Ptr$ = 8						; size = 4
___formal$ = 12						; size = 4
?deallocate@?$allocator@D@std@@QAEXPADI@Z PROC NEAR	; std::allocator<char>::deallocate, COMDAT
; _this$ = ecx

; 132  : 		operator delete(_Ptr);

  00000	8b 44 24 04	 mov	 eax, DWORD PTR __Ptr$[esp-4]
  00004	50		 push	 eax
  00005	e8 00 00 00 00	 call	 ??3@YAXPAX@Z		; operator delete
  0000a	59		 pop	 ecx

; 133  : 		}

  0000b	c2 08 00	 ret	 8
?deallocate@?$allocator@D@std@@QAEXPADI@Z ENDP		; std::allocator<char>::deallocate
_TEXT	ENDS
PUBLIC	?_Inside@?$basic_string@DU?$char_traits@D@std@@V?$allocator@D@2@@std@@IAE_NPBD@Z ; std::basic_string<char,std::char_traits<char>,std::allocator<char> >::_Inside
; Function compile flags: /Ogty
; File c:\program files\microsoft visual studio .net 2003\vc7\include\xstring
;	COMDAT ?_Inside@?$basic_string@DU?$char_traits@D@std@@V?$allocator@D@2@@std@@IAE_NPBD@Z
_TEXT	SEGMENT
__Ptr$ = 8						; size = 4
?_Inside@?$basic_string@DU?$char_traits@D@std@@V?$allocator@D@2@@std@@IAE_NPBD@Z PROC NEAR ; std::basic_string<char,std::char_traits<char>,std::allocator<char> >::_Inside, COMDAT
; _this$ = ecx

; 1494 : 		{	// test if _Ptr points inside string

  00000	56		 push	 esi

; 1495 : 		if (_Ptr < _Myptr() || _Myptr() + _Mysize <= _Ptr)

  00001	8b 71 18	 mov	 esi, DWORD PTR [ecx+24]
  00004	83 fe 10	 cmp	 esi, 16			; 00000010H
  00007	57		 push	 edi
  00008	8d 41 04	 lea	 eax, DWORD PTR [ecx+4]
  0000b	72 04		 jb	 SHORT $L232087
  0000d	8b 10		 mov	 edx, DWORD PTR [eax]
  0000f	eb 02		 jmp	 SHORT $L232088
$L232087:
  00011	8b d0		 mov	 edx, eax
$L232088:
  00013	8b 7c 24 0c	 mov	 edi, DWORD PTR __Ptr$[esp+4]
  00017	3b fa		 cmp	 edi, edx
  00019	72 17		 jb	 SHORT $L222788
  0001b	83 fe 10	 cmp	 esi, 16			; 00000010H
  0001e	72 02		 jb	 SHORT $L232095
  00020	8b 00		 mov	 eax, DWORD PTR [eax]
$L232095:
  00022	8b 49 14	 mov	 ecx, DWORD PTR [ecx+20]
  00025	03 c8		 add	 ecx, eax
  00027	3b cf		 cmp	 ecx, edi
  00029	76 07		 jbe	 SHORT $L222788
  0002b	5f		 pop	 edi

; 1497 : 		else
; 1498 : 			return (true);

  0002c	b0 01		 mov	 al, 1
  0002e	5e		 pop	 esi

; 1499 : 		}

  0002f	c2 04 00	 ret	 4
$L222788:
  00032	5f		 pop	 edi

; 1496 : 			return (false);	// don't ask

  00033	32 c0		 xor	 al, al
  00035	5e		 pop	 esi

; 1499 : 		}

  00036	c2 04 00	 ret	 4
?_Inside@?$basic_string@DU?$char_traits@D@std@@V?$allocator@D@2@@std@@IAE_NPBD@Z ENDP ; std::basic_string<char,std::char_traits<char>,std::allocator<char> >::_Inside
_TEXT	ENDS
PUBLIC	?max_size@?$allocator@D@std@@QBEIXZ		; std::allocator<char>::max_size
; Function compile flags: /Ogty
; File c:\program files\microsoft visual studio .net 2003\vc7\include\xmemory
;	COMDAT ?max_size@?$allocator@D@std@@QBEIXZ
_TEXT	SEGMENT
?max_size@?$allocator@D@std@@QBEIXZ PROC NEAR		; std::allocator<char>::max_size, COMDAT
; _this$ = ecx

; 157  : 		_SIZT _Count = (_SIZT)(-1) / sizeof (_Ty);
; 158  : 		return (0 < _Count ? _Count : 1);

  00000	83 c8 ff	 or	 eax, -1

; 159  : 		}

  00003	c3		 ret	 0
?max_size@?$allocator@D@std@@QBEIXZ ENDP		; std::allocator<char>::max_size
_TEXT	ENDS
PUBLIC	??$_Allocate@D@std@@YAPADIPAD@Z			; std::_Allocate<char>
; Function compile flags: /Ogty
;	COMDAT ??$_Allocate@D@std@@YAPADIPAD@Z
_TEXT	SEGMENT
__Count$ = 8						; size = 4
___formal$ = 12						; size = 4
??$_Allocate@D@std@@YAPADIPAD@Z PROC NEAR		; std::_Allocate<char>, COMDAT

; 34   : 	return ((_Ty _FARQ *)operator new(_Count * sizeof (_Ty)));

  00000	8b 44 24 04	 mov	 eax, DWORD PTR __Count$[esp-4]
  00004	50		 push	 eax
  00005	e8 00 00 00 00	 call	 ??2@YAPAXI@Z		; operator new
  0000a	83 c4 04	 add	 esp, 4

; 35   : 	}

  0000d	c3		 ret	 0
??$_Allocate@D@std@@YAPADIPAD@Z ENDP			; std::_Allocate<char>
_TEXT	ENDS
PUBLIC	?GetMonster@CRangda@@AAEPAVCMover@@XZ		; CRangda::GetMonster
EXTRN	?prj@@3VCProject@@A:BYTE			; prj
EXTRN	?GetMover@CProject@@QAEPAVCMover@@K@Z:NEAR	; CProject::GetMover
; Function compile flags: /Ogty
; File c:\documents and settings\test\mes documents\source\virtuos_v17\build\program\worldserver\rangda.cpp
;	COMDAT ?GetMonster@CRangda@@AAEPAVCMover@@XZ
_TEXT	SEGMENT
?GetMonster@CRangda@@AAEPAVCMover@@XZ PROC NEAR		; CRangda::GetMonster, COMDAT
; _this$ = ecx

; 82   : {	//    

  00000	56		 push	 esi
  00001	8b f1		 mov	 esi, ecx

; 83   : 	if( m_objid != NULL_ID )

  00003	8b 46 34	 mov	 eax, DWORD PTR [esi+52]
  00006	83 f8 ff	 cmp	 eax, -1
  00009	74 1c		 je	 SHORT $L229141

; 84   : 	{
; 85   : 		CMover* pMonster	= prj.GetMover( m_objid );

  0000b	50		 push	 eax
  0000c	b9 00 00 00 00	 mov	 ecx, OFFSET FLAT:?prj@@3VCProject@@A
  00011	e8 00 00 00 00	 call	 ?GetMover@CProject@@QAEPAVCMover@@K@Z ; CProject::GetMover

; 86   : 		if( IsValidObj( pMonster ) )

  00016	85 c0		 test	 eax, eax
  00018	74 06		 je	 SHORT $L229143
  0001a	f6 40 04 01	 test	 BYTE PTR [eax+4], 1

; 87   : 			return pMonster;

  0001e	74 09		 je	 SHORT $L229140
$L229143:

; 88   : 		m_objid		= NULL_ID;

  00020	c7 46 34 ff ff
	ff ff		 mov	 DWORD PTR [esi+52], -1
$L229141:

; 89   : 	}
; 90   : 	return NULL;

  00027	33 c0		 xor	 eax, eax
$L229140:
  00029	5e		 pop	 esi

; 91   : }

  0002a	c3		 ret	 0
?GetMonster@CRangda@@AAEPAVCMover@@XZ ENDP		; CRangda::GetMonster
_TEXT	ENDS
PUBLIC	??0_RANGDA_POS@@QAE@XZ				; _RANGDA_POS::_RANGDA_POS
; Function compile flags: /Ogty
;	COMDAT ??0_RANGDA_POS@@QAE@XZ
_TEXT	SEGMENT
??0_RANGDA_POS@@QAE@XZ PROC NEAR			; _RANGDA_POS::_RANGDA_POS, COMDAT
; _this$ = ecx
  00000	8b c1		 mov	 eax, ecx
  00002	c3		 ret	 0
??0_RANGDA_POS@@QAE@XZ ENDP				; _RANGDA_POS::_RANGDA_POS
_TEXT	ENDS
PUBLIC	??Diterator@?$vector@PAVCRangda@@V?$allocator@PAVCRangda@@@std@@@std@@QBEAAPAVCRangda@@XZ ; std::vector<CRangda *,std::allocator<CRangda *> >::iterator::operator*
; Function compile flags: /Ogty
; File c:\program files\microsoft visual studio .net 2003\vc7\include\vector
;	COMDAT ??Diterator@?$vector@PAVCRangda@@V?$allocator@PAVCRangda@@@std@@@std@@QBEAAPAVCRangda@@XZ
_TEXT	SEGMENT
??Diterator@?$vector@PAVCRangda@@V?$allocator@PAVCRangda@@@std@@@std@@QBEAAPAVCRangda@@XZ PROC NEAR ; std::vector<CRangda *,std::allocator<CRangda *> >::iterator::operator*, COMDAT
; _this$ = ecx

; 220  : 			return ((reference)**(const_iterator *)this);

  00000	8b 01		 mov	 eax, DWORD PTR [ecx]

; 221  : 			}

  00002	c3		 ret	 0
??Diterator@?$vector@PAVCRangda@@V?$allocator@PAVCRangda@@@std@@@std@@QBEAAPAVCRangda@@XZ ENDP ; std::vector<CRangda *,std::allocator<CRangda *> >::iterator::operator*
_TEXT	ENDS
PUBLIC	??9const_iterator@?$vector@PAVCRangda@@V?$allocator@PAVCRangda@@@std@@@std@@QBE_NABV012@@Z ; std::vector<CRangda *,std::allocator<CRangda *> >::const_iterator::operator!=
; Function compile flags: /Ogty
;	COMDAT ??9const_iterator@?$vector@PAVCRangda@@V?$allocator@PAVCRangda@@@std@@@std@@QBE_NABV012@@Z
_TEXT	SEGMENT
__Right$ = 8						; size = 4
??9const_iterator@?$vector@PAVCRangda@@V?$allocator@PAVCRangda@@@std@@@std@@QBE_NABV012@@Z PROC NEAR ; std::vector<CRangda *,std::allocator<CRangda *> >::const_iterator::operator!=, COMDAT
; _this$ = ecx

; 160  : 			return (!(*this == _Right));

  00000	8b 01		 mov	 eax, DWORD PTR [ecx]
  00002	8b 54 24 04	 mov	 edx, DWORD PTR __Right$[esp-4]
  00006	56		 push	 esi
  00007	8b 32		 mov	 esi, DWORD PTR [edx]
  00009	33 c9		 xor	 ecx, ecx
  0000b	3b c6		 cmp	 eax, esi
  0000d	0f 95 c1	 setne	 cl
  00010	8a c1		 mov	 al, cl
  00012	5e		 pop	 esi

; 161  : 			}

  00013	c2 04 00	 ret	 4
??9const_iterator@?$vector@PAVCRangda@@V?$allocator@PAVCRangda@@@std@@@std@@QBE_NABV012@@Z ENDP ; std::vector<CRangda *,std::allocator<CRangda *> >::const_iterator::operator!=
_TEXT	ENDS
PUBLIC	?Compare@?$CStringT@DV?$StrTraitMFC@DV?$ChTraitsCRT@D@ATL@@@@@ATL@@QBEHPBD@Z ; ATL::CStringT<char,StrTraitMFC<char,ATL::ChTraitsCRT<char> > >::Compare
; Function compile flags: /Ogty
; File c:\program files\microsoft visual studio .net 2003\vc7\atlmfc\include\cstringt.h
;	COMDAT ?Compare@?$CStringT@DV?$StrTraitMFC@DV?$ChTraitsCRT@D@ATL@@@@@ATL@@QBEHPBD@Z
_TEXT	SEGMENT
_psz$ = 8						; size = 4
?Compare@?$CStringT@DV?$StrTraitMFC@DV?$ChTraitsCRT@D@ATL@@@@@ATL@@QBEHPBD@Z PROC NEAR ; ATL::CStringT<char,StrTraitMFC<char,ATL::ChTraitsCRT<char> > >::Compare, COMDAT
; _this$ = ecx

; 1088 : 		ATLASSERT( AtlIsValidString( psz ) );
; 1089 : 		return( StringTraits::StringCompare( GetString(), psz ) );

  00000	8b 44 24 04	 mov	 eax, DWORD PTR _psz$[esp-4]
  00004	8b 09		 mov	 ecx, DWORD PTR [ecx]
  00006	50		 push	 eax
  00007	51		 push	 ecx
  00008	e8 00 00 00 00	 call	 __mbscmp
  0000d	83 c4 08	 add	 esp, 8

; 1090 : 	}

  00010	c2 04 00	 ret	 4
?Compare@?$CStringT@DV?$StrTraitMFC@DV?$ChTraitsCRT@D@ATL@@@@@ATL@@QBEHPBD@Z ENDP ; ATL::CStringT<char,StrTraitMFC<char,ATL::ChTraitsCRT<char> > >::Compare
_TEXT	ENDS
PUBLIC	??0?$_Vector_val@U_RANGDA_POS@@V?$allocator@U_RANGDA_POS@@@std@@@std@@IAE@V?$allocator@U_RANGDA_POS@@@1@@Z ; std::_Vector_val<_RANGDA_POS,std::allocator<_RANGDA_POS> >::_Vector_val<_RANGDA_POS,std::allocator<_RANGDA_POS> >
; Function compile flags: /Ogty
; File c:\program files\microsoft visual studio .net 2003\vc7\include\vector
;	COMDAT ??0?$_Vector_val@U_RANGDA_POS@@V?$allocator@U_RANGDA_POS@@@std@@@std@@IAE@V?$allocator@U_RANGDA_POS@@@1@@Z
_TEXT	SEGMENT
__Al$ = 8						; size = 1
??0?$_Vector_val@U_RANGDA_POS@@V?$allocator@U_RANGDA_POS@@@std@@@std@@IAE@V?$allocator@U_RANGDA_POS@@@1@@Z PROC NEAR ; std::_Vector_val<_RANGDA_POS,std::allocator<_RANGDA_POS> >::_Vector_val<_RANGDA_POS,std::allocator<_RANGDA_POS> >, COMDAT
; _this$ = ecx

; 21   : 		{	// construct allocator from _Al

  00000	8b c1		 mov	 eax, ecx

; 22   : 		}

  00002	c2 04 00	 ret	 4
??0?$_Vector_val@U_RANGDA_POS@@V?$allocator@U_RANGDA_POS@@@std@@@std@@IAE@V?$allocator@U_RANGDA_POS@@@1@@Z ENDP ; std::_Vector_val<_RANGDA_POS,std::allocator<_RANGDA_POS> >::_Vector_val<_RANGDA_POS,std::allocator<_RANGDA_POS> >
_TEXT	ENDS
PUBLIC	??0?$_Vector_val@PAVCRangda@@V?$allocator@PAVCRangda@@@std@@@std@@IAE@V?$allocator@PAVCRangda@@@1@@Z ; std::_Vector_val<CRangda *,std::allocator<CRangda *> >::_Vector_val<CRangda *,std::allocator<CRangda *> >
; Function compile flags: /Ogty
;	COMDAT ??0?$_Vector_val@PAVCRangda@@V?$allocator@PAVCRangda@@@std@@@std@@IAE@V?$allocator@PAVCRangda@@@1@@Z
_TEXT	SEGMENT
__Al$ = 8						; size = 1
??0?$_Vector_val@PAVCRangda@@V?$allocator@PAVCRangda@@@std@@@std@@IAE@V?$allocator@PAVCRangda@@@1@@Z PROC NEAR ; std::_Vector_val<CRangda *,std::allocator<CRangda *> >::_Vector_val<CRangda *,std::allocator<CRangda *> >, COMDAT
; _this$ = ecx

; 21   : 		{	// construct allocator from _Al

  00000	8b c1		 mov	 eax, ecx

; 22   : 		}

  00002	c2 04 00	 ret	 4
??0?$_Vector_val@PAVCRangda@@V?$allocator@PAVCRangda@@@std@@@std@@IAE@V?$allocator@PAVCRangda@@@1@@Z ENDP ; std::_Vector_val<CRangda *,std::allocator<CRangda *> >::_Vector_val<CRangda *,std::allocator<CRangda *> >
_TEXT	ENDS
PUBLIC	??0iterator@?$vector@PAVCRangda@@V?$allocator@PAVCRangda@@@std@@@std@@QAE@PAPAVCRangda@@@Z ; std::vector<CRangda *,std::allocator<CRangda *> >::iterator::iterator
; Function compile flags: /Ogty
;	COMDAT ??0iterator@?$vector@PAVCRangda@@V?$allocator@PAVCRangda@@@std@@@std@@QAE@PAPAVCRangda@@@Z
_TEXT	SEGMENT
__Ptr$ = 8						; size = 4
??0iterator@?$vector@PAVCRangda@@V?$allocator@PAVCRangda@@@std@@@std@@QAE@PAPAVCRangda@@@Z PROC NEAR ; std::vector<CRangda *,std::allocator<CRangda *> >::iterator::iterator, COMDAT
; _this$ = ecx

; 215  : 			{	// construct with pointer _Ptr

  00000	8b c1		 mov	 eax, ecx
  00002	8b 4c 24 04	 mov	 ecx, DWORD PTR __Ptr$[esp-4]
  00006	89 08		 mov	 DWORD PTR [eax], ecx

; 216  : 			}

  00008	c2 04 00	 ret	 4
??0iterator@?$vector@PAVCRangda@@V?$allocator@PAVCRangda@@@std@@@std@@QAE@PAPAVCRangda@@@Z ENDP ; std::vector<CRangda *,std::allocator<CRangda *> >::iterator::iterator
_TEXT	ENDS
PUBLIC	??Diterator@?$vector@U_RANGDA_POS@@V?$allocator@U_RANGDA_POS@@@std@@@std@@QBEAAU_RANGDA_POS@@XZ ; std::vector<_RANGDA_POS,std::allocator<_RANGDA_POS> >::iterator::operator*
; Function compile flags: /Ogty
;	COMDAT ??Diterator@?$vector@U_RANGDA_POS@@V?$allocator@U_RANGDA_POS@@@std@@@std@@QBEAAU_RANGDA_POS@@XZ
_TEXT	SEGMENT
??Diterator@?$vector@U_RANGDA_POS@@V?$allocator@U_RANGDA_POS@@@std@@@std@@QBEAAU_RANGDA_POS@@XZ PROC NEAR ; std::vector<_RANGDA_POS,std::allocator<_RANGDA_POS> >::iterator::operator*, COMDAT
; _this$ = ecx

; 220  : 			return ((reference)**(const_iterator *)this);

  00000	8b 01		 mov	 eax, DWORD PTR [ecx]

; 221  : 			}

  00002	c3		 ret	 0
??Diterator@?$vector@U_RANGDA_POS@@V?$allocator@U_RANGDA_POS@@@std@@@std@@QBEAAU_RANGDA_POS@@XZ ENDP ; std::vector<_RANGDA_POS,std::allocator<_RANGDA_POS> >::iterator::operator*
_TEXT	ENDS
PUBLIC	??Hiterator@?$vector@U_RANGDA_POS@@V?$allocator@U_RANGDA_POS@@@std@@@std@@QBE?AV012@H@Z ; std::vector<_RANGDA_POS,std::allocator<_RANGDA_POS> >::iterator::operator+
; Function compile flags: /Ogty
;	COMDAT ??Hiterator@?$vector@U_RANGDA_POS@@V?$allocator@U_RANGDA_POS@@@std@@@std@@QBE?AV012@H@Z
_TEXT	SEGMENT
___$ReturnUdt$ = 8					; size = 4
__Off$ = 12						; size = 4
??Hiterator@?$vector@U_RANGDA_POS@@V?$allocator@U_RANGDA_POS@@@std@@@std@@QBE?AV012@H@Z PROC NEAR ; std::vector<_RANGDA_POS,std::allocator<_RANGDA_POS> >::iterator::operator+, COMDAT
; _this$ = ecx

; 262  : 			iterator _Tmp = *this;
; 263  : 			return (_Tmp += _Off);

  00000	8b 54 24 08	 mov	 edx, DWORD PTR __Off$[esp-4]
  00004	8b 01		 mov	 eax, DWORD PTR [ecx]
  00006	c1 e2 04	 shl	 edx, 4
  00009	03 d0		 add	 edx, eax
  0000b	8b 44 24 04	 mov	 eax, DWORD PTR ___$ReturnUdt$[esp-4]
  0000f	89 10		 mov	 DWORD PTR [eax], edx

; 264  : 			}

  00011	c2 08 00	 ret	 8
??Hiterator@?$vector@U_RANGDA_POS@@V?$allocator@U_RANGDA_POS@@@std@@@std@@QBE?AV012@H@Z ENDP ; std::vector<_RANGDA_POS,std::allocator<_RANGDA_POS> >::iterator::operator+
_TEXT	ENDS
PUBLIC	?max_size@?$vector@U_RANGDA_POS@@V?$allocator@U_RANGDA_POS@@@std@@@std@@QBEIXZ ; std::vector<_RANGDA_POS,std::allocator<_RANGDA_POS> >::max_size
; Function compile flags: /Ogty
;	COMDAT ?max_size@?$vector@U_RANGDA_POS@@V?$allocator@U_RANGDA_POS@@@std@@@std@@QBEIXZ
_TEXT	SEGMENT
?max_size@?$vector@U_RANGDA_POS@@V?$allocator@U_RANGDA_POS@@@std@@@std@@QBEIXZ PROC NEAR ; std::vector<_RANGDA_POS,std::allocator<_RANGDA_POS> >::max_size, COMDAT
; _this$ = ecx

; 521  : 		return (this->_Alval.max_size());

  00000	b8 ff ff ff 0f	 mov	 eax, 268435455		; 0fffffffH

; 522  : 		}

  00005	c3		 ret	 0
?max_size@?$vector@U_RANGDA_POS@@V?$allocator@U_RANGDA_POS@@@std@@@std@@QBEIXZ ENDP ; std::vector<_RANGDA_POS,std::allocator<_RANGDA_POS> >::max_size
_TEXT	ENDS
PUBLIC	?allocate@?$allocator@U_RANGDA_POS@@@std@@QAEPAU_RANGDA_POS@@I@Z ; std::allocator<_RANGDA_POS>::allocate
; Function compile flags: /Ogty
; File c:\program files\microsoft visual studio .net 2003\vc7\include\xmemory
;	COMDAT ?allocate@?$allocator@U_RANGDA_POS@@@std@@QAEPAU_RANGDA_POS@@I@Z
_TEXT	SEGMENT
__Count$ = 8						; size = 4
?allocate@?$allocator@U_RANGDA_POS@@@std@@QAEPAU_RANGDA_POS@@I@Z PROC NEAR ; std::allocator<_RANGDA_POS>::allocate, COMDAT
; _this$ = ecx

; 137  : 		return (_Allocate(_Count, (pointer)0));

  00000	8b 44 24 04	 mov	 eax, DWORD PTR __Count$[esp-4]
  00004	c1 e0 04	 shl	 eax, 4
  00007	50		 push	 eax
  00008	e8 00 00 00 00	 call	 ??2@YAPAXI@Z		; operator new
  0000d	83 c4 04	 add	 esp, 4

; 138  : 		}

  00010	c2 04 00	 ret	 4
?allocate@?$allocator@U_RANGDA_POS@@@std@@QAEPAU_RANGDA_POS@@I@Z ENDP ; std::allocator<_RANGDA_POS>::allocate
_TEXT	ENDS
PUBLIC	?max_size@?$vector@PAVCRangda@@V?$allocator@PAVCRangda@@@std@@@std@@QBEIXZ ; std::vector<CRangda *,std::allocator<CRangda *> >::max_size
; Function compile flags: /Ogty
; File c:\program files\microsoft visual studio .net 2003\vc7\include\vector
;	COMDAT ?max_size@?$vector@PAVCRangda@@V?$allocator@PAVCRangda@@@std@@@std@@QBEIXZ
_TEXT	SEGMENT
?max_size@?$vector@PAVCRangda@@V?$allocator@PAVCRangda@@@std@@@std@@QBEIXZ PROC NEAR ; std::vector<CRangda *,std::allocator<CRangda *> >::max_size, COMDAT
; _this$ = ecx

; 521  : 		return (this->_Alval.max_size());

  00000	b8 ff ff ff 3f	 mov	 eax, 1073741823		; 3fffffffH

; 522  : 		}

  00005	c3		 ret	 0
?max_size@?$vector@PAVCRangda@@V?$allocator@PAVCRangda@@@std@@@std@@QBEIXZ ENDP ; std::vector<CRangda *,std::allocator<CRangda *> >::max_size
_TEXT	ENDS
PUBLIC	?allocate@?$allocator@PAVCRangda@@@std@@QAEPAPAVCRangda@@I@Z ; std::allocator<CRangda *>::allocate
; Function compile flags: /Ogty
; File c:\program files\microsoft visual studio .net 2003\vc7\include\xmemory
;	COMDAT ?allocate@?$allocator@PAVCRangda@@@std@@QAEPAPAVCRangda@@I@Z
_TEXT	SEGMENT
__Count$ = 8						; size = 4
?allocate@?$allocator@PAVCRangda@@@std@@QAEPAPAVCRangda@@I@Z PROC NEAR ; std::allocator<CRangda *>::allocate, COMDAT
; _this$ = ecx

; 137  : 		return (_Allocate(_Count, (pointer)0));

  00000	8b 44 24 04	 mov	 eax, DWORD PTR __Count$[esp-4]
  00004	8d 0c 85 00 00
	00 00		 lea	 ecx, DWORD PTR [eax*4]
  0000b	51		 push	 ecx
  0000c	e8 00 00 00 00	 call	 ??2@YAPAXI@Z		; operator new
  00011	83 c4 04	 add	 esp, 4

; 138  : 		}

  00014	c2 04 00	 ret	 4
?allocate@?$allocator@PAVCRangda@@@std@@QAEPAPAVCRangda@@I@Z ENDP ; std::allocator<CRangda *>::allocate
_TEXT	ENDS
PUBLIC	??Hiterator@?$vector@PAVCRangda@@V?$allocator@PAVCRangda@@@std@@@std@@QBE?AV012@H@Z ; std::vector<CRangda *,std::allocator<CRangda *> >::iterator::operator+
; Function compile flags: /Ogty
; File c:\program files\microsoft visual studio .net 2003\vc7\include\vector
;	COMDAT ??Hiterator@?$vector@PAVCRangda@@V?$allocator@PAVCRangda@@@std@@@std@@QBE?AV012@H@Z
_TEXT	SEGMENT
___$ReturnUdt$ = 8					; size = 4
__Off$ = 12						; size = 4
??Hiterator@?$vector@PAVCRangda@@V?$allocator@PAVCRangda@@@std@@@std@@QBE?AV012@H@Z PROC NEAR ; std::vector<CRangda *,std::allocator<CRangda *> >::iterator::operator+, COMDAT
; _this$ = ecx

; 262  : 			iterator _Tmp = *this;
; 263  : 			return (_Tmp += _Off);

  00000	8b 01		 mov	 eax, DWORD PTR [ecx]
  00002	8b 4c 24 08	 mov	 ecx, DWORD PTR __Off$[esp-4]
  00006	8d 14 88	 lea	 edx, DWORD PTR [eax+ecx*4]
  00009	8b 44 24 04	 mov	 eax, DWORD PTR ___$ReturnUdt$[esp-4]
  0000d	89 10		 mov	 DWORD PTR [eax], edx

; 264  : 			}

  0000f	c2 08 00	 ret	 8
??Hiterator@?$vector@PAVCRangda@@V?$allocator@PAVCRangda@@@std@@@std@@QBE?AV012@H@Z ENDP ; std::vector<CRangda *,std::allocator<CRangda *> >::iterator::operator+
_TEXT	ENDS
PUBLIC	??Giterator@?$vector@PAVCRangda@@V?$allocator@PAVCRangda@@@std@@@std@@QBEHABVconst_iterator@12@@Z ; std::vector<CRangda *,std::allocator<CRangda *> >::iterator::operator-
; Function compile flags: /Ogty
;	COMDAT ??Giterator@?$vector@PAVCRangda@@V?$allocator@PAVCRangda@@@std@@@std@@QBEHABVconst_iterator@12@@Z
_TEXT	SEGMENT
__Right$ = 8						; size = 4
??Giterator@?$vector@PAVCRangda@@V?$allocator@PAVCRangda@@@std@@@std@@QBEHABVconst_iterator@12@@Z PROC NEAR ; std::vector<CRangda *,std::allocator<CRangda *> >::iterator::operator-, COMDAT
; _this$ = ecx

; 279  : 			return ((const_iterator)*this - _Right);

  00000	8b 01		 mov	 eax, DWORD PTR [ecx]
  00002	8b 4c 24 04	 mov	 ecx, DWORD PTR __Right$[esp-4]
  00006	2b 01		 sub	 eax, DWORD PTR [ecx]
  00008	c1 f8 02	 sar	 eax, 2

; 280  : 			}

  0000b	c2 04 00	 ret	 4
??Giterator@?$vector@PAVCRangda@@V?$allocator@PAVCRangda@@@std@@@std@@QBEHABVconst_iterator@12@@Z ENDP ; std::vector<CRangda *,std::allocator<CRangda *> >::iterator::operator-
_TEXT	ENDS
PUBLIC	??0iterator@?$vector@U_RANGDA_POS@@V?$allocator@U_RANGDA_POS@@@std@@@std@@QAE@PAU_RANGDA_POS@@@Z ; std::vector<_RANGDA_POS,std::allocator<_RANGDA_POS> >::iterator::iterator
; Function compile flags: /Ogty
;	COMDAT ??0iterator@?$vector@U_RANGDA_POS@@V?$allocator@U_RANGDA_POS@@@std@@@std@@QAE@PAU_RANGDA_POS@@@Z
_TEXT	SEGMENT
__Ptr$ = 8						; size = 4
??0iterator@?$vector@U_RANGDA_POS@@V?$allocator@U_RANGDA_POS@@@std@@@std@@QAE@PAU_RANGDA_POS@@@Z PROC NEAR ; std::vector<_RANGDA_POS,std::allocator<_RANGDA_POS> >::iterator::iterator, COMDAT
; _this$ = ecx

; 215  : 			{	// construct with pointer _Ptr

  00000	8b c1		 mov	 eax, ecx
  00002	8b 4c 24 04	 mov	 ecx, DWORD PTR __Ptr$[esp-4]
  00006	89 08		 mov	 DWORD PTR [eax], ecx

; 216  : 			}

  00008	c2 04 00	 ret	 4
??0iterator@?$vector@U_RANGDA_POS@@V?$allocator@U_RANGDA_POS@@@std@@@std@@QAE@PAU_RANGDA_POS@@@Z ENDP ; std::vector<_RANGDA_POS,std::allocator<_RANGDA_POS> >::iterator::iterator
_TEXT	ENDS
PUBLIC	??Giterator@?$vector@U_RANGDA_POS@@V?$allocator@U_RANGDA_POS@@@std@@@std@@QBEHABVconst_iterator@12@@Z ; std::vector<_RANGDA_POS,std::allocator<_RANGDA_POS> >::iterator::operator-
; Function compile flags: /Ogty
;	COMDAT ??Giterator@?$vector@U_RANGDA_POS@@V?$allocator@U_RANGDA_POS@@@std@@@std@@QBEHABVconst_iterator@12@@Z
_TEXT	SEGMENT
__Right$ = 8						; size = 4
??Giterator@?$vector@U_RANGDA_POS@@V?$allocator@U_RANGDA_POS@@@std@@@std@@QBEHABVconst_iterator@12@@Z PROC NEAR ; std::vector<_RANGDA_POS,std::allocator<_RANGDA_POS> >::iterator::operator-, COMDAT
; _this$ = ecx

; 279  : 			return ((const_iterator)*this - _Right);

  00000	8b 01		 mov	 eax, DWORD PTR [ecx]
  00002	8b 4c 24 04	 mov	 ecx, DWORD PTR __Right$[esp-4]
  00006	2b 01		 sub	 eax, DWORD PTR [ecx]
  00008	c1 f8 04	 sar	 eax, 4

; 280  : 			}

  0000b	c2 04 00	 ret	 4
??Giterator@?$vector@U_RANGDA_POS@@V?$allocator@U_RANGDA_POS@@@std@@@std@@QBEHABVconst_iterator@12@@Z ENDP ; std::vector<_RANGDA_POS,std::allocator<_RANGDA_POS> >::iterator::operator-
_TEXT	ENDS
PUBLIC	??$copy_backward@PAU_RANGDA_POS@@PAU1@@std@@YAPAU_RANGDA_POS@@PAU1@00@Z ; std::copy_backward<_RANGDA_POS *,_RANGDA_POS *>
; Function compile flags: /Ogty
; File c:\program files\microsoft visual studio .net 2003\vc7\include\xutility
;	COMDAT ??$copy_backward@PAU_RANGDA_POS@@PAU1@@std@@YAPAU_RANGDA_POS@@PAU1@00@Z
_TEXT	SEGMENT
__Cat$232246 = -4					; size = 1
__First$ = 8						; size = 4
__Last$ = 12						; size = 4
__Dest$ = 16						; size = 4
??$copy_backward@PAU_RANGDA_POS@@PAU1@@std@@YAPAU_RANGDA_POS@@PAU1@00@Z PROC NEAR ; std::copy_backward<_RANGDA_POS *,_RANGDA_POS *>, COMDAT

; 1067 : 	{	// copy [_First, _Last) backwards to [..., _Dest)

  00000	51		 push	 ecx

; 1068 : 	return (_Copy_backward_opt(_First, _Last, _Dest,
; 1069 : 		_Ptr_cat(_First, _Dest)));

  00001	8b 04 24	 mov	 eax, DWORD PTR __Cat$232246[esp+4]
  00004	8b 4c 24 10	 mov	 ecx, DWORD PTR __Dest$[esp]
  00008	8b 54 24 0c	 mov	 edx, DWORD PTR __Last$[esp]
  0000c	50		 push	 eax
  0000d	8b 44 24 0c	 mov	 eax, DWORD PTR __First$[esp+4]
  00011	51		 push	 ecx
  00012	52		 push	 edx
  00013	50		 push	 eax
  00014	e8 00 00 00 00	 call	 ??$_Copy_backward_opt@PAU_RANGDA_POS@@PAU1@@std@@YAPAU_RANGDA_POS@@PAU1@00U_Nonscalar_ptr_iterator_tag@0@@Z ; std::_Copy_backward_opt<_RANGDA_POS *,_RANGDA_POS *>

; 1070 : 	}

  00019	83 c4 14	 add	 esp, 20			; 00000014H
  0001c	c3		 ret	 0
??$copy_backward@PAU_RANGDA_POS@@PAU1@@std@@YAPAU_RANGDA_POS@@PAU1@00@Z ENDP ; std::copy_backward<_RANGDA_POS *,_RANGDA_POS *>
_TEXT	ENDS
PUBLIC	??$_Destroy_range@PAVCRangda@@V?$allocator@PAVCRangda@@@std@@@std@@YAXPAPAVCRangda@@0AAV?$allocator@PAVCRangda@@@0@@Z ; std::_Destroy_range<CRangda *,std::allocator<CRangda *> >
; Function compile flags: /Ogty
; File c:\program files\microsoft visual studio .net 2003\vc7\include\xmemory
;	COMDAT ??$_Destroy_range@PAVCRangda@@V?$allocator@PAVCRangda@@@std@@@std@@YAXPAPAVCRangda@@0AAV?$allocator@PAVCRangda@@@0@@Z
_TEXT	SEGMENT
__First$ = 8						; size = 4
__Last$ = 12						; size = 4
__Al$ = 16						; size = 4
??$_Destroy_range@PAVCRangda@@V?$allocator@PAVCRangda@@@std@@@std@@YAXPAPAVCRangda@@0AAV?$allocator@PAVCRangda@@@0@@Z PROC NEAR ; std::_Destroy_range<CRangda *,std::allocator<CRangda *> >, COMDAT

; 217  : 	_Destroy_range(_First, _Last, _Al, _Ptr_cat(_First, _Last));
; 218  : 	}

  00000	c3		 ret	 0
??$_Destroy_range@PAVCRangda@@V?$allocator@PAVCRangda@@@std@@@std@@YAXPAPAVCRangda@@0AAV?$allocator@PAVCRangda@@@0@@Z ENDP ; std::_Destroy_range<CRangda *,std::allocator<CRangda *> >
_TEXT	ENDS
PUBLIC	??$copy_backward@PAPAVCRangda@@PAPAV1@@std@@YAPAPAVCRangda@@PAPAV1@00@Z ; std::copy_backward<CRangda * *,CRangda * *>
; Function compile flags: /Ogty
; File c:\program files\microsoft visual studio .net 2003\vc7\include\xutility
;	COMDAT ??$copy_backward@PAPAVCRangda@@PAPAV1@@std@@YAPAPAVCRangda@@PAPAV1@00@Z
_TEXT	SEGMENT
__First$ = 8						; size = 4
__Last$ = 12						; size = 4
__Dest$ = 16						; size = 4
??$copy_backward@PAPAVCRangda@@PAPAV1@@std@@YAPAPAVCRangda@@PAPAV1@00@Z PROC NEAR ; std::copy_backward<CRangda * *,CRangda * *>, COMDAT

; 1068 : 	return (_Copy_backward_opt(_First, _Last, _Dest,
; 1069 : 		_Ptr_cat(_First, _Dest)));

  00000	8b 4c 24 04	 mov	 ecx, DWORD PTR __First$[esp-4]
  00004	8b 44 24 08	 mov	 eax, DWORD PTR __Last$[esp-4]
  00008	2b c1		 sub	 eax, ecx
  0000a	c1 f8 02	 sar	 eax, 2
  0000d	c1 e0 02	 shl	 eax, 2
  00010	50		 push	 eax
  00011	51		 push	 ecx
  00012	8b 4c 24 14	 mov	 ecx, DWORD PTR __Dest$[esp+4]
  00016	2b c8		 sub	 ecx, eax
  00018	51		 push	 ecx
  00019	e8 00 00 00 00	 call	 _memmove
  0001e	83 c4 0c	 add	 esp, 12			; 0000000cH

; 1070 : 	}

  00021	c3		 ret	 0
??$copy_backward@PAPAVCRangda@@PAPAV1@@std@@YAPAPAVCRangda@@PAPAV1@00@Z ENDP ; std::copy_backward<CRangda * *,CRangda * *>
_TEXT	ENDS
PUBLIC	??$_Uninit_fill_n@PAVCRangda@@IPAV1@@std@@YAXPAPAVCRangda@@IABQAV1@AAV?$allocator@PAVCRangda@@@0@U_Scalar_ptr_iterator_tag@0@@Z ; std::_Uninit_fill_n<CRangda *,unsigned int,CRangda *>
; Function compile flags: /Ogty
; File c:\program files\microsoft visual studio .net 2003\vc7\include\memory
;	COMDAT ??$_Uninit_fill_n@PAVCRangda@@IPAV1@@std@@YAXPAPAVCRangda@@IABQAV1@AAV?$allocator@PAVCRangda@@@0@U_Scalar_ptr_iterator_tag@0@@Z
_TEXT	SEGMENT
__First$ = 8						; size = 4
__Count$ = 12						; size = 4
__Val$ = 16						; size = 4
___formal$ = 20						; size = 4
___formal$ = 24						; size = 1
??$_Uninit_fill_n@PAVCRangda@@IPAV1@@std@@YAXPAPAVCRangda@@IABQAV1@AAV?$allocator@PAVCRangda@@@0@U_Scalar_ptr_iterator_tag@0@@Z PROC NEAR ; std::_Uninit_fill_n<CRangda *,unsigned int,CRangda *>, COMDAT

; 237  : 	fill_n(_First, _Count, _Val);

  00000	8b 4c 24 08	 mov	 ecx, DWORD PTR __Count$[esp-4]
  00004	85 c9		 test	 ecx, ecx
  00006	8b 44 24 04	 mov	 eax, DWORD PTR __First$[esp-4]
  0000a	76 10		 jbe	 SHORT $L232278
  0000c	8b 54 24 0c	 mov	 edx, DWORD PTR __Val$[esp-4]
  00010	56		 push	 esi
$L232276:
  00011	8b 32		 mov	 esi, DWORD PTR [edx]
  00013	89 30		 mov	 DWORD PTR [eax], esi
  00015	83 c0 04	 add	 eax, 4
  00018	49		 dec	 ecx
  00019	75 f6		 jne	 SHORT $L232276
  0001b	5e		 pop	 esi
$L232278:

; 238  : 	}

  0001c	c3		 ret	 0
??$_Uninit_fill_n@PAVCRangda@@IPAV1@@std@@YAXPAPAVCRangda@@IABQAV1@AAV?$allocator@PAVCRangda@@@0@U_Scalar_ptr_iterator_tag@0@@Z ENDP ; std::_Uninit_fill_n<CRangda *,unsigned int,CRangda *>
_TEXT	ENDS
PUBLIC	??$_Uninitialized_copy@PAPAVCRangda@@PAPAV1@V?$allocator@PAVCRangda@@@std@@@std@@YAPAPAVCRangda@@PAPAV1@00AAV?$allocator@PAVCRangda@@@0@@Z ; std::_Uninitialized_copy<CRangda * *,CRangda * *,std::allocator<CRangda *> >
; Function compile flags: /Ogty
;	COMDAT ??$_Uninitialized_copy@PAPAVCRangda@@PAPAV1@V?$allocator@PAVCRangda@@@std@@@std@@YAPAPAVCRangda@@PAPAV1@00AAV?$allocator@PAVCRangda@@@0@@Z
_TEXT	SEGMENT
__First$ = 8						; size = 4
__Last$ = 12						; size = 4
__Dest$ = 16						; size = 4
__Al$ = 20						; size = 4
??$_Uninitialized_copy@PAPAVCRangda@@PAPAV1@V?$allocator@PAVCRangda@@@std@@@std@@YAPAPAVCRangda@@PAPAV1@00AAV?$allocator@PAVCRangda@@@0@@Z PROC NEAR ; std::_Uninitialized_copy<CRangda * *,CRangda * *,std::allocator<CRangda *> >, COMDAT

; 127  : 	return (_Uninit_copy(_First, _Last, _Dest, _Al,
; 128  : 		_Ptr_cat(_First, _Dest)));

  00000	8b 4c 24 04	 mov	 ecx, DWORD PTR __First$[esp-4]
  00004	8b 44 24 08	 mov	 eax, DWORD PTR __Last$[esp-4]
  00008	2b c1		 sub	 eax, ecx
  0000a	56		 push	 esi
  0000b	c1 f8 02	 sar	 eax, 2
  0000e	8d 34 85 00 00
	00 00		 lea	 esi, DWORD PTR [eax*4]
  00015	8b 44 24 10	 mov	 eax, DWORD PTR __Dest$[esp]
  00019	56		 push	 esi
  0001a	51		 push	 ecx
  0001b	50		 push	 eax
  0001c	e8 00 00 00 00	 call	 _memmove
  00021	83 c4 0c	 add	 esp, 12			; 0000000cH
  00024	03 c6		 add	 eax, esi
  00026	5e		 pop	 esi

; 129  : 	}

  00027	c3		 ret	 0
??$_Uninitialized_copy@PAPAVCRangda@@PAPAV1@V?$allocator@PAVCRangda@@@std@@@std@@YAPAPAVCRangda@@PAPAV1@00AAV?$allocator@PAVCRangda@@@0@@Z ENDP ; std::_Uninitialized_copy<CRangda * *,CRangda * *,std::allocator<CRangda *> >
_TEXT	ENDS
PUBLIC	?construct@?$allocator@U_RANGDA_POS@@@std@@QAEXPAU_RANGDA_POS@@ABU3@@Z ; std::allocator<_RANGDA_POS>::construct
; Function compile flags: /Ogty
; File c:\program files\microsoft visual studio .net 2003\vc7\include\xmemory
;	COMDAT ?construct@?$allocator@U_RANGDA_POS@@@std@@QAEXPAU_RANGDA_POS@@ABU3@@Z
_TEXT	SEGMENT
__Ptr$ = 8						; size = 4
__Val$ = 12						; size = 4
?construct@?$allocator@U_RANGDA_POS@@@std@@QAEXPAU_RANGDA_POS@@ABU3@@Z PROC NEAR ; std::allocator<_RANGDA_POS>::construct, COMDAT
; _this$ = ecx

; 147  : 		_Construct(_Ptr, _Val);

  00000	8b 44 24 04	 mov	 eax, DWORD PTR __Ptr$[esp-4]
  00004	85 c0		 test	 eax, eax
  00006	74 1a		 je	 SHORT $L232309
  00008	8b 4c 24 08	 mov	 ecx, DWORD PTR __Val$[esp-4]
  0000c	8b 11		 mov	 edx, DWORD PTR [ecx]
  0000e	89 10		 mov	 DWORD PTR [eax], edx
  00010	8b 51 04	 mov	 edx, DWORD PTR [ecx+4]
  00013	89 50 04	 mov	 DWORD PTR [eax+4], edx
  00016	8b 51 08	 mov	 edx, DWORD PTR [ecx+8]
  00019	89 50 08	 mov	 DWORD PTR [eax+8], edx
  0001c	8b 49 0c	 mov	 ecx, DWORD PTR [ecx+12]
  0001f	89 48 0c	 mov	 DWORD PTR [eax+12], ecx
$L232309:

; 148  : 		}

  00022	c2 08 00	 ret	 8
?construct@?$allocator@U_RANGDA_POS@@@std@@QAEXPAU_RANGDA_POS@@ABU3@@Z ENDP ; std::allocator<_RANGDA_POS>::construct
_TEXT	ENDS
PUBLIC	?destroy@?$allocator@U_RANGDA_POS@@@std@@QAEXPAU_RANGDA_POS@@@Z ; std::allocator<_RANGDA_POS>::destroy
; Function compile flags: /Ogty
;	COMDAT ?destroy@?$allocator@U_RANGDA_POS@@@std@@QAEXPAU_RANGDA_POS@@@Z
_TEXT	SEGMENT
__Ptr$ = 8						; size = 4
?destroy@?$allocator@U_RANGDA_POS@@@std@@QAEXPAU_RANGDA_POS@@@Z PROC NEAR ; std::allocator<_RANGDA_POS>::destroy, COMDAT
; _this$ = ecx

; 152  : 		_Destroy(_Ptr);
; 153  : 		}

  00000	c2 04 00	 ret	 4
?destroy@?$allocator@U_RANGDA_POS@@@std@@QAEXPAU_RANGDA_POS@@@Z ENDP ; std::allocator<_RANGDA_POS>::destroy
_TEXT	ENDS
PUBLIC	??$_Uninit_copy@PAU_RANGDA_POS@@PAU1@V?$allocator@U_RANGDA_POS@@@std@@@std@@YAPAU_RANGDA_POS@@PAU1@00AAV?$allocator@U_RANGDA_POS@@@0@U_Nonscalar_ptr_iterator_tag@0@@Z ; std::_Uninit_copy<_RANGDA_POS *,_RANGDA_POS *,std::allocator<_RANGDA_POS> >
EXTRN	__CxxThrowException@8:NEAR
; Function compile flags: /Ogty
; File c:\program files\microsoft visual studio .net 2003\vc7\include\memory
;	COMDAT ??$_Uninit_copy@PAU_RANGDA_POS@@PAU1@V?$allocator@U_RANGDA_POS@@@std@@@std@@YAPAU_RANGDA_POS@@PAU1@00AAV?$allocator@U_RANGDA_POS@@@0@U_Nonscalar_ptr_iterator_tag@0@@Z
_TEXT	SEGMENT
__First$ = 8						; size = 4
__Last$ = 12						; size = 4
__Dest$ = 16						; size = 4
__Al$ = 20						; size = 4
___formal$ = 24						; size = 1
??$_Uninit_copy@PAU_RANGDA_POS@@PAU1@V?$allocator@U_RANGDA_POS@@@std@@@std@@YAPAU_RANGDA_POS@@PAU1@00AAV?$allocator@U_RANGDA_POS@@@0@U_Nonscalar_ptr_iterator_tag@0@@Z PROC NEAR ; std::_Uninit_copy<_RANGDA_POS *,_RANGDA_POS *,std::allocator<_RANGDA_POS> >, COMDAT

; 78   : 	_FwdIt _Next = _Dest;
; 79   : 
; 80   : 	_TRY_BEGIN
; 81   : 	for (; _First != _Last; ++_Dest, ++_First)

  00000	8b 4c 24 04	 mov	 ecx, DWORD PTR __First$[esp-4]
  00004	8b 54 24 08	 mov	 edx, DWORD PTR __Last$[esp-4]
  00008	3b ca		 cmp	 ecx, edx
  0000a	8b 44 24 0c	 mov	 eax, DWORD PTR __Dest$[esp-4]
  0000e	74 2e		 je	 SHORT $L231142
  00010	53		 push	 ebx
  00011	56		 push	 esi
  00012	57		 push	 edi
$L231140:

; 82   : 		_Al.construct(_Dest, *_First);

  00013	85 c0		 test	 eax, eax
  00015	74 1a		 je	 SHORT $L231141
  00017	8b f1		 mov	 esi, ecx
  00019	8b 1e		 mov	 ebx, DWORD PTR [esi]
  0001b	8b f8		 mov	 edi, eax
  0001d	89 1f		 mov	 DWORD PTR [edi], ebx
  0001f	8b 5e 04	 mov	 ebx, DWORD PTR [esi+4]
  00022	89 5f 04	 mov	 DWORD PTR [edi+4], ebx
  00025	8b 5e 08	 mov	 ebx, DWORD PTR [esi+8]
  00028	89 5f 08	 mov	 DWORD PTR [edi+8], ebx
  0002b	8b 76 0c	 mov	 esi, DWORD PTR [esi+12]
  0002e	89 77 0c	 mov	 DWORD PTR [edi+12], esi
$L231141:
  00031	83 c1 10	 add	 ecx, 16			; 00000010H
  00034	83 c0 10	 add	 eax, 16			; 00000010H
  00037	3b ca		 cmp	 ecx, edx
  00039	75 d8		 jne	 SHORT $L231140
  0003b	5f		 pop	 edi
  0003c	5e		 pop	 esi
  0003d	5b		 pop	 ebx
$L231142:

; 83   : 	_CATCH_ALL
; 84   : 	for (; _Next != _Dest; ++_Next)
; 85   : 		_Al.destroy(_Next);
; 86   : 	_RERAISE;
; 87   : 	_CATCH_END
; 88   : 	return (_Dest);
; 89   : 	}

  0003e	c3		 ret	 0
??$_Uninit_copy@PAU_RANGDA_POS@@PAU1@V?$allocator@U_RANGDA_POS@@@std@@@std@@YAPAU_RANGDA_POS@@PAU1@00AAV?$allocator@U_RANGDA_POS@@@0@U_Nonscalar_ptr_iterator_tag@0@@Z ENDP ; std::_Uninit_copy<_RANGDA_POS *,_RANGDA_POS *,std::allocator<_RANGDA_POS> >
_TEXT	ENDS
PUBLIC	??0?$_String_val@DV?$allocator@D@std@@@std@@IAE@V?$allocator@D@1@@Z ; std::_String_val<char,std::allocator<char> >::_String_val<char,std::allocator<char> >
; Function compile flags: /Ogty
; File c:\program files\microsoft visual studio .net 2003\vc7\include\xstring
;	COMDAT ??0?$_String_val@DV?$allocator@D@std@@@std@@IAE@V?$allocator@D@1@@Z
_TEXT	SEGMENT
__Al$ = 8						; size = 1
??0?$_String_val@DV?$allocator@D@std@@@std@@IAE@V?$allocator@D@1@@Z PROC NEAR ; std::_String_val<char,std::allocator<char> >::_String_val<char,std::allocator<char> >, COMDAT
; _this$ = ecx

; 34   : 		{	// construct allocator from _Al

  00000	8b c1		 mov	 eax, ecx

; 35   : 		}

  00002	c2 04 00	 ret	 4
??0?$_String_val@DV?$allocator@D@std@@@std@@IAE@V?$allocator@D@1@@Z ENDP ; std::_String_val<char,std::allocator<char> >::_String_val<char,std::allocator<char> >
_TEXT	ENDS
PUBLIC	?_Eos@?$basic_string@DU?$char_traits@D@std@@V?$allocator@D@2@@std@@IAEXI@Z ; std::basic_string<char,std::char_traits<char>,std::allocator<char> >::_Eos
; Function compile flags: /Ogty
;	COMDAT ?_Eos@?$basic_string@DU?$char_traits@D@std@@V?$allocator@D@2@@std@@IAEXI@Z
_TEXT	SEGMENT
__Newsize$ = 8						; size = 4
?_Eos@?$basic_string@DU?$char_traits@D@std@@V?$allocator@D@2@@std@@IAEXI@Z PROC NEAR ; std::basic_string<char,std::char_traits<char>,std::allocator<char> >::_Eos, COMDAT
; _this$ = ecx

; 1475 : 		_Traits::assign(_Myptr()[_Mysize = _Newsize], _Elem());

  00000	83 79 18 10	 cmp	 DWORD PTR [ecx+24], 16	; 00000010H
  00004	8b 44 24 04	 mov	 eax, DWORD PTR __Newsize$[esp-4]
  00008	89 41 14	 mov	 DWORD PTR [ecx+20], eax
  0000b	72 0a		 jb	 SHORT $L232371
  0000d	8b 49 04	 mov	 ecx, DWORD PTR [ecx+4]
  00010	c6 04 01 00	 mov	 BYTE PTR [ecx+eax], 0

; 1476 : 		}

  00014	c2 04 00	 ret	 4

; 1475 : 		_Traits::assign(_Myptr()[_Mysize = _Newsize], _Elem());

$L232371:
  00017	c6 44 01 04 00	 mov	 BYTE PTR [ecx+eax+4], 0

; 1476 : 		}

  0001c	c2 04 00	 ret	 4
?_Eos@?$basic_string@DU?$char_traits@D@std@@V?$allocator@D@2@@std@@IAEXI@Z ENDP ; std::basic_string<char,std::char_traits<char>,std::allocator<char> >::_Eos
_TEXT	ENDS
PUBLIC	?max_size@?$basic_string@DU?$char_traits@D@std@@V?$allocator@D@2@@std@@QBEIXZ ; std::basic_string<char,std::char_traits<char>,std::allocator<char> >::max_size
; Function compile flags: /Ogty
;	COMDAT ?max_size@?$basic_string@DU?$char_traits@D@std@@V?$allocator@D@2@@std@@QBEIXZ
_TEXT	SEGMENT
?max_size@?$basic_string@DU?$char_traits@D@std@@V?$allocator@D@2@@std@@QBEIXZ PROC NEAR ; std::basic_string<char,std::char_traits<char>,std::allocator<char> >::max_size, COMDAT
; _this$ = ecx

; 1114 : 		size_type _Num = _Mybase::_Alval.max_size();
; 1115 : 		return (_Num <= 1 ? 1 : _Num - 1);

  00000	b8 fe ff ff ff	 mov	 eax, -2			; fffffffeH

; 1116 : 		}

  00005	c3		 ret	 0
?max_size@?$basic_string@DU?$char_traits@D@std@@V?$allocator@D@2@@std@@QBEIXZ ENDP ; std::basic_string<char,std::char_traits<char>,std::allocator<char> >::max_size
_TEXT	ENDS
PUBLIC	?allocate@?$allocator@D@std@@QAEPADI@Z		; std::allocator<char>::allocate
; Function compile flags: /Ogty
; File c:\program files\microsoft visual studio .net 2003\vc7\include\xmemory
;	COMDAT ?allocate@?$allocator@D@std@@QAEPADI@Z
_TEXT	SEGMENT
__Count$ = 8						; size = 4
?allocate@?$allocator@D@std@@QAEPADI@Z PROC NEAR	; std::allocator<char>::allocate, COMDAT
; _this$ = ecx

; 137  : 		return (_Allocate(_Count, (pointer)0));

  00000	8b 44 24 04	 mov	 eax, DWORD PTR __Count$[esp-4]
  00004	50		 push	 eax
  00005	e8 00 00 00 00	 call	 ??2@YAPAXI@Z		; operator new
  0000a	83 c4 04	 add	 esp, 4

; 138  : 		}

  0000d	c2 04 00	 ret	 4
?allocate@?$allocator@D@std@@QAEPADI@Z ENDP		; std::allocator<char>::allocate
_TEXT	ENDS
PUBLIC	??8ATL@@YA_NABV?$CStringT@DV?$StrTraitMFC@DV?$ChTraitsCRT@D@ATL@@@@@0@PBD@Z ; ATL::operator==
; Function compile flags: /Ogty
; File c:\program files\microsoft visual studio .net 2003\vc7\atlmfc\include\cstringt.h
;	COMDAT ??8ATL@@YA_NABV?$CStringT@DV?$StrTraitMFC@DV?$ChTraitsCRT@D@ATL@@@@@0@PBD@Z
_TEXT	SEGMENT
_str1$ = 8						; size = 4
_psz2$ = 12						; size = 4
??8ATL@@YA_NABV?$CStringT@DV?$StrTraitMFC@DV?$ChTraitsCRT@D@ATL@@@@@0@PBD@Z PROC NEAR ; ATL::operator==, COMDAT

; 2088 : 		return( str1.Compare( psz2 ) == 0 );

  00000	8b 4c 24 08	 mov	 ecx, DWORD PTR _psz2$[esp-4]
  00004	8b 44 24 04	 mov	 eax, DWORD PTR _str1$[esp-4]
  00008	8b 00		 mov	 eax, DWORD PTR [eax]
  0000a	51		 push	 ecx
  0000b	50		 push	 eax
  0000c	e8 00 00 00 00	 call	 __mbscmp
  00011	83 c4 08	 add	 esp, 8
  00014	f7 d8		 neg	 eax
  00016	1b c0		 sbb	 eax, eax
  00018	40		 inc	 eax

; 2089 : 	}

  00019	c3		 ret	 0
??8ATL@@YA_NABV?$CStringT@DV?$StrTraitMFC@DV?$ChTraitsCRT@D@ATL@@@@@0@PBD@Z ENDP ; ATL::operator==
_TEXT	ENDS
PUBLIC	?begin@?$vector@PAVCRangda@@V?$allocator@PAVCRangda@@@std@@@std@@QAE?AViterator@12@XZ ; std::vector<CRangda *,std::allocator<CRangda *> >::begin
; Function compile flags: /Ogty
; File c:\program files\microsoft visual studio .net 2003\vc7\include\vector
;	COMDAT ?begin@?$vector@PAVCRangda@@V?$allocator@PAVCRangda@@@std@@@std@@QAE?AViterator@12@XZ
_TEXT	SEGMENT
___$ReturnUdt$ = 8					; size = 4
?begin@?$vector@PAVCRangda@@V?$allocator@PAVCRangda@@@std@@@std@@QAE?AViterator@12@XZ PROC NEAR ; std::vector<CRangda *,std::allocator<CRangda *> >::begin, COMDAT
; _this$ = ecx

; 463  : 		return (iterator(_Myfirst));

  00000	8b 49 04	 mov	 ecx, DWORD PTR [ecx+4]
  00003	8b 44 24 04	 mov	 eax, DWORD PTR ___$ReturnUdt$[esp-4]
  00007	89 08		 mov	 DWORD PTR [eax], ecx

; 464  : 		}

  00009	c2 04 00	 ret	 4
?begin@?$vector@PAVCRangda@@V?$allocator@PAVCRangda@@@std@@@std@@QAE?AViterator@12@XZ ENDP ; std::vector<CRangda *,std::allocator<CRangda *> >::begin
_TEXT	ENDS
PUBLIC	?end@?$vector@PAVCRangda@@V?$allocator@PAVCRangda@@@std@@@std@@QAE?AViterator@12@XZ ; std::vector<CRangda *,std::allocator<CRangda *> >::end
; Function compile flags: /Ogty
;	COMDAT ?end@?$vector@PAVCRangda@@V?$allocator@PAVCRangda@@@std@@@std@@QAE?AViterator@12@XZ
_TEXT	SEGMENT
___$ReturnUdt$ = 8					; size = 4
?end@?$vector@PAVCRangda@@V?$allocator@PAVCRangda@@@std@@@std@@QAE?AViterator@12@XZ PROC NEAR ; std::vector<CRangda *,std::allocator<CRangda *> >::end, COMDAT
; _this$ = ecx

; 473  : 		return (iterator(_Mylast));

  00000	8b 49 08	 mov	 ecx, DWORD PTR [ecx+8]
  00003	8b 44 24 04	 mov	 eax, DWORD PTR ___$ReturnUdt$[esp-4]
  00007	89 08		 mov	 DWORD PTR [eax], ecx

; 474  : 		}

  00009	c2 04 00	 ret	 4
?end@?$vector@PAVCRangda@@V?$allocator@PAVCRangda@@@std@@@std@@QAE?AViterator@12@XZ ENDP ; std::vector<CRangda *,std::allocator<CRangda *> >::end
_TEXT	ENDS
PUBLIC	?begin@?$vector@U_RANGDA_POS@@V?$allocator@U_RANGDA_POS@@@std@@@std@@QAE?AViterator@12@XZ ; std::vector<_RANGDA_POS,std::allocator<_RANGDA_POS> >::begin
; Function compile flags: /Ogty
;	COMDAT ?begin@?$vector@U_RANGDA_POS@@V?$allocator@U_RANGDA_POS@@@std@@@std@@QAE?AViterator@12@XZ
_TEXT	SEGMENT
___$ReturnUdt$ = 8					; size = 4
?begin@?$vector@U_RANGDA_POS@@V?$allocator@U_RANGDA_POS@@@std@@@std@@QAE?AViterator@12@XZ PROC NEAR ; std::vector<_RANGDA_POS,std::allocator<_RANGDA_POS> >::begin, COMDAT
; _this$ = ecx

; 463  : 		return (iterator(_Myfirst));

  00000	8b 49 04	 mov	 ecx, DWORD PTR [ecx+4]
  00003	8b 44 24 04	 mov	 eax, DWORD PTR ___$ReturnUdt$[esp-4]
  00007	89 08		 mov	 DWORD PTR [eax], ecx

; 464  : 		}

  00009	c2 04 00	 ret	 4
?begin@?$vector@U_RANGDA_POS@@V?$allocator@U_RANGDA_POS@@@std@@@std@@QAE?AViterator@12@XZ ENDP ; std::vector<_RANGDA_POS,std::allocator<_RANGDA_POS> >::begin
_TEXT	ENDS
PUBLIC	?end@?$vector@U_RANGDA_POS@@V?$allocator@U_RANGDA_POS@@@std@@@std@@QAE?AViterator@12@XZ ; std::vector<_RANGDA_POS,std::allocator<_RANGDA_POS> >::end
; Function compile flags: /Ogty
;	COMDAT ?end@?$vector@U_RANGDA_POS@@V?$allocator@U_RANGDA_POS@@@std@@@std@@QAE?AViterator@12@XZ
_TEXT	SEGMENT
___$ReturnUdt$ = 8					; size = 4
?end@?$vector@U_RANGDA_POS@@V?$allocator@U_RANGDA_POS@@@std@@@std@@QAE?AViterator@12@XZ PROC NEAR ; std::vector<_RANGDA_POS,std::allocator<_RANGDA_POS> >::end, COMDAT
; _this$ = ecx

; 473  : 		return (iterator(_Mylast));

  00000	8b 49 08	 mov	 ecx, DWORD PTR [ecx+8]
  00003	8b 44 24 04	 mov	 eax, DWORD PTR ___$ReturnUdt$[esp-4]
  00007	89 08		 mov	 DWORD PTR [eax], ecx

; 474  : 		}

  00009	c2 04 00	 ret	 4
?end@?$vector@U_RANGDA_POS@@V?$allocator@U_RANGDA_POS@@@std@@@std@@QAE?AViterator@12@XZ ENDP ; std::vector<_RANGDA_POS,std::allocator<_RANGDA_POS> >::end
_TEXT	ENDS
PUBLIC	?_Destroy@?$vector@PAVCRangda@@V?$allocator@PAVCRangda@@@std@@@std@@IAEXPAPAVCRangda@@0@Z ; std::vector<CRangda *,std::allocator<CRangda *> >::_Destroy
; Function compile flags: /Ogty
;	COMDAT ?_Destroy@?$vector@PAVCRangda@@V?$allocator@PAVCRangda@@@std@@@std@@IAEXPAPAVCRangda@@0@Z
_TEXT	SEGMENT
__First$ = 8						; size = 4
__Last$ = 12						; size = 4
?_Destroy@?$vector@PAVCRangda@@V?$allocator@PAVCRangda@@@std@@@std@@IAEXPAPAVCRangda@@0@Z PROC NEAR ; std::vector<CRangda *,std::allocator<CRangda *> >::_Destroy, COMDAT
; _this$ = ecx

; 787  : 		_Destroy_range(_First, _Last, this->_Alval);
; 788  : 		}

  00000	c2 08 00	 ret	 8
?_Destroy@?$vector@PAVCRangda@@V?$allocator@PAVCRangda@@@std@@@std@@IAEXPAPAVCRangda@@0@Z ENDP ; std::vector<CRangda *,std::allocator<CRangda *> >::_Destroy
_TEXT	ENDS
PUBLIC	??$_Uninitialized_fill_n@PAPAVCRangda@@IPAV1@V?$allocator@PAVCRangda@@@std@@@std@@YAXPAPAVCRangda@@IABQAV1@AAV?$allocator@PAVCRangda@@@0@@Z ; std::_Uninitialized_fill_n<CRangda * *,unsigned int,CRangda *,std::allocator<CRangda *> >
; Function compile flags: /Ogty
; File c:\program files\microsoft visual studio .net 2003\vc7\include\memory
;	COMDAT ??$_Uninitialized_fill_n@PAPAVCRangda@@IPAV1@V?$allocator@PAVCRangda@@@std@@@std@@YAXPAPAVCRangda@@IABQAV1@AAV?$allocator@PAVCRangda@@@0@@Z
_TEXT	SEGMENT
__First$ = 8						; size = 4
__Count$ = 12						; size = 4
__Val$ = 16						; size = 4
__Al$ = 20						; size = 4
??$_Uninitialized_fill_n@PAPAVCRangda@@IPAV1@V?$allocator@PAVCRangda@@@std@@@std@@YAXPAPAVCRangda@@IABQAV1@AAV?$allocator@PAVCRangda@@@0@@Z PROC NEAR ; std::_Uninitialized_fill_n<CRangda * *,unsigned int,CRangda *,std::allocator<CRangda *> >, COMDAT

; 256  : 	_Uninit_fill_n(_First, _Count, _Val, _Al,
; 257  : 		_Ptr_cat(_First, _First));

  00000	8b 4c 24 08	 mov	 ecx, DWORD PTR __Count$[esp-4]
  00004	85 c9		 test	 ecx, ecx
  00006	8b 44 24 04	 mov	 eax, DWORD PTR __First$[esp-4]
  0000a	76 10		 jbe	 SHORT $L232485
  0000c	8b 54 24 0c	 mov	 edx, DWORD PTR __Val$[esp-4]
  00010	56		 push	 esi
$L232483:
  00011	8b 32		 mov	 esi, DWORD PTR [edx]
  00013	89 30		 mov	 DWORD PTR [eax], esi
  00015	83 c0 04	 add	 eax, 4
  00018	49		 dec	 ecx
  00019	75 f6		 jne	 SHORT $L232483
  0001b	5e		 pop	 esi
$L232485:

; 258  : 	}

  0001c	c3		 ret	 0
??$_Uninitialized_fill_n@PAPAVCRangda@@IPAV1@V?$allocator@PAVCRangda@@@std@@@std@@YAXPAPAVCRangda@@IABQAV1@AAV?$allocator@PAVCRangda@@@0@@Z ENDP ; std::_Uninitialized_fill_n<CRangda * *,unsigned int,CRangda *,std::allocator<CRangda *> >
_TEXT	ENDS
PUBLIC	??$_Ucopy@PAPAVCRangda@@@?$vector@PAVCRangda@@V?$allocator@PAVCRangda@@@std@@@std@@IAEPAPAVCRangda@@PAPAV2@00@Z ; std::vector<CRangda *,std::allocator<CRangda *> >::_Ucopy<CRangda * *>
; Function compile flags: /Ogty
; File c:\program files\microsoft visual studio .net 2003\vc7\include\vector
;	COMDAT ??$_Ucopy@PAPAVCRangda@@@?$vector@PAVCRangda@@V?$allocator@PAVCRangda@@@std@@@std@@IAEPAPAVCRangda@@PAPAV2@00@Z
_TEXT	SEGMENT
__First$ = 8						; size = 4
__Last$ = 12						; size = 4
__Ptr$ = 16						; size = 4
??$_Ucopy@PAPAVCRangda@@@?$vector@PAVCRangda@@V?$allocator@PAVCRangda@@@std@@@std@@IAEPAPAVCRangda@@PAPAV2@00@Z PROC NEAR ; std::vector<CRangda *,std::allocator<CRangda *> >::_Ucopy<CRangda * *>, COMDAT
; _this$ = ecx

; 802  : 		{	// copy initializing [_First, _Last), using allocator
; 803  : 		return (_Uninitialized_copy(_First, _Last,
; 804  : 			_Ptr, this->_Alval));

  00000	8b 4c 24 04	 mov	 ecx, DWORD PTR __First$[esp-4]
  00004	8b 44 24 08	 mov	 eax, DWORD PTR __Last$[esp-4]
  00008	2b c1		 sub	 eax, ecx
  0000a	56		 push	 esi
  0000b	c1 f8 02	 sar	 eax, 2
  0000e	8d 34 85 00 00
	00 00		 lea	 esi, DWORD PTR [eax*4]
  00015	8b 44 24 10	 mov	 eax, DWORD PTR __Ptr$[esp]
  00019	56		 push	 esi
  0001a	51		 push	 ecx
  0001b	50		 push	 eax
  0001c	e8 00 00 00 00	 call	 _memmove
  00021	83 c4 0c	 add	 esp, 12			; 0000000cH
  00024	03 c6		 add	 eax, esi
  00026	5e		 pop	 esi

; 805  : 		}

  00027	c2 0c 00	 ret	 12			; 0000000cH
??$_Ucopy@PAPAVCRangda@@@?$vector@PAVCRangda@@V?$allocator@PAVCRangda@@@std@@@std@@IAEPAPAVCRangda@@PAPAV2@00@Z ENDP ; std::vector<CRangda *,std::allocator<CRangda *> >::_Ucopy<CRangda * *>
_TEXT	ENDS
PUBLIC	??$_Uninit_fill_n@PAU_RANGDA_POS@@IU1@V?$allocator@U_RANGDA_POS@@@std@@@std@@YAXPAU_RANGDA_POS@@IABU1@AAV?$allocator@U_RANGDA_POS@@@0@U_Nonscalar_ptr_iterator_tag@0@@Z ; std::_Uninit_fill_n<_RANGDA_POS *,unsigned int,_RANGDA_POS,std::allocator<_RANGDA_POS> >
; Function compile flags: /Ogty
; File c:\program files\microsoft visual studio .net 2003\vc7\include\memory
;	COMDAT ??$_Uninit_fill_n@PAU_RANGDA_POS@@IU1@V?$allocator@U_RANGDA_POS@@@std@@@std@@YAXPAU_RANGDA_POS@@IABU1@AAV?$allocator@U_RANGDA_POS@@@0@U_Nonscalar_ptr_iterator_tag@0@@Z
_TEXT	SEGMENT
__First$ = 8						; size = 4
__Count$ = 12						; size = 4
__Val$ = 16						; size = 4
__Al$ = 20						; size = 4
___formal$ = 24						; size = 1
??$_Uninit_fill_n@PAU_RANGDA_POS@@IU1@V?$allocator@U_RANGDA_POS@@@std@@@std@@YAXPAU_RANGDA_POS@@IABU1@AAV?$allocator@U_RANGDA_POS@@@0@U_Nonscalar_ptr_iterator_tag@0@@Z PROC NEAR ; std::_Uninit_fill_n<_RANGDA_POS *,unsigned int,_RANGDA_POS,std::allocator<_RANGDA_POS> >, COMDAT

; 208  : 	_FwdIt _Next = _First;
; 209  : 
; 210  : 	_TRY_BEGIN
; 211  : 	for (; 0 < _Count; --_Count, ++_First)

  00000	8b 44 24 08	 mov	 eax, DWORD PTR __Count$[esp-4]
  00004	85 c0		 test	 eax, eax
  00006	76 34		 jbe	 SHORT $L230908
  00008	8b 54 24 0c	 mov	 edx, DWORD PTR __Val$[esp-4]
  0000c	53		 push	 ebx
  0000d	56		 push	 esi
  0000e	8b c8		 mov	 ecx, eax
  00010	8b 44 24 0c	 mov	 eax, DWORD PTR __First$[esp+4]
  00014	57		 push	 edi
$L230906:

; 212  : 		_Al.construct(_First, _Val);

  00015	85 c0		 test	 eax, eax
  00017	74 1a		 je	 SHORT $L230907
  00019	8b f2		 mov	 esi, edx
  0001b	8b 1e		 mov	 ebx, DWORD PTR [esi]
  0001d	8b f8		 mov	 edi, eax
  0001f	89 1f		 mov	 DWORD PTR [edi], ebx
  00021	8b 5e 04	 mov	 ebx, DWORD PTR [esi+4]
  00024	89 5f 04	 mov	 DWORD PTR [edi+4], ebx
  00027	8b 5e 08	 mov	 ebx, DWORD PTR [esi+8]
  0002a	89 5f 08	 mov	 DWORD PTR [edi+8], ebx
  0002d	8b 76 0c	 mov	 esi, DWORD PTR [esi+12]
  00030	89 77 0c	 mov	 DWORD PTR [edi+12], esi
$L230907:
  00033	83 c0 10	 add	 eax, 16			; 00000010H
  00036	49		 dec	 ecx
  00037	75 dc		 jne	 SHORT $L230906
  00039	5f		 pop	 edi
  0003a	5e		 pop	 esi
  0003b	5b		 pop	 ebx
$L230908:

; 213  : 	_CATCH_ALL
; 214  : 	for (; _Next != _First; ++_Next)
; 215  : 		_Al.destroy(_Next);
; 216  : 	_RERAISE;
; 217  : 	_CATCH_END
; 218  : 	}

  0003c	c3		 ret	 0
??$_Uninit_fill_n@PAU_RANGDA_POS@@IU1@V?$allocator@U_RANGDA_POS@@@std@@@std@@YAXPAU_RANGDA_POS@@IABU1@AAV?$allocator@U_RANGDA_POS@@@0@U_Nonscalar_ptr_iterator_tag@0@@Z ENDP ; std::_Uninit_fill_n<_RANGDA_POS *,unsigned int,_RANGDA_POS,std::allocator<_RANGDA_POS> >
_TEXT	ENDS
PUBLIC	??$_Destroy_range@U_RANGDA_POS@@V?$allocator@U_RANGDA_POS@@@std@@@std@@YAXPAU_RANGDA_POS@@0AAV?$allocator@U_RANGDA_POS@@@0@U_Nonscalar_ptr_iterator_tag@0@@Z ; std::_Destroy_range<_RANGDA_POS,std::allocator<_RANGDA_POS> >
; Function compile flags: /Ogty
; File c:\program files\microsoft visual studio .net 2003\vc7\include\xmemory
;	COMDAT ??$_Destroy_range@U_RANGDA_POS@@V?$allocator@U_RANGDA_POS@@@std@@@std@@YAXPAU_RANGDA_POS@@0AAV?$allocator@U_RANGDA_POS@@@0@U_Nonscalar_ptr_iterator_tag@0@@Z
_TEXT	SEGMENT
__First$ = 8						; size = 4
__Last$ = 12						; size = 4
__Al$ = 16						; size = 4
___formal$ = 20						; size = 1
??$_Destroy_range@U_RANGDA_POS@@V?$allocator@U_RANGDA_POS@@@std@@@std@@YAXPAU_RANGDA_POS@@0AAV?$allocator@U_RANGDA_POS@@@0@U_Nonscalar_ptr_iterator_tag@0@@Z PROC NEAR ; std::_Destroy_range<_RANGDA_POS,std::allocator<_RANGDA_POS> >, COMDAT

; 225  : 	for (; _First != _Last; ++_First)
; 226  : 		_Al.destroy(_First);
; 227  : 	}

  00000	c3		 ret	 0
??$_Destroy_range@U_RANGDA_POS@@V?$allocator@U_RANGDA_POS@@@std@@@std@@YAXPAU_RANGDA_POS@@0AAV?$allocator@U_RANGDA_POS@@@0@U_Nonscalar_ptr_iterator_tag@0@@Z ENDP ; std::_Destroy_range<_RANGDA_POS,std::allocator<_RANGDA_POS> >
_TEXT	ENDS
PUBLIC	??$_Uninitialized_copy@PAU_RANGDA_POS@@PAU1@V?$allocator@U_RANGDA_POS@@@std@@@std@@YAPAU_RANGDA_POS@@PAU1@00AAV?$allocator@U_RANGDA_POS@@@0@@Z ; std::_Uninitialized_copy<_RANGDA_POS *,_RANGDA_POS *,std::allocator<_RANGDA_POS> >
; Function compile flags: /Ogty
; File c:\program files\microsoft visual studio .net 2003\vc7\include\memory
;	COMDAT ??$_Uninitialized_copy@PAU_RANGDA_POS@@PAU1@V?$allocator@U_RANGDA_POS@@@std@@@std@@YAPAU_RANGDA_POS@@PAU1@00AAV?$allocator@U_RANGDA_POS@@@0@@Z
_TEXT	SEGMENT
__Cat$232556 = -4					; size = 1
__First$ = 8						; size = 4
__Last$ = 12						; size = 4
__Dest$ = 16						; size = 4
__Al$ = 20						; size = 4
??$_Uninitialized_copy@PAU_RANGDA_POS@@PAU1@V?$allocator@U_RANGDA_POS@@@std@@@std@@YAPAU_RANGDA_POS@@PAU1@00AAV?$allocator@U_RANGDA_POS@@@0@@Z PROC NEAR ; std::_Uninitialized_copy<_RANGDA_POS *,_RANGDA_POS *,std::allocator<_RANGDA_POS> >, COMDAT

; 126  : 	{	// copy [_First, _Last) to raw _Dest, using _Al

  00000	51		 push	 ecx

; 127  : 	return (_Uninit_copy(_First, _Last, _Dest, _Al,
; 128  : 		_Ptr_cat(_First, _Dest)));

  00001	8b 04 24	 mov	 eax, DWORD PTR __Cat$232556[esp+4]
  00004	8b 4c 24 14	 mov	 ecx, DWORD PTR __Al$[esp]
  00008	8b 54 24 10	 mov	 edx, DWORD PTR __Dest$[esp]
  0000c	50		 push	 eax
  0000d	8b 44 24 10	 mov	 eax, DWORD PTR __Last$[esp+4]
  00011	51		 push	 ecx
  00012	8b 4c 24 10	 mov	 ecx, DWORD PTR __First$[esp+8]
  00016	52		 push	 edx
  00017	50		 push	 eax
  00018	51		 push	 ecx
  00019	e8 00 00 00 00	 call	 ??$_Uninit_copy@PAU_RANGDA_POS@@PAU1@V?$allocator@U_RANGDA_POS@@@std@@@std@@YAPAU_RANGDA_POS@@PAU1@00AAV?$allocator@U_RANGDA_POS@@@0@U_Nonscalar_ptr_iterator_tag@0@@Z ; std::_Uninit_copy<_RANGDA_POS *,_RANGDA_POS *,std::allocator<_RANGDA_POS> >

; 129  : 	}

  0001e	83 c4 18	 add	 esp, 24			; 00000018H
  00021	c3		 ret	 0
??$_Uninitialized_copy@PAU_RANGDA_POS@@PAU1@V?$allocator@U_RANGDA_POS@@@std@@@std@@YAPAU_RANGDA_POS@@PAU1@00AAV?$allocator@U_RANGDA_POS@@@0@@Z ENDP ; std::_Uninitialized_copy<_RANGDA_POS *,_RANGDA_POS *,std::allocator<_RANGDA_POS> >
_TEXT	ENDS
PUBLIC	?_Tidy@?$basic_string@DU?$char_traits@D@std@@V?$allocator@D@2@@std@@IAEX_NI@Z ; std::basic_string<char,std::char_traits<char>,std::allocator<char> >::_Tidy
; Function compile flags: /Ogty
; File c:\program files\microsoft visual studio .net 2003\vc7\include\xstring
;	COMDAT ?_Tidy@?$basic_string@DU?$char_traits@D@std@@V?$allocator@D@2@@std@@IAEX_NI@Z
_TEXT	SEGMENT
__Built$ = 8						; size = 1
__Newsize$ = 12						; size = 4
?_Tidy@?$basic_string@DU?$char_traits@D@std@@V?$allocator@D@2@@std@@IAEX_NI@Z PROC NEAR ; std::basic_string<char,std::char_traits<char>,std::allocator<char> >::_Tidy, COMDAT
; _this$ = ecx

; 1510 : 		if (!_Built)

  00000	8a 44 24 04	 mov	 al, BYTE PTR __Built$[esp-4]
  00004	84 c0		 test	 al, al
  00006	53		 push	 ebx
  00007	55		 push	 ebp
  00008	8b 6c 24 10	 mov	 ebp, DWORD PTR __Newsize$[esp+4]
  0000c	8b d9		 mov	 ebx, ecx
  0000e	74 2f		 je	 SHORT $L232565

; 1511 : 			;
; 1512 : 		else if (_BUF_SIZE <= _Myres)

  00010	83 7b 18 10	 cmp	 DWORD PTR [ebx+24], 16	; 00000010H
  00014	72 29		 jb	 SHORT $L232565

; 1513 : 			{	// copy any leftovers to small buffer and deallocate
; 1514 : 			_Elem *_Ptr = _Bx._Ptr;
; 1515 : 			if (0 < _Newsize)

  00016	85 ed		 test	 ebp, ebp
  00018	8b 43 04	 mov	 eax, DWORD PTR [ebx+4]
  0001b	57		 push	 edi
  0001c	8d 7b 04	 lea	 edi, DWORD PTR [ebx+4]
  0001f	76 14		 jbe	 SHORT $L232561
  00021	56		 push	 esi

; 1516 : 				_Traits::copy(_Bx._Buf, _Ptr, _Newsize);

  00022	8b cd		 mov	 ecx, ebp
  00024	8b d1		 mov	 edx, ecx
  00026	c1 e9 02	 shr	 ecx, 2
  00029	8b f0		 mov	 esi, eax
  0002b	f3 a5		 rep movsd
  0002d	8b ca		 mov	 ecx, edx
  0002f	83 e1 03	 and	 ecx, 3
  00032	f3 a4		 rep movsb
  00034	5e		 pop	 esi
$L232561:

; 1517 : 			_Mybase::_Alval.deallocate(_Ptr, _Myres + 1);

  00035	50		 push	 eax
  00036	e8 00 00 00 00	 call	 ??3@YAXPAX@Z		; operator delete
  0003b	83 c4 04	 add	 esp, 4
  0003e	5f		 pop	 edi
$L232565:

; 1518 : 			}
; 1519 : 		_Myres = _BUF_SIZE - 1;
; 1520 : 		_Eos(_Newsize);

  0003f	89 6b 14	 mov	 DWORD PTR [ebx+20], ebp
  00042	c7 43 18 0f 00
	00 00		 mov	 DWORD PTR [ebx+24], 15	; 0000000fH
  00049	c6 44 2b 04 00	 mov	 BYTE PTR [ebx+ebp+4], 0
  0004e	5d		 pop	 ebp
  0004f	5b		 pop	 ebx

; 1521 : 		}

  00050	c2 08 00	 ret	 8
?_Tidy@?$basic_string@DU?$char_traits@D@std@@V?$allocator@D@2@@std@@IAEX_NI@Z ENDP ; std::basic_string<char,std::char_traits<char>,std::allocator<char> >::_Tidy
_TEXT	ENDS
PUBLIC	?erase@?$basic_string@DU?$char_traits@D@std@@V?$allocator@D@2@@std@@QAEAAV12@II@Z ; std::basic_string<char,std::char_traits<char>,std::allocator<char> >::erase
EXTRN	?_Xran@_String_base@std@@QBEXXZ:NEAR		; std::_String_base::_Xran
; Function compile flags: /Ogty
;	COMDAT ?erase@?$basic_string@DU?$char_traits@D@std@@V?$allocator@D@2@@std@@QAEAAV12@II@Z
_TEXT	SEGMENT
__Off$ = 8						; size = 4
__Count$ = 12						; size = 4
?erase@?$basic_string@DU?$char_traits@D@std@@V?$allocator@D@2@@std@@QAEAAV12@II@Z PROC NEAR ; std::basic_string<char,std::char_traits<char>,std::allocator<char> >::erase, COMDAT
; _this$ = ecx

; 792  : 		{	// erase elements [_Off, _Off + _Count)

  00000	55		 push	 ebp

; 793  : 		if (_Mysize < _Off)

  00001	8b 6c 24 08	 mov	 ebp, DWORD PTR __Off$[esp]
  00005	56		 push	 esi
  00006	8b f1		 mov	 esi, ecx
  00008	39 6e 14	 cmp	 DWORD PTR [esi+20], ebp
  0000b	57		 push	 edi
  0000c	73 05		 jae	 SHORT $L221371

; 794  : 			_String_base::_Xran();	// _Off off end

  0000e	e8 00 00 00 00	 call	 ?_Xran@_String_base@std@@QBEXXZ ; std::_String_base::_Xran
$L221371:

; 795  : 		if (_Mysize - _Off < _Count)

  00013	8b 46 14	 mov	 eax, DWORD PTR [esi+20]
  00016	8b 7c 24 14	 mov	 edi, DWORD PTR __Count$[esp+8]
  0001a	2b c5		 sub	 eax, ebp
  0001c	3b c7		 cmp	 eax, edi
  0001e	73 02		 jae	 SHORT $L221372

; 796  : 			_Count = _Mysize - _Off;	// trim _Count

  00020	8b f8		 mov	 edi, eax
$L221372:

; 797  : 		if (0 < _Count)

  00022	85 ff		 test	 edi, edi
  00024	76 47		 jbe	 SHORT $L232630

; 798  : 			{	// move elements down
; 799  : 			_Traits::move(_Myptr() + _Off, _Myptr() + _Off + _Count,
; 800  : 				_Mysize - _Off - _Count);

  00026	8b 4e 18	 mov	 ecx, DWORD PTR [esi+24]
  00029	83 f9 10	 cmp	 ecx, 16			; 00000010H
  0002c	53		 push	 ebx
  0002d	8d 5e 04	 lea	 ebx, DWORD PTR [esi+4]
  00030	72 04		 jb	 SHORT $L232595
  00032	8b 13		 mov	 edx, DWORD PTR [ebx]
  00034	eb 02		 jmp	 SHORT $L232596
$L232595:
  00036	8b d3		 mov	 edx, ebx
$L232596:
  00038	83 f9 10	 cmp	 ecx, 16			; 00000010H
  0003b	72 04		 jb	 SHORT $L232602
  0003d	8b 0b		 mov	 ecx, DWORD PTR [ebx]
  0003f	eb 02		 jmp	 SHORT $L232603
$L232602:
  00041	8b cb		 mov	 ecx, ebx
$L232603:
  00043	2b c7		 sub	 eax, edi

; 803  : 			}
; 804  : 		return (*this);

  00045	03 d5		 add	 edx, ebp
  00047	50		 push	 eax
  00048	03 d7		 add	 edx, edi
  0004a	52		 push	 edx
  0004b	03 cd		 add	 ecx, ebp
  0004d	51		 push	 ecx
  0004e	e8 00 00 00 00	 call	 _memmove
  00053	8b 46 14	 mov	 eax, DWORD PTR [esi+20]
  00056	8b 4e 18	 mov	 ecx, DWORD PTR [esi+24]
  00059	2b c7		 sub	 eax, edi
  0005b	83 c4 0c	 add	 esp, 12			; 0000000cH
  0005e	83 f9 10	 cmp	 ecx, 16			; 00000010H
  00061	89 46 14	 mov	 DWORD PTR [esi+20], eax
  00064	72 02		 jb	 SHORT $L232625

; 801  : 			size_type _Newsize = _Mysize - _Count;
; 802  : 			_Eos(_Newsize);

  00066	8b 1b		 mov	 ebx, DWORD PTR [ebx]
$L232625:
  00068	c6 04 03 00	 mov	 BYTE PTR [ebx+eax], 0
  0006c	5b		 pop	 ebx
$L232630:
  0006d	5f		 pop	 edi

; 803  : 			}
; 804  : 		return (*this);

  0006e	8b c6		 mov	 eax, esi
  00070	5e		 pop	 esi
  00071	5d		 pop	 ebp

; 805  : 		}

  00072	c2 08 00	 ret	 8
?erase@?$basic_string@DU?$char_traits@D@std@@V?$allocator@D@2@@std@@QAEAAV12@II@Z ENDP ; std::basic_string<char,std::char_traits<char>,std::allocator<char> >::erase
_TEXT	ENDS
PUBLIC	?_Copy@?$basic_string@DU?$char_traits@D@std@@V?$allocator@D@2@@std@@IAEXII@Z ; std::basic_string<char,std::char_traits<char>,std::allocator<char> >::_Copy
EXTRN	__except_list:DWORD
EXTRN	___CxxFrameHandler:NEAR
;	COMDAT xdata$x
; File c:\program files\microsoft visual studio .net 2003\vc7\include\iosfwd
xdata$x	SEGMENT
$T232835 DD	0ffffffffH
	DD	00H
	DD	0ffffffffH
	DD	00H
	DD	01H
	DD	00H
	DD	01H
	DD	00H
$T232837 DD	00H
	DD	00H
	DD	00H
	DD	FLAT:$L232637
$T232838 DD	00H
	DD	00H
	DD	00H
	DD	FLAT:$L232635
$T232836 DD	02H
	DD	02H
	DD	03H
	DD	01H
	DD	FLAT:$T232837
	DD	00H
	DD	00H
	DD	03H
	DD	01H
	DD	FLAT:$T232838
$T232829 DD	019930520H
	DD	04H
	DD	FLAT:$T232835
	DD	02H
	DD	FLAT:$T232836
	DD	2 DUP(00H)
; Function compile flags: /Ogty
; File c:\program files\microsoft visual studio .net 2003\vc7\include\xstring
xdata$x	ENDS
;	COMDAT ?_Copy@?$basic_string@DU?$char_traits@D@std@@V?$allocator@D@2@@std@@IAEXII@Z
_TEXT	SEGMENT
__Newres$ = -24						; size = 4
_this$ = -20						; size = 4
__$EHRec$ = -16						; size = 16
__Ptr$ = 8						; size = 4
__Newsize$ = 8						; size = 4
__Oldlen$ = 12						; size = 4
?_Copy@?$basic_string@DU?$char_traits@D@std@@V?$allocator@D@2@@std@@IAEXII@Z PROC NEAR ; std::basic_string<char,std::char_traits<char>,std::allocator<char> >::_Copy, COMDAT
; _this$ = ecx

; 1444 : 		{	// copy _Oldlen elements to newly allocated buffer

  00000	55		 push	 ebp
  00001	8b ec		 mov	 ebp, esp
  00003	6a ff		 push	 -1
  00005	68 00 00 00 00	 push	 __ehhandler$?_Copy@?$basic_string@DU?$char_traits@D@std@@V?$allocator@D@2@@std@@IAEXII@Z
  0000a	64 a1 00 00 00
	00		 mov	 eax, DWORD PTR fs:__except_list
  00010	50		 push	 eax
  00011	64 89 25 00 00
	00 00		 mov	 DWORD PTR fs:__except_list, esp
  00018	83 ec 0c	 sub	 esp, 12			; 0000000cH

; 1445 : 		size_type _Newres = _Newsize | _ALLOC_MASK;

  0001b	8b 45 08	 mov	 eax, DWORD PTR __Newsize$[ebp]
  0001e	53		 push	 ebx
  0001f	56		 push	 esi
  00020	8b d8		 mov	 ebx, eax
  00022	83 cb 0f	 or	 ebx, 15			; 0000000fH

; 1446 : 		if (max_size() < _Newres)

  00025	83 fb fe	 cmp	 ebx, -2			; fffffffeH
  00028	57		 push	 edi
  00029	8b f1		 mov	 esi, ecx
  0002b	89 65 f0	 mov	 DWORD PTR __$EHRec$[ebp], esp
  0002e	89 75 ec	 mov	 DWORD PTR _this$[ebp], esi
  00031	76 04		 jbe	 SHORT $L222778

; 1447 : 			_Newres = _Newsize;	// undo roundup if too big

  00033	8b d8		 mov	 ebx, eax

; 1448 : 		else if (_Newres / 3 < _Myres / 2

  00035	eb 22		 jmp	 SHORT $L222780
$L222778:

; 1449 : 			&& _Myres <= max_size() - _Myres / 2)

  00037	8b 7e 18	 mov	 edi, DWORD PTR [esi+24]
  0003a	b8 ab aa aa aa	 mov	 eax, -1431655765	; aaaaaaabH
  0003f	f7 e3		 mul	 ebx
  00041	8b cf		 mov	 ecx, edi
  00043	d1 e9		 shr	 ecx, 1
  00045	d1 ea		 shr	 edx, 1
  00047	3b d1		 cmp	 edx, ecx
  00049	73 0e		 jae	 SHORT $L222780
  0004b	b8 fe ff ff ff	 mov	 eax, -2			; fffffffeH
  00050	2b c1		 sub	 eax, ecx
  00052	3b f8		 cmp	 edi, eax
  00054	77 03		 ja	 SHORT $L222780

; 1450 : 			_Newres = _Myres + _Myres / 2;	// grow exponentially if possible

  00056	8d 1c 39	 lea	 ebx, DWORD PTR [ecx+edi]
$L222780:

; 1451 : 		_Elem *_Ptr;
; 1452 : 
; 1453 : 		_TRY_BEGIN
; 1454 : 			_Ptr = _Mybase::_Alval.allocate(_Newres + 1);

  00059	8d 4b 01	 lea	 ecx, DWORD PTR [ebx+1]
  0005c	51		 push	 ecx
  0005d	c7 45 fc 00 00
	00 00		 mov	 DWORD PTR __$EHRec$[ebp+12], 0
  00064	e8 00 00 00 00	 call	 ??2@YAPAXI@Z		; operator new
  00069	8b d0		 mov	 edx, eax
  0006b	83 c4 04	 add	 esp, 4
  0006e	89 55 08	 mov	 DWORD PTR __Ptr$[ebp], edx
  00071	eb 29		 jmp	 SHORT $L222782
$L232635:

; 1455 : 		_CATCH_ALL
; 1456 : 			_Newres = _Newsize;	// allocation failed, undo roundup and retry

  00073	8b 45 08	 mov	 eax, DWORD PTR __Newsize$[ebp]
  00076	89 45 e8	 mov	 DWORD PTR __Newres$[ebp], eax

; 1457 : 			_TRY_BEGIN
; 1458 : 				_Ptr = _Mybase::_Alval.allocate(_Newres + 1);

  00079	40		 inc	 eax
  0007a	89 65 f0	 mov	 DWORD PTR __$EHRec$[ebp], esp
  0007d	50		 push	 eax
  0007e	c6 45 fc 02	 mov	 BYTE PTR __$EHRec$[ebp+12], 2
  00082	e8 00 00 00 00	 call	 ??2@YAPAXI@Z		; operator new
  00087	89 45 08	 mov	 DWORD PTR __Ptr$[ebp], eax
  0008a	83 c4 04	 add	 esp, 4

; 1462 : 			_CATCH_END
; 1463 : 		_CATCH_END

  0008d	b8 00 00 00 00	 mov	 eax, $L232830
  00092	c3		 ret	 0
$L232830:
  00093	8b 5d e8	 mov	 ebx, DWORD PTR __Newres$[ebp]
  00096	8b 75 ec	 mov	 esi, DWORD PTR _this$[ebp]
  00099	8b 55 08	 mov	 edx, DWORD PTR __Ptr$[ebp]
$L222782:

; 1464 : 
; 1465 : 		if (0 < _Oldlen)

  0009c	8b 4d 0c	 mov	 ecx, DWORD PTR __Oldlen$[ebp]
  0009f	85 c9		 test	 ecx, ecx
  000a1	76 24		 jbe	 SHORT $L232754

; 1466 : 			_Traits::copy(_Ptr, _Myptr(), _Oldlen);	// copy existing elements

  000a3	83 7e 18 10	 cmp	 DWORD PTR [esi+24], 16	; 00000010H
  000a7	72 05		 jb	 SHORT $L232751
  000a9	8b 76 04	 mov	 esi, DWORD PTR [esi+4]
  000ac	eb 03		 jmp	 SHORT $L232752
$L232751:
  000ae	83 c6 04	 add	 esi, 4
$L232752:
  000b1	8b c1		 mov	 eax, ecx
  000b3	c1 e9 02	 shr	 ecx, 2
  000b6	8b fa		 mov	 edi, edx
  000b8	f3 a5		 rep movsd
  000ba	8b c8		 mov	 ecx, eax
  000bc	83 e1 03	 and	 ecx, 3
  000bf	f3 a4		 rep movsb
  000c1	8b 75 ec	 mov	 esi, DWORD PTR _this$[ebp]
  000c4	8b 4d 0c	 mov	 ecx, DWORD PTR __Oldlen$[ebp]
$L232754:

; 1467 : 		_Tidy(true);

  000c7	83 7e 18 10	 cmp	 DWORD PTR [esi+24], 16	; 00000010H
  000cb	72 12		 jb	 SHORT $L232790
  000cd	8b 4e 04	 mov	 ecx, DWORD PTR [esi+4]
  000d0	51		 push	 ecx
  000d1	e8 00 00 00 00	 call	 ??3@YAXPAX@Z		; operator delete
  000d6	8b 55 08	 mov	 edx, DWORD PTR __Ptr$[ebp]
  000d9	8b 4d 0c	 mov	 ecx, DWORD PTR __Oldlen$[ebp]
  000dc	83 c4 04	 add	 esp, 4
$L232790:

; 1468 : 		_Bx._Ptr = _Ptr;
; 1469 : 		_Myres = _Newres;
; 1470 : 		_Eos(_Oldlen);

  000df	83 fb 10	 cmp	 ebx, 16			; 00000010H
  000e2	8d 46 04	 lea	 eax, DWORD PTR [esi+4]
  000e5	c6 00 00	 mov	 BYTE PTR [eax], 0
  000e8	89 10		 mov	 DWORD PTR [eax], edx
  000ea	89 5e 18	 mov	 DWORD PTR [esi+24], ebx
  000ed	89 4e 14	 mov	 DWORD PTR [esi+20], ecx
  000f0	72 02		 jb	 SHORT $L232825
  000f2	8b c2		 mov	 eax, edx
$L232825:

; 1471 : 		}

  000f4	5f		 pop	 edi
  000f5	c6 04 08 00	 mov	 BYTE PTR [eax+ecx], 0
  000f9	8b 4d f4	 mov	 ecx, DWORD PTR __$EHRec$[ebp+4]
  000fc	5e		 pop	 esi
  000fd	64 89 0d 00 00
	00 00		 mov	 DWORD PTR fs:__except_list, ecx
  00104	5b		 pop	 ebx
  00105	8b e5		 mov	 esp, ebp
  00107	5d		 pop	 ebp
  00108	c2 08 00	 ret	 8
$L232637:

; 1459 : 			_CATCH_ALL
; 1460 : 			_Tidy(true);	// failed again, discard storage and reraise

  0010b	8b 75 ec	 mov	 esi, DWORD PTR _this$[ebp]
  0010e	83 7e 18 10	 cmp	 DWORD PTR [esi+24], 16	; 00000010H
  00112	72 0c		 jb	 SHORT $L232729
  00114	8b 56 04	 mov	 edx, DWORD PTR [esi+4]
  00117	52		 push	 edx
  00118	e8 00 00 00 00	 call	 ??3@YAXPAX@Z		; operator delete
  0011d	83 c4 04	 add	 esp, 4
$L232729:

; 1461 : 			_RERAISE;

  00120	6a 00		 push	 0
  00122	c7 46 18 0f 00
	00 00		 mov	 DWORD PTR [esi+24], 15	; 0000000fH
  00129	c7 46 14 00 00
	00 00		 mov	 DWORD PTR [esi+20], 0
  00130	6a 00		 push	 0
  00132	c6 46 04 00	 mov	 BYTE PTR [esi+4], 0
  00136	e8 00 00 00 00	 call	 __CxxThrowException@8
$L232840:
$L232834:
  0013b	cc		 int	 3
_TEXT	ENDS
;	COMDAT text$x
text$x	SEGMENT
__ehhandler$?_Copy@?$basic_string@DU?$char_traits@D@std@@V?$allocator@D@2@@std@@IAEXII@Z:
  00000	b8 00 00 00 00	 mov	 eax, OFFSET FLAT:$T232829
  00005	e9 00 00 00 00	 jmp	 ___CxxFrameHandler
text$x	ENDS
?_Copy@?$basic_string@DU?$char_traits@D@std@@V?$allocator@D@2@@std@@IAEXII@Z ENDP ; std::basic_string<char,std::char_traits<char>,std::allocator<char> >::_Copy
PUBLIC	??A?$vector@U_RANGDA_POS@@V?$allocator@U_RANGDA_POS@@@std@@@std@@QAEAAU_RANGDA_POS@@I@Z ; std::vector<_RANGDA_POS,std::allocator<_RANGDA_POS> >::operator[]
; Function compile flags: /Ogty
; File c:\program files\microsoft visual studio .net 2003\vc7\include\vector
;	COMDAT ??A?$vector@U_RANGDA_POS@@V?$allocator@U_RANGDA_POS@@@std@@@std@@QAEAAU_RANGDA_POS@@I@Z
_TEXT	SEGMENT
__Pos$ = 8						; size = 4
??A?$vector@U_RANGDA_POS@@V?$allocator@U_RANGDA_POS@@@std@@@std@@QAEAAU_RANGDA_POS@@I@Z PROC NEAR ; std::vector<_RANGDA_POS,std::allocator<_RANGDA_POS> >::operator[], COMDAT
; _this$ = ecx

; 555  : 		return (*(begin() + _Pos));

  00000	8b 44 24 04	 mov	 eax, DWORD PTR __Pos$[esp-4]
  00004	8b 51 04	 mov	 edx, DWORD PTR [ecx+4]
  00007	c1 e0 04	 shl	 eax, 4
  0000a	03 c2		 add	 eax, edx

; 556  : 		}

  0000c	c2 04 00	 ret	 4
??A?$vector@U_RANGDA_POS@@V?$allocator@U_RANGDA_POS@@@std@@@std@@QAEAAU_RANGDA_POS@@I@Z ENDP ; std::vector<_RANGDA_POS,std::allocator<_RANGDA_POS> >::operator[]
_TEXT	ENDS
PUBLIC	?_Tidy@?$vector@PAVCRangda@@V?$allocator@PAVCRangda@@@std@@@std@@IAEXXZ ; std::vector<CRangda *,std::allocator<CRangda *> >::_Tidy
; Function compile flags: /Ogty
;	COMDAT ?_Tidy@?$vector@PAVCRangda@@V?$allocator@PAVCRangda@@@std@@@std@@IAEXXZ
_TEXT	SEGMENT
?_Tidy@?$vector@PAVCRangda@@V?$allocator@PAVCRangda@@@std@@@std@@IAEXXZ PROC NEAR ; std::vector<CRangda *,std::allocator<CRangda *> >::_Tidy, COMDAT
; _this$ = ecx

; 791  : 		{	// free all storage

  00000	56		 push	 esi
  00001	8b f1		 mov	 esi, ecx

; 792  : 		if (_Myfirst != 0)

  00003	8b 46 04	 mov	 eax, DWORD PTR [esi+4]
  00006	85 c0		 test	 eax, eax
  00008	74 09		 je	 SHORT $L232885

; 793  : 			{	// something to free, destroy and deallocate it
; 794  : 			_Destroy(_Myfirst, _Mylast);
; 795  : 			this->_Alval.deallocate(_Myfirst, _Myend - _Myfirst);

  0000a	50		 push	 eax
  0000b	e8 00 00 00 00	 call	 ??3@YAXPAX@Z		; operator delete
  00010	83 c4 04	 add	 esp, 4
$L232885:

; 796  : 			}
; 797  : 		_Myfirst = 0, _Mylast = 0, _Myend = 0;

  00013	c7 46 04 00 00
	00 00		 mov	 DWORD PTR [esi+4], 0
  0001a	c7 46 08 00 00
	00 00		 mov	 DWORD PTR [esi+8], 0
  00021	c7 46 0c 00 00
	00 00		 mov	 DWORD PTR [esi+12], 0
  00028	5e		 pop	 esi

; 798  : 		}

  00029	c3		 ret	 0
?_Tidy@?$vector@PAVCRangda@@V?$allocator@PAVCRangda@@@std@@@std@@IAEXXZ ENDP ; std::vector<CRangda *,std::allocator<CRangda *> >::_Tidy
_TEXT	ENDS
PUBLIC	?_Ufill@?$vector@PAVCRangda@@V?$allocator@PAVCRangda@@@std@@@std@@IAEPAPAVCRangda@@PAPAV3@IABQAV3@@Z ; std::vector<CRangda *,std::allocator<CRangda *> >::_Ufill
; Function compile flags: /Ogty
;	COMDAT ?_Ufill@?$vector@PAVCRangda@@V?$allocator@PAVCRangda@@@std@@@std@@IAEPAPAVCRangda@@PAPAV3@IABQAV3@@Z
_TEXT	SEGMENT
__Ptr$ = 8						; size = 4
__Count$ = 12						; size = 4
__Val$ = 16						; size = 4
?_Ufill@?$vector@PAVCRangda@@V?$allocator@PAVCRangda@@@std@@@std@@IAEPAPAVCRangda@@PAPAV3@IABQAV3@@Z PROC NEAR ; std::vector<CRangda *,std::allocator<CRangda *> >::_Ufill, COMDAT
; _this$ = ecx

; 877  : 		{	// copy initializing _Count * _Val, using allocator

  00000	56		 push	 esi

; 878  : 		_Uninitialized_fill_n(_Ptr, _Count, _Val, this->_Alval);

  00001	8b 74 24 0c	 mov	 esi, DWORD PTR __Count$[esp]
  00005	85 f6		 test	 esi, esi
  00007	57		 push	 edi
  00008	8b 7c 24 0c	 mov	 edi, DWORD PTR __Ptr$[esp+4]
  0000c	8b c7		 mov	 eax, edi
  0000e	76 12		 jbe	 SHORT $L232928
  00010	8b 54 24 14	 mov	 edx, DWORD PTR __Val$[esp+4]
  00014	8b ce		 mov	 ecx, esi
  00016	53		 push	 ebx
$L232922:
  00017	8b 1a		 mov	 ebx, DWORD PTR [edx]
  00019	89 18		 mov	 DWORD PTR [eax], ebx
  0001b	83 c0 04	 add	 eax, 4
  0001e	49		 dec	 ecx
  0001f	75 f6		 jne	 SHORT $L232922
  00021	5b		 pop	 ebx
$L232928:

; 879  : 		return (_Ptr + _Count);

  00022	8d 04 b7	 lea	 eax, DWORD PTR [edi+esi*4]
  00025	5f		 pop	 edi
  00026	5e		 pop	 esi

; 880  : 		}

  00027	c2 0c 00	 ret	 12			; 0000000cH
?_Ufill@?$vector@PAVCRangda@@V?$allocator@PAVCRangda@@@std@@@std@@IAEPAPAVCRangda@@PAPAV3@IABQAV3@@Z ENDP ; std::vector<CRangda *,std::allocator<CRangda *> >::_Ufill
_TEXT	ENDS
PUBLIC	??$_Uninitialized_fill_n@PAU_RANGDA_POS@@IU1@V?$allocator@U_RANGDA_POS@@@std@@@std@@YAXPAU_RANGDA_POS@@IABU1@AAV?$allocator@U_RANGDA_POS@@@0@@Z ; std::_Uninitialized_fill_n<_RANGDA_POS *,unsigned int,_RANGDA_POS,std::allocator<_RANGDA_POS> >
; Function compile flags: /Ogty
; File c:\program files\microsoft visual studio .net 2003\vc7\include\memory
;	COMDAT ??$_Uninitialized_fill_n@PAU_RANGDA_POS@@IU1@V?$allocator@U_RANGDA_POS@@@std@@@std@@YAXPAU_RANGDA_POS@@IABU1@AAV?$allocator@U_RANGDA_POS@@@0@@Z
_TEXT	SEGMENT
__Cat$232936 = -4					; size = 1
__First$ = 8						; size = 4
__Count$ = 12						; size = 4
__Val$ = 16						; size = 4
__Al$ = 20						; size = 4
??$_Uninitialized_fill_n@PAU_RANGDA_POS@@IU1@V?$allocator@U_RANGDA_POS@@@std@@@std@@YAXPAU_RANGDA_POS@@IABU1@AAV?$allocator@U_RANGDA_POS@@@0@@Z PROC NEAR ; std::_Uninitialized_fill_n<_RANGDA_POS *,unsigned int,_RANGDA_POS,std::allocator<_RANGDA_POS> >, COMDAT

; 255  : 	{	// copy _Count *_Val to raw _First, using _Al

  00000	51		 push	 ecx

; 256  : 	_Uninit_fill_n(_First, _Count, _Val, _Al,
; 257  : 		_Ptr_cat(_First, _First));

  00001	8b 04 24	 mov	 eax, DWORD PTR __Cat$232936[esp+4]
  00004	8b 4c 24 14	 mov	 ecx, DWORD PTR __Al$[esp]
  00008	8b 54 24 10	 mov	 edx, DWORD PTR __Val$[esp]
  0000c	50		 push	 eax
  0000d	8b 44 24 10	 mov	 eax, DWORD PTR __Count$[esp+4]
  00011	51		 push	 ecx
  00012	8b 4c 24 10	 mov	 ecx, DWORD PTR __First$[esp+8]
  00016	52		 push	 edx
  00017	50		 push	 eax
  00018	51		 push	 ecx
  00019	e8 00 00 00 00	 call	 ??$_Uninit_fill_n@PAU_RANGDA_POS@@IU1@V?$allocator@U_RANGDA_POS@@@std@@@std@@YAXPAU_RANGDA_POS@@IABU1@AAV?$allocator@U_RANGDA_POS@@@0@U_Nonscalar_ptr_iterator_tag@0@@Z ; std::_Uninit_fill_n<_RANGDA_POS *,unsigned int,_RANGDA_POS,std::allocator<_RANGDA_POS> >

; 258  : 	}

  0001e	83 c4 18	 add	 esp, 24			; 00000018H
  00021	c3		 ret	 0
??$_Uninitialized_fill_n@PAU_RANGDA_POS@@IU1@V?$allocator@U_RANGDA_POS@@@std@@@std@@YAXPAU_RANGDA_POS@@IABU1@AAV?$allocator@U_RANGDA_POS@@@0@@Z ENDP ; std::_Uninitialized_fill_n<_RANGDA_POS *,unsigned int,_RANGDA_POS,std::allocator<_RANGDA_POS> >
_TEXT	ENDS
PUBLIC	??$_Destroy_range@U_RANGDA_POS@@V?$allocator@U_RANGDA_POS@@@std@@@std@@YAXPAU_RANGDA_POS@@0AAV?$allocator@U_RANGDA_POS@@@0@@Z ; std::_Destroy_range<_RANGDA_POS,std::allocator<_RANGDA_POS> >
; Function compile flags: /Ogty
; File c:\program files\microsoft visual studio .net 2003\vc7\include\xmemory
;	COMDAT ??$_Destroy_range@U_RANGDA_POS@@V?$allocator@U_RANGDA_POS@@@std@@@std@@YAXPAU_RANGDA_POS@@0AAV?$allocator@U_RANGDA_POS@@@0@@Z
_TEXT	SEGMENT
__First$ = 8						; size = 4
__Last$ = 12						; size = 4
__Al$ = 16						; size = 4
??$_Destroy_range@U_RANGDA_POS@@V?$allocator@U_RANGDA_POS@@@std@@@std@@YAXPAU_RANGDA_POS@@0AAV?$allocator@U_RANGDA_POS@@@0@@Z PROC NEAR ; std::_Destroy_range<_RANGDA_POS,std::allocator<_RANGDA_POS> >, COMDAT

; 217  : 	_Destroy_range(_First, _Last, _Al, _Ptr_cat(_First, _Last));
; 218  : 	}

  00000	c3		 ret	 0
??$_Destroy_range@U_RANGDA_POS@@V?$allocator@U_RANGDA_POS@@@std@@@std@@YAXPAU_RANGDA_POS@@0AAV?$allocator@U_RANGDA_POS@@@0@@Z ENDP ; std::_Destroy_range<_RANGDA_POS,std::allocator<_RANGDA_POS> >
_TEXT	ENDS
PUBLIC	??$_Ucopy@PAU_RANGDA_POS@@@?$vector@U_RANGDA_POS@@V?$allocator@U_RANGDA_POS@@@std@@@std@@IAEPAU_RANGDA_POS@@PAU2@00@Z ; std::vector<_RANGDA_POS,std::allocator<_RANGDA_POS> >::_Ucopy<_RANGDA_POS *>
; Function compile flags: /Ogty
; File c:\program files\microsoft visual studio .net 2003\vc7\include\vector
;	COMDAT ??$_Ucopy@PAU_RANGDA_POS@@@?$vector@U_RANGDA_POS@@V?$allocator@U_RANGDA_POS@@@std@@@std@@IAEPAU_RANGDA_POS@@PAU2@00@Z
_TEXT	SEGMENT
__First$ = 8						; size = 4
__Last$ = 12						; size = 4
__Cat$232958 = 16					; size = 1
__Ptr$ = 16						; size = 4
??$_Ucopy@PAU_RANGDA_POS@@@?$vector@U_RANGDA_POS@@V?$allocator@U_RANGDA_POS@@@std@@@std@@IAEPAU_RANGDA_POS@@PAU2@00@Z PROC NEAR ; std::vector<_RANGDA_POS,std::allocator<_RANGDA_POS> >::_Ucopy<_RANGDA_POS *>, COMDAT
; _this$ = ecx

; 802  : 		{	// copy initializing [_First, _Last), using allocator
; 803  : 		return (_Uninitialized_copy(_First, _Last,
; 804  : 			_Ptr, this->_Alval));

  00000	8b 44 24 0c	 mov	 eax, DWORD PTR __Cat$232958[esp-4]
  00004	8b 54 24 08	 mov	 edx, DWORD PTR __Last$[esp-4]
  00008	50		 push	 eax
  00009	8b 44 24 08	 mov	 eax, DWORD PTR __First$[esp]
  0000d	51		 push	 ecx
  0000e	8b 4c 24 14	 mov	 ecx, DWORD PTR __Ptr$[esp+4]
  00012	51		 push	 ecx
  00013	52		 push	 edx
  00014	50		 push	 eax
  00015	e8 00 00 00 00	 call	 ??$_Uninit_copy@PAU_RANGDA_POS@@PAU1@V?$allocator@U_RANGDA_POS@@@std@@@std@@YAPAU_RANGDA_POS@@PAU1@00AAV?$allocator@U_RANGDA_POS@@@0@U_Nonscalar_ptr_iterator_tag@0@@Z ; std::_Uninit_copy<_RANGDA_POS *,_RANGDA_POS *,std::allocator<_RANGDA_POS> >
  0001a	83 c4 14	 add	 esp, 20			; 00000014H

; 805  : 		}

  0001d	c2 0c 00	 ret	 12			; 0000000cH
??$_Ucopy@PAU_RANGDA_POS@@@?$vector@U_RANGDA_POS@@V?$allocator@U_RANGDA_POS@@@std@@@std@@IAEPAU_RANGDA_POS@@PAU2@00@Z ENDP ; std::vector<_RANGDA_POS,std::allocator<_RANGDA_POS> >::_Ucopy<_RANGDA_POS *>
_TEXT	ENDS
PUBLIC	??1?$basic_string@DU?$char_traits@D@std@@V?$allocator@D@2@@std@@QAE@XZ ; std::basic_string<char,std::char_traits<char>,std::allocator<char> >::~basic_string<char,std::char_traits<char>,std::allocator<char> >
; Function compile flags: /Ogty
; File c:\program files\microsoft visual studio .net 2003\vc7\include\xstring
;	COMDAT ??1?$basic_string@DU?$char_traits@D@std@@V?$allocator@D@2@@std@@QAE@XZ
_TEXT	SEGMENT
??1?$basic_string@DU?$char_traits@D@std@@V?$allocator@D@2@@std@@QAE@XZ PROC NEAR ; std::basic_string<char,std::char_traits<char>,std::allocator<char> >::~basic_string<char,std::char_traits<char>,std::allocator<char> >, COMDAT
; _this$ = ecx

; 456  : 		{	// destroy the string

  00000	56		 push	 esi
  00001	8b f1		 mov	 esi, ecx

; 457  : 		_Tidy(true);

  00003	83 7e 18 10	 cmp	 DWORD PTR [esi+24], 16	; 00000010H
  00007	72 0c		 jb	 SHORT $L232998
  00009	8b 46 04	 mov	 eax, DWORD PTR [esi+4]
  0000c	50		 push	 eax
  0000d	e8 00 00 00 00	 call	 ??3@YAXPAX@Z		; operator delete
  00012	83 c4 04	 add	 esp, 4
$L232998:
  00015	33 c0		 xor	 eax, eax
  00017	c7 46 18 0f 00
	00 00		 mov	 DWORD PTR [esi+24], 15	; 0000000fH
  0001e	89 46 14	 mov	 DWORD PTR [esi+20], eax
  00021	88 46 04	 mov	 BYTE PTR [esi+4], al
  00024	5e		 pop	 esi

; 458  : 		}

  00025	c3		 ret	 0
??1?$basic_string@DU?$char_traits@D@std@@V?$allocator@D@2@@std@@QAE@XZ ENDP ; std::basic_string<char,std::char_traits<char>,std::allocator<char> >::~basic_string<char,std::char_traits<char>,std::allocator<char> >
_TEXT	ENDS
PUBLIC	?_Grow@?$basic_string@DU?$char_traits@D@std@@V?$allocator@D@2@@std@@IAE_NI_N@Z ; std::basic_string<char,std::char_traits<char>,std::allocator<char> >::_Grow
EXTRN	?_Xlen@_String_base@std@@QBEXXZ:NEAR		; std::_String_base::_Xlen
; Function compile flags: /Ogty
;	COMDAT ?_Grow@?$basic_string@DU?$char_traits@D@std@@V?$allocator@D@2@@std@@IAE_NI_N@Z
_TEXT	SEGMENT
__Newsize$ = 8						; size = 4
__Trim$ = 12						; size = 1
?_Grow@?$basic_string@DU?$char_traits@D@std@@V?$allocator@D@2@@std@@IAE_NI_N@Z PROC NEAR ; std::basic_string<char,std::char_traits<char>,std::allocator<char> >::_Grow, COMDAT
; _this$ = ecx

; 1480 : 		{	// ensure buffer is big enough, trim to size if _Trim is true

  00000	55		 push	 ebp
  00001	56		 push	 esi

; 1481 : 		if (max_size() < _Newsize)

  00002	8b 74 24 0c	 mov	 esi, DWORD PTR __Newsize$[esp+4]
  00006	83 fe fe	 cmp	 esi, -2			; fffffffeH
  00009	8b e9		 mov	 ebp, ecx
  0000b	76 05		 jbe	 SHORT $L221380

; 1482 : 			_String_base::_Xlen();	// result too long

  0000d	e8 00 00 00 00	 call	 ?_Xlen@_String_base@std@@QBEXXZ ; std::_String_base::_Xlen
$L221380:

; 1483 : 		if (_Myres < _Newsize)

  00012	8b 45 18	 mov	 eax, DWORD PTR [ebp+24]
  00015	3b c6		 cmp	 eax, esi
  00017	73 19		 jae	 SHORT $L221381

; 1484 : 			_Copy(_Newsize, _Mysize);	// reallocate to grow

  00019	8b 45 14	 mov	 eax, DWORD PTR [ebp+20]
  0001c	50		 push	 eax
  0001d	56		 push	 esi
  0001e	8b cd		 mov	 ecx, ebp
  00020	e8 00 00 00 00	 call	 ?_Copy@?$basic_string@DU?$char_traits@D@std@@V?$allocator@D@2@@std@@IAEXII@Z ; std::basic_string<char,std::char_traits<char>,std::allocator<char> >::_Copy

; 1490 : 		return (0 < _Newsize);	// return true only if more work to do

  00025	33 c0		 xor	 eax, eax
  00027	3b c6		 cmp	 eax, esi
  00029	1b c0		 sbb	 eax, eax
  0002b	5e		 pop	 esi
  0002c	f7 d8		 neg	 eax
  0002e	5d		 pop	 ebp

; 1491 : 		}

  0002f	c2 08 00	 ret	 8
$L221381:

; 1485 : 		else if (_Trim && _Newsize < _BUF_SIZE)

  00032	8a 4c 24 10	 mov	 cl, BYTE PTR __Trim$[esp+4]
  00036	84 c9		 test	 cl, cl
  00038	74 5c		 je	 SHORT $L221383
  0003a	83 fe 10	 cmp	 esi, 16			; 00000010H
  0003d	73 57		 jae	 SHORT $L221383
  0003f	53		 push	 ebx

; 1486 : 			_Tidy(true,	// copy and deallocate if trimming to small string
; 1487 : 				_Newsize < _Mysize ? _Newsize : _Mysize);

  00040	8b 5d 14	 mov	 ebx, DWORD PTR [ebp+20]
  00043	3b f3		 cmp	 esi, ebx
  00045	73 02		 jae	 SHORT $L233019
  00047	8b de		 mov	 ebx, esi
$L233019:
  00049	83 f8 10	 cmp	 eax, 16			; 00000010H
  0004c	72 2b		 jb	 SHORT $L233073
  0004e	85 db		 test	 ebx, ebx
  00050	8b 45 04	 mov	 eax, DWORD PTR [ebp+4]
  00053	57		 push	 edi
  00054	8d 7d 04	 lea	 edi, DWORD PTR [ebp+4]
  00057	76 16		 jbe	 SHORT $L233071
  00059	8b cb		 mov	 ecx, ebx
  0005b	8b d1		 mov	 edx, ecx
  0005d	c1 e9 02	 shr	 ecx, 2
  00060	8b f0		 mov	 esi, eax
  00062	f3 a5		 rep movsd
  00064	8b ca		 mov	 ecx, edx
  00066	83 e1 03	 and	 ecx, 3
  00069	f3 a4		 rep movsb
  0006b	8b 74 24 14	 mov	 esi, DWORD PTR __Newsize$[esp+12]
$L233071:
  0006f	50		 push	 eax
  00070	e8 00 00 00 00	 call	 ??3@YAXPAX@Z		; operator delete
  00075	83 c4 04	 add	 esp, 4
  00078	5f		 pop	 edi
$L233073:
  00079	89 5d 14	 mov	 DWORD PTR [ebp+20], ebx

; 1490 : 		return (0 < _Newsize);	// return true only if more work to do

  0007c	33 c0		 xor	 eax, eax
  0007e	c7 45 18 0f 00
	00 00		 mov	 DWORD PTR [ebp+24], 15	; 0000000fH
  00085	c6 44 2b 04 00	 mov	 BYTE PTR [ebx+ebp+4], 0
  0008a	3b c6		 cmp	 eax, esi
  0008c	5b		 pop	 ebx
  0008d	1b c0		 sbb	 eax, eax
  0008f	5e		 pop	 esi
  00090	f7 d8		 neg	 eax
  00092	5d		 pop	 ebp

; 1491 : 		}

  00093	c2 08 00	 ret	 8
$L221383:

; 1488 : 		else if (_Newsize == 0)

  00096	85 f6		 test	 esi, esi
  00098	75 23		 jne	 SHORT $L233110

; 1489 : 			_Eos(0);	// new size is zero, just null terminate

  0009a	83 f8 10	 cmp	 eax, 16			; 00000010H
  0009d	89 75 14	 mov	 DWORD PTR [ebp+20], esi
  000a0	72 14		 jb	 SHORT $L233108
  000a2	8b 6d 04	 mov	 ebp, DWORD PTR [ebp+4]

; 1490 : 		return (0 < _Newsize);	// return true only if more work to do

  000a5	33 c0		 xor	 eax, eax
  000a7	3b c6		 cmp	 eax, esi
  000a9	1b c0		 sbb	 eax, eax
  000ab	5e		 pop	 esi
  000ac	c6 45 00 00	 mov	 BYTE PTR [ebp], 0
  000b0	f7 d8		 neg	 eax
  000b2	5d		 pop	 ebp

; 1491 : 		}

  000b3	c2 08 00	 ret	 8

; 1489 : 			_Eos(0);	// new size is zero, just null terminate

$L233108:
  000b6	83 c5 04	 add	 ebp, 4
  000b9	c6 45 00 00	 mov	 BYTE PTR [ebp], 0
$L233110:

; 1490 : 		return (0 < _Newsize);	// return true only if more work to do

  000bd	33 c0		 xor	 eax, eax
  000bf	3b c6		 cmp	 eax, esi
  000c1	1b c0		 sbb	 eax, eax
  000c3	5e		 pop	 esi
  000c4	f7 d8		 neg	 eax
  000c6	5d		 pop	 ebp

; 1491 : 		}

  000c7	c2 08 00	 ret	 8
?_Grow@?$basic_string@DU?$char_traits@D@std@@V?$allocator@D@2@@std@@IAE_NI_N@Z ENDP ; std::basic_string<char,std::char_traits<char>,std::allocator<char> >::_Grow
_TEXT	ENDS
PUBLIC	?GetRandomPos@CRangda@@AAE?AU_RANGDA_POS@@XZ	; CRangda::GetRandomPos
EXTRN	?xRandom@@YAKKK@Z:NEAR				; xRandom
; Function compile flags: /Ogty
; File c:\documents and settings\test\mes documents\source\virtuos_v17\build\program\worldserver\rangda.cpp
;	COMDAT ?GetRandomPos@CRangda@@AAE?AU_RANGDA_POS@@XZ
_TEXT	SEGMENT
___$ReturnUdt$ = 8					; size = 4
?GetRandomPos@CRangda@@AAE?AU_RANGDA_POS@@XZ PROC NEAR	; CRangda::GetRandomPos, COMDAT
; _this$ = ecx

; 47   : {	//      

  00000	56		 push	 esi
  00001	8b f1		 mov	 esi, ecx

; 48   : 	ASSERT( !m_vvPos.empty() );
; 49   : 	
; 50   : 	//     
; 51   : 	//     
; 52   : 	if( m_vvPos.size() == 1 )

  00003	8b 4e 18	 mov	 ecx, DWORD PTR [esi+24]
  00006	85 c9		 test	 ecx, ecx
  00008	74 36		 je	 SHORT $L229123
  0000a	8b 46 1c	 mov	 eax, DWORD PTR [esi+28]
  0000d	2b c1		 sub	 eax, ecx
  0000f	c1 f8 04	 sar	 eax, 4
  00012	83 f8 01	 cmp	 eax, 1
  00015	75 29		 jne	 SHORT $L229123

; 53   : 		return m_vvPos[0];

  00017	8b 44 24 08	 mov	 eax, DWORD PTR ___$ReturnUdt$[esp]
  0001b	8b f1		 mov	 esi, ecx
  0001d	8b 16		 mov	 edx, DWORD PTR [esi]
  0001f	8b c8		 mov	 ecx, eax
  00021	89 11		 mov	 DWORD PTR [ecx], edx
  00023	8b 56 04	 mov	 edx, DWORD PTR [esi+4]
  00026	89 51 04	 mov	 DWORD PTR [ecx+4], edx
  00029	8b 56 08	 mov	 edx, DWORD PTR [esi+8]
  0002c	89 51 08	 mov	 DWORD PTR [ecx+8], edx
  0002f	8b 56 0c	 mov	 edx, DWORD PTR [esi+12]
  00032	89 51 0c	 mov	 DWORD PTR [ecx+12], edx
  00035	5e		 pop	 esi

; 62   : }

  00036	c2 04 00	 ret	 4
  00039	8d a4 24 00 00
	00 00		 npad	 7
$L229123:

; 54   : 	
; 55   : 	int nPos;
; 56   : 	do	{	//      
; 57   : 		nPos	= xRandom( 0, m_vvPos.size() );

  00040	8b 4e 18	 mov	 ecx, DWORD PTR [esi+24]
  00043	85 c9		 test	 ecx, ecx
  00045	75 04		 jne	 SHORT $L233185
  00047	33 c0		 xor	 eax, eax
  00049	eb 08		 jmp	 SHORT $L233186
$L233185:
  0004b	8b 46 1c	 mov	 eax, DWORD PTR [esi+28]
  0004e	2b c1		 sub	 eax, ecx
  00050	c1 f8 04	 sar	 eax, 4
$L233186:
  00053	50		 push	 eax
  00054	6a 00		 push	 0
  00056	e8 00 00 00 00	 call	 ?xRandom@@YAKKK@Z	; xRandom

; 58   : 	}	while( nPos == m_nOldPos );

  0005b	8b 4e 30	 mov	 ecx, DWORD PTR [esi+48]
  0005e	83 c4 08	 add	 esp, 8
  00061	3b c1		 cmp	 eax, ecx
  00063	74 db		 je	 SHORT $L229123

; 59   : 
; 60   : 	m_nOldPos	= nPos;
; 61   : 	return m_vvPos[nPos];

  00065	8b 4e 18	 mov	 ecx, DWORD PTR [esi+24]
  00068	89 46 30	 mov	 DWORD PTR [esi+48], eax
  0006b	c1 e0 04	 shl	 eax, 4
  0006e	8b 34 08	 mov	 esi, DWORD PTR [eax+ecx]
  00071	03 c1		 add	 eax, ecx
  00073	8b 4c 24 08	 mov	 ecx, DWORD PTR ___$ReturnUdt$[esp]
  00077	8b d1		 mov	 edx, ecx
  00079	89 32		 mov	 DWORD PTR [edx], esi
  0007b	8b 70 04	 mov	 esi, DWORD PTR [eax+4]
  0007e	89 72 04	 mov	 DWORD PTR [edx+4], esi
  00081	8b 70 08	 mov	 esi, DWORD PTR [eax+8]
  00084	89 72 08	 mov	 DWORD PTR [edx+8], esi
  00087	8b 40 0c	 mov	 eax, DWORD PTR [eax+12]
  0008a	89 42 0c	 mov	 DWORD PTR [edx+12], eax
  0008d	8b c1		 mov	 eax, ecx
  0008f	5e		 pop	 esi

; 62   : }

  00090	c2 04 00	 ret	 4
?GetRandomPos@CRangda@@AAE?AU_RANGDA_POS@@XZ ENDP	; CRangda::GetRandomPos
_TEXT	ENDS
PUBLIC	?CreateMonster@CRangda@@AAEXXZ			; CRangda::CreateMonster
PUBLIC	??_C@_0EG@BHMGAOAH@CRangda?4CreateMonster?3?5monster?5?$DN@ ; `string'
EXTRN	?AddObj@CWorld@@QAEHPAVCObj@@HH@Z:NEAR		; CWorld::AddObj
EXTRN	?UpdateLocalMatrix@CObj@@QAEXXZ:NEAR		; CObj::UpdateLocalMatrix
EXTRN	?SetPos@CObj@@QAEXABUD3DXVECTOR3@@@Z:NEAR	; CObj::SetPos
EXTRN	?CreateObj@@YAPAVCObj@@PAUIDirect3DDevice9@@KKH@Z:NEAR ; CreateObj
EXTRN	?OutputDebugStringA@election@@YAXPBDZZ:NEAR	; election::OutputDebugStringA
EXTRN	?g_WorldMng@@3VCWorldMng@@A:BYTE		; g_WorldMng
EXTRN	__fltused:NEAR
EXTRN	?GetWorld@CWorldMng@@QAEPAVCWorld@@K@Z:NEAR	; CWorldMng::GetWorld
;	COMDAT ??_C@_0EG@BHMGAOAH@CRangda?4CreateMonster?3?5monster?5?$DN@
; File c:\documents and settings\test\mes documents\source\virtuos_v17\build\program\_common\obj.h
CONST	SEGMENT
??_C@_0EG@BHMGAOAH@CRangda?4CreateMonster?3?5monster?5?$DN@ DB 'CRangda.C'
	DB	'reateMonster: monster = %d, x = %0.2f, y = %0.2f, z = %0.2f', 0aH
	DB	00H						; `string'
; Function compile flags: /Ogty
; File c:\documents and settings\test\mes documents\source\virtuos_v17\build\program\worldserver\rangda.cpp
CONST	ENDS
;	COMDAT ?CreateMonster@CRangda@@AAEXXZ
_TEXT	SEGMENT
$T233249 = -52						; size = 12
$T233250 = -40						; size = 12
$T233251 = -28						; size = 12
_pos$ = -16						; size = 16
?CreateMonster@CRangda@@AAEXXZ PROC NEAR		; CRangda::CreateMonster, COMDAT
; _this$ = ecx

; 137  : {	//  

  00000	83 ec 34	 sub	 esp, 52			; 00000034H
  00003	53		 push	 ebx
  00004	57		 push	 edi

; 138  : 	RANGDA_POS pos	= GetRandomPos();

  00005	8d 44 24 2c	 lea	 eax, DWORD PTR _pos$[esp+60]
  00009	50		 push	 eax
  0000a	8b f9		 mov	 edi, ecx
  0000c	e8 00 00 00 00	 call	 ?GetRandomPos@CRangda@@AAE?AU_RANGDA_POS@@XZ ; CRangda::GetRandomPos

; 139  : 	CWorld* pWorld	= g_WorldMng.GetWorld( pos.dwWorldId );

  00011	8b 4c 24 2c	 mov	 ecx, DWORD PTR _pos$[esp+60]
  00015	51		 push	 ecx
  00016	b9 00 00 00 00	 mov	 ecx, OFFSET FLAT:?g_WorldMng@@3VCWorldMng@@A
  0001b	e8 00 00 00 00	 call	 ?GetWorld@CWorldMng@@QAEPAVCWorld@@K@Z ; CWorldMng::GetWorld
  00020	8b d8		 mov	 ebx, eax

; 140  : 	if( !pWorld )

  00022	85 db		 test	 ebx, ebx
  00024	0f 84 e6 00 00
	00		 je	 $L229183

; 141  : 		return;
; 142  : 	CMover* pMonster	= static_cast<CMover*>( ::CreateObj( D3DDEVICE, OT_MOVER, m_dwMonster ) );

  0002a	8b 57 04	 mov	 edx, DWORD PTR [edi+4]
  0002d	56		 push	 esi
  0002e	6a 01		 push	 1
  00030	52		 push	 edx
  00031	6a 05		 push	 5
  00033	6a 00		 push	 0
  00035	e8 00 00 00 00	 call	 ?CreateObj@@YAPAVCObj@@PAUIDirect3DDevice9@@KKH@Z ; CreateObj
  0003a	8b f0		 mov	 esi, eax
  0003c	83 c4 10	 add	 esp, 16			; 00000010H

; 143  : 	if( pMonster )

  0003f	85 f6		 test	 esi, esi
  00041	0f 84 c8 00 00
	00		 je	 $L233272

; 144  : 	{
; 145  : 		pMonster->m_bActiveAttack	= m_bActiveAttack;

  00047	8b 47 10	 mov	 eax, DWORD PTR [edi+16]

; 146  : 		pMonster->SetPos( pos.vPos );

  0004a	8d 4c 24 34	 lea	 ecx, DWORD PTR _pos$[esp+68]
  0004e	51		 push	 ecx
  0004f	8b ce		 mov	 ecx, esi
  00051	89 86 70 06 00
	00		 mov	 DWORD PTR [esi+1648], eax
  00057	e8 00 00 00 00	 call	 ?SetPos@CObj@@QAEXABUD3DXVECTOR3@@@Z ; CObj::SetPos

; 147  : 		pMonster->InitMotion( MTI_STAND );

  0005c	8b 16		 mov	 edx, DWORD PTR [esi]
  0005e	6a 00		 push	 0
  00060	8b ce		 mov	 ecx, esi
  00062	ff 52 08	 call	 DWORD PTR [edx+8]

; 148  : 		pMonster->UpdateLocalMatrix();

  00065	8b ce		 mov	 ecx, esi
  00067	e8 00 00 00 00	 call	 ?UpdateLocalMatrix@CObj@@QAEXXZ ; CObj::UpdateLocalMatrix

; 149  : 		pMonster->AddItToGlobalId();

  0006c	8b 06		 mov	 eax, DWORD PTR [esi]
  0006e	8b ce		 mov	 ecx, esi
  00070	ff 50 3c	 call	 DWORD PTR [eax+60]

; 150  : 		pWorld->ADDOBJ( pMonster, FALSE, nDefaultLayer );

  00073	6a 00		 push	 0
  00075	6a 00		 push	 0
  00077	56		 push	 esi
  00078	8b cb		 mov	 ecx, ebx
  0007a	e8 00 00 00 00	 call	 ?AddObj@CWorld@@QAEHPAVCObj@@HH@Z ; CWorld::AddObj

; 151  : 		SetObj( pMonster->GetId() );

  0007f	8b 8e bc 01 00
	00		 mov	 ecx, DWORD PTR [esi+444]
  00085	8b 47 0c	 mov	 eax, DWORD PTR [edi+12]
  00088	8b 57 08	 mov	 edx, DWORD PTR [edi+8]
  0008b	89 47 28	 mov	 DWORD PTR [edi+40], eax
  0008e	89 4f 34	 mov	 DWORD PTR [edi+52], ecx
  00091	89 57 24	 mov	 DWORD PTR [edi+36], edx
  00094	c7 47 2c 01 00
	00 00		 mov	 DWORD PTR [edi+44], 1

; 152  : 		election::OutputDebugString( "CRangda.CreateMonster: monster = %d, x = %0.2f, y = %0.2f, z = %0.2f\n",
; 153  : 			pMonster->GetIndex(), pMonster->GetPos().x, pMonster->GetPos().y, pMonster->GetPos().z );

  0009b	8d 86 60 01 00
	00		 lea	 eax, DWORD PTR [esi+352]
  000a1	8b c8		 mov	 ecx, eax
  000a3	8b 11		 mov	 edx, DWORD PTR [ecx]
  000a5	89 54 24 0c	 mov	 DWORD PTR $T233249[esp+64], edx
  000a9	8b 51 04	 mov	 edx, DWORD PTR [ecx+4]
  000ac	8b 49 08	 mov	 ecx, DWORD PTR [ecx+8]
  000af	89 54 24 10	 mov	 DWORD PTR $T233249[esp+68], edx
  000b3	89 4c 24 14	 mov	 DWORD PTR $T233249[esp+72], ecx
  000b7	d9 44 24 14	 fld	 DWORD PTR $T233249[esp+72]
  000bb	8b d0		 mov	 edx, eax
  000bd	8b 0a		 mov	 ecx, DWORD PTR [edx]
  000bf	89 4c 24 18	 mov	 DWORD PTR $T233250[esp+64], ecx
  000c3	8b 4a 04	 mov	 ecx, DWORD PTR [edx+4]
  000c6	8b 52 08	 mov	 edx, DWORD PTR [edx+8]
  000c9	83 ec 18	 sub	 esp, 24			; 00000018H
  000cc	dd 5c 24 10	 fstp	 QWORD PTR [esp+16]
  000d0	89 4c 24 34	 mov	 DWORD PTR $T233250[esp+92], ecx
  000d4	8b 08		 mov	 ecx, DWORD PTR [eax]
  000d6	d9 44 24 34	 fld	 DWORD PTR $T233250[esp+92]
  000da	dd 5c 24 08	 fstp	 QWORD PTR [esp+8]
  000de	89 4c 24 3c	 mov	 DWORD PTR $T233251[esp+88], ecx
  000e2	d9 44 24 3c	 fld	 DWORD PTR $T233251[esp+88]
  000e6	8b 8e 74 01 00
	00		 mov	 ecx, DWORD PTR [esi+372]
  000ec	dd 1c 24	 fstp	 QWORD PTR [esp]
  000ef	89 54 24 38	 mov	 DWORD PTR $T233250[esp+96], edx
  000f3	8b 50 04	 mov	 edx, DWORD PTR [eax+4]
  000f6	8b 40 08	 mov	 eax, DWORD PTR [eax+8]
  000f9	51		 push	 ecx
  000fa	68 00 00 00 00	 push	 OFFSET FLAT:??_C@_0EG@BHMGAOAH@CRangda?4CreateMonster?3?5monster?5?$DN@
  000ff	89 54 24 48	 mov	 DWORD PTR $T233251[esp+100], edx
  00103	89 44 24 4c	 mov	 DWORD PTR $T233251[esp+104], eax
  00107	e8 00 00 00 00	 call	 ?OutputDebugStringA@election@@YAXPBDZZ ; election::OutputDebugStringA
  0010c	83 c4 20	 add	 esp, 32			; 00000020H
$L233272:
  0010f	5e		 pop	 esi
$L229183:
  00110	5f		 pop	 edi
  00111	5b		 pop	 ebx

; 154  : 	}
; 155  : }

  00112	83 c4 34	 add	 esp, 52			; 00000034H
  00115	c3		 ret	 0
?CreateMonster@CRangda@@AAEXXZ ENDP			; CRangda::CreateMonster
_TEXT	ENDS
PUBLIC	??1?$vector@PAVCRangda@@V?$allocator@PAVCRangda@@@std@@@std@@QAE@XZ ; std::vector<CRangda *,std::allocator<CRangda *> >::~vector<CRangda *,std::allocator<CRangda *> >
; Function compile flags: /Ogty
; File c:\program files\microsoft visual studio .net 2003\vc7\include\vector
;	COMDAT ??1?$vector@PAVCRangda@@V?$allocator@PAVCRangda@@@std@@@std@@QAE@XZ
_TEXT	SEGMENT
??1?$vector@PAVCRangda@@V?$allocator@PAVCRangda@@@std@@@std@@QAE@XZ PROC NEAR ; std::vector<CRangda *,std::allocator<CRangda *> >::~vector<CRangda *,std::allocator<CRangda *> >, COMDAT
; _this$ = ecx

; 387  : 		{	// destroy the object

  00000	56		 push	 esi
  00001	8b f1		 mov	 esi, ecx

; 388  : 		_Tidy();

  00003	8b 46 04	 mov	 eax, DWORD PTR [esi+4]
  00006	85 c0		 test	 eax, eax
  00008	74 09		 je	 SHORT $L233286
  0000a	50		 push	 eax
  0000b	e8 00 00 00 00	 call	 ??3@YAXPAX@Z		; operator delete
  00010	83 c4 04	 add	 esp, 4
$L233286:
  00013	c7 46 04 00 00
	00 00		 mov	 DWORD PTR [esi+4], 0
  0001a	c7 46 08 00 00
	00 00		 mov	 DWORD PTR [esi+8], 0
  00021	c7 46 0c 00 00
	00 00		 mov	 DWORD PTR [esi+12], 0
  00028	5e		 pop	 esi

; 389  : 		}

  00029	c3		 ret	 0
??1?$vector@PAVCRangda@@V?$allocator@PAVCRangda@@@std@@@std@@QAE@XZ ENDP ; std::vector<CRangda *,std::allocator<CRangda *> >::~vector<CRangda *,std::allocator<CRangda *> >
_TEXT	ENDS
PUBLIC	?clear@?$vector@PAVCRangda@@V?$allocator@PAVCRangda@@@std@@@std@@QAEXXZ ; std::vector<CRangda *,std::allocator<CRangda *> >::clear
; Function compile flags: /Ogty
;	COMDAT ?clear@?$vector@PAVCRangda@@V?$allocator@PAVCRangda@@@std@@@std@@QAEXXZ
_TEXT	SEGMENT
?clear@?$vector@PAVCRangda@@V?$allocator@PAVCRangda@@@std@@@std@@QAEXXZ PROC NEAR ; std::vector<CRangda *,std::allocator<CRangda *> >::clear, COMDAT
; _this$ = ecx

; 743  : 		{	// erase all

  00000	56		 push	 esi
  00001	8b f1		 mov	 esi, ecx

; 744  : 		_Tidy();

  00003	8b 46 04	 mov	 eax, DWORD PTR [esi+4]
  00006	85 c0		 test	 eax, eax
  00008	74 09		 je	 SHORT $L233300
  0000a	50		 push	 eax
  0000b	e8 00 00 00 00	 call	 ??3@YAXPAX@Z		; operator delete
  00010	83 c4 04	 add	 esp, 4
$L233300:
  00013	c7 46 04 00 00
	00 00		 mov	 DWORD PTR [esi+4], 0
  0001a	c7 46 08 00 00
	00 00		 mov	 DWORD PTR [esi+8], 0
  00021	c7 46 0c 00 00
	00 00		 mov	 DWORD PTR [esi+12], 0
  00028	5e		 pop	 esi

; 745  : 		}

  00029	c3		 ret	 0
?clear@?$vector@PAVCRangda@@V?$allocator@PAVCRangda@@@std@@@std@@QAEXXZ ENDP ; std::vector<CRangda *,std::allocator<CRangda *> >::clear
_TEXT	ENDS
PUBLIC	?_Ufill@?$vector@U_RANGDA_POS@@V?$allocator@U_RANGDA_POS@@@std@@@std@@IAEPAU_RANGDA_POS@@PAU3@IABU3@@Z ; std::vector<_RANGDA_POS,std::allocator<_RANGDA_POS> >::_Ufill
; Function compile flags: /Ogty
;	COMDAT ?_Ufill@?$vector@U_RANGDA_POS@@V?$allocator@U_RANGDA_POS@@@std@@@std@@IAEPAU_RANGDA_POS@@PAU3@IABU3@@Z
_TEXT	SEGMENT
__Ptr$ = 8						; size = 4
__Count$ = 12						; size = 4
__Cat$233314 = 16					; size = 1
__Val$ = 16						; size = 4
?_Ufill@?$vector@U_RANGDA_POS@@V?$allocator@U_RANGDA_POS@@@std@@@std@@IAEPAU_RANGDA_POS@@PAU3@IABU3@@Z PROC NEAR ; std::vector<_RANGDA_POS,std::allocator<_RANGDA_POS> >::_Ufill, COMDAT
; _this$ = ecx

; 878  : 		_Uninitialized_fill_n(_Ptr, _Count, _Val, this->_Alval);

  00000	8b 44 24 0c	 mov	 eax, DWORD PTR __Cat$233314[esp-4]
  00004	56		 push	 esi
  00005	8b 74 24 0c	 mov	 esi, DWORD PTR __Count$[esp]
  00009	57		 push	 edi
  0000a	8b 7c 24 0c	 mov	 edi, DWORD PTR __Ptr$[esp+4]
  0000e	50		 push	 eax
  0000f	51		 push	 ecx
  00010	8b 4c 24 1c	 mov	 ecx, DWORD PTR __Val$[esp+12]
  00014	51		 push	 ecx
  00015	56		 push	 esi
  00016	57		 push	 edi
  00017	e8 00 00 00 00	 call	 ??$_Uninit_fill_n@PAU_RANGDA_POS@@IU1@V?$allocator@U_RANGDA_POS@@@std@@@std@@YAXPAU_RANGDA_POS@@IABU1@AAV?$allocator@U_RANGDA_POS@@@0@U_Nonscalar_ptr_iterator_tag@0@@Z ; std::_Uninit_fill_n<_RANGDA_POS *,unsigned int,_RANGDA_POS,std::allocator<_RANGDA_POS> >

; 879  : 		return (_Ptr + _Count);

  0001c	8b c6		 mov	 eax, esi
  0001e	83 c4 14	 add	 esp, 20			; 00000014H
  00021	c1 e0 04	 shl	 eax, 4
  00024	03 c7		 add	 eax, edi
  00026	5f		 pop	 edi
  00027	5e		 pop	 esi

; 880  : 		}

  00028	c2 0c 00	 ret	 12			; 0000000cH
?_Ufill@?$vector@U_RANGDA_POS@@V?$allocator@U_RANGDA_POS@@@std@@@std@@IAEPAU_RANGDA_POS@@PAU3@IABU3@@Z ENDP ; std::vector<_RANGDA_POS,std::allocator<_RANGDA_POS> >::_Ufill
_TEXT	ENDS
PUBLIC	?_Destroy@?$vector@U_RANGDA_POS@@V?$allocator@U_RANGDA_POS@@@std@@@std@@IAEXPAU_RANGDA_POS@@0@Z ; std::vector<_RANGDA_POS,std::allocator<_RANGDA_POS> >::_Destroy
; Function compile flags: /Ogty
;	COMDAT ?_Destroy@?$vector@U_RANGDA_POS@@V?$allocator@U_RANGDA_POS@@@std@@@std@@IAEXPAU_RANGDA_POS@@0@Z
_TEXT	SEGMENT
__First$ = 8						; size = 4
__Last$ = 12						; size = 4
?_Destroy@?$vector@U_RANGDA_POS@@V?$allocator@U_RANGDA_POS@@@std@@@std@@IAEXPAU_RANGDA_POS@@0@Z PROC NEAR ; std::vector<_RANGDA_POS,std::allocator<_RANGDA_POS> >::_Destroy, COMDAT
; _this$ = ecx

; 787  : 		_Destroy_range(_First, _Last, this->_Alval);
; 788  : 		}

  00000	c2 08 00	 ret	 8
?_Destroy@?$vector@U_RANGDA_POS@@V?$allocator@U_RANGDA_POS@@@std@@@std@@IAEXPAU_RANGDA_POS@@0@Z ENDP ; std::vector<_RANGDA_POS,std::allocator<_RANGDA_POS> >::_Destroy
_TEXT	ENDS
PUBLIC	??1logic_error@std@@UAE@XZ			; std::logic_error::~logic_error
PUBLIC	?what@logic_error@std@@UBEPBDXZ			; std::logic_error::what
PUBLIC	??_7logic_error@std@@6B@			; std::logic_error::`vftable'
PUBLIC	??_Glogic_error@std@@UAEPAXI@Z			; std::logic_error::`scalar deleting destructor'
EXTRN	??1exception@@UAE@XZ:NEAR			; exception::~exception
EXTRN	??_Elogic_error@std@@UAEPAXI@Z:NEAR		; std::logic_error::`vector deleting destructor'
;	COMDAT ??_7logic_error@std@@6B@
; File c:\program files\microsoft visual studio .net 2003\vc7\include\iosfwd
CONST	SEGMENT
??_7logic_error@std@@6B@ DD FLAT:??_Elogic_error@std@@UAEPAXI@Z ; std::logic_error::`vftable'
	DD	FLAT:?what@logic_error@std@@UBEPBDXZ
; Function compile flags: /Ogty
; File c:\program files\microsoft visual studio .net 2003\vc7\include\stdexcept
CONST	ENDS
;	COMDAT ??1logic_error@std@@UAE@XZ
_TEXT	SEGMENT
??1logic_error@std@@UAE@XZ PROC NEAR			; std::logic_error::~logic_error, COMDAT
; _this$ = ecx

; 23   : 		{}	// destroy the object

  00000	56		 push	 esi
  00001	8b f1		 mov	 esi, ecx
  00003	c7 06 00 00 00
	00		 mov	 DWORD PTR [esi], OFFSET FLAT:??_7logic_error@std@@6B@
  00009	83 7e 24 10	 cmp	 DWORD PTR [esi+36], 16	; 00000010H
  0000d	72 0c		 jb	 SHORT $L233382
  0000f	8b 46 10	 mov	 eax, DWORD PTR [esi+16]
  00012	50		 push	 eax
  00013	e8 00 00 00 00	 call	 ??3@YAXPAX@Z		; operator delete
  00018	83 c4 04	 add	 esp, 4
$L233382:
  0001b	33 c0		 xor	 eax, eax
  0001d	c7 46 24 0f 00
	00 00		 mov	 DWORD PTR [esi+36], 15	; 0000000fH
  00024	89 46 20	 mov	 DWORD PTR [esi+32], eax
  00027	88 46 10	 mov	 BYTE PTR [esi+16], al
  0002a	8b ce		 mov	 ecx, esi
  0002c	5e		 pop	 esi
  0002d	e9 00 00 00 00	 jmp	 ??1exception@@UAE@XZ	; exception::~exception
??1logic_error@std@@UAE@XZ ENDP				; std::logic_error::~logic_error
; Function compile flags: /Ogty
_TEXT	ENDS
;	COMDAT ?what@logic_error@std@@UBEPBDXZ
_TEXT	SEGMENT
?what@logic_error@std@@UBEPBDXZ PROC NEAR		; std::logic_error::what, COMDAT
; _this$ = ecx

; 27   : 		return (_Str.c_str());

  00000	83 79 24 10	 cmp	 DWORD PTR [ecx+36], 16	; 00000010H
  00004	72 04		 jb	 SHORT $L233415
  00006	8b 41 10	 mov	 eax, DWORD PTR [ecx+16]

; 28   : 		}

  00009	c3		 ret	 0

; 27   : 		return (_Str.c_str());

$L233415:
  0000a	8d 41 10	 lea	 eax, DWORD PTR [ecx+16]

; 28   : 		}

  0000d	c3		 ret	 0
?what@logic_error@std@@UBEPBDXZ ENDP			; std::logic_error::what
; Function compile flags: /Ogty
_TEXT	ENDS
;	COMDAT ??_Glogic_error@std@@UAEPAXI@Z
_TEXT	SEGMENT
___flags$ = 8						; size = 4
??_Glogic_error@std@@UAEPAXI@Z PROC NEAR		; std::logic_error::`scalar deleting destructor', COMDAT
; _this$ = ecx
  00000	56		 push	 esi
  00001	8b f1		 mov	 esi, ecx
  00003	e8 00 00 00 00	 call	 ??1logic_error@std@@UAE@XZ ; std::logic_error::~logic_error
  00008	f6 44 24 08 01	 test	 BYTE PTR ___flags$[esp], 1
  0000d	74 09		 je	 SHORT $L233422
  0000f	56		 push	 esi
  00010	e8 00 00 00 00	 call	 ??3@YAXPAX@Z		; operator delete
  00015	83 c4 04	 add	 esp, 4
$L233422:
  00018	8b c6		 mov	 eax, esi
  0001a	5e		 pop	 esi
  0001b	c2 04 00	 ret	 4
??_Glogic_error@std@@UAEPAXI@Z ENDP			; std::logic_error::`scalar deleting destructor'
_TEXT	ENDS
PUBLIC	?assign@?$basic_string@DU?$char_traits@D@std@@V?$allocator@D@2@@std@@QAEAAV12@ABV12@II@Z ; std::basic_string<char,std::char_traits<char>,std::allocator<char> >::assign
; Function compile flags: /Ogty
; File c:\program files\microsoft visual studio .net 2003\vc7\include\xstring
;	COMDAT ?assign@?$basic_string@DU?$char_traits@D@std@@V?$allocator@D@2@@std@@QAEAAV12@ABV12@II@Z
_TEXT	SEGMENT
__Right$ = 8						; size = 4
__Roff$ = 12						; size = 4
__Count$ = 16						; size = 4
?assign@?$basic_string@DU?$char_traits@D@std@@V?$allocator@D@2@@std@@QAEAAV12@ABV12@II@Z PROC NEAR ; std::basic_string<char,std::char_traits<char>,std::allocator<char> >::assign, COMDAT
; _this$ = ecx

; 590  : 		{	// assign _Right [_Roff, _Roff + _Count)

  00000	53		 push	 ebx
  00001	55		 push	 ebp
  00002	56		 push	 esi

; 591  : 		if (_Right.size() < _Roff)

  00003	8b 74 24 14	 mov	 esi, DWORD PTR __Roff$[esp+8]
  00007	57		 push	 edi
  00008	8b 7c 24 14	 mov	 edi, DWORD PTR __Right$[esp+12]
  0000c	39 77 14	 cmp	 DWORD PTR [edi+20], esi
  0000f	8b d9		 mov	 ebx, ecx
  00011	73 05		 jae	 SHORT $L220001

; 592  : 			_String_base::_Xran();	// _Roff off end

  00013	e8 00 00 00 00	 call	 ?_Xran@_String_base@std@@QBEXXZ ; std::_String_base::_Xran
$L220001:

; 593  : 		size_type _Num = _Right.size() - _Roff;

  00018	8b 6f 14	 mov	 ebp, DWORD PTR [edi+20]

; 594  : 		if (_Count < _Num)

  0001b	8b 44 24 1c	 mov	 eax, DWORD PTR __Count$[esp+12]
  0001f	2b ee		 sub	 ebp, esi
  00021	3b c5		 cmp	 eax, ebp
  00023	73 02		 jae	 SHORT $L220003

; 595  : 			_Num = _Count;	// trim _Num to size

  00025	8b e8		 mov	 ebp, eax
$L220003:

; 596  : 
; 597  : 		if (this == &_Right)

  00027	3b df		 cmp	 ebx, edi
  00029	75 1f		 jne	 SHORT $L220004

; 598  : 			erase((size_type)(_Roff + _Num)), erase(0, _Roff);	// substring

  0002b	6a ff		 push	 -1
  0002d	03 ee		 add	 ebp, esi
  0002f	55		 push	 ebp
  00030	8b cb		 mov	 ecx, ebx
  00032	e8 00 00 00 00	 call	 ?erase@?$basic_string@DU?$char_traits@D@std@@V?$allocator@D@2@@std@@QAEAAV12@II@Z ; std::basic_string<char,std::char_traits<char>,std::allocator<char> >::erase
  00037	56		 push	 esi
  00038	6a 00		 push	 0
  0003a	8b cb		 mov	 ecx, ebx
  0003c	e8 00 00 00 00	 call	 ?erase@?$basic_string@DU?$char_traits@D@std@@V?$allocator@D@2@@std@@QAEAAV12@II@Z ; std::basic_string<char,std::char_traits<char>,std::allocator<char> >::erase
  00041	5f		 pop	 edi
  00042	5e		 pop	 esi
  00043	5d		 pop	 ebp

; 603  : 			}
; 604  : 		return (*this);

  00044	8b c3		 mov	 eax, ebx
  00046	5b		 pop	 ebx

; 605  : 		}

  00047	c2 0c 00	 ret	 12			; 0000000cH
$L220004:

; 599  : 		else if (_Grow(_Num))

  0004a	83 fd fe	 cmp	 ebp, -2			; fffffffeH
  0004d	76 07		 jbe	 SHORT $L233560
  0004f	8b cb		 mov	 ecx, ebx
  00051	e8 00 00 00 00	 call	 ?_Xlen@_String_base@std@@QBEXXZ ; std::_String_base::_Xlen
$L233560:
  00056	8b 43 18	 mov	 eax, DWORD PTR [ebx+24]
  00059	3b c5		 cmp	 eax, ebp
  0005b	73 21		 jae	 SHORT $L233561
  0005d	8b 43 14	 mov	 eax, DWORD PTR [ebx+20]
  00060	50		 push	 eax
  00061	55		 push	 ebp
  00062	8b cb		 mov	 ecx, ebx
  00064	e8 00 00 00 00	 call	 ?_Copy@?$basic_string@DU?$char_traits@D@std@@V?$allocator@D@2@@std@@IAEXII@Z ; std::basic_string<char,std::char_traits<char>,std::allocator<char> >::_Copy
  00069	85 ed		 test	 ebp, ebp
$L233619:
  0006b	76 6d		 jbe	 SHORT $L233618

; 600  : 			{	// make room and assign new stuff
; 601  : 			_Traits::copy(_Myptr(), _Right._Myptr() + _Roff, _Num);

  0006d	8b 4f 18	 mov	 ecx, DWORD PTR [edi+24]
  00070	b8 10 00 00 00	 mov	 eax, 16			; 00000010H
  00075	3b c8		 cmp	 ecx, eax
  00077	72 2f		 jb	 SHORT $L233583
  00079	8b 57 04	 mov	 edx, DWORD PTR [edi+4]
  0007c	eb 2d		 jmp	 SHORT $L233584

; 599  : 		else if (_Grow(_Num))

$L233561:
  0007e	85 ed		 test	 ebp, ebp
  00080	75 e9		 jne	 SHORT $L233619
  00082	83 f8 10	 cmp	 eax, 16			; 00000010H
  00085	89 6b 14	 mov	 DWORD PTR [ebx+20], ebp
  00088	72 0f		 jb	 SHORT $L233553
  0008a	8b 43 04	 mov	 eax, DWORD PTR [ebx+4]
  0008d	5f		 pop	 edi
  0008e	5e		 pop	 esi
  0008f	c6 00 00	 mov	 BYTE PTR [eax], 0
  00092	5d		 pop	 ebp

; 603  : 			}
; 604  : 		return (*this);

  00093	8b c3		 mov	 eax, ebx
  00095	5b		 pop	 ebx

; 605  : 		}

  00096	c2 0c 00	 ret	 12			; 0000000cH

; 599  : 		else if (_Grow(_Num))

$L233553:
  00099	5f		 pop	 edi
  0009a	8d 43 04	 lea	 eax, DWORD PTR [ebx+4]
  0009d	5e		 pop	 esi
  0009e	c6 00 00	 mov	 BYTE PTR [eax], 0
  000a1	5d		 pop	 ebp

; 603  : 			}
; 604  : 		return (*this);

  000a2	8b c3		 mov	 eax, ebx
  000a4	5b		 pop	 ebx

; 605  : 		}

  000a5	c2 0c 00	 ret	 12			; 0000000cH

; 600  : 			{	// make room and assign new stuff
; 601  : 			_Traits::copy(_Myptr(), _Right._Myptr() + _Roff, _Num);

$L233583:
  000a8	8d 57 04	 lea	 edx, DWORD PTR [edi+4]
$L233584:
  000ab	39 43 18	 cmp	 DWORD PTR [ebx+24], eax
  000ae	8d 43 04	 lea	 eax, DWORD PTR [ebx+4]
  000b1	72 04		 jb	 SHORT $L233590
  000b3	8b 38		 mov	 edi, DWORD PTR [eax]
  000b5	eb 02		 jmp	 SHORT $L233591
$L233590:
  000b7	8b f8		 mov	 edi, eax
$L233591:
  000b9	03 f2		 add	 esi, edx
  000bb	8b cd		 mov	 ecx, ebp
  000bd	8b d1		 mov	 edx, ecx
  000bf	c1 e9 02	 shr	 ecx, 2
  000c2	f3 a5		 rep movsd
  000c4	8b ca		 mov	 ecx, edx
  000c6	83 e1 03	 and	 ecx, 3
  000c9	f3 a4		 rep movsb

; 602  : 			_Eos(_Num);

  000cb	83 7b 18 10	 cmp	 DWORD PTR [ebx+24], 16	; 00000010H
  000cf	89 6b 14	 mov	 DWORD PTR [ebx+20], ebp
  000d2	72 02		 jb	 SHORT $L233613
  000d4	8b 00		 mov	 eax, DWORD PTR [eax]
$L233613:
  000d6	c6 04 28 00	 mov	 BYTE PTR [eax+ebp], 0
$L233618:
  000da	5f		 pop	 edi
  000db	5e		 pop	 esi
  000dc	5d		 pop	 ebp

; 603  : 			}
; 604  : 		return (*this);

  000dd	8b c3		 mov	 eax, ebx
  000df	5b		 pop	 ebx

; 605  : 		}

  000e0	c2 0c 00	 ret	 12			; 0000000cH
?assign@?$basic_string@DU?$char_traits@D@std@@V?$allocator@D@2@@std@@QAEAAV12@ABV12@II@Z ENDP ; std::basic_string<char,std::char_traits<char>,std::allocator<char> >::assign
_TEXT	ENDS
PUBLIC	?assign@?$basic_string@DU?$char_traits@D@std@@V?$allocator@D@2@@std@@QAEAAV12@PBDI@Z ; std::basic_string<char,std::char_traits<char>,std::allocator<char> >::assign
; Function compile flags: /Ogty
;	COMDAT ?assign@?$basic_string@DU?$char_traits@D@std@@V?$allocator@D@2@@std@@QAEAAV12@PBDI@Z
_TEXT	SEGMENT
__Ptr$ = 8						; size = 4
__Num$ = 12						; size = 4
?assign@?$basic_string@DU?$char_traits@D@std@@V?$allocator@D@2@@std@@QAEAAV12@PBDI@Z PROC NEAR ; std::basic_string<char,std::char_traits<char>,std::allocator<char> >::assign, COMDAT
; _this$ = ecx

; 608  : 		{	// assign [_Ptr, _Ptr + _Num)

  00000	53		 push	 ebx
  00001	8b d9		 mov	 ebx, ecx

; 609  : 		if (_Inside(_Ptr))

  00003	8b 53 18	 mov	 edx, DWORD PTR [ebx+24]
  00006	83 fa 10	 cmp	 edx, 16			; 00000010H
  00009	56		 push	 esi
  0000a	57		 push	 edi
  0000b	72 05		 jb	 SHORT $L233640
  0000d	8b 43 04	 mov	 eax, DWORD PTR [ebx+4]
  00010	eb 03		 jmp	 SHORT $L233641
$L233640:
  00012	8d 43 04	 lea	 eax, DWORD PTR [ebx+4]
$L233641:
  00015	8b 74 24 10	 mov	 esi, DWORD PTR __Ptr$[esp+8]
  00019	3b f0		 cmp	 esi, eax
  0001b	72 34		 jb	 SHORT $L221367
  0001d	83 fa 10	 cmp	 edx, 16			; 00000010H
  00020	8d 43 04	 lea	 eax, DWORD PTR [ebx+4]
  00023	72 04		 jb	 SHORT $L233644
  00025	8b 08		 mov	 ecx, DWORD PTR [eax]
  00027	eb 02		 jmp	 SHORT $L233645
$L233644:
  00029	8b c8		 mov	 ecx, eax
$L233645:
  0002b	8b 7b 14	 mov	 edi, DWORD PTR [ebx+20]
  0002e	03 f9		 add	 edi, ecx
  00030	3b fe		 cmp	 edi, esi
  00032	76 1d		 jbe	 SHORT $L221367

; 610  : 			return (assign(*this, _Ptr - _Myptr(), _Num));	// substring

  00034	83 fa 10	 cmp	 edx, 16			; 00000010H
  00037	72 02		 jb	 SHORT $L233657
  00039	8b 00		 mov	 eax, DWORD PTR [eax]
$L233657:
  0003b	8b 4c 24 14	 mov	 ecx, DWORD PTR __Num$[esp+8]
  0003f	51		 push	 ecx
  00040	2b f0		 sub	 esi, eax
  00042	56		 push	 esi
  00043	53		 push	 ebx
  00044	8b cb		 mov	 ecx, ebx
  00046	e8 00 00 00 00	 call	 ?assign@?$basic_string@DU?$char_traits@D@std@@V?$allocator@D@2@@std@@QAEAAV12@ABV12@II@Z ; std::basic_string<char,std::char_traits<char>,std::allocator<char> >::assign
  0004b	5f		 pop	 edi
  0004c	5e		 pop	 esi
  0004d	5b		 pop	 ebx

; 618  : 		}

  0004e	c2 08 00	 ret	 8
$L221367:
  00051	55		 push	 ebp

; 611  : 
; 612  : 		if (_Grow(_Num))

  00052	8b 6c 24 18	 mov	 ebp, DWORD PTR __Num$[esp+12]
  00056	83 fd fe	 cmp	 ebp, -2			; fffffffeH
  00059	76 07		 jbe	 SHORT $L233759
  0005b	8b cb		 mov	 ecx, ebx
  0005d	e8 00 00 00 00	 call	 ?_Xlen@_String_base@std@@QBEXXZ ; std::_String_base::_Xlen
$L233759:
  00062	8b 43 18	 mov	 eax, DWORD PTR [ebx+24]
  00065	3b c5		 cmp	 eax, ebp
  00067	73 1b		 jae	 SHORT $L233760
  00069	8b 53 14	 mov	 edx, DWORD PTR [ebx+20]
  0006c	52		 push	 edx
  0006d	55		 push	 ebp
  0006e	8b cb		 mov	 ecx, ebx
  00070	e8 00 00 00 00	 call	 ?_Copy@?$basic_string@DU?$char_traits@D@std@@V?$allocator@D@2@@std@@IAEXII@Z ; std::basic_string<char,std::char_traits<char>,std::allocator<char> >::_Copy
  00075	85 ed		 test	 ebp, ebp
$L233837:
  00077	76 68		 jbe	 SHORT $L233834

; 613  : 			{	// make room and assign new stuff
; 614  : 			_Traits::copy(_Myptr(), _Ptr, _Num);

  00079	83 7b 18 10	 cmp	 DWORD PTR [ebx+24], 16	; 00000010H
  0007d	72 2f		 jb	 SHORT $L233809
  0007f	8b 7b 04	 mov	 edi, DWORD PTR [ebx+4]
  00082	eb 2d		 jmp	 SHORT $L233810

; 611  : 
; 612  : 		if (_Grow(_Num))

$L233760:
  00084	85 ed		 test	 ebp, ebp
  00086	75 ef		 jne	 SHORT $L233837
  00088	83 f8 10	 cmp	 eax, 16			; 00000010H
  0008b	89 6b 14	 mov	 DWORD PTR [ebx+20], ebp
  0008e	72 0f		 jb	 SHORT $L233800
  00090	8b 43 04	 mov	 eax, DWORD PTR [ebx+4]
  00093	5d		 pop	 ebp
  00094	5f		 pop	 edi
  00095	c6 00 00	 mov	 BYTE PTR [eax], 0
  00098	5e		 pop	 esi

; 616  : 			}
; 617  : 		return (*this);

  00099	8b c3		 mov	 eax, ebx
  0009b	5b		 pop	 ebx

; 618  : 		}

  0009c	c2 08 00	 ret	 8

; 611  : 
; 612  : 		if (_Grow(_Num))

$L233800:
  0009f	5d		 pop	 ebp
  000a0	8d 43 04	 lea	 eax, DWORD PTR [ebx+4]
  000a3	5f		 pop	 edi
  000a4	c6 00 00	 mov	 BYTE PTR [eax], 0
  000a7	5e		 pop	 esi

; 616  : 			}
; 617  : 		return (*this);

  000a8	8b c3		 mov	 eax, ebx
  000aa	5b		 pop	 ebx

; 618  : 		}

  000ab	c2 08 00	 ret	 8

; 613  : 			{	// make room and assign new stuff
; 614  : 			_Traits::copy(_Myptr(), _Ptr, _Num);

$L233809:
  000ae	8d 7b 04	 lea	 edi, DWORD PTR [ebx+4]
$L233810:
  000b1	8b cd		 mov	 ecx, ebp
  000b3	8b c1		 mov	 eax, ecx
  000b5	c1 e9 02	 shr	 ecx, 2
  000b8	f3 a5		 rep movsd
  000ba	8b c8		 mov	 ecx, eax
  000bc	83 e1 03	 and	 ecx, 3
  000bf	f3 a4		 rep movsb

; 615  : 			_Eos(_Num);

  000c1	83 7b 18 10	 cmp	 DWORD PTR [ebx+24], 16	; 00000010H
  000c5	89 6b 14	 mov	 DWORD PTR [ebx+20], ebp
  000c8	72 10		 jb	 SHORT $L233832
  000ca	8b 43 04	 mov	 eax, DWORD PTR [ebx+4]
  000cd	c6 04 28 00	 mov	 BYTE PTR [eax+ebp], 0
  000d1	5d		 pop	 ebp
  000d2	5f		 pop	 edi
  000d3	5e		 pop	 esi

; 616  : 			}
; 617  : 		return (*this);

  000d4	8b c3		 mov	 eax, ebx
  000d6	5b		 pop	 ebx

; 618  : 		}

  000d7	c2 08 00	 ret	 8

; 615  : 			_Eos(_Num);

$L233832:
  000da	8d 43 04	 lea	 eax, DWORD PTR [ebx+4]
  000dd	c6 04 28 00	 mov	 BYTE PTR [eax+ebp], 0
$L233834:
  000e1	5d		 pop	 ebp
  000e2	5f		 pop	 edi
  000e3	5e		 pop	 esi

; 616  : 			}
; 617  : 		return (*this);

  000e4	8b c3		 mov	 eax, ebx
  000e6	5b		 pop	 ebx

; 618  : 		}

  000e7	c2 08 00	 ret	 8
?assign@?$basic_string@DU?$char_traits@D@std@@V?$allocator@D@2@@std@@QAEAAV12@PBDI@Z ENDP ; std::basic_string<char,std::char_traits<char>,std::allocator<char> >::assign
_TEXT	ENDS
PUBLIC	?ProcessReplace@CRangda@@AAEXPAVCMover@@@Z	; CRangda::ProcessReplace
PUBLIC	??_C@_0BI@HBEONIOH@CRangda?4ProcessReplace?3?$AA@ ; `string'
EXTRN	?Delete@CObj@@QAEXXZ:NEAR			; CObj::Delete
;	COMDAT ??_C@_0BI@HBEONIOH@CRangda?4ProcessReplace?3?$AA@
; File c:\documents and settings\test\mes documents\source\virtuos_v17\build\program\worldserver\rangda.cpp
CONST	SEGMENT
??_C@_0BI@HBEONIOH@CRangda?4ProcessReplace?3?$AA@ DB 'CRangda.ProcessRepl'
	DB	'ace:', 00H					; `string'
; Function compile flags: /Ogty
CONST	ENDS
;	COMDAT ?ProcessReplace@CRangda@@AAEXPAVCMover@@@Z
_TEXT	SEGMENT
_pMonster$ = 8						; size = 4
?ProcessReplace@CRangda@@AAEXPAVCMover@@@Z PROC NEAR	; CRangda::ProcessReplace, COMDAT
; _this$ = ecx

; 94   : {	//   

  00000	56		 push	 esi
  00001	8b f1		 mov	 esi, ecx

; 95   : 	if( m_bReplaceable )

  00003	8b 46 2c	 mov	 eax, DWORD PTR [esi+44]
  00006	85 c0		 test	 eax, eax
  00008	74 56		 je	 SHORT $L229151
  0000a	53		 push	 ebx
  0000b	57		 push	 edi

; 96   : 	{
; 97   : 		if( IsDamaged( pMonster ) )		//  

  0000c	8b 7c 24 10	 mov	 edi, DWORD PTR _pMonster$[esp+8]
  00010	8b cf		 mov	 ecx, edi
  00012	e8 00 00 00 00	 call	 ?GetMaxHitPoint@CMover@@QAEHXZ ; CMover::GetMaxHitPoint
  00017	8b cf		 mov	 ecx, edi
  00019	8b d8		 mov	 ebx, eax
  0001b	e8 00 00 00 00	 call	 ?GetHitPoint@CMover@@QAEHXZ ; CMover::GetHitPoint
  00020	3b c3		 cmp	 eax, ebx
  00022	7d 0d		 jge	 SHORT $L229149
  00024	5f		 pop	 edi
  00025	5b		 pop	 ebx

; 98   : 			m_bReplaceable	= FALSE;	//  

  00026	c7 46 2c 00 00
	00 00		 mov	 DWORD PTR [esi+44], 0
  0002d	5e		 pop	 esi

; 104  : 		}
; 105  : 	}
; 106  : }

  0002e	c2 04 00	 ret	 4
$L229149:

; 99   : 		else if( HavetoReplace() )	//   

  00031	8b 46 28	 mov	 eax, DWORD PTR [esi+40]
  00034	85 c0		 test	 eax, eax
  00036	7e 04		 jle	 SHORT $L233847
  00038	48		 dec	 eax
  00039	89 46 28	 mov	 DWORD PTR [esi+40], eax
$L233847:
  0003c	8b 46 28	 mov	 eax, DWORD PTR [esi+40]
  0003f	85 c0		 test	 eax, eax
  00041	75 1b		 jne	 SHORT $L233848

; 100  : 		{
; 101  : 			election::OutputDebugString( "CRangda.ProcessReplace:" );

  00043	68 00 00 00 00	 push	 OFFSET FLAT:??_C@_0BI@HBEONIOH@CRangda?4ProcessReplace?3?$AA@
  00048	e8 00 00 00 00	 call	 ?OutputDebugStringA@election@@YAXPBDZZ ; election::OutputDebugStringA
  0004d	83 c4 04	 add	 esp, 4

; 102  : 			pMonster->Delete();		// 

  00050	8b cf		 mov	 ecx, edi
  00052	e8 00 00 00 00	 call	 ?Delete@CObj@@QAEXXZ	; CObj::Delete

; 103  : 			CreateMonster();	//  

  00057	8b ce		 mov	 ecx, esi
  00059	e8 00 00 00 00	 call	 ?CreateMonster@CRangda@@AAEXXZ ; CRangda::CreateMonster
$L233848:
  0005e	5f		 pop	 edi
  0005f	5b		 pop	 ebx
$L229151:
  00060	5e		 pop	 esi

; 104  : 		}
; 105  : 	}
; 106  : }

  00061	c2 04 00	 ret	 4
?ProcessReplace@CRangda@@AAEXPAVCMover@@@Z ENDP		; CRangda::ProcessReplace
_TEXT	ENDS
PUBLIC	?ProcessGenerate@CRangda@@AAEXXZ		; CRangda::ProcessGenerate
PUBLIC	??_C@_0BJ@FGFPLBDO@CRangda?4ProcessGenerate?3?$AA@ ; `string'
;	COMDAT ??_C@_0BJ@FGFPLBDO@CRangda?4ProcessGenerate?3?$AA@
CONST	SEGMENT
??_C@_0BJ@FGFPLBDO@CRangda?4ProcessGenerate?3?$AA@ DB 'CRangda.ProcessGen'
	DB	'erate:', 00H				; `string'
; Function compile flags: /Ogty
CONST	ENDS
;	COMDAT ?ProcessGenerate@CRangda@@AAEXXZ
_TEXT	SEGMENT
?ProcessGenerate@CRangda@@AAEXXZ PROC NEAR		; CRangda::ProcessGenerate, COMDAT
; _this$ = ecx

; 109  : {

  00000	56		 push	 esi
  00001	8b f1		 mov	 esi, ecx

; 110  : 	if( HavetoGenerate() )	//   

  00003	8b 46 24	 mov	 eax, DWORD PTR [esi+36]
  00006	85 c0		 test	 eax, eax
  00008	7e 04		 jle	 SHORT $L233855
  0000a	48		 dec	 eax
  0000b	89 46 24	 mov	 DWORD PTR [esi+36], eax
$L233855:
  0000e	8b 46 24	 mov	 eax, DWORD PTR [esi+36]
  00011	85 c0		 test	 eax, eax
  00013	75 15		 jne	 SHORT $L229157

; 111  : 	{
; 112  : 		election::OutputDebugString( "CRangda.ProcessGenerate:" );

  00015	68 00 00 00 00	 push	 OFFSET FLAT:??_C@_0BJ@FGFPLBDO@CRangda?4ProcessGenerate?3?$AA@
  0001a	e8 00 00 00 00	 call	 ?OutputDebugStringA@election@@YAXPBDZZ ; election::OutputDebugStringA
  0001f	83 c4 04	 add	 esp, 4

; 113  : 		CreateMonster();	//  

  00022	8b ce		 mov	 ecx, esi
  00024	5e		 pop	 esi
  00025	e9 00 00 00 00	 jmp	 ?CreateMonster@CRangda@@AAEXXZ ; CRangda::CreateMonster
$L229157:
  0002a	5e		 pop	 esi

; 114  : 	}
; 115  : }

  0002b	c3		 ret	 0
?ProcessGenerate@CRangda@@AAEXXZ ENDP			; CRangda::ProcessGenerate
_TEXT	ENDS
PUBLIC	??1CRangdaController@@UAE@XZ			; CRangdaController::~CRangdaController
PUBLIC	??_7CRangdaController@@6B@			; CRangdaController::`vftable'
PUBLIC	??_GCRangdaController@@UAEPAXI@Z		; CRangdaController::`scalar deleting destructor'
EXTRN	??_ECRangdaController@@UAEPAXI@Z:NEAR		; CRangdaController::`vector deleting destructor'
;	COMDAT xdata$x
; File c:\program files\microsoft visual studio .net 2003\vc7\include\xmemory
xdata$x	SEGMENT
$T233962 DD	0ffffffffH
	DD	FLAT:$L233865
$T233958 DD	019930520H
	DD	01H
	DD	FLAT:$T233962
	DD	2 DUP(00H)
	DD	2 DUP(00H)
xdata$x	ENDS
;	COMDAT ??_7CRangdaController@@6B@
CONST	SEGMENT
??_7CRangdaController@@6B@ DD FLAT:??_ECRangdaController@@UAEPAXI@Z ; CRangdaController::`vftable'
; Function compile flags: /Ogty
; File c:\documents and settings\test\mes documents\source\virtuos_v17\build\program\worldserver\rangda.cpp
CONST	ENDS
;	COMDAT ??1CRangdaController@@UAE@XZ
_TEXT	SEGMENT
_this$ = -16						; size = 4
__$EHRec$ = -12						; size = 12
??1CRangdaController@@UAE@XZ PROC NEAR			; CRangdaController::~CRangdaController, COMDAT
; _this$ = ecx

; 164  : {

  00000	6a ff		 push	 -1
  00002	68 00 00 00 00	 push	 __ehhandler$??1CRangdaController@@UAE@XZ
  00007	64 a1 00 00 00
	00		 mov	 eax, DWORD PTR fs:__except_list
  0000d	50		 push	 eax
  0000e	64 89 25 00 00
	00 00		 mov	 DWORD PTR fs:__except_list, esp
  00015	51		 push	 ecx
  00016	53		 push	 ebx
  00017	56		 push	 esi
  00018	8b f1		 mov	 esi, ecx
  0001a	57		 push	 edi
  0001b	89 74 24 0c	 mov	 DWORD PTR _this$[esp+28], esi
  0001f	c7 06 00 00 00
	00		 mov	 DWORD PTR [esi], OFFSET FLAT:??_7CRangdaController@@6B@

; 165  : 	for( VR::iterator i = m_vRangda.begin(); i != m_vRangda.end(); ++i )

  00025	8b 7e 08	 mov	 edi, DWORD PTR [esi+8]
  00028	8b 46 0c	 mov	 eax, DWORD PTR [esi+12]
  0002b	33 db		 xor	 ebx, ebx
  0002d	3b f8		 cmp	 edi, eax
  0002f	89 5c 24 18	 mov	 DWORD PTR __$EHRec$[esp+36], ebx
  00033	74 16		 je	 SHORT $L229319
$L233883:

; 166  : 		safe_delete( *i );

  00035	8b 0f		 mov	 ecx, DWORD PTR [edi]
  00037	3b cb		 cmp	 ecx, ebx
  00039	74 06		 je	 SHORT $L229318
  0003b	8b 01		 mov	 eax, DWORD PTR [ecx]
  0003d	6a 01		 push	 1
  0003f	ff 10		 call	 DWORD PTR [eax]
$L229318:
  00041	8b 46 0c	 mov	 eax, DWORD PTR [esi+12]
  00044	83 c7 04	 add	 edi, 4
  00047	3b f8		 cmp	 edi, eax
  00049	75 ea		 jne	 SHORT $L233883
$L229319:

; 167  : 	m_vRangda.clear();

  0004b	8b 46 08	 mov	 eax, DWORD PTR [esi+8]
  0004e	3b c3		 cmp	 eax, ebx
  00050	74 09		 je	 SHORT $L233935
  00052	50		 push	 eax
  00053	e8 00 00 00 00	 call	 ??3@YAXPAX@Z		; operator delete
  00058	83 c4 04	 add	 esp, 4
$L233935:

; 168  : }

  0005b	8b c3		 mov	 eax, ebx
  0005d	3b c3		 cmp	 eax, ebx
  0005f	89 5e 08	 mov	 DWORD PTR [esi+8], ebx
  00062	89 5e 0c	 mov	 DWORD PTR [esi+12], ebx
  00065	89 5e 10	 mov	 DWORD PTR [esi+16], ebx
  00068	74 09		 je	 SHORT $L233955
  0006a	50		 push	 eax
  0006b	e8 00 00 00 00	 call	 ??3@YAXPAX@Z		; operator delete
  00070	83 c4 04	 add	 esp, 4
$L233955:
  00073	8b 4c 24 10	 mov	 ecx, DWORD PTR __$EHRec$[esp+28]
  00077	89 5e 08	 mov	 DWORD PTR [esi+8], ebx
  0007a	89 5e 0c	 mov	 DWORD PTR [esi+12], ebx
  0007d	89 5e 10	 mov	 DWORD PTR [esi+16], ebx
  00080	5f		 pop	 edi
  00081	5e		 pop	 esi
  00082	5b		 pop	 ebx
  00083	64 89 0d 00 00
	00 00		 mov	 DWORD PTR fs:__except_list, ecx
  0008a	83 c4 10	 add	 esp, 16			; 00000010H
  0008d	c3		 ret	 0
_TEXT	ENDS
;	COMDAT text$x
text$x	SEGMENT
$L233865:
  00000	8b 4d f0	 mov	 ecx, DWORD PTR _this$[ebp]
  00003	83 c1 04	 add	 ecx, 4
  00006	e9 00 00 00 00	 jmp	 ??1?$vector@PAVCRangda@@V?$allocator@PAVCRangda@@@std@@@std@@QAE@XZ ; std::vector<CRangda *,std::allocator<CRangda *> >::~vector<CRangda *,std::allocator<CRangda *> >
__ehhandler$??1CRangdaController@@UAE@XZ:
  0000b	b8 00 00 00 00	 mov	 eax, OFFSET FLAT:$T233958
  00010	e9 00 00 00 00	 jmp	 ___CxxFrameHandler
text$x	ENDS
??1CRangdaController@@UAE@XZ ENDP			; CRangdaController::~CRangdaController
PUBLIC	?_Tidy@?$vector@U_RANGDA_POS@@V?$allocator@U_RANGDA_POS@@@std@@@std@@IAEXXZ ; std::vector<_RANGDA_POS,std::allocator<_RANGDA_POS> >::_Tidy
; Function compile flags: /Ogty
; File c:\program files\microsoft visual studio .net 2003\vc7\include\vector
;	COMDAT ?_Tidy@?$vector@U_RANGDA_POS@@V?$allocator@U_RANGDA_POS@@@std@@@std@@IAEXXZ
_TEXT	SEGMENT
?_Tidy@?$vector@U_RANGDA_POS@@V?$allocator@U_RANGDA_POS@@@std@@@std@@IAEXXZ PROC NEAR ; std::vector<_RANGDA_POS,std::allocator<_RANGDA_POS> >::_Tidy, COMDAT
; _this$ = ecx

; 791  : 		{	// free all storage

  00000	56		 push	 esi
  00001	8b f1		 mov	 esi, ecx

; 792  : 		if (_Myfirst != 0)

  00003	8b 46 04	 mov	 eax, DWORD PTR [esi+4]
  00006	85 c0		 test	 eax, eax
  00008	74 09		 je	 SHORT $L233970

; 793  : 			{	// something to free, destroy and deallocate it
; 794  : 			_Destroy(_Myfirst, _Mylast);
; 795  : 			this->_Alval.deallocate(_Myfirst, _Myend - _Myfirst);

  0000a	50		 push	 eax
  0000b	e8 00 00 00 00	 call	 ??3@YAXPAX@Z		; operator delete
  00010	83 c4 04	 add	 esp, 4
$L233970:

; 796  : 			}
; 797  : 		_Myfirst = 0, _Mylast = 0, _Myend = 0;

  00013	c7 46 04 00 00
	00 00		 mov	 DWORD PTR [esi+4], 0
  0001a	c7 46 08 00 00
	00 00		 mov	 DWORD PTR [esi+8], 0
  00021	c7 46 0c 00 00
	00 00		 mov	 DWORD PTR [esi+12], 0
  00028	5e		 pop	 esi

; 798  : 		}

  00029	c3		 ret	 0
?_Tidy@?$vector@U_RANGDA_POS@@V?$allocator@U_RANGDA_POS@@@std@@@std@@IAEXXZ ENDP ; std::vector<_RANGDA_POS,std::allocator<_RANGDA_POS> >::_Tidy
_TEXT	ENDS
PUBLIC	??0?$basic_string@DU?$char_traits@D@std@@V?$allocator@D@2@@std@@QAE@ABV01@@Z ; std::basic_string<char,std::char_traits<char>,std::allocator<char> >::basic_string<char,std::char_traits<char>,std::allocator<char> >
; Function compile flags: /Ogty
; File c:\program files\microsoft visual studio .net 2003\vc7\include\xstring
;	COMDAT ??0?$basic_string@DU?$char_traits@D@std@@V?$allocator@D@2@@std@@QAE@ABV01@@Z
_TEXT	SEGMENT
__Right$ = 8						; size = 4
??0?$basic_string@DU?$char_traits@D@std@@V?$allocator@D@2@@std@@QAE@ABV01@@Z PROC NEAR ; std::basic_string<char,std::char_traits<char>,std::allocator<char> >::basic_string<char,std::char_traits<char>,std::allocator<char> >, COMDAT
; _this$ = ecx

; 323  : 		{	// construct by copying _Right

  00000	56		 push	 esi

; 324  : 		_Tidy();

  00001	33 c0		 xor	 eax, eax
  00003	8b f1		 mov	 esi, ecx

; 325  : 		assign(_Right, 0, npos);

  00005	6a ff		 push	 -1
  00007	89 46 14	 mov	 DWORD PTR [esi+20], eax
  0000a	c7 46 18 0f 00
	00 00		 mov	 DWORD PTR [esi+24], 15	; 0000000fH
  00011	50		 push	 eax
  00012	88 46 04	 mov	 BYTE PTR [esi+4], al
  00015	8b 44 24 10	 mov	 eax, DWORD PTR __Right$[esp+8]
  00019	50		 push	 eax
  0001a	e8 00 00 00 00	 call	 ?assign@?$basic_string@DU?$char_traits@D@std@@V?$allocator@D@2@@std@@QAEAAV12@ABV12@II@Z ; std::basic_string<char,std::char_traits<char>,std::allocator<char> >::assign

; 326  : 		}

  0001f	8b c6		 mov	 eax, esi
  00021	5e		 pop	 esi
  00022	c2 04 00	 ret	 4
??0?$basic_string@DU?$char_traits@D@std@@V?$allocator@D@2@@std@@QAE@ABV01@@Z ENDP ; std::basic_string<char,std::char_traits<char>,std::allocator<char> >::basic_string<char,std::char_traits<char>,std::allocator<char> >
_TEXT	ENDS
PUBLIC	?assign@?$basic_string@DU?$char_traits@D@std@@V?$allocator@D@2@@std@@QAEAAV12@PBD@Z ; std::basic_string<char,std::char_traits<char>,std::allocator<char> >::assign
; Function compile flags: /Ogty
;	COMDAT ?assign@?$basic_string@DU?$char_traits@D@std@@V?$allocator@D@2@@std@@QAEAAV12@PBD@Z
_TEXT	SEGMENT
__Ptr$ = 8						; size = 4
?assign@?$basic_string@DU?$char_traits@D@std@@V?$allocator@D@2@@std@@QAEAAV12@PBD@Z PROC NEAR ; std::basic_string<char,std::char_traits<char>,std::allocator<char> >::assign, COMDAT
; _this$ = ecx

; 621  : 		{	// assign [_Ptr, <null>)

  00000	56		 push	 esi

; 622  : 		return (assign(_Ptr, _Traits::length(_Ptr)));

  00001	8b 74 24 08	 mov	 esi, DWORD PTR __Ptr$[esp]
  00005	8b c6		 mov	 eax, esi
  00007	57		 push	 edi
  00008	8d 78 01	 lea	 edi, DWORD PTR [eax+1]
  0000b	eb 03 8d 49 00	 npad	 5
$L234046:
  00010	8a 10		 mov	 dl, BYTE PTR [eax]
  00012	40		 inc	 eax
  00013	84 d2		 test	 dl, dl
  00015	75 f9		 jne	 SHORT $L234046
  00017	2b c7		 sub	 eax, edi
  00019	50		 push	 eax
  0001a	56		 push	 esi
  0001b	e8 00 00 00 00	 call	 ?assign@?$basic_string@DU?$char_traits@D@std@@V?$allocator@D@2@@std@@QAEAAV12@PBDI@Z ; std::basic_string<char,std::char_traits<char>,std::allocator<char> >::assign
  00020	5f		 pop	 edi
  00021	5e		 pop	 esi

; 623  : 		}

  00022	c2 04 00	 ret	 4
?assign@?$basic_string@DU?$char_traits@D@std@@V?$allocator@D@2@@std@@QAEAAV12@PBD@Z ENDP ; std::basic_string<char,std::char_traits<char>,std::allocator<char> >::assign
_TEXT	ENDS
PUBLIC	?OnTimer@CRangda@@QAEXXZ			; CRangda::OnTimer
; Function compile flags: /Ogty
; File c:\documents and settings\test\mes documents\source\virtuos_v17\build\program\worldserver\rangda.cpp
;	COMDAT ?OnTimer@CRangda@@QAEXXZ
_TEXT	SEGMENT
?OnTimer@CRangda@@QAEXXZ PROC NEAR			; CRangda::OnTimer, COMDAT
; _this$ = ecx

; 73   : {

  00000	56		 push	 esi
  00001	8b f1		 mov	 esi, ecx

; 74   : 	CMover* pMonster	= GetMonster();

  00003	8b 46 34	 mov	 eax, DWORD PTR [esi+52]
  00006	83 f8 ff	 cmp	 eax, -1
  00009	74 1c		 je	 SHORT $L229135
  0000b	50		 push	 eax
  0000c	b9 00 00 00 00	 mov	 ecx, OFFSET FLAT:?prj@@3VCProject@@A
  00011	e8 00 00 00 00	 call	 ?GetMover@CProject@@QAEPAVCMover@@K@Z ; CProject::GetMover
  00016	85 c0		 test	 eax, eax
  00018	74 06		 je	 SHORT $L234073
  0001a	f6 40 04 01	 test	 BYTE PTR [eax+4], 1
  0001e	74 2e		 je	 SHORT $L234098
$L234073:
  00020	c7 46 34 ff ff
	ff ff		 mov	 DWORD PTR [esi+52], -1
$L229135:

; 77   : 	else	//    
; 78   : 		ProcessGenerate();

  00027	8b 46 24	 mov	 eax, DWORD PTR [esi+36]
  0002a	85 c0		 test	 eax, eax
  0002c	7e 04		 jle	 SHORT $L234094
  0002e	48		 dec	 eax
  0002f	89 46 24	 mov	 DWORD PTR [esi+36], eax
$L234094:
  00032	8b 46 24	 mov	 eax, DWORD PTR [esi+36]
  00035	85 c0		 test	 eax, eax
  00037	75 1d		 jne	 SHORT $L234096
  00039	68 00 00 00 00	 push	 OFFSET FLAT:??_C@_0BJ@FGFPLBDO@CRangda?4ProcessGenerate?3?$AA@
  0003e	e8 00 00 00 00	 call	 ?OutputDebugStringA@election@@YAXPBDZZ ; election::OutputDebugStringA
  00043	83 c4 04	 add	 esp, 4
  00046	8b ce		 mov	 ecx, esi
  00048	5e		 pop	 esi
  00049	e9 00 00 00 00	 jmp	 ?CreateMonster@CRangda@@AAEXXZ ; CRangda::CreateMonster
$L234098:

; 75   : 	if( IsValidObj( pMonster ) )	//  
; 76   : 		ProcessReplace( pMonster );		//     

  0004e	50		 push	 eax
  0004f	8b ce		 mov	 ecx, esi
  00051	e8 00 00 00 00	 call	 ?ProcessReplace@CRangda@@AAEXPAVCMover@@@Z ; CRangda::ProcessReplace

; 77   : 	else	//    
; 78   : 		ProcessGenerate();

$L234096:
  00056	5e		 pop	 esi

; 79   : }

  00057	c3		 ret	 0
?OnTimer@CRangda@@QAEXXZ ENDP				; CRangda::OnTimer
; Function compile flags: /Ogty
_TEXT	ENDS
;	COMDAT ??_GCRangdaController@@UAEPAXI@Z
_TEXT	SEGMENT
___flags$ = 8						; size = 4
??_GCRangdaController@@UAEPAXI@Z PROC NEAR		; CRangdaController::`scalar deleting destructor', COMDAT
; _this$ = ecx
  00000	56		 push	 esi
  00001	8b f1		 mov	 esi, ecx
  00003	e8 00 00 00 00	 call	 ??1CRangdaController@@UAE@XZ ; CRangdaController::~CRangdaController
  00008	f6 44 24 08 01	 test	 BYTE PTR ___flags$[esp], 1
  0000d	74 09		 je	 SHORT $L234103
  0000f	56		 push	 esi
  00010	e8 00 00 00 00	 call	 ??3@YAXPAX@Z		; operator delete
  00015	83 c4 04	 add	 esp, 4
$L234103:
  00018	8b c6		 mov	 eax, esi
  0001a	5e		 pop	 esi
  0001b	c2 04 00	 ret	 4
??_GCRangdaController@@UAEPAXI@Z ENDP			; CRangdaController::`scalar deleting destructor'
_TEXT	ENDS
PUBLIC	?OnTimer@CRangdaController@@QAEXXZ		; CRangdaController::OnTimer
; Function compile flags: /Ogty
;	COMDAT ?OnTimer@CRangdaController@@QAEXXZ
_TEXT	SEGMENT
?OnTimer@CRangdaController@@QAEXXZ PROC NEAR		; CRangdaController::OnTimer, COMDAT
; _this$ = ecx

; 182  : {

  00000	55		 push	 ebp
  00001	8b e9		 mov	 ebp, ecx

; 183  : 	for( VR::iterator i = m_vRangda.begin(); i != m_vRangda.end(); ++i )

  00003	8b 45 0c	 mov	 eax, DWORD PTR [ebp+12]
  00006	57		 push	 edi
  00007	8b 7d 08	 mov	 edi, DWORD PTR [ebp+8]
  0000a	3b f8		 cmp	 edi, eax
  0000c	74 59		 je	 SHORT $L229347
  0000e	56		 push	 esi
  0000f	90		 npad	 1
$L234125:

; 184  : 		( *i )->OnTimer();

  00010	8b 37		 mov	 esi, DWORD PTR [edi]
  00012	8b 46 34	 mov	 eax, DWORD PTR [esi+52]
  00015	83 f8 ff	 cmp	 eax, -1
  00018	74 1c		 je	 SHORT $L234240
  0001a	50		 push	 eax
  0001b	b9 00 00 00 00	 mov	 ecx, OFFSET FLAT:?prj@@3VCProject@@A
  00020	e8 00 00 00 00	 call	 ?GetMover@CProject@@QAEPAVCMover@@K@Z ; CProject::GetMover
  00025	85 c0		 test	 eax, eax
  00027	74 06		 je	 SHORT $L234218
  00029	f6 40 04 01	 test	 BYTE PTR [eax+4], 1
  0002d	74 3b		 je	 SHORT $L234239
$L234218:
  0002f	c7 46 34 ff ff
	ff ff		 mov	 DWORD PTR [esi+52], -1
$L234240:
  00036	8b 46 24	 mov	 eax, DWORD PTR [esi+36]
  00039	85 c0		 test	 eax, eax
  0003b	7e 04		 jle	 SHORT $L234228
  0003d	48		 dec	 eax
  0003e	89 46 24	 mov	 DWORD PTR [esi+36], eax
$L234228:
  00041	8b 46 24	 mov	 eax, DWORD PTR [esi+36]
  00044	85 c0		 test	 eax, eax
  00046	75 14		 jne	 SHORT $L229346
  00048	68 00 00 00 00	 push	 OFFSET FLAT:??_C@_0BJ@FGFPLBDO@CRangda?4ProcessGenerate?3?$AA@
  0004d	e8 00 00 00 00	 call	 ?OutputDebugStringA@election@@YAXPBDZZ ; election::OutputDebugStringA
  00052	83 c4 04	 add	 esp, 4
  00055	8b ce		 mov	 ecx, esi
  00057	e8 00 00 00 00	 call	 ?CreateMonster@CRangda@@AAEXXZ ; CRangda::CreateMonster
$L229346:
  0005c	8b 45 0c	 mov	 eax, DWORD PTR [ebp+12]
  0005f	83 c7 04	 add	 edi, 4
  00062	3b f8		 cmp	 edi, eax
  00064	75 aa		 jne	 SHORT $L234125
  00066	5e		 pop	 esi
$L229347:
  00067	5f		 pop	 edi
  00068	5d		 pop	 ebp

; 185  : }

  00069	c3		 ret	 0
$L234239:
  0006a	50		 push	 eax
  0006b	8b ce		 mov	 ecx, esi
  0006d	e8 00 00 00 00	 call	 ?ProcessReplace@CRangda@@AAEXPAVCMover@@@Z ; CRangda::ProcessReplace
  00072	eb e8		 jmp	 SHORT $L229346
?OnTimer@CRangdaController@@QAEXXZ ENDP			; CRangdaController::OnTimer
_TEXT	ENDS
PUBLIC	??1?$vector@U_RANGDA_POS@@V?$allocator@U_RANGDA_POS@@@std@@@std@@QAE@XZ ; std::vector<_RANGDA_POS,std::allocator<_RANGDA_POS> >::~vector<_RANGDA_POS,std::allocator<_RANGDA_POS> >
; Function compile flags: /Ogty
; File c:\program files\microsoft visual studio .net 2003\vc7\include\vector
;	COMDAT ??1?$vector@U_RANGDA_POS@@V?$allocator@U_RANGDA_POS@@@std@@@std@@QAE@XZ
_TEXT	SEGMENT
??1?$vector@U_RANGDA_POS@@V?$allocator@U_RANGDA_POS@@@std@@@std@@QAE@XZ PROC NEAR ; std::vector<_RANGDA_POS,std::allocator<_RANGDA_POS> >::~vector<_RANGDA_POS,std::allocator<_RANGDA_POS> >, COMDAT
; _this$ = ecx

; 387  : 		{	// destroy the object

  00000	56		 push	 esi
  00001	8b f1		 mov	 esi, ecx

; 388  : 		_Tidy();

  00003	8b 46 04	 mov	 eax, DWORD PTR [esi+4]
  00006	85 c0		 test	 eax, eax
  00008	74 09		 je	 SHORT $L234253
  0000a	50		 push	 eax
  0000b	e8 00 00 00 00	 call	 ??3@YAXPAX@Z		; operator delete
  00010	83 c4 04	 add	 esp, 4
$L234253:
  00013	c7 46 04 00 00
	00 00		 mov	 DWORD PTR [esi+4], 0
  0001a	c7 46 08 00 00
	00 00		 mov	 DWORD PTR [esi+8], 0
  00021	c7 46 0c 00 00
	00 00		 mov	 DWORD PTR [esi+12], 0
  00028	5e		 pop	 esi

; 389  : 		}

  00029	c3		 ret	 0
??1?$vector@U_RANGDA_POS@@V?$allocator@U_RANGDA_POS@@@std@@@std@@QAE@XZ ENDP ; std::vector<_RANGDA_POS,std::allocator<_RANGDA_POS> >::~vector<_RANGDA_POS,std::allocator<_RANGDA_POS> >
_TEXT	ENDS
PUBLIC	??0logic_error@std@@QAE@ABV?$basic_string@DU?$char_traits@D@std@@V?$allocator@D@2@@1@@Z ; std::logic_error::logic_error
