; Listing generated by Microsoft (R) Optimizing Compiler Version 13.10.6030 

	TITLE	\Documents and Settings\test\Mes documents\Source\Virtuos_v17\Build\Program\_Common\Respawn.cpp
	.386P
include listing.inc
if @Version gt 510
.model FLAT
else
_TEXT	SEGMENT PARA USE32 PUBLIC 'CODE'
_TEXT	ENDS
_DATA	SEGMENT DWORD USE32 PUBLIC 'DATA'
_DATA	ENDS
CONST	SEGMENT DWORD USE32 PUBLIC 'CONST'
CONST	ENDS
_BSS	SEGMENT DWORD USE32 PUBLIC 'BSS'
_BSS	ENDS
$$SYMBOLS	SEGMENT BYTE USE32 'DEBSYM'
$$SYMBOLS	ENDS
$$TYPES	SEGMENT BYTE USE32 'DEBTYP'
$$TYPES	ENDS
_TLS	SEGMENT DWORD USE32 PUBLIC 'TLS'
_TLS	ENDS
;	COMDAT ??_C@_0DD@JMBKMANC@CRespawner?3?3Add?5?$LA?$LA?$MA?$LK?5ID?5?$LJ?$NP?$LA?$NP?5?3?5?$CF@
CONST	SEGMENT DWORD USE32 PUBLIC 'CONST'
CONST	ENDS
;	COMDAT ??_C@_0EC@OCJMFDAP@CRespawner?3?3Remove?$LP?$KB?$LM?$KN?5RESPAWN_R@
CONST	SEGMENT DWORD USE32 PUBLIC 'CONST'
CONST	ENDS
;	COMDAT ??_C@_0CA@NLFIDABF@CRespawner?3?3Spawn?$CI?$CJ?7?1?1?50?5index?6?$AA@
CONST	SEGMENT DWORD USE32 PUBLIC 'CONST'
CONST	ENDS
;	COMDAT ??_C@_0BL@ECDHPEEF@?$CFd?5item?5property?5not?5found?$AA@
CONST	SEGMENT DWORD USE32 PUBLIC 'CONST'
CONST	ENDS
;	COMDAT ??_C@_0O@NBAJGPNK@SPAWN?3?5?$CFd?0?5?$CFd?$AA@
CONST	SEGMENT DWORD USE32 PUBLIC 'CONST'
CONST	ENDS
xdata$x	SEGMENT DWORD USE32 PUBLIC 'CONST'
xdata$x	ENDS
text$AFX_COL1	SEGMENT PARA USE32 PUBLIC ''
text$AFX_COL1	ENDS
;	COMDAT ??0CRespawnInfo@@QAE@XZ
_TEXT	SEGMENT PARA USE32 PUBLIC 'CODE'
_TEXT	ENDS
;	COMDAT ??_GCRespawnInfo@@UAEPAXI@Z
_TEXT	SEGMENT PARA USE32 PUBLIC 'CODE'
_TEXT	ENDS
;	COMDAT ??0CRespawnInfo@@QAE@ABV0@@Z
_TEXT	SEGMENT PARA USE32 PUBLIC 'CODE'
_TEXT	ENDS
;	COMDAT ??1CRespawnInfo@@UAE@XZ
_TEXT	SEGMENT PARA USE32 PUBLIC 'CODE'
_TEXT	ENDS
;	COMDAT ?GenResPoint@CRespawnInfo@@QAEHPAVCWorld@@@Z
_TEXT	SEGMENT PARA USE32 PUBLIC 'CODE'
_TEXT	ENDS
;	COMDAT ?GetPos@CRespawnInfo@@QAEXAAUD3DXVECTOR3@@H@Z
_TEXT	SEGMENT PARA USE32 PUBLIC 'CODE'
_TEXT	ENDS
;	COMDAT ?Increment@CRespawnInfo@@QAEXH@Z
_TEXT	SEGMENT PARA USE32 PUBLIC 'CODE'
_TEXT	ENDS
;	COMDAT ??4CRespawnInfo@@QAEAAV0@ABV0@@Z
_TEXT	SEGMENT PARA USE32 PUBLIC 'CODE'
_TEXT	ENDS
;	COMDAT ??0CRespawner@@QAE@XZ
_TEXT	SEGMENT PARA USE32 PUBLIC 'CODE'
_TEXT	ENDS
;	COMDAT ??_GCRespawner@@UAEPAXI@Z
_TEXT	SEGMENT PARA USE32 PUBLIC 'CODE'
_TEXT	ENDS
;	COMDAT ??0CRespawner@@QAE@ABV0@@Z
_TEXT	SEGMENT PARA USE32 PUBLIC 'CODE'
_TEXT	ENDS
;	COMDAT ??1CRespawner@@UAE@XZ
_TEXT	SEGMENT PARA USE32 PUBLIC 'CODE'
_TEXT	ENDS
;	COMDAT ?Add@CRespawner@@QAEHAAVCRespawnInfo@@H@Z
_TEXT	SEGMENT PARA USE32 PUBLIC 'CODE'
_TEXT	ENDS
;	COMDAT ?DoRemove@CRespawner@@AAEHHH@Z
_TEXT	SEGMENT PARA USE32 PUBLIC 'CODE'
_TEXT	ENDS
;	COMDAT ?Remove@CRespawner@@QAEHHH@Z
_TEXT	SEGMENT PARA USE32 PUBLIC 'CODE'
_TEXT	ENDS
;	COMDAT ?GetRespawnInfo@CRespawner@@QAEPAVCRespawnInfo@@HH@Z
_TEXT	SEGMENT PARA USE32 PUBLIC 'CODE'
_TEXT	ENDS
;	COMDAT ?Increment@CRespawner@@QAEXHHH@Z
_TEXT	SEGMENT PARA USE32 PUBLIC 'CODE'
_TEXT	ENDS
;	COMDAT ?Spawn@CRespawner@@QAEKPAVCWorld@@H@Z
_TEXT	SEGMENT PARA USE32 PUBLIC 'CODE'
_TEXT	ENDS
;	COMDAT ??0CLayerdRespawner@@QAE@XZ
_TEXT	SEGMENT PARA USE32 PUBLIC 'CODE'
_TEXT	ENDS
;	COMDAT ??_GCLayerdRespawner@@UAEPAXI@Z
_TEXT	SEGMENT PARA USE32 PUBLIC 'CODE'
_TEXT	ENDS
;	COMDAT ??1?$map@HPAVCRespawner@@U?$less@H@std@@V?$allocator@U?$pair@$$CBHPAVCRespawner@@@std@@@3@@std@@QAE@XZ
_TEXT	SEGMENT PARA USE32 PUBLIC 'CODE'
_TEXT	ENDS
;	COMDAT ??1CLayerdRespawner@@UAE@XZ
_TEXT	SEGMENT PARA USE32 PUBLIC 'CODE'
_TEXT	ENDS
;	COMDAT ?Clear@CLayerdRespawner@@AAEXXZ
_TEXT	SEGMENT PARA USE32 PUBLIC 'CODE'
_TEXT	ENDS
;	COMDAT ?Add@CLayerdRespawner@@QAEHAAVCRespawnInfo@@H@Z
_TEXT	SEGMENT PARA USE32 PUBLIC 'CODE'
_TEXT	ENDS
;	COMDAT ?Remove@CLayerdRespawner@@QAEHHH@Z
_TEXT	SEGMENT PARA USE32 PUBLIC 'CODE'
_TEXT	ENDS
;	COMDAT ?GetRespawnInfo@CLayerdRespawner@@QAEPAVCRespawnInfo@@HHH@Z
_TEXT	SEGMENT PARA USE32 PUBLIC 'CODE'
_TEXT	ENDS
;	COMDAT ?Spawn@CLayerdRespawner@@QAEKPAVCWorld@@@Z
_TEXT	SEGMENT PARA USE32 PUBLIC 'CODE'
_TEXT	ENDS
;	COMDAT ?Increment@CLayerdRespawner@@QAEXHHHH@Z
_TEXT	SEGMENT PARA USE32 PUBLIC 'CODE'
_TEXT	ENDS
;	COMDAT ?Expand@CLayerdRespawner@@QAEXH@Z
_TEXT	SEGMENT PARA USE32 PUBLIC 'CODE'
_TEXT	ENDS
;	COMDAT ?Release@CLayerdRespawner@@QAEXH@Z
_TEXT	SEGMENT PARA USE32 PUBLIC 'CODE'
_TEXT	ENDS
;	COMDAT ?compare@?$basic_string@DU?$char_traits@D@std@@V?$allocator@D@2@@std@@QBEHABV12@@Z
_TEXT	SEGMENT PARA USE32 PUBLIC 'CODE'
_TEXT	ENDS
;	COMDAT ?IsFull@?$CStack@K@@QAEHXZ
_TEXT	SEGMENT PARA USE32 PUBLIC 'CODE'
_TEXT	ENDS
;	COMDAT ??0?$pair@KPAVCCtrl@@@std@@QAE@ABKABQAVCCtrl@@@Z
_TEXT	SEGMENT PARA USE32 PUBLIC 'CODE'
_TEXT	ENDS
;	COMDAT ?GetMax@?$CItemContainer@VCItemElem@@@@QAEHXZ
_TEXT	SEGMENT PARA USE32 PUBLIC 'CODE'
_TEXT	ENDS
;	COMDAT ??0?$deque@PAUtagACTMSG@@V?$allocator@PAUtagACTMSG@@@std@@@std@@QAE@XZ
_TEXT	SEGMENT PARA USE32 PUBLIC 'CODE'
_TEXT	ENDS
;	COMDAT ??1?$deque@PAUtagACTMSG@@V?$allocator@PAUtagACTMSG@@@std@@@std@@QAE@XZ
_TEXT	SEGMENT PARA USE32 PUBLIC 'CODE'
_TEXT	ENDS
;	COMDAT ?begin@?$deque@PAUtagACTMSG@@V?$allocator@PAUtagACTMSG@@@std@@@std@@QAE?AViterator@12@XZ
_TEXT	SEGMENT PARA USE32 PUBLIC 'CODE'
_TEXT	ENDS
;	COMDAT ?end@?$deque@PAUtagACTMSG@@V?$allocator@PAUtagACTMSG@@@std@@@std@@QAE?AViterator@12@XZ
_TEXT	SEGMENT PARA USE32 PUBLIC 'CODE'
_TEXT	ENDS
;	COMDAT ?empty@?$deque@PAUtagACTMSG@@V?$allocator@PAUtagACTMSG@@@std@@@std@@QBE_NXZ
_TEXT	SEGMENT PARA USE32 PUBLIC 'CODE'
_TEXT	ENDS
;	COMDAT ?clear@?$deque@PAUtagACTMSG@@V?$allocator@PAUtagACTMSG@@@std@@@std@@QAEXXZ
_TEXT	SEGMENT PARA USE32 PUBLIC 'CODE'
_TEXT	ENDS
;	COMDAT ??0?$deque@PAUtagMAGICATKMSG@@V?$allocator@PAUtagMAGICATKMSG@@@std@@@std@@QAE@XZ
_TEXT	SEGMENT PARA USE32 PUBLIC 'CODE'
_TEXT	ENDS
;	COMDAT ??1?$deque@PAUtagMAGICATKMSG@@V?$allocator@PAUtagMAGICATKMSG@@@std@@@std@@QAE@XZ
_TEXT	SEGMENT PARA USE32 PUBLIC 'CODE'
_TEXT	ENDS
;	COMDAT ?begin@?$deque@PAUtagMAGICATKMSG@@V?$allocator@PAUtagMAGICATKMSG@@@std@@@std@@QAE?AViterator@12@XZ
_TEXT	SEGMENT PARA USE32 PUBLIC 'CODE'
_TEXT	ENDS
;	COMDAT ?end@?$deque@PAUtagMAGICATKMSG@@V?$allocator@PAUtagMAGICATKMSG@@@std@@@std@@QAE?AViterator@12@XZ
_TEXT	SEGMENT PARA USE32 PUBLIC 'CODE'
_TEXT	ENDS
;	COMDAT ?empty@?$deque@PAUtagMAGICATKMSG@@V?$allocator@PAUtagMAGICATKMSG@@@std@@@std@@QBE_NXZ
_TEXT	SEGMENT PARA USE32 PUBLIC 'CODE'
_TEXT	ENDS
;	COMDAT ?clear@?$deque@PAUtagMAGICATKMSG@@V?$allocator@PAUtagMAGICATKMSG@@@std@@@std@@QAEXXZ
_TEXT	SEGMENT PARA USE32 PUBLIC 'CODE'
_TEXT	ENDS
;	COMDAT ??0?$vector@VCRespawnInfo@@V?$allocator@VCRespawnInfo@@@std@@@std@@QAE@XZ
_TEXT	SEGMENT PARA USE32 PUBLIC 'CODE'
_TEXT	ENDS
;	COMDAT ??1?$vector@VCRespawnInfo@@V?$allocator@VCRespawnInfo@@@std@@@std@@QAE@XZ
_TEXT	SEGMENT PARA USE32 PUBLIC 'CODE'
_TEXT	ENDS
;	COMDAT ?begin@?$vector@VCRespawnInfo@@V?$allocator@VCRespawnInfo@@@std@@@std@@QAE?AViterator@12@XZ
_TEXT	SEGMENT PARA USE32 PUBLIC 'CODE'
_TEXT	ENDS
;	COMDAT ?begin@?$vector@VCRespawnInfo@@V?$allocator@VCRespawnInfo@@@std@@@std@@QBE?AVconst_iterator@12@XZ
_TEXT	SEGMENT PARA USE32 PUBLIC 'CODE'
_TEXT	ENDS
;	COMDAT ?end@?$vector@VCRespawnInfo@@V?$allocator@VCRespawnInfo@@@std@@@std@@QAE?AViterator@12@XZ
_TEXT	SEGMENT PARA USE32 PUBLIC 'CODE'
_TEXT	ENDS
;	COMDAT ?end@?$vector@VCRespawnInfo@@V?$allocator@VCRespawnInfo@@@std@@@std@@QBE?AVconst_iterator@12@XZ
_TEXT	SEGMENT PARA USE32 PUBLIC 'CODE'
_TEXT	ENDS
;	COMDAT ?size@?$vector@VCRespawnInfo@@V?$allocator@VCRespawnInfo@@@std@@@std@@QBEIXZ
_TEXT	SEGMENT PARA USE32 PUBLIC 'CODE'
_TEXT	ENDS
;	COMDAT ??A?$vector@VCRespawnInfo@@V?$allocator@VCRespawnInfo@@@std@@@std@@QAEAAVCRespawnInfo@@I@Z
_TEXT	SEGMENT PARA USE32 PUBLIC 'CODE'
_TEXT	ENDS
;	COMDAT ?push_back@?$vector@VCRespawnInfo@@V?$allocator@VCRespawnInfo@@@std@@@std@@QAEXABVCRespawnInfo@@@Z
_TEXT	SEGMENT PARA USE32 PUBLIC 'CODE'
_TEXT	ENDS
;	COMDAT ?erase@?$vector@VCRespawnInfo@@V?$allocator@VCRespawnInfo@@@std@@@std@@QAE?AViterator@12@V312@@Z
_TEXT	SEGMENT PARA USE32 PUBLIC 'CODE'
_TEXT	ENDS
;	COMDAT ??0?$map@HPAVCRespawner@@U?$less@H@std@@V?$allocator@U?$pair@$$CBHPAVCRespawner@@@std@@@3@@std@@QAE@XZ
_TEXT	SEGMENT PARA USE32 PUBLIC 'CODE'
_TEXT	ENDS
;	COMDAT ??1?$_Tree@V?$_Tmap_traits@HPAVCRespawner@@U?$less@H@std@@V?$allocator@U?$pair@$$CBHPAVCRespawner@@@std@@@3@$0A@@std@@@std@@QAE@XZ
_TEXT	SEGMENT PARA USE32 PUBLIC 'CODE'
_TEXT	ENDS
;	COMDAT ?begin@?$_Tree@V?$_Tmap_traits@HPAVCRespawner@@U?$less@H@std@@V?$allocator@U?$pair@$$CBHPAVCRespawner@@@std@@@3@$0A@@std@@@std@@QAE?AViterator@12@XZ
_TEXT	SEGMENT PARA USE32 PUBLIC 'CODE'
_TEXT	ENDS
;	COMDAT ?end@?$_Tree@V?$_Tmap_traits@HPAVCRespawner@@U?$less@H@std@@V?$allocator@U?$pair@$$CBHPAVCRespawner@@@std@@@3@$0A@@std@@@std@@QAE?AViterator@12@XZ
_TEXT	SEGMENT PARA USE32 PUBLIC 'CODE'
_TEXT	ENDS
;	COMDAT ?insert@?$_Tree@V?$_Tmap_traits@HPAVCRespawner@@U?$less@H@std@@V?$allocator@U?$pair@$$CBHPAVCRespawner@@@std@@@3@$0A@@std@@@std@@QAE?AU?$pair@Viterator@?$_Tree@V?$_Tmap_traits@HPAVCRespawner@@U?$less@H@std@@V?$allocator@U?$pair@$$CBHPAVCRespawner@@@std@@@3@$0A@@std@@@std@@_N@2@ABU?$pair@$$CBHPAVCRespawner@@@2@@Z
_TEXT	SEGMENT PARA USE32 PUBLIC 'CODE'
_TEXT	ENDS
;	COMDAT ?erase@?$_Tree@V?$_Tmap_traits@HPAVCRespawner@@U?$less@H@std@@V?$allocator@U?$pair@$$CBHPAVCRespawner@@@std@@@3@$0A@@std@@@std@@QAE?AViterator@12@V312@@Z
_TEXT	SEGMENT PARA USE32 PUBLIC 'CODE'
_TEXT	ENDS
;	COMDAT ?clear@?$_Tree@V?$_Tmap_traits@HPAVCRespawner@@U?$less@H@std@@V?$allocator@U?$pair@$$CBHPAVCRespawner@@@std@@@3@$0A@@std@@@std@@QAEXXZ
_TEXT	SEGMENT PARA USE32 PUBLIC 'CODE'
_TEXT	ENDS
;	COMDAT ?find@?$_Tree@V?$_Tmap_traits@HPAVCRespawner@@U?$less@H@std@@V?$allocator@U?$pair@$$CBHPAVCRespawner@@@std@@@3@$0A@@std@@@std@@QAE?AViterator@12@ABH@Z
_TEXT	SEGMENT PARA USE32 PUBLIC 'CODE'
_TEXT	ENDS
;	COMDAT ??Diterator@?$deque@PAUtagACTMSG@@V?$allocator@PAUtagACTMSG@@@std@@@std@@QBEAAPAUtagACTMSG@@XZ
_TEXT	SEGMENT PARA USE32 PUBLIC 'CODE'
_TEXT	ENDS
;	COMDAT ??Eiterator@?$deque@PAUtagACTMSG@@V?$allocator@PAUtagACTMSG@@@std@@@std@@QAEAAV012@XZ
_TEXT	SEGMENT PARA USE32 PUBLIC 'CODE'
_TEXT	ENDS
;	COMDAT ??9const_iterator@?$deque@PAUtagACTMSG@@V?$allocator@PAUtagACTMSG@@@std@@@std@@QBE_NABV012@@Z
_TEXT	SEGMENT PARA USE32 PUBLIC 'CODE'
_TEXT	ENDS
;	COMDAT ??Diterator@?$deque@PAUtagMAGICATKMSG@@V?$allocator@PAUtagMAGICATKMSG@@@std@@@std@@QBEAAPAUtagMAGICATKMSG@@XZ
_TEXT	SEGMENT PARA USE32 PUBLIC 'CODE'
_TEXT	ENDS
;	COMDAT ??Eiterator@?$deque@PAUtagMAGICATKMSG@@V?$allocator@PAUtagMAGICATKMSG@@@std@@@std@@QAEAAV012@XZ
_TEXT	SEGMENT PARA USE32 PUBLIC 'CODE'
_TEXT	ENDS
;	COMDAT ??9const_iterator@?$deque@PAUtagMAGICATKMSG@@V?$allocator@PAUtagMAGICATKMSG@@@std@@@std@@QBE_NABV012@@Z
_TEXT	SEGMENT PARA USE32 PUBLIC 'CODE'
_TEXT	ENDS
;	COMDAT ??9const_iterator@?$vector@VCRespawnInfo@@V?$allocator@VCRespawnInfo@@@std@@@std@@QBE_NABV012@@Z
_TEXT	SEGMENT PARA USE32 PUBLIC 'CODE'
_TEXT	ENDS
;	COMDAT ??Diterator@?$vector@VCRespawnInfo@@V?$allocator@VCRespawnInfo@@@std@@@std@@QBEAAVCRespawnInfo@@XZ
_TEXT	SEGMENT PARA USE32 PUBLIC 'CODE'
_TEXT	ENDS
;	COMDAT ??Eiterator@?$vector@VCRespawnInfo@@V?$allocator@VCRespawnInfo@@@std@@@std@@QAEAAV012@XZ
_TEXT	SEGMENT PARA USE32 PUBLIC 'CODE'
_TEXT	ENDS
;	COMDAT ??Citerator@?$_Tree@V?$_Tmap_traits@HPAVCRespawner@@U?$less@H@std@@V?$allocator@U?$pair@$$CBHPAVCRespawner@@@std@@@3@$0A@@std@@@std@@QBEPAU?$pair@$$CBHPAVCRespawner@@@2@XZ
_TEXT	SEGMENT PARA USE32 PUBLIC 'CODE'
_TEXT	ENDS
;	COMDAT ??Eiterator@?$_Tree@V?$_Tmap_traits@HPAVCRespawner@@U?$less@H@std@@V?$allocator@U?$pair@$$CBHPAVCRespawner@@@std@@@3@$0A@@std@@@std@@QAEAAV012@XZ
_TEXT	SEGMENT PARA USE32 PUBLIC 'CODE'
_TEXT	ENDS
;	COMDAT ??8const_iterator@?$_Tree@V?$_Tmap_traits@HPAVCRespawner@@U?$less@H@std@@V?$allocator@U?$pair@$$CBHPAVCRespawner@@@std@@@3@$0A@@std@@@std@@QBE_NABV012@@Z
_TEXT	SEGMENT PARA USE32 PUBLIC 'CODE'
_TEXT	ENDS
;	COMDAT ??9const_iterator@?$_Tree@V?$_Tmap_traits@HPAVCRespawner@@U?$less@H@std@@V?$allocator@U?$pair@$$CBHPAVCRespawner@@@std@@@3@$0A@@std@@@std@@QBE_NABV012@@Z
_TEXT	SEGMENT PARA USE32 PUBLIC 'CODE'
_TEXT	ENDS
;	COMDAT ??0?$pair@$$CBHPAVCRespawner@@@std@@QAE@ABHABQAVCRespawner@@@Z
_TEXT	SEGMENT PARA USE32 PUBLIC 'CODE'
_TEXT	ENDS
;	COMDAT ?compare@?$basic_string@DU?$char_traits@D@std@@V?$allocator@D@2@@std@@QBEHIIPBDI@Z
_TEXT	SEGMENT PARA USE32 PUBLIC 'CODE'
_TEXT	ENDS
;	COMDAT ?_Tidy@?$deque@PAUtagACTMSG@@V?$allocator@PAUtagACTMSG@@@std@@@std@@IAEXXZ
_TEXT	SEGMENT PARA USE32 PUBLIC 'CODE'
_TEXT	ENDS
;	COMDAT ??0?$_Deque_val@PAUtagACTMSG@@V?$allocator@PAUtagACTMSG@@@std@@@std@@IAE@V?$allocator@PAUtagACTMSG@@@1@@Z
_TEXT	SEGMENT PARA USE32 PUBLIC 'CODE'
_TEXT	ENDS
;	COMDAT ??0?$allocator@PAUtagACTMSG@@@std@@QAE@XZ
_TEXT	SEGMENT PARA USE32 PUBLIC 'CODE'
_TEXT	ENDS
;	COMDAT ?_Tidy@?$deque@PAUtagMAGICATKMSG@@V?$allocator@PAUtagMAGICATKMSG@@@std@@@std@@IAEXXZ
_TEXT	SEGMENT PARA USE32 PUBLIC 'CODE'
_TEXT	ENDS
;	COMDAT ??0?$_Deque_val@PAUtagMAGICATKMSG@@V?$allocator@PAUtagMAGICATKMSG@@@std@@@std@@IAE@V?$allocator@PAUtagMAGICATKMSG@@@1@@Z
_TEXT	SEGMENT PARA USE32 PUBLIC 'CODE'
_TEXT	ENDS
;	COMDAT ??0?$allocator@PAUtagMAGICATKMSG@@@std@@QAE@XZ
_TEXT	SEGMENT PARA USE32 PUBLIC 'CODE'
_TEXT	ENDS
;	COMDAT ?capacity@?$vector@VCRespawnInfo@@V?$allocator@VCRespawnInfo@@@std@@@std@@QBEIXZ
_TEXT	SEGMENT PARA USE32 PUBLIC 'CODE'
_TEXT	ENDS
;	COMDAT ?insert@?$vector@VCRespawnInfo@@V?$allocator@VCRespawnInfo@@@std@@@std@@QAE?AViterator@12@V312@ABVCRespawnInfo@@@Z
_TEXT	SEGMENT PARA USE32 PUBLIC 'CODE'
_TEXT	ENDS
;	COMDAT ?_Buy@?$vector@VCRespawnInfo@@V?$allocator@VCRespawnInfo@@@std@@@std@@IAE_NI@Z
_TEXT	SEGMENT PARA USE32 PUBLIC 'CODE'
_TEXT	ENDS
;	COMDAT ?_Destroy@?$vector@VCRespawnInfo@@V?$allocator@VCRespawnInfo@@@std@@@std@@IAEXPAVCRespawnInfo@@0@Z
_TEXT	SEGMENT PARA USE32 PUBLIC 'CODE'
_TEXT	ENDS
;	COMDAT ?_Tidy@?$vector@VCRespawnInfo@@V?$allocator@VCRespawnInfo@@@std@@@std@@IAEXXZ
_TEXT	SEGMENT PARA USE32 PUBLIC 'CODE'
_TEXT	ENDS
;	COMDAT ?_Ufill@?$vector@VCRespawnInfo@@V?$allocator@VCRespawnInfo@@@std@@@std@@IAEPAVCRespawnInfo@@PAV3@IABV3@@Z
_TEXT	SEGMENT PARA USE32 PUBLIC 'CODE'
_TEXT	ENDS
;	COMDAT ??0?$_Vector_val@VCRespawnInfo@@V?$allocator@VCRespawnInfo@@@std@@@std@@IAE@V?$allocator@VCRespawnInfo@@@1@@Z
_TEXT	SEGMENT PARA USE32 PUBLIC 'CODE'
_TEXT	ENDS
;	COMDAT ??0?$allocator@VCRespawnInfo@@@std@@QAE@XZ
_TEXT	SEGMENT PARA USE32 PUBLIC 'CODE'
_TEXT	ENDS
;	COMDAT ?_Color@?$_Tree@V?$_Tmap_traits@HPAVCRespawner@@U?$less@H@std@@V?$allocator@U?$pair@$$CBHPAVCRespawner@@@std@@@3@$0A@@std@@@std@@KAAADPAU_Node@?$_Tree_nod@V?$_Tmap_traits@HPAVCRespawner@@U?$less@H@std@@V?$allocator@U?$pair@$$CBHPAVCRespawner@@@std@@@3@$0A@@std@@@2@@Z
_TEXT	SEGMENT PARA USE32 PUBLIC 'CODE'
_TEXT	ENDS
;	COMDAT ?_Isnil@?$_Tree@V?$_Tmap_traits@HPAVCRespawner@@U?$less@H@std@@V?$allocator@U?$pair@$$CBHPAVCRespawner@@@std@@@3@$0A@@std@@@std@@KAAADPAU_Node@?$_Tree_nod@V?$_Tmap_traits@HPAVCRespawner@@U?$less@H@std@@V?$allocator@U?$pair@$$CBHPAVCRespawner@@@std@@@3@$0A@@std@@@2@@Z
_TEXT	SEGMENT PARA USE32 PUBLIC 'CODE'
_TEXT	ENDS
;	COMDAT ?_Key@?$_Tree@V?$_Tmap_traits@HPAVCRespawner@@U?$less@H@std@@V?$allocator@U?$pair@$$CBHPAVCRespawner@@@std@@@3@$0A@@std@@@std@@KAABHPAU_Node@?$_Tree_nod@V?$_Tmap_traits@HPAVCRespawner@@U?$less@H@std@@V?$allocator@U?$pair@$$CBHPAVCRespawner@@@std@@@3@$0A@@std@@@2@@Z
_TEXT	SEGMENT PARA USE32 PUBLIC 'CODE'
_TEXT	ENDS
;	COMDAT ?_Left@?$_Tree@V?$_Tmap_traits@HPAVCRespawner@@U?$less@H@std@@V?$allocator@U?$pair@$$CBHPAVCRespawner@@@std@@@3@$0A@@std@@@std@@KAAAPAU_Node@?$_Tree_nod@V?$_Tmap_traits@HPAVCRespawner@@U?$less@H@std@@V?$allocator@U?$pair@$$CBHPAVCRespawner@@@std@@@3@$0A@@std@@@2@PAU342@@Z
_TEXT	SEGMENT PARA USE32 PUBLIC 'CODE'
_TEXT	ENDS
;	COMDAT ?_Parent@?$_Tree@V?$_Tmap_traits@HPAVCRespawner@@U?$less@H@std@@V?$allocator@U?$pair@$$CBHPAVCRespawner@@@std@@@3@$0A@@std@@@std@@KAAAPAU_Node@?$_Tree_nod@V?$_Tmap_traits@HPAVCRespawner@@U?$less@H@std@@V?$allocator@U?$pair@$$CBHPAVCRespawner@@@std@@@3@$0A@@std@@@2@PAU342@@Z
_TEXT	SEGMENT PARA USE32 PUBLIC 'CODE'
_TEXT	ENDS
;	COMDAT ?_Right@?$_Tree@V?$_Tmap_traits@HPAVCRespawner@@U?$less@H@std@@V?$allocator@U?$pair@$$CBHPAVCRespawner@@@std@@@3@$0A@@std@@@std@@KAAAPAU_Node@?$_Tree_nod@V?$_Tmap_traits@HPAVCRespawner@@U?$less@H@std@@V?$allocator@U?$pair@$$CBHPAVCRespawner@@@std@@@3@$0A@@std@@@2@PAU342@@Z
_TEXT	SEGMENT PARA USE32 PUBLIC 'CODE'
_TEXT	ENDS
;	COMDAT ??0?$_Tree@V?$_Tmap_traits@HPAVCRespawner@@U?$less@H@std@@V?$allocator@U?$pair@$$CBHPAVCRespawner@@@std@@@3@$0A@@std@@@std@@QAE@ABU?$less@H@1@ABV?$allocator@U?$pair@$$CBHPAVCRespawner@@@std@@@1@@Z
_TEXT	SEGMENT PARA USE32 PUBLIC 'CODE'
_TEXT	ENDS
;	COMDAT ?lower_bound@?$_Tree@V?$_Tmap_traits@HPAVCRespawner@@U?$less@H@std@@V?$allocator@U?$pair@$$CBHPAVCRespawner@@@std@@@3@$0A@@std@@@std@@QAE?AViterator@12@ABH@Z
_TEXT	SEGMENT PARA USE32 PUBLIC 'CODE'
_TEXT	ENDS
;	COMDAT ?_Erase@?$_Tree@V?$_Tmap_traits@HPAVCRespawner@@U?$less@H@std@@V?$allocator@U?$pair@$$CBHPAVCRespawner@@@std@@@3@$0A@@std@@@std@@IAEXPAU_Node@?$_Tree_nod@V?$_Tmap_traits@HPAVCRespawner@@U?$less@H@std@@V?$allocator@U?$pair@$$CBHPAVCRespawner@@@std@@@3@$0A@@std@@@2@@Z
_TEXT	SEGMENT PARA USE32 PUBLIC 'CODE'
_TEXT	ENDS
;	COMDAT ?_Insert@?$_Tree@V?$_Tmap_traits@HPAVCRespawner@@U?$less@H@std@@V?$allocator@U?$pair@$$CBHPAVCRespawner@@@std@@@3@$0A@@std@@@std@@IAE?AViterator@12@_NPAU_Node@?$_Tree_nod@V?$_Tmap_traits@HPAVCRespawner@@U?$less@H@std@@V?$allocator@U?$pair@$$CBHPAVCRespawner@@@std@@@3@$0A@@std@@@2@ABU?$pair@$$CBHPAVCRespawner@@@2@@Z
_TEXT	SEGMENT PARA USE32 PUBLIC 'CODE'
_TEXT	ENDS
;	COMDAT ?_Lmost@?$_Tree@V?$_Tmap_traits@HPAVCRespawner@@U?$less@H@std@@V?$allocator@U?$pair@$$CBHPAVCRespawner@@@std@@@3@$0A@@std@@@std@@IAEAAPAU_Node@?$_Tree_nod@V?$_Tmap_traits@HPAVCRespawner@@U?$less@H@std@@V?$allocator@U?$pair@$$CBHPAVCRespawner@@@std@@@3@$0A@@std@@@2@XZ
_TEXT	SEGMENT PARA USE32 PUBLIC 'CODE'
_TEXT	ENDS
;	COMDAT ?_Lrotate@?$_Tree@V?$_Tmap_traits@HPAVCRespawner@@U?$less@H@std@@V?$allocator@U?$pair@$$CBHPAVCRespawner@@@std@@@3@$0A@@std@@@std@@IAEXPAU_Node@?$_Tree_nod@V?$_Tmap_traits@HPAVCRespawner@@U?$less@H@std@@V?$allocator@U?$pair@$$CBHPAVCRespawner@@@std@@@3@$0A@@std@@@2@@Z
_TEXT	SEGMENT PARA USE32 PUBLIC 'CODE'
_TEXT	ENDS
;	COMDAT ?_Max@?$_Tree@V?$_Tmap_traits@HPAVCRespawner@@U?$less@H@std@@V?$allocator@U?$pair@$$CBHPAVCRespawner@@@std@@@3@$0A@@std@@@std@@KAPAU_Node@?$_Tree_nod@V?$_Tmap_traits@HPAVCRespawner@@U?$less@H@std@@V?$allocator@U?$pair@$$CBHPAVCRespawner@@@std@@@3@$0A@@std@@@2@PAU342@@Z
_TEXT	SEGMENT PARA USE32 PUBLIC 'CODE'
_TEXT	ENDS
;	COMDAT ?_Min@?$_Tree@V?$_Tmap_traits@HPAVCRespawner@@U?$less@H@std@@V?$allocator@U?$pair@$$CBHPAVCRespawner@@@std@@@3@$0A@@std@@@std@@KAPAU_Node@?$_Tree_nod@V?$_Tmap_traits@HPAVCRespawner@@U?$less@H@std@@V?$allocator@U?$pair@$$CBHPAVCRespawner@@@std@@@3@$0A@@std@@@2@PAU342@@Z
_TEXT	SEGMENT PARA USE32 PUBLIC 'CODE'
_TEXT	ENDS
;	COMDAT ?_Rmost@?$_Tree@V?$_Tmap_traits@HPAVCRespawner@@U?$less@H@std@@V?$allocator@U?$pair@$$CBHPAVCRespawner@@@std@@@3@$0A@@std@@@std@@IAEAAPAU_Node@?$_Tree_nod@V?$_Tmap_traits@HPAVCRespawner@@U?$less@H@std@@V?$allocator@U?$pair@$$CBHPAVCRespawner@@@std@@@3@$0A@@std@@@2@XZ
_TEXT	SEGMENT PARA USE32 PUBLIC 'CODE'
_TEXT	ENDS
;	COMDAT ?_Root@?$_Tree@V?$_Tmap_traits@HPAVCRespawner@@U?$less@H@std@@V?$allocator@U?$pair@$$CBHPAVCRespawner@@@std@@@3@$0A@@std@@@std@@IAEAAPAU_Node@?$_Tree_nod@V?$_Tmap_traits@HPAVCRespawner@@U?$less@H@std@@V?$allocator@U?$pair@$$CBHPAVCRespawner@@@std@@@3@$0A@@std@@@2@XZ
_TEXT	SEGMENT PARA USE32 PUBLIC 'CODE'
_TEXT	ENDS
;	COMDAT ?_Rrotate@?$_Tree@V?$_Tmap_traits@HPAVCRespawner@@U?$less@H@std@@V?$allocator@U?$pair@$$CBHPAVCRespawner@@@std@@@3@$0A@@std@@@std@@IAEXPAU_Node@?$_Tree_nod@V?$_Tmap_traits@HPAVCRespawner@@U?$less@H@std@@V?$allocator@U?$pair@$$CBHPAVCRespawner@@@std@@@3@$0A@@std@@@2@@Z
_TEXT	SEGMENT PARA USE32 PUBLIC 'CODE'
_TEXT	ENDS
;	COMDAT ?_Tidy@?$_Tree@V?$_Tmap_traits@HPAVCRespawner@@U?$less@H@std@@V?$allocator@U?$pair@$$CBHPAVCRespawner@@@std@@@3@$0A@@std@@@std@@IAEXXZ
_TEXT	SEGMENT PARA USE32 PUBLIC 'CODE'
_TEXT	ENDS
;	COMDAT ?_Kfn@?$_Tmap_traits@HPAVCRespawner@@U?$less@H@std@@V?$allocator@U?$pair@$$CBHPAVCRespawner@@@std@@@3@$0A@@std@@SAABHABU?$pair@$$CBHPAVCRespawner@@@2@@Z
_TEXT	SEGMENT PARA USE32 PUBLIC 'CODE'
_TEXT	ENDS
;	COMDAT ??0?$allocator@U?$pair@$$CBHPAVCRespawner@@@std@@@std@@QAE@XZ
_TEXT	SEGMENT PARA USE32 PUBLIC 'CODE'
_TEXT	ENDS
;	COMDAT ?deallocate@?$allocator@U_Node@?$_Tree_nod@V?$_Tmap_traits@HPAVCRespawner@@U?$less@H@std@@V?$allocator@U?$pair@$$CBHPAVCRespawner@@@std@@@3@$0A@@std@@@std@@@std@@QAEXPAU_Node@?$_Tree_nod@V?$_Tmap_traits@HPAVCRespawner@@U?$less@H@std@@V?$allocator@U?$pair@$$CBHPAVCRespawner@@@std@@@3@$0A@@std@@@2@I@Z
_TEXT	SEGMENT PARA USE32 PUBLIC 'CODE'
_TEXT	ENDS
;	COMDAT ?destroy@?$allocator@U_Node@?$_Tree_nod@V?$_Tmap_traits@HPAVCRespawner@@U?$less@H@std@@V?$allocator@U?$pair@$$CBHPAVCRespawner@@@std@@@3@$0A@@std@@@std@@@std@@QAEXPAU_Node@?$_Tree_nod@V?$_Tmap_traits@HPAVCRespawner@@U?$less@H@std@@V?$allocator@U?$pair@$$CBHPAVCRespawner@@@std@@@3@$0A@@std@@@2@@Z
_TEXT	SEGMENT PARA USE32 PUBLIC 'CODE'
_TEXT	ENDS
;	COMDAT ??0iterator@?$deque@PAUtagACTMSG@@V?$allocator@PAUtagACTMSG@@@std@@@std@@QAE@IPBV12@@Z
_TEXT	SEGMENT PARA USE32 PUBLIC 'CODE'
_TEXT	ENDS
;	COMDAT ??Dconst_iterator@?$deque@PAUtagACTMSG@@V?$allocator@PAUtagACTMSG@@@std@@@std@@QBEABQAUtagACTMSG@@XZ
_TEXT	SEGMENT PARA USE32 PUBLIC 'CODE'
_TEXT	ENDS
;	COMDAT ??8const_iterator@?$deque@PAUtagACTMSG@@V?$allocator@PAUtagACTMSG@@@std@@@std@@QBE_NABV012@@Z
_TEXT	SEGMENT PARA USE32 PUBLIC 'CODE'
_TEXT	ENDS
;	COMDAT ??0iterator@?$deque@PAUtagMAGICATKMSG@@V?$allocator@PAUtagMAGICATKMSG@@@std@@@std@@QAE@IPBV12@@Z
_TEXT	SEGMENT PARA USE32 PUBLIC 'CODE'
_TEXT	ENDS
;	COMDAT ??Dconst_iterator@?$deque@PAUtagMAGICATKMSG@@V?$allocator@PAUtagMAGICATKMSG@@@std@@@std@@QBEABQAUtagMAGICATKMSG@@XZ
_TEXT	SEGMENT PARA USE32 PUBLIC 'CODE'
_TEXT	ENDS
;	COMDAT ??8const_iterator@?$deque@PAUtagMAGICATKMSG@@V?$allocator@PAUtagMAGICATKMSG@@@std@@@std@@QBE_NABV012@@Z
_TEXT	SEGMENT PARA USE32 PUBLIC 'CODE'
_TEXT	ENDS
;	COMDAT ??0const_iterator@?$vector@VCRespawnInfo@@V?$allocator@VCRespawnInfo@@@std@@@std@@QAE@PAVCRespawnInfo@@@Z
_TEXT	SEGMENT PARA USE32 PUBLIC 'CODE'
_TEXT	ENDS
;	COMDAT ??Dconst_iterator@?$vector@VCRespawnInfo@@V?$allocator@VCRespawnInfo@@@std@@@std@@QBEABVCRespawnInfo@@XZ
_TEXT	SEGMENT PARA USE32 PUBLIC 'CODE'
_TEXT	ENDS
;	COMDAT ??8const_iterator@?$vector@VCRespawnInfo@@V?$allocator@VCRespawnInfo@@@std@@@std@@QBE_NABV012@@Z
_TEXT	SEGMENT PARA USE32 PUBLIC 'CODE'
_TEXT	ENDS
;	COMDAT ??0iterator@?$vector@VCRespawnInfo@@V?$allocator@VCRespawnInfo@@@std@@@std@@QAE@PAVCRespawnInfo@@@Z
_TEXT	SEGMENT PARA USE32 PUBLIC 'CODE'
_TEXT	ENDS
;	COMDAT ??Hiterator@?$vector@VCRespawnInfo@@V?$allocator@VCRespawnInfo@@@std@@@std@@QBE?AV012@H@Z
_TEXT	SEGMENT PARA USE32 PUBLIC 'CODE'
_TEXT	ENDS
;	COMDAT ??0iterator@?$_Tree@V?$_Tmap_traits@HPAVCRespawner@@U?$less@H@std@@V?$allocator@U?$pair@$$CBHPAVCRespawner@@@std@@@3@$0A@@std@@@std@@QAE@PAU_Node@?$_Tree_nod@V?$_Tmap_traits@HPAVCRespawner@@U?$less@H@std@@V?$allocator@U?$pair@$$CBHPAVCRespawner@@@std@@@3@$0A@@std@@@2@@Z
_TEXT	SEGMENT PARA USE32 PUBLIC 'CODE'
_TEXT	ENDS
;	COMDAT ??Diterator@?$_Tree@V?$_Tmap_traits@HPAVCRespawner@@U?$less@H@std@@V?$allocator@U?$pair@$$CBHPAVCRespawner@@@std@@@3@$0A@@std@@@std@@QBEAAU?$pair@$$CBHPAVCRespawner@@@2@XZ
_TEXT	SEGMENT PARA USE32 PUBLIC 'CODE'
_TEXT	ENDS
;	COMDAT ??Fiterator@?$_Tree@V?$_Tmap_traits@HPAVCRespawner@@U?$less@H@std@@V?$allocator@U?$pair@$$CBHPAVCRespawner@@@std@@@3@$0A@@std@@@std@@QAEAAV012@XZ
_TEXT	SEGMENT PARA USE32 PUBLIC 'CODE'
_TEXT	ENDS
;	COMDAT ??Econst_iterator@?$_Tree@V?$_Tmap_traits@HPAVCRespawner@@U?$less@H@std@@V?$allocator@U?$pair@$$CBHPAVCRespawner@@@std@@@3@$0A@@std@@@std@@QAEAAV012@XZ
_TEXT	SEGMENT PARA USE32 PUBLIC 'CODE'
_TEXT	ENDS
;	COMDAT ?_Mynode@const_iterator@?$_Tree@V?$_Tmap_traits@HPAVCRespawner@@U?$less@H@std@@V?$allocator@U?$pair@$$CBHPAVCRespawner@@@std@@@3@$0A@@std@@@std@@QBEPAU_Node@?$_Tree_nod@V?$_Tmap_traits@HPAVCRespawner@@U?$less@H@std@@V?$allocator@U?$pair@$$CBHPAVCRespawner@@@std@@@3@$0A@@std@@@3@XZ
_TEXT	SEGMENT PARA USE32 PUBLIC 'CODE'
_TEXT	ENDS
;	COMDAT ??0?$pair@Viterator@?$_Tree@V?$_Tmap_traits@HPAVCRespawner@@U?$less@H@std@@V?$allocator@U?$pair@$$CBHPAVCRespawner@@@std@@@3@$0A@@std@@@std@@_N@std@@QAE@ABViterator@?$_Tree@V?$_Tmap_traits@HPAVCRespawner@@U?$less@H@std@@V?$allocator@U?$pair@$$CBHPAVCRespawner@@@std@@@3@$0A@@std@@@1@AB_N@Z
_TEXT	SEGMENT PARA USE32 PUBLIC 'CODE'
_TEXT	ENDS
;	COMDAT ?pop_back@?$deque@PAUtagACTMSG@@V?$allocator@PAUtagACTMSG@@@std@@@std@@QAEXXZ
_TEXT	SEGMENT PARA USE32 PUBLIC 'CODE'
_TEXT	ENDS
;	COMDAT ??0?$_Deque_map@PAUtagACTMSG@@V?$allocator@PAUtagACTMSG@@@std@@@std@@IAE@V?$allocator@PAUtagACTMSG@@@1@@Z
_TEXT	SEGMENT PARA USE32 PUBLIC 'CODE'
_TEXT	ENDS
;	COMDAT ??0?$allocator@PAUtagACTMSG@@@std@@QAE@ABV01@@Z
_TEXT	SEGMENT PARA USE32 PUBLIC 'CODE'
_TEXT	ENDS
;	COMDAT ?deallocate@?$allocator@PAUtagACTMSG@@@std@@QAEXPAPAUtagACTMSG@@I@Z
_TEXT	SEGMENT PARA USE32 PUBLIC 'CODE'
_TEXT	ENDS
;	COMDAT ?deallocate@?$allocator@PAPAUtagACTMSG@@@std@@QAEXPAPAPAUtagACTMSG@@I@Z
_TEXT	SEGMENT PARA USE32 PUBLIC 'CODE'
_TEXT	ENDS
;	COMDAT ?destroy@?$allocator@PAPAUtagACTMSG@@@std@@QAEXPAPAPAUtagACTMSG@@@Z
_TEXT	SEGMENT PARA USE32 PUBLIC 'CODE'
_TEXT	ENDS
;	COMDAT ?pop_back@?$deque@PAUtagMAGICATKMSG@@V?$allocator@PAUtagMAGICATKMSG@@@std@@@std@@QAEXXZ
_TEXT	SEGMENT PARA USE32 PUBLIC 'CODE'
_TEXT	ENDS
;	COMDAT ??0?$_Deque_map@PAUtagMAGICATKMSG@@V?$allocator@PAUtagMAGICATKMSG@@@std@@@std@@IAE@V?$allocator@PAUtagMAGICATKMSG@@@1@@Z
_TEXT	SEGMENT PARA USE32 PUBLIC 'CODE'
_TEXT	ENDS
;	COMDAT ??0?$allocator@PAUtagMAGICATKMSG@@@std@@QAE@ABV01@@Z
_TEXT	SEGMENT PARA USE32 PUBLIC 'CODE'
_TEXT	ENDS
;	COMDAT ?deallocate@?$allocator@PAUtagMAGICATKMSG@@@std@@QAEXPAPAUtagMAGICATKMSG@@I@Z
_TEXT	SEGMENT PARA USE32 PUBLIC 'CODE'
_TEXT	ENDS
;	COMDAT ?deallocate@?$allocator@PAPAUtagMAGICATKMSG@@@std@@QAEXPAPAPAUtagMAGICATKMSG@@I@Z
_TEXT	SEGMENT PARA USE32 PUBLIC 'CODE'
_TEXT	ENDS
;	COMDAT ?destroy@?$allocator@PAPAUtagMAGICATKMSG@@@std@@QAEXPAPAPAUtagMAGICATKMSG@@@Z
_TEXT	SEGMENT PARA USE32 PUBLIC 'CODE'
_TEXT	ENDS
;	COMDAT ?max_size@?$vector@VCRespawnInfo@@V?$allocator@VCRespawnInfo@@@std@@@std@@QBEIXZ
_TEXT	SEGMENT PARA USE32 PUBLIC 'CODE'
_TEXT	ENDS
;	COMDAT ?_Insert_n@?$vector@VCRespawnInfo@@V?$allocator@VCRespawnInfo@@@std@@@std@@IAEXViterator@12@IABVCRespawnInfo@@@Z
_TEXT	SEGMENT PARA USE32 PUBLIC 'CODE'
_TEXT	ENDS
;	COMDAT ?_Xlen@?$vector@VCRespawnInfo@@V?$allocator@VCRespawnInfo@@@std@@@std@@IBEXXZ
_TEXT	SEGMENT PARA USE32 PUBLIC 'CODE'
_TEXT	ENDS
;	COMDAT ??0?$allocator@VCRespawnInfo@@@std@@QAE@ABV01@@Z
_TEXT	SEGMENT PARA USE32 PUBLIC 'CODE'
_TEXT	ENDS
;	COMDAT ?deallocate@?$allocator@VCRespawnInfo@@@std@@QAEXPAVCRespawnInfo@@I@Z
_TEXT	SEGMENT PARA USE32 PUBLIC 'CODE'
_TEXT	ENDS
;	COMDAT ?allocate@?$allocator@VCRespawnInfo@@@std@@QAEPAVCRespawnInfo@@I@Z
_TEXT	SEGMENT PARA USE32 PUBLIC 'CODE'
_TEXT	ENDS
;	COMDAT ?_Myval@?$_Tree@V?$_Tmap_traits@HPAVCRespawner@@U?$less@H@std@@V?$allocator@U?$pair@$$CBHPAVCRespawner@@@std@@@3@$0A@@std@@@std@@KAAAU?$pair@$$CBHPAVCRespawner@@@2@PAU_Node@?$_Tree_nod@V?$_Tmap_traits@HPAVCRespawner@@U?$less@H@std@@V?$allocator@U?$pair@$$CBHPAVCRespawner@@@std@@@3@$0A@@std@@@2@@Z
_TEXT	SEGMENT PARA USE32 PUBLIC 'CODE'
_TEXT	ENDS
;	COMDAT ?max_size@?$_Tree@V?$_Tmap_traits@HPAVCRespawner@@U?$less@H@std@@V?$allocator@U?$pair@$$CBHPAVCRespawner@@@std@@@3@$0A@@std@@@std@@QBEIXZ
_TEXT	SEGMENT PARA USE32 PUBLIC 'CODE'
_TEXT	ENDS
;	COMDAT ?erase@?$_Tree@V?$_Tmap_traits@HPAVCRespawner@@U?$less@H@std@@V?$allocator@U?$pair@$$CBHPAVCRespawner@@@std@@@3@$0A@@std@@@std@@QAE?AViterator@12@V312@0@Z
_TEXT	SEGMENT PARA USE32 PUBLIC 'CODE'
_TEXT	ENDS
;	COMDAT ?_Init@?$_Tree@V?$_Tmap_traits@HPAVCRespawner@@U?$less@H@std@@V?$allocator@U?$pair@$$CBHPAVCRespawner@@@std@@@3@$0A@@std@@@std@@IAEXXZ
_TEXT	SEGMENT PARA USE32 PUBLIC 'CODE'
_TEXT	ENDS
;	COMDAT ?_Lbound@?$_Tree@V?$_Tmap_traits@HPAVCRespawner@@U?$less@H@std@@V?$allocator@U?$pair@$$CBHPAVCRespawner@@@std@@@3@$0A@@std@@@std@@IBEPAU_Node@?$_Tree_nod@V?$_Tmap_traits@HPAVCRespawner@@U?$less@H@std@@V?$allocator@U?$pair@$$CBHPAVCRespawner@@@std@@@3@$0A@@std@@@2@ABH@Z
_TEXT	SEGMENT PARA USE32 PUBLIC 'CODE'
_TEXT	ENDS
;	COMDAT ?_Buynode@?$_Tree@V?$_Tmap_traits@HPAVCRespawner@@U?$less@H@std@@V?$allocator@U?$pair@$$CBHPAVCRespawner@@@std@@@3@$0A@@std@@@std@@IAEPAU_Node@?$_Tree_nod@V?$_Tmap_traits@HPAVCRespawner@@U?$less@H@std@@V?$allocator@U?$pair@$$CBHPAVCRespawner@@@std@@@3@$0A@@std@@@2@PAU342@00ABU?$pair@$$CBHPAVCRespawner@@@2@D@Z
_TEXT	SEGMENT PARA USE32 PUBLIC 'CODE'
_TEXT	ENDS
;	COMDAT ??0?$_Tree_val@V?$_Tmap_traits@HPAVCRespawner@@U?$less@H@std@@V?$allocator@U?$pair@$$CBHPAVCRespawner@@@std@@@3@$0A@@std@@@std@@IAE@ABU?$less@H@1@V?$allocator@U?$pair@$$CBHPAVCRespawner@@@std@@@1@@Z
_TEXT	SEGMENT PARA USE32 PUBLIC 'CODE'
_TEXT	ENDS
;	COMDAT ??0?$allocator@U?$pair@$$CBHPAVCRespawner@@@std@@@std@@QAE@ABV01@@Z
_TEXT	SEGMENT PARA USE32 PUBLIC 'CODE'
_TEXT	ENDS
;	COMDAT ?destroy@?$allocator@PAU_Node@?$_Tree_nod@V?$_Tmap_traits@HPAVCRespawner@@U?$less@H@std@@V?$allocator@U?$pair@$$CBHPAVCRespawner@@@std@@@3@$0A@@std@@@std@@@std@@QAEXPAPAU_Node@?$_Tree_nod@V?$_Tmap_traits@HPAVCRespawner@@U?$less@H@std@@V?$allocator@U?$pair@$$CBHPAVCRespawner@@@std@@@3@$0A@@std@@@2@@Z
_TEXT	SEGMENT PARA USE32 PUBLIC 'CODE'
_TEXT	ENDS
;	COMDAT ??0const_iterator@?$deque@PAUtagACTMSG@@V?$allocator@PAUtagACTMSG@@@std@@@std@@QAE@IPBV12@@Z
_TEXT	SEGMENT PARA USE32 PUBLIC 'CODE'
_TEXT	ENDS
;	COMDAT ??0const_iterator@?$deque@PAUtagMAGICATKMSG@@V?$allocator@PAUtagMAGICATKMSG@@@std@@@std@@QAE@IPBV12@@Z
_TEXT	SEGMENT PARA USE32 PUBLIC 'CODE'
_TEXT	ENDS
;	COMDAT ??Yiterator@?$vector@VCRespawnInfo@@V?$allocator@VCRespawnInfo@@@std@@@std@@QAEAAV012@H@Z
_TEXT	SEGMENT PARA USE32 PUBLIC 'CODE'
_TEXT	ENDS
;	COMDAT ??Giterator@?$vector@VCRespawnInfo@@V?$allocator@VCRespawnInfo@@@std@@@std@@QBEHABVconst_iterator@12@@Z
_TEXT	SEGMENT PARA USE32 PUBLIC 'CODE'
_TEXT	ENDS
;	COMDAT ??0const_iterator@?$_Tree@V?$_Tmap_traits@HPAVCRespawner@@U?$less@H@std@@V?$allocator@U?$pair@$$CBHPAVCRespawner@@@std@@@3@$0A@@std@@@std@@QAE@PAU_Node@?$_Tree_nod@V?$_Tmap_traits@HPAVCRespawner@@U?$less@H@std@@V?$allocator@U?$pair@$$CBHPAVCRespawner@@@std@@@3@$0A@@std@@@2@@Z
_TEXT	SEGMENT PARA USE32 PUBLIC 'CODE'
_TEXT	ENDS
;	COMDAT ??Dconst_iterator@?$_Tree@V?$_Tmap_traits@HPAVCRespawner@@U?$less@H@std@@V?$allocator@U?$pair@$$CBHPAVCRespawner@@@std@@@3@$0A@@std@@@std@@QBEABU?$pair@$$CBHPAVCRespawner@@@2@XZ
_TEXT	SEGMENT PARA USE32 PUBLIC 'CODE'
_TEXT	ENDS
;	COMDAT ??Fconst_iterator@?$_Tree@V?$_Tmap_traits@HPAVCRespawner@@U?$less@H@std@@V?$allocator@U?$pair@$$CBHPAVCRespawner@@@std@@@3@$0A@@std@@@std@@QAEAAV012@XZ
_TEXT	SEGMENT PARA USE32 PUBLIC 'CODE'
_TEXT	ENDS
;	COMDAT ?_Inc@const_iterator@?$_Tree@V?$_Tmap_traits@HPAVCRespawner@@U?$less@H@std@@V?$allocator@U?$pair@$$CBHPAVCRespawner@@@std@@@3@$0A@@std@@@std@@QAEXXZ
_TEXT	SEGMENT PARA USE32 PUBLIC 'CODE'
_TEXT	ENDS
;	COMDAT ?destroy@?$allocator@PAUtagACTMSG@@@std@@QAEXPAPAUtagACTMSG@@@Z
_TEXT	SEGMENT PARA USE32 PUBLIC 'CODE'
_TEXT	ENDS
;	COMDAT ?destroy@?$allocator@PAUtagMAGICATKMSG@@@std@@QAEXPAPAUtagMAGICATKMSG@@@Z
_TEXT	SEGMENT PARA USE32 PUBLIC 'CODE'
_TEXT	ENDS
;	COMDAT ?max_size@?$allocator@VCRespawnInfo@@@std@@QBEIXZ
_TEXT	SEGMENT PARA USE32 PUBLIC 'CODE'
_TEXT	ENDS
;	COMDAT ?_Root@?$_Tree@V?$_Tmap_traits@HPAVCRespawner@@U?$less@H@std@@V?$allocator@U?$pair@$$CBHPAVCRespawner@@@std@@@3@$0A@@std@@@std@@IBEAAPAU_Node@?$_Tree_nod@V?$_Tmap_traits@HPAVCRespawner@@U?$less@H@std@@V?$allocator@U?$pair@$$CBHPAVCRespawner@@@std@@@3@$0A@@std@@@2@XZ
_TEXT	SEGMENT PARA USE32 PUBLIC 'CODE'
_TEXT	ENDS
;	COMDAT ?_Buynode@?$_Tree@V?$_Tmap_traits@HPAVCRespawner@@U?$less@H@std@@V?$allocator@U?$pair@$$CBHPAVCRespawner@@@std@@@3@$0A@@std@@@std@@IAEPAU_Node@?$_Tree_nod@V?$_Tmap_traits@HPAVCRespawner@@U?$less@H@std@@V?$allocator@U?$pair@$$CBHPAVCRespawner@@@std@@@3@$0A@@std@@@2@XZ
_TEXT	SEGMENT PARA USE32 PUBLIC 'CODE'
_TEXT	ENDS
;	COMDAT ??0?$_Tree_ptr@V?$_Tmap_traits@HPAVCRespawner@@U?$less@H@std@@V?$allocator@U?$pair@$$CBHPAVCRespawner@@@std@@@3@$0A@@std@@@std@@IAE@ABU?$less@H@1@V?$allocator@U?$pair@$$CBHPAVCRespawner@@@std@@@1@@Z
_TEXT	SEGMENT PARA USE32 PUBLIC 'CODE'
_TEXT	ENDS
;	COMDAT ?max_size@?$allocator@U?$pair@$$CBHPAVCRespawner@@@std@@@std@@QBEIXZ
_TEXT	SEGMENT PARA USE32 PUBLIC 'CODE'
_TEXT	ENDS
;	COMDAT ?allocate@?$allocator@U_Node@?$_Tree_nod@V?$_Tmap_traits@HPAVCRespawner@@U?$less@H@std@@V?$allocator@U?$pair@$$CBHPAVCRespawner@@@std@@@3@$0A@@std@@@std@@@std@@QAEPAU_Node@?$_Tree_nod@V?$_Tmap_traits@HPAVCRespawner@@U?$less@H@std@@V?$allocator@U?$pair@$$CBHPAVCRespawner@@@std@@@3@$0A@@std@@@2@I@Z
_TEXT	SEGMENT PARA USE32 PUBLIC 'CODE'
_TEXT	ENDS
;	COMDAT ??Gconst_iterator@?$vector@VCRespawnInfo@@V?$allocator@VCRespawnInfo@@@std@@@std@@QBEHABV012@@Z
_TEXT	SEGMENT PARA USE32 PUBLIC 'CODE'
_TEXT	ENDS
;	COMDAT ??Eiterator@?$_Tree@V?$_Tmap_traits@HPAVCRespawner@@U?$less@H@std@@V?$allocator@U?$pair@$$CBHPAVCRespawner@@@std@@@3@$0A@@std@@@std@@QAE?AV012@H@Z
_TEXT	SEGMENT PARA USE32 PUBLIC 'CODE'
_TEXT	ENDS
;	COMDAT ?_Dec@const_iterator@?$_Tree@V?$_Tmap_traits@HPAVCRespawner@@U?$less@H@std@@V?$allocator@U?$pair@$$CBHPAVCRespawner@@@std@@@3@$0A@@std@@@std@@QAEXXZ
_TEXT	SEGMENT PARA USE32 PUBLIC 'CODE'
_TEXT	ENDS
;	COMDAT ??0_Node@?$_Tree_nod@V?$_Tmap_traits@HPAVCRespawner@@U?$less@H@std@@V?$allocator@U?$pair@$$CBHPAVCRespawner@@@std@@@3@$0A@@std@@@std@@QAE@PAU012@00ABU?$pair@$$CBHPAVCRespawner@@@2@D@Z
_TEXT	SEGMENT PARA USE32 PUBLIC 'CODE'
_TEXT	ENDS
;	COMDAT ??0?$_Tree_nod@V?$_Tmap_traits@HPAVCRespawner@@U?$less@H@std@@V?$allocator@U?$pair@$$CBHPAVCRespawner@@@std@@@3@$0A@@std@@@std@@IAE@ABU?$less@H@1@V?$allocator@U?$pair@$$CBHPAVCRespawner@@@std@@@1@@Z
_TEXT	SEGMENT PARA USE32 PUBLIC 'CODE'
_TEXT	ENDS
;	COMDAT ?construct@?$allocator@PAU_Node@?$_Tree_nod@V?$_Tmap_traits@HPAVCRespawner@@U?$less@H@std@@V?$allocator@U?$pair@$$CBHPAVCRespawner@@@std@@@3@$0A@@std@@@std@@@std@@QAEXPAPAU_Node@?$_Tree_nod@V?$_Tmap_traits@HPAVCRespawner@@U?$less@H@std@@V?$allocator@U?$pair@$$CBHPAVCRespawner@@@std@@@3@$0A@@std@@@2@ABQAU342@@Z
_TEXT	SEGMENT PARA USE32 PUBLIC 'CODE'
_TEXT	ENDS
;	COMDAT ??0?$_Tmap_traits@HPAVCRespawner@@U?$less@H@std@@V?$allocator@U?$pair@$$CBHPAVCRespawner@@@std@@@3@$0A@@std@@QAE@U?$less@H@1@@Z
_TEXT	SEGMENT PARA USE32 PUBLIC 'CODE'
_TEXT	ENDS
;	COMDAT ??$_Iter_cat@Vconst_iterator@?$vector@EV?$allocator@E@std@@@std@@@std@@YA?AUrandom_access_iterator_tag@0@ABVconst_iterator@?$vector@EV?$allocator@E@std@@@0@@Z
_TEXT	SEGMENT PARA USE32 PUBLIC 'CODE'
_TEXT	ENDS
;	COMDAT ??$_Assign@Vconst_iterator@?$vector@EV?$allocator@E@std@@@std@@@?$vector@EV?$allocator@E@std@@@std@@QAEXVconst_iterator@01@0Uinput_iterator_tag@1@@Z
_TEXT	SEGMENT PARA USE32 PUBLIC 'CODE'
_TEXT	ENDS
;	COMDAT ??$_Iter_cat@Viterator@?$_Tree@V?$_Tmap_traits@KPAVCUser@@U?$less@K@std@@V?$allocator@U?$pair@$$CBKPAVCUser@@@std@@@3@$0A@@std@@@std@@@std@@YA?AUbidirectional_iterator_tag@0@ABViterator@?$_Tree@V?$_Tmap_traits@KPAVCUser@@U?$less@K@std@@V?$allocator@U?$pair@$$CBKPAVCUser@@@std@@@3@$0A@@std@@@0@@Z
_TEXT	SEGMENT PARA USE32 PUBLIC 'CODE'
_TEXT	ENDS
;	COMDAT ??$_Distance2@Viterator@?$_Tree@V?$_Tmap_traits@KPAVCUser@@U?$less@K@std@@V?$allocator@U?$pair@$$CBKPAVCUser@@@std@@@3@$0A@@std@@@std@@I@std@@YAXViterator@?$_Tree@V?$_Tmap_traits@KPAVCUser@@U?$less@K@std@@V?$allocator@U?$pair@$$CBKPAVCUser@@@std@@@3@$0A@@std@@@0@0AAIUbidirectional_iterator_tag@0@@Z
_TEXT	SEGMENT PARA USE32 PUBLIC 'CODE'
_TEXT	ENDS
;	COMDAT ??$_Iter_cat@Viterator@?$_Tree@V?$_Tmap_traits@KPAVCCtrl@@U?$less@K@std@@V?$allocator@U?$pair@$$CBKPAVCCtrl@@@std@@@3@$0A@@std@@@std@@@std@@YA?AUbidirectional_iterator_tag@0@ABViterator@?$_Tree@V?$_Tmap_traits@KPAVCCtrl@@U?$less@K@std@@V?$allocator@U?$pair@$$CBKPAVCCtrl@@@std@@@3@$0A@@std@@@0@@Z
_TEXT	SEGMENT PARA USE32 PUBLIC 'CODE'
_TEXT	ENDS
;	COMDAT ??$_Distance2@Viterator@?$_Tree@V?$_Tmap_traits@KPAVCCtrl@@U?$less@K@std@@V?$allocator@U?$pair@$$CBKPAVCCtrl@@@std@@@3@$0A@@std@@@std@@I@std@@YAXViterator@?$_Tree@V?$_Tmap_traits@KPAVCCtrl@@U?$less@K@std@@V?$allocator@U?$pair@$$CBKPAVCCtrl@@@std@@@3@$0A@@std@@@0@0AAIUbidirectional_iterator_tag@0@@Z
_TEXT	SEGMENT PARA USE32 PUBLIC 'CODE'
_TEXT	ENDS
;	COMDAT ??$_Uninitialized_copy@Vconst_iterator@?$vector@EV?$allocator@E@std@@@std@@PAEV?$allocator@E@3@@std@@YAPAEVconst_iterator@?$vector@EV?$allocator@E@std@@@0@0PAEAAV?$allocator@E@0@@Z
_TEXT	SEGMENT PARA USE32 PUBLIC 'CODE'
_TEXT	ENDS
;	COMDAT ??$_Iter_cat@Viterator@?$_Tree@V?$_Tmap_traits@KEU?$less@K@std@@V?$allocator@U?$pair@$$CBKE@std@@@2@$0A@@std@@@std@@@std@@YA?AUbidirectional_iterator_tag@0@ABViterator@?$_Tree@V?$_Tmap_traits@KEU?$less@K@std@@V?$allocator@U?$pair@$$CBKE@std@@@2@$0A@@std@@@0@@Z
_TEXT	SEGMENT PARA USE32 PUBLIC 'CODE'
_TEXT	ENDS
;	COMDAT ??$_Distance2@Viterator@?$_Tree@V?$_Tmap_traits@KEU?$less@K@std@@V?$allocator@U?$pair@$$CBKE@std@@@2@$0A@@std@@@std@@I@std@@YAXViterator@?$_Tree@V?$_Tmap_traits@KEU?$less@K@std@@V?$allocator@U?$pair@$$CBKE@std@@@2@$0A@@std@@@0@0AAIUbidirectional_iterator_tag@0@@Z
_TEXT	SEGMENT PARA USE32 PUBLIC 'CODE'
_TEXT	ENDS
;	COMDAT ??$_Ptr_cat@PAU__SPAWNREGION@CEventLua@@PAU12@@std@@YA?AU_Nonscalar_ptr_iterator_tag@0@AAPAU__SPAWNREGION@CEventLua@@0@Z
_TEXT	SEGMENT PARA USE32 PUBLIC 'CODE'
_TEXT	ENDS
;	COMDAT ??$_Uninit_fill_n@PAU__SPAWNREGION@CEventLua@@IU12@V?$allocator@U__SPAWNREGION@CEventLua@@@std@@@std@@YAXPAU__SPAWNREGION@CEventLua@@IABU12@AAV?$allocator@U__SPAWNREGION@CEventLua@@@0@U_Nonscalar_ptr_iterator_tag@0@@Z
_TEXT	SEGMENT PARA USE32 PUBLIC 'CODE'
_TEXT	ENDS
;	COMDAT ??$_Copy_opt@PAJPAJ@std@@YAPAJPAJ00U_Scalar_ptr_iterator_tag@0@@Z
_TEXT	SEGMENT PARA USE32 PUBLIC 'CODE'
_TEXT	ENDS
;	COMDAT ??$_Uninitialized_copy@PAJPAJV?$allocator@J@std@@@std@@YAPAJPAJ00AAV?$allocator@J@0@@Z
_TEXT	SEGMENT PARA USE32 PUBLIC 'CODE'
_TEXT	ENDS
;	COMDAT ??$_Copy_backward_opt@PAJPAJ@std@@YAPAJPAJ00U_Scalar_ptr_iterator_tag@0@@Z
_TEXT	SEGMENT PARA USE32 PUBLIC 'CODE'
_TEXT	ENDS
;	COMDAT ??$_Ptr_cat@PAUtagDROPITEM@@PAU1@@std@@YA?AU_Nonscalar_ptr_iterator_tag@0@AAPAUtagDROPITEM@@0@Z
_TEXT	SEGMENT PARA USE32 PUBLIC 'CODE'
_TEXT	ENDS
;	COMDAT ??$_Destroy_range@UtagDROPITEM@@V?$allocator@UtagDROPITEM@@@std@@@std@@YAXPAUtagDROPITEM@@0AAV?$allocator@UtagDROPITEM@@@0@U_Nonscalar_ptr_iterator_tag@0@@Z
_TEXT	SEGMENT PARA USE32 PUBLIC 'CODE'
_TEXT	ENDS
;	COMDAT ??$_Ptr_cat@PAUWORMON@@PAU1@@std@@YA?AU_Nonscalar_ptr_iterator_tag@0@AAPAUWORMON@@0@Z
_TEXT	SEGMENT PARA USE32 PUBLIC 'CODE'
_TEXT	ENDS
;	COMDAT ??$_Destroy_range@UWORMON@@V?$allocator@UWORMON@@@std@@@std@@YAXPAUWORMON@@0AAV?$allocator@UWORMON@@@0@U_Nonscalar_ptr_iterator_tag@0@@Z
_TEXT	SEGMENT PARA USE32 PUBLIC 'CODE'
_TEXT	ENDS
;	COMDAT ??$_Ptr_cat@PAU__ITEMGAME@CMiniGame@@PAU12@@std@@YA?AU_Nonscalar_ptr_iterator_tag@0@AAPAU__ITEMGAME@CMiniGame@@0@Z
_TEXT	SEGMENT PARA USE32 PUBLIC 'CODE'
_TEXT	ENDS
;	COMDAT ??$_Destroy_range@U__ITEMGAME@CMiniGame@@V?$allocator@U__ITEMGAME@CMiniGame@@@std@@@std@@YAXPAU__ITEMGAME@CMiniGame@@0AAV?$allocator@U__ITEMGAME@CMiniGame@@@0@U_Nonscalar_ptr_iterator_tag@0@@Z
_TEXT	SEGMENT PARA USE32 PUBLIC 'CODE'
_TEXT	ENDS
;	COMDAT ??$_Destroy_range@KV?$allocator@K@std@@@std@@YAXPAK0AAV?$allocator@K@0@U_Scalar_ptr_iterator_tag@0@@Z
_TEXT	SEGMENT PARA USE32 PUBLIC 'CODE'
_TEXT	ENDS
;	COMDAT ??$_Destroy_range@HV?$allocator@H@std@@@std@@YAXPAH0AAV?$allocator@H@0@U_Scalar_ptr_iterator_tag@0@@Z
_TEXT	SEGMENT PARA USE32 PUBLIC 'CODE'
_TEXT	ENDS
;	COMDAT ??$_Ptr_cat@PAU__ITEM@CExchange@@PAU12@@std@@YA?AU_Nonscalar_ptr_iterator_tag@0@AAPAU__ITEM@CExchange@@0@Z
_TEXT	SEGMENT PARA USE32 PUBLIC 'CODE'
_TEXT	ENDS
;	COMDAT ??$_Destroy_range@U__ITEM@CExchange@@V?$allocator@U__ITEM@CExchange@@@std@@@std@@YAXPAU__ITEM@CExchange@@0AAV?$allocator@U__ITEM@CExchange@@@0@U_Nonscalar_ptr_iterator_tag@0@@Z
_TEXT	SEGMENT PARA USE32 PUBLIC 'CODE'
_TEXT	ENDS
;	COMDAT ??$_Ptr_cat@PAU__POINT@CExchange@@PAU12@@std@@YA?AU_Nonscalar_ptr_iterator_tag@0@AAPAU__POINT@CExchange@@0@Z
_TEXT	SEGMENT PARA USE32 PUBLIC 'CODE'
_TEXT	ENDS
;	COMDAT ??$_Destroy_range@U__POINT@CExchange@@V?$allocator@U__POINT@CExchange@@@std@@@std@@YAXPAU__POINT@CExchange@@0AAV?$allocator@U__POINT@CExchange@@@0@U_Nonscalar_ptr_iterator_tag@0@@Z
_TEXT	SEGMENT PARA USE32 PUBLIC 'CODE'
_TEXT	ENDS
;	COMDAT ??$_Destroy_range@EV?$allocator@E@std@@@std@@YAXPAE0AAV?$allocator@E@0@U_Scalar_ptr_iterator_tag@0@@Z
_TEXT	SEGMENT PARA USE32 PUBLIC 'CODE'
_TEXT	ENDS
;	COMDAT ??$_Uninitialized_copy@PAU__SPAWNREGION@CEventLua@@PAU12@V?$allocator@U__SPAWNREGION@CEventLua@@@std@@@std@@YAPAU__SPAWNREGION@CEventLua@@PAU12@00AAV?$allocator@U__SPAWNREGION@CEventLua@@@0@@Z
_TEXT	SEGMENT PARA USE32 PUBLIC 'CODE'
_TEXT	ENDS
;	COMDAT ??$_Copy_backward_opt@PAU__SPAWNREGION@CEventLua@@PAU12@@std@@YAPAU__SPAWNREGION@CEventLua@@PAU12@00U_Nonscalar_ptr_iterator_tag@0@@Z
_TEXT	SEGMENT PARA USE32 PUBLIC 'CODE'
_TEXT	ENDS
;	COMDAT ??$_Ptr_cat@PAUD3DXVECTOR3@@PAU1@@std@@YA?AU_Nonscalar_ptr_iterator_tag@0@AAPAUD3DXVECTOR3@@0@Z
_TEXT	SEGMENT PARA USE32 PUBLIC 'CODE'
_TEXT	ENDS
;	COMDAT ??$_Destroy_range@UD3DXVECTOR3@@V?$allocator@UD3DXVECTOR3@@@std@@@std@@YAXPAUD3DXVECTOR3@@0AAV?$allocator@UD3DXVECTOR3@@@0@U_Nonscalar_ptr_iterator_tag@0@@Z
_TEXT	SEGMENT PARA USE32 PUBLIC 'CODE'
_TEXT	ENDS
;	COMDAT ??$_Ptr_cat@PAU_GIFTBOX@@PAU1@@std@@YA?AU_Nonscalar_ptr_iterator_tag@0@AAPAU_GIFTBOX@@0@Z
_TEXT	SEGMENT PARA USE32 PUBLIC 'CODE'
_TEXT	ENDS
;	COMDAT ??$_Destroy_range@U_GIFTBOX@@V?$allocator@U_GIFTBOX@@@std@@@std@@YAXPAU_GIFTBOX@@0AAV?$allocator@U_GIFTBOX@@@0@U_Nonscalar_ptr_iterator_tag@0@@Z
_TEXT	SEGMENT PARA USE32 PUBLIC 'CODE'
_TEXT	ENDS
;	COMDAT ??$_Destroy_range@JV?$allocator@J@std@@@std@@YAXPAJ0AAV?$allocator@J@0@U_Scalar_ptr_iterator_tag@0@@Z
_TEXT	SEGMENT PARA USE32 PUBLIC 'CODE'
_TEXT	ENDS
;	COMDAT ??$_Uninit_fill_n@JIJ@std@@YAXPAJIABJAAV?$allocator@J@0@U_Scalar_ptr_iterator_tag@0@@Z
_TEXT	SEGMENT PARA USE32 PUBLIC 'CODE'
_TEXT	ENDS
;	COMDAT ??$_Destroy_range@U__SPAWNREGION@CEventLua@@V?$allocator@U__SPAWNREGION@CEventLua@@@std@@@std@@YAXPAU__SPAWNREGION@CEventLua@@0AAV?$allocator@U__SPAWNREGION@CEventLua@@@0@U_Nonscalar_ptr_iterator_tag@0@@Z
_TEXT	SEGMENT PARA USE32 PUBLIC 'CODE'
_TEXT	ENDS
;	COMDAT ??$assign@Vconst_iterator@?$vector@VCRespawnInfo@@V?$allocator@VCRespawnInfo@@@std@@@std@@@?$vector@VCRespawnInfo@@V?$allocator@VCRespawnInfo@@@std@@@std@@QAEXVconst_iterator@01@0@Z
_TEXT	SEGMENT PARA USE32 PUBLIC 'CODE'
_TEXT	ENDS
;	COMDAT ??$copy@PAVCRespawnInfo@@PAV1@@std@@YAPAVCRespawnInfo@@PAV1@00@Z
_TEXT	SEGMENT PARA USE32 PUBLIC 'CODE'
_TEXT	ENDS
;	COMDAT ??$_Destroy_range@VCRespawnInfo@@V?$allocator@VCRespawnInfo@@@std@@@std@@YAXPAVCRespawnInfo@@0AAV?$allocator@VCRespawnInfo@@@0@@Z
_TEXT	SEGMENT PARA USE32 PUBLIC 'CODE'
_TEXT	ENDS
;	COMDAT ??$_Uninitialized_fill_n@PAVCRespawnInfo@@IV1@V?$allocator@VCRespawnInfo@@@std@@@std@@YAXPAVCRespawnInfo@@IABV1@AAV?$allocator@VCRespawnInfo@@@0@@Z
_TEXT	SEGMENT PARA USE32 PUBLIC 'CODE'
_TEXT	ENDS
;	COMDAT ??$_Destroy@U_Node@?$_Tree_nod@V?$_Tmap_traits@HPAVCRespawner@@U?$less@H@std@@V?$allocator@U?$pair@$$CBHPAVCRespawner@@@std@@@3@$0A@@std@@@std@@@std@@YAXPAU_Node@?$_Tree_nod@V?$_Tmap_traits@HPAVCRespawner@@U?$less@H@std@@V?$allocator@U?$pair@$$CBHPAVCRespawner@@@std@@@3@$0A@@std@@@0@@Z
_TEXT	SEGMENT PARA USE32 PUBLIC 'CODE'
_TEXT	ENDS
;	COMDAT ??$?0PAUtagACTMSG@@@?$allocator@PAPAUtagACTMSG@@@std@@QAE@ABV?$allocator@PAUtagACTMSG@@@1@@Z
_TEXT	SEGMENT PARA USE32 PUBLIC 'CODE'
_TEXT	ENDS
;	COMDAT ??$_Destroy@PAPAUtagACTMSG@@@std@@YAXPAPAPAUtagACTMSG@@@Z
_TEXT	SEGMENT PARA USE32 PUBLIC 'CODE'
_TEXT	ENDS
;	COMDAT ??$?0PAUtagMAGICATKMSG@@@?$allocator@PAPAUtagMAGICATKMSG@@@std@@QAE@ABV?$allocator@PAUtagMAGICATKMSG@@@1@@Z
_TEXT	SEGMENT PARA USE32 PUBLIC 'CODE'
_TEXT	ENDS
;	COMDAT ??$_Destroy@PAPAUtagMAGICATKMSG@@@std@@YAXPAPAPAUtagMAGICATKMSG@@@Z
_TEXT	SEGMENT PARA USE32 PUBLIC 'CODE'
_TEXT	ENDS
;	COMDAT ??$_Ucopy@PAVCRespawnInfo@@@?$vector@VCRespawnInfo@@V?$allocator@VCRespawnInfo@@@std@@@std@@IAEPAVCRespawnInfo@@PAV2@00@Z
_TEXT	SEGMENT PARA USE32 PUBLIC 'CODE'
_TEXT	ENDS
;	COMDAT ??$fill@PAVCRespawnInfo@@V1@@std@@YAXPAVCRespawnInfo@@0ABV1@@Z
_TEXT	SEGMENT PARA USE32 PUBLIC 'CODE'
_TEXT	ENDS
;	COMDAT ??$copy_backward@PAVCRespawnInfo@@PAV1@@std@@YAPAVCRespawnInfo@@PAV1@00@Z
_TEXT	SEGMENT PARA USE32 PUBLIC 'CODE'
_TEXT	ENDS
;	COMDAT ??$_Allocate@VCRespawnInfo@@@std@@YAPAVCRespawnInfo@@IPAV1@@Z
_TEXT	SEGMENT PARA USE32 PUBLIC 'CODE'
_TEXT	ENDS
;	COMDAT ??$_Destroy@PAU_Node@?$_Tree_nod@V?$_Tmap_traits@HPAVCRespawner@@U?$less@H@std@@V?$allocator@U?$pair@$$CBHPAVCRespawner@@@std@@@3@$0A@@std@@@std@@@std@@YAXPAPAU_Node@?$_Tree_nod@V?$_Tmap_traits@HPAVCRespawner@@U?$less@H@std@@V?$allocator@U?$pair@$$CBHPAVCRespawner@@@std@@@3@$0A@@std@@@0@@Z
_TEXT	SEGMENT PARA USE32 PUBLIC 'CODE'
_TEXT	ENDS
;	COMDAT ??$_Destroy@PAUtagACTMSG@@@std@@YAXPAPAUtagACTMSG@@@Z
_TEXT	SEGMENT PARA USE32 PUBLIC 'CODE'
_TEXT	ENDS
;	COMDAT ??$_Destroy@PAUtagMAGICATKMSG@@@std@@YAXPAPAUtagMAGICATKMSG@@@Z
_TEXT	SEGMENT PARA USE32 PUBLIC 'CODE'
_TEXT	ENDS
;	COMDAT ??$?0U?$pair@$$CBHPAVCRespawner@@@std@@@?$allocator@PAU_Node@?$_Tree_nod@V?$_Tmap_traits@HPAVCRespawner@@U?$less@H@std@@V?$allocator@U?$pair@$$CBHPAVCRespawner@@@std@@@3@$0A@@std@@@std@@@std@@QAE@ABV?$allocator@U?$pair@$$CBHPAVCRespawner@@@std@@@1@@Z
_TEXT	SEGMENT PARA USE32 PUBLIC 'CODE'
_TEXT	ENDS
;	COMDAT ??$_Allocate@U_Node@?$_Tree_nod@V?$_Tmap_traits@HPAVCRespawner@@U?$less@H@std@@V?$allocator@U?$pair@$$CBHPAVCRespawner@@@std@@@3@$0A@@std@@@std@@@std@@YAPAU_Node@?$_Tree_nod@V?$_Tmap_traits@HPAVCRespawner@@U?$less@H@std@@V?$allocator@U?$pair@$$CBHPAVCRespawner@@@std@@@3@$0A@@std@@@0@IPAU120@@Z
_TEXT	SEGMENT PARA USE32 PUBLIC 'CODE'
_TEXT	ENDS
;	COMDAT ??$?0U?$pair@$$CBHPAVCRespawner@@@std@@@?$allocator@U_Node@?$_Tree_nod@V?$_Tmap_traits@HPAVCRespawner@@U?$less@H@std@@V?$allocator@U?$pair@$$CBHPAVCRespawner@@@std@@@3@$0A@@std@@@std@@@std@@QAE@ABV?$allocator@U?$pair@$$CBHPAVCRespawner@@@std@@@1@@Z
_TEXT	SEGMENT PARA USE32 PUBLIC 'CODE'
_TEXT	ENDS
;	COMDAT ??$_Construct@PAU_Node@?$_Tree_nod@V?$_Tmap_traits@HPAVCRespawner@@U?$less@H@std@@V?$allocator@U?$pair@$$CBHPAVCRespawner@@@std@@@3@$0A@@std@@@std@@PAU123@@std@@YAXPAPAU_Node@?$_Tree_nod@V?$_Tmap_traits@HPAVCRespawner@@U?$less@H@std@@V?$allocator@U?$pair@$$CBHPAVCRespawner@@@std@@@3@$0A@@std@@@0@ABQAU120@@Z
_TEXT	SEGMENT PARA USE32 PUBLIC 'CODE'
_TEXT	ENDS
;	COMDAT ?destroy@?$allocator@UtagDROPITEM@@@std@@QAEXPAUtagDROPITEM@@@Z
_TEXT	SEGMENT PARA USE32 PUBLIC 'CODE'
_TEXT	ENDS
;	COMDAT ?destroy@?$allocator@UWORMON@@@std@@QAEXPAUWORMON@@@Z
_TEXT	SEGMENT PARA USE32 PUBLIC 'CODE'
_TEXT	ENDS
;	COMDAT ?destroy@?$allocator@U__ITEMGAME@CMiniGame@@@std@@QAEXPAU__ITEMGAME@CMiniGame@@@Z
_TEXT	SEGMENT PARA USE32 PUBLIC 'CODE'
_TEXT	ENDS
;	COMDAT ?destroy@?$allocator@U__ITEM@CExchange@@@std@@QAEXPAU__ITEM@CExchange@@@Z
_TEXT	SEGMENT PARA USE32 PUBLIC 'CODE'
_TEXT	ENDS
;	COMDAT ?destroy@?$allocator@U__POINT@CExchange@@@std@@QAEXPAU__POINT@CExchange@@@Z
_TEXT	SEGMENT PARA USE32 PUBLIC 'CODE'
_TEXT	ENDS
;	COMDAT ?begin@?$vector@EV?$allocator@E@std@@@std@@QAE?AViterator@12@XZ
_TEXT	SEGMENT PARA USE32 PUBLIC 'CODE'
_TEXT	ENDS
;	COMDAT ?end@?$vector@EV?$allocator@E@std@@@std@@QAE?AViterator@12@XZ
_TEXT	SEGMENT PARA USE32 PUBLIC 'CODE'
_TEXT	ENDS
;	COMDAT ?erase@?$vector@EV?$allocator@E@std@@@std@@QAE?AViterator@12@V312@0@Z
_TEXT	SEGMENT PARA USE32 PUBLIC 'CODE'
_TEXT	ENDS
;	COMDAT ?construct@?$allocator@U__SPAWNREGION@CEventLua@@@std@@QAEXPAU__SPAWNREGION@CEventLua@@ABU34@@Z
_TEXT	SEGMENT PARA USE32 PUBLIC 'CODE'
_TEXT	ENDS
;	COMDAT ?destroy@?$allocator@U__SPAWNREGION@CEventLua@@@std@@QAEXPAU__SPAWNREGION@CEventLua@@@Z
_TEXT	SEGMENT PARA USE32 PUBLIC 'CODE'
_TEXT	ENDS
;	COMDAT ?destroy@?$allocator@UD3DXVECTOR3@@@std@@QAEXPAUD3DXVECTOR3@@@Z
_TEXT	SEGMENT PARA USE32 PUBLIC 'CODE'
_TEXT	ENDS
;	COMDAT ?destroy@?$allocator@U_GIFTBOX@@@std@@QAEXPAU_GIFTBOX@@@Z
_TEXT	SEGMENT PARA USE32 PUBLIC 'CODE'
_TEXT	ENDS
;	COMDAT ??9const_iterator@?$vector@EV?$allocator@E@std@@@std@@QBE_NABV012@@Z
_TEXT	SEGMENT PARA USE32 PUBLIC 'CODE'
_TEXT	ENDS
;	COMDAT ??0iterator@?$vector@EV?$allocator@E@std@@@std@@QAE@PAE@Z
_TEXT	SEGMENT PARA USE32 PUBLIC 'CODE'
_TEXT	ENDS
;	COMDAT ??8const_iterator@?$vector@EV?$allocator@E@std@@@std@@QBE_NABV012@@Z
_TEXT	SEGMENT PARA USE32 PUBLIC 'CODE'
_TEXT	ENDS
;	COMDAT ??$insert@Vconst_iterator@?$vector@EV?$allocator@E@std@@@std@@@?$vector@EV?$allocator@E@std@@@std@@QAEXViterator@01@Vconst_iterator@01@1@Z
_TEXT	SEGMENT PARA USE32 PUBLIC 'CODE'
_TEXT	ENDS
;	COMDAT ??$_Ptr_cat@Vconst_iterator@?$vector@EV?$allocator@E@std@@@std@@PAE@std@@YA?AU_Nonscalar_ptr_iterator_tag@0@AAVconst_iterator@?$vector@EV?$allocator@E@std@@@0@AAPAE@Z
_TEXT	SEGMENT PARA USE32 PUBLIC 'CODE'
_TEXT	ENDS
;	COMDAT ??$_Uninit_copy@Vconst_iterator@?$vector@EV?$allocator@E@std@@@std@@PAEV?$allocator@E@3@@std@@YAPAEVconst_iterator@?$vector@EV?$allocator@E@std@@@0@0PAEAAV?$allocator@E@0@U_Nonscalar_ptr_iterator_tag@0@@Z
_TEXT	SEGMENT PARA USE32 PUBLIC 'CODE'
_TEXT	ENDS
;	COMDAT ??$_Uninit_copy@JJ@std@@YAPAJPAJ00AAV?$allocator@J@0@U_Scalar_ptr_iterator_tag@0@@Z
_TEXT	SEGMENT PARA USE32 PUBLIC 'CODE'
_TEXT	ENDS
;	COMDAT ??$_Uninit_copy@PAU__SPAWNREGION@CEventLua@@PAU12@V?$allocator@U__SPAWNREGION@CEventLua@@@std@@@std@@YAPAU__SPAWNREGION@CEventLua@@PAU12@00AAV?$allocator@U__SPAWNREGION@CEventLua@@@0@U_Nonscalar_ptr_iterator_tag@0@@Z
_TEXT	SEGMENT PARA USE32 PUBLIC 'CODE'
_TEXT	ENDS
;	COMDAT ??$fill_n@PAJIJ@std@@YAXPAJIABJ@Z
_TEXT	SEGMENT PARA USE32 PUBLIC 'CODE'
_TEXT	ENDS
;	COMDAT ??$_Iter_cat@Vconst_iterator@?$vector@VCRespawnInfo@@V?$allocator@VCRespawnInfo@@@std@@@std@@@std@@YA?AUrandom_access_iterator_tag@0@ABVconst_iterator@?$vector@VCRespawnInfo@@V?$allocator@VCRespawnInfo@@@std@@@0@@Z
_TEXT	SEGMENT PARA USE32 PUBLIC 'CODE'
_TEXT	ENDS
;	COMDAT ??$_Assign@Vconst_iterator@?$vector@VCRespawnInfo@@V?$allocator@VCRespawnInfo@@@std@@@std@@@?$vector@VCRespawnInfo@@V?$allocator@VCRespawnInfo@@@std@@@std@@QAEXVconst_iterator@01@0Uinput_iterator_tag@1@@Z
_TEXT	SEGMENT PARA USE32 PUBLIC 'CODE'
_TEXT	ENDS
;	COMDAT ??$_Ptr_cat@PAVCRespawnInfo@@PAV1@@std@@YA?AU_Nonscalar_ptr_iterator_tag@0@AAPAVCRespawnInfo@@0@Z
_TEXT	SEGMENT PARA USE32 PUBLIC 'CODE'
_TEXT	ENDS
;	COMDAT ??$_Copy_opt@PAVCRespawnInfo@@PAV1@@std@@YAPAVCRespawnInfo@@PAV1@00U_Nonscalar_ptr_iterator_tag@0@@Z
_TEXT	SEGMENT PARA USE32 PUBLIC 'CODE'
_TEXT	ENDS
;	COMDAT ??$_Destroy_range@VCRespawnInfo@@V?$allocator@VCRespawnInfo@@@std@@@std@@YAXPAVCRespawnInfo@@0AAV?$allocator@VCRespawnInfo@@@0@U_Nonscalar_ptr_iterator_tag@0@@Z
_TEXT	SEGMENT PARA USE32 PUBLIC 'CODE'
_TEXT	ENDS
;	COMDAT ??$_Uninit_fill_n@PAVCRespawnInfo@@IV1@V?$allocator@VCRespawnInfo@@@std@@@std@@YAXPAVCRespawnInfo@@IABV1@AAV?$allocator@VCRespawnInfo@@@0@U_Nonscalar_ptr_iterator_tag@0@@Z
_TEXT	SEGMENT PARA USE32 PUBLIC 'CODE'
_TEXT	ENDS
;	COMDAT ??$_Uninitialized_copy@PAVCRespawnInfo@@PAV1@V?$allocator@VCRespawnInfo@@@std@@@std@@YAPAVCRespawnInfo@@PAV1@00AAV?$allocator@VCRespawnInfo@@@0@@Z
_TEXT	SEGMENT PARA USE32 PUBLIC 'CODE'
_TEXT	ENDS
;	COMDAT ??$_Copy_backward_opt@PAVCRespawnInfo@@PAV1@@std@@YAPAVCRespawnInfo@@PAV1@00U_Nonscalar_ptr_iterator_tag@0@@Z
_TEXT	SEGMENT PARA USE32 PUBLIC 'CODE'
_TEXT	ENDS
;	COMDAT ??$_Destroy@UtagDROPITEM@@@std@@YAXPAUtagDROPITEM@@@Z
_TEXT	SEGMENT PARA USE32 PUBLIC 'CODE'
_TEXT	ENDS
;	COMDAT ??$_Destroy@UWORMON@@@std@@YAXPAUWORMON@@@Z
_TEXT	SEGMENT PARA USE32 PUBLIC 'CODE'
_TEXT	ENDS
;	COMDAT ??$_Destroy@U__ITEMGAME@CMiniGame@@@std@@YAXPAU__ITEMGAME@CMiniGame@@@Z
_TEXT	SEGMENT PARA USE32 PUBLIC 'CODE'
_TEXT	ENDS
;	COMDAT ??$_Destroy@U__ITEM@CExchange@@@std@@YAXPAU__ITEM@CExchange@@@Z
_TEXT	SEGMENT PARA USE32 PUBLIC 'CODE'
_TEXT	ENDS
;	COMDAT ??$_Destroy@U__POINT@CExchange@@@std@@YAXPAU__POINT@CExchange@@@Z
_TEXT	SEGMENT PARA USE32 PUBLIC 'CODE'
_TEXT	ENDS
;	COMDAT ??$copy@PAEPAE@std@@YAPAEPAE00@Z
_TEXT	SEGMENT PARA USE32 PUBLIC 'CODE'
_TEXT	ENDS
;	COMDAT ??$_Construct@U__SPAWNREGION@CEventLua@@U12@@std@@YAXPAU__SPAWNREGION@CEventLua@@ABU12@@Z
_TEXT	SEGMENT PARA USE32 PUBLIC 'CODE'
_TEXT	ENDS
;	COMDAT ??$_Destroy@U__SPAWNREGION@CEventLua@@@std@@YAXPAU__SPAWNREGION@CEventLua@@@Z
_TEXT	SEGMENT PARA USE32 PUBLIC 'CODE'
_TEXT	ENDS
;	COMDAT ??$_Destroy@UD3DXVECTOR3@@@std@@YAXPAUD3DXVECTOR3@@@Z
_TEXT	SEGMENT PARA USE32 PUBLIC 'CODE'
_TEXT	ENDS
;	COMDAT ??$_Destroy@U_GIFTBOX@@@std@@YAXPAU_GIFTBOX@@@Z
_TEXT	SEGMENT PARA USE32 PUBLIC 'CODE'
_TEXT	ENDS
;	COMDAT ?construct@?$allocator@E@std@@QAEXPAEABE@Z
_TEXT	SEGMENT PARA USE32 PUBLIC 'CODE'
_TEXT	ENDS
;	COMDAT ?destroy@?$allocator@E@std@@QAEXPAE@Z
_TEXT	SEGMENT PARA USE32 PUBLIC 'CODE'
_TEXT	ENDS
;	COMDAT ??Dconst_iterator@?$vector@EV?$allocator@E@std@@@std@@QBEABEXZ
_TEXT	SEGMENT PARA USE32 PUBLIC 'CODE'
_TEXT	ENDS
;	COMDAT ??Econst_iterator@?$vector@EV?$allocator@E@std@@@std@@QAEAAV012@XZ
_TEXT	SEGMENT PARA USE32 PUBLIC 'CODE'
_TEXT	ENDS
;	COMDAT ?erase@?$vector@VCRespawnInfo@@V?$allocator@VCRespawnInfo@@@std@@@std@@QAE?AViterator@12@V312@0@Z
_TEXT	SEGMENT PARA USE32 PUBLIC 'CODE'
_TEXT	ENDS
;	COMDAT ?construct@?$allocator@VCRespawnInfo@@@std@@QAEXPAVCRespawnInfo@@ABV3@@Z
_TEXT	SEGMENT PARA USE32 PUBLIC 'CODE'
_TEXT	ENDS
;	COMDAT ?destroy@?$allocator@VCRespawnInfo@@@std@@QAEXPAVCRespawnInfo@@@Z
_TEXT	SEGMENT PARA USE32 PUBLIC 'CODE'
_TEXT	ENDS
;	COMDAT ??$_Insert@Vconst_iterator@?$vector@EV?$allocator@E@std@@@std@@@?$vector@EV?$allocator@E@std@@@std@@QAEXViterator@01@Vconst_iterator@01@1Uforward_iterator_tag@1@@Z
_TEXT	SEGMENT PARA USE32 PUBLIC 'CODE'
_TEXT	ENDS
;	COMDAT ??$insert@Vconst_iterator@?$vector@VCRespawnInfo@@V?$allocator@VCRespawnInfo@@@std@@@std@@@?$vector@VCRespawnInfo@@V?$allocator@VCRespawnInfo@@@std@@@std@@QAEXViterator@01@Vconst_iterator@01@1@Z
_TEXT	SEGMENT PARA USE32 PUBLIC 'CODE'
_TEXT	ENDS
;	COMDAT ??$_Uninit_copy@PAVCRespawnInfo@@PAV1@V?$allocator@VCRespawnInfo@@@std@@@std@@YAPAVCRespawnInfo@@PAV1@00AAV?$allocator@VCRespawnInfo@@@0@U_Nonscalar_ptr_iterator_tag@0@@Z
_TEXT	SEGMENT PARA USE32 PUBLIC 'CODE'
_TEXT	ENDS
;	COMDAT ??$_Copy_opt@PAEPAE@std@@YAPAEPAE00U_Scalar_ptr_iterator_tag@0@@Z
_TEXT	SEGMENT PARA USE32 PUBLIC 'CODE'
_TEXT	ENDS
;	COMDAT ??$_Construct@EE@std@@YAXPAEABE@Z
_TEXT	SEGMENT PARA USE32 PUBLIC 'CODE'
_TEXT	ENDS
;	COMDAT ??$_Destroy@E@std@@YAXPAE@Z
_TEXT	SEGMENT PARA USE32 PUBLIC 'CODE'
_TEXT	ENDS
;	COMDAT ??$_Construct@VCRespawnInfo@@V1@@std@@YAXPAVCRespawnInfo@@ABV1@@Z
_TEXT	SEGMENT PARA USE32 PUBLIC 'CODE'
_TEXT	ENDS
;	COMDAT ??$_Destroy@VCRespawnInfo@@@std@@YAXPAVCRespawnInfo@@@Z
_TEXT	SEGMENT PARA USE32 PUBLIC 'CODE'
_TEXT	ENDS
;	COMDAT ?capacity@?$vector@EV?$allocator@E@std@@@std@@QBEIXZ
_TEXT	SEGMENT PARA USE32 PUBLIC 'CODE'
_TEXT	ENDS
;	COMDAT ??Giterator@?$vector@EV?$allocator@E@std@@@std@@QBEHABVconst_iterator@12@@Z
_TEXT	SEGMENT PARA USE32 PUBLIC 'CODE'
_TEXT	ENDS
;	COMDAT ??Gconst_iterator@?$vector@EV?$allocator@E@std@@@std@@QBEHABV012@@Z
_TEXT	SEGMENT PARA USE32 PUBLIC 'CODE'
_TEXT	ENDS
;	COMDAT ??$_Distance@Vconst_iterator@?$vector@EV?$allocator@E@std@@@std@@I@std@@YAXVconst_iterator@?$vector@EV?$allocator@E@std@@@0@0AAI@Z
_TEXT	SEGMENT PARA USE32 PUBLIC 'CODE'
_TEXT	ENDS
;	COMDAT ??$_Ucopy@PAE@?$vector@EV?$allocator@E@std@@@std@@IAEPAEPAE00@Z
_TEXT	SEGMENT PARA USE32 PUBLIC 'CODE'
_TEXT	ENDS
;	COMDAT ??$advance@Vconst_iterator@?$vector@EV?$allocator@E@std@@@std@@H@std@@YAXAAVconst_iterator@?$vector@EV?$allocator@E@std@@@0@H@Z
_TEXT	SEGMENT PARA USE32 PUBLIC 'CODE'
_TEXT	ENDS
;	COMDAT ??$copy@Vconst_iterator@?$vector@EV?$allocator@E@std@@@std@@PAE@std@@YAPAEVconst_iterator@?$vector@EV?$allocator@E@std@@@0@0PAE@Z
_TEXT	SEGMENT PARA USE32 PUBLIC 'CODE'
_TEXT	ENDS
;	COMDAT ??$copy_backward@PAEPAE@std@@YAPAEPAE00@Z
_TEXT	SEGMENT PARA USE32 PUBLIC 'CODE'
_TEXT	ENDS
;	COMDAT ??$_Insert@Vconst_iterator@?$vector@VCRespawnInfo@@V?$allocator@VCRespawnInfo@@@std@@@std@@@?$vector@VCRespawnInfo@@V?$allocator@VCRespawnInfo@@@std@@@std@@QAEXViterator@01@Vconst_iterator@01@1Uforward_iterator_tag@1@@Z
_TEXT	SEGMENT PARA USE32 PUBLIC 'CODE'
_TEXT	ENDS
;	COMDAT ??$_Distance2@Vconst_iterator@?$vector@EV?$allocator@E@std@@@std@@I@std@@YAXVconst_iterator@?$vector@EV?$allocator@E@std@@@0@0AAIUrandom_access_iterator_tag@0@@Z
_TEXT	SEGMENT PARA USE32 PUBLIC 'CODE'
_TEXT	ENDS
;	COMDAT ??$_Uninitialized_copy@PAEPAEV?$allocator@E@std@@@std@@YAPAEPAE00AAV?$allocator@E@0@@Z
_TEXT	SEGMENT PARA USE32 PUBLIC 'CODE'
_TEXT	ENDS
;	COMDAT ??$_Advance@Vconst_iterator@?$vector@EV?$allocator@E@std@@@std@@H@std@@YAXAAVconst_iterator@?$vector@EV?$allocator@E@std@@@0@HUrandom_access_iterator_tag@0@@Z
_TEXT	SEGMENT PARA USE32 PUBLIC 'CODE'
_TEXT	ENDS
;	COMDAT ??$_Copy_opt@Vconst_iterator@?$vector@EV?$allocator@E@std@@@std@@PAE@std@@YAPAEVconst_iterator@?$vector@EV?$allocator@E@std@@@0@0PAEU_Nonscalar_ptr_iterator_tag@0@@Z
_TEXT	SEGMENT PARA USE32 PUBLIC 'CODE'
_TEXT	ENDS
;	COMDAT ??$_Copy_backward_opt@PAEPAE@std@@YAPAEPAE00U_Scalar_ptr_iterator_tag@0@@Z
_TEXT	SEGMENT PARA USE32 PUBLIC 'CODE'
_TEXT	ENDS
;	COMDAT ??$_Distance@Vconst_iterator@?$vector@VCRespawnInfo@@V?$allocator@VCRespawnInfo@@@std@@@std@@I@std@@YAXVconst_iterator@?$vector@VCRespawnInfo@@V?$allocator@VCRespawnInfo@@@std@@@0@0AAI@Z
_TEXT	SEGMENT PARA USE32 PUBLIC 'CODE'
_TEXT	ENDS
;	COMDAT ??$_Ucopy@Vconst_iterator@?$vector@VCRespawnInfo@@V?$allocator@VCRespawnInfo@@@std@@@std@@@?$vector@VCRespawnInfo@@V?$allocator@VCRespawnInfo@@@std@@@std@@IAEPAVCRespawnInfo@@Vconst_iterator@01@0PAV2@@Z
_TEXT	SEGMENT PARA USE32 PUBLIC 'CODE'
_TEXT	ENDS
;	COMDAT ??$advance@Vconst_iterator@?$vector@VCRespawnInfo@@V?$allocator@VCRespawnInfo@@@std@@@std@@H@std@@YAXAAVconst_iterator@?$vector@VCRespawnInfo@@V?$allocator@VCRespawnInfo@@@std@@@0@H@Z
_TEXT	SEGMENT PARA USE32 PUBLIC 'CODE'
_TEXT	ENDS
;	COMDAT ??$copy@Vconst_iterator@?$vector@VCRespawnInfo@@V?$allocator@VCRespawnInfo@@@std@@@std@@PAVCRespawnInfo@@@std@@YAPAVCRespawnInfo@@Vconst_iterator@?$vector@VCRespawnInfo@@V?$allocator@VCRespawnInfo@@@std@@@0@0PAV1@@Z
_TEXT	SEGMENT PARA USE32 PUBLIC 'CODE'
_TEXT	ENDS
;	COMDAT ??Yconst_iterator@?$vector@EV?$allocator@E@std@@@std@@QAEAAV012@H@Z
_TEXT	SEGMENT PARA USE32 PUBLIC 'CODE'
_TEXT	ENDS
;	COMDAT ??$_Uninit_copy@EE@std@@YAPAEPAE00AAV?$allocator@E@0@U_Scalar_ptr_iterator_tag@0@@Z
_TEXT	SEGMENT PARA USE32 PUBLIC 'CODE'
_TEXT	ENDS
;	COMDAT ??$_Distance2@Vconst_iterator@?$vector@VCRespawnInfo@@V?$allocator@VCRespawnInfo@@@std@@@std@@I@std@@YAXVconst_iterator@?$vector@VCRespawnInfo@@V?$allocator@VCRespawnInfo@@@std@@@0@0AAIUrandom_access_iterator_tag@0@@Z
_TEXT	SEGMENT PARA USE32 PUBLIC 'CODE'
_TEXT	ENDS
;	COMDAT ??$_Uninitialized_copy@Vconst_iterator@?$vector@VCRespawnInfo@@V?$allocator@VCRespawnInfo@@@std@@@std@@PAVCRespawnInfo@@V?$allocator@VCRespawnInfo@@@3@@std@@YAPAVCRespawnInfo@@Vconst_iterator@?$vector@VCRespawnInfo@@V?$allocator@VCRespawnInfo@@@std@@@0@0PAV1@AAV?$allocator@VCRespawnInfo@@@0@@Z
_TEXT	SEGMENT PARA USE32 PUBLIC 'CODE'
_TEXT	ENDS
;	COMDAT ??$_Advance@Vconst_iterator@?$vector@VCRespawnInfo@@V?$allocator@VCRespawnInfo@@@std@@@std@@H@std@@YAXAAVconst_iterator@?$vector@VCRespawnInfo@@V?$allocator@VCRespawnInfo@@@std@@@0@HUrandom_access_iterator_tag@0@@Z
_TEXT	SEGMENT PARA USE32 PUBLIC 'CODE'
_TEXT	ENDS
;	COMDAT ??$_Ptr_cat@Vconst_iterator@?$vector@VCRespawnInfo@@V?$allocator@VCRespawnInfo@@@std@@@std@@PAVCRespawnInfo@@@std@@YA?AU_Nonscalar_ptr_iterator_tag@0@AAVconst_iterator@?$vector@VCRespawnInfo@@V?$allocator@VCRespawnInfo@@@std@@@0@AAPAVCRespawnInfo@@@Z
_TEXT	SEGMENT PARA USE32 PUBLIC 'CODE'
_TEXT	ENDS
;	COMDAT ??$_Copy_opt@Vconst_iterator@?$vector@VCRespawnInfo@@V?$allocator@VCRespawnInfo@@@std@@@std@@PAVCRespawnInfo@@@std@@YAPAVCRespawnInfo@@Vconst_iterator@?$vector@VCRespawnInfo@@V?$allocator@VCRespawnInfo@@@std@@@0@0PAV1@U_Nonscalar_ptr_iterator_tag@0@@Z
_TEXT	SEGMENT PARA USE32 PUBLIC 'CODE'
_TEXT	ENDS
;	COMDAT ??Econst_iterator@?$vector@VCRespawnInfo@@V?$allocator@VCRespawnInfo@@@std@@@std@@QAEAAV012@XZ
_TEXT	SEGMENT PARA USE32 PUBLIC 'CODE'
_TEXT	ENDS
;	COMDAT ??Yconst_iterator@?$vector@VCRespawnInfo@@V?$allocator@VCRespawnInfo@@@std@@@std@@QAEAAV012@H@Z
_TEXT	SEGMENT PARA USE32 PUBLIC 'CODE'
_TEXT	ENDS
;	COMDAT ??$_Uninit_copy@Vconst_iterator@?$vector@VCRespawnInfo@@V?$allocator@VCRespawnInfo@@@std@@@std@@PAVCRespawnInfo@@V?$allocator@VCRespawnInfo@@@3@@std@@YAPAVCRespawnInfo@@Vconst_iterator@?$vector@VCRespawnInfo@@V?$allocator@VCRespawnInfo@@@std@@@0@0PAV1@AAV?$allocator@VCRespawnInfo@@@0@U_Nonscalar_ptr_iterator_tag@0@@Z
_TEXT	SEGMENT PARA USE32 PUBLIC 'CODE'
_TEXT	ENDS
;	COMDAT ?deallocate@?$allocator@E@std@@QAEXPAEI@Z
_TEXT	SEGMENT PARA USE32 PUBLIC 'CODE'
_TEXT	ENDS
;	COMDAT ??$_Ucopy@Vconst_iterator@?$vector@EV?$allocator@E@std@@@std@@@?$vector@EV?$allocator@E@std@@@std@@IAEPAEVconst_iterator@01@0PAE@Z
_TEXT	SEGMENT PARA USE32 PUBLIC 'CODE'
_TEXT	ENDS
;	COMDAT ?allocate@?$allocator@E@std@@QAEPAEI@Z
_TEXT	SEGMENT PARA USE32 PUBLIC 'CODE'
_TEXT	ENDS
;	COMDAT ??$_Allocate@E@std@@YAPAEIPAE@Z
_TEXT	SEGMENT PARA USE32 PUBLIC 'CODE'
_TEXT	ENDS
;	COMDAT ?_Xlen@?$vector@EV?$allocator@E@std@@@std@@IBEXXZ
_TEXT	SEGMENT PARA USE32 PUBLIC 'CODE'
_TEXT	ENDS
;	COMDAT ?size@?$vector@EV?$allocator@E@std@@@std@@QBEIXZ
_TEXT	SEGMENT PARA USE32 PUBLIC 'CODE'
_TEXT	ENDS
;	COMDAT ?max_size@?$vector@EV?$allocator@E@std@@@std@@QBEIXZ
_TEXT	SEGMENT PARA USE32 PUBLIC 'CODE'
_TEXT	ENDS
;	COMDAT ?max_size@?$allocator@E@std@@QBEIXZ
_TEXT	SEGMENT PARA USE32 PUBLIC 'CODE'
_TEXT	ENDS
;	COMDAT ?_Ptr_cat@std@@YA?AU_Scalar_ptr_iterator_tag@1@PAE0@Z
_TEXT	SEGMENT PARA USE32 PUBLIC 'CODE'
_TEXT	ENDS
;	COMDAT ??0const_iterator@?$vector@EV?$allocator@E@std@@@std@@QAE@PAE@Z
_TEXT	SEGMENT PARA USE32 PUBLIC 'CODE'
_TEXT	ENDS
;	COMDAT ?_Destroy@?$vector@EV?$allocator@E@std@@@std@@IAEXPAE0@Z
_TEXT	SEGMENT PARA USE32 PUBLIC 'CODE'
_TEXT	ENDS
;	COMDAT ??$_Destroy_range@EV?$allocator@E@std@@@std@@YAXPAE0AAV?$allocator@E@0@@Z
_TEXT	SEGMENT PARA USE32 PUBLIC 'CODE'
_TEXT	ENDS
;	COMDAT ?_Ptr_cat@std@@YA?AU_Scalar_ptr_iterator_tag@1@PAJ0@Z
_TEXT	SEGMENT PARA USE32 PUBLIC 'CODE'
_TEXT	ENDS
;	COMDAT ??9const_iterator@?$_Tree@V?$_Tmap_traits@KEU?$less@K@std@@V?$allocator@U?$pair@$$CBKE@std@@@2@$0A@@std@@@std@@QBE_NABV012@@Z
_TEXT	SEGMENT PARA USE32 PUBLIC 'CODE'
_TEXT	ENDS
;	COMDAT ??8const_iterator@?$_Tree@V?$_Tmap_traits@KEU?$less@K@std@@V?$allocator@U?$pair@$$CBKE@std@@@2@$0A@@std@@@std@@QBE_NABV012@@Z
_TEXT	SEGMENT PARA USE32 PUBLIC 'CODE'
_TEXT	ENDS
;	COMDAT ??Eiterator@?$_Tree@V?$_Tmap_traits@KEU?$less@K@std@@V?$allocator@U?$pair@$$CBKE@std@@@2@$0A@@std@@@std@@QAEAAV012@XZ
_TEXT	SEGMENT PARA USE32 PUBLIC 'CODE'
_TEXT	ENDS
;	COMDAT ??Econst_iterator@?$_Tree@V?$_Tmap_traits@KEU?$less@K@std@@V?$allocator@U?$pair@$$CBKE@std@@@2@$0A@@std@@@std@@QAEAAV012@XZ
_TEXT	SEGMENT PARA USE32 PUBLIC 'CODE'
_TEXT	ENDS
;	COMDAT ?_Inc@const_iterator@?$_Tree@V?$_Tmap_traits@KEU?$less@K@std@@V?$allocator@U?$pair@$$CBKE@std@@@2@$0A@@std@@@std@@QAEXXZ
_TEXT	SEGMENT PARA USE32 PUBLIC 'CODE'
_TEXT	ENDS
;	COMDAT ?_Min@?$_Tree@V?$_Tmap_traits@KEU?$less@K@std@@V?$allocator@U?$pair@$$CBKE@std@@@2@$0A@@std@@@std@@KAPAU_Node@?$_Tree_nod@V?$_Tmap_traits@KEU?$less@K@std@@V?$allocator@U?$pair@$$CBKE@std@@@2@$0A@@std@@@2@PAU342@@Z
_TEXT	SEGMENT PARA USE32 PUBLIC 'CODE'
_TEXT	ENDS
;	COMDAT ?_Left@?$_Tree@V?$_Tmap_traits@KEU?$less@K@std@@V?$allocator@U?$pair@$$CBKE@std@@@2@$0A@@std@@@std@@KAAAPAU_Node@?$_Tree_nod@V?$_Tmap_traits@KEU?$less@K@std@@V?$allocator@U?$pair@$$CBKE@std@@@2@$0A@@std@@@2@PAU342@@Z
_TEXT	SEGMENT PARA USE32 PUBLIC 'CODE'
_TEXT	ENDS
;	COMDAT ?_Isnil@?$_Tree@V?$_Tmap_traits@KEU?$less@K@std@@V?$allocator@U?$pair@$$CBKE@std@@@2@$0A@@std@@@std@@KAAADPAU_Node@?$_Tree_nod@V?$_Tmap_traits@KEU?$less@K@std@@V?$allocator@U?$pair@$$CBKE@std@@@2@$0A@@std@@@2@@Z
_TEXT	SEGMENT PARA USE32 PUBLIC 'CODE'
_TEXT	ENDS
;	COMDAT ?_Parent@?$_Tree@V?$_Tmap_traits@KEU?$less@K@std@@V?$allocator@U?$pair@$$CBKE@std@@@2@$0A@@std@@@std@@KAAAPAU_Node@?$_Tree_nod@V?$_Tmap_traits@KEU?$less@K@std@@V?$allocator@U?$pair@$$CBKE@std@@@2@$0A@@std@@@2@PAU342@@Z
_TEXT	SEGMENT PARA USE32 PUBLIC 'CODE'
_TEXT	ENDS
;	COMDAT ?_Right@?$_Tree@V?$_Tmap_traits@KEU?$less@K@std@@V?$allocator@U?$pair@$$CBKE@std@@@2@$0A@@std@@@std@@KAAAPAU_Node@?$_Tree_nod@V?$_Tmap_traits@KEU?$less@K@std@@V?$allocator@U?$pair@$$CBKE@std@@@2@$0A@@std@@@2@PAU342@@Z
_TEXT	SEGMENT PARA USE32 PUBLIC 'CODE'
_TEXT	ENDS
;	COMDAT ??9const_iterator@?$_Tree@V?$_Tmap_traits@KPAVCCtrl@@U?$less@K@std@@V?$allocator@U?$pair@$$CBKPAVCCtrl@@@std@@@3@$0A@@std@@@std@@QBE_NABV012@@Z
_TEXT	SEGMENT PARA USE32 PUBLIC 'CODE'
_TEXT	ENDS
;	COMDAT ??8const_iterator@?$_Tree@V?$_Tmap_traits@KPAVCCtrl@@U?$less@K@std@@V?$allocator@U?$pair@$$CBKPAVCCtrl@@@std@@@3@$0A@@std@@@std@@QBE_NABV012@@Z
_TEXT	SEGMENT PARA USE32 PUBLIC 'CODE'
_TEXT	ENDS
;	COMDAT ??Eiterator@?$_Tree@V?$_Tmap_traits@KPAVCCtrl@@U?$less@K@std@@V?$allocator@U?$pair@$$CBKPAVCCtrl@@@std@@@3@$0A@@std@@@std@@QAEAAV012@XZ
_TEXT	SEGMENT PARA USE32 PUBLIC 'CODE'
_TEXT	ENDS
;	COMDAT ??Econst_iterator@?$_Tree@V?$_Tmap_traits@KPAVCCtrl@@U?$less@K@std@@V?$allocator@U?$pair@$$CBKPAVCCtrl@@@std@@@3@$0A@@std@@@std@@QAEAAV012@XZ
_TEXT	SEGMENT PARA USE32 PUBLIC 'CODE'
_TEXT	ENDS
;	COMDAT ?_Inc@const_iterator@?$_Tree@V?$_Tmap_traits@KPAVCCtrl@@U?$less@K@std@@V?$allocator@U?$pair@$$CBKPAVCCtrl@@@std@@@3@$0A@@std@@@std@@QAEXXZ
_TEXT	SEGMENT PARA USE32 PUBLIC 'CODE'
_TEXT	ENDS
;	COMDAT ?_Min@?$_Tree@V?$_Tmap_traits@KPAVCCtrl@@U?$less@K@std@@V?$allocator@U?$pair@$$CBKPAVCCtrl@@@std@@@3@$0A@@std@@@std@@KAPAU_Node@?$_Tree_nod@V?$_Tmap_traits@KPAVCCtrl@@U?$less@K@std@@V?$allocator@U?$pair@$$CBKPAVCCtrl@@@std@@@3@$0A@@std@@@2@PAU342@@Z
_TEXT	SEGMENT PARA USE32 PUBLIC 'CODE'
_TEXT	ENDS
;	COMDAT ?_Left@?$_Tree@V?$_Tmap_traits@KPAVCCtrl@@U?$less@K@std@@V?$allocator@U?$pair@$$CBKPAVCCtrl@@@std@@@3@$0A@@std@@@std@@KAAAPAU_Node@?$_Tree_nod@V?$_Tmap_traits@KPAVCCtrl@@U?$less@K@std@@V?$allocator@U?$pair@$$CBKPAVCCtrl@@@std@@@3@$0A@@std@@@2@PAU342@@Z
_TEXT	SEGMENT PARA USE32 PUBLIC 'CODE'
_TEXT	ENDS
;	COMDAT ?_Isnil@?$_Tree@V?$_Tmap_traits@KPAVCCtrl@@U?$less@K@std@@V?$allocator@U?$pair@$$CBKPAVCCtrl@@@std@@@3@$0A@@std@@@std@@KAAADPAU_Node@?$_Tree_nod@V?$_Tmap_traits@KPAVCCtrl@@U?$less@K@std@@V?$allocator@U?$pair@$$CBKPAVCCtrl@@@std@@@3@$0A@@std@@@2@@Z
_TEXT	SEGMENT PARA USE32 PUBLIC 'CODE'
_TEXT	ENDS
;	COMDAT ?_Parent@?$_Tree@V?$_Tmap_traits@KPAVCCtrl@@U?$less@K@std@@V?$allocator@U?$pair@$$CBKPAVCCtrl@@@std@@@3@$0A@@std@@@std@@KAAAPAU_Node@?$_Tree_nod@V?$_Tmap_traits@KPAVCCtrl@@U?$less@K@std@@V?$allocator@U?$pair@$$CBKPAVCCtrl@@@std@@@3@$0A@@std@@@2@PAU342@@Z
_TEXT	SEGMENT PARA USE32 PUBLIC 'CODE'
_TEXT	ENDS
;	COMDAT ?_Right@?$_Tree@V?$_Tmap_traits@KPAVCCtrl@@U?$less@K@std@@V?$allocator@U?$pair@$$CBKPAVCCtrl@@@std@@@3@$0A@@std@@@std@@KAAAPAU_Node@?$_Tree_nod@V?$_Tmap_traits@KPAVCCtrl@@U?$less@K@std@@V?$allocator@U?$pair@$$CBKPAVCCtrl@@@std@@@3@$0A@@std@@@2@PAU342@@Z
_TEXT	SEGMENT PARA USE32 PUBLIC 'CODE'
_TEXT	ENDS
;	COMDAT ??9const_iterator@?$_Tree@V?$_Tmap_traits@KPAVCUser@@U?$less@K@std@@V?$allocator@U?$pair@$$CBKPAVCUser@@@std@@@3@$0A@@std@@@std@@QBE_NABV012@@Z
_TEXT	SEGMENT PARA USE32 PUBLIC 'CODE'
_TEXT	ENDS
;	COMDAT ??8const_iterator@?$_Tree@V?$_Tmap_traits@KPAVCUser@@U?$less@K@std@@V?$allocator@U?$pair@$$CBKPAVCUser@@@std@@@3@$0A@@std@@@std@@QBE_NABV012@@Z
_TEXT	SEGMENT PARA USE32 PUBLIC 'CODE'
_TEXT	ENDS
;	COMDAT ??Eiterator@?$_Tree@V?$_Tmap_traits@KPAVCUser@@U?$less@K@std@@V?$allocator@U?$pair@$$CBKPAVCUser@@@std@@@3@$0A@@std@@@std@@QAEAAV012@XZ
_TEXT	SEGMENT PARA USE32 PUBLIC 'CODE'
_TEXT	ENDS
;	COMDAT ??Econst_iterator@?$_Tree@V?$_Tmap_traits@KPAVCUser@@U?$less@K@std@@V?$allocator@U?$pair@$$CBKPAVCUser@@@std@@@3@$0A@@std@@@std@@QAEAAV012@XZ
_TEXT	SEGMENT PARA USE32 PUBLIC 'CODE'
_TEXT	ENDS
;	COMDAT ?_Inc@const_iterator@?$_Tree@V?$_Tmap_traits@KPAVCUser@@U?$less@K@std@@V?$allocator@U?$pair@$$CBKPAVCUser@@@std@@@3@$0A@@std@@@std@@QAEXXZ
_TEXT	SEGMENT PARA USE32 PUBLIC 'CODE'
_TEXT	ENDS
;	COMDAT ?_Min@?$_Tree@V?$_Tmap_traits@KPAVCUser@@U?$less@K@std@@V?$allocator@U?$pair@$$CBKPAVCUser@@@std@@@3@$0A@@std@@@std@@KAPAU_Node@?$_Tree_nod@V?$_Tmap_traits@KPAVCUser@@U?$less@K@std@@V?$allocator@U?$pair@$$CBKPAVCUser@@@std@@@3@$0A@@std@@@2@PAU342@@Z
_TEXT	SEGMENT PARA USE32 PUBLIC 'CODE'
_TEXT	ENDS
;	COMDAT ?_Left@?$_Tree@V?$_Tmap_traits@KPAVCUser@@U?$less@K@std@@V?$allocator@U?$pair@$$CBKPAVCUser@@@std@@@3@$0A@@std@@@std@@KAAAPAU_Node@?$_Tree_nod@V?$_Tmap_traits@KPAVCUser@@U?$less@K@std@@V?$allocator@U?$pair@$$CBKPAVCUser@@@std@@@3@$0A@@std@@@2@PAU342@@Z
_TEXT	SEGMENT PARA USE32 PUBLIC 'CODE'
_TEXT	ENDS
;	COMDAT ?_Isnil@?$_Tree@V?$_Tmap_traits@KPAVCUser@@U?$less@K@std@@V?$allocator@U?$pair@$$CBKPAVCUser@@@std@@@3@$0A@@std@@@std@@KAAADPAU_Node@?$_Tree_nod@V?$_Tmap_traits@KPAVCUser@@U?$less@K@std@@V?$allocator@U?$pair@$$CBKPAVCUser@@@std@@@3@$0A@@std@@@2@@Z
_TEXT	SEGMENT PARA USE32 PUBLIC 'CODE'
_TEXT	ENDS
;	COMDAT ?_Parent@?$_Tree@V?$_Tmap_traits@KPAVCUser@@U?$less@K@std@@V?$allocator@U?$pair@$$CBKPAVCUser@@@std@@@3@$0A@@std@@@std@@KAAAPAU_Node@?$_Tree_nod@V?$_Tmap_traits@KPAVCUser@@U?$less@K@std@@V?$allocator@U?$pair@$$CBKPAVCUser@@@std@@@3@$0A@@std@@@2@PAU342@@Z
_TEXT	SEGMENT PARA USE32 PUBLIC 'CODE'
_TEXT	ENDS
;	COMDAT ?_Right@?$_Tree@V?$_Tmap_traits@KPAVCUser@@U?$less@K@std@@V?$allocator@U?$pair@$$CBKPAVCUser@@@std@@@3@$0A@@std@@@std@@KAAAPAU_Node@?$_Tree_nod@V?$_Tmap_traits@KPAVCUser@@U?$less@K@std@@V?$allocator@U?$pair@$$CBKPAVCUser@@@std@@@3@$0A@@std@@@2@PAU342@@Z
_TEXT	SEGMENT PARA USE32 PUBLIC 'CODE'
_TEXT	ENDS
;	COMDAT ?_Psave@?$_Facetptr@V?$ctype@G@std@@@std@@2PBVfacet@locale@2@B
_DATA	SEGMENT DWORD USE32 PUBLIC 'DATA'
_DATA	ENDS
;	COMDAT ?_Psave@?$_Facetptr@V?$ctype@D@std@@@std@@2PBVfacet@locale@2@B
_DATA	SEGMENT DWORD USE32 PUBLIC 'DATA'
_DATA	ENDS
;	COMDAT ??3@YAXPAX0@Z
_TEXT	SEGMENT PARA USE32 PUBLIC 'CODE'
_TEXT	ENDS
;	COMDAT ??2@YAPAXIPAX@Z
_TEXT	SEGMENT PARA USE32 PUBLIC 'CODE'
_TEXT	ENDS
;	COMDAT ??_C@_0BD@OLBABOEK@vector?$DMT?$DO?5too?5long?$AA@
CONST	SEGMENT DWORD USE32 PUBLIC 'CONST'
CONST	ENDS
;	COMDAT __TI3?AVlength_error@std@@
xdata$x	SEGMENT DWORD USE32 PUBLIC 'CONST'
xdata$x	ENDS
;	COMDAT ??1length_error@std@@UAE@XZ
_TEXT	SEGMENT PARA USE32 PUBLIC 'CODE'
_TEXT	ENDS
;	COMDAT ??_7length_error@std@@6B@
CONST	SEGMENT DWORD USE32 PUBLIC 'CONST'
CONST	ENDS
;	COMDAT ??_Glength_error@std@@UAEPAXI@Z
_TEXT	SEGMENT PARA USE32 PUBLIC 'CODE'
_TEXT	ENDS
;	COMDAT ?what@logic_error@std@@UBEPBDXZ
_TEXT	SEGMENT PARA USE32 PUBLIC 'CODE'
_TEXT	ENDS
;	COMDAT ?c_str@?$basic_string@DU?$char_traits@D@std@@V?$allocator@D@2@@std@@QBEPBDXZ
_TEXT	SEGMENT PARA USE32 PUBLIC 'CODE'
_TEXT	ENDS
;	COMDAT ??1logic_error@std@@UAE@XZ
_TEXT	SEGMENT PARA USE32 PUBLIC 'CODE'
_TEXT	ENDS
;	COMDAT ??_7logic_error@std@@6B@
CONST	SEGMENT DWORD USE32 PUBLIC 'CONST'
CONST	ENDS
;	COMDAT ??_Glogic_error@std@@UAEPAXI@Z
_TEXT	SEGMENT PARA USE32 PUBLIC 'CODE'
_TEXT	ENDS
;	COMDAT __CTA3?AVlength_error@std@@
xdata$x	SEGMENT DWORD USE32 PUBLIC 'CONST'
xdata$x	ENDS
;	COMDAT __CT??_R0?AVlength_error@std@@@8??0length_error@std@@QAE@ABV01@@Z40
xdata$x	SEGMENT DWORD USE32 PUBLIC 'CONST'
xdata$x	ENDS
;	COMDAT ??_R0?AVlength_error@std@@@8
_DATA	SEGMENT DWORD USE32 PUBLIC 'DATA'
_DATA	ENDS
;	COMDAT ??0length_error@std@@QAE@ABV01@@Z
_TEXT	SEGMENT PARA USE32 PUBLIC 'CODE'
_TEXT	ENDS
;	COMDAT ??0logic_error@std@@QAE@ABV01@@Z
_TEXT	SEGMENT PARA USE32 PUBLIC 'CODE'
_TEXT	ENDS
;	COMDAT ??0?$basic_string@DU?$char_traits@D@std@@V?$allocator@D@2@@std@@QAE@ABV01@@Z
_TEXT	SEGMENT PARA USE32 PUBLIC 'CODE'
_TEXT	ENDS
;	COMDAT ??0?$_String_val@DV?$allocator@D@std@@@std@@IAE@V?$allocator@D@1@@Z
_TEXT	SEGMENT PARA USE32 PUBLIC 'CODE'
_TEXT	ENDS
;	COMDAT ??0?$allocator@D@std@@QAE@ABV01@@Z
_TEXT	SEGMENT PARA USE32 PUBLIC 'CODE'
_TEXT	ENDS
;	COMDAT ?_Tidy@?$basic_string@DU?$char_traits@D@std@@V?$allocator@D@2@@std@@IAEX_NI@Z
_TEXT	SEGMENT PARA USE32 PUBLIC 'CODE'
_TEXT	ENDS
;	COMDAT ?copy@?$char_traits@D@std@@SAPADPADPBDI@Z
_TEXT	SEGMENT PARA USE32 PUBLIC 'CODE'
_TEXT	ENDS
;	COMDAT ?deallocate@?$allocator@D@std@@QAEXPADI@Z
_TEXT	SEGMENT PARA USE32 PUBLIC 'CODE'
_TEXT	ENDS
;	COMDAT ?_Eos@?$basic_string@DU?$char_traits@D@std@@V?$allocator@D@2@@std@@IAEXI@Z
_TEXT	SEGMENT PARA USE32 PUBLIC 'CODE'
_TEXT	ENDS
;	COMDAT ?assign@?$char_traits@D@std@@SAXAADABD@Z
_TEXT	SEGMENT PARA USE32 PUBLIC 'CODE'
_TEXT	ENDS
;	COMDAT ?_Myptr@?$basic_string@DU?$char_traits@D@std@@V?$allocator@D@2@@std@@QAEPADXZ
_TEXT	SEGMENT PARA USE32 PUBLIC 'CODE'
_TEXT	ENDS
;	COMDAT ?assign@?$basic_string@DU?$char_traits@D@std@@V?$allocator@D@2@@std@@QAEAAV12@ABV12@II@Z
_TEXT	SEGMENT PARA USE32 PUBLIC 'CODE'
_TEXT	ENDS
;	COMDAT ?erase@?$basic_string@DU?$char_traits@D@std@@V?$allocator@D@2@@std@@QAEAAV12@II@Z
_TEXT	SEGMENT PARA USE32 PUBLIC 'CODE'
_TEXT	ENDS
;	COMDAT ?move@?$char_traits@D@std@@SAPADPADPBDI@Z
_TEXT	SEGMENT PARA USE32 PUBLIC 'CODE'
_TEXT	ENDS
;	COMDAT ?_Grow@?$basic_string@DU?$char_traits@D@std@@V?$allocator@D@2@@std@@IAE_NI_N@Z
_TEXT	SEGMENT PARA USE32 PUBLIC 'CODE'
_TEXT	ENDS
;	COMDAT ?max_size@?$basic_string@DU?$char_traits@D@std@@V?$allocator@D@2@@std@@QBEIXZ
_TEXT	SEGMENT PARA USE32 PUBLIC 'CODE'
_TEXT	ENDS
;	COMDAT ?max_size@?$allocator@D@std@@QBEIXZ
_TEXT	SEGMENT PARA USE32 PUBLIC 'CODE'
_TEXT	ENDS
;	COMDAT ?_Copy@?$basic_string@DU?$char_traits@D@std@@V?$allocator@D@2@@std@@IAEXII@Z
_TEXT	SEGMENT PARA USE32 PUBLIC 'CODE'
_TEXT	ENDS
;	COMDAT ?allocate@?$allocator@D@std@@QAEPADI@Z
_TEXT	SEGMENT PARA USE32 PUBLIC 'CODE'
_TEXT	ENDS
;	COMDAT ??$_Allocate@D@std@@YAPADIPAD@Z
_TEXT	SEGMENT PARA USE32 PUBLIC 'CODE'
_TEXT	ENDS
;	COMDAT ?npos@?$basic_string@DU?$char_traits@D@std@@V?$allocator@D@2@@std@@2IB
CONST	SEGMENT DWORD USE32 PUBLIC 'CONST'
CONST	ENDS
;	COMDAT __CT??_R0?AVlogic_error@std@@@8??0logic_error@std@@QAE@ABV01@@Z40
xdata$x	SEGMENT DWORD USE32 PUBLIC 'CONST'
xdata$x	ENDS
;	COMDAT ??_R0?AVlogic_error@std@@@8
_DATA	SEGMENT DWORD USE32 PUBLIC 'DATA'
_DATA	ENDS
;	COMDAT __CT??_R0?AVexception@@@8??0exception@@QAE@ABV0@@Z12
xdata$x	SEGMENT DWORD USE32 PUBLIC 'CONST'
xdata$x	ENDS
;	COMDAT ??_R0?AVexception@@@8
_DATA	SEGMENT DWORD USE32 PUBLIC 'DATA'
_DATA	ENDS
;	COMDAT ??_C@_0BE@JONHPENG@map?1set?$DMT?$DO?5too?5long?$AA@
CONST	SEGMENT DWORD USE32 PUBLIC 'CONST'
CONST	ENDS
;	COMDAT ??0length_error@std@@QAE@ABV?$basic_string@DU?$char_traits@D@std@@V?$allocator@D@2@@1@@Z
_TEXT	SEGMENT PARA USE32 PUBLIC 'CODE'
_TEXT	ENDS
;	COMDAT ??0logic_error@std@@QAE@ABV?$basic_string@DU?$char_traits@D@std@@V?$allocator@D@2@@1@@Z
_TEXT	SEGMENT PARA USE32 PUBLIC 'CODE'
_TEXT	ENDS
;	COMDAT ?compare@?$char_traits@D@std@@SAHPBD0I@Z
_TEXT	SEGMENT PARA USE32 PUBLIC 'CODE'
_TEXT	ENDS
;	COMDAT ??$swap@D@std@@YAXAAD0@Z
_TEXT	SEGMENT PARA USE32 PUBLIC 'CODE'
_TEXT	ENDS
;	COMDAT __TI3?AVout_of_range@std@@
xdata$x	SEGMENT DWORD USE32 PUBLIC 'CONST'
xdata$x	ENDS
;	COMDAT ??1out_of_range@std@@UAE@XZ
_TEXT	SEGMENT PARA USE32 PUBLIC 'CODE'
_TEXT	ENDS
;	COMDAT ??_7out_of_range@std@@6B@
CONST	SEGMENT DWORD USE32 PUBLIC 'CONST'
CONST	ENDS
;	COMDAT ??_Gout_of_range@std@@UAEPAXI@Z
_TEXT	SEGMENT PARA USE32 PUBLIC 'CODE'
_TEXT	ENDS
;	COMDAT __CTA3?AVout_of_range@std@@
xdata$x	SEGMENT DWORD USE32 PUBLIC 'CONST'
xdata$x	ENDS
;	COMDAT __CT??_R0?AVout_of_range@std@@@8??0out_of_range@std@@QAE@ABV01@@Z40
xdata$x	SEGMENT DWORD USE32 PUBLIC 'CONST'
xdata$x	ENDS
;	COMDAT ??_R0?AVout_of_range@std@@@8
_DATA	SEGMENT DWORD USE32 PUBLIC 'DATA'
_DATA	ENDS
;	COMDAT ??0out_of_range@std@@QAE@ABV01@@Z
_TEXT	SEGMENT PARA USE32 PUBLIC 'CODE'
_TEXT	ENDS
;	COMDAT ??1?$basic_string@DU?$char_traits@D@std@@V?$allocator@D@2@@std@@QAE@XZ
_TEXT	SEGMENT PARA USE32 PUBLIC 'CODE'
_TEXT	ENDS
;	COMDAT ??_C@_0BM@PAPJHAGI@invalid?5map?1set?$DMT?$DO?5iterator?$AA@
CONST	SEGMENT DWORD USE32 PUBLIC 'CONST'
CONST	ENDS
;	COMDAT ??0?$basic_string@DU?$char_traits@D@std@@V?$allocator@D@2@@std@@QAE@PBD@Z
_TEXT	SEGMENT PARA USE32 PUBLIC 'CODE'
_TEXT	ENDS
;	COMDAT ??0?$allocator@D@std@@QAE@XZ
_TEXT	SEGMENT PARA USE32 PUBLIC 'CODE'
_TEXT	ENDS
;	COMDAT ?assign@?$basic_string@DU?$char_traits@D@std@@V?$allocator@D@2@@std@@QAEAAV12@PBD@Z
_TEXT	SEGMENT PARA USE32 PUBLIC 'CODE'
_TEXT	ENDS
;	COMDAT ?assign@?$basic_string@DU?$char_traits@D@std@@V?$allocator@D@2@@std@@QAEAAV12@PBDI@Z
_TEXT	SEGMENT PARA USE32 PUBLIC 'CODE'
_TEXT	ENDS
;	COMDAT ?_Inside@?$basic_string@DU?$char_traits@D@std@@V?$allocator@D@2@@std@@IAE_NPBD@Z
_TEXT	SEGMENT PARA USE32 PUBLIC 'CODE'
_TEXT	ENDS
;	COMDAT ?length@?$char_traits@D@std@@SAIPBD@Z
_TEXT	SEGMENT PARA USE32 PUBLIC 'CODE'
_TEXT	ENDS
;	COMDAT ??0out_of_range@std@@QAE@ABV?$basic_string@DU?$char_traits@D@std@@V?$allocator@D@2@@1@@Z
_TEXT	SEGMENT PARA USE32 PUBLIC 'CODE'
_TEXT	ENDS
;	COMDAT ??R?$less@H@std@@QBE_NABH0@Z
_TEXT	SEGMENT PARA USE32 PUBLIC 'CODE'
_TEXT	ENDS
;	COMDAT ?_Myptr@?$basic_string@DU?$char_traits@D@std@@V?$allocator@D@2@@std@@QBEPBDXZ
_TEXT	SEGMENT PARA USE32 PUBLIC 'CODE'
_TEXT	ENDS
;	COMDAT ?size@?$basic_string@DU?$char_traits@D@std@@V?$allocator@D@2@@std@@QBEIXZ
_TEXT	SEGMENT PARA USE32 PUBLIC 'CODE'
_TEXT	ENDS
;	COMDAT ??_7CLayerdRespawner@@6B@
CONST	SEGMENT DWORD USE32 PUBLIC 'CONST'
CONST	ENDS
;	COMDAT ?GetType@CObj@@QAEKXZ
_TEXT	SEGMENT PARA USE32 PUBLIC 'CODE'
_TEXT	ENDS
;	COMDAT ?SetRespawn@CCtrl@@QAEXJE@Z
_TEXT	SEGMENT PARA USE32 PUBLIC 'CODE'
_TEXT	ENDS
;	COMDAT ?GetLevel@CMover@@QAEHXZ
_TEXT	SEGMENT PARA USE32 PUBLIC 'CODE'
_TEXT	ENDS
;	COMDAT ?SetGold@CMover@@QAEXH@Z
_TEXT	SEGMENT PARA USE32 PUBLIC 'CODE'
_TEXT	ENDS
;	COMDAT ?GetPropA@CItemElem@@QAEPAUItemProp@@XZ
_TEXT	SEGMENT PARA USE32 PUBLIC 'CODE'
_TEXT	ENDS
;	COMDAT ?GetItemProp@CProject@@QAEPAUItemProp@@H@Z
_TEXT	SEGMENT PARA USE32 PUBLIC 'CODE'
_TEXT	ENDS
;	COMDAT ?LOG_RANGE@@YAXPBDHHH@Z
_TEXT	SEGMENT PARA USE32 PUBLIC 'CODE'
_TEXT	ENDS
;	COMDAT ??_C@_0BM@HMFGHCP@?$CFs?5min?3?$CFd?0?5max?3?$CFd?0?5index?3?$CFd?$AA@
CONST	SEGMENT DWORD USE32 PUBLIC 'CONST'
CONST	ENDS
;	COMDAT ?GetSize@?$CFixedArray@UItemProp@@@@QAEHXZ
_TEXT	SEGMENT PARA USE32 PUBLIC 'CODE'
_TEXT	ENDS
;	COMDAT ??_C@_0BI@BEIFNGEL@GetItemProp?5range_error?$AA@
CONST	SEGMENT DWORD USE32 PUBLIC 'CONST'
CONST	ENDS
;	COMDAT ?LOG_CALLSTACK@@YAXXZ
_TEXT	SEGMENT PARA USE32 PUBLIC 'CODE'
_TEXT	ENDS
;	COMDAT ?GetAt@?$CFixedArray@UItemProp@@@@QAEPAUItemProp@@K@Z
_TEXT	SEGMENT PARA USE32 PUBLIC 'CODE'
_TEXT	ENDS
;	COMDAT ?GetID@CWorld@@QAEKXZ
_TEXT	SEGMENT PARA USE32 PUBLIC 'CODE'
_TEXT	ENDS
;	COMDAT ??_7CRespawner@@6B@
CONST	SEGMENT DWORD USE32 PUBLIC 'CONST'
CONST	ENDS
;	COMDAT ?xRandom@@YAKK@Z
_TEXT	SEGMENT PARA USE32 PUBLIC 'CODE'
_TEXT	ENDS
;	COMDAT ?xRand@@YAKXZ
_TEXT	SEGMENT PARA USE32 PUBLIC 'CODE'
_TEXT	ENDS
;	COMDAT ?GetMoverProp@CProject@@QAEPAUMoverProp@@H@Z
_TEXT	SEGMENT PARA USE32 PUBLIC 'CODE'
_TEXT	ENDS
;	COMDAT ??_C@_0BJ@GKPOBPPI@GetMoverProp?5range_error?$AA@
CONST	SEGMENT DWORD USE32 PUBLIC 'CONST'
CONST	ENDS
;	COMDAT ??0D3DXVECTOR3@@QAE@MMM@Z
_TEXT	SEGMENT PARA USE32 PUBLIC 'CODE'
_TEXT	ENDS
;	COMDAT ??0D3DXVECTOR3@@QAE@XZ
_TEXT	SEGMENT PARA USE32 PUBLIC 'CODE'
_TEXT	ENDS
;	COMDAT ??0CRect@@QAE@XZ
_TEXT	SEGMENT PARA USE32 PUBLIC 'CODE'
_TEXT	ENDS
;	COMDAT ??_7CRespawnInfo@@6B@
CONST	SEGMENT DWORD USE32 PUBLIC 'CONST'
CONST	ENDS
sxdata	SEGMENT DWORD USE32 'SXDATA'
sxdata	ENDS
FLAT	GROUP _DATA, CONST, _BSS
	ASSUME	CS: FLAT, DS: FLAT, SS: FLAT
endif

INCLUDELIB LIBCMT
INCLUDELIB OLDNAMES

PUBLIC	??2@YAPAXIPAX@Z					; operator new
; Function compile flags: /Ogty
; File c:\program files\microsoft visual studio .net 2003\vc7\include\new.h
;	COMDAT ??2@YAPAXIPAX@Z
_TEXT	SEGMENT
___formal$ = 8						; size = 4
__P$ = 12						; size = 4
??2@YAPAXIPAX@Z PROC NEAR				; operator new, COMDAT

; 109  :         {return (_P); }

  00000	8b 44 24 08	 mov	 eax, DWORD PTR __P$[esp-4]
  00004	c3		 ret	 0
??2@YAPAXIPAX@Z ENDP					; operator new
_TEXT	ENDS
PUBLIC	??3@YAXPAX0@Z					; operator delete
; Function compile flags: /Ogty
;	COMDAT ??3@YAXPAX0@Z
_TEXT	SEGMENT
___formal$ = 8						; size = 4
___formal$ = 12						; size = 4
??3@YAXPAX0@Z PROC NEAR					; operator delete, COMDAT

; 112  :         {return; }

  00000	c3		 ret	 0
??3@YAXPAX0@Z ENDP					; operator delete
_TEXT	ENDS
PUBLIC	??1CRespawnInfo@@UAE@XZ				; CRespawnInfo::~CRespawnInfo
PUBLIC	??_7CRespawnInfo@@6B@				; CRespawnInfo::`vftable'
PUBLIC	??_GCRespawnInfo@@UAEPAXI@Z			; CRespawnInfo::`scalar deleting destructor'
EXTRN	??_ECRespawnInfo@@UAEPAXI@Z:NEAR		; CRespawnInfo::`vector deleting destructor'
;	COMDAT ??_7CRespawnInfo@@6B@
; File c:\documents and settings\test\mes documents\source\virtuos_v17\build\program\_common\respawn.cpp
CONST	SEGMENT
??_7CRespawnInfo@@6B@ DD FLAT:??_ECRespawnInfo@@UAEPAXI@Z ; CRespawnInfo::`vftable'
; Function compile flags: /Ogty
CONST	ENDS
;	COMDAT ??1CRespawnInfo@@UAE@XZ
_TEXT	SEGMENT
??1CRespawnInfo@@UAE@XZ PROC NEAR			; CRespawnInfo::~CRespawnInfo, COMDAT
; _this$ = ecx

; 89   : {

  00000	c7 01 00 00 00
	00		 mov	 DWORD PTR [ecx], OFFSET FLAT:??_7CRespawnInfo@@6B@

; 90   : }

  00006	c3		 ret	 0
??1CRespawnInfo@@UAE@XZ ENDP				; CRespawnInfo::~CRespawnInfo
_TEXT	ENDS
PUBLIC	?Increment@CRespawnInfo@@QAEXH@Z		; CRespawnInfo::Increment
EXTRN	__imp__InterlockedDecrement@4:NEAR
; Function compile flags: /Ogty
;	COMDAT ?Increment@CRespawnInfo@@QAEXH@Z
_TEXT	SEGMENT
_bActiveAttack$ = 8					; size = 4
?Increment@CRespawnInfo@@QAEXH@Z PROC NEAR		; CRespawnInfo::Increment, COMDAT
; _this$ = ecx

; 164  : { 

  00000	56		 push	 esi
  00001	8b f1		 mov	 esi, ecx
  00003	57		 push	 edi

; 165  : #ifdef __S1108_BACK_END_SYSTEM
; 166  : 	InterlockedDecrement( &m_cb ); 

  00004	8b 3d 00 00 00
	00		 mov	 edi, DWORD PTR __imp__InterlockedDecrement@4
  0000a	8d 46 0c	 lea	 eax, DWORD PTR [esi+12]
  0000d	50		 push	 eax
  0000e	ff d7		 call	 edi

; 167  : 	if( bActiveAttack ) 

  00010	8b 44 24 0c	 mov	 eax, DWORD PTR _bActiveAttack$[esp+4]
  00014	85 c0		 test	 eax, eax
  00016	74 06		 je	 SHORT $L228359

; 168  : 		InterlockedDecrement( &m_nActiveAttackNum );	

  00018	83 c6 10	 add	 esi, 16			; 00000010H
  0001b	56		 push	 esi
  0001c	ff d7		 call	 edi
$L228359:
  0001e	5f		 pop	 edi
  0001f	5e		 pop	 esi

; 169  : #else // __S1108_BACK_END_SYSTEM
; 170  : 	InterlockedIncrement( &m_cb ); 
; 171  : 	if( bActiveAttack ) 
; 172  : 		InterlockedIncrement( &m_nActiveAttackNum );	
; 173  : #endif // __S1108_BACK_END_SYSTEM
; 174  : }

  00020	c2 04 00	 ret	 4
?Increment@CRespawnInfo@@QAEXH@Z ENDP			; CRespawnInfo::Increment
_TEXT	ENDS
PUBLIC	??4CRespawnInfo@@QAEAAV0@ABV0@@Z		; CRespawnInfo::operator=
EXTRN	__fltused:NEAR
; Function compile flags: /Ogty
;	COMDAT ??4CRespawnInfo@@QAEAAV0@ABV0@@Z
_TEXT	SEGMENT
_ri$ = 8						; size = 4
??4CRespawnInfo@@QAEAAV0@ABV0@@Z PROC NEAR		; CRespawnInfo::operator=, COMDAT
; _this$ = ecx

; 177  : {

  00000	8b c1		 mov	 eax, ecx

; 178  : 	m_dwIndex	= ri.m_dwIndex;	

  00002	8b 54 24 04	 mov	 edx, DWORD PTR _ri$[esp-4]
  00006	8b 4a 08	 mov	 ecx, DWORD PTR [edx+8]
  00009	89 48 08	 mov	 DWORD PTR [eax+8], ecx

; 179  : 	m_dwType	= ri.m_dwType;	

  0000c	8b 4a 04	 mov	 ecx, DWORD PTR [edx+4]
  0000f	89 48 04	 mov	 DWORD PTR [eax+4], ecx

; 180  : 	m_uTime	    = ri.m_uTime;		

  00012	66 8b 4a 30	 mov	 cx, WORD PTR [edx+48]
  00016	66 89 48 30	 mov	 WORD PTR [eax+48], cx

; 181  : 	m_cb		= ri.m_cb; 	

  0001a	8b 4a 0c	 mov	 ecx, DWORD PTR [edx+12]
  0001d	89 48 0c	 mov	 DWORD PTR [eax+12], ecx

; 182  : 	m_cbTime	= ri.m_cbTime;	

  00020	66 8b 4a 32	 mov	 cx, WORD PTR [edx+50]
  00024	66 89 48 32	 mov	 WORD PTR [eax+50], cx
  00028	53		 push	 ebx
  00029	56		 push	 esi
  0002a	57		 push	 edi

; 183  : 	m_rect	    = ri.m_rect;

  0002b	8d 4a 14	 lea	 ecx, DWORD PTR [edx+20]
  0002e	8b 39		 mov	 edi, DWORD PTR [ecx]
  00030	8d 70 14	 lea	 esi, DWORD PTR [eax+20]
  00033	89 3e		 mov	 DWORD PTR [esi], edi
  00035	8b 79 04	 mov	 edi, DWORD PTR [ecx+4]
  00038	89 7e 04	 mov	 DWORD PTR [esi+4], edi
  0003b	8b 79 08	 mov	 edi, DWORD PTR [ecx+8]
  0003e	89 7e 08	 mov	 DWORD PTR [esi+8], edi
  00041	8b 49 0c	 mov	 ecx, DWORD PTR [ecx+12]
  00044	89 4e 0c	 mov	 DWORD PTR [esi+12], ecx

; 184  : 	m_vPos	    = ri.m_vPos;

  00047	8d 4a 24	 lea	 ecx, DWORD PTR [edx+36]
  0004a	8b 39		 mov	 edi, DWORD PTR [ecx]
  0004c	8d 70 24	 lea	 esi, DWORD PTR [eax+36]
  0004f	89 3e		 mov	 DWORD PTR [esi], edi
  00051	8b 79 04	 mov	 edi, DWORD PTR [ecx+4]
  00054	89 7e 04	 mov	 DWORD PTR [esi+4], edi
  00057	8b 49 08	 mov	 ecx, DWORD PTR [ecx+8]
  0005a	89 4e 08	 mov	 DWORD PTR [esi+8], ecx

; 185  : 	m_fY  	   = ri.m_fY;

  0005d	8b 4a 58	 mov	 ecx, DWORD PTR [edx+88]
  00060	89 48 58	 mov	 DWORD PTR [eax+88], ecx

; 186  : 	m_nDayMin  = ri.m_nDayMin ;

  00063	8b 4a 48	 mov	 ecx, DWORD PTR [edx+72]
  00066	89 48 48	 mov	 DWORD PTR [eax+72], ecx

; 187  : 	m_nDayMax  = ri.m_nDayMax ;

  00069	8b 4a 4c	 mov	 ecx, DWORD PTR [edx+76]
  0006c	89 48 4c	 mov	 DWORD PTR [eax+76], ecx

; 188  : 	m_nHourMin = ri.m_nHourMin;

  0006f	8b 4a 50	 mov	 ecx, DWORD PTR [edx+80]
  00072	89 48 50	 mov	 DWORD PTR [eax+80], ecx

; 189  : 	m_nHourMax = ri.m_nHourMax;

  00075	8b 4a 54	 mov	 ecx, DWORD PTR [edx+84]
  00078	89 48 54	 mov	 DWORD PTR [eax+84], ecx

; 190  : 	m_nItemMin = ri.m_nItemMin;

  0007b	8b 4a 40	 mov	 ecx, DWORD PTR [edx+64]
  0007e	89 48 40	 mov	 DWORD PTR [eax+64], ecx

; 191  : 	m_nItemMax = ri.m_nItemMax;

  00081	8b 4a 44	 mov	 ecx, DWORD PTR [edx+68]
  00084	89 48 44	 mov	 DWORD PTR [eax+68], ecx

; 192  : 	m_nActiveAttackNum = ri.m_nActiveAttackNum;

  00087	8b 4a 10	 mov	 ecx, DWORD PTR [edx+16]
  0008a	89 48 10	 mov	 DWORD PTR [eax+16], ecx

; 193  : 	memcpy( &m_CtrlElem, &ri.m_CtrlElem, sizeof( m_CtrlElem ) );
; 194  : 
; 195  : 	m_cbRespawn	= (u_short)( m_cb );
; 196  : //	m_uTime		/= 2;	
; 197  : 	m_bHalf		= FALSE;
; 198  : 
; 199  : #ifdef __S1108_BACK_END_SYSTEM
; 200  : 	m_nMaxcb = ri.m_nMaxcb;
; 201  : 	m_nMaxAttackNum = ri.m_nMaxAttackNum;
; 202  : 	m_nGMIndex = ri.m_nGMIndex;
; 203  : #endif // __S1108_BACK_END_SYSTEM
; 204  : 	m_bRemove = ri.m_bRemove;
; 205  : 
; 206  : 	m_dwAiState = ri.m_dwAiState;
; 207  : 	m_fAngle    = ri.m_fAngle;	
; 208  : 
; 209  : 	m_dwPatrolIndex = ri.m_dwPatrolIndex;
; 210  : 	m_bPatrolCycle  = ri.m_bPatrolCycle;

  0008d	8a 98 24 02 00
	00		 mov	 bl, BYTE PTR [eax+548]
  00093	8d 72 5c	 lea	 esi, DWORD PTR [edx+92]
  00096	8d 78 5c	 lea	 edi, DWORD PTR [eax+92]
  00099	b9 6c 00 00 00	 mov	 ecx, 108		; 0000006cH
  0009e	f3 a5		 rep movsd
  000a0	66 8b 48 0c	 mov	 cx, WORD PTR [eax+12]
  000a4	66 89 48 34	 mov	 WORD PTR [eax+52], cx
  000a8	c7 40 38 00 00
	00 00		 mov	 DWORD PTR [eax+56], 0
  000af	8b 8a 0c 02 00
	00		 mov	 ecx, DWORD PTR [edx+524]
  000b5	89 88 0c 02 00
	00		 mov	 DWORD PTR [eax+524], ecx
  000bb	8b 8a 10 02 00
	00		 mov	 ecx, DWORD PTR [edx+528]
  000c1	89 88 10 02 00
	00		 mov	 DWORD PTR [eax+528], ecx
  000c7	8b 8a 14 02 00
	00		 mov	 ecx, DWORD PTR [edx+532]
  000cd	89 88 14 02 00
	00		 mov	 DWORD PTR [eax+532], ecx
  000d3	8b 4a 3c	 mov	 ecx, DWORD PTR [edx+60]
  000d6	89 48 3c	 mov	 DWORD PTR [eax+60], ecx
  000d9	8b 8a 18 02 00
	00		 mov	 ecx, DWORD PTR [edx+536]
  000df	89 88 18 02 00
	00		 mov	 DWORD PTR [eax+536], ecx
  000e5	8b 8a 1c 02 00
	00		 mov	 ecx, DWORD PTR [edx+540]
  000eb	89 88 1c 02 00
	00		 mov	 DWORD PTR [eax+540], ecx
  000f1	8b 8a 20 02 00
	00		 mov	 ecx, DWORD PTR [edx+544]
  000f7	89 88 20 02 00
	00		 mov	 DWORD PTR [eax+544], ecx
  000fd	8a 8a 24 02 00
	00		 mov	 cl, BYTE PTR [edx+548]
  00103	32 cb		 xor	 cl, bl
  00105	80 e1 01	 and	 cl, 1
  00108	32 d9		 xor	 bl, cl

; 211  : 
; 212  : #ifdef __RES0807
; 213  : 	memcpy( m_aResPoint, ri.m_aResPoint, sizeof(POINT) * MAX_RESPOINT_PER_REGION );

  0010a	8d b2 28 02 00
	00		 lea	 esi, DWORD PTR [edx+552]
  00110	8d b8 28 02 00
	00		 lea	 edi, DWORD PTR [eax+552]
  00116	b9 c8 00 00 00	 mov	 ecx, 200		; 000000c8H
  0011b	88 98 24 02 00
	00		 mov	 BYTE PTR [eax+548], bl
  00121	f3 a5		 rep movsd
  00123	5f		 pop	 edi
  00124	5e		 pop	 esi
  00125	5b		 pop	 ebx

; 214  : #endif	// __RES0807
; 215  : 	return *this;
; 216  : }

  00126	c2 04 00	 ret	 4
??4CRespawnInfo@@QAEAAV0@ABV0@@Z ENDP			; CRespawnInfo::operator=
_TEXT	ENDS
PUBLIC	?size@?$vector@VCRespawnInfo@@V?$allocator@VCRespawnInfo@@@std@@@std@@QBEIXZ ; std::vector<CRespawnInfo,std::allocator<CRespawnInfo> >::size
; Function compile flags: /Ogty
; File c:\program files\microsoft visual studio .net 2003\vc7\include\vector
;	COMDAT ?size@?$vector@VCRespawnInfo@@V?$allocator@VCRespawnInfo@@@std@@@std@@QBEIXZ
_TEXT	SEGMENT
?size@?$vector@VCRespawnInfo@@V?$allocator@VCRespawnInfo@@@std@@@std@@QBEIXZ PROC NEAR ; std::vector<CRespawnInfo,std::allocator<CRespawnInfo> >::size, COMDAT
; _this$ = ecx

; 516  : 		return (_Myfirst == 0 ? 0 : _Mylast - _Myfirst);

  00000	8b 41 04	 mov	 eax, DWORD PTR [ecx+4]
  00003	85 c0		 test	 eax, eax
  00005	75 01		 jne	 SHORT $L231459

; 517  : 		}

  00007	c3		 ret	 0
$L231459:

; 516  : 		return (_Myfirst == 0 ? 0 : _Mylast - _Myfirst);

  00008	8b 49 08	 mov	 ecx, DWORD PTR [ecx+8]
  0000b	2b c8		 sub	 ecx, eax
  0000d	b8 eb 5d f2 60	 mov	 eax, 1626496491		; 60f25debH
  00012	f7 e9		 imul	 ecx
  00014	c1 fa 09	 sar	 edx, 9
  00017	8b c2		 mov	 eax, edx
  00019	c1 e8 1f	 shr	 eax, 31			; 0000001fH
  0001c	03 c2		 add	 eax, edx

; 517  : 		}

  0001e	c3		 ret	 0
?size@?$vector@VCRespawnInfo@@V?$allocator@VCRespawnInfo@@@std@@@std@@QBEIXZ ENDP ; std::vector<CRespawnInfo,std::allocator<CRespawnInfo> >::size
_TEXT	ENDS
PUBLIC	??Eiterator@?$vector@VCRespawnInfo@@V?$allocator@VCRespawnInfo@@@std@@@std@@QAEAAV012@XZ ; std::vector<CRespawnInfo,std::allocator<CRespawnInfo> >::iterator::operator++
; Function compile flags: /Ogty
;	COMDAT ??Eiterator@?$vector@VCRespawnInfo@@V?$allocator@VCRespawnInfo@@@std@@@std@@QAEAAV012@XZ
_TEXT	SEGMENT
??Eiterator@?$vector@VCRespawnInfo@@V?$allocator@VCRespawnInfo@@@std@@@std@@QAEAAV012@XZ PROC NEAR ; std::vector<CRespawnInfo,std::allocator<CRespawnInfo> >::iterator::operator++, COMDAT
; _this$ = ecx

; 229  : 			{	// preincrement

  00000	8b c1		 mov	 eax, ecx

; 230  : 			++this->_Myptr;

  00002	81 00 48 05 00
	00		 add	 DWORD PTR [eax], 1352	; 00000548H

; 231  : 			return (*this);
; 232  : 			}

  00008	c3		 ret	 0
??Eiterator@?$vector@VCRespawnInfo@@V?$allocator@VCRespawnInfo@@@std@@@std@@QAEAAV012@XZ ENDP ; std::vector<CRespawnInfo,std::allocator<CRespawnInfo> >::iterator::operator++
_TEXT	ENDS
PUBLIC	??8const_iterator@?$_Tree@V?$_Tmap_traits@HPAVCRespawner@@U?$less@H@std@@V?$allocator@U?$pair@$$CBHPAVCRespawner@@@std@@@3@$0A@@std@@@std@@QBE_NABV012@@Z ; std::_Tree<std::_Tmap_traits<int,CRespawner *,std::less<int>,std::allocator<std::pair<int const ,CRespawner *> >,0> >::const_iterator::operator==
; Function compile flags: /Ogty
; File c:\program files\microsoft visual studio .net 2003\vc7\include\xtree
;	COMDAT ??8const_iterator@?$_Tree@V?$_Tmap_traits@HPAVCRespawner@@U?$less@H@std@@V?$allocator@U?$pair@$$CBHPAVCRespawner@@@std@@@3@$0A@@std@@@std@@QBE_NABV012@@Z
_TEXT	SEGMENT
__Right$ = 8						; size = 4
??8const_iterator@?$_Tree@V?$_Tmap_traits@HPAVCRespawner@@U?$less@H@std@@V?$allocator@U?$pair@$$CBHPAVCRespawner@@@std@@@3@$0A@@std@@@std@@QBE_NABV012@@Z PROC NEAR ; std::_Tree<std::_Tmap_traits<int,CRespawner *,std::less<int>,std::allocator<std::pair<int const ,CRespawner *> >,0> >::const_iterator::operator==, COMDAT
; _this$ = ecx

; 241  : 			return (_Ptr == _Right._Ptr);

  00000	8b 01		 mov	 eax, DWORD PTR [ecx]
  00002	8b 4c 24 04	 mov	 ecx, DWORD PTR __Right$[esp-4]
  00006	2b 01		 sub	 eax, DWORD PTR [ecx]
  00008	f7 d8		 neg	 eax
  0000a	1b c0		 sbb	 eax, eax
  0000c	40		 inc	 eax

; 242  : 			}

  0000d	c2 04 00	 ret	 4
??8const_iterator@?$_Tree@V?$_Tmap_traits@HPAVCRespawner@@U?$less@H@std@@V?$allocator@U?$pair@$$CBHPAVCRespawner@@@std@@@3@$0A@@std@@@std@@QBE_NABV012@@Z ENDP ; std::_Tree<std::_Tmap_traits<int,CRespawner *,std::less<int>,std::allocator<std::pair<int const ,CRespawner *> >,0> >::const_iterator::operator==
_TEXT	ENDS
PUBLIC	??9const_iterator@?$_Tree@V?$_Tmap_traits@HPAVCRespawner@@U?$less@H@std@@V?$allocator@U?$pair@$$CBHPAVCRespawner@@@std@@@3@$0A@@std@@@std@@QBE_NABV012@@Z ; std::_Tree<std::_Tmap_traits<int,CRespawner *,std::less<int>,std::allocator<std::pair<int const ,CRespawner *> >,0> >::const_iterator::operator!=
; Function compile flags: /Ogty
;	COMDAT ??9const_iterator@?$_Tree@V?$_Tmap_traits@HPAVCRespawner@@U?$less@H@std@@V?$allocator@U?$pair@$$CBHPAVCRespawner@@@std@@@3@$0A@@std@@@std@@QBE_NABV012@@Z
_TEXT	SEGMENT
__Right$ = 8						; size = 4
??9const_iterator@?$_Tree@V?$_Tmap_traits@HPAVCRespawner@@U?$less@H@std@@V?$allocator@U?$pair@$$CBHPAVCRespawner@@@std@@@3@$0A@@std@@@std@@QBE_NABV012@@Z PROC NEAR ; std::_Tree<std::_Tmap_traits<int,CRespawner *,std::less<int>,std::allocator<std::pair<int const ,CRespawner *> >,0> >::const_iterator::operator!=, COMDAT
; _this$ = ecx

; 246  : 			return (!(*this == _Right));

  00000	8b 01		 mov	 eax, DWORD PTR [ecx]
  00002	8b 54 24 04	 mov	 edx, DWORD PTR __Right$[esp-4]
  00006	56		 push	 esi
  00007	8b 32		 mov	 esi, DWORD PTR [edx]
  00009	33 c9		 xor	 ecx, ecx
  0000b	3b c6		 cmp	 eax, esi
  0000d	0f 95 c1	 setne	 cl
  00010	8a c1		 mov	 al, cl
  00012	5e		 pop	 esi

; 247  : 			}

  00013	c2 04 00	 ret	 4
??9const_iterator@?$_Tree@V?$_Tmap_traits@HPAVCRespawner@@U?$less@H@std@@V?$allocator@U?$pair@$$CBHPAVCRespawner@@@std@@@3@$0A@@std@@@std@@QBE_NABV012@@Z ENDP ; std::_Tree<std::_Tmap_traits<int,CRespawner *,std::less<int>,std::allocator<std::pair<int const ,CRespawner *> >,0> >::const_iterator::operator!=
_TEXT	ENDS
PUBLIC	??0?$pair@$$CBHPAVCRespawner@@@std@@QAE@ABHABQAVCRespawner@@@Z ; std::pair<int const ,CRespawner *>::pair<int const ,CRespawner *>
; Function compile flags: /Ogty
; File c:\program files\microsoft visual studio .net 2003\vc7\include\utility
;	COMDAT ??0?$pair@$$CBHPAVCRespawner@@@std@@QAE@ABHABQAVCRespawner@@@Z
_TEXT	SEGMENT
__Val1$ = 8						; size = 4
__Val2$ = 12						; size = 4
??0?$pair@$$CBHPAVCRespawner@@@std@@QAE@ABHABQAVCRespawner@@@Z PROC NEAR ; std::pair<int const ,CRespawner *>::pair<int const ,CRespawner *>, COMDAT
; _this$ = ecx

; 34   : 		{	// construct from specified values

  00000	8b c1		 mov	 eax, ecx
  00002	8b 4c 24 04	 mov	 ecx, DWORD PTR __Val1$[esp-4]
  00006	8b 11		 mov	 edx, DWORD PTR [ecx]
  00008	8b 4c 24 08	 mov	 ecx, DWORD PTR __Val2$[esp-4]
  0000c	89 10		 mov	 DWORD PTR [eax], edx
  0000e	8b 11		 mov	 edx, DWORD PTR [ecx]
  00010	89 50 04	 mov	 DWORD PTR [eax+4], edx

; 35   : 		}

  00013	c2 08 00	 ret	 8
??0?$pair@$$CBHPAVCRespawner@@@std@@QAE@ABHABQAVCRespawner@@@Z ENDP ; std::pair<int const ,CRespawner *>::pair<int const ,CRespawner *>
_TEXT	ENDS
PUBLIC	?capacity@?$vector@VCRespawnInfo@@V?$allocator@VCRespawnInfo@@@std@@@std@@QBEIXZ ; std::vector<CRespawnInfo,std::allocator<CRespawnInfo> >::capacity
; Function compile flags: /Ogty
; File c:\program files\microsoft visual studio .net 2003\vc7\include\vector
;	COMDAT ?capacity@?$vector@VCRespawnInfo@@V?$allocator@VCRespawnInfo@@@std@@@std@@QBEIXZ
_TEXT	SEGMENT
?capacity@?$vector@VCRespawnInfo@@V?$allocator@VCRespawnInfo@@@std@@@std@@QBEIXZ PROC NEAR ; std::vector<CRespawnInfo,std::allocator<CRespawnInfo> >::capacity, COMDAT
; _this$ = ecx

; 458  : 		return (_Myfirst == 0 ? 0 : _Myend - _Myfirst);

  00000	8b 41 04	 mov	 eax, DWORD PTR [ecx+4]
  00003	85 c0		 test	 eax, eax
  00005	75 01		 jne	 SHORT $L231479

; 459  : 		}

  00007	c3		 ret	 0
$L231479:

; 458  : 		return (_Myfirst == 0 ? 0 : _Myend - _Myfirst);

  00008	8b 49 0c	 mov	 ecx, DWORD PTR [ecx+12]
  0000b	2b c8		 sub	 ecx, eax
  0000d	b8 eb 5d f2 60	 mov	 eax, 1626496491		; 60f25debH
  00012	f7 e9		 imul	 ecx
  00014	c1 fa 09	 sar	 edx, 9
  00017	8b c2		 mov	 eax, edx
  00019	c1 e8 1f	 shr	 eax, 31			; 0000001fH
  0001c	03 c2		 add	 eax, edx

; 459  : 		}

  0001e	c3		 ret	 0
?capacity@?$vector@VCRespawnInfo@@V?$allocator@VCRespawnInfo@@@std@@@std@@QBEIXZ ENDP ; std::vector<CRespawnInfo,std::allocator<CRespawnInfo> >::capacity
_TEXT	ENDS
PUBLIC	??0?$allocator@VCRespawnInfo@@@std@@QAE@XZ	; std::allocator<CRespawnInfo>::allocator<CRespawnInfo>
; Function compile flags: /Ogty
; File c:\program files\microsoft visual studio .net 2003\vc7\include\xmemory
;	COMDAT ??0?$allocator@VCRespawnInfo@@@std@@QAE@XZ
_TEXT	SEGMENT
??0?$allocator@VCRespawnInfo@@@std@@QAE@XZ PROC NEAR	; std::allocator<CRespawnInfo>::allocator<CRespawnInfo>, COMDAT
; _this$ = ecx

; 111  : 	allocator()

  00000	8b c1		 mov	 eax, ecx

; 112  : 		{	// construct default allocator (do nothing)
; 113  : 		}

  00002	c3		 ret	 0
??0?$allocator@VCRespawnInfo@@@std@@QAE@XZ ENDP		; std::allocator<CRespawnInfo>::allocator<CRespawnInfo>
_TEXT	ENDS
PUBLIC	?_Color@?$_Tree@V?$_Tmap_traits@HPAVCRespawner@@U?$less@H@std@@V?$allocator@U?$pair@$$CBHPAVCRespawner@@@std@@@3@$0A@@std@@@std@@KAAADPAU_Node@?$_Tree_nod@V?$_Tmap_traits@HPAVCRespawner@@U?$less@H@std@@V?$allocator@U?$pair@$$CBHPAVCRespawner@@@std@@@3@$0A@@std@@@2@@Z ; std::_Tree<std::_Tmap_traits<int,CRespawner *,std::less<int>,std::allocator<std::pair<int const ,CRespawner *> >,0> >::_Color
; Function compile flags: /Ogty
; File c:\program files\microsoft visual studio .net 2003\vc7\include\xtree
;	COMDAT ?_Color@?$_Tree@V?$_Tmap_traits@HPAVCRespawner@@U?$less@H@std@@V?$allocator@U?$pair@$$CBHPAVCRespawner@@@std@@@3@$0A@@std@@@std@@KAAADPAU_Node@?$_Tree_nod@V?$_Tmap_traits@HPAVCRespawner@@U?$less@H@std@@V?$allocator@U?$pair@$$CBHPAVCRespawner@@@std@@@3@$0A@@std@@@2@@Z
_TEXT	SEGMENT
__Pnode$ = 8						; size = 4
?_Color@?$_Tree@V?$_Tmap_traits@HPAVCRespawner@@U?$less@H@std@@V?$allocator@U?$pair@$$CBHPAVCRespawner@@@std@@@3@$0A@@std@@@std@@KAAADPAU_Node@?$_Tree_nod@V?$_Tmap_traits@HPAVCRespawner@@U?$less@H@std@@V?$allocator@U?$pair@$$CBHPAVCRespawner@@@std@@@3@$0A@@std@@@2@@Z PROC NEAR ; std::_Tree<std::_Tmap_traits<int,CRespawner *,std::less<int>,std::allocator<std::pair<int const ,CRespawner *> >,0> >::_Color, COMDAT

; 132  : 		return ((_Charref)(*_Pnode)._Color);

  00000	8b 44 24 04	 mov	 eax, DWORD PTR __Pnode$[esp-4]
  00004	83 c0 14	 add	 eax, 20			; 00000014H

; 133  : 		}

  00007	c3		 ret	 0
?_Color@?$_Tree@V?$_Tmap_traits@HPAVCRespawner@@U?$less@H@std@@V?$allocator@U?$pair@$$CBHPAVCRespawner@@@std@@@3@$0A@@std@@@std@@KAAADPAU_Node@?$_Tree_nod@V?$_Tmap_traits@HPAVCRespawner@@U?$less@H@std@@V?$allocator@U?$pair@$$CBHPAVCRespawner@@@std@@@3@$0A@@std@@@2@@Z ENDP ; std::_Tree<std::_Tmap_traits<int,CRespawner *,std::less<int>,std::allocator<std::pair<int const ,CRespawner *> >,0> >::_Color
_TEXT	ENDS
PUBLIC	?_Isnil@?$_Tree@V?$_Tmap_traits@HPAVCRespawner@@U?$less@H@std@@V?$allocator@U?$pair@$$CBHPAVCRespawner@@@std@@@3@$0A@@std@@@std@@KAAADPAU_Node@?$_Tree_nod@V?$_Tmap_traits@HPAVCRespawner@@U?$less@H@std@@V?$allocator@U?$pair@$$CBHPAVCRespawner@@@std@@@3@$0A@@std@@@2@@Z ; std::_Tree<std::_Tmap_traits<int,CRespawner *,std::less<int>,std::allocator<std::pair<int const ,CRespawner *> >,0> >::_Isnil
; Function compile flags: /Ogty
;	COMDAT ?_Isnil@?$_Tree@V?$_Tmap_traits@HPAVCRespawner@@U?$less@H@std@@V?$allocator@U?$pair@$$CBHPAVCRespawner@@@std@@@3@$0A@@std@@@std@@KAAADPAU_Node@?$_Tree_nod@V?$_Tmap_traits@HPAVCRespawner@@U?$less@H@std@@V?$allocator@U?$pair@$$CBHPAVCRespawner@@@std@@@3@$0A@@std@@@2@@Z
_TEXT	SEGMENT
__Pnode$ = 8						; size = 4
?_Isnil@?$_Tree@V?$_Tmap_traits@HPAVCRespawner@@U?$less@H@std@@V?$allocator@U?$pair@$$CBHPAVCRespawner@@@std@@@3@$0A@@std@@@std@@KAAADPAU_Node@?$_Tree_nod@V?$_Tmap_traits@HPAVCRespawner@@U?$less@H@std@@V?$allocator@U?$pair@$$CBHPAVCRespawner@@@std@@@3@$0A@@std@@@2@@Z PROC NEAR ; std::_Tree<std::_Tmap_traits<int,CRespawner *,std::less<int>,std::allocator<std::pair<int const ,CRespawner *> >,0> >::_Isnil, COMDAT

; 137  : 		return ((_Charref)(*_Pnode)._Isnil);

  00000	8b 44 24 04	 mov	 eax, DWORD PTR __Pnode$[esp-4]
  00004	83 c0 15	 add	 eax, 21			; 00000015H

; 138  : 		}

  00007	c3		 ret	 0
?_Isnil@?$_Tree@V?$_Tmap_traits@HPAVCRespawner@@U?$less@H@std@@V?$allocator@U?$pair@$$CBHPAVCRespawner@@@std@@@3@$0A@@std@@@std@@KAAADPAU_Node@?$_Tree_nod@V?$_Tmap_traits@HPAVCRespawner@@U?$less@H@std@@V?$allocator@U?$pair@$$CBHPAVCRespawner@@@std@@@3@$0A@@std@@@2@@Z ENDP ; std::_Tree<std::_Tmap_traits<int,CRespawner *,std::less<int>,std::allocator<std::pair<int const ,CRespawner *> >,0> >::_Isnil
_TEXT	ENDS
PUBLIC	?_Left@?$_Tree@V?$_Tmap_traits@HPAVCRespawner@@U?$less@H@std@@V?$allocator@U?$pair@$$CBHPAVCRespawner@@@std@@@3@$0A@@std@@@std@@KAAAPAU_Node@?$_Tree_nod@V?$_Tmap_traits@HPAVCRespawner@@U?$less@H@std@@V?$allocator@U?$pair@$$CBHPAVCRespawner@@@std@@@3@$0A@@std@@@2@PAU342@@Z ; std::_Tree<std::_Tmap_traits<int,CRespawner *,std::less<int>,std::allocator<std::pair<int const ,CRespawner *> >,0> >::_Left
; Function compile flags: /Ogty
;	COMDAT ?_Left@?$_Tree@V?$_Tmap_traits@HPAVCRespawner@@U?$less@H@std@@V?$allocator@U?$pair@$$CBHPAVCRespawner@@@std@@@3@$0A@@std@@@std@@KAAAPAU_Node@?$_Tree_nod@V?$_Tmap_traits@HPAVCRespawner@@U?$less@H@std@@V?$allocator@U?$pair@$$CBHPAVCRespawner@@@std@@@3@$0A@@std@@@2@PAU342@@Z
_TEXT	SEGMENT
__Pnode$ = 8						; size = 4
?_Left@?$_Tree@V?$_Tmap_traits@HPAVCRespawner@@U?$less@H@std@@V?$allocator@U?$pair@$$CBHPAVCRespawner@@@std@@@3@$0A@@std@@@std@@KAAAPAU_Node@?$_Tree_nod@V?$_Tmap_traits@HPAVCRespawner@@U?$less@H@std@@V?$allocator@U?$pair@$$CBHPAVCRespawner@@@std@@@3@$0A@@std@@@2@PAU342@@Z PROC NEAR ; std::_Tree<std::_Tmap_traits<int,CRespawner *,std::less<int>,std::allocator<std::pair<int const ,CRespawner *> >,0> >::_Left, COMDAT

; 147  : 		return ((_Nodepref)(*_Pnode)._Left);

  00000	8b 44 24 04	 mov	 eax, DWORD PTR __Pnode$[esp-4]

; 148  : 		}

  00004	c3		 ret	 0
?_Left@?$_Tree@V?$_Tmap_traits@HPAVCRespawner@@U?$less@H@std@@V?$allocator@U?$pair@$$CBHPAVCRespawner@@@std@@@3@$0A@@std@@@std@@KAAAPAU_Node@?$_Tree_nod@V?$_Tmap_traits@HPAVCRespawner@@U?$less@H@std@@V?$allocator@U?$pair@$$CBHPAVCRespawner@@@std@@@3@$0A@@std@@@2@PAU342@@Z ENDP ; std::_Tree<std::_Tmap_traits<int,CRespawner *,std::less<int>,std::allocator<std::pair<int const ,CRespawner *> >,0> >::_Left
_TEXT	ENDS
PUBLIC	?_Parent@?$_Tree@V?$_Tmap_traits@HPAVCRespawner@@U?$less@H@std@@V?$allocator@U?$pair@$$CBHPAVCRespawner@@@std@@@3@$0A@@std@@@std@@KAAAPAU_Node@?$_Tree_nod@V?$_Tmap_traits@HPAVCRespawner@@U?$less@H@std@@V?$allocator@U?$pair@$$CBHPAVCRespawner@@@std@@@3@$0A@@std@@@2@PAU342@@Z ; std::_Tree<std::_Tmap_traits<int,CRespawner *,std::less<int>,std::allocator<std::pair<int const ,CRespawner *> >,0> >::_Parent
; Function compile flags: /Ogty
;	COMDAT ?_Parent@?$_Tree@V?$_Tmap_traits@HPAVCRespawner@@U?$less@H@std@@V?$allocator@U?$pair@$$CBHPAVCRespawner@@@std@@@3@$0A@@std@@@std@@KAAAPAU_Node@?$_Tree_nod@V?$_Tmap_traits@HPAVCRespawner@@U?$less@H@std@@V?$allocator@U?$pair@$$CBHPAVCRespawner@@@std@@@3@$0A@@std@@@2@PAU342@@Z
_TEXT	SEGMENT
__Pnode$ = 8						; size = 4
?_Parent@?$_Tree@V?$_Tmap_traits@HPAVCRespawner@@U?$less@H@std@@V?$allocator@U?$pair@$$CBHPAVCRespawner@@@std@@@3@$0A@@std@@@std@@KAAAPAU_Node@?$_Tree_nod@V?$_Tmap_traits@HPAVCRespawner@@U?$less@H@std@@V?$allocator@U?$pair@$$CBHPAVCRespawner@@@std@@@3@$0A@@std@@@2@PAU342@@Z PROC NEAR ; std::_Tree<std::_Tmap_traits<int,CRespawner *,std::less<int>,std::allocator<std::pair<int const ,CRespawner *> >,0> >::_Parent, COMDAT

; 152  : 		return ((_Nodepref)(*_Pnode)._Parent);

  00000	8b 44 24 04	 mov	 eax, DWORD PTR __Pnode$[esp-4]
  00004	83 c0 04	 add	 eax, 4

; 153  : 		}

  00007	c3		 ret	 0
?_Parent@?$_Tree@V?$_Tmap_traits@HPAVCRespawner@@U?$less@H@std@@V?$allocator@U?$pair@$$CBHPAVCRespawner@@@std@@@3@$0A@@std@@@std@@KAAAPAU_Node@?$_Tree_nod@V?$_Tmap_traits@HPAVCRespawner@@U?$less@H@std@@V?$allocator@U?$pair@$$CBHPAVCRespawner@@@std@@@3@$0A@@std@@@2@PAU342@@Z ENDP ; std::_Tree<std::_Tmap_traits<int,CRespawner *,std::less<int>,std::allocator<std::pair<int const ,CRespawner *> >,0> >::_Parent
_TEXT	ENDS
PUBLIC	?_Right@?$_Tree@V?$_Tmap_traits@HPAVCRespawner@@U?$less@H@std@@V?$allocator@U?$pair@$$CBHPAVCRespawner@@@std@@@3@$0A@@std@@@std@@KAAAPAU_Node@?$_Tree_nod@V?$_Tmap_traits@HPAVCRespawner@@U?$less@H@std@@V?$allocator@U?$pair@$$CBHPAVCRespawner@@@std@@@3@$0A@@std@@@2@PAU342@@Z ; std::_Tree<std::_Tmap_traits<int,CRespawner *,std::less<int>,std::allocator<std::pair<int const ,CRespawner *> >,0> >::_Right
; Function compile flags: /Ogty
;	COMDAT ?_Right@?$_Tree@V?$_Tmap_traits@HPAVCRespawner@@U?$less@H@std@@V?$allocator@U?$pair@$$CBHPAVCRespawner@@@std@@@3@$0A@@std@@@std@@KAAAPAU_Node@?$_Tree_nod@V?$_Tmap_traits@HPAVCRespawner@@U?$less@H@std@@V?$allocator@U?$pair@$$CBHPAVCRespawner@@@std@@@3@$0A@@std@@@2@PAU342@@Z
_TEXT	SEGMENT
__Pnode$ = 8						; size = 4
?_Right@?$_Tree@V?$_Tmap_traits@HPAVCRespawner@@U?$less@H@std@@V?$allocator@U?$pair@$$CBHPAVCRespawner@@@std@@@3@$0A@@std@@@std@@KAAAPAU_Node@?$_Tree_nod@V?$_Tmap_traits@HPAVCRespawner@@U?$less@H@std@@V?$allocator@U?$pair@$$CBHPAVCRespawner@@@std@@@3@$0A@@std@@@2@PAU342@@Z PROC NEAR ; std::_Tree<std::_Tmap_traits<int,CRespawner *,std::less<int>,std::allocator<std::pair<int const ,CRespawner *> >,0> >::_Right, COMDAT

; 157  : 		return ((_Nodepref)(*_Pnode)._Right);

  00000	8b 44 24 04	 mov	 eax, DWORD PTR __Pnode$[esp-4]
  00004	83 c0 08	 add	 eax, 8

; 158  : 		}

  00007	c3		 ret	 0
?_Right@?$_Tree@V?$_Tmap_traits@HPAVCRespawner@@U?$less@H@std@@V?$allocator@U?$pair@$$CBHPAVCRespawner@@@std@@@3@$0A@@std@@@std@@KAAAPAU_Node@?$_Tree_nod@V?$_Tmap_traits@HPAVCRespawner@@U?$less@H@std@@V?$allocator@U?$pair@$$CBHPAVCRespawner@@@std@@@3@$0A@@std@@@2@PAU342@@Z ENDP ; std::_Tree<std::_Tmap_traits<int,CRespawner *,std::less<int>,std::allocator<std::pair<int const ,CRespawner *> >,0> >::_Right
_TEXT	ENDS
PUBLIC	?_Lmost@?$_Tree@V?$_Tmap_traits@HPAVCRespawner@@U?$less@H@std@@V?$allocator@U?$pair@$$CBHPAVCRespawner@@@std@@@3@$0A@@std@@@std@@IAEAAPAU_Node@?$_Tree_nod@V?$_Tmap_traits@HPAVCRespawner@@U?$less@H@std@@V?$allocator@U?$pair@$$CBHPAVCRespawner@@@std@@@3@$0A@@std@@@2@XZ ; std::_Tree<std::_Tmap_traits<int,CRespawner *,std::less<int>,std::allocator<std::pair<int const ,CRespawner *> >,0> >::_Lmost
; Function compile flags: /Ogty
;	COMDAT ?_Lmost@?$_Tree@V?$_Tmap_traits@HPAVCRespawner@@U?$less@H@std@@V?$allocator@U?$pair@$$CBHPAVCRespawner@@@std@@@3@$0A@@std@@@std@@IAEAAPAU_Node@?$_Tree_nod@V?$_Tmap_traits@HPAVCRespawner@@U?$less@H@std@@V?$allocator@U?$pair@$$CBHPAVCRespawner@@@std@@@3@$0A@@std@@@2@XZ
_TEXT	SEGMENT
?_Lmost@?$_Tree@V?$_Tmap_traits@HPAVCRespawner@@U?$less@H@std@@V?$allocator@U?$pair@$$CBHPAVCRespawner@@@std@@@3@$0A@@std@@@std@@IAEAAPAU_Node@?$_Tree_nod@V?$_Tmap_traits@HPAVCRespawner@@U?$less@H@std@@V?$allocator@U?$pair@$$CBHPAVCRespawner@@@std@@@3@$0A@@std@@@2@XZ PROC NEAR ; std::_Tree<std::_Tmap_traits<int,CRespawner *,std::less<int>,std::allocator<std::pair<int const ,CRespawner *> >,0> >::_Lmost, COMDAT
; _this$ = ecx

; 1005 : 		return (_Left(_Myhead));

  00000	8b 41 04	 mov	 eax, DWORD PTR [ecx+4]

; 1006 : 		}

  00003	c3		 ret	 0
?_Lmost@?$_Tree@V?$_Tmap_traits@HPAVCRespawner@@U?$less@H@std@@V?$allocator@U?$pair@$$CBHPAVCRespawner@@@std@@@3@$0A@@std@@@std@@IAEAAPAU_Node@?$_Tree_nod@V?$_Tmap_traits@HPAVCRespawner@@U?$less@H@std@@V?$allocator@U?$pair@$$CBHPAVCRespawner@@@std@@@3@$0A@@std@@@2@XZ ENDP ; std::_Tree<std::_Tmap_traits<int,CRespawner *,std::less<int>,std::allocator<std::pair<int const ,CRespawner *> >,0> >::_Lmost
_TEXT	ENDS
PUBLIC	?_Max@?$_Tree@V?$_Tmap_traits@HPAVCRespawner@@U?$less@H@std@@V?$allocator@U?$pair@$$CBHPAVCRespawner@@@std@@@3@$0A@@std@@@std@@KAPAU_Node@?$_Tree_nod@V?$_Tmap_traits@HPAVCRespawner@@U?$less@H@std@@V?$allocator@U?$pair@$$CBHPAVCRespawner@@@std@@@3@$0A@@std@@@2@PAU342@@Z ; std::_Tree<std::_Tmap_traits<int,CRespawner *,std::less<int>,std::allocator<std::pair<int const ,CRespawner *> >,0> >::_Max
; Function compile flags: /Ogty
;	COMDAT ?_Max@?$_Tree@V?$_Tmap_traits@HPAVCRespawner@@U?$less@H@std@@V?$allocator@U?$pair@$$CBHPAVCRespawner@@@std@@@3@$0A@@std@@@std@@KAPAU_Node@?$_Tree_nod@V?$_Tmap_traits@HPAVCRespawner@@U?$less@H@std@@V?$allocator@U?$pair@$$CBHPAVCRespawner@@@std@@@3@$0A@@std@@@2@PAU342@@Z
_TEXT	SEGMENT
__Pnode$ = 8						; size = 4
?_Max@?$_Tree@V?$_Tmap_traits@HPAVCRespawner@@U?$less@H@std@@V?$allocator@U?$pair@$$CBHPAVCRespawner@@@std@@@3@$0A@@std@@@std@@KAPAU_Node@?$_Tree_nod@V?$_Tmap_traits@HPAVCRespawner@@U?$less@H@std@@V?$allocator@U?$pair@$$CBHPAVCRespawner@@@std@@@3@$0A@@std@@@2@PAU342@@Z PROC NEAR ; std::_Tree<std::_Tmap_traits<int,CRespawner *,std::less<int>,std::allocator<std::pair<int const ,CRespawner *> >,0> >::_Max, COMDAT

; 1035 : 		while (!_Isnil(_Right(_Pnode)))

  00000	8b 44 24 04	 mov	 eax, DWORD PTR __Pnode$[esp-4]
  00004	8b 48 08	 mov	 ecx, DWORD PTR [eax+8]
  00007	8a 51 15	 mov	 dl, BYTE PTR [ecx+21]
  0000a	84 d2		 test	 dl, dl
  0000c	75 0e		 jne	 SHORT $L229348
  0000e	8b ff		 npad	 2
$L229347:

; 1036 : 			_Pnode = _Right(_Pnode);

  00010	8b c1		 mov	 eax, ecx
  00012	8b 48 08	 mov	 ecx, DWORD PTR [eax+8]
  00015	8a 51 15	 mov	 dl, BYTE PTR [ecx+21]
  00018	84 d2		 test	 dl, dl
  0001a	74 f4		 je	 SHORT $L229347
$L229348:

; 1037 : 		return (_Pnode);
; 1038 : 		}

  0001c	c3		 ret	 0
?_Max@?$_Tree@V?$_Tmap_traits@HPAVCRespawner@@U?$less@H@std@@V?$allocator@U?$pair@$$CBHPAVCRespawner@@@std@@@3@$0A@@std@@@std@@KAPAU_Node@?$_Tree_nod@V?$_Tmap_traits@HPAVCRespawner@@U?$less@H@std@@V?$allocator@U?$pair@$$CBHPAVCRespawner@@@std@@@3@$0A@@std@@@2@PAU342@@Z ENDP ; std::_Tree<std::_Tmap_traits<int,CRespawner *,std::less<int>,std::allocator<std::pair<int const ,CRespawner *> >,0> >::_Max
_TEXT	ENDS
PUBLIC	?_Min@?$_Tree@V?$_Tmap_traits@HPAVCRespawner@@U?$less@H@std@@V?$allocator@U?$pair@$$CBHPAVCRespawner@@@std@@@3@$0A@@std@@@std@@KAPAU_Node@?$_Tree_nod@V?$_Tmap_traits@HPAVCRespawner@@U?$less@H@std@@V?$allocator@U?$pair@$$CBHPAVCRespawner@@@std@@@3@$0A@@std@@@2@PAU342@@Z ; std::_Tree<std::_Tmap_traits<int,CRespawner *,std::less<int>,std::allocator<std::pair<int const ,CRespawner *> >,0> >::_Min
; Function compile flags: /Ogty
;	COMDAT ?_Min@?$_Tree@V?$_Tmap_traits@HPAVCRespawner@@U?$less@H@std@@V?$allocator@U?$pair@$$CBHPAVCRespawner@@@std@@@3@$0A@@std@@@std@@KAPAU_Node@?$_Tree_nod@V?$_Tmap_traits@HPAVCRespawner@@U?$less@H@std@@V?$allocator@U?$pair@$$CBHPAVCRespawner@@@std@@@3@$0A@@std@@@2@PAU342@@Z
_TEXT	SEGMENT
__Pnode$ = 8						; size = 4
?_Min@?$_Tree@V?$_Tmap_traits@HPAVCRespawner@@U?$less@H@std@@V?$allocator@U?$pair@$$CBHPAVCRespawner@@@std@@@3@$0A@@std@@@std@@KAPAU_Node@?$_Tree_nod@V?$_Tmap_traits@HPAVCRespawner@@U?$less@H@std@@V?$allocator@U?$pair@$$CBHPAVCRespawner@@@std@@@3@$0A@@std@@@2@PAU342@@Z PROC NEAR ; std::_Tree<std::_Tmap_traits<int,CRespawner *,std::less<int>,std::allocator<std::pair<int const ,CRespawner *> >,0> >::_Min, COMDAT

; 1042 : 		while (!_Isnil(_Left(_Pnode)))

  00000	8b 44 24 04	 mov	 eax, DWORD PTR __Pnode$[esp-4]
  00004	8b 08		 mov	 ecx, DWORD PTR [eax]
  00006	8a 51 15	 mov	 dl, BYTE PTR [ecx+21]
  00009	84 d2		 test	 dl, dl
  0000b	75 0e		 jne	 SHORT $L229352
  0000d	8d 49 00	 npad	 3
$L229351:

; 1043 : 			_Pnode = _Left(_Pnode);

  00010	8b c1		 mov	 eax, ecx
  00012	8b 08		 mov	 ecx, DWORD PTR [eax]
  00014	8a 51 15	 mov	 dl, BYTE PTR [ecx+21]
  00017	84 d2		 test	 dl, dl
  00019	74 f5		 je	 SHORT $L229351
$L229352:

; 1044 : 		return (_Pnode);
; 1045 : 		}

  0001b	c3		 ret	 0
?_Min@?$_Tree@V?$_Tmap_traits@HPAVCRespawner@@U?$less@H@std@@V?$allocator@U?$pair@$$CBHPAVCRespawner@@@std@@@3@$0A@@std@@@std@@KAPAU_Node@?$_Tree_nod@V?$_Tmap_traits@HPAVCRespawner@@U?$less@H@std@@V?$allocator@U?$pair@$$CBHPAVCRespawner@@@std@@@3@$0A@@std@@@2@PAU342@@Z ENDP ; std::_Tree<std::_Tmap_traits<int,CRespawner *,std::less<int>,std::allocator<std::pair<int const ,CRespawner *> >,0> >::_Min
_TEXT	ENDS
PUBLIC	?_Rmost@?$_Tree@V?$_Tmap_traits@HPAVCRespawner@@U?$less@H@std@@V?$allocator@U?$pair@$$CBHPAVCRespawner@@@std@@@3@$0A@@std@@@std@@IAEAAPAU_Node@?$_Tree_nod@V?$_Tmap_traits@HPAVCRespawner@@U?$less@H@std@@V?$allocator@U?$pair@$$CBHPAVCRespawner@@@std@@@3@$0A@@std@@@2@XZ ; std::_Tree<std::_Tmap_traits<int,CRespawner *,std::less<int>,std::allocator<std::pair<int const ,CRespawner *> >,0> >::_Rmost
; Function compile flags: /Ogty
;	COMDAT ?_Rmost@?$_Tree@V?$_Tmap_traits@HPAVCRespawner@@U?$less@H@std@@V?$allocator@U?$pair@$$CBHPAVCRespawner@@@std@@@3@$0A@@std@@@std@@IAEAAPAU_Node@?$_Tree_nod@V?$_Tmap_traits@HPAVCRespawner@@U?$less@H@std@@V?$allocator@U?$pair@$$CBHPAVCRespawner@@@std@@@3@$0A@@std@@@2@XZ
_TEXT	SEGMENT
?_Rmost@?$_Tree@V?$_Tmap_traits@HPAVCRespawner@@U?$less@H@std@@V?$allocator@U?$pair@$$CBHPAVCRespawner@@@std@@@3@$0A@@std@@@std@@IAEAAPAU_Node@?$_Tree_nod@V?$_Tmap_traits@HPAVCRespawner@@U?$less@H@std@@V?$allocator@U?$pair@$$CBHPAVCRespawner@@@std@@@3@$0A@@std@@@2@XZ PROC NEAR ; std::_Tree<std::_Tmap_traits<int,CRespawner *,std::less<int>,std::allocator<std::pair<int const ,CRespawner *> >,0> >::_Rmost, COMDAT
; _this$ = ecx

; 1049 : 		return (_Right(_Myhead));

  00000	8b 41 04	 mov	 eax, DWORD PTR [ecx+4]
  00003	83 c0 08	 add	 eax, 8

; 1050 : 		}

  00006	c3		 ret	 0
?_Rmost@?$_Tree@V?$_Tmap_traits@HPAVCRespawner@@U?$less@H@std@@V?$allocator@U?$pair@$$CBHPAVCRespawner@@@std@@@3@$0A@@std@@@std@@IAEAAPAU_Node@?$_Tree_nod@V?$_Tmap_traits@HPAVCRespawner@@U?$less@H@std@@V?$allocator@U?$pair@$$CBHPAVCRespawner@@@std@@@3@$0A@@std@@@2@XZ ENDP ; std::_Tree<std::_Tmap_traits<int,CRespawner *,std::less<int>,std::allocator<std::pair<int const ,CRespawner *> >,0> >::_Rmost
_TEXT	ENDS
PUBLIC	?_Root@?$_Tree@V?$_Tmap_traits@HPAVCRespawner@@U?$less@H@std@@V?$allocator@U?$pair@$$CBHPAVCRespawner@@@std@@@3@$0A@@std@@@std@@IAEAAPAU_Node@?$_Tree_nod@V?$_Tmap_traits@HPAVCRespawner@@U?$less@H@std@@V?$allocator@U?$pair@$$CBHPAVCRespawner@@@std@@@3@$0A@@std@@@2@XZ ; std::_Tree<std::_Tmap_traits<int,CRespawner *,std::less<int>,std::allocator<std::pair<int const ,CRespawner *> >,0> >::_Root
; Function compile flags: /Ogty
;	COMDAT ?_Root@?$_Tree@V?$_Tmap_traits@HPAVCRespawner@@U?$less@H@std@@V?$allocator@U?$pair@$$CBHPAVCRespawner@@@std@@@3@$0A@@std@@@std@@IAEAAPAU_Node@?$_Tree_nod@V?$_Tmap_traits@HPAVCRespawner@@U?$less@H@std@@V?$allocator@U?$pair@$$CBHPAVCRespawner@@@std@@@3@$0A@@std@@@2@XZ
_TEXT	SEGMENT
?_Root@?$_Tree@V?$_Tmap_traits@HPAVCRespawner@@U?$less@H@std@@V?$allocator@U?$pair@$$CBHPAVCRespawner@@@std@@@3@$0A@@std@@@std@@IAEAAPAU_Node@?$_Tree_nod@V?$_Tmap_traits@HPAVCRespawner@@U?$less@H@std@@V?$allocator@U?$pair@$$CBHPAVCRespawner@@@std@@@3@$0A@@std@@@2@XZ PROC NEAR ; std::_Tree<std::_Tmap_traits<int,CRespawner *,std::less<int>,std::allocator<std::pair<int const ,CRespawner *> >,0> >::_Root, COMDAT
; _this$ = ecx

; 1059 : 		return (_Parent(_Myhead));

  00000	8b 41 04	 mov	 eax, DWORD PTR [ecx+4]
  00003	83 c0 04	 add	 eax, 4

; 1060 : 		}

  00006	c3		 ret	 0
?_Root@?$_Tree@V?$_Tmap_traits@HPAVCRespawner@@U?$less@H@std@@V?$allocator@U?$pair@$$CBHPAVCRespawner@@@std@@@3@$0A@@std@@@std@@IAEAAPAU_Node@?$_Tree_nod@V?$_Tmap_traits@HPAVCRespawner@@U?$less@H@std@@V?$allocator@U?$pair@$$CBHPAVCRespawner@@@std@@@3@$0A@@std@@@2@XZ ENDP ; std::_Tree<std::_Tmap_traits<int,CRespawner *,std::less<int>,std::allocator<std::pair<int const ,CRespawner *> >,0> >::_Root
_TEXT	ENDS
PUBLIC	?_Rrotate@?$_Tree@V?$_Tmap_traits@HPAVCRespawner@@U?$less@H@std@@V?$allocator@U?$pair@$$CBHPAVCRespawner@@@std@@@3@$0A@@std@@@std@@IAEXPAU_Node@?$_Tree_nod@V?$_Tmap_traits@HPAVCRespawner@@U?$less@H@std@@V?$allocator@U?$pair@$$CBHPAVCRespawner@@@std@@@3@$0A@@std@@@2@@Z ; std::_Tree<std::_Tmap_traits<int,CRespawner *,std::less<int>,std::allocator<std::pair<int const ,CRespawner *> >,0> >::_Rrotate
; Function compile flags: /Ogty
;	COMDAT ?_Rrotate@?$_Tree@V?$_Tmap_traits@HPAVCRespawner@@U?$less@H@std@@V?$allocator@U?$pair@$$CBHPAVCRespawner@@@std@@@3@$0A@@std@@@std@@IAEXPAU_Node@?$_Tree_nod@V?$_Tmap_traits@HPAVCRespawner@@U?$less@H@std@@V?$allocator@U?$pair@$$CBHPAVCRespawner@@@std@@@3@$0A@@std@@@2@@Z
_TEXT	SEGMENT
__Wherenode$ = 8					; size = 4
?_Rrotate@?$_Tree@V?$_Tmap_traits@HPAVCRespawner@@U?$less@H@std@@V?$allocator@U?$pair@$$CBHPAVCRespawner@@@std@@@3@$0A@@std@@@std@@IAEXPAU_Node@?$_Tree_nod@V?$_Tmap_traits@HPAVCRespawner@@U?$less@H@std@@V?$allocator@U?$pair@$$CBHPAVCRespawner@@@std@@@3@$0A@@std@@@2@@Z PROC NEAR ; std::_Tree<std::_Tmap_traits<int,CRespawner *,std::less<int>,std::allocator<std::pair<int const ,CRespawner *> >,0> >::_Rrotate, COMDAT
; _this$ = ecx

; 1069 : 		_Nodeptr _Pnode = _Left(_Wherenode);

  00000	8b 54 24 04	 mov	 edx, DWORD PTR __Wherenode$[esp-4]
  00004	8b 02		 mov	 eax, DWORD PTR [edx]
  00006	53		 push	 ebx
  00007	56		 push	 esi

; 1070 : 		_Left(_Wherenode) = _Right(_Pnode);

  00008	8b 70 08	 mov	 esi, DWORD PTR [eax+8]
  0000b	89 32		 mov	 DWORD PTR [edx], esi

; 1071 : 
; 1072 : 		if (!_Isnil(_Right(_Pnode)))

  0000d	8b 70 08	 mov	 esi, DWORD PTR [eax+8]
  00010	8a 5e 15	 mov	 bl, BYTE PTR [esi+21]
  00013	84 db		 test	 bl, bl
  00015	75 03		 jne	 SHORT $L229360

; 1073 : 			_Parent(_Right(_Pnode)) = _Wherenode;

  00017	89 56 04	 mov	 DWORD PTR [esi+4], edx
$L229360:

; 1074 : 		_Parent(_Pnode) = _Parent(_Wherenode);

  0001a	8b 72 04	 mov	 esi, DWORD PTR [edx+4]
  0001d	89 70 04	 mov	 DWORD PTR [eax+4], esi

; 1075 : 
; 1076 : 		if (_Wherenode == _Root())

  00020	8b 49 04	 mov	 ecx, DWORD PTR [ecx+4]
  00023	3b 51 04	 cmp	 edx, DWORD PTR [ecx+4]
  00026	75 0e		 jne	 SHORT $L229361

; 1077 : 			_Root() = _Pnode;

  00028	89 41 04	 mov	 DWORD PTR [ecx+4], eax
  0002b	5e		 pop	 esi

; 1082 : 
; 1083 : 		_Right(_Pnode) = _Wherenode;

  0002c	89 50 08	 mov	 DWORD PTR [eax+8], edx

; 1084 : 		_Parent(_Wherenode) = _Pnode;

  0002f	89 42 04	 mov	 DWORD PTR [edx+4], eax
  00032	5b		 pop	 ebx

; 1085 : 		}

  00033	c2 04 00	 ret	 4
$L229361:

; 1078 : 		else if (_Wherenode == _Right(_Parent(_Wherenode)))

  00036	8b 4a 04	 mov	 ecx, DWORD PTR [edx+4]
  00039	3b 51 08	 cmp	 edx, DWORD PTR [ecx+8]
  0003c	75 0e		 jne	 SHORT $L229363

; 1079 : 			_Right(_Parent(_Wherenode)) = _Pnode;

  0003e	89 41 08	 mov	 DWORD PTR [ecx+8], eax
  00041	5e		 pop	 esi

; 1082 : 
; 1083 : 		_Right(_Pnode) = _Wherenode;

  00042	89 50 08	 mov	 DWORD PTR [eax+8], edx

; 1084 : 		_Parent(_Wherenode) = _Pnode;

  00045	89 42 04	 mov	 DWORD PTR [edx+4], eax
  00048	5b		 pop	 ebx

; 1085 : 		}

  00049	c2 04 00	 ret	 4
$L229363:

; 1080 : 		else
; 1081 : 			_Left(_Parent(_Wherenode)) = _Pnode;

  0004c	89 01		 mov	 DWORD PTR [ecx], eax
  0004e	5e		 pop	 esi

; 1082 : 
; 1083 : 		_Right(_Pnode) = _Wherenode;

  0004f	89 50 08	 mov	 DWORD PTR [eax+8], edx

; 1084 : 		_Parent(_Wherenode) = _Pnode;

  00052	89 42 04	 mov	 DWORD PTR [edx+4], eax
  00055	5b		 pop	 ebx

; 1085 : 		}

  00056	c2 04 00	 ret	 4
?_Rrotate@?$_Tree@V?$_Tmap_traits@HPAVCRespawner@@U?$less@H@std@@V?$allocator@U?$pair@$$CBHPAVCRespawner@@@std@@@3@$0A@@std@@@std@@IAEXPAU_Node@?$_Tree_nod@V?$_Tmap_traits@HPAVCRespawner@@U?$less@H@std@@V?$allocator@U?$pair@$$CBHPAVCRespawner@@@std@@@3@$0A@@std@@@2@@Z ENDP ; std::_Tree<std::_Tmap_traits<int,CRespawner *,std::less<int>,std::allocator<std::pair<int const ,CRespawner *> >,0> >::_Rrotate
_TEXT	ENDS
PUBLIC	?_Kfn@?$_Tmap_traits@HPAVCRespawner@@U?$less@H@std@@V?$allocator@U?$pair@$$CBHPAVCRespawner@@@std@@@3@$0A@@std@@SAABHABU?$pair@$$CBHPAVCRespawner@@@2@@Z ; std::_Tmap_traits<int,CRespawner *,std::less<int>,std::allocator<std::pair<int const ,CRespawner *> >,0>::_Kfn
; Function compile flags: /Ogty
; File c:\program files\microsoft visual studio .net 2003\vc7\include\map
;	COMDAT ?_Kfn@?$_Tmap_traits@HPAVCRespawner@@U?$less@H@std@@V?$allocator@U?$pair@$$CBHPAVCRespawner@@@std@@@3@$0A@@std@@SAABHABU?$pair@$$CBHPAVCRespawner@@@2@@Z
_TEXT	SEGMENT
__Val$ = 8						; size = 4
?_Kfn@?$_Tmap_traits@HPAVCRespawner@@U?$less@H@std@@V?$allocator@U?$pair@$$CBHPAVCRespawner@@@std@@@3@$0A@@std@@SAABHABU?$pair@$$CBHPAVCRespawner@@@2@@Z PROC NEAR ; std::_Tmap_traits<int,CRespawner *,std::less<int>,std::allocator<std::pair<int const ,CRespawner *> >,0>::_Kfn, COMDAT

; 64   : 		return (_Val.first);

  00000	8b 44 24 04	 mov	 eax, DWORD PTR __Val$[esp-4]

; 65   : 		}

  00004	c3		 ret	 0
?_Kfn@?$_Tmap_traits@HPAVCRespawner@@U?$less@H@std@@V?$allocator@U?$pair@$$CBHPAVCRespawner@@@std@@@3@$0A@@std@@SAABHABU?$pair@$$CBHPAVCRespawner@@@2@@Z ENDP ; std::_Tmap_traits<int,CRespawner *,std::less<int>,std::allocator<std::pair<int const ,CRespawner *> >,0>::_Kfn
_TEXT	ENDS
PUBLIC	??0?$allocator@U?$pair@$$CBHPAVCRespawner@@@std@@@std@@QAE@XZ ; std::allocator<std::pair<int const ,CRespawner *> >::allocator<std::pair<int const ,CRespawner *> >
; Function compile flags: /Ogty
; File c:\program files\microsoft visual studio .net 2003\vc7\include\xmemory
;	COMDAT ??0?$allocator@U?$pair@$$CBHPAVCRespawner@@@std@@@std@@QAE@XZ
_TEXT	SEGMENT
??0?$allocator@U?$pair@$$CBHPAVCRespawner@@@std@@@std@@QAE@XZ PROC NEAR ; std::allocator<std::pair<int const ,CRespawner *> >::allocator<std::pair<int const ,CRespawner *> >, COMDAT
; _this$ = ecx

; 111  : 	allocator()

  00000	8b c1		 mov	 eax, ecx

; 112  : 		{	// construct default allocator (do nothing)
; 113  : 		}

  00002	c3		 ret	 0
??0?$allocator@U?$pair@$$CBHPAVCRespawner@@@std@@@std@@QAE@XZ ENDP ; std::allocator<std::pair<int const ,CRespawner *> >::allocator<std::pair<int const ,CRespawner *> >
_TEXT	ENDS
PUBLIC	?deallocate@?$allocator@U_Node@?$_Tree_nod@V?$_Tmap_traits@HPAVCRespawner@@U?$less@H@std@@V?$allocator@U?$pair@$$CBHPAVCRespawner@@@std@@@3@$0A@@std@@@std@@@std@@QAEXPAU_Node@?$_Tree_nod@V?$_Tmap_traits@HPAVCRespawner@@U?$less@H@std@@V?$allocator@U?$pair@$$CBHPAVCRespawner@@@std@@@3@$0A@@std@@@2@I@Z ; std::allocator<std::_Tree_nod<std::_Tmap_traits<int,CRespawner *,std::less<int>,std::allocator<std::pair<int const ,CRespawner *> >,0> >::_Node>::deallocate
EXTRN	??3@YAXPAX@Z:NEAR				; operator delete
; Function compile flags: /Ogty
;	COMDAT ?deallocate@?$allocator@U_Node@?$_Tree_nod@V?$_Tmap_traits@HPAVCRespawner@@U?$less@H@std@@V?$allocator@U?$pair@$$CBHPAVCRespawner@@@std@@@3@$0A@@std@@@std@@@std@@QAEXPAU_Node@?$_Tree_nod@V?$_Tmap_traits@HPAVCRespawner@@U?$less@H@std@@V?$allocator@U?$pair@$$CBHPAVCRespawner@@@std@@@3@$0A@@std@@@2@I@Z
_TEXT	SEGMENT
__Ptr$ = 8						; size = 4
___formal$ = 12						; size = 4
?deallocate@?$allocator@U_Node@?$_Tree_nod@V?$_Tmap_traits@HPAVCRespawner@@U?$less@H@std@@V?$allocator@U?$pair@$$CBHPAVCRespawner@@@std@@@3@$0A@@std@@@std@@@std@@QAEXPAU_Node@?$_Tree_nod@V?$_Tmap_traits@HPAVCRespawner@@U?$less@H@std@@V?$allocator@U?$pair@$$CBHPAVCRespawner@@@std@@@3@$0A@@std@@@2@I@Z PROC NEAR ; std::allocator<std::_Tree_nod<std::_Tmap_traits<int,CRespawner *,std::less<int>,std::allocator<std::pair<int const ,CRespawner *> >,0> >::_Node>::deallocate, COMDAT
; _this$ = ecx

; 132  : 		operator delete(_Ptr);

  00000	8b 44 24 04	 mov	 eax, DWORD PTR __Ptr$[esp-4]
  00004	50		 push	 eax
  00005	e8 00 00 00 00	 call	 ??3@YAXPAX@Z		; operator delete
  0000a	59		 pop	 ecx

; 133  : 		}

  0000b	c2 08 00	 ret	 8
?deallocate@?$allocator@U_Node@?$_Tree_nod@V?$_Tmap_traits@HPAVCRespawner@@U?$less@H@std@@V?$allocator@U?$pair@$$CBHPAVCRespawner@@@std@@@3@$0A@@std@@@std@@@std@@QAEXPAU_Node@?$_Tree_nod@V?$_Tmap_traits@HPAVCRespawner@@U?$less@H@std@@V?$allocator@U?$pair@$$CBHPAVCRespawner@@@std@@@3@$0A@@std@@@2@I@Z ENDP ; std::allocator<std::_Tree_nod<std::_Tmap_traits<int,CRespawner *,std::less<int>,std::allocator<std::pair<int const ,CRespawner *> >,0> >::_Node>::deallocate
_TEXT	ENDS
PUBLIC	??0const_iterator@?$vector@VCRespawnInfo@@V?$allocator@VCRespawnInfo@@@std@@@std@@QAE@PAVCRespawnInfo@@@Z ; std::vector<CRespawnInfo,std::allocator<CRespawnInfo> >::const_iterator::const_iterator
; Function compile flags: /Ogty
; File c:\program files\microsoft visual studio .net 2003\vc7\include\vector
;	COMDAT ??0const_iterator@?$vector@VCRespawnInfo@@V?$allocator@VCRespawnInfo@@@std@@@std@@QAE@PAVCRespawnInfo@@@Z
_TEXT	SEGMENT
__Ptr$ = 8						; size = 4
??0const_iterator@?$vector@VCRespawnInfo@@V?$allocator@VCRespawnInfo@@@std@@@std@@QAE@PAVCRespawnInfo@@@Z PROC NEAR ; std::vector<CRespawnInfo,std::allocator<CRespawnInfo> >::const_iterator::const_iterator, COMDAT
; _this$ = ecx

; 73   : 		const_iterator(_Tptr _Ptr)

  00000	8b c1		 mov	 eax, ecx

; 74   : 			{	// construct with pointer _Ptr
; 75   : 			_Myptr = _Ptr;

  00002	8b 4c 24 04	 mov	 ecx, DWORD PTR __Ptr$[esp-4]
  00006	89 08		 mov	 DWORD PTR [eax], ecx

; 76   : 			}

  00008	c2 04 00	 ret	 4
??0const_iterator@?$vector@VCRespawnInfo@@V?$allocator@VCRespawnInfo@@@std@@@std@@QAE@PAVCRespawnInfo@@@Z ENDP ; std::vector<CRespawnInfo,std::allocator<CRespawnInfo> >::const_iterator::const_iterator
_TEXT	ENDS
PUBLIC	??Dconst_iterator@?$vector@VCRespawnInfo@@V?$allocator@VCRespawnInfo@@@std@@@std@@QBEABVCRespawnInfo@@XZ ; std::vector<CRespawnInfo,std::allocator<CRespawnInfo> >::const_iterator::operator*
; Function compile flags: /Ogty
;	COMDAT ??Dconst_iterator@?$vector@VCRespawnInfo@@V?$allocator@VCRespawnInfo@@@std@@@std@@QBEABVCRespawnInfo@@XZ
_TEXT	SEGMENT
??Dconst_iterator@?$vector@VCRespawnInfo@@V?$allocator@VCRespawnInfo@@@std@@@std@@QBEABVCRespawnInfo@@XZ PROC NEAR ; std::vector<CRespawnInfo,std::allocator<CRespawnInfo> >::const_iterator::operator*, COMDAT
; _this$ = ecx

; 80   : 
; 81   : 
; 82   : 			return (*_Myptr);

  00000	8b 01		 mov	 eax, DWORD PTR [ecx]

; 83   : 			}

  00002	c3		 ret	 0
??Dconst_iterator@?$vector@VCRespawnInfo@@V?$allocator@VCRespawnInfo@@@std@@@std@@QBEABVCRespawnInfo@@XZ ENDP ; std::vector<CRespawnInfo,std::allocator<CRespawnInfo> >::const_iterator::operator*
_TEXT	ENDS
PUBLIC	??8const_iterator@?$vector@VCRespawnInfo@@V?$allocator@VCRespawnInfo@@@std@@@std@@QBE_NABV012@@Z ; std::vector<CRespawnInfo,std::allocator<CRespawnInfo> >::const_iterator::operator==
; Function compile flags: /Ogty
;	COMDAT ??8const_iterator@?$vector@VCRespawnInfo@@V?$allocator@VCRespawnInfo@@@std@@@std@@QBE_NABV012@@Z
_TEXT	SEGMENT
__Right$ = 8						; size = 4
??8const_iterator@?$vector@VCRespawnInfo@@V?$allocator@VCRespawnInfo@@@std@@@std@@QBE_NABV012@@Z PROC NEAR ; std::vector<CRespawnInfo,std::allocator<CRespawnInfo> >::const_iterator::operator==, COMDAT
; _this$ = ecx

; 153  : 
; 154  : 
; 155  : 			return (_Myptr == _Right._Myptr);

  00000	8b 01		 mov	 eax, DWORD PTR [ecx]
  00002	8b 4c 24 04	 mov	 ecx, DWORD PTR __Right$[esp-4]
  00006	2b 01		 sub	 eax, DWORD PTR [ecx]
  00008	f7 d8		 neg	 eax
  0000a	1b c0		 sbb	 eax, eax
  0000c	40		 inc	 eax

; 156  : 			}

  0000d	c2 04 00	 ret	 4
??8const_iterator@?$vector@VCRespawnInfo@@V?$allocator@VCRespawnInfo@@@std@@@std@@QBE_NABV012@@Z ENDP ; std::vector<CRespawnInfo,std::allocator<CRespawnInfo> >::const_iterator::operator==
_TEXT	ENDS
PUBLIC	??0iterator@?$vector@VCRespawnInfo@@V?$allocator@VCRespawnInfo@@@std@@@std@@QAE@PAVCRespawnInfo@@@Z ; std::vector<CRespawnInfo,std::allocator<CRespawnInfo> >::iterator::iterator
; Function compile flags: /Ogty
;	COMDAT ??0iterator@?$vector@VCRespawnInfo@@V?$allocator@VCRespawnInfo@@@std@@@std@@QAE@PAVCRespawnInfo@@@Z
_TEXT	SEGMENT
__Ptr$ = 8						; size = 4
??0iterator@?$vector@VCRespawnInfo@@V?$allocator@VCRespawnInfo@@@std@@@std@@QAE@PAVCRespawnInfo@@@Z PROC NEAR ; std::vector<CRespawnInfo,std::allocator<CRespawnInfo> >::iterator::iterator, COMDAT
; _this$ = ecx

; 215  : 			{	// construct with pointer _Ptr

  00000	8b c1		 mov	 eax, ecx
  00002	8b 4c 24 04	 mov	 ecx, DWORD PTR __Ptr$[esp-4]
  00006	89 08		 mov	 DWORD PTR [eax], ecx

; 216  : 			}

  00008	c2 04 00	 ret	 4
??0iterator@?$vector@VCRespawnInfo@@V?$allocator@VCRespawnInfo@@@std@@@std@@QAE@PAVCRespawnInfo@@@Z ENDP ; std::vector<CRespawnInfo,std::allocator<CRespawnInfo> >::iterator::iterator
_TEXT	ENDS
PUBLIC	?_Mynode@const_iterator@?$_Tree@V?$_Tmap_traits@HPAVCRespawner@@U?$less@H@std@@V?$allocator@U?$pair@$$CBHPAVCRespawner@@@std@@@3@$0A@@std@@@std@@QBEPAU_Node@?$_Tree_nod@V?$_Tmap_traits@HPAVCRespawner@@U?$less@H@std@@V?$allocator@U?$pair@$$CBHPAVCRespawner@@@std@@@3@$0A@@std@@@3@XZ ; std::_Tree<std::_Tmap_traits<int,CRespawner *,std::less<int>,std::allocator<std::pair<int const ,CRespawner *> >,0> >::const_iterator::_Mynode
; Function compile flags: /Ogty
; File c:\program files\microsoft visual studio .net 2003\vc7\include\xtree
;	COMDAT ?_Mynode@const_iterator@?$_Tree@V?$_Tmap_traits@HPAVCRespawner@@U?$less@H@std@@V?$allocator@U?$pair@$$CBHPAVCRespawner@@@std@@@3@$0A@@std@@@std@@QBEPAU_Node@?$_Tree_nod@V?$_Tmap_traits@HPAVCRespawner@@U?$less@H@std@@V?$allocator@U?$pair@$$CBHPAVCRespawner@@@std@@@3@$0A@@std@@@3@XZ
_TEXT	SEGMENT
?_Mynode@const_iterator@?$_Tree@V?$_Tmap_traits@HPAVCRespawner@@U?$less@H@std@@V?$allocator@U?$pair@$$CBHPAVCRespawner@@@std@@@3@$0A@@std@@@std@@QBEPAU_Node@?$_Tree_nod@V?$_Tmap_traits@HPAVCRespawner@@U?$less@H@std@@V?$allocator@U?$pair@$$CBHPAVCRespawner@@@std@@@3@$0A@@std@@@3@XZ PROC NEAR ; std::_Tree<std::_Tmap_traits<int,CRespawner *,std::less<int>,std::allocator<std::pair<int const ,CRespawner *> >,0> >::const_iterator::_Mynode, COMDAT
; _this$ = ecx

; 284  : 			return (_Ptr);

  00000	8b 01		 mov	 eax, DWORD PTR [ecx]

; 285  : 			}

  00002	c3		 ret	 0
?_Mynode@const_iterator@?$_Tree@V?$_Tmap_traits@HPAVCRespawner@@U?$less@H@std@@V?$allocator@U?$pair@$$CBHPAVCRespawner@@@std@@@3@$0A@@std@@@std@@QBEPAU_Node@?$_Tree_nod@V?$_Tmap_traits@HPAVCRespawner@@U?$less@H@std@@V?$allocator@U?$pair@$$CBHPAVCRespawner@@@std@@@3@$0A@@std@@@3@XZ ENDP ; std::_Tree<std::_Tmap_traits<int,CRespawner *,std::less<int>,std::allocator<std::pair<int const ,CRespawner *> >,0> >::const_iterator::_Mynode
_TEXT	ENDS
PUBLIC	??0?$pair@Viterator@?$_Tree@V?$_Tmap_traits@HPAVCRespawner@@U?$less@H@std@@V?$allocator@U?$pair@$$CBHPAVCRespawner@@@std@@@3@$0A@@std@@@std@@_N@std@@QAE@ABViterator@?$_Tree@V?$_Tmap_traits@HPAVCRespawner@@U?$less@H@std@@V?$allocator@U?$pair@$$CBHPAVCRespawner@@@std@@@3@$0A@@std@@@1@AB_N@Z ; std::pair<std::_Tree<std::_Tmap_traits<int,CRespawner *,std::less<int>,std::allocator<std::pair<int const ,CRespawner *> >,0> >::iterator,bool>::pair<std::_Tree<std::_Tmap_traits<int,CRespawner *,std::less<int>,std::allocator<std::pair<int const ,CRespawner *> >,0> >::iterator,bool>
; Function compile flags: /Ogty
; File c:\program files\microsoft visual studio .net 2003\vc7\include\utility
;	COMDAT ??0?$pair@Viterator@?$_Tree@V?$_Tmap_traits@HPAVCRespawner@@U?$less@H@std@@V?$allocator@U?$pair@$$CBHPAVCRespawner@@@std@@@3@$0A@@std@@@std@@_N@std@@QAE@ABViterator@?$_Tree@V?$_Tmap_traits@HPAVCRespawner@@U?$less@H@std@@V?$allocator@U?$pair@$$CBHPAVCRespawner@@@std@@@3@$0A@@std@@@1@AB_N@Z
_TEXT	SEGMENT
__Val1$ = 8						; size = 4
__Val2$ = 12						; size = 4
??0?$pair@Viterator@?$_Tree@V?$_Tmap_traits@HPAVCRespawner@@U?$less@H@std@@V?$allocator@U?$pair@$$CBHPAVCRespawner@@@std@@@3@$0A@@std@@@std@@_N@std@@QAE@ABViterator@?$_Tree@V?$_Tmap_traits@HPAVCRespawner@@U?$less@H@std@@V?$allocator@U?$pair@$$CBHPAVCRespawner@@@std@@@3@$0A@@std@@@1@AB_N@Z PROC NEAR ; std::pair<std::_Tree<std::_Tmap_traits<int,CRespawner *,std::less<int>,std::allocator<std::pair<int const ,CRespawner *> >,0> >::iterator,bool>::pair<std::_Tree<std::_Tmap_traits<int,CRespawner *,std::less<int>,std::allocator<std::pair<int const ,CRespawner *> >,0> >::iterator,bool>, COMDAT
; _this$ = ecx

; 34   : 		{	// construct from specified values

  00000	8b c1		 mov	 eax, ecx
  00002	8b 4c 24 04	 mov	 ecx, DWORD PTR __Val1$[esp-4]
  00006	8b 11		 mov	 edx, DWORD PTR [ecx]
  00008	8b 4c 24 08	 mov	 ecx, DWORD PTR __Val2$[esp-4]
  0000c	89 10		 mov	 DWORD PTR [eax], edx
  0000e	8a 11		 mov	 dl, BYTE PTR [ecx]
  00010	88 50 04	 mov	 BYTE PTR [eax+4], dl

; 35   : 		}

  00013	c2 08 00	 ret	 8
??0?$pair@Viterator@?$_Tree@V?$_Tmap_traits@HPAVCRespawner@@U?$less@H@std@@V?$allocator@U?$pair@$$CBHPAVCRespawner@@@std@@@3@$0A@@std@@@std@@_N@std@@QAE@ABViterator@?$_Tree@V?$_Tmap_traits@HPAVCRespawner@@U?$less@H@std@@V?$allocator@U?$pair@$$CBHPAVCRespawner@@@std@@@3@$0A@@std@@@1@AB_N@Z ENDP ; std::pair<std::_Tree<std::_Tmap_traits<int,CRespawner *,std::less<int>,std::allocator<std::pair<int const ,CRespawner *> >,0> >::iterator,bool>::pair<std::_Tree<std::_Tmap_traits<int,CRespawner *,std::less<int>,std::allocator<std::pair<int const ,CRespawner *> >,0> >::iterator,bool>
_TEXT	ENDS
PUBLIC	??0?$allocator@VCRespawnInfo@@@std@@QAE@ABV01@@Z ; std::allocator<CRespawnInfo>::allocator<CRespawnInfo>
; Function compile flags: /Ogty
; File c:\program files\microsoft visual studio .net 2003\vc7\include\xmemory
;	COMDAT ??0?$allocator@VCRespawnInfo@@@std@@QAE@ABV01@@Z
_TEXT	SEGMENT
___formal$ = 8						; size = 4
??0?$allocator@VCRespawnInfo@@@std@@QAE@ABV01@@Z PROC NEAR ; std::allocator<CRespawnInfo>::allocator<CRespawnInfo>, COMDAT
; _this$ = ecx

; 115  : 	allocator(const allocator<_Ty>&)

  00000	8b c1		 mov	 eax, ecx

; 116  : 		{	// construct by copying (do nothing)
; 117  : 		}

  00002	c2 04 00	 ret	 4
??0?$allocator@VCRespawnInfo@@@std@@QAE@ABV01@@Z ENDP	; std::allocator<CRespawnInfo>::allocator<CRespawnInfo>
_TEXT	ENDS
PUBLIC	?deallocate@?$allocator@VCRespawnInfo@@@std@@QAEXPAVCRespawnInfo@@I@Z ; std::allocator<CRespawnInfo>::deallocate
; Function compile flags: /Ogty
;	COMDAT ?deallocate@?$allocator@VCRespawnInfo@@@std@@QAEXPAVCRespawnInfo@@I@Z
_TEXT	SEGMENT
__Ptr$ = 8						; size = 4
___formal$ = 12						; size = 4
?deallocate@?$allocator@VCRespawnInfo@@@std@@QAEXPAVCRespawnInfo@@I@Z PROC NEAR ; std::allocator<CRespawnInfo>::deallocate, COMDAT
; _this$ = ecx

; 132  : 		operator delete(_Ptr);

  00000	8b 44 24 04	 mov	 eax, DWORD PTR __Ptr$[esp-4]
  00004	50		 push	 eax
  00005	e8 00 00 00 00	 call	 ??3@YAXPAX@Z		; operator delete
  0000a	59		 pop	 ecx

; 133  : 		}

  0000b	c2 08 00	 ret	 8
?deallocate@?$allocator@VCRespawnInfo@@@std@@QAEXPAVCRespawnInfo@@I@Z ENDP ; std::allocator<CRespawnInfo>::deallocate
_TEXT	ENDS
PUBLIC	?_Myval@?$_Tree@V?$_Tmap_traits@HPAVCRespawner@@U?$less@H@std@@V?$allocator@U?$pair@$$CBHPAVCRespawner@@@std@@@3@$0A@@std@@@std@@KAAAU?$pair@$$CBHPAVCRespawner@@@2@PAU_Node@?$_Tree_nod@V?$_Tmap_traits@HPAVCRespawner@@U?$less@H@std@@V?$allocator@U?$pair@$$CBHPAVCRespawner@@@std@@@3@$0A@@std@@@2@@Z ; std::_Tree<std::_Tmap_traits<int,CRespawner *,std::less<int>,std::allocator<std::pair<int const ,CRespawner *> >,0> >::_Myval
; Function compile flags: /Ogty
; File c:\program files\microsoft visual studio .net 2003\vc7\include\xtree
;	COMDAT ?_Myval@?$_Tree@V?$_Tmap_traits@HPAVCRespawner@@U?$less@H@std@@V?$allocator@U?$pair@$$CBHPAVCRespawner@@@std@@@3@$0A@@std@@@std@@KAAAU?$pair@$$CBHPAVCRespawner@@@2@PAU_Node@?$_Tree_nod@V?$_Tmap_traits@HPAVCRespawner@@U?$less@H@std@@V?$allocator@U?$pair@$$CBHPAVCRespawner@@@std@@@3@$0A@@std@@@2@@Z
_TEXT	SEGMENT
__Pnode$ = 8						; size = 4
?_Myval@?$_Tree@V?$_Tmap_traits@HPAVCRespawner@@U?$less@H@std@@V?$allocator@U?$pair@$$CBHPAVCRespawner@@@std@@@3@$0A@@std@@@std@@KAAAU?$pair@$$CBHPAVCRespawner@@@2@PAU_Node@?$_Tree_nod@V?$_Tmap_traits@HPAVCRespawner@@U?$less@H@std@@V?$allocator@U?$pair@$$CBHPAVCRespawner@@@std@@@3@$0A@@std@@@2@@Z PROC NEAR ; std::_Tree<std::_Tmap_traits<int,CRespawner *,std::less<int>,std::allocator<std::pair<int const ,CRespawner *> >,0> >::_Myval, COMDAT

; 162  : 		return ((_Vref)(*_Pnode)._Myval);

  00000	8b 44 24 04	 mov	 eax, DWORD PTR __Pnode$[esp-4]
  00004	83 c0 0c	 add	 eax, 12			; 0000000cH

; 163  : 		}

  00007	c3		 ret	 0
?_Myval@?$_Tree@V?$_Tmap_traits@HPAVCRespawner@@U?$less@H@std@@V?$allocator@U?$pair@$$CBHPAVCRespawner@@@std@@@3@$0A@@std@@@std@@KAAAU?$pair@$$CBHPAVCRespawner@@@2@PAU_Node@?$_Tree_nod@V?$_Tmap_traits@HPAVCRespawner@@U?$less@H@std@@V?$allocator@U?$pair@$$CBHPAVCRespawner@@@std@@@3@$0A@@std@@@2@@Z ENDP ; std::_Tree<std::_Tmap_traits<int,CRespawner *,std::less<int>,std::allocator<std::pair<int const ,CRespawner *> >,0> >::_Myval
_TEXT	ENDS
PUBLIC	??0?$allocator@U?$pair@$$CBHPAVCRespawner@@@std@@@std@@QAE@ABV01@@Z ; std::allocator<std::pair<int const ,CRespawner *> >::allocator<std::pair<int const ,CRespawner *> >
; Function compile flags: /Ogty
; File c:\program files\microsoft visual studio .net 2003\vc7\include\xmemory
;	COMDAT ??0?$allocator@U?$pair@$$CBHPAVCRespawner@@@std@@@std@@QAE@ABV01@@Z
_TEXT	SEGMENT
___formal$ = 8						; size = 4
??0?$allocator@U?$pair@$$CBHPAVCRespawner@@@std@@@std@@QAE@ABV01@@Z PROC NEAR ; std::allocator<std::pair<int const ,CRespawner *> >::allocator<std::pair<int const ,CRespawner *> >, COMDAT
; _this$ = ecx

; 115  : 	allocator(const allocator<_Ty>&)

  00000	8b c1		 mov	 eax, ecx

; 116  : 		{	// construct by copying (do nothing)
; 117  : 		}

  00002	c2 04 00	 ret	 4
??0?$allocator@U?$pair@$$CBHPAVCRespawner@@@std@@@std@@QAE@ABV01@@Z ENDP ; std::allocator<std::pair<int const ,CRespawner *> >::allocator<std::pair<int const ,CRespawner *> >
_TEXT	ENDS
PUBLIC	??Yiterator@?$vector@VCRespawnInfo@@V?$allocator@VCRespawnInfo@@@std@@@std@@QAEAAV012@H@Z ; std::vector<CRespawnInfo,std::allocator<CRespawnInfo> >::iterator::operator+=
; Function compile flags: /Ogty
; File c:\program files\microsoft visual studio .net 2003\vc7\include\vector
;	COMDAT ??Yiterator@?$vector@VCRespawnInfo@@V?$allocator@VCRespawnInfo@@@std@@@std@@QAEAAV012@H@Z
_TEXT	SEGMENT
__Off$ = 8						; size = 4
??Yiterator@?$vector@VCRespawnInfo@@V?$allocator@VCRespawnInfo@@@std@@@std@@QAEAAV012@H@Z PROC NEAR ; std::vector<CRespawnInfo,std::allocator<CRespawnInfo> >::iterator::operator+=, COMDAT
; _this$ = ecx

; 255  : 			{	// increment by integer

  00000	8b c1		 mov	 eax, ecx

; 256  : 			this->_Myptr += _Off;

  00002	8b 4c 24 04	 mov	 ecx, DWORD PTR __Off$[esp-4]
  00006	8b 10		 mov	 edx, DWORD PTR [eax]
  00008	69 c9 48 05 00
	00		 imul	 ecx, 1352		; 00000548H
  0000e	03 d1		 add	 edx, ecx
  00010	89 10		 mov	 DWORD PTR [eax], edx

; 257  : 			return (*this);
; 258  : 			}

  00012	c2 04 00	 ret	 4
??Yiterator@?$vector@VCRespawnInfo@@V?$allocator@VCRespawnInfo@@@std@@@std@@QAEAAV012@H@Z ENDP ; std::vector<CRespawnInfo,std::allocator<CRespawnInfo> >::iterator::operator+=
_TEXT	ENDS
PUBLIC	??0const_iterator@?$_Tree@V?$_Tmap_traits@HPAVCRespawner@@U?$less@H@std@@V?$allocator@U?$pair@$$CBHPAVCRespawner@@@std@@@3@$0A@@std@@@std@@QAE@PAU_Node@?$_Tree_nod@V?$_Tmap_traits@HPAVCRespawner@@U?$less@H@std@@V?$allocator@U?$pair@$$CBHPAVCRespawner@@@std@@@3@$0A@@std@@@2@@Z ; std::_Tree<std::_Tmap_traits<int,CRespawner *,std::less<int>,std::allocator<std::pair<int const ,CRespawner *> >,0> >::const_iterator::const_iterator
; Function compile flags: /Ogty
; File c:\program files\microsoft visual studio .net 2003\vc7\include\xtree
;	COMDAT ??0const_iterator@?$_Tree@V?$_Tmap_traits@HPAVCRespawner@@U?$less@H@std@@V?$allocator@U?$pair@$$CBHPAVCRespawner@@@std@@@3@$0A@@std@@@std@@QAE@PAU_Node@?$_Tree_nod@V?$_Tmap_traits@HPAVCRespawner@@U?$less@H@std@@V?$allocator@U?$pair@$$CBHPAVCRespawner@@@std@@@3@$0A@@std@@@2@@Z
_TEXT	SEGMENT
__Pnode$ = 8						; size = 4
??0const_iterator@?$_Tree@V?$_Tmap_traits@HPAVCRespawner@@U?$less@H@std@@V?$allocator@U?$pair@$$CBHPAVCRespawner@@@std@@@3@$0A@@std@@@std@@QAE@PAU_Node@?$_Tree_nod@V?$_Tmap_traits@HPAVCRespawner@@U?$less@H@std@@V?$allocator@U?$pair@$$CBHPAVCRespawner@@@std@@@3@$0A@@std@@@2@@Z PROC NEAR ; std::_Tree<std::_Tmap_traits<int,CRespawner *,std::less<int>,std::allocator<std::pair<int const ,CRespawner *> >,0> >::const_iterator::const_iterator, COMDAT
; _this$ = ecx

; 200  : 			{	// construct with node pointer _Pnode

  00000	8b c1		 mov	 eax, ecx
  00002	8b 4c 24 04	 mov	 ecx, DWORD PTR __Pnode$[esp-4]
  00006	89 08		 mov	 DWORD PTR [eax], ecx

; 201  : 			}

  00008	c2 04 00	 ret	 4
??0const_iterator@?$_Tree@V?$_Tmap_traits@HPAVCRespawner@@U?$less@H@std@@V?$allocator@U?$pair@$$CBHPAVCRespawner@@@std@@@3@$0A@@std@@@std@@QAE@PAU_Node@?$_Tree_nod@V?$_Tmap_traits@HPAVCRespawner@@U?$less@H@std@@V?$allocator@U?$pair@$$CBHPAVCRespawner@@@std@@@3@$0A@@std@@@2@@Z ENDP ; std::_Tree<std::_Tmap_traits<int,CRespawner *,std::less<int>,std::allocator<std::pair<int const ,CRespawner *> >,0> >::const_iterator::const_iterator
_TEXT	ENDS
PUBLIC	??Dconst_iterator@?$_Tree@V?$_Tmap_traits@HPAVCRespawner@@U?$less@H@std@@V?$allocator@U?$pair@$$CBHPAVCRespawner@@@std@@@3@$0A@@std@@@std@@QBEABU?$pair@$$CBHPAVCRespawner@@@2@XZ ; std::_Tree<std::_Tmap_traits<int,CRespawner *,std::less<int>,std::allocator<std::pair<int const ,CRespawner *> >,0> >::const_iterator::operator*
; Function compile flags: /Ogty
;	COMDAT ??Dconst_iterator@?$_Tree@V?$_Tmap_traits@HPAVCRespawner@@U?$less@H@std@@V?$allocator@U?$pair@$$CBHPAVCRespawner@@@std@@@3@$0A@@std@@@std@@QBEABU?$pair@$$CBHPAVCRespawner@@@2@XZ
_TEXT	SEGMENT
??Dconst_iterator@?$_Tree@V?$_Tmap_traits@HPAVCRespawner@@U?$less@H@std@@V?$allocator@U?$pair@$$CBHPAVCRespawner@@@std@@@3@$0A@@std@@@std@@QBEABU?$pair@$$CBHPAVCRespawner@@@2@XZ PROC NEAR ; std::_Tree<std::_Tmap_traits<int,CRespawner *,std::less<int>,std::allocator<std::pair<int const ,CRespawner *> >,0> >::const_iterator::operator*, COMDAT
; _this$ = ecx

; 205  : 			return (_Myval(_Ptr));

  00000	8b 01		 mov	 eax, DWORD PTR [ecx]
  00002	83 c0 0c	 add	 eax, 12			; 0000000cH

; 206  : 			}

  00005	c3		 ret	 0
??Dconst_iterator@?$_Tree@V?$_Tmap_traits@HPAVCRespawner@@U?$less@H@std@@V?$allocator@U?$pair@$$CBHPAVCRespawner@@@std@@@3@$0A@@std@@@std@@QBEABU?$pair@$$CBHPAVCRespawner@@@2@XZ ENDP ; std::_Tree<std::_Tmap_traits<int,CRespawner *,std::less<int>,std::allocator<std::pair<int const ,CRespawner *> >,0> >::const_iterator::operator*
_TEXT	ENDS
PUBLIC	?_Inc@const_iterator@?$_Tree@V?$_Tmap_traits@HPAVCRespawner@@U?$less@H@std@@V?$allocator@U?$pair@$$CBHPAVCRespawner@@@std@@@3@$0A@@std@@@std@@QAEXXZ ; std::_Tree<std::_Tmap_traits<int,CRespawner *,std::less<int>,std::allocator<std::pair<int const ,CRespawner *> >,0> >::const_iterator::_Inc
; Function compile flags: /Ogty
;	COMDAT ?_Inc@const_iterator@?$_Tree@V?$_Tmap_traits@HPAVCRespawner@@U?$less@H@std@@V?$allocator@U?$pair@$$CBHPAVCRespawner@@@std@@@3@$0A@@std@@@std@@QAEXXZ
_TEXT	SEGMENT
?_Inc@const_iterator@?$_Tree@V?$_Tmap_traits@HPAVCRespawner@@U?$less@H@std@@V?$allocator@U?$pair@$$CBHPAVCRespawner@@@std@@@3@$0A@@std@@@std@@QAEXXZ PROC NEAR ; std::_Tree<std::_Tmap_traits<int,CRespawner *,std::less<int>,std::allocator<std::pair<int const ,CRespawner *> >,0> >::const_iterator::_Inc, COMDAT
; _this$ = ecx

; 268  : 			if (_Isnil(_Ptr))

  00000	8b 01		 mov	 eax, DWORD PTR [ecx]
  00002	8a 50 15	 mov	 dl, BYTE PTR [eax+21]
  00005	84 d2		 test	 dl, dl
  00007	75 4d		 jne	 SHORT $L229601

; 269  : 				;	// end() shouldn't be incremented, don't move
; 270  : 			else if (!_Isnil(_Right(_Ptr)))

  00009	8b 50 08	 mov	 edx, DWORD PTR [eax+8]
  0000c	53		 push	 ebx
  0000d	8a 5a 15	 mov	 bl, BYTE PTR [edx+21]
  00010	84 db		 test	 bl, bl
  00012	75 1b		 jne	 SHORT $L231720

; 271  : 				_Ptr = _Min(_Right(_Ptr));	// ==> smallest of right subtree

  00014	8b 02		 mov	 eax, DWORD PTR [edx]
  00016	8a 58 15	 mov	 bl, BYTE PTR [eax+21]
  00019	84 db		 test	 bl, bl
  0001b	75 0e		 jne	 SHORT $L231708
  0001d	8d 49 00	 npad	 3
$L231707:
  00020	8b d0		 mov	 edx, eax
  00022	8b 02		 mov	 eax, DWORD PTR [edx]
  00024	8a 58 15	 mov	 bl, BYTE PTR [eax+21]
  00027	84 db		 test	 bl, bl
  00029	74 f5		 je	 SHORT $L231707
$L231708:
  0002b	89 11		 mov	 DWORD PTR [ecx], edx
  0002d	5b		 pop	 ebx

; 279  : 				}
; 280  : 			}

  0002e	c3		 ret	 0
$L231720:

; 272  : 			else
; 273  : 				{	// climb looking for right subtree
; 274  : 				_Nodeptr _Pnode;
; 275  : 				while (!_Isnil(_Pnode = _Parent(_Ptr))
; 276  : 					&& _Ptr == _Right(_Pnode))

  0002f	8b 40 04	 mov	 eax, DWORD PTR [eax+4]
  00032	8a 50 15	 mov	 dl, BYTE PTR [eax+21]
  00035	84 d2		 test	 dl, dl
  00037	75 1a		 jne	 SHORT $L229605
  00039	8d a4 24 00 00
	00 00		 npad	 7
$L229604:
  00040	8b 11		 mov	 edx, DWORD PTR [ecx]
  00042	3b 50 08	 cmp	 edx, DWORD PTR [eax+8]
  00045	75 0c		 jne	 SHORT $L229605

; 277  : 					_Ptr = _Pnode;	// ==> parent while right subtree

  00047	89 01		 mov	 DWORD PTR [ecx], eax
  00049	8b 40 04	 mov	 eax, DWORD PTR [eax+4]
  0004c	8a 50 15	 mov	 dl, BYTE PTR [eax+21]
  0004f	84 d2		 test	 dl, dl
  00051	74 ed		 je	 SHORT $L229604
$L229605:

; 278  : 				_Ptr = _Pnode;	// ==> parent (head if end())

  00053	89 01		 mov	 DWORD PTR [ecx], eax
  00055	5b		 pop	 ebx
$L229601:

; 279  : 				}
; 280  : 			}

  00056	c3		 ret	 0
?_Inc@const_iterator@?$_Tree@V?$_Tmap_traits@HPAVCRespawner@@U?$less@H@std@@V?$allocator@U?$pair@$$CBHPAVCRespawner@@@std@@@3@$0A@@std@@@std@@QAEXXZ ENDP ; std::_Tree<std::_Tmap_traits<int,CRespawner *,std::less<int>,std::allocator<std::pair<int const ,CRespawner *> >,0> >::const_iterator::_Inc
_TEXT	ENDS
PUBLIC	?max_size@?$allocator@VCRespawnInfo@@@std@@QBEIXZ ; std::allocator<CRespawnInfo>::max_size
; Function compile flags: /Ogty
; File c:\program files\microsoft visual studio .net 2003\vc7\include\xmemory
;	COMDAT ?max_size@?$allocator@VCRespawnInfo@@@std@@QBEIXZ
_TEXT	SEGMENT
?max_size@?$allocator@VCRespawnInfo@@@std@@QBEIXZ PROC NEAR ; std::allocator<CRespawnInfo>::max_size, COMDAT
; _this$ = ecx

; 157  : 		_SIZT _Count = (_SIZT)(-1) / sizeof (_Ty);
; 158  : 		return (0 < _Count ? _Count : 1);

  00000	b8 2e 79 30 00	 mov	 eax, 3176750		; 0030792eH

; 159  : 		}

  00005	c3		 ret	 0
?max_size@?$allocator@VCRespawnInfo@@@std@@QBEIXZ ENDP	; std::allocator<CRespawnInfo>::max_size
_TEXT	ENDS
PUBLIC	?_Root@?$_Tree@V?$_Tmap_traits@HPAVCRespawner@@U?$less@H@std@@V?$allocator@U?$pair@$$CBHPAVCRespawner@@@std@@@3@$0A@@std@@@std@@IBEAAPAU_Node@?$_Tree_nod@V?$_Tmap_traits@HPAVCRespawner@@U?$less@H@std@@V?$allocator@U?$pair@$$CBHPAVCRespawner@@@std@@@3@$0A@@std@@@2@XZ ; std::_Tree<std::_Tmap_traits<int,CRespawner *,std::less<int>,std::allocator<std::pair<int const ,CRespawner *> >,0> >::_Root
; Function compile flags: /Ogty
; File c:\program files\microsoft visual studio .net 2003\vc7\include\xtree
;	COMDAT ?_Root@?$_Tree@V?$_Tmap_traits@HPAVCRespawner@@U?$less@H@std@@V?$allocator@U?$pair@$$CBHPAVCRespawner@@@std@@@3@$0A@@std@@@std@@IBEAAPAU_Node@?$_Tree_nod@V?$_Tmap_traits@HPAVCRespawner@@U?$less@H@std@@V?$allocator@U?$pair@$$CBHPAVCRespawner@@@std@@@3@$0A@@std@@@2@XZ
_TEXT	SEGMENT
?_Root@?$_Tree@V?$_Tmap_traits@HPAVCRespawner@@U?$less@H@std@@V?$allocator@U?$pair@$$CBHPAVCRespawner@@@std@@@3@$0A@@std@@@std@@IBEAAPAU_Node@?$_Tree_nod@V?$_Tmap_traits@HPAVCRespawner@@U?$less@H@std@@V?$allocator@U?$pair@$$CBHPAVCRespawner@@@std@@@3@$0A@@std@@@2@XZ PROC NEAR ; std::_Tree<std::_Tmap_traits<int,CRespawner *,std::less<int>,std::allocator<std::pair<int const ,CRespawner *> >,0> >::_Root, COMDAT
; _this$ = ecx

; 1064 : 		return (_Parent(_Myhead));

  00000	8b 41 04	 mov	 eax, DWORD PTR [ecx+4]
  00003	83 c0 04	 add	 eax, 4

; 1065 : 		}

  00006	c3		 ret	 0
?_Root@?$_Tree@V?$_Tmap_traits@HPAVCRespawner@@U?$less@H@std@@V?$allocator@U?$pair@$$CBHPAVCRespawner@@@std@@@3@$0A@@std@@@std@@IBEAAPAU_Node@?$_Tree_nod@V?$_Tmap_traits@HPAVCRespawner@@U?$less@H@std@@V?$allocator@U?$pair@$$CBHPAVCRespawner@@@std@@@3@$0A@@std@@@2@XZ ENDP ; std::_Tree<std::_Tmap_traits<int,CRespawner *,std::less<int>,std::allocator<std::pair<int const ,CRespawner *> >,0> >::_Root
_TEXT	ENDS
PUBLIC	?max_size@?$allocator@U?$pair@$$CBHPAVCRespawner@@@std@@@std@@QBEIXZ ; std::allocator<std::pair<int const ,CRespawner *> >::max_size
; Function compile flags: /Ogty
; File c:\program files\microsoft visual studio .net 2003\vc7\include\xmemory
;	COMDAT ?max_size@?$allocator@U?$pair@$$CBHPAVCRespawner@@@std@@@std@@QBEIXZ
_TEXT	SEGMENT
?max_size@?$allocator@U?$pair@$$CBHPAVCRespawner@@@std@@@std@@QBEIXZ PROC NEAR ; std::allocator<std::pair<int const ,CRespawner *> >::max_size, COMDAT
; _this$ = ecx

; 157  : 		_SIZT _Count = (_SIZT)(-1) / sizeof (_Ty);
; 158  : 		return (0 < _Count ? _Count : 1);

  00000	b8 ff ff ff 1f	 mov	 eax, 536870911		; 1fffffffH

; 159  : 		}

  00005	c3		 ret	 0
?max_size@?$allocator@U?$pair@$$CBHPAVCRespawner@@@std@@@std@@QBEIXZ ENDP ; std::allocator<std::pair<int const ,CRespawner *> >::max_size
_TEXT	ENDS
PUBLIC	??Gconst_iterator@?$vector@VCRespawnInfo@@V?$allocator@VCRespawnInfo@@@std@@@std@@QBEHABV012@@Z ; std::vector<CRespawnInfo,std::allocator<CRespawnInfo> >::const_iterator::operator-
; Function compile flags: /Ogty
; File c:\program files\microsoft visual studio .net 2003\vc7\include\vector
;	COMDAT ??Gconst_iterator@?$vector@VCRespawnInfo@@V?$allocator@VCRespawnInfo@@@std@@@std@@QBEHABV012@@Z
_TEXT	SEGMENT
__Right$ = 8						; size = 4
??Gconst_iterator@?$vector@VCRespawnInfo@@V?$allocator@VCRespawnInfo@@@std@@@std@@QBEHABV012@@Z PROC NEAR ; std::vector<CRespawnInfo,std::allocator<CRespawnInfo> >::const_iterator::operator-, COMDAT
; _this$ = ecx

; 141  : 
; 142  : 
; 143  : 			return (_Myptr - _Right._Myptr);

  00000	8b 44 24 04	 mov	 eax, DWORD PTR __Right$[esp-4]
  00004	8b 10		 mov	 edx, DWORD PTR [eax]
  00006	8b 09		 mov	 ecx, DWORD PTR [ecx]
  00008	2b ca		 sub	 ecx, edx
  0000a	b8 eb 5d f2 60	 mov	 eax, 1626496491		; 60f25debH
  0000f	f7 e9		 imul	 ecx
  00011	c1 fa 09	 sar	 edx, 9
  00014	8b c2		 mov	 eax, edx
  00016	c1 e8 1f	 shr	 eax, 31			; 0000001fH
  00019	03 c2		 add	 eax, edx

; 144  : 			}

  0001b	c2 04 00	 ret	 4
??Gconst_iterator@?$vector@VCRespawnInfo@@V?$allocator@VCRespawnInfo@@@std@@@std@@QBEHABV012@@Z ENDP ; std::vector<CRespawnInfo,std::allocator<CRespawnInfo> >::const_iterator::operator-
_TEXT	ENDS
PUBLIC	?_Dec@const_iterator@?$_Tree@V?$_Tmap_traits@HPAVCRespawner@@U?$less@H@std@@V?$allocator@U?$pair@$$CBHPAVCRespawner@@@std@@@3@$0A@@std@@@std@@QAEXXZ ; std::_Tree<std::_Tmap_traits<int,CRespawner *,std::less<int>,std::allocator<std::pair<int const ,CRespawner *> >,0> >::const_iterator::_Dec
; Function compile flags: /Ogty
; File c:\program files\microsoft visual studio .net 2003\vc7\include\xtree
;	COMDAT ?_Dec@const_iterator@?$_Tree@V?$_Tmap_traits@HPAVCRespawner@@U?$less@H@std@@V?$allocator@U?$pair@$$CBHPAVCRespawner@@@std@@@3@$0A@@std@@@std@@QAEXXZ
_TEXT	SEGMENT
?_Dec@const_iterator@?$_Tree@V?$_Tmap_traits@HPAVCRespawner@@U?$less@H@std@@V?$allocator@U?$pair@$$CBHPAVCRespawner@@@std@@@3@$0A@@std@@@std@@QAEXXZ PROC NEAR ; std::_Tree<std::_Tmap_traits<int,CRespawner *,std::less<int>,std::allocator<std::pair<int const ,CRespawner *> >,0> >::const_iterator::_Dec, COMDAT
; _this$ = ecx

; 251  : 			if (_Isnil(_Ptr))

  00000	8b 01		 mov	 eax, DWORD PTR [ecx]
  00002	8a 50 15	 mov	 dl, BYTE PTR [eax+21]
  00005	84 d2		 test	 dl, dl
  00007	74 06		 je	 SHORT $L229662

; 252  : 				_Ptr = _Right(_Ptr);	// end() ==> rightmost

  00009	8b 40 08	 mov	 eax, DWORD PTR [eax+8]
  0000c	89 01		 mov	 DWORD PTR [ecx], eax

; 263  : 				}
; 264  : 			}

  0000e	c3		 ret	 0
$L229662:

; 253  : 			else if (!_Isnil(_Left(_Ptr)))

  0000f	8b 10		 mov	 edx, DWORD PTR [eax]
  00011	53		 push	 ebx
  00012	8a 5a 15	 mov	 bl, BYTE PTR [edx+21]
  00015	84 db		 test	 bl, bl
  00017	75 1a		 jne	 SHORT $L231797

; 254  : 				_Ptr = _Max(_Left(_Ptr));	// ==> largest of left subtree

  00019	8b 42 08	 mov	 eax, DWORD PTR [edx+8]
  0001c	8a 58 15	 mov	 bl, BYTE PTR [eax+21]
  0001f	84 db		 test	 bl, bl
  00021	75 0c		 jne	 SHORT $L231782
$L231781:
  00023	8b d0		 mov	 edx, eax
  00025	8b 42 08	 mov	 eax, DWORD PTR [edx+8]
  00028	8a 58 15	 mov	 bl, BYTE PTR [eax+21]
  0002b	84 db		 test	 bl, bl
  0002d	74 f4		 je	 SHORT $L231781
$L231782:
  0002f	89 11		 mov	 DWORD PTR [ecx], edx
  00031	5b		 pop	 ebx

; 263  : 				}
; 264  : 			}

  00032	c3		 ret	 0
$L231797:

; 255  : 			else
; 256  : 				{	// climb looking for left subtree
; 257  : 				_Nodeptr _Pnode;
; 258  : 				while (!_Isnil(_Pnode = _Parent(_Ptr))
; 259  : 					&& _Ptr == _Left(_Pnode))

  00033	8b 40 04	 mov	 eax, DWORD PTR [eax+4]
  00036	8a 50 15	 mov	 dl, BYTE PTR [eax+21]
  00039	84 d2		 test	 dl, dl
  0003b	75 1e		 jne	 SHORT $L231800
  0003d	8d 49 00	 npad	 3
$L229668:
  00040	8b 11		 mov	 edx, DWORD PTR [ecx]
  00042	3b 10		 cmp	 edx, DWORD PTR [eax]
  00044	75 0c		 jne	 SHORT $L229669

; 260  : 					_Ptr = _Pnode;	// ==> parent while left subtree

  00046	89 01		 mov	 DWORD PTR [ecx], eax
  00048	8b 40 04	 mov	 eax, DWORD PTR [eax+4]
  0004b	8a 50 15	 mov	 dl, BYTE PTR [eax+21]
  0004e	84 d2		 test	 dl, dl
  00050	74 ee		 je	 SHORT $L229668
$L229669:

; 261  : 				if (!_Isnil(_Pnode))

  00052	8a 50 15	 mov	 dl, BYTE PTR [eax+21]
  00055	84 d2		 test	 dl, dl
  00057	75 02		 jne	 SHORT $L231800

; 262  : 					_Ptr = _Pnode;	// ==> parent if not head

  00059	89 01		 mov	 DWORD PTR [ecx], eax
$L231800:
  0005b	5b		 pop	 ebx

; 263  : 				}
; 264  : 			}

  0005c	c3		 ret	 0
?_Dec@const_iterator@?$_Tree@V?$_Tmap_traits@HPAVCRespawner@@U?$less@H@std@@V?$allocator@U?$pair@$$CBHPAVCRespawner@@@std@@@3@$0A@@std@@@std@@QAEXXZ ENDP ; std::_Tree<std::_Tmap_traits<int,CRespawner *,std::less<int>,std::allocator<std::pair<int const ,CRespawner *> >,0> >::const_iterator::_Dec
_TEXT	ENDS
PUBLIC	??0_Node@?$_Tree_nod@V?$_Tmap_traits@HPAVCRespawner@@U?$less@H@std@@V?$allocator@U?$pair@$$CBHPAVCRespawner@@@std@@@3@$0A@@std@@@std@@QAE@PAU012@00ABU?$pair@$$CBHPAVCRespawner@@@2@D@Z ; std::_Tree_nod<std::_Tmap_traits<int,CRespawner *,std::less<int>,std::allocator<std::pair<int const ,CRespawner *> >,0> >::_Node::_Node
; Function compile flags: /Ogty
;	COMDAT ??0_Node@?$_Tree_nod@V?$_Tmap_traits@HPAVCRespawner@@U?$less@H@std@@V?$allocator@U?$pair@$$CBHPAVCRespawner@@@std@@@3@$0A@@std@@@std@@QAE@PAU012@00ABU?$pair@$$CBHPAVCRespawner@@@2@D@Z
_TEXT	SEGMENT
__Larg$ = 8						; size = 4
__Parg$ = 12						; size = 4
__Rarg$ = 16						; size = 4
__Val$ = 20						; size = 4
__Carg$ = 24						; size = 1
??0_Node@?$_Tree_nod@V?$_Tmap_traits@HPAVCRespawner@@U?$less@H@std@@V?$allocator@U?$pair@$$CBHPAVCRespawner@@@std@@@3@$0A@@std@@@std@@QAE@PAU012@00ABU?$pair@$$CBHPAVCRespawner@@@2@D@Z PROC NEAR ; std::_Tree_nod<std::_Tmap_traits<int,CRespawner *,std::less<int>,std::allocator<std::pair<int const ,CRespawner *> >,0> >::_Node::_Node, COMDAT
; _this$ = ecx

; 40   : 			{	// construct a node with value

  00000	8b 54 24 08	 mov	 edx, DWORD PTR __Parg$[esp-4]
  00004	8b c1		 mov	 eax, ecx
  00006	8b 4c 24 04	 mov	 ecx, DWORD PTR __Larg$[esp-4]
  0000a	89 08		 mov	 DWORD PTR [eax], ecx
  0000c	8b 4c 24 0c	 mov	 ecx, DWORD PTR __Rarg$[esp-4]
  00010	89 48 08	 mov	 DWORD PTR [eax+8], ecx
  00013	8b 4c 24 10	 mov	 ecx, DWORD PTR __Val$[esp-4]
  00017	89 50 04	 mov	 DWORD PTR [eax+4], edx
  0001a	8b 11		 mov	 edx, DWORD PTR [ecx]
  0001c	89 50 0c	 mov	 DWORD PTR [eax+12], edx
  0001f	8b 49 04	 mov	 ecx, DWORD PTR [ecx+4]
  00022	8a 54 24 14	 mov	 dl, BYTE PTR __Carg$[esp-4]
  00026	89 48 10	 mov	 DWORD PTR [eax+16], ecx
  00029	88 50 14	 mov	 BYTE PTR [eax+20], dl
  0002c	c6 40 15 00	 mov	 BYTE PTR [eax+21], 0

; 41   : 			}

  00030	c2 14 00	 ret	 20			; 00000014H
??0_Node@?$_Tree_nod@V?$_Tmap_traits@HPAVCRespawner@@U?$less@H@std@@V?$allocator@U?$pair@$$CBHPAVCRespawner@@@std@@@3@$0A@@std@@@std@@QAE@PAU012@00ABU?$pair@$$CBHPAVCRespawner@@@2@D@Z ENDP ; std::_Tree_nod<std::_Tmap_traits<int,CRespawner *,std::less<int>,std::allocator<std::pair<int const ,CRespawner *> >,0> >::_Node::_Node
_TEXT	ENDS
PUBLIC	??0?$_Tmap_traits@HPAVCRespawner@@U?$less@H@std@@V?$allocator@U?$pair@$$CBHPAVCRespawner@@@std@@@3@$0A@@std@@QAE@U?$less@H@1@@Z ; std::_Tmap_traits<int,CRespawner *,std::less<int>,std::allocator<std::pair<int const ,CRespawner *> >,0>::_Tmap_traits<int,CRespawner *,std::less<int>,std::allocator<std::pair<int const ,CRespawner *> >,0>
; Function compile flags: /Ogty
; File c:\program files\microsoft visual studio .net 2003\vc7\include\map
;	COMDAT ??0?$_Tmap_traits@HPAVCRespawner@@U?$less@H@std@@V?$allocator@U?$pair@$$CBHPAVCRespawner@@@std@@@3@$0A@@std@@QAE@U?$less@H@1@@Z
_TEXT	SEGMENT
__Parg$ = 8						; size = 1
??0?$_Tmap_traits@HPAVCRespawner@@U?$less@H@std@@V?$allocator@U?$pair@$$CBHPAVCRespawner@@@std@@@3@$0A@@std@@QAE@U?$less@H@1@@Z PROC NEAR ; std::_Tmap_traits<int,CRespawner *,std::less<int>,std::allocator<std::pair<int const ,CRespawner *> >,0>::_Tmap_traits<int,CRespawner *,std::less<int>,std::allocator<std::pair<int const ,CRespawner *> >,0>, COMDAT
; _this$ = ecx

; 38   : 		{	// construct with specified comparator

  00000	8b c1		 mov	 eax, ecx

; 39   : 		}

  00002	c2 04 00	 ret	 4
??0?$_Tmap_traits@HPAVCRespawner@@U?$less@H@std@@V?$allocator@U?$pair@$$CBHPAVCRespawner@@@std@@@3@$0A@@std@@QAE@U?$less@H@1@@Z ENDP ; std::_Tmap_traits<int,CRespawner *,std::less<int>,std::allocator<std::pair<int const ,CRespawner *> >,0>::_Tmap_traits<int,CRespawner *,std::less<int>,std::allocator<std::pair<int const ,CRespawner *> >,0>
_TEXT	ENDS
PUBLIC	??$_Destroy@U_Node@?$_Tree_nod@V?$_Tmap_traits@HPAVCRespawner@@U?$less@H@std@@V?$allocator@U?$pair@$$CBHPAVCRespawner@@@std@@@3@$0A@@std@@@std@@@std@@YAXPAU_Node@?$_Tree_nod@V?$_Tmap_traits@HPAVCRespawner@@U?$less@H@std@@V?$allocator@U?$pair@$$CBHPAVCRespawner@@@std@@@3@$0A@@std@@@0@@Z ; std::_Destroy<std::_Tree_nod<std::_Tmap_traits<int,CRespawner *,std::less<int>,std::allocator<std::pair<int const ,CRespawner *> >,0> >::_Node>
; Function compile flags: /Ogty
; File c:\program files\microsoft visual studio .net 2003\vc7\include\xmemory
;	COMDAT ??$_Destroy@U_Node@?$_Tree_nod@V?$_Tmap_traits@HPAVCRespawner@@U?$less@H@std@@V?$allocator@U?$pair@$$CBHPAVCRespawner@@@std@@@3@$0A@@std@@@std@@@std@@YAXPAU_Node@?$_Tree_nod@V?$_Tmap_traits@HPAVCRespawner@@U?$less@H@std@@V?$allocator@U?$pair@$$CBHPAVCRespawner@@@std@@@3@$0A@@std@@@0@@Z
_TEXT	SEGMENT
__Ptr$ = 8						; size = 4
??$_Destroy@U_Node@?$_Tree_nod@V?$_Tmap_traits@HPAVCRespawner@@U?$less@H@std@@V?$allocator@U?$pair@$$CBHPAVCRespawner@@@std@@@3@$0A@@std@@@std@@@std@@YAXPAU_Node@?$_Tree_nod@V?$_Tmap_traits@HPAVCRespawner@@U?$less@H@std@@V?$allocator@U?$pair@$$CBHPAVCRespawner@@@std@@@3@$0A@@std@@@0@@Z PROC NEAR ; std::_Destroy<std::_Tree_nod<std::_Tmap_traits<int,CRespawner *,std::less<int>,std::allocator<std::pair<int const ,CRespawner *> >,0> >::_Node>, COMDAT

; 49   : 	_DESTRUCTOR(_Ty, _Ptr);
; 50   : 	}

  00000	c3		 ret	 0
??$_Destroy@U_Node@?$_Tree_nod@V?$_Tmap_traits@HPAVCRespawner@@U?$less@H@std@@V?$allocator@U?$pair@$$CBHPAVCRespawner@@@std@@@3@$0A@@std@@@std@@@std@@YAXPAU_Node@?$_Tree_nod@V?$_Tmap_traits@HPAVCRespawner@@U?$less@H@std@@V?$allocator@U?$pair@$$CBHPAVCRespawner@@@std@@@3@$0A@@std@@@0@@Z ENDP ; std::_Destroy<std::_Tree_nod<std::_Tmap_traits<int,CRespawner *,std::less<int>,std::allocator<std::pair<int const ,CRespawner *> >,0> >::_Node>
_TEXT	ENDS
PUBLIC	??$fill@PAVCRespawnInfo@@V1@@std@@YAXPAVCRespawnInfo@@0ABV1@@Z ; std::fill<CRespawnInfo *,CRespawnInfo>
; Function compile flags: /Ogty
; File c:\program files\microsoft visual studio .net 2003\vc7\include\xutility
;	COMDAT ??$fill@PAVCRespawnInfo@@V1@@std@@YAXPAVCRespawnInfo@@0ABV1@@Z
_TEXT	SEGMENT
__First$ = 8						; size = 4
__Last$ = 12						; size = 4
__Val$ = 16						; size = 4
??$fill@PAVCRespawnInfo@@V1@@std@@YAXPAVCRespawnInfo@@0ABV1@@Z PROC NEAR ; std::fill<CRespawnInfo *,CRespawnInfo>, COMDAT

; 1134 : 	{	// copy _Val through [_First, _Last)

  00000	56		 push	 esi

; 1135 : 	for (; _First != _Last; ++_First)

  00001	8b 74 24 08	 mov	 esi, DWORD PTR __First$[esp]
  00005	57		 push	 edi
  00006	8b 7c 24 10	 mov	 edi, DWORD PTR __Last$[esp+4]
  0000a	3b f7		 cmp	 esi, edi
  0000c	74 18		 je	 SHORT $L230145
  0000e	53		 push	 ebx
  0000f	8b 5c 24 18	 mov	 ebx, DWORD PTR __Val$[esp+8]
$L230143:

; 1136 : 		*_First = _Val;

  00013	53		 push	 ebx
  00014	8b ce		 mov	 ecx, esi
  00016	e8 00 00 00 00	 call	 ??4CRespawnInfo@@QAEAAV0@ABV0@@Z ; CRespawnInfo::operator=
  0001b	81 c6 48 05 00
	00		 add	 esi, 1352		; 00000548H
  00021	3b f7		 cmp	 esi, edi
  00023	75 ee		 jne	 SHORT $L230143
  00025	5b		 pop	 ebx
$L230145:
  00026	5f		 pop	 edi
  00027	5e		 pop	 esi

; 1137 : 	}

  00028	c3		 ret	 0
??$fill@PAVCRespawnInfo@@V1@@std@@YAXPAVCRespawnInfo@@0ABV1@@Z ENDP ; std::fill<CRespawnInfo *,CRespawnInfo>
_TEXT	ENDS
PUBLIC	??$_Allocate@VCRespawnInfo@@@std@@YAPAVCRespawnInfo@@IPAV1@@Z ; std::_Allocate<CRespawnInfo>
EXTRN	??2@YAPAXI@Z:NEAR				; operator new
; Function compile flags: /Ogty
; File c:\program files\microsoft visual studio .net 2003\vc7\include\xmemory
;	COMDAT ??$_Allocate@VCRespawnInfo@@@std@@YAPAVCRespawnInfo@@IPAV1@@Z
_TEXT	SEGMENT
__Count$ = 8						; size = 4
___formal$ = 12						; size = 4
??$_Allocate@VCRespawnInfo@@@std@@YAPAVCRespawnInfo@@IPAV1@@Z PROC NEAR ; std::_Allocate<CRespawnInfo>, COMDAT

; 34   : 	return ((_Ty _FARQ *)operator new(_Count * sizeof (_Ty)));

  00000	8b 44 24 04	 mov	 eax, DWORD PTR __Count$[esp-4]
  00004	69 c0 48 05 00
	00		 imul	 eax, 1352		; 00000548H
  0000a	50		 push	 eax
  0000b	e8 00 00 00 00	 call	 ??2@YAPAXI@Z		; operator new
  00010	83 c4 04	 add	 esp, 4

; 35   : 	}

  00013	c3		 ret	 0
??$_Allocate@VCRespawnInfo@@@std@@YAPAVCRespawnInfo@@IPAV1@@Z ENDP ; std::_Allocate<CRespawnInfo>
_TEXT	ENDS
PUBLIC	??$_Destroy@PAU_Node@?$_Tree_nod@V?$_Tmap_traits@HPAVCRespawner@@U?$less@H@std@@V?$allocator@U?$pair@$$CBHPAVCRespawner@@@std@@@3@$0A@@std@@@std@@@std@@YAXPAPAU_Node@?$_Tree_nod@V?$_Tmap_traits@HPAVCRespawner@@U?$less@H@std@@V?$allocator@U?$pair@$$CBHPAVCRespawner@@@std@@@3@$0A@@std@@@0@@Z ; std::_Destroy<std::_Tree_nod<std::_Tmap_traits<int,CRespawner *,std::less<int>,std::allocator<std::pair<int const ,CRespawner *> >,0> >::_Node *>
; Function compile flags: /Ogty
;	COMDAT ??$_Destroy@PAU_Node@?$_Tree_nod@V?$_Tmap_traits@HPAVCRespawner@@U?$less@H@std@@V?$allocator@U?$pair@$$CBHPAVCRespawner@@@std@@@3@$0A@@std@@@std@@@std@@YAXPAPAU_Node@?$_Tree_nod@V?$_Tmap_traits@HPAVCRespawner@@U?$less@H@std@@V?$allocator@U?$pair@$$CBHPAVCRespawner@@@std@@@3@$0A@@std@@@0@@Z
_TEXT	SEGMENT
__Ptr$ = 8						; size = 4
??$_Destroy@PAU_Node@?$_Tree_nod@V?$_Tmap_traits@HPAVCRespawner@@U?$less@H@std@@V?$allocator@U?$pair@$$CBHPAVCRespawner@@@std@@@3@$0A@@std@@@std@@@std@@YAXPAPAU_Node@?$_Tree_nod@V?$_Tmap_traits@HPAVCRespawner@@U?$less@H@std@@V?$allocator@U?$pair@$$CBHPAVCRespawner@@@std@@@3@$0A@@std@@@0@@Z PROC NEAR ; std::_Destroy<std::_Tree_nod<std::_Tmap_traits<int,CRespawner *,std::less<int>,std::allocator<std::pair<int const ,CRespawner *> >,0> >::_Node *>, COMDAT

; 49   : 	_DESTRUCTOR(_Ty, _Ptr);
; 50   : 	}

  00000	c3		 ret	 0
??$_Destroy@PAU_Node@?$_Tree_nod@V?$_Tmap_traits@HPAVCRespawner@@U?$less@H@std@@V?$allocator@U?$pair@$$CBHPAVCRespawner@@@std@@@3@$0A@@std@@@std@@@std@@YAXPAPAU_Node@?$_Tree_nod@V?$_Tmap_traits@HPAVCRespawner@@U?$less@H@std@@V?$allocator@U?$pair@$$CBHPAVCRespawner@@@std@@@3@$0A@@std@@@0@@Z ENDP ; std::_Destroy<std::_Tree_nod<std::_Tmap_traits<int,CRespawner *,std::less<int>,std::allocator<std::pair<int const ,CRespawner *> >,0> >::_Node *>
_TEXT	ENDS
PUBLIC	??$?0U?$pair@$$CBHPAVCRespawner@@@std@@@?$allocator@PAU_Node@?$_Tree_nod@V?$_Tmap_traits@HPAVCRespawner@@U?$less@H@std@@V?$allocator@U?$pair@$$CBHPAVCRespawner@@@std@@@3@$0A@@std@@@std@@@std@@QAE@ABV?$allocator@U?$pair@$$CBHPAVCRespawner@@@std@@@1@@Z ; std::allocator<std::_Tree_nod<std::_Tmap_traits<int,CRespawner *,std::less<int>,std::allocator<std::pair<int const ,CRespawner *> >,0> >::_Node *>::allocator<std::_Tree_nod<std::_Tmap_traits<int,CRespawner *,std::less<int>,std::allocator<std::pair<int const ,CRespawner *> >,0> >::_Node *><std::pair<int const ,CRespawner *> >
; Function compile flags: /Ogty
;	COMDAT ??$?0U?$pair@$$CBHPAVCRespawner@@@std@@@?$allocator@PAU_Node@?$_Tree_nod@V?$_Tmap_traits@HPAVCRespawner@@U?$less@H@std@@V?$allocator@U?$pair@$$CBHPAVCRespawner@@@std@@@3@$0A@@std@@@std@@@std@@QAE@ABV?$allocator@U?$pair@$$CBHPAVCRespawner@@@std@@@1@@Z
_TEXT	SEGMENT
___formal$ = 8						; size = 4
??$?0U?$pair@$$CBHPAVCRespawner@@@std@@@?$allocator@PAU_Node@?$_Tree_nod@V?$_Tmap_traits@HPAVCRespawner@@U?$less@H@std@@V?$allocator@U?$pair@$$CBHPAVCRespawner@@@std@@@3@$0A@@std@@@std@@@std@@QAE@ABV?$allocator@U?$pair@$$CBHPAVCRespawner@@@std@@@1@@Z PROC NEAR ; std::allocator<std::_Tree_nod<std::_Tmap_traits<int,CRespawner *,std::less<int>,std::allocator<std::pair<int const ,CRespawner *> >,0> >::_Node *>::allocator<std::_Tree_nod<std::_Tmap_traits<int,CRespawner *,std::less<int>,std::allocator<std::pair<int const ,CRespawner *> >,0> >::_Node *><std::pair<int const ,CRespawner *> >, COMDAT
; _this$ = ecx

; 120  : 		allocator(const allocator<_Other>&)

  00000	8b c1		 mov	 eax, ecx

; 121  : 		{	// construct from a related allocator (do nothing)
; 122  : 		}

  00002	c2 04 00	 ret	 4
??$?0U?$pair@$$CBHPAVCRespawner@@@std@@@?$allocator@PAU_Node@?$_Tree_nod@V?$_Tmap_traits@HPAVCRespawner@@U?$less@H@std@@V?$allocator@U?$pair@$$CBHPAVCRespawner@@@std@@@3@$0A@@std@@@std@@@std@@QAE@ABV?$allocator@U?$pair@$$CBHPAVCRespawner@@@std@@@1@@Z ENDP ; std::allocator<std::_Tree_nod<std::_Tmap_traits<int,CRespawner *,std::less<int>,std::allocator<std::pair<int const ,CRespawner *> >,0> >::_Node *>::allocator<std::_Tree_nod<std::_Tmap_traits<int,CRespawner *,std::less<int>,std::allocator<std::pair<int const ,CRespawner *> >,0> >::_Node *><std::pair<int const ,CRespawner *> >
_TEXT	ENDS
PUBLIC	??$_Allocate@U_Node@?$_Tree_nod@V?$_Tmap_traits@HPAVCRespawner@@U?$less@H@std@@V?$allocator@U?$pair@$$CBHPAVCRespawner@@@std@@@3@$0A@@std@@@std@@@std@@YAPAU_Node@?$_Tree_nod@V?$_Tmap_traits@HPAVCRespawner@@U?$less@H@std@@V?$allocator@U?$pair@$$CBHPAVCRespawner@@@std@@@3@$0A@@std@@@0@IPAU120@@Z ; std::_Allocate<std::_Tree_nod<std::_Tmap_traits<int,CRespawner *,std::less<int>,std::allocator<std::pair<int const ,CRespawner *> >,0> >::_Node>
; Function compile flags: /Ogty
;	COMDAT ??$_Allocate@U_Node@?$_Tree_nod@V?$_Tmap_traits@HPAVCRespawner@@U?$less@H@std@@V?$allocator@U?$pair@$$CBHPAVCRespawner@@@std@@@3@$0A@@std@@@std@@@std@@YAPAU_Node@?$_Tree_nod@V?$_Tmap_traits@HPAVCRespawner@@U?$less@H@std@@V?$allocator@U?$pair@$$CBHPAVCRespawner@@@std@@@3@$0A@@std@@@0@IPAU120@@Z
_TEXT	SEGMENT
__Count$ = 8						; size = 4
___formal$ = 12						; size = 4
??$_Allocate@U_Node@?$_Tree_nod@V?$_Tmap_traits@HPAVCRespawner@@U?$less@H@std@@V?$allocator@U?$pair@$$CBHPAVCRespawner@@@std@@@3@$0A@@std@@@std@@@std@@YAPAU_Node@?$_Tree_nod@V?$_Tmap_traits@HPAVCRespawner@@U?$less@H@std@@V?$allocator@U?$pair@$$CBHPAVCRespawner@@@std@@@3@$0A@@std@@@0@IPAU120@@Z PROC NEAR ; std::_Allocate<std::_Tree_nod<std::_Tmap_traits<int,CRespawner *,std::less<int>,std::allocator<std::pair<int const ,CRespawner *> >,0> >::_Node>, COMDAT

; 34   : 	return ((_Ty _FARQ *)operator new(_Count * sizeof (_Ty)));

  00000	8b 44 24 04	 mov	 eax, DWORD PTR __Count$[esp-4]
  00004	8d 04 40	 lea	 eax, DWORD PTR [eax+eax*2]
  00007	c1 e0 03	 shl	 eax, 3
  0000a	50		 push	 eax
  0000b	e8 00 00 00 00	 call	 ??2@YAPAXI@Z		; operator new
  00010	83 c4 04	 add	 esp, 4

; 35   : 	}

  00013	c3		 ret	 0
??$_Allocate@U_Node@?$_Tree_nod@V?$_Tmap_traits@HPAVCRespawner@@U?$less@H@std@@V?$allocator@U?$pair@$$CBHPAVCRespawner@@@std@@@3@$0A@@std@@@std@@@std@@YAPAU_Node@?$_Tree_nod@V?$_Tmap_traits@HPAVCRespawner@@U?$less@H@std@@V?$allocator@U?$pair@$$CBHPAVCRespawner@@@std@@@3@$0A@@std@@@0@IPAU120@@Z ENDP ; std::_Allocate<std::_Tree_nod<std::_Tmap_traits<int,CRespawner *,std::less<int>,std::allocator<std::pair<int const ,CRespawner *> >,0> >::_Node>
_TEXT	ENDS
PUBLIC	??$?0U?$pair@$$CBHPAVCRespawner@@@std@@@?$allocator@U_Node@?$_Tree_nod@V?$_Tmap_traits@HPAVCRespawner@@U?$less@H@std@@V?$allocator@U?$pair@$$CBHPAVCRespawner@@@std@@@3@$0A@@std@@@std@@@std@@QAE@ABV?$allocator@U?$pair@$$CBHPAVCRespawner@@@std@@@1@@Z ; std::allocator<std::_Tree_nod<std::_Tmap_traits<int,CRespawner *,std::less<int>,std::allocator<std::pair<int const ,CRespawner *> >,0> >::_Node>::allocator<std::_Tree_nod<std::_Tmap_traits<int,CRespawner *,std::less<int>,std::allocator<std::pair<int const ,CRespawner *> >,0> >::_Node><std::pair<int const ,CRespawner *> >
; Function compile flags: /Ogty
;	COMDAT ??$?0U?$pair@$$CBHPAVCRespawner@@@std@@@?$allocator@U_Node@?$_Tree_nod@V?$_Tmap_traits@HPAVCRespawner@@U?$less@H@std@@V?$allocator@U?$pair@$$CBHPAVCRespawner@@@std@@@3@$0A@@std@@@std@@@std@@QAE@ABV?$allocator@U?$pair@$$CBHPAVCRespawner@@@std@@@1@@Z
_TEXT	SEGMENT
___formal$ = 8						; size = 4
??$?0U?$pair@$$CBHPAVCRespawner@@@std@@@?$allocator@U_Node@?$_Tree_nod@V?$_Tmap_traits@HPAVCRespawner@@U?$less@H@std@@V?$allocator@U?$pair@$$CBHPAVCRespawner@@@std@@@3@$0A@@std@@@std@@@std@@QAE@ABV?$allocator@U?$pair@$$CBHPAVCRespawner@@@std@@@1@@Z PROC NEAR ; std::allocator<std::_Tree_nod<std::_Tmap_traits<int,CRespawner *,std::less<int>,std::allocator<std::pair<int const ,CRespawner *> >,0> >::_Node>::allocator<std::_Tree_nod<std::_Tmap_traits<int,CRespawner *,std::less<int>,std::allocator<std::pair<int const ,CRespawner *> >,0> >::_Node><std::pair<int const ,CRespawner *> >, COMDAT
; _this$ = ecx

; 120  : 		allocator(const allocator<_Other>&)

  00000	8b c1		 mov	 eax, ecx

; 121  : 		{	// construct from a related allocator (do nothing)
; 122  : 		}

  00002	c2 04 00	 ret	 4
??$?0U?$pair@$$CBHPAVCRespawner@@@std@@@?$allocator@U_Node@?$_Tree_nod@V?$_Tmap_traits@HPAVCRespawner@@U?$less@H@std@@V?$allocator@U?$pair@$$CBHPAVCRespawner@@@std@@@3@$0A@@std@@@std@@@std@@QAE@ABV?$allocator@U?$pair@$$CBHPAVCRespawner@@@std@@@1@@Z ENDP ; std::allocator<std::_Tree_nod<std::_Tmap_traits<int,CRespawner *,std::less<int>,std::allocator<std::pair<int const ,CRespawner *> >,0> >::_Node>::allocator<std::_Tree_nod<std::_Tmap_traits<int,CRespawner *,std::less<int>,std::allocator<std::pair<int const ,CRespawner *> >,0> >::_Node><std::pair<int const ,CRespawner *> >
_TEXT	ENDS
PUBLIC	??$_Construct@PAU_Node@?$_Tree_nod@V?$_Tmap_traits@HPAVCRespawner@@U?$less@H@std@@V?$allocator@U?$pair@$$CBHPAVCRespawner@@@std@@@3@$0A@@std@@@std@@PAU123@@std@@YAXPAPAU_Node@?$_Tree_nod@V?$_Tmap_traits@HPAVCRespawner@@U?$less@H@std@@V?$allocator@U?$pair@$$CBHPAVCRespawner@@@std@@@3@$0A@@std@@@0@ABQAU120@@Z ; std::_Construct<std::_Tree_nod<std::_Tmap_traits<int,CRespawner *,std::less<int>,std::allocator<std::pair<int const ,CRespawner *> >,0> >::_Node *,std::_Tree_nod<std::_Tmap_traits<int,CRespawner *,std::less<int>,std::allocator<std::pair<int const ,CRespawner *> >,0> >::_Node *>
; Function compile flags: /Ogty
;	COMDAT ??$_Construct@PAU_Node@?$_Tree_nod@V?$_Tmap_traits@HPAVCRespawner@@U?$less@H@std@@V?$allocator@U?$pair@$$CBHPAVCRespawner@@@std@@@3@$0A@@std@@@std@@PAU123@@std@@YAXPAPAU_Node@?$_Tree_nod@V?$_Tmap_traits@HPAVCRespawner@@U?$less@H@std@@V?$allocator@U?$pair@$$CBHPAVCRespawner@@@std@@@3@$0A@@std@@@0@ABQAU120@@Z
_TEXT	SEGMENT
__Ptr$ = 8						; size = 4
__Val$ = 12						; size = 4
??$_Construct@PAU_Node@?$_Tree_nod@V?$_Tmap_traits@HPAVCRespawner@@U?$less@H@std@@V?$allocator@U?$pair@$$CBHPAVCRespawner@@@std@@@3@$0A@@std@@@std@@PAU123@@std@@YAXPAPAU_Node@?$_Tree_nod@V?$_Tmap_traits@HPAVCRespawner@@U?$less@H@std@@V?$allocator@U?$pair@$$CBHPAVCRespawner@@@std@@@3@$0A@@std@@@0@ABQAU120@@Z PROC NEAR ; std::_Construct<std::_Tree_nod<std::_Tmap_traits<int,CRespawner *,std::less<int>,std::allocator<std::pair<int const ,CRespawner *> >,0> >::_Node *,std::_Tree_nod<std::_Tmap_traits<int,CRespawner *,std::less<int>,std::allocator<std::pair<int const ,CRespawner *> >,0> >::_Node *>, COMDAT

; 42   : 	new ((void _FARQ *)_Ptr) _T1(_Val);

  00000	8b 44 24 04	 mov	 eax, DWORD PTR __Ptr$[esp-4]
  00004	85 c0		 test	 eax, eax
  00006	74 08		 je	 SHORT $L231835
  00008	8b 4c 24 08	 mov	 ecx, DWORD PTR __Val$[esp-4]
  0000c	8b 11		 mov	 edx, DWORD PTR [ecx]
  0000e	89 10		 mov	 DWORD PTR [eax], edx
$L231835:

; 43   : 	}

  00010	c3		 ret	 0
??$_Construct@PAU_Node@?$_Tree_nod@V?$_Tmap_traits@HPAVCRespawner@@U?$less@H@std@@V?$allocator@U?$pair@$$CBHPAVCRespawner@@@std@@@3@$0A@@std@@@std@@PAU123@@std@@YAXPAPAU_Node@?$_Tree_nod@V?$_Tmap_traits@HPAVCRespawner@@U?$less@H@std@@V?$allocator@U?$pair@$$CBHPAVCRespawner@@@std@@@3@$0A@@std@@@0@ABQAU120@@Z ENDP ; std::_Construct<std::_Tree_nod<std::_Tmap_traits<int,CRespawner *,std::less<int>,std::allocator<std::pair<int const ,CRespawner *> >,0> >::_Node *,std::_Tree_nod<std::_Tmap_traits<int,CRespawner *,std::less<int>,std::allocator<std::pair<int const ,CRespawner *> >,0> >::_Node *>
_TEXT	ENDS
PUBLIC	??$_Iter_cat@Vconst_iterator@?$vector@VCRespawnInfo@@V?$allocator@VCRespawnInfo@@@std@@@std@@@std@@YA?AUrandom_access_iterator_tag@0@ABVconst_iterator@?$vector@VCRespawnInfo@@V?$allocator@VCRespawnInfo@@@std@@@0@@Z ; std::_Iter_cat<std::vector<CRespawnInfo,std::allocator<CRespawnInfo> >::const_iterator>
; Function compile flags: /Ogty
; File c:\program files\microsoft visual studio .net 2003\vc7\include\xutility
;	COMDAT ??$_Iter_cat@Vconst_iterator@?$vector@VCRespawnInfo@@V?$allocator@VCRespawnInfo@@@std@@@std@@@std@@YA?AUrandom_access_iterator_tag@0@ABVconst_iterator@?$vector@VCRespawnInfo@@V?$allocator@VCRespawnInfo@@@std@@@0@@Z
_TEXT	SEGMENT
___$ReturnUdt$ = 8					; size = 4
___formal$ = 12						; size = 4
??$_Iter_cat@Vconst_iterator@?$vector@VCRespawnInfo@@V?$allocator@VCRespawnInfo@@@std@@@std@@@std@@YA?AUrandom_access_iterator_tag@0@ABVconst_iterator@?$vector@VCRespawnInfo@@V?$allocator@VCRespawnInfo@@@std@@@0@@Z PROC NEAR ; std::_Iter_cat<std::vector<CRespawnInfo,std::allocator<CRespawnInfo> >::const_iterator>, COMDAT

; 202  : 	typename iterator_traits<_Iter>::iterator_category _Cat;
; 203  : 	return (_Cat);

  00000	8b 44 24 04	 mov	 eax, DWORD PTR ___$ReturnUdt$[esp-4]

; 204  : 	}

  00004	c3		 ret	 0
??$_Iter_cat@Vconst_iterator@?$vector@VCRespawnInfo@@V?$allocator@VCRespawnInfo@@@std@@@std@@@std@@YA?AUrandom_access_iterator_tag@0@ABVconst_iterator@?$vector@VCRespawnInfo@@V?$allocator@VCRespawnInfo@@@std@@@0@@Z ENDP ; std::_Iter_cat<std::vector<CRespawnInfo,std::allocator<CRespawnInfo> >::const_iterator>
_TEXT	ENDS
PUBLIC	??$_Ptr_cat@PAVCRespawnInfo@@PAV1@@std@@YA?AU_Nonscalar_ptr_iterator_tag@0@AAPAVCRespawnInfo@@0@Z ; std::_Ptr_cat<CRespawnInfo *,CRespawnInfo *>
; Function compile flags: /Ogty
;	COMDAT ??$_Ptr_cat@PAVCRespawnInfo@@PAV1@@std@@YA?AU_Nonscalar_ptr_iterator_tag@0@AAPAVCRespawnInfo@@0@Z
_TEXT	SEGMENT
__Cat$ = -1						; size = 1
___formal$ = 8						; size = 4
___formal$ = 12						; size = 4
??$_Ptr_cat@PAVCRespawnInfo@@PAV1@@std@@YA?AU_Nonscalar_ptr_iterator_tag@0@AAPAVCRespawnInfo@@0@Z PROC NEAR ; std::_Ptr_cat<CRespawnInfo *,CRespawnInfo *>, COMDAT

; 211  : 	{	// return pointer category from arbitrary arguments

  00000	51		 push	 ecx

; 212  : 	_Nonscalar_ptr_iterator_tag _Cat;
; 213  : 	return (_Cat);

  00001	8a 44 24 03	 mov	 al, BYTE PTR __Cat$[esp+4]

; 214  : 	}

  00005	59		 pop	 ecx
  00006	c3		 ret	 0
??$_Ptr_cat@PAVCRespawnInfo@@PAV1@@std@@YA?AU_Nonscalar_ptr_iterator_tag@0@AAPAVCRespawnInfo@@0@Z ENDP ; std::_Ptr_cat<CRespawnInfo *,CRespawnInfo *>
_TEXT	ENDS
PUBLIC	??$_Copy_opt@PAVCRespawnInfo@@PAV1@@std@@YAPAVCRespawnInfo@@PAV1@00U_Nonscalar_ptr_iterator_tag@0@@Z ; std::_Copy_opt<CRespawnInfo *,CRespawnInfo *>
; Function compile flags: /Ogty
;	COMDAT ??$_Copy_opt@PAVCRespawnInfo@@PAV1@@std@@YAPAVCRespawnInfo@@PAV1@00U_Nonscalar_ptr_iterator_tag@0@@Z
_TEXT	SEGMENT
__First$ = 8						; size = 4
__Last$ = 12						; size = 4
__Dest$ = 16						; size = 4
___formal$ = 20						; size = 1
??$_Copy_opt@PAVCRespawnInfo@@PAV1@@std@@YAPAVCRespawnInfo@@PAV1@00U_Nonscalar_ptr_iterator_tag@0@@Z PROC NEAR ; std::_Copy_opt<CRespawnInfo *,CRespawnInfo *>, COMDAT

; 1020 : 	{	// copy [_First, _Last) to [_Dest, ...), arbitrary iterators

  00000	53		 push	 ebx

; 1021 : 	for (; _First != _Last; ++_Dest, ++_First)

  00001	8b 5c 24 0c	 mov	 ebx, DWORD PTR __Last$[esp]
  00005	56		 push	 esi
  00006	8b 74 24 0c	 mov	 esi, DWORD PTR __First$[esp+4]
  0000a	3b f3		 cmp	 esi, ebx
  0000c	74 23		 je	 SHORT $L231851
  0000e	57		 push	 edi
  0000f	8b 7c 24 18	 mov	 edi, DWORD PTR __Dest$[esp+8]
$L230330:

; 1022 : 		*_Dest = *_First;

  00013	56		 push	 esi
  00014	8b cf		 mov	 ecx, edi
  00016	e8 00 00 00 00	 call	 ??4CRespawnInfo@@QAEAAV0@ABV0@@Z ; CRespawnInfo::operator=
  0001b	81 c6 48 05 00
	00		 add	 esi, 1352		; 00000548H
  00021	81 c7 48 05 00
	00		 add	 edi, 1352		; 00000548H
  00027	3b f3		 cmp	 esi, ebx
  00029	75 e8		 jne	 SHORT $L230330

; 1023 : 	return (_Dest);

  0002b	8b c7		 mov	 eax, edi
  0002d	5f		 pop	 edi
  0002e	5e		 pop	 esi
  0002f	5b		 pop	 ebx

; 1024 : 	}

  00030	c3		 ret	 0
$L231851:

; 1023 : 	return (_Dest);

  00031	8b 44 24 14	 mov	 eax, DWORD PTR __Dest$[esp+4]
  00035	5e		 pop	 esi
  00036	5b		 pop	 ebx

; 1024 : 	}

  00037	c3		 ret	 0
??$_Copy_opt@PAVCRespawnInfo@@PAV1@@std@@YAPAVCRespawnInfo@@PAV1@00U_Nonscalar_ptr_iterator_tag@0@@Z ENDP ; std::_Copy_opt<CRespawnInfo *,CRespawnInfo *>
_TEXT	ENDS
PUBLIC	??$_Copy_backward_opt@PAVCRespawnInfo@@PAV1@@std@@YAPAVCRespawnInfo@@PAV1@00U_Nonscalar_ptr_iterator_tag@0@@Z ; std::_Copy_backward_opt<CRespawnInfo *,CRespawnInfo *>
; Function compile flags: /Ogty
;	COMDAT ??$_Copy_backward_opt@PAVCRespawnInfo@@PAV1@@std@@YAPAVCRespawnInfo@@PAV1@00U_Nonscalar_ptr_iterator_tag@0@@Z
_TEXT	SEGMENT
__First$ = 8						; size = 4
__Last$ = 12						; size = 4
__Dest$ = 16						; size = 4
___formal$ = 20						; size = 1
??$_Copy_backward_opt@PAVCRespawnInfo@@PAV1@@std@@YAPAVCRespawnInfo@@PAV1@00U_Nonscalar_ptr_iterator_tag@0@@Z PROC NEAR ; std::_Copy_backward_opt<CRespawnInfo *,CRespawnInfo *>, COMDAT

; 1048 : 	{	// copy [_First, _Last) backwards to [..., _Dest), arbitrary iterators

  00000	53		 push	 ebx

; 1049 : 	while (_First != _Last)

  00001	8b 5c 24 08	 mov	 ebx, DWORD PTR __First$[esp]
  00005	56		 push	 esi
  00006	8b 74 24 10	 mov	 esi, DWORD PTR __Last$[esp+4]
  0000a	3b de		 cmp	 ebx, esi
  0000c	74 23		 je	 SHORT $L231857
  0000e	57		 push	 edi
  0000f	8b 7c 24 18	 mov	 edi, DWORD PTR __Dest$[esp+8]
$L230388:

; 1050 : 		*--_Dest = *--_Last;

  00013	81 ee 48 05 00
	00		 sub	 esi, 1352		; 00000548H
  00019	81 ef 48 05 00
	00		 sub	 edi, 1352		; 00000548H
  0001f	56		 push	 esi
  00020	8b cf		 mov	 ecx, edi
  00022	e8 00 00 00 00	 call	 ??4CRespawnInfo@@QAEAAV0@ABV0@@Z ; CRespawnInfo::operator=
  00027	3b f3		 cmp	 esi, ebx
  00029	75 e8		 jne	 SHORT $L230388

; 1051 : 	return (_Dest);

  0002b	8b c7		 mov	 eax, edi
  0002d	5f		 pop	 edi
  0002e	5e		 pop	 esi
  0002f	5b		 pop	 ebx

; 1052 : 	}

  00030	c3		 ret	 0
$L231857:

; 1051 : 	return (_Dest);

  00031	8b 44 24 14	 mov	 eax, DWORD PTR __Dest$[esp+4]
  00035	5e		 pop	 esi
  00036	5b		 pop	 ebx

; 1052 : 	}

  00037	c3		 ret	 0
??$_Copy_backward_opt@PAVCRespawnInfo@@PAV1@@std@@YAPAVCRespawnInfo@@PAV1@00U_Nonscalar_ptr_iterator_tag@0@@Z ENDP ; std::_Copy_backward_opt<CRespawnInfo *,CRespawnInfo *>
_TEXT	ENDS
PUBLIC	??0CRect@@QAE@XZ				; CRect::CRect
; Function compile flags: /Ogty
; File c:\program files\microsoft visual studio .net 2003\vc7\atlmfc\include\atltypes.inl
;	COMDAT ??0CRect@@QAE@XZ
_TEXT	SEGMENT
??0CRect@@QAE@XZ PROC NEAR				; CRect::CRect, COMDAT
; _this$ = ecx

; 110  : 	{ /* random filled */ }

  00000	8b c1		 mov	 eax, ecx
  00002	c3		 ret	 0
??0CRect@@QAE@XZ ENDP					; CRect::CRect
_TEXT	ENDS
PUBLIC	??$_Destroy@VCRespawnInfo@@@std@@YAXPAVCRespawnInfo@@@Z ; std::_Destroy<CRespawnInfo>
; Function compile flags: /Ogty
; File c:\program files\microsoft visual studio .net 2003\vc7\include\xmemory
;	COMDAT ??$_Destroy@VCRespawnInfo@@@std@@YAXPAVCRespawnInfo@@@Z
_TEXT	SEGMENT
__Ptr$ = 8						; size = 4
??$_Destroy@VCRespawnInfo@@@std@@YAXPAVCRespawnInfo@@@Z PROC NEAR ; std::_Destroy<CRespawnInfo>, COMDAT

; 49   : 	_DESTRUCTOR(_Ty, _Ptr);

  00000	8b 4c 24 04	 mov	 ecx, DWORD PTR __Ptr$[esp-4]
  00004	8b 01		 mov	 eax, DWORD PTR [ecx]
  00006	6a 00		 push	 0
  00008	ff 10		 call	 DWORD PTR [eax]

; 50   : 	}

  0000a	c3		 ret	 0
??$_Destroy@VCRespawnInfo@@@std@@YAXPAVCRespawnInfo@@@Z ENDP ; std::_Destroy<CRespawnInfo>
_TEXT	ENDS
PUBLIC	??$_Distance2@Vconst_iterator@?$vector@VCRespawnInfo@@V?$allocator@VCRespawnInfo@@@std@@@std@@I@std@@YAXVconst_iterator@?$vector@VCRespawnInfo@@V?$allocator@VCRespawnInfo@@@std@@@0@0AAIUrandom_access_iterator_tag@0@@Z ; std::_Distance2<std::vector<CRespawnInfo,std::allocator<CRespawnInfo> >::const_iterator,unsigned int>
; Function compile flags: /Ogty
; File c:\program files\microsoft visual studio .net 2003\vc7\include\xutility
;	COMDAT ??$_Distance2@Vconst_iterator@?$vector@VCRespawnInfo@@V?$allocator@VCRespawnInfo@@@std@@@std@@I@std@@YAXVconst_iterator@?$vector@VCRespawnInfo@@V?$allocator@VCRespawnInfo@@@std@@@0@0AAIUrandom_access_iterator_tag@0@@Z
_TEXT	SEGMENT
__First$ = 8						; size = 4
__Last$ = 12						; size = 4
__Off$ = 16						; size = 4
___formal$ = 20						; size = 1
??$_Distance2@Vconst_iterator@?$vector@VCRespawnInfo@@V?$allocator@VCRespawnInfo@@@std@@@std@@I@std@@YAXVconst_iterator@?$vector@VCRespawnInfo@@V?$allocator@VCRespawnInfo@@@std@@@0@0AAIUrandom_access_iterator_tag@0@@Z PROC NEAR ; std::_Distance2<std::vector<CRespawnInfo,std::allocator<CRespawnInfo> >::const_iterator,unsigned int>, COMDAT

; 479  : 
; 480  : 
; 481  : 	_Off += _Last - _First;

  00000	8b 54 24 04	 mov	 edx, DWORD PTR __First$[esp-4]
  00004	8b 4c 24 08	 mov	 ecx, DWORD PTR __Last$[esp-4]
  00008	2b ca		 sub	 ecx, edx
  0000a	b8 eb 5d f2 60	 mov	 eax, 1626496491		; 60f25debH
  0000f	f7 e9		 imul	 ecx
  00011	8b 44 24 0c	 mov	 eax, DWORD PTR __Off$[esp-4]
  00015	c1 fa 09	 sar	 edx, 9
  00018	8b ca		 mov	 ecx, edx
  0001a	c1 e9 1f	 shr	 ecx, 31			; 0000001fH
  0001d	03 ca		 add	 ecx, edx
  0001f	01 08		 add	 DWORD PTR [eax], ecx

; 482  : 	}

  00021	c3		 ret	 0
??$_Distance2@Vconst_iterator@?$vector@VCRespawnInfo@@V?$allocator@VCRespawnInfo@@@std@@@std@@I@std@@YAXVconst_iterator@?$vector@VCRespawnInfo@@V?$allocator@VCRespawnInfo@@@std@@@0@0AAIUrandom_access_iterator_tag@0@@Z ENDP ; std::_Distance2<std::vector<CRespawnInfo,std::allocator<CRespawnInfo> >::const_iterator,unsigned int>
_TEXT	ENDS
PUBLIC	??$_Ptr_cat@Vconst_iterator@?$vector@VCRespawnInfo@@V?$allocator@VCRespawnInfo@@@std@@@std@@PAVCRespawnInfo@@@std@@YA?AU_Nonscalar_ptr_iterator_tag@0@AAVconst_iterator@?$vector@VCRespawnInfo@@V?$allocator@VCRespawnInfo@@@std@@@0@AAPAVCRespawnInfo@@@Z ; std::_Ptr_cat<std::vector<CRespawnInfo,std::allocator<CRespawnInfo> >::const_iterator,CRespawnInfo *>
; Function compile flags: /Ogty
;	COMDAT ??$_Ptr_cat@Vconst_iterator@?$vector@VCRespawnInfo@@V?$allocator@VCRespawnInfo@@@std@@@std@@PAVCRespawnInfo@@@std@@YA?AU_Nonscalar_ptr_iterator_tag@0@AAVconst_iterator@?$vector@VCRespawnInfo@@V?$allocator@VCRespawnInfo@@@std@@@0@AAPAVCRespawnInfo@@@Z
_TEXT	SEGMENT
__Cat$ = -1						; size = 1
___formal$ = 8						; size = 4
___formal$ = 12						; size = 4
??$_Ptr_cat@Vconst_iterator@?$vector@VCRespawnInfo@@V?$allocator@VCRespawnInfo@@@std@@@std@@PAVCRespawnInfo@@@std@@YA?AU_Nonscalar_ptr_iterator_tag@0@AAVconst_iterator@?$vector@VCRespawnInfo@@V?$allocator@VCRespawnInfo@@@std@@@0@AAPAVCRespawnInfo@@@Z PROC NEAR ; std::_Ptr_cat<std::vector<CRespawnInfo,std::allocator<CRespawnInfo> >::const_iterator,CRespawnInfo *>, COMDAT

; 211  : 	{	// return pointer category from arbitrary arguments

  00000	51		 push	 ecx

; 212  : 	_Nonscalar_ptr_iterator_tag _Cat;
; 213  : 	return (_Cat);

  00001	8a 44 24 03	 mov	 al, BYTE PTR __Cat$[esp+4]

; 214  : 	}

  00005	59		 pop	 ecx
  00006	c3		 ret	 0
??$_Ptr_cat@Vconst_iterator@?$vector@VCRespawnInfo@@V?$allocator@VCRespawnInfo@@@std@@@std@@PAVCRespawnInfo@@@std@@YA?AU_Nonscalar_ptr_iterator_tag@0@AAVconst_iterator@?$vector@VCRespawnInfo@@V?$allocator@VCRespawnInfo@@@std@@@0@AAPAVCRespawnInfo@@@Z ENDP ; std::_Ptr_cat<std::vector<CRespawnInfo,std::allocator<CRespawnInfo> >::const_iterator,CRespawnInfo *>
_TEXT	ENDS
PUBLIC	??Econst_iterator@?$vector@VCRespawnInfo@@V?$allocator@VCRespawnInfo@@@std@@@std@@QAEAAV012@XZ ; std::vector<CRespawnInfo,std::allocator<CRespawnInfo> >::const_iterator::operator++
; Function compile flags: /Ogty
; File c:\program files\microsoft visual studio .net 2003\vc7\include\vector
;	COMDAT ??Econst_iterator@?$vector@VCRespawnInfo@@V?$allocator@VCRespawnInfo@@@std@@@std@@QAEAAV012@XZ
_TEXT	SEGMENT
??Econst_iterator@?$vector@VCRespawnInfo@@V?$allocator@VCRespawnInfo@@@std@@@std@@QAEAAV012@XZ PROC NEAR ; std::vector<CRespawnInfo,std::allocator<CRespawnInfo> >::const_iterator::operator++, COMDAT
; _this$ = ecx

; 91   : 			{	// preincrement

  00000	8b c1		 mov	 eax, ecx

; 92   : 			++_Myptr;

  00002	81 00 48 05 00
	00		 add	 DWORD PTR [eax], 1352	; 00000548H

; 93   : 			return (*this);
; 94   : 			}

  00008	c3		 ret	 0
??Econst_iterator@?$vector@VCRespawnInfo@@V?$allocator@VCRespawnInfo@@@std@@@std@@QAEAAV012@XZ ENDP ; std::vector<CRespawnInfo,std::allocator<CRespawnInfo> >::const_iterator::operator++
_TEXT	ENDS
PUBLIC	??Yconst_iterator@?$vector@VCRespawnInfo@@V?$allocator@VCRespawnInfo@@@std@@@std@@QAEAAV012@H@Z ; std::vector<CRespawnInfo,std::allocator<CRespawnInfo> >::const_iterator::operator+=
; Function compile flags: /Ogty
;	COMDAT ??Yconst_iterator@?$vector@VCRespawnInfo@@V?$allocator@VCRespawnInfo@@@std@@@std@@QAEAAV012@H@Z
_TEXT	SEGMENT
__Off$ = 8						; size = 4
??Yconst_iterator@?$vector@VCRespawnInfo@@V?$allocator@VCRespawnInfo@@@std@@@std@@QAEAAV012@H@Z PROC NEAR ; std::vector<CRespawnInfo,std::allocator<CRespawnInfo> >::const_iterator::operator+=, COMDAT
; _this$ = ecx

; 117  : 			{	// increment by integer

  00000	8b c1		 mov	 eax, ecx

; 118  : 			_Myptr += _Off;

  00002	8b 4c 24 04	 mov	 ecx, DWORD PTR __Off$[esp-4]
  00006	8b 10		 mov	 edx, DWORD PTR [eax]
  00008	69 c9 48 05 00
	00		 imul	 ecx, 1352		; 00000548H
  0000e	03 d1		 add	 edx, ecx
  00010	89 10		 mov	 DWORD PTR [eax], edx

; 119  : 			return (*this);
; 120  : 			}

  00012	c2 04 00	 ret	 4
??Yconst_iterator@?$vector@VCRespawnInfo@@V?$allocator@VCRespawnInfo@@@std@@@std@@QAEAAV012@H@Z ENDP ; std::vector<CRespawnInfo,std::allocator<CRespawnInfo> >::const_iterator::operator+=
_TEXT	ENDS
PUBLIC	?assign@?$char_traits@D@std@@SAXAADABD@Z	; std::char_traits<char>::assign
; Function compile flags: /Ogty
; File c:\program files\microsoft visual studio .net 2003\vc7\include\iosfwd
;	COMDAT ?assign@?$char_traits@D@std@@SAXAADABD@Z
_TEXT	SEGMENT
__Left$ = 8						; size = 4
__Right$ = 12						; size = 4
?assign@?$char_traits@D@std@@SAXAADABD@Z PROC NEAR	; std::char_traits<char>::assign, COMDAT

; 331  : 		_Left = _Right;

  00000	8b 44 24 08	 mov	 eax, DWORD PTR __Right$[esp-4]
  00004	8a 08		 mov	 cl, BYTE PTR [eax]
  00006	8b 54 24 04	 mov	 edx, DWORD PTR __Left$[esp-4]
  0000a	88 0a		 mov	 BYTE PTR [edx], cl

; 332  : 		}

  0000c	c3		 ret	 0
?assign@?$char_traits@D@std@@SAXAADABD@Z ENDP		; std::char_traits<char>::assign
_TEXT	ENDS
PUBLIC	?length@?$char_traits@D@std@@SAIPBD@Z		; std::char_traits<char>::length
; Function compile flags: /Ogty
;	COMDAT ?length@?$char_traits@D@std@@SAIPBD@Z
_TEXT	SEGMENT
__First$ = 8						; size = 4
?length@?$char_traits@D@std@@SAIPBD@Z PROC NEAR		; std::char_traits<char>::length, COMDAT

; 352  : 		return (::strlen(_First));

  00000	8b 44 24 04	 mov	 eax, DWORD PTR __First$[esp-4]
  00004	8d 50 01	 lea	 edx, DWORD PTR [eax+1]
$L231885:
  00007	8a 08		 mov	 cl, BYTE PTR [eax]
  00009	40		 inc	 eax
  0000a	84 c9		 test	 cl, cl
  0000c	75 f9		 jne	 SHORT $L231885
  0000e	2b c2		 sub	 eax, edx

; 353  : 		}

  00010	c3		 ret	 0
?length@?$char_traits@D@std@@SAIPBD@Z ENDP		; std::char_traits<char>::length
_TEXT	ENDS
PUBLIC	?copy@?$char_traits@D@std@@SAPADPADPBDI@Z	; std::char_traits<char>::copy
; Function compile flags: /Ogty
;	COMDAT ?copy@?$char_traits@D@std@@SAPADPADPBDI@Z
_TEXT	SEGMENT
__First1$ = 8						; size = 4
__First2$ = 12						; size = 4
__Count$ = 16						; size = 4
?copy@?$char_traits@D@std@@SAPADPADPBDI@Z PROC NEAR	; std::char_traits<char>::copy, COMDAT

; 358  : 		return ((_Elem *)::memcpy(_First1, _First2, _Count));

  00000	8b 4c 24 0c	 mov	 ecx, DWORD PTR __Count$[esp-4]
  00004	56		 push	 esi
  00005	8b 74 24 0c	 mov	 esi, DWORD PTR __First2$[esp]
  00009	57		 push	 edi
  0000a	8b 7c 24 0c	 mov	 edi, DWORD PTR __First1$[esp+4]
  0000e	8b c1		 mov	 eax, ecx
  00010	8b d7		 mov	 edx, edi
  00012	c1 e9 02	 shr	 ecx, 2
  00015	f3 a5		 rep movsd
  00017	8b c8		 mov	 ecx, eax
  00019	83 e1 03	 and	 ecx, 3
  0001c	f3 a4		 rep movsb
  0001e	5f		 pop	 edi
  0001f	8b c2		 mov	 eax, edx
  00021	5e		 pop	 esi

; 359  : 		}

  00022	c3		 ret	 0
?copy@?$char_traits@D@std@@SAPADPADPBDI@Z ENDP		; std::char_traits<char>::copy
_TEXT	ENDS
PUBLIC	?move@?$char_traits@D@std@@SAPADPADPBDI@Z	; std::char_traits<char>::move
EXTRN	_memmove:NEAR
; Function compile flags: /Ogty
;	COMDAT ?move@?$char_traits@D@std@@SAPADPADPBDI@Z
_TEXT	SEGMENT
__First1$ = 8						; size = 4
__First2$ = 12						; size = 4
__Count$ = 16						; size = 4
?move@?$char_traits@D@std@@SAPADPADPBDI@Z PROC NEAR	; std::char_traits<char>::move, COMDAT

; 370  : 		return ((_Elem *)::memmove(_First1, _First2, _Count));

  00000	e9 00 00 00 00	 jmp	 _memmove
?move@?$char_traits@D@std@@SAPADPADPBDI@Z ENDP		; std::char_traits<char>::move
_TEXT	ENDS
PUBLIC	??0D3DXVECTOR3@@QAE@XZ				; D3DXVECTOR3::D3DXVECTOR3
; Function compile flags: /Ogty
; File c:\documents and settings\test\mes documents\source\virtuos_v17\build\program\dx_sdk\d3dx9math.h
;	COMDAT ??0D3DXVECTOR3@@QAE@XZ
_TEXT	SEGMENT
??0D3DXVECTOR3@@QAE@XZ PROC NEAR			; D3DXVECTOR3::D3DXVECTOR3, COMDAT
; _this$ = ecx

; 165  :     D3DXVECTOR3() {};

  00000	8b c1		 mov	 eax, ecx
  00002	c3		 ret	 0
??0D3DXVECTOR3@@QAE@XZ ENDP				; D3DXVECTOR3::D3DXVECTOR3
_TEXT	ENDS
PUBLIC	??0D3DXVECTOR3@@QAE@MMM@Z			; D3DXVECTOR3::D3DXVECTOR3
; Function compile flags: /Ogty
; File c:\documents and settings\test\mes documents\source\virtuos_v17\build\program\dx_sdk\d3dx9math.inl
;	COMDAT ??0D3DXVECTOR3@@QAE@MMM@Z
_TEXT	SEGMENT
_fx$ = 8						; size = 4
_fy$ = 12						; size = 4
_fz$ = 16						; size = 4
??0D3DXVECTOR3@@QAE@MMM@Z PROC NEAR			; D3DXVECTOR3::D3DXVECTOR3, COMDAT
; _this$ = ecx

; 300  :     x = fx;
; 301  :     y = fy;

  00000	8b 54 24 08	 mov	 edx, DWORD PTR _fy$[esp-4]
  00004	8b c1		 mov	 eax, ecx
  00006	8b 4c 24 04	 mov	 ecx, DWORD PTR _fx$[esp-4]
  0000a	89 08		 mov	 DWORD PTR [eax], ecx

; 302  :     z = fz;

  0000c	8b 4c 24 0c	 mov	 ecx, DWORD PTR _fz$[esp-4]
  00010	89 50 04	 mov	 DWORD PTR [eax+4], edx
  00013	89 48 08	 mov	 DWORD PTR [eax+8], ecx

; 303  : }

  00016	c2 0c 00	 ret	 12			; 0000000cH
??0D3DXVECTOR3@@QAE@MMM@Z ENDP				; D3DXVECTOR3::D3DXVECTOR3
_TEXT	ENDS
PUBLIC	?xRand@@YAKXZ					; xRand
EXTRN	?g_next@@3KA:DWORD				; g_next
; Function compile flags: /Ogty
; File c:\documents and settings\test\mes documents\source\virtuos_v17\build\program\_common\xutil.h
;	COMDAT ?xRand@@YAKXZ
_TEXT	SEGMENT
?xRand@@YAKXZ PROC NEAR					; xRand, COMDAT

; 16   : 	g_next = g_next * 1103515245 + 12345;// + nRandomSeed[ i++ ];

  00000	a1 00 00 00 00	 mov	 eax, DWORD PTR ?g_next@@3KA ; g_next
  00005	69 c0 6d 4e c6
	41		 imul	 eax, 1103515245		; 41c64e6dH
  0000b	05 39 30 00 00	 add	 eax, 12345		; 00003039H
  00010	a3 00 00 00 00	 mov	 DWORD PTR ?g_next@@3KA, eax ; g_next

; 17   : 	return g_next;	//   .
; 18   : }

  00015	c3		 ret	 0
?xRand@@YAKXZ ENDP					; xRand
_TEXT	ENDS
PUBLIC	?xRandom@@YAKK@Z				; xRandom
; Function compile flags: /Ogty
;	COMDAT ?xRandom@@YAKK@Z
_TEXT	SEGMENT
_num$ = 8						; size = 4
?xRandom@@YAKK@Z PROC NEAR				; xRandom, COMDAT

; 22   : 	return  xRand() % num;

  00000	a1 00 00 00 00	 mov	 eax, DWORD PTR ?g_next@@3KA ; g_next
  00005	69 c0 6d 4e c6
	41		 imul	 eax, 1103515245		; 41c64e6dH
  0000b	05 39 30 00 00	 add	 eax, 12345		; 00003039H
  00010	a3 00 00 00 00	 mov	 DWORD PTR ?g_next@@3KA, eax ; g_next
  00015	33 d2		 xor	 edx, edx
  00017	f7 74 24 04	 div	 DWORD PTR _num$[esp-4]
  0001b	8b c2		 mov	 eax, edx

; 23   : }

  0001d	c3		 ret	 0
?xRandom@@YAKK@Z ENDP					; xRandom
_TEXT	ENDS
PUBLIC	?GetType@CObj@@QAEKXZ				; CObj::GetType
; Function compile flags: /Ogty
; File c:\documents and settings\test\mes documents\source\virtuos_v17\build\program\_common\obj.h
;	COMDAT ?GetType@CObj@@QAEKXZ
_TEXT	SEGMENT
?GetType@CObj@@QAEKXZ PROC NEAR				; CObj::GetType, COMDAT
; _this$ = ecx

; 206  : 	DWORD			GetType() { return m_dwType; }

  00000	8b 81 70 01 00
	00		 mov	 eax, DWORD PTR [ecx+368]
  00006	c3		 ret	 0
?GetType@CObj@@QAEKXZ ENDP				; CObj::GetType
_TEXT	ENDS
PUBLIC	?SetRespawn@CCtrl@@QAEXJE@Z			; CCtrl::SetRespawn
; Function compile flags: /Ogty
; File c:\documents and settings\test\mes documents\source\virtuos_v17\build\program\_common\ctrl.h
;	COMDAT ?SetRespawn@CCtrl@@QAEXJE@Z
_TEXT	SEGMENT
_n$ = 8							; size = 4
_nType$ = 12						; size = 1
?SetRespawn@CCtrl@@QAEXJE@Z PROC NEAR			; CCtrl::SetRespawn, COMDAT
; _this$ = ecx

; 93   : 	void			SetRespawn( LONG n, BYTE nType )	{ m_lRespawn = n; m_nRespawnType = nType; }	

  00000	0f b6 54 24 08	 movzx	 edx, BYTE PTR _nType$[esp-4]
  00005	8b 44 24 04	 mov	 eax, DWORD PTR _n$[esp-4]
  00009	89 81 04 02 00
	00		 mov	 DWORD PTR [ecx+516], eax
  0000f	89 91 08 02 00
	00		 mov	 DWORD PTR [ecx+520], edx
  00015	c2 08 00	 ret	 8
?SetRespawn@CCtrl@@QAEXJE@Z ENDP			; CCtrl::SetRespawn
_TEXT	ENDS
PUBLIC	?LOG_RANGE@@YAXPBDHHH@Z				; LOG_RANGE
PUBLIC	??_C@_0BM@HMFGHCP@?$CFs?5min?3?$CFd?0?5max?3?$CFd?0?5index?3?$CFd?$AA@ ; `string'
EXTRN	?Error@@YAPBDPBDZZ:NEAR				; Error
;	COMDAT ??_C@_0BM@HMFGHCP@?$CFs?5min?3?$CFd?0?5max?3?$CFd?0?5index?3?$CFd?$AA@
; File c:\documents and settings\test\mes documents\source\virtuos_v17\build\program\_common\project.h
CONST	SEGMENT
??_C@_0BM@HMFGHCP@?$CFs?5min?3?$CFd?0?5max?3?$CFd?0?5index?3?$CFd?$AA@ DB '%'
	DB	's min:%d, max:%d, index:%d', 00H		; `string'
; Function compile flags: /Ogty
CONST	ENDS
;	COMDAT ?LOG_RANGE@@YAXPBDHHH@Z
_TEXT	SEGMENT
_szMsg$ = 8						; size = 4
_nMin$ = 12						; size = 4
_nMax$ = 16						; size = 4
_nIndex$ = 20						; size = 4
?LOG_RANGE@@YAXPBDHHH@Z PROC NEAR			; LOG_RANGE, COMDAT

; 559  : 	LPCTSTR szErr = Error( _T( "%s min:%d, max:%d, index:%d" ), szMsg, nMin, nMax, nIndex ); 

  00000	8b 44 24 10	 mov	 eax, DWORD PTR _nIndex$[esp-4]
  00004	8b 4c 24 0c	 mov	 ecx, DWORD PTR _nMax$[esp-4]
  00008	8b 54 24 08	 mov	 edx, DWORD PTR _nMin$[esp-4]
  0000c	50		 push	 eax
  0000d	8b 44 24 08	 mov	 eax, DWORD PTR _szMsg$[esp]
  00011	51		 push	 ecx
  00012	52		 push	 edx
  00013	50		 push	 eax
  00014	68 00 00 00 00	 push	 OFFSET FLAT:??_C@_0BM@HMFGHCP@?$CFs?5min?3?$CFd?0?5max?3?$CFd?0?5index?3?$CFd?$AA@
  00019	e8 00 00 00 00	 call	 ?Error@@YAPBDPBDZZ	; Error
  0001e	83 c4 14	 add	 esp, 20			; 00000014H

; 560  : 	ADDERRORMSG( szErr ); 
; 561  : }

  00021	c3		 ret	 0
?LOG_RANGE@@YAXPBDHHH@Z ENDP				; LOG_RANGE
_TEXT	ENDS
PUBLIC	?LOG_CALLSTACK@@YAXXZ				; LOG_CALLSTACK
; Function compile flags: /Ogty
;	COMDAT ?LOG_CALLSTACK@@YAXXZ
_TEXT	SEGMENT
?LOG_CALLSTACK@@YAXXZ PROC NEAR				; LOG_CALLSTACK, COMDAT

; 565  : #ifdef _DEBUG
; 566  : 	__asm int 3
; 567  : #endif
; 568  : 
; 569  : #if defined(__INTERNALSERVER)
; 570  : 	int *p = NULL;		//    
; 571  : 	*p = 1;
; 572  : #endif
; 573  : }

  00000	c3		 ret	 0
?LOG_CALLSTACK@@YAXXZ ENDP				; LOG_CALLSTACK
_TEXT	ENDS
PUBLIC	??_C@_0BJ@GKPOBPPI@GetMoverProp?5range_error?$AA@ ; `string'
PUBLIC	?GetMoverProp@CProject@@QAEPAUMoverProp@@H@Z	; CProject::GetMoverProp
;	COMDAT ??_C@_0BJ@GKPOBPPI@GetMoverProp?5range_error?$AA@
CONST	SEGMENT
??_C@_0BJ@GKPOBPPI@GetMoverProp?5range_error?$AA@ DB 'GetMoverProp range_'
	DB	'error', 00H					; `string'
; Function compile flags: /Ogty
CONST	ENDS
;	COMDAT ?GetMoverProp@CProject@@QAEPAUMoverProp@@H@Z
_TEXT	SEGMENT
_nIndex$ = 8						; size = 4
?GetMoverProp@CProject@@QAEPAUMoverProp@@H@Z PROC NEAR	; CProject::GetMoverProp, COMDAT
; _this$ = ecx

; 1381 : 	VERIFY_RANGE( nIndex, 0, m_nMoverPropSize, "GetMoverProp range_error", NULL );

  00000	8b 44 24 04	 mov	 eax, DWORD PTR _nIndex$[esp-4]
  00004	85 c0		 test	 eax, eax
  00006	7c 19		 jl	 SHORT $L197938
  00008	3b 81 d0 01 00
	00		 cmp	 eax, DWORD PTR [ecx+464]
  0000e	7d 11		 jge	 SHORT $L197938

; 1382 : 	return m_pPropMover + nIndex;

  00010	8b 91 d4 01 00
	00		 mov	 edx, DWORD PTR [ecx+468]
  00016	69 c0 d8 06 00
	00		 imul	 eax, 1752		; 000006d8H
  0001c	03 c2		 add	 eax, edx

; 1383 : }

  0001e	c2 04 00	 ret	 4
$L197938:

; 1381 : 	VERIFY_RANGE( nIndex, 0, m_nMoverPropSize, "GetMoverProp range_error", NULL );

  00021	50		 push	 eax
  00022	8b 81 d0 01 00
	00		 mov	 eax, DWORD PTR [ecx+464]
  00028	50		 push	 eax
  00029	6a 00		 push	 0
  0002b	68 00 00 00 00	 push	 OFFSET FLAT:??_C@_0BJ@GKPOBPPI@GetMoverProp?5range_error?$AA@
  00030	68 00 00 00 00	 push	 OFFSET FLAT:??_C@_0BM@HMFGHCP@?$CFs?5min?3?$CFd?0?5max?3?$CFd?0?5index?3?$CFd?$AA@
  00035	e8 00 00 00 00	 call	 ?Error@@YAPBDPBDZZ	; Error
  0003a	83 c4 14	 add	 esp, 20			; 00000014H
  0003d	33 c0		 xor	 eax, eax

; 1383 : }

  0003f	c2 04 00	 ret	 4
?GetMoverProp@CProject@@QAEPAUMoverProp@@H@Z ENDP	; CProject::GetMoverProp
_TEXT	ENDS
PUBLIC	?GetLevel@CMover@@QAEHXZ			; CMover::GetLevel
; Function compile flags: /Ogty
; File c:\documents and settings\test\mes documents\source\virtuos_v17\build\program\_common\mover.h
;	COMDAT ?GetLevel@CMover@@QAEHXZ
_TEXT	SEGMENT
?GetLevel@CMover@@QAEHXZ PROC NEAR			; CMover::GetLevel, COMDAT
; _this$ = ecx

; 1159 : 	int				GetLevel() { return m_nLevel; }

  00000	8b 81 e0 05 00
	00		 mov	 eax, DWORD PTR [ecx+1504]
  00006	c3		 ret	 0
?GetLevel@CMover@@QAEHXZ ENDP				; CMover::GetLevel
_TEXT	ENDS
PUBLIC	?SetGold@CMover@@QAEXH@Z			; CMover::SetGold
; Function compile flags: /Ogty
;	COMDAT ?SetGold@CMover@@QAEXH@Z
_TEXT	SEGMENT
_nGold$ = 8						; size = 4
?SetGold@CMover@@QAEXH@Z PROC NEAR			; CMover::SetGold, COMDAT
; _this$ = ecx

; 1837 : 	ASSERT( nGold >= 0 );
; 1838 : 	m_dwGold = (DWORD)nGold;

  00000	8b 44 24 04	 mov	 eax, DWORD PTR _nGold$[esp-4]
  00004	89 81 84 16 00
	00		 mov	 DWORD PTR [ecx+5764], eax

; 1839 : }

  0000a	c2 04 00	 ret	 4
?SetGold@CMover@@QAEXH@Z ENDP				; CMover::SetGold
_TEXT	ENDS
PUBLIC	?GetID@CWorld@@QAEKXZ				; CWorld::GetID
; Function compile flags: /Ogty
; File c:\documents and settings\test\mes documents\source\virtuos_v17\build\program\_common\world.h
;	COMDAT ?GetID@CWorld@@QAEKXZ
_TEXT	SEGMENT
?GetID@CWorld@@QAEKXZ PROC NEAR				; CWorld::GetID, COMDAT
; _this$ = ecx

; 413  : 	DWORD			GetID()	{ return m_dwWorldID; }

  00000	8b 01		 mov	 eax, DWORD PTR [ecx]
  00002	c3		 ret	 0
?GetID@CWorld@@QAEKXZ ENDP				; CWorld::GetID
_TEXT	ENDS
PUBLIC	?size@?$basic_string@DU?$char_traits@D@std@@V?$allocator@D@2@@std@@QBEIXZ ; std::basic_string<char,std::char_traits<char>,std::allocator<char> >::size
; Function compile flags: /Ogty
; File c:\program files\microsoft visual studio .net 2003\vc7\include\xstring
;	COMDAT ?size@?$basic_string@DU?$char_traits@D@std@@V?$allocator@D@2@@std@@QBEIXZ
_TEXT	SEGMENT
?size@?$basic_string@DU?$char_traits@D@std@@V?$allocator@D@2@@std@@QBEIXZ PROC NEAR ; std::basic_string<char,std::char_traits<char>,std::allocator<char> >::size, COMDAT
; _this$ = ecx

; 1109 : 		return (_Mysize);

  00000	8b 41 14	 mov	 eax, DWORD PTR [ecx+20]

; 1110 : 		}

  00003	c3		 ret	 0
?size@?$basic_string@DU?$char_traits@D@std@@V?$allocator@D@2@@std@@QBEIXZ ENDP ; std::basic_string<char,std::char_traits<char>,std::allocator<char> >::size
_TEXT	ENDS
PUBLIC	?GetSize@?$CFixedArray@UItemProp@@@@QAEHXZ	; CFixedArray<ItemProp>::GetSize
; Function compile flags: /Ogty
; File c:\documents and settings\test\mes documents\source\virtuos_v17\build\program\_common\data.h
;	COMDAT ?GetSize@?$CFixedArray@UItemProp@@@@QAEHXZ
_TEXT	SEGMENT
?GetSize@?$CFixedArray@UItemProp@@@@QAEHXZ PROC NEAR	; CFixedArray<ItemProp>::GetSize, COMDAT
; _this$ = ecx

; 221  : 	int  GetSize() { return m_nMaxIndex; }

  00000	8b 41 18	 mov	 eax, DWORD PTR [ecx+24]
  00003	c3		 ret	 0
?GetSize@?$CFixedArray@UItemProp@@@@QAEHXZ ENDP		; CFixedArray<ItemProp>::GetSize
_TEXT	ENDS
PUBLIC	?_Myptr@?$basic_string@DU?$char_traits@D@std@@V?$allocator@D@2@@std@@QBEPBDXZ ; std::basic_string<char,std::char_traits<char>,std::allocator<char> >::_Myptr
; Function compile flags: /Ogty
; File c:\program files\microsoft visual studio .net 2003\vc7\include\xstring
;	COMDAT ?_Myptr@?$basic_string@DU?$char_traits@D@std@@V?$allocator@D@2@@std@@QBEPBDXZ
_TEXT	SEGMENT
?_Myptr@?$basic_string@DU?$char_traits@D@std@@V?$allocator@D@2@@std@@QBEPBDXZ PROC NEAR ; std::basic_string<char,std::char_traits<char>,std::allocator<char> >::_Myptr, COMDAT
; _this$ = ecx

; 1537 : 		return (_BUF_SIZE <= _Myres ? _Bx._Ptr : _Bx._Buf);

  00000	83 79 18 10	 cmp	 DWORD PTR [ecx+24], 16	; 00000010H
  00004	72 04		 jb	 SHORT $L231946
  00006	8b 41 04	 mov	 eax, DWORD PTR [ecx+4]

; 1538 : 		}

  00009	c3		 ret	 0
$L231946:

; 1537 : 		return (_BUF_SIZE <= _Myres ? _Bx._Ptr : _Bx._Buf);

  0000a	8d 41 04	 lea	 eax, DWORD PTR [ecx+4]

; 1538 : 		}

  0000d	c3		 ret	 0
?_Myptr@?$basic_string@DU?$char_traits@D@std@@V?$allocator@D@2@@std@@QBEPBDXZ ENDP ; std::basic_string<char,std::char_traits<char>,std::allocator<char> >::_Myptr
_TEXT	ENDS
PUBLIC	??0?$allocator@D@std@@QAE@XZ			; std::allocator<char>::allocator<char>
; Function compile flags: /Ogty
; File c:\program files\microsoft visual studio .net 2003\vc7\include\xmemory
;	COMDAT ??0?$allocator@D@std@@QAE@XZ
_TEXT	SEGMENT
??0?$allocator@D@std@@QAE@XZ PROC NEAR			; std::allocator<char>::allocator<char>, COMDAT
; _this$ = ecx

; 111  : 	allocator()

  00000	8b c1		 mov	 eax, ecx

; 112  : 		{	// construct default allocator (do nothing)
; 113  : 		}

  00002	c3		 ret	 0
??0?$allocator@D@std@@QAE@XZ ENDP			; std::allocator<char>::allocator<char>
_TEXT	ENDS
PUBLIC	??0?$allocator@D@std@@QAE@ABV01@@Z		; std::allocator<char>::allocator<char>
; Function compile flags: /Ogty
;	COMDAT ??0?$allocator@D@std@@QAE@ABV01@@Z
_TEXT	SEGMENT
___formal$ = 8						; size = 4
??0?$allocator@D@std@@QAE@ABV01@@Z PROC NEAR		; std::allocator<char>::allocator<char>, COMDAT
; _this$ = ecx

; 115  : 	allocator(const allocator<_Ty>&)

  00000	8b c1		 mov	 eax, ecx

; 116  : 		{	// construct by copying (do nothing)
; 117  : 		}

  00002	c2 04 00	 ret	 4
??0?$allocator@D@std@@QAE@ABV01@@Z ENDP			; std::allocator<char>::allocator<char>
_TEXT	ENDS
PUBLIC	??R?$less@H@std@@QBE_NABH0@Z			; std::less<int>::operator()
; Function compile flags: /Ogty
; File c:\program files\microsoft visual studio .net 2003\vc7\include\functional
;	COMDAT ??R?$less@H@std@@QBE_NABH0@Z
_TEXT	SEGMENT
__Left$ = 8						; size = 4
__Right$ = 12						; size = 4
??R?$less@H@std@@QBE_NABH0@Z PROC NEAR			; std::less<int>::operator(), COMDAT
; _this$ = ecx

; 139  : 		return (_Left < _Right);

  00000	8b 44 24 04	 mov	 eax, DWORD PTR __Left$[esp-4]
  00004	8b 08		 mov	 ecx, DWORD PTR [eax]
  00006	8b 54 24 08	 mov	 edx, DWORD PTR __Right$[esp-4]
  0000a	56		 push	 esi
  0000b	8b 32		 mov	 esi, DWORD PTR [edx]
  0000d	33 c0		 xor	 eax, eax
  0000f	3b ce		 cmp	 ecx, esi
  00011	0f 9c c0	 setl	 al
  00014	5e		 pop	 esi

; 140  : 		}

  00015	c2 08 00	 ret	 8
??R?$less@H@std@@QBE_NABH0@Z ENDP			; std::less<int>::operator()
_TEXT	ENDS
PUBLIC	?_Myptr@?$basic_string@DU?$char_traits@D@std@@V?$allocator@D@2@@std@@QAEPADXZ ; std::basic_string<char,std::char_traits<char>,std::allocator<char> >::_Myptr
; Function compile flags: /Ogty
; File c:\program files\microsoft visual studio .net 2003\vc7\include\xstring
;	COMDAT ?_Myptr@?$basic_string@DU?$char_traits@D@std@@V?$allocator@D@2@@std@@QAEPADXZ
_TEXT	SEGMENT
?_Myptr@?$basic_string@DU?$char_traits@D@std@@V?$allocator@D@2@@std@@QAEPADXZ PROC NEAR ; std::basic_string<char,std::char_traits<char>,std::allocator<char> >::_Myptr, COMDAT
; _this$ = ecx

; 1532 : 		return (_BUF_SIZE <= _Myres ? _Bx._Ptr : _Bx._Buf);

  00000	83 79 18 10	 cmp	 DWORD PTR [ecx+24], 16	; 00000010H
  00004	72 04		 jb	 SHORT $L231960
  00006	8b 41 04	 mov	 eax, DWORD PTR [ecx+4]

; 1533 : 		}

  00009	c3		 ret	 0
$L231960:

; 1532 : 		return (_BUF_SIZE <= _Myres ? _Bx._Ptr : _Bx._Buf);

  0000a	8d 41 04	 lea	 eax, DWORD PTR [ecx+4]

; 1533 : 		}

  0000d	c3		 ret	 0
?_Myptr@?$basic_string@DU?$char_traits@D@std@@V?$allocator@D@2@@std@@QAEPADXZ ENDP ; std::basic_string<char,std::char_traits<char>,std::allocator<char> >::_Myptr
_TEXT	ENDS
PUBLIC	?deallocate@?$allocator@D@std@@QAEXPADI@Z	; std::allocator<char>::deallocate
; Function compile flags: /Ogty
; File c:\program files\microsoft visual studio .net 2003\vc7\include\xmemory
;	COMDAT ?deallocate@?$allocator@D@std@@QAEXPADI@Z
_TEXT	SEGMENT
__Ptr$ = 8						; size = 4
___formal$ = 12						; size = 4
?deallocate@?$allocator@D@std@@QAEXPADI@Z PROC NEAR	; std::allocator<char>::deallocate, COMDAT
; _this$ = ecx

; 132  : 		operator delete(_Ptr);

  00000	8b 44 24 04	 mov	 eax, DWORD PTR __Ptr$[esp-4]
  00004	50		 push	 eax
  00005	e8 00 00 00 00	 call	 ??3@YAXPAX@Z		; operator delete
  0000a	59		 pop	 ecx

; 133  : 		}

  0000b	c2 08 00	 ret	 8
?deallocate@?$allocator@D@std@@QAEXPADI@Z ENDP		; std::allocator<char>::deallocate
_TEXT	ENDS
PUBLIC	?_Inside@?$basic_string@DU?$char_traits@D@std@@V?$allocator@D@2@@std@@IAE_NPBD@Z ; std::basic_string<char,std::char_traits<char>,std::allocator<char> >::_Inside
; Function compile flags: /Ogty
; File c:\program files\microsoft visual studio .net 2003\vc7\include\xstring
;	COMDAT ?_Inside@?$basic_string@DU?$char_traits@D@std@@V?$allocator@D@2@@std@@IAE_NPBD@Z
_TEXT	SEGMENT
__Ptr$ = 8						; size = 4
?_Inside@?$basic_string@DU?$char_traits@D@std@@V?$allocator@D@2@@std@@IAE_NPBD@Z PROC NEAR ; std::basic_string<char,std::char_traits<char>,std::allocator<char> >::_Inside, COMDAT
; _this$ = ecx

; 1494 : 		{	// test if _Ptr points inside string

  00000	56		 push	 esi

; 1495 : 		if (_Ptr < _Myptr() || _Myptr() + _Mysize <= _Ptr)

  00001	8b 71 18	 mov	 esi, DWORD PTR [ecx+24]
  00004	83 fe 10	 cmp	 esi, 16			; 00000010H
  00007	57		 push	 edi
  00008	8d 41 04	 lea	 eax, DWORD PTR [ecx+4]
  0000b	72 04		 jb	 SHORT $L231973
  0000d	8b 10		 mov	 edx, DWORD PTR [eax]
  0000f	eb 02		 jmp	 SHORT $L231974
$L231973:
  00011	8b d0		 mov	 edx, eax
$L231974:
  00013	8b 7c 24 0c	 mov	 edi, DWORD PTR __Ptr$[esp+4]
  00017	3b fa		 cmp	 edi, edx
  00019	72 17		 jb	 SHORT $L222788
  0001b	83 fe 10	 cmp	 esi, 16			; 00000010H
  0001e	72 02		 jb	 SHORT $L231981
  00020	8b 00		 mov	 eax, DWORD PTR [eax]
$L231981:
  00022	8b 49 14	 mov	 ecx, DWORD PTR [ecx+20]
  00025	03 c8		 add	 ecx, eax
  00027	3b cf		 cmp	 ecx, edi
  00029	76 07		 jbe	 SHORT $L222788
  0002b	5f		 pop	 edi

; 1497 : 		else
; 1498 : 			return (true);

  0002c	b0 01		 mov	 al, 1
  0002e	5e		 pop	 esi

; 1499 : 		}

  0002f	c2 04 00	 ret	 4
$L222788:
  00032	5f		 pop	 edi

; 1496 : 			return (false);	// don't ask

  00033	32 c0		 xor	 al, al
  00035	5e		 pop	 esi

; 1499 : 		}

  00036	c2 04 00	 ret	 4
?_Inside@?$basic_string@DU?$char_traits@D@std@@V?$allocator@D@2@@std@@IAE_NPBD@Z ENDP ; std::basic_string<char,std::char_traits<char>,std::allocator<char> >::_Inside
_TEXT	ENDS
PUBLIC	?max_size@?$allocator@D@std@@QBEIXZ		; std::allocator<char>::max_size
; Function compile flags: /Ogty
; File c:\program files\microsoft visual studio .net 2003\vc7\include\xmemory
;	COMDAT ?max_size@?$allocator@D@std@@QBEIXZ
_TEXT	SEGMENT
?max_size@?$allocator@D@std@@QBEIXZ PROC NEAR		; std::allocator<char>::max_size, COMDAT
; _this$ = ecx

; 157  : 		_SIZT _Count = (_SIZT)(-1) / sizeof (_Ty);
; 158  : 		return (0 < _Count ? _Count : 1);

  00000	83 c8 ff	 or	 eax, -1

; 159  : 		}

  00003	c3		 ret	 0
?max_size@?$allocator@D@std@@QBEIXZ ENDP		; std::allocator<char>::max_size
_TEXT	ENDS
PUBLIC	?GetAt@?$CFixedArray@UItemProp@@@@QAEPAUItemProp@@K@Z ; CFixedArray<ItemProp>::GetAt
; Function compile flags: /Ogty
; File c:\documents and settings\test\mes documents\source\virtuos_v17\build\program\_common\data.h
;	COMDAT ?GetAt@?$CFixedArray@UItemProp@@@@QAEPAUItemProp@@K@Z
_TEXT	SEGMENT
_dwIndex$ = 8						; size = 4
?GetAt@?$CFixedArray@UItemProp@@@@QAEPAUItemProp@@K@Z PROC NEAR ; CFixedArray<ItemProp>::GetAt, COMDAT
; _this$ = ecx

; 270  : 	if( dwIndex >= (DWORD)m_nMaxIndex )

  00000	8b 44 24 04	 mov	 eax, DWORD PTR _dwIndex$[esp-4]
  00004	3b 41 18	 cmp	 eax, DWORD PTR [ecx+24]
  00007	72 05		 jb	 SHORT $L224299

; 271  : 		return NULL;

  00009	33 c0		 xor	 eax, eax

; 273  : }

  0000b	c2 04 00	 ret	 4
$L224299:

; 272  : 	return (T*) m_apOffset[ dwIndex ];

  0000e	8b 49 08	 mov	 ecx, DWORD PTR [ecx+8]
  00011	8b 04 81	 mov	 eax, DWORD PTR [ecx+eax*4]

; 273  : }

  00014	c2 04 00	 ret	 4
?GetAt@?$CFixedArray@UItemProp@@@@QAEPAUItemProp@@K@Z ENDP ; CFixedArray<ItemProp>::GetAt
_TEXT	ENDS
PUBLIC	??$swap@D@std@@YAXAAD0@Z			; std::swap<char>
; Function compile flags: /Ogty
; File c:\program files\microsoft visual studio .net 2003\vc7\include\utility
;	COMDAT ??$swap@D@std@@YAXAAD0@Z
_TEXT	SEGMENT
__Left$ = 8						; size = 4
__Right$ = 12						; size = 4
??$swap@D@std@@YAXAAD0@Z PROC NEAR			; std::swap<char>, COMDAT

; 15   : 	_Ty _Tmp = _Left;

  00000	8b 44 24 04	 mov	 eax, DWORD PTR __Left$[esp-4]
  00004	8a 08		 mov	 cl, BYTE PTR [eax]
  00006	56		 push	 esi

; 16   : 	_Left = _Right, _Right = _Tmp;

  00007	8b 74 24 0c	 mov	 esi, DWORD PTR __Right$[esp]
  0000b	8a 16		 mov	 dl, BYTE PTR [esi]
  0000d	88 10		 mov	 BYTE PTR [eax], dl
  0000f	88 0e		 mov	 BYTE PTR [esi], cl
  00011	5e		 pop	 esi

; 17   : 	}

  00012	c3		 ret	 0
??$swap@D@std@@YAXAAD0@Z ENDP				; std::swap<char>
_TEXT	ENDS
PUBLIC	??$_Allocate@D@std@@YAPADIPAD@Z			; std::_Allocate<char>
; Function compile flags: /Ogty
; File c:\program files\microsoft visual studio .net 2003\vc7\include\xmemory
;	COMDAT ??$_Allocate@D@std@@YAPADIPAD@Z
_TEXT	SEGMENT
__Count$ = 8						; size = 4
___formal$ = 12						; size = 4
??$_Allocate@D@std@@YAPADIPAD@Z PROC NEAR		; std::_Allocate<char>, COMDAT

; 34   : 	return ((_Ty _FARQ *)operator new(_Count * sizeof (_Ty)));

  00000	8b 44 24 04	 mov	 eax, DWORD PTR __Count$[esp-4]
  00004	50		 push	 eax
  00005	e8 00 00 00 00	 call	 ??2@YAPAXI@Z		; operator new
  0000a	83 c4 04	 add	 esp, 4

; 35   : 	}

  0000d	c3		 ret	 0
??$_Allocate@D@std@@YAPADIPAD@Z ENDP			; std::_Allocate<char>
_TEXT	ENDS
PUBLIC	??0CRespawnInfo@@QAE@XZ				; CRespawnInfo::CRespawnInfo
; Function compile flags: /Ogty
; File c:\documents and settings\test\mes documents\source\virtuos_v17\build\program\_common\respawn.cpp
;	COMDAT ??0CRespawnInfo@@QAE@XZ
_TEXT	SEGMENT
$T231999 = -12						; size = 12
??0CRespawnInfo@@QAE@XZ PROC NEAR			; CRespawnInfo::CRespawnInfo, COMDAT
; _this$ = ecx

; 12   : {

  00000	83 ec 0c	 sub	 esp, 12			; 0000000cH
  00003	8b d1		 mov	 edx, ecx

; 13   : 	m_dwIndex	= 0; 
; 14   : 	m_dwType	= 0;
; 15   : 	m_cb		= 0; // 10
; 16   : 	m_uTime	= m_cbTime = 0; // 60
; 17   : 	memset( &m_rect, 0, sizeof(m_rect) );

  00005	33 c0		 xor	 eax, eax
  00007	53		 push	 ebx
  00008	56		 push	 esi
  00009	33 f6		 xor	 esi, esi
  0000b	89 72 0c	 mov	 DWORD PTR [edx+12], esi
  0000e	89 72 08	 mov	 DWORD PTR [edx+8], esi
  00011	89 72 04	 mov	 DWORD PTR [edx+4], esi
  00014	66 89 72 32	 mov	 WORD PTR [edx+50], si
  00018	66 89 72 30	 mov	 WORD PTR [edx+48], si
  0001c	c7 02 00 00 00
	00		 mov	 DWORD PTR [edx], OFFSET FLAT:??_7CRespawnInfo@@6B@
  00022	8d 4a 14	 lea	 ecx, DWORD PTR [edx+20]
  00025	89 01		 mov	 DWORD PTR [ecx], eax
  00027	89 41 04	 mov	 DWORD PTR [ecx+4], eax
  0002a	89 41 08	 mov	 DWORD PTR [ecx+8], eax
  0002d	89 41 0c	 mov	 DWORD PTR [ecx+12], eax

; 18   : 	m_vPos	= D3DXVECTOR3( 0.0f, 0.0f, 0.0f );

  00030	89 44 24 08	 mov	 DWORD PTR $T231999[esp+20], eax
  00034	8b 4c 24 08	 mov	 ecx, DWORD PTR $T231999[esp+20]
  00038	89 44 24 0c	 mov	 DWORD PTR $T231999[esp+24], eax
  0003c	89 44 24 10	 mov	 DWORD PTR $T231999[esp+28], eax
  00040	8d 42 24	 lea	 eax, DWORD PTR [edx+36]
  00043	89 08		 mov	 DWORD PTR [eax], ecx
  00045	8b 4c 24 0c	 mov	 ecx, DWORD PTR $T231999[esp+24]
  00049	89 48 04	 mov	 DWORD PTR [eax+4], ecx
  0004c	8b 4c 24 10	 mov	 ecx, DWORD PTR $T231999[esp+28]
  00050	89 48 08	 mov	 DWORD PTR [eax+8], ecx
  00053	57		 push	 edi

; 19   : 	m_nActiveAttackNum = 0;
; 20   : 	m_nDayMin = 1;

  00054	bb 01 00 00 00	 mov	 ebx, 1

; 21   : 	m_nDayMax = 30;
; 22   : 	m_nHourMin = 1;
; 23   : 	m_nHourMax = 24;
; 24   : 	m_nItemMin = 1;
; 25   : 	m_nItemMax = 1;
; 26   : 	m_fY = 0;
; 27   : 	ZeroMemory( &m_CtrlElem, sizeof( m_CtrlElem ) );

  00059	33 c0		 xor	 eax, eax
  0005b	89 72 10	 mov	 DWORD PTR [edx+16], esi
  0005e	89 5a 48	 mov	 DWORD PTR [edx+72], ebx
  00061	89 5a 50	 mov	 DWORD PTR [edx+80], ebx
  00064	89 5a 40	 mov	 DWORD PTR [edx+64], ebx
  00067	89 5a 44	 mov	 DWORD PTR [edx+68], ebx
  0006a	89 72 58	 mov	 DWORD PTR [edx+88], esi
  0006d	c7 42 4c 1e 00
	00 00		 mov	 DWORD PTR [edx+76], 30	; 0000001eH
  00074	c7 42 54 18 00
	00 00		 mov	 DWORD PTR [edx+84], 24	; 00000018H
  0007b	b9 6c 00 00 00	 mov	 ecx, 108		; 0000006cH
  00080	8d 7a 5c	 lea	 edi, DWORD PTR [edx+92]
  00083	f3 ab		 rep stosd

; 28   : 	m_CtrlElem.m_dwMinItemNum = 1;
; 29   : 	m_CtrlElem.m_dwMaxiItemNum = 1;
; 30   : 
; 31   : #ifdef __S1108_BACK_END_SYSTEM
; 32   : 	m_nMaxcb = 0;
; 33   : 	m_nMaxAttackNum = 0;
; 34   : 	m_nGMIndex = 0;
; 35   : #endif // __S1108_BACK_END_SYSTEM
; 36   : 	m_bRemove = FALSE;
; 37   : 	
; 38   : 	m_dwAiState = 2;
; 39   : 	m_fAngle    = 0.0f;
; 40   : 	
; 41   : 	m_dwPatrolIndex = NULL_ID;
; 42   : 	m_bPatrolCycle  = 0;

  00085	80 a2 24 02 00
	00 fe		 and	 BYTE PTR [edx+548], 254	; 000000feH

; 43   : 
; 44   : #ifdef __RES0807
; 45   : 	memset( m_aResPoint, 0, sizeof(POINT) * MAX_RESPOINT_PER_REGION );

  0008c	33 c0		 xor	 eax, eax
  0008e	89 9a f8 00 00
	00		 mov	 DWORD PTR [edx+248], ebx
  00094	89 9a fc 00 00
	00		 mov	 DWORD PTR [edx+252], ebx
  0009a	89 b2 0c 02 00
	00		 mov	 DWORD PTR [edx+524], esi
  000a0	89 b2 10 02 00
	00		 mov	 DWORD PTR [edx+528], esi
  000a6	89 b2 14 02 00
	00		 mov	 DWORD PTR [edx+532], esi
  000ac	89 72 3c	 mov	 DWORD PTR [edx+60], esi
  000af	89 b2 1c 02 00
	00		 mov	 DWORD PTR [edx+540], esi
  000b5	b9 c8 00 00 00	 mov	 ecx, 200		; 000000c8H
  000ba	8d ba 28 02 00
	00		 lea	 edi, DWORD PTR [edx+552]
  000c0	c7 82 18 02 00
	00 02 00 00 00	 mov	 DWORD PTR [edx+536], 2
  000ca	c7 82 20 02 00
	00 ff ff ff ff	 mov	 DWORD PTR [edx+544], -1
  000d4	f3 ab		 rep stosd
  000d6	5f		 pop	 edi

; 46   : #endif	// __RES0807
; 47   : 
; 48   : 	m_bHalf	= FALSE;

  000d7	89 72 38	 mov	 DWORD PTR [edx+56], esi

; 49   : 	m_cbRespawn	= 0;

  000da	66 89 72 34	 mov	 WORD PTR [edx+52], si
  000de	5e		 pop	 esi

; 50   : }

  000df	8b c2		 mov	 eax, edx
  000e1	5b		 pop	 ebx
  000e2	83 c4 0c	 add	 esp, 12			; 0000000cH
  000e5	c3		 ret	 0
??0CRespawnInfo@@QAE@XZ ENDP				; CRespawnInfo::CRespawnInfo
; Function compile flags: /Ogty
_TEXT	ENDS
;	COMDAT ??_GCRespawnInfo@@UAEPAXI@Z
_TEXT	SEGMENT
___flags$ = 8						; size = 4
??_GCRespawnInfo@@UAEPAXI@Z PROC NEAR			; CRespawnInfo::`scalar deleting destructor', COMDAT
; _this$ = ecx
  00000	f6 44 24 04 01	 test	 BYTE PTR ___flags$[esp-4], 1
  00005	56		 push	 esi
  00006	8b f1		 mov	 esi, ecx
  00008	c7 06 00 00 00
	00		 mov	 DWORD PTR [esi], OFFSET FLAT:??_7CRespawnInfo@@6B@
  0000e	74 09		 je	 SHORT $L232017
  00010	56		 push	 esi
  00011	e8 00 00 00 00	 call	 ??3@YAXPAX@Z		; operator delete
  00016	83 c4 04	 add	 esp, 4
$L232017:
  00019	8b c6		 mov	 eax, esi
  0001b	5e		 pop	 esi
  0001c	c2 04 00	 ret	 4
??_GCRespawnInfo@@UAEPAXI@Z ENDP			; CRespawnInfo::`scalar deleting destructor'
_TEXT	ENDS
PUBLIC	??0CRespawnInfo@@QAE@ABV0@@Z			; CRespawnInfo::CRespawnInfo
; Function compile flags: /Ogty
;	COMDAT ??0CRespawnInfo@@QAE@ABV0@@Z
_TEXT	SEGMENT
_ri$ = 8						; size = 4
??0CRespawnInfo@@QAE@ABV0@@Z PROC NEAR			; CRespawnInfo::CRespawnInfo, COMDAT
; _this$ = ecx

; 53   : {

  00000	8b c1		 mov	 eax, ecx

; 54   : 	m_dwIndex	= ri.m_dwIndex;	

  00002	8b 54 24 04	 mov	 edx, DWORD PTR _ri$[esp-4]
  00006	c7 00 00 00 00
	00		 mov	 DWORD PTR [eax], OFFSET FLAT:??_7CRespawnInfo@@6B@
  0000c	8b 4a 08	 mov	 ecx, DWORD PTR [edx+8]
  0000f	89 48 08	 mov	 DWORD PTR [eax+8], ecx

; 55   : 	m_dwType	= ri.m_dwType;	

  00012	8b 4a 04	 mov	 ecx, DWORD PTR [edx+4]
  00015	89 48 04	 mov	 DWORD PTR [eax+4], ecx

; 56   : 	m_uTime	    = ri.m_uTime;		

  00018	66 8b 4a 30	 mov	 cx, WORD PTR [edx+48]
  0001c	66 89 48 30	 mov	 WORD PTR [eax+48], cx

; 57   : 	m_cb		= ri.m_cb; 	

  00020	8b 4a 0c	 mov	 ecx, DWORD PTR [edx+12]
  00023	89 48 0c	 mov	 DWORD PTR [eax+12], ecx

; 58   : 	m_cbTime	= ri.m_cbTime;	

  00026	66 8b 4a 32	 mov	 cx, WORD PTR [edx+50]
  0002a	66 89 48 32	 mov	 WORD PTR [eax+50], cx
  0002e	53		 push	 ebx
  0002f	56		 push	 esi
  00030	57		 push	 edi

; 59   : 	m_rect	    = ri.m_rect;

  00031	8d 4a 14	 lea	 ecx, DWORD PTR [edx+20]
  00034	8b 39		 mov	 edi, DWORD PTR [ecx]
  00036	8d 70 14	 lea	 esi, DWORD PTR [eax+20]
  00039	89 3e		 mov	 DWORD PTR [esi], edi
  0003b	8b 79 04	 mov	 edi, DWORD PTR [ecx+4]
  0003e	89 7e 04	 mov	 DWORD PTR [esi+4], edi
  00041	8b 79 08	 mov	 edi, DWORD PTR [ecx+8]
  00044	89 7e 08	 mov	 DWORD PTR [esi+8], edi
  00047	8b 49 0c	 mov	 ecx, DWORD PTR [ecx+12]
  0004a	89 4e 0c	 mov	 DWORD PTR [esi+12], ecx

; 60   : 	m_vPos	    = ri.m_vPos;

  0004d	8d 4a 24	 lea	 ecx, DWORD PTR [edx+36]
  00050	8b 39		 mov	 edi, DWORD PTR [ecx]
  00052	8d 70 24	 lea	 esi, DWORD PTR [eax+36]
  00055	89 3e		 mov	 DWORD PTR [esi], edi
  00057	8b 79 04	 mov	 edi, DWORD PTR [ecx+4]
  0005a	89 7e 04	 mov	 DWORD PTR [esi+4], edi
  0005d	8b 49 08	 mov	 ecx, DWORD PTR [ecx+8]
  00060	89 4e 08	 mov	 DWORD PTR [esi+8], ecx

; 61   : 	m_fY  	   = ri.m_fY;

  00063	8b 4a 58	 mov	 ecx, DWORD PTR [edx+88]
  00066	89 48 58	 mov	 DWORD PTR [eax+88], ecx

; 62   : 	m_nDayMin  = ri.m_nDayMin ;

  00069	8b 4a 48	 mov	 ecx, DWORD PTR [edx+72]
  0006c	89 48 48	 mov	 DWORD PTR [eax+72], ecx

; 63   : 	m_nDayMax  = ri.m_nDayMax ;

  0006f	8b 4a 4c	 mov	 ecx, DWORD PTR [edx+76]
  00072	89 48 4c	 mov	 DWORD PTR [eax+76], ecx

; 64   : 	m_nHourMin = ri.m_nHourMin;

  00075	8b 4a 50	 mov	 ecx, DWORD PTR [edx+80]
  00078	89 48 50	 mov	 DWORD PTR [eax+80], ecx

; 65   : 	m_nHourMax = ri.m_nHourMax;

  0007b	8b 4a 54	 mov	 ecx, DWORD PTR [edx+84]
  0007e	89 48 54	 mov	 DWORD PTR [eax+84], ecx

; 66   : 	m_nItemMin = ri.m_nItemMin;

  00081	8b 4a 40	 mov	 ecx, DWORD PTR [edx+64]
  00084	89 48 40	 mov	 DWORD PTR [eax+64], ecx

; 67   : 	m_nItemMax = ri.m_nItemMax;

  00087	8b 4a 44	 mov	 ecx, DWORD PTR [edx+68]
  0008a	89 48 44	 mov	 DWORD PTR [eax+68], ecx

; 68   : 	m_nActiveAttackNum = ri.m_nActiveAttackNum;

  0008d	8b 4a 10	 mov	 ecx, DWORD PTR [edx+16]
  00090	89 48 10	 mov	 DWORD PTR [eax+16], ecx

; 69   : 	memcpy( &m_CtrlElem, &ri.m_CtrlElem, sizeof( m_CtrlElem ) );
; 70   : 	m_cbRespawn	= (u_short)( m_cb );
; 71   : //	m_uTime		/= 2;	
; 72   : 	m_bHalf		= FALSE;
; 73   : #ifdef __S1108_BACK_END_SYSTEM
; 74   : 	m_nMaxcb = ri.m_nMaxcb;
; 75   : 	m_nMaxAttackNum = ri.m_nMaxAttackNum;
; 76   : 	m_nGMIndex = ri.m_nGMIndex;
; 77   : #endif // __S1108_BACK_END_SYSTEM
; 78   : 	m_bRemove = ri.m_bRemove;
; 79   : 	m_dwAiState = ri.m_dwAiState;
; 80   : 	m_fAngle    = ri.m_fAngle;	
; 81   : 	m_dwPatrolIndex = ri.m_dwPatrolIndex;
; 82   : 	m_bPatrolCycle  = ri.m_bPatrolCycle;

  00093	8a 98 24 02 00
	00		 mov	 bl, BYTE PTR [eax+548]
  00099	8d 72 5c	 lea	 esi, DWORD PTR [edx+92]
  0009c	8d 78 5c	 lea	 edi, DWORD PTR [eax+92]
  0009f	b9 6c 00 00 00	 mov	 ecx, 108		; 0000006cH
  000a4	f3 a5		 rep movsd
  000a6	66 8b 48 0c	 mov	 cx, WORD PTR [eax+12]
  000aa	66 89 48 34	 mov	 WORD PTR [eax+52], cx
  000ae	c7 40 38 00 00
	00 00		 mov	 DWORD PTR [eax+56], 0
  000b5	8b 8a 0c 02 00
	00		 mov	 ecx, DWORD PTR [edx+524]
  000bb	89 88 0c 02 00
	00		 mov	 DWORD PTR [eax+524], ecx
  000c1	8b 8a 10 02 00
	00		 mov	 ecx, DWORD PTR [edx+528]
  000c7	89 88 10 02 00
	00		 mov	 DWORD PTR [eax+528], ecx
  000cd	8b 8a 14 02 00
	00		 mov	 ecx, DWORD PTR [edx+532]
  000d3	89 88 14 02 00
	00		 mov	 DWORD PTR [eax+532], ecx
  000d9	8b 4a 3c	 mov	 ecx, DWORD PTR [edx+60]
  000dc	89 48 3c	 mov	 DWORD PTR [eax+60], ecx
  000df	8b 8a 18 02 00
	00		 mov	 ecx, DWORD PTR [edx+536]
  000e5	89 88 18 02 00
	00		 mov	 DWORD PTR [eax+536], ecx
  000eb	8b 8a 1c 02 00
	00		 mov	 ecx, DWORD PTR [edx+540]
  000f1	89 88 1c 02 00
	00		 mov	 DWORD PTR [eax+540], ecx
  000f7	8b 8a 20 02 00
	00		 mov	 ecx, DWORD PTR [edx+544]
  000fd	89 88 20 02 00
	00		 mov	 DWORD PTR [eax+544], ecx
  00103	8a 8a 24 02 00
	00		 mov	 cl, BYTE PTR [edx+548]
  00109	32 cb		 xor	 cl, bl
  0010b	80 e1 01	 and	 cl, 1
  0010e	32 d9		 xor	 bl, cl

; 83   : #ifdef __RES0807
; 84   : 	memcpy( m_aResPoint, ri.m_aResPoint, sizeof(POINT) * MAX_RESPOINT_PER_REGION );

  00110	8d b2 28 02 00
	00		 lea	 esi, DWORD PTR [edx+552]
  00116	8d b8 28 02 00
	00		 lea	 edi, DWORD PTR [eax+552]
  0011c	b9 c8 00 00 00	 mov	 ecx, 200		; 000000c8H
  00121	88 98 24 02 00
	00		 mov	 BYTE PTR [eax+548], bl
  00127	f3 a5		 rep movsd
  00129	5f		 pop	 edi
  0012a	5e		 pop	 esi
  0012b	5b		 pop	 ebx

; 85   : #endif	// __RES0807
; 86   : }

  0012c	c2 04 00	 ret	 4
??0CRespawnInfo@@QAE@ABV0@@Z ENDP			; CRespawnInfo::CRespawnInfo
_TEXT	ENDS
PUBLIC	__real@4f800000
PUBLIC	?GetPos@CRespawnInfo@@QAEXAAUD3DXVECTOR3@@H@Z	; CRespawnInfo::GetPos
EXTRN	?xRandom@@YAKKK@Z:NEAR				; xRandom
;	COMDAT __real@4f800000
; File c:\documents and settings\test\mes documents\source\virtuos_v17\build\program\_common\xutil.h
CONST	SEGMENT
__real@4f800000 DD 04f800000r			; 4.29497e+009
; Function compile flags: /Ogty
; File c:\documents and settings\test\mes documents\source\virtuos_v17\build\program\_common\respawn.cpp
CONST	ENDS
;	COMDAT ?GetPos@CRespawnInfo@@QAEXAAUD3DXVECTOR3@@H@Z
_TEXT	SEGMENT
tv237 = 8						; size = 4
_v$ = 8							; size = 4
tv242 = 12						; size = 4
_bRespawn$ = 12						; size = 4
?GetPos@CRespawnInfo@@QAEXAAUD3DXVECTOR3@@H@Z PROC NEAR	; CRespawnInfo::GetPos, COMDAT
; _this$ = ecx

; 124  : {

  00000	56		 push	 esi
  00001	8b f1		 mov	 esi, ecx

; 125  : 	if( m_nMaxcb == 1 )

  00003	83 be 0c 02 00
	00 01		 cmp	 DWORD PTR [esi+524], 1
  0000a	75 2b		 jne	 SHORT $L228342

; 126  : 	{
; 127  : 		if( m_dwAiState == 8 || m_dwAiState == 9 )

  0000c	8b 86 18 02 00
	00		 mov	 eax, DWORD PTR [esi+536]
  00012	83 f8 08	 cmp	 eax, 8
  00015	74 05		 je	 SHORT $L228343
  00017	83 f8 09	 cmp	 eax, 9
  0001a	75 1b		 jne	 SHORT $L228342
$L228343:

; 128  : 		{
; 129  : 			v = m_vPos;

  0001c	8b 44 24 08	 mov	 eax, DWORD PTR _v$[esp]
  00020	83 c6 24	 add	 esi, 36			; 00000024H
  00023	8b 0e		 mov	 ecx, DWORD PTR [esi]
  00025	89 08		 mov	 DWORD PTR [eax], ecx
  00027	8b 56 04	 mov	 edx, DWORD PTR [esi+4]
  0002a	89 50 04	 mov	 DWORD PTR [eax+4], edx
  0002d	8b 4e 08	 mov	 ecx, DWORD PTR [esi+8]
  00030	89 48 08	 mov	 DWORD PTR [eax+8], ecx
  00033	5e		 pop	 esi

; 151  : 	}
; 152  : #else	// __RES0807
; 153  : 	int nWidth = m_rect.right - m_rect.left;
; 154  : 	if( nWidth <= 0 ) nWidth = 1;
; 155  : 	int nHeight = m_rect.bottom - m_rect.top;
; 156  : 	if( nHeight <= 0 ) nHeight = 1;
; 157  : 	v.x		= (float)( m_rect.left + xRandom( nWidth ) );
; 158  : 	v.z		= (float)( m_rect.top + xRandom( nHeight ) );
; 159  : 	v.y		= m_vPos.y;
; 160  : #endif	// __RES0807
; 161  : }

  00034	c2 08 00	 ret	 8
$L228342:

; 130  : 			return;
; 131  : 		}
; 132  : 	}
; 133  : 
; 134  : #ifdef __RES0807
; 135  : 	if( bRespawn )

  00037	8b 44 24 0c	 mov	 eax, DWORD PTR _bRespawn$[esp]
  0003b	85 c0		 test	 eax, eax
  0003d	74 2d		 je	 SHORT $L228344

; 136  : 	{
; 137  : 		int r	= xRandom( 0, MAX_RESPOINT_PER_REGION );

  0003f	6a 64		 push	 100			; 00000064H
  00041	6a 00		 push	 0
  00043	e8 00 00 00 00	 call	 ?xRandom@@YAKKK@Z	; xRandom

; 138  : 		v.x		= (float)( m_aResPoint[r].x );

  00048	db 84 c6 28 02
	00 00		 fild	 DWORD PTR [esi+eax*8+552]
  0004f	8b 4c 24 10	 mov	 ecx, DWORD PTR _v$[esp+8]
  00053	83 c4 08	 add	 esp, 8
  00056	d9 19		 fstp	 DWORD PTR [ecx]

; 139  : 		v.z		= (float)( m_aResPoint[r].y );

  00058	db 84 c6 2c 02
	00 00		 fild	 DWORD PTR [esi+eax*8+556]
  0005f	d9 59 08	 fstp	 DWORD PTR [ecx+8]

; 140  : 		v.y		= m_vPos.y;

  00062	8b 56 28	 mov	 edx, DWORD PTR [esi+40]
  00065	89 51 04	 mov	 DWORD PTR [ecx+4], edx
  00068	5e		 pop	 esi

; 151  : 	}
; 152  : #else	// __RES0807
; 153  : 	int nWidth = m_rect.right - m_rect.left;
; 154  : 	if( nWidth <= 0 ) nWidth = 1;
; 155  : 	int nHeight = m_rect.bottom - m_rect.top;
; 156  : 	if( nHeight <= 0 ) nHeight = 1;
; 157  : 	v.x		= (float)( m_rect.left + xRandom( nWidth ) );
; 158  : 	v.z		= (float)( m_rect.top + xRandom( nHeight ) );
; 159  : 	v.y		= m_vPos.y;
; 160  : #endif	// __RES0807
; 161  : }

  00069	c2 08 00	 ret	 8
$L228344:

; 141  : 	}
; 142  : 	else
; 143  : 	{
; 144  : 		int nWidth = m_rect.right - m_rect.left;

  0006c	8b 4e 1c	 mov	 ecx, DWORD PTR [esi+28]
  0006f	2b 4e 14	 sub	 ecx, DWORD PTR [esi+20]

; 145  : 		if( nWidth <= 0 ) nWidth = 1;

  00072	85 c9		 test	 ecx, ecx
  00074	7f 05		 jg	 SHORT $L228350
  00076	b9 01 00 00 00	 mov	 ecx, 1
$L228350:

; 146  : 		int nHeight = m_rect.bottom - m_rect.top;

  0007b	8b 56 18	 mov	 edx, DWORD PTR [esi+24]
  0007e	57		 push	 edi
  0007f	8b 7e 20	 mov	 edi, DWORD PTR [esi+32]
  00082	2b fa		 sub	 edi, edx

; 147  : 		if( nHeight <= 0 ) nHeight = 1;

  00084	85 ff		 test	 edi, edi
  00086	7f 05		 jg	 SHORT $L228352
  00088	bf 01 00 00 00	 mov	 edi, 1
$L228352:

; 148  : 		v.x		= (float)( m_rect.left + xRandom( nWidth ) );

  0008d	a1 00 00 00 00	 mov	 eax, DWORD PTR ?g_next@@3KA ; g_next
  00092	69 c0 6d 4e c6
	41		 imul	 eax, 1103515245		; 41c64e6dH
  00098	05 39 30 00 00	 add	 eax, 12345		; 00003039H
  0009d	33 d2		 xor	 edx, edx
  0009f	a3 00 00 00 00	 mov	 DWORD PTR ?g_next@@3KA, eax ; g_next
  000a4	f7 f1		 div	 ecx
  000a6	03 56 14	 add	 edx, DWORD PTR [esi+20]
  000a9	85 d2		 test	 edx, edx
  000ab	89 54 24 10	 mov	 DWORD PTR tv242[esp+4], edx
  000af	db 44 24 10	 fild	 DWORD PTR tv242[esp+4]
  000b3	7d 06		 jge	 SHORT $L232046
  000b5	d8 05 00 00 00
	00		 fadd	 DWORD PTR __real@4f800000
$L232046:
  000bb	8b 4c 24 0c	 mov	 ecx, DWORD PTR _v$[esp+4]
  000bf	d9 19		 fstp	 DWORD PTR [ecx]

; 149  : 		v.z		= (float)( m_rect.top + xRandom( nHeight ) );

  000c1	a1 00 00 00 00	 mov	 eax, DWORD PTR ?g_next@@3KA ; g_next
  000c6	69 c0 6d 4e c6
	41		 imul	 eax, 1103515245		; 41c64e6dH
  000cc	05 39 30 00 00	 add	 eax, 12345		; 00003039H
  000d1	33 d2		 xor	 edx, edx
  000d3	a3 00 00 00 00	 mov	 DWORD PTR ?g_next@@3KA, eax ; g_next
  000d8	f7 f7		 div	 edi
  000da	03 56 18	 add	 edx, DWORD PTR [esi+24]
  000dd	85 d2		 test	 edx, edx
  000df	89 54 24 0c	 mov	 DWORD PTR tv237[esp+4], edx
  000e3	db 44 24 0c	 fild	 DWORD PTR tv237[esp+4]
  000e7	7d 06		 jge	 SHORT $L232049
  000e9	d8 05 00 00 00
	00		 fadd	 DWORD PTR __real@4f800000
$L232049:
  000ef	d9 59 08	 fstp	 DWORD PTR [ecx+8]

; 150  : 		v.y		= m_vPos.y;

  000f2	8b 46 28	 mov	 eax, DWORD PTR [esi+40]
  000f5	5f		 pop	 edi
  000f6	89 41 04	 mov	 DWORD PTR [ecx+4], eax
  000f9	5e		 pop	 esi

; 151  : 	}
; 152  : #else	// __RES0807
; 153  : 	int nWidth = m_rect.right - m_rect.left;
; 154  : 	if( nWidth <= 0 ) nWidth = 1;
; 155  : 	int nHeight = m_rect.bottom - m_rect.top;
; 156  : 	if( nHeight <= 0 ) nHeight = 1;
; 157  : 	v.x		= (float)( m_rect.left + xRandom( nWidth ) );
; 158  : 	v.z		= (float)( m_rect.top + xRandom( nHeight ) );
; 159  : 	v.y		= m_vPos.y;
; 160  : #endif	// __RES0807
; 161  : }

  000fa	c2 08 00	 ret	 8
?GetPos@CRespawnInfo@@QAEXAAUD3DXVECTOR3@@H@Z ENDP	; CRespawnInfo::GetPos
_TEXT	ENDS
PUBLIC	?begin@?$vector@VCRespawnInfo@@V?$allocator@VCRespawnInfo@@@std@@@std@@QAE?AViterator@12@XZ ; std::vector<CRespawnInfo,std::allocator<CRespawnInfo> >::begin
; Function compile flags: /Ogty
; File c:\program files\microsoft visual studio .net 2003\vc7\include\vector
;	COMDAT ?begin@?$vector@VCRespawnInfo@@V?$allocator@VCRespawnInfo@@@std@@@std@@QAE?AViterator@12@XZ
_TEXT	SEGMENT
___$ReturnUdt$ = 8					; size = 4
?begin@?$vector@VCRespawnInfo@@V?$allocator@VCRespawnInfo@@@std@@@std@@QAE?AViterator@12@XZ PROC NEAR ; std::vector<CRespawnInfo,std::allocator<CRespawnInfo> >::begin, COMDAT
; _this$ = ecx

; 463  : 		return (iterator(_Myfirst));

  00000	8b 49 04	 mov	 ecx, DWORD PTR [ecx+4]
  00003	8b 44 24 04	 mov	 eax, DWORD PTR ___$ReturnUdt$[esp-4]
  00007	89 08		 mov	 DWORD PTR [eax], ecx

; 464  : 		}

  00009	c2 04 00	 ret	 4
?begin@?$vector@VCRespawnInfo@@V?$allocator@VCRespawnInfo@@@std@@@std@@QAE?AViterator@12@XZ ENDP ; std::vector<CRespawnInfo,std::allocator<CRespawnInfo> >::begin
_TEXT	ENDS
PUBLIC	?begin@?$vector@VCRespawnInfo@@V?$allocator@VCRespawnInfo@@@std@@@std@@QBE?AVconst_iterator@12@XZ ; std::vector<CRespawnInfo,std::allocator<CRespawnInfo> >::begin
; Function compile flags: /Ogty
;	COMDAT ?begin@?$vector@VCRespawnInfo@@V?$allocator@VCRespawnInfo@@@std@@@std@@QBE?AVconst_iterator@12@XZ
_TEXT	SEGMENT
___$ReturnUdt$ = 8					; size = 4
?begin@?$vector@VCRespawnInfo@@V?$allocator@VCRespawnInfo@@@std@@@std@@QBE?AVconst_iterator@12@XZ PROC NEAR ; std::vector<CRespawnInfo,std::allocator<CRespawnInfo> >::begin, COMDAT
; _this$ = ecx

; 468  : 		return (const_iterator(_Myfirst));

  00000	8b 49 04	 mov	 ecx, DWORD PTR [ecx+4]
  00003	8b 44 24 04	 mov	 eax, DWORD PTR ___$ReturnUdt$[esp-4]
  00007	89 08		 mov	 DWORD PTR [eax], ecx

; 469  : 		}

  00009	c2 04 00	 ret	 4
?begin@?$vector@VCRespawnInfo@@V?$allocator@VCRespawnInfo@@@std@@@std@@QBE?AVconst_iterator@12@XZ ENDP ; std::vector<CRespawnInfo,std::allocator<CRespawnInfo> >::begin
_TEXT	ENDS
PUBLIC	?end@?$vector@VCRespawnInfo@@V?$allocator@VCRespawnInfo@@@std@@@std@@QAE?AViterator@12@XZ ; std::vector<CRespawnInfo,std::allocator<CRespawnInfo> >::end
; Function compile flags: /Ogty
;	COMDAT ?end@?$vector@VCRespawnInfo@@V?$allocator@VCRespawnInfo@@@std@@@std@@QAE?AViterator@12@XZ
_TEXT	SEGMENT
___$ReturnUdt$ = 8					; size = 4
?end@?$vector@VCRespawnInfo@@V?$allocator@VCRespawnInfo@@@std@@@std@@QAE?AViterator@12@XZ PROC NEAR ; std::vector<CRespawnInfo,std::allocator<CRespawnInfo> >::end, COMDAT
; _this$ = ecx

; 473  : 		return (iterator(_Mylast));

  00000	8b 49 08	 mov	 ecx, DWORD PTR [ecx+8]
  00003	8b 44 24 04	 mov	 eax, DWORD PTR ___$ReturnUdt$[esp-4]
  00007	89 08		 mov	 DWORD PTR [eax], ecx

; 474  : 		}

  00009	c2 04 00	 ret	 4
?end@?$vector@VCRespawnInfo@@V?$allocator@VCRespawnInfo@@@std@@@std@@QAE?AViterator@12@XZ ENDP ; std::vector<CRespawnInfo,std::allocator<CRespawnInfo> >::end
_TEXT	ENDS
PUBLIC	?end@?$vector@VCRespawnInfo@@V?$allocator@VCRespawnInfo@@@std@@@std@@QBE?AVconst_iterator@12@XZ ; std::vector<CRespawnInfo,std::allocator<CRespawnInfo> >::end
; Function compile flags: /Ogty
;	COMDAT ?end@?$vector@VCRespawnInfo@@V?$allocator@VCRespawnInfo@@@std@@@std@@QBE?AVconst_iterator@12@XZ
_TEXT	SEGMENT
___$ReturnUdt$ = 8					; size = 4
?end@?$vector@VCRespawnInfo@@V?$allocator@VCRespawnInfo@@@std@@@std@@QBE?AVconst_iterator@12@XZ PROC NEAR ; std::vector<CRespawnInfo,std::allocator<CRespawnInfo> >::end, COMDAT
; _this$ = ecx

; 478  : 		return (const_iterator(_Mylast));

  00000	8b 49 08	 mov	 ecx, DWORD PTR [ecx+8]
  00003	8b 44 24 04	 mov	 eax, DWORD PTR ___$ReturnUdt$[esp-4]
  00007	89 08		 mov	 DWORD PTR [eax], ecx

; 479  : 		}

  00009	c2 04 00	 ret	 4
?end@?$vector@VCRespawnInfo@@V?$allocator@VCRespawnInfo@@@std@@@std@@QBE?AVconst_iterator@12@XZ ENDP ; std::vector<CRespawnInfo,std::allocator<CRespawnInfo> >::end
_TEXT	ENDS
PUBLIC	??9const_iterator@?$vector@VCRespawnInfo@@V?$allocator@VCRespawnInfo@@@std@@@std@@QBE_NABV012@@Z ; std::vector<CRespawnInfo,std::allocator<CRespawnInfo> >::const_iterator::operator!=
; Function compile flags: /Ogty
;	COMDAT ??9const_iterator@?$vector@VCRespawnInfo@@V?$allocator@VCRespawnInfo@@@std@@@std@@QBE_NABV012@@Z
_TEXT	SEGMENT
__Right$ = 8						; size = 4
??9const_iterator@?$vector@VCRespawnInfo@@V?$allocator@VCRespawnInfo@@@std@@@std@@QBE_NABV012@@Z PROC NEAR ; std::vector<CRespawnInfo,std::allocator<CRespawnInfo> >::const_iterator::operator!=, COMDAT
; _this$ = ecx

; 160  : 			return (!(*this == _Right));

  00000	8b 01		 mov	 eax, DWORD PTR [ecx]
  00002	8b 54 24 04	 mov	 edx, DWORD PTR __Right$[esp-4]
  00006	56		 push	 esi
  00007	8b 32		 mov	 esi, DWORD PTR [edx]
  00009	33 c9		 xor	 ecx, ecx
  0000b	3b c6		 cmp	 eax, esi
  0000d	0f 95 c1	 setne	 cl
  00010	8a c1		 mov	 al, cl
  00012	5e		 pop	 esi

; 161  : 			}

  00013	c2 04 00	 ret	 4
??9const_iterator@?$vector@VCRespawnInfo@@V?$allocator@VCRespawnInfo@@@std@@@std@@QBE_NABV012@@Z ENDP ; std::vector<CRespawnInfo,std::allocator<CRespawnInfo> >::const_iterator::operator!=
_TEXT	ENDS
PUBLIC	??Diterator@?$vector@VCRespawnInfo@@V?$allocator@VCRespawnInfo@@@std@@@std@@QBEAAVCRespawnInfo@@XZ ; std::vector<CRespawnInfo,std::allocator<CRespawnInfo> >::iterator::operator*
; Function compile flags: /Ogty
;	COMDAT ??Diterator@?$vector@VCRespawnInfo@@V?$allocator@VCRespawnInfo@@@std@@@std@@QBEAAVCRespawnInfo@@XZ
_TEXT	SEGMENT
??Diterator@?$vector@VCRespawnInfo@@V?$allocator@VCRespawnInfo@@@std@@@std@@QBEAAVCRespawnInfo@@XZ PROC NEAR ; std::vector<CRespawnInfo,std::allocator<CRespawnInfo> >::iterator::operator*, COMDAT
; _this$ = ecx

; 220  : 			return ((reference)**(const_iterator *)this);

  00000	8b 01		 mov	 eax, DWORD PTR [ecx]

; 221  : 			}

  00002	c3		 ret	 0
??Diterator@?$vector@VCRespawnInfo@@V?$allocator@VCRespawnInfo@@@std@@@std@@QBEAAVCRespawnInfo@@XZ ENDP ; std::vector<CRespawnInfo,std::allocator<CRespawnInfo> >::iterator::operator*
_TEXT	ENDS
PUBLIC	??0?$_Vector_val@VCRespawnInfo@@V?$allocator@VCRespawnInfo@@@std@@@std@@IAE@V?$allocator@VCRespawnInfo@@@1@@Z ; std::_Vector_val<CRespawnInfo,std::allocator<CRespawnInfo> >::_Vector_val<CRespawnInfo,std::allocator<CRespawnInfo> >
; Function compile flags: /Ogty
;	COMDAT ??0?$_Vector_val@VCRespawnInfo@@V?$allocator@VCRespawnInfo@@@std@@@std@@IAE@V?$allocator@VCRespawnInfo@@@1@@Z
_TEXT	SEGMENT
__Al$ = 8						; size = 1
??0?$_Vector_val@VCRespawnInfo@@V?$allocator@VCRespawnInfo@@@std@@@std@@IAE@V?$allocator@VCRespawnInfo@@@1@@Z PROC NEAR ; std::_Vector_val<CRespawnInfo,std::allocator<CRespawnInfo> >::_Vector_val<CRespawnInfo,std::allocator<CRespawnInfo> >, COMDAT
; _this$ = ecx

; 21   : 		{	// construct allocator from _Al

  00000	8b c1		 mov	 eax, ecx

; 22   : 		}

  00002	c2 04 00	 ret	 4
??0?$_Vector_val@VCRespawnInfo@@V?$allocator@VCRespawnInfo@@@std@@@std@@IAE@V?$allocator@VCRespawnInfo@@@1@@Z ENDP ; std::_Vector_val<CRespawnInfo,std::allocator<CRespawnInfo> >::_Vector_val<CRespawnInfo,std::allocator<CRespawnInfo> >
_TEXT	ENDS
PUBLIC	?_Key@?$_Tree@V?$_Tmap_traits@HPAVCRespawner@@U?$less@H@std@@V?$allocator@U?$pair@$$CBHPAVCRespawner@@@std@@@3@$0A@@std@@@std@@KAABHPAU_Node@?$_Tree_nod@V?$_Tmap_traits@HPAVCRespawner@@U?$less@H@std@@V?$allocator@U?$pair@$$CBHPAVCRespawner@@@std@@@3@$0A@@std@@@2@@Z ; std::_Tree<std::_Tmap_traits<int,CRespawner *,std::less<int>,std::allocator<std::pair<int const ,CRespawner *> >,0> >::_Key
; Function compile flags: /Ogty
; File c:\program files\microsoft visual studio .net 2003\vc7\include\xtree
;	COMDAT ?_Key@?$_Tree@V?$_Tmap_traits@HPAVCRespawner@@U?$less@H@std@@V?$allocator@U?$pair@$$CBHPAVCRespawner@@@std@@@3@$0A@@std@@@std@@KAABHPAU_Node@?$_Tree_nod@V?$_Tmap_traits@HPAVCRespawner@@U?$less@H@std@@V?$allocator@U?$pair@$$CBHPAVCRespawner@@@std@@@3@$0A@@std@@@2@@Z
_TEXT	SEGMENT
__Pnode$ = 8						; size = 4
?_Key@?$_Tree@V?$_Tmap_traits@HPAVCRespawner@@U?$less@H@std@@V?$allocator@U?$pair@$$CBHPAVCRespawner@@@std@@@3@$0A@@std@@@std@@KAABHPAU_Node@?$_Tree_nod@V?$_Tmap_traits@HPAVCRespawner@@U?$less@H@std@@V?$allocator@U?$pair@$$CBHPAVCRespawner@@@std@@@3@$0A@@std@@@2@@Z PROC NEAR ; std::_Tree<std::_Tmap_traits<int,CRespawner *,std::less<int>,std::allocator<std::pair<int const ,CRespawner *> >,0> >::_Key, COMDAT

; 142  : 		return (_Mybase::_Kfn(_Myval(_Pnode)));

  00000	8b 44 24 04	 mov	 eax, DWORD PTR __Pnode$[esp-4]
  00004	83 c0 0c	 add	 eax, 12			; 0000000cH

; 143  : 		}

  00007	c3		 ret	 0
?_Key@?$_Tree@V?$_Tmap_traits@HPAVCRespawner@@U?$less@H@std@@V?$allocator@U?$pair@$$CBHPAVCRespawner@@@std@@@3@$0A@@std@@@std@@KAABHPAU_Node@?$_Tree_nod@V?$_Tmap_traits@HPAVCRespawner@@U?$less@H@std@@V?$allocator@U?$pair@$$CBHPAVCRespawner@@@std@@@3@$0A@@std@@@2@@Z ENDP ; std::_Tree<std::_Tmap_traits<int,CRespawner *,std::less<int>,std::allocator<std::pair<int const ,CRespawner *> >,0> >::_Key
_TEXT	ENDS
PUBLIC	?_Lrotate@?$_Tree@V?$_Tmap_traits@HPAVCRespawner@@U?$less@H@std@@V?$allocator@U?$pair@$$CBHPAVCRespawner@@@std@@@3@$0A@@std@@@std@@IAEXPAU_Node@?$_Tree_nod@V?$_Tmap_traits@HPAVCRespawner@@U?$less@H@std@@V?$allocator@U?$pair@$$CBHPAVCRespawner@@@std@@@3@$0A@@std@@@2@@Z ; std::_Tree<std::_Tmap_traits<int,CRespawner *,std::less<int>,std::allocator<std::pair<int const ,CRespawner *> >,0> >::_Lrotate
; Function compile flags: /Ogty
;	COMDAT ?_Lrotate@?$_Tree@V?$_Tmap_traits@HPAVCRespawner@@U?$less@H@std@@V?$allocator@U?$pair@$$CBHPAVCRespawner@@@std@@@3@$0A@@std@@@std@@IAEXPAU_Node@?$_Tree_nod@V?$_Tmap_traits@HPAVCRespawner@@U?$less@H@std@@V?$allocator@U?$pair@$$CBHPAVCRespawner@@@std@@@3@$0A@@std@@@2@@Z
_TEXT	SEGMENT
__Wherenode$ = 8					; size = 4
?_Lrotate@?$_Tree@V?$_Tmap_traits@HPAVCRespawner@@U?$less@H@std@@V?$allocator@U?$pair@$$CBHPAVCRespawner@@@std@@@3@$0A@@std@@@std@@IAEXPAU_Node@?$_Tree_nod@V?$_Tmap_traits@HPAVCRespawner@@U?$less@H@std@@V?$allocator@U?$pair@$$CBHPAVCRespawner@@@std@@@3@$0A@@std@@@2@@Z PROC NEAR ; std::_Tree<std::_Tmap_traits<int,CRespawner *,std::less<int>,std::allocator<std::pair<int const ,CRespawner *> >,0> >::_Lrotate, COMDAT
; _this$ = ecx

; 1015 : 		_Nodeptr _Pnode = _Right(_Wherenode);

  00000	8b 54 24 04	 mov	 edx, DWORD PTR __Wherenode$[esp-4]
  00004	8b 42 08	 mov	 eax, DWORD PTR [edx+8]
  00007	53		 push	 ebx
  00008	56		 push	 esi

; 1016 : 		_Right(_Wherenode) = _Left(_Pnode);

  00009	8b 30		 mov	 esi, DWORD PTR [eax]
  0000b	89 72 08	 mov	 DWORD PTR [edx+8], esi

; 1017 : 
; 1018 : 		if (!_Isnil(_Left(_Pnode)))

  0000e	8b 30		 mov	 esi, DWORD PTR [eax]
  00010	8a 5e 15	 mov	 bl, BYTE PTR [esi+21]
  00013	84 db		 test	 bl, bl
  00015	75 03		 jne	 SHORT $L229340

; 1019 : 			_Parent(_Left(_Pnode)) = _Wherenode;

  00017	89 56 04	 mov	 DWORD PTR [esi+4], edx
$L229340:

; 1020 : 		_Parent(_Pnode) = _Parent(_Wherenode);

  0001a	8b 72 04	 mov	 esi, DWORD PTR [edx+4]
  0001d	89 70 04	 mov	 DWORD PTR [eax+4], esi

; 1021 : 
; 1022 : 		if (_Wherenode == _Root())

  00020	8b 49 04	 mov	 ecx, DWORD PTR [ecx+4]
  00023	3b 51 04	 cmp	 edx, DWORD PTR [ecx+4]
  00026	75 0d		 jne	 SHORT $L229341

; 1023 : 			_Root() = _Pnode;

  00028	89 41 04	 mov	 DWORD PTR [ecx+4], eax
  0002b	5e		 pop	 esi

; 1028 : 
; 1029 : 		_Left(_Pnode) = _Wherenode;

  0002c	89 10		 mov	 DWORD PTR [eax], edx

; 1030 : 		_Parent(_Wherenode) = _Pnode;

  0002e	89 42 04	 mov	 DWORD PTR [edx+4], eax
  00031	5b		 pop	 ebx

; 1031 : 		}

  00032	c2 04 00	 ret	 4
$L229341:

; 1024 : 		else if (_Wherenode == _Left(_Parent(_Wherenode)))

  00035	8b 4a 04	 mov	 ecx, DWORD PTR [edx+4]
  00038	3b 11		 cmp	 edx, DWORD PTR [ecx]
  0003a	75 0c		 jne	 SHORT $L229343

; 1025 : 			_Left(_Parent(_Wherenode)) = _Pnode;

  0003c	89 01		 mov	 DWORD PTR [ecx], eax
  0003e	5e		 pop	 esi

; 1028 : 
; 1029 : 		_Left(_Pnode) = _Wherenode;

  0003f	89 10		 mov	 DWORD PTR [eax], edx

; 1030 : 		_Parent(_Wherenode) = _Pnode;

  00041	89 42 04	 mov	 DWORD PTR [edx+4], eax
  00044	5b		 pop	 ebx

; 1031 : 		}

  00045	c2 04 00	 ret	 4
$L229343:

; 1026 : 		else
; 1027 : 			_Right(_Parent(_Wherenode)) = _Pnode;

  00048	89 41 08	 mov	 DWORD PTR [ecx+8], eax
  0004b	5e		 pop	 esi

; 1028 : 
; 1029 : 		_Left(_Pnode) = _Wherenode;

  0004c	89 10		 mov	 DWORD PTR [eax], edx

; 1030 : 		_Parent(_Wherenode) = _Pnode;

  0004e	89 42 04	 mov	 DWORD PTR [edx+4], eax
  00051	5b		 pop	 ebx

; 1031 : 		}

  00052	c2 04 00	 ret	 4
?_Lrotate@?$_Tree@V?$_Tmap_traits@HPAVCRespawner@@U?$less@H@std@@V?$allocator@U?$pair@$$CBHPAVCRespawner@@@std@@@3@$0A@@std@@@std@@IAEXPAU_Node@?$_Tree_nod@V?$_Tmap_traits@HPAVCRespawner@@U?$less@H@std@@V?$allocator@U?$pair@$$CBHPAVCRespawner@@@std@@@3@$0A@@std@@@2@@Z ENDP ; std::_Tree<std::_Tmap_traits<int,CRespawner *,std::less<int>,std::allocator<std::pair<int const ,CRespawner *> >,0> >::_Lrotate
_TEXT	ENDS
PUBLIC	?destroy@?$allocator@U_Node@?$_Tree_nod@V?$_Tmap_traits@HPAVCRespawner@@U?$less@H@std@@V?$allocator@U?$pair@$$CBHPAVCRespawner@@@std@@@3@$0A@@std@@@std@@@std@@QAEXPAU_Node@?$_Tree_nod@V?$_Tmap_traits@HPAVCRespawner@@U?$less@H@std@@V?$allocator@U?$pair@$$CBHPAVCRespawner@@@std@@@3@$0A@@std@@@2@@Z ; std::allocator<std::_Tree_nod<std::_Tmap_traits<int,CRespawner *,std::less<int>,std::allocator<std::pair<int const ,CRespawner *> >,0> >::_Node>::destroy
; Function compile flags: /Ogty
; File c:\program files\microsoft visual studio .net 2003\vc7\include\xmemory
;	COMDAT ?destroy@?$allocator@U_Node@?$_Tree_nod@V?$_Tmap_traits@HPAVCRespawner@@U?$less@H@std@@V?$allocator@U?$pair@$$CBHPAVCRespawner@@@std@@@3@$0A@@std@@@std@@@std@@QAEXPAU_Node@?$_Tree_nod@V?$_Tmap_traits@HPAVCRespawner@@U?$less@H@std@@V?$allocator@U?$pair@$$CBHPAVCRespawner@@@std@@@3@$0A@@std@@@2@@Z
_TEXT	SEGMENT
__Ptr$ = 8						; size = 4
?destroy@?$allocator@U_Node@?$_Tree_nod@V?$_Tmap_traits@HPAVCRespawner@@U?$less@H@std@@V?$allocator@U?$pair@$$CBHPAVCRespawner@@@std@@@3@$0A@@std@@@std@@@std@@QAEXPAU_Node@?$_Tree_nod@V?$_Tmap_traits@HPAVCRespawner@@U?$less@H@std@@V?$allocator@U?$pair@$$CBHPAVCRespawner@@@std@@@3@$0A@@std@@@2@@Z PROC NEAR ; std::allocator<std::_Tree_nod<std::_Tmap_traits<int,CRespawner *,std::less<int>,std::allocator<std::pair<int const ,CRespawner *> >,0> >::_Node>::destroy, COMDAT
; _this$ = ecx

; 152  : 		_Destroy(_Ptr);
; 153  : 		}

  00000	c2 04 00	 ret	 4
?destroy@?$allocator@U_Node@?$_Tree_nod@V?$_Tmap_traits@HPAVCRespawner@@U?$less@H@std@@V?$allocator@U?$pair@$$CBHPAVCRespawner@@@std@@@3@$0A@@std@@@std@@@std@@QAEXPAU_Node@?$_Tree_nod@V?$_Tmap_traits@HPAVCRespawner@@U?$less@H@std@@V?$allocator@U?$pair@$$CBHPAVCRespawner@@@std@@@3@$0A@@std@@@2@@Z ENDP ; std::allocator<std::_Tree_nod<std::_Tmap_traits<int,CRespawner *,std::less<int>,std::allocator<std::pair<int const ,CRespawner *> >,0> >::_Node>::destroy
_TEXT	ENDS
PUBLIC	??Hiterator@?$vector@VCRespawnInfo@@V?$allocator@VCRespawnInfo@@@std@@@std@@QBE?AV012@H@Z ; std::vector<CRespawnInfo,std::allocator<CRespawnInfo> >::iterator::operator+
; Function compile flags: /Ogty
; File c:\program files\microsoft visual studio .net 2003\vc7\include\vector
;	COMDAT ??Hiterator@?$vector@VCRespawnInfo@@V?$allocator@VCRespawnInfo@@@std@@@std@@QBE?AV012@H@Z
_TEXT	SEGMENT
___$ReturnUdt$ = 8					; size = 4
__Off$ = 12						; size = 4
??Hiterator@?$vector@VCRespawnInfo@@V?$allocator@VCRespawnInfo@@@std@@@std@@QBE?AV012@H@Z PROC NEAR ; std::vector<CRespawnInfo,std::allocator<CRespawnInfo> >::iterator::operator+, COMDAT
; _this$ = ecx

; 262  : 			iterator _Tmp = *this;
; 263  : 			return (_Tmp += _Off);

  00000	8b 54 24 08	 mov	 edx, DWORD PTR __Off$[esp-4]
  00004	8b 01		 mov	 eax, DWORD PTR [ecx]
  00006	69 d2 48 05 00
	00		 imul	 edx, 1352		; 00000548H
  0000c	03 d0		 add	 edx, eax
  0000e	8b 44 24 04	 mov	 eax, DWORD PTR ___$ReturnUdt$[esp-4]
  00012	89 10		 mov	 DWORD PTR [eax], edx

; 264  : 			}

  00014	c2 08 00	 ret	 8
??Hiterator@?$vector@VCRespawnInfo@@V?$allocator@VCRespawnInfo@@@std@@@std@@QBE?AV012@H@Z ENDP ; std::vector<CRespawnInfo,std::allocator<CRespawnInfo> >::iterator::operator+
_TEXT	ENDS
PUBLIC	??0iterator@?$_Tree@V?$_Tmap_traits@HPAVCRespawner@@U?$less@H@std@@V?$allocator@U?$pair@$$CBHPAVCRespawner@@@std@@@3@$0A@@std@@@std@@QAE@PAU_Node@?$_Tree_nod@V?$_Tmap_traits@HPAVCRespawner@@U?$less@H@std@@V?$allocator@U?$pair@$$CBHPAVCRespawner@@@std@@@3@$0A@@std@@@2@@Z ; std::_Tree<std::_Tmap_traits<int,CRespawner *,std::less<int>,std::allocator<std::pair<int const ,CRespawner *> >,0> >::iterator::iterator
; Function compile flags: /Ogty
; File c:\program files\microsoft visual studio .net 2003\vc7\include\xtree
;	COMDAT ??0iterator@?$_Tree@V?$_Tmap_traits@HPAVCRespawner@@U?$less@H@std@@V?$allocator@U?$pair@$$CBHPAVCRespawner@@@std@@@3@$0A@@std@@@std@@QAE@PAU_Node@?$_Tree_nod@V?$_Tmap_traits@HPAVCRespawner@@U?$less@H@std@@V?$allocator@U?$pair@$$CBHPAVCRespawner@@@std@@@3@$0A@@std@@@2@@Z
_TEXT	SEGMENT
__Pnode$ = 8						; size = 4
??0iterator@?$_Tree@V?$_Tmap_traits@HPAVCRespawner@@U?$less@H@std@@V?$allocator@U?$pair@$$CBHPAVCRespawner@@@std@@@3@$0A@@std@@@std@@QAE@PAU_Node@?$_Tree_nod@V?$_Tmap_traits@HPAVCRespawner@@U?$less@H@std@@V?$allocator@U?$pair@$$CBHPAVCRespawner@@@std@@@3@$0A@@std@@@2@@Z PROC NEAR ; std::_Tree<std::_Tmap_traits<int,CRespawner *,std::less<int>,std::allocator<std::pair<int const ,CRespawner *> >,0> >::iterator::iterator, COMDAT
; _this$ = ecx

; 312  : 			{	// construct with node pointer _Pnode

  00000	8b c1		 mov	 eax, ecx
  00002	8b 4c 24 04	 mov	 ecx, DWORD PTR __Pnode$[esp-4]
  00006	89 08		 mov	 DWORD PTR [eax], ecx

; 313  : 			}

  00008	c2 04 00	 ret	 4
??0iterator@?$_Tree@V?$_Tmap_traits@HPAVCRespawner@@U?$less@H@std@@V?$allocator@U?$pair@$$CBHPAVCRespawner@@@std@@@3@$0A@@std@@@std@@QAE@PAU_Node@?$_Tree_nod@V?$_Tmap_traits@HPAVCRespawner@@U?$less@H@std@@V?$allocator@U?$pair@$$CBHPAVCRespawner@@@std@@@3@$0A@@std@@@2@@Z ENDP ; std::_Tree<std::_Tmap_traits<int,CRespawner *,std::less<int>,std::allocator<std::pair<int const ,CRespawner *> >,0> >::iterator::iterator
_TEXT	ENDS
PUBLIC	??Diterator@?$_Tree@V?$_Tmap_traits@HPAVCRespawner@@U?$less@H@std@@V?$allocator@U?$pair@$$CBHPAVCRespawner@@@std@@@3@$0A@@std@@@std@@QBEAAU?$pair@$$CBHPAVCRespawner@@@2@XZ ; std::_Tree<std::_Tmap_traits<int,CRespawner *,std::less<int>,std::allocator<std::pair<int const ,CRespawner *> >,0> >::iterator::operator*
; Function compile flags: /Ogty
;	COMDAT ??Diterator@?$_Tree@V?$_Tmap_traits@HPAVCRespawner@@U?$less@H@std@@V?$allocator@U?$pair@$$CBHPAVCRespawner@@@std@@@3@$0A@@std@@@std@@QBEAAU?$pair@$$CBHPAVCRespawner@@@2@XZ
_TEXT	SEGMENT
??Diterator@?$_Tree@V?$_Tmap_traits@HPAVCRespawner@@U?$less@H@std@@V?$allocator@U?$pair@$$CBHPAVCRespawner@@@std@@@3@$0A@@std@@@std@@QBEAAU?$pair@$$CBHPAVCRespawner@@@2@XZ PROC NEAR ; std::_Tree<std::_Tmap_traits<int,CRespawner *,std::less<int>,std::allocator<std::pair<int const ,CRespawner *> >,0> >::iterator::operator*, COMDAT
; _this$ = ecx

; 317  : 			return ((reference)**(const_iterator *)this);

  00000	8b 01		 mov	 eax, DWORD PTR [ecx]
  00002	83 c0 0c	 add	 eax, 12			; 0000000cH

; 318  : 			}

  00005	c3		 ret	 0
??Diterator@?$_Tree@V?$_Tmap_traits@HPAVCRespawner@@U?$less@H@std@@V?$allocator@U?$pair@$$CBHPAVCRespawner@@@std@@@3@$0A@@std@@@std@@QBEAAU?$pair@$$CBHPAVCRespawner@@@2@XZ ENDP ; std::_Tree<std::_Tmap_traits<int,CRespawner *,std::less<int>,std::allocator<std::pair<int const ,CRespawner *> >,0> >::iterator::operator*
_TEXT	ENDS
PUBLIC	??Econst_iterator@?$_Tree@V?$_Tmap_traits@HPAVCRespawner@@U?$less@H@std@@V?$allocator@U?$pair@$$CBHPAVCRespawner@@@std@@@3@$0A@@std@@@std@@QAEAAV012@XZ ; std::_Tree<std::_Tmap_traits<int,CRespawner *,std::less<int>,std::allocator<std::pair<int const ,CRespawner *> >,0> >::const_iterator::operator++
; Function compile flags: /Ogty
;	COMDAT ??Econst_iterator@?$_Tree@V?$_Tmap_traits@HPAVCRespawner@@U?$less@H@std@@V?$allocator@U?$pair@$$CBHPAVCRespawner@@@std@@@3@$0A@@std@@@std@@QAEAAV012@XZ
_TEXT	SEGMENT
??Econst_iterator@?$_Tree@V?$_Tmap_traits@HPAVCRespawner@@U?$less@H@std@@V?$allocator@U?$pair@$$CBHPAVCRespawner@@@std@@@3@$0A@@std@@@std@@QAEAAV012@XZ PROC NEAR ; std::_Tree<std::_Tmap_traits<int,CRespawner *,std::less<int>,std::allocator<std::pair<int const ,CRespawner *> >,0> >::const_iterator::operator++, COMDAT
; _this$ = ecx

; 214  : 			{	// preincrement

  00000	56		 push	 esi
  00001	8b f1		 mov	 esi, ecx

; 215  : 			_Inc();

  00003	e8 00 00 00 00	 call	 ?_Inc@const_iterator@?$_Tree@V?$_Tmap_traits@HPAVCRespawner@@U?$less@H@std@@V?$allocator@U?$pair@$$CBHPAVCRespawner@@@std@@@3@$0A@@std@@@std@@QAEXXZ ; std::_Tree<std::_Tmap_traits<int,CRespawner *,std::less<int>,std::allocator<std::pair<int const ,CRespawner *> >,0> >::const_iterator::_Inc

; 216  : 			return (*this);

  00008	8b c6		 mov	 eax, esi
  0000a	5e		 pop	 esi

; 217  : 			}

  0000b	c3		 ret	 0
??Econst_iterator@?$_Tree@V?$_Tmap_traits@HPAVCRespawner@@U?$less@H@std@@V?$allocator@U?$pair@$$CBHPAVCRespawner@@@std@@@3@$0A@@std@@@std@@QAEAAV012@XZ ENDP ; std::_Tree<std::_Tmap_traits<int,CRespawner *,std::less<int>,std::allocator<std::pair<int const ,CRespawner *> >,0> >::const_iterator::operator++
_TEXT	ENDS
PUBLIC	?max_size@?$vector@VCRespawnInfo@@V?$allocator@VCRespawnInfo@@@std@@@std@@QBEIXZ ; std::vector<CRespawnInfo,std::allocator<CRespawnInfo> >::max_size
; Function compile flags: /Ogty
; File c:\program files\microsoft visual studio .net 2003\vc7\include\vector
;	COMDAT ?max_size@?$vector@VCRespawnInfo@@V?$allocator@VCRespawnInfo@@@std@@@std@@QBEIXZ
_TEXT	SEGMENT
?max_size@?$vector@VCRespawnInfo@@V?$allocator@VCRespawnInfo@@@std@@@std@@QBEIXZ PROC NEAR ; std::vector<CRespawnInfo,std::allocator<CRespawnInfo> >::max_size, COMDAT
; _this$ = ecx

; 521  : 		return (this->_Alval.max_size());

  00000	b8 2e 79 30 00	 mov	 eax, 3176750		; 0030792eH

; 522  : 		}

  00005	c3		 ret	 0
?max_size@?$vector@VCRespawnInfo@@V?$allocator@VCRespawnInfo@@@std@@@std@@QBEIXZ ENDP ; std::vector<CRespawnInfo,std::allocator<CRespawnInfo> >::max_size
_TEXT	ENDS
PUBLIC	?allocate@?$allocator@VCRespawnInfo@@@std@@QAEPAVCRespawnInfo@@I@Z ; std::allocator<CRespawnInfo>::allocate
; Function compile flags: /Ogty
; File c:\program files\microsoft visual studio .net 2003\vc7\include\xmemory
;	COMDAT ?allocate@?$allocator@VCRespawnInfo@@@std@@QAEPAVCRespawnInfo@@I@Z
_TEXT	SEGMENT
__Count$ = 8						; size = 4
?allocate@?$allocator@VCRespawnInfo@@@std@@QAEPAVCRespawnInfo@@I@Z PROC NEAR ; std::allocator<CRespawnInfo>::allocate, COMDAT
; _this$ = ecx

; 137  : 		return (_Allocate(_Count, (pointer)0));

  00000	8b 44 24 04	 mov	 eax, DWORD PTR __Count$[esp-4]
  00004	69 c0 48 05 00
	00		 imul	 eax, 1352		; 00000548H
  0000a	50		 push	 eax
  0000b	e8 00 00 00 00	 call	 ??2@YAPAXI@Z		; operator new
  00010	83 c4 04	 add	 esp, 4

; 138  : 		}

  00013	c2 04 00	 ret	 4
?allocate@?$allocator@VCRespawnInfo@@@std@@QAEPAVCRespawnInfo@@I@Z ENDP ; std::allocator<CRespawnInfo>::allocate
_TEXT	ENDS
PUBLIC	?max_size@?$_Tree@V?$_Tmap_traits@HPAVCRespawner@@U?$less@H@std@@V?$allocator@U?$pair@$$CBHPAVCRespawner@@@std@@@3@$0A@@std@@@std@@QBEIXZ ; std::_Tree<std::_Tmap_traits<int,CRespawner *,std::less<int>,std::allocator<std::pair<int const ,CRespawner *> >,0> >::max_size
; Function compile flags: /Ogty
; File c:\program files\microsoft visual studio .net 2003\vc7\include\xtree
;	COMDAT ?max_size@?$_Tree@V?$_Tmap_traits@HPAVCRespawner@@U?$less@H@std@@V?$allocator@U?$pair@$$CBHPAVCRespawner@@@std@@@3@$0A@@std@@@std@@QBEIXZ
_TEXT	SEGMENT
?max_size@?$_Tree@V?$_Tmap_traits@HPAVCRespawner@@U?$less@H@std@@V?$allocator@U?$pair@$$CBHPAVCRespawner@@@std@@@3@$0A@@std@@@std@@QBEIXZ PROC NEAR ; std::_Tree<std::_Tmap_traits<int,CRespawner *,std::less<int>,std::allocator<std::pair<int const ,CRespawner *> >,0> >::max_size, COMDAT
; _this$ = ecx

; 453  : 		return (this->_Alval.max_size());

  00000	b8 ff ff ff 1f	 mov	 eax, 536870911		; 1fffffffH

; 454  : 		}

  00005	c3		 ret	 0
?max_size@?$_Tree@V?$_Tmap_traits@HPAVCRespawner@@U?$less@H@std@@V?$allocator@U?$pair@$$CBHPAVCRespawner@@@std@@@3@$0A@@std@@@std@@QBEIXZ ENDP ; std::_Tree<std::_Tmap_traits<int,CRespawner *,std::less<int>,std::allocator<std::pair<int const ,CRespawner *> >,0> >::max_size
_TEXT	ENDS
PUBLIC	?_Lbound@?$_Tree@V?$_Tmap_traits@HPAVCRespawner@@U?$less@H@std@@V?$allocator@U?$pair@$$CBHPAVCRespawner@@@std@@@3@$0A@@std@@@std@@IBEPAU_Node@?$_Tree_nod@V?$_Tmap_traits@HPAVCRespawner@@U?$less@H@std@@V?$allocator@U?$pair@$$CBHPAVCRespawner@@@std@@@3@$0A@@std@@@2@ABH@Z ; std::_Tree<std::_Tmap_traits<int,CRespawner *,std::less<int>,std::allocator<std::pair<int const ,CRespawner *> >,0> >::_Lbound
; Function compile flags: /Ogty
;	COMDAT ?_Lbound@?$_Tree@V?$_Tmap_traits@HPAVCRespawner@@U?$less@H@std@@V?$allocator@U?$pair@$$CBHPAVCRespawner@@@std@@@3@$0A@@std@@@std@@IBEPAU_Node@?$_Tree_nod@V?$_Tmap_traits@HPAVCRespawner@@U?$less@H@std@@V?$allocator@U?$pair@$$CBHPAVCRespawner@@@std@@@3@$0A@@std@@@2@ABH@Z
_TEXT	SEGMENT
__Keyval$ = 8						; size = 4
?_Lbound@?$_Tree@V?$_Tmap_traits@HPAVCRespawner@@U?$less@H@std@@V?$allocator@U?$pair@$$CBHPAVCRespawner@@@std@@@3@$0A@@std@@@std@@IBEPAU_Node@?$_Tree_nod@V?$_Tmap_traits@HPAVCRespawner@@U?$less@H@std@@V?$allocator@U?$pair@$$CBHPAVCRespawner@@@std@@@3@$0A@@std@@@2@ABH@Z PROC NEAR ; std::_Tree<std::_Tmap_traits<int,CRespawner *,std::less<int>,std::allocator<std::pair<int const ,CRespawner *> >,0> >::_Lbound, COMDAT
; _this$ = ecx

; 988  : 		_Nodeptr _Pnode = _Root();

  00000	8b 41 04	 mov	 eax, DWORD PTR [ecx+4]
  00003	8b 48 04	 mov	 ecx, DWORD PTR [eax+4]

; 989  : 		_Nodeptr _Wherenode = _Myhead;	// end() if search fails
; 990  : 
; 991  : 		while (!_Isnil(_Pnode))

  00006	8a 51 15	 mov	 dl, BYTE PTR [ecx+21]
  00009	84 d2		 test	 dl, dl
  0000b	75 1d		 jne	 SHORT $L229557
  0000d	8b 54 24 04	 mov	 edx, DWORD PTR __Keyval$[esp-4]
  00011	8b 12		 mov	 edx, DWORD PTR [edx]
  00013	53		 push	 ebx
$L229556:

; 992  : 			if (this->comp(_Key(_Pnode), _Keyval))

  00014	39 51 0c	 cmp	 DWORD PTR [ecx+12], edx
  00017	7d 05		 jge	 SHORT $L229558

; 993  : 				_Pnode = _Right(_Pnode);	// descend right subtree

  00019	8b 49 08	 mov	 ecx, DWORD PTR [ecx+8]

; 994  : 			else

  0001c	eb 04		 jmp	 SHORT $L229559
$L229558:

; 995  : 				{	// _Pnode not less than _Keyval, remember it
; 996  : 				_Wherenode = _Pnode;

  0001e	8b c1		 mov	 eax, ecx

; 997  : 				_Pnode = _Left(_Pnode);	// descend left subtree

  00020	8b 09		 mov	 ecx, DWORD PTR [ecx]
$L229559:
  00022	8a 59 15	 mov	 bl, BYTE PTR [ecx+21]
  00025	84 db		 test	 bl, bl
  00027	74 eb		 je	 SHORT $L229556
  00029	5b		 pop	 ebx
$L229557:

; 998  : 				}
; 999  : 
; 1000 : 		return (_Wherenode);	// return best remembered candidate
; 1001 : 		}

  0002a	c2 04 00	 ret	 4
?_Lbound@?$_Tree@V?$_Tmap_traits@HPAVCRespawner@@U?$less@H@std@@V?$allocator@U?$pair@$$CBHPAVCRespawner@@@std@@@3@$0A@@std@@@std@@IBEPAU_Node@?$_Tree_nod@V?$_Tmap_traits@HPAVCRespawner@@U?$less@H@std@@V?$allocator@U?$pair@$$CBHPAVCRespawner@@@std@@@3@$0A@@std@@@2@ABH@Z ENDP ; std::_Tree<std::_Tmap_traits<int,CRespawner *,std::less<int>,std::allocator<std::pair<int const ,CRespawner *> >,0> >::_Lbound
_TEXT	ENDS
PUBLIC	?destroy@?$allocator@PAU_Node@?$_Tree_nod@V?$_Tmap_traits@HPAVCRespawner@@U?$less@H@std@@V?$allocator@U?$pair@$$CBHPAVCRespawner@@@std@@@3@$0A@@std@@@std@@@std@@QAEXPAPAU_Node@?$_Tree_nod@V?$_Tmap_traits@HPAVCRespawner@@U?$less@H@std@@V?$allocator@U?$pair@$$CBHPAVCRespawner@@@std@@@3@$0A@@std@@@2@@Z ; std::allocator<std::_Tree_nod<std::_Tmap_traits<int,CRespawner *,std::less<int>,std::allocator<std::pair<int const ,CRespawner *> >,0> >::_Node *>::destroy
; Function compile flags: /Ogty
; File c:\program files\microsoft visual studio .net 2003\vc7\include\xmemory
;	COMDAT ?destroy@?$allocator@PAU_Node@?$_Tree_nod@V?$_Tmap_traits@HPAVCRespawner@@U?$less@H@std@@V?$allocator@U?$pair@$$CBHPAVCRespawner@@@std@@@3@$0A@@std@@@std@@@std@@QAEXPAPAU_Node@?$_Tree_nod@V?$_Tmap_traits@HPAVCRespawner@@U?$less@H@std@@V?$allocator@U?$pair@$$CBHPAVCRespawner@@@std@@@3@$0A@@std@@@2@@Z
_TEXT	SEGMENT
__Ptr$ = 8						; size = 4
?destroy@?$allocator@PAU_Node@?$_Tree_nod@V?$_Tmap_traits@HPAVCRespawner@@U?$less@H@std@@V?$allocator@U?$pair@$$CBHPAVCRespawner@@@std@@@3@$0A@@std@@@std@@@std@@QAEXPAPAU_Node@?$_Tree_nod@V?$_Tmap_traits@HPAVCRespawner@@U?$less@H@std@@V?$allocator@U?$pair@$$CBHPAVCRespawner@@@std@@@3@$0A@@std@@@2@@Z PROC NEAR ; std::allocator<std::_Tree_nod<std::_Tmap_traits<int,CRespawner *,std::less<int>,std::allocator<std::pair<int const ,CRespawner *> >,0> >::_Node *>::destroy, COMDAT
; _this$ = ecx

; 152  : 		_Destroy(_Ptr);
; 153  : 		}

  00000	c2 04 00	 ret	 4
?destroy@?$allocator@PAU_Node@?$_Tree_nod@V?$_Tmap_traits@HPAVCRespawner@@U?$less@H@std@@V?$allocator@U?$pair@$$CBHPAVCRespawner@@@std@@@3@$0A@@std@@@std@@@std@@QAEXPAPAU_Node@?$_Tree_nod@V?$_Tmap_traits@HPAVCRespawner@@U?$less@H@std@@V?$allocator@U?$pair@$$CBHPAVCRespawner@@@std@@@3@$0A@@std@@@2@@Z ENDP ; std::allocator<std::_Tree_nod<std::_Tmap_traits<int,CRespawner *,std::less<int>,std::allocator<std::pair<int const ,CRespawner *> >,0> >::_Node *>::destroy
_TEXT	ENDS
PUBLIC	??Giterator@?$vector@VCRespawnInfo@@V?$allocator@VCRespawnInfo@@@std@@@std@@QBEHABVconst_iterator@12@@Z ; std::vector<CRespawnInfo,std::allocator<CRespawnInfo> >::iterator::operator-
; Function compile flags: /Ogty
; File c:\program files\microsoft visual studio .net 2003\vc7\include\vector
;	COMDAT ??Giterator@?$vector@VCRespawnInfo@@V?$allocator@VCRespawnInfo@@@std@@@std@@QBEHABVconst_iterator@12@@Z
_TEXT	SEGMENT
__Right$ = 8						; size = 4
??Giterator@?$vector@VCRespawnInfo@@V?$allocator@VCRespawnInfo@@@std@@@std@@QBEHABVconst_iterator@12@@Z PROC NEAR ; std::vector<CRespawnInfo,std::allocator<CRespawnInfo> >::iterator::operator-, COMDAT
; _this$ = ecx

; 279  : 			return ((const_iterator)*this - _Right);

  00000	8b 01		 mov	 eax, DWORD PTR [ecx]
  00002	8b 4c 24 04	 mov	 ecx, DWORD PTR __Right$[esp-4]
  00006	2b 01		 sub	 eax, DWORD PTR [ecx]
  00008	8b c8		 mov	 ecx, eax
  0000a	b8 eb 5d f2 60	 mov	 eax, 1626496491		; 60f25debH
  0000f	f7 e9		 imul	 ecx
  00011	c1 fa 09	 sar	 edx, 9
  00014	8b c2		 mov	 eax, edx
  00016	c1 e8 1f	 shr	 eax, 31			; 0000001fH
  00019	03 c2		 add	 eax, edx

; 280  : 			}

  0001b	c2 04 00	 ret	 4
??Giterator@?$vector@VCRespawnInfo@@V?$allocator@VCRespawnInfo@@@std@@@std@@QBEHABVconst_iterator@12@@Z ENDP ; std::vector<CRespawnInfo,std::allocator<CRespawnInfo> >::iterator::operator-
_TEXT	ENDS
PUBLIC	??Fconst_iterator@?$_Tree@V?$_Tmap_traits@HPAVCRespawner@@U?$less@H@std@@V?$allocator@U?$pair@$$CBHPAVCRespawner@@@std@@@3@$0A@@std@@@std@@QAEAAV012@XZ ; std::_Tree<std::_Tmap_traits<int,CRespawner *,std::less<int>,std::allocator<std::pair<int const ,CRespawner *> >,0> >::const_iterator::operator--
; Function compile flags: /Ogty
; File c:\program files\microsoft visual studio .net 2003\vc7\include\xtree
;	COMDAT ??Fconst_iterator@?$_Tree@V?$_Tmap_traits@HPAVCRespawner@@U?$less@H@std@@V?$allocator@U?$pair@$$CBHPAVCRespawner@@@std@@@3@$0A@@std@@@std@@QAEAAV012@XZ
_TEXT	SEGMENT
??Fconst_iterator@?$_Tree@V?$_Tmap_traits@HPAVCRespawner@@U?$less@H@std@@V?$allocator@U?$pair@$$CBHPAVCRespawner@@@std@@@3@$0A@@std@@@std@@QAEAAV012@XZ PROC NEAR ; std::_Tree<std::_Tmap_traits<int,CRespawner *,std::less<int>,std::allocator<std::pair<int const ,CRespawner *> >,0> >::const_iterator::operator--, COMDAT
; _this$ = ecx

; 227  : 			{	// predecrement

  00000	56		 push	 esi
  00001	8b f1		 mov	 esi, ecx

; 228  : 			_Dec();

  00003	e8 00 00 00 00	 call	 ?_Dec@const_iterator@?$_Tree@V?$_Tmap_traits@HPAVCRespawner@@U?$less@H@std@@V?$allocator@U?$pair@$$CBHPAVCRespawner@@@std@@@3@$0A@@std@@@std@@QAEXXZ ; std::_Tree<std::_Tmap_traits<int,CRespawner *,std::less<int>,std::allocator<std::pair<int const ,CRespawner *> >,0> >::const_iterator::_Dec

; 229  : 			return (*this);

  00008	8b c6		 mov	 eax, esi
  0000a	5e		 pop	 esi

; 230  : 			}

  0000b	c3		 ret	 0
??Fconst_iterator@?$_Tree@V?$_Tmap_traits@HPAVCRespawner@@U?$less@H@std@@V?$allocator@U?$pair@$$CBHPAVCRespawner@@@std@@@3@$0A@@std@@@std@@QAEAAV012@XZ ENDP ; std::_Tree<std::_Tmap_traits<int,CRespawner *,std::less<int>,std::allocator<std::pair<int const ,CRespawner *> >,0> >::const_iterator::operator--
_TEXT	ENDS
PUBLIC	?allocate@?$allocator@U_Node@?$_Tree_nod@V?$_Tmap_traits@HPAVCRespawner@@U?$less@H@std@@V?$allocator@U?$pair@$$CBHPAVCRespawner@@@std@@@3@$0A@@std@@@std@@@std@@QAEPAU_Node@?$_Tree_nod@V?$_Tmap_traits@HPAVCRespawner@@U?$less@H@std@@V?$allocator@U?$pair@$$CBHPAVCRespawner@@@std@@@3@$0A@@std@@@2@I@Z ; std::allocator<std::_Tree_nod<std::_Tmap_traits<int,CRespawner *,std::less<int>,std::allocator<std::pair<int const ,CRespawner *> >,0> >::_Node>::allocate
; Function compile flags: /Ogty
; File c:\program files\microsoft visual studio .net 2003\vc7\include\xmemory
;	COMDAT ?allocate@?$allocator@U_Node@?$_Tree_nod@V?$_Tmap_traits@HPAVCRespawner@@U?$less@H@std@@V?$allocator@U?$pair@$$CBHPAVCRespawner@@@std@@@3@$0A@@std@@@std@@@std@@QAEPAU_Node@?$_Tree_nod@V?$_Tmap_traits@HPAVCRespawner@@U?$less@H@std@@V?$allocator@U?$pair@$$CBHPAVCRespawner@@@std@@@3@$0A@@std@@@2@I@Z
_TEXT	SEGMENT
__Count$ = 8						; size = 4
?allocate@?$allocator@U_Node@?$_Tree_nod@V?$_Tmap_traits@HPAVCRespawner@@U?$less@H@std@@V?$allocator@U?$pair@$$CBHPAVCRespawner@@@std@@@3@$0A@@std@@@std@@@std@@QAEPAU_Node@?$_Tree_nod@V?$_Tmap_traits@HPAVCRespawner@@U?$less@H@std@@V?$allocator@U?$pair@$$CBHPAVCRespawner@@@std@@@3@$0A@@std@@@2@I@Z PROC NEAR ; std::allocator<std::_Tree_nod<std::_Tmap_traits<int,CRespawner *,std::less<int>,std::allocator<std::pair<int const ,CRespawner *> >,0> >::_Node>::allocate, COMDAT
; _this$ = ecx

; 137  : 		return (_Allocate(_Count, (pointer)0));

  00000	8b 44 24 04	 mov	 eax, DWORD PTR __Count$[esp-4]
  00004	8d 04 40	 lea	 eax, DWORD PTR [eax+eax*2]
  00007	c1 e0 03	 shl	 eax, 3
  0000a	50		 push	 eax
  0000b	e8 00 00 00 00	 call	 ??2@YAPAXI@Z		; operator new
  00010	83 c4 04	 add	 esp, 4

; 138  : 		}

  00013	c2 04 00	 ret	 4
?allocate@?$allocator@U_Node@?$_Tree_nod@V?$_Tmap_traits@HPAVCRespawner@@U?$less@H@std@@V?$allocator@U?$pair@$$CBHPAVCRespawner@@@std@@@3@$0A@@std@@@std@@@std@@QAEPAU_Node@?$_Tree_nod@V?$_Tmap_traits@HPAVCRespawner@@U?$less@H@std@@V?$allocator@U?$pair@$$CBHPAVCRespawner@@@std@@@3@$0A@@std@@@2@I@Z ENDP ; std::allocator<std::_Tree_nod<std::_Tmap_traits<int,CRespawner *,std::less<int>,std::allocator<std::pair<int const ,CRespawner *> >,0> >::_Node>::allocate
_TEXT	ENDS
PUBLIC	??0?$_Tree_nod@V?$_Tmap_traits@HPAVCRespawner@@U?$less@H@std@@V?$allocator@U?$pair@$$CBHPAVCRespawner@@@std@@@3@$0A@@std@@@std@@IAE@ABU?$less@H@1@V?$allocator@U?$pair@$$CBHPAVCRespawner@@@std@@@1@@Z ; std::_Tree_nod<std::_Tmap_traits<int,CRespawner *,std::less<int>,std::allocator<std::pair<int const ,CRespawner *> >,0> >::_Tree_nod<std::_Tmap_traits<int,CRespawner *,std::less<int>,std::allocator<std::pair<int const ,CRespawner *> >,0> >
; Function compile flags: /Ogty
; File c:\program files\microsoft visual studio .net 2003\vc7\include\xtree
;	COMDAT ??0?$_Tree_nod@V?$_Tmap_traits@HPAVCRespawner@@U?$less@H@std@@V?$allocator@U?$pair@$$CBHPAVCRespawner@@@std@@@3@$0A@@std@@@std@@IAE@ABU?$less@H@1@V?$allocator@U?$pair@$$CBHPAVCRespawner@@@std@@@1@@Z
_TEXT	SEGMENT
__Parg$ = 8						; size = 4
__Al$ = 12						; size = 1
??0?$_Tree_nod@V?$_Tmap_traits@HPAVCRespawner@@U?$less@H@std@@V?$allocator@U?$pair@$$CBHPAVCRespawner@@@std@@@3@$0A@@std@@@std@@IAE@ABU?$less@H@1@V?$allocator@U?$pair@$$CBHPAVCRespawner@@@std@@@1@@Z PROC NEAR ; std::_Tree_nod<std::_Tmap_traits<int,CRespawner *,std::less<int>,std::allocator<std::pair<int const ,CRespawner *> >,0> >::_Tree_nod<std::_Tmap_traits<int,CRespawner *,std::less<int>,std::allocator<std::pair<int const ,CRespawner *> >,0> >, COMDAT
; _this$ = ecx

; 54   : 		{	// construct traits from _Parg and allocator from _Al

  00000	8b c1		 mov	 eax, ecx

; 55   : 		}

  00002	c2 08 00	 ret	 8
??0?$_Tree_nod@V?$_Tmap_traits@HPAVCRespawner@@U?$less@H@std@@V?$allocator@U?$pair@$$CBHPAVCRespawner@@@std@@@3@$0A@@std@@@std@@IAE@ABU?$less@H@1@V?$allocator@U?$pair@$$CBHPAVCRespawner@@@std@@@1@@Z ENDP ; std::_Tree_nod<std::_Tmap_traits<int,CRespawner *,std::less<int>,std::allocator<std::pair<int const ,CRespawner *> >,0> >::_Tree_nod<std::_Tmap_traits<int,CRespawner *,std::less<int>,std::allocator<std::pair<int const ,CRespawner *> >,0> >
_TEXT	ENDS
PUBLIC	?construct@?$allocator@PAU_Node@?$_Tree_nod@V?$_Tmap_traits@HPAVCRespawner@@U?$less@H@std@@V?$allocator@U?$pair@$$CBHPAVCRespawner@@@std@@@3@$0A@@std@@@std@@@std@@QAEXPAPAU_Node@?$_Tree_nod@V?$_Tmap_traits@HPAVCRespawner@@U?$less@H@std@@V?$allocator@U?$pair@$$CBHPAVCRespawner@@@std@@@3@$0A@@std@@@2@ABQAU342@@Z ; std::allocator<std::_Tree_nod<std::_Tmap_traits<int,CRespawner *,std::less<int>,std::allocator<std::pair<int const ,CRespawner *> >,0> >::_Node *>::construct
; Function compile flags: /Ogty
; File c:\program files\microsoft visual studio .net 2003\vc7\include\xmemory
;	COMDAT ?construct@?$allocator@PAU_Node@?$_Tree_nod@V?$_Tmap_traits@HPAVCRespawner@@U?$less@H@std@@V?$allocator@U?$pair@$$CBHPAVCRespawner@@@std@@@3@$0A@@std@@@std@@@std@@QAEXPAPAU_Node@?$_Tree_nod@V?$_Tmap_traits@HPAVCRespawner@@U?$less@H@std@@V?$allocator@U?$pair@$$CBHPAVCRespawner@@@std@@@3@$0A@@std@@@2@ABQAU342@@Z
_TEXT	SEGMENT
__Ptr$ = 8						; size = 4
__Val$ = 12						; size = 4
?construct@?$allocator@PAU_Node@?$_Tree_nod@V?$_Tmap_traits@HPAVCRespawner@@U?$less@H@std@@V?$allocator@U?$pair@$$CBHPAVCRespawner@@@std@@@3@$0A@@std@@@std@@@std@@QAEXPAPAU_Node@?$_Tree_nod@V?$_Tmap_traits@HPAVCRespawner@@U?$less@H@std@@V?$allocator@U?$pair@$$CBHPAVCRespawner@@@std@@@3@$0A@@std@@@2@ABQAU342@@Z PROC NEAR ; std::allocator<std::_Tree_nod<std::_Tmap_traits<int,CRespawner *,std::less<int>,std::allocator<std::pair<int const ,CRespawner *> >,0> >::_Node *>::construct, COMDAT
; _this$ = ecx

; 147  : 		_Construct(_Ptr, _Val);

  00000	8b 44 24 04	 mov	 eax, DWORD PTR __Ptr$[esp-4]
  00004	85 c0		 test	 eax, eax
  00006	74 08		 je	 SHORT $L232331
  00008	8b 4c 24 08	 mov	 ecx, DWORD PTR __Val$[esp-4]
  0000c	8b 11		 mov	 edx, DWORD PTR [ecx]
  0000e	89 10		 mov	 DWORD PTR [eax], edx
$L232331:

; 148  : 		}

  00010	c2 08 00	 ret	 8
?construct@?$allocator@PAU_Node@?$_Tree_nod@V?$_Tmap_traits@HPAVCRespawner@@U?$less@H@std@@V?$allocator@U?$pair@$$CBHPAVCRespawner@@@std@@@3@$0A@@std@@@std@@@std@@QAEXPAPAU_Node@?$_Tree_nod@V?$_Tmap_traits@HPAVCRespawner@@U?$less@H@std@@V?$allocator@U?$pair@$$CBHPAVCRespawner@@@std@@@3@$0A@@std@@@2@ABQAU342@@Z ENDP ; std::allocator<std::_Tree_nod<std::_Tmap_traits<int,CRespawner *,std::less<int>,std::allocator<std::pair<int const ,CRespawner *> >,0> >::_Node *>::construct
_TEXT	ENDS
PUBLIC	??$copy@PAVCRespawnInfo@@PAV1@@std@@YAPAVCRespawnInfo@@PAV1@00@Z ; std::copy<CRespawnInfo *,CRespawnInfo *>
; Function compile flags: /Ogty
; File c:\program files\microsoft visual studio .net 2003\vc7\include\xutility
;	COMDAT ??$copy@PAVCRespawnInfo@@PAV1@@std@@YAPAVCRespawnInfo@@PAV1@00@Z
_TEXT	SEGMENT
__Cat$232342 = -4					; size = 1
__First$ = 8						; size = 4
__Last$ = 12						; size = 4
__Dest$ = 16						; size = 4
??$copy@PAVCRespawnInfo@@PAV1@@std@@YAPAVCRespawnInfo@@PAV1@00@Z PROC NEAR ; std::copy<CRespawnInfo *,CRespawnInfo *>, COMDAT

; 1039 : 	{	// copy [_First, _Last) to [_Dest, ...)

  00000	51		 push	 ecx

; 1040 : 	return (_Copy_opt(_First, _Last, _Dest, _Ptr_cat(_First, _Dest)));

  00001	8b 04 24	 mov	 eax, DWORD PTR __Cat$232342[esp+4]
  00004	8b 4c 24 10	 mov	 ecx, DWORD PTR __Dest$[esp]
  00008	8b 54 24 0c	 mov	 edx, DWORD PTR __Last$[esp]
  0000c	50		 push	 eax
  0000d	8b 44 24 0c	 mov	 eax, DWORD PTR __First$[esp+4]
  00011	51		 push	 ecx
  00012	52		 push	 edx
  00013	50		 push	 eax
  00014	e8 00 00 00 00	 call	 ??$_Copy_opt@PAVCRespawnInfo@@PAV1@@std@@YAPAVCRespawnInfo@@PAV1@00U_Nonscalar_ptr_iterator_tag@0@@Z ; std::_Copy_opt<CRespawnInfo *,CRespawnInfo *>

; 1041 : 	}

  00019	83 c4 14	 add	 esp, 20			; 00000014H
  0001c	c3		 ret	 0
??$copy@PAVCRespawnInfo@@PAV1@@std@@YAPAVCRespawnInfo@@PAV1@00@Z ENDP ; std::copy<CRespawnInfo *,CRespawnInfo *>
_TEXT	ENDS
PUBLIC	??$copy_backward@PAVCRespawnInfo@@PAV1@@std@@YAPAVCRespawnInfo@@PAV1@00@Z ; std::copy_backward<CRespawnInfo *,CRespawnInfo *>
; Function compile flags: /Ogty
;	COMDAT ??$copy_backward@PAVCRespawnInfo@@PAV1@@std@@YAPAVCRespawnInfo@@PAV1@00@Z
_TEXT	SEGMENT
__Cat$232350 = -4					; size = 1
__First$ = 8						; size = 4
__Last$ = 12						; size = 4
__Dest$ = 16						; size = 4
??$copy_backward@PAVCRespawnInfo@@PAV1@@std@@YAPAVCRespawnInfo@@PAV1@00@Z PROC NEAR ; std::copy_backward<CRespawnInfo *,CRespawnInfo *>, COMDAT

; 1067 : 	{	// copy [_First, _Last) backwards to [..., _Dest)

  00000	51		 push	 ecx

; 1068 : 	return (_Copy_backward_opt(_First, _Last, _Dest,
; 1069 : 		_Ptr_cat(_First, _Dest)));

  00001	8b 04 24	 mov	 eax, DWORD PTR __Cat$232350[esp+4]
  00004	8b 4c 24 10	 mov	 ecx, DWORD PTR __Dest$[esp]
  00008	8b 54 24 0c	 mov	 edx, DWORD PTR __Last$[esp]
  0000c	50		 push	 eax
  0000d	8b 44 24 0c	 mov	 eax, DWORD PTR __First$[esp+4]
  00011	51		 push	 ecx
  00012	52		 push	 edx
  00013	50		 push	 eax
  00014	e8 00 00 00 00	 call	 ??$_Copy_backward_opt@PAVCRespawnInfo@@PAV1@@std@@YAPAVCRespawnInfo@@PAV1@00U_Nonscalar_ptr_iterator_tag@0@@Z ; std::_Copy_backward_opt<CRespawnInfo *,CRespawnInfo *>

; 1070 : 	}

  00019	83 c4 14	 add	 esp, 20			; 00000014H
  0001c	c3		 ret	 0
??$copy_backward@PAVCRespawnInfo@@PAV1@@std@@YAPAVCRespawnInfo@@PAV1@00@Z ENDP ; std::copy_backward<CRespawnInfo *,CRespawnInfo *>
_TEXT	ENDS
PUBLIC	?destroy@?$allocator@VCRespawnInfo@@@std@@QAEXPAVCRespawnInfo@@@Z ; std::allocator<CRespawnInfo>::destroy
; Function compile flags: /Ogty
; File c:\program files\microsoft visual studio .net 2003\vc7\include\xmemory
;	COMDAT ?destroy@?$allocator@VCRespawnInfo@@@std@@QAEXPAVCRespawnInfo@@@Z
_TEXT	SEGMENT
__Ptr$ = 8						; size = 4
?destroy@?$allocator@VCRespawnInfo@@@std@@QAEXPAVCRespawnInfo@@@Z PROC NEAR ; std::allocator<CRespawnInfo>::destroy, COMDAT
; _this$ = ecx

; 152  : 		_Destroy(_Ptr);

  00000	8b 4c 24 04	 mov	 ecx, DWORD PTR __Ptr$[esp-4]
  00004	8b 01		 mov	 eax, DWORD PTR [ecx]
  00006	c7 44 24 04 00
	00 00 00	 mov	 DWORD PTR __Ptr$[esp-4], 0
  0000e	ff 20		 jmp	 DWORD PTR [eax]
?destroy@?$allocator@VCRespawnInfo@@@std@@QAEXPAVCRespawnInfo@@@Z ENDP ; std::allocator<CRespawnInfo>::destroy
_TEXT	ENDS
PUBLIC	??$_Construct@VCRespawnInfo@@V1@@std@@YAXPAVCRespawnInfo@@ABV1@@Z ; std::_Construct<CRespawnInfo,CRespawnInfo>
; Function compile flags: /Ogty
;	COMDAT ??$_Construct@VCRespawnInfo@@V1@@std@@YAXPAVCRespawnInfo@@ABV1@@Z
_TEXT	SEGMENT
__Ptr$ = 8						; size = 4
__Val$ = 12						; size = 4
??$_Construct@VCRespawnInfo@@V1@@std@@YAXPAVCRespawnInfo@@ABV1@@Z PROC NEAR ; std::_Construct<CRespawnInfo,CRespawnInfo>, COMDAT

; 42   : 	new ((void _FARQ *)_Ptr) _T1(_Val);

  00000	8b 4c 24 04	 mov	 ecx, DWORD PTR __Ptr$[esp-4]
  00004	85 c9		 test	 ecx, ecx
  00006	74 0a		 je	 SHORT $L232362
  00008	8b 44 24 08	 mov	 eax, DWORD PTR __Val$[esp-4]
  0000c	50		 push	 eax
  0000d	e8 00 00 00 00	 call	 ??0CRespawnInfo@@QAE@ABV0@@Z ; CRespawnInfo::CRespawnInfo
$L232362:

; 43   : 	}

  00012	c3		 ret	 0
??$_Construct@VCRespawnInfo@@V1@@std@@YAXPAVCRespawnInfo@@ABV1@@Z ENDP ; std::_Construct<CRespawnInfo,CRespawnInfo>
_TEXT	ENDS
PUBLIC	??$_Distance@Vconst_iterator@?$vector@VCRespawnInfo@@V?$allocator@VCRespawnInfo@@@std@@@std@@I@std@@YAXVconst_iterator@?$vector@VCRespawnInfo@@V?$allocator@VCRespawnInfo@@@std@@@0@0AAI@Z ; std::_Distance<std::vector<CRespawnInfo,std::allocator<CRespawnInfo> >::const_iterator,unsigned int>
; Function compile flags: /Ogty
; File c:\program files\microsoft visual studio .net 2003\vc7\include\xutility
;	COMDAT ??$_Distance@Vconst_iterator@?$vector@VCRespawnInfo@@V?$allocator@VCRespawnInfo@@@std@@@std@@I@std@@YAXVconst_iterator@?$vector@VCRespawnInfo@@V?$allocator@VCRespawnInfo@@@std@@@0@0AAI@Z
_TEXT	SEGMENT
__First$ = 8						; size = 4
__Last$ = 12						; size = 4
__Off$ = 16						; size = 4
??$_Distance@Vconst_iterator@?$vector@VCRespawnInfo@@V?$allocator@VCRespawnInfo@@@std@@@std@@I@std@@YAXVconst_iterator@?$vector@VCRespawnInfo@@V?$allocator@VCRespawnInfo@@@std@@@0@0AAI@Z PROC NEAR ; std::_Distance<std::vector<CRespawnInfo,std::allocator<CRespawnInfo> >::const_iterator,unsigned int>, COMDAT

; 498  : 	_Distance2(_First, _Last, _Off, _Iter_cat(_First));

  00000	8b 54 24 04	 mov	 edx, DWORD PTR __First$[esp-4]
  00004	8b 4c 24 08	 mov	 ecx, DWORD PTR __Last$[esp-4]
  00008	2b ca		 sub	 ecx, edx
  0000a	b8 eb 5d f2 60	 mov	 eax, 1626496491		; 60f25debH
  0000f	f7 e9		 imul	 ecx
  00011	8b 44 24 0c	 mov	 eax, DWORD PTR __Off$[esp-4]
  00015	c1 fa 09	 sar	 edx, 9
  00018	8b ca		 mov	 ecx, edx
  0001a	c1 e9 1f	 shr	 ecx, 31			; 0000001fH
  0001d	03 ca		 add	 ecx, edx
  0001f	01 08		 add	 DWORD PTR [eax], ecx

; 499  : 	}

  00021	c3		 ret	 0
??$_Distance@Vconst_iterator@?$vector@VCRespawnInfo@@V?$allocator@VCRespawnInfo@@@std@@@std@@I@std@@YAXVconst_iterator@?$vector@VCRespawnInfo@@V?$allocator@VCRespawnInfo@@@std@@@0@0AAI@Z ENDP ; std::_Distance<std::vector<CRespawnInfo,std::allocator<CRespawnInfo> >::const_iterator,unsigned int>
_TEXT	ENDS
PUBLIC	??$_Advance@Vconst_iterator@?$vector@VCRespawnInfo@@V?$allocator@VCRespawnInfo@@@std@@@std@@H@std@@YAXAAVconst_iterator@?$vector@VCRespawnInfo@@V?$allocator@VCRespawnInfo@@@std@@@0@HUrandom_access_iterator_tag@0@@Z ; std::_Advance<std::vector<CRespawnInfo,std::allocator<CRespawnInfo> >::const_iterator,int>
; Function compile flags: /Ogty
; File c:\program files\microsoft visual studio .net 2003\vc7\include\iterator
;	COMDAT ??$_Advance@Vconst_iterator@?$vector@VCRespawnInfo@@V?$allocator@VCRespawnInfo@@@std@@@std@@H@std@@YAXAAVconst_iterator@?$vector@VCRespawnInfo@@V?$allocator@VCRespawnInfo@@@std@@@0@HUrandom_access_iterator_tag@0@@Z
_TEXT	SEGMENT
__Where$ = 8						; size = 4
__Off$ = 12						; size = 4
___formal$ = 16						; size = 1
??$_Advance@Vconst_iterator@?$vector@VCRespawnInfo@@V?$allocator@VCRespawnInfo@@@std@@@std@@H@std@@YAXAAVconst_iterator@?$vector@VCRespawnInfo@@V?$allocator@VCRespawnInfo@@@std@@@0@HUrandom_access_iterator_tag@0@@Z PROC NEAR ; std::_Advance<std::vector<CRespawnInfo,std::allocator<CRespawnInfo> >::const_iterator,int>, COMDAT

; 324  : 	_Where += _Off;

  00000	8b 4c 24 08	 mov	 ecx, DWORD PTR __Off$[esp-4]
  00004	8b 44 24 04	 mov	 eax, DWORD PTR __Where$[esp-4]
  00008	69 c9 48 05 00
	00		 imul	 ecx, 1352		; 00000548H
  0000e	01 08		 add	 DWORD PTR [eax], ecx

; 325  : 	}

  00010	c3		 ret	 0
??$_Advance@Vconst_iterator@?$vector@VCRespawnInfo@@V?$allocator@VCRespawnInfo@@@std@@@std@@H@std@@YAXAAVconst_iterator@?$vector@VCRespawnInfo@@V?$allocator@VCRespawnInfo@@@std@@@0@HUrandom_access_iterator_tag@0@@Z ENDP ; std::_Advance<std::vector<CRespawnInfo,std::allocator<CRespawnInfo> >::const_iterator,int>
_TEXT	ENDS
PUBLIC	??$_Copy_opt@Vconst_iterator@?$vector@VCRespawnInfo@@V?$allocator@VCRespawnInfo@@@std@@@std@@PAVCRespawnInfo@@@std@@YAPAVCRespawnInfo@@Vconst_iterator@?$vector@VCRespawnInfo@@V?$allocator@VCRespawnInfo@@@std@@@0@0PAV1@U_Nonscalar_ptr_iterator_tag@0@@Z ; std::_Copy_opt<std::vector<CRespawnInfo,std::allocator<CRespawnInfo> >::const_iterator,CRespawnInfo *>
; Function compile flags: /Ogty
; File c:\program files\microsoft visual studio .net 2003\vc7\include\xutility
;	COMDAT ??$_Copy_opt@Vconst_iterator@?$vector@VCRespawnInfo@@V?$allocator@VCRespawnInfo@@@std@@@std@@PAVCRespawnInfo@@@std@@YAPAVCRespawnInfo@@Vconst_iterator@?$vector@VCRespawnInfo@@V?$allocator@VCRespawnInfo@@@std@@@0@0PAV1@U_Nonscalar_ptr_iterator_tag@0@@Z
_TEXT	SEGMENT
__First$ = 8						; size = 4
__Last$ = 12						; size = 4
__Dest$ = 16						; size = 4
___formal$ = 20						; size = 1
??$_Copy_opt@Vconst_iterator@?$vector@VCRespawnInfo@@V?$allocator@VCRespawnInfo@@@std@@@std@@PAVCRespawnInfo@@@std@@YAPAVCRespawnInfo@@Vconst_iterator@?$vector@VCRespawnInfo@@V?$allocator@VCRespawnInfo@@@std@@@0@0PAV1@U_Nonscalar_ptr_iterator_tag@0@@Z PROC NEAR ; std::_Copy_opt<std::vector<CRespawnInfo,std::allocator<CRespawnInfo> >::const_iterator,CRespawnInfo *>, COMDAT

; 1020 : 	{	// copy [_First, _Last) to [_Dest, ...), arbitrary iterators

  00000	53		 push	 ebx

; 1021 : 	for (; _First != _Last; ++_Dest, ++_First)

  00001	8b 5c 24 0c	 mov	 ebx, DWORD PTR __Last$[esp]
  00005	56		 push	 esi
  00006	8b 74 24 0c	 mov	 esi, DWORD PTR __First$[esp+4]
  0000a	3b f3		 cmp	 esi, ebx
  0000c	74 23		 je	 SHORT $L232412
  0000e	57		 push	 edi
  0000f	8b 7c 24 18	 mov	 edi, DWORD PTR __Dest$[esp+8]
$L232397:

; 1022 : 		*_Dest = *_First;

  00013	56		 push	 esi
  00014	8b cf		 mov	 ecx, edi
  00016	e8 00 00 00 00	 call	 ??4CRespawnInfo@@QAEAAV0@ABV0@@Z ; CRespawnInfo::operator=
  0001b	81 c6 48 05 00
	00		 add	 esi, 1352		; 00000548H
  00021	81 c7 48 05 00
	00		 add	 edi, 1352		; 00000548H
  00027	3b f3		 cmp	 esi, ebx
  00029	75 e8		 jne	 SHORT $L232397

; 1023 : 	return (_Dest);

  0002b	8b c7		 mov	 eax, edi
  0002d	5f		 pop	 edi
  0002e	5e		 pop	 esi
  0002f	5b		 pop	 ebx

; 1024 : 	}

  00030	c3		 ret	 0
$L232412:

; 1023 : 	return (_Dest);

  00031	8b 44 24 14	 mov	 eax, DWORD PTR __Dest$[esp+4]
  00035	5e		 pop	 esi
  00036	5b		 pop	 ebx

; 1024 : 	}

  00037	c3		 ret	 0
??$_Copy_opt@Vconst_iterator@?$vector@VCRespawnInfo@@V?$allocator@VCRespawnInfo@@@std@@@std@@PAVCRespawnInfo@@@std@@YAPAVCRespawnInfo@@Vconst_iterator@?$vector@VCRespawnInfo@@V?$allocator@VCRespawnInfo@@@std@@@0@0PAV1@U_Nonscalar_ptr_iterator_tag@0@@Z ENDP ; std::_Copy_opt<std::vector<CRespawnInfo,std::allocator<CRespawnInfo> >::const_iterator,CRespawnInfo *>
_TEXT	ENDS
PUBLIC	??_C@_0BI@BEIFNGEL@GetItemProp?5range_error?$AA@ ; `string'
PUBLIC	?GetItemProp@CProject@@QAEPAUItemProp@@H@Z	; CProject::GetItemProp
;	COMDAT ??_C@_0BI@BEIFNGEL@GetItemProp?5range_error?$AA@
; File c:\documents and settings\test\mes documents\source\virtuos_v17\build\program\_common\data.h
CONST	SEGMENT
??_C@_0BI@BEIFNGEL@GetItemProp?5range_error?$AA@ DB 'GetItemProp range_er'
	DB	'ror', 00H					; `string'
; Function compile flags: /Ogty
; File c:\documents and settings\test\mes documents\source\virtuos_v17\build\program\_common\project.h
CONST	ENDS
;	COMDAT ?GetItemProp@CProject@@QAEPAUItemProp@@H@Z
_TEXT	SEGMENT
_nIndex$ = 8						; size = 4
?GetItemProp@CProject@@QAEPAUItemProp@@H@Z PROC NEAR	; CProject::GetItemProp, COMDAT
; _this$ = ecx

; 1364 : 	VERIFY_RANGE_ASSERT( nIndex, 0, m_aPropItem.GetSize(), "GetItemProp range_error", NULL );

  00000	8b 44 24 04	 mov	 eax, DWORD PTR _nIndex$[esp-4]
  00004	85 c0		 test	 eax, eax
  00006	7c 1a		 jl	 SHORT $L197914
  00008	8b 91 5c 02 00
	00		 mov	 edx, DWORD PTR [ecx+604]
  0000e	3b c2		 cmp	 eax, edx
  00010	7d 10		 jge	 SHORT $L197914

; 1365 : 	return m_aPropItem.GetAt( nIndex ); 

  00012	3b c2		 cmp	 eax, edx
  00014	73 28		 jae	 SHORT $L232437
  00016	8b 89 4c 02 00
	00		 mov	 ecx, DWORD PTR [ecx+588]
  0001c	8b 04 81	 mov	 eax, DWORD PTR [ecx+eax*4]

; 1366 : }

  0001f	c2 04 00	 ret	 4
$L197914:

; 1364 : 	VERIFY_RANGE_ASSERT( nIndex, 0, m_aPropItem.GetSize(), "GetItemProp range_error", NULL );

  00022	8b 91 5c 02 00
	00		 mov	 edx, DWORD PTR [ecx+604]
  00028	50		 push	 eax
  00029	52		 push	 edx
  0002a	6a 00		 push	 0
  0002c	68 00 00 00 00	 push	 OFFSET FLAT:??_C@_0BI@BEIFNGEL@GetItemProp?5range_error?$AA@
  00031	68 00 00 00 00	 push	 OFFSET FLAT:??_C@_0BM@HMFGHCP@?$CFs?5min?3?$CFd?0?5max?3?$CFd?0?5index?3?$CFd?$AA@
  00036	e8 00 00 00 00	 call	 ?Error@@YAPBDPBDZZ	; Error
  0003b	83 c4 14	 add	 esp, 20			; 00000014H
$L232437:
  0003e	33 c0		 xor	 eax, eax

; 1366 : }

  00040	c2 04 00	 ret	 4
?GetItemProp@CProject@@QAEPAUItemProp@@H@Z ENDP		; CProject::GetItemProp
_TEXT	ENDS
PUBLIC	?GetPropA@CItemElem@@QAEPAUItemProp@@XZ		; CItemElem::GetPropA
EXTRN	?prj@@3VCProject@@A:BYTE			; prj
; Function compile flags: /Ogty
; File c:\documents and settings\test\mes documents\source\virtuos_v17\build\program\_common\item.h
;	COMDAT ?GetPropA@CItemElem@@QAEPAUItemProp@@XZ
_TEXT	SEGMENT
?GetPropA@CItemElem@@QAEPAUItemProp@@XZ PROC NEAR	; CItemElem::GetPropA, COMDAT
; _this$ = ecx

; 229  : 	ItemProp*	GetProp()	{	return prj.GetItemProp( m_dwItemId );	}

  00000	8b 41 0c	 mov	 eax, DWORD PTR [ecx+12]
  00003	85 c0		 test	 eax, eax
  00005	8b 0d 5c 02 00
	00		 mov	 ecx, DWORD PTR ?prj@@3VCProject@@A+604
  0000b	7c 10		 jl	 SHORT $L232477
  0000d	3b c1		 cmp	 eax, ecx
  0000f	7d 0c		 jge	 SHORT $L232477
  00011	73 20		 jae	 SHORT $L232484
  00013	8b 0d 4c 02 00
	00		 mov	 ecx, DWORD PTR ?prj@@3VCProject@@A+588
  00019	8b 04 81	 mov	 eax, DWORD PTR [ecx+eax*4]
  0001c	c3		 ret	 0
$L232477:
  0001d	50		 push	 eax
  0001e	51		 push	 ecx
  0001f	6a 00		 push	 0
  00021	68 00 00 00 00	 push	 OFFSET FLAT:??_C@_0BI@BEIFNGEL@GetItemProp?5range_error?$AA@
  00026	68 00 00 00 00	 push	 OFFSET FLAT:??_C@_0BM@HMFGHCP@?$CFs?5min?3?$CFd?0?5max?3?$CFd?0?5index?3?$CFd?$AA@
  0002b	e8 00 00 00 00	 call	 ?Error@@YAPBDPBDZZ	; Error
  00030	83 c4 14	 add	 esp, 20			; 00000014H
$L232484:
  00033	33 c0		 xor	 eax, eax
  00035	c3		 ret	 0
?GetPropA@CItemElem@@QAEPAUItemProp@@XZ ENDP		; CItemElem::GetPropA
_TEXT	ENDS
PUBLIC	??0?$_String_val@DV?$allocator@D@std@@@std@@IAE@V?$allocator@D@1@@Z ; std::_String_val<char,std::allocator<char> >::_String_val<char,std::allocator<char> >
; Function compile flags: /Ogty
; File c:\program files\microsoft visual studio .net 2003\vc7\include\xstring
;	COMDAT ??0?$_String_val@DV?$allocator@D@std@@@std@@IAE@V?$allocator@D@1@@Z
_TEXT	SEGMENT
__Al$ = 8						; size = 1
??0?$_String_val@DV?$allocator@D@std@@@std@@IAE@V?$allocator@D@1@@Z PROC NEAR ; std::_String_val<char,std::allocator<char> >::_String_val<char,std::allocator<char> >, COMDAT
; _this$ = ecx

; 34   : 		{	// construct allocator from _Al

  00000	8b c1		 mov	 eax, ecx

; 35   : 		}

  00002	c2 04 00	 ret	 4
??0?$_String_val@DV?$allocator@D@std@@@std@@IAE@V?$allocator@D@1@@Z ENDP ; std::_String_val<char,std::allocator<char> >::_String_val<char,std::allocator<char> >
_TEXT	ENDS
PUBLIC	?_Eos@?$basic_string@DU?$char_traits@D@std@@V?$allocator@D@2@@std@@IAEXI@Z ; std::basic_string<char,std::char_traits<char>,std::allocator<char> >::_Eos
; Function compile flags: /Ogty
;	COMDAT ?_Eos@?$basic_string@DU?$char_traits@D@std@@V?$allocator@D@2@@std@@IAEXI@Z
_TEXT	SEGMENT
__Newsize$ = 8						; size = 4
?_Eos@?$basic_string@DU?$char_traits@D@std@@V?$allocator@D@2@@std@@IAEXI@Z PROC NEAR ; std::basic_string<char,std::char_traits<char>,std::allocator<char> >::_Eos, COMDAT
; _this$ = ecx

; 1475 : 		_Traits::assign(_Myptr()[_Mysize = _Newsize], _Elem());

  00000	83 79 18 10	 cmp	 DWORD PTR [ecx+24], 16	; 00000010H
  00004	8b 44 24 04	 mov	 eax, DWORD PTR __Newsize$[esp-4]
  00008	89 41 14	 mov	 DWORD PTR [ecx+20], eax
  0000b	72 0a		 jb	 SHORT $L232499
  0000d	8b 49 04	 mov	 ecx, DWORD PTR [ecx+4]
  00010	c6 04 01 00	 mov	 BYTE PTR [ecx+eax], 0

; 1476 : 		}

  00014	c2 04 00	 ret	 4

; 1475 : 		_Traits::assign(_Myptr()[_Mysize = _Newsize], _Elem());

$L232499:
  00017	c6 44 01 04 00	 mov	 BYTE PTR [ecx+eax+4], 0

; 1476 : 		}

  0001c	c2 04 00	 ret	 4
?_Eos@?$basic_string@DU?$char_traits@D@std@@V?$allocator@D@2@@std@@IAEXI@Z ENDP ; std::basic_string<char,std::char_traits<char>,std::allocator<char> >::_Eos
_TEXT	ENDS
PUBLIC	?max_size@?$basic_string@DU?$char_traits@D@std@@V?$allocator@D@2@@std@@QBEIXZ ; std::basic_string<char,std::char_traits<char>,std::allocator<char> >::max_size
; Function compile flags: /Ogty
;	COMDAT ?max_size@?$basic_string@DU?$char_traits@D@std@@V?$allocator@D@2@@std@@QBEIXZ
_TEXT	SEGMENT
?max_size@?$basic_string@DU?$char_traits@D@std@@V?$allocator@D@2@@std@@QBEIXZ PROC NEAR ; std::basic_string<char,std::char_traits<char>,std::allocator<char> >::max_size, COMDAT
; _this$ = ecx

; 1114 : 		size_type _Num = _Mybase::_Alval.max_size();
; 1115 : 		return (_Num <= 1 ? 1 : _Num - 1);

  00000	b8 fe ff ff ff	 mov	 eax, -2			; fffffffeH

; 1116 : 		}

  00005	c3		 ret	 0
?max_size@?$basic_string@DU?$char_traits@D@std@@V?$allocator@D@2@@std@@QBEIXZ ENDP ; std::basic_string<char,std::char_traits<char>,std::allocator<char> >::max_size
_TEXT	ENDS
PUBLIC	?allocate@?$allocator@D@std@@QAEPADI@Z		; std::allocator<char>::allocate
; Function compile flags: /Ogty
; File c:\program files\microsoft visual studio .net 2003\vc7\include\xmemory
;	COMDAT ?allocate@?$allocator@D@std@@QAEPADI@Z
_TEXT	SEGMENT
__Count$ = 8						; size = 4
?allocate@?$allocator@D@std@@QAEPADI@Z PROC NEAR	; std::allocator<char>::allocate, COMDAT
; _this$ = ecx

; 137  : 		return (_Allocate(_Count, (pointer)0));

  00000	8b 44 24 04	 mov	 eax, DWORD PTR __Count$[esp-4]
  00004	50		 push	 eax
  00005	e8 00 00 00 00	 call	 ??2@YAPAXI@Z		; operator new
  0000a	83 c4 04	 add	 esp, 4

; 138  : 		}

  0000d	c2 04 00	 ret	 4
?allocate@?$allocator@D@std@@QAEPADI@Z ENDP		; std::allocator<char>::allocate
_TEXT	ENDS
PUBLIC	?GenResPoint@CRespawnInfo@@QAEHPAVCWorld@@@Z	; CRespawnInfo::GenResPoint
EXTRN	__ftol2:NEAR
EXTRN	?GetHeightAttribute@CWorld@@QAEHMM@Z:NEAR	; CWorld::GetHeightAttribute
; Function compile flags: /Ogty
; File c:\documents and settings\test\mes documents\source\virtuos_v17\build\program\_common\respawn.cpp
;	COMDAT ?GenResPoint@CRespawnInfo@@QAEHPAVCWorld@@@Z
_TEXT	SEGMENT
_nCheckAttr$ = -20					; size = 4
_nFail$ = -16						; size = 4
_v$ = -12						; size = 12
_pWorld$ = 8						; size = 4
?GenResPoint@CRespawnInfo@@QAEHPAVCWorld@@@Z PROC NEAR	; CRespawnInfo::GenResPoint, COMDAT
; _this$ = ecx

; 95   : {

  00000	83 ec 14	 sub	 esp, 20			; 00000014H
  00003	53		 push	 ebx
  00004	55		 push	 ebp
  00005	56		 push	 esi
  00006	57		 push	 edi
  00007	8b f9		 mov	 edi, ecx

; 96   : 	int nCheckAttr	= HATTR_NOWALK;
; 97   : 	if( m_dwType == OT_MOVER && prj.GetMoverProp( m_dwIndex )->dwFlying )

  00009	83 7f 04 05	 cmp	 DWORD PTR [edi+4], 5
  0000d	c7 44 24 10 01
	00 00 00	 mov	 DWORD PTR _nCheckAttr$[esp+36], 1
  00015	75 4b		 jne	 SHORT $L232554
  00017	8b 47 08	 mov	 eax, DWORD PTR [edi+8]
  0001a	85 c0		 test	 eax, eax
  0001c	8b 0d d0 01 00
	00		 mov	 ecx, DWORD PTR ?prj@@3VCProject@@A+464
  00022	7c 14		 jl	 SHORT $L232542
  00024	3b c1		 cmp	 eax, ecx
  00026	7d 10		 jge	 SHORT $L232542
  00028	8b 0d d4 01 00
	00		 mov	 ecx, DWORD PTR ?prj@@3VCProject@@A+468
  0002e	69 c0 d8 06 00
	00		 imul	 eax, 1752		; 000006d8H
  00034	03 c1		 add	 eax, ecx
  00036	eb 18		 jmp	 SHORT $L232537
$L232542:
  00038	50		 push	 eax
  00039	51		 push	 ecx
  0003a	6a 00		 push	 0
  0003c	68 00 00 00 00	 push	 OFFSET FLAT:??_C@_0BJ@GKPOBPPI@GetMoverProp?5range_error?$AA@
  00041	68 00 00 00 00	 push	 OFFSET FLAT:??_C@_0BM@HMFGHCP@?$CFs?5min?3?$CFd?0?5max?3?$CFd?0?5index?3?$CFd?$AA@
  00046	e8 00 00 00 00	 call	 ?Error@@YAPBDPBDZZ	; Error
  0004b	83 c4 14	 add	 esp, 20			; 00000014H
  0004e	33 c0		 xor	 eax, eax
$L232537:
  00050	8b 88 10 01 00
	00		 mov	 ecx, DWORD PTR [eax+272]
  00056	85 c9		 test	 ecx, ecx
  00058	74 08		 je	 SHORT $L232554

; 98   : 		nCheckAttr	= HATTR_NOFLY;

  0005a	c7 44 24 10 02
	00 00 00	 mov	 DWORD PTR _nCheckAttr$[esp+36], 2
$L232554:

; 99   : 	D3DXVECTOR3 v;
; 100  : 	int nSize	= 0;

  00062	8b 6c 24 28	 mov	 ebp, DWORD PTR _pWorld$[esp+32]
  00066	33 db		 xor	 ebx, ebx

; 101  : 	int nFail	= 0;

  00068	89 5c 24 14	 mov	 DWORD PTR _nFail$[esp+36], ebx
  0006c	8d b7 2c 02 00
	00		 lea	 esi, DWORD PTR [edi+556]
$L228327:

; 102  : 	while( 1 )
; 103  : 	{
; 104  : 		GetPos( v, FALSE );

  00072	6a 00		 push	 0
  00074	8d 44 24 1c	 lea	 eax, DWORD PTR _v$[esp+40]
  00078	50		 push	 eax
  00079	8b cf		 mov	 ecx, edi
  0007b	e8 00 00 00 00	 call	 ?GetPos@CRespawnInfo@@QAEXAAUD3DXVECTOR3@@H@Z ; CRespawnInfo::GetPos

; 105  : 		int nAttr	= pWorld->GetHeightAttribute( v.x, v.z );

  00080	8b 4c 24 20	 mov	 ecx, DWORD PTR _v$[esp+44]
  00084	8b 54 24 18	 mov	 edx, DWORD PTR _v$[esp+36]
  00088	51		 push	 ecx
  00089	52		 push	 edx
  0008a	8b cd		 mov	 ecx, ebp
  0008c	e8 00 00 00 00	 call	 ?GetHeightAttribute@CWorld@@QAEHMM@Z ; CWorld::GetHeightAttribute

; 106  : 		if( nAttr == -1 || nAttr == HATTR_NOMOVE || nAttr == nCheckAttr ) 

  00091	83 f8 ff	 cmp	 eax, -1
  00094	74 3a		 je	 SHORT $L228331
  00096	83 f8 03	 cmp	 eax, 3
  00099	74 35		 je	 SHORT $L228331
  0009b	3b 44 24 10	 cmp	 eax, DWORD PTR _nCheckAttr$[esp+36]
  0009f	74 2f		 je	 SHORT $L228331

; 110  : 			continue;
; 111  : 		}
; 112  : 		m_aResPoint[nSize].x	= (LONG)( v.x );

  000a1	d9 44 24 18	 fld	 DWORD PTR _v$[esp+36]
  000a5	e8 00 00 00 00	 call	 __ftol2

; 113  : 		m_aResPoint[nSize++].y	= (LONG)( v.z );

  000aa	d9 44 24 20	 fld	 DWORD PTR _v$[esp+44]
  000ae	89 46 fc	 mov	 DWORD PTR [esi-4], eax
  000b1	e8 00 00 00 00	 call	 __ftol2
  000b6	89 06		 mov	 DWORD PTR [esi], eax
  000b8	43		 inc	 ebx
  000b9	83 c6 08	 add	 esi, 8

; 114  : 
; 115  : 		if( nSize >= MAX_RESPOINT_PER_REGION )

  000bc	83 fb 64	 cmp	 ebx, 100		; 00000064H
  000bf	7c b1		 jl	 SHORT $L228327
  000c1	5f		 pop	 edi
  000c2	5e		 pop	 esi
  000c3	5d		 pop	 ebp

; 116  : 			break;
; 117  : 	}
; 118  : //	TRACE( "nFail=%d\n", nFail );
; 119  : 	return TRUE;

  000c4	b8 01 00 00 00	 mov	 eax, 1
  000c9	5b		 pop	 ebx

; 120  : }

  000ca	83 c4 14	 add	 esp, 20			; 00000014H
  000cd	c2 04 00	 ret	 4
$L228331:

; 107  : 		{
; 108  : 			if( ++nFail > MAX_FAIL_TO_RESPAWN )

  000d0	8b 44 24 14	 mov	 eax, DWORD PTR _nFail$[esp+36]
  000d4	40		 inc	 eax
  000d5	3d 10 27 00 00	 cmp	 eax, 10000		; 00002710H
  000da	89 44 24 14	 mov	 DWORD PTR _nFail$[esp+36], eax
  000de	7e 92		 jle	 SHORT $L228327
  000e0	5f		 pop	 edi
  000e1	5e		 pop	 esi
  000e2	5d		 pop	 ebp

; 109  : 				return FALSE;

  000e3	33 c0		 xor	 eax, eax
  000e5	5b		 pop	 ebx

; 120  : }

  000e6	83 c4 14	 add	 esp, 20			; 00000014H
  000e9	c2 04 00	 ret	 4
?GenResPoint@CRespawnInfo@@QAEHPAVCWorld@@@Z ENDP	; CRespawnInfo::GenResPoint
_TEXT	ENDS
PUBLIC	??_C@_0EC@OCJMFDAP@CRespawner?3?3Remove?$LP?$KB?$LM?$KN?5RESPAWN_R@ ; `string'
PUBLIC	?Remove@CRespawner@@QAEHHH@Z			; CRespawner::Remove
;	COMDAT ??_C@_0EC@OCJMFDAP@CRespawner?3?3Remove?$LP?$KB?$LM?$KN?5RESPAWN_R@
; File c:\program files\microsoft visual studio .net 2003\vc7\include\vector
CONST	SEGMENT
??_C@_0EC@OCJMFDAP@CRespawner?3?3Remove?$LP?$KB?$LM?$KN?5RESPAWN_R@ DB 'C'
	DB	'Respawner::Remove', 0bfH, 0a1H, 0bcH, 0adH, ' RESPAWN_REGION '
	DB	0c5H, 0b8H, 0c0H, 0d4H, 0c0H, 0baH, ' ', 0bbH, 0e8H, 0c1H, 0a6H
	DB	0c7H, 0d2H, ' ', 0bcH, 0f6H, ' ', 0beH, 0f8H, 0c0H, 0bdH, ' : '
	DB	'%d', 0aH, 00H				; `string'
; Function compile flags: /Ogty
; File c:\documents and settings\test\mes documents\source\virtuos_v17\build\program\_common\respawn.cpp
CONST	ENDS
;	COMDAT ?Remove@CRespawner@@QAEHHH@Z
_TEXT	SEGMENT
_nRespawnNo$ = 8					; size = 4
_nType$ = 12						; size = 4
?Remove@CRespawner@@QAEHHH@Z PROC NEAR			; CRespawner::Remove, COMDAT
; _this$ = ecx

; 295  : 	if( nRespawnNo < 0 )	

  00000	8b 54 24 04	 mov	 edx, DWORD PTR _nRespawnNo$[esp-4]
  00004	85 d2		 test	 edx, edx

; 296  : 		return NULL;

  00006	7c 16		 jl	 SHORT $L232624

; 297  : 	if( nType == RESPAWNTYPE_REGION )

  00008	8b 44 24 08	 mov	 eax, DWORD PTR _nType$[esp-4]
  0000c	85 c0		 test	 eax, eax
  0000e	75 13		 jne	 SHORT $L228556

; 298  : 	{
; 299  : 		Error( "CRespawner::Remove RESPAWN_REGION     : %d\n", nRespawnNo );

  00010	52		 push	 edx
  00011	68 00 00 00 00	 push	 OFFSET FLAT:??_C@_0EC@OCJMFDAP@CRespawner?3?3Remove?$LP?$KB?$LM?$KN?5RESPAWN_R@
  00016	e8 00 00 00 00	 call	 ?Error@@YAPBDPBDZZ	; Error
  0001b	83 c4 08	 add	 esp, 8
$L232624:

; 300  : 		return FALSE;

  0001e	33 c0		 xor	 eax, eax

; 320  : }

  00020	c2 08 00	 ret	 8
$L228556:

; 301  : 	}
; 302  : 	else
; 303  : 	if( nType == RESPAWNTYPE_SCRIPT )

  00023	83 f8 01	 cmp	 eax, 1
  00026	75 2f		 jne	 SHORT $L228558

; 304  : 	{
; 305  : 		for( VRI::iterator i = m_vRespawnInfo[nType].begin(); i != m_vRespawnInfo[nType].end(); ++i )

  00028	8b 41 18	 mov	 eax, DWORD PTR [ecx+24]

; 318  : 	}
; 319  : 	return FALSE;

  0002b	8b 49 1c	 mov	 ecx, DWORD PTR [ecx+28]
  0002e	3b c1		 cmp	 eax, ecx
  00030	74 2a		 je	 SHORT $L228567

; 304  : 	{
; 305  : 		for( VRI::iterator i = m_vRespawnInfo[nType].begin(); i != m_vRespawnInfo[nType].end(); ++i )

$L232577:

; 306  : 		{
; 307  : 			if( ( *i ).m_nGMIndex == nRespawnNo )

  00032	39 90 14 02 00
	00		 cmp	 DWORD PTR [eax+532], edx
  00038	74 0e		 je	 SHORT $L232619
  0003a	05 48 05 00 00	 add	 eax, 1352		; 00000548H
  0003f	3b c1		 cmp	 eax, ecx
  00041	75 ef		 jne	 SHORT $L232577

; 318  : 	}
; 319  : 	return FALSE;

  00043	33 c0		 xor	 eax, eax

; 320  : }

  00045	c2 08 00	 ret	 8
$L232619:

; 308  : 			{
; 309  : 				( *i ).m_bRemove	= TRUE;

  00048	c7 40 3c 01 00
	00 00		 mov	 DWORD PTR [eax+60], 1
$L232623:

; 310  : 				return TRUE;

  0004f	b8 01 00 00 00	 mov	 eax, 1

; 320  : }

  00054	c2 08 00	 ret	 8
$L228558:

; 311  : 			}
; 312  : 		}
; 313  : 	}
; 314  : 	else
; 315  : 	if( nType == RESPAWNTYPE_BACKEND )

  00057	83 f8 02	 cmp	 eax, 2

; 316  : 	{
; 317  : 		return TRUE;

  0005a	74 f3		 je	 SHORT $L232623
$L228567:

; 318  : 	}
; 319  : 	return FALSE;

  0005c	33 c0		 xor	 eax, eax

; 320  : }

  0005e	c2 08 00	 ret	 8
?Remove@CRespawner@@QAEHHH@Z ENDP			; CRespawner::Remove
_TEXT	ENDS
PUBLIC	??A?$vector@VCRespawnInfo@@V?$allocator@VCRespawnInfo@@@std@@@std@@QAEAAVCRespawnInfo@@I@Z ; std::vector<CRespawnInfo,std::allocator<CRespawnInfo> >::operator[]
; Function compile flags: /Ogty
; File c:\program files\microsoft visual studio .net 2003\vc7\include\vector
;	COMDAT ??A?$vector@VCRespawnInfo@@V?$allocator@VCRespawnInfo@@@std@@@std@@QAEAAVCRespawnInfo@@I@Z
_TEXT	SEGMENT
__Pos$ = 8						; size = 4
??A?$vector@VCRespawnInfo@@V?$allocator@VCRespawnInfo@@@std@@@std@@QAEAAVCRespawnInfo@@I@Z PROC NEAR ; std::vector<CRespawnInfo,std::allocator<CRespawnInfo> >::operator[], COMDAT
; _this$ = ecx

; 555  : 		return (*(begin() + _Pos));

  00000	8b 44 24 04	 mov	 eax, DWORD PTR __Pos$[esp-4]
  00004	8b 51 04	 mov	 edx, DWORD PTR [ecx+4]
  00007	69 c0 48 05 00
	00		 imul	 eax, 1352		; 00000548H
  0000d	03 c2		 add	 eax, edx

; 556  : 		}

  0000f	c2 04 00	 ret	 4
??A?$vector@VCRespawnInfo@@V?$allocator@VCRespawnInfo@@@std@@@std@@QAEAAVCRespawnInfo@@I@Z ENDP ; std::vector<CRespawnInfo,std::allocator<CRespawnInfo> >::operator[]
_TEXT	ENDS
PUBLIC	?begin@?$_Tree@V?$_Tmap_traits@HPAVCRespawner@@U?$less@H@std@@V?$allocator@U?$pair@$$CBHPAVCRespawner@@@std@@@3@$0A@@std@@@std@@QAE?AViterator@12@XZ ; std::_Tree<std::_Tmap_traits<int,CRespawner *,std::less<int>,std::allocator<std::pair<int const ,CRespawner *> >,0> >::begin
; Function compile flags: /Ogty
; File c:\program files\microsoft visual studio .net 2003\vc7\include\xtree
;	COMDAT ?begin@?$_Tree@V?$_Tmap_traits@HPAVCRespawner@@U?$less@H@std@@V?$allocator@U?$pair@$$CBHPAVCRespawner@@@std@@@3@$0A@@std@@@std@@QAE?AViterator@12@XZ
_TEXT	SEGMENT
___$ReturnUdt$ = 8					; size = 4
?begin@?$_Tree@V?$_Tmap_traits@HPAVCRespawner@@U?$less@H@std@@V?$allocator@U?$pair@$$CBHPAVCRespawner@@@std@@@3@$0A@@std@@@std@@QAE?AViterator@12@XZ PROC NEAR ; std::_Tree<std::_Tmap_traits<int,CRespawner *,std::less<int>,std::allocator<std::pair<int const ,CRespawner *> >,0> >::begin, COMDAT
; _this$ = ecx

; 408  : 		return (_TREE_ITERATOR(_Lmost()));

  00000	8b 41 04	 mov	 eax, DWORD PTR [ecx+4]
  00003	8b 08		 mov	 ecx, DWORD PTR [eax]
  00005	8b 44 24 04	 mov	 eax, DWORD PTR ___$ReturnUdt$[esp-4]
  00009	89 08		 mov	 DWORD PTR [eax], ecx

; 409  : 		}

  0000b	c2 04 00	 ret	 4
?begin@?$_Tree@V?$_Tmap_traits@HPAVCRespawner@@U?$less@H@std@@V?$allocator@U?$pair@$$CBHPAVCRespawner@@@std@@@3@$0A@@std@@@std@@QAE?AViterator@12@XZ ENDP ; std::_Tree<std::_Tmap_traits<int,CRespawner *,std::less<int>,std::allocator<std::pair<int const ,CRespawner *> >,0> >::begin
_TEXT	ENDS
PUBLIC	?end@?$_Tree@V?$_Tmap_traits@HPAVCRespawner@@U?$less@H@std@@V?$allocator@U?$pair@$$CBHPAVCRespawner@@@std@@@3@$0A@@std@@@std@@QAE?AViterator@12@XZ ; std::_Tree<std::_Tmap_traits<int,CRespawner *,std::less<int>,std::allocator<std::pair<int const ,CRespawner *> >,0> >::end
; Function compile flags: /Ogty
;	COMDAT ?end@?$_Tree@V?$_Tmap_traits@HPAVCRespawner@@U?$less@H@std@@V?$allocator@U?$pair@$$CBHPAVCRespawner@@@std@@@3@$0A@@std@@@std@@QAE?AViterator@12@XZ
_TEXT	SEGMENT
___$ReturnUdt$ = 8					; size = 4
?end@?$_Tree@V?$_Tmap_traits@HPAVCRespawner@@U?$less@H@std@@V?$allocator@U?$pair@$$CBHPAVCRespawner@@@std@@@3@$0A@@std@@@std@@QAE?AViterator@12@XZ PROC NEAR ; std::_Tree<std::_Tmap_traits<int,CRespawner *,std::less<int>,std::allocator<std::pair<int const ,CRespawner *> >,0> >::end, COMDAT
; _this$ = ecx

; 418  : 		return (_TREE_ITERATOR(_Myhead));

  00000	8b 49 04	 mov	 ecx, DWORD PTR [ecx+4]
  00003	8b 44 24 04	 mov	 eax, DWORD PTR ___$ReturnUdt$[esp-4]
  00007	89 08		 mov	 DWORD PTR [eax], ecx

; 419  : 		}

  00009	c2 04 00	 ret	 4
?end@?$_Tree@V?$_Tmap_traits@HPAVCRespawner@@U?$less@H@std@@V?$allocator@U?$pair@$$CBHPAVCRespawner@@@std@@@3@$0A@@std@@@std@@QAE?AViterator@12@XZ ENDP ; std::_Tree<std::_Tmap_traits<int,CRespawner *,std::less<int>,std::allocator<std::pair<int const ,CRespawner *> >,0> >::end
_TEXT	ENDS
PUBLIC	??Citerator@?$_Tree@V?$_Tmap_traits@HPAVCRespawner@@U?$less@H@std@@V?$allocator@U?$pair@$$CBHPAVCRespawner@@@std@@@3@$0A@@std@@@std@@QBEPAU?$pair@$$CBHPAVCRespawner@@@2@XZ ; std::_Tree<std::_Tmap_traits<int,CRespawner *,std::less<int>,std::allocator<std::pair<int const ,CRespawner *> >,0> >::iterator::operator->
; Function compile flags: /Ogty
;	COMDAT ??Citerator@?$_Tree@V?$_Tmap_traits@HPAVCRespawner@@U?$less@H@std@@V?$allocator@U?$pair@$$CBHPAVCRespawner@@@std@@@3@$0A@@std@@@std@@QBEPAU?$pair@$$CBHPAVCRespawner@@@2@XZ
_TEXT	SEGMENT
??Citerator@?$_Tree@V?$_Tmap_traits@HPAVCRespawner@@U?$less@H@std@@V?$allocator@U?$pair@$$CBHPAVCRespawner@@@std@@@3@$0A@@std@@@std@@QBEPAU?$pair@$$CBHPAVCRespawner@@@2@XZ PROC NEAR ; std::_Tree<std::_Tmap_traits<int,CRespawner *,std::less<int>,std::allocator<std::pair<int const ,CRespawner *> >,0> >::iterator::operator->, COMDAT
; _this$ = ecx

; 322  : 			return (&**this);

  00000	8b 01		 mov	 eax, DWORD PTR [ecx]
  00002	83 c0 0c	 add	 eax, 12			; 0000000cH

; 323  : 			}

  00005	c3		 ret	 0
??Citerator@?$_Tree@V?$_Tmap_traits@HPAVCRespawner@@U?$less@H@std@@V?$allocator@U?$pair@$$CBHPAVCRespawner@@@std@@@3@$0A@@std@@@std@@QBEPAU?$pair@$$CBHPAVCRespawner@@@2@XZ ENDP ; std::_Tree<std::_Tmap_traits<int,CRespawner *,std::less<int>,std::allocator<std::pair<int const ,CRespawner *> >,0> >::iterator::operator->
_TEXT	ENDS
PUBLIC	??Eiterator@?$_Tree@V?$_Tmap_traits@HPAVCRespawner@@U?$less@H@std@@V?$allocator@U?$pair@$$CBHPAVCRespawner@@@std@@@3@$0A@@std@@@std@@QAEAAV012@XZ ; std::_Tree<std::_Tmap_traits<int,CRespawner *,std::less<int>,std::allocator<std::pair<int const ,CRespawner *> >,0> >::iterator::operator++
; Function compile flags: /Ogty
;	COMDAT ??Eiterator@?$_Tree@V?$_Tmap_traits@HPAVCRespawner@@U?$less@H@std@@V?$allocator@U?$pair@$$CBHPAVCRespawner@@@std@@@3@$0A@@std@@@std@@QAEAAV012@XZ
_TEXT	SEGMENT
??Eiterator@?$_Tree@V?$_Tmap_traits@HPAVCRespawner@@U?$less@H@std@@V?$allocator@U?$pair@$$CBHPAVCRespawner@@@std@@@3@$0A@@std@@@std@@QAEAAV012@XZ PROC NEAR ; std::_Tree<std::_Tmap_traits<int,CRespawner *,std::less<int>,std::allocator<std::pair<int const ,CRespawner *> >,0> >::iterator::operator++, COMDAT
; _this$ = ecx

; 326  : 			{	// preincrement

  00000	56		 push	 esi
  00001	8b f1		 mov	 esi, ecx

; 327  : 			++(*(const_iterator *)this);

  00003	e8 00 00 00 00	 call	 ?_Inc@const_iterator@?$_Tree@V?$_Tmap_traits@HPAVCRespawner@@U?$less@H@std@@V?$allocator@U?$pair@$$CBHPAVCRespawner@@@std@@@3@$0A@@std@@@std@@QAEXXZ ; std::_Tree<std::_Tmap_traits<int,CRespawner *,std::less<int>,std::allocator<std::pair<int const ,CRespawner *> >,0> >::const_iterator::_Inc

; 328  : 			return (*this);

  00008	8b c6		 mov	 eax, esi
  0000a	5e		 pop	 esi

; 329  : 			}

  0000b	c3		 ret	 0
??Eiterator@?$_Tree@V?$_Tmap_traits@HPAVCRespawner@@U?$less@H@std@@V?$allocator@U?$pair@$$CBHPAVCRespawner@@@std@@@3@$0A@@std@@@std@@QAEAAV012@XZ ENDP ; std::_Tree<std::_Tmap_traits<int,CRespawner *,std::less<int>,std::allocator<std::pair<int const ,CRespawner *> >,0> >::iterator::operator++
_TEXT	ENDS
PUBLIC	?lower_bound@?$_Tree@V?$_Tmap_traits@HPAVCRespawner@@U?$less@H@std@@V?$allocator@U?$pair@$$CBHPAVCRespawner@@@std@@@3@$0A@@std@@@std@@QAE?AViterator@12@ABH@Z ; std::_Tree<std::_Tmap_traits<int,CRespawner *,std::less<int>,std::allocator<std::pair<int const ,CRespawner *> >,0> >::lower_bound
; Function compile flags: /Ogty
;	COMDAT ?lower_bound@?$_Tree@V?$_Tmap_traits@HPAVCRespawner@@U?$less@H@std@@V?$allocator@U?$pair@$$CBHPAVCRespawner@@@std@@@3@$0A@@std@@@std@@QAE?AViterator@12@ABH@Z
_TEXT	SEGMENT
___$ReturnUdt$ = 8					; size = 4
__Keyval$ = 12						; size = 4
?lower_bound@?$_Tree@V?$_Tmap_traits@HPAVCRespawner@@U?$less@H@std@@V?$allocator@U?$pair@$$CBHPAVCRespawner@@@std@@@3@$0A@@std@@@std@@QAE?AViterator@12@ABH@Z PROC NEAR ; std::_Tree<std::_Tmap_traits<int,CRespawner *,std::less<int>,std::allocator<std::pair<int const ,CRespawner *> >,0> >::lower_bound, COMDAT
; _this$ = ecx

; 810  : 		return (_TREE_ITERATOR(_Lbound(_Keyval)));

  00000	8b 49 04	 mov	 ecx, DWORD PTR [ecx+4]
  00003	8b 41 04	 mov	 eax, DWORD PTR [ecx+4]
  00006	8a 50 15	 mov	 dl, BYTE PTR [eax+21]
  00009	84 d2		 test	 dl, dl
  0000b	75 1d		 jne	 SHORT $L232792
  0000d	8b 54 24 08	 mov	 edx, DWORD PTR __Keyval$[esp-4]
  00011	8b 12		 mov	 edx, DWORD PTR [edx]
  00013	53		 push	 ebx
$L232760:
  00014	39 50 0c	 cmp	 DWORD PTR [eax+12], edx
  00017	7d 05		 jge	 SHORT $L232762
  00019	8b 40 08	 mov	 eax, DWORD PTR [eax+8]
  0001c	eb 04		 jmp	 SHORT $L232763
$L232762:
  0001e	8b c8		 mov	 ecx, eax
  00020	8b 00		 mov	 eax, DWORD PTR [eax]
$L232763:
  00022	8a 58 15	 mov	 bl, BYTE PTR [eax+21]
  00025	84 db		 test	 bl, bl
  00027	74 eb		 je	 SHORT $L232760
  00029	5b		 pop	 ebx
$L232792:
  0002a	8b 44 24 04	 mov	 eax, DWORD PTR ___$ReturnUdt$[esp-4]
  0002e	89 08		 mov	 DWORD PTR [eax], ecx

; 811  : 		}

  00030	c2 08 00	 ret	 8
?lower_bound@?$_Tree@V?$_Tmap_traits@HPAVCRespawner@@U?$less@H@std@@V?$allocator@U?$pair@$$CBHPAVCRespawner@@@std@@@3@$0A@@std@@@std@@QAE?AViterator@12@ABH@Z ENDP ; std::_Tree<std::_Tmap_traits<int,CRespawner *,std::less<int>,std::allocator<std::pair<int const ,CRespawner *> >,0> >::lower_bound
_TEXT	ENDS
PUBLIC	?_Erase@?$_Tree@V?$_Tmap_traits@HPAVCRespawner@@U?$less@H@std@@V?$allocator@U?$pair@$$CBHPAVCRespawner@@@std@@@3@$0A@@std@@@std@@IAEXPAU_Node@?$_Tree_nod@V?$_Tmap_traits@HPAVCRespawner@@U?$less@H@std@@V?$allocator@U?$pair@$$CBHPAVCRespawner@@@std@@@3@$0A@@std@@@2@@Z ; std::_Tree<std::_Tmap_traits<int,CRespawner *,std::less<int>,std::allocator<std::pair<int const ,CRespawner *> >,0> >::_Erase
; Function compile flags: /Ogty
;	COMDAT ?_Erase@?$_Tree@V?$_Tmap_traits@HPAVCRespawner@@U?$less@H@std@@V?$allocator@U?$pair@$$CBHPAVCRespawner@@@std@@@3@$0A@@std@@@std@@IAEXPAU_Node@?$_Tree_nod@V?$_Tmap_traits@HPAVCRespawner@@U?$less@H@std@@V?$allocator@U?$pair@$$CBHPAVCRespawner@@@std@@@3@$0A@@std@@@2@@Z
_TEXT	SEGMENT
__Rootnode$ = 8						; size = 4
?_Erase@?$_Tree@V?$_Tmap_traits@HPAVCRespawner@@U?$less@H@std@@V?$allocator@U?$pair@$$CBHPAVCRespawner@@@std@@@3@$0A@@std@@@std@@IAEXPAU_Node@?$_Tree_nod@V?$_Tmap_traits@HPAVCRespawner@@U?$less@H@std@@V?$allocator@U?$pair@$$CBHPAVCRespawner@@@std@@@3@$0A@@std@@@2@@Z PROC NEAR ; std::_Tree<std::_Tmap_traits<int,CRespawner *,std::less<int>,std::allocator<std::pair<int const ,CRespawner *> >,0> >::_Erase, COMDAT
; _this$ = ecx

; 890  : 		{	// free entire subtree, recursively

  00000	53		 push	 ebx
  00001	56		 push	 esi
  00002	57		 push	 edi

; 891  : 		for (_Nodeptr _Pnode = _Rootnode; !_Isnil(_Pnode); _Rootnode = _Pnode)

  00003	8b 7c 24 10	 mov	 edi, DWORD PTR __Rootnode$[esp+8]
  00007	8a 47 15	 mov	 al, BYTE PTR [edi+21]
  0000a	84 c0		 test	 al, al
  0000c	8b d9		 mov	 ebx, ecx
  0000e	8b f7		 mov	 esi, edi
  00010	75 1f		 jne	 SHORT $L229307
$L229305:

; 892  : 			{	// free subtrees, then node
; 893  : 			_Erase(_Right(_Pnode));

  00012	8b 46 08	 mov	 eax, DWORD PTR [esi+8]
  00015	50		 push	 eax
  00016	8b cb		 mov	 ecx, ebx
  00018	e8 00 00 00 00	 call	 ?_Erase@?$_Tree@V?$_Tmap_traits@HPAVCRespawner@@U?$less@H@std@@V?$allocator@U?$pair@$$CBHPAVCRespawner@@@std@@@3@$0A@@std@@@std@@IAEXPAU_Node@?$_Tree_nod@V?$_Tmap_traits@HPAVCRespawner@@U?$less@H@std@@V?$allocator@U?$pair@$$CBHPAVCRespawner@@@std@@@3@$0A@@std@@@2@@Z ; std::_Tree<std::_Tmap_traits<int,CRespawner *,std::less<int>,std::allocator<std::pair<int const ,CRespawner *> >,0> >::_Erase

; 894  : 			_Pnode = _Left(_Pnode);

  0001d	8b 36		 mov	 esi, DWORD PTR [esi]

; 895  : 			this->_Alnod.destroy(_Rootnode);	// destroy, free erased node
; 896  : 			this->_Alnod.deallocate(_Rootnode, 1);

  0001f	57		 push	 edi
  00020	e8 00 00 00 00	 call	 ??3@YAXPAX@Z		; operator delete
  00025	8a 46 15	 mov	 al, BYTE PTR [esi+21]
  00028	83 c4 04	 add	 esp, 4
  0002b	84 c0		 test	 al, al
  0002d	8b fe		 mov	 edi, esi
  0002f	74 e1		 je	 SHORT $L229305
$L229307:
  00031	5f		 pop	 edi
  00032	5e		 pop	 esi
  00033	5b		 pop	 ebx

; 897  : 			}
; 898  : 		}

  00034	c2 04 00	 ret	 4
?_Erase@?$_Tree@V?$_Tmap_traits@HPAVCRespawner@@U?$less@H@std@@V?$allocator@U?$pair@$$CBHPAVCRespawner@@@std@@@3@$0A@@std@@@std@@IAEXPAU_Node@?$_Tree_nod@V?$_Tmap_traits@HPAVCRespawner@@U?$less@H@std@@V?$allocator@U?$pair@$$CBHPAVCRespawner@@@std@@@3@$0A@@std@@@2@@Z ENDP ; std::_Tree<std::_Tmap_traits<int,CRespawner *,std::less<int>,std::allocator<std::pair<int const ,CRespawner *> >,0> >::_Erase
_TEXT	ENDS
PUBLIC	??Fiterator@?$_Tree@V?$_Tmap_traits@HPAVCRespawner@@U?$less@H@std@@V?$allocator@U?$pair@$$CBHPAVCRespawner@@@std@@@3@$0A@@std@@@std@@QAEAAV012@XZ ; std::_Tree<std::_Tmap_traits<int,CRespawner *,std::less<int>,std::allocator<std::pair<int const ,CRespawner *> >,0> >::iterator::operator--
; Function compile flags: /Ogty
;	COMDAT ??Fiterator@?$_Tree@V?$_Tmap_traits@HPAVCRespawner@@U?$less@H@std@@V?$allocator@U?$pair@$$CBHPAVCRespawner@@@std@@@3@$0A@@std@@@std@@QAEAAV012@XZ
_TEXT	SEGMENT
??Fiterator@?$_Tree@V?$_Tmap_traits@HPAVCRespawner@@U?$less@H@std@@V?$allocator@U?$pair@$$CBHPAVCRespawner@@@std@@@3@$0A@@std@@@std@@QAEAAV012@XZ PROC NEAR ; std::_Tree<std::_Tmap_traits<int,CRespawner *,std::less<int>,std::allocator<std::pair<int const ,CRespawner *> >,0> >::iterator::operator--, COMDAT
; _this$ = ecx

; 339  : 			{	// predecrement

  00000	56		 push	 esi
  00001	8b f1		 mov	 esi, ecx

; 340  : 			--(*(const_iterator *)this);

  00003	e8 00 00 00 00	 call	 ?_Dec@const_iterator@?$_Tree@V?$_Tmap_traits@HPAVCRespawner@@U?$less@H@std@@V?$allocator@U?$pair@$$CBHPAVCRespawner@@@std@@@3@$0A@@std@@@std@@QAEXXZ ; std::_Tree<std::_Tmap_traits<int,CRespawner *,std::less<int>,std::allocator<std::pair<int const ,CRespawner *> >,0> >::const_iterator::_Dec

; 341  : 			return (*this);

  00008	8b c6		 mov	 eax, esi
  0000a	5e		 pop	 esi

; 342  : 			}

  0000b	c3		 ret	 0
??Fiterator@?$_Tree@V?$_Tmap_traits@HPAVCRespawner@@U?$less@H@std@@V?$allocator@U?$pair@$$CBHPAVCRespawner@@@std@@@3@$0A@@std@@@std@@QAEAAV012@XZ ENDP ; std::_Tree<std::_Tmap_traits<int,CRespawner *,std::less<int>,std::allocator<std::pair<int const ,CRespawner *> >,0> >::iterator::operator--
_TEXT	ENDS
PUBLIC	?_Buynode@?$_Tree@V?$_Tmap_traits@HPAVCRespawner@@U?$less@H@std@@V?$allocator@U?$pair@$$CBHPAVCRespawner@@@std@@@3@$0A@@std@@@std@@IAEPAU_Node@?$_Tree_nod@V?$_Tmap_traits@HPAVCRespawner@@U?$less@H@std@@V?$allocator@U?$pair@$$CBHPAVCRespawner@@@std@@@3@$0A@@std@@@2@PAU342@00ABU?$pair@$$CBHPAVCRespawner@@@2@D@Z ; std::_Tree<std::_Tmap_traits<int,CRespawner *,std::less<int>,std::allocator<std::pair<int const ,CRespawner *> >,0> >::_Buynode
EXTRN	__CxxThrowException@8:NEAR
; Function compile flags: /Ogty
;	COMDAT ?_Buynode@?$_Tree@V?$_Tmap_traits@HPAVCRespawner@@U?$less@H@std@@V?$allocator@U?$pair@$$CBHPAVCRespawner@@@std@@@3@$0A@@std@@@std@@IAEPAU_Node@?$_Tree_nod@V?$_Tmap_traits@HPAVCRespawner@@U?$less@H@std@@V?$allocator@U?$pair@$$CBHPAVCRespawner@@@std@@@3@$0A@@std@@@2@PAU342@00ABU?$pair@$$CBHPAVCRespawner@@@2@D@Z
_TEXT	SEGMENT
__Larg$ = 8						; size = 4
__Parg$ = 12						; size = 4
__Rarg$ = 16						; size = 4
__Val$ = 20						; size = 4
__Carg$ = 24						; size = 1
?_Buynode@?$_Tree@V?$_Tmap_traits@HPAVCRespawner@@U?$less@H@std@@V?$allocator@U?$pair@$$CBHPAVCRespawner@@@std@@@3@$0A@@std@@@std@@IAEPAU_Node@?$_Tree_nod@V?$_Tmap_traits@HPAVCRespawner@@U?$less@H@std@@V?$allocator@U?$pair@$$CBHPAVCRespawner@@@std@@@3@$0A@@std@@@2@PAU342@00ABU?$pair@$$CBHPAVCRespawner@@@2@D@Z PROC NEAR ; std::_Tree<std::_Tmap_traits<int,CRespawner *,std::less<int>,std::allocator<std::pair<int const ,CRespawner *> >,0> >::_Buynode, COMDAT
; _this$ = ecx

; 1131 : 		_Nodeptr _Wherenode = this->_Alnod.allocate(1);

  00000	6a 18		 push	 24			; 00000018H
  00002	e8 00 00 00 00	 call	 ??2@YAPAXI@Z		; operator new
  00007	83 c4 04	 add	 esp, 4

; 1132 : 		_TRY_BEGIN
; 1133 : 		new (_Wherenode) _Node(_Larg, _Parg, _Rarg, _Val, _Carg);

  0000a	85 c0		 test	 eax, eax
  0000c	74 2e		 je	 SHORT $L232821
  0000e	8b 4c 24 04	 mov	 ecx, DWORD PTR __Larg$[esp-4]
  00012	8b 54 24 08	 mov	 edx, DWORD PTR __Parg$[esp-4]
  00016	89 08		 mov	 DWORD PTR [eax], ecx
  00018	8b 4c 24 0c	 mov	 ecx, DWORD PTR __Rarg$[esp-4]
  0001c	89 48 08	 mov	 DWORD PTR [eax+8], ecx
  0001f	8b 4c 24 10	 mov	 ecx, DWORD PTR __Val$[esp-4]
  00023	89 50 04	 mov	 DWORD PTR [eax+4], edx
  00026	8b 11		 mov	 edx, DWORD PTR [ecx]
  00028	89 50 0c	 mov	 DWORD PTR [eax+12], edx
  0002b	8b 49 04	 mov	 ecx, DWORD PTR [ecx+4]
  0002e	8a 54 24 14	 mov	 dl, BYTE PTR __Carg$[esp-4]
  00032	89 48 10	 mov	 DWORD PTR [eax+16], ecx
  00035	88 50 14	 mov	 BYTE PTR [eax+20], dl
  00038	c6 40 15 00	 mov	 BYTE PTR [eax+21], 0
$L232821:

; 1134 : 		_CATCH_ALL
; 1135 : 		this->_Alnod.deallocate(_Wherenode, 1);
; 1136 : 		_RERAISE;
; 1137 : 		_CATCH_END
; 1138 : 		return (_Wherenode);
; 1139 : 		}

  0003c	c2 14 00	 ret	 20			; 00000014H
?_Buynode@?$_Tree@V?$_Tmap_traits@HPAVCRespawner@@U?$less@H@std@@V?$allocator@U?$pair@$$CBHPAVCRespawner@@@std@@@3@$0A@@std@@@std@@IAEPAU_Node@?$_Tree_nod@V?$_Tmap_traits@HPAVCRespawner@@U?$less@H@std@@V?$allocator@U?$pair@$$CBHPAVCRespawner@@@std@@@3@$0A@@std@@@2@PAU342@00ABU?$pair@$$CBHPAVCRespawner@@@2@D@Z ENDP ; std::_Tree<std::_Tmap_traits<int,CRespawner *,std::less<int>,std::allocator<std::pair<int const ,CRespawner *> >,0> >::_Buynode
_TEXT	ENDS
PUBLIC	?_Buynode@?$_Tree@V?$_Tmap_traits@HPAVCRespawner@@U?$less@H@std@@V?$allocator@U?$pair@$$CBHPAVCRespawner@@@std@@@3@$0A@@std@@@std@@IAEPAU_Node@?$_Tree_nod@V?$_Tmap_traits@HPAVCRespawner@@U?$less@H@std@@V?$allocator@U?$pair@$$CBHPAVCRespawner@@@std@@@3@$0A@@std@@@2@XZ ; std::_Tree<std::_Tmap_traits<int,CRespawner *,std::less<int>,std::allocator<std::pair<int const ,CRespawner *> >,0> >::_Buynode
; Function compile flags: /Ogty
;	COMDAT ?_Buynode@?$_Tree@V?$_Tmap_traits@HPAVCRespawner@@U?$less@H@std@@V?$allocator@U?$pair@$$CBHPAVCRespawner@@@std@@@3@$0A@@std@@@std@@IAEPAU_Node@?$_Tree_nod@V?$_Tmap_traits@HPAVCRespawner@@U?$less@H@std@@V?$allocator@U?$pair@$$CBHPAVCRespawner@@@std@@@3@$0A@@std@@@2@XZ
_TEXT	SEGMENT
?_Buynode@?$_Tree@V?$_Tmap_traits@HPAVCRespawner@@U?$less@H@std@@V?$allocator@U?$pair@$$CBHPAVCRespawner@@@std@@@3@$0A@@std@@@std@@IAEPAU_Node@?$_Tree_nod@V?$_Tmap_traits@HPAVCRespawner@@U?$less@H@std@@V?$allocator@U?$pair@$$CBHPAVCRespawner@@@std@@@3@$0A@@std@@@2@XZ PROC NEAR ; std::_Tree<std::_Tmap_traits<int,CRespawner *,std::less<int>,std::allocator<std::pair<int const ,CRespawner *> >,0> >::_Buynode, COMDAT
; _this$ = ecx

; 1106 : 		_Nodeptr _Wherenode = this->_Alnod.allocate(1);

  00000	6a 18		 push	 24			; 00000018H
  00002	e8 00 00 00 00	 call	 ??2@YAPAXI@Z		; operator new
  00007	83 c4 04	 add	 esp, 4

; 1107 : 		int _Linkcnt = 0;
; 1108 : 
; 1109 : 		_TRY_BEGIN
; 1110 : 		this->_Alptr.construct(&_Left(_Wherenode), 0);

  0000a	85 c0		 test	 eax, eax
  0000c	74 06		 je	 SHORT $L232887
  0000e	c7 00 00 00 00
	00		 mov	 DWORD PTR [eax], 0
$L232887:

; 1111 : 		++_Linkcnt;
; 1112 : 		this->_Alptr.construct(&_Parent(_Wherenode), 0);

  00014	8d 48 04	 lea	 ecx, DWORD PTR [eax+4]
  00017	85 c9		 test	 ecx, ecx
  00019	74 06		 je	 SHORT $L232914
  0001b	c7 01 00 00 00
	00		 mov	 DWORD PTR [ecx], 0
$L232914:

; 1113 : 		++_Linkcnt;
; 1114 : 		this->_Alptr.construct(&_Right(_Wherenode), 0);

  00021	8d 48 08	 lea	 ecx, DWORD PTR [eax+8]
  00024	85 c9		 test	 ecx, ecx
  00026	74 06		 je	 SHORT $L232941
  00028	c7 01 00 00 00
	00		 mov	 DWORD PTR [ecx], 0
$L232941:

; 1115 : 		_CATCH_ALL
; 1116 : 		if (1 < _Linkcnt)
; 1117 : 			this->_Alptr.destroy(&_Parent(_Wherenode));
; 1118 : 		if (0 < _Linkcnt)
; 1119 : 			this->_Alptr.destroy(&_Left(_Wherenode));
; 1120 : 		this->_Alnod.deallocate(_Wherenode, 1);
; 1121 : 		_RERAISE;
; 1122 : 		_CATCH_END
; 1123 : 		_Color(_Wherenode) = _Black;

  0002e	c6 40 14 01	 mov	 BYTE PTR [eax+20], 1

; 1124 : 		_Isnil(_Wherenode) = false;

  00032	c6 40 15 00	 mov	 BYTE PTR [eax+21], 0

; 1125 : 		return (_Wherenode);
; 1126 : 		}

  00036	c3		 ret	 0
?_Buynode@?$_Tree@V?$_Tmap_traits@HPAVCRespawner@@U?$less@H@std@@V?$allocator@U?$pair@$$CBHPAVCRespawner@@@std@@@3@$0A@@std@@@std@@IAEPAU_Node@?$_Tree_nod@V?$_Tmap_traits@HPAVCRespawner@@U?$less@H@std@@V?$allocator@U?$pair@$$CBHPAVCRespawner@@@std@@@3@$0A@@std@@@2@XZ ENDP ; std::_Tree<std::_Tmap_traits<int,CRespawner *,std::less<int>,std::allocator<std::pair<int const ,CRespawner *> >,0> >::_Buynode
_TEXT	ENDS
PUBLIC	??0?$_Tree_ptr@V?$_Tmap_traits@HPAVCRespawner@@U?$less@H@std@@V?$allocator@U?$pair@$$CBHPAVCRespawner@@@std@@@3@$0A@@std@@@std@@IAE@ABU?$less@H@1@V?$allocator@U?$pair@$$CBHPAVCRespawner@@@std@@@1@@Z ; std::_Tree_ptr<std::_Tmap_traits<int,CRespawner *,std::less<int>,std::allocator<std::pair<int const ,CRespawner *> >,0> >::_Tree_ptr<std::_Tmap_traits<int,CRespawner *,std::less<int>,std::allocator<std::pair<int const ,CRespawner *> >,0> >
; Function compile flags: /Ogty
;	COMDAT ??0?$_Tree_ptr@V?$_Tmap_traits@HPAVCRespawner@@U?$less@H@std@@V?$allocator@U?$pair@$$CBHPAVCRespawner@@@std@@@3@$0A@@std@@@std@@IAE@ABU?$less@H@1@V?$allocator@U?$pair@$$CBHPAVCRespawner@@@std@@@1@@Z
_TEXT	SEGMENT
__Parg$ = 8						; size = 4
__Al$ = 12						; size = 1
??0?$_Tree_ptr@V?$_Tmap_traits@HPAVCRespawner@@U?$less@H@std@@V?$allocator@U?$pair@$$CBHPAVCRespawner@@@std@@@3@$0A@@std@@@std@@IAE@ABU?$less@H@1@V?$allocator@U?$pair@$$CBHPAVCRespawner@@@std@@@1@@Z PROC NEAR ; std::_Tree_ptr<std::_Tmap_traits<int,CRespawner *,std::less<int>,std::allocator<std::pair<int const ,CRespawner *> >,0> >::_Tree_ptr<std::_Tmap_traits<int,CRespawner *,std::less<int>,std::allocator<std::pair<int const ,CRespawner *> >,0> >, COMDAT
; _this$ = ecx

; 76   : 		{	// construct base, and allocator from _Al

  00000	8b c1		 mov	 eax, ecx

; 77   : 		}

  00002	c2 08 00	 ret	 8
??0?$_Tree_ptr@V?$_Tmap_traits@HPAVCRespawner@@U?$less@H@std@@V?$allocator@U?$pair@$$CBHPAVCRespawner@@@std@@@3@$0A@@std@@@std@@IAE@ABU?$less@H@1@V?$allocator@U?$pair@$$CBHPAVCRespawner@@@std@@@1@@Z ENDP ; std::_Tree_ptr<std::_Tmap_traits<int,CRespawner *,std::less<int>,std::allocator<std::pair<int const ,CRespawner *> >,0> >::_Tree_ptr<std::_Tmap_traits<int,CRespawner *,std::less<int>,std::allocator<std::pair<int const ,CRespawner *> >,0> >
_TEXT	ENDS
PUBLIC	??Eiterator@?$_Tree@V?$_Tmap_traits@HPAVCRespawner@@U?$less@H@std@@V?$allocator@U?$pair@$$CBHPAVCRespawner@@@std@@@3@$0A@@std@@@std@@QAE?AV012@H@Z ; std::_Tree<std::_Tmap_traits<int,CRespawner *,std::less<int>,std::allocator<std::pair<int const ,CRespawner *> >,0> >::iterator::operator++
; Function compile flags: /Ogty
;	COMDAT ??Eiterator@?$_Tree@V?$_Tmap_traits@HPAVCRespawner@@U?$less@H@std@@V?$allocator@U?$pair@$$CBHPAVCRespawner@@@std@@@3@$0A@@std@@@std@@QAE?AV012@H@Z
_TEXT	SEGMENT
___$ReturnUdt$ = 8					; size = 4
___formal$ = 12						; size = 4
??Eiterator@?$_Tree@V?$_Tmap_traits@HPAVCRespawner@@U?$less@H@std@@V?$allocator@U?$pair@$$CBHPAVCRespawner@@@std@@@3@$0A@@std@@@std@@QAE?AV012@H@Z PROC NEAR ; std::_Tree<std::_Tmap_traits<int,CRespawner *,std::less<int>,std::allocator<std::pair<int const ,CRespawner *> >,0> >::iterator::operator++, COMDAT
; _this$ = ecx

; 332  : 			{	// postincrement

  00000	56		 push	 esi

; 333  : 			iterator _Tmp = *this;

  00001	8b 31		 mov	 esi, DWORD PTR [ecx]

; 334  : 			++*this;

  00003	e8 00 00 00 00	 call	 ?_Inc@const_iterator@?$_Tree@V?$_Tmap_traits@HPAVCRespawner@@U?$less@H@std@@V?$allocator@U?$pair@$$CBHPAVCRespawner@@@std@@@3@$0A@@std@@@std@@QAEXXZ ; std::_Tree<std::_Tmap_traits<int,CRespawner *,std::less<int>,std::allocator<std::pair<int const ,CRespawner *> >,0> >::const_iterator::_Inc

; 335  : 			return (_Tmp);

  00008	8b 44 24 08	 mov	 eax, DWORD PTR ___$ReturnUdt$[esp]
  0000c	89 30		 mov	 DWORD PTR [eax], esi
  0000e	5e		 pop	 esi

; 336  : 			}

  0000f	c2 08 00	 ret	 8
??Eiterator@?$_Tree@V?$_Tmap_traits@HPAVCRespawner@@U?$less@H@std@@V?$allocator@U?$pair@$$CBHPAVCRespawner@@@std@@@3@$0A@@std@@@std@@QAE?AV012@H@Z ENDP ; std::_Tree<std::_Tmap_traits<int,CRespawner *,std::less<int>,std::allocator<std::pair<int const ,CRespawner *> >,0> >::iterator::operator++
_TEXT	ENDS
PUBLIC	??$_Destroy_range@VCRespawnInfo@@V?$allocator@VCRespawnInfo@@@std@@@std@@YAXPAVCRespawnInfo@@0AAV?$allocator@VCRespawnInfo@@@0@U_Nonscalar_ptr_iterator_tag@0@@Z ; std::_Destroy_range<CRespawnInfo,std::allocator<CRespawnInfo> >
; Function compile flags: /Ogty
; File c:\program files\microsoft visual studio .net 2003\vc7\include\xmemory
;	COMDAT ??$_Destroy_range@VCRespawnInfo@@V?$allocator@VCRespawnInfo@@@std@@@std@@YAXPAVCRespawnInfo@@0AAV?$allocator@VCRespawnInfo@@@0@U_Nonscalar_ptr_iterator_tag@0@@Z
_TEXT	SEGMENT
__First$ = 8						; size = 4
__Last$ = 12						; size = 4
__Al$ = 16						; size = 4
___formal$ = 20						; size = 1
??$_Destroy_range@VCRespawnInfo@@V?$allocator@VCRespawnInfo@@@std@@@std@@YAXPAVCRespawnInfo@@0AAV?$allocator@VCRespawnInfo@@@0@U_Nonscalar_ptr_iterator_tag@0@@Z PROC NEAR ; std::_Destroy_range<CRespawnInfo,std::allocator<CRespawnInfo> >, COMDAT

; 224  : 	{	// destroy [_First, _Last), arbitrary type

  00000	56		 push	 esi

; 225  : 	for (; _First != _Last; ++_First)

  00001	8b 74 24 08	 mov	 esi, DWORD PTR __First$[esp]
  00005	57		 push	 edi
  00006	8b 7c 24 10	 mov	 edi, DWORD PTR __Last$[esp+4]
  0000a	3b f7		 cmp	 esi, edi
  0000c	74 14		 je	 SHORT $L230336
  0000e	8b ff		 npad	 2
$L230334:

; 226  : 		_Al.destroy(_First);

  00010	8b 06		 mov	 eax, DWORD PTR [esi]
  00012	6a 00		 push	 0
  00014	8b ce		 mov	 ecx, esi
  00016	ff 10		 call	 DWORD PTR [eax]
  00018	81 c6 48 05 00
	00		 add	 esi, 1352		; 00000548H
  0001e	3b f7		 cmp	 esi, edi
  00020	75 ee		 jne	 SHORT $L230334
$L230336:
  00022	5f		 pop	 edi
  00023	5e		 pop	 esi

; 227  : 	}

  00024	c3		 ret	 0
??$_Destroy_range@VCRespawnInfo@@V?$allocator@VCRespawnInfo@@@std@@@std@@YAXPAVCRespawnInfo@@0AAV?$allocator@VCRespawnInfo@@@0@U_Nonscalar_ptr_iterator_tag@0@@Z ENDP ; std::_Destroy_range<CRespawnInfo,std::allocator<CRespawnInfo> >
_TEXT	ENDS
PUBLIC	?construct@?$allocator@VCRespawnInfo@@@std@@QAEXPAVCRespawnInfo@@ABV3@@Z ; std::allocator<CRespawnInfo>::construct
; Function compile flags: /Ogty
;	COMDAT ?construct@?$allocator@VCRespawnInfo@@@std@@QAEXPAVCRespawnInfo@@ABV3@@Z
_TEXT	SEGMENT
__Ptr$ = 8						; size = 4
__Val$ = 12						; size = 4
?construct@?$allocator@VCRespawnInfo@@@std@@QAEXPAVCRespawnInfo@@ABV3@@Z PROC NEAR ; std::allocator<CRespawnInfo>::construct, COMDAT
; _this$ = ecx

; 147  : 		_Construct(_Ptr, _Val);

  00000	8b 44 24 08	 mov	 eax, DWORD PTR __Val$[esp-4]
  00004	8b 4c 24 04	 mov	 ecx, DWORD PTR __Ptr$[esp-4]
  00008	50		 push	 eax
  00009	51		 push	 ecx
  0000a	e8 00 00 00 00	 call	 ??$_Construct@VCRespawnInfo@@V1@@std@@YAXPAVCRespawnInfo@@ABV1@@Z ; std::_Construct<CRespawnInfo,CRespawnInfo>
  0000f	83 c4 08	 add	 esp, 8

; 148  : 		}

  00012	c2 08 00	 ret	 8
?construct@?$allocator@VCRespawnInfo@@@std@@QAEXPAVCRespawnInfo@@ABV3@@Z ENDP ; std::allocator<CRespawnInfo>::construct
_TEXT	ENDS
PUBLIC	??$_Uninit_copy@PAVCRespawnInfo@@PAV1@V?$allocator@VCRespawnInfo@@@std@@@std@@YAPAVCRespawnInfo@@PAV1@00AAV?$allocator@VCRespawnInfo@@@0@U_Nonscalar_ptr_iterator_tag@0@@Z ; std::_Uninit_copy<CRespawnInfo *,CRespawnInfo *,std::allocator<CRespawnInfo> >
; Function compile flags: /Ogty
; File c:\program files\microsoft visual studio .net 2003\vc7\include\memory
;	COMDAT ??$_Uninit_copy@PAVCRespawnInfo@@PAV1@V?$allocator@VCRespawnInfo@@@std@@@std@@YAPAVCRespawnInfo@@PAV1@00AAV?$allocator@VCRespawnInfo@@@0@U_Nonscalar_ptr_iterator_tag@0@@Z
_TEXT	SEGMENT
__First$ = 8						; size = 4
__Last$ = 12						; size = 4
__Dest$ = 16						; size = 4
__Al$ = 20						; size = 4
___formal$ = 24						; size = 1
??$_Uninit_copy@PAVCRespawnInfo@@PAV1@V?$allocator@VCRespawnInfo@@@std@@@std@@YAPAVCRespawnInfo@@PAV1@00AAV?$allocator@VCRespawnInfo@@@0@U_Nonscalar_ptr_iterator_tag@0@@Z PROC NEAR ; std::_Uninit_copy<CRespawnInfo *,CRespawnInfo *,std::allocator<CRespawnInfo> >, COMDAT

; 77   : 	{	// copy [_First, _Last) to raw _Dest, using _Al, arbitrary type

  00000	53		 push	 ebx

; 78   : 	_FwdIt _Next = _Dest;
; 79   : 
; 80   : 	_TRY_BEGIN
; 81   : 	for (; _First != _Last; ++_Dest, ++_First)

  00001	8b 5c 24 0c	 mov	 ebx, DWORD PTR __Last$[esp]
  00005	56		 push	 esi
  00006	8b 74 24 0c	 mov	 esi, DWORD PTR __First$[esp+4]
  0000a	3b f3		 cmp	 esi, ebx
  0000c	74 27		 je	 SHORT $L233059
  0000e	57		 push	 edi
  0000f	8b 7c 24 18	 mov	 edi, DWORD PTR __Dest$[esp+8]
$L230537:

; 82   : 		_Al.construct(_Dest, *_First);

  00013	85 ff		 test	 edi, edi
  00015	74 08		 je	 SHORT $L233043
  00017	56		 push	 esi
  00018	8b cf		 mov	 ecx, edi
  0001a	e8 00 00 00 00	 call	 ??0CRespawnInfo@@QAE@ABV0@@Z ; CRespawnInfo::CRespawnInfo
$L233043:
  0001f	81 c6 48 05 00
	00		 add	 esi, 1352		; 00000548H
  00025	81 c7 48 05 00
	00		 add	 edi, 1352		; 00000548H
  0002b	3b f3		 cmp	 esi, ebx
  0002d	75 e4		 jne	 SHORT $L230537

; 83   : 	_CATCH_ALL
; 84   : 	for (; _Next != _Dest; ++_Next)
; 85   : 		_Al.destroy(_Next);
; 86   : 	_RERAISE;
; 87   : 	_CATCH_END
; 88   : 	return (_Dest);

  0002f	8b c7		 mov	 eax, edi
  00031	5f		 pop	 edi
  00032	5e		 pop	 esi
  00033	5b		 pop	 ebx

; 89   : 	}

  00034	c3		 ret	 0
$L233059:

; 83   : 	_CATCH_ALL
; 84   : 	for (; _Next != _Dest; ++_Next)
; 85   : 		_Al.destroy(_Next);
; 86   : 	_RERAISE;
; 87   : 	_CATCH_END
; 88   : 	return (_Dest);

  00035	8b 44 24 14	 mov	 eax, DWORD PTR __Dest$[esp+4]
  00039	5e		 pop	 esi
  0003a	5b		 pop	 ebx

; 89   : 	}

  0003b	c3		 ret	 0
??$_Uninit_copy@PAVCRespawnInfo@@PAV1@V?$allocator@VCRespawnInfo@@@std@@@std@@YAPAVCRespawnInfo@@PAV1@00AAV?$allocator@VCRespawnInfo@@@0@U_Nonscalar_ptr_iterator_tag@0@@Z ENDP ; std::_Uninit_copy<CRespawnInfo *,CRespawnInfo *,std::allocator<CRespawnInfo> >
_TEXT	ENDS
PUBLIC	??$advance@Vconst_iterator@?$vector@VCRespawnInfo@@V?$allocator@VCRespawnInfo@@@std@@@std@@H@std@@YAXAAVconst_iterator@?$vector@VCRespawnInfo@@V?$allocator@VCRespawnInfo@@@std@@@0@H@Z ; std::advance<std::vector<CRespawnInfo,std::allocator<CRespawnInfo> >::const_iterator,int>
; Function compile flags: /Ogty
; File c:\program files\microsoft visual studio .net 2003\vc7\include\iterator
;	COMDAT ??$advance@Vconst_iterator@?$vector@VCRespawnInfo@@V?$allocator@VCRespawnInfo@@@std@@@std@@H@std@@YAXAAVconst_iterator@?$vector@VCRespawnInfo@@V?$allocator@VCRespawnInfo@@@std@@@0@H@Z
_TEXT	SEGMENT
__Where$ = 8						; size = 4
__Off$ = 12						; size = 4
??$advance@Vconst_iterator@?$vector@VCRespawnInfo@@V?$allocator@VCRespawnInfo@@@std@@@std@@H@std@@YAXAAVconst_iterator@?$vector@VCRespawnInfo@@V?$allocator@VCRespawnInfo@@@std@@@0@H@Z PROC NEAR ; std::advance<std::vector<CRespawnInfo,std::allocator<CRespawnInfo> >::const_iterator,int>, COMDAT

; 295  : 	_Advance(_Where, _Off, _Iter_cat(_Where));

  00000	8b 4c 24 08	 mov	 ecx, DWORD PTR __Off$[esp-4]
  00004	8b 44 24 04	 mov	 eax, DWORD PTR __Where$[esp-4]
  00008	69 c9 48 05 00
	00		 imul	 ecx, 1352		; 00000548H
  0000e	01 08		 add	 DWORD PTR [eax], ecx

; 296  : 	}

  00010	c3		 ret	 0
??$advance@Vconst_iterator@?$vector@VCRespawnInfo@@V?$allocator@VCRespawnInfo@@@std@@@std@@H@std@@YAXAAVconst_iterator@?$vector@VCRespawnInfo@@V?$allocator@VCRespawnInfo@@@std@@@0@H@Z ENDP ; std::advance<std::vector<CRespawnInfo,std::allocator<CRespawnInfo> >::const_iterator,int>
_TEXT	ENDS
PUBLIC	??$copy@Vconst_iterator@?$vector@VCRespawnInfo@@V?$allocator@VCRespawnInfo@@@std@@@std@@PAVCRespawnInfo@@@std@@YAPAVCRespawnInfo@@Vconst_iterator@?$vector@VCRespawnInfo@@V?$allocator@VCRespawnInfo@@@std@@@0@0PAV1@@Z ; std::copy<std::vector<CRespawnInfo,std::allocator<CRespawnInfo> >::const_iterator,CRespawnInfo *>
; Function compile flags: /Ogty
; File c:\program files\microsoft visual studio .net 2003\vc7\include\xutility
;	COMDAT ??$copy@Vconst_iterator@?$vector@VCRespawnInfo@@V?$allocator@VCRespawnInfo@@@std@@@std@@PAVCRespawnInfo@@@std@@YAPAVCRespawnInfo@@Vconst_iterator@?$vector@VCRespawnInfo@@V?$allocator@VCRespawnInfo@@@std@@@0@0PAV1@@Z
_TEXT	SEGMENT
__Cat$233083 = -4					; size = 1
__First$ = 8						; size = 4
__Last$ = 12						; size = 4
__Dest$ = 16						; size = 4
??$copy@Vconst_iterator@?$vector@VCRespawnInfo@@V?$allocator@VCRespawnInfo@@@std@@@std@@PAVCRespawnInfo@@@std@@YAPAVCRespawnInfo@@Vconst_iterator@?$vector@VCRespawnInfo@@V?$allocator@VCRespawnInfo@@@std@@@0@0PAV1@@Z PROC NEAR ; std::copy<std::vector<CRespawnInfo,std::allocator<CRespawnInfo> >::const_iterator,CRespawnInfo *>, COMDAT

; 1039 : 	{	// copy [_First, _Last) to [_Dest, ...)

  00000	51		 push	 ecx

; 1040 : 	return (_Copy_opt(_First, _Last, _Dest, _Ptr_cat(_First, _Dest)));

  00001	8b 04 24	 mov	 eax, DWORD PTR __Cat$233083[esp+4]
  00004	8b 4c 24 10	 mov	 ecx, DWORD PTR __Dest$[esp]
  00008	8b 54 24 0c	 mov	 edx, DWORD PTR __Last$[esp]
  0000c	50		 push	 eax
  0000d	8b 44 24 0c	 mov	 eax, DWORD PTR __First$[esp+4]
  00011	51		 push	 ecx
  00012	52		 push	 edx
  00013	50		 push	 eax
  00014	e8 00 00 00 00	 call	 ??$_Copy_opt@Vconst_iterator@?$vector@VCRespawnInfo@@V?$allocator@VCRespawnInfo@@@std@@@std@@PAVCRespawnInfo@@@std@@YAPAVCRespawnInfo@@Vconst_iterator@?$vector@VCRespawnInfo@@V?$allocator@VCRespawnInfo@@@std@@@0@0PAV1@U_Nonscalar_ptr_iterator_tag@0@@Z ; std::_Copy_opt<std::vector<CRespawnInfo,std::allocator<CRespawnInfo> >::const_iterator,CRespawnInfo *>

; 1041 : 	}

  00019	83 c4 14	 add	 esp, 20			; 00000014H
  0001c	c3		 ret	 0
??$copy@Vconst_iterator@?$vector@VCRespawnInfo@@V?$allocator@VCRespawnInfo@@@std@@@std@@PAVCRespawnInfo@@@std@@YAPAVCRespawnInfo@@Vconst_iterator@?$vector@VCRespawnInfo@@V?$allocator@VCRespawnInfo@@@std@@@0@0PAV1@@Z ENDP ; std::copy<std::vector<CRespawnInfo,std::allocator<CRespawnInfo> >::const_iterator,CRespawnInfo *>
_TEXT	ENDS
PUBLIC	??$_Uninit_copy@Vconst_iterator@?$vector@VCRespawnInfo@@V?$allocator@VCRespawnInfo@@@std@@@std@@PAVCRespawnInfo@@V?$allocator@VCRespawnInfo@@@3@@std@@YAPAVCRespawnInfo@@Vconst_iterator@?$vector@VCRespawnInfo@@V?$allocator@VCRespawnInfo@@@std@@@0@0PAV1@AAV?$allocator@VCRespawnInfo@@@0@U_Nonscalar_ptr_iterator_tag@0@@Z ; std::_Uninit_copy<std::vector<CRespawnInfo,std::allocator<CRespawnInfo> >::const_iterator,CRespawnInfo *,std::allocator<CRespawnInfo> >
; Function compile flags: /Ogty
; File c:\program files\microsoft visual studio .net 2003\vc7\include\memory
;	COMDAT ??$_Uninit_copy@Vconst_iterator@?$vector@VCRespawnInfo@@V?$allocator@VCRespawnInfo@@@std@@@std@@PAVCRespawnInfo@@V?$allocator@VCRespawnInfo@@@3@@std@@YAPAVCRespawnInfo@@Vconst_iterator@?$vector@VCRespawnInfo@@V?$allocator@VCRespawnInfo@@@std@@@0@0PAV1@AAV?$allocator@VCRespawnInfo@@@0@U_Nonscalar_ptr_iterator_tag@0@@Z
_TEXT	SEGMENT
__First$ = 8						; size = 4
__Last$ = 12						; size = 4
__Dest$ = 16						; size = 4
__Al$ = 20						; size = 4
___formal$ = 24						; size = 1
??$_Uninit_copy@Vconst_iterator@?$vector@VCRespawnInfo@@V?$allocator@VCRespawnInfo@@@std@@@std@@PAVCRespawnInfo@@V?$allocator@VCRespawnInfo@@@3@@std@@YAPAVCRespawnInfo@@Vconst_iterator@?$vector@VCRespawnInfo@@V?$allocator@VCRespawnInfo@@@std@@@0@0PAV1@AAV?$allocator@VCRespawnInfo@@@0@U_Nonscalar_ptr_iterator_tag@0@@Z PROC NEAR ; std::_Uninit_copy<std::vector<CRespawnInfo,std::allocator<CRespawnInfo> >::const_iterator,CRespawnInfo *,std::allocator<CRespawnInfo> >, COMDAT

; 77   : 	{	// copy [_First, _Last) to raw _Dest, using _Al, arbitrary type

  00000	53		 push	 ebx

; 78   : 	_FwdIt _Next = _Dest;
; 79   : 
; 80   : 	_TRY_BEGIN
; 81   : 	for (; _First != _Last; ++_Dest, ++_First)

  00001	8b 5c 24 0c	 mov	 ebx, DWORD PTR __Last$[esp]
  00005	56		 push	 esi
  00006	8b 74 24 0c	 mov	 esi, DWORD PTR __First$[esp+4]
  0000a	3b f3		 cmp	 esi, ebx
  0000c	74 27		 je	 SHORT $L233144
  0000e	57		 push	 edi
  0000f	8b 7c 24 18	 mov	 edi, DWORD PTR __Dest$[esp+8]
$L233091:

; 82   : 		_Al.construct(_Dest, *_First);

  00013	85 ff		 test	 edi, edi
  00015	74 08		 je	 SHORT $L233127
  00017	56		 push	 esi
  00018	8b cf		 mov	 ecx, edi
  0001a	e8 00 00 00 00	 call	 ??0CRespawnInfo@@QAE@ABV0@@Z ; CRespawnInfo::CRespawnInfo
$L233127:
  0001f	81 c6 48 05 00
	00		 add	 esi, 1352		; 00000548H
  00025	81 c7 48 05 00
	00		 add	 edi, 1352		; 00000548H
  0002b	3b f3		 cmp	 esi, ebx
  0002d	75 e4		 jne	 SHORT $L233091

; 83   : 	_CATCH_ALL
; 84   : 	for (; _Next != _Dest; ++_Next)
; 85   : 		_Al.destroy(_Next);
; 86   : 	_RERAISE;
; 87   : 	_CATCH_END
; 88   : 	return (_Dest);

  0002f	8b c7		 mov	 eax, edi
  00031	5f		 pop	 edi
  00032	5e		 pop	 esi
  00033	5b		 pop	 ebx

; 89   : 	}

  00034	c3		 ret	 0
$L233144:

; 83   : 	_CATCH_ALL
; 84   : 	for (; _Next != _Dest; ++_Next)
; 85   : 		_Al.destroy(_Next);
; 86   : 	_RERAISE;
; 87   : 	_CATCH_END
; 88   : 	return (_Dest);

  00035	8b 44 24 14	 mov	 eax, DWORD PTR __Dest$[esp+4]
  00039	5e		 pop	 esi
  0003a	5b		 pop	 ebx

; 89   : 	}

  0003b	c3		 ret	 0
??$_Uninit_copy@Vconst_iterator@?$vector@VCRespawnInfo@@V?$allocator@VCRespawnInfo@@@std@@@std@@PAVCRespawnInfo@@V?$allocator@VCRespawnInfo@@@3@@std@@YAPAVCRespawnInfo@@Vconst_iterator@?$vector@VCRespawnInfo@@V?$allocator@VCRespawnInfo@@@std@@@0@0PAV1@AAV?$allocator@VCRespawnInfo@@@0@U_Nonscalar_ptr_iterator_tag@0@@Z ENDP ; std::_Uninit_copy<std::vector<CRespawnInfo,std::allocator<CRespawnInfo> >::const_iterator,CRespawnInfo *,std::allocator<CRespawnInfo> >
_TEXT	ENDS
PUBLIC	?_Tidy@?$basic_string@DU?$char_traits@D@std@@V?$allocator@D@2@@std@@IAEX_NI@Z ; std::basic_string<char,std::char_traits<char>,std::allocator<char> >::_Tidy
; Function compile flags: /Ogty
; File c:\program files\microsoft visual studio .net 2003\vc7\include\xstring
;	COMDAT ?_Tidy@?$basic_string@DU?$char_traits@D@std@@V?$allocator@D@2@@std@@IAEX_NI@Z
_TEXT	SEGMENT
__Built$ = 8						; size = 1
__Newsize$ = 12						; size = 4
?_Tidy@?$basic_string@DU?$char_traits@D@std@@V?$allocator@D@2@@std@@IAEX_NI@Z PROC NEAR ; std::basic_string<char,std::char_traits<char>,std::allocator<char> >::_Tidy, COMDAT
; _this$ = ecx

; 1510 : 		if (!_Built)

  00000	8a 44 24 04	 mov	 al, BYTE PTR __Built$[esp-4]
  00004	84 c0		 test	 al, al
  00006	53		 push	 ebx
  00007	55		 push	 ebp
  00008	8b 6c 24 10	 mov	 ebp, DWORD PTR __Newsize$[esp+4]
  0000c	8b d9		 mov	 ebx, ecx
  0000e	74 2f		 je	 SHORT $L233152

; 1511 : 			;
; 1512 : 		else if (_BUF_SIZE <= _Myres)

  00010	83 7b 18 10	 cmp	 DWORD PTR [ebx+24], 16	; 00000010H
  00014	72 29		 jb	 SHORT $L233152

; 1513 : 			{	// copy any leftovers to small buffer and deallocate
; 1514 : 			_Elem *_Ptr = _Bx._Ptr;
; 1515 : 			if (0 < _Newsize)

  00016	85 ed		 test	 ebp, ebp
  00018	8b 43 04	 mov	 eax, DWORD PTR [ebx+4]
  0001b	57		 push	 edi
  0001c	8d 7b 04	 lea	 edi, DWORD PTR [ebx+4]
  0001f	76 14		 jbe	 SHORT $L233149
  00021	56		 push	 esi

; 1516 : 				_Traits::copy(_Bx._Buf, _Ptr, _Newsize);

  00022	8b cd		 mov	 ecx, ebp
  00024	8b d1		 mov	 edx, ecx
  00026	c1 e9 02	 shr	 ecx, 2
  00029	8b f0		 mov	 esi, eax
  0002b	f3 a5		 rep movsd
  0002d	8b ca		 mov	 ecx, edx
  0002f	83 e1 03	 and	 ecx, 3
  00032	f3 a4		 rep movsb
  00034	5e		 pop	 esi
$L233149:

; 1517 : 			_Mybase::_Alval.deallocate(_Ptr, _Myres + 1);

  00035	50		 push	 eax
  00036	e8 00 00 00 00	 call	 ??3@YAXPAX@Z		; operator delete
  0003b	83 c4 04	 add	 esp, 4
  0003e	5f		 pop	 edi
$L233152:

; 1518 : 			}
; 1519 : 		_Myres = _BUF_SIZE - 1;
; 1520 : 		_Eos(_Newsize);

  0003f	89 6b 14	 mov	 DWORD PTR [ebx+20], ebp
  00042	c7 43 18 0f 00
	00 00		 mov	 DWORD PTR [ebx+24], 15	; 0000000fH
  00049	c6 44 2b 04 00	 mov	 BYTE PTR [ebx+ebp+4], 0
  0004e	5d		 pop	 ebp
  0004f	5b		 pop	 ebx

; 1521 : 		}

  00050	c2 08 00	 ret	 8
?_Tidy@?$basic_string@DU?$char_traits@D@std@@V?$allocator@D@2@@std@@IAEX_NI@Z ENDP ; std::basic_string<char,std::char_traits<char>,std::allocator<char> >::_Tidy
_TEXT	ENDS
PUBLIC	?erase@?$basic_string@DU?$char_traits@D@std@@V?$allocator@D@2@@std@@QAEAAV12@II@Z ; std::basic_string<char,std::char_traits<char>,std::allocator<char> >::erase
EXTRN	?_Xran@_String_base@std@@QBEXXZ:NEAR		; std::_String_base::_Xran
; Function compile flags: /Ogty
;	COMDAT ?erase@?$basic_string@DU?$char_traits@D@std@@V?$allocator@D@2@@std@@QAEAAV12@II@Z
_TEXT	SEGMENT
__Off$ = 8						; size = 4
__Count$ = 12						; size = 4
?erase@?$basic_string@DU?$char_traits@D@std@@V?$allocator@D@2@@std@@QAEAAV12@II@Z PROC NEAR ; std::basic_string<char,std::char_traits<char>,std::allocator<char> >::erase, COMDAT
; _this$ = ecx

; 792  : 		{	// erase elements [_Off, _Off + _Count)

  00000	55		 push	 ebp

; 793  : 		if (_Mysize < _Off)

  00001	8b 6c 24 08	 mov	 ebp, DWORD PTR __Off$[esp]
  00005	56		 push	 esi
  00006	8b f1		 mov	 esi, ecx
  00008	39 6e 14	 cmp	 DWORD PTR [esi+20], ebp
  0000b	57		 push	 edi
  0000c	73 05		 jae	 SHORT $L221371

; 794  : 			_String_base::_Xran();	// _Off off end

  0000e	e8 00 00 00 00	 call	 ?_Xran@_String_base@std@@QBEXXZ ; std::_String_base::_Xran
$L221371:

; 795  : 		if (_Mysize - _Off < _Count)

  00013	8b 46 14	 mov	 eax, DWORD PTR [esi+20]
  00016	8b 7c 24 14	 mov	 edi, DWORD PTR __Count$[esp+8]
  0001a	2b c5		 sub	 eax, ebp
  0001c	3b c7		 cmp	 eax, edi
  0001e	73 02		 jae	 SHORT $L221372

; 796  : 			_Count = _Mysize - _Off;	// trim _Count

  00020	8b f8		 mov	 edi, eax
$L221372:

; 797  : 		if (0 < _Count)

  00022	85 ff		 test	 edi, edi
  00024	76 47		 jbe	 SHORT $L233218

; 798  : 			{	// move elements down
; 799  : 			_Traits::move(_Myptr() + _Off, _Myptr() + _Off + _Count,
; 800  : 				_Mysize - _Off - _Count);

  00026	8b 4e 18	 mov	 ecx, DWORD PTR [esi+24]
  00029	83 f9 10	 cmp	 ecx, 16			; 00000010H
  0002c	53		 push	 ebx
  0002d	8d 5e 04	 lea	 ebx, DWORD PTR [esi+4]
  00030	72 04		 jb	 SHORT $L233184
  00032	8b 13		 mov	 edx, DWORD PTR [ebx]
  00034	eb 02		 jmp	 SHORT $L233185
$L233184:
  00036	8b d3		 mov	 edx, ebx
$L233185:
  00038	83 f9 10	 cmp	 ecx, 16			; 00000010H
  0003b	72 04		 jb	 SHORT $L233191
  0003d	8b 0b		 mov	 ecx, DWORD PTR [ebx]
  0003f	eb 02		 jmp	 SHORT $L233192
$L233191:
  00041	8b cb		 mov	 ecx, ebx
$L233192:
  00043	2b c7		 sub	 eax, edi

; 803  : 			}
; 804  : 		return (*this);

  00045	03 d5		 add	 edx, ebp
  00047	50		 push	 eax
  00048	03 d7		 add	 edx, edi
  0004a	52		 push	 edx
  0004b	03 cd		 add	 ecx, ebp
  0004d	51		 push	 ecx
  0004e	e8 00 00 00 00	 call	 _memmove
  00053	8b 46 14	 mov	 eax, DWORD PTR [esi+20]
  00056	8b 4e 18	 mov	 ecx, DWORD PTR [esi+24]
  00059	2b c7		 sub	 eax, edi
  0005b	83 c4 0c	 add	 esp, 12			; 0000000cH
  0005e	83 f9 10	 cmp	 ecx, 16			; 00000010H
  00061	89 46 14	 mov	 DWORD PTR [esi+20], eax
  00064	72 02		 jb	 SHORT $L233215

; 801  : 			size_type _Newsize = _Mysize - _Count;
; 802  : 			_Eos(_Newsize);

  00066	8b 1b		 mov	 ebx, DWORD PTR [ebx]
$L233215:
  00068	c6 04 03 00	 mov	 BYTE PTR [ebx+eax], 0
  0006c	5b		 pop	 ebx
$L233218:
  0006d	5f		 pop	 edi

; 803  : 			}
; 804  : 		return (*this);

  0006e	8b c6		 mov	 eax, esi
  00070	5e		 pop	 esi
  00071	5d		 pop	 ebp

; 805  : 		}

  00072	c2 08 00	 ret	 8
?erase@?$basic_string@DU?$char_traits@D@std@@V?$allocator@D@2@@std@@QAEAAV12@II@Z ENDP ; std::basic_string<char,std::char_traits<char>,std::allocator<char> >::erase
_TEXT	ENDS
PUBLIC	?_Copy@?$basic_string@DU?$char_traits@D@std@@V?$allocator@D@2@@std@@IAEXII@Z ; std::basic_string<char,std::char_traits<char>,std::allocator<char> >::_Copy
EXTRN	__except_list:DWORD
EXTRN	___CxxFrameHandler:NEAR
;	COMDAT xdata$x
; File c:\program files\microsoft visual studio .net 2003\vc7\include\iosfwd
xdata$x	SEGMENT
$T233423 DD	0ffffffffH
	DD	00H
	DD	0ffffffffH
	DD	00H
	DD	01H
	DD	00H
	DD	01H
	DD	00H
$T233425 DD	00H
	DD	00H
	DD	00H
	DD	FLAT:$L233225
$T233426 DD	00H
	DD	00H
	DD	00H
	DD	FLAT:$L233223
$T233424 DD	02H
	DD	02H
	DD	03H
	DD	01H
	DD	FLAT:$T233425
	DD	00H
	DD	00H
	DD	03H
	DD	01H
	DD	FLAT:$T233426
$T233417 DD	019930520H
	DD	04H
	DD	FLAT:$T233423
	DD	02H
	DD	FLAT:$T233424
	DD	2 DUP(00H)
; Function compile flags: /Ogty
; File c:\program files\microsoft visual studio .net 2003\vc7\include\xstring
xdata$x	ENDS
;	COMDAT ?_Copy@?$basic_string@DU?$char_traits@D@std@@V?$allocator@D@2@@std@@IAEXII@Z
_TEXT	SEGMENT
__Newres$ = -24						; size = 4
_this$ = -20						; size = 4
__$EHRec$ = -16						; size = 16
__Ptr$ = 8						; size = 4
__Newsize$ = 8						; size = 4
__Oldlen$ = 12						; size = 4
?_Copy@?$basic_string@DU?$char_traits@D@std@@V?$allocator@D@2@@std@@IAEXII@Z PROC NEAR ; std::basic_string<char,std::char_traits<char>,std::allocator<char> >::_Copy, COMDAT
; _this$ = ecx

; 1444 : 		{	// copy _Oldlen elements to newly allocated buffer

  00000	55		 push	 ebp
  00001	8b ec		 mov	 ebp, esp
  00003	6a ff		 push	 -1
  00005	68 00 00 00 00	 push	 __ehhandler$?_Copy@?$basic_string@DU?$char_traits@D@std@@V?$allocator@D@2@@std@@IAEXII@Z
  0000a	64 a1 00 00 00
	00		 mov	 eax, DWORD PTR fs:__except_list
  00010	50		 push	 eax
  00011	64 89 25 00 00
	00 00		 mov	 DWORD PTR fs:__except_list, esp
  00018	83 ec 0c	 sub	 esp, 12			; 0000000cH

; 1445 : 		size_type _Newres = _Newsize | _ALLOC_MASK;

  0001b	8b 45 08	 mov	 eax, DWORD PTR __Newsize$[ebp]
  0001e	53		 push	 ebx
  0001f	56		 push	 esi
  00020	8b d8		 mov	 ebx, eax
  00022	83 cb 0f	 or	 ebx, 15			; 0000000fH

; 1446 : 		if (max_size() < _Newres)

  00025	83 fb fe	 cmp	 ebx, -2			; fffffffeH
  00028	57		 push	 edi
  00029	8b f1		 mov	 esi, ecx
  0002b	89 65 f0	 mov	 DWORD PTR __$EHRec$[ebp], esp
  0002e	89 75 ec	 mov	 DWORD PTR _this$[ebp], esi
  00031	76 04		 jbe	 SHORT $L222778

; 1447 : 			_Newres = _Newsize;	// undo roundup if too big

  00033	8b d8		 mov	 ebx, eax

; 1448 : 		else if (_Newres / 3 < _Myres / 2

  00035	eb 22		 jmp	 SHORT $L222780
$L222778:

; 1449 : 			&& _Myres <= max_size() - _Myres / 2)

  00037	8b 7e 18	 mov	 edi, DWORD PTR [esi+24]
  0003a	b8 ab aa aa aa	 mov	 eax, -1431655765	; aaaaaaabH
  0003f	f7 e3		 mul	 ebx
  00041	8b cf		 mov	 ecx, edi
  00043	d1 e9		 shr	 ecx, 1
  00045	d1 ea		 shr	 edx, 1
  00047	3b d1		 cmp	 edx, ecx
  00049	73 0e		 jae	 SHORT $L222780
  0004b	b8 fe ff ff ff	 mov	 eax, -2			; fffffffeH
  00050	2b c1		 sub	 eax, ecx
  00052	3b f8		 cmp	 edi, eax
  00054	77 03		 ja	 SHORT $L222780

; 1450 : 			_Newres = _Myres + _Myres / 2;	// grow exponentially if possible

  00056	8d 1c 39	 lea	 ebx, DWORD PTR [ecx+edi]
$L222780:

; 1451 : 		_Elem *_Ptr;
; 1452 : 
; 1453 : 		_TRY_BEGIN
; 1454 : 			_Ptr = _Mybase::_Alval.allocate(_Newres + 1);

  00059	8d 4b 01	 lea	 ecx, DWORD PTR [ebx+1]
  0005c	51		 push	 ecx
  0005d	c7 45 fc 00 00
	00 00		 mov	 DWORD PTR __$EHRec$[ebp+12], 0
  00064	e8 00 00 00 00	 call	 ??2@YAPAXI@Z		; operator new
  00069	8b d0		 mov	 edx, eax
  0006b	83 c4 04	 add	 esp, 4
  0006e	89 55 08	 mov	 DWORD PTR __Ptr$[ebp], edx
  00071	eb 29		 jmp	 SHORT $L222782
$L233223:

; 1455 : 		_CATCH_ALL
; 1456 : 			_Newres = _Newsize;	// allocation failed, undo roundup and retry

  00073	8b 45 08	 mov	 eax, DWORD PTR __Newsize$[ebp]
  00076	89 45 e8	 mov	 DWORD PTR __Newres$[ebp], eax

; 1457 : 			_TRY_BEGIN
; 1458 : 				_Ptr = _Mybase::_Alval.allocate(_Newres + 1);

  00079	40		 inc	 eax
  0007a	89 65 f0	 mov	 DWORD PTR __$EHRec$[ebp], esp
  0007d	50		 push	 eax
  0007e	c6 45 fc 02	 mov	 BYTE PTR __$EHRec$[ebp+12], 2
  00082	e8 00 00 00 00	 call	 ??2@YAPAXI@Z		; operator new
  00087	89 45 08	 mov	 DWORD PTR __Ptr$[ebp], eax
  0008a	83 c4 04	 add	 esp, 4

; 1462 : 			_CATCH_END
; 1463 : 		_CATCH_END

  0008d	b8 00 00 00 00	 mov	 eax, $L233418
  00092	c3		 ret	 0
$L233418:
  00093	8b 5d e8	 mov	 ebx, DWORD PTR __Newres$[ebp]
  00096	8b 75 ec	 mov	 esi, DWORD PTR _this$[ebp]
  00099	8b 55 08	 mov	 edx, DWORD PTR __Ptr$[ebp]
$L222782:

; 1464 : 
; 1465 : 		if (0 < _Oldlen)

  0009c	8b 4d 0c	 mov	 ecx, DWORD PTR __Oldlen$[ebp]
  0009f	85 c9		 test	 ecx, ecx
  000a1	76 24		 jbe	 SHORT $L233342

; 1466 : 			_Traits::copy(_Ptr, _Myptr(), _Oldlen);	// copy existing elements

  000a3	83 7e 18 10	 cmp	 DWORD PTR [esi+24], 16	; 00000010H
  000a7	72 05		 jb	 SHORT $L233339
  000a9	8b 76 04	 mov	 esi, DWORD PTR [esi+4]
  000ac	eb 03		 jmp	 SHORT $L233340
$L233339:
  000ae	83 c6 04	 add	 esi, 4
$L233340:
  000b1	8b c1		 mov	 eax, ecx
  000b3	c1 e9 02	 shr	 ecx, 2
  000b6	8b fa		 mov	 edi, edx
  000b8	f3 a5		 rep movsd
  000ba	8b c8		 mov	 ecx, eax
  000bc	83 e1 03	 and	 ecx, 3
  000bf	f3 a4		 rep movsb
  000c1	8b 75 ec	 mov	 esi, DWORD PTR _this$[ebp]
  000c4	8b 4d 0c	 mov	 ecx, DWORD PTR __Oldlen$[ebp]
$L233342:

; 1467 : 		_Tidy(true);

  000c7	83 7e 18 10	 cmp	 DWORD PTR [esi+24], 16	; 00000010H
  000cb	72 12		 jb	 SHORT $L233378
  000cd	8b 4e 04	 mov	 ecx, DWORD PTR [esi+4]
  000d0	51		 push	 ecx
  000d1	e8 00 00 00 00	 call	 ??3@YAXPAX@Z		; operator delete
  000d6	8b 55 08	 mov	 edx, DWORD PTR __Ptr$[ebp]
  000d9	8b 4d 0c	 mov	 ecx, DWORD PTR __Oldlen$[ebp]
  000dc	83 c4 04	 add	 esp, 4
$L233378:

; 1468 : 		_Bx._Ptr = _Ptr;
; 1469 : 		_Myres = _Newres;
; 1470 : 		_Eos(_Oldlen);

  000df	83 fb 10	 cmp	 ebx, 16			; 00000010H
  000e2	8d 46 04	 lea	 eax, DWORD PTR [esi+4]
  000e5	c6 00 00	 mov	 BYTE PTR [eax], 0
  000e8	89 10		 mov	 DWORD PTR [eax], edx
  000ea	89 5e 18	 mov	 DWORD PTR [esi+24], ebx
  000ed	89 4e 14	 mov	 DWORD PTR [esi+20], ecx
  000f0	72 02		 jb	 SHORT $L233413
  000f2	8b c2		 mov	 eax, edx
$L233413:

; 1471 : 		}

  000f4	5f		 pop	 edi
  000f5	c6 04 08 00	 mov	 BYTE PTR [eax+ecx], 0
  000f9	8b 4d f4	 mov	 ecx, DWORD PTR __$EHRec$[ebp+4]
  000fc	5e		 pop	 esi
  000fd	64 89 0d 00 00
	00 00		 mov	 DWORD PTR fs:__except_list, ecx
  00104	5b		 pop	 ebx
  00105	8b e5		 mov	 esp, ebp
  00107	5d		 pop	 ebp
  00108	c2 08 00	 ret	 8
$L233225:

; 1459 : 			_CATCH_ALL
; 1460 : 			_Tidy(true);	// failed again, discard storage and reraise

  0010b	8b 75 ec	 mov	 esi, DWORD PTR _this$[ebp]
  0010e	83 7e 18 10	 cmp	 DWORD PTR [esi+24], 16	; 00000010H
  00112	72 0c		 jb	 SHORT $L233317
  00114	8b 56 04	 mov	 edx, DWORD PTR [esi+4]
  00117	52		 push	 edx
  00118	e8 00 00 00 00	 call	 ??3@YAXPAX@Z		; operator delete
  0011d	83 c4 04	 add	 esp, 4
$L233317:

; 1461 : 			_RERAISE;

  00120	6a 00		 push	 0
  00122	c7 46 18 0f 00
	00 00		 mov	 DWORD PTR [esi+24], 15	; 0000000fH
  00129	c7 46 14 00 00
	00 00		 mov	 DWORD PTR [esi+20], 0
  00130	6a 00		 push	 0
  00132	c6 46 04 00	 mov	 BYTE PTR [esi+4], 0
  00136	e8 00 00 00 00	 call	 __CxxThrowException@8
$L233428:
$L233422:
  0013b	cc		 int	 3
_TEXT	ENDS
;	COMDAT text$x
text$x	SEGMENT
__ehhandler$?_Copy@?$basic_string@DU?$char_traits@D@std@@V?$allocator@D@2@@std@@IAEXII@Z:
  00000	b8 00 00 00 00	 mov	 eax, OFFSET FLAT:$T233417
  00005	e9 00 00 00 00	 jmp	 ___CxxFrameHandler
text$x	ENDS
?_Copy@?$basic_string@DU?$char_traits@D@std@@V?$allocator@D@2@@std@@IAEXII@Z ENDP ; std::basic_string<char,std::char_traits<char>,std::allocator<char> >::_Copy
PUBLIC	?GetRespawnInfo@CRespawner@@QAEPAVCRespawnInfo@@HH@Z ; CRespawner::GetRespawnInfo
; Function compile flags: /Ogty
; File c:\documents and settings\test\mes documents\source\virtuos_v17\build\program\_common\respawn.cpp
;	COMDAT ?GetRespawnInfo@CRespawner@@QAEPAVCRespawnInfo@@HH@Z
_TEXT	SEGMENT
_nRespawnNo$ = 8					; size = 4
_nType$ = 12						; size = 4
?GetRespawnInfo@CRespawner@@QAEPAVCRespawnInfo@@HH@Z PROC NEAR ; CRespawner::GetRespawnInfo, COMDAT
; _this$ = ecx

; 322  : {

  00000	56		 push	 esi

; 323  : 	if( nRespawnNo < 0 )	

  00001	8b 74 24 08	 mov	 esi, DWORD PTR _nRespawnNo$[esp]
  00005	85 f6		 test	 esi, esi

; 324  : 		return NULL;

  00007	7c 5a		 jl	 SHORT $L228584

; 325  : 	if( nType == RESPAWNTYPE_REGION )

  00009	8b 44 24 0c	 mov	 eax, DWORD PTR _nType$[esp]
  0000d	85 c0		 test	 eax, eax
  0000f	75 32		 jne	 SHORT $L228574

; 326  : 	{
; 327  : 		if( nRespawnNo < (int)( m_vRespawnInfo[nType].size() ) )

  00011	8b 41 08	 mov	 eax, DWORD PTR [ecx+8]
  00014	85 c0		 test	 eax, eax
  00016	74 16		 je	 SHORT $L233440
$L233439:
  00018	8b 51 0c	 mov	 edx, DWORD PTR [ecx+12]
  0001b	2b d0		 sub	 edx, eax
  0001d	b8 eb 5d f2 60	 mov	 eax, 1626496491		; 60f25debH
  00022	f7 ea		 imul	 edx
  00024	c1 fa 09	 sar	 edx, 9
  00027	8b c2		 mov	 eax, edx
  00029	c1 e8 1f	 shr	 eax, 31			; 0000001fH
  0002c	03 c2		 add	 eax, edx
$L233440:
  0002e	3b f0		 cmp	 esi, eax
  00030	7d 31		 jge	 SHORT $L228584

; 328  : 			return &m_vRespawnInfo[nType][nRespawnNo];

  00032	8b 41 08	 mov	 eax, DWORD PTR [ecx+8]
  00035	69 f6 48 05 00
	00		 imul	 esi, 1352		; 00000548H
  0003b	03 f0		 add	 esi, eax
  0003d	8b c6		 mov	 eax, esi
  0003f	5e		 pop	 esi

; 344  : }

  00040	c2 08 00	 ret	 8
$L228574:

; 329  : 	}
; 330  : 	else
; 331  : 	if( nType == RESPAWNTYPE_SCRIPT )

  00043	83 f8 01	 cmp	 eax, 1
  00046	75 1b		 jne	 SHORT $L228584

; 332  : 	{
; 333  : 		for( VRI::iterator i = m_vRespawnInfo[nType].begin(); i != m_vRespawnInfo[nType].end(); ++i )

  00048	8b 41 18	 mov	 eax, DWORD PTR [ecx+24]

; 336  : 				return &( *i );
; 337  : 		}
; 338  : 	}
; 339  : 	else
; 340  : 	if( nType == RESPAWNTYPE_BACKEND )
; 341  : 	{
; 342  : 	}
; 343  : 	return NULL;

  0004b	8b 49 1c	 mov	 ecx, DWORD PTR [ecx+28]
  0004e	3b c1		 cmp	 eax, ecx
  00050	74 11		 je	 SHORT $L228584

; 332  : 	{
; 333  : 		for( VRI::iterator i = m_vRespawnInfo[nType].begin(); i != m_vRespawnInfo[nType].end(); ++i )

$L233515:

; 334  : 		{
; 335  : 			if( ( *i ).m_nGMIndex == nRespawnNo )

  00052	39 b0 14 02 00
	00		 cmp	 DWORD PTR [eax+532], esi
  00058	74 0b		 je	 SHORT $L228572
  0005a	05 48 05 00 00	 add	 eax, 1352		; 00000548H
  0005f	3b c1		 cmp	 eax, ecx
  00061	75 ef		 jne	 SHORT $L233515
$L228584:

; 336  : 				return &( *i );
; 337  : 		}
; 338  : 	}
; 339  : 	else
; 340  : 	if( nType == RESPAWNTYPE_BACKEND )
; 341  : 	{
; 342  : 	}
; 343  : 	return NULL;

  00063	33 c0		 xor	 eax, eax
$L228572:
  00065	5e		 pop	 esi

; 344  : }

  00066	c2 08 00	 ret	 8
?GetRespawnInfo@CRespawner@@QAEPAVCRespawnInfo@@HH@Z ENDP ; CRespawner::GetRespawnInfo
_TEXT	ENDS
PUBLIC	?Increment@CRespawner@@QAEXHHH@Z		; CRespawner::Increment
; Function compile flags: /Ogty
;	COMDAT ?Increment@CRespawner@@QAEXHHH@Z
_TEXT	SEGMENT
_nRespawnNo$ = 8					; size = 4
_nType$ = 12						; size = 4
_bActiveAttack$ = 16					; size = 4
?Increment@CRespawner@@QAEXHHH@Z PROC NEAR		; CRespawner::Increment, COMDAT
; _this$ = ecx

; 346  : {

  00000	57		 push	 edi

; 347  : 	if( nRespawnNo < 0 )	

  00001	8b 7c 24 08	 mov	 edi, DWORD PTR _nRespawnNo$[esp]
  00005	85 ff		 test	 edi, edi
  00007	0f 8c 95 00 00
	00		 jl	 $L233693

; 348  : 		return;
; 349  : 	if( nType == RESPAWNTYPE_REGION )

  0000d	8b 44 24 0c	 mov	 eax, DWORD PTR _nType$[esp]
  00011	85 c0		 test	 eax, eax
  00013	56		 push	 esi
  00014	75 4b		 jne	 SHORT $L228595

; 350  : 	{
; 351  : 		if( nRespawnNo < (int)( m_vRespawnInfo[nType].size() ) )

  00016	8b 41 08	 mov	 eax, DWORD PTR [ecx+8]
  00019	85 c0		 test	 eax, eax
  0001b	74 16		 je	 SHORT $L233569
$L233568:
  0001d	8b 51 0c	 mov	 edx, DWORD PTR [ecx+12]
  00020	2b d0		 sub	 edx, eax
  00022	b8 eb 5d f2 60	 mov	 eax, 1626496491		; 60f25debH
  00027	f7 ea		 imul	 edx
  00029	c1 fa 09	 sar	 edx, 9
  0002c	8b c2		 mov	 eax, edx
  0002e	c1 e8 1f	 shr	 eax, 31			; 0000001fH
  00031	03 c2		 add	 eax, edx
$L233569:
  00033	3b f8		 cmp	 edi, eax
  00035	7d 6a		 jge	 SHORT $L233700

; 352  : 			m_vRespawnInfo[nType][nRespawnNo].Increment( bActiveAttack );

  00037	8b 51 08	 mov	 edx, DWORD PTR [ecx+8]
  0003a	69 ff 48 05 00
	00		 imul	 edi, 1352		; 00000548H
  00040	8b 35 00 00 00
	00		 mov	 esi, DWORD PTR __imp__InterlockedDecrement@4
  00046	03 fa		 add	 edi, edx
  00048	8d 47 0c	 lea	 eax, DWORD PTR [edi+12]
  0004b	50		 push	 eax
  0004c	ff d6		 call	 esi
  0004e	8b 44 24 14	 mov	 eax, DWORD PTR _bActiveAttack$[esp+4]
  00052	85 c0		 test	 eax, eax
  00054	74 4b		 je	 SHORT $L233700
  00056	83 c7 10	 add	 edi, 16			; 00000010H
  00059	57		 push	 edi
  0005a	ff d6		 call	 esi
  0005c	5e		 pop	 esi
  0005d	5f		 pop	 edi

; 362  : 				break;
; 363  : 			}
; 364  : 		}
; 365  : 	}
; 366  : 	else
; 367  : 	if( nType == RESPAWNTYPE_BACKEND )
; 368  : 	{
; 369  : 	}
; 370  : }

  0005e	c2 0c 00	 ret	 12			; 0000000cH
$L228595:

; 353  : 	}
; 354  : 	else
; 355  : 	if( nType == RESPAWNTYPE_SCRIPT )

  00061	83 f8 01	 cmp	 eax, 1
  00064	75 3b		 jne	 SHORT $L233700

; 356  : 	{
; 357  : 		for( VRI::iterator i = m_vRespawnInfo[nType].begin(); i != m_vRespawnInfo[nType].end(); ++i )

  00066	8b 71 18	 mov	 esi, DWORD PTR [ecx+24]

; 360  : 			{
; 361  : 				( *i ).Increment( bActiveAttack );

  00069	8b 49 1c	 mov	 ecx, DWORD PTR [ecx+28]
  0006c	3b f1		 cmp	 esi, ecx
  0006e	74 31		 je	 SHORT $L233700

; 356  : 	{
; 357  : 		for( VRI::iterator i = m_vRespawnInfo[nType].begin(); i != m_vRespawnInfo[nType].end(); ++i )

$L233650:

; 358  : 		{
; 359  : 			if( ( *i ).m_nGMIndex == nRespawnNo )

  00070	39 be 14 02 00
	00		 cmp	 DWORD PTR [esi+532], edi
  00076	74 0f		 je	 SHORT $L233697
  00078	81 c6 48 05 00
	00		 add	 esi, 1352		; 00000548H
  0007e	3b f1		 cmp	 esi, ecx
  00080	75 ee		 jne	 SHORT $L233650
  00082	5e		 pop	 esi
  00083	5f		 pop	 edi

; 362  : 				break;
; 363  : 			}
; 364  : 		}
; 365  : 	}
; 366  : 	else
; 367  : 	if( nType == RESPAWNTYPE_BACKEND )
; 368  : 	{
; 369  : 	}
; 370  : }

  00084	c2 0c 00	 ret	 12			; 0000000cH
$L233697:

; 360  : 			{
; 361  : 				( *i ).Increment( bActiveAttack );

  00087	8b 3d 00 00 00
	00		 mov	 edi, DWORD PTR __imp__InterlockedDecrement@4
  0008d	8d 4e 0c	 lea	 ecx, DWORD PTR [esi+12]
  00090	51		 push	 ecx
  00091	ff d7		 call	 edi
  00093	8b 44 24 14	 mov	 eax, DWORD PTR _bActiveAttack$[esp+4]
  00097	85 c0		 test	 eax, eax
  00099	74 06		 je	 SHORT $L233700
  0009b	83 c6 10	 add	 esi, 16			; 00000010H
  0009e	56		 push	 esi
  0009f	ff d7		 call	 edi
$L233700:
  000a1	5e		 pop	 esi
$L233693:
  000a2	5f		 pop	 edi

; 362  : 				break;
; 363  : 			}
; 364  : 		}
; 365  : 	}
; 366  : 	else
; 367  : 	if( nType == RESPAWNTYPE_BACKEND )
; 368  : 	{
; 369  : 	}
; 370  : }

  000a3	c2 0c 00	 ret	 12			; 0000000cH
?Increment@CRespawner@@QAEXHHH@Z ENDP			; CRespawner::Increment
_TEXT	ENDS
PUBLIC	?Remove@CLayerdRespawner@@QAEHHH@Z		; CLayerdRespawner::Remove
; Function compile flags: /Ogty
;	COMDAT ?Remove@CLayerdRespawner@@QAEHHH@Z
_TEXT	SEGMENT
_i$228849 = -4						; size = 4
_nRespawn$ = 8						; size = 4
_nType$ = 12						; size = 4
?Remove@CLayerdRespawner@@QAEHHH@Z PROC NEAR		; CLayerdRespawner::Remove, COMDAT
; _this$ = ecx

; 689  : {

  00000	51		 push	 ecx
  00001	53		 push	 ebx

; 690  : 	for( MRP::iterator i = m_mapRespawners.begin(); i != m_mapRespawners.end(); ++i )

  00002	8b 5c 24 0c	 mov	 ebx, DWORD PTR _nRespawn$[esp+4]
  00006	56		 push	 esi
  00007	8b f1		 mov	 esi, ecx
  00009	8b 4e 3c	 mov	 ecx, DWORD PTR [esi+60]
  0000c	8b 01		 mov	 eax, DWORD PTR [ecx]
  0000e	3b c1		 cmp	 eax, ecx
  00010	57		 push	 edi
  00011	8b 7c 24 18	 mov	 edi, DWORD PTR _nType$[esp+12]
  00015	89 44 24 0c	 mov	 DWORD PTR _i$228849[esp+16], eax
  00019	74 21		 je	 SHORT $L228854
  0001b	eb 03 8d 49 00	 npad	 5
$L233741:

; 691  : 	{
; 692  : 		CRespawner* pRespawner	= i->second;
; 693  : 		pRespawner->Remove( nRespawn, nType );

  00020	8b 48 10	 mov	 ecx, DWORD PTR [eax+16]
  00023	57		 push	 edi
  00024	53		 push	 ebx
  00025	e8 00 00 00 00	 call	 ?Remove@CRespawner@@QAEHHH@Z ; CRespawner::Remove
  0002a	8d 4c 24 0c	 lea	 ecx, DWORD PTR _i$228849[esp+16]
  0002e	e8 00 00 00 00	 call	 ?_Inc@const_iterator@?$_Tree@V?$_Tmap_traits@HPAVCRespawner@@U?$less@H@std@@V?$allocator@U?$pair@$$CBHPAVCRespawner@@@std@@@3@$0A@@std@@@std@@QAEXXZ ; std::_Tree<std::_Tmap_traits<int,CRespawner *,std::less<int>,std::allocator<std::pair<int const ,CRespawner *> >,0> >::const_iterator::_Inc
  00033	8b 44 24 0c	 mov	 eax, DWORD PTR _i$228849[esp+16]
  00037	3b 46 3c	 cmp	 eax, DWORD PTR [esi+60]
  0003a	75 e4		 jne	 SHORT $L233741
$L228854:

; 694  : 	}
; 695  : 	return m_proto.Remove( nRespawn, nType );

  0003c	57		 push	 edi
  0003d	53		 push	 ebx
  0003e	8d 4e 04	 lea	 ecx, DWORD PTR [esi+4]
  00041	e8 00 00 00 00	 call	 ?Remove@CRespawner@@QAEHHH@Z ; CRespawner::Remove
  00046	5f		 pop	 edi
  00047	5e		 pop	 esi
  00048	5b		 pop	 ebx

; 696  : }

  00049	59		 pop	 ecx
  0004a	c2 08 00	 ret	 8
?Remove@CLayerdRespawner@@QAEHHH@Z ENDP			; CLayerdRespawner::Remove
_TEXT	ENDS
PUBLIC	?clear@?$_Tree@V?$_Tmap_traits@HPAVCRespawner@@U?$less@H@std@@V?$allocator@U?$pair@$$CBHPAVCRespawner@@@std@@@3@$0A@@std@@@std@@QAEXXZ ; std::_Tree<std::_Tmap_traits<int,CRespawner *,std::less<int>,std::allocator<std::pair<int const ,CRespawner *> >,0> >::clear
; Function compile flags: /Ogty
; File c:\program files\microsoft visual studio .net 2003\vc7\include\xtree
;	COMDAT ?clear@?$_Tree@V?$_Tmap_traits@HPAVCRespawner@@U?$less@H@std@@V?$allocator@U?$pair@$$CBHPAVCRespawner@@@std@@@3@$0A@@std@@@std@@QAEXXZ
_TEXT	SEGMENT
?clear@?$_Tree@V?$_Tmap_traits@HPAVCRespawner@@U?$less@H@std@@V?$allocator@U?$pair@$$CBHPAVCRespawner@@@std@@@3@$0A@@std@@@std@@QAEXXZ PROC NEAR ; std::_Tree<std::_Tmap_traits<int,CRespawner *,std::less<int>,std::allocator<std::pair<int const ,CRespawner *> >,0> >::clear, COMDAT
; _this$ = ecx

; 780  : 		{	// erase all

  00000	56		 push	 esi
  00001	8b f1		 mov	 esi, ecx

; 781  : 		_Erase(_Root());

  00003	8b 46 04	 mov	 eax, DWORD PTR [esi+4]
  00006	8b 48 04	 mov	 ecx, DWORD PTR [eax+4]
  00009	51		 push	 ecx
  0000a	8b ce		 mov	 ecx, esi
  0000c	e8 00 00 00 00	 call	 ?_Erase@?$_Tree@V?$_Tmap_traits@HPAVCRespawner@@U?$less@H@std@@V?$allocator@U?$pair@$$CBHPAVCRespawner@@@std@@@3@$0A@@std@@@std@@IAEXPAU_Node@?$_Tree_nod@V?$_Tmap_traits@HPAVCRespawner@@U?$less@H@std@@V?$allocator@U?$pair@$$CBHPAVCRespawner@@@std@@@3@$0A@@std@@@2@@Z ; std::_Tree<std::_Tmap_traits<int,CRespawner *,std::less<int>,std::allocator<std::pair<int const ,CRespawner *> >,0> >::_Erase

; 782  : 		_Root() = _Myhead, _Mysize = 0;

  00011	8b 46 04	 mov	 eax, DWORD PTR [esi+4]
  00014	89 40 04	 mov	 DWORD PTR [eax+4], eax

; 783  : 		_Lmost() = _Myhead, _Rmost() = _Myhead;

  00017	8b 46 04	 mov	 eax, DWORD PTR [esi+4]
  0001a	c7 46 08 00 00
	00 00		 mov	 DWORD PTR [esi+8], 0
  00021	89 00		 mov	 DWORD PTR [eax], eax
  00023	8b 76 04	 mov	 esi, DWORD PTR [esi+4]
  00026	89 76 08	 mov	 DWORD PTR [esi+8], esi
  00029	5e		 pop	 esi

; 784  : 		}

  0002a	c3		 ret	 0
?clear@?$_Tree@V?$_Tmap_traits@HPAVCRespawner@@U?$less@H@std@@V?$allocator@U?$pair@$$CBHPAVCRespawner@@@std@@@3@$0A@@std@@@std@@QAEXXZ ENDP ; std::_Tree<std::_Tmap_traits<int,CRespawner *,std::less<int>,std::allocator<std::pair<int const ,CRespawner *> >,0> >::clear
_TEXT	ENDS
PUBLIC	?find@?$_Tree@V?$_Tmap_traits@HPAVCRespawner@@U?$less@H@std@@V?$allocator@U?$pair@$$CBHPAVCRespawner@@@std@@@3@$0A@@std@@@std@@QAE?AViterator@12@ABH@Z ; std::_Tree<std::_Tmap_traits<int,CRespawner *,std::less<int>,std::allocator<std::pair<int const ,CRespawner *> >,0> >::find
; Function compile flags: /Ogty
;	COMDAT ?find@?$_Tree@V?$_Tmap_traits@HPAVCRespawner@@U?$less@H@std@@V?$allocator@U?$pair@$$CBHPAVCRespawner@@@std@@@3@$0A@@std@@@std@@QAE?AViterator@12@ABH@Z
_TEXT	SEGMENT
$T233833 = -4						; size = 4
___$ReturnUdt$ = 8					; size = 4
__Where$ = 12						; size = 4
__Keyval$ = 12						; size = 4
?find@?$_Tree@V?$_Tmap_traits@HPAVCRespawner@@U?$less@H@std@@V?$allocator@U?$pair@$$CBHPAVCRespawner@@@std@@@3@$0A@@std@@@std@@QAE?AViterator@12@ABH@Z PROC NEAR ; std::_Tree<std::_Tmap_traits<int,CRespawner *,std::less<int>,std::allocator<std::pair<int const ,CRespawner *> >,0> >::find, COMDAT
; _this$ = ecx

; 787  : 		{	// find an element in mutable sequence that matches _Keyval

  00000	51		 push	 ecx

; 788  : 		iterator _Where = lower_bound(_Keyval);

  00001	8b 51 04	 mov	 edx, DWORD PTR [ecx+4]
  00004	8b 42 04	 mov	 eax, DWORD PTR [edx+4]
  00007	53		 push	 ebx
  00008	8a 58 15	 mov	 bl, BYTE PTR [eax+21]
  0000b	84 db		 test	 bl, bl
  0000d	56		 push	 esi
  0000e	57		 push	 edi
  0000f	8b 7c 24 18	 mov	 edi, DWORD PTR __Keyval$[esp+12]
  00013	75 17		 jne	 SHORT $L233909
  00015	8b 37		 mov	 esi, DWORD PTR [edi]
$L233908:
  00017	39 70 0c	 cmp	 DWORD PTR [eax+12], esi
  0001a	7d 05		 jge	 SHORT $L233910
  0001c	8b 40 08	 mov	 eax, DWORD PTR [eax+8]
  0001f	eb 04		 jmp	 SHORT $L233911
$L233910:
  00021	8b d0		 mov	 edx, eax
  00023	8b 00		 mov	 eax, DWORD PTR [eax]
$L233911:
  00025	8a 58 15	 mov	 bl, BYTE PTR [eax+21]
  00028	84 db		 test	 bl, bl
  0002a	74 eb		 je	 SHORT $L233908
$L233909:

; 789  : 		return (_Where == end() || this->comp(_Keyval, _Key(_Where._Mynode()))
; 790  : 			? end() : _Where);

  0002c	8b 41 04	 mov	 eax, DWORD PTR [ecx+4]
  0002f	3b d0		 cmp	 edx, eax
  00031	89 54 24 18	 mov	 DWORD PTR __Where$[esp+12], edx
  00035	74 1a		 je	 SHORT $L233832
  00037	8b 0f		 mov	 ecx, DWORD PTR [edi]
  00039	3b 4a 0c	 cmp	 ecx, DWORD PTR [edx+12]
  0003c	7c 13		 jl	 SHORT $L233832
  0003e	8d 44 24 18	 lea	 eax, DWORD PTR __Where$[esp+12]
  00042	8b 10		 mov	 edx, DWORD PTR [eax]
  00044	8b 44 24 14	 mov	 eax, DWORD PTR ___$ReturnUdt$[esp+12]
  00048	5f		 pop	 edi
  00049	5e		 pop	 esi
  0004a	89 10		 mov	 DWORD PTR [eax], edx
  0004c	5b		 pop	 ebx

; 791  : 		}

  0004d	59		 pop	 ecx
  0004e	c2 08 00	 ret	 8
$L233832:

; 789  : 		return (_Where == end() || this->comp(_Keyval, _Key(_Where._Mynode()))
; 790  : 			? end() : _Where);

  00051	89 44 24 0c	 mov	 DWORD PTR $T233833[esp+16], eax
  00055	8d 44 24 0c	 lea	 eax, DWORD PTR $T233833[esp+16]
  00059	8b 10		 mov	 edx, DWORD PTR [eax]
  0005b	8b 44 24 14	 mov	 eax, DWORD PTR ___$ReturnUdt$[esp+12]
  0005f	5f		 pop	 edi
  00060	5e		 pop	 esi
  00061	89 10		 mov	 DWORD PTR [eax], edx
  00063	5b		 pop	 ebx

; 791  : 		}

  00064	59		 pop	 ecx
  00065	c2 08 00	 ret	 8
?find@?$_Tree@V?$_Tmap_traits@HPAVCRespawner@@U?$less@H@std@@V?$allocator@U?$pair@$$CBHPAVCRespawner@@@std@@@3@$0A@@std@@@std@@QAE?AViterator@12@ABH@Z ENDP ; std::_Tree<std::_Tmap_traits<int,CRespawner *,std::less<int>,std::allocator<std::pair<int const ,CRespawner *> >,0> >::find
_TEXT	ENDS
PUBLIC	?_Init@?$_Tree@V?$_Tmap_traits@HPAVCRespawner@@U?$less@H@std@@V?$allocator@U?$pair@$$CBHPAVCRespawner@@@std@@@3@$0A@@std@@@std@@IAEXXZ ; std::_Tree<std::_Tmap_traits<int,CRespawner *,std::less<int>,std::allocator<std::pair<int const ,CRespawner *> >,0> >::_Init
; Function compile flags: /Ogty
;	COMDAT ?_Init@?$_Tree@V?$_Tmap_traits@HPAVCRespawner@@U?$less@H@std@@V?$allocator@U?$pair@$$CBHPAVCRespawner@@@std@@@3@$0A@@std@@@std@@IAEXXZ
_TEXT	SEGMENT
?_Init@?$_Tree@V?$_Tmap_traits@HPAVCRespawner@@U?$less@H@std@@V?$allocator@U?$pair@$$CBHPAVCRespawner@@@std@@@3@$0A@@std@@@std@@IAEXXZ PROC NEAR ; std::_Tree<std::_Tmap_traits<int,CRespawner *,std::less<int>,std::allocator<std::pair<int const ,CRespawner *> >,0> >::_Init, COMDAT
; _this$ = ecx

; 901  : 		{	// create head/nil node and make tree empty

  00000	56		 push	 esi
  00001	8b f1		 mov	 esi, ecx

; 902  : 		_Myhead = _Buynode();

  00003	e8 00 00 00 00	 call	 ?_Buynode@?$_Tree@V?$_Tmap_traits@HPAVCRespawner@@U?$less@H@std@@V?$allocator@U?$pair@$$CBHPAVCRespawner@@@std@@@3@$0A@@std@@@std@@IAEPAU_Node@?$_Tree_nod@V?$_Tmap_traits@HPAVCRespawner@@U?$less@H@std@@V?$allocator@U?$pair@$$CBHPAVCRespawner@@@std@@@3@$0A@@std@@@2@XZ ; std::_Tree<std::_Tmap_traits<int,CRespawner *,std::less<int>,std::allocator<std::pair<int const ,CRespawner *> >,0> >::_Buynode
  00008	89 46 04	 mov	 DWORD PTR [esi+4], eax

; 903  : 		_Isnil(_Myhead) = true;

  0000b	c6 40 15 01	 mov	 BYTE PTR [eax+21], 1

; 904  : 		_Root() = _Myhead;

  0000f	8b 46 04	 mov	 eax, DWORD PTR [esi+4]
  00012	89 40 04	 mov	 DWORD PTR [eax+4], eax

; 905  : 		_Lmost() = _Myhead, _Rmost() = _Myhead;

  00015	8b 46 04	 mov	 eax, DWORD PTR [esi+4]
  00018	89 00		 mov	 DWORD PTR [eax], eax
  0001a	8b 46 04	 mov	 eax, DWORD PTR [esi+4]
  0001d	89 40 08	 mov	 DWORD PTR [eax+8], eax

; 906  : 		_Mysize = 0;

  00020	c7 46 08 00 00
	00 00		 mov	 DWORD PTR [esi+8], 0
  00027	5e		 pop	 esi

; 907  : 		}

  00028	c3		 ret	 0
?_Init@?$_Tree@V?$_Tmap_traits@HPAVCRespawner@@U?$less@H@std@@V?$allocator@U?$pair@$$CBHPAVCRespawner@@@std@@@3@$0A@@std@@@std@@IAEXXZ ENDP ; std::_Tree<std::_Tmap_traits<int,CRespawner *,std::less<int>,std::allocator<std::pair<int const ,CRespawner *> >,0> >::_Init
_TEXT	ENDS
PUBLIC	??0?$_Tree_val@V?$_Tmap_traits@HPAVCRespawner@@U?$less@H@std@@V?$allocator@U?$pair@$$CBHPAVCRespawner@@@std@@@3@$0A@@std@@@std@@IAE@ABU?$less@H@1@V?$allocator@U?$pair@$$CBHPAVCRespawner@@@std@@@1@@Z ; std::_Tree_val<std::_Tmap_traits<int,CRespawner *,std::less<int>,std::allocator<std::pair<int const ,CRespawner *> >,0> >::_Tree_val<std::_Tmap_traits<int,CRespawner *,std::less<int>,std::allocator<std::pair<int const ,CRespawner *> >,0> >
; Function compile flags: /Ogty
;	COMDAT ??0?$_Tree_val@V?$_Tmap_traits@HPAVCRespawner@@U?$less@H@std@@V?$allocator@U?$pair@$$CBHPAVCRespawner@@@std@@@3@$0A@@std@@@std@@IAE@ABU?$less@H@1@V?$allocator@U?$pair@$$CBHPAVCRespawner@@@std@@@1@@Z
_TEXT	SEGMENT
__Parg$ = 8						; size = 4
__Al$ = 12						; size = 1
??0?$_Tree_val@V?$_Tmap_traits@HPAVCRespawner@@U?$less@H@std@@V?$allocator@U?$pair@$$CBHPAVCRespawner@@@std@@@3@$0A@@std@@@std@@IAE@ABU?$less@H@1@V?$allocator@U?$pair@$$CBHPAVCRespawner@@@std@@@1@@Z PROC NEAR ; std::_Tree_val<std::_Tmap_traits<int,CRespawner *,std::less<int>,std::allocator<std::pair<int const ,CRespawner *> >,0> >::_Tree_val<std::_Tmap_traits<int,CRespawner *,std::less<int>,std::allocator<std::pair<int const ,CRespawner *> >,0> >, COMDAT
; _this$ = ecx

; 95   : 		{	// construct base, and allocator from _Al

  00000	8b c1		 mov	 eax, ecx

; 96   : 		}

  00002	c2 08 00	 ret	 8
??0?$_Tree_val@V?$_Tmap_traits@HPAVCRespawner@@U?$less@H@std@@V?$allocator@U?$pair@$$CBHPAVCRespawner@@@std@@@3@$0A@@std@@@std@@IAE@ABU?$less@H@1@V?$allocator@U?$pair@$$CBHPAVCRespawner@@@std@@@1@@Z ENDP ; std::_Tree_val<std::_Tmap_traits<int,CRespawner *,std::less<int>,std::allocator<std::pair<int const ,CRespawner *> >,0> >::_Tree_val<std::_Tmap_traits<int,CRespawner *,std::less<int>,std::allocator<std::pair<int const ,CRespawner *> >,0> >
_TEXT	ENDS
PUBLIC	??$_Destroy_range@VCRespawnInfo@@V?$allocator@VCRespawnInfo@@@std@@@std@@YAXPAVCRespawnInfo@@0AAV?$allocator@VCRespawnInfo@@@0@@Z ; std::_Destroy_range<CRespawnInfo,std::allocator<CRespawnInfo> >
; Function compile flags: /Ogty
; File c:\program files\microsoft visual studio .net 2003\vc7\include\xmemory
;	COMDAT ??$_Destroy_range@VCRespawnInfo@@V?$allocator@VCRespawnInfo@@@std@@@std@@YAXPAVCRespawnInfo@@0AAV?$allocator@VCRespawnInfo@@@0@@Z
_TEXT	SEGMENT
__First$ = 8						; size = 4
__Last$ = 12						; size = 4
__Al$ = 16						; size = 4
??$_Destroy_range@VCRespawnInfo@@V?$allocator@VCRespawnInfo@@@std@@@std@@YAXPAVCRespawnInfo@@0AAV?$allocator@VCRespawnInfo@@@0@@Z PROC NEAR ; std::_Destroy_range<CRespawnInfo,std::allocator<CRespawnInfo> >, COMDAT

; 216  : 	{	// destroy [_First, _Last)

  00000	56		 push	 esi

; 217  : 	_Destroy_range(_First, _Last, _Al, _Ptr_cat(_First, _Last));

  00001	8b 74 24 08	 mov	 esi, DWORD PTR __First$[esp]
  00005	57		 push	 edi
  00006	8b 7c 24 10	 mov	 edi, DWORD PTR __Last$[esp+4]
  0000a	3b f7		 cmp	 esi, edi
  0000c	74 14		 je	 SHORT $L234095
  0000e	8b ff		 npad	 2
$L234093:
  00010	8b 06		 mov	 eax, DWORD PTR [esi]
  00012	6a 00		 push	 0
  00014	8b ce		 mov	 ecx, esi
  00016	ff 10		 call	 DWORD PTR [eax]
  00018	81 c6 48 05 00
	00		 add	 esi, 1352		; 00000548H
  0001e	3b f7		 cmp	 esi, edi
  00020	75 ee		 jne	 SHORT $L234093
$L234095:
  00022	5f		 pop	 edi
  00023	5e		 pop	 esi

; 218  : 	}

  00024	c3		 ret	 0
??$_Destroy_range@VCRespawnInfo@@V?$allocator@VCRespawnInfo@@@std@@@std@@YAXPAVCRespawnInfo@@0AAV?$allocator@VCRespawnInfo@@@0@@Z ENDP ; std::_Destroy_range<CRespawnInfo,std::allocator<CRespawnInfo> >
_TEXT	ENDS
PUBLIC	??$_Uninit_fill_n@PAVCRespawnInfo@@IV1@V?$allocator@VCRespawnInfo@@@std@@@std@@YAXPAVCRespawnInfo@@IABV1@AAV?$allocator@VCRespawnInfo@@@0@U_Nonscalar_ptr_iterator_tag@0@@Z ; std::_Uninit_fill_n<CRespawnInfo *,unsigned int,CRespawnInfo,std::allocator<CRespawnInfo> >
; Function compile flags: /Ogty
; File c:\program files\microsoft visual studio .net 2003\vc7\include\memory
;	COMDAT ??$_Uninit_fill_n@PAVCRespawnInfo@@IV1@V?$allocator@VCRespawnInfo@@@std@@@std@@YAXPAVCRespawnInfo@@IABV1@AAV?$allocator@VCRespawnInfo@@@0@U_Nonscalar_ptr_iterator_tag@0@@Z
_TEXT	SEGMENT
__First$ = 8						; size = 4
__Count$ = 12						; size = 4
__Val$ = 16						; size = 4
__Al$ = 20						; size = 4
___formal$ = 24						; size = 1
??$_Uninit_fill_n@PAVCRespawnInfo@@IV1@V?$allocator@VCRespawnInfo@@@std@@@std@@YAXPAVCRespawnInfo@@IABV1@AAV?$allocator@VCRespawnInfo@@@0@U_Nonscalar_ptr_iterator_tag@0@@Z PROC NEAR ; std::_Uninit_fill_n<CRespawnInfo *,unsigned int,CRespawnInfo,std::allocator<CRespawnInfo> >, COMDAT

; 208  : 	_FwdIt _Next = _First;
; 209  : 
; 210  : 	_TRY_BEGIN
; 211  : 	for (; 0 < _Count; --_Count, ++_First)

  00000	8b 44 24 08	 mov	 eax, DWORD PTR __Count$[esp-4]
  00004	85 c0		 test	 eax, eax
  00006	76 25		 jbe	 SHORT $L230342
  00008	53		 push	 ebx
  00009	8b 5c 24 10	 mov	 ebx, DWORD PTR __Val$[esp]
  0000d	56		 push	 esi
  0000e	8b 74 24 0c	 mov	 esi, DWORD PTR __First$[esp+4]
  00012	57		 push	 edi
  00013	8b f8		 mov	 edi, eax
$L230340:

; 212  : 		_Al.construct(_First, _Val);

  00015	85 f6		 test	 esi, esi
  00017	74 08		 je	 SHORT $L234128
  00019	53		 push	 ebx
  0001a	8b ce		 mov	 ecx, esi
  0001c	e8 00 00 00 00	 call	 ??0CRespawnInfo@@QAE@ABV0@@Z ; CRespawnInfo::CRespawnInfo
$L234128:
  00021	81 c6 48 05 00
	00		 add	 esi, 1352		; 00000548H
  00027	4f		 dec	 edi
  00028	75 eb		 jne	 SHORT $L230340
  0002a	5f		 pop	 edi
  0002b	5e		 pop	 esi
  0002c	5b		 pop	 ebx
$L230342:

; 213  : 	_CATCH_ALL
; 214  : 	for (; _Next != _First; ++_Next)
; 215  : 		_Al.destroy(_Next);
; 216  : 	_RERAISE;
; 217  : 	_CATCH_END
; 218  : 	}

  0002d	c3		 ret	 0
??$_Uninit_fill_n@PAVCRespawnInfo@@IV1@V?$allocator@VCRespawnInfo@@@std@@@std@@YAXPAVCRespawnInfo@@IABV1@AAV?$allocator@VCRespawnInfo@@@0@U_Nonscalar_ptr_iterator_tag@0@@Z ENDP ; std::_Uninit_fill_n<CRespawnInfo *,unsigned int,CRespawnInfo,std::allocator<CRespawnInfo> >
_TEXT	ENDS
PUBLIC	??$_Uninitialized_copy@PAVCRespawnInfo@@PAV1@V?$allocator@VCRespawnInfo@@@std@@@std@@YAPAVCRespawnInfo@@PAV1@00AAV?$allocator@VCRespawnInfo@@@0@@Z ; std::_Uninitialized_copy<CRespawnInfo *,CRespawnInfo *,std::allocator<CRespawnInfo> >
; Function compile flags: /Ogty
;	COMDAT ??$_Uninitialized_copy@PAVCRespawnInfo@@PAV1@V?$allocator@VCRespawnInfo@@@std@@@std@@YAPAVCRespawnInfo@@PAV1@00AAV?$allocator@VCRespawnInfo@@@0@@Z
_TEXT	SEGMENT
__Cat$234151 = -4					; size = 1
__First$ = 8						; size = 4
__Last$ = 12						; size = 4
__Dest$ = 16						; size = 4
__Al$ = 20						; size = 4
??$_Uninitialized_copy@PAVCRespawnInfo@@PAV1@V?$allocator@VCRespawnInfo@@@std@@@std@@YAPAVCRespawnInfo@@PAV1@00AAV?$allocator@VCRespawnInfo@@@0@@Z PROC NEAR ; std::_Uninitialized_copy<CRespawnInfo *,CRespawnInfo *,std::allocator<CRespawnInfo> >, COMDAT

; 126  : 	{	// copy [_First, _Last) to raw _Dest, using _Al

  00000	51		 push	 ecx

; 127  : 	return (_Uninit_copy(_First, _Last, _Dest, _Al,
; 128  : 		_Ptr_cat(_First, _Dest)));

  00001	8b 04 24	 mov	 eax, DWORD PTR __Cat$234151[esp+4]
  00004	8b 4c 24 14	 mov	 ecx, DWORD PTR __Al$[esp]
  00008	8b 54 24 10	 mov	 edx, DWORD PTR __Dest$[esp]
  0000c	50		 push	 eax
  0000d	8b 44 24 10	 mov	 eax, DWORD PTR __Last$[esp+4]
  00011	51		 push	 ecx
  00012	8b 4c 24 10	 mov	 ecx, DWORD PTR __First$[esp+8]
  00016	52		 push	 edx
  00017	50		 push	 eax
  00018	51		 push	 ecx
  00019	e8 00 00 00 00	 call	 ??$_Uninit_copy@PAVCRespawnInfo@@PAV1@V?$allocator@VCRespawnInfo@@@std@@@std@@YAPAVCRespawnInfo@@PAV1@00AAV?$allocator@VCRespawnInfo@@@0@U_Nonscalar_ptr_iterator_tag@0@@Z ; std::_Uninit_copy<CRespawnInfo *,CRespawnInfo *,std::allocator<CRespawnInfo> >

; 129  : 	}

  0001e	83 c4 18	 add	 esp, 24			; 00000018H
  00021	c3		 ret	 0
??$_Uninitialized_copy@PAVCRespawnInfo@@PAV1@V?$allocator@VCRespawnInfo@@@std@@@std@@YAPAVCRespawnInfo@@PAV1@00AAV?$allocator@VCRespawnInfo@@@0@@Z ENDP ; std::_Uninitialized_copy<CRespawnInfo *,CRespawnInfo *,std::allocator<CRespawnInfo> >
_TEXT	ENDS
PUBLIC	??$_Uninitialized_copy@Vconst_iterator@?$vector@VCRespawnInfo@@V?$allocator@VCRespawnInfo@@@std@@@std@@PAVCRespawnInfo@@V?$allocator@VCRespawnInfo@@@3@@std@@YAPAVCRespawnInfo@@Vconst_iterator@?$vector@VCRespawnInfo@@V?$allocator@VCRespawnInfo@@@std@@@0@0PAV1@AAV?$allocator@VCRespawnInfo@@@0@@Z ; std::_Uninitialized_copy<std::vector<CRespawnInfo,std::allocator<CRespawnInfo> >::const_iterator,CRespawnInfo *,std::allocator<CRespawnInfo> >
; Function compile flags: /Ogty
;	COMDAT ??$_Uninitialized_copy@Vconst_iterator@?$vector@VCRespawnInfo@@V?$allocator@VCRespawnInfo@@@std@@@std@@PAVCRespawnInfo@@V?$allocator@VCRespawnInfo@@@3@@std@@YAPAVCRespawnInfo@@Vconst_iterator@?$vector@VCRespawnInfo@@V?$allocator@VCRespawnInfo@@@std@@@0@0PAV1@AAV?$allocator@VCRespawnInfo@@@0@@Z
_TEXT	SEGMENT
__Cat$234158 = -4					; size = 1
__First$ = 8						; size = 4
__Last$ = 12						; size = 4
__Dest$ = 16						; size = 4
__Al$ = 20						; size = 4
??$_Uninitialized_copy@Vconst_iterator@?$vector@VCRespawnInfo@@V?$allocator@VCRespawnInfo@@@std@@@std@@PAVCRespawnInfo@@V?$allocator@VCRespawnInfo@@@3@@std@@YAPAVCRespawnInfo@@Vconst_iterator@?$vector@VCRespawnInfo@@V?$allocator@VCRespawnInfo@@@std@@@0@0PAV1@AAV?$allocator@VCRespawnInfo@@@0@@Z PROC NEAR ; std::_Uninitialized_copy<std::vector<CRespawnInfo,std::allocator<CRespawnInfo> >::const_iterator,CRespawnInfo *,std::allocator<CRespawnInfo> >, COMDAT

; 126  : 	{	// copy [_First, _Last) to raw _Dest, using _Al

  00000	51		 push	 ecx

; 127  : 	return (_Uninit_copy(_First, _Last, _Dest, _Al,
; 128  : 		_Ptr_cat(_First, _Dest)));

  00001	8b 04 24	 mov	 eax, DWORD PTR __Cat$234158[esp+4]
  00004	8b 4c 24 14	 mov	 ecx, DWORD PTR __Al$[esp]
  00008	8b 54 24 10	 mov	 edx, DWORD PTR __Dest$[esp]
  0000c	50		 push	 eax
  0000d	8b 44 24 10	 mov	 eax, DWORD PTR __Last$[esp+4]
  00011	51		 push	 ecx
  00012	8b 4c 24 10	 mov	 ecx, DWORD PTR __First$[esp+8]
  00016	52		 push	 edx
  00017	50		 push	 eax
  00018	51		 push	 ecx
  00019	e8 00 00 00 00	 call	 ??$_Uninit_copy@Vconst_iterator@?$vector@VCRespawnInfo@@V?$allocator@VCRespawnInfo@@@std@@@std@@PAVCRespawnInfo@@V?$allocator@VCRespawnInfo@@@3@@std@@YAPAVCRespawnInfo@@Vconst_iterator@?$vector@VCRespawnInfo@@V?$allocator@VCRespawnInfo@@@std@@@0@0PAV1@AAV?$allocator@VCRespawnInfo@@@0@U_Nonscalar_ptr_iterator_tag@0@@Z ; std::_Uninit_copy<std::vector<CRespawnInfo,std::allocator<CRespawnInfo> >::const_iterator,CRespawnInfo *,std::allocator<CRespawnInfo> >

; 129  : 	}

  0001e	83 c4 18	 add	 esp, 24			; 00000018H
  00021	c3		 ret	 0
??$_Uninitialized_copy@Vconst_iterator@?$vector@VCRespawnInfo@@V?$allocator@VCRespawnInfo@@@std@@@std@@PAVCRespawnInfo@@V?$allocator@VCRespawnInfo@@@3@@std@@YAPAVCRespawnInfo@@Vconst_iterator@?$vector@VCRespawnInfo@@V?$allocator@VCRespawnInfo@@@std@@@0@0PAV1@AAV?$allocator@VCRespawnInfo@@@0@@Z ENDP ; std::_Uninitialized_copy<std::vector<CRespawnInfo,std::allocator<CRespawnInfo> >::const_iterator,CRespawnInfo *,std::allocator<CRespawnInfo> >
_TEXT	ENDS
PUBLIC	??1?$basic_string@DU?$char_traits@D@std@@V?$allocator@D@2@@std@@QAE@XZ ; std::basic_string<char,std::char_traits<char>,std::allocator<char> >::~basic_string<char,std::char_traits<char>,std::allocator<char> >
; Function compile flags: /Ogty
; File c:\program files\microsoft visual studio .net 2003\vc7\include\xstring
;	COMDAT ??1?$basic_string@DU?$char_traits@D@std@@V?$allocator@D@2@@std@@QAE@XZ
_TEXT	SEGMENT
??1?$basic_string@DU?$char_traits@D@std@@V?$allocator@D@2@@std@@QAE@XZ PROC NEAR ; std::basic_string<char,std::char_traits<char>,std::allocator<char> >::~basic_string<char,std::char_traits<char>,std::allocator<char> >, COMDAT
; _this$ = ecx

; 456  : 		{	// destroy the string

  00000	56		 push	 esi
  00001	8b f1		 mov	 esi, ecx

; 457  : 		_Tidy(true);

  00003	83 7e 18 10	 cmp	 DWORD PTR [esi+24], 16	; 00000010H
  00007	72 0c		 jb	 SHORT $L234196
  00009	8b 46 04	 mov	 eax, DWORD PTR [esi+4]
  0000c	50		 push	 eax
  0000d	e8 00 00 00 00	 call	 ??3@YAXPAX@Z		; operator delete
  00012	83 c4 04	 add	 esp, 4
$L234196:
  00015	33 c0		 xor	 eax, eax
  00017	c7 46 18 0f 00
	00 00		 mov	 DWORD PTR [esi+24], 15	; 0000000fH
  0001e	89 46 14	 mov	 DWORD PTR [esi+20], eax
  00021	88 46 04	 mov	 BYTE PTR [esi+4], al
  00024	5e		 pop	 esi

; 458  : 		}

  00025	c3		 ret	 0
??1?$basic_string@DU?$char_traits@D@std@@V?$allocator@D@2@@std@@QAE@XZ ENDP ; std::basic_string<char,std::char_traits<char>,std::allocator<char> >::~basic_string<char,std::char_traits<char>,std::allocator<char> >
_TEXT	ENDS
PUBLIC	?_Grow@?$basic_string@DU?$char_traits@D@std@@V?$allocator@D@2@@std@@IAE_NI_N@Z ; std::basic_string<char,std::char_traits<char>,std::allocator<char> >::_Grow
EXTRN	?_Xlen@_String_base@std@@QBEXXZ:NEAR		; std::_String_base::_Xlen
; Function compile flags: /Ogty
;	COMDAT ?_Grow@?$basic_string@DU?$char_traits@D@std@@V?$allocator@D@2@@std@@IAE_NI_N@Z
_TEXT	SEGMENT
__Newsize$ = 8						; size = 4
__Trim$ = 12						; size = 1
?_Grow@?$basic_string@DU?$char_traits@D@std@@V?$allocator@D@2@@std@@IAE_NI_N@Z PROC NEAR ; std::basic_string<char,std::char_traits<char>,std::allocator<char> >::_Grow, COMDAT
; _this$ = ecx

; 1480 : 		{	// ensure buffer is big enough, trim to size if _Trim is true

  00000	55		 push	 ebp
  00001	56		 push	 esi

; 1481 : 		if (max_size() < _Newsize)

  00002	8b 74 24 0c	 mov	 esi, DWORD PTR __Newsize$[esp+4]
  00006	83 fe fe	 cmp	 esi, -2			; fffffffeH
  00009	8b e9		 mov	 ebp, ecx
  0000b	76 05		 jbe	 SHORT $L221380

; 1482 : 			_String_base::_Xlen();	// result too long

  0000d	e8 00 00 00 00	 call	 ?_Xlen@_String_base@std@@QBEXXZ ; std::_String_base::_Xlen
$L221380:

; 1483 : 		if (_Myres < _Newsize)

  00012	8b 45 18	 mov	 eax, DWORD PTR [ebp+24]
  00015	3b c6		 cmp	 eax, esi
  00017	73 19		 jae	 SHORT $L221381

; 1484 : 			_Copy(_Newsize, _Mysize);	// reallocate to grow

  00019	8b 45 14	 mov	 eax, DWORD PTR [ebp+20]
  0001c	50		 push	 eax
  0001d	56		 push	 esi
  0001e	8b cd		 mov	 ecx, ebp
  00020	e8 00 00 00 00	 call	 ?_Copy@?$basic_string@DU?$char_traits@D@std@@V?$allocator@D@2@@std@@IAEXII@Z ; std::basic_string<char,std::char_traits<char>,std::allocator<char> >::_Copy

; 1490 : 		return (0 < _Newsize);	// return true only if more work to do

  00025	33 c0		 xor	 eax, eax
  00027	3b c6		 cmp	 eax, esi
  00029	1b c0		 sbb	 eax, eax
  0002b	5e		 pop	 esi
  0002c	f7 d8		 neg	 eax
  0002e	5d		 pop	 ebp

; 1491 : 		}

  0002f	c2 08 00	 ret	 8
$L221381:

; 1485 : 		else if (_Trim && _Newsize < _BUF_SIZE)

  00032	8a 4c 24 10	 mov	 cl, BYTE PTR __Trim$[esp+4]
  00036	84 c9		 test	 cl, cl
  00038	74 5c		 je	 SHORT $L221383
  0003a	83 fe 10	 cmp	 esi, 16			; 00000010H
  0003d	73 57		 jae	 SHORT $L221383
  0003f	53		 push	 ebx

; 1486 : 			_Tidy(true,	// copy and deallocate if trimming to small string
; 1487 : 				_Newsize < _Mysize ? _Newsize : _Mysize);

  00040	8b 5d 14	 mov	 ebx, DWORD PTR [ebp+20]
  00043	3b f3		 cmp	 esi, ebx
  00045	73 02		 jae	 SHORT $L234217
  00047	8b de		 mov	 ebx, esi
$L234217:
  00049	83 f8 10	 cmp	 eax, 16			; 00000010H
  0004c	72 2b		 jb	 SHORT $L234271
  0004e	85 db		 test	 ebx, ebx
  00050	8b 45 04	 mov	 eax, DWORD PTR [ebp+4]
  00053	57		 push	 edi
  00054	8d 7d 04	 lea	 edi, DWORD PTR [ebp+4]
  00057	76 16		 jbe	 SHORT $L234269
  00059	8b cb		 mov	 ecx, ebx
  0005b	8b d1		 mov	 edx, ecx
  0005d	c1 e9 02	 shr	 ecx, 2
  00060	8b f0		 mov	 esi, eax
  00062	f3 a5		 rep movsd
  00064	8b ca		 mov	 ecx, edx
  00066	83 e1 03	 and	 ecx, 3
  00069	f3 a4		 rep movsb
  0006b	8b 74 24 14	 mov	 esi, DWORD PTR __Newsize$[esp+12]
$L234269:
  0006f	50		 push	 eax
  00070	e8 00 00 00 00	 call	 ??3@YAXPAX@Z		; operator delete
  00075	83 c4 04	 add	 esp, 4
  00078	5f		 pop	 edi
$L234271:
  00079	89 5d 14	 mov	 DWORD PTR [ebp+20], ebx

; 1490 : 		return (0 < _Newsize);	// return true only if more work to do

  0007c	33 c0		 xor	 eax, eax
  0007e	c7 45 18 0f 00
	00 00		 mov	 DWORD PTR [ebp+24], 15	; 0000000fH
  00085	c6 44 2b 04 00	 mov	 BYTE PTR [ebx+ebp+4], 0
  0008a	3b c6		 cmp	 eax, esi
  0008c	5b		 pop	 ebx
  0008d	1b c0		 sbb	 eax, eax
  0008f	5e		 pop	 esi
  00090	f7 d8		 neg	 eax
  00092	5d		 pop	 ebp

; 1491 : 		}

  00093	c2 08 00	 ret	 8
$L221383:

; 1488 : 		else if (_Newsize == 0)

  00096	85 f6		 test	 esi, esi
  00098	75 23		 jne	 SHORT $L234308

; 1489 : 			_Eos(0);	// new size is zero, just null terminate

  0009a	83 f8 10	 cmp	 eax, 16			; 00000010H
  0009d	89 75 14	 mov	 DWORD PTR [ebp+20], esi
  000a0	72 14		 jb	 SHORT $L234306
  000a2	8b 6d 04	 mov	 ebp, DWORD PTR [ebp+4]

; 1490 : 		return (0 < _Newsize);	// return true only if more work to do

  000a5	33 c0		 xor	 eax, eax
  000a7	3b c6		 cmp	 eax, esi
  000a9	1b c0		 sbb	 eax, eax
  000ab	5e		 pop	 esi
  000ac	c6 45 00 00	 mov	 BYTE PTR [ebp], 0
  000b0	f7 d8		 neg	 eax
  000b2	5d		 pop	 ebp

; 1491 : 		}

  000b3	c2 08 00	 ret	 8

; 1489 : 			_Eos(0);	// new size is zero, just null terminate

$L234306:
  000b6	83 c5 04	 add	 ebp, 4
  000b9	c6 45 00 00	 mov	 BYTE PTR [ebp], 0
$L234308:

; 1490 : 		return (0 < _Newsize);	// return true only if more work to do

  000bd	33 c0		 xor	 eax, eax
  000bf	3b c6		 cmp	 eax, esi
  000c1	1b c0		 sbb	 eax, eax
  000c3	5e		 pop	 esi
  000c4	f7 d8		 neg	 eax
  000c6	5d		 pop	 ebp

; 1491 : 		}

  000c7	c2 08 00	 ret	 8
?_Grow@?$basic_string@DU?$char_traits@D@std@@V?$allocator@D@2@@std@@IAE_NI_N@Z ENDP ; std::basic_string<char,std::char_traits<char>,std::allocator<char> >::_Grow
_TEXT	ENDS
PUBLIC	?Clear@CLayerdRespawner@@AAEXXZ			; CLayerdRespawner::Clear
; Function compile flags: /Ogty
; File c:\documents and settings\test\mes documents\source\virtuos_v17\build\program\_common\respawn.cpp
;	COMDAT ?Clear@CLayerdRespawner@@AAEXXZ
_TEXT	SEGMENT
_i$228808 = -4						; size = 4
?Clear@CLayerdRespawner@@AAEXXZ PROC NEAR		; CLayerdRespawner::Clear, COMDAT
; _this$ = ecx

; 674  : {

  00000	51		 push	 ecx
  00001	53		 push	 ebx
  00002	56		 push	 esi
  00003	57		 push	 edi
  00004	8b f9		 mov	 edi, ecx

; 675  : 	for( MRP::iterator i = m_mapRespawners.begin(); i != m_mapRespawners.end(); ++i )

  00006	8b 4f 3c	 mov	 ecx, DWORD PTR [edi+60]
  00009	8b 01		 mov	 eax, DWORD PTR [ecx]
  0000b	3b c1		 cmp	 eax, ecx
  0000d	89 44 24 0c	 mov	 DWORD PTR _i$228808[esp+16], eax
  00011	74 1f		 je	 SHORT $L234502
$L234352:

; 676  : 	{
; 677  : 		CRespawner* pRespawner	= i->second;

  00013	8b 48 10	 mov	 ecx, DWORD PTR [eax+16]

; 678  : 		SAFE_DELETE( pRespawner );

  00016	85 c9		 test	 ecx, ecx
  00018	74 06		 je	 SHORT $L228812
  0001a	8b 01		 mov	 eax, DWORD PTR [ecx]
  0001c	6a 01		 push	 1
  0001e	ff 10		 call	 DWORD PTR [eax]
$L228812:
  00020	8d 4c 24 0c	 lea	 ecx, DWORD PTR _i$228808[esp+16]
  00024	e8 00 00 00 00	 call	 ?_Inc@const_iterator@?$_Tree@V?$_Tmap_traits@HPAVCRespawner@@U?$less@H@std@@V?$allocator@U?$pair@$$CBHPAVCRespawner@@@std@@@3@$0A@@std@@@std@@QAEXXZ ; std::_Tree<std::_Tmap_traits<int,CRespawner *,std::less<int>,std::allocator<std::pair<int const ,CRespawner *> >,0> >::const_iterator::_Inc
  00029	8b 44 24 0c	 mov	 eax, DWORD PTR _i$228808[esp+16]
  0002d	3b 47 3c	 cmp	 eax, DWORD PTR [edi+60]
  00030	75 e1		 jne	 SHORT $L234352
$L234502:

; 679  : 	}
; 680  : 	m_mapRespawners.clear();

  00032	8b 4f 3c	 mov	 ecx, DWORD PTR [edi+60]
  00035	8b 59 04	 mov	 ebx, DWORD PTR [ecx+4]
  00038	8a 43 15	 mov	 al, BYTE PTR [ebx+21]
  0003b	83 c7 38	 add	 edi, 56			; 00000038H
  0003e	84 c0		 test	 al, al
  00040	8b f3		 mov	 esi, ebx
  00042	75 1f		 jne	 SHORT $L234485
$L234483:
  00044	8b 56 08	 mov	 edx, DWORD PTR [esi+8]
  00047	52		 push	 edx
  00048	8b cf		 mov	 ecx, edi
  0004a	e8 00 00 00 00	 call	 ?_Erase@?$_Tree@V?$_Tmap_traits@HPAVCRespawner@@U?$less@H@std@@V?$allocator@U?$pair@$$CBHPAVCRespawner@@@std@@@3@$0A@@std@@@std@@IAEXPAU_Node@?$_Tree_nod@V?$_Tmap_traits@HPAVCRespawner@@U?$less@H@std@@V?$allocator@U?$pair@$$CBHPAVCRespawner@@@std@@@3@$0A@@std@@@2@@Z ; std::_Tree<std::_Tmap_traits<int,CRespawner *,std::less<int>,std::allocator<std::pair<int const ,CRespawner *> >,0> >::_Erase
  0004f	8b 36		 mov	 esi, DWORD PTR [esi]
  00051	53		 push	 ebx
  00052	e8 00 00 00 00	 call	 ??3@YAXPAX@Z		; operator delete
  00057	8a 46 15	 mov	 al, BYTE PTR [esi+21]
  0005a	83 c4 04	 add	 esp, 4
  0005d	84 c0		 test	 al, al
  0005f	8b de		 mov	 ebx, esi
  00061	74 e1		 je	 SHORT $L234483
$L234485:
  00063	8b 47 04	 mov	 eax, DWORD PTR [edi+4]
  00066	89 40 04	 mov	 DWORD PTR [eax+4], eax
  00069	8b 47 04	 mov	 eax, DWORD PTR [edi+4]
  0006c	c7 47 08 00 00
	00 00		 mov	 DWORD PTR [edi+8], 0
  00073	89 00		 mov	 DWORD PTR [eax], eax
  00075	8b 7f 04	 mov	 edi, DWORD PTR [edi+4]
  00078	89 7f 08	 mov	 DWORD PTR [edi+8], edi
  0007b	5f		 pop	 edi
  0007c	5e		 pop	 esi
  0007d	5b		 pop	 ebx

; 681  : }

  0007e	59		 pop	 ecx
  0007f	c3		 ret	 0
?Clear@CLayerdRespawner@@AAEXXZ ENDP			; CLayerdRespawner::Clear
_TEXT	ENDS
PUBLIC	?GetRespawnInfo@CLayerdRespawner@@QAEPAVCRespawnInfo@@HHH@Z ; CLayerdRespawner::GetRespawnInfo
; Function compile flags: /Ogty
;	COMDAT ?GetRespawnInfo@CLayerdRespawner@@QAEPAVCRespawnInfo@@HHH@Z
_TEXT	SEGMENT
_i$ = -4						; size = 4
_nRespawn$ = 8						; size = 4
_nType$ = 12						; size = 4
_nLayer$ = 16						; size = 4
?GetRespawnInfo@CLayerdRespawner@@QAEPAVCRespawnInfo@@HHH@Z PROC NEAR ; CLayerdRespawner::GetRespawnInfo, COMDAT
; _this$ = ecx

; 699  : {

  00000	51		 push	 ecx
  00001	56		 push	 esi
  00002	8b f1		 mov	 esi, ecx

; 700  : 	MRP::iterator i = m_mapRespawners.find( nLayer );

  00004	8d 44 24 14	 lea	 eax, DWORD PTR _nLayer$[esp+4]
  00008	50		 push	 eax
  00009	8d 4c 24 08	 lea	 ecx, DWORD PTR _i$[esp+12]
  0000d	51		 push	 ecx
  0000e	8d 4e 38	 lea	 ecx, DWORD PTR [esi+56]
  00011	e8 00 00 00 00	 call	 ?find@?$_Tree@V?$_Tmap_traits@HPAVCRespawner@@U?$less@H@std@@V?$allocator@U?$pair@$$CBHPAVCRespawner@@@std@@@3@$0A@@std@@@std@@QAE?AViterator@12@ABH@Z ; std::_Tree<std::_Tmap_traits<int,CRespawner *,std::less<int>,std::allocator<std::pair<int const ,CRespawner *> >,0> >::find

; 701  : 	if( i != m_mapRespawners.end() )

  00016	8b 4e 3c	 mov	 ecx, DWORD PTR [esi+60]
  00019	8b 44 24 04	 mov	 eax, DWORD PTR _i$[esp+8]
  0001d	3b c1		 cmp	 eax, ecx
  0001f	5e		 pop	 esi
  00020	74 16		 je	 SHORT $L228865

; 702  : 		return i->second->GetRespawnInfo( nRespawn, nType );

  00022	8b 54 24 0c	 mov	 edx, DWORD PTR _nType$[esp]
  00026	8b 4c 24 08	 mov	 ecx, DWORD PTR _nRespawn$[esp]
  0002a	52		 push	 edx
  0002b	51		 push	 ecx
  0002c	8b 48 10	 mov	 ecx, DWORD PTR [eax+16]
  0002f	e8 00 00 00 00	 call	 ?GetRespawnInfo@CRespawner@@QAEPAVCRespawnInfo@@HH@Z ; CRespawner::GetRespawnInfo

; 704  : }

  00034	59		 pop	 ecx
  00035	c2 0c 00	 ret	 12			; 0000000cH
$L228865:

; 703  : 	return NULL;

  00038	33 c0		 xor	 eax, eax

; 704  : }

  0003a	59		 pop	 ecx
  0003b	c2 0c 00	 ret	 12			; 0000000cH
?GetRespawnInfo@CLayerdRespawner@@QAEPAVCRespawnInfo@@HHH@Z ENDP ; CLayerdRespawner::GetRespawnInfo
_TEXT	ENDS
PUBLIC	?Increment@CLayerdRespawner@@QAEXHHHH@Z		; CLayerdRespawner::Increment
; Function compile flags: /Ogty
;	COMDAT ?Increment@CLayerdRespawner@@QAEXHHHH@Z
_TEXT	SEGMENT
_i$ = -4						; size = 4
_nRespawn$ = 8						; size = 4
_nType$ = 12						; size = 4
_bActiveAttack$ = 16					; size = 4
_nLayer$ = 20						; size = 4
?Increment@CLayerdRespawner@@QAEXHHHH@Z PROC NEAR	; CLayerdRespawner::Increment, COMDAT
; _this$ = ecx

; 715  : {

  00000	51		 push	 ecx
  00001	56		 push	 esi
  00002	8b f1		 mov	 esi, ecx

; 716  : 	MRP::iterator i = m_mapRespawners.find( nLayer );

  00004	8d 44 24 18	 lea	 eax, DWORD PTR _nLayer$[esp+4]
  00008	50		 push	 eax
  00009	8d 4c 24 08	 lea	 ecx, DWORD PTR _i$[esp+12]
  0000d	51		 push	 ecx
  0000e	8d 4e 38	 lea	 ecx, DWORD PTR [esi+56]
  00011	e8 00 00 00 00	 call	 ?find@?$_Tree@V?$_Tmap_traits@HPAVCRespawner@@U?$less@H@std@@V?$allocator@U?$pair@$$CBHPAVCRespawner@@@std@@@3@$0A@@std@@@std@@QAE?AViterator@12@ABH@Z ; std::_Tree<std::_Tmap_traits<int,CRespawner *,std::less<int>,std::allocator<std::pair<int const ,CRespawner *> >,0> >::find

; 717  : 	if( i != m_mapRespawners.end() )

  00016	8b 4e 3c	 mov	 ecx, DWORD PTR [esi+60]
  00019	8b 44 24 04	 mov	 eax, DWORD PTR _i$[esp+8]
  0001d	3b c1		 cmp	 eax, ecx
  0001f	5e		 pop	 esi
  00020	74 17		 je	 SHORT $L228887

; 718  : 		i->second->Increment( nRespawn, nType, bActiveAttack );

  00022	8b 54 24 10	 mov	 edx, DWORD PTR _bActiveAttack$[esp]
  00026	8b 4c 24 0c	 mov	 ecx, DWORD PTR _nType$[esp]
  0002a	52		 push	 edx
  0002b	8b 54 24 0c	 mov	 edx, DWORD PTR _nRespawn$[esp+4]
  0002f	51		 push	 ecx
  00030	8b 48 10	 mov	 ecx, DWORD PTR [eax+16]
  00033	52		 push	 edx
  00034	e8 00 00 00 00	 call	 ?Increment@CRespawner@@QAEXHHH@Z ; CRespawner::Increment
$L228887:

; 719  : }

  00039	59		 pop	 ecx
  0003a	c2 10 00	 ret	 16			; 00000010H
?Increment@CLayerdRespawner@@QAEXHHHH@Z ENDP		; CLayerdRespawner::Increment
_TEXT	ENDS
PUBLIC	?_Destroy@?$vector@VCRespawnInfo@@V?$allocator@VCRespawnInfo@@@std@@@std@@IAEXPAVCRespawnInfo@@0@Z ; std::vector<CRespawnInfo,std::allocator<CRespawnInfo> >::_Destroy
; Function compile flags: /Ogty
; File c:\program files\microsoft visual studio .net 2003\vc7\include\vector
;	COMDAT ?_Destroy@?$vector@VCRespawnInfo@@V?$allocator@VCRespawnInfo@@@std@@@std@@IAEXPAVCRespawnInfo@@0@Z
_TEXT	SEGMENT
__First$ = 8						; size = 4
__Last$ = 12						; size = 4
?_Destroy@?$vector@VCRespawnInfo@@V?$allocator@VCRespawnInfo@@@std@@@std@@IAEXPAVCRespawnInfo@@0@Z PROC NEAR ; std::vector<CRespawnInfo,std::allocator<CRespawnInfo> >::_Destroy, COMDAT
; _this$ = ecx

; 786  : 		{	// destroy [_First, _Last) using allocator

  00000	56		 push	 esi

; 787  : 		_Destroy_range(_First, _Last, this->_Alval);

  00001	8b 74 24 08	 mov	 esi, DWORD PTR __First$[esp]
  00005	57		 push	 edi
  00006	8b 7c 24 10	 mov	 edi, DWORD PTR __Last$[esp+4]
  0000a	3b f7		 cmp	 esi, edi
  0000c	74 14		 je	 SHORT $L234649
  0000e	8b ff		 npad	 2
$L234647:
  00010	8b 06		 mov	 eax, DWORD PTR [esi]
  00012	6a 00		 push	 0
  00014	8b ce		 mov	 ecx, esi
  00016	ff 10		 call	 DWORD PTR [eax]
  00018	81 c6 48 05 00
	00		 add	 esi, 1352		; 00000548H
  0001e	3b f7		 cmp	 esi, edi
  00020	75 ee		 jne	 SHORT $L234647
$L234649:
  00022	5f		 pop	 edi
  00023	5e		 pop	 esi

; 788  : 		}

  00024	c2 08 00	 ret	 8
?_Destroy@?$vector@VCRespawnInfo@@V?$allocator@VCRespawnInfo@@@std@@@std@@IAEXPAVCRespawnInfo@@0@Z ENDP ; std::vector<CRespawnInfo,std::allocator<CRespawnInfo> >::_Destroy
_TEXT	ENDS
PUBLIC	?_Tidy@?$vector@VCRespawnInfo@@V?$allocator@VCRespawnInfo@@@std@@@std@@IAEXXZ ; std::vector<CRespawnInfo,std::allocator<CRespawnInfo> >::_Tidy
; Function compile flags: /Ogty
;	COMDAT ?_Tidy@?$vector@VCRespawnInfo@@V?$allocator@VCRespawnInfo@@@std@@@std@@IAEXXZ
_TEXT	SEGMENT
?_Tidy@?$vector@VCRespawnInfo@@V?$allocator@VCRespawnInfo@@@std@@@std@@IAEXXZ PROC NEAR ; std::vector<CRespawnInfo,std::allocator<CRespawnInfo> >::_Tidy, COMDAT
; _this$ = ecx

; 791  : 		{	// free all storage

  00000	53		 push	 ebx
  00001	8b d9		 mov	 ebx, ecx
  00003	56		 push	 esi

; 792  : 		if (_Myfirst != 0)

  00004	8b 73 04	 mov	 esi, DWORD PTR [ebx+4]
  00007	85 f6		 test	 esi, esi
  00009	74 27		 je	 SHORT $L234722
  0000b	57		 push	 edi

; 793  : 			{	// something to free, destroy and deallocate it
; 794  : 			_Destroy(_Myfirst, _Mylast);

  0000c	8b 7b 08	 mov	 edi, DWORD PTR [ebx+8]
  0000f	3b f7		 cmp	 esi, edi
  00011	74 12		 je	 SHORT $L234716
$L234714:
  00013	8b 06		 mov	 eax, DWORD PTR [esi]
  00015	6a 00		 push	 0
  00017	8b ce		 mov	 ecx, esi
  00019	ff 10		 call	 DWORD PTR [eax]
  0001b	81 c6 48 05 00
	00		 add	 esi, 1352		; 00000548H
  00021	3b f7		 cmp	 esi, edi
  00023	75 ee		 jne	 SHORT $L234714
$L234716:

; 795  : 			this->_Alval.deallocate(_Myfirst, _Myend - _Myfirst);

  00025	8b 4b 04	 mov	 ecx, DWORD PTR [ebx+4]
  00028	51		 push	 ecx
  00029	e8 00 00 00 00	 call	 ??3@YAXPAX@Z		; operator delete
  0002e	83 c4 04	 add	 esp, 4
  00031	5f		 pop	 edi
$L234722:
  00032	5e		 pop	 esi

; 796  : 			}
; 797  : 		_Myfirst = 0, _Mylast = 0, _Myend = 0;

  00033	c7 43 04 00 00
	00 00		 mov	 DWORD PTR [ebx+4], 0
  0003a	c7 43 08 00 00
	00 00		 mov	 DWORD PTR [ebx+8], 0
  00041	c7 43 0c 00 00
	00 00		 mov	 DWORD PTR [ebx+12], 0
  00048	5b		 pop	 ebx

; 798  : 		}

  00049	c3		 ret	 0
?_Tidy@?$vector@VCRespawnInfo@@V?$allocator@VCRespawnInfo@@@std@@@std@@IAEXXZ ENDP ; std::vector<CRespawnInfo,std::allocator<CRespawnInfo> >::_Tidy
_TEXT	ENDS
PUBLIC	??0?$_Tree@V?$_Tmap_traits@HPAVCRespawner@@U?$less@H@std@@V?$allocator@U?$pair@$$CBHPAVCRespawner@@@std@@@3@$0A@@std@@@std@@QAE@ABU?$less@H@1@ABV?$allocator@U?$pair@$$CBHPAVCRespawner@@@std@@@1@@Z ; std::_Tree<std::_Tmap_traits<int,CRespawner *,std::less<int>,std::allocator<std::pair<int const ,CRespawner *> >,0> >::_Tree<std::_Tmap_traits<int,CRespawner *,std::less<int>,std::allocator<std::pair<int const ,CRespawner *> >,0> >
; Function compile flags: /Ogty
; File c:\program files\microsoft visual studio .net 2003\vc7\include\xtree
;	COMDAT ??0?$_Tree@V?$_Tmap_traits@HPAVCRespawner@@U?$less@H@std@@V?$allocator@U?$pair@$$CBHPAVCRespawner@@@std@@@3@$0A@@std@@@std@@QAE@ABU?$less@H@1@ABV?$allocator@U?$pair@$$CBHPAVCRespawner@@@std@@@1@@Z
_TEXT	SEGMENT
__Parg$ = 8						; size = 4
__Al$ = 12						; size = 4
??0?$_Tree@V?$_Tmap_traits@HPAVCRespawner@@U?$less@H@std@@V?$allocator@U?$pair@$$CBHPAVCRespawner@@@std@@@3@$0A@@std@@@std@@QAE@ABU?$less@H@1@ABV?$allocator@U?$pair@$$CBHPAVCRespawner@@@std@@@1@@Z PROC NEAR ; std::_Tree<std::_Tmap_traits<int,CRespawner *,std::less<int>,std::allocator<std::pair<int const ,CRespawner *> >,0> >::_Tree<std::_Tmap_traits<int,CRespawner *,std::less<int>,std::allocator<std::pair<int const ,CRespawner *> >,0> >, COMDAT
; _this$ = ecx

; 361  : 		{	// construct empty tree

  00000	56		 push	 esi
  00001	8b f1		 mov	 esi, ecx

; 362  : 		_Init();

  00003	e8 00 00 00 00	 call	 ?_Buynode@?$_Tree@V?$_Tmap_traits@HPAVCRespawner@@U?$less@H@std@@V?$allocator@U?$pair@$$CBHPAVCRespawner@@@std@@@3@$0A@@std@@@std@@IAEPAU_Node@?$_Tree_nod@V?$_Tmap_traits@HPAVCRespawner@@U?$less@H@std@@V?$allocator@U?$pair@$$CBHPAVCRespawner@@@std@@@3@$0A@@std@@@2@XZ ; std::_Tree<std::_Tmap_traits<int,CRespawner *,std::less<int>,std::allocator<std::pair<int const ,CRespawner *> >,0> >::_Buynode
  00008	89 46 04	 mov	 DWORD PTR [esi+4], eax
  0000b	c6 40 15 01	 mov	 BYTE PTR [eax+21], 1
  0000f	8b 46 04	 mov	 eax, DWORD PTR [esi+4]
  00012	89 40 04	 mov	 DWORD PTR [eax+4], eax
  00015	8b 46 04	 mov	 eax, DWORD PTR [esi+4]
  00018	89 00		 mov	 DWORD PTR [eax], eax
  0001a	8b 46 04	 mov	 eax, DWORD PTR [esi+4]
  0001d	89 40 08	 mov	 DWORD PTR [eax+8], eax
  00020	c7 46 08 00 00
	00 00		 mov	 DWORD PTR [esi+8], 0

; 363  : 		}

  00027	8b c6		 mov	 eax, esi
  00029	5e		 pop	 esi
  0002a	c2 08 00	 ret	 8
??0?$_Tree@V?$_Tmap_traits@HPAVCRespawner@@U?$less@H@std@@V?$allocator@U?$pair@$$CBHPAVCRespawner@@@std@@@3@$0A@@std@@@std@@QAE@ABU?$less@H@1@ABV?$allocator@U?$pair@$$CBHPAVCRespawner@@@std@@@1@@Z ENDP ; std::_Tree<std::_Tmap_traits<int,CRespawner *,std::less<int>,std::allocator<std::pair<int const ,CRespawner *> >,0> >::_Tree<std::_Tmap_traits<int,CRespawner *,std::less<int>,std::allocator<std::pair<int const ,CRespawner *> >,0> >
_TEXT	ENDS
PUBLIC	??$_Uninitialized_fill_n@PAVCRespawnInfo@@IV1@V?$allocator@VCRespawnInfo@@@std@@@std@@YAXPAVCRespawnInfo@@IABV1@AAV?$allocator@VCRespawnInfo@@@0@@Z ; std::_Uninitialized_fill_n<CRespawnInfo *,unsigned int,CRespawnInfo,std::allocator<CRespawnInfo> >
; Function compile flags: /Ogty
; File c:\program files\microsoft visual studio .net 2003\vc7\include\memory
;	COMDAT ??$_Uninitialized_fill_n@PAVCRespawnInfo@@IV1@V?$allocator@VCRespawnInfo@@@std@@@std@@YAXPAVCRespawnInfo@@IABV1@AAV?$allocator@VCRespawnInfo@@@0@@Z
_TEXT	SEGMENT
__Cat$234855 = -4					; size = 1
__First$ = 8						; size = 4
__Count$ = 12						; size = 4
__Val$ = 16						; size = 4
__Al$ = 20						; size = 4
??$_Uninitialized_fill_n@PAVCRespawnInfo@@IV1@V?$allocator@VCRespawnInfo@@@std@@@std@@YAXPAVCRespawnInfo@@IABV1@AAV?$allocator@VCRespawnInfo@@@0@@Z PROC NEAR ; std::_Uninitialized_fill_n<CRespawnInfo *,unsigned int,CRespawnInfo,std::allocator<CRespawnInfo> >, COMDAT

; 255  : 	{	// copy _Count *_Val to raw _First, using _Al

  00000	51		 push	 ecx

; 256  : 	_Uninit_fill_n(_First, _Count, _Val, _Al,
; 257  : 		_Ptr_cat(_First, _First));

  00001	8b 04 24	 mov	 eax, DWORD PTR __Cat$234855[esp+4]
  00004	8b 4c 24 14	 mov	 ecx, DWORD PTR __Al$[esp]
  00008	8b 54 24 10	 mov	 edx, DWORD PTR __Val$[esp]
  0000c	50		 push	 eax
  0000d	8b 44 24 10	 mov	 eax, DWORD PTR __Count$[esp+4]
  00011	51		 push	 ecx
  00012	8b 4c 24 10	 mov	 ecx, DWORD PTR __First$[esp+8]
  00016	52		 push	 edx
  00017	50		 push	 eax
  00018	51		 push	 ecx
  00019	e8 00 00 00 00	 call	 ??$_Uninit_fill_n@PAVCRespawnInfo@@IV1@V?$allocator@VCRespawnInfo@@@std@@@std@@YAXPAVCRespawnInfo@@IABV1@AAV?$allocator@VCRespawnInfo@@@0@U_Nonscalar_ptr_iterator_tag@0@@Z ; std::_Uninit_fill_n<CRespawnInfo *,unsigned int,CRespawnInfo,std::allocator<CRespawnInfo> >

; 258  : 	}

  0001e	83 c4 18	 add	 esp, 24			; 00000018H
  00021	c3		 ret	 0
??$_Uninitialized_fill_n@PAVCRespawnInfo@@IV1@V?$allocator@VCRespawnInfo@@@std@@@std@@YAXPAVCRespawnInfo@@IABV1@AAV?$allocator@VCRespawnInfo@@@0@@Z ENDP ; std::_Uninitialized_fill_n<CRespawnInfo *,unsigned int,CRespawnInfo,std::allocator<CRespawnInfo> >
_TEXT	ENDS
PUBLIC	??$_Ucopy@PAVCRespawnInfo@@@?$vector@VCRespawnInfo@@V?$allocator@VCRespawnInfo@@@std@@@std@@IAEPAVCRespawnInfo@@PAV2@00@Z ; std::vector<CRespawnInfo,std::allocator<CRespawnInfo> >::_Ucopy<CRespawnInfo *>
; Function compile flags: /Ogty
; File c:\program files\microsoft visual studio .net 2003\vc7\include\vector
;	COMDAT ??$_Ucopy@PAVCRespawnInfo@@@?$vector@VCRespawnInfo@@V?$allocator@VCRespawnInfo@@@std@@@std@@IAEPAVCRespawnInfo@@PAV2@00@Z
_TEXT	SEGMENT
__First$ = 8						; size = 4
__Last$ = 12						; size = 4
__Cat$234869 = 16					; size = 1
__Ptr$ = 16						; size = 4
??$_Ucopy@PAVCRespawnInfo@@@?$vector@VCRespawnInfo@@V?$allocator@VCRespawnInfo@@@std@@@std@@IAEPAVCRespawnInfo@@PAV2@00@Z PROC NEAR ; std::vector<CRespawnInfo,std::allocator<CRespawnInfo> >::_Ucopy<CRespawnInfo *>, COMDAT
; _this$ = ecx

; 802  : 		{	// copy initializing [_First, _Last), using allocator
; 803  : 		return (_Uninitialized_copy(_First, _Last,
; 804  : 			_Ptr, this->_Alval));

  00000	8b 44 24 0c	 mov	 eax, DWORD PTR __Cat$234869[esp-4]
  00004	8b 54 24 08	 mov	 edx, DWORD PTR __Last$[esp-4]
  00008	50		 push	 eax
  00009	8b 44 24 08	 mov	 eax, DWORD PTR __First$[esp]
  0000d	51		 push	 ecx
  0000e	8b 4c 24 14	 mov	 ecx, DWORD PTR __Ptr$[esp+4]
  00012	51		 push	 ecx
  00013	52		 push	 edx
  00014	50		 push	 eax
  00015	e8 00 00 00 00	 call	 ??$_Uninit_copy@PAVCRespawnInfo@@PAV1@V?$allocator@VCRespawnInfo@@@std@@@std@@YAPAVCRespawnInfo@@PAV1@00AAV?$allocator@VCRespawnInfo@@@0@U_Nonscalar_ptr_iterator_tag@0@@Z ; std::_Uninit_copy<CRespawnInfo *,CRespawnInfo *,std::allocator<CRespawnInfo> >
  0001a	83 c4 14	 add	 esp, 20			; 00000014H

; 805  : 		}

  0001d	c2 0c 00	 ret	 12			; 0000000cH
??$_Ucopy@PAVCRespawnInfo@@@?$vector@VCRespawnInfo@@V?$allocator@VCRespawnInfo@@@std@@@std@@IAEPAVCRespawnInfo@@PAV2@00@Z ENDP ; std::vector<CRespawnInfo,std::allocator<CRespawnInfo> >::_Ucopy<CRespawnInfo *>
_TEXT	ENDS
PUBLIC	?erase@?$vector@VCRespawnInfo@@V?$allocator@VCRespawnInfo@@@std@@@std@@QAE?AViterator@12@V312@0@Z ; std::vector<CRespawnInfo,std::allocator<CRespawnInfo> >::erase
; Function compile flags: /Ogty
;	COMDAT ?erase@?$vector@VCRespawnInfo@@V?$allocator@VCRespawnInfo@@@std@@@std@@QAE?AViterator@12@V312@0@Z
_TEXT	SEGMENT
___$ReturnUdt$ = 8					; size = 4
__Cat$234894 = 12					; size = 1
__First$ = 12						; size = 4
__Last$ = 16						; size = 4
?erase@?$vector@VCRespawnInfo@@V?$allocator@VCRespawnInfo@@@std@@@std@@QAE?AViterator@12@V312@0@Z PROC NEAR ; std::vector<CRespawnInfo,std::allocator<CRespawnInfo> >::erase, COMDAT
; _this$ = ecx

; 732  : 		if (_First != _Last)

  00000	8b 54 24 0c	 mov	 edx, DWORD PTR __Last$[esp-4]
  00004	55		 push	 ebp
  00005	8b e9		 mov	 ebp, ecx
  00007	8b 4c 24 0c	 mov	 ecx, DWORD PTR __First$[esp]
  0000b	3b ca		 cmp	 ecx, edx
  0000d	74 3d		 je	 SHORT $L234963

; 733  : 			{	// worth doing, copy down over hole
; 734  : 			pointer _Ptr = copy(_ITER_BASE(_Last), _Mylast,
; 735  : 				_ITER_BASE(_First));

  0000f	8b 45 08	 mov	 eax, DWORD PTR [ebp+8]
  00012	53		 push	 ebx
  00013	56		 push	 esi
  00014	8b 74 24 14	 mov	 esi, DWORD PTR __Cat$234894[esp+8]
  00018	57		 push	 edi
  00019	56		 push	 esi
  0001a	51		 push	 ecx
  0001b	50		 push	 eax
  0001c	52		 push	 edx
  0001d	e8 00 00 00 00	 call	 ??$_Copy_opt@PAVCRespawnInfo@@PAV1@@std@@YAPAVCRespawnInfo@@PAV1@00U_Nonscalar_ptr_iterator_tag@0@@Z ; std::_Copy_opt<CRespawnInfo *,CRespawnInfo *>

; 736  : 			_Destroy(_Ptr, _Mylast);

  00022	8b 7d 08	 mov	 edi, DWORD PTR [ebp+8]
  00025	8b d8		 mov	 ebx, eax
  00027	83 c4 10	 add	 esp, 16			; 00000010H
  0002a	3b df		 cmp	 ebx, edi
  0002c	8b f3		 mov	 esi, ebx
  0002e	74 12		 je	 SHORT $L234957
$L234955:
  00030	8b 06		 mov	 eax, DWORD PTR [esi]
  00032	6a 00		 push	 0
  00034	8b ce		 mov	 ecx, esi
  00036	ff 10		 call	 DWORD PTR [eax]
  00038	81 c6 48 05 00
	00		 add	 esi, 1352		; 00000548H
  0003e	3b f7		 cmp	 esi, edi
  00040	75 ee		 jne	 SHORT $L234955
$L234957:

; 737  : 			_Mylast = _Ptr;
; 738  : 			}
; 739  : 		return (_First);

  00042	8b 4c 24 18	 mov	 ecx, DWORD PTR __First$[esp+12]
  00046	5f		 pop	 edi
  00047	5e		 pop	 esi
  00048	89 5d 08	 mov	 DWORD PTR [ebp+8], ebx
  0004b	5b		 pop	 ebx
$L234963:
  0004c	8b 44 24 08	 mov	 eax, DWORD PTR ___$ReturnUdt$[esp]
  00050	89 08		 mov	 DWORD PTR [eax], ecx
  00052	5d		 pop	 ebp

; 740  : 		}

  00053	c2 0c 00	 ret	 12			; 0000000cH
?erase@?$vector@VCRespawnInfo@@V?$allocator@VCRespawnInfo@@@std@@@std@@QAE?AViterator@12@V312@0@Z ENDP ; std::vector<CRespawnInfo,std::allocator<CRespawnInfo> >::erase
_TEXT	ENDS
PUBLIC	??$_Ucopy@Vconst_iterator@?$vector@VCRespawnInfo@@V?$allocator@VCRespawnInfo@@@std@@@std@@@?$vector@VCRespawnInfo@@V?$allocator@VCRespawnInfo@@@std@@@std@@IAEPAVCRespawnInfo@@Vconst_iterator@01@0PAV2@@Z ; std::vector<CRespawnInfo,std::allocator<CRespawnInfo> >::_Ucopy<std::vector<CRespawnInfo,std::allocator<CRespawnInfo> >::const_iterator>
; Function compile flags: /Ogty
;	COMDAT ??$_Ucopy@Vconst_iterator@?$vector@VCRespawnInfo@@V?$allocator@VCRespawnInfo@@@std@@@std@@@?$vector@VCRespawnInfo@@V?$allocator@VCRespawnInfo@@@std@@@std@@IAEPAVCRespawnInfo@@Vconst_iterator@01@0PAV2@@Z
_TEXT	SEGMENT
__First$ = 8						; size = 4
__Last$ = 12						; size = 4
__Cat$234977 = 16					; size = 1
__Ptr$ = 16						; size = 4
??$_Ucopy@Vconst_iterator@?$vector@VCRespawnInfo@@V?$allocator@VCRespawnInfo@@@std@@@std@@@?$vector@VCRespawnInfo@@V?$allocator@VCRespawnInfo@@@std@@@std@@IAEPAVCRespawnInfo@@Vconst_iterator@01@0PAV2@@Z PROC NEAR ; std::vector<CRespawnInfo,std::allocator<CRespawnInfo> >::_Ucopy<std::vector<CRespawnInfo,std::allocator<CRespawnInfo> >::const_iterator>, COMDAT
; _this$ = ecx

; 802  : 		{	// copy initializing [_First, _Last), using allocator
; 803  : 		return (_Uninitialized_copy(_First, _Last,
; 804  : 			_Ptr, this->_Alval));

  00000	8b 44 24 0c	 mov	 eax, DWORD PTR __Cat$234977[esp-4]
  00004	8b 54 24 08	 mov	 edx, DWORD PTR __Last$[esp-4]
  00008	50		 push	 eax
  00009	8b 44 24 08	 mov	 eax, DWORD PTR __First$[esp]
  0000d	51		 push	 ecx
  0000e	8b 4c 24 14	 mov	 ecx, DWORD PTR __Ptr$[esp+4]
  00012	51		 push	 ecx
  00013	52		 push	 edx
  00014	50		 push	 eax
  00015	e8 00 00 00 00	 call	 ??$_Uninit_copy@Vconst_iterator@?$vector@VCRespawnInfo@@V?$allocator@VCRespawnInfo@@@std@@@std@@PAVCRespawnInfo@@V?$allocator@VCRespawnInfo@@@3@@std@@YAPAVCRespawnInfo@@Vconst_iterator@?$vector@VCRespawnInfo@@V?$allocator@VCRespawnInfo@@@std@@@0@0PAV1@AAV?$allocator@VCRespawnInfo@@@0@U_Nonscalar_ptr_iterator_tag@0@@Z ; std::_Uninit_copy<std::vector<CRespawnInfo,std::allocator<CRespawnInfo> >::const_iterator,CRespawnInfo *,std::allocator<CRespawnInfo> >
  0001a	83 c4 14	 add	 esp, 20			; 00000014H

; 805  : 		}

  0001d	c2 0c 00	 ret	 12			; 0000000cH
??$_Ucopy@Vconst_iterator@?$vector@VCRespawnInfo@@V?$allocator@VCRespawnInfo@@@std@@@std@@@?$vector@VCRespawnInfo@@V?$allocator@VCRespawnInfo@@@std@@@std@@IAEPAVCRespawnInfo@@Vconst_iterator@01@0PAV2@@Z ENDP ; std::vector<CRespawnInfo,std::allocator<CRespawnInfo> >::_Ucopy<std::vector<CRespawnInfo,std::allocator<CRespawnInfo> >::const_iterator>
_TEXT	ENDS
PUBLIC	??1logic_error@std@@UAE@XZ			; std::logic_error::~logic_error
PUBLIC	?what@logic_error@std@@UBEPBDXZ			; std::logic_error::what
PUBLIC	??_7logic_error@std@@6B@			; std::logic_error::`vftable'
PUBLIC	??_Glogic_error@std@@UAEPAXI@Z			; std::logic_error::`scalar deleting destructor'
EXTRN	??1exception@@UAE@XZ:NEAR			; exception::~exception
EXTRN	??_Elogic_error@std@@UAEPAXI@Z:NEAR		; std::logic_error::`vector deleting destructor'
;	COMDAT ??_7logic_error@std@@6B@
; File c:\program files\microsoft visual studio .net 2003\vc7\include\iosfwd
CONST	SEGMENT
??_7logic_error@std@@6B@ DD FLAT:??_Elogic_error@std@@UAEPAXI@Z ; std::logic_error::`vftable'
	DD	FLAT:?what@logic_error@std@@UBEPBDXZ
; Function compile flags: /Ogty
; File c:\program files\microsoft visual studio .net 2003\vc7\include\stdexcept
CONST	ENDS
;	COMDAT ??1logic_error@std@@UAE@XZ
_TEXT	SEGMENT
??1logic_error@std@@UAE@XZ PROC NEAR			; std::logic_error::~logic_error, COMDAT
; _this$ = ecx

; 23   : 		{}	// destroy the object

  00000	56		 push	 esi
  00001	8b f1		 mov	 esi, ecx
  00003	c7 06 00 00 00
	00		 mov	 DWORD PTR [esi], OFFSET FLAT:??_7logic_error@std@@6B@
  00009	83 7e 24 10	 cmp	 DWORD PTR [esi+36], 16	; 00000010H
  0000d	72 0c		 jb	 SHORT $L235042
  0000f	8b 46 10	 mov	 eax, DWORD PTR [esi+16]
  00012	50		 push	 eax
  00013	e8 00 00 00 00	 call	 ??3@YAXPAX@Z		; operator delete
  00018	83 c4 04	 add	 esp, 4
$L235042:
  0001b	33 c0		 xor	 eax, eax
  0001d	c7 46 24 0f 00
	00 00		 mov	 DWORD PTR [esi+36], 15	; 0000000fH
  00024	89 46 20	 mov	 DWORD PTR [esi+32], eax
  00027	88 46 10	 mov	 BYTE PTR [esi+16], al
  0002a	8b ce		 mov	 ecx, esi
  0002c	5e		 pop	 esi
  0002d	e9 00 00 00 00	 jmp	 ??1exception@@UAE@XZ	; exception::~exception
??1logic_error@std@@UAE@XZ ENDP				; std::logic_error::~logic_error
; Function compile flags: /Ogty
_TEXT	ENDS
;	COMDAT ?what@logic_error@std@@UBEPBDXZ
_TEXT	SEGMENT
?what@logic_error@std@@UBEPBDXZ PROC NEAR		; std::logic_error::what, COMDAT
; _this$ = ecx

; 27   : 		return (_Str.c_str());

  00000	83 79 24 10	 cmp	 DWORD PTR [ecx+36], 16	; 00000010H
  00004	72 04		 jb	 SHORT $L235075
  00006	8b 41 10	 mov	 eax, DWORD PTR [ecx+16]

; 28   : 		}

  00009	c3		 ret	 0

; 27   : 		return (_Str.c_str());

$L235075:
  0000a	8d 41 10	 lea	 eax, DWORD PTR [ecx+16]

; 28   : 		}

  0000d	c3		 ret	 0
?what@logic_error@std@@UBEPBDXZ ENDP			; std::logic_error::what
; Function compile flags: /Ogty
_TEXT	ENDS
;	COMDAT ??_Glogic_error@std@@UAEPAXI@Z
_TEXT	SEGMENT
___flags$ = 8						; size = 4
??_Glogic_error@std@@UAEPAXI@Z PROC NEAR		; std::logic_error::`scalar deleting destructor', COMDAT
; _this$ = ecx
  00000	56		 push	 esi
  00001	8b f1		 mov	 esi, ecx
  00003	e8 00 00 00 00	 call	 ??1logic_error@std@@UAE@XZ ; std::logic_error::~logic_error
  00008	f6 44 24 08 01	 test	 BYTE PTR ___flags$[esp], 1
  0000d	74 09		 je	 SHORT $L235082
  0000f	56		 push	 esi
  00010	e8 00 00 00 00	 call	 ??3@YAXPAX@Z		; operator delete
  00015	83 c4 04	 add	 esp, 4
$L235082:
  00018	8b c6		 mov	 eax, esi
  0001a	5e		 pop	 esi
  0001b	c2 04 00	 ret	 4
??_Glogic_error@std@@UAEPAXI@Z ENDP			; std::logic_error::`scalar deleting destructor'
_TEXT	ENDS
PUBLIC	?assign@?$basic_string@DU?$char_traits@D@std@@V?$allocator@D@2@@std@@QAEAAV12@ABV12@II@Z ; std::basic_string<char,std::char_traits<char>,std::allocator<char> >::assign
; Function compile flags: /Ogty
; File c:\program files\microsoft visual studio .net 2003\vc7\include\xstring
;	COMDAT ?assign@?$basic_string@DU?$char_traits@D@std@@V?$allocator@D@2@@std@@QAEAAV12@ABV12@II@Z
_TEXT	SEGMENT
__Right$ = 8						; size = 4
__Roff$ = 12						; size = 4
__Count$ = 16						; size = 4
?assign@?$basic_string@DU?$char_traits@D@std@@V?$allocator@D@2@@std@@QAEAAV12@ABV12@II@Z PROC NEAR ; std::basic_string<char,std::char_traits<char>,std::allocator<char> >::assign, COMDAT
; _this$ = ecx

; 590  : 		{	// assign _Right [_Roff, _Roff + _Count)

  00000	53		 push	 ebx
  00001	55		 push	 ebp
  00002	56		 push	 esi

; 591  : 		if (_Right.size() < _Roff)

  00003	8b 74 24 14	 mov	 esi, DWORD PTR __Roff$[esp+8]
  00007	57		 push	 edi
  00008	8b 7c 24 14	 mov	 edi, DWORD PTR __Right$[esp+12]
  0000c	39 77 14	 cmp	 DWORD PTR [edi+20], esi
  0000f	8b d9		 mov	 ebx, ecx
  00011	73 05		 jae	 SHORT $L220001

; 592  : 			_String_base::_Xran();	// _Roff off end

  00013	e8 00 00 00 00	 call	 ?_Xran@_String_base@std@@QBEXXZ ; std::_String_base::_Xran
$L220001:

; 593  : 		size_type _Num = _Right.size() - _Roff;

  00018	8b 6f 14	 mov	 ebp, DWORD PTR [edi+20]

; 594  : 		if (_Count < _Num)

  0001b	8b 44 24 1c	 mov	 eax, DWORD PTR __Count$[esp+12]
  0001f	2b ee		 sub	 ebp, esi
  00021	3b c5		 cmp	 eax, ebp
  00023	73 02		 jae	 SHORT $L220003

; 595  : 			_Num = _Count;	// trim _Num to size

  00025	8b e8		 mov	 ebp, eax
$L220003:

; 596  : 
; 597  : 		if (this == &_Right)

  00027	3b df		 cmp	 ebx, edi
  00029	75 1f		 jne	 SHORT $L220004

; 598  : 			erase((size_type)(_Roff + _Num)), erase(0, _Roff);	// substring

  0002b	6a ff		 push	 -1
  0002d	03 ee		 add	 ebp, esi
  0002f	55		 push	 ebp
  00030	8b cb		 mov	 ecx, ebx
  00032	e8 00 00 00 00	 call	 ?erase@?$basic_string@DU?$char_traits@D@std@@V?$allocator@D@2@@std@@QAEAAV12@II@Z ; std::basic_string<char,std::char_traits<char>,std::allocator<char> >::erase
  00037	56		 push	 esi
  00038	6a 00		 push	 0
  0003a	8b cb		 mov	 ecx, ebx
  0003c	e8 00 00 00 00	 call	 ?erase@?$basic_string@DU?$char_traits@D@std@@V?$allocator@D@2@@std@@QAEAAV12@II@Z ; std::basic_string<char,std::char_traits<char>,std::allocator<char> >::erase
  00041	5f		 pop	 edi
  00042	5e		 pop	 esi
  00043	5d		 pop	 ebp

; 603  : 			}
; 604  : 		return (*this);

  00044	8b c3		 mov	 eax, ebx
  00046	5b		 pop	 ebx

; 605  : 		}

  00047	c2 0c 00	 ret	 12			; 0000000cH
$L220004:

; 599  : 		else if (_Grow(_Num))

  0004a	83 fd fe	 cmp	 ebp, -2			; fffffffeH
  0004d	76 07		 jbe	 SHORT $L235191
  0004f	8b cb		 mov	 ecx, ebx
  00051	e8 00 00 00 00	 call	 ?_Xlen@_String_base@std@@QBEXXZ ; std::_String_base::_Xlen
$L235191:
  00056	8b 43 18	 mov	 eax, DWORD PTR [ebx+24]
  00059	3b c5		 cmp	 eax, ebp
  0005b	73 21		 jae	 SHORT $L235192
  0005d	8b 43 14	 mov	 eax, DWORD PTR [ebx+20]
  00060	50		 push	 eax
  00061	55		 push	 ebp
  00062	8b cb		 mov	 ecx, ebx
  00064	e8 00 00 00 00	 call	 ?_Copy@?$basic_string@DU?$char_traits@D@std@@V?$allocator@D@2@@std@@IAEXII@Z ; std::basic_string<char,std::char_traits<char>,std::allocator<char> >::_Copy
  00069	85 ed		 test	 ebp, ebp
$L235279:
  0006b	76 6d		 jbe	 SHORT $L235278

; 600  : 			{	// make room and assign new stuff
; 601  : 			_Traits::copy(_Myptr(), _Right._Myptr() + _Roff, _Num);

  0006d	8b 4f 18	 mov	 ecx, DWORD PTR [edi+24]
  00070	b8 10 00 00 00	 mov	 eax, 16			; 00000010H
  00075	3b c8		 cmp	 ecx, eax
  00077	72 2f		 jb	 SHORT $L235243
  00079	8b 57 04	 mov	 edx, DWORD PTR [edi+4]
  0007c	eb 2d		 jmp	 SHORT $L235244

; 599  : 		else if (_Grow(_Num))

$L235192:
  0007e	85 ed		 test	 ebp, ebp
  00080	75 e9		 jne	 SHORT $L235279
  00082	83 f8 10	 cmp	 eax, 16			; 00000010H
  00085	89 6b 14	 mov	 DWORD PTR [ebx+20], ebp
  00088	72 0f		 jb	 SHORT $L235235
  0008a	8b 43 04	 mov	 eax, DWORD PTR [ebx+4]
  0008d	5f		 pop	 edi
  0008e	5e		 pop	 esi
  0008f	c6 00 00	 mov	 BYTE PTR [eax], 0
  00092	5d		 pop	 ebp

; 603  : 			}
; 604  : 		return (*this);

  00093	8b c3		 mov	 eax, ebx
  00095	5b		 pop	 ebx

; 605  : 		}

  00096	c2 0c 00	 ret	 12			; 0000000cH

; 599  : 		else if (_Grow(_Num))

$L235235:
  00099	5f		 pop	 edi
  0009a	8d 43 04	 lea	 eax, DWORD PTR [ebx+4]
  0009d	5e		 pop	 esi
  0009e	c6 00 00	 mov	 BYTE PTR [eax], 0
  000a1	5d		 pop	 ebp

; 603  : 			}
; 604  : 		return (*this);

  000a2	8b c3		 mov	 eax, ebx
  000a4	5b		 pop	 ebx

; 605  : 		}

  000a5	c2 0c 00	 ret	 12			; 0000000cH

; 600  : 			{	// make room and assign new stuff
; 601  : 			_Traits::copy(_Myptr(), _Right._Myptr() + _Roff, _Num);

$L235243:
  000a8	8d 57 04	 lea	 edx, DWORD PTR [edi+4]
$L235244:
  000ab	39 43 18	 cmp	 DWORD PTR [ebx+24], eax
  000ae	8d 43 04	 lea	 eax, DWORD PTR [ebx+4]
  000b1	72 04		 jb	 SHORT $L235251
  000b3	8b 38		 mov	 edi, DWORD PTR [eax]
  000b5	eb 02		 jmp	 SHORT $L235252
$L235251:
  000b7	8b f8		 mov	 edi, eax
$L235252:
  000b9	03 f2		 add	 esi, edx
  000bb	8b cd		 mov	 ecx, ebp
  000bd	8b d1		 mov	 edx, ecx
  000bf	c1 e9 02	 shr	 ecx, 2
  000c2	f3 a5		 rep movsd
  000c4	8b ca		 mov	 ecx, edx
  000c6	83 e1 03	 and	 ecx, 3
  000c9	f3 a4		 rep movsb

; 602  : 			_Eos(_Num);

  000cb	83 7b 18 10	 cmp	 DWORD PTR [ebx+24], 16	; 00000010H
  000cf	89 6b 14	 mov	 DWORD PTR [ebx+20], ebp
  000d2	72 02		 jb	 SHORT $L235275
  000d4	8b 00		 mov	 eax, DWORD PTR [eax]
$L235275:
  000d6	c6 04 28 00	 mov	 BYTE PTR [eax+ebp], 0
$L235278:
  000da	5f		 pop	 edi
  000db	5e		 pop	 esi
  000dc	5d		 pop	 ebp

; 603  : 			}
; 604  : 		return (*this);

  000dd	8b c3		 mov	 eax, ebx
  000df	5b		 pop	 ebx

; 605  : 		}

  000e0	c2 0c 00	 ret	 12			; 0000000cH
?assign@?$basic_string@DU?$char_traits@D@std@@V?$allocator@D@2@@std@@QAEAAV12@ABV12@II@Z ENDP ; std::basic_string<char,std::char_traits<char>,std::allocator<char> >::assign
_TEXT	ENDS
PUBLIC	?assign@?$basic_string@DU?$char_traits@D@std@@V?$allocator@D@2@@std@@QAEAAV12@PBDI@Z ; std::basic_string<char,std::char_traits<char>,std::allocator<char> >::assign
; Function compile flags: /Ogty
;	COMDAT ?assign@?$basic_string@DU?$char_traits@D@std@@V?$allocator@D@2@@std@@QAEAAV12@PBDI@Z
_TEXT	SEGMENT
__Ptr$ = 8						; size = 4
__Num$ = 12						; size = 4
?assign@?$basic_string@DU?$char_traits@D@std@@V?$allocator@D@2@@std@@QAEAAV12@PBDI@Z PROC NEAR ; std::basic_string<char,std::char_traits<char>,std::allocator<char> >::assign, COMDAT
; _this$ = ecx

; 608  : 		{	// assign [_Ptr, _Ptr + _Num)

  00000	53		 push	 ebx
  00001	8b d9		 mov	 ebx, ecx

; 609  : 		if (_Inside(_Ptr))

  00003	8b 53 18	 mov	 edx, DWORD PTR [ebx+24]
  00006	83 fa 10	 cmp	 edx, 16			; 00000010H
  00009	56		 push	 esi
  0000a	57		 push	 edi
  0000b	72 05		 jb	 SHORT $L235305
  0000d	8b 43 04	 mov	 eax, DWORD PTR [ebx+4]
  00010	eb 03		 jmp	 SHORT $L235306
$L235305:
  00012	8d 43 04	 lea	 eax, DWORD PTR [ebx+4]
$L235306:
  00015	8b 74 24 10	 mov	 esi, DWORD PTR __Ptr$[esp+8]
  00019	3b f0		 cmp	 esi, eax
  0001b	72 34		 jb	 SHORT $L221367
  0001d	83 fa 10	 cmp	 edx, 16			; 00000010H
  00020	8d 43 04	 lea	 eax, DWORD PTR [ebx+4]
  00023	72 04		 jb	 SHORT $L235309
  00025	8b 08		 mov	 ecx, DWORD PTR [eax]
  00027	eb 02		 jmp	 SHORT $L235310
$L235309:
  00029	8b c8		 mov	 ecx, eax
$L235310:
  0002b	8b 7b 14	 mov	 edi, DWORD PTR [ebx+20]
  0002e	03 f9		 add	 edi, ecx
  00030	3b fe		 cmp	 edi, esi
  00032	76 1d		 jbe	 SHORT $L221367

; 610  : 			return (assign(*this, _Ptr - _Myptr(), _Num));	// substring

  00034	83 fa 10	 cmp	 edx, 16			; 00000010H
  00037	72 02		 jb	 SHORT $L235318
  00039	8b 00		 mov	 eax, DWORD PTR [eax]
$L235318:
  0003b	8b 4c 24 14	 mov	 ecx, DWORD PTR __Num$[esp+8]
  0003f	51		 push	 ecx
  00040	2b f0		 sub	 esi, eax
  00042	56		 push	 esi
  00043	53		 push	 ebx
  00044	8b cb		 mov	 ecx, ebx
  00046	e8 00 00 00 00	 call	 ?assign@?$basic_string@DU?$char_traits@D@std@@V?$allocator@D@2@@std@@QAEAAV12@ABV12@II@Z ; std::basic_string<char,std::char_traits<char>,std::allocator<char> >::assign
  0004b	5f		 pop	 edi
  0004c	5e		 pop	 esi
  0004d	5b		 pop	 ebx

; 618  : 		}

  0004e	c2 08 00	 ret	 8
$L221367:
  00051	55		 push	 ebp

; 611  : 
; 612  : 		if (_Grow(_Num))

  00052	8b 6c 24 18	 mov	 ebp, DWORD PTR __Num$[esp+12]
  00056	83 fd fe	 cmp	 ebp, -2			; fffffffeH
  00059	76 07		 jbe	 SHORT $L235416
  0005b	8b cb		 mov	 ecx, ebx
  0005d	e8 00 00 00 00	 call	 ?_Xlen@_String_base@std@@QBEXXZ ; std::_String_base::_Xlen
$L235416:
  00062	8b 43 18	 mov	 eax, DWORD PTR [ebx+24]
  00065	3b c5		 cmp	 eax, ebp
  00067	73 1b		 jae	 SHORT $L235417
  00069	8b 53 14	 mov	 edx, DWORD PTR [ebx+20]
  0006c	52		 push	 edx
  0006d	55		 push	 ebp
  0006e	8b cb		 mov	 ecx, ebx
  00070	e8 00 00 00 00	 call	 ?_Copy@?$basic_string@DU?$char_traits@D@std@@V?$allocator@D@2@@std@@IAEXII@Z ; std::basic_string<char,std::char_traits<char>,std::allocator<char> >::_Copy
  00075	85 ed		 test	 ebp, ebp
$L235497:
  00077	76 68		 jbe	 SHORT $L235494

; 613  : 			{	// make room and assign new stuff
; 614  : 			_Traits::copy(_Myptr(), _Ptr, _Num);

  00079	83 7b 18 10	 cmp	 DWORD PTR [ebx+24], 16	; 00000010H
  0007d	72 2f		 jb	 SHORT $L235469
  0007f	8b 7b 04	 mov	 edi, DWORD PTR [ebx+4]
  00082	eb 2d		 jmp	 SHORT $L235470

; 611  : 
; 612  : 		if (_Grow(_Num))

$L235417:
  00084	85 ed		 test	 ebp, ebp
  00086	75 ef		 jne	 SHORT $L235497
  00088	83 f8 10	 cmp	 eax, 16			; 00000010H
  0008b	89 6b 14	 mov	 DWORD PTR [ebx+20], ebp
  0008e	72 0f		 jb	 SHORT $L235460
  00090	8b 43 04	 mov	 eax, DWORD PTR [ebx+4]
  00093	5d		 pop	 ebp
  00094	5f		 pop	 edi
  00095	c6 00 00	 mov	 BYTE PTR [eax], 0
  00098	5e		 pop	 esi

; 616  : 			}
; 617  : 		return (*this);

  00099	8b c3		 mov	 eax, ebx
  0009b	5b		 pop	 ebx

; 618  : 		}

  0009c	c2 08 00	 ret	 8

; 611  : 
; 612  : 		if (_Grow(_Num))

$L235460:
  0009f	5d		 pop	 ebp
  000a0	8d 43 04	 lea	 eax, DWORD PTR [ebx+4]
  000a3	5f		 pop	 edi
  000a4	c6 00 00	 mov	 BYTE PTR [eax], 0
  000a7	5e		 pop	 esi

; 616  : 			}
; 617  : 		return (*this);

  000a8	8b c3		 mov	 eax, ebx
  000aa	5b		 pop	 ebx

; 618  : 		}

  000ab	c2 08 00	 ret	 8

; 613  : 			{	// make room and assign new stuff
; 614  : 			_Traits::copy(_Myptr(), _Ptr, _Num);

$L235469:
  000ae	8d 7b 04	 lea	 edi, DWORD PTR [ebx+4]
$L235470:
  000b1	8b cd		 mov	 ecx, ebp
  000b3	8b c1		 mov	 eax, ecx
  000b5	c1 e9 02	 shr	 ecx, 2
  000b8	f3 a5		 rep movsd
  000ba	8b c8		 mov	 ecx, eax
  000bc	83 e1 03	 and	 ecx, 3
  000bf	f3 a4		 rep movsb

; 615  : 			_Eos(_Num);

  000c1	83 7b 18 10	 cmp	 DWORD PTR [ebx+24], 16	; 00000010H
  000c5	89 6b 14	 mov	 DWORD PTR [ebx+20], ebp
  000c8	72 10		 jb	 SHORT $L235492
  000ca	8b 43 04	 mov	 eax, DWORD PTR [ebx+4]
  000cd	c6 04 28 00	 mov	 BYTE PTR [eax+ebp], 0
  000d1	5d		 pop	 ebp
  000d2	5f		 pop	 edi
  000d3	5e		 pop	 esi

; 616  : 			}
; 617  : 		return (*this);

  000d4	8b c3		 mov	 eax, ebx
  000d6	5b		 pop	 ebx

; 618  : 		}

  000d7	c2 08 00	 ret	 8

; 615  : 			_Eos(_Num);

$L235492:
  000da	8d 43 04	 lea	 eax, DWORD PTR [ebx+4]
  000dd	c6 04 28 00	 mov	 BYTE PTR [eax+ebp], 0
$L235494:
  000e1	5d		 pop	 ebp
  000e2	5f		 pop	 edi
  000e3	5e		 pop	 esi

; 616  : 			}
; 617  : 		return (*this);

  000e4	8b c3		 mov	 eax, ebx
  000e6	5b		 pop	 ebx

; 618  : 		}

  000e7	c2 08 00	 ret	 8
?assign@?$basic_string@DU?$char_traits@D@std@@V?$allocator@D@2@@std@@QAEAAV12@PBDI@Z ENDP ; std::basic_string<char,std::char_traits<char>,std::allocator<char> >::assign
_TEXT	ENDS
PUBLIC	??1?$vector@VCRespawnInfo@@V?$allocator@VCRespawnInfo@@@std@@@std@@QAE@XZ ; std::vector<CRespawnInfo,std::allocator<CRespawnInfo> >::~vector<CRespawnInfo,std::allocator<CRespawnInfo> >
; Function compile flags: /Ogty
; File c:\program files\microsoft visual studio .net 2003\vc7\include\vector
;	COMDAT ??1?$vector@VCRespawnInfo@@V?$allocator@VCRespawnInfo@@@std@@@std@@QAE@XZ
_TEXT	SEGMENT
??1?$vector@VCRespawnInfo@@V?$allocator@VCRespawnInfo@@@std@@@std@@QAE@XZ PROC NEAR ; std::vector<CRespawnInfo,std::allocator<CRespawnInfo> >::~vector<CRespawnInfo,std::allocator<CRespawnInfo> >, COMDAT
; _this$ = ecx

; 388  : 		_Tidy();

  00000	e9 00 00 00 00	 jmp	 ?_Tidy@?$vector@VCRespawnInfo@@V?$allocator@VCRespawnInfo@@@std@@@std@@IAEXXZ ; std::vector<CRespawnInfo,std::allocator<CRespawnInfo> >::_Tidy
??1?$vector@VCRespawnInfo@@V?$allocator@VCRespawnInfo@@@std@@@std@@QAE@XZ ENDP ; std::vector<CRespawnInfo,std::allocator<CRespawnInfo> >::~vector<CRespawnInfo,std::allocator<CRespawnInfo> >
_TEXT	ENDS
PUBLIC	?erase@?$vector@VCRespawnInfo@@V?$allocator@VCRespawnInfo@@@std@@@std@@QAE?AViterator@12@V312@@Z ; std::vector<CRespawnInfo,std::allocator<CRespawnInfo> >::erase
; Function compile flags: /Ogty
;	COMDAT ?erase@?$vector@VCRespawnInfo@@V?$allocator@VCRespawnInfo@@@std@@@std@@QAE?AViterator@12@V312@@Z
_TEXT	SEGMENT
___$ReturnUdt$ = 8					; size = 4
__Cat$235514 = 12					; size = 1
__Where$ = 12						; size = 4
?erase@?$vector@VCRespawnInfo@@V?$allocator@VCRespawnInfo@@@std@@@std@@QAE?AViterator@12@V312@@Z PROC NEAR ; std::vector<CRespawnInfo,std::allocator<CRespawnInfo> >::erase, COMDAT
; _this$ = ecx

; 724  : 		copy(_ITER_BASE(_Where) + 1, _Mylast, _ITER_BASE(_Where));

  00000	8b 44 24 08	 mov	 eax, DWORD PTR __Cat$235514[esp-4]
  00004	53		 push	 ebx
  00005	55		 push	 ebp
  00006	8b 6c 24 10	 mov	 ebp, DWORD PTR __Where$[esp+4]
  0000a	56		 push	 esi
  0000b	57		 push	 edi
  0000c	50		 push	 eax
  0000d	8b d9		 mov	 ebx, ecx
  0000f	8b 4b 08	 mov	 ecx, DWORD PTR [ebx+8]
  00012	55		 push	 ebp
  00013	51		 push	 ecx
  00014	8d 95 48 05 00
	00		 lea	 edx, DWORD PTR [ebp+1352]
  0001a	52		 push	 edx
  0001b	e8 00 00 00 00	 call	 ??$_Copy_opt@PAVCRespawnInfo@@PAV1@@std@@YAPAVCRespawnInfo@@PAV1@00U_Nonscalar_ptr_iterator_tag@0@@Z ; std::_Copy_opt<CRespawnInfo *,CRespawnInfo *>

; 725  : 		_Destroy(_Mylast - 1, _Mylast);

  00020	8b 7b 08	 mov	 edi, DWORD PTR [ebx+8]
  00023	8d b7 b8 fa ff
	ff		 lea	 esi, DWORD PTR [edi-1352]
  00029	83 c4 10	 add	 esp, 16			; 00000010H
  0002c	3b f7		 cmp	 esi, edi
  0002e	74 12		 je	 SHORT $L235576
$L235574:
  00030	8b 06		 mov	 eax, DWORD PTR [esi]
  00032	6a 00		 push	 0
  00034	8b ce		 mov	 ecx, esi
  00036	ff 10		 call	 DWORD PTR [eax]
  00038	81 c6 48 05 00
	00		 add	 esi, 1352		; 00000548H
  0003e	3b f7		 cmp	 esi, edi
  00040	75 ee		 jne	 SHORT $L235574
$L235576:

; 726  : 		--_Mylast;

  00042	81 43 08 b8 fa
	ff ff		 add	 DWORD PTR [ebx+8], -1352 ; fffffab8H

; 727  : 		return (_Where);

  00049	8b 44 24 14	 mov	 eax, DWORD PTR ___$ReturnUdt$[esp+12]
  0004d	5f		 pop	 edi
  0004e	5e		 pop	 esi
  0004f	89 28		 mov	 DWORD PTR [eax], ebp
  00051	5d		 pop	 ebp
  00052	5b		 pop	 ebx

; 728  : 		}

  00053	c2 08 00	 ret	 8
?erase@?$vector@VCRespawnInfo@@V?$allocator@VCRespawnInfo@@@std@@@std@@QAE?AViterator@12@V312@@Z ENDP ; std::vector<CRespawnInfo,std::allocator<CRespawnInfo> >::erase
_TEXT	ENDS
PUBLIC	?_Ufill@?$vector@VCRespawnInfo@@V?$allocator@VCRespawnInfo@@@std@@@std@@IAEPAVCRespawnInfo@@PAV3@IABV3@@Z ; std::vector<CRespawnInfo,std::allocator<CRespawnInfo> >::_Ufill
; Function compile flags: /Ogty
;	COMDAT ?_Ufill@?$vector@VCRespawnInfo@@V?$allocator@VCRespawnInfo@@@std@@@std@@IAEPAVCRespawnInfo@@PAV3@IABV3@@Z
_TEXT	SEGMENT
__Ptr$ = 8						; size = 4
__Count$ = 12						; size = 4
__Cat$235597 = 16					; size = 1
__Val$ = 16						; size = 4
?_Ufill@?$vector@VCRespawnInfo@@V?$allocator@VCRespawnInfo@@@std@@@std@@IAEPAVCRespawnInfo@@PAV3@IABV3@@Z PROC NEAR ; std::vector<CRespawnInfo,std::allocator<CRespawnInfo> >::_Ufill, COMDAT
; _this$ = ecx

; 878  : 		_Uninitialized_fill_n(_Ptr, _Count, _Val, this->_Alval);

  00000	8b 44 24 0c	 mov	 eax, DWORD PTR __Cat$235597[esp-4]
  00004	56		 push	 esi
  00005	8b 74 24 0c	 mov	 esi, DWORD PTR __Count$[esp]
  00009	57		 push	 edi
  0000a	8b 7c 24 0c	 mov	 edi, DWORD PTR __Ptr$[esp+4]
  0000e	50		 push	 eax
  0000f	51		 push	 ecx
  00010	8b 4c 24 1c	 mov	 ecx, DWORD PTR __Val$[esp+12]
  00014	51		 push	 ecx
  00015	56		 push	 esi
  00016	57		 push	 edi
  00017	e8 00 00 00 00	 call	 ??$_Uninit_fill_n@PAVCRespawnInfo@@IV1@V?$allocator@VCRespawnInfo@@@std@@@std@@YAXPAVCRespawnInfo@@IABV1@AAV?$allocator@VCRespawnInfo@@@0@U_Nonscalar_ptr_iterator_tag@0@@Z ; std::_Uninit_fill_n<CRespawnInfo *,unsigned int,CRespawnInfo,std::allocator<CRespawnInfo> >

; 879  : 		return (_Ptr + _Count);

  0001c	8b c6		 mov	 eax, esi
  0001e	69 c0 48 05 00
	00		 imul	 eax, 1352		; 00000548H
  00024	83 c4 14	 add	 esp, 20			; 00000014H
  00027	03 c7		 add	 eax, edi
  00029	5f		 pop	 edi
  0002a	5e		 pop	 esi

; 880  : 		}

  0002b	c2 0c 00	 ret	 12			; 0000000cH
?_Ufill@?$vector@VCRespawnInfo@@V?$allocator@VCRespawnInfo@@@std@@@std@@IAEPAVCRespawnInfo@@PAV3@IABV3@@Z ENDP ; std::vector<CRespawnInfo,std::allocator<CRespawnInfo> >::_Ufill
_TEXT	ENDS
PUBLIC	??0?$basic_string@DU?$char_traits@D@std@@V?$allocator@D@2@@std@@QAE@ABV01@@Z ; std::basic_string<char,std::char_traits<char>,std::allocator<char> >::basic_string<char,std::char_traits<char>,std::allocator<char> >
; Function compile flags: /Ogty
; File c:\program files\microsoft visual studio .net 2003\vc7\include\xstring
;	COMDAT ??0?$basic_string@DU?$char_traits@D@std@@V?$allocator@D@2@@std@@QAE@ABV01@@Z
_TEXT	SEGMENT
__Right$ = 8						; size = 4
??0?$basic_string@DU?$char_traits@D@std@@V?$allocator@D@2@@std@@QAE@ABV01@@Z PROC NEAR ; std::basic_string<char,std::char_traits<char>,std::allocator<char> >::basic_string<char,std::char_traits<char>,std::allocator<char> >, COMDAT
; _this$ = ecx

; 323  : 		{	// construct by copying _Right

  00000	56		 push	 esi

; 324  : 		_Tidy();

  00001	33 c0		 xor	 eax, eax
  00003	8b f1		 mov	 esi, ecx

; 325  : 		assign(_Right, 0, npos);

  00005	6a ff		 push	 -1
  00007	89 46 14	 mov	 DWORD PTR [esi+20], eax
  0000a	c7 46 18 0f 00
	00 00		 mov	 DWORD PTR [esi+24], 15	; 0000000fH
  00011	50		 push	 eax
  00012	88 46 04	 mov	 BYTE PTR [esi+4], al
  00015	8b 44 24 10	 mov	 eax, DWORD PTR __Right$[esp+8]
  00019	50		 push	 eax
  0001a	e8 00 00 00 00	 call	 ?assign@?$basic_string@DU?$char_traits@D@std@@V?$allocator@D@2@@std@@QAEAAV12@ABV12@II@Z ; std::basic_string<char,std::char_traits<char>,std::allocator<char> >::assign

; 326  : 		}

  0001f	8b c6		 mov	 eax, esi
  00021	5e		 pop	 esi
  00022	c2 04 00	 ret	 4
??0?$basic_string@DU?$char_traits@D@std@@V?$allocator@D@2@@std@@QAE@ABV01@@Z ENDP ; std::basic_string<char,std::char_traits<char>,std::allocator<char> >::basic_string<char,std::char_traits<char>,std::allocator<char> >
_TEXT	ENDS
PUBLIC	?assign@?$basic_string@DU?$char_traits@D@std@@V?$allocator@D@2@@std@@QAEAAV12@PBD@Z ; std::basic_string<char,std::char_traits<char>,std::allocator<char> >::assign
; Function compile flags: /Ogty
;	COMDAT ?assign@?$basic_string@DU?$char_traits@D@std@@V?$allocator@D@2@@std@@QAEAAV12@PBD@Z
_TEXT	SEGMENT
__Ptr$ = 8						; size = 4
?assign@?$basic_string@DU?$char_traits@D@std@@V?$allocator@D@2@@std@@QAEAAV12@PBD@Z PROC NEAR ; std::basic_string<char,std::char_traits<char>,std::allocator<char> >::assign, COMDAT
; _this$ = ecx

; 621  : 		{	// assign [_Ptr, <null>)

  00000	56		 push	 esi

; 622  : 		return (assign(_Ptr, _Traits::length(_Ptr)));

  00001	8b 74 24 08	 mov	 esi, DWORD PTR __Ptr$[esp]
  00005	8b c6		 mov	 eax, esi
  00007	57		 push	 edi
  00008	8d 78 01	 lea	 edi, DWORD PTR [eax+1]
  0000b	eb 03 8d 49 00	 npad	 5
$L235673:
  00010	8a 10		 mov	 dl, BYTE PTR [eax]
  00012	40		 inc	 eax
  00013	84 d2		 test	 dl, dl
  00015	75 f9		 jne	 SHORT $L235673
  00017	2b c7		 sub	 eax, edi
  00019	50		 push	 eax
  0001a	56		 push	 esi
  0001b	e8 00 00 00 00	 call	 ?assign@?$basic_string@DU?$char_traits@D@std@@V?$allocator@D@2@@std@@QAEAAV12@PBDI@Z ; std::basic_string<char,std::char_traits<char>,std::allocator<char> >::assign
  00020	5f		 pop	 edi
  00021	5e		 pop	 esi

; 623  : 		}

  00022	c2 04 00	 ret	 4
?assign@?$basic_string@DU?$char_traits@D@std@@V?$allocator@D@2@@std@@QAEAAV12@PBD@Z ENDP ; std::basic_string<char,std::char_traits<char>,std::allocator<char> >::assign
_TEXT	ENDS
PUBLIC	??1CRespawner@@UAE@XZ				; CRespawner::~CRespawner
PUBLIC	??_7CRespawner@@6B@				; CRespawner::`vftable'
PUBLIC	??_GCRespawner@@UAEPAXI@Z			; CRespawner::`scalar deleting destructor'
EXTRN	??_M@YGXPAXIHP6EX0@Z@Z:NEAR			; `eh vector destructor iterator'
EXTRN	??_ECRespawner@@UAEPAXI@Z:NEAR			; CRespawner::`vector deleting destructor'
;	COMDAT ??_7CRespawner@@6B@
; File c:\documents and settings\test\mes documents\source\virtuos_v17\build\program\_common\respawn.cpp
CONST	SEGMENT
??_7CRespawner@@6B@ DD FLAT:??_ECRespawner@@UAEPAXI@Z	; CRespawner::`vftable'
; Function compile flags: /Ogty
CONST	ENDS
;	COMDAT ??1CRespawner@@UAE@XZ
_TEXT	SEGMENT
??1CRespawner@@UAE@XZ PROC NEAR				; CRespawner::~CRespawner, COMDAT
; _this$ = ecx

; 235  : }

  00000	68 00 00 00 00	 push	 OFFSET FLAT:??1?$vector@VCRespawnInfo@@V?$allocator@VCRespawnInfo@@@std@@@std@@QAE@XZ ; std::vector<CRespawnInfo,std::allocator<CRespawnInfo> >::~vector<CRespawnInfo,std::allocator<CRespawnInfo> >
  00005	6a 03		 push	 3
  00007	c7 01 00 00 00
	00		 mov	 DWORD PTR [ecx], OFFSET FLAT:??_7CRespawner@@6B@
  0000d	6a 10		 push	 16			; 00000010H
  0000f	83 c1 04	 add	 ecx, 4
  00012	51		 push	 ecx
  00013	e8 00 00 00 00	 call	 ??_M@YGXPAXIHP6EX0@Z@Z
  00018	c3		 ret	 0
??1CRespawner@@UAE@XZ ENDP				; CRespawner::~CRespawner
_TEXT	ENDS
PUBLIC	?DoRemove@CRespawner@@AAEHHH@Z			; CRespawner::DoRemove
; Function compile flags: /Ogty
;	COMDAT ?DoRemove@CRespawner@@AAEHHH@Z
_TEXT	SEGMENT
$T235682 = 8						; size = 4
_nRespawnNo$ = 8					; size = 4
_nType$ = 12						; size = 4
?DoRemove@CRespawner@@AAEHHH@Z PROC NEAR		; CRespawner::DoRemove, COMDAT
; _this$ = ecx

; 263  : {

  00000	57		 push	 edi

; 264  : 	if( nRespawnNo < 0 )	

  00001	8b 7c 24 08	 mov	 edi, DWORD PTR _nRespawnNo$[esp]

; 265  : 		return NULL;

  00005	33 c0		 xor	 eax, eax
  00007	85 ff		 test	 edi, edi
  00009	7c 3f		 jl	 SHORT $L228533

; 266  : 	BOOL bResult = FALSE;
; 267  : 	if( nType == RESPAWNTYPE_REGION )

  0000b	8b 54 24 0c	 mov	 edx, DWORD PTR _nType$[esp]
  0000f	85 d2		 test	 edx, edx
  00011	75 14		 jne	 SHORT $L228536

; 268  : 	{
; 269  : 		Error( "CRespawner::Remove RESPAWN_REGION     : %d\n", nRespawnNo );

  00013	57		 push	 edi
  00014	68 00 00 00 00	 push	 OFFSET FLAT:??_C@_0EC@OCJMFDAP@CRespawner?3?3Remove?$LP?$KB?$LM?$KN?5RESPAWN_R@
  00019	e8 00 00 00 00	 call	 ?Error@@YAPBDPBDZZ	; Error
  0001e	83 c4 08	 add	 esp, 8

; 270  : 		return FALSE;

  00021	33 c0		 xor	 eax, eax
  00023	5f		 pop	 edi

; 291  : }

  00024	c2 08 00	 ret	 8
$L228536:

; 271  : 	}
; 272  : 	else
; 273  : 	if( nType == RESPAWNTYPE_SCRIPT )

  00027	83 fa 01	 cmp	 edx, 1
  0002a	75 3a		 jne	 SHORT $L228539

; 274  : 	{
; 275  : 		for( VRI::iterator i = m_vRespawnInfo[nType].begin(); i != m_vRespawnInfo[nType].end(); ++i )

  0002c	8b 51 18	 mov	 edx, DWORD PTR [ecx+24]
  0002f	56		 push	 esi

; 289  : 	}
; 290  : 	return bResult;

  00030	8b 71 1c	 mov	 esi, DWORD PTR [ecx+28]
  00033	3b d6		 cmp	 edx, esi
  00035	74 12		 je	 SHORT $L235738

; 274  : 	{
; 275  : 		for( VRI::iterator i = m_vRespawnInfo[nType].begin(); i != m_vRespawnInfo[nType].end(); ++i )

$L235701:

; 276  : 		{
; 277  : 			if( ( *i ).m_nGMIndex == nRespawnNo )

  00037	39 ba 14 02 00
	00		 cmp	 DWORD PTR [edx+532], edi
  0003d	74 0f		 je	 SHORT $L235735
  0003f	81 c2 48 05 00
	00		 add	 edx, 1352		; 00000548H
  00045	3b d6		 cmp	 edx, esi
  00047	75 ee		 jne	 SHORT $L235701
$L235738:
  00049	5e		 pop	 esi
$L228533:
  0004a	5f		 pop	 edi

; 291  : }

  0004b	c2 08 00	 ret	 8
$L235735:

; 278  : 			{
; 279  : 				m_vRespawnInfo[nType].erase( i );

  0004e	52		 push	 edx
  0004f	8d 44 24 10	 lea	 eax, DWORD PTR $T235682[esp+8]
  00053	50		 push	 eax
  00054	83 c1 14	 add	 ecx, 20			; 00000014H
  00057	e8 00 00 00 00	 call	 ?erase@?$vector@VCRespawnInfo@@V?$allocator@VCRespawnInfo@@@std@@@std@@QAE?AViterator@12@V312@@Z ; std::vector<CRespawnInfo,std::allocator<CRespawnInfo> >::erase
  0005c	5e		 pop	 esi

; 280  : 				bResult = TRUE;

  0005d	b8 01 00 00 00	 mov	 eax, 1
  00062	5f		 pop	 edi

; 291  : }

  00063	c2 08 00	 ret	 8
$L228539:

; 281  : 				break;
; 282  : 			}
; 283  : 		}
; 284  : 	}
; 285  : 	else
; 286  : 	if( nType == RESPAWNTYPE_BACKEND )

  00066	83 fa 02	 cmp	 edx, 2
  00069	75 df		 jne	 SHORT $L228533

; 287  : 	{
; 288  : 		return TRUE;

  0006b	b8 01 00 00 00	 mov	 eax, 1
  00070	5f		 pop	 edi

; 291  : }

  00071	c2 08 00	 ret	 8
?DoRemove@CRespawner@@AAEHHH@Z ENDP			; CRespawner::DoRemove
_TEXT	ENDS
PUBLIC	?Spawn@CRespawner@@QAEKPAVCWorld@@H@Z		; CRespawner::Spawn
PUBLIC	??_C@_0CA@NLFIDABF@CRespawner?3?3Spawn?$CI?$CJ?7?1?1?50?5index?6?$AA@ ; `string'
PUBLIC	??_C@_0BL@ECDHPEEF@?$CFd?5item?5property?5not?5found?$AA@ ; `string'
PUBLIC	??_C@_0O@NBAJGPNK@SPAWN?3?5?$CFd?0?5?$CFd?$AA@	; `string'
PUBLIC	__real@41200000
PUBLIC	__real@3f800000
PUBLIC	__real@3c23d70a
PUBLIC	__real@00000000
EXTRN	__imp__OutputDebugStringA@4:NEAR
EXTRN	?AddObj@CWorld@@QAEHPAVCObj@@HH@Z:NEAR		; CWorld::AddObj
EXTRN	?GetUnderHeight@CWorld@@QAEMABUD3DXVECTOR3@@@Z:NEAR ; CWorld::GetUnderHeight
EXTRN	?GetLandHeight@CWorld@@QAEMMM@Z:NEAR		; CWorld::GetLandHeight
EXTRN	?WriteLog@@YAXPBDZZ:NEAR			; WriteLog
EXTRN	?SetPos@CObj@@QAEXABUD3DXVECTOR3@@@Z:NEAR	; CObj::SetPos
EXTRN	?SetAngle@CObj@@QAEXM@Z:NEAR			; CObj::SetAngle
EXTRN	_sprintf:NEAR
EXTRN	__imp__InterlockedIncrement@4:NEAR
EXTRN	___security_cookie:DWORD
EXTRN	@__security_check_cookie@4:NEAR
EXTRN	?CreateObj@@YAPAVCObj@@PAUIDirect3DDevice9@@KKH@Z:NEAR ; CreateObj
EXTRN	?SetSerialNumber@CItemBase@@QAEXXZ:NEAR		; CItemBase::SetSerialNumber
EXTRN	?GetState@CFlyffEvent@@QAEEH@Z:NEAR		; CFlyffEvent::GetState
EXTRN	??0CItemElem@@QAE@XZ:NEAR			; CItemElem::CItemElem
EXTRN	?g_GameTimer@@3VCGameTimer@@A:BYTE		; g_GameTimer
EXTRN	?g_eLocal@@3VCFlyffEvent@@A:BYTE		; g_eLocal
;	COMDAT xdata$x
; File c:\documents and settings\test\mes documents\source\virtuos_v17\build\program\_common\obj.h
xdata$x	SEGMENT
$T236021 DD	0ffffffffH
	DD	FLAT:$L235748
$T235985 DD	019930520H
	DD	01H
	DD	FLAT:$T236021
	DD	2 DUP(00H)
	DD	2 DUP(00H)
xdata$x	ENDS
;	COMDAT __real@00000000
CONST	SEGMENT
__real@00000000 DD 000000000r			; 0
CONST	ENDS
;	COMDAT ??_C@_0CA@NLFIDABF@CRespawner?3?3Spawn?$CI?$CJ?7?1?1?50?5index?6?$AA@
CONST	SEGMENT
??_C@_0CA@NLFIDABF@CRespawner?3?3Spawn?$CI?$CJ?7?1?1?50?5index?6?$AA@ DB 'C'
	DB	'Respawner::Spawn()', 09H, '// 0 index', 0aH, 00H ; `string'
CONST	ENDS
;	COMDAT ??_C@_0BL@ECDHPEEF@?$CFd?5item?5property?5not?5found?$AA@
CONST	SEGMENT
??_C@_0BL@ECDHPEEF@?$CFd?5item?5property?5not?5found?$AA@ DB '%d item pro'
	DB	'perty not found', 00H			; `string'
CONST	ENDS
;	COMDAT ??_C@_0O@NBAJGPNK@SPAWN?3?5?$CFd?0?5?$CFd?$AA@
CONST	SEGMENT
??_C@_0O@NBAJGPNK@SPAWN?3?5?$CFd?0?5?$CFd?$AA@ DB 'SPAWN: %d, %d', 00H ; `string'
CONST	ENDS
;	COMDAT __real@41200000
CONST	SEGMENT
__real@41200000 DD 041200000r			; 10
CONST	ENDS
;	COMDAT __real@3f800000
CONST	SEGMENT
__real@3f800000 DD 03f800000r			; 1
CONST	ENDS
;	COMDAT __real@3c23d70a
CONST	SEGMENT
__real@3c23d70a DD 03c23d70ar			; 0.01
; Function compile flags: /Ogty
; File c:\documents and settings\test\mes documents\source\virtuos_v17\build\program\_common\respawn.cpp
CONST	ENDS
;	COMDAT ?Spawn@CRespawner@@QAEKPAVCWorld@@H@Z
_TEXT	SEGMENT
tv1383 = -192						; size = 4
tv1379 = -192						; size = 4
tv1375 = -192						; size = 4
tv1152 = -192						; size = 4
tv549 = -192						; size = 4
tv1329 = -188						; size = 4
$T235888 = -188						; size = 4
$T235745 = -188						; size = 4
tv1271 = -184						; size = 4
_pObj$ = -184						; size = 4
tv1450 = -180						; size = 4
_v$ = -176						; size = 12
_i$228628 = -164					; size = 4
_nSize$228627 = -160					; size = 4
_nType$228623 = -156					; size = 4
_uRespawned$ = -152					; size = 4
$T235983 = -148						; size = 4
_dwFlying$ = -144					; size = 4
$T235982 = -140						; size = 4
_pMoverProp$ = -136					; size = 4
tv643 = -132						; size = 4
_lpOutputString$228680 = -128				; size = 100
__$ArrayPad$ = -20					; size = 4
__$EHRec$ = -12						; size = 12
__$ReturnAddr$ = 4					; size = 4
_pWorld$ = 8						; size = 4
_nLayer$ = 12						; size = 4
?Spawn@CRespawner@@QAEKPAVCWorld@@H@Z PROC NEAR		; CRespawner::Spawn, COMDAT
; _this$ = ecx

; 377  : {

  00000	55		 push	 ebp
  00001	8b ec		 mov	 ebp, esp
  00003	83 e4 f8	 and	 esp, -8			; fffffff8H
  00006	6a ff		 push	 -1
  00008	68 00 00 00 00	 push	 __ehhandler$?Spawn@CRespawner@@QAEKPAVCWorld@@H@Z
  0000d	64 a1 00 00 00
	00		 mov	 eax, DWORD PTR fs:__except_list
  00013	50		 push	 eax
  00014	64 89 25 00 00
	00 00		 mov	 DWORD PTR fs:__except_list, esp
  0001b	81 ec b8 00 00
	00		 sub	 esp, 184		; 000000b8H
  00021	a1 00 00 00 00	 mov	 eax, DWORD PTR ___security_cookie
  00026	53		 push	 ebx
  00027	33 c5		 xor	 eax, ebp
  00029	56		 push	 esi
  0002a	89 84 24 b8 00
	00 00		 mov	 DWORD PTR __$ArrayPad$[esp+204], eax

; 383  : 
; 384  : 	ASSERT( pWorld );
; 385  : 
; 386  : 	CRespawnInfo*	pi;
; 387  : 	short			cb;
; 388  : 	CObj*			pObj;
; 389  : 	D3DXVECTOR3		v;
; 390  : 	u_long			uRespawned	= 0;

  00031	8b 45 08	 mov	 eax, DWORD PTR _pWorld$[ebp]
  00034	57		 push	 edi
  00035	89 4c 24 44	 mov	 DWORD PTR $T235982[esp+208], ecx
  00039	6a 0a		 push	 10			; 0000000aH
  0003b	b9 00 00 00 00	 mov	 ecx, OFFSET FLAT:?g_eLocal@@3VCFlyffEvent@@A
  00040	89 44 24 40	 mov	 DWORD PTR $T235983[esp+212], eax
  00044	e8 00 00 00 00	 call	 ?GetState@CFlyffEvent@@QAEEH@Z ; CFlyffEvent::GetState
  00049	84 c0		 test	 al, al
  0004b	75 07		 jne	 SHORT $L228614

; 378  : #if defined(__CLIENT)
; 379  : 	return 0;
; 380  : #else
; 381  : 	if( g_eLocal.GetState( EVE_RESPAWN ) == 0 )
; 382  : 		return 0;

  0004d	33 c0		 xor	 eax, eax
  0004f	e9 e7 06 00 00	 jmp	 $L228613
$L228614:

; 383  : 
; 384  : 	ASSERT( pWorld );
; 385  : 
; 386  : 	CRespawnInfo*	pi;
; 387  : 	short			cb;
; 388  : 	CObj*			pObj;
; 389  : 	D3DXVECTOR3		v;
; 390  : 	u_long			uRespawned	= 0;

  00054	33 f6		 xor	 esi, esi
  00056	89 74 24 38	 mov	 DWORD PTR _uRespawned$[esp+208], esi

; 391  : #ifndef __RES0807
; 392  : 	int				nAttr, nCheckAttr;
; 393  : 	int				nRetry;
; 394  : #endif	// __RES0807
; 395  : 	MoverProp*		pMoverProp;
; 396  : 	DWORD			dwFlying;
; 397  : 
; 398  : 	for( int nType = 0; nType < 3; nType++ )

  0005a	89 74 24 34	 mov	 DWORD PTR _nType$228623[esp+208], esi
  0005e	8b ff		 npad	 2
$L228624:

; 399  : 	{
; 400  : 		int nSize	= m_vRespawnInfo[nType].size();

  00060	8b 54 24 44	 mov	 edx, DWORD PTR $T235982[esp+208]
  00064	8b ce		 mov	 ecx, esi
  00066	c1 e1 04	 shl	 ecx, 4
  00069	8b 44 11 08	 mov	 eax, DWORD PTR [ecx+edx+8]
  0006d	03 ca		 add	 ecx, edx
  0006f	85 c0		 test	 eax, eax
  00071	89 4c 24 4c	 mov	 DWORD PTR tv643[esp+208], ecx
  00075	74 16		 je	 SHORT $L236019
$L235756:
  00077	8b 49 0c	 mov	 ecx, DWORD PTR [ecx+12]
  0007a	2b c8		 sub	 ecx, eax
  0007c	b8 eb 5d f2 60	 mov	 eax, 1626496491		; 60f25debH
  00081	f7 e9		 imul	 ecx
  00083	c1 fa 09	 sar	 edx, 9
  00086	8b c2		 mov	 eax, edx
  00088	c1 e8 1f	 shr	 eax, 31			; 0000001fH
  0008b	03 c2		 add	 eax, edx
$L236019:

; 401  : 		for( int i = 0; i < nSize; i++ )			// 04.10.11 - 480  .

  0008d	85 c0		 test	 eax, eax
  0008f	89 44 24 30	 mov	 DWORD PTR _nSize$228627[esp+208], eax
  00093	c7 44 24 2c 00
	00 00 00	 mov	 DWORD PTR _i$228628[esp+208], 0
  0009b	0f 8e 88 06 00
	00		 jle	 $L228625
  000a1	c7 44 24 1c 00
	00 00 00	 mov	 DWORD PTR tv1450[esp+208], 0
  000a9	8d a4 24 00 00
	00 00		 npad	 7
$L228629:

; 402  : 		{
; 403  : 			pi	= &m_vRespawnInfo[nType][i];

  000b0	8b 44 24 4c	 mov	 eax, DWORD PTR tv643[esp+208]
  000b4	8b 40 08	 mov	 eax, DWORD PTR [eax+8]
  000b7	8b 4c 24 1c	 mov	 ecx, DWORD PTR tv1450[esp+208]
  000bb	8d 1c 01	 lea	 ebx, DWORD PTR [ecx+eax]

; 404  : 
; 405  : 			if( pi->m_dwIndex == 0 )

  000be	8b 43 08	 mov	 eax, DWORD PTR [ebx+8]
  000c1	85 c0		 test	 eax, eax
  000c3	0f 84 39 06 00
	00		 je	 $L228630

; 406  : 				continue;
; 407  : 
; 408  : 			//   ,   ?
; 409  : 			if( pi->m_bRemove )

  000c9	8b 43 3c	 mov	 eax, DWORD PTR [ebx+60]
  000cc	85 c0		 test	 eax, eax
  000ce	74 41		 je	 SHORT $L228635

; 410  : 			{
; 411  : 				if( pi->m_cb == 0 )

  000d0	8b 43 0c	 mov	 eax, DWORD PTR [ebx+12]
  000d3	85 c0		 test	 eax, eax
  000d5	75 3a		 jne	 SHORT $L228635

; 412  : 				{
; 413  : 					if( DoRemove( pi->m_nGMIndex, nType ) )

  000d7	8b 93 14 02 00
	00		 mov	 edx, DWORD PTR [ebx+532]
  000dd	8b 4c 24 44	 mov	 ecx, DWORD PTR $T235982[esp+208]
  000e1	56		 push	 esi
  000e2	52		 push	 edx
  000e3	e8 00 00 00 00	 call	 ?DoRemove@CRespawner@@AAEHHH@Z ; CRespawner::DoRemove
  000e8	85 c0		 test	 eax, eax
  000ea	74 25		 je	 SHORT $L228635

; 414  : 					{
; 415  : 						i--; 

  000ec	8b 54 24 2c	 mov	 edx, DWORD PTR _i$228628[esp+208]
  000f0	8b 4c 24 1c	 mov	 ecx, DWORD PTR tv1450[esp+208]

; 416  : 						nSize--;

  000f4	8b 44 24 30	 mov	 eax, DWORD PTR _nSize$228627[esp+208]
  000f8	4a		 dec	 edx
  000f9	81 e9 48 05 00
	00		 sub	 ecx, 1352		; 00000548H
  000ff	48		 dec	 eax
  00100	89 54 24 2c	 mov	 DWORD PTR _i$228628[esp+208], edx
  00104	89 4c 24 1c	 mov	 DWORD PTR tv1450[esp+208], ecx
  00108	89 44 24 30	 mov	 DWORD PTR _nSize$228627[esp+208], eax

; 417  : 						continue;

  0010c	e9 f1 05 00 00	 jmp	 $L228630
$L228635:

; 418  : 					}
; 419  : 				}
; 420  : 			}
; 421  : 
; 422  : 			int nDay  = g_GameTimer.m_nDay ;
; 423  : 			int nHour = g_GameTimer.m_nHour;
; 424  : 
; 425  : 			if( pi->m_nDayMin < pi->m_nDayMax )

  00111	8b 43 48	 mov	 eax, DWORD PTR [ebx+72]
  00114	8b 4b 4c	 mov	 ecx, DWORD PTR [ebx+76]
  00117	3b c1		 cmp	 eax, ecx

; 426  : 			{
; 427  : 				if( nDay < pi->m_nDayMin || nDay > pi->m_nDayMax )

  00119	8b 15 20 00 00
	00		 mov	 edx, DWORD PTR ?g_GameTimer@@3VCGameTimer@@A+32
  0011f	7d 11		 jge	 SHORT $L228638
  00121	3b d0		 cmp	 edx, eax
  00123	0f 8c d9 05 00
	00		 jl	 $L228630
  00129	3b d1		 cmp	 edx, ecx
  0012b	7e 11		 jle	 SHORT $L228642

; 428  : 					continue;

  0012d	e9 d0 05 00 00	 jmp	 $L228630
$L228638:

; 429  : 			}
; 430  : 			else
; 431  : 			{
; 432  : 				if( nDay < pi->m_nDayMin && nDay > pi->m_nDayMax )

  00132	3b d0		 cmp	 edx, eax
  00134	7d 08		 jge	 SHORT $L228642
  00136	3b d1		 cmp	 edx, ecx
  00138	0f 8f c4 05 00
	00		 jg	 $L228630
$L228642:

; 433  : 					continue;
; 434  : 			}
; 435  : 			if( pi->m_nHourMin < pi->m_nHourMax )

  0013e	8b 43 50	 mov	 eax, DWORD PTR [ebx+80]
  00141	8b 4b 54	 mov	 ecx, DWORD PTR [ebx+84]
  00144	3b c1		 cmp	 eax, ecx

; 436  : 			{
; 437  : 				if( nHour < pi->m_nHourMin || nHour > pi->m_nHourMax )

  00146	8b 15 1c 00 00
	00		 mov	 edx, DWORD PTR ?g_GameTimer@@3VCGameTimer@@A+28
  0014c	7d 11		 jge	 SHORT $L228643
  0014e	3b d0		 cmp	 edx, eax
  00150	0f 8c ac 05 00
	00		 jl	 $L228630
  00156	3b d1		 cmp	 edx, ecx
  00158	7e 11		 jle	 SHORT $L228647

; 438  : 					continue;

  0015a	e9 a3 05 00 00	 jmp	 $L228630
$L228643:

; 439  : 			}
; 440  : 			else
; 441  : 			{
; 442  : 				if( nHour < pi->m_nHourMin && nHour > pi->m_nHourMax )

  0015f	3b d0		 cmp	 edx, eax
  00161	7d 08		 jge	 SHORT $L228647
  00163	3b d1		 cmp	 edx, ecx
  00165	0f 8f 97 05 00
	00		 jg	 $L228630
$L228647:

; 443  : 					continue;
; 444  : 			}
; 445  : 
; 446  : 			pi->m_cbTime--;									//     

  0016b	66 ff 4b 32	 dec	 WORD PTR [ebx+50]

; 447  : 			if( pi->m_cbTime < 0 )							// 0   

  0016f	66 83 7b 32 00	 cmp	 WORD PTR [ebx+50], 0
  00174	0f 8d 88 05 00
	00		 jge	 $L228630

; 448  : 			{
; 449  : 				short nTime = (short)( ( pi->m_uTime * xRandom( 50, 150 ) ) / 100 );

  0017a	68 96 00 00 00	 push	 150			; 00000096H
  0017f	6a 32		 push	 50			; 00000032H
  00181	e8 00 00 00 00	 call	 ?xRandom@@YAKKK@Z	; xRandom
  00186	0f b7 53 30	 movzx	 edx, WORD PTR [ebx+48]
  0018a	8b c8		 mov	 ecx, eax
  0018c	0f af ca	 imul	 ecx, edx
  0018f	b8 1f 85 eb 51	 mov	 eax, 1374389535		; 51eb851fH
  00194	f7 e1		 mul	 ecx

; 450  : 			#ifdef __S1108_BACK_END_SYSTEM
; 451  : 				cb = 0;
; 452  : 				if( pi->m_nGMIndex != 0 )

  00196	8b 83 14 02 00
	00		 mov	 eax, DWORD PTR [ebx+532]
  0019c	83 c4 08	 add	 esp, 8
  0019f	c1 ea 05	 shr	 edx, 5
  001a2	33 f6		 xor	 esi, esi
  001a4	85 c0		 test	 eax, eax
  001a6	74 1e		 je	 SHORT $L228651

; 453  : 				{
; 454  : 					pi->m_cbTime = nTime;					//  reset	
; 455  : 					if( pi->m_nMaxcb - pi->m_cb > 0 )

  001a8	8b bb 0c 02 00
	00		 mov	 edi, DWORD PTR [ebx+524]
  001ae	8b 43 0c	 mov	 eax, DWORD PTR [ebx+12]
  001b1	8b cf		 mov	 ecx, edi
  001b3	2b c8		 sub	 ecx, eax
  001b5	85 c9		 test	 ecx, ecx
  001b7	66 89 53 32	 mov	 WORD PTR [ebx+50], dx
  001bb	7e 74		 jle	 SHORT $L228660

; 456  : 						cb	= (short)( pi->m_nMaxcb - pi->m_cb );		// cb =  

  001bd	8b 53 0c	 mov	 edx, DWORD PTR [ebx+12]
  001c0	8b f7		 mov	 esi, edi
  001c2	2b f2		 sub	 esi, edx

; 457  : 				}
; 458  : 				else

  001c4	eb 6b		 jmp	 SHORT $L228660
$L228651:

; 459  : 				{
; 460  : 					if( pWorld->GetID() == WI_WORLD_MADRIGAL )

  001c6	8b 44 24 3c	 mov	 eax, DWORD PTR $T235983[esp+208]
  001ca	83 38 01	 cmp	 DWORD PTR [eax], 1
  001cd	0f 85 e9 00 00
	00		 jne	 $L228655

; 461  : 					{
; 462  : 						pi->m_cbTime = (short)(nTime * prj.m_fMonsterRebirthRate);			//  reset

  001d3	0f bf ca	 movsx	 ecx, dx
  001d6	89 4c 24 10	 mov	 DWORD PTR tv1383[esp+208], ecx
  001da	db 44 24 10	 fild	 DWORD PTR tv1383[esp+208]
  001de	d8 0d b4 46 0f
	00		 fmul	 DWORD PTR ?prj@@3VCProject@@A+1001140
  001e4	e8 00 00 00 00	 call	 __ftol2

; 463  : 						if( (pi->m_nMaxcb * prj.m_fMonsterRespawnRate) - pi->m_cb > 0 )

  001e9	8b bb 0c 02 00
	00		 mov	 edi, DWORD PTR [ebx+524]
  001ef	8b 53 0c	 mov	 edx, DWORD PTR [ebx+12]
  001f2	89 7c 24 10	 mov	 DWORD PTR tv1152[esp+208], edi
  001f6	db 44 24 10	 fild	 DWORD PTR tv1152[esp+208]
  001fa	66 89 43 32	 mov	 WORD PTR [ebx+50], ax
  001fe	89 54 24 10	 mov	 DWORD PTR tv1379[esp+208], edx
  00202	d8 0d c0 46 0f
	00		 fmul	 DWORD PTR ?prj@@3VCProject@@A+1001152
  00208	db 44 24 10	 fild	 DWORD PTR tv1379[esp+208]
  0020c	d8 e9		 fsubr	 ST(0), ST(1)
  0020e	d8 1d 00 00 00
	00		 fcomp	 DWORD PTR __real@00000000
  00214	df e0		 fnstsw	 ax
  00216	f6 c4 41	 test	 ah, 65			; 00000041H
  00219	75 14		 jne	 SHORT $L236004

; 464  : 							cb	= (short)( (pi->m_nMaxcb * prj.m_fMonsterRespawnRate) - pi->m_cb );	// cb =  

  0021b	8b 43 0c	 mov	 eax, DWORD PTR [ebx+12]
  0021e	89 44 24 10	 mov	 DWORD PTR tv1375[esp+208], eax
  00222	db 44 24 10	 fild	 DWORD PTR tv1375[esp+208]
  00226	d8 e9		 fsubr	 ST(0), ST(1)
  00228	e8 00 00 00 00	 call	 __ftol2
  0022d	8b f0		 mov	 esi, eax
$L236004:

; 470  : 							cb	= (short)( pi->m_nMaxcb - pi->m_cb );				// cb =  

  0022f	dd d8		 fstp	 ST(0)
$L228660:

; 471  : 					}
; 472  : 				}
; 473  : 			#else // __S1108_BACK_END_SYSTEM
; 474  : 				pi->m_cbTime = nTime;				//  reset
; 475  : 				cb = pi->m_cb;						// cb =  
; 476  : 			#endif // __S1108_BACK_END_SYSTEM
; 477  : 				
; 478  : 				if( pi->m_bHalf )

  00231	8b 4b 38	 mov	 ecx, DWORD PTR [ebx+56]
  00234	85 c9		 test	 ecx, ecx
  00236	74 10		 je	 SHORT $L228662

; 479  : 				{
; 480  : 				#ifdef __S1108_BACK_END_SYSTEM
; 481  : 					cb	= (short)( ( pi->m_nMaxcb / 2 ) - ( pi->m_nMaxcb - cb ) );

  00238	8b c7		 mov	 eax, edi
  0023a	99		 cdq
  0023b	2b c2		 sub	 eax, edx
  0023d	d1 f8		 sar	 eax, 1
  0023f	66 2b 83 0c 02
	00 00		 sub	 ax, WORD PTR [ebx+524]
  00246	03 f0		 add	 esi, eax
$L228662:

; 482  : 				#else	// __S1108_BACK_END_SYSTEM
; 483  : 					cb	= (short)( ( pi->m_cbRespawn / 2 ) - ( pi->m_cbRespawn - cb ) );
; 484  : 				#endif	// __S1108_BACK_END_SYSTEM
; 485  : 				}
; 486  : 				pi->m_bHalf	= !pi->m_bHalf;
; 487  : 
; 488  : 				dwFlying = 0;
; 489  : 				if( pi->m_dwType == OT_MOVER )

  00248	8b 43 04	 mov	 eax, DWORD PTR [ebx+4]
  0024b	33 d2		 xor	 edx, edx
  0024d	85 c9		 test	 ecx, ecx
  0024f	0f 94 c2	 sete	 dl
  00252	83 f8 05	 cmp	 eax, 5
  00255	c7 44 24 40 00
	00 00 00	 mov	 DWORD PTR _dwFlying$[esp+208], 0
  0025d	89 53 38	 mov	 DWORD PTR [ebx+56], edx
  00260	75 31		 jne	 SHORT $L235989

; 490  : 				{
; 491  : 					pMoverProp = prj.GetMoverProp( pi->m_dwIndex );

  00262	8b 43 08	 mov	 eax, DWORD PTR [ebx+8]
  00265	85 c0		 test	 eax, eax
  00267	8b 0d d0 01 00
	00		 mov	 ecx, DWORD PTR ?prj@@3VCProject@@A+464
  0026d	7c 72		 jl	 SHORT $L235834
  0026f	3b c1		 cmp	 eax, ecx
  00271	7d 6e		 jge	 SHORT $L235834
  00273	8b 0d d4 01 00
	00		 mov	 ecx, DWORD PTR ?prj@@3VCProject@@A+468
  00279	69 c0 d8 06 00
	00		 imul	 eax, 1752		; 000006d8H
  0027f	03 c1		 add	 eax, ecx

; 492  : 					if( pMoverProp )

  00281	85 c0		 test	 eax, eax
  00283	89 44 24 48	 mov	 DWORD PTR _pMoverProp$[esp+208], eax
  00287	74 0a		 je	 SHORT $L235989

; 493  : 						dwFlying	= pMoverProp->dwFlying;

  00289	8b 80 10 01 00
	00		 mov	 eax, DWORD PTR [eax+272]
  0028f	89 44 24 40	 mov	 DWORD PTR _dwFlying$[esp+208], eax
$L235989:

; 494  : 				}
; 495  : 
; 496  : #ifndef __RES0807
; 497  : 				if( dwFlying )
; 498  : 					nCheckAttr = HATTR_NOFLY;
; 499  : 				else
; 500  : 					nCheckAttr = HATTR_NOWALK;
; 501  : #endif	// __RES0807
; 502  : 
; 503  : 				while( cb-- > 0 )

  00293	66 85 f6	 test	 si, si
  00296	0f 8e 66 04 00
	00		 jle	 $L228630
  0029c	0f b7 ce	 movzx	 ecx, si
  0029f	89 4c 24 10	 mov	 DWORD PTR tv549[esp+208], ecx
$L228667:

; 504  : 				{
; 505  : 					if( pi->m_dwIndex == 0 )

  002a3	8b 43 08	 mov	 eax, DWORD PTR [ebx+8]
  002a6	85 c0		 test	 eax, eax
  002a8	75 57		 jne	 SHORT $L228669

; 506  : 					{
; 507  : 						Error( "CRespawner::Spawn()\t// 0 index\n" );

  002aa	68 00 00 00 00	 push	 OFFSET FLAT:??_C@_0CA@NLFIDABF@CRespawner?3?3Spawn?$CI?$CJ?7?1?1?50?5index?6?$AA@
  002af	e8 00 00 00 00	 call	 ?Error@@YAPBDPBDZZ	; Error
  002b4	83 c4 04	 add	 esp, 4

; 508  : 						continue;

  002b7	e9 3c 04 00 00	 jmp	 $L235991
$L228655:

; 465  : 					}
; 466  : 					else
; 467  : 					{
; 468  : 						pi->m_cbTime = nTime;							//  reset
; 469  : 						if( pi->m_nMaxcb - pi->m_cb > 0 )

  002bc	8b bb 0c 02 00
	00		 mov	 edi, DWORD PTR [ebx+524]
  002c2	8b 4b 0c	 mov	 ecx, DWORD PTR [ebx+12]
  002c5	66 89 53 32	 mov	 WORD PTR [ebx+50], dx
  002c9	8b d7		 mov	 edx, edi
  002cb	2b d1		 sub	 edx, ecx
  002cd	85 d2		 test	 edx, edx
  002cf	0f 8e 5c ff ff
	ff		 jle	 $L228660

; 470  : 							cb	= (short)( pi->m_nMaxcb - pi->m_cb );				// cb =  

  002d5	8b 43 0c	 mov	 eax, DWORD PTR [ebx+12]
  002d8	8b f7		 mov	 esi, edi
  002da	2b f0		 sub	 esi, eax
  002dc	e9 50 ff ff ff	 jmp	 $L228660

; 490  : 				{
; 491  : 					pMoverProp = prj.GetMoverProp( pi->m_dwIndex );

$L235834:
  002e1	50		 push	 eax
  002e2	51		 push	 ecx
  002e3	6a 00		 push	 0
  002e5	68 00 00 00 00	 push	 OFFSET FLAT:??_C@_0BJ@GKPOBPPI@GetMoverProp?5range_error?$AA@
  002ea	68 00 00 00 00	 push	 OFFSET FLAT:??_C@_0BM@HMFGHCP@?$CFs?5min?3?$CFd?0?5max?3?$CFd?0?5index?3?$CFd?$AA@
  002ef	e8 00 00 00 00	 call	 ?Error@@YAPBDPBDZZ	; Error
  002f4	83 c4 14	 add	 esp, 20			; 00000014H
  002f7	c7 44 24 48 00
	00 00 00	 mov	 DWORD PTR _pMoverProp$[esp+208], 0

; 492  : 					if( pMoverProp )

  002ff	eb 92		 jmp	 SHORT $L235989
$L228669:

; 509  : 					}
; 510  : 					pObj	= CreateObj( D3DDEVICE, pi->m_dwType, pi->m_dwIndex );

  00301	8b 53 04	 mov	 edx, DWORD PTR [ebx+4]
  00304	6a 01		 push	 1
  00306	50		 push	 eax
  00307	52		 push	 edx
  00308	6a 00		 push	 0
  0030a	e8 00 00 00 00	 call	 ?CreateObj@@YAPAVCObj@@PAUIDirect3DDevice9@@KKH@Z ; CreateObj
  0030f	8b f8		 mov	 edi, eax

; 511  : 					
; 512  : 					if( pi->m_dwType == OT_ITEM )

  00311	8b 43 04	 mov	 eax, DWORD PTR [ebx+4]
  00314	83 c4 10	 add	 esp, 16			; 00000010H
  00317	83 f8 04	 cmp	 eax, 4
  0031a	89 7c 24 18	 mov	 DWORD PTR _pObj$[esp+208], edi
  0031e	0f 85 38 01 00
	00		 jne	 $L228671

; 513  : 					{
; 514  : 						CItemElem* pItemElem	= new CItemElem;

  00324	68 b8 00 00 00	 push	 184			; 000000b8H
  00329	e8 00 00 00 00	 call	 ??2@YAPAXI@Z		; operator new
  0032e	83 c4 04	 add	 esp, 4
  00331	89 44 24 14	 mov	 DWORD PTR $T235745[esp+208], eax
  00335	85 c0		 test	 eax, eax
  00337	c7 84 24 cc 00
	00 00 00 00 00
	00		 mov	 DWORD PTR __$EHRec$[esp+216], 0
  00342	74 0b		 je	 SHORT $L235746
  00344	8b c8		 mov	 ecx, eax
  00346	e8 00 00 00 00	 call	 ??0CItemElem@@QAE@XZ	; CItemElem::CItemElem
  0034b	8b f0		 mov	 esi, eax
  0034d	eb 02		 jmp	 SHORT $L235747
$L235746:
  0034f	33 f6		 xor	 esi, esi
$L235747:

; 515  : 						pItemElem->m_dwItemId	= pi->m_dwIndex;

  00351	8b 43 08	 mov	 eax, DWORD PTR [ebx+8]
  00354	89 46 0c	 mov	 DWORD PTR [esi+12], eax

; 516  : 						pItemElem->m_nItemNum	= (short)( pi->m_nItemMin + xRandom( pi->m_nItemMax - pi->m_nItemMin + 1 ) );

  00357	a1 00 00 00 00	 mov	 eax, DWORD PTR ?g_next@@3KA ; g_next
  0035c	8b 53 40	 mov	 edx, DWORD PTR [ebx+64]
  0035f	69 c0 6d 4e c6
	41		 imul	 eax, 1103515245		; 41c64e6dH
  00365	8b 4b 44	 mov	 ecx, DWORD PTR [ebx+68]
  00368	2b ca		 sub	 ecx, edx
  0036a	05 39 30 00 00	 add	 eax, 12345		; 00003039H
  0036f	41		 inc	 ecx
  00370	a3 00 00 00 00	 mov	 DWORD PTR ?g_next@@3KA, eax ; g_next
  00375	33 d2		 xor	 edx, edx
  00377	f7 f1		 div	 ecx

; 517  : 						ItemProp* pItemProp	= pItemElem->GetProp();

  00379	8b 46 0c	 mov	 eax, DWORD PTR [esi+12]
  0037c	c7 84 24 cc 00
	00 00 ff ff ff
	ff		 mov	 DWORD PTR __$EHRec$[esp+216], -1
  00387	66 03 53 40	 add	 dx, WORD PTR [ebx+64]
  0038b	85 c0		 test	 eax, eax
  0038d	66 89 96 80 00
	00 00		 mov	 WORD PTR [esi+128], dx
  00394	8b 0d 5c 02 00
	00		 mov	 ecx, DWORD PTR ?prj@@3VCProject@@A+604
  0039a	0f 8c 99 00 00
	00		 jl	 $L235895
  003a0	3b c1		 cmp	 eax, ecx
  003a2	0f 8d 91 00 00
	00		 jge	 $L235895
  003a8	72 04		 jb	 SHORT $L235907
  003aa	33 c0		 xor	 eax, eax
  003ac	eb 09		 jmp	 SHORT $L235906
$L235907:
  003ae	8b 0d 4c 02 00
	00		 mov	 ecx, DWORD PTR ?prj@@3VCProject@@A+588
  003b4	8b 04 81	 mov	 eax, DWORD PTR [ecx+eax*4]
$L235906:

; 518  : 						if( !pItemProp )

  003b7	85 c0		 test	 eax, eax
  003b9	89 44 24 14	 mov	 DWORD PTR $T235888[esp+208], eax
  003bd	75 3a		 jne	 SHORT $L228679
$L235994:

; 519  : 						{
; 520  : 							char lpOutputString[100]	= { 0,};
; 521  : 							sprintf( lpOutputString, "%d item property not found", pi->m_dwIndex );

  003bf	8b 53 08	 mov	 edx, DWORD PTR [ebx+8]
  003c2	33 c0		 xor	 eax, eax
  003c4	c6 44 24 50 00	 mov	 BYTE PTR _lpOutputString$228680[esp+208], 0
  003c9	b9 18 00 00 00	 mov	 ecx, 24			; 00000018H
  003ce	8d 7c 24 51	 lea	 edi, DWORD PTR _lpOutputString$228680[esp+209]
  003d2	f3 ab		 rep stosd
  003d4	66 ab		 stosw
  003d6	52		 push	 edx
  003d7	aa		 stosb
  003d8	8d 44 24 54	 lea	 eax, DWORD PTR _lpOutputString$228680[esp+212]
  003dc	68 00 00 00 00	 push	 OFFSET FLAT:??_C@_0BL@ECDHPEEF@?$CFd?5item?5property?5not?5found?$AA@
  003e1	50		 push	 eax
  003e2	e8 00 00 00 00	 call	 _sprintf
  003e7	83 c4 0c	 add	 esp, 12			; 0000000cH

; 522  : 							OutputDebugString( lpOutputString );

  003ea	8d 4c 24 50	 lea	 ecx, DWORD PTR _lpOutputString$228680[esp+208]
  003ee	51		 push	 ecx
  003ef	ff 15 00 00 00
	00		 call	 DWORD PTR __imp__OutputDebugStringA@4
  003f5	8b 7c 24 18	 mov	 edi, DWORD PTR _pObj$[esp+208]
$L228679:

; 523  : 						}
; 524  : 						pItemElem->m_nHitPoint	= pItemProp->dwEndurance;

  003f9	8b 54 24 14	 mov	 edx, DWORD PTR $T235888[esp+208]
  003fd	8b 82 90 00 00
	00		 mov	 eax, DWORD PTR [edx+144]

; 525  : 						pItemElem->SetSerialNumber();

  00403	8b ce		 mov	 ecx, esi
  00405	89 46 7c	 mov	 DWORD PTR [esi+124], eax
  00408	e8 00 00 00 00	 call	 ?SetSerialNumber@CItemBase@@QAEXXZ ; CItemBase::SetSerialNumber

; 526  : 						( (CItem*)pObj )->m_pItemBase	= pItemElem;
; 527  : 						if( pItemElem->m_nItemNum > (int)( pItemProp->dwPackMax ) )

  0040d	8b 54 24 14	 mov	 edx, DWORD PTR $T235888[esp+208]
  00411	89 b7 34 02 00
	00		 mov	 DWORD PTR [edi+564], esi
  00417	0f bf 8e 80 00
	00 00		 movsx	 ecx, WORD PTR [esi+128]
  0041e	3b 4a 6c	 cmp	 ecx, DWORD PTR [edx+108]
  00421	0f 8e a5 00 00
	00		 jle	 $L235924

; 528  : 						{
; 529  : 							pItemElem->m_nItemNum	= (int)( pItemProp->dwPackMax );

  00427	8b c2		 mov	 eax, edx
  00429	66 8b 48 6c	 mov	 cx, WORD PTR [eax+108]
  0042d	66 89 8e 80 00
	00 00		 mov	 WORD PTR [esi+128], cx

; 530  : 						}
; 531  : 					}
; 532  : 					else

  00434	e9 93 00 00 00	 jmp	 $L235924

; 517  : 						ItemProp* pItemProp	= pItemElem->GetProp();

$L235895:
  00439	50		 push	 eax
  0043a	51		 push	 ecx
  0043b	6a 00		 push	 0
  0043d	68 00 00 00 00	 push	 OFFSET FLAT:??_C@_0BI@BEIFNGEL@GetItemProp?5range_error?$AA@
  00442	68 00 00 00 00	 push	 OFFSET FLAT:??_C@_0BM@HMFGHCP@?$CFs?5min?3?$CFd?0?5max?3?$CFd?0?5index?3?$CFd?$AA@
  00447	e8 00 00 00 00	 call	 ?Error@@YAPBDPBDZZ	; Error
  0044c	83 c4 14	 add	 esp, 20			; 00000014H
  0044f	c7 44 24 14 00
	00 00 00	 mov	 DWORD PTR $T235888[esp+208], 0

; 518  : 						if( !pItemProp )

  00457	e9 63 ff ff ff	 jmp	 $L235994
$L228671:

; 533  : 					if( pi->m_dwType == OT_CTRL )

  0045c	83 f8 02	 cmp	 eax, 2
  0045f	75 57		 jne	 SHORT $L228687

; 534  : 					{
; 535  : 						memcpy( &(((CCommonCtrl*)pObj)->m_CtrlElem), &(pi->m_CtrlElem), sizeof( CCtrlElem ) );

  00461	8b 7c 24 18	 mov	 edi, DWORD PTR _pObj$[esp+208]
  00465	81 c7 38 02 00
	00		 add	 edi, 568		; 00000238H
  0046b	8d 73 5c	 lea	 esi, DWORD PTR [ebx+92]
  0046e	b9 6c 00 00 00	 mov	 ecx, 108		; 0000006cH
  00473	f3 a5		 rep movsd

; 536  : 						((CCommonCtrl*)pObj)->SetAngle( (float)( xRandom(360) ) );

  00475	a1 00 00 00 00	 mov	 eax, DWORD PTR ?g_next@@3KA ; g_next
  0047a	69 c0 6d 4e c6
	41		 imul	 eax, 1103515245		; 41c64e6dH
  00480	05 39 30 00 00	 add	 eax, 12345		; 00003039H
  00485	33 d2		 xor	 edx, edx
  00487	b9 68 01 00 00	 mov	 ecx, 360		; 00000168H
  0048c	a3 00 00 00 00	 mov	 DWORD PTR ?g_next@@3KA, eax ; g_next
  00491	f7 f1		 div	 ecx
  00493	85 d2		 test	 edx, edx
  00495	89 54 24 14	 mov	 DWORD PTR tv1329[esp+208], edx
  00499	db 44 24 14	 fild	 DWORD PTR tv1329[esp+208]
  0049d	7d 06		 jge	 SHORT $L236017
  0049f	d8 05 00 00 00
	00		 fadd	 DWORD PTR __real@4f800000
$L236017:
  004a5	51		 push	 ecx
  004a6	8b 4c 24 1c	 mov	 ecx, DWORD PTR _pObj$[esp+212]
  004aa	d9 1c 24	 fstp	 DWORD PTR [esp]
  004ad	e8 00 00 00 00	 call	 ?SetAngle@CObj@@QAEXM@Z	; CObj::SetAngle

; 537  : 					}
; 538  : 					else

  004b2	8b 7c 24 18	 mov	 edi, DWORD PTR _pObj$[esp+208]
  004b6	eb 14		 jmp	 SHORT $L235924
$L228687:

; 539  : 					if( pi->m_dwType == OT_MOVER )

  004b8	83 f8 05	 cmp	 eax, 5
  004bb	75 0f		 jne	 SHORT $L235924

; 540  : 					{
; 541  : 						((CMover*)pObj)->SetGold(((CMover*)pObj)->GetLevel()*15);  //     

  004bd	8b 97 e0 05 00
	00		 mov	 edx, DWORD PTR [edi+1504]
  004c3	6b d2 0f	 imul	 edx, 15			; 0000000fH
  004c6	89 97 84 16 00
	00		 mov	 DWORD PTR [edi+5764], edx
$L235924:

; 542  : 					}
; 543  : 
; 544  : 					if( !pObj )

  004cc	85 ff		 test	 edi, edi
  004ce	75 15		 jne	 SHORT $L228696

; 545  : 						WriteLog( "SPAWN: %d, %d", pi->m_dwType, pi->m_dwIndex );

  004d0	8b 43 08	 mov	 eax, DWORD PTR [ebx+8]
  004d3	8b 4b 04	 mov	 ecx, DWORD PTR [ebx+4]
  004d6	50		 push	 eax
  004d7	51		 push	 ecx
  004d8	68 00 00 00 00	 push	 OFFSET FLAT:??_C@_0O@NBAJGPNK@SPAWN?3?5?$CFd?0?5?$CFd?$AA@
  004dd	e8 00 00 00 00	 call	 ?WriteLog@@YAXPBDZZ	; WriteLog
  004e2	83 c4 0c	 add	 esp, 12			; 0000000cH
$L228696:

; 546  : 
; 547  : 					pObj->m_dwAIInterfaceState = pi->m_dwAiState;

  004e5	8b 93 18 02 00
	00		 mov	 edx, DWORD PTR [ebx+536]
  004eb	89 97 90 01 00
	00		 mov	 DWORD PTR [edi+400], edx

; 548  : 					pObj->m_dwPatrolIndex      = pi->m_dwPatrolIndex;

  004f1	8b 83 20 02 00
	00		 mov	 eax, DWORD PTR [ebx+544]
  004f7	89 87 94 01 00
	00		 mov	 DWORD PTR [edi+404], eax

; 549  : 					pObj->m_bPatrolCycle       = pi->m_bPatrolCycle;

  004fd	8a 87 9c 01 00
	00		 mov	 al, BYTE PTR [edi+412]
  00503	8a 8b 24 02 00
	00		 mov	 cl, BYTE PTR [ebx+548]
  00509	32 c8		 xor	 cl, al
  0050b	80 e1 01	 and	 cl, 1
  0050e	8a d0		 mov	 dl, al

; 550  : 						
; 551  : 					if( ( pObj->m_dwAIInterfaceState == 9 || pObj->m_dwAIInterfaceState == 8 ) && pi->m_nMaxcb == 1 )

  00510	8b 87 90 01 00
	00		 mov	 eax, DWORD PTR [edi+400]
  00516	32 d1		 xor	 dl, cl
  00518	83 f8 09	 cmp	 eax, 9
  0051b	88 97 9c 01 00
	00		 mov	 BYTE PTR [edi+412], dl
  00521	74 05		 je	 SHORT $L228699
  00523	83 f8 08	 cmp	 eax, 8
  00526	75 17		 jne	 SHORT $L228698
$L228699:
  00528	83 bb 0c 02 00
	00 01		 cmp	 DWORD PTR [ebx+524], 1
  0052f	75 40		 jne	 SHORT $L235954

; 552  : 						pObj->SetAngle( pi->m_fAngle );					

  00531	8b 93 1c 02 00
	00		 mov	 edx, DWORD PTR [ebx+540]
  00537	52		 push	 edx
  00538	8b cf		 mov	 ecx, edi
  0053a	e8 00 00 00 00	 call	 ?SetAngle@CObj@@QAEXM@Z	; CObj::SetAngle
$L228698:

; 553  : 
; 554  : #ifdef __RES0807
; 555  : 					pi->GetPos( v );

  0053f	83 bb 0c 02 00
	00 01		 cmp	 DWORD PTR [ebx+524], 1
  00546	75 29		 jne	 SHORT $L235954
  00548	8b 83 18 02 00
	00		 mov	 eax, DWORD PTR [ebx+536]
  0054e	83 f8 08	 cmp	 eax, 8
  00551	74 05		 je	 SHORT $L235955
  00553	83 f8 09	 cmp	 eax, 9
  00556	75 19		 jne	 SHORT $L235954
$L235955:
  00558	8d 43 24	 lea	 eax, DWORD PTR [ebx+36]
  0055b	8b 08		 mov	 ecx, DWORD PTR [eax]
  0055d	89 4c 24 20	 mov	 DWORD PTR _v$[esp+208], ecx
  00561	8b 50 04	 mov	 edx, DWORD PTR [eax+4]
  00564	89 54 24 24	 mov	 DWORD PTR _v$[esp+212], edx
  00568	8b 40 08	 mov	 eax, DWORD PTR [eax+8]
  0056b	89 44 24 28	 mov	 DWORD PTR _v$[esp+216], eax
  0056f	eb 29		 jmp	 SHORT $L235958
$L235954:
  00571	6a 64		 push	 100			; 00000064H
  00573	6a 00		 push	 0
  00575	e8 00 00 00 00	 call	 ?xRandom@@YAKKK@Z	; xRandom
  0057a	db 84 c3 28 02
	00 00		 fild	 DWORD PTR [ebx+eax*8+552]
  00581	83 c4 08	 add	 esp, 8
  00584	d9 5c 24 20	 fstp	 DWORD PTR _v$[esp+208]
  00588	db 84 c3 2c 02
	00 00		 fild	 DWORD PTR [ebx+eax*8+556]
  0058f	d9 5c 24 28	 fstp	 DWORD PTR _v$[esp+216]
  00593	8b 4b 28	 mov	 ecx, DWORD PTR [ebx+40]
  00596	89 4c 24 24	 mov	 DWORD PTR _v$[esp+212], ecx
$L235958:

; 556  : #else	// __RES0807
; 557  : 					nRetry	= 0;
; 558  : lbl_retry:
; 559  : 					pi->GetPos( v ); // v   .
; 560  : 					nAttr	= pWorld->GetHeightAttribute( v.x, v.z );
; 561  : 
; 562  : 					if( nAttr == -1 || nAttr == HATTR_NOMOVE || nAttr == nCheckAttr ) 
; 563  : 					{
; 564  : 						v = pi->m_vPos;
; 565  : 						if( v == D3DXVECTOR3( 0.0f, 0.0f, 0.0f ) )
; 566  : 						{
; 567  : 							if( ++nRetry < 100 )
; 568  : 								goto lbl_retry;
; 569  : 						#ifdef __S1108_BACK_END_SYSTEM
; 570  : 							if( pi->m_nGMIndex != 0 )
; 571  : 								Remove( pi->m_nGMIndex, TRUE );
; 572  : 							WriteLog( "GM RESPAWN(%d): %d, %d, %d, %d, %d, %d",
; 573  : 								pi->m_nGMIndex, pi->m_dwType, pi->m_dwIndex, pi->m_rect.left, pi->m_rect.top, pi->m_rect.right, pi->m_rect.bottom );
; 574  : 						#else // __S1108_BACK_END_SYSTEM
; 575  : 							WriteLog( "SPAWN: %d, %d, %d, %d, %d, %d",
; 576  : 								pi->m_dwType, pi->m_dwIndex, pi->m_rect.left, pi->m_rect.top, pi->m_rect.right, pi->m_rect.bottom );
; 577  : 						#endif // __S1108_BACK_END_SYSTEM
; 578  : 
; 579  : 							SAFE_DELETE( pObj );
; 580  : 							pi->m_dwIndex		= 0;	// REMOVE
; 581  : 							break;
; 582  : 						}
; 583  : 					}
; 584  : 					else
; 585  : 					{
; 586  : 						pi->m_vPos	= v;
; 587  : 					}
; 588  : #endif	// __RES0807
; 589  : 
; 590  : 					if( dwFlying )

  0059a	8b 44 24 40	 mov	 eax, DWORD PTR _dwFlying$[esp+208]
  0059e	85 c0		 test	 eax, eax
  005a0	74 66		 je	 SHORT $L228700

; 591  : 					{
; 592  : 						v.y	+= xRandom( 21 );	

  005a2	a1 00 00 00 00	 mov	 eax, DWORD PTR ?g_next@@3KA ; g_next
  005a7	69 c0 6d 4e c6
	41		 imul	 eax, 1103515245		; 41c64e6dH
  005ad	05 39 30 00 00	 add	 eax, 12345		; 00003039H
  005b2	33 d2		 xor	 edx, edx
  005b4	b9 15 00 00 00	 mov	 ecx, 21			; 00000015H
  005b9	a3 00 00 00 00	 mov	 DWORD PTR ?g_next@@3KA, eax ; g_next
  005be	f7 f1		 div	 ecx
  005c0	85 d2		 test	 edx, edx
  005c2	89 54 24 18	 mov	 DWORD PTR tv1271[esp+208], edx
  005c6	db 44 24 18	 fild	 DWORD PTR tv1271[esp+208]
  005ca	7d 06		 jge	 SHORT $L236018
  005cc	d8 05 00 00 00
	00		 fadd	 DWORD PTR __real@4f800000
$L236018:

; 593  : 						float y	= pWorld->GetLandHeight( v.x, v.z );

  005d2	8b 54 24 28	 mov	 edx, DWORD PTR _v$[esp+216]
  005d6	d8 44 24 24	 fadd	 DWORD PTR _v$[esp+212]
  005da	8b 44 24 20	 mov	 eax, DWORD PTR _v$[esp+208]
  005de	8b 74 24 3c	 mov	 esi, DWORD PTR $T235983[esp+208]
  005e2	52		 push	 edx
  005e3	d9 5c 24 28	 fstp	 DWORD PTR _v$[esp+216]
  005e7	50		 push	 eax
  005e8	8b ce		 mov	 ecx, esi
  005ea	e8 00 00 00 00	 call	 ?GetLandHeight@CWorld@@QAEMMM@Z ; CWorld::GetLandHeight

; 594  : 						if( v.y < y )	

  005ef	d9 44 24 24	 fld	 DWORD PTR _v$[esp+212]
  005f3	d8 d9		 fcomp	 ST(1)
  005f5	df e0		 fnstsw	 ax
  005f7	f6 c4 05	 test	 ah, 5
  005fa	7a 2f		 jp	 SHORT $L236003

; 595  : 							v.y	= y	+ 10.0f;

  005fc	d8 05 00 00 00
	00		 fadd	 DWORD PTR __real@41200000
  00602	d9 5c 24 24	 fstp	 DWORD PTR _v$[esp+212]

; 596  : 					}
; 597  : 					else

  00606	eb 25		 jmp	 SHORT $L228703
$L228700:

; 598  : 					{
; 599  : 						v.y = pi->m_fY + 1.0f;	//  .      

  00608	d9 43 58	 fld	 DWORD PTR [ebx+88]

; 600  : 						v.y	= pWorld->GetUnderHeight( v );

  0060b	8b 74 24 3c	 mov	 esi, DWORD PTR $T235983[esp+208]
  0060f	d8 05 00 00 00
	00		 fadd	 DWORD PTR __real@3f800000
  00615	8d 4c 24 20	 lea	 ecx, DWORD PTR _v$[esp+208]
  00619	51		 push	 ecx
  0061a	8b ce		 mov	 ecx, esi
  0061c	d9 5c 24 28	 fstp	 DWORD PTR _v$[esp+216]
  00620	e8 00 00 00 00	 call	 ?GetUnderHeight@CWorld@@QAEMABUD3DXVECTOR3@@@Z ; CWorld::GetUnderHeight
  00625	d9 5c 24 24	 fstp	 DWORD PTR _v$[esp+212]
  00629	eb 02		 jmp	 SHORT $L228703
$L236003:
  0062b	dd d8		 fstp	 ST(0)
$L228703:

; 601  : 					}
; 602  : 
; 603  : 
; 604  : 					( (CCtrl*)pObj )->SetRespawn( pi->m_nGMIndex, nType );

  0062d	8b 44 24 34	 mov	 eax, DWORD PTR _nType$228623[esp+208]

; 605  : 					#ifdef __S1108_BACK_END_SYSTEM
; 606  : 						int nMaxAttckNum = 0;
; 607  : 						if( nType == RESPAWNTYPE_BACKEND )	//     (  )

  00631	83 f8 02	 cmp	 eax, 2
  00634	8b 93 14 02 00
	00		 mov	 edx, DWORD PTR [ebx+532]
  0063a	0f b6 c8	 movzx	 ecx, al
  0063d	89 97 04 02 00
	00		 mov	 DWORD PTR [edi+516], edx
  00643	89 8f 08 02 00
	00		 mov	 DWORD PTR [edi+520], ecx
  00649	75 1a		 jne	 SHORT $L228706

; 608  : 						{
; 609  : 							nMaxAttckNum = int( float( pi->m_nMaxcb * prj.m_fMonsterRespawnRate ) * float((float)pi->m_nMaxAttackNum / 100.0f) );

  0064b	db 83 10 02 00
	00		 fild	 DWORD PTR [ebx+528]
  00651	da 8b 0c 02 00
	00		 fimul	 DWORD PTR [ebx+524]
  00657	d8 0d c0 46 0f
	00		 fmul	 DWORD PTR ?prj@@3VCProject@@A+1001152
  0065d	d8 0d 00 00 00
	00		 fmul	 DWORD PTR __real@3c23d70a

; 610  : 						}
; 611  : 						else

  00663	eb 30		 jmp	 SHORT $L236020
$L228706:

; 612  : 						{
; 613  : 							if( pi->m_nMaxAttackNum == 1 && pi->m_nMaxcb == 1 ) //  ?   1      

  00665	8b 83 10 02 00
	00		 mov	 eax, DWORD PTR [ebx+528]
  0066b	83 f8 01	 cmp	 eax, 1
  0066e	75 0e		 jne	 SHORT $L228709
  00670	39 83 0c 02 00
	00		 cmp	 DWORD PTR [ebx+524], eax
  00676	75 06		 jne	 SHORT $L228709

; 614  : 							{
; 615  : 								nMaxAttckNum = pi->m_nActiveAttackNum + 1;

  00678	8b 43 10	 mov	 eax, DWORD PTR [ebx+16]
  0067b	40		 inc	 eax

; 616  : 							}
; 617  : 							else

  0067c	eb 1c		 jmp	 SHORT $L228712
$L228709:

; 618  : 							{
; 619  : 								if( pWorld->GetID() == WI_WORLD_MADRIGAL )

  0067e	83 3e 01	 cmp	 DWORD PTR [esi], 1
  00681	75 17		 jne	 SHORT $L228712

; 620  : 								{
; 621  : 									nMaxAttckNum = int( ( pi->m_nMaxcb * prj.m_fMonsterRespawnRate ) * prj.m_fMonsterAggressiveRate );

  00683	db 83 0c 02 00
	00		 fild	 DWORD PTR [ebx+524]
  00689	d8 0d c0 46 0f
	00		 fmul	 DWORD PTR ?prj@@3VCProject@@A+1001152
  0068f	d8 0d bc 46 0f
	00		 fmul	 DWORD PTR ?prj@@3VCProject@@A+1001148
$L236020:
  00695	e8 00 00 00 00	 call	 __ftol2
$L228712:

; 622  : 								}
; 623  : 								else
; 624  : 								{
; 625  : 									nMaxAttckNum = pi->m_nMaxAttackNum;
; 626  : 								}
; 627  : 							}
; 628  : 						}		
; 629  : 						
; 630  : 						if( pObj->GetType() == OT_MOVER && ( pi->m_nActiveAttackNum < nMaxAttckNum ) )

  0069a	83 bf 70 01 00
	00 05		 cmp	 DWORD PTR [edi+368], 5
  006a1	75 28		 jne	 SHORT $L228714
  006a3	8b 53 10	 mov	 edx, DWORD PTR [ebx+16]
  006a6	3b d0		 cmp	 edx, eax
  006a8	8d 4b 10	 lea	 ecx, DWORD PTR [ebx+16]
  006ab	7d 1e		 jge	 SHORT $L228714

; 631  : 						{
; 632  : 							InterlockedIncrement( &pi->m_nActiveAttackNum );

  006ad	51		 push	 ecx
  006ae	ff 15 00 00 00
	00		 call	 DWORD PTR __imp__InterlockedIncrement@4

; 633  : 							if( pMoverProp->dwLevel >= 7 )	//  7   .

  006b4	8b 54 24 48	 mov	 edx, DWORD PTR _pMoverProp$[esp+208]
  006b8	83 ba 88 00 00
	00 07		 cmp	 DWORD PTR [edx+136], 7
  006bf	72 0a		 jb	 SHORT $L228714

; 634  : 								((CMover*)pObj)->m_bActiveAttack	= TRUE;

  006c1	c7 87 70 06 00
	00 01 00 00 00	 mov	 DWORD PTR [edi+1648], 1
$L228714:

; 635  : 						}
; 636  : 					#else // __S1108_BACK_END_SYSTEM
; 637  : 						if( pObj->GetType() == OT_MOVER && pi->m_nActiveAttackNum > 0 )
; 638  : 						{
; 639  : 							InterlockedDecrement( &pi->m_nActiveAttackNum );
; 640  : 							if( pMoverProp->dwLevel >= 7 )	//  7   .
; 641  : 								((CMover*)pObj)->m_bActiveAttack	= TRUE;
; 642  : 						}
; 643  : 					#endif // __S1108_BACK_END_SYSTEM
; 644  : 
; 645  : 					pObj->SetPos( v );

  006cb	8d 44 24 20	 lea	 eax, DWORD PTR _v$[esp+208]
  006cf	50		 push	 eax
  006d0	8b cf		 mov	 ecx, edi
  006d2	e8 00 00 00 00	 call	 ?SetPos@CObj@@QAEXABUD3DXVECTOR3@@@Z ; CObj::SetPos

; 646  : 					pWorld->ADDOBJ( pObj, TRUE, nLayer );

  006d7	8b 4d 0c	 mov	 ecx, DWORD PTR _nLayer$[ebp]
  006da	51		 push	 ecx
  006db	6a 01		 push	 1
  006dd	57		 push	 edi
  006de	8b ce		 mov	 ecx, esi
  006e0	e8 00 00 00 00	 call	 ?AddObj@CWorld@@QAEHPAVCObj@@HH@Z ; CWorld::AddObj

; 647  : 					uRespawned++;

  006e5	8b 54 24 38	 mov	 edx, DWORD PTR _uRespawned$[esp+208]

; 648  : //					InterlockedDecrement( &pi->m_cb );
; 649  : 				#ifdef __S1108_BACK_END_SYSTEM
; 650  : 					InterlockedIncrement( &pi->m_cb );

  006e9	8d 43 0c	 lea	 eax, DWORD PTR [ebx+12]
  006ec	42		 inc	 edx
  006ed	50		 push	 eax
  006ee	89 54 24 3c	 mov	 DWORD PTR _uRespawned$[esp+212], edx
  006f2	ff 15 00 00 00
	00		 call	 DWORD PTR __imp__InterlockedIncrement@4
$L235991:
  006f8	ff 4c 24 10	 dec	 DWORD PTR tv549[esp+208]
  006fc	0f 85 a1 fb ff
	ff		 jne	 $L228667
$L228630:

; 401  : 		for( int i = 0; i < nSize; i++ )			// 04.10.11 - 480  .

  00702	8b 44 24 2c	 mov	 eax, DWORD PTR _i$228628[esp+208]
  00706	8b 54 24 1c	 mov	 edx, DWORD PTR tv1450[esp+208]
  0070a	8b 4c 24 30	 mov	 ecx, DWORD PTR _nSize$228627[esp+208]
  0070e	8b 74 24 34	 mov	 esi, DWORD PTR _nType$228623[esp+208]
  00712	40		 inc	 eax
  00713	81 c2 48 05 00
	00		 add	 edx, 1352		; 00000548H
  00719	3b c1		 cmp	 eax, ecx
  0071b	89 44 24 2c	 mov	 DWORD PTR _i$228628[esp+208], eax
  0071f	89 54 24 1c	 mov	 DWORD PTR tv1450[esp+208], edx
  00723	0f 8c 87 f9 ff
	ff		 jl	 $L228629
$L228625:

; 391  : #ifndef __RES0807
; 392  : 	int				nAttr, nCheckAttr;
; 393  : 	int				nRetry;
; 394  : #endif	// __RES0807
; 395  : 	MoverProp*		pMoverProp;
; 396  : 	DWORD			dwFlying;
; 397  : 
; 398  : 	for( int nType = 0; nType < 3; nType++ )

  00729	46		 inc	 esi
  0072a	83 fe 03	 cmp	 esi, 3
  0072d	89 74 24 34	 mov	 DWORD PTR _nType$228623[esp+208], esi
  00731	0f 8c 29 f9 ff
	ff		 jl	 $L228624

; 651  : 				#else // __S1108_BACK_END_SYSTEM
; 652  : 					InterlockedDecrement( &pi->m_cb );
; 653  : 				#endif // __S1108_BACK_END_SYSTEM
; 654  : 				}	// while( cb-- > 0 )					
; 655  : 			} // if( pi->m_cbTime < 0 )
; 656  : 		} // for( int i = 0; i < nSize; i++ )
; 657  : 	} // for( int nType = 0; nType < 3; nType++ )
; 658  : 
; 659  : 	return uRespawned;

  00737	8b 44 24 38	 mov	 eax, DWORD PTR _uRespawned$[esp+208]
$L228613:

; 660  : #endif // __!CLIENT
; 661  : }

  0073b	8b 8c 24 c4 00
	00 00		 mov	 ecx, DWORD PTR __$EHRec$[esp+208]
  00742	64 89 0d 00 00
	00 00		 mov	 DWORD PTR fs:__except_list, ecx
  00749	8b 8c 24 bc 00
	00 00		 mov	 ecx, DWORD PTR __$ArrayPad$[esp+208]
  00750	5f		 pop	 edi
  00751	5e		 pop	 esi
  00752	33 cd		 xor	 ecx, ebp
  00754	5b		 pop	 ebx
  00755	e8 00 00 00 00	 call	 @__security_check_cookie@4
  0075a	8b e5		 mov	 esp, ebp
  0075c	5d		 pop	 ebp
  0075d	c2 08 00	 ret	 8
_TEXT	ENDS
;	COMDAT text$x
text$x	SEGMENT
$L235748:
  00000	8b 85 44 ff ff
	ff		 mov	 eax, DWORD PTR $T235745[ebp]
  00006	50		 push	 eax
  00007	e8 00 00 00 00	 call	 ??3@YAXPAX@Z		; operator delete
  0000c	59		 pop	 ecx
  0000d	c3		 ret	 0
__ehhandler$?Spawn@CRespawner@@QAEKPAVCWorld@@H@Z:
  0000e	b8 00 00 00 00	 mov	 eax, OFFSET FLAT:$T235985
  00013	e9 00 00 00 00	 jmp	 ___CxxFrameHandler
text$x	ENDS
?Spawn@CRespawner@@QAEKPAVCWorld@@H@Z ENDP		; CRespawner::Spawn
PUBLIC	?Spawn@CLayerdRespawner@@QAEKPAVCWorld@@@Z	; CLayerdRespawner::Spawn
; Function compile flags: /Ogty
;	COMDAT ?Spawn@CLayerdRespawner@@QAEKPAVCWorld@@@Z
_TEXT	SEGMENT
_i$228871 = -4						; size = 4
_pWorld$ = 8						; size = 4
?Spawn@CLayerdRespawner@@QAEKPAVCWorld@@@Z PROC NEAR	; CLayerdRespawner::Spawn, COMDAT
; _this$ = ecx

; 707  : {

  00000	51		 push	 ecx
  00001	56		 push	 esi
  00002	8b f1		 mov	 esi, ecx

; 708  : 	u_long uRespawn	= 0;
; 709  : 	for( MRP::iterator i = m_mapRespawners.begin(); i != m_mapRespawners.end(); ++i )

  00004	8b 4e 3c	 mov	 ecx, DWORD PTR [esi+60]
  00007	8b 01		 mov	 eax, DWORD PTR [ecx]
  00009	57		 push	 edi
  0000a	33 ff		 xor	 edi, edi
  0000c	3b c1		 cmp	 eax, ecx
  0000e	89 44 24 08	 mov	 DWORD PTR _i$228871[esp+12], eax
  00012	74 2e		 je	 SHORT $L236139
  00014	53		 push	 ebx
  00015	8b 5c 24 14	 mov	 ebx, DWORD PTR _pWorld$[esp+12]
  00019	8d a4 24 00 00
	00 00		 npad	 7
$L236063:

; 710  : 		uRespawn	+= i->second->Spawn( pWorld, i->first );

  00020	8b 48 0c	 mov	 ecx, DWORD PTR [eax+12]
  00023	51		 push	 ecx
  00024	8b 48 10	 mov	 ecx, DWORD PTR [eax+16]
  00027	53		 push	 ebx
  00028	e8 00 00 00 00	 call	 ?Spawn@CRespawner@@QAEKPAVCWorld@@H@Z ; CRespawner::Spawn
  0002d	8d 4c 24 0c	 lea	 ecx, DWORD PTR _i$228871[esp+16]
  00031	03 f8		 add	 edi, eax
  00033	e8 00 00 00 00	 call	 ?_Inc@const_iterator@?$_Tree@V?$_Tmap_traits@HPAVCRespawner@@U?$less@H@std@@V?$allocator@U?$pair@$$CBHPAVCRespawner@@@std@@@3@$0A@@std@@@std@@QAEXXZ ; std::_Tree<std::_Tmap_traits<int,CRespawner *,std::less<int>,std::allocator<std::pair<int const ,CRespawner *> >,0> >::const_iterator::_Inc
  00038	8b 44 24 0c	 mov	 eax, DWORD PTR _i$228871[esp+16]
  0003c	3b 46 3c	 cmp	 eax, DWORD PTR [esi+60]
  0003f	75 df		 jne	 SHORT $L236063
  00041	5b		 pop	 ebx
$L236139:

; 711  : 	return uRespawn;

  00042	8b c7		 mov	 eax, edi
  00044	5f		 pop	 edi
  00045	5e		 pop	 esi

; 712  : }

  00046	59		 pop	 ecx
  00047	c2 04 00	 ret	 4
?Spawn@CLayerdRespawner@@QAEKPAVCWorld@@@Z ENDP		; CLayerdRespawner::Spawn
_TEXT	ENDS
PUBLIC	??0logic_error@std@@QAE@ABV?$basic_string@DU?$char_traits@D@std@@V?$allocator@D@2@@1@@Z ; std::logic_error::logic_error
EXTRN	??0exception@@QAE@XZ:NEAR			; exception::exception
;	COMDAT xdata$x
; File c:\program files\microsoft visual studio .net 2003\vc7\include\iosfwd
xdata$x	SEGMENT
$T236243 DD	0ffffffffH
	DD	FLAT:$L236143
$T236241 DD	019930520H
	DD	01H
	DD	FLAT:$T236243
	DD	2 DUP(00H)
	DD	2 DUP(00H)
; Function compile flags: /Ogty
; File c:\program files\microsoft visual studio .net 2003\vc7\include\stdexcept
xdata$x	ENDS
;	COMDAT ??0logic_error@std@@QAE@ABV?$basic_string@DU?$char_traits@D@std@@V?$allocator@D@2@@1@@Z
_TEXT	SEGMENT
_this$ = -16						; size = 4
__$EHRec$ = -12						; size = 12
__Message$ = 8						; size = 4
??0logic_error@std@@QAE@ABV?$basic_string@DU?$char_traits@D@std@@V?$allocator@D@2@@1@@Z PROC NEAR ; std::logic_error::logic_error, COMDAT
; _this$ = ecx

; 19   : 		{	// construct from message string

  00000	6a ff		 push	 -1
  00002	68 00 00 00 00	 push	 __ehhandler$??0logic_error@std@@QAE@ABV?$basic_string@DU?$char_traits@D@std@@V?$allocator@D@2@@1@@Z
  00007	64 a1 00 00 00
	00		 mov	 eax, DWORD PTR fs:__except_list
  0000d	50		 push	 eax
  0000e	64 89 25 00 00
	00 00		 mov	 DWORD PTR fs:__except_list, esp
  00015	51		 push	 ecx
  00016	56		 push	 esi
  00017	8b f1		 mov	 esi, ecx
  00019	89 74 24 04	 mov	 DWORD PTR _this$[esp+20], esi
  0001d	e8 00 00 00 00	 call	 ??0exception@@QAE@XZ	; exception::exception
  00022	33 c0		 xor	 eax, eax
  00024	8d 4e 0c	 lea	 ecx, DWORD PTR [esi+12]
  00027	c7 06 00 00 00
	00		 mov	 DWORD PTR [esi], OFFSET FLAT:??_7logic_error@std@@6B@
  0002d	6a ff		 push	 -1
  0002f	89 41 14	 mov	 DWORD PTR [ecx+20], eax
  00032	c7 41 18 0f 00
	00 00		 mov	 DWORD PTR [ecx+24], 15	; 0000000fH
  00039	50		 push	 eax
  0003a	89 44 24 18	 mov	 DWORD PTR __$EHRec$[esp+36], eax
  0003e	88 41 04	 mov	 BYTE PTR [ecx+4], al
  00041	8b 44 24 20	 mov	 eax, DWORD PTR __Message$[esp+24]
  00045	50		 push	 eax
  00046	e8 00 00 00 00	 call	 ?assign@?$basic_string@DU?$char_traits@D@std@@V?$allocator@D@2@@std@@QAEAAV12@ABV12@II@Z ; std::basic_string<char,std::char_traits<char>,std::allocator<char> >::assign

; 20   : 		}

  0004b	8b 4c 24 08	 mov	 ecx, DWORD PTR __$EHRec$[esp+20]
  0004f	8b c6		 mov	 eax, esi
  00051	5e		 pop	 esi
  00052	64 89 0d 00 00
	00 00		 mov	 DWORD PTR fs:__except_list, ecx
  00059	83 c4 10	 add	 esp, 16			; 00000010H
  0005c	c2 04 00	 ret	 4
_TEXT	ENDS
;	COMDAT text$x
text$x	SEGMENT
$L236143:
  00000	8b 4d f0	 mov	 ecx, DWORD PTR _this$[ebp]
  00003	e9 00 00 00 00	 jmp	 ??1exception@@UAE@XZ	; exception::~exception
__ehhandler$??0logic_error@std@@QAE@ABV?$basic_string@DU?$char_traits@D@std@@V?$allocator@D@2@@1@@Z:
  00008	b8 00 00 00 00	 mov	 eax, OFFSET FLAT:$T236241
  0000d	e9 00 00 00 00	 jmp	 ___CxxFrameHandler
text$x	ENDS
??0logic_error@std@@QAE@ABV?$basic_string@DU?$char_traits@D@std@@V?$allocator@D@2@@1@@Z ENDP ; std::logic_error::logic_error
PUBLIC	??0length_error@std@@QAE@ABV?$basic_string@DU?$char_traits@D@std@@V?$allocator@D@2@@1@@Z ; std::length_error::length_error
PUBLIC	??_7length_error@std@@6B@			; std::length_error::`vftable'
PUBLIC	??_Glength_error@std@@UAEPAXI@Z			; std::length_error::`scalar deleting destructor'
EXTRN	??_Elength_error@std@@UAEPAXI@Z:NEAR		; std::length_error::`vector deleting destructor'
;	COMDAT ??_7length_error@std@@6B@
CONST	SEGMENT
??_7length_error@std@@6B@ DD FLAT:??_Elength_error@std@@UAEPAXI@Z ; std::length_error::`vftable'
	DD	FLAT:?what@logic_error@std@@UBEPBDXZ
; Function compile flags: /Ogty
CONST	ENDS
;	COMDAT ??0length_error@std@@QAE@ABV?$basic_string@DU?$char_traits@D@std@@V?$allocator@D@2@@1@@Z
_TEXT	SEGMENT
__Message$ = 8						; size = 4
??0length_error@std@@QAE@ABV?$basic_string@DU?$char_traits@D@std@@V?$allocator@D@2@@1@@Z PROC NEAR ; std::length_error::length_error, COMDAT
; _this$ = ecx

; 95   : 		{	// construct from message string

  00000	8b 44 24 04	 mov	 eax, DWORD PTR __Message$[esp-4]
  00004	56		 push	 esi
  00005	50		 push	 eax
  00006	8b f1		 mov	 esi, ecx
  00008	e8 00 00 00 00	 call	 ??0logic_error@std@@QAE@ABV?$basic_string@DU?$char_traits@D@std@@V?$allocator@D@2@@1@@Z ; std::logic_error::logic_error
  0000d	c7 06 00 00 00
	00		 mov	 DWORD PTR [esi], OFFSET FLAT:??_7length_error@std@@6B@

; 96   : 		}

  00013	8b c6		 mov	 eax, esi
  00015	5e		 pop	 esi
  00016	c2 04 00	 ret	 4
??0length_error@std@@QAE@ABV?$basic_string@DU?$char_traits@D@std@@V?$allocator@D@2@@1@@Z ENDP ; std::length_error::length_error
_TEXT	ENDS
PUBLIC	??1length_error@std@@UAE@XZ			; std::length_error::~length_error
; Function compile flags: /Ogty
;	COMDAT ??_Glength_error@std@@UAEPAXI@Z
_TEXT	SEGMENT
___flags$ = 8						; size = 4
??_Glength_error@std@@UAEPAXI@Z PROC NEAR		; std::length_error::`scalar deleting destructor', COMDAT
; _this$ = ecx
  00000	56		 push	 esi
  00001	8b f1		 mov	 esi, ecx
  00003	e8 00 00 00 00	 call	 ??1length_error@std@@UAE@XZ ; std::length_error::~length_error
  00008	f6 44 24 08 01	 test	 BYTE PTR ___flags$[esp], 1
  0000d	74 09		 je	 SHORT $L236253
  0000f	56		 push	 esi
  00010	e8 00 00 00 00	 call	 ??3@YAXPAX@Z		; operator delete
  00015	83 c4 04	 add	 esp, 4
$L236253:
  00018	8b c6		 mov	 eax, esi
  0001a	5e		 pop	 esi
  0001b	c2 04 00	 ret	 4
??_Glength_error@std@@UAEPAXI@Z ENDP			; std::length_error::`scalar deleting destructor'
; Function compile flags: /Ogty
_TEXT	ENDS
;	COMDAT ??1length_error@std@@UAE@XZ
_TEXT	SEGMENT
??1length_error@std@@UAE@XZ PROC NEAR			; std::length_error::~length_error, COMDAT
; _this$ = ecx

; 99   : 		{}	// destroy the object

  00000	56		 push	 esi
  00001	8b f1		 mov	 esi, ecx
  00003	c7 06 00 00 00
	00		 mov	 DWORD PTR [esi], OFFSET FLAT:??_7logic_error@std@@6B@
  00009	83 7e 24 10	 cmp	 DWORD PTR [esi+36], 16	; 00000010H
  0000d	72 0c		 jb	 SHORT $L236341
  0000f	8b 46 10	 mov	 eax, DWORD PTR [esi+16]
  00012	50		 push	 eax
  00013	e8 00 00 00 00	 call	 ??3@YAXPAX@Z		; operator delete
  00018	83 c4 04	 add	 esp, 4
$L236341:
  0001b	33 c0		 xor	 eax, eax
  0001d	c7 46 24 0f 00
	00 00		 mov	 DWORD PTR [esi+36], 15	; 0000000fH
  00024	89 46 20	 mov	 DWORD PTR [esi+32], eax
  00027	88 46 10	 mov	 BYTE PTR [esi+16], al
  0002a	8b ce		 mov	 ecx, esi
  0002c	5e		 pop	 esi
  0002d	e9 00 00 00 00	 jmp	 ??1exception@@UAE@XZ	; exception::~exception
??1length_error@std@@UAE@XZ ENDP			; std::length_error::~length_error
_TEXT	ENDS
PUBLIC	??0out_of_range@std@@QAE@ABV?$basic_string@DU?$char_traits@D@std@@V?$allocator@D@2@@1@@Z ; std::out_of_range::out_of_range
PUBLIC	??_7out_of_range@std@@6B@			; std::out_of_range::`vftable'
PUBLIC	??_Gout_of_range@std@@UAEPAXI@Z			; std::out_of_range::`scalar deleting destructor'
EXTRN	??_Eout_of_range@std@@UAEPAXI@Z:NEAR		; std::out_of_range::`vector deleting destructor'
;	COMDAT ??_7out_of_range@std@@6B@
CONST	SEGMENT
??_7out_of_range@std@@6B@ DD FLAT:??_Eout_of_range@std@@UAEPAXI@Z ; std::out_of_range::`vftable'
	DD	FLAT:?what@logic_error@std@@UBEPBDXZ
; Function compile flags: /Ogty
CONST	ENDS
;	COMDAT ??0out_of_range@std@@QAE@ABV?$basic_string@DU?$char_traits@D@std@@V?$allocator@D@2@@1@@Z
_TEXT	SEGMENT
__Message$ = 8						; size = 4
??0out_of_range@std@@QAE@ABV?$basic_string@DU?$char_traits@D@std@@V?$allocator@D@2@@1@@Z PROC NEAR ; std::out_of_range::out_of_range, COMDAT
; _this$ = ecx

; 118  : 		{	// construct from message string

  00000	8b 44 24 04	 mov	 eax, DWORD PTR __Message$[esp-4]
  00004	56		 push	 esi
  00005	50		 push	 eax
  00006	8b f1		 mov	 esi, ecx
  00008	e8 00 00 00 00	 call	 ??0logic_error@std@@QAE@ABV?$basic_string@DU?$char_traits@D@std@@V?$allocator@D@2@@1@@Z ; std::logic_error::logic_error
  0000d	c7 06 00 00 00
	00		 mov	 DWORD PTR [esi], OFFSET FLAT:??_7out_of_range@std@@6B@

; 119  : 		}

  00013	8b c6		 mov	 eax, esi
  00015	5e		 pop	 esi
  00016	c2 04 00	 ret	 4
??0out_of_range@std@@QAE@ABV?$basic_string@DU?$char_traits@D@std@@V?$allocator@D@2@@1@@Z ENDP ; std::out_of_range::out_of_range
_TEXT	ENDS
PUBLIC	??1out_of_range@std@@UAE@XZ			; std::out_of_range::~out_of_range
; Function compile flags: /Ogty
;	COMDAT ??_Gout_of_range@std@@UAEPAXI@Z
_TEXT	SEGMENT
___flags$ = 8						; size = 4
??_Gout_of_range@std@@UAEPAXI@Z PROC NEAR		; std::out_of_range::`scalar deleting destructor', COMDAT
; _this$ = ecx
  00000	56		 push	 esi
  00001	8b f1		 mov	 esi, ecx
  00003	e8 00 00 00 00	 call	 ??1out_of_range@std@@UAE@XZ ; std::out_of_range::~out_of_range
  00008	f6 44 24 08 01	 test	 BYTE PTR ___flags$[esp], 1
  0000d	74 09		 je	 SHORT $L236367
  0000f	56		 push	 esi
  00010	e8 00 00 00 00	 call	 ??3@YAXPAX@Z		; operator delete
  00015	83 c4 04	 add	 esp, 4
$L236367:
  00018	8b c6		 mov	 eax, esi
  0001a	5e		 pop	 esi
  0001b	c2 04 00	 ret	 4
??_Gout_of_range@std@@UAEPAXI@Z ENDP			; std::out_of_range::`scalar deleting destructor'
; Function compile flags: /Ogty
_TEXT	ENDS
;	COMDAT ??1out_of_range@std@@UAE@XZ
_TEXT	SEGMENT
??1out_of_range@std@@UAE@XZ PROC NEAR			; std::out_of_range::~out_of_range, COMDAT
; _this$ = ecx

; 122  : 		{}	// destroy the object

  00000	56		 push	 esi
  00001	8b f1		 mov	 esi, ecx
  00003	c7 06 00 00 00
	00		 mov	 DWORD PTR [esi], OFFSET FLAT:??_7logic_error@std@@6B@
  00009	83 7e 24 10	 cmp	 DWORD PTR [esi+36], 16	; 00000010H
  0000d	72 0c		 jb	 SHORT $L236456
  0000f	8b 46 10	 mov	 eax, DWORD PTR [esi+16]
  00012	50		 push	 eax
  00013	e8 00 00 00 00	 call	 ??3@YAXPAX@Z		; operator delete
  00018	83 c4 04	 add	 esp, 4
$L236456:
  0001b	33 c0		 xor	 eax, eax
  0001d	c7 46 24 0f 00
	00 00		 mov	 DWORD PTR [esi+36], 15	; 0000000fH
  00024	89 46 20	 mov	 DWORD PTR [esi+32], eax
  00027	88 46 10	 mov	 BYTE PTR [esi+16], al
  0002a	8b ce		 mov	 ecx, esi
  0002c	5e		 pop	 esi
  0002d	e9 00 00 00 00	 jmp	 ??1exception@@UAE@XZ	; exception::~exception
??1out_of_range@std@@UAE@XZ ENDP			; std::out_of_range::~out_of_range
_TEXT	ENDS
PUBLIC	??0?$basic_string@DU?$char_traits@D@std@@V?$allocator@D@2@@std@@QAE@PBD@Z ; std::basic_string<char,std::char_traits<char>,std::allocator<char> >::basic_string<char,std::char_traits<char>,std::allocator<char> >
; Function compile flags: /Ogty
; File c:\program files\microsoft visual studio .net 2003\vc7\include\xstring
;	COMDAT ??0?$basic_string@DU?$char_traits@D@std@@V?$allocator@D@2@@std@@QAE@PBD@Z
_TEXT	SEGMENT
__Ptr$ = 8						; size = 4
??0?$basic_string@DU?$char_traits@D@std@@V?$allocator@D@2@@std@@QAE@PBD@Z PROC NEAR ; std::basic_string<char,std::char_traits<char>,std::allocator<char> >::basic_string<char,std::char_traits<char>,std::allocator<char> >, COMDAT
; _this$ = ecx

; 361  : 		_Tidy();
; 362  : 		assign(_Ptr);

  00000	8b 54 24 04	 mov	 edx, DWORD PTR __Ptr$[esp-4]
  00004	56		 push	 esi
  00005	8b f1		 mov	 esi, ecx
  00007	8b c2		 mov	 eax, edx
  00009	57		 push	 edi
  0000a	c7 46 18 0f 00
	00 00		 mov	 DWORD PTR [esi+24], 15	; 0000000fH
  00011	c7 46 14 00 00
	00 00		 mov	 DWORD PTR [esi+20], 0
  00018	c6 46 04 00	 mov	 BYTE PTR [esi+4], 0
  0001c	8d 78 01	 lea	 edi, DWORD PTR [eax+1]
  0001f	90		 npad	 1
$L236549:
  00020	8a 08		 mov	 cl, BYTE PTR [eax]
  00022	40		 inc	 eax
  00023	84 c9		 test	 cl, cl
  00025	75 f9		 jne	 SHORT $L236549
  00027	2b c7		 sub	 eax, edi
  00029	50		 push	 eax
  0002a	52		 push	 edx
  0002b	8b ce		 mov	 ecx, esi
  0002d	e8 00 00 00 00	 call	 ?assign@?$basic_string@DU?$char_traits@D@std@@V?$allocator@D@2@@std@@QAEAAV12@PBDI@Z ; std::basic_string<char,std::char_traits<char>,std::allocator<char> >::assign
  00032	5f		 pop	 edi

; 363  : 		}

  00033	8b c6		 mov	 eax, esi
  00035	5e		 pop	 esi
  00036	c2 04 00	 ret	 4
??0?$basic_string@DU?$char_traits@D@std@@V?$allocator@D@2@@std@@QAE@PBD@Z ENDP ; std::basic_string<char,std::char_traits<char>,std::allocator<char> >::basic_string<char,std::char_traits<char>,std::allocator<char> >
; Function compile flags: /Ogty
_TEXT	ENDS
;	COMDAT ??_GCRespawner@@UAEPAXI@Z
_TEXT	SEGMENT
___flags$ = 8						; size = 4
??_GCRespawner@@UAEPAXI@Z PROC NEAR			; CRespawner::`scalar deleting destructor', COMDAT
; _this$ = ecx
  00000	56		 push	 esi
  00001	8b f1		 mov	 esi, ecx
  00003	e8 00 00 00 00	 call	 ??1CRespawner@@UAE@XZ	; CRespawner::~CRespawner
  00008	f6 44 24 08 01	 test	 BYTE PTR ___flags$[esp], 1
  0000d	74 09		 je	 SHORT $L236553
  0000f	56		 push	 esi
  00010	e8 00 00 00 00	 call	 ??3@YAXPAX@Z		; operator delete
  00015	83 c4 04	 add	 esp, 4
$L236553:
  00018	8b c6		 mov	 eax, esi
  0001a	5e		 pop	 esi
  0001b	c2 04 00	 ret	 4
??_GCRespawner@@UAEPAXI@Z ENDP				; CRespawner::`scalar deleting destructor'
_TEXT	ENDS
PUBLIC	??_R0?AVlogic_error@std@@@8			; std::logic_error `RTTI Type Descriptor'
PUBLIC	__CT??_R0?AVlogic_error@std@@@8??0logic_error@std@@QAE@ABV01@@Z40
PUBLIC	??_R0?AVexception@@@8				; exception `RTTI Type Descriptor'
PUBLIC	__CT??_R0?AVexception@@@8??0exception@@QAE@ABV0@@Z12
PUBLIC	__TI3?AVout_of_range@std@@
PUBLIC	__CTA3?AVout_of_range@std@@
PUBLIC	??_R0?AVout_of_range@std@@@8			; std::out_of_range `RTTI Type Descriptor'
PUBLIC	__CT??_R0?AVout_of_range@std@@@8??0out_of_range@std@@QAE@ABV01@@Z40
PUBLIC	??_C@_0BM@PAPJHAGI@invalid?5map?1set?$DMT?$DO?5iterator?$AA@ ; `string'
PUBLIC	?erase@?$_Tree@V?$_Tmap_traits@HPAVCRespawner@@U?$less@H@std@@V?$allocator@U?$pair@$$CBHPAVCRespawner@@@std@@@3@$0A@@std@@@std@@QAE?AViterator@12@V312@@Z ; std::_Tree<std::_Tmap_traits<int,CRespawner *,std::less<int>,std::allocator<std::pair<int const ,CRespawner *> >,0> >::erase
PUBLIC	??0logic_error@std@@QAE@ABV01@@Z		; std::logic_error::logic_error
PUBLIC	??0out_of_range@std@@QAE@ABV01@@Z		; std::out_of_range::out_of_range
EXTRN	??0exception@@QAE@ABV0@@Z:NEAR			; exception::exception
EXTRN	??_7type_info@@6B@:DWORD			; type_info::`vftable'
;	COMDAT xdata$x
; File c:\program files\microsoft visual studio .net 2003\vc7\include\xmemory
xdata$x	SEGMENT
$T237049 DD	0ffffffffH
	DD	FLAT:$L236563
$T237041 DD	019930520H
	DD	01H
	DD	FLAT:$T237049
	DD	2 DUP(00H)
	DD	2 DUP(00H)
xdata$x	ENDS
;	COMDAT ??_C@_0BM@PAPJHAGI@invalid?5map?1set?$DMT?$DO?5iterator?$AA@
CONST	SEGMENT
??_C@_0BM@PAPJHAGI@invalid?5map?1set?$DMT?$DO?5iterator?$AA@ DB 'invalid '
	DB	'map/set<T> iterator', 00H			; `string'
CONST	ENDS
;	COMDAT __TI3?AVout_of_range@std@@
xdata$x	SEGMENT
__TI3?AVout_of_range@std@@ DD 00H
	DD	FLAT:??1out_of_range@std@@UAE@XZ
	DD	00H
	DD	FLAT:__CTA3?AVout_of_range@std@@
xdata$x	ENDS
;	COMDAT __CTA3?AVout_of_range@std@@
xdata$x	SEGMENT
__CTA3?AVout_of_range@std@@ DD 03H
	DD	FLAT:__CT??_R0?AVout_of_range@std@@@8??0out_of_range@std@@QAE@ABV01@@Z40
	DD	FLAT:__CT??_R0?AVlogic_error@std@@@8??0logic_error@std@@QAE@ABV01@@Z40
	DD	FLAT:__CT??_R0?AVexception@@@8??0exception@@QAE@ABV0@@Z12
xdata$x	ENDS
;	COMDAT __CT??_R0?AVout_of_range@std@@@8??0out_of_range@std@@QAE@ABV01@@Z40
xdata$x	SEGMENT
__CT??_R0?AVout_of_range@std@@@8??0out_of_range@std@@QAE@ABV01@@Z40 DD 00H
	DD	FLAT:??_R0?AVout_of_range@std@@@8
	DD	00H
	DD	0ffffffffH
	ORG $+4
	DD	028H
	DD	FLAT:??0out_of_range@std@@QAE@ABV01@@Z
xdata$x	ENDS
;	COMDAT ??_R0?AVout_of_range@std@@@8
_DATA	SEGMENT
??_R0?AVout_of_range@std@@@8 DD FLAT:??_7type_info@@6B@	; std::out_of_range `RTTI Type Descriptor'
	DD	00H
	DB	'.?AVout_of_range@std@@', 00H
_DATA	ENDS
;	COMDAT __CT??_R0?AVlogic_error@std@@@8??0logic_error@std@@QAE@ABV01@@Z40
xdata$x	SEGMENT
__CT??_R0?AVlogic_error@std@@@8??0logic_error@std@@QAE@ABV01@@Z40 DD 00H
	DD	FLAT:??_R0?AVlogic_error@std@@@8
	DD	00H
	DD	0ffffffffH
	ORG $+4
	DD	028H
	DD	FLAT:??0logic_error@std@@QAE@ABV01@@Z
xdata$x	ENDS
;	COMDAT ??_R0?AVlogic_error@std@@@8
_DATA	SEGMENT
??_R0?AVlogic_error@std@@@8 DD FLAT:??_7type_info@@6B@	; std::logic_error `RTTI Type Descriptor'
	DD	00H
	DB	'.?AVlogic_error@std@@', 00H
_DATA	ENDS
;	COMDAT __CT??_R0?AVexception@@@8??0exception@@QAE@ABV0@@Z12
xdata$x	SEGMENT
__CT??_R0?AVexception@@@8??0exception@@QAE@ABV0@@Z12 DD 00H
	DD	FLAT:??_R0?AVexception@@@8
	DD	00H
	DD	0ffffffffH
	ORG $+4
	DD	0cH
	DD	FLAT:??0exception@@QAE@ABV0@@Z
xdata$x	ENDS
;	COMDAT ??_R0?AVexception@@@8
_DATA	SEGMENT
??_R0?AVexception@@@8 DD FLAT:??_7type_info@@6B@	; exception `RTTI Type Descriptor'
	DD	00H
	DB	'.?AVexception@@', 00H
; Function compile flags: /Ogty
; File c:\program files\microsoft visual studio .net 2003\vc7\include\xtree
_DATA	ENDS
;	COMDAT ?erase@?$_Tree@V?$_Tmap_traits@HPAVCRespawner@@U?$less@H@std@@V?$allocator@U?$pair@$$CBHPAVCRespawner@@@std@@@3@$0A@@std@@@std@@QAE?AViterator@12@V312@@Z
_TEXT	SEGMENT
__Erasednode$ = -84					; size = 4
$T236558 = -80						; size = 28
$T236557 = -52						; size = 40
__$EHRec$ = -12						; size = 12
___$ReturnUdt$ = 8					; size = 4
__Where$ = 12						; size = 4
?erase@?$_Tree@V?$_Tmap_traits@HPAVCRespawner@@U?$less@H@std@@V?$allocator@U?$pair@$$CBHPAVCRespawner@@@std@@@3@$0A@@std@@@std@@QAE?AViterator@12@V312@@Z PROC NEAR ; std::_Tree<std::_Tmap_traits<int,CRespawner *,std::less<int>,std::allocator<std::pair<int const ,CRespawner *> >,0> >::erase, COMDAT
; _this$ = ecx

; 590  : 		{	// erase element at _Where

  00000	64 a1 00 00 00
	00		 mov	 eax, DWORD PTR fs:__except_list
  00006	6a ff		 push	 -1
  00008	68 00 00 00 00	 push	 __ehhandler$?erase@?$_Tree@V?$_Tmap_traits@HPAVCRespawner@@U?$less@H@std@@V?$allocator@U?$pair@$$CBHPAVCRespawner@@@std@@@3@$0A@@std@@@std@@QAE?AViterator@12@V312@@Z
  0000d	50		 push	 eax

; 591  : 		if (_Isnil(_Where._Mynode()))

  0000e	8b 44 24 14	 mov	 eax, DWORD PTR __Where$[esp+8]
  00012	64 89 25 00 00
	00 00		 mov	 DWORD PTR fs:__except_list, esp
  00019	83 ec 48	 sub	 esp, 72			; 00000048H
  0001c	55		 push	 ebp
  0001d	8b e9		 mov	 ebp, ecx
  0001f	8a 48 15	 mov	 cl, BYTE PTR [eax+21]
  00022	84 c9		 test	 cl, cl
  00024	56		 push	 esi
  00025	74 4c		 je	 SHORT $L229092

; 592  : 			_THROW(out_of_range, "invalid map/set<T> iterator");

  00027	6a 1b		 push	 27			; 0000001bH
  00029	33 f6		 xor	 esi, esi
  0002b	68 00 00 00 00	 push	 OFFSET FLAT:??_C@_0BM@PAPJHAGI@invalid?5map?1set?$DMT?$DO?5iterator?$AA@
  00030	8d 4c 24 14	 lea	 ecx, DWORD PTR $T236558[esp+100]
  00034	c7 44 24 2c 0f
	00 00 00	 mov	 DWORD PTR $T236558[esp+124], 15 ; 0000000fH
  0003c	89 74 24 28	 mov	 DWORD PTR $T236558[esp+120], esi
  00040	c6 44 24 18 00	 mov	 BYTE PTR $T236558[esp+104], 0
  00045	e8 00 00 00 00	 call	 ?assign@?$basic_string@DU?$char_traits@D@std@@V?$allocator@D@2@@std@@QAEAAV12@PBDI@Z ; std::basic_string<char,std::char_traits<char>,std::allocator<char> >::assign
  0004a	8d 44 24 0c	 lea	 eax, DWORD PTR $T236558[esp+92]
  0004e	50		 push	 eax
  0004f	8d 4c 24 2c	 lea	 ecx, DWORD PTR $T236557[esp+96]
  00053	89 74 24 5c	 mov	 DWORD PTR __$EHRec$[esp+104], esi
  00057	e8 00 00 00 00	 call	 ??0logic_error@std@@QAE@ABV?$basic_string@DU?$char_traits@D@std@@V?$allocator@D@2@@1@@Z ; std::logic_error::logic_error
  0005c	68 00 00 00 00	 push	 OFFSET FLAT:__TI3?AVout_of_range@std@@
  00061	8d 4c 24 2c	 lea	 ecx, DWORD PTR $T236557[esp+96]
  00065	51		 push	 ecx
  00066	c7 44 24 30 00
	00 00 00	 mov	 DWORD PTR $T236557[esp+100], OFFSET FLAT:??_7out_of_range@std@@6B@
  0006e	e8 00 00 00 00	 call	 __CxxThrowException@8
$L237050:
$L229092:
  00073	53		 push	 ebx

; 593  : 		_Nodeptr _Erasednode = _Where._Mynode();	// node to erase

  00074	8b d8		 mov	 ebx, eax
  00076	57		 push	 edi

; 594  : 		++_Where;	// save successor iterator for return

  00077	8d 4c 24 6c	 lea	 ecx, DWORD PTR __Where$[esp+96]
  0007b	89 5c 24 10	 mov	 DWORD PTR __Erasednode$[esp+100], ebx
  0007f	e8 00 00 00 00	 call	 ?_Inc@const_iterator@?$_Tree@V?$_Tmap_traits@HPAVCRespawner@@U?$less@H@std@@V?$allocator@U?$pair@$$CBHPAVCRespawner@@@std@@@3@$0A@@std@@@std@@QAEXXZ ; std::_Tree<std::_Tmap_traits<int,CRespawner *,std::less<int>,std::allocator<std::pair<int const ,CRespawner *> >,0> >::const_iterator::_Inc

; 595  : 
; 596  : 		_Nodeptr _Fixnode;	// the node to recolor as needed
; 597  : 		_Nodeptr _Fixnodeparent;	// parent of _Fixnode (which may be nil)
; 598  : 		_Nodeptr _Pnode = _Erasednode;
; 599  : 
; 600  : 		if (_Isnil(_Left(_Pnode)))

  00084	8b 03		 mov	 eax, DWORD PTR [ebx]
  00086	8a 48 15	 mov	 cl, BYTE PTR [eax+21]
  00089	84 c9		 test	 cl, cl
  0008b	74 05		 je	 SHORT $L229100

; 601  : 			_Fixnode = _Right(_Pnode);	// must stitch up right subtree

  0008d	8b 7b 08	 mov	 edi, DWORD PTR [ebx+8]

; 602  : 		else if (_Isnil(_Right(_Pnode)))

  00090	eb 19		 jmp	 SHORT $L237044
$L229100:
  00092	8b 53 08	 mov	 edx, DWORD PTR [ebx+8]
  00095	8a 4a 15	 mov	 cl, BYTE PTR [edx+21]
  00098	84 c9		 test	 cl, cl
  0009a	74 04		 je	 SHORT $L229102

; 603  : 			_Fixnode = _Left(_Pnode);	// must stitch up left subtree

  0009c	8b f8		 mov	 edi, eax

; 604  : 		else

  0009e	eb 0b		 jmp	 SHORT $L237044
$L229102:

; 605  : 			{	// two subtrees, must lift successor node to replace erased
; 606  : 			_Pnode = _Where._Mynode();	// _Pnode is successor node
; 607  : 			_Fixnode = _Right(_Pnode);	// _Fixnode is its only subtree

  000a0	8b 4c 24 6c	 mov	 ecx, DWORD PTR __Where$[esp+96]

; 608  : 			}
; 609  : 
; 610  : 		if (_Pnode == _Erasednode)

  000a4	3b cb		 cmp	 ecx, ebx
  000a6	8b 79 08	 mov	 edi, DWORD PTR [ecx+8]
  000a9	75 6e		 jne	 SHORT $L229104
$L237044:

; 611  : 			{	// at most one subtree, relink it
; 612  : 			_Fixnodeparent = _Parent(_Erasednode);
; 613  : 			if (!_Isnil(_Fixnode))

  000ab	8a 47 15	 mov	 al, BYTE PTR [edi+21]
  000ae	84 c0		 test	 al, al
  000b0	8b 73 04	 mov	 esi, DWORD PTR [ebx+4]
  000b3	75 03		 jne	 SHORT $L229105

; 614  : 				_Parent(_Fixnode) = _Fixnodeparent;	// link up

  000b5	89 77 04	 mov	 DWORD PTR [edi+4], esi
$L229105:

; 615  : 
; 616  : 			if (_Root() == _Erasednode)

  000b8	8b 45 04	 mov	 eax, DWORD PTR [ebp+4]
  000bb	39 58 04	 cmp	 DWORD PTR [eax+4], ebx
  000be	75 05		 jne	 SHORT $L229106

; 617  : 				_Root() = _Fixnode;	// link down from root

  000c0	89 78 04	 mov	 DWORD PTR [eax+4], edi

; 618  : 			else if (_Left(_Fixnodeparent) == _Erasednode)

  000c3	eb 0b		 jmp	 SHORT $L229109
$L229106:
  000c5	39 1e		 cmp	 DWORD PTR [esi], ebx
  000c7	75 04		 jne	 SHORT $L229108

; 619  : 				_Left(_Fixnodeparent) = _Fixnode;	// link down to left

  000c9	89 3e		 mov	 DWORD PTR [esi], edi

; 620  : 			else

  000cb	eb 03		 jmp	 SHORT $L229109
$L229108:

; 621  : 				_Right(_Fixnodeparent) = _Fixnode;	// link down to right

  000cd	89 7e 08	 mov	 DWORD PTR [esi+8], edi
$L229109:

; 622  : 
; 623  : 			if (_Lmost() == _Erasednode)

  000d0	8b 5d 04	 mov	 ebx, DWORD PTR [ebp+4]
  000d3	8b 03		 mov	 eax, DWORD PTR [ebx]
  000d5	3b 44 24 10	 cmp	 eax, DWORD PTR __Erasednode$[esp+100]
  000d9	75 16		 jne	 SHORT $L229110

; 624  : 				_Lmost() = _Isnil(_Fixnode)
; 625  : 					? _Fixnodeparent	// smallest is parent of erased node
; 626  : 					: _Min(_Fixnode);	// smallest in relinked subtree

  000db	8a 47 15	 mov	 al, BYTE PTR [edi+21]
  000de	84 c0		 test	 al, al
  000e0	74 04		 je	 SHORT $L236559
  000e2	8b c6		 mov	 eax, esi
  000e4	eb 09		 jmp	 SHORT $L236560
$L236559:
  000e6	57		 push	 edi
  000e7	e8 00 00 00 00	 call	 ?_Min@?$_Tree@V?$_Tmap_traits@HPAVCRespawner@@U?$less@H@std@@V?$allocator@U?$pair@$$CBHPAVCRespawner@@@std@@@3@$0A@@std@@@std@@KAPAU_Node@?$_Tree_nod@V?$_Tmap_traits@HPAVCRespawner@@U?$less@H@std@@V?$allocator@U?$pair@$$CBHPAVCRespawner@@@std@@@3@$0A@@std@@@2@PAU342@@Z ; std::_Tree<std::_Tmap_traits<int,CRespawner *,std::less<int>,std::allocator<std::pair<int const ,CRespawner *> >,0> >::_Min
  000ec	83 c4 04	 add	 esp, 4
$L236560:
  000ef	89 03		 mov	 DWORD PTR [ebx], eax
$L229110:

; 627  : 
; 628  : 			if (_Rmost() == _Erasednode)

  000f1	8b 5d 04	 mov	 ebx, DWORD PTR [ebp+4]
  000f4	8b 4c 24 10	 mov	 ecx, DWORD PTR __Erasednode$[esp+100]
  000f8	39 4b 08	 cmp	 DWORD PTR [ebx+8], ecx
  000fb	75 74		 jne	 SHORT $L236878

; 629  : 				_Rmost() = _Isnil(_Fixnode)
; 630  : 					? _Fixnodeparent	// largest is parent of erased node
; 631  : 					: _Max(_Fixnode);	// largest in relinked subtree

  000fd	8a 47 15	 mov	 al, BYTE PTR [edi+21]
  00100	84 c0		 test	 al, al
  00102	74 07		 je	 SHORT $L236561
  00104	8b c6		 mov	 eax, esi
  00106	89 43 08	 mov	 DWORD PTR [ebx+8], eax

; 632  : 			}
; 633  : 		else

  00109	eb 66		 jmp	 SHORT $L236878
$L236561:

; 629  : 				_Rmost() = _Isnil(_Fixnode)
; 630  : 					? _Fixnodeparent	// largest is parent of erased node
; 631  : 					: _Max(_Fixnode);	// largest in relinked subtree

  0010b	57		 push	 edi
  0010c	e8 00 00 00 00	 call	 ?_Max@?$_Tree@V?$_Tmap_traits@HPAVCRespawner@@U?$less@H@std@@V?$allocator@U?$pair@$$CBHPAVCRespawner@@@std@@@3@$0A@@std@@@std@@KAPAU_Node@?$_Tree_nod@V?$_Tmap_traits@HPAVCRespawner@@U?$less@H@std@@V?$allocator@U?$pair@$$CBHPAVCRespawner@@@std@@@3@$0A@@std@@@2@PAU342@@Z ; std::_Tree<std::_Tmap_traits<int,CRespawner *,std::less<int>,std::allocator<std::pair<int const ,CRespawner *> >,0> >::_Max
  00111	83 c4 04	 add	 esp, 4
  00114	89 43 08	 mov	 DWORD PTR [ebx+8], eax

; 632  : 			}
; 633  : 		else

  00117	eb 58		 jmp	 SHORT $L236878
$L229104:

; 634  : 			{	// erased has two subtrees, _Pnode is successor to erased
; 635  : 			_Parent(_Left(_Erasednode)) = _Pnode;	// link left up

  00119	89 48 04	 mov	 DWORD PTR [eax+4], ecx

; 636  : 			_Left(_Pnode) = _Left(_Erasednode);	// link successor down

  0011c	8b 13		 mov	 edx, DWORD PTR [ebx]
  0011e	89 11		 mov	 DWORD PTR [ecx], edx

; 637  : 
; 638  : 			if (_Pnode == _Right(_Erasednode))

  00120	3b 4b 08	 cmp	 ecx, DWORD PTR [ebx+8]
  00123	75 04		 jne	 SHORT $L229113

; 639  : 				_Fixnodeparent = _Pnode;	// successor is next to erased

  00125	8b f1		 mov	 esi, ecx

; 640  : 			else

  00127	eb 1b		 jmp	 SHORT $L229114
$L229113:

; 641  : 				{	// successor further down, link in place of erased
; 642  : 				_Fixnodeparent = _Parent(_Pnode);	// parent is successor's
; 643  : 				if (!_Isnil(_Fixnode))

  00129	8a 47 15	 mov	 al, BYTE PTR [edi+21]
  0012c	84 c0		 test	 al, al
  0012e	8b 71 04	 mov	 esi, DWORD PTR [ecx+4]
  00131	75 03		 jne	 SHORT $L229115

; 644  : 					_Parent(_Fixnode) = _Fixnodeparent;	// link fix up

  00133	89 77 04	 mov	 DWORD PTR [edi+4], esi
$L229115:

; 645  : 				_Left(_Fixnodeparent) = _Fixnode;	// link fix down

  00136	89 3e		 mov	 DWORD PTR [esi], edi

; 646  : 				_Right(_Pnode) = _Right(_Erasednode);	// link successor down

  00138	8b 43 08	 mov	 eax, DWORD PTR [ebx+8]
  0013b	89 41 08	 mov	 DWORD PTR [ecx+8], eax

; 647  : 				_Parent(_Right(_Erasednode)) = _Pnode;	// link right up

  0013e	8b 53 08	 mov	 edx, DWORD PTR [ebx+8]
  00141	89 4a 04	 mov	 DWORD PTR [edx+4], ecx
$L229114:

; 648  : 				}
; 649  : 
; 650  : 			if (_Root() == _Erasednode)

  00144	8b 45 04	 mov	 eax, DWORD PTR [ebp+4]
  00147	39 58 04	 cmp	 DWORD PTR [eax+4], ebx
  0014a	75 05		 jne	 SHORT $L229116

; 651  : 				_Root() = _Pnode;	// link down from root

  0014c	89 48 04	 mov	 DWORD PTR [eax+4], ecx

; 652  : 			else if (_Left(_Parent(_Erasednode)) == _Erasednode)

  0014f	eb 0e		 jmp	 SHORT $L229119
$L229116:
  00151	8b 43 04	 mov	 eax, DWORD PTR [ebx+4]
  00154	39 18		 cmp	 DWORD PTR [eax], ebx
  00156	75 04		 jne	 SHORT $L229118

; 653  : 				_Left(_Parent(_Erasednode)) = _Pnode;	// link down to left

  00158	89 08		 mov	 DWORD PTR [eax], ecx

; 654  : 			else

  0015a	eb 03		 jmp	 SHORT $L229119
$L229118:

; 655  : 				_Right(_Parent(_Erasednode)) = _Pnode;	// link down to right

  0015c	89 48 08	 mov	 DWORD PTR [eax+8], ecx
$L229119:

; 656  : 
; 657  : 			_Parent(_Pnode) = _Parent(_Erasednode);	// link successor up

  0015f	8b 43 04	 mov	 eax, DWORD PTR [ebx+4]
  00162	89 41 04	 mov	 DWORD PTR [ecx+4], eax

; 658  : 			std::swap(_Color(_Pnode), _Color(_Erasednode));	// recolor it

  00165	8a 53 14	 mov	 dl, BYTE PTR [ebx+20]
  00168	8a 41 14	 mov	 al, BYTE PTR [ecx+20]
  0016b	88 51 14	 mov	 BYTE PTR [ecx+20], dl
  0016e	88 43 14	 mov	 BYTE PTR [ebx+20], al
$L236878:

; 659  : 			}
; 660  : 
; 661  : 		if (_Color(_Erasednode) == _Black)

  00171	8b 44 24 10	 mov	 eax, DWORD PTR __Erasednode$[esp+100]
  00175	8a 48 14	 mov	 cl, BYTE PTR [eax+20]
  00178	b3 01		 mov	 bl, 1
  0017a	3a cb		 cmp	 cl, bl
  0017c	0f 85 ff 00 00
	00		 jne	 $L229120

; 662  : 			{	// erasing black link, must recolor/rebalance tree
; 663  : 			for (; _Fixnode != _Root() && _Color(_Fixnode) == _Black;
; 664  : 				_Fixnodeparent = _Parent(_Fixnode))

  00182	8b 4d 04	 mov	 ecx, DWORD PTR [ebp+4]
  00185	3b 79 04	 cmp	 edi, DWORD PTR [ecx+4]
  00188	0f 84 f0 00 00
	00		 je	 $L229123
  0018e	8b ff		 npad	 2
$L229121:
  00190	38 5f 14	 cmp	 BYTE PTR [edi+20], bl
  00193	0f 85 e5 00 00
	00		 jne	 $L229123

; 665  : 				if (_Fixnode == _Left(_Fixnodeparent))

  00199	8b 06		 mov	 eax, DWORD PTR [esi]
  0019b	3b f8		 cmp	 edi, eax
  0019d	75 67		 jne	 SHORT $L229124

; 666  : 					{	// fixup left subtree
; 667  : 					_Pnode = _Right(_Fixnodeparent);

  0019f	8b 46 08	 mov	 eax, DWORD PTR [esi+8]

; 668  : 					if (_Color(_Pnode) == _Red)

  001a2	8a 48 14	 mov	 cl, BYTE PTR [eax+20]
  001a5	84 c9		 test	 cl, cl
  001a7	75 12		 jne	 SHORT $L229125

; 669  : 						{	// rotate red up from right subtree
; 670  : 						_Color(_Pnode) = _Black;

  001a9	88 58 14	 mov	 BYTE PTR [eax+20], bl

; 671  : 						_Color(_Fixnodeparent) = _Red;
; 672  : 						_Lrotate(_Fixnodeparent);

  001ac	56		 push	 esi
  001ad	8b cd		 mov	 ecx, ebp
  001af	c6 46 14 00	 mov	 BYTE PTR [esi+20], 0
  001b3	e8 00 00 00 00	 call	 ?_Lrotate@?$_Tree@V?$_Tmap_traits@HPAVCRespawner@@U?$less@H@std@@V?$allocator@U?$pair@$$CBHPAVCRespawner@@@std@@@3@$0A@@std@@@std@@IAEXPAU_Node@?$_Tree_nod@V?$_Tmap_traits@HPAVCRespawner@@U?$less@H@std@@V?$allocator@U?$pair@$$CBHPAVCRespawner@@@std@@@3@$0A@@std@@@2@@Z ; std::_Tree<std::_Tmap_traits<int,CRespawner *,std::less<int>,std::allocator<std::pair<int const ,CRespawner *> >,0> >::_Lrotate

; 673  : 						_Pnode = _Right(_Fixnodeparent);

  001b8	8b 46 08	 mov	 eax, DWORD PTR [esi+8]
$L229125:

; 674  : 						}
; 675  : 
; 676  : 					if (_Isnil(_Pnode))

  001bb	8a 48 15	 mov	 cl, BYTE PTR [eax+21]
  001be	84 c9		 test	 cl, cl

; 677  : 						_Fixnode = _Fixnodeparent;	// shouldn't happen
; 678  : 					else if (_Color(_Left(_Pnode)) == _Black

  001c0	75 76		 jne	 SHORT $L237047

; 679  : 						&& _Color(_Right(_Pnode)) == _Black)

  001c2	8b 10		 mov	 edx, DWORD PTR [eax]
  001c4	38 5a 14	 cmp	 BYTE PTR [edx+20], bl
  001c7	75 08		 jne	 SHORT $L229128
  001c9	8b 48 08	 mov	 ecx, DWORD PTR [eax+8]
  001cc	38 59 14	 cmp	 BYTE PTR [ecx+20], bl
  001cf	74 63		 je	 SHORT $L237048
$L229128:

; 680  : 						{	// redden right subtree with black children
; 681  : 						_Color(_Pnode) = _Red;
; 682  : 						_Fixnode = _Fixnodeparent;
; 683  : 						}
; 684  : 					else
; 685  : 						{	// must rearrange right subtree
; 686  : 						if (_Color(_Right(_Pnode)) == _Black)

  001d1	8b 48 08	 mov	 ecx, DWORD PTR [eax+8]
  001d4	38 59 14	 cmp	 BYTE PTR [ecx+20], bl
  001d7	75 14		 jne	 SHORT $L229130

; 687  : 							{	// rotate red up from left sub-subtree
; 688  : 							_Color(_Left(_Pnode)) = _Black;

  001d9	8b 10		 mov	 edx, DWORD PTR [eax]
  001db	88 5a 14	 mov	 BYTE PTR [edx+20], bl

; 689  : 							_Color(_Pnode) = _Red;
; 690  : 							_Rrotate(_Pnode);

  001de	50		 push	 eax
  001df	8b cd		 mov	 ecx, ebp
  001e1	c6 40 14 00	 mov	 BYTE PTR [eax+20], 0
  001e5	e8 00 00 00 00	 call	 ?_Rrotate@?$_Tree@V?$_Tmap_traits@HPAVCRespawner@@U?$less@H@std@@V?$allocator@U?$pair@$$CBHPAVCRespawner@@@std@@@3@$0A@@std@@@std@@IAEXPAU_Node@?$_Tree_nod@V?$_Tmap_traits@HPAVCRespawner@@U?$less@H@std@@V?$allocator@U?$pair@$$CBHPAVCRespawner@@@std@@@3@$0A@@std@@@2@@Z ; std::_Tree<std::_Tmap_traits<int,CRespawner *,std::less<int>,std::allocator<std::pair<int const ,CRespawner *> >,0> >::_Rrotate

; 691  : 							_Pnode = _Right(_Fixnodeparent);

  001ea	8b 46 08	 mov	 eax, DWORD PTR [esi+8]
$L229130:

; 692  : 							}
; 693  : 
; 694  : 						_Color(_Pnode) = _Color(_Fixnodeparent);

  001ed	8a 4e 14	 mov	 cl, BYTE PTR [esi+20]
  001f0	88 48 14	 mov	 BYTE PTR [eax+20], cl

; 695  : 						_Color(_Fixnodeparent) = _Black;

  001f3	88 5e 14	 mov	 BYTE PTR [esi+20], bl

; 696  : 						_Color(_Right(_Pnode)) = _Black;

  001f6	8b 50 08	 mov	 edx, DWORD PTR [eax+8]

; 697  : 						_Lrotate(_Fixnodeparent);

  001f9	56		 push	 esi
  001fa	8b cd		 mov	 ecx, ebp
  001fc	88 5a 14	 mov	 BYTE PTR [edx+20], bl
  001ff	e8 00 00 00 00	 call	 ?_Lrotate@?$_Tree@V?$_Tmap_traits@HPAVCRespawner@@U?$less@H@std@@V?$allocator@U?$pair@$$CBHPAVCRespawner@@@std@@@3@$0A@@std@@@std@@IAEXPAU_Node@?$_Tree_nod@V?$_Tmap_traits@HPAVCRespawner@@U?$less@H@std@@V?$allocator@U?$pair@$$CBHPAVCRespawner@@@std@@@3@$0A@@std@@@2@@Z ; std::_Tree<std::_Tmap_traits<int,CRespawner *,std::less<int>,std::allocator<std::pair<int const ,CRespawner *> >,0> >::_Lrotate

; 698  : 						break;	// tree now recolored/rebalanced

  00204	eb 78		 jmp	 SHORT $L229123
$L229124:

; 699  : 						}
; 700  : 					}
; 701  : 				else
; 702  : 					{	// fixup right subtree
; 703  : 					_Pnode = _Left(_Fixnodeparent);
; 704  : 					if (_Color(_Pnode) == _Red)

  00206	8a 48 14	 mov	 cl, BYTE PTR [eax+20]
  00209	84 c9		 test	 cl, cl
  0020b	75 11		 jne	 SHORT $L229132

; 705  : 						{	// rotate red up from left subtree
; 706  : 						_Color(_Pnode) = _Black;

  0020d	88 58 14	 mov	 BYTE PTR [eax+20], bl

; 707  : 						_Color(_Fixnodeparent) = _Red;
; 708  : 						_Rrotate(_Fixnodeparent);

  00210	56		 push	 esi
  00211	8b cd		 mov	 ecx, ebp
  00213	c6 46 14 00	 mov	 BYTE PTR [esi+20], 0
  00217	e8 00 00 00 00	 call	 ?_Rrotate@?$_Tree@V?$_Tmap_traits@HPAVCRespawner@@U?$less@H@std@@V?$allocator@U?$pair@$$CBHPAVCRespawner@@@std@@@3@$0A@@std@@@std@@IAEXPAU_Node@?$_Tree_nod@V?$_Tmap_traits@HPAVCRespawner@@U?$less@H@std@@V?$allocator@U?$pair@$$CBHPAVCRespawner@@@std@@@3@$0A@@std@@@2@@Z ; std::_Tree<std::_Tmap_traits<int,CRespawner *,std::less<int>,std::allocator<std::pair<int const ,CRespawner *> >,0> >::_Rrotate

; 709  : 						_Pnode = _Left(_Fixnodeparent);

  0021c	8b 06		 mov	 eax, DWORD PTR [esi]
$L229132:

; 710  : 						}
; 711  : 					if (_Isnil(_Pnode))

  0021e	8a 48 15	 mov	 cl, BYTE PTR [eax+21]
  00221	84 c9		 test	 cl, cl

; 712  : 						_Fixnode = _Fixnodeparent;	// shouldn't happen
; 713  : 					else if (_Color(_Right(_Pnode)) == _Black

  00223	75 13		 jne	 SHORT $L237047

; 714  : 						&& _Color(_Left(_Pnode)) == _Black)

  00225	8b 50 08	 mov	 edx, DWORD PTR [eax+8]
  00228	38 5a 14	 cmp	 BYTE PTR [edx+20], bl
  0022b	75 20		 jne	 SHORT $L229135
  0022d	8b 08		 mov	 ecx, DWORD PTR [eax]
  0022f	38 59 14	 cmp	 BYTE PTR [ecx+20], bl
  00232	75 19		 jne	 SHORT $L229135
$L237048:

; 715  : 						{	// redden left subtree with black children
; 716  : 						_Color(_Pnode) = _Red;

  00234	c6 40 14 00	 mov	 BYTE PTR [eax+20], 0
$L237047:

; 662  : 			{	// erasing black link, must recolor/rebalance tree
; 663  : 			for (; _Fixnode != _Root() && _Color(_Fixnode) == _Black;
; 664  : 				_Fixnodeparent = _Parent(_Fixnode))

  00238	8b 55 04	 mov	 edx, DWORD PTR [ebp+4]
  0023b	8b 42 04	 mov	 eax, DWORD PTR [edx+4]

; 717  : 						_Fixnode = _Fixnodeparent;

  0023e	8b fe		 mov	 edi, esi
  00240	3b f8		 cmp	 edi, eax
  00242	8b 76 04	 mov	 esi, DWORD PTR [esi+4]
  00245	0f 85 45 ff ff
	ff		 jne	 $L229121

; 662  : 			{	// erasing black link, must recolor/rebalance tree
; 663  : 			for (; _Fixnode != _Root() && _Color(_Fixnode) == _Black;
; 664  : 				_Fixnodeparent = _Parent(_Fixnode))

  0024b	eb 31		 jmp	 SHORT $L229123
$L229135:

; 718  : 						}
; 719  : 					else
; 720  : 						{	// must rearrange left subtree
; 721  : 						if (_Color(_Left(_Pnode)) == _Black)

  0024d	8b 08		 mov	 ecx, DWORD PTR [eax]
  0024f	38 59 14	 cmp	 BYTE PTR [ecx+20], bl
  00252	75 14		 jne	 SHORT $L229137

; 722  : 							{	// rotate red up from right sub-subtree
; 723  : 							_Color(_Right(_Pnode)) = _Black;

  00254	8b 50 08	 mov	 edx, DWORD PTR [eax+8]
  00257	88 5a 14	 mov	 BYTE PTR [edx+20], bl

; 724  : 							_Color(_Pnode) = _Red;
; 725  : 							_Lrotate(_Pnode);

  0025a	50		 push	 eax
  0025b	8b cd		 mov	 ecx, ebp
  0025d	c6 40 14 00	 mov	 BYTE PTR [eax+20], 0
  00261	e8 00 00 00 00	 call	 ?_Lrotate@?$_Tree@V?$_Tmap_traits@HPAVCRespawner@@U?$less@H@std@@V?$allocator@U?$pair@$$CBHPAVCRespawner@@@std@@@3@$0A@@std@@@std@@IAEXPAU_Node@?$_Tree_nod@V?$_Tmap_traits@HPAVCRespawner@@U?$less@H@std@@V?$allocator@U?$pair@$$CBHPAVCRespawner@@@std@@@3@$0A@@std@@@2@@Z ; std::_Tree<std::_Tmap_traits<int,CRespawner *,std::less<int>,std::allocator<std::pair<int const ,CRespawner *> >,0> >::_Lrotate

; 726  : 							_Pnode = _Left(_Fixnodeparent);

  00266	8b 06		 mov	 eax, DWORD PTR [esi]
$L229137:

; 727  : 							}
; 728  : 
; 729  : 						_Color(_Pnode) = _Color(_Fixnodeparent);

  00268	8a 4e 14	 mov	 cl, BYTE PTR [esi+20]
  0026b	88 48 14	 mov	 BYTE PTR [eax+20], cl

; 730  : 						_Color(_Fixnodeparent) = _Black;

  0026e	88 5e 14	 mov	 BYTE PTR [esi+20], bl

; 731  : 						_Color(_Left(_Pnode)) = _Black;

  00271	8b 10		 mov	 edx, DWORD PTR [eax]

; 732  : 						_Rrotate(_Fixnodeparent);

  00273	56		 push	 esi
  00274	8b cd		 mov	 ecx, ebp
  00276	88 5a 14	 mov	 BYTE PTR [edx+20], bl
  00279	e8 00 00 00 00	 call	 ?_Rrotate@?$_Tree@V?$_Tmap_traits@HPAVCRespawner@@U?$less@H@std@@V?$allocator@U?$pair@$$CBHPAVCRespawner@@@std@@@3@$0A@@std@@@std@@IAEXPAU_Node@?$_Tree_nod@V?$_Tmap_traits@HPAVCRespawner@@U?$less@H@std@@V?$allocator@U?$pair@$$CBHPAVCRespawner@@@std@@@3@$0A@@std@@@2@@Z ; std::_Tree<std::_Tmap_traits<int,CRespawner *,std::less<int>,std::allocator<std::pair<int const ,CRespawner *> >,0> >::_Rrotate
$L229123:

; 733  : 						break;	// tree now recolored/rebalanced
; 734  : 						}
; 735  : 					}
; 736  : 
; 737  : 			_Color(_Fixnode) = _Black;	// ensure stopping node is black

  0027e	88 5f 14	 mov	 BYTE PTR [edi+20], bl
$L229120:

; 738  : 			}
; 739  : 
; 740  : 		this->_Alnod.destroy(_Erasednode);	// destroy, free erased node
; 741  : 		this->_Alnod.deallocate(_Erasednode, 1);

  00281	8b 44 24 10	 mov	 eax, DWORD PTR __Erasednode$[esp+100]
  00285	50		 push	 eax
  00286	e8 00 00 00 00	 call	 ??3@YAXPAX@Z		; operator delete

; 742  : 
; 743  : 		if (0 < _Mysize)

  0028b	8b 45 08	 mov	 eax, DWORD PTR [ebp+8]
  0028e	83 c4 04	 add	 esp, 4
  00291	85 c0		 test	 eax, eax
  00293	5f		 pop	 edi
  00294	5b		 pop	 ebx
  00295	76 04		 jbe	 SHORT $L229138

; 744  : 			--_Mysize;

  00297	48		 dec	 eax
  00298	89 45 08	 mov	 DWORD PTR [ebp+8], eax
$L229138:

; 745  : 
; 746  : 		return (_Where);	// return successor iterator

  0029b	8b 4c 24 64	 mov	 ecx, DWORD PTR __Where$[esp+88]
  0029f	8b 44 24 60	 mov	 eax, DWORD PTR ___$ReturnUdt$[esp+88]
  002a3	89 08		 mov	 DWORD PTR [eax], ecx

; 747  : 		}

  002a5	8b 4c 24 50	 mov	 ecx, DWORD PTR __$EHRec$[esp+92]
  002a9	5e		 pop	 esi
  002aa	5d		 pop	 ebp
  002ab	64 89 0d 00 00
	00 00		 mov	 DWORD PTR fs:__except_list, ecx
  002b2	83 c4 54	 add	 esp, 84			; 00000054H
  002b5	c2 08 00	 ret	 8
$L237046:
_TEXT	ENDS
;	COMDAT text$x
text$x	SEGMENT
$L236563:
  00000	8d 4d b0	 lea	 ecx, DWORD PTR $T236558[ebp]
  00003	e9 00 00 00 00	 jmp	 ??1?$basic_string@DU?$char_traits@D@std@@V?$allocator@D@2@@std@@QAE@XZ ; std::basic_string<char,std::char_traits<char>,std::allocator<char> >::~basic_string<char,std::char_traits<char>,std::allocator<char> >
__ehhandler$?erase@?$_Tree@V?$_Tmap_traits@HPAVCRespawner@@U?$less@H@std@@V?$allocator@U?$pair@$$CBHPAVCRespawner@@@std@@@3@$0A@@std@@@std@@QAE?AViterator@12@V312@@Z:
  00008	b8 00 00 00 00	 mov	 eax, OFFSET FLAT:$T237041
  0000d	e9 00 00 00 00	 jmp	 ___CxxFrameHandler
text$x	ENDS
?erase@?$_Tree@V?$_Tmap_traits@HPAVCRespawner@@U?$less@H@std@@V?$allocator@U?$pair@$$CBHPAVCRespawner@@@std@@@3@$0A@@std@@@std@@QAE?AViterator@12@V312@@Z ENDP ; std::_Tree<std::_Tmap_traits<int,CRespawner *,std::less<int>,std::allocator<std::pair<int const ,CRespawner *> >,0> >::erase
;	COMDAT xdata$x
xdata$x	SEGMENT
$T237156 DD	0ffffffffH
	DD	FLAT:$L237056
$T237154 DD	019930520H
	DD	01H
	DD	FLAT:$T237156
	DD	2 DUP(00H)
	DD	2 DUP(00H)
; Function compile flags: /Ogty
xdata$x	ENDS
;	COMDAT ??0logic_error@std@@QAE@ABV01@@Z
_TEXT	SEGMENT
_this$ = -16						; size = 4
__$EHRec$ = -12						; size = 12
___that$ = 8						; size = 4
??0logic_error@std@@QAE@ABV01@@Z PROC NEAR		; std::logic_error::logic_error, COMDAT
; _this$ = ecx
  00000	6a ff		 push	 -1
  00002	68 00 00 00 00	 push	 __ehhandler$??0logic_error@std@@QAE@ABV01@@Z
  00007	64 a1 00 00 00
	00		 mov	 eax, DWORD PTR fs:__except_list
  0000d	50		 push	 eax
  0000e	64 89 25 00 00
	00 00		 mov	 DWORD PTR fs:__except_list, esp
  00015	51		 push	 ecx
  00016	56		 push	 esi
  00017	57		 push	 edi
  00018	8b 7c 24 1c	 mov	 edi, DWORD PTR ___that$[esp+20]
  0001c	8b f1		 mov	 esi, ecx
  0001e	57		 push	 edi
  0001f	89 74 24 0c	 mov	 DWORD PTR _this$[esp+28], esi
  00023	e8 00 00 00 00	 call	 ??0exception@@QAE@ABV0@@Z ; exception::exception
  00028	33 c0		 xor	 eax, eax
  0002a	6a ff		 push	 -1
  0002c	8d 4e 0c	 lea	 ecx, DWORD PTR [esi+12]
  0002f	c7 06 00 00 00
	00		 mov	 DWORD PTR [esi], OFFSET FLAT:??_7logic_error@std@@6B@
  00035	50		 push	 eax
  00036	83 c7 0c	 add	 edi, 12			; 0000000cH
  00039	c7 41 18 0f 00
	00 00		 mov	 DWORD PTR [ecx+24], 15	; 0000000fH
  00040	89 41 14	 mov	 DWORD PTR [ecx+20], eax
  00043	57		 push	 edi
  00044	89 44 24 20	 mov	 DWORD PTR __$EHRec$[esp+44], eax
  00048	88 41 04	 mov	 BYTE PTR [ecx+4], al
  0004b	e8 00 00 00 00	 call	 ?assign@?$basic_string@DU?$char_traits@D@std@@V?$allocator@D@2@@std@@QAEAAV12@ABV12@II@Z ; std::basic_string<char,std::char_traits<char>,std::allocator<char> >::assign
  00050	8b 4c 24 0c	 mov	 ecx, DWORD PTR __$EHRec$[esp+24]
  00054	5f		 pop	 edi
  00055	8b c6		 mov	 eax, esi
  00057	5e		 pop	 esi
  00058	64 89 0d 00 00
	00 00		 mov	 DWORD PTR fs:__except_list, ecx
  0005f	83 c4 10	 add	 esp, 16			; 00000010H
  00062	c2 04 00	 ret	 4
_TEXT	ENDS
;	COMDAT text$x
text$x	SEGMENT
$L237056:
  00000	8b 4d f0	 mov	 ecx, DWORD PTR _this$[ebp]
  00003	e9 00 00 00 00	 jmp	 ??1exception@@UAE@XZ	; exception::~exception
__ehhandler$??0logic_error@std@@QAE@ABV01@@Z:
  00008	b8 00 00 00 00	 mov	 eax, OFFSET FLAT:$T237154
  0000d	e9 00 00 00 00	 jmp	 ___CxxFrameHandler
text$x	ENDS
??0logic_error@std@@QAE@ABV01@@Z ENDP			; std::logic_error::logic_error
; Function compile flags: /Ogty
;	COMDAT ??0out_of_range@std@@QAE@ABV01@@Z
_TEXT	SEGMENT
___that$ = 8						; size = 4
??0out_of_range@std@@QAE@ABV01@@Z PROC NEAR		; std::out_of_range::out_of_range, COMDAT
; _this$ = ecx
  00000	8b 44 24 04	 mov	 eax, DWORD PTR ___that$[esp-4]
  00004	56		 push	 esi
  00005	50		 push	 eax
  00006	8b f1		 mov	 esi, ecx
  00008	e8 00 00 00 00	 call	 ??0logic_error@std@@QAE@ABV01@@Z
  0000d	c7 06 00 00 00
	00		 mov	 DWORD PTR [esi], OFFSET FLAT:??_7out_of_range@std@@6B@
  00013	8b c6		 mov	 eax, esi
  00015	5e		 pop	 esi
  00016	c2 04 00	 ret	 4
??0out_of_range@std@@QAE@ABV01@@Z ENDP			; std::out_of_range::out_of_range
_TEXT	ENDS
PUBLIC	__TI3?AVlength_error@std@@
PUBLIC	__CTA3?AVlength_error@std@@
PUBLIC	??_R0?AVlength_error@std@@@8			; std::length_error `RTTI Type Descriptor'
PUBLIC	__CT??_R0?AVlength_error@std@@@8??0length_error@std@@QAE@ABV01@@Z40
PUBLIC	??_C@_0BE@JONHPENG@map?1set?$DMT?$DO?5too?5long?$AA@ ; `string'
PUBLIC	?_Insert@?$_Tree@V?$_Tmap_traits@HPAVCRespawner@@U?$less@H@std@@V?$allocator@U?$pair@$$CBHPAVCRespawner@@@std@@@3@$0A@@std@@@std@@IAE?AViterator@12@_NPAU_Node@?$_Tree_nod@V?$_Tmap_traits@HPAVCRespawner@@U?$less@H@std@@V?$allocator@U?$pair@$$CBHPAVCRespawner@@@std@@@3@$0A@@std@@@2@ABU?$pair@$$CBHPAVCRespawner@@@2@@Z ; std::_Tree<std::_Tmap_traits<int,CRespawner *,std::less<int>,std::allocator<std::pair<int const ,CRespawner *> >,0> >::_Insert
PUBLIC	??0length_error@std@@QAE@ABV01@@Z		; std::length_error::length_error
;	COMDAT xdata$x
xdata$x	SEGMENT
$T237538 DD	0ffffffffH
	DD	FLAT:$L237168
$T237533 DD	019930520H
	DD	01H
	DD	FLAT:$T237538
	DD	2 DUP(00H)
	DD	2 DUP(00H)
xdata$x	ENDS
;	COMDAT ??_C@_0BE@JONHPENG@map?1set?$DMT?$DO?5too?5long?$AA@
CONST	SEGMENT
??_C@_0BE@JONHPENG@map?1set?$DMT?$DO?5too?5long?$AA@ DB 'map/set<T> too l'
	DB	'ong', 00H					; `string'
CONST	ENDS
;	COMDAT __TI3?AVlength_error@std@@
xdata$x	SEGMENT
__TI3?AVlength_error@std@@ DD 00H
	DD	FLAT:??1length_error@std@@UAE@XZ
	DD	00H
	DD	FLAT:__CTA3?AVlength_error@std@@
xdata$x	ENDS
;	COMDAT __CTA3?AVlength_error@std@@
xdata$x	SEGMENT
__CTA3?AVlength_error@std@@ DD 03H
	DD	FLAT:__CT??_R0?AVlength_error@std@@@8??0length_error@std@@QAE@ABV01@@Z40
	DD	FLAT:__CT??_R0?AVlogic_error@std@@@8??0logic_error@std@@QAE@ABV01@@Z40
	DD	FLAT:__CT??_R0?AVexception@@@8??0exception@@QAE@ABV0@@Z12
xdata$x	ENDS
;	COMDAT __CT??_R0?AVlength_error@std@@@8??0length_error@std@@QAE@ABV01@@Z40
xdata$x	SEGMENT
__CT??_R0?AVlength_error@std@@@8??0length_error@std@@QAE@ABV01@@Z40 DD 00H
	DD	FLAT:??_R0?AVlength_error@std@@@8
	DD	00H
	DD	0ffffffffH
	ORG $+4
	DD	028H
	DD	FLAT:??0length_error@std@@QAE@ABV01@@Z
xdata$x	ENDS
;	COMDAT ??_R0?AVlength_error@std@@@8
_DATA	SEGMENT
??_R0?AVlength_error@std@@@8 DD FLAT:??_7type_info@@6B@	; std::length_error `RTTI Type Descriptor'
	DD	00H
	DB	'.?AVlength_error@std@@', 00H
; Function compile flags: /Ogty
_DATA	ENDS
;	COMDAT ?_Insert@?$_Tree@V?$_Tmap_traits@HPAVCRespawner@@U?$less@H@std@@V?$allocator@U?$pair@$$CBHPAVCRespawner@@@std@@@3@$0A@@std@@@std@@IAE?AViterator@12@_NPAU_Node@?$_Tree_nod@V?$_Tmap_traits@HPAVCRespawner@@U?$less@H@std@@V?$allocator@U?$pair@$$CBHPAVCRespawner@@@std@@@3@$0A@@std@@@2@ABU?$pair@$$CBHPAVCRespawner@@@2@@Z
_TEXT	SEGMENT
$T237167 = -80						; size = 28
$T237166 = -52						; size = 40
__$EHRec$ = -12						; size = 12
___$ReturnUdt$ = 8					; size = 4
__Addleft$ = 12						; size = 1
__Wherenode$ = 16					; size = 4
__Newnode$ = 20						; size = 4
__Val$ = 20						; size = 4
?_Insert@?$_Tree@V?$_Tmap_traits@HPAVCRespawner@@U?$less@H@std@@V?$allocator@U?$pair@$$CBHPAVCRespawner@@@std@@@3@$0A@@std@@@std@@IAE?AViterator@12@_NPAU_Node@?$_Tree_nod@V?$_Tmap_traits@HPAVCRespawner@@U?$less@H@std@@V?$allocator@U?$pair@$$CBHPAVCRespawner@@@std@@@3@$0A@@std@@@2@ABU?$pair@$$CBHPAVCRespawner@@@2@@Z PROC NEAR ; std::_Tree<std::_Tmap_traits<int,CRespawner *,std::less<int>,std::allocator<std::pair<int const ,CRespawner *> >,0> >::_Insert, COMDAT
; _this$ = ecx

; 911  : 		{	// add node with value next to _Wherenode, to left if _Addnode

  00000	64 a1 00 00 00
	00		 mov	 eax, DWORD PTR fs:__except_list
  00006	6a ff		 push	 -1
  00008	68 00 00 00 00	 push	 __ehhandler$?_Insert@?$_Tree@V?$_Tmap_traits@HPAVCRespawner@@U?$less@H@std@@V?$allocator@U?$pair@$$CBHPAVCRespawner@@@std@@@3@$0A@@std@@@std@@IAE?AViterator@12@_NPAU_Node@?$_Tree_nod@V?$_Tmap_traits@HPAVCRespawner@@U?$less@H@std@@V?$allocator@U?$pair@$$CBHPAVCRespawner@@@std@@@3@$0A@@std@@@2@ABU?$pair@$$CBHPAVCRespawner@@@2@@Z
  0000d	50		 push	 eax
  0000e	64 89 25 00 00
	00 00		 mov	 DWORD PTR fs:__except_list, esp
  00015	83 ec 44	 sub	 esp, 68			; 00000044H
  00018	56		 push	 esi
  00019	57		 push	 edi
  0001a	8b f9		 mov	 edi, ecx

; 912  : 		if (max_size() - 1 <= _Mysize)

  0001c	81 7f 08 fe ff
	ff 1f		 cmp	 DWORD PTR [edi+8], 536870910 ; 1ffffffeH
  00023	72 4c		 jb	 SHORT $L229311

; 913  : 			_THROW(length_error, "map/set<T> too long");

  00025	6a 13		 push	 19			; 00000013H
  00027	33 f6		 xor	 esi, esi
  00029	68 00 00 00 00	 push	 OFFSET FLAT:??_C@_0BE@JONHPENG@map?1set?$DMT?$DO?5too?5long?$AA@
  0002e	8d 4c 24 10	 lea	 ecx, DWORD PTR $T237167[esp+96]
  00032	c7 44 24 28 0f
	00 00 00	 mov	 DWORD PTR $T237167[esp+120], 15 ; 0000000fH
  0003a	89 74 24 24	 mov	 DWORD PTR $T237167[esp+116], esi
  0003e	c6 44 24 14 00	 mov	 BYTE PTR $T237167[esp+100], 0
  00043	e8 00 00 00 00	 call	 ?assign@?$basic_string@DU?$char_traits@D@std@@V?$allocator@D@2@@std@@QAEAAV12@PBDI@Z ; std::basic_string<char,std::char_traits<char>,std::allocator<char> >::assign
  00048	8d 44 24 08	 lea	 eax, DWORD PTR $T237167[esp+88]
  0004c	50		 push	 eax
  0004d	8d 4c 24 28	 lea	 ecx, DWORD PTR $T237166[esp+92]
  00051	89 74 24 58	 mov	 DWORD PTR __$EHRec$[esp+100], esi
  00055	e8 00 00 00 00	 call	 ??0logic_error@std@@QAE@ABV?$basic_string@DU?$char_traits@D@std@@V?$allocator@D@2@@1@@Z ; std::logic_error::logic_error
  0005a	68 00 00 00 00	 push	 OFFSET FLAT:__TI3?AVlength_error@std@@
  0005f	8d 4c 24 28	 lea	 ecx, DWORD PTR $T237166[esp+92]
  00063	51		 push	 ecx
  00064	c7 44 24 2c 00
	00 00 00	 mov	 DWORD PTR $T237166[esp+96], OFFSET FLAT:??_7length_error@std@@6B@
  0006c	e8 00 00 00 00	 call	 __CxxThrowException@8
$L237539:
$L229311:

; 914  : 		_Nodeptr _Newnode = _Buynode(_Myhead, _Wherenode, _Myhead,
; 915  : 			_Val, _Red);

  00071	8b 54 24 68	 mov	 edx, DWORD PTR __Val$[esp+84]
  00075	8b 47 04	 mov	 eax, DWORD PTR [edi+4]
  00078	8b 74 24 64	 mov	 esi, DWORD PTR __Wherenode$[esp+84]
  0007c	53		 push	 ebx
  0007d	6a 00		 push	 0
  0007f	52		 push	 edx
  00080	50		 push	 eax
  00081	56		 push	 esi
  00082	50		 push	 eax
  00083	8b cf		 mov	 ecx, edi
  00085	e8 00 00 00 00	 call	 ?_Buynode@?$_Tree@V?$_Tmap_traits@HPAVCRespawner@@U?$less@H@std@@V?$allocator@U?$pair@$$CBHPAVCRespawner@@@std@@@3@$0A@@std@@@std@@IAEPAU_Node@?$_Tree_nod@V?$_Tmap_traits@HPAVCRespawner@@U?$less@H@std@@V?$allocator@U?$pair@$$CBHPAVCRespawner@@@std@@@3@$0A@@std@@@2@PAU342@00ABU?$pair@$$CBHPAVCRespawner@@@2@D@Z ; std::_Tree<std::_Tmap_traits<int,CRespawner *,std::less<int>,std::allocator<std::pair<int const ,CRespawner *> >,0> >::_Buynode

; 916  : 
; 917  : 		++_Mysize;

  0008a	8b 5f 08	 mov	 ebx, DWORD PTR [edi+8]
  0008d	8b c8		 mov	 ecx, eax

; 918  : 		if (_Wherenode == _Myhead)

  0008f	8b 47 04	 mov	 eax, DWORD PTR [edi+4]
  00092	43		 inc	 ebx
  00093	3b f0		 cmp	 esi, eax
  00095	89 4c 24 6c	 mov	 DWORD PTR __Newnode$[esp+88], ecx
  00099	89 5f 08	 mov	 DWORD PTR [edi+8], ebx
  0009c	75 10		 jne	 SHORT $L229316

; 919  : 			{	// first node in tree, just set head values
; 920  : 			_Root() = _Newnode;

  0009e	89 48 04	 mov	 DWORD PTR [eax+4], ecx

; 921  : 			_Lmost() = _Newnode, _Rmost() = _Newnode;

  000a1	8b 47 04	 mov	 eax, DWORD PTR [edi+4]
  000a4	89 08		 mov	 DWORD PTR [eax], ecx
  000a6	8b 57 04	 mov	 edx, DWORD PTR [edi+4]
  000a9	89 4a 08	 mov	 DWORD PTR [edx+8], ecx

; 922  : 			}
; 923  : 		else if (_Addleft)

  000ac	eb 23		 jmp	 SHORT $L229321
$L229316:
  000ae	8a 44 24 64	 mov	 al, BYTE PTR __Addleft$[esp+88]
  000b2	84 c0		 test	 al, al
  000b4	74 0d		 je	 SHORT $L229318

; 924  : 			{	// add to left of _Wherenode
; 925  : 			_Left(_Wherenode) = _Newnode;

  000b6	89 0e		 mov	 DWORD PTR [esi], ecx

; 926  : 			if (_Wherenode == _Lmost())

  000b8	8b 47 04	 mov	 eax, DWORD PTR [edi+4]
  000bb	3b 30		 cmp	 esi, DWORD PTR [eax]
  000bd	75 12		 jne	 SHORT $L229321

; 927  : 				_Lmost() = _Newnode;

  000bf	89 08		 mov	 DWORD PTR [eax], ecx

; 928  : 			}
; 929  : 		else

  000c1	eb 0e		 jmp	 SHORT $L229321
$L229318:

; 930  : 			{	// add to right of _Wherenode
; 931  : 			_Right(_Wherenode) = _Newnode;

  000c3	89 4e 08	 mov	 DWORD PTR [esi+8], ecx

; 932  : 			if (_Wherenode == _Rmost())

  000c6	8b 47 04	 mov	 eax, DWORD PTR [edi+4]
  000c9	3b 70 08	 cmp	 esi, DWORD PTR [eax+8]
  000cc	75 03		 jne	 SHORT $L229321

; 933  : 				_Rmost() = _Newnode;

  000ce	89 48 08	 mov	 DWORD PTR [eax+8], ecx
$L229321:

; 934  : 			}
; 935  : 
; 936  : 		for (_Nodeptr _Pnode = _Newnode; _Color(_Parent(_Pnode)) == _Red; )

  000d1	8b 51 04	 mov	 edx, DWORD PTR [ecx+4]
  000d4	80 7a 14 00	 cmp	 BYTE PTR [edx+20], 0
  000d8	8d 41 04	 lea	 eax, DWORD PTR [ecx+4]
  000db	8b f1		 mov	 esi, ecx
  000dd	b3 01		 mov	 bl, 1
  000df	0f 85 a5 00 00
	00		 jne	 $L229325
  000e5	55		 push	 ebp
$L229324:

; 937  : 			if (_Parent(_Pnode) == _Left(_Parent(_Parent(_Pnode))))

  000e6	8b 08		 mov	 ecx, DWORD PTR [eax]
  000e8	8b 69 04	 mov	 ebp, DWORD PTR [ecx+4]
  000eb	8b 55 00	 mov	 edx, DWORD PTR [ebp]
  000ee	3b ca		 cmp	 ecx, edx
  000f0	75 50		 jne	 SHORT $L229326

; 938  : 				{	// fixup red-red in left subtree
; 939  : 				_Wherenode = _Right(_Parent(_Parent(_Pnode)));

  000f2	8b 55 08	 mov	 edx, DWORD PTR [ebp+8]

; 940  : 				if (_Color(_Wherenode) == _Red)

  000f5	80 7a 14 00	 cmp	 BYTE PTR [edx+20], 0
  000f9	75 18		 jne	 SHORT $L229327
$L237537:

; 941  : 					{	// parent has two red children, blacken both
; 942  : 					_Color(_Parent(_Pnode)) = _Black;

  000fb	8b 08		 mov	 ecx, DWORD PTR [eax]
  000fd	88 59 14	 mov	 BYTE PTR [ecx+20], bl

; 943  : 					_Color(_Wherenode) = _Black;

  00100	88 5a 14	 mov	 BYTE PTR [edx+20], bl

; 944  : 					_Color(_Parent(_Parent(_Pnode))) = _Red;

  00103	8b 10		 mov	 edx, DWORD PTR [eax]
  00105	8b 4a 04	 mov	 ecx, DWORD PTR [edx+4]
  00108	c6 41 14 00	 mov	 BYTE PTR [ecx+20], 0

; 945  : 					_Pnode = _Parent(_Parent(_Pnode));

  0010c	8b 10		 mov	 edx, DWORD PTR [eax]
  0010e	8b 72 04	 mov	 esi, DWORD PTR [edx+4]

; 946  : 					}
; 947  : 				else

  00111	eb 61		 jmp	 SHORT $L229332
$L229327:

; 948  : 					{	// parent has red and black children
; 949  : 					if (_Pnode == _Right(_Parent(_Pnode)))

  00113	3b 71 08	 cmp	 esi, DWORD PTR [ecx+8]
  00116	75 0a		 jne	 SHORT $L229329

; 950  : 						{	// rotate right child to left
; 951  : 						_Pnode = _Parent(_Pnode);

  00118	8b f1		 mov	 esi, ecx

; 952  : 						_Lrotate(_Pnode);

  0011a	56		 push	 esi
  0011b	8b cf		 mov	 ecx, edi
  0011d	e8 00 00 00 00	 call	 ?_Lrotate@?$_Tree@V?$_Tmap_traits@HPAVCRespawner@@U?$less@H@std@@V?$allocator@U?$pair@$$CBHPAVCRespawner@@@std@@@3@$0A@@std@@@std@@IAEXPAU_Node@?$_Tree_nod@V?$_Tmap_traits@HPAVCRespawner@@U?$less@H@std@@V?$allocator@U?$pair@$$CBHPAVCRespawner@@@std@@@3@$0A@@std@@@2@@Z ; std::_Tree<std::_Tmap_traits<int,CRespawner *,std::less<int>,std::allocator<std::pair<int const ,CRespawner *> >,0> >::_Lrotate
$L229329:

; 953  : 						}
; 954  : 					_Color(_Parent(_Pnode)) = _Black;	// propagate red up

  00122	8b 46 04	 mov	 eax, DWORD PTR [esi+4]
  00125	88 58 14	 mov	 BYTE PTR [eax+20], bl

; 955  : 					_Color(_Parent(_Parent(_Pnode))) = _Red;

  00128	8b 4e 04	 mov	 ecx, DWORD PTR [esi+4]
  0012b	8b 51 04	 mov	 edx, DWORD PTR [ecx+4]
  0012e	c6 42 14 00	 mov	 BYTE PTR [edx+20], 0

; 956  : 					_Rrotate(_Parent(_Parent(_Pnode)));

  00132	8b 46 04	 mov	 eax, DWORD PTR [esi+4]
  00135	8b 48 04	 mov	 ecx, DWORD PTR [eax+4]
  00138	51		 push	 ecx
  00139	8b cf		 mov	 ecx, edi
  0013b	e8 00 00 00 00	 call	 ?_Rrotate@?$_Tree@V?$_Tmap_traits@HPAVCRespawner@@U?$less@H@std@@V?$allocator@U?$pair@$$CBHPAVCRespawner@@@std@@@3@$0A@@std@@@std@@IAEXPAU_Node@?$_Tree_nod@V?$_Tmap_traits@HPAVCRespawner@@U?$less@H@std@@V?$allocator@U?$pair@$$CBHPAVCRespawner@@@std@@@3@$0A@@std@@@2@@Z ; std::_Tree<std::_Tmap_traits<int,CRespawner *,std::less<int>,std::allocator<std::pair<int const ,CRespawner *> >,0> >::_Rrotate

; 957  : 					}
; 958  : 				}
; 959  : 			else

  00140	eb 32		 jmp	 SHORT $L229332
$L229326:

; 960  : 				{	// fixup red-red in right subtree
; 961  : 				_Wherenode = _Left(_Parent(_Parent(_Pnode)));
; 962  : 				if (_Color(_Wherenode) == _Red)

  00142	80 7a 14 00	 cmp	 BYTE PTR [edx+20], 0

; 963  : 					{	// parent has two red children, blacken both
; 964  : 					_Color(_Parent(_Pnode)) = _Black;
; 965  : 					_Color(_Wherenode) = _Black;
; 966  : 					_Color(_Parent(_Parent(_Pnode))) = _Red;
; 967  : 					_Pnode = _Parent(_Parent(_Pnode));
; 968  : 					}
; 969  : 				else

  00146	74 b3		 je	 SHORT $L237537

; 970  : 					{	// parent has red and black children
; 971  : 					if (_Pnode == _Left(_Parent(_Pnode)))

  00148	3b 31		 cmp	 esi, DWORD PTR [ecx]
  0014a	75 0a		 jne	 SHORT $L229333

; 972  : 						{	// rotate left child to right
; 973  : 						_Pnode = _Parent(_Pnode);

  0014c	8b f1		 mov	 esi, ecx

; 974  : 						_Rrotate(_Pnode);

  0014e	56		 push	 esi
  0014f	8b cf		 mov	 ecx, edi
  00151	e8 00 00 00 00	 call	 ?_Rrotate@?$_Tree@V?$_Tmap_traits@HPAVCRespawner@@U?$less@H@std@@V?$allocator@U?$pair@$$CBHPAVCRespawner@@@std@@@3@$0A@@std@@@std@@IAEXPAU_Node@?$_Tree_nod@V?$_Tmap_traits@HPAVCRespawner@@U?$less@H@std@@V?$allocator@U?$pair@$$CBHPAVCRespawner@@@std@@@3@$0A@@std@@@2@@Z ; std::_Tree<std::_Tmap_traits<int,CRespawner *,std::less<int>,std::allocator<std::pair<int const ,CRespawner *> >,0> >::_Rrotate
$L229333:

; 975  : 						}
; 976  : 					_Color(_Parent(_Pnode)) = _Black;	// propagate red up

  00156	8b 46 04	 mov	 eax, DWORD PTR [esi+4]
  00159	88 58 14	 mov	 BYTE PTR [eax+20], bl

; 977  : 					_Color(_Parent(_Parent(_Pnode))) = _Red;

  0015c	8b 4e 04	 mov	 ecx, DWORD PTR [esi+4]
  0015f	8b 51 04	 mov	 edx, DWORD PTR [ecx+4]
  00162	c6 42 14 00	 mov	 BYTE PTR [edx+20], 0

; 978  : 					_Lrotate(_Parent(_Parent(_Pnode)));

  00166	8b 46 04	 mov	 eax, DWORD PTR [esi+4]
  00169	8b 48 04	 mov	 ecx, DWORD PTR [eax+4]
  0016c	51		 push	 ecx
  0016d	8b cf		 mov	 ecx, edi
  0016f	e8 00 00 00 00	 call	 ?_Lrotate@?$_Tree@V?$_Tmap_traits@HPAVCRespawner@@U?$less@H@std@@V?$allocator@U?$pair@$$CBHPAVCRespawner@@@std@@@3@$0A@@std@@@std@@IAEXPAU_Node@?$_Tree_nod@V?$_Tmap_traits@HPAVCRespawner@@U?$less@H@std@@V?$allocator@U?$pair@$$CBHPAVCRespawner@@@std@@@3@$0A@@std@@@2@@Z ; std::_Tree<std::_Tmap_traits<int,CRespawner *,std::less<int>,std::allocator<std::pair<int const ,CRespawner *> >,0> >::_Lrotate
$L229332:
  00174	8b 56 04	 mov	 edx, DWORD PTR [esi+4]
  00177	8a 4a 14	 mov	 cl, BYTE PTR [edx+20]
  0017a	84 c9		 test	 cl, cl
  0017c	8d 46 04	 lea	 eax, DWORD PTR [esi+4]
  0017f	0f 84 61 ff ff
	ff		 je	 $L229324
  00185	8b 4c 24 70	 mov	 ecx, DWORD PTR __Newnode$[esp+92]
  00189	5d		 pop	 ebp
$L229325:

; 979  : 					}
; 980  : 				}
; 981  : 
; 982  : 		_Color(_Root()) = _Black;	// root is always black

  0018a	8b 47 04	 mov	 eax, DWORD PTR [edi+4]
  0018d	8b 50 04	 mov	 edx, DWORD PTR [eax+4]

; 983  : 		return (_TREE_ITERATOR(_Newnode));

  00190	8b 44 24 60	 mov	 eax, DWORD PTR ___$ReturnUdt$[esp+88]
  00194	88 5a 14	 mov	 BYTE PTR [edx+20], bl
  00197	5b		 pop	 ebx
  00198	89 08		 mov	 DWORD PTR [eax], ecx

; 984  : 		}

  0019a	8b 4c 24 4c	 mov	 ecx, DWORD PTR __$EHRec$[esp+88]
  0019e	5f		 pop	 edi
  0019f	5e		 pop	 esi
  001a0	64 89 0d 00 00
	00 00		 mov	 DWORD PTR fs:__except_list, ecx
  001a7	83 c4 50	 add	 esp, 80			; 00000050H
  001aa	c2 10 00	 ret	 16			; 00000010H
$L237536:
_TEXT	ENDS
;	COMDAT text$x
text$x	SEGMENT
$L237168:
  00000	8d 4d b0	 lea	 ecx, DWORD PTR $T237167[ebp]
  00003	e9 00 00 00 00	 jmp	 ??1?$basic_string@DU?$char_traits@D@std@@V?$allocator@D@2@@std@@QAE@XZ ; std::basic_string<char,std::char_traits<char>,std::allocator<char> >::~basic_string<char,std::char_traits<char>,std::allocator<char> >
__ehhandler$?_Insert@?$_Tree@V?$_Tmap_traits@HPAVCRespawner@@U?$less@H@std@@V?$allocator@U?$pair@$$CBHPAVCRespawner@@@std@@@3@$0A@@std@@@std@@IAE?AViterator@12@_NPAU_Node@?$_Tree_nod@V?$_Tmap_traits@HPAVCRespawner@@U?$less@H@std@@V?$allocator@U?$pair@$$CBHPAVCRespawner@@@std@@@3@$0A@@std@@@2@ABU?$pair@$$CBHPAVCRespawner@@@2@@Z:
  00008	b8 00 00 00 00	 mov	 eax, OFFSET FLAT:$T237533
  0000d	e9 00 00 00 00	 jmp	 ___CxxFrameHandler
text$x	ENDS
?_Insert@?$_Tree@V?$_Tmap_traits@HPAVCRespawner@@U?$less@H@std@@V?$allocator@U?$pair@$$CBHPAVCRespawner@@@std@@@3@$0A@@std@@@std@@IAE?AViterator@12@_NPAU_Node@?$_Tree_nod@V?$_Tmap_traits@HPAVCRespawner@@U?$less@H@std@@V?$allocator@U?$pair@$$CBHPAVCRespawner@@@std@@@3@$0A@@std@@@2@ABU?$pair@$$CBHPAVCRespawner@@@2@@Z ENDP ; std::_Tree<std::_Tmap_traits<int,CRespawner *,std::less<int>,std::allocator<std::pair<int const ,CRespawner *> >,0> >::_Insert
; Function compile flags: /Ogty
;	COMDAT ??0length_error@std@@QAE@ABV01@@Z
_TEXT	SEGMENT
___that$ = 8						; size = 4
??0length_error@std@@QAE@ABV01@@Z PROC NEAR		; std::length_error::length_error, COMDAT
; _this$ = ecx
  00000	8b 44 24 04	 mov	 eax, DWORD PTR ___that$[esp-4]
  00004	56		 push	 esi
  00005	50		 push	 eax
  00006	8b f1		 mov	 esi, ecx
  00008	e8 00 00 00 00	 call	 ??0logic_error@std@@QAE@ABV01@@Z
  0000d	c7 06 00 00 00
	00		 mov	 DWORD PTR [esi], OFFSET FLAT:??_7length_error@std@@6B@
  00013	8b c6		 mov	 eax, esi
  00015	5e		 pop	 esi
  00016	c2 04 00	 ret	 4
??0length_error@std@@QAE@ABV01@@Z ENDP			; std::length_error::length_error
_TEXT	ENDS
PUBLIC	?_Xlen@?$vector@VCRespawnInfo@@V?$allocator@VCRespawnInfo@@@std@@@std@@IBEXXZ ; std::vector<CRespawnInfo,std::allocator<CRespawnInfo> >::_Xlen
PUBLIC	??_C@_0BD@OLBABOEK@vector?$DMT?$DO?5too?5long?$AA@ ; `string'
;	COMDAT xdata$x
; File c:\program files\microsoft visual studio .net 2003\vc7\include\stdexcept
xdata$x	SEGMENT
$T237666 DD	0ffffffffH
	DD	FLAT:$L237551
$T237663 DD	019930520H
	DD	01H
	DD	FLAT:$T237666
	DD	2 DUP(00H)
	DD	2 DUP(00H)
xdata$x	ENDS
;	COMDAT ??_C@_0BD@OLBABOEK@vector?$DMT?$DO?5too?5long?$AA@
CONST	SEGMENT
??_C@_0BD@OLBABOEK@vector?$DMT?$DO?5too?5long?$AA@ DB 'vector<T> too long'
	DB	00H						; `string'
; Function compile flags: /Ogty
; File c:\program files\microsoft visual studio .net 2003\vc7\include\vector
CONST	ENDS
;	COMDAT ?_Xlen@?$vector@VCRespawnInfo@@V?$allocator@VCRespawnInfo@@@std@@@std@@IBEXXZ
_TEXT	SEGMENT
$T237550 = -80						; size = 28
$T237549 = -52						; size = 40
__$EHRec$ = -12						; size = 12
?_Xlen@?$vector@VCRespawnInfo@@V?$allocator@VCRespawnInfo@@@std@@@std@@IBEXXZ PROC NEAR ; std::vector<CRespawnInfo,std::allocator<CRespawnInfo> >::_Xlen, COMDAT
; _this$ = ecx

; 883  : 		{	// report a length_error

  00000	6a ff		 push	 -1
  00002	68 00 00 00 00	 push	 __ehhandler$?_Xlen@?$vector@VCRespawnInfo@@V?$allocator@VCRespawnInfo@@@std@@@std@@IBEXXZ
  00007	64 a1 00 00 00
	00		 mov	 eax, DWORD PTR fs:__except_list
  0000d	50		 push	 eax
  0000e	64 89 25 00 00
	00 00		 mov	 DWORD PTR fs:__except_list, esp
  00015	83 ec 44	 sub	 esp, 68			; 00000044H

; 884  : 		_THROW(length_error, "vector<T> too long");

  00018	6a 12		 push	 18			; 00000012H
  0001a	68 00 00 00 00	 push	 OFFSET FLAT:??_C@_0BD@OLBABOEK@vector?$DMT?$DO?5too?5long?$AA@
  0001f	8d 4c 24 08	 lea	 ecx, DWORD PTR $T237550[esp+88]
  00023	c7 44 24 20 0f
	00 00 00	 mov	 DWORD PTR $T237550[esp+112], 15 ; 0000000fH
  0002b	c7 44 24 1c 00
	00 00 00	 mov	 DWORD PTR $T237550[esp+108], 0
  00033	c6 44 24 0c 00	 mov	 BYTE PTR $T237550[esp+92], 0
  00038	e8 00 00 00 00	 call	 ?assign@?$basic_string@DU?$char_traits@D@std@@V?$allocator@D@2@@std@@QAEAAV12@PBDI@Z ; std::basic_string<char,std::char_traits<char>,std::allocator<char> >::assign
  0003d	8d 04 24	 lea	 eax, DWORD PTR $T237550[esp+80]
  00040	50		 push	 eax
  00041	8d 4c 24 20	 lea	 ecx, DWORD PTR $T237549[esp+84]
  00045	c7 44 24 50 00
	00 00 00	 mov	 DWORD PTR __$EHRec$[esp+92], 0
  0004d	e8 00 00 00 00	 call	 ??0logic_error@std@@QAE@ABV?$basic_string@DU?$char_traits@D@std@@V?$allocator@D@2@@1@@Z ; std::logic_error::logic_error
  00052	68 00 00 00 00	 push	 OFFSET FLAT:__TI3?AVlength_error@std@@
  00057	8d 4c 24 20	 lea	 ecx, DWORD PTR $T237549[esp+84]
  0005b	51		 push	 ecx
  0005c	c7 44 24 24 00
	00 00 00	 mov	 DWORD PTR $T237549[esp+88], OFFSET FLAT:??_7length_error@std@@6B@
  00064	e8 00 00 00 00	 call	 __CxxThrowException@8
$L237667:
$L237665:
  00069	cc		 int	 3
_TEXT	ENDS
;	COMDAT text$x
text$x	SEGMENT
$L237551:
  00000	8d 4d b0	 lea	 ecx, DWORD PTR $T237550[ebp]
  00003	e9 00 00 00 00	 jmp	 ??1?$basic_string@DU?$char_traits@D@std@@V?$allocator@D@2@@std@@QAE@XZ ; std::basic_string<char,std::char_traits<char>,std::allocator<char> >::~basic_string<char,std::char_traits<char>,std::allocator<char> >
__ehhandler$?_Xlen@?$vector@VCRespawnInfo@@V?$allocator@VCRespawnInfo@@@std@@@std@@IBEXXZ:
  00008	b8 00 00 00 00	 mov	 eax, OFFSET FLAT:$T237663
  0000d	e9 00 00 00 00	 jmp	 ___CxxFrameHandler
text$x	ENDS
?_Xlen@?$vector@VCRespawnInfo@@V?$allocator@VCRespawnInfo@@@std@@@std@@IBEXXZ ENDP ; std::vector<CRespawnInfo,std::allocator<CRespawnInfo> >::_Xlen
PUBLIC	?erase@?$_Tree@V?$_Tmap_traits@HPAVCRespawner@@U?$less@H@std@@V?$allocator@U?$pair@$$CBHPAVCRespawner@@@std@@@3@$0A@@std@@@std@@QAE?AViterator@12@V312@0@Z ; std::_Tree<std::_Tmap_traits<int,CRespawner *,std::less<int>,std::allocator<std::pair<int const ,CRespawner *> >,0> >::erase
; Function compile flags: /Ogty
; File c:\program files\microsoft visual studio .net 2003\vc7\include\xtree
;	COMDAT ?erase@?$_Tree@V?$_Tmap_traits@HPAVCRespawner@@U?$less@H@std@@V?$allocator@U?$pair@$$CBHPAVCRespawner@@@std@@@3@$0A@@std@@@std@@QAE?AViterator@12@V312@0@Z
_TEXT	SEGMENT
___$ReturnUdt$ = 8					; size = 4
$T237676 = 12						; size = 4
__First$ = 12						; size = 4
__Last$ = 16						; size = 4
?erase@?$_Tree@V?$_Tmap_traits@HPAVCRespawner@@U?$less@H@std@@V?$allocator@U?$pair@$$CBHPAVCRespawner@@@std@@@3@$0A@@std@@@std@@QAE?AViterator@12@V312@0@Z PROC NEAR ; std::_Tree<std::_Tmap_traits<int,CRespawner *,std::less<int>,std::allocator<std::pair<int const ,CRespawner *> >,0> >::erase, COMDAT
; _this$ = ecx

; 750  : 		{	// erase [_First, _Last)

  00000	53		 push	 ebx

; 751  : 		if (_First == begin() && _Last == end())

  00001	8b 5c 24 10	 mov	 ebx, DWORD PTR __Last$[esp]
  00005	56		 push	 esi
  00006	8b 74 24 10	 mov	 esi, DWORD PTR __First$[esp+4]
  0000a	57		 push	 edi
  0000b	8b f9		 mov	 edi, ecx
  0000d	8b 47 04	 mov	 eax, DWORD PTR [edi+4]
  00010	3b 30		 cmp	 esi, DWORD PTR [eax]
  00012	75 38		 jne	 SHORT $L238008
  00014	3b d8		 cmp	 ebx, eax
  00016	75 34		 jne	 SHORT $L238008

; 752  : 			{	// erase all
; 753  : 			clear();

  00018	8b 40 04	 mov	 eax, DWORD PTR [eax+4]
  0001b	50		 push	 eax
  0001c	8b cf		 mov	 ecx, edi
  0001e	e8 00 00 00 00	 call	 ?_Erase@?$_Tree@V?$_Tmap_traits@HPAVCRespawner@@U?$less@H@std@@V?$allocator@U?$pair@$$CBHPAVCRespawner@@@std@@@3@$0A@@std@@@std@@IAEXPAU_Node@?$_Tree_nod@V?$_Tmap_traits@HPAVCRespawner@@U?$less@H@std@@V?$allocator@U?$pair@$$CBHPAVCRespawner@@@std@@@3@$0A@@std@@@2@@Z ; std::_Tree<std::_Tmap_traits<int,CRespawner *,std::less<int>,std::allocator<std::pair<int const ,CRespawner *> >,0> >::_Erase
  00023	8b 47 04	 mov	 eax, DWORD PTR [edi+4]
  00026	89 40 04	 mov	 DWORD PTR [eax+4], eax
  00029	8b 47 04	 mov	 eax, DWORD PTR [edi+4]
  0002c	c7 47 08 00 00
	00 00		 mov	 DWORD PTR [edi+8], 0
  00033	89 00		 mov	 DWORD PTR [eax], eax
  00035	8b 47 04	 mov	 eax, DWORD PTR [edi+4]
  00038	89 40 08	 mov	 DWORD PTR [eax+8], eax

; 754  : 			return (begin());

  0003b	8b 4f 04	 mov	 ecx, DWORD PTR [edi+4]
  0003e	8b 11		 mov	 edx, DWORD PTR [ecx]
  00040	8b 44 24 10	 mov	 eax, DWORD PTR ___$ReturnUdt$[esp+8]
  00044	5f		 pop	 edi
  00045	5e		 pop	 esi
  00046	89 10		 mov	 DWORD PTR [eax], edx
  00048	5b		 pop	 ebx

; 761  : 			}
; 762  : 		}

  00049	c2 0c 00	 ret	 12			; 0000000cH
$L238008:

; 755  : 			}
; 756  : 		else
; 757  : 			{	// partial erase, one at a time
; 758  : 			while (_First != _Last)

  0004c	3b f3		 cmp	 esi, ebx
  0004e	74 5b		 je	 SHORT $L229546
$L229545:

; 759  : 				erase(_First++);

  00050	8a 46 15	 mov	 al, BYTE PTR [esi+21]
  00053	84 c0		 test	 al, al
  00055	8b ce		 mov	 ecx, esi
  00057	75 41		 jne	 SHORT $L237978
  00059	8b 46 08	 mov	 eax, DWORD PTR [esi+8]
  0005c	8a 50 15	 mov	 dl, BYTE PTR [eax+21]
  0005f	84 d2		 test	 dl, dl
  00061	75 1a		 jne	 SHORT $L238010
  00063	8b f0		 mov	 esi, eax
  00065	8b 06		 mov	 eax, DWORD PTR [esi]
  00067	8a 50 15	 mov	 dl, BYTE PTR [eax+21]
  0006a	84 d2		 test	 dl, dl
  0006c	75 2c		 jne	 SHORT $L237978
  0006e	8b ff		 npad	 2
$L237999:
  00070	8b f0		 mov	 esi, eax
  00072	8b 06		 mov	 eax, DWORD PTR [esi]
  00074	8a 50 15	 mov	 dl, BYTE PTR [eax+21]
  00077	84 d2		 test	 dl, dl
  00079	74 f5		 je	 SHORT $L237999
  0007b	eb 1d		 jmp	 SHORT $L237978
$L238010:
  0007d	8b 46 04	 mov	 eax, DWORD PTR [esi+4]
  00080	8a 50 15	 mov	 dl, BYTE PTR [eax+21]
  00083	84 d2		 test	 dl, dl
  00085	75 11		 jne	 SHORT $L237981
$L237980:
  00087	3b 70 08	 cmp	 esi, DWORD PTR [eax+8]
  0008a	75 0c		 jne	 SHORT $L237981
  0008c	8b f0		 mov	 esi, eax
  0008e	8b 40 04	 mov	 eax, DWORD PTR [eax+4]
  00091	8a 50 15	 mov	 dl, BYTE PTR [eax+21]
  00094	84 d2		 test	 dl, dl
  00096	74 ef		 je	 SHORT $L237980
$L237981:
  00098	8b f0		 mov	 esi, eax
$L237978:
  0009a	51		 push	 ecx
  0009b	8d 44 24 18	 lea	 eax, DWORD PTR $T237676[esp+12]
  0009f	50		 push	 eax
  000a0	8b cf		 mov	 ecx, edi
  000a2	e8 00 00 00 00	 call	 ?erase@?$_Tree@V?$_Tmap_traits@HPAVCRespawner@@U?$less@H@std@@V?$allocator@U?$pair@$$CBHPAVCRespawner@@@std@@@3@$0A@@std@@@std@@QAE?AViterator@12@V312@@Z ; std::_Tree<std::_Tmap_traits<int,CRespawner *,std::less<int>,std::allocator<std::pair<int const ,CRespawner *> >,0> >::erase
  000a7	3b f3		 cmp	 esi, ebx
  000a9	75 a5		 jne	 SHORT $L229545
$L229546:

; 760  : 			return (_First);

  000ab	8b 44 24 10	 mov	 eax, DWORD PTR ___$ReturnUdt$[esp+8]
  000af	5f		 pop	 edi
  000b0	89 30		 mov	 DWORD PTR [eax], esi
  000b2	5e		 pop	 esi
  000b3	5b		 pop	 ebx

; 761  : 			}
; 762  : 		}

  000b4	c2 0c 00	 ret	 12			; 0000000cH
?erase@?$_Tree@V?$_Tmap_traits@HPAVCRespawner@@U?$less@H@std@@V?$allocator@U?$pair@$$CBHPAVCRespawner@@@std@@@3@$0A@@std@@@std@@QAE?AViterator@12@V312@0@Z ENDP ; std::_Tree<std::_Tmap_traits<int,CRespawner *,std::less<int>,std::allocator<std::pair<int const ,CRespawner *> >,0> >::erase
_TEXT	ENDS
PUBLIC	??$_Insert@Vconst_iterator@?$vector@VCRespawnInfo@@V?$allocator@VCRespawnInfo@@@std@@@std@@@?$vector@VCRespawnInfo@@V?$allocator@VCRespawnInfo@@@std@@@std@@QAEXViterator@01@Vconst_iterator@01@1Uforward_iterator_tag@1@@Z ; std::vector<CRespawnInfo,std::allocator<CRespawnInfo> >::_Insert<std::vector<CRespawnInfo,std::allocator<CRespawnInfo> >::const_iterator>
;	COMDAT xdata$x
; File c:\program files\microsoft visual studio .net 2003\vc7\include\xutility
xdata$x	SEGMENT
$T238408 DD	0ffffffffH
	DD	00H
	DD	0ffffffffH
	DD	00H
	DD	0ffffffffH
	DD	00H
	DD	0ffffffffH
	DD	00H
$T238410 DD	00H
	DD	00H
	DD	00H
	DD	FLAT:$L238022
$T238411 DD	00H
	DD	00H
	DD	00H
	DD	FLAT:$L238024
$T238409 DD	00H
	DD	00H
	DD	01H
	DD	01H
	DD	FLAT:$T238410
	DD	02H
	DD	02H
	DD	03H
	DD	01H
	DD	FLAT:$T238411
$T238405 DD	019930520H
	DD	04H
	DD	FLAT:$T238408
	DD	02H
	DD	FLAT:$T238409
	DD	2 DUP(00H)
; Function compile flags: /Ogty
; File c:\program files\microsoft visual studio .net 2003\vc7\include\vector
xdata$x	ENDS
;	COMDAT ??$_Insert@Vconst_iterator@?$vector@VCRespawnInfo@@V?$allocator@VCRespawnInfo@@@std@@@std@@@?$vector@VCRespawnInfo@@V?$allocator@VCRespawnInfo@@@std@@@std@@QAEXViterator@01@Vconst_iterator@01@1Uforward_iterator_tag@1@@Z
_TEXT	SEGMENT
_this$ = -28						; size = 4
tv482 = -24						; size = 4
tv463 = -24						; size = 4
__Newvec$230695 = -24					; size = 4
__Ptr$230696 = -20					; size = 4
__Count$ = -20						; size = 4
__$EHRec$ = -16						; size = 16
tv495 = 8						; size = 4
__Where$ = 8						; size = 4
__Cat$238400 = 12					; size = 1
__Cat$238386 = 12					; size = 1
__Cat$238345 = 12					; size = 1
__Cat$238331 = 12					; size = 1
__Cat$238254 = 12					; size = 1
__Cat$238188 = 12					; size = 1
__Cat$238166 = 12					; size = 1
__Cat$238140 = 12					; size = 1
__First$ = 12						; size = 4
__Last$ = 16						; size = 4
___formal$ = 20						; size = 1
??$_Insert@Vconst_iterator@?$vector@VCRespawnInfo@@V?$allocator@VCRespawnInfo@@@std@@@std@@@?$vector@VCRespawnInfo@@V?$allocator@VCRespawnInfo@@@std@@@std@@QAEXViterator@01@Vconst_iterator@01@1Uforward_iterator_tag@1@@Z PROC NEAR ; std::vector<CRespawnInfo,std::allocator<CRespawnInfo> >::_Insert<std::vector<CRespawnInfo,std::allocator<CRespawnInfo> >::const_iterator>, COMDAT
; _this$ = ecx

; 653  : 		void _Insert(iterator _Where,

  00000	55		 push	 ebp
  00001	8b ec		 mov	 ebp, esp
  00003	6a ff		 push	 -1
  00005	68 00 00 00 00	 push	 __ehhandler$??$_Insert@Vconst_iterator@?$vector@VCRespawnInfo@@V?$allocator@VCRespawnInfo@@@std@@@std@@@?$vector@VCRespawnInfo@@V?$allocator@VCRespawnInfo@@@std@@@std@@QAEXViterator@01@Vconst_iterator@01@1Uforward_iterator_tag@1@@Z
  0000a	64 a1 00 00 00
	00		 mov	 eax, DWORD PTR fs:__except_list
  00010	50		 push	 eax
  00011	64 89 25 00 00
	00 00		 mov	 DWORD PTR fs:__except_list, esp
  00018	83 ec 10	 sub	 esp, 16			; 00000010H

; 654  : 			_Iter _First, _Iter _Last, forward_iterator_tag)
; 655  : 		{	// insert [_First, _Last) at _Where, forward iterators
; 656  : 		size_type _Count = 0;
; 657  : 		_Distance(_First, _Last, _Count);

  0001b	8b 55 0c	 mov	 edx, DWORD PTR __First$[ebp]
  0001e	53		 push	 ebx
  0001f	56		 push	 esi
  00020	8b f1		 mov	 esi, ecx
  00022	8b 4d 10	 mov	 ecx, DWORD PTR __Last$[ebp]

; 658  : 		size_type _Capacity = capacity();

  00025	8b 5e 04	 mov	 ebx, DWORD PTR [esi+4]
  00028	2b ca		 sub	 ecx, edx
  0002a	b8 eb 5d f2 60	 mov	 eax, 1626496491		; 60f25debH
  0002f	f7 e9		 imul	 ecx
  00031	57		 push	 edi
  00032	c1 fa 09	 sar	 edx, 9
  00035	8b fa		 mov	 edi, edx
  00037	c1 ef 1f	 shr	 edi, 31			; 0000001fH
  0003a	03 fa		 add	 edi, edx
  0003c	85 db		 test	 ebx, ebx
  0003e	89 65 f0	 mov	 DWORD PTR __$EHRec$[ebp], esp
  00041	89 75 e4	 mov	 DWORD PTR _this$[ebp], esi
  00044	89 7d ec	 mov	 DWORD PTR __Count$[ebp], edi
  00047	75 04		 jne	 SHORT $L238056
  00049	33 c9		 xor	 ecx, ecx
  0004b	eb 16		 jmp	 SHORT $L238057
$L238056:
  0004d	8b 4e 0c	 mov	 ecx, DWORD PTR [esi+12]
  00050	2b cb		 sub	 ecx, ebx
  00052	b8 eb 5d f2 60	 mov	 eax, 1626496491		; 60f25debH
  00057	f7 e9		 imul	 ecx
  00059	c1 fa 09	 sar	 edx, 9
  0005c	8b ca		 mov	 ecx, edx
  0005e	c1 e9 1f	 shr	 ecx, 31			; 0000001fH
  00061	03 ca		 add	 ecx, edx
$L238057:

; 659  : 
; 660  : 		if (_Count == 0)

  00063	85 ff		 test	 edi, edi
  00065	0f 84 a2 02 00
	00		 je	 $L238396

; 661  : 			;
; 662  : 		else if (max_size() - size() < _Count)

  0006b	85 db		 test	 ebx, ebx
  0006d	75 04		 jne	 SHORT $L238079
  0006f	33 c0		 xor	 eax, eax
  00071	eb 16		 jmp	 SHORT $L238080
$L238079:
  00073	8b 56 08	 mov	 edx, DWORD PTR [esi+8]
  00076	2b d3		 sub	 edx, ebx
  00078	b8 eb 5d f2 60	 mov	 eax, 1626496491		; 60f25debH
  0007d	f7 ea		 imul	 edx
  0007f	c1 fa 09	 sar	 edx, 9
  00082	8b c2		 mov	 eax, edx
  00084	c1 e8 1f	 shr	 eax, 31			; 0000001fH
  00087	03 c2		 add	 eax, edx
$L238080:
  00089	ba 2e 79 30 00	 mov	 edx, 3176750		; 0030792eH
  0008e	2b d0		 sub	 edx, eax
  00090	3b d7		 cmp	 edx, edi
  00092	73 07		 jae	 SHORT $L230691

; 663  : 			_Xlen();	// result too long

  00094	8b ce		 mov	 ecx, esi
  00096	e8 00 00 00 00	 call	 ?_Xlen@?$vector@VCRespawnInfo@@V?$allocator@VCRespawnInfo@@@std@@@std@@IBEXXZ ; std::vector<CRespawnInfo,std::allocator<CRespawnInfo> >::_Xlen
$L238412:
$L230691:

; 664  : 		else if (_Capacity < size() + _Count)

  0009b	85 db		 test	 ebx, ebx
  0009d	75 04		 jne	 SHORT $L238086
  0009f	33 c0		 xor	 eax, eax
  000a1	eb 16		 jmp	 SHORT $L238087
$L238086:
  000a3	8b 56 08	 mov	 edx, DWORD PTR [esi+8]
  000a6	2b d3		 sub	 edx, ebx
  000a8	b8 eb 5d f2 60	 mov	 eax, 1626496491		; 60f25debH
  000ad	f7 ea		 imul	 edx
  000af	c1 fa 09	 sar	 edx, 9
  000b2	8b c2		 mov	 eax, edx
  000b4	c1 e8 1f	 shr	 eax, 31			; 0000001fH
  000b7	03 c2		 add	 eax, edx
$L238087:
  000b9	03 c7		 add	 eax, edi
  000bb	3b c8		 cmp	 ecx, eax
  000bd	0f 83 37 01 00
	00		 jae	 $L230693

; 665  : 			{	// not enough room, reallocate
; 666  : 			_Capacity = max_size() - _Capacity / 2 < _Capacity
; 667  : 				? 0 : _Capacity + _Capacity / 2;	// try to grow by 50%

  000c3	8b c1		 mov	 eax, ecx
  000c5	d1 e8		 shr	 eax, 1
  000c7	ba 2e 79 30 00	 mov	 edx, 3176750		; 0030792eH
  000cc	2b d0		 sub	 edx, eax
  000ce	3b d1		 cmp	 edx, ecx
  000d0	73 04		 jae	 SHORT $L238017
  000d2	33 c9		 xor	 ecx, ecx
  000d4	eb 02		 jmp	 SHORT $L238018
$L238017:
  000d6	03 c8		 add	 ecx, eax
$L238018:

; 668  : 			if (_Capacity < size() + _Count)

  000d8	85 db		 test	 ebx, ebx
  000da	75 04		 jne	 SHORT $L238109
  000dc	33 c0		 xor	 eax, eax
  000de	eb 16		 jmp	 SHORT $L238110
$L238109:
  000e0	8b 56 08	 mov	 edx, DWORD PTR [esi+8]
  000e3	2b d3		 sub	 edx, ebx
  000e5	b8 eb 5d f2 60	 mov	 eax, 1626496491		; 60f25debH
  000ea	f7 ea		 imul	 edx
  000ec	c1 fa 09	 sar	 edx, 9
  000ef	8b c2		 mov	 eax, edx
  000f1	c1 e8 1f	 shr	 eax, 31			; 0000001fH
  000f4	03 c2		 add	 eax, edx
$L238110:
  000f6	03 c7		 add	 eax, edi
  000f8	3b c8		 cmp	 ecx, eax
  000fa	73 0b		 jae	 SHORT $L230694

; 669  : 				_Capacity = size() + _Count;

  000fc	8b ce		 mov	 ecx, esi
  000fe	e8 00 00 00 00	 call	 ?size@?$vector@VCRespawnInfo@@V?$allocator@VCRespawnInfo@@@std@@@std@@QBEIXZ ; std::vector<CRespawnInfo,std::allocator<CRespawnInfo> >::size
  00103	8b c8		 mov	 ecx, eax
  00105	03 cf		 add	 ecx, edi
$L230694:

; 670  : 			pointer _Newvec = this->_Alval.allocate(_Capacity);

  00107	8b d9		 mov	 ebx, ecx
  00109	69 db 48 05 00
	00		 imul	 ebx, 1352		; 00000548H
  0010f	53		 push	 ebx
  00110	e8 00 00 00 00	 call	 ??2@YAPAXI@Z		; operator new

; 671  : 			pointer _Ptr = _Newvec;
; 672  : 
; 673  : 			_TRY_BEGIN
; 674  : 			_Ptr = _Ucopy(_Myfirst, _ITER_BASE(_Where),
; 675  : 				_Newvec);	// copy prefix

  00115	8b 55 0c	 mov	 edx, DWORD PTR __Cat$238140[ebp]
  00118	8b 4e 04	 mov	 ecx, DWORD PTR [esi+4]
  0011b	52		 push	 edx
  0011c	56		 push	 esi
  0011d	50		 push	 eax
  0011e	89 45 e8	 mov	 DWORD PTR __Newvec$230695[ebp], eax
  00121	89 45 ec	 mov	 DWORD PTR __Ptr$230696[ebp], eax
  00124	8b 45 08	 mov	 eax, DWORD PTR __Where$[ebp]
  00127	50		 push	 eax
  00128	51		 push	 ecx
  00129	c7 45 fc 00 00
	00 00		 mov	 DWORD PTR __$EHRec$[ebp+12], 0
  00130	e8 00 00 00 00	 call	 ??$_Uninit_copy@PAVCRespawnInfo@@PAV1@V?$allocator@VCRespawnInfo@@@std@@@std@@YAPAVCRespawnInfo@@PAV1@00AAV?$allocator@VCRespawnInfo@@@0@U_Nonscalar_ptr_iterator_tag@0@@Z ; std::_Uninit_copy<CRespawnInfo *,CRespawnInfo *,std::allocator<CRespawnInfo> >

; 676  : 			_Ptr = _Ucopy(_First, _Last, _Ptr);	// add new stuff

  00135	8b 4d 0c	 mov	 ecx, DWORD PTR __Cat$238166[ebp]
  00138	8b 55 10	 mov	 edx, DWORD PTR __Last$[ebp]
  0013b	83 c4 18	 add	 esp, 24			; 00000018H
  0013e	51		 push	 ecx
  0013f	56		 push	 esi
  00140	50		 push	 eax
  00141	89 45 ec	 mov	 DWORD PTR __Ptr$230696[ebp], eax
  00144	8b 45 0c	 mov	 eax, DWORD PTR __First$[ebp]
  00147	52		 push	 edx
  00148	50		 push	 eax
  00149	e8 00 00 00 00	 call	 ??$_Uninit_copy@Vconst_iterator@?$vector@VCRespawnInfo@@V?$allocator@VCRespawnInfo@@@std@@@std@@PAVCRespawnInfo@@V?$allocator@VCRespawnInfo@@@3@@std@@YAPAVCRespawnInfo@@Vconst_iterator@?$vector@VCRespawnInfo@@V?$allocator@VCRespawnInfo@@@std@@@0@0PAV1@AAV?$allocator@VCRespawnInfo@@@0@U_Nonscalar_ptr_iterator_tag@0@@Z ; std::_Uninit_copy<std::vector<CRespawnInfo,std::allocator<CRespawnInfo> >::const_iterator,CRespawnInfo *,std::allocator<CRespawnInfo> >

; 677  : 			_Ucopy(_ITER_BASE(_Where), _Mylast, _Ptr);	// copy suffix

  0014e	8b 55 0c	 mov	 edx, DWORD PTR __Cat$238188[ebp]
  00151	8b 4e 08	 mov	 ecx, DWORD PTR [esi+8]
  00154	83 c4 14	 add	 esp, 20			; 00000014H
  00157	52		 push	 edx
  00158	56		 push	 esi
  00159	50		 push	 eax
  0015a	89 45 ec	 mov	 DWORD PTR __Ptr$230696[ebp], eax
  0015d	8b 45 08	 mov	 eax, DWORD PTR __Where$[ebp]
  00160	51		 push	 ecx
  00161	50		 push	 eax
  00162	e8 00 00 00 00	 call	 ??$_Uninit_copy@PAVCRespawnInfo@@PAV1@V?$allocator@VCRespawnInfo@@@std@@@std@@YAPAVCRespawnInfo@@PAV1@00AAV?$allocator@VCRespawnInfo@@@0@U_Nonscalar_ptr_iterator_tag@0@@Z ; std::_Uninit_copy<CRespawnInfo *,CRespawnInfo *,std::allocator<CRespawnInfo> >

; 682  : 			_CATCH_END
; 683  : 
; 684  : 			_Count += size();

  00167	8b 46 04	 mov	 eax, DWORD PTR [esi+4]
  0016a	83 c4 14	 add	 esp, 20			; 00000014H
  0016d	85 c0		 test	 eax, eax
  0016f	c7 45 fc ff ff
	ff ff		 mov	 DWORD PTR __$EHRec$[ebp+12], -1
  00176	74 16		 je	 SHORT $L238201
$L238200:
  00178	8b 4e 08	 mov	 ecx, DWORD PTR [esi+8]
  0017b	2b c8		 sub	 ecx, eax
  0017d	b8 eb 5d f2 60	 mov	 eax, 1626496491		; 60f25debH
  00182	f7 e9		 imul	 ecx
  00184	c1 fa 09	 sar	 edx, 9
  00187	8b c2		 mov	 eax, edx
  00189	c1 e8 1f	 shr	 eax, 31			; 0000001fH
  0018c	03 c2		 add	 eax, edx
$L238201:
  0018e	03 f8		 add	 edi, eax

; 685  : 			if (_Myfirst != 0)

  00190	8b 46 04	 mov	 eax, DWORD PTR [esi+4]
  00193	85 c0		 test	 eax, eax
  00195	74 18		 je	 SHORT $L238204

; 686  : 				{	// destroy and deallocate old array
; 687  : 				_Destroy(_Myfirst, _Mylast);

  00197	8b 4e 08	 mov	 ecx, DWORD PTR [esi+8]
  0019a	51		 push	 ecx
  0019b	50		 push	 eax
  0019c	8b ce		 mov	 ecx, esi
  0019e	e8 00 00 00 00	 call	 ?_Destroy@?$vector@VCRespawnInfo@@V?$allocator@VCRespawnInfo@@@std@@@std@@IAEXPAVCRespawnInfo@@0@Z ; std::vector<CRespawnInfo,std::allocator<CRespawnInfo> >::_Destroy

; 688  : 				this->_Alval.deallocate(_Myfirst, _Myend - _Myfirst);

  001a3	8b 56 04	 mov	 edx, DWORD PTR [esi+4]
  001a6	52		 push	 edx
  001a7	e8 00 00 00 00	 call	 ??3@YAXPAX@Z		; operator delete
  001ac	83 c4 04	 add	 esp, 4
$L238204:

; 689  : 				}
; 690  : 			_Myend = _Newvec + _Capacity;

  001af	8b 45 e8	 mov	 eax, DWORD PTR __Newvec$230695[ebp]

; 691  : 			_Mylast = _Newvec + _Count;

  001b2	69 ff 48 05 00
	00		 imul	 edi, 1352		; 00000548H
  001b8	03 d8		 add	 ebx, eax
  001ba	03 f8		 add	 edi, eax
  001bc	89 5e 0c	 mov	 DWORD PTR [esi+12], ebx
  001bf	89 7e 08	 mov	 DWORD PTR [esi+8], edi

; 692  : 			_Myfirst = _Newvec;

  001c2	89 46 04	 mov	 DWORD PTR [esi+4], eax

; 719  : 			}
; 720  : 		}

  001c5	8b 4d f4	 mov	 ecx, DWORD PTR __$EHRec$[ebp+4]
  001c8	64 89 0d 00 00
	00 00		 mov	 DWORD PTR fs:__except_list, ecx
  001cf	5f		 pop	 edi
  001d0	5e		 pop	 esi
  001d1	5b		 pop	 ebx
  001d2	8b e5		 mov	 esp, ebp
  001d4	5d		 pop	 ebp
  001d5	c2 10 00	 ret	 16			; 00000010H
$L238022:

; 678  : 			_CATCH_ALL
; 679  : 			_Destroy(_Newvec, _Ptr);

  001d8	8b 45 ec	 mov	 eax, DWORD PTR __Ptr$230696[ebp]
  001db	8b 75 e8	 mov	 esi, DWORD PTR __Newvec$230695[ebp]
  001de	8b 4d e4	 mov	 ecx, DWORD PTR _this$[ebp]
  001e1	50		 push	 eax
  001e2	56		 push	 esi
  001e3	e8 00 00 00 00	 call	 ?_Destroy@?$vector@VCRespawnInfo@@V?$allocator@VCRespawnInfo@@@std@@@std@@IAEXPAVCRespawnInfo@@0@Z ; std::vector<CRespawnInfo,std::allocator<CRespawnInfo> >::_Destroy

; 680  : 			this->_Alval.deallocate(_Newvec, _Capacity);

  001e8	56		 push	 esi
  001e9	e8 00 00 00 00	 call	 ??3@YAXPAX@Z		; operator delete
  001ee	83 c4 04	 add	 esp, 4

; 681  : 			_RERAISE;

  001f1	6a 00		 push	 0
  001f3	6a 00		 push	 0
  001f5	e8 00 00 00 00	 call	 __CxxThrowException@8
$L238413:
$L230693:

; 693  : 			}
; 694  : 		else if ((size_type)(end() - _Where) < _Count)

  001fa	8b 4e 08	 mov	 ecx, DWORD PTR [esi+8]
  001fd	8b 5d 08	 mov	 ebx, DWORD PTR __Where$[ebp]
  00200	8b d1		 mov	 edx, ecx
  00202	2b d3		 sub	 edx, ebx
  00204	b8 eb 5d f2 60	 mov	 eax, 1626496491		; 60f25debH
  00209	f7 ea		 imul	 edx
  0020b	c1 fa 09	 sar	 edx, 9
  0020e	8b c2		 mov	 eax, edx
  00210	c1 e8 1f	 shr	 eax, 31			; 0000001fH
  00213	03 c2		 add	 eax, edx
  00215	3b c7		 cmp	 eax, edi

; 695  : 			{	// new stuff spills off end
; 696  : 			_Ucopy(_ITER_BASE(_Where), _Mylast,
; 697  : 				_ITER_BASE(_Where) + _Count);	// copy suffix

  00217	8b 55 0c	 mov	 edx, DWORD PTR __Cat$238254[ebp]
  0021a	52		 push	 edx
  0021b	89 4d e8	 mov	 DWORD PTR tv463[ebp], ecx
  0021e	56		 push	 esi
  0021f	0f 83 a9 00 00
	00		 jae	 $L230707
  00225	69 ff 48 05 00
	00		 imul	 edi, 1352		; 00000548H
  0022b	8d 04 1f	 lea	 eax, DWORD PTR [edi+ebx]
  0022e	50		 push	 eax
  0022f	51		 push	 ecx
  00230	53		 push	 ebx
  00231	89 7d e8	 mov	 DWORD PTR tv482[ebp], edi
  00234	e8 00 00 00 00	 call	 ??$_Uninit_copy@PAVCRespawnInfo@@PAV1@V?$allocator@VCRespawnInfo@@@std@@@std@@YAPAVCRespawnInfo@@PAV1@00AAV?$allocator@VCRespawnInfo@@@0@U_Nonscalar_ptr_iterator_tag@0@@Z ; std::_Uninit_copy<CRespawnInfo *,CRespawnInfo *,std::allocator<CRespawnInfo> >

; 698  : 			_Iter _Mid = _First;
; 699  : 			advance(_Mid, end() - _Where);

  00239	8b 4e 08	 mov	 ecx, DWORD PTR [esi+8]
  0023c	8b d1		 mov	 edx, ecx
  0023e	2b d3		 sub	 edx, ebx
  00240	b8 eb 5d f2 60	 mov	 eax, 1626496491		; 60f25debH
  00245	f7 ea		 imul	 edx
  00247	c1 fa 09	 sar	 edx, 9
  0024a	8b c2		 mov	 eax, edx
  0024c	c1 e8 1f	 shr	 eax, 31			; 0000001fH
  0024f	03 c2		 add	 eax, edx
  00251	8b 55 0c	 mov	 edx, DWORD PTR __First$[ebp]
  00254	8b f8		 mov	 edi, eax

; 700  : 
; 701  : 			_TRY_BEGIN
; 702  : 			_Ucopy(_Mid, _Last, _Mylast);	// insert new stuff off end

  00256	8b 45 10	 mov	 eax, DWORD PTR __Last$[ebp]
  00259	69 ff 48 05 00
	00		 imul	 edi, 1352		; 00000548H
  0025f	03 fa		 add	 edi, edx
  00261	8b 55 0c	 mov	 edx, DWORD PTR __Cat$238331[ebp]
  00264	52		 push	 edx
  00265	56		 push	 esi
  00266	51		 push	 ecx
  00267	50		 push	 eax
  00268	57		 push	 edi
  00269	c7 45 fc 02 00
	00 00		 mov	 DWORD PTR __$EHRec$[ebp+12], 2
  00270	e8 00 00 00 00	 call	 ??$_Uninit_copy@Vconst_iterator@?$vector@VCRespawnInfo@@V?$allocator@VCRespawnInfo@@@std@@@std@@PAVCRespawnInfo@@V?$allocator@VCRespawnInfo@@@3@@std@@YAPAVCRespawnInfo@@Vconst_iterator@?$vector@VCRespawnInfo@@V?$allocator@VCRespawnInfo@@@std@@@0@0PAV1@AAV?$allocator@VCRespawnInfo@@@0@U_Nonscalar_ptr_iterator_tag@0@@Z ; std::_Uninit_copy<std::vector<CRespawnInfo,std::allocator<CRespawnInfo> >::const_iterator,CRespawnInfo *,std::allocator<CRespawnInfo> >

; 706  : 			_CATCH_END
; 707  : 
; 708  : 			_Mylast += _Count;

  00275	8b 56 08	 mov	 edx, DWORD PTR [esi+8]
  00278	8b 4d e8	 mov	 ecx, DWORD PTR tv482[ebp]

; 709  : 			copy(_First, _Mid, _ITER_BASE(_Where));	// insert to old end

  0027b	8b 45 0c	 mov	 eax, DWORD PTR __First$[ebp]
  0027e	03 d1		 add	 edx, ecx
  00280	83 c4 28	 add	 esp, 40			; 00000028H
  00283	89 56 08	 mov	 DWORD PTR [esi+8], edx
  00286	8b 55 0c	 mov	 edx, DWORD PTR __Cat$238345[ebp]
  00289	52		 push	 edx
  0028a	53		 push	 ebx
  0028b	57		 push	 edi
  0028c	50		 push	 eax
  0028d	e8 00 00 00 00	 call	 ??$_Copy_opt@Vconst_iterator@?$vector@VCRespawnInfo@@V?$allocator@VCRespawnInfo@@@std@@@std@@PAVCRespawnInfo@@@std@@YAPAVCRespawnInfo@@Vconst_iterator@?$vector@VCRespawnInfo@@V?$allocator@VCRespawnInfo@@@std@@@0@0PAV1@U_Nonscalar_ptr_iterator_tag@0@@Z ; std::_Copy_opt<std::vector<CRespawnInfo,std::allocator<CRespawnInfo> >::const_iterator,CRespawnInfo *>
  00292	83 c4 10	 add	 esp, 16			; 00000010H

; 719  : 			}
; 720  : 		}

  00295	8b 4d f4	 mov	 ecx, DWORD PTR __$EHRec$[ebp+4]
  00298	64 89 0d 00 00
	00 00		 mov	 DWORD PTR fs:__except_list, ecx
  0029f	5f		 pop	 edi
  002a0	5e		 pop	 esi
  002a1	5b		 pop	 ebx
  002a2	8b e5		 mov	 esp, ebp
  002a4	5d		 pop	 ebp
  002a5	c2 10 00	 ret	 16			; 00000010H
$L238024:

; 703  : 			_CATCH_ALL
; 704  : 			_Destroy(_ITER_BASE(_Where) + _Count, _Mylast + _Count);

  002a8	8b 45 ec	 mov	 eax, DWORD PTR __Count$[ebp]
  002ab	8b 4d e4	 mov	 ecx, DWORD PTR _this$[ebp]
  002ae	69 c0 48 05 00
	00		 imul	 eax, 1352		; 00000548H
  002b4	8b 51 08	 mov	 edx, DWORD PTR [ecx+8]
  002b7	03 d0		 add	 edx, eax
  002b9	52		 push	 edx
  002ba	8b 55 08	 mov	 edx, DWORD PTR __Where$[ebp]
  002bd	03 c2		 add	 eax, edx
  002bf	50		 push	 eax
  002c0	e8 00 00 00 00	 call	 ?_Destroy@?$vector@VCRespawnInfo@@V?$allocator@VCRespawnInfo@@@std@@@std@@IAEXPAVCRespawnInfo@@0@Z ; std::vector<CRespawnInfo,std::allocator<CRespawnInfo> >::_Destroy

; 705  : 			_RERAISE;

  002c5	6a 00		 push	 0
  002c7	6a 00		 push	 0
  002c9	e8 00 00 00 00	 call	 __CxxThrowException@8
$L238414:
$L230707:

; 710  : 			}
; 711  : 		else
; 712  : 			{	// new stuff can all be assigned
; 713  : 			pointer _Oldend = _Mylast;
; 714  : 			_Mylast = _Ucopy(_Oldend - _Count, _Oldend,
; 715  : 				_Mylast);	// copy suffix

  002ce	69 ff 48 05 00
	00		 imul	 edi, 1352		; 00000548H
  002d4	51		 push	 ecx
  002d5	8b c1		 mov	 eax, ecx
  002d7	2b c7		 sub	 eax, edi
  002d9	51		 push	 ecx
  002da	50		 push	 eax
  002db	89 45 08	 mov	 DWORD PTR tv495[ebp], eax
  002de	e8 00 00 00 00	 call	 ??$_Uninit_copy@PAVCRespawnInfo@@PAV1@V?$allocator@VCRespawnInfo@@@std@@@std@@YAPAVCRespawnInfo@@PAV1@00AAV?$allocator@VCRespawnInfo@@@0@U_Nonscalar_ptr_iterator_tag@0@@Z ; std::_Uninit_copy<CRespawnInfo *,CRespawnInfo *,std::allocator<CRespawnInfo> >

; 716  : 			copy_backward(_ITER_BASE(_Where), _Oldend - _Count,
; 717  : 				_Oldend);	// copy hole

  002e3	8b 4d e8	 mov	 ecx, DWORD PTR tv463[ebp]
  002e6	8b 55 08	 mov	 edx, DWORD PTR tv495[ebp]
  002e9	89 46 08	 mov	 DWORD PTR [esi+8], eax
  002ec	8b 45 0c	 mov	 eax, DWORD PTR __Cat$238386[ebp]
  002ef	50		 push	 eax
  002f0	51		 push	 ecx
  002f1	52		 push	 edx
  002f2	53		 push	 ebx
  002f3	e8 00 00 00 00	 call	 ??$_Copy_backward_opt@PAVCRespawnInfo@@PAV1@@std@@YAPAVCRespawnInfo@@PAV1@00U_Nonscalar_ptr_iterator_tag@0@@Z ; std::_Copy_backward_opt<CRespawnInfo *,CRespawnInfo *>

; 718  : 			copy(_First, _Last, _ITER_BASE(_Where));	// insert into hole

  002f8	8b 45 0c	 mov	 eax, DWORD PTR __Cat$238400[ebp]
  002fb	8b 4d 10	 mov	 ecx, DWORD PTR __Last$[ebp]
  002fe	8b 55 0c	 mov	 edx, DWORD PTR __First$[ebp]
  00301	50		 push	 eax
  00302	53		 push	 ebx
  00303	51		 push	 ecx
  00304	52		 push	 edx
  00305	e8 00 00 00 00	 call	 ??$_Copy_opt@Vconst_iterator@?$vector@VCRespawnInfo@@V?$allocator@VCRespawnInfo@@@std@@@std@@PAVCRespawnInfo@@@std@@YAPAVCRespawnInfo@@Vconst_iterator@?$vector@VCRespawnInfo@@V?$allocator@VCRespawnInfo@@@std@@@0@0PAV1@U_Nonscalar_ptr_iterator_tag@0@@Z ; std::_Copy_opt<std::vector<CRespawnInfo,std::allocator<CRespawnInfo> >::const_iterator,CRespawnInfo *>
  0030a	83 c4 34	 add	 esp, 52			; 00000034H
$L238396:

; 719  : 			}
; 720  : 		}

  0030d	8b 4d f4	 mov	 ecx, DWORD PTR __$EHRec$[ebp+4]
  00310	5f		 pop	 edi
  00311	5e		 pop	 esi
  00312	64 89 0d 00 00
	00 00		 mov	 DWORD PTR fs:__except_list, ecx
  00319	5b		 pop	 ebx
  0031a	8b e5		 mov	 esp, ebp
  0031c	5d		 pop	 ebp
  0031d	c2 10 00	 ret	 16			; 00000010H
$L238407:
_TEXT	ENDS
;	COMDAT text$x
text$x	SEGMENT
__ehhandler$??$_Insert@Vconst_iterator@?$vector@VCRespawnInfo@@V?$allocator@VCRespawnInfo@@@std@@@std@@@?$vector@VCRespawnInfo@@V?$allocator@VCRespawnInfo@@@std@@@std@@QAEXViterator@01@Vconst_iterator@01@1Uforward_iterator_tag@1@@Z:
  00000	b8 00 00 00 00	 mov	 eax, OFFSET FLAT:$T238405
  00005	e9 00 00 00 00	 jmp	 ___CxxFrameHandler
text$x	ENDS
??$_Insert@Vconst_iterator@?$vector@VCRespawnInfo@@V?$allocator@VCRespawnInfo@@@std@@@std@@@?$vector@VCRespawnInfo@@V?$allocator@VCRespawnInfo@@@std@@@std@@QAEXViterator@01@Vconst_iterator@01@1Uforward_iterator_tag@1@@Z ENDP ; std::vector<CRespawnInfo,std::allocator<CRespawnInfo> >::_Insert<std::vector<CRespawnInfo,std::allocator<CRespawnInfo> >::const_iterator>
PUBLIC	?Release@CLayerdRespawner@@QAEXH@Z		; CLayerdRespawner::Release
; Function compile flags: /Ogty
; File c:\documents and settings\test\mes documents\source\virtuos_v17\build\program\_common\respawn.cpp
;	COMDAT ?Release@CLayerdRespawner@@QAEXH@Z
_TEXT	SEGMENT
_i$ = -4						; size = 4
$T238424 = 8						; size = 4
_nLayer$ = 8						; size = 4
?Release@CLayerdRespawner@@QAEXH@Z PROC NEAR		; CLayerdRespawner::Release, COMDAT
; _this$ = ecx

; 732  : {

  00000	51		 push	 ecx
  00001	53		 push	 ebx
  00002	56		 push	 esi
  00003	57		 push	 edi
  00004	8b f1		 mov	 esi, ecx

; 733  : 	MRP::iterator i = m_mapRespawners.find( nLayer );

  00006	8d 44 24 14	 lea	 eax, DWORD PTR _nLayer$[esp+12]
  0000a	50		 push	 eax
  0000b	8d 4c 24 10	 lea	 ecx, DWORD PTR _i$[esp+20]
  0000f	8d 7e 38	 lea	 edi, DWORD PTR [esi+56]
  00012	51		 push	 ecx
  00013	8b cf		 mov	 ecx, edi
  00015	e8 00 00 00 00	 call	 ?find@?$_Tree@V?$_Tmap_traits@HPAVCRespawner@@U?$less@H@std@@V?$allocator@U?$pair@$$CBHPAVCRespawner@@@std@@@3@$0A@@std@@@std@@QAE?AViterator@12@ABH@Z ; std::_Tree<std::_Tmap_traits<int,CRespawner *,std::less<int>,std::allocator<std::pair<int const ,CRespawner *> >,0> >::find

; 734  : 	if( i != m_mapRespawners.end() )

  0001a	8b 5c 24 0c	 mov	 ebx, DWORD PTR _i$[esp+16]
  0001e	3b 5e 3c	 cmp	 ebx, DWORD PTR [esi+60]
  00021	74 1a		 je	 SHORT $L228933

; 735  : 	{
; 736  : 		CRespawner* pRespawner	= i->second;

  00023	8b 4b 10	 mov	 ecx, DWORD PTR [ebx+16]

; 737  : 		SAFE_DELETE( pRespawner );

  00026	85 c9		 test	 ecx, ecx
  00028	74 06		 je	 SHORT $L238422
  0002a	8b 11		 mov	 edx, DWORD PTR [ecx]
  0002c	6a 01		 push	 1
  0002e	ff 12		 call	 DWORD PTR [edx]
$L238422:

; 738  : 		m_mapRespawners.erase( i );

  00030	53		 push	 ebx
  00031	8d 44 24 18	 lea	 eax, DWORD PTR $T238424[esp+16]
  00035	50		 push	 eax
  00036	8b cf		 mov	 ecx, edi
  00038	e8 00 00 00 00	 call	 ?erase@?$_Tree@V?$_Tmap_traits@HPAVCRespawner@@U?$less@H@std@@V?$allocator@U?$pair@$$CBHPAVCRespawner@@@std@@@3@$0A@@std@@@std@@QAE?AViterator@12@V312@@Z ; std::_Tree<std::_Tmap_traits<int,CRespawner *,std::less<int>,std::allocator<std::pair<int const ,CRespawner *> >,0> >::erase
$L228933:
  0003d	5f		 pop	 edi
  0003e	5e		 pop	 esi
  0003f	5b		 pop	 ebx

; 739  : 	}
; 740  : }

  00040	59		 pop	 ecx
  00041	c2 04 00	 ret	 4
?Release@CLayerdRespawner@@QAEXH@Z ENDP			; CLayerdRespawner::Release
_TEXT	ENDS
PUBLIC	?insert@?$_Tree@V?$_Tmap_traits@HPAVCRespawner@@U?$less@H@std@@V?$allocator@U?$pair@$$CBHPAVCRespawner@@@std@@@3@$0A@@std@@@std@@QAE?AU?$pair@Viterator@?$_Tree@V?$_Tmap_traits@HPAVCRespawner@@U?$less@H@std@@V?$allocator@U?$pair@$$CBHPAVCRespawner@@@std@@@3@$0A@@std@@@std@@_N@2@ABU?$pair@$$CBHPAVCRespawner@@@2@@Z ; std::_Tree<std::_Tmap_traits<int,CRespawner *,std::less<int>,std::allocator<std::pair<int const ,CRespawner *> >,0> >::insert
; Function compile flags: /Ogty
; File c:\program files\microsoft visual studio .net 2003\vc7\include\xtree
;	COMDAT ?insert@?$_Tree@V?$_Tmap_traits@HPAVCRespawner@@U?$less@H@std@@V?$allocator@U?$pair@$$CBHPAVCRespawner@@@std@@@3@$0A@@std@@@std@@QAE?AU?$pair@Viterator@?$_Tree@V?$_Tmap_traits@HPAVCRespawner@@U?$less@H@std@@V?$allocator@U?$pair@$$CBHPAVCRespawner@@@std@@@3@$0A@@std@@@std@@_N@2@ABU?$pair@$$CBHPAVCRespawner@@@2@@Z
_TEXT	SEGMENT
__Addleft$ = -4						; size = 1
___$ReturnUdt$ = 8					; size = 4
$T238484 = 12						; size = 4
$T238482 = 12						; size = 4
__Where$229072 = 12					; size = 4
__Val$ = 12						; size = 4
?insert@?$_Tree@V?$_Tmap_traits@HPAVCRespawner@@U?$less@H@std@@V?$allocator@U?$pair@$$CBHPAVCRespawner@@@std@@@3@$0A@@std@@@std@@QAE?AU?$pair@Viterator@?$_Tree@V?$_Tmap_traits@HPAVCRespawner@@U?$less@H@std@@V?$allocator@U?$pair@$$CBHPAVCRespawner@@@std@@@3@$0A@@std@@@std@@_N@2@ABU?$pair@$$CBHPAVCRespawner@@@2@@Z PROC NEAR ; std::_Tree<std::_Tmap_traits<int,CRespawner *,std::less<int>,std::allocator<std::pair<int const ,CRespawner *> >,0> >::insert, COMDAT
; _this$ = ecx

; 477  : 		{	// try to insert node with value _Val

  00000	51		 push	 ecx
  00001	55		 push	 ebp

; 478  : 		_Nodeptr _Trynode = _Root();
; 479  : 		_Nodeptr _Wherenode = _Myhead;
; 480  : 		bool _Addleft = true;	// add to left of head if tree empty
; 481  : 		while (!_Isnil(_Trynode))

  00002	8b 6c 24 10	 mov	 ebp, DWORD PTR __Val$[esp+4]
  00006	56		 push	 esi
  00007	57		 push	 edi
  00008	8b f9		 mov	 edi, ecx
  0000a	8b 77 04	 mov	 esi, DWORD PTR [edi+4]
  0000d	8b 46 04	 mov	 eax, DWORD PTR [esi+4]
  00010	8a 50 15	 mov	 dl, BYTE PTR [eax+21]
  00013	84 d2		 test	 dl, dl
  00015	b1 01		 mov	 cl, 1
  00017	88 4c 24 0c	 mov	 BYTE PTR __Addleft$[esp+16], cl
  0001b	75 20		 jne	 SHORT $L229062
  0001d	8b 55 00	 mov	 edx, DWORD PTR [ebp]
$L229061:

; 482  : 			{	// look for leaf to insert before (_Addleft) or after
; 483  : 			_Wherenode = _Trynode;
; 484  : 			_Addleft = this->comp(this->_Kfn(_Val), _Key(_Trynode));

  00020	3b 50 0c	 cmp	 edx, DWORD PTR [eax+12]
  00023	0f 9c c1	 setl	 cl

; 485  : 			_Trynode = _Addleft ? _Left(_Trynode) : _Right(_Trynode);

  00026	84 c9		 test	 cl, cl
  00028	8b f0		 mov	 esi, eax
  0002a	88 4c 24 0c	 mov	 BYTE PTR __Addleft$[esp+16], cl
  0002e	74 04		 je	 SHORT $L238476
  00030	8b 00		 mov	 eax, DWORD PTR [eax]
  00032	eb 03		 jmp	 SHORT $L238477
$L238476:
  00034	8b 40 08	 mov	 eax, DWORD PTR [eax+8]
$L238477:

; 478  : 		_Nodeptr _Trynode = _Root();
; 479  : 		_Nodeptr _Wherenode = _Myhead;
; 480  : 		bool _Addleft = true;	// add to left of head if tree empty
; 481  : 		while (!_Isnil(_Trynode))

  00037	80 78 15 00	 cmp	 BYTE PTR [eax+21], 0
  0003b	74 e3		 je	 SHORT $L229061
$L229062:

; 486  : 			}
; 487  : 
; 488  : 		if (this->_Multi)
; 489  : 			return (_Pairib(_Insert(_Addleft, _Wherenode, _Val), true));
; 490  : 		else
; 491  : 			{	// insert only if unique
; 492  : 			iterator _Where = _TREE_ITERATOR(_Wherenode);
; 493  : 			if (!_Addleft)

  0003d	84 c9		 test	 cl, cl
  0003f	8b d6		 mov	 edx, esi
  00041	89 54 24 18	 mov	 DWORD PTR __Where$229072[esp+12], edx
  00045	74 33		 je	 SHORT $L238576

; 494  : 				;	// need to test if insert after is okay
; 495  : 			else if (_Where == begin())

  00047	8b 47 04	 mov	 eax, DWORD PTR [edi+4]
  0004a	3b 30		 cmp	 esi, DWORD PTR [eax]

; 496  : 				return (_Pairib(_Insert(true, _Wherenode, _Val), true));

  0004c	8d 4c 24 18	 lea	 ecx, DWORD PTR $T238482[esp+12]
  00050	75 1f		 jne	 SHORT $L229077
  00052	55		 push	 ebp
  00053	56		 push	 esi
  00054	6a 01		 push	 1
  00056	51		 push	 ecx
  00057	8b cf		 mov	 ecx, edi
  00059	e8 00 00 00 00	 call	 ?_Insert@?$_Tree@V?$_Tmap_traits@HPAVCRespawner@@U?$less@H@std@@V?$allocator@U?$pair@$$CBHPAVCRespawner@@@std@@@3@$0A@@std@@@std@@IAE?AViterator@12@_NPAU_Node@?$_Tree_nod@V?$_Tmap_traits@HPAVCRespawner@@U?$less@H@std@@V?$allocator@U?$pair@$$CBHPAVCRespawner@@@std@@@3@$0A@@std@@@2@ABU?$pair@$$CBHPAVCRespawner@@@2@@Z ; std::_Tree<std::_Tmap_traits<int,CRespawner *,std::less<int>,std::allocator<std::pair<int const ,CRespawner *> >,0> >::_Insert
  0005e	8b 10		 mov	 edx, DWORD PTR [eax]
  00060	8b 44 24 14	 mov	 eax, DWORD PTR ___$ReturnUdt$[esp+12]
  00064	5f		 pop	 edi
  00065	5e		 pop	 esi
  00066	c6 40 04 01	 mov	 BYTE PTR [eax+4], 1

; 502  : 			else
; 503  : 				return (_Pairib(_Where, false));

  0006a	89 10		 mov	 DWORD PTR [eax], edx
  0006c	5d		 pop	 ebp

; 504  : 			}
; 505  : 		}

  0006d	59		 pop	 ecx
  0006e	c2 08 00	 ret	 8
$L229077:

; 497  : 			else
; 498  : 				--_Where;	// need to test if insert before is okay

  00071	e8 00 00 00 00	 call	 ?_Dec@const_iterator@?$_Tree@V?$_Tmap_traits@HPAVCRespawner@@U?$less@H@std@@V?$allocator@U?$pair@$$CBHPAVCRespawner@@@std@@@3@$0A@@std@@@std@@QAEXXZ ; std::_Tree<std::_Tmap_traits<int,CRespawner *,std::less<int>,std::allocator<std::pair<int const ,CRespawner *> >,0> >::const_iterator::_Dec
  00076	8b 54 24 18	 mov	 edx, DWORD PTR __Where$229072[esp+12]
$L238576:

; 499  : 
; 500  : 			if (this->comp(_Key(_Where._Mynode()), this->_Kfn(_Val)))

  0007a	8b 42 0c	 mov	 eax, DWORD PTR [edx+12]
  0007d	3b 45 00	 cmp	 eax, DWORD PTR [ebp]
  00080	7d 26		 jge	 SHORT $L229082

; 501  : 				return (_Pairib(_Insert(_Addleft, _Wherenode, _Val), true));

  00082	8b 4c 24 0c	 mov	 ecx, DWORD PTR __Addleft$[esp+16]
  00086	55		 push	 ebp
  00087	56		 push	 esi
  00088	51		 push	 ecx
  00089	8d 54 24 24	 lea	 edx, DWORD PTR $T238484[esp+24]
  0008d	52		 push	 edx
  0008e	8b cf		 mov	 ecx, edi
  00090	e8 00 00 00 00	 call	 ?_Insert@?$_Tree@V?$_Tmap_traits@HPAVCRespawner@@U?$less@H@std@@V?$allocator@U?$pair@$$CBHPAVCRespawner@@@std@@@3@$0A@@std@@@std@@IAE?AViterator@12@_NPAU_Node@?$_Tree_nod@V?$_Tmap_traits@HPAVCRespawner@@U?$less@H@std@@V?$allocator@U?$pair@$$CBHPAVCRespawner@@@std@@@3@$0A@@std@@@2@ABU?$pair@$$CBHPAVCRespawner@@@2@@Z ; std::_Tree<std::_Tmap_traits<int,CRespawner *,std::less<int>,std::allocator<std::pair<int const ,CRespawner *> >,0> >::_Insert
  00095	8b 08		 mov	 ecx, DWORD PTR [eax]
  00097	8b 44 24 14	 mov	 eax, DWORD PTR ___$ReturnUdt$[esp+12]
  0009b	5f		 pop	 edi
  0009c	5e		 pop	 esi
  0009d	89 08		 mov	 DWORD PTR [eax], ecx
  0009f	c6 40 04 01	 mov	 BYTE PTR [eax+4], 1
  000a3	5d		 pop	 ebp

; 504  : 			}
; 505  : 		}

  000a4	59		 pop	 ecx
  000a5	c2 08 00	 ret	 8
$L229082:

; 502  : 			else
; 503  : 				return (_Pairib(_Where, false));

  000a8	8b 44 24 14	 mov	 eax, DWORD PTR ___$ReturnUdt$[esp+12]
  000ac	5f		 pop	 edi
  000ad	5e		 pop	 esi
  000ae	c6 40 04 00	 mov	 BYTE PTR [eax+4], 0
  000b2	89 10		 mov	 DWORD PTR [eax], edx
  000b4	5d		 pop	 ebp

; 504  : 			}
; 505  : 		}

  000b5	59		 pop	 ecx
  000b6	c2 08 00	 ret	 8
?insert@?$_Tree@V?$_Tmap_traits@HPAVCRespawner@@U?$less@H@std@@V?$allocator@U?$pair@$$CBHPAVCRespawner@@@std@@@3@$0A@@std@@@std@@QAE?AU?$pair@Viterator@?$_Tree@V?$_Tmap_traits@HPAVCRespawner@@U?$less@H@std@@V?$allocator@U?$pair@$$CBHPAVCRespawner@@@std@@@3@$0A@@std@@@std@@_N@2@ABU?$pair@$$CBHPAVCRespawner@@@2@@Z ENDP ; std::_Tree<std::_Tmap_traits<int,CRespawner *,std::less<int>,std::allocator<std::pair<int const ,CRespawner *> >,0> >::insert
_TEXT	ENDS
PUBLIC	?_Buy@?$vector@VCRespawnInfo@@V?$allocator@VCRespawnInfo@@@std@@@std@@IAE_NI@Z ; std::vector<CRespawnInfo,std::allocator<CRespawnInfo> >::_Buy
; Function compile flags: /Ogty
; File c:\program files\microsoft visual studio .net 2003\vc7\include\vector
;	COMDAT ?_Buy@?$vector@VCRespawnInfo@@V?$allocator@VCRespawnInfo@@@std@@@std@@IAE_NI@Z
_TEXT	SEGMENT
__Capacity$ = 8						; size = 4
?_Buy@?$vector@VCRespawnInfo@@V?$allocator@VCRespawnInfo@@@std@@@std@@IAE_NI@Z PROC NEAR ; std::vector<CRespawnInfo,std::allocator<CRespawnInfo> >::_Buy, COMDAT
; _this$ = ecx

; 770  : 		{	// allocate array with _Capacity elements

  00000	56		 push	 esi

; 771  : 		_Myfirst = 0, _Mylast = 0, _Myend = 0;

  00001	33 c0		 xor	 eax, eax
  00003	57		 push	 edi

; 772  : 		if (_Capacity == 0)

  00004	8b 7c 24 0c	 mov	 edi, DWORD PTR __Capacity$[esp+4]
  00008	3b f8		 cmp	 edi, eax
  0000a	8b f1		 mov	 esi, ecx
  0000c	89 46 04	 mov	 DWORD PTR [esi+4], eax
  0000f	89 46 08	 mov	 DWORD PTR [esi+8], eax
  00012	89 46 0c	 mov	 DWORD PTR [esi+12], eax
  00015	75 07		 jne	 SHORT $L229234
  00017	5f		 pop	 edi

; 773  : 			return (false);

  00018	32 c0		 xor	 al, al
  0001a	5e		 pop	 esi

; 783  : 		}

  0001b	c2 04 00	 ret	 4
$L229234:

; 774  : 		else if (max_size() < _Capacity)

  0001e	81 ff 2e 79 30
	00		 cmp	 edi, 3176750		; 0030792eH
  00024	76 07		 jbe	 SHORT $L229236

; 775  : 			_Xlen();	// result too long

  00026	8b ce		 mov	 ecx, esi
  00028	e8 00 00 00 00	 call	 ?_Xlen@?$vector@VCRespawnInfo@@V?$allocator@VCRespawnInfo@@@std@@@std@@IBEXXZ ; std::vector<CRespawnInfo,std::allocator<CRespawnInfo> >::_Xlen
$L238638:
$L229236:

; 776  : 		else
; 777  : 			{	// nonempty array, allocate storage
; 778  : 			_Myfirst = this->_Alval.allocate(_Capacity);

  0002d	69 ff 48 05 00
	00		 imul	 edi, 1352		; 00000548H
  00033	57		 push	 edi
  00034	e8 00 00 00 00	 call	 ??2@YAPAXI@Z		; operator new

; 779  : 			_Mylast = _Myfirst;
; 780  : 			_Myend = _Myfirst + _Capacity;

  00039	03 f8		 add	 edi, eax
  0003b	83 c4 04	 add	 esp, 4
  0003e	89 7e 0c	 mov	 DWORD PTR [esi+12], edi
  00041	89 46 04	 mov	 DWORD PTR [esi+4], eax
  00044	89 46 08	 mov	 DWORD PTR [esi+8], eax
  00047	5f		 pop	 edi

; 781  : 			}
; 782  : 		return (true);

  00048	b0 01		 mov	 al, 1
  0004a	5e		 pop	 esi

; 783  : 		}

  0004b	c2 04 00	 ret	 4
$L238637:
?_Buy@?$vector@VCRespawnInfo@@V?$allocator@VCRespawnInfo@@@std@@@std@@IAE_NI@Z ENDP ; std::vector<CRespawnInfo,std::allocator<CRespawnInfo> >::_Buy
_TEXT	ENDS
PUBLIC	?_Tidy@?$_Tree@V?$_Tmap_traits@HPAVCRespawner@@U?$less@H@std@@V?$allocator@U?$pair@$$CBHPAVCRespawner@@@std@@@3@$0A@@std@@@std@@IAEXXZ ; std::_Tree<std::_Tmap_traits<int,CRespawner *,std::less<int>,std::allocator<std::pair<int const ,CRespawner *> >,0> >::_Tidy
; Function compile flags: /Ogty
; File c:\program files\microsoft visual studio .net 2003\vc7\include\xtree
;	COMDAT ?_Tidy@?$_Tree@V?$_Tmap_traits@HPAVCRespawner@@U?$less@H@std@@V?$allocator@U?$pair@$$CBHPAVCRespawner@@@std@@@3@$0A@@std@@@std@@IAEXXZ
_TEXT	SEGMENT
$T238644 = -4						; size = 4
?_Tidy@?$_Tree@V?$_Tmap_traits@HPAVCRespawner@@U?$less@H@std@@V?$allocator@U?$pair@$$CBHPAVCRespawner@@@std@@@3@$0A@@std@@@std@@IAEXXZ PROC NEAR ; std::_Tree<std::_Tmap_traits<int,CRespawner *,std::less<int>,std::allocator<std::pair<int const ,CRespawner *> >,0> >::_Tidy, COMDAT
; _this$ = ecx

; 1142 : 		{	// free all storage

  00000	51		 push	 ecx
  00001	56		 push	 esi
  00002	8b f1		 mov	 esi, ecx

; 1143 : 		erase(begin(), end());

  00004	8b 46 04	 mov	 eax, DWORD PTR [esi+4]
  00007	8b 08		 mov	 ecx, DWORD PTR [eax]
  00009	50		 push	 eax
  0000a	51		 push	 ecx
  0000b	8d 44 24 0c	 lea	 eax, DWORD PTR $T238644[esp+16]
  0000f	50		 push	 eax
  00010	8b ce		 mov	 ecx, esi
  00012	e8 00 00 00 00	 call	 ?erase@?$_Tree@V?$_Tmap_traits@HPAVCRespawner@@U?$less@H@std@@V?$allocator@U?$pair@$$CBHPAVCRespawner@@@std@@@3@$0A@@std@@@std@@QAE?AViterator@12@V312@0@Z ; std::_Tree<std::_Tmap_traits<int,CRespawner *,std::less<int>,std::allocator<std::pair<int const ,CRespawner *> >,0> >::erase

; 1144 : 		this->_Alptr.destroy(&_Left(_Myhead));
; 1145 : 		this->_Alptr.destroy(&_Parent(_Myhead));
; 1146 : 		this->_Alptr.destroy(&_Right(_Myhead));
; 1147 : 		this->_Alnod.deallocate(_Myhead, 1);

  00017	8b 4e 04	 mov	 ecx, DWORD PTR [esi+4]
  0001a	51		 push	 ecx
  0001b	e8 00 00 00 00	 call	 ??3@YAXPAX@Z		; operator delete
  00020	83 c4 04	 add	 esp, 4

; 1148 : 		_Myhead = 0, _Mysize = 0;

  00023	33 c0		 xor	 eax, eax
  00025	89 46 04	 mov	 DWORD PTR [esi+4], eax
  00028	89 46 08	 mov	 DWORD PTR [esi+8], eax
  0002b	5e		 pop	 esi

; 1149 : 		}

  0002c	59		 pop	 ecx
  0002d	c3		 ret	 0
?_Tidy@?$_Tree@V?$_Tmap_traits@HPAVCRespawner@@U?$less@H@std@@V?$allocator@U?$pair@$$CBHPAVCRespawner@@@std@@@3@$0A@@std@@@std@@IAEXXZ ENDP ; std::_Tree<std::_Tmap_traits<int,CRespawner *,std::less<int>,std::allocator<std::pair<int const ,CRespawner *> >,0> >::_Tidy
_TEXT	ENDS
PUBLIC	?_Insert_n@?$vector@VCRespawnInfo@@V?$allocator@VCRespawnInfo@@@std@@@std@@IAEXViterator@12@IABVCRespawnInfo@@@Z ; std::vector<CRespawnInfo,std::allocator<CRespawnInfo> >::_Insert_n
;	COMDAT xdata$x
; File c:\documents and settings\test\mes documents\source\virtuos_v17\build\program\_common\respawn.cpp
xdata$x	SEGMENT
$T238940 DD	0ffffffffH
	DD	FLAT:$L238714
	DD	00H
	DD	00H
	DD	00H
	DD	00H
	DD	00H
	DD	00H
	DD	00H
	DD	00H
$T238942 DD	00H
	DD	00H
	DD	00H
	DD	FLAT:$L238711
$T238943 DD	00H
	DD	00H
	DD	00H
	DD	FLAT:$L238713
$T238941 DD	01H
	DD	01H
	DD	02H
	DD	01H
	DD	FLAT:$T238942
	DD	03H
	DD	03H
	DD	04H
	DD	01H
	DD	FLAT:$T238943
$T238936 DD	019930520H
	DD	05H
	DD	FLAT:$T238940
	DD	02H
	DD	FLAT:$T238941
	DD	2 DUP(00H)
; Function compile flags: /Ogty
; File c:\program files\microsoft visual studio .net 2003\vc7\include\vector
xdata$x	ENDS
;	COMDAT ?_Insert_n@?$vector@VCRespawnInfo@@V?$allocator@VCRespawnInfo@@@std@@@std@@IAEXViterator@12@IABVCRespawnInfo@@@Z
_TEXT	SEGMENT
$T238933 = -1388					; size = 4
tv426 = -1384						; size = 4
tv412 = -1384						; size = 4
__Ptr$229487 = -1380					; size = 4
tv413 = -1376						; size = 4
tv397 = -1376						; size = 4
__Cat$238926 = -1376					; size = 1
__Cat$238912 = -1376					; size = 1
__Cat$238888 = -1376					; size = 1
__Cat$238849 = -1376					; size = 1
__Cat$238826 = -1376					; size = 1
__Cat$238803 = -1376					; size = 1
__Newvec$229486 = -1376					; size = 4
__Tmp$ = -1372						; size = 1352
__$ArrayPad$ = -20					; size = 4
__$EHRec$ = -16						; size = 16
__$ReturnAddr$ = 4					; size = 4
__Where$ = 8						; size = 4
__Count$ = 12						; size = 4
__Val$ = 16						; size = 4
?_Insert_n@?$vector@VCRespawnInfo@@V?$allocator@VCRespawnInfo@@@std@@@std@@IAEXViterator@12@IABVCRespawnInfo@@@Z PROC NEAR ; std::vector<CRespawnInfo,std::allocator<CRespawnInfo> >::_Insert_n, COMDAT
; _this$ = ecx

; 809  : 		{	// insert _Count * _Val at _Where

  00000	55		 push	 ebp
  00001	8b ec		 mov	 ebp, esp
  00003	6a ff		 push	 -1
  00005	68 00 00 00 00	 push	 __ehhandler$?_Insert_n@?$vector@VCRespawnInfo@@V?$allocator@VCRespawnInfo@@@std@@@std@@IAEXViterator@12@IABVCRespawnInfo@@@Z
  0000a	64 a1 00 00 00
	00		 mov	 eax, DWORD PTR fs:__except_list
  00010	50		 push	 eax
  00011	64 89 25 00 00
	00 00		 mov	 DWORD PTR fs:__except_list, esp
  00018	81 ec 60 05 00
	00		 sub	 esp, 1376		; 00000560H
  0001e	a1 00 00 00 00	 mov	 eax, DWORD PTR ___security_cookie
  00023	53		 push	 ebx
  00024	56		 push	 esi
  00025	33 c5		 xor	 eax, ebp
  00027	57		 push	 edi
  00028	89 45 ec	 mov	 DWORD PTR __$ArrayPad$[ebp], eax
  0002b	8b 45 10	 mov	 eax, DWORD PTR __Val$[ebp]
  0002e	8b f1		 mov	 esi, ecx
  00030	89 65 f0	 mov	 DWORD PTR __$EHRec$[ebp], esp

; 810  : 		_Ty _Tmp = _Val;	// in case _Val is in sequence

  00033	50		 push	 eax
  00034	8d 8d a4 fa ff
	ff		 lea	 ecx, DWORD PTR __Tmp$[ebp]
  0003a	89 b5 94 fa ff
	ff		 mov	 DWORD PTR $T238933[ebp], esi
  00040	e8 00 00 00 00	 call	 ??0CRespawnInfo@@QAE@ABV0@@Z ; CRespawnInfo::CRespawnInfo

; 811  : 		size_type _Capacity = capacity();

  00045	8b 5e 04	 mov	 ebx, DWORD PTR [esi+4]
  00048	33 c9		 xor	 ecx, ecx
  0004a	3b d9		 cmp	 ebx, ecx
  0004c	89 4d fc	 mov	 DWORD PTR __$EHRec$[ebp+12], ecx
  0004f	74 16		 je	 SHORT $L238720
  00051	8b 4e 0c	 mov	 ecx, DWORD PTR [esi+12]
  00054	2b cb		 sub	 ecx, ebx
  00056	b8 eb 5d f2 60	 mov	 eax, 1626496491		; 60f25debH
  0005b	f7 e9		 imul	 ecx
  0005d	c1 fa 09	 sar	 edx, 9
  00060	8b ca		 mov	 ecx, edx
  00062	c1 e9 1f	 shr	 ecx, 31			; 0000001fH
  00065	03 ca		 add	 ecx, edx
$L238720:

; 812  : 
; 813  : 		if (_Count == 0)

  00067	8b 7d 0c	 mov	 edi, DWORD PTR __Count$[ebp]
  0006a	85 ff		 test	 edi, edi
  0006c	0f 84 ce 02 00
	00		 je	 $L229506

; 814  : 			;
; 815  : 		else if (max_size() - size() < _Count)

  00072	85 db		 test	 ebx, ebx
  00074	75 04		 jne	 SHORT $L238742
  00076	33 c0		 xor	 eax, eax
  00078	eb 16		 jmp	 SHORT $L238743
$L238742:
  0007a	8b 56 08	 mov	 edx, DWORD PTR [esi+8]
  0007d	2b d3		 sub	 edx, ebx
  0007f	b8 eb 5d f2 60	 mov	 eax, 1626496491		; 60f25debH
  00084	f7 ea		 imul	 edx
  00086	c1 fa 09	 sar	 edx, 9
  00089	8b c2		 mov	 eax, edx
  0008b	c1 e8 1f	 shr	 eax, 31			; 0000001fH
  0008e	03 c2		 add	 eax, edx
$L238743:
  00090	ba 2e 79 30 00	 mov	 edx, 3176750		; 0030792eH
  00095	2b d0		 sub	 edx, eax
  00097	3b d7		 cmp	 edx, edi
  00099	73 07		 jae	 SHORT $L229482

; 816  : 			_Xlen();	// result too long

  0009b	8b ce		 mov	 ecx, esi
  0009d	e8 00 00 00 00	 call	 ?_Xlen@?$vector@VCRespawnInfo@@V?$allocator@VCRespawnInfo@@@std@@@std@@IBEXXZ ; std::vector<CRespawnInfo,std::allocator<CRespawnInfo> >::_Xlen
$L238944:
$L229482:

; 817  : 		else if (_Capacity < size() + _Count)

  000a2	85 db		 test	 ebx, ebx
  000a4	75 04		 jne	 SHORT $L238749
  000a6	33 c0		 xor	 eax, eax
  000a8	eb 16		 jmp	 SHORT $L238750
$L238749:
  000aa	8b 56 08	 mov	 edx, DWORD PTR [esi+8]
  000ad	2b d3		 sub	 edx, ebx
  000af	b8 eb 5d f2 60	 mov	 eax, 1626496491		; 60f25debH
  000b4	f7 ea		 imul	 edx
  000b6	c1 fa 09	 sar	 edx, 9
  000b9	8b c2		 mov	 eax, edx
  000bb	c1 e8 1f	 shr	 eax, 31			; 0000001fH
  000be	03 c2		 add	 eax, edx
$L238750:
  000c0	03 c7		 add	 eax, edi
  000c2	3b c8		 cmp	 ecx, eax
  000c4	0f 83 5d 01 00
	00		 jae	 $L229484

; 818  : 			{	// not enough room, reallocate
; 819  : 			_Capacity = max_size() - _Capacity / 2 < _Capacity
; 820  : 				? 0 : _Capacity + _Capacity / 2;	// try to grow by 50%

  000ca	8b c1		 mov	 eax, ecx
  000cc	d1 e8		 shr	 eax, 1
  000ce	ba 2e 79 30 00	 mov	 edx, 3176750		; 0030792eH
  000d3	2b d0		 sub	 edx, eax
  000d5	3b d1		 cmp	 edx, ecx
  000d7	73 04		 jae	 SHORT $L238708
  000d9	33 c9		 xor	 ecx, ecx
  000db	eb 02		 jmp	 SHORT $L238709
$L238708:
  000dd	03 c8		 add	 ecx, eax
$L238709:

; 821  : 			if (_Capacity < size() + _Count)

  000df	85 db		 test	 ebx, ebx
  000e1	75 04		 jne	 SHORT $L238772
  000e3	33 c0		 xor	 eax, eax
  000e5	eb 16		 jmp	 SHORT $L238773
$L238772:
  000e7	8b 56 08	 mov	 edx, DWORD PTR [esi+8]
  000ea	2b d3		 sub	 edx, ebx
  000ec	b8 eb 5d f2 60	 mov	 eax, 1626496491		; 60f25debH
  000f1	f7 ea		 imul	 edx
  000f3	c1 fa 09	 sar	 edx, 9
  000f6	8b c2		 mov	 eax, edx
  000f8	c1 e8 1f	 shr	 eax, 31			; 0000001fH
  000fb	03 c2		 add	 eax, edx
$L238773:
  000fd	03 c7		 add	 eax, edi
  000ff	3b c8		 cmp	 ecx, eax
  00101	73 0b		 jae	 SHORT $L229485

; 822  : 				_Capacity = size() + _Count;

  00103	8b ce		 mov	 ecx, esi
  00105	e8 00 00 00 00	 call	 ?size@?$vector@VCRespawnInfo@@V?$allocator@VCRespawnInfo@@@std@@@std@@QBEIXZ ; std::vector<CRespawnInfo,std::allocator<CRespawnInfo> >::size
  0010a	8b c8		 mov	 ecx, eax
  0010c	03 cf		 add	 ecx, edi
$L229485:

; 823  : 			pointer _Newvec = this->_Alval.allocate(_Capacity);

  0010e	69 c9 48 05 00
	00		 imul	 ecx, 1352		; 00000548H
  00114	51		 push	 ecx
  00115	89 8d 98 fa ff
	ff		 mov	 DWORD PTR tv412[ebp], ecx
  0011b	e8 00 00 00 00	 call	 ??2@YAPAXI@Z		; operator new

; 824  : 			pointer _Ptr = _Newvec;
; 825  : 
; 826  : 			_TRY_BEGIN
; 827  : 			_Ptr = _Ucopy(_Myfirst, _ITER_BASE(_Where),
; 828  : 				_Newvec);	// copy prefix

  00120	8b 55 08	 mov	 edx, DWORD PTR __Where$[ebp]
  00123	8b d8		 mov	 ebx, eax
  00125	8b 46 04	 mov	 eax, DWORD PTR [esi+4]
  00128	89 9d a0 fa ff
	ff		 mov	 DWORD PTR __Newvec$229486[ebp], ebx
  0012e	8b 8d a0 fa ff
	ff		 mov	 ecx, DWORD PTR __Cat$238803[ebp]
  00134	51		 push	 ecx
  00135	56		 push	 esi
  00136	53		 push	 ebx
  00137	52		 push	 edx
  00138	50		 push	 eax
  00139	89 9d 9c fa ff
	ff		 mov	 DWORD PTR __Ptr$229487[ebp], ebx
  0013f	c6 45 fc 01	 mov	 BYTE PTR __$EHRec$[ebp+12], 1
  00143	e8 00 00 00 00	 call	 ??$_Uninit_copy@PAVCRespawnInfo@@PAV1@V?$allocator@VCRespawnInfo@@@std@@@std@@YAPAVCRespawnInfo@@PAV1@00AAV?$allocator@VCRespawnInfo@@@0@U_Nonscalar_ptr_iterator_tag@0@@Z ; std::_Uninit_copy<CRespawnInfo *,CRespawnInfo *,std::allocator<CRespawnInfo> >

; 829  : 			_Ptr = _Ufill(_Ptr, _Count, _Tmp);	// add new stuff

  00148	8b 8d a0 fa ff
	ff		 mov	 ecx, DWORD PTR __Cat$238826[ebp]
  0014e	83 c4 18	 add	 esp, 24			; 00000018H
  00151	51		 push	 ecx
  00152	56		 push	 esi
  00153	8d 95 a4 fa ff
	ff		 lea	 edx, DWORD PTR __Tmp$[ebp]
  00159	52		 push	 edx
  0015a	57		 push	 edi
  0015b	50		 push	 eax
  0015c	89 85 9c fa ff
	ff		 mov	 DWORD PTR __Ptr$229487[ebp], eax
  00162	e8 00 00 00 00	 call	 ??$_Uninit_fill_n@PAVCRespawnInfo@@IV1@V?$allocator@VCRespawnInfo@@@std@@@std@@YAXPAVCRespawnInfo@@IABV1@AAV?$allocator@VCRespawnInfo@@@0@U_Nonscalar_ptr_iterator_tag@0@@Z ; std::_Uninit_fill_n<CRespawnInfo *,unsigned int,CRespawnInfo,std::allocator<CRespawnInfo> >

; 830  : 			_Ucopy(_ITER_BASE(_Where), _Mylast, _Ptr);	// copy suffix

  00167	8b 95 a0 fa ff
	ff		 mov	 edx, DWORD PTR __Cat$238849[ebp]
  0016d	8b 8d 9c fa ff
	ff		 mov	 ecx, DWORD PTR __Ptr$229487[ebp]
  00173	8b c7		 mov	 eax, edi
  00175	69 c0 48 05 00
	00		 imul	 eax, 1352		; 00000548H
  0017b	83 c4 14	 add	 esp, 20			; 00000014H
  0017e	52		 push	 edx
  0017f	03 c8		 add	 ecx, eax
  00181	8b 46 08	 mov	 eax, DWORD PTR [esi+8]
  00184	56		 push	 esi
  00185	51		 push	 ecx
  00186	50		 push	 eax
  00187	8b 45 08	 mov	 eax, DWORD PTR __Where$[ebp]
  0018a	50		 push	 eax
  0018b	89 8d 9c fa ff
	ff		 mov	 DWORD PTR __Ptr$229487[ebp], ecx
  00191	e8 00 00 00 00	 call	 ??$_Uninit_copy@PAVCRespawnInfo@@PAV1@V?$allocator@VCRespawnInfo@@@std@@@std@@YAPAVCRespawnInfo@@PAV1@00AAV?$allocator@VCRespawnInfo@@@0@U_Nonscalar_ptr_iterator_tag@0@@Z ; std::_Uninit_copy<CRespawnInfo *,CRespawnInfo *,std::allocator<CRespawnInfo> >

; 835  : 			_CATCH_END
; 836  : 
; 837  : 			_Count += size();

  00196	8b 46 04	 mov	 eax, DWORD PTR [esi+4]
  00199	83 c4 14	 add	 esp, 20			; 00000014H
  0019c	85 c0		 test	 eax, eax
  0019e	c7 45 fc 00 00
	00 00		 mov	 DWORD PTR __$EHRec$[ebp+12], 0
  001a5	74 16		 je	 SHORT $L238861
$L238860:
  001a7	8b 4e 08	 mov	 ecx, DWORD PTR [esi+8]
  001aa	2b c8		 sub	 ecx, eax
  001ac	b8 eb 5d f2 60	 mov	 eax, 1626496491		; 60f25debH
  001b1	f7 e9		 imul	 ecx
  001b3	c1 fa 09	 sar	 edx, 9
  001b6	8b c2		 mov	 eax, edx
  001b8	c1 e8 1f	 shr	 eax, 31			; 0000001fH
  001bb	03 c2		 add	 eax, edx
$L238861:
  001bd	03 f8		 add	 edi, eax

; 838  : 			if (_Myfirst != 0)

  001bf	8b 46 04	 mov	 eax, DWORD PTR [esi+4]
  001c2	85 c0		 test	 eax, eax
  001c4	74 18		 je	 SHORT $L238864

; 839  : 				{	// destroy and deallocate old array
; 840  : 				_Destroy(_Myfirst, _Mylast);

  001c6	8b 4e 08	 mov	 ecx, DWORD PTR [esi+8]
  001c9	51		 push	 ecx
  001ca	50		 push	 eax
  001cb	8b ce		 mov	 ecx, esi
  001cd	e8 00 00 00 00	 call	 ?_Destroy@?$vector@VCRespawnInfo@@V?$allocator@VCRespawnInfo@@@std@@@std@@IAEXPAVCRespawnInfo@@0@Z ; std::vector<CRespawnInfo,std::allocator<CRespawnInfo> >::_Destroy

; 841  : 				this->_Alval.deallocate(_Myfirst, _Myend - _Myfirst);

  001d2	8b 56 04	 mov	 edx, DWORD PTR [esi+4]
  001d5	52		 push	 edx
  001d6	e8 00 00 00 00	 call	 ??3@YAXPAX@Z		; operator delete
  001db	83 c4 04	 add	 esp, 4
$L238864:

; 842  : 				}
; 843  : 			_Myend = _Newvec + _Capacity;

  001de	8b 85 98 fa ff
	ff		 mov	 eax, DWORD PTR tv412[ebp]

; 844  : 			_Mylast = _Newvec + _Count;

  001e4	69 ff 48 05 00
	00		 imul	 edi, 1352		; 00000548H
  001ea	03 c3		 add	 eax, ebx
  001ec	03 fb		 add	 edi, ebx
  001ee	89 46 0c	 mov	 DWORD PTR [esi+12], eax
  001f1	89 7e 08	 mov	 DWORD PTR [esi+8], edi

; 845  : 			_Myfirst = _Newvec;

  001f4	89 5e 04	 mov	 DWORD PTR [esi+4], ebx

; 846  : 			}
; 847  : 		else if ((size_type)(_Mylast - _ITER_BASE(_Where)) < _Count)

  001f7	e9 44 01 00 00	 jmp	 $L229506
$L238711:

; 831  : 			_CATCH_ALL
; 832  : 			_Destroy(_Newvec, _Ptr);

  001fc	8b 8d 9c fa ff
	ff		 mov	 ecx, DWORD PTR __Ptr$229487[ebp]
  00202	8b b5 a0 fa ff
	ff		 mov	 esi, DWORD PTR __Newvec$229486[ebp]
  00208	51		 push	 ecx
  00209	8b 8d 94 fa ff
	ff		 mov	 ecx, DWORD PTR $T238933[ebp]
  0020f	56		 push	 esi
  00210	e8 00 00 00 00	 call	 ?_Destroy@?$vector@VCRespawnInfo@@V?$allocator@VCRespawnInfo@@@std@@@std@@IAEXPAVCRespawnInfo@@0@Z ; std::vector<CRespawnInfo,std::allocator<CRespawnInfo> >::_Destroy

; 833  : 			this->_Alval.deallocate(_Newvec, _Capacity);

  00215	56		 push	 esi
  00216	e8 00 00 00 00	 call	 ??3@YAXPAX@Z		; operator delete
  0021b	83 c4 04	 add	 esp, 4

; 834  : 			_RERAISE;

  0021e	6a 00		 push	 0
  00220	6a 00		 push	 0
  00222	e8 00 00 00 00	 call	 __CxxThrowException@8
$L238945:
$L229484:

; 846  : 			}
; 847  : 		else if ((size_type)(_Mylast - _ITER_BASE(_Where)) < _Count)

  00227	8b 4e 08	 mov	 ecx, DWORD PTR [esi+8]
  0022a	8b 5d 08	 mov	 ebx, DWORD PTR __Where$[ebp]
  0022d	8b d1		 mov	 edx, ecx
  0022f	2b d3		 sub	 edx, ebx
  00231	b8 eb 5d f2 60	 mov	 eax, 1626496491		; 60f25debH
  00236	f7 ea		 imul	 edx
  00238	c1 fa 09	 sar	 edx, 9
  0023b	8b c2		 mov	 eax, edx
  0023d	c1 e8 1f	 shr	 eax, 31			; 0000001fH
  00240	03 c2		 add	 eax, edx
  00242	3b c7		 cmp	 eax, edi
  00244	89 8d a0 fa ff
	ff		 mov	 DWORD PTR tv397[ebp], ecx
  0024a	0f 83 9f 00 00
	00		 jae	 $L229497

; 848  : 			{	// new stuff spills off end
; 849  : 			_Ucopy(_ITER_BASE(_Where), _Mylast,
; 850  : 				_ITER_BASE(_Where) + _Count);	// copy suffix

  00250	8b c7		 mov	 eax, edi
  00252	69 c0 48 05 00
	00		 imul	 eax, 1352		; 00000548H
  00258	89 85 a0 fa ff
	ff		 mov	 DWORD PTR tv413[ebp], eax
  0025e	8b 95 a0 fa ff
	ff		 mov	 edx, DWORD PTR __Cat$238888[ebp]
  00264	52		 push	 edx
  00265	56		 push	 esi
  00266	03 c3		 add	 eax, ebx
  00268	50		 push	 eax
  00269	51		 push	 ecx
  0026a	53		 push	 ebx
  0026b	e8 00 00 00 00	 call	 ??$_Uninit_copy@PAVCRespawnInfo@@PAV1@V?$allocator@VCRespawnInfo@@@std@@@std@@YAPAVCRespawnInfo@@PAV1@00AAV?$allocator@VCRespawnInfo@@@0@U_Nonscalar_ptr_iterator_tag@0@@Z ; std::_Uninit_copy<CRespawnInfo *,CRespawnInfo *,std::allocator<CRespawnInfo> >

; 851  : 
; 852  : 			_TRY_BEGIN
; 853  : 			_Ufill(_Mylast, _Count - (_Mylast - _ITER_BASE(_Where)),
; 854  : 				_Tmp);	// insert new stuff off end

  00270	8b 4e 08	 mov	 ecx, DWORD PTR [esi+8]
  00273	83 c4 14	 add	 esp, 20			; 00000014H
  00276	8d 85 a4 fa ff
	ff		 lea	 eax, DWORD PTR __Tmp$[ebp]
  0027c	50		 push	 eax
  0027d	8b d1		 mov	 edx, ecx
  0027f	2b d3		 sub	 edx, ebx
  00281	b8 eb 5d f2 60	 mov	 eax, 1626496491		; 60f25debH
  00286	f7 ea		 imul	 edx
  00288	c1 fa 09	 sar	 edx, 9
  0028b	8b c2		 mov	 eax, edx
  0028d	c1 e8 1f	 shr	 eax, 31			; 0000001fH
  00290	03 c2		 add	 eax, edx
  00292	2b f8		 sub	 edi, eax
  00294	57		 push	 edi
  00295	51		 push	 ecx
  00296	8b ce		 mov	 ecx, esi
  00298	c6 45 fc 03	 mov	 BYTE PTR __$EHRec$[ebp+12], 3
  0029c	e8 00 00 00 00	 call	 ?_Ufill@?$vector@VCRespawnInfo@@V?$allocator@VCRespawnInfo@@@std@@@std@@IAEPAVCRespawnInfo@@PAV3@IABV3@@Z ; std::vector<CRespawnInfo,std::allocator<CRespawnInfo> >::_Ufill

; 858  : 			_CATCH_END
; 859  : 
; 860  : 			_Mylast += _Count;

  002a1	8b 7e 08	 mov	 edi, DWORD PTR [esi+8]
  002a4	8b 85 a0 fa ff
	ff		 mov	 eax, DWORD PTR tv413[ebp]
  002aa	03 f8		 add	 edi, eax
  002ac	89 7e 08	 mov	 DWORD PTR [esi+8], edi

; 861  : 			fill(_ITER_BASE(_Where), _Mylast - _Count,
; 862  : 				_Tmp);	// insert up to old end

  002af	8d 8d a4 fa ff
	ff		 lea	 ecx, DWORD PTR __Tmp$[ebp]
  002b5	8b f7		 mov	 esi, edi
  002b7	51		 push	 ecx
  002b8	2b f0		 sub	 esi, eax
  002ba	56		 push	 esi
  002bb	53		 push	 ebx
  002bc	e8 00 00 00 00	 call	 ??$fill@PAVCRespawnInfo@@V1@@std@@YAXPAVCRespawnInfo@@0ABV1@@Z ; std::fill<CRespawnInfo *,CRespawnInfo>
  002c1	83 c4 0c	 add	 esp, 12			; 0000000cH

; 863  : 			}
; 864  : 		else

  002c4	eb 7a		 jmp	 SHORT $L229506
$L238713:

; 855  : 			_CATCH_ALL
; 856  : 			_Destroy(_ITER_BASE(_Where) + _Count, _Mylast + _Count);

  002c6	8b 45 0c	 mov	 eax, DWORD PTR __Count$[ebp]
  002c9	8b 8d 94 fa ff
	ff		 mov	 ecx, DWORD PTR $T238933[ebp]
  002cf	69 c0 48 05 00
	00		 imul	 eax, 1352		; 00000548H
  002d5	8b 51 08	 mov	 edx, DWORD PTR [ecx+8]
  002d8	03 d0		 add	 edx, eax
  002da	52		 push	 edx
  002db	8b 55 08	 mov	 edx, DWORD PTR __Where$[ebp]
  002de	03 c2		 add	 eax, edx
  002e0	50		 push	 eax
  002e1	e8 00 00 00 00	 call	 ?_Destroy@?$vector@VCRespawnInfo@@V?$allocator@VCRespawnInfo@@@std@@@std@@IAEXPAVCRespawnInfo@@0@Z ; std::vector<CRespawnInfo,std::allocator<CRespawnInfo> >::_Destroy

; 857  : 			_RERAISE;

  002e6	6a 00		 push	 0
  002e8	6a 00		 push	 0
  002ea	e8 00 00 00 00	 call	 __CxxThrowException@8
$L238946:
$L229497:

; 865  : 			{	// new stuff can all be assigned
; 866  : 			pointer _Oldend = _Mylast;
; 867  : 			_Mylast = _Ucopy(_Oldend - _Count, _Oldend,
; 868  : 				_Mylast);	// copy suffix

  002ef	8b 95 a0 fa ff
	ff		 mov	 edx, DWORD PTR __Cat$238912[ebp]
  002f5	69 ff 48 05 00
	00		 imul	 edi, 1352		; 00000548H
  002fb	52		 push	 edx
  002fc	56		 push	 esi
  002fd	51		 push	 ecx
  002fe	8b c1		 mov	 eax, ecx
  00300	2b c7		 sub	 eax, edi
  00302	51		 push	 ecx
  00303	50		 push	 eax
  00304	89 85 98 fa ff
	ff		 mov	 DWORD PTR tv426[ebp], eax
  0030a	e8 00 00 00 00	 call	 ??$_Uninit_copy@PAVCRespawnInfo@@PAV1@V?$allocator@VCRespawnInfo@@@std@@@std@@YAPAVCRespawnInfo@@PAV1@00AAV?$allocator@VCRespawnInfo@@@0@U_Nonscalar_ptr_iterator_tag@0@@Z ; std::_Uninit_copy<CRespawnInfo *,CRespawnInfo *,std::allocator<CRespawnInfo> >

; 869  : 			copy_backward(_ITER_BASE(_Where), _Oldend - _Count,
; 870  : 				_Oldend);	// copy hole

  0030f	8b 8d a0 fa ff
	ff		 mov	 ecx, DWORD PTR tv397[ebp]
  00315	8b 95 98 fa ff
	ff		 mov	 edx, DWORD PTR tv426[ebp]
  0031b	89 46 08	 mov	 DWORD PTR [esi+8], eax
  0031e	8b 85 a0 fa ff
	ff		 mov	 eax, DWORD PTR __Cat$238926[ebp]
  00324	50		 push	 eax
  00325	51		 push	 ecx
  00326	52		 push	 edx
  00327	53		 push	 ebx
  00328	e8 00 00 00 00	 call	 ??$_Copy_backward_opt@PAVCRespawnInfo@@PAV1@@std@@YAPAVCRespawnInfo@@PAV1@00U_Nonscalar_ptr_iterator_tag@0@@Z ; std::_Copy_backward_opt<CRespawnInfo *,CRespawnInfo *>

; 871  : 			fill(_ITER_BASE(_Where), _ITER_BASE(_Where) + _Count,
; 872  : 				_Tmp);	// insert into hole

  0032d	8d 85 a4 fa ff
	ff		 lea	 eax, DWORD PTR __Tmp$[ebp]
  00333	50		 push	 eax
  00334	03 fb		 add	 edi, ebx
  00336	57		 push	 edi
  00337	53		 push	 ebx
  00338	e8 00 00 00 00	 call	 ??$fill@PAVCRespawnInfo@@V1@@std@@YAXPAVCRespawnInfo@@0ABV1@@Z ; std::fill<CRespawnInfo *,CRespawnInfo>
  0033d	83 c4 30	 add	 esp, 48			; 00000030H
$L229506:

; 873  : 			}
; 874  : 		}

  00340	8b 4d f4	 mov	 ecx, DWORD PTR __$EHRec$[ebp+4]
  00343	64 89 0d 00 00
	00 00		 mov	 DWORD PTR fs:__except_list, ecx
  0034a	8b 4d ec	 mov	 ecx, DWORD PTR __$ArrayPad$[ebp]
  0034d	5f		 pop	 edi
  0034e	5e		 pop	 esi
  0034f	33 cd		 xor	 ecx, ebp
  00351	5b		 pop	 ebx
  00352	e8 00 00 00 00	 call	 @__security_check_cookie@4
  00357	8b e5		 mov	 esp, ebp
  00359	5d		 pop	 ebp
  0035a	c2 0c 00	 ret	 12			; 0000000cH
$L238939:
_TEXT	ENDS
;	COMDAT text$x
text$x	SEGMENT
$L238714:
  00000	8d 8d a4 fa ff
	ff		 lea	 ecx, DWORD PTR __Tmp$[ebp]
  00006	e9 00 00 00 00	 jmp	 ??1CRespawnInfo@@UAE@XZ	; CRespawnInfo::~CRespawnInfo
__ehhandler$?_Insert_n@?$vector@VCRespawnInfo@@V?$allocator@VCRespawnInfo@@@std@@@std@@IAEXViterator@12@IABVCRespawnInfo@@@Z:
  0000b	b8 00 00 00 00	 mov	 eax, OFFSET FLAT:$T238936
  00010	e9 00 00 00 00	 jmp	 ___CxxFrameHandler
text$x	ENDS
?_Insert_n@?$vector@VCRespawnInfo@@V?$allocator@VCRespawnInfo@@@std@@@std@@IAEXViterator@12@IABVCRespawnInfo@@@Z ENDP ; std::vector<CRespawnInfo,std::allocator<CRespawnInfo> >::_Insert_n
PUBLIC	??$insert@Vconst_iterator@?$vector@VCRespawnInfo@@V?$allocator@VCRespawnInfo@@@std@@@std@@@?$vector@VCRespawnInfo@@V?$allocator@VCRespawnInfo@@@std@@@std@@QAEXViterator@01@Vconst_iterator@01@1@Z ; std::vector<CRespawnInfo,std::allocator<CRespawnInfo> >::insert<std::vector<CRespawnInfo,std::allocator<CRespawnInfo> >::const_iterator>
; Function compile flags: /Ogty
;	COMDAT ??$insert@Vconst_iterator@?$vector@VCRespawnInfo@@V?$allocator@VCRespawnInfo@@@std@@@std@@@?$vector@VCRespawnInfo@@V?$allocator@VCRespawnInfo@@@std@@@std@@QAEXViterator@01@Vconst_iterator@01@1@Z
_TEXT	SEGMENT
__Where$ = 8						; size = 4
__First$ = 12						; size = 4
$T238952 = 16						; size = 1
__Last$ = 16						; size = 4
??$insert@Vconst_iterator@?$vector@VCRespawnInfo@@V?$allocator@VCRespawnInfo@@@std@@@std@@@?$vector@VCRespawnInfo@@V?$allocator@VCRespawnInfo@@@std@@@std@@QAEXViterator@01@Vconst_iterator@01@1@Z PROC NEAR ; std::vector<CRespawnInfo,std::allocator<CRespawnInfo> >::insert<std::vector<CRespawnInfo,std::allocator<CRespawnInfo> >::const_iterator>, COMDAT
; _this$ = ecx

; 633  : 		{	// insert [_First, _Last) at _Where
; 634  : 		_Insert(_Where, _First, _Last, _Iter_cat(_First));

  00000	8b 44 24 0c	 mov	 eax, DWORD PTR $T238952[esp-4]
  00004	8b 54 24 0c	 mov	 edx, DWORD PTR __Last$[esp-4]
  00008	50		 push	 eax
  00009	8b 44 24 0c	 mov	 eax, DWORD PTR __First$[esp]
  0000d	52		 push	 edx
  0000e	8b 54 24 0c	 mov	 edx, DWORD PTR __Where$[esp+4]
  00012	50		 push	 eax
  00013	52		 push	 edx
  00014	e8 00 00 00 00	 call	 ??$_Insert@Vconst_iterator@?$vector@VCRespawnInfo@@V?$allocator@VCRespawnInfo@@@std@@@std@@@?$vector@VCRespawnInfo@@V?$allocator@VCRespawnInfo@@@std@@@std@@QAEXViterator@01@Vconst_iterator@01@1Uforward_iterator_tag@1@@Z ; std::vector<CRespawnInfo,std::allocator<CRespawnInfo> >::_Insert<std::vector<CRespawnInfo,std::allocator<CRespawnInfo> >::const_iterator>

; 635  : 		}

  00019	c2 0c 00	 ret	 12			; 0000000cH
??$insert@Vconst_iterator@?$vector@VCRespawnInfo@@V?$allocator@VCRespawnInfo@@@std@@@std@@@?$vector@VCRespawnInfo@@V?$allocator@VCRespawnInfo@@@std@@@std@@QAEXViterator@01@Vconst_iterator@01@1@Z ENDP ; std::vector<CRespawnInfo,std::allocator<CRespawnInfo> >::insert<std::vector<CRespawnInfo,std::allocator<CRespawnInfo> >::const_iterator>
_TEXT	ENDS
PUBLIC	??0?$vector@VCRespawnInfo@@V?$allocator@VCRespawnInfo@@@std@@@std@@QAE@XZ ; std::vector<CRespawnInfo,std::allocator<CRespawnInfo> >::vector<CRespawnInfo,std::allocator<CRespawnInfo> >
; Function compile flags: /Ogty
;	COMDAT ??0?$vector@VCRespawnInfo@@V?$allocator@VCRespawnInfo@@@std@@@std@@QAE@XZ
_TEXT	SEGMENT
??0?$vector@VCRespawnInfo@@V?$allocator@VCRespawnInfo@@@std@@@std@@QAE@XZ PROC NEAR ; std::vector<CRespawnInfo,std::allocator<CRespawnInfo> >::vector<CRespawnInfo,std::allocator<CRespawnInfo> >, COMDAT
; _this$ = ecx

; 299  : 		{	// construct empty vector

  00000	8b c1		 mov	 eax, ecx

; 300  : 		_Buy(0);

  00002	33 c9		 xor	 ecx, ecx
  00004	89 48 04	 mov	 DWORD PTR [eax+4], ecx
  00007	89 48 08	 mov	 DWORD PTR [eax+8], ecx
  0000a	89 48 0c	 mov	 DWORD PTR [eax+12], ecx

; 301  : 		}

  0000d	c3		 ret	 0
??0?$vector@VCRespawnInfo@@V?$allocator@VCRespawnInfo@@@std@@@std@@QAE@XZ ENDP ; std::vector<CRespawnInfo,std::allocator<CRespawnInfo> >::vector<CRespawnInfo,std::allocator<CRespawnInfo> >
_TEXT	ENDS
PUBLIC	??1?$_Tree@V?$_Tmap_traits@HPAVCRespawner@@U?$less@H@std@@V?$allocator@U?$pair@$$CBHPAVCRespawner@@@std@@@3@$0A@@std@@@std@@QAE@XZ ; std::_Tree<std::_Tmap_traits<int,CRespawner *,std::less<int>,std::allocator<std::pair<int const ,CRespawner *> >,0> >::~_Tree<std::_Tmap_traits<int,CRespawner *,std::less<int>,std::allocator<std::pair<int const ,CRespawner *> >,0> >
; Function compile flags: /Ogty
; File c:\program files\microsoft visual studio .net 2003\vc7\include\xtree
;	COMDAT ??1?$_Tree@V?$_Tmap_traits@HPAVCRespawner@@U?$less@H@std@@V?$allocator@U?$pair@$$CBHPAVCRespawner@@@std@@@3@$0A@@std@@@std@@QAE@XZ
_TEXT	SEGMENT
$T239086 = -4						; size = 4
??1?$_Tree@V?$_Tmap_traits@HPAVCRespawner@@U?$less@H@std@@V?$allocator@U?$pair@$$CBHPAVCRespawner@@@std@@@3@$0A@@std@@@std@@QAE@XZ PROC NEAR ; std::_Tree<std::_Tmap_traits<int,CRespawner *,std::less<int>,std::allocator<std::pair<int const ,CRespawner *> >,0> >::~_Tree<std::_Tmap_traits<int,CRespawner *,std::less<int>,std::allocator<std::pair<int const ,CRespawner *> >,0> >, COMDAT
; _this$ = ecx

; 391  : 		{	// destroy tree

  00000	51		 push	 ecx
  00001	56		 push	 esi
  00002	8b f1		 mov	 esi, ecx

; 392  : 		_Tidy();

  00004	8b 46 04	 mov	 eax, DWORD PTR [esi+4]
  00007	8b 08		 mov	 ecx, DWORD PTR [eax]
  00009	50		 push	 eax
  0000a	51		 push	 ecx
  0000b	8d 44 24 0c	 lea	 eax, DWORD PTR $T239086[esp+16]
  0000f	50		 push	 eax
  00010	8b ce		 mov	 ecx, esi
  00012	e8 00 00 00 00	 call	 ?erase@?$_Tree@V?$_Tmap_traits@HPAVCRespawner@@U?$less@H@std@@V?$allocator@U?$pair@$$CBHPAVCRespawner@@@std@@@3@$0A@@std@@@std@@QAE?AViterator@12@V312@0@Z ; std::_Tree<std::_Tmap_traits<int,CRespawner *,std::less<int>,std::allocator<std::pair<int const ,CRespawner *> >,0> >::erase
  00017	8b 4e 04	 mov	 ecx, DWORD PTR [esi+4]
  0001a	51		 push	 ecx
  0001b	e8 00 00 00 00	 call	 ??3@YAXPAX@Z		; operator delete
  00020	83 c4 04	 add	 esp, 4
  00023	33 c0		 xor	 eax, eax
  00025	89 46 04	 mov	 DWORD PTR [esi+4], eax
  00028	89 46 08	 mov	 DWORD PTR [esi+8], eax
  0002b	5e		 pop	 esi

; 393  : 		}

  0002c	59		 pop	 ecx
  0002d	c3		 ret	 0
??1?$_Tree@V?$_Tmap_traits@HPAVCRespawner@@U?$less@H@std@@V?$allocator@U?$pair@$$CBHPAVCRespawner@@@std@@@3@$0A@@std@@@std@@QAE@XZ ENDP ; std::_Tree<std::_Tmap_traits<int,CRespawner *,std::less<int>,std::allocator<std::pair<int const ,CRespawner *> >,0> >::~_Tree<std::_Tmap_traits<int,CRespawner *,std::less<int>,std::allocator<std::pair<int const ,CRespawner *> >,0> >
_TEXT	ENDS
PUBLIC	?insert@?$vector@VCRespawnInfo@@V?$allocator@VCRespawnInfo@@@std@@@std@@QAE?AViterator@12@V312@ABVCRespawnInfo@@@Z ; std::vector<CRespawnInfo,std::allocator<CRespawnInfo> >::insert
; Function compile flags: /Ogty
; File c:\program files\microsoft visual studio .net 2003\vc7\include\vector
;	COMDAT ?insert@?$vector@VCRespawnInfo@@V?$allocator@VCRespawnInfo@@@std@@@std@@QAE?AViterator@12@V312@ABVCRespawnInfo@@@Z
_TEXT	SEGMENT
___$ReturnUdt$ = 8					; size = 4
tv90 = 12						; size = 4
__Where$ = 12						; size = 4
__Val$ = 16						; size = 4
?insert@?$vector@VCRespawnInfo@@V?$allocator@VCRespawnInfo@@@std@@@std@@QAE?AViterator@12@V312@ABVCRespawnInfo@@@Z PROC NEAR ; std::vector<CRespawnInfo,std::allocator<CRespawnInfo> >::insert, COMDAT
; _this$ = ecx

; 620  : 		{	// insert _Val at _Where

  00000	53		 push	 ebx

; 621  : 		size_type _Off = size() == 0 ? 0 : _Where - begin();

  00001	8b 5c 24 0c	 mov	 ebx, DWORD PTR __Where$[esp]
  00005	56		 push	 esi
  00006	57		 push	 edi
  00007	8b f9		 mov	 edi, ecx
  00009	8b 77 04	 mov	 esi, DWORD PTR [edi+4]
  0000c	85 f6		 test	 esi, esi
  0000e	74 1c		 je	 SHORT $L239177
  00010	8b 4f 08	 mov	 ecx, DWORD PTR [edi+8]
  00013	2b ce		 sub	 ecx, esi
  00015	b8 eb 5d f2 60	 mov	 eax, 1626496491		; 60f25debH
  0001a	f7 e9		 imul	 ecx
  0001c	c1 fa 09	 sar	 edx, 9
  0001f	8b c2		 mov	 eax, edx
  00021	c1 e8 1f	 shr	 eax, 31			; 0000001fH
  00024	03 c2		 add	 eax, edx
  00026	89 44 24 14	 mov	 DWORD PTR tv90[esp+8], eax
  0002a	75 04		 jne	 SHORT $L239116
$L239177:
  0002c	33 f6		 xor	 esi, esi
  0002e	eb 15		 jmp	 SHORT $L239117
$L239116:
  00030	8b cb		 mov	 ecx, ebx
  00032	2b ce		 sub	 ecx, esi
  00034	b8 eb 5d f2 60	 mov	 eax, 1626496491		; 60f25debH
  00039	f7 e9		 imul	 ecx
  0003b	c1 fa 09	 sar	 edx, 9
  0003e	8b f2		 mov	 esi, edx
  00040	c1 ee 1f	 shr	 esi, 31			; 0000001fH
  00043	03 f2		 add	 esi, edx
$L239117:

; 622  : 		_Insert_n(_Where, (size_type)1, _Val);

  00045	8b 4c 24 18	 mov	 ecx, DWORD PTR __Val$[esp+8]
  00049	51		 push	 ecx
  0004a	6a 01		 push	 1
  0004c	53		 push	 ebx
  0004d	8b cf		 mov	 ecx, edi
  0004f	e8 00 00 00 00	 call	 ?_Insert_n@?$vector@VCRespawnInfo@@V?$allocator@VCRespawnInfo@@@std@@@std@@IAEXViterator@12@IABVCRespawnInfo@@@Z ; std::vector<CRespawnInfo,std::allocator<CRespawnInfo> >::_Insert_n

; 623  : 		return (begin() + _Off);

  00054	69 f6 48 05 00
	00		 imul	 esi, 1352		; 00000548H
  0005a	03 77 04	 add	 esi, DWORD PTR [edi+4]
  0005d	8b 44 24 10	 mov	 eax, DWORD PTR ___$ReturnUdt$[esp+8]
  00061	5f		 pop	 edi
  00062	89 30		 mov	 DWORD PTR [eax], esi
  00064	5e		 pop	 esi
  00065	5b		 pop	 ebx

; 624  : 		}

  00066	c2 0c 00	 ret	 12			; 0000000cH
?insert@?$vector@VCRespawnInfo@@V?$allocator@VCRespawnInfo@@@std@@@std@@QAE?AViterator@12@V312@ABVCRespawnInfo@@@Z ENDP ; std::vector<CRespawnInfo,std::allocator<CRespawnInfo> >::insert
_TEXT	ENDS
PUBLIC	??$_Assign@Vconst_iterator@?$vector@VCRespawnInfo@@V?$allocator@VCRespawnInfo@@@std@@@std@@@?$vector@VCRespawnInfo@@V?$allocator@VCRespawnInfo@@@std@@@std@@QAEXVconst_iterator@01@0Uinput_iterator_tag@1@@Z ; std::vector<CRespawnInfo,std::allocator<CRespawnInfo> >::_Assign<std::vector<CRespawnInfo,std::allocator<CRespawnInfo> >::const_iterator>
; Function compile flags: /Ogty
;	COMDAT ??$_Assign@Vconst_iterator@?$vector@VCRespawnInfo@@V?$allocator@VCRespawnInfo@@@std@@@std@@@?$vector@VCRespawnInfo@@V?$allocator@VCRespawnInfo@@@std@@@std@@QAEXVconst_iterator@01@0Uinput_iterator_tag@1@@Z
_TEXT	SEGMENT
$T239183 = -4						; size = 4
__First$ = 8						; size = 4
$T239243 = 12						; size = 1
__Last$ = 12						; size = 4
___formal$ = 16						; size = 1
??$_Assign@Vconst_iterator@?$vector@VCRespawnInfo@@V?$allocator@VCRespawnInfo@@@std@@@std@@@?$vector@VCRespawnInfo@@V?$allocator@VCRespawnInfo@@@std@@@std@@QAEXVconst_iterator@01@0Uinput_iterator_tag@1@@Z PROC NEAR ; std::vector<CRespawnInfo,std::allocator<CRespawnInfo> >::_Assign<std::vector<CRespawnInfo,std::allocator<CRespawnInfo> >::const_iterator>, COMDAT
; _this$ = ecx

; 608  : 		void _Assign(_Iter _First, _Iter _Last, input_iterator_tag)

  00000	51		 push	 ecx
  00001	56		 push	 esi
  00002	8b f1		 mov	 esi, ecx

; 609  : 		{	// assign [_First, _Last), input iterators
; 610  : 		erase(begin(), end());

  00004	8b 46 08	 mov	 eax, DWORD PTR [esi+8]
  00007	8b 4e 04	 mov	 ecx, DWORD PTR [esi+4]
  0000a	50		 push	 eax
  0000b	51		 push	 ecx
  0000c	8d 44 24 0c	 lea	 eax, DWORD PTR $T239183[esp+16]
  00010	50		 push	 eax
  00011	8b ce		 mov	 ecx, esi
  00013	e8 00 00 00 00	 call	 ?erase@?$vector@VCRespawnInfo@@V?$allocator@VCRespawnInfo@@@std@@@std@@QAE?AViterator@12@V312@0@Z ; std::vector<CRespawnInfo,std::allocator<CRespawnInfo> >::erase

; 611  : 		insert(begin(), _First, _Last);

  00018	8b 4c 24 10	 mov	 ecx, DWORD PTR $T239243[esp+4]
  0001c	8b 54 24 10	 mov	 edx, DWORD PTR __Last$[esp+4]
  00020	8b 46 04	 mov	 eax, DWORD PTR [esi+4]
  00023	51		 push	 ecx
  00024	8b 4c 24 10	 mov	 ecx, DWORD PTR __First$[esp+8]
  00028	52		 push	 edx
  00029	51		 push	 ecx
  0002a	50		 push	 eax
  0002b	8b ce		 mov	 ecx, esi
  0002d	e8 00 00 00 00	 call	 ??$_Insert@Vconst_iterator@?$vector@VCRespawnInfo@@V?$allocator@VCRespawnInfo@@@std@@@std@@@?$vector@VCRespawnInfo@@V?$allocator@VCRespawnInfo@@@std@@@std@@QAEXViterator@01@Vconst_iterator@01@1Uforward_iterator_tag@1@@Z ; std::vector<CRespawnInfo,std::allocator<CRespawnInfo> >::_Insert<std::vector<CRespawnInfo,std::allocator<CRespawnInfo> >::const_iterator>
  00032	5e		 pop	 esi

; 612  : 		}

  00033	59		 pop	 ecx
  00034	c2 0c 00	 ret	 12			; 0000000cH
??$_Assign@Vconst_iterator@?$vector@VCRespawnInfo@@V?$allocator@VCRespawnInfo@@@std@@@std@@@?$vector@VCRespawnInfo@@V?$allocator@VCRespawnInfo@@@std@@@std@@QAEXVconst_iterator@01@0Uinput_iterator_tag@1@@Z ENDP ; std::vector<CRespawnInfo,std::allocator<CRespawnInfo> >::_Assign<std::vector<CRespawnInfo,std::allocator<CRespawnInfo> >::const_iterator>
_TEXT	ENDS
PUBLIC	??0CRespawner@@QAE@XZ				; CRespawner::CRespawner
EXTRN	??_L@YGXPAXIHP6EX0@Z1@Z:NEAR			; `eh vector constructor iterator'
; Function compile flags: /Ogty
; File c:\documents and settings\test\mes documents\source\virtuos_v17\build\program\_common\respawn.cpp
;	COMDAT ??0CRespawner@@QAE@XZ
_TEXT	SEGMENT
??0CRespawner@@QAE@XZ PROC NEAR				; CRespawner::CRespawner, COMDAT
; _this$ = ecx

; 222  : {

  00000	56		 push	 esi
  00001	68 00 00 00 00	 push	 OFFSET FLAT:??1?$vector@VCRespawnInfo@@V?$allocator@VCRespawnInfo@@@std@@@std@@QAE@XZ ; std::vector<CRespawnInfo,std::allocator<CRespawnInfo> >::~vector<CRespawnInfo,std::allocator<CRespawnInfo> >
  00006	68 00 00 00 00	 push	 OFFSET FLAT:??0?$vector@VCRespawnInfo@@V?$allocator@VCRespawnInfo@@@std@@@std@@QAE@XZ ; std::vector<CRespawnInfo,std::allocator<CRespawnInfo> >::vector<CRespawnInfo,std::allocator<CRespawnInfo> >
  0000b	8b f1		 mov	 esi, ecx
  0000d	6a 03		 push	 3
  0000f	6a 10		 push	 16			; 00000010H
  00011	8d 46 04	 lea	 eax, DWORD PTR [esi+4]
  00014	50		 push	 eax
  00015	c7 06 00 00 00
	00		 mov	 DWORD PTR [esi], OFFSET FLAT:??_7CRespawner@@6B@
  0001b	e8 00 00 00 00	 call	 ??_L@YGXPAXIHP6EX0@Z1@Z

; 223  : }

  00020	8b c6		 mov	 eax, esi
  00022	5e		 pop	 esi
  00023	c3		 ret	 0
??0CRespawner@@QAE@XZ ENDP				; CRespawner::CRespawner
_TEXT	ENDS
PUBLIC	??1?$map@HPAVCRespawner@@U?$less@H@std@@V?$allocator@U?$pair@$$CBHPAVCRespawner@@@std@@@3@@std@@QAE@XZ ; std::map<int,CRespawner *,std::less<int>,std::allocator<std::pair<int const ,CRespawner *> > >::~map<int,CRespawner *,std::less<int>,std::allocator<std::pair<int const ,CRespawner *> > >
; Function compile flags: /Ogty
;	COMDAT ??1?$map@HPAVCRespawner@@U?$less@H@std@@V?$allocator@U?$pair@$$CBHPAVCRespawner@@@std@@@3@@std@@QAE@XZ
_TEXT	SEGMENT
$T239355 = -4						; size = 4
??1?$map@HPAVCRespawner@@U?$less@H@std@@V?$allocator@U?$pair@$$CBHPAVCRespawner@@@std@@@3@@std@@QAE@XZ PROC NEAR ; std::map<int,CRespawner *,std::less<int>,std::allocator<std::pair<int const ,CRespawner *> > >::~map<int,CRespawner *,std::less<int>,std::allocator<std::pair<int const ,CRespawner *> > >, COMDAT
; _this$ = ecx
  00000	51		 push	 ecx
  00001	56		 push	 esi
  00002	8b f1		 mov	 esi, ecx
  00004	8b 46 04	 mov	 eax, DWORD PTR [esi+4]
  00007	8b 08		 mov	 ecx, DWORD PTR [eax]
  00009	50		 push	 eax
  0000a	51		 push	 ecx
  0000b	8d 44 24 0c	 lea	 eax, DWORD PTR $T239355[esp+16]
  0000f	50		 push	 eax
  00010	8b ce		 mov	 ecx, esi
  00012	e8 00 00 00 00	 call	 ?erase@?$_Tree@V?$_Tmap_traits@HPAVCRespawner@@U?$less@H@std@@V?$allocator@U?$pair@$$CBHPAVCRespawner@@@std@@@3@$0A@@std@@@std@@QAE?AViterator@12@V312@0@Z ; std::_Tree<std::_Tmap_traits<int,CRespawner *,std::less<int>,std::allocator<std::pair<int const ,CRespawner *> >,0> >::erase
  00017	8b 4e 04	 mov	 ecx, DWORD PTR [esi+4]
  0001a	51		 push	 ecx
  0001b	e8 00 00 00 00	 call	 ??3@YAXPAX@Z		; operator delete
  00020	83 c4 04	 add	 esp, 4
  00023	33 c0		 xor	 eax, eax
  00025	89 46 04	 mov	 DWORD PTR [esi+4], eax
  00028	89 46 08	 mov	 DWORD PTR [esi+8], eax
  0002b	5e		 pop	 esi
  0002c	59		 pop	 ecx
  0002d	c3		 ret	 0
??1?$map@HPAVCRespawner@@U?$less@H@std@@V?$allocator@U?$pair@$$CBHPAVCRespawner@@@std@@@3@@std@@QAE@XZ ENDP ; std::map<int,CRespawner *,std::less<int>,std::allocator<std::pair<int const ,CRespawner *> > >::~map<int,CRespawner *,std::less<int>,std::allocator<std::pair<int const ,CRespawner *> > >
_TEXT	ENDS
PUBLIC	??1CLayerdRespawner@@UAE@XZ			; CLayerdRespawner::~CLayerdRespawner
PUBLIC	??_7CLayerdRespawner@@6B@			; CLayerdRespawner::`vftable'
PUBLIC	??_GCLayerdRespawner@@UAEPAXI@Z			; CLayerdRespawner::`scalar deleting destructor'
EXTRN	??_ECLayerdRespawner@@UAEPAXI@Z:NEAR		; CLayerdRespawner::`vector deleting destructor'
;	COMDAT xdata$x
xdata$x	SEGMENT
$T239554 DD	0ffffffffH
	DD	FLAT:$L239384
	DD	00H
	DD	FLAT:$L239385
$T239552 DD	019930520H
	DD	02H
	DD	FLAT:$T239554
	DD	2 DUP(00H)
	DD	2 DUP(00H)
xdata$x	ENDS
;	COMDAT ??_7CLayerdRespawner@@6B@
CONST	SEGMENT
??_7CLayerdRespawner@@6B@ DD FLAT:??_ECLayerdRespawner@@UAEPAXI@Z ; CLayerdRespawner::`vftable'
; Function compile flags: /Ogty
CONST	ENDS
;	COMDAT ??1CLayerdRespawner@@UAE@XZ
_TEXT	SEGMENT
_this$ = -20						; size = 4
$T239519 = -16						; size = 4
__$EHRec$ = -12						; size = 12
??1CLayerdRespawner@@UAE@XZ PROC NEAR			; CLayerdRespawner::~CLayerdRespawner, COMDAT
; _this$ = ecx

; 669  : {

  00000	6a ff		 push	 -1
  00002	68 00 00 00 00	 push	 __ehhandler$??1CLayerdRespawner@@UAE@XZ
  00007	64 a1 00 00 00
	00		 mov	 eax, DWORD PTR fs:__except_list
  0000d	50		 push	 eax
  0000e	64 89 25 00 00
	00 00		 mov	 DWORD PTR fs:__except_list, esp
  00015	83 ec 08	 sub	 esp, 8
  00018	56		 push	 esi
  00019	8b f1		 mov	 esi, ecx
  0001b	57		 push	 edi
  0001c	89 74 24 08	 mov	 DWORD PTR _this$[esp+28], esi
  00020	c7 06 00 00 00
	00		 mov	 DWORD PTR [esi], OFFSET FLAT:??_7CLayerdRespawner@@6B@
  00026	c7 44 24 18 01
	00 00 00	 mov	 DWORD PTR __$EHRec$[esp+36], 1

; 670  : 	Clear();

  0002e	e8 00 00 00 00	 call	 ?Clear@CLayerdRespawner@@AAEXXZ ; CLayerdRespawner::Clear

; 671  : }

  00033	8b 46 3c	 mov	 eax, DWORD PTR [esi+60]
  00036	8b 08		 mov	 ecx, DWORD PTR [eax]
  00038	8d 7e 38	 lea	 edi, DWORD PTR [esi+56]
  0003b	50		 push	 eax
  0003c	51		 push	 ecx
  0003d	8d 44 24 14	 lea	 eax, DWORD PTR $T239519[esp+36]
  00041	50		 push	 eax
  00042	8b cf		 mov	 ecx, edi
  00044	c6 44 24 24 00	 mov	 BYTE PTR __$EHRec$[esp+48], 0
  00049	e8 00 00 00 00	 call	 ?erase@?$_Tree@V?$_Tmap_traits@HPAVCRespawner@@U?$less@H@std@@V?$allocator@U?$pair@$$CBHPAVCRespawner@@@std@@@3@$0A@@std@@@std@@QAE?AViterator@12@V312@0@Z ; std::_Tree<std::_Tmap_traits<int,CRespawner *,std::less<int>,std::allocator<std::pair<int const ,CRespawner *> >,0> >::erase
  0004e	8b 47 04	 mov	 eax, DWORD PTR [edi+4]
  00051	50		 push	 eax
  00052	e8 00 00 00 00	 call	 ??3@YAXPAX@Z		; operator delete
  00057	83 c4 04	 add	 esp, 4
  0005a	68 00 00 00 00	 push	 OFFSET FLAT:??1?$vector@VCRespawnInfo@@V?$allocator@VCRespawnInfo@@@std@@@std@@QAE@XZ ; std::vector<CRespawnInfo,std::allocator<CRespawnInfo> >::~vector<CRespawnInfo,std::allocator<CRespawnInfo> >
  0005f	6a 03		 push	 3
  00061	c7 47 04 00 00
	00 00		 mov	 DWORD PTR [edi+4], 0
  00068	c7 47 08 00 00
	00 00		 mov	 DWORD PTR [edi+8], 0
  0006f	c7 46 04 00 00
	00 00		 mov	 DWORD PTR [esi+4], OFFSET FLAT:??_7CRespawner@@6B@
  00076	6a 10		 push	 16			; 00000010H
  00078	83 c6 08	 add	 esi, 8
  0007b	56		 push	 esi
  0007c	c7 44 24 28 ff
	ff ff ff	 mov	 DWORD PTR __$EHRec$[esp+52], -1
  00084	e8 00 00 00 00	 call	 ??_M@YGXPAXIHP6EX0@Z@Z
  00089	8b 4c 24 10	 mov	 ecx, DWORD PTR __$EHRec$[esp+28]
  0008d	5f		 pop	 edi
  0008e	5e		 pop	 esi
  0008f	64 89 0d 00 00
	00 00		 mov	 DWORD PTR fs:__except_list, ecx
  00096	83 c4 14	 add	 esp, 20			; 00000014H
  00099	c3		 ret	 0
_TEXT	ENDS
;	COMDAT text$x
text$x	SEGMENT
$L239384:
  00000	8b 4d ec	 mov	 ecx, DWORD PTR _this$[ebp]
  00003	83 c1 04	 add	 ecx, 4
  00006	e9 00 00 00 00	 jmp	 ??1CRespawner@@UAE@XZ	; CRespawner::~CRespawner
$L239385:
  0000b	8b 4d ec	 mov	 ecx, DWORD PTR _this$[ebp]
  0000e	83 c1 38	 add	 ecx, 56			; 00000038H
  00011	e9 00 00 00 00	 jmp	 ??1?$map@HPAVCRespawner@@U?$less@H@std@@V?$allocator@U?$pair@$$CBHPAVCRespawner@@@std@@@3@@std@@QAE@XZ
__ehhandler$??1CLayerdRespawner@@UAE@XZ:
  00016	b8 00 00 00 00	 mov	 eax, OFFSET FLAT:$T239552
  0001b	e9 00 00 00 00	 jmp	 ___CxxFrameHandler
text$x	ENDS
??1CLayerdRespawner@@UAE@XZ ENDP			; CLayerdRespawner::~CLayerdRespawner
PUBLIC	?push_back@?$vector@VCRespawnInfo@@V?$allocator@VCRespawnInfo@@@std@@@std@@QAEXABVCRespawnInfo@@@Z ; std::vector<CRespawnInfo,std::allocator<CRespawnInfo> >::push_back
; Function compile flags: /Ogty
; File c:\program files\microsoft visual studio .net 2003\vc7\include\vector
;	COMDAT ?push_back@?$vector@VCRespawnInfo@@V?$allocator@VCRespawnInfo@@@std@@@std@@QAEXABVCRespawnInfo@@@Z
_TEXT	SEGMENT
__Cat$239596 = 8					; size = 1
$T239561 = 8						; size = 4
__Val$ = 8						; size = 4
?push_back@?$vector@VCRespawnInfo@@V?$allocator@VCRespawnInfo@@@std@@@std@@QAEXABVCRespawnInfo@@@Z PROC NEAR ; std::vector<CRespawnInfo,std::allocator<CRespawnInfo> >::push_back, COMDAT
; _this$ = ecx

; 579  : 		{	// insert element at end

  00000	56		 push	 esi
  00001	8b f1		 mov	 esi, ecx
  00003	57		 push	 edi

; 580  : 		if (size() < capacity())

  00004	8b 7e 04	 mov	 edi, DWORD PTR [esi+4]
  00007	85 ff		 test	 edi, edi
  00009	75 04		 jne	 SHORT $L239567
  0000b	33 c9		 xor	 ecx, ecx
  0000d	eb 16		 jmp	 SHORT $L239568
$L239567:
  0000f	8b 4e 08	 mov	 ecx, DWORD PTR [esi+8]
  00012	2b cf		 sub	 ecx, edi
  00014	b8 eb 5d f2 60	 mov	 eax, 1626496491		; 60f25debH
  00019	f7 e9		 imul	 ecx
  0001b	c1 fa 09	 sar	 edx, 9
  0001e	8b ca		 mov	 ecx, edx
  00020	c1 e9 1f	 shr	 ecx, 31			; 0000001fH
  00023	03 ca		 add	 ecx, edx
$L239568:
  00025	85 ff		 test	 edi, edi
  00027	74 41		 je	 SHORT $L229026
  00029	8b 56 0c	 mov	 edx, DWORD PTR [esi+12]
  0002c	2b d7		 sub	 edx, edi
  0002e	b8 eb 5d f2 60	 mov	 eax, 1626496491		; 60f25debH
  00033	f7 ea		 imul	 edx
  00035	c1 fa 09	 sar	 edx, 9
  00038	8b c2		 mov	 eax, edx
  0003a	c1 e8 1f	 shr	 eax, 31			; 0000001fH
  0003d	03 c2		 add	 eax, edx
  0003f	3b c8		 cmp	 ecx, eax
  00041	73 27		 jae	 SHORT $L229026

; 581  : 			_Mylast = _Ufill(_Mylast, 1, _Val);

  00043	8b 44 24 0c	 mov	 eax, DWORD PTR __Cat$239596[esp+4]
  00047	8b 4c 24 0c	 mov	 ecx, DWORD PTR __Val$[esp+4]
  0004b	8b 7e 08	 mov	 edi, DWORD PTR [esi+8]
  0004e	50		 push	 eax
  0004f	56		 push	 esi
  00050	51		 push	 ecx
  00051	6a 01		 push	 1
  00053	57		 push	 edi
  00054	e8 00 00 00 00	 call	 ??$_Uninit_fill_n@PAVCRespawnInfo@@IV1@V?$allocator@VCRespawnInfo@@@std@@@std@@YAXPAVCRespawnInfo@@IABV1@AAV?$allocator@VCRespawnInfo@@@0@U_Nonscalar_ptr_iterator_tag@0@@Z ; std::_Uninit_fill_n<CRespawnInfo *,unsigned int,CRespawnInfo,std::allocator<CRespawnInfo> >
  00059	83 c4 14	 add	 esp, 20			; 00000014H
  0005c	81 c7 48 05 00
	00		 add	 edi, 1352		; 00000548H
  00062	89 7e 08	 mov	 DWORD PTR [esi+8], edi
  00065	5f		 pop	 edi
  00066	5e		 pop	 esi

; 584  : 		}

  00067	c2 04 00	 ret	 4
$L229026:

; 582  : 		else
; 583  : 			insert(end(), _Val);

  0006a	8b 54 24 0c	 mov	 edx, DWORD PTR __Val$[esp+4]
  0006e	8b 46 08	 mov	 eax, DWORD PTR [esi+8]
  00071	52		 push	 edx
  00072	50		 push	 eax
  00073	8d 44 24 14	 lea	 eax, DWORD PTR $T239561[esp+12]
  00077	50		 push	 eax
  00078	8b ce		 mov	 ecx, esi
  0007a	e8 00 00 00 00	 call	 ?insert@?$vector@VCRespawnInfo@@V?$allocator@VCRespawnInfo@@@std@@@std@@QAE?AViterator@12@V312@ABVCRespawnInfo@@@Z ; std::vector<CRespawnInfo,std::allocator<CRespawnInfo> >::insert
  0007f	5f		 pop	 edi
  00080	5e		 pop	 esi

; 584  : 		}

  00081	c2 04 00	 ret	 4
?push_back@?$vector@VCRespawnInfo@@V?$allocator@VCRespawnInfo@@@std@@@std@@QAEXABVCRespawnInfo@@@Z ENDP ; std::vector<CRespawnInfo,std::allocator<CRespawnInfo> >::push_back
_TEXT	ENDS
PUBLIC	??0?$map@HPAVCRespawner@@U?$less@H@std@@V?$allocator@U?$pair@$$CBHPAVCRespawner@@@std@@@3@@std@@QAE@XZ ; std::map<int,CRespawner *,std::less<int>,std::allocator<std::pair<int const ,CRespawner *> > >::map<int,CRespawner *,std::less<int>,std::allocator<std::pair<int const ,CRespawner *> > >
; Function compile flags: /Ogty
; File c:\program files\microsoft visual studio .net 2003\vc7\include\map
;	COMDAT ??0?$map@HPAVCRespawner@@U?$less@H@std@@V?$allocator@U?$pair@$$CBHPAVCRespawner@@@std@@@3@@std@@QAE@XZ
_TEXT	SEGMENT
??0?$map@HPAVCRespawner@@U?$less@H@std@@V?$allocator@U?$pair@$$CBHPAVCRespawner@@@std@@@3@@std@@QAE@XZ PROC NEAR ; std::map<int,CRespawner *,std::less<int>,std::allocator<std::pair<int const ,CRespawner *> > >::map<int,CRespawner *,std::less<int>,std::allocator<std::pair<int const ,CRespawner *> > >, COMDAT
; _this$ = ecx

; 102  : 		{	// construct empty map from defaults

  00000	56		 push	 esi
  00001	8b f1		 mov	 esi, ecx
  00003	e8 00 00 00 00	 call	 ?_Buynode@?$_Tree@V?$_Tmap_traits@HPAVCRespawner@@U?$less@H@std@@V?$allocator@U?$pair@$$CBHPAVCRespawner@@@std@@@3@$0A@@std@@@std@@IAEPAU_Node@?$_Tree_nod@V?$_Tmap_traits@HPAVCRespawner@@U?$less@H@std@@V?$allocator@U?$pair@$$CBHPAVCRespawner@@@std@@@3@$0A@@std@@@2@XZ ; std::_Tree<std::_Tmap_traits<int,CRespawner *,std::less<int>,std::allocator<std::pair<int const ,CRespawner *> >,0> >::_Buynode
  00008	89 46 04	 mov	 DWORD PTR [esi+4], eax
  0000b	c6 40 15 01	 mov	 BYTE PTR [eax+21], 1
  0000f	8b 46 04	 mov	 eax, DWORD PTR [esi+4]
  00012	89 40 04	 mov	 DWORD PTR [eax+4], eax
  00015	8b 46 04	 mov	 eax, DWORD PTR [esi+4]
  00018	89 00		 mov	 DWORD PTR [eax], eax
  0001a	8b 46 04	 mov	 eax, DWORD PTR [esi+4]
  0001d	89 40 08	 mov	 DWORD PTR [eax+8], eax
  00020	c7 46 08 00 00
	00 00		 mov	 DWORD PTR [esi+8], 0

; 103  : 		}

  00027	8b c6		 mov	 eax, esi
  00029	5e		 pop	 esi
  0002a	c3		 ret	 0
??0?$map@HPAVCRespawner@@U?$less@H@std@@V?$allocator@U?$pair@$$CBHPAVCRespawner@@@std@@@3@@std@@QAE@XZ ENDP ; std::map<int,CRespawner *,std::less<int>,std::allocator<std::pair<int const ,CRespawner *> > >::map<int,CRespawner *,std::less<int>,std::allocator<std::pair<int const ,CRespawner *> > >
_TEXT	ENDS
PUBLIC	??$assign@Vconst_iterator@?$vector@VCRespawnInfo@@V?$allocator@VCRespawnInfo@@@std@@@std@@@?$vector@VCRespawnInfo@@V?$allocator@VCRespawnInfo@@@std@@@std@@QAEXVconst_iterator@01@0@Z ; std::vector<CRespawnInfo,std::allocator<CRespawnInfo> >::assign<std::vector<CRespawnInfo,std::allocator<CRespawnInfo> >::const_iterator>
; Function compile flags: /Ogty
; File c:\program files\microsoft visual studio .net 2003\vc7\include\vector
;	COMDAT ??$assign@Vconst_iterator@?$vector@VCRespawnInfo@@V?$allocator@VCRespawnInfo@@@std@@@std@@@?$vector@VCRespawnInfo@@V?$allocator@VCRespawnInfo@@@std@@@std@@QAEXVconst_iterator@01@0@Z
_TEXT	SEGMENT
$T239864 = -4						; size = 4
__First$ = 8						; size = 4
$T239887 = 12						; size = 1
__Last$ = 12						; size = 4
??$assign@Vconst_iterator@?$vector@VCRespawnInfo@@V?$allocator@VCRespawnInfo@@@std@@@std@@@?$vector@VCRespawnInfo@@V?$allocator@VCRespawnInfo@@@std@@@std@@QAEXVconst_iterator@01@0@Z PROC NEAR ; std::vector<CRespawnInfo,std::allocator<CRespawnInfo> >::assign<std::vector<CRespawnInfo,std::allocator<CRespawnInfo> >::const_iterator>, COMDAT
; _this$ = ecx

; 596  : 		void assign(_Iter _First, _Iter _Last)

  00000	51		 push	 ecx
  00001	56		 push	 esi
  00002	8b f1		 mov	 esi, ecx

; 597  : 		{	// assign [_First, _Last)
; 598  : 		_Assign(_First, _Last, _Iter_cat(_First));

  00004	8b 46 08	 mov	 eax, DWORD PTR [esi+8]
  00007	8b 4e 04	 mov	 ecx, DWORD PTR [esi+4]
  0000a	50		 push	 eax
  0000b	51		 push	 ecx
  0000c	8d 44 24 0c	 lea	 eax, DWORD PTR $T239864[esp+16]
  00010	50		 push	 eax
  00011	8b ce		 mov	 ecx, esi
  00013	e8 00 00 00 00	 call	 ?erase@?$vector@VCRespawnInfo@@V?$allocator@VCRespawnInfo@@@std@@@std@@QAE?AViterator@12@V312@0@Z ; std::vector<CRespawnInfo,std::allocator<CRespawnInfo> >::erase
  00018	8b 4c 24 10	 mov	 ecx, DWORD PTR $T239887[esp+4]
  0001c	8b 54 24 10	 mov	 edx, DWORD PTR __Last$[esp+4]
  00020	8b 46 04	 mov	 eax, DWORD PTR [esi+4]
  00023	51		 push	 ecx
  00024	8b 4c 24 10	 mov	 ecx, DWORD PTR __First$[esp+8]
  00028	52		 push	 edx
  00029	51		 push	 ecx
  0002a	50		 push	 eax
  0002b	8b ce		 mov	 ecx, esi
  0002d	e8 00 00 00 00	 call	 ??$_Insert@Vconst_iterator@?$vector@VCRespawnInfo@@V?$allocator@VCRespawnInfo@@@std@@@std@@@?$vector@VCRespawnInfo@@V?$allocator@VCRespawnInfo@@@std@@@std@@QAEXViterator@01@Vconst_iterator@01@1Uforward_iterator_tag@1@@Z ; std::vector<CRespawnInfo,std::allocator<CRespawnInfo> >::_Insert<std::vector<CRespawnInfo,std::allocator<CRespawnInfo> >::const_iterator>
  00032	5e		 pop	 esi

; 599  : 		}

  00033	59		 pop	 ecx
  00034	c2 08 00	 ret	 8
??$assign@Vconst_iterator@?$vector@VCRespawnInfo@@V?$allocator@VCRespawnInfo@@@std@@@std@@@?$vector@VCRespawnInfo@@V?$allocator@VCRespawnInfo@@@std@@@std@@QAEXVconst_iterator@01@0@Z ENDP ; std::vector<CRespawnInfo,std::allocator<CRespawnInfo> >::assign<std::vector<CRespawnInfo,std::allocator<CRespawnInfo> >::const_iterator>
_TEXT	ENDS
PUBLIC	??0CRespawner@@QAE@ABV0@@Z			; CRespawner::CRespawner
;	COMDAT xdata$x
; File c:\program files\microsoft visual studio .net 2003\vc7\include\xutility
xdata$x	SEGMENT
$T240286 DD	0ffffffffH
	DD	FLAT:$L239898
$T240276 DD	019930520H
	DD	01H
	DD	FLAT:$T240286
	DD	2 DUP(00H)
	DD	2 DUP(00H)
; Function compile flags: /Ogty
; File c:\documents and settings\test\mes documents\source\virtuos_v17\build\program\_common\respawn.cpp
xdata$x	ENDS
;	COMDAT ??0CRespawner@@QAE@ABV0@@Z
_TEXT	SEGMENT
tv485 = -32						; size = 4
tv422 = -28						; size = 4
_this$ = -24						; size = 4
$T240272 = -20						; size = 4
$T240273 = -16						; size = 4
__$EHRec$ = -12						; size = 12
tv345 = 8						; size = 4
$T240266 = 8						; size = 1
_respawner$ = 8						; size = 4
??0CRespawner@@QAE@ABV0@@Z PROC NEAR			; CRespawner::CRespawner, COMDAT
; _this$ = ecx

; 227  : {

  00000	6a ff		 push	 -1
  00002	68 00 00 00 00	 push	 __ehhandler$??0CRespawner@@QAE@ABV0@@Z
  00007	64 a1 00 00 00
	00		 mov	 eax, DWORD PTR fs:__except_list
  0000d	50		 push	 eax
  0000e	64 89 25 00 00
	00 00		 mov	 DWORD PTR fs:__except_list, esp
  00015	83 ec 14	 sub	 esp, 20			; 00000014H
  00018	53		 push	 ebx
  00019	55		 push	 ebp
  0001a	56		 push	 esi
  0001b	57		 push	 edi
  0001c	68 00 00 00 00	 push	 OFFSET FLAT:??1?$vector@VCRespawnInfo@@V?$allocator@VCRespawnInfo@@@std@@@std@@QAE@XZ ; std::vector<CRespawnInfo,std::allocator<CRespawnInfo> >::~vector<CRespawnInfo,std::allocator<CRespawnInfo> >
  00021	68 00 00 00 00	 push	 OFFSET FLAT:??0?$vector@VCRespawnInfo@@V?$allocator@VCRespawnInfo@@@std@@@std@@QAE@XZ ; std::vector<CRespawnInfo,std::allocator<CRespawnInfo> >::vector<CRespawnInfo,std::allocator<CRespawnInfo> >
  00026	8b d9		 mov	 ebx, ecx
  00028	6a 03		 push	 3
  0002a	6a 10		 push	 16			; 00000010H
  0002c	8d 43 04	 lea	 eax, DWORD PTR [ebx+4]
  0002f	50		 push	 eax
  00030	89 5c 24 2c	 mov	 DWORD PTR _this$[esp+68], ebx
  00034	c7 03 00 00 00
	00		 mov	 DWORD PTR [ebx], OFFSET FLAT:??_7CRespawner@@6B@
  0003a	e8 00 00 00 00	 call	 ??_L@YGXPAXIHP6EX0@Z1@Z
  0003f	8b 44 24 34	 mov	 eax, DWORD PTR _respawner$[esp+44]
  00043	8d 48 08	 lea	 ecx, DWORD PTR [eax+8]

; 228  : 	for( int i = 0; i < 3; ++i )

  00046	2b c3		 sub	 eax, ebx
  00048	c7 44 24 2c 00
	00 00 00	 mov	 DWORD PTR __$EHRec$[esp+56], 0
  00050	89 4c 24 34	 mov	 DWORD PTR tv345[esp+44], ecx
  00054	8d 7b 0c	 lea	 edi, DWORD PTR [ebx+12]
  00057	89 44 24 14	 mov	 DWORD PTR tv422[esp+48], eax
  0005b	c7 44 24 10 03
	00 00 00	 mov	 DWORD PTR tv485[esp+48], 3
  00063	eb 0b		 jmp	 SHORT $L228384
$L240283:

; 227  : {

  00065	8b 44 24 14	 mov	 eax, DWORD PTR tv422[esp+48]
  00069	8d a4 24 00 00
	00 00		 npad	 7
$L228384:

; 229  : 		m_vRespawnInfo[i].assign( respawner.m_vRespawnInfo[i].begin(), respawner.m_vRespawnInfo[i].end() );

  00070	8b 14 38	 mov	 edx, DWORD PTR [eax+edi]
  00073	8b 44 24 34	 mov	 eax, DWORD PTR tv345[esp+44]
  00077	8b 08		 mov	 ecx, DWORD PTR [eax]
  00079	8b 37		 mov	 esi, DWORD PTR [edi]
  0007b	8b 6f fc	 mov	 ebp, DWORD PTR [edi-4]
  0007e	3b ee		 cmp	 ebp, esi
  00080	89 4c 24 20	 mov	 DWORD PTR $T240273[esp+48], ecx
  00084	89 54 24 1c	 mov	 DWORD PTR $T240272[esp+48], edx
  00088	8d 4f f8	 lea	 ecx, DWORD PTR [edi-8]
  0008b	74 42		 je	 SHORT $L240222
  0008d	3b f6		 cmp	 esi, esi
  0008f	8b de		 mov	 ebx, esi
  00091	74 18		 je	 SHORT $L240238
$L240236:
  00093	53		 push	 ebx
  00094	8b cd		 mov	 ecx, ebp
  00096	e8 00 00 00 00	 call	 ??4CRespawnInfo@@QAEAAV0@ABV0@@Z ; CRespawnInfo::operator=
  0009b	81 c3 48 05 00
	00		 add	 ebx, 1352		; 00000548H
  000a1	81 c5 48 05 00
	00		 add	 ebp, 1352		; 00000548H
  000a7	3b de		 cmp	 ebx, esi
  000a9	75 e8		 jne	 SHORT $L240236
$L240238:
  000ab	8b 1f		 mov	 ebx, DWORD PTR [edi]
  000ad	3b eb		 cmp	 ebp, ebx
  000af	8b f5		 mov	 esi, ebp
  000b1	74 12		 je	 SHORT $L240254
$L240284:
  000b3	8b 16		 mov	 edx, DWORD PTR [esi]
  000b5	6a 00		 push	 0
  000b7	8b ce		 mov	 ecx, esi
  000b9	ff 12		 call	 DWORD PTR [edx]
  000bb	81 c6 48 05 00
	00		 add	 esi, 1352		; 00000548H
  000c1	3b f3		 cmp	 esi, ebx
  000c3	75 ee		 jne	 SHORT $L240284
$L240254:
  000c5	8b 5c 24 18	 mov	 ebx, DWORD PTR _this$[esp+48]
  000c9	8d 4f f8	 lea	 ecx, DWORD PTR [edi-8]
  000cc	89 69 08	 mov	 DWORD PTR [ecx+8], ebp
$L240222:
  000cf	8b 54 24 34	 mov	 edx, DWORD PTR $T240266[esp+44]
  000d3	8b 41 04	 mov	 eax, DWORD PTR [ecx+4]
  000d6	52		 push	 edx
  000d7	8b 54 24 20	 mov	 edx, DWORD PTR $T240272[esp+52]
  000db	52		 push	 edx
  000dc	8b 54 24 28	 mov	 edx, DWORD PTR $T240273[esp+56]
  000e0	52		 push	 edx
  000e1	50		 push	 eax
  000e2	e8 00 00 00 00	 call	 ??$_Insert@Vconst_iterator@?$vector@VCRespawnInfo@@V?$allocator@VCRespawnInfo@@@std@@@std@@@?$vector@VCRespawnInfo@@V?$allocator@VCRespawnInfo@@@std@@@std@@QAEXViterator@01@Vconst_iterator@01@1Uforward_iterator_tag@1@@Z ; std::vector<CRespawnInfo,std::allocator<CRespawnInfo> >::_Insert<std::vector<CRespawnInfo,std::allocator<CRespawnInfo> >::const_iterator>
  000e7	8b 54 24 34	 mov	 edx, DWORD PTR tv345[esp+44]
  000eb	8b 44 24 10	 mov	 eax, DWORD PTR tv485[esp+48]
  000ef	83 c2 10	 add	 edx, 16			; 00000010H
  000f2	83 c7 10	 add	 edi, 16			; 00000010H
  000f5	48		 dec	 eax
  000f6	89 54 24 34	 mov	 DWORD PTR tv345[esp+44], edx
  000fa	89 44 24 10	 mov	 DWORD PTR tv485[esp+48], eax
  000fe	0f 85 61 ff ff
	ff		 jne	 $L240283

; 230  : }

  00104	8b 4c 24 24	 mov	 ecx, DWORD PTR __$EHRec$[esp+48]
  00108	5f		 pop	 edi
  00109	5e		 pop	 esi
  0010a	5d		 pop	 ebp
  0010b	8b c3		 mov	 eax, ebx
  0010d	5b		 pop	 ebx
  0010e	64 89 0d 00 00
	00 00		 mov	 DWORD PTR fs:__except_list, ecx
  00115	83 c4 20	 add	 esp, 32			; 00000020H
  00118	c2 04 00	 ret	 4
_TEXT	ENDS
;	COMDAT text$x
text$x	SEGMENT
$L239898:
  00000	68 00 00 00 00	 push	 OFFSET FLAT:??1?$vector@VCRespawnInfo@@V?$allocator@VCRespawnInfo@@@std@@@std@@QAE@XZ ; std::vector<CRespawnInfo,std::allocator<CRespawnInfo> >::~vector<CRespawnInfo,std::allocator<CRespawnInfo> >
  00005	6a 03		 push	 3
  00007	6a 10		 push	 16			; 00000010H
  00009	8b 45 e8	 mov	 eax, DWORD PTR _this$[ebp]
  0000c	83 c0 04	 add	 eax, 4
  0000f	50		 push	 eax
  00010	e8 00 00 00 00	 call	 ??_M@YGXPAXIHP6EX0@Z@Z
  00015	c3		 ret	 0
__ehhandler$??0CRespawner@@QAE@ABV0@@Z:
  00016	b8 00 00 00 00	 mov	 eax, OFFSET FLAT:$T240276
  0001b	e9 00 00 00 00	 jmp	 ___CxxFrameHandler
text$x	ENDS
??0CRespawner@@QAE@ABV0@@Z ENDP				; CRespawner::CRespawner
PUBLIC	??_C@_0DD@JMBKMANC@CRespawner?3?3Add?5?$LA?$LA?$MA?$LK?5ID?5?$LJ?$NP?$LA?$NP?5?3?5?$CF@ ; `string'
PUBLIC	?Add@CRespawner@@QAEHAAVCRespawnInfo@@H@Z	; CRespawner::Add
;	COMDAT ??_C@_0DD@JMBKMANC@CRespawner?3?3Add?5?$LA?$LA?$MA?$LK?5ID?5?$LJ?$NP?$LA?$NP?5?3?5?$CF@
; File c:\program files\microsoft visual studio .net 2003\vc7\include\vector
CONST	SEGMENT
??_C@_0DD@JMBKMANC@CRespawner?3?3Add?5?$LA?$LA?$MA?$LK?5ID?5?$LJ?$NP?$LA?$NP?5?3?5?$CF@ DB 'C'
	DB	'Respawner::Add ', 0b0H, 0b0H, 0c0H, 0baH, ' ID ', 0b9H, 0dfH, 0b0H
	DB	0dfH, ' : %d, %d, %f, %f, %d', 0aH, 00H	; `string'
; Function compile flags: /Ogty
; File c:\documents and settings\test\mes documents\source\virtuos_v17\build\program\_common\respawn.cpp
CONST	ENDS
;	COMDAT ?Add@CRespawner@@QAEHAAVCRespawnInfo@@H@Z
_TEXT	SEGMENT
_ri$ = 8						; size = 4
_nType$ = 12						; size = 4
?Add@CRespawner@@QAEHAAVCRespawnInfo@@H@Z PROC NEAR	; CRespawner::Add, COMDAT
; _this$ = ecx

; 238  : {	

  00000	53		 push	 ebx

; 239  : 	if( nType == RESPAWNTYPE_REGION )

  00001	8b 5c 24 0c	 mov	 ebx, DWORD PTR _nType$[esp]
  00005	85 db		 test	 ebx, ebx
  00007	56		 push	 esi
  00008	57		 push	 edi
  00009	8b f9		 mov	 edi, ecx
  0000b	75 3a		 jne	 SHORT $L228481

; 240  : 	{
; 241  : 		ri.m_uTime	/= 2;

  0000d	8b 74 24 10	 mov	 esi, DWORD PTR _ri$[esp+8]
  00011	66 d1 6e 30	 shr	 WORD PTR [esi+48], 1

; 242  : 		ri.m_nGMIndex	= m_vRespawnInfo[nType].size();

  00015	8b 47 08	 mov	 eax, DWORD PTR [edi+8]
  00018	85 c0		 test	 eax, eax
  0001a	8d 4f 04	 lea	 ecx, DWORD PTR [edi+4]
  0001d	75 09		 jne	 SHORT $L240298
  0001f	89 86 14 02 00
	00		 mov	 DWORD PTR [esi+532], eax

; 243  : 		m_vRespawnInfo[nType].push_back( ri );

  00025	56		 push	 esi

; 244  : 	}
; 245  : 	else

  00026	eb 4d		 jmp	 SHORT $L240364

; 242  : 		ri.m_nGMIndex	= m_vRespawnInfo[nType].size();

$L240298:
  00028	8b 51 08	 mov	 edx, DWORD PTR [ecx+8]
  0002b	2b d0		 sub	 edx, eax
  0002d	b8 eb 5d f2 60	 mov	 eax, 1626496491		; 60f25debH
  00032	f7 ea		 imul	 edx
  00034	c1 fa 09	 sar	 edx, 9
  00037	8b c2		 mov	 eax, edx
  00039	c1 e8 1f	 shr	 eax, 31			; 0000001fH
  0003c	03 c2		 add	 eax, edx
  0003e	89 86 14 02 00
	00		 mov	 DWORD PTR [esi+532], eax

; 243  : 		m_vRespawnInfo[nType].push_back( ri );

  00044	56		 push	 esi

; 244  : 	}
; 245  : 	else

  00045	eb 2e		 jmp	 SHORT $L240364
$L228481:

; 246  : 	if( nType == RESPAWNTYPE_SCRIPT )

  00047	83 fb 01	 cmp	 ebx, 1
  0004a	75 2e		 jne	 SHORT $L228483

; 247  : 	{
; 248  : 		for( VRI::iterator i = m_vRespawnInfo[nType].begin(); i != m_vRespawnInfo[nType].end(); ++i )

  0004c	8b 47 18	 mov	 eax, DWORD PTR [edi+24]

; 257  : 	}
; 258  : 	return m_vRespawnInfo[nType].size() - 1;

  0004f	8b 4f 1c	 mov	 ecx, DWORD PTR [edi+28]
  00052	3b c1		 cmp	 eax, ecx
  00054	8b 54 24 10	 mov	 edx, DWORD PTR _ri$[esp+8]
  00058	74 17		 je	 SHORT $L228526
  0005a	8b b2 14 02 00
	00		 mov	 esi, DWORD PTR [edx+532]

; 247  : 	{
; 248  : 		for( VRI::iterator i = m_vRespawnInfo[nType].begin(); i != m_vRespawnInfo[nType].end(); ++i )

$L240319:

; 249  : 		{
; 250  : 			 if( ( * i ).m_nGMIndex == ri.m_nGMIndex )

  00060	39 b0 14 02 00
	00		 cmp	 DWORD PTR [eax+532], esi
  00066	74 2a		 je	 SHORT $L240361
  00068	05 48 05 00 00	 add	 eax, 1352		; 00000548H
  0006d	3b c1		 cmp	 eax, ecx
  0006f	75 ef		 jne	 SHORT $L240319
$L228526:

; 254  : 			 }
; 255  : 		}
; 256  : 		m_vRespawnInfo[nType].push_back( ri );

  00071	52		 push	 edx
  00072	8d 4f 14	 lea	 ecx, DWORD PTR [edi+20]
$L240364:
  00075	e8 00 00 00 00	 call	 ?push_back@?$vector@VCRespawnInfo@@V?$allocator@VCRespawnInfo@@@std@@@std@@QAEXABVCRespawnInfo@@@Z ; std::vector<CRespawnInfo,std::allocator<CRespawnInfo> >::push_back
$L228483:

; 257  : 	}
; 258  : 	return m_vRespawnInfo[nType].size() - 1;

  0007a	c1 e3 04	 shl	 ebx, 4
  0007d	8b 54 3b 08	 mov	 edx, DWORD PTR [ebx+edi+8]
  00081	85 d2		 test	 edx, edx
  00083	8d 44 3b 04	 lea	 eax, DWORD PTR [ebx+edi+4]
  00087	75 39		 jne	 SHORT $L240357
  00089	5f		 pop	 edi
  0008a	5e		 pop	 esi
  0008b	33 c0		 xor	 eax, eax
  0008d	48		 dec	 eax
  0008e	5b		 pop	 ebx

; 259  : }

  0008f	c2 08 00	 ret	 8
$L240361:

; 251  : 			 {
; 252  : 				Error( "CRespawner::Add  ID  : %d, %d, %f, %f, %d\n", ri.m_dwIndex, ri.m_dwType, ri.m_vPos.x, ri.m_vPos.z, nType );

  00092	d9 42 2c	 fld	 DWORD PTR [edx+44]
  00095	8b 42 04	 mov	 eax, DWORD PTR [edx+4]
  00098	8b 4a 08	 mov	 ecx, DWORD PTR [edx+8]
  0009b	6a 01		 push	 1
  0009d	83 ec 10	 sub	 esp, 16			; 00000010H
  000a0	dd 5c 24 08	 fstp	 QWORD PTR [esp+8]
  000a4	d9 42 24	 fld	 DWORD PTR [edx+36]
  000a7	dd 1c 24	 fstp	 QWORD PTR [esp]
  000aa	50		 push	 eax
  000ab	51		 push	 ecx
  000ac	68 00 00 00 00	 push	 OFFSET FLAT:??_C@_0DD@JMBKMANC@CRespawner?3?3Add?5?$LA?$LA?$MA?$LK?5ID?5?$LJ?$NP?$LA?$NP?5?3?5?$CF@
  000b1	e8 00 00 00 00	 call	 ?Error@@YAPBDPBDZZ	; Error
  000b6	83 c4 20	 add	 esp, 32			; 00000020H
  000b9	5f		 pop	 edi
  000ba	5e		 pop	 esi

; 253  : 				return -1;

  000bb	83 c8 ff	 or	 eax, -1
  000be	5b		 pop	 ebx

; 259  : }

  000bf	c2 08 00	 ret	 8

; 257  : 	}
; 258  : 	return m_vRespawnInfo[nType].size() - 1;

$L240357:
  000c2	8b 48 08	 mov	 ecx, DWORD PTR [eax+8]
  000c5	2b ca		 sub	 ecx, edx
  000c7	b8 eb 5d f2 60	 mov	 eax, 1626496491		; 60f25debH
  000cc	f7 e9		 imul	 ecx
  000ce	c1 fa 09	 sar	 edx, 9
  000d1	5f		 pop	 edi
  000d2	8b c2		 mov	 eax, edx
  000d4	c1 e8 1f	 shr	 eax, 31			; 0000001fH
  000d7	5e		 pop	 esi
  000d8	03 c2		 add	 eax, edx
  000da	48		 dec	 eax
  000db	5b		 pop	 ebx

; 259  : }

  000dc	c2 08 00	 ret	 8
?Add@CRespawner@@QAEHAAVCRespawnInfo@@H@Z ENDP		; CRespawner::Add
_TEXT	ENDS
PUBLIC	??0CLayerdRespawner@@QAE@XZ			; CLayerdRespawner::CLayerdRespawner
;	COMDAT xdata$x
; File c:\program files\microsoft visual studio .net 2003\vc7\include\xtree
xdata$x	SEGMENT
$T240592 DD	0ffffffffH
	DD	FLAT:$L240368
$T240590 DD	019930520H
	DD	01H
	DD	FLAT:$T240592
	DD	2 DUP(00H)
	DD	2 DUP(00H)
; Function compile flags: /Ogty
; File c:\documents and settings\test\mes documents\source\virtuos_v17\build\program\_common\respawn.cpp
xdata$x	ENDS
;	COMDAT ??0CLayerdRespawner@@QAE@XZ
_TEXT	SEGMENT
_this$ = -16						; size = 4
__$EHRec$ = -12						; size = 12
??0CLayerdRespawner@@QAE@XZ PROC NEAR			; CLayerdRespawner::CLayerdRespawner, COMDAT
; _this$ = ecx

; 665  : {

  00000	6a ff		 push	 -1
  00002	68 00 00 00 00	 push	 __ehhandler$??0CLayerdRespawner@@QAE@XZ
  00007	64 a1 00 00 00
	00		 mov	 eax, DWORD PTR fs:__except_list
  0000d	50		 push	 eax
  0000e	64 89 25 00 00
	00 00		 mov	 DWORD PTR fs:__except_list, esp
  00015	51		 push	 ecx
  00016	56		 push	 esi
  00017	57		 push	 edi
  00018	68 00 00 00 00	 push	 OFFSET FLAT:??1?$vector@VCRespawnInfo@@V?$allocator@VCRespawnInfo@@@std@@@std@@QAE@XZ ; std::vector<CRespawnInfo,std::allocator<CRespawnInfo> >::~vector<CRespawnInfo,std::allocator<CRespawnInfo> >
  0001d	68 00 00 00 00	 push	 OFFSET FLAT:??0?$vector@VCRespawnInfo@@V?$allocator@VCRespawnInfo@@@std@@@std@@QAE@XZ ; std::vector<CRespawnInfo,std::allocator<CRespawnInfo> >::vector<CRespawnInfo,std::allocator<CRespawnInfo> >
  00022	8b f9		 mov	 edi, ecx
  00024	6a 03		 push	 3
  00026	6a 10		 push	 16			; 00000010H
  00028	8d 47 08	 lea	 eax, DWORD PTR [edi+8]
  0002b	c7 07 00 00 00
	00		 mov	 DWORD PTR [edi], OFFSET FLAT:??_7CLayerdRespawner@@6B@
  00031	50		 push	 eax
  00032	89 7c 24 1c	 mov	 DWORD PTR _this$[esp+44], edi
  00036	c7 47 04 00 00
	00 00		 mov	 DWORD PTR [edi+4], OFFSET FLAT:??_7CRespawner@@6B@
  0003d	e8 00 00 00 00	 call	 ??_L@YGXPAXIHP6EX0@Z1@Z
  00042	8d 77 38	 lea	 esi, DWORD PTR [edi+56]
  00045	8b ce		 mov	 ecx, esi
  00047	c7 44 24 14 00
	00 00 00	 mov	 DWORD PTR __$EHRec$[esp+32], 0
  0004f	e8 00 00 00 00	 call	 ?_Buynode@?$_Tree@V?$_Tmap_traits@HPAVCRespawner@@U?$less@H@std@@V?$allocator@U?$pair@$$CBHPAVCRespawner@@@std@@@3@$0A@@std@@@std@@IAEPAU_Node@?$_Tree_nod@V?$_Tmap_traits@HPAVCRespawner@@U?$less@H@std@@V?$allocator@U?$pair@$$CBHPAVCRespawner@@@std@@@3@$0A@@std@@@2@XZ ; std::_Tree<std::_Tmap_traits<int,CRespawner *,std::less<int>,std::allocator<std::pair<int const ,CRespawner *> >,0> >::_Buynode

; 666  : }

  00054	8b 4c 24 0c	 mov	 ecx, DWORD PTR __$EHRec$[esp+24]
  00058	89 46 04	 mov	 DWORD PTR [esi+4], eax
  0005b	c6 40 15 01	 mov	 BYTE PTR [eax+21], 1
  0005f	8b 46 04	 mov	 eax, DWORD PTR [esi+4]
  00062	89 40 04	 mov	 DWORD PTR [eax+4], eax
  00065	8b 46 04	 mov	 eax, DWORD PTR [esi+4]
  00068	89 00		 mov	 DWORD PTR [eax], eax
  0006a	8b 46 04	 mov	 eax, DWORD PTR [esi+4]
  0006d	89 40 08	 mov	 DWORD PTR [eax+8], eax
  00070	8b c7		 mov	 eax, edi
  00072	c7 46 08 00 00
	00 00		 mov	 DWORD PTR [esi+8], 0
  00079	5f		 pop	 edi
  0007a	5e		 pop	 esi
  0007b	64 89 0d 00 00
	00 00		 mov	 DWORD PTR fs:__except_list, ecx
  00082	83 c4 10	 add	 esp, 16			; 00000010H
  00085	c3		 ret	 0
_TEXT	ENDS
;	COMDAT text$x
text$x	SEGMENT
$L240368:
  00000	8b 4d f0	 mov	 ecx, DWORD PTR _this$[ebp]
  00003	83 c1 04	 add	 ecx, 4
  00006	e9 00 00 00 00	 jmp	 ??1CRespawner@@UAE@XZ	; CRespawner::~CRespawner
__ehhandler$??0CLayerdRespawner@@QAE@XZ:
  0000b	b8 00 00 00 00	 mov	 eax, OFFSET FLAT:$T240590
  00010	e9 00 00 00 00	 jmp	 ___CxxFrameHandler
text$x	ENDS
??0CLayerdRespawner@@QAE@XZ ENDP			; CLayerdRespawner::CLayerdRespawner
; Function compile flags: /Ogty
;	COMDAT ??_GCLayerdRespawner@@UAEPAXI@Z
_TEXT	SEGMENT
___flags$ = 8						; size = 4
??_GCLayerdRespawner@@UAEPAXI@Z PROC NEAR		; CLayerdRespawner::`scalar deleting destructor', COMDAT
; _this$ = ecx
  00000	56		 push	 esi
  00001	8b f1		 mov	 esi, ecx
  00003	e8 00 00 00 00	 call	 ??1CLayerdRespawner@@UAE@XZ ; CLayerdRespawner::~CLayerdRespawner
  00008	f6 44 24 08 01	 test	 BYTE PTR ___flags$[esp], 1
  0000d	74 09		 je	 SHORT $L240598
  0000f	56		 push	 esi
  00010	e8 00 00 00 00	 call	 ??3@YAXPAX@Z		; operator delete
  00015	83 c4 04	 add	 esp, 4
$L240598:
  00018	8b c6		 mov	 eax, esi
  0001a	5e		 pop	 esi
  0001b	c2 04 00	 ret	 4
??_GCLayerdRespawner@@UAEPAXI@Z ENDP			; CLayerdRespawner::`scalar deleting destructor'
_TEXT	ENDS
PUBLIC	?Add@CLayerdRespawner@@QAEHAAVCRespawnInfo@@H@Z	; CLayerdRespawner::Add
; Function compile flags: /Ogty
;	COMDAT ?Add@CLayerdRespawner@@QAEHAAVCRespawnInfo@@H@Z
_TEXT	SEGMENT
_ri$ = 8						; size = 4
_nType$ = 12						; size = 4
?Add@CLayerdRespawner@@QAEHAAVCRespawnInfo@@H@Z PROC NEAR ; CLayerdRespawner::Add, COMDAT
; _this$ = ecx

; 685  : 	return m_proto.Add( ri, nType );

  00000	83 c1 04	 add	 ecx, 4
  00003	e9 00 00 00 00	 jmp	 ?Add@CRespawner@@QAEHAAVCRespawnInfo@@H@Z ; CRespawner::Add
?Add@CLayerdRespawner@@QAEHAAVCRespawnInfo@@H@Z ENDP	; CLayerdRespawner::Add
_TEXT	ENDS
PUBLIC	?Expand@CLayerdRespawner@@QAEXH@Z		; CLayerdRespawner::Expand
;	COMDAT xdata$x
; File c:\program files\microsoft visual studio .net 2003\vc7\include\utility
xdata$x	SEGMENT
$T240639 DD	0ffffffffH
	DD	FLAT:$L240613
$T240637 DD	019930520H
	DD	01H
	DD	FLAT:$T240639
	DD	2 DUP(00H)
	DD	2 DUP(00H)
; Function compile flags: /Ogty
; File c:\documents and settings\test\mes documents\source\virtuos_v17\build\program\_common\respawn.cpp
xdata$x	ENDS
;	COMDAT ?Expand@CLayerdRespawner@@QAEXH@Z
_TEXT	SEGMENT
$T240611 = -28						; size = 8
$T240608 = -28						; size = 4
_i$ = -28						; size = 4
$T240612 = -20						; size = 8
__$EHRec$ = -12						; size = 12
_nLayer$ = 8						; size = 4
?Expand@CLayerdRespawner@@QAEXH@Z PROC NEAR		; CLayerdRespawner::Expand, COMDAT
; _this$ = ecx

; 722  : {

  00000	64 a1 00 00 00
	00		 mov	 eax, DWORD PTR fs:__except_list
  00006	6a ff		 push	 -1
  00008	68 00 00 00 00	 push	 __ehhandler$?Expand@CLayerdRespawner@@QAEXH@Z
  0000d	50		 push	 eax
  0000e	64 89 25 00 00
	00 00		 mov	 DWORD PTR fs:__except_list, esp
  00015	83 ec 10	 sub	 esp, 16			; 00000010H
  00018	56		 push	 esi
  00019	57		 push	 edi
  0001a	8b f1		 mov	 esi, ecx

; 723  : 	MRP::iterator i = m_mapRespawners.find( nLayer );

  0001c	8d 44 24 28	 lea	 eax, DWORD PTR _nLayer$[esp+32]
  00020	50		 push	 eax
  00021	8d 4c 24 0c	 lea	 ecx, DWORD PTR _i$[esp+40]
  00025	8d 7e 38	 lea	 edi, DWORD PTR [esi+56]
  00028	51		 push	 ecx
  00029	8b cf		 mov	 ecx, edi
  0002b	e8 00 00 00 00	 call	 ?find@?$_Tree@V?$_Tmap_traits@HPAVCRespawner@@U?$less@H@std@@V?$allocator@U?$pair@$$CBHPAVCRespawner@@@std@@@3@$0A@@std@@@std@@QAE?AViterator@12@ABH@Z ; std::_Tree<std::_Tmap_traits<int,CRespawner *,std::less<int>,std::allocator<std::pair<int const ,CRespawner *> >,0> >::find

; 724  : 	if( i == m_mapRespawners.end() )

  00030	8b 46 3c	 mov	 eax, DWORD PTR [esi+60]
  00033	39 44 24 08	 cmp	 DWORD PTR _i$[esp+36], eax
  00037	75 4e		 jne	 SHORT $L228895

; 725  : 	{
; 726  : 		CRespawner* pRespawner	= new CRespawner( m_proto );

  00039	6a 34		 push	 52			; 00000034H
  0003b	e8 00 00 00 00	 call	 ??2@YAPAXI@Z		; operator new
  00040	83 c4 04	 add	 esp, 4
  00043	89 44 24 08	 mov	 DWORD PTR $T240608[esp+36], eax
  00047	85 c0		 test	 eax, eax
  00049	c7 44 24 20 00
	00 00 00	 mov	 DWORD PTR __$EHRec$[esp+44], 0
  00051	74 0d		 je	 SHORT $L240609
  00053	83 c6 04	 add	 esi, 4
  00056	56		 push	 esi
  00057	8b c8		 mov	 ecx, eax
  00059	e8 00 00 00 00	 call	 ??0CRespawner@@QAE@ABV0@@Z ; CRespawner::CRespawner
  0005e	eb 02		 jmp	 SHORT $L240610
$L240609:
  00060	33 c0		 xor	 eax, eax
$L240610:

; 727  : 		bool bResult	= m_mapRespawners.insert( MRP::value_type( nLayer, pRespawner ) ).second;

  00062	8b 54 24 28	 mov	 edx, DWORD PTR _nLayer$[esp+32]
  00066	89 44 24 0c	 mov	 DWORD PTR $T240611[esp+40], eax
  0006a	8d 44 24 08	 lea	 eax, DWORD PTR $T240611[esp+36]
  0006e	50		 push	 eax
  0006f	8d 4c 24 14	 lea	 ecx, DWORD PTR $T240612[esp+40]
  00073	51		 push	 ecx
  00074	8b cf		 mov	 ecx, edi
  00076	c7 44 24 28 ff
	ff ff ff	 mov	 DWORD PTR __$EHRec$[esp+52], -1
  0007e	89 54 24 10	 mov	 DWORD PTR $T240611[esp+44], edx
  00082	e8 00 00 00 00	 call	 ?insert@?$_Tree@V?$_Tmap_traits@HPAVCRespawner@@U?$less@H@std@@V?$allocator@U?$pair@$$CBHPAVCRespawner@@@std@@@3@$0A@@std@@@std@@QAE?AU?$pair@Viterator@?$_Tree@V?$_Tmap_traits@HPAVCRespawner@@U?$less@H@std@@V?$allocator@U?$pair@$$CBHPAVCRespawner@@@std@@@3@$0A@@std@@@std@@_N@2@ABU?$pair@$$CBHPAVCRespawner@@@2@@Z ; std::_Tree<std::_Tmap_traits<int,CRespawner *,std::less<int>,std::allocator<std::pair<int const ,CRespawner *> >,0> >::insert
$L228895:

; 728  : 	}
; 729  : }

  00087	8b 4c 24 18	 mov	 ecx, DWORD PTR __$EHRec$[esp+36]
  0008b	5f		 pop	 edi
  0008c	5e		 pop	 esi
  0008d	64 89 0d 00 00
	00 00		 mov	 DWORD PTR fs:__except_list, ecx
  00094	83 c4 1c	 add	 esp, 28			; 0000001cH
  00097	c2 04 00	 ret	 4
_TEXT	ENDS
;	COMDAT text$x
text$x	SEGMENT
$L240613:
  00000	8b 45 e4	 mov	 eax, DWORD PTR $T240608[ebp]
  00003	50		 push	 eax
  00004	e8 00 00 00 00	 call	 ??3@YAXPAX@Z		; operator delete
  00009	59		 pop	 ecx
  0000a	c3		 ret	 0
__ehhandler$?Expand@CLayerdRespawner@@QAEXH@Z:
  0000b	b8 00 00 00 00	 mov	 eax, OFFSET FLAT:$T240637
  00010	e9 00 00 00 00	 jmp	 ___CxxFrameHandler
text$x	ENDS
?Expand@CLayerdRespawner@@QAEXH@Z ENDP			; CLayerdRespawner::Expand
END
