; Listing generated by Microsoft (R) Optimizing Compiler Version 13.10.6030 

	TITLE	\Documents and Settings\test\Mes documents\Source\Virtuos_v17\Build\Program\_Common\ScriptLib.cpp
	.386P
include listing.inc
if @Version gt 510
.model FLAT
else
_TEXT	SEGMENT PARA USE32 PUBLIC 'CODE'
_TEXT	ENDS
_DATA	SEGMENT DWORD USE32 PUBLIC 'DATA'
_DATA	ENDS
CONST	SEGMENT DWORD USE32 PUBLIC 'CONST'
CONST	ENDS
_BSS	SEGMENT PARA USE32 PUBLIC 'BSS'
_BSS	ENDS
$$SYMBOLS	SEGMENT BYTE USE32 'DEBSYM'
$$SYMBOLS	ENDS
$$TYPES	SEGMENT BYTE USE32 'DEBTYP'
$$TYPES	ENDS
_TLS	SEGMENT DWORD USE32 PUBLIC 'TLS'
_TLS	ENDS
;	COMDAT ??_C@_0BH@FELBGDKJ@key?5error?5AddKey?5?$CFs?5?$CFs?$AA@
CONST	SEGMENT DWORD USE32 PUBLIC 'CONST'
CONST	ENDS
;	COMDAT ??_C@_0BA@MDIEKFBJ@key?5error?5?$CFs?5?$CFs?$AA@
CONST	SEGMENT DWORD USE32 PUBLIC 'CONST'
CONST	ENDS
;	COMDAT ??_C@_0BK@FOCLNIMB@key?5error?5AddAnswer?5?$CFs?5?$CFs?$AA@
CONST	SEGMENT DWORD USE32 PUBLIC 'CONST'
CONST	ENDS
;	COMDAT ??_C@_0BM@FLHIHMMM@key?5error?5AddQuestKey?5?$CFs?5?$CFs?$AA@
CONST	SEGMENT DWORD USE32 PUBLIC 'CONST'
CONST	ENDS
;	COMDAT ??_C@_0BE@JGJACHAB@Error?5ChangeJob?5?3?51?$AA@
CONST	SEGMENT DWORD USE32 PUBLIC 'CONST'
CONST	ENDS
;	COMDAT ??_C@_0BE@LNLNHEMC@Error?5ChangeJob?5?3?52?$AA@
CONST	SEGMENT DWORD USE32 PUBLIC 'CONST'
CONST	ENDS
;	COMDAT ??_C@_0BE@KEKGEFID@Error?5ChangeJob?5?3?53?$AA@
CONST	SEGMENT DWORD USE32 PUBLIC 'CONST'
CONST	ENDS
;	COMDAT ??_C@_0CH@NIAJEEOE@Error?5ChangeJob?5?3?5CMover?3?3AddCha@
CONST	SEGMENT DWORD USE32 PUBLIC 'CONST'
CONST	ENDS
;	COMDAT ??_C@_01BNIGIBBF@Q?$AA@
CONST	SEGMENT DWORD USE32 PUBLIC 'CONST'
CONST	ENDS
;	COMDAT ??_C@_05GFPLGFAD@QUEST?$AA@
CONST	SEGMENT DWORD USE32 PUBLIC 'CONST'
CONST	ENDS
;	COMDAT ??_C@_0BE@ICMDEENE@EquipItem?5SetIndex?6?$AA@
CONST	SEGMENT DWORD USE32 PUBLIC 'CONST'
CONST	ENDS
;	COMDAT ??_C@_04OEDFLLKD@?$CC?$CFs?$CC?$AA@
CONST	SEGMENT DWORD USE32 PUBLIC 'CONST'
CONST	ENDS
;	COMDAT ??_C@_0BI@KEOMPJDK@DropQuestItem?5SetIndex?6?$AA@
CONST	SEGMENT DWORD USE32 PUBLIC 'CONST'
CONST	ENDS
;	COMDAT ??_C@_0BM@IKAGMOLM@DropQuestItem?0?5?$CFd?5null?5prop?$AA@
CONST	SEGMENT DWORD USE32 PUBLIC 'CONST'
CONST	ENDS
xdata$x	SEGMENT DWORD USE32 PUBLIC 'CONST'
xdata$x	ENDS
text$AFX_COL1	SEGMENT PARA USE32 PUBLIC ''
text$AFX_COL1	ENDS
;	COMDAT ?IsMember@CParty@@QAEHK@Z
_TEXT	SEGMENT PARA USE32 PUBLIC 'CODE'
_TEXT	ENDS
;	COMDAT ?IsLeader@CParty@@QAEHK@Z
_TEXT	SEGMENT PARA USE32 PUBLIC 'CODE'
_TEXT	ENDS
;	COMDAT ?GetSizeofMember@CParty@@QAEHXZ
_TEXT	SEGMENT PARA USE32 PUBLIC 'CODE'
_TEXT	ENDS
;	COMDAT ?GetLevel@CParty@@QAEHXZ
_TEXT	SEGMENT PARA USE32 PUBLIC 'CODE'
_TEXT	ENDS
;	COMDAT ?GetPlayerId@CParty@@QAEKH@Z
_TEXT	SEGMENT PARA USE32 PUBLIC 'CODE'
_TEXT	ENDS
;	COMDAT ??0_GUILD_MEMBER_INFO@@QAE@XZ
_TEXT	SEGMENT PARA USE32 PUBLIC 'CODE'
_TEXT	ENDS
;	COMDAT ?IsMember@CGuild@@QAEHK@Z
_TEXT	SEGMENT PARA USE32 PUBLIC 'CODE'
_TEXT	ENDS
;	COMDAT ?IsMaster@CGuild@@QAEHK@Z
_TEXT	SEGMENT PARA USE32 PUBLIC 'CODE'
_TEXT	ENDS
;	COMDAT ?GetQuest@CGuild@@QAEPAU_GUILDQUEST@@H@Z
_TEXT	SEGMENT PARA USE32 PUBLIC 'CODE'
_TEXT	ENDS
;	COMDAT ?SelectMemberClear@__GuildCombatMember@CGuildCombat@@QAEXXZ
_TEXT	SEGMENT PARA USE32 PUBLIC 'CODE'
_TEXT	ENDS
;	COMDAT ??0__MINIGAME_PACKET@@QAE@GHHH@Z
_TEXT	SEGMENT PARA USE32 PUBLIC 'CODE'
_TEXT	ENDS
;	COMDAT ?Serialize@__MINIGAME_PACKET@@UAEXAAVCAr@@@Z
_TEXT	SEGMENT PARA USE32 PUBLIC 'CODE'
_TEXT	ENDS
;	COMDAT ?Serialize@__MINIGAME_EXT_PACKET@@UAEXAAVCAr@@@Z
_TEXT	SEGMENT PARA USE32 PUBLIC 'CODE'
_TEXT	ENDS
;	COMDAT ??0MINIGMAME_PRIZE_LIST@CRainbowRaceMng@@QAE@KHK@Z
_TEXT	SEGMENT PARA USE32 PUBLIC 'CODE'
_TEXT	ENDS
;	COMDAT ?RemovePlayerId2CampusId@CCampusMng@@QAEXK@Z
_TEXT	SEGMENT PARA USE32 PUBLIC 'CODE'
_TEXT	ENDS
;	COMDAT ?GetPacketSize@CBuffer2@@UAEKPAE@Z
_TEXT	SEGMENT PARA USE32 PUBLIC 'CODE'
_TEXT	ENDS
;	COMDAT ?SetHeader@CBuffer2@@UAEXK@Z
_TEXT	SEGMENT PARA USE32 PUBLIC 'CODE'
_TEXT	ENDS
;	COMDAT ??_GCBuffer2@@UAEPAXI@Z
_TEXT	SEGMENT PARA USE32 PUBLIC 'CODE'
_TEXT	ENDS
;	COMDAT ??1CBuffer2@@UAE@XZ
_TEXT	SEGMENT PARA USE32 PUBLIC 'CODE'
_TEXT	ENDS
;	COMDAT ?IsEmpty@CBufferQueue@@QAEHXZ
_TEXT	SEGMENT PARA USE32 PUBLIC 'CODE'
_TEXT	ENDS
;	COMDAT ??1CMapChild@@UAE@XZ
_TEXT	SEGMENT PARA USE32 PUBLIC 'CODE'
_TEXT	ENDS
;	COMDAT ??_GCMapChild@@UAEPAXI@Z
_TEXT	SEGMENT PARA USE32 PUBLIC 'CODE'
_TEXT	ENDS
;	COMDAT ??1?$map@KPAVCClientSock@@U?$less@K@std@@V?$allocator@U?$pair@$$CBKPAVCClientSock@@@std@@@3@@std@@QAE@XZ
_TEXT	SEGMENT PARA USE32 PUBLIC 'CODE'
_TEXT	ENDS
;	COMDAT ??1CMapChildE@@UAE@XZ
_TEXT	SEGMENT PARA USE32 PUBLIC 'CODE'
_TEXT	ENDS
;	COMDAT ??_GCMapChildE@@UAEPAXI@Z
_TEXT	SEGMENT PARA USE32 PUBLIC 'CODE'
_TEXT	ENDS
;	COMDAT ??1?$map@KPAVCClientSockE@@U?$less@K@std@@V?$allocator@U?$pair@$$CBKPAVCClientSockE@@@std@@@3@@std@@QAE@XZ
_TEXT	SEGMENT PARA USE32 PUBLIC 'CODE'
_TEXT	ENDS
;	COMDAT ?GetRecvHandle@CDPSock@@QAEPAXXZ
_TEXT	SEGMENT PARA USE32 PUBLIC 'CODE'
_TEXT	ENDS
;	COMDAT ?HasKey@@YAHPAUNPCDIALOG_INFO@@PBD@Z
_TEXT	SEGMENT PARA USE32 PUBLIC 'CODE'
_TEXT	ENDS
;	COMDAT ?SayName@@YGHPAUNPCDIALOG_INFO@@@Z
_TEXT	SEGMENT PARA USE32 PUBLIC 'CODE'
_TEXT	ENDS
;	COMDAT ?Speak@@YGHPAUNPCDIALOG_INFO@@HPBD@Z
_TEXT	SEGMENT PARA USE32 PUBLIC 'CODE'
_TEXT	ENDS
;	COMDAT ?SpeakName@@YGHPAUNPCDIALOG_INFO@@@Z
_TEXT	SEGMENT PARA USE32 PUBLIC 'CODE'
_TEXT	ENDS
;	COMDAT ?GetVal@@YGHPAUNPCDIALOG_INFO@@@Z
_TEXT	SEGMENT PARA USE32 PUBLIC 'CODE'
_TEXT	ENDS
;	COMDAT ?GetSrcId@@YGHPAUNPCDIALOG_INFO@@@Z
_TEXT	SEGMENT PARA USE32 PUBLIC 'CODE'
_TEXT	ENDS
;	COMDAT ?GetDstId@@YGHPAUNPCDIALOG_INFO@@@Z
_TEXT	SEGMENT PARA USE32 PUBLIC 'CODE'
_TEXT	ENDS
;	COMDAT ?NpcId@@YGHPAUNPCDIALOG_INFO@@@Z
_TEXT	SEGMENT PARA USE32 PUBLIC 'CODE'
_TEXT	ENDS
;	COMDAT ?PcId@@YGHPAUNPCDIALOG_INFO@@@Z
_TEXT	SEGMENT PARA USE32 PUBLIC 'CODE'
_TEXT	ENDS
;	COMDAT ?GetGValue_@@YGHPAUNPCDIALOG_INFO@@@Z
_TEXT	SEGMENT PARA USE32 PUBLIC 'CODE'
_TEXT	ENDS
;	COMDAT ?SetGValue@@YGHPAUNPCDIALOG_INFO@@@Z
_TEXT	SEGMENT PARA USE32 PUBLIC 'CODE'
_TEXT	ENDS
;	COMDAT ?AddGValue@@YGHPAUNPCDIALOG_INFO@@@Z
_TEXT	SEGMENT PARA USE32 PUBLIC 'CODE'
_TEXT	ENDS
;	COMDAT ?AddKey@@YGHPAUNPCDIALOG_INFO@@PBD1K@Z
_TEXT	SEGMENT PARA USE32 PUBLIC 'CODE'
_TEXT	ENDS
;	COMDAT ?AddCondKey@@YGHPAUNPCDIALOG_INFO@@PBD1K@Z
_TEXT	SEGMENT PARA USE32 PUBLIC 'CODE'
_TEXT	ENDS
;	COMDAT ?AddAnswer@@YGHPAUNPCDIALOG_INFO@@PBD1K@Z
_TEXT	SEGMENT PARA USE32 PUBLIC 'CODE'
_TEXT	ENDS
;	COMDAT ?RemoveQuest@@YGHPAUNPCDIALOG_INFO@@H@Z
_TEXT	SEGMENT PARA USE32 PUBLIC 'CODE'
_TEXT	ENDS
;	COMDAT ?RemoveAllKey@@YGHPAUNPCDIALOG_INFO@@@Z
_TEXT	SEGMENT PARA USE32 PUBLIC 'CODE'
_TEXT	ENDS
;	COMDAT ?SayQuest@@YGHPAUNPCDIALOG_INFO@@HH@Z
_TEXT	SEGMENT PARA USE32 PUBLIC 'CODE'
_TEXT	ENDS
;	COMDAT ?BeginQuest@@YGHPAUNPCDIALOG_INFO@@H@Z
_TEXT	SEGMENT PARA USE32 PUBLIC 'CODE'
_TEXT	ENDS
;	COMDAT ?EndQuest@@YGHPAUNPCDIALOG_INFO@@H@Z
_TEXT	SEGMENT PARA USE32 PUBLIC 'CODE'
_TEXT	ENDS
;	COMDAT ?AddQuestKey@@YGHPAUNPCDIALOG_INFO@@HPBD@Z
_TEXT	SEGMENT PARA USE32 PUBLIC 'CODE'
_TEXT	ENDS
;	COMDAT ?CreateMover@@YGHPAUNPCDIALOG_INFO@@@Z
_TEXT	SEGMENT PARA USE32 PUBLIC 'CODE'
_TEXT	ENDS
;	COMDAT ?CreateChar@@YGHPAUNPCDIALOG_INFO@@@Z
_TEXT	SEGMENT PARA USE32 PUBLIC 'CODE'
_TEXT	ENDS
;	COMDAT ?RemoveMover@@YGHPAUNPCDIALOG_INFO@@@Z
_TEXT	SEGMENT PARA USE32 PUBLIC 'CODE'
_TEXT	ENDS
;	COMDAT ?GetDay@@YGHPAUNPCDIALOG_INFO@@@Z
_TEXT	SEGMENT PARA USE32 PUBLIC 'CODE'
_TEXT	ENDS
;	COMDAT ?GetMin@@YGHPAUNPCDIALOG_INFO@@@Z
_TEXT	SEGMENT PARA USE32 PUBLIC 'CODE'
_TEXT	ENDS
;	COMDAT ?GetHour@@YGHPAUNPCDIALOG_INFO@@@Z
_TEXT	SEGMENT PARA USE32 PUBLIC 'CODE'
_TEXT	ENDS
;	COMDAT ?SetTimer@@YGHPAUNPCDIALOG_INFO@@@Z
_TEXT	SEGMENT PARA USE32 PUBLIC 'CODE'
_TEXT	ENDS
;	COMDAT ?IsTimeOut@@YGHPAUNPCDIALOG_INFO@@@Z
_TEXT	SEGMENT PARA USE32 PUBLIC 'CODE'
_TEXT	ENDS
;	COMDAT ?LaunchQuest@@YGHPAUNPCDIALOG_INFO@@@Z
_TEXT	SEGMENT PARA USE32 PUBLIC 'CODE'
_TEXT	ENDS
;	COMDAT ?GetEmptyInventoryNum@@YGHPAUNPCDIALOG_INFO@@@Z
_TEXT	SEGMENT PARA USE32 PUBLIC 'CODE'
_TEXT	ENDS
;	COMDAT ?GetQuestState@@YGHPAUNPCDIALOG_INFO@@H@Z
_TEXT	SEGMENT PARA USE32 PUBLIC 'CODE'
_TEXT	ENDS
;	COMDAT ?IsSetQuest@@YGHPAUNPCDIALOG_INFO@@H@Z
_TEXT	SEGMENT PARA USE32 PUBLIC 'CODE'
_TEXT	ENDS
;	COMDAT ?SetMark@@YGHPAUNPCDIALOG_INFO@@@Z
_TEXT	SEGMENT PARA USE32 PUBLIC 'CODE'
_TEXT	ENDS
;	COMDAT ?GoMark@@YGHPAUNPCDIALOG_INFO@@@Z
_TEXT	SEGMENT PARA USE32 PUBLIC 'CODE'
_TEXT	ENDS
;	COMDAT ?RandomIndex@@YGHPAUNPCDIALOG_INFO@@@Z
_TEXT	SEGMENT PARA USE32 PUBLIC 'CODE'
_TEXT	ENDS
;	COMDAT ?RemoveKey@@YGHPAUNPCDIALOG_INFO@@PBD@Z
_TEXT	SEGMENT PARA USE32 PUBLIC 'CODE'
_TEXT	ENDS
;	COMDAT ??0_runscriptfunc@@QAE@XZ
_TEXT	SEGMENT PARA USE32 PUBLIC 'CODE'
_TEXT	ENDS
;	COMDAT ?Say@@YGHPAUNPCDIALOG_INFO@@PBD@Z
_TEXT	SEGMENT PARA USE32 PUBLIC 'CODE'
_TEXT	ENDS
;	COMDAT ?EndSay@@YGHPAUNPCDIALOG_INFO@@@Z
_TEXT	SEGMENT PARA USE32 PUBLIC 'CODE'
_TEXT	ENDS
;	COMDAT ?Random@@YGHPAUNPCDIALOG_INFO@@H@Z
_TEXT	SEGMENT PARA USE32 PUBLIC 'CODE'
_TEXT	ENDS
;	COMDAT ?Exit@@YGHPAUNPCDIALOG_INFO@@@Z
_TEXT	SEGMENT PARA USE32 PUBLIC 'CODE'
_TEXT	ENDS
;	COMDAT ?SetScriptTimer@@YGHPAUNPCDIALOG_INFO@@H@Z
_TEXT	SEGMENT PARA USE32 PUBLIC 'CODE'
_TEXT	ENDS
;	COMDAT ?Replace@@YGHPAUNPCDIALOG_INFO@@HMMM@Z
_TEXT	SEGMENT PARA USE32 PUBLIC 'CODE'
_TEXT	ENDS
;	COMDAT ?ReplaceKey@@YGHPAUNPCDIALOG_INFO@@HPBD@Z
_TEXT	SEGMENT PARA USE32 PUBLIC 'CODE'
_TEXT	ENDS
;	COMDAT ?GetPlayerLvl@@YGHPAUNPCDIALOG_INFO@@@Z
_TEXT	SEGMENT PARA USE32 PUBLIC 'CODE'
_TEXT	ENDS
;	COMDAT ?GetPlayerJob@@YGHPAUNPCDIALOG_INFO@@@Z
_TEXT	SEGMENT PARA USE32 PUBLIC 'CODE'
_TEXT	ENDS
;	COMDAT ?IsGuildQuest@@YGHPAUNPCDIALOG_INFO@@H@Z
_TEXT	SEGMENT PARA USE32 PUBLIC 'CODE'
_TEXT	ENDS
;	COMDAT ?GetGuildQuestState@@YGHPAUNPCDIALOG_INFO@@H@Z
_TEXT	SEGMENT PARA USE32 PUBLIC 'CODE'
_TEXT	ENDS
;	COMDAT ?IsWormonServer@@YGHPAUNPCDIALOG_INFO@@@Z
_TEXT	SEGMENT PARA USE32 PUBLIC 'CODE'
_TEXT	ENDS
;	COMDAT ?PrintSystemMessage@@YGHPAUNPCDIALOG_INFO@@H@Z
_TEXT	SEGMENT PARA USE32 PUBLIC 'CODE'
_TEXT	ENDS
;	COMDAT ?MonHuntStart@@YGHPAUNPCDIALOG_INFO@@HHHH@Z
_TEXT	SEGMENT PARA USE32 PUBLIC 'CODE'
_TEXT	ENDS
;	COMDAT ?MonHuntStartParty@@YGHPAUNPCDIALOG_INFO@@HHHH@Z
_TEXT	SEGMENT PARA USE32 PUBLIC 'CODE'
_TEXT	ENDS
;	COMDAT ?InitStat@@YGHPAUNPCDIALOG_INFO@@@Z
_TEXT	SEGMENT PARA USE32 PUBLIC 'CODE'
_TEXT	ENDS
;	COMDAT ?InitStr@@YGHPAUNPCDIALOG_INFO@@@Z
_TEXT	SEGMENT PARA USE32 PUBLIC 'CODE'
_TEXT	ENDS
;	COMDAT ?InitSta@@YGHPAUNPCDIALOG_INFO@@@Z
_TEXT	SEGMENT PARA USE32 PUBLIC 'CODE'
_TEXT	ENDS
;	COMDAT ?InitDex@@YGHPAUNPCDIALOG_INFO@@@Z
_TEXT	SEGMENT PARA USE32 PUBLIC 'CODE'
_TEXT	ENDS
;	COMDAT ?InitInt@@YGHPAUNPCDIALOG_INFO@@@Z
_TEXT	SEGMENT PARA USE32 PUBLIC 'CODE'
_TEXT	ENDS
;	COMDAT ?SetQuestState@@YGHPAUNPCDIALOG_INFO@@HH@Z
_TEXT	SEGMENT PARA USE32 PUBLIC 'CODE'
_TEXT	ENDS
;	COMDAT ?SetQuest@@YGHPAUNPCDIALOG_INFO@@H@Z
_TEXT	SEGMENT PARA USE32 PUBLIC 'CODE'
_TEXT	ENDS
;	COMDAT ?CreateItem@@YGHPAUNPCDIALOG_INFO@@KH@Z
_TEXT	SEGMENT PARA USE32 PUBLIC 'CODE'
_TEXT	ENDS
;	COMDAT ?AddGold@@YGHPAUNPCDIALOG_INFO@@H@Z
_TEXT	SEGMENT PARA USE32 PUBLIC 'CODE'
_TEXT	ENDS
;	COMDAT ?RemoveGold@@YGHPAUNPCDIALOG_INFO@@H@Z
_TEXT	SEGMENT PARA USE32 PUBLIC 'CODE'
_TEXT	ENDS
;	COMDAT ?GetPlayerGold@@YGHPAUNPCDIALOG_INFO@@@Z
_TEXT	SEGMENT PARA USE32 PUBLIC 'CODE'
_TEXT	ENDS
;	COMDAT ?GetLocalEventState@@YGHPAUNPCDIALOG_INFO@@H@Z
_TEXT	SEGMENT PARA USE32 PUBLIC 'CODE'
_TEXT	ENDS
;	COMDAT ?AddExp@@YGHPAUNPCDIALOG_INFO@@H@Z
_TEXT	SEGMENT PARA USE32 PUBLIC 'CODE'
_TEXT	ENDS
;	COMDAT ?IsParty@@YGHPAUNPCDIALOG_INFO@@@Z
_TEXT	SEGMENT PARA USE32 PUBLIC 'CODE'
_TEXT	ENDS
;	COMDAT ?IsPartyMaster@@YGHPAUNPCDIALOG_INFO@@@Z
_TEXT	SEGMENT PARA USE32 PUBLIC 'CODE'
_TEXT	ENDS
;	COMDAT ?GetPartyNum@@YGHPAUNPCDIALOG_INFO@@@Z
_TEXT	SEGMENT PARA USE32 PUBLIC 'CODE'
_TEXT	ENDS
;	COMDAT ?GetPartyLevel@@YGHPAUNPCDIALOG_INFO@@@Z
_TEXT	SEGMENT PARA USE32 PUBLIC 'CODE'
_TEXT	ENDS
;	COMDAT ?IsPartyGuild@@YGHPAUNPCDIALOG_INFO@@@Z
_TEXT	SEGMENT PARA USE32 PUBLIC 'CODE'
_TEXT	ENDS
;	COMDAT ?IsGuild@@YGHPAUNPCDIALOG_INFO@@@Z
_TEXT	SEGMENT PARA USE32 PUBLIC 'CODE'
_TEXT	ENDS
;	COMDAT ?IsGuildMaster@@YGHPAUNPCDIALOG_INFO@@@Z
_TEXT	SEGMENT PARA USE32 PUBLIC 'CODE'
_TEXT	ENDS
;	COMDAT ?CreateGuild@@YGHPAUNPCDIALOG_INFO@@@Z
_TEXT	SEGMENT PARA USE32 PUBLIC 'CODE'
_TEXT	ENDS
;	COMDAT ?DestroyGuild@@YGHPAUNPCDIALOG_INFO@@@Z
_TEXT	SEGMENT PARA USE32 PUBLIC 'CODE'
_TEXT	ENDS
;	COMDAT ?IsPlayerSkillPoint@@YGHPAUNPCDIALOG_INFO@@@Z
_TEXT	SEGMENT PARA USE32 PUBLIC 'CODE'
_TEXT	ENDS
;	COMDAT ?ChangeJob@@YGHPAUNPCDIALOG_INFO@@H@Z
_TEXT	SEGMENT PARA USE32 PUBLIC 'CODE'
_TEXT	ENDS
;	COMDAT ?GetPlayerSex@@YGHPAUNPCDIALOG_INFO@@@Z
_TEXT	SEGMENT PARA USE32 PUBLIC 'CODE'
_TEXT	ENDS
;	COMDAT ?GetItemNum@@YGHPAUNPCDIALOG_INFO@@K@Z
_TEXT	SEGMENT PARA USE32 PUBLIC 'CODE'
_TEXT	ENDS
;	COMDAT ?RemoveAllItem@@YGHPAUNPCDIALOG_INFO@@K@Z
_TEXT	SEGMENT PARA USE32 PUBLIC 'CODE'
_TEXT	ENDS
;	COMDAT ?EquipItem@@YGHPAUNPCDIALOG_INFO@@K@Z
_TEXT	SEGMENT PARA USE32 PUBLIC 'CODE'
_TEXT	ENDS
;	COMDAT ?PlaySoundA@@YGHPAUNPCDIALOG_INFO@@PBD@Z
_TEXT	SEGMENT PARA USE32 PUBLIC 'CODE'
_TEXT	ENDS
;	COMDAT ?DropQuestItem@@YGHPAUNPCDIALOG_INFO@@KK@Z
_TEXT	SEGMENT PARA USE32 PUBLIC 'CODE'
_TEXT	ENDS
;	COMDAT ?ExpQuestEffect@@YGHPAUNPCDIALOG_INFO@@KH@Z
_TEXT	SEGMENT PARA USE32 PUBLIC 'CODE'
_TEXT	ENDS
;	COMDAT ?RemoveItem@@YGHPAUNPCDIALOG_INFO@@KH@Z
_TEXT	SEGMENT PARA USE32 PUBLIC 'CODE'
_TEXT	ENDS
;	COMDAT ?Run@@YGHPAUNPCDIALOG_INFO@@PBDH@Z
_TEXT	SEGMENT PARA USE32 PUBLIC 'CODE'
_TEXT	ENDS
;	COMDAT ?GetQuestId@@YGHPAUNPCDIALOG_INFO@@@Z
_TEXT	SEGMENT PARA USE32 PUBLIC 'CODE'
_TEXT	ENDS
;	COMDAT ?GetLang@@YGHPAUNPCDIALOG_INFO@@@Z
_TEXT	SEGMENT PARA USE32 PUBLIC 'CODE'
_TEXT	ENDS
;	COMDAT ?QuerySetPlayerName@@YGHPAUNPCDIALOG_INFO@@@Z
_TEXT	SEGMENT PARA USE32 PUBLIC 'CODE'
_TEXT	ENDS
;	COMDAT ?Trace@@YGHPAUNPCDIALOG_INFO@@PBD@Z
_TEXT	SEGMENT PARA USE32 PUBLIC 'CODE'
_TEXT	ENDS
;	COMDAT ?GetPlayerExpPercent@@YGHPAUNPCDIALOG_INFO@@@Z
_TEXT	SEGMENT PARA USE32 PUBLIC 'CODE'
_TEXT	ENDS
;	COMDAT ?SetLevel@@YGHPAUNPCDIALOG_INFO@@H@Z
_TEXT	SEGMENT PARA USE32 PUBLIC 'CODE'
_TEXT	ENDS
;	COMDAT ?AddGPPoint@@YGHPAUNPCDIALOG_INFO@@H@Z
_TEXT	SEGMENT PARA USE32 PUBLIC 'CODE'
_TEXT	ENDS
;	COMDAT ?GetDialogFunctions@@YAPAUFunctions@@XZ
_TEXT	SEGMENT PARA USE32 PUBLIC 'CODE'
_TEXT	ENDS
;	COMDAT ?InitDialogFunctions@@YAXXZ
_TEXT	SEGMENT PARA USE32 PUBLIC 'CODE'
_TEXT	ENDS
;	COMDAT ?Format@?$CStringT@DV?$StrTraitMFC@DV?$ChTraitsCRT@D@ATL@@@@@ATL@@QAAXPBDZZ
_TEXT	SEGMENT PARA USE32 PUBLIC 'CODE'
_TEXT	ENDS
;	COMDAT ?IsEmpty@?$CSimpleStringT@D$0A@@ATL@@QBE_NXZ
_TEXT	SEGMENT PARA USE32 PUBLIC 'CODE'
_TEXT	ENDS
;	COMDAT ?compare@?$basic_string@DU?$char_traits@D@std@@V?$allocator@D@2@@std@@QBEHABV12@@Z
_TEXT	SEGMENT PARA USE32 PUBLIC 'CODE'
_TEXT	ENDS
;	COMDAT ?IsFull@?$CStack@K@@QAEHXZ
_TEXT	SEGMENT PARA USE32 PUBLIC 'CODE'
_TEXT	ENDS
;	COMDAT ??A?$map@KPAVCCtrl@@U?$less@K@std@@V?$allocator@U?$pair@$$CBKPAVCCtrl@@@std@@@3@@std@@QAEAAPAVCCtrl@@ABK@Z
_TEXT	SEGMENT PARA USE32 PUBLIC 'CODE'
_TEXT	ENDS
;	COMDAT ??0?$pair@KPAVCCtrl@@@std@@QAE@ABKABQAVCCtrl@@@Z
_TEXT	SEGMENT PARA USE32 PUBLIC 'CODE'
_TEXT	ENDS
;	COMDAT ?size@?$vector@UWORMON@@V?$allocator@UWORMON@@@std@@@std@@QBEIXZ
_TEXT	SEGMENT PARA USE32 PUBLIC 'CODE'
_TEXT	ENDS
;	COMDAT ??A?$vector@UWORMON@@V?$allocator@UWORMON@@@std@@@std@@QAEAAUWORMON@@I@Z
_TEXT	SEGMENT PARA USE32 PUBLIC 'CODE'
_TEXT	ENDS
;	COMDAT ?GetMax@?$CItemContainer@VCItemElem@@@@QAEHXZ
_TEXT	SEGMENT PARA USE32 PUBLIC 'CODE'
_TEXT	ENDS
;	COMDAT ?GetEmptyCount@?$CItemContainer@VCItemElem@@@@QAEHXZ
_TEXT	SEGMENT PARA USE32 PUBLIC 'CODE'
_TEXT	ENDS
;	COMDAT ??0?$deque@PAUtagACTMSG@@V?$allocator@PAUtagACTMSG@@@std@@@std@@QAE@XZ
_TEXT	SEGMENT PARA USE32 PUBLIC 'CODE'
_TEXT	ENDS
;	COMDAT ??1?$deque@PAUtagACTMSG@@V?$allocator@PAUtagACTMSG@@@std@@@std@@QAE@XZ
_TEXT	SEGMENT PARA USE32 PUBLIC 'CODE'
_TEXT	ENDS
;	COMDAT ?begin@?$deque@PAUtagACTMSG@@V?$allocator@PAUtagACTMSG@@@std@@@std@@QAE?AViterator@12@XZ
_TEXT	SEGMENT PARA USE32 PUBLIC 'CODE'
_TEXT	ENDS
;	COMDAT ?end@?$deque@PAUtagACTMSG@@V?$allocator@PAUtagACTMSG@@@std@@@std@@QAE?AViterator@12@XZ
_TEXT	SEGMENT PARA USE32 PUBLIC 'CODE'
_TEXT	ENDS
;	COMDAT ?empty@?$deque@PAUtagACTMSG@@V?$allocator@PAUtagACTMSG@@@std@@@std@@QBE_NXZ
_TEXT	SEGMENT PARA USE32 PUBLIC 'CODE'
_TEXT	ENDS
;	COMDAT ?clear@?$deque@PAUtagACTMSG@@V?$allocator@PAUtagACTMSG@@@std@@@std@@QAEXXZ
_TEXT	SEGMENT PARA USE32 PUBLIC 'CODE'
_TEXT	ENDS
;	COMDAT ??0?$deque@PAUtagMAGICATKMSG@@V?$allocator@PAUtagMAGICATKMSG@@@std@@@std@@QAE@XZ
_TEXT	SEGMENT PARA USE32 PUBLIC 'CODE'
_TEXT	ENDS
;	COMDAT ??1?$deque@PAUtagMAGICATKMSG@@V?$allocator@PAUtagMAGICATKMSG@@@std@@@std@@QAE@XZ
_TEXT	SEGMENT PARA USE32 PUBLIC 'CODE'
_TEXT	ENDS
;	COMDAT ?begin@?$deque@PAUtagMAGICATKMSG@@V?$allocator@PAUtagMAGICATKMSG@@@std@@@std@@QAE?AViterator@12@XZ
_TEXT	SEGMENT PARA USE32 PUBLIC 'CODE'
_TEXT	ENDS
;	COMDAT ?end@?$deque@PAUtagMAGICATKMSG@@V?$allocator@PAUtagMAGICATKMSG@@@std@@@std@@QAE?AViterator@12@XZ
_TEXT	SEGMENT PARA USE32 PUBLIC 'CODE'
_TEXT	ENDS
;	COMDAT ?empty@?$deque@PAUtagMAGICATKMSG@@V?$allocator@PAUtagMAGICATKMSG@@@std@@@std@@QBE_NXZ
_TEXT	SEGMENT PARA USE32 PUBLIC 'CODE'
_TEXT	ENDS
;	COMDAT ?clear@?$deque@PAUtagMAGICATKMSG@@V?$allocator@PAUtagMAGICATKMSG@@@std@@@std@@QAEXXZ
_TEXT	SEGMENT PARA USE32 PUBLIC 'CODE'
_TEXT	ENDS
;	COMDAT ??Diterator@?$deque@PAUtagACTMSG@@V?$allocator@PAUtagACTMSG@@@std@@@std@@QBEAAPAUtagACTMSG@@XZ
_TEXT	SEGMENT PARA USE32 PUBLIC 'CODE'
_TEXT	ENDS
;	COMDAT ??Eiterator@?$deque@PAUtagACTMSG@@V?$allocator@PAUtagACTMSG@@@std@@@std@@QAEAAV012@XZ
_TEXT	SEGMENT PARA USE32 PUBLIC 'CODE'
_TEXT	ENDS
;	COMDAT ??9const_iterator@?$deque@PAUtagACTMSG@@V?$allocator@PAUtagACTMSG@@@std@@@std@@QBE_NABV012@@Z
_TEXT	SEGMENT PARA USE32 PUBLIC 'CODE'
_TEXT	ENDS
;	COMDAT ??Diterator@?$deque@PAUtagMAGICATKMSG@@V?$allocator@PAUtagMAGICATKMSG@@@std@@@std@@QBEAAPAUtagMAGICATKMSG@@XZ
_TEXT	SEGMENT PARA USE32 PUBLIC 'CODE'
_TEXT	ENDS
;	COMDAT ??Eiterator@?$deque@PAUtagMAGICATKMSG@@V?$allocator@PAUtagMAGICATKMSG@@@std@@@std@@QAEAAV012@XZ
_TEXT	SEGMENT PARA USE32 PUBLIC 'CODE'
_TEXT	ENDS
;	COMDAT ??9const_iterator@?$deque@PAUtagMAGICATKMSG@@V?$allocator@PAUtagMAGICATKMSG@@@std@@@std@@QBE_NABV012@@Z
_TEXT	SEGMENT PARA USE32 PUBLIC 'CODE'
_TEXT	ENDS
;	COMDAT ?erase@?$_Tree@V?$_Tmap_traits@KU_Friend@@U?$less@K@std@@V?$allocator@U?$pair@$$CBKU_Friend@@@std@@@3@$0A@@std@@@std@@QAEIABK@Z
_TEXT	SEGMENT PARA USE32 PUBLIC 'CODE'
_TEXT	ENDS
;	COMDAT ?size@?$_Tree@V?$_Tmap_traits@KPAVCGuildMember@@U?$less@K@std@@V?$allocator@U?$pair@$$CBKPAVCGuildMember@@@std@@@3@$0A@@std@@@std@@QBEIXZ
_TEXT	SEGMENT PARA USE32 PUBLIC 'CODE'
_TEXT	ENDS
;	COMDAT ?size@?$_Tree@V?$_Tmap_traits@KPAVCGuild@@U?$less@K@std@@V?$allocator@U?$pair@$$CBKPAVCGuild@@@std@@@3@$0A@@std@@@std@@QBEIXZ
_TEXT	SEGMENT PARA USE32 PUBLIC 'CODE'
_TEXT	ENDS
;	COMDAT ?size@?$vector@PAU__JOINPLAYER@CGuildCombat@@V?$allocator@PAU__JOINPLAYER@CGuildCombat@@@std@@@std@@QBEIXZ
_TEXT	SEGMENT PARA USE32 PUBLIC 'CODE'
_TEXT	ENDS
;	COMDAT ??A?$vector@PAU__JOINPLAYER@CGuildCombat@@V?$allocator@PAU__JOINPLAYER@CGuildCombat@@@std@@@std@@QAEAAPAU__JOINPLAYER@CGuildCombat@@I@Z
_TEXT	SEGMENT PARA USE32 PUBLIC 'CODE'
_TEXT	ENDS
;	COMDAT ?clear@?$vector@PAU__JOINPLAYER@CGuildCombat@@V?$allocator@PAU__JOINPLAYER@CGuildCombat@@@std@@@std@@QAEXXZ
_TEXT	SEGMENT PARA USE32 PUBLIC 'CODE'
_TEXT	ENDS
;	COMDAT ?clear@?$list@PAU__JOINPLAYER@CGuildCombat@@V?$allocator@PAU__JOINPLAYER@CGuildCombat@@@std@@@std@@QAEXXZ
_TEXT	SEGMENT PARA USE32 PUBLIC 'CODE'
_TEXT	ENDS
;	COMDAT ?size@?$_Tree@V?$_Tmap_traits@KPAU_PlayerData@@U?$less@K@std@@V?$allocator@U?$pair@$$CBKPAU_PlayerData@@@std@@@3@$0A@@std@@@std@@QBEIXZ
_TEXT	SEGMENT PARA USE32 PUBLIC 'CODE'
_TEXT	ENDS
;	COMDAT ??0?$vector@U__SECRETROOM_MONSTER@@V?$allocator@U__SECRETROOM_MONSTER@@@std@@@std@@QAE@XZ
_TEXT	SEGMENT PARA USE32 PUBLIC 'CODE'
_TEXT	ENDS
;	COMDAT ??1?$vector@U__SECRETROOM_MONSTER@@V?$allocator@U__SECRETROOM_MONSTER@@@std@@@std@@QAE@XZ
_TEXT	SEGMENT PARA USE32 PUBLIC 'CODE'
_TEXT	ENDS
;	COMDAT ??0?$vector@V?$basic_string@DU?$char_traits@D@std@@V?$allocator@D@2@@std@@V?$allocator@V?$basic_string@DU?$char_traits@D@std@@V?$allocator@D@2@@std@@@2@@std@@QAE@XZ
_TEXT	SEGMENT PARA USE32 PUBLIC 'CODE'
_TEXT	ENDS
;	COMDAT ??1?$vector@V?$basic_string@DU?$char_traits@D@std@@V?$allocator@D@2@@std@@V?$allocator@V?$basic_string@DU?$char_traits@D@std@@V?$allocator@D@2@@std@@@2@@std@@QAE@XZ
_TEXT	SEGMENT PARA USE32 PUBLIC 'CODE'
_TEXT	ENDS
;	COMDAT ?size@?$vector@V?$basic_string@DU?$char_traits@D@std@@V?$allocator@D@2@@std@@V?$allocator@V?$basic_string@DU?$char_traits@D@std@@V?$allocator@D@2@@std@@@2@@std@@QBEIXZ
_TEXT	SEGMENT PARA USE32 PUBLIC 'CODE'
_TEXT	ENDS
;	COMDAT ??A?$vector@V?$basic_string@DU?$char_traits@D@std@@V?$allocator@D@2@@std@@V?$allocator@V?$basic_string@DU?$char_traits@D@std@@V?$allocator@D@2@@std@@@2@@std@@QAEAAV?$basic_string@DU?$char_traits@D@std@@V?$allocator@D@2@@1@I@Z
_TEXT	SEGMENT PARA USE32 PUBLIC 'CODE'
_TEXT	ENDS
;	COMDAT ?push_back@?$vector@V?$basic_string@DU?$char_traits@D@std@@V?$allocator@D@2@@std@@V?$allocator@V?$basic_string@DU?$char_traits@D@std@@V?$allocator@D@2@@std@@@2@@std@@QAEXABV?$basic_string@DU?$char_traits@D@std@@V?$allocator@D@2@@2@@Z
_TEXT	SEGMENT PARA USE32 PUBLIC 'CODE'
_TEXT	ENDS
;	COMDAT ?clear@?$vector@V?$basic_string@DU?$char_traits@D@std@@V?$allocator@D@2@@std@@V?$allocator@V?$basic_string@DU?$char_traits@D@std@@V?$allocator@D@2@@std@@@2@@std@@QAEXXZ
_TEXT	SEGMENT PARA USE32 PUBLIC 'CODE'
_TEXT	ENDS
;	COMDAT ?push_back@?$vector@UMINIGMAME_PRIZE_LIST@CRainbowRaceMng@@V?$allocator@UMINIGMAME_PRIZE_LIST@CRainbowRaceMng@@@std@@@std@@QAEXABUMINIGMAME_PRIZE_LIST@CRainbowRaceMng@@@Z
_TEXT	SEGMENT PARA USE32 PUBLIC 'CODE'
_TEXT	ENDS
;	COMDAT ?size@?$_Tree@V?$_Tmap_traits@KPAVCRainbowRace@@U?$less@K@std@@V?$allocator@U?$pair@$$CBKPAVCRainbowRace@@@std@@@3@$0A@@std@@@std@@QBEIXZ
_TEXT	SEGMENT PARA USE32 PUBLIC 'CODE'
_TEXT	ENDS
;	COMDAT ?size@?$vector@PAVCMiniGameBase@@V?$allocator@PAVCMiniGameBase@@@std@@@std@@QBEIXZ
_TEXT	SEGMENT PARA USE32 PUBLIC 'CODE'
_TEXT	ENDS
;	COMDAT ??A?$vector@PAVCMiniGameBase@@V?$allocator@PAVCMiniGameBase@@@std@@@std@@QAEAAPAVCMiniGameBase@@I@Z
_TEXT	SEGMENT PARA USE32 PUBLIC 'CODE'
_TEXT	ENDS
;	COMDAT ?size@?$vector@UGuildHouse_Furniture_Info@CGuildHouseBase@@V?$allocator@UGuildHouse_Furniture_Info@CGuildHouseBase@@@std@@@std@@QBEIXZ
_TEXT	SEGMENT PARA USE32 PUBLIC 'CODE'
_TEXT	ENDS
;	COMDAT ??A?$vector@UGuildHouse_Furniture_Info@CGuildHouseBase@@V?$allocator@UGuildHouse_Furniture_Info@CGuildHouseBase@@@std@@@std@@QAEAAUGuildHouse_Furniture_Info@CGuildHouseBase@@I@Z
_TEXT	SEGMENT PARA USE32 PUBLIC 'CODE'
_TEXT	ENDS
;	COMDAT ?empty@?$_Tree@V?$_Tmap_traits@KPAVCGuildHouseBase@@U?$less@K@std@@V?$allocator@U?$pair@$$CBKPAVCGuildHouseBase@@@std@@@3@$0A@@std@@@std@@QBE_NXZ
_TEXT	SEGMENT PARA USE32 PUBLIC 'CODE'
_TEXT	ENDS
;	COMDAT ?insert@?$_Tree@V?$_Tmap_traits@KPAVCGuildHouseBase@@U?$less@K@std@@V?$allocator@U?$pair@$$CBKPAVCGuildHouseBase@@@std@@@3@$0A@@std@@@std@@QAE?AU?$pair@Viterator@?$_Tree@V?$_Tmap_traits@KPAVCGuildHouseBase@@U?$less@K@std@@V?$allocator@U?$pair@$$CBKPAVCGuildHouseBase@@@std@@@3@$0A@@std@@@std@@_N@2@ABU?$pair@$$CBKPAVCGuildHouseBase@@@2@@Z
_TEXT	SEGMENT PARA USE32 PUBLIC 'CODE'
_TEXT	ENDS
;	COMDAT ?size@?$_Tree@V?$_Tmap_traits@KPAVCCampusMember@@U?$less@K@std@@V?$allocator@U?$pair@$$CBKPAVCCampusMember@@@std@@@3@$0A@@std@@@std@@QBEIXZ
_TEXT	SEGMENT PARA USE32 PUBLIC 'CODE'
_TEXT	ENDS
;	COMDAT ?empty@?$_Tree@V?$_Tmap_traits@KPAVCCampus@@U?$less@K@std@@V?$allocator@U?$pair@$$CBKPAVCCampus@@@std@@@3@$0A@@std@@@std@@QBE_NXZ
_TEXT	SEGMENT PARA USE32 PUBLIC 'CODE'
_TEXT	ENDS
;	COMDAT ?erase@?$_Tree@V?$_Tmap_traits@KKU?$less@K@std@@V?$allocator@U?$pair@$$CBKK@std@@@2@$0A@@std@@@std@@QAEIABK@Z
_TEXT	SEGMENT PARA USE32 PUBLIC 'CODE'
_TEXT	ENDS
;	COMDAT ??0?$map@KPAVCClientSock@@U?$less@K@std@@V?$allocator@U?$pair@$$CBKPAVCClientSock@@@std@@@3@@std@@QAE@XZ
_TEXT	SEGMENT PARA USE32 PUBLIC 'CODE'
_TEXT	ENDS
;	COMDAT ??1?$_Tree@V?$_Tmap_traits@KPAVCClientSock@@U?$less@K@std@@V?$allocator@U?$pair@$$CBKPAVCClientSock@@@std@@@3@$0A@@std@@@std@@QAE@XZ
_TEXT	SEGMENT PARA USE32 PUBLIC 'CODE'
_TEXT	ENDS
;	COMDAT ?end@?$_Tree@V?$_Tmap_traits@KPAVCClientSock@@U?$less@K@std@@V?$allocator@U?$pair@$$CBKPAVCClientSock@@@std@@@3@$0A@@std@@@std@@QAE?AViterator@12@XZ
_TEXT	SEGMENT PARA USE32 PUBLIC 'CODE'
_TEXT	ENDS
;	COMDAT ?find@?$_Tree@V?$_Tmap_traits@KPAVCClientSock@@U?$less@K@std@@V?$allocator@U?$pair@$$CBKPAVCClientSock@@@std@@@3@$0A@@std@@@std@@QAE?AViterator@12@ABK@Z
_TEXT	SEGMENT PARA USE32 PUBLIC 'CODE'
_TEXT	ENDS
;	COMDAT ??Citerator@?$_Tree@V?$_Tmap_traits@KPAVCClientSock@@U?$less@K@std@@V?$allocator@U?$pair@$$CBKPAVCClientSock@@@std@@@3@$0A@@std@@@std@@QBEPAU?$pair@$$CBKPAVCClientSock@@@2@XZ
_TEXT	SEGMENT PARA USE32 PUBLIC 'CODE'
_TEXT	ENDS
;	COMDAT ??9const_iterator@?$_Tree@V?$_Tmap_traits@KPAVCClientSock@@U?$less@K@std@@V?$allocator@U?$pair@$$CBKPAVCClientSock@@@std@@@3@$0A@@std@@@std@@QBE_NABV012@@Z
_TEXT	SEGMENT PARA USE32 PUBLIC 'CODE'
_TEXT	ENDS
;	COMDAT ??0?$map@KPAVCClientSockE@@U?$less@K@std@@V?$allocator@U?$pair@$$CBKPAVCClientSockE@@@std@@@3@@std@@QAE@XZ
_TEXT	SEGMENT PARA USE32 PUBLIC 'CODE'
_TEXT	ENDS
;	COMDAT ??1?$_Tree@V?$_Tmap_traits@KPAVCClientSockE@@U?$less@K@std@@V?$allocator@U?$pair@$$CBKPAVCClientSockE@@@std@@@3@$0A@@std@@@std@@QAE@XZ
_TEXT	SEGMENT PARA USE32 PUBLIC 'CODE'
_TEXT	ENDS
;	COMDAT ?end@?$_Tree@V?$_Tmap_traits@KPAVCClientSockE@@U?$less@K@std@@V?$allocator@U?$pair@$$CBKPAVCClientSockE@@@std@@@3@$0A@@std@@@std@@QAE?AViterator@12@XZ
_TEXT	SEGMENT PARA USE32 PUBLIC 'CODE'
_TEXT	ENDS
;	COMDAT ?find@?$_Tree@V?$_Tmap_traits@KPAVCClientSockE@@U?$less@K@std@@V?$allocator@U?$pair@$$CBKPAVCClientSockE@@@std@@@3@$0A@@std@@@std@@QAE?AViterator@12@ABK@Z
_TEXT	SEGMENT PARA USE32 PUBLIC 'CODE'
_TEXT	ENDS
;	COMDAT ??Citerator@?$_Tree@V?$_Tmap_traits@KPAVCClientSockE@@U?$less@K@std@@V?$allocator@U?$pair@$$CBKPAVCClientSockE@@@std@@@3@$0A@@std@@@std@@QBEPAU?$pair@$$CBKPAVCClientSockE@@@2@XZ
_TEXT	SEGMENT PARA USE32 PUBLIC 'CODE'
_TEXT	ENDS
;	COMDAT ??9const_iterator@?$_Tree@V?$_Tmap_traits@KPAVCClientSockE@@U?$less@K@std@@V?$allocator@U?$pair@$$CBKPAVCClientSockE@@@std@@@3@$0A@@std@@@std@@QBE_NABV012@@Z
_TEXT	SEGMENT PARA USE32 PUBLIC 'CODE'
_TEXT	ENDS
;	COMDAT ?end@?$_Tree@V?$_Tmap_traits@KP8CDPCoreClient@@AEXAAVCAr@@KKK@ZU?$less@K@std@@V?$allocator@U?$pair@$$CBKP8CDPCoreClient@@AEXAAVCAr@@KKK@Z@std@@@4@$0A@@std@@@std@@QAE?AViterator@12@XZ
_TEXT	SEGMENT PARA USE32 PUBLIC 'CODE'
_TEXT	ENDS
;	COMDAT ?find@?$_Tree@V?$_Tmap_traits@KP8CDPCoreClient@@AEXAAVCAr@@KKK@ZU?$less@K@std@@V?$allocator@U?$pair@$$CBKP8CDPCoreClient@@AEXAAVCAr@@KKK@Z@std@@@4@$0A@@std@@@std@@QAE?AViterator@12@ABK@Z
_TEXT	SEGMENT PARA USE32 PUBLIC 'CODE'
_TEXT	ENDS
;	COMDAT ??Citerator@?$_Tree@V?$_Tmap_traits@KP8CDPCoreClient@@AEXAAVCAr@@KKK@ZU?$less@K@std@@V?$allocator@U?$pair@$$CBKP8CDPCoreClient@@AEXAAVCAr@@KKK@Z@std@@@4@$0A@@std@@@std@@QBEPAU?$pair@$$CBKP8CDPCoreClient@@AEXAAVCAr@@KKK@Z@2@XZ
_TEXT	SEGMENT PARA USE32 PUBLIC 'CODE'
_TEXT	ENDS
;	COMDAT ??9const_iterator@?$_Tree@V?$_Tmap_traits@KP8CDPCoreClient@@AEXAAVCAr@@KKK@ZU?$less@K@std@@V?$allocator@U?$pair@$$CBKP8CDPCoreClient@@AEXAAVCAr@@KKK@Z@std@@@4@$0A@@std@@@std@@QBE_NABV012@@Z
_TEXT	SEGMENT PARA USE32 PUBLIC 'CODE'
_TEXT	ENDS
;	COMDAT ?end@?$_Tree@V?$_Tmap_traits@KP8CDPDatabaseClient@@AEXAAVCAr@@KK@ZU?$less@K@std@@V?$allocator@U?$pair@$$CBKP8CDPDatabaseClient@@AEXAAVCAr@@KK@Z@std@@@4@$0A@@std@@@std@@QAE?AViterator@12@XZ
_TEXT	SEGMENT PARA USE32 PUBLIC 'CODE'
_TEXT	ENDS
;	COMDAT ?find@?$_Tree@V?$_Tmap_traits@KP8CDPDatabaseClient@@AEXAAVCAr@@KK@ZU?$less@K@std@@V?$allocator@U?$pair@$$CBKP8CDPDatabaseClient@@AEXAAVCAr@@KK@Z@std@@@4@$0A@@std@@@std@@QAE?AViterator@12@ABK@Z
_TEXT	SEGMENT PARA USE32 PUBLIC 'CODE'
_TEXT	ENDS
;	COMDAT ??Citerator@?$_Tree@V?$_Tmap_traits@KP8CDPDatabaseClient@@AEXAAVCAr@@KK@ZU?$less@K@std@@V?$allocator@U?$pair@$$CBKP8CDPDatabaseClient@@AEXAAVCAr@@KK@Z@std@@@4@$0A@@std@@@std@@QBEPAU?$pair@$$CBKP8CDPDatabaseClient@@AEXAAVCAr@@KK@Z@2@XZ
_TEXT	SEGMENT PARA USE32 PUBLIC 'CODE'
_TEXT	ENDS
;	COMDAT ??9const_iterator@?$_Tree@V?$_Tmap_traits@KP8CDPDatabaseClient@@AEXAAVCAr@@KK@ZU?$less@K@std@@V?$allocator@U?$pair@$$CBKP8CDPDatabaseClient@@AEXAAVCAr@@KK@Z@std@@@4@$0A@@std@@@std@@QBE_NABV012@@Z
_TEXT	SEGMENT PARA USE32 PUBLIC 'CODE'
_TEXT	ENDS
;	COMDAT ?end@?$_Tree@V?$_Tmap_traits@KP8CDPSrvr@@AEXAAVCAr@@KKPAEK@ZU?$less@K@std@@V?$allocator@U?$pair@$$CBKP8CDPSrvr@@AEXAAVCAr@@KKPAEK@Z@std@@@4@$0A@@std@@@std@@QAE?AViterator@12@XZ
_TEXT	SEGMENT PARA USE32 PUBLIC 'CODE'
_TEXT	ENDS
;	COMDAT ?find@?$_Tree@V?$_Tmap_traits@KP8CDPSrvr@@AEXAAVCAr@@KKPAEK@ZU?$less@K@std@@V?$allocator@U?$pair@$$CBKP8CDPSrvr@@AEXAAVCAr@@KKPAEK@Z@std@@@4@$0A@@std@@@std@@QAE?AViterator@12@ABK@Z
_TEXT	SEGMENT PARA USE32 PUBLIC 'CODE'
_TEXT	ENDS
;	COMDAT ??Citerator@?$_Tree@V?$_Tmap_traits@KP8CDPSrvr@@AEXAAVCAr@@KKPAEK@ZU?$less@K@std@@V?$allocator@U?$pair@$$CBKP8CDPSrvr@@AEXAAVCAr@@KKPAEK@Z@std@@@4@$0A@@std@@@std@@QBEPAU?$pair@$$CBKP8CDPSrvr@@AEXAAVCAr@@KKPAEK@Z@2@XZ
_TEXT	SEGMENT PARA USE32 PUBLIC 'CODE'
_TEXT	ENDS
;	COMDAT ??9const_iterator@?$_Tree@V?$_Tmap_traits@KP8CDPSrvr@@AEXAAVCAr@@KKPAEK@ZU?$less@K@std@@V?$allocator@U?$pair@$$CBKP8CDPSrvr@@AEXAAVCAr@@KKPAEK@Z@std@@@4@$0A@@std@@@std@@QBE_NABV012@@Z
_TEXT	SEGMENT PARA USE32 PUBLIC 'CODE'
_TEXT	ENDS
;	COMDAT ?FormatV@?$CStringT@DV?$StrTraitMFC@DV?$ChTraitsCRT@D@ATL@@@@@ATL@@QAEXPBDPAD@Z
_TEXT	SEGMENT PARA USE32 PUBLIC 'CODE'
_TEXT	ENDS
;	COMDAT ?compare@?$basic_string@DU?$char_traits@D@std@@V?$allocator@D@2@@std@@QBEHIIPBDI@Z
_TEXT	SEGMENT PARA USE32 PUBLIC 'CODE'
_TEXT	ENDS
;	COMDAT ??0?$allocator@V?$basic_string@DU?$char_traits@D@std@@V?$allocator@D@2@@std@@@std@@QAE@XZ
_TEXT	SEGMENT PARA USE32 PUBLIC 'CODE'
_TEXT	ENDS
;	COMDAT ?insert@?$_Tree@V?$_Tmap_traits@KPAVCCtrl@@U?$less@K@std@@V?$allocator@U?$pair@$$CBKPAVCCtrl@@@std@@@3@$0A@@std@@@std@@QAE?AViterator@12@V312@ABU?$pair@$$CBKPAVCCtrl@@@2@@Z
_TEXT	SEGMENT PARA USE32 PUBLIC 'CODE'
_TEXT	ENDS
;	COMDAT ??0?$pair@$$CBKPAVCCtrl@@@std@@QAE@ABKABQAVCCtrl@@@Z
_TEXT	SEGMENT PARA USE32 PUBLIC 'CODE'
_TEXT	ENDS
;	COMDAT ?begin@?$vector@UWORMON@@V?$allocator@UWORMON@@@std@@@std@@QAE?AViterator@12@XZ
_TEXT	SEGMENT PARA USE32 PUBLIC 'CODE'
_TEXT	ENDS
;	COMDAT ?_Tidy@?$deque@PAUtagACTMSG@@V?$allocator@PAUtagACTMSG@@@std@@@std@@IAEXXZ
_TEXT	SEGMENT PARA USE32 PUBLIC 'CODE'
_TEXT	ENDS
;	COMDAT ??0?$_Deque_val@PAUtagACTMSG@@V?$allocator@PAUtagACTMSG@@@std@@@std@@IAE@V?$allocator@PAUtagACTMSG@@@1@@Z
_TEXT	SEGMENT PARA USE32 PUBLIC 'CODE'
_TEXT	ENDS
;	COMDAT ??0?$allocator@PAUtagACTMSG@@@std@@QAE@XZ
_TEXT	SEGMENT PARA USE32 PUBLIC 'CODE'
_TEXT	ENDS
;	COMDAT ?_Tidy@?$deque@PAUtagMAGICATKMSG@@V?$allocator@PAUtagMAGICATKMSG@@@std@@@std@@IAEXXZ
_TEXT	SEGMENT PARA USE32 PUBLIC 'CODE'
_TEXT	ENDS
;	COMDAT ??0?$_Deque_val@PAUtagMAGICATKMSG@@V?$allocator@PAUtagMAGICATKMSG@@@std@@@std@@IAE@V?$allocator@PAUtagMAGICATKMSG@@@1@@Z
_TEXT	SEGMENT PARA USE32 PUBLIC 'CODE'
_TEXT	ENDS
;	COMDAT ??0?$allocator@PAUtagMAGICATKMSG@@@std@@QAE@XZ
_TEXT	SEGMENT PARA USE32 PUBLIC 'CODE'
_TEXT	ENDS
;	COMDAT ??0iterator@?$deque@PAUtagACTMSG@@V?$allocator@PAUtagACTMSG@@@std@@@std@@QAE@IPBV12@@Z
_TEXT	SEGMENT PARA USE32 PUBLIC 'CODE'
_TEXT	ENDS
;	COMDAT ??Dconst_iterator@?$deque@PAUtagACTMSG@@V?$allocator@PAUtagACTMSG@@@std@@@std@@QBEABQAUtagACTMSG@@XZ
_TEXT	SEGMENT PARA USE32 PUBLIC 'CODE'
_TEXT	ENDS
;	COMDAT ??8const_iterator@?$deque@PAUtagACTMSG@@V?$allocator@PAUtagACTMSG@@@std@@@std@@QBE_NABV012@@Z
_TEXT	SEGMENT PARA USE32 PUBLIC 'CODE'
_TEXT	ENDS
;	COMDAT ??0iterator@?$deque@PAUtagMAGICATKMSG@@V?$allocator@PAUtagMAGICATKMSG@@@std@@@std@@QAE@IPBV12@@Z
_TEXT	SEGMENT PARA USE32 PUBLIC 'CODE'
_TEXT	ENDS
;	COMDAT ??Dconst_iterator@?$deque@PAUtagMAGICATKMSG@@V?$allocator@PAUtagMAGICATKMSG@@@std@@@std@@QBEABQAUtagMAGICATKMSG@@XZ
_TEXT	SEGMENT PARA USE32 PUBLIC 'CODE'
_TEXT	ENDS
;	COMDAT ??8const_iterator@?$deque@PAUtagMAGICATKMSG@@V?$allocator@PAUtagMAGICATKMSG@@@std@@@std@@QBE_NABV012@@Z
_TEXT	SEGMENT PARA USE32 PUBLIC 'CODE'
_TEXT	ENDS
;	COMDAT ?erase@?$_Tree@V?$_Tmap_traits@KU_Friend@@U?$less@K@std@@V?$allocator@U?$pair@$$CBKU_Friend@@@std@@@3@$0A@@std@@@std@@QAE?AViterator@12@V312@0@Z
_TEXT	SEGMENT PARA USE32 PUBLIC 'CODE'
_TEXT	ENDS
;	COMDAT ?equal_range@?$_Tree@V?$_Tmap_traits@KU_Friend@@U?$less@K@std@@V?$allocator@U?$pair@$$CBKU_Friend@@@std@@@3@$0A@@std@@@std@@QAE?AU?$pair@Viterator@?$_Tree@V?$_Tmap_traits@KU_Friend@@U?$less@K@std@@V?$allocator@U?$pair@$$CBKU_Friend@@@std@@@3@$0A@@std@@@std@@V123@@2@ABK@Z
_TEXT	SEGMENT PARA USE32 PUBLIC 'CODE'
_TEXT	ENDS
;	COMDAT ?begin@?$vector@PAU__JOINPLAYER@CGuildCombat@@V?$allocator@PAU__JOINPLAYER@CGuildCombat@@@std@@@std@@QAE?AViterator@12@XZ
_TEXT	SEGMENT PARA USE32 PUBLIC 'CODE'
_TEXT	ENDS
;	COMDAT ?_Tidy@?$vector@PAU__JOINPLAYER@CGuildCombat@@V?$allocator@PAU__JOINPLAYER@CGuildCombat@@@std@@@std@@IAEXXZ
_TEXT	SEGMENT PARA USE32 PUBLIC 'CODE'
_TEXT	ENDS
;	COMDAT ?_Nextnode@?$list@PAU__JOINPLAYER@CGuildCombat@@V?$allocator@PAU__JOINPLAYER@CGuildCombat@@@std@@@std@@KAAAPAU_Node@?$_List_nod@PAU__JOINPLAYER@CGuildCombat@@V?$allocator@PAU__JOINPLAYER@CGuildCombat@@@std@@@2@PAU342@@Z
_TEXT	SEGMENT PARA USE32 PUBLIC 'CODE'
_TEXT	ENDS
;	COMDAT ?_Prevnode@?$list@PAU__JOINPLAYER@CGuildCombat@@V?$allocator@PAU__JOINPLAYER@CGuildCombat@@@std@@@std@@KAAAPAU_Node@?$_List_nod@PAU__JOINPLAYER@CGuildCombat@@V?$allocator@PAU__JOINPLAYER@CGuildCombat@@@std@@@2@PAU342@@Z
_TEXT	SEGMENT PARA USE32 PUBLIC 'CODE'
_TEXT	ENDS
;	COMDAT ?deallocate@?$allocator@U_Node@?$_List_nod@PAU__JOINPLAYER@CGuildCombat@@V?$allocator@PAU__JOINPLAYER@CGuildCombat@@@std@@@std@@@std@@QAEXPAU_Node@?$_List_nod@PAU__JOINPLAYER@CGuildCombat@@V?$allocator@PAU__JOINPLAYER@CGuildCombat@@@std@@@2@I@Z
_TEXT	SEGMENT PARA USE32 PUBLIC 'CODE'
_TEXT	ENDS
;	COMDAT ?destroy@?$allocator@U_Node@?$_List_nod@PAU__JOINPLAYER@CGuildCombat@@V?$allocator@PAU__JOINPLAYER@CGuildCombat@@@std@@@std@@@std@@QAEXPAU_Node@?$_List_nod@PAU__JOINPLAYER@CGuildCombat@@V?$allocator@PAU__JOINPLAYER@CGuildCombat@@@std@@@2@@Z
_TEXT	SEGMENT PARA USE32 PUBLIC 'CODE'
_TEXT	ENDS
;	COMDAT ?_Buy@?$vector@U__SECRETROOM_MONSTER@@V?$allocator@U__SECRETROOM_MONSTER@@@std@@@std@@IAE_NI@Z
_TEXT	SEGMENT PARA USE32 PUBLIC 'CODE'
_TEXT	ENDS
;	COMDAT ?_Tidy@?$vector@U__SECRETROOM_MONSTER@@V?$allocator@U__SECRETROOM_MONSTER@@@std@@@std@@IAEXXZ
_TEXT	SEGMENT PARA USE32 PUBLIC 'CODE'
_TEXT	ENDS
;	COMDAT ??0?$_Vector_val@U__SECRETROOM_MONSTER@@V?$allocator@U__SECRETROOM_MONSTER@@@std@@@std@@IAE@V?$allocator@U__SECRETROOM_MONSTER@@@1@@Z
_TEXT	SEGMENT PARA USE32 PUBLIC 'CODE'
_TEXT	ENDS
;	COMDAT ??0?$allocator@U__SECRETROOM_MONSTER@@@std@@QAE@XZ
_TEXT	SEGMENT PARA USE32 PUBLIC 'CODE'
_TEXT	ENDS
;	COMDAT ?capacity@?$vector@V?$basic_string@DU?$char_traits@D@std@@V?$allocator@D@2@@std@@V?$allocator@V?$basic_string@DU?$char_traits@D@std@@V?$allocator@D@2@@std@@@2@@std@@QBEIXZ
_TEXT	SEGMENT PARA USE32 PUBLIC 'CODE'
_TEXT	ENDS
;	COMDAT ?begin@?$vector@V?$basic_string@DU?$char_traits@D@std@@V?$allocator@D@2@@std@@V?$allocator@V?$basic_string@DU?$char_traits@D@std@@V?$allocator@D@2@@std@@@2@@std@@QAE?AViterator@12@XZ
_TEXT	SEGMENT PARA USE32 PUBLIC 'CODE'
_TEXT	ENDS
;	COMDAT ?end@?$vector@V?$basic_string@DU?$char_traits@D@std@@V?$allocator@D@2@@std@@V?$allocator@V?$basic_string@DU?$char_traits@D@std@@V?$allocator@D@2@@std@@@2@@std@@QAE?AViterator@12@XZ
_TEXT	SEGMENT PARA USE32 PUBLIC 'CODE'
_TEXT	ENDS
;	COMDAT ?insert@?$vector@V?$basic_string@DU?$char_traits@D@std@@V?$allocator@D@2@@std@@V?$allocator@V?$basic_string@DU?$char_traits@D@std@@V?$allocator@D@2@@std@@@2@@std@@QAE?AViterator@12@V312@ABV?$basic_string@DU?$char_traits@D@std@@V?$allocator@D@2@@2@@Z
_TEXT	SEGMENT PARA USE32 PUBLIC 'CODE'
_TEXT	ENDS
;	COMDAT ?_Buy@?$vector@V?$basic_string@DU?$char_traits@D@std@@V?$allocator@D@2@@std@@V?$allocator@V?$basic_string@DU?$char_traits@D@std@@V?$allocator@D@2@@std@@@2@@std@@IAE_NI@Z
_TEXT	SEGMENT PARA USE32 PUBLIC 'CODE'
_TEXT	ENDS
;	COMDAT ?_Tidy@?$vector@V?$basic_string@DU?$char_traits@D@std@@V?$allocator@D@2@@std@@V?$allocator@V?$basic_string@DU?$char_traits@D@std@@V?$allocator@D@2@@std@@@2@@std@@IAEXXZ
_TEXT	SEGMENT PARA USE32 PUBLIC 'CODE'
_TEXT	ENDS
;	COMDAT ?_Ufill@?$vector@V?$basic_string@DU?$char_traits@D@std@@V?$allocator@D@2@@std@@V?$allocator@V?$basic_string@DU?$char_traits@D@std@@V?$allocator@D@2@@std@@@2@@std@@IAEPAV?$basic_string@DU?$char_traits@D@std@@V?$allocator@D@2@@2@PAV32@IABV32@@Z
_TEXT	SEGMENT PARA USE32 PUBLIC 'CODE'
_TEXT	ENDS
;	COMDAT ??0?$_Vector_val@V?$basic_string@DU?$char_traits@D@std@@V?$allocator@D@2@@std@@V?$allocator@V?$basic_string@DU?$char_traits@D@std@@V?$allocator@D@2@@std@@@2@@std@@IAE@V?$allocator@V?$basic_string@DU?$char_traits@D@std@@V?$allocator@D@2@@std@@@1@@Z
_TEXT	SEGMENT PARA USE32 PUBLIC 'CODE'
_TEXT	ENDS
;	COMDAT ?capacity@?$vector@UMINIGMAME_PRIZE_LIST@CRainbowRaceMng@@V?$allocator@UMINIGMAME_PRIZE_LIST@CRainbowRaceMng@@@std@@@std@@QBEIXZ
_TEXT	SEGMENT PARA USE32 PUBLIC 'CODE'
_TEXT	ENDS
;	COMDAT ?end@?$vector@UMINIGMAME_PRIZE_LIST@CRainbowRaceMng@@V?$allocator@UMINIGMAME_PRIZE_LIST@CRainbowRaceMng@@@std@@@std@@QAE?AViterator@12@XZ
_TEXT	SEGMENT PARA USE32 PUBLIC 'CODE'
_TEXT	ENDS
;	COMDAT ?size@?$vector@UMINIGMAME_PRIZE_LIST@CRainbowRaceMng@@V?$allocator@UMINIGMAME_PRIZE_LIST@CRainbowRaceMng@@@std@@@std@@QBEIXZ
_TEXT	SEGMENT PARA USE32 PUBLIC 'CODE'
_TEXT	ENDS
;	COMDAT ?insert@?$vector@UMINIGMAME_PRIZE_LIST@CRainbowRaceMng@@V?$allocator@UMINIGMAME_PRIZE_LIST@CRainbowRaceMng@@@std@@@std@@QAE?AViterator@12@V312@ABUMINIGMAME_PRIZE_LIST@CRainbowRaceMng@@@Z
_TEXT	SEGMENT PARA USE32 PUBLIC 'CODE'
_TEXT	ENDS
;	COMDAT ?_Ufill@?$vector@UMINIGMAME_PRIZE_LIST@CRainbowRaceMng@@V?$allocator@UMINIGMAME_PRIZE_LIST@CRainbowRaceMng@@@std@@@std@@IAEPAUMINIGMAME_PRIZE_LIST@CRainbowRaceMng@@PAU34@IABU34@@Z
_TEXT	SEGMENT PARA USE32 PUBLIC 'CODE'
_TEXT	ENDS
;	COMDAT ?begin@?$vector@PAVCMiniGameBase@@V?$allocator@PAVCMiniGameBase@@@std@@@std@@QAE?AViterator@12@XZ
_TEXT	SEGMENT PARA USE32 PUBLIC 'CODE'
_TEXT	ENDS
;	COMDAT ?begin@?$vector@UGuildHouse_Furniture_Info@CGuildHouseBase@@V?$allocator@UGuildHouse_Furniture_Info@CGuildHouseBase@@@std@@@std@@QAE?AViterator@12@XZ
_TEXT	SEGMENT PARA USE32 PUBLIC 'CODE'
_TEXT	ENDS
;	COMDAT ?_Isnil@?$_Tree@V?$_Tmap_traits@KPAVCGuildHouseBase@@U?$less@K@std@@V?$allocator@U?$pair@$$CBKPAVCGuildHouseBase@@@std@@@3@$0A@@std@@@std@@KAAADPAU_Node@?$_Tree_nod@V?$_Tmap_traits@KPAVCGuildHouseBase@@U?$less@K@std@@V?$allocator@U?$pair@$$CBKPAVCGuildHouseBase@@@std@@@3@$0A@@std@@@2@@Z
_TEXT	SEGMENT PARA USE32 PUBLIC 'CODE'
_TEXT	ENDS
;	COMDAT ?_Key@?$_Tree@V?$_Tmap_traits@KPAVCGuildHouseBase@@U?$less@K@std@@V?$allocator@U?$pair@$$CBKPAVCGuildHouseBase@@@std@@@3@$0A@@std@@@std@@KAABKPAU_Node@?$_Tree_nod@V?$_Tmap_traits@KPAVCGuildHouseBase@@U?$less@K@std@@V?$allocator@U?$pair@$$CBKPAVCGuildHouseBase@@@std@@@3@$0A@@std@@@2@@Z
_TEXT	SEGMENT PARA USE32 PUBLIC 'CODE'
_TEXT	ENDS
;	COMDAT ?_Left@?$_Tree@V?$_Tmap_traits@KPAVCGuildHouseBase@@U?$less@K@std@@V?$allocator@U?$pair@$$CBKPAVCGuildHouseBase@@@std@@@3@$0A@@std@@@std@@KAAAPAU_Node@?$_Tree_nod@V?$_Tmap_traits@KPAVCGuildHouseBase@@U?$less@K@std@@V?$allocator@U?$pair@$$CBKPAVCGuildHouseBase@@@std@@@3@$0A@@std@@@2@PAU342@@Z
_TEXT	SEGMENT PARA USE32 PUBLIC 'CODE'
_TEXT	ENDS
;	COMDAT ?_Right@?$_Tree@V?$_Tmap_traits@KPAVCGuildHouseBase@@U?$less@K@std@@V?$allocator@U?$pair@$$CBKPAVCGuildHouseBase@@@std@@@3@$0A@@std@@@std@@KAAAPAU_Node@?$_Tree_nod@V?$_Tmap_traits@KPAVCGuildHouseBase@@U?$less@K@std@@V?$allocator@U?$pair@$$CBKPAVCGuildHouseBase@@@std@@@3@$0A@@std@@@2@PAU342@@Z
_TEXT	SEGMENT PARA USE32 PUBLIC 'CODE'
_TEXT	ENDS
;	COMDAT ?begin@?$_Tree@V?$_Tmap_traits@KPAVCGuildHouseBase@@U?$less@K@std@@V?$allocator@U?$pair@$$CBKPAVCGuildHouseBase@@@std@@@3@$0A@@std@@@std@@QAE?AViterator@12@XZ
_TEXT	SEGMENT PARA USE32 PUBLIC 'CODE'
_TEXT	ENDS
;	COMDAT ?size@?$_Tree@V?$_Tmap_traits@KPAVCGuildHouseBase@@U?$less@K@std@@V?$allocator@U?$pair@$$CBKPAVCGuildHouseBase@@@std@@@3@$0A@@std@@@std@@QBEIXZ
_TEXT	SEGMENT PARA USE32 PUBLIC 'CODE'
_TEXT	ENDS
;	COMDAT ?_Insert@?$_Tree@V?$_Tmap_traits@KPAVCGuildHouseBase@@U?$less@K@std@@V?$allocator@U?$pair@$$CBKPAVCGuildHouseBase@@@std@@@3@$0A@@std@@@std@@IAE?AViterator@12@_NPAU_Node@?$_Tree_nod@V?$_Tmap_traits@KPAVCGuildHouseBase@@U?$less@K@std@@V?$allocator@U?$pair@$$CBKPAVCGuildHouseBase@@@std@@@3@$0A@@std@@@2@ABU?$pair@$$CBKPAVCGuildHouseBase@@@2@@Z
_TEXT	SEGMENT PARA USE32 PUBLIC 'CODE'
_TEXT	ENDS
;	COMDAT ?_Root@?$_Tree@V?$_Tmap_traits@KPAVCGuildHouseBase@@U?$less@K@std@@V?$allocator@U?$pair@$$CBKPAVCGuildHouseBase@@@std@@@3@$0A@@std@@@std@@IAEAAPAU_Node@?$_Tree_nod@V?$_Tmap_traits@KPAVCGuildHouseBase@@U?$less@K@std@@V?$allocator@U?$pair@$$CBKPAVCGuildHouseBase@@@std@@@3@$0A@@std@@@2@XZ
_TEXT	SEGMENT PARA USE32 PUBLIC 'CODE'
_TEXT	ENDS
;	COMDAT ?_Kfn@?$_Tmap_traits@KPAVCGuildHouseBase@@U?$less@K@std@@V?$allocator@U?$pair@$$CBKPAVCGuildHouseBase@@@std@@@3@$0A@@std@@SAABKABU?$pair@$$CBKPAVCGuildHouseBase@@@2@@Z
_TEXT	SEGMENT PARA USE32 PUBLIC 'CODE'
_TEXT	ENDS
;	COMDAT ??0?$pair@Viterator@?$_Tree@V?$_Tmap_traits@KPAVCGuildHouseBase@@U?$less@K@std@@V?$allocator@U?$pair@$$CBKPAVCGuildHouseBase@@@std@@@3@$0A@@std@@@std@@_N@std@@QAE@ABViterator@?$_Tree@V?$_Tmap_traits@KPAVCGuildHouseBase@@U?$less@K@std@@V?$allocator@U?$pair@$$CBKPAVCGuildHouseBase@@@std@@@3@$0A@@std@@@1@AB_N@Z
_TEXT	SEGMENT PARA USE32 PUBLIC 'CODE'
_TEXT	ENDS
;	COMDAT ??0iterator@?$_Tree@V?$_Tmap_traits@KPAVCGuildHouseBase@@U?$less@K@std@@V?$allocator@U?$pair@$$CBKPAVCGuildHouseBase@@@std@@@3@$0A@@std@@@std@@QAE@PAU_Node@?$_Tree_nod@V?$_Tmap_traits@KPAVCGuildHouseBase@@U?$less@K@std@@V?$allocator@U?$pair@$$CBKPAVCGuildHouseBase@@@std@@@3@$0A@@std@@@2@@Z
_TEXT	SEGMENT PARA USE32 PUBLIC 'CODE'
_TEXT	ENDS
;	COMDAT ??Fiterator@?$_Tree@V?$_Tmap_traits@KPAVCGuildHouseBase@@U?$less@K@std@@V?$allocator@U?$pair@$$CBKPAVCGuildHouseBase@@@std@@@3@$0A@@std@@@std@@QAEAAV012@XZ
_TEXT	SEGMENT PARA USE32 PUBLIC 'CODE'
_TEXT	ENDS
;	COMDAT ??8const_iterator@?$_Tree@V?$_Tmap_traits@KPAVCGuildHouseBase@@U?$less@K@std@@V?$allocator@U?$pair@$$CBKPAVCGuildHouseBase@@@std@@@3@$0A@@std@@@std@@QBE_NABV012@@Z
_TEXT	SEGMENT PARA USE32 PUBLIC 'CODE'
_TEXT	ENDS
;	COMDAT ?_Mynode@const_iterator@?$_Tree@V?$_Tmap_traits@KPAVCGuildHouseBase@@U?$less@K@std@@V?$allocator@U?$pair@$$CBKPAVCGuildHouseBase@@@std@@@3@$0A@@std@@@std@@QBEPAU_Node@?$_Tree_nod@V?$_Tmap_traits@KPAVCGuildHouseBase@@U?$less@K@std@@V?$allocator@U?$pair@$$CBKPAVCGuildHouseBase@@@std@@@3@$0A@@std@@@3@XZ
_TEXT	SEGMENT PARA USE32 PUBLIC 'CODE'
_TEXT	ENDS
;	COMDAT ?size@?$_Tree@V?$_Tmap_traits@KPAVCCampus@@U?$less@K@std@@V?$allocator@U?$pair@$$CBKPAVCCampus@@@std@@@3@$0A@@std@@@std@@QBEIXZ
_TEXT	SEGMENT PARA USE32 PUBLIC 'CODE'
_TEXT	ENDS
;	COMDAT ?erase@?$_Tree@V?$_Tmap_traits@KKU?$less@K@std@@V?$allocator@U?$pair@$$CBKK@std@@@2@$0A@@std@@@std@@QAE?AViterator@12@V312@0@Z
_TEXT	SEGMENT PARA USE32 PUBLIC 'CODE'
_TEXT	ENDS
;	COMDAT ?equal_range@?$_Tree@V?$_Tmap_traits@KKU?$less@K@std@@V?$allocator@U?$pair@$$CBKK@std@@@2@$0A@@std@@@std@@QAE?AU?$pair@Viterator@?$_Tree@V?$_Tmap_traits@KKU?$less@K@std@@V?$allocator@U?$pair@$$CBKK@std@@@2@$0A@@std@@@std@@V123@@2@ABK@Z
_TEXT	SEGMENT PARA USE32 PUBLIC 'CODE'
_TEXT	ENDS
;	COMDAT ?_Key@?$_Tree@V?$_Tmap_traits@KPAVCClientSock@@U?$less@K@std@@V?$allocator@U?$pair@$$CBKPAVCClientSock@@@std@@@3@$0A@@std@@@std@@KAABKPAU_Node@?$_Tree_nod@V?$_Tmap_traits@KPAVCClientSock@@U?$less@K@std@@V?$allocator@U?$pair@$$CBKPAVCClientSock@@@std@@@3@$0A@@std@@@2@@Z
_TEXT	SEGMENT PARA USE32 PUBLIC 'CODE'
_TEXT	ENDS
;	COMDAT ??0?$_Tree@V?$_Tmap_traits@KPAVCClientSock@@U?$less@K@std@@V?$allocator@U?$pair@$$CBKPAVCClientSock@@@std@@@3@$0A@@std@@@std@@QAE@ABU?$less@K@1@ABV?$allocator@U?$pair@$$CBKPAVCClientSock@@@std@@@1@@Z
_TEXT	SEGMENT PARA USE32 PUBLIC 'CODE'
_TEXT	ENDS
;	COMDAT ?lower_bound@?$_Tree@V?$_Tmap_traits@KPAVCClientSock@@U?$less@K@std@@V?$allocator@U?$pair@$$CBKPAVCClientSock@@@std@@@3@$0A@@std@@@std@@QAE?AViterator@12@ABK@Z
_TEXT	SEGMENT PARA USE32 PUBLIC 'CODE'
_TEXT	ENDS
;	COMDAT ?_Tidy@?$_Tree@V?$_Tmap_traits@KPAVCClientSock@@U?$less@K@std@@V?$allocator@U?$pair@$$CBKPAVCClientSock@@@std@@@3@$0A@@std@@@std@@IAEXXZ
_TEXT	SEGMENT PARA USE32 PUBLIC 'CODE'
_TEXT	ENDS
;	COMDAT ??0?$allocator@U?$pair@$$CBKPAVCClientSock@@@std@@@std@@QAE@XZ
_TEXT	SEGMENT PARA USE32 PUBLIC 'CODE'
_TEXT	ENDS
;	COMDAT ??0iterator@?$_Tree@V?$_Tmap_traits@KPAVCClientSock@@U?$less@K@std@@V?$allocator@U?$pair@$$CBKPAVCClientSock@@@std@@@3@$0A@@std@@@std@@QAE@PAU_Node@?$_Tree_nod@V?$_Tmap_traits@KPAVCClientSock@@U?$less@K@std@@V?$allocator@U?$pair@$$CBKPAVCClientSock@@@std@@@3@$0A@@std@@@2@@Z
_TEXT	SEGMENT PARA USE32 PUBLIC 'CODE'
_TEXT	ENDS
;	COMDAT ??Diterator@?$_Tree@V?$_Tmap_traits@KPAVCClientSock@@U?$less@K@std@@V?$allocator@U?$pair@$$CBKPAVCClientSock@@@std@@@3@$0A@@std@@@std@@QBEAAU?$pair@$$CBKPAVCClientSock@@@2@XZ
_TEXT	SEGMENT PARA USE32 PUBLIC 'CODE'
_TEXT	ENDS
;	COMDAT ??8const_iterator@?$_Tree@V?$_Tmap_traits@KPAVCClientSock@@U?$less@K@std@@V?$allocator@U?$pair@$$CBKPAVCClientSock@@@std@@@3@$0A@@std@@@std@@QBE_NABV012@@Z
_TEXT	SEGMENT PARA USE32 PUBLIC 'CODE'
_TEXT	ENDS
;	COMDAT ?_Mynode@const_iterator@?$_Tree@V?$_Tmap_traits@KPAVCClientSock@@U?$less@K@std@@V?$allocator@U?$pair@$$CBKPAVCClientSock@@@std@@@3@$0A@@std@@@std@@QBEPAU_Node@?$_Tree_nod@V?$_Tmap_traits@KPAVCClientSock@@U?$less@K@std@@V?$allocator@U?$pair@$$CBKPAVCClientSock@@@std@@@3@$0A@@std@@@3@XZ
_TEXT	SEGMENT PARA USE32 PUBLIC 'CODE'
_TEXT	ENDS
;	COMDAT ?_Key@?$_Tree@V?$_Tmap_traits@KPAVCClientSockE@@U?$less@K@std@@V?$allocator@U?$pair@$$CBKPAVCClientSockE@@@std@@@3@$0A@@std@@@std@@KAABKPAU_Node@?$_Tree_nod@V?$_Tmap_traits@KPAVCClientSockE@@U?$less@K@std@@V?$allocator@U?$pair@$$CBKPAVCClientSockE@@@std@@@3@$0A@@std@@@2@@Z
_TEXT	SEGMENT PARA USE32 PUBLIC 'CODE'
_TEXT	ENDS
;	COMDAT ??0?$_Tree@V?$_Tmap_traits@KPAVCClientSockE@@U?$less@K@std@@V?$allocator@U?$pair@$$CBKPAVCClientSockE@@@std@@@3@$0A@@std@@@std@@QAE@ABU?$less@K@1@ABV?$allocator@U?$pair@$$CBKPAVCClientSockE@@@std@@@1@@Z
_TEXT	SEGMENT PARA USE32 PUBLIC 'CODE'
_TEXT	ENDS
;	COMDAT ?lower_bound@?$_Tree@V?$_Tmap_traits@KPAVCClientSockE@@U?$less@K@std@@V?$allocator@U?$pair@$$CBKPAVCClientSockE@@@std@@@3@$0A@@std@@@std@@QAE?AViterator@12@ABK@Z
_TEXT	SEGMENT PARA USE32 PUBLIC 'CODE'
_TEXT	ENDS
;	COMDAT ?_Tidy@?$_Tree@V?$_Tmap_traits@KPAVCClientSockE@@U?$less@K@std@@V?$allocator@U?$pair@$$CBKPAVCClientSockE@@@std@@@3@$0A@@std@@@std@@IAEXXZ
_TEXT	SEGMENT PARA USE32 PUBLIC 'CODE'
_TEXT	ENDS
;	COMDAT ??0?$allocator@U?$pair@$$CBKPAVCClientSockE@@@std@@@std@@QAE@XZ
_TEXT	SEGMENT PARA USE32 PUBLIC 'CODE'
_TEXT	ENDS
;	COMDAT ??0iterator@?$_Tree@V?$_Tmap_traits@KPAVCClientSockE@@U?$less@K@std@@V?$allocator@U?$pair@$$CBKPAVCClientSockE@@@std@@@3@$0A@@std@@@std@@QAE@PAU_Node@?$_Tree_nod@V?$_Tmap_traits@KPAVCClientSockE@@U?$less@K@std@@V?$allocator@U?$pair@$$CBKPAVCClientSockE@@@std@@@3@$0A@@std@@@2@@Z
_TEXT	SEGMENT PARA USE32 PUBLIC 'CODE'
_TEXT	ENDS
;	COMDAT ??Diterator@?$_Tree@V?$_Tmap_traits@KPAVCClientSockE@@U?$less@K@std@@V?$allocator@U?$pair@$$CBKPAVCClientSockE@@@std@@@3@$0A@@std@@@std@@QBEAAU?$pair@$$CBKPAVCClientSockE@@@2@XZ
_TEXT	SEGMENT PARA USE32 PUBLIC 'CODE'
_TEXT	ENDS
;	COMDAT ??8const_iterator@?$_Tree@V?$_Tmap_traits@KPAVCClientSockE@@U?$less@K@std@@V?$allocator@U?$pair@$$CBKPAVCClientSockE@@@std@@@3@$0A@@std@@@std@@QBE_NABV012@@Z
_TEXT	SEGMENT PARA USE32 PUBLIC 'CODE'
_TEXT	ENDS
;	COMDAT ?_Mynode@const_iterator@?$_Tree@V?$_Tmap_traits@KPAVCClientSockE@@U?$less@K@std@@V?$allocator@U?$pair@$$CBKPAVCClientSockE@@@std@@@3@$0A@@std@@@std@@QBEPAU_Node@?$_Tree_nod@V?$_Tmap_traits@KPAVCClientSockE@@U?$less@K@std@@V?$allocator@U?$pair@$$CBKPAVCClientSockE@@@std@@@3@$0A@@std@@@3@XZ
_TEXT	SEGMENT PARA USE32 PUBLIC 'CODE'
_TEXT	ENDS
;	COMDAT ?_Key@?$_Tree@V?$_Tmap_traits@KP8CDPCoreClient@@AEXAAVCAr@@KKK@ZU?$less@K@std@@V?$allocator@U?$pair@$$CBKP8CDPCoreClient@@AEXAAVCAr@@KKK@Z@std@@@4@$0A@@std@@@std@@KAABKPAU_Node@?$_Tree_nod@V?$_Tmap_traits@KP8CDPCoreClient@@AEXAAVCAr@@KKK@ZU?$less@K@std@@V?$allocator@U?$pair@$$CBKP8CDPCoreClient@@AEXAAVCAr@@KKK@Z@std@@@4@$0A@@std@@@2@@Z
_TEXT	SEGMENT PARA USE32 PUBLIC 'CODE'
_TEXT	ENDS
;	COMDAT ?lower_bound@?$_Tree@V?$_Tmap_traits@KP8CDPCoreClient@@AEXAAVCAr@@KKK@ZU?$less@K@std@@V?$allocator@U?$pair@$$CBKP8CDPCoreClient@@AEXAAVCAr@@KKK@Z@std@@@4@$0A@@std@@@std@@QAE?AViterator@12@ABK@Z
_TEXT	SEGMENT PARA USE32 PUBLIC 'CODE'
_TEXT	ENDS
;	COMDAT ??0iterator@?$_Tree@V?$_Tmap_traits@KP8CDPCoreClient@@AEXAAVCAr@@KKK@ZU?$less@K@std@@V?$allocator@U?$pair@$$CBKP8CDPCoreClient@@AEXAAVCAr@@KKK@Z@std@@@4@$0A@@std@@@std@@QAE@PAU_Node@?$_Tree_nod@V?$_Tmap_traits@KP8CDPCoreClient@@AEXAAVCAr@@KKK@ZU?$less@K@std@@V?$allocator@U?$pair@$$CBKP8CDPCoreClient@@AEXAAVCAr@@KKK@Z@std@@@4@$0A@@std@@@2@@Z
_TEXT	SEGMENT PARA USE32 PUBLIC 'CODE'
_TEXT	ENDS
;	COMDAT ??Diterator@?$_Tree@V?$_Tmap_traits@KP8CDPCoreClient@@AEXAAVCAr@@KKK@ZU?$less@K@std@@V?$allocator@U?$pair@$$CBKP8CDPCoreClient@@AEXAAVCAr@@KKK@Z@std@@@4@$0A@@std@@@std@@QBEAAU?$pair@$$CBKP8CDPCoreClient@@AEXAAVCAr@@KKK@Z@2@XZ
_TEXT	SEGMENT PARA USE32 PUBLIC 'CODE'
_TEXT	ENDS
;	COMDAT ??8const_iterator@?$_Tree@V?$_Tmap_traits@KP8CDPCoreClient@@AEXAAVCAr@@KKK@ZU?$less@K@std@@V?$allocator@U?$pair@$$CBKP8CDPCoreClient@@AEXAAVCAr@@KKK@Z@std@@@4@$0A@@std@@@std@@QBE_NABV012@@Z
_TEXT	SEGMENT PARA USE32 PUBLIC 'CODE'
_TEXT	ENDS
;	COMDAT ?_Mynode@const_iterator@?$_Tree@V?$_Tmap_traits@KP8CDPCoreClient@@AEXAAVCAr@@KKK@ZU?$less@K@std@@V?$allocator@U?$pair@$$CBKP8CDPCoreClient@@AEXAAVCAr@@KKK@Z@std@@@4@$0A@@std@@@std@@QBEPAU_Node@?$_Tree_nod@V?$_Tmap_traits@KP8CDPCoreClient@@AEXAAVCAr@@KKK@ZU?$less@K@std@@V?$allocator@U?$pair@$$CBKP8CDPCoreClient@@AEXAAVCAr@@KKK@Z@std@@@4@$0A@@std@@@3@XZ
_TEXT	SEGMENT PARA USE32 PUBLIC 'CODE'
_TEXT	ENDS
;	COMDAT ?_Key@?$_Tree@V?$_Tmap_traits@KP8CDPDatabaseClient@@AEXAAVCAr@@KK@ZU?$less@K@std@@V?$allocator@U?$pair@$$CBKP8CDPDatabaseClient@@AEXAAVCAr@@KK@Z@std@@@4@$0A@@std@@@std@@KAABKPAU_Node@?$_Tree_nod@V?$_Tmap_traits@KP8CDPDatabaseClient@@AEXAAVCAr@@KK@ZU?$less@K@std@@V?$allocator@U?$pair@$$CBKP8CDPDatabaseClient@@AEXAAVCAr@@KK@Z@std@@@4@$0A@@std@@@2@@Z
_TEXT	SEGMENT PARA USE32 PUBLIC 'CODE'
_TEXT	ENDS
;	COMDAT ?lower_bound@?$_Tree@V?$_Tmap_traits@KP8CDPDatabaseClient@@AEXAAVCAr@@KK@ZU?$less@K@std@@V?$allocator@U?$pair@$$CBKP8CDPDatabaseClient@@AEXAAVCAr@@KK@Z@std@@@4@$0A@@std@@@std@@QAE?AViterator@12@ABK@Z
_TEXT	SEGMENT PARA USE32 PUBLIC 'CODE'
_TEXT	ENDS
;	COMDAT ??0iterator@?$_Tree@V?$_Tmap_traits@KP8CDPDatabaseClient@@AEXAAVCAr@@KK@ZU?$less@K@std@@V?$allocator@U?$pair@$$CBKP8CDPDatabaseClient@@AEXAAVCAr@@KK@Z@std@@@4@$0A@@std@@@std@@QAE@PAU_Node@?$_Tree_nod@V?$_Tmap_traits@KP8CDPDatabaseClient@@AEXAAVCAr@@KK@ZU?$less@K@std@@V?$allocator@U?$pair@$$CBKP8CDPDatabaseClient@@AEXAAVCAr@@KK@Z@std@@@4@$0A@@std@@@2@@Z
_TEXT	SEGMENT PARA USE32 PUBLIC 'CODE'
_TEXT	ENDS
;	COMDAT ??Diterator@?$_Tree@V?$_Tmap_traits@KP8CDPDatabaseClient@@AEXAAVCAr@@KK@ZU?$less@K@std@@V?$allocator@U?$pair@$$CBKP8CDPDatabaseClient@@AEXAAVCAr@@KK@Z@std@@@4@$0A@@std@@@std@@QBEAAU?$pair@$$CBKP8CDPDatabaseClient@@AEXAAVCAr@@KK@Z@2@XZ
_TEXT	SEGMENT PARA USE32 PUBLIC 'CODE'
_TEXT	ENDS
;	COMDAT ??8const_iterator@?$_Tree@V?$_Tmap_traits@KP8CDPDatabaseClient@@AEXAAVCAr@@KK@ZU?$less@K@std@@V?$allocator@U?$pair@$$CBKP8CDPDatabaseClient@@AEXAAVCAr@@KK@Z@std@@@4@$0A@@std@@@std@@QBE_NABV012@@Z
_TEXT	SEGMENT PARA USE32 PUBLIC 'CODE'
_TEXT	ENDS
;	COMDAT ?_Mynode@const_iterator@?$_Tree@V?$_Tmap_traits@KP8CDPDatabaseClient@@AEXAAVCAr@@KK@ZU?$less@K@std@@V?$allocator@U?$pair@$$CBKP8CDPDatabaseClient@@AEXAAVCAr@@KK@Z@std@@@4@$0A@@std@@@std@@QBEPAU_Node@?$_Tree_nod@V?$_Tmap_traits@KP8CDPDatabaseClient@@AEXAAVCAr@@KK@ZU?$less@K@std@@V?$allocator@U?$pair@$$CBKP8CDPDatabaseClient@@AEXAAVCAr@@KK@Z@std@@@4@$0A@@std@@@3@XZ
_TEXT	SEGMENT PARA USE32 PUBLIC 'CODE'
_TEXT	ENDS
;	COMDAT ?_Key@?$_Tree@V?$_Tmap_traits@KP8CDPSrvr@@AEXAAVCAr@@KKPAEK@ZU?$less@K@std@@V?$allocator@U?$pair@$$CBKP8CDPSrvr@@AEXAAVCAr@@KKPAEK@Z@std@@@4@$0A@@std@@@std@@KAABKPAU_Node@?$_Tree_nod@V?$_Tmap_traits@KP8CDPSrvr@@AEXAAVCAr@@KKPAEK@ZU?$less@K@std@@V?$allocator@U?$pair@$$CBKP8CDPSrvr@@AEXAAVCAr@@KKPAEK@Z@std@@@4@$0A@@std@@@2@@Z
_TEXT	SEGMENT PARA USE32 PUBLIC 'CODE'
_TEXT	ENDS
;	COMDAT ?lower_bound@?$_Tree@V?$_Tmap_traits@KP8CDPSrvr@@AEXAAVCAr@@KKPAEK@ZU?$less@K@std@@V?$allocator@U?$pair@$$CBKP8CDPSrvr@@AEXAAVCAr@@KKPAEK@Z@std@@@4@$0A@@std@@@std@@QAE?AViterator@12@ABK@Z
_TEXT	SEGMENT PARA USE32 PUBLIC 'CODE'
_TEXT	ENDS
;	COMDAT ??0iterator@?$_Tree@V?$_Tmap_traits@KP8CDPSrvr@@AEXAAVCAr@@KKPAEK@ZU?$less@K@std@@V?$allocator@U?$pair@$$CBKP8CDPSrvr@@AEXAAVCAr@@KKPAEK@Z@std@@@4@$0A@@std@@@std@@QAE@PAU_Node@?$_Tree_nod@V?$_Tmap_traits@KP8CDPSrvr@@AEXAAVCAr@@KKPAEK@ZU?$less@K@std@@V?$allocator@U?$pair@$$CBKP8CDPSrvr@@AEXAAVCAr@@KKPAEK@Z@std@@@4@$0A@@std@@@2@@Z
_TEXT	SEGMENT PARA USE32 PUBLIC 'CODE'
_TEXT	ENDS
;	COMDAT ??Diterator@?$_Tree@V?$_Tmap_traits@KP8CDPSrvr@@AEXAAVCAr@@KKPAEK@ZU?$less@K@std@@V?$allocator@U?$pair@$$CBKP8CDPSrvr@@AEXAAVCAr@@KKPAEK@Z@std@@@4@$0A@@std@@@std@@QBEAAU?$pair@$$CBKP8CDPSrvr@@AEXAAVCAr@@KKPAEK@Z@2@XZ
_TEXT	SEGMENT PARA USE32 PUBLIC 'CODE'
_TEXT	ENDS
;	COMDAT ??8const_iterator@?$_Tree@V?$_Tmap_traits@KP8CDPSrvr@@AEXAAVCAr@@KKPAEK@ZU?$less@K@std@@V?$allocator@U?$pair@$$CBKP8CDPSrvr@@AEXAAVCAr@@KKPAEK@Z@std@@@4@$0A@@std@@@std@@QBE_NABV012@@Z
_TEXT	SEGMENT PARA USE32 PUBLIC 'CODE'
_TEXT	ENDS
;	COMDAT ?_Mynode@const_iterator@?$_Tree@V?$_Tmap_traits@KP8CDPSrvr@@AEXAAVCAr@@KKPAEK@ZU?$less@K@std@@V?$allocator@U?$pair@$$CBKP8CDPSrvr@@AEXAAVCAr@@KKPAEK@Z@std@@@4@$0A@@std@@@std@@QBEPAU_Node@?$_Tree_nod@V?$_Tmap_traits@KP8CDPSrvr@@AEXAAVCAr@@KKPAEK@ZU?$less@K@std@@V?$allocator@U?$pair@$$CBKP8CDPSrvr@@AEXAAVCAr@@KKPAEK@Z@std@@@4@$0A@@std@@@3@XZ
_TEXT	SEGMENT PARA USE32 PUBLIC 'CODE'
_TEXT	ENDS
;	COMDAT ??Diterator@?$vector@UWORMON@@V?$allocator@UWORMON@@@std@@@std@@QBEAAUWORMON@@XZ
_TEXT	SEGMENT PARA USE32 PUBLIC 'CODE'
_TEXT	ENDS
;	COMDAT ??Hiterator@?$vector@UWORMON@@V?$allocator@UWORMON@@@std@@@std@@QBE?AV012@H@Z
_TEXT	SEGMENT PARA USE32 PUBLIC 'CODE'
_TEXT	ENDS
;	COMDAT ??Diterator@?$vector@PAU__JOINPLAYER@CGuildCombat@@V?$allocator@PAU__JOINPLAYER@CGuildCombat@@@std@@@std@@QBEAAPAU__JOINPLAYER@CGuildCombat@@XZ
_TEXT	SEGMENT PARA USE32 PUBLIC 'CODE'
_TEXT	ENDS
;	COMDAT ??Hiterator@?$vector@PAU__JOINPLAYER@CGuildCombat@@V?$allocator@PAU__JOINPLAYER@CGuildCombat@@@std@@@std@@QBE?AV012@H@Z
_TEXT	SEGMENT PARA USE32 PUBLIC 'CODE'
_TEXT	ENDS
;	COMDAT ??Diterator@?$vector@V?$basic_string@DU?$char_traits@D@std@@V?$allocator@D@2@@std@@V?$allocator@V?$basic_string@DU?$char_traits@D@std@@V?$allocator@D@2@@std@@@2@@std@@QBEAAV?$basic_string@DU?$char_traits@D@std@@V?$allocator@D@2@@2@XZ
_TEXT	SEGMENT PARA USE32 PUBLIC 'CODE'
_TEXT	ENDS
;	COMDAT ??Hiterator@?$vector@V?$basic_string@DU?$char_traits@D@std@@V?$allocator@D@2@@std@@V?$allocator@V?$basic_string@DU?$char_traits@D@std@@V?$allocator@D@2@@std@@@2@@std@@QBE?AV012@H@Z
_TEXT	SEGMENT PARA USE32 PUBLIC 'CODE'
_TEXT	ENDS
;	COMDAT ??Diterator@?$vector@PAVCMiniGameBase@@V?$allocator@PAVCMiniGameBase@@@std@@@std@@QBEAAPAVCMiniGameBase@@XZ
_TEXT	SEGMENT PARA USE32 PUBLIC 'CODE'
_TEXT	ENDS
;	COMDAT ??Hiterator@?$vector@PAVCMiniGameBase@@V?$allocator@PAVCMiniGameBase@@@std@@@std@@QBE?AV012@H@Z
_TEXT	SEGMENT PARA USE32 PUBLIC 'CODE'
_TEXT	ENDS
;	COMDAT ??Diterator@?$vector@UGuildHouse_Furniture_Info@CGuildHouseBase@@V?$allocator@UGuildHouse_Furniture_Info@CGuildHouseBase@@@std@@@std@@QBEAAUGuildHouse_Furniture_Info@CGuildHouseBase@@XZ
_TEXT	SEGMENT PARA USE32 PUBLIC 'CODE'
_TEXT	ENDS
;	COMDAT ??Hiterator@?$vector@UGuildHouse_Furniture_Info@CGuildHouseBase@@V?$allocator@UGuildHouse_Furniture_Info@CGuildHouseBase@@@std@@@std@@QBE?AV012@H@Z
_TEXT	SEGMENT PARA USE32 PUBLIC 'CODE'
_TEXT	ENDS
;	COMDAT ??0?$allocator@V?$basic_string@DU?$char_traits@D@std@@V?$allocator@D@2@@std@@@std@@QAE@ABV01@@Z
_TEXT	SEGMENT PARA USE32 PUBLIC 'CODE'
_TEXT	ENDS
;	COMDAT ?deallocate@?$allocator@V?$basic_string@DU?$char_traits@D@std@@V?$allocator@D@2@@std@@@std@@QAEXPAV?$basic_string@DU?$char_traits@D@std@@V?$allocator@D@2@@2@I@Z
_TEXT	SEGMENT PARA USE32 PUBLIC 'CODE'
_TEXT	ENDS
;	COMDAT ?allocate@?$allocator@V?$basic_string@DU?$char_traits@D@std@@V?$allocator@D@2@@std@@@std@@QAEPAV?$basic_string@DU?$char_traits@D@std@@V?$allocator@D@2@@2@I@Z
_TEXT	SEGMENT PARA USE32 PUBLIC 'CODE'
_TEXT	ENDS
;	COMDAT ?size@?$_Tree@V?$_Tmap_traits@KPAVCCtrl@@U?$less@K@std@@V?$allocator@U?$pair@$$CBKPAVCCtrl@@@std@@@3@$0A@@std@@@std@@QBEIXZ
_TEXT	SEGMENT PARA USE32 PUBLIC 'CODE'
_TEXT	ENDS
;	COMDAT ??0iterator@?$_Tree@V?$_Tmap_traits@KPAVCCtrl@@U?$less@K@std@@V?$allocator@U?$pair@$$CBKPAVCCtrl@@@std@@@3@$0A@@std@@@std@@QAE@XZ
_TEXT	SEGMENT PARA USE32 PUBLIC 'CODE'
_TEXT	ENDS
;	COMDAT ?pop_back@?$deque@PAUtagACTMSG@@V?$allocator@PAUtagACTMSG@@@std@@@std@@QAEXXZ
_TEXT	SEGMENT PARA USE32 PUBLIC 'CODE'
_TEXT	ENDS
;	COMDAT ??0?$_Deque_map@PAUtagACTMSG@@V?$allocator@PAUtagACTMSG@@@std@@@std@@IAE@V?$allocator@PAUtagACTMSG@@@1@@Z
_TEXT	SEGMENT PARA USE32 PUBLIC 'CODE'
_TEXT	ENDS
;	COMDAT ??0?$allocator@PAUtagACTMSG@@@std@@QAE@ABV01@@Z
_TEXT	SEGMENT PARA USE32 PUBLIC 'CODE'
_TEXT	ENDS
;	COMDAT ?deallocate@?$allocator@PAUtagACTMSG@@@std@@QAEXPAPAUtagACTMSG@@I@Z
_TEXT	SEGMENT PARA USE32 PUBLIC 'CODE'
_TEXT	ENDS
;	COMDAT ?deallocate@?$allocator@PAPAUtagACTMSG@@@std@@QAEXPAPAPAUtagACTMSG@@I@Z
_TEXT	SEGMENT PARA USE32 PUBLIC 'CODE'
_TEXT	ENDS
;	COMDAT ?destroy@?$allocator@PAPAUtagACTMSG@@@std@@QAEXPAPAPAUtagACTMSG@@@Z
_TEXT	SEGMENT PARA USE32 PUBLIC 'CODE'
_TEXT	ENDS
;	COMDAT ?pop_back@?$deque@PAUtagMAGICATKMSG@@V?$allocator@PAUtagMAGICATKMSG@@@std@@@std@@QAEXXZ
_TEXT	SEGMENT PARA USE32 PUBLIC 'CODE'
_TEXT	ENDS
;	COMDAT ??0?$_Deque_map@PAUtagMAGICATKMSG@@V?$allocator@PAUtagMAGICATKMSG@@@std@@@std@@IAE@V?$allocator@PAUtagMAGICATKMSG@@@1@@Z
_TEXT	SEGMENT PARA USE32 PUBLIC 'CODE'
_TEXT	ENDS
;	COMDAT ??0?$allocator@PAUtagMAGICATKMSG@@@std@@QAE@ABV01@@Z
_TEXT	SEGMENT PARA USE32 PUBLIC 'CODE'
_TEXT	ENDS
;	COMDAT ?deallocate@?$allocator@PAUtagMAGICATKMSG@@@std@@QAEXPAPAUtagMAGICATKMSG@@I@Z
_TEXT	SEGMENT PARA USE32 PUBLIC 'CODE'
_TEXT	ENDS
;	COMDAT ?deallocate@?$allocator@PAPAUtagMAGICATKMSG@@@std@@QAEXPAPAPAUtagMAGICATKMSG@@I@Z
_TEXT	SEGMENT PARA USE32 PUBLIC 'CODE'
_TEXT	ENDS
;	COMDAT ?destroy@?$allocator@PAPAUtagMAGICATKMSG@@@std@@QAEXPAPAPAUtagMAGICATKMSG@@@Z
_TEXT	SEGMENT PARA USE32 PUBLIC 'CODE'
_TEXT	ENDS
;	COMDAT ??0const_iterator@?$deque@PAUtagACTMSG@@V?$allocator@PAUtagACTMSG@@@std@@@std@@QAE@IPBV12@@Z
_TEXT	SEGMENT PARA USE32 PUBLIC 'CODE'
_TEXT	ENDS
;	COMDAT ??0const_iterator@?$deque@PAUtagMAGICATKMSG@@V?$allocator@PAUtagMAGICATKMSG@@@std@@@std@@QAE@IPBV12@@Z
_TEXT	SEGMENT PARA USE32 PUBLIC 'CODE'
_TEXT	ENDS
;	COMDAT ?begin@?$_Tree@V?$_Tmap_traits@KU_Friend@@U?$less@K@std@@V?$allocator@U?$pair@$$CBKU_Friend@@@std@@@3@$0A@@std@@@std@@QAE?AViterator@12@XZ
_TEXT	SEGMENT PARA USE32 PUBLIC 'CODE'
_TEXT	ENDS
;	COMDAT ?end@?$_Tree@V?$_Tmap_traits@KU_Friend@@U?$less@K@std@@V?$allocator@U?$pair@$$CBKU_Friend@@@std@@@3@$0A@@std@@@std@@QAE?AViterator@12@XZ
_TEXT	SEGMENT PARA USE32 PUBLIC 'CODE'
_TEXT	ENDS
;	COMDAT ?erase@?$_Tree@V?$_Tmap_traits@KU_Friend@@U?$less@K@std@@V?$allocator@U?$pair@$$CBKU_Friend@@@std@@@3@$0A@@std@@@std@@QAE?AViterator@12@V312@@Z
_TEXT	SEGMENT PARA USE32 PUBLIC 'CODE'
_TEXT	ENDS
;	COMDAT ?clear@?$_Tree@V?$_Tmap_traits@KU_Friend@@U?$less@K@std@@V?$allocator@U?$pair@$$CBKU_Friend@@@std@@@3@$0A@@std@@@std@@QAEXXZ
_TEXT	SEGMENT PARA USE32 PUBLIC 'CODE'
_TEXT	ENDS
;	COMDAT ?lower_bound@?$_Tree@V?$_Tmap_traits@KU_Friend@@U?$less@K@std@@V?$allocator@U?$pair@$$CBKU_Friend@@@std@@@3@$0A@@std@@@std@@QAE?AViterator@12@ABK@Z
_TEXT	SEGMENT PARA USE32 PUBLIC 'CODE'
_TEXT	ENDS
;	COMDAT ?upper_bound@?$_Tree@V?$_Tmap_traits@KU_Friend@@U?$less@K@std@@V?$allocator@U?$pair@$$CBKU_Friend@@@std@@@3@$0A@@std@@@std@@QAE?AViterator@12@ABK@Z
_TEXT	SEGMENT PARA USE32 PUBLIC 'CODE'
_TEXT	ENDS
;	COMDAT ??Eiterator@?$_Tree@V?$_Tmap_traits@KU_Friend@@U?$less@K@std@@V?$allocator@U?$pair@$$CBKU_Friend@@@std@@@3@$0A@@std@@@std@@QAE?AV012@H@Z
_TEXT	SEGMENT PARA USE32 PUBLIC 'CODE'
_TEXT	ENDS
;	COMDAT ??8const_iterator@?$_Tree@V?$_Tmap_traits@KU_Friend@@U?$less@K@std@@V?$allocator@U?$pair@$$CBKU_Friend@@@std@@@3@$0A@@std@@@std@@QBE_NABV012@@Z
_TEXT	SEGMENT PARA USE32 PUBLIC 'CODE'
_TEXT	ENDS
;	COMDAT ??9const_iterator@?$_Tree@V?$_Tmap_traits@KU_Friend@@U?$less@K@std@@V?$allocator@U?$pair@$$CBKU_Friend@@@std@@@3@$0A@@std@@@std@@QBE_NABV012@@Z
_TEXT	SEGMENT PARA USE32 PUBLIC 'CODE'
_TEXT	ENDS
;	COMDAT ?_Destroy@?$vector@PAU__JOINPLAYER@CGuildCombat@@V?$allocator@PAU__JOINPLAYER@CGuildCombat@@@std@@@std@@IAEXPAPAU__JOINPLAYER@CGuildCombat@@0@Z
_TEXT	SEGMENT PARA USE32 PUBLIC 'CODE'
_TEXT	ENDS
;	COMDAT ?deallocate@?$allocator@PAU__JOINPLAYER@CGuildCombat@@@std@@QAEXPAPAU__JOINPLAYER@CGuildCombat@@I@Z
_TEXT	SEGMENT PARA USE32 PUBLIC 'CODE'
_TEXT	ENDS
;	COMDAT ?max_size@?$vector@U__SECRETROOM_MONSTER@@V?$allocator@U__SECRETROOM_MONSTER@@@std@@@std@@QBEIXZ
_TEXT	SEGMENT PARA USE32 PUBLIC 'CODE'
_TEXT	ENDS
;	COMDAT ?_Destroy@?$vector@U__SECRETROOM_MONSTER@@V?$allocator@U__SECRETROOM_MONSTER@@@std@@@std@@IAEXPAU__SECRETROOM_MONSTER@@0@Z
_TEXT	SEGMENT PARA USE32 PUBLIC 'CODE'
_TEXT	ENDS
;	COMDAT ?_Xlen@?$vector@U__SECRETROOM_MONSTER@@V?$allocator@U__SECRETROOM_MONSTER@@@std@@@std@@IBEXXZ
_TEXT	SEGMENT PARA USE32 PUBLIC 'CODE'
_TEXT	ENDS
;	COMDAT ??0?$allocator@U__SECRETROOM_MONSTER@@@std@@QAE@ABV01@@Z
_TEXT	SEGMENT PARA USE32 PUBLIC 'CODE'
_TEXT	ENDS
;	COMDAT ?deallocate@?$allocator@U__SECRETROOM_MONSTER@@@std@@QAEXPAU__SECRETROOM_MONSTER@@I@Z
_TEXT	SEGMENT PARA USE32 PUBLIC 'CODE'
_TEXT	ENDS
;	COMDAT ?allocate@?$allocator@U__SECRETROOM_MONSTER@@@std@@QAEPAU__SECRETROOM_MONSTER@@I@Z
_TEXT	SEGMENT PARA USE32 PUBLIC 'CODE'
_TEXT	ENDS
;	COMDAT ?max_size@?$vector@V?$basic_string@DU?$char_traits@D@std@@V?$allocator@D@2@@std@@V?$allocator@V?$basic_string@DU?$char_traits@D@std@@V?$allocator@D@2@@std@@@2@@std@@QBEIXZ
_TEXT	SEGMENT PARA USE32 PUBLIC 'CODE'
_TEXT	ENDS
;	COMDAT ?_Destroy@?$vector@V?$basic_string@DU?$char_traits@D@std@@V?$allocator@D@2@@std@@V?$allocator@V?$basic_string@DU?$char_traits@D@std@@V?$allocator@D@2@@std@@@2@@std@@IAEXPAV?$basic_string@DU?$char_traits@D@std@@V?$allocator@D@2@@2@0@Z
_TEXT	SEGMENT PARA USE32 PUBLIC 'CODE'
_TEXT	ENDS
;	COMDAT ?_Insert_n@?$vector@V?$basic_string@DU?$char_traits@D@std@@V?$allocator@D@2@@std@@V?$allocator@V?$basic_string@DU?$char_traits@D@std@@V?$allocator@D@2@@std@@@2@@std@@IAEXViterator@12@IABV?$basic_string@DU?$char_traits@D@std@@V?$allocator@D@2@@2@@Z
_TEXT	SEGMENT PARA USE32 PUBLIC 'CODE'
_TEXT	ENDS
;	COMDAT ?_Xlen@?$vector@V?$basic_string@DU?$char_traits@D@std@@V?$allocator@D@2@@std@@V?$allocator@V?$basic_string@DU?$char_traits@D@std@@V?$allocator@D@2@@std@@@2@@std@@IBEXXZ
_TEXT	SEGMENT PARA USE32 PUBLIC 'CODE'
_TEXT	ENDS
;	COMDAT ?begin@?$vector@UMINIGMAME_PRIZE_LIST@CRainbowRaceMng@@V?$allocator@UMINIGMAME_PRIZE_LIST@CRainbowRaceMng@@@std@@@std@@QAE?AViterator@12@XZ
_TEXT	SEGMENT PARA USE32 PUBLIC 'CODE'
_TEXT	ENDS
;	COMDAT ?_Insert_n@?$vector@UMINIGMAME_PRIZE_LIST@CRainbowRaceMng@@V?$allocator@UMINIGMAME_PRIZE_LIST@CRainbowRaceMng@@@std@@@std@@IAEXViterator@12@IABUMINIGMAME_PRIZE_LIST@CRainbowRaceMng@@@Z
_TEXT	SEGMENT PARA USE32 PUBLIC 'CODE'
_TEXT	ENDS
;	COMDAT ?_Color@?$_Tree@V?$_Tmap_traits@KPAVCGuildHouseBase@@U?$less@K@std@@V?$allocator@U?$pair@$$CBKPAVCGuildHouseBase@@@std@@@3@$0A@@std@@@std@@KAAADPAU_Node@?$_Tree_nod@V?$_Tmap_traits@KPAVCGuildHouseBase@@U?$less@K@std@@V?$allocator@U?$pair@$$CBKPAVCGuildHouseBase@@@std@@@3@$0A@@std@@@2@@Z
_TEXT	SEGMENT PARA USE32 PUBLIC 'CODE'
_TEXT	ENDS
;	COMDAT ?_Parent@?$_Tree@V?$_Tmap_traits@KPAVCGuildHouseBase@@U?$less@K@std@@V?$allocator@U?$pair@$$CBKPAVCGuildHouseBase@@@std@@@3@$0A@@std@@@std@@KAAAPAU_Node@?$_Tree_nod@V?$_Tmap_traits@KPAVCGuildHouseBase@@U?$less@K@std@@V?$allocator@U?$pair@$$CBKPAVCGuildHouseBase@@@std@@@3@$0A@@std@@@2@PAU342@@Z
_TEXT	SEGMENT PARA USE32 PUBLIC 'CODE'
_TEXT	ENDS
;	COMDAT ?_Myval@?$_Tree@V?$_Tmap_traits@KPAVCGuildHouseBase@@U?$less@K@std@@V?$allocator@U?$pair@$$CBKPAVCGuildHouseBase@@@std@@@3@$0A@@std@@@std@@KAAAU?$pair@$$CBKPAVCGuildHouseBase@@@2@PAU_Node@?$_Tree_nod@V?$_Tmap_traits@KPAVCGuildHouseBase@@U?$less@K@std@@V?$allocator@U?$pair@$$CBKPAVCGuildHouseBase@@@std@@@3@$0A@@std@@@2@@Z
_TEXT	SEGMENT PARA USE32 PUBLIC 'CODE'
_TEXT	ENDS
;	COMDAT ?max_size@?$_Tree@V?$_Tmap_traits@KPAVCGuildHouseBase@@U?$less@K@std@@V?$allocator@U?$pair@$$CBKPAVCGuildHouseBase@@@std@@@3@$0A@@std@@@std@@QBEIXZ
_TEXT	SEGMENT PARA USE32 PUBLIC 'CODE'
_TEXT	ENDS
;	COMDAT ?_Lmost@?$_Tree@V?$_Tmap_traits@KPAVCGuildHouseBase@@U?$less@K@std@@V?$allocator@U?$pair@$$CBKPAVCGuildHouseBase@@@std@@@3@$0A@@std@@@std@@IAEAAPAU_Node@?$_Tree_nod@V?$_Tmap_traits@KPAVCGuildHouseBase@@U?$less@K@std@@V?$allocator@U?$pair@$$CBKPAVCGuildHouseBase@@@std@@@3@$0A@@std@@@2@XZ
_TEXT	SEGMENT PARA USE32 PUBLIC 'CODE'
_TEXT	ENDS
;	COMDAT ?_Lrotate@?$_Tree@V?$_Tmap_traits@KPAVCGuildHouseBase@@U?$less@K@std@@V?$allocator@U?$pair@$$CBKPAVCGuildHouseBase@@@std@@@3@$0A@@std@@@std@@IAEXPAU_Node@?$_Tree_nod@V?$_Tmap_traits@KPAVCGuildHouseBase@@U?$less@K@std@@V?$allocator@U?$pair@$$CBKPAVCGuildHouseBase@@@std@@@3@$0A@@std@@@2@@Z
_TEXT	SEGMENT PARA USE32 PUBLIC 'CODE'
_TEXT	ENDS
;	COMDAT ?_Rmost@?$_Tree@V?$_Tmap_traits@KPAVCGuildHouseBase@@U?$less@K@std@@V?$allocator@U?$pair@$$CBKPAVCGuildHouseBase@@@std@@@3@$0A@@std@@@std@@IAEAAPAU_Node@?$_Tree_nod@V?$_Tmap_traits@KPAVCGuildHouseBase@@U?$less@K@std@@V?$allocator@U?$pair@$$CBKPAVCGuildHouseBase@@@std@@@3@$0A@@std@@@2@XZ
_TEXT	SEGMENT PARA USE32 PUBLIC 'CODE'
_TEXT	ENDS
;	COMDAT ?_Rrotate@?$_Tree@V?$_Tmap_traits@KPAVCGuildHouseBase@@U?$less@K@std@@V?$allocator@U?$pair@$$CBKPAVCGuildHouseBase@@@std@@@3@$0A@@std@@@std@@IAEXPAU_Node@?$_Tree_nod@V?$_Tmap_traits@KPAVCGuildHouseBase@@U?$less@K@std@@V?$allocator@U?$pair@$$CBKPAVCGuildHouseBase@@@std@@@3@$0A@@std@@@2@@Z
_TEXT	SEGMENT PARA USE32 PUBLIC 'CODE'
_TEXT	ENDS
;	COMDAT ?_Buynode@?$_Tree@V?$_Tmap_traits@KPAVCGuildHouseBase@@U?$less@K@std@@V?$allocator@U?$pair@$$CBKPAVCGuildHouseBase@@@std@@@3@$0A@@std@@@std@@IAEPAU_Node@?$_Tree_nod@V?$_Tmap_traits@KPAVCGuildHouseBase@@U?$less@K@std@@V?$allocator@U?$pair@$$CBKPAVCGuildHouseBase@@@std@@@3@$0A@@std@@@2@PAU342@00ABU?$pair@$$CBKPAVCGuildHouseBase@@@2@D@Z
_TEXT	SEGMENT PARA USE32 PUBLIC 'CODE'
_TEXT	ENDS
;	COMDAT ??0const_iterator@?$_Tree@V?$_Tmap_traits@KPAVCGuildHouseBase@@U?$less@K@std@@V?$allocator@U?$pair@$$CBKPAVCGuildHouseBase@@@std@@@3@$0A@@std@@@std@@QAE@PAU_Node@?$_Tree_nod@V?$_Tmap_traits@KPAVCGuildHouseBase@@U?$less@K@std@@V?$allocator@U?$pair@$$CBKPAVCGuildHouseBase@@@std@@@3@$0A@@std@@@2@@Z
_TEXT	SEGMENT PARA USE32 PUBLIC 'CODE'
_TEXT	ENDS
;	COMDAT ??Fconst_iterator@?$_Tree@V?$_Tmap_traits@KPAVCGuildHouseBase@@U?$less@K@std@@V?$allocator@U?$pair@$$CBKPAVCGuildHouseBase@@@std@@@3@$0A@@std@@@std@@QAEAAV012@XZ
_TEXT	SEGMENT PARA USE32 PUBLIC 'CODE'
_TEXT	ENDS
;	COMDAT ?begin@?$_Tree@V?$_Tmap_traits@KKU?$less@K@std@@V?$allocator@U?$pair@$$CBKK@std@@@2@$0A@@std@@@std@@QAE?AViterator@12@XZ
_TEXT	SEGMENT PARA USE32 PUBLIC 'CODE'
_TEXT	ENDS
;	COMDAT ?end@?$_Tree@V?$_Tmap_traits@KKU?$less@K@std@@V?$allocator@U?$pair@$$CBKK@std@@@2@$0A@@std@@@std@@QAE?AViterator@12@XZ
_TEXT	SEGMENT PARA USE32 PUBLIC 'CODE'
_TEXT	ENDS
;	COMDAT ?erase@?$_Tree@V?$_Tmap_traits@KKU?$less@K@std@@V?$allocator@U?$pair@$$CBKK@std@@@2@$0A@@std@@@std@@QAE?AViterator@12@V312@@Z
_TEXT	SEGMENT PARA USE32 PUBLIC 'CODE'
_TEXT	ENDS
;	COMDAT ?clear@?$_Tree@V?$_Tmap_traits@KKU?$less@K@std@@V?$allocator@U?$pair@$$CBKK@std@@@2@$0A@@std@@@std@@QAEXXZ
_TEXT	SEGMENT PARA USE32 PUBLIC 'CODE'
_TEXT	ENDS
;	COMDAT ?lower_bound@?$_Tree@V?$_Tmap_traits@KKU?$less@K@std@@V?$allocator@U?$pair@$$CBKK@std@@@2@$0A@@std@@@std@@QAE?AViterator@12@ABK@Z
_TEXT	SEGMENT PARA USE32 PUBLIC 'CODE'
_TEXT	ENDS
;	COMDAT ?upper_bound@?$_Tree@V?$_Tmap_traits@KKU?$less@K@std@@V?$allocator@U?$pair@$$CBKK@std@@@2@$0A@@std@@@std@@QAE?AViterator@12@ABK@Z
_TEXT	SEGMENT PARA USE32 PUBLIC 'CODE'
_TEXT	ENDS
;	COMDAT ??Eiterator@?$_Tree@V?$_Tmap_traits@KKU?$less@K@std@@V?$allocator@U?$pair@$$CBKK@std@@@2@$0A@@std@@@std@@QAE?AV012@H@Z
_TEXT	SEGMENT PARA USE32 PUBLIC 'CODE'
_TEXT	ENDS
;	COMDAT ??8const_iterator@?$_Tree@V?$_Tmap_traits@KKU?$less@K@std@@V?$allocator@U?$pair@$$CBKK@std@@@2@$0A@@std@@@std@@QBE_NABV012@@Z
_TEXT	SEGMENT PARA USE32 PUBLIC 'CODE'
_TEXT	ENDS
;	COMDAT ??9const_iterator@?$_Tree@V?$_Tmap_traits@KKU?$less@K@std@@V?$allocator@U?$pair@$$CBKK@std@@@2@$0A@@std@@@std@@QBE_NABV012@@Z
_TEXT	SEGMENT PARA USE32 PUBLIC 'CODE'
_TEXT	ENDS
;	COMDAT ?_Left@?$_Tree@V?$_Tmap_traits@KPAVCClientSock@@U?$less@K@std@@V?$allocator@U?$pair@$$CBKPAVCClientSock@@@std@@@3@$0A@@std@@@std@@KAAAPAU_Node@?$_Tree_nod@V?$_Tmap_traits@KPAVCClientSock@@U?$less@K@std@@V?$allocator@U?$pair@$$CBKPAVCClientSock@@@std@@@3@$0A@@std@@@2@PAU342@@Z
_TEXT	SEGMENT PARA USE32 PUBLIC 'CODE'
_TEXT	ENDS
;	COMDAT ?_Parent@?$_Tree@V?$_Tmap_traits@KPAVCClientSock@@U?$less@K@std@@V?$allocator@U?$pair@$$CBKPAVCClientSock@@@std@@@3@$0A@@std@@@std@@KAAAPAU_Node@?$_Tree_nod@V?$_Tmap_traits@KPAVCClientSock@@U?$less@K@std@@V?$allocator@U?$pair@$$CBKPAVCClientSock@@@std@@@3@$0A@@std@@@2@PAU342@@Z
_TEXT	SEGMENT PARA USE32 PUBLIC 'CODE'
_TEXT	ENDS
;	COMDAT ?_Right@?$_Tree@V?$_Tmap_traits@KPAVCClientSock@@U?$less@K@std@@V?$allocator@U?$pair@$$CBKPAVCClientSock@@@std@@@3@$0A@@std@@@std@@KAAAPAU_Node@?$_Tree_nod@V?$_Tmap_traits@KPAVCClientSock@@U?$less@K@std@@V?$allocator@U?$pair@$$CBKPAVCClientSock@@@std@@@3@$0A@@std@@@2@PAU342@@Z
_TEXT	SEGMENT PARA USE32 PUBLIC 'CODE'
_TEXT	ENDS
;	COMDAT ?_Myval@?$_Tree@V?$_Tmap_traits@KPAVCClientSock@@U?$less@K@std@@V?$allocator@U?$pair@$$CBKPAVCClientSock@@@std@@@3@$0A@@std@@@std@@KAAAU?$pair@$$CBKPAVCClientSock@@@2@PAU_Node@?$_Tree_nod@V?$_Tmap_traits@KPAVCClientSock@@U?$less@K@std@@V?$allocator@U?$pair@$$CBKPAVCClientSock@@@std@@@3@$0A@@std@@@2@@Z
_TEXT	SEGMENT PARA USE32 PUBLIC 'CODE'
_TEXT	ENDS
;	COMDAT ?begin@?$_Tree@V?$_Tmap_traits@KPAVCClientSock@@U?$less@K@std@@V?$allocator@U?$pair@$$CBKPAVCClientSock@@@std@@@3@$0A@@std@@@std@@QAE?AViterator@12@XZ
_TEXT	SEGMENT PARA USE32 PUBLIC 'CODE'
_TEXT	ENDS
;	COMDAT ?erase@?$_Tree@V?$_Tmap_traits@KPAVCClientSock@@U?$less@K@std@@V?$allocator@U?$pair@$$CBKPAVCClientSock@@@std@@@3@$0A@@std@@@std@@QAE?AViterator@12@V312@0@Z
_TEXT	SEGMENT PARA USE32 PUBLIC 'CODE'
_TEXT	ENDS
;	COMDAT ?_Init@?$_Tree@V?$_Tmap_traits@KPAVCClientSock@@U?$less@K@std@@V?$allocator@U?$pair@$$CBKPAVCClientSock@@@std@@@3@$0A@@std@@@std@@IAEXXZ
_TEXT	SEGMENT PARA USE32 PUBLIC 'CODE'
_TEXT	ENDS
;	COMDAT ?_Lbound@?$_Tree@V?$_Tmap_traits@KPAVCClientSock@@U?$less@K@std@@V?$allocator@U?$pair@$$CBKPAVCClientSock@@@std@@@3@$0A@@std@@@std@@IBEPAU_Node@?$_Tree_nod@V?$_Tmap_traits@KPAVCClientSock@@U?$less@K@std@@V?$allocator@U?$pair@$$CBKPAVCClientSock@@@std@@@3@$0A@@std@@@2@ABK@Z
_TEXT	SEGMENT PARA USE32 PUBLIC 'CODE'
_TEXT	ENDS
;	COMDAT ??0?$_Tree_val@V?$_Tmap_traits@KPAVCClientSock@@U?$less@K@std@@V?$allocator@U?$pair@$$CBKPAVCClientSock@@@std@@@3@$0A@@std@@@std@@IAE@ABU?$less@K@1@V?$allocator@U?$pair@$$CBKPAVCClientSock@@@std@@@1@@Z
_TEXT	SEGMENT PARA USE32 PUBLIC 'CODE'
_TEXT	ENDS
;	COMDAT ?_Kfn@?$_Tmap_traits@KPAVCClientSock@@U?$less@K@std@@V?$allocator@U?$pair@$$CBKPAVCClientSock@@@std@@@3@$0A@@std@@SAABKABU?$pair@$$CBKPAVCClientSock@@@2@@Z
_TEXT	SEGMENT PARA USE32 PUBLIC 'CODE'
_TEXT	ENDS
;	COMDAT ??0?$allocator@U?$pair@$$CBKPAVCClientSock@@@std@@@std@@QAE@ABV01@@Z
_TEXT	SEGMENT PARA USE32 PUBLIC 'CODE'
_TEXT	ENDS
;	COMDAT ?deallocate@?$allocator@U_Node@?$_Tree_nod@V?$_Tmap_traits@KPAVCClientSock@@U?$less@K@std@@V?$allocator@U?$pair@$$CBKPAVCClientSock@@@std@@@3@$0A@@std@@@std@@@std@@QAEXPAU_Node@?$_Tree_nod@V?$_Tmap_traits@KPAVCClientSock@@U?$less@K@std@@V?$allocator@U?$pair@$$CBKPAVCClientSock@@@std@@@3@$0A@@std@@@2@I@Z
_TEXT	SEGMENT PARA USE32 PUBLIC 'CODE'
_TEXT	ENDS
;	COMDAT ?destroy@?$allocator@PAU_Node@?$_Tree_nod@V?$_Tmap_traits@KPAVCClientSock@@U?$less@K@std@@V?$allocator@U?$pair@$$CBKPAVCClientSock@@@std@@@3@$0A@@std@@@std@@@std@@QAEXPAPAU_Node@?$_Tree_nod@V?$_Tmap_traits@KPAVCClientSock@@U?$less@K@std@@V?$allocator@U?$pair@$$CBKPAVCClientSock@@@std@@@3@$0A@@std@@@2@@Z
_TEXT	SEGMENT PARA USE32 PUBLIC 'CODE'
_TEXT	ENDS
;	COMDAT ??0const_iterator@?$_Tree@V?$_Tmap_traits@KPAVCClientSock@@U?$less@K@std@@V?$allocator@U?$pair@$$CBKPAVCClientSock@@@std@@@3@$0A@@std@@@std@@QAE@PAU_Node@?$_Tree_nod@V?$_Tmap_traits@KPAVCClientSock@@U?$less@K@std@@V?$allocator@U?$pair@$$CBKPAVCClientSock@@@std@@@3@$0A@@std@@@2@@Z
_TEXT	SEGMENT PARA USE32 PUBLIC 'CODE'
_TEXT	ENDS
;	COMDAT ??Dconst_iterator@?$_Tree@V?$_Tmap_traits@KPAVCClientSock@@U?$less@K@std@@V?$allocator@U?$pair@$$CBKPAVCClientSock@@@std@@@3@$0A@@std@@@std@@QBEABU?$pair@$$CBKPAVCClientSock@@@2@XZ
_TEXT	SEGMENT PARA USE32 PUBLIC 'CODE'
_TEXT	ENDS
;	COMDAT ?_Left@?$_Tree@V?$_Tmap_traits@KPAVCClientSockE@@U?$less@K@std@@V?$allocator@U?$pair@$$CBKPAVCClientSockE@@@std@@@3@$0A@@std@@@std@@KAAAPAU_Node@?$_Tree_nod@V?$_Tmap_traits@KPAVCClientSockE@@U?$less@K@std@@V?$allocator@U?$pair@$$CBKPAVCClientSockE@@@std@@@3@$0A@@std@@@2@PAU342@@Z
_TEXT	SEGMENT PARA USE32 PUBLIC 'CODE'
_TEXT	ENDS
;	COMDAT ?_Parent@?$_Tree@V?$_Tmap_traits@KPAVCClientSockE@@U?$less@K@std@@V?$allocator@U?$pair@$$CBKPAVCClientSockE@@@std@@@3@$0A@@std@@@std@@KAAAPAU_Node@?$_Tree_nod@V?$_Tmap_traits@KPAVCClientSockE@@U?$less@K@std@@V?$allocator@U?$pair@$$CBKPAVCClientSockE@@@std@@@3@$0A@@std@@@2@PAU342@@Z
_TEXT	SEGMENT PARA USE32 PUBLIC 'CODE'
_TEXT	ENDS
;	COMDAT ?_Right@?$_Tree@V?$_Tmap_traits@KPAVCClientSockE@@U?$less@K@std@@V?$allocator@U?$pair@$$CBKPAVCClientSockE@@@std@@@3@$0A@@std@@@std@@KAAAPAU_Node@?$_Tree_nod@V?$_Tmap_traits@KPAVCClientSockE@@U?$less@K@std@@V?$allocator@U?$pair@$$CBKPAVCClientSockE@@@std@@@3@$0A@@std@@@2@PAU342@@Z
_TEXT	SEGMENT PARA USE32 PUBLIC 'CODE'
_TEXT	ENDS
;	COMDAT ?_Myval@?$_Tree@V?$_Tmap_traits@KPAVCClientSockE@@U?$less@K@std@@V?$allocator@U?$pair@$$CBKPAVCClientSockE@@@std@@@3@$0A@@std@@@std@@KAAAU?$pair@$$CBKPAVCClientSockE@@@2@PAU_Node@?$_Tree_nod@V?$_Tmap_traits@KPAVCClientSockE@@U?$less@K@std@@V?$allocator@U?$pair@$$CBKPAVCClientSockE@@@std@@@3@$0A@@std@@@2@@Z
_TEXT	SEGMENT PARA USE32 PUBLIC 'CODE'
_TEXT	ENDS
;	COMDAT ?begin@?$_Tree@V?$_Tmap_traits@KPAVCClientSockE@@U?$less@K@std@@V?$allocator@U?$pair@$$CBKPAVCClientSockE@@@std@@@3@$0A@@std@@@std@@QAE?AViterator@12@XZ
_TEXT	SEGMENT PARA USE32 PUBLIC 'CODE'
_TEXT	ENDS
;	COMDAT ?erase@?$_Tree@V?$_Tmap_traits@KPAVCClientSockE@@U?$less@K@std@@V?$allocator@U?$pair@$$CBKPAVCClientSockE@@@std@@@3@$0A@@std@@@std@@QAE?AViterator@12@V312@0@Z
_TEXT	SEGMENT PARA USE32 PUBLIC 'CODE'
_TEXT	ENDS
;	COMDAT ?_Init@?$_Tree@V?$_Tmap_traits@KPAVCClientSockE@@U?$less@K@std@@V?$allocator@U?$pair@$$CBKPAVCClientSockE@@@std@@@3@$0A@@std@@@std@@IAEXXZ
_TEXT	SEGMENT PARA USE32 PUBLIC 'CODE'
_TEXT	ENDS
;	COMDAT ?_Lbound@?$_Tree@V?$_Tmap_traits@KPAVCClientSockE@@U?$less@K@std@@V?$allocator@U?$pair@$$CBKPAVCClientSockE@@@std@@@3@$0A@@std@@@std@@IBEPAU_Node@?$_Tree_nod@V?$_Tmap_traits@KPAVCClientSockE@@U?$less@K@std@@V?$allocator@U?$pair@$$CBKPAVCClientSockE@@@std@@@3@$0A@@std@@@2@ABK@Z
_TEXT	SEGMENT PARA USE32 PUBLIC 'CODE'
_TEXT	ENDS
;	COMDAT ??0?$_Tree_val@V?$_Tmap_traits@KPAVCClientSockE@@U?$less@K@std@@V?$allocator@U?$pair@$$CBKPAVCClientSockE@@@std@@@3@$0A@@std@@@std@@IAE@ABU?$less@K@1@V?$allocator@U?$pair@$$CBKPAVCClientSockE@@@std@@@1@@Z
_TEXT	SEGMENT PARA USE32 PUBLIC 'CODE'
_TEXT	ENDS
;	COMDAT ?_Kfn@?$_Tmap_traits@KPAVCClientSockE@@U?$less@K@std@@V?$allocator@U?$pair@$$CBKPAVCClientSockE@@@std@@@3@$0A@@std@@SAABKABU?$pair@$$CBKPAVCClientSockE@@@2@@Z
_TEXT	SEGMENT PARA USE32 PUBLIC 'CODE'
_TEXT	ENDS
;	COMDAT ??0?$allocator@U?$pair@$$CBKPAVCClientSockE@@@std@@@std@@QAE@ABV01@@Z
_TEXT	SEGMENT PARA USE32 PUBLIC 'CODE'
_TEXT	ENDS
;	COMDAT ?deallocate@?$allocator@U_Node@?$_Tree_nod@V?$_Tmap_traits@KPAVCClientSockE@@U?$less@K@std@@V?$allocator@U?$pair@$$CBKPAVCClientSockE@@@std@@@3@$0A@@std@@@std@@@std@@QAEXPAU_Node@?$_Tree_nod@V?$_Tmap_traits@KPAVCClientSockE@@U?$less@K@std@@V?$allocator@U?$pair@$$CBKPAVCClientSockE@@@std@@@3@$0A@@std@@@2@I@Z
_TEXT	SEGMENT PARA USE32 PUBLIC 'CODE'
_TEXT	ENDS
;	COMDAT ?destroy@?$allocator@PAU_Node@?$_Tree_nod@V?$_Tmap_traits@KPAVCClientSockE@@U?$less@K@std@@V?$allocator@U?$pair@$$CBKPAVCClientSockE@@@std@@@3@$0A@@std@@@std@@@std@@QAEXPAPAU_Node@?$_Tree_nod@V?$_Tmap_traits@KPAVCClientSockE@@U?$less@K@std@@V?$allocator@U?$pair@$$CBKPAVCClientSockE@@@std@@@3@$0A@@std@@@2@@Z
_TEXT	SEGMENT PARA USE32 PUBLIC 'CODE'
_TEXT	ENDS
;	COMDAT ??0const_iterator@?$_Tree@V?$_Tmap_traits@KPAVCClientSockE@@U?$less@K@std@@V?$allocator@U?$pair@$$CBKPAVCClientSockE@@@std@@@3@$0A@@std@@@std@@QAE@PAU_Node@?$_Tree_nod@V?$_Tmap_traits@KPAVCClientSockE@@U?$less@K@std@@V?$allocator@U?$pair@$$CBKPAVCClientSockE@@@std@@@3@$0A@@std@@@2@@Z
_TEXT	SEGMENT PARA USE32 PUBLIC 'CODE'
_TEXT	ENDS
;	COMDAT ??Dconst_iterator@?$_Tree@V?$_Tmap_traits@KPAVCClientSockE@@U?$less@K@std@@V?$allocator@U?$pair@$$CBKPAVCClientSockE@@@std@@@3@$0A@@std@@@std@@QBEABU?$pair@$$CBKPAVCClientSockE@@@2@XZ
_TEXT	SEGMENT PARA USE32 PUBLIC 'CODE'
_TEXT	ENDS
;	COMDAT ?_Myval@?$_Tree@V?$_Tmap_traits@KP8CDPCoreClient@@AEXAAVCAr@@KKK@ZU?$less@K@std@@V?$allocator@U?$pair@$$CBKP8CDPCoreClient@@AEXAAVCAr@@KKK@Z@std@@@4@$0A@@std@@@std@@KAAAU?$pair@$$CBKP8CDPCoreClient@@AEXAAVCAr@@KKK@Z@2@PAU_Node@?$_Tree_nod@V?$_Tmap_traits@KP8CDPCoreClient@@AEXAAVCAr@@KKK@ZU?$less@K@std@@V?$allocator@U?$pair@$$CBKP8CDPCoreClient@@AEXAAVCAr@@KKK@Z@std@@@4@$0A@@std@@@2@@Z
_TEXT	SEGMENT PARA USE32 PUBLIC 'CODE'
_TEXT	ENDS
;	COMDAT ?_Lbound@?$_Tree@V?$_Tmap_traits@KP8CDPCoreClient@@AEXAAVCAr@@KKK@ZU?$less@K@std@@V?$allocator@U?$pair@$$CBKP8CDPCoreClient@@AEXAAVCAr@@KKK@Z@std@@@4@$0A@@std@@@std@@IBEPAU_Node@?$_Tree_nod@V?$_Tmap_traits@KP8CDPCoreClient@@AEXAAVCAr@@KKK@ZU?$less@K@std@@V?$allocator@U?$pair@$$CBKP8CDPCoreClient@@AEXAAVCAr@@KKK@Z@std@@@4@$0A@@std@@@2@ABK@Z
_TEXT	SEGMENT PARA USE32 PUBLIC 'CODE'
_TEXT	ENDS
;	COMDAT ?_Kfn@?$_Tmap_traits@KP8CDPCoreClient@@AEXAAVCAr@@KKK@ZU?$less@K@std@@V?$allocator@U?$pair@$$CBKP8CDPCoreClient@@AEXAAVCAr@@KKK@Z@std@@@4@$0A@@std@@SAABKABU?$pair@$$CBKP8CDPCoreClient@@AEXAAVCAr@@KKK@Z@2@@Z
_TEXT	SEGMENT PARA USE32 PUBLIC 'CODE'
_TEXT	ENDS
;	COMDAT ??0const_iterator@?$_Tree@V?$_Tmap_traits@KP8CDPCoreClient@@AEXAAVCAr@@KKK@ZU?$less@K@std@@V?$allocator@U?$pair@$$CBKP8CDPCoreClient@@AEXAAVCAr@@KKK@Z@std@@@4@$0A@@std@@@std@@QAE@PAU_Node@?$_Tree_nod@V?$_Tmap_traits@KP8CDPCoreClient@@AEXAAVCAr@@KKK@ZU?$less@K@std@@V?$allocator@U?$pair@$$CBKP8CDPCoreClient@@AEXAAVCAr@@KKK@Z@std@@@4@$0A@@std@@@2@@Z
_TEXT	SEGMENT PARA USE32 PUBLIC 'CODE'
_TEXT	ENDS
;	COMDAT ??Dconst_iterator@?$_Tree@V?$_Tmap_traits@KP8CDPCoreClient@@AEXAAVCAr@@KKK@ZU?$less@K@std@@V?$allocator@U?$pair@$$CBKP8CDPCoreClient@@AEXAAVCAr@@KKK@Z@std@@@4@$0A@@std@@@std@@QBEABU?$pair@$$CBKP8CDPCoreClient@@AEXAAVCAr@@KKK@Z@2@XZ
_TEXT	SEGMENT PARA USE32 PUBLIC 'CODE'
_TEXT	ENDS
;	COMDAT ?_Myval@?$_Tree@V?$_Tmap_traits@KP8CDPDatabaseClient@@AEXAAVCAr@@KK@ZU?$less@K@std@@V?$allocator@U?$pair@$$CBKP8CDPDatabaseClient@@AEXAAVCAr@@KK@Z@std@@@4@$0A@@std@@@std@@KAAAU?$pair@$$CBKP8CDPDatabaseClient@@AEXAAVCAr@@KK@Z@2@PAU_Node@?$_Tree_nod@V?$_Tmap_traits@KP8CDPDatabaseClient@@AEXAAVCAr@@KK@ZU?$less@K@std@@V?$allocator@U?$pair@$$CBKP8CDPDatabaseClient@@AEXAAVCAr@@KK@Z@std@@@4@$0A@@std@@@2@@Z
_TEXT	SEGMENT PARA USE32 PUBLIC 'CODE'
_TEXT	ENDS
;	COMDAT ?_Lbound@?$_Tree@V?$_Tmap_traits@KP8CDPDatabaseClient@@AEXAAVCAr@@KK@ZU?$less@K@std@@V?$allocator@U?$pair@$$CBKP8CDPDatabaseClient@@AEXAAVCAr@@KK@Z@std@@@4@$0A@@std@@@std@@IBEPAU_Node@?$_Tree_nod@V?$_Tmap_traits@KP8CDPDatabaseClient@@AEXAAVCAr@@KK@ZU?$less@K@std@@V?$allocator@U?$pair@$$CBKP8CDPDatabaseClient@@AEXAAVCAr@@KK@Z@std@@@4@$0A@@std@@@2@ABK@Z
_TEXT	SEGMENT PARA USE32 PUBLIC 'CODE'
_TEXT	ENDS
;	COMDAT ?_Kfn@?$_Tmap_traits@KP8CDPDatabaseClient@@AEXAAVCAr@@KK@ZU?$less@K@std@@V?$allocator@U?$pair@$$CBKP8CDPDatabaseClient@@AEXAAVCAr@@KK@Z@std@@@4@$0A@@std@@SAABKABU?$pair@$$CBKP8CDPDatabaseClient@@AEXAAVCAr@@KK@Z@2@@Z
_TEXT	SEGMENT PARA USE32 PUBLIC 'CODE'
_TEXT	ENDS
;	COMDAT ??0const_iterator@?$_Tree@V?$_Tmap_traits@KP8CDPDatabaseClient@@AEXAAVCAr@@KK@ZU?$less@K@std@@V?$allocator@U?$pair@$$CBKP8CDPDatabaseClient@@AEXAAVCAr@@KK@Z@std@@@4@$0A@@std@@@std@@QAE@PAU_Node@?$_Tree_nod@V?$_Tmap_traits@KP8CDPDatabaseClient@@AEXAAVCAr@@KK@ZU?$less@K@std@@V?$allocator@U?$pair@$$CBKP8CDPDatabaseClient@@AEXAAVCAr@@KK@Z@std@@@4@$0A@@std@@@2@@Z
_TEXT	SEGMENT PARA USE32 PUBLIC 'CODE'
_TEXT	ENDS
;	COMDAT ??Dconst_iterator@?$_Tree@V?$_Tmap_traits@KP8CDPDatabaseClient@@AEXAAVCAr@@KK@ZU?$less@K@std@@V?$allocator@U?$pair@$$CBKP8CDPDatabaseClient@@AEXAAVCAr@@KK@Z@std@@@4@$0A@@std@@@std@@QBEABU?$pair@$$CBKP8CDPDatabaseClient@@AEXAAVCAr@@KK@Z@2@XZ
_TEXT	SEGMENT PARA USE32 PUBLIC 'CODE'
_TEXT	ENDS
;	COMDAT ?_Myval@?$_Tree@V?$_Tmap_traits@KP8CDPSrvr@@AEXAAVCAr@@KKPAEK@ZU?$less@K@std@@V?$allocator@U?$pair@$$CBKP8CDPSrvr@@AEXAAVCAr@@KKPAEK@Z@std@@@4@$0A@@std@@@std@@KAAAU?$pair@$$CBKP8CDPSrvr@@AEXAAVCAr@@KKPAEK@Z@2@PAU_Node@?$_Tree_nod@V?$_Tmap_traits@KP8CDPSrvr@@AEXAAVCAr@@KKPAEK@ZU?$less@K@std@@V?$allocator@U?$pair@$$CBKP8CDPSrvr@@AEXAAVCAr@@KKPAEK@Z@std@@@4@$0A@@std@@@2@@Z
_TEXT	SEGMENT PARA USE32 PUBLIC 'CODE'
_TEXT	ENDS
;	COMDAT ?_Lbound@?$_Tree@V?$_Tmap_traits@KP8CDPSrvr@@AEXAAVCAr@@KKPAEK@ZU?$less@K@std@@V?$allocator@U?$pair@$$CBKP8CDPSrvr@@AEXAAVCAr@@KKPAEK@Z@std@@@4@$0A@@std@@@std@@IBEPAU_Node@?$_Tree_nod@V?$_Tmap_traits@KP8CDPSrvr@@AEXAAVCAr@@KKPAEK@ZU?$less@K@std@@V?$allocator@U?$pair@$$CBKP8CDPSrvr@@AEXAAVCAr@@KKPAEK@Z@std@@@4@$0A@@std@@@2@ABK@Z
_TEXT	SEGMENT PARA USE32 PUBLIC 'CODE'
_TEXT	ENDS
;	COMDAT ?_Kfn@?$_Tmap_traits@KP8CDPSrvr@@AEXAAVCAr@@KKPAEK@ZU?$less@K@std@@V?$allocator@U?$pair@$$CBKP8CDPSrvr@@AEXAAVCAr@@KKPAEK@Z@std@@@4@$0A@@std@@SAABKABU?$pair@$$CBKP8CDPSrvr@@AEXAAVCAr@@KKPAEK@Z@2@@Z
_TEXT	SEGMENT PARA USE32 PUBLIC 'CODE'
_TEXT	ENDS
;	COMDAT ??0const_iterator@?$_Tree@V?$_Tmap_traits@KP8CDPSrvr@@AEXAAVCAr@@KKPAEK@ZU?$less@K@std@@V?$allocator@U?$pair@$$CBKP8CDPSrvr@@AEXAAVCAr@@KKPAEK@Z@std@@@4@$0A@@std@@@std@@QAE@PAU_Node@?$_Tree_nod@V?$_Tmap_traits@KP8CDPSrvr@@AEXAAVCAr@@KKPAEK@ZU?$less@K@std@@V?$allocator@U?$pair@$$CBKP8CDPSrvr@@AEXAAVCAr@@KKPAEK@Z@std@@@4@$0A@@std@@@2@@Z
_TEXT	SEGMENT PARA USE32 PUBLIC 'CODE'
_TEXT	ENDS
;	COMDAT ??Dconst_iterator@?$_Tree@V?$_Tmap_traits@KP8CDPSrvr@@AEXAAVCAr@@KKPAEK@ZU?$less@K@std@@V?$allocator@U?$pair@$$CBKP8CDPSrvr@@AEXAAVCAr@@KKPAEK@Z@std@@@4@$0A@@std@@@std@@QBEABU?$pair@$$CBKP8CDPSrvr@@AEXAAVCAr@@KKPAEK@Z@2@XZ
_TEXT	SEGMENT PARA USE32 PUBLIC 'CODE'
_TEXT	ENDS
;	COMDAT ??0iterator@?$vector@UWORMON@@V?$allocator@UWORMON@@@std@@@std@@QAE@PAUWORMON@@@Z
_TEXT	SEGMENT PARA USE32 PUBLIC 'CODE'
_TEXT	ENDS
;	COMDAT ??Yiterator@?$vector@UWORMON@@V?$allocator@UWORMON@@@std@@@std@@QAEAAV012@H@Z
_TEXT	SEGMENT PARA USE32 PUBLIC 'CODE'
_TEXT	ENDS
;	COMDAT ??Dconst_iterator@?$vector@UWORMON@@V?$allocator@UWORMON@@@std@@@std@@QBEABUWORMON@@XZ
_TEXT	SEGMENT PARA USE32 PUBLIC 'CODE'
_TEXT	ENDS
;	COMDAT ??0?$pair@Viterator@?$_Tree@V?$_Tmap_traits@KU_Friend@@U?$less@K@std@@V?$allocator@U?$pair@$$CBKU_Friend@@@std@@@3@$0A@@std@@@std@@V123@@std@@QAE@ABViterator@?$_Tree@V?$_Tmap_traits@KU_Friend@@U?$less@K@std@@V?$allocator@U?$pair@$$CBKU_Friend@@@std@@@3@$0A@@std@@@1@0@Z
_TEXT	SEGMENT PARA USE32 PUBLIC 'CODE'
_TEXT	ENDS
;	COMDAT ??0iterator@?$vector@PAU__JOINPLAYER@CGuildCombat@@V?$allocator@PAU__JOINPLAYER@CGuildCombat@@@std@@@std@@QAE@PAPAU__JOINPLAYER@CGuildCombat@@@Z
_TEXT	SEGMENT PARA USE32 PUBLIC 'CODE'
_TEXT	ENDS
;	COMDAT ??Yiterator@?$vector@PAU__JOINPLAYER@CGuildCombat@@V?$allocator@PAU__JOINPLAYER@CGuildCombat@@@std@@@std@@QAEAAV012@H@Z
_TEXT	SEGMENT PARA USE32 PUBLIC 'CODE'
_TEXT	ENDS
;	COMDAT ??Dconst_iterator@?$vector@PAU__JOINPLAYER@CGuildCombat@@V?$allocator@PAU__JOINPLAYER@CGuildCombat@@@std@@@std@@QBEABQAU__JOINPLAYER@CGuildCombat@@XZ
_TEXT	SEGMENT PARA USE32 PUBLIC 'CODE'
_TEXT	ENDS
;	COMDAT ??0iterator@?$vector@V?$basic_string@DU?$char_traits@D@std@@V?$allocator@D@2@@std@@V?$allocator@V?$basic_string@DU?$char_traits@D@std@@V?$allocator@D@2@@std@@@2@@std@@QAE@PAV?$basic_string@DU?$char_traits@D@std@@V?$allocator@D@2@@2@@Z
_TEXT	SEGMENT PARA USE32 PUBLIC 'CODE'
_TEXT	ENDS
;	COMDAT ??Yiterator@?$vector@V?$basic_string@DU?$char_traits@D@std@@V?$allocator@D@2@@std@@V?$allocator@V?$basic_string@DU?$char_traits@D@std@@V?$allocator@D@2@@std@@@2@@std@@QAEAAV012@H@Z
_TEXT	SEGMENT PARA USE32 PUBLIC 'CODE'
_TEXT	ENDS
;	COMDAT ??Giterator@?$vector@V?$basic_string@DU?$char_traits@D@std@@V?$allocator@D@2@@std@@V?$allocator@V?$basic_string@DU?$char_traits@D@std@@V?$allocator@D@2@@std@@@2@@std@@QBEHABVconst_iterator@12@@Z
_TEXT	SEGMENT PARA USE32 PUBLIC 'CODE'
_TEXT	ENDS
;	COMDAT ??Dconst_iterator@?$vector@V?$basic_string@DU?$char_traits@D@std@@V?$allocator@D@2@@std@@V?$allocator@V?$basic_string@DU?$char_traits@D@std@@V?$allocator@D@2@@std@@@2@@std@@QBEABV?$basic_string@DU?$char_traits@D@std@@V?$allocator@D@2@@2@XZ
_TEXT	SEGMENT PARA USE32 PUBLIC 'CODE'
_TEXT	ENDS
;	COMDAT ??0iterator@?$vector@UMINIGMAME_PRIZE_LIST@CRainbowRaceMng@@V?$allocator@UMINIGMAME_PRIZE_LIST@CRainbowRaceMng@@@std@@@std@@QAE@PAUMINIGMAME_PRIZE_LIST@CRainbowRaceMng@@@Z
_TEXT	SEGMENT PARA USE32 PUBLIC 'CODE'
_TEXT	ENDS
;	COMDAT ??Hiterator@?$vector@UMINIGMAME_PRIZE_LIST@CRainbowRaceMng@@V?$allocator@UMINIGMAME_PRIZE_LIST@CRainbowRaceMng@@@std@@@std@@QBE?AV012@H@Z
_TEXT	SEGMENT PARA USE32 PUBLIC 'CODE'
_TEXT	ENDS
;	COMDAT ??Giterator@?$vector@UMINIGMAME_PRIZE_LIST@CRainbowRaceMng@@V?$allocator@UMINIGMAME_PRIZE_LIST@CRainbowRaceMng@@@std@@@std@@QBEHABVconst_iterator@12@@Z
_TEXT	SEGMENT PARA USE32 PUBLIC 'CODE'
_TEXT	ENDS
;	COMDAT ??0iterator@?$vector@PAVCMiniGameBase@@V?$allocator@PAVCMiniGameBase@@@std@@@std@@QAE@PAPAVCMiniGameBase@@@Z
_TEXT	SEGMENT PARA USE32 PUBLIC 'CODE'
_TEXT	ENDS
;	COMDAT ??Yiterator@?$vector@PAVCMiniGameBase@@V?$allocator@PAVCMiniGameBase@@@std@@@std@@QAEAAV012@H@Z
_TEXT	SEGMENT PARA USE32 PUBLIC 'CODE'
_TEXT	ENDS
;	COMDAT ??Dconst_iterator@?$vector@PAVCMiniGameBase@@V?$allocator@PAVCMiniGameBase@@@std@@@std@@QBEABQAVCMiniGameBase@@XZ
_TEXT	SEGMENT PARA USE32 PUBLIC 'CODE'
_TEXT	ENDS
;	COMDAT ??0iterator@?$vector@UGuildHouse_Furniture_Info@CGuildHouseBase@@V?$allocator@UGuildHouse_Furniture_Info@CGuildHouseBase@@@std@@@std@@QAE@PAUGuildHouse_Furniture_Info@CGuildHouseBase@@@Z
_TEXT	SEGMENT PARA USE32 PUBLIC 'CODE'
_TEXT	ENDS
;	COMDAT ??Yiterator@?$vector@UGuildHouse_Furniture_Info@CGuildHouseBase@@V?$allocator@UGuildHouse_Furniture_Info@CGuildHouseBase@@@std@@@std@@QAEAAV012@H@Z
_TEXT	SEGMENT PARA USE32 PUBLIC 'CODE'
_TEXT	ENDS
;	COMDAT ??Dconst_iterator@?$vector@UGuildHouse_Furniture_Info@CGuildHouseBase@@V?$allocator@UGuildHouse_Furniture_Info@CGuildHouseBase@@@std@@@std@@QBEABUGuildHouse_Furniture_Info@CGuildHouseBase@@XZ
_TEXT	SEGMENT PARA USE32 PUBLIC 'CODE'
_TEXT	ENDS
;	COMDAT ??0?$pair@Viterator@?$_Tree@V?$_Tmap_traits@KKU?$less@K@std@@V?$allocator@U?$pair@$$CBKK@std@@@2@$0A@@std@@@std@@V123@@std@@QAE@ABViterator@?$_Tree@V?$_Tmap_traits@KKU?$less@K@std@@V?$allocator@U?$pair@$$CBKK@std@@@2@$0A@@std@@@1@0@Z
_TEXT	SEGMENT PARA USE32 PUBLIC 'CODE'
_TEXT	ENDS
;	COMDAT ?max_size@?$allocator@V?$basic_string@DU?$char_traits@D@std@@V?$allocator@D@2@@std@@@std@@QBEIXZ
_TEXT	SEGMENT PARA USE32 PUBLIC 'CODE'
_TEXT	ENDS
;	COMDAT ??0const_iterator@?$_Tree@V?$_Tmap_traits@KPAVCCtrl@@U?$less@K@std@@V?$allocator@U?$pair@$$CBKPAVCCtrl@@@std@@@3@$0A@@std@@@std@@QAE@XZ
_TEXT	SEGMENT PARA USE32 PUBLIC 'CODE'
_TEXT	ENDS
;	COMDAT ?destroy@?$allocator@PAUtagACTMSG@@@std@@QAEXPAPAUtagACTMSG@@@Z
_TEXT	SEGMENT PARA USE32 PUBLIC 'CODE'
_TEXT	ENDS
;	COMDAT ?destroy@?$allocator@PAUtagMAGICATKMSG@@@std@@QAEXPAPAUtagMAGICATKMSG@@@Z
_TEXT	SEGMENT PARA USE32 PUBLIC 'CODE'
_TEXT	ENDS
;	COMDAT ?_Color@?$_Tree@V?$_Tmap_traits@KU_Friend@@U?$less@K@std@@V?$allocator@U?$pair@$$CBKU_Friend@@@std@@@3@$0A@@std@@@std@@KAAADPAU_Node@?$_Tree_nod@V?$_Tmap_traits@KU_Friend@@U?$less@K@std@@V?$allocator@U?$pair@$$CBKU_Friend@@@std@@@3@$0A@@std@@@2@@Z
_TEXT	SEGMENT PARA USE32 PUBLIC 'CODE'
_TEXT	ENDS
;	COMDAT ?_Isnil@?$_Tree@V?$_Tmap_traits@KU_Friend@@U?$less@K@std@@V?$allocator@U?$pair@$$CBKU_Friend@@@std@@@3@$0A@@std@@@std@@KAAADPAU_Node@?$_Tree_nod@V?$_Tmap_traits@KU_Friend@@U?$less@K@std@@V?$allocator@U?$pair@$$CBKU_Friend@@@std@@@3@$0A@@std@@@2@@Z
_TEXT	SEGMENT PARA USE32 PUBLIC 'CODE'
_TEXT	ENDS
;	COMDAT ?_Left@?$_Tree@V?$_Tmap_traits@KU_Friend@@U?$less@K@std@@V?$allocator@U?$pair@$$CBKU_Friend@@@std@@@3@$0A@@std@@@std@@KAAAPAU_Node@?$_Tree_nod@V?$_Tmap_traits@KU_Friend@@U?$less@K@std@@V?$allocator@U?$pair@$$CBKU_Friend@@@std@@@3@$0A@@std@@@2@PAU342@@Z
_TEXT	SEGMENT PARA USE32 PUBLIC 'CODE'
_TEXT	ENDS
;	COMDAT ?_Parent@?$_Tree@V?$_Tmap_traits@KU_Friend@@U?$less@K@std@@V?$allocator@U?$pair@$$CBKU_Friend@@@std@@@3@$0A@@std@@@std@@KAAAPAU_Node@?$_Tree_nod@V?$_Tmap_traits@KU_Friend@@U?$less@K@std@@V?$allocator@U?$pair@$$CBKU_Friend@@@std@@@3@$0A@@std@@@2@PAU342@@Z
_TEXT	SEGMENT PARA USE32 PUBLIC 'CODE'
_TEXT	ENDS
;	COMDAT ?_Right@?$_Tree@V?$_Tmap_traits@KU_Friend@@U?$less@K@std@@V?$allocator@U?$pair@$$CBKU_Friend@@@std@@@3@$0A@@std@@@std@@KAAAPAU_Node@?$_Tree_nod@V?$_Tmap_traits@KU_Friend@@U?$less@K@std@@V?$allocator@U?$pair@$$CBKU_Friend@@@std@@@3@$0A@@std@@@2@PAU342@@Z
_TEXT	SEGMENT PARA USE32 PUBLIC 'CODE'
_TEXT	ENDS
;	COMDAT ?_Erase@?$_Tree@V?$_Tmap_traits@KU_Friend@@U?$less@K@std@@V?$allocator@U?$pair@$$CBKU_Friend@@@std@@@3@$0A@@std@@@std@@IAEXPAU_Node@?$_Tree_nod@V?$_Tmap_traits@KU_Friend@@U?$less@K@std@@V?$allocator@U?$pair@$$CBKU_Friend@@@std@@@3@$0A@@std@@@2@@Z
_TEXT	SEGMENT PARA USE32 PUBLIC 'CODE'
_TEXT	ENDS
;	COMDAT ?_Lbound@?$_Tree@V?$_Tmap_traits@KU_Friend@@U?$less@K@std@@V?$allocator@U?$pair@$$CBKU_Friend@@@std@@@3@$0A@@std@@@std@@IBEPAU_Node@?$_Tree_nod@V?$_Tmap_traits@KU_Friend@@U?$less@K@std@@V?$allocator@U?$pair@$$CBKU_Friend@@@std@@@3@$0A@@std@@@2@ABK@Z
_TEXT	SEGMENT PARA USE32 PUBLIC 'CODE'
_TEXT	ENDS
;	COMDAT ?_Lmost@?$_Tree@V?$_Tmap_traits@KU_Friend@@U?$less@K@std@@V?$allocator@U?$pair@$$CBKU_Friend@@@std@@@3@$0A@@std@@@std@@IAEAAPAU_Node@?$_Tree_nod@V?$_Tmap_traits@KU_Friend@@U?$less@K@std@@V?$allocator@U?$pair@$$CBKU_Friend@@@std@@@3@$0A@@std@@@2@XZ
_TEXT	SEGMENT PARA USE32 PUBLIC 'CODE'
_TEXT	ENDS
;	COMDAT ?_Lrotate@?$_Tree@V?$_Tmap_traits@KU_Friend@@U?$less@K@std@@V?$allocator@U?$pair@$$CBKU_Friend@@@std@@@3@$0A@@std@@@std@@IAEXPAU_Node@?$_Tree_nod@V?$_Tmap_traits@KU_Friend@@U?$less@K@std@@V?$allocator@U?$pair@$$CBKU_Friend@@@std@@@3@$0A@@std@@@2@@Z
_TEXT	SEGMENT PARA USE32 PUBLIC 'CODE'
_TEXT	ENDS
;	COMDAT ?_Max@?$_Tree@V?$_Tmap_traits@KU_Friend@@U?$less@K@std@@V?$allocator@U?$pair@$$CBKU_Friend@@@std@@@3@$0A@@std@@@std@@KAPAU_Node@?$_Tree_nod@V?$_Tmap_traits@KU_Friend@@U?$less@K@std@@V?$allocator@U?$pair@$$CBKU_Friend@@@std@@@3@$0A@@std@@@2@PAU342@@Z
_TEXT	SEGMENT PARA USE32 PUBLIC 'CODE'
_TEXT	ENDS
;	COMDAT ?_Min@?$_Tree@V?$_Tmap_traits@KU_Friend@@U?$less@K@std@@V?$allocator@U?$pair@$$CBKU_Friend@@@std@@@3@$0A@@std@@@std@@KAPAU_Node@?$_Tree_nod@V?$_Tmap_traits@KU_Friend@@U?$less@K@std@@V?$allocator@U?$pair@$$CBKU_Friend@@@std@@@3@$0A@@std@@@2@PAU342@@Z
_TEXT	SEGMENT PARA USE32 PUBLIC 'CODE'
_TEXT	ENDS
;	COMDAT ?_Rmost@?$_Tree@V?$_Tmap_traits@KU_Friend@@U?$less@K@std@@V?$allocator@U?$pair@$$CBKU_Friend@@@std@@@3@$0A@@std@@@std@@IAEAAPAU_Node@?$_Tree_nod@V?$_Tmap_traits@KU_Friend@@U?$less@K@std@@V?$allocator@U?$pair@$$CBKU_Friend@@@std@@@3@$0A@@std@@@2@XZ
_TEXT	SEGMENT PARA USE32 PUBLIC 'CODE'
_TEXT	ENDS
;	COMDAT ?_Root@?$_Tree@V?$_Tmap_traits@KU_Friend@@U?$less@K@std@@V?$allocator@U?$pair@$$CBKU_Friend@@@std@@@3@$0A@@std@@@std@@IAEAAPAU_Node@?$_Tree_nod@V?$_Tmap_traits@KU_Friend@@U?$less@K@std@@V?$allocator@U?$pair@$$CBKU_Friend@@@std@@@3@$0A@@std@@@2@XZ
_TEXT	SEGMENT PARA USE32 PUBLIC 'CODE'
_TEXT	ENDS
;	COMDAT ?_Rrotate@?$_Tree@V?$_Tmap_traits@KU_Friend@@U?$less@K@std@@V?$allocator@U?$pair@$$CBKU_Friend@@@std@@@3@$0A@@std@@@std@@IAEXPAU_Node@?$_Tree_nod@V?$_Tmap_traits@KU_Friend@@U?$less@K@std@@V?$allocator@U?$pair@$$CBKU_Friend@@@std@@@3@$0A@@std@@@2@@Z
_TEXT	SEGMENT PARA USE32 PUBLIC 'CODE'
_TEXT	ENDS
;	COMDAT ?_Ubound@?$_Tree@V?$_Tmap_traits@KU_Friend@@U?$less@K@std@@V?$allocator@U?$pair@$$CBKU_Friend@@@std@@@3@$0A@@std@@@std@@IBEPAU_Node@?$_Tree_nod@V?$_Tmap_traits@KU_Friend@@U?$less@K@std@@V?$allocator@U?$pair@$$CBKU_Friend@@@std@@@3@$0A@@std@@@2@ABK@Z
_TEXT	SEGMENT PARA USE32 PUBLIC 'CODE'
_TEXT	ENDS
;	COMDAT ?deallocate@?$allocator@U_Node@?$_Tree_nod@V?$_Tmap_traits@KU_Friend@@U?$less@K@std@@V?$allocator@U?$pair@$$CBKU_Friend@@@std@@@3@$0A@@std@@@std@@@std@@QAEXPAU_Node@?$_Tree_nod@V?$_Tmap_traits@KU_Friend@@U?$less@K@std@@V?$allocator@U?$pair@$$CBKU_Friend@@@std@@@3@$0A@@std@@@2@I@Z
_TEXT	SEGMENT PARA USE32 PUBLIC 'CODE'
_TEXT	ENDS
;	COMDAT ?destroy@?$allocator@U_Node@?$_Tree_nod@V?$_Tmap_traits@KU_Friend@@U?$less@K@std@@V?$allocator@U?$pair@$$CBKU_Friend@@@std@@@3@$0A@@std@@@std@@@std@@QAEXPAU_Node@?$_Tree_nod@V?$_Tmap_traits@KU_Friend@@U?$less@K@std@@V?$allocator@U?$pair@$$CBKU_Friend@@@std@@@3@$0A@@std@@@2@@Z
_TEXT	SEGMENT PARA USE32 PUBLIC 'CODE'
_TEXT	ENDS
;	COMDAT ??0iterator@?$_Tree@V?$_Tmap_traits@KU_Friend@@U?$less@K@std@@V?$allocator@U?$pair@$$CBKU_Friend@@@std@@@3@$0A@@std@@@std@@QAE@PAU_Node@?$_Tree_nod@V?$_Tmap_traits@KU_Friend@@U?$less@K@std@@V?$allocator@U?$pair@$$CBKU_Friend@@@std@@@3@$0A@@std@@@2@@Z
_TEXT	SEGMENT PARA USE32 PUBLIC 'CODE'
_TEXT	ENDS
;	COMDAT ??Eiterator@?$_Tree@V?$_Tmap_traits@KU_Friend@@U?$less@K@std@@V?$allocator@U?$pair@$$CBKU_Friend@@@std@@@3@$0A@@std@@@std@@QAEAAV012@XZ
_TEXT	SEGMENT PARA USE32 PUBLIC 'CODE'
_TEXT	ENDS
;	COMDAT ?_Mynode@const_iterator@?$_Tree@V?$_Tmap_traits@KU_Friend@@U?$less@K@std@@V?$allocator@U?$pair@$$CBKU_Friend@@@std@@@3@$0A@@std@@@std@@QBEPAU_Node@?$_Tree_nod@V?$_Tmap_traits@KU_Friend@@U?$less@K@std@@V?$allocator@U?$pair@$$CBKU_Friend@@@std@@@3@$0A@@std@@@3@XZ
_TEXT	SEGMENT PARA USE32 PUBLIC 'CODE'
_TEXT	ENDS
;	COMDAT ?max_size@?$allocator@U__SECRETROOM_MONSTER@@@std@@QBEIXZ
_TEXT	SEGMENT PARA USE32 PUBLIC 'CODE'
_TEXT	ENDS
;	COMDAT ?max_size@?$vector@UMINIGMAME_PRIZE_LIST@CRainbowRaceMng@@V?$allocator@UMINIGMAME_PRIZE_LIST@CRainbowRaceMng@@@std@@@std@@QBEIXZ
_TEXT	SEGMENT PARA USE32 PUBLIC 'CODE'
_TEXT	ENDS
;	COMDAT ?_Destroy@?$vector@UMINIGMAME_PRIZE_LIST@CRainbowRaceMng@@V?$allocator@UMINIGMAME_PRIZE_LIST@CRainbowRaceMng@@@std@@@std@@IAEXPAUMINIGMAME_PRIZE_LIST@CRainbowRaceMng@@0@Z
_TEXT	SEGMENT PARA USE32 PUBLIC 'CODE'
_TEXT	ENDS
;	COMDAT ?_Xlen@?$vector@UMINIGMAME_PRIZE_LIST@CRainbowRaceMng@@V?$allocator@UMINIGMAME_PRIZE_LIST@CRainbowRaceMng@@@std@@@std@@IBEXXZ
_TEXT	SEGMENT PARA USE32 PUBLIC 'CODE'
_TEXT	ENDS
;	COMDAT ?deallocate@?$allocator@UMINIGMAME_PRIZE_LIST@CRainbowRaceMng@@@std@@QAEXPAUMINIGMAME_PRIZE_LIST@CRainbowRaceMng@@I@Z
_TEXT	SEGMENT PARA USE32 PUBLIC 'CODE'
_TEXT	ENDS
;	COMDAT ?allocate@?$allocator@UMINIGMAME_PRIZE_LIST@CRainbowRaceMng@@@std@@QAEPAUMINIGMAME_PRIZE_LIST@CRainbowRaceMng@@I@Z
_TEXT	SEGMENT PARA USE32 PUBLIC 'CODE'
_TEXT	ENDS
;	COMDAT ?max_size@?$allocator@U?$pair@$$CBKPAVCGuildHouseBase@@@std@@@std@@QBEIXZ
_TEXT	SEGMENT PARA USE32 PUBLIC 'CODE'
_TEXT	ENDS
;	COMDAT ?deallocate@?$allocator@U_Node@?$_Tree_nod@V?$_Tmap_traits@KPAVCGuildHouseBase@@U?$less@K@std@@V?$allocator@U?$pair@$$CBKPAVCGuildHouseBase@@@std@@@3@$0A@@std@@@std@@@std@@QAEXPAU_Node@?$_Tree_nod@V?$_Tmap_traits@KPAVCGuildHouseBase@@U?$less@K@std@@V?$allocator@U?$pair@$$CBKPAVCGuildHouseBase@@@std@@@3@$0A@@std@@@2@I@Z
_TEXT	SEGMENT PARA USE32 PUBLIC 'CODE'
_TEXT	ENDS
;	COMDAT ?allocate@?$allocator@U_Node@?$_Tree_nod@V?$_Tmap_traits@KPAVCGuildHouseBase@@U?$less@K@std@@V?$allocator@U?$pair@$$CBKPAVCGuildHouseBase@@@std@@@3@$0A@@std@@@std@@@std@@QAEPAU_Node@?$_Tree_nod@V?$_Tmap_traits@KPAVCGuildHouseBase@@U?$less@K@std@@V?$allocator@U?$pair@$$CBKPAVCGuildHouseBase@@@std@@@3@$0A@@std@@@2@I@Z
_TEXT	SEGMENT PARA USE32 PUBLIC 'CODE'
_TEXT	ENDS
;	COMDAT ?_Dec@const_iterator@?$_Tree@V?$_Tmap_traits@KPAVCGuildHouseBase@@U?$less@K@std@@V?$allocator@U?$pair@$$CBKPAVCGuildHouseBase@@@std@@@3@$0A@@std@@@std@@QAEXXZ
_TEXT	SEGMENT PARA USE32 PUBLIC 'CODE'
_TEXT	ENDS
;	COMDAT ?_Color@?$_Tree@V?$_Tmap_traits@KKU?$less@K@std@@V?$allocator@U?$pair@$$CBKK@std@@@2@$0A@@std@@@std@@KAAADPAU_Node@?$_Tree_nod@V?$_Tmap_traits@KKU?$less@K@std@@V?$allocator@U?$pair@$$CBKK@std@@@2@$0A@@std@@@2@@Z
_TEXT	SEGMENT PARA USE32 PUBLIC 'CODE'
_TEXT	ENDS
;	COMDAT ?_Isnil@?$_Tree@V?$_Tmap_traits@KKU?$less@K@std@@V?$allocator@U?$pair@$$CBKK@std@@@2@$0A@@std@@@std@@KAAADPAU_Node@?$_Tree_nod@V?$_Tmap_traits@KKU?$less@K@std@@V?$allocator@U?$pair@$$CBKK@std@@@2@$0A@@std@@@2@@Z
_TEXT	SEGMENT PARA USE32 PUBLIC 'CODE'
_TEXT	ENDS
;	COMDAT ?_Left@?$_Tree@V?$_Tmap_traits@KKU?$less@K@std@@V?$allocator@U?$pair@$$CBKK@std@@@2@$0A@@std@@@std@@KAAAPAU_Node@?$_Tree_nod@V?$_Tmap_traits@KKU?$less@K@std@@V?$allocator@U?$pair@$$CBKK@std@@@2@$0A@@std@@@2@PAU342@@Z
_TEXT	SEGMENT PARA USE32 PUBLIC 'CODE'
_TEXT	ENDS
;	COMDAT ?_Parent@?$_Tree@V?$_Tmap_traits@KKU?$less@K@std@@V?$allocator@U?$pair@$$CBKK@std@@@2@$0A@@std@@@std@@KAAAPAU_Node@?$_Tree_nod@V?$_Tmap_traits@KKU?$less@K@std@@V?$allocator@U?$pair@$$CBKK@std@@@2@$0A@@std@@@2@PAU342@@Z
_TEXT	SEGMENT PARA USE32 PUBLIC 'CODE'
_TEXT	ENDS
;	COMDAT ?_Right@?$_Tree@V?$_Tmap_traits@KKU?$less@K@std@@V?$allocator@U?$pair@$$CBKK@std@@@2@$0A@@std@@@std@@KAAAPAU_Node@?$_Tree_nod@V?$_Tmap_traits@KKU?$less@K@std@@V?$allocator@U?$pair@$$CBKK@std@@@2@$0A@@std@@@2@PAU342@@Z
_TEXT	SEGMENT PARA USE32 PUBLIC 'CODE'
_TEXT	ENDS
;	COMDAT ?_Erase@?$_Tree@V?$_Tmap_traits@KKU?$less@K@std@@V?$allocator@U?$pair@$$CBKK@std@@@2@$0A@@std@@@std@@IAEXPAU_Node@?$_Tree_nod@V?$_Tmap_traits@KKU?$less@K@std@@V?$allocator@U?$pair@$$CBKK@std@@@2@$0A@@std@@@2@@Z
_TEXT	SEGMENT PARA USE32 PUBLIC 'CODE'
_TEXT	ENDS
;	COMDAT ?_Lbound@?$_Tree@V?$_Tmap_traits@KKU?$less@K@std@@V?$allocator@U?$pair@$$CBKK@std@@@2@$0A@@std@@@std@@IBEPAU_Node@?$_Tree_nod@V?$_Tmap_traits@KKU?$less@K@std@@V?$allocator@U?$pair@$$CBKK@std@@@2@$0A@@std@@@2@ABK@Z
_TEXT	SEGMENT PARA USE32 PUBLIC 'CODE'
_TEXT	ENDS
;	COMDAT ?_Lmost@?$_Tree@V?$_Tmap_traits@KKU?$less@K@std@@V?$allocator@U?$pair@$$CBKK@std@@@2@$0A@@std@@@std@@IAEAAPAU_Node@?$_Tree_nod@V?$_Tmap_traits@KKU?$less@K@std@@V?$allocator@U?$pair@$$CBKK@std@@@2@$0A@@std@@@2@XZ
_TEXT	SEGMENT PARA USE32 PUBLIC 'CODE'
_TEXT	ENDS
;	COMDAT ?_Lrotate@?$_Tree@V?$_Tmap_traits@KKU?$less@K@std@@V?$allocator@U?$pair@$$CBKK@std@@@2@$0A@@std@@@std@@IAEXPAU_Node@?$_Tree_nod@V?$_Tmap_traits@KKU?$less@K@std@@V?$allocator@U?$pair@$$CBKK@std@@@2@$0A@@std@@@2@@Z
_TEXT	SEGMENT PARA USE32 PUBLIC 'CODE'
_TEXT	ENDS
;	COMDAT ?_Max@?$_Tree@V?$_Tmap_traits@KKU?$less@K@std@@V?$allocator@U?$pair@$$CBKK@std@@@2@$0A@@std@@@std@@KAPAU_Node@?$_Tree_nod@V?$_Tmap_traits@KKU?$less@K@std@@V?$allocator@U?$pair@$$CBKK@std@@@2@$0A@@std@@@2@PAU342@@Z
_TEXT	SEGMENT PARA USE32 PUBLIC 'CODE'
_TEXT	ENDS
;	COMDAT ?_Min@?$_Tree@V?$_Tmap_traits@KKU?$less@K@std@@V?$allocator@U?$pair@$$CBKK@std@@@2@$0A@@std@@@std@@KAPAU_Node@?$_Tree_nod@V?$_Tmap_traits@KKU?$less@K@std@@V?$allocator@U?$pair@$$CBKK@std@@@2@$0A@@std@@@2@PAU342@@Z
_TEXT	SEGMENT PARA USE32 PUBLIC 'CODE'
_TEXT	ENDS
;	COMDAT ?_Rmost@?$_Tree@V?$_Tmap_traits@KKU?$less@K@std@@V?$allocator@U?$pair@$$CBKK@std@@@2@$0A@@std@@@std@@IAEAAPAU_Node@?$_Tree_nod@V?$_Tmap_traits@KKU?$less@K@std@@V?$allocator@U?$pair@$$CBKK@std@@@2@$0A@@std@@@2@XZ
_TEXT	SEGMENT PARA USE32 PUBLIC 'CODE'
_TEXT	ENDS
;	COMDAT ?_Root@?$_Tree@V?$_Tmap_traits@KKU?$less@K@std@@V?$allocator@U?$pair@$$CBKK@std@@@2@$0A@@std@@@std@@IAEAAPAU_Node@?$_Tree_nod@V?$_Tmap_traits@KKU?$less@K@std@@V?$allocator@U?$pair@$$CBKK@std@@@2@$0A@@std@@@2@XZ
_TEXT	SEGMENT PARA USE32 PUBLIC 'CODE'
_TEXT	ENDS
;	COMDAT ?_Rrotate@?$_Tree@V?$_Tmap_traits@KKU?$less@K@std@@V?$allocator@U?$pair@$$CBKK@std@@@2@$0A@@std@@@std@@IAEXPAU_Node@?$_Tree_nod@V?$_Tmap_traits@KKU?$less@K@std@@V?$allocator@U?$pair@$$CBKK@std@@@2@$0A@@std@@@2@@Z
_TEXT	SEGMENT PARA USE32 PUBLIC 'CODE'
_TEXT	ENDS
;	COMDAT ?_Ubound@?$_Tree@V?$_Tmap_traits@KKU?$less@K@std@@V?$allocator@U?$pair@$$CBKK@std@@@2@$0A@@std@@@std@@IBEPAU_Node@?$_Tree_nod@V?$_Tmap_traits@KKU?$less@K@std@@V?$allocator@U?$pair@$$CBKK@std@@@2@$0A@@std@@@2@ABK@Z
_TEXT	SEGMENT PARA USE32 PUBLIC 'CODE'
_TEXT	ENDS
;	COMDAT ?deallocate@?$allocator@U_Node@?$_Tree_nod@V?$_Tmap_traits@KKU?$less@K@std@@V?$allocator@U?$pair@$$CBKK@std@@@2@$0A@@std@@@std@@@std@@QAEXPAU_Node@?$_Tree_nod@V?$_Tmap_traits@KKU?$less@K@std@@V?$allocator@U?$pair@$$CBKK@std@@@2@$0A@@std@@@2@I@Z
_TEXT	SEGMENT PARA USE32 PUBLIC 'CODE'
_TEXT	ENDS
;	COMDAT ?destroy@?$allocator@U_Node@?$_Tree_nod@V?$_Tmap_traits@KKU?$less@K@std@@V?$allocator@U?$pair@$$CBKK@std@@@2@$0A@@std@@@std@@@std@@QAEXPAU_Node@?$_Tree_nod@V?$_Tmap_traits@KKU?$less@K@std@@V?$allocator@U?$pair@$$CBKK@std@@@2@$0A@@std@@@2@@Z
_TEXT	SEGMENT PARA USE32 PUBLIC 'CODE'
_TEXT	ENDS
;	COMDAT ??0iterator@?$_Tree@V?$_Tmap_traits@KKU?$less@K@std@@V?$allocator@U?$pair@$$CBKK@std@@@2@$0A@@std@@@std@@QAE@PAU_Node@?$_Tree_nod@V?$_Tmap_traits@KKU?$less@K@std@@V?$allocator@U?$pair@$$CBKK@std@@@2@$0A@@std@@@2@@Z
_TEXT	SEGMENT PARA USE32 PUBLIC 'CODE'
_TEXT	ENDS
;	COMDAT ??Eiterator@?$_Tree@V?$_Tmap_traits@KKU?$less@K@std@@V?$allocator@U?$pair@$$CBKK@std@@@2@$0A@@std@@@std@@QAEAAV012@XZ
_TEXT	SEGMENT PARA USE32 PUBLIC 'CODE'
_TEXT	ENDS
;	COMDAT ?_Mynode@const_iterator@?$_Tree@V?$_Tmap_traits@KKU?$less@K@std@@V?$allocator@U?$pair@$$CBKK@std@@@2@$0A@@std@@@std@@QBEPAU_Node@?$_Tree_nod@V?$_Tmap_traits@KKU?$less@K@std@@V?$allocator@U?$pair@$$CBKK@std@@@2@$0A@@std@@@3@XZ
_TEXT	SEGMENT PARA USE32 PUBLIC 'CODE'
_TEXT	ENDS
;	COMDAT ?_Isnil@?$_Tree@V?$_Tmap_traits@KPAVCClientSock@@U?$less@K@std@@V?$allocator@U?$pair@$$CBKPAVCClientSock@@@std@@@3@$0A@@std@@@std@@KAAADPAU_Node@?$_Tree_nod@V?$_Tmap_traits@KPAVCClientSock@@U?$less@K@std@@V?$allocator@U?$pair@$$CBKPAVCClientSock@@@std@@@3@$0A@@std@@@2@@Z
_TEXT	SEGMENT PARA USE32 PUBLIC 'CODE'
_TEXT	ENDS
;	COMDAT ?erase@?$_Tree@V?$_Tmap_traits@KPAVCClientSock@@U?$less@K@std@@V?$allocator@U?$pair@$$CBKPAVCClientSock@@@std@@@3@$0A@@std@@@std@@QAE?AViterator@12@V312@@Z
_TEXT	SEGMENT PARA USE32 PUBLIC 'CODE'
_TEXT	ENDS
;	COMDAT ?clear@?$_Tree@V?$_Tmap_traits@KPAVCClientSock@@U?$less@K@std@@V?$allocator@U?$pair@$$CBKPAVCClientSock@@@std@@@3@$0A@@std@@@std@@QAEXXZ
_TEXT	SEGMENT PARA USE32 PUBLIC 'CODE'
_TEXT	ENDS
;	COMDAT ?_Lmost@?$_Tree@V?$_Tmap_traits@KPAVCClientSock@@U?$less@K@std@@V?$allocator@U?$pair@$$CBKPAVCClientSock@@@std@@@3@$0A@@std@@@std@@IAEAAPAU_Node@?$_Tree_nod@V?$_Tmap_traits@KPAVCClientSock@@U?$less@K@std@@V?$allocator@U?$pair@$$CBKPAVCClientSock@@@std@@@3@$0A@@std@@@2@XZ
_TEXT	SEGMENT PARA USE32 PUBLIC 'CODE'
_TEXT	ENDS
;	COMDAT ?_Rmost@?$_Tree@V?$_Tmap_traits@KPAVCClientSock@@U?$less@K@std@@V?$allocator@U?$pair@$$CBKPAVCClientSock@@@std@@@3@$0A@@std@@@std@@IAEAAPAU_Node@?$_Tree_nod@V?$_Tmap_traits@KPAVCClientSock@@U?$less@K@std@@V?$allocator@U?$pair@$$CBKPAVCClientSock@@@std@@@3@$0A@@std@@@2@XZ
_TEXT	SEGMENT PARA USE32 PUBLIC 'CODE'
_TEXT	ENDS
;	COMDAT ?_Root@?$_Tree@V?$_Tmap_traits@KPAVCClientSock@@U?$less@K@std@@V?$allocator@U?$pair@$$CBKPAVCClientSock@@@std@@@3@$0A@@std@@@std@@IAEAAPAU_Node@?$_Tree_nod@V?$_Tmap_traits@KPAVCClientSock@@U?$less@K@std@@V?$allocator@U?$pair@$$CBKPAVCClientSock@@@std@@@3@$0A@@std@@@2@XZ
_TEXT	SEGMENT PARA USE32 PUBLIC 'CODE'
_TEXT	ENDS
;	COMDAT ?_Root@?$_Tree@V?$_Tmap_traits@KPAVCClientSock@@U?$less@K@std@@V?$allocator@U?$pair@$$CBKPAVCClientSock@@@std@@@3@$0A@@std@@@std@@IBEAAPAU_Node@?$_Tree_nod@V?$_Tmap_traits@KPAVCClientSock@@U?$less@K@std@@V?$allocator@U?$pair@$$CBKPAVCClientSock@@@std@@@3@$0A@@std@@@2@XZ
_TEXT	SEGMENT PARA USE32 PUBLIC 'CODE'
_TEXT	ENDS
;	COMDAT ?_Buynode@?$_Tree@V?$_Tmap_traits@KPAVCClientSock@@U?$less@K@std@@V?$allocator@U?$pair@$$CBKPAVCClientSock@@@std@@@3@$0A@@std@@@std@@IAEPAU_Node@?$_Tree_nod@V?$_Tmap_traits@KPAVCClientSock@@U?$less@K@std@@V?$allocator@U?$pair@$$CBKPAVCClientSock@@@std@@@3@$0A@@std@@@2@XZ
_TEXT	SEGMENT PARA USE32 PUBLIC 'CODE'
_TEXT	ENDS
;	COMDAT ??0?$_Tree_ptr@V?$_Tmap_traits@KPAVCClientSock@@U?$less@K@std@@V?$allocator@U?$pair@$$CBKPAVCClientSock@@@std@@@3@$0A@@std@@@std@@IAE@ABU?$less@K@1@V?$allocator@U?$pair@$$CBKPAVCClientSock@@@std@@@1@@Z
_TEXT	SEGMENT PARA USE32 PUBLIC 'CODE'
_TEXT	ENDS
;	COMDAT ??Eiterator@?$_Tree@V?$_Tmap_traits@KPAVCClientSock@@U?$less@K@std@@V?$allocator@U?$pair@$$CBKPAVCClientSock@@@std@@@3@$0A@@std@@@std@@QAE?AV012@H@Z
_TEXT	SEGMENT PARA USE32 PUBLIC 'CODE'
_TEXT	ENDS
;	COMDAT ?_Isnil@?$_Tree@V?$_Tmap_traits@KPAVCClientSockE@@U?$less@K@std@@V?$allocator@U?$pair@$$CBKPAVCClientSockE@@@std@@@3@$0A@@std@@@std@@KAAADPAU_Node@?$_Tree_nod@V?$_Tmap_traits@KPAVCClientSockE@@U?$less@K@std@@V?$allocator@U?$pair@$$CBKPAVCClientSockE@@@std@@@3@$0A@@std@@@2@@Z
_TEXT	SEGMENT PARA USE32 PUBLIC 'CODE'
_TEXT	ENDS
;	COMDAT ?erase@?$_Tree@V?$_Tmap_traits@KPAVCClientSockE@@U?$less@K@std@@V?$allocator@U?$pair@$$CBKPAVCClientSockE@@@std@@@3@$0A@@std@@@std@@QAE?AViterator@12@V312@@Z
_TEXT	SEGMENT PARA USE32 PUBLIC 'CODE'
_TEXT	ENDS
;	COMDAT ?clear@?$_Tree@V?$_Tmap_traits@KPAVCClientSockE@@U?$less@K@std@@V?$allocator@U?$pair@$$CBKPAVCClientSockE@@@std@@@3@$0A@@std@@@std@@QAEXXZ
_TEXT	SEGMENT PARA USE32 PUBLIC 'CODE'
_TEXT	ENDS
;	COMDAT ?_Lmost@?$_Tree@V?$_Tmap_traits@KPAVCClientSockE@@U?$less@K@std@@V?$allocator@U?$pair@$$CBKPAVCClientSockE@@@std@@@3@$0A@@std@@@std@@IAEAAPAU_Node@?$_Tree_nod@V?$_Tmap_traits@KPAVCClientSockE@@U?$less@K@std@@V?$allocator@U?$pair@$$CBKPAVCClientSockE@@@std@@@3@$0A@@std@@@2@XZ
_TEXT	SEGMENT PARA USE32 PUBLIC 'CODE'
_TEXT	ENDS
;	COMDAT ?_Rmost@?$_Tree@V?$_Tmap_traits@KPAVCClientSockE@@U?$less@K@std@@V?$allocator@U?$pair@$$CBKPAVCClientSockE@@@std@@@3@$0A@@std@@@std@@IAEAAPAU_Node@?$_Tree_nod@V?$_Tmap_traits@KPAVCClientSockE@@U?$less@K@std@@V?$allocator@U?$pair@$$CBKPAVCClientSockE@@@std@@@3@$0A@@std@@@2@XZ
_TEXT	SEGMENT PARA USE32 PUBLIC 'CODE'
_TEXT	ENDS
;	COMDAT ?_Root@?$_Tree@V?$_Tmap_traits@KPAVCClientSockE@@U?$less@K@std@@V?$allocator@U?$pair@$$CBKPAVCClientSockE@@@std@@@3@$0A@@std@@@std@@IAEAAPAU_Node@?$_Tree_nod@V?$_Tmap_traits@KPAVCClientSockE@@U?$less@K@std@@V?$allocator@U?$pair@$$CBKPAVCClientSockE@@@std@@@3@$0A@@std@@@2@XZ
_TEXT	SEGMENT PARA USE32 PUBLIC 'CODE'
_TEXT	ENDS
;	COMDAT ?_Root@?$_Tree@V?$_Tmap_traits@KPAVCClientSockE@@U?$less@K@std@@V?$allocator@U?$pair@$$CBKPAVCClientSockE@@@std@@@3@$0A@@std@@@std@@IBEAAPAU_Node@?$_Tree_nod@V?$_Tmap_traits@KPAVCClientSockE@@U?$less@K@std@@V?$allocator@U?$pair@$$CBKPAVCClientSockE@@@std@@@3@$0A@@std@@@2@XZ
_TEXT	SEGMENT PARA USE32 PUBLIC 'CODE'
_TEXT	ENDS
;	COMDAT ?_Buynode@?$_Tree@V?$_Tmap_traits@KPAVCClientSockE@@U?$less@K@std@@V?$allocator@U?$pair@$$CBKPAVCClientSockE@@@std@@@3@$0A@@std@@@std@@IAEPAU_Node@?$_Tree_nod@V?$_Tmap_traits@KPAVCClientSockE@@U?$less@K@std@@V?$allocator@U?$pair@$$CBKPAVCClientSockE@@@std@@@3@$0A@@std@@@2@XZ
_TEXT	SEGMENT PARA USE32 PUBLIC 'CODE'
_TEXT	ENDS
;	COMDAT ??0?$_Tree_ptr@V?$_Tmap_traits@KPAVCClientSockE@@U?$less@K@std@@V?$allocator@U?$pair@$$CBKPAVCClientSockE@@@std@@@3@$0A@@std@@@std@@IAE@ABU?$less@K@1@V?$allocator@U?$pair@$$CBKPAVCClientSockE@@@std@@@1@@Z
_TEXT	SEGMENT PARA USE32 PUBLIC 'CODE'
_TEXT	ENDS
;	COMDAT ??Eiterator@?$_Tree@V?$_Tmap_traits@KPAVCClientSockE@@U?$less@K@std@@V?$allocator@U?$pair@$$CBKPAVCClientSockE@@@std@@@3@$0A@@std@@@std@@QAE?AV012@H@Z
_TEXT	SEGMENT PARA USE32 PUBLIC 'CODE'
_TEXT	ENDS
;	COMDAT ?_Isnil@?$_Tree@V?$_Tmap_traits@KP8CDPCoreClient@@AEXAAVCAr@@KKK@ZU?$less@K@std@@V?$allocator@U?$pair@$$CBKP8CDPCoreClient@@AEXAAVCAr@@KKK@Z@std@@@4@$0A@@std@@@std@@KAAADPAU_Node@?$_Tree_nod@V?$_Tmap_traits@KP8CDPCoreClient@@AEXAAVCAr@@KKK@ZU?$less@K@std@@V?$allocator@U?$pair@$$CBKP8CDPCoreClient@@AEXAAVCAr@@KKK@Z@std@@@4@$0A@@std@@@2@@Z
_TEXT	SEGMENT PARA USE32 PUBLIC 'CODE'
_TEXT	ENDS
;	COMDAT ?_Left@?$_Tree@V?$_Tmap_traits@KP8CDPCoreClient@@AEXAAVCAr@@KKK@ZU?$less@K@std@@V?$allocator@U?$pair@$$CBKP8CDPCoreClient@@AEXAAVCAr@@KKK@Z@std@@@4@$0A@@std@@@std@@KAAAPAU_Node@?$_Tree_nod@V?$_Tmap_traits@KP8CDPCoreClient@@AEXAAVCAr@@KKK@ZU?$less@K@std@@V?$allocator@U?$pair@$$CBKP8CDPCoreClient@@AEXAAVCAr@@KKK@Z@std@@@4@$0A@@std@@@2@PAU342@@Z
_TEXT	SEGMENT PARA USE32 PUBLIC 'CODE'
_TEXT	ENDS
;	COMDAT ?_Right@?$_Tree@V?$_Tmap_traits@KP8CDPCoreClient@@AEXAAVCAr@@KKK@ZU?$less@K@std@@V?$allocator@U?$pair@$$CBKP8CDPCoreClient@@AEXAAVCAr@@KKK@Z@std@@@4@$0A@@std@@@std@@KAAAPAU_Node@?$_Tree_nod@V?$_Tmap_traits@KP8CDPCoreClient@@AEXAAVCAr@@KKK@ZU?$less@K@std@@V?$allocator@U?$pair@$$CBKP8CDPCoreClient@@AEXAAVCAr@@KKK@Z@std@@@4@$0A@@std@@@2@PAU342@@Z
_TEXT	SEGMENT PARA USE32 PUBLIC 'CODE'
_TEXT	ENDS
;	COMDAT ?_Root@?$_Tree@V?$_Tmap_traits@KP8CDPCoreClient@@AEXAAVCAr@@KKK@ZU?$less@K@std@@V?$allocator@U?$pair@$$CBKP8CDPCoreClient@@AEXAAVCAr@@KKK@Z@std@@@4@$0A@@std@@@std@@IBEAAPAU_Node@?$_Tree_nod@V?$_Tmap_traits@KP8CDPCoreClient@@AEXAAVCAr@@KKK@ZU?$less@K@std@@V?$allocator@U?$pair@$$CBKP8CDPCoreClient@@AEXAAVCAr@@KKK@Z@std@@@4@$0A@@std@@@2@XZ
_TEXT	SEGMENT PARA USE32 PUBLIC 'CODE'
_TEXT	ENDS
;	COMDAT ?_Isnil@?$_Tree@V?$_Tmap_traits@KP8CDPDatabaseClient@@AEXAAVCAr@@KK@ZU?$less@K@std@@V?$allocator@U?$pair@$$CBKP8CDPDatabaseClient@@AEXAAVCAr@@KK@Z@std@@@4@$0A@@std@@@std@@KAAADPAU_Node@?$_Tree_nod@V?$_Tmap_traits@KP8CDPDatabaseClient@@AEXAAVCAr@@KK@ZU?$less@K@std@@V?$allocator@U?$pair@$$CBKP8CDPDatabaseClient@@AEXAAVCAr@@KK@Z@std@@@4@$0A@@std@@@2@@Z
_TEXT	SEGMENT PARA USE32 PUBLIC 'CODE'
_TEXT	ENDS
;	COMDAT ?_Left@?$_Tree@V?$_Tmap_traits@KP8CDPDatabaseClient@@AEXAAVCAr@@KK@ZU?$less@K@std@@V?$allocator@U?$pair@$$CBKP8CDPDatabaseClient@@AEXAAVCAr@@KK@Z@std@@@4@$0A@@std@@@std@@KAAAPAU_Node@?$_Tree_nod@V?$_Tmap_traits@KP8CDPDatabaseClient@@AEXAAVCAr@@KK@ZU?$less@K@std@@V?$allocator@U?$pair@$$CBKP8CDPDatabaseClient@@AEXAAVCAr@@KK@Z@std@@@4@$0A@@std@@@2@PAU342@@Z
_TEXT	SEGMENT PARA USE32 PUBLIC 'CODE'
_TEXT	ENDS
;	COMDAT ?_Right@?$_Tree@V?$_Tmap_traits@KP8CDPDatabaseClient@@AEXAAVCAr@@KK@ZU?$less@K@std@@V?$allocator@U?$pair@$$CBKP8CDPDatabaseClient@@AEXAAVCAr@@KK@Z@std@@@4@$0A@@std@@@std@@KAAAPAU_Node@?$_Tree_nod@V?$_Tmap_traits@KP8CDPDatabaseClient@@AEXAAVCAr@@KK@ZU?$less@K@std@@V?$allocator@U?$pair@$$CBKP8CDPDatabaseClient@@AEXAAVCAr@@KK@Z@std@@@4@$0A@@std@@@2@PAU342@@Z
_TEXT	SEGMENT PARA USE32 PUBLIC 'CODE'
_TEXT	ENDS
;	COMDAT ?_Root@?$_Tree@V?$_Tmap_traits@KP8CDPDatabaseClient@@AEXAAVCAr@@KK@ZU?$less@K@std@@V?$allocator@U?$pair@$$CBKP8CDPDatabaseClient@@AEXAAVCAr@@KK@Z@std@@@4@$0A@@std@@@std@@IBEAAPAU_Node@?$_Tree_nod@V?$_Tmap_traits@KP8CDPDatabaseClient@@AEXAAVCAr@@KK@ZU?$less@K@std@@V?$allocator@U?$pair@$$CBKP8CDPDatabaseClient@@AEXAAVCAr@@KK@Z@std@@@4@$0A@@std@@@2@XZ
_TEXT	SEGMENT PARA USE32 PUBLIC 'CODE'
_TEXT	ENDS
;	COMDAT ?_Isnil@?$_Tree@V?$_Tmap_traits@KP8CDPSrvr@@AEXAAVCAr@@KKPAEK@ZU?$less@K@std@@V?$allocator@U?$pair@$$CBKP8CDPSrvr@@AEXAAVCAr@@KKPAEK@Z@std@@@4@$0A@@std@@@std@@KAAADPAU_Node@?$_Tree_nod@V?$_Tmap_traits@KP8CDPSrvr@@AEXAAVCAr@@KKPAEK@ZU?$less@K@std@@V?$allocator@U?$pair@$$CBKP8CDPSrvr@@AEXAAVCAr@@KKPAEK@Z@std@@@4@$0A@@std@@@2@@Z
_TEXT	SEGMENT PARA USE32 PUBLIC 'CODE'
_TEXT	ENDS
;	COMDAT ?_Left@?$_Tree@V?$_Tmap_traits@KP8CDPSrvr@@AEXAAVCAr@@KKPAEK@ZU?$less@K@std@@V?$allocator@U?$pair@$$CBKP8CDPSrvr@@AEXAAVCAr@@KKPAEK@Z@std@@@4@$0A@@std@@@std@@KAAAPAU_Node@?$_Tree_nod@V?$_Tmap_traits@KP8CDPSrvr@@AEXAAVCAr@@KKPAEK@ZU?$less@K@std@@V?$allocator@U?$pair@$$CBKP8CDPSrvr@@AEXAAVCAr@@KKPAEK@Z@std@@@4@$0A@@std@@@2@PAU342@@Z
_TEXT	SEGMENT PARA USE32 PUBLIC 'CODE'
_TEXT	ENDS
;	COMDAT ?_Right@?$_Tree@V?$_Tmap_traits@KP8CDPSrvr@@AEXAAVCAr@@KKPAEK@ZU?$less@K@std@@V?$allocator@U?$pair@$$CBKP8CDPSrvr@@AEXAAVCAr@@KKPAEK@Z@std@@@4@$0A@@std@@@std@@KAAAPAU_Node@?$_Tree_nod@V?$_Tmap_traits@KP8CDPSrvr@@AEXAAVCAr@@KKPAEK@ZU?$less@K@std@@V?$allocator@U?$pair@$$CBKP8CDPSrvr@@AEXAAVCAr@@KKPAEK@Z@std@@@4@$0A@@std@@@2@PAU342@@Z
_TEXT	SEGMENT PARA USE32 PUBLIC 'CODE'
_TEXT	ENDS
;	COMDAT ?_Root@?$_Tree@V?$_Tmap_traits@KP8CDPSrvr@@AEXAAVCAr@@KKPAEK@ZU?$less@K@std@@V?$allocator@U?$pair@$$CBKP8CDPSrvr@@AEXAAVCAr@@KKPAEK@Z@std@@@4@$0A@@std@@@std@@IBEAAPAU_Node@?$_Tree_nod@V?$_Tmap_traits@KP8CDPSrvr@@AEXAAVCAr@@KKPAEK@ZU?$less@K@std@@V?$allocator@U?$pair@$$CBKP8CDPSrvr@@AEXAAVCAr@@KKPAEK@Z@std@@@4@$0A@@std@@@2@XZ
_TEXT	SEGMENT PARA USE32 PUBLIC 'CODE'
_TEXT	ENDS
;	COMDAT ??0const_iterator@?$vector@UWORMON@@V?$allocator@UWORMON@@@std@@@std@@QAE@PAUWORMON@@@Z
_TEXT	SEGMENT PARA USE32 PUBLIC 'CODE'
_TEXT	ENDS
;	COMDAT ??0const_iterator@?$vector@PAU__JOINPLAYER@CGuildCombat@@V?$allocator@PAU__JOINPLAYER@CGuildCombat@@@std@@@std@@QAE@PAPAU__JOINPLAYER@CGuildCombat@@@Z
_TEXT	SEGMENT PARA USE32 PUBLIC 'CODE'
_TEXT	ENDS
;	COMDAT ??0const_iterator@?$vector@V?$basic_string@DU?$char_traits@D@std@@V?$allocator@D@2@@std@@V?$allocator@V?$basic_string@DU?$char_traits@D@std@@V?$allocator@D@2@@std@@@2@@std@@QAE@PAV?$basic_string@DU?$char_traits@D@std@@V?$allocator@D@2@@2@@Z
_TEXT	SEGMENT PARA USE32 PUBLIC 'CODE'
_TEXT	ENDS
;	COMDAT ??Gconst_iterator@?$vector@V?$basic_string@DU?$char_traits@D@std@@V?$allocator@D@2@@std@@V?$allocator@V?$basic_string@DU?$char_traits@D@std@@V?$allocator@D@2@@std@@@2@@std@@QBEHABV012@@Z
_TEXT	SEGMENT PARA USE32 PUBLIC 'CODE'
_TEXT	ENDS
;	COMDAT ??Yiterator@?$vector@UMINIGMAME_PRIZE_LIST@CRainbowRaceMng@@V?$allocator@UMINIGMAME_PRIZE_LIST@CRainbowRaceMng@@@std@@@std@@QAEAAV012@H@Z
_TEXT	SEGMENT PARA USE32 PUBLIC 'CODE'
_TEXT	ENDS
;	COMDAT ??0const_iterator@?$vector@UMINIGMAME_PRIZE_LIST@CRainbowRaceMng@@V?$allocator@UMINIGMAME_PRIZE_LIST@CRainbowRaceMng@@@std@@@std@@QAE@PAUMINIGMAME_PRIZE_LIST@CRainbowRaceMng@@@Z
_TEXT	SEGMENT PARA USE32 PUBLIC 'CODE'
_TEXT	ENDS
;	COMDAT ??Gconst_iterator@?$vector@UMINIGMAME_PRIZE_LIST@CRainbowRaceMng@@V?$allocator@UMINIGMAME_PRIZE_LIST@CRainbowRaceMng@@@std@@@std@@QBEHABV012@@Z
_TEXT	SEGMENT PARA USE32 PUBLIC 'CODE'
_TEXT	ENDS
;	COMDAT ??0const_iterator@?$vector@PAVCMiniGameBase@@V?$allocator@PAVCMiniGameBase@@@std@@@std@@QAE@PAPAVCMiniGameBase@@@Z
_TEXT	SEGMENT PARA USE32 PUBLIC 'CODE'
_TEXT	ENDS
;	COMDAT ??0const_iterator@?$vector@UGuildHouse_Furniture_Info@CGuildHouseBase@@V?$allocator@UGuildHouse_Furniture_Info@CGuildHouseBase@@@std@@@std@@QAE@PAUGuildHouse_Furniture_Info@CGuildHouseBase@@@Z
_TEXT	SEGMENT PARA USE32 PUBLIC 'CODE'
_TEXT	ENDS
;	COMDAT ??0_Node@?$_Tree_nod@V?$_Tmap_traits@KPAVCGuildHouseBase@@U?$less@K@std@@V?$allocator@U?$pair@$$CBKPAVCGuildHouseBase@@@std@@@3@$0A@@std@@@std@@QAE@PAU012@00ABU?$pair@$$CBKPAVCGuildHouseBase@@@2@D@Z
_TEXT	SEGMENT PARA USE32 PUBLIC 'CODE'
_TEXT	ENDS
;	COMDAT ?_Key@?$_Tree@V?$_Tmap_traits@KU_Friend@@U?$less@K@std@@V?$allocator@U?$pair@$$CBKU_Friend@@@std@@@3@$0A@@std@@@std@@KAABKPAU_Node@?$_Tree_nod@V?$_Tmap_traits@KU_Friend@@U?$less@K@std@@V?$allocator@U?$pair@$$CBKU_Friend@@@std@@@3@$0A@@std@@@2@@Z
_TEXT	SEGMENT PARA USE32 PUBLIC 'CODE'
_TEXT	ENDS
;	COMDAT ?_Root@?$_Tree@V?$_Tmap_traits@KU_Friend@@U?$less@K@std@@V?$allocator@U?$pair@$$CBKU_Friend@@@std@@@3@$0A@@std@@@std@@IBEAAPAU_Node@?$_Tree_nod@V?$_Tmap_traits@KU_Friend@@U?$less@K@std@@V?$allocator@U?$pair@$$CBKU_Friend@@@std@@@3@$0A@@std@@@2@XZ
_TEXT	SEGMENT PARA USE32 PUBLIC 'CODE'
_TEXT	ENDS
;	COMDAT ??0const_iterator@?$_Tree@V?$_Tmap_traits@KU_Friend@@U?$less@K@std@@V?$allocator@U?$pair@$$CBKU_Friend@@@std@@@3@$0A@@std@@@std@@QAE@PAU_Node@?$_Tree_nod@V?$_Tmap_traits@KU_Friend@@U?$less@K@std@@V?$allocator@U?$pair@$$CBKU_Friend@@@std@@@3@$0A@@std@@@2@@Z
_TEXT	SEGMENT PARA USE32 PUBLIC 'CODE'
_TEXT	ENDS
;	COMDAT ??Econst_iterator@?$_Tree@V?$_Tmap_traits@KU_Friend@@U?$less@K@std@@V?$allocator@U?$pair@$$CBKU_Friend@@@std@@@3@$0A@@std@@@std@@QAEAAV012@XZ
_TEXT	SEGMENT PARA USE32 PUBLIC 'CODE'
_TEXT	ENDS
;	COMDAT ?max_size@?$allocator@UMINIGMAME_PRIZE_LIST@CRainbowRaceMng@@@std@@QBEIXZ
_TEXT	SEGMENT PARA USE32 PUBLIC 'CODE'
_TEXT	ENDS
;	COMDAT ?_Max@?$_Tree@V?$_Tmap_traits@KPAVCGuildHouseBase@@U?$less@K@std@@V?$allocator@U?$pair@$$CBKPAVCGuildHouseBase@@@std@@@3@$0A@@std@@@std@@KAPAU_Node@?$_Tree_nod@V?$_Tmap_traits@KPAVCGuildHouseBase@@U?$less@K@std@@V?$allocator@U?$pair@$$CBKPAVCGuildHouseBase@@@std@@@3@$0A@@std@@@2@PAU342@@Z
_TEXT	SEGMENT PARA USE32 PUBLIC 'CODE'
_TEXT	ENDS
;	COMDAT ?_Key@?$_Tree@V?$_Tmap_traits@KKU?$less@K@std@@V?$allocator@U?$pair@$$CBKK@std@@@2@$0A@@std@@@std@@KAABKPAU_Node@?$_Tree_nod@V?$_Tmap_traits@KKU?$less@K@std@@V?$allocator@U?$pair@$$CBKK@std@@@2@$0A@@std@@@2@@Z
_TEXT	SEGMENT PARA USE32 PUBLIC 'CODE'
_TEXT	ENDS
;	COMDAT ?_Root@?$_Tree@V?$_Tmap_traits@KKU?$less@K@std@@V?$allocator@U?$pair@$$CBKK@std@@@2@$0A@@std@@@std@@IBEAAPAU_Node@?$_Tree_nod@V?$_Tmap_traits@KKU?$less@K@std@@V?$allocator@U?$pair@$$CBKK@std@@@2@$0A@@std@@@2@XZ
_TEXT	SEGMENT PARA USE32 PUBLIC 'CODE'
_TEXT	ENDS
;	COMDAT ??0const_iterator@?$_Tree@V?$_Tmap_traits@KKU?$less@K@std@@V?$allocator@U?$pair@$$CBKK@std@@@2@$0A@@std@@@std@@QAE@PAU_Node@?$_Tree_nod@V?$_Tmap_traits@KKU?$less@K@std@@V?$allocator@U?$pair@$$CBKK@std@@@2@$0A@@std@@@2@@Z
_TEXT	SEGMENT PARA USE32 PUBLIC 'CODE'
_TEXT	ENDS
;	COMDAT ??Econst_iterator@?$_Tree@V?$_Tmap_traits@KKU?$less@K@std@@V?$allocator@U?$pair@$$CBKK@std@@@2@$0A@@std@@@std@@QAEAAV012@XZ
_TEXT	SEGMENT PARA USE32 PUBLIC 'CODE'
_TEXT	ENDS
;	COMDAT ?_Color@?$_Tree@V?$_Tmap_traits@KPAVCClientSock@@U?$less@K@std@@V?$allocator@U?$pair@$$CBKPAVCClientSock@@@std@@@3@$0A@@std@@@std@@KAAADPAU_Node@?$_Tree_nod@V?$_Tmap_traits@KPAVCClientSock@@U?$less@K@std@@V?$allocator@U?$pair@$$CBKPAVCClientSock@@@std@@@3@$0A@@std@@@2@@Z
_TEXT	SEGMENT PARA USE32 PUBLIC 'CODE'
_TEXT	ENDS
;	COMDAT ?_Erase@?$_Tree@V?$_Tmap_traits@KPAVCClientSock@@U?$less@K@std@@V?$allocator@U?$pair@$$CBKPAVCClientSock@@@std@@@3@$0A@@std@@@std@@IAEXPAU_Node@?$_Tree_nod@V?$_Tmap_traits@KPAVCClientSock@@U?$less@K@std@@V?$allocator@U?$pair@$$CBKPAVCClientSock@@@std@@@3@$0A@@std@@@2@@Z
_TEXT	SEGMENT PARA USE32 PUBLIC 'CODE'
_TEXT	ENDS
;	COMDAT ?_Lrotate@?$_Tree@V?$_Tmap_traits@KPAVCClientSock@@U?$less@K@std@@V?$allocator@U?$pair@$$CBKPAVCClientSock@@@std@@@3@$0A@@std@@@std@@IAEXPAU_Node@?$_Tree_nod@V?$_Tmap_traits@KPAVCClientSock@@U?$less@K@std@@V?$allocator@U?$pair@$$CBKPAVCClientSock@@@std@@@3@$0A@@std@@@2@@Z
_TEXT	SEGMENT PARA USE32 PUBLIC 'CODE'
_TEXT	ENDS
;	COMDAT ?_Max@?$_Tree@V?$_Tmap_traits@KPAVCClientSock@@U?$less@K@std@@V?$allocator@U?$pair@$$CBKPAVCClientSock@@@std@@@3@$0A@@std@@@std@@KAPAU_Node@?$_Tree_nod@V?$_Tmap_traits@KPAVCClientSock@@U?$less@K@std@@V?$allocator@U?$pair@$$CBKPAVCClientSock@@@std@@@3@$0A@@std@@@2@PAU342@@Z
_TEXT	SEGMENT PARA USE32 PUBLIC 'CODE'
_TEXT	ENDS
;	COMDAT ?_Min@?$_Tree@V?$_Tmap_traits@KPAVCClientSock@@U?$less@K@std@@V?$allocator@U?$pair@$$CBKPAVCClientSock@@@std@@@3@$0A@@std@@@std@@KAPAU_Node@?$_Tree_nod@V?$_Tmap_traits@KPAVCClientSock@@U?$less@K@std@@V?$allocator@U?$pair@$$CBKPAVCClientSock@@@std@@@3@$0A@@std@@@2@PAU342@@Z
_TEXT	SEGMENT PARA USE32 PUBLIC 'CODE'
_TEXT	ENDS
;	COMDAT ?_Rrotate@?$_Tree@V?$_Tmap_traits@KPAVCClientSock@@U?$less@K@std@@V?$allocator@U?$pair@$$CBKPAVCClientSock@@@std@@@3@$0A@@std@@@std@@IAEXPAU_Node@?$_Tree_nod@V?$_Tmap_traits@KPAVCClientSock@@U?$less@K@std@@V?$allocator@U?$pair@$$CBKPAVCClientSock@@@std@@@3@$0A@@std@@@2@@Z
_TEXT	SEGMENT PARA USE32 PUBLIC 'CODE'
_TEXT	ENDS
;	COMDAT ??0?$_Tree_nod@V?$_Tmap_traits@KPAVCClientSock@@U?$less@K@std@@V?$allocator@U?$pair@$$CBKPAVCClientSock@@@std@@@3@$0A@@std@@@std@@IAE@ABU?$less@K@1@V?$allocator@U?$pair@$$CBKPAVCClientSock@@@std@@@1@@Z
_TEXT	SEGMENT PARA USE32 PUBLIC 'CODE'
_TEXT	ENDS
;	COMDAT ?allocate@?$allocator@U_Node@?$_Tree_nod@V?$_Tmap_traits@KPAVCClientSock@@U?$less@K@std@@V?$allocator@U?$pair@$$CBKPAVCClientSock@@@std@@@3@$0A@@std@@@std@@@std@@QAEPAU_Node@?$_Tree_nod@V?$_Tmap_traits@KPAVCClientSock@@U?$less@K@std@@V?$allocator@U?$pair@$$CBKPAVCClientSock@@@std@@@3@$0A@@std@@@2@I@Z
_TEXT	SEGMENT PARA USE32 PUBLIC 'CODE'
_TEXT	ENDS
;	COMDAT ?destroy@?$allocator@U_Node@?$_Tree_nod@V?$_Tmap_traits@KPAVCClientSock@@U?$less@K@std@@V?$allocator@U?$pair@$$CBKPAVCClientSock@@@std@@@3@$0A@@std@@@std@@@std@@QAEXPAU_Node@?$_Tree_nod@V?$_Tmap_traits@KPAVCClientSock@@U?$less@K@std@@V?$allocator@U?$pair@$$CBKPAVCClientSock@@@std@@@3@$0A@@std@@@2@@Z
_TEXT	SEGMENT PARA USE32 PUBLIC 'CODE'
_TEXT	ENDS
;	COMDAT ?construct@?$allocator@PAU_Node@?$_Tree_nod@V?$_Tmap_traits@KPAVCClientSock@@U?$less@K@std@@V?$allocator@U?$pair@$$CBKPAVCClientSock@@@std@@@3@$0A@@std@@@std@@@std@@QAEXPAPAU_Node@?$_Tree_nod@V?$_Tmap_traits@KPAVCClientSock@@U?$less@K@std@@V?$allocator@U?$pair@$$CBKPAVCClientSock@@@std@@@3@$0A@@std@@@2@ABQAU342@@Z
_TEXT	SEGMENT PARA USE32 PUBLIC 'CODE'
_TEXT	ENDS
;	COMDAT ??Eiterator@?$_Tree@V?$_Tmap_traits@KPAVCClientSock@@U?$less@K@std@@V?$allocator@U?$pair@$$CBKPAVCClientSock@@@std@@@3@$0A@@std@@@std@@QAEAAV012@XZ
_TEXT	SEGMENT PARA USE32 PUBLIC 'CODE'
_TEXT	ENDS
;	COMDAT ?_Color@?$_Tree@V?$_Tmap_traits@KPAVCClientSockE@@U?$less@K@std@@V?$allocator@U?$pair@$$CBKPAVCClientSockE@@@std@@@3@$0A@@std@@@std@@KAAADPAU_Node@?$_Tree_nod@V?$_Tmap_traits@KPAVCClientSockE@@U?$less@K@std@@V?$allocator@U?$pair@$$CBKPAVCClientSockE@@@std@@@3@$0A@@std@@@2@@Z
_TEXT	SEGMENT PARA USE32 PUBLIC 'CODE'
_TEXT	ENDS
;	COMDAT ?_Erase@?$_Tree@V?$_Tmap_traits@KPAVCClientSockE@@U?$less@K@std@@V?$allocator@U?$pair@$$CBKPAVCClientSockE@@@std@@@3@$0A@@std@@@std@@IAEXPAU_Node@?$_Tree_nod@V?$_Tmap_traits@KPAVCClientSockE@@U?$less@K@std@@V?$allocator@U?$pair@$$CBKPAVCClientSockE@@@std@@@3@$0A@@std@@@2@@Z
_TEXT	SEGMENT PARA USE32 PUBLIC 'CODE'
_TEXT	ENDS
;	COMDAT ?_Lrotate@?$_Tree@V?$_Tmap_traits@KPAVCClientSockE@@U?$less@K@std@@V?$allocator@U?$pair@$$CBKPAVCClientSockE@@@std@@@3@$0A@@std@@@std@@IAEXPAU_Node@?$_Tree_nod@V?$_Tmap_traits@KPAVCClientSockE@@U?$less@K@std@@V?$allocator@U?$pair@$$CBKPAVCClientSockE@@@std@@@3@$0A@@std@@@2@@Z
_TEXT	SEGMENT PARA USE32 PUBLIC 'CODE'
_TEXT	ENDS
;	COMDAT ?_Max@?$_Tree@V?$_Tmap_traits@KPAVCClientSockE@@U?$less@K@std@@V?$allocator@U?$pair@$$CBKPAVCClientSockE@@@std@@@3@$0A@@std@@@std@@KAPAU_Node@?$_Tree_nod@V?$_Tmap_traits@KPAVCClientSockE@@U?$less@K@std@@V?$allocator@U?$pair@$$CBKPAVCClientSockE@@@std@@@3@$0A@@std@@@2@PAU342@@Z
_TEXT	SEGMENT PARA USE32 PUBLIC 'CODE'
_TEXT	ENDS
;	COMDAT ?_Min@?$_Tree@V?$_Tmap_traits@KPAVCClientSockE@@U?$less@K@std@@V?$allocator@U?$pair@$$CBKPAVCClientSockE@@@std@@@3@$0A@@std@@@std@@KAPAU_Node@?$_Tree_nod@V?$_Tmap_traits@KPAVCClientSockE@@U?$less@K@std@@V?$allocator@U?$pair@$$CBKPAVCClientSockE@@@std@@@3@$0A@@std@@@2@PAU342@@Z
_TEXT	SEGMENT PARA USE32 PUBLIC 'CODE'
_TEXT	ENDS
;	COMDAT ?_Rrotate@?$_Tree@V?$_Tmap_traits@KPAVCClientSockE@@U?$less@K@std@@V?$allocator@U?$pair@$$CBKPAVCClientSockE@@@std@@@3@$0A@@std@@@std@@IAEXPAU_Node@?$_Tree_nod@V?$_Tmap_traits@KPAVCClientSockE@@U?$less@K@std@@V?$allocator@U?$pair@$$CBKPAVCClientSockE@@@std@@@3@$0A@@std@@@2@@Z
_TEXT	SEGMENT PARA USE32 PUBLIC 'CODE'
_TEXT	ENDS
;	COMDAT ??0?$_Tree_nod@V?$_Tmap_traits@KPAVCClientSockE@@U?$less@K@std@@V?$allocator@U?$pair@$$CBKPAVCClientSockE@@@std@@@3@$0A@@std@@@std@@IAE@ABU?$less@K@1@V?$allocator@U?$pair@$$CBKPAVCClientSockE@@@std@@@1@@Z
_TEXT	SEGMENT PARA USE32 PUBLIC 'CODE'
_TEXT	ENDS
;	COMDAT ?allocate@?$allocator@U_Node@?$_Tree_nod@V?$_Tmap_traits@KPAVCClientSockE@@U?$less@K@std@@V?$allocator@U?$pair@$$CBKPAVCClientSockE@@@std@@@3@$0A@@std@@@std@@@std@@QAEPAU_Node@?$_Tree_nod@V?$_Tmap_traits@KPAVCClientSockE@@U?$less@K@std@@V?$allocator@U?$pair@$$CBKPAVCClientSockE@@@std@@@3@$0A@@std@@@2@I@Z
_TEXT	SEGMENT PARA USE32 PUBLIC 'CODE'
_TEXT	ENDS
;	COMDAT ?destroy@?$allocator@U_Node@?$_Tree_nod@V?$_Tmap_traits@KPAVCClientSockE@@U?$less@K@std@@V?$allocator@U?$pair@$$CBKPAVCClientSockE@@@std@@@3@$0A@@std@@@std@@@std@@QAEXPAU_Node@?$_Tree_nod@V?$_Tmap_traits@KPAVCClientSockE@@U?$less@K@std@@V?$allocator@U?$pair@$$CBKPAVCClientSockE@@@std@@@3@$0A@@std@@@2@@Z
_TEXT	SEGMENT PARA USE32 PUBLIC 'CODE'
_TEXT	ENDS
;	COMDAT ?construct@?$allocator@PAU_Node@?$_Tree_nod@V?$_Tmap_traits@KPAVCClientSockE@@U?$less@K@std@@V?$allocator@U?$pair@$$CBKPAVCClientSockE@@@std@@@3@$0A@@std@@@std@@@std@@QAEXPAPAU_Node@?$_Tree_nod@V?$_Tmap_traits@KPAVCClientSockE@@U?$less@K@std@@V?$allocator@U?$pair@$$CBKPAVCClientSockE@@@std@@@3@$0A@@std@@@2@ABQAU342@@Z
_TEXT	SEGMENT PARA USE32 PUBLIC 'CODE'
_TEXT	ENDS
;	COMDAT ??Eiterator@?$_Tree@V?$_Tmap_traits@KPAVCClientSockE@@U?$less@K@std@@V?$allocator@U?$pair@$$CBKPAVCClientSockE@@@std@@@3@$0A@@std@@@std@@QAEAAV012@XZ
_TEXT	SEGMENT PARA USE32 PUBLIC 'CODE'
_TEXT	ENDS
;	COMDAT ?_Parent@?$_Tree@V?$_Tmap_traits@KP8CDPCoreClient@@AEXAAVCAr@@KKK@ZU?$less@K@std@@V?$allocator@U?$pair@$$CBKP8CDPCoreClient@@AEXAAVCAr@@KKK@Z@std@@@4@$0A@@std@@@std@@KAAAPAU_Node@?$_Tree_nod@V?$_Tmap_traits@KP8CDPCoreClient@@AEXAAVCAr@@KKK@ZU?$less@K@std@@V?$allocator@U?$pair@$$CBKP8CDPCoreClient@@AEXAAVCAr@@KKK@Z@std@@@4@$0A@@std@@@2@PAU342@@Z
_TEXT	SEGMENT PARA USE32 PUBLIC 'CODE'
_TEXT	ENDS
;	COMDAT ?_Parent@?$_Tree@V?$_Tmap_traits@KP8CDPDatabaseClient@@AEXAAVCAr@@KK@ZU?$less@K@std@@V?$allocator@U?$pair@$$CBKP8CDPDatabaseClient@@AEXAAVCAr@@KK@Z@std@@@4@$0A@@std@@@std@@KAAAPAU_Node@?$_Tree_nod@V?$_Tmap_traits@KP8CDPDatabaseClient@@AEXAAVCAr@@KK@ZU?$less@K@std@@V?$allocator@U?$pair@$$CBKP8CDPDatabaseClient@@AEXAAVCAr@@KK@Z@std@@@4@$0A@@std@@@2@PAU342@@Z
_TEXT	SEGMENT PARA USE32 PUBLIC 'CODE'
_TEXT	ENDS
;	COMDAT ?_Parent@?$_Tree@V?$_Tmap_traits@KP8CDPSrvr@@AEXAAVCAr@@KKPAEK@ZU?$less@K@std@@V?$allocator@U?$pair@$$CBKP8CDPSrvr@@AEXAAVCAr@@KKPAEK@Z@std@@@4@$0A@@std@@@std@@KAAAPAU_Node@?$_Tree_nod@V?$_Tmap_traits@KP8CDPSrvr@@AEXAAVCAr@@KKPAEK@ZU?$less@K@std@@V?$allocator@U?$pair@$$CBKP8CDPSrvr@@AEXAAVCAr@@KKPAEK@Z@std@@@4@$0A@@std@@@2@PAU342@@Z
_TEXT	SEGMENT PARA USE32 PUBLIC 'CODE'
_TEXT	ENDS
;	COMDAT ?_Myval@?$_Tree@V?$_Tmap_traits@KU_Friend@@U?$less@K@std@@V?$allocator@U?$pair@$$CBKU_Friend@@@std@@@3@$0A@@std@@@std@@KAAAU?$pair@$$CBKU_Friend@@@2@PAU_Node@?$_Tree_nod@V?$_Tmap_traits@KU_Friend@@U?$less@K@std@@V?$allocator@U?$pair@$$CBKU_Friend@@@std@@@3@$0A@@std@@@2@@Z
_TEXT	SEGMENT PARA USE32 PUBLIC 'CODE'
_TEXT	ENDS
;	COMDAT ?_Kfn@?$_Tmap_traits@KU_Friend@@U?$less@K@std@@V?$allocator@U?$pair@$$CBKU_Friend@@@std@@@3@$0A@@std@@SAABKABU?$pair@$$CBKU_Friend@@@2@@Z
_TEXT	SEGMENT PARA USE32 PUBLIC 'CODE'
_TEXT	ENDS
;	COMDAT ?_Inc@const_iterator@?$_Tree@V?$_Tmap_traits@KU_Friend@@U?$less@K@std@@V?$allocator@U?$pair@$$CBKU_Friend@@@std@@@3@$0A@@std@@@std@@QAEXXZ
_TEXT	SEGMENT PARA USE32 PUBLIC 'CODE'
_TEXT	ENDS
;	COMDAT ?_Myval@?$_Tree@V?$_Tmap_traits@KKU?$less@K@std@@V?$allocator@U?$pair@$$CBKK@std@@@2@$0A@@std@@@std@@KAAAU?$pair@$$CBKK@2@PAU_Node@?$_Tree_nod@V?$_Tmap_traits@KKU?$less@K@std@@V?$allocator@U?$pair@$$CBKK@std@@@2@$0A@@std@@@2@@Z
_TEXT	SEGMENT PARA USE32 PUBLIC 'CODE'
_TEXT	ENDS
;	COMDAT ?_Kfn@?$_Tmap_traits@KKU?$less@K@std@@V?$allocator@U?$pair@$$CBKK@std@@@2@$0A@@std@@SAABKABU?$pair@$$CBKK@2@@Z
_TEXT	SEGMENT PARA USE32 PUBLIC 'CODE'
_TEXT	ENDS
;	COMDAT ?_Inc@const_iterator@?$_Tree@V?$_Tmap_traits@KKU?$less@K@std@@V?$allocator@U?$pair@$$CBKK@std@@@2@$0A@@std@@@std@@QAEXXZ
_TEXT	SEGMENT PARA USE32 PUBLIC 'CODE'
_TEXT	ENDS
;	COMDAT ??0?$_Tmap_traits@KPAVCClientSock@@U?$less@K@std@@V?$allocator@U?$pair@$$CBKPAVCClientSock@@@std@@@3@$0A@@std@@QAE@U?$less@K@1@@Z
_TEXT	SEGMENT PARA USE32 PUBLIC 'CODE'
_TEXT	ENDS
;	COMDAT ??Econst_iterator@?$_Tree@V?$_Tmap_traits@KPAVCClientSock@@U?$less@K@std@@V?$allocator@U?$pair@$$CBKPAVCClientSock@@@std@@@3@$0A@@std@@@std@@QAEAAV012@XZ
_TEXT	SEGMENT PARA USE32 PUBLIC 'CODE'
_TEXT	ENDS
;	COMDAT ??0?$_Tmap_traits@KPAVCClientSockE@@U?$less@K@std@@V?$allocator@U?$pair@$$CBKPAVCClientSockE@@@std@@@3@$0A@@std@@QAE@U?$less@K@1@@Z
_TEXT	SEGMENT PARA USE32 PUBLIC 'CODE'
_TEXT	ENDS
;	COMDAT ??Econst_iterator@?$_Tree@V?$_Tmap_traits@KPAVCClientSockE@@U?$less@K@std@@V?$allocator@U?$pair@$$CBKPAVCClientSockE@@@std@@@3@$0A@@std@@@std@@QAEAAV012@XZ
_TEXT	SEGMENT PARA USE32 PUBLIC 'CODE'
_TEXT	ENDS
;	COMDAT ?_Inc@const_iterator@?$_Tree@V?$_Tmap_traits@KPAVCClientSock@@U?$less@K@std@@V?$allocator@U?$pair@$$CBKPAVCClientSock@@@std@@@3@$0A@@std@@@std@@QAEXXZ
_TEXT	SEGMENT PARA USE32 PUBLIC 'CODE'
_TEXT	ENDS
;	COMDAT ?_Inc@const_iterator@?$_Tree@V?$_Tmap_traits@KPAVCClientSockE@@U?$less@K@std@@V?$allocator@U?$pair@$$CBKPAVCClientSockE@@@std@@@3@$0A@@std@@@std@@QAEXXZ
_TEXT	SEGMENT PARA USE32 PUBLIC 'CODE'
_TEXT	ENDS
;	COMDAT ??$_Iter_cat@Vconst_iterator@?$vector@EV?$allocator@E@std@@@std@@@std@@YA?AUrandom_access_iterator_tag@0@ABVconst_iterator@?$vector@EV?$allocator@E@std@@@0@@Z
_TEXT	SEGMENT PARA USE32 PUBLIC 'CODE'
_TEXT	ENDS
;	COMDAT ??$_Assign@Vconst_iterator@?$vector@EV?$allocator@E@std@@@std@@@?$vector@EV?$allocator@E@std@@@std@@QAEXVconst_iterator@01@0Uinput_iterator_tag@1@@Z
_TEXT	SEGMENT PARA USE32 PUBLIC 'CODE'
_TEXT	ENDS
;	COMDAT ??$_Iter_cat@Viterator@?$_Tree@V?$_Tmap_traits@KPAVCUser@@U?$less@K@std@@V?$allocator@U?$pair@$$CBKPAVCUser@@@std@@@3@$0A@@std@@@std@@@std@@YA?AUbidirectional_iterator_tag@0@ABViterator@?$_Tree@V?$_Tmap_traits@KPAVCUser@@U?$less@K@std@@V?$allocator@U?$pair@$$CBKPAVCUser@@@std@@@3@$0A@@std@@@0@@Z
_TEXT	SEGMENT PARA USE32 PUBLIC 'CODE'
_TEXT	ENDS
;	COMDAT ??$_Distance2@Viterator@?$_Tree@V?$_Tmap_traits@KPAVCUser@@U?$less@K@std@@V?$allocator@U?$pair@$$CBKPAVCUser@@@std@@@3@$0A@@std@@@std@@I@std@@YAXViterator@?$_Tree@V?$_Tmap_traits@KPAVCUser@@U?$less@K@std@@V?$allocator@U?$pair@$$CBKPAVCUser@@@std@@@3@$0A@@std@@@0@0AAIUbidirectional_iterator_tag@0@@Z
_TEXT	SEGMENT PARA USE32 PUBLIC 'CODE'
_TEXT	ENDS
;	COMDAT ??$_Iter_cat@Viterator@?$_Tree@V?$_Tmap_traits@KPAVCCtrl@@U?$less@K@std@@V?$allocator@U?$pair@$$CBKPAVCCtrl@@@std@@@3@$0A@@std@@@std@@@std@@YA?AUbidirectional_iterator_tag@0@ABViterator@?$_Tree@V?$_Tmap_traits@KPAVCCtrl@@U?$less@K@std@@V?$allocator@U?$pair@$$CBKPAVCCtrl@@@std@@@3@$0A@@std@@@0@@Z
_TEXT	SEGMENT PARA USE32 PUBLIC 'CODE'
_TEXT	ENDS
;	COMDAT ??$_Distance2@Viterator@?$_Tree@V?$_Tmap_traits@KPAVCCtrl@@U?$less@K@std@@V?$allocator@U?$pair@$$CBKPAVCCtrl@@@std@@@3@$0A@@std@@@std@@I@std@@YAXViterator@?$_Tree@V?$_Tmap_traits@KPAVCCtrl@@U?$less@K@std@@V?$allocator@U?$pair@$$CBKPAVCCtrl@@@std@@@3@$0A@@std@@@0@0AAIUbidirectional_iterator_tag@0@@Z
_TEXT	SEGMENT PARA USE32 PUBLIC 'CODE'
_TEXT	ENDS
;	COMDAT ??$_Uninitialized_copy@Vconst_iterator@?$vector@EV?$allocator@E@std@@@std@@PAEV?$allocator@E@3@@std@@YAPAEVconst_iterator@?$vector@EV?$allocator@E@std@@@0@0PAEAAV?$allocator@E@0@@Z
_TEXT	SEGMENT PARA USE32 PUBLIC 'CODE'
_TEXT	ENDS
;	COMDAT ??$_Iter_cat@Viterator@?$_Tree@V?$_Tmap_traits@KEU?$less@K@std@@V?$allocator@U?$pair@$$CBKE@std@@@2@$0A@@std@@@std@@@std@@YA?AUbidirectional_iterator_tag@0@ABViterator@?$_Tree@V?$_Tmap_traits@KEU?$less@K@std@@V?$allocator@U?$pair@$$CBKE@std@@@2@$0A@@std@@@0@@Z
_TEXT	SEGMENT PARA USE32 PUBLIC 'CODE'
_TEXT	ENDS
;	COMDAT ??$_Distance2@Viterator@?$_Tree@V?$_Tmap_traits@KEU?$less@K@std@@V?$allocator@U?$pair@$$CBKE@std@@@2@$0A@@std@@@std@@I@std@@YAXViterator@?$_Tree@V?$_Tmap_traits@KEU?$less@K@std@@V?$allocator@U?$pair@$$CBKE@std@@@2@$0A@@std@@@0@0AAIUbidirectional_iterator_tag@0@@Z
_TEXT	SEGMENT PARA USE32 PUBLIC 'CODE'
_TEXT	ENDS
;	COMDAT ??$_Ptr_cat@PAU__SPAWNREGION@CEventLua@@PAU12@@std@@YA?AU_Nonscalar_ptr_iterator_tag@0@AAPAU__SPAWNREGION@CEventLua@@0@Z
_TEXT	SEGMENT PARA USE32 PUBLIC 'CODE'
_TEXT	ENDS
;	COMDAT ??$_Uninit_fill_n@PAU__SPAWNREGION@CEventLua@@IU12@V?$allocator@U__SPAWNREGION@CEventLua@@@std@@@std@@YAXPAU__SPAWNREGION@CEventLua@@IABU12@AAV?$allocator@U__SPAWNREGION@CEventLua@@@0@U_Nonscalar_ptr_iterator_tag@0@@Z
_TEXT	SEGMENT PARA USE32 PUBLIC 'CODE'
_TEXT	ENDS
;	COMDAT ??$_Copy_opt@PAJPAJ@std@@YAPAJPAJ00U_Scalar_ptr_iterator_tag@0@@Z
_TEXT	SEGMENT PARA USE32 PUBLIC 'CODE'
_TEXT	ENDS
;	COMDAT ??$_Uninitialized_copy@PAJPAJV?$allocator@J@std@@@std@@YAPAJPAJ00AAV?$allocator@J@0@@Z
_TEXT	SEGMENT PARA USE32 PUBLIC 'CODE'
_TEXT	ENDS
;	COMDAT ??$_Copy_backward_opt@PAJPAJ@std@@YAPAJPAJ00U_Scalar_ptr_iterator_tag@0@@Z
_TEXT	SEGMENT PARA USE32 PUBLIC 'CODE'
_TEXT	ENDS
;	COMDAT ??$_Ptr_cat@PAUtagDROPITEM@@PAU1@@std@@YA?AU_Nonscalar_ptr_iterator_tag@0@AAPAUtagDROPITEM@@0@Z
_TEXT	SEGMENT PARA USE32 PUBLIC 'CODE'
_TEXT	ENDS
;	COMDAT ??$_Destroy_range@UtagDROPITEM@@V?$allocator@UtagDROPITEM@@@std@@@std@@YAXPAUtagDROPITEM@@0AAV?$allocator@UtagDROPITEM@@@0@U_Nonscalar_ptr_iterator_tag@0@@Z
_TEXT	SEGMENT PARA USE32 PUBLIC 'CODE'
_TEXT	ENDS
;	COMDAT ??$_Ptr_cat@PAUWORMON@@PAU1@@std@@YA?AU_Nonscalar_ptr_iterator_tag@0@AAPAUWORMON@@0@Z
_TEXT	SEGMENT PARA USE32 PUBLIC 'CODE'
_TEXT	ENDS
;	COMDAT ??$_Destroy_range@UWORMON@@V?$allocator@UWORMON@@@std@@@std@@YAXPAUWORMON@@0AAV?$allocator@UWORMON@@@0@U_Nonscalar_ptr_iterator_tag@0@@Z
_TEXT	SEGMENT PARA USE32 PUBLIC 'CODE'
_TEXT	ENDS
;	COMDAT ??$_Ptr_cat@PAU__ITEMGAME@CMiniGame@@PAU12@@std@@YA?AU_Nonscalar_ptr_iterator_tag@0@AAPAU__ITEMGAME@CMiniGame@@0@Z
_TEXT	SEGMENT PARA USE32 PUBLIC 'CODE'
_TEXT	ENDS
;	COMDAT ??$_Destroy_range@U__ITEMGAME@CMiniGame@@V?$allocator@U__ITEMGAME@CMiniGame@@@std@@@std@@YAXPAU__ITEMGAME@CMiniGame@@0AAV?$allocator@U__ITEMGAME@CMiniGame@@@0@U_Nonscalar_ptr_iterator_tag@0@@Z
_TEXT	SEGMENT PARA USE32 PUBLIC 'CODE'
_TEXT	ENDS
;	COMDAT ??$_Destroy_range@KV?$allocator@K@std@@@std@@YAXPAK0AAV?$allocator@K@0@U_Scalar_ptr_iterator_tag@0@@Z
_TEXT	SEGMENT PARA USE32 PUBLIC 'CODE'
_TEXT	ENDS
;	COMDAT ??$_Destroy_range@HV?$allocator@H@std@@@std@@YAXPAH0AAV?$allocator@H@0@U_Scalar_ptr_iterator_tag@0@@Z
_TEXT	SEGMENT PARA USE32 PUBLIC 'CODE'
_TEXT	ENDS
;	COMDAT ??$_Ptr_cat@PAU__ITEM@CExchange@@PAU12@@std@@YA?AU_Nonscalar_ptr_iterator_tag@0@AAPAU__ITEM@CExchange@@0@Z
_TEXT	SEGMENT PARA USE32 PUBLIC 'CODE'
_TEXT	ENDS
;	COMDAT ??$_Destroy_range@U__ITEM@CExchange@@V?$allocator@U__ITEM@CExchange@@@std@@@std@@YAXPAU__ITEM@CExchange@@0AAV?$allocator@U__ITEM@CExchange@@@0@U_Nonscalar_ptr_iterator_tag@0@@Z
_TEXT	SEGMENT PARA USE32 PUBLIC 'CODE'
_TEXT	ENDS
;	COMDAT ??$_Ptr_cat@PAU__POINT@CExchange@@PAU12@@std@@YA?AU_Nonscalar_ptr_iterator_tag@0@AAPAU__POINT@CExchange@@0@Z
_TEXT	SEGMENT PARA USE32 PUBLIC 'CODE'
_TEXT	ENDS
;	COMDAT ??$_Destroy_range@U__POINT@CExchange@@V?$allocator@U__POINT@CExchange@@@std@@@std@@YAXPAU__POINT@CExchange@@0AAV?$allocator@U__POINT@CExchange@@@0@U_Nonscalar_ptr_iterator_tag@0@@Z
_TEXT	SEGMENT PARA USE32 PUBLIC 'CODE'
_TEXT	ENDS
;	COMDAT ??$_Destroy_range@EV?$allocator@E@std@@@std@@YAXPAE0AAV?$allocator@E@0@U_Scalar_ptr_iterator_tag@0@@Z
_TEXT	SEGMENT PARA USE32 PUBLIC 'CODE'
_TEXT	ENDS
;	COMDAT ??$_Uninitialized_copy@PAU__SPAWNREGION@CEventLua@@PAU12@V?$allocator@U__SPAWNREGION@CEventLua@@@std@@@std@@YAPAU__SPAWNREGION@CEventLua@@PAU12@00AAV?$allocator@U__SPAWNREGION@CEventLua@@@0@@Z
_TEXT	SEGMENT PARA USE32 PUBLIC 'CODE'
_TEXT	ENDS
;	COMDAT ??$_Copy_backward_opt@PAU__SPAWNREGION@CEventLua@@PAU12@@std@@YAPAU__SPAWNREGION@CEventLua@@PAU12@00U_Nonscalar_ptr_iterator_tag@0@@Z
_TEXT	SEGMENT PARA USE32 PUBLIC 'CODE'
_TEXT	ENDS
;	COMDAT ??$_Ptr_cat@PAUD3DXVECTOR3@@PAU1@@std@@YA?AU_Nonscalar_ptr_iterator_tag@0@AAPAUD3DXVECTOR3@@0@Z
_TEXT	SEGMENT PARA USE32 PUBLIC 'CODE'
_TEXT	ENDS
;	COMDAT ??$_Destroy_range@UD3DXVECTOR3@@V?$allocator@UD3DXVECTOR3@@@std@@@std@@YAXPAUD3DXVECTOR3@@0AAV?$allocator@UD3DXVECTOR3@@@0@U_Nonscalar_ptr_iterator_tag@0@@Z
_TEXT	SEGMENT PARA USE32 PUBLIC 'CODE'
_TEXT	ENDS
;	COMDAT ??$_Ptr_cat@PAU_GIFTBOX@@PAU1@@std@@YA?AU_Nonscalar_ptr_iterator_tag@0@AAPAU_GIFTBOX@@0@Z
_TEXT	SEGMENT PARA USE32 PUBLIC 'CODE'
_TEXT	ENDS
;	COMDAT ??$_Destroy_range@U_GIFTBOX@@V?$allocator@U_GIFTBOX@@@std@@@std@@YAXPAU_GIFTBOX@@0AAV?$allocator@U_GIFTBOX@@@0@U_Nonscalar_ptr_iterator_tag@0@@Z
_TEXT	SEGMENT PARA USE32 PUBLIC 'CODE'
_TEXT	ENDS
;	COMDAT ??$_Destroy_range@JV?$allocator@J@std@@@std@@YAXPAJ0AAV?$allocator@J@0@U_Scalar_ptr_iterator_tag@0@@Z
_TEXT	SEGMENT PARA USE32 PUBLIC 'CODE'
_TEXT	ENDS
;	COMDAT ??$_Uninit_fill_n@JIJ@std@@YAXPAJIABJAAV?$allocator@J@0@U_Scalar_ptr_iterator_tag@0@@Z
_TEXT	SEGMENT PARA USE32 PUBLIC 'CODE'
_TEXT	ENDS
;	COMDAT ??$_Destroy_range@U__SPAWNREGION@CEventLua@@V?$allocator@U__SPAWNREGION@CEventLua@@@std@@@std@@YAXPAU__SPAWNREGION@CEventLua@@0AAV?$allocator@U__SPAWNREGION@CEventLua@@@0@U_Nonscalar_ptr_iterator_tag@0@@Z
_TEXT	SEGMENT PARA USE32 PUBLIC 'CODE'
_TEXT	ENDS
;	COMDAT ??$make_pair@KPAVCGuildHouseBase@@@std@@YA?AU?$pair@KPAVCGuildHouseBase@@@0@KPAVCGuildHouseBase@@@Z
_TEXT	SEGMENT PARA USE32 PUBLIC 'CODE'
_TEXT	ENDS
;	COMDAT ??$?0KPAVCGuildHouseBase@@@?$pair@$$CBKPAVCGuildHouseBase@@@std@@QAE@ABU?$pair@KPAVCGuildHouseBase@@@1@@Z
_TEXT	SEGMENT PARA USE32 PUBLIC 'CODE'
_TEXT	ENDS
;	COMDAT ??1?$CFixedArray@UtagWORLD@@@@UAE@XZ
_TEXT	SEGMENT PARA USE32 PUBLIC 'CODE'
_TEXT	ENDS
;	COMDAT ?GetAt@?$CFixedArray@UtagWORLD@@@@QAEPAUtagWORLD@@K@Z
_TEXT	SEGMENT PARA USE32 PUBLIC 'CODE'
_TEXT	ENDS
;	COMDAT ??$_Distance@Viterator@?$_Tree@V?$_Tmap_traits@KU_Friend@@U?$less@K@std@@V?$allocator@U?$pair@$$CBKU_Friend@@@std@@@3@$0A@@std@@@std@@I@std@@YAXViterator@?$_Tree@V?$_Tmap_traits@KU_Friend@@U?$less@K@std@@V?$allocator@U?$pair@$$CBKU_Friend@@@std@@@3@$0A@@std@@@0@0AAI@Z
_TEXT	SEGMENT PARA USE32 PUBLIC 'CODE'
_TEXT	ENDS
;	COMDAT ??$_Distance@Viterator@?$_Tree@V?$_Tmap_traits@KKU?$less@K@std@@V?$allocator@U?$pair@$$CBKK@std@@@2@$0A@@std@@@std@@I@std@@YAXViterator@?$_Tree@V?$_Tmap_traits@KKU?$less@K@std@@V?$allocator@U?$pair@$$CBKK@std@@@2@$0A@@std@@@0@0AAI@Z
_TEXT	SEGMENT PARA USE32 PUBLIC 'CODE'
_TEXT	ENDS
;	COMDAT ??$_Destroy@U_Node@?$_List_nod@PAU__JOINPLAYER@CGuildCombat@@V?$allocator@PAU__JOINPLAYER@CGuildCombat@@@std@@@std@@@std@@YAXPAU_Node@?$_List_nod@PAU__JOINPLAYER@CGuildCombat@@V?$allocator@PAU__JOINPLAYER@CGuildCombat@@@std@@@0@@Z
_TEXT	SEGMENT PARA USE32 PUBLIC 'CODE'
_TEXT	ENDS
;	COMDAT ??$_Uninitialized_fill_n@PAV?$basic_string@DU?$char_traits@D@std@@V?$allocator@D@2@@std@@IV12@V?$allocator@V?$basic_string@DU?$char_traits@D@std@@V?$allocator@D@2@@std@@@2@@std@@YAXPAV?$basic_string@DU?$char_traits@D@std@@V?$allocator@D@2@@0@IABV10@AAV?$allocator@V?$basic_string@DU?$char_traits@D@std@@V?$allocator@D@2@@std@@@0@@Z
_TEXT	SEGMENT PARA USE32 PUBLIC 'CODE'
_TEXT	ENDS
;	COMDAT ??$_Uninitialized_fill_n@PAUMINIGMAME_PRIZE_LIST@CRainbowRaceMng@@IU12@V?$allocator@UMINIGMAME_PRIZE_LIST@CRainbowRaceMng@@@std@@@std@@YAXPAUMINIGMAME_PRIZE_LIST@CRainbowRaceMng@@IABU12@AAV?$allocator@UMINIGMAME_PRIZE_LIST@CRainbowRaceMng@@@0@@Z
_TEXT	SEGMENT PARA USE32 PUBLIC 'CODE'
_TEXT	ENDS
;	COMDAT ??$_Allocate@V?$basic_string@DU?$char_traits@D@std@@V?$allocator@D@2@@std@@@std@@YAPAV?$basic_string@DU?$char_traits@D@std@@V?$allocator@D@2@@0@IPAV10@@Z
_TEXT	SEGMENT PARA USE32 PUBLIC 'CODE'
_TEXT	ENDS
;	COMDAT ??$?0PAUtagACTMSG@@@?$allocator@PAPAUtagACTMSG@@@std@@QAE@ABV?$allocator@PAUtagACTMSG@@@1@@Z
_TEXT	SEGMENT PARA USE32 PUBLIC 'CODE'
_TEXT	ENDS
;	COMDAT ??$_Destroy@PAPAUtagACTMSG@@@std@@YAXPAPAPAUtagACTMSG@@@Z
_TEXT	SEGMENT PARA USE32 PUBLIC 'CODE'
_TEXT	ENDS
;	COMDAT ??$?0PAUtagMAGICATKMSG@@@?$allocator@PAPAUtagMAGICATKMSG@@@std@@QAE@ABV?$allocator@PAUtagMAGICATKMSG@@@1@@Z
_TEXT	SEGMENT PARA USE32 PUBLIC 'CODE'
_TEXT	ENDS
;	COMDAT ??$_Destroy@PAPAUtagMAGICATKMSG@@@std@@YAXPAPAPAUtagMAGICATKMSG@@@Z
_TEXT	SEGMENT PARA USE32 PUBLIC 'CODE'
_TEXT	ENDS
;	COMDAT ??$_Destroy_range@PAU__JOINPLAYER@CGuildCombat@@V?$allocator@PAU__JOINPLAYER@CGuildCombat@@@std@@@std@@YAXPAPAU__JOINPLAYER@CGuildCombat@@0AAV?$allocator@PAU__JOINPLAYER@CGuildCombat@@@0@@Z
_TEXT	SEGMENT PARA USE32 PUBLIC 'CODE'
_TEXT	ENDS
;	COMDAT ??$_Destroy_range@U__SECRETROOM_MONSTER@@V?$allocator@U__SECRETROOM_MONSTER@@@std@@@std@@YAXPAU__SECRETROOM_MONSTER@@0AAV?$allocator@U__SECRETROOM_MONSTER@@@0@@Z
_TEXT	SEGMENT PARA USE32 PUBLIC 'CODE'
_TEXT	ENDS
;	COMDAT ??$_Allocate@U__SECRETROOM_MONSTER@@@std@@YAPAU__SECRETROOM_MONSTER@@IPAU1@@Z
_TEXT	SEGMENT PARA USE32 PUBLIC 'CODE'
_TEXT	ENDS
;	COMDAT ??$_Destroy_range@V?$basic_string@DU?$char_traits@D@std@@V?$allocator@D@2@@std@@V?$allocator@V?$basic_string@DU?$char_traits@D@std@@V?$allocator@D@2@@std@@@2@@std@@YAXPAV?$basic_string@DU?$char_traits@D@std@@V?$allocator@D@2@@0@0AAV?$allocator@V?$basic_string@DU?$char_traits@D@std@@V?$allocator@D@2@@std@@@0@@Z
_TEXT	SEGMENT PARA USE32 PUBLIC 'CODE'
_TEXT	ENDS
;	COMDAT ??$_Ucopy@PAV?$basic_string@DU?$char_traits@D@std@@V?$allocator@D@2@@std@@@?$vector@V?$basic_string@DU?$char_traits@D@std@@V?$allocator@D@2@@std@@V?$allocator@V?$basic_string@DU?$char_traits@D@std@@V?$allocator@D@2@@std@@@2@@std@@IAEPAV?$basic_string@DU?$char_traits@D@std@@V?$allocator@D@2@@1@PAV21@00@Z
_TEXT	SEGMENT PARA USE32 PUBLIC 'CODE'
_TEXT	ENDS
;	COMDAT ??$fill@PAV?$basic_string@DU?$char_traits@D@std@@V?$allocator@D@2@@std@@V12@@std@@YAXPAV?$basic_string@DU?$char_traits@D@std@@V?$allocator@D@2@@0@0ABV10@@Z
_TEXT	SEGMENT PARA USE32 PUBLIC 'CODE'
_TEXT	ENDS
;	COMDAT ??$copy_backward@PAV?$basic_string@DU?$char_traits@D@std@@V?$allocator@D@2@@std@@PAV12@@std@@YAPAV?$basic_string@DU?$char_traits@D@std@@V?$allocator@D@2@@0@PAV10@00@Z
_TEXT	SEGMENT PARA USE32 PUBLIC 'CODE'
_TEXT	ENDS
;	COMDAT ??$_Ucopy@PAUMINIGMAME_PRIZE_LIST@CRainbowRaceMng@@@?$vector@UMINIGMAME_PRIZE_LIST@CRainbowRaceMng@@V?$allocator@UMINIGMAME_PRIZE_LIST@CRainbowRaceMng@@@std@@@std@@IAEPAUMINIGMAME_PRIZE_LIST@CRainbowRaceMng@@PAU23@00@Z
_TEXT	SEGMENT PARA USE32 PUBLIC 'CODE'
_TEXT	ENDS
;	COMDAT ??$fill@PAUMINIGMAME_PRIZE_LIST@CRainbowRaceMng@@U12@@std@@YAXPAUMINIGMAME_PRIZE_LIST@CRainbowRaceMng@@0ABU12@@Z
_TEXT	SEGMENT PARA USE32 PUBLIC 'CODE'
_TEXT	ENDS
;	COMDAT ??$copy_backward@PAUMINIGMAME_PRIZE_LIST@CRainbowRaceMng@@PAU12@@std@@YAPAUMINIGMAME_PRIZE_LIST@CRainbowRaceMng@@PAU12@00@Z
_TEXT	SEGMENT PARA USE32 PUBLIC 'CODE'
_TEXT	ENDS
;	COMDAT ??$_Destroy@PAU_Node@?$_Tree_nod@V?$_Tmap_traits@KPAVCClientSock@@U?$less@K@std@@V?$allocator@U?$pair@$$CBKPAVCClientSock@@@std@@@3@$0A@@std@@@std@@@std@@YAXPAPAU_Node@?$_Tree_nod@V?$_Tmap_traits@KPAVCClientSock@@U?$less@K@std@@V?$allocator@U?$pair@$$CBKPAVCClientSock@@@std@@@3@$0A@@std@@@0@@Z
_TEXT	SEGMENT PARA USE32 PUBLIC 'CODE'
_TEXT	ENDS
;	COMDAT ??$_Destroy@PAU_Node@?$_Tree_nod@V?$_Tmap_traits@KPAVCClientSockE@@U?$less@K@std@@V?$allocator@U?$pair@$$CBKPAVCClientSockE@@@std@@@3@$0A@@std@@@std@@@std@@YAXPAPAU_Node@?$_Tree_nod@V?$_Tmap_traits@KPAVCClientSockE@@U?$less@K@std@@V?$allocator@U?$pair@$$CBKPAVCClientSockE@@@std@@@3@$0A@@std@@@0@@Z
_TEXT	SEGMENT PARA USE32 PUBLIC 'CODE'
_TEXT	ENDS
;	COMDAT ??$_Destroy@PAUtagACTMSG@@@std@@YAXPAPAUtagACTMSG@@@Z
_TEXT	SEGMENT PARA USE32 PUBLIC 'CODE'
_TEXT	ENDS
;	COMDAT ??$_Destroy@PAUtagMAGICATKMSG@@@std@@YAXPAPAUtagMAGICATKMSG@@@Z
_TEXT	SEGMENT PARA USE32 PUBLIC 'CODE'
_TEXT	ENDS
;	COMDAT ??$_Destroy@U_Node@?$_Tree_nod@V?$_Tmap_traits@KU_Friend@@U?$less@K@std@@V?$allocator@U?$pair@$$CBKU_Friend@@@std@@@3@$0A@@std@@@std@@@std@@YAXPAU_Node@?$_Tree_nod@V?$_Tmap_traits@KU_Friend@@U?$less@K@std@@V?$allocator@U?$pair@$$CBKU_Friend@@@std@@@3@$0A@@std@@@0@@Z
_TEXT	SEGMENT PARA USE32 PUBLIC 'CODE'
_TEXT	ENDS
;	COMDAT ??$_Destroy_range@UMINIGMAME_PRIZE_LIST@CRainbowRaceMng@@V?$allocator@UMINIGMAME_PRIZE_LIST@CRainbowRaceMng@@@std@@@std@@YAXPAUMINIGMAME_PRIZE_LIST@CRainbowRaceMng@@0AAV?$allocator@UMINIGMAME_PRIZE_LIST@CRainbowRaceMng@@@0@@Z
_TEXT	SEGMENT PARA USE32 PUBLIC 'CODE'
_TEXT	ENDS
;	COMDAT ??$_Allocate@UMINIGMAME_PRIZE_LIST@CRainbowRaceMng@@@std@@YAPAUMINIGMAME_PRIZE_LIST@CRainbowRaceMng@@IPAU12@@Z
_TEXT	SEGMENT PARA USE32 PUBLIC 'CODE'
_TEXT	ENDS
;	COMDAT ??$_Allocate@U_Node@?$_Tree_nod@V?$_Tmap_traits@KPAVCGuildHouseBase@@U?$less@K@std@@V?$allocator@U?$pair@$$CBKPAVCGuildHouseBase@@@std@@@3@$0A@@std@@@std@@@std@@YAPAU_Node@?$_Tree_nod@V?$_Tmap_traits@KPAVCGuildHouseBase@@U?$less@K@std@@V?$allocator@U?$pair@$$CBKPAVCGuildHouseBase@@@std@@@3@$0A@@std@@@0@IPAU120@@Z
_TEXT	SEGMENT PARA USE32 PUBLIC 'CODE'
_TEXT	ENDS
;	COMDAT ??$_Destroy@U_Node@?$_Tree_nod@V?$_Tmap_traits@KKU?$less@K@std@@V?$allocator@U?$pair@$$CBKK@std@@@2@$0A@@std@@@std@@@std@@YAXPAU_Node@?$_Tree_nod@V?$_Tmap_traits@KKU?$less@K@std@@V?$allocator@U?$pair@$$CBKK@std@@@2@$0A@@std@@@0@@Z
_TEXT	SEGMENT PARA USE32 PUBLIC 'CODE'
_TEXT	ENDS
;	COMDAT ??$?0U?$pair@$$CBKPAVCClientSock@@@std@@@?$allocator@PAU_Node@?$_Tree_nod@V?$_Tmap_traits@KPAVCClientSock@@U?$less@K@std@@V?$allocator@U?$pair@$$CBKPAVCClientSock@@@std@@@3@$0A@@std@@@std@@@std@@QAE@ABV?$allocator@U?$pair@$$CBKPAVCClientSock@@@std@@@1@@Z
_TEXT	SEGMENT PARA USE32 PUBLIC 'CODE'
_TEXT	ENDS
;	COMDAT ??$?0U?$pair@$$CBKPAVCClientSockE@@@std@@@?$allocator@PAU_Node@?$_Tree_nod@V?$_Tmap_traits@KPAVCClientSockE@@U?$less@K@std@@V?$allocator@U?$pair@$$CBKPAVCClientSockE@@@std@@@3@$0A@@std@@@std@@@std@@QAE@ABV?$allocator@U?$pair@$$CBKPAVCClientSockE@@@std@@@1@@Z
_TEXT	SEGMENT PARA USE32 PUBLIC 'CODE'
_TEXT	ENDS
;	COMDAT ??$?0U?$pair@$$CBKPAVCClientSock@@@std@@@?$allocator@U_Node@?$_Tree_nod@V?$_Tmap_traits@KPAVCClientSock@@U?$less@K@std@@V?$allocator@U?$pair@$$CBKPAVCClientSock@@@std@@@3@$0A@@std@@@std@@@std@@QAE@ABV?$allocator@U?$pair@$$CBKPAVCClientSock@@@std@@@1@@Z
_TEXT	SEGMENT PARA USE32 PUBLIC 'CODE'
_TEXT	ENDS
;	COMDAT ??$_Allocate@U_Node@?$_Tree_nod@V?$_Tmap_traits@KPAVCClientSock@@U?$less@K@std@@V?$allocator@U?$pair@$$CBKPAVCClientSock@@@std@@@3@$0A@@std@@@std@@@std@@YAPAU_Node@?$_Tree_nod@V?$_Tmap_traits@KPAVCClientSock@@U?$less@K@std@@V?$allocator@U?$pair@$$CBKPAVCClientSock@@@std@@@3@$0A@@std@@@0@IPAU120@@Z
_TEXT	SEGMENT PARA USE32 PUBLIC 'CODE'
_TEXT	ENDS
;	COMDAT ??$_Destroy@U_Node@?$_Tree_nod@V?$_Tmap_traits@KPAVCClientSock@@U?$less@K@std@@V?$allocator@U?$pair@$$CBKPAVCClientSock@@@std@@@3@$0A@@std@@@std@@@std@@YAXPAU_Node@?$_Tree_nod@V?$_Tmap_traits@KPAVCClientSock@@U?$less@K@std@@V?$allocator@U?$pair@$$CBKPAVCClientSock@@@std@@@3@$0A@@std@@@0@@Z
_TEXT	SEGMENT PARA USE32 PUBLIC 'CODE'
_TEXT	ENDS
;	COMDAT ??$_Construct@PAU_Node@?$_Tree_nod@V?$_Tmap_traits@KPAVCClientSock@@U?$less@K@std@@V?$allocator@U?$pair@$$CBKPAVCClientSock@@@std@@@3@$0A@@std@@@std@@PAU123@@std@@YAXPAPAU_Node@?$_Tree_nod@V?$_Tmap_traits@KPAVCClientSock@@U?$less@K@std@@V?$allocator@U?$pair@$$CBKPAVCClientSock@@@std@@@3@$0A@@std@@@0@ABQAU120@@Z
_TEXT	SEGMENT PARA USE32 PUBLIC 'CODE'
_TEXT	ENDS
;	COMDAT ??$?0U?$pair@$$CBKPAVCClientSockE@@@std@@@?$allocator@U_Node@?$_Tree_nod@V?$_Tmap_traits@KPAVCClientSockE@@U?$less@K@std@@V?$allocator@U?$pair@$$CBKPAVCClientSockE@@@std@@@3@$0A@@std@@@std@@@std@@QAE@ABV?$allocator@U?$pair@$$CBKPAVCClientSockE@@@std@@@1@@Z
_TEXT	SEGMENT PARA USE32 PUBLIC 'CODE'
_TEXT	ENDS
;	COMDAT ??$_Allocate@U_Node@?$_Tree_nod@V?$_Tmap_traits@KPAVCClientSockE@@U?$less@K@std@@V?$allocator@U?$pair@$$CBKPAVCClientSockE@@@std@@@3@$0A@@std@@@std@@@std@@YAPAU_Node@?$_Tree_nod@V?$_Tmap_traits@KPAVCClientSockE@@U?$less@K@std@@V?$allocator@U?$pair@$$CBKPAVCClientSockE@@@std@@@3@$0A@@std@@@0@IPAU120@@Z
_TEXT	SEGMENT PARA USE32 PUBLIC 'CODE'
_TEXT	ENDS
;	COMDAT ??$_Destroy@U_Node@?$_Tree_nod@V?$_Tmap_traits@KPAVCClientSockE@@U?$less@K@std@@V?$allocator@U?$pair@$$CBKPAVCClientSockE@@@std@@@3@$0A@@std@@@std@@@std@@YAXPAU_Node@?$_Tree_nod@V?$_Tmap_traits@KPAVCClientSockE@@U?$less@K@std@@V?$allocator@U?$pair@$$CBKPAVCClientSockE@@@std@@@3@$0A@@std@@@0@@Z
_TEXT	SEGMENT PARA USE32 PUBLIC 'CODE'
_TEXT	ENDS
;	COMDAT ??$_Construct@PAU_Node@?$_Tree_nod@V?$_Tmap_traits@KPAVCClientSockE@@U?$less@K@std@@V?$allocator@U?$pair@$$CBKPAVCClientSockE@@@std@@@3@$0A@@std@@@std@@PAU123@@std@@YAXPAPAU_Node@?$_Tree_nod@V?$_Tmap_traits@KPAVCClientSockE@@U?$less@K@std@@V?$allocator@U?$pair@$$CBKPAVCClientSockE@@@std@@@3@$0A@@std@@@0@ABQAU120@@Z
_TEXT	SEGMENT PARA USE32 PUBLIC 'CODE'
_TEXT	ENDS
;	COMDAT ??_G?$CFixedArray@UtagWORLD@@@@UAEPAXI@Z
_TEXT	SEGMENT PARA USE32 PUBLIC 'CODE'
_TEXT	ENDS
;	COMDAT ?destroy@?$allocator@UtagDROPITEM@@@std@@QAEXPAUtagDROPITEM@@@Z
_TEXT	SEGMENT PARA USE32 PUBLIC 'CODE'
_TEXT	ENDS
;	COMDAT ?destroy@?$allocator@UWORMON@@@std@@QAEXPAUWORMON@@@Z
_TEXT	SEGMENT PARA USE32 PUBLIC 'CODE'
_TEXT	ENDS
;	COMDAT ?destroy@?$allocator@U__ITEMGAME@CMiniGame@@@std@@QAEXPAU__ITEMGAME@CMiniGame@@@Z
_TEXT	SEGMENT PARA USE32 PUBLIC 'CODE'
_TEXT	ENDS
;	COMDAT ?destroy@?$allocator@U__ITEM@CExchange@@@std@@QAEXPAU__ITEM@CExchange@@@Z
_TEXT	SEGMENT PARA USE32 PUBLIC 'CODE'
_TEXT	ENDS
;	COMDAT ?destroy@?$allocator@U__POINT@CExchange@@@std@@QAEXPAU__POINT@CExchange@@@Z
_TEXT	SEGMENT PARA USE32 PUBLIC 'CODE'
_TEXT	ENDS
;	COMDAT ?begin@?$vector@EV?$allocator@E@std@@@std@@QAE?AViterator@12@XZ
_TEXT	SEGMENT PARA USE32 PUBLIC 'CODE'
_TEXT	ENDS
;	COMDAT ?end@?$vector@EV?$allocator@E@std@@@std@@QAE?AViterator@12@XZ
_TEXT	SEGMENT PARA USE32 PUBLIC 'CODE'
_TEXT	ENDS
;	COMDAT ?erase@?$vector@EV?$allocator@E@std@@@std@@QAE?AViterator@12@V312@0@Z
_TEXT	SEGMENT PARA USE32 PUBLIC 'CODE'
_TEXT	ENDS
;	COMDAT ?construct@?$allocator@U__SPAWNREGION@CEventLua@@@std@@QAEXPAU__SPAWNREGION@CEventLua@@ABU34@@Z
_TEXT	SEGMENT PARA USE32 PUBLIC 'CODE'
_TEXT	ENDS
;	COMDAT ?destroy@?$allocator@U__SPAWNREGION@CEventLua@@@std@@QAEXPAU__SPAWNREGION@CEventLua@@@Z
_TEXT	SEGMENT PARA USE32 PUBLIC 'CODE'
_TEXT	ENDS
;	COMDAT ?destroy@?$allocator@UD3DXVECTOR3@@@std@@QAEXPAUD3DXVECTOR3@@@Z
_TEXT	SEGMENT PARA USE32 PUBLIC 'CODE'
_TEXT	ENDS
;	COMDAT ?destroy@?$allocator@U_GIFTBOX@@@std@@QAEXPAU_GIFTBOX@@@Z
_TEXT	SEGMENT PARA USE32 PUBLIC 'CODE'
_TEXT	ENDS
;	COMDAT ??0?$pair@KPAVCGuildHouseBase@@@std@@QAE@ABKABQAVCGuildHouseBase@@@Z
_TEXT	SEGMENT PARA USE32 PUBLIC 'CODE'
_TEXT	ENDS
;	COMDAT ??9const_iterator@?$vector@EV?$allocator@E@std@@@std@@QBE_NABV012@@Z
_TEXT	SEGMENT PARA USE32 PUBLIC 'CODE'
_TEXT	ENDS
;	COMDAT ??0iterator@?$vector@EV?$allocator@E@std@@@std@@QAE@PAE@Z
_TEXT	SEGMENT PARA USE32 PUBLIC 'CODE'
_TEXT	ENDS
;	COMDAT ??8const_iterator@?$vector@EV?$allocator@E@std@@@std@@QBE_NABV012@@Z
_TEXT	SEGMENT PARA USE32 PUBLIC 'CODE'
_TEXT	ENDS
;	COMDAT ??$insert@Vconst_iterator@?$vector@EV?$allocator@E@std@@@std@@@?$vector@EV?$allocator@E@std@@@std@@QAEXViterator@01@Vconst_iterator@01@1@Z
_TEXT	SEGMENT PARA USE32 PUBLIC 'CODE'
_TEXT	ENDS
;	COMDAT ??$_Ptr_cat@Vconst_iterator@?$vector@EV?$allocator@E@std@@@std@@PAE@std@@YA?AU_Nonscalar_ptr_iterator_tag@0@AAVconst_iterator@?$vector@EV?$allocator@E@std@@@0@AAPAE@Z
_TEXT	SEGMENT PARA USE32 PUBLIC 'CODE'
_TEXT	ENDS
;	COMDAT ??$_Uninit_copy@Vconst_iterator@?$vector@EV?$allocator@E@std@@@std@@PAEV?$allocator@E@3@@std@@YAPAEVconst_iterator@?$vector@EV?$allocator@E@std@@@0@0PAEAAV?$allocator@E@0@U_Nonscalar_ptr_iterator_tag@0@@Z
_TEXT	SEGMENT PARA USE32 PUBLIC 'CODE'
_TEXT	ENDS
;	COMDAT ??$_Uninit_copy@JJ@std@@YAPAJPAJ00AAV?$allocator@J@0@U_Scalar_ptr_iterator_tag@0@@Z
_TEXT	SEGMENT PARA USE32 PUBLIC 'CODE'
_TEXT	ENDS
;	COMDAT ??$_Uninit_copy@PAU__SPAWNREGION@CEventLua@@PAU12@V?$allocator@U__SPAWNREGION@CEventLua@@@std@@@std@@YAPAU__SPAWNREGION@CEventLua@@PAU12@00AAV?$allocator@U__SPAWNREGION@CEventLua@@@0@U_Nonscalar_ptr_iterator_tag@0@@Z
_TEXT	SEGMENT PARA USE32 PUBLIC 'CODE'
_TEXT	ENDS
;	COMDAT ??$fill_n@PAJIJ@std@@YAXPAJIABJ@Z
_TEXT	SEGMENT PARA USE32 PUBLIC 'CODE'
_TEXT	ENDS
;	COMDAT ??$_Iter_cat@Viterator@?$_Tree@V?$_Tmap_traits@KU_Friend@@U?$less@K@std@@V?$allocator@U?$pair@$$CBKU_Friend@@@std@@@3@$0A@@std@@@std@@@std@@YA?AUbidirectional_iterator_tag@0@ABViterator@?$_Tree@V?$_Tmap_traits@KU_Friend@@U?$less@K@std@@V?$allocator@U?$pair@$$CBKU_Friend@@@std@@@3@$0A@@std@@@0@@Z
_TEXT	SEGMENT PARA USE32 PUBLIC 'CODE'
_TEXT	ENDS
;	COMDAT ??$_Distance2@Viterator@?$_Tree@V?$_Tmap_traits@KU_Friend@@U?$less@K@std@@V?$allocator@U?$pair@$$CBKU_Friend@@@std@@@3@$0A@@std@@@std@@I@std@@YAXViterator@?$_Tree@V?$_Tmap_traits@KU_Friend@@U?$less@K@std@@V?$allocator@U?$pair@$$CBKU_Friend@@@std@@@3@$0A@@std@@@0@0AAIUbidirectional_iterator_tag@0@@Z
_TEXT	SEGMENT PARA USE32 PUBLIC 'CODE'
_TEXT	ENDS
;	COMDAT ??$_Iter_cat@Viterator@?$_Tree@V?$_Tmap_traits@KKU?$less@K@std@@V?$allocator@U?$pair@$$CBKK@std@@@2@$0A@@std@@@std@@@std@@YA?AUbidirectional_iterator_tag@0@ABViterator@?$_Tree@V?$_Tmap_traits@KKU?$less@K@std@@V?$allocator@U?$pair@$$CBKK@std@@@2@$0A@@std@@@0@@Z
_TEXT	SEGMENT PARA USE32 PUBLIC 'CODE'
_TEXT	ENDS
;	COMDAT ??$_Distance2@Viterator@?$_Tree@V?$_Tmap_traits@KKU?$less@K@std@@V?$allocator@U?$pair@$$CBKK@std@@@2@$0A@@std@@@std@@I@std@@YAXViterator@?$_Tree@V?$_Tmap_traits@KKU?$less@K@std@@V?$allocator@U?$pair@$$CBKK@std@@@2@$0A@@std@@@0@0AAIUbidirectional_iterator_tag@0@@Z
_TEXT	SEGMENT PARA USE32 PUBLIC 'CODE'
_TEXT	ENDS
;	COMDAT ??$_Ptr_cat@PAV?$basic_string@DU?$char_traits@D@std@@V?$allocator@D@2@@std@@PAV12@@std@@YA?AU_Nonscalar_ptr_iterator_tag@0@AAPAV?$basic_string@DU?$char_traits@D@std@@V?$allocator@D@2@@0@0@Z
_TEXT	SEGMENT PARA USE32 PUBLIC 'CODE'
_TEXT	ENDS
;	COMDAT ??$_Uninit_fill_n@PAV?$basic_string@DU?$char_traits@D@std@@V?$allocator@D@2@@std@@IV12@V?$allocator@V?$basic_string@DU?$char_traits@D@std@@V?$allocator@D@2@@std@@@2@@std@@YAXPAV?$basic_string@DU?$char_traits@D@std@@V?$allocator@D@2@@0@IABV10@AAV?$allocator@V?$basic_string@DU?$char_traits@D@std@@V?$allocator@D@2@@std@@@0@U_Nonscalar_ptr_iterator_tag@0@@Z
_TEXT	SEGMENT PARA USE32 PUBLIC 'CODE'
_TEXT	ENDS
;	COMDAT ??$_Ptr_cat@PAUMINIGMAME_PRIZE_LIST@CRainbowRaceMng@@PAU12@@std@@YA?AU_Nonscalar_ptr_iterator_tag@0@AAPAUMINIGMAME_PRIZE_LIST@CRainbowRaceMng@@0@Z
_TEXT	SEGMENT PARA USE32 PUBLIC 'CODE'
_TEXT	ENDS
;	COMDAT ??$_Uninit_fill_n@PAUMINIGMAME_PRIZE_LIST@CRainbowRaceMng@@IU12@V?$allocator@UMINIGMAME_PRIZE_LIST@CRainbowRaceMng@@@std@@@std@@YAXPAUMINIGMAME_PRIZE_LIST@CRainbowRaceMng@@IABU12@AAV?$allocator@UMINIGMAME_PRIZE_LIST@CRainbowRaceMng@@@0@U_Nonscalar_ptr_iterator_tag@0@@Z
_TEXT	SEGMENT PARA USE32 PUBLIC 'CODE'
_TEXT	ENDS
;	COMDAT ??$_Ptr_cat@U__JOINPLAYER@CGuildCombat@@@std@@YA?AU_Scalar_ptr_iterator_tag@0@PAPAU__JOINPLAYER@CGuildCombat@@0@Z
_TEXT	SEGMENT PARA USE32 PUBLIC 'CODE'
_TEXT	ENDS
;	COMDAT ??$_Destroy_range@PAU__JOINPLAYER@CGuildCombat@@V?$allocator@PAU__JOINPLAYER@CGuildCombat@@@std@@@std@@YAXPAPAU__JOINPLAYER@CGuildCombat@@0AAV?$allocator@PAU__JOINPLAYER@CGuildCombat@@@0@U_Scalar_ptr_iterator_tag@0@@Z
_TEXT	SEGMENT PARA USE32 PUBLIC 'CODE'
_TEXT	ENDS
;	COMDAT ??$_Ptr_cat@PAU__SECRETROOM_MONSTER@@PAU1@@std@@YA?AU_Nonscalar_ptr_iterator_tag@0@AAPAU__SECRETROOM_MONSTER@@0@Z
_TEXT	SEGMENT PARA USE32 PUBLIC 'CODE'
_TEXT	ENDS
;	COMDAT ??$_Destroy_range@U__SECRETROOM_MONSTER@@V?$allocator@U__SECRETROOM_MONSTER@@@std@@@std@@YAXPAU__SECRETROOM_MONSTER@@0AAV?$allocator@U__SECRETROOM_MONSTER@@@0@U_Nonscalar_ptr_iterator_tag@0@@Z
_TEXT	SEGMENT PARA USE32 PUBLIC 'CODE'
_TEXT	ENDS
;	COMDAT ??$_Destroy_range@V?$basic_string@DU?$char_traits@D@std@@V?$allocator@D@2@@std@@V?$allocator@V?$basic_string@DU?$char_traits@D@std@@V?$allocator@D@2@@std@@@2@@std@@YAXPAV?$basic_string@DU?$char_traits@D@std@@V?$allocator@D@2@@0@0AAV?$allocator@V?$basic_string@DU?$char_traits@D@std@@V?$allocator@D@2@@std@@@0@U_Nonscalar_ptr_iterator_tag@0@@Z
_TEXT	SEGMENT PARA USE32 PUBLIC 'CODE'
_TEXT	ENDS
;	COMDAT ??$_Uninitialized_copy@PAV?$basic_string@DU?$char_traits@D@std@@V?$allocator@D@2@@std@@PAV12@V?$allocator@V?$basic_string@DU?$char_traits@D@std@@V?$allocator@D@2@@std@@@2@@std@@YAPAV?$basic_string@DU?$char_traits@D@std@@V?$allocator@D@2@@0@PAV10@00AAV?$allocator@V?$basic_string@DU?$char_traits@D@std@@V?$allocator@D@2@@std@@@0@@Z
_TEXT	SEGMENT PARA USE32 PUBLIC 'CODE'
_TEXT	ENDS
;	COMDAT ??$_Copy_backward_opt@PAV?$basic_string@DU?$char_traits@D@std@@V?$allocator@D@2@@std@@PAV12@@std@@YAPAV?$basic_string@DU?$char_traits@D@std@@V?$allocator@D@2@@0@PAV10@00U_Nonscalar_ptr_iterator_tag@0@@Z
_TEXT	SEGMENT PARA USE32 PUBLIC 'CODE'
_TEXT	ENDS
;	COMDAT ??$_Uninitialized_copy@PAUMINIGMAME_PRIZE_LIST@CRainbowRaceMng@@PAU12@V?$allocator@UMINIGMAME_PRIZE_LIST@CRainbowRaceMng@@@std@@@std@@YAPAUMINIGMAME_PRIZE_LIST@CRainbowRaceMng@@PAU12@00AAV?$allocator@UMINIGMAME_PRIZE_LIST@CRainbowRaceMng@@@0@@Z
_TEXT	SEGMENT PARA USE32 PUBLIC 'CODE'
_TEXT	ENDS
;	COMDAT ??$_Copy_backward_opt@PAUMINIGMAME_PRIZE_LIST@CRainbowRaceMng@@PAU12@@std@@YAPAUMINIGMAME_PRIZE_LIST@CRainbowRaceMng@@PAU12@00U_Nonscalar_ptr_iterator_tag@0@@Z
_TEXT	SEGMENT PARA USE32 PUBLIC 'CODE'
_TEXT	ENDS
;	COMDAT ??$_Destroy_range@UMINIGMAME_PRIZE_LIST@CRainbowRaceMng@@V?$allocator@UMINIGMAME_PRIZE_LIST@CRainbowRaceMng@@@std@@@std@@YAXPAUMINIGMAME_PRIZE_LIST@CRainbowRaceMng@@0AAV?$allocator@UMINIGMAME_PRIZE_LIST@CRainbowRaceMng@@@0@U_Nonscalar_ptr_iterator_tag@0@@Z
_TEXT	SEGMENT PARA USE32 PUBLIC 'CODE'
_TEXT	ENDS
;	COMDAT ??$_Destroy@UtagDROPITEM@@@std@@YAXPAUtagDROPITEM@@@Z
_TEXT	SEGMENT PARA USE32 PUBLIC 'CODE'
_TEXT	ENDS
;	COMDAT ??$_Destroy@UWORMON@@@std@@YAXPAUWORMON@@@Z
_TEXT	SEGMENT PARA USE32 PUBLIC 'CODE'
_TEXT	ENDS
;	COMDAT ??$_Destroy@U__ITEMGAME@CMiniGame@@@std@@YAXPAU__ITEMGAME@CMiniGame@@@Z
_TEXT	SEGMENT PARA USE32 PUBLIC 'CODE'
_TEXT	ENDS
;	COMDAT ??$_Destroy@U__ITEM@CExchange@@@std@@YAXPAU__ITEM@CExchange@@@Z
_TEXT	SEGMENT PARA USE32 PUBLIC 'CODE'
_TEXT	ENDS
;	COMDAT ??$_Destroy@U__POINT@CExchange@@@std@@YAXPAU__POINT@CExchange@@@Z
_TEXT	SEGMENT PARA USE32 PUBLIC 'CODE'
_TEXT	ENDS
;	COMDAT ??$copy@PAEPAE@std@@YAPAEPAE00@Z
_TEXT	SEGMENT PARA USE32 PUBLIC 'CODE'
_TEXT	ENDS
;	COMDAT ??$_Construct@U__SPAWNREGION@CEventLua@@U12@@std@@YAXPAU__SPAWNREGION@CEventLua@@ABU12@@Z
_TEXT	SEGMENT PARA USE32 PUBLIC 'CODE'
_TEXT	ENDS
;	COMDAT ??$_Destroy@U__SPAWNREGION@CEventLua@@@std@@YAXPAU__SPAWNREGION@CEventLua@@@Z
_TEXT	SEGMENT PARA USE32 PUBLIC 'CODE'
_TEXT	ENDS
;	COMDAT ??$_Destroy@UD3DXVECTOR3@@@std@@YAXPAUD3DXVECTOR3@@@Z
_TEXT	SEGMENT PARA USE32 PUBLIC 'CODE'
_TEXT	ENDS
;	COMDAT ??$_Destroy@U_GIFTBOX@@@std@@YAXPAU_GIFTBOX@@@Z
_TEXT	SEGMENT PARA USE32 PUBLIC 'CODE'
_TEXT	ENDS
;	COMDAT ?construct@?$allocator@V?$basic_string@DU?$char_traits@D@std@@V?$allocator@D@2@@std@@@std@@QAEXPAV?$basic_string@DU?$char_traits@D@std@@V?$allocator@D@2@@2@ABV32@@Z
_TEXT	SEGMENT PARA USE32 PUBLIC 'CODE'
_TEXT	ENDS
;	COMDAT ?destroy@?$allocator@V?$basic_string@DU?$char_traits@D@std@@V?$allocator@D@2@@std@@@std@@QAEXPAV?$basic_string@DU?$char_traits@D@std@@V?$allocator@D@2@@2@@Z
_TEXT	SEGMENT PARA USE32 PUBLIC 'CODE'
_TEXT	ENDS
;	COMDAT ?construct@?$allocator@E@std@@QAEXPAEABE@Z
_TEXT	SEGMENT PARA USE32 PUBLIC 'CODE'
_TEXT	ENDS
;	COMDAT ?destroy@?$allocator@E@std@@QAEXPAE@Z
_TEXT	SEGMENT PARA USE32 PUBLIC 'CODE'
_TEXT	ENDS
;	COMDAT ??Dconst_iterator@?$vector@EV?$allocator@E@std@@@std@@QBEABEXZ
_TEXT	SEGMENT PARA USE32 PUBLIC 'CODE'
_TEXT	ENDS
;	COMDAT ??Econst_iterator@?$vector@EV?$allocator@E@std@@@std@@QAEAAV012@XZ
_TEXT	SEGMENT PARA USE32 PUBLIC 'CODE'
_TEXT	ENDS
;	COMDAT ?destroy@?$allocator@U__SECRETROOM_MONSTER@@@std@@QAEXPAU__SECRETROOM_MONSTER@@@Z
_TEXT	SEGMENT PARA USE32 PUBLIC 'CODE'
_TEXT	ENDS
;	COMDAT ?construct@?$allocator@UMINIGMAME_PRIZE_LIST@CRainbowRaceMng@@@std@@QAEXPAUMINIGMAME_PRIZE_LIST@CRainbowRaceMng@@ABU34@@Z
_TEXT	SEGMENT PARA USE32 PUBLIC 'CODE'
_TEXT	ENDS
;	COMDAT ?destroy@?$allocator@UMINIGMAME_PRIZE_LIST@CRainbowRaceMng@@@std@@QAEXPAUMINIGMAME_PRIZE_LIST@CRainbowRaceMng@@@Z
_TEXT	SEGMENT PARA USE32 PUBLIC 'CODE'
_TEXT	ENDS
;	COMDAT ??$_Insert@Vconst_iterator@?$vector@EV?$allocator@E@std@@@std@@@?$vector@EV?$allocator@E@std@@@std@@QAEXViterator@01@Vconst_iterator@01@1Uforward_iterator_tag@1@@Z
_TEXT	SEGMENT PARA USE32 PUBLIC 'CODE'
_TEXT	ENDS
;	COMDAT ??$_Uninit_copy@PAV?$basic_string@DU?$char_traits@D@std@@V?$allocator@D@2@@std@@PAV12@V?$allocator@V?$basic_string@DU?$char_traits@D@std@@V?$allocator@D@2@@std@@@2@@std@@YAPAV?$basic_string@DU?$char_traits@D@std@@V?$allocator@D@2@@0@PAV10@00AAV?$allocator@V?$basic_string@DU?$char_traits@D@std@@V?$allocator@D@2@@std@@@0@U_Nonscalar_ptr_iterator_tag@0@@Z
_TEXT	SEGMENT PARA USE32 PUBLIC 'CODE'
_TEXT	ENDS
;	COMDAT ??$_Uninit_copy@PAUMINIGMAME_PRIZE_LIST@CRainbowRaceMng@@PAU12@V?$allocator@UMINIGMAME_PRIZE_LIST@CRainbowRaceMng@@@std@@@std@@YAPAUMINIGMAME_PRIZE_LIST@CRainbowRaceMng@@PAU12@00AAV?$allocator@UMINIGMAME_PRIZE_LIST@CRainbowRaceMng@@@0@U_Nonscalar_ptr_iterator_tag@0@@Z
_TEXT	SEGMENT PARA USE32 PUBLIC 'CODE'
_TEXT	ENDS
;	COMDAT ??$_Copy_opt@PAEPAE@std@@YAPAEPAE00U_Scalar_ptr_iterator_tag@0@@Z
_TEXT	SEGMENT PARA USE32 PUBLIC 'CODE'
_TEXT	ENDS
;	COMDAT ??$_Construct@V?$basic_string@DU?$char_traits@D@std@@V?$allocator@D@2@@std@@V12@@std@@YAXPAV?$basic_string@DU?$char_traits@D@std@@V?$allocator@D@2@@0@ABV10@@Z
_TEXT	SEGMENT PARA USE32 PUBLIC 'CODE'
_TEXT	ENDS
;	COMDAT ??$_Destroy@V?$basic_string@DU?$char_traits@D@std@@V?$allocator@D@2@@std@@@std@@YAXPAV?$basic_string@DU?$char_traits@D@std@@V?$allocator@D@2@@0@@Z
_TEXT	SEGMENT PARA USE32 PUBLIC 'CODE'
_TEXT	ENDS
;	COMDAT ??$_Construct@EE@std@@YAXPAEABE@Z
_TEXT	SEGMENT PARA USE32 PUBLIC 'CODE'
_TEXT	ENDS
;	COMDAT ??$_Destroy@E@std@@YAXPAE@Z
_TEXT	SEGMENT PARA USE32 PUBLIC 'CODE'
_TEXT	ENDS
;	COMDAT ??$_Destroy@U__SECRETROOM_MONSTER@@@std@@YAXPAU__SECRETROOM_MONSTER@@@Z
_TEXT	SEGMENT PARA USE32 PUBLIC 'CODE'
_TEXT	ENDS
;	COMDAT ??$_Construct@UMINIGMAME_PRIZE_LIST@CRainbowRaceMng@@U12@@std@@YAXPAUMINIGMAME_PRIZE_LIST@CRainbowRaceMng@@ABU12@@Z
_TEXT	SEGMENT PARA USE32 PUBLIC 'CODE'
_TEXT	ENDS
;	COMDAT ??$_Destroy@UMINIGMAME_PRIZE_LIST@CRainbowRaceMng@@@std@@YAXPAUMINIGMAME_PRIZE_LIST@CRainbowRaceMng@@@Z
_TEXT	SEGMENT PARA USE32 PUBLIC 'CODE'
_TEXT	ENDS
;	COMDAT ??_G?$basic_string@DU?$char_traits@D@std@@V?$allocator@D@2@@std@@QAEPAXI@Z
_TEXT	SEGMENT PARA USE32 PUBLIC 'CODE'
_TEXT	ENDS
;	COMDAT ?capacity@?$vector@EV?$allocator@E@std@@@std@@QBEIXZ
_TEXT	SEGMENT PARA USE32 PUBLIC 'CODE'
_TEXT	ENDS
;	COMDAT ??Giterator@?$vector@EV?$allocator@E@std@@@std@@QBEHABVconst_iterator@12@@Z
_TEXT	SEGMENT PARA USE32 PUBLIC 'CODE'
_TEXT	ENDS
;	COMDAT ??Gconst_iterator@?$vector@EV?$allocator@E@std@@@std@@QBEHABV012@@Z
_TEXT	SEGMENT PARA USE32 PUBLIC 'CODE'
_TEXT	ENDS
;	COMDAT ??$_Distance@Vconst_iterator@?$vector@EV?$allocator@E@std@@@std@@I@std@@YAXVconst_iterator@?$vector@EV?$allocator@E@std@@@0@0AAI@Z
_TEXT	SEGMENT PARA USE32 PUBLIC 'CODE'
_TEXT	ENDS
;	COMDAT ??$_Ucopy@PAE@?$vector@EV?$allocator@E@std@@@std@@IAEPAEPAE00@Z
_TEXT	SEGMENT PARA USE32 PUBLIC 'CODE'
_TEXT	ENDS
;	COMDAT ??$advance@Vconst_iterator@?$vector@EV?$allocator@E@std@@@std@@H@std@@YAXAAVconst_iterator@?$vector@EV?$allocator@E@std@@@0@H@Z
_TEXT	SEGMENT PARA USE32 PUBLIC 'CODE'
_TEXT	ENDS
;	COMDAT ??$copy@Vconst_iterator@?$vector@EV?$allocator@E@std@@@std@@PAE@std@@YAPAEVconst_iterator@?$vector@EV?$allocator@E@std@@@0@0PAE@Z
_TEXT	SEGMENT PARA USE32 PUBLIC 'CODE'
_TEXT	ENDS
;	COMDAT ??$copy_backward@PAEPAE@std@@YAPAEPAE00@Z
_TEXT	SEGMENT PARA USE32 PUBLIC 'CODE'
_TEXT	ENDS
;	COMDAT ??$_Distance2@Vconst_iterator@?$vector@EV?$allocator@E@std@@@std@@I@std@@YAXVconst_iterator@?$vector@EV?$allocator@E@std@@@0@0AAIUrandom_access_iterator_tag@0@@Z
_TEXT	SEGMENT PARA USE32 PUBLIC 'CODE'
_TEXT	ENDS
;	COMDAT ??$_Uninitialized_copy@PAEPAEV?$allocator@E@std@@@std@@YAPAEPAE00AAV?$allocator@E@0@@Z
_TEXT	SEGMENT PARA USE32 PUBLIC 'CODE'
_TEXT	ENDS
;	COMDAT ??$_Advance@Vconst_iterator@?$vector@EV?$allocator@E@std@@@std@@H@std@@YAXAAVconst_iterator@?$vector@EV?$allocator@E@std@@@0@HUrandom_access_iterator_tag@0@@Z
_TEXT	SEGMENT PARA USE32 PUBLIC 'CODE'
_TEXT	ENDS
;	COMDAT ??$_Copy_opt@Vconst_iterator@?$vector@EV?$allocator@E@std@@@std@@PAE@std@@YAPAEVconst_iterator@?$vector@EV?$allocator@E@std@@@0@0PAEU_Nonscalar_ptr_iterator_tag@0@@Z
_TEXT	SEGMENT PARA USE32 PUBLIC 'CODE'
_TEXT	ENDS
;	COMDAT ??$_Copy_backward_opt@PAEPAE@std@@YAPAEPAE00U_Scalar_ptr_iterator_tag@0@@Z
_TEXT	SEGMENT PARA USE32 PUBLIC 'CODE'
_TEXT	ENDS
;	COMDAT ??Yconst_iterator@?$vector@EV?$allocator@E@std@@@std@@QAEAAV012@H@Z
_TEXT	SEGMENT PARA USE32 PUBLIC 'CODE'
_TEXT	ENDS
;	COMDAT ??$_Uninit_copy@EE@std@@YAPAEPAE00AAV?$allocator@E@0@U_Scalar_ptr_iterator_tag@0@@Z
_TEXT	SEGMENT PARA USE32 PUBLIC 'CODE'
_TEXT	ENDS
;	COMDAT ?deallocate@?$allocator@E@std@@QAEXPAEI@Z
_TEXT	SEGMENT PARA USE32 PUBLIC 'CODE'
_TEXT	ENDS
;	COMDAT ??$_Ucopy@Vconst_iterator@?$vector@EV?$allocator@E@std@@@std@@@?$vector@EV?$allocator@E@std@@@std@@IAEPAEVconst_iterator@01@0PAE@Z
_TEXT	SEGMENT PARA USE32 PUBLIC 'CODE'
_TEXT	ENDS
;	COMDAT ?allocate@?$allocator@E@std@@QAEPAEI@Z
_TEXT	SEGMENT PARA USE32 PUBLIC 'CODE'
_TEXT	ENDS
;	COMDAT ??$_Allocate@E@std@@YAPAEIPAE@Z
_TEXT	SEGMENT PARA USE32 PUBLIC 'CODE'
_TEXT	ENDS
;	COMDAT ?_Xlen@?$vector@EV?$allocator@E@std@@@std@@IBEXXZ
_TEXT	SEGMENT PARA USE32 PUBLIC 'CODE'
_TEXT	ENDS
;	COMDAT ?size@?$vector@EV?$allocator@E@std@@@std@@QBEIXZ
_TEXT	SEGMENT PARA USE32 PUBLIC 'CODE'
_TEXT	ENDS
;	COMDAT ?max_size@?$vector@EV?$allocator@E@std@@@std@@QBEIXZ
_TEXT	SEGMENT PARA USE32 PUBLIC 'CODE'
_TEXT	ENDS
;	COMDAT ?max_size@?$allocator@E@std@@QBEIXZ
_TEXT	SEGMENT PARA USE32 PUBLIC 'CODE'
_TEXT	ENDS
;	COMDAT ?_Ptr_cat@std@@YA?AU_Scalar_ptr_iterator_tag@1@PAE0@Z
_TEXT	SEGMENT PARA USE32 PUBLIC 'CODE'
_TEXT	ENDS
;	COMDAT ??0const_iterator@?$vector@EV?$allocator@E@std@@@std@@QAE@PAE@Z
_TEXT	SEGMENT PARA USE32 PUBLIC 'CODE'
_TEXT	ENDS
;	COMDAT ?_Destroy@?$vector@EV?$allocator@E@std@@@std@@IAEXPAE0@Z
_TEXT	SEGMENT PARA USE32 PUBLIC 'CODE'
_TEXT	ENDS
;	COMDAT ??$_Destroy_range@EV?$allocator@E@std@@@std@@YAXPAE0AAV?$allocator@E@0@@Z
_TEXT	SEGMENT PARA USE32 PUBLIC 'CODE'
_TEXT	ENDS
;	COMDAT ??4?$basic_string@DU?$char_traits@D@std@@V?$allocator@D@2@@std@@QAEAAV01@ABV01@@Z
_TEXT	SEGMENT PARA USE32 PUBLIC 'CODE'
_TEXT	ENDS
;	COMDAT ?assign@?$basic_string@DU?$char_traits@D@std@@V?$allocator@D@2@@std@@QAEAAV12@ABV12@@Z
_TEXT	SEGMENT PARA USE32 PUBLIC 'CODE'
_TEXT	ENDS
;	COMDAT ?assign@?$basic_string@DU?$char_traits@D@std@@V?$allocator@D@2@@std@@QAEAAV12@ABV12@II@Z
_TEXT	SEGMENT PARA USE32 PUBLIC 'CODE'
_TEXT	ENDS
;	COMDAT ?erase@?$basic_string@DU?$char_traits@D@std@@V?$allocator@D@2@@std@@QAEAAV12@II@Z
_TEXT	SEGMENT PARA USE32 PUBLIC 'CODE'
_TEXT	ENDS
;	COMDAT ?move@?$char_traits@D@std@@SAPADPADPBDI@Z
_TEXT	SEGMENT PARA USE32 PUBLIC 'CODE'
_TEXT	ENDS
;	COMDAT ?_Grow@?$basic_string@DU?$char_traits@D@std@@V?$allocator@D@2@@std@@IAE_NI_N@Z
_TEXT	SEGMENT PARA USE32 PUBLIC 'CODE'
_TEXT	ENDS
;	COMDAT ?max_size@?$basic_string@DU?$char_traits@D@std@@V?$allocator@D@2@@std@@QBEIXZ
_TEXT	SEGMENT PARA USE32 PUBLIC 'CODE'
_TEXT	ENDS
;	COMDAT ?max_size@?$allocator@D@std@@QBEIXZ
_TEXT	SEGMENT PARA USE32 PUBLIC 'CODE'
_TEXT	ENDS
;	COMDAT ?_Copy@?$basic_string@DU?$char_traits@D@std@@V?$allocator@D@2@@std@@IAEXII@Z
_TEXT	SEGMENT PARA USE32 PUBLIC 'CODE'
_TEXT	ENDS
;	COMDAT ?allocate@?$allocator@D@std@@QAEPADI@Z
_TEXT	SEGMENT PARA USE32 PUBLIC 'CODE'
_TEXT	ENDS
;	COMDAT ??$_Allocate@D@std@@YAPADIPAD@Z
_TEXT	SEGMENT PARA USE32 PUBLIC 'CODE'
_TEXT	ENDS
;	COMDAT ?_Tidy@?$basic_string@DU?$char_traits@D@std@@V?$allocator@D@2@@std@@IAEX_NI@Z
_TEXT	SEGMENT PARA USE32 PUBLIC 'CODE'
_TEXT	ENDS
;	COMDAT ?deallocate@?$allocator@D@std@@QAEXPADI@Z
_TEXT	SEGMENT PARA USE32 PUBLIC 'CODE'
_TEXT	ENDS
;	COMDAT ?copy@?$char_traits@D@std@@SAPADPADPBDI@Z
_TEXT	SEGMENT PARA USE32 PUBLIC 'CODE'
_TEXT	ENDS
;	COMDAT ?_Myptr@?$basic_string@DU?$char_traits@D@std@@V?$allocator@D@2@@std@@QAEPADXZ
_TEXT	SEGMENT PARA USE32 PUBLIC 'CODE'
_TEXT	ENDS
;	COMDAT ?_Eos@?$basic_string@DU?$char_traits@D@std@@V?$allocator@D@2@@std@@IAEXI@Z
_TEXT	SEGMENT PARA USE32 PUBLIC 'CODE'
_TEXT	ENDS
;	COMDAT ?assign@?$char_traits@D@std@@SAXAADABD@Z
_TEXT	SEGMENT PARA USE32 PUBLIC 'CODE'
_TEXT	ENDS
;	COMDAT ?npos@?$basic_string@DU?$char_traits@D@std@@V?$allocator@D@2@@std@@2IB
CONST	SEGMENT DWORD USE32 PUBLIC 'CONST'
CONST	ENDS
;	COMDAT ??_7?$CFixedArray@UtagWORLD@@@@6B@
CONST	SEGMENT DWORD USE32 PUBLIC 'CONST'
CONST	ENDS
;	COMDAT ?_Ptr_cat@std@@YA?AU_Scalar_ptr_iterator_tag@1@PAJ0@Z
_TEXT	SEGMENT PARA USE32 PUBLIC 'CODE'
_TEXT	ENDS
;	COMDAT ??9const_iterator@?$_Tree@V?$_Tmap_traits@KEU?$less@K@std@@V?$allocator@U?$pair@$$CBKE@std@@@2@$0A@@std@@@std@@QBE_NABV012@@Z
_TEXT	SEGMENT PARA USE32 PUBLIC 'CODE'
_TEXT	ENDS
;	COMDAT ??8const_iterator@?$_Tree@V?$_Tmap_traits@KEU?$less@K@std@@V?$allocator@U?$pair@$$CBKE@std@@@2@$0A@@std@@@std@@QBE_NABV012@@Z
_TEXT	SEGMENT PARA USE32 PUBLIC 'CODE'
_TEXT	ENDS
;	COMDAT ??Eiterator@?$_Tree@V?$_Tmap_traits@KEU?$less@K@std@@V?$allocator@U?$pair@$$CBKE@std@@@2@$0A@@std@@@std@@QAEAAV012@XZ
_TEXT	SEGMENT PARA USE32 PUBLIC 'CODE'
_TEXT	ENDS
;	COMDAT ??Econst_iterator@?$_Tree@V?$_Tmap_traits@KEU?$less@K@std@@V?$allocator@U?$pair@$$CBKE@std@@@2@$0A@@std@@@std@@QAEAAV012@XZ
_TEXT	SEGMENT PARA USE32 PUBLIC 'CODE'
_TEXT	ENDS
;	COMDAT ?_Inc@const_iterator@?$_Tree@V?$_Tmap_traits@KEU?$less@K@std@@V?$allocator@U?$pair@$$CBKE@std@@@2@$0A@@std@@@std@@QAEXXZ
_TEXT	SEGMENT PARA USE32 PUBLIC 'CODE'
_TEXT	ENDS
;	COMDAT ?_Min@?$_Tree@V?$_Tmap_traits@KEU?$less@K@std@@V?$allocator@U?$pair@$$CBKE@std@@@2@$0A@@std@@@std@@KAPAU_Node@?$_Tree_nod@V?$_Tmap_traits@KEU?$less@K@std@@V?$allocator@U?$pair@$$CBKE@std@@@2@$0A@@std@@@2@PAU342@@Z
_TEXT	SEGMENT PARA USE32 PUBLIC 'CODE'
_TEXT	ENDS
;	COMDAT ?_Left@?$_Tree@V?$_Tmap_traits@KEU?$less@K@std@@V?$allocator@U?$pair@$$CBKE@std@@@2@$0A@@std@@@std@@KAAAPAU_Node@?$_Tree_nod@V?$_Tmap_traits@KEU?$less@K@std@@V?$allocator@U?$pair@$$CBKE@std@@@2@$0A@@std@@@2@PAU342@@Z
_TEXT	SEGMENT PARA USE32 PUBLIC 'CODE'
_TEXT	ENDS
;	COMDAT ?_Isnil@?$_Tree@V?$_Tmap_traits@KEU?$less@K@std@@V?$allocator@U?$pair@$$CBKE@std@@@2@$0A@@std@@@std@@KAAADPAU_Node@?$_Tree_nod@V?$_Tmap_traits@KEU?$less@K@std@@V?$allocator@U?$pair@$$CBKE@std@@@2@$0A@@std@@@2@@Z
_TEXT	SEGMENT PARA USE32 PUBLIC 'CODE'
_TEXT	ENDS
;	COMDAT ?_Parent@?$_Tree@V?$_Tmap_traits@KEU?$less@K@std@@V?$allocator@U?$pair@$$CBKE@std@@@2@$0A@@std@@@std@@KAAAPAU_Node@?$_Tree_nod@V?$_Tmap_traits@KEU?$less@K@std@@V?$allocator@U?$pair@$$CBKE@std@@@2@$0A@@std@@@2@PAU342@@Z
_TEXT	SEGMENT PARA USE32 PUBLIC 'CODE'
_TEXT	ENDS
;	COMDAT ?_Right@?$_Tree@V?$_Tmap_traits@KEU?$less@K@std@@V?$allocator@U?$pair@$$CBKE@std@@@2@$0A@@std@@@std@@KAAAPAU_Node@?$_Tree_nod@V?$_Tmap_traits@KEU?$less@K@std@@V?$allocator@U?$pair@$$CBKE@std@@@2@$0A@@std@@@2@PAU342@@Z
_TEXT	SEGMENT PARA USE32 PUBLIC 'CODE'
_TEXT	ENDS
;	COMDAT ??9const_iterator@?$_Tree@V?$_Tmap_traits@KPAVCCtrl@@U?$less@K@std@@V?$allocator@U?$pair@$$CBKPAVCCtrl@@@std@@@3@$0A@@std@@@std@@QBE_NABV012@@Z
_TEXT	SEGMENT PARA USE32 PUBLIC 'CODE'
_TEXT	ENDS
;	COMDAT ??9const_iterator@?$_Tree@V?$_Tmap_traits@KPAVCUser@@U?$less@K@std@@V?$allocator@U?$pair@$$CBKPAVCUser@@@std@@@3@$0A@@std@@@std@@QBE_NABV012@@Z
_TEXT	SEGMENT PARA USE32 PUBLIC 'CODE'
_TEXT	ENDS
;	COMDAT ??8const_iterator@?$_Tree@V?$_Tmap_traits@KPAVCUser@@U?$less@K@std@@V?$allocator@U?$pair@$$CBKPAVCUser@@@std@@@3@$0A@@std@@@std@@QBE_NABV012@@Z
_TEXT	SEGMENT PARA USE32 PUBLIC 'CODE'
_TEXT	ENDS
;	COMDAT ??Eiterator@?$_Tree@V?$_Tmap_traits@KPAVCUser@@U?$less@K@std@@V?$allocator@U?$pair@$$CBKPAVCUser@@@std@@@3@$0A@@std@@@std@@QAEAAV012@XZ
_TEXT	SEGMENT PARA USE32 PUBLIC 'CODE'
_TEXT	ENDS
;	COMDAT ??Econst_iterator@?$_Tree@V?$_Tmap_traits@KPAVCUser@@U?$less@K@std@@V?$allocator@U?$pair@$$CBKPAVCUser@@@std@@@3@$0A@@std@@@std@@QAEAAV012@XZ
_TEXT	SEGMENT PARA USE32 PUBLIC 'CODE'
_TEXT	ENDS
;	COMDAT ?_Inc@const_iterator@?$_Tree@V?$_Tmap_traits@KPAVCUser@@U?$less@K@std@@V?$allocator@U?$pair@$$CBKPAVCUser@@@std@@@3@$0A@@std@@@std@@QAEXXZ
_TEXT	SEGMENT PARA USE32 PUBLIC 'CODE'
_TEXT	ENDS
;	COMDAT ?_Min@?$_Tree@V?$_Tmap_traits@KPAVCUser@@U?$less@K@std@@V?$allocator@U?$pair@$$CBKPAVCUser@@@std@@@3@$0A@@std@@@std@@KAPAU_Node@?$_Tree_nod@V?$_Tmap_traits@KPAVCUser@@U?$less@K@std@@V?$allocator@U?$pair@$$CBKPAVCUser@@@std@@@3@$0A@@std@@@2@PAU342@@Z
_TEXT	SEGMENT PARA USE32 PUBLIC 'CODE'
_TEXT	ENDS
;	COMDAT ?_Left@?$_Tree@V?$_Tmap_traits@KPAVCUser@@U?$less@K@std@@V?$allocator@U?$pair@$$CBKPAVCUser@@@std@@@3@$0A@@std@@@std@@KAAAPAU_Node@?$_Tree_nod@V?$_Tmap_traits@KPAVCUser@@U?$less@K@std@@V?$allocator@U?$pair@$$CBKPAVCUser@@@std@@@3@$0A@@std@@@2@PAU342@@Z
_TEXT	SEGMENT PARA USE32 PUBLIC 'CODE'
_TEXT	ENDS
;	COMDAT ?_Isnil@?$_Tree@V?$_Tmap_traits@KPAVCUser@@U?$less@K@std@@V?$allocator@U?$pair@$$CBKPAVCUser@@@std@@@3@$0A@@std@@@std@@KAAADPAU_Node@?$_Tree_nod@V?$_Tmap_traits@KPAVCUser@@U?$less@K@std@@V?$allocator@U?$pair@$$CBKPAVCUser@@@std@@@3@$0A@@std@@@2@@Z
_TEXT	SEGMENT PARA USE32 PUBLIC 'CODE'
_TEXT	ENDS
;	COMDAT ?_Parent@?$_Tree@V?$_Tmap_traits@KPAVCUser@@U?$less@K@std@@V?$allocator@U?$pair@$$CBKPAVCUser@@@std@@@3@$0A@@std@@@std@@KAAAPAU_Node@?$_Tree_nod@V?$_Tmap_traits@KPAVCUser@@U?$less@K@std@@V?$allocator@U?$pair@$$CBKPAVCUser@@@std@@@3@$0A@@std@@@2@PAU342@@Z
_TEXT	SEGMENT PARA USE32 PUBLIC 'CODE'
_TEXT	ENDS
;	COMDAT ?_Right@?$_Tree@V?$_Tmap_traits@KPAVCUser@@U?$less@K@std@@V?$allocator@U?$pair@$$CBKPAVCUser@@@std@@@3@$0A@@std@@@std@@KAAAPAU_Node@?$_Tree_nod@V?$_Tmap_traits@KPAVCUser@@U?$less@K@std@@V?$allocator@U?$pair@$$CBKPAVCUser@@@std@@@3@$0A@@std@@@2@PAU342@@Z
_TEXT	SEGMENT PARA USE32 PUBLIC 'CODE'
_TEXT	ENDS
;	COMDAT ?_Psave@?$_Facetptr@V?$ctype@G@std@@@std@@2PBVfacet@locale@2@B
_DATA	SEGMENT DWORD USE32 PUBLIC 'DATA'
_DATA	ENDS
;	COMDAT ?_Psave@?$_Facetptr@V?$ctype@D@std@@@std@@2PBVfacet@locale@2@B
_DATA	SEGMENT DWORD USE32 PUBLIC 'DATA'
_DATA	ENDS
;	COMDAT ??3@YAXPAX0@Z
_TEXT	SEGMENT PARA USE32 PUBLIC 'CODE'
_TEXT	ENDS
;	COMDAT ??2@YAPAXIPAX@Z
_TEXT	SEGMENT PARA USE32 PUBLIC 'CODE'
_TEXT	ENDS
;	COMDAT ??0?$basic_string@DU?$char_traits@D@std@@V?$allocator@D@2@@std@@QAE@ABV01@@Z
_TEXT	SEGMENT PARA USE32 PUBLIC 'CODE'
_TEXT	ENDS
;	COMDAT ??0?$_String_val@DV?$allocator@D@std@@@std@@IAE@V?$allocator@D@1@@Z
_TEXT	SEGMENT PARA USE32 PUBLIC 'CODE'
_TEXT	ENDS
;	COMDAT ??0?$allocator@D@std@@QAE@ABV01@@Z
_TEXT	SEGMENT PARA USE32 PUBLIC 'CODE'
_TEXT	ENDS
;	COMDAT ??_C@_0BD@OLBABOEK@vector?$DMT?$DO?5too?5long?$AA@
CONST	SEGMENT DWORD USE32 PUBLIC 'CONST'
CONST	ENDS
;	COMDAT ??$swap@D@std@@YAXAAD0@Z
_TEXT	SEGMENT PARA USE32 PUBLIC 'CODE'
_TEXT	ENDS
;	COMDAT __TI3?AVout_of_range@std@@
xdata$x	SEGMENT DWORD USE32 PUBLIC 'CONST'
xdata$x	ENDS
;	COMDAT ??1out_of_range@std@@UAE@XZ
_TEXT	SEGMENT PARA USE32 PUBLIC 'CODE'
_TEXT	ENDS
;	COMDAT ??_7out_of_range@std@@6B@
CONST	SEGMENT DWORD USE32 PUBLIC 'CONST'
CONST	ENDS
;	COMDAT ??_Gout_of_range@std@@UAEPAXI@Z
_TEXT	SEGMENT PARA USE32 PUBLIC 'CODE'
_TEXT	ENDS
;	COMDAT ?what@logic_error@std@@UBEPBDXZ
_TEXT	SEGMENT PARA USE32 PUBLIC 'CODE'
_TEXT	ENDS
;	COMDAT ??1logic_error@std@@UAE@XZ
_TEXT	SEGMENT PARA USE32 PUBLIC 'CODE'
_TEXT	ENDS
;	COMDAT ??_7logic_error@std@@6B@
CONST	SEGMENT DWORD USE32 PUBLIC 'CONST'
CONST	ENDS
;	COMDAT ??_Glogic_error@std@@UAEPAXI@Z
_TEXT	SEGMENT PARA USE32 PUBLIC 'CODE'
_TEXT	ENDS
;	COMDAT __CTA3?AVout_of_range@std@@
xdata$x	SEGMENT DWORD USE32 PUBLIC 'CONST'
xdata$x	ENDS
;	COMDAT __CT??_R0?AVout_of_range@std@@@8??0out_of_range@std@@QAE@ABV01@@Z40
xdata$x	SEGMENT DWORD USE32 PUBLIC 'CONST'
xdata$x	ENDS
;	COMDAT ??_R0?AVout_of_range@std@@@8
_DATA	SEGMENT DWORD USE32 PUBLIC 'DATA'
_DATA	ENDS
;	COMDAT ??0out_of_range@std@@QAE@ABV01@@Z
_TEXT	SEGMENT PARA USE32 PUBLIC 'CODE'
_TEXT	ENDS
;	COMDAT ??0logic_error@std@@QAE@ABV01@@Z
_TEXT	SEGMENT PARA USE32 PUBLIC 'CODE'
_TEXT	ENDS
;	COMDAT __CT??_R0?AVlogic_error@std@@@8??0logic_error@std@@QAE@ABV01@@Z40
xdata$x	SEGMENT DWORD USE32 PUBLIC 'CONST'
xdata$x	ENDS
;	COMDAT ??_R0?AVlogic_error@std@@@8
_DATA	SEGMENT DWORD USE32 PUBLIC 'DATA'
_DATA	ENDS
;	COMDAT __CT??_R0?AVexception@@@8??0exception@@QAE@ABV0@@Z12
xdata$x	SEGMENT DWORD USE32 PUBLIC 'CONST'
xdata$x	ENDS
;	COMDAT ??_R0?AVexception@@@8
_DATA	SEGMENT DWORD USE32 PUBLIC 'DATA'
_DATA	ENDS
;	COMDAT ??_C@_0BM@PAPJHAGI@invalid?5map?1set?$DMT?$DO?5iterator?$AA@
CONST	SEGMENT DWORD USE32 PUBLIC 'CONST'
CONST	ENDS
;	COMDAT ??0out_of_range@std@@QAE@ABV?$basic_string@DU?$char_traits@D@std@@V?$allocator@D@2@@1@@Z
_TEXT	SEGMENT PARA USE32 PUBLIC 'CODE'
_TEXT	ENDS
;	COMDAT ??0logic_error@std@@QAE@ABV?$basic_string@DU?$char_traits@D@std@@V?$allocator@D@2@@1@@Z
_TEXT	SEGMENT PARA USE32 PUBLIC 'CODE'
_TEXT	ENDS
;	COMDAT __TI3?AVlength_error@std@@
xdata$x	SEGMENT DWORD USE32 PUBLIC 'CONST'
xdata$x	ENDS
;	COMDAT ??1length_error@std@@UAE@XZ
_TEXT	SEGMENT PARA USE32 PUBLIC 'CODE'
_TEXT	ENDS
;	COMDAT ??_7length_error@std@@6B@
CONST	SEGMENT DWORD USE32 PUBLIC 'CONST'
CONST	ENDS
;	COMDAT ??_Glength_error@std@@UAEPAXI@Z
_TEXT	SEGMENT PARA USE32 PUBLIC 'CODE'
_TEXT	ENDS
;	COMDAT __CTA3?AVlength_error@std@@
xdata$x	SEGMENT DWORD USE32 PUBLIC 'CONST'
xdata$x	ENDS
;	COMDAT __CT??_R0?AVlength_error@std@@@8??0length_error@std@@QAE@ABV01@@Z40
xdata$x	SEGMENT DWORD USE32 PUBLIC 'CONST'
xdata$x	ENDS
;	COMDAT ??_R0?AVlength_error@std@@@8
_DATA	SEGMENT DWORD USE32 PUBLIC 'DATA'
_DATA	ENDS
;	COMDAT ??0length_error@std@@QAE@ABV01@@Z
_TEXT	SEGMENT PARA USE32 PUBLIC 'CODE'
_TEXT	ENDS
;	COMDAT ??_C@_0BE@JONHPENG@map?1set?$DMT?$DO?5too?5long?$AA@
CONST	SEGMENT DWORD USE32 PUBLIC 'CONST'
CONST	ENDS
;	COMDAT ??0length_error@std@@QAE@ABV?$basic_string@DU?$char_traits@D@std@@V?$allocator@D@2@@1@@Z
_TEXT	SEGMENT PARA USE32 PUBLIC 'CODE'
_TEXT	ENDS
;	COMDAT ?insert@?$_Tree@V?$_Tmap_traits@KPAVCCtrl@@U?$less@K@std@@V?$allocator@U?$pair@$$CBKPAVCCtrl@@@std@@@3@$0A@@std@@@std@@QAE?AU?$pair@Viterator@?$_Tree@V?$_Tmap_traits@KPAVCCtrl@@U?$less@K@std@@V?$allocator@U?$pair@$$CBKPAVCCtrl@@@std@@@3@$0A@@std@@@std@@_N@2@ABU?$pair@$$CBKPAVCCtrl@@@2@@Z
_TEXT	SEGMENT PARA USE32 PUBLIC 'CODE'
_TEXT	ENDS
;	COMDAT ?_Root@?$_Tree@V?$_Tmap_traits@KPAVCCtrl@@U?$less@K@std@@V?$allocator@U?$pair@$$CBKPAVCCtrl@@@std@@@3@$0A@@std@@@std@@IAEAAPAU_Node@?$_Tree_nod@V?$_Tmap_traits@KPAVCCtrl@@U?$less@K@std@@V?$allocator@U?$pair@$$CBKPAVCCtrl@@@std@@@3@$0A@@std@@@2@XZ
_TEXT	SEGMENT PARA USE32 PUBLIC 'CODE'
_TEXT	ENDS
;	COMDAT ?_Parent@?$_Tree@V?$_Tmap_traits@KPAVCCtrl@@U?$less@K@std@@V?$allocator@U?$pair@$$CBKPAVCCtrl@@@std@@@3@$0A@@std@@@std@@KAAAPAU_Node@?$_Tree_nod@V?$_Tmap_traits@KPAVCCtrl@@U?$less@K@std@@V?$allocator@U?$pair@$$CBKPAVCCtrl@@@std@@@3@$0A@@std@@@2@PAU342@@Z
_TEXT	SEGMENT PARA USE32 PUBLIC 'CODE'
_TEXT	ENDS
;	COMDAT ?_Left@?$_Tree@V?$_Tmap_traits@KPAVCCtrl@@U?$less@K@std@@V?$allocator@U?$pair@$$CBKPAVCCtrl@@@std@@@3@$0A@@std@@@std@@KAAAPAU_Node@?$_Tree_nod@V?$_Tmap_traits@KPAVCCtrl@@U?$less@K@std@@V?$allocator@U?$pair@$$CBKPAVCCtrl@@@std@@@3@$0A@@std@@@2@PAU342@@Z
_TEXT	SEGMENT PARA USE32 PUBLIC 'CODE'
_TEXT	ENDS
;	COMDAT ??0iterator@?$_Tree@V?$_Tmap_traits@KPAVCCtrl@@U?$less@K@std@@V?$allocator@U?$pair@$$CBKPAVCCtrl@@@std@@@3@$0A@@std@@@std@@QAE@PAU_Node@?$_Tree_nod@V?$_Tmap_traits@KPAVCCtrl@@U?$less@K@std@@V?$allocator@U?$pair@$$CBKPAVCCtrl@@@std@@@3@$0A@@std@@@2@@Z
_TEXT	SEGMENT PARA USE32 PUBLIC 'CODE'
_TEXT	ENDS
;	COMDAT ??0const_iterator@?$_Tree@V?$_Tmap_traits@KPAVCCtrl@@U?$less@K@std@@V?$allocator@U?$pair@$$CBKPAVCCtrl@@@std@@@3@$0A@@std@@@std@@QAE@PAU_Node@?$_Tree_nod@V?$_Tmap_traits@KPAVCCtrl@@U?$less@K@std@@V?$allocator@U?$pair@$$CBKPAVCCtrl@@@std@@@3@$0A@@std@@@2@@Z
_TEXT	SEGMENT PARA USE32 PUBLIC 'CODE'
_TEXT	ENDS
;	COMDAT ??0?$pair@Viterator@?$_Tree@V?$_Tmap_traits@KPAVCCtrl@@U?$less@K@std@@V?$allocator@U?$pair@$$CBKPAVCCtrl@@@std@@@3@$0A@@std@@@std@@_N@std@@QAE@ABViterator@?$_Tree@V?$_Tmap_traits@KPAVCCtrl@@U?$less@K@std@@V?$allocator@U?$pair@$$CBKPAVCCtrl@@@std@@@3@$0A@@std@@@1@AB_N@Z
_TEXT	SEGMENT PARA USE32 PUBLIC 'CODE'
_TEXT	ENDS
;	COMDAT ??Eiterator@?$_Tree@V?$_Tmap_traits@KPAVCCtrl@@U?$less@K@std@@V?$allocator@U?$pair@$$CBKPAVCCtrl@@@std@@@3@$0A@@std@@@std@@QAEAAV012@XZ
_TEXT	SEGMENT PARA USE32 PUBLIC 'CODE'
_TEXT	ENDS
;	COMDAT ??Econst_iterator@?$_Tree@V?$_Tmap_traits@KPAVCCtrl@@U?$less@K@std@@V?$allocator@U?$pair@$$CBKPAVCCtrl@@@std@@@3@$0A@@std@@@std@@QAEAAV012@XZ
_TEXT	SEGMENT PARA USE32 PUBLIC 'CODE'
_TEXT	ENDS
;	COMDAT ?_Inc@const_iterator@?$_Tree@V?$_Tmap_traits@KPAVCCtrl@@U?$less@K@std@@V?$allocator@U?$pair@$$CBKPAVCCtrl@@@std@@@3@$0A@@std@@@std@@QAEXXZ
_TEXT	SEGMENT PARA USE32 PUBLIC 'CODE'
_TEXT	ENDS
;	COMDAT ?_Min@?$_Tree@V?$_Tmap_traits@KPAVCCtrl@@U?$less@K@std@@V?$allocator@U?$pair@$$CBKPAVCCtrl@@@std@@@3@$0A@@std@@@std@@KAPAU_Node@?$_Tree_nod@V?$_Tmap_traits@KPAVCCtrl@@U?$less@K@std@@V?$allocator@U?$pair@$$CBKPAVCCtrl@@@std@@@3@$0A@@std@@@2@PAU342@@Z
_TEXT	SEGMENT PARA USE32 PUBLIC 'CODE'
_TEXT	ENDS
;	COMDAT ?_Right@?$_Tree@V?$_Tmap_traits@KPAVCCtrl@@U?$less@K@std@@V?$allocator@U?$pair@$$CBKPAVCCtrl@@@std@@@3@$0A@@std@@@std@@KAAAPAU_Node@?$_Tree_nod@V?$_Tmap_traits@KPAVCCtrl@@U?$less@K@std@@V?$allocator@U?$pair@$$CBKPAVCCtrl@@@std@@@3@$0A@@std@@@2@PAU342@@Z
_TEXT	SEGMENT PARA USE32 PUBLIC 'CODE'
_TEXT	ENDS
;	COMDAT ?_Isnil@?$_Tree@V?$_Tmap_traits@KPAVCCtrl@@U?$less@K@std@@V?$allocator@U?$pair@$$CBKPAVCCtrl@@@std@@@3@$0A@@std@@@std@@KAAADPAU_Node@?$_Tree_nod@V?$_Tmap_traits@KPAVCCtrl@@U?$less@K@std@@V?$allocator@U?$pair@$$CBKPAVCCtrl@@@std@@@3@$0A@@std@@@2@@Z
_TEXT	SEGMENT PARA USE32 PUBLIC 'CODE'
_TEXT	ENDS
;	COMDAT ??Fiterator@?$_Tree@V?$_Tmap_traits@KPAVCCtrl@@U?$less@K@std@@V?$allocator@U?$pair@$$CBKPAVCCtrl@@@std@@@3@$0A@@std@@@std@@QAEAAV012@XZ
_TEXT	SEGMENT PARA USE32 PUBLIC 'CODE'
_TEXT	ENDS
;	COMDAT ??Fconst_iterator@?$_Tree@V?$_Tmap_traits@KPAVCCtrl@@U?$less@K@std@@V?$allocator@U?$pair@$$CBKPAVCCtrl@@@std@@@3@$0A@@std@@@std@@QAEAAV012@XZ
_TEXT	SEGMENT PARA USE32 PUBLIC 'CODE'
_TEXT	ENDS
;	COMDAT ?_Dec@const_iterator@?$_Tree@V?$_Tmap_traits@KPAVCCtrl@@U?$less@K@std@@V?$allocator@U?$pair@$$CBKPAVCCtrl@@@std@@@3@$0A@@std@@@std@@QAEXXZ
_TEXT	SEGMENT PARA USE32 PUBLIC 'CODE'
_TEXT	ENDS
;	COMDAT ?_Max@?$_Tree@V?$_Tmap_traits@KPAVCCtrl@@U?$less@K@std@@V?$allocator@U?$pair@$$CBKPAVCCtrl@@@std@@@3@$0A@@std@@@std@@KAPAU_Node@?$_Tree_nod@V?$_Tmap_traits@KPAVCCtrl@@U?$less@K@std@@V?$allocator@U?$pair@$$CBKPAVCCtrl@@@std@@@3@$0A@@std@@@2@PAU342@@Z
_TEXT	SEGMENT PARA USE32 PUBLIC 'CODE'
_TEXT	ENDS
;	COMDAT ?_Rmost@?$_Tree@V?$_Tmap_traits@KPAVCCtrl@@U?$less@K@std@@V?$allocator@U?$pair@$$CBKPAVCCtrl@@@std@@@3@$0A@@std@@@std@@IAEAAPAU_Node@?$_Tree_nod@V?$_Tmap_traits@KPAVCCtrl@@U?$less@K@std@@V?$allocator@U?$pair@$$CBKPAVCCtrl@@@std@@@3@$0A@@std@@@2@XZ
_TEXT	SEGMENT PARA USE32 PUBLIC 'CODE'
_TEXT	ENDS
;	COMDAT ?_Kfn@?$_Tmap_traits@KPAVCCtrl@@U?$less@K@std@@V?$allocator@U?$pair@$$CBKPAVCCtrl@@@std@@@3@$0A@@std@@SAABKABU?$pair@$$CBKPAVCCtrl@@@2@@Z
_TEXT	SEGMENT PARA USE32 PUBLIC 'CODE'
_TEXT	ENDS
;	COMDAT ?begin@?$_Tree@V?$_Tmap_traits@KPAVCCtrl@@U?$less@K@std@@V?$allocator@U?$pair@$$CBKPAVCCtrl@@@std@@@3@$0A@@std@@@std@@QAE?AViterator@12@XZ
_TEXT	SEGMENT PARA USE32 PUBLIC 'CODE'
_TEXT	ENDS
;	COMDAT ?_Lmost@?$_Tree@V?$_Tmap_traits@KPAVCCtrl@@U?$less@K@std@@V?$allocator@U?$pair@$$CBKPAVCCtrl@@@std@@@3@$0A@@std@@@std@@IAEAAPAU_Node@?$_Tree_nod@V?$_Tmap_traits@KPAVCCtrl@@U?$less@K@std@@V?$allocator@U?$pair@$$CBKPAVCCtrl@@@std@@@3@$0A@@std@@@2@XZ
_TEXT	SEGMENT PARA USE32 PUBLIC 'CODE'
_TEXT	ENDS
;	COMDAT ?_Insert@?$_Tree@V?$_Tmap_traits@KPAVCCtrl@@U?$less@K@std@@V?$allocator@U?$pair@$$CBKPAVCCtrl@@@std@@@3@$0A@@std@@@std@@IAE?AViterator@12@_NPAU_Node@?$_Tree_nod@V?$_Tmap_traits@KPAVCCtrl@@U?$less@K@std@@V?$allocator@U?$pair@$$CBKPAVCCtrl@@@std@@@3@$0A@@std@@@2@ABU?$pair@$$CBKPAVCCtrl@@@2@@Z
_TEXT	SEGMENT PARA USE32 PUBLIC 'CODE'
_TEXT	ENDS
;	COMDAT ?max_size@?$_Tree@V?$_Tmap_traits@KPAVCCtrl@@U?$less@K@std@@V?$allocator@U?$pair@$$CBKPAVCCtrl@@@std@@@3@$0A@@std@@@std@@QBEIXZ
_TEXT	SEGMENT PARA USE32 PUBLIC 'CODE'
_TEXT	ENDS
;	COMDAT ?max_size@?$allocator@U?$pair@$$CBKPAVCCtrl@@@std@@@std@@QBEIXZ
_TEXT	SEGMENT PARA USE32 PUBLIC 'CODE'
_TEXT	ENDS
;	COMDAT ?_Buynode@?$_Tree@V?$_Tmap_traits@KPAVCCtrl@@U?$less@K@std@@V?$allocator@U?$pair@$$CBKPAVCCtrl@@@std@@@3@$0A@@std@@@std@@IAEPAU_Node@?$_Tree_nod@V?$_Tmap_traits@KPAVCCtrl@@U?$less@K@std@@V?$allocator@U?$pair@$$CBKPAVCCtrl@@@std@@@3@$0A@@std@@@2@PAU342@00ABU?$pair@$$CBKPAVCCtrl@@@2@D@Z
_TEXT	SEGMENT PARA USE32 PUBLIC 'CODE'
_TEXT	ENDS
;	COMDAT ?allocate@?$allocator@U_Node@?$_Tree_nod@V?$_Tmap_traits@KPAVCCtrl@@U?$less@K@std@@V?$allocator@U?$pair@$$CBKPAVCCtrl@@@std@@@3@$0A@@std@@@std@@@std@@QAEPAU_Node@?$_Tree_nod@V?$_Tmap_traits@KPAVCCtrl@@U?$less@K@std@@V?$allocator@U?$pair@$$CBKPAVCCtrl@@@std@@@3@$0A@@std@@@2@I@Z
_TEXT	SEGMENT PARA USE32 PUBLIC 'CODE'
_TEXT	ENDS
;	COMDAT ??$_Allocate@U_Node@?$_Tree_nod@V?$_Tmap_traits@KPAVCCtrl@@U?$less@K@std@@V?$allocator@U?$pair@$$CBKPAVCCtrl@@@std@@@3@$0A@@std@@@std@@@std@@YAPAU_Node@?$_Tree_nod@V?$_Tmap_traits@KPAVCCtrl@@U?$less@K@std@@V?$allocator@U?$pair@$$CBKPAVCCtrl@@@std@@@3@$0A@@std@@@0@IPAU120@@Z
_TEXT	SEGMENT PARA USE32 PUBLIC 'CODE'
_TEXT	ENDS
;	COMDAT ??0_Node@?$_Tree_nod@V?$_Tmap_traits@KPAVCCtrl@@U?$less@K@std@@V?$allocator@U?$pair@$$CBKPAVCCtrl@@@std@@@3@$0A@@std@@@std@@QAE@PAU012@00ABU?$pair@$$CBKPAVCCtrl@@@2@D@Z
_TEXT	SEGMENT PARA USE32 PUBLIC 'CODE'
_TEXT	ENDS
;	COMDAT ?deallocate@?$allocator@U_Node@?$_Tree_nod@V?$_Tmap_traits@KPAVCCtrl@@U?$less@K@std@@V?$allocator@U?$pair@$$CBKPAVCCtrl@@@std@@@3@$0A@@std@@@std@@@std@@QAEXPAU_Node@?$_Tree_nod@V?$_Tmap_traits@KPAVCCtrl@@U?$less@K@std@@V?$allocator@U?$pair@$$CBKPAVCCtrl@@@std@@@3@$0A@@std@@@2@I@Z
_TEXT	SEGMENT PARA USE32 PUBLIC 'CODE'
_TEXT	ENDS
;	COMDAT ?_Rrotate@?$_Tree@V?$_Tmap_traits@KPAVCCtrl@@U?$less@K@std@@V?$allocator@U?$pair@$$CBKPAVCCtrl@@@std@@@3@$0A@@std@@@std@@IAEXPAU_Node@?$_Tree_nod@V?$_Tmap_traits@KPAVCCtrl@@U?$less@K@std@@V?$allocator@U?$pair@$$CBKPAVCCtrl@@@std@@@3@$0A@@std@@@2@@Z
_TEXT	SEGMENT PARA USE32 PUBLIC 'CODE'
_TEXT	ENDS
;	COMDAT ?_Lrotate@?$_Tree@V?$_Tmap_traits@KPAVCCtrl@@U?$less@K@std@@V?$allocator@U?$pair@$$CBKPAVCCtrl@@@std@@@3@$0A@@std@@@std@@IAEXPAU_Node@?$_Tree_nod@V?$_Tmap_traits@KPAVCCtrl@@U?$less@K@std@@V?$allocator@U?$pair@$$CBKPAVCCtrl@@@std@@@3@$0A@@std@@@2@@Z
_TEXT	SEGMENT PARA USE32 PUBLIC 'CODE'
_TEXT	ENDS
;	COMDAT ?_Color@?$_Tree@V?$_Tmap_traits@KPAVCCtrl@@U?$less@K@std@@V?$allocator@U?$pair@$$CBKPAVCCtrl@@@std@@@3@$0A@@std@@@std@@KAAADPAU_Node@?$_Tree_nod@V?$_Tmap_traits@KPAVCCtrl@@U?$less@K@std@@V?$allocator@U?$pair@$$CBKPAVCCtrl@@@std@@@3@$0A@@std@@@2@@Z
_TEXT	SEGMENT PARA USE32 PUBLIC 'CODE'
_TEXT	ENDS
;	COMDAT ?compare@?$char_traits@D@std@@SAHPBD0I@Z
_TEXT	SEGMENT PARA USE32 PUBLIC 'CODE'
_TEXT	ENDS
;	COMDAT ?ReleaseBufferSetLength@?$CSimpleStringT@D$0A@@ATL@@QAEXH@Z
_TEXT	SEGMENT PARA USE32 PUBLIC 'CODE'
_TEXT	ENDS
;	COMDAT ?SetLength@?$CSimpleStringT@D$0A@@ATL@@AAEXH@Z
_TEXT	SEGMENT PARA USE32 PUBLIC 'CODE'
_TEXT	ENDS
;	COMDAT ?GetData@?$CSimpleStringT@D$0A@@ATL@@ABEPAUCStringData@2@XZ
_TEXT	SEGMENT PARA USE32 PUBLIC 'CODE'
_TEXT	ENDS
;	COMDAT ?Format@?$ChTraitsCRT@D@ATL@@SAHPADPBD0@Z
_TEXT	SEGMENT PARA USE32 PUBLIC 'CODE'
_TEXT	ENDS
;	COMDAT ?GetBuffer@?$CSimpleStringT@D$0A@@ATL@@QAEPADH@Z
_TEXT	SEGMENT PARA USE32 PUBLIC 'CODE'
_TEXT	ENDS
;	COMDAT ?PrepareWrite@?$CSimpleStringT@D$0A@@ATL@@AAEPADH@Z
_TEXT	SEGMENT PARA USE32 PUBLIC 'CODE'
_TEXT	ENDS
;	COMDAT ?PrepareWrite2@?$CSimpleStringT@D$0A@@ATL@@AAEXH@Z
_TEXT	SEGMENT PARA USE32 PUBLIC 'CODE'
_TEXT	ENDS
;	COMDAT ?IsShared@CStringData@ATL@@QBE_NXZ
_TEXT	SEGMENT PARA USE32 PUBLIC 'CODE'
_TEXT	ENDS
;	COMDAT ?Fork@?$CSimpleStringT@D$0A@@ATL@@AAEXH@Z
_TEXT	SEGMENT PARA USE32 PUBLIC 'CODE'
_TEXT	ENDS
;	COMDAT ?ThrowMemoryException@?$CSimpleStringT@D$0A@@ATL@@KAXXZ
_TEXT	SEGMENT PARA USE32 PUBLIC 'CODE'
_TEXT	ENDS
;	COMDAT ?CopyChars@?$CSimpleStringT@D$0A@@ATL@@SAXPADPBDH@Z
_TEXT	SEGMENT PARA USE32 PUBLIC 'CODE'
_TEXT	ENDS
;	COMDAT ?data@CStringData@ATL@@QAEPAXXZ
_TEXT	SEGMENT PARA USE32 PUBLIC 'CODE'
_TEXT	ENDS
;	COMDAT ?Release@CStringData@ATL@@QAEXXZ
_TEXT	SEGMENT PARA USE32 PUBLIC 'CODE'
_TEXT	ENDS
;	COMDAT ?Attach@?$CSimpleStringT@D$0A@@ATL@@AAEXPAUCStringData@2@@Z
_TEXT	SEGMENT PARA USE32 PUBLIC 'CODE'
_TEXT	ENDS
;	COMDAT ?Reallocate@?$CSimpleStringT@D$0A@@ATL@@AAEXH@Z
_TEXT	SEGMENT PARA USE32 PUBLIC 'CODE'
_TEXT	ENDS
;	COMDAT ?GetFormattedLength@?$ChTraitsCRT@D@ATL@@SAHPBDPAD@Z
_TEXT	SEGMENT PARA USE32 PUBLIC 'CODE'
_TEXT	ENDS
;	COMDAT ?AtlThrow@ATL@@YGXJ@Z
_TEXT	SEGMENT PARA USE32 PUBLIC 'CODE'
_TEXT	ENDS
;	COMDAT ?IsEmpty@CItemBase@@QAEHXZ
_TEXT	SEGMENT PARA USE32 PUBLIC 'CODE'
_TEXT	ENDS
;	COMDAT ??Diterator@?$_Tree@V?$_Tmap_traits@KPAVCCtrl@@U?$less@K@std@@V?$allocator@U?$pair@$$CBKPAVCCtrl@@@std@@@3@$0A@@std@@@std@@QBEAAU?$pair@$$CBKPAVCCtrl@@@2@XZ
_TEXT	SEGMENT PARA USE32 PUBLIC 'CODE'
_TEXT	ENDS
;	COMDAT ??Dconst_iterator@?$_Tree@V?$_Tmap_traits@KPAVCCtrl@@U?$less@K@std@@V?$allocator@U?$pair@$$CBKPAVCCtrl@@@std@@@3@$0A@@std@@@std@@QBEABU?$pair@$$CBKPAVCCtrl@@@2@XZ
_TEXT	SEGMENT PARA USE32 PUBLIC 'CODE'
_TEXT	ENDS
;	COMDAT ?_Myval@?$_Tree@V?$_Tmap_traits@KPAVCCtrl@@U?$less@K@std@@V?$allocator@U?$pair@$$CBKPAVCCtrl@@@std@@@3@$0A@@std@@@std@@KAAAU?$pair@$$CBKPAVCCtrl@@@2@PAU_Node@?$_Tree_nod@V?$_Tmap_traits@KPAVCCtrl@@U?$less@K@std@@V?$allocator@U?$pair@$$CBKPAVCCtrl@@@std@@@3@$0A@@std@@@2@@Z
_TEXT	SEGMENT PARA USE32 PUBLIC 'CODE'
_TEXT	ENDS
;	COMDAT ?_Mynode@const_iterator@?$_Tree@V?$_Tmap_traits@KPAVCCtrl@@U?$less@K@std@@V?$allocator@U?$pair@$$CBKPAVCCtrl@@@std@@@3@$0A@@std@@@std@@QBEPAU_Node@?$_Tree_nod@V?$_Tmap_traits@KPAVCCtrl@@U?$less@K@std@@V?$allocator@U?$pair@$$CBKPAVCCtrl@@@std@@@3@$0A@@std@@@3@XZ
_TEXT	SEGMENT PARA USE32 PUBLIC 'CODE'
_TEXT	ENDS
;	COMDAT ?_Key@?$_Tree@V?$_Tmap_traits@KPAVCCtrl@@U?$less@K@std@@V?$allocator@U?$pair@$$CBKPAVCCtrl@@@std@@@3@$0A@@std@@@std@@KAABKPAU_Node@?$_Tree_nod@V?$_Tmap_traits@KPAVCCtrl@@U?$less@K@std@@V?$allocator@U?$pair@$$CBKPAVCCtrl@@@std@@@3@$0A@@std@@@2@@Z
_TEXT	SEGMENT PARA USE32 PUBLIC 'CODE'
_TEXT	ENDS
;	COMDAT ??R?$less@K@std@@QBE_NABK0@Z
_TEXT	SEGMENT PARA USE32 PUBLIC 'CODE'
_TEXT	ENDS
;	COMDAT ?end@?$_Tree@V?$_Tmap_traits@KPAVCCtrl@@U?$less@K@std@@V?$allocator@U?$pair@$$CBKPAVCCtrl@@@std@@@3@$0A@@std@@@std@@QAE?AViterator@12@XZ
_TEXT	SEGMENT PARA USE32 PUBLIC 'CODE'
_TEXT	ENDS
;	COMDAT ??8const_iterator@?$_Tree@V?$_Tmap_traits@KPAVCCtrl@@U?$less@K@std@@V?$allocator@U?$pair@$$CBKPAVCCtrl@@@std@@@3@$0A@@std@@@std@@QBE_NABV012@@Z
_TEXT	SEGMENT PARA USE32 PUBLIC 'CODE'
_TEXT	ENDS
;	COMDAT ?lower_bound@?$_Tree@V?$_Tmap_traits@KPAVCCtrl@@U?$less@K@std@@V?$allocator@U?$pair@$$CBKPAVCCtrl@@@std@@@3@$0A@@std@@@std@@QAE?AViterator@12@ABK@Z
_TEXT	SEGMENT PARA USE32 PUBLIC 'CODE'
_TEXT	ENDS
;	COMDAT ?_Lbound@?$_Tree@V?$_Tmap_traits@KPAVCCtrl@@U?$less@K@std@@V?$allocator@U?$pair@$$CBKPAVCCtrl@@@std@@@3@$0A@@std@@@std@@IBEPAU_Node@?$_Tree_nod@V?$_Tmap_traits@KPAVCCtrl@@U?$less@K@std@@V?$allocator@U?$pair@$$CBKPAVCCtrl@@@std@@@3@$0A@@std@@@2@ABK@Z
_TEXT	SEGMENT PARA USE32 PUBLIC 'CODE'
_TEXT	ENDS
;	COMDAT ?_Root@?$_Tree@V?$_Tmap_traits@KPAVCCtrl@@U?$less@K@std@@V?$allocator@U?$pair@$$CBKPAVCCtrl@@@std@@@3@$0A@@std@@@std@@IBEAAPAU_Node@?$_Tree_nod@V?$_Tmap_traits@KPAVCCtrl@@U?$less@K@std@@V?$allocator@U?$pair@$$CBKPAVCCtrl@@@std@@@3@$0A@@std@@@2@XZ
_TEXT	SEGMENT PARA USE32 PUBLIC 'CODE'
_TEXT	ENDS
;	COMDAT ?_Myptr@?$basic_string@DU?$char_traits@D@std@@V?$allocator@D@2@@std@@QBEPBDXZ
_TEXT	SEGMENT PARA USE32 PUBLIC 'CODE'
_TEXT	ENDS
;	COMDAT ?size@?$basic_string@DU?$char_traits@D@std@@V?$allocator@D@2@@std@@QBEIXZ
_TEXT	SEGMENT PARA USE32 PUBLIC 'CODE'
_TEXT	ENDS
;	COMDAT ?GetLength@?$CSimpleStringT@D$0A@@ATL@@QBEHXZ
_TEXT	SEGMENT PARA USE32 PUBLIC 'CODE'
_TEXT	ENDS
;	COMDAT ?IsMode@CMover@@QAEHK@Z
_TEXT	SEGMENT PARA USE32 PUBLIC 'CODE'
_TEXT	ENDS
;	COMDAT ?IsAuthHigher@CMover@@QAEKK@Z
_TEXT	SEGMENT PARA USE32 PUBLIC 'CODE'
_TEXT	ENDS
;	COMDAT ?GetItemProp@CProject@@QAEPAUItemProp@@H@Z
_TEXT	SEGMENT PARA USE32 PUBLIC 'CODE'
_TEXT	ENDS
;	COMDAT ?LOG_RANGE@@YAXPBDHHH@Z
_TEXT	SEGMENT PARA USE32 PUBLIC 'CODE'
_TEXT	ENDS
;	COMDAT ??_C@_0BM@HMFGHCP@?$CFs?5min?3?$CFd?0?5max?3?$CFd?0?5index?3?$CFd?$AA@
CONST	SEGMENT DWORD USE32 PUBLIC 'CONST'
CONST	ENDS
;	COMDAT ?GetSize@?$CFixedArray@UItemProp@@@@QAEHXZ
_TEXT	SEGMENT PARA USE32 PUBLIC 'CODE'
_TEXT	ENDS
;	COMDAT ??_C@_0BI@BEIFNGEL@GetItemProp?5range_error?$AA@
CONST	SEGMENT DWORD USE32 PUBLIC 'CONST'
CONST	ENDS
;	COMDAT ?LOG_CALLSTACK@@YAXXZ
_TEXT	SEGMENT PARA USE32 PUBLIC 'CODE'
_TEXT	ENDS
;	COMDAT ?GetAt@?$CFixedArray@UItemProp@@@@QAEPAUItemProp@@K@Z
_TEXT	SEGMENT PARA USE32 PUBLIC 'CODE'
_TEXT	ENDS
;	COMDAT ?xRandom@@YAKK@Z
_TEXT	SEGMENT PARA USE32 PUBLIC 'CODE'
_TEXT	ENDS
;	COMDAT ?xRand@@YAKXZ
_TEXT	SEGMENT PARA USE32 PUBLIC 'CODE'
_TEXT	ENDS
;	COMDAT ?GetPos@CObj@@QAE?AUD3DXVECTOR3@@XZ
_TEXT	SEGMENT PARA USE32 PUBLIC 'CODE'
_TEXT	ENDS
;	COMDAT ?GetPropA@CItemElem@@QAEPAUItemProp@@XZ
_TEXT	SEGMENT PARA USE32 PUBLIC 'CODE'
_TEXT	ENDS
;	COMDAT ?GetID@CWorld@@QAEKXZ
_TEXT	SEGMENT PARA USE32 PUBLIC 'CODE'
_TEXT	ENDS
;	COMDAT ??0_LogItemInfo@@QAE@XZ
_TEXT	SEGMENT PARA USE32 PUBLIC 'CODE'
_TEXT	ENDS
;	COMDAT ?GetAtId@?$CItemContainer@VCItemElem@@@@QAEPAVCItemElem@@K@Z
_TEXT	SEGMENT PARA USE32 PUBLIC 'CODE'
_TEXT	ENDS
;	COMDAT ?SetAbilityOption@CItemElem@@QAEXH@Z
_TEXT	SEGMENT PARA USE32 PUBLIC 'CODE'
_TEXT	ENDS
;	COMDAT ?GetSex@CMover@@QAEEXZ
_TEXT	SEGMENT PARA USE32 PUBLIC 'CODE'
_TEXT	ENDS
;	COMDAT ?IsPlayer@CMover@@QAEHXZ
_TEXT	SEGMENT PARA USE32 PUBLIC 'CODE'
_TEXT	ENDS
;	COMDAT ??_C@_00CNPNBAHC@?$AA@
CONST	SEGMENT DWORD USE32 PUBLIC 'CONST'
CONST	ENDS
;	COMDAT ??_H@YGXPAXIHP6EPAX0@Z@Z
_TEXT	SEGMENT PARA USE32 PUBLIC 'CODE'
_TEXT	ENDS
;	COMDAT ??MCTime@ATL@@QBE_NV01@@Z
_TEXT	SEGMENT PARA USE32 PUBLIC 'CODE'
_TEXT	ENDS
;	COMDAT ?IsValidObj@@YAHPAVCObj@@@Z
_TEXT	SEGMENT PARA USE32 PUBLIC 'CODE'
_TEXT	ENDS
;	COMDAT ?IsDelete@CObj@@QAEHXZ
_TEXT	SEGMENT PARA USE32 PUBLIC 'CODE'
_TEXT	ENDS
;	COMDAT ?GetExp1@CMover@@QAE_JXZ
_TEXT	SEGMENT PARA USE32 PUBLIC 'CODE'
_TEXT	ENDS
;	COMDAT ?GetGold@CMover@@QAEHXZ
_TEXT	SEGMENT PARA USE32 PUBLIC 'CODE'
_TEXT	ENDS
;	COMDAT ?SetSta@CMover@@QAEXH@Z
_TEXT	SEGMENT PARA USE32 PUBLIC 'CODE'
_TEXT	ENDS
;	COMDAT ?SetDex@CMover@@QAEXH@Z
_TEXT	SEGMENT PARA USE32 PUBLIC 'CODE'
_TEXT	ENDS
;	COMDAT ?SetInt@CMover@@QAEXH@Z
_TEXT	SEGMENT PARA USE32 PUBLIC 'CODE'
_TEXT	ENDS
;	COMDAT ?SetStr@CMover@@QAEXH@Z
_TEXT	SEGMENT PARA USE32 PUBLIC 'CODE'
_TEXT	ENDS
;	COMDAT ?GetText@CProject@@QAEPBDK@Z
_TEXT	SEGMENT PARA USE32 PUBLIC 'CODE'
_TEXT	ENDS
;	COMDAT ?GetSize@?$CFixedArray@UtagColorText@@@@QAEHXZ
_TEXT	SEGMENT PARA USE32 PUBLIC 'CODE'
_TEXT	ENDS
;	COMDAT ??_C@_0BE@OHDBLHOM@GetText?5range_error?$AA@
CONST	SEGMENT DWORD USE32 PUBLIC 'CONST'
CONST	ENDS
;	COMDAT ??_C@_05KKCIMGE@error?$AA@
CONST	SEGMENT DWORD USE32 PUBLIC 'CONST'
CONST	ENDS
;	COMDAT ?GetAt@?$CFixedArray@UtagColorText@@@@QAEPAUtagColorText@@K@Z
_TEXT	SEGMENT PARA USE32 PUBLIC 'CODE'
_TEXT	ENDS
;	COMDAT ?GetPartyId@CMover@@QAEKXZ
_TEXT	SEGMENT PARA USE32 PUBLIC 'CODE'
_TEXT	ENDS
;	COMDAT ?GetId@CCtrl@@QAEKXZ
_TEXT	SEGMENT PARA USE32 PUBLIC 'CODE'
_TEXT	ENDS
;	COMDAT ?GetLayer@CObj@@QAEHXZ
_TEXT	SEGMENT PARA USE32 PUBLIC 'CODE'
_TEXT	ENDS
;	COMDAT ?GetWorld@CObj@@QAEPAVCWorld@@XZ
_TEXT	SEGMENT PARA USE32 PUBLIC 'CODE'
_TEXT	ENDS
;	COMDAT ?GetLevel@CMover@@QAEHXZ
_TEXT	SEGMENT PARA USE32 PUBLIC 'CODE'
_TEXT	ENDS
;	COMDAT ?GetAt@?$CFixedArray@UQuestProp@@@@QAEPAUQuestProp@@K@Z
_TEXT	SEGMENT PARA USE32 PUBLIC 'CODE'
_TEXT	ENDS
;	COMDAT ??0?$CStringT@DV?$StrTraitMFC@DV?$ChTraitsCRT@D@ATL@@@@@ATL@@QAE@PBD@Z
_TEXT	SEGMENT PARA USE32 PUBLIC 'CODE'
_TEXT	ENDS
;	COMDAT ??0?$CSimpleStringT@D$0A@@ATL@@QAE@PAUIAtlStringMgr@1@@Z
_TEXT	SEGMENT PARA USE32 PUBLIC 'CODE'
_TEXT	ENDS
;	COMDAT ?GetDefaultManager@?$StrTraitMFC@DV?$ChTraitsCRT@D@ATL@@@@SAPAUIAtlStringMgr@ATL@@XZ
_TEXT	SEGMENT PARA USE32 PUBLIC 'CODE'
_TEXT	ENDS
;	COMDAT ??1?$CSimpleStringT@D$0A@@ATL@@QAE@XZ
_TEXT	SEGMENT PARA USE32 PUBLIC 'CODE'
_TEXT	ENDS
;	COMDAT ?CheckImplicitLoad@?$CStringT@DV?$StrTraitMFC@DV?$ChTraitsCRT@D@ATL@@@@@ATL@@AAE_NPBX@Z
_TEXT	SEGMENT PARA USE32 PUBLIC 'CODE'
_TEXT	ENDS
;	COMDAT ?LoadStringA@?$CStringT@DV?$StrTraitMFC@DV?$ChTraitsCRT@D@ATL@@@@@ATL@@QAEHI@Z
_TEXT	SEGMENT PARA USE32 PUBLIC 'CODE'
_TEXT	ENDS
;	COMDAT ?FindStringResourceInstance@?$StrTraitMFC@DV?$ChTraitsCRT@D@ATL@@@@SAPAUHINSTANCE__@@I@Z
_TEXT	SEGMENT PARA USE32 PUBLIC 'CODE'
_TEXT	ENDS
;	COMDAT ?LoadStringA@?$CStringT@DV?$StrTraitMFC@DV?$ChTraitsCRT@D@ATL@@@@@ATL@@QAEHPAUHINSTANCE__@@I@Z
_TEXT	SEGMENT PARA USE32 PUBLIC 'CODE'
_TEXT	ENDS
;	COMDAT ?AtlGetStringResourceImage@ATL@@YAPBUATLSTRINGRESOURCEIMAGE@1@PAUHINSTANCE__@@I@Z
_TEXT	SEGMENT PARA USE32 PUBLIC 'CODE'
_TEXT	ENDS
;	COMDAT ?_AtlGetStringResourceImage@ATL@@YAPBUATLSTRINGRESOURCEIMAGE@1@PAUHINSTANCE__@@PAUHRSRC__@@I@Z
_TEXT	SEGMENT PARA USE32 PUBLIC 'CODE'
_TEXT	ENDS
;	COMDAT ?GetBaseTypeLength@?$ChTraitsCRT@D@ATL@@SAHPBGH@Z
_TEXT	SEGMENT PARA USE32 PUBLIC 'CODE'
_TEXT	ENDS
;	COMDAT ?_AtlGetConversionACP@ATL@@YGIXZ
_TEXT	SEGMENT PARA USE32 PUBLIC 'CODE'
_TEXT	ENDS
;	COMDAT ?g_pfnGetThreadACP@ATL@@3P6GIXZA
_DATA	SEGMENT DWORD USE32 PUBLIC 'DATA'
_DATA	ENDS
;	COMDAT ?_AtlGetThreadACPThunk@ATL@@YGIXZ
_TEXT	SEGMENT PARA USE32 PUBLIC 'CODE'
_TEXT	ENDS
;	COMDAT ?_AtlGetThreadACPReal@ATL@@YGIXZ
_TEXT	SEGMENT PARA USE32 PUBLIC 'CODE'
_TEXT	ENDS
;	COMDAT ?_AtlGetThreadACPFake@ATL@@YGIXZ
_TEXT	SEGMENT PARA USE32 PUBLIC 'CODE'
_TEXT	ENDS
;	COMDAT ?InterlockedExchangePointer@@YGPAXPAPAXPAX@Z
_TEXT	SEGMENT PARA USE32 PUBLIC 'CODE'
_TEXT	ENDS
;	COMDAT ?ConvertToBaseType@?$ChTraitsCRT@D@ATL@@SAXPADHPBGH@Z
_TEXT	SEGMENT PARA USE32 PUBLIC 'CODE'
_TEXT	ENDS
;	COMDAT ?GetPropA@tagQuest@@QAEPAUQuestProp@@XZ
_TEXT	SEGMENT PARA USE32 PUBLIC 'CODE'
_TEXT	ENDS
;	COMDAT ??B?$CSimpleStringT@D$0A@@ATL@@QBEPBDXZ
_TEXT	SEGMENT PARA USE32 PUBLIC 'CODE'
_TEXT	ENDS
;	COMDAT ??4?$CStringT@DV?$StrTraitMFC@DV?$ChTraitsCRT@D@ATL@@@@@ATL@@QAEAAV01@ABV01@@Z
_TEXT	SEGMENT PARA USE32 PUBLIC 'CODE'
_TEXT	ENDS
;	COMDAT ??4?$CSimpleStringT@D$0A@@ATL@@QAEAAV01@ABV01@@Z
_TEXT	SEGMENT PARA USE32 PUBLIC 'CODE'
_TEXT	ENDS
;	COMDAT ?IsLocked@CStringData@ATL@@QBE_NXZ
_TEXT	SEGMENT PARA USE32 PUBLIC 'CODE'
_TEXT	ENDS
;	COMDAT ?SetString@?$CSimpleStringT@D$0A@@ATL@@QAEXPBDH@Z
_TEXT	SEGMENT PARA USE32 PUBLIC 'CODE'
_TEXT	ENDS
;	COMDAT ?Empty@?$CSimpleStringT@D$0A@@ATL@@QAEXXZ
_TEXT	SEGMENT PARA USE32 PUBLIC 'CODE'
_TEXT	ENDS
;	COMDAT ?CopyCharsOverlapped@?$CSimpleStringT@D$0A@@ATL@@SAXPADPBDH@Z
_TEXT	SEGMENT PARA USE32 PUBLIC 'CODE'
_TEXT	ENDS
;	COMDAT ?GetString@?$CSimpleStringT@D$0A@@ATL@@QBEPBDXZ
_TEXT	SEGMENT PARA USE32 PUBLIC 'CODE'
_TEXT	ENDS
;	COMDAT ?CloneData@?$CSimpleStringT@D$0A@@ATL@@CAPAUCStringData@2@PAU32@@Z
_TEXT	SEGMENT PARA USE32 PUBLIC 'CODE'
_TEXT	ENDS
;	COMDAT ?AddRef@CStringData@ATL@@QAEXXZ
_TEXT	SEGMENT PARA USE32 PUBLIC 'CODE'
_TEXT	ENDS
;	COMDAT ??4?$CStringT@DV?$StrTraitMFC@DV?$ChTraitsCRT@D@ATL@@@@@ATL@@QAEAAV01@PBD@Z
_TEXT	SEGMENT PARA USE32 PUBLIC 'CODE'
_TEXT	ENDS
;	COMDAT ??4?$CSimpleStringT@D$0A@@ATL@@QAEAAV01@PBD@Z
_TEXT	SEGMENT PARA USE32 PUBLIC 'CODE'
_TEXT	ENDS
;	COMDAT ?SetString@?$CSimpleStringT@D$0A@@ATL@@QAEXPBD@Z
_TEXT	SEGMENT PARA USE32 PUBLIC 'CODE'
_TEXT	ENDS
;	COMDAT ?StringLength@?$CSimpleStringT@D$0A@@ATL@@SAHPBD@Z
_TEXT	SEGMENT PARA USE32 PUBLIC 'CODE'
_TEXT	ENDS
;	COMDAT ??1?$CStringT@DV?$StrTraitMFC@DV?$ChTraitsCRT@D@ATL@@@@@ATL@@QAE@XZ
_TEXT	SEGMENT PARA USE32 PUBLIC 'CODE'
_TEXT	ENDS
;	COMDAT ??0?$CStringT@DV?$StrTraitMFC@DV?$ChTraitsCRT@D@ATL@@@@@ATL@@QAE@XZ
_TEXT	SEGMENT PARA USE32 PUBLIC 'CODE'
_TEXT	ENDS
;	COMDAT ?GetType@CObj@@QAEKXZ
_TEXT	SEGMENT PARA USE32 PUBLIC 'CODE'
_TEXT	ENDS
;	COMDAT ??_7CMapChildE@@6B@
CONST	SEGMENT DWORD USE32 PUBLIC 'CONST'
CONST	ENDS
;	COMDAT ?Leave@CMclCritSec@@QAEXXZ
_TEXT	SEGMENT PARA USE32 PUBLIC 'CODE'
_TEXT	ENDS
;	COMDAT ?Enter@CMclCritSec@@QAEXXZ
_TEXT	SEGMENT PARA USE32 PUBLIC 'CODE'
_TEXT	ENDS
;	COMDAT ??1CMclCritSec@@UAE@XZ
_TEXT	SEGMENT PARA USE32 PUBLIC 'CODE'
_TEXT	ENDS
;	COMDAT ??_7CMclCritSec@@6B@
CONST	SEGMENT DWORD USE32 PUBLIC 'CONST'
CONST	ENDS
;	COMDAT ??_GCMclCritSec@@UAEPAXI@Z
_TEXT	SEGMENT PARA USE32 PUBLIC 'CODE'
_TEXT	ENDS
;	COMDAT ??0CMclCritSec@@QAE@XZ
_TEXT	SEGMENT PARA USE32 PUBLIC 'CODE'
_TEXT	ENDS
;	COMDAT ??_7CMapChild@@6B@
CONST	SEGMENT DWORD USE32 PUBLIC 'CONST'
CONST	ENDS
;	COMDAT ??1CMclAutoLock@@QAE@XZ
_TEXT	SEGMENT PARA USE32 PUBLIC 'CODE'
_TEXT	ENDS
;	COMDAT ??0CMclAutoLock@@QAE@AAVCMclCritSec@@@Z
_TEXT	SEGMENT PARA USE32 PUBLIC 'CODE'
_TEXT	ENDS
;	COMDAT ??_7CBuffer2@@6B@
CONST	SEGMENT DWORD USE32 PUBLIC 'CONST'
CONST	ENDS
;	COMDAT ?erase@?$_Tree@V?$_Tmap_traits@KPAVCCtrl@@U?$less@K@std@@V?$allocator@U?$pair@$$CBKPAVCCtrl@@@std@@@3@$0A@@std@@@std@@QAEIABK@Z
_TEXT	SEGMENT PARA USE32 PUBLIC 'CODE'
_TEXT	ENDS
;	COMDAT ?equal_range@?$_Tree@V?$_Tmap_traits@KPAVCCtrl@@U?$less@K@std@@V?$allocator@U?$pair@$$CBKPAVCCtrl@@@std@@@3@$0A@@std@@@std@@QAE?AU?$pair@Viterator@?$_Tree@V?$_Tmap_traits@KPAVCCtrl@@U?$less@K@std@@V?$allocator@U?$pair@$$CBKPAVCCtrl@@@std@@@3@$0A@@std@@@std@@V123@@2@ABK@Z
_TEXT	SEGMENT PARA USE32 PUBLIC 'CODE'
_TEXT	ENDS
;	COMDAT ??0?$pair@Viterator@?$_Tree@V?$_Tmap_traits@KPAVCCtrl@@U?$less@K@std@@V?$allocator@U?$pair@$$CBKPAVCCtrl@@@std@@@3@$0A@@std@@@std@@V123@@std@@QAE@ABViterator@?$_Tree@V?$_Tmap_traits@KPAVCCtrl@@U?$less@K@std@@V?$allocator@U?$pair@$$CBKPAVCCtrl@@@std@@@3@$0A@@std@@@1@0@Z
_TEXT	SEGMENT PARA USE32 PUBLIC 'CODE'
_TEXT	ENDS
;	COMDAT ?upper_bound@?$_Tree@V?$_Tmap_traits@KPAVCCtrl@@U?$less@K@std@@V?$allocator@U?$pair@$$CBKPAVCCtrl@@@std@@@3@$0A@@std@@@std@@QAE?AViterator@12@ABK@Z
_TEXT	SEGMENT PARA USE32 PUBLIC 'CODE'
_TEXT	ENDS
;	COMDAT ?_Ubound@?$_Tree@V?$_Tmap_traits@KPAVCCtrl@@U?$less@K@std@@V?$allocator@U?$pair@$$CBKPAVCCtrl@@@std@@@3@$0A@@std@@@std@@IBEPAU_Node@?$_Tree_nod@V?$_Tmap_traits@KPAVCCtrl@@U?$less@K@std@@V?$allocator@U?$pair@$$CBKPAVCCtrl@@@std@@@3@$0A@@std@@@2@ABK@Z
_TEXT	SEGMENT PARA USE32 PUBLIC 'CODE'
_TEXT	ENDS
;	COMDAT ??$_Distance@Viterator@?$_Tree@V?$_Tmap_traits@KPAVCCtrl@@U?$less@K@std@@V?$allocator@U?$pair@$$CBKPAVCCtrl@@@std@@@3@$0A@@std@@@std@@I@std@@YAXViterator@?$_Tree@V?$_Tmap_traits@KPAVCCtrl@@U?$less@K@std@@V?$allocator@U?$pair@$$CBKPAVCCtrl@@@std@@@3@$0A@@std@@@0@0AAI@Z
_TEXT	SEGMENT PARA USE32 PUBLIC 'CODE'
_TEXT	ENDS
;	COMDAT ?erase@?$_Tree@V?$_Tmap_traits@KPAVCCtrl@@U?$less@K@std@@V?$allocator@U?$pair@$$CBKPAVCCtrl@@@std@@@3@$0A@@std@@@std@@QAE?AViterator@12@V312@0@Z
_TEXT	SEGMENT PARA USE32 PUBLIC 'CODE'
_TEXT	ENDS
;	COMDAT ?clear@?$_Tree@V?$_Tmap_traits@KPAVCCtrl@@U?$less@K@std@@V?$allocator@U?$pair@$$CBKPAVCCtrl@@@std@@@3@$0A@@std@@@std@@QAEXXZ
_TEXT	SEGMENT PARA USE32 PUBLIC 'CODE'
_TEXT	ENDS
;	COMDAT ?_Erase@?$_Tree@V?$_Tmap_traits@KPAVCCtrl@@U?$less@K@std@@V?$allocator@U?$pair@$$CBKPAVCCtrl@@@std@@@3@$0A@@std@@@std@@IAEXPAU_Node@?$_Tree_nod@V?$_Tmap_traits@KPAVCCtrl@@U?$less@K@std@@V?$allocator@U?$pair@$$CBKPAVCCtrl@@@std@@@3@$0A@@std@@@2@@Z
_TEXT	SEGMENT PARA USE32 PUBLIC 'CODE'
_TEXT	ENDS
;	COMDAT ?destroy@?$allocator@U_Node@?$_Tree_nod@V?$_Tmap_traits@KPAVCCtrl@@U?$less@K@std@@V?$allocator@U?$pair@$$CBKPAVCCtrl@@@std@@@3@$0A@@std@@@std@@@std@@QAEXPAU_Node@?$_Tree_nod@V?$_Tmap_traits@KPAVCCtrl@@U?$less@K@std@@V?$allocator@U?$pair@$$CBKPAVCCtrl@@@std@@@3@$0A@@std@@@2@@Z
_TEXT	SEGMENT PARA USE32 PUBLIC 'CODE'
_TEXT	ENDS
;	COMDAT ??$_Destroy@U_Node@?$_Tree_nod@V?$_Tmap_traits@KPAVCCtrl@@U?$less@K@std@@V?$allocator@U?$pair@$$CBKPAVCCtrl@@@std@@@3@$0A@@std@@@std@@@std@@YAXPAU_Node@?$_Tree_nod@V?$_Tmap_traits@KPAVCCtrl@@U?$less@K@std@@V?$allocator@U?$pair@$$CBKPAVCCtrl@@@std@@@3@$0A@@std@@@0@@Z
_TEXT	SEGMENT PARA USE32 PUBLIC 'CODE'
_TEXT	ENDS
;	COMDAT ?erase@?$_Tree@V?$_Tmap_traits@KPAVCCtrl@@U?$less@K@std@@V?$allocator@U?$pair@$$CBKPAVCCtrl@@@std@@@3@$0A@@std@@@std@@QAE?AViterator@12@V312@@Z
_TEXT	SEGMENT PARA USE32 PUBLIC 'CODE'
_TEXT	ENDS
;	COMDAT ??Eiterator@?$_Tree@V?$_Tmap_traits@KPAVCCtrl@@U?$less@K@std@@V?$allocator@U?$pair@$$CBKPAVCCtrl@@@std@@@3@$0A@@std@@@std@@QAE?AV012@H@Z
_TEXT	SEGMENT PARA USE32 PUBLIC 'CODE'
_TEXT	ENDS
;	COMDAT ??5@YAAAVCAr@@AAV0@AAUD3DXVECTOR3@@@Z
_TEXT	SEGMENT PARA USE32 PUBLIC 'CODE'
_TEXT	ENDS
;	COMDAT ??5CAr@@QAEAAV0@AAM@Z
_TEXT	SEGMENT PARA USE32 PUBLIC 'CODE'
_TEXT	ENDS
;	COMDAT ??5CAr@@QAEAAV0@AAJ@Z
_TEXT	SEGMENT PARA USE32 PUBLIC 'CODE'
_TEXT	ENDS
;	COMDAT ?time_null@@YAJXZ
_TEXT	SEGMENT PARA USE32 PUBLIC 'CODE'
_TEXT	ENDS
;	COMDAT ??6CAr@@QAEAAV0@J@Z
_TEXT	SEGMENT PARA USE32 PUBLIC 'CODE'
_TEXT	ENDS
;	COMDAT ??6@YAAAVCAr@@AAV0@UD3DXVECTOR3@@@Z
_TEXT	SEGMENT PARA USE32 PUBLIC 'CODE'
_TEXT	ENDS
;	COMDAT ??6CAr@@QAEAAV0@M@Z
_TEXT	SEGMENT PARA USE32 PUBLIC 'CODE'
_TEXT	ENDS
;	COMDAT ??1?$basic_string@DU?$char_traits@D@std@@V?$allocator@D@2@@std@@QAE@XZ
_TEXT	SEGMENT PARA USE32 PUBLIC 'CODE'
_TEXT	ENDS
;	COMDAT ??0?$basic_string@DU?$char_traits@D@std@@V?$allocator@D@2@@std@@QAE@PBD@Z
_TEXT	SEGMENT PARA USE32 PUBLIC 'CODE'
_TEXT	ENDS
;	COMDAT ??0?$allocator@D@std@@QAE@XZ
_TEXT	SEGMENT PARA USE32 PUBLIC 'CODE'
_TEXT	ENDS
;	COMDAT ?assign@?$basic_string@DU?$char_traits@D@std@@V?$allocator@D@2@@std@@QAEAAV12@PBD@Z
_TEXT	SEGMENT PARA USE32 PUBLIC 'CODE'
_TEXT	ENDS
;	COMDAT ?assign@?$basic_string@DU?$char_traits@D@std@@V?$allocator@D@2@@std@@QAEAAV12@PBDI@Z
_TEXT	SEGMENT PARA USE32 PUBLIC 'CODE'
_TEXT	ENDS
;	COMDAT ?_Inside@?$basic_string@DU?$char_traits@D@std@@V?$allocator@D@2@@std@@IAE_NPBD@Z
_TEXT	SEGMENT PARA USE32 PUBLIC 'CODE'
_TEXT	ENDS
;	COMDAT ?length@?$char_traits@D@std@@SAIPBD@Z
_TEXT	SEGMENT PARA USE32 PUBLIC 'CODE'
_TEXT	ENDS
;	COMDAT ?c_str@?$basic_string@DU?$char_traits@D@std@@V?$allocator@D@2@@std@@QBEPBDXZ
_TEXT	SEGMENT PARA USE32 PUBLIC 'CODE'
_TEXT	ENDS
;	COMDAT ??6CAr@@QAEAAV0@I@Z
_TEXT	SEGMENT PARA USE32 PUBLIC 'CODE'
_TEXT	ENDS
;	COMDAT ??_7__MINIGAME_EXT_PACKET@@6B@
CONST	SEGMENT DWORD USE32 PUBLIC 'CONST'
CONST	ENDS
;	COMDAT ??5CAr@@QAEAAV0@AAG@Z
_TEXT	SEGMENT PARA USE32 PUBLIC 'CODE'
_TEXT	ENDS
;	COMDAT ??5CAr@@QAEAAV0@AAH@Z
_TEXT	SEGMENT PARA USE32 PUBLIC 'CODE'
_TEXT	ENDS
;	COMDAT ??6CAr@@QAEAAV0@G@Z
_TEXT	SEGMENT PARA USE32 PUBLIC 'CODE'
_TEXT	ENDS
;	COMDAT ??6CAr@@QAEAAV0@H@Z
_TEXT	SEGMENT PARA USE32 PUBLIC 'CODE'
_TEXT	ENDS
;	COMDAT ??_7__MINIGAME_PACKET@@6B@
CONST	SEGMENT DWORD USE32 PUBLIC 'CONST'
CONST	ENDS
;	COMDAT ??1?$vector@KV?$allocator@K@std@@@std@@QAE@XZ
_TEXT	SEGMENT PARA USE32 PUBLIC 'CODE'
_TEXT	ENDS
;	COMDAT ?_Tidy@?$vector@KV?$allocator@K@std@@@std@@IAEXXZ
_TEXT	SEGMENT PARA USE32 PUBLIC 'CODE'
_TEXT	ENDS
;	COMDAT ?_Destroy@?$vector@KV?$allocator@K@std@@@std@@IAEXPAK0@Z
_TEXT	SEGMENT PARA USE32 PUBLIC 'CODE'
_TEXT	ENDS
;	COMDAT ??$_Destroy_range@KV?$allocator@K@std@@@std@@YAXPAK0AAV?$allocator@K@0@@Z
_TEXT	SEGMENT PARA USE32 PUBLIC 'CODE'
_TEXT	ENDS
;	COMDAT ?_Ptr_cat@std@@YA?AU_Scalar_ptr_iterator_tag@1@PAK0@Z
_TEXT	SEGMENT PARA USE32 PUBLIC 'CODE'
_TEXT	ENDS
;	COMDAT ?deallocate@?$allocator@K@std@@QAEXPAKI@Z
_TEXT	SEGMENT PARA USE32 PUBLIC 'CODE'
_TEXT	ENDS
;	COMDAT ??0?$vector@KV?$allocator@K@std@@@std@@QAE@XZ
_TEXT	SEGMENT PARA USE32 PUBLIC 'CODE'
_TEXT	ENDS
;	COMDAT ??0?$_Vector_val@KV?$allocator@K@std@@@std@@IAE@V?$allocator@K@1@@Z
_TEXT	SEGMENT PARA USE32 PUBLIC 'CODE'
_TEXT	ENDS
;	COMDAT ??0?$allocator@K@std@@QAE@ABV01@@Z
_TEXT	SEGMENT PARA USE32 PUBLIC 'CODE'
_TEXT	ENDS
;	COMDAT ??0?$allocator@K@std@@QAE@XZ
_TEXT	SEGMENT PARA USE32 PUBLIC 'CODE'
_TEXT	ENDS
;	COMDAT ?_Buy@?$vector@KV?$allocator@K@std@@@std@@IAE_NI@Z
_TEXT	SEGMENT PARA USE32 PUBLIC 'CODE'
_TEXT	ENDS
;	COMDAT ?max_size@?$vector@KV?$allocator@K@std@@@std@@QBEIXZ
_TEXT	SEGMENT PARA USE32 PUBLIC 'CODE'
_TEXT	ENDS
;	COMDAT ?max_size@?$allocator@K@std@@QBEIXZ
_TEXT	SEGMENT PARA USE32 PUBLIC 'CODE'
_TEXT	ENDS
;	COMDAT ?_Xlen@?$vector@KV?$allocator@K@std@@@std@@IBEXXZ
_TEXT	SEGMENT PARA USE32 PUBLIC 'CODE'
_TEXT	ENDS
;	COMDAT ?allocate@?$allocator@K@std@@QAEPAKI@Z
_TEXT	SEGMENT PARA USE32 PUBLIC 'CODE'
_TEXT	ENDS
;	COMDAT ??$_Allocate@K@std@@YAPAKIPAK@Z
_TEXT	SEGMENT PARA USE32 PUBLIC 'CODE'
_TEXT	ENDS
;	COMDAT ??5CAr@@QAEAAV0@AAK@Z
_TEXT	SEGMENT PARA USE32 PUBLIC 'CODE'
_TEXT	ENDS
;	COMDAT ??6CAr@@QAEAAV0@K@Z
_TEXT	SEGMENT PARA USE32 PUBLIC 'CODE'
_TEXT	ENDS
;	COMDAT ?IsStoring@CAr@@QBEHXZ
_TEXT	SEGMENT PARA USE32 PUBLIC 'CODE'
_TEXT	ENDS
;	COMDAT ??0D3DXVECTOR3@@QAE@MMM@Z
_TEXT	SEGMENT PARA USE32 PUBLIC 'CODE'
_TEXT	ENDS
;	COMDAT ?GetTickCount@CTime@ATL@@SG?AV12@XZ
_TEXT	SEGMENT PARA USE32 PUBLIC 'CODE'
_TEXT	ENDS
;	COMDAT ??0CTime@ATL@@QAE@_J@Z
_TEXT	SEGMENT PARA USE32 PUBLIC 'CODE'
_TEXT	ENDS
;	COMDAT ??0D3DXVECTOR3@@QAE@XZ
_TEXT	SEGMENT PARA USE32 PUBLIC 'CODE'
_TEXT	ENDS
;	COMDAT ??0CTime@ATL@@QAE@XZ
_TEXT	SEGMENT PARA USE32 PUBLIC 'CODE'
_TEXT	ENDS
sxdata	SEGMENT DWORD USE32 'SXDATA'
sxdata	ENDS
FLAT	GROUP _DATA, CONST, _BSS
	ASSUME	CS: FLAT, DS: FLAT, SS: FLAT
endif

INCLUDELIB LIBCMT
INCLUDELIB OLDNAMES

PUBLIC	?g_functions@@3UFunctions@@A			; g_functions
PUBLIC	?g_pfnGetThreadACP@ATL@@3P6GIXZA		; ATL::g_pfnGetThreadACP
PUBLIC	?_AtlGetThreadACPThunk@ATL@@YGIXZ		; ATL::_AtlGetThreadACPThunk
_BSS	SEGMENT
?g_functions@@3UFunctions@@A DB 016cH DUP (?)		; g_functions
_BSS	ENDS
;	COMDAT ?g_pfnGetThreadACP@ATL@@3P6GIXZA
_DATA	SEGMENT
?g_pfnGetThreadACP@ATL@@3P6GIXZA DD FLAT:?_AtlGetThreadACPThunk@ATL@@YGIXZ ; ATL::g_pfnGetThreadACP
_DATA	ENDS
PUBLIC	?IsMember@CParty@@QAEHK@Z			; CParty::IsMember
EXTRN	?FindMember@CParty@@QAEHK@Z:NEAR		; CParty::FindMember
; Function compile flags: /Ogty
; File c:\documents and settings\test\mes documents\source\virtuos_v17\build\program\_common\party.h
;	COMDAT ?IsMember@CParty@@QAEHK@Z
_TEXT	SEGMENT
_uPlayerId$ = 8						; size = 4
?IsMember@CParty@@QAEHK@Z PROC NEAR			; CParty::IsMember, COMDAT
; _this$ = ecx

; 119  : 	BOOL	IsMember( u_long uPlayerId )		{	return( FindMember( uPlayerId ) >= 0 );	}

  00000	8b 44 24 04	 mov	 eax, DWORD PTR _uPlayerId$[esp-4]
  00004	50		 push	 eax
  00005	e8 00 00 00 00	 call	 ?FindMember@CParty@@QAEHK@Z ; CParty::FindMember
  0000a	33 c9		 xor	 ecx, ecx
  0000c	85 c0		 test	 eax, eax
  0000e	0f 9d c1	 setge	 cl
  00011	8b c1		 mov	 eax, ecx
  00013	c2 04 00	 ret	 4
?IsMember@CParty@@QAEHK@Z ENDP				; CParty::IsMember
_TEXT	ENDS
PUBLIC	?IsLeader@CParty@@QAEHK@Z			; CParty::IsLeader
; Function compile flags: /Ogty
;	COMDAT ?IsLeader@CParty@@QAEHK@Z
_TEXT	SEGMENT
_uPlayerId$ = 8						; size = 4
?IsLeader@CParty@@QAEHK@Z PROC NEAR			; CParty::IsLeader, COMDAT
; _this$ = ecx

; 120  : 	int		IsLeader( u_long uPlayerId )		{	return( m_aMember[0].m_uPlayerId == uPlayerId );	}

  00000	8b 49 28	 mov	 ecx, DWORD PTR [ecx+40]
  00003	8b 54 24 04	 mov	 edx, DWORD PTR _uPlayerId$[esp-4]
  00007	33 c0		 xor	 eax, eax
  00009	3b ca		 cmp	 ecx, edx
  0000b	0f 94 c0	 sete	 al
  0000e	c2 04 00	 ret	 4
?IsLeader@CParty@@QAEHK@Z ENDP				; CParty::IsLeader
_TEXT	ENDS
PUBLIC	?GetSizeofMember@CParty@@QAEHXZ			; CParty::GetSizeofMember
; Function compile flags: /Ogty
;	COMDAT ?GetSizeofMember@CParty@@QAEHXZ
_TEXT	SEGMENT
?GetSizeofMember@CParty@@QAEHXZ PROC NEAR		; CParty::GetSizeofMember, COMDAT
; _this$ = ecx

; 121  : 	int		GetSizeofMember()					{	return m_nSizeofMember;		}

  00000	8b 81 cc 01 00
	00		 mov	 eax, DWORD PTR [ecx+460]
  00006	c3		 ret	 0
?GetSizeofMember@CParty@@QAEHXZ ENDP			; CParty::GetSizeofMember
_TEXT	ENDS
PUBLIC	?GetLevel@CParty@@QAEHXZ			; CParty::GetLevel
; Function compile flags: /Ogty
;	COMDAT ?GetLevel@CParty@@QAEHXZ
_TEXT	SEGMENT
?GetLevel@CParty@@QAEHXZ PROC NEAR			; CParty::GetLevel, COMDAT
; _this$ = ecx

; 122  : 	int		GetLevel()							{	return m_nLevel;			}

  00000	8b 81 d0 01 00
	00		 mov	 eax, DWORD PTR [ecx+464]
  00006	c3		 ret	 0
?GetLevel@CParty@@QAEHXZ ENDP				; CParty::GetLevel
_TEXT	ENDS
PUBLIC	?GetPlayerId@CParty@@QAEKH@Z			; CParty::GetPlayerId
; Function compile flags: /Ogty
;	COMDAT ?GetPlayerId@CParty@@QAEKH@Z
_TEXT	SEGMENT
_i$ = 8							; size = 4
?GetPlayerId@CParty@@QAEKH@Z PROC NEAR			; CParty::GetPlayerId, COMDAT
; _this$ = ecx

; 125  : 	u_long	GetPlayerId( int i )	{	return m_aMember[i].m_uPlayerId;	}

  00000	8b 44 24 04	 mov	 eax, DWORD PTR _i$[esp-4]
  00004	6b c0 1c	 imul	 eax, 28			; 0000001cH
  00007	8b 44 08 28	 mov	 eax, DWORD PTR [eax+ecx+40]
  0000b	c2 04 00	 ret	 4
?GetPlayerId@CParty@@QAEKH@Z ENDP			; CParty::GetPlayerId
_TEXT	ENDS
PUBLIC	??0_GUILD_MEMBER_INFO@@QAE@XZ			; _GUILD_MEMBER_INFO::_GUILD_MEMBER_INFO
; Function compile flags: /Ogty
; File c:\documents and settings\test\mes documents\source\virtuos_v17\build\program\_common\guild.h
;	COMDAT ??0_GUILD_MEMBER_INFO@@QAE@XZ
_TEXT	SEGMENT
??0_GUILD_MEMBER_INFO@@QAE@XZ PROC NEAR			; _GUILD_MEMBER_INFO::_GUILD_MEMBER_INFO, COMDAT
; _this$ = ecx

; 252  : 	_GUILD_MEMBER_INFO() 

  00000	8b c1		 mov	 eax, ecx
  00002	c7 00 00 00 00
	00		 mov	 DWORD PTR [eax], 0

; 253  : 	{	idPlayer	= 0;
; 254  : #if __VER < 11 // __SYS_PLAYER_DATA
; 255  : 		nLevel	= nJob	= dwSex	= 0;
; 256  : #endif	// __SYS_PLAYER_DATA
; 257  : 		nMultiNo	= 100;

  00008	c6 40 04 64	 mov	 BYTE PTR [eax+4], 100	; 00000064H

; 258  : 	}

  0000c	c3		 ret	 0
??0_GUILD_MEMBER_INFO@@QAE@XZ ENDP			; _GUILD_MEMBER_INFO::_GUILD_MEMBER_INFO
_TEXT	ENDS
PUBLIC	?IsMember@CGuild@@QAEHK@Z			; CGuild::IsMember
EXTRN	?GetMember@CGuild@@QAEPAVCGuildMember@@K@Z:NEAR	; CGuild::GetMember
; Function compile flags: /Ogty
;	COMDAT ?IsMember@CGuild@@QAEHK@Z
_TEXT	SEGMENT
_idPlayer$ = 8						; size = 4
?IsMember@CGuild@@QAEHK@Z PROC NEAR			; CGuild::IsMember, COMDAT
; _this$ = ecx

; 308  : 	BOOL	IsMember( u_long idPlayer )		{	return( GetMember( idPlayer ) != NULL );	}

  00000	8b 44 24 04	 mov	 eax, DWORD PTR _idPlayer$[esp-4]
  00004	50		 push	 eax
  00005	e8 00 00 00 00	 call	 ?GetMember@CGuild@@QAEPAVCGuildMember@@K@Z ; CGuild::GetMember
  0000a	f7 d8		 neg	 eax
  0000c	1b c0		 sbb	 eax, eax
  0000e	f7 d8		 neg	 eax
  00010	c2 04 00	 ret	 4
?IsMember@CGuild@@QAEHK@Z ENDP				; CGuild::IsMember
_TEXT	ENDS
PUBLIC	?IsMaster@CGuild@@QAEHK@Z			; CGuild::IsMaster
; Function compile flags: /Ogty
;	COMDAT ?IsMaster@CGuild@@QAEHK@Z
_TEXT	SEGMENT
_idPlayer$ = 8						; size = 4
?IsMaster@CGuild@@QAEHK@Z PROC NEAR			; CGuild::IsMaster, COMDAT
; _this$ = ecx

; 309  : 	BOOL	IsMaster( u_long idPlayer )	{	return( m_idMaster == idPlayer );	}

  00000	8b 49 44	 mov	 ecx, DWORD PTR [ecx+68]
  00003	8b 54 24 04	 mov	 edx, DWORD PTR _idPlayer$[esp-4]
  00007	33 c0		 xor	 eax, eax
  00009	3b ca		 cmp	 ecx, edx
  0000b	0f 94 c0	 sete	 al
  0000e	c2 04 00	 ret	 4
?IsMaster@CGuild@@QAEHK@Z ENDP				; CGuild::IsMaster
_TEXT	ENDS
PUBLIC	?GetQuest@CGuild@@QAEPAU_GUILDQUEST@@H@Z	; CGuild::GetQuest
EXTRN	?FindQuest@CGuild@@QAEPAU_GUILDQUEST@@H@Z:NEAR	; CGuild::FindQuest
; Function compile flags: /Ogty
;	COMDAT ?GetQuest@CGuild@@QAEPAU_GUILDQUEST@@H@Z
_TEXT	SEGMENT
_nQuestId$ = 8						; size = 4
?GetQuest@CGuild@@QAEPAU_GUILDQUEST@@H@Z PROC NEAR	; CGuild::GetQuest, COMDAT
; _this$ = ecx

; 351  : 	PGUILDQUEST		GetQuest( int nQuestId )	{	return FindQuest( nQuestId );	}

  00000	e9 00 00 00 00	 jmp	 ?FindQuest@CGuild@@QAEPAU_GUILDQUEST@@H@Z ; CGuild::FindQuest
?GetQuest@CGuild@@QAEPAU_GUILDQUEST@@H@Z ENDP		; CGuild::GetQuest
_TEXT	ENDS
PUBLIC	?InterlockedExchangePointer@@YGPAXPAPAXPAX@Z	; InterlockedExchangePointer
EXTRN	__imp__InterlockedExchange@8:NEAR
; Function compile flags: /Ogty
; File c:\program files\microsoft visual studio .net 2003\vc7\atlmfc\include\atlconv.h
;	COMDAT ?InterlockedExchangePointer@@YGPAXPAPAXPAX@Z
_TEXT	SEGMENT
_pp$ = 8						; size = 4
_pNew$ = 12						; size = 4
?InterlockedExchangePointer@@YGPAXPAPAXPAX@Z PROC NEAR	; InterlockedExchangePointer, COMDAT

; 92   : 	return( reinterpret_cast<void*>(static_cast<LONG_PTR>(::InterlockedExchange(reinterpret_cast<LONG*>(pp), static_cast<LONG>(reinterpret_cast<LONG_PTR>(pNew))))) );

  00000	ff 25 00 00 00
	00		 jmp	 DWORD PTR __imp__InterlockedExchange@8
?InterlockedExchangePointer@@YGPAXPAPAXPAX@Z ENDP	; InterlockedExchangePointer
_TEXT	ENDS
PUBLIC	?_AtlGetThreadACPFake@ATL@@YGIXZ		; ATL::_AtlGetThreadACPFake
EXTRN	__imp__GetThreadLocale@0:NEAR
EXTRN	___security_cookie:DWORD
EXTRN	@__security_check_cookie@4:NEAR
EXTRN	__imp__GetACP@0:NEAR
EXTRN	__imp__GetLocaleInfoA@16:NEAR
; Function compile flags: /Ogty
;	COMDAT ?_AtlGetThreadACPFake@ATL@@YGIXZ
_TEXT	SEGMENT
_szACP$ = -12						; size = 7
__$ArrayPad$ = -4					; size = 4
__$ReturnAddr$ = 4					; size = 4
?_AtlGetThreadACPFake@ATL@@YGIXZ PROC NEAR		; ATL::_AtlGetThreadACPFake, COMDAT

; 101  : {

  00000	83 ec 0c	 sub	 esp, 12			; 0000000cH
  00003	a1 00 00 00 00	 mov	 eax, DWORD PTR ___security_cookie
  00008	33 c4		 xor	 eax, esp
  0000a	56		 push	 esi
  0000b	89 44 24 0c	 mov	 DWORD PTR __$ArrayPad$[esp+16], eax

; 102  : 	UINT nACP = 0;

  0000f	33 f6		 xor	 esi, esi

; 103  : 
; 104  : 	LCID lcidThread = ::GetThreadLocale();

  00011	ff 15 00 00 00
	00		 call	 DWORD PTR __imp__GetThreadLocale@0

; 105  : 
; 106  : 	char szACP[7];
; 107  : 	// GetLocaleInfoA will fail for a Unicode-only LCID, but those are only supported on 
; 108  : 	// Windows 2000.  Since Windows 2000 supports CP_THREAD_ACP, this code path is never
; 109  : 	// executed on Windows 2000.
; 110  : 	if (::GetLocaleInfoA(lcidThread, LOCALE_IDEFAULTANSICODEPAGE, szACP, 7) != 0)

  00017	6a 07		 push	 7
  00019	8d 4c 24 08	 lea	 ecx, DWORD PTR _szACP$[esp+20]
  0001d	51		 push	 ecx
  0001e	68 04 10 00 00	 push	 4100			; 00001004H
  00023	50		 push	 eax
  00024	ff 15 00 00 00
	00		 call	 DWORD PTR __imp__GetLocaleInfoA@16
  0002a	85 c0		 test	 eax, eax
  0002c	74 27		 je	 SHORT $L273131

; 111  : 	{
; 112  : 		char* pch = szACP;
; 113  : 		while (*pch != '\0')

  0002e	8a 44 24 04	 mov	 al, BYTE PTR _szACP$[esp+16]
  00032	84 c0		 test	 al, al
  00034	8d 4c 24 04	 lea	 ecx, DWORD PTR _szACP$[esp+16]
  00038	74 1b		 je	 SHORT $L273131
  0003a	8d 9b 00 00 00
	00		 npad	 6
$L38556:

; 114  : 		{
; 115  : 			nACP *= 10;
; 116  : 			nACP += *pch++ - '0';

  00040	0f be c0	 movsx	 eax, al
  00043	8d 14 b6	 lea	 edx, DWORD PTR [esi+esi*4]
  00046	41		 inc	 ecx
  00047	8d 74 50 d0	 lea	 esi, DWORD PTR [eax+edx*2-48]
  0004b	8a 01		 mov	 al, BYTE PTR [ecx]
  0004d	84 c0		 test	 al, al
  0004f	75 ef		 jne	 SHORT $L38556

; 117  : 		}
; 118  : 	}
; 119  : 	// Use the Default ANSI Code Page if we were unable to get the thread ACP or if one does not exist.
; 120  : 	if (nACP == 0)

  00051	85 f6		 test	 esi, esi
  00053	75 16		 jne	 SHORT $L273132
$L273131:

; 121  : 		nACP = ::GetACP();

  00055	ff 15 00 00 00
	00		 call	 DWORD PTR __imp__GetACP@0
  0005b	5e		 pop	 esi

; 122  : 
; 123  : 	return nACP;
; 124  : }

  0005c	8b 4c 24 08	 mov	 ecx, DWORD PTR __$ArrayPad$[esp+12]
  00060	33 cc		 xor	 ecx, esp
  00062	e8 00 00 00 00	 call	 @__security_check_cookie@4
  00067	83 c4 0c	 add	 esp, 12			; 0000000cH
  0006a	c3		 ret	 0
$L273132:
  0006b	8b 4c 24 0c	 mov	 ecx, DWORD PTR __$ArrayPad$[esp+16]
  0006f	8b c6		 mov	 eax, esi
  00071	5e		 pop	 esi
  00072	33 cc		 xor	 ecx, esp
  00074	e8 00 00 00 00	 call	 @__security_check_cookie@4
  00079	83 c4 0c	 add	 esp, 12			; 0000000cH
  0007c	c3		 ret	 0
?_AtlGetThreadACPFake@ATL@@YGIXZ ENDP			; ATL::_AtlGetThreadACPFake
_TEXT	ENDS
PUBLIC	?_AtlGetThreadACPReal@ATL@@YGIXZ		; ATL::_AtlGetThreadACPReal
; Function compile flags: /Ogty
;	COMDAT ?_AtlGetThreadACPReal@ATL@@YGIXZ
_TEXT	SEGMENT
?_AtlGetThreadACPReal@ATL@@YGIXZ PROC NEAR		; ATL::_AtlGetThreadACPReal, COMDAT

; 128  : 	return( CP_THREAD_ACP );

  00000	b8 03 00 00 00	 mov	 eax, 3

; 129  : }

  00005	c3		 ret	 0
?_AtlGetThreadACPReal@ATL@@YGIXZ ENDP			; ATL::_AtlGetThreadACPReal
_TEXT	ENDS
EXTRN	__imp__GetVersionExA@4:NEAR
; Function compile flags: /Ogty
;	COMDAT ?_AtlGetThreadACPThunk@ATL@@YGIXZ
_TEXT	SEGMENT
_ver$ = -152						; size = 148
__$ArrayPad$ = -4					; size = 4
__$ReturnAddr$ = 4					; size = 4
?_AtlGetThreadACPThunk@ATL@@YGIXZ PROC NEAR		; ATL::_AtlGetThreadACPThunk, COMDAT

; 134  : {

  00000	81 ec 98 00 00
	00		 sub	 esp, 152		; 00000098H
  00006	a1 00 00 00 00	 mov	 eax, DWORD PTR ___security_cookie
  0000b	33 c4		 xor	 eax, esp
  0000d	89 84 24 94 00
	00 00		 mov	 DWORD PTR __$ArrayPad$[esp+152], eax

; 135  : 	OSVERSIONINFO ver;
; 136  : 	ATLGETTHREADACP pfnGetThreadACP;
; 137  : 
; 138  : 	ver.dwOSVersionInfoSize = sizeof( ver );
; 139  : 	::GetVersionEx( &ver );

  00014	8d 04 24	 lea	 eax, DWORD PTR _ver$[esp+152]
  00017	50		 push	 eax
  00018	c7 44 24 04 94
	00 00 00	 mov	 DWORD PTR _ver$[esp+156], 148 ; 00000094H
  00020	ff 15 00 00 00
	00		 call	 DWORD PTR __imp__GetVersionExA@4

; 140  : 	if( (ver.dwPlatformId == VER_PLATFORM_WIN32_NT) && (ver.dwMajorVersion >= 5) )

  00026	83 7c 24 10 02	 cmp	 DWORD PTR _ver$[esp+168], 2
  0002b	75 0c		 jne	 SHORT $L38566
  0002d	83 7c 24 04 05	 cmp	 DWORD PTR _ver$[esp+156], 5

; 141  : 	{
; 142  : 		// On Win2K, CP_THREAD_ACP is supported
; 143  : 		pfnGetThreadACP = _AtlGetThreadACPReal;

  00032	b8 00 00 00 00	 mov	 eax, OFFSET FLAT:?_AtlGetThreadACPReal@ATL@@YGIXZ ; ATL::_AtlGetThreadACPReal
  00037	73 05		 jae	 SHORT $L38567
$L38566:

; 144  : 	}
; 145  : 	else
; 146  : 	{
; 147  : 		pfnGetThreadACP = _AtlGetThreadACPFake;

  00039	b8 00 00 00 00	 mov	 eax, OFFSET FLAT:?_AtlGetThreadACPFake@ATL@@YGIXZ ; ATL::_AtlGetThreadACPFake
$L38567:

; 148  : 	}
; 149  : 	InterlockedExchangePointer( reinterpret_cast< void** >(&g_pfnGetThreadACP), pfnGetThreadACP );

  0003e	50		 push	 eax
  0003f	68 00 00 00 00	 push	 OFFSET FLAT:?g_pfnGetThreadACP@ATL@@3P6GIXZA ; ATL::g_pfnGetThreadACP
  00044	ff 15 00 00 00
	00		 call	 DWORD PTR __imp__InterlockedExchange@8

; 150  : 
; 151  : 	return( g_pfnGetThreadACP() );

  0004a	ff 15 00 00 00
	00		 call	 DWORD PTR ?g_pfnGetThreadACP@ATL@@3P6GIXZA ; ATL::g_pfnGetThreadACP

; 152  : }

  00050	8b 8c 24 94 00
	00 00		 mov	 ecx, DWORD PTR __$ArrayPad$[esp+152]
  00057	33 cc		 xor	 ecx, esp
  00059	e8 00 00 00 00	 call	 @__security_check_cookie@4
  0005e	81 c4 98 00 00
	00		 add	 esp, 152		; 00000098H
  00064	c3		 ret	 0
?_AtlGetThreadACPThunk@ATL@@YGIXZ ENDP			; ATL::_AtlGetThreadACPThunk
_TEXT	ENDS
PUBLIC	?_AtlGetConversionACP@ATL@@YGIXZ		; ATL::_AtlGetConversionACP
; Function compile flags: /Ogty
;	COMDAT ?_AtlGetConversionACP@ATL@@YGIXZ
_TEXT	SEGMENT
?_AtlGetConversionACP@ATL@@YGIXZ PROC NEAR		; ATL::_AtlGetConversionACP, COMDAT

; 158  : 	return( g_pfnGetThreadACP() );

  00000	ff 25 00 00 00
	00		 jmp	 DWORD PTR ?g_pfnGetThreadACP@ATL@@3P6GIXZA ; ATL::g_pfnGetThreadACP
?_AtlGetConversionACP@ATL@@YGIXZ ENDP			; ATL::_AtlGetConversionACP
_TEXT	ENDS
PUBLIC	?AtlThrow@ATL@@YGXJ@Z				; ATL::AtlThrow
EXTRN	?AfxThrowMemoryException@@YGXXZ:NEAR		; AfxThrowMemoryException
EXTRN	?AfxThrowOleException@@YGXJ@Z:NEAR		; AfxThrowOleException
; Function compile flags: /Ogty
; File c:\program files\microsoft visual studio .net 2003\vc7\atlmfc\include\atlexcept.h
;	COMDAT ?AtlThrow@ATL@@YGXJ@Z
_TEXT	SEGMENT
_hr$ = 8						; size = 4
?AtlThrow@ATL@@YGXJ@Z PROC NEAR				; ATL::AtlThrow, COMDAT

; 62   : 	ATLTRACE(atlTraceException, 0, _T("AtlThrow: hr = 0x%x\n"), hr );
; 63   : #ifdef _AFX
; 64   : 	if( hr == E_OUTOFMEMORY )

  00000	8b 44 24 04	 mov	 eax, DWORD PTR _hr$[esp-4]
  00004	3d 0e 00 07 80	 cmp	 eax, -2147024882	; 8007000eH
  00009	75 05		 jne	 SHORT $L39168

; 65   : 	{
; 66   : 		AfxThrowMemoryException();

  0000b	e8 00 00 00 00	 call	 ?AfxThrowMemoryException@@YGXXZ ; AfxThrowMemoryException
$L273155:
$L39168:

; 67   : 	}
; 68   : 	else
; 69   : 	{
; 70   : 		AfxThrowOleException( hr );

  00010	50		 push	 eax
  00011	e8 00 00 00 00	 call	 ?AfxThrowOleException@@YGXJ@Z ; AfxThrowOleException
$L273156:
$L273154:
  00016	cc		 int	 3
?AtlThrow@ATL@@YGXJ@Z ENDP				; ATL::AtlThrow
_TEXT	ENDS
PUBLIC	?_AtlGetStringResourceImage@ATL@@YAPBUATLSTRINGRESOURCEIMAGE@1@PAUHINSTANCE__@@PAUHRSRC__@@I@Z ; ATL::_AtlGetStringResourceImage
EXTRN	__imp__LoadResource@8:NEAR
EXTRN	__imp__SizeofResource@8:NEAR
EXTRN	__imp__LockResource@4:NEAR
; Function compile flags: /Ogty
; File c:\program files\microsoft visual studio .net 2003\vc7\atlmfc\include\atlcore.h
;	COMDAT ?_AtlGetStringResourceImage@ATL@@YAPBUATLSTRINGRESOURCEIMAGE@1@PAUHINSTANCE__@@PAUHRSRC__@@I@Z
_TEXT	SEGMENT
_hInstance$ = 8						; size = 4
_hResource$ = 12					; size = 4
_id$ = 16						; size = 4
?_AtlGetStringResourceImage@ATL@@YAPBUATLSTRINGRESOURCEIMAGE@1@PAUHINSTANCE__@@PAUHRSRC__@@I@Z PROC NEAR ; ATL::_AtlGetStringResourceImage, COMDAT

; 239  : {

  00000	53		 push	 ebx

; 240  : 	const ATLSTRINGRESOURCEIMAGE* pImage;
; 241  : 	const ATLSTRINGRESOURCEIMAGE* pImageEnd;
; 242  : 	ULONG nResourceSize;
; 243  : 	HGLOBAL hGlobal;
; 244  : 	UINT iIndex;
; 245  : 
; 246  : 	hGlobal = ::LoadResource( hInstance, hResource );

  00001	8b 5c 24 08	 mov	 ebx, DWORD PTR _hInstance$[esp]
  00005	57		 push	 edi
  00006	8b 7c 24 10	 mov	 edi, DWORD PTR _hResource$[esp+4]
  0000a	57		 push	 edi
  0000b	53		 push	 ebx
  0000c	ff 15 00 00 00
	00		 call	 DWORD PTR __imp__LoadResource@8

; 247  : 	if( hGlobal == NULL )

  00012	85 c0		 test	 eax, eax
  00014	75 03		 jne	 SHORT $L39522
  00016	5f		 pop	 edi
  00017	5b		 pop	 ebx

; 272  : 	{
; 273  : 		return( NULL );
; 274  : 	}
; 275  : 
; 276  : 	return( pImage );
; 277  : }

  00018	c3		 ret	 0
$L39522:
  00019	56		 push	 esi

; 248  : 	{
; 249  : 		return( NULL );
; 250  : 	}
; 251  : 
; 252  : 	pImage = (const ATLSTRINGRESOURCEIMAGE*)::LockResource( hGlobal );

  0001a	50		 push	 eax
  0001b	ff 15 00 00 00
	00		 call	 DWORD PTR __imp__LockResource@4
  00021	8b f0		 mov	 esi, eax

; 253  : 	if( pImage == NULL )

  00023	85 f6		 test	 esi, esi
  00025	75 06		 jne	 SHORT $L39524
$L273162:
  00027	5e		 pop	 esi
  00028	5f		 pop	 edi

; 254  : 	{
; 255  : 		return( NULL );

  00029	33 c0		 xor	 eax, eax
  0002b	5b		 pop	 ebx

; 272  : 	{
; 273  : 		return( NULL );
; 274  : 	}
; 275  : 
; 276  : 	return( pImage );
; 277  : }

  0002c	c3		 ret	 0
$L39524:

; 256  : 	}
; 257  : 
; 258  : 	nResourceSize = ::SizeofResource( hInstance, hResource );

  0002d	57		 push	 edi
  0002e	53		 push	 ebx
  0002f	ff 15 00 00 00
	00		 call	 DWORD PTR __imp__SizeofResource@8

; 259  : 	pImageEnd = (const ATLSTRINGRESOURCEIMAGE*)(LPBYTE( pImage )+nResourceSize);
; 260  : 	iIndex = id&0x000f;

  00035	8b 4c 24 18	 mov	 ecx, DWORD PTR _id$[esp+8]
  00039	03 c6		 add	 eax, esi
  0003b	83 e1 0f	 and	 ecx, 15			; 0000000fH

; 261  : 
; 262  : 	while( (iIndex > 0) && (pImage < pImageEnd) )

  0003e	76 0e		 jbe	 SHORT $L39528
$L39527:
  00040	3b f0		 cmp	 esi, eax
  00042	73 e3		 jae	 SHORT $L273162

; 263  : 	{
; 264  : 		pImage = (const ATLSTRINGRESOURCEIMAGE*)(LPBYTE( pImage )+(sizeof( ATLSTRINGRESOURCEIMAGE )+(pImage->nLength*sizeof( WCHAR ))));
; 265  : 		iIndex--;

  00044	49		 dec	 ecx
  00045	0f b7 16	 movzx	 edx, WORD PTR [esi]
  00048	8d 74 56 02	 lea	 esi, DWORD PTR [esi+edx*2+2]
  0004c	75 f2		 jne	 SHORT $L39527
$L39528:

; 266  : 	}
; 267  : 	if( pImage >= pImageEnd )

  0004e	3b f0		 cmp	 esi, eax

; 268  : 	{
; 269  : 		return( NULL );

  00050	73 d5		 jae	 SHORT $L273162

; 270  : 	}
; 271  : 	if( pImage->nLength == 0 )

  00052	66 8b 06	 mov	 ax, WORD PTR [esi]
  00055	66 f7 d8	 neg	 ax
  00058	1b c0		 sbb	 eax, eax
  0005a	23 c6		 and	 eax, esi
  0005c	5e		 pop	 esi
  0005d	5f		 pop	 edi
  0005e	5b		 pop	 ebx

; 272  : 	{
; 273  : 		return( NULL );
; 274  : 	}
; 275  : 
; 276  : 	return( pImage );
; 277  : }

  0005f	c3		 ret	 0
?_AtlGetStringResourceImage@ATL@@YAPBUATLSTRINGRESOURCEIMAGE@1@PAUHINSTANCE__@@PAUHRSRC__@@I@Z ENDP ; ATL::_AtlGetStringResourceImage
_TEXT	ENDS
PUBLIC	?AtlGetStringResourceImage@ATL@@YAPBUATLSTRINGRESOURCEIMAGE@1@PAUHINSTANCE__@@I@Z ; ATL::AtlGetStringResourceImage
EXTRN	__imp__FindResourceA@12:NEAR
; Function compile flags: /Ogty
;	COMDAT ?AtlGetStringResourceImage@ATL@@YAPBUATLSTRINGRESOURCEIMAGE@1@PAUHINSTANCE__@@I@Z
_TEXT	SEGMENT
_hInstance$ = 8						; size = 4
_id$ = 12						; size = 4
?AtlGetStringResourceImage@ATL@@YAPBUATLSTRINGRESOURCEIMAGE@1@PAUHINSTANCE__@@I@Z PROC NEAR ; ATL::AtlGetStringResourceImage, COMDAT

; 280  : {

  00000	56		 push	 esi

; 281  : 	HRSRC hResource;
; 282  : 
; 283  : 	hResource = ::FindResource( hInstance, MAKEINTRESOURCE( ((id>>4)+1) ), RT_STRING );

  00001	8b 74 24 0c	 mov	 esi, DWORD PTR _id$[esp]
  00005	8b c6		 mov	 eax, esi
  00007	c1 e8 04	 shr	 eax, 4
  0000a	57		 push	 edi
  0000b	8b 7c 24 0c	 mov	 edi, DWORD PTR _hInstance$[esp+4]
  0000f	40		 inc	 eax
  00010	0f b7 c8	 movzx	 ecx, ax
  00013	6a 06		 push	 6
  00015	51		 push	 ecx
  00016	57		 push	 edi
  00017	ff 15 00 00 00
	00		 call	 DWORD PTR __imp__FindResourceA@12

; 284  : 	if( hResource == NULL )

  0001d	85 c0		 test	 eax, eax
  0001f	75 03		 jne	 SHORT $L39545
  00021	5f		 pop	 edi
  00022	5e		 pop	 esi

; 290  : }

  00023	c3		 ret	 0
$L39545:

; 285  : 	{
; 286  : 		return( NULL );
; 287  : 	}
; 288  : 
; 289  : 	return _AtlGetStringResourceImage( hInstance, hResource, id );

  00024	56		 push	 esi
  00025	50		 push	 eax
  00026	57		 push	 edi
  00027	e8 00 00 00 00	 call	 ?_AtlGetStringResourceImage@ATL@@YAPBUATLSTRINGRESOURCEIMAGE@1@PAUHINSTANCE__@@PAUHRSRC__@@I@Z ; ATL::_AtlGetStringResourceImage
  0002c	83 c4 0c	 add	 esp, 12			; 0000000cH
  0002f	5f		 pop	 edi
  00030	5e		 pop	 esi

; 290  : }

  00031	c3		 ret	 0
?AtlGetStringResourceImage@ATL@@YAPBUATLSTRINGRESOURCEIMAGE@1@PAUHINSTANCE__@@I@Z ENDP ; ATL::AtlGetStringResourceImage
_TEXT	ENDS
PUBLIC	?data@CStringData@ATL@@QAEPAXXZ			; ATL::CStringData::data
; Function compile flags: /Ogty
; File c:\program files\microsoft visual studio .net 2003\vc7\atlmfc\include\atlsimpstr.h
;	COMDAT ?data@CStringData@ATL@@QAEPAXXZ
_TEXT	SEGMENT
?data@CStringData@ATL@@QAEPAXXZ PROC NEAR		; ATL::CStringData::data, COMDAT
; _this$ = ecx

; 66   : 		return (this+1);

  00000	8d 41 10	 lea	 eax, DWORD PTR [ecx+16]

; 67   : 	}

  00003	c3		 ret	 0
?data@CStringData@ATL@@QAEPAXXZ ENDP			; ATL::CStringData::data
_TEXT	ENDS
PUBLIC	?AddRef@CStringData@ATL@@QAEXXZ			; ATL::CStringData::AddRef
; Function compile flags: /Ogty
;	COMDAT ?AddRef@CStringData@ATL@@QAEXXZ
_TEXT	SEGMENT
?AddRef@CStringData@ATL@@QAEXXZ PROC NEAR		; ATL::CStringData::AddRef, COMDAT
; _this$ = ecx

; 71   : 		ATLASSERT(nRefs > 0);
; 72   : 		_InterlockedIncrement(&nRefs);

  00000	83 c1 0c	 add	 ecx, 12			; 0000000cH
  00003	b8 01 00 00 00	 mov	 eax, 1
  00008	f0 0f c1 01	 lock	  xadd	 DWORD PTR [ecx], eax

; 73   : 	}

  0000c	c3		 ret	 0
?AddRef@CStringData@ATL@@QAEXXZ ENDP			; ATL::CStringData::AddRef
_TEXT	ENDS
PUBLIC	?IsLocked@CStringData@ATL@@QBE_NXZ		; ATL::CStringData::IsLocked
; Function compile flags: /Ogty
;	COMDAT ?IsLocked@CStringData@ATL@@QBE_NXZ
_TEXT	SEGMENT
?IsLocked@CStringData@ATL@@QBE_NXZ PROC NEAR		; ATL::CStringData::IsLocked, COMDAT
; _this$ = ecx

; 76   : 		return nRefs < 0;

  00000	8b 51 0c	 mov	 edx, DWORD PTR [ecx+12]
  00003	33 c0		 xor	 eax, eax
  00005	85 d2		 test	 edx, edx
  00007	0f 9c c0	 setl	 al

; 77   : 	}

  0000a	c3		 ret	 0
?IsLocked@CStringData@ATL@@QBE_NXZ ENDP			; ATL::CStringData::IsLocked
_TEXT	ENDS
PUBLIC	?IsShared@CStringData@ATL@@QBE_NXZ		; ATL::CStringData::IsShared
; Function compile flags: /Ogty
;	COMDAT ?IsShared@CStringData@ATL@@QBE_NXZ
_TEXT	SEGMENT
?IsShared@CStringData@ATL@@QBE_NXZ PROC NEAR		; ATL::CStringData::IsShared, COMDAT
; _this$ = ecx

; 80   : 		return( nRefs > 1 ); 

  00000	8b 51 0c	 mov	 edx, DWORD PTR [ecx+12]
  00003	33 c0		 xor	 eax, eax
  00005	83 fa 01	 cmp	 edx, 1
  00008	0f 9f c0	 setg	 al

; 81   : 	}

  0000b	c3		 ret	 0
?IsShared@CStringData@ATL@@QBE_NXZ ENDP			; ATL::CStringData::IsShared
_TEXT	ENDS
PUBLIC	?Release@CStringData@ATL@@QAEXXZ		; ATL::CStringData::Release
; Function compile flags: /Ogty
;	COMDAT ?Release@CStringData@ATL@@QAEXXZ
_TEXT	SEGMENT
?Release@CStringData@ATL@@QAEXXZ PROC NEAR		; ATL::CStringData::Release, COMDAT
; _this$ = ecx

; 93   : 		ATLASSERT( nRefs != 0 );
; 94   : 
; 95   : 		if( _InterlockedDecrement( &nRefs ) <= 0 )

  00000	8d 41 0c	 lea	 eax, DWORD PTR [ecx+12]
  00003	83 ca ff	 or	 edx, -1
  00006	f0 0f c1 10	 lock	  xadd	 DWORD PTR [eax], edx
  0000a	4a		 dec	 edx
  0000b	85 d2		 test	 edx, edx
  0000d	7f 0a		 jg	 SHORT $L39885

; 96   : 		{
; 97   : 			pStringMgr->Free( this );

  0000f	8b 01		 mov	 eax, DWORD PTR [ecx]
  00011	8b 10		 mov	 edx, DWORD PTR [eax]
  00013	51		 push	 ecx
  00014	8b c8		 mov	 ecx, eax
  00016	ff 52 04	 call	 DWORD PTR [edx+4]
$L39885:

; 98   : 		}
; 99   : 	}

  00019	c3		 ret	 0
?Release@CStringData@ATL@@QAEXXZ ENDP			; ATL::CStringData::Release
_TEXT	ENDS
PUBLIC	?HasKey@@YAHPAUNPCDIALOG_INFO@@PBD@Z		; HasKey
EXTRN	?Find@CWorldDialog@@QAEHPBD0@Z:NEAR		; CWorldDialog::Find
EXTRN	?GetInstance@CWorldDialog@@SAAAV1@XZ:NEAR	; CWorldDialog::GetInstance
; Function compile flags: /Ogty
; File c:\documents and settings\test\mes documents\source\virtuos_v17\build\program\_common\scriptlib.cpp
;	COMDAT ?HasKey@@YAHPAUNPCDIALOG_INFO@@PBD@Z
_TEXT	SEGMENT
_pInfo$ = 8						; size = 4
_szKey$ = 12						; size = 4
?HasKey@@YAHPAUNPCDIALOG_INFO@@PBD@Z PROC NEAR		; HasKey, COMDAT

; 34   : 	return CWorldDialog::GetInstance().Find( pInfo->GetName(), szKey );

  00000	8b 44 24 08	 mov	 eax, DWORD PTR _szKey$[esp-4]
  00004	8b 4c 24 04	 mov	 ecx, DWORD PTR _pInfo$[esp-4]
  00008	8b 11		 mov	 edx, DWORD PTR [ecx]
  0000a	50		 push	 eax
  0000b	ff 52 20	 call	 DWORD PTR [edx+32]
  0000e	50		 push	 eax
  0000f	e8 00 00 00 00	 call	 ?GetInstance@CWorldDialog@@SAAAV1@XZ ; CWorldDialog::GetInstance
  00014	8b c8		 mov	 ecx, eax
  00016	e8 00 00 00 00	 call	 ?Find@CWorldDialog@@QAEHPBD0@Z ; CWorldDialog::Find

; 35   : }

  0001b	c3		 ret	 0
?HasKey@@YAHPAUNPCDIALOG_INFO@@PBD@Z ENDP		; HasKey
_TEXT	ENDS
PUBLIC	?SayName@@YGHPAUNPCDIALOG_INFO@@@Z		; SayName
; Function compile flags: /Ogty
;	COMDAT ?SayName@@YGHPAUNPCDIALOG_INFO@@@Z
_TEXT	SEGMENT
_pInfo$ = 8						; size = 4
?SayName@@YGHPAUNPCDIALOG_INFO@@@Z PROC NEAR		; SayName, COMDAT

; 39   : 	return 1;

  00000	b8 01 00 00 00	 mov	 eax, 1

; 40   : }

  00005	c2 04 00	 ret	 4
?SayName@@YGHPAUNPCDIALOG_INFO@@@Z ENDP			; SayName
_TEXT	ENDS
PUBLIC	?SpeakName@@YGHPAUNPCDIALOG_INFO@@@Z		; SpeakName
; Function compile flags: /Ogty
;	COMDAT ?SpeakName@@YGHPAUNPCDIALOG_INFO@@@Z
_TEXT	SEGMENT
_pInfo$ = 8						; size = 4
?SpeakName@@YGHPAUNPCDIALOG_INFO@@@Z PROC NEAR		; SpeakName, COMDAT

; 54   : 	return 1;

  00000	b8 01 00 00 00	 mov	 eax, 1

; 55   : }

  00005	c2 04 00	 ret	 4
?SpeakName@@YGHPAUNPCDIALOG_INFO@@@Z ENDP		; SpeakName
_TEXT	ENDS
PUBLIC	?GetVal@@YGHPAUNPCDIALOG_INFO@@@Z		; GetVal
; Function compile flags: /Ogty
;	COMDAT ?GetVal@@YGHPAUNPCDIALOG_INFO@@@Z
_TEXT	SEGMENT
_pInfo$ = 8						; size = 4
?GetVal@@YGHPAUNPCDIALOG_INFO@@@Z PROC NEAR		; GetVal, COMDAT

; 59   : 	return pInfo->GetReturn();

  00000	8b 4c 24 04	 mov	 ecx, DWORD PTR _pInfo$[esp-4]
  00004	8b 01		 mov	 eax, DWORD PTR [ecx]
  00006	ff 10		 call	 DWORD PTR [eax]

; 60   : }

  00008	c2 04 00	 ret	 4
?GetVal@@YGHPAUNPCDIALOG_INFO@@@Z ENDP			; GetVal
_TEXT	ENDS
PUBLIC	?GetSrcId@@YGHPAUNPCDIALOG_INFO@@@Z		; GetSrcId
; Function compile flags: /Ogty
;	COMDAT ?GetSrcId@@YGHPAUNPCDIALOG_INFO@@@Z
_TEXT	SEGMENT
_pInfo$ = 8						; size = 4
?GetSrcId@@YGHPAUNPCDIALOG_INFO@@@Z PROC NEAR		; GetSrcId, COMDAT

; 64   : 	return pInfo->GetPcId();

  00000	8b 4c 24 04	 mov	 ecx, DWORD PTR _pInfo$[esp-4]
  00004	8b 01		 mov	 eax, DWORD PTR [ecx]
  00006	ff 50 18	 call	 DWORD PTR [eax+24]

; 65   : }

  00009	c2 04 00	 ret	 4
?GetSrcId@@YGHPAUNPCDIALOG_INFO@@@Z ENDP		; GetSrcId
_TEXT	ENDS
PUBLIC	?GetDstId@@YGHPAUNPCDIALOG_INFO@@@Z		; GetDstId
; Function compile flags: /Ogty
;	COMDAT ?GetDstId@@YGHPAUNPCDIALOG_INFO@@@Z
_TEXT	SEGMENT
_pInfo$ = 8						; size = 4
?GetDstId@@YGHPAUNPCDIALOG_INFO@@@Z PROC NEAR		; GetDstId, COMDAT

; 69   : 	return pInfo->GetNpcId();

  00000	8b 4c 24 04	 mov	 ecx, DWORD PTR _pInfo$[esp-4]
  00004	8b 01		 mov	 eax, DWORD PTR [ecx]
  00006	ff 50 14	 call	 DWORD PTR [eax+20]

; 70   : }

  00009	c2 04 00	 ret	 4
?GetDstId@@YGHPAUNPCDIALOG_INFO@@@Z ENDP		; GetDstId
_TEXT	ENDS
PUBLIC	?NpcId@@YGHPAUNPCDIALOG_INFO@@@Z		; NpcId
; Function compile flags: /Ogty
;	COMDAT ?NpcId@@YGHPAUNPCDIALOG_INFO@@@Z
_TEXT	SEGMENT
_pInfo$ = 8						; size = 4
?NpcId@@YGHPAUNPCDIALOG_INFO@@@Z PROC NEAR		; NpcId, COMDAT

; 74   : 	return GetDstId( pInfo );

  00000	8b 4c 24 04	 mov	 ecx, DWORD PTR _pInfo$[esp-4]
  00004	8b 01		 mov	 eax, DWORD PTR [ecx]
  00006	ff 50 14	 call	 DWORD PTR [eax+20]

; 75   : }

  00009	c2 04 00	 ret	 4
?NpcId@@YGHPAUNPCDIALOG_INFO@@@Z ENDP			; NpcId
_TEXT	ENDS
PUBLIC	?PcId@@YGHPAUNPCDIALOG_INFO@@@Z			; PcId
; Function compile flags: /Ogty
;	COMDAT ?PcId@@YGHPAUNPCDIALOG_INFO@@@Z
_TEXT	SEGMENT
_pInfo$ = 8						; size = 4
?PcId@@YGHPAUNPCDIALOG_INFO@@@Z PROC NEAR		; PcId, COMDAT

; 79   : 	return GetSrcId( pInfo );

  00000	8b 4c 24 04	 mov	 ecx, DWORD PTR _pInfo$[esp-4]
  00004	8b 01		 mov	 eax, DWORD PTR [ecx]
  00006	ff 50 18	 call	 DWORD PTR [eax+24]

; 80   : }

  00009	c2 04 00	 ret	 4
?PcId@@YGHPAUNPCDIALOG_INFO@@@Z ENDP			; PcId
_TEXT	ENDS
PUBLIC	?GetGValue_@@YGHPAUNPCDIALOG_INFO@@@Z		; GetGValue_
; Function compile flags: /Ogty
;	COMDAT ?GetGValue_@@YGHPAUNPCDIALOG_INFO@@@Z
_TEXT	SEGMENT
_pInfo$ = 8						; size = 4
?GetGValue_@@YGHPAUNPCDIALOG_INFO@@@Z PROC NEAR		; GetGValue_, COMDAT

; 84   : 	return 1;

  00000	b8 01 00 00 00	 mov	 eax, 1

; 85   : }

  00005	c2 04 00	 ret	 4
?GetGValue_@@YGHPAUNPCDIALOG_INFO@@@Z ENDP		; GetGValue_
_TEXT	ENDS
PUBLIC	?SetGValue@@YGHPAUNPCDIALOG_INFO@@@Z		; SetGValue
; Function compile flags: /Ogty
;	COMDAT ?SetGValue@@YGHPAUNPCDIALOG_INFO@@@Z
_TEXT	SEGMENT
_pInfo$ = 8						; size = 4
?SetGValue@@YGHPAUNPCDIALOG_INFO@@@Z PROC NEAR		; SetGValue, COMDAT

; 88   : 	return 1;

  00000	b8 01 00 00 00	 mov	 eax, 1

; 89   : }

  00005	c2 04 00	 ret	 4
?SetGValue@@YGHPAUNPCDIALOG_INFO@@@Z ENDP		; SetGValue
_TEXT	ENDS
PUBLIC	?AddGValue@@YGHPAUNPCDIALOG_INFO@@@Z		; AddGValue
; Function compile flags: /Ogty
;	COMDAT ?AddGValue@@YGHPAUNPCDIALOG_INFO@@@Z
_TEXT	SEGMENT
_pInfo$ = 8						; size = 4
?AddGValue@@YGHPAUNPCDIALOG_INFO@@@Z PROC NEAR		; AddGValue, COMDAT

; 92   : 	return 1;

  00000	b8 01 00 00 00	 mov	 eax, 1

; 93   : }

  00005	c2 04 00	 ret	 4
?AddGValue@@YGHPAUNPCDIALOG_INFO@@@Z ENDP		; AddGValue
_TEXT	ENDS
PUBLIC	?RemoveQuest@@YGHPAUNPCDIALOG_INFO@@H@Z		; RemoveQuest
EXTRN	?__RemoveQuest@@YAHHH@Z:NEAR			; __RemoveQuest
; Function compile flags: /Ogty
;	COMDAT ?RemoveQuest@@YGHPAUNPCDIALOG_INFO@@H@Z
_TEXT	SEGMENT
_pInfo$ = 8						; size = 4
_nQuest$ = 12						; size = 4
?RemoveQuest@@YGHPAUNPCDIALOG_INFO@@H@Z PROC NEAR	; RemoveQuest, COMDAT

; 176  : 	return __RemoveQuest( pInfo->GetPcId(), nQuest );

  00000	8b 44 24 08	 mov	 eax, DWORD PTR _nQuest$[esp-4]
  00004	8b 4c 24 04	 mov	 ecx, DWORD PTR _pInfo$[esp-4]
  00008	8b 11		 mov	 edx, DWORD PTR [ecx]
  0000a	50		 push	 eax
  0000b	ff 52 18	 call	 DWORD PTR [edx+24]
  0000e	50		 push	 eax
  0000f	e8 00 00 00 00	 call	 ?__RemoveQuest@@YAHHH@Z	; __RemoveQuest
  00014	83 c4 08	 add	 esp, 8

; 177  : }

  00017	c2 08 00	 ret	 8
?RemoveQuest@@YGHPAUNPCDIALOG_INFO@@H@Z ENDP		; RemoveQuest
_TEXT	ENDS
PUBLIC	?RemoveAllKey@@YGHPAUNPCDIALOG_INFO@@@Z		; RemoveAllKey
EXTRN	?__RemoveAllKey@@YAHH@Z:NEAR			; __RemoveAllKey
; Function compile flags: /Ogty
;	COMDAT ?RemoveAllKey@@YGHPAUNPCDIALOG_INFO@@@Z
_TEXT	SEGMENT
_pInfo$ = 8						; size = 4
?RemoveAllKey@@YGHPAUNPCDIALOG_INFO@@@Z PROC NEAR	; RemoveAllKey, COMDAT

; 181  : 	__RemoveAllKey( pInfo->GetPcId() );

  00000	8b 4c 24 04	 mov	 ecx, DWORD PTR _pInfo$[esp-4]
  00004	8b 01		 mov	 eax, DWORD PTR [ecx]
  00006	ff 50 18	 call	 DWORD PTR [eax+24]
  00009	50		 push	 eax
  0000a	e8 00 00 00 00	 call	 ?__RemoveAllKey@@YAHH@Z	; __RemoveAllKey
  0000f	83 c4 04	 add	 esp, 4

; 182  : 	return 1;

  00012	b8 01 00 00 00	 mov	 eax, 1

; 183  : }

  00017	c2 04 00	 ret	 4
?RemoveAllKey@@YGHPAUNPCDIALOG_INFO@@@Z ENDP		; RemoveAllKey
_TEXT	ENDS
PUBLIC	?SayQuest@@YGHPAUNPCDIALOG_INFO@@HH@Z		; SayQuest
EXTRN	?__SayQuest@@YAHHHH@Z:NEAR			; __SayQuest
; Function compile flags: /Ogty
;	COMDAT ?SayQuest@@YGHPAUNPCDIALOG_INFO@@HH@Z
_TEXT	SEGMENT
_pInfo$ = 8						; size = 4
_nQuest$ = 12						; size = 4
_nDialog$ = 16						; size = 4
?SayQuest@@YGHPAUNPCDIALOG_INFO@@HH@Z PROC NEAR		; SayQuest, COMDAT

; 187  : 	__SayQuest( pInfo->GetPcId(), nQuest, nDialog );

  00000	8b 44 24 0c	 mov	 eax, DWORD PTR _nDialog$[esp-4]
  00004	8b 4c 24 08	 mov	 ecx, DWORD PTR _nQuest$[esp-4]
  00008	50		 push	 eax
  00009	51		 push	 ecx
  0000a	8b 4c 24 0c	 mov	 ecx, DWORD PTR _pInfo$[esp+4]
  0000e	8b 11		 mov	 edx, DWORD PTR [ecx]
  00010	ff 52 18	 call	 DWORD PTR [edx+24]
  00013	50		 push	 eax
  00014	e8 00 00 00 00	 call	 ?__SayQuest@@YAHHHH@Z	; __SayQuest
  00019	83 c4 0c	 add	 esp, 12			; 0000000cH

; 188  : 	return 1;

  0001c	b8 01 00 00 00	 mov	 eax, 1

; 189  : }

  00021	c2 0c 00	 ret	 12			; 0000000cH
?SayQuest@@YGHPAUNPCDIALOG_INFO@@HH@Z ENDP		; SayQuest
_TEXT	ENDS
PUBLIC	?BeginQuest@@YGHPAUNPCDIALOG_INFO@@H@Z		; BeginQuest
EXTRN	?__RunQuest@@YAHHHH@Z:NEAR			; __RunQuest
; Function compile flags: /Ogty
;	COMDAT ?BeginQuest@@YGHPAUNPCDIALOG_INFO@@H@Z
_TEXT	SEGMENT
_pInfo$ = 8						; size = 4
_nQuest$ = 12						; size = 4
?BeginQuest@@YGHPAUNPCDIALOG_INFO@@H@Z PROC NEAR	; BeginQuest, COMDAT

; 193  : 	return __RunQuest( pInfo->GetPcId(), pInfo->GetNpcId(), nQuest );

  00000	8b 44 24 08	 mov	 eax, DWORD PTR _nQuest$[esp-4]
  00004	56		 push	 esi
  00005	8b 74 24 08	 mov	 esi, DWORD PTR _pInfo$[esp]
  00009	8b 16		 mov	 edx, DWORD PTR [esi]
  0000b	50		 push	 eax
  0000c	8b ce		 mov	 ecx, esi
  0000e	ff 52 14	 call	 DWORD PTR [edx+20]
  00011	50		 push	 eax
  00012	8b 06		 mov	 eax, DWORD PTR [esi]
  00014	8b ce		 mov	 ecx, esi
  00016	ff 50 18	 call	 DWORD PTR [eax+24]
  00019	50		 push	 eax
  0001a	e8 00 00 00 00	 call	 ?__RunQuest@@YAHHHH@Z	; __RunQuest
  0001f	83 c4 0c	 add	 esp, 12			; 0000000cH
  00022	5e		 pop	 esi

; 194  : }

  00023	c2 08 00	 ret	 8
?BeginQuest@@YGHPAUNPCDIALOG_INFO@@H@Z ENDP		; BeginQuest
_TEXT	ENDS
PUBLIC	?EndQuest@@YGHPAUNPCDIALOG_INFO@@H@Z		; EndQuest
EXTRN	?__EndQuest@@YAHHHH@Z:NEAR			; __EndQuest
; Function compile flags: /Ogty
;	COMDAT ?EndQuest@@YGHPAUNPCDIALOG_INFO@@H@Z
_TEXT	SEGMENT
_pInfo$ = 8						; size = 4
_nQuest$ = 12						; size = 4
?EndQuest@@YGHPAUNPCDIALOG_INFO@@H@Z PROC NEAR		; EndQuest, COMDAT

; 198  : 	return __EndQuest( pInfo->GetPcId(), nQuest, FALSE );

  00000	8b 44 24 08	 mov	 eax, DWORD PTR _nQuest$[esp-4]
  00004	8b 4c 24 04	 mov	 ecx, DWORD PTR _pInfo$[esp-4]
  00008	8b 11		 mov	 edx, DWORD PTR [ecx]
  0000a	6a 00		 push	 0
  0000c	50		 push	 eax
  0000d	ff 52 18	 call	 DWORD PTR [edx+24]
  00010	50		 push	 eax
  00011	e8 00 00 00 00	 call	 ?__EndQuest@@YAHHHH@Z	; __EndQuest
  00016	83 c4 0c	 add	 esp, 12			; 0000000cH

; 199  : }

  00019	c2 08 00	 ret	 8
?EndQuest@@YGHPAUNPCDIALOG_INFO@@H@Z ENDP		; EndQuest
_TEXT	ENDS
PUBLIC	?CreateMover@@YGHPAUNPCDIALOG_INFO@@@Z		; CreateMover
; Function compile flags: /Ogty
;	COMDAT ?CreateMover@@YGHPAUNPCDIALOG_INFO@@@Z
_TEXT	SEGMENT
_pInfo$ = 8						; size = 4
?CreateMover@@YGHPAUNPCDIALOG_INFO@@@Z PROC NEAR	; CreateMover, COMDAT

; 225  : 	return 1;

  00000	b8 01 00 00 00	 mov	 eax, 1

; 226  : }     

  00005	c2 04 00	 ret	 4
?CreateMover@@YGHPAUNPCDIALOG_INFO@@@Z ENDP		; CreateMover
_TEXT	ENDS
PUBLIC	?CreateChar@@YGHPAUNPCDIALOG_INFO@@@Z		; CreateChar
; Function compile flags: /Ogty
;	COMDAT ?CreateChar@@YGHPAUNPCDIALOG_INFO@@@Z
_TEXT	SEGMENT
_pInfo$ = 8						; size = 4
?CreateChar@@YGHPAUNPCDIALOG_INFO@@@Z PROC NEAR		; CreateChar, COMDAT

; 230  : 	return 1;

  00000	b8 01 00 00 00	 mov	 eax, 1

; 231  : }    

  00005	c2 04 00	 ret	 4
?CreateChar@@YGHPAUNPCDIALOG_INFO@@@Z ENDP		; CreateChar
_TEXT	ENDS
PUBLIC	?RemoveMover@@YGHPAUNPCDIALOG_INFO@@@Z		; RemoveMover
; Function compile flags: /Ogty
;	COMDAT ?RemoveMover@@YGHPAUNPCDIALOG_INFO@@@Z
_TEXT	SEGMENT
_pInfo$ = 8						; size = 4
?RemoveMover@@YGHPAUNPCDIALOG_INFO@@@Z PROC NEAR	; RemoveMover, COMDAT

; 235  : 	return 1;

  00000	b8 01 00 00 00	 mov	 eax, 1

; 236  : }   

  00005	c2 04 00	 ret	 4
?RemoveMover@@YGHPAUNPCDIALOG_INFO@@@Z ENDP		; RemoveMover
_TEXT	ENDS
PUBLIC	?GetDay@@YGHPAUNPCDIALOG_INFO@@@Z		; GetDay
EXTRN	?g_GameTimer@@3VCGameTimer@@A:BYTE		; g_GameTimer
; Function compile flags: /Ogty
;	COMDAT ?GetDay@@YGHPAUNPCDIALOG_INFO@@@Z
_TEXT	SEGMENT
_pInfo$ = 8						; size = 4
?GetDay@@YGHPAUNPCDIALOG_INFO@@@Z PROC NEAR		; GetDay, COMDAT

; 240  : 	return g_GameTimer.m_nDay;

  00000	a1 20 00 00 00	 mov	 eax, DWORD PTR ?g_GameTimer@@3VCGameTimer@@A+32

; 241  : }        

  00005	c2 04 00	 ret	 4
?GetDay@@YGHPAUNPCDIALOG_INFO@@@Z ENDP			; GetDay
_TEXT	ENDS
PUBLIC	?GetMin@@YGHPAUNPCDIALOG_INFO@@@Z		; GetMin
; Function compile flags: /Ogty
;	COMDAT ?GetMin@@YGHPAUNPCDIALOG_INFO@@@Z
_TEXT	SEGMENT
_pInfo$ = 8						; size = 4
?GetMin@@YGHPAUNPCDIALOG_INFO@@@Z PROC NEAR		; GetMin, COMDAT

; 245  : 	return g_GameTimer.m_nMin;

  00000	a1 18 00 00 00	 mov	 eax, DWORD PTR ?g_GameTimer@@3VCGameTimer@@A+24

; 246  : }      

  00005	c2 04 00	 ret	 4
?GetMin@@YGHPAUNPCDIALOG_INFO@@@Z ENDP			; GetMin
_TEXT	ENDS
PUBLIC	?GetHour@@YGHPAUNPCDIALOG_INFO@@@Z		; GetHour
; Function compile flags: /Ogty
;	COMDAT ?GetHour@@YGHPAUNPCDIALOG_INFO@@@Z
_TEXT	SEGMENT
_pInfo$ = 8						; size = 4
?GetHour@@YGHPAUNPCDIALOG_INFO@@@Z PROC NEAR		; GetHour, COMDAT

; 250  : 	return g_GameTimer.m_nHour;

  00000	a1 1c 00 00 00	 mov	 eax, DWORD PTR ?g_GameTimer@@3VCGameTimer@@A+28

; 251  : }       

  00005	c2 04 00	 ret	 4
?GetHour@@YGHPAUNPCDIALOG_INFO@@@Z ENDP			; GetHour
_TEXT	ENDS
PUBLIC	?SetTimer@@YGHPAUNPCDIALOG_INFO@@@Z		; SetTimer
; Function compile flags: /Ogty
;	COMDAT ?SetTimer@@YGHPAUNPCDIALOG_INFO@@@Z
_TEXT	SEGMENT
_pInfo$ = 8						; size = 4
?SetTimer@@YGHPAUNPCDIALOG_INFO@@@Z PROC NEAR		; SetTimer, COMDAT

; 255  : 	return 1;

  00000	b8 01 00 00 00	 mov	 eax, 1

; 256  : }

  00005	c2 04 00	 ret	 4
?SetTimer@@YGHPAUNPCDIALOG_INFO@@@Z ENDP		; SetTimer
_TEXT	ENDS
PUBLIC	?IsTimeOut@@YGHPAUNPCDIALOG_INFO@@@Z		; IsTimeOut
; Function compile flags: /Ogty
;	COMDAT ?IsTimeOut@@YGHPAUNPCDIALOG_INFO@@@Z
_TEXT	SEGMENT
_pInfo$ = 8						; size = 4
?IsTimeOut@@YGHPAUNPCDIALOG_INFO@@@Z PROC NEAR		; IsTimeOut, COMDAT

; 259  : 	return 1;

  00000	b8 01 00 00 00	 mov	 eax, 1

; 260  : }

  00005	c2 04 00	 ret	 4
?IsTimeOut@@YGHPAUNPCDIALOG_INFO@@@Z ENDP		; IsTimeOut
_TEXT	ENDS
PUBLIC	?LaunchQuest@@YGHPAUNPCDIALOG_INFO@@@Z		; LaunchQuest
EXTRN	?__QuestEnd@@YAXHHAAHHH@Z:NEAR			; __QuestEnd
; Function compile flags: /Ogty
;	COMDAT ?LaunchQuest@@YGHPAUNPCDIALOG_INFO@@@Z
_TEXT	SEGMENT
_pInfo$ = 8						; size = 4
?LaunchQuest@@YGHPAUNPCDIALOG_INFO@@@Z PROC NEAR	; LaunchQuest, COMDAT

; 263  : {

  00000	56		 push	 esi

; 264  : 	int* p = pInfo->GetGlobal();

  00001	8b 74 24 08	 mov	 esi, DWORD PTR _pInfo$[esp]
  00005	8b 06		 mov	 eax, DWORD PTR [esi]
  00007	8b ce		 mov	 ecx, esi
  00009	ff 50 1c	 call	 DWORD PTR [eax+28]

; 265  : 	*p = 0;
; 266  : 	__QuestEnd( pInfo->GetPcId(), pInfo->GetNpcId(), *p );

  0000c	6a 00		 push	 0
  0000e	6a 00		 push	 0
  00010	c7 00 00 00 00
	00		 mov	 DWORD PTR [eax], 0
  00016	8b 16		 mov	 edx, DWORD PTR [esi]
  00018	50		 push	 eax
  00019	8b ce		 mov	 ecx, esi
  0001b	ff 52 14	 call	 DWORD PTR [edx+20]
  0001e	50		 push	 eax
  0001f	8b 06		 mov	 eax, DWORD PTR [esi]
  00021	8b ce		 mov	 ecx, esi
  00023	ff 50 18	 call	 DWORD PTR [eax+24]
  00026	50		 push	 eax
  00027	e8 00 00 00 00	 call	 ?__QuestEnd@@YAXHHAAHHH@Z ; __QuestEnd
  0002c	83 c4 14	 add	 esp, 20			; 00000014H

; 267  : 	return 1;

  0002f	b8 01 00 00 00	 mov	 eax, 1
  00034	5e		 pop	 esi

; 268  : }

  00035	c2 04 00	 ret	 4
?LaunchQuest@@YGHPAUNPCDIALOG_INFO@@@Z ENDP		; LaunchQuest
_TEXT	ENDS
PUBLIC	?GetQuestState@@YGHPAUNPCDIALOG_INFO@@H@Z	; GetQuestState
EXTRN	?GetQuest@CMover@@QAEPAUtagQuest@@H@Z:NEAR	; CMover::GetQuest
EXTRN	?MakeCompleteQuest@CMover@@QAEHHPAUtagQuest@@@Z:NEAR ; CMover::MakeCompleteQuest
EXTRN	?prj@@3VCProject@@A:BYTE			; prj
EXTRN	?GetUser@CProject@@QAEPAVCUser@@K@Z:NEAR	; CProject::GetUser
; Function compile flags: /Ogty
;	COMDAT ?GetQuestState@@YGHPAUNPCDIALOG_INFO@@H@Z
_TEXT	SEGMENT
_quest$ = -20						; size = 14
__$ArrayPad$ = -4					; size = 4
__$ReturnAddr$ = 4					; size = 4
_pInfo$ = 8						; size = 4
_nQuest$ = 12						; size = 4
?GetQuestState@@YGHPAUNPCDIALOG_INFO@@H@Z PROC NEAR	; GetQuestState, COMDAT

; 276  : {

  00000	83 ec 14	 sub	 esp, 20			; 00000014H
  00003	a1 00 00 00 00	 mov	 eax, DWORD PTR ___security_cookie
  00008	8b 4c 24 18	 mov	 ecx, DWORD PTR _pInfo$[esp+16]
  0000c	33 c4		 xor	 eax, esp
  0000e	56		 push	 esi
  0000f	89 44 24 14	 mov	 DWORD PTR __$ArrayPad$[esp+24], eax

; 277  : 	CUser* pUser	= prj.GetUser( pInfo->GetPcId() );

  00013	8b 01		 mov	 eax, DWORD PTR [ecx]
  00015	57		 push	 edi
  00016	ff 50 18	 call	 DWORD PTR [eax+24]
  00019	50		 push	 eax
  0001a	b9 00 00 00 00	 mov	 ecx, OFFSET FLAT:?prj@@3VCProject@@A
  0001f	e8 00 00 00 00	 call	 ?GetUser@CProject@@QAEPAVCUser@@K@Z ; CProject::GetUser

; 278  : 	LPQUEST pQuest = pUser->GetQuest( nQuest );

  00024	8b 7c 24 24	 mov	 edi, DWORD PTR _nQuest$[esp+24]
  00028	8b f0		 mov	 esi, eax
  0002a	57		 push	 edi
  0002b	8b ce		 mov	 ecx, esi
  0002d	e8 00 00 00 00	 call	 ?GetQuest@CMover@@QAEPAUtagQuest@@H@Z ; CMover::GetQuest

; 279  : 	if( pQuest ) 

  00032	85 c0		 test	 eax, eax
  00034	74 16		 je	 SHORT $L267005

; 280  : 		return pQuest->m_nState;

  00036	0f b6 00	 movzx	 eax, BYTE PTR [eax]
  00039	5f		 pop	 edi
  0003a	5e		 pop	 esi

; 284  : 	return -1;
; 285  : }

  0003b	8b 4c 24 10	 mov	 ecx, DWORD PTR __$ArrayPad$[esp+20]
  0003f	33 cc		 xor	 ecx, esp
  00041	e8 00 00 00 00	 call	 @__security_check_cookie@4
  00046	83 c4 14	 add	 esp, 20			; 00000014H
  00049	c2 08 00	 ret	 8
$L267005:

; 281  : 	QUEST quest;
; 282  : 	if( pUser->MakeCompleteQuest( nQuest, &quest ) )

  0004c	8d 4c 24 08	 lea	 ecx, DWORD PTR _quest$[esp+28]
  00050	51		 push	 ecx
  00051	57		 push	 edi
  00052	8b ce		 mov	 ecx, esi
  00054	e8 00 00 00 00	 call	 ?MakeCompleteQuest@CMover@@QAEHHPAUtagQuest@@@Z ; CMover::MakeCompleteQuest
  00059	85 c0		 test	 eax, eax
  0005b	74 18		 je	 SHORT $L267007

; 283  : 		return quest.m_nState;

  0005d	0f b6 44 24 08	 movzx	 eax, BYTE PTR _quest$[esp+28]
  00062	5f		 pop	 edi
  00063	5e		 pop	 esi

; 284  : 	return -1;
; 285  : }

  00064	8b 4c 24 10	 mov	 ecx, DWORD PTR __$ArrayPad$[esp+20]
  00068	33 cc		 xor	 ecx, esp
  0006a	e8 00 00 00 00	 call	 @__security_check_cookie@4
  0006f	83 c4 14	 add	 esp, 20			; 00000014H
  00072	c2 08 00	 ret	 8
$L267007:
  00075	8b 4c 24 18	 mov	 ecx, DWORD PTR __$ArrayPad$[esp+28]
  00079	5f		 pop	 edi
  0007a	5e		 pop	 esi
  0007b	33 cc		 xor	 ecx, esp
  0007d	83 c8 ff	 or	 eax, -1
  00080	e8 00 00 00 00	 call	 @__security_check_cookie@4
  00085	83 c4 14	 add	 esp, 20			; 00000014H
  00088	c2 08 00	 ret	 8
?GetQuestState@@YGHPAUNPCDIALOG_INFO@@H@Z ENDP		; GetQuestState
_TEXT	ENDS
PUBLIC	?IsSetQuest@@YGHPAUNPCDIALOG_INFO@@H@Z		; IsSetQuest
EXTRN	?IsCompleteQuest@CMover@@QAEHH@Z:NEAR		; CMover::IsCompleteQuest
; Function compile flags: /Ogty
;	COMDAT ?IsSetQuest@@YGHPAUNPCDIALOG_INFO@@H@Z
_TEXT	SEGMENT
_pInfo$ = 8						; size = 4
_nQuest$ = 12						; size = 4
?IsSetQuest@@YGHPAUNPCDIALOG_INFO@@H@Z PROC NEAR	; IsSetQuest, COMDAT

; 288  : 	CUser* pUser	= prj.GetUser( pInfo->GetPcId() );

  00000	8b 4c 24 04	 mov	 ecx, DWORD PTR _pInfo$[esp-4]
  00004	8b 01		 mov	 eax, DWORD PTR [ecx]
  00006	56		 push	 esi
  00007	57		 push	 edi
  00008	ff 50 18	 call	 DWORD PTR [eax+24]
  0000b	50		 push	 eax
  0000c	b9 00 00 00 00	 mov	 ecx, OFFSET FLAT:?prj@@3VCProject@@A
  00011	e8 00 00 00 00	 call	 ?GetUser@CProject@@QAEPAVCUser@@K@Z ; CProject::GetUser

; 289  : 	LPQUEST pQuest = pUser->GetQuest( nQuest );

  00016	8b 7c 24 10	 mov	 edi, DWORD PTR _nQuest$[esp+4]
  0001a	8b f0		 mov	 esi, eax
  0001c	57		 push	 edi
  0001d	8b ce		 mov	 ecx, esi
  0001f	e8 00 00 00 00	 call	 ?GetQuest@CMover@@QAEPAUtagQuest@@H@Z ; CMover::GetQuest

; 290  : 	if( pQuest ) return TRUE;

  00024	85 c0		 test	 eax, eax
  00026	74 0a		 je	 SHORT $L267014
  00028	5f		 pop	 edi
  00029	b8 01 00 00 00	 mov	 eax, 1
  0002e	5e		 pop	 esi

; 292  : 		return TRUE;
; 293  : 	return FALSE;
; 294  : }

  0002f	c2 08 00	 ret	 8
$L267014:

; 291  : 	if( pUser->IsCompleteQuest( nQuest ) )

  00032	57		 push	 edi
  00033	8b ce		 mov	 ecx, esi
  00035	e8 00 00 00 00	 call	 ?IsCompleteQuest@CMover@@QAEHH@Z ; CMover::IsCompleteQuest
  0003a	f7 d8		 neg	 eax
  0003c	1b c0		 sbb	 eax, eax
  0003e	5f		 pop	 edi
  0003f	f7 d8		 neg	 eax
  00041	5e		 pop	 esi

; 292  : 		return TRUE;
; 293  : 	return FALSE;
; 294  : }

  00042	c2 08 00	 ret	 8
?IsSetQuest@@YGHPAUNPCDIALOG_INFO@@H@Z ENDP		; IsSetQuest
_TEXT	ENDS
PUBLIC	?SetMark@@YGHPAUNPCDIALOG_INFO@@@Z		; SetMark
; Function compile flags: /Ogty
;	COMDAT ?SetMark@@YGHPAUNPCDIALOG_INFO@@@Z
_TEXT	SEGMENT
_pInfo$ = 8						; size = 4
?SetMark@@YGHPAUNPCDIALOG_INFO@@@Z PROC NEAR		; SetMark, COMDAT

; 298  : 	return 1;

  00000	b8 01 00 00 00	 mov	 eax, 1

; 299  : }

  00005	c2 04 00	 ret	 4
?SetMark@@YGHPAUNPCDIALOG_INFO@@@Z ENDP			; SetMark
_TEXT	ENDS
PUBLIC	?GoMark@@YGHPAUNPCDIALOG_INFO@@@Z		; GoMark
; Function compile flags: /Ogty
;	COMDAT ?GoMark@@YGHPAUNPCDIALOG_INFO@@@Z
_TEXT	SEGMENT
_pInfo$ = 8						; size = 4
?GoMark@@YGHPAUNPCDIALOG_INFO@@@Z PROC NEAR		; GoMark, COMDAT

; 302  : 	return 1;

  00000	b8 01 00 00 00	 mov	 eax, 1

; 303  : }

  00005	c2 04 00	 ret	 4
?GoMark@@YGHPAUNPCDIALOG_INFO@@@Z ENDP			; GoMark
_TEXT	ENDS
PUBLIC	?RandomIndex@@YGHPAUNPCDIALOG_INFO@@@Z		; RandomIndex
; Function compile flags: /Ogty
;	COMDAT ?RandomIndex@@YGHPAUNPCDIALOG_INFO@@@Z
_TEXT	SEGMENT
_pInfo$ = 8						; size = 4
?RandomIndex@@YGHPAUNPCDIALOG_INFO@@@Z PROC NEAR	; RandomIndex, COMDAT

; 307  : 	return 1;

  00000	b8 01 00 00 00	 mov	 eax, 1

; 308  : }

  00005	c2 04 00	 ret	 4
?RandomIndex@@YGHPAUNPCDIALOG_INFO@@@Z ENDP		; RandomIndex
_TEXT	ENDS
PUBLIC	?EndSay@@YGHPAUNPCDIALOG_INFO@@@Z		; EndSay
; Function compile flags: /Ogty
;	COMDAT ?EndSay@@YGHPAUNPCDIALOG_INFO@@@Z
_TEXT	SEGMENT
_pInfo$ = 8						; size = 4
?EndSay@@YGHPAUNPCDIALOG_INFO@@@Z PROC NEAR		; EndSay, COMDAT

; 337  : 	return 1;

  00000	b8 01 00 00 00	 mov	 eax, 1

; 338  : }

  00005	c2 04 00	 ret	 4
?EndSay@@YGHPAUNPCDIALOG_INFO@@@Z ENDP			; EndSay
_TEXT	ENDS
PUBLIC	?Random@@YGHPAUNPCDIALOG_INFO@@H@Z		; Random
EXTRN	_rand:NEAR
; Function compile flags: /Ogty
;	COMDAT ?Random@@YGHPAUNPCDIALOG_INFO@@H@Z
_TEXT	SEGMENT
_pInfo$ = 8						; size = 4
_n$ = 12						; size = 4
?Random@@YGHPAUNPCDIALOG_INFO@@H@Z PROC NEAR		; Random, COMDAT

; 342  : 	return rand() % n;

  00000	e8 00 00 00 00	 call	 _rand
  00005	99		 cdq
  00006	f7 7c 24 08	 idiv	 DWORD PTR _n$[esp-4]
  0000a	8b c2		 mov	 eax, edx

; 343  : }

  0000c	c2 08 00	 ret	 8
?Random@@YGHPAUNPCDIALOG_INFO@@H@Z ENDP			; Random
_TEXT	ENDS
PUBLIC	?SetScriptTimer@@YGHPAUNPCDIALOG_INFO@@H@Z	; SetScriptTimer
; Function compile flags: /Ogty
;	COMDAT ?SetScriptTimer@@YGHPAUNPCDIALOG_INFO@@H@Z
_TEXT	SEGMENT
_pInfo$ = 8						; size = 4
_nTimer$ = 12						; size = 4
?SetScriptTimer@@YGHPAUNPCDIALOG_INFO@@H@Z PROC NEAR	; SetScriptTimer, COMDAT

; 356  : 	return 1;

  00000	b8 01 00 00 00	 mov	 eax, 1

; 357  : }

  00005	c2 08 00	 ret	 8
?SetScriptTimer@@YGHPAUNPCDIALOG_INFO@@H@Z ENDP		; SetScriptTimer
_TEXT	ENDS
PUBLIC	?GetPlayerJob@@YGHPAUNPCDIALOG_INFO@@@Z		; GetPlayerJob
EXTRN	?GetJob@CMover@@QAEHXZ:NEAR			; CMover::GetJob
; Function compile flags: /Ogty
;	COMDAT ?GetPlayerJob@@YGHPAUNPCDIALOG_INFO@@@Z
_TEXT	SEGMENT
_pInfo$ = 8						; size = 4
?GetPlayerJob@@YGHPAUNPCDIALOG_INFO@@@Z PROC NEAR	; GetPlayerJob, COMDAT

; 398  : 	CUser* pUser = prj.GetUser( pInfo->GetPcId() );

  00000	8b 4c 24 04	 mov	 ecx, DWORD PTR _pInfo$[esp-4]
  00004	8b 01		 mov	 eax, DWORD PTR [ecx]
  00006	ff 50 18	 call	 DWORD PTR [eax+24]
  00009	50		 push	 eax
  0000a	b9 00 00 00 00	 mov	 ecx, OFFSET FLAT:?prj@@3VCProject@@A
  0000f	e8 00 00 00 00	 call	 ?GetUser@CProject@@QAEPAVCUser@@K@Z ; CProject::GetUser

; 399  : 	return pUser->GetJob();

  00014	8b c8		 mov	 ecx, eax
  00016	e8 00 00 00 00	 call	 ?GetJob@CMover@@QAEHXZ	; CMover::GetJob

; 400  : }

  0001b	c2 04 00	 ret	 4
?GetPlayerJob@@YGHPAUNPCDIALOG_INFO@@@Z ENDP		; GetPlayerJob
_TEXT	ENDS
PUBLIC	?IsGuildQuest@@YGHPAUNPCDIALOG_INFO@@H@Z	; IsGuildQuest
EXTRN	?GetGuild@CMover@@QAEPAVCGuild@@XZ:NEAR		; CMover::GetGuild
; Function compile flags: /Ogty
;	COMDAT ?IsGuildQuest@@YGHPAUNPCDIALOG_INFO@@H@Z
_TEXT	SEGMENT
_pInfo$ = 8						; size = 4
_nQuest$ = 12						; size = 4
?IsGuildQuest@@YGHPAUNPCDIALOG_INFO@@H@Z PROC NEAR	; IsGuildQuest, COMDAT

; 404  : 	CUser* pUser = prj.GetUser( pInfo->GetPcId() );

  00000	8b 4c 24 04	 mov	 ecx, DWORD PTR _pInfo$[esp-4]
  00004	8b 01		 mov	 eax, DWORD PTR [ecx]
  00006	ff 50 18	 call	 DWORD PTR [eax+24]
  00009	50		 push	 eax
  0000a	b9 00 00 00 00	 mov	 ecx, OFFSET FLAT:?prj@@3VCProject@@A
  0000f	e8 00 00 00 00	 call	 ?GetUser@CProject@@QAEPAVCUser@@K@Z ; CProject::GetUser

; 405  : 
; 406  : 	CGuild* pGuild	= pUser->GetGuild();

  00014	8b c8		 mov	 ecx, eax
  00016	e8 00 00 00 00	 call	 ?GetGuild@CMover@@QAEPAVCGuild@@XZ ; CMover::GetGuild

; 407  : 	if( pGuild )

  0001b	85 c0		 test	 eax, eax
  0001d	74 18		 je	 SHORT $L267098

; 408  : 	{
; 409  : 		PGUILDQUEST pQuest = pGuild->GetQuest( nQuest );

  0001f	8b 4c 24 08	 mov	 ecx, DWORD PTR _nQuest$[esp-4]
  00023	51		 push	 ecx
  00024	8b c8		 mov	 ecx, eax
  00026	e8 00 00 00 00	 call	 ?FindQuest@CGuild@@QAEPAU_GUILDQUEST@@H@Z ; CGuild::FindQuest

; 410  : 		if( pQuest )

  0002b	85 c0		 test	 eax, eax
  0002d	74 08		 je	 SHORT $L267098

; 411  : 			return TRUE;

  0002f	b8 01 00 00 00	 mov	 eax, 1

; 414  : }

  00034	c2 08 00	 ret	 8
$L267098:

; 412  : 	}
; 413  : 	return FALSE;

  00037	33 c0		 xor	 eax, eax

; 414  : }

  00039	c2 08 00	 ret	 8
?IsGuildQuest@@YGHPAUNPCDIALOG_INFO@@H@Z ENDP		; IsGuildQuest
_TEXT	ENDS
PUBLIC	?GetGuildQuestState@@YGHPAUNPCDIALOG_INFO@@H@Z	; GetGuildQuestState
; Function compile flags: /Ogty
;	COMDAT ?GetGuildQuestState@@YGHPAUNPCDIALOG_INFO@@H@Z
_TEXT	SEGMENT
_pInfo$ = 8						; size = 4
_nQuest$ = 12						; size = 4
?GetGuildQuestState@@YGHPAUNPCDIALOG_INFO@@H@Z PROC NEAR ; GetGuildQuestState, COMDAT

; 418  : 	CUser* pUser	= prj.GetUser( pInfo->GetPcId() );

  00000	8b 4c 24 04	 mov	 ecx, DWORD PTR _pInfo$[esp-4]
  00004	8b 01		 mov	 eax, DWORD PTR [ecx]
  00006	ff 50 18	 call	 DWORD PTR [eax+24]
  00009	50		 push	 eax
  0000a	b9 00 00 00 00	 mov	 ecx, OFFSET FLAT:?prj@@3VCProject@@A
  0000f	e8 00 00 00 00	 call	 ?GetUser@CProject@@QAEPAVCUser@@K@Z ; CProject::GetUser

; 419  : 	CGuild* pGuild	= pUser->GetGuild();

  00014	8b c8		 mov	 ecx, eax
  00016	e8 00 00 00 00	 call	 ?GetGuild@CMover@@QAEPAVCGuild@@XZ ; CMover::GetGuild

; 420  : 	if( pGuild )

  0001b	85 c0		 test	 eax, eax
  0001d	74 16		 je	 SHORT $L267107

; 421  : 	{
; 422  : 		PGUILDQUEST pQuest	= pGuild->GetQuest( nQuest );

  0001f	8b 4c 24 08	 mov	 ecx, DWORD PTR _nQuest$[esp-4]
  00023	51		 push	 ecx
  00024	8b c8		 mov	 ecx, eax
  00026	e8 00 00 00 00	 call	 ?FindQuest@CGuild@@QAEPAU_GUILDQUEST@@H@Z ; CGuild::FindQuest

; 423  : 		if( pQuest )

  0002b	85 c0		 test	 eax, eax
  0002d	74 06		 je	 SHORT $L267107

; 424  : 		{
; 425  : 			int nState = pQuest->nState;
; 426  : 			return nState;

  0002f	8b 40 04	 mov	 eax, DWORD PTR [eax+4]

; 430  : }

  00032	c2 08 00	 ret	 8
$L267107:

; 427  : 		}
; 428  : 	}
; 429  : 	return -1;

  00035	83 c8 ff	 or	 eax, -1

; 430  : }

  00038	c2 08 00	 ret	 8
?GetGuildQuestState@@YGHPAUNPCDIALOG_INFO@@H@Z ENDP	; GetGuildQuestState
_TEXT	ENDS
PUBLIC	?IsWormonServer@@YGHPAUNPCDIALOG_INFO@@@Z	; IsWormonServer
EXTRN	?GetState@CFlyffEvent@@QAEEH@Z:NEAR		; CFlyffEvent::GetState
EXTRN	?g_eLocal@@3VCFlyffEvent@@A:BYTE		; g_eLocal
; Function compile flags: /Ogty
;	COMDAT ?IsWormonServer@@YGHPAUNPCDIALOG_INFO@@@Z
_TEXT	SEGMENT
_pInfo$ = 8						; size = 4
?IsWormonServer@@YGHPAUNPCDIALOG_INFO@@@Z PROC NEAR	; IsWormonServer, COMDAT

; 434  : 	return g_eLocal.GetState( EVE_WORMON );

  00000	6a 09		 push	 9
  00002	b9 00 00 00 00	 mov	 ecx, OFFSET FLAT:?g_eLocal@@3VCFlyffEvent@@A
  00007	e8 00 00 00 00	 call	 ?GetState@CFlyffEvent@@QAEEH@Z ; CFlyffEvent::GetState
  0000c	0f b6 c0	 movzx	 eax, al

; 435  : }

  0000f	c2 04 00	 ret	 4
?IsWormonServer@@YGHPAUNPCDIALOG_INFO@@@Z ENDP		; IsWormonServer
_TEXT	ENDS
PUBLIC	?PrintSystemMessage@@YGHPAUNPCDIALOG_INFO@@H@Z	; PrintSystemMessage
EXTRN	?AddDefinedText@CUser@@QAEXH@Z:NEAR		; CUser::AddDefinedText
; Function compile flags: /Ogty
;	COMDAT ?PrintSystemMessage@@YGHPAUNPCDIALOG_INFO@@H@Z
_TEXT	SEGMENT
_pInfo$ = 8						; size = 4
_nText$ = 12						; size = 4
?PrintSystemMessage@@YGHPAUNPCDIALOG_INFO@@H@Z PROC NEAR ; PrintSystemMessage, COMDAT

; 439  : 	CUser* pUser = prj.GetUser( pInfo->GetPcId() );

  00000	8b 4c 24 04	 mov	 ecx, DWORD PTR _pInfo$[esp-4]
  00004	8b 01		 mov	 eax, DWORD PTR [ecx]
  00006	ff 50 18	 call	 DWORD PTR [eax+24]
  00009	50		 push	 eax
  0000a	b9 00 00 00 00	 mov	 ecx, OFFSET FLAT:?prj@@3VCProject@@A
  0000f	e8 00 00 00 00	 call	 ?GetUser@CProject@@QAEPAVCUser@@K@Z ; CProject::GetUser

; 440  : 	pUser->AddDefinedText( (DWORD)nText );

  00014	8b 4c 24 08	 mov	 ecx, DWORD PTR _nText$[esp-4]
  00018	51		 push	 ecx
  00019	8b c8		 mov	 ecx, eax
  0001b	e8 00 00 00 00	 call	 ?AddDefinedText@CUser@@QAEXH@Z ; CUser::AddDefinedText

; 441  : 	return 1;

  00020	b8 01 00 00 00	 mov	 eax, 1

; 442  : }

  00025	c2 08 00	 ret	 8
?PrintSystemMessage@@YGHPAUNPCDIALOG_INFO@@H@Z ENDP	; PrintSystemMessage
_TEXT	ENDS
PUBLIC	??0CTime@ATL@@QAE@_J@Z				; ATL::CTime::CTime
; Function compile flags: /Ogty
; File c:\program files\microsoft visual studio .net 2003\vc7\atlmfc\include\atltime.inl
;	COMDAT ??0CTime@ATL@@QAE@_J@Z
_TEXT	SEGMENT
_time$ = 8						; size = 8
??0CTime@ATL@@QAE@_J@Z PROC NEAR			; ATL::CTime::CTime, COMDAT
; _this$ = ecx

; 167  : {

  00000	8b 54 24 08	 mov	 edx, DWORD PTR _time$[esp]
  00004	8b c1		 mov	 eax, ecx
  00006	8b 4c 24 04	 mov	 ecx, DWORD PTR _time$[esp-4]
  0000a	89 08		 mov	 DWORD PTR [eax], ecx
  0000c	89 50 04	 mov	 DWORD PTR [eax+4], edx

; 168  : }

  0000f	c2 08 00	 ret	 8
??0CTime@ATL@@QAE@_J@Z ENDP				; ATL::CTime::CTime
_TEXT	ENDS
PUBLIC	??MCTime@ATL@@QBE_NV01@@Z			; ATL::CTime::operator<
; Function compile flags: /Ogty
;	COMDAT ??MCTime@ATL@@QBE_NV01@@Z
_TEXT	SEGMENT
_time$ = 8						; size = 8
??MCTime@ATL@@QBE_NV01@@Z PROC NEAR			; ATL::CTime::operator<, COMDAT
; _this$ = ecx

; 301  : 	return( m_time < time.m_time );

  00000	8b 41 04	 mov	 eax, DWORD PTR [ecx+4]
  00003	3b 44 24 08	 cmp	 eax, DWORD PTR _time$[esp]
  00007	7f 12		 jg	 SHORT $L273317
  00009	7c 08		 jl	 SHORT $L273319
  0000b	8b 09		 mov	 ecx, DWORD PTR [ecx]
  0000d	3b 4c 24 04	 cmp	 ecx, DWORD PTR _time$[esp-4]
  00011	73 08		 jae	 SHORT $L273317
$L273319:
  00013	b8 01 00 00 00	 mov	 eax, 1

; 302  : }

  00018	c2 08 00	 ret	 8
$L273317:

; 301  : 	return( m_time < time.m_time );

  0001b	33 c0		 xor	 eax, eax

; 302  : }

  0001d	c2 08 00	 ret	 8
??MCTime@ATL@@QBE_NV01@@Z ENDP				; ATL::CTime::operator<
_TEXT	ENDS
PUBLIC	?SetQuestState@@YGHPAUNPCDIALOG_INFO@@HH@Z	; SetQuestState
EXTRN	?__SetQuestState@@YAHKHH@Z:NEAR			; __SetQuestState
; Function compile flags: /Ogty
; File c:\documents and settings\test\mes documents\source\virtuos_v17\build\program\_common\scriptlib.cpp
;	COMDAT ?SetQuestState@@YGHPAUNPCDIALOG_INFO@@HH@Z
_TEXT	SEGMENT
_pInfo$ = 8						; size = 4
_nQuest$ = 12						; size = 4
_n$ = 16						; size = 4
?SetQuestState@@YGHPAUNPCDIALOG_INFO@@HH@Z PROC NEAR	; SetQuestState, COMDAT

; 653  : 	return __SetQuestState( pInfo->GetPcId(), nQuest, n );

  00000	8b 44 24 0c	 mov	 eax, DWORD PTR _n$[esp-4]
  00004	8b 4c 24 08	 mov	 ecx, DWORD PTR _nQuest$[esp-4]
  00008	50		 push	 eax
  00009	51		 push	 ecx
  0000a	8b 4c 24 0c	 mov	 ecx, DWORD PTR _pInfo$[esp+4]
  0000e	8b 11		 mov	 edx, DWORD PTR [ecx]
  00010	ff 52 18	 call	 DWORD PTR [edx+24]
  00013	50		 push	 eax
  00014	e8 00 00 00 00	 call	 ?__SetQuestState@@YAHKHH@Z ; __SetQuestState
  00019	83 c4 0c	 add	 esp, 12			; 0000000cH

; 654  : }

  0001c	c2 0c 00	 ret	 12			; 0000000cH
?SetQuestState@@YGHPAUNPCDIALOG_INFO@@HH@Z ENDP		; SetQuestState
_TEXT	ENDS
PUBLIC	?SetQuest@@YGHPAUNPCDIALOG_INFO@@H@Z		; SetQuest
EXTRN	?__SetQuest@@YAXKH@Z:NEAR			; __SetQuest
; Function compile flags: /Ogty
;	COMDAT ?SetQuest@@YGHPAUNPCDIALOG_INFO@@H@Z
_TEXT	SEGMENT
_pInfo$ = 8						; size = 4
_nQuest$ = 12						; size = 4
?SetQuest@@YGHPAUNPCDIALOG_INFO@@H@Z PROC NEAR		; SetQuest, COMDAT

; 657  : 	__SetQuest(  pInfo->GetPcId(), nQuest );

  00000	8b 44 24 08	 mov	 eax, DWORD PTR _nQuest$[esp-4]
  00004	8b 4c 24 04	 mov	 ecx, DWORD PTR _pInfo$[esp-4]
  00008	8b 11		 mov	 edx, DWORD PTR [ecx]
  0000a	50		 push	 eax
  0000b	ff 52 18	 call	 DWORD PTR [edx+24]
  0000e	50		 push	 eax
  0000f	e8 00 00 00 00	 call	 ?__SetQuest@@YAXKH@Z	; __SetQuest
  00014	83 c4 08	 add	 esp, 8

; 658  : 	return 1;

  00017	b8 01 00 00 00	 mov	 eax, 1

; 659  : }

  0001c	c2 08 00	 ret	 8
?SetQuest@@YGHPAUNPCDIALOG_INFO@@H@Z ENDP		; SetQuest
_TEXT	ENDS
PUBLIC	?CreateItem@@YGHPAUNPCDIALOG_INFO@@KH@Z		; CreateItem
EXTRN	?__CreateItem@@YAXKHHHE@Z:NEAR			; __CreateItem
; Function compile flags: /Ogty
;	COMDAT ?CreateItem@@YGHPAUNPCDIALOG_INFO@@KH@Z
_TEXT	SEGMENT
_pInfo$ = 8						; size = 4
_dwID$ = 12						; size = 4
_nCount$ = 16						; size = 4
?CreateItem@@YGHPAUNPCDIALOG_INFO@@KH@Z PROC NEAR	; CreateItem, COMDAT

; 663  : 	__CreateItem( pInfo->GetPcId(), dwID, nCount );

  00000	8b 44 24 0c	 mov	 eax, DWORD PTR _nCount$[esp-4]
  00004	8b 4c 24 08	 mov	 ecx, DWORD PTR _dwID$[esp-4]
  00008	6a 00		 push	 0
  0000a	6a 00		 push	 0
  0000c	50		 push	 eax
  0000d	51		 push	 ecx
  0000e	8b 4c 24 14	 mov	 ecx, DWORD PTR _pInfo$[esp+12]
  00012	8b 11		 mov	 edx, DWORD PTR [ecx]
  00014	ff 52 18	 call	 DWORD PTR [edx+24]
  00017	50		 push	 eax
  00018	e8 00 00 00 00	 call	 ?__CreateItem@@YAXKHHHE@Z ; __CreateItem
  0001d	83 c4 14	 add	 esp, 20			; 00000014H

; 664  : 	return 1;

  00020	b8 01 00 00 00	 mov	 eax, 1

; 665  : }

  00025	c2 0c 00	 ret	 12			; 0000000cH
?CreateItem@@YGHPAUNPCDIALOG_INFO@@KH@Z ENDP		; CreateItem
_TEXT	ENDS
PUBLIC	?AddGold@@YGHPAUNPCDIALOG_INFO@@H@Z		; AddGold
EXTRN	?__AddGold@@YAXKH@Z:NEAR			; __AddGold
; Function compile flags: /Ogty
;	COMDAT ?AddGold@@YGHPAUNPCDIALOG_INFO@@H@Z
_TEXT	SEGMENT
_pInfo$ = 8						; size = 4
_nGold$ = 12						; size = 4
?AddGold@@YGHPAUNPCDIALOG_INFO@@H@Z PROC NEAR		; AddGold, COMDAT

; 669  : 	__AddGold(  pInfo->GetPcId(), nGold );

  00000	8b 44 24 08	 mov	 eax, DWORD PTR _nGold$[esp-4]
  00004	8b 4c 24 04	 mov	 ecx, DWORD PTR _pInfo$[esp-4]
  00008	8b 11		 mov	 edx, DWORD PTR [ecx]
  0000a	50		 push	 eax
  0000b	ff 52 18	 call	 DWORD PTR [edx+24]
  0000e	50		 push	 eax
  0000f	e8 00 00 00 00	 call	 ?__AddGold@@YAXKH@Z	; __AddGold
  00014	83 c4 08	 add	 esp, 8

; 670  : 	return 1;

  00017	b8 01 00 00 00	 mov	 eax, 1

; 671  : }

  0001c	c2 08 00	 ret	 8
?AddGold@@YGHPAUNPCDIALOG_INFO@@H@Z ENDP		; AddGold
_TEXT	ENDS
PUBLIC	?RemoveGold@@YGHPAUNPCDIALOG_INFO@@H@Z		; RemoveGold
EXTRN	?__RemoveGold@@YAXKH@Z:NEAR			; __RemoveGold
; Function compile flags: /Ogty
;	COMDAT ?RemoveGold@@YGHPAUNPCDIALOG_INFO@@H@Z
_TEXT	SEGMENT
_pInfo$ = 8						; size = 4
_nGold$ = 12						; size = 4
?RemoveGold@@YGHPAUNPCDIALOG_INFO@@H@Z PROC NEAR	; RemoveGold, COMDAT

; 675  : 	__RemoveGold( pInfo->GetPcId(), nGold );

  00000	8b 44 24 08	 mov	 eax, DWORD PTR _nGold$[esp-4]
  00004	8b 4c 24 04	 mov	 ecx, DWORD PTR _pInfo$[esp-4]
  00008	8b 11		 mov	 edx, DWORD PTR [ecx]
  0000a	50		 push	 eax
  0000b	ff 52 18	 call	 DWORD PTR [edx+24]
  0000e	50		 push	 eax
  0000f	e8 00 00 00 00	 call	 ?__RemoveGold@@YAXKH@Z	; __RemoveGold
  00014	83 c4 08	 add	 esp, 8

; 676  : 	return 1;

  00017	b8 01 00 00 00	 mov	 eax, 1

; 677  : }

  0001c	c2 08 00	 ret	 8
?RemoveGold@@YGHPAUNPCDIALOG_INFO@@H@Z ENDP		; RemoveGold
_TEXT	ENDS
PUBLIC	?GetLocalEventState@@YGHPAUNPCDIALOG_INFO@@H@Z	; GetLocalEventState
; Function compile flags: /Ogty
;	COMDAT ?GetLocalEventState@@YGHPAUNPCDIALOG_INFO@@H@Z
_TEXT	SEGMENT
_pInfo$ = 8						; size = 4
_nEvent$ = 12						; size = 4
?GetLocalEventState@@YGHPAUNPCDIALOG_INFO@@H@Z PROC NEAR ; GetLocalEventState, COMDAT

; 687  : 	return g_eLocal.GetState( nEvent );

  00000	8b 44 24 08	 mov	 eax, DWORD PTR _nEvent$[esp-4]
  00004	50		 push	 eax
  00005	b9 00 00 00 00	 mov	 ecx, OFFSET FLAT:?g_eLocal@@3VCFlyffEvent@@A
  0000a	e8 00 00 00 00	 call	 ?GetState@CFlyffEvent@@QAEEH@Z ; CFlyffEvent::GetState
  0000f	0f b6 c0	 movzx	 eax, al

; 688  : }

  00012	c2 08 00	 ret	 8
?GetLocalEventState@@YGHPAUNPCDIALOG_INFO@@H@Z ENDP	; GetLocalEventState
_TEXT	ENDS
PUBLIC	?IsParty@@YGHPAUNPCDIALOG_INFO@@@Z		; IsParty
EXTRN	?GetParty@CPartyMng@@QAEPAVCParty@@K@Z:NEAR	; CPartyMng::GetParty
EXTRN	?g_PartyMng@@3VCPartyMng@@A:BYTE		; g_PartyMng
; Function compile flags: /Ogty
;	COMDAT ?IsParty@@YGHPAUNPCDIALOG_INFO@@@Z
_TEXT	SEGMENT
_pInfo$ = 8						; size = 4
?IsParty@@YGHPAUNPCDIALOG_INFO@@@Z PROC NEAR		; IsParty, COMDAT

; 704  : 	CUser* pUser	= prj.GetUser( pInfo->GetPcId() );

  00000	8b 4c 24 04	 mov	 ecx, DWORD PTR _pInfo$[esp-4]
  00004	8b 01		 mov	 eax, DWORD PTR [ecx]
  00006	56		 push	 esi
  00007	ff 50 18	 call	 DWORD PTR [eax+24]
  0000a	50		 push	 eax
  0000b	b9 00 00 00 00	 mov	 ecx, OFFSET FLAT:?prj@@3VCProject@@A
  00010	e8 00 00 00 00	 call	 ?GetUser@CProject@@QAEPAVCUser@@K@Z ; CProject::GetUser
  00015	8b f0		 mov	 esi, eax

; 705  : 		CParty* pParty = g_PartyMng.GetParty( pUser->m_idparty );

  00017	8b 8e 18 07 00
	00		 mov	 ecx, DWORD PTR [esi+1816]
  0001d	51		 push	 ecx
  0001e	b9 00 00 00 00	 mov	 ecx, OFFSET FLAT:?g_PartyMng@@3VCPartyMng@@A
  00023	e8 00 00 00 00	 call	 ?GetParty@CPartyMng@@QAEPAVCParty@@K@Z ; CPartyMng::GetParty

; 706  : 		int f = ( pParty != NULL && pParty->IsMember( pUser->m_idPlayer ) );

  00028	85 c0		 test	 eax, eax
  0002a	74 1b		 je	 SHORT $L273341
  0002c	8b b6 38 02 00
	00		 mov	 esi, DWORD PTR [esi+568]
  00032	56		 push	 esi
  00033	8b c8		 mov	 ecx, eax
  00035	e8 00 00 00 00	 call	 ?FindMember@CParty@@QAEHK@Z ; CParty::FindMember
  0003a	85 c0		 test	 eax, eax
  0003c	7c 09		 jl	 SHORT $L273341
  0003e	b8 01 00 00 00	 mov	 eax, 1
  00043	5e		 pop	 esi

; 707  : 	return f;
; 708  : }

  00044	c2 04 00	 ret	 4
$L273341:

; 706  : 		int f = ( pParty != NULL && pParty->IsMember( pUser->m_idPlayer ) );

  00047	33 c0		 xor	 eax, eax
  00049	5e		 pop	 esi

; 707  : 	return f;
; 708  : }

  0004a	c2 04 00	 ret	 4
?IsParty@@YGHPAUNPCDIALOG_INFO@@@Z ENDP			; IsParty
_TEXT	ENDS
PUBLIC	?IsPartyMaster@@YGHPAUNPCDIALOG_INFO@@@Z	; IsPartyMaster
; Function compile flags: /Ogty
;	COMDAT ?IsPartyMaster@@YGHPAUNPCDIALOG_INFO@@@Z
_TEXT	SEGMENT
_pInfo$ = 8						; size = 4
?IsPartyMaster@@YGHPAUNPCDIALOG_INFO@@@Z PROC NEAR	; IsPartyMaster, COMDAT

; 712  : 	CUser* pUser = prj.GetUser( pInfo->GetPcId() );

  00000	8b 4c 24 04	 mov	 ecx, DWORD PTR _pInfo$[esp-4]
  00004	8b 01		 mov	 eax, DWORD PTR [ecx]
  00006	56		 push	 esi
  00007	ff 50 18	 call	 DWORD PTR [eax+24]
  0000a	50		 push	 eax
  0000b	b9 00 00 00 00	 mov	 ecx, OFFSET FLAT:?prj@@3VCProject@@A
  00010	e8 00 00 00 00	 call	 ?GetUser@CProject@@QAEPAVCUser@@K@Z ; CProject::GetUser
  00015	8b f0		 mov	 esi, eax

; 713  : 		CParty* pParty	= g_PartyMng.GetParty( pUser->m_idparty );

  00017	8b 8e 18 07 00
	00		 mov	 ecx, DWORD PTR [esi+1816]
  0001d	51		 push	 ecx
  0001e	b9 00 00 00 00	 mov	 ecx, OFFSET FLAT:?g_PartyMng@@3VCPartyMng@@A
  00023	e8 00 00 00 00	 call	 ?GetParty@CPartyMng@@QAEPAVCParty@@K@Z ; CPartyMng::GetParty

; 714  : 		int f = ( pParty != NULL && pParty->IsLeader( pUser->m_idPlayer ) );

  00028	85 c0		 test	 eax, eax
  0002a	74 14		 je	 SHORT $L273350
  0002c	8b 50 28	 mov	 edx, DWORD PTR [eax+40]
  0002f	3b 96 38 02 00
	00		 cmp	 edx, DWORD PTR [esi+568]
  00035	75 09		 jne	 SHORT $L273350
  00037	b8 01 00 00 00	 mov	 eax, 1
  0003c	5e		 pop	 esi

; 715  : 	return f;
; 716  : }

  0003d	c2 04 00	 ret	 4
$L273350:

; 714  : 		int f = ( pParty != NULL && pParty->IsLeader( pUser->m_idPlayer ) );

  00040	33 c0		 xor	 eax, eax
  00042	5e		 pop	 esi

; 715  : 	return f;
; 716  : }

  00043	c2 04 00	 ret	 4
?IsPartyMaster@@YGHPAUNPCDIALOG_INFO@@@Z ENDP		; IsPartyMaster
_TEXT	ENDS
PUBLIC	?GetPartyNum@@YGHPAUNPCDIALOG_INFO@@@Z		; GetPartyNum
; Function compile flags: /Ogty
;	COMDAT ?GetPartyNum@@YGHPAUNPCDIALOG_INFO@@@Z
_TEXT	SEGMENT
_pInfo$ = 8						; size = 4
?GetPartyNum@@YGHPAUNPCDIALOG_INFO@@@Z PROC NEAR	; GetPartyNum, COMDAT

; 720  : 	CUser* pUser	= prj.GetUser( pInfo->GetPcId() );

  00000	8b 4c 24 04	 mov	 ecx, DWORD PTR _pInfo$[esp-4]
  00004	8b 01		 mov	 eax, DWORD PTR [ecx]
  00006	56		 push	 esi
  00007	ff 50 18	 call	 DWORD PTR [eax+24]
  0000a	50		 push	 eax
  0000b	b9 00 00 00 00	 mov	 ecx, OFFSET FLAT:?prj@@3VCProject@@A
  00010	e8 00 00 00 00	 call	 ?GetUser@CProject@@QAEPAVCUser@@K@Z ; CProject::GetUser

; 721  : 	int nSize = 0;
; 722  : 	CParty* pParty	= g_PartyMng.GetParty( pUser->m_idparty );

  00015	8b 88 18 07 00
	00		 mov	 ecx, DWORD PTR [eax+1816]
  0001b	51		 push	 ecx
  0001c	b9 00 00 00 00	 mov	 ecx, OFFSET FLAT:?g_PartyMng@@3VCPartyMng@@A
  00021	33 f6		 xor	 esi, esi
  00023	e8 00 00 00 00	 call	 ?GetParty@CPartyMng@@QAEPAVCParty@@K@Z ; CPartyMng::GetParty

; 723  : 	if( pParty )

  00028	85 c0		 test	 eax, eax
  0002a	74 0a		 je	 SHORT $L273361

; 724  : 		nSize = pParty->GetSizeofMember();
; 725  : 	return nSize;

  0002c	8b 80 cc 01 00
	00		 mov	 eax, DWORD PTR [eax+460]
  00032	5e		 pop	 esi

; 726  : }

  00033	c2 04 00	 ret	 4
$L273361:

; 724  : 		nSize = pParty->GetSizeofMember();
; 725  : 	return nSize;

  00036	8b c6		 mov	 eax, esi
  00038	5e		 pop	 esi

; 726  : }

  00039	c2 04 00	 ret	 4
?GetPartyNum@@YGHPAUNPCDIALOG_INFO@@@Z ENDP		; GetPartyNum
_TEXT	ENDS
PUBLIC	?GetPartyLevel@@YGHPAUNPCDIALOG_INFO@@@Z	; GetPartyLevel
; Function compile flags: /Ogty
;	COMDAT ?GetPartyLevel@@YGHPAUNPCDIALOG_INFO@@@Z
_TEXT	SEGMENT
_pInfo$ = 8						; size = 4
?GetPartyLevel@@YGHPAUNPCDIALOG_INFO@@@Z PROC NEAR	; GetPartyLevel, COMDAT

; 730  : 	CUser* pUser = prj.GetUser( pInfo->GetPcId() );

  00000	8b 4c 24 04	 mov	 ecx, DWORD PTR _pInfo$[esp-4]
  00004	8b 01		 mov	 eax, DWORD PTR [ecx]
  00006	56		 push	 esi
  00007	ff 50 18	 call	 DWORD PTR [eax+24]
  0000a	50		 push	 eax
  0000b	b9 00 00 00 00	 mov	 ecx, OFFSET FLAT:?prj@@3VCProject@@A
  00010	e8 00 00 00 00	 call	 ?GetUser@CProject@@QAEPAVCUser@@K@Z ; CProject::GetUser

; 731  : 	int nLevel = 0;
; 732  : 	CParty* pParty = g_PartyMng.GetParty( pUser->m_idparty );

  00015	8b 88 18 07 00
	00		 mov	 ecx, DWORD PTR [eax+1816]
  0001b	51		 push	 ecx
  0001c	b9 00 00 00 00	 mov	 ecx, OFFSET FLAT:?g_PartyMng@@3VCPartyMng@@A
  00021	33 f6		 xor	 esi, esi
  00023	e8 00 00 00 00	 call	 ?GetParty@CPartyMng@@QAEPAVCParty@@K@Z ; CPartyMng::GetParty

; 733  : 	if( pParty )

  00028	85 c0		 test	 eax, eax
  0002a	74 0a		 je	 SHORT $L273368

; 734  : 		nLevel = pParty->GetLevel();
; 735  : 	return nLevel;

  0002c	8b 80 d0 01 00
	00		 mov	 eax, DWORD PTR [eax+464]
  00032	5e		 pop	 esi

; 736  : }

  00033	c2 04 00	 ret	 4
$L273368:

; 734  : 		nLevel = pParty->GetLevel();
; 735  : 	return nLevel;

  00036	8b c6		 mov	 eax, esi
  00038	5e		 pop	 esi

; 736  : }

  00039	c2 04 00	 ret	 4
?GetPartyLevel@@YGHPAUNPCDIALOG_INFO@@@Z ENDP		; GetPartyLevel
_TEXT	ENDS
PUBLIC	?IsGuild@@YGHPAUNPCDIALOG_INFO@@@Z		; IsGuild
EXTRN	?GetGuild@CGuildMng@@QAEPAVCGuild@@K@Z:NEAR	; CGuildMng::GetGuild
EXTRN	?g_GuildMng@@3VCGuildMng@@A:BYTE		; g_GuildMng
; Function compile flags: /Ogty
;	COMDAT ?IsGuild@@YGHPAUNPCDIALOG_INFO@@@Z
_TEXT	SEGMENT
_pInfo$ = 8						; size = 4
?IsGuild@@YGHPAUNPCDIALOG_INFO@@@Z PROC NEAR		; IsGuild, COMDAT

; 785  : 	CUser* pUser	= prj.GetUser( pInfo->GetPcId() );

  00000	8b 4c 24 04	 mov	 ecx, DWORD PTR _pInfo$[esp-4]
  00004	8b 01		 mov	 eax, DWORD PTR [ecx]
  00006	56		 push	 esi
  00007	ff 50 18	 call	 DWORD PTR [eax+24]
  0000a	50		 push	 eax
  0000b	b9 00 00 00 00	 mov	 ecx, OFFSET FLAT:?prj@@3VCProject@@A
  00010	e8 00 00 00 00	 call	 ?GetUser@CProject@@QAEPAVCUser@@K@Z ; CProject::GetUser
  00015	8b f0		 mov	 esi, eax

; 786  : 	CGuild* pGuild	= g_GuildMng.GetGuild( pUser->m_idGuild );

  00017	8b 8e 1c 07 00
	00		 mov	 ecx, DWORD PTR [esi+1820]
  0001d	51		 push	 ecx
  0001e	b9 00 00 00 00	 mov	 ecx, OFFSET FLAT:?g_GuildMng@@3VCGuildMng@@A
  00023	e8 00 00 00 00	 call	 ?GetGuild@CGuildMng@@QAEPAVCGuild@@K@Z ; CGuildMng::GetGuild

; 787  : 	int f	= ( pGuild && pGuild->IsMember( pUser->m_idPlayer ) );

  00028	85 c0		 test	 eax, eax
  0002a	74 1b		 je	 SHORT $L273372
  0002c	8b b6 38 02 00
	00		 mov	 esi, DWORD PTR [esi+568]
  00032	56		 push	 esi
  00033	8b c8		 mov	 ecx, eax
  00035	e8 00 00 00 00	 call	 ?GetMember@CGuild@@QAEPAVCGuildMember@@K@Z ; CGuild::GetMember
  0003a	85 c0		 test	 eax, eax
  0003c	74 09		 je	 SHORT $L273372
  0003e	b8 01 00 00 00	 mov	 eax, 1
  00043	5e		 pop	 esi

; 788  : 	return f;
; 789  : }

  00044	c2 04 00	 ret	 4
$L273372:

; 787  : 	int f	= ( pGuild && pGuild->IsMember( pUser->m_idPlayer ) );

  00047	33 c0		 xor	 eax, eax
  00049	5e		 pop	 esi

; 788  : 	return f;
; 789  : }

  0004a	c2 04 00	 ret	 4
?IsGuild@@YGHPAUNPCDIALOG_INFO@@@Z ENDP			; IsGuild
_TEXT	ENDS
PUBLIC	?IsGuildMaster@@YGHPAUNPCDIALOG_INFO@@@Z	; IsGuildMaster
; Function compile flags: /Ogty
;	COMDAT ?IsGuildMaster@@YGHPAUNPCDIALOG_INFO@@@Z
_TEXT	SEGMENT
_pInfo$ = 8						; size = 4
?IsGuildMaster@@YGHPAUNPCDIALOG_INFO@@@Z PROC NEAR	; IsGuildMaster, COMDAT

; 793  : 	CUser* pUser	= prj.GetUser( pInfo->GetPcId() );

  00000	8b 4c 24 04	 mov	 ecx, DWORD PTR _pInfo$[esp-4]
  00004	8b 01		 mov	 eax, DWORD PTR [ecx]
  00006	56		 push	 esi
  00007	ff 50 18	 call	 DWORD PTR [eax+24]
  0000a	50		 push	 eax
  0000b	b9 00 00 00 00	 mov	 ecx, OFFSET FLAT:?prj@@3VCProject@@A
  00010	e8 00 00 00 00	 call	 ?GetUser@CProject@@QAEPAVCUser@@K@Z ; CProject::GetUser
  00015	8b f0		 mov	 esi, eax

; 794  : 	CGuild* pGuild	= g_GuildMng.GetGuild( pUser->m_idGuild );

  00017	8b 8e 1c 07 00
	00		 mov	 ecx, DWORD PTR [esi+1820]
  0001d	51		 push	 ecx
  0001e	b9 00 00 00 00	 mov	 ecx, OFFSET FLAT:?g_GuildMng@@3VCGuildMng@@A
  00023	e8 00 00 00 00	 call	 ?GetGuild@CGuildMng@@QAEPAVCGuild@@K@Z ; CGuildMng::GetGuild

; 795  : 	int f = ( pGuild && pGuild->IsMaster( pUser->m_idPlayer ) );

  00028	85 c0		 test	 eax, eax
  0002a	74 14		 je	 SHORT $L273381
  0002c	8b 50 44	 mov	 edx, DWORD PTR [eax+68]
  0002f	3b 96 38 02 00
	00		 cmp	 edx, DWORD PTR [esi+568]
  00035	75 09		 jne	 SHORT $L273381
  00037	b8 01 00 00 00	 mov	 eax, 1
  0003c	5e		 pop	 esi

; 796  : 	return f;
; 797  : }

  0003d	c2 04 00	 ret	 4
$L273381:

; 795  : 	int f = ( pGuild && pGuild->IsMaster( pUser->m_idPlayer ) );

  00040	33 c0		 xor	 eax, eax
  00042	5e		 pop	 esi

; 796  : 	return f;
; 797  : }

  00043	c2 04 00	 ret	 4
?IsGuildMaster@@YGHPAUNPCDIALOG_INFO@@@Z ENDP		; IsGuildMaster
_TEXT	ENDS
PUBLIC	?IsPlayerSkillPoint@@YGHPAUNPCDIALOG_INFO@@@Z	; IsPlayerSkillPoint
; Function compile flags: /Ogty
;	COMDAT ?IsPlayerSkillPoint@@YGHPAUNPCDIALOG_INFO@@@Z
_TEXT	SEGMENT
_pInfo$ = 8						; size = 4
?IsPlayerSkillPoint@@YGHPAUNPCDIALOG_INFO@@@Z PROC NEAR	; IsPlayerSkillPoint, COMDAT

; 863  : 	return 0;

  00000	33 c0		 xor	 eax, eax

; 864  : }

  00002	c2 04 00	 ret	 4
?IsPlayerSkillPoint@@YGHPAUNPCDIALOG_INFO@@@Z ENDP	; IsPlayerSkillPoint
_TEXT	ENDS
PUBLIC	?GetItemNum@@YGHPAUNPCDIALOG_INFO@@K@Z		; GetItemNum
EXTRN	?GetItemNum@CMover@@QAEHK@Z:NEAR		; CMover::GetItemNum
; Function compile flags: /Ogty
;	COMDAT ?GetItemNum@@YGHPAUNPCDIALOG_INFO@@K@Z
_TEXT	SEGMENT
_pInfo$ = 8						; size = 4
_dwID$ = 12						; size = 4
?GetItemNum@@YGHPAUNPCDIALOG_INFO@@K@Z PROC NEAR	; GetItemNum, COMDAT

; 918  : 	CUser* pUser = prj.GetUser( pInfo->GetPcId() );

  00000	8b 4c 24 04	 mov	 ecx, DWORD PTR _pInfo$[esp-4]
  00004	8b 01		 mov	 eax, DWORD PTR [ecx]
  00006	ff 50 18	 call	 DWORD PTR [eax+24]
  00009	50		 push	 eax
  0000a	b9 00 00 00 00	 mov	 ecx, OFFSET FLAT:?prj@@3VCProject@@A
  0000f	e8 00 00 00 00	 call	 ?GetUser@CProject@@QAEPAVCUser@@K@Z ; CProject::GetUser

; 919  : 	return pUser->GetItemNum( dwID );

  00014	8b 4c 24 08	 mov	 ecx, DWORD PTR _dwID$[esp-4]
  00018	51		 push	 ecx
  00019	8b c8		 mov	 ecx, eax
  0001b	e8 00 00 00 00	 call	 ?GetItemNum@CMover@@QAEHK@Z ; CMover::GetItemNum

; 920  : }

  00020	c2 08 00	 ret	 8
?GetItemNum@@YGHPAUNPCDIALOG_INFO@@K@Z ENDP		; GetItemNum
_TEXT	ENDS
PUBLIC	?RemoveAllItem@@YGHPAUNPCDIALOG_INFO@@K@Z	; RemoveAllItem
EXTRN	?RemoveAllItem@CMover@@QAEHK@Z:NEAR		; CMover::RemoveAllItem
; Function compile flags: /Ogty
;	COMDAT ?RemoveAllItem@@YGHPAUNPCDIALOG_INFO@@K@Z
_TEXT	SEGMENT
_pInfo$ = 8						; size = 4
_dwID$ = 12						; size = 4
?RemoveAllItem@@YGHPAUNPCDIALOG_INFO@@K@Z PROC NEAR	; RemoveAllItem, COMDAT

; 923  : 	CUser* pUser = prj.GetUser( pInfo->GetPcId() );

  00000	8b 4c 24 04	 mov	 ecx, DWORD PTR _pInfo$[esp-4]
  00004	8b 01		 mov	 eax, DWORD PTR [ecx]
  00006	ff 50 18	 call	 DWORD PTR [eax+24]
  00009	50		 push	 eax
  0000a	b9 00 00 00 00	 mov	 ecx, OFFSET FLAT:?prj@@3VCProject@@A
  0000f	e8 00 00 00 00	 call	 ?GetUser@CProject@@QAEPAVCUser@@K@Z ; CProject::GetUser

; 924  : 	pUser->RemoveAllItem( dwID );

  00014	8b 4c 24 08	 mov	 ecx, DWORD PTR _dwID$[esp-4]
  00018	51		 push	 ecx
  00019	8b c8		 mov	 ecx, eax
  0001b	e8 00 00 00 00	 call	 ?RemoveAllItem@CMover@@QAEHK@Z ; CMover::RemoveAllItem

; 925  : 	return 1;

  00020	b8 01 00 00 00	 mov	 eax, 1

; 926  : }

  00025	c2 08 00	 ret	 8
?RemoveAllItem@@YGHPAUNPCDIALOG_INFO@@K@Z ENDP		; RemoveAllItem
_TEXT	ENDS
PUBLIC	?PlaySoundA@@YGHPAUNPCDIALOG_INFO@@PBD@Z	; PlaySoundA
EXTRN	?AddPlaySound2@CUser@@QAEXPBD@Z:NEAR		; CUser::AddPlaySound2
; Function compile flags: /Ogty
;	COMDAT ?PlaySoundA@@YGHPAUNPCDIALOG_INFO@@PBD@Z
_TEXT	SEGMENT
_pInfo$ = 8						; size = 4
_szMusic$ = 12						; size = 4
?PlaySoundA@@YGHPAUNPCDIALOG_INFO@@PBD@Z PROC NEAR	; PlaySoundA, COMDAT

; 980  : 	CUser* pUser = prj.GetUser( pInfo->GetPcId() );

  00000	8b 4c 24 04	 mov	 ecx, DWORD PTR _pInfo$[esp-4]
  00004	8b 01		 mov	 eax, DWORD PTR [ecx]
  00006	ff 50 18	 call	 DWORD PTR [eax+24]
  00009	50		 push	 eax
  0000a	b9 00 00 00 00	 mov	 ecx, OFFSET FLAT:?prj@@3VCProject@@A
  0000f	e8 00 00 00 00	 call	 ?GetUser@CProject@@QAEPAVCUser@@K@Z ; CProject::GetUser

; 981  : 	pUser->AddPlaySound2( szMusic );

  00014	8b 4c 24 08	 mov	 ecx, DWORD PTR _szMusic$[esp-4]
  00018	51		 push	 ecx
  00019	8b c8		 mov	 ecx, eax
  0001b	e8 00 00 00 00	 call	 ?AddPlaySound2@CUser@@QAEXPBD@Z ; CUser::AddPlaySound2

; 982  : 	return 1;

  00020	b8 01 00 00 00	 mov	 eax, 1

; 983  : }

  00025	c2 08 00	 ret	 8
?PlaySoundA@@YGHPAUNPCDIALOG_INFO@@PBD@Z ENDP		; PlaySoundA
_TEXT	ENDS
PUBLIC	?ExpQuestEffect@@YGHPAUNPCDIALOG_INFO@@KH@Z	; ExpQuestEffect
EXTRN	?AddCreateSfxObj@CUserMng@@QAEXPAVCCtrl@@KMMMH@Z:NEAR ; CUserMng::AddCreateSfxObj
EXTRN	?GetCtrl@CProject@@QAEPAVCCtrl@@K@Z:NEAR	; CProject::GetCtrl
EXTRN	?g_UserMng@@3VCUserMng@@A:BYTE			; g_UserMng
EXTRN	__fltused:NEAR
; Function compile flags: /Ogty
;	COMDAT ?ExpQuestEffect@@YGHPAUNPCDIALOG_INFO@@KH@Z
_TEXT	SEGMENT
_pInfo$ = 8						; size = 4
_dwID$ = 12						; size = 4
_bNPC$ = 16						; size = 4
?ExpQuestEffect@@YGHPAUNPCDIALOG_INFO@@KH@Z PROC NEAR	; ExpQuestEffect, COMDAT

; 1027 : 	int v1 = dwID, v2 = bNPC;
; 1028 : 	CCtrl* pCtrl = ( v2? prj.GetCtrl( pInfo->GetNpcId() ): prj.GetCtrl( pInfo->GetPcId() ) );

  00000	8b 44 24 0c	 mov	 eax, DWORD PTR _bNPC$[esp-4]
  00004	85 c0		 test	 eax, eax
  00006	8b 4c 24 04	 mov	 ecx, DWORD PTR _pInfo$[esp-4]
  0000a	74 07		 je	 SHORT $L273401
  0000c	8b 01		 mov	 eax, DWORD PTR [ecx]
  0000e	ff 50 14	 call	 DWORD PTR [eax+20]
  00011	eb 05		 jmp	 SHORT $L273403
$L273401:
  00013	8b 11		 mov	 edx, DWORD PTR [ecx]
  00015	ff 52 18	 call	 DWORD PTR [edx+24]
$L273403:
  00018	b9 00 00 00 00	 mov	 ecx, OFFSET FLAT:?prj@@3VCProject@@A
  0001d	50		 push	 eax
  0001e	e8 00 00 00 00	 call	 ?GetCtrl@CProject@@QAEPAVCCtrl@@K@Z ; CProject::GetCtrl

; 1029 : 	g_UserMng.AddCreateSfxObj( pCtrl, v1 );

  00023	8b 4c 24 08	 mov	 ecx, DWORD PTR _dwID$[esp-4]
  00027	6a 00		 push	 0
  00029	6a 00		 push	 0
  0002b	6a 00		 push	 0
  0002d	6a 00		 push	 0
  0002f	51		 push	 ecx
  00030	50		 push	 eax
  00031	b9 00 00 00 00	 mov	 ecx, OFFSET FLAT:?g_UserMng@@3VCUserMng@@A
  00036	e8 00 00 00 00	 call	 ?AddCreateSfxObj@CUserMng@@QAEXPAVCCtrl@@KMMMH@Z ; CUserMng::AddCreateSfxObj

; 1030 : 	return 1;

  0003b	b8 01 00 00 00	 mov	 eax, 1

; 1031 : }

  00040	c2 0c 00	 ret	 12			; 0000000cH
?ExpQuestEffect@@YGHPAUNPCDIALOG_INFO@@KH@Z ENDP	; ExpQuestEffect
_TEXT	ENDS
PUBLIC	?RemoveItem@@YGHPAUNPCDIALOG_INFO@@KH@Z		; RemoveItem
EXTRN	?RemoveItemA@CMover@@QAEHKF@Z:NEAR		; CMover::RemoveItemA
; Function compile flags: /Ogty
;	COMDAT ?RemoveItem@@YGHPAUNPCDIALOG_INFO@@KH@Z
_TEXT	SEGMENT
_pInfo$ = 8						; size = 4
_dwID$ = 12						; size = 4
_nCount$ = 16						; size = 4
?RemoveItem@@YGHPAUNPCDIALOG_INFO@@KH@Z PROC NEAR	; RemoveItem, COMDAT

; 1035 : 	int v1 = dwID, v2 = nCount;
; 1036 : 	CUser* pUser = prj.GetUser( pInfo->GetPcId() );

  00000	8b 4c 24 04	 mov	 ecx, DWORD PTR _pInfo$[esp-4]
  00004	8b 01		 mov	 eax, DWORD PTR [ecx]
  00006	ff 50 18	 call	 DWORD PTR [eax+24]
  00009	50		 push	 eax
  0000a	b9 00 00 00 00	 mov	 ecx, OFFSET FLAT:?prj@@3VCProject@@A
  0000f	e8 00 00 00 00	 call	 ?GetUser@CProject@@QAEPAVCUser@@K@Z ; CProject::GetUser

; 1037 : 	return pUser->RemoveItemA( v1, v2 );

  00014	8b 4c 24 0c	 mov	 ecx, DWORD PTR _nCount$[esp-4]
  00018	8b 54 24 08	 mov	 edx, DWORD PTR _dwID$[esp-4]
  0001c	51		 push	 ecx
  0001d	52		 push	 edx
  0001e	8b c8		 mov	 ecx, eax
  00020	e8 00 00 00 00	 call	 ?RemoveItemA@CMover@@QAEHKF@Z ; CMover::RemoveItemA

; 1038 : }

  00025	c2 0c 00	 ret	 12			; 0000000cH
?RemoveItem@@YGHPAUNPCDIALOG_INFO@@KH@Z ENDP		; RemoveItem
_TEXT	ENDS
PUBLIC	?GetQuestId@@YGHPAUNPCDIALOG_INFO@@@Z		; GetQuestId
; Function compile flags: /Ogty
;	COMDAT ?GetQuestId@@YGHPAUNPCDIALOG_INFO@@@Z
_TEXT	SEGMENT
_pInfo$ = 8						; size = 4
?GetQuestId@@YGHPAUNPCDIALOG_INFO@@@Z PROC NEAR		; GetQuestId, COMDAT

; 1054 : 	return pInfo->GetQuest();

  00000	8b 4c 24 04	 mov	 ecx, DWORD PTR _pInfo$[esp-4]
  00004	8b 01		 mov	 eax, DWORD PTR [ecx]
  00006	ff 50 10	 call	 DWORD PTR [eax+16]

; 1055 : }

  00009	c2 04 00	 ret	 4
?GetQuestId@@YGHPAUNPCDIALOG_INFO@@@Z ENDP		; GetQuestId
_TEXT	ENDS
PUBLIC	?GetLang@@YGHPAUNPCDIALOG_INFO@@@Z		; GetLang
EXTRN	?GetLanguage@@YAHXZ:NEAR			; GetLanguage
; Function compile flags: /Ogty
;	COMDAT ?GetLang@@YGHPAUNPCDIALOG_INFO@@@Z
_TEXT	SEGMENT
_pInfo$ = 8						; size = 4
?GetLang@@YGHPAUNPCDIALOG_INFO@@@Z PROC NEAR		; GetLang, COMDAT

; 1058 : 	return ::GetLanguage();

  00000	e8 00 00 00 00	 call	 ?GetLanguage@@YAHXZ	; GetLanguage

; 1059 : }

  00005	c2 04 00	 ret	 4
?GetLang@@YGHPAUNPCDIALOG_INFO@@@Z ENDP			; GetLang
_TEXT	ENDS
PUBLIC	?Trace@@YGHPAUNPCDIALOG_INFO@@PBD@Z		; Trace
; Function compile flags: /Ogty
;	COMDAT ?Trace@@YGHPAUNPCDIALOG_INFO@@PBD@Z
_TEXT	SEGMENT
_pInfo$ = 8						; size = 4
_szMsg$ = 12						; size = 4
?Trace@@YGHPAUNPCDIALOG_INFO@@PBD@Z PROC NEAR		; Trace, COMDAT

; 1077 : 	TRACE( "%s\n", szMsg );
; 1078 : 	return 1;

  00000	b8 01 00 00 00	 mov	 eax, 1

; 1079 : }

  00005	c2 08 00	 ret	 8
?Trace@@YGHPAUNPCDIALOG_INFO@@PBD@Z ENDP		; Trace
_TEXT	ENDS
PUBLIC	?GetPlayerExpPercent@@YGHPAUNPCDIALOG_INFO@@@Z	; GetPlayerExpPercent
EXTRN	?GetExpPercent@CMover@@QAEHXZ:NEAR		; CMover::GetExpPercent
; Function compile flags: /Ogty
;	COMDAT ?GetPlayerExpPercent@@YGHPAUNPCDIALOG_INFO@@@Z
_TEXT	SEGMENT
_pInfo$ = 8						; size = 4
?GetPlayerExpPercent@@YGHPAUNPCDIALOG_INFO@@@Z PROC NEAR ; GetPlayerExpPercent, COMDAT

; 1084 : 	CUser* pUser = prj.GetUser( pInfo->GetPcId() );

  00000	8b 4c 24 04	 mov	 ecx, DWORD PTR _pInfo$[esp-4]
  00004	8b 01		 mov	 eax, DWORD PTR [ecx]
  00006	ff 50 18	 call	 DWORD PTR [eax+24]
  00009	50		 push	 eax
  0000a	b9 00 00 00 00	 mov	 ecx, OFFSET FLAT:?prj@@3VCProject@@A
  0000f	e8 00 00 00 00	 call	 ?GetUser@CProject@@QAEPAVCUser@@K@Z ; CProject::GetUser

; 1085 : 	return pUser->GetExpPercent();

  00014	8b c8		 mov	 ecx, eax
  00016	e8 00 00 00 00	 call	 ?GetExpPercent@CMover@@QAEHXZ ; CMover::GetExpPercent

; 1086 : }

  0001b	c2 04 00	 ret	 4
?GetPlayerExpPercent@@YGHPAUNPCDIALOG_INFO@@@Z ENDP	; GetPlayerExpPercent
_TEXT	ENDS
PUBLIC	?SetLevel@@YGHPAUNPCDIALOG_INFO@@H@Z		; SetLevel
EXTRN	?SetLevel@CMover@@QAEHH@Z:NEAR			; CMover::SetLevel
EXTRN	?SendUpdatePlayerData@CDPDatabaseClient@@QAEXPAVCUser@@@Z:NEAR ; CDPDatabaseClient::SendUpdatePlayerData
EXTRN	?g_dpDBClient@@3VCDPDatabaseClient@@A:BYTE	; g_dpDBClient
; Function compile flags: /Ogty
;	COMDAT ?SetLevel@@YGHPAUNPCDIALOG_INFO@@H@Z
_TEXT	SEGMENT
_pInfo$ = 8						; size = 4
_nSetLevel$ = 12					; size = 4
?SetLevel@@YGHPAUNPCDIALOG_INFO@@H@Z PROC NEAR		; SetLevel, COMDAT

; 1090 : 	CUser* pUser = prj.GetUser( pInfo->GetPcId() );

  00000	8b 4c 24 04	 mov	 ecx, DWORD PTR _pInfo$[esp-4]
  00004	8b 01		 mov	 eax, DWORD PTR [ecx]
  00006	56		 push	 esi
  00007	57		 push	 edi
  00008	ff 50 18	 call	 DWORD PTR [eax+24]
  0000b	50		 push	 eax
  0000c	b9 00 00 00 00	 mov	 ecx, OFFSET FLAT:?prj@@3VCProject@@A
  00011	e8 00 00 00 00	 call	 ?GetUser@CProject@@QAEPAVCUser@@K@Z ; CProject::GetUser

; 1091 : 	int rtn_val = pUser->SetLevel(nSetLevel);

  00016	8b 4c 24 10	 mov	 ecx, DWORD PTR _nSetLevel$[esp+4]
  0001a	8b f0		 mov	 esi, eax
  0001c	51		 push	 ecx
  0001d	8b ce		 mov	 ecx, esi
  0001f	e8 00 00 00 00	 call	 ?SetLevel@CMover@@QAEHH@Z ; CMover::SetLevel

; 1092 : #if __VER >= 11 // __SYS_PLAYER_DATA
; 1093 : 	g_dpDBClient.SendUpdatePlayerData( pUser );

  00024	56		 push	 esi
  00025	b9 00 00 00 00	 mov	 ecx, OFFSET FLAT:?g_dpDBClient@@3VCDPDatabaseClient@@A
  0002a	8b f8		 mov	 edi, eax
  0002c	e8 00 00 00 00	 call	 ?SendUpdatePlayerData@CDPDatabaseClient@@QAEXPAVCUser@@@Z ; CDPDatabaseClient::SendUpdatePlayerData

; 1094 : #endif	// __SYS_PLAYER_DATA
; 1095 : 	return rtn_val;

  00031	8b c7		 mov	 eax, edi
  00033	5f		 pop	 edi
  00034	5e		 pop	 esi

; 1096 : }

  00035	c2 08 00	 ret	 8
?SetLevel@@YGHPAUNPCDIALOG_INFO@@H@Z ENDP		; SetLevel
_TEXT	ENDS
PUBLIC	?AddGPPoint@@YGHPAUNPCDIALOG_INFO@@H@Z		; AddGPPoint
EXTRN	?AddGPPoint@CMover@@QAEHH@Z:NEAR		; CMover::AddGPPoint
; Function compile flags: /Ogty
;	COMDAT ?AddGPPoint@@YGHPAUNPCDIALOG_INFO@@H@Z
_TEXT	SEGMENT
_pInfo$ = 8						; size = 4
_nAddGPPoint$ = 12					; size = 4
?AddGPPoint@@YGHPAUNPCDIALOG_INFO@@H@Z PROC NEAR	; AddGPPoint, COMDAT

; 1100 : 	CUser* pUser = prj.GetUser( pInfo->GetPcId() );

  00000	8b 4c 24 04	 mov	 ecx, DWORD PTR _pInfo$[esp-4]
  00004	8b 01		 mov	 eax, DWORD PTR [ecx]
  00006	ff 50 18	 call	 DWORD PTR [eax+24]
  00009	50		 push	 eax
  0000a	b9 00 00 00 00	 mov	 ecx, OFFSET FLAT:?prj@@3VCProject@@A
  0000f	e8 00 00 00 00	 call	 ?GetUser@CProject@@QAEPAVCUser@@K@Z ; CProject::GetUser

; 1101 : 	return pUser->AddGPPoint(nAddGPPoint);

  00014	8b 4c 24 08	 mov	 ecx, DWORD PTR _nAddGPPoint$[esp-4]
  00018	51		 push	 ecx
  00019	8b c8		 mov	 ecx, eax
  0001b	e8 00 00 00 00	 call	 ?AddGPPoint@CMover@@QAEHH@Z ; CMover::AddGPPoint

; 1102 : }

  00020	c2 08 00	 ret	 8
?AddGPPoint@@YGHPAUNPCDIALOG_INFO@@H@Z ENDP		; AddGPPoint
_TEXT	ENDS
PUBLIC	?GetDialogFunctions@@YAPAUFunctions@@XZ		; GetDialogFunctions
; Function compile flags: /Ogty
;	COMDAT ?GetDialogFunctions@@YAPAUFunctions@@XZ
_TEXT	SEGMENT
?GetDialogFunctions@@YAPAUFunctions@@XZ PROC NEAR	; GetDialogFunctions, COMDAT

; 1108 : 	return &g_functions;

  00000	b8 00 00 00 00	 mov	 eax, OFFSET FLAT:?g_functions@@3UFunctions@@A ; g_functions

; 1109 : }

  00005	c3		 ret	 0
?GetDialogFunctions@@YAPAUFunctions@@XZ ENDP		; GetDialogFunctions
_TEXT	ENDS
PUBLIC	?size@?$vector@UWORMON@@V?$allocator@UWORMON@@@std@@@std@@QBEIXZ ; std::vector<WORMON,std::allocator<WORMON> >::size
; Function compile flags: /Ogty
; File c:\program files\microsoft visual studio .net 2003\vc7\include\vector
;	COMDAT ?size@?$vector@UWORMON@@V?$allocator@UWORMON@@@std@@@std@@QBEIXZ
_TEXT	SEGMENT
?size@?$vector@UWORMON@@V?$allocator@UWORMON@@@std@@@std@@QBEIXZ PROC NEAR ; std::vector<WORMON,std::allocator<WORMON> >::size, COMDAT
; _this$ = ecx

; 516  : 		return (_Myfirst == 0 ? 0 : _Mylast - _Myfirst);

  00000	8b 51 04	 mov	 edx, DWORD PTR [ecx+4]
  00003	85 d2		 test	 edx, edx
  00005	75 03		 jne	 SHORT $L273432
  00007	33 c0		 xor	 eax, eax

; 517  : 		}

  00009	c3		 ret	 0
$L273432:

; 516  : 		return (_Myfirst == 0 ? 0 : _Mylast - _Myfirst);

  0000a	8b 41 08	 mov	 eax, DWORD PTR [ecx+8]
  0000d	2b c2		 sub	 eax, edx
  0000f	c1 f8 04	 sar	 eax, 4

; 517  : 		}

  00012	c3		 ret	 0
?size@?$vector@UWORMON@@V?$allocator@UWORMON@@@std@@@std@@QBEIXZ ENDP ; std::vector<WORMON,std::allocator<WORMON> >::size
_TEXT	ENDS
PUBLIC	?GetMax@?$CItemContainer@VCItemElem@@@@QAEHXZ	; CItemContainer<CItemElem>::GetMax
; Function compile flags: /Ogty
; File c:\documents and settings\test\mes documents\source\virtuos_v17\build\program\_common\item.h
;	COMDAT ?GetMax@?$CItemContainer@VCItemElem@@@@QAEHXZ
_TEXT	SEGMENT
?GetMax@?$CItemContainer@VCItemElem@@@@QAEHXZ PROC NEAR	; CItemContainer<CItemElem>::GetMax, COMDAT
; _this$ = ecx

; 412  : 	int		GetMax() { return int( m_dwItemMax ); }

  00000	8b 41 0c	 mov	 eax, DWORD PTR [ecx+12]
  00003	c3		 ret	 0
?GetMax@?$CItemContainer@VCItemElem@@@@QAEHXZ ENDP	; CItemContainer<CItemElem>::GetMax
_TEXT	ENDS
PUBLIC	??Yiterator@?$vector@UWORMON@@V?$allocator@UWORMON@@@std@@@std@@QAEAAV012@H@Z ; std::vector<WORMON,std::allocator<WORMON> >::iterator::operator+=
; Function compile flags: /Ogty
; File c:\program files\microsoft visual studio .net 2003\vc7\include\vector
;	COMDAT ??Yiterator@?$vector@UWORMON@@V?$allocator@UWORMON@@@std@@@std@@QAEAAV012@H@Z
_TEXT	SEGMENT
__Off$ = 8						; size = 4
??Yiterator@?$vector@UWORMON@@V?$allocator@UWORMON@@@std@@@std@@QAEAAV012@H@Z PROC NEAR ; std::vector<WORMON,std::allocator<WORMON> >::iterator::operator+=, COMDAT
; _this$ = ecx

; 255  : 			{	// increment by integer

  00000	8b c1		 mov	 eax, ecx

; 256  : 			this->_Myptr += _Off;

  00002	8b 4c 24 04	 mov	 ecx, DWORD PTR __Off$[esp-4]
  00006	8b 10		 mov	 edx, DWORD PTR [eax]
  00008	c1 e1 04	 shl	 ecx, 4
  0000b	03 d1		 add	 edx, ecx
  0000d	89 10		 mov	 DWORD PTR [eax], edx

; 257  : 			return (*this);
; 258  : 			}

  0000f	c2 04 00	 ret	 4
??Yiterator@?$vector@UWORMON@@V?$allocator@UWORMON@@@std@@@std@@QAEAAV012@H@Z ENDP ; std::vector<WORMON,std::allocator<WORMON> >::iterator::operator+=
_TEXT	ENDS
PUBLIC	??Dconst_iterator@?$vector@UWORMON@@V?$allocator@UWORMON@@@std@@@std@@QBEABUWORMON@@XZ ; std::vector<WORMON,std::allocator<WORMON> >::const_iterator::operator*
; Function compile flags: /Ogty
;	COMDAT ??Dconst_iterator@?$vector@UWORMON@@V?$allocator@UWORMON@@@std@@@std@@QBEABUWORMON@@XZ
_TEXT	SEGMENT
??Dconst_iterator@?$vector@UWORMON@@V?$allocator@UWORMON@@@std@@@std@@QBEABUWORMON@@XZ PROC NEAR ; std::vector<WORMON,std::allocator<WORMON> >::const_iterator::operator*, COMDAT
; _this$ = ecx

; 80   : 
; 81   : 
; 82   : 			return (*_Myptr);

  00000	8b 01		 mov	 eax, DWORD PTR [ecx]

; 83   : 			}

  00002	c3		 ret	 0
??Dconst_iterator@?$vector@UWORMON@@V?$allocator@UWORMON@@@std@@@std@@QBEABUWORMON@@XZ ENDP ; std::vector<WORMON,std::allocator<WORMON> >::const_iterator::operator*
_TEXT	ENDS
PUBLIC	??0const_iterator@?$vector@UWORMON@@V?$allocator@UWORMON@@@std@@@std@@QAE@PAUWORMON@@@Z ; std::vector<WORMON,std::allocator<WORMON> >::const_iterator::const_iterator
; Function compile flags: /Ogty
;	COMDAT ??0const_iterator@?$vector@UWORMON@@V?$allocator@UWORMON@@@std@@@std@@QAE@PAUWORMON@@@Z
_TEXT	SEGMENT
__Ptr$ = 8						; size = 4
??0const_iterator@?$vector@UWORMON@@V?$allocator@UWORMON@@@std@@@std@@QAE@PAUWORMON@@@Z PROC NEAR ; std::vector<WORMON,std::allocator<WORMON> >::const_iterator::const_iterator, COMDAT
; _this$ = ecx

; 73   : 		const_iterator(_Tptr _Ptr)

  00000	8b c1		 mov	 eax, ecx

; 74   : 			{	// construct with pointer _Ptr
; 75   : 			_Myptr = _Ptr;

  00002	8b 4c 24 04	 mov	 ecx, DWORD PTR __Ptr$[esp-4]
  00006	89 08		 mov	 DWORD PTR [eax], ecx

; 76   : 			}

  00008	c2 04 00	 ret	 4
??0const_iterator@?$vector@UWORMON@@V?$allocator@UWORMON@@@std@@@std@@QAE@PAUWORMON@@@Z ENDP ; std::vector<WORMON,std::allocator<WORMON> >::const_iterator::const_iterator
_TEXT	ENDS
PUBLIC	??0D3DXVECTOR3@@QAE@XZ				; D3DXVECTOR3::D3DXVECTOR3
; Function compile flags: /Ogty
; File c:\documents and settings\test\mes documents\source\virtuos_v17\build\program\dx_sdk\d3dx9math.h
;	COMDAT ??0D3DXVECTOR3@@QAE@XZ
_TEXT	SEGMENT
??0D3DXVECTOR3@@QAE@XZ PROC NEAR			; D3DXVECTOR3::D3DXVECTOR3, COMDAT
; _this$ = ecx

; 165  :     D3DXVECTOR3() {};

  00000	8b c1		 mov	 eax, ecx
  00002	c3		 ret	 0
??0D3DXVECTOR3@@QAE@XZ ENDP				; D3DXVECTOR3::D3DXVECTOR3
_TEXT	ENDS
PUBLIC	??0D3DXVECTOR3@@QAE@MMM@Z			; D3DXVECTOR3::D3DXVECTOR3
; Function compile flags: /Ogty
; File c:\documents and settings\test\mes documents\source\virtuos_v17\build\program\dx_sdk\d3dx9math.inl
;	COMDAT ??0D3DXVECTOR3@@QAE@MMM@Z
_TEXT	SEGMENT
_fx$ = 8						; size = 4
_fy$ = 12						; size = 4
_fz$ = 16						; size = 4
??0D3DXVECTOR3@@QAE@MMM@Z PROC NEAR			; D3DXVECTOR3::D3DXVECTOR3, COMDAT
; _this$ = ecx

; 300  :     x = fx;
; 301  :     y = fy;

  00000	8b 54 24 08	 mov	 edx, DWORD PTR _fy$[esp-4]
  00004	8b c1		 mov	 eax, ecx
  00006	8b 4c 24 04	 mov	 ecx, DWORD PTR _fx$[esp-4]
  0000a	89 08		 mov	 DWORD PTR [eax], ecx

; 302  :     z = fz;

  0000c	8b 4c 24 0c	 mov	 ecx, DWORD PTR _fz$[esp-4]
  00010	89 50 04	 mov	 DWORD PTR [eax+4], edx
  00013	89 48 08	 mov	 DWORD PTR [eax+8], ecx

; 303  : }

  00016	c2 0c 00	 ret	 12			; 0000000cH
??0D3DXVECTOR3@@QAE@MMM@Z ENDP				; D3DXVECTOR3::D3DXVECTOR3
_TEXT	ENDS
PUBLIC	??_C@_00CNPNBAHC@?$AA@				; `string'
PUBLIC	??0_LogItemInfo@@QAE@XZ				; _LogItemInfo::_LogItemInfo
;	COMDAT ??_C@_00CNPNBAHC@?$AA@
; File c:\documents and settings\test\mes documents\source\virtuos_v17\build\program\_network\cmnhdr.h
CONST	SEGMENT
??_C@_00CNPNBAHC@?$AA@ DB 00H				; `string'
; Function compile flags: /Ogty
CONST	ENDS
;	COMDAT ??0_LogItemInfo@@QAE@XZ
_TEXT	SEGMENT
??0_LogItemInfo@@QAE@XZ PROC NEAR			; _LogItemInfo::_LogItemInfo, COMDAT
; _this$ = ecx

; 641  : 	_LogItemInfo()

  00000	8b c1		 mov	 eax, ecx
  00002	56		 push	 esi

; 642  : 	{
; 643  : 		Action = _T("");
; 644  : 		SendName = _T("");
; 645  : 		RecvName = _T("");
; 646  : 		WorldId = Gold = Gold2 = 0;
; 647  : 		Negudo = 0;
; 648  : 		MaxNegudo = 0;
; 649  : 		ItemNo = 0;
; 650  : 		//ItemName = _T("");
; 651  : 		::memset( szItemName, 0, sizeof(szItemName) );

  00003	33 d2		 xor	 edx, edx
  00005	b9 00 00 00 00	 mov	 ecx, OFFSET FLAT:??_C@_00CNPNBAHC@?$AA@
  0000a	89 08		 mov	 DWORD PTR [eax], ecx
  0000c	89 48 04	 mov	 DWORD PTR [eax+4], ecx
  0000f	89 48 08	 mov	 DWORD PTR [eax+8], ecx
  00012	33 c9		 xor	 ecx, ecx
  00014	89 48 14	 mov	 DWORD PTR [eax+20], ecx
  00017	89 48 10	 mov	 DWORD PTR [eax+16], ecx
  0001a	89 48 0c	 mov	 DWORD PTR [eax+12], ecx
  0001d	89 48 1c	 mov	 DWORD PTR [eax+28], ecx
  00020	89 48 20	 mov	 DWORD PTR [eax+32], ecx
  00023	89 48 18	 mov	 DWORD PTR [eax+24], ecx
  00026	8d 70 24	 lea	 esi, DWORD PTR [eax+36]
  00029	89 16		 mov	 DWORD PTR [esi], edx
  0002b	89 56 04	 mov	 DWORD PTR [esi+4], edx
  0002e	89 56 08	 mov	 DWORD PTR [esi+8], edx
  00031	89 56 0c	 mov	 DWORD PTR [esi+12], edx
  00034	89 56 10	 mov	 DWORD PTR [esi+16], edx
  00037	89 56 14	 mov	 DWORD PTR [esi+20], edx
  0003a	89 56 18	 mov	 DWORD PTR [esi+24], edx
  0003d	89 56 1c	 mov	 DWORD PTR [esi+28], edx

; 652  : 		itemNumber = 0;

  00040	89 48 44	 mov	 DWORD PTR [eax+68], ecx

; 653  : 		nAbilityOption = 0;

  00043	89 48 48	 mov	 DWORD PTR [eax+72], ecx

; 654  : 		Gold_1 = 0;

  00046	89 48 4c	 mov	 DWORD PTR [eax+76], ecx

; 655  : 		nSlot = 100;
; 656  : 		nSlot1 = 100;
; 657  : 		nItemResist = 0;

  00049	89 48 58	 mov	 DWORD PTR [eax+88], ecx

; 658  : 		nResistAbilityOption = 0;

  0004c	89 48 5c	 mov	 DWORD PTR [eax+92], ecx

; 659  : 		m_bCharged = FALSE;

  0004f	89 48 60	 mov	 DWORD PTR [eax+96], ecx

; 660  : 		m_dwKeepTime = 0;

  00052	89 48 64	 mov	 DWORD PTR [eax+100], ecx

; 661  : #if __VER >= 11 // __SYS_IDENTIFY
; 662  : 		m_iRandomOptItemId = 0;

  00055	89 48 68	 mov	 DWORD PTR [eax+104], ecx
  00058	89 48 6c	 mov	 DWORD PTR [eax+108], ecx

; 663  : #else	//__SYS_IDENTIFY
; 664  : 		m_nRandomOptItemId = 0;
; 665  : #endif	// __SYS_IDENTIFY
; 666  : #if __VER >= 12 // __EXT_PIERCING
; 667  : 		nPiercedSize = 0;

  0005b	89 48 70	 mov	 DWORD PTR [eax+112], ecx
  0005e	ba 64 00 00 00	 mov	 edx, 100		; 00000064H
  00063	89 50 50	 mov	 DWORD PTR [eax+80], edx
  00066	89 50 54	 mov	 DWORD PTR [eax+84], edx

; 668  : //		for( int i=0; i<MAX_PIERCING_WEAPON; i++ )
; 669  : //			adwItemId[i] = 0;
; 670  : 		memset( adwItemId, 0, sizeof(adwItemId) );

  00069	33 d2		 xor	 edx, edx
  0006b	8d 70 74	 lea	 esi, DWORD PTR [eax+116]
  0006e	89 16		 mov	 DWORD PTR [esi], edx
  00070	89 56 04	 mov	 DWORD PTR [esi+4], edx
  00073	89 56 08	 mov	 DWORD PTR [esi+8], edx
  00076	89 56 0c	 mov	 DWORD PTR [esi+12], edx
  00079	89 56 10	 mov	 DWORD PTR [esi+16], edx
  0007c	89 56 14	 mov	 DWORD PTR [esi+20], edx
  0007f	89 56 18	 mov	 DWORD PTR [esi+24], edx
  00082	89 56 1c	 mov	 DWORD PTR [esi+28], edx
  00085	89 56 20	 mov	 DWORD PTR [esi+32], edx
  00088	89 56 24	 mov	 DWORD PTR [esi+36], edx

; 671  : 		nUMPiercedSize = 0;

  0008b	89 88 9c 00 00
	00		 mov	 DWORD PTR [eax+156], ecx

; 672  : //		for( i=0; i<MAX_PIERCING_ULTIMATE; i++ )
; 673  : //	adwUMItemId[i] = 0;
; 674  : 		memset( adwUMItemId, 0, sizeof(adwUMItemId) );

  00091	8d b0 a0 00 00
	00		 lea	 esi, DWORD PTR [eax+160]
  00097	89 16		 mov	 DWORD PTR [esi], edx
  00099	89 56 04	 mov	 DWORD PTR [esi+4], edx
  0009c	89 56 08	 mov	 DWORD PTR [esi+8], edx
  0009f	89 56 0c	 mov	 DWORD PTR [esi+12], edx
  000a2	89 56 10	 mov	 DWORD PTR [esi+16], edx

; 675  : #else // __EXT_PIERCING
; 676  : 		nPiercedSize = 0;
; 677  : 		adwItemId0 = 0;
; 678  : 		adwItemId1 = 0;
; 679  : 		adwItemId2 = 0;
; 680  : 		adwItemId3 = 0;
; 681  : #if __VER >= 9 // __ULTIMATE
; 682  : 		adwItemId4 = 0;
; 683  : #endif // __ULTIMATE
; 684  : #endif // __EXT_PIERCING
; 685  : #if __VER >= 9 // __PET_0410
; 686  : 		nPetKind = 0;

  000a5	88 88 b4 00 00
	00		 mov	 BYTE PTR [eax+180], cl

; 687  : 		nPetLevel = 0;

  000ab	88 88 b5 00 00
	00		 mov	 BYTE PTR [eax+181], cl

; 688  : 		dwPetExp = 0;

  000b1	89 88 b8 00 00
	00		 mov	 DWORD PTR [eax+184], ecx

; 689  : 		wPetEnergy = 0;

  000b7	66 89 88 bc 00
	00 00		 mov	 WORD PTR [eax+188], cx

; 690  : 		wPetLife = 0;

  000be	66 89 88 be 00
	00 00		 mov	 WORD PTR [eax+190], cx

; 691  : 		nPetAL_D = 0;

  000c5	88 88 c0 00 00
	00		 mov	 BYTE PTR [eax+192], cl

; 692  : 		nPetAL_C = 0;

  000cb	88 88 c1 00 00
	00		 mov	 BYTE PTR [eax+193], cl

; 693  : 		nPetAL_B = 0;

  000d1	88 88 c2 00 00
	00		 mov	 BYTE PTR [eax+194], cl

; 694  : 		nPetAL_A = 0;

  000d7	88 88 c3 00 00
	00		 mov	 BYTE PTR [eax+195], cl

; 695  : 		nPetAL_S = 0;

  000dd	88 88 c4 00 00
	00		 mov	 BYTE PTR [eax+196], cl
  000e3	5e		 pop	 esi

; 696  : #endif // __PET_0410
; 697  : 	}

  000e4	c3		 ret	 0
??0_LogItemInfo@@QAE@XZ ENDP				; _LogItemInfo::_LogItemInfo
_TEXT	ENDS
PUBLIC	??_H@YGXPAXIHP6EPAX0@Z@Z			; `vector constructor iterator'
; Function compile flags: /Ogty
;	COMDAT ??_H@YGXPAXIHP6EPAX0@Z@Z
_TEXT	SEGMENT
___t$ = 8						; size = 4
___s$ = 12						; size = 4
___n$ = 16						; size = 4
___f$ = 20						; size = 4
??_H@YGXPAXIHP6EPAX0@Z@Z PROC NEAR			; `vector constructor iterator', COMDAT
  00000	8b 44 24 0c	 mov	 eax, DWORD PTR ___n$[esp-4]
  00004	48		 dec	 eax
  00005	78 26		 js	 SHORT $L171564
  00007	53		 push	 ebx
  00008	8b 5c 24 14	 mov	 ebx, DWORD PTR ___f$[esp]
  0000c	55		 push	 ebp
  0000d	8b 6c 24 10	 mov	 ebp, DWORD PTR ___s$[esp+4]
  00011	56		 push	 esi
  00012	8b 74 24 10	 mov	 esi, DWORD PTR ___t$[esp+8]
  00016	57		 push	 edi
  00017	8d 78 01	 lea	 edi, DWORD PTR [eax+1]
  0001a	8d 9b 00 00 00
	00		 npad	 6
$L171563:
  00020	8b ce		 mov	 ecx, esi
  00022	ff d3		 call	 ebx
  00024	03 f5		 add	 esi, ebp
  00026	4f		 dec	 edi
  00027	75 f7		 jne	 SHORT $L171563
  00029	5f		 pop	 edi
  0002a	5e		 pop	 esi
  0002b	5d		 pop	 ebp
  0002c	5b		 pop	 ebx
$L171564:
  0002d	c2 10 00	 ret	 16			; 00000010H
??_H@YGXPAXIHP6EPAX0@Z@Z ENDP				; `vector constructor iterator'
_TEXT	ENDS
PUBLIC	?xRand@@YAKXZ					; xRand
EXTRN	?g_next@@3KA:DWORD				; g_next
; Function compile flags: /Ogty
; File c:\documents and settings\test\mes documents\source\virtuos_v17\build\program\_common\xutil.h
;	COMDAT ?xRand@@YAKXZ
_TEXT	SEGMENT
?xRand@@YAKXZ PROC NEAR					; xRand, COMDAT

; 16   : 	g_next = g_next * 1103515245 + 12345;// + nRandomSeed[ i++ ];

  00000	a1 00 00 00 00	 mov	 eax, DWORD PTR ?g_next@@3KA ; g_next
  00005	69 c0 6d 4e c6
	41		 imul	 eax, 1103515245		; 41c64e6dH
  0000b	05 39 30 00 00	 add	 eax, 12345		; 00003039H
  00010	a3 00 00 00 00	 mov	 DWORD PTR ?g_next@@3KA, eax ; g_next

; 17   : 	return g_next;	//   .
; 18   : }

  00015	c3		 ret	 0
?xRand@@YAKXZ ENDP					; xRand
_TEXT	ENDS
PUBLIC	?xRandom@@YAKK@Z				; xRandom
; Function compile flags: /Ogty
;	COMDAT ?xRandom@@YAKK@Z
_TEXT	SEGMENT
_num$ = 8						; size = 4
?xRandom@@YAKK@Z PROC NEAR				; xRandom, COMDAT

; 22   : 	return  xRand() % num;

  00000	a1 00 00 00 00	 mov	 eax, DWORD PTR ?g_next@@3KA ; g_next
  00005	69 c0 6d 4e c6
	41		 imul	 eax, 1103515245		; 41c64e6dH
  0000b	05 39 30 00 00	 add	 eax, 12345		; 00003039H
  00010	a3 00 00 00 00	 mov	 DWORD PTR ?g_next@@3KA, eax ; g_next
  00015	33 d2		 xor	 edx, edx
  00017	f7 74 24 04	 div	 DWORD PTR _num$[esp-4]
  0001b	8b c2		 mov	 eax, edx

; 23   : }

  0001d	c3		 ret	 0
?xRandom@@YAKK@Z ENDP					; xRandom
_TEXT	ENDS
PUBLIC	?IsDelete@CObj@@QAEHXZ				; CObj::IsDelete
; Function compile flags: /Ogty
; File c:\documents and settings\test\mes documents\source\virtuos_v17\build\program\_common\obj.h
;	COMDAT ?IsDelete@CObj@@QAEHXZ
_TEXT	SEGMENT
?IsDelete@CObj@@QAEHXZ PROC NEAR			; CObj::IsDelete, COMDAT
; _this$ = ecx

; 180  : 	BOOL			IsDelete()	{ return (m_dwFlags & OBJ_FLAG_DELETE);  }

  00000	8b 41 04	 mov	 eax, DWORD PTR [ecx+4]
  00003	83 e0 01	 and	 eax, 1
  00006	c3		 ret	 0
?IsDelete@CObj@@QAEHXZ ENDP				; CObj::IsDelete
_TEXT	ENDS
PUBLIC	?GetType@CObj@@QAEKXZ				; CObj::GetType
; Function compile flags: /Ogty
;	COMDAT ?GetType@CObj@@QAEKXZ
_TEXT	SEGMENT
?GetType@CObj@@QAEKXZ PROC NEAR				; CObj::GetType, COMDAT
; _this$ = ecx

; 206  : 	DWORD			GetType() { return m_dwType; }

  00000	8b 81 70 01 00
	00		 mov	 eax, DWORD PTR [ecx+368]
  00006	c3		 ret	 0
?GetType@CObj@@QAEKXZ ENDP				; CObj::GetType
_TEXT	ENDS
PUBLIC	?GetPos@CObj@@QAE?AUD3DXVECTOR3@@XZ		; CObj::GetPos
; Function compile flags: /Ogty
;	COMDAT ?GetPos@CObj@@QAE?AUD3DXVECTOR3@@XZ
_TEXT	SEGMENT
___$ReturnUdt$ = 8					; size = 4
?GetPos@CObj@@QAE?AUD3DXVECTOR3@@XZ PROC NEAR		; CObj::GetPos, COMDAT
; _this$ = ecx

; 215  : 	D3DXVECTOR3		GetPos()	{ return m_vPos; }

  00000	8b 44 24 04	 mov	 eax, DWORD PTR ___$ReturnUdt$[esp-4]
  00004	81 c1 60 01 00
	00		 add	 ecx, 352		; 00000160H
  0000a	56		 push	 esi
  0000b	8b 31		 mov	 esi, DWORD PTR [ecx]
  0000d	8b d0		 mov	 edx, eax
  0000f	89 32		 mov	 DWORD PTR [edx], esi
  00011	8b 71 04	 mov	 esi, DWORD PTR [ecx+4]
  00014	89 72 04	 mov	 DWORD PTR [edx+4], esi
  00017	8b 49 08	 mov	 ecx, DWORD PTR [ecx+8]
  0001a	89 4a 08	 mov	 DWORD PTR [edx+8], ecx
  0001d	5e		 pop	 esi
  0001e	c2 04 00	 ret	 4
?GetPos@CObj@@QAE?AUD3DXVECTOR3@@XZ ENDP		; CObj::GetPos
_TEXT	ENDS
PUBLIC	?GetWorld@CObj@@QAEPAVCWorld@@XZ		; CObj::GetWorld
; Function compile flags: /Ogty
;	COMDAT ?GetWorld@CObj@@QAEPAVCWorld@@XZ
_TEXT	SEGMENT
?GetWorld@CObj@@QAEPAVCWorld@@XZ PROC NEAR		; CObj::GetWorld, COMDAT
; _this$ = ecx

; 221  : 	CWorld*			GetWorld()	{ return m_pWorld; }

  00000	8b 81 6c 01 00
	00		 mov	 eax, DWORD PTR [ecx+364]
  00006	c3		 ret	 0
?GetWorld@CObj@@QAEPAVCWorld@@XZ ENDP			; CObj::GetWorld
_TEXT	ENDS
PUBLIC	?GetLayer@CObj@@QAEHXZ				; CObj::GetLayer
; Function compile flags: /Ogty
;	COMDAT ?GetLayer@CObj@@QAEHXZ
_TEXT	SEGMENT
?GetLayer@CObj@@QAEHXZ PROC NEAR			; CObj::GetLayer, COMDAT
; _this$ = ecx

; 247  : 	int		GetLayer()	{	return m_nLayer;	}

  00000	8b 81 b8 01 00
	00		 mov	 eax, DWORD PTR [ecx+440]
  00006	c3		 ret	 0
?GetLayer@CObj@@QAEHXZ ENDP				; CObj::GetLayer
_TEXT	ENDS
PUBLIC	?IsValidObj@@YAHPAVCObj@@@Z			; IsValidObj
; Function compile flags: /Ogty
;	COMDAT ?IsValidObj@@YAHPAVCObj@@@Z
_TEXT	SEGMENT
_pObj$ = 8						; size = 4
?IsValidObj@@YAHPAVCObj@@@Z PROC NEAR			; IsValidObj, COMDAT

; 327  : 	return pObj && ( pObj->IsDelete() == FALSE ); 

  00000	8b 44 24 04	 mov	 eax, DWORD PTR _pObj$[esp-4]
  00004	85 c0		 test	 eax, eax
  00006	74 0c		 je	 SHORT $L273487
  00008	f6 40 04 01	 test	 BYTE PTR [eax+4], 1
  0000c	75 06		 jne	 SHORT $L273487
  0000e	b8 01 00 00 00	 mov	 eax, 1

; 328  : }

  00013	c3		 ret	 0
$L273487:

; 327  : 	return pObj && ( pObj->IsDelete() == FALSE ); 

  00014	33 c0		 xor	 eax, eax

; 328  : }

  00016	c3		 ret	 0
?IsValidObj@@YAHPAVCObj@@@Z ENDP			; IsValidObj
_TEXT	ENDS
PUBLIC	?GetId@CCtrl@@QAEKXZ				; CCtrl::GetId
; Function compile flags: /Ogty
; File c:\documents and settings\test\mes documents\source\virtuos_v17\build\program\_common\ctrl.h
;	COMDAT ?GetId@CCtrl@@QAEKXZ
_TEXT	SEGMENT
?GetId@CCtrl@@QAEKXZ PROC NEAR				; CCtrl::GetId, COMDAT
; _this$ = ecx

; 58   : 	OBJID			GetId()					{ return m_objid;   }

  00000	8b 81 bc 01 00
	00		 mov	 eax, DWORD PTR [ecx+444]
  00006	c3		 ret	 0
?GetId@CCtrl@@QAEKXZ ENDP				; CCtrl::GetId
_TEXT	ENDS
PUBLIC	?LOG_RANGE@@YAXPBDHHH@Z				; LOG_RANGE
PUBLIC	??_C@_0BM@HMFGHCP@?$CFs?5min?3?$CFd?0?5max?3?$CFd?0?5index?3?$CFd?$AA@ ; `string'
EXTRN	?Error@@YAPBDPBDZZ:NEAR				; Error
;	COMDAT ??_C@_0BM@HMFGHCP@?$CFs?5min?3?$CFd?0?5max?3?$CFd?0?5index?3?$CFd?$AA@
; File c:\documents and settings\test\mes documents\source\virtuos_v17\build\program\_common\project.h
CONST	SEGMENT
??_C@_0BM@HMFGHCP@?$CFs?5min?3?$CFd?0?5max?3?$CFd?0?5index?3?$CFd?$AA@ DB '%'
	DB	's min:%d, max:%d, index:%d', 00H		; `string'
; Function compile flags: /Ogty
CONST	ENDS
;	COMDAT ?LOG_RANGE@@YAXPBDHHH@Z
_TEXT	SEGMENT
_szMsg$ = 8						; size = 4
_nMin$ = 12						; size = 4
_nMax$ = 16						; size = 4
_nIndex$ = 20						; size = 4
?LOG_RANGE@@YAXPBDHHH@Z PROC NEAR			; LOG_RANGE, COMDAT

; 559  : 	LPCTSTR szErr = Error( _T( "%s min:%d, max:%d, index:%d" ), szMsg, nMin, nMax, nIndex ); 

  00000	8b 44 24 10	 mov	 eax, DWORD PTR _nIndex$[esp-4]
  00004	8b 4c 24 0c	 mov	 ecx, DWORD PTR _nMax$[esp-4]
  00008	8b 54 24 08	 mov	 edx, DWORD PTR _nMin$[esp-4]
  0000c	50		 push	 eax
  0000d	8b 44 24 08	 mov	 eax, DWORD PTR _szMsg$[esp]
  00011	51		 push	 ecx
  00012	52		 push	 edx
  00013	50		 push	 eax
  00014	68 00 00 00 00	 push	 OFFSET FLAT:??_C@_0BM@HMFGHCP@?$CFs?5min?3?$CFd?0?5max?3?$CFd?0?5index?3?$CFd?$AA@
  00019	e8 00 00 00 00	 call	 ?Error@@YAPBDPBDZZ	; Error
  0001e	83 c4 14	 add	 esp, 20			; 00000014H

; 560  : 	ADDERRORMSG( szErr ); 
; 561  : }

  00021	c3		 ret	 0
?LOG_RANGE@@YAXPBDHHH@Z ENDP				; LOG_RANGE
_TEXT	ENDS
PUBLIC	?LOG_CALLSTACK@@YAXXZ				; LOG_CALLSTACK
; Function compile flags: /Ogty
;	COMDAT ?LOG_CALLSTACK@@YAXXZ
_TEXT	SEGMENT
?LOG_CALLSTACK@@YAXXZ PROC NEAR				; LOG_CALLSTACK, COMDAT

; 565  : #ifdef _DEBUG
; 566  : 	__asm int 3
; 567  : #endif
; 568  : 
; 569  : #if defined(__INTERNALSERVER)
; 570  : 	int *p = NULL;		//    
; 571  : 	*p = 1;
; 572  : #endif
; 573  : }

  00000	c3		 ret	 0
?LOG_CALLSTACK@@YAXXZ ENDP				; LOG_CALLSTACK
_TEXT	ENDS
PUBLIC	?IsEmpty@CItemBase@@QAEHXZ			; CItemBase::IsEmpty
; Function compile flags: /Ogty
; File c:\documents and settings\test\mes documents\source\virtuos_v17\build\program\_common\item.h
;	COMDAT ?IsEmpty@CItemBase@@QAEHXZ
_TEXT	SEGMENT
?IsEmpty@CItemBase@@QAEHXZ PROC NEAR			; CItemBase::IsEmpty, COMDAT
; _this$ = ecx

; 48   : 	BOOL			IsEmpty() { return m_dwItemId ? FALSE : TRUE; }

  00000	8b 51 0c	 mov	 edx, DWORD PTR [ecx+12]
  00003	33 c0		 xor	 eax, eax
  00005	85 d2		 test	 edx, edx
  00007	0f 94 c0	 sete	 al
  0000a	c3		 ret	 0
?IsEmpty@CItemBase@@QAEHXZ ENDP				; CItemBase::IsEmpty
_TEXT	ENDS
PUBLIC	?SetAbilityOption@CItemElem@@QAEXH@Z		; CItemElem::SetAbilityOption
; Function compile flags: /Ogty
;	COMDAT ?SetAbilityOption@CItemElem@@QAEXH@Z
_TEXT	SEGMENT
_nAbilityOption$ = 8					; size = 4
?SetAbilityOption@CItemElem@@QAEXH@Z PROC NEAR		; CItemElem::SetAbilityOption, COMDAT
; _this$ = ecx

; 237  : 	void		SetAbilityOption( int nAbilityOption ) { m_nAbilityOption = nAbilityOption; }

  00000	8b 44 24 04	 mov	 eax, DWORD PTR _nAbilityOption$[esp-4]
  00004	89 41 70	 mov	 DWORD PTR [ecx+112], eax
  00007	c2 04 00	 ret	 4
?SetAbilityOption@CItemElem@@QAEXH@Z ENDP		; CItemElem::SetAbilityOption
_TEXT	ENDS
PUBLIC	?GetPartyId@CMover@@QAEKXZ			; CMover::GetPartyId
; Function compile flags: /Ogty
; File c:\documents and settings\test\mes documents\source\virtuos_v17\build\program\_common\mover.h
;	COMDAT ?GetPartyId@CMover@@QAEKXZ
_TEXT	SEGMENT
?GetPartyId@CMover@@QAEKXZ PROC NEAR			; CMover::GetPartyId, COMDAT
; _this$ = ecx

; 1025 : 	u_long			GetPartyId() { return m_idparty; }

  00000	8b 81 18 07 00
	00		 mov	 eax, DWORD PTR [ecx+1816]
  00006	c3		 ret	 0
?GetPartyId@CMover@@QAEKXZ ENDP				; CMover::GetPartyId
_TEXT	ENDS
PUBLIC	?IsPlayer@CMover@@QAEHXZ			; CMover::IsPlayer
; Function compile flags: /Ogty
;	COMDAT ?IsPlayer@CMover@@QAEHXZ
_TEXT	SEGMENT
?IsPlayer@CMover@@QAEHXZ PROC NEAR			; CMover::IsPlayer, COMDAT
; _this$ = ecx

; 1042 : 	BOOL			IsPlayer()			{ return m_bPlayer; }

  00000	8b 81 34 02 00
	00		 mov	 eax, DWORD PTR [ecx+564]
  00006	c3		 ret	 0
?IsPlayer@CMover@@QAEHXZ ENDP				; CMover::IsPlayer
_TEXT	ENDS
PUBLIC	?IsAuthHigher@CMover@@QAEKK@Z			; CMover::IsAuthHigher
; Function compile flags: /Ogty
;	COMDAT ?IsAuthHigher@CMover@@QAEKK@Z
_TEXT	SEGMENT
_dwAuthorization$ = 8					; size = 4
?IsAuthHigher@CMover@@QAEKK@Z PROC NEAR			; CMover::IsAuthHigher, COMDAT
; _this$ = ecx

; 1116 : 	DWORD			IsAuthHigher( DWORD dwAuthorization ) { return dwAuthorization <= m_dwAuthorization; }

  00000	8b 81 48 06 00
	00		 mov	 eax, DWORD PTR [ecx+1608]
  00006	3b 44 24 04	 cmp	 eax, DWORD PTR _dwAuthorization$[esp-4]
  0000a	1b c0		 sbb	 eax, eax
  0000c	40		 inc	 eax
  0000d	c2 04 00	 ret	 4
?IsAuthHigher@CMover@@QAEKK@Z ENDP			; CMover::IsAuthHigher
_TEXT	ENDS
PUBLIC	?GetSex@CMover@@QAEEXZ				; CMover::GetSex
; Function compile flags: /Ogty
;	COMDAT ?GetSex@CMover@@QAEEXZ
_TEXT	SEGMENT
?GetSex@CMover@@QAEEXZ PROC NEAR			; CMover::GetSex, COMDAT
; _this$ = ecx

; 1144 : 	BYTE			GetSex() { return m_bySex; }

  00000	8a 81 20 06 00
	00		 mov	 al, BYTE PTR [ecx+1568]
  00006	c3		 ret	 0
?GetSex@CMover@@QAEEXZ ENDP				; CMover::GetSex
_TEXT	ENDS
PUBLIC	?GetLevel@CMover@@QAEHXZ			; CMover::GetLevel
; Function compile flags: /Ogty
;	COMDAT ?GetLevel@CMover@@QAEHXZ
_TEXT	SEGMENT
?GetLevel@CMover@@QAEHXZ PROC NEAR			; CMover::GetLevel, COMDAT
; _this$ = ecx

; 1159 : 	int				GetLevel() { return m_nLevel; }

  00000	8b 81 e0 05 00
	00		 mov	 eax, DWORD PTR [ecx+1504]
  00006	c3		 ret	 0
?GetLevel@CMover@@QAEHXZ ENDP				; CMover::GetLevel
_TEXT	ENDS
PUBLIC	?GetExp1@CMover@@QAE_JXZ			; CMover::GetExp1
; Function compile flags: /Ogty
;	COMDAT ?GetExp1@CMover@@QAE_JXZ
_TEXT	SEGMENT
?GetExp1@CMover@@QAE_JXZ PROC NEAR			; CMover::GetExp1, COMDAT
; _this$ = ecx

; 1162 : 	EXPINTEGER		GetExp1()	{	return m_nExp1;	}

  00000	8b 81 e8 05 00
	00		 mov	 eax, DWORD PTR [ecx+1512]
  00006	8b 91 ec 05 00
	00		 mov	 edx, DWORD PTR [ecx+1516]
  0000c	c3		 ret	 0
?GetExp1@CMover@@QAE_JXZ ENDP				; CMover::GetExp1
_TEXT	ENDS
PUBLIC	?SetStr@CMover@@QAEXH@Z				; CMover::SetStr
; Function compile flags: /Ogty
;	COMDAT ?SetStr@CMover@@QAEXH@Z
_TEXT	SEGMENT
_nStr$ = 8						; size = 4
?SetStr@CMover@@QAEXH@Z PROC NEAR			; CMover::SetStr, COMDAT
; _this$ = ecx

; 1201 : 	void			SetStr( int nStr ) { m_nStr = nStr; }

  00000	8b 44 24 04	 mov	 eax, DWORD PTR _nStr$[esp-4]
  00004	89 81 d0 05 00
	00		 mov	 DWORD PTR [ecx+1488], eax
  0000a	c2 04 00	 ret	 4
?SetStr@CMover@@QAEXH@Z ENDP				; CMover::SetStr
_TEXT	ENDS
PUBLIC	?SetSta@CMover@@QAEXH@Z				; CMover::SetSta
; Function compile flags: /Ogty
;	COMDAT ?SetSta@CMover@@QAEXH@Z
_TEXT	SEGMENT
_nSta$ = 8						; size = 4
?SetSta@CMover@@QAEXH@Z PROC NEAR			; CMover::SetSta, COMDAT
; _this$ = ecx

; 1202 : 	void			SetSta( int nSta ) { m_nSta = nSta; }

  00000	8b 44 24 04	 mov	 eax, DWORD PTR _nSta$[esp-4]
  00004	89 81 d4 05 00
	00		 mov	 DWORD PTR [ecx+1492], eax
  0000a	c2 04 00	 ret	 4
?SetSta@CMover@@QAEXH@Z ENDP				; CMover::SetSta
_TEXT	ENDS
PUBLIC	?SetDex@CMover@@QAEXH@Z				; CMover::SetDex
; Function compile flags: /Ogty
;	COMDAT ?SetDex@CMover@@QAEXH@Z
_TEXT	SEGMENT
_nDex$ = 8						; size = 4
?SetDex@CMover@@QAEXH@Z PROC NEAR			; CMover::SetDex, COMDAT
; _this$ = ecx

; 1203 : 	void			SetDex( int nDex ) { m_nDex = nDex; }

  00000	8b 44 24 04	 mov	 eax, DWORD PTR _nDex$[esp-4]
  00004	89 81 d8 05 00
	00		 mov	 DWORD PTR [ecx+1496], eax
  0000a	c2 04 00	 ret	 4
?SetDex@CMover@@QAEXH@Z ENDP				; CMover::SetDex
_TEXT	ENDS
PUBLIC	?SetInt@CMover@@QAEXH@Z				; CMover::SetInt
; Function compile flags: /Ogty
;	COMDAT ?SetInt@CMover@@QAEXH@Z
_TEXT	SEGMENT
_nInt$ = 8						; size = 4
?SetInt@CMover@@QAEXH@Z PROC NEAR			; CMover::SetInt, COMDAT
; _this$ = ecx

; 1204 : 	void			SetInt( int nInt ) { m_nInt = nInt; }	

  00000	8b 44 24 04	 mov	 eax, DWORD PTR _nInt$[esp-4]
  00004	89 81 dc 05 00
	00		 mov	 DWORD PTR [ecx+1500], eax
  0000a	c2 04 00	 ret	 4
?SetInt@CMover@@QAEXH@Z ENDP				; CMover::SetInt
_TEXT	ENDS
PUBLIC	?IsMode@CMover@@QAEHK@Z				; CMover::IsMode
EXTRN	?GetAdjParam@CMover@@QAEHH@Z:NEAR		; CMover::GetAdjParam
; Function compile flags: /Ogty
;	COMDAT ?IsMode@CMover@@QAEHK@Z
_TEXT	SEGMENT
_dwMode$ = 8						; size = 4
?IsMode@CMover@@QAEHK@Z PROC NEAR			; CMover::IsMode, COMDAT
; _this$ = ecx

; 1762 : { 

  00000	53		 push	 ebx

; 1763 : #ifdef __HACK_0516
; 1764 : 	switch( dwMode )
; 1765 : 	{
; 1766 : 		case MATCHLESS_MODE:		//  
; 1767 : 		case ONEKILL_MODE:		//  
; 1768 : 		case MATCHLESS2_MODE:	//  2
; 1769 : 			if( m_dwAuthorization == AUTH_GENERAL )
; 1770 : 				return FALSE;
; 1771 : 			break;
; 1772 : 	}
; 1773 : #endif	// __HACK_0516
; 1774 : 	if( (dwMode & TRANSPARENT_MODE) )	//   

  00001	8b 5c 24 08	 mov	 ebx, DWORD PTR _dwMode$[esp]
  00005	f6 c3 02	 test	 bl, 2
  00008	56		 push	 esi
  00009	8b f1		 mov	 esi, ecx
  0000b	74 16		 je	 SHORT $L212480

; 1775 : 		if( GetAdjParam(DST_CHRSTATE) & CHS_INVISIBILITY )	//  ?

  0000d	6a 40		 push	 64			; 00000040H
  0000f	e8 00 00 00 00	 call	 ?GetAdjParam@CMover@@QAEHH@Z ; CMover::GetAdjParam
  00014	f6 c4 04	 test	 ah, 4
  00017	74 0a		 je	 SHORT $L212480
  00019	5e		 pop	 esi

; 1776 : 			return TRUE;

  0001a	b8 01 00 00 00	 mov	 eax, 1
  0001f	5b		 pop	 ebx

; 1778 : }	

  00020	c2 04 00	 ret	 4
$L212480:

; 1777 : 	return ( ( m_dwMode & dwMode ) == dwMode ) ? TRUE : FALSE; 

  00023	8b 86 44 02 00
	00		 mov	 eax, DWORD PTR [esi+580]
  00029	23 c3		 and	 eax, ebx
  0002b	2b c3		 sub	 eax, ebx
  0002d	f7 d8		 neg	 eax
  0002f	1b c0		 sbb	 eax, eax
  00031	5e		 pop	 esi
  00032	40		 inc	 eax
  00033	5b		 pop	 ebx

; 1778 : }	

  00034	c2 04 00	 ret	 4
?IsMode@CMover@@QAEHK@Z ENDP				; CMover::IsMode
_TEXT	ENDS
PUBLIC	?GetGold@CMover@@QAEHXZ				; CMover::GetGold
; Function compile flags: /Ogty
;	COMDAT ?GetGold@CMover@@QAEHXZ
_TEXT	SEGMENT
?GetGold@CMover@@QAEHXZ PROC NEAR			; CMover::GetGold, COMDAT
; _this$ = ecx

; 1829 : 	int nGold = m_dwGold;
; 1830 : //	nGold -= m_vtInfo.TradeGetGold();
; 1831 : 	ASSERT( nGold >= 0 );
; 1832 : 	return nGold;

  00000	8b 81 84 16 00
	00		 mov	 eax, DWORD PTR [ecx+5764]

; 1833 : }

  00006	c3		 ret	 0
?GetGold@CMover@@QAEHXZ ENDP				; CMover::GetGold
_TEXT	ENDS
PUBLIC	?GetID@CWorld@@QAEKXZ				; CWorld::GetID
; Function compile flags: /Ogty
; File c:\documents and settings\test\mes documents\source\virtuos_v17\build\program\_common\world.h
;	COMDAT ?GetID@CWorld@@QAEKXZ
_TEXT	SEGMENT
?GetID@CWorld@@QAEKXZ PROC NEAR				; CWorld::GetID, COMDAT
; _this$ = ecx

; 413  : 	DWORD			GetID()	{ return m_dwWorldID; }

  00000	8b 01		 mov	 eax, DWORD PTR [ecx]
  00002	c3		 ret	 0
?GetID@CWorld@@QAEKXZ ENDP				; CWorld::GetID
_TEXT	ENDS
PUBLIC	??B?$CSimpleStringT@D$0A@@ATL@@QBEPBDXZ		; ATL::CSimpleStringT<char,0>::operator char const *
; Function compile flags: /Ogty
; File c:\program files\microsoft visual studio .net 2003\vc7\atlmfc\include\atlsimpstr.h
;	COMDAT ??B?$CSimpleStringT@D$0A@@ATL@@QBEPBDXZ
_TEXT	SEGMENT
??B?$CSimpleStringT@D$0A@@ATL@@QBEPBDXZ PROC NEAR	; ATL::CSimpleStringT<char,0>::operator char const *, COMDAT
; _this$ = ecx

; 379  : 		return( m_pszData );

  00000	8b 01		 mov	 eax, DWORD PTR [ecx]

; 380  : 	}

  00002	c3		 ret	 0
??B?$CSimpleStringT@D$0A@@ATL@@QBEPBDXZ ENDP		; ATL::CSimpleStringT<char,0>::operator char const *
_TEXT	ENDS
PUBLIC	?GetSize@?$CFixedArray@UItemProp@@@@QAEHXZ	; CFixedArray<ItemProp>::GetSize
; Function compile flags: /Ogty
; File c:\documents and settings\test\mes documents\source\virtuos_v17\build\program\_common\data.h
;	COMDAT ?GetSize@?$CFixedArray@UItemProp@@@@QAEHXZ
_TEXT	SEGMENT
?GetSize@?$CFixedArray@UItemProp@@@@QAEHXZ PROC NEAR	; CFixedArray<ItemProp>::GetSize, COMDAT
; _this$ = ecx

; 221  : 	int  GetSize() { return m_nMaxIndex; }

  00000	8b 41 18	 mov	 eax, DWORD PTR [ecx+24]
  00003	c3		 ret	 0
?GetSize@?$CFixedArray@UItemProp@@@@QAEHXZ ENDP		; CFixedArray<ItemProp>::GetSize
_TEXT	ENDS
PUBLIC	?GetSize@?$CFixedArray@UtagColorText@@@@QAEHXZ	; CFixedArray<tagColorText>::GetSize
; Function compile flags: /Ogty
;	COMDAT ?GetSize@?$CFixedArray@UtagColorText@@@@QAEHXZ
_TEXT	SEGMENT
?GetSize@?$CFixedArray@UtagColorText@@@@QAEHXZ PROC NEAR ; CFixedArray<tagColorText>::GetSize, COMDAT
; _this$ = ecx

; 221  : 	int  GetSize() { return m_nMaxIndex; }

  00000	8b 41 18	 mov	 eax, DWORD PTR [ecx+24]
  00003	c3		 ret	 0
?GetSize@?$CFixedArray@UtagColorText@@@@QAEHXZ ENDP	; CFixedArray<tagColorText>::GetSize
_TEXT	ENDS
PUBLIC	?GetString@?$CSimpleStringT@D$0A@@ATL@@QBEPBDXZ	; ATL::CSimpleStringT<char,0>::GetString
; Function compile flags: /Ogty
; File c:\program files\microsoft visual studio .net 2003\vc7\atlmfc\include\atlsimpstr.h
;	COMDAT ?GetString@?$CSimpleStringT@D$0A@@ATL@@QBEPBDXZ
_TEXT	SEGMENT
?GetString@?$CSimpleStringT@D$0A@@ATL@@QBEPBDXZ PROC NEAR ; ATL::CSimpleStringT<char,0>::GetString, COMDAT
; _this$ = ecx

; 510  : 		return( m_pszData );

  00000	8b 01		 mov	 eax, DWORD PTR [ecx]

; 511  : 	}

  00002	c3		 ret	 0
?GetString@?$CSimpleStringT@D$0A@@ATL@@QBEPBDXZ ENDP	; ATL::CSimpleStringT<char,0>::GetString
_TEXT	ENDS
PUBLIC	?StringLength@?$CSimpleStringT@D$0A@@ATL@@SAHPBD@Z ; ATL::CSimpleStringT<char,0>::StringLength
; Function compile flags: /Ogty
;	COMDAT ?StringLength@?$CSimpleStringT@D$0A@@ATL@@SAHPBD@Z
_TEXT	SEGMENT
_psz$ = 8						; size = 4
?StringLength@?$CSimpleStringT@D$0A@@ATL@@SAHPBD@Z PROC NEAR ; ATL::CSimpleStringT<char,0>::StringLength, COMDAT

; 678  : 		if( psz == NULL )

  00000	8b 44 24 04	 mov	 eax, DWORD PTR _psz$[esp-4]
  00004	85 c0		 test	 eax, eax
  00006	75 01		 jne	 SHORT $L219971

; 683  : 	}

  00008	c3		 ret	 0
$L219971:

; 679  : 		{
; 680  : 			return( 0 );
; 681  : 		}
; 682  : 		return( int( strlen( psz ) ) );

  00009	8d 50 01	 lea	 edx, DWORD PTR [eax+1]
  0000c	8d 64 24 00	 npad	 4
$L273561:
  00010	8a 08		 mov	 cl, BYTE PTR [eax]
  00012	40		 inc	 eax
  00013	84 c9		 test	 cl, cl
  00015	75 f9		 jne	 SHORT $L273561
  00017	2b c2		 sub	 eax, edx

; 683  : 	}

  00019	c3		 ret	 0
?StringLength@?$CSimpleStringT@D$0A@@ATL@@SAHPBD@Z ENDP	; ATL::CSimpleStringT<char,0>::StringLength
_TEXT	ENDS
PUBLIC	?GetData@?$CSimpleStringT@D$0A@@ATL@@ABEPAUCStringData@2@XZ ; ATL::CSimpleStringT<char,0>::GetData
; Function compile flags: /Ogty
;	COMDAT ?GetData@?$CSimpleStringT@D$0A@@ATL@@ABEPAUCStringData@2@XZ
_TEXT	SEGMENT
?GetData@?$CSimpleStringT@D$0A@@ATL@@ABEPAUCStringData@2@XZ PROC NEAR ; ATL::CSimpleStringT<char,0>::GetData, COMDAT
; _this$ = ecx

; 731  : 		return( reinterpret_cast< CStringData* >( m_pszData )-1 );

  00000	8b 01		 mov	 eax, DWORD PTR [ecx]
  00002	83 e8 10	 sub	 eax, 16			; 00000010H

; 732  : 	}

  00005	c3		 ret	 0
?GetData@?$CSimpleStringT@D$0A@@ATL@@ABEPAUCStringData@2@XZ ENDP ; ATL::CSimpleStringT<char,0>::GetData
_TEXT	ENDS
PUBLIC	?SetLength@?$CSimpleStringT@D$0A@@ATL@@AAEXH@Z	; ATL::CSimpleStringT<char,0>::SetLength
; Function compile flags: /Ogty
;	COMDAT ?SetLength@?$CSimpleStringT@D$0A@@ATL@@AAEXH@Z
_TEXT	SEGMENT
_nLength$ = 8						; size = 4
?SetLength@?$CSimpleStringT@D$0A@@ATL@@AAEXH@Z PROC NEAR ; ATL::CSimpleStringT<char,0>::SetLength, COMDAT
; _this$ = ecx

; 790  : 		ATLASSERT( nLength >= 0 );
; 791  : 		ATLASSERT( nLength <= GetData()->nAllocLength );
; 792  : 
; 793  : 		if( nLength < 0 || nLength > GetData()->nAllocLength)

  00000	8b 44 24 04	 mov	 eax, DWORD PTR _nLength$[esp-4]
  00004	85 c0		 test	 eax, eax
  00006	7c 13		 jl	 SHORT $L219986
  00008	8b 11		 mov	 edx, DWORD PTR [ecx]
  0000a	3b 42 f8	 cmp	 eax, DWORD PTR [edx-8]
  0000d	7f 0c		 jg	 SHORT $L219986

; 794  : 			AtlThrow(E_INVALIDARG);
; 795  : 			
; 796  : 		GetData()->nDataLength = nLength;

  0000f	89 42 f4	 mov	 DWORD PTR [edx-12], eax

; 797  : 		m_pszData[nLength] = 0;

  00012	8b 09		 mov	 ecx, DWORD PTR [ecx]
  00014	c6 04 08 00	 mov	 BYTE PTR [eax+ecx], 0

; 798  : 	}

  00018	c2 04 00	 ret	 4
$L219986:
  0001b	68 57 00 07 80	 push	 -2147024809		; 80070057H
  00020	e8 00 00 00 00	 call	 ?AtlThrow@ATL@@YGXJ@Z	; ATL::AtlThrow
$L273575:
$L273574:
  00025	cc		 int	 3
?SetLength@?$CSimpleStringT@D$0A@@ATL@@AAEXH@Z ENDP	; ATL::CSimpleStringT<char,0>::SetLength
_TEXT	ENDS
PUBLIC	?FindStringResourceInstance@?$StrTraitMFC@DV?$ChTraitsCRT@D@ATL@@@@SAPAUHINSTANCE__@@I@Z ; StrTraitMFC<char,ATL::ChTraitsCRT<char> >::FindStringResourceInstance
EXTRN	?AfxFindStringResourceHandle@@YGPAUHINSTANCE__@@I@Z:NEAR ; AfxFindStringResourceHandle
; Function compile flags: /Ogty
; File c:\program files\microsoft visual studio .net 2003\vc7\atlmfc\include\afxstr.h
;	COMDAT ?FindStringResourceInstance@?$StrTraitMFC@DV?$ChTraitsCRT@D@ATL@@@@SAPAUHINSTANCE__@@I@Z
_TEXT	SEGMENT
_nID$ = 8						; size = 4
?FindStringResourceInstance@?$StrTraitMFC@DV?$ChTraitsCRT@D@ATL@@@@SAPAUHINSTANCE__@@I@Z PROC NEAR ; StrTraitMFC<char,ATL::ChTraitsCRT<char> >::FindStringResourceInstance, COMDAT

; 45   : 		return( AfxFindStringResourceHandle( nID ) );

  00000	8b 44 24 04	 mov	 eax, DWORD PTR _nID$[esp-4]
  00004	50		 push	 eax
  00005	e8 00 00 00 00	 call	 ?AfxFindStringResourceHandle@@YGPAUHINSTANCE__@@I@Z ; AfxFindStringResourceHandle

; 46   : 	}

  0000a	c3		 ret	 0
?FindStringResourceInstance@?$StrTraitMFC@DV?$ChTraitsCRT@D@ATL@@@@SAPAUHINSTANCE__@@I@Z ENDP ; StrTraitMFC<char,ATL::ChTraitsCRT<char> >::FindStringResourceInstance
_TEXT	ENDS
PUBLIC	?GetDefaultManager@?$StrTraitMFC@DV?$ChTraitsCRT@D@ATL@@@@SAPAUIAtlStringMgr@ATL@@XZ ; StrTraitMFC<char,ATL::ChTraitsCRT<char> >::GetDefaultManager
EXTRN	?AfxGetStringManager@@YGPAUIAtlStringMgr@ATL@@XZ:NEAR ; AfxGetStringManager
; Function compile flags: /Ogty
;	COMDAT ?GetDefaultManager@?$StrTraitMFC@DV?$ChTraitsCRT@D@ATL@@@@SAPAUIAtlStringMgr@ATL@@XZ
_TEXT	SEGMENT
?GetDefaultManager@?$StrTraitMFC@DV?$ChTraitsCRT@D@ATL@@@@SAPAUIAtlStringMgr@ATL@@XZ PROC NEAR ; StrTraitMFC<char,ATL::ChTraitsCRT<char> >::GetDefaultManager, COMDAT

; 50   : 		return( AfxGetStringManager() );

  00000	e9 00 00 00 00	 jmp	 ?AfxGetStringManager@@YGPAUIAtlStringMgr@ATL@@XZ ; AfxGetStringManager
?GetDefaultManager@?$StrTraitMFC@DV?$ChTraitsCRT@D@ATL@@@@SAPAUIAtlStringMgr@ATL@@XZ ENDP ; StrTraitMFC<char,ATL::ChTraitsCRT<char> >::GetDefaultManager
_TEXT	ENDS
PUBLIC	?Attach@?$CSimpleStringT@D$0A@@ATL@@AAEXPAUCStringData@2@@Z ; ATL::CSimpleStringT<char,0>::Attach
; Function compile flags: /Ogty
; File c:\program files\microsoft visual studio .net 2003\vc7\atlmfc\include\atlsimpstr.h
;	COMDAT ?Attach@?$CSimpleStringT@D$0A@@ATL@@AAEXPAUCStringData@2@@Z
_TEXT	SEGMENT
_pData$ = 8						; size = 4
?Attach@?$CSimpleStringT@D$0A@@ATL@@AAEXPAUCStringData@2@@Z PROC NEAR ; ATL::CSimpleStringT<char,0>::Attach, COMDAT
; _this$ = ecx

; 712  : 		m_pszData = static_cast< PXSTR >( pData->data() );

  00000	8b 44 24 04	 mov	 eax, DWORD PTR _pData$[esp-4]
  00004	83 c0 10	 add	 eax, 16			; 00000010H
  00007	89 01		 mov	 DWORD PTR [ecx], eax

; 713  : 	}

  00009	c2 04 00	 ret	 4
?Attach@?$CSimpleStringT@D$0A@@ATL@@AAEXPAUCStringData@2@@Z ENDP ; ATL::CSimpleStringT<char,0>::Attach
_TEXT	ENDS
PUBLIC	?GetFormattedLength@?$ChTraitsCRT@D@ATL@@SAHPBDPAD@Z ; ATL::ChTraitsCRT<char>::GetFormattedLength
EXTRN	__vscprintf:NEAR
; Function compile flags: /Ogty
; File c:\program files\microsoft visual studio .net 2003\vc7\atlmfc\include\cstringt.h
;	COMDAT ?GetFormattedLength@?$ChTraitsCRT@D@ATL@@SAHPBDPAD@Z
_TEXT	SEGMENT
_pszFormat$ = 8						; size = 4
_args$ = 12						; size = 4
?GetFormattedLength@?$ChTraitsCRT@D@ATL@@SAHPBDPAD@Z PROC NEAR ; ATL::ChTraitsCRT<char>::GetFormattedLength, COMDAT

; 408  : 		return _vscprintf( pszFormat, args );

  00000	e9 00 00 00 00	 jmp	 __vscprintf
?GetFormattedLength@?$ChTraitsCRT@D@ATL@@SAHPBDPAD@Z ENDP ; ATL::ChTraitsCRT<char>::GetFormattedLength
_TEXT	ENDS
PUBLIC	?Format@?$ChTraitsCRT@D@ATL@@SAHPADPBD0@Z	; ATL::ChTraitsCRT<char>::Format
EXTRN	_vsprintf:NEAR
; Function compile flags: /Ogty
;	COMDAT ?Format@?$ChTraitsCRT@D@ATL@@SAHPADPBD0@Z
_TEXT	SEGMENT
_pszBuffer$ = 8						; size = 4
_pszFormat$ = 12					; size = 4
_args$ = 16						; size = 4
?Format@?$ChTraitsCRT@D@ATL@@SAHPADPBD0@Z PROC NEAR	; ATL::ChTraitsCRT<char>::Format, COMDAT

; 413  : 		return vsprintf( pszBuffer, pszFormat, args );

  00000	e9 00 00 00 00	 jmp	 _vsprintf
?Format@?$ChTraitsCRT@D@ATL@@SAHPADPBD0@Z ENDP		; ATL::ChTraitsCRT<char>::Format
_TEXT	ENDS
PUBLIC	?GetBaseTypeLength@?$ChTraitsCRT@D@ATL@@SAHPBGH@Z ; ATL::ChTraitsCRT<char>::GetBaseTypeLength
EXTRN	__imp__WideCharToMultiByte@32:NEAR
; Function compile flags: /Ogty
;	COMDAT ?GetBaseTypeLength@?$ChTraitsCRT@D@ATL@@SAHPBGH@Z
_TEXT	SEGMENT
_pszSource$ = 8						; size = 4
_nLength$ = 12						; size = 4
?GetBaseTypeLength@?$ChTraitsCRT@D@ATL@@SAHPBGH@Z PROC NEAR ; ATL::ChTraitsCRT<char>::GetBaseTypeLength, COMDAT

; 437  : 		// Returns required buffer length in XCHARs
; 438  : 		return ::WideCharToMultiByte( _AtlGetConversionACP(), 0, pszSource, nLength, NULL, 0, NULL, NULL );

  00000	ff 15 00 00 00
	00		 call	 DWORD PTR ?g_pfnGetThreadACP@ATL@@3P6GIXZA ; ATL::g_pfnGetThreadACP
  00006	8b 4c 24 08	 mov	 ecx, DWORD PTR _nLength$[esp-4]
  0000a	8b 54 24 04	 mov	 edx, DWORD PTR _pszSource$[esp-4]
  0000e	6a 00		 push	 0
  00010	6a 00		 push	 0
  00012	6a 00		 push	 0
  00014	6a 00		 push	 0
  00016	51		 push	 ecx
  00017	52		 push	 edx
  00018	6a 00		 push	 0
  0001a	50		 push	 eax
  0001b	ff 15 00 00 00
	00		 call	 DWORD PTR __imp__WideCharToMultiByte@32

; 439  : 	}

  00021	c3		 ret	 0
?GetBaseTypeLength@?$ChTraitsCRT@D@ATL@@SAHPBGH@Z ENDP	; ATL::ChTraitsCRT<char>::GetBaseTypeLength
_TEXT	ENDS
PUBLIC	?ConvertToBaseType@?$ChTraitsCRT@D@ATL@@SAXPADHPBGH@Z ; ATL::ChTraitsCRT<char>::ConvertToBaseType
; Function compile flags: /Ogty
;	COMDAT ?ConvertToBaseType@?$ChTraitsCRT@D@ATL@@SAXPADHPBGH@Z
_TEXT	SEGMENT
_pszDest$ = 8						; size = 4
_nDestLength$ = 12					; size = 4
_pszSrc$ = 16						; size = 4
_nSrcLength$ = 20					; size = 4
?ConvertToBaseType@?$ChTraitsCRT@D@ATL@@SAXPADHPBGH@Z PROC NEAR ; ATL::ChTraitsCRT<char>::ConvertToBaseType, COMDAT

; 452  : 		// nLen is in XCHARs
; 453  : 		::WideCharToMultiByte( _AtlGetConversionACP(), 0, pszSrc, nSrcLength, pszDest, nDestLength, NULL, NULL );

  00000	8b 44 24 08	 mov	 eax, DWORD PTR _nDestLength$[esp-4]
  00004	8b 4c 24 04	 mov	 ecx, DWORD PTR _pszDest$[esp-4]
  00008	8b 54 24 10	 mov	 edx, DWORD PTR _nSrcLength$[esp-4]
  0000c	6a 00		 push	 0
  0000e	6a 00		 push	 0
  00010	50		 push	 eax
  00011	8b 44 24 18	 mov	 eax, DWORD PTR _pszSrc$[esp+8]
  00015	51		 push	 ecx
  00016	52		 push	 edx
  00017	50		 push	 eax
  00018	6a 00		 push	 0
  0001a	ff 15 00 00 00
	00		 call	 DWORD PTR ?g_pfnGetThreadACP@ATL@@3P6GIXZA ; ATL::g_pfnGetThreadACP
  00020	50		 push	 eax
  00021	ff 15 00 00 00
	00		 call	 DWORD PTR __imp__WideCharToMultiByte@32

; 454  : 	}

  00027	c3		 ret	 0
?ConvertToBaseType@?$ChTraitsCRT@D@ATL@@SAXPADHPBGH@Z ENDP ; ATL::ChTraitsCRT<char>::ConvertToBaseType
_TEXT	ENDS
PUBLIC	?CopyChars@?$CSimpleStringT@D$0A@@ATL@@SAXPADPBDH@Z ; ATL::CSimpleStringT<char,0>::CopyChars
; Function compile flags: /Ogty
; File c:\program files\microsoft visual studio .net 2003\vc7\atlmfc\include\atlsimpstr.h
;	COMDAT ?CopyChars@?$CSimpleStringT@D$0A@@ATL@@SAXPADPBDH@Z
_TEXT	SEGMENT
_pchDest$ = 8						; size = 4
_pchSrc$ = 12						; size = 4
_nChars$ = 16						; size = 4
?CopyChars@?$CSimpleStringT@D$0A@@ATL@@SAXPADPBDH@Z PROC NEAR ; ATL::CSimpleStringT<char,0>::CopyChars, COMDAT

; 653  : 		memcpy( pchDest, pchSrc, nChars*sizeof( XCHAR ) );

  00000	8b 4c 24 0c	 mov	 ecx, DWORD PTR _nChars$[esp-4]
  00004	56		 push	 esi
  00005	8b 74 24 0c	 mov	 esi, DWORD PTR _pchSrc$[esp]
  00009	8b c1		 mov	 eax, ecx
  0000b	57		 push	 edi
  0000c	8b 7c 24 0c	 mov	 edi, DWORD PTR _pchDest$[esp+4]
  00010	c1 e9 02	 shr	 ecx, 2
  00013	f3 a5		 rep movsd
  00015	8b c8		 mov	 ecx, eax
  00017	83 e1 03	 and	 ecx, 3
  0001a	f3 a4		 rep movsb
  0001c	5f		 pop	 edi
  0001d	5e		 pop	 esi

; 654  : 	}

  0001e	c3		 ret	 0
?CopyChars@?$CSimpleStringT@D$0A@@ATL@@SAXPADPBDH@Z ENDP ; ATL::CSimpleStringT<char,0>::CopyChars
_TEXT	ENDS
PUBLIC	?CopyCharsOverlapped@?$CSimpleStringT@D$0A@@ATL@@SAXPADPBDH@Z ; ATL::CSimpleStringT<char,0>::CopyCharsOverlapped
EXTRN	_memmove:NEAR
; Function compile flags: /Ogty
;	COMDAT ?CopyCharsOverlapped@?$CSimpleStringT@D$0A@@ATL@@SAXPADPBDH@Z
_TEXT	SEGMENT
_pchDest$ = 8						; size = 4
_pchSrc$ = 12						; size = 4
_nChars$ = 16						; size = 4
?CopyCharsOverlapped@?$CSimpleStringT@D$0A@@ATL@@SAXPADPBDH@Z PROC NEAR ; ATL::CSimpleStringT<char,0>::CopyCharsOverlapped, COMDAT

; 657  : 		memmove( pchDest, pchSrc, nChars*sizeof( XCHAR ) );

  00000	e9 00 00 00 00	 jmp	 _memmove
?CopyCharsOverlapped@?$CSimpleStringT@D$0A@@ATL@@SAXPADPBDH@Z ENDP ; ATL::CSimpleStringT<char,0>::CopyCharsOverlapped
_TEXT	ENDS
PUBLIC	?ThrowMemoryException@?$CSimpleStringT@D$0A@@ATL@@KAXXZ ; ATL::CSimpleStringT<char,0>::ThrowMemoryException
; Function compile flags: /Ogty
;	COMDAT ?ThrowMemoryException@?$CSimpleStringT@D$0A@@ATL@@KAXXZ
_TEXT	SEGMENT
?ThrowMemoryException@?$CSimpleStringT@D$0A@@ATL@@KAXXZ PROC NEAR ; ATL::CSimpleStringT<char,0>::ThrowMemoryException, COMDAT

; 705  : 		AtlThrow( E_OUTOFMEMORY );

  00000	68 0e 00 07 80	 push	 -2147024882		; 8007000eH
  00005	e8 00 00 00 00	 call	 ?AtlThrow@ATL@@YGXJ@Z	; ATL::AtlThrow
$L273620:
$L273619:
  0000a	cc		 int	 3
?ThrowMemoryException@?$CSimpleStringT@D$0A@@ATL@@KAXXZ ENDP ; ATL::CSimpleStringT<char,0>::ThrowMemoryException
_TEXT	ENDS
PUBLIC	?Fork@?$CSimpleStringT@D$0A@@ATL@@AAEXH@Z	; ATL::CSimpleStringT<char,0>::Fork
; Function compile flags: /Ogty
;	COMDAT ?Fork@?$CSimpleStringT@D$0A@@ATL@@AAEXH@Z
_TEXT	SEGMENT
_this$ = -4						; size = 4
tv181 = 8						; size = 4
_nLength$ = 8						; size = 4
?Fork@?$CSimpleStringT@D$0A@@ATL@@AAEXH@Z PROC NEAR	; ATL::CSimpleStringT<char,0>::Fork, COMDAT
; _this$ = ecx

; 715  : 	{

  00000	51		 push	 ecx
  00001	53		 push	 ebx

; 716  : 		CStringData* pOldData = GetData();

  00002	8b 19		 mov	 ebx, DWORD PTR [ecx]
  00004	83 eb 10	 sub	 ebx, 16			; 00000010H
  00007	55		 push	 ebp

; 717  : 		int nOldLength = pOldData->nDataLength;

  00008	8b 6b 04	 mov	 ebp, DWORD PTR [ebx+4]
  0000b	89 4c 24 08	 mov	 DWORD PTR _this$[esp+12], ecx

; 718  : 		CStringData* pNewData = pOldData->pStringMgr->Clone()->Allocate( nLength, sizeof( XCHAR ) );

  0000f	8b 0b		 mov	 ecx, DWORD PTR [ebx]
  00011	8b 01		 mov	 eax, DWORD PTR [ecx]
  00013	56		 push	 esi
  00014	ff 50 10	 call	 DWORD PTR [eax+16]
  00017	8b 74 24 14	 mov	 esi, DWORD PTR _nLength$[esp+12]
  0001b	8b 10		 mov	 edx, DWORD PTR [eax]
  0001d	6a 01		 push	 1
  0001f	56		 push	 esi
  00020	8b c8		 mov	 ecx, eax
  00022	ff 12		 call	 DWORD PTR [edx]

; 719  : 		if( pNewData == NULL )

  00024	85 c0		 test	 eax, eax
  00026	75 05		 jne	 SHORT $L222762

; 720  : 		{
; 721  : 			ThrowMemoryException();

  00028	e8 00 00 00 00	 call	 ?ThrowMemoryException@?$CSimpleStringT@D$0A@@ATL@@KAXXZ ; ATL::CSimpleStringT<char,0>::ThrowMemoryException
$L273651:
$L222762:

; 722  : 		}
; 723  : 		int nCharsToCopy = ((nOldLength < nLength) ? nOldLength : nLength)+1;  // Copy '\0'

  0002d	3b ee		 cmp	 ebp, esi
  0002f	7d 02		 jge	 SHORT $L273625
  00031	8b f5		 mov	 esi, ebp
$L273625:
  00033	8d 4e 01	 lea	 ecx, DWORD PTR [esi+1]

; 724  : 		CopyChars( PXSTR( pNewData->data() ), PCXSTR( pOldData->data() ), nCharsToCopy );

  00036	8b d1		 mov	 edx, ecx
  00038	57		 push	 edi
  00039	c1 e9 02	 shr	 ecx, 2
  0003c	8d 78 10	 lea	 edi, DWORD PTR [eax+16]
  0003f	89 7c 24 18	 mov	 DWORD PTR tv181[esp+16], edi
  00043	8d 73 10	 lea	 esi, DWORD PTR [ebx+16]
  00046	f3 a5		 rep movsd
  00048	8b ca		 mov	 ecx, edx
  0004a	83 e1 03	 and	 ecx, 3
  0004d	f3 a4		 rep movsb

; 725  : 		pNewData->nDataLength = nOldLength;

  0004f	89 68 04	 mov	 DWORD PTR [eax+4], ebp

; 726  : 		pOldData->Release();

  00052	8d 43 0c	 lea	 eax, DWORD PTR [ebx+12]
  00055	83 c9 ff	 or	 ecx, -1
  00058	f0 0f c1 08	 lock	  xadd	 DWORD PTR [eax], ecx
  0005c	49		 dec	 ecx
  0005d	85 c9		 test	 ecx, ecx
  0005f	5f		 pop	 edi
  00060	7f 08		 jg	 SHORT $L273641
  00062	8b 0b		 mov	 ecx, DWORD PTR [ebx]
  00064	8b 11		 mov	 edx, DWORD PTR [ecx]
  00066	53		 push	 ebx
  00067	ff 52 04	 call	 DWORD PTR [edx+4]
$L273641:

; 727  : 		Attach( pNewData );

  0006a	8b 44 24 14	 mov	 eax, DWORD PTR tv181[esp+12]
  0006e	8b 4c 24 0c	 mov	 ecx, DWORD PTR _this$[esp+16]
  00072	5e		 pop	 esi
  00073	5d		 pop	 ebp
  00074	89 01		 mov	 DWORD PTR [ecx], eax
  00076	5b		 pop	 ebx

; 728  : 	}

  00077	59		 pop	 ecx
  00078	c2 04 00	 ret	 4
$L273650:
?Fork@?$CSimpleStringT@D$0A@@ATL@@AAEXH@Z ENDP		; ATL::CSimpleStringT<char,0>::Fork
_TEXT	ENDS
PUBLIC	?Reallocate@?$CSimpleStringT@D$0A@@ATL@@AAEXH@Z	; ATL::CSimpleStringT<char,0>::Reallocate
; Function compile flags: /Ogty
;	COMDAT ?Reallocate@?$CSimpleStringT@D$0A@@ATL@@AAEXH@Z
_TEXT	SEGMENT
_nLength$ = 8						; size = 4
?Reallocate@?$CSimpleStringT@D$0A@@ATL@@AAEXH@Z PROC NEAR ; ATL::CSimpleStringT<char,0>::Reallocate, COMDAT
; _this$ = ecx

; 776  : 	{

  00000	56		 push	 esi
  00001	57		 push	 edi

; 777  : 		CStringData* pOldData = GetData();
; 778  : 		ATLASSERT( pOldData->nAllocLength < nLength );
; 779  : 		IAtlStringMgr* pStringMgr = pOldData->pStringMgr;
; 780  : 		CStringData* pNewData = pStringMgr->Reallocate( pOldData, nLength, sizeof( XCHAR ) );

  00002	8b 7c 24 0c	 mov	 edi, DWORD PTR _nLength$[esp+4]
  00006	8b f1		 mov	 esi, ecx
  00008	8b 06		 mov	 eax, DWORD PTR [esi]
  0000a	8b 48 f0	 mov	 ecx, DWORD PTR [eax-16]
  0000d	8b 11		 mov	 edx, DWORD PTR [ecx]
  0000f	83 e8 10	 sub	 eax, 16			; 00000010H
  00012	6a 01		 push	 1
  00014	57		 push	 edi
  00015	50		 push	 eax
  00016	ff 52 08	 call	 DWORD PTR [edx+8]

; 781  : 		if( pNewData == NULL )

  00019	85 c0		 test	 eax, eax
  0001b	75 05		 jne	 SHORT $L222771

; 782  : 		{
; 783  : 			ThrowMemoryException();

  0001d	e8 00 00 00 00	 call	 ?ThrowMemoryException@?$CSimpleStringT@D$0A@@ATL@@KAXXZ ; ATL::CSimpleStringT<char,0>::ThrowMemoryException
$L273667:
$L222771:

; 784  : 		}
; 785  : 		Attach( pNewData );

  00022	83 c0 10	 add	 eax, 16			; 00000010H
  00025	5f		 pop	 edi
  00026	89 06		 mov	 DWORD PTR [esi], eax
  00028	5e		 pop	 esi

; 786  : 	}

  00029	c2 04 00	 ret	 4
$L273666:
?Reallocate@?$CSimpleStringT@D$0A@@ATL@@AAEXH@Z ENDP	; ATL::CSimpleStringT<char,0>::Reallocate
_TEXT	ENDS
PUBLIC	?GetAt@?$CFixedArray@UItemProp@@@@QAEPAUItemProp@@K@Z ; CFixedArray<ItemProp>::GetAt
; Function compile flags: /Ogty
; File c:\documents and settings\test\mes documents\source\virtuos_v17\build\program\_common\data.h
;	COMDAT ?GetAt@?$CFixedArray@UItemProp@@@@QAEPAUItemProp@@K@Z
_TEXT	SEGMENT
_dwIndex$ = 8						; size = 4
?GetAt@?$CFixedArray@UItemProp@@@@QAEPAUItemProp@@K@Z PROC NEAR ; CFixedArray<ItemProp>::GetAt, COMDAT
; _this$ = ecx

; 270  : 	if( dwIndex >= (DWORD)m_nMaxIndex )

  00000	8b 44 24 04	 mov	 eax, DWORD PTR _dwIndex$[esp-4]
  00004	3b 41 18	 cmp	 eax, DWORD PTR [ecx+24]
  00007	72 05		 jb	 SHORT $L224299

; 271  : 		return NULL;

  00009	33 c0		 xor	 eax, eax

; 273  : }

  0000b	c2 04 00	 ret	 4
$L224299:

; 272  : 	return (T*) m_apOffset[ dwIndex ];

  0000e	8b 49 08	 mov	 ecx, DWORD PTR [ecx+8]
  00011	8b 04 81	 mov	 eax, DWORD PTR [ecx+eax*4]

; 273  : }

  00014	c2 04 00	 ret	 4
?GetAt@?$CFixedArray@UItemProp@@@@QAEPAUItemProp@@K@Z ENDP ; CFixedArray<ItemProp>::GetAt
_TEXT	ENDS
PUBLIC	?GetAt@?$CFixedArray@UtagColorText@@@@QAEPAUtagColorText@@K@Z ; CFixedArray<tagColorText>::GetAt
; Function compile flags: /Ogty
;	COMDAT ?GetAt@?$CFixedArray@UtagColorText@@@@QAEPAUtagColorText@@K@Z
_TEXT	SEGMENT
_dwIndex$ = 8						; size = 4
?GetAt@?$CFixedArray@UtagColorText@@@@QAEPAUtagColorText@@K@Z PROC NEAR ; CFixedArray<tagColorText>::GetAt, COMDAT
; _this$ = ecx

; 270  : 	if( dwIndex >= (DWORD)m_nMaxIndex )

  00000	8b 44 24 04	 mov	 eax, DWORD PTR _dwIndex$[esp-4]
  00004	3b 41 18	 cmp	 eax, DWORD PTR [ecx+24]
  00007	72 05		 jb	 SHORT $L224363

; 271  : 		return NULL;

  00009	33 c0		 xor	 eax, eax

; 273  : }

  0000b	c2 04 00	 ret	 4
$L224363:

; 272  : 	return (T*) m_apOffset[ dwIndex ];

  0000e	8b 49 08	 mov	 ecx, DWORD PTR [ecx+8]
  00011	8b 04 81	 mov	 eax, DWORD PTR [ecx+eax*4]

; 273  : }

  00014	c2 04 00	 ret	 4
?GetAt@?$CFixedArray@UtagColorText@@@@QAEPAUtagColorText@@K@Z ENDP ; CFixedArray<tagColorText>::GetAt
_TEXT	ENDS
PUBLIC	?GetAt@?$CFixedArray@UQuestProp@@@@QAEPAUQuestProp@@K@Z ; CFixedArray<QuestProp>::GetAt
; Function compile flags: /Ogty
;	COMDAT ?GetAt@?$CFixedArray@UQuestProp@@@@QAEPAUQuestProp@@K@Z
_TEXT	SEGMENT
_dwIndex$ = 8						; size = 4
?GetAt@?$CFixedArray@UQuestProp@@@@QAEPAUQuestProp@@K@Z PROC NEAR ; CFixedArray<QuestProp>::GetAt, COMDAT
; _this$ = ecx

; 270  : 	if( dwIndex >= (DWORD)m_nMaxIndex )

  00000	8b 44 24 04	 mov	 eax, DWORD PTR _dwIndex$[esp-4]
  00004	3b 41 18	 cmp	 eax, DWORD PTR [ecx+24]
  00007	72 05		 jb	 SHORT $L224391

; 271  : 		return NULL;

  00009	33 c0		 xor	 eax, eax

; 273  : }

  0000b	c2 04 00	 ret	 4
$L224391:

; 272  : 	return (T*) m_apOffset[ dwIndex ];

  0000e	8b 49 08	 mov	 ecx, DWORD PTR [ecx+8]
  00011	8b 04 81	 mov	 eax, DWORD PTR [ecx+eax*4]

; 273  : }

  00014	c2 04 00	 ret	 4
?GetAt@?$CFixedArray@UQuestProp@@@@QAEPAUQuestProp@@K@Z ENDP ; CFixedArray<QuestProp>::GetAt
_TEXT	ENDS
PUBLIC	?GetAtId@?$CItemContainer@VCItemElem@@@@QAEPAVCItemElem@@K@Z ; CItemContainer<CItemElem>::GetAtId
; Function compile flags: /Ogty
; File c:\documents and settings\test\mes documents\source\virtuos_v17\build\program\_common\item.h
;	COMDAT ?GetAtId@?$CItemContainer@VCItemElem@@@@QAEPAVCItemElem@@K@Z
_TEXT	SEGMENT
_dwId$ = 8						; size = 4
?GetAtId@?$CItemContainer@VCItemElem@@@@QAEPAVCItemElem@@K@Z PROC NEAR ; CItemContainer<CItemElem>::GetAtId, COMDAT
; _this$ = ecx

; 518  : 	if( dwId >= (DWORD)( GetMax() ) ) return NULL;

  00000	8b 44 24 04	 mov	 eax, DWORD PTR _dwId$[esp-4]
  00004	3b 41 0c	 cmp	 eax, DWORD PTR [ecx+12]
  00007	72 05		 jb	 SHORT $L224421
  00009	33 c0		 xor	 eax, eax

; 521  : 		return NULL;
; 522  : 	return pItemElem;
; 523  : }

  0000b	c2 04 00	 ret	 4
$L224421:

; 519  : 	T* pItemElem = &m_apItem[ dwId ];

  0000e	8b 51 10	 mov	 edx, DWORD PTR [ecx+16]
  00011	69 c0 b8 00 00
	00		 imul	 eax, 184		; 000000b8H
  00017	03 c2		 add	 eax, edx
  00019	8b c8		 mov	 ecx, eax

; 520  : 	if( pItemElem->IsEmpty() ) 

  0001b	8b 41 0c	 mov	 eax, DWORD PTR [ecx+12]
  0001e	f7 d8		 neg	 eax
  00020	1b c0		 sbb	 eax, eax
  00022	23 c1		 and	 eax, ecx

; 521  : 		return NULL;
; 522  : 	return pItemElem;
; 523  : }

  00024	c2 04 00	 ret	 4
?GetAtId@?$CItemContainer@VCItemElem@@@@QAEPAVCItemElem@@K@Z ENDP ; CItemContainer<CItemElem>::GetAtId
_TEXT	ENDS
PUBLIC	?Speak@@YGHPAUNPCDIALOG_INFO@@HPBD@Z		; Speak
EXTRN	?AddChat@CUserMng@@QAEXPAVCCtrl@@PBD@Z:NEAR	; CUserMng::AddChat
EXTRN	?GetMover@CProject@@QAEPAVCMover@@K@Z:NEAR	; CProject::GetMover
; Function compile flags: /Ogty
; File c:\documents and settings\test\mes documents\source\virtuos_v17\build\program\_common\scriptlib.cpp
;	COMDAT ?Speak@@YGHPAUNPCDIALOG_INFO@@HPBD@Z
_TEXT	SEGMENT
_pInfo$ = 8						; size = 4
_nId$ = 12						; size = 4
_lpszStr$ = 16						; size = 4
?Speak@@YGHPAUNPCDIALOG_INFO@@HPBD@Z PROC NEAR		; Speak, COMDAT

; 44   : 	CMover* pMover = prj.GetMover(nId);

  00000	8b 44 24 08	 mov	 eax, DWORD PTR _nId$[esp-4]
  00004	50		 push	 eax
  00005	b9 00 00 00 00	 mov	 ecx, OFFSET FLAT:?prj@@3VCProject@@A
  0000a	e8 00 00 00 00	 call	 ?GetMover@CProject@@QAEPAVCMover@@K@Z ; CProject::GetMover

; 45   : 	if(pMover && pMover->GetType() == OT_MOVER)

  0000f	85 c0		 test	 eax, eax
  00011	74 19		 je	 SHORT $L273695
  00013	83 b8 70 01 00
	00 05		 cmp	 DWORD PTR [eax+368], 5
  0001a	75 10		 jne	 SHORT $L273695

; 46   : 	{
; 47   : 		g_UserMng.AddChat( (CCtrl*)pMover, lpszStr );

  0001c	8b 4c 24 0c	 mov	 ecx, DWORD PTR _lpszStr$[esp-4]
  00020	51		 push	 ecx
  00021	50		 push	 eax
  00022	b9 00 00 00 00	 mov	 ecx, OFFSET FLAT:?g_UserMng@@3VCUserMng@@A
  00027	e8 00 00 00 00	 call	 ?AddChat@CUserMng@@QAEXPAVCCtrl@@PBD@Z ; CUserMng::AddChat
$L273695:

; 48   : 	}
; 49   : 	return 1;

  0002c	b8 01 00 00 00	 mov	 eax, 1

; 50   : }

  00031	c2 0c 00	 ret	 12			; 0000000cH
?Speak@@YGHPAUNPCDIALOG_INFO@@HPBD@Z ENDP		; Speak
_TEXT	ENDS
PUBLIC	??0_runscriptfunc@@QAE@XZ			; _runscriptfunc::_runscriptfunc
; Function compile flags: /Ogty
;	COMDAT ??0_runscriptfunc@@QAE@XZ
_TEXT	SEGMENT
??0_runscriptfunc@@QAE@XZ PROC NEAR			; _runscriptfunc::_runscriptfunc, COMDAT
; _this$ = ecx
  00000	8b c1		 mov	 eax, ecx
  00002	c3		 ret	 0
??0_runscriptfunc@@QAE@XZ ENDP				; _runscriptfunc::_runscriptfunc
_TEXT	ENDS
PUBLIC	?Say@@YGHPAUNPCDIALOG_INFO@@PBD@Z		; Say
EXTRN	__imp__lstrcpyA@8:NEAR
EXTRN	?AddRunScriptFunc@CUser@@QAEXABU_runscriptfunc@@@Z:NEAR ; CUser::AddRunScriptFunc
; Function compile flags: /Ogty
;	COMDAT ?Say@@YGHPAUNPCDIALOG_INFO@@PBD@Z
_TEXT	SEGMENT
_rsf$ = -2076						; size = 2072
__$ArrayPad$ = -4					; size = 4
__$ReturnAddr$ = 4					; size = 4
_pInfo$ = 8						; size = 4
_szMsg$ = 12						; size = 4
?Say@@YGHPAUNPCDIALOG_INFO@@PBD@Z PROC NEAR		; Say, COMDAT

; 325  : {

  00000	81 ec 1c 08 00
	00		 sub	 esp, 2076		; 0000081cH
  00006	a1 00 00 00 00	 mov	 eax, DWORD PTR ___security_cookie
  0000b	8b 8c 24 20 08
	00 00		 mov	 ecx, DWORD PTR _pInfo$[esp+2072]
  00012	33 c4		 xor	 eax, esp
  00014	56		 push	 esi
  00015	8b b4 24 28 08
	00 00		 mov	 esi, DWORD PTR _szMsg$[esp+2076]
  0001c	89 84 24 1c 08
	00 00		 mov	 DWORD PTR __$ArrayPad$[esp+2080], eax

; 326  : 	CUser* pUser = prj.GetUser( pInfo->GetPcId() );

  00023	8b 01		 mov	 eax, DWORD PTR [ecx]
  00025	57		 push	 edi
  00026	ff 50 18	 call	 DWORD PTR [eax+24]
  00029	50		 push	 eax
  0002a	b9 00 00 00 00	 mov	 ecx, OFFSET FLAT:?prj@@3VCProject@@A
  0002f	e8 00 00 00 00	 call	 ?GetUser@CProject@@QAEPAVCUser@@K@Z ; CProject::GetUser

; 327  : 	RunScriptFunc rsf;
; 328  : 	rsf.wFuncType = FUNCTYPE_SAY;
; 329  : 	lstrcpy( rsf.lpszVal1, szMsg );

  00034	56		 push	 esi
  00035	8d 4c 24 0c	 lea	 ecx, DWORD PTR _rsf$[esp+2088]
  00039	51		 push	 ecx
  0003a	8b f8		 mov	 edi, eax
  0003c	66 c7 84 24 18
	08 00 00 12 00	 mov	 WORD PTR _rsf$[esp+4148], 18 ; 00000012H
  00046	ff 15 00 00 00
	00		 call	 DWORD PTR __imp__lstrcpyA@8

; 330  : 	rsf.dwVal2 = 0;
; 331  : 	pUser->AddRunScriptFunc( rsf );

  0004c	8d 54 24 08	 lea	 edx, DWORD PTR _rsf$[esp+2084]
  00050	52		 push	 edx
  00051	8b cf		 mov	 ecx, edi
  00053	c7 84 24 10 08
	00 00 00 00 00
	00		 mov	 DWORD PTR _rsf$[esp+4140], 0
  0005e	e8 00 00 00 00	 call	 ?AddRunScriptFunc@CUser@@QAEXABU_runscriptfunc@@@Z ; CUser::AddRunScriptFunc

; 332  : 	return 1;
; 333  : }

  00063	8b 8c 24 20 08
	00 00		 mov	 ecx, DWORD PTR __$ArrayPad$[esp+2084]
  0006a	5f		 pop	 edi
  0006b	5e		 pop	 esi
  0006c	33 cc		 xor	 ecx, esp
  0006e	b8 01 00 00 00	 mov	 eax, 1
  00073	e8 00 00 00 00	 call	 @__security_check_cookie@4
  00078	81 c4 1c 08 00
	00		 add	 esp, 2076		; 0000081cH
  0007e	c2 08 00	 ret	 8
?Say@@YGHPAUNPCDIALOG_INFO@@PBD@Z ENDP			; Say
_TEXT	ENDS
PUBLIC	?Exit@@YGHPAUNPCDIALOG_INFO@@@Z			; Exit
; Function compile flags: /Ogty
;	COMDAT ?Exit@@YGHPAUNPCDIALOG_INFO@@@Z
_TEXT	SEGMENT
_rsf$ = -2076						; size = 2072
__$ArrayPad$ = -4					; size = 4
__$ReturnAddr$ = 4					; size = 4
_pInfo$ = 8						; size = 4
?Exit@@YGHPAUNPCDIALOG_INFO@@@Z PROC NEAR		; Exit, COMDAT

; 346  : {

  00000	81 ec 1c 08 00
	00		 sub	 esp, 2076		; 0000081cH
  00006	a1 00 00 00 00	 mov	 eax, DWORD PTR ___security_cookie
  0000b	8b 8c 24 20 08
	00 00		 mov	 ecx, DWORD PTR _pInfo$[esp+2072]
  00012	33 c4		 xor	 eax, esp
  00014	89 84 24 18 08
	00 00		 mov	 DWORD PTR __$ArrayPad$[esp+2076], eax

; 347  : 	CUser* pUser = prj.GetUser( pInfo->GetPcId() );

  0001b	8b 01		 mov	 eax, DWORD PTR [ecx]
  0001d	ff 50 18	 call	 DWORD PTR [eax+24]
  00020	50		 push	 eax
  00021	b9 00 00 00 00	 mov	 ecx, OFFSET FLAT:?prj@@3VCProject@@A
  00026	e8 00 00 00 00	 call	 ?GetUser@CProject@@QAEPAVCUser@@K@Z ; CProject::GetUser

; 348  : 	RunScriptFunc rsf;
; 349  : 	rsf.wFuncType = FUNCTYPE_EXIT;
; 350  : 	pUser->AddRunScriptFunc( rsf );

  0002b	8d 0c 24	 lea	 ecx, DWORD PTR _rsf$[esp+2076]
  0002e	51		 push	 ecx
  0002f	8b c8		 mov	 ecx, eax
  00031	66 c7 84 24 0c
	08 00 00 16 00	 mov	 WORD PTR _rsf$[esp+4136], 22 ; 00000016H
  0003b	e8 00 00 00 00	 call	 ?AddRunScriptFunc@CUser@@QAEXABU_runscriptfunc@@@Z ; CUser::AddRunScriptFunc

; 351  : 	return TRUE;
; 352  : }

  00040	8b 8c 24 18 08
	00 00		 mov	 ecx, DWORD PTR __$ArrayPad$[esp+2076]
  00047	33 cc		 xor	 ecx, esp
  00049	b8 01 00 00 00	 mov	 eax, 1
  0004e	e8 00 00 00 00	 call	 @__security_check_cookie@4
  00053	81 c4 1c 08 00
	00		 add	 esp, 2076		; 0000081cH
  00059	c2 04 00	 ret	 4
?Exit@@YGHPAUNPCDIALOG_INFO@@@Z ENDP			; Exit
_TEXT	ENDS
PUBLIC	__real@00000000
PUBLIC	?Replace@@YGHPAUNPCDIALOG_INFO@@HMMM@Z		; Replace
EXTRN	?Replace@CMover@@QAEHKKAAUD3DXVECTOR3@@W4REPLACE_TYPE@@H@Z:NEAR ; CMover::Replace
EXTRN	?GetName@CMover@@QAEPBDH@Z:NEAR			; CMover::GetName
EXTRN	?SendLogSchool@CDPDatabaseClient@@QAEXKPBD@Z:NEAR ; CDPDatabaseClient::SendLogSchool
EXTRN	?g_uIdofMulti@@3KA:DWORD			; g_uIdofMulti
;	COMDAT __real@00000000
; File c:\documents and settings\test\mes documents\source\virtuos_v17\build\program\dx_sdk\d3dx9math.inl
CONST	SEGMENT
__real@00000000 DD 000000000r			; 0
; Function compile flags: /Ogty
; File c:\documents and settings\test\mes documents\source\virtuos_v17\build\program\_common\scriptlib.cpp
CONST	ENDS
;	COMDAT ?Replace@@YGHPAUNPCDIALOG_INFO@@HMMM@Z
_TEXT	SEGMENT
$T273719 = -2088					; size = 12
_rsf$267068 = -2076					; size = 2072
__$ArrayPad$ = -4					; size = 4
__$ReturnAddr$ = 4					; size = 4
_pInfo$ = 8						; size = 4
_nWorld$ = 12						; size = 4
_x$ = 16						; size = 4
_y$ = 20						; size = 4
_z$ = 24						; size = 4
?Replace@@YGHPAUNPCDIALOG_INFO@@HMMM@Z PROC NEAR	; Replace, COMDAT

; 361  : {

  00000	81 ec 28 08 00
	00		 sub	 esp, 2088		; 00000828H
  00006	a1 00 00 00 00	 mov	 eax, DWORD PTR ___security_cookie
  0000b	8b 8c 24 2c 08
	00 00		 mov	 ecx, DWORD PTR _pInfo$[esp+2084]
  00012	33 c4		 xor	 eax, esp
  00014	89 84 24 24 08
	00 00		 mov	 DWORD PTR __$ArrayPad$[esp+2088], eax

; 362  : 	CUser* pUser = prj.GetUser( pInfo->GetPcId() );

  0001b	8b 01		 mov	 eax, DWORD PTR [ecx]
  0001d	56		 push	 esi
  0001e	ff 50 18	 call	 DWORD PTR [eax+24]
  00021	50		 push	 eax
  00022	b9 00 00 00 00	 mov	 ecx, OFFSET FLAT:?prj@@3VCProject@@A
  00027	e8 00 00 00 00	 call	 ?GetUser@CProject@@QAEPAVCUser@@K@Z ; CProject::GetUser

; 363  : 
; 364  : 	if( x > 0.0f && z > 0.0f )

  0002c	d9 84 24 38 08
	00 00		 fld	 DWORD PTR _x$[esp+2088]
  00033	d8 1d 00 00 00
	00		 fcomp	 DWORD PTR __real@00000000
  00039	8b f0		 mov	 esi, eax
  0003b	df e0		 fnstsw	 ax
  0003d	f6 c4 41	 test	 ah, 65			; 00000041H
  00040	0f 85 99 00 00
	00		 jne	 $L273727
  00046	d9 84 24 40 08
	00 00		 fld	 DWORD PTR _z$[esp+2088]
  0004d	d8 1d 00 00 00
	00		 fcomp	 DWORD PTR __real@00000000
  00053	df e0		 fnstsw	 ax
  00055	f6 c4 41	 test	 ah, 65			; 00000041H
  00058	0f 85 81 00 00
	00		 jne	 $L273727

; 365  : 	{
; 366  : 		RunScriptFunc rsf;
; 367  : 		rsf.wFuncType = FUNCTYPE_EXIT;
; 368  : 		pUser->AddRunScriptFunc( rsf );

  0005e	8d 4c 24 10	 lea	 ecx, DWORD PTR _rsf$267068[esp+2092]
  00062	51		 push	 ecx
  00063	8b ce		 mov	 ecx, esi
  00065	66 c7 84 24 1c
	08 00 00 16 00	 mov	 WORD PTR _rsf$267068[esp+4152], 22 ; 00000016H
  0006f	e8 00 00 00 00	 call	 ?AddRunScriptFunc@CUser@@QAEXABU_runscriptfunc@@@Z ; CUser::AddRunScriptFunc

; 369  : 		if( g_eLocal.GetState( EVE_SCHOOL ) )

  00074	6a 04		 push	 4
  00076	b9 00 00 00 00	 mov	 ecx, OFFSET FLAT:?g_eLocal@@3VCFlyffEvent@@A
  0007b	e8 00 00 00 00	 call	 ?GetState@CFlyffEvent@@QAEEH@Z ; CFlyffEvent::GetState
  00080	84 c0		 test	 al, al
  00082	74 1b		 je	 SHORT $L267070

; 370  : 			g_dpDBClient.SendLogSchool( pUser->m_idPlayer, pUser->GetName() );

  00084	6a 00		 push	 0
  00086	8b ce		 mov	 ecx, esi
  00088	e8 00 00 00 00	 call	 ?GetName@CMover@@QAEPBDH@Z ; CMover::GetName
  0008d	8b 96 38 02 00
	00		 mov	 edx, DWORD PTR [esi+568]
  00093	50		 push	 eax
  00094	52		 push	 edx
  00095	b9 00 00 00 00	 mov	 ecx, OFFSET FLAT:?g_dpDBClient@@3VCDPDatabaseClient@@A
  0009a	e8 00 00 00 00	 call	 ?SendLogSchool@CDPDatabaseClient@@QAEXKPBD@Z ; CDPDatabaseClient::SendLogSchool
$L267070:

; 371  : 
; 372  : 		pUser->REPLACE( g_uIdofMulti, nWorld, D3DXVECTOR3( x, y, z ), REPLACE_NORMAL, nTempLayer );

  0009f	8b 84 24 38 08
	00 00		 mov	 eax, DWORD PTR _x$[esp+2088]
  000a6	8b 8c 24 3c 08
	00 00		 mov	 ecx, DWORD PTR _y$[esp+2088]
  000ad	8b 94 24 40 08
	00 00		 mov	 edx, DWORD PTR _z$[esp+2088]
  000b4	6a 00		 push	 0
  000b6	6a 00		 push	 0
  000b8	89 44 24 0c	 mov	 DWORD PTR $T273719[esp+2100], eax
  000bc	89 4c 24 10	 mov	 DWORD PTR $T273719[esp+2104], ecx
  000c0	8b 8c 24 3c 08
	00 00		 mov	 ecx, DWORD PTR _nWorld$[esp+2096]
  000c7	8d 44 24 0c	 lea	 eax, DWORD PTR $T273719[esp+2100]
  000cb	50		 push	 eax
  000cc	89 54 24 18	 mov	 DWORD PTR $T273719[esp+2112], edx
  000d0	8b 15 00 00 00
	00		 mov	 edx, DWORD PTR ?g_uIdofMulti@@3KA ; g_uIdofMulti
  000d6	51		 push	 ecx
  000d7	52		 push	 edx
  000d8	8b ce		 mov	 ecx, esi
  000da	e8 00 00 00 00	 call	 ?Replace@CMover@@QAEHKKAAUD3DXVECTOR3@@W4REPLACE_TYPE@@H@Z ; CMover::Replace
$L273727:

; 373  : 	}
; 374  : 	return 1;
; 375  : }

  000df	8b 8c 24 28 08
	00 00		 mov	 ecx, DWORD PTR __$ArrayPad$[esp+2092]
  000e6	5e		 pop	 esi
  000e7	33 cc		 xor	 ecx, esp
  000e9	b8 01 00 00 00	 mov	 eax, 1
  000ee	e8 00 00 00 00	 call	 @__security_check_cookie@4
  000f3	81 c4 28 08 00
	00		 add	 esp, 2088		; 00000828H
  000f9	c2 14 00	 ret	 20			; 00000014H
?Replace@@YGHPAUNPCDIALOG_INFO@@HMMM@Z ENDP		; Replace
_TEXT	ENDS
PUBLIC	?ReplaceKey@@YGHPAUNPCDIALOG_INFO@@HPBD@Z	; ReplaceKey
EXTRN	?GetRevivalPos@CWorldMng@@QAEPAUREGIONELEM@@KPBD@Z:NEAR ; CWorldMng::GetRevivalPos
EXTRN	?g_WorldMng@@3VCWorldMng@@A:BYTE		; g_WorldMng
; Function compile flags: /Ogty
;	COMDAT ?ReplaceKey@@YGHPAUNPCDIALOG_INFO@@HPBD@Z
_TEXT	SEGMENT
_rsf$ = -2076						; size = 2072
__$ArrayPad$ = -4					; size = 4
__$ReturnAddr$ = 4					; size = 4
_pInfo$ = 8						; size = 4
_nWorld$ = 12						; size = 4
_szKey$ = 16						; size = 4
?ReplaceKey@@YGHPAUNPCDIALOG_INFO@@HPBD@Z PROC NEAR	; ReplaceKey, COMDAT

; 378  : {

  00000	81 ec 1c 08 00
	00		 sub	 esp, 2076		; 0000081cH
  00006	a1 00 00 00 00	 mov	 eax, DWORD PTR ___security_cookie
  0000b	8b 8c 24 20 08
	00 00		 mov	 ecx, DWORD PTR _pInfo$[esp+2072]
  00012	33 c4		 xor	 eax, esp
  00014	56		 push	 esi
  00015	89 84 24 1c 08
	00 00		 mov	 DWORD PTR __$ArrayPad$[esp+2080], eax

; 379  : 	CUser* pUser = prj.GetUser( pInfo->GetPcId() );

  0001c	8b 01		 mov	 eax, DWORD PTR [ecx]
  0001e	57		 push	 edi
  0001f	8b bc 24 30 08
	00 00		 mov	 edi, DWORD PTR _szKey$[esp+2080]
  00026	ff 50 18	 call	 DWORD PTR [eax+24]
  00029	50		 push	 eax
  0002a	b9 00 00 00 00	 mov	 ecx, OFFSET FLAT:?prj@@3VCProject@@A
  0002f	e8 00 00 00 00	 call	 ?GetUser@CProject@@QAEPAVCUser@@K@Z ; CProject::GetUser

; 380  : 	RunScriptFunc rsf;	
; 381  : 	rsf.wFuncType = FUNCTYPE_EXIT;
; 382  : 	pUser->AddRunScriptFunc( rsf );

  00034	8d 4c 24 08	 lea	 ecx, DWORD PTR _rsf$[esp+2084]
  00038	8b f0		 mov	 esi, eax
  0003a	51		 push	 ecx
  0003b	8b ce		 mov	 ecx, esi
  0003d	66 c7 84 24 14
	08 00 00 16 00	 mov	 WORD PTR _rsf$[esp+4144], 22 ; 00000016H
  00047	e8 00 00 00 00	 call	 ?AddRunScriptFunc@CUser@@QAEXABU_runscriptfunc@@@Z ; CUser::AddRunScriptFunc

; 383  : 
; 384  : 	PRegionElem pRgnElem = g_WorldMng.GetRevivalPos( nWorld, szKey );

  0004c	8b 94 24 2c 08
	00 00		 mov	 edx, DWORD PTR _nWorld$[esp+2080]
  00053	57		 push	 edi
  00054	52		 push	 edx
  00055	b9 00 00 00 00	 mov	 ecx, OFFSET FLAT:?g_WorldMng@@3VCWorldMng@@A
  0005a	e8 00 00 00 00	 call	 ?GetRevivalPos@CWorldMng@@QAEPAUREGIONELEM@@KPBD@Z ; CWorldMng::GetRevivalPos

; 385  : 	if( pRgnElem )

  0005f	85 c0		 test	 eax, eax
  00061	74 1c		 je	 SHORT $L273735

; 386  : 		pUser->REPLACE( g_uIdofMulti, pRgnElem->m_dwWorldId, pRgnElem->m_vPos, REPLACE_NORMAL, nRevivalLayer );

  00063	8b 90 c0 02 00
	00		 mov	 edx, DWORD PTR [eax+704]
  00069	6a 00		 push	 0
  0006b	6a 00		 push	 0
  0006d	8d 48 10	 lea	 ecx, DWORD PTR [eax+16]
  00070	a1 00 00 00 00	 mov	 eax, DWORD PTR ?g_uIdofMulti@@3KA ; g_uIdofMulti
  00075	51		 push	 ecx
  00076	52		 push	 edx
  00077	50		 push	 eax
  00078	8b ce		 mov	 ecx, esi
  0007a	e8 00 00 00 00	 call	 ?Replace@CMover@@QAEHKKAAUD3DXVECTOR3@@W4REPLACE_TYPE@@H@Z ; CMover::Replace
$L273735:

; 387  : 	return 1;
; 388  : }

  0007f	8b 8c 24 20 08
	00 00		 mov	 ecx, DWORD PTR __$ArrayPad$[esp+2084]
  00086	5f		 pop	 edi
  00087	5e		 pop	 esi
  00088	33 cc		 xor	 ecx, esp
  0008a	b8 01 00 00 00	 mov	 eax, 1
  0008f	e8 00 00 00 00	 call	 @__security_check_cookie@4
  00094	81 c4 1c 08 00
	00		 add	 esp, 2076		; 0000081cH
  0009a	c2 0c 00	 ret	 12			; 0000000cH
?ReplaceKey@@YGHPAUNPCDIALOG_INFO@@HPBD@Z ENDP		; ReplaceKey
_TEXT	ENDS
PUBLIC	?GetPlayerLvl@@YGHPAUNPCDIALOG_INFO@@@Z		; GetPlayerLvl
; Function compile flags: /Ogty
;	COMDAT ?GetPlayerLvl@@YGHPAUNPCDIALOG_INFO@@@Z
_TEXT	SEGMENT
_pInfo$ = 8						; size = 4
?GetPlayerLvl@@YGHPAUNPCDIALOG_INFO@@@Z PROC NEAR	; GetPlayerLvl, COMDAT

; 392  : 	CUser* pUser = prj.GetUser( pInfo->GetPcId() );

  00000	8b 4c 24 04	 mov	 ecx, DWORD PTR _pInfo$[esp-4]
  00004	8b 01		 mov	 eax, DWORD PTR [ecx]
  00006	ff 50 18	 call	 DWORD PTR [eax+24]
  00009	50		 push	 eax
  0000a	b9 00 00 00 00	 mov	 ecx, OFFSET FLAT:?prj@@3VCProject@@A
  0000f	e8 00 00 00 00	 call	 ?GetUser@CProject@@QAEPAVCUser@@K@Z ; CProject::GetUser

; 393  : 	return pUser->GetLevel();

  00014	8b 80 e0 05 00
	00		 mov	 eax, DWORD PTR [eax+1504]

; 394  : }

  0001a	c2 04 00	 ret	 4
?GetPlayerLvl@@YGHPAUNPCDIALOG_INFO@@@Z ENDP		; GetPlayerLvl
_TEXT	ENDS
PUBLIC	__real@3eaaaaab
PUBLIC	?MonHuntStart@@YGHPAUNPCDIALOG_INFO@@HHHH@Z	; MonHuntStart
EXTRN	?AddObj@CWorld@@QAEHPAVCObj@@HH@Z:NEAR		; CWorld::AddObj
EXTRN	?UpdateLocalMatrix@CObj@@QAEXXZ:NEAR		; CObj::UpdateLocalMatrix
EXTRN	?SetPos@CObj@@QAEXABUD3DXVECTOR3@@@Z:NEAR	; CObj::SetPos
EXTRN	?GetGuildQuestProp@CProject@@QAEPAUGUILDQUESTPROP@@H@Z:NEAR ; CProject::GetGuildQuestProp
EXTRN	?SetQuest@CGuild@@QAEXHH@Z:NEAR			; CGuild::SetQuest
EXTRN	?SendInsertGuildQuest@CDPDatabaseClient@@QAEXKH@Z:NEAR ; CDPDatabaseClient::SendInsertGuildQuest
EXTRN	?Replace@CGuild@@QAEXKAAUD3DXVECTOR3@@H@Z:NEAR	; CGuild::Replace
EXTRN	?SendUpdateGuildQuest@CDPDatabaseClient@@QAEXKHH@Z:NEAR ; CDPDatabaseClient::SendUpdateGuildQuest
EXTRN	?CreateObj@@YAPAVCObj@@PAUIDirect3DDevice9@@KKH@Z:NEAR ; CreateObj
EXTRN	?SetGuildQuest@CGuildQuestProcessor@@QAEXHHHHKK@Z:NEAR ; CGuildQuestProcessor::SetGuildQuest
EXTRN	?IsQuesting@CGuildQuestProcessor@@QAEHH@Z:NEAR	; CGuildQuestProcessor::IsQuesting
EXTRN	?GetInstance@CGuildQuestProcessor@@SAPAV1@XZ:NEAR ; CGuildQuestProcessor::GetInstance
;	COMDAT __real@3eaaaaab
; File c:\documents and settings\test\mes documents\source\virtuos_v17\build\program\dx_sdk\d3dx9math.inl
CONST	SEGMENT
__real@3eaaaaab DD 03eaaaaabr			; 0.333333
; Function compile flags: /Ogty
; File c:\documents and settings\test\mes documents\source\virtuos_v17\build\program\_common\scriptlib.cpp
CONST	ENDS
;	COMDAT ?MonHuntStart@@YGHPAUNPCDIALOG_INFO@@HHHH@Z
_TEXT	SEGMENT
_pUser$267128 = -2100					; size = 4
_pProcessor$ = -2096					; size = 4
_pWorld$267136 = -2092					; size = 4
_vPos$267142 = -2088					; size = 12
_rsf$267138 = -2076					; size = 2072
__$ArrayPad$ = -4					; size = 4
__$ReturnAddr$ = 4					; size = 4
_pInfo$ = 8						; size = 4
_nQuest$ = 12						; size = 4
_nState$ = 16						; size = 4
_nState2$ = 20						; size = 4
_n$ = 24						; size = 4
?MonHuntStart@@YGHPAUNPCDIALOG_INFO@@HHHH@Z PROC NEAR	; MonHuntStart, COMDAT

; 445  : {

  00000	81 ec 34 08 00
	00		 sub	 esp, 2100		; 00000834H
  00006	a1 00 00 00 00	 mov	 eax, DWORD PTR ___security_cookie
  0000b	33 c4		 xor	 eax, esp
  0000d	53		 push	 ebx
  0000e	56		 push	 esi
  0000f	8b b4 24 40 08
	00 00		 mov	 esi, DWORD PTR _pInfo$[esp+2104]
  00016	89 84 24 38 08
	00 00		 mov	 DWORD PTR __$ArrayPad$[esp+2108], eax

; 446  : 	CGuildQuestProcessor* pProcessor	= CGuildQuestProcessor::GetInstance();

  0001d	e8 00 00 00 00	 call	 ?GetInstance@CGuildQuestProcessor@@SAPAV1@XZ ; CGuildQuestProcessor::GetInstance

; 447  : 	if( pProcessor->IsQuesting( nQuest ) )

  00022	8b 9c 24 44 08
	00 00		 mov	 ebx, DWORD PTR _nQuest$[esp+2104]
  00029	53		 push	 ebx
  0002a	8b c8		 mov	 ecx, eax
  0002c	89 44 24 10	 mov	 DWORD PTR _pProcessor$[esp+2112], eax
  00030	e8 00 00 00 00	 call	 ?IsQuesting@CGuildQuestProcessor@@QAEHH@Z ; CGuildQuestProcessor::IsQuesting
  00035	85 c0		 test	 eax, eax
  00037	74 07		 je	 SHORT $L267126

; 448  : 	{
; 449  : 		return 0;

  00039	33 c0		 xor	 eax, eax
  0003b	e9 86 01 00 00	 jmp	 $L267124
$L267126:

; 450  : 	}
; 451  : 	else
; 452  : 	{
; 453  : 		CUser* pUser	= prj.GetUser( pInfo->GetPcId() );

  00040	8b 06		 mov	 eax, DWORD PTR [esi]
  00042	55		 push	 ebp
  00043	57		 push	 edi
  00044	8b ce		 mov	 ecx, esi
  00046	ff 50 18	 call	 DWORD PTR [eax+24]
  00049	50		 push	 eax
  0004a	b9 00 00 00 00	 mov	 ecx, OFFSET FLAT:?prj@@3VCProject@@A
  0004f	e8 00 00 00 00	 call	 ?GetUser@CProject@@QAEPAVCUser@@K@Z ; CProject::GetUser

; 454  : 		CGuild* pGuild	= pUser->GetGuild();

  00054	8b c8		 mov	 ecx, eax
  00056	89 44 24 10	 mov	 DWORD PTR _pUser$267128[esp+2116], eax
  0005a	e8 00 00 00 00	 call	 ?GetGuild@CMover@@QAEPAVCGuild@@XZ ; CMover::GetGuild
  0005f	8b e8		 mov	 ebp, eax

; 455  : 		if( pGuild )

  00061	85 ed		 test	 ebp, ebp
  00063	0f 84 59 01 00
	00		 je	 $L273750

; 456  : 		{
; 457  : 			GUILDQUESTPROP* pProp	= prj.GetGuildQuestProp( nQuest );

  00069	53		 push	 ebx
  0006a	b9 00 00 00 00	 mov	 ecx, OFFSET FLAT:?prj@@3VCProject@@A
  0006f	e8 00 00 00 00	 call	 ?GetGuildQuestProp@CProject@@QAEPAUGUILDQUESTPROP@@H@Z ; CProject::GetGuildQuestProp
  00074	8b f8		 mov	 edi, eax

; 458  : 			if( pProp )

  00076	85 ff		 test	 edi, edi
  00078	0f 84 44 01 00
	00		 je	 $L273750

; 459  : 			{
; 460  : 				CMover* pWormon	= (CMover*)CreateObj( D3DDEVICE, OT_MOVER, pProp->dwWormon );

  0007e	8b 8f 64 10 00
	00		 mov	 ecx, DWORD PTR [edi+4196]
  00084	6a 01		 push	 1
  00086	51		 push	 ecx
  00087	6a 05		 push	 5
  00089	6a 00		 push	 0
  0008b	e8 00 00 00 00	 call	 ?CreateObj@@YAPAVCObj@@PAUIDirect3DDevice9@@KKH@Z ; CreateObj
  00090	8b f0		 mov	 esi, eax
  00092	83 c4 10	 add	 esp, 16			; 00000010H

; 461  : 				if( pWormon )

  00095	85 f6		 test	 esi, esi
  00097	0f 84 25 01 00
	00		 je	 $L273750

; 462  : 				{
; 463  : 					pWormon->SetPos( pProp->vPos );

  0009d	8d 87 6c 10 00
	00		 lea	 eax, DWORD PTR [edi+4204]
  000a3	50		 push	 eax
  000a4	8b ce		 mov	 ecx, esi
  000a6	e8 00 00 00 00	 call	 ?SetPos@CObj@@QAEXABUD3DXVECTOR3@@@Z ; CObj::SetPos

; 464  : 					pWormon->InitMotion( MTI_STAND );

  000ab	8b 16		 mov	 edx, DWORD PTR [esi]
  000ad	6a 00		 push	 0
  000af	8b ce		 mov	 ecx, esi
  000b1	ff 52 08	 call	 DWORD PTR [edx+8]

; 465  : 					pWormon->UpdateLocalMatrix();

  000b4	8b ce		 mov	 ecx, esi
  000b6	e8 00 00 00 00	 call	 ?UpdateLocalMatrix@CObj@@QAEXXZ ; CObj::UpdateLocalMatrix

; 466  : 					pWormon->m_nQuestKeeping	= nQuest;
; 467  : 
; 468  : 					CWorld* pWorld = pUser->GetWorld();

  000bb	8b 4c 24 10	 mov	 ecx, DWORD PTR _pUser$267128[esp+2116]
  000bf	88 9e 7c 0e 00
	00		 mov	 BYTE PTR [esi+3708], bl
  000c5	8b 81 6c 01 00
	00		 mov	 eax, DWORD PTR [ecx+364]

; 469  : 					if( pWorld )

  000cb	85 c0		 test	 eax, eax
  000cd	89 44 24 18	 mov	 DWORD PTR _pWorld$267136[esp+2116], eax
  000d1	0f 84 e3 00 00
	00		 je	 $L267137

; 470  : 					{
; 471  : 						RunScriptFunc rsf;	// Exit()
; 472  : 						rsf.wFuncType = FUNCTYPE_EXIT;
; 473  : 						pUser->AddRunScriptFunc( rsf );

  000d7	8d 44 24 28	 lea	 eax, DWORD PTR _rsf$267138[esp+2116]
  000db	50		 push	 eax
  000dc	66 c7 84 24 34
	08 00 00 16 00	 mov	 WORD PTR _rsf$267138[esp+4176], 22 ; 00000016H
  000e6	e8 00 00 00 00	 call	 ?AddRunScriptFunc@CUser@@QAEXABU_runscriptfunc@@@Z ; CUser::AddRunScriptFunc

; 474  : 						pWormon->AddItToGlobalId();

  000eb	8b 16		 mov	 edx, DWORD PTR [esi]
  000ed	8b ce		 mov	 ecx, esi
  000ef	ff 52 3c	 call	 DWORD PTR [edx+60]

; 475  : 						pWorld->ADDOBJ( pWormon, FALSE, pUser->GetLayer() );

  000f2	8b 44 24 10	 mov	 eax, DWORD PTR _pUser$267128[esp+2116]
  000f6	8b 88 b8 01 00
	00		 mov	 ecx, DWORD PTR [eax+440]
  000fc	51		 push	 ecx
  000fd	8b 4c 24 1c	 mov	 ecx, DWORD PTR _pWorld$267136[esp+2120]
  00101	6a 00		 push	 0
  00103	56		 push	 esi
  00104	e8 00 00 00 00	 call	 ?AddObj@CWorld@@QAEHPAVCObj@@HH@Z ; CWorld::AddObj

; 476  : 						pGuild->SetQuest( nQuest, nState );

  00109	8b 94 24 50 08
	00 00		 mov	 edx, DWORD PTR _nState$[esp+2112]
  00110	52		 push	 edx
  00111	53		 push	 ebx
  00112	8b cd		 mov	 ecx, ebp
  00114	e8 00 00 00 00	 call	 ?SetQuest@CGuild@@QAEXHH@Z ; CGuild::SetQuest

; 477  : 						if( nState == QS_BEGIN )

  00119	8b 84 24 50 08
	00 00		 mov	 eax, DWORD PTR _nState$[esp+2112]
  00120	85 c0		 test	 eax, eax
  00122	75 11		 jne	 SHORT $L267140

; 478  : 							g_dpDBClient.SendInsertGuildQuest( pGuild->m_idGuild, nQuest );

  00124	8b 45 04	 mov	 eax, DWORD PTR [ebp+4]
  00127	53		 push	 ebx
  00128	50		 push	 eax
  00129	b9 00 00 00 00	 mov	 ecx, OFFSET FLAT:?g_dpDBClient@@3VCDPDatabaseClient@@A
  0012e	e8 00 00 00 00	 call	 ?SendInsertGuildQuest@CDPDatabaseClient@@QAEXKH@Z ; CDPDatabaseClient::SendInsertGuildQuest

; 479  : 						else

  00133	eb 10		 jmp	 SHORT $L267141
$L267140:

; 480  : 							g_dpDBClient.SendUpdateGuildQuest( pGuild->m_idGuild, nQuest, nState );

  00135	8b 4d 04	 mov	 ecx, DWORD PTR [ebp+4]
  00138	50		 push	 eax
  00139	53		 push	 ebx
  0013a	51		 push	 ecx
  0013b	b9 00 00 00 00	 mov	 ecx, OFFSET FLAT:?g_dpDBClient@@3VCDPDatabaseClient@@A
  00140	e8 00 00 00 00	 call	 ?SendUpdateGuildQuest@CDPDatabaseClient@@QAEXKHH@Z ; CDPDatabaseClient::SendUpdateGuildQuest
$L267141:

; 481  : 
; 482  : 						pProcessor->SetGuildQuest( nQuest, nState, nState2, n, pGuild->m_idGuild, pWormon->GetId() );

  00145	8b 96 bc 01 00
	00		 mov	 edx, DWORD PTR [esi+444]
  0014b	8b 45 04	 mov	 eax, DWORD PTR [ebp+4]
  0014e	8b 8c 24 58 08
	00 00		 mov	 ecx, DWORD PTR _n$[esp+2112]
  00155	52		 push	 edx
  00156	8b 94 24 58 08
	00 00		 mov	 edx, DWORD PTR _nState2$[esp+2116]
  0015d	50		 push	 eax
  0015e	8b 84 24 58 08
	00 00		 mov	 eax, DWORD PTR _nState$[esp+2120]
  00165	51		 push	 ecx
  00166	8b 4c 24 20	 mov	 ecx, DWORD PTR _pProcessor$[esp+2128]
  0016a	52		 push	 edx
  0016b	50		 push	 eax
  0016c	53		 push	 ebx
  0016d	e8 00 00 00 00	 call	 ?SetGuildQuest@CGuildQuestProcessor@@QAEXHHHHKK@Z ; CGuildQuestProcessor::SetGuildQuest

; 483  : 						D3DXVECTOR3 vPos( pProp->vPos.x, pProp->vPos.y, ( ( pProp->vPos.z * 2 ) + pProp->y2 ) / 3 );

  00172	d9 87 74 10 00
	00		 fld	 DWORD PTR [edi+4212]
  00178	8b 8f 6c 10 00
	00		 mov	 ecx, DWORD PTR [edi+4204]
  0017e	dc c0		 fadd	 ST(0), ST(0)
  00180	da 87 84 10 00
	00		 fiadd	 DWORD PTR [edi+4228]
  00186	8b 97 70 10 00
	00		 mov	 edx, DWORD PTR [edi+4208]

; 484  : 						pGuild->Replace( pProp->dwWorldId, vPos, TRUE );

  0018c	6a 01		 push	 1
  0018e	89 4c 24 20	 mov	 DWORD PTR _vPos$267142[esp+2120], ecx
  00192	8b 8f 68 10 00
	00		 mov	 ecx, DWORD PTR [edi+4200]
  00198	8d 44 24 20	 lea	 eax, DWORD PTR _vPos$267142[esp+2120]
  0019c	50		 push	 eax
  0019d	51		 push	 ecx
  0019e	d8 0d 00 00 00
	00		 fmul	 DWORD PTR __real@3eaaaaab
  001a4	8b cd		 mov	 ecx, ebp
  001a6	89 54 24 2c	 mov	 DWORD PTR _vPos$267142[esp+2132], edx
  001aa	d9 5c 24 30	 fstp	 DWORD PTR _vPos$267142[esp+2136]
  001ae	e8 00 00 00 00	 call	 ?Replace@CGuild@@QAEXKAAUD3DXVECTOR3@@H@Z ; CGuild::Replace

; 485  : 						return 1;

  001b3	b8 01 00 00 00	 mov	 eax, 1
  001b8	eb 0a		 jmp	 SHORT $L273775
$L267137:

; 486  : 					}
; 487  : 					safe_delete( pWormon );

  001ba	8b 16		 mov	 edx, DWORD PTR [esi]
  001bc	6a 01		 push	 1
  001be	8b ce		 mov	 ecx, esi
  001c0	ff 12		 call	 DWORD PTR [edx]
$L273750:

; 488  : 				}
; 489  : 			}
; 490  : 		}
; 491  : 	}
; 492  : 	return 0;

  001c2	33 c0		 xor	 eax, eax
$L273775:
  001c4	5f		 pop	 edi
  001c5	5d		 pop	 ebp
$L267124:

; 493  : }

  001c6	8b 8c 24 38 08
	00 00		 mov	 ecx, DWORD PTR __$ArrayPad$[esp+2108]
  001cd	5e		 pop	 esi
  001ce	5b		 pop	 ebx
  001cf	33 cc		 xor	 ecx, esp
  001d1	e8 00 00 00 00	 call	 @__security_check_cookie@4
  001d6	81 c4 34 08 00
	00		 add	 esp, 2100		; 00000834H
  001dc	c2 14 00	 ret	 20			; 00000014H
?MonHuntStart@@YGHPAUNPCDIALOG_INFO@@HHHH@Z ENDP	; MonHuntStart
_TEXT	ENDS
PUBLIC	?GetTickCount@CTime@ATL@@SG?AV12@XZ		; ATL::CTime::GetTickCount
EXTRN	__time64:NEAR
; Function compile flags: /Ogty
; File c:\program files\microsoft visual studio .net 2003\vc7\atlmfc\include\atltime.inl
;	COMDAT ?GetTickCount@CTime@ATL@@SG?AV12@XZ
_TEXT	SEGMENT
___$ReturnUdt$ = 8					; size = 4
?GetTickCount@CTime@ATL@@SG?AV12@XZ PROC NEAR		; ATL::CTime::GetTickCount, COMDAT

; 139  : 	return( CTime( ::_time64( NULL ) ) );

  00000	6a 00		 push	 0
  00002	e8 00 00 00 00	 call	 __time64
  00007	8b 4c 24 08	 mov	 ecx, DWORD PTR ___$ReturnUdt$[esp]
  0000b	89 01		 mov	 DWORD PTR [ecx], eax
  0000d	83 c4 04	 add	 esp, 4
  00010	89 51 04	 mov	 DWORD PTR [ecx+4], edx
  00013	8b c1		 mov	 eax, ecx

; 140  : }

  00015	c2 04 00	 ret	 4
?GetTickCount@CTime@ATL@@SG?AV12@XZ ENDP		; ATL::CTime::GetTickCount
_TEXT	ENDS
PUBLIC	?InitStat@@YGHPAUNPCDIALOG_INFO@@@Z		; InitStat
; Function compile flags: /Ogty
; File c:\documents and settings\test\mes documents\source\virtuos_v17\build\program\_common\scriptlib.cpp
;	COMDAT ?InitStat@@YGHPAUNPCDIALOG_INFO@@@Z
_TEXT	SEGMENT
_rsf$ = -2076						; size = 2072
__$ArrayPad$ = -4					; size = 4
__$ReturnAddr$ = 4					; size = 4
_pInfo$ = 8						; size = 4
?InitStat@@YGHPAUNPCDIALOG_INFO@@@Z PROC NEAR		; InitStat, COMDAT

; 572  : {

  00000	81 ec 1c 08 00
	00		 sub	 esp, 2076		; 0000081cH
  00006	a1 00 00 00 00	 mov	 eax, DWORD PTR ___security_cookie
  0000b	8b 8c 24 20 08
	00 00		 mov	 ecx, DWORD PTR _pInfo$[esp+2072]
  00012	33 c4		 xor	 eax, esp
  00014	89 84 24 18 08
	00 00		 mov	 DWORD PTR __$ArrayPad$[esp+2076], eax

; 573  : 	CUser* pUser	= prj.GetUser( pInfo->GetPcId() );

  0001b	8b 01		 mov	 eax, DWORD PTR [ecx]
  0001d	ff 50 18	 call	 DWORD PTR [eax+24]
  00020	50		 push	 eax
  00021	b9 00 00 00 00	 mov	 ecx, OFFSET FLAT:?prj@@3VCProject@@A
  00026	e8 00 00 00 00	 call	 ?GetUser@CProject@@QAEPAVCUser@@K@Z ; CProject::GetUser

; 574  : 	pUser->SetStr( 15 );

  0002b	b9 0f 00 00 00	 mov	 ecx, 15			; 0000000fH
  00030	89 88 d0 05 00
	00		 mov	 DWORD PTR [eax+1488], ecx

; 575  : 	pUser->SetInt( 15 );

  00036	89 88 dc 05 00
	00		 mov	 DWORD PTR [eax+1500], ecx

; 576  : 	pUser->SetDex( 15 );

  0003c	89 88 d8 05 00
	00		 mov	 DWORD PTR [eax+1496], ecx

; 577  : 	pUser->SetSta( 15 );

  00042	89 88 d4 05 00
	00		 mov	 DWORD PTR [eax+1492], ecx

; 578  : 	pUser->m_nRemainGP	= ( pUser->GetLevel() - 1 ) * 2;

  00048	8b 88 e0 05 00
	00		 mov	 ecx, DWORD PTR [eax+1504]
  0004e	8d 54 09 fe	 lea	 edx, DWORD PTR [ecx+ecx-2]
  00052	89 90 0c 06 00
	00		 mov	 DWORD PTR [eax+1548], edx

; 579  : 	RunScriptFunc rsf;
; 580  : 	rsf.wFuncType		= FUNCTYPE_INITSTAT;

  00058	66 c7 84 24 08
	08 00 00 1a 00	 mov	 WORD PTR _rsf$[esp+4132], 26 ; 0000001aH

; 581  : 	rsf.dwVal1	= pUser->m_nRemainGP;

  00062	8b 88 0c 06 00
	00		 mov	 ecx, DWORD PTR [eax+1548]

; 582  : 	pUser->AddRunScriptFunc( rsf );

  00068	8d 14 24	 lea	 edx, DWORD PTR _rsf$[esp+2076]
  0006b	89 8c 24 00 08
	00 00		 mov	 DWORD PTR _rsf$[esp+4124], ecx
  00072	52		 push	 edx
  00073	8b c8		 mov	 ecx, eax
  00075	e8 00 00 00 00	 call	 ?AddRunScriptFunc@CUser@@QAEXABU_runscriptfunc@@@Z ; CUser::AddRunScriptFunc

; 583  : 	return 1;
; 584  : }

  0007a	8b 8c 24 18 08
	00 00		 mov	 ecx, DWORD PTR __$ArrayPad$[esp+2076]
  00081	33 cc		 xor	 ecx, esp
  00083	b8 01 00 00 00	 mov	 eax, 1
  00088	e8 00 00 00 00	 call	 @__security_check_cookie@4
  0008d	81 c4 1c 08 00
	00		 add	 esp, 2076		; 0000081cH
  00093	c2 04 00	 ret	 4
?InitStat@@YGHPAUNPCDIALOG_INFO@@@Z ENDP		; InitStat
_TEXT	ENDS
PUBLIC	?InitStr@@YGHPAUNPCDIALOG_INFO@@@Z		; InitStr
; Function compile flags: /Ogty
;	COMDAT ?InitStr@@YGHPAUNPCDIALOG_INFO@@@Z
_TEXT	SEGMENT
_rsf$ = -2076						; size = 2072
__$ArrayPad$ = -4					; size = 4
__$ReturnAddr$ = 4					; size = 4
_pInfo$ = 8						; size = 4
?InitStr@@YGHPAUNPCDIALOG_INFO@@@Z PROC NEAR		; InitStr, COMDAT

; 587  : {

  00000	81 ec 1c 08 00
	00		 sub	 esp, 2076		; 0000081cH
  00006	a1 00 00 00 00	 mov	 eax, DWORD PTR ___security_cookie
  0000b	8b 8c 24 20 08
	00 00		 mov	 ecx, DWORD PTR _pInfo$[esp+2072]
  00012	33 c4		 xor	 eax, esp
  00014	89 84 24 18 08
	00 00		 mov	 DWORD PTR __$ArrayPad$[esp+2076], eax

; 588  : 	CUser* pUser	= prj.GetUser( pInfo->GetPcId() );

  0001b	8b 01		 mov	 eax, DWORD PTR [ecx]
  0001d	ff 50 18	 call	 DWORD PTR [eax+24]
  00020	50		 push	 eax
  00021	b9 00 00 00 00	 mov	 ecx, OFFSET FLAT:?prj@@3VCProject@@A
  00026	e8 00 00 00 00	 call	 ?GetUser@CProject@@QAEPAVCUser@@K@Z ; CProject::GetUser

; 589  : 	int nStr = pUser->m_nStr;

  0002b	8b 88 d0 05 00
	00		 mov	 ecx, DWORD PTR [eax+1488]

; 590  : 	if( nStr - 15 > 0 )

  00031	8d 51 f1	 lea	 edx, DWORD PTR [ecx-15]
  00034	85 d2		 test	 edx, edx
  00036	7e 1b		 jle	 SHORT $L267193

; 591  : 	{
; 592  : 		pUser->SetStr( 15 );
; 593  : 		pUser->m_nRemainGP	+= nStr - 15;

  00038	8b 90 0c 06 00
	00		 mov	 edx, DWORD PTR [eax+1548]
  0003e	83 c1 f1	 add	 ecx, -15		; fffffff1H
  00041	03 d1		 add	 edx, ecx
  00043	c7 80 d0 05 00
	00 0f 00 00 00	 mov	 DWORD PTR [eax+1488], 15 ; 0000000fH
  0004d	89 90 0c 06 00
	00		 mov	 DWORD PTR [eax+1548], edx
$L267193:

; 594  : 	}
; 595  : 	
; 596  : 	RunScriptFunc rsf;
; 597  : 	rsf.wFuncType		= FUNCTYPE_INITSTR;

  00053	66 c7 84 24 08
	08 00 00 20 00	 mov	 WORD PTR _rsf$[esp+4132], 32 ; 00000020H

; 598  : 	rsf.dwVal1	= pUser->m_nRemainGP;

  0005d	8b 88 0c 06 00
	00		 mov	 ecx, DWORD PTR [eax+1548]

; 599  : 	pUser->AddRunScriptFunc( rsf );

  00063	8d 14 24	 lea	 edx, DWORD PTR _rsf$[esp+2076]
  00066	89 8c 24 00 08
	00 00		 mov	 DWORD PTR _rsf$[esp+4124], ecx
  0006d	52		 push	 edx
  0006e	8b c8		 mov	 ecx, eax
  00070	e8 00 00 00 00	 call	 ?AddRunScriptFunc@CUser@@QAEXABU_runscriptfunc@@@Z ; CUser::AddRunScriptFunc

; 600  : 	return 1;
; 601  : }

  00075	8b 8c 24 18 08
	00 00		 mov	 ecx, DWORD PTR __$ArrayPad$[esp+2076]
  0007c	33 cc		 xor	 ecx, esp
  0007e	b8 01 00 00 00	 mov	 eax, 1
  00083	e8 00 00 00 00	 call	 @__security_check_cookie@4
  00088	81 c4 1c 08 00
	00		 add	 esp, 2076		; 0000081cH
  0008e	c2 04 00	 ret	 4
?InitStr@@YGHPAUNPCDIALOG_INFO@@@Z ENDP			; InitStr
_TEXT	ENDS
PUBLIC	?InitSta@@YGHPAUNPCDIALOG_INFO@@@Z		; InitSta
; Function compile flags: /Ogty
;	COMDAT ?InitSta@@YGHPAUNPCDIALOG_INFO@@@Z
_TEXT	SEGMENT
_rsf$ = -2076						; size = 2072
__$ArrayPad$ = -4					; size = 4
__$ReturnAddr$ = 4					; size = 4
_pInfo$ = 8						; size = 4
?InitSta@@YGHPAUNPCDIALOG_INFO@@@Z PROC NEAR		; InitSta, COMDAT

; 603  : {

  00000	81 ec 1c 08 00
	00		 sub	 esp, 2076		; 0000081cH
  00006	a1 00 00 00 00	 mov	 eax, DWORD PTR ___security_cookie
  0000b	8b 8c 24 20 08
	00 00		 mov	 ecx, DWORD PTR _pInfo$[esp+2072]
  00012	33 c4		 xor	 eax, esp
  00014	89 84 24 18 08
	00 00		 mov	 DWORD PTR __$ArrayPad$[esp+2076], eax

; 604  : 	CUser* pUser	= prj.GetUser( pInfo->GetPcId() );

  0001b	8b 01		 mov	 eax, DWORD PTR [ecx]
  0001d	ff 50 18	 call	 DWORD PTR [eax+24]
  00020	50		 push	 eax
  00021	b9 00 00 00 00	 mov	 ecx, OFFSET FLAT:?prj@@3VCProject@@A
  00026	e8 00 00 00 00	 call	 ?GetUser@CProject@@QAEPAVCUser@@K@Z ; CProject::GetUser

; 605  : 	int nSta = pUser->m_nSta;

  0002b	8b 88 d4 05 00
	00		 mov	 ecx, DWORD PTR [eax+1492]

; 606  : 	if( nSta - 15 > 0 )

  00031	8d 51 f1	 lea	 edx, DWORD PTR [ecx-15]
  00034	85 d2		 test	 edx, edx
  00036	7e 1b		 jle	 SHORT $L267201

; 607  : 	{
; 608  : 		pUser->SetSta( 15 );
; 609  : 		pUser->m_nRemainGP	+= nSta - 15;

  00038	8b 90 0c 06 00
	00		 mov	 edx, DWORD PTR [eax+1548]
  0003e	83 c1 f1	 add	 ecx, -15		; fffffff1H
  00041	03 d1		 add	 edx, ecx
  00043	c7 80 d4 05 00
	00 0f 00 00 00	 mov	 DWORD PTR [eax+1492], 15 ; 0000000fH
  0004d	89 90 0c 06 00
	00		 mov	 DWORD PTR [eax+1548], edx
$L267201:

; 610  : 	}
; 611  : 	
; 612  : 	RunScriptFunc rsf;
; 613  : 	rsf.wFuncType		= FUNCTYPE_INITSTA;

  00053	66 c7 84 24 08
	08 00 00 21 00	 mov	 WORD PTR _rsf$[esp+4132], 33 ; 00000021H

; 614  : 	rsf.dwVal1	= pUser->m_nRemainGP;

  0005d	8b 88 0c 06 00
	00		 mov	 ecx, DWORD PTR [eax+1548]

; 615  : 	pUser->AddRunScriptFunc( rsf );

  00063	8d 14 24	 lea	 edx, DWORD PTR _rsf$[esp+2076]
  00066	89 8c 24 00 08
	00 00		 mov	 DWORD PTR _rsf$[esp+4124], ecx
  0006d	52		 push	 edx
  0006e	8b c8		 mov	 ecx, eax
  00070	e8 00 00 00 00	 call	 ?AddRunScriptFunc@CUser@@QAEXABU_runscriptfunc@@@Z ; CUser::AddRunScriptFunc

; 616  : 	return 1;
; 617  : }

  00075	8b 8c 24 18 08
	00 00		 mov	 ecx, DWORD PTR __$ArrayPad$[esp+2076]
  0007c	33 cc		 xor	 ecx, esp
  0007e	b8 01 00 00 00	 mov	 eax, 1
  00083	e8 00 00 00 00	 call	 @__security_check_cookie@4
  00088	81 c4 1c 08 00
	00		 add	 esp, 2076		; 0000081cH
  0008e	c2 04 00	 ret	 4
?InitSta@@YGHPAUNPCDIALOG_INFO@@@Z ENDP			; InitSta
_TEXT	ENDS
PUBLIC	?InitDex@@YGHPAUNPCDIALOG_INFO@@@Z		; InitDex
; Function compile flags: /Ogty
;	COMDAT ?InitDex@@YGHPAUNPCDIALOG_INFO@@@Z
_TEXT	SEGMENT
_rsf$ = -2076						; size = 2072
__$ArrayPad$ = -4					; size = 4
__$ReturnAddr$ = 4					; size = 4
_pInfo$ = 8						; size = 4
?InitDex@@YGHPAUNPCDIALOG_INFO@@@Z PROC NEAR		; InitDex, COMDAT

; 619  : {

  00000	81 ec 1c 08 00
	00		 sub	 esp, 2076		; 0000081cH
  00006	a1 00 00 00 00	 mov	 eax, DWORD PTR ___security_cookie
  0000b	8b 8c 24 20 08
	00 00		 mov	 ecx, DWORD PTR _pInfo$[esp+2072]
  00012	33 c4		 xor	 eax, esp
  00014	89 84 24 18 08
	00 00		 mov	 DWORD PTR __$ArrayPad$[esp+2076], eax

; 620  : 	CUser* pUser	= prj.GetUser( pInfo->GetPcId() );

  0001b	8b 01		 mov	 eax, DWORD PTR [ecx]
  0001d	ff 50 18	 call	 DWORD PTR [eax+24]
  00020	50		 push	 eax
  00021	b9 00 00 00 00	 mov	 ecx, OFFSET FLAT:?prj@@3VCProject@@A
  00026	e8 00 00 00 00	 call	 ?GetUser@CProject@@QAEPAVCUser@@K@Z ; CProject::GetUser

; 621  : 	int nDex = pUser->m_nDex;

  0002b	8b 88 d8 05 00
	00		 mov	 ecx, DWORD PTR [eax+1496]

; 622  : 	if( nDex - 15 > 0 )

  00031	8d 51 f1	 lea	 edx, DWORD PTR [ecx-15]
  00034	85 d2		 test	 edx, edx
  00036	7e 1b		 jle	 SHORT $L267209

; 623  : 	{
; 624  : 		pUser->SetDex( 15 );
; 625  : 		pUser->m_nRemainGP	+= nDex - 15;

  00038	8b 90 0c 06 00
	00		 mov	 edx, DWORD PTR [eax+1548]
  0003e	83 c1 f1	 add	 ecx, -15		; fffffff1H
  00041	03 d1		 add	 edx, ecx
  00043	c7 80 d8 05 00
	00 0f 00 00 00	 mov	 DWORD PTR [eax+1496], 15 ; 0000000fH
  0004d	89 90 0c 06 00
	00		 mov	 DWORD PTR [eax+1548], edx
$L267209:

; 626  : 	}
; 627  : 	
; 628  : 	RunScriptFunc rsf;
; 629  : 	rsf.wFuncType		= FUNCTYPE_INITDEX;

  00053	66 c7 84 24 08
	08 00 00 22 00	 mov	 WORD PTR _rsf$[esp+4132], 34 ; 00000022H

; 630  : 	rsf.dwVal1	= pUser->m_nRemainGP;

  0005d	8b 88 0c 06 00
	00		 mov	 ecx, DWORD PTR [eax+1548]

; 631  : 	pUser->AddRunScriptFunc( rsf );

  00063	8d 14 24	 lea	 edx, DWORD PTR _rsf$[esp+2076]
  00066	89 8c 24 00 08
	00 00		 mov	 DWORD PTR _rsf$[esp+4124], ecx
  0006d	52		 push	 edx
  0006e	8b c8		 mov	 ecx, eax
  00070	e8 00 00 00 00	 call	 ?AddRunScriptFunc@CUser@@QAEXABU_runscriptfunc@@@Z ; CUser::AddRunScriptFunc

; 632  : 	return 1;
; 633  : }

  00075	8b 8c 24 18 08
	00 00		 mov	 ecx, DWORD PTR __$ArrayPad$[esp+2076]
  0007c	33 cc		 xor	 ecx, esp
  0007e	b8 01 00 00 00	 mov	 eax, 1
  00083	e8 00 00 00 00	 call	 @__security_check_cookie@4
  00088	81 c4 1c 08 00
	00		 add	 esp, 2076		; 0000081cH
  0008e	c2 04 00	 ret	 4
?InitDex@@YGHPAUNPCDIALOG_INFO@@@Z ENDP			; InitDex
_TEXT	ENDS
PUBLIC	?InitInt@@YGHPAUNPCDIALOG_INFO@@@Z		; InitInt
; Function compile flags: /Ogty
;	COMDAT ?InitInt@@YGHPAUNPCDIALOG_INFO@@@Z
_TEXT	SEGMENT
_rsf$ = -2076						; size = 2072
__$ArrayPad$ = -4					; size = 4
__$ReturnAddr$ = 4					; size = 4
_pInfo$ = 8						; size = 4
?InitInt@@YGHPAUNPCDIALOG_INFO@@@Z PROC NEAR		; InitInt, COMDAT

; 635  : {

  00000	81 ec 1c 08 00
	00		 sub	 esp, 2076		; 0000081cH
  00006	a1 00 00 00 00	 mov	 eax, DWORD PTR ___security_cookie
  0000b	8b 8c 24 20 08
	00 00		 mov	 ecx, DWORD PTR _pInfo$[esp+2072]
  00012	33 c4		 xor	 eax, esp
  00014	89 84 24 18 08
	00 00		 mov	 DWORD PTR __$ArrayPad$[esp+2076], eax

; 636  : 	CUser* pUser	= prj.GetUser( pInfo->GetPcId() );

  0001b	8b 01		 mov	 eax, DWORD PTR [ecx]
  0001d	ff 50 18	 call	 DWORD PTR [eax+24]
  00020	50		 push	 eax
  00021	b9 00 00 00 00	 mov	 ecx, OFFSET FLAT:?prj@@3VCProject@@A
  00026	e8 00 00 00 00	 call	 ?GetUser@CProject@@QAEPAVCUser@@K@Z ; CProject::GetUser

; 637  : 	int nInt = pUser->m_nInt;

  0002b	8b 88 dc 05 00
	00		 mov	 ecx, DWORD PTR [eax+1500]

; 638  : 	if( nInt - 15 > 0 )

  00031	8d 51 f1	 lea	 edx, DWORD PTR [ecx-15]
  00034	85 d2		 test	 edx, edx
  00036	7e 1b		 jle	 SHORT $L267217

; 639  : 	{
; 640  : 		pUser->SetInt( 15 );
; 641  : 		pUser->m_nRemainGP	+= nInt - 15;

  00038	8b 90 0c 06 00
	00		 mov	 edx, DWORD PTR [eax+1548]
  0003e	83 c1 f1	 add	 ecx, -15		; fffffff1H
  00041	03 d1		 add	 edx, ecx
  00043	c7 80 dc 05 00
	00 0f 00 00 00	 mov	 DWORD PTR [eax+1500], 15 ; 0000000fH
  0004d	89 90 0c 06 00
	00		 mov	 DWORD PTR [eax+1548], edx
$L267217:

; 642  : 	}
; 643  : 	
; 644  : 	RunScriptFunc rsf;
; 645  : 	rsf.wFuncType		= FUNCTYPE_INITINT;

  00053	66 c7 84 24 08
	08 00 00 23 00	 mov	 WORD PTR _rsf$[esp+4132], 35 ; 00000023H

; 646  : 	rsf.dwVal1	= pUser->m_nRemainGP;

  0005d	8b 88 0c 06 00
	00		 mov	 ecx, DWORD PTR [eax+1548]

; 647  : 	pUser->AddRunScriptFunc( rsf );

  00063	8d 14 24	 lea	 edx, DWORD PTR _rsf$[esp+2076]
  00066	89 8c 24 00 08
	00 00		 mov	 DWORD PTR _rsf$[esp+4124], ecx
  0006d	52		 push	 edx
  0006e	8b c8		 mov	 ecx, eax
  00070	e8 00 00 00 00	 call	 ?AddRunScriptFunc@CUser@@QAEXABU_runscriptfunc@@@Z ; CUser::AddRunScriptFunc

; 648  : 	return 1;
; 649  : }

  00075	8b 8c 24 18 08
	00 00		 mov	 ecx, DWORD PTR __$ArrayPad$[esp+2076]
  0007c	33 cc		 xor	 ecx, esp
  0007e	b8 01 00 00 00	 mov	 eax, 1
  00083	e8 00 00 00 00	 call	 @__security_check_cookie@4
  00088	81 c4 1c 08 00
	00		 add	 esp, 2076		; 0000081cH
  0008e	c2 04 00	 ret	 4
?InitInt@@YGHPAUNPCDIALOG_INFO@@@Z ENDP			; InitInt
_TEXT	ENDS
PUBLIC	?GetPlayerGold@@YGHPAUNPCDIALOG_INFO@@@Z	; GetPlayerGold
; Function compile flags: /Ogty
;	COMDAT ?GetPlayerGold@@YGHPAUNPCDIALOG_INFO@@@Z
_TEXT	SEGMENT
_pInfo$ = 8						; size = 4
?GetPlayerGold@@YGHPAUNPCDIALOG_INFO@@@Z PROC NEAR	; GetPlayerGold, COMDAT

; 681  : 	CUser* pUser	= prj.GetUser( pInfo->GetPcId() );

  00000	8b 4c 24 04	 mov	 ecx, DWORD PTR _pInfo$[esp-4]
  00004	8b 01		 mov	 eax, DWORD PTR [ecx]
  00006	ff 50 18	 call	 DWORD PTR [eax+24]
  00009	50		 push	 eax
  0000a	b9 00 00 00 00	 mov	 ecx, OFFSET FLAT:?prj@@3VCProject@@A
  0000f	e8 00 00 00 00	 call	 ?GetUser@CProject@@QAEPAVCUser@@K@Z ; CProject::GetUser

; 682  : 	return pUser->GetGold();

  00014	8b 80 84 16 00
	00		 mov	 eax, DWORD PTR [eax+5764]

; 683  : }

  0001a	c2 04 00	 ret	 4
?GetPlayerGold@@YGHPAUNPCDIALOG_INFO@@@Z ENDP		; GetPlayerGold
_TEXT	ENDS
PUBLIC	?AddExp@@YGHPAUNPCDIALOG_INFO@@H@Z		; AddExp
EXTRN	?LevelUpSetting@CUser@@QAEXXZ:NEAR		; CUser::LevelUpSetting
EXTRN	?ExpUpSetting@CUser@@QAEXXZ:NEAR		; CUser::ExpUpSetting
EXTRN	?AddExperience@CMover@@QAEH_JHHH@Z:NEAR		; CMover::AddExperience
EXTRN	?AddSetExperience@CUser@@QAEX_JGHH0G@Z:NEAR	; CUser::AddSetExperience
; Function compile flags: /Ogty
;	COMDAT ?AddExp@@YGHPAUNPCDIALOG_INFO@@H@Z
_TEXT	SEGMENT
_pInfo$ = 8						; size = 4
_nExp$ = 12						; size = 4
?AddExp@@YGHPAUNPCDIALOG_INFO@@H@Z PROC NEAR		; AddExp, COMDAT

; 692  : 	CUser* pUser	= prj.GetUser( pInfo->GetPcId() );

  00000	8b 4c 24 04	 mov	 ecx, DWORD PTR _pInfo$[esp-4]
  00004	8b 01		 mov	 eax, DWORD PTR [ecx]
  00006	56		 push	 esi
  00007	ff 50 18	 call	 DWORD PTR [eax+24]
  0000a	50		 push	 eax
  0000b	b9 00 00 00 00	 mov	 ecx, OFFSET FLAT:?prj@@3VCProject@@A
  00010	e8 00 00 00 00	 call	 ?GetUser@CProject@@QAEPAVCUser@@K@Z ; CProject::GetUser

; 693  : 	if( pUser->AddExperience( nExp, TRUE, FALSE ) )

  00015	6a 00		 push	 0
  00017	8b f0		 mov	 esi, eax
  00019	8b 44 24 10	 mov	 eax, DWORD PTR _nExp$[esp+4]
  0001d	6a 00		 push	 0
  0001f	99		 cdq
  00020	6a 01		 push	 1
  00022	52		 push	 edx
  00023	50		 push	 eax
  00024	8b ce		 mov	 ecx, esi
  00026	e8 00 00 00 00	 call	 ?AddExperience@CMover@@QAEH_JHHH@Z ; CMover::AddExperience
  0002b	85 c0		 test	 eax, eax

; 694  : 		pUser->LevelUpSetting();

  0002d	8b ce		 mov	 ecx, esi
  0002f	74 07		 je	 SHORT $L267255
  00031	e8 00 00 00 00	 call	 ?LevelUpSetting@CUser@@QAEXXZ ; CUser::LevelUpSetting

; 695  : 	else

  00036	eb 05		 jmp	 SHORT $L267256
$L267255:

; 696  : 		pUser->ExpUpSetting();

  00038	e8 00 00 00 00	 call	 ?ExpUpSetting@CUser@@QAEXXZ ; CUser::ExpUpSetting
$L267256:

; 697  : 	pUser->AddSetExperience( pUser->GetExp1(), (WORD)pUser->m_nLevel, pUser->m_nSkillPoint, pUser->m_nSkillLevel );

  0003d	8b 8e a0 11 00
	00		 mov	 ecx, DWORD PTR [esi+4512]
  00043	8b 96 a4 11 00
	00		 mov	 edx, DWORD PTR [esi+4516]
  00049	68 ff ff 00 00	 push	 65535			; 0000ffffH
  0004e	6a ff		 push	 -1
  00050	6a ff		 push	 -1
  00052	33 c0		 xor	 eax, eax
  00054	66 8b 86 e0 05
	00 00		 mov	 ax, WORD PTR [esi+1504]
  0005b	51		 push	 ecx
  0005c	8b 8e ec 05 00
	00		 mov	 ecx, DWORD PTR [esi+1516]
  00062	52		 push	 edx
  00063	8b 96 e8 05 00
	00		 mov	 edx, DWORD PTR [esi+1512]
  00069	50		 push	 eax
  0006a	51		 push	 ecx
  0006b	52		 push	 edx
  0006c	8b ce		 mov	 ecx, esi
  0006e	e8 00 00 00 00	 call	 ?AddSetExperience@CUser@@QAEX_JGHH0G@Z ; CUser::AddSetExperience

; 698  : 	pUser->AddDefinedText( TID_GAME_REAPEXP );

  00073	68 be 03 00 00	 push	 958			; 000003beH
  00078	8b ce		 mov	 ecx, esi
  0007a	e8 00 00 00 00	 call	 ?AddDefinedText@CUser@@QAEXH@Z ; CUser::AddDefinedText

; 699  : 	return 1;

  0007f	b8 01 00 00 00	 mov	 eax, 1
  00084	5e		 pop	 esi

; 700  : }

  00085	c2 08 00	 ret	 8
?AddExp@@YGHPAUNPCDIALOG_INFO@@H@Z ENDP			; AddExp
_TEXT	ENDS
PUBLIC	?IsPartyGuild@@YGHPAUNPCDIALOG_INFO@@@Z		; IsPartyGuild
EXTRN	?GetUserByPlayerID@CUserMng@@QAEPAVCUser@@K@Z:NEAR ; CUserMng::GetUserByPlayerID
; Function compile flags: /Ogty
;	COMDAT ?IsPartyGuild@@YGHPAUNPCDIALOG_INFO@@@Z
_TEXT	SEGMENT
_aidPlayer$ = -60					; size = 60
_pInfo$ = 8						; size = 4
?IsPartyGuild@@YGHPAUNPCDIALOG_INFO@@@Z PROC NEAR	; IsPartyGuild, COMDAT

; 740  : 	int f	= 0;
; 741  : 	u_long	aidPlayer[MAX_PTMEMBER_SIZE];
; 742  : 	int	nSize	= 0;
; 743  : 	CUser* pUser	= prj.GetUser( pInfo->GetPcId() );

  00000	8b 4c 24 04	 mov	 ecx, DWORD PTR _pInfo$[esp-4]
  00004	8b 01		 mov	 eax, DWORD PTR [ecx]
  00006	83 ec 3c	 sub	 esp, 60			; 0000003cH
  00009	53		 push	 ebx
  0000a	55		 push	 ebp
  0000b	57		 push	 edi
  0000c	33 db		 xor	 ebx, ebx
  0000e	33 ff		 xor	 edi, edi
  00010	ff 50 18	 call	 DWORD PTR [eax+24]
  00013	50		 push	 eax
  00014	b9 00 00 00 00	 mov	 ecx, OFFSET FLAT:?prj@@3VCProject@@A
  00019	e8 00 00 00 00	 call	 ?GetUser@CProject@@QAEPAVCUser@@K@Z ; CProject::GetUser

; 744  : 
; 745  : 	CParty* pParty	= g_PartyMng.GetParty( pUser->m_idparty );

  0001e	8b 88 18 07 00
	00		 mov	 ecx, DWORD PTR [eax+1816]
  00024	51		 push	 ecx
  00025	b9 00 00 00 00	 mov	 ecx, OFFSET FLAT:?g_PartyMng@@3VCPartyMng@@A
  0002a	e8 00 00 00 00	 call	 ?GetParty@CPartyMng@@QAEPAVCParty@@K@Z ; CPartyMng::GetParty

; 746  : 	if( pParty )

  0002f	85 c0		 test	 eax, eax
  00031	74 1f		 je	 SHORT $L267292

; 747  : 	{
; 748  : 		nSize	= pParty->m_nSizeofMember;

  00033	8b b8 cc 01 00
	00		 mov	 edi, DWORD PTR [eax+460]

; 749  : 		for( int i = 0; i < pParty->m_nSizeofMember; i++ )

  00039	33 c9		 xor	 ecx, ecx
  0003b	85 ff		 test	 edi, edi
  0003d	7e 18		 jle	 SHORT $L267297

; 747  : 	{
; 748  : 		nSize	= pParty->m_nSizeofMember;

  0003f	83 c0 28	 add	 eax, 40			; 00000028H
$L267294:

; 750  : 			aidPlayer[i]	= pParty->m_aMember[i].m_uPlayerId;

  00042	8b 10		 mov	 edx, DWORD PTR [eax]
  00044	89 54 8c 0c	 mov	 DWORD PTR _aidPlayer$[esp+ecx*4+72], edx
  00048	41		 inc	 ecx
  00049	83 c0 1c	 add	 eax, 28			; 0000001cH
  0004c	3b cf		 cmp	 ecx, edi
  0004e	7c f2		 jl	 SHORT $L267294

; 751  : 	}
; 752  : 	else

  00050	eb 05		 jmp	 SHORT $L267297
$L267292:

; 753  : 	{
; 754  : 		f	= 1;

  00052	bb 01 00 00 00	 mov	 ebx, 1
$L267297:

; 755  : 	}
; 756  : 
; 757  : 	for( int i = 0; i < nSize; i++ )

  00057	33 ed		 xor	 ebp, ebp
  00059	85 ff		 test	 edi, edi
  0005b	7e 75		 jle	 SHORT $L273899
  0005d	56		 push	 esi
  0005e	8b ff		 npad	 2
$L267299:

; 758  : 	{
; 759  : 		CUser* pUsertmp	= g_UserMng.GetUserByPlayerID( aidPlayer[i] );

  00060	8b 44 ac 10	 mov	 eax, DWORD PTR _aidPlayer$[esp+ebp*4+76]
  00064	50		 push	 eax
  00065	b9 00 00 00 00	 mov	 ecx, OFFSET FLAT:?g_UserMng@@3VCUserMng@@A
  0006a	e8 00 00 00 00	 call	 ?GetUserByPlayerID@CUserMng@@QAEPAVCUser@@K@Z ; CUserMng::GetUserByPlayerID
  0006f	8b f0		 mov	 esi, eax

; 760  : 		if( IsValidObj( pUsertmp ) )

  00071	85 f6		 test	 esi, esi
  00073	74 3f		 je	 SHORT $L273889
  00075	f6 46 04 01	 test	 BYTE PTR [esi+4], 1
  00079	75 39		 jne	 SHORT $L273889

; 761  : 		{
; 762  : 			if( pUsertmp->GetGuild() )

  0007b	8b ce		 mov	 ecx, esi
  0007d	e8 00 00 00 00	 call	 ?GetGuild@CMover@@QAEPAVCGuild@@XZ ; CMover::GetGuild
  00082	85 c0		 test	 eax, eax
  00084	75 2e		 jne	 SHORT $L273889

; 765  : 				break;
; 766  : 			}
; 767  : 			CTime tCurrent = CTime::GetCurrentTime();

  00086	50		 push	 eax
  00087	e8 00 00 00 00	 call	 __time64

; 768  : 			if( tCurrent < pUsertmp->m_tGuildMember )

  0008c	8b 8e e4 0e 00
	00		 mov	 ecx, DWORD PTR [esi+3812]
  00092	83 c4 04	 add	 esp, 4
  00095	3b d1		 cmp	 edx, ecx
  00097	7c 2a		 jl	 SHORT $L273890
  00099	7f 08		 jg	 SHORT $L273898
  0009b	3b 86 e0 0e 00
	00		 cmp	 eax, DWORD PTR [esi+3808]
  000a1	72 20		 jb	 SHORT $L273890
$L273898:

; 755  : 	}
; 756  : 
; 757  : 	for( int i = 0; i < nSize; i++ )

  000a3	45		 inc	 ebp
  000a4	3b ef		 cmp	 ebp, edi
  000a6	7c b8		 jl	 SHORT $L267299
  000a8	5e		 pop	 esi
  000a9	5f		 pop	 edi
  000aa	5d		 pop	 ebp

; 771  : 				break;
; 772  : 			}
; 773  : 		}
; 774  : 		else
; 775  : 		{
; 776  : 			f	= 1;
; 777  : 			break;
; 778  : 		}
; 779  : 	}
; 780  : 	return f;

  000ab	8b c3		 mov	 eax, ebx
  000ad	5b		 pop	 ebx

; 781  : }

  000ae	83 c4 3c	 add	 esp, 60			; 0000003cH
  000b1	c2 04 00	 ret	 4
$L273889:
  000b4	5e		 pop	 esi
  000b5	5f		 pop	 edi
  000b6	5d		 pop	 ebp

; 763  : 			{
; 764  : 				f	= 1;

  000b7	b8 01 00 00 00	 mov	 eax, 1
  000bc	5b		 pop	 ebx

; 781  : }

  000bd	83 c4 3c	 add	 esp, 60			; 0000003cH
  000c0	c2 04 00	 ret	 4
$L273890:
  000c3	5e		 pop	 esi
  000c4	5f		 pop	 edi
  000c5	5d		 pop	 ebp

; 769  : 			{
; 770  : 				f	= 2;

  000c6	b8 02 00 00 00	 mov	 eax, 2
  000cb	5b		 pop	 ebx

; 781  : }

  000cc	83 c4 3c	 add	 esp, 60			; 0000003cH
  000cf	c2 04 00	 ret	 4
$L273899:
  000d2	5f		 pop	 edi
  000d3	5d		 pop	 ebp

; 771  : 				break;
; 772  : 			}
; 773  : 		}
; 774  : 		else
; 775  : 		{
; 776  : 			f	= 1;
; 777  : 			break;
; 778  : 		}
; 779  : 	}
; 780  : 	return f;

  000d4	8b c3		 mov	 eax, ebx
  000d6	5b		 pop	 ebx

; 781  : }

  000d7	83 c4 3c	 add	 esp, 60			; 0000003cH
  000da	c2 04 00	 ret	 4
?IsPartyGuild@@YGHPAUNPCDIALOG_INFO@@@Z ENDP		; IsPartyGuild
_TEXT	ENDS
PUBLIC	?CreateGuild@@YGHPAUNPCDIALOG_INFO@@@Z		; CreateGuild
EXTRN	?SendCreateGuild@CDPCoreClient@@QAEXPAU_GUILD_MEMBER_INFO@@HPBD@Z:NEAR ; CDPCoreClient::SendCreateGuild
EXTRN	?g_DPCoreClient@@3VCDPCoreClient@@A:BYTE	; g_DPCoreClient
; Function compile flags: /Ogty
;	COMDAT ?CreateGuild@@YGHPAUNPCDIALOG_INFO@@@Z
_TEXT	SEGMENT
_info$ = -120						; size = 120
_pInfo$ = 8						; size = 4
?CreateGuild@@YGHPAUNPCDIALOG_INFO@@@Z PROC NEAR	; CreateGuild, COMDAT

; 801  : 	CUser* pUser = prj.GetUser( pInfo->GetPcId() );

  00000	8b 4c 24 04	 mov	 ecx, DWORD PTR _pInfo$[esp-4]
  00004	8b 01		 mov	 eax, DWORD PTR [ecx]
  00006	83 ec 78	 sub	 esp, 120		; 00000078H
  00009	53		 push	 ebx
  0000a	55		 push	 ebp
  0000b	56		 push	 esi
  0000c	57		 push	 edi
  0000d	ff 50 18	 call	 DWORD PTR [eax+24]
  00010	50		 push	 eax
  00011	b9 00 00 00 00	 mov	 ecx, OFFSET FLAT:?prj@@3VCProject@@A
  00016	e8 00 00 00 00	 call	 ?GetUser@CProject@@QAEPAVCUser@@K@Z ; CProject::GetUser
  0001b	8b f8		 mov	 edi, eax

; 802  : 	int nSize = 0;

  0001d	33 db		 xor	 ebx, ebx

; 803  : 	GUILD_MEMBER_INFO	info[MAX_PTMEMBER_SIZE];

  0001f	8d 44 24 10	 lea	 eax, DWORD PTR _info$[esp+136]
  00023	b9 0f 00 00 00	 mov	 ecx, 15			; 0000000fH
  00028	b2 64		 mov	 dl, 100			; 00000064H
  0002a	8d 9b 00 00 00
	00		 npad	 6
$L273913:
  00030	c7 00 00 00 00
	00		 mov	 DWORD PTR [eax], 0
  00036	88 50 04	 mov	 BYTE PTR [eax+4], dl
  00039	83 c0 08	 add	 eax, 8
  0003c	49		 dec	 ecx
  0003d	75 f1		 jne	 SHORT $L273913

; 804  : 
; 805  : 	CParty* pParty	= g_PartyMng.GetParty( pUser->m_idparty );

  0003f	8b 8f 18 07 00
	00		 mov	 ecx, DWORD PTR [edi+1816]
  00045	51		 push	 ecx
  00046	b9 00 00 00 00	 mov	 ecx, OFFSET FLAT:?g_PartyMng@@3VCPartyMng@@A
  0004b	e8 00 00 00 00	 call	 ?GetParty@CPartyMng@@QAEPAVCParty@@K@Z ; CPartyMng::GetParty
  00050	8b e8		 mov	 ebp, eax

; 806  : 	if( pParty && pParty->IsLeader( pUser->m_idPlayer ) )

  00052	85 ed		 test	 ebp, ebp
  00054	74 6e		 je	 SHORT $L267329
  00056	8b 55 28	 mov	 edx, DWORD PTR [ebp+40]
  00059	3b 97 38 02 00
	00		 cmp	 edx, DWORD PTR [edi+568]
  0005f	8d 75 28	 lea	 esi, DWORD PTR [ebp+40]
  00062	75 60		 jne	 SHORT $L267329

; 807  : 	{
; 808  : 		for( int i = 0; i < pParty->m_nSizeofMember; i++ )

  00064	8b 85 cc 01 00
	00		 mov	 eax, DWORD PTR [ebp+460]
  0006a	33 ff		 xor	 edi, edi
  0006c	85 c0		 test	 eax, eax
  0006e	7e 30		 jle	 SHORT $L267333
$L267331:

; 809  : 		{
; 810  : 			CUser* pUsertmp	= g_UserMng.GetUserByPlayerID( pParty->GetPlayerId( i ) );

  00070	8b 06		 mov	 eax, DWORD PTR [esi]
  00072	50		 push	 eax
  00073	b9 00 00 00 00	 mov	 ecx, OFFSET FLAT:?g_UserMng@@3VCUserMng@@A
  00078	e8 00 00 00 00	 call	 ?GetUserByPlayerID@CUserMng@@QAEPAVCUser@@K@Z ; CUserMng::GetUserByPlayerID

; 811  : 			if( IsValidObj( pUsertmp ) )

  0007d	85 c0		 test	 eax, eax
  0007f	74 43		 je	 SHORT $L267329
  00081	f6 40 04 01	 test	 BYTE PTR [eax+4], 1
  00085	75 3d		 jne	 SHORT $L267329

; 812  : 			{
; 813  : 				info[nSize].idPlayer	= pUsertmp->m_idPlayer;

  00087	8b 80 38 02 00
	00		 mov	 eax, DWORD PTR [eax+568]
  0008d	89 44 dc 10	 mov	 DWORD PTR _info$[esp+ebx*8+136], eax
  00091	8b 85 cc 01 00
	00		 mov	 eax, DWORD PTR [ebp+460]

; 814  : #if __VER < 11 // __SYS_PLAYER_DATA
; 815  : 				info[nSize].nLevel	= pUsertmp->GetLevel();
; 816  : 				info[nSize].nJob	= pUsertmp->GetJob();
; 817  : 				info[nSize].dwSex	= pUsertmp->GetSex();
; 818  : #endif	// __SYS_PLAYER_DATA
; 819  : 				nSize++;

  00097	43		 inc	 ebx
  00098	47		 inc	 edi
  00099	83 c6 1c	 add	 esi, 28			; 0000001cH
  0009c	3b f8		 cmp	 edi, eax
  0009e	7c d0		 jl	 SHORT $L267331
$L267333:

; 832  : 	}
; 833  : 
; 834  : 	g_DPCoreClient.SendCreateGuild( info, nSize, "" );

  000a0	68 00 00 00 00	 push	 OFFSET FLAT:??_C@_00CNPNBAHC@?$AA@
  000a5	53		 push	 ebx
  000a6	8d 4c 24 18	 lea	 ecx, DWORD PTR _info$[esp+144]
  000aa	51		 push	 ecx
  000ab	b9 00 00 00 00	 mov	 ecx, OFFSET FLAT:?g_DPCoreClient@@3VCDPCoreClient@@A
  000b0	e8 00 00 00 00	 call	 ?SendCreateGuild@CDPCoreClient@@QAEXPAU_GUILD_MEMBER_INFO@@HPBD@Z ; CDPCoreClient::SendCreateGuild
  000b5	5f		 pop	 edi
  000b6	5e		 pop	 esi
  000b7	5d		 pop	 ebp

; 835  : 
; 836  : 	return 1;

  000b8	b8 01 00 00 00	 mov	 eax, 1
  000bd	5b		 pop	 ebx

; 837  : }

  000be	83 c4 78	 add	 esp, 120		; 00000078H
  000c1	c2 04 00	 ret	 4
$L267329:
  000c4	5f		 pop	 edi
  000c5	5e		 pop	 esi
  000c6	5d		 pop	 ebp

; 820  : 			}
; 821  : 			else
; 822  : 			{
; 823  : 				// error	- offline
; 824  : 				return 0;
; 825  : 			}
; 826  : 		}
; 827  : 	}
; 828  : 	else
; 829  : 	{
; 830  : 		// error	-
; 831  : 		return 0;

  000c7	33 c0		 xor	 eax, eax
  000c9	5b		 pop	 ebx

; 837  : }

  000ca	83 c4 78	 add	 esp, 120		; 00000078H
  000cd	c2 04 00	 ret	 4
?CreateGuild@@YGHPAUNPCDIALOG_INFO@@@Z ENDP		; CreateGuild
_TEXT	ENDS
PUBLIC	?DestroyGuild@@YGHPAUNPCDIALOG_INFO@@@Z		; DestroyGuild
; Function compile flags: /Ogty
;	COMDAT ?DestroyGuild@@YGHPAUNPCDIALOG_INFO@@@Z
_TEXT	SEGMENT
_rsf$267345 = -2076					; size = 2072
__$ArrayPad$ = -4					; size = 4
__$ReturnAddr$ = 4					; size = 4
_pInfo$ = 8						; size = 4
?DestroyGuild@@YGHPAUNPCDIALOG_INFO@@@Z PROC NEAR	; DestroyGuild, COMDAT

; 840  : {

  00000	81 ec 1c 08 00
	00		 sub	 esp, 2076		; 0000081cH
  00006	a1 00 00 00 00	 mov	 eax, DWORD PTR ___security_cookie
  0000b	8b 8c 24 20 08
	00 00		 mov	 ecx, DWORD PTR _pInfo$[esp+2072]
  00012	33 c4		 xor	 eax, esp
  00014	56		 push	 esi
  00015	89 84 24 1c 08
	00 00		 mov	 DWORD PTR __$ArrayPad$[esp+2080], eax

; 841  : 	CUser* pUser = prj.GetUser( pInfo->GetPcId() );

  0001c	8b 01		 mov	 eax, DWORD PTR [ecx]
  0001e	57		 push	 edi
  0001f	ff 50 18	 call	 DWORD PTR [eax+24]
  00022	50		 push	 eax
  00023	b9 00 00 00 00	 mov	 ecx, OFFSET FLAT:?prj@@3VCProject@@A
  00028	e8 00 00 00 00	 call	 ?GetUser@CProject@@QAEPAVCUser@@K@Z ; CProject::GetUser
  0002d	8b f0		 mov	 esi, eax

; 842  : 
; 843  : 	CGuild* pGuild	= g_GuildMng.GetGuild( pUser->m_idGuild );

  0002f	8b 8e 1c 07 00
	00		 mov	 ecx, DWORD PTR [esi+1820]
  00035	51		 push	 ecx
  00036	b9 00 00 00 00	 mov	 ecx, OFFSET FLAT:?g_GuildMng@@3VCGuildMng@@A
  0003b	e8 00 00 00 00	 call	 ?GetGuild@CGuildMng@@QAEPAVCGuild@@K@Z ; CGuildMng::GetGuild
  00040	8b f8		 mov	 edi, eax

; 844  : 	if( pGuild && pGuild->IsMember( pUser->m_idPlayer ) )

  00042	85 ff		 test	 edi, edi
  00044	74 3c		 je	 SHORT $L267343
  00046	8b 86 38 02 00
	00		 mov	 eax, DWORD PTR [esi+568]
  0004c	50		 push	 eax
  0004d	8b cf		 mov	 ecx, edi
  0004f	e8 00 00 00 00	 call	 ?GetMember@CGuild@@QAEPAVCGuildMember@@K@Z ; CGuild::GetMember
  00054	85 c0		 test	 eax, eax
  00056	74 2a		 je	 SHORT $L267343

; 845  : 	{
; 846  : 		if( pGuild->IsMaster( pUser->m_idPlayer ) )

  00058	8b 57 44	 mov	 edx, DWORD PTR [edi+68]
  0005b	3b 96 38 02 00
	00		 cmp	 edx, DWORD PTR [esi+568]

; 847  : 		{
; 848  : 			RunScriptFunc rsf;
; 849  : 			rsf.wFuncType	= FUNCTYPE_DESTROYGUILD;
; 850  : 			pUser->AddRunScriptFunc( rsf );

  00061	8b ce		 mov	 ecx, esi
  00063	75 16		 jne	 SHORT $L267344
  00065	8d 44 24 08	 lea	 eax, DWORD PTR _rsf$267345[esp+2084]
  00069	50		 push	 eax
  0006a	66 c7 84 24 14
	08 00 00 19 00	 mov	 WORD PTR _rsf$267345[esp+4144], 25 ; 00000019H
  00074	e8 00 00 00 00	 call	 ?AddRunScriptFunc@CUser@@QAEXABU_runscriptfunc@@@Z ; CUser::AddRunScriptFunc

; 851  : 		}
; 852  : 		else

  00079	eb 13		 jmp	 SHORT $L273956
$L267344:

; 853  : 			pUser->AddDefinedText( TID_GAME_COMDELNOTKINGPIN );

  0007b	68 a4 02 00 00	 push	 676			; 000002a4H

; 854  : 	}
; 855  : 	else

  00080	eb 07		 jmp	 SHORT $L273957
$L267343:

; 856  : 		pUser->AddDefinedText( TID_GAME_COMNOHAVECOM );

  00082	68 a5 02 00 00	 push	 677			; 000002a5H
  00087	8b ce		 mov	 ecx, esi
$L273957:
  00089	e8 00 00 00 00	 call	 ?AddDefinedText@CUser@@QAEXH@Z ; CUser::AddDefinedText
$L273956:

; 857  : 
; 858  : 	return 1;
; 859  : }

  0008e	8b 8c 24 20 08
	00 00		 mov	 ecx, DWORD PTR __$ArrayPad$[esp+2084]
  00095	5f		 pop	 edi
  00096	5e		 pop	 esi
  00097	33 cc		 xor	 ecx, esp
  00099	b8 01 00 00 00	 mov	 eax, 1
  0009e	e8 00 00 00 00	 call	 @__security_check_cookie@4
  000a3	81 c4 1c 08 00
	00		 add	 esp, 2076		; 0000081cH
  000a9	c2 04 00	 ret	 4
?DestroyGuild@@YGHPAUNPCDIALOG_INFO@@@Z ENDP		; DestroyGuild
_TEXT	ENDS
PUBLIC	?ChangeJob@@YGHPAUNPCDIALOG_INFO@@H@Z		; ChangeJob
PUBLIC	??_C@_0BE@JGJACHAB@Error?5ChangeJob?5?3?51?$AA@	; `string'
PUBLIC	??_C@_0BE@LNLNHEMC@Error?5ChangeJob?5?3?52?$AA@	; `string'
PUBLIC	??_C@_0BE@KEKGEFID@Error?5ChangeJob?5?3?53?$AA@	; `string'
PUBLIC	??_C@_0CH@NIAJEEOE@Error?5ChangeJob?5?3?5CMover?3?3AddCha@ ; `string'
EXTRN	?AddNearSetChangeJob@CUserMng@@QAEXPAVCMover@@HPAUtagSkill@@@Z:NEAR ; CUserMng::AddNearSetChangeJob
EXTRN	?AddSetChangeJob@CUser@@QAEXH@Z:NEAR		; CUser::AddSetChangeJob
EXTRN	?SendRecommend@CDPDatabaseClient@@QAEXPAVCUser@@H@Z:NEAR ; CDPDatabaseClient::SendRecommend
EXTRN	?SendLogLevelUp@CDPDatabaseClient@@QAEXPAVCMover@@H@Z:NEAR ; CDPDatabaseClient::SendLogLevelUp
EXTRN	?IsBaseJob@CMover@@QAEHXZ:NEAR			; CMover::IsBaseJob
EXTRN	?IsExpert@CMover@@QAEHXZ:NEAR			; CMover::IsExpert
EXTRN	?IsPro@CMover@@QAEHXZ:NEAR			; CMover::IsPro
EXTRN	?AddChangeJob@CMover@@QAEHH@Z:NEAR		; CMover::AddChangeJob
;	COMDAT ??_C@_0BE@JGJACHAB@Error?5ChangeJob?5?3?51?$AA@
; File c:\documents and settings\test\mes documents\source\virtuos_v17\build\program\_common\mover.h
CONST	SEGMENT
??_C@_0BE@JGJACHAB@Error?5ChangeJob?5?3?51?$AA@ DB 'Error ChangeJob : 1', 00H ; `string'
CONST	ENDS
;	COMDAT ??_C@_0BE@LNLNHEMC@Error?5ChangeJob?5?3?52?$AA@
CONST	SEGMENT
??_C@_0BE@LNLNHEMC@Error?5ChangeJob?5?3?52?$AA@ DB 'Error ChangeJob : 2', 00H ; `string'
CONST	ENDS
;	COMDAT ??_C@_0BE@KEKGEFID@Error?5ChangeJob?5?3?53?$AA@
CONST	SEGMENT
??_C@_0BE@KEKGEFID@Error?5ChangeJob?5?3?53?$AA@ DB 'Error ChangeJob : 3', 00H ; `string'
CONST	ENDS
;	COMDAT ??_C@_0CH@NIAJEEOE@Error?5ChangeJob?5?3?5CMover?3?3AddCha@
CONST	SEGMENT
??_C@_0CH@NIAJEEOE@Error?5ChangeJob?5?3?5CMover?3?3AddCha@ DB 'Error Chan'
	DB	'geJob : CMover::AddChangeJob', 00H		; `string'
; Function compile flags: /Ogty
; File c:\documents and settings\test\mes documents\source\virtuos_v17\build\program\_common\scriptlib.cpp
CONST	ENDS
;	COMDAT ?ChangeJob@@YGHPAUNPCDIALOG_INFO@@H@Z
_TEXT	SEGMENT
_pInfo$ = 8						; size = 4
_nJob$ = 12						; size = 4
?ChangeJob@@YGHPAUNPCDIALOG_INFO@@H@Z PROC NEAR		; ChangeJob, COMDAT

; 868  : 	int v1	=nJob;
; 869  : 	CUser* pUser	= prj.GetUser( pInfo->GetPcId() );

  00000	8b 4c 24 04	 mov	 ecx, DWORD PTR _pInfo$[esp-4]
  00004	8b 01		 mov	 eax, DWORD PTR [ecx]
  00006	56		 push	 esi
  00007	ff 50 18	 call	 DWORD PTR [eax+24]
  0000a	50		 push	 eax
  0000b	b9 00 00 00 00	 mov	 ecx, OFFSET FLAT:?prj@@3VCProject@@A
  00010	e8 00 00 00 00	 call	 ?GetUser@CProject@@QAEPAVCUser@@K@Z ; CProject::GetUser
  00015	8b f0		 mov	 esi, eax

; 870  : 	if( pUser->IsBaseJob() && pUser->GetLevel() != MAX_JOB_LEVEL )

  00017	8b ce		 mov	 ecx, esi
  00019	e8 00 00 00 00	 call	 ?IsBaseJob@CMover@@QAEHXZ ; CMover::IsBaseJob
  0001e	85 c0		 test	 eax, eax
  00020	74 1c		 je	 SHORT $L267358
  00022	83 be e0 05 00
	00 0f		 cmp	 DWORD PTR [esi+1504], 15 ; 0000000fH
  00029	74 13		 je	 SHORT $L267358

; 871  : 	{
; 872  : 		Error( "Error ChangeJob : 1" );

  0002b	68 00 00 00 00	 push	 OFFSET FLAT:??_C@_0BE@JGJACHAB@Error?5ChangeJob?5?3?51?$AA@
  00030	e8 00 00 00 00	 call	 ?Error@@YAPBDPBDZZ	; Error
  00035	83 c4 04	 add	 esp, 4

; 873  : 		return 0;

  00038	33 c0		 xor	 eax, eax
  0003a	5e		 pop	 esi

; 909  : }

  0003b	c2 08 00	 ret	 8
$L267358:

; 874  : 	}
; 875  : 	if( pUser->IsExpert() && pUser->GetLevel() < MAX_JOB_LEVEL + MAX_EXP_LEVEL )

  0003e	8b ce		 mov	 ecx, esi
  00040	e8 00 00 00 00	 call	 ?IsExpert@CMover@@QAEHXZ ; CMover::IsExpert
  00045	85 c0		 test	 eax, eax
  00047	74 1c		 je	 SHORT $L267360
  00049	83 be e0 05 00
	00 3c		 cmp	 DWORD PTR [esi+1504], 60 ; 0000003cH
  00050	7d 13		 jge	 SHORT $L267360

; 876  : 	{
; 877  : 		Error( "Error ChangeJob : 2" );

  00052	68 00 00 00 00	 push	 OFFSET FLAT:??_C@_0BE@LNLNHEMC@Error?5ChangeJob?5?3?52?$AA@
  00057	e8 00 00 00 00	 call	 ?Error@@YAPBDPBDZZ	; Error
  0005c	83 c4 04	 add	 esp, 4

; 878  : 		return 0;

  0005f	33 c0		 xor	 eax, eax
  00061	5e		 pop	 esi

; 909  : }

  00062	c2 08 00	 ret	 8
$L267360:

; 879  : 	}
; 880  : 	if( pUser->IsPro() && pUser->GetLevel() < MAX_GENERAL_LEVEL && pUser->GetExpPercent() < 9999 )

  00065	8b ce		 mov	 ecx, esi
  00067	e8 00 00 00 00	 call	 ?IsPro@CMover@@QAEHXZ	; CMover::IsPro
  0006c	85 c0		 test	 eax, eax
  0006e	74 2a		 je	 SHORT $L267362
  00070	83 be e0 05 00
	00 78		 cmp	 DWORD PTR [esi+1504], 120 ; 00000078H
  00077	7d 21		 jge	 SHORT $L267362
  00079	8b ce		 mov	 ecx, esi
  0007b	e8 00 00 00 00	 call	 ?GetExpPercent@CMover@@QAEHXZ ; CMover::GetExpPercent
  00080	3d 0f 27 00 00	 cmp	 eax, 9999		; 0000270fH
  00085	7d 13		 jge	 SHORT $L267362

; 881  : 	{
; 882  : 		Error( "Error ChangeJob : 3" );

  00087	68 00 00 00 00	 push	 OFFSET FLAT:??_C@_0BE@KEKGEFID@Error?5ChangeJob?5?3?53?$AA@
  0008c	e8 00 00 00 00	 call	 ?Error@@YAPBDPBDZZ	; Error
  00091	83 c4 04	 add	 esp, 4

; 883  : 		return 0;

  00094	33 c0		 xor	 eax, eax
  00096	5e		 pop	 esi

; 909  : }

  00097	c2 08 00	 ret	 8
$L267362:
  0009a	57		 push	 edi

; 884  : 	}
; 885  : 	if( pUser->AddChangeJob( v1 ) )

  0009b	8b 7c 24 10	 mov	 edi, DWORD PTR _nJob$[esp+4]
  0009f	57		 push	 edi
  000a0	8b ce		 mov	 ecx, esi
  000a2	e8 00 00 00 00	 call	 ?AddChangeJob@CMover@@QAEHH@Z ; CMover::AddChangeJob
  000a7	85 c0		 test	 eax, eax
  000a9	74 63		 je	 SHORT $L267364

; 886  : 	{
; 887  : 		pUser->AddSetChangeJob( v1 );

  000ab	57		 push	 edi
  000ac	8b ce		 mov	 ecx, esi
  000ae	e8 00 00 00 00	 call	 ?AddSetChangeJob@CUser@@QAEXH@Z ; CUser::AddSetChangeJob

; 888  : 		g_UserMng.AddNearSetChangeJob( (CMover*)pUser, v1, &pUser->m_aJobSkill[MAX_JOB_SKILL] );

  000b3	8d 8e 84 03 00
	00		 lea	 ecx, DWORD PTR [esi+900]
  000b9	51		 push	 ecx
  000ba	57		 push	 edi
  000bb	56		 push	 esi
  000bc	b9 00 00 00 00	 mov	 ecx, OFFSET FLAT:?g_UserMng@@3VCUserMng@@A
  000c1	e8 00 00 00 00	 call	 ?AddNearSetChangeJob@CUserMng@@QAEXPAVCMover@@HPAUtagSkill@@@Z ; CUserMng::AddNearSetChangeJob

; 889  : 		// #dlvr
; 890  : 		g_dpDBClient.SendLogLevelUp( (CUser*)pUser, 4 );

  000c6	6a 04		 push	 4
  000c8	56		 push	 esi
  000c9	b9 00 00 00 00	 mov	 ecx, OFFSET FLAT:?g_dpDBClient@@3VCDPDatabaseClient@@A
  000ce	e8 00 00 00 00	 call	 ?SendLogLevelUp@CDPDatabaseClient@@QAEXPAVCMover@@H@Z ; CDPDatabaseClient::SendLogLevelUp

; 891  : #ifdef __S_RECOMMEND_EVE
; 892  : 		if( g_eLocal.GetState( EVE_RECOMMEND ) && pUser->IsPlayer() )

  000d3	6a 15		 push	 21			; 00000015H
  000d5	b9 00 00 00 00	 mov	 ecx, OFFSET FLAT:?g_eLocal@@3VCFlyffEvent@@A
  000da	e8 00 00 00 00	 call	 ?GetState@CFlyffEvent@@QAEEH@Z ; CFlyffEvent::GetState
  000df	84 c0		 test	 al, al
  000e1	74 16		 je	 SHORT $L267367
  000e3	8b 86 34 02 00
	00		 mov	 eax, DWORD PTR [esi+564]
  000e9	85 c0		 test	 eax, eax
  000eb	74 0c		 je	 SHORT $L267367

; 893  : 			g_dpDBClient.SendRecommend( (CUser*)pUser, v1 );

  000ed	57		 push	 edi
  000ee	56		 push	 esi
  000ef	b9 00 00 00 00	 mov	 ecx, OFFSET FLAT:?g_dpDBClient@@3VCDPDatabaseClient@@A
  000f4	e8 00 00 00 00	 call	 ?SendRecommend@CDPDatabaseClient@@QAEXPAVCUser@@H@Z ; CDPDatabaseClient::SendRecommend
$L267367:

; 894  : #endif // __S_RECOMMEND_EVE
; 895  : #if __VER >= 11 // __SYS_PLAYER_DATA
; 896  : 		g_dpDBClient.SendUpdatePlayerData( pUser );

  000f9	56		 push	 esi
  000fa	b9 00 00 00 00	 mov	 ecx, OFFSET FLAT:?g_dpDBClient@@3VCDPDatabaseClient@@A
  000ff	e8 00 00 00 00	 call	 ?SendUpdatePlayerData@CDPDatabaseClient@@QAEXPAVCUser@@@Z ; CDPDatabaseClient::SendUpdatePlayerData
  00104	5f		 pop	 edi

; 907  : 	}
; 908  : 	return 1;

  00105	b8 01 00 00 00	 mov	 eax, 1
  0010a	5e		 pop	 esi

; 909  : }

  0010b	c2 08 00	 ret	 8
$L267364:

; 897  : #else	// __SYS_PLAYER_DATA
; 898  : 		g_DPCoreClient.SendPartyMemberJob( (CUser*)pUser );
; 899  : 		g_DPCoreClient.SendFriendChangeJob( (CUser*)pUser );
; 900  : 		if( pUser->m_idGuild != 0 )
; 901  : 			g_DPCoreClient.SendGuildChangeJobLevel( (CUser*)pUser );
; 902  : #endif	// __SYS_PLAYER_DATA
; 903  : 	}
; 904  : 	else
; 905  : 	{
; 906  : 		Error( "Error ChangeJob : CMover::AddChangeJob" );

  0010e	68 00 00 00 00	 push	 OFFSET FLAT:??_C@_0CH@NIAJEEOE@Error?5ChangeJob?5?3?5CMover?3?3AddCha@
  00113	e8 00 00 00 00	 call	 ?Error@@YAPBDPBDZZ	; Error
  00118	83 c4 04	 add	 esp, 4
  0011b	5f		 pop	 edi

; 907  : 	}
; 908  : 	return 1;

  0011c	b8 01 00 00 00	 mov	 eax, 1
  00121	5e		 pop	 esi

; 909  : }

  00122	c2 08 00	 ret	 8
?ChangeJob@@YGHPAUNPCDIALOG_INFO@@H@Z ENDP		; ChangeJob
_TEXT	ENDS
PUBLIC	?GetPlayerSex@@YGHPAUNPCDIALOG_INFO@@@Z		; GetPlayerSex
; Function compile flags: /Ogty
;	COMDAT ?GetPlayerSex@@YGHPAUNPCDIALOG_INFO@@@Z
_TEXT	SEGMENT
_pInfo$ = 8						; size = 4
?GetPlayerSex@@YGHPAUNPCDIALOG_INFO@@@Z PROC NEAR	; GetPlayerSex, COMDAT

; 913  : 	CUser* pUser = prj.GetUser( pInfo->GetPcId() );

  00000	8b 4c 24 04	 mov	 ecx, DWORD PTR _pInfo$[esp-4]
  00004	8b 01		 mov	 eax, DWORD PTR [ecx]
  00006	ff 50 18	 call	 DWORD PTR [eax+24]
  00009	50		 push	 eax
  0000a	b9 00 00 00 00	 mov	 ecx, OFFSET FLAT:?prj@@3VCProject@@A
  0000f	e8 00 00 00 00	 call	 ?GetUser@CProject@@QAEPAVCUser@@K@Z ; CProject::GetUser

; 914  : 	return pUser->GetSex();

  00014	0f b6 80 20 06
	00 00		 movzx	 eax, BYTE PTR [eax+1568]

; 915  : }

  0001b	c2 04 00	 ret	 4
?GetPlayerSex@@YGHPAUNPCDIALOG_INFO@@@Z ENDP		; GetPlayerSex
_TEXT	ENDS
PUBLIC	?QuerySetPlayerName@@YGHPAUNPCDIALOG_INFO@@@Z	; QuerySetPlayerName
; Function compile flags: /Ogty
;	COMDAT ?QuerySetPlayerName@@YGHPAUNPCDIALOG_INFO@@@Z
_TEXT	SEGMENT
_rsf$267497 = -2076					; size = 2072
__$ArrayPad$ = -4					; size = 4
__$ReturnAddr$ = 4					; size = 4
_pInfo$ = 8						; size = 4
?QuerySetPlayerName@@YGHPAUNPCDIALOG_INFO@@@Z PROC NEAR	; QuerySetPlayerName, COMDAT

; 1063 : {

  00000	81 ec 1c 08 00
	00		 sub	 esp, 2076		; 0000081cH
  00006	a1 00 00 00 00	 mov	 eax, DWORD PTR ___security_cookie
  0000b	8b 8c 24 20 08
	00 00		 mov	 ecx, DWORD PTR _pInfo$[esp+2072]
  00012	33 c4		 xor	 eax, esp
  00014	89 84 24 18 08
	00 00		 mov	 DWORD PTR __$ArrayPad$[esp+2076], eax

; 1064 : 	CUser* pUser = prj.GetUser( pInfo->GetPcId()  );

  0001b	8b 01		 mov	 eax, DWORD PTR [ecx]
  0001d	ff 50 18	 call	 DWORD PTR [eax+24]
  00020	50		 push	 eax
  00021	b9 00 00 00 00	 mov	 ecx, OFFSET FLAT:?prj@@3VCProject@@A
  00026	e8 00 00 00 00	 call	 ?GetUser@CProject@@QAEPAVCUser@@K@Z ; CProject::GetUser

; 1065 : 	if( pUser->IsAuthHigher( AUTH_GAMEMASTER ) || pUser->IsMode( QUERYSETPLAYERNAME_MODE ) )

  0002b	83 b8 48 06 00
	00 4c		 cmp	 DWORD PTR [eax+1608], 76 ; 0000004cH
  00032	73 24		 jae	 SHORT $L267496
  00034	8b 88 44 02 00
	00		 mov	 ecx, DWORD PTR [eax+580]
  0003a	f6 c5 40	 test	 ch, 64			; 00000040H
  0003d	75 19		 jne	 SHORT $L267496

; 1070 : 		return 1;
; 1071 : 	}
; 1072 : 	return 0;

  0003f	33 c0		 xor	 eax, eax

; 1073 : }

  00041	8b 8c 24 18 08
	00 00		 mov	 ecx, DWORD PTR __$ArrayPad$[esp+2076]
  00048	33 cc		 xor	 ecx, esp
  0004a	e8 00 00 00 00	 call	 @__security_check_cookie@4
  0004f	81 c4 1c 08 00
	00		 add	 esp, 2076		; 0000081cH
  00055	c2 04 00	 ret	 4
$L267496:

; 1066 : 	{
; 1067 : 		RunScriptFunc rsf;
; 1068 : 		rsf.wFuncType = FUNCTYPE_QUERYSETPLAYERNAME;
; 1069 : 		pUser->AddRunScriptFunc( rsf );

  00058	8d 0c 24	 lea	 ecx, DWORD PTR _rsf$267497[esp+2076]
  0005b	51		 push	 ecx
  0005c	8b c8		 mov	 ecx, eax
  0005e	66 c7 84 24 0c
	08 00 00 24 00	 mov	 WORD PTR _rsf$267497[esp+4136], 36 ; 00000024H
  00068	e8 00 00 00 00	 call	 ?AddRunScriptFunc@CUser@@QAEXABU_runscriptfunc@@@Z ; CUser::AddRunScriptFunc

; 1073 : }

  0006d	8b 8c 24 18 08
	00 00		 mov	 ecx, DWORD PTR __$ArrayPad$[esp+2076]
  00074	33 cc		 xor	 ecx, esp
  00076	b8 01 00 00 00	 mov	 eax, 1
  0007b	e8 00 00 00 00	 call	 @__security_check_cookie@4
  00080	81 c4 1c 08 00
	00		 add	 esp, 2076		; 0000081cH
  00086	c2 04 00	 ret	 4
?QuerySetPlayerName@@YGHPAUNPCDIALOG_INFO@@@Z ENDP	; QuerySetPlayerName
_TEXT	ENDS
PUBLIC	?GetEmptyCount@?$CItemContainer@VCItemElem@@@@QAEHXZ ; CItemContainer<CItemElem>::GetEmptyCount
; Function compile flags: /Ogty
; File c:\documents and settings\test\mes documents\source\virtuos_v17\build\program\_common\item.h
;	COMDAT ?GetEmptyCount@?$CItemContainer@VCItemElem@@@@QAEHXZ
_TEXT	SEGMENT
?GetEmptyCount@?$CItemContainer@VCItemElem@@@@QAEHXZ PROC NEAR ; CItemContainer<CItemElem>::GetEmptyCount, COMDAT
; _this$ = ecx

; 417  : 		{

  00000	56		 push	 esi

; 423  : 			}
; 424  : 			return( nCount );

  00001	8b 71 0c	 mov	 esi, DWORD PTR [ecx+12]
  00004	33 c0		 xor	 eax, eax
  00006	85 f6		 test	 esi, esi
  00008	76 20		 jbe	 SHORT $L267679
  0000a	8b 51 10	 mov	 edx, DWORD PTR [ecx+16]
  0000d	83 c2 08	 add	 edx, 8
  00010	57		 push	 edi
$L267677:
  00011	8b 7a 04	 mov	 edi, DWORD PTR [edx+4]
  00014	85 ff		 test	 edi, edi
  00016	75 08		 jne	 SHORT $L267678
  00018	8b 3a		 mov	 edi, DWORD PTR [edx]
  0001a	3b 79 08	 cmp	 edi, DWORD PTR [ecx+8]
  0001d	73 01		 jae	 SHORT $L267678

; 420  : 			{
; 421  : 				if( m_apItem[i].IsEmpty() && m_apItem[i].m_dwObjIndex < m_dwIndexNum )
; 422  : 					nCount++;

  0001f	40		 inc	 eax
$L267678:

; 418  : 			int nCount	= 0;
; 419  : 			for( DWORD i = 0; i < m_dwItemMax; i++ )

  00020	81 c2 b8 00 00
	00		 add	 edx, 184		; 000000b8H
  00026	4e		 dec	 esi
  00027	75 e8		 jne	 SHORT $L267677
  00029	5f		 pop	 edi
$L267679:
  0002a	5e		 pop	 esi

; 425  : 		}

  0002b	c3		 ret	 0
?GetEmptyCount@?$CItemContainer@VCItemElem@@@@QAEHXZ ENDP ; CItemContainer<CItemElem>::GetEmptyCount
_TEXT	ENDS
PUBLIC	??Diterator@?$vector@UWORMON@@V?$allocator@UWORMON@@@std@@@std@@QBEAAUWORMON@@XZ ; std::vector<WORMON,std::allocator<WORMON> >::iterator::operator*
; Function compile flags: /Ogty
; File c:\program files\microsoft visual studio .net 2003\vc7\include\vector
;	COMDAT ??Diterator@?$vector@UWORMON@@V?$allocator@UWORMON@@@std@@@std@@QBEAAUWORMON@@XZ
_TEXT	SEGMENT
??Diterator@?$vector@UWORMON@@V?$allocator@UWORMON@@@std@@@std@@QBEAAUWORMON@@XZ PROC NEAR ; std::vector<WORMON,std::allocator<WORMON> >::iterator::operator*, COMDAT
; _this$ = ecx

; 220  : 			return ((reference)**(const_iterator *)this);

  00000	8b 01		 mov	 eax, DWORD PTR [ecx]

; 221  : 			}

  00002	c3		 ret	 0
??Diterator@?$vector@UWORMON@@V?$allocator@UWORMON@@@std@@@std@@QBEAAUWORMON@@XZ ENDP ; std::vector<WORMON,std::allocator<WORMON> >::iterator::operator*
_TEXT	ENDS
PUBLIC	??Hiterator@?$vector@UWORMON@@V?$allocator@UWORMON@@@std@@@std@@QBE?AV012@H@Z ; std::vector<WORMON,std::allocator<WORMON> >::iterator::operator+
; Function compile flags: /Ogty
;	COMDAT ??Hiterator@?$vector@UWORMON@@V?$allocator@UWORMON@@@std@@@std@@QBE?AV012@H@Z
_TEXT	SEGMENT
___$ReturnUdt$ = 8					; size = 4
__Off$ = 12						; size = 4
??Hiterator@?$vector@UWORMON@@V?$allocator@UWORMON@@@std@@@std@@QBE?AV012@H@Z PROC NEAR ; std::vector<WORMON,std::allocator<WORMON> >::iterator::operator+, COMDAT
; _this$ = ecx

; 262  : 			iterator _Tmp = *this;
; 263  : 			return (_Tmp += _Off);

  00000	8b 54 24 08	 mov	 edx, DWORD PTR __Off$[esp-4]
  00004	8b 01		 mov	 eax, DWORD PTR [ecx]
  00006	c1 e2 04	 shl	 edx, 4
  00009	03 d0		 add	 edx, eax
  0000b	8b 44 24 04	 mov	 eax, DWORD PTR ___$ReturnUdt$[esp-4]
  0000f	89 10		 mov	 DWORD PTR [eax], edx

; 264  : 			}

  00011	c2 08 00	 ret	 8
??Hiterator@?$vector@UWORMON@@V?$allocator@UWORMON@@@std@@@std@@QBE?AV012@H@Z ENDP ; std::vector<WORMON,std::allocator<WORMON> >::iterator::operator+
_TEXT	ENDS
PUBLIC	??0iterator@?$vector@UWORMON@@V?$allocator@UWORMON@@@std@@@std@@QAE@PAUWORMON@@@Z ; std::vector<WORMON,std::allocator<WORMON> >::iterator::iterator
; Function compile flags: /Ogty
;	COMDAT ??0iterator@?$vector@UWORMON@@V?$allocator@UWORMON@@@std@@@std@@QAE@PAUWORMON@@@Z
_TEXT	SEGMENT
__Ptr$ = 8						; size = 4
??0iterator@?$vector@UWORMON@@V?$allocator@UWORMON@@@std@@@std@@QAE@PAUWORMON@@@Z PROC NEAR ; std::vector<WORMON,std::allocator<WORMON> >::iterator::iterator, COMDAT
; _this$ = ecx

; 215  : 			{	// construct with pointer _Ptr

  00000	8b c1		 mov	 eax, ecx
  00002	8b 4c 24 04	 mov	 ecx, DWORD PTR __Ptr$[esp-4]
  00006	89 08		 mov	 DWORD PTR [eax], ecx

; 216  : 			}

  00008	c2 04 00	 ret	 4
??0iterator@?$vector@UWORMON@@V?$allocator@UWORMON@@@std@@@std@@QAE@PAUWORMON@@@Z ENDP ; std::vector<WORMON,std::allocator<WORMON> >::iterator::iterator
_TEXT	ENDS
PUBLIC	??_C@_0BI@BEIFNGEL@GetItemProp?5range_error?$AA@ ; `string'
PUBLIC	?GetItemProp@CProject@@QAEPAUItemProp@@H@Z	; CProject::GetItemProp
;	COMDAT ??_C@_0BI@BEIFNGEL@GetItemProp?5range_error?$AA@
; File c:\documents and settings\test\mes documents\source\virtuos_v17\build\program\_common\data.h
CONST	SEGMENT
??_C@_0BI@BEIFNGEL@GetItemProp?5range_error?$AA@ DB 'GetItemProp range_er'
	DB	'ror', 00H					; `string'
; Function compile flags: /Ogty
; File c:\documents and settings\test\mes documents\source\virtuos_v17\build\program\_common\project.h
CONST	ENDS
;	COMDAT ?GetItemProp@CProject@@QAEPAUItemProp@@H@Z
_TEXT	SEGMENT
_nIndex$ = 8						; size = 4
?GetItemProp@CProject@@QAEPAUItemProp@@H@Z PROC NEAR	; CProject::GetItemProp, COMDAT
; _this$ = ecx

; 1364 : 	VERIFY_RANGE_ASSERT( nIndex, 0, m_aPropItem.GetSize(), "GetItemProp range_error", NULL );

  00000	8b 44 24 04	 mov	 eax, DWORD PTR _nIndex$[esp-4]
  00004	85 c0		 test	 eax, eax
  00006	7c 1a		 jl	 SHORT $L197914
  00008	8b 91 5c 02 00
	00		 mov	 edx, DWORD PTR [ecx+604]
  0000e	3b c2		 cmp	 eax, edx
  00010	7d 10		 jge	 SHORT $L197914

; 1365 : 	return m_aPropItem.GetAt( nIndex ); 

  00012	3b c2		 cmp	 eax, edx
  00014	73 28		 jae	 SHORT $L274052
  00016	8b 89 4c 02 00
	00		 mov	 ecx, DWORD PTR [ecx+588]
  0001c	8b 04 81	 mov	 eax, DWORD PTR [ecx+eax*4]

; 1366 : }

  0001f	c2 04 00	 ret	 4
$L197914:

; 1364 : 	VERIFY_RANGE_ASSERT( nIndex, 0, m_aPropItem.GetSize(), "GetItemProp range_error", NULL );

  00022	8b 91 5c 02 00
	00		 mov	 edx, DWORD PTR [ecx+604]
  00028	50		 push	 eax
  00029	52		 push	 edx
  0002a	6a 00		 push	 0
  0002c	68 00 00 00 00	 push	 OFFSET FLAT:??_C@_0BI@BEIFNGEL@GetItemProp?5range_error?$AA@
  00031	68 00 00 00 00	 push	 OFFSET FLAT:??_C@_0BM@HMFGHCP@?$CFs?5min?3?$CFd?0?5max?3?$CFd?0?5index?3?$CFd?$AA@
  00036	e8 00 00 00 00	 call	 ?Error@@YAPBDPBDZZ	; Error
  0003b	83 c4 14	 add	 esp, 20			; 00000014H
$L274052:
  0003e	33 c0		 xor	 eax, eax

; 1366 : }

  00040	c2 04 00	 ret	 4
?GetItemProp@CProject@@QAEPAUItemProp@@H@Z ENDP		; CProject::GetItemProp
_TEXT	ENDS
PUBLIC	??_C@_0BE@OHDBLHOM@GetText?5range_error?$AA@	; `string'
PUBLIC	??_C@_05KKCIMGE@error?$AA@			; `string'
PUBLIC	?GetText@CProject@@QAEPBDK@Z			; CProject::GetText
;	COMDAT ??_C@_0BE@OHDBLHOM@GetText?5range_error?$AA@
; File c:\documents and settings\test\mes documents\source\virtuos_v17\build\program\_common\data.h
CONST	SEGMENT
??_C@_0BE@OHDBLHOM@GetText?5range_error?$AA@ DB 'GetText range_error', 00H ; `string'
CONST	ENDS
;	COMDAT ??_C@_05KKCIMGE@error?$AA@
CONST	SEGMENT
??_C@_05KKCIMGE@error?$AA@ DB 'error', 00H		; `string'
; Function compile flags: /Ogty
; File c:\documents and settings\test\mes documents\source\virtuos_v17\build\program\_common\project.h
CONST	ENDS
;	COMDAT ?GetText@CProject@@QAEPBDK@Z
_TEXT	SEGMENT
_dwIndex$ = 8						; size = 4
?GetText@CProject@@QAEPBDK@Z PROC NEAR			; CProject::GetText, COMDAT
; _this$ = ecx

; 1402 : 	VERIFY_RANGE( (int)( dwIndex ), 0, m_colorText.GetSize(), "GetText range_error", "error" );

  00000	8b 44 24 04	 mov	 eax, DWORD PTR _dwIndex$[esp-4]
  00004	85 c0		 test	 eax, eax
  00006	7c 41		 jl	 SHORT $L197970
  00008	8b 91 c8 02 00
	00		 mov	 edx, DWORD PTR [ecx+712]
  0000e	3b c2		 cmp	 eax, edx
  00010	7d 37		 jge	 SHORT $L197970

; 1403 : 	if( m_colorText.GetAt( dwIndex ) == NULL )

  00012	3b c2		 cmp	 eax, edx
  00014	73 0c		 jae	 SHORT $L274080
  00016	8b 91 b8 02 00
	00		 mov	 edx, DWORD PTR [ecx+696]
  0001c	83 3c 82 00	 cmp	 DWORD PTR [edx+eax*4], 0
  00020	75 08		 jne	 SHORT $L197974
$L274080:

; 1404 : 		return "";

  00022	b8 00 00 00 00	 mov	 eax, OFFSET FLAT:??_C@_00CNPNBAHC@?$AA@

; 1406 : }

  00027	c2 04 00	 ret	 4
$L197974:

; 1405 : 	return m_colorText.GetAt( dwIndex )->lpszData; 

  0002a	3b 81 c8 02 00
	00		 cmp	 eax, DWORD PTR [ecx+712]
  00030	72 08		 jb	 SHORT $L274076
  00032	33 c0		 xor	 eax, eax
  00034	8b 40 04	 mov	 eax, DWORD PTR [eax+4]

; 1406 : }

  00037	c2 04 00	 ret	 4

; 1405 : 	return m_colorText.GetAt( dwIndex )->lpszData; 

$L274076:
  0003a	8b 89 b8 02 00
	00		 mov	 ecx, DWORD PTR [ecx+696]
  00040	8b 04 81	 mov	 eax, DWORD PTR [ecx+eax*4]
  00043	8b 40 04	 mov	 eax, DWORD PTR [eax+4]

; 1406 : }

  00046	c2 04 00	 ret	 4
$L197970:

; 1402 : 	VERIFY_RANGE( (int)( dwIndex ), 0, m_colorText.GetSize(), "GetText range_error", "error" );

  00049	8b 91 c8 02 00
	00		 mov	 edx, DWORD PTR [ecx+712]
  0004f	50		 push	 eax
  00050	52		 push	 edx
  00051	6a 00		 push	 0
  00053	68 00 00 00 00	 push	 OFFSET FLAT:??_C@_0BE@OHDBLHOM@GetText?5range_error?$AA@
  00058	68 00 00 00 00	 push	 OFFSET FLAT:??_C@_0BM@HMFGHCP@?$CFs?5min?3?$CFd?0?5max?3?$CFd?0?5index?3?$CFd?$AA@
  0005d	e8 00 00 00 00	 call	 ?Error@@YAPBDPBDZZ	; Error
  00062	83 c4 14	 add	 esp, 20			; 00000014H
  00065	b8 00 00 00 00	 mov	 eax, OFFSET FLAT:??_C@_05KKCIMGE@error?$AA@

; 1406 : }

  0006a	c2 04 00	 ret	 4
?GetText@CProject@@QAEPBDK@Z ENDP			; CProject::GetText
_TEXT	ENDS
PUBLIC	?GetPropA@CItemElem@@QAEPAUItemProp@@XZ		; CItemElem::GetPropA
; Function compile flags: /Ogty
; File c:\documents and settings\test\mes documents\source\virtuos_v17\build\program\_common\item.h
;	COMDAT ?GetPropA@CItemElem@@QAEPAUItemProp@@XZ
_TEXT	SEGMENT
?GetPropA@CItemElem@@QAEPAUItemProp@@XZ PROC NEAR	; CItemElem::GetPropA, COMDAT
; _this$ = ecx

; 229  : 	ItemProp*	GetProp()	{	return prj.GetItemProp( m_dwItemId );	}

  00000	8b 41 0c	 mov	 eax, DWORD PTR [ecx+12]
  00003	85 c0		 test	 eax, eax
  00005	8b 0d 5c 02 00
	00		 mov	 ecx, DWORD PTR ?prj@@3VCProject@@A+604
  0000b	7c 10		 jl	 SHORT $L274111
  0000d	3b c1		 cmp	 eax, ecx
  0000f	7d 0c		 jge	 SHORT $L274111
  00011	73 20		 jae	 SHORT $L274127
  00013	8b 0d 4c 02 00
	00		 mov	 ecx, DWORD PTR ?prj@@3VCProject@@A+588
  00019	8b 04 81	 mov	 eax, DWORD PTR [ecx+eax*4]
  0001c	c3		 ret	 0
$L274111:
  0001d	50		 push	 eax
  0001e	51		 push	 ecx
  0001f	6a 00		 push	 0
  00021	68 00 00 00 00	 push	 OFFSET FLAT:??_C@_0BI@BEIFNGEL@GetItemProp?5range_error?$AA@
  00026	68 00 00 00 00	 push	 OFFSET FLAT:??_C@_0BM@HMFGHCP@?$CFs?5min?3?$CFd?0?5max?3?$CFd?0?5index?3?$CFd?$AA@
  0002b	e8 00 00 00 00	 call	 ?Error@@YAPBDPBDZZ	; Error
  00030	83 c4 14	 add	 esp, 20			; 00000014H
$L274127:
  00033	33 c0		 xor	 eax, eax
  00035	c3		 ret	 0
?GetPropA@CItemElem@@QAEPAUItemProp@@XZ ENDP		; CItemElem::GetPropA
_TEXT	ENDS
PUBLIC	?GetPropA@tagQuest@@QAEPAUQuestProp@@XZ		; tagQuest::GetPropA
; Function compile flags: /Ogty
; File c:\documents and settings\test\mes documents\source\virtuos_v17\build\program\_common\mover.h
;	COMDAT ?GetPropA@tagQuest@@QAEPAUQuestProp@@XZ
_TEXT	SEGMENT
?GetPropA@tagQuest@@QAEPAUQuestProp@@XZ PROC NEAR	; tagQuest::GetPropA, COMDAT
; _this$ = ecx

; 294  : 	QuestProp* GetProp() { return prj.m_aPropQuest.GetAt( m_wId ); }

  00000	0f b7 41 04	 movzx	 eax, WORD PTR [ecx+4]
  00004	3b 05 10 03 00
	00		 cmp	 eax, DWORD PTR ?prj@@3VCProject@@A+784
  0000a	72 03		 jb	 SHORT $L274133
  0000c	33 c0		 xor	 eax, eax
  0000e	c3		 ret	 0
$L274133:
  0000f	8b 0d 00 03 00
	00		 mov	 ecx, DWORD PTR ?prj@@3VCProject@@A+768
  00015	8b 04 81	 mov	 eax, DWORD PTR [ecx+eax*4]
  00018	c3		 ret	 0
?GetPropA@tagQuest@@QAEPAUQuestProp@@XZ ENDP		; tagQuest::GetPropA
_TEXT	ENDS
PUBLIC	?GetLength@?$CSimpleStringT@D$0A@@ATL@@QBEHXZ	; ATL::CSimpleStringT<char,0>::GetLength
; Function compile flags: /Ogty
; File c:\program files\microsoft visual studio .net 2003\vc7\atlmfc\include\atlsimpstr.h
;	COMDAT ?GetLength@?$CSimpleStringT@D$0A@@ATL@@QBEHXZ
_TEXT	SEGMENT
?GetLength@?$CSimpleStringT@D$0A@@ATL@@QBEHXZ PROC NEAR	; ATL::CSimpleStringT<char,0>::GetLength, COMDAT
; _this$ = ecx

; 501  : 		return( GetData()->nDataLength );

  00000	8b 01		 mov	 eax, DWORD PTR [ecx]
  00002	8b 40 f4	 mov	 eax, DWORD PTR [eax-12]

; 502  : 	}

  00005	c3		 ret	 0
?GetLength@?$CSimpleStringT@D$0A@@ATL@@QBEHXZ ENDP	; ATL::CSimpleStringT<char,0>::GetLength
_TEXT	ENDS
PUBLIC	??0?$CSimpleStringT@D$0A@@ATL@@QAE@PAUIAtlStringMgr@1@@Z ; ATL::CSimpleStringT<char,0>::CSimpleStringT<char,0>
; Function compile flags: /Ogty
;	COMDAT ??0?$CSimpleStringT@D$0A@@ATL@@QAE@PAUIAtlStringMgr@1@@Z
_TEXT	SEGMENT
_pStringMgr$ = 8					; size = 4
??0?$CSimpleStringT@D$0A@@ATL@@QAE@PAUIAtlStringMgr@1@@Z PROC NEAR ; ATL::CSimpleStringT<char,0>::CSimpleStringT<char,0>, COMDAT
; _this$ = ecx

; 210  : 	explicit CSimpleStringT( IAtlStringMgr* pStringMgr ) throw()

  00000	56		 push	 esi
  00001	8b f1		 mov	 esi, ecx

; 211  : 	{
; 212  : 		ATLASSERT( pStringMgr != NULL );
; 213  : 		CStringData* pData = pStringMgr->GetNilString();

  00003	8b 4c 24 08	 mov	 ecx, DWORD PTR _pStringMgr$[esp]
  00007	8b 01		 mov	 eax, DWORD PTR [ecx]
  00009	ff 50 0c	 call	 DWORD PTR [eax+12]

; 214  : 		Attach( pData );

  0000c	83 c0 10	 add	 eax, 16			; 00000010H
  0000f	89 06		 mov	 DWORD PTR [esi], eax

; 215  : 	}

  00011	8b c6		 mov	 eax, esi
  00013	5e		 pop	 esi
  00014	c2 04 00	 ret	 4
??0?$CSimpleStringT@D$0A@@ATL@@QAE@PAUIAtlStringMgr@1@@Z ENDP ; ATL::CSimpleStringT<char,0>::CSimpleStringT<char,0>
_TEXT	ENDS
PUBLIC	??1?$CSimpleStringT@D$0A@@ATL@@QAE@XZ		; ATL::CSimpleStringT<char,0>::~CSimpleStringT<char,0>
; Function compile flags: /Ogty
;	COMDAT ??1?$CSimpleStringT@D$0A@@ATL@@QAE@XZ
_TEXT	SEGMENT
??1?$CSimpleStringT@D$0A@@ATL@@QAE@XZ PROC NEAR		; ATL::CSimpleStringT<char,0>::~CSimpleStringT<char,0>, COMDAT
; _this$ = ecx

; 263  : 		CStringData* pData = GetData();

  00000	8b 01		 mov	 eax, DWORD PTR [ecx]
  00002	83 e8 10	 sub	 eax, 16			; 00000010H

; 264  : 		pData->Release();

  00005	8d 48 0c	 lea	 ecx, DWORD PTR [eax+12]
  00008	83 ca ff	 or	 edx, -1
  0000b	f0 0f c1 11	 lock	  xadd	 DWORD PTR [ecx], edx
  0000f	4a		 dec	 edx
  00010	85 d2		 test	 edx, edx
  00012	7f 08		 jg	 SHORT $L274163
  00014	8b 08		 mov	 ecx, DWORD PTR [eax]
  00016	8b 11		 mov	 edx, DWORD PTR [ecx]
  00018	50		 push	 eax
  00019	ff 52 04	 call	 DWORD PTR [edx+4]
$L274163:

; 265  : 	}

  0001c	c3		 ret	 0
??1?$CSimpleStringT@D$0A@@ATL@@QAE@XZ ENDP		; ATL::CSimpleStringT<char,0>::~CSimpleStringT<char,0>
_TEXT	ENDS
PUBLIC	?ReleaseBufferSetLength@?$CSimpleStringT@D$0A@@ATL@@QAEXH@Z ; ATL::CSimpleStringT<char,0>::ReleaseBufferSetLength
; Function compile flags: /Ogty
;	COMDAT ?ReleaseBufferSetLength@?$CSimpleStringT@D$0A@@ATL@@QAEXH@Z
_TEXT	SEGMENT
_nNewLength$ = 8					; size = 4
?ReleaseBufferSetLength@?$CSimpleStringT@D$0A@@ATL@@QAEXH@Z PROC NEAR ; ATL::CSimpleStringT<char,0>::ReleaseBufferSetLength, COMDAT
; _this$ = ecx

; 547  : 		ATLASSERT( nNewLength >= 0 );
; 548  : 		SetLength( nNewLength );

  00000	8b 44 24 04	 mov	 eax, DWORD PTR _nNewLength$[esp-4]
  00004	85 c0		 test	 eax, eax
  00006	7c 13		 jl	 SHORT $L274181
  00008	8b 11		 mov	 edx, DWORD PTR [ecx]
  0000a	3b 42 f8	 cmp	 eax, DWORD PTR [edx-8]
  0000d	7f 0c		 jg	 SHORT $L274181
  0000f	89 42 f4	 mov	 DWORD PTR [edx-12], eax
  00012	8b 09		 mov	 ecx, DWORD PTR [ecx]
  00014	c6 04 08 00	 mov	 BYTE PTR [eax+ecx], 0

; 549  : 	}

  00018	c2 04 00	 ret	 4
$L274181:
  0001b	68 57 00 07 80	 push	 -2147024809		; 80070057H
  00020	e8 00 00 00 00	 call	 ?AtlThrow@ATL@@YGXJ@Z	; ATL::AtlThrow
$L274184:
$L274183:
  00025	cc		 int	 3
?ReleaseBufferSetLength@?$CSimpleStringT@D$0A@@ATL@@QAEXH@Z ENDP ; ATL::CSimpleStringT<char,0>::ReleaseBufferSetLength
_TEXT	ENDS
PUBLIC	?Empty@?$CSimpleStringT@D$0A@@ATL@@QAEXXZ	; ATL::CSimpleStringT<char,0>::Empty
; Function compile flags: /Ogty
;	COMDAT ?Empty@?$CSimpleStringT@D$0A@@ATL@@QAEXXZ
_TEXT	SEGMENT
?Empty@?$CSimpleStringT@D$0A@@ATL@@QAEXXZ PROC NEAR	; ATL::CSimpleStringT<char,0>::Empty, COMDAT
; _this$ = ecx

; 421  : 	{

  00000	56		 push	 esi
  00001	8b f1		 mov	 esi, ecx

; 422  : 		CStringData* pOldData = GetData();

  00003	8b 0e		 mov	 ecx, DWORD PTR [esi]

; 423  : 		IAtlStringMgr* pStringMgr = pOldData->pStringMgr;
; 424  : 		if( pOldData->nDataLength == 0 )

  00005	8b 51 f4	 mov	 edx, DWORD PTR [ecx-12]
  00008	85 d2		 test	 edx, edx
  0000a	8d 41 f0	 lea	 eax, DWORD PTR [ecx-16]
  0000d	57		 push	 edi
  0000e	8b 38		 mov	 edi, DWORD PTR [eax]
  00010	74 4c		 je	 SHORT $L274218
  00012	53		 push	 ebx

; 425  : 		{
; 426  : 			return;
; 427  : 		}
; 428  : 
; 429  : 		if( pOldData->IsLocked() )

  00013	8b 58 0c	 mov	 ebx, DWORD PTR [eax+12]
  00016	8d 50 0c	 lea	 edx, DWORD PTR [eax+12]
  00019	85 db		 test	 ebx, ebx
  0001b	5b		 pop	 ebx
  0001c	7d 20		 jge	 SHORT $L221323

; 430  : 		{
; 431  : 			// Don't reallocate a locked buffer that's shrinking
; 432  : 			SetLength( 0 );

  0001e	8b 41 f8	 mov	 eax, DWORD PTR [ecx-8]
  00021	85 c0		 test	 eax, eax
  00023	7d 0a		 jge	 SHORT $L274207
  00025	68 57 00 07 80	 push	 -2147024809		; 80070057H
  0002a	e8 00 00 00 00	 call	 ?AtlThrow@ATL@@YGXJ@Z	; ATL::AtlThrow
$L274223:
$L274207:
  0002f	c7 41 f4 00 00
	00 00		 mov	 DWORD PTR [ecx-12], 0
  00036	8b 06		 mov	 eax, DWORD PTR [esi]
  00038	5f		 pop	 edi
  00039	c6 00 00	 mov	 BYTE PTR [eax], 0
  0003c	5e		 pop	 esi

; 439  : 		}
; 440  : 	}

  0003d	c3		 ret	 0
$L221323:

; 433  : 		}
; 434  : 		else
; 435  : 		{
; 436  : 			pOldData->Release();

  0003e	83 c9 ff	 or	 ecx, -1
  00041	f0 0f c1 0a	 lock	  xadd	 DWORD PTR [edx], ecx
  00045	49		 dec	 ecx
  00046	85 c9		 test	 ecx, ecx
  00048	7f 08		 jg	 SHORT $L274213
  0004a	8b 08		 mov	 ecx, DWORD PTR [eax]
  0004c	8b 11		 mov	 edx, DWORD PTR [ecx]
  0004e	50		 push	 eax
  0004f	ff 52 04	 call	 DWORD PTR [edx+4]
$L274213:

; 437  : 			CStringData* pNewData = pStringMgr->GetNilString();

  00052	8b 07		 mov	 eax, DWORD PTR [edi]
  00054	8b cf		 mov	 ecx, edi
  00056	ff 50 0c	 call	 DWORD PTR [eax+12]

; 438  : 			Attach( pNewData );

  00059	83 c0 10	 add	 eax, 16			; 00000010H
  0005c	89 06		 mov	 DWORD PTR [esi], eax
$L274218:
  0005e	5f		 pop	 edi
  0005f	5e		 pop	 esi

; 439  : 		}
; 440  : 	}

  00060	c3		 ret	 0
$L274222:
?Empty@?$CSimpleStringT@D$0A@@ATL@@QAEXXZ ENDP		; ATL::CSimpleStringT<char,0>::Empty
_TEXT	ENDS
PUBLIC	?PrepareWrite2@?$CSimpleStringT@D$0A@@ATL@@AAEXH@Z ; ATL::CSimpleStringT<char,0>::PrepareWrite2
; Function compile flags: /Ogty
;	COMDAT ?PrepareWrite2@?$CSimpleStringT@D$0A@@ATL@@AAEXH@Z
_TEXT	SEGMENT
_nLength$ = 8						; size = 4
?PrepareWrite2@?$CSimpleStringT@D$0A@@ATL@@AAEXH@Z PROC NEAR ; ATL::CSimpleStringT<char,0>::PrepareWrite2, COMDAT
; _this$ = ecx

; 747  : 		CStringData* pOldData = GetData();

  00000	8b 01		 mov	 eax, DWORD PTR [ecx]

; 748  : 		if( pOldData->nDataLength > nLength )

  00002	8b 54 24 04	 mov	 edx, DWORD PTR _nLength$[esp-4]
  00006	83 e8 10	 sub	 eax, 16			; 00000010H
  00009	56		 push	 esi
  0000a	8b 70 04	 mov	 esi, DWORD PTR [eax+4]
  0000d	3b f2		 cmp	 esi, edx
  0000f	7e 02		 jle	 SHORT $L221345

; 749  : 		{
; 750  : 			nLength = pOldData->nDataLength;

  00011	8b d6		 mov	 edx, esi
$L221345:

; 751  : 		}
; 752  : 		if( pOldData->IsShared() )

  00013	83 78 0c 01	 cmp	 DWORD PTR [eax+12], 1
  00017	5e		 pop	 esi
  00018	7e 09		 jle	 SHORT $L221346

; 753  : 		{
; 754  : 			Fork( nLength );

  0001a	89 54 24 04	 mov	 DWORD PTR _nLength$[esp-4], edx
  0001e	e9 00 00 00 00	 jmp	 ?Fork@?$CSimpleStringT@D$0A@@ATL@@AAEXH@Z ; ATL::CSimpleStringT<char,0>::Fork
$L221346:

; 755  : 		}
; 756  : 		else if( pOldData->nAllocLength < nLength )

  00023	8b 40 08	 mov	 eax, DWORD PTR [eax+8]
  00026	3b c2		 cmp	 eax, edx
  00028	7d 1f		 jge	 SHORT $L221348

; 757  : 		{
; 758  : 			// Grow exponentially, until we hit 1K.
; 759  : 			int nNewLength = pOldData->nAllocLength;
; 760  : 			if( nNewLength > 1024 )

  0002a	3d 00 04 00 00	 cmp	 eax, 1024		; 00000400H
  0002f	7e 07		 jle	 SHORT $L221350

; 761  : 			{
; 762  : 				nNewLength += 1024;

  00031	05 00 04 00 00	 add	 eax, 1024		; 00000400H

; 763  : 			}
; 764  : 			else

  00036	eb 02		 jmp	 SHORT $L221351
$L221350:

; 765  : 			{
; 766  : 				nNewLength *= 2;

  00038	03 c0		 add	 eax, eax
$L221351:

; 767  : 			}
; 768  : 			if( nNewLength < nLength )

  0003a	3b c2		 cmp	 eax, edx
  0003c	7d 02		 jge	 SHORT $L221352

; 769  : 			{
; 770  : 				nNewLength = nLength;

  0003e	8b c2		 mov	 eax, edx
$L221352:

; 771  : 			}
; 772  : 			Reallocate( nNewLength );

  00040	89 44 24 04	 mov	 DWORD PTR _nLength$[esp-4], eax
  00044	e9 00 00 00 00	 jmp	 ?Reallocate@?$CSimpleStringT@D$0A@@ATL@@AAEXH@Z ; ATL::CSimpleStringT<char,0>::Reallocate
$L221348:

; 773  : 		}
; 774  : 	}

  00049	c2 04 00	 ret	 4
?PrepareWrite2@?$CSimpleStringT@D$0A@@ATL@@AAEXH@Z ENDP	; ATL::CSimpleStringT<char,0>::PrepareWrite2
_TEXT	ENDS
PUBLIC	?CloneData@?$CSimpleStringT@D$0A@@ATL@@CAPAUCStringData@2@PAU32@@Z ; ATL::CSimpleStringT<char,0>::CloneData
; Function compile flags: /Ogty
;	COMDAT ?CloneData@?$CSimpleStringT@D$0A@@ATL@@CAPAUCStringData@2@PAU32@@Z
_TEXT	SEGMENT
_pData$ = 8						; size = 4
?CloneData@?$CSimpleStringT@D$0A@@ATL@@CAPAUCStringData@2@PAU32@@Z PROC NEAR ; ATL::CSimpleStringT<char,0>::CloneData, COMDAT

; 801  : 	{

  00000	56		 push	 esi

; 802  : 		CStringData* pNewData = NULL;
; 803  : 
; 804  : 		IAtlStringMgr* pNewStringMgr = pData->pStringMgr->Clone();

  00001	8b 74 24 08	 mov	 esi, DWORD PTR _pData$[esp]
  00005	8b 0e		 mov	 ecx, DWORD PTR [esi]
  00007	8b 01		 mov	 eax, DWORD PTR [ecx]
  00009	ff 50 10	 call	 DWORD PTR [eax+16]

; 805  : 		if( !pData->IsLocked() && (pNewStringMgr == pData->pStringMgr) )

  0000c	8b 56 0c	 mov	 edx, DWORD PTR [esi+12]
  0000f	85 d2		 test	 edx, edx
  00011	8d 4e 0c	 lea	 ecx, DWORD PTR [esi+12]
  00014	7c 11		 jl	 SHORT $L221356
  00016	3b 06		 cmp	 eax, DWORD PTR [esi]
  00018	75 0d		 jne	 SHORT $L221356

; 806  : 		{
; 807  : 			pNewData = pData;

  0001a	8b c6		 mov	 eax, esi

; 808  : 			pNewData->AddRef();

  0001c	ba 01 00 00 00	 mov	 edx, 1
  00021	f0 0f c1 11	 lock	  xadd	 DWORD PTR [ecx], edx
  00025	5e		 pop	 esi

; 819  : 		}
; 820  : 
; 821  : 		return( pNewData );
; 822  : 	}

  00026	c3		 ret	 0
$L221356:

; 809  : 		}
; 810  : 		else
; 811  : 		{
; 812  : 			pNewData = pNewStringMgr->Allocate( pData->nDataLength, sizeof( XCHAR ) );

  00027	8b 4e 04	 mov	 ecx, DWORD PTR [esi+4]
  0002a	8b 10		 mov	 edx, DWORD PTR [eax]
  0002c	6a 01		 push	 1
  0002e	51		 push	 ecx
  0002f	8b c8		 mov	 ecx, eax
  00031	ff 12		 call	 DWORD PTR [edx]

; 813  : 			if( pNewData == NULL )

  00033	85 c0		 test	 eax, eax
  00035	75 05		 jne	 SHORT $L221359

; 814  : 			{
; 815  : 				ThrowMemoryException();

  00037	e9 00 00 00 00	 jmp	 ?ThrowMemoryException@?$CSimpleStringT@D$0A@@ATL@@KAXXZ ; ATL::CSimpleStringT<char,0>::ThrowMemoryException
$L221359:

; 816  : 			}
; 817  : 			pNewData->nDataLength = pData->nDataLength;

  0003c	8b 56 04	 mov	 edx, DWORD PTR [esi+4]
  0003f	89 50 04	 mov	 DWORD PTR [eax+4], edx

; 818  : 			CopyChars( PXSTR( pNewData->data() ), PCXSTR( pData->data() ), pData->nDataLength+1 );  // Copy '\0'

  00042	8b 4e 04	 mov	 ecx, DWORD PTR [esi+4]
  00045	41		 inc	 ecx
  00046	8b d1		 mov	 edx, ecx
  00048	57		 push	 edi
  00049	c1 e9 02	 shr	 ecx, 2
  0004c	83 c6 10	 add	 esi, 16			; 00000010H
  0004f	8d 78 10	 lea	 edi, DWORD PTR [eax+16]
  00052	f3 a5		 rep movsd
  00054	8b ca		 mov	 ecx, edx
  00056	83 e1 03	 and	 ecx, 3
  00059	f3 a4		 rep movsb
  0005b	5f		 pop	 edi
  0005c	5e		 pop	 esi

; 819  : 		}
; 820  : 
; 821  : 		return( pNewData );
; 822  : 	}

  0005d	c3		 ret	 0
?CloneData@?$CSimpleStringT@D$0A@@ATL@@CAPAUCStringData@2@PAU32@@Z ENDP ; ATL::CSimpleStringT<char,0>::CloneData
_TEXT	ENDS
PUBLIC	?GetEmptyInventoryNum@@YGHPAUNPCDIALOG_INFO@@@Z	; GetEmptyInventoryNum
; Function compile flags: /Ogty
; File c:\documents and settings\test\mes documents\source\virtuos_v17\build\program\_common\scriptlib.cpp
;	COMDAT ?GetEmptyInventoryNum@@YGHPAUNPCDIALOG_INFO@@@Z
_TEXT	SEGMENT
_pInfo$ = 8						; size = 4
?GetEmptyInventoryNum@@YGHPAUNPCDIALOG_INFO@@@Z PROC NEAR ; GetEmptyInventoryNum, COMDAT

; 271  : 	CUser* pUser = prj.GetUser( pInfo->GetPcId() );

  00000	8b 4c 24 04	 mov	 ecx, DWORD PTR _pInfo$[esp-4]
  00004	8b 01		 mov	 eax, DWORD PTR [ecx]
  00006	56		 push	 esi
  00007	ff 50 18	 call	 DWORD PTR [eax+24]
  0000a	50		 push	 eax
  0000b	b9 00 00 00 00	 mov	 ecx, OFFSET FLAT:?prj@@3VCProject@@A
  00010	e8 00 00 00 00	 call	 ?GetUser@CProject@@QAEPAVCUser@@K@Z ; CProject::GetUser
  00015	8b d0		 mov	 edx, eax

; 272  : 	return pUser->m_Inventory.GetEmptyCount();

  00017	8b b2 9c 0b 00
	00		 mov	 esi, DWORD PTR [edx+2972]
  0001d	81 c2 90 0b 00
	00		 add	 edx, 2960		; 00000b90H
  00023	33 c0		 xor	 eax, eax
  00025	85 f6		 test	 esi, esi
  00027	76 20		 jbe	 SHORT $L274265
  00029	8b 4a 10	 mov	 ecx, DWORD PTR [edx+16]
  0002c	83 c1 08	 add	 ecx, 8
  0002f	57		 push	 edi
$L274263:
  00030	8b 79 04	 mov	 edi, DWORD PTR [ecx+4]
  00033	85 ff		 test	 edi, edi
  00035	75 08		 jne	 SHORT $L274264
  00037	8b 39		 mov	 edi, DWORD PTR [ecx]
  00039	3b 7a 08	 cmp	 edi, DWORD PTR [edx+8]
  0003c	73 01		 jae	 SHORT $L274264
  0003e	40		 inc	 eax
$L274264:
  0003f	81 c1 b8 00 00
	00		 add	 ecx, 184		; 000000b8H
  00045	4e		 dec	 esi
  00046	75 e8		 jne	 SHORT $L274263
  00048	5f		 pop	 edi
$L274265:
  00049	5e		 pop	 esi

; 273  : }

  0004a	c2 04 00	 ret	 4
?GetEmptyInventoryNum@@YGHPAUNPCDIALOG_INFO@@@Z ENDP	; GetEmptyInventoryNum
_TEXT	ENDS
PUBLIC	?RemoveKey@@YGHPAUNPCDIALOG_INFO@@PBD@Z		; RemoveKey
; Function compile flags: /Ogty
;	COMDAT ?RemoveKey@@YGHPAUNPCDIALOG_INFO@@PBD@Z
_TEXT	SEGMENT
_rsf$267031 = -2076					; size = 2072
__$ArrayPad$ = -4					; size = 4
__$ReturnAddr$ = 4					; size = 4
_pInfo$ = 8						; size = 4
_szKey$ = 12						; size = 4
?RemoveKey@@YGHPAUNPCDIALOG_INFO@@PBD@Z PROC NEAR	; RemoveKey, COMDAT

; 311  : {

  00000	81 ec 1c 08 00
	00		 sub	 esp, 2076		; 0000081cH
  00006	a1 00 00 00 00	 mov	 eax, DWORD PTR ___security_cookie
  0000b	33 c4		 xor	 eax, esp
  0000d	56		 push	 esi
  0000e	8b b4 24 24 08
	00 00		 mov	 esi, DWORD PTR _pInfo$[esp+2076]
  00015	57		 push	 edi
  00016	8b bc 24 2c 08
	00 00		 mov	 edi, DWORD PTR _szKey$[esp+2080]
  0001d	89 84 24 20 08
	00 00		 mov	 DWORD PTR __$ArrayPad$[esp+2084], eax

; 312  : 	if( HasKey(pInfo, szKey) ) 

  00024	8b 06		 mov	 eax, DWORD PTR [esi]
  00026	57		 push	 edi
  00027	8b ce		 mov	 ecx, esi
  00029	ff 50 20	 call	 DWORD PTR [eax+32]
  0002c	50		 push	 eax
  0002d	e8 00 00 00 00	 call	 ?GetInstance@CWorldDialog@@SAAAV1@XZ ; CWorldDialog::GetInstance
  00032	8b c8		 mov	 ecx, eax
  00034	e8 00 00 00 00	 call	 ?Find@CWorldDialog@@QAEHPBD0@Z ; CWorldDialog::Find
  00039	85 c0		 test	 eax, eax
  0003b	74 36		 je	 SHORT $L274284

; 313  : 	{
; 314  : 		CUser* pUser = prj.GetUser( pInfo->GetPcId() );

  0003d	8b 16		 mov	 edx, DWORD PTR [esi]
  0003f	8b ce		 mov	 ecx, esi
  00041	ff 52 18	 call	 DWORD PTR [edx+24]
  00044	50		 push	 eax
  00045	b9 00 00 00 00	 mov	 ecx, OFFSET FLAT:?prj@@3VCProject@@A
  0004a	e8 00 00 00 00	 call	 ?GetUser@CProject@@QAEPAVCUser@@K@Z ; CProject::GetUser
  0004f	8b f0		 mov	 esi, eax

; 315  : 
; 316  : 		RunScriptFunc rsf;
; 317  : 		rsf.wFuncType = FUNCTYPE_REMOVEKEY;
; 318  : 		lstrcpy( rsf.lpszVal1, szKey );

  00051	57		 push	 edi
  00052	8d 44 24 0c	 lea	 eax, DWORD PTR _rsf$267031[esp+2088]
  00056	50		 push	 eax
  00057	66 c7 84 24 18
	08 00 00 11 00	 mov	 WORD PTR _rsf$267031[esp+4148], 17 ; 00000011H
  00061	ff 15 00 00 00
	00		 call	 DWORD PTR __imp__lstrcpyA@8

; 319  : 		pUser->AddRunScriptFunc( rsf );

  00067	8d 4c 24 08	 lea	 ecx, DWORD PTR _rsf$267031[esp+2084]
  0006b	51		 push	 ecx
  0006c	8b ce		 mov	 ecx, esi
  0006e	e8 00 00 00 00	 call	 ?AddRunScriptFunc@CUser@@QAEXABU_runscriptfunc@@@Z ; CUser::AddRunScriptFunc
$L274284:

; 320  : 	}
; 321  : 	return 1;
; 322  : }

  00073	8b 8c 24 20 08
	00 00		 mov	 ecx, DWORD PTR __$ArrayPad$[esp+2084]
  0007a	5f		 pop	 edi
  0007b	5e		 pop	 esi
  0007c	33 cc		 xor	 ecx, esp
  0007e	b8 01 00 00 00	 mov	 eax, 1
  00083	e8 00 00 00 00	 call	 @__security_check_cookie@4
  00088	81 c4 1c 08 00
	00		 add	 esp, 2076		; 0000081cH
  0008e	c2 08 00	 ret	 8
?RemoveKey@@YGHPAUNPCDIALOG_INFO@@PBD@Z ENDP		; RemoveKey
_TEXT	ENDS
PUBLIC	__real@4f800000
PUBLIC	?EquipItem@@YGHPAUNPCDIALOG_INFO@@K@Z		; EquipItem
PUBLIC	??_C@_01BNIGIBBF@Q?$AA@				; `string'
PUBLIC	??_C@_05GFPLGFAD@QUEST?$AA@			; `string'
PUBLIC	??_C@_0BE@ICMDEENE@EquipItem?5SetIndex?6?$AA@	; `string'
PUBLIC	??_C@_04OEDFLLKD@?$CC?$CFs?$CC?$AA@		; `string'
EXTRN	__except_list:DWORD
EXTRN	___CxxFrameHandler:NEAR
EXTRN	??2@YAPAXI@Z:NEAR				; operator new
EXTRN	??3@YAXPAX@Z:NEAR				; operator delete
EXTRN	?AddDoEquip@CUserMng@@QAEXPAVCMover@@HPAVCItemElem@@E@Z:NEAR ; CUserMng::AddDoEquip
EXTRN	?CreateItem@CMover@@QAEHPAVCItemBase@@PAEPAFE@Z:NEAR ; CMover::CreateItem
EXTRN	?DoEquip@CMover@@QAEHPAVCItemElem@@HH@Z:NEAR	; CMover::DoEquip
EXTRN	?SetAngle@CObj@@QAEXM@Z:NEAR			; CObj::SetAngle
EXTRN	?AddDefinedText@CUser@@QAAXHPBDZZ:NEAR		; CUser::AddDefinedText
EXTRN	??0CItem@@QAE@XZ:NEAR				; CItem::CItem
EXTRN	?OnLogItem@CDPSrvr@@QAEXAAU_LogItemInfo@@PAVCItemElem@@H@Z:NEAR ; CDPSrvr::OnLogItem
EXTRN	?g_DPSrvr@@3VCDPSrvr@@A:BYTE			; g_DPSrvr
EXTRN	??0CItemElem@@QAE@XZ:NEAR			; CItemElem::CItemElem
EXTRN	??1CItemElem@@UAE@XZ:NEAR			; CItemElem::~CItemElem
;	COMDAT xdata$x
; File c:\documents and settings\test\mes documents\source\virtuos_v17\build\program\_common\obj.h
xdata$x	SEGMENT
$T274438 DD	0ffffffffH
	DD	FLAT:$L274300
	DD	00H
	DD	FLAT:$L274301
	DD	00H
	DD	FLAT:$L274302
$T274428 DD	019930520H
	DD	03H
	DD	FLAT:$T274438
	DD	2 DUP(00H)
	DD	2 DUP(00H)
xdata$x	ENDS
;	COMDAT ??_C@_01BNIGIBBF@Q?$AA@
CONST	SEGMENT
??_C@_01BNIGIBBF@Q?$AA@ DB 'Q', 00H			; `string'
CONST	ENDS
;	COMDAT ??_C@_05GFPLGFAD@QUEST?$AA@
CONST	SEGMENT
??_C@_05GFPLGFAD@QUEST?$AA@ DB 'QUEST', 00H		; `string'
CONST	ENDS
;	COMDAT ??_C@_0BE@ICMDEENE@EquipItem?5SetIndex?6?$AA@
CONST	SEGMENT
??_C@_0BE@ICMDEENE@EquipItem?5SetIndex?6?$AA@ DB 'EquipItem SetIndex', 0aH
	DB	00H						; `string'
CONST	ENDS
;	COMDAT __real@4f800000
CONST	SEGMENT
__real@4f800000 DD 04f800000r			; 4.29497e+009
CONST	ENDS
;	COMDAT ??_C@_04OEDFLLKD@?$CC?$CFs?$CC?$AA@
CONST	SEGMENT
??_C@_04OEDFLLKD@?$CC?$CFs?$CC?$AA@ DB '"%s"', 00H	; `string'
; Function compile flags: /Ogty
; File c:\documents and settings\test\mes documents\source\virtuos_v17\build\program\_common\scriptlib.cpp
CONST	ENDS
;	COMDAT ?EquipItem@@YGHPAUNPCDIALOG_INFO@@K@Z
_TEXT	SEGMENT
_nId$ = -417						; size = 1
tv498 = -416						; size = 4
$T274295 = -416						; size = 4
$T274291 = -416						; size = 4
$T274298 = -412						; size = 12
_itemElem$ = -400					; size = 184
_aLogItem$267398 = -216					; size = 200
__$ArrayPad$ = -16					; size = 4
__$EHRec$ = -12						; size = 12
__$ReturnAddr$ = 4					; size = 4
_pInfo$ = 8						; size = 4
_dwID$ = 12						; size = 4
?EquipItem@@YGHPAUNPCDIALOG_INFO@@K@Z PROC NEAR		; EquipItem, COMDAT

; 928  : {

  00000	6a ff		 push	 -1
  00002	68 00 00 00 00	 push	 __ehhandler$?EquipItem@@YGHPAUNPCDIALOG_INFO@@K@Z
  00007	64 a1 00 00 00
	00		 mov	 eax, DWORD PTR fs:__except_list
  0000d	50		 push	 eax
  0000e	64 89 25 00 00
	00 00		 mov	 DWORD PTR fs:__except_list, esp
  00015	81 ec 98 01 00
	00		 sub	 esp, 408		; 00000198H
  0001b	a1 00 00 00 00	 mov	 eax, DWORD PTR ___security_cookie
  00020	8b 8c 24 a8 01
	00 00		 mov	 ecx, DWORD PTR _pInfo$[esp+416]
  00027	33 c4		 xor	 eax, esp
  00029	53		 push	 ebx
  0002a	56		 push	 esi
  0002b	89 84 24 9c 01
	00 00		 mov	 DWORD PTR __$ArrayPad$[esp+428], eax

; 929  : 	int v1	= dwID;
; 930  : 	CUser* pUser	= prj.GetUser( pInfo->GetPcId() );

  00032	8b 01		 mov	 eax, DWORD PTR [ecx]
  00034	57		 push	 edi
  00035	ff 50 18	 call	 DWORD PTR [eax+24]
  00038	50		 push	 eax
  00039	b9 00 00 00 00	 mov	 ecx, OFFSET FLAT:?prj@@3VCProject@@A
  0003e	e8 00 00 00 00	 call	 ?GetUser@CProject@@QAEPAVCUser@@K@Z ; CProject::GetUser

; 931  : 	BYTE nId, nCount	= 1;
; 932  : 	
; 933  : 	CItemElem itemElem;

  00043	8d 4c 24 20	 lea	 ecx, DWORD PTR _itemElem$[esp+432]
  00047	8b f0		 mov	 esi, eax
  00049	e8 00 00 00 00	 call	 ??0CItemElem@@QAE@XZ	; CItemElem::CItemElem

; 934  : 	itemElem.m_dwItemId		= v1;

  0004e	8b 9c 24 b8 01
	00 00		 mov	 ebx, DWORD PTR _dwID$[esp+428]
  00055	33 ff		 xor	 edi, edi

; 935  : 	itemElem.m_nItemNum		= 1;
; 936  : 	itemElem.SetAbilityOption( 0 );
; 937  : 	if( pUser->CreateItem( &itemElem, &nId ) == TRUE )

  00057	57		 push	 edi
  00058	57		 push	 edi
  00059	8d 4c 24 17	 lea	 ecx, DWORD PTR _nId$[esp+440]
  0005d	51		 push	 ecx
  0005e	8d 54 24 2c	 lea	 edx, DWORD PTR _itemElem$[esp+444]
  00062	52		 push	 edx
  00063	8b ce		 mov	 ecx, esi
  00065	89 bc 24 bc 01
	00 00		 mov	 DWORD PTR __$EHRec$[esp+456], edi
  0006c	89 5c 24 3c	 mov	 DWORD PTR _itemElem$[esp+460], ebx
  00070	66 c7 84 24 b0
	00 00 00 01 00	 mov	 WORD PTR _itemElem$[esp+576], 1
  0007a	89 bc 24 a0 00
	00 00		 mov	 DWORD PTR _itemElem$[esp+560], edi
  00081	e8 00 00 00 00	 call	 ?CreateItem@CMover@@QAEHPAVCItemBase@@PAEPAFE@Z ; CMover::CreateItem
  00086	83 f8 01	 cmp	 eax, 1
  00089	0f 85 bb 00 00
	00		 jne	 $L267394

; 938  : 	{
; 939  : 		CItemElem* pItemElem	= pUser->m_Inventory.GetAtId( nId );

  0008f	0f b6 44 24 0f	 movzx	 eax, BYTE PTR _nId$[esp+432]
  00094	3b 86 9c 0b 00
	00		 cmp	 eax, DWORD PTR [esi+2972]
  0009a	73 35		 jae	 SHORT $L274429
  0009c	8b 8e a0 0b 00
	00		 mov	 ecx, DWORD PTR [esi+2976]
  000a2	69 c0 b8 00 00
	00		 imul	 eax, 184		; 000000b8H
  000a8	03 c1		 add	 eax, ecx
  000aa	8b d8		 mov	 ebx, eax
  000ac	39 7b 0c	 cmp	 DWORD PTR [ebx+12], edi
  000af	74 20		 je	 SHORT $L274429

; 940  : 		if( pItemElem && TRUE == pUser->DoEquip( pItemElem, TRUE ) )

  000b1	6a ff		 push	 -1
  000b3	6a 01		 push	 1
  000b5	53		 push	 ebx
  000b6	8b ce		 mov	 ecx, esi
  000b8	e8 00 00 00 00	 call	 ?DoEquip@CMover@@QAEHPAVCItemElem@@HH@Z ; CMover::DoEquip
  000bd	83 f8 01	 cmp	 eax, 1
  000c0	75 0f		 jne	 SHORT $L274429

; 941  : 		{
; 942  : 			g_UserMng.AddDoEquip( (CMover*)pUser, -1, pItemElem, TRUE );

  000c2	50		 push	 eax
  000c3	53		 push	 ebx
  000c4	6a ff		 push	 -1
  000c6	56		 push	 esi
  000c7	b9 00 00 00 00	 mov	 ecx, OFFSET FLAT:?g_UserMng@@3VCUserMng@@A
  000cc	e8 00 00 00 00	 call	 ?AddDoEquip@CUserMng@@QAEXPAVCMover@@HPAVCItemElem@@E@Z ; CUserMng::AddDoEquip
$L274429:

; 943  : 		}
; 944  : 
; 945  : 		LogItemInfo aLogItem;

  000d1	8d 8c 24 d8 00
	00 00		 lea	 ecx, DWORD PTR _aLogItem$267398[esp+432]
  000d8	e8 00 00 00 00	 call	 ??0_LogItemInfo@@QAE@XZ	; _LogItemInfo::_LogItemInfo

; 946  : 		aLogItem.Action = "Q";
; 947  : 		aLogItem.SendName = pUser->GetName();

  000dd	57		 push	 edi
  000de	8b ce		 mov	 ecx, esi
  000e0	c7 84 24 dc 00
	00 00 00 00 00
	00		 mov	 DWORD PTR _aLogItem$267398[esp+436], OFFSET FLAT:??_C@_01BNIGIBBF@Q?$AA@
  000eb	e8 00 00 00 00	 call	 ?GetName@CMover@@QAEPBDH@Z ; CMover::GetName

; 948  : 		aLogItem.RecvName = "QUEST";
; 949  : 		aLogItem.WorldId = pUser->GetWorld()->GetID();
; 950  : 		aLogItem.Gold = aLogItem.Gold2 = pUser->GetGold();
; 951  : 		g_DPSrvr.OnLogItem( aLogItem, &itemElem, itemElem.m_nItemNum );

  000f0	0f bf 8c 24 a0
	00 00 00	 movsx	 ecx, WORD PTR _itemElem$[esp+560]
  000f8	89 84 24 dc 00
	00 00		 mov	 DWORD PTR _aLogItem$267398[esp+436], eax
  000ff	8b 86 6c 01 00
	00		 mov	 eax, DWORD PTR [esi+364]
  00105	8b b6 84 16 00
	00		 mov	 esi, DWORD PTR [esi+5764]
  0010b	c7 84 24 e0 00
	00 00 00 00 00
	00		 mov	 DWORD PTR _aLogItem$267398[esp+440], OFFSET FLAT:??_C@_05GFPLGFAD@QUEST?$AA@
  00116	8b 00		 mov	 eax, DWORD PTR [eax]
  00118	51		 push	 ecx
  00119	8d 54 24 24	 lea	 edx, DWORD PTR _itemElem$[esp+436]
  0011d	89 84 24 e8 00
	00 00		 mov	 DWORD PTR _aLogItem$267398[esp+448], eax
  00124	52		 push	 edx
  00125	8d 84 24 e0 00
	00 00		 lea	 eax, DWORD PTR _aLogItem$267398[esp+440]
  0012c	50		 push	 eax
  0012d	b9 00 00 00 00	 mov	 ecx, OFFSET FLAT:?g_DPSrvr@@3VCDPSrvr@@A
  00132	89 b4 24 f8 00
	00 00		 mov	 DWORD PTR _aLogItem$267398[esp+464], esi
  00139	89 b4 24 f4 00
	00 00		 mov	 DWORD PTR _aLogItem$267398[esp+460], esi
  00140	e8 00 00 00 00	 call	 ?OnLogItem@CDPSrvr@@QAEXAAU_LogItemInfo@@PAVCItemElem@@H@Z ; CDPSrvr::OnLogItem

; 952  : 	}
; 953  : 	else

  00145	e9 6c 01 00 00	 jmp	 $L274430
$L267394:
  0014a	55		 push	 ebp

; 954  : 	{
; 955  : 		CItemElem* pItemElem	= new CItemElem;

  0014b	68 b8 00 00 00	 push	 184			; 000000b8H
  00150	e8 00 00 00 00	 call	 ??2@YAPAXI@Z		; operator new
  00155	83 c4 04	 add	 esp, 4
  00158	89 44 24 14	 mov	 DWORD PTR $T274291[esp+436], eax
  0015c	3b c7		 cmp	 eax, edi
  0015e	c6 84 24 b0 01
	00 00 01	 mov	 BYTE PTR __$EHRec$[esp+444], 1
  00166	74 0b		 je	 SHORT $L274292
  00168	8b c8		 mov	 ecx, eax
  0016a	e8 00 00 00 00	 call	 ??0CItemElem@@QAE@XZ	; CItemElem::CItemElem
  0016f	8b e8		 mov	 ebp, eax
  00171	eb 02		 jmp	 SHORT $L274293
$L274292:
  00173	33 ed		 xor	 ebp, ebp
$L274293:

; 956  : 		pItemElem->m_dwItemId	= v1;
; 957  : 		ItemProp* pItemProp		= pItemElem->GetProp();

  00175	3b df		 cmp	 ebx, edi
  00177	89 5d 0c	 mov	 DWORD PTR [ebp+12], ebx
  0017a	a1 5c 02 00 00	 mov	 eax, DWORD PTR ?prj@@3VCProject@@A+604
  0017f	c6 84 24 b0 01
	00 00 00	 mov	 BYTE PTR __$EHRec$[esp+444], 0
  00187	0f 8c 78 01 00
	00		 jl	 $L274388
  0018d	3b d8		 cmp	 ebx, eax
  0018f	0f 8d 70 01 00
	00		 jge	 $L274388
  00195	0f 82 5c 01 00
	00		 jb	 $L274400
  0019b	33 c0		 xor	 eax, eax
$L274383:

; 958  : 		if( pItemProp )

  0019d	3b c7		 cmp	 eax, edi
  0019f	0f 84 10 01 00
	00		 je	 $L274434

; 959  : 		{
; 960  : 			pItemElem->m_nHitPoint	= pItemProp->dwEndurance;

  001a5	8b 90 90 00 00
	00		 mov	 edx, DWORD PTR [eax+144]

; 961  : 			pItemElem->m_nItemNum	= 1;
; 962  : 			pItemElem->SetAbilityOption( 0 );
; 963  : 			CItem* pItem	= new CItem;

  001ab	68 4c 02 00 00	 push	 588			; 0000024cH
  001b0	89 55 7c	 mov	 DWORD PTR [ebp+124], edx
  001b3	66 c7 85 80 00
	00 00 01 00	 mov	 WORD PTR [ebp+128], 1
  001bc	89 7d 70	 mov	 DWORD PTR [ebp+112], edi
  001bf	e8 00 00 00 00	 call	 ??2@YAPAXI@Z		; operator new
  001c4	83 c4 04	 add	 esp, 4
  001c7	89 44 24 14	 mov	 DWORD PTR $T274295[esp+436], eax
  001cb	3b c7		 cmp	 eax, edi
  001cd	c6 84 24 b0 01
	00 00 02	 mov	 BYTE PTR __$EHRec$[esp+444], 2
  001d5	74 09		 je	 SHORT $L274297
  001d7	8b c8		 mov	 ecx, eax
  001d9	e8 00 00 00 00	 call	 ??0CItem@@QAE@XZ	; CItem::CItem
  001de	8b f8		 mov	 edi, eax
$L274297:

; 964  : 			pItem->m_pItemBase	= pItemElem;

  001e0	89 af 34 02 00
	00		 mov	 DWORD PTR [edi+564], ebp

; 965  : 
; 966  : 			if( pItemElem->m_dwItemId == 0 ) Error("EquipItem SetIndex\n" );

  001e6	8b 45 0c	 mov	 eax, DWORD PTR [ebp+12]
  001e9	85 c0		 test	 eax, eax
  001eb	c6 84 24 b0 01
	00 00 00	 mov	 BYTE PTR __$EHRec$[esp+444], 0
  001f3	75 0d		 jne	 SHORT $L267414
  001f5	68 00 00 00 00	 push	 OFFSET FLAT:??_C@_0BE@ICMDEENE@EquipItem?5SetIndex?6?$AA@
  001fa	e8 00 00 00 00	 call	 ?Error@@YAPBDPBDZZ	; Error
  001ff	83 c4 04	 add	 esp, 4
$L267414:

; 967  : 			pItem->SetIndex( D3DDEVICE, pItemElem->m_dwItemId );

  00202	8b 4d 0c	 mov	 ecx, DWORD PTR [ebp+12]
  00205	8b 07		 mov	 eax, DWORD PTR [edi]
  00207	6a 00		 push	 0
  00209	51		 push	 ecx
  0020a	6a 00		 push	 0
  0020c	8b cf		 mov	 ecx, edi
  0020e	ff 50 2c	 call	 DWORD PTR [eax+44]

; 968  : 			pItem->SetPos( pUser->GetPos() );

  00211	8d 96 60 01 00
	00		 lea	 edx, DWORD PTR [esi+352]
  00217	8b 02		 mov	 eax, DWORD PTR [edx]
  00219	8b 4a 04	 mov	 ecx, DWORD PTR [edx+4]
  0021c	8b 52 08	 mov	 edx, DWORD PTR [edx+8]
  0021f	89 44 24 18	 mov	 DWORD PTR $T274298[esp+436], eax
  00223	8d 44 24 18	 lea	 eax, DWORD PTR $T274298[esp+436]
  00227	89 4c 24 1c	 mov	 DWORD PTR $T274298[esp+440], ecx
  0022b	50		 push	 eax
  0022c	8b cf		 mov	 ecx, edi
  0022e	89 54 24 24	 mov	 DWORD PTR $T274298[esp+448], edx
  00232	e8 00 00 00 00	 call	 ?SetPos@CObj@@QAEXABUD3DXVECTOR3@@@Z ; CObj::SetPos

; 969  : 			pItem->SetAngle( (float)( xRandom( 360 ) ) );

  00237	a1 00 00 00 00	 mov	 eax, DWORD PTR ?g_next@@3KA ; g_next
  0023c	69 c0 6d 4e c6
	41		 imul	 eax, 1103515245		; 41c64e6dH
  00242	05 39 30 00 00	 add	 eax, 12345		; 00003039H
  00247	33 d2		 xor	 edx, edx
  00249	b9 68 01 00 00	 mov	 ecx, 360		; 00000168H
  0024e	a3 00 00 00 00	 mov	 DWORD PTR ?g_next@@3KA, eax ; g_next
  00253	f7 f1		 div	 ecx
  00255	85 d2		 test	 edx, edx
  00257	89 54 24 14	 mov	 DWORD PTR tv498[esp+436], edx
  0025b	db 44 24 14	 fild	 DWORD PTR tv498[esp+436]
  0025f	7d 06		 jge	 SHORT $L274435
  00261	d8 05 00 00 00
	00		 fadd	 DWORD PTR __real@4f800000
$L274435:
  00267	51		 push	 ecx
  00268	8b cf		 mov	 ecx, edi
  0026a	d9 1c 24	 fstp	 DWORD PTR [esp]
  0026d	e8 00 00 00 00	 call	 ?SetAngle@CObj@@QAEXM@Z	; CObj::SetAngle

; 970  : 			pItem->m_idHolder	= pUser->m_idPlayer;

  00272	8b 96 38 02 00
	00		 mov	 edx, DWORD PTR [esi+568]
  00278	89 97 38 02 00
	00		 mov	 DWORD PTR [edi+568], edx

; 971  : 			pUser->GetWorld()->ADDOBJ( pItem, TRUE, pUser->GetLayer() );

  0027e	8b 86 b8 01 00
	00		 mov	 eax, DWORD PTR [esi+440]
  00284	8b 8e 6c 01 00
	00		 mov	 ecx, DWORD PTR [esi+364]
  0028a	50		 push	 eax
  0028b	6a 01		 push	 1
  0028d	57		 push	 edi
  0028e	e8 00 00 00 00	 call	 ?AddObj@CWorld@@QAEHPAVCObj@@HH@Z ; CWorld::AddObj

; 972  : 			pUser->AddDefinedText( TID_GAME_DROPITEM, "\"%s\"", prj.GetItemProp( v1 )->szName );

  00293	53		 push	 ebx
  00294	b9 00 00 00 00	 mov	 ecx, OFFSET FLAT:?prj@@3VCProject@@A
  00299	e8 00 00 00 00	 call	 ?GetItemProp@CProject@@QAEPAUItemProp@@H@Z ; CProject::GetItemProp
  0029e	83 c0 04	 add	 eax, 4
  002a1	50		 push	 eax
  002a2	68 00 00 00 00	 push	 OFFSET FLAT:??_C@_04OEDFLLKD@?$CC?$CFs?$CC?$AA@
  002a7	68 6f 02 00 00	 push	 623			; 0000026fH
  002ac	56		 push	 esi
  002ad	e8 00 00 00 00	 call	 ?AddDefinedText@CUser@@QAAXHPBDZZ ; CUser::AddDefinedText
  002b2	83 c4 10	 add	 esp, 16			; 00000010H
$L274434:
  002b5	5d		 pop	 ebp
$L274430:

; 973  : 		}
; 974  : 	}
; 975  : 	return 1;

  002b6	8d 4c 24 20	 lea	 ecx, DWORD PTR _itemElem$[esp+432]
  002ba	c7 84 24 ac 01
	00 00 ff ff ff
	ff		 mov	 DWORD PTR __$EHRec$[esp+440], -1
  002c5	e8 00 00 00 00	 call	 ??1CItemElem@@UAE@XZ	; CItemElem::~CItemElem

; 976  : }

  002ca	8b 8c 24 a4 01
	00 00		 mov	 ecx, DWORD PTR __$EHRec$[esp+432]
  002d1	5f		 pop	 edi
  002d2	5e		 pop	 esi
  002d3	64 89 0d 00 00
	00 00		 mov	 DWORD PTR fs:__except_list, ecx
  002da	8b 8c 24 98 01
	00 00		 mov	 ecx, DWORD PTR __$ArrayPad$[esp+424]
  002e1	5b		 pop	 ebx
  002e2	33 cc		 xor	 ecx, esp
  002e4	b8 01 00 00 00	 mov	 eax, 1
  002e9	e8 00 00 00 00	 call	 @__security_check_cookie@4
  002ee	81 c4 a4 01 00
	00		 add	 esp, 420		; 000001a4H
  002f4	c2 08 00	 ret	 8

; 956  : 		pItemElem->m_dwItemId	= v1;
; 957  : 		ItemProp* pItemProp		= pItemElem->GetProp();

$L274400:
  002f7	8b 0d 4c 02 00
	00		 mov	 ecx, DWORD PTR ?prj@@3VCProject@@A+588
  002fd	8b 04 99	 mov	 eax, DWORD PTR [ecx+ebx*4]
  00300	e9 98 fe ff ff	 jmp	 $L274383
$L274388:
  00305	53		 push	 ebx
  00306	50		 push	 eax
  00307	57		 push	 edi
  00308	68 00 00 00 00	 push	 OFFSET FLAT:??_C@_0BI@BEIFNGEL@GetItemProp?5range_error?$AA@
  0030d	68 00 00 00 00	 push	 OFFSET FLAT:??_C@_0BM@HMFGHCP@?$CFs?5min?3?$CFd?0?5max?3?$CFd?0?5index?3?$CFd?$AA@
  00312	e8 00 00 00 00	 call	 ?Error@@YAPBDPBDZZ	; Error
  00317	83 c4 14	 add	 esp, 20			; 00000014H

; 958  : 		if( pItemProp )

  0031a	eb 99		 jmp	 SHORT $L274434
_TEXT	ENDS
;	COMDAT text$x
text$x	SEGMENT
$L274300:
  00000	8d 8d 70 fe ff
	ff		 lea	 ecx, DWORD PTR _itemElem$[ebp]
  00006	e9 00 00 00 00	 jmp	 ??1CItemElem@@UAE@XZ	; CItemElem::~CItemElem
$L274301:
  0000b	8b 85 60 fe ff
	ff		 mov	 eax, DWORD PTR $T274291[ebp]
  00011	50		 push	 eax
  00012	e8 00 00 00 00	 call	 ??3@YAXPAX@Z		; operator delete
  00017	59		 pop	 ecx
  00018	c3		 ret	 0
$L274302:
  00019	8b 85 60 fe ff
	ff		 mov	 eax, DWORD PTR $T274295[ebp]
  0001f	50		 push	 eax
  00020	e8 00 00 00 00	 call	 ??3@YAXPAX@Z		; operator delete
  00025	59		 pop	 ecx
  00026	c3		 ret	 0
__ehhandler$?EquipItem@@YGHPAUNPCDIALOG_INFO@@K@Z:
  00027	b8 00 00 00 00	 mov	 eax, OFFSET FLAT:$T274428
  0002c	e9 00 00 00 00	 jmp	 ___CxxFrameHandler
text$x	ENDS
?EquipItem@@YGHPAUNPCDIALOG_INFO@@K@Z ENDP		; EquipItem
PUBLIC	__real@3f800000
PUBLIC	?DropQuestItem@@YGHPAUNPCDIALOG_INFO@@KK@Z	; DropQuestItem
PUBLIC	??_C@_0BI@KEOMPJDK@DropQuestItem?5SetIndex?6?$AA@ ; `string'
PUBLIC	??_C@_0BM@IKAGMOLM@DropQuestItem?0?5?$CFd?5null?5prop?$AA@ ; `string'
EXTRN	?xRandomF@@YAMM@Z:NEAR				; xRandomF
EXTRN	__imp__timeGetTime@0:NEAR
;	COMDAT xdata$x
; File c:\documents and settings\test\mes documents\source\virtuos_v17\build\program\_common\obj.h
xdata$x	SEGMENT
$T274532 DD	0ffffffffH
	DD	FLAT:$L274453
	DD	0ffffffffH
	DD	FLAT:$L274454
$T274527 DD	019930520H
	DD	02H
	DD	FLAT:$T274532
	DD	2 DUP(00H)
	DD	2 DUP(00H)
xdata$x	ENDS
;	COMDAT ??_C@_0BM@IKAGMOLM@DropQuestItem?0?5?$CFd?5null?5prop?$AA@
CONST	SEGMENT
??_C@_0BM@IKAGMOLM@DropQuestItem?0?5?$CFd?5null?5prop?$AA@ DB 'DropQuestI'
	DB	'tem, %d null prop', 00H			; `string'
CONST	ENDS
;	COMDAT ??_C@_0BI@KEOMPJDK@DropQuestItem?5SetIndex?6?$AA@
CONST	SEGMENT
??_C@_0BI@KEOMPJDK@DropQuestItem?5SetIndex?6?$AA@ DB 'DropQuestItem SetIn'
	DB	'dex', 0aH, 00H				; `string'
CONST	ENDS
;	COMDAT __real@3f800000
CONST	SEGMENT
__real@3f800000 DD 03f800000r			; 1
; Function compile flags: /Ogty
; File c:\documents and settings\test\mes documents\source\virtuos_v17\build\program\_common\scriptlib.cpp
CONST	ENDS
;	COMDAT ?DropQuestItem@@YGHPAUNPCDIALOG_INFO@@KK@Z
_TEXT	SEGMENT
_vPos$267453 = -24					; size = 12
__$EHRec$ = -12						; size = 12
_pWorld$267438 = 8					; size = 4
_pInfo$ = 8						; size = 4
_dwID$ = 12						; size = 4
tv365 = 16						; size = 4
$T274450 = 16						; size = 4
$T274446 = 16						; size = 4
_dwProb$ = 16						; size = 4
?DropQuestItem@@YGHPAUNPCDIALOG_INFO@@KK@Z PROC NEAR	; DropQuestItem, COMDAT

; 986  : {

  00000	64 a1 00 00 00
	00		 mov	 eax, DWORD PTR fs:__except_list
  00006	6a ff		 push	 -1
  00008	68 00 00 00 00	 push	 __ehhandler$?DropQuestItem@@YGHPAUNPCDIALOG_INFO@@KK@Z
  0000d	50		 push	 eax
  0000e	64 89 25 00 00
	00 00		 mov	 DWORD PTR fs:__except_list, esp
  00015	83 ec 0c	 sub	 esp, 12			; 0000000cH
  00018	53		 push	 ebx
  00019	55		 push	 ebp

; 987  : 	int v1 = dwID, v2 = dwProb;
; 988  : 	CUser* pUser = prj.GetUser( pInfo->GetPcId() );

  0001a	8b 6c 24 24	 mov	 ebp, DWORD PTR _pInfo$[esp+28]
  0001e	8b 45 00	 mov	 eax, DWORD PTR [ebp]
  00021	56		 push	 esi
  00022	57		 push	 edi
  00023	8b cd		 mov	 ecx, ebp
  00025	ff 50 18	 call	 DWORD PTR [eax+24]
  00028	50		 push	 eax
  00029	b9 00 00 00 00	 mov	 ecx, OFFSET FLAT:?prj@@3VCProject@@A
  0002e	e8 00 00 00 00	 call	 ?GetUser@CProject@@QAEPAVCUser@@K@Z ; CProject::GetUser
  00033	8b f8		 mov	 edi, eax

; 989  : 
; 990  : 	if( (int)( xRandom( 1000 ) ) < v2 )

  00035	a1 00 00 00 00	 mov	 eax, DWORD PTR ?g_next@@3KA ; g_next
  0003a	69 c0 6d 4e c6
	41		 imul	 eax, 1103515245		; 41c64e6dH
  00040	05 39 30 00 00	 add	 eax, 12345		; 00003039H
  00045	33 d2		 xor	 edx, edx
  00047	a3 00 00 00 00	 mov	 DWORD PTR ?g_next@@3KA, eax ; g_next
  0004c	b9 e8 03 00 00	 mov	 ecx, 1000		; 000003e8H
  00051	f7 f1		 div	 ecx
  00053	3b 54 24 34	 cmp	 edx, DWORD PTR _dwProb$[esp+36]
  00057	0f 8d ac 00 00
	00		 jge	 $L267456

; 991  : 	{
; 992  : 		ItemProp* pItemProp	= prj.GetItemProp( v1 );

  0005d	8b 74 24 30	 mov	 esi, DWORD PTR _dwID$[esp+36]
  00061	a1 5c 02 00 00	 mov	 eax, DWORD PTR ?prj@@3VCProject@@A+604
  00066	33 db		 xor	 ebx, ebx
  00068	3b f3		 cmp	 esi, ebx
  0006a	7c 7a		 jl	 SHORT $L274503
  0006c	3b f0		 cmp	 esi, eax
  0006e	7d 76		 jge	 SHORT $L274503
  00070	0f 83 85 00 00
	00		 jae	 $L267437
  00076	8b 15 4c 02 00
	00		 mov	 edx, DWORD PTR ?prj@@3VCProject@@A+588
  0007c	8b 04 b2	 mov	 eax, DWORD PTR [edx+esi*4]

; 993  : 		if( pItemProp )

  0007f	3b c3		 cmp	 eax, ebx
  00081	74 78		 je	 SHORT $L267437

; 994  : 		{
; 995  : 			CWorld* pWorld	= pUser->GetWorld();

  00083	8b 87 6c 01 00
	00		 mov	 eax, DWORD PTR [edi+364]

; 996  : 			if( pWorld )

  00089	3b c3		 cmp	 eax, ebx
  0008b	89 44 24 2c	 mov	 DWORD PTR _pWorld$267438[esp+36], eax
  0008f	74 78		 je	 SHORT $L267456

; 997  : 			{
; 998  : 				CItemElem* pItemElem	= new CItemElem;

  00091	68 b8 00 00 00	 push	 184			; 000000b8H
  00096	e8 00 00 00 00	 call	 ??2@YAPAXI@Z		; operator new
  0009b	83 c4 04	 add	 esp, 4
  0009e	89 44 24 34	 mov	 DWORD PTR $T274446[esp+36], eax
  000a2	3b c3		 cmp	 eax, ebx
  000a4	89 5c 24 24	 mov	 DWORD PTR __$EHRec$[esp+48], ebx
  000a8	74 09		 je	 SHORT $L274448
  000aa	8b c8		 mov	 ecx, eax
  000ac	e8 00 00 00 00	 call	 ??0CItemElem@@QAE@XZ	; CItemElem::CItemElem
  000b1	8b d8		 mov	 ebx, eax
$L274448:

; 999  : 				pItemElem->m_dwItemId	= v1;
; 1000 : 				CItem* pItem	= new CItem;

  000b3	68 4c 02 00 00	 push	 588			; 0000024cH
  000b8	c7 44 24 28 ff
	ff ff ff	 mov	 DWORD PTR __$EHRec$[esp+52], -1
  000c0	89 73 0c	 mov	 DWORD PTR [ebx+12], esi
  000c3	e8 00 00 00 00	 call	 ??2@YAPAXI@Z		; operator new
  000c8	83 c4 04	 add	 esp, 4
  000cb	89 44 24 34	 mov	 DWORD PTR $T274450[esp+36], eax
  000cf	85 c0		 test	 eax, eax
  000d1	c7 44 24 24 01
	00 00 00	 mov	 DWORD PTR __$EHRec$[esp+48], 1
  000d9	74 45		 je	 SHORT $L274451
  000db	8b c8		 mov	 ecx, eax
  000dd	e8 00 00 00 00	 call	 ??0CItem@@QAE@XZ	; CItem::CItem
  000e2	8b f0		 mov	 esi, eax
  000e4	eb 3c		 jmp	 SHORT $L274452

; 991  : 	{
; 992  : 		ItemProp* pItemProp	= prj.GetItemProp( v1 );

$L274503:
  000e6	56		 push	 esi
  000e7	50		 push	 eax
  000e8	53		 push	 ebx
  000e9	68 00 00 00 00	 push	 OFFSET FLAT:??_C@_0BI@BEIFNGEL@GetItemProp?5range_error?$AA@
  000ee	68 00 00 00 00	 push	 OFFSET FLAT:??_C@_0BM@HMFGHCP@?$CFs?5min?3?$CFd?0?5max?3?$CFd?0?5index?3?$CFd?$AA@
  000f3	e8 00 00 00 00	 call	 ?Error@@YAPBDPBDZZ	; Error
  000f8	83 c4 14	 add	 esp, 20			; 00000014H
$L267437:

; 1014 : 				return 1;
; 1015 : 			}
; 1016 : 		}
; 1017 : 		else
; 1018 : 		{
; 1019 : 			Error( "DropQuestItem, %d null prop", v1 );

  000fb	56		 push	 esi
  000fc	68 00 00 00 00	 push	 OFFSET FLAT:??_C@_0BM@IKAGMOLM@DropQuestItem?0?5?$CFd?5null?5prop?$AA@
  00101	e8 00 00 00 00	 call	 ?Error@@YAPBDPBDZZ	; Error
  00106	83 c4 08	 add	 esp, 8
$L267456:
  00109	5f		 pop	 edi
  0010a	5e		 pop	 esi
  0010b	5d		 pop	 ebp

; 1020 : 		}
; 1021 : 	}
; 1022 : 	return 0;

  0010c	33 c0		 xor	 eax, eax
  0010e	5b		 pop	 ebx

; 1023 : }

  0010f	8b 4c 24 0c	 mov	 ecx, DWORD PTR __$EHRec$[esp+24]
  00113	64 89 0d 00 00
	00 00		 mov	 DWORD PTR fs:__except_list, ecx
  0011a	83 c4 18	 add	 esp, 24			; 00000018H
  0011d	c2 0c 00	 ret	 12			; 0000000cH
$L274451:

; 999  : 				pItemElem->m_dwItemId	= v1;
; 1000 : 				CItem* pItem	= new CItem;

  00120	33 f6		 xor	 esi, esi
$L274452:

; 1001 : 				pItem->m_pItemBase	= pItemElem;

  00122	89 9e 34 02 00
	00		 mov	 DWORD PTR [esi+564], ebx

; 1002 : 				if( pItemElem->m_dwItemId == 0 ) Error( "DropQuestItem SetIndex\n" );

  00128	8b 43 0c	 mov	 eax, DWORD PTR [ebx+12]
  0012b	85 c0		 test	 eax, eax
  0012d	c7 44 24 24 ff
	ff ff ff	 mov	 DWORD PTR __$EHRec$[esp+48], -1
  00135	75 0d		 jne	 SHORT $L267450
  00137	68 00 00 00 00	 push	 OFFSET FLAT:??_C@_0BI@KEOMPJDK@DropQuestItem?5SetIndex?6?$AA@
  0013c	e8 00 00 00 00	 call	 ?Error@@YAPBDPBDZZ	; Error
  00141	83 c4 04	 add	 esp, 4
$L267450:

; 1003 : 				pItem->SetIndex( D3DDEVICE, pItemElem->m_dwItemId );

  00144	8b 4b 0c	 mov	 ecx, DWORD PTR [ebx+12]
  00147	8b 06		 mov	 eax, DWORD PTR [esi]
  00149	6a 00		 push	 0
  0014b	51		 push	 ecx
  0014c	6a 00		 push	 0
  0014e	8b ce		 mov	 ecx, esi
  00150	ff 50 2c	 call	 DWORD PTR [eax+44]

; 1004 : 				pItem->m_idHolder	= pUser->m_idPlayer;

  00153	8b 97 38 02 00
	00		 mov	 edx, DWORD PTR [edi+568]
  00159	89 96 38 02 00
	00		 mov	 DWORD PTR [esi+568], edx

; 1005 : 				pItem->m_idOwn	= pUser->GetId();

  0015f	8b 87 bc 01 00
	00		 mov	 eax, DWORD PTR [edi+444]
  00165	89 86 3c 02 00
	00		 mov	 DWORD PTR [esi+572], eax

; 1006 : 				pItem->m_dwDropTime	= timeGetTime();

  0016b	ff 15 00 00 00
	00		 call	 DWORD PTR __imp__timeGetTime@0
  00171	89 86 40 02 00
	00		 mov	 DWORD PTR [esi+576], eax

; 1007 : 				CMover* pMover	= prj.GetMover( pInfo->GetNpcId() );

  00177	8b 55 00	 mov	 edx, DWORD PTR [ebp]
  0017a	8b cd		 mov	 ecx, ebp
  0017c	ff 52 14	 call	 DWORD PTR [edx+20]
  0017f	50		 push	 eax
  00180	b9 00 00 00 00	 mov	 ecx, OFFSET FLAT:?prj@@3VCProject@@A
  00185	e8 00 00 00 00	 call	 ?GetMover@CProject@@QAEPAVCMover@@K@Z ; CProject::GetMover

; 1008 : 				D3DXVECTOR3 vPos	= pMover->GetPos();

  0018a	05 60 01 00 00	 add	 eax, 352		; 00000160H
  0018f	8b 08		 mov	 ecx, DWORD PTR [eax]
  00191	89 4c 24 10	 mov	 DWORD PTR _vPos$267453[esp+40], ecx
  00195	8b 50 04	 mov	 edx, DWORD PTR [eax+4]
  00198	89 54 24 14	 mov	 DWORD PTR _vPos$267453[esp+44], edx
  0019c	8b 40 08	 mov	 eax, DWORD PTR [eax+8]

; 1009 : 				vPos.x	+= ( xRandomF( 2.0f ) - 1.0f );

  0019f	68 00 00 00 40	 push	 1073741824		; 40000000H
  001a4	89 44 24 1c	 mov	 DWORD PTR _vPos$267453[esp+52], eax
  001a8	e8 00 00 00 00	 call	 ?xRandomF@@YAMM@Z	; xRandomF
  001ad	d8 25 00 00 00
	00		 fsub	 DWORD PTR __real@3f800000

; 1010 : 				vPos.z	+= ( xRandomF( 2.0f ) - 1.0f );

  001b3	68 00 00 00 40	 push	 1073741824		; 40000000H
  001b8	d8 44 24 18	 fadd	 DWORD PTR _vPos$267453[esp+48]
  001bc	d9 5c 24 18	 fstp	 DWORD PTR _vPos$267453[esp+48]
  001c0	e8 00 00 00 00	 call	 ?xRandomF@@YAMM@Z	; xRandomF
  001c5	d8 25 00 00 00
	00		 fsub	 DWORD PTR __real@3f800000
  001cb	83 c4 08	 add	 esp, 8

; 1011 : 				pItem->SetPos( vPos );

  001ce	8d 4c 24 10	 lea	 ecx, DWORD PTR _vPos$267453[esp+40]
  001d2	51		 push	 ecx
  001d3	d8 44 24 1c	 fadd	 DWORD PTR _vPos$267453[esp+52]
  001d7	8b ce		 mov	 ecx, esi
  001d9	d9 5c 24 1c	 fstp	 DWORD PTR _vPos$267453[esp+52]
  001dd	e8 00 00 00 00	 call	 ?SetPos@CObj@@QAEXABUD3DXVECTOR3@@@Z ; CObj::SetPos

; 1012 : 				pItem->SetAngle( (float)( xRandom( 360 ) ) );

  001e2	a1 00 00 00 00	 mov	 eax, DWORD PTR ?g_next@@3KA ; g_next
  001e7	69 c0 6d 4e c6
	41		 imul	 eax, 1103515245		; 41c64e6dH
  001ed	05 39 30 00 00	 add	 eax, 12345		; 00003039H
  001f2	33 d2		 xor	 edx, edx
  001f4	b9 68 01 00 00	 mov	 ecx, 360		; 00000168H
  001f9	a3 00 00 00 00	 mov	 DWORD PTR ?g_next@@3KA, eax ; g_next
  001fe	f7 f1		 div	 ecx
  00200	85 d2		 test	 edx, edx
  00202	89 54 24 34	 mov	 DWORD PTR tv365[esp+36], edx
  00206	db 44 24 34	 fild	 DWORD PTR tv365[esp+36]
  0020a	7d 06		 jge	 SHORT $L274531
  0020c	d8 05 00 00 00
	00		 fadd	 DWORD PTR __real@4f800000
$L274531:
  00212	51		 push	 ecx
  00213	8b ce		 mov	 ecx, esi
  00215	d9 1c 24	 fstp	 DWORD PTR [esp]
  00218	e8 00 00 00 00	 call	 ?SetAngle@CObj@@QAEXM@Z	; CObj::SetAngle

; 1013 : 				pWorld->ADDOBJ( pItem, TRUE, pUser->GetLayer() );

  0021d	8b 97 b8 01 00
	00		 mov	 edx, DWORD PTR [edi+440]
  00223	8b 4c 24 2c	 mov	 ecx, DWORD PTR _pWorld$267438[esp+36]
  00227	52		 push	 edx
  00228	6a 01		 push	 1
  0022a	56		 push	 esi
  0022b	e8 00 00 00 00	 call	 ?AddObj@CWorld@@QAEHPAVCObj@@HH@Z ; CWorld::AddObj

; 1023 : }

  00230	8b 4c 24 1c	 mov	 ecx, DWORD PTR __$EHRec$[esp+40]
  00234	5f		 pop	 edi
  00235	5e		 pop	 esi
  00236	5d		 pop	 ebp
  00237	b8 01 00 00 00	 mov	 eax, 1
  0023c	5b		 pop	 ebx
  0023d	64 89 0d 00 00
	00 00		 mov	 DWORD PTR fs:__except_list, ecx
  00244	83 c4 18	 add	 esp, 24			; 00000018H
  00247	c2 0c 00	 ret	 12			; 0000000cH
_TEXT	ENDS
;	COMDAT text$x
text$x	SEGMENT
$L274453:
  00000	8b 45 0c	 mov	 eax, DWORD PTR $T274446[ebp-4]
  00003	50		 push	 eax
  00004	e8 00 00 00 00	 call	 ??3@YAXPAX@Z		; operator delete
  00009	59		 pop	 ecx
  0000a	c3		 ret	 0
$L274454:
  0000b	8b 45 0c	 mov	 eax, DWORD PTR $T274450[ebp-4]
  0000e	50		 push	 eax
  0000f	e8 00 00 00 00	 call	 ??3@YAXPAX@Z		; operator delete
  00014	59		 pop	 ecx
  00015	c3		 ret	 0
__ehhandler$?DropQuestItem@@YGHPAUNPCDIALOG_INFO@@KK@Z:
  00016	b8 00 00 00 00	 mov	 eax, OFFSET FLAT:$T274527
  0001b	e9 00 00 00 00	 jmp	 ___CxxFrameHandler
text$x	ENDS
?DropQuestItem@@YGHPAUNPCDIALOG_INFO@@KK@Z ENDP		; DropQuestItem
PUBLIC	?IsEmpty@?$CSimpleStringT@D$0A@@ATL@@QBE_NXZ	; ATL::CSimpleStringT<char,0>::IsEmpty
; Function compile flags: /Ogty
; File c:\program files\microsoft visual studio .net 2003\vc7\atlmfc\include\atlsimpstr.h
;	COMDAT ?IsEmpty@?$CSimpleStringT@D$0A@@ATL@@QBE_NXZ
_TEXT	SEGMENT
?IsEmpty@?$CSimpleStringT@D$0A@@ATL@@QBE_NXZ PROC NEAR	; ATL::CSimpleStringT<char,0>::IsEmpty, COMDAT
; _this$ = ecx

; 514  : 		return( GetLength() == 0 );

  00000	8b 01		 mov	 eax, DWORD PTR [ecx]
  00002	8b 50 f4	 mov	 edx, DWORD PTR [eax-12]
  00005	33 c9		 xor	 ecx, ecx
  00007	85 d2		 test	 edx, edx
  00009	0f 94 c1	 sete	 cl
  0000c	8a c1		 mov	 al, cl

; 515  : 	}

  0000e	c3		 ret	 0
?IsEmpty@?$CSimpleStringT@D$0A@@ATL@@QBE_NXZ ENDP	; ATL::CSimpleStringT<char,0>::IsEmpty
_TEXT	ENDS
PUBLIC	?begin@?$vector@UWORMON@@V?$allocator@UWORMON@@@std@@@std@@QAE?AViterator@12@XZ ; std::vector<WORMON,std::allocator<WORMON> >::begin
; Function compile flags: /Ogty
; File c:\program files\microsoft visual studio .net 2003\vc7\include\vector
;	COMDAT ?begin@?$vector@UWORMON@@V?$allocator@UWORMON@@@std@@@std@@QAE?AViterator@12@XZ
_TEXT	SEGMENT
___$ReturnUdt$ = 8					; size = 4
?begin@?$vector@UWORMON@@V?$allocator@UWORMON@@@std@@@std@@QAE?AViterator@12@XZ PROC NEAR ; std::vector<WORMON,std::allocator<WORMON> >::begin, COMDAT
; _this$ = ecx

; 463  : 		return (iterator(_Myfirst));

  00000	8b 49 04	 mov	 ecx, DWORD PTR [ecx+4]
  00003	8b 44 24 04	 mov	 eax, DWORD PTR ___$ReturnUdt$[esp-4]
  00007	89 08		 mov	 DWORD PTR [eax], ecx

; 464  : 		}

  00009	c2 04 00	 ret	 4
?begin@?$vector@UWORMON@@V?$allocator@UWORMON@@@std@@@std@@QAE?AViterator@12@XZ ENDP ; std::vector<WORMON,std::allocator<WORMON> >::begin
_TEXT	ENDS
PUBLIC	??0?$CStringT@DV?$StrTraitMFC@DV?$ChTraitsCRT@D@ATL@@@@@ATL@@QAE@XZ ; ATL::CStringT<char,StrTraitMFC<char,ATL::ChTraitsCRT<char> > >::CStringT<char,StrTraitMFC<char,ATL::ChTraitsCRT<char> > >
; Function compile flags: /Ogty
; File c:\program files\microsoft visual studio .net 2003\vc7\atlmfc\include\cstringt.h
;	COMDAT ??0?$CStringT@DV?$StrTraitMFC@DV?$ChTraitsCRT@D@ATL@@@@@ATL@@QAE@XZ
_TEXT	SEGMENT
??0?$CStringT@DV?$StrTraitMFC@DV?$ChTraitsCRT@D@ATL@@@@@ATL@@QAE@XZ PROC NEAR ; ATL::CStringT<char,StrTraitMFC<char,ATL::ChTraitsCRT<char> > >::CStringT<char,StrTraitMFC<char,ATL::ChTraitsCRT<char> > >, COMDAT
; _this$ = ecx

; 796  : 	{

  00000	56		 push	 esi
  00001	8b f1		 mov	 esi, ecx
  00003	e8 00 00 00 00	 call	 ?AfxGetStringManager@@YGPAUIAtlStringMgr@ATL@@XZ ; AfxGetStringManager
  00008	8b 10		 mov	 edx, DWORD PTR [eax]
  0000a	8b c8		 mov	 ecx, eax
  0000c	ff 52 0c	 call	 DWORD PTR [edx+12]
  0000f	83 c0 10	 add	 eax, 16			; 00000010H
  00012	89 06		 mov	 DWORD PTR [esi], eax

; 797  : 	}

  00014	8b c6		 mov	 eax, esi
  00016	5e		 pop	 esi
  00017	c3		 ret	 0
??0?$CStringT@DV?$StrTraitMFC@DV?$ChTraitsCRT@D@ATL@@@@@ATL@@QAE@XZ ENDP ; ATL::CStringT<char,StrTraitMFC<char,ATL::ChTraitsCRT<char> > >::CStringT<char,StrTraitMFC<char,ATL::ChTraitsCRT<char> > >
_TEXT	ENDS
PUBLIC	??1?$CStringT@DV?$StrTraitMFC@DV?$ChTraitsCRT@D@ATL@@@@@ATL@@QAE@XZ ; ATL::CStringT<char,StrTraitMFC<char,ATL::ChTraitsCRT<char> > >::~CStringT<char,StrTraitMFC<char,ATL::ChTraitsCRT<char> > >
; Function compile flags: /Ogty
;	COMDAT ??1?$CStringT@DV?$StrTraitMFC@DV?$ChTraitsCRT@D@ATL@@@@@ATL@@QAE@XZ
_TEXT	SEGMENT
??1?$CStringT@DV?$StrTraitMFC@DV?$ChTraitsCRT@D@ATL@@@@@ATL@@QAE@XZ PROC NEAR ; ATL::CStringT<char,StrTraitMFC<char,ATL::ChTraitsCRT<char> > >::~CStringT<char,StrTraitMFC<char,ATL::ChTraitsCRT<char> > >, COMDAT
; _this$ = ecx

; 963  : 	}

  00000	8b 01		 mov	 eax, DWORD PTR [ecx]
  00002	83 e8 10	 sub	 eax, 16			; 00000010H
  00005	8d 48 0c	 lea	 ecx, DWORD PTR [eax+12]
  00008	83 ca ff	 or	 edx, -1
  0000b	f0 0f c1 11	 lock	  xadd	 DWORD PTR [ecx], edx
  0000f	4a		 dec	 edx
  00010	85 d2		 test	 edx, edx
  00012	7f 08		 jg	 SHORT $L274598
  00014	8b 08		 mov	 ecx, DWORD PTR [eax]
  00016	8b 11		 mov	 edx, DWORD PTR [ecx]
  00018	50		 push	 eax
  00019	ff 52 04	 call	 DWORD PTR [edx+4]
$L274598:
  0001c	c3		 ret	 0
??1?$CStringT@DV?$StrTraitMFC@DV?$ChTraitsCRT@D@ATL@@@@@ATL@@QAE@XZ ENDP ; ATL::CStringT<char,StrTraitMFC<char,ATL::ChTraitsCRT<char> > >::~CStringT<char,StrTraitMFC<char,ATL::ChTraitsCRT<char> > >
_TEXT	ENDS
PUBLIC	?PrepareWrite@?$CSimpleStringT@D$0A@@ATL@@AAEPADH@Z ; ATL::CSimpleStringT<char,0>::PrepareWrite
; Function compile flags: /Ogty
; File c:\program files\microsoft visual studio .net 2003\vc7\atlmfc\include\atlsimpstr.h
;	COMDAT ?PrepareWrite@?$CSimpleStringT@D$0A@@ATL@@AAEPADH@Z
_TEXT	SEGMENT
_nLength$ = 8						; size = 4
?PrepareWrite@?$CSimpleStringT@D$0A@@ATL@@AAEPADH@Z PROC NEAR ; ATL::CSimpleStringT<char,0>::PrepareWrite, COMDAT
; _this$ = ecx

; 734  : 	{

  00000	56		 push	 esi
  00001	8b f1		 mov	 esi, ecx

; 735  : 		CStringData* pOldData = GetData();

  00003	8b 06		 mov	 eax, DWORD PTR [esi]

; 736  : 		int nShared = 1-pOldData->nRefs;  // nShared < 0 means true, >= 0 means false

  00005	8b 50 fc	 mov	 edx, DWORD PTR [eax-4]
  00008	83 e8 10	 sub	 eax, 16			; 00000010H
  0000b	b9 01 00 00 00	 mov	 ecx, 1
  00010	2b ca		 sub	 ecx, edx

; 737  : 		int nTooShort = pOldData->nAllocLength-nLength;  // nTooShort < 0 means true, >= 0 means false

  00012	8b 50 08	 mov	 edx, DWORD PTR [eax+8]
  00015	8b 44 24 08	 mov	 eax, DWORD PTR _nLength$[esp]
  00019	2b d0		 sub	 edx, eax

; 738  : 		if( (nShared|nTooShort) < 0 )  // If either sign bit is set (i.e. either is less than zero), we need to copy data

  0001b	0b ca		 or	 ecx, edx
  0001d	7d 08		 jge	 SHORT $L274607

; 739  : 		{
; 740  : 			PrepareWrite2( nLength );

  0001f	50		 push	 eax
  00020	8b ce		 mov	 ecx, esi
  00022	e8 00 00 00 00	 call	 ?PrepareWrite2@?$CSimpleStringT@D$0A@@ATL@@AAEXH@Z ; ATL::CSimpleStringT<char,0>::PrepareWrite2
$L274607:

; 741  : 		}
; 742  : 
; 743  : 		return( m_pszData );

  00027	8b 06		 mov	 eax, DWORD PTR [esi]
  00029	5e		 pop	 esi

; 744  : 	}

  0002a	c2 04 00	 ret	 4
?PrepareWrite@?$CSimpleStringT@D$0A@@ATL@@AAEPADH@Z ENDP ; ATL::CSimpleStringT<char,0>::PrepareWrite
_TEXT	ENDS
PUBLIC	??A?$vector@UWORMON@@V?$allocator@UWORMON@@@std@@@std@@QAEAAUWORMON@@I@Z ; std::vector<WORMON,std::allocator<WORMON> >::operator[]
; Function compile flags: /Ogty
; File c:\program files\microsoft visual studio .net 2003\vc7\include\vector
;	COMDAT ??A?$vector@UWORMON@@V?$allocator@UWORMON@@@std@@@std@@QAEAAUWORMON@@I@Z
_TEXT	SEGMENT
__Pos$ = 8						; size = 4
??A?$vector@UWORMON@@V?$allocator@UWORMON@@@std@@@std@@QAEAAUWORMON@@I@Z PROC NEAR ; std::vector<WORMON,std::allocator<WORMON> >::operator[], COMDAT
; _this$ = ecx

; 555  : 		return (*(begin() + _Pos));

  00000	8b 44 24 04	 mov	 eax, DWORD PTR __Pos$[esp-4]
  00004	8b 51 04	 mov	 edx, DWORD PTR [ecx+4]
  00007	c1 e0 04	 shl	 eax, 4
  0000a	03 c2		 add	 eax, edx

; 556  : 		}

  0000c	c2 04 00	 ret	 4
??A?$vector@UWORMON@@V?$allocator@UWORMON@@@std@@@std@@QAEAAUWORMON@@I@Z ENDP ; std::vector<WORMON,std::allocator<WORMON> >::operator[]
_TEXT	ENDS
PUBLIC	?GetBuffer@?$CSimpleStringT@D$0A@@ATL@@QAEPADH@Z ; ATL::CSimpleStringT<char,0>::GetBuffer
; Function compile flags: /Ogty
; File c:\program files\microsoft visual studio .net 2003\vc7\atlmfc\include\atlsimpstr.h
;	COMDAT ?GetBuffer@?$CSimpleStringT@D$0A@@ATL@@QAEPADH@Z
_TEXT	SEGMENT
_nMinBufferLength$ = 8					; size = 4
?GetBuffer@?$CSimpleStringT@D$0A@@ATL@@QAEPADH@Z PROC NEAR ; ATL::CSimpleStringT<char,0>::GetBuffer, COMDAT
; _this$ = ecx

; 489  : 	{

  00000	56		 push	 esi
  00001	8b f1		 mov	 esi, ecx

; 490  : 		return( PrepareWrite( nMinBufferLength ) );

  00003	8b 06		 mov	 eax, DWORD PTR [esi]
  00005	8b 50 fc	 mov	 edx, DWORD PTR [eax-4]
  00008	83 e8 10	 sub	 eax, 16			; 00000010H
  0000b	b9 01 00 00 00	 mov	 ecx, 1
  00010	2b ca		 sub	 ecx, edx
  00012	8b 50 08	 mov	 edx, DWORD PTR [eax+8]
  00015	8b 44 24 08	 mov	 eax, DWORD PTR _nMinBufferLength$[esp]
  00019	2b d0		 sub	 edx, eax
  0001b	0b ca		 or	 ecx, edx
  0001d	7d 08		 jge	 SHORT $L274662
  0001f	50		 push	 eax
  00020	8b ce		 mov	 ecx, esi
  00022	e8 00 00 00 00	 call	 ?PrepareWrite2@?$CSimpleStringT@D$0A@@ATL@@AAEXH@Z ; ATL::CSimpleStringT<char,0>::PrepareWrite2
$L274662:
  00027	8b 06		 mov	 eax, DWORD PTR [esi]
  00029	5e		 pop	 esi

; 491  : 	}

  0002a	c2 04 00	 ret	 4
?GetBuffer@?$CSimpleStringT@D$0A@@ATL@@QAEPADH@Z ENDP	; ATL::CSimpleStringT<char,0>::GetBuffer
_TEXT	ENDS
PUBLIC	?LoadStringA@?$CStringT@DV?$StrTraitMFC@DV?$ChTraitsCRT@D@ATL@@@@@ATL@@QAEHPAUHINSTANCE__@@I@Z ; ATL::CStringT<char,StrTraitMFC<char,ATL::ChTraitsCRT<char> > >::LoadStringA
; Function compile flags: /Ogty
; File c:\program files\microsoft visual studio .net 2003\vc7\atlmfc\include\cstringt.h
;	COMDAT ?LoadStringA@?$CStringT@DV?$StrTraitMFC@DV?$ChTraitsCRT@D@ATL@@@@@ATL@@QAEHPAUHINSTANCE__@@I@Z
_TEXT	SEGMENT
_hInstance$ = 8						; size = 4
_nID$ = 12						; size = 4
?LoadStringA@?$CStringT@DV?$StrTraitMFC@DV?$ChTraitsCRT@D@ATL@@@@@ATL@@QAEHPAUHINSTANCE__@@I@Z PROC NEAR ; ATL::CStringT<char,StrTraitMFC<char,ATL::ChTraitsCRT<char> > >::LoadStringA, COMDAT
; _this$ = ecx

; 1981 : 	{

  00000	53		 push	 ebx
  00001	56		 push	 esi

; 1982 : 		const ATLSTRINGRESOURCEIMAGE* pImage = AtlGetStringResourceImage( hInstance, nID );

  00002	8b 74 24 10	 mov	 esi, DWORD PTR _nID$[esp+4]
  00006	8b c6		 mov	 eax, esi
  00008	c1 e8 04	 shr	 eax, 4
  0000b	57		 push	 edi
  0000c	8b 7c 24 10	 mov	 edi, DWORD PTR _hInstance$[esp+8]
  00010	40		 inc	 eax
  00011	8b d9		 mov	 ebx, ecx
  00013	0f b7 c8	 movzx	 ecx, ax
  00016	6a 06		 push	 6
  00018	51		 push	 ecx
  00019	57		 push	 edi
  0001a	ff 15 00 00 00
	00		 call	 DWORD PTR __imp__FindResourceA@12
  00020	85 c0		 test	 eax, eax
  00022	74 11		 je	 SHORT $L274742
  00024	56		 push	 esi
  00025	50		 push	 eax
  00026	57		 push	 edi
  00027	e8 00 00 00 00	 call	 ?_AtlGetStringResourceImage@ATL@@YAPBUATLSTRINGRESOURCEIMAGE@1@PAUHINSTANCE__@@PAUHRSRC__@@I@Z ; ATL::_AtlGetStringResourceImage
  0002c	8b f8		 mov	 edi, eax
  0002e	83 c4 0c	 add	 esp, 12			; 0000000cH

; 1983 : 		if( pImage == NULL )

  00031	85 ff		 test	 edi, edi
  00033	75 08		 jne	 SHORT $L219928
$L274742:
  00035	5f		 pop	 edi
  00036	5e		 pop	 esi

; 1984 : 		{
; 1985 : 			return( FALSE );

  00037	33 c0		 xor	 eax, eax
  00039	5b		 pop	 ebx

; 1994 : 	}

  0003a	c2 08 00	 ret	 8
$L219928:

; 1986 : 		}
; 1987 : 
; 1988 : 		int nLength = StringTraits::GetBaseTypeLength( pImage->achString, pImage->nLength );

  0003d	0f b7 37	 movzx	 esi, WORD PTR [edi]
  00040	55		 push	 ebp
  00041	ff 15 00 00 00
	00		 call	 DWORD PTR ?g_pfnGetThreadACP@ATL@@3P6GIXZA ; ATL::g_pfnGetThreadACP
  00047	6a 00		 push	 0
  00049	6a 00		 push	 0
  0004b	6a 00		 push	 0
  0004d	6a 00		 push	 0
  0004f	56		 push	 esi
  00050	8d 6f 02	 lea	 ebp, DWORD PTR [edi+2]
  00053	55		 push	 ebp
  00054	6a 00		 push	 0
  00056	50		 push	 eax
  00057	ff 15 00 00 00
	00		 call	 DWORD PTR __imp__WideCharToMultiByte@32
  0005d	8b f0		 mov	 esi, eax

; 1989 : 		PXSTR pszBuffer = GetBuffer( nLength );

  0005f	8b 03		 mov	 eax, DWORD PTR [ebx]
  00061	8b 48 fc	 mov	 ecx, DWORD PTR [eax-4]
  00064	83 e8 10	 sub	 eax, 16			; 00000010H
  00067	8b 40 08	 mov	 eax, DWORD PTR [eax+8]
  0006a	ba 01 00 00 00	 mov	 edx, 1
  0006f	2b d1		 sub	 edx, ecx
  00071	2b c6		 sub	 eax, esi
  00073	0b d0		 or	 edx, eax
  00075	7d 08		 jge	 SHORT $L274703
  00077	56		 push	 esi
  00078	8b cb		 mov	 ecx, ebx
  0007a	e8 00 00 00 00	 call	 ?PrepareWrite2@?$CSimpleStringT@D$0A@@ATL@@AAEXH@Z ; ATL::CSimpleStringT<char,0>::PrepareWrite2
$L274703:
  0007f	8b 03		 mov	 eax, DWORD PTR [ebx]

; 1990 : 		StringTraits::ConvertToBaseType( pszBuffer, nLength, pImage->achString, pImage->nLength );

  00081	0f b7 0f	 movzx	 ecx, WORD PTR [edi]
  00084	6a 00		 push	 0
  00086	6a 00		 push	 0
  00088	56		 push	 esi
  00089	50		 push	 eax
  0008a	51		 push	 ecx
  0008b	55		 push	 ebp
  0008c	6a 00		 push	 0
  0008e	ff 15 00 00 00
	00		 call	 DWORD PTR ?g_pfnGetThreadACP@ATL@@3P6GIXZA ; ATL::g_pfnGetThreadACP
  00094	50		 push	 eax
  00095	ff 15 00 00 00
	00		 call	 DWORD PTR __imp__WideCharToMultiByte@32

; 1991 : 		ReleaseBufferSetLength( nLength );

  0009b	85 f6		 test	 esi, esi
  0009d	5d		 pop	 ebp
  0009e	7c 1b		 jl	 SHORT $L274739
  000a0	8b 03		 mov	 eax, DWORD PTR [ebx]
  000a2	3b 70 f8	 cmp	 esi, DWORD PTR [eax-8]
  000a5	7f 14		 jg	 SHORT $L274739
  000a7	89 70 f4	 mov	 DWORD PTR [eax-12], esi
  000aa	8b 0b		 mov	 ecx, DWORD PTR [ebx]
  000ac	5f		 pop	 edi
  000ad	c6 04 0e 00	 mov	 BYTE PTR [esi+ecx], 0
  000b1	5e		 pop	 esi

; 1992 : 
; 1993 : 		return( TRUE );

  000b2	b8 01 00 00 00	 mov	 eax, 1
  000b7	5b		 pop	 ebx

; 1994 : 	}

  000b8	c2 08 00	 ret	 8
$L274739:
  000bb	68 57 00 07 80	 push	 -2147024809		; 80070057H
  000c0	e8 00 00 00 00	 call	 ?AtlThrow@ATL@@YGXJ@Z	; ATL::AtlThrow
$L274744:
$L274743:
  000c5	cc		 int	 3
?LoadStringA@?$CStringT@DV?$StrTraitMFC@DV?$ChTraitsCRT@D@ATL@@@@@ATL@@QAEHPAUHINSTANCE__@@I@Z ENDP ; ATL::CStringT<char,StrTraitMFC<char,ATL::ChTraitsCRT<char> > >::LoadStringA
_TEXT	ENDS
PUBLIC	?SetString@?$CSimpleStringT@D$0A@@ATL@@QAEXPBDH@Z ; ATL::CSimpleStringT<char,0>::SetString
; Function compile flags: /Ogty
; File c:\program files\microsoft visual studio .net 2003\vc7\atlmfc\include\atlsimpstr.h
;	COMDAT ?SetString@?$CSimpleStringT@D$0A@@ATL@@QAEXPBDH@Z
_TEXT	SEGMENT
_pszSrc$ = 8						; size = 4
_nLength$ = 12						; size = 4
?SetString@?$CSimpleStringT@D$0A@@ATL@@QAEXPBDH@Z PROC NEAR ; ATL::CSimpleStringT<char,0>::SetString, COMDAT
; _this$ = ecx

; 583  : 	{

  00000	53		 push	 ebx

; 584  : 		if( nLength == 0 )

  00001	8b 5c 24 0c	 mov	 ebx, DWORD PTR _nLength$[esp]
  00005	85 db		 test	 ebx, ebx
  00007	55		 push	 ebp
  00008	8b e9		 mov	 ebp, ecx
  0000a	75 0a		 jne	 SHORT $L221330

; 585  : 		{
; 586  : 			Empty();

  0000c	e8 00 00 00 00	 call	 ?Empty@?$CSimpleStringT@D$0A@@ATL@@QAEXXZ ; ATL::CSimpleStringT<char,0>::Empty
  00011	5d		 pop	 ebp
  00012	5b		 pop	 ebx

; 614  : 		}
; 615  : 	}

  00013	c2 08 00	 ret	 8
$L221330:

; 587  : 		}
; 588  : 		else
; 589  : 		{
; 590  : 			// It is possible that pszSrc points to a location inside of our 
; 591  : 			// buffer.  GetBuffer() might change m_pszData if (1) the buffer 
; 592  : 			// is shared or (2) the buffer is too small to hold the new 
; 593  : 			// string.  We detect this aliasing, and modify pszSrc to point
; 594  : 			// into the newly allocated buffer instead.
; 595  : 			
; 596  : 			if(pszSrc == NULL)

  00016	8b 54 24 0c	 mov	 edx, DWORD PTR _pszSrc$[esp+4]
  0001a	85 d2		 test	 edx, edx
  0001c	75 0a		 jne	 SHORT $L221332

; 612  : 			}
; 613  : 			ReleaseBufferSetLength( nLength );

$L274816:
  0001e	68 57 00 07 80	 push	 -2147024809		; 80070057H
  00023	e8 00 00 00 00	 call	 ?AtlThrow@ATL@@YGXJ@Z	; ATL::AtlThrow
$L274820:
$L221332:

; 597  : 				AtlThrow(E_INVALIDARG);			
; 598  : 				
; 599  : 			UINT nOldLength = GetLength();

  00028	8b 45 00	 mov	 eax, DWORD PTR [ebp]
  0002b	56		 push	 esi

; 600  : 			UINT_PTR nOffset = pszSrc-GetString();

  0002c	8b f2		 mov	 esi, edx
  0002e	2b f0		 sub	 esi, eax

; 601  : 			// If 0 <= nOffset <= nOldLength, then pszSrc points into our 
; 602  : 			// buffer
; 603  : 
; 604  : 			PXSTR pszBuffer = GetBuffer( nLength );

  00030	b9 01 00 00 00	 mov	 ecx, 1
  00035	2b 48 fc	 sub	 ecx, DWORD PTR [eax-4]
  00038	57		 push	 edi
  00039	8b 78 f4	 mov	 edi, DWORD PTR [eax-12]
  0003c	8b 40 f8	 mov	 eax, DWORD PTR [eax-8]
  0003f	2b c3		 sub	 eax, ebx
  00041	0b c8		 or	 ecx, eax
  00043	7d 0c		 jge	 SHORT $L274783
  00045	53		 push	 ebx
  00046	8b cd		 mov	 ecx, ebp
  00048	e8 00 00 00 00	 call	 ?PrepareWrite2@?$CSimpleStringT@D$0A@@ATL@@AAEXH@Z ; ATL::CSimpleStringT<char,0>::PrepareWrite2
  0004d	8b 54 24 14	 mov	 edx, DWORD PTR _pszSrc$[esp+12]
$L274783:

; 605  : 			if( nOffset <= nOldLength )

  00051	3b f7		 cmp	 esi, edi
  00053	8b 45 00	 mov	 eax, DWORD PTR [ebp]
  00056	77 10		 ja	 SHORT $L221337

; 606  : 			{
; 607  : 				CopyCharsOverlapped( pszBuffer, pszBuffer+nOffset, nLength );

  00058	53		 push	 ebx
  00059	8d 0c 30	 lea	 ecx, DWORD PTR [eax+esi]
  0005c	51		 push	 ecx
  0005d	50		 push	 eax
  0005e	e8 00 00 00 00	 call	 _memmove
  00063	83 c4 0c	 add	 esp, 12			; 0000000cH

; 608  : 			}
; 609  : 			else

  00066	eb 14		 jmp	 SHORT $L274790
$L221337:

; 610  : 			{
; 611  : 				CopyChars( pszBuffer, pszSrc, nLength );

  00068	8b cb		 mov	 ecx, ebx
  0006a	8b f2		 mov	 esi, edx
  0006c	8b d1		 mov	 edx, ecx
  0006e	c1 e9 02	 shr	 ecx, 2
  00071	8b f8		 mov	 edi, eax
  00073	f3 a5		 rep movsd
  00075	8b ca		 mov	 ecx, edx
  00077	83 e1 03	 and	 ecx, 3
  0007a	f3 a4		 rep movsb
$L274790:

; 612  : 			}
; 613  : 			ReleaseBufferSetLength( nLength );

  0007c	85 db		 test	 ebx, ebx
  0007e	5f		 pop	 edi
  0007f	5e		 pop	 esi
  00080	7c 9c		 jl	 SHORT $L274816
  00082	8b 45 00	 mov	 eax, DWORD PTR [ebp]
  00085	3b 58 f8	 cmp	 ebx, DWORD PTR [eax-8]
  00088	7f 94		 jg	 SHORT $L274816
  0008a	89 58 f4	 mov	 DWORD PTR [eax-12], ebx
  0008d	8b 45 00	 mov	 eax, DWORD PTR [ebp]
  00090	5d		 pop	 ebp
  00091	c6 04 03 00	 mov	 BYTE PTR [ebx+eax], 0
  00095	5b		 pop	 ebx

; 614  : 		}
; 615  : 	}

  00096	c2 08 00	 ret	 8
$L274819:
?SetString@?$CSimpleStringT@D$0A@@ATL@@QAEXPBDH@Z ENDP	; ATL::CSimpleStringT<char,0>::SetString
_TEXT	ENDS
PUBLIC	?FormatV@?$CStringT@DV?$StrTraitMFC@DV?$ChTraitsCRT@D@ATL@@@@@ATL@@QAEXPBDPAD@Z ; ATL::CStringT<char,StrTraitMFC<char,ATL::ChTraitsCRT<char> > >::FormatV
; Function compile flags: /Ogty
; File c:\program files\microsoft visual studio .net 2003\vc7\atlmfc\include\cstringt.h
;	COMDAT ?FormatV@?$CStringT@DV?$StrTraitMFC@DV?$ChTraitsCRT@D@ATL@@@@@ATL@@QAEXPBDPAD@Z
_TEXT	SEGMENT
_pszFormat$ = 8						; size = 4
_args$ = 12						; size = 4
?FormatV@?$CStringT@DV?$StrTraitMFC@DV?$ChTraitsCRT@D@ATL@@@@@ATL@@QAEXPBDPAD@Z PROC NEAR ; ATL::CStringT<char,StrTraitMFC<char,ATL::ChTraitsCRT<char> > >::FormatV, COMDAT
; _this$ = ecx

; 1855 : 	{

  00000	53		 push	 ebx

; 1856 : 		ATLASSERT( AtlIsValidString( pszFormat ) );
; 1857 : 		if(pszFormat == NULL)

  00001	8b 5c 24 08	 mov	 ebx, DWORD PTR _pszFormat$[esp]
  00005	85 db		 test	 ebx, ebx
  00007	57		 push	 edi
  00008	8b f9		 mov	 edi, ecx
  0000a	75 0a		 jne	 SHORT $L268610

; 1858 : 			AtlThrow(E_INVALIDARG);

  0000c	68 57 00 07 80	 push	 -2147024809		; 80070057H
  00011	e8 00 00 00 00	 call	 ?AtlThrow@ATL@@YGXJ@Z	; ATL::AtlThrow
$L274884:
$L268610:
  00016	55		 push	 ebp

; 1859 : 
; 1860 : 		int nLength = StringTraits::GetFormattedLength( pszFormat, args );

  00017	8b 6c 24 14	 mov	 ebp, DWORD PTR _args$[esp+8]
  0001b	56		 push	 esi
  0001c	55		 push	 ebp
  0001d	53		 push	 ebx
  0001e	e8 00 00 00 00	 call	 __vscprintf
  00023	8b f0		 mov	 esi, eax

; 1861 : 		PXSTR pszBuffer = GetBuffer( nLength );

  00025	8b 07		 mov	 eax, DWORD PTR [edi]
  00027	8b 50 fc	 mov	 edx, DWORD PTR [eax-4]
  0002a	83 e8 10	 sub	 eax, 16			; 00000010H
  0002d	b9 01 00 00 00	 mov	 ecx, 1
  00032	2b ca		 sub	 ecx, edx
  00034	8b 50 08	 mov	 edx, DWORD PTR [eax+8]
  00037	2b d6		 sub	 edx, esi
  00039	83 c4 08	 add	 esp, 8
  0003c	0b ca		 or	 ecx, edx
  0003e	7d 08		 jge	 SHORT $L274849
  00040	56		 push	 esi
  00041	8b cf		 mov	 ecx, edi
  00043	e8 00 00 00 00	 call	 ?PrepareWrite2@?$CSimpleStringT@D$0A@@ATL@@AAEXH@Z ; ATL::CSimpleStringT<char,0>::PrepareWrite2
$L274849:

; 1862 : 		StringTraits::Format( pszBuffer, pszFormat, args );

  00048	8b 07		 mov	 eax, DWORD PTR [edi]
  0004a	55		 push	 ebp
  0004b	53		 push	 ebx
  0004c	50		 push	 eax
  0004d	e8 00 00 00 00	 call	 _vsprintf
  00052	83 c4 0c	 add	 esp, 12			; 0000000cH

; 1863 : 		ReleaseBufferSetLength( nLength );

  00055	85 f6		 test	 esi, esi
  00057	7c 17		 jl	 SHORT $L274879
  00059	8b 07		 mov	 eax, DWORD PTR [edi]
  0005b	3b 70 f8	 cmp	 esi, DWORD PTR [eax-8]
  0005e	7f 10		 jg	 SHORT $L274879
  00060	89 70 f4	 mov	 DWORD PTR [eax-12], esi
  00063	8b 0f		 mov	 ecx, DWORD PTR [edi]
  00065	c6 04 0e 00	 mov	 BYTE PTR [esi+ecx], 0
  00069	5e		 pop	 esi
  0006a	5d		 pop	 ebp
  0006b	5f		 pop	 edi
  0006c	5b		 pop	 ebx

; 1864 : 	}

  0006d	c2 08 00	 ret	 8
$L274879:
  00070	68 57 00 07 80	 push	 -2147024809		; 80070057H
  00075	e8 00 00 00 00	 call	 ?AtlThrow@ATL@@YGXJ@Z	; ATL::AtlThrow
$L274885:
$L274883:
  0007a	cc		 int	 3
?FormatV@?$CStringT@DV?$StrTraitMFC@DV?$ChTraitsCRT@D@ATL@@@@@ATL@@QAEXPBDPAD@Z ENDP ; ATL::CStringT<char,StrTraitMFC<char,ATL::ChTraitsCRT<char> > >::FormatV
_TEXT	ENDS
PUBLIC	?LoadStringA@?$CStringT@DV?$StrTraitMFC@DV?$ChTraitsCRT@D@ATL@@@@@ATL@@QAEHI@Z ; ATL::CStringT<char,StrTraitMFC<char,ATL::ChTraitsCRT<char> > >::LoadStringA
; Function compile flags: /Ogty
;	COMDAT ?LoadStringA@?$CStringT@DV?$StrTraitMFC@DV?$ChTraitsCRT@D@ATL@@@@@ATL@@QAEHI@Z
_TEXT	SEGMENT
_nID$ = 8						; size = 4
?LoadStringA@?$CStringT@DV?$StrTraitMFC@DV?$ChTraitsCRT@D@ATL@@@@@ATL@@QAEHI@Z PROC NEAR ; ATL::CStringT<char,StrTraitMFC<char,ATL::ChTraitsCRT<char> > >::LoadStringA, COMDAT
; _this$ = ecx

; 1969 : 	{

  00000	56		 push	 esi
  00001	57		 push	 edi

; 1970 : 		HINSTANCE hInst = StringTraits::FindStringResourceInstance( nID );

  00002	8b 7c 24 0c	 mov	 edi, DWORD PTR _nID$[esp+4]
  00006	57		 push	 edi
  00007	8b f1		 mov	 esi, ecx
  00009	e8 00 00 00 00	 call	 ?AfxFindStringResourceHandle@@YGPAUHINSTANCE__@@I@Z ; AfxFindStringResourceHandle

; 1971 : 		if( hInst == NULL )

  0000e	85 c0		 test	 eax, eax
  00010	75 05		 jne	 SHORT $L218601
  00012	5f		 pop	 edi
  00013	5e		 pop	 esi

; 1977 : 	}

  00014	c2 04 00	 ret	 4
$L218601:

; 1972 : 		{
; 1973 : 			return( FALSE );
; 1974 : 		}
; 1975 : 
; 1976 : 		return( LoadString( hInst, nID ) );		

  00017	57		 push	 edi
  00018	50		 push	 eax
  00019	8b ce		 mov	 ecx, esi
  0001b	e8 00 00 00 00	 call	 ?LoadStringA@?$CStringT@DV?$StrTraitMFC@DV?$ChTraitsCRT@D@ATL@@@@@ATL@@QAEHPAUHINSTANCE__@@I@Z ; ATL::CStringT<char,StrTraitMFC<char,ATL::ChTraitsCRT<char> > >::LoadStringA
  00020	5f		 pop	 edi
  00021	5e		 pop	 esi

; 1977 : 	}

  00022	c2 04 00	 ret	 4
?LoadStringA@?$CStringT@DV?$StrTraitMFC@DV?$ChTraitsCRT@D@ATL@@@@@ATL@@QAEHI@Z ENDP ; ATL::CStringT<char,StrTraitMFC<char,ATL::ChTraitsCRT<char> > >::LoadStringA
_TEXT	ENDS
PUBLIC	?CheckImplicitLoad@?$CStringT@DV?$StrTraitMFC@DV?$ChTraitsCRT@D@ATL@@@@@ATL@@AAE_NPBX@Z ; ATL::CStringT<char,StrTraitMFC<char,ATL::ChTraitsCRT<char> > >::CheckImplicitLoad
; Function compile flags: /Ogty
;	COMDAT ?CheckImplicitLoad@?$CStringT@DV?$StrTraitMFC@DV?$ChTraitsCRT@D@ATL@@@@@ATL@@AAE_NPBX@Z
_TEXT	SEGMENT
_pv$ = 8						; size = 4
?CheckImplicitLoad@?$CStringT@DV?$StrTraitMFC@DV?$ChTraitsCRT@D@ATL@@@@@ATL@@AAE_NPBX@Z PROC NEAR ; ATL::CStringT<char,StrTraitMFC<char,ATL::ChTraitsCRT<char> > >::CheckImplicitLoad, COMDAT
; _this$ = ecx

; 2229 : 	{

  00000	57		 push	 edi
  00001	8b f9		 mov	 edi, ecx

; 2230 : 		bool bRet = false;
; 2231 : 
; 2232 : 		if( (pv != NULL) && IS_INTRESOURCE( pv ) )

  00003	8b 4c 24 08	 mov	 ecx, DWORD PTR _pv$[esp]
  00007	32 c0		 xor	 al, al
  00009	85 c9		 test	 ecx, ecx
  0000b	74 22		 je	 SHORT $L219935
  0000d	f7 c1 00 00 ff
	ff		 test	 ecx, -65536		; ffff0000H
  00013	75 1a		 jne	 SHORT $L219935
  00015	56		 push	 esi

; 2233 : 		{
; 2234 : 			UINT nID = LOWORD( reinterpret_cast< DWORD_PTR >( pv ) );

  00016	0f b7 f1	 movzx	 esi, cx

; 2235 : 			if( !LoadString( nID ) )

  00019	56		 push	 esi
  0001a	e8 00 00 00 00	 call	 ?AfxFindStringResourceHandle@@YGPAUHINSTANCE__@@I@Z ; AfxFindStringResourceHandle
  0001f	85 c0		 test	 eax, eax
  00021	74 09		 je	 SHORT $L274902
  00023	56		 push	 esi
  00024	50		 push	 eax
  00025	8b cf		 mov	 ecx, edi
  00027	e8 00 00 00 00	 call	 ?LoadStringA@?$CStringT@DV?$StrTraitMFC@DV?$ChTraitsCRT@D@ATL@@@@@ATL@@QAEHPAUHINSTANCE__@@I@Z ; ATL::CStringT<char,StrTraitMFC<char,ATL::ChTraitsCRT<char> > >::LoadStringA
$L274902:

; 2236 : 			{
; 2237 : 				ATLTRACE( atlTraceString, 2, _T( "Warning: implicit LoadString(%u) failed\n" ), nID );
; 2238 : 			}
; 2239 : 			bRet = true;

  0002c	b0 01		 mov	 al, 1
  0002e	5e		 pop	 esi
$L219935:
  0002f	5f		 pop	 edi

; 2240 : 		}
; 2241 : 
; 2242 : 		return( bRet );
; 2243 : 	}

  00030	c2 04 00	 ret	 4
?CheckImplicitLoad@?$CStringT@DV?$StrTraitMFC@DV?$ChTraitsCRT@D@ATL@@@@@ATL@@AAE_NPBX@Z ENDP ; ATL::CStringT<char,StrTraitMFC<char,ATL::ChTraitsCRT<char> > >::CheckImplicitLoad
_TEXT	ENDS
PUBLIC	??4?$CSimpleStringT@D$0A@@ATL@@QAEAAV01@ABV01@@Z ; ATL::CSimpleStringT<char,0>::operator=
; Function compile flags: /Ogty
; File c:\program files\microsoft visual studio .net 2003\vc7\atlmfc\include\atlsimpstr.h
;	COMDAT ??4?$CSimpleStringT@D$0A@@ATL@@QAEAAV01@ABV01@@Z
_TEXT	SEGMENT
_strSrc$ = 8						; size = 4
??4?$CSimpleStringT@D$0A@@ATL@@QAEAAV01@ABV01@@Z PROC NEAR ; ATL::CSimpleStringT<char,0>::operator=, COMDAT
; _this$ = ecx

; 274  : 		CStringData* pSrcData = strSrc.GetData();

  00000	8b 44 24 04	 mov	 eax, DWORD PTR _strSrc$[esp-4]
  00004	56		 push	 esi
  00005	57		 push	 edi
  00006	8b f9		 mov	 edi, ecx
  00008	8b 08		 mov	 ecx, DWORD PTR [eax]

; 275  : 		CStringData* pOldData = GetData();

  0000a	8b 37		 mov	 esi, DWORD PTR [edi]
  0000c	8d 41 f0	 lea	 eax, DWORD PTR [ecx-16]
  0000f	83 ee 10	 sub	 esi, 16			; 00000010H

; 276  : 		if( pSrcData != pOldData)

  00012	3b c6		 cmp	 eax, esi
  00014	74 4d		 je	 SHORT $L274945

; 277  : 		{
; 278  : 			if( pOldData->IsLocked() || pSrcData->pStringMgr != pOldData->pStringMgr )

  00016	8b 56 0c	 mov	 edx, DWORD PTR [esi+12]
  00019	85 d2		 test	 edx, edx
  0001b	53		 push	 ebx
  0001c	8d 5e 0c	 lea	 ebx, DWORD PTR [esi+12]
  0001f	55		 push	 ebp
  00020	7c 33		 jl	 SHORT $L219958
  00022	8b 10		 mov	 edx, DWORD PTR [eax]
  00024	3b 16		 cmp	 edx, DWORD PTR [esi]
  00026	75 2d		 jne	 SHORT $L219958

; 281  : 			}
; 282  : 			else
; 283  : 			{
; 284  : 				CStringData* pNewData = CloneData( pSrcData );

  00028	50		 push	 eax
  00029	e8 00 00 00 00	 call	 ?CloneData@?$CSimpleStringT@D$0A@@ATL@@CAPAUCStringData@2@PAU32@@Z ; ATL::CSimpleStringT<char,0>::CloneData
  0002e	8b e8		 mov	 ebp, eax
  00030	83 c4 04	 add	 esp, 4

; 285  : 				pOldData->Release();

  00033	83 c8 ff	 or	 eax, -1
  00036	f0 0f c1 03	 lock	  xadd	 DWORD PTR [ebx], eax
  0003a	48		 dec	 eax
  0003b	85 c0		 test	 eax, eax
  0003d	7f 08		 jg	 SHORT $L274936
  0003f	8b 0e		 mov	 ecx, DWORD PTR [esi]
  00041	8b 11		 mov	 edx, DWORD PTR [ecx]
  00043	56		 push	 esi
  00044	ff 52 04	 call	 DWORD PTR [edx+4]
$L274936:

; 286  : 				Attach( pNewData );

  00047	83 c5 10	 add	 ebp, 16			; 00000010H
  0004a	89 2f		 mov	 DWORD PTR [edi], ebp
  0004c	5d		 pop	 ebp
  0004d	5b		 pop	 ebx

; 287  : 			}
; 288  : 		}
; 289  : 
; 290  : 		return( *this );

  0004e	8b c7		 mov	 eax, edi
  00050	5f		 pop	 edi
  00051	5e		 pop	 esi

; 291  : 	}

  00052	c2 04 00	 ret	 4
$L219958:

; 279  : 			{
; 280  : 				SetString( strSrc.GetString(), strSrc.GetLength() );

  00055	8b 41 f4	 mov	 eax, DWORD PTR [ecx-12]
  00058	50		 push	 eax
  00059	51		 push	 ecx
  0005a	8b cf		 mov	 ecx, edi
  0005c	e8 00 00 00 00	 call	 ?SetString@?$CSimpleStringT@D$0A@@ATL@@QAEXPBDH@Z ; ATL::CSimpleStringT<char,0>::SetString
  00061	5d		 pop	 ebp
  00062	5b		 pop	 ebx
$L274945:

; 287  : 			}
; 288  : 		}
; 289  : 
; 290  : 		return( *this );

  00063	8b c7		 mov	 eax, edi
  00065	5f		 pop	 edi
  00066	5e		 pop	 esi

; 291  : 	}

  00067	c2 04 00	 ret	 4
??4?$CSimpleStringT@D$0A@@ATL@@QAEAAV01@ABV01@@Z ENDP	; ATL::CSimpleStringT<char,0>::operator=
_TEXT	ENDS
PUBLIC	?SetString@?$CSimpleStringT@D$0A@@ATL@@QAEXPBD@Z ; ATL::CSimpleStringT<char,0>::SetString
; Function compile flags: /Ogty
;	COMDAT ?SetString@?$CSimpleStringT@D$0A@@ATL@@QAEXPBD@Z
_TEXT	SEGMENT
_pszSrc$ = 8						; size = 4
?SetString@?$CSimpleStringT@D$0A@@ATL@@QAEXPBD@Z PROC NEAR ; ATL::CSimpleStringT<char,0>::SetString, COMDAT
; _this$ = ecx

; 579  : 	{

  00000	56		 push	 esi

; 580  : 		SetString( pszSrc, StringLength( pszSrc ) );

  00001	8b 74 24 08	 mov	 esi, DWORD PTR _pszSrc$[esp]
  00005	85 f6		 test	 esi, esi
  00007	75 0d		 jne	 SHORT $L274955
  00009	33 c0		 xor	 eax, eax
  0000b	50		 push	 eax
  0000c	56		 push	 esi
  0000d	e8 00 00 00 00	 call	 ?SetString@?$CSimpleStringT@D$0A@@ATL@@QAEXPBDH@Z ; ATL::CSimpleStringT<char,0>::SetString
  00012	5e		 pop	 esi

; 581  : 	}

  00013	c2 04 00	 ret	 4

; 580  : 		SetString( pszSrc, StringLength( pszSrc ) );

$L274955:
  00016	8b c6		 mov	 eax, esi
  00018	57		 push	 edi
  00019	8d 78 01	 lea	 edi, DWORD PTR [eax+1]
  0001c	8d 64 24 00	 npad	 4
$L274957:
  00020	8a 10		 mov	 dl, BYTE PTR [eax]
  00022	40		 inc	 eax
  00023	84 d2		 test	 dl, dl
  00025	75 f9		 jne	 SHORT $L274957
  00027	2b c7		 sub	 eax, edi
  00029	5f		 pop	 edi
  0002a	50		 push	 eax
  0002b	56		 push	 esi
  0002c	e8 00 00 00 00	 call	 ?SetString@?$CSimpleStringT@D$0A@@ATL@@QAEXPBDH@Z ; ATL::CSimpleStringT<char,0>::SetString
  00031	5e		 pop	 esi

; 581  : 	}

  00032	c2 04 00	 ret	 4
?SetString@?$CSimpleStringT@D$0A@@ATL@@QAEXPBD@Z ENDP	; ATL::CSimpleStringT<char,0>::SetString
_TEXT	ENDS
PUBLIC	?Format@?$CStringT@DV?$StrTraitMFC@DV?$ChTraitsCRT@D@ATL@@@@@ATL@@QAAXPBDZZ ; ATL::CStringT<char,StrTraitMFC<char,ATL::ChTraitsCRT<char> > >::Format
; Function compile flags: /Ogty
; File c:\program files\microsoft visual studio .net 2003\vc7\atlmfc\include\cstringt.h
;	COMDAT ?Format@?$CStringT@DV?$StrTraitMFC@DV?$ChTraitsCRT@D@ATL@@@@@ATL@@QAAXPBDZZ
_TEXT	SEGMENT
_this$ = 8						; size = 4
_pszFormat$ = 12					; size = 4
?Format@?$CStringT@DV?$StrTraitMFC@DV?$ChTraitsCRT@D@ATL@@@@@ATL@@QAAXPBDZZ PROC NEAR ; ATL::CStringT<char,StrTraitMFC<char,ATL::ChTraitsCRT<char> > >::Format, COMDAT

; 1796 : 		ATLASSERT( AtlIsValidString( pszFormat ) );
; 1797 : 		
; 1798 : 		va_list argList;
; 1799 : 		va_start( argList, pszFormat );
; 1800 : 		FormatV( pszFormat, argList );

  00000	8b 4c 24 08	 mov	 ecx, DWORD PTR _pszFormat$[esp-4]
  00004	8d 44 24 0c	 lea	 eax, DWORD PTR _pszFormat$[esp]
  00008	50		 push	 eax
  00009	51		 push	 ecx
  0000a	8b 4c 24 0c	 mov	 ecx, DWORD PTR _this$[esp+4]
  0000e	e8 00 00 00 00	 call	 ?FormatV@?$CStringT@DV?$StrTraitMFC@DV?$ChTraitsCRT@D@ATL@@@@@ATL@@QAEXPBDPAD@Z ; ATL::CStringT<char,StrTraitMFC<char,ATL::ChTraitsCRT<char> > >::FormatV

; 1801 : 		va_end( argList );
; 1802 : 	}

  00013	c3		 ret	 0
?Format@?$CStringT@DV?$StrTraitMFC@DV?$ChTraitsCRT@D@ATL@@@@@ATL@@QAAXPBDZZ ENDP ; ATL::CStringT<char,StrTraitMFC<char,ATL::ChTraitsCRT<char> > >::Format
_TEXT	ENDS
PUBLIC	??4?$CStringT@DV?$StrTraitMFC@DV?$ChTraitsCRT@D@ATL@@@@@ATL@@QAEAAV01@ABV01@@Z ; ATL::CStringT<char,StrTraitMFC<char,ATL::ChTraitsCRT<char> > >::operator=
; Function compile flags: /Ogty
;	COMDAT ??4?$CStringT@DV?$StrTraitMFC@DV?$ChTraitsCRT@D@ATL@@@@@ATL@@QAEAAV01@ABV01@@Z
_TEXT	SEGMENT
_strSrc$ = 8						; size = 4
??4?$CStringT@DV?$StrTraitMFC@DV?$ChTraitsCRT@D@ATL@@@@@ATL@@QAEAAV01@ABV01@@Z PROC NEAR ; ATL::CStringT<char,StrTraitMFC<char,ATL::ChTraitsCRT<char> > >::operator=, COMDAT
; _this$ = ecx

; 968  : 		CThisSimpleString::operator=( strSrc );

  00000	8b 44 24 04	 mov	 eax, DWORD PTR _strSrc$[esp-4]
  00004	56		 push	 esi
  00005	50		 push	 eax
  00006	8b f1		 mov	 esi, ecx
  00008	e8 00 00 00 00	 call	 ??4?$CSimpleStringT@D$0A@@ATL@@QAEAAV01@ABV01@@Z ; ATL::CSimpleStringT<char,0>::operator=

; 969  : 
; 970  : 		return( *this );

  0000d	8b c6		 mov	 eax, esi
  0000f	5e		 pop	 esi

; 971  : 	}

  00010	c2 04 00	 ret	 4
??4?$CStringT@DV?$StrTraitMFC@DV?$ChTraitsCRT@D@ATL@@@@@ATL@@QAEAAV01@ABV01@@Z ENDP ; ATL::CStringT<char,StrTraitMFC<char,ATL::ChTraitsCRT<char> > >::operator=
_TEXT	ENDS
PUBLIC	??4?$CSimpleStringT@D$0A@@ATL@@QAEAAV01@PBD@Z	; ATL::CSimpleStringT<char,0>::operator=
; Function compile flags: /Ogty
; File c:\program files\microsoft visual studio .net 2003\vc7\atlmfc\include\atlsimpstr.h
;	COMDAT ??4?$CSimpleStringT@D$0A@@ATL@@QAEAAV01@PBD@Z
_TEXT	SEGMENT
_pszSrc$ = 8						; size = 4
??4?$CSimpleStringT@D$0A@@ATL@@QAEAAV01@PBD@Z PROC NEAR	; ATL::CSimpleStringT<char,0>::operator=, COMDAT
; _this$ = ecx

; 316  : 		SetString( pszSrc );

  00000	8b 54 24 04	 mov	 edx, DWORD PTR _pszSrc$[esp-4]
  00004	85 d2		 test	 edx, edx
  00006	57		 push	 edi
  00007	8b f9		 mov	 edi, ecx
  00009	75 0f		 jne	 SHORT $L274977
  0000b	33 c0		 xor	 eax, eax
  0000d	50		 push	 eax
  0000e	52		 push	 edx
  0000f	e8 00 00 00 00	 call	 ?SetString@?$CSimpleStringT@D$0A@@ATL@@QAEXPBDH@Z ; ATL::CSimpleStringT<char,0>::SetString

; 317  : 
; 318  : 		return( *this );

  00014	8b c7		 mov	 eax, edi
  00016	5f		 pop	 edi

; 319  : 	}

  00017	c2 04 00	 ret	 4

; 316  : 		SetString( pszSrc );

$L274977:
  0001a	8b c2		 mov	 eax, edx
  0001c	56		 push	 esi
  0001d	8d 70 01	 lea	 esi, DWORD PTR [eax+1]
$L274978:
  00020	8a 08		 mov	 cl, BYTE PTR [eax]
  00022	40		 inc	 eax
  00023	84 c9		 test	 cl, cl
  00025	75 f9		 jne	 SHORT $L274978
  00027	2b c6		 sub	 eax, esi
  00029	5e		 pop	 esi
  0002a	50		 push	 eax
  0002b	52		 push	 edx
  0002c	8b cf		 mov	 ecx, edi
  0002e	e8 00 00 00 00	 call	 ?SetString@?$CSimpleStringT@D$0A@@ATL@@QAEXPBDH@Z ; ATL::CSimpleStringT<char,0>::SetString

; 317  : 
; 318  : 		return( *this );

  00033	8b c7		 mov	 eax, edi
  00035	5f		 pop	 edi

; 319  : 	}

  00036	c2 04 00	 ret	 4
??4?$CSimpleStringT@D$0A@@ATL@@QAEAAV01@PBD@Z ENDP	; ATL::CSimpleStringT<char,0>::operator=
_TEXT	ENDS
PUBLIC	?MonHuntStartParty@@YGHPAUNPCDIALOG_INFO@@HHHH@Z ; MonHuntStartParty
EXTRN	?SetPartyQuest@CPartyQuestProcessor@@QAEXHHHHKK@Z:NEAR ; CPartyQuestProcessor::SetPartyQuest
EXTRN	?IsQuesting@CPartyQuestProcessor@@QAEHH@Z:NEAR	; CPartyQuestProcessor::IsQuesting
EXTRN	?GetInstance@CPartyQuestProcessor@@SAPAV1@XZ:NEAR ; CPartyQuestProcessor::GetInstance
EXTRN	?AddDiagText@CUser@@QAEXPBD@Z:NEAR		; CUser::AddDiagText
EXTRN	?GetPartyQuestProp@CProject@@QAEPAUPARTYQUESTPROP@@H@Z:NEAR ; CProject::GetPartyQuestProp
EXTRN	?GetWorld@CWorldMng@@QAEPAVCWorld@@K@Z:NEAR	; CWorldMng::GetWorld
EXTRN	?Replace@CParty@@QAEXKPBD@Z:NEAR		; CParty::Replace
EXTRN	?ReplaceChkLv@CParty@@QAEHH@Z:NEAR		; CParty::ReplaceChkLv
;	COMDAT xdata$x
; File c:\documents and settings\test\mes documents\source\virtuos_v17\build\program\_common\mover.h
xdata$x	SEGMENT
$T275136 DD	0ffffffffH
	DD	FLAT:$L274988
$T275128 DD	019930520H
	DD	01H
	DD	FLAT:$T275136
	DD	2 DUP(00H)
	DD	2 DUP(00H)
; Function compile flags: /Ogty
; File c:\documents and settings\test\mes documents\source\virtuos_v17\build\program\_common\scriptlib.cpp
xdata$x	ENDS
;	COMDAT ?MonHuntStartParty@@YGHPAUNPCDIALOG_INFO@@HHHH@Z
_TEXT	SEGMENT
tv415 = -2108						; size = 4
_str$267162 = -2108					; size = 4
_i$267165 = -2104					; size = 4
_bSuccess$267164 = -2100				; size = 4
_pProcessor$ = -2096					; size = 4
_pParty$267157 = -2092					; size = 4
_rsf$267175 = -2088					; size = 2072
__$ArrayPad$ = -16					; size = 4
__$EHRec$ = -12						; size = 12
__$ReturnAddr$ = 4					; size = 4
_pInfo$ = 8						; size = 4
_nQuest$ = 12						; size = 4
_nState$ = 16						; size = 4
_nState2$ = 20						; size = 4
_n$ = 24						; size = 4
?MonHuntStartParty@@YGHPAUNPCDIALOG_INFO@@HHHH@Z PROC NEAR ; MonHuntStartParty, COMDAT

; 496  : {

  00000	6a ff		 push	 -1
  00002	68 00 00 00 00	 push	 __ehhandler$?MonHuntStartParty@@YGHPAUNPCDIALOG_INFO@@HHHH@Z
  00007	64 a1 00 00 00
	00		 mov	 eax, DWORD PTR fs:__except_list
  0000d	50		 push	 eax
  0000e	64 89 25 00 00
	00 00		 mov	 DWORD PTR fs:__except_list, esp
  00015	81 ec 30 08 00
	00		 sub	 esp, 2096		; 00000830H
  0001b	a1 00 00 00 00	 mov	 eax, DWORD PTR ___security_cookie
  00020	33 c4		 xor	 eax, esp
  00022	56		 push	 esi
  00023	8b b4 24 44 08
	00 00		 mov	 esi, DWORD PTR _pInfo$[esp+2108]
  0002a	89 84 24 30 08
	00 00		 mov	 DWORD PTR __$ArrayPad$[esp+2112], eax

; 497  : 	CPartyQuestProcessor* pProcessor	= CPartyQuestProcessor::GetInstance();

  00031	e8 00 00 00 00	 call	 ?GetInstance@CPartyQuestProcessor@@SAPAV1@XZ ; CPartyQuestProcessor::GetInstance

; 498  : 	if( pProcessor->IsQuesting( nQuest ) )

  00036	8b 8c 24 48 08
	00 00		 mov	 ecx, DWORD PTR _nQuest$[esp+2108]
  0003d	51		 push	 ecx
  0003e	8b c8		 mov	 ecx, eax
  00040	89 44 24 14	 mov	 DWORD PTR _pProcessor$[esp+2116], eax
  00044	e8 00 00 00 00	 call	 ?IsQuesting@CPartyQuestProcessor@@QAEHH@Z ; CPartyQuestProcessor::IsQuesting
  00049	85 c0		 test	 eax, eax
  0004b	74 07		 je	 SHORT $L267154

; 499  : 	{
; 500  : 		return 0;

  0004d	33 c0		 xor	 eax, eax
  0004f	e9 de 00 00 00	 jmp	 $L267152
$L267154:

; 501  : 	}
; 502  : 	else
; 503  : 	{
; 504  : 		CUser* pUser	= prj.GetUser( pInfo->GetPcId() );

  00054	8b 16		 mov	 edx, DWORD PTR [esi]
  00056	53		 push	 ebx
  00057	55		 push	 ebp
  00058	57		 push	 edi
  00059	8b ce		 mov	 ecx, esi
  0005b	ff 52 18	 call	 DWORD PTR [edx+24]
  0005e	50		 push	 eax
  0005f	b9 00 00 00 00	 mov	 ecx, OFFSET FLAT:?prj@@3VCProject@@A
  00064	e8 00 00 00 00	 call	 ?GetUser@CProject@@QAEPAVCUser@@K@Z ; CProject::GetUser
  00069	8b d8		 mov	 ebx, eax

; 505  : 
; 506  : 		CParty* pParty	= g_PartyMng.GetParty( pUser->GetPartyId() );

  0006b	8b 83 18 07 00
	00		 mov	 eax, DWORD PTR [ebx+1816]
  00071	50		 push	 eax
  00072	b9 00 00 00 00	 mov	 ecx, OFFSET FLAT:?g_PartyMng@@3VCPartyMng@@A
  00077	e8 00 00 00 00	 call	 ?GetParty@CPartyMng@@QAEPAVCParty@@K@Z ; CPartyMng::GetParty
  0007c	8b f0		 mov	 esi, eax

; 507  : 		if( pParty )

  0007e	33 ff		 xor	 edi, edi
  00080	3b f7		 cmp	 esi, edi
  00082	89 74 24 20	 mov	 DWORD PTR _pParty$267157[esp+2124], esi
  00086	0f 84 a1 00 00
	00		 je	 $L267181

; 508  : 		{
; 509  : 			PARTYQUESTPROP* pProp	= prj.GetPartyQuestProp( nQuest );

  0008c	8b 84 24 54 08
	00 00		 mov	 eax, DWORD PTR _nQuest$[esp+2120]
  00093	50		 push	 eax
  00094	b9 00 00 00 00	 mov	 ecx, OFFSET FLAT:?prj@@3VCProject@@A
  00099	e8 00 00 00 00	 call	 ?GetPartyQuestProp@CProject@@QAEPAUPARTYQUESTPROP@@H@Z ; CProject::GetPartyQuestProp
  0009e	8b e8		 mov	 ebp, eax

; 510  : 			if( pProp )

  000a0	3b ef		 cmp	 ebp, edi
  000a2	0f 84 85 00 00
	00		 je	 $L267181

; 511  : 			{				
; 512  : 				if( pParty->ReplaceChkLv( pProp->nLevel+5 ) == FALSE )

  000a8	8b 4d 20	 mov	 ecx, DWORD PTR [ebp+32]
  000ab	83 c1 05	 add	 ecx, 5
  000ae	51		 push	 ecx
  000af	8b ce		 mov	 ecx, esi
  000b1	e8 00 00 00 00	 call	 ?ReplaceChkLv@CParty@@QAEHH@Z ; CParty::ReplaceChkLv
  000b6	85 c0		 test	 eax, eax
  000b8	0f 85 9a 00 00
	00		 jne	 $L267161

; 513  : 				{
; 514  : 					CString str;

  000be	e8 00 00 00 00	 call	 ?AfxGetStringManager@@YGPAUIAtlStringMgr@ATL@@XZ ; AfxGetStringManager
  000c3	8b 10		 mov	 edx, DWORD PTR [eax]
  000c5	8b c8		 mov	 ecx, eax
  000c7	ff 52 0c	 call	 DWORD PTR [edx+12]
  000ca	83 c0 10	 add	 eax, 16			; 00000010H
  000cd	89 44 24 10	 mov	 DWORD PTR _str$267162[esp+2124], eax

; 515  : 					str.Format( prj.GetText(TID_GAME_PARTYQUEST_NOT_JOIN), pProp->nLevel+5 );

  000d1	8b 45 20	 mov	 eax, DWORD PTR [ebp+32]
  000d4	83 c0 05	 add	 eax, 5
  000d7	50		 push	 eax
  000d8	68 d0 0b 00 00	 push	 3024			; 00000bd0H
  000dd	b9 00 00 00 00	 mov	 ecx, OFFSET FLAT:?prj@@3VCProject@@A
  000e2	89 bc 24 50 08
	00 00		 mov	 DWORD PTR __$EHRec$[esp+2140], edi
  000e9	e8 00 00 00 00	 call	 ?GetText@CProject@@QAEPBDK@Z ; CProject::GetText
  000ee	50		 push	 eax
  000ef	8d 4c 24 18	 lea	 ecx, DWORD PTR _str$267162[esp+2132]
  000f3	51		 push	 ecx
  000f4	e8 00 00 00 00	 call	 ?Format@?$CStringT@DV?$StrTraitMFC@DV?$ChTraitsCRT@D@ATL@@@@@ATL@@QAAXPBDZZ ; ATL::CStringT<char,StrTraitMFC<char,ATL::ChTraitsCRT<char> > >::Format

; 516  : 					pUser->AddDiagText( str );

  000f9	8b 74 24 1c	 mov	 esi, DWORD PTR _str$267162[esp+2136]
  000fd	83 c4 0c	 add	 esp, 12			; 0000000cH
  00100	56		 push	 esi
  00101	8b cb		 mov	 ecx, ebx
  00103	e8 00 00 00 00	 call	 ?AddDiagText@CUser@@QAEXPBD@Z ; CUser::AddDiagText

; 517  : 
; 518  : 					return 0;

  00108	8d 46 f0	 lea	 eax, DWORD PTR [esi-16]
  0010b	c7 84 24 48 08
	00 00 ff ff ff
	ff		 mov	 DWORD PTR __$EHRec$[esp+2132], -1
  00116	8d 50 0c	 lea	 edx, DWORD PTR [eax+12]
  00119	83 c9 ff	 or	 ecx, -1
  0011c	f0 0f c1 0a	 lock	  xadd	 DWORD PTR [edx], ecx
  00120	49		 dec	 ecx
  00121	85 c9		 test	 ecx, ecx
  00123	7f 08		 jg	 SHORT $L267181
  00125	8b 08		 mov	 ecx, DWORD PTR [eax]
  00127	8b 11		 mov	 edx, DWORD PTR [ecx]
  00129	50		 push	 eax
  0012a	ff 52 04	 call	 DWORD PTR [edx+4]
$L267181:

; 564  : 				}
; 565  : 			}
; 566  : 		}
; 567  : 	}
; 568  : 	return 0;

  0012d	33 c0		 xor	 eax, eax
$L275133:
  0012f	5f		 pop	 edi
  00130	5d		 pop	 ebp
  00131	5b		 pop	 ebx
$L267152:

; 569  : }

  00132	8b 8c 24 34 08
	00 00		 mov	 ecx, DWORD PTR __$EHRec$[esp+2112]
  00139	64 89 0d 00 00
	00 00		 mov	 DWORD PTR fs:__except_list, ecx
  00140	8b 8c 24 30 08
	00 00		 mov	 ecx, DWORD PTR __$ArrayPad$[esp+2112]
  00147	5e		 pop	 esi
  00148	33 cc		 xor	 ecx, esp
  0014a	e8 00 00 00 00	 call	 @__security_check_cookie@4
  0014f	81 c4 3c 08 00
	00		 add	 esp, 2108		; 0000083cH
  00155	c2 14 00	 ret	 20			; 00000014H
$L267161:

; 519  : 				}
; 520  : 
; 521  : 				//  ...  ...  ...
; 522  : //				g_UserMng.ReplaceWorldArea( pProp->dwWorldId, WI_WORLD_MADRIGAL, 6968.0f, 3328.8f, 0.5f, FALSE );				
; 523  : 
; 524  : 				BOOL bSuccess = FALSE;

  00158	89 7c 24 18	 mov	 DWORD PTR _bSuccess$267164[esp+2124], edi

; 525  : 
; 526  : 				for( DWORD i=0; i<pProp->vecWormon.size(); i++ )

  0015c	89 7c 24 14	 mov	 DWORD PTR _i$267165[esp+2124], edi
  00160	89 7c 24 10	 mov	 DWORD PTR tv415[esp+2124], edi
  00164	eb 0a 8d a4 24
	00 00 00 00 8d
	49 00		 npad	 12
$L267166:
  00170	8b 8d 8c 10 00
	00		 mov	 ecx, DWORD PTR [ebp+4236]
  00176	3b cf		 cmp	 ecx, edi
  00178	0f 84 e7 00 00
	00		 je	 $L275130
  0017e	8b 85 90 10 00
	00		 mov	 eax, DWORD PTR [ebp+4240]
  00184	2b c1		 sub	 eax, ecx
  00186	8b 4c 24 14	 mov	 ecx, DWORD PTR _i$267165[esp+2124]
  0018a	c1 f8 04	 sar	 eax, 4
  0018d	3b c8		 cmp	 ecx, eax
  0018f	0f 83 d0 00 00
	00		 jae	 $L275130
  00195	8b bd 8c 10 00
	00		 mov	 edi, DWORD PTR [ebp+4236]
  0019b	8b 74 24 10	 mov	 esi, DWORD PTR tv415[esp+2124]

; 527  : 				{
; 528  : 					WORMON* WorMon;
; 529  : 					WorMon = &(pProp->vecWormon[i]);
; 530  : 					CMover* pWormon	= (CMover*)CreateObj( D3DDEVICE, OT_MOVER, WorMon->dwWormon );

  0019f	8b 04 37	 mov	 eax, DWORD PTR [edi+esi]
  001a2	03 fe		 add	 edi, esi
  001a4	6a 01		 push	 1
  001a6	50		 push	 eax
  001a7	6a 05		 push	 5
  001a9	6a 00		 push	 0
  001ab	e8 00 00 00 00	 call	 ?CreateObj@@YAPAVCObj@@PAUIDirect3DDevice9@@KKH@Z ; CreateObj
  001b0	8b f0		 mov	 esi, eax
  001b2	83 c4 10	 add	 esp, 16			; 00000010H

; 531  : 
; 532  : 					if( pWormon )

  001b5	85 f6		 test	 esi, esi
  001b7	0f 84 89 00 00
	00		 je	 $L267167

; 533  : 					{
; 534  : 						pWormon->SetPos( WorMon->vPos );

  001bd	83 c7 04	 add	 edi, 4
  001c0	57		 push	 edi
  001c1	8b ce		 mov	 ecx, esi
  001c3	e8 00 00 00 00	 call	 ?SetPos@CObj@@QAEXABUD3DXVECTOR3@@@Z ; CObj::SetPos

; 535  : 						pWormon->InitMotion( MTI_STAND );

  001c8	8b 16		 mov	 edx, DWORD PTR [esi]
  001ca	6a 00		 push	 0
  001cc	8b ce		 mov	 ecx, esi
  001ce	ff 52 08	 call	 DWORD PTR [edx+8]

; 536  : 						pWormon->UpdateLocalMatrix();

  001d1	8b ce		 mov	 ecx, esi
  001d3	e8 00 00 00 00	 call	 ?UpdateLocalMatrix@CObj@@QAEXXZ ; CObj::UpdateLocalMatrix

; 537  : 						pWormon->m_nPartyQuestKeeping = nQuest;

  001d8	8a 84 24 54 08
	00 00		 mov	 al, BYTE PTR _nQuest$[esp+2120]
  001df	88 86 7d 0e 00
	00		 mov	 BYTE PTR [esi+3709], al

; 538  : 
; 539  : 						CWorld* pWorld	= g_WorldMng.GetWorld( pProp->dwWorldId );

  001e5	8b 8d 64 10 00
	00		 mov	 ecx, DWORD PTR [ebp+4196]
  001eb	51		 push	 ecx
  001ec	b9 00 00 00 00	 mov	 ecx, OFFSET FLAT:?g_WorldMng@@3VCWorldMng@@A
  001f1	e8 00 00 00 00	 call	 ?GetWorld@CWorldMng@@QAEPAVCWorld@@K@Z ; CWorldMng::GetWorld
  001f6	8b f8		 mov	 edi, eax

; 540  : 						if( pWorld )

  001f8	85 ff		 test	 edi, edi
  001fa	74 42		 je	 SHORT $L267174

; 541  : 						{
; 542  : 							RunScriptFunc rsf;	// Exit()
; 543  : 							rsf.wFuncType		= FUNCTYPE_EXIT;
; 544  : 							pUser->AddRunScriptFunc( rsf );

  001fc	8d 54 24 24	 lea	 edx, DWORD PTR _rsf$267175[esp+2124]
  00200	52		 push	 edx
  00201	8b cb		 mov	 ecx, ebx
  00203	66 c7 84 24 30
	08 00 00 16 00	 mov	 WORD PTR _rsf$267175[esp+4184], 22 ; 00000016H
  0020d	e8 00 00 00 00	 call	 ?AddRunScriptFunc@CUser@@QAEXABU_runscriptfunc@@@Z ; CUser::AddRunScriptFunc

; 545  : 							pWormon->AddItToGlobalId();

  00212	8b 06		 mov	 eax, DWORD PTR [esi]
  00214	8b ce		 mov	 ecx, esi
  00216	ff 50 3c	 call	 DWORD PTR [eax+60]

; 546  : 							pWormon->m_bActiveAttack = TRUE;

  00219	c7 86 70 06 00
	00 01 00 00 00	 mov	 DWORD PTR [esi+1648], 1

; 547  : 							pWorld->ADDOBJ( pWormon, FALSE, pUser->GetLayer() );

  00223	8b 8b b8 01 00
	00		 mov	 ecx, DWORD PTR [ebx+440]
  00229	51		 push	 ecx
  0022a	6a 00		 push	 0
  0022c	56		 push	 esi
  0022d	8b cf		 mov	 ecx, edi
  0022f	e8 00 00 00 00	 call	 ?AddObj@CWorld@@QAEHPAVCObj@@HH@Z ; CWorld::AddObj

; 548  : 
; 549  : 							bSuccess = TRUE;								

  00234	c7 44 24 18 01
	00 00 00	 mov	 DWORD PTR _bSuccess$267164[esp+2124], 1

; 550  : 						}
; 551  : 						else

  0023c	eb 08		 jmp	 SHORT $L267167
$L267174:

; 552  : 						{
; 553  : 							safe_delete( pWormon );

  0023e	8b 16		 mov	 edx, DWORD PTR [esi]
  00240	6a 01		 push	 1
  00242	8b ce		 mov	 ecx, esi
  00244	ff 12		 call	 DWORD PTR [edx]
$L267167:
  00246	8b 4c 24 14	 mov	 ecx, DWORD PTR _i$267165[esp+2124]
  0024a	8b 44 24 10	 mov	 eax, DWORD PTR tv415[esp+2124]
  0024e	8b 74 24 20	 mov	 esi, DWORD PTR _pParty$267157[esp+2124]
  00252	41		 inc	 ecx
  00253	83 c0 10	 add	 eax, 16			; 00000010H
  00256	89 4c 24 14	 mov	 DWORD PTR _i$267165[esp+2124], ecx
  0025a	89 44 24 10	 mov	 DWORD PTR tv415[esp+2124], eax
  0025e	33 ff		 xor	 edi, edi
  00260	e9 0b ff ff ff	 jmp	 $L267166
$L275130:

; 554  : 						}
; 555  : 					}
; 556  : 				}
; 557  : 				
; 558  : 				if( bSuccess )

  00265	39 7c 24 18	 cmp	 DWORD PTR _bSuccess$267164[esp+2124], edi
  00269	0f 84 be fe ff
	ff		 je	 $L267181

; 559  : 				{
; 560  : 					pProcessor->SetPartyQuest( nQuest, nState, nState2, n, pUser->GetPartyId(), 0 );

  0026f	8b 83 18 07 00
	00		 mov	 eax, DWORD PTR [ebx+1816]
  00275	8b 8c 24 60 08
	00 00		 mov	 ecx, DWORD PTR _n$[esp+2120]
  0027c	8b 94 24 5c 08
	00 00		 mov	 edx, DWORD PTR _nState2$[esp+2120]
  00283	57		 push	 edi
  00284	50		 push	 eax
  00285	8b 84 24 60 08
	00 00		 mov	 eax, DWORD PTR _nState$[esp+2128]
  0028c	51		 push	 ecx
  0028d	8b 8c 24 60 08
	00 00		 mov	 ecx, DWORD PTR _nQuest$[esp+2132]
  00294	52		 push	 edx
  00295	50		 push	 eax
  00296	51		 push	 ecx
  00297	8b 4c 24 34	 mov	 ecx, DWORD PTR _pProcessor$[esp+2148]
  0029b	e8 00 00 00 00	 call	 ?SetPartyQuest@CPartyQuestProcessor@@QAEXHHHHKK@Z ; CPartyQuestProcessor::SetPartyQuest

; 561  : 					pParty->Replace( pProp->dwWorldId, pProp->szWorldKey );

  002a0	8b 85 64 10 00
	00		 mov	 eax, DWORD PTR [ebp+4196]
  002a6	8d 95 68 10 00
	00		 lea	 edx, DWORD PTR [ebp+4200]
  002ac	52		 push	 edx
  002ad	50		 push	 eax
  002ae	8b ce		 mov	 ecx, esi
  002b0	e8 00 00 00 00	 call	 ?Replace@CParty@@QAEXKPBD@Z ; CParty::Replace

; 562  : 									
; 563  : 					return 1;

  002b5	b8 01 00 00 00	 mov	 eax, 1
  002ba	e9 70 fe ff ff	 jmp	 $L275133
_TEXT	ENDS
;	COMDAT text$x
text$x	SEGMENT
$L274988:
  00000	8d 8d c4 f7 ff
	ff		 lea	 ecx, DWORD PTR _str$267162[ebp]
  00006	e9 00 00 00 00	 jmp	 ??1?$CStringT@DV?$StrTraitMFC@DV?$ChTraitsCRT@D@ATL@@@@@ATL@@QAE@XZ ; ATL::CStringT<char,StrTraitMFC<char,ATL::ChTraitsCRT<char> > >::~CStringT<char,StrTraitMFC<char,ATL::ChTraitsCRT<char> > >
__ehhandler$?MonHuntStartParty@@YGHPAUNPCDIALOG_INFO@@HHHH@Z:
  0000b	b8 00 00 00 00	 mov	 eax, OFFSET FLAT:$T275128
  00010	e9 00 00 00 00	 jmp	 ___CxxFrameHandler
text$x	ENDS
?MonHuntStartParty@@YGHPAUNPCDIALOG_INFO@@HHHH@Z ENDP	; MonHuntStartParty
PUBLIC	??4?$CStringT@DV?$StrTraitMFC@DV?$ChTraitsCRT@D@ATL@@@@@ATL@@QAEAAV01@PBD@Z ; ATL::CStringT<char,StrTraitMFC<char,ATL::ChTraitsCRT<char> > >::operator=
; Function compile flags: /Ogty
; File c:\program files\microsoft visual studio .net 2003\vc7\atlmfc\include\cstringt.h
;	COMDAT ??4?$CStringT@DV?$StrTraitMFC@DV?$ChTraitsCRT@D@ATL@@@@@ATL@@QAEAAV01@PBD@Z
_TEXT	SEGMENT
_pszSrc$ = 8						; size = 4
??4?$CStringT@DV?$StrTraitMFC@DV?$ChTraitsCRT@D@ATL@@@@@ATL@@QAEAAV01@PBD@Z PROC NEAR ; ATL::CStringT<char,StrTraitMFC<char,ATL::ChTraitsCRT<char> > >::operator=, COMDAT
; _this$ = ecx

; 983  : 		CThisSimpleString::operator=( pszSrc );

  00000	8b 54 24 04	 mov	 edx, DWORD PTR _pszSrc$[esp-4]
  00004	85 d2		 test	 edx, edx
  00006	57		 push	 edi
  00007	8b f9		 mov	 edi, ecx
  00009	75 0f		 jne	 SHORT $L275159
  0000b	33 c0		 xor	 eax, eax
  0000d	50		 push	 eax
  0000e	52		 push	 edx
  0000f	e8 00 00 00 00	 call	 ?SetString@?$CSimpleStringT@D$0A@@ATL@@QAEXPBDH@Z ; ATL::CSimpleStringT<char,0>::SetString

; 984  : 
; 985  : 		return( *this );

  00014	8b c7		 mov	 eax, edi
  00016	5f		 pop	 edi

; 986  : 	}

  00017	c2 04 00	 ret	 4

; 983  : 		CThisSimpleString::operator=( pszSrc );

$L275159:
  0001a	8b c2		 mov	 eax, edx
  0001c	56		 push	 esi
  0001d	8d 70 01	 lea	 esi, DWORD PTR [eax+1]
$L275161:
  00020	8a 08		 mov	 cl, BYTE PTR [eax]
  00022	40		 inc	 eax
  00023	84 c9		 test	 cl, cl
  00025	75 f9		 jne	 SHORT $L275161
  00027	2b c6		 sub	 eax, esi
  00029	5e		 pop	 esi
  0002a	50		 push	 eax
  0002b	52		 push	 edx
  0002c	8b cf		 mov	 ecx, edi
  0002e	e8 00 00 00 00	 call	 ?SetString@?$CSimpleStringT@D$0A@@ATL@@QAEXPBDH@Z ; ATL::CSimpleStringT<char,0>::SetString

; 984  : 
; 985  : 		return( *this );

  00033	8b c7		 mov	 eax, edi
  00035	5f		 pop	 edi

; 986  : 	}

  00036	c2 04 00	 ret	 4
??4?$CStringT@DV?$StrTraitMFC@DV?$ChTraitsCRT@D@ATL@@@@@ATL@@QAEAAV01@PBD@Z ENDP ; ATL::CStringT<char,StrTraitMFC<char,ATL::ChTraitsCRT<char> > >::operator=
_TEXT	ENDS
PUBLIC	?AddKey@@YGHPAUNPCDIALOG_INFO@@PBD1K@Z		; AddKey
PUBLIC	??_C@_0BH@FELBGDKJ@key?5error?5AddKey?5?$CFs?5?$CFs?$AA@ ; `string'
EXTRN	?__AddKey@@YAHHPBD0K@Z:NEAR			; __AddKey
;	COMDAT xdata$x
; File c:\program files\microsoft visual studio .net 2003\vc7\atlmfc\include\atlsimpstr.h
xdata$x	SEGMENT
$T275439 DD	0ffffffffH
	DD	FLAT:$L275167
	DD	00H
	DD	FLAT:$L275168
$T275432 DD	019930520H
	DD	02H
	DD	FLAT:$T275439
	DD	2 DUP(00H)
	DD	2 DUP(00H)
xdata$x	ENDS
;	COMDAT ??_C@_0BH@FELBGDKJ@key?5error?5AddKey?5?$CFs?5?$CFs?$AA@
CONST	SEGMENT
??_C@_0BH@FELBGDKJ@key?5error?5AddKey?5?$CFs?5?$CFs?$AA@ DB 'key error Ad'
	DB	'dKey %s %s', 00H				; `string'
; Function compile flags: /Ogty
; File c:\documents and settings\test\mes documents\source\virtuos_v17\build\program\_common\scriptlib.cpp
CONST	ENDS
;	COMDAT ?AddKey@@YGHPAUNPCDIALOG_INFO@@PBD1K@Z
_TEXT	SEGMENT
_strKey$ = -20						; size = 4
_strWord$ = -16						; size = 4
__$EHRec$ = -12						; size = 12
_pInfo$ = 8						; size = 4
_szWord$ = 12						; size = 4
_szKey$ = 16						; size = 4
_dwParam$ = 20						; size = 4
?AddKey@@YGHPAUNPCDIALOG_INFO@@PBD1K@Z PROC NEAR	; AddKey, COMDAT

; 96   : {

  00000	6a ff		 push	 -1
  00002	68 00 00 00 00	 push	 __ehhandler$?AddKey@@YGHPAUNPCDIALOG_INFO@@PBD1K@Z
  00007	64 a1 00 00 00
	00		 mov	 eax, DWORD PTR fs:__except_list
  0000d	50		 push	 eax
  0000e	64 89 25 00 00
	00 00		 mov	 DWORD PTR fs:__except_list, esp
  00015	83 ec 08	 sub	 esp, 8
  00018	56		 push	 esi
  00019	57		 push	 edi

; 97   : 	dwParam = 0;
; 98   : 	CString strWord, strKey;

  0001a	e8 00 00 00 00	 call	 ?AfxGetStringManager@@YGPAUIAtlStringMgr@ATL@@XZ ; AfxGetStringManager
  0001f	8b 10		 mov	 edx, DWORD PTR [eax]
  00021	8b c8		 mov	 ecx, eax
  00023	ff 52 0c	 call	 DWORD PTR [edx+12]
  00026	83 c0 10	 add	 eax, 16			; 00000010H
  00029	89 44 24 0c	 mov	 DWORD PTR _strWord$[esp+28], eax
  0002d	c7 44 24 18 00
	00 00 00	 mov	 DWORD PTR __$EHRec$[esp+36], 0
  00035	e8 00 00 00 00	 call	 ?AfxGetStringManager@@YGPAUIAtlStringMgr@ATL@@XZ ; AfxGetStringManager
  0003a	8b 10		 mov	 edx, DWORD PTR [eax]
  0003c	8b c8		 mov	 ecx, eax
  0003e	ff 52 0c	 call	 DWORD PTR [edx+12]
  00041	83 c0 10	 add	 eax, 16			; 00000010H
  00044	89 44 24 08	 mov	 DWORD PTR _strKey$[esp+28], eax

; 99   : 
; 100  : 	strWord = szWord;

  00048	8b 54 24 24	 mov	 edx, DWORD PTR _szWord$[esp+24]
  0004c	85 d2		 test	 edx, edx
  0004e	c6 44 24 18 01	 mov	 BYTE PTR __$EHRec$[esp+36], 1
  00053	75 04		 jne	 SHORT $L275260
  00055	33 c0		 xor	 eax, eax
  00057	eb 10		 jmp	 SHORT $L275259
$L275260:
  00059	8b c2		 mov	 eax, edx
  0005b	8d 70 01	 lea	 esi, DWORD PTR [eax+1]
  0005e	8b ff		 npad	 2
$L275433:
  00060	8a 08		 mov	 cl, BYTE PTR [eax]
  00062	40		 inc	 eax
  00063	84 c9		 test	 cl, cl
  00065	75 f9		 jne	 SHORT $L275433
  00067	2b c6		 sub	 eax, esi
$L275259:
  00069	50		 push	 eax
  0006a	52		 push	 edx
  0006b	8d 4c 24 14	 lea	 ecx, DWORD PTR _strWord$[esp+36]
  0006f	e8 00 00 00 00	 call	 ?SetString@?$CSimpleStringT@D$0A@@ATL@@QAEXPBDH@Z ; ATL::CSimpleStringT<char,0>::SetString

; 101  : 	strKey = szKey;

  00074	8b 54 24 28	 mov	 edx, DWORD PTR _szKey$[esp+24]
  00078	85 d2		 test	 edx, edx
  0007a	75 04		 jne	 SHORT $L275290
  0007c	33 c0		 xor	 eax, eax
  0007e	eb 0e		 jmp	 SHORT $L275289
$L275290:
  00080	8b c2		 mov	 eax, edx
  00082	8d 70 01	 lea	 esi, DWORD PTR [eax+1]
$L275434:
  00085	8a 08		 mov	 cl, BYTE PTR [eax]
  00087	40		 inc	 eax
  00088	84 c9		 test	 cl, cl
  0008a	75 f9		 jne	 SHORT $L275434
  0008c	2b c6		 sub	 eax, esi
$L275289:
  0008e	50		 push	 eax
  0008f	52		 push	 edx
  00090	8d 4c 24 10	 lea	 ecx, DWORD PTR _strKey$[esp+36]
  00094	e8 00 00 00 00	 call	 ?SetString@?$CSimpleStringT@D$0A@@ATL@@QAEXPBDH@Z ; ATL::CSimpleStringT<char,0>::SetString

; 102  : 
; 103  : 	if( strKey.IsEmpty() )	

  00099	8b 74 24 08	 mov	 esi, DWORD PTR _strKey$[esp+28]
  0009d	8b 46 f4	 mov	 eax, DWORD PTR [esi-12]
  000a0	85 c0		 test	 eax, eax
  000a2	75 12		 jne	 SHORT $L275308

; 104  : 		strKey = strWord;

  000a4	8d 44 24 0c	 lea	 eax, DWORD PTR _strWord$[esp+28]
  000a8	50		 push	 eax
  000a9	8d 4c 24 0c	 lea	 ecx, DWORD PTR _strKey$[esp+32]
  000ad	e8 00 00 00 00	 call	 ??4?$CSimpleStringT@D$0A@@ATL@@QAEAAV01@ABV01@@Z ; ATL::CSimpleStringT<char,0>::operator=
  000b2	8b 74 24 08	 mov	 esi, DWORD PTR _strKey$[esp+28]
$L275308:

; 105  : 
; 106  : 	if( HasKey( pInfo, strKey ) == FALSE ) 

  000b6	8b 7c 24 20	 mov	 edi, DWORD PTR _pInfo$[esp+24]
  000ba	8b 17		 mov	 edx, DWORD PTR [edi]
  000bc	56		 push	 esi
  000bd	8b cf		 mov	 ecx, edi
  000bf	ff 52 20	 call	 DWORD PTR [edx+32]
  000c2	50		 push	 eax
  000c3	e8 00 00 00 00	 call	 ?GetInstance@CWorldDialog@@SAAAV1@XZ ; CWorldDialog::GetInstance
  000c8	8b c8		 mov	 ecx, eax
  000ca	e8 00 00 00 00	 call	 ?Find@CWorldDialog@@QAEHPBD0@Z ; CWorldDialog::Find
  000cf	85 c0		 test	 eax, eax

; 107  : 	{
; 108  : 		Error( "key error AddKey %s %s", pInfo->GetName(), strKey );

  000d1	8b 07		 mov	 eax, DWORD PTR [edi]
  000d3	8b cf		 mov	 ecx, edi
  000d5	75 4d		 jne	 SHORT $L266888
  000d7	56		 push	 esi
  000d8	ff 50 20	 call	 DWORD PTR [eax+32]
  000db	50		 push	 eax
  000dc	68 00 00 00 00	 push	 OFFSET FLAT:??_C@_0BH@FELBGDKJ@key?5error?5AddKey?5?$CFs?5?$CFs?$AA@
  000e1	e8 00 00 00 00	 call	 ?Error@@YAPBDPBDZZ	; Error

; 109  : 		return 1;

  000e6	8d 46 f0	 lea	 eax, DWORD PTR [esi-16]
  000e9	83 c4 0c	 add	 esp, 12			; 0000000cH
  000ec	c6 44 24 18 00	 mov	 BYTE PTR __$EHRec$[esp+36], 0
  000f1	8d 48 0c	 lea	 ecx, DWORD PTR [eax+12]
  000f4	83 ca ff	 or	 edx, -1
  000f7	f0 0f c1 11	 lock	  xadd	 DWORD PTR [ecx], edx
  000fb	4a		 dec	 edx
  000fc	85 d2		 test	 edx, edx
  000fe	7f 08		 jg	 SHORT $L275343
  00100	8b 08		 mov	 ecx, DWORD PTR [eax]
  00102	8b 11		 mov	 edx, DWORD PTR [ecx]
  00104	50		 push	 eax
  00105	ff 52 04	 call	 DWORD PTR [edx+4]
$L275343:
  00108	8b 44 24 0c	 mov	 eax, DWORD PTR _strWord$[esp+28]
  0010c	83 c0 f0	 add	 eax, -16		; fffffff0H
  0010f	c7 44 24 18 ff
	ff ff ff	 mov	 DWORD PTR __$EHRec$[esp+36], -1
  00117	8d 48 0c	 lea	 ecx, DWORD PTR [eax+12]
  0011a	83 ca ff	 or	 edx, -1
  0011d	f0 0f c1 11	 lock	  xadd	 DWORD PTR [ecx], edx
  00121	4a		 dec	 edx
  00122	eb 4b		 jmp	 SHORT $L275438
$L266888:
  00124	55		 push	 ebp

; 110  : 	}
; 111  : 	__AddKey( pInfo->GetPcId(), strWord, strKey, dwParam );

  00125	8b 6c 24 10	 mov	 ebp, DWORD PTR _strWord$[esp+32]
  00129	6a 00		 push	 0
  0012b	56		 push	 esi
  0012c	55		 push	 ebp
  0012d	ff 50 18	 call	 DWORD PTR [eax+24]
  00130	50		 push	 eax
  00131	e8 00 00 00 00	 call	 ?__AddKey@@YAHHPBD0K@Z	; __AddKey

; 112  : 	return 1;

  00136	8d 46 f0	 lea	 eax, DWORD PTR [esi-16]
  00139	83 c4 10	 add	 esp, 16			; 00000010H
  0013c	c6 44 24 1c 00	 mov	 BYTE PTR __$EHRec$[esp+40], 0
  00141	8d 48 0c	 lea	 ecx, DWORD PTR [eax+12]
  00144	83 ca ff	 or	 edx, -1
  00147	f0 0f c1 11	 lock	  xadd	 DWORD PTR [ecx], edx
  0014b	4a		 dec	 edx
  0014c	85 d2		 test	 edx, edx
  0014e	7f 08		 jg	 SHORT $L275403
  00150	8b 08		 mov	 ecx, DWORD PTR [eax]
  00152	8b 11		 mov	 edx, DWORD PTR [ecx]
  00154	50		 push	 eax
  00155	ff 52 04	 call	 DWORD PTR [edx+4]
$L275403:
  00158	8d 45 f0	 lea	 eax, DWORD PTR [ebp-16]
  0015b	c7 44 24 1c ff
	ff ff ff	 mov	 DWORD PTR __$EHRec$[esp+40], -1
  00163	8d 48 0c	 lea	 ecx, DWORD PTR [eax+12]
  00166	83 ca ff	 or	 edx, -1
  00169	f0 0f c1 11	 lock	  xadd	 DWORD PTR [ecx], edx
  0016d	4a		 dec	 edx
  0016e	5d		 pop	 ebp
$L275438:
  0016f	85 d2		 test	 edx, edx
  00171	7f 08		 jg	 SHORT $L275429
  00173	8b 08		 mov	 ecx, DWORD PTR [eax]
  00175	8b 11		 mov	 edx, DWORD PTR [ecx]
  00177	50		 push	 eax
  00178	ff 52 04	 call	 DWORD PTR [edx+4]
$L275429:

; 113  : }

  0017b	8b 4c 24 10	 mov	 ecx, DWORD PTR __$EHRec$[esp+28]
  0017f	5f		 pop	 edi
  00180	b8 01 00 00 00	 mov	 eax, 1
  00185	5e		 pop	 esi
  00186	64 89 0d 00 00
	00 00		 mov	 DWORD PTR fs:__except_list, ecx
  0018d	83 c4 14	 add	 esp, 20			; 00000014H
  00190	c2 10 00	 ret	 16			; 00000010H
_TEXT	ENDS
;	COMDAT text$x
text$x	SEGMENT
$L275167:
  00000	8d 4d f0	 lea	 ecx, DWORD PTR _strWord$[ebp]
  00003	e9 00 00 00 00	 jmp	 ??1?$CStringT@DV?$StrTraitMFC@DV?$ChTraitsCRT@D@ATL@@@@@ATL@@QAE@XZ ; ATL::CStringT<char,StrTraitMFC<char,ATL::ChTraitsCRT<char> > >::~CStringT<char,StrTraitMFC<char,ATL::ChTraitsCRT<char> > >
$L275168:
  00008	8d 4d ec	 lea	 ecx, DWORD PTR _strKey$[ebp]
  0000b	e9 00 00 00 00	 jmp	 ??1?$CStringT@DV?$StrTraitMFC@DV?$ChTraitsCRT@D@ATL@@@@@ATL@@QAE@XZ ; ATL::CStringT<char,StrTraitMFC<char,ATL::ChTraitsCRT<char> > >::~CStringT<char,StrTraitMFC<char,ATL::ChTraitsCRT<char> > >
__ehhandler$?AddKey@@YGHPAUNPCDIALOG_INFO@@PBD1K@Z:
  00010	b8 00 00 00 00	 mov	 eax, OFFSET FLAT:$T275432
  00015	e9 00 00 00 00	 jmp	 ___CxxFrameHandler
text$x	ENDS
?AddKey@@YGHPAUNPCDIALOG_INFO@@PBD1K@Z ENDP		; AddKey
PUBLIC	?AddCondKey@@YGHPAUNPCDIALOG_INFO@@PBD1K@Z	; AddCondKey
PUBLIC	??_C@_0BA@MDIEKFBJ@key?5error?5?$CFs?5?$CFs?$AA@ ; `string'
;	COMDAT xdata$x
; File c:\program files\microsoft visual studio .net 2003\vc7\atlmfc\include\atlsimpstr.h
xdata$x	SEGMENT
$T275803 DD	0ffffffffH
	DD	FLAT:$L275448
	DD	00H
	DD	FLAT:$L275449
$T275782 DD	019930520H
	DD	02H
	DD	FLAT:$T275803
	DD	2 DUP(00H)
	DD	2 DUP(00H)
xdata$x	ENDS
;	COMDAT ??_C@_0BA@MDIEKFBJ@key?5error?5?$CFs?5?$CFs?$AA@
CONST	SEGMENT
??_C@_0BA@MDIEKFBJ@key?5error?5?$CFs?5?$CFs?$AA@ DB 'key error %s %s', 00H ; `string'
; Function compile flags: /Ogty
; File c:\documents and settings\test\mes documents\source\virtuos_v17\build\program\_common\scriptlib.cpp
CONST	ENDS
;	COMDAT ?AddCondKey@@YGHPAUNPCDIALOG_INFO@@PBD1K@Z
_TEXT	SEGMENT
_strKey$ = -24						; size = 4
_strWord$ = -20						; size = 4
tv405 = -16						; size = 4
__$EHRec$ = -12						; size = 12
_pMover$ = 8						; size = 4
_pInfo$ = 8						; size = 4
_i$266906 = 12						; size = 4
_szWord$ = 12						; size = 4
tv547 = 16						; size = 4
_szKey$ = 16						; size = 4
_dwParam$ = 20						; size = 4
?AddCondKey@@YGHPAUNPCDIALOG_INFO@@PBD1K@Z PROC NEAR	; AddCondKey, COMDAT

; 116  : {

  00000	6a ff		 push	 -1
  00002	68 00 00 00 00	 push	 __ehhandler$?AddCondKey@@YGHPAUNPCDIALOG_INFO@@PBD1K@Z
  00007	64 a1 00 00 00
	00		 mov	 eax, DWORD PTR fs:__except_list
  0000d	50		 push	 eax
  0000e	64 89 25 00 00
	00 00		 mov	 DWORD PTR fs:__except_list, esp
  00015	83 ec 0c	 sub	 esp, 12			; 0000000cH
  00018	53		 push	 ebx
  00019	55		 push	 ebp
  0001a	56		 push	 esi
  0001b	57		 push	 edi

; 117  : 	dwParam = 0;
; 118  : 	CString strWord, strKey;

  0001c	e8 00 00 00 00	 call	 ?AfxGetStringManager@@YGPAUIAtlStringMgr@ATL@@XZ ; AfxGetStringManager
  00021	8b 10		 mov	 edx, DWORD PTR [eax]
  00023	8b c8		 mov	 ecx, eax
  00025	ff 52 0c	 call	 DWORD PTR [edx+12]
  00028	83 c0 10	 add	 eax, 16			; 00000010H
  0002b	89 44 24 14	 mov	 DWORD PTR _strWord$[esp+40], eax
  0002f	33 db		 xor	 ebx, ebx
  00031	89 5c 24 24	 mov	 DWORD PTR __$EHRec$[esp+48], ebx
  00035	e8 00 00 00 00	 call	 ?AfxGetStringManager@@YGPAUIAtlStringMgr@ATL@@XZ ; AfxGetStringManager
  0003a	8b 10		 mov	 edx, DWORD PTR [eax]
  0003c	8b c8		 mov	 ecx, eax
  0003e	ff 52 0c	 call	 DWORD PTR [edx+12]
  00041	83 c0 10	 add	 eax, 16			; 00000010H
  00044	89 44 24 10	 mov	 DWORD PTR _strKey$[esp+40], eax

; 119  : 
; 120  : 	strWord = szWord;

  00048	8b 54 24 30	 mov	 edx, DWORD PTR _szWord$[esp+36]
  0004c	3b d3		 cmp	 edx, ebx
  0004e	c6 44 24 24 01	 mov	 BYTE PTR __$EHRec$[esp+48], 1
  00053	75 04		 jne	 SHORT $L275539
  00055	33 c0		 xor	 eax, eax
  00057	eb 10		 jmp	 SHORT $L275538
$L275539:
  00059	8b c2		 mov	 eax, edx
  0005b	8d 70 01	 lea	 esi, DWORD PTR [eax+1]
  0005e	8b ff		 npad	 2
$L275786:
  00060	8a 08		 mov	 cl, BYTE PTR [eax]
  00062	40		 inc	 eax
  00063	3a cb		 cmp	 cl, bl
  00065	75 f9		 jne	 SHORT $L275786
  00067	2b c6		 sub	 eax, esi
$L275538:
  00069	50		 push	 eax
  0006a	52		 push	 edx
  0006b	8d 4c 24 1c	 lea	 ecx, DWORD PTR _strWord$[esp+48]
  0006f	e8 00 00 00 00	 call	 ?SetString@?$CSimpleStringT@D$0A@@ATL@@QAEXPBDH@Z ; ATL::CSimpleStringT<char,0>::SetString

; 121  : 	strKey = szKey;

  00074	8b 54 24 34	 mov	 edx, DWORD PTR _szKey$[esp+36]
  00078	3b d3		 cmp	 edx, ebx
  0007a	75 04		 jne	 SHORT $L275568
  0007c	33 c0		 xor	 eax, eax
  0007e	eb 0e		 jmp	 SHORT $L275567
$L275568:
  00080	8b c2		 mov	 eax, edx
  00082	8d 70 01	 lea	 esi, DWORD PTR [eax+1]
$L275787:
  00085	8a 08		 mov	 cl, BYTE PTR [eax]
  00087	40		 inc	 eax
  00088	3a cb		 cmp	 cl, bl
  0008a	75 f9		 jne	 SHORT $L275787
  0008c	2b c6		 sub	 eax, esi
$L275567:
  0008e	50		 push	 eax
  0008f	52		 push	 edx
  00090	8d 4c 24 18	 lea	 ecx, DWORD PTR _strKey$[esp+48]
  00094	e8 00 00 00 00	 call	 ?SetString@?$CSimpleStringT@D$0A@@ATL@@QAEXPBDH@Z ; ATL::CSimpleStringT<char,0>::SetString

; 122  : 
; 123  : 	if( strKey.IsEmpty() )	

  00099	8b 44 24 10	 mov	 eax, DWORD PTR _strKey$[esp+40]
  0009d	39 58 f4	 cmp	 DWORD PTR [eax-12], ebx
  000a0	75 0e		 jne	 SHORT $L275590

; 124  : 		strKey = strWord;

  000a2	8d 4c 24 14	 lea	 ecx, DWORD PTR _strWord$[esp+40]
  000a6	51		 push	 ecx
  000a7	8d 4c 24 14	 lea	 ecx, DWORD PTR _strKey$[esp+44]
  000ab	e8 00 00 00 00	 call	 ??4?$CSimpleStringT@D$0A@@ATL@@QAEAAV01@ABV01@@Z ; ATL::CSimpleStringT<char,0>::operator=
$L275590:

; 125  : 
; 126  : 	if( HasKey( pInfo, strKey ) == FALSE ) 

  000b0	8b 6c 24 2c	 mov	 ebp, DWORD PTR _pInfo$[esp+36]
  000b4	8b 7c 24 10	 mov	 edi, DWORD PTR _strKey$[esp+40]
  000b8	8b 55 00	 mov	 edx, DWORD PTR [ebp]
  000bb	57		 push	 edi
  000bc	8b cd		 mov	 ecx, ebp
  000be	ff 52 20	 call	 DWORD PTR [edx+32]
  000c1	50		 push	 eax
  000c2	e8 00 00 00 00	 call	 ?GetInstance@CWorldDialog@@SAAAV1@XZ ; CWorldDialog::GetInstance
  000c7	8b c8		 mov	 ecx, eax
  000c9	e8 00 00 00 00	 call	 ?Find@CWorldDialog@@QAEHPBD0@Z ; CWorldDialog::Find
  000ce	85 c0		 test	 eax, eax

; 127  : 	{
; 128  : 		Error( "key error %s %s", pInfo->GetName(), strKey );

  000d0	8b 45 00	 mov	 eax, DWORD PTR [ebp]
  000d3	8b cd		 mov	 ecx, ebp
  000d5	75 3c		 jne	 SHORT $L266901
  000d7	57		 push	 edi
  000d8	ff 50 20	 call	 DWORD PTR [eax+32]
  000db	50		 push	 eax
  000dc	68 00 00 00 00	 push	 OFFSET FLAT:??_C@_0BA@MDIEKFBJ@key?5error?5?$CFs?5?$CFs?$AA@
  000e1	e8 00 00 00 00	 call	 ?Error@@YAPBDPBDZZ	; Error

; 129  : 		return 1;

  000e6	8d 47 f0	 lea	 eax, DWORD PTR [edi-16]
  000e9	83 c4 0c	 add	 esp, 12			; 0000000cH
  000ec	88 5c 24 24	 mov	 BYTE PTR __$EHRec$[esp+48], bl
  000f0	8d 48 0c	 lea	 ecx, DWORD PTR [eax+12]
  000f3	83 ca ff	 or	 edx, -1
  000f6	f0 0f c1 11	 lock	  xadd	 DWORD PTR [ecx], edx
  000fa	4a		 dec	 edx
  000fb	85 d2		 test	 edx, edx
  000fd	7f 08		 jg	 SHORT $L275621
  000ff	8b 08		 mov	 ecx, DWORD PTR [eax]
  00101	8b 11		 mov	 edx, DWORD PTR [ecx]
  00103	50		 push	 eax
  00104	ff 52 04	 call	 DWORD PTR [edx+4]
$L275621:
  00107	8b 44 24 14	 mov	 eax, DWORD PTR _strWord$[esp+40]
  0010b	83 c0 f0	 add	 eax, -16		; fffffff0H
  0010e	e9 9d 01 00 00	 jmp	 $L275802
$L266901:

; 130  : 	}
; 131  : 	CUser* pUser = prj.GetUser( pInfo->GetPcId() );

  00113	ff 50 18	 call	 DWORD PTR [eax+24]
  00116	50		 push	 eax
  00117	b9 00 00 00 00	 mov	 ecx, OFFSET FLAT:?prj@@3VCProject@@A
  0011c	e8 00 00 00 00	 call	 ?GetUser@CProject@@QAEPAVCUser@@K@Z ; CProject::GetUser

; 132  : 	CMover* pMover = prj.GetMover( pInfo->GetNpcId() );

  00121	8b 55 00	 mov	 edx, DWORD PTR [ebp]
  00124	8b cd		 mov	 ecx, ebp
  00126	8b f0		 mov	 esi, eax
  00128	ff 52 14	 call	 DWORD PTR [edx+20]
  0012b	50		 push	 eax
  0012c	b9 00 00 00 00	 mov	 ecx, OFFSET FLAT:?prj@@3VCProject@@A
  00131	e8 00 00 00 00	 call	 ?GetMover@CProject@@QAEPAVCMover@@K@Z ; CProject::GetMover
  00136	89 44 24 2c	 mov	 DWORD PTR _pMover$[esp+36], eax

; 133  : 
; 134  : 	for( int i = 0; i < pUser->m_nQuestSize; i++ )

  0013a	0f b6 86 7e 0e
	00 00		 movzx	 eax, BYTE PTR [esi+3710]
  00141	3b c3		 cmp	 eax, ebx
  00143	89 5c 24 30	 mov	 DWORD PTR _i$266906[esp+36], ebx
  00147	89 44 24 18	 mov	 DWORD PTR tv405[esp+40], eax
  0014b	0f 8e c7 00 00
	00		 jle	 $L266909
  00151	8b b6 80 0e 00
	00		 mov	 esi, DWORD PTR [esi+3712]
  00157	83 c6 04	 add	 esi, 4
  0015a	89 74 24 34	 mov	 DWORD PTR tv547[esp+36], esi
  0015e	8b ff		 npad	 2
$L275799:

; 135  : 	{
; 136  : 		QuestProp* pQuestProp = pUser->m_aQuest[ i ].GetProp();

  00160	0f b7 0e	 movzx	 ecx, WORD PTR [esi]
  00163	3b 0d 10 03 00
	00		 cmp	 ecx, DWORD PTR ?prj@@3VCProject@@A+784
  00169	0f 83 85 00 00
	00		 jae	 $L266908
  0016f	a1 00 03 00 00	 mov	 eax, DWORD PTR ?prj@@3VCProject@@A+768
  00174	8b 3c 88	 mov	 edi, DWORD PTR [eax+ecx*4]

; 137  : 		if( pQuestProp )

  00177	3b fb		 cmp	 edi, ebx
  00179	74 79		 je	 SHORT $L266908

; 138  : 		{
; 139  : 			if( strcmp( pQuestProp->m_szEndCondDlgCharKey, pMover->m_szCharacterKey ) == 0 )

  0017b	8b 74 24 2c	 mov	 esi, DWORD PTR _pMover$[esp+36]
  0017f	81 c6 4c 06 00
	00		 add	 esi, 1612		; 0000064cH
  00185	8d 8f 2a 02 00
	00		 lea	 ecx, DWORD PTR [edi+554]
  0018b	eb 03 8d 49 00	 npad	 5
$L275788:
  00190	8a 01		 mov	 al, BYTE PTR [ecx]
  00192	8a d0		 mov	 dl, al
  00194	3a 06		 cmp	 al, BYTE PTR [esi]
  00196	75 1c		 jne	 SHORT $L275789
  00198	3a d3		 cmp	 dl, bl
  0019a	74 14		 je	 SHORT $L275790
  0019c	8a 41 01	 mov	 al, BYTE PTR [ecx+1]
  0019f	8a d0		 mov	 dl, al
  001a1	3a 46 01	 cmp	 al, BYTE PTR [esi+1]
  001a4	75 0e		 jne	 SHORT $L275789
  001a6	83 c1 02	 add	 ecx, 2
  001a9	83 c6 02	 add	 esi, 2
  001ac	3a d3		 cmp	 dl, bl
  001ae	75 e0		 jne	 SHORT $L275788
$L275790:
  001b0	33 c9		 xor	 ecx, ecx
  001b2	eb 05		 jmp	 SHORT $L275791
$L275789:
  001b4	1b c9		 sbb	 ecx, ecx
  001b6	83 d9 ff	 sbb	 ecx, -1
$L275791:
  001b9	3b cb		 cmp	 ecx, ebx
  001bb	75 37		 jne	 SHORT $L266908

; 140  : 			{
; 141  : 				if( strcmp( pQuestProp->m_szEndCondDlgAddKey, strKey ) == 0 )

  001bd	8b 74 24 10	 mov	 esi, DWORD PTR _strKey$[esp+40]
  001c1	8d 8f 7c 02 00
	00		 lea	 ecx, DWORD PTR [edi+636]
$L275792:
  001c7	8a 01		 mov	 al, BYTE PTR [ecx]
  001c9	8a d0		 mov	 dl, al
  001cb	3a 06		 cmp	 al, BYTE PTR [esi]
  001cd	75 1c		 jne	 SHORT $L275793
  001cf	3a d3		 cmp	 dl, bl
  001d1	74 14		 je	 SHORT $L275794
  001d3	8a 41 01	 mov	 al, BYTE PTR [ecx+1]
  001d6	8a d0		 mov	 dl, al
  001d8	3a 46 01	 cmp	 al, BYTE PTR [esi+1]
  001db	75 0e		 jne	 SHORT $L275793
  001dd	83 c1 02	 add	 ecx, 2
  001e0	83 c6 02	 add	 esi, 2
  001e3	3a d3		 cmp	 dl, bl
  001e5	75 e0		 jne	 SHORT $L275792
$L275794:
  001e7	33 c9		 xor	 ecx, ecx
  001e9	eb 05		 jmp	 SHORT $L275795
$L275793:
  001eb	1b c9		 sbb	 ecx, ecx
  001ed	83 d9 ff	 sbb	 ecx, -1
$L275795:
  001f0	3b cb		 cmp	 ecx, ebx
  001f2	74 7f		 je	 SHORT $L275784
$L266908:

; 133  : 
; 134  : 	for( int i = 0; i < pUser->m_nQuestSize; i++ )

  001f4	8b 44 24 30	 mov	 eax, DWORD PTR _i$266906[esp+36]
  001f8	8b 74 24 34	 mov	 esi, DWORD PTR tv547[esp+36]
  001fc	8b 4c 24 18	 mov	 ecx, DWORD PTR tv405[esp+40]
  00200	40		 inc	 eax
  00201	83 c6 0e	 add	 esi, 14			; 0000000eH
  00204	3b c1		 cmp	 eax, ecx
  00206	89 44 24 30	 mov	 DWORD PTR _i$266906[esp+36], eax
  0020a	89 74 24 34	 mov	 DWORD PTR tv547[esp+36], esi
  0020e	0f 8c 4c ff ff
	ff		 jl	 $L275799

; 140  : 			{
; 141  : 				if( strcmp( pQuestProp->m_szEndCondDlgAddKey, strKey ) == 0 )

  00214	8b 7c 24 10	 mov	 edi, DWORD PTR _strKey$[esp+40]
$L266909:

; 145  : 				}
; 146  : 			}
; 147  : 		}
; 148  : 	}
; 149  : 	return 0;

  00218	8d 47 f0	 lea	 eax, DWORD PTR [edi-16]
  0021b	88 5c 24 24	 mov	 BYTE PTR __$EHRec$[esp+48], bl
  0021f	8d 48 0c	 lea	 ecx, DWORD PTR [eax+12]
  00222	83 ca ff	 or	 edx, -1
  00225	f0 0f c1 11	 lock	  xadd	 DWORD PTR [ecx], edx
  00229	4a		 dec	 edx
  0022a	85 d2		 test	 edx, edx
  0022c	7f 08		 jg	 SHORT $L275750
  0022e	8b 08		 mov	 ecx, DWORD PTR [eax]
  00230	8b 11		 mov	 edx, DWORD PTR [ecx]
  00232	50		 push	 eax
  00233	ff 52 04	 call	 DWORD PTR [edx+4]
$L275750:
  00236	8b 44 24 14	 mov	 eax, DWORD PTR _strWord$[esp+40]
  0023a	83 c0 f0	 add	 eax, -16		; fffffff0H
  0023d	c7 44 24 24 ff
	ff ff ff	 mov	 DWORD PTR __$EHRec$[esp+48], -1
  00245	8d 48 0c	 lea	 ecx, DWORD PTR [eax+12]
  00248	83 ca ff	 or	 edx, -1
  0024b	f0 0f c1 11	 lock	  xadd	 DWORD PTR [ecx], edx
  0024f	4a		 dec	 edx
  00250	85 d2		 test	 edx, edx
  00252	7f 08		 jg	 SHORT $L275777
  00254	8b 08		 mov	 ecx, DWORD PTR [eax]
  00256	8b 11		 mov	 edx, DWORD PTR [ecx]
  00258	50		 push	 eax
  00259	ff 52 04	 call	 DWORD PTR [edx+4]
$L275777:
  0025c	5f		 pop	 edi
  0025d	5e		 pop	 esi
  0025e	5d		 pop	 ebp
  0025f	33 c0		 xor	 eax, eax
  00261	5b		 pop	 ebx

; 150  : }

  00262	8b 4c 24 0c	 mov	 ecx, DWORD PTR __$EHRec$[esp+24]
  00266	64 89 0d 00 00
	00 00		 mov	 DWORD PTR fs:__except_list, ecx
  0026d	83 c4 18	 add	 esp, 24			; 00000018H
  00270	c2 10 00	 ret	 16			; 00000010H
$L275784:

; 142  : 				{
; 143  : 					__AddKey( pInfo->GetPcId(), strWord, strKey, dwParam );

  00273	8b 7c 24 10	 mov	 edi, DWORD PTR _strKey$[esp+40]
  00277	8b 74 24 14	 mov	 esi, DWORD PTR _strWord$[esp+40]
  0027b	8b 55 00	 mov	 edx, DWORD PTR [ebp]
  0027e	53		 push	 ebx
  0027f	57		 push	 edi
  00280	56		 push	 esi
  00281	8b cd		 mov	 ecx, ebp
  00283	ff 52 18	 call	 DWORD PTR [edx+24]
  00286	50		 push	 eax
  00287	e8 00 00 00 00	 call	 ?__AddKey@@YAHHPBD0K@Z	; __AddKey

; 144  : 					return 1;

  0028c	8d 47 f0	 lea	 eax, DWORD PTR [edi-16]
  0028f	83 c4 10	 add	 esp, 16			; 00000010H
  00292	88 5c 24 24	 mov	 BYTE PTR __$EHRec$[esp+48], bl
  00296	8d 48 0c	 lea	 ecx, DWORD PTR [eax+12]
  00299	83 ca ff	 or	 edx, -1
  0029c	f0 0f c1 11	 lock	  xadd	 DWORD PTR [ecx], edx
  002a0	4a		 dec	 edx
  002a1	85 d2		 test	 edx, edx
  002a3	7f 08		 jg	 SHORT $L275696
  002a5	8b 08		 mov	 ecx, DWORD PTR [eax]
  002a7	8b 11		 mov	 edx, DWORD PTR [ecx]
  002a9	50		 push	 eax
  002aa	ff 52 04	 call	 DWORD PTR [edx+4]
$L275696:
  002ad	8d 46 f0	 lea	 eax, DWORD PTR [esi-16]
$L275802:
  002b0	c7 44 24 24 ff
	ff ff ff	 mov	 DWORD PTR __$EHRec$[esp+48], -1
  002b8	8d 48 0c	 lea	 ecx, DWORD PTR [eax+12]
  002bb	83 ca ff	 or	 edx, -1
  002be	f0 0f c1 11	 lock	  xadd	 DWORD PTR [ecx], edx
  002c2	4a		 dec	 edx
  002c3	85 d2		 test	 edx, edx
  002c5	7f 08		 jg	 SHORT $L275723
  002c7	8b 08		 mov	 ecx, DWORD PTR [eax]
  002c9	8b 11		 mov	 edx, DWORD PTR [ecx]
  002cb	50		 push	 eax
  002cc	ff 52 04	 call	 DWORD PTR [edx+4]
$L275723:

; 150  : }

  002cf	8b 4c 24 1c	 mov	 ecx, DWORD PTR __$EHRec$[esp+40]
  002d3	5f		 pop	 edi
  002d4	5e		 pop	 esi
  002d5	5d		 pop	 ebp
  002d6	b8 01 00 00 00	 mov	 eax, 1
  002db	5b		 pop	 ebx
  002dc	64 89 0d 00 00
	00 00		 mov	 DWORD PTR fs:__except_list, ecx
  002e3	83 c4 18	 add	 esp, 24			; 00000018H
  002e6	c2 10 00	 ret	 16			; 00000010H
_TEXT	ENDS
;	COMDAT text$x
text$x	SEGMENT
$L275448:
  00000	8d 4d ec	 lea	 ecx, DWORD PTR _strWord$[ebp]
  00003	e9 00 00 00 00	 jmp	 ??1?$CStringT@DV?$StrTraitMFC@DV?$ChTraitsCRT@D@ATL@@@@@ATL@@QAE@XZ ; ATL::CStringT<char,StrTraitMFC<char,ATL::ChTraitsCRT<char> > >::~CStringT<char,StrTraitMFC<char,ATL::ChTraitsCRT<char> > >
$L275449:
  00008	8d 4d e8	 lea	 ecx, DWORD PTR _strKey$[ebp]
  0000b	e9 00 00 00 00	 jmp	 ??1?$CStringT@DV?$StrTraitMFC@DV?$ChTraitsCRT@D@ATL@@@@@ATL@@QAE@XZ ; ATL::CStringT<char,StrTraitMFC<char,ATL::ChTraitsCRT<char> > >::~CStringT<char,StrTraitMFC<char,ATL::ChTraitsCRT<char> > >
__ehhandler$?AddCondKey@@YGHPAUNPCDIALOG_INFO@@PBD1K@Z:
  00010	b8 00 00 00 00	 mov	 eax, OFFSET FLAT:$T275782
  00015	e9 00 00 00 00	 jmp	 ___CxxFrameHandler
text$x	ENDS
?AddCondKey@@YGHPAUNPCDIALOG_INFO@@PBD1K@Z ENDP		; AddCondKey
PUBLIC	?AddAnswer@@YGHPAUNPCDIALOG_INFO@@PBD1K@Z	; AddAnswer
PUBLIC	??_C@_0BK@FOCLNIMB@key?5error?5AddAnswer?5?$CFs?5?$CFs?$AA@ ; `string'
EXTRN	?__AddAnswer@@YAHHPBD0KH@Z:NEAR			; __AddAnswer
;	COMDAT xdata$x
; File c:\program files\microsoft visual studio .net 2003\vc7\atlmfc\include\atlsimpstr.h
xdata$x	SEGMENT
$T276080 DD	0ffffffffH
	DD	FLAT:$L275811
	DD	00H
	DD	FLAT:$L275812
$T276076 DD	019930520H
	DD	02H
	DD	FLAT:$T276080
	DD	2 DUP(00H)
	DD	2 DUP(00H)
xdata$x	ENDS
;	COMDAT ??_C@_0BK@FOCLNIMB@key?5error?5AddAnswer?5?$CFs?5?$CFs?$AA@
CONST	SEGMENT
??_C@_0BK@FOCLNIMB@key?5error?5AddAnswer?5?$CFs?5?$CFs?$AA@ DB 'key error'
	DB	' AddAnswer %s %s', 00H			; `string'
; Function compile flags: /Ogty
; File c:\documents and settings\test\mes documents\source\virtuos_v17\build\program\_common\scriptlib.cpp
CONST	ENDS
;	COMDAT ?AddAnswer@@YGHPAUNPCDIALOG_INFO@@PBD1K@Z
_TEXT	SEGMENT
_strKey$ = -20						; size = 4
_strWord$ = -16						; size = 4
__$EHRec$ = -12						; size = 12
_pInfo$ = 8						; size = 4
_szWord$ = 12						; size = 4
_szKey$ = 16						; size = 4
_dwParam$ = 20						; size = 4
?AddAnswer@@YGHPAUNPCDIALOG_INFO@@PBD1K@Z PROC NEAR	; AddAnswer, COMDAT

; 153  : {

  00000	6a ff		 push	 -1
  00002	68 00 00 00 00	 push	 __ehhandler$?AddAnswer@@YGHPAUNPCDIALOG_INFO@@PBD1K@Z
  00007	64 a1 00 00 00
	00		 mov	 eax, DWORD PTR fs:__except_list
  0000d	50		 push	 eax
  0000e	64 89 25 00 00
	00 00		 mov	 DWORD PTR fs:__except_list, esp
  00015	83 ec 08	 sub	 esp, 8
  00018	56		 push	 esi
  00019	57		 push	 edi

; 154  : 	DWORD nParam1, nParam2;
; 155  : 	CString strWord, strKey;

  0001a	e8 00 00 00 00	 call	 ?AfxGetStringManager@@YGPAUIAtlStringMgr@ATL@@XZ ; AfxGetStringManager
  0001f	8b 10		 mov	 edx, DWORD PTR [eax]
  00021	8b c8		 mov	 ecx, eax
  00023	ff 52 0c	 call	 DWORD PTR [edx+12]
  00026	83 c0 10	 add	 eax, 16			; 00000010H
  00029	89 44 24 0c	 mov	 DWORD PTR _strWord$[esp+28], eax
  0002d	c7 44 24 18 00
	00 00 00	 mov	 DWORD PTR __$EHRec$[esp+36], 0
  00035	e8 00 00 00 00	 call	 ?AfxGetStringManager@@YGPAUIAtlStringMgr@ATL@@XZ ; AfxGetStringManager
  0003a	8b 10		 mov	 edx, DWORD PTR [eax]
  0003c	8b c8		 mov	 ecx, eax
  0003e	ff 52 0c	 call	 DWORD PTR [edx+12]
  00041	83 c0 10	 add	 eax, 16			; 00000010H
  00044	89 44 24 08	 mov	 DWORD PTR _strKey$[esp+28], eax

; 156  : 
; 157  : 	strWord = szWord;

  00048	8b 54 24 24	 mov	 edx, DWORD PTR _szWord$[esp+24]
  0004c	85 d2		 test	 edx, edx
  0004e	c6 44 24 18 01	 mov	 BYTE PTR __$EHRec$[esp+36], 1
  00053	75 04		 jne	 SHORT $L275903
  00055	33 c0		 xor	 eax, eax
  00057	eb 10		 jmp	 SHORT $L275902
$L275903:
  00059	8b c2		 mov	 eax, edx
  0005b	8d 70 01	 lea	 esi, DWORD PTR [eax+1]
  0005e	8b ff		 npad	 2
$L276077:
  00060	8a 08		 mov	 cl, BYTE PTR [eax]
  00062	40		 inc	 eax
  00063	84 c9		 test	 cl, cl
  00065	75 f9		 jne	 SHORT $L276077
  00067	2b c6		 sub	 eax, esi
$L275902:
  00069	50		 push	 eax
  0006a	52		 push	 edx
  0006b	8d 4c 24 14	 lea	 ecx, DWORD PTR _strWord$[esp+36]
  0006f	e8 00 00 00 00	 call	 ?SetString@?$CSimpleStringT@D$0A@@ATL@@QAEXPBDH@Z ; ATL::CSimpleStringT<char,0>::SetString

; 158  : 	strKey = szKey;

  00074	8b 54 24 28	 mov	 edx, DWORD PTR _szKey$[esp+24]
  00078	85 d2		 test	 edx, edx
  0007a	75 04		 jne	 SHORT $L275933
  0007c	33 c0		 xor	 eax, eax
  0007e	eb 0e		 jmp	 SHORT $L275932
$L275933:
  00080	8b c2		 mov	 eax, edx
  00082	8d 70 01	 lea	 esi, DWORD PTR [eax+1]
$L276078:
  00085	8a 08		 mov	 cl, BYTE PTR [eax]
  00087	40		 inc	 eax
  00088	84 c9		 test	 cl, cl
  0008a	75 f9		 jne	 SHORT $L276078
  0008c	2b c6		 sub	 eax, esi
$L275932:
  0008e	50		 push	 eax
  0008f	52		 push	 edx
  00090	8d 4c 24 10	 lea	 ecx, DWORD PTR _strKey$[esp+36]
  00094	e8 00 00 00 00	 call	 ?SetString@?$CSimpleStringT@D$0A@@ATL@@QAEXPBDH@Z ; ATL::CSimpleStringT<char,0>::SetString

; 159  : 
; 160  : 	nParam1 = dwParam;
; 161  : 	nParam2 = 0;
; 162  : 
; 163  : 	if( strKey.IsEmpty() )	

  00099	8b 74 24 08	 mov	 esi, DWORD PTR _strKey$[esp+28]
  0009d	8b 46 f4	 mov	 eax, DWORD PTR [esi-12]
  000a0	85 c0		 test	 eax, eax
  000a2	75 12		 jne	 SHORT $L275952

; 164  : 		strKey = strWord;

  000a4	8d 44 24 0c	 lea	 eax, DWORD PTR _strWord$[esp+28]
  000a8	50		 push	 eax
  000a9	8d 4c 24 0c	 lea	 ecx, DWORD PTR _strKey$[esp+32]
  000ad	e8 00 00 00 00	 call	 ??4?$CSimpleStringT@D$0A@@ATL@@QAEAAV01@ABV01@@Z ; ATL::CSimpleStringT<char,0>::operator=
  000b2	8b 74 24 08	 mov	 esi, DWORD PTR _strKey$[esp+28]
$L275952:

; 165  : 
; 166  : 	if( HasKey( pInfo, strKey ) == FALSE ) 

  000b6	8b 7c 24 20	 mov	 edi, DWORD PTR _pInfo$[esp+24]
  000ba	8b 17		 mov	 edx, DWORD PTR [edi]
  000bc	56		 push	 esi
  000bd	8b cf		 mov	 ecx, edi
  000bf	ff 52 20	 call	 DWORD PTR [edx+32]
  000c2	50		 push	 eax
  000c3	e8 00 00 00 00	 call	 ?GetInstance@CWorldDialog@@SAAAV1@XZ ; CWorldDialog::GetInstance
  000c8	8b c8		 mov	 ecx, eax
  000ca	e8 00 00 00 00	 call	 ?Find@CWorldDialog@@QAEHPBD0@Z ; CWorldDialog::Find
  000cf	85 c0		 test	 eax, eax

; 167  : 	{
; 168  : 		Error( "key error AddAnswer %s %s", pInfo->GetName(), strKey );

  000d1	8b cf		 mov	 ecx, edi
  000d3	75 71		 jne	 SHORT $L266927
  000d5	8b 07		 mov	 eax, DWORD PTR [edi]
  000d7	56		 push	 esi
  000d8	ff 50 20	 call	 DWORD PTR [eax+32]
  000db	50		 push	 eax
  000dc	68 00 00 00 00	 push	 OFFSET FLAT:??_C@_0BK@FOCLNIMB@key?5error?5AddAnswer?5?$CFs?5?$CFs?$AA@
  000e1	e8 00 00 00 00	 call	 ?Error@@YAPBDPBDZZ	; Error

; 169  : 		return 1;

  000e6	8d 46 f0	 lea	 eax, DWORD PTR [esi-16]
  000e9	83 c4 0c	 add	 esp, 12			; 0000000cH
  000ec	c6 44 24 18 00	 mov	 BYTE PTR __$EHRec$[esp+36], 0
  000f1	8d 48 0c	 lea	 ecx, DWORD PTR [eax+12]
  000f4	83 ca ff	 or	 edx, -1
  000f7	f0 0f c1 11	 lock	  xadd	 DWORD PTR [ecx], edx
  000fb	4a		 dec	 edx
  000fc	85 d2		 test	 edx, edx
  000fe	7f 08		 jg	 SHORT $L275985
  00100	8b 08		 mov	 ecx, DWORD PTR [eax]
  00102	8b 11		 mov	 edx, DWORD PTR [ecx]
  00104	50		 push	 eax
  00105	ff 52 04	 call	 DWORD PTR [edx+4]
$L275985:
  00108	8b 44 24 0c	 mov	 eax, DWORD PTR _strWord$[esp+28]
  0010c	83 c0 f0	 add	 eax, -16		; fffffff0H
  0010f	c7 44 24 18 ff
	ff ff ff	 mov	 DWORD PTR __$EHRec$[esp+36], -1
  00117	8d 48 0c	 lea	 ecx, DWORD PTR [eax+12]
  0011a	83 ca ff	 or	 edx, -1
  0011d	f0 0f c1 11	 lock	  xadd	 DWORD PTR [ecx], edx
  00121	4a		 dec	 edx
  00122	85 d2		 test	 edx, edx
  00124	7f 08		 jg	 SHORT $L276012
  00126	8b 08		 mov	 ecx, DWORD PTR [eax]
  00128	8b 11		 mov	 edx, DWORD PTR [ecx]
  0012a	50		 push	 eax
  0012b	ff 52 04	 call	 DWORD PTR [edx+4]
$L276012:
  0012e	5f		 pop	 edi
  0012f	b8 01 00 00 00	 mov	 eax, 1
  00134	5e		 pop	 esi

; 172  : }

  00135	8b 4c 24 08	 mov	 ecx, DWORD PTR __$EHRec$[esp+20]
  00139	64 89 0d 00 00
	00 00		 mov	 DWORD PTR fs:__except_list, ecx
  00140	83 c4 14	 add	 esp, 20			; 00000014H
  00143	c2 10 00	 ret	 16			; 00000010H
$L266927:

; 170  : 	}
; 171  : 	return __AddAnswer( pInfo->GetPcId(), strWord, strKey, nParam1, nParam2 );

  00146	8b 44 24 2c	 mov	 eax, DWORD PTR _dwParam$[esp+24]
  0014a	8b 17		 mov	 edx, DWORD PTR [edi]
  0014c	55		 push	 ebp
  0014d	8b 6c 24 10	 mov	 ebp, DWORD PTR _strWord$[esp+32]
  00151	6a 00		 push	 0
  00153	50		 push	 eax
  00154	56		 push	 esi
  00155	55		 push	 ebp
  00156	ff 52 18	 call	 DWORD PTR [edx+24]
  00159	50		 push	 eax
  0015a	e8 00 00 00 00	 call	 ?__AddAnswer@@YAHHPBD0KH@Z ; __AddAnswer
  0015f	8b f8		 mov	 edi, eax
  00161	8d 46 f0	 lea	 eax, DWORD PTR [esi-16]
  00164	83 c4 14	 add	 esp, 20			; 00000014H
  00167	c6 44 24 1c 00	 mov	 BYTE PTR __$EHRec$[esp+40], 0
  0016c	8d 48 0c	 lea	 ecx, DWORD PTR [eax+12]
  0016f	83 ca ff	 or	 edx, -1
  00172	f0 0f c1 11	 lock	  xadd	 DWORD PTR [ecx], edx
  00176	4a		 dec	 edx
  00177	85 d2		 test	 edx, edx
  00179	7f 08		 jg	 SHORT $L276045
  0017b	8b 08		 mov	 ecx, DWORD PTR [eax]
  0017d	8b 11		 mov	 edx, DWORD PTR [ecx]
  0017f	50		 push	 eax
  00180	ff 52 04	 call	 DWORD PTR [edx+4]
$L276045:
  00183	8d 45 f0	 lea	 eax, DWORD PTR [ebp-16]
  00186	c7 44 24 1c ff
	ff ff ff	 mov	 DWORD PTR __$EHRec$[esp+40], -1
  0018e	8d 48 0c	 lea	 ecx, DWORD PTR [eax+12]
  00191	83 ca ff	 or	 edx, -1
  00194	f0 0f c1 11	 lock	  xadd	 DWORD PTR [ecx], edx
  00198	4a		 dec	 edx
  00199	85 d2		 test	 edx, edx
  0019b	5d		 pop	 ebp
  0019c	7f 08		 jg	 SHORT $L276072
  0019e	8b 08		 mov	 ecx, DWORD PTR [eax]
  001a0	8b 11		 mov	 edx, DWORD PTR [ecx]
  001a2	50		 push	 eax
  001a3	ff 52 04	 call	 DWORD PTR [edx+4]
$L276072:

; 172  : }

  001a6	8b 4c 24 10	 mov	 ecx, DWORD PTR __$EHRec$[esp+28]
  001aa	8b c7		 mov	 eax, edi
  001ac	5f		 pop	 edi
  001ad	5e		 pop	 esi
  001ae	64 89 0d 00 00
	00 00		 mov	 DWORD PTR fs:__except_list, ecx
  001b5	83 c4 14	 add	 esp, 20			; 00000014H
  001b8	c2 10 00	 ret	 16			; 00000010H
_TEXT	ENDS
;	COMDAT text$x
text$x	SEGMENT
$L275811:
  00000	8d 4d f0	 lea	 ecx, DWORD PTR _strWord$[ebp]
  00003	e9 00 00 00 00	 jmp	 ??1?$CStringT@DV?$StrTraitMFC@DV?$ChTraitsCRT@D@ATL@@@@@ATL@@QAE@XZ ; ATL::CStringT<char,StrTraitMFC<char,ATL::ChTraitsCRT<char> > >::~CStringT<char,StrTraitMFC<char,ATL::ChTraitsCRT<char> > >
$L275812:
  00008	8d 4d ec	 lea	 ecx, DWORD PTR _strKey$[ebp]
  0000b	e9 00 00 00 00	 jmp	 ??1?$CStringT@DV?$StrTraitMFC@DV?$ChTraitsCRT@D@ATL@@@@@ATL@@QAE@XZ ; ATL::CStringT<char,StrTraitMFC<char,ATL::ChTraitsCRT<char> > >::~CStringT<char,StrTraitMFC<char,ATL::ChTraitsCRT<char> > >
__ehhandler$?AddAnswer@@YGHPAUNPCDIALOG_INFO@@PBD1K@Z:
  00010	b8 00 00 00 00	 mov	 eax, OFFSET FLAT:$T276076
  00015	e9 00 00 00 00	 jmp	 ___CxxFrameHandler
text$x	ENDS
?AddAnswer@@YGHPAUNPCDIALOG_INFO@@PBD1K@Z ENDP		; AddAnswer
PUBLIC	??0?$CStringT@DV?$StrTraitMFC@DV?$ChTraitsCRT@D@ATL@@@@@ATL@@QAE@PBD@Z ; ATL::CStringT<char,StrTraitMFC<char,ATL::ChTraitsCRT<char> > >::CStringT<char,StrTraitMFC<char,ATL::ChTraitsCRT<char> > >
;	COMDAT xdata$x
; File c:\program files\microsoft visual studio .net 2003\vc7\atlmfc\include\atlsimpstr.h
xdata$x	SEGMENT
$T276167 DD	0ffffffffH
	DD	FLAT:$L276086
$T276161 DD	019930520H
	DD	01H
	DD	FLAT:$T276167
	DD	2 DUP(00H)
	DD	2 DUP(00H)
; Function compile flags: /Ogty
; File c:\program files\microsoft visual studio .net 2003\vc7\atlmfc\include\cstringt.h
xdata$x	ENDS
;	COMDAT ??0?$CStringT@DV?$StrTraitMFC@DV?$ChTraitsCRT@D@ATL@@@@@ATL@@QAE@PBD@Z
_TEXT	SEGMENT
_this$ = -16						; size = 4
__$EHRec$ = -12						; size = 12
_pszSrc$ = 8						; size = 4
??0?$CStringT@DV?$StrTraitMFC@DV?$ChTraitsCRT@D@ATL@@@@@ATL@@QAE@PBD@Z PROC NEAR ; ATL::CStringT<char,StrTraitMFC<char,ATL::ChTraitsCRT<char> > >::CStringT<char,StrTraitMFC<char,ATL::ChTraitsCRT<char> > >, COMDAT
; _this$ = ecx

; 830  : 	{

  00000	6a ff		 push	 -1
  00002	68 00 00 00 00	 push	 __ehhandler$??0?$CStringT@DV?$StrTraitMFC@DV?$ChTraitsCRT@D@ATL@@@@@ATL@@QAE@PBD@Z
  00007	64 a1 00 00 00
	00		 mov	 eax, DWORD PTR fs:__except_list
  0000d	50		 push	 eax
  0000e	64 89 25 00 00
	00 00		 mov	 DWORD PTR fs:__except_list, esp
  00015	51		 push	 ecx
  00016	56		 push	 esi
  00017	8b f1		 mov	 esi, ecx
  00019	57		 push	 edi
  0001a	89 74 24 08	 mov	 DWORD PTR _this$[esp+24], esi
  0001e	e8 00 00 00 00	 call	 ?AfxGetStringManager@@YGPAUIAtlStringMgr@ATL@@XZ ; AfxGetStringManager
  00023	8b 10		 mov	 edx, DWORD PTR [eax]
  00025	8b c8		 mov	 ecx, eax
  00027	ff 52 0c	 call	 DWORD PTR [edx+12]
  0002a	83 c0 10	 add	 eax, 16			; 00000010H
  0002d	89 06		 mov	 DWORD PTR [esi], eax

; 831  : 		if( !CheckImplicitLoad( pszSrc ) )

  0002f	8b 54 24 1c	 mov	 edx, DWORD PTR _pszSrc$[esp+20]
  00033	85 d2		 test	 edx, edx
  00035	c7 44 24 14 00
	00 00 00	 mov	 DWORD PTR __$EHRec$[esp+32], 0
  0003d	74 33		 je	 SHORT $L276163
  0003f	f7 c2 00 00 ff
	ff		 test	 edx, -65536		; ffff0000H
  00045	75 2f		 jne	 SHORT $L276158
  00047	0f b7 fa	 movzx	 edi, dx
  0004a	57		 push	 edi
  0004b	e8 00 00 00 00	 call	 ?AfxFindStringResourceHandle@@YGPAUHINSTANCE__@@I@Z ; AfxFindStringResourceHandle
  00050	85 c0		 test	 eax, eax
  00052	74 3e		 je	 SHORT $L276165
  00054	57		 push	 edi
  00055	50		 push	 eax
  00056	8b ce		 mov	 ecx, esi
  00058	e8 00 00 00 00	 call	 ?LoadStringA@?$CStringT@DV?$StrTraitMFC@DV?$ChTraitsCRT@D@ATL@@@@@ATL@@QAEHPAUHINSTANCE__@@I@Z ; ATL::CStringT<char,StrTraitMFC<char,ATL::ChTraitsCRT<char> > >::LoadStringA
  0005d	5f		 pop	 edi

; 835  : 		}
; 836  : 	}

  0005e	8b c6		 mov	 eax, esi
  00060	5e		 pop	 esi
  00061	8b 4c 24 04	 mov	 ecx, DWORD PTR __$EHRec$[esp+16]
  00065	64 89 0d 00 00
	00 00		 mov	 DWORD PTR fs:__except_list, ecx
  0006c	83 c4 10	 add	 esp, 16			; 00000010H
  0006f	c2 04 00	 ret	 4
$L276163:

; 832  : 		{
; 833  : 			// nDestLength is in XCHARs
; 834  : 			*this = pszSrc;

  00072	33 c0		 xor	 eax, eax
  00074	eb 13		 jmp	 SHORT $L276157
$L276158:
  00076	8b c2		 mov	 eax, edx
  00078	8d 78 01	 lea	 edi, DWORD PTR [eax+1]
  0007b	eb 03 8d 49 00	 npad	 5
$L276164:
  00080	8a 08		 mov	 cl, BYTE PTR [eax]
  00082	40		 inc	 eax
  00083	84 c9		 test	 cl, cl
  00085	75 f9		 jne	 SHORT $L276164
  00087	2b c7		 sub	 eax, edi
$L276157:
  00089	50		 push	 eax
  0008a	52		 push	 edx
  0008b	8b ce		 mov	 ecx, esi
  0008d	e8 00 00 00 00	 call	 ?SetString@?$CSimpleStringT@D$0A@@ATL@@QAEXPBDH@Z ; ATL::CSimpleStringT<char,0>::SetString
$L276165:

; 835  : 		}
; 836  : 	}

  00092	8b 4c 24 0c	 mov	 ecx, DWORD PTR __$EHRec$[esp+24]
  00096	5f		 pop	 edi
  00097	8b c6		 mov	 eax, esi
  00099	5e		 pop	 esi
  0009a	64 89 0d 00 00
	00 00		 mov	 DWORD PTR fs:__except_list, ecx
  000a1	83 c4 10	 add	 esp, 16			; 00000010H
  000a4	c2 04 00	 ret	 4
_TEXT	ENDS
;	COMDAT text$x
text$x	SEGMENT
$L276086:
  00000	8b 4d f0	 mov	 ecx, DWORD PTR _this$[ebp]
  00003	e9 00 00 00 00	 jmp	 ??1?$CSimpleStringT@D$0A@@ATL@@QAE@XZ ; ATL::CSimpleStringT<char,0>::~CSimpleStringT<char,0>
__ehhandler$??0?$CStringT@DV?$StrTraitMFC@DV?$ChTraitsCRT@D@ATL@@@@@ATL@@QAE@PBD@Z:
  00008	b8 00 00 00 00	 mov	 eax, OFFSET FLAT:$T276161
  0000d	e9 00 00 00 00	 jmp	 ___CxxFrameHandler
text$x	ENDS
??0?$CStringT@DV?$StrTraitMFC@DV?$ChTraitsCRT@D@ATL@@@@@ATL@@QAE@PBD@Z ENDP ; ATL::CStringT<char,StrTraitMFC<char,ATL::ChTraitsCRT<char> > >::CStringT<char,StrTraitMFC<char,ATL::ChTraitsCRT<char> > >
PUBLIC	?AddQuestKey@@YGHPAUNPCDIALOG_INFO@@HPBD@Z	; AddQuestKey
PUBLIC	??_C@_0BM@FLHIHMMM@key?5error?5AddQuestKey?5?$CFs?5?$CFs?$AA@ ; `string'
EXTRN	?__AddQuestKey@@YAHHHPBDHH@Z:NEAR		; __AddQuestKey
;	COMDAT xdata$x
; File c:\program files\microsoft visual studio .net 2003\vc7\atlmfc\include\atlsimpstr.h
xdata$x	SEGMENT
$T276294 DD	0ffffffffH
	DD	FLAT:$L276175
$T276291 DD	019930520H
	DD	01H
	DD	FLAT:$T276294
	DD	2 DUP(00H)
	DD	2 DUP(00H)
xdata$x	ENDS
;	COMDAT ??_C@_0BM@FLHIHMMM@key?5error?5AddQuestKey?5?$CFs?5?$CFs?$AA@
CONST	SEGMENT
??_C@_0BM@FLHIHMMM@key?5error?5AddQuestKey?5?$CFs?5?$CFs?$AA@ DB 'key err'
	DB	'or AddQuestKey %s %s', 00H			; `string'
; Function compile flags: /Ogty
; File c:\documents and settings\test\mes documents\source\virtuos_v17\build\program\_common\scriptlib.cpp
CONST	ENDS
;	COMDAT ?AddQuestKey@@YGHPAUNPCDIALOG_INFO@@HPBD@Z
_TEXT	SEGMENT
__$EHRec$ = -12						; size = 12
_pInfo$ = 8						; size = 4
_nQuest$ = 12						; size = 4
_strKey$ = 16						; size = 4
_szKey$ = 16						; size = 4
?AddQuestKey@@YGHPAUNPCDIALOG_INFO@@HPBD@Z PROC NEAR	; AddQuestKey, COMDAT

; 202  : {

  00000	64 a1 00 00 00
	00		 mov	 eax, DWORD PTR fs:__except_list
  00006	6a ff		 push	 -1
  00008	68 00 00 00 00	 push	 __ehhandler$?AddQuestKey@@YGHPAUNPCDIALOG_INFO@@HPBD@Z
  0000d	50		 push	 eax

; 203  : 	int nParam = 0;
; 204  : 	CString strKey = szKey;

  0000e	8b 44 24 18	 mov	 eax, DWORD PTR _szKey$[esp+8]
  00012	64 89 25 00 00
	00 00		 mov	 DWORD PTR fs:__except_list, esp
  00019	56		 push	 esi
  0001a	57		 push	 edi
  0001b	50		 push	 eax
  0001c	8d 4c 24 24	 lea	 ecx, DWORD PTR _strKey$[esp+20]
  00020	e8 00 00 00 00	 call	 ??0?$CStringT@DV?$StrTraitMFC@DV?$ChTraitsCRT@D@ATL@@@@@ATL@@QAE@PBD@Z ; ATL::CStringT<char,StrTraitMFC<char,ATL::ChTraitsCRT<char> > >::CStringT<char,StrTraitMFC<char,ATL::ChTraitsCRT<char> > >

; 205  : 
; 206  : 	if( strKey.IsEmpty() )

  00025	8b 4c 24 20	 mov	 ecx, DWORD PTR _strKey$[esp+16]
  00029	8b 41 f4	 mov	 eax, DWORD PTR [ecx-12]
  0002c	85 c0		 test	 eax, eax
  0002e	8b 7c 24 1c	 mov	 edi, DWORD PTR _nQuest$[esp+16]
  00032	c7 44 24 10 00
	00 00 00	 mov	 DWORD PTR __$EHRec$[esp+28], 0
  0003a	75 39		 jne	 SHORT $L276216

; 207  : 	{
; 208  : 		QuestProp* pQuestProp = prj.m_aPropQuest.GetAt( nQuest );

  0003c	3b 3d 10 03 00
	00		 cmp	 edi, DWORD PTR ?prj@@3VCProject@@A+784
  00042	73 31		 jae	 SHORT $L276216
  00044	8b 15 00 03 00
	00		 mov	 edx, DWORD PTR ?prj@@3VCProject@@A+768
  0004a	8b 04 ba	 mov	 eax, DWORD PTR [edx+edi*4]

; 209  : 		if( pQuestProp )

  0004d	85 c0		 test	 eax, eax
  0004f	74 24		 je	 SHORT $L276216

; 210  : 			strKey = pQuestProp->m_szTitle;

  00051	8d 50 02	 lea	 edx, DWORD PTR [eax+2]
  00054	85 d2		 test	 edx, edx
  00056	75 04		 jne	 SHORT $L276223
  00058	33 c0		 xor	 eax, eax
  0005a	eb 0e		 jmp	 SHORT $L276222
$L276223:
  0005c	8b c2		 mov	 eax, edx
  0005e	8d 70 01	 lea	 esi, DWORD PTR [eax+1]
$L276292:
  00061	8a 08		 mov	 cl, BYTE PTR [eax]
  00063	40		 inc	 eax
  00064	84 c9		 test	 cl, cl
  00066	75 f9		 jne	 SHORT $L276292
  00068	2b c6		 sub	 eax, esi
$L276222:
  0006a	50		 push	 eax
  0006b	52		 push	 edx
  0006c	8d 4c 24 28	 lea	 ecx, DWORD PTR _strKey$[esp+24]
  00070	e8 00 00 00 00	 call	 ?SetString@?$CSimpleStringT@D$0A@@ATL@@QAEXPBDH@Z ; ATL::CSimpleStringT<char,0>::SetString
$L276216:

; 211  : 	}
; 212  : 
; 213  : 	if( HasKey( pInfo, strKey ) == FALSE ) 

  00075	8b 44 24 20	 mov	 eax, DWORD PTR _strKey$[esp+16]
  00079	8b 74 24 18	 mov	 esi, DWORD PTR _pInfo$[esp+16]
  0007d	8b 16		 mov	 edx, DWORD PTR [esi]
  0007f	50		 push	 eax
  00080	8b ce		 mov	 ecx, esi
  00082	ff 52 20	 call	 DWORD PTR [edx+32]
  00085	50		 push	 eax
  00086	e8 00 00 00 00	 call	 ?GetInstance@CWorldDialog@@SAAAV1@XZ ; CWorldDialog::GetInstance
  0008b	8b c8		 mov	 ecx, eax
  0008d	e8 00 00 00 00	 call	 ?Find@CWorldDialog@@QAEHPBD0@Z ; CWorldDialog::Find

; 214  : 	{
; 215  : 		Error( "key error AddQuestKey %s %s", pInfo->GetName(), strKey );

  00092	8b 16		 mov	 edx, DWORD PTR [esi]
  00094	85 c0		 test	 eax, eax
  00096	8b 44 24 20	 mov	 eax, DWORD PTR _strKey$[esp+16]
  0009a	8b ce		 mov	 ecx, esi
  0009c	75 50		 jne	 SHORT $L266961
  0009e	50		 push	 eax
  0009f	ff 52 20	 call	 DWORD PTR [edx+32]
  000a2	50		 push	 eax
  000a3	68 00 00 00 00	 push	 OFFSET FLAT:??_C@_0BM@FLHIHMMM@key?5error?5AddQuestKey?5?$CFs?5?$CFs?$AA@
  000a8	e8 00 00 00 00	 call	 ?Error@@YAPBDPBDZZ	; Error

; 216  : 		return 1;

  000ad	8b 44 24 2c	 mov	 eax, DWORD PTR _strKey$[esp+28]
  000b1	83 c0 f0	 add	 eax, -16		; fffffff0H
  000b4	83 c4 0c	 add	 esp, 12			; 0000000cH
  000b7	c7 44 24 10 ff
	ff ff ff	 mov	 DWORD PTR __$EHRec$[esp+28], -1
  000bf	8d 48 0c	 lea	 ecx, DWORD PTR [eax+12]
  000c2	83 ca ff	 or	 edx, -1
  000c5	f0 0f c1 11	 lock	  xadd	 DWORD PTR [ecx], edx
  000c9	4a		 dec	 edx
  000ca	85 d2		 test	 edx, edx
  000cc	7f 08		 jg	 SHORT $L276257
  000ce	8b 08		 mov	 ecx, DWORD PTR [eax]
  000d0	8b 11		 mov	 edx, DWORD PTR [ecx]
  000d2	50		 push	 eax
  000d3	ff 52 04	 call	 DWORD PTR [edx+4]
$L276257:
  000d6	b8 01 00 00 00	 mov	 eax, 1

; 220  : }

  000db	8b 4c 24 08	 mov	 ecx, DWORD PTR __$EHRec$[esp+20]
  000df	64 89 0d 00 00
	00 00		 mov	 DWORD PTR fs:__except_list, ecx
  000e6	5f		 pop	 edi
  000e7	5e		 pop	 esi
  000e8	83 c4 0c	 add	 esp, 12			; 0000000cH
  000eb	c2 0c 00	 ret	 12			; 0000000cH
$L266961:

; 217  : 	}
; 218  : 
; 219  : 	return __AddQuestKey( pInfo->GetPcId(), nQuest, strKey, nParam );

  000ee	6a 00		 push	 0
  000f0	6a 00		 push	 0
  000f2	50		 push	 eax
  000f3	57		 push	 edi
  000f4	ff 52 18	 call	 DWORD PTR [edx+24]
  000f7	50		 push	 eax
  000f8	e8 00 00 00 00	 call	 ?__AddQuestKey@@YAHHHPBDHH@Z ; __AddQuestKey
  000fd	8b f0		 mov	 esi, eax
  000ff	8b 44 24 34	 mov	 eax, DWORD PTR _strKey$[esp+36]
  00103	83 c0 f0	 add	 eax, -16		; fffffff0H
  00106	83 c4 14	 add	 esp, 20			; 00000014H
  00109	c7 44 24 10 ff
	ff ff ff	 mov	 DWORD PTR __$EHRec$[esp+28], -1
  00111	8d 48 0c	 lea	 ecx, DWORD PTR [eax+12]
  00114	83 ca ff	 or	 edx, -1
  00117	f0 0f c1 11	 lock	  xadd	 DWORD PTR [ecx], edx
  0011b	4a		 dec	 edx
  0011c	85 d2		 test	 edx, edx
  0011e	7f 08		 jg	 SHORT $L276288
  00120	8b 08		 mov	 ecx, DWORD PTR [eax]
  00122	8b 11		 mov	 edx, DWORD PTR [ecx]
  00124	50		 push	 eax
  00125	ff 52 04	 call	 DWORD PTR [edx+4]
$L276288:

; 220  : }

  00128	8b 4c 24 08	 mov	 ecx, DWORD PTR __$EHRec$[esp+20]
  0012c	5f		 pop	 edi
  0012d	8b c6		 mov	 eax, esi
  0012f	64 89 0d 00 00
	00 00		 mov	 DWORD PTR fs:__except_list, ecx
  00136	5e		 pop	 esi
  00137	83 c4 0c	 add	 esp, 12			; 0000000cH
  0013a	c2 0c 00	 ret	 12			; 0000000cH
_TEXT	ENDS
;	COMDAT text$x
text$x	SEGMENT
$L276175:
  00000	8d 4d 0c	 lea	 ecx, DWORD PTR _strKey$[ebp-4]
  00003	e9 00 00 00 00	 jmp	 ??1?$CStringT@DV?$StrTraitMFC@DV?$ChTraitsCRT@D@ATL@@@@@ATL@@QAE@XZ ; ATL::CStringT<char,StrTraitMFC<char,ATL::ChTraitsCRT<char> > >::~CStringT<char,StrTraitMFC<char,ATL::ChTraitsCRT<char> > >
__ehhandler$?AddQuestKey@@YGHPAUNPCDIALOG_INFO@@HPBD@Z:
  00008	b8 00 00 00 00	 mov	 eax, OFFSET FLAT:$T276291
  0000d	e9 00 00 00 00	 jmp	 ___CxxFrameHandler
text$x	ENDS
?AddQuestKey@@YGHPAUNPCDIALOG_INFO@@HPBD@Z ENDP		; AddQuestKey
PUBLIC	?Run@@YGHPAUNPCDIALOG_INFO@@PBDH@Z		; Run
EXTRN	?RunDialog@CNpcProperty@@QAEHPBDPAHHHHH@Z:NEAR	; CNpcProperty::RunDialog
;	COMDAT xdata$x
; File c:\program files\microsoft visual studio .net 2003\vc7\atlmfc\include\atlsimpstr.h
xdata$x	SEGMENT
$T276337 DD	0ffffffffH
	DD	FLAT:$L276301
$T276334 DD	019930520H
	DD	01H
	DD	FLAT:$T276337
	DD	2 DUP(00H)
	DD	2 DUP(00H)
; Function compile flags: /Ogty
; File c:\documents and settings\test\mes documents\source\virtuos_v17\build\program\_common\scriptlib.cpp
xdata$x	ENDS
;	COMDAT ?Run@@YGHPAUNPCDIALOG_INFO@@PBDH@Z
_TEXT	SEGMENT
_string$ = -16						; size = 4
__$EHRec$ = -12						; size = 12
_pInfo$ = 8						; size = 4
_nResult$ = 12						; size = 4
_szKey$ = 12						; size = 4
_n$ = 16						; size = 4
?Run@@YGHPAUNPCDIALOG_INFO@@PBDH@Z PROC NEAR		; Run, COMDAT

; 1041 : {

  00000	6a ff		 push	 -1
  00002	68 00 00 00 00	 push	 __ehhandler$?Run@@YGHPAUNPCDIALOG_INFO@@PBDH@Z
  00007	64 a1 00 00 00
	00		 mov	 eax, DWORD PTR fs:__except_list
  0000d	50		 push	 eax
  0000e	64 89 25 00 00
	00 00		 mov	 DWORD PTR fs:__except_list, esp
  00015	51		 push	 ecx

; 1042 : 	int v1 = n;
; 1043 : 	CString string = szKey;

  00016	8b 44 24 18	 mov	 eax, DWORD PTR _szKey$[esp+12]
  0001a	53		 push	 ebx
  0001b	56		 push	 esi
  0001c	57		 push	 edi
  0001d	50		 push	 eax
  0001e	8d 4c 24 10	 lea	 ecx, DWORD PTR _string$[esp+32]
  00022	e8 00 00 00 00	 call	 ??0?$CStringT@DV?$StrTraitMFC@DV?$ChTraitsCRT@D@ATL@@@@@ATL@@QAE@PBD@Z ; ATL::CStringT<char,StrTraitMFC<char,ATL::ChTraitsCRT<char> > >::CStringT<char,StrTraitMFC<char,ATL::ChTraitsCRT<char> > >

; 1044 : 
; 1045 : 	CMover* pMover = prj.GetMover( pInfo->GetNpcId() );

  00027	8b 74 24 20	 mov	 esi, DWORD PTR _pInfo$[esp+24]
  0002b	8b 16		 mov	 edx, DWORD PTR [esi]
  0002d	8b ce		 mov	 ecx, esi
  0002f	c7 44 24 18 00
	00 00 00	 mov	 DWORD PTR __$EHRec$[esp+36], 0
  00037	ff 52 14	 call	 DWORD PTR [edx+20]
  0003a	50		 push	 eax
  0003b	b9 00 00 00 00	 mov	 ecx, OFFSET FLAT:?prj@@3VCProject@@A
  00040	e8 00 00 00 00	 call	 ?GetMover@CProject@@QAEPAVCMover@@K@Z ; CProject::GetMover

; 1046 : 	int nResult = 0;
; 1047 : 	pMover->m_pNpcProperty->RunDialog( string, &nResult, v1, pInfo->GetNpcId(), pInfo->GetPcId(), 0 );

  00045	8b 5c 24 0c	 mov	 ebx, DWORD PTR _string$[esp+28]
  00049	8b f8		 mov	 edi, eax
  0004b	8b 06		 mov	 eax, DWORD PTR [esi]
  0004d	6a 00		 push	 0
  0004f	8b ce		 mov	 ecx, esi
  00051	c7 44 24 28 00
	00 00 00	 mov	 DWORD PTR _nResult$[esp+28], 0
  00059	ff 50 18	 call	 DWORD PTR [eax+24]
  0005c	8b 16		 mov	 edx, DWORD PTR [esi]
  0005e	50		 push	 eax
  0005f	8b ce		 mov	 ecx, esi
  00061	ff 52 14	 call	 DWORD PTR [edx+20]
  00064	50		 push	 eax
  00065	8b 44 24 34	 mov	 eax, DWORD PTR _n$[esp+36]
  00069	50		 push	 eax
  0006a	8d 4c 24 34	 lea	 ecx, DWORD PTR _nResult$[esp+40]
  0006e	51		 push	 ecx
  0006f	8b 8f ac 0e 00
	00		 mov	 ecx, DWORD PTR [edi+3756]
  00075	53		 push	 ebx
  00076	e8 00 00 00 00	 call	 ?RunDialog@CNpcProperty@@QAEHPBDPAHHHHH@Z ; CNpcProperty::RunDialog

; 1048 : 
; 1049 : 	return nResult;

  0007b	8b 44 24 0c	 mov	 eax, DWORD PTR _string$[esp+28]
  0007f	8b 74 24 24	 mov	 esi, DWORD PTR _nResult$[esp+24]
  00083	83 c0 f0	 add	 eax, -16		; fffffff0H
  00086	c7 44 24 18 ff
	ff ff ff	 mov	 DWORD PTR __$EHRec$[esp+36], -1
  0008e	8d 50 0c	 lea	 edx, DWORD PTR [eax+12]
  00091	83 c9 ff	 or	 ecx, -1
  00094	f0 0f c1 0a	 lock	  xadd	 DWORD PTR [edx], ecx
  00098	49		 dec	 ecx
  00099	85 c9		 test	 ecx, ecx
  0009b	7f 08		 jg	 SHORT $L276335
  0009d	8b 08		 mov	 ecx, DWORD PTR [eax]
  0009f	8b 11		 mov	 edx, DWORD PTR [ecx]
  000a1	50		 push	 eax
  000a2	ff 52 04	 call	 DWORD PTR [edx+4]
$L276335:

; 1050 : }

  000a5	8b 4c 24 10	 mov	 ecx, DWORD PTR __$EHRec$[esp+28]
  000a9	5f		 pop	 edi
  000aa	8b c6		 mov	 eax, esi
  000ac	5e		 pop	 esi
  000ad	5b		 pop	 ebx
  000ae	64 89 0d 00 00
	00 00		 mov	 DWORD PTR fs:__except_list, ecx
  000b5	83 c4 10	 add	 esp, 16			; 00000010H
  000b8	c2 0c 00	 ret	 12			; 0000000cH
_TEXT	ENDS
;	COMDAT text$x
text$x	SEGMENT
$L276301:
  00000	8d 4d f0	 lea	 ecx, DWORD PTR _string$[ebp]
  00003	e9 00 00 00 00	 jmp	 ??1?$CStringT@DV?$StrTraitMFC@DV?$ChTraitsCRT@D@ATL@@@@@ATL@@QAE@XZ ; ATL::CStringT<char,StrTraitMFC<char,ATL::ChTraitsCRT<char> > >::~CStringT<char,StrTraitMFC<char,ATL::ChTraitsCRT<char> > >
__ehhandler$?Run@@YGHPAUNPCDIALOG_INFO@@PBDH@Z:
  00008	b8 00 00 00 00	 mov	 eax, OFFSET FLAT:$T276334
  0000d	e9 00 00 00 00	 jmp	 ___CxxFrameHandler
text$x	ENDS
?Run@@YGHPAUNPCDIALOG_INFO@@PBDH@Z ENDP			; Run
PUBLIC	?InitDialogFunctions@@YAXXZ			; InitDialogFunctions
EXTRN	?InitPredefineKey@@YAXXZ:NEAR			; InitPredefineKey
; Function compile flags: /Ogty
;	COMDAT ?InitDialogFunctions@@YAXXZ
_TEXT	SEGMENT
?InitDialogFunctions@@YAXXZ PROC NEAR			; InitDialogFunctions, COMDAT

; 1113 : 	InitPredefineKey();		//     table .

  00000	e8 00 00 00 00	 call	 ?InitPredefineKey@@YAXXZ ; InitPredefineKey

; 1114 : 
; 1115 : 	g_functions.SayName = SayName;

  00005	c7 05 00 00 00
	00 00 00 00 00	 mov	 DWORD PTR ?g_functions@@3UFunctions@@A, OFFSET FLAT:?SayName@@YGHPAUNPCDIALOG_INFO@@@Z ; SayName

; 1116 : 	g_functions.Speak = Speak;

  0000f	c7 05 04 00 00
	00 00 00 00 00	 mov	 DWORD PTR ?g_functions@@3UFunctions@@A+4, OFFSET FLAT:?Speak@@YGHPAUNPCDIALOG_INFO@@HPBD@Z ; Speak

; 1117 : 	g_functions.SpeakName = SpeakName;

  00019	c7 05 08 00 00
	00 00 00 00 00	 mov	 DWORD PTR ?g_functions@@3UFunctions@@A+8, OFFSET FLAT:?SpeakName@@YGHPAUNPCDIALOG_INFO@@@Z ; SpeakName

; 1118 : 	g_functions.GetVal = GetVal;

  00023	c7 05 0c 00 00
	00 00 00 00 00	 mov	 DWORD PTR ?g_functions@@3UFunctions@@A+12, OFFSET FLAT:?GetVal@@YGHPAUNPCDIALOG_INFO@@@Z ; GetVal

; 1119 : 	g_functions.GetSrcId = GetSrcId;

  0002d	c7 05 10 00 00
	00 00 00 00 00	 mov	 DWORD PTR ?g_functions@@3UFunctions@@A+16, OFFSET FLAT:?GetSrcId@@YGHPAUNPCDIALOG_INFO@@@Z ; GetSrcId

; 1120 : 	g_functions.GetDstId = GetDstId;

  00037	c7 05 14 00 00
	00 00 00 00 00	 mov	 DWORD PTR ?g_functions@@3UFunctions@@A+20, OFFSET FLAT:?GetDstId@@YGHPAUNPCDIALOG_INFO@@@Z ; GetDstId

; 1121 : 	g_functions.NpcId = NpcId;

  00041	c7 05 18 00 00
	00 00 00 00 00	 mov	 DWORD PTR ?g_functions@@3UFunctions@@A+24, OFFSET FLAT:?NpcId@@YGHPAUNPCDIALOG_INFO@@@Z ; NpcId

; 1122 : 	g_functions.PcId = PcId;

  0004b	c7 05 1c 00 00
	00 00 00 00 00	 mov	 DWORD PTR ?g_functions@@3UFunctions@@A+28, OFFSET FLAT:?PcId@@YGHPAUNPCDIALOG_INFO@@@Z ; PcId

; 1123 : 	g_functions.GetGValue_ = GetGValue_;

  00055	c7 05 20 00 00
	00 00 00 00 00	 mov	 DWORD PTR ?g_functions@@3UFunctions@@A+32, OFFSET FLAT:?GetGValue_@@YGHPAUNPCDIALOG_INFO@@@Z ; GetGValue_

; 1124 : 	g_functions.SetGValue = SetGValue;

  0005f	c7 05 24 00 00
	00 00 00 00 00	 mov	 DWORD PTR ?g_functions@@3UFunctions@@A+36, OFFSET FLAT:?SetGValue@@YGHPAUNPCDIALOG_INFO@@@Z ; SetGValue

; 1125 : 	g_functions.AddGValue = AddGValue;

  00069	c7 05 28 00 00
	00 00 00 00 00	 mov	 DWORD PTR ?g_functions@@3UFunctions@@A+40, OFFSET FLAT:?AddGValue@@YGHPAUNPCDIALOG_INFO@@@Z ; AddGValue

; 1126 : 	g_functions.AddKey = AddKey;

  00073	c7 05 2c 00 00
	00 00 00 00 00	 mov	 DWORD PTR ?g_functions@@3UFunctions@@A+44, OFFSET FLAT:?AddKey@@YGHPAUNPCDIALOG_INFO@@PBD1K@Z ; AddKey

; 1127 : 	g_functions.AddCondKey = AddCondKey;

  0007d	c7 05 30 00 00
	00 00 00 00 00	 mov	 DWORD PTR ?g_functions@@3UFunctions@@A+48, OFFSET FLAT:?AddCondKey@@YGHPAUNPCDIALOG_INFO@@PBD1K@Z ; AddCondKey

; 1128 : 	g_functions.AddAnswer = AddAnswer;

  00087	c7 05 34 00 00
	00 00 00 00 00	 mov	 DWORD PTR ?g_functions@@3UFunctions@@A+52, OFFSET FLAT:?AddAnswer@@YGHPAUNPCDIALOG_INFO@@PBD1K@Z ; AddAnswer

; 1129 : 	g_functions.RemoveQuest = RemoveQuest;

  00091	c7 05 38 00 00
	00 00 00 00 00	 mov	 DWORD PTR ?g_functions@@3UFunctions@@A+56, OFFSET FLAT:?RemoveQuest@@YGHPAUNPCDIALOG_INFO@@H@Z ; RemoveQuest

; 1130 : 	g_functions.RemoveAllKey = RemoveAllKey;

  0009b	c7 05 3c 00 00
	00 00 00 00 00	 mov	 DWORD PTR ?g_functions@@3UFunctions@@A+60, OFFSET FLAT:?RemoveAllKey@@YGHPAUNPCDIALOG_INFO@@@Z ; RemoveAllKey

; 1131 : 	g_functions.SayQuest = SayQuest;

  000a5	c7 05 40 00 00
	00 00 00 00 00	 mov	 DWORD PTR ?g_functions@@3UFunctions@@A+64, OFFSET FLAT:?SayQuest@@YGHPAUNPCDIALOG_INFO@@HH@Z ; SayQuest

; 1132 : 	g_functions.BeginQuest = BeginQuest;

  000af	c7 05 44 00 00
	00 00 00 00 00	 mov	 DWORD PTR ?g_functions@@3UFunctions@@A+68, OFFSET FLAT:?BeginQuest@@YGHPAUNPCDIALOG_INFO@@H@Z ; BeginQuest

; 1133 : 	g_functions.EndQuest = EndQuest;

  000b9	c7 05 48 00 00
	00 00 00 00 00	 mov	 DWORD PTR ?g_functions@@3UFunctions@@A+72, OFFSET FLAT:?EndQuest@@YGHPAUNPCDIALOG_INFO@@H@Z ; EndQuest

; 1134 : 	g_functions.AddQuestKey = AddQuestKey;

  000c3	c7 05 4c 00 00
	00 00 00 00 00	 mov	 DWORD PTR ?g_functions@@3UFunctions@@A+76, OFFSET FLAT:?AddQuestKey@@YGHPAUNPCDIALOG_INFO@@HPBD@Z ; AddQuestKey

; 1135 : 	g_functions.CreateMover = CreateMover;

  000cd	c7 05 50 00 00
	00 00 00 00 00	 mov	 DWORD PTR ?g_functions@@3UFunctions@@A+80, OFFSET FLAT:?CreateMover@@YGHPAUNPCDIALOG_INFO@@@Z ; CreateMover

; 1136 : 	g_functions.CreateChar = CreateChar;

  000d7	c7 05 54 00 00
	00 00 00 00 00	 mov	 DWORD PTR ?g_functions@@3UFunctions@@A+84, OFFSET FLAT:?CreateChar@@YGHPAUNPCDIALOG_INFO@@@Z ; CreateChar

; 1137 : 	g_functions.RemoveMover = RemoveMover;

  000e1	c7 05 58 00 00
	00 00 00 00 00	 mov	 DWORD PTR ?g_functions@@3UFunctions@@A+88, OFFSET FLAT:?RemoveMover@@YGHPAUNPCDIALOG_INFO@@@Z ; RemoveMover

; 1138 : 	g_functions.GetDay = GetDay;

  000eb	c7 05 5c 00 00
	00 00 00 00 00	 mov	 DWORD PTR ?g_functions@@3UFunctions@@A+92, OFFSET FLAT:?GetDay@@YGHPAUNPCDIALOG_INFO@@@Z ; GetDay

; 1139 : 	g_functions.GetMin = GetMin;

  000f5	c7 05 60 00 00
	00 00 00 00 00	 mov	 DWORD PTR ?g_functions@@3UFunctions@@A+96, OFFSET FLAT:?GetMin@@YGHPAUNPCDIALOG_INFO@@@Z ; GetMin

; 1140 : 	g_functions.GetHour = GetHour;

  000ff	c7 05 64 00 00
	00 00 00 00 00	 mov	 DWORD PTR ?g_functions@@3UFunctions@@A+100, OFFSET FLAT:?GetHour@@YGHPAUNPCDIALOG_INFO@@@Z ; GetHour

; 1141 : 	g_functions.SetTimer = SetTimer;

  00109	c7 05 68 00 00
	00 00 00 00 00	 mov	 DWORD PTR ?g_functions@@3UFunctions@@A+104, OFFSET FLAT:?SetTimer@@YGHPAUNPCDIALOG_INFO@@@Z ; SetTimer

; 1142 : 	g_functions.IsTimeOut = IsTimeOut;

  00113	c7 05 6c 00 00
	00 00 00 00 00	 mov	 DWORD PTR ?g_functions@@3UFunctions@@A+108, OFFSET FLAT:?IsTimeOut@@YGHPAUNPCDIALOG_INFO@@@Z ; IsTimeOut

; 1143 : 	g_functions.LaunchQuest = LaunchQuest;

  0011d	c7 05 70 00 00
	00 00 00 00 00	 mov	 DWORD PTR ?g_functions@@3UFunctions@@A+112, OFFSET FLAT:?LaunchQuest@@YGHPAUNPCDIALOG_INFO@@@Z ; LaunchQuest

; 1144 : 	g_functions.GetEmptyInventoryNum = GetEmptyInventoryNum;

  00127	c7 05 74 00 00
	00 00 00 00 00	 mov	 DWORD PTR ?g_functions@@3UFunctions@@A+116, OFFSET FLAT:?GetEmptyInventoryNum@@YGHPAUNPCDIALOG_INFO@@@Z ; GetEmptyInventoryNum

; 1145 : 	g_functions.GetQuestState = GetQuestState;

  00131	c7 05 78 00 00
	00 00 00 00 00	 mov	 DWORD PTR ?g_functions@@3UFunctions@@A+120, OFFSET FLAT:?GetQuestState@@YGHPAUNPCDIALOG_INFO@@H@Z ; GetQuestState

; 1146 : 	g_functions.IsSetQuest = IsSetQuest;

  0013b	c7 05 7c 00 00
	00 00 00 00 00	 mov	 DWORD PTR ?g_functions@@3UFunctions@@A+124, OFFSET FLAT:?IsSetQuest@@YGHPAUNPCDIALOG_INFO@@H@Z ; IsSetQuest

; 1147 : 	g_functions.SetMark = SetMark;

  00145	c7 05 80 00 00
	00 00 00 00 00	 mov	 DWORD PTR ?g_functions@@3UFunctions@@A+128, OFFSET FLAT:?SetMark@@YGHPAUNPCDIALOG_INFO@@@Z ; SetMark

; 1148 : 	g_functions.GoMark = GoMark;

  0014f	c7 05 84 00 00
	00 00 00 00 00	 mov	 DWORD PTR ?g_functions@@3UFunctions@@A+132, OFFSET FLAT:?GoMark@@YGHPAUNPCDIALOG_INFO@@@Z ; GoMark

; 1149 : 	g_functions.RandomIndex = RandomIndex;

  00159	c7 05 88 00 00
	00 00 00 00 00	 mov	 DWORD PTR ?g_functions@@3UFunctions@@A+136, OFFSET FLAT:?RandomIndex@@YGHPAUNPCDIALOG_INFO@@@Z ; RandomIndex

; 1150 : 	g_functions.RemoveKey = RemoveKey;

  00163	c7 05 8c 00 00
	00 00 00 00 00	 mov	 DWORD PTR ?g_functions@@3UFunctions@@A+140, OFFSET FLAT:?RemoveKey@@YGHPAUNPCDIALOG_INFO@@PBD@Z ; RemoveKey

; 1151 : 	g_functions.Say = Say;

  0016d	c7 05 90 00 00
	00 00 00 00 00	 mov	 DWORD PTR ?g_functions@@3UFunctions@@A+144, OFFSET FLAT:?Say@@YGHPAUNPCDIALOG_INFO@@PBD@Z ; Say

; 1152 : 	g_functions.EndSay = EndSay;

  00177	c7 05 94 00 00
	00 00 00 00 00	 mov	 DWORD PTR ?g_functions@@3UFunctions@@A+148, OFFSET FLAT:?EndSay@@YGHPAUNPCDIALOG_INFO@@@Z ; EndSay

; 1153 : 	g_functions.Random = Random;

  00181	c7 05 98 00 00
	00 00 00 00 00	 mov	 DWORD PTR ?g_functions@@3UFunctions@@A+152, OFFSET FLAT:?Random@@YGHPAUNPCDIALOG_INFO@@H@Z ; Random

; 1154 : 	g_functions.Exit = Exit;

  0018b	c7 05 9c 00 00
	00 00 00 00 00	 mov	 DWORD PTR ?g_functions@@3UFunctions@@A+156, OFFSET FLAT:?Exit@@YGHPAUNPCDIALOG_INFO@@@Z ; Exit

; 1155 : 	g_functions.SetScriptTimer = SetScriptTimer;

  00195	c7 05 a0 00 00
	00 00 00 00 00	 mov	 DWORD PTR ?g_functions@@3UFunctions@@A+160, OFFSET FLAT:?SetScriptTimer@@YGHPAUNPCDIALOG_INFO@@H@Z ; SetScriptTimer

; 1156 : 	g_functions.Replace = Replace;

  0019f	c7 05 a4 00 00
	00 00 00 00 00	 mov	 DWORD PTR ?g_functions@@3UFunctions@@A+164, OFFSET FLAT:?Replace@@YGHPAUNPCDIALOG_INFO@@HMMM@Z ; Replace

; 1157 : 	g_functions.ReplaceKey = ReplaceKey;

  001a9	c7 05 a8 00 00
	00 00 00 00 00	 mov	 DWORD PTR ?g_functions@@3UFunctions@@A+168, OFFSET FLAT:?ReplaceKey@@YGHPAUNPCDIALOG_INFO@@HPBD@Z ; ReplaceKey

; 1158 : 	g_functions.GetPlayerLvl = GetPlayerLvl;

  001b3	c7 05 ac 00 00
	00 00 00 00 00	 mov	 DWORD PTR ?g_functions@@3UFunctions@@A+172, OFFSET FLAT:?GetPlayerLvl@@YGHPAUNPCDIALOG_INFO@@@Z ; GetPlayerLvl

; 1159 : 	g_functions.GetPlayerJob = GetPlayerJob;

  001bd	c7 05 b0 00 00
	00 00 00 00 00	 mov	 DWORD PTR ?g_functions@@3UFunctions@@A+176, OFFSET FLAT:?GetPlayerJob@@YGHPAUNPCDIALOG_INFO@@@Z ; GetPlayerJob

; 1160 : 	g_functions.IsGuildQuest = IsGuildQuest;

  001c7	c7 05 b4 00 00
	00 00 00 00 00	 mov	 DWORD PTR ?g_functions@@3UFunctions@@A+180, OFFSET FLAT:?IsGuildQuest@@YGHPAUNPCDIALOG_INFO@@H@Z ; IsGuildQuest

; 1161 : 	g_functions.GetGuildQuestState = GetGuildQuestState;

  001d1	c7 05 b8 00 00
	00 00 00 00 00	 mov	 DWORD PTR ?g_functions@@3UFunctions@@A+184, OFFSET FLAT:?GetGuildQuestState@@YGHPAUNPCDIALOG_INFO@@H@Z ; GetGuildQuestState

; 1162 : 	g_functions.IsWormonServer = IsWormonServer;

  001db	c7 05 bc 00 00
	00 00 00 00 00	 mov	 DWORD PTR ?g_functions@@3UFunctions@@A+188, OFFSET FLAT:?IsWormonServer@@YGHPAUNPCDIALOG_INFO@@@Z ; IsWormonServer

; 1163 : 	g_functions.PrintSystemMessage = PrintSystemMessage;

  001e5	c7 05 c0 00 00
	00 00 00 00 00	 mov	 DWORD PTR ?g_functions@@3UFunctions@@A+192, OFFSET FLAT:?PrintSystemMessage@@YGHPAUNPCDIALOG_INFO@@H@Z ; PrintSystemMessage

; 1164 : 	g_functions.MonHuntStart = MonHuntStart;

  001ef	c7 05 c4 00 00
	00 00 00 00 00	 mov	 DWORD PTR ?g_functions@@3UFunctions@@A+196, OFFSET FLAT:?MonHuntStart@@YGHPAUNPCDIALOG_INFO@@HHHH@Z ; MonHuntStart

; 1165 : 	g_functions.MonHuntStartParty = MonHuntStartParty;

  001f9	c7 05 c8 00 00
	00 00 00 00 00	 mov	 DWORD PTR ?g_functions@@3UFunctions@@A+200, OFFSET FLAT:?MonHuntStartParty@@YGHPAUNPCDIALOG_INFO@@HHHH@Z ; MonHuntStartParty

; 1166 : 	g_functions.InitStat = InitStat;

  00203	c7 05 cc 00 00
	00 00 00 00 00	 mov	 DWORD PTR ?g_functions@@3UFunctions@@A+204, OFFSET FLAT:?InitStat@@YGHPAUNPCDIALOG_INFO@@@Z ; InitStat

; 1167 : 	g_functions.InitStr = InitStr;

  0020d	c7 05 d0 00 00
	00 00 00 00 00	 mov	 DWORD PTR ?g_functions@@3UFunctions@@A+208, OFFSET FLAT:?InitStr@@YGHPAUNPCDIALOG_INFO@@@Z ; InitStr

; 1168 : 	g_functions.InitSta = InitSta;

  00217	c7 05 d4 00 00
	00 00 00 00 00	 mov	 DWORD PTR ?g_functions@@3UFunctions@@A+212, OFFSET FLAT:?InitSta@@YGHPAUNPCDIALOG_INFO@@@Z ; InitSta

; 1169 : 	g_functions.InitDex = InitDex;

  00221	c7 05 d8 00 00
	00 00 00 00 00	 mov	 DWORD PTR ?g_functions@@3UFunctions@@A+216, OFFSET FLAT:?InitDex@@YGHPAUNPCDIALOG_INFO@@@Z ; InitDex

; 1170 : 	g_functions.InitInt = InitInt;

  0022b	c7 05 dc 00 00
	00 00 00 00 00	 mov	 DWORD PTR ?g_functions@@3UFunctions@@A+220, OFFSET FLAT:?InitInt@@YGHPAUNPCDIALOG_INFO@@@Z ; InitInt

; 1171 : 	g_functions.SetQuestState = SetQuestState;

  00235	c7 05 e0 00 00
	00 00 00 00 00	 mov	 DWORD PTR ?g_functions@@3UFunctions@@A+224, OFFSET FLAT:?SetQuestState@@YGHPAUNPCDIALOG_INFO@@HH@Z ; SetQuestState

; 1172 : 	g_functions.SetQuest = SetQuest;

  0023f	c7 05 e4 00 00
	00 00 00 00 00	 mov	 DWORD PTR ?g_functions@@3UFunctions@@A+228, OFFSET FLAT:?SetQuest@@YGHPAUNPCDIALOG_INFO@@H@Z ; SetQuest

; 1173 : 	g_functions.CreateItem = CreateItem;

  00249	c7 05 e8 00 00
	00 00 00 00 00	 mov	 DWORD PTR ?g_functions@@3UFunctions@@A+232, OFFSET FLAT:?CreateItem@@YGHPAUNPCDIALOG_INFO@@KH@Z ; CreateItem

; 1174 : 	g_functions.AddGold = AddGold;

  00253	c7 05 ec 00 00
	00 00 00 00 00	 mov	 DWORD PTR ?g_functions@@3UFunctions@@A+236, OFFSET FLAT:?AddGold@@YGHPAUNPCDIALOG_INFO@@H@Z ; AddGold

; 1175 : 	g_functions.RemoveGold = RemoveGold;

  0025d	c7 05 f0 00 00
	00 00 00 00 00	 mov	 DWORD PTR ?g_functions@@3UFunctions@@A+240, OFFSET FLAT:?RemoveGold@@YGHPAUNPCDIALOG_INFO@@H@Z ; RemoveGold

; 1176 : 	g_functions.GetPlayerGold = GetPlayerGold;

  00267	c7 05 f4 00 00
	00 00 00 00 00	 mov	 DWORD PTR ?g_functions@@3UFunctions@@A+244, OFFSET FLAT:?GetPlayerGold@@YGHPAUNPCDIALOG_INFO@@@Z ; GetPlayerGold

; 1177 : 	g_functions.GetLocalEventState = GetLocalEventState;

  00271	c7 05 f8 00 00
	00 00 00 00 00	 mov	 DWORD PTR ?g_functions@@3UFunctions@@A+248, OFFSET FLAT:?GetLocalEventState@@YGHPAUNPCDIALOG_INFO@@H@Z ; GetLocalEventState

; 1178 : 	g_functions.AddExp = AddExp;

  0027b	c7 05 fc 00 00
	00 00 00 00 00	 mov	 DWORD PTR ?g_functions@@3UFunctions@@A+252, OFFSET FLAT:?AddExp@@YGHPAUNPCDIALOG_INFO@@H@Z ; AddExp

; 1179 : 	g_functions.IsParty = IsParty;

  00285	c7 05 00 01 00
	00 00 00 00 00	 mov	 DWORD PTR ?g_functions@@3UFunctions@@A+256, OFFSET FLAT:?IsParty@@YGHPAUNPCDIALOG_INFO@@@Z ; IsParty

; 1180 : 	g_functions.IsPartyMaster = IsPartyMaster;

  0028f	c7 05 04 01 00
	00 00 00 00 00	 mov	 DWORD PTR ?g_functions@@3UFunctions@@A+260, OFFSET FLAT:?IsPartyMaster@@YGHPAUNPCDIALOG_INFO@@@Z ; IsPartyMaster

; 1181 : 	g_functions.GetPartyNum = GetPartyNum;

  00299	c7 05 08 01 00
	00 00 00 00 00	 mov	 DWORD PTR ?g_functions@@3UFunctions@@A+264, OFFSET FLAT:?GetPartyNum@@YGHPAUNPCDIALOG_INFO@@@Z ; GetPartyNum

; 1182 : 	g_functions.GetPartyLevel = GetPartyLevel;

  002a3	c7 05 0c 01 00
	00 00 00 00 00	 mov	 DWORD PTR ?g_functions@@3UFunctions@@A+268, OFFSET FLAT:?GetPartyLevel@@YGHPAUNPCDIALOG_INFO@@@Z ; GetPartyLevel

; 1183 : 	g_functions.IsPartyGuild = IsPartyGuild;

  002ad	c7 05 10 01 00
	00 00 00 00 00	 mov	 DWORD PTR ?g_functions@@3UFunctions@@A+272, OFFSET FLAT:?IsPartyGuild@@YGHPAUNPCDIALOG_INFO@@@Z ; IsPartyGuild

; 1184 : 	g_functions.IsGuild = IsGuild;

  002b7	c7 05 14 01 00
	00 00 00 00 00	 mov	 DWORD PTR ?g_functions@@3UFunctions@@A+276, OFFSET FLAT:?IsGuild@@YGHPAUNPCDIALOG_INFO@@@Z ; IsGuild

; 1185 : 	g_functions.IsGuildMaster = IsGuildMaster;

  002c1	c7 05 18 01 00
	00 00 00 00 00	 mov	 DWORD PTR ?g_functions@@3UFunctions@@A+280, OFFSET FLAT:?IsGuildMaster@@YGHPAUNPCDIALOG_INFO@@@Z ; IsGuildMaster

; 1186 : 	g_functions.CreateGuild = CreateGuild;

  002cb	c7 05 1c 01 00
	00 00 00 00 00	 mov	 DWORD PTR ?g_functions@@3UFunctions@@A+284, OFFSET FLAT:?CreateGuild@@YGHPAUNPCDIALOG_INFO@@@Z ; CreateGuild

; 1187 : 	g_functions.DestroyGuild = DestroyGuild;

  002d5	c7 05 20 01 00
	00 00 00 00 00	 mov	 DWORD PTR ?g_functions@@3UFunctions@@A+288, OFFSET FLAT:?DestroyGuild@@YGHPAUNPCDIALOG_INFO@@@Z ; DestroyGuild

; 1188 : 	g_functions.IsPlayerSkillPoint = IsPlayerSkillPoint;

  002df	c7 05 24 01 00
	00 00 00 00 00	 mov	 DWORD PTR ?g_functions@@3UFunctions@@A+292, OFFSET FLAT:?IsPlayerSkillPoint@@YGHPAUNPCDIALOG_INFO@@@Z ; IsPlayerSkillPoint

; 1189 : 	g_functions.ChangeJob = ChangeJob;

  002e9	c7 05 28 01 00
	00 00 00 00 00	 mov	 DWORD PTR ?g_functions@@3UFunctions@@A+296, OFFSET FLAT:?ChangeJob@@YGHPAUNPCDIALOG_INFO@@H@Z ; ChangeJob

; 1190 : 	g_functions.GetPlayerSex = GetPlayerSex;

  002f3	c7 05 2c 01 00
	00 00 00 00 00	 mov	 DWORD PTR ?g_functions@@3UFunctions@@A+300, OFFSET FLAT:?GetPlayerSex@@YGHPAUNPCDIALOG_INFO@@@Z ; GetPlayerSex

; 1191 : 	g_functions.GetItemNum = GetItemNum;

  002fd	c7 05 30 01 00
	00 00 00 00 00	 mov	 DWORD PTR ?g_functions@@3UFunctions@@A+304, OFFSET FLAT:?GetItemNum@@YGHPAUNPCDIALOG_INFO@@K@Z ; GetItemNum

; 1192 : 	g_functions.RemoveAllItem = RemoveAllItem;

  00307	c7 05 34 01 00
	00 00 00 00 00	 mov	 DWORD PTR ?g_functions@@3UFunctions@@A+308, OFFSET FLAT:?RemoveAllItem@@YGHPAUNPCDIALOG_INFO@@K@Z ; RemoveAllItem

; 1193 : 	g_functions.EquipItem = EquipItem;

  00311	c7 05 38 01 00
	00 00 00 00 00	 mov	 DWORD PTR ?g_functions@@3UFunctions@@A+312, OFFSET FLAT:?EquipItem@@YGHPAUNPCDIALOG_INFO@@K@Z ; EquipItem

; 1194 : 	g_functions.PlaySound = PlaySound;

  0031b	c7 05 3c 01 00
	00 00 00 00 00	 mov	 DWORD PTR ?g_functions@@3UFunctions@@A+316, OFFSET FLAT:?PlaySoundA@@YGHPAUNPCDIALOG_INFO@@PBD@Z ; PlaySoundA

; 1195 : 	g_functions.DropQuestItem = DropQuestItem;

  00325	c7 05 40 01 00
	00 00 00 00 00	 mov	 DWORD PTR ?g_functions@@3UFunctions@@A+320, OFFSET FLAT:?DropQuestItem@@YGHPAUNPCDIALOG_INFO@@KK@Z ; DropQuestItem

; 1196 : 	g_functions.ExpQuestEffect = ExpQuestEffect;

  0032f	c7 05 44 01 00
	00 00 00 00 00	 mov	 DWORD PTR ?g_functions@@3UFunctions@@A+324, OFFSET FLAT:?ExpQuestEffect@@YGHPAUNPCDIALOG_INFO@@KH@Z ; ExpQuestEffect

; 1197 : 	g_functions.RemoveItem = RemoveItem;

  00339	c7 05 48 01 00
	00 00 00 00 00	 mov	 DWORD PTR ?g_functions@@3UFunctions@@A+328, OFFSET FLAT:?RemoveItem@@YGHPAUNPCDIALOG_INFO@@KH@Z ; RemoveItem

; 1198 : 	g_functions.Run = Run;

  00343	c7 05 4c 01 00
	00 00 00 00 00	 mov	 DWORD PTR ?g_functions@@3UFunctions@@A+332, OFFSET FLAT:?Run@@YGHPAUNPCDIALOG_INFO@@PBDH@Z ; Run

; 1199 : 	g_functions.GetQuestId = GetQuestId;

  0034d	c7 05 50 01 00
	00 00 00 00 00	 mov	 DWORD PTR ?g_functions@@3UFunctions@@A+336, OFFSET FLAT:?GetQuestId@@YGHPAUNPCDIALOG_INFO@@@Z ; GetQuestId

; 1200 : 	g_functions.GetLang = GetLang;

  00357	c7 05 54 01 00
	00 00 00 00 00	 mov	 DWORD PTR ?g_functions@@3UFunctions@@A+340, OFFSET FLAT:?GetLang@@YGHPAUNPCDIALOG_INFO@@@Z ; GetLang

; 1201 : 	g_functions.QuerySetPlayerName = QuerySetPlayerName;

  00361	c7 05 58 01 00
	00 00 00 00 00	 mov	 DWORD PTR ?g_functions@@3UFunctions@@A+344, OFFSET FLAT:?QuerySetPlayerName@@YGHPAUNPCDIALOG_INFO@@@Z ; QuerySetPlayerName

; 1202 : 	g_functions.Trace = Trace;

  0036b	c7 05 5c 01 00
	00 00 00 00 00	 mov	 DWORD PTR ?g_functions@@3UFunctions@@A+348, OFFSET FLAT:?Trace@@YGHPAUNPCDIALOG_INFO@@PBD@Z ; Trace

; 1203 : 	g_functions.GetPlayerExpPercent = GetPlayerExpPercent;

  00375	c7 05 60 01 00
	00 00 00 00 00	 mov	 DWORD PTR ?g_functions@@3UFunctions@@A+352, OFFSET FLAT:?GetPlayerExpPercent@@YGHPAUNPCDIALOG_INFO@@@Z ; GetPlayerExpPercent

; 1204 : 	g_functions.SetLevel = SetLevel;

  0037f	c7 05 64 01 00
	00 00 00 00 00	 mov	 DWORD PTR ?g_functions@@3UFunctions@@A+356, OFFSET FLAT:?SetLevel@@YGHPAUNPCDIALOG_INFO@@H@Z ; SetLevel

; 1205 : 	g_functions.AddGPPoint = AddGPPoint;

  00389	c7 05 68 01 00
	00 00 00 00 00	 mov	 DWORD PTR ?g_functions@@3UFunctions@@A+360, OFFSET FLAT:?AddGPPoint@@YGHPAUNPCDIALOG_INFO@@H@Z ; AddGPPoint

; 1206 : }

  00393	c3		 ret	 0
?InitDialogFunctions@@YAXXZ ENDP			; InitDialogFunctions
_TEXT	ENDS
END
