; Listing generated by Microsoft (R) Optimizing Compiler Version 13.10.6030 

	TITLE	\Documents and Settings\test\Mes documents\Source\Virtuos_v17\Build\Program\_Network\Misc\Src\serverdesc.cpp
	.386P
include listing.inc
if @Version gt 510
.model FLAT
else
_TEXT	SEGMENT PARA USE32 PUBLIC 'CODE'
_TEXT	ENDS
_DATA	SEGMENT DWORD USE32 PUBLIC 'DATA'
_DATA	ENDS
CONST	SEGMENT DWORD USE32 PUBLIC 'CONST'
CONST	ENDS
_BSS	SEGMENT DWORD USE32 PUBLIC 'BSS'
_BSS	ENDS
$$SYMBOLS	SEGMENT BYTE USE32 'DEBSYM'
$$SYMBOLS	ENDS
$$TYPES	SEGMENT BYTE USE32 'DEBTYP'
$$TYPES	ENDS
_TLS	SEGMENT DWORD USE32 PUBLIC 'TLS'
_TLS	ENDS
;	COMDAT ??_C@_0BB@MOGOBHAF@list?$DMT?$DO?5too?5long?$AA@
CONST	SEGMENT DWORD USE32 PUBLIC 'CONST'
CONST	ENDS
xdata$x	SEGMENT DWORD USE32 PUBLIC 'CONST'
xdata$x	ENDS
text$AFX_COL1	SEGMENT PARA USE32 PUBLIC ''
text$AFX_COL1	ENDS
;	COMDAT ??0CServerDesc@@QAE@XZ
_TEXT	SEGMENT PARA USE32 PUBLIC 'CODE'
_TEXT	ENDS
;	COMDAT ??_GCServerDesc@@UAEPAXI@Z
_TEXT	SEGMENT PARA USE32 PUBLIC 'CODE'
_TEXT	ENDS
;	COMDAT ??1CServerDesc@@UAE@XZ
_TEXT	SEGMENT PARA USE32 PUBLIC 'CODE'
_TEXT	ENDS
;	COMDAT ?IsUnderJurisdiction@CServerDesc@@QAEHKABU_D3DVECTOR@@@Z
_TEXT	SEGMENT PARA USE32 PUBLIC 'CODE'
_TEXT	ENDS
;	COMDAT ?IsIntersected@CServerDesc@@QAEHK@Z
_TEXT	SEGMENT PARA USE32 PUBLIC 'CODE'
_TEXT	ENDS
;	COMDAT ?Serialize@CServerDesc@@QAEXAAVCAr@@@Z
_TEXT	SEGMENT PARA USE32 PUBLIC 'CODE'
_TEXT	ENDS
;	COMDAT ??0CServerDescArray@@QAE@XZ
_TEXT	SEGMENT PARA USE32 PUBLIC 'CODE'
_TEXT	ENDS
;	COMDAT ??_GCServerDescArray@@UAEPAXI@Z
_TEXT	SEGMENT PARA USE32 PUBLIC 'CODE'
_TEXT	ENDS
;	COMDAT ??1?$map@KPAVCServerDesc@@U?$less@K@std@@V?$allocator@U?$pair@$$CBKPAVCServerDesc@@@std@@@3@@std@@QAE@XZ
_TEXT	SEGMENT PARA USE32 PUBLIC 'CODE'
_TEXT	ENDS
;	COMDAT ??1CServerDescArray@@UAE@XZ
_TEXT	SEGMENT PARA USE32 PUBLIC 'CODE'
_TEXT	ENDS
;	COMDAT ?Free@CServerDescArray@@QAEXXZ
_TEXT	SEGMENT PARA USE32 PUBLIC 'CODE'
_TEXT	ENDS
;	COMDAT ?GetAt@CServerDescArray@@QAEPAVCServerDesc@@K@Z
_TEXT	SEGMENT PARA USE32 PUBLIC 'CODE'
_TEXT	ENDS
;	COMDAT ?compare@?$basic_string@DU?$char_traits@D@std@@V?$allocator@D@2@@std@@QBEHABV12@@Z
_TEXT	SEGMENT PARA USE32 PUBLIC 'CODE'
_TEXT	ENDS
;	COMDAT ?IsFull@?$CStack@K@@QAEHXZ
_TEXT	SEGMENT PARA USE32 PUBLIC 'CODE'
_TEXT	ENDS
;	COMDAT ??0?$pair@KPAVCCtrl@@@std@@QAE@ABKABQAVCCtrl@@@Z
_TEXT	SEGMENT PARA USE32 PUBLIC 'CODE'
_TEXT	ENDS
;	COMDAT ?GetMax@?$CItemContainer@VCItemElem@@@@QAEHXZ
_TEXT	SEGMENT PARA USE32 PUBLIC 'CODE'
_TEXT	ENDS
;	COMDAT ??0?$deque@PAUtagACTMSG@@V?$allocator@PAUtagACTMSG@@@std@@@std@@QAE@XZ
_TEXT	SEGMENT PARA USE32 PUBLIC 'CODE'
_TEXT	ENDS
;	COMDAT ??1?$deque@PAUtagACTMSG@@V?$allocator@PAUtagACTMSG@@@std@@@std@@QAE@XZ
_TEXT	SEGMENT PARA USE32 PUBLIC 'CODE'
_TEXT	ENDS
;	COMDAT ?begin@?$deque@PAUtagACTMSG@@V?$allocator@PAUtagACTMSG@@@std@@@std@@QAE?AViterator@12@XZ
_TEXT	SEGMENT PARA USE32 PUBLIC 'CODE'
_TEXT	ENDS
;	COMDAT ?end@?$deque@PAUtagACTMSG@@V?$allocator@PAUtagACTMSG@@@std@@@std@@QAE?AViterator@12@XZ
_TEXT	SEGMENT PARA USE32 PUBLIC 'CODE'
_TEXT	ENDS
;	COMDAT ?empty@?$deque@PAUtagACTMSG@@V?$allocator@PAUtagACTMSG@@@std@@@std@@QBE_NXZ
_TEXT	SEGMENT PARA USE32 PUBLIC 'CODE'
_TEXT	ENDS
;	COMDAT ?clear@?$deque@PAUtagACTMSG@@V?$allocator@PAUtagACTMSG@@@std@@@std@@QAEXXZ
_TEXT	SEGMENT PARA USE32 PUBLIC 'CODE'
_TEXT	ENDS
;	COMDAT ??0?$deque@PAUtagMAGICATKMSG@@V?$allocator@PAUtagMAGICATKMSG@@@std@@@std@@QAE@XZ
_TEXT	SEGMENT PARA USE32 PUBLIC 'CODE'
_TEXT	ENDS
;	COMDAT ??1?$deque@PAUtagMAGICATKMSG@@V?$allocator@PAUtagMAGICATKMSG@@@std@@@std@@QAE@XZ
_TEXT	SEGMENT PARA USE32 PUBLIC 'CODE'
_TEXT	ENDS
;	COMDAT ?begin@?$deque@PAUtagMAGICATKMSG@@V?$allocator@PAUtagMAGICATKMSG@@@std@@@std@@QAE?AViterator@12@XZ
_TEXT	SEGMENT PARA USE32 PUBLIC 'CODE'
_TEXT	ENDS
;	COMDAT ?end@?$deque@PAUtagMAGICATKMSG@@V?$allocator@PAUtagMAGICATKMSG@@@std@@@std@@QAE?AViterator@12@XZ
_TEXT	SEGMENT PARA USE32 PUBLIC 'CODE'
_TEXT	ENDS
;	COMDAT ?empty@?$deque@PAUtagMAGICATKMSG@@V?$allocator@PAUtagMAGICATKMSG@@@std@@@std@@QBE_NXZ
_TEXT	SEGMENT PARA USE32 PUBLIC 'CODE'
_TEXT	ENDS
;	COMDAT ?clear@?$deque@PAUtagMAGICATKMSG@@V?$allocator@PAUtagMAGICATKMSG@@@std@@@std@@QAEXXZ
_TEXT	SEGMENT PARA USE32 PUBLIC 'CODE'
_TEXT	ENDS
;	COMDAT ??0?$list@PAVCJurisdiction@@V?$allocator@PAVCJurisdiction@@@std@@@std@@QAE@XZ
_TEXT	SEGMENT PARA USE32 PUBLIC 'CODE'
_TEXT	ENDS
;	COMDAT ??1?$list@PAVCJurisdiction@@V?$allocator@PAVCJurisdiction@@@std@@@std@@QAE@XZ
_TEXT	SEGMENT PARA USE32 PUBLIC 'CODE'
_TEXT	ENDS
;	COMDAT ?begin@?$list@PAVCJurisdiction@@V?$allocator@PAVCJurisdiction@@@std@@@std@@QAE?AViterator@12@XZ
_TEXT	SEGMENT PARA USE32 PUBLIC 'CODE'
_TEXT	ENDS
;	COMDAT ?end@?$list@PAVCJurisdiction@@V?$allocator@PAVCJurisdiction@@@std@@@std@@QAE?AViterator@12@XZ
_TEXT	SEGMENT PARA USE32 PUBLIC 'CODE'
_TEXT	ENDS
;	COMDAT ?size@?$list@PAVCJurisdiction@@V?$allocator@PAVCJurisdiction@@@std@@@std@@QBEIXZ
_TEXT	SEGMENT PARA USE32 PUBLIC 'CODE'
_TEXT	ENDS
;	COMDAT ?front@?$list@PAVCJurisdiction@@V?$allocator@PAVCJurisdiction@@@std@@@std@@QAEAAPAVCJurisdiction@@XZ
_TEXT	SEGMENT PARA USE32 PUBLIC 'CODE'
_TEXT	ENDS
;	COMDAT ?pop_front@?$list@PAVCJurisdiction@@V?$allocator@PAVCJurisdiction@@@std@@@std@@QAEXXZ
_TEXT	SEGMENT PARA USE32 PUBLIC 'CODE'
_TEXT	ENDS
;	COMDAT ?push_back@?$list@PAVCJurisdiction@@V?$allocator@PAVCJurisdiction@@@std@@@std@@QAEXABQAVCJurisdiction@@@Z
_TEXT	SEGMENT PARA USE32 PUBLIC 'CODE'
_TEXT	ENDS
;	COMDAT ??0?$map@KPAVCServerDesc@@U?$less@K@std@@V?$allocator@U?$pair@$$CBKPAVCServerDesc@@@std@@@3@@std@@QAE@XZ
_TEXT	SEGMENT PARA USE32 PUBLIC 'CODE'
_TEXT	ENDS
;	COMDAT ??1?$_Tree@V?$_Tmap_traits@KPAVCServerDesc@@U?$less@K@std@@V?$allocator@U?$pair@$$CBKPAVCServerDesc@@@std@@@3@$0A@@std@@@std@@QAE@XZ
_TEXT	SEGMENT PARA USE32 PUBLIC 'CODE'
_TEXT	ENDS
;	COMDAT ?begin@?$_Tree@V?$_Tmap_traits@KPAVCServerDesc@@U?$less@K@std@@V?$allocator@U?$pair@$$CBKPAVCServerDesc@@@std@@@3@$0A@@std@@@std@@QAE?AViterator@12@XZ
_TEXT	SEGMENT PARA USE32 PUBLIC 'CODE'
_TEXT	ENDS
;	COMDAT ?end@?$_Tree@V?$_Tmap_traits@KPAVCServerDesc@@U?$less@K@std@@V?$allocator@U?$pair@$$CBKPAVCServerDesc@@@std@@@3@$0A@@std@@@std@@QAE?AViterator@12@XZ
_TEXT	SEGMENT PARA USE32 PUBLIC 'CODE'
_TEXT	ENDS
;	COMDAT ?clear@?$_Tree@V?$_Tmap_traits@KPAVCServerDesc@@U?$less@K@std@@V?$allocator@U?$pair@$$CBKPAVCServerDesc@@@std@@@3@$0A@@std@@@std@@QAEXXZ
_TEXT	SEGMENT PARA USE32 PUBLIC 'CODE'
_TEXT	ENDS
;	COMDAT ?find@?$_Tree@V?$_Tmap_traits@KPAVCServerDesc@@U?$less@K@std@@V?$allocator@U?$pair@$$CBKPAVCServerDesc@@@std@@@3@$0A@@std@@@std@@QAE?AViterator@12@ABK@Z
_TEXT	SEGMENT PARA USE32 PUBLIC 'CODE'
_TEXT	ENDS
;	COMDAT ??Diterator@?$deque@PAUtagACTMSG@@V?$allocator@PAUtagACTMSG@@@std@@@std@@QBEAAPAUtagACTMSG@@XZ
_TEXT	SEGMENT PARA USE32 PUBLIC 'CODE'
_TEXT	ENDS
;	COMDAT ??Eiterator@?$deque@PAUtagACTMSG@@V?$allocator@PAUtagACTMSG@@@std@@@std@@QAEAAV012@XZ
_TEXT	SEGMENT PARA USE32 PUBLIC 'CODE'
_TEXT	ENDS
;	COMDAT ??9const_iterator@?$deque@PAUtagACTMSG@@V?$allocator@PAUtagACTMSG@@@std@@@std@@QBE_NABV012@@Z
_TEXT	SEGMENT PARA USE32 PUBLIC 'CODE'
_TEXT	ENDS
;	COMDAT ??Diterator@?$deque@PAUtagMAGICATKMSG@@V?$allocator@PAUtagMAGICATKMSG@@@std@@@std@@QBEAAPAUtagMAGICATKMSG@@XZ
_TEXT	SEGMENT PARA USE32 PUBLIC 'CODE'
_TEXT	ENDS
;	COMDAT ??Eiterator@?$deque@PAUtagMAGICATKMSG@@V?$allocator@PAUtagMAGICATKMSG@@@std@@@std@@QAEAAV012@XZ
_TEXT	SEGMENT PARA USE32 PUBLIC 'CODE'
_TEXT	ENDS
;	COMDAT ??9const_iterator@?$deque@PAUtagMAGICATKMSG@@V?$allocator@PAUtagMAGICATKMSG@@@std@@@std@@QBE_NABV012@@Z
_TEXT	SEGMENT PARA USE32 PUBLIC 'CODE'
_TEXT	ENDS
;	COMDAT ??Diterator@?$list@PAVCJurisdiction@@V?$allocator@PAVCJurisdiction@@@std@@@std@@QBEAAPAVCJurisdiction@@XZ
_TEXT	SEGMENT PARA USE32 PUBLIC 'CODE'
_TEXT	ENDS
;	COMDAT ??Eiterator@?$list@PAVCJurisdiction@@V?$allocator@PAVCJurisdiction@@@std@@@std@@QAEAAV012@XZ
_TEXT	SEGMENT PARA USE32 PUBLIC 'CODE'
_TEXT	ENDS
;	COMDAT ??9const_iterator@?$list@PAVCJurisdiction@@V?$allocator@PAVCJurisdiction@@@std@@@std@@QBE_NABV012@@Z
_TEXT	SEGMENT PARA USE32 PUBLIC 'CODE'
_TEXT	ENDS
;	COMDAT ??Citerator@?$_Tree@V?$_Tmap_traits@KPAVCServerDesc@@U?$less@K@std@@V?$allocator@U?$pair@$$CBKPAVCServerDesc@@@std@@@3@$0A@@std@@@std@@QBEPAU?$pair@$$CBKPAVCServerDesc@@@2@XZ
_TEXT	SEGMENT PARA USE32 PUBLIC 'CODE'
_TEXT	ENDS
;	COMDAT ??Eiterator@?$_Tree@V?$_Tmap_traits@KPAVCServerDesc@@U?$less@K@std@@V?$allocator@U?$pair@$$CBKPAVCServerDesc@@@std@@@3@$0A@@std@@@std@@QAEAAV012@XZ
_TEXT	SEGMENT PARA USE32 PUBLIC 'CODE'
_TEXT	ENDS
;	COMDAT ??9const_iterator@?$_Tree@V?$_Tmap_traits@KPAVCServerDesc@@U?$less@K@std@@V?$allocator@U?$pair@$$CBKPAVCServerDesc@@@std@@@3@$0A@@std@@@std@@QBE_NABV012@@Z
_TEXT	SEGMENT PARA USE32 PUBLIC 'CODE'
_TEXT	ENDS
;	COMDAT ?compare@?$basic_string@DU?$char_traits@D@std@@V?$allocator@D@2@@std@@QBEHIIPBDI@Z
_TEXT	SEGMENT PARA USE32 PUBLIC 'CODE'
_TEXT	ENDS
;	COMDAT ?_Tidy@?$deque@PAUtagACTMSG@@V?$allocator@PAUtagACTMSG@@@std@@@std@@IAEXXZ
_TEXT	SEGMENT PARA USE32 PUBLIC 'CODE'
_TEXT	ENDS
;	COMDAT ??0?$_Deque_val@PAUtagACTMSG@@V?$allocator@PAUtagACTMSG@@@std@@@std@@IAE@V?$allocator@PAUtagACTMSG@@@1@@Z
_TEXT	SEGMENT PARA USE32 PUBLIC 'CODE'
_TEXT	ENDS
;	COMDAT ??0?$allocator@PAUtagACTMSG@@@std@@QAE@XZ
_TEXT	SEGMENT PARA USE32 PUBLIC 'CODE'
_TEXT	ENDS
;	COMDAT ?_Tidy@?$deque@PAUtagMAGICATKMSG@@V?$allocator@PAUtagMAGICATKMSG@@@std@@@std@@IAEXXZ
_TEXT	SEGMENT PARA USE32 PUBLIC 'CODE'
_TEXT	ENDS
;	COMDAT ??0?$_Deque_val@PAUtagMAGICATKMSG@@V?$allocator@PAUtagMAGICATKMSG@@@std@@@std@@IAE@V?$allocator@PAUtagMAGICATKMSG@@@1@@Z
_TEXT	SEGMENT PARA USE32 PUBLIC 'CODE'
_TEXT	ENDS
;	COMDAT ??0?$allocator@PAUtagMAGICATKMSG@@@std@@QAE@XZ
_TEXT	SEGMENT PARA USE32 PUBLIC 'CODE'
_TEXT	ENDS
;	COMDAT ?_Nextnode@?$list@PAVCJurisdiction@@V?$allocator@PAVCJurisdiction@@@std@@@std@@KAAAPAU_Node@?$_List_nod@PAVCJurisdiction@@V?$allocator@PAVCJurisdiction@@@std@@@2@PAU342@@Z
_TEXT	SEGMENT PARA USE32 PUBLIC 'CODE'
_TEXT	ENDS
;	COMDAT ?_Insert@?$list@PAVCJurisdiction@@V?$allocator@PAVCJurisdiction@@@std@@@std@@QAEXViterator@12@ABQAVCJurisdiction@@@Z
_TEXT	SEGMENT PARA USE32 PUBLIC 'CODE'
_TEXT	ENDS
;	COMDAT ?erase@?$list@PAVCJurisdiction@@V?$allocator@PAVCJurisdiction@@@std@@@std@@QAE?AViterator@12@V312@@Z
_TEXT	SEGMENT PARA USE32 PUBLIC 'CODE'
_TEXT	ENDS
;	COMDAT ?_Buynode@?$list@PAVCJurisdiction@@V?$allocator@PAVCJurisdiction@@@std@@@std@@IAEPAU_Node@?$_List_nod@PAVCJurisdiction@@V?$allocator@PAVCJurisdiction@@@std@@@2@XZ
_TEXT	SEGMENT PARA USE32 PUBLIC 'CODE'
_TEXT	ENDS
;	COMDAT ?_Tidy@?$list@PAVCJurisdiction@@V?$allocator@PAVCJurisdiction@@@std@@@std@@IAEXXZ
_TEXT	SEGMENT PARA USE32 PUBLIC 'CODE'
_TEXT	ENDS
;	COMDAT ??0?$_List_val@PAVCJurisdiction@@V?$allocator@PAVCJurisdiction@@@std@@@std@@IAE@V?$allocator@PAVCJurisdiction@@@1@@Z
_TEXT	SEGMENT PARA USE32 PUBLIC 'CODE'
_TEXT	ENDS
;	COMDAT ??0?$allocator@PAVCJurisdiction@@@std@@QAE@XZ
_TEXT	SEGMENT PARA USE32 PUBLIC 'CODE'
_TEXT	ENDS
;	COMDAT ?_Key@?$_Tree@V?$_Tmap_traits@KPAVCServerDesc@@U?$less@K@std@@V?$allocator@U?$pair@$$CBKPAVCServerDesc@@@std@@@3@$0A@@std@@@std@@KAABKPAU_Node@?$_Tree_nod@V?$_Tmap_traits@KPAVCServerDesc@@U?$less@K@std@@V?$allocator@U?$pair@$$CBKPAVCServerDesc@@@std@@@3@$0A@@std@@@2@@Z
_TEXT	SEGMENT PARA USE32 PUBLIC 'CODE'
_TEXT	ENDS
;	COMDAT ??0?$_Tree@V?$_Tmap_traits@KPAVCServerDesc@@U?$less@K@std@@V?$allocator@U?$pair@$$CBKPAVCServerDesc@@@std@@@3@$0A@@std@@@std@@QAE@ABU?$less@K@1@ABV?$allocator@U?$pair@$$CBKPAVCServerDesc@@@std@@@1@@Z
_TEXT	SEGMENT PARA USE32 PUBLIC 'CODE'
_TEXT	ENDS
;	COMDAT ?lower_bound@?$_Tree@V?$_Tmap_traits@KPAVCServerDesc@@U?$less@K@std@@V?$allocator@U?$pair@$$CBKPAVCServerDesc@@@std@@@3@$0A@@std@@@std@@QAE?AViterator@12@ABK@Z
_TEXT	SEGMENT PARA USE32 PUBLIC 'CODE'
_TEXT	ENDS
;	COMDAT ?_Erase@?$_Tree@V?$_Tmap_traits@KPAVCServerDesc@@U?$less@K@std@@V?$allocator@U?$pair@$$CBKPAVCServerDesc@@@std@@@3@$0A@@std@@@std@@IAEXPAU_Node@?$_Tree_nod@V?$_Tmap_traits@KPAVCServerDesc@@U?$less@K@std@@V?$allocator@U?$pair@$$CBKPAVCServerDesc@@@std@@@3@$0A@@std@@@2@@Z
_TEXT	SEGMENT PARA USE32 PUBLIC 'CODE'
_TEXT	ENDS
;	COMDAT ?_Lmost@?$_Tree@V?$_Tmap_traits@KPAVCServerDesc@@U?$less@K@std@@V?$allocator@U?$pair@$$CBKPAVCServerDesc@@@std@@@3@$0A@@std@@@std@@IAEAAPAU_Node@?$_Tree_nod@V?$_Tmap_traits@KPAVCServerDesc@@U?$less@K@std@@V?$allocator@U?$pair@$$CBKPAVCServerDesc@@@std@@@3@$0A@@std@@@2@XZ
_TEXT	SEGMENT PARA USE32 PUBLIC 'CODE'
_TEXT	ENDS
;	COMDAT ?_Rmost@?$_Tree@V?$_Tmap_traits@KPAVCServerDesc@@U?$less@K@std@@V?$allocator@U?$pair@$$CBKPAVCServerDesc@@@std@@@3@$0A@@std@@@std@@IAEAAPAU_Node@?$_Tree_nod@V?$_Tmap_traits@KPAVCServerDesc@@U?$less@K@std@@V?$allocator@U?$pair@$$CBKPAVCServerDesc@@@std@@@3@$0A@@std@@@2@XZ
_TEXT	SEGMENT PARA USE32 PUBLIC 'CODE'
_TEXT	ENDS
;	COMDAT ?_Root@?$_Tree@V?$_Tmap_traits@KPAVCServerDesc@@U?$less@K@std@@V?$allocator@U?$pair@$$CBKPAVCServerDesc@@@std@@@3@$0A@@std@@@std@@IAEAAPAU_Node@?$_Tree_nod@V?$_Tmap_traits@KPAVCServerDesc@@U?$less@K@std@@V?$allocator@U?$pair@$$CBKPAVCServerDesc@@@std@@@3@$0A@@std@@@2@XZ
_TEXT	SEGMENT PARA USE32 PUBLIC 'CODE'
_TEXT	ENDS
;	COMDAT ?_Tidy@?$_Tree@V?$_Tmap_traits@KPAVCServerDesc@@U?$less@K@std@@V?$allocator@U?$pair@$$CBKPAVCServerDesc@@@std@@@3@$0A@@std@@@std@@IAEXXZ
_TEXT	SEGMENT PARA USE32 PUBLIC 'CODE'
_TEXT	ENDS
;	COMDAT ??0?$allocator@U?$pair@$$CBKPAVCServerDesc@@@std@@@std@@QAE@XZ
_TEXT	SEGMENT PARA USE32 PUBLIC 'CODE'
_TEXT	ENDS
;	COMDAT ??0iterator@?$deque@PAUtagACTMSG@@V?$allocator@PAUtagACTMSG@@@std@@@std@@QAE@IPBV12@@Z
_TEXT	SEGMENT PARA USE32 PUBLIC 'CODE'
_TEXT	ENDS
;	COMDAT ??Dconst_iterator@?$deque@PAUtagACTMSG@@V?$allocator@PAUtagACTMSG@@@std@@@std@@QBEABQAUtagACTMSG@@XZ
_TEXT	SEGMENT PARA USE32 PUBLIC 'CODE'
_TEXT	ENDS
;	COMDAT ??8const_iterator@?$deque@PAUtagACTMSG@@V?$allocator@PAUtagACTMSG@@@std@@@std@@QBE_NABV012@@Z
_TEXT	SEGMENT PARA USE32 PUBLIC 'CODE'
_TEXT	ENDS
;	COMDAT ??0iterator@?$deque@PAUtagMAGICATKMSG@@V?$allocator@PAUtagMAGICATKMSG@@@std@@@std@@QAE@IPBV12@@Z
_TEXT	SEGMENT PARA USE32 PUBLIC 'CODE'
_TEXT	ENDS
;	COMDAT ??Dconst_iterator@?$deque@PAUtagMAGICATKMSG@@V?$allocator@PAUtagMAGICATKMSG@@@std@@@std@@QBEABQAUtagMAGICATKMSG@@XZ
_TEXT	SEGMENT PARA USE32 PUBLIC 'CODE'
_TEXT	ENDS
;	COMDAT ??8const_iterator@?$deque@PAUtagMAGICATKMSG@@V?$allocator@PAUtagMAGICATKMSG@@@std@@@std@@QBE_NABV012@@Z
_TEXT	SEGMENT PARA USE32 PUBLIC 'CODE'
_TEXT	ENDS
;	COMDAT ??0iterator@?$list@PAVCJurisdiction@@V?$allocator@PAVCJurisdiction@@@std@@@std@@QAE@PAU_Node@?$_List_nod@PAVCJurisdiction@@V?$allocator@PAVCJurisdiction@@@std@@@2@@Z
_TEXT	SEGMENT PARA USE32 PUBLIC 'CODE'
_TEXT	ENDS
;	COMDAT ??Dconst_iterator@?$list@PAVCJurisdiction@@V?$allocator@PAVCJurisdiction@@@std@@@std@@QBEABQAVCJurisdiction@@XZ
_TEXT	SEGMENT PARA USE32 PUBLIC 'CODE'
_TEXT	ENDS
;	COMDAT ??Econst_iterator@?$list@PAVCJurisdiction@@V?$allocator@PAVCJurisdiction@@@std@@@std@@QAEAAV012@XZ
_TEXT	SEGMENT PARA USE32 PUBLIC 'CODE'
_TEXT	ENDS
;	COMDAT ??8const_iterator@?$list@PAVCJurisdiction@@V?$allocator@PAVCJurisdiction@@@std@@@std@@QBE_NABV012@@Z
_TEXT	SEGMENT PARA USE32 PUBLIC 'CODE'
_TEXT	ENDS
;	COMDAT ??0iterator@?$_Tree@V?$_Tmap_traits@KPAVCServerDesc@@U?$less@K@std@@V?$allocator@U?$pair@$$CBKPAVCServerDesc@@@std@@@3@$0A@@std@@@std@@QAE@PAU_Node@?$_Tree_nod@V?$_Tmap_traits@KPAVCServerDesc@@U?$less@K@std@@V?$allocator@U?$pair@$$CBKPAVCServerDesc@@@std@@@3@$0A@@std@@@2@@Z
_TEXT	SEGMENT PARA USE32 PUBLIC 'CODE'
_TEXT	ENDS
;	COMDAT ??Diterator@?$_Tree@V?$_Tmap_traits@KPAVCServerDesc@@U?$less@K@std@@V?$allocator@U?$pair@$$CBKPAVCServerDesc@@@std@@@3@$0A@@std@@@std@@QBEAAU?$pair@$$CBKPAVCServerDesc@@@2@XZ
_TEXT	SEGMENT PARA USE32 PUBLIC 'CODE'
_TEXT	ENDS
;	COMDAT ??Econst_iterator@?$_Tree@V?$_Tmap_traits@KPAVCServerDesc@@U?$less@K@std@@V?$allocator@U?$pair@$$CBKPAVCServerDesc@@@std@@@3@$0A@@std@@@std@@QAEAAV012@XZ
_TEXT	SEGMENT PARA USE32 PUBLIC 'CODE'
_TEXT	ENDS
;	COMDAT ??8const_iterator@?$_Tree@V?$_Tmap_traits@KPAVCServerDesc@@U?$less@K@std@@V?$allocator@U?$pair@$$CBKPAVCServerDesc@@@std@@@3@$0A@@std@@@std@@QBE_NABV012@@Z
_TEXT	SEGMENT PARA USE32 PUBLIC 'CODE'
_TEXT	ENDS
;	COMDAT ?_Mynode@const_iterator@?$_Tree@V?$_Tmap_traits@KPAVCServerDesc@@U?$less@K@std@@V?$allocator@U?$pair@$$CBKPAVCServerDesc@@@std@@@3@$0A@@std@@@std@@QBEPAU_Node@?$_Tree_nod@V?$_Tmap_traits@KPAVCServerDesc@@U?$less@K@std@@V?$allocator@U?$pair@$$CBKPAVCServerDesc@@@std@@@3@$0A@@std@@@3@XZ
_TEXT	SEGMENT PARA USE32 PUBLIC 'CODE'
_TEXT	ENDS
;	COMDAT ?pop_back@?$deque@PAUtagACTMSG@@V?$allocator@PAUtagACTMSG@@@std@@@std@@QAEXXZ
_TEXT	SEGMENT PARA USE32 PUBLIC 'CODE'
_TEXT	ENDS
;	COMDAT ??0?$_Deque_map@PAUtagACTMSG@@V?$allocator@PAUtagACTMSG@@@std@@@std@@IAE@V?$allocator@PAUtagACTMSG@@@1@@Z
_TEXT	SEGMENT PARA USE32 PUBLIC 'CODE'
_TEXT	ENDS
;	COMDAT ??0?$allocator@PAUtagACTMSG@@@std@@QAE@ABV01@@Z
_TEXT	SEGMENT PARA USE32 PUBLIC 'CODE'
_TEXT	ENDS
;	COMDAT ?deallocate@?$allocator@PAUtagACTMSG@@@std@@QAEXPAPAUtagACTMSG@@I@Z
_TEXT	SEGMENT PARA USE32 PUBLIC 'CODE'
_TEXT	ENDS
;	COMDAT ?deallocate@?$allocator@PAPAUtagACTMSG@@@std@@QAEXPAPAPAUtagACTMSG@@I@Z
_TEXT	SEGMENT PARA USE32 PUBLIC 'CODE'
_TEXT	ENDS
;	COMDAT ?destroy@?$allocator@PAPAUtagACTMSG@@@std@@QAEXPAPAPAUtagACTMSG@@@Z
_TEXT	SEGMENT PARA USE32 PUBLIC 'CODE'
_TEXT	ENDS
;	COMDAT ?pop_back@?$deque@PAUtagMAGICATKMSG@@V?$allocator@PAUtagMAGICATKMSG@@@std@@@std@@QAEXXZ
_TEXT	SEGMENT PARA USE32 PUBLIC 'CODE'
_TEXT	ENDS
;	COMDAT ??0?$_Deque_map@PAUtagMAGICATKMSG@@V?$allocator@PAUtagMAGICATKMSG@@@std@@@std@@IAE@V?$allocator@PAUtagMAGICATKMSG@@@1@@Z
_TEXT	SEGMENT PARA USE32 PUBLIC 'CODE'
_TEXT	ENDS
;	COMDAT ??0?$allocator@PAUtagMAGICATKMSG@@@std@@QAE@ABV01@@Z
_TEXT	SEGMENT PARA USE32 PUBLIC 'CODE'
_TEXT	ENDS
;	COMDAT ?deallocate@?$allocator@PAUtagMAGICATKMSG@@@std@@QAEXPAPAUtagMAGICATKMSG@@I@Z
_TEXT	SEGMENT PARA USE32 PUBLIC 'CODE'
_TEXT	ENDS
;	COMDAT ?deallocate@?$allocator@PAPAUtagMAGICATKMSG@@@std@@QAEXPAPAPAUtagMAGICATKMSG@@I@Z
_TEXT	SEGMENT PARA USE32 PUBLIC 'CODE'
_TEXT	ENDS
;	COMDAT ?destroy@?$allocator@PAPAUtagMAGICATKMSG@@@std@@QAEXPAPAPAUtagMAGICATKMSG@@@Z
_TEXT	SEGMENT PARA USE32 PUBLIC 'CODE'
_TEXT	ENDS
;	COMDAT ?_Prevnode@?$list@PAVCJurisdiction@@V?$allocator@PAVCJurisdiction@@@std@@@std@@KAAAPAU_Node@?$_List_nod@PAVCJurisdiction@@V?$allocator@PAVCJurisdiction@@@std@@@2@PAU342@@Z
_TEXT	SEGMENT PARA USE32 PUBLIC 'CODE'
_TEXT	ENDS
;	COMDAT ?_Myval@?$list@PAVCJurisdiction@@V?$allocator@PAVCJurisdiction@@@std@@@std@@KAAAPAVCJurisdiction@@PAU_Node@?$_List_nod@PAVCJurisdiction@@V?$allocator@PAVCJurisdiction@@@std@@@2@@Z
_TEXT	SEGMENT PARA USE32 PUBLIC 'CODE'
_TEXT	ENDS
;	COMDAT ?clear@?$list@PAVCJurisdiction@@V?$allocator@PAVCJurisdiction@@@std@@@std@@QAEXXZ
_TEXT	SEGMENT PARA USE32 PUBLIC 'CODE'
_TEXT	ENDS
;	COMDAT ?_Buynode@?$list@PAVCJurisdiction@@V?$allocator@PAVCJurisdiction@@@std@@@std@@IAEPAU_Node@?$_List_nod@PAVCJurisdiction@@V?$allocator@PAVCJurisdiction@@@std@@@2@PAU342@0ABQAVCJurisdiction@@@Z
_TEXT	SEGMENT PARA USE32 PUBLIC 'CODE'
_TEXT	ENDS
;	COMDAT ?_Incsize@?$list@PAVCJurisdiction@@V?$allocator@PAVCJurisdiction@@@std@@@std@@IAEXI@Z
_TEXT	SEGMENT PARA USE32 PUBLIC 'CODE'
_TEXT	ENDS
;	COMDAT ??0?$_List_ptr@PAVCJurisdiction@@V?$allocator@PAVCJurisdiction@@@std@@@std@@IAE@V?$allocator@PAVCJurisdiction@@@1@@Z
_TEXT	SEGMENT PARA USE32 PUBLIC 'CODE'
_TEXT	ENDS
;	COMDAT ??0?$allocator@PAVCJurisdiction@@@std@@QAE@ABV01@@Z
_TEXT	SEGMENT PARA USE32 PUBLIC 'CODE'
_TEXT	ENDS
;	COMDAT ?deallocate@?$allocator@U_Node@?$_List_nod@PAVCJurisdiction@@V?$allocator@PAVCJurisdiction@@@std@@@std@@@std@@QAEXPAU_Node@?$_List_nod@PAVCJurisdiction@@V?$allocator@PAVCJurisdiction@@@std@@@2@I@Z
_TEXT	SEGMENT PARA USE32 PUBLIC 'CODE'
_TEXT	ENDS
;	COMDAT ?allocate@?$allocator@U_Node@?$_List_nod@PAVCJurisdiction@@V?$allocator@PAVCJurisdiction@@@std@@@std@@@std@@QAEPAU_Node@?$_List_nod@PAVCJurisdiction@@V?$allocator@PAVCJurisdiction@@@std@@@2@I@Z
_TEXT	SEGMENT PARA USE32 PUBLIC 'CODE'
_TEXT	ENDS
;	COMDAT ?destroy@?$allocator@U_Node@?$_List_nod@PAVCJurisdiction@@V?$allocator@PAVCJurisdiction@@@std@@@std@@@std@@QAEXPAU_Node@?$_List_nod@PAVCJurisdiction@@V?$allocator@PAVCJurisdiction@@@std@@@2@@Z
_TEXT	SEGMENT PARA USE32 PUBLIC 'CODE'
_TEXT	ENDS
;	COMDAT ?construct@?$allocator@PAU_Node@?$_List_nod@PAVCJurisdiction@@V?$allocator@PAVCJurisdiction@@@std@@@std@@@std@@QAEXPAPAU_Node@?$_List_nod@PAVCJurisdiction@@V?$allocator@PAVCJurisdiction@@@std@@@2@ABQAU342@@Z
_TEXT	SEGMENT PARA USE32 PUBLIC 'CODE'
_TEXT	ENDS
;	COMDAT ?destroy@?$allocator@PAU_Node@?$_List_nod@PAVCJurisdiction@@V?$allocator@PAVCJurisdiction@@@std@@@std@@@std@@QAEXPAPAU_Node@?$_List_nod@PAVCJurisdiction@@V?$allocator@PAVCJurisdiction@@@std@@@2@@Z
_TEXT	SEGMENT PARA USE32 PUBLIC 'CODE'
_TEXT	ENDS
;	COMDAT ?_Isnil@?$_Tree@V?$_Tmap_traits@KPAVCServerDesc@@U?$less@K@std@@V?$allocator@U?$pair@$$CBKPAVCServerDesc@@@std@@@3@$0A@@std@@@std@@KAAADPAU_Node@?$_Tree_nod@V?$_Tmap_traits@KPAVCServerDesc@@U?$less@K@std@@V?$allocator@U?$pair@$$CBKPAVCServerDesc@@@std@@@3@$0A@@std@@@2@@Z
_TEXT	SEGMENT PARA USE32 PUBLIC 'CODE'
_TEXT	ENDS
;	COMDAT ?_Left@?$_Tree@V?$_Tmap_traits@KPAVCServerDesc@@U?$less@K@std@@V?$allocator@U?$pair@$$CBKPAVCServerDesc@@@std@@@3@$0A@@std@@@std@@KAAAPAU_Node@?$_Tree_nod@V?$_Tmap_traits@KPAVCServerDesc@@U?$less@K@std@@V?$allocator@U?$pair@$$CBKPAVCServerDesc@@@std@@@3@$0A@@std@@@2@PAU342@@Z
_TEXT	SEGMENT PARA USE32 PUBLIC 'CODE'
_TEXT	ENDS
;	COMDAT ?_Parent@?$_Tree@V?$_Tmap_traits@KPAVCServerDesc@@U?$less@K@std@@V?$allocator@U?$pair@$$CBKPAVCServerDesc@@@std@@@3@$0A@@std@@@std@@KAAAPAU_Node@?$_Tree_nod@V?$_Tmap_traits@KPAVCServerDesc@@U?$less@K@std@@V?$allocator@U?$pair@$$CBKPAVCServerDesc@@@std@@@3@$0A@@std@@@2@PAU342@@Z
_TEXT	SEGMENT PARA USE32 PUBLIC 'CODE'
_TEXT	ENDS
;	COMDAT ?_Right@?$_Tree@V?$_Tmap_traits@KPAVCServerDesc@@U?$less@K@std@@V?$allocator@U?$pair@$$CBKPAVCServerDesc@@@std@@@3@$0A@@std@@@std@@KAAAPAU_Node@?$_Tree_nod@V?$_Tmap_traits@KPAVCServerDesc@@U?$less@K@std@@V?$allocator@U?$pair@$$CBKPAVCServerDesc@@@std@@@3@$0A@@std@@@2@PAU342@@Z
_TEXT	SEGMENT PARA USE32 PUBLIC 'CODE'
_TEXT	ENDS
;	COMDAT ?_Myval@?$_Tree@V?$_Tmap_traits@KPAVCServerDesc@@U?$less@K@std@@V?$allocator@U?$pair@$$CBKPAVCServerDesc@@@std@@@3@$0A@@std@@@std@@KAAAU?$pair@$$CBKPAVCServerDesc@@@2@PAU_Node@?$_Tree_nod@V?$_Tmap_traits@KPAVCServerDesc@@U?$less@K@std@@V?$allocator@U?$pair@$$CBKPAVCServerDesc@@@std@@@3@$0A@@std@@@2@@Z
_TEXT	SEGMENT PARA USE32 PUBLIC 'CODE'
_TEXT	ENDS
;	COMDAT ?erase@?$_Tree@V?$_Tmap_traits@KPAVCServerDesc@@U?$less@K@std@@V?$allocator@U?$pair@$$CBKPAVCServerDesc@@@std@@@3@$0A@@std@@@std@@QAE?AViterator@12@V312@0@Z
_TEXT	SEGMENT PARA USE32 PUBLIC 'CODE'
_TEXT	ENDS
;	COMDAT ?_Init@?$_Tree@V?$_Tmap_traits@KPAVCServerDesc@@U?$less@K@std@@V?$allocator@U?$pair@$$CBKPAVCServerDesc@@@std@@@3@$0A@@std@@@std@@IAEXXZ
_TEXT	SEGMENT PARA USE32 PUBLIC 'CODE'
_TEXT	ENDS
;	COMDAT ?_Lbound@?$_Tree@V?$_Tmap_traits@KPAVCServerDesc@@U?$less@K@std@@V?$allocator@U?$pair@$$CBKPAVCServerDesc@@@std@@@3@$0A@@std@@@std@@IBEPAU_Node@?$_Tree_nod@V?$_Tmap_traits@KPAVCServerDesc@@U?$less@K@std@@V?$allocator@U?$pair@$$CBKPAVCServerDesc@@@std@@@3@$0A@@std@@@2@ABK@Z
_TEXT	SEGMENT PARA USE32 PUBLIC 'CODE'
_TEXT	ENDS
;	COMDAT ??0?$_Tree_val@V?$_Tmap_traits@KPAVCServerDesc@@U?$less@K@std@@V?$allocator@U?$pair@$$CBKPAVCServerDesc@@@std@@@3@$0A@@std@@@std@@IAE@ABU?$less@K@1@V?$allocator@U?$pair@$$CBKPAVCServerDesc@@@std@@@1@@Z
_TEXT	SEGMENT PARA USE32 PUBLIC 'CODE'
_TEXT	ENDS
;	COMDAT ?_Kfn@?$_Tmap_traits@KPAVCServerDesc@@U?$less@K@std@@V?$allocator@U?$pair@$$CBKPAVCServerDesc@@@std@@@3@$0A@@std@@SAABKABU?$pair@$$CBKPAVCServerDesc@@@2@@Z
_TEXT	SEGMENT PARA USE32 PUBLIC 'CODE'
_TEXT	ENDS
;	COMDAT ??0?$allocator@U?$pair@$$CBKPAVCServerDesc@@@std@@@std@@QAE@ABV01@@Z
_TEXT	SEGMENT PARA USE32 PUBLIC 'CODE'
_TEXT	ENDS
;	COMDAT ?deallocate@?$allocator@U_Node@?$_Tree_nod@V?$_Tmap_traits@KPAVCServerDesc@@U?$less@K@std@@V?$allocator@U?$pair@$$CBKPAVCServerDesc@@@std@@@3@$0A@@std@@@std@@@std@@QAEXPAU_Node@?$_Tree_nod@V?$_Tmap_traits@KPAVCServerDesc@@U?$less@K@std@@V?$allocator@U?$pair@$$CBKPAVCServerDesc@@@std@@@3@$0A@@std@@@2@I@Z
_TEXT	SEGMENT PARA USE32 PUBLIC 'CODE'
_TEXT	ENDS
;	COMDAT ?destroy@?$allocator@U_Node@?$_Tree_nod@V?$_Tmap_traits@KPAVCServerDesc@@U?$less@K@std@@V?$allocator@U?$pair@$$CBKPAVCServerDesc@@@std@@@3@$0A@@std@@@std@@@std@@QAEXPAU_Node@?$_Tree_nod@V?$_Tmap_traits@KPAVCServerDesc@@U?$less@K@std@@V?$allocator@U?$pair@$$CBKPAVCServerDesc@@@std@@@3@$0A@@std@@@2@@Z
_TEXT	SEGMENT PARA USE32 PUBLIC 'CODE'
_TEXT	ENDS
;	COMDAT ?destroy@?$allocator@PAU_Node@?$_Tree_nod@V?$_Tmap_traits@KPAVCServerDesc@@U?$less@K@std@@V?$allocator@U?$pair@$$CBKPAVCServerDesc@@@std@@@3@$0A@@std@@@std@@@std@@QAEXPAPAU_Node@?$_Tree_nod@V?$_Tmap_traits@KPAVCServerDesc@@U?$less@K@std@@V?$allocator@U?$pair@$$CBKPAVCServerDesc@@@std@@@3@$0A@@std@@@2@@Z
_TEXT	SEGMENT PARA USE32 PUBLIC 'CODE'
_TEXT	ENDS
;	COMDAT ??0const_iterator@?$deque@PAUtagACTMSG@@V?$allocator@PAUtagACTMSG@@@std@@@std@@QAE@IPBV12@@Z
_TEXT	SEGMENT PARA USE32 PUBLIC 'CODE'
_TEXT	ENDS
;	COMDAT ??0const_iterator@?$deque@PAUtagMAGICATKMSG@@V?$allocator@PAUtagMAGICATKMSG@@@std@@@std@@QAE@IPBV12@@Z
_TEXT	SEGMENT PARA USE32 PUBLIC 'CODE'
_TEXT	ENDS
;	COMDAT ??Eiterator@?$list@PAVCJurisdiction@@V?$allocator@PAVCJurisdiction@@@std@@@std@@QAE?AV012@H@Z
_TEXT	SEGMENT PARA USE32 PUBLIC 'CODE'
_TEXT	ENDS
;	COMDAT ??0const_iterator@?$list@PAVCJurisdiction@@V?$allocator@PAVCJurisdiction@@@std@@@std@@QAE@PAU_Node@?$_List_nod@PAVCJurisdiction@@V?$allocator@PAVCJurisdiction@@@std@@@2@@Z
_TEXT	SEGMENT PARA USE32 PUBLIC 'CODE'
_TEXT	ENDS
;	COMDAT ?_Mynode@const_iterator@?$list@PAVCJurisdiction@@V?$allocator@PAVCJurisdiction@@@std@@@std@@QBEPAU_Node@?$_List_nod@PAVCJurisdiction@@V?$allocator@PAVCJurisdiction@@@std@@@3@XZ
_TEXT	SEGMENT PARA USE32 PUBLIC 'CODE'
_TEXT	ENDS
;	COMDAT ??0const_iterator@?$_Tree@V?$_Tmap_traits@KPAVCServerDesc@@U?$less@K@std@@V?$allocator@U?$pair@$$CBKPAVCServerDesc@@@std@@@3@$0A@@std@@@std@@QAE@PAU_Node@?$_Tree_nod@V?$_Tmap_traits@KPAVCServerDesc@@U?$less@K@std@@V?$allocator@U?$pair@$$CBKPAVCServerDesc@@@std@@@3@$0A@@std@@@2@@Z
_TEXT	SEGMENT PARA USE32 PUBLIC 'CODE'
_TEXT	ENDS
;	COMDAT ??Dconst_iterator@?$_Tree@V?$_Tmap_traits@KPAVCServerDesc@@U?$less@K@std@@V?$allocator@U?$pair@$$CBKPAVCServerDesc@@@std@@@3@$0A@@std@@@std@@QBEABU?$pair@$$CBKPAVCServerDesc@@@2@XZ
_TEXT	SEGMENT PARA USE32 PUBLIC 'CODE'
_TEXT	ENDS
;	COMDAT ?_Inc@const_iterator@?$_Tree@V?$_Tmap_traits@KPAVCServerDesc@@U?$less@K@std@@V?$allocator@U?$pair@$$CBKPAVCServerDesc@@@std@@@3@$0A@@std@@@std@@QAEXXZ
_TEXT	SEGMENT PARA USE32 PUBLIC 'CODE'
_TEXT	ENDS
;	COMDAT ?destroy@?$allocator@PAUtagACTMSG@@@std@@QAEXPAPAUtagACTMSG@@@Z
_TEXT	SEGMENT PARA USE32 PUBLIC 'CODE'
_TEXT	ENDS
;	COMDAT ?destroy@?$allocator@PAUtagMAGICATKMSG@@@std@@QAEXPAPAUtagMAGICATKMSG@@@Z
_TEXT	SEGMENT PARA USE32 PUBLIC 'CODE'
_TEXT	ENDS
;	COMDAT ?max_size@?$list@PAVCJurisdiction@@V?$allocator@PAVCJurisdiction@@@std@@@std@@QBEIXZ
_TEXT	SEGMENT PARA USE32 PUBLIC 'CODE'
_TEXT	ENDS
;	COMDAT ??0?$_List_nod@PAVCJurisdiction@@V?$allocator@PAVCJurisdiction@@@std@@@std@@IAE@V?$allocator@PAVCJurisdiction@@@1@@Z
_TEXT	SEGMENT PARA USE32 PUBLIC 'CODE'
_TEXT	ENDS
;	COMDAT ?erase@?$_Tree@V?$_Tmap_traits@KPAVCServerDesc@@U?$less@K@std@@V?$allocator@U?$pair@$$CBKPAVCServerDesc@@@std@@@3@$0A@@std@@@std@@QAE?AViterator@12@V312@@Z
_TEXT	SEGMENT PARA USE32 PUBLIC 'CODE'
_TEXT	ENDS
;	COMDAT ?_Min@?$_Tree@V?$_Tmap_traits@KPAVCServerDesc@@U?$less@K@std@@V?$allocator@U?$pair@$$CBKPAVCServerDesc@@@std@@@3@$0A@@std@@@std@@KAPAU_Node@?$_Tree_nod@V?$_Tmap_traits@KPAVCServerDesc@@U?$less@K@std@@V?$allocator@U?$pair@$$CBKPAVCServerDesc@@@std@@@3@$0A@@std@@@2@PAU342@@Z
_TEXT	SEGMENT PARA USE32 PUBLIC 'CODE'
_TEXT	ENDS
;	COMDAT ?_Root@?$_Tree@V?$_Tmap_traits@KPAVCServerDesc@@U?$less@K@std@@V?$allocator@U?$pair@$$CBKPAVCServerDesc@@@std@@@3@$0A@@std@@@std@@IBEAAPAU_Node@?$_Tree_nod@V?$_Tmap_traits@KPAVCServerDesc@@U?$less@K@std@@V?$allocator@U?$pair@$$CBKPAVCServerDesc@@@std@@@3@$0A@@std@@@2@XZ
_TEXT	SEGMENT PARA USE32 PUBLIC 'CODE'
_TEXT	ENDS
;	COMDAT ?_Buynode@?$_Tree@V?$_Tmap_traits@KPAVCServerDesc@@U?$less@K@std@@V?$allocator@U?$pair@$$CBKPAVCServerDesc@@@std@@@3@$0A@@std@@@std@@IAEPAU_Node@?$_Tree_nod@V?$_Tmap_traits@KPAVCServerDesc@@U?$less@K@std@@V?$allocator@U?$pair@$$CBKPAVCServerDesc@@@std@@@3@$0A@@std@@@2@XZ
_TEXT	SEGMENT PARA USE32 PUBLIC 'CODE'
_TEXT	ENDS
;	COMDAT ??0?$_Tree_ptr@V?$_Tmap_traits@KPAVCServerDesc@@U?$less@K@std@@V?$allocator@U?$pair@$$CBKPAVCServerDesc@@@std@@@3@$0A@@std@@@std@@IAE@ABU?$less@K@1@V?$allocator@U?$pair@$$CBKPAVCServerDesc@@@std@@@1@@Z
_TEXT	SEGMENT PARA USE32 PUBLIC 'CODE'
_TEXT	ENDS
;	COMDAT ??Eiterator@?$_Tree@V?$_Tmap_traits@KPAVCServerDesc@@U?$less@K@std@@V?$allocator@U?$pair@$$CBKPAVCServerDesc@@@std@@@3@$0A@@std@@@std@@QAE?AV012@H@Z
_TEXT	SEGMENT PARA USE32 PUBLIC 'CODE'
_TEXT	ENDS
;	COMDAT ??0_Node@?$_List_nod@PAVCJurisdiction@@V?$allocator@PAVCJurisdiction@@@std@@@std@@QAE@PAU012@0ABQAVCJurisdiction@@@Z
_TEXT	SEGMENT PARA USE32 PUBLIC 'CODE'
_TEXT	ENDS
;	COMDAT ?max_size@?$allocator@PAVCJurisdiction@@@std@@QBEIXZ
_TEXT	SEGMENT PARA USE32 PUBLIC 'CODE'
_TEXT	ENDS
;	COMDAT ?_Color@?$_Tree@V?$_Tmap_traits@KPAVCServerDesc@@U?$less@K@std@@V?$allocator@U?$pair@$$CBKPAVCServerDesc@@@std@@@3@$0A@@std@@@std@@KAAADPAU_Node@?$_Tree_nod@V?$_Tmap_traits@KPAVCServerDesc@@U?$less@K@std@@V?$allocator@U?$pair@$$CBKPAVCServerDesc@@@std@@@3@$0A@@std@@@2@@Z
_TEXT	SEGMENT PARA USE32 PUBLIC 'CODE'
_TEXT	ENDS
;	COMDAT ?_Lrotate@?$_Tree@V?$_Tmap_traits@KPAVCServerDesc@@U?$less@K@std@@V?$allocator@U?$pair@$$CBKPAVCServerDesc@@@std@@@3@$0A@@std@@@std@@IAEXPAU_Node@?$_Tree_nod@V?$_Tmap_traits@KPAVCServerDesc@@U?$less@K@std@@V?$allocator@U?$pair@$$CBKPAVCServerDesc@@@std@@@3@$0A@@std@@@2@@Z
_TEXT	SEGMENT PARA USE32 PUBLIC 'CODE'
_TEXT	ENDS
;	COMDAT ?_Max@?$_Tree@V?$_Tmap_traits@KPAVCServerDesc@@U?$less@K@std@@V?$allocator@U?$pair@$$CBKPAVCServerDesc@@@std@@@3@$0A@@std@@@std@@KAPAU_Node@?$_Tree_nod@V?$_Tmap_traits@KPAVCServerDesc@@U?$less@K@std@@V?$allocator@U?$pair@$$CBKPAVCServerDesc@@@std@@@3@$0A@@std@@@2@PAU342@@Z
_TEXT	SEGMENT PARA USE32 PUBLIC 'CODE'
_TEXT	ENDS
;	COMDAT ?_Rrotate@?$_Tree@V?$_Tmap_traits@KPAVCServerDesc@@U?$less@K@std@@V?$allocator@U?$pair@$$CBKPAVCServerDesc@@@std@@@3@$0A@@std@@@std@@IAEXPAU_Node@?$_Tree_nod@V?$_Tmap_traits@KPAVCServerDesc@@U?$less@K@std@@V?$allocator@U?$pair@$$CBKPAVCServerDesc@@@std@@@3@$0A@@std@@@2@@Z
_TEXT	SEGMENT PARA USE32 PUBLIC 'CODE'
_TEXT	ENDS
;	COMDAT ??0?$_Tree_nod@V?$_Tmap_traits@KPAVCServerDesc@@U?$less@K@std@@V?$allocator@U?$pair@$$CBKPAVCServerDesc@@@std@@@3@$0A@@std@@@std@@IAE@ABU?$less@K@1@V?$allocator@U?$pair@$$CBKPAVCServerDesc@@@std@@@1@@Z
_TEXT	SEGMENT PARA USE32 PUBLIC 'CODE'
_TEXT	ENDS
;	COMDAT ?allocate@?$allocator@U_Node@?$_Tree_nod@V?$_Tmap_traits@KPAVCServerDesc@@U?$less@K@std@@V?$allocator@U?$pair@$$CBKPAVCServerDesc@@@std@@@3@$0A@@std@@@std@@@std@@QAEPAU_Node@?$_Tree_nod@V?$_Tmap_traits@KPAVCServerDesc@@U?$less@K@std@@V?$allocator@U?$pair@$$CBKPAVCServerDesc@@@std@@@3@$0A@@std@@@2@I@Z
_TEXT	SEGMENT PARA USE32 PUBLIC 'CODE'
_TEXT	ENDS
;	COMDAT ?construct@?$allocator@PAU_Node@?$_Tree_nod@V?$_Tmap_traits@KPAVCServerDesc@@U?$less@K@std@@V?$allocator@U?$pair@$$CBKPAVCServerDesc@@@std@@@3@$0A@@std@@@std@@@std@@QAEXPAPAU_Node@?$_Tree_nod@V?$_Tmap_traits@KPAVCServerDesc@@U?$less@K@std@@V?$allocator@U?$pair@$$CBKPAVCServerDesc@@@std@@@3@$0A@@std@@@2@ABQAU342@@Z
_TEXT	SEGMENT PARA USE32 PUBLIC 'CODE'
_TEXT	ENDS
;	COMDAT ??0?$_Tmap_traits@KPAVCServerDesc@@U?$less@K@std@@V?$allocator@U?$pair@$$CBKPAVCServerDesc@@@std@@@3@$0A@@std@@QAE@U?$less@K@1@@Z
_TEXT	SEGMENT PARA USE32 PUBLIC 'CODE'
_TEXT	ENDS
;	COMDAT ??$_Iter_cat@Vconst_iterator@?$vector@EV?$allocator@E@std@@@std@@@std@@YA?AUrandom_access_iterator_tag@0@ABVconst_iterator@?$vector@EV?$allocator@E@std@@@0@@Z
_TEXT	SEGMENT PARA USE32 PUBLIC 'CODE'
_TEXT	ENDS
;	COMDAT ??$_Assign@Vconst_iterator@?$vector@EV?$allocator@E@std@@@std@@@?$vector@EV?$allocator@E@std@@@std@@QAEXVconst_iterator@01@0Uinput_iterator_tag@1@@Z
_TEXT	SEGMENT PARA USE32 PUBLIC 'CODE'
_TEXT	ENDS
;	COMDAT ??$_Iter_cat@Viterator@?$_Tree@V?$_Tmap_traits@KPAVCUser@@U?$less@K@std@@V?$allocator@U?$pair@$$CBKPAVCUser@@@std@@@3@$0A@@std@@@std@@@std@@YA?AUbidirectional_iterator_tag@0@ABViterator@?$_Tree@V?$_Tmap_traits@KPAVCUser@@U?$less@K@std@@V?$allocator@U?$pair@$$CBKPAVCUser@@@std@@@3@$0A@@std@@@0@@Z
_TEXT	SEGMENT PARA USE32 PUBLIC 'CODE'
_TEXT	ENDS
;	COMDAT ??$_Distance2@Viterator@?$_Tree@V?$_Tmap_traits@KPAVCUser@@U?$less@K@std@@V?$allocator@U?$pair@$$CBKPAVCUser@@@std@@@3@$0A@@std@@@std@@I@std@@YAXViterator@?$_Tree@V?$_Tmap_traits@KPAVCUser@@U?$less@K@std@@V?$allocator@U?$pair@$$CBKPAVCUser@@@std@@@3@$0A@@std@@@0@0AAIUbidirectional_iterator_tag@0@@Z
_TEXT	SEGMENT PARA USE32 PUBLIC 'CODE'
_TEXT	ENDS
;	COMDAT ??$_Iter_cat@Viterator@?$_Tree@V?$_Tmap_traits@KPAVCCtrl@@U?$less@K@std@@V?$allocator@U?$pair@$$CBKPAVCCtrl@@@std@@@3@$0A@@std@@@std@@@std@@YA?AUbidirectional_iterator_tag@0@ABViterator@?$_Tree@V?$_Tmap_traits@KPAVCCtrl@@U?$less@K@std@@V?$allocator@U?$pair@$$CBKPAVCCtrl@@@std@@@3@$0A@@std@@@0@@Z
_TEXT	SEGMENT PARA USE32 PUBLIC 'CODE'
_TEXT	ENDS
;	COMDAT ??$_Distance2@Viterator@?$_Tree@V?$_Tmap_traits@KPAVCCtrl@@U?$less@K@std@@V?$allocator@U?$pair@$$CBKPAVCCtrl@@@std@@@3@$0A@@std@@@std@@I@std@@YAXViterator@?$_Tree@V?$_Tmap_traits@KPAVCCtrl@@U?$less@K@std@@V?$allocator@U?$pair@$$CBKPAVCCtrl@@@std@@@3@$0A@@std@@@0@0AAIUbidirectional_iterator_tag@0@@Z
_TEXT	SEGMENT PARA USE32 PUBLIC 'CODE'
_TEXT	ENDS
;	COMDAT ??$_Uninitialized_copy@Vconst_iterator@?$vector@EV?$allocator@E@std@@@std@@PAEV?$allocator@E@3@@std@@YAPAEVconst_iterator@?$vector@EV?$allocator@E@std@@@0@0PAEAAV?$allocator@E@0@@Z
_TEXT	SEGMENT PARA USE32 PUBLIC 'CODE'
_TEXT	ENDS
;	COMDAT ??$_Iter_cat@Viterator@?$_Tree@V?$_Tmap_traits@KEU?$less@K@std@@V?$allocator@U?$pair@$$CBKE@std@@@2@$0A@@std@@@std@@@std@@YA?AUbidirectional_iterator_tag@0@ABViterator@?$_Tree@V?$_Tmap_traits@KEU?$less@K@std@@V?$allocator@U?$pair@$$CBKE@std@@@2@$0A@@std@@@0@@Z
_TEXT	SEGMENT PARA USE32 PUBLIC 'CODE'
_TEXT	ENDS
;	COMDAT ??$_Distance2@Viterator@?$_Tree@V?$_Tmap_traits@KEU?$less@K@std@@V?$allocator@U?$pair@$$CBKE@std@@@2@$0A@@std@@@std@@I@std@@YAXViterator@?$_Tree@V?$_Tmap_traits@KEU?$less@K@std@@V?$allocator@U?$pair@$$CBKE@std@@@2@$0A@@std@@@0@0AAIUbidirectional_iterator_tag@0@@Z
_TEXT	SEGMENT PARA USE32 PUBLIC 'CODE'
_TEXT	ENDS
;	COMDAT ??$_Ptr_cat@PAU__SPAWNREGION@CEventLua@@PAU12@@std@@YA?AU_Nonscalar_ptr_iterator_tag@0@AAPAU__SPAWNREGION@CEventLua@@0@Z
_TEXT	SEGMENT PARA USE32 PUBLIC 'CODE'
_TEXT	ENDS
;	COMDAT ??$_Uninit_fill_n@PAU__SPAWNREGION@CEventLua@@IU12@V?$allocator@U__SPAWNREGION@CEventLua@@@std@@@std@@YAXPAU__SPAWNREGION@CEventLua@@IABU12@AAV?$allocator@U__SPAWNREGION@CEventLua@@@0@U_Nonscalar_ptr_iterator_tag@0@@Z
_TEXT	SEGMENT PARA USE32 PUBLIC 'CODE'
_TEXT	ENDS
;	COMDAT ??$_Copy_opt@PAJPAJ@std@@YAPAJPAJ00U_Scalar_ptr_iterator_tag@0@@Z
_TEXT	SEGMENT PARA USE32 PUBLIC 'CODE'
_TEXT	ENDS
;	COMDAT ??$_Uninitialized_copy@PAJPAJV?$allocator@J@std@@@std@@YAPAJPAJ00AAV?$allocator@J@0@@Z
_TEXT	SEGMENT PARA USE32 PUBLIC 'CODE'
_TEXT	ENDS
;	COMDAT ??$_Copy_backward_opt@PAJPAJ@std@@YAPAJPAJ00U_Scalar_ptr_iterator_tag@0@@Z
_TEXT	SEGMENT PARA USE32 PUBLIC 'CODE'
_TEXT	ENDS
;	COMDAT ??$_Ptr_cat@PAUtagDROPITEM@@PAU1@@std@@YA?AU_Nonscalar_ptr_iterator_tag@0@AAPAUtagDROPITEM@@0@Z
_TEXT	SEGMENT PARA USE32 PUBLIC 'CODE'
_TEXT	ENDS
;	COMDAT ??$_Destroy_range@UtagDROPITEM@@V?$allocator@UtagDROPITEM@@@std@@@std@@YAXPAUtagDROPITEM@@0AAV?$allocator@UtagDROPITEM@@@0@U_Nonscalar_ptr_iterator_tag@0@@Z
_TEXT	SEGMENT PARA USE32 PUBLIC 'CODE'
_TEXT	ENDS
;	COMDAT ??$_Ptr_cat@PAUWORMON@@PAU1@@std@@YA?AU_Nonscalar_ptr_iterator_tag@0@AAPAUWORMON@@0@Z
_TEXT	SEGMENT PARA USE32 PUBLIC 'CODE'
_TEXT	ENDS
;	COMDAT ??$_Destroy_range@UWORMON@@V?$allocator@UWORMON@@@std@@@std@@YAXPAUWORMON@@0AAV?$allocator@UWORMON@@@0@U_Nonscalar_ptr_iterator_tag@0@@Z
_TEXT	SEGMENT PARA USE32 PUBLIC 'CODE'
_TEXT	ENDS
;	COMDAT ??$_Ptr_cat@PAU__ITEMGAME@CMiniGame@@PAU12@@std@@YA?AU_Nonscalar_ptr_iterator_tag@0@AAPAU__ITEMGAME@CMiniGame@@0@Z
_TEXT	SEGMENT PARA USE32 PUBLIC 'CODE'
_TEXT	ENDS
;	COMDAT ??$_Destroy_range@U__ITEMGAME@CMiniGame@@V?$allocator@U__ITEMGAME@CMiniGame@@@std@@@std@@YAXPAU__ITEMGAME@CMiniGame@@0AAV?$allocator@U__ITEMGAME@CMiniGame@@@0@U_Nonscalar_ptr_iterator_tag@0@@Z
_TEXT	SEGMENT PARA USE32 PUBLIC 'CODE'
_TEXT	ENDS
;	COMDAT ??$_Destroy_range@KV?$allocator@K@std@@@std@@YAXPAK0AAV?$allocator@K@0@U_Scalar_ptr_iterator_tag@0@@Z
_TEXT	SEGMENT PARA USE32 PUBLIC 'CODE'
_TEXT	ENDS
;	COMDAT ??$_Destroy_range@HV?$allocator@H@std@@@std@@YAXPAH0AAV?$allocator@H@0@U_Scalar_ptr_iterator_tag@0@@Z
_TEXT	SEGMENT PARA USE32 PUBLIC 'CODE'
_TEXT	ENDS
;	COMDAT ??$_Ptr_cat@PAU__ITEM@CExchange@@PAU12@@std@@YA?AU_Nonscalar_ptr_iterator_tag@0@AAPAU__ITEM@CExchange@@0@Z
_TEXT	SEGMENT PARA USE32 PUBLIC 'CODE'
_TEXT	ENDS
;	COMDAT ??$_Destroy_range@U__ITEM@CExchange@@V?$allocator@U__ITEM@CExchange@@@std@@@std@@YAXPAU__ITEM@CExchange@@0AAV?$allocator@U__ITEM@CExchange@@@0@U_Nonscalar_ptr_iterator_tag@0@@Z
_TEXT	SEGMENT PARA USE32 PUBLIC 'CODE'
_TEXT	ENDS
;	COMDAT ??$_Ptr_cat@PAU__POINT@CExchange@@PAU12@@std@@YA?AU_Nonscalar_ptr_iterator_tag@0@AAPAU__POINT@CExchange@@0@Z
_TEXT	SEGMENT PARA USE32 PUBLIC 'CODE'
_TEXT	ENDS
;	COMDAT ??$_Destroy_range@U__POINT@CExchange@@V?$allocator@U__POINT@CExchange@@@std@@@std@@YAXPAU__POINT@CExchange@@0AAV?$allocator@U__POINT@CExchange@@@0@U_Nonscalar_ptr_iterator_tag@0@@Z
_TEXT	SEGMENT PARA USE32 PUBLIC 'CODE'
_TEXT	ENDS
;	COMDAT ??$_Destroy_range@EV?$allocator@E@std@@@std@@YAXPAE0AAV?$allocator@E@0@U_Scalar_ptr_iterator_tag@0@@Z
_TEXT	SEGMENT PARA USE32 PUBLIC 'CODE'
_TEXT	ENDS
;	COMDAT ??$_Uninitialized_copy@PAU__SPAWNREGION@CEventLua@@PAU12@V?$allocator@U__SPAWNREGION@CEventLua@@@std@@@std@@YAPAU__SPAWNREGION@CEventLua@@PAU12@00AAV?$allocator@U__SPAWNREGION@CEventLua@@@0@@Z
_TEXT	SEGMENT PARA USE32 PUBLIC 'CODE'
_TEXT	ENDS
;	COMDAT ??$_Copy_backward_opt@PAU__SPAWNREGION@CEventLua@@PAU12@@std@@YAPAU__SPAWNREGION@CEventLua@@PAU12@00U_Nonscalar_ptr_iterator_tag@0@@Z
_TEXT	SEGMENT PARA USE32 PUBLIC 'CODE'
_TEXT	ENDS
;	COMDAT ??$_Ptr_cat@PAUD3DXVECTOR3@@PAU1@@std@@YA?AU_Nonscalar_ptr_iterator_tag@0@AAPAUD3DXVECTOR3@@0@Z
_TEXT	SEGMENT PARA USE32 PUBLIC 'CODE'
_TEXT	ENDS
;	COMDAT ??$_Destroy_range@UD3DXVECTOR3@@V?$allocator@UD3DXVECTOR3@@@std@@@std@@YAXPAUD3DXVECTOR3@@0AAV?$allocator@UD3DXVECTOR3@@@0@U_Nonscalar_ptr_iterator_tag@0@@Z
_TEXT	SEGMENT PARA USE32 PUBLIC 'CODE'
_TEXT	ENDS
;	COMDAT ??$_Ptr_cat@PAU_GIFTBOX@@PAU1@@std@@YA?AU_Nonscalar_ptr_iterator_tag@0@AAPAU_GIFTBOX@@0@Z
_TEXT	SEGMENT PARA USE32 PUBLIC 'CODE'
_TEXT	ENDS
;	COMDAT ??$_Destroy_range@U_GIFTBOX@@V?$allocator@U_GIFTBOX@@@std@@@std@@YAXPAU_GIFTBOX@@0AAV?$allocator@U_GIFTBOX@@@0@U_Nonscalar_ptr_iterator_tag@0@@Z
_TEXT	SEGMENT PARA USE32 PUBLIC 'CODE'
_TEXT	ENDS
;	COMDAT ??$_Destroy_range@JV?$allocator@J@std@@@std@@YAXPAJ0AAV?$allocator@J@0@U_Scalar_ptr_iterator_tag@0@@Z
_TEXT	SEGMENT PARA USE32 PUBLIC 'CODE'
_TEXT	ENDS
;	COMDAT ??$_Uninit_fill_n@JIJ@std@@YAXPAJIABJAAV?$allocator@J@0@U_Scalar_ptr_iterator_tag@0@@Z
_TEXT	SEGMENT PARA USE32 PUBLIC 'CODE'
_TEXT	ENDS
;	COMDAT ??$_Destroy_range@U__SPAWNREGION@CEventLua@@V?$allocator@U__SPAWNREGION@CEventLua@@@std@@@std@@YAXPAU__SPAWNREGION@CEventLua@@0AAV?$allocator@U__SPAWNREGION@CEventLua@@@0@U_Nonscalar_ptr_iterator_tag@0@@Z
_TEXT	SEGMENT PARA USE32 PUBLIC 'CODE'
_TEXT	ENDS
;	COMDAT ??$?0PAUtagACTMSG@@@?$allocator@PAPAUtagACTMSG@@@std@@QAE@ABV?$allocator@PAUtagACTMSG@@@1@@Z
_TEXT	SEGMENT PARA USE32 PUBLIC 'CODE'
_TEXT	ENDS
;	COMDAT ??$_Destroy@PAPAUtagACTMSG@@@std@@YAXPAPAPAUtagACTMSG@@@Z
_TEXT	SEGMENT PARA USE32 PUBLIC 'CODE'
_TEXT	ENDS
;	COMDAT ??$?0PAUtagMAGICATKMSG@@@?$allocator@PAPAUtagMAGICATKMSG@@@std@@QAE@ABV?$allocator@PAUtagMAGICATKMSG@@@1@@Z
_TEXT	SEGMENT PARA USE32 PUBLIC 'CODE'
_TEXT	ENDS
;	COMDAT ??$_Destroy@PAPAUtagMAGICATKMSG@@@std@@YAXPAPAPAUtagMAGICATKMSG@@@Z
_TEXT	SEGMENT PARA USE32 PUBLIC 'CODE'
_TEXT	ENDS
;	COMDAT ??$?0PAVCJurisdiction@@@?$allocator@PAU_Node@?$_List_nod@PAVCJurisdiction@@V?$allocator@PAVCJurisdiction@@@std@@@std@@@std@@QAE@ABV?$allocator@PAVCJurisdiction@@@1@@Z
_TEXT	SEGMENT PARA USE32 PUBLIC 'CODE'
_TEXT	ENDS
;	COMDAT ??$_Allocate@U_Node@?$_List_nod@PAVCJurisdiction@@V?$allocator@PAVCJurisdiction@@@std@@@std@@@std@@YAPAU_Node@?$_List_nod@PAVCJurisdiction@@V?$allocator@PAVCJurisdiction@@@std@@@0@IPAU120@@Z
_TEXT	SEGMENT PARA USE32 PUBLIC 'CODE'
_TEXT	ENDS
;	COMDAT ??$_Destroy@U_Node@?$_List_nod@PAVCJurisdiction@@V?$allocator@PAVCJurisdiction@@@std@@@std@@@std@@YAXPAU_Node@?$_List_nod@PAVCJurisdiction@@V?$allocator@PAVCJurisdiction@@@std@@@0@@Z
_TEXT	SEGMENT PARA USE32 PUBLIC 'CODE'
_TEXT	ENDS
;	COMDAT ??$_Construct@PAU_Node@?$_List_nod@PAVCJurisdiction@@V?$allocator@PAVCJurisdiction@@@std@@@std@@PAU123@@std@@YAXPAPAU_Node@?$_List_nod@PAVCJurisdiction@@V?$allocator@PAVCJurisdiction@@@std@@@0@ABQAU120@@Z
_TEXT	SEGMENT PARA USE32 PUBLIC 'CODE'
_TEXT	ENDS
;	COMDAT ??$_Destroy@PAU_Node@?$_List_nod@PAVCJurisdiction@@V?$allocator@PAVCJurisdiction@@@std@@@std@@@std@@YAXPAPAU_Node@?$_List_nod@PAVCJurisdiction@@V?$allocator@PAVCJurisdiction@@@std@@@0@@Z
_TEXT	SEGMENT PARA USE32 PUBLIC 'CODE'
_TEXT	ENDS
;	COMDAT ??$_Destroy@U_Node@?$_Tree_nod@V?$_Tmap_traits@KPAVCServerDesc@@U?$less@K@std@@V?$allocator@U?$pair@$$CBKPAVCServerDesc@@@std@@@3@$0A@@std@@@std@@@std@@YAXPAU_Node@?$_Tree_nod@V?$_Tmap_traits@KPAVCServerDesc@@U?$less@K@std@@V?$allocator@U?$pair@$$CBKPAVCServerDesc@@@std@@@3@$0A@@std@@@0@@Z
_TEXT	SEGMENT PARA USE32 PUBLIC 'CODE'
_TEXT	ENDS
;	COMDAT ??$_Destroy@PAU_Node@?$_Tree_nod@V?$_Tmap_traits@KPAVCServerDesc@@U?$less@K@std@@V?$allocator@U?$pair@$$CBKPAVCServerDesc@@@std@@@3@$0A@@std@@@std@@@std@@YAXPAPAU_Node@?$_Tree_nod@V?$_Tmap_traits@KPAVCServerDesc@@U?$less@K@std@@V?$allocator@U?$pair@$$CBKPAVCServerDesc@@@std@@@3@$0A@@std@@@0@@Z
_TEXT	SEGMENT PARA USE32 PUBLIC 'CODE'
_TEXT	ENDS
;	COMDAT ??$_Destroy@PAUtagACTMSG@@@std@@YAXPAPAUtagACTMSG@@@Z
_TEXT	SEGMENT PARA USE32 PUBLIC 'CODE'
_TEXT	ENDS
;	COMDAT ??$_Destroy@PAUtagMAGICATKMSG@@@std@@YAXPAPAUtagMAGICATKMSG@@@Z
_TEXT	SEGMENT PARA USE32 PUBLIC 'CODE'
_TEXT	ENDS
;	COMDAT ??$?0PAVCJurisdiction@@@?$allocator@U_Node@?$_List_nod@PAVCJurisdiction@@V?$allocator@PAVCJurisdiction@@@std@@@std@@@std@@QAE@ABV?$allocator@PAVCJurisdiction@@@1@@Z
_TEXT	SEGMENT PARA USE32 PUBLIC 'CODE'
_TEXT	ENDS
;	COMDAT ??$?0U?$pair@$$CBKPAVCServerDesc@@@std@@@?$allocator@PAU_Node@?$_Tree_nod@V?$_Tmap_traits@KPAVCServerDesc@@U?$less@K@std@@V?$allocator@U?$pair@$$CBKPAVCServerDesc@@@std@@@3@$0A@@std@@@std@@@std@@QAE@ABV?$allocator@U?$pair@$$CBKPAVCServerDesc@@@std@@@1@@Z
_TEXT	SEGMENT PARA USE32 PUBLIC 'CODE'
_TEXT	ENDS
;	COMDAT ??$?0U?$pair@$$CBKPAVCServerDesc@@@std@@@?$allocator@U_Node@?$_Tree_nod@V?$_Tmap_traits@KPAVCServerDesc@@U?$less@K@std@@V?$allocator@U?$pair@$$CBKPAVCServerDesc@@@std@@@3@$0A@@std@@@std@@@std@@QAE@ABV?$allocator@U?$pair@$$CBKPAVCServerDesc@@@std@@@1@@Z
_TEXT	SEGMENT PARA USE32 PUBLIC 'CODE'
_TEXT	ENDS
;	COMDAT ??$_Allocate@U_Node@?$_Tree_nod@V?$_Tmap_traits@KPAVCServerDesc@@U?$less@K@std@@V?$allocator@U?$pair@$$CBKPAVCServerDesc@@@std@@@3@$0A@@std@@@std@@@std@@YAPAU_Node@?$_Tree_nod@V?$_Tmap_traits@KPAVCServerDesc@@U?$less@K@std@@V?$allocator@U?$pair@$$CBKPAVCServerDesc@@@std@@@3@$0A@@std@@@0@IPAU120@@Z
_TEXT	SEGMENT PARA USE32 PUBLIC 'CODE'
_TEXT	ENDS
;	COMDAT ??$_Construct@PAU_Node@?$_Tree_nod@V?$_Tmap_traits@KPAVCServerDesc@@U?$less@K@std@@V?$allocator@U?$pair@$$CBKPAVCServerDesc@@@std@@@3@$0A@@std@@@std@@PAU123@@std@@YAXPAPAU_Node@?$_Tree_nod@V?$_Tmap_traits@KPAVCServerDesc@@U?$less@K@std@@V?$allocator@U?$pair@$$CBKPAVCServerDesc@@@std@@@3@$0A@@std@@@0@ABQAU120@@Z
_TEXT	SEGMENT PARA USE32 PUBLIC 'CODE'
_TEXT	ENDS
;	COMDAT ?destroy@?$allocator@UtagDROPITEM@@@std@@QAEXPAUtagDROPITEM@@@Z
_TEXT	SEGMENT PARA USE32 PUBLIC 'CODE'
_TEXT	ENDS
;	COMDAT ?destroy@?$allocator@UWORMON@@@std@@QAEXPAUWORMON@@@Z
_TEXT	SEGMENT PARA USE32 PUBLIC 'CODE'
_TEXT	ENDS
;	COMDAT ?destroy@?$allocator@U__ITEMGAME@CMiniGame@@@std@@QAEXPAU__ITEMGAME@CMiniGame@@@Z
_TEXT	SEGMENT PARA USE32 PUBLIC 'CODE'
_TEXT	ENDS
;	COMDAT ?destroy@?$allocator@U__ITEM@CExchange@@@std@@QAEXPAU__ITEM@CExchange@@@Z
_TEXT	SEGMENT PARA USE32 PUBLIC 'CODE'
_TEXT	ENDS
;	COMDAT ?destroy@?$allocator@U__POINT@CExchange@@@std@@QAEXPAU__POINT@CExchange@@@Z
_TEXT	SEGMENT PARA USE32 PUBLIC 'CODE'
_TEXT	ENDS
;	COMDAT ?begin@?$vector@EV?$allocator@E@std@@@std@@QAE?AViterator@12@XZ
_TEXT	SEGMENT PARA USE32 PUBLIC 'CODE'
_TEXT	ENDS
;	COMDAT ?end@?$vector@EV?$allocator@E@std@@@std@@QAE?AViterator@12@XZ
_TEXT	SEGMENT PARA USE32 PUBLIC 'CODE'
_TEXT	ENDS
;	COMDAT ?erase@?$vector@EV?$allocator@E@std@@@std@@QAE?AViterator@12@V312@0@Z
_TEXT	SEGMENT PARA USE32 PUBLIC 'CODE'
_TEXT	ENDS
;	COMDAT ?construct@?$allocator@U__SPAWNREGION@CEventLua@@@std@@QAEXPAU__SPAWNREGION@CEventLua@@ABU34@@Z
_TEXT	SEGMENT PARA USE32 PUBLIC 'CODE'
_TEXT	ENDS
;	COMDAT ?destroy@?$allocator@U__SPAWNREGION@CEventLua@@@std@@QAEXPAU__SPAWNREGION@CEventLua@@@Z
_TEXT	SEGMENT PARA USE32 PUBLIC 'CODE'
_TEXT	ENDS
;	COMDAT ?destroy@?$allocator@UD3DXVECTOR3@@@std@@QAEXPAUD3DXVECTOR3@@@Z
_TEXT	SEGMENT PARA USE32 PUBLIC 'CODE'
_TEXT	ENDS
;	COMDAT ?destroy@?$allocator@U_GIFTBOX@@@std@@QAEXPAU_GIFTBOX@@@Z
_TEXT	SEGMENT PARA USE32 PUBLIC 'CODE'
_TEXT	ENDS
;	COMDAT ??9const_iterator@?$vector@EV?$allocator@E@std@@@std@@QBE_NABV012@@Z
_TEXT	SEGMENT PARA USE32 PUBLIC 'CODE'
_TEXT	ENDS
;	COMDAT ??0iterator@?$vector@EV?$allocator@E@std@@@std@@QAE@PAE@Z
_TEXT	SEGMENT PARA USE32 PUBLIC 'CODE'
_TEXT	ENDS
;	COMDAT ??8const_iterator@?$vector@EV?$allocator@E@std@@@std@@QBE_NABV012@@Z
_TEXT	SEGMENT PARA USE32 PUBLIC 'CODE'
_TEXT	ENDS
;	COMDAT ??$insert@Vconst_iterator@?$vector@EV?$allocator@E@std@@@std@@@?$vector@EV?$allocator@E@std@@@std@@QAEXViterator@01@Vconst_iterator@01@1@Z
_TEXT	SEGMENT PARA USE32 PUBLIC 'CODE'
_TEXT	ENDS
;	COMDAT ??$_Ptr_cat@Vconst_iterator@?$vector@EV?$allocator@E@std@@@std@@PAE@std@@YA?AU_Nonscalar_ptr_iterator_tag@0@AAVconst_iterator@?$vector@EV?$allocator@E@std@@@0@AAPAE@Z
_TEXT	SEGMENT PARA USE32 PUBLIC 'CODE'
_TEXT	ENDS
;	COMDAT ??$_Uninit_copy@Vconst_iterator@?$vector@EV?$allocator@E@std@@@std@@PAEV?$allocator@E@3@@std@@YAPAEVconst_iterator@?$vector@EV?$allocator@E@std@@@0@0PAEAAV?$allocator@E@0@U_Nonscalar_ptr_iterator_tag@0@@Z
_TEXT	SEGMENT PARA USE32 PUBLIC 'CODE'
_TEXT	ENDS
;	COMDAT ??$_Uninit_copy@JJ@std@@YAPAJPAJ00AAV?$allocator@J@0@U_Scalar_ptr_iterator_tag@0@@Z
_TEXT	SEGMENT PARA USE32 PUBLIC 'CODE'
_TEXT	ENDS
;	COMDAT ??$_Uninit_copy@PAU__SPAWNREGION@CEventLua@@PAU12@V?$allocator@U__SPAWNREGION@CEventLua@@@std@@@std@@YAPAU__SPAWNREGION@CEventLua@@PAU12@00AAV?$allocator@U__SPAWNREGION@CEventLua@@@0@U_Nonscalar_ptr_iterator_tag@0@@Z
_TEXT	SEGMENT PARA USE32 PUBLIC 'CODE'
_TEXT	ENDS
;	COMDAT ??$fill_n@PAJIJ@std@@YAXPAJIABJ@Z
_TEXT	SEGMENT PARA USE32 PUBLIC 'CODE'
_TEXT	ENDS
;	COMDAT ??$_Destroy@UtagDROPITEM@@@std@@YAXPAUtagDROPITEM@@@Z
_TEXT	SEGMENT PARA USE32 PUBLIC 'CODE'
_TEXT	ENDS
;	COMDAT ??$_Destroy@UWORMON@@@std@@YAXPAUWORMON@@@Z
_TEXT	SEGMENT PARA USE32 PUBLIC 'CODE'
_TEXT	ENDS
;	COMDAT ??$_Destroy@U__ITEMGAME@CMiniGame@@@std@@YAXPAU__ITEMGAME@CMiniGame@@@Z
_TEXT	SEGMENT PARA USE32 PUBLIC 'CODE'
_TEXT	ENDS
;	COMDAT ??$_Destroy@U__ITEM@CExchange@@@std@@YAXPAU__ITEM@CExchange@@@Z
_TEXT	SEGMENT PARA USE32 PUBLIC 'CODE'
_TEXT	ENDS
;	COMDAT ??$_Destroy@U__POINT@CExchange@@@std@@YAXPAU__POINT@CExchange@@@Z
_TEXT	SEGMENT PARA USE32 PUBLIC 'CODE'
_TEXT	ENDS
;	COMDAT ??$copy@PAEPAE@std@@YAPAEPAE00@Z
_TEXT	SEGMENT PARA USE32 PUBLIC 'CODE'
_TEXT	ENDS
;	COMDAT ??$_Construct@U__SPAWNREGION@CEventLua@@U12@@std@@YAXPAU__SPAWNREGION@CEventLua@@ABU12@@Z
_TEXT	SEGMENT PARA USE32 PUBLIC 'CODE'
_TEXT	ENDS
;	COMDAT ??$_Destroy@U__SPAWNREGION@CEventLua@@@std@@YAXPAU__SPAWNREGION@CEventLua@@@Z
_TEXT	SEGMENT PARA USE32 PUBLIC 'CODE'
_TEXT	ENDS
;	COMDAT ??$_Destroy@UD3DXVECTOR3@@@std@@YAXPAUD3DXVECTOR3@@@Z
_TEXT	SEGMENT PARA USE32 PUBLIC 'CODE'
_TEXT	ENDS
;	COMDAT ??$_Destroy@U_GIFTBOX@@@std@@YAXPAU_GIFTBOX@@@Z
_TEXT	SEGMENT PARA USE32 PUBLIC 'CODE'
_TEXT	ENDS
;	COMDAT ?construct@?$allocator@E@std@@QAEXPAEABE@Z
_TEXT	SEGMENT PARA USE32 PUBLIC 'CODE'
_TEXT	ENDS
;	COMDAT ?destroy@?$allocator@E@std@@QAEXPAE@Z
_TEXT	SEGMENT PARA USE32 PUBLIC 'CODE'
_TEXT	ENDS
;	COMDAT ??Dconst_iterator@?$vector@EV?$allocator@E@std@@@std@@QBEABEXZ
_TEXT	SEGMENT PARA USE32 PUBLIC 'CODE'
_TEXT	ENDS
;	COMDAT ??Econst_iterator@?$vector@EV?$allocator@E@std@@@std@@QAEAAV012@XZ
_TEXT	SEGMENT PARA USE32 PUBLIC 'CODE'
_TEXT	ENDS
;	COMDAT ??$_Insert@Vconst_iterator@?$vector@EV?$allocator@E@std@@@std@@@?$vector@EV?$allocator@E@std@@@std@@QAEXViterator@01@Vconst_iterator@01@1Uforward_iterator_tag@1@@Z
_TEXT	SEGMENT PARA USE32 PUBLIC 'CODE'
_TEXT	ENDS
;	COMDAT ??$_Copy_opt@PAEPAE@std@@YAPAEPAE00U_Scalar_ptr_iterator_tag@0@@Z
_TEXT	SEGMENT PARA USE32 PUBLIC 'CODE'
_TEXT	ENDS
;	COMDAT ??$_Construct@EE@std@@YAXPAEABE@Z
_TEXT	SEGMENT PARA USE32 PUBLIC 'CODE'
_TEXT	ENDS
;	COMDAT ??$_Destroy@E@std@@YAXPAE@Z
_TEXT	SEGMENT PARA USE32 PUBLIC 'CODE'
_TEXT	ENDS
;	COMDAT ?capacity@?$vector@EV?$allocator@E@std@@@std@@QBEIXZ
_TEXT	SEGMENT PARA USE32 PUBLIC 'CODE'
_TEXT	ENDS
;	COMDAT ??Giterator@?$vector@EV?$allocator@E@std@@@std@@QBEHABVconst_iterator@12@@Z
_TEXT	SEGMENT PARA USE32 PUBLIC 'CODE'
_TEXT	ENDS
;	COMDAT ??Gconst_iterator@?$vector@EV?$allocator@E@std@@@std@@QBEHABV012@@Z
_TEXT	SEGMENT PARA USE32 PUBLIC 'CODE'
_TEXT	ENDS
;	COMDAT ??$_Distance@Vconst_iterator@?$vector@EV?$allocator@E@std@@@std@@I@std@@YAXVconst_iterator@?$vector@EV?$allocator@E@std@@@0@0AAI@Z
_TEXT	SEGMENT PARA USE32 PUBLIC 'CODE'
_TEXT	ENDS
;	COMDAT ??$_Ucopy@PAE@?$vector@EV?$allocator@E@std@@@std@@IAEPAEPAE00@Z
_TEXT	SEGMENT PARA USE32 PUBLIC 'CODE'
_TEXT	ENDS
;	COMDAT ??$advance@Vconst_iterator@?$vector@EV?$allocator@E@std@@@std@@H@std@@YAXAAVconst_iterator@?$vector@EV?$allocator@E@std@@@0@H@Z
_TEXT	SEGMENT PARA USE32 PUBLIC 'CODE'
_TEXT	ENDS
;	COMDAT ??$copy@Vconst_iterator@?$vector@EV?$allocator@E@std@@@std@@PAE@std@@YAPAEVconst_iterator@?$vector@EV?$allocator@E@std@@@0@0PAE@Z
_TEXT	SEGMENT PARA USE32 PUBLIC 'CODE'
_TEXT	ENDS
;	COMDAT ??$copy_backward@PAEPAE@std@@YAPAEPAE00@Z
_TEXT	SEGMENT PARA USE32 PUBLIC 'CODE'
_TEXT	ENDS
;	COMDAT ??$_Distance2@Vconst_iterator@?$vector@EV?$allocator@E@std@@@std@@I@std@@YAXVconst_iterator@?$vector@EV?$allocator@E@std@@@0@0AAIUrandom_access_iterator_tag@0@@Z
_TEXT	SEGMENT PARA USE32 PUBLIC 'CODE'
_TEXT	ENDS
;	COMDAT ??$_Uninitialized_copy@PAEPAEV?$allocator@E@std@@@std@@YAPAEPAE00AAV?$allocator@E@0@@Z
_TEXT	SEGMENT PARA USE32 PUBLIC 'CODE'
_TEXT	ENDS
;	COMDAT ??$_Advance@Vconst_iterator@?$vector@EV?$allocator@E@std@@@std@@H@std@@YAXAAVconst_iterator@?$vector@EV?$allocator@E@std@@@0@HUrandom_access_iterator_tag@0@@Z
_TEXT	SEGMENT PARA USE32 PUBLIC 'CODE'
_TEXT	ENDS
;	COMDAT ??$_Copy_opt@Vconst_iterator@?$vector@EV?$allocator@E@std@@@std@@PAE@std@@YAPAEVconst_iterator@?$vector@EV?$allocator@E@std@@@0@0PAEU_Nonscalar_ptr_iterator_tag@0@@Z
_TEXT	SEGMENT PARA USE32 PUBLIC 'CODE'
_TEXT	ENDS
;	COMDAT ??$_Copy_backward_opt@PAEPAE@std@@YAPAEPAE00U_Scalar_ptr_iterator_tag@0@@Z
_TEXT	SEGMENT PARA USE32 PUBLIC 'CODE'
_TEXT	ENDS
;	COMDAT ??Yconst_iterator@?$vector@EV?$allocator@E@std@@@std@@QAEAAV012@H@Z
_TEXT	SEGMENT PARA USE32 PUBLIC 'CODE'
_TEXT	ENDS
;	COMDAT ??$_Uninit_copy@EE@std@@YAPAEPAE00AAV?$allocator@E@0@U_Scalar_ptr_iterator_tag@0@@Z
_TEXT	SEGMENT PARA USE32 PUBLIC 'CODE'
_TEXT	ENDS
;	COMDAT ?deallocate@?$allocator@E@std@@QAEXPAEI@Z
_TEXT	SEGMENT PARA USE32 PUBLIC 'CODE'
_TEXT	ENDS
;	COMDAT ??$_Ucopy@Vconst_iterator@?$vector@EV?$allocator@E@std@@@std@@@?$vector@EV?$allocator@E@std@@@std@@IAEPAEVconst_iterator@01@0PAE@Z
_TEXT	SEGMENT PARA USE32 PUBLIC 'CODE'
_TEXT	ENDS
;	COMDAT ?allocate@?$allocator@E@std@@QAEPAEI@Z
_TEXT	SEGMENT PARA USE32 PUBLIC 'CODE'
_TEXT	ENDS
;	COMDAT ??$_Allocate@E@std@@YAPAEIPAE@Z
_TEXT	SEGMENT PARA USE32 PUBLIC 'CODE'
_TEXT	ENDS
;	COMDAT ?_Xlen@?$vector@EV?$allocator@E@std@@@std@@IBEXXZ
_TEXT	SEGMENT PARA USE32 PUBLIC 'CODE'
_TEXT	ENDS
;	COMDAT ??_C@_0BD@OLBABOEK@vector?$DMT?$DO?5too?5long?$AA@
CONST	SEGMENT DWORD USE32 PUBLIC 'CONST'
CONST	ENDS
;	COMDAT ?size@?$vector@EV?$allocator@E@std@@@std@@QBEIXZ
_TEXT	SEGMENT PARA USE32 PUBLIC 'CODE'
_TEXT	ENDS
;	COMDAT ?max_size@?$vector@EV?$allocator@E@std@@@std@@QBEIXZ
_TEXT	SEGMENT PARA USE32 PUBLIC 'CODE'
_TEXT	ENDS
;	COMDAT ?max_size@?$allocator@E@std@@QBEIXZ
_TEXT	SEGMENT PARA USE32 PUBLIC 'CODE'
_TEXT	ENDS
;	COMDAT ?_Ptr_cat@std@@YA?AU_Scalar_ptr_iterator_tag@1@PAE0@Z
_TEXT	SEGMENT PARA USE32 PUBLIC 'CODE'
_TEXT	ENDS
;	COMDAT ??0const_iterator@?$vector@EV?$allocator@E@std@@@std@@QAE@PAE@Z
_TEXT	SEGMENT PARA USE32 PUBLIC 'CODE'
_TEXT	ENDS
;	COMDAT ?_Destroy@?$vector@EV?$allocator@E@std@@@std@@IAEXPAE0@Z
_TEXT	SEGMENT PARA USE32 PUBLIC 'CODE'
_TEXT	ENDS
;	COMDAT ??$_Destroy_range@EV?$allocator@E@std@@@std@@YAXPAE0AAV?$allocator@E@0@@Z
_TEXT	SEGMENT PARA USE32 PUBLIC 'CODE'
_TEXT	ENDS
;	COMDAT ?_Ptr_cat@std@@YA?AU_Scalar_ptr_iterator_tag@1@PAJ0@Z
_TEXT	SEGMENT PARA USE32 PUBLIC 'CODE'
_TEXT	ENDS
;	COMDAT ??9const_iterator@?$_Tree@V?$_Tmap_traits@KEU?$less@K@std@@V?$allocator@U?$pair@$$CBKE@std@@@2@$0A@@std@@@std@@QBE_NABV012@@Z
_TEXT	SEGMENT PARA USE32 PUBLIC 'CODE'
_TEXT	ENDS
;	COMDAT ??8const_iterator@?$_Tree@V?$_Tmap_traits@KEU?$less@K@std@@V?$allocator@U?$pair@$$CBKE@std@@@2@$0A@@std@@@std@@QBE_NABV012@@Z
_TEXT	SEGMENT PARA USE32 PUBLIC 'CODE'
_TEXT	ENDS
;	COMDAT ??Eiterator@?$_Tree@V?$_Tmap_traits@KEU?$less@K@std@@V?$allocator@U?$pair@$$CBKE@std@@@2@$0A@@std@@@std@@QAEAAV012@XZ
_TEXT	SEGMENT PARA USE32 PUBLIC 'CODE'
_TEXT	ENDS
;	COMDAT ??Econst_iterator@?$_Tree@V?$_Tmap_traits@KEU?$less@K@std@@V?$allocator@U?$pair@$$CBKE@std@@@2@$0A@@std@@@std@@QAEAAV012@XZ
_TEXT	SEGMENT PARA USE32 PUBLIC 'CODE'
_TEXT	ENDS
;	COMDAT ?_Inc@const_iterator@?$_Tree@V?$_Tmap_traits@KEU?$less@K@std@@V?$allocator@U?$pair@$$CBKE@std@@@2@$0A@@std@@@std@@QAEXXZ
_TEXT	SEGMENT PARA USE32 PUBLIC 'CODE'
_TEXT	ENDS
;	COMDAT ?_Min@?$_Tree@V?$_Tmap_traits@KEU?$less@K@std@@V?$allocator@U?$pair@$$CBKE@std@@@2@$0A@@std@@@std@@KAPAU_Node@?$_Tree_nod@V?$_Tmap_traits@KEU?$less@K@std@@V?$allocator@U?$pair@$$CBKE@std@@@2@$0A@@std@@@2@PAU342@@Z
_TEXT	SEGMENT PARA USE32 PUBLIC 'CODE'
_TEXT	ENDS
;	COMDAT ?_Left@?$_Tree@V?$_Tmap_traits@KEU?$less@K@std@@V?$allocator@U?$pair@$$CBKE@std@@@2@$0A@@std@@@std@@KAAAPAU_Node@?$_Tree_nod@V?$_Tmap_traits@KEU?$less@K@std@@V?$allocator@U?$pair@$$CBKE@std@@@2@$0A@@std@@@2@PAU342@@Z
_TEXT	SEGMENT PARA USE32 PUBLIC 'CODE'
_TEXT	ENDS
;	COMDAT ?_Isnil@?$_Tree@V?$_Tmap_traits@KEU?$less@K@std@@V?$allocator@U?$pair@$$CBKE@std@@@2@$0A@@std@@@std@@KAAADPAU_Node@?$_Tree_nod@V?$_Tmap_traits@KEU?$less@K@std@@V?$allocator@U?$pair@$$CBKE@std@@@2@$0A@@std@@@2@@Z
_TEXT	SEGMENT PARA USE32 PUBLIC 'CODE'
_TEXT	ENDS
;	COMDAT ?_Parent@?$_Tree@V?$_Tmap_traits@KEU?$less@K@std@@V?$allocator@U?$pair@$$CBKE@std@@@2@$0A@@std@@@std@@KAAAPAU_Node@?$_Tree_nod@V?$_Tmap_traits@KEU?$less@K@std@@V?$allocator@U?$pair@$$CBKE@std@@@2@$0A@@std@@@2@PAU342@@Z
_TEXT	SEGMENT PARA USE32 PUBLIC 'CODE'
_TEXT	ENDS
;	COMDAT ?_Right@?$_Tree@V?$_Tmap_traits@KEU?$less@K@std@@V?$allocator@U?$pair@$$CBKE@std@@@2@$0A@@std@@@std@@KAAAPAU_Node@?$_Tree_nod@V?$_Tmap_traits@KEU?$less@K@std@@V?$allocator@U?$pair@$$CBKE@std@@@2@$0A@@std@@@2@PAU342@@Z
_TEXT	SEGMENT PARA USE32 PUBLIC 'CODE'
_TEXT	ENDS
;	COMDAT ??9const_iterator@?$_Tree@V?$_Tmap_traits@KPAVCCtrl@@U?$less@K@std@@V?$allocator@U?$pair@$$CBKPAVCCtrl@@@std@@@3@$0A@@std@@@std@@QBE_NABV012@@Z
_TEXT	SEGMENT PARA USE32 PUBLIC 'CODE'
_TEXT	ENDS
;	COMDAT ??8const_iterator@?$_Tree@V?$_Tmap_traits@KPAVCCtrl@@U?$less@K@std@@V?$allocator@U?$pair@$$CBKPAVCCtrl@@@std@@@3@$0A@@std@@@std@@QBE_NABV012@@Z
_TEXT	SEGMENT PARA USE32 PUBLIC 'CODE'
_TEXT	ENDS
;	COMDAT ??Eiterator@?$_Tree@V?$_Tmap_traits@KPAVCCtrl@@U?$less@K@std@@V?$allocator@U?$pair@$$CBKPAVCCtrl@@@std@@@3@$0A@@std@@@std@@QAEAAV012@XZ
_TEXT	SEGMENT PARA USE32 PUBLIC 'CODE'
_TEXT	ENDS
;	COMDAT ??Econst_iterator@?$_Tree@V?$_Tmap_traits@KPAVCCtrl@@U?$less@K@std@@V?$allocator@U?$pair@$$CBKPAVCCtrl@@@std@@@3@$0A@@std@@@std@@QAEAAV012@XZ
_TEXT	SEGMENT PARA USE32 PUBLIC 'CODE'
_TEXT	ENDS
;	COMDAT ?_Inc@const_iterator@?$_Tree@V?$_Tmap_traits@KPAVCCtrl@@U?$less@K@std@@V?$allocator@U?$pair@$$CBKPAVCCtrl@@@std@@@3@$0A@@std@@@std@@QAEXXZ
_TEXT	SEGMENT PARA USE32 PUBLIC 'CODE'
_TEXT	ENDS
;	COMDAT ?_Min@?$_Tree@V?$_Tmap_traits@KPAVCCtrl@@U?$less@K@std@@V?$allocator@U?$pair@$$CBKPAVCCtrl@@@std@@@3@$0A@@std@@@std@@KAPAU_Node@?$_Tree_nod@V?$_Tmap_traits@KPAVCCtrl@@U?$less@K@std@@V?$allocator@U?$pair@$$CBKPAVCCtrl@@@std@@@3@$0A@@std@@@2@PAU342@@Z
_TEXT	SEGMENT PARA USE32 PUBLIC 'CODE'
_TEXT	ENDS
;	COMDAT ?_Left@?$_Tree@V?$_Tmap_traits@KPAVCCtrl@@U?$less@K@std@@V?$allocator@U?$pair@$$CBKPAVCCtrl@@@std@@@3@$0A@@std@@@std@@KAAAPAU_Node@?$_Tree_nod@V?$_Tmap_traits@KPAVCCtrl@@U?$less@K@std@@V?$allocator@U?$pair@$$CBKPAVCCtrl@@@std@@@3@$0A@@std@@@2@PAU342@@Z
_TEXT	SEGMENT PARA USE32 PUBLIC 'CODE'
_TEXT	ENDS
;	COMDAT ?_Isnil@?$_Tree@V?$_Tmap_traits@KPAVCCtrl@@U?$less@K@std@@V?$allocator@U?$pair@$$CBKPAVCCtrl@@@std@@@3@$0A@@std@@@std@@KAAADPAU_Node@?$_Tree_nod@V?$_Tmap_traits@KPAVCCtrl@@U?$less@K@std@@V?$allocator@U?$pair@$$CBKPAVCCtrl@@@std@@@3@$0A@@std@@@2@@Z
_TEXT	SEGMENT PARA USE32 PUBLIC 'CODE'
_TEXT	ENDS
;	COMDAT ?_Parent@?$_Tree@V?$_Tmap_traits@KPAVCCtrl@@U?$less@K@std@@V?$allocator@U?$pair@$$CBKPAVCCtrl@@@std@@@3@$0A@@std@@@std@@KAAAPAU_Node@?$_Tree_nod@V?$_Tmap_traits@KPAVCCtrl@@U?$less@K@std@@V?$allocator@U?$pair@$$CBKPAVCCtrl@@@std@@@3@$0A@@std@@@2@PAU342@@Z
_TEXT	SEGMENT PARA USE32 PUBLIC 'CODE'
_TEXT	ENDS
;	COMDAT ?_Right@?$_Tree@V?$_Tmap_traits@KPAVCCtrl@@U?$less@K@std@@V?$allocator@U?$pair@$$CBKPAVCCtrl@@@std@@@3@$0A@@std@@@std@@KAAAPAU_Node@?$_Tree_nod@V?$_Tmap_traits@KPAVCCtrl@@U?$less@K@std@@V?$allocator@U?$pair@$$CBKPAVCCtrl@@@std@@@3@$0A@@std@@@2@PAU342@@Z
_TEXT	SEGMENT PARA USE32 PUBLIC 'CODE'
_TEXT	ENDS
;	COMDAT ??9const_iterator@?$_Tree@V?$_Tmap_traits@KPAVCUser@@U?$less@K@std@@V?$allocator@U?$pair@$$CBKPAVCUser@@@std@@@3@$0A@@std@@@std@@QBE_NABV012@@Z
_TEXT	SEGMENT PARA USE32 PUBLIC 'CODE'
_TEXT	ENDS
;	COMDAT ??8const_iterator@?$_Tree@V?$_Tmap_traits@KPAVCUser@@U?$less@K@std@@V?$allocator@U?$pair@$$CBKPAVCUser@@@std@@@3@$0A@@std@@@std@@QBE_NABV012@@Z
_TEXT	SEGMENT PARA USE32 PUBLIC 'CODE'
_TEXT	ENDS
;	COMDAT ??Eiterator@?$_Tree@V?$_Tmap_traits@KPAVCUser@@U?$less@K@std@@V?$allocator@U?$pair@$$CBKPAVCUser@@@std@@@3@$0A@@std@@@std@@QAEAAV012@XZ
_TEXT	SEGMENT PARA USE32 PUBLIC 'CODE'
_TEXT	ENDS
;	COMDAT ??Econst_iterator@?$_Tree@V?$_Tmap_traits@KPAVCUser@@U?$less@K@std@@V?$allocator@U?$pair@$$CBKPAVCUser@@@std@@@3@$0A@@std@@@std@@QAEAAV012@XZ
_TEXT	SEGMENT PARA USE32 PUBLIC 'CODE'
_TEXT	ENDS
;	COMDAT ?_Inc@const_iterator@?$_Tree@V?$_Tmap_traits@KPAVCUser@@U?$less@K@std@@V?$allocator@U?$pair@$$CBKPAVCUser@@@std@@@3@$0A@@std@@@std@@QAEXXZ
_TEXT	SEGMENT PARA USE32 PUBLIC 'CODE'
_TEXT	ENDS
;	COMDAT ?_Min@?$_Tree@V?$_Tmap_traits@KPAVCUser@@U?$less@K@std@@V?$allocator@U?$pair@$$CBKPAVCUser@@@std@@@3@$0A@@std@@@std@@KAPAU_Node@?$_Tree_nod@V?$_Tmap_traits@KPAVCUser@@U?$less@K@std@@V?$allocator@U?$pair@$$CBKPAVCUser@@@std@@@3@$0A@@std@@@2@PAU342@@Z
_TEXT	SEGMENT PARA USE32 PUBLIC 'CODE'
_TEXT	ENDS
;	COMDAT ?_Left@?$_Tree@V?$_Tmap_traits@KPAVCUser@@U?$less@K@std@@V?$allocator@U?$pair@$$CBKPAVCUser@@@std@@@3@$0A@@std@@@std@@KAAAPAU_Node@?$_Tree_nod@V?$_Tmap_traits@KPAVCUser@@U?$less@K@std@@V?$allocator@U?$pair@$$CBKPAVCUser@@@std@@@3@$0A@@std@@@2@PAU342@@Z
_TEXT	SEGMENT PARA USE32 PUBLIC 'CODE'
_TEXT	ENDS
;	COMDAT ?_Isnil@?$_Tree@V?$_Tmap_traits@KPAVCUser@@U?$less@K@std@@V?$allocator@U?$pair@$$CBKPAVCUser@@@std@@@3@$0A@@std@@@std@@KAAADPAU_Node@?$_Tree_nod@V?$_Tmap_traits@KPAVCUser@@U?$less@K@std@@V?$allocator@U?$pair@$$CBKPAVCUser@@@std@@@3@$0A@@std@@@2@@Z
_TEXT	SEGMENT PARA USE32 PUBLIC 'CODE'
_TEXT	ENDS
;	COMDAT ?_Parent@?$_Tree@V?$_Tmap_traits@KPAVCUser@@U?$less@K@std@@V?$allocator@U?$pair@$$CBKPAVCUser@@@std@@@3@$0A@@std@@@std@@KAAAPAU_Node@?$_Tree_nod@V?$_Tmap_traits@KPAVCUser@@U?$less@K@std@@V?$allocator@U?$pair@$$CBKPAVCUser@@@std@@@3@$0A@@std@@@2@PAU342@@Z
_TEXT	SEGMENT PARA USE32 PUBLIC 'CODE'
_TEXT	ENDS
;	COMDAT ?_Right@?$_Tree@V?$_Tmap_traits@KPAVCUser@@U?$less@K@std@@V?$allocator@U?$pair@$$CBKPAVCUser@@@std@@@3@$0A@@std@@@std@@KAAAPAU_Node@?$_Tree_nod@V?$_Tmap_traits@KPAVCUser@@U?$less@K@std@@V?$allocator@U?$pair@$$CBKPAVCUser@@@std@@@3@$0A@@std@@@2@PAU342@@Z
_TEXT	SEGMENT PARA USE32 PUBLIC 'CODE'
_TEXT	ENDS
;	COMDAT ?_Psave@?$_Facetptr@V?$ctype@G@std@@@std@@2PBVfacet@locale@2@B
_DATA	SEGMENT DWORD USE32 PUBLIC 'DATA'
_DATA	ENDS
;	COMDAT ?_Psave@?$_Facetptr@V?$ctype@D@std@@@std@@2PBVfacet@locale@2@B
_DATA	SEGMENT DWORD USE32 PUBLIC 'DATA'
_DATA	ENDS
;	COMDAT ??$swap@D@std@@YAXAAD0@Z
_TEXT	SEGMENT PARA USE32 PUBLIC 'CODE'
_TEXT	ENDS
;	COMDAT __TI3?AVout_of_range@std@@
xdata$x	SEGMENT DWORD USE32 PUBLIC 'CONST'
xdata$x	ENDS
;	COMDAT ??1out_of_range@std@@UAE@XZ
_TEXT	SEGMENT PARA USE32 PUBLIC 'CODE'
_TEXT	ENDS
;	COMDAT ??_7out_of_range@std@@6B@
CONST	SEGMENT DWORD USE32 PUBLIC 'CONST'
CONST	ENDS
;	COMDAT ??_Gout_of_range@std@@UAEPAXI@Z
_TEXT	SEGMENT PARA USE32 PUBLIC 'CODE'
_TEXT	ENDS
;	COMDAT ?what@logic_error@std@@UBEPBDXZ
_TEXT	SEGMENT PARA USE32 PUBLIC 'CODE'
_TEXT	ENDS
;	COMDAT ?c_str@?$basic_string@DU?$char_traits@D@std@@V?$allocator@D@2@@std@@QBEPBDXZ
_TEXT	SEGMENT PARA USE32 PUBLIC 'CODE'
_TEXT	ENDS
;	COMDAT ??1logic_error@std@@UAE@XZ
_TEXT	SEGMENT PARA USE32 PUBLIC 'CODE'
_TEXT	ENDS
;	COMDAT ??_7logic_error@std@@6B@
CONST	SEGMENT DWORD USE32 PUBLIC 'CONST'
CONST	ENDS
;	COMDAT ??_Glogic_error@std@@UAEPAXI@Z
_TEXT	SEGMENT PARA USE32 PUBLIC 'CODE'
_TEXT	ENDS
;	COMDAT __CTA3?AVout_of_range@std@@
xdata$x	SEGMENT DWORD USE32 PUBLIC 'CONST'
xdata$x	ENDS
;	COMDAT __CT??_R0?AVout_of_range@std@@@8??0out_of_range@std@@QAE@ABV01@@Z40
xdata$x	SEGMENT DWORD USE32 PUBLIC 'CONST'
xdata$x	ENDS
;	COMDAT ??_R0?AVout_of_range@std@@@8
_DATA	SEGMENT DWORD USE32 PUBLIC 'DATA'
_DATA	ENDS
;	COMDAT ??0out_of_range@std@@QAE@ABV01@@Z
_TEXT	SEGMENT PARA USE32 PUBLIC 'CODE'
_TEXT	ENDS
;	COMDAT ??0logic_error@std@@QAE@ABV01@@Z
_TEXT	SEGMENT PARA USE32 PUBLIC 'CODE'
_TEXT	ENDS
;	COMDAT ??0?$basic_string@DU?$char_traits@D@std@@V?$allocator@D@2@@std@@QAE@ABV01@@Z
_TEXT	SEGMENT PARA USE32 PUBLIC 'CODE'
_TEXT	ENDS
;	COMDAT ??0?$_String_val@DV?$allocator@D@std@@@std@@IAE@V?$allocator@D@1@@Z
_TEXT	SEGMENT PARA USE32 PUBLIC 'CODE'
_TEXT	ENDS
;	COMDAT ??0?$allocator@D@std@@QAE@ABV01@@Z
_TEXT	SEGMENT PARA USE32 PUBLIC 'CODE'
_TEXT	ENDS
;	COMDAT ?_Tidy@?$basic_string@DU?$char_traits@D@std@@V?$allocator@D@2@@std@@IAEX_NI@Z
_TEXT	SEGMENT PARA USE32 PUBLIC 'CODE'
_TEXT	ENDS
;	COMDAT ?copy@?$char_traits@D@std@@SAPADPADPBDI@Z
_TEXT	SEGMENT PARA USE32 PUBLIC 'CODE'
_TEXT	ENDS
;	COMDAT ?deallocate@?$allocator@D@std@@QAEXPADI@Z
_TEXT	SEGMENT PARA USE32 PUBLIC 'CODE'
_TEXT	ENDS
;	COMDAT ?_Eos@?$basic_string@DU?$char_traits@D@std@@V?$allocator@D@2@@std@@IAEXI@Z
_TEXT	SEGMENT PARA USE32 PUBLIC 'CODE'
_TEXT	ENDS
;	COMDAT ?assign@?$char_traits@D@std@@SAXAADABD@Z
_TEXT	SEGMENT PARA USE32 PUBLIC 'CODE'
_TEXT	ENDS
;	COMDAT ?_Myptr@?$basic_string@DU?$char_traits@D@std@@V?$allocator@D@2@@std@@QAEPADXZ
_TEXT	SEGMENT PARA USE32 PUBLIC 'CODE'
_TEXT	ENDS
;	COMDAT ?assign@?$basic_string@DU?$char_traits@D@std@@V?$allocator@D@2@@std@@QAEAAV12@ABV12@II@Z
_TEXT	SEGMENT PARA USE32 PUBLIC 'CODE'
_TEXT	ENDS
;	COMDAT ?erase@?$basic_string@DU?$char_traits@D@std@@V?$allocator@D@2@@std@@QAEAAV12@II@Z
_TEXT	SEGMENT PARA USE32 PUBLIC 'CODE'
_TEXT	ENDS
;	COMDAT ?move@?$char_traits@D@std@@SAPADPADPBDI@Z
_TEXT	SEGMENT PARA USE32 PUBLIC 'CODE'
_TEXT	ENDS
;	COMDAT ?_Grow@?$basic_string@DU?$char_traits@D@std@@V?$allocator@D@2@@std@@IAE_NI_N@Z
_TEXT	SEGMENT PARA USE32 PUBLIC 'CODE'
_TEXT	ENDS
;	COMDAT ?max_size@?$basic_string@DU?$char_traits@D@std@@V?$allocator@D@2@@std@@QBEIXZ
_TEXT	SEGMENT PARA USE32 PUBLIC 'CODE'
_TEXT	ENDS
;	COMDAT ?max_size@?$allocator@D@std@@QBEIXZ
_TEXT	SEGMENT PARA USE32 PUBLIC 'CODE'
_TEXT	ENDS
;	COMDAT ?_Copy@?$basic_string@DU?$char_traits@D@std@@V?$allocator@D@2@@std@@IAEXII@Z
_TEXT	SEGMENT PARA USE32 PUBLIC 'CODE'
_TEXT	ENDS
;	COMDAT ?allocate@?$allocator@D@std@@QAEPADI@Z
_TEXT	SEGMENT PARA USE32 PUBLIC 'CODE'
_TEXT	ENDS
;	COMDAT ??$_Allocate@D@std@@YAPADIPAD@Z
_TEXT	SEGMENT PARA USE32 PUBLIC 'CODE'
_TEXT	ENDS
;	COMDAT ?npos@?$basic_string@DU?$char_traits@D@std@@V?$allocator@D@2@@std@@2IB
CONST	SEGMENT DWORD USE32 PUBLIC 'CONST'
CONST	ENDS
;	COMDAT __CT??_R0?AVlogic_error@std@@@8??0logic_error@std@@QAE@ABV01@@Z40
xdata$x	SEGMENT DWORD USE32 PUBLIC 'CONST'
xdata$x	ENDS
;	COMDAT ??_R0?AVlogic_error@std@@@8
_DATA	SEGMENT DWORD USE32 PUBLIC 'DATA'
_DATA	ENDS
;	COMDAT __CT??_R0?AVexception@@@8??0exception@@QAE@ABV0@@Z12
xdata$x	SEGMENT DWORD USE32 PUBLIC 'CONST'
xdata$x	ENDS
;	COMDAT ??_R0?AVexception@@@8
_DATA	SEGMENT DWORD USE32 PUBLIC 'DATA'
_DATA	ENDS
;	COMDAT ??_C@_0BM@PAPJHAGI@invalid?5map?1set?$DMT?$DO?5iterator?$AA@
CONST	SEGMENT DWORD USE32 PUBLIC 'CONST'
CONST	ENDS
;	COMDAT ??0out_of_range@std@@QAE@ABV?$basic_string@DU?$char_traits@D@std@@V?$allocator@D@2@@1@@Z
_TEXT	SEGMENT PARA USE32 PUBLIC 'CODE'
_TEXT	ENDS
;	COMDAT ??0logic_error@std@@QAE@ABV?$basic_string@DU?$char_traits@D@std@@V?$allocator@D@2@@1@@Z
_TEXT	SEGMENT PARA USE32 PUBLIC 'CODE'
_TEXT	ENDS
;	COMDAT __TI3?AVlength_error@std@@
xdata$x	SEGMENT DWORD USE32 PUBLIC 'CONST'
xdata$x	ENDS
;	COMDAT ??1length_error@std@@UAE@XZ
_TEXT	SEGMENT PARA USE32 PUBLIC 'CODE'
_TEXT	ENDS
;	COMDAT ??_7length_error@std@@6B@
CONST	SEGMENT DWORD USE32 PUBLIC 'CONST'
CONST	ENDS
;	COMDAT ??_Glength_error@std@@UAEPAXI@Z
_TEXT	SEGMENT PARA USE32 PUBLIC 'CODE'
_TEXT	ENDS
;	COMDAT __CTA3?AVlength_error@std@@
xdata$x	SEGMENT DWORD USE32 PUBLIC 'CONST'
xdata$x	ENDS
;	COMDAT __CT??_R0?AVlength_error@std@@@8??0length_error@std@@QAE@ABV01@@Z40
xdata$x	SEGMENT DWORD USE32 PUBLIC 'CONST'
xdata$x	ENDS
;	COMDAT ??_R0?AVlength_error@std@@@8
_DATA	SEGMENT DWORD USE32 PUBLIC 'DATA'
_DATA	ENDS
;	COMDAT ??0length_error@std@@QAE@ABV01@@Z
_TEXT	SEGMENT PARA USE32 PUBLIC 'CODE'
_TEXT	ENDS
;	COMDAT ??1?$basic_string@DU?$char_traits@D@std@@V?$allocator@D@2@@std@@QAE@XZ
_TEXT	SEGMENT PARA USE32 PUBLIC 'CODE'
_TEXT	ENDS
;	COMDAT ??0?$basic_string@DU?$char_traits@D@std@@V?$allocator@D@2@@std@@QAE@PBD@Z
_TEXT	SEGMENT PARA USE32 PUBLIC 'CODE'
_TEXT	ENDS
;	COMDAT ??0?$allocator@D@std@@QAE@XZ
_TEXT	SEGMENT PARA USE32 PUBLIC 'CODE'
_TEXT	ENDS
;	COMDAT ?assign@?$basic_string@DU?$char_traits@D@std@@V?$allocator@D@2@@std@@QAEAAV12@PBD@Z
_TEXT	SEGMENT PARA USE32 PUBLIC 'CODE'
_TEXT	ENDS
;	COMDAT ?assign@?$basic_string@DU?$char_traits@D@std@@V?$allocator@D@2@@std@@QAEAAV12@PBDI@Z
_TEXT	SEGMENT PARA USE32 PUBLIC 'CODE'
_TEXT	ENDS
;	COMDAT ?_Inside@?$basic_string@DU?$char_traits@D@std@@V?$allocator@D@2@@std@@IAE_NPBD@Z
_TEXT	SEGMENT PARA USE32 PUBLIC 'CODE'
_TEXT	ENDS
;	COMDAT ?length@?$char_traits@D@std@@SAIPBD@Z
_TEXT	SEGMENT PARA USE32 PUBLIC 'CODE'
_TEXT	ENDS
;	COMDAT ??0length_error@std@@QAE@ABV?$basic_string@DU?$char_traits@D@std@@V?$allocator@D@2@@1@@Z
_TEXT	SEGMENT PARA USE32 PUBLIC 'CODE'
_TEXT	ENDS
;	COMDAT ??3@YAXPAX0@Z
_TEXT	SEGMENT PARA USE32 PUBLIC 'CODE'
_TEXT	ENDS
;	COMDAT ??2@YAPAXIPAX@Z
_TEXT	SEGMENT PARA USE32 PUBLIC 'CODE'
_TEXT	ENDS
;	COMDAT ?compare@?$char_traits@D@std@@SAHPBD0I@Z
_TEXT	SEGMENT PARA USE32 PUBLIC 'CODE'
_TEXT	ENDS
;	COMDAT ??R?$less@K@std@@QBE_NABK0@Z
_TEXT	SEGMENT PARA USE32 PUBLIC 'CODE'
_TEXT	ENDS
;	COMDAT ?_Myptr@?$basic_string@DU?$char_traits@D@std@@V?$allocator@D@2@@std@@QBEPBDXZ
_TEXT	SEGMENT PARA USE32 PUBLIC 'CODE'
_TEXT	ENDS
;	COMDAT ?size@?$basic_string@DU?$char_traits@D@std@@V?$allocator@D@2@@std@@QBEIXZ
_TEXT	SEGMENT PARA USE32 PUBLIC 'CODE'
_TEXT	ENDS
;	COMDAT ??1CMclAutoLock@@QAE@XZ
_TEXT	SEGMENT PARA USE32 PUBLIC 'CODE'
_TEXT	ENDS
;	COMDAT ?Leave@CMclCritSec@@QAEXXZ
_TEXT	SEGMENT PARA USE32 PUBLIC 'CODE'
_TEXT	ENDS
;	COMDAT ??0CMclAutoLock@@QAE@AAVCMclCritSec@@@Z
_TEXT	SEGMENT PARA USE32 PUBLIC 'CODE'
_TEXT	ENDS
;	COMDAT ?Enter@CMclCritSec@@QAEXXZ
_TEXT	SEGMENT PARA USE32 PUBLIC 'CODE'
_TEXT	ENDS
;	COMDAT ??1CMclCritSec@@UAE@XZ
_TEXT	SEGMENT PARA USE32 PUBLIC 'CODE'
_TEXT	ENDS
;	COMDAT ??_7CMclCritSec@@6B@
CONST	SEGMENT DWORD USE32 PUBLIC 'CONST'
CONST	ENDS
;	COMDAT ??_GCMclCritSec@@UAEPAXI@Z
_TEXT	SEGMENT PARA USE32 PUBLIC 'CODE'
_TEXT	ENDS
;	COMDAT ??0CMclCritSec@@QAE@XZ
_TEXT	SEGMENT PARA USE32 PUBLIC 'CODE'
_TEXT	ENDS
;	COMDAT ??_7CServerDescArray@@6B@
CONST	SEGMENT DWORD USE32 PUBLIC 'CONST'
CONST	ENDS
;	COMDAT ??5CAr@@QAEAAV0@AAG@Z
_TEXT	SEGMENT PARA USE32 PUBLIC 'CODE'
_TEXT	ENDS
;	COMDAT ??5@YAAAVCAr@@AAV0@AAUtagRECT@@@Z
_TEXT	SEGMENT PARA USE32 PUBLIC 'CODE'
_TEXT	ENDS
;	COMDAT ??0CJurisdiction@@QAE@XZ
_TEXT	SEGMENT PARA USE32 PUBLIC 'CODE'
_TEXT	ENDS
;	COMDAT ??_7CJurisdiction@@6B@
CONST	SEGMENT DWORD USE32 PUBLIC 'CONST'
CONST	ENDS
;	COMDAT ??_GCJurisdiction@@UAEPAXI@Z
_TEXT	SEGMENT PARA USE32 PUBLIC 'CODE'
_TEXT	ENDS
;	COMDAT ??1CJurisdiction@@UAE@XZ
_TEXT	SEGMENT PARA USE32 PUBLIC 'CODE'
_TEXT	ENDS
;	COMDAT ??0CRect@@QAE@XZ
_TEXT	SEGMENT PARA USE32 PUBLIC 'CODE'
_TEXT	ENDS
;	COMDAT ?SetRect@CRect@@QAEXHHHH@Z
_TEXT	SEGMENT PARA USE32 PUBLIC 'CODE'
_TEXT	ENDS
;	COMDAT ??5CAr@@QAEAAV0@AAF@Z
_TEXT	SEGMENT PARA USE32 PUBLIC 'CODE'
_TEXT	ENDS
;	COMDAT ?SetKey@CServerDesc@@QAEXK@Z
_TEXT	SEGMENT PARA USE32 PUBLIC 'CODE'
_TEXT	ENDS
;	COMDAT ??5CAr@@QAEAAV0@AAK@Z
_TEXT	SEGMENT PARA USE32 PUBLIC 'CODE'
_TEXT	ENDS
;	COMDAT ??6CAr@@QAEAAV0@G@Z
_TEXT	SEGMENT PARA USE32 PUBLIC 'CODE'
_TEXT	ENDS
;	COMDAT ??6@YAAAVCAr@@AAV0@UtagRECT@@@Z
_TEXT	SEGMENT PARA USE32 PUBLIC 'CODE'
_TEXT	ENDS
;	COMDAT ??6CAr@@QAEAAV0@F@Z
_TEXT	SEGMENT PARA USE32 PUBLIC 'CODE'
_TEXT	ENDS
;	COMDAT ??6CAr@@QAEAAV0@K@Z
_TEXT	SEGMENT PARA USE32 PUBLIC 'CODE'
_TEXT	ENDS
;	COMDAT ?IsStoring@CAr@@QBEHXZ
_TEXT	SEGMENT PARA USE32 PUBLIC 'CODE'
_TEXT	ENDS
;	COMDAT ??_7CServerDesc@@6B@
CONST	SEGMENT DWORD USE32 PUBLIC 'CONST'
CONST	ENDS
sxdata	SEGMENT DWORD USE32 'SXDATA'
sxdata	ENDS
FLAT	GROUP _DATA, CONST, _BSS
	ASSUME	CS: FLAT, DS: FLAT, SS: FLAT
endif

INCLUDELIB LIBCMT
INCLUDELIB OLDNAMES

PUBLIC	??2@YAPAXIPAX@Z					; operator new
; Function compile flags: /Ogty
; File c:\program files\microsoft visual studio .net 2003\vc7\include\new.h
;	COMDAT ??2@YAPAXIPAX@Z
_TEXT	SEGMENT
___formal$ = 8						; size = 4
__P$ = 12						; size = 4
??2@YAPAXIPAX@Z PROC NEAR				; operator new, COMDAT

; 109  :         {return (_P); }

  00000	8b 44 24 08	 mov	 eax, DWORD PTR __P$[esp-4]
  00004	c3		 ret	 0
??2@YAPAXIPAX@Z ENDP					; operator new
_TEXT	ENDS
PUBLIC	??3@YAXPAX0@Z					; operator delete
; Function compile flags: /Ogty
;	COMDAT ??3@YAXPAX0@Z
_TEXT	SEGMENT
___formal$ = 8						; size = 4
___formal$ = 12						; size = 4
??3@YAXPAX0@Z PROC NEAR					; operator delete, COMDAT

; 112  :         {return; }

  00000	c3		 ret	 0
??3@YAXPAX0@Z ENDP					; operator delete
_TEXT	ENDS
PUBLIC	?size@?$list@PAVCJurisdiction@@V?$allocator@PAVCJurisdiction@@@std@@@std@@QBEIXZ ; std::list<CJurisdiction *,std::allocator<CJurisdiction *> >::size
; Function compile flags: /Ogty
; File c:\program files\microsoft visual studio .net 2003\vc7\include\list
;	COMDAT ?size@?$list@PAVCJurisdiction@@V?$allocator@PAVCJurisdiction@@@std@@@std@@QBEIXZ
_TEXT	SEGMENT
?size@?$list@PAVCJurisdiction@@V?$allocator@PAVCJurisdiction@@@std@@@std@@QBEIXZ PROC NEAR ; std::list<CJurisdiction *,std::allocator<CJurisdiction *> >::size, COMDAT
; _this$ = ecx

; 431  : 		return (_Mysize);

  00000	8b 41 08	 mov	 eax, DWORD PTR [ecx+8]

; 432  : 		}

  00003	c3		 ret	 0
?size@?$list@PAVCJurisdiction@@V?$allocator@PAVCJurisdiction@@@std@@@std@@QBEIXZ ENDP ; std::list<CJurisdiction *,std::allocator<CJurisdiction *> >::size
_TEXT	ENDS
PUBLIC	?_Nextnode@?$list@PAVCJurisdiction@@V?$allocator@PAVCJurisdiction@@@std@@@std@@KAAAPAU_Node@?$_List_nod@PAVCJurisdiction@@V?$allocator@PAVCJurisdiction@@@std@@@2@PAU342@@Z ; std::list<CJurisdiction *,std::allocator<CJurisdiction *> >::_Nextnode
; Function compile flags: /Ogty
;	COMDAT ?_Nextnode@?$list@PAVCJurisdiction@@V?$allocator@PAVCJurisdiction@@@std@@@std@@KAAAPAU_Node@?$_List_nod@PAVCJurisdiction@@V?$allocator@PAVCJurisdiction@@@std@@@2@PAU342@@Z
_TEXT	SEGMENT
__Pnode$ = 8						; size = 4
?_Nextnode@?$list@PAVCJurisdiction@@V?$allocator@PAVCJurisdiction@@@std@@@std@@KAAAPAU_Node@?$_List_nod@PAVCJurisdiction@@V?$allocator@PAVCJurisdiction@@@std@@@2@PAU342@@Z PROC NEAR ; std::list<CJurisdiction *,std::allocator<CJurisdiction *> >::_Nextnode, COMDAT

; 108  : 		return ((_Nodepref)(*_Pnode)._Next);

  00000	8b 44 24 04	 mov	 eax, DWORD PTR __Pnode$[esp-4]

; 109  : 		}

  00004	c3		 ret	 0
?_Nextnode@?$list@PAVCJurisdiction@@V?$allocator@PAVCJurisdiction@@@std@@@std@@KAAAPAU_Node@?$_List_nod@PAVCJurisdiction@@V?$allocator@PAVCJurisdiction@@@std@@@2@PAU342@@Z ENDP ; std::list<CJurisdiction *,std::allocator<CJurisdiction *> >::_Nextnode
_TEXT	ENDS
PUBLIC	??0?$allocator@PAVCJurisdiction@@@std@@QAE@XZ	; std::allocator<CJurisdiction *>::allocator<CJurisdiction *>
; Function compile flags: /Ogty
; File c:\program files\microsoft visual studio .net 2003\vc7\include\xmemory
;	COMDAT ??0?$allocator@PAVCJurisdiction@@@std@@QAE@XZ
_TEXT	SEGMENT
??0?$allocator@PAVCJurisdiction@@@std@@QAE@XZ PROC NEAR	; std::allocator<CJurisdiction *>::allocator<CJurisdiction *>, COMDAT
; _this$ = ecx

; 111  : 	allocator()

  00000	8b c1		 mov	 eax, ecx

; 112  : 		{	// construct default allocator (do nothing)
; 113  : 		}

  00002	c3		 ret	 0
??0?$allocator@PAVCJurisdiction@@@std@@QAE@XZ ENDP	; std::allocator<CJurisdiction *>::allocator<CJurisdiction *>
_TEXT	ENDS
PUBLIC	??0?$allocator@U?$pair@$$CBKPAVCServerDesc@@@std@@@std@@QAE@XZ ; std::allocator<std::pair<unsigned long const ,CServerDesc *> >::allocator<std::pair<unsigned long const ,CServerDesc *> >
; Function compile flags: /Ogty
;	COMDAT ??0?$allocator@U?$pair@$$CBKPAVCServerDesc@@@std@@@std@@QAE@XZ
_TEXT	SEGMENT
??0?$allocator@U?$pair@$$CBKPAVCServerDesc@@@std@@@std@@QAE@XZ PROC NEAR ; std::allocator<std::pair<unsigned long const ,CServerDesc *> >::allocator<std::pair<unsigned long const ,CServerDesc *> >, COMDAT
; _this$ = ecx

; 111  : 	allocator()

  00000	8b c1		 mov	 eax, ecx

; 112  : 		{	// construct default allocator (do nothing)
; 113  : 		}

  00002	c3		 ret	 0
??0?$allocator@U?$pair@$$CBKPAVCServerDesc@@@std@@@std@@QAE@XZ ENDP ; std::allocator<std::pair<unsigned long const ,CServerDesc *> >::allocator<std::pair<unsigned long const ,CServerDesc *> >
_TEXT	ENDS
PUBLIC	??Econst_iterator@?$list@PAVCJurisdiction@@V?$allocator@PAVCJurisdiction@@@std@@@std@@QAEAAV012@XZ ; std::list<CJurisdiction *,std::allocator<CJurisdiction *> >::const_iterator::operator++
; Function compile flags: /Ogty
; File c:\program files\microsoft visual studio .net 2003\vc7\include\list
;	COMDAT ??Econst_iterator@?$list@PAVCJurisdiction@@V?$allocator@PAVCJurisdiction@@@std@@@std@@QAEAAV012@XZ
_TEXT	SEGMENT
??Econst_iterator@?$list@PAVCJurisdiction@@V?$allocator@PAVCJurisdiction@@@std@@@std@@QAEAAV012@XZ PROC NEAR ; std::list<CJurisdiction *,std::allocator<CJurisdiction *> >::const_iterator::operator++, COMDAT
; _this$ = ecx

; 170  : 			{	// preincrement

  00000	8b c1		 mov	 eax, ecx

; 171  : 			_Ptr = _Nextnode(_Ptr);

  00002	8b 08		 mov	 ecx, DWORD PTR [eax]
  00004	8b 11		 mov	 edx, DWORD PTR [ecx]
  00006	89 10		 mov	 DWORD PTR [eax], edx

; 172  : 			return (*this);
; 173  : 			}

  00008	c3		 ret	 0
??Econst_iterator@?$list@PAVCJurisdiction@@V?$allocator@PAVCJurisdiction@@@std@@@std@@QAEAAV012@XZ ENDP ; std::list<CJurisdiction *,std::allocator<CJurisdiction *> >::const_iterator::operator++
_TEXT	ENDS
PUBLIC	??8const_iterator@?$list@PAVCJurisdiction@@V?$allocator@PAVCJurisdiction@@@std@@@std@@QBE_NABV012@@Z ; std::list<CJurisdiction *,std::allocator<CJurisdiction *> >::const_iterator::operator==
; Function compile flags: /Ogty
;	COMDAT ??8const_iterator@?$list@PAVCJurisdiction@@V?$allocator@PAVCJurisdiction@@@std@@@std@@QBE_NABV012@@Z
_TEXT	SEGMENT
__Right$ = 8						; size = 4
??8const_iterator@?$list@PAVCJurisdiction@@V?$allocator@PAVCJurisdiction@@@std@@@std@@QBE_NABV012@@Z PROC NEAR ; std::list<CJurisdiction *,std::allocator<CJurisdiction *> >::const_iterator::operator==, COMDAT
; _this$ = ecx

; 197  : 			return (_Ptr == _Right._Ptr);

  00000	8b 01		 mov	 eax, DWORD PTR [ecx]
  00002	8b 4c 24 04	 mov	 ecx, DWORD PTR __Right$[esp-4]
  00006	2b 01		 sub	 eax, DWORD PTR [ecx]
  00008	f7 d8		 neg	 eax
  0000a	1b c0		 sbb	 eax, eax
  0000c	40		 inc	 eax

; 198  : 			}

  0000d	c2 04 00	 ret	 4
??8const_iterator@?$list@PAVCJurisdiction@@V?$allocator@PAVCJurisdiction@@@std@@@std@@QBE_NABV012@@Z ENDP ; std::list<CJurisdiction *,std::allocator<CJurisdiction *> >::const_iterator::operator==
_TEXT	ENDS
PUBLIC	??8const_iterator@?$_Tree@V?$_Tmap_traits@KPAVCServerDesc@@U?$less@K@std@@V?$allocator@U?$pair@$$CBKPAVCServerDesc@@@std@@@3@$0A@@std@@@std@@QBE_NABV012@@Z ; std::_Tree<std::_Tmap_traits<unsigned long,CServerDesc *,std::less<unsigned long>,std::allocator<std::pair<unsigned long const ,CServerDesc *> >,0> >::const_iterator::operator==
; Function compile flags: /Ogty
; File c:\program files\microsoft visual studio .net 2003\vc7\include\xtree
;	COMDAT ??8const_iterator@?$_Tree@V?$_Tmap_traits@KPAVCServerDesc@@U?$less@K@std@@V?$allocator@U?$pair@$$CBKPAVCServerDesc@@@std@@@3@$0A@@std@@@std@@QBE_NABV012@@Z
_TEXT	SEGMENT
__Right$ = 8						; size = 4
??8const_iterator@?$_Tree@V?$_Tmap_traits@KPAVCServerDesc@@U?$less@K@std@@V?$allocator@U?$pair@$$CBKPAVCServerDesc@@@std@@@3@$0A@@std@@@std@@QBE_NABV012@@Z PROC NEAR ; std::_Tree<std::_Tmap_traits<unsigned long,CServerDesc *,std::less<unsigned long>,std::allocator<std::pair<unsigned long const ,CServerDesc *> >,0> >::const_iterator::operator==, COMDAT
; _this$ = ecx

; 241  : 			return (_Ptr == _Right._Ptr);

  00000	8b 01		 mov	 eax, DWORD PTR [ecx]
  00002	8b 4c 24 04	 mov	 ecx, DWORD PTR __Right$[esp-4]
  00006	2b 01		 sub	 eax, DWORD PTR [ecx]
  00008	f7 d8		 neg	 eax
  0000a	1b c0		 sbb	 eax, eax
  0000c	40		 inc	 eax

; 242  : 			}

  0000d	c2 04 00	 ret	 4
??8const_iterator@?$_Tree@V?$_Tmap_traits@KPAVCServerDesc@@U?$less@K@std@@V?$allocator@U?$pair@$$CBKPAVCServerDesc@@@std@@@3@$0A@@std@@@std@@QBE_NABV012@@Z ENDP ; std::_Tree<std::_Tmap_traits<unsigned long,CServerDesc *,std::less<unsigned long>,std::allocator<std::pair<unsigned long const ,CServerDesc *> >,0> >::const_iterator::operator==
_TEXT	ENDS
PUBLIC	?_Mynode@const_iterator@?$_Tree@V?$_Tmap_traits@KPAVCServerDesc@@U?$less@K@std@@V?$allocator@U?$pair@$$CBKPAVCServerDesc@@@std@@@3@$0A@@std@@@std@@QBEPAU_Node@?$_Tree_nod@V?$_Tmap_traits@KPAVCServerDesc@@U?$less@K@std@@V?$allocator@U?$pair@$$CBKPAVCServerDesc@@@std@@@3@$0A@@std@@@3@XZ ; std::_Tree<std::_Tmap_traits<unsigned long,CServerDesc *,std::less<unsigned long>,std::allocator<std::pair<unsigned long const ,CServerDesc *> >,0> >::const_iterator::_Mynode
; Function compile flags: /Ogty
;	COMDAT ?_Mynode@const_iterator@?$_Tree@V?$_Tmap_traits@KPAVCServerDesc@@U?$less@K@std@@V?$allocator@U?$pair@$$CBKPAVCServerDesc@@@std@@@3@$0A@@std@@@std@@QBEPAU_Node@?$_Tree_nod@V?$_Tmap_traits@KPAVCServerDesc@@U?$less@K@std@@V?$allocator@U?$pair@$$CBKPAVCServerDesc@@@std@@@3@$0A@@std@@@3@XZ
_TEXT	SEGMENT
?_Mynode@const_iterator@?$_Tree@V?$_Tmap_traits@KPAVCServerDesc@@U?$less@K@std@@V?$allocator@U?$pair@$$CBKPAVCServerDesc@@@std@@@3@$0A@@std@@@std@@QBEPAU_Node@?$_Tree_nod@V?$_Tmap_traits@KPAVCServerDesc@@U?$less@K@std@@V?$allocator@U?$pair@$$CBKPAVCServerDesc@@@std@@@3@$0A@@std@@@3@XZ PROC NEAR ; std::_Tree<std::_Tmap_traits<unsigned long,CServerDesc *,std::less<unsigned long>,std::allocator<std::pair<unsigned long const ,CServerDesc *> >,0> >::const_iterator::_Mynode, COMDAT
; _this$ = ecx

; 284  : 			return (_Ptr);

  00000	8b 01		 mov	 eax, DWORD PTR [ecx]

; 285  : 			}

  00002	c3		 ret	 0
?_Mynode@const_iterator@?$_Tree@V?$_Tmap_traits@KPAVCServerDesc@@U?$less@K@std@@V?$allocator@U?$pair@$$CBKPAVCServerDesc@@@std@@@3@$0A@@std@@@std@@QBEPAU_Node@?$_Tree_nod@V?$_Tmap_traits@KPAVCServerDesc@@U?$less@K@std@@V?$allocator@U?$pair@$$CBKPAVCServerDesc@@@std@@@3@$0A@@std@@@3@XZ ENDP ; std::_Tree<std::_Tmap_traits<unsigned long,CServerDesc *,std::less<unsigned long>,std::allocator<std::pair<unsigned long const ,CServerDesc *> >,0> >::const_iterator::_Mynode
_TEXT	ENDS
PUBLIC	?_Prevnode@?$list@PAVCJurisdiction@@V?$allocator@PAVCJurisdiction@@@std@@@std@@KAAAPAU_Node@?$_List_nod@PAVCJurisdiction@@V?$allocator@PAVCJurisdiction@@@std@@@2@PAU342@@Z ; std::list<CJurisdiction *,std::allocator<CJurisdiction *> >::_Prevnode
; Function compile flags: /Ogty
; File c:\program files\microsoft visual studio .net 2003\vc7\include\list
;	COMDAT ?_Prevnode@?$list@PAVCJurisdiction@@V?$allocator@PAVCJurisdiction@@@std@@@std@@KAAAPAU_Node@?$_List_nod@PAVCJurisdiction@@V?$allocator@PAVCJurisdiction@@@std@@@2@PAU342@@Z
_TEXT	SEGMENT
__Pnode$ = 8						; size = 4
?_Prevnode@?$list@PAVCJurisdiction@@V?$allocator@PAVCJurisdiction@@@std@@@std@@KAAAPAU_Node@?$_List_nod@PAVCJurisdiction@@V?$allocator@PAVCJurisdiction@@@std@@@2@PAU342@@Z PROC NEAR ; std::list<CJurisdiction *,std::allocator<CJurisdiction *> >::_Prevnode, COMDAT

; 113  : 		return ((_Nodepref)(*_Pnode)._Prev);

  00000	8b 44 24 04	 mov	 eax, DWORD PTR __Pnode$[esp-4]
  00004	83 c0 04	 add	 eax, 4

; 114  : 		}

  00007	c3		 ret	 0
?_Prevnode@?$list@PAVCJurisdiction@@V?$allocator@PAVCJurisdiction@@@std@@@std@@KAAAPAU_Node@?$_List_nod@PAVCJurisdiction@@V?$allocator@PAVCJurisdiction@@@std@@@2@PAU342@@Z ENDP ; std::list<CJurisdiction *,std::allocator<CJurisdiction *> >::_Prevnode
_TEXT	ENDS
PUBLIC	?_Myval@?$list@PAVCJurisdiction@@V?$allocator@PAVCJurisdiction@@@std@@@std@@KAAAPAVCJurisdiction@@PAU_Node@?$_List_nod@PAVCJurisdiction@@V?$allocator@PAVCJurisdiction@@@std@@@2@@Z ; std::list<CJurisdiction *,std::allocator<CJurisdiction *> >::_Myval
; Function compile flags: /Ogty
;	COMDAT ?_Myval@?$list@PAVCJurisdiction@@V?$allocator@PAVCJurisdiction@@@std@@@std@@KAAAPAVCJurisdiction@@PAU_Node@?$_List_nod@PAVCJurisdiction@@V?$allocator@PAVCJurisdiction@@@std@@@2@@Z
_TEXT	SEGMENT
__Pnode$ = 8						; size = 4
?_Myval@?$list@PAVCJurisdiction@@V?$allocator@PAVCJurisdiction@@@std@@@std@@KAAAPAVCJurisdiction@@PAU_Node@?$_List_nod@PAVCJurisdiction@@V?$allocator@PAVCJurisdiction@@@std@@@2@@Z PROC NEAR ; std::list<CJurisdiction *,std::allocator<CJurisdiction *> >::_Myval, COMDAT

; 118  : 		return ((_Vref)(*_Pnode)._Myval);

  00000	8b 44 24 04	 mov	 eax, DWORD PTR __Pnode$[esp-4]
  00004	83 c0 08	 add	 eax, 8

; 119  : 		}

  00007	c3		 ret	 0
?_Myval@?$list@PAVCJurisdiction@@V?$allocator@PAVCJurisdiction@@@std@@@std@@KAAAPAVCJurisdiction@@PAU_Node@?$_List_nod@PAVCJurisdiction@@V?$allocator@PAVCJurisdiction@@@std@@@2@@Z ENDP ; std::list<CJurisdiction *,std::allocator<CJurisdiction *> >::_Myval
_TEXT	ENDS
PUBLIC	??0?$allocator@PAVCJurisdiction@@@std@@QAE@ABV01@@Z ; std::allocator<CJurisdiction *>::allocator<CJurisdiction *>
; Function compile flags: /Ogty
; File c:\program files\microsoft visual studio .net 2003\vc7\include\xmemory
;	COMDAT ??0?$allocator@PAVCJurisdiction@@@std@@QAE@ABV01@@Z
_TEXT	SEGMENT
___formal$ = 8						; size = 4
??0?$allocator@PAVCJurisdiction@@@std@@QAE@ABV01@@Z PROC NEAR ; std::allocator<CJurisdiction *>::allocator<CJurisdiction *>, COMDAT
; _this$ = ecx

; 115  : 	allocator(const allocator<_Ty>&)

  00000	8b c1		 mov	 eax, ecx

; 116  : 		{	// construct by copying (do nothing)
; 117  : 		}

  00002	c2 04 00	 ret	 4
??0?$allocator@PAVCJurisdiction@@@std@@QAE@ABV01@@Z ENDP ; std::allocator<CJurisdiction *>::allocator<CJurisdiction *>
_TEXT	ENDS
PUBLIC	?deallocate@?$allocator@U_Node@?$_List_nod@PAVCJurisdiction@@V?$allocator@PAVCJurisdiction@@@std@@@std@@@std@@QAEXPAU_Node@?$_List_nod@PAVCJurisdiction@@V?$allocator@PAVCJurisdiction@@@std@@@2@I@Z ; std::allocator<std::_List_nod<CJurisdiction *,std::allocator<CJurisdiction *> >::_Node>::deallocate
EXTRN	??3@YAXPAX@Z:NEAR				; operator delete
; Function compile flags: /Ogty
;	COMDAT ?deallocate@?$allocator@U_Node@?$_List_nod@PAVCJurisdiction@@V?$allocator@PAVCJurisdiction@@@std@@@std@@@std@@QAEXPAU_Node@?$_List_nod@PAVCJurisdiction@@V?$allocator@PAVCJurisdiction@@@std@@@2@I@Z
_TEXT	SEGMENT
__Ptr$ = 8						; size = 4
___formal$ = 12						; size = 4
?deallocate@?$allocator@U_Node@?$_List_nod@PAVCJurisdiction@@V?$allocator@PAVCJurisdiction@@@std@@@std@@@std@@QAEXPAU_Node@?$_List_nod@PAVCJurisdiction@@V?$allocator@PAVCJurisdiction@@@std@@@2@I@Z PROC NEAR ; std::allocator<std::_List_nod<CJurisdiction *,std::allocator<CJurisdiction *> >::_Node>::deallocate, COMDAT
; _this$ = ecx

; 132  : 		operator delete(_Ptr);

  00000	8b 44 24 04	 mov	 eax, DWORD PTR __Ptr$[esp-4]
  00004	50		 push	 eax
  00005	e8 00 00 00 00	 call	 ??3@YAXPAX@Z		; operator delete
  0000a	59		 pop	 ecx

; 133  : 		}

  0000b	c2 08 00	 ret	 8
?deallocate@?$allocator@U_Node@?$_List_nod@PAVCJurisdiction@@V?$allocator@PAVCJurisdiction@@@std@@@std@@@std@@QAEXPAU_Node@?$_List_nod@PAVCJurisdiction@@V?$allocator@PAVCJurisdiction@@@std@@@2@I@Z ENDP ; std::allocator<std::_List_nod<CJurisdiction *,std::allocator<CJurisdiction *> >::_Node>::deallocate
_TEXT	ENDS
PUBLIC	?_Isnil@?$_Tree@V?$_Tmap_traits@KPAVCServerDesc@@U?$less@K@std@@V?$allocator@U?$pair@$$CBKPAVCServerDesc@@@std@@@3@$0A@@std@@@std@@KAAADPAU_Node@?$_Tree_nod@V?$_Tmap_traits@KPAVCServerDesc@@U?$less@K@std@@V?$allocator@U?$pair@$$CBKPAVCServerDesc@@@std@@@3@$0A@@std@@@2@@Z ; std::_Tree<std::_Tmap_traits<unsigned long,CServerDesc *,std::less<unsigned long>,std::allocator<std::pair<unsigned long const ,CServerDesc *> >,0> >::_Isnil
; Function compile flags: /Ogty
; File c:\program files\microsoft visual studio .net 2003\vc7\include\xtree
;	COMDAT ?_Isnil@?$_Tree@V?$_Tmap_traits@KPAVCServerDesc@@U?$less@K@std@@V?$allocator@U?$pair@$$CBKPAVCServerDesc@@@std@@@3@$0A@@std@@@std@@KAAADPAU_Node@?$_Tree_nod@V?$_Tmap_traits@KPAVCServerDesc@@U?$less@K@std@@V?$allocator@U?$pair@$$CBKPAVCServerDesc@@@std@@@3@$0A@@std@@@2@@Z
_TEXT	SEGMENT
__Pnode$ = 8						; size = 4
?_Isnil@?$_Tree@V?$_Tmap_traits@KPAVCServerDesc@@U?$less@K@std@@V?$allocator@U?$pair@$$CBKPAVCServerDesc@@@std@@@3@$0A@@std@@@std@@KAAADPAU_Node@?$_Tree_nod@V?$_Tmap_traits@KPAVCServerDesc@@U?$less@K@std@@V?$allocator@U?$pair@$$CBKPAVCServerDesc@@@std@@@3@$0A@@std@@@2@@Z PROC NEAR ; std::_Tree<std::_Tmap_traits<unsigned long,CServerDesc *,std::less<unsigned long>,std::allocator<std::pair<unsigned long const ,CServerDesc *> >,0> >::_Isnil, COMDAT

; 137  : 		return ((_Charref)(*_Pnode)._Isnil);

  00000	8b 44 24 04	 mov	 eax, DWORD PTR __Pnode$[esp-4]
  00004	83 c0 15	 add	 eax, 21			; 00000015H

; 138  : 		}

  00007	c3		 ret	 0
?_Isnil@?$_Tree@V?$_Tmap_traits@KPAVCServerDesc@@U?$less@K@std@@V?$allocator@U?$pair@$$CBKPAVCServerDesc@@@std@@@3@$0A@@std@@@std@@KAAADPAU_Node@?$_Tree_nod@V?$_Tmap_traits@KPAVCServerDesc@@U?$less@K@std@@V?$allocator@U?$pair@$$CBKPAVCServerDesc@@@std@@@3@$0A@@std@@@2@@Z ENDP ; std::_Tree<std::_Tmap_traits<unsigned long,CServerDesc *,std::less<unsigned long>,std::allocator<std::pair<unsigned long const ,CServerDesc *> >,0> >::_Isnil
_TEXT	ENDS
PUBLIC	?_Left@?$_Tree@V?$_Tmap_traits@KPAVCServerDesc@@U?$less@K@std@@V?$allocator@U?$pair@$$CBKPAVCServerDesc@@@std@@@3@$0A@@std@@@std@@KAAAPAU_Node@?$_Tree_nod@V?$_Tmap_traits@KPAVCServerDesc@@U?$less@K@std@@V?$allocator@U?$pair@$$CBKPAVCServerDesc@@@std@@@3@$0A@@std@@@2@PAU342@@Z ; std::_Tree<std::_Tmap_traits<unsigned long,CServerDesc *,std::less<unsigned long>,std::allocator<std::pair<unsigned long const ,CServerDesc *> >,0> >::_Left
; Function compile flags: /Ogty
;	COMDAT ?_Left@?$_Tree@V?$_Tmap_traits@KPAVCServerDesc@@U?$less@K@std@@V?$allocator@U?$pair@$$CBKPAVCServerDesc@@@std@@@3@$0A@@std@@@std@@KAAAPAU_Node@?$_Tree_nod@V?$_Tmap_traits@KPAVCServerDesc@@U?$less@K@std@@V?$allocator@U?$pair@$$CBKPAVCServerDesc@@@std@@@3@$0A@@std@@@2@PAU342@@Z
_TEXT	SEGMENT
__Pnode$ = 8						; size = 4
?_Left@?$_Tree@V?$_Tmap_traits@KPAVCServerDesc@@U?$less@K@std@@V?$allocator@U?$pair@$$CBKPAVCServerDesc@@@std@@@3@$0A@@std@@@std@@KAAAPAU_Node@?$_Tree_nod@V?$_Tmap_traits@KPAVCServerDesc@@U?$less@K@std@@V?$allocator@U?$pair@$$CBKPAVCServerDesc@@@std@@@3@$0A@@std@@@2@PAU342@@Z PROC NEAR ; std::_Tree<std::_Tmap_traits<unsigned long,CServerDesc *,std::less<unsigned long>,std::allocator<std::pair<unsigned long const ,CServerDesc *> >,0> >::_Left, COMDAT

; 147  : 		return ((_Nodepref)(*_Pnode)._Left);

  00000	8b 44 24 04	 mov	 eax, DWORD PTR __Pnode$[esp-4]

; 148  : 		}

  00004	c3		 ret	 0
?_Left@?$_Tree@V?$_Tmap_traits@KPAVCServerDesc@@U?$less@K@std@@V?$allocator@U?$pair@$$CBKPAVCServerDesc@@@std@@@3@$0A@@std@@@std@@KAAAPAU_Node@?$_Tree_nod@V?$_Tmap_traits@KPAVCServerDesc@@U?$less@K@std@@V?$allocator@U?$pair@$$CBKPAVCServerDesc@@@std@@@3@$0A@@std@@@2@PAU342@@Z ENDP ; std::_Tree<std::_Tmap_traits<unsigned long,CServerDesc *,std::less<unsigned long>,std::allocator<std::pair<unsigned long const ,CServerDesc *> >,0> >::_Left
_TEXT	ENDS
PUBLIC	?_Parent@?$_Tree@V?$_Tmap_traits@KPAVCServerDesc@@U?$less@K@std@@V?$allocator@U?$pair@$$CBKPAVCServerDesc@@@std@@@3@$0A@@std@@@std@@KAAAPAU_Node@?$_Tree_nod@V?$_Tmap_traits@KPAVCServerDesc@@U?$less@K@std@@V?$allocator@U?$pair@$$CBKPAVCServerDesc@@@std@@@3@$0A@@std@@@2@PAU342@@Z ; std::_Tree<std::_Tmap_traits<unsigned long,CServerDesc *,std::less<unsigned long>,std::allocator<std::pair<unsigned long const ,CServerDesc *> >,0> >::_Parent
; Function compile flags: /Ogty
;	COMDAT ?_Parent@?$_Tree@V?$_Tmap_traits@KPAVCServerDesc@@U?$less@K@std@@V?$allocator@U?$pair@$$CBKPAVCServerDesc@@@std@@@3@$0A@@std@@@std@@KAAAPAU_Node@?$_Tree_nod@V?$_Tmap_traits@KPAVCServerDesc@@U?$less@K@std@@V?$allocator@U?$pair@$$CBKPAVCServerDesc@@@std@@@3@$0A@@std@@@2@PAU342@@Z
_TEXT	SEGMENT
__Pnode$ = 8						; size = 4
?_Parent@?$_Tree@V?$_Tmap_traits@KPAVCServerDesc@@U?$less@K@std@@V?$allocator@U?$pair@$$CBKPAVCServerDesc@@@std@@@3@$0A@@std@@@std@@KAAAPAU_Node@?$_Tree_nod@V?$_Tmap_traits@KPAVCServerDesc@@U?$less@K@std@@V?$allocator@U?$pair@$$CBKPAVCServerDesc@@@std@@@3@$0A@@std@@@2@PAU342@@Z PROC NEAR ; std::_Tree<std::_Tmap_traits<unsigned long,CServerDesc *,std::less<unsigned long>,std::allocator<std::pair<unsigned long const ,CServerDesc *> >,0> >::_Parent, COMDAT

; 152  : 		return ((_Nodepref)(*_Pnode)._Parent);

  00000	8b 44 24 04	 mov	 eax, DWORD PTR __Pnode$[esp-4]
  00004	83 c0 04	 add	 eax, 4

; 153  : 		}

  00007	c3		 ret	 0
?_Parent@?$_Tree@V?$_Tmap_traits@KPAVCServerDesc@@U?$less@K@std@@V?$allocator@U?$pair@$$CBKPAVCServerDesc@@@std@@@3@$0A@@std@@@std@@KAAAPAU_Node@?$_Tree_nod@V?$_Tmap_traits@KPAVCServerDesc@@U?$less@K@std@@V?$allocator@U?$pair@$$CBKPAVCServerDesc@@@std@@@3@$0A@@std@@@2@PAU342@@Z ENDP ; std::_Tree<std::_Tmap_traits<unsigned long,CServerDesc *,std::less<unsigned long>,std::allocator<std::pair<unsigned long const ,CServerDesc *> >,0> >::_Parent
_TEXT	ENDS
PUBLIC	?_Right@?$_Tree@V?$_Tmap_traits@KPAVCServerDesc@@U?$less@K@std@@V?$allocator@U?$pair@$$CBKPAVCServerDesc@@@std@@@3@$0A@@std@@@std@@KAAAPAU_Node@?$_Tree_nod@V?$_Tmap_traits@KPAVCServerDesc@@U?$less@K@std@@V?$allocator@U?$pair@$$CBKPAVCServerDesc@@@std@@@3@$0A@@std@@@2@PAU342@@Z ; std::_Tree<std::_Tmap_traits<unsigned long,CServerDesc *,std::less<unsigned long>,std::allocator<std::pair<unsigned long const ,CServerDesc *> >,0> >::_Right
; Function compile flags: /Ogty
;	COMDAT ?_Right@?$_Tree@V?$_Tmap_traits@KPAVCServerDesc@@U?$less@K@std@@V?$allocator@U?$pair@$$CBKPAVCServerDesc@@@std@@@3@$0A@@std@@@std@@KAAAPAU_Node@?$_Tree_nod@V?$_Tmap_traits@KPAVCServerDesc@@U?$less@K@std@@V?$allocator@U?$pair@$$CBKPAVCServerDesc@@@std@@@3@$0A@@std@@@2@PAU342@@Z
_TEXT	SEGMENT
__Pnode$ = 8						; size = 4
?_Right@?$_Tree@V?$_Tmap_traits@KPAVCServerDesc@@U?$less@K@std@@V?$allocator@U?$pair@$$CBKPAVCServerDesc@@@std@@@3@$0A@@std@@@std@@KAAAPAU_Node@?$_Tree_nod@V?$_Tmap_traits@KPAVCServerDesc@@U?$less@K@std@@V?$allocator@U?$pair@$$CBKPAVCServerDesc@@@std@@@3@$0A@@std@@@2@PAU342@@Z PROC NEAR ; std::_Tree<std::_Tmap_traits<unsigned long,CServerDesc *,std::less<unsigned long>,std::allocator<std::pair<unsigned long const ,CServerDesc *> >,0> >::_Right, COMDAT

; 157  : 		return ((_Nodepref)(*_Pnode)._Right);

  00000	8b 44 24 04	 mov	 eax, DWORD PTR __Pnode$[esp-4]
  00004	83 c0 08	 add	 eax, 8

; 158  : 		}

  00007	c3		 ret	 0
?_Right@?$_Tree@V?$_Tmap_traits@KPAVCServerDesc@@U?$less@K@std@@V?$allocator@U?$pair@$$CBKPAVCServerDesc@@@std@@@3@$0A@@std@@@std@@KAAAPAU_Node@?$_Tree_nod@V?$_Tmap_traits@KPAVCServerDesc@@U?$less@K@std@@V?$allocator@U?$pair@$$CBKPAVCServerDesc@@@std@@@3@$0A@@std@@@2@PAU342@@Z ENDP ; std::_Tree<std::_Tmap_traits<unsigned long,CServerDesc *,std::less<unsigned long>,std::allocator<std::pair<unsigned long const ,CServerDesc *> >,0> >::_Right
_TEXT	ENDS
PUBLIC	?_Myval@?$_Tree@V?$_Tmap_traits@KPAVCServerDesc@@U?$less@K@std@@V?$allocator@U?$pair@$$CBKPAVCServerDesc@@@std@@@3@$0A@@std@@@std@@KAAAU?$pair@$$CBKPAVCServerDesc@@@2@PAU_Node@?$_Tree_nod@V?$_Tmap_traits@KPAVCServerDesc@@U?$less@K@std@@V?$allocator@U?$pair@$$CBKPAVCServerDesc@@@std@@@3@$0A@@std@@@2@@Z ; std::_Tree<std::_Tmap_traits<unsigned long,CServerDesc *,std::less<unsigned long>,std::allocator<std::pair<unsigned long const ,CServerDesc *> >,0> >::_Myval
; Function compile flags: /Ogty
;	COMDAT ?_Myval@?$_Tree@V?$_Tmap_traits@KPAVCServerDesc@@U?$less@K@std@@V?$allocator@U?$pair@$$CBKPAVCServerDesc@@@std@@@3@$0A@@std@@@std@@KAAAU?$pair@$$CBKPAVCServerDesc@@@2@PAU_Node@?$_Tree_nod@V?$_Tmap_traits@KPAVCServerDesc@@U?$less@K@std@@V?$allocator@U?$pair@$$CBKPAVCServerDesc@@@std@@@3@$0A@@std@@@2@@Z
_TEXT	SEGMENT
__Pnode$ = 8						; size = 4
?_Myval@?$_Tree@V?$_Tmap_traits@KPAVCServerDesc@@U?$less@K@std@@V?$allocator@U?$pair@$$CBKPAVCServerDesc@@@std@@@3@$0A@@std@@@std@@KAAAU?$pair@$$CBKPAVCServerDesc@@@2@PAU_Node@?$_Tree_nod@V?$_Tmap_traits@KPAVCServerDesc@@U?$less@K@std@@V?$allocator@U?$pair@$$CBKPAVCServerDesc@@@std@@@3@$0A@@std@@@2@@Z PROC NEAR ; std::_Tree<std::_Tmap_traits<unsigned long,CServerDesc *,std::less<unsigned long>,std::allocator<std::pair<unsigned long const ,CServerDesc *> >,0> >::_Myval, COMDAT

; 162  : 		return ((_Vref)(*_Pnode)._Myval);

  00000	8b 44 24 04	 mov	 eax, DWORD PTR __Pnode$[esp-4]
  00004	83 c0 0c	 add	 eax, 12			; 0000000cH

; 163  : 		}

  00007	c3		 ret	 0
?_Myval@?$_Tree@V?$_Tmap_traits@KPAVCServerDesc@@U?$less@K@std@@V?$allocator@U?$pair@$$CBKPAVCServerDesc@@@std@@@3@$0A@@std@@@std@@KAAAU?$pair@$$CBKPAVCServerDesc@@@2@PAU_Node@?$_Tree_nod@V?$_Tmap_traits@KPAVCServerDesc@@U?$less@K@std@@V?$allocator@U?$pair@$$CBKPAVCServerDesc@@@std@@@3@$0A@@std@@@2@@Z ENDP ; std::_Tree<std::_Tmap_traits<unsigned long,CServerDesc *,std::less<unsigned long>,std::allocator<std::pair<unsigned long const ,CServerDesc *> >,0> >::_Myval
_TEXT	ENDS
PUBLIC	?_Kfn@?$_Tmap_traits@KPAVCServerDesc@@U?$less@K@std@@V?$allocator@U?$pair@$$CBKPAVCServerDesc@@@std@@@3@$0A@@std@@SAABKABU?$pair@$$CBKPAVCServerDesc@@@2@@Z ; std::_Tmap_traits<unsigned long,CServerDesc *,std::less<unsigned long>,std::allocator<std::pair<unsigned long const ,CServerDesc *> >,0>::_Kfn
; Function compile flags: /Ogty
; File c:\program files\microsoft visual studio .net 2003\vc7\include\map
;	COMDAT ?_Kfn@?$_Tmap_traits@KPAVCServerDesc@@U?$less@K@std@@V?$allocator@U?$pair@$$CBKPAVCServerDesc@@@std@@@3@$0A@@std@@SAABKABU?$pair@$$CBKPAVCServerDesc@@@2@@Z
_TEXT	SEGMENT
__Val$ = 8						; size = 4
?_Kfn@?$_Tmap_traits@KPAVCServerDesc@@U?$less@K@std@@V?$allocator@U?$pair@$$CBKPAVCServerDesc@@@std@@@3@$0A@@std@@SAABKABU?$pair@$$CBKPAVCServerDesc@@@2@@Z PROC NEAR ; std::_Tmap_traits<unsigned long,CServerDesc *,std::less<unsigned long>,std::allocator<std::pair<unsigned long const ,CServerDesc *> >,0>::_Kfn, COMDAT

; 64   : 		return (_Val.first);

  00000	8b 44 24 04	 mov	 eax, DWORD PTR __Val$[esp-4]

; 65   : 		}

  00004	c3		 ret	 0
?_Kfn@?$_Tmap_traits@KPAVCServerDesc@@U?$less@K@std@@V?$allocator@U?$pair@$$CBKPAVCServerDesc@@@std@@@3@$0A@@std@@SAABKABU?$pair@$$CBKPAVCServerDesc@@@2@@Z ENDP ; std::_Tmap_traits<unsigned long,CServerDesc *,std::less<unsigned long>,std::allocator<std::pair<unsigned long const ,CServerDesc *> >,0>::_Kfn
_TEXT	ENDS
PUBLIC	??0?$allocator@U?$pair@$$CBKPAVCServerDesc@@@std@@@std@@QAE@ABV01@@Z ; std::allocator<std::pair<unsigned long const ,CServerDesc *> >::allocator<std::pair<unsigned long const ,CServerDesc *> >
; Function compile flags: /Ogty
; File c:\program files\microsoft visual studio .net 2003\vc7\include\xmemory
;	COMDAT ??0?$allocator@U?$pair@$$CBKPAVCServerDesc@@@std@@@std@@QAE@ABV01@@Z
_TEXT	SEGMENT
___formal$ = 8						; size = 4
??0?$allocator@U?$pair@$$CBKPAVCServerDesc@@@std@@@std@@QAE@ABV01@@Z PROC NEAR ; std::allocator<std::pair<unsigned long const ,CServerDesc *> >::allocator<std::pair<unsigned long const ,CServerDesc *> >, COMDAT
; _this$ = ecx

; 115  : 	allocator(const allocator<_Ty>&)

  00000	8b c1		 mov	 eax, ecx

; 116  : 		{	// construct by copying (do nothing)
; 117  : 		}

  00002	c2 04 00	 ret	 4
??0?$allocator@U?$pair@$$CBKPAVCServerDesc@@@std@@@std@@QAE@ABV01@@Z ENDP ; std::allocator<std::pair<unsigned long const ,CServerDesc *> >::allocator<std::pair<unsigned long const ,CServerDesc *> >
_TEXT	ENDS
PUBLIC	?deallocate@?$allocator@U_Node@?$_Tree_nod@V?$_Tmap_traits@KPAVCServerDesc@@U?$less@K@std@@V?$allocator@U?$pair@$$CBKPAVCServerDesc@@@std@@@3@$0A@@std@@@std@@@std@@QAEXPAU_Node@?$_Tree_nod@V?$_Tmap_traits@KPAVCServerDesc@@U?$less@K@std@@V?$allocator@U?$pair@$$CBKPAVCServerDesc@@@std@@@3@$0A@@std@@@2@I@Z ; std::allocator<std::_Tree_nod<std::_Tmap_traits<unsigned long,CServerDesc *,std::less<unsigned long>,std::allocator<std::pair<unsigned long const ,CServerDesc *> >,0> >::_Node>::deallocate
; Function compile flags: /Ogty
;	COMDAT ?deallocate@?$allocator@U_Node@?$_Tree_nod@V?$_Tmap_traits@KPAVCServerDesc@@U?$less@K@std@@V?$allocator@U?$pair@$$CBKPAVCServerDesc@@@std@@@3@$0A@@std@@@std@@@std@@QAEXPAU_Node@?$_Tree_nod@V?$_Tmap_traits@KPAVCServerDesc@@U?$less@K@std@@V?$allocator@U?$pair@$$CBKPAVCServerDesc@@@std@@@3@$0A@@std@@@2@I@Z
_TEXT	SEGMENT
__Ptr$ = 8						; size = 4
___formal$ = 12						; size = 4
?deallocate@?$allocator@U_Node@?$_Tree_nod@V?$_Tmap_traits@KPAVCServerDesc@@U?$less@K@std@@V?$allocator@U?$pair@$$CBKPAVCServerDesc@@@std@@@3@$0A@@std@@@std@@@std@@QAEXPAU_Node@?$_Tree_nod@V?$_Tmap_traits@KPAVCServerDesc@@U?$less@K@std@@V?$allocator@U?$pair@$$CBKPAVCServerDesc@@@std@@@3@$0A@@std@@@2@I@Z PROC NEAR ; std::allocator<std::_Tree_nod<std::_Tmap_traits<unsigned long,CServerDesc *,std::less<unsigned long>,std::allocator<std::pair<unsigned long const ,CServerDesc *> >,0> >::_Node>::deallocate, COMDAT
; _this$ = ecx

; 132  : 		operator delete(_Ptr);

  00000	8b 44 24 04	 mov	 eax, DWORD PTR __Ptr$[esp-4]
  00004	50		 push	 eax
  00005	e8 00 00 00 00	 call	 ??3@YAXPAX@Z		; operator delete
  0000a	59		 pop	 ecx

; 133  : 		}

  0000b	c2 08 00	 ret	 8
?deallocate@?$allocator@U_Node@?$_Tree_nod@V?$_Tmap_traits@KPAVCServerDesc@@U?$less@K@std@@V?$allocator@U?$pair@$$CBKPAVCServerDesc@@@std@@@3@$0A@@std@@@std@@@std@@QAEXPAU_Node@?$_Tree_nod@V?$_Tmap_traits@KPAVCServerDesc@@U?$less@K@std@@V?$allocator@U?$pair@$$CBKPAVCServerDesc@@@std@@@3@$0A@@std@@@2@I@Z ENDP ; std::allocator<std::_Tree_nod<std::_Tmap_traits<unsigned long,CServerDesc *,std::less<unsigned long>,std::allocator<std::pair<unsigned long const ,CServerDesc *> >,0> >::_Node>::deallocate
_TEXT	ENDS
PUBLIC	??0const_iterator@?$list@PAVCJurisdiction@@V?$allocator@PAVCJurisdiction@@@std@@@std@@QAE@PAU_Node@?$_List_nod@PAVCJurisdiction@@V?$allocator@PAVCJurisdiction@@@std@@@2@@Z ; std::list<CJurisdiction *,std::allocator<CJurisdiction *> >::const_iterator::const_iterator
; Function compile flags: /Ogty
; File c:\program files\microsoft visual studio .net 2003\vc7\include\list
;	COMDAT ??0const_iterator@?$list@PAVCJurisdiction@@V?$allocator@PAVCJurisdiction@@@std@@@std@@QAE@PAU_Node@?$_List_nod@PAVCJurisdiction@@V?$allocator@PAVCJurisdiction@@@std@@@2@@Z
_TEXT	SEGMENT
__Pnode$ = 8						; size = 4
??0const_iterator@?$list@PAVCJurisdiction@@V?$allocator@PAVCJurisdiction@@@std@@@std@@QAE@PAU_Node@?$_List_nod@PAVCJurisdiction@@V?$allocator@PAVCJurisdiction@@@std@@@2@@Z PROC NEAR ; std::list<CJurisdiction *,std::allocator<CJurisdiction *> >::const_iterator::const_iterator, COMDAT
; _this$ = ecx

; 156  : 			{	// construct with node pointer _Pnode

  00000	8b c1		 mov	 eax, ecx
  00002	8b 4c 24 04	 mov	 ecx, DWORD PTR __Pnode$[esp-4]
  00006	89 08		 mov	 DWORD PTR [eax], ecx

; 157  : 			}

  00008	c2 04 00	 ret	 4
??0const_iterator@?$list@PAVCJurisdiction@@V?$allocator@PAVCJurisdiction@@@std@@@std@@QAE@PAU_Node@?$_List_nod@PAVCJurisdiction@@V?$allocator@PAVCJurisdiction@@@std@@@2@@Z ENDP ; std::list<CJurisdiction *,std::allocator<CJurisdiction *> >::const_iterator::const_iterator
_TEXT	ENDS
PUBLIC	?_Mynode@const_iterator@?$list@PAVCJurisdiction@@V?$allocator@PAVCJurisdiction@@@std@@@std@@QBEPAU_Node@?$_List_nod@PAVCJurisdiction@@V?$allocator@PAVCJurisdiction@@@std@@@3@XZ ; std::list<CJurisdiction *,std::allocator<CJurisdiction *> >::const_iterator::_Mynode
; Function compile flags: /Ogty
;	COMDAT ?_Mynode@const_iterator@?$list@PAVCJurisdiction@@V?$allocator@PAVCJurisdiction@@@std@@@std@@QBEPAU_Node@?$_List_nod@PAVCJurisdiction@@V?$allocator@PAVCJurisdiction@@@std@@@3@XZ
_TEXT	SEGMENT
?_Mynode@const_iterator@?$list@PAVCJurisdiction@@V?$allocator@PAVCJurisdiction@@@std@@@std@@QBEPAU_Node@?$_List_nod@PAVCJurisdiction@@V?$allocator@PAVCJurisdiction@@@std@@@3@XZ PROC NEAR ; std::list<CJurisdiction *,std::allocator<CJurisdiction *> >::const_iterator::_Mynode, COMDAT
; _this$ = ecx

; 207  : 			return (_Ptr);

  00000	8b 01		 mov	 eax, DWORD PTR [ecx]

; 208  : 			}

  00002	c3		 ret	 0
?_Mynode@const_iterator@?$list@PAVCJurisdiction@@V?$allocator@PAVCJurisdiction@@@std@@@std@@QBEPAU_Node@?$_List_nod@PAVCJurisdiction@@V?$allocator@PAVCJurisdiction@@@std@@@3@XZ ENDP ; std::list<CJurisdiction *,std::allocator<CJurisdiction *> >::const_iterator::_Mynode
_TEXT	ENDS
PUBLIC	??0const_iterator@?$_Tree@V?$_Tmap_traits@KPAVCServerDesc@@U?$less@K@std@@V?$allocator@U?$pair@$$CBKPAVCServerDesc@@@std@@@3@$0A@@std@@@std@@QAE@PAU_Node@?$_Tree_nod@V?$_Tmap_traits@KPAVCServerDesc@@U?$less@K@std@@V?$allocator@U?$pair@$$CBKPAVCServerDesc@@@std@@@3@$0A@@std@@@2@@Z ; std::_Tree<std::_Tmap_traits<unsigned long,CServerDesc *,std::less<unsigned long>,std::allocator<std::pair<unsigned long const ,CServerDesc *> >,0> >::const_iterator::const_iterator
; Function compile flags: /Ogty
; File c:\program files\microsoft visual studio .net 2003\vc7\include\xtree
;	COMDAT ??0const_iterator@?$_Tree@V?$_Tmap_traits@KPAVCServerDesc@@U?$less@K@std@@V?$allocator@U?$pair@$$CBKPAVCServerDesc@@@std@@@3@$0A@@std@@@std@@QAE@PAU_Node@?$_Tree_nod@V?$_Tmap_traits@KPAVCServerDesc@@U?$less@K@std@@V?$allocator@U?$pair@$$CBKPAVCServerDesc@@@std@@@3@$0A@@std@@@2@@Z
_TEXT	SEGMENT
__Pnode$ = 8						; size = 4
??0const_iterator@?$_Tree@V?$_Tmap_traits@KPAVCServerDesc@@U?$less@K@std@@V?$allocator@U?$pair@$$CBKPAVCServerDesc@@@std@@@3@$0A@@std@@@std@@QAE@PAU_Node@?$_Tree_nod@V?$_Tmap_traits@KPAVCServerDesc@@U?$less@K@std@@V?$allocator@U?$pair@$$CBKPAVCServerDesc@@@std@@@3@$0A@@std@@@2@@Z PROC NEAR ; std::_Tree<std::_Tmap_traits<unsigned long,CServerDesc *,std::less<unsigned long>,std::allocator<std::pair<unsigned long const ,CServerDesc *> >,0> >::const_iterator::const_iterator, COMDAT
; _this$ = ecx

; 200  : 			{	// construct with node pointer _Pnode

  00000	8b c1		 mov	 eax, ecx
  00002	8b 4c 24 04	 mov	 ecx, DWORD PTR __Pnode$[esp-4]
  00006	89 08		 mov	 DWORD PTR [eax], ecx

; 201  : 			}

  00008	c2 04 00	 ret	 4
??0const_iterator@?$_Tree@V?$_Tmap_traits@KPAVCServerDesc@@U?$less@K@std@@V?$allocator@U?$pair@$$CBKPAVCServerDesc@@@std@@@3@$0A@@std@@@std@@QAE@PAU_Node@?$_Tree_nod@V?$_Tmap_traits@KPAVCServerDesc@@U?$less@K@std@@V?$allocator@U?$pair@$$CBKPAVCServerDesc@@@std@@@3@$0A@@std@@@2@@Z ENDP ; std::_Tree<std::_Tmap_traits<unsigned long,CServerDesc *,std::less<unsigned long>,std::allocator<std::pair<unsigned long const ,CServerDesc *> >,0> >::const_iterator::const_iterator
_TEXT	ENDS
PUBLIC	??Dconst_iterator@?$_Tree@V?$_Tmap_traits@KPAVCServerDesc@@U?$less@K@std@@V?$allocator@U?$pair@$$CBKPAVCServerDesc@@@std@@@3@$0A@@std@@@std@@QBEABU?$pair@$$CBKPAVCServerDesc@@@2@XZ ; std::_Tree<std::_Tmap_traits<unsigned long,CServerDesc *,std::less<unsigned long>,std::allocator<std::pair<unsigned long const ,CServerDesc *> >,0> >::const_iterator::operator*
; Function compile flags: /Ogty
;	COMDAT ??Dconst_iterator@?$_Tree@V?$_Tmap_traits@KPAVCServerDesc@@U?$less@K@std@@V?$allocator@U?$pair@$$CBKPAVCServerDesc@@@std@@@3@$0A@@std@@@std@@QBEABU?$pair@$$CBKPAVCServerDesc@@@2@XZ
_TEXT	SEGMENT
??Dconst_iterator@?$_Tree@V?$_Tmap_traits@KPAVCServerDesc@@U?$less@K@std@@V?$allocator@U?$pair@$$CBKPAVCServerDesc@@@std@@@3@$0A@@std@@@std@@QBEABU?$pair@$$CBKPAVCServerDesc@@@2@XZ PROC NEAR ; std::_Tree<std::_Tmap_traits<unsigned long,CServerDesc *,std::less<unsigned long>,std::allocator<std::pair<unsigned long const ,CServerDesc *> >,0> >::const_iterator::operator*, COMDAT
; _this$ = ecx

; 205  : 			return (_Myval(_Ptr));

  00000	8b 01		 mov	 eax, DWORD PTR [ecx]
  00002	83 c0 0c	 add	 eax, 12			; 0000000cH

; 206  : 			}

  00005	c3		 ret	 0
??Dconst_iterator@?$_Tree@V?$_Tmap_traits@KPAVCServerDesc@@U?$less@K@std@@V?$allocator@U?$pair@$$CBKPAVCServerDesc@@@std@@@3@$0A@@std@@@std@@QBEABU?$pair@$$CBKPAVCServerDesc@@@2@XZ ENDP ; std::_Tree<std::_Tmap_traits<unsigned long,CServerDesc *,std::less<unsigned long>,std::allocator<std::pair<unsigned long const ,CServerDesc *> >,0> >::const_iterator::operator*
_TEXT	ENDS
PUBLIC	?_Min@?$_Tree@V?$_Tmap_traits@KPAVCServerDesc@@U?$less@K@std@@V?$allocator@U?$pair@$$CBKPAVCServerDesc@@@std@@@3@$0A@@std@@@std@@KAPAU_Node@?$_Tree_nod@V?$_Tmap_traits@KPAVCServerDesc@@U?$less@K@std@@V?$allocator@U?$pair@$$CBKPAVCServerDesc@@@std@@@3@$0A@@std@@@2@PAU342@@Z ; std::_Tree<std::_Tmap_traits<unsigned long,CServerDesc *,std::less<unsigned long>,std::allocator<std::pair<unsigned long const ,CServerDesc *> >,0> >::_Min
; Function compile flags: /Ogty
;	COMDAT ?_Min@?$_Tree@V?$_Tmap_traits@KPAVCServerDesc@@U?$less@K@std@@V?$allocator@U?$pair@$$CBKPAVCServerDesc@@@std@@@3@$0A@@std@@@std@@KAPAU_Node@?$_Tree_nod@V?$_Tmap_traits@KPAVCServerDesc@@U?$less@K@std@@V?$allocator@U?$pair@$$CBKPAVCServerDesc@@@std@@@3@$0A@@std@@@2@PAU342@@Z
_TEXT	SEGMENT
__Pnode$ = 8						; size = 4
?_Min@?$_Tree@V?$_Tmap_traits@KPAVCServerDesc@@U?$less@K@std@@V?$allocator@U?$pair@$$CBKPAVCServerDesc@@@std@@@3@$0A@@std@@@std@@KAPAU_Node@?$_Tree_nod@V?$_Tmap_traits@KPAVCServerDesc@@U?$less@K@std@@V?$allocator@U?$pair@$$CBKPAVCServerDesc@@@std@@@3@$0A@@std@@@2@PAU342@@Z PROC NEAR ; std::_Tree<std::_Tmap_traits<unsigned long,CServerDesc *,std::less<unsigned long>,std::allocator<std::pair<unsigned long const ,CServerDesc *> >,0> >::_Min, COMDAT

; 1042 : 		while (!_Isnil(_Left(_Pnode)))

  00000	8b 44 24 04	 mov	 eax, DWORD PTR __Pnode$[esp-4]
  00004	8b 08		 mov	 ecx, DWORD PTR [eax]
  00006	8a 51 15	 mov	 dl, BYTE PTR [ecx+21]
  00009	84 d2		 test	 dl, dl
  0000b	75 0e		 jne	 SHORT $L226439
  0000d	8d 49 00	 npad	 3
$L226438:

; 1043 : 			_Pnode = _Left(_Pnode);

  00010	8b c1		 mov	 eax, ecx
  00012	8b 08		 mov	 ecx, DWORD PTR [eax]
  00014	8a 51 15	 mov	 dl, BYTE PTR [ecx+21]
  00017	84 d2		 test	 dl, dl
  00019	74 f5		 je	 SHORT $L226438
$L226439:

; 1044 : 		return (_Pnode);
; 1045 : 		}

  0001b	c3		 ret	 0
?_Min@?$_Tree@V?$_Tmap_traits@KPAVCServerDesc@@U?$less@K@std@@V?$allocator@U?$pair@$$CBKPAVCServerDesc@@@std@@@3@$0A@@std@@@std@@KAPAU_Node@?$_Tree_nod@V?$_Tmap_traits@KPAVCServerDesc@@U?$less@K@std@@V?$allocator@U?$pair@$$CBKPAVCServerDesc@@@std@@@3@$0A@@std@@@2@PAU342@@Z ENDP ; std::_Tree<std::_Tmap_traits<unsigned long,CServerDesc *,std::less<unsigned long>,std::allocator<std::pair<unsigned long const ,CServerDesc *> >,0> >::_Min
_TEXT	ENDS
PUBLIC	?_Root@?$_Tree@V?$_Tmap_traits@KPAVCServerDesc@@U?$less@K@std@@V?$allocator@U?$pair@$$CBKPAVCServerDesc@@@std@@@3@$0A@@std@@@std@@IBEAAPAU_Node@?$_Tree_nod@V?$_Tmap_traits@KPAVCServerDesc@@U?$less@K@std@@V?$allocator@U?$pair@$$CBKPAVCServerDesc@@@std@@@3@$0A@@std@@@2@XZ ; std::_Tree<std::_Tmap_traits<unsigned long,CServerDesc *,std::less<unsigned long>,std::allocator<std::pair<unsigned long const ,CServerDesc *> >,0> >::_Root
; Function compile flags: /Ogty
;	COMDAT ?_Root@?$_Tree@V?$_Tmap_traits@KPAVCServerDesc@@U?$less@K@std@@V?$allocator@U?$pair@$$CBKPAVCServerDesc@@@std@@@3@$0A@@std@@@std@@IBEAAPAU_Node@?$_Tree_nod@V?$_Tmap_traits@KPAVCServerDesc@@U?$less@K@std@@V?$allocator@U?$pair@$$CBKPAVCServerDesc@@@std@@@3@$0A@@std@@@2@XZ
_TEXT	SEGMENT
?_Root@?$_Tree@V?$_Tmap_traits@KPAVCServerDesc@@U?$less@K@std@@V?$allocator@U?$pair@$$CBKPAVCServerDesc@@@std@@@3@$0A@@std@@@std@@IBEAAPAU_Node@?$_Tree_nod@V?$_Tmap_traits@KPAVCServerDesc@@U?$less@K@std@@V?$allocator@U?$pair@$$CBKPAVCServerDesc@@@std@@@3@$0A@@std@@@2@XZ PROC NEAR ; std::_Tree<std::_Tmap_traits<unsigned long,CServerDesc *,std::less<unsigned long>,std::allocator<std::pair<unsigned long const ,CServerDesc *> >,0> >::_Root, COMDAT
; _this$ = ecx

; 1064 : 		return (_Parent(_Myhead));

  00000	8b 41 04	 mov	 eax, DWORD PTR [ecx+4]
  00003	83 c0 04	 add	 eax, 4

; 1065 : 		}

  00006	c3		 ret	 0
?_Root@?$_Tree@V?$_Tmap_traits@KPAVCServerDesc@@U?$less@K@std@@V?$allocator@U?$pair@$$CBKPAVCServerDesc@@@std@@@3@$0A@@std@@@std@@IBEAAPAU_Node@?$_Tree_nod@V?$_Tmap_traits@KPAVCServerDesc@@U?$less@K@std@@V?$allocator@U?$pair@$$CBKPAVCServerDesc@@@std@@@3@$0A@@std@@@2@XZ ENDP ; std::_Tree<std::_Tmap_traits<unsigned long,CServerDesc *,std::less<unsigned long>,std::allocator<std::pair<unsigned long const ,CServerDesc *> >,0> >::_Root
_TEXT	ENDS
PUBLIC	??0_Node@?$_List_nod@PAVCJurisdiction@@V?$allocator@PAVCJurisdiction@@@std@@@std@@QAE@PAU012@0ABQAVCJurisdiction@@@Z ; std::_List_nod<CJurisdiction *,std::allocator<CJurisdiction *> >::_Node::_Node
; Function compile flags: /Ogty
; File c:\program files\microsoft visual studio .net 2003\vc7\include\list
;	COMDAT ??0_Node@?$_List_nod@PAVCJurisdiction@@V?$allocator@PAVCJurisdiction@@@std@@@std@@QAE@PAU012@0ABQAVCJurisdiction@@@Z
_TEXT	SEGMENT
__Nextarg$ = 8						; size = 4
__Prevarg$ = 12						; size = 4
__Myvalarg$ = 16					; size = 4
??0_Node@?$_List_nod@PAVCJurisdiction@@V?$allocator@PAVCJurisdiction@@@std@@@std@@QAE@PAU012@0ABQAVCJurisdiction@@@Z PROC NEAR ; std::_List_nod<CJurisdiction *,std::allocator<CJurisdiction *> >::_Node::_Node, COMDAT
; _this$ = ecx

; 34   : 			{	// construct a node with value

  00000	8b 54 24 08	 mov	 edx, DWORD PTR __Prevarg$[esp-4]
  00004	8b c1		 mov	 eax, ecx
  00006	8b 4c 24 04	 mov	 ecx, DWORD PTR __Nextarg$[esp-4]
  0000a	89 08		 mov	 DWORD PTR [eax], ecx
  0000c	8b 4c 24 0c	 mov	 ecx, DWORD PTR __Myvalarg$[esp-4]
  00010	89 50 04	 mov	 DWORD PTR [eax+4], edx
  00013	8b 11		 mov	 edx, DWORD PTR [ecx]
  00015	89 50 08	 mov	 DWORD PTR [eax+8], edx

; 35   : 			}

  00018	c2 0c 00	 ret	 12			; 0000000cH
??0_Node@?$_List_nod@PAVCJurisdiction@@V?$allocator@PAVCJurisdiction@@@std@@@std@@QAE@PAU012@0ABQAVCJurisdiction@@@Z ENDP ; std::_List_nod<CJurisdiction *,std::allocator<CJurisdiction *> >::_Node::_Node
_TEXT	ENDS
PUBLIC	?max_size@?$allocator@PAVCJurisdiction@@@std@@QBEIXZ ; std::allocator<CJurisdiction *>::max_size
; Function compile flags: /Ogty
; File c:\program files\microsoft visual studio .net 2003\vc7\include\xmemory
;	COMDAT ?max_size@?$allocator@PAVCJurisdiction@@@std@@QBEIXZ
_TEXT	SEGMENT
?max_size@?$allocator@PAVCJurisdiction@@@std@@QBEIXZ PROC NEAR ; std::allocator<CJurisdiction *>::max_size, COMDAT
; _this$ = ecx

; 157  : 		_SIZT _Count = (_SIZT)(-1) / sizeof (_Ty);
; 158  : 		return (0 < _Count ? _Count : 1);

  00000	b8 ff ff ff 3f	 mov	 eax, 1073741823		; 3fffffffH

; 159  : 		}

  00005	c3		 ret	 0
?max_size@?$allocator@PAVCJurisdiction@@@std@@QBEIXZ ENDP ; std::allocator<CJurisdiction *>::max_size
_TEXT	ENDS
PUBLIC	?_Color@?$_Tree@V?$_Tmap_traits@KPAVCServerDesc@@U?$less@K@std@@V?$allocator@U?$pair@$$CBKPAVCServerDesc@@@std@@@3@$0A@@std@@@std@@KAAADPAU_Node@?$_Tree_nod@V?$_Tmap_traits@KPAVCServerDesc@@U?$less@K@std@@V?$allocator@U?$pair@$$CBKPAVCServerDesc@@@std@@@3@$0A@@std@@@2@@Z ; std::_Tree<std::_Tmap_traits<unsigned long,CServerDesc *,std::less<unsigned long>,std::allocator<std::pair<unsigned long const ,CServerDesc *> >,0> >::_Color
; Function compile flags: /Ogty
; File c:\program files\microsoft visual studio .net 2003\vc7\include\xtree
;	COMDAT ?_Color@?$_Tree@V?$_Tmap_traits@KPAVCServerDesc@@U?$less@K@std@@V?$allocator@U?$pair@$$CBKPAVCServerDesc@@@std@@@3@$0A@@std@@@std@@KAAADPAU_Node@?$_Tree_nod@V?$_Tmap_traits@KPAVCServerDesc@@U?$less@K@std@@V?$allocator@U?$pair@$$CBKPAVCServerDesc@@@std@@@3@$0A@@std@@@2@@Z
_TEXT	SEGMENT
__Pnode$ = 8						; size = 4
?_Color@?$_Tree@V?$_Tmap_traits@KPAVCServerDesc@@U?$less@K@std@@V?$allocator@U?$pair@$$CBKPAVCServerDesc@@@std@@@3@$0A@@std@@@std@@KAAADPAU_Node@?$_Tree_nod@V?$_Tmap_traits@KPAVCServerDesc@@U?$less@K@std@@V?$allocator@U?$pair@$$CBKPAVCServerDesc@@@std@@@3@$0A@@std@@@2@@Z PROC NEAR ; std::_Tree<std::_Tmap_traits<unsigned long,CServerDesc *,std::less<unsigned long>,std::allocator<std::pair<unsigned long const ,CServerDesc *> >,0> >::_Color, COMDAT

; 132  : 		return ((_Charref)(*_Pnode)._Color);

  00000	8b 44 24 04	 mov	 eax, DWORD PTR __Pnode$[esp-4]
  00004	83 c0 14	 add	 eax, 20			; 00000014H

; 133  : 		}

  00007	c3		 ret	 0
?_Color@?$_Tree@V?$_Tmap_traits@KPAVCServerDesc@@U?$less@K@std@@V?$allocator@U?$pair@$$CBKPAVCServerDesc@@@std@@@3@$0A@@std@@@std@@KAAADPAU_Node@?$_Tree_nod@V?$_Tmap_traits@KPAVCServerDesc@@U?$less@K@std@@V?$allocator@U?$pair@$$CBKPAVCServerDesc@@@std@@@3@$0A@@std@@@2@@Z ENDP ; std::_Tree<std::_Tmap_traits<unsigned long,CServerDesc *,std::less<unsigned long>,std::allocator<std::pair<unsigned long const ,CServerDesc *> >,0> >::_Color
_TEXT	ENDS
PUBLIC	?_Max@?$_Tree@V?$_Tmap_traits@KPAVCServerDesc@@U?$less@K@std@@V?$allocator@U?$pair@$$CBKPAVCServerDesc@@@std@@@3@$0A@@std@@@std@@KAPAU_Node@?$_Tree_nod@V?$_Tmap_traits@KPAVCServerDesc@@U?$less@K@std@@V?$allocator@U?$pair@$$CBKPAVCServerDesc@@@std@@@3@$0A@@std@@@2@PAU342@@Z ; std::_Tree<std::_Tmap_traits<unsigned long,CServerDesc *,std::less<unsigned long>,std::allocator<std::pair<unsigned long const ,CServerDesc *> >,0> >::_Max
; Function compile flags: /Ogty
;	COMDAT ?_Max@?$_Tree@V?$_Tmap_traits@KPAVCServerDesc@@U?$less@K@std@@V?$allocator@U?$pair@$$CBKPAVCServerDesc@@@std@@@3@$0A@@std@@@std@@KAPAU_Node@?$_Tree_nod@V?$_Tmap_traits@KPAVCServerDesc@@U?$less@K@std@@V?$allocator@U?$pair@$$CBKPAVCServerDesc@@@std@@@3@$0A@@std@@@2@PAU342@@Z
_TEXT	SEGMENT
__Pnode$ = 8						; size = 4
?_Max@?$_Tree@V?$_Tmap_traits@KPAVCServerDesc@@U?$less@K@std@@V?$allocator@U?$pair@$$CBKPAVCServerDesc@@@std@@@3@$0A@@std@@@std@@KAPAU_Node@?$_Tree_nod@V?$_Tmap_traits@KPAVCServerDesc@@U?$less@K@std@@V?$allocator@U?$pair@$$CBKPAVCServerDesc@@@std@@@3@$0A@@std@@@2@PAU342@@Z PROC NEAR ; std::_Tree<std::_Tmap_traits<unsigned long,CServerDesc *,std::less<unsigned long>,std::allocator<std::pair<unsigned long const ,CServerDesc *> >,0> >::_Max, COMDAT

; 1035 : 		while (!_Isnil(_Right(_Pnode)))

  00000	8b 44 24 04	 mov	 eax, DWORD PTR __Pnode$[esp-4]
  00004	8b 48 08	 mov	 ecx, DWORD PTR [eax+8]
  00007	8a 51 15	 mov	 dl, BYTE PTR [ecx+21]
  0000a	84 d2		 test	 dl, dl
  0000c	75 0e		 jne	 SHORT $L226482
  0000e	8b ff		 npad	 2
$L226481:

; 1036 : 			_Pnode = _Right(_Pnode);

  00010	8b c1		 mov	 eax, ecx
  00012	8b 48 08	 mov	 ecx, DWORD PTR [eax+8]
  00015	8a 51 15	 mov	 dl, BYTE PTR [ecx+21]
  00018	84 d2		 test	 dl, dl
  0001a	74 f4		 je	 SHORT $L226481
$L226482:

; 1037 : 		return (_Pnode);
; 1038 : 		}

  0001c	c3		 ret	 0
?_Max@?$_Tree@V?$_Tmap_traits@KPAVCServerDesc@@U?$less@K@std@@V?$allocator@U?$pair@$$CBKPAVCServerDesc@@@std@@@3@$0A@@std@@@std@@KAPAU_Node@?$_Tree_nod@V?$_Tmap_traits@KPAVCServerDesc@@U?$less@K@std@@V?$allocator@U?$pair@$$CBKPAVCServerDesc@@@std@@@3@$0A@@std@@@2@PAU342@@Z ENDP ; std::_Tree<std::_Tmap_traits<unsigned long,CServerDesc *,std::less<unsigned long>,std::allocator<std::pair<unsigned long const ,CServerDesc *> >,0> >::_Max
_TEXT	ENDS
PUBLIC	??0?$_Tmap_traits@KPAVCServerDesc@@U?$less@K@std@@V?$allocator@U?$pair@$$CBKPAVCServerDesc@@@std@@@3@$0A@@std@@QAE@U?$less@K@1@@Z ; std::_Tmap_traits<unsigned long,CServerDesc *,std::less<unsigned long>,std::allocator<std::pair<unsigned long const ,CServerDesc *> >,0>::_Tmap_traits<unsigned long,CServerDesc *,std::less<unsigned long>,std::allocator<std::pair<unsigned long const ,CServerDesc *> >,0>
; Function compile flags: /Ogty
; File c:\program files\microsoft visual studio .net 2003\vc7\include\map
;	COMDAT ??0?$_Tmap_traits@KPAVCServerDesc@@U?$less@K@std@@V?$allocator@U?$pair@$$CBKPAVCServerDesc@@@std@@@3@$0A@@std@@QAE@U?$less@K@1@@Z
_TEXT	SEGMENT
__Parg$ = 8						; size = 1
??0?$_Tmap_traits@KPAVCServerDesc@@U?$less@K@std@@V?$allocator@U?$pair@$$CBKPAVCServerDesc@@@std@@@3@$0A@@std@@QAE@U?$less@K@1@@Z PROC NEAR ; std::_Tmap_traits<unsigned long,CServerDesc *,std::less<unsigned long>,std::allocator<std::pair<unsigned long const ,CServerDesc *> >,0>::_Tmap_traits<unsigned long,CServerDesc *,std::less<unsigned long>,std::allocator<std::pair<unsigned long const ,CServerDesc *> >,0>, COMDAT
; _this$ = ecx

; 38   : 		{	// construct with specified comparator

  00000	8b c1		 mov	 eax, ecx

; 39   : 		}

  00002	c2 04 00	 ret	 4
??0?$_Tmap_traits@KPAVCServerDesc@@U?$less@K@std@@V?$allocator@U?$pair@$$CBKPAVCServerDesc@@@std@@@3@$0A@@std@@QAE@U?$less@K@1@@Z ENDP ; std::_Tmap_traits<unsigned long,CServerDesc *,std::less<unsigned long>,std::allocator<std::pair<unsigned long const ,CServerDesc *> >,0>::_Tmap_traits<unsigned long,CServerDesc *,std::less<unsigned long>,std::allocator<std::pair<unsigned long const ,CServerDesc *> >,0>
_TEXT	ENDS
PUBLIC	??$?0PAVCJurisdiction@@@?$allocator@PAU_Node@?$_List_nod@PAVCJurisdiction@@V?$allocator@PAVCJurisdiction@@@std@@@std@@@std@@QAE@ABV?$allocator@PAVCJurisdiction@@@1@@Z ; std::allocator<std::_List_nod<CJurisdiction *,std::allocator<CJurisdiction *> >::_Node *>::allocator<std::_List_nod<CJurisdiction *,std::allocator<CJurisdiction *> >::_Node *><CJurisdiction *>
; Function compile flags: /Ogty
; File c:\program files\microsoft visual studio .net 2003\vc7\include\xmemory
;	COMDAT ??$?0PAVCJurisdiction@@@?$allocator@PAU_Node@?$_List_nod@PAVCJurisdiction@@V?$allocator@PAVCJurisdiction@@@std@@@std@@@std@@QAE@ABV?$allocator@PAVCJurisdiction@@@1@@Z
_TEXT	SEGMENT
___formal$ = 8						; size = 4
??$?0PAVCJurisdiction@@@?$allocator@PAU_Node@?$_List_nod@PAVCJurisdiction@@V?$allocator@PAVCJurisdiction@@@std@@@std@@@std@@QAE@ABV?$allocator@PAVCJurisdiction@@@1@@Z PROC NEAR ; std::allocator<std::_List_nod<CJurisdiction *,std::allocator<CJurisdiction *> >::_Node *>::allocator<std::_List_nod<CJurisdiction *,std::allocator<CJurisdiction *> >::_Node *><CJurisdiction *>, COMDAT
; _this$ = ecx

; 120  : 		allocator(const allocator<_Other>&)

  00000	8b c1		 mov	 eax, ecx

; 121  : 		{	// construct from a related allocator (do nothing)
; 122  : 		}

  00002	c2 04 00	 ret	 4
??$?0PAVCJurisdiction@@@?$allocator@PAU_Node@?$_List_nod@PAVCJurisdiction@@V?$allocator@PAVCJurisdiction@@@std@@@std@@@std@@QAE@ABV?$allocator@PAVCJurisdiction@@@1@@Z ENDP ; std::allocator<std::_List_nod<CJurisdiction *,std::allocator<CJurisdiction *> >::_Node *>::allocator<std::_List_nod<CJurisdiction *,std::allocator<CJurisdiction *> >::_Node *><CJurisdiction *>
_TEXT	ENDS
PUBLIC	??$_Allocate@U_Node@?$_List_nod@PAVCJurisdiction@@V?$allocator@PAVCJurisdiction@@@std@@@std@@@std@@YAPAU_Node@?$_List_nod@PAVCJurisdiction@@V?$allocator@PAVCJurisdiction@@@std@@@0@IPAU120@@Z ; std::_Allocate<std::_List_nod<CJurisdiction *,std::allocator<CJurisdiction *> >::_Node>
EXTRN	??2@YAPAXI@Z:NEAR				; operator new
; Function compile flags: /Ogty
;	COMDAT ??$_Allocate@U_Node@?$_List_nod@PAVCJurisdiction@@V?$allocator@PAVCJurisdiction@@@std@@@std@@@std@@YAPAU_Node@?$_List_nod@PAVCJurisdiction@@V?$allocator@PAVCJurisdiction@@@std@@@0@IPAU120@@Z
_TEXT	SEGMENT
__Count$ = 8						; size = 4
___formal$ = 12						; size = 4
??$_Allocate@U_Node@?$_List_nod@PAVCJurisdiction@@V?$allocator@PAVCJurisdiction@@@std@@@std@@@std@@YAPAU_Node@?$_List_nod@PAVCJurisdiction@@V?$allocator@PAVCJurisdiction@@@std@@@0@IPAU120@@Z PROC NEAR ; std::_Allocate<std::_List_nod<CJurisdiction *,std::allocator<CJurisdiction *> >::_Node>, COMDAT

; 34   : 	return ((_Ty _FARQ *)operator new(_Count * sizeof (_Ty)));

  00000	8b 44 24 04	 mov	 eax, DWORD PTR __Count$[esp-4]
  00004	8d 04 40	 lea	 eax, DWORD PTR [eax+eax*2]
  00007	c1 e0 02	 shl	 eax, 2
  0000a	50		 push	 eax
  0000b	e8 00 00 00 00	 call	 ??2@YAPAXI@Z		; operator new
  00010	83 c4 04	 add	 esp, 4

; 35   : 	}

  00013	c3		 ret	 0
??$_Allocate@U_Node@?$_List_nod@PAVCJurisdiction@@V?$allocator@PAVCJurisdiction@@@std@@@std@@@std@@YAPAU_Node@?$_List_nod@PAVCJurisdiction@@V?$allocator@PAVCJurisdiction@@@std@@@0@IPAU120@@Z ENDP ; std::_Allocate<std::_List_nod<CJurisdiction *,std::allocator<CJurisdiction *> >::_Node>
_TEXT	ENDS
PUBLIC	??$_Destroy@U_Node@?$_List_nod@PAVCJurisdiction@@V?$allocator@PAVCJurisdiction@@@std@@@std@@@std@@YAXPAU_Node@?$_List_nod@PAVCJurisdiction@@V?$allocator@PAVCJurisdiction@@@std@@@0@@Z ; std::_Destroy<std::_List_nod<CJurisdiction *,std::allocator<CJurisdiction *> >::_Node>
; Function compile flags: /Ogty
;	COMDAT ??$_Destroy@U_Node@?$_List_nod@PAVCJurisdiction@@V?$allocator@PAVCJurisdiction@@@std@@@std@@@std@@YAXPAU_Node@?$_List_nod@PAVCJurisdiction@@V?$allocator@PAVCJurisdiction@@@std@@@0@@Z
_TEXT	SEGMENT
__Ptr$ = 8						; size = 4
??$_Destroy@U_Node@?$_List_nod@PAVCJurisdiction@@V?$allocator@PAVCJurisdiction@@@std@@@std@@@std@@YAXPAU_Node@?$_List_nod@PAVCJurisdiction@@V?$allocator@PAVCJurisdiction@@@std@@@0@@Z PROC NEAR ; std::_Destroy<std::_List_nod<CJurisdiction *,std::allocator<CJurisdiction *> >::_Node>, COMDAT

; 49   : 	_DESTRUCTOR(_Ty, _Ptr);
; 50   : 	}

  00000	c3		 ret	 0
??$_Destroy@U_Node@?$_List_nod@PAVCJurisdiction@@V?$allocator@PAVCJurisdiction@@@std@@@std@@@std@@YAXPAU_Node@?$_List_nod@PAVCJurisdiction@@V?$allocator@PAVCJurisdiction@@@std@@@0@@Z ENDP ; std::_Destroy<std::_List_nod<CJurisdiction *,std::allocator<CJurisdiction *> >::_Node>
_TEXT	ENDS
PUBLIC	??$_Construct@PAU_Node@?$_List_nod@PAVCJurisdiction@@V?$allocator@PAVCJurisdiction@@@std@@@std@@PAU123@@std@@YAXPAPAU_Node@?$_List_nod@PAVCJurisdiction@@V?$allocator@PAVCJurisdiction@@@std@@@0@ABQAU120@@Z ; std::_Construct<std::_List_nod<CJurisdiction *,std::allocator<CJurisdiction *> >::_Node *,std::_List_nod<CJurisdiction *,std::allocator<CJurisdiction *> >::_Node *>
; Function compile flags: /Ogty
;	COMDAT ??$_Construct@PAU_Node@?$_List_nod@PAVCJurisdiction@@V?$allocator@PAVCJurisdiction@@@std@@@std@@PAU123@@std@@YAXPAPAU_Node@?$_List_nod@PAVCJurisdiction@@V?$allocator@PAVCJurisdiction@@@std@@@0@ABQAU120@@Z
_TEXT	SEGMENT
__Ptr$ = 8						; size = 4
__Val$ = 12						; size = 4
??$_Construct@PAU_Node@?$_List_nod@PAVCJurisdiction@@V?$allocator@PAVCJurisdiction@@@std@@@std@@PAU123@@std@@YAXPAPAU_Node@?$_List_nod@PAVCJurisdiction@@V?$allocator@PAVCJurisdiction@@@std@@@0@ABQAU120@@Z PROC NEAR ; std::_Construct<std::_List_nod<CJurisdiction *,std::allocator<CJurisdiction *> >::_Node *,std::_List_nod<CJurisdiction *,std::allocator<CJurisdiction *> >::_Node *>, COMDAT

; 42   : 	new ((void _FARQ *)_Ptr) _T1(_Val);

  00000	8b 44 24 04	 mov	 eax, DWORD PTR __Ptr$[esp-4]
  00004	85 c0		 test	 eax, eax
  00006	74 08		 je	 SHORT $L227839
  00008	8b 4c 24 08	 mov	 ecx, DWORD PTR __Val$[esp-4]
  0000c	8b 11		 mov	 edx, DWORD PTR [ecx]
  0000e	89 10		 mov	 DWORD PTR [eax], edx
$L227839:

; 43   : 	}

  00010	c3		 ret	 0
??$_Construct@PAU_Node@?$_List_nod@PAVCJurisdiction@@V?$allocator@PAVCJurisdiction@@@std@@@std@@PAU123@@std@@YAXPAPAU_Node@?$_List_nod@PAVCJurisdiction@@V?$allocator@PAVCJurisdiction@@@std@@@0@ABQAU120@@Z ENDP ; std::_Construct<std::_List_nod<CJurisdiction *,std::allocator<CJurisdiction *> >::_Node *,std::_List_nod<CJurisdiction *,std::allocator<CJurisdiction *> >::_Node *>
_TEXT	ENDS
PUBLIC	??$_Destroy@PAU_Node@?$_List_nod@PAVCJurisdiction@@V?$allocator@PAVCJurisdiction@@@std@@@std@@@std@@YAXPAPAU_Node@?$_List_nod@PAVCJurisdiction@@V?$allocator@PAVCJurisdiction@@@std@@@0@@Z ; std::_Destroy<std::_List_nod<CJurisdiction *,std::allocator<CJurisdiction *> >::_Node *>
; Function compile flags: /Ogty
;	COMDAT ??$_Destroy@PAU_Node@?$_List_nod@PAVCJurisdiction@@V?$allocator@PAVCJurisdiction@@@std@@@std@@@std@@YAXPAPAU_Node@?$_List_nod@PAVCJurisdiction@@V?$allocator@PAVCJurisdiction@@@std@@@0@@Z
_TEXT	SEGMENT
__Ptr$ = 8						; size = 4
??$_Destroy@PAU_Node@?$_List_nod@PAVCJurisdiction@@V?$allocator@PAVCJurisdiction@@@std@@@std@@@std@@YAXPAPAU_Node@?$_List_nod@PAVCJurisdiction@@V?$allocator@PAVCJurisdiction@@@std@@@0@@Z PROC NEAR ; std::_Destroy<std::_List_nod<CJurisdiction *,std::allocator<CJurisdiction *> >::_Node *>, COMDAT

; 49   : 	_DESTRUCTOR(_Ty, _Ptr);
; 50   : 	}

  00000	c3		 ret	 0
??$_Destroy@PAU_Node@?$_List_nod@PAVCJurisdiction@@V?$allocator@PAVCJurisdiction@@@std@@@std@@@std@@YAXPAPAU_Node@?$_List_nod@PAVCJurisdiction@@V?$allocator@PAVCJurisdiction@@@std@@@0@@Z ENDP ; std::_Destroy<std::_List_nod<CJurisdiction *,std::allocator<CJurisdiction *> >::_Node *>
_TEXT	ENDS
PUBLIC	??$_Destroy@U_Node@?$_Tree_nod@V?$_Tmap_traits@KPAVCServerDesc@@U?$less@K@std@@V?$allocator@U?$pair@$$CBKPAVCServerDesc@@@std@@@3@$0A@@std@@@std@@@std@@YAXPAU_Node@?$_Tree_nod@V?$_Tmap_traits@KPAVCServerDesc@@U?$less@K@std@@V?$allocator@U?$pair@$$CBKPAVCServerDesc@@@std@@@3@$0A@@std@@@0@@Z ; std::_Destroy<std::_Tree_nod<std::_Tmap_traits<unsigned long,CServerDesc *,std::less<unsigned long>,std::allocator<std::pair<unsigned long const ,CServerDesc *> >,0> >::_Node>
; Function compile flags: /Ogty
;	COMDAT ??$_Destroy@U_Node@?$_Tree_nod@V?$_Tmap_traits@KPAVCServerDesc@@U?$less@K@std@@V?$allocator@U?$pair@$$CBKPAVCServerDesc@@@std@@@3@$0A@@std@@@std@@@std@@YAXPAU_Node@?$_Tree_nod@V?$_Tmap_traits@KPAVCServerDesc@@U?$less@K@std@@V?$allocator@U?$pair@$$CBKPAVCServerDesc@@@std@@@3@$0A@@std@@@0@@Z
_TEXT	SEGMENT
__Ptr$ = 8						; size = 4
??$_Destroy@U_Node@?$_Tree_nod@V?$_Tmap_traits@KPAVCServerDesc@@U?$less@K@std@@V?$allocator@U?$pair@$$CBKPAVCServerDesc@@@std@@@3@$0A@@std@@@std@@@std@@YAXPAU_Node@?$_Tree_nod@V?$_Tmap_traits@KPAVCServerDesc@@U?$less@K@std@@V?$allocator@U?$pair@$$CBKPAVCServerDesc@@@std@@@3@$0A@@std@@@0@@Z PROC NEAR ; std::_Destroy<std::_Tree_nod<std::_Tmap_traits<unsigned long,CServerDesc *,std::less<unsigned long>,std::allocator<std::pair<unsigned long const ,CServerDesc *> >,0> >::_Node>, COMDAT

; 49   : 	_DESTRUCTOR(_Ty, _Ptr);
; 50   : 	}

  00000	c3		 ret	 0
??$_Destroy@U_Node@?$_Tree_nod@V?$_Tmap_traits@KPAVCServerDesc@@U?$less@K@std@@V?$allocator@U?$pair@$$CBKPAVCServerDesc@@@std@@@3@$0A@@std@@@std@@@std@@YAXPAU_Node@?$_Tree_nod@V?$_Tmap_traits@KPAVCServerDesc@@U?$less@K@std@@V?$allocator@U?$pair@$$CBKPAVCServerDesc@@@std@@@3@$0A@@std@@@0@@Z ENDP ; std::_Destroy<std::_Tree_nod<std::_Tmap_traits<unsigned long,CServerDesc *,std::less<unsigned long>,std::allocator<std::pair<unsigned long const ,CServerDesc *> >,0> >::_Node>
_TEXT	ENDS
PUBLIC	??$_Destroy@PAU_Node@?$_Tree_nod@V?$_Tmap_traits@KPAVCServerDesc@@U?$less@K@std@@V?$allocator@U?$pair@$$CBKPAVCServerDesc@@@std@@@3@$0A@@std@@@std@@@std@@YAXPAPAU_Node@?$_Tree_nod@V?$_Tmap_traits@KPAVCServerDesc@@U?$less@K@std@@V?$allocator@U?$pair@$$CBKPAVCServerDesc@@@std@@@3@$0A@@std@@@0@@Z ; std::_Destroy<std::_Tree_nod<std::_Tmap_traits<unsigned long,CServerDesc *,std::less<unsigned long>,std::allocator<std::pair<unsigned long const ,CServerDesc *> >,0> >::_Node *>
; Function compile flags: /Ogty
;	COMDAT ??$_Destroy@PAU_Node@?$_Tree_nod@V?$_Tmap_traits@KPAVCServerDesc@@U?$less@K@std@@V?$allocator@U?$pair@$$CBKPAVCServerDesc@@@std@@@3@$0A@@std@@@std@@@std@@YAXPAPAU_Node@?$_Tree_nod@V?$_Tmap_traits@KPAVCServerDesc@@U?$less@K@std@@V?$allocator@U?$pair@$$CBKPAVCServerDesc@@@std@@@3@$0A@@std@@@0@@Z
_TEXT	SEGMENT
__Ptr$ = 8						; size = 4
??$_Destroy@PAU_Node@?$_Tree_nod@V?$_Tmap_traits@KPAVCServerDesc@@U?$less@K@std@@V?$allocator@U?$pair@$$CBKPAVCServerDesc@@@std@@@3@$0A@@std@@@std@@@std@@YAXPAPAU_Node@?$_Tree_nod@V?$_Tmap_traits@KPAVCServerDesc@@U?$less@K@std@@V?$allocator@U?$pair@$$CBKPAVCServerDesc@@@std@@@3@$0A@@std@@@0@@Z PROC NEAR ; std::_Destroy<std::_Tree_nod<std::_Tmap_traits<unsigned long,CServerDesc *,std::less<unsigned long>,std::allocator<std::pair<unsigned long const ,CServerDesc *> >,0> >::_Node *>, COMDAT

; 49   : 	_DESTRUCTOR(_Ty, _Ptr);
; 50   : 	}

  00000	c3		 ret	 0
??$_Destroy@PAU_Node@?$_Tree_nod@V?$_Tmap_traits@KPAVCServerDesc@@U?$less@K@std@@V?$allocator@U?$pair@$$CBKPAVCServerDesc@@@std@@@3@$0A@@std@@@std@@@std@@YAXPAPAU_Node@?$_Tree_nod@V?$_Tmap_traits@KPAVCServerDesc@@U?$less@K@std@@V?$allocator@U?$pair@$$CBKPAVCServerDesc@@@std@@@3@$0A@@std@@@0@@Z ENDP ; std::_Destroy<std::_Tree_nod<std::_Tmap_traits<unsigned long,CServerDesc *,std::less<unsigned long>,std::allocator<std::pair<unsigned long const ,CServerDesc *> >,0> >::_Node *>
_TEXT	ENDS
PUBLIC	??$?0PAVCJurisdiction@@@?$allocator@U_Node@?$_List_nod@PAVCJurisdiction@@V?$allocator@PAVCJurisdiction@@@std@@@std@@@std@@QAE@ABV?$allocator@PAVCJurisdiction@@@1@@Z ; std::allocator<std::_List_nod<CJurisdiction *,std::allocator<CJurisdiction *> >::_Node>::allocator<std::_List_nod<CJurisdiction *,std::allocator<CJurisdiction *> >::_Node><CJurisdiction *>
; Function compile flags: /Ogty
;	COMDAT ??$?0PAVCJurisdiction@@@?$allocator@U_Node@?$_List_nod@PAVCJurisdiction@@V?$allocator@PAVCJurisdiction@@@std@@@std@@@std@@QAE@ABV?$allocator@PAVCJurisdiction@@@1@@Z
_TEXT	SEGMENT
___formal$ = 8						; size = 4
??$?0PAVCJurisdiction@@@?$allocator@U_Node@?$_List_nod@PAVCJurisdiction@@V?$allocator@PAVCJurisdiction@@@std@@@std@@@std@@QAE@ABV?$allocator@PAVCJurisdiction@@@1@@Z PROC NEAR ; std::allocator<std::_List_nod<CJurisdiction *,std::allocator<CJurisdiction *> >::_Node>::allocator<std::_List_nod<CJurisdiction *,std::allocator<CJurisdiction *> >::_Node><CJurisdiction *>, COMDAT
; _this$ = ecx

; 120  : 		allocator(const allocator<_Other>&)

  00000	8b c1		 mov	 eax, ecx

; 121  : 		{	// construct from a related allocator (do nothing)
; 122  : 		}

  00002	c2 04 00	 ret	 4
??$?0PAVCJurisdiction@@@?$allocator@U_Node@?$_List_nod@PAVCJurisdiction@@V?$allocator@PAVCJurisdiction@@@std@@@std@@@std@@QAE@ABV?$allocator@PAVCJurisdiction@@@1@@Z ENDP ; std::allocator<std::_List_nod<CJurisdiction *,std::allocator<CJurisdiction *> >::_Node>::allocator<std::_List_nod<CJurisdiction *,std::allocator<CJurisdiction *> >::_Node><CJurisdiction *>
_TEXT	ENDS
PUBLIC	??$?0U?$pair@$$CBKPAVCServerDesc@@@std@@@?$allocator@PAU_Node@?$_Tree_nod@V?$_Tmap_traits@KPAVCServerDesc@@U?$less@K@std@@V?$allocator@U?$pair@$$CBKPAVCServerDesc@@@std@@@3@$0A@@std@@@std@@@std@@QAE@ABV?$allocator@U?$pair@$$CBKPAVCServerDesc@@@std@@@1@@Z ; std::allocator<std::_Tree_nod<std::_Tmap_traits<unsigned long,CServerDesc *,std::less<unsigned long>,std::allocator<std::pair<unsigned long const ,CServerDesc *> >,0> >::_Node *>::allocator<std::_Tree_nod<std::_Tmap_traits<unsigned long,CServerDesc *,std::less<unsigned long>,std::allocator<std::pair<unsigned long const ,CServerDesc *> >,0> >::_Node *><std::pair<unsigned long const ,CServerDesc *> >
; Function compile flags: /Ogty
;	COMDAT ??$?0U?$pair@$$CBKPAVCServerDesc@@@std@@@?$allocator@PAU_Node@?$_Tree_nod@V?$_Tmap_traits@KPAVCServerDesc@@U?$less@K@std@@V?$allocator@U?$pair@$$CBKPAVCServerDesc@@@std@@@3@$0A@@std@@@std@@@std@@QAE@ABV?$allocator@U?$pair@$$CBKPAVCServerDesc@@@std@@@1@@Z
_TEXT	SEGMENT
___formal$ = 8						; size = 4
??$?0U?$pair@$$CBKPAVCServerDesc@@@std@@@?$allocator@PAU_Node@?$_Tree_nod@V?$_Tmap_traits@KPAVCServerDesc@@U?$less@K@std@@V?$allocator@U?$pair@$$CBKPAVCServerDesc@@@std@@@3@$0A@@std@@@std@@@std@@QAE@ABV?$allocator@U?$pair@$$CBKPAVCServerDesc@@@std@@@1@@Z PROC NEAR ; std::allocator<std::_Tree_nod<std::_Tmap_traits<unsigned long,CServerDesc *,std::less<unsigned long>,std::allocator<std::pair<unsigned long const ,CServerDesc *> >,0> >::_Node *>::allocator<std::_Tree_nod<std::_Tmap_traits<unsigned long,CServerDesc *,std::less<unsigned long>,std::allocator<std::pair<unsigned long const ,CServerDesc *> >,0> >::_Node *><std::pair<unsigned long const ,CServerDesc *> >, COMDAT
; _this$ = ecx

; 120  : 		allocator(const allocator<_Other>&)

  00000	8b c1		 mov	 eax, ecx

; 121  : 		{	// construct from a related allocator (do nothing)
; 122  : 		}

  00002	c2 04 00	 ret	 4
??$?0U?$pair@$$CBKPAVCServerDesc@@@std@@@?$allocator@PAU_Node@?$_Tree_nod@V?$_Tmap_traits@KPAVCServerDesc@@U?$less@K@std@@V?$allocator@U?$pair@$$CBKPAVCServerDesc@@@std@@@3@$0A@@std@@@std@@@std@@QAE@ABV?$allocator@U?$pair@$$CBKPAVCServerDesc@@@std@@@1@@Z ENDP ; std::allocator<std::_Tree_nod<std::_Tmap_traits<unsigned long,CServerDesc *,std::less<unsigned long>,std::allocator<std::pair<unsigned long const ,CServerDesc *> >,0> >::_Node *>::allocator<std::_Tree_nod<std::_Tmap_traits<unsigned long,CServerDesc *,std::less<unsigned long>,std::allocator<std::pair<unsigned long const ,CServerDesc *> >,0> >::_Node *><std::pair<unsigned long const ,CServerDesc *> >
_TEXT	ENDS
PUBLIC	??$?0U?$pair@$$CBKPAVCServerDesc@@@std@@@?$allocator@U_Node@?$_Tree_nod@V?$_Tmap_traits@KPAVCServerDesc@@U?$less@K@std@@V?$allocator@U?$pair@$$CBKPAVCServerDesc@@@std@@@3@$0A@@std@@@std@@@std@@QAE@ABV?$allocator@U?$pair@$$CBKPAVCServerDesc@@@std@@@1@@Z ; std::allocator<std::_Tree_nod<std::_Tmap_traits<unsigned long,CServerDesc *,std::less<unsigned long>,std::allocator<std::pair<unsigned long const ,CServerDesc *> >,0> >::_Node>::allocator<std::_Tree_nod<std::_Tmap_traits<unsigned long,CServerDesc *,std::less<unsigned long>,std::allocator<std::pair<unsigned long const ,CServerDesc *> >,0> >::_Node><std::pair<unsigned long const ,CServerDesc *> >
; Function compile flags: /Ogty
;	COMDAT ??$?0U?$pair@$$CBKPAVCServerDesc@@@std@@@?$allocator@U_Node@?$_Tree_nod@V?$_Tmap_traits@KPAVCServerDesc@@U?$less@K@std@@V?$allocator@U?$pair@$$CBKPAVCServerDesc@@@std@@@3@$0A@@std@@@std@@@std@@QAE@ABV?$allocator@U?$pair@$$CBKPAVCServerDesc@@@std@@@1@@Z
_TEXT	SEGMENT
___formal$ = 8						; size = 4
??$?0U?$pair@$$CBKPAVCServerDesc@@@std@@@?$allocator@U_Node@?$_Tree_nod@V?$_Tmap_traits@KPAVCServerDesc@@U?$less@K@std@@V?$allocator@U?$pair@$$CBKPAVCServerDesc@@@std@@@3@$0A@@std@@@std@@@std@@QAE@ABV?$allocator@U?$pair@$$CBKPAVCServerDesc@@@std@@@1@@Z PROC NEAR ; std::allocator<std::_Tree_nod<std::_Tmap_traits<unsigned long,CServerDesc *,std::less<unsigned long>,std::allocator<std::pair<unsigned long const ,CServerDesc *> >,0> >::_Node>::allocator<std::_Tree_nod<std::_Tmap_traits<unsigned long,CServerDesc *,std::less<unsigned long>,std::allocator<std::pair<unsigned long const ,CServerDesc *> >,0> >::_Node><std::pair<unsigned long const ,CServerDesc *> >, COMDAT
; _this$ = ecx

; 120  : 		allocator(const allocator<_Other>&)

  00000	8b c1		 mov	 eax, ecx

; 121  : 		{	// construct from a related allocator (do nothing)
; 122  : 		}

  00002	c2 04 00	 ret	 4
??$?0U?$pair@$$CBKPAVCServerDesc@@@std@@@?$allocator@U_Node@?$_Tree_nod@V?$_Tmap_traits@KPAVCServerDesc@@U?$less@K@std@@V?$allocator@U?$pair@$$CBKPAVCServerDesc@@@std@@@3@$0A@@std@@@std@@@std@@QAE@ABV?$allocator@U?$pair@$$CBKPAVCServerDesc@@@std@@@1@@Z ENDP ; std::allocator<std::_Tree_nod<std::_Tmap_traits<unsigned long,CServerDesc *,std::less<unsigned long>,std::allocator<std::pair<unsigned long const ,CServerDesc *> >,0> >::_Node>::allocator<std::_Tree_nod<std::_Tmap_traits<unsigned long,CServerDesc *,std::less<unsigned long>,std::allocator<std::pair<unsigned long const ,CServerDesc *> >,0> >::_Node><std::pair<unsigned long const ,CServerDesc *> >
_TEXT	ENDS
PUBLIC	??$_Allocate@U_Node@?$_Tree_nod@V?$_Tmap_traits@KPAVCServerDesc@@U?$less@K@std@@V?$allocator@U?$pair@$$CBKPAVCServerDesc@@@std@@@3@$0A@@std@@@std@@@std@@YAPAU_Node@?$_Tree_nod@V?$_Tmap_traits@KPAVCServerDesc@@U?$less@K@std@@V?$allocator@U?$pair@$$CBKPAVCServerDesc@@@std@@@3@$0A@@std@@@0@IPAU120@@Z ; std::_Allocate<std::_Tree_nod<std::_Tmap_traits<unsigned long,CServerDesc *,std::less<unsigned long>,std::allocator<std::pair<unsigned long const ,CServerDesc *> >,0> >::_Node>
; Function compile flags: /Ogty
;	COMDAT ??$_Allocate@U_Node@?$_Tree_nod@V?$_Tmap_traits@KPAVCServerDesc@@U?$less@K@std@@V?$allocator@U?$pair@$$CBKPAVCServerDesc@@@std@@@3@$0A@@std@@@std@@@std@@YAPAU_Node@?$_Tree_nod@V?$_Tmap_traits@KPAVCServerDesc@@U?$less@K@std@@V?$allocator@U?$pair@$$CBKPAVCServerDesc@@@std@@@3@$0A@@std@@@0@IPAU120@@Z
_TEXT	SEGMENT
__Count$ = 8						; size = 4
___formal$ = 12						; size = 4
??$_Allocate@U_Node@?$_Tree_nod@V?$_Tmap_traits@KPAVCServerDesc@@U?$less@K@std@@V?$allocator@U?$pair@$$CBKPAVCServerDesc@@@std@@@3@$0A@@std@@@std@@@std@@YAPAU_Node@?$_Tree_nod@V?$_Tmap_traits@KPAVCServerDesc@@U?$less@K@std@@V?$allocator@U?$pair@$$CBKPAVCServerDesc@@@std@@@3@$0A@@std@@@0@IPAU120@@Z PROC NEAR ; std::_Allocate<std::_Tree_nod<std::_Tmap_traits<unsigned long,CServerDesc *,std::less<unsigned long>,std::allocator<std::pair<unsigned long const ,CServerDesc *> >,0> >::_Node>, COMDAT

; 34   : 	return ((_Ty _FARQ *)operator new(_Count * sizeof (_Ty)));

  00000	8b 44 24 04	 mov	 eax, DWORD PTR __Count$[esp-4]
  00004	8d 04 40	 lea	 eax, DWORD PTR [eax+eax*2]
  00007	c1 e0 03	 shl	 eax, 3
  0000a	50		 push	 eax
  0000b	e8 00 00 00 00	 call	 ??2@YAPAXI@Z		; operator new
  00010	83 c4 04	 add	 esp, 4

; 35   : 	}

  00013	c3		 ret	 0
??$_Allocate@U_Node@?$_Tree_nod@V?$_Tmap_traits@KPAVCServerDesc@@U?$less@K@std@@V?$allocator@U?$pair@$$CBKPAVCServerDesc@@@std@@@3@$0A@@std@@@std@@@std@@YAPAU_Node@?$_Tree_nod@V?$_Tmap_traits@KPAVCServerDesc@@U?$less@K@std@@V?$allocator@U?$pair@$$CBKPAVCServerDesc@@@std@@@3@$0A@@std@@@0@IPAU120@@Z ENDP ; std::_Allocate<std::_Tree_nod<std::_Tmap_traits<unsigned long,CServerDesc *,std::less<unsigned long>,std::allocator<std::pair<unsigned long const ,CServerDesc *> >,0> >::_Node>
_TEXT	ENDS
PUBLIC	??$_Construct@PAU_Node@?$_Tree_nod@V?$_Tmap_traits@KPAVCServerDesc@@U?$less@K@std@@V?$allocator@U?$pair@$$CBKPAVCServerDesc@@@std@@@3@$0A@@std@@@std@@PAU123@@std@@YAXPAPAU_Node@?$_Tree_nod@V?$_Tmap_traits@KPAVCServerDesc@@U?$less@K@std@@V?$allocator@U?$pair@$$CBKPAVCServerDesc@@@std@@@3@$0A@@std@@@0@ABQAU120@@Z ; std::_Construct<std::_Tree_nod<std::_Tmap_traits<unsigned long,CServerDesc *,std::less<unsigned long>,std::allocator<std::pair<unsigned long const ,CServerDesc *> >,0> >::_Node *,std::_Tree_nod<std::_Tmap_traits<unsigned long,CServerDesc *,std::less<unsigned long>,std::allocator<std::pair<unsigned long const ,CServerDesc *> >,0> >::_Node *>
; Function compile flags: /Ogty
;	COMDAT ??$_Construct@PAU_Node@?$_Tree_nod@V?$_Tmap_traits@KPAVCServerDesc@@U?$less@K@std@@V?$allocator@U?$pair@$$CBKPAVCServerDesc@@@std@@@3@$0A@@std@@@std@@PAU123@@std@@YAXPAPAU_Node@?$_Tree_nod@V?$_Tmap_traits@KPAVCServerDesc@@U?$less@K@std@@V?$allocator@U?$pair@$$CBKPAVCServerDesc@@@std@@@3@$0A@@std@@@0@ABQAU120@@Z
_TEXT	SEGMENT
__Ptr$ = 8						; size = 4
__Val$ = 12						; size = 4
??$_Construct@PAU_Node@?$_Tree_nod@V?$_Tmap_traits@KPAVCServerDesc@@U?$less@K@std@@V?$allocator@U?$pair@$$CBKPAVCServerDesc@@@std@@@3@$0A@@std@@@std@@PAU123@@std@@YAXPAPAU_Node@?$_Tree_nod@V?$_Tmap_traits@KPAVCServerDesc@@U?$less@K@std@@V?$allocator@U?$pair@$$CBKPAVCServerDesc@@@std@@@3@$0A@@std@@@0@ABQAU120@@Z PROC NEAR ; std::_Construct<std::_Tree_nod<std::_Tmap_traits<unsigned long,CServerDesc *,std::less<unsigned long>,std::allocator<std::pair<unsigned long const ,CServerDesc *> >,0> >::_Node *,std::_Tree_nod<std::_Tmap_traits<unsigned long,CServerDesc *,std::less<unsigned long>,std::allocator<std::pair<unsigned long const ,CServerDesc *> >,0> >::_Node *>, COMDAT

; 42   : 	new ((void _FARQ *)_Ptr) _T1(_Val);

  00000	8b 44 24 04	 mov	 eax, DWORD PTR __Ptr$[esp-4]
  00004	85 c0		 test	 eax, eax
  00006	74 08		 je	 SHORT $L227869
  00008	8b 4c 24 08	 mov	 ecx, DWORD PTR __Val$[esp-4]
  0000c	8b 11		 mov	 edx, DWORD PTR [ecx]
  0000e	89 10		 mov	 DWORD PTR [eax], edx
$L227869:

; 43   : 	}

  00010	c3		 ret	 0
??$_Construct@PAU_Node@?$_Tree_nod@V?$_Tmap_traits@KPAVCServerDesc@@U?$less@K@std@@V?$allocator@U?$pair@$$CBKPAVCServerDesc@@@std@@@3@$0A@@std@@@std@@PAU123@@std@@YAXPAPAU_Node@?$_Tree_nod@V?$_Tmap_traits@KPAVCServerDesc@@U?$less@K@std@@V?$allocator@U?$pair@$$CBKPAVCServerDesc@@@std@@@3@$0A@@std@@@0@ABQAU120@@Z ENDP ; std::_Construct<std::_Tree_nod<std::_Tmap_traits<unsigned long,CServerDesc *,std::less<unsigned long>,std::allocator<std::pair<unsigned long const ,CServerDesc *> >,0> >::_Node *,std::_Tree_nod<std::_Tmap_traits<unsigned long,CServerDesc *,std::less<unsigned long>,std::allocator<std::pair<unsigned long const ,CServerDesc *> >,0> >::_Node *>
_TEXT	ENDS
PUBLIC	??0CRect@@QAE@XZ				; CRect::CRect
; Function compile flags: /Ogty
; File c:\program files\microsoft visual studio .net 2003\vc7\atlmfc\include\atltypes.inl
;	COMDAT ??0CRect@@QAE@XZ
_TEXT	SEGMENT
??0CRect@@QAE@XZ PROC NEAR				; CRect::CRect, COMDAT
; _this$ = ecx

; 110  : 	{ /* random filled */ }

  00000	8b c1		 mov	 eax, ecx
  00002	c3		 ret	 0
??0CRect@@QAE@XZ ENDP					; CRect::CRect
_TEXT	ENDS
PUBLIC	?SetRect@CRect@@QAEXHHHH@Z			; CRect::SetRect
EXTRN	__imp__SetRect@20:NEAR
; Function compile flags: /Ogty
;	COMDAT ?SetRect@CRect@@QAEXHHHH@Z
_TEXT	SEGMENT
_x1$ = 8						; size = 4
_y1$ = 12						; size = 4
_x2$ = 16						; size = 4
_y2$ = 20						; size = 4
?SetRect@CRect@@QAEXHHHH@Z PROC NEAR			; CRect::SetRect, COMDAT
; _this$ = ecx

; 153  : 	{ ::SetRect(this, x1, y1, x2, y2); }

  00000	8b 44 24 10	 mov	 eax, DWORD PTR _y2$[esp-4]
  00004	8b 54 24 0c	 mov	 edx, DWORD PTR _x2$[esp-4]
  00008	50		 push	 eax
  00009	8b 44 24 0c	 mov	 eax, DWORD PTR _y1$[esp]
  0000d	52		 push	 edx
  0000e	8b 54 24 0c	 mov	 edx, DWORD PTR _x1$[esp+4]
  00012	50		 push	 eax
  00013	52		 push	 edx
  00014	51		 push	 ecx
  00015	ff 15 00 00 00
	00		 call	 DWORD PTR __imp__SetRect@20
  0001b	c2 10 00	 ret	 16			; 00000010H
?SetRect@CRect@@QAEXHHHH@Z ENDP				; CRect::SetRect
_TEXT	ENDS
PUBLIC	?assign@?$char_traits@D@std@@SAXAADABD@Z	; std::char_traits<char>::assign
; Function compile flags: /Ogty
; File c:\program files\microsoft visual studio .net 2003\vc7\include\iosfwd
;	COMDAT ?assign@?$char_traits@D@std@@SAXAADABD@Z
_TEXT	SEGMENT
__Left$ = 8						; size = 4
__Right$ = 12						; size = 4
?assign@?$char_traits@D@std@@SAXAADABD@Z PROC NEAR	; std::char_traits<char>::assign, COMDAT

; 331  : 		_Left = _Right;

  00000	8b 44 24 08	 mov	 eax, DWORD PTR __Right$[esp-4]
  00004	8a 08		 mov	 cl, BYTE PTR [eax]
  00006	8b 54 24 04	 mov	 edx, DWORD PTR __Left$[esp-4]
  0000a	88 0a		 mov	 BYTE PTR [edx], cl

; 332  : 		}

  0000c	c3		 ret	 0
?assign@?$char_traits@D@std@@SAXAADABD@Z ENDP		; std::char_traits<char>::assign
_TEXT	ENDS
PUBLIC	?length@?$char_traits@D@std@@SAIPBD@Z		; std::char_traits<char>::length
; Function compile flags: /Ogty
;	COMDAT ?length@?$char_traits@D@std@@SAIPBD@Z
_TEXT	SEGMENT
__First$ = 8						; size = 4
?length@?$char_traits@D@std@@SAIPBD@Z PROC NEAR		; std::char_traits<char>::length, COMDAT

; 352  : 		return (::strlen(_First));

  00000	8b 44 24 04	 mov	 eax, DWORD PTR __First$[esp-4]
  00004	8d 50 01	 lea	 edx, DWORD PTR [eax+1]
$L227886:
  00007	8a 08		 mov	 cl, BYTE PTR [eax]
  00009	40		 inc	 eax
  0000a	84 c9		 test	 cl, cl
  0000c	75 f9		 jne	 SHORT $L227886
  0000e	2b c2		 sub	 eax, edx

; 353  : 		}

  00010	c3		 ret	 0
?length@?$char_traits@D@std@@SAIPBD@Z ENDP		; std::char_traits<char>::length
_TEXT	ENDS
PUBLIC	?copy@?$char_traits@D@std@@SAPADPADPBDI@Z	; std::char_traits<char>::copy
; Function compile flags: /Ogty
;	COMDAT ?copy@?$char_traits@D@std@@SAPADPADPBDI@Z
_TEXT	SEGMENT
__First1$ = 8						; size = 4
__First2$ = 12						; size = 4
__Count$ = 16						; size = 4
?copy@?$char_traits@D@std@@SAPADPADPBDI@Z PROC NEAR	; std::char_traits<char>::copy, COMDAT

; 358  : 		return ((_Elem *)::memcpy(_First1, _First2, _Count));

  00000	8b 4c 24 0c	 mov	 ecx, DWORD PTR __Count$[esp-4]
  00004	56		 push	 esi
  00005	8b 74 24 0c	 mov	 esi, DWORD PTR __First2$[esp]
  00009	57		 push	 edi
  0000a	8b 7c 24 0c	 mov	 edi, DWORD PTR __First1$[esp+4]
  0000e	8b c1		 mov	 eax, ecx
  00010	8b d7		 mov	 edx, edi
  00012	c1 e9 02	 shr	 ecx, 2
  00015	f3 a5		 rep movsd
  00017	8b c8		 mov	 ecx, eax
  00019	83 e1 03	 and	 ecx, 3
  0001c	f3 a4		 rep movsb
  0001e	5f		 pop	 edi
  0001f	8b c2		 mov	 eax, edx
  00021	5e		 pop	 esi

; 359  : 		}

  00022	c3		 ret	 0
?copy@?$char_traits@D@std@@SAPADPADPBDI@Z ENDP		; std::char_traits<char>::copy
_TEXT	ENDS
PUBLIC	?move@?$char_traits@D@std@@SAPADPADPBDI@Z	; std::char_traits<char>::move
EXTRN	_memmove:NEAR
; Function compile flags: /Ogty
;	COMDAT ?move@?$char_traits@D@std@@SAPADPADPBDI@Z
_TEXT	SEGMENT
__First1$ = 8						; size = 4
__First2$ = 12						; size = 4
__Count$ = 16						; size = 4
?move@?$char_traits@D@std@@SAPADPADPBDI@Z PROC NEAR	; std::char_traits<char>::move, COMDAT

; 370  : 		return ((_Elem *)::memmove(_First1, _First2, _Count));

  00000	e9 00 00 00 00	 jmp	 _memmove
?move@?$char_traits@D@std@@SAPADPADPBDI@Z ENDP		; std::char_traits<char>::move
_TEXT	ENDS
PUBLIC	??0CMclCritSec@@QAE@XZ				; CMclCritSec::CMclCritSec
PUBLIC	??_7CMclCritSec@@6B@				; CMclCritSec::`vftable'
PUBLIC	??_GCMclCritSec@@UAEPAXI@Z			; CMclCritSec::`scalar deleting destructor'
EXTRN	??_ECMclCritSec@@UAEPAXI@Z:NEAR			; CMclCritSec::`vector deleting destructor'
EXTRN	__imp__InitializeCriticalSection@4:NEAR
;	COMDAT ??_7CMclCritSec@@6B@
; File c:\documents and settings\test\mes documents\source\virtuos_v17\build\program\_network\mcl\include\cmclcritsec.h
CONST	SEGMENT
??_7CMclCritSec@@6B@ DD FLAT:??_ECMclCritSec@@UAEPAXI@Z	; CMclCritSec::`vftable'
; Function compile flags: /Ogty
CONST	ENDS
;	COMDAT ??0CMclCritSec@@QAE@XZ
_TEXT	SEGMENT
??0CMclCritSec@@QAE@XZ PROC NEAR			; CMclCritSec::CMclCritSec, COMDAT
; _this$ = ecx

; 19   :     CMclCritSec(void)

  00000	56		 push	 esi
  00001	8b f1		 mov	 esi, ecx

; 20   :     {
; 21   : 		::InitializeCriticalSection( &m_CritSec );

  00003	8d 46 04	 lea	 eax, DWORD PTR [esi+4]
  00006	50		 push	 eax
  00007	c7 06 00 00 00
	00		 mov	 DWORD PTR [esi], OFFSET FLAT:??_7CMclCritSec@@6B@
  0000d	ff 15 00 00 00
	00		 call	 DWORD PTR __imp__InitializeCriticalSection@4

; 22   : 	}

  00013	8b c6		 mov	 eax, esi
  00015	5e		 pop	 esi
  00016	c3		 ret	 0
??0CMclCritSec@@QAE@XZ ENDP				; CMclCritSec::CMclCritSec
_TEXT	ENDS
PUBLIC	??1CMclCritSec@@UAE@XZ				; CMclCritSec::~CMclCritSec
EXTRN	__imp__DeleteCriticalSection@4:NEAR
; Function compile flags: /Ogty
;	COMDAT ??1CMclCritSec@@UAE@XZ
_TEXT	SEGMENT
??1CMclCritSec@@UAE@XZ PROC NEAR			; CMclCritSec::~CMclCritSec, COMDAT
; _this$ = ecx

; 26   : 	{

  00000	c7 01 00 00 00
	00		 mov	 DWORD PTR [ecx], OFFSET FLAT:??_7CMclCritSec@@6B@

; 27   : 		::DeleteCriticalSection( &m_CritSec );

  00006	83 c1 04	 add	 ecx, 4
  00009	51		 push	 ecx
  0000a	ff 15 00 00 00
	00		 call	 DWORD PTR __imp__DeleteCriticalSection@4

; 28   : 	}

  00010	c3		 ret	 0
??1CMclCritSec@@UAE@XZ ENDP				; CMclCritSec::~CMclCritSec
_TEXT	ENDS
PUBLIC	?Enter@CMclCritSec@@QAEXXZ			; CMclCritSec::Enter
EXTRN	__imp__EnterCriticalSection@4:NEAR
; Function compile flags: /Ogty
;	COMDAT ?Enter@CMclCritSec@@QAEXXZ
_TEXT	SEGMENT
?Enter@CMclCritSec@@QAEXXZ PROC NEAR			; CMclCritSec::Enter, COMDAT
; _this$ = ecx

; 33   : 		::EnterCriticalSection( &m_CritSec );

  00000	83 c1 04	 add	 ecx, 4
  00003	51		 push	 ecx
  00004	ff 15 00 00 00
	00		 call	 DWORD PTR __imp__EnterCriticalSection@4

; 34   : 	}

  0000a	c3		 ret	 0
?Enter@CMclCritSec@@QAEXXZ ENDP				; CMclCritSec::Enter
_TEXT	ENDS
PUBLIC	?Leave@CMclCritSec@@QAEXXZ			; CMclCritSec::Leave
EXTRN	__imp__LeaveCriticalSection@4:NEAR
; Function compile flags: /Ogty
;	COMDAT ?Leave@CMclCritSec@@QAEXXZ
_TEXT	SEGMENT
?Leave@CMclCritSec@@QAEXXZ PROC NEAR			; CMclCritSec::Leave, COMDAT
; _this$ = ecx

; 39   : 		::LeaveCriticalSection( &m_CritSec );

  00000	83 c1 04	 add	 ecx, 4
  00003	51		 push	 ecx
  00004	ff 15 00 00 00
	00		 call	 DWORD PTR __imp__LeaveCriticalSection@4

; 40   : 	}

  0000a	c3		 ret	 0
?Leave@CMclCritSec@@QAEXXZ ENDP				; CMclCritSec::Leave
; Function compile flags: /Ogty
_TEXT	ENDS
;	COMDAT ??_GCMclCritSec@@UAEPAXI@Z
_TEXT	SEGMENT
___flags$ = 8						; size = 4
??_GCMclCritSec@@UAEPAXI@Z PROC NEAR			; CMclCritSec::`scalar deleting destructor', COMDAT
; _this$ = ecx
  00000	56		 push	 esi
  00001	8b f1		 mov	 esi, ecx
  00003	8d 46 04	 lea	 eax, DWORD PTR [esi+4]
  00006	50		 push	 eax
  00007	c7 06 00 00 00
	00		 mov	 DWORD PTR [esi], OFFSET FLAT:??_7CMclCritSec@@6B@
  0000d	ff 15 00 00 00
	00		 call	 DWORD PTR __imp__DeleteCriticalSection@4
  00013	f6 44 24 08 01	 test	 BYTE PTR ___flags$[esp], 1
  00018	74 09		 je	 SHORT $L227912
  0001a	56		 push	 esi
  0001b	e8 00 00 00 00	 call	 ??3@YAXPAX@Z		; operator delete
  00020	83 c4 04	 add	 esp, 4
$L227912:
  00023	8b c6		 mov	 eax, esi
  00025	5e		 pop	 esi
  00026	c2 04 00	 ret	 4
??_GCMclCritSec@@UAEPAXI@Z ENDP				; CMclCritSec::`scalar deleting destructor'
_TEXT	ENDS
PUBLIC	??0CMclAutoLock@@QAE@AAVCMclCritSec@@@Z		; CMclAutoLock::CMclAutoLock
; Function compile flags: /Ogty
; File c:\documents and settings\test\mes documents\source\virtuos_v17\build\program\_network\mcl\include\cmclautolock.h
;	COMDAT ??0CMclAutoLock@@QAE@AAVCMclCritSec@@@Z
_TEXT	SEGMENT
_rCMclCritSec$ = 8					; size = 4
??0CMclAutoLock@@QAE@AAVCMclCritSec@@@Z PROC NEAR	; CMclAutoLock::CMclAutoLock, COMDAT
; _this$ = ecx

; 20   : 	{
; 21   : 		m_pcCritSec = &rCMclCritSec;

  00000	8b 44 24 04	 mov	 eax, DWORD PTR _rCMclCritSec$[esp-4]
  00004	56		 push	 esi
  00005	8b f1		 mov	 esi, ecx
  00007	89 06		 mov	 DWORD PTR [esi], eax

; 22   : 		m_pcCritSec->Enter();

  00009	83 c0 04	 add	 eax, 4
  0000c	50		 push	 eax
  0000d	ff 15 00 00 00
	00		 call	 DWORD PTR __imp__EnterCriticalSection@4

; 23   : 	}

  00013	8b c6		 mov	 eax, esi
  00015	5e		 pop	 esi
  00016	c2 04 00	 ret	 4
??0CMclAutoLock@@QAE@AAVCMclCritSec@@@Z ENDP		; CMclAutoLock::CMclAutoLock
_TEXT	ENDS
PUBLIC	??1CMclAutoLock@@QAE@XZ				; CMclAutoLock::~CMclAutoLock
; Function compile flags: /Ogty
;	COMDAT ??1CMclAutoLock@@QAE@XZ
_TEXT	SEGMENT
??1CMclAutoLock@@QAE@XZ PROC NEAR			; CMclAutoLock::~CMclAutoLock, COMDAT
; _this$ = ecx

; 28   : 		m_pcCritSec->Leave();

  00000	8b 01		 mov	 eax, DWORD PTR [ecx]
  00002	83 c0 04	 add	 eax, 4
  00005	50		 push	 eax
  00006	ff 15 00 00 00
	00		 call	 DWORD PTR __imp__LeaveCriticalSection@4

; 29   : 	}

  0000c	c3		 ret	 0
??1CMclAutoLock@@QAE@XZ ENDP				; CMclAutoLock::~CMclAutoLock
_TEXT	ENDS
PUBLIC	?IsStoring@CAr@@QBEHXZ				; CAr::IsStoring
; Function compile flags: /Ogty
; File c:\documents and settings\test\mes documents\source\virtuos_v17\build\program\_network\misc\include\ar.h
;	COMDAT ?IsStoring@CAr@@QBEHXZ
_TEXT	SEGMENT
?IsStoring@CAr@@QBEHXZ PROC NEAR			; CAr::IsStoring, COMDAT
; _this$ = ecx

; 96   : 	{ return (m_nMode & CAr::load) == 0; }

  00000	33 c0		 xor	 eax, eax
  00002	8a 01		 mov	 al, BYTE PTR [ecx]
  00004	f7 d0		 not	 eax
  00006	83 e0 01	 and	 eax, 1
  00009	c3		 ret	 0
?IsStoring@CAr@@QBEHXZ ENDP				; CAr::IsStoring
_TEXT	ENDS
PUBLIC	??6CAr@@QAEAAV0@G@Z				; CAr::operator<<
EXTRN	?CheckBuf@CAr@@QAEXI@Z:NEAR			; CAr::CheckBuf
; Function compile flags: /Ogty
;	COMDAT ??6CAr@@QAEAAV0@G@Z
_TEXT	SEGMENT
_w$ = 8							; size = 2
??6CAr@@QAEAAV0@G@Z PROC NEAR				; CAr::operator<<, COMDAT
; _this$ = ecx

; 110  : 	{ CheckBuf( sizeof( WORD ) );

  00000	56		 push	 esi
  00001	6a 02		 push	 2
  00003	8b f1		 mov	 esi, ecx
  00005	e8 00 00 00 00	 call	 ?CheckBuf@CAr@@QAEXI@Z	; CAr::CheckBuf

; 111  : 		*(UNALIGNED WORD*)m_lpBufCur = w; m_lpBufCur += sizeof(WORD); return *this; }

  0000a	8b 46 08	 mov	 eax, DWORD PTR [esi+8]
  0000d	66 8b 4c 24 08	 mov	 cx, WORD PTR _w$[esp]
  00012	66 89 08	 mov	 WORD PTR [eax], cx
  00015	83 46 08 02	 add	 DWORD PTR [esi+8], 2
  00019	8b c6		 mov	 eax, esi
  0001b	5e		 pop	 esi
  0001c	c2 04 00	 ret	 4
??6CAr@@QAEAAV0@G@Z ENDP				; CAr::operator<<
_TEXT	ENDS
PUBLIC	??6CAr@@QAEAAV0@K@Z				; CAr::operator<<
; Function compile flags: /Ogty
;	COMDAT ??6CAr@@QAEAAV0@K@Z
_TEXT	SEGMENT
_dw$ = 8						; size = 4
??6CAr@@QAEAAV0@K@Z PROC NEAR				; CAr::operator<<, COMDAT
; _this$ = ecx

; 116  : 	{ CheckBuf( sizeof(DWORD) );

  00000	56		 push	 esi
  00001	6a 04		 push	 4
  00003	8b f1		 mov	 esi, ecx
  00005	e8 00 00 00 00	 call	 ?CheckBuf@CAr@@QAEXI@Z	; CAr::CheckBuf

; 117  : 		*(UNALIGNED DWORD*)m_lpBufCur = dw; m_lpBufCur += sizeof(DWORD); return *this; }

  0000a	8b 46 08	 mov	 eax, DWORD PTR [esi+8]
  0000d	8b 4c 24 08	 mov	 ecx, DWORD PTR _dw$[esp]
  00011	89 08		 mov	 DWORD PTR [eax], ecx
  00013	83 46 08 04	 add	 DWORD PTR [esi+8], 4
  00017	8b c6		 mov	 eax, esi
  00019	5e		 pop	 esi
  0001a	c2 04 00	 ret	 4
??6CAr@@QAEAAV0@K@Z ENDP				; CAr::operator<<
_TEXT	ENDS
PUBLIC	??5CAr@@QAEAAV0@AAG@Z				; CAr::operator>>
; Function compile flags: /Ogty
;	COMDAT ??5CAr@@QAEAAV0@AAG@Z
_TEXT	SEGMENT
_w$ = 8							; size = 4
??5CAr@@QAEAAV0@AAG@Z PROC NEAR				; CAr::operator>>, COMDAT
; _this$ = ecx

; 144  : 	{	CAR_SAFE_READ( WORD, w );	}

  00000	8b c1		 mov	 eax, ecx
  00002	8b 48 08	 mov	 ecx, DWORD PTR [eax+8]
  00005	56		 push	 esi
  00006	8b 70 0c	 mov	 esi, DWORD PTR [eax+12]
  00009	8d 51 02	 lea	 edx, DWORD PTR [ecx+2]
  0000c	3b d6		 cmp	 edx, esi
  0000e	5e		 pop	 esi
  0000f	77 11		 ja	 SHORT $L205458
  00011	66 8b 09	 mov	 cx, WORD PTR [ecx]
  00014	8b 54 24 04	 mov	 edx, DWORD PTR _w$[esp-4]
  00018	66 89 0a	 mov	 WORD PTR [edx], cx
  0001b	83 40 08 02	 add	 DWORD PTR [eax+8], 2
  0001f	c2 04 00	 ret	 4
$L205458:
  00022	8b 4c 24 04	 mov	 ecx, DWORD PTR _w$[esp-4]
  00026	66 c7 01 00 00	 mov	 WORD PTR [ecx], 0
  0002b	8b 50 0c	 mov	 edx, DWORD PTR [eax+12]
  0002e	89 50 08	 mov	 DWORD PTR [eax+8], edx
  00031	c2 04 00	 ret	 4
??5CAr@@QAEAAV0@AAG@Z ENDP				; CAr::operator>>
_TEXT	ENDS
PUBLIC	??5CAr@@QAEAAV0@AAK@Z				; CAr::operator>>
; Function compile flags: /Ogty
;	COMDAT ??5CAr@@QAEAAV0@AAK@Z
_TEXT	SEGMENT
_dw$ = 8						; size = 4
??5CAr@@QAEAAV0@AAK@Z PROC NEAR				; CAr::operator>>, COMDAT
; _this$ = ecx

; 146  : 	{	CAR_SAFE_READ( DWORD, dw );	}

  00000	8b c1		 mov	 eax, ecx
  00002	8b 48 08	 mov	 ecx, DWORD PTR [eax+8]
  00005	56		 push	 esi
  00006	8b 70 0c	 mov	 esi, DWORD PTR [eax+12]
  00009	8d 51 04	 lea	 edx, DWORD PTR [ecx+4]
  0000c	3b d6		 cmp	 edx, esi
  0000e	5e		 pop	 esi
  0000f	77 0f		 ja	 SHORT $L205468
  00011	8b 09		 mov	 ecx, DWORD PTR [ecx]
  00013	8b 54 24 04	 mov	 edx, DWORD PTR _dw$[esp-4]
  00017	89 0a		 mov	 DWORD PTR [edx], ecx
  00019	83 40 08 04	 add	 DWORD PTR [eax+8], 4
  0001d	c2 04 00	 ret	 4
$L205468:
  00020	8b 4c 24 04	 mov	 ecx, DWORD PTR _dw$[esp-4]
  00024	c7 01 00 00 00
	00		 mov	 DWORD PTR [ecx], 0
  0002a	8b 50 0c	 mov	 edx, DWORD PTR [eax+12]
  0002d	89 50 08	 mov	 DWORD PTR [eax+8], edx
  00030	c2 04 00	 ret	 4
??5CAr@@QAEAAV0@AAK@Z ENDP				; CAr::operator>>
_TEXT	ENDS
PUBLIC	??6@YAAAVCAr@@AAV0@UtagRECT@@@Z			; operator<<
EXTRN	?Write@CAr@@QAEXPBXI@Z:NEAR			; CAr::Write
; Function compile flags: /Ogty
;	COMDAT ??6@YAAAVCAr@@AAV0@UtagRECT@@@Z
_TEXT	SEGMENT
_ar$ = 8						; size = 4
_rect$ = 12						; size = 16
??6@YAAAVCAr@@AAV0@UtagRECT@@@Z PROC NEAR		; operator<<, COMDAT

; 177  : 	{	ar.Write( &rect, sizeof(RECT) );	return ar;	}

  00000	56		 push	 esi
  00001	8b 74 24 08	 mov	 esi, DWORD PTR _ar$[esp]
  00005	6a 10		 push	 16			; 00000010H
  00007	8d 44 24 10	 lea	 eax, DWORD PTR _rect$[esp+4]
  0000b	50		 push	 eax
  0000c	8b ce		 mov	 ecx, esi
  0000e	e8 00 00 00 00	 call	 ?Write@CAr@@QAEXPBXI@Z	; CAr::Write
  00013	8b c6		 mov	 eax, esi
  00015	5e		 pop	 esi
  00016	c3		 ret	 0
??6@YAAAVCAr@@AAV0@UtagRECT@@@Z ENDP			; operator<<
_TEXT	ENDS
PUBLIC	??5@YAAAVCAr@@AAV0@AAUtagRECT@@@Z		; operator>>
EXTRN	?Read@CAr@@QAEXPAXI@Z:NEAR			; CAr::Read
; Function compile flags: /Ogty
;	COMDAT ??5@YAAAVCAr@@AAV0@AAUtagRECT@@@Z
_TEXT	SEGMENT
_ar$ = 8						; size = 4
_rect$ = 12						; size = 4
??5@YAAAVCAr@@AAV0@AAUtagRECT@@@Z PROC NEAR		; operator>>, COMDAT

; 180  : 	{	ar.Read( &rect, sizeof(RECT) );	return ar;	}

  00000	8b 44 24 08	 mov	 eax, DWORD PTR _rect$[esp-4]
  00004	56		 push	 esi
  00005	8b 74 24 08	 mov	 esi, DWORD PTR _ar$[esp]
  00009	6a 10		 push	 16			; 00000010H
  0000b	50		 push	 eax
  0000c	8b ce		 mov	 ecx, esi
  0000e	e8 00 00 00 00	 call	 ?Read@CAr@@QAEXPAXI@Z	; CAr::Read
  00013	8b c6		 mov	 eax, esi
  00015	5e		 pop	 esi
  00016	c3		 ret	 0
??5@YAAAVCAr@@AAV0@AAUtagRECT@@@Z ENDP			; operator>>
_TEXT	ENDS
PUBLIC	??0CJurisdiction@@QAE@XZ			; CJurisdiction::CJurisdiction
PUBLIC	??_7CJurisdiction@@6B@				; CJurisdiction::`vftable'
PUBLIC	??_GCJurisdiction@@UAEPAXI@Z			; CJurisdiction::`scalar deleting destructor'
EXTRN	??_ECJurisdiction@@UAEPAXI@Z:NEAR		; CJurisdiction::`vector deleting destructor'
;	COMDAT ??_7CJurisdiction@@6B@
; File c:\program files\microsoft visual studio .net 2003\vc7\atlmfc\include\atltypes.inl
CONST	SEGMENT
??_7CJurisdiction@@6B@ DD FLAT:??_ECJurisdiction@@UAEPAXI@Z ; CJurisdiction::`vftable'
; Function compile flags: /Ogty
; File c:\documents and settings\test\mes documents\source\virtuos_v17\build\program\_network\misc\include\serverdesc.h
CONST	ENDS
;	COMDAT ??0CJurisdiction@@QAE@XZ
_TEXT	SEGMENT
??0CJurisdiction@@QAE@XZ PROC NEAR			; CJurisdiction::CJurisdiction, COMDAT
; _this$ = ecx

; 18   : 	CJurisdiction()

  00000	56		 push	 esi

; 19   : 		{
; 20   : 			m_dwWorldID	= NULL_ID;
; 21   : 			m_rect.SetRect( 0, 0, 0, 0 );

  00001	6a 00		 push	 0
  00003	6a 00		 push	 0
  00005	8b f1		 mov	 esi, ecx
  00007	6a 00		 push	 0
  00009	6a 00		 push	 0
  0000b	8d 46 08	 lea	 eax, DWORD PTR [esi+8]
  0000e	50		 push	 eax
  0000f	c7 06 00 00 00
	00		 mov	 DWORD PTR [esi], OFFSET FLAT:??_7CJurisdiction@@6B@
  00015	c7 46 04 ff ff
	ff ff		 mov	 DWORD PTR [esi+4], -1
  0001c	ff 15 00 00 00
	00		 call	 DWORD PTR __imp__SetRect@20

; 22   : 			m_wLeft		= m_wRight	= 0;

  00022	66 c7 46 1a 00
	00		 mov	 WORD PTR [esi+26], 0
  00028	66 c7 46 18 00
	00		 mov	 WORD PTR [esi+24], 0

; 23   : 		}

  0002e	8b c6		 mov	 eax, esi
  00030	5e		 pop	 esi
  00031	c3		 ret	 0
??0CJurisdiction@@QAE@XZ ENDP				; CJurisdiction::CJurisdiction
; Function compile flags: /Ogty
_TEXT	ENDS
;	COMDAT ??_GCJurisdiction@@UAEPAXI@Z
_TEXT	SEGMENT
___flags$ = 8						; size = 4
??_GCJurisdiction@@UAEPAXI@Z PROC NEAR			; CJurisdiction::`scalar deleting destructor', COMDAT
; _this$ = ecx
  00000	f6 44 24 04 01	 test	 BYTE PTR ___flags$[esp-4], 1
  00005	56		 push	 esi
  00006	8b f1		 mov	 esi, ecx
  00008	c7 06 00 00 00
	00		 mov	 DWORD PTR [esi], OFFSET FLAT:??_7CJurisdiction@@6B@
  0000e	74 09		 je	 SHORT $L227963
  00010	56		 push	 esi
  00011	e8 00 00 00 00	 call	 ??3@YAXPAX@Z		; operator delete
  00016	83 c4 04	 add	 esp, 4
$L227963:
  00019	8b c6		 mov	 eax, esi
  0001b	5e		 pop	 esi
  0001c	c2 04 00	 ret	 4
??_GCJurisdiction@@UAEPAXI@Z ENDP			; CJurisdiction::`scalar deleting destructor'
_TEXT	ENDS
PUBLIC	?SetKey@CServerDesc@@QAEXK@Z			; CServerDesc::SetKey
; Function compile flags: /Ogty
;	COMDAT ?SetKey@CServerDesc@@QAEXK@Z
_TEXT	SEGMENT
_uKey$ = 8						; size = 4
?SetKey@CServerDesc@@QAEXK@Z PROC NEAR			; CServerDesc::SetKey, COMDAT
; _this$ = ecx

; 60   : 	void	SetKey( u_long uKey )	{	m_uKey	= uKey;		m_uIdofMulti	= uKey % 100;	}

  00000	8b 44 24 04	 mov	 eax, DWORD PTR _uKey$[esp-4]
  00004	56		 push	 esi
  00005	be 64 00 00 00	 mov	 esi, 100		; 00000064H
  0000a	33 d2		 xor	 edx, edx
  0000c	89 41 08	 mov	 DWORD PTR [ecx+8], eax
  0000f	f7 f6		 div	 esi
  00011	5e		 pop	 esi
  00012	89 51 04	 mov	 DWORD PTR [ecx+4], edx
  00015	c2 04 00	 ret	 4
?SetKey@CServerDesc@@QAEXK@Z ENDP			; CServerDesc::SetKey
_TEXT	ENDS
PUBLIC	?size@?$basic_string@DU?$char_traits@D@std@@V?$allocator@D@2@@std@@QBEIXZ ; std::basic_string<char,std::char_traits<char>,std::allocator<char> >::size
; Function compile flags: /Ogty
; File c:\program files\microsoft visual studio .net 2003\vc7\include\xstring
;	COMDAT ?size@?$basic_string@DU?$char_traits@D@std@@V?$allocator@D@2@@std@@QBEIXZ
_TEXT	SEGMENT
?size@?$basic_string@DU?$char_traits@D@std@@V?$allocator@D@2@@std@@QBEIXZ PROC NEAR ; std::basic_string<char,std::char_traits<char>,std::allocator<char> >::size, COMDAT
; _this$ = ecx

; 1109 : 		return (_Mysize);

  00000	8b 41 14	 mov	 eax, DWORD PTR [ecx+20]

; 1110 : 		}

  00003	c3		 ret	 0
?size@?$basic_string@DU?$char_traits@D@std@@V?$allocator@D@2@@std@@QBEIXZ ENDP ; std::basic_string<char,std::char_traits<char>,std::allocator<char> >::size
_TEXT	ENDS
PUBLIC	?_Myptr@?$basic_string@DU?$char_traits@D@std@@V?$allocator@D@2@@std@@QBEPBDXZ ; std::basic_string<char,std::char_traits<char>,std::allocator<char> >::_Myptr
; Function compile flags: /Ogty
;	COMDAT ?_Myptr@?$basic_string@DU?$char_traits@D@std@@V?$allocator@D@2@@std@@QBEPBDXZ
_TEXT	SEGMENT
?_Myptr@?$basic_string@DU?$char_traits@D@std@@V?$allocator@D@2@@std@@QBEPBDXZ PROC NEAR ; std::basic_string<char,std::char_traits<char>,std::allocator<char> >::_Myptr, COMDAT
; _this$ = ecx

; 1537 : 		return (_BUF_SIZE <= _Myres ? _Bx._Ptr : _Bx._Buf);

  00000	83 79 18 10	 cmp	 DWORD PTR [ecx+24], 16	; 00000010H
  00004	72 04		 jb	 SHORT $L227973
  00006	8b 41 04	 mov	 eax, DWORD PTR [ecx+4]

; 1538 : 		}

  00009	c3		 ret	 0
$L227973:

; 1537 : 		return (_BUF_SIZE <= _Myres ? _Bx._Ptr : _Bx._Buf);

  0000a	8d 41 04	 lea	 eax, DWORD PTR [ecx+4]

; 1538 : 		}

  0000d	c3		 ret	 0
?_Myptr@?$basic_string@DU?$char_traits@D@std@@V?$allocator@D@2@@std@@QBEPBDXZ ENDP ; std::basic_string<char,std::char_traits<char>,std::allocator<char> >::_Myptr
_TEXT	ENDS
PUBLIC	??0?$allocator@D@std@@QAE@XZ			; std::allocator<char>::allocator<char>
; Function compile flags: /Ogty
; File c:\program files\microsoft visual studio .net 2003\vc7\include\xmemory
;	COMDAT ??0?$allocator@D@std@@QAE@XZ
_TEXT	SEGMENT
??0?$allocator@D@std@@QAE@XZ PROC NEAR			; std::allocator<char>::allocator<char>, COMDAT
; _this$ = ecx

; 111  : 	allocator()

  00000	8b c1		 mov	 eax, ecx

; 112  : 		{	// construct default allocator (do nothing)
; 113  : 		}

  00002	c3		 ret	 0
??0?$allocator@D@std@@QAE@XZ ENDP			; std::allocator<char>::allocator<char>
_TEXT	ENDS
PUBLIC	??0?$allocator@D@std@@QAE@ABV01@@Z		; std::allocator<char>::allocator<char>
; Function compile flags: /Ogty
;	COMDAT ??0?$allocator@D@std@@QAE@ABV01@@Z
_TEXT	SEGMENT
___formal$ = 8						; size = 4
??0?$allocator@D@std@@QAE@ABV01@@Z PROC NEAR		; std::allocator<char>::allocator<char>, COMDAT
; _this$ = ecx

; 115  : 	allocator(const allocator<_Ty>&)

  00000	8b c1		 mov	 eax, ecx

; 116  : 		{	// construct by copying (do nothing)
; 117  : 		}

  00002	c2 04 00	 ret	 4
??0?$allocator@D@std@@QAE@ABV01@@Z ENDP			; std::allocator<char>::allocator<char>
_TEXT	ENDS
PUBLIC	??R?$less@K@std@@QBE_NABK0@Z			; std::less<unsigned long>::operator()
; Function compile flags: /Ogty
; File c:\program files\microsoft visual studio .net 2003\vc7\include\functional
;	COMDAT ??R?$less@K@std@@QBE_NABK0@Z
_TEXT	SEGMENT
__Left$ = 8						; size = 4
__Right$ = 12						; size = 4
??R?$less@K@std@@QBE_NABK0@Z PROC NEAR			; std::less<unsigned long>::operator(), COMDAT
; _this$ = ecx

; 139  : 		return (_Left < _Right);

  00000	8b 44 24 04	 mov	 eax, DWORD PTR __Left$[esp-4]
  00004	8b 08		 mov	 ecx, DWORD PTR [eax]
  00006	8b 54 24 08	 mov	 edx, DWORD PTR __Right$[esp-4]
  0000a	3b 0a		 cmp	 ecx, DWORD PTR [edx]
  0000c	1b c0		 sbb	 eax, eax
  0000e	f7 d8		 neg	 eax

; 140  : 		}

  00010	c2 08 00	 ret	 8
??R?$less@K@std@@QBE_NABK0@Z ENDP			; std::less<unsigned long>::operator()
_TEXT	ENDS
PUBLIC	?_Myptr@?$basic_string@DU?$char_traits@D@std@@V?$allocator@D@2@@std@@QAEPADXZ ; std::basic_string<char,std::char_traits<char>,std::allocator<char> >::_Myptr
; Function compile flags: /Ogty
; File c:\program files\microsoft visual studio .net 2003\vc7\include\xstring
;	COMDAT ?_Myptr@?$basic_string@DU?$char_traits@D@std@@V?$allocator@D@2@@std@@QAEPADXZ
_TEXT	SEGMENT
?_Myptr@?$basic_string@DU?$char_traits@D@std@@V?$allocator@D@2@@std@@QAEPADXZ PROC NEAR ; std::basic_string<char,std::char_traits<char>,std::allocator<char> >::_Myptr, COMDAT
; _this$ = ecx

; 1532 : 		return (_BUF_SIZE <= _Myres ? _Bx._Ptr : _Bx._Buf);

  00000	83 79 18 10	 cmp	 DWORD PTR [ecx+24], 16	; 00000010H
  00004	72 04		 jb	 SHORT $L227987
  00006	8b 41 04	 mov	 eax, DWORD PTR [ecx+4]

; 1533 : 		}

  00009	c3		 ret	 0
$L227987:

; 1532 : 		return (_BUF_SIZE <= _Myres ? _Bx._Ptr : _Bx._Buf);

  0000a	8d 41 04	 lea	 eax, DWORD PTR [ecx+4]

; 1533 : 		}

  0000d	c3		 ret	 0
?_Myptr@?$basic_string@DU?$char_traits@D@std@@V?$allocator@D@2@@std@@QAEPADXZ ENDP ; std::basic_string<char,std::char_traits<char>,std::allocator<char> >::_Myptr
_TEXT	ENDS
PUBLIC	?deallocate@?$allocator@D@std@@QAEXPADI@Z	; std::allocator<char>::deallocate
; Function compile flags: /Ogty
; File c:\program files\microsoft visual studio .net 2003\vc7\include\xmemory
;	COMDAT ?deallocate@?$allocator@D@std@@QAEXPADI@Z
_TEXT	SEGMENT
__Ptr$ = 8						; size = 4
___formal$ = 12						; size = 4
?deallocate@?$allocator@D@std@@QAEXPADI@Z PROC NEAR	; std::allocator<char>::deallocate, COMDAT
; _this$ = ecx

; 132  : 		operator delete(_Ptr);

  00000	8b 44 24 04	 mov	 eax, DWORD PTR __Ptr$[esp-4]
  00004	50		 push	 eax
  00005	e8 00 00 00 00	 call	 ??3@YAXPAX@Z		; operator delete
  0000a	59		 pop	 ecx

; 133  : 		}

  0000b	c2 08 00	 ret	 8
?deallocate@?$allocator@D@std@@QAEXPADI@Z ENDP		; std::allocator<char>::deallocate
_TEXT	ENDS
PUBLIC	?_Inside@?$basic_string@DU?$char_traits@D@std@@V?$allocator@D@2@@std@@IAE_NPBD@Z ; std::basic_string<char,std::char_traits<char>,std::allocator<char> >::_Inside
; Function compile flags: /Ogty
; File c:\program files\microsoft visual studio .net 2003\vc7\include\xstring
;	COMDAT ?_Inside@?$basic_string@DU?$char_traits@D@std@@V?$allocator@D@2@@std@@IAE_NPBD@Z
_TEXT	SEGMENT
__Ptr$ = 8						; size = 4
?_Inside@?$basic_string@DU?$char_traits@D@std@@V?$allocator@D@2@@std@@IAE_NPBD@Z PROC NEAR ; std::basic_string<char,std::char_traits<char>,std::allocator<char> >::_Inside, COMDAT
; _this$ = ecx

; 1494 : 		{	// test if _Ptr points inside string

  00000	56		 push	 esi

; 1495 : 		if (_Ptr < _Myptr() || _Myptr() + _Mysize <= _Ptr)

  00001	8b 71 18	 mov	 esi, DWORD PTR [ecx+24]
  00004	83 fe 10	 cmp	 esi, 16			; 00000010H
  00007	57		 push	 edi
  00008	8d 41 04	 lea	 eax, DWORD PTR [ecx+4]
  0000b	72 04		 jb	 SHORT $L228000
  0000d	8b 10		 mov	 edx, DWORD PTR [eax]
  0000f	eb 02		 jmp	 SHORT $L228001
$L228000:
  00011	8b d0		 mov	 edx, eax
$L228001:
  00013	8b 7c 24 0c	 mov	 edi, DWORD PTR __Ptr$[esp+4]
  00017	3b fa		 cmp	 edi, edx
  00019	72 17		 jb	 SHORT $L222788
  0001b	83 fe 10	 cmp	 esi, 16			; 00000010H
  0001e	72 02		 jb	 SHORT $L228008
  00020	8b 00		 mov	 eax, DWORD PTR [eax]
$L228008:
  00022	8b 49 14	 mov	 ecx, DWORD PTR [ecx+20]
  00025	03 c8		 add	 ecx, eax
  00027	3b cf		 cmp	 ecx, edi
  00029	76 07		 jbe	 SHORT $L222788
  0002b	5f		 pop	 edi

; 1497 : 		else
; 1498 : 			return (true);

  0002c	b0 01		 mov	 al, 1
  0002e	5e		 pop	 esi

; 1499 : 		}

  0002f	c2 04 00	 ret	 4
$L222788:
  00032	5f		 pop	 edi

; 1496 : 			return (false);	// don't ask

  00033	32 c0		 xor	 al, al
  00035	5e		 pop	 esi

; 1499 : 		}

  00036	c2 04 00	 ret	 4
?_Inside@?$basic_string@DU?$char_traits@D@std@@V?$allocator@D@2@@std@@IAE_NPBD@Z ENDP ; std::basic_string<char,std::char_traits<char>,std::allocator<char> >::_Inside
_TEXT	ENDS
PUBLIC	?max_size@?$allocator@D@std@@QBEIXZ		; std::allocator<char>::max_size
; Function compile flags: /Ogty
; File c:\program files\microsoft visual studio .net 2003\vc7\include\xmemory
;	COMDAT ?max_size@?$allocator@D@std@@QBEIXZ
_TEXT	SEGMENT
?max_size@?$allocator@D@std@@QBEIXZ PROC NEAR		; std::allocator<char>::max_size, COMDAT
; _this$ = ecx

; 157  : 		_SIZT _Count = (_SIZT)(-1) / sizeof (_Ty);
; 158  : 		return (0 < _Count ? _Count : 1);

  00000	83 c8 ff	 or	 eax, -1

; 159  : 		}

  00003	c3		 ret	 0
?max_size@?$allocator@D@std@@QBEIXZ ENDP		; std::allocator<char>::max_size
_TEXT	ENDS
PUBLIC	??$swap@D@std@@YAXAAD0@Z			; std::swap<char>
; Function compile flags: /Ogty
; File c:\program files\microsoft visual studio .net 2003\vc7\include\utility
;	COMDAT ??$swap@D@std@@YAXAAD0@Z
_TEXT	SEGMENT
__Left$ = 8						; size = 4
__Right$ = 12						; size = 4
??$swap@D@std@@YAXAAD0@Z PROC NEAR			; std::swap<char>, COMDAT

; 15   : 	_Ty _Tmp = _Left;

  00000	8b 44 24 04	 mov	 eax, DWORD PTR __Left$[esp-4]
  00004	8a 08		 mov	 cl, BYTE PTR [eax]
  00006	56		 push	 esi

; 16   : 	_Left = _Right, _Right = _Tmp;

  00007	8b 74 24 0c	 mov	 esi, DWORD PTR __Right$[esp]
  0000b	8a 16		 mov	 dl, BYTE PTR [esi]
  0000d	88 10		 mov	 BYTE PTR [eax], dl
  0000f	88 0e		 mov	 BYTE PTR [esi], cl
  00011	5e		 pop	 esi

; 17   : 	}

  00012	c3		 ret	 0
??$swap@D@std@@YAXAAD0@Z ENDP				; std::swap<char>
_TEXT	ENDS
PUBLIC	??$_Allocate@D@std@@YAPADIPAD@Z			; std::_Allocate<char>
; Function compile flags: /Ogty
; File c:\program files\microsoft visual studio .net 2003\vc7\include\xmemory
;	COMDAT ??$_Allocate@D@std@@YAPADIPAD@Z
_TEXT	SEGMENT
__Count$ = 8						; size = 4
___formal$ = 12						; size = 4
??$_Allocate@D@std@@YAPADIPAD@Z PROC NEAR		; std::_Allocate<char>, COMDAT

; 34   : 	return ((_Ty _FARQ *)operator new(_Count * sizeof (_Ty)));

  00000	8b 44 24 04	 mov	 eax, DWORD PTR __Count$[esp-4]
  00004	50		 push	 eax
  00005	e8 00 00 00 00	 call	 ??2@YAPAXI@Z		; operator new
  0000a	83 c4 04	 add	 esp, 4

; 35   : 	}

  0000d	c3		 ret	 0
??$_Allocate@D@std@@YAPADIPAD@Z ENDP			; std::_Allocate<char>
_TEXT	ENDS
PUBLIC	??Eiterator@?$list@PAVCJurisdiction@@V?$allocator@PAVCJurisdiction@@@std@@@std@@QAEAAV012@XZ ; std::list<CJurisdiction *,std::allocator<CJurisdiction *> >::iterator::operator++
; Function compile flags: /Ogty
; File c:\program files\microsoft visual studio .net 2003\vc7\include\list
;	COMDAT ??Eiterator@?$list@PAVCJurisdiction@@V?$allocator@PAVCJurisdiction@@@std@@@std@@QAEAAV012@XZ
_TEXT	SEGMENT
??Eiterator@?$list@PAVCJurisdiction@@V?$allocator@PAVCJurisdiction@@@std@@@std@@QAEAAV012@XZ PROC NEAR ; std::list<CJurisdiction *,std::allocator<CJurisdiction *> >::iterator::operator++, COMDAT
; _this$ = ecx

; 249  : 			{	// preincrement

  00000	8b c1		 mov	 eax, ecx

; 250  : 			++(*(const_iterator *)this);

  00002	8b 08		 mov	 ecx, DWORD PTR [eax]
  00004	8b 11		 mov	 edx, DWORD PTR [ecx]
  00006	89 10		 mov	 DWORD PTR [eax], edx

; 251  : 			return (*this);
; 252  : 			}

  00008	c3		 ret	 0
??Eiterator@?$list@PAVCJurisdiction@@V?$allocator@PAVCJurisdiction@@@std@@@std@@QAEAAV012@XZ ENDP ; std::list<CJurisdiction *,std::allocator<CJurisdiction *> >::iterator::operator++
_TEXT	ENDS
PUBLIC	??9const_iterator@?$list@PAVCJurisdiction@@V?$allocator@PAVCJurisdiction@@@std@@@std@@QBE_NABV012@@Z ; std::list<CJurisdiction *,std::allocator<CJurisdiction *> >::const_iterator::operator!=
; Function compile flags: /Ogty
;	COMDAT ??9const_iterator@?$list@PAVCJurisdiction@@V?$allocator@PAVCJurisdiction@@@std@@@std@@QBE_NABV012@@Z
_TEXT	SEGMENT
__Right$ = 8						; size = 4
??9const_iterator@?$list@PAVCJurisdiction@@V?$allocator@PAVCJurisdiction@@@std@@@std@@QBE_NABV012@@Z PROC NEAR ; std::list<CJurisdiction *,std::allocator<CJurisdiction *> >::const_iterator::operator!=, COMDAT
; _this$ = ecx

; 202  : 			return (!(*this == _Right));

  00000	8b 01		 mov	 eax, DWORD PTR [ecx]
  00002	8b 54 24 04	 mov	 edx, DWORD PTR __Right$[esp-4]
  00006	56		 push	 esi
  00007	8b 32		 mov	 esi, DWORD PTR [edx]
  00009	33 c9		 xor	 ecx, ecx
  0000b	3b c6		 cmp	 eax, esi
  0000d	0f 95 c1	 setne	 cl
  00010	8a c1		 mov	 al, cl
  00012	5e		 pop	 esi

; 203  : 			}

  00013	c2 04 00	 ret	 4
??9const_iterator@?$list@PAVCJurisdiction@@V?$allocator@PAVCJurisdiction@@@std@@@std@@QBE_NABV012@@Z ENDP ; std::list<CJurisdiction *,std::allocator<CJurisdiction *> >::const_iterator::operator!=
_TEXT	ENDS
PUBLIC	??9const_iterator@?$_Tree@V?$_Tmap_traits@KPAVCServerDesc@@U?$less@K@std@@V?$allocator@U?$pair@$$CBKPAVCServerDesc@@@std@@@3@$0A@@std@@@std@@QBE_NABV012@@Z ; std::_Tree<std::_Tmap_traits<unsigned long,CServerDesc *,std::less<unsigned long>,std::allocator<std::pair<unsigned long const ,CServerDesc *> >,0> >::const_iterator::operator!=
; Function compile flags: /Ogty
; File c:\program files\microsoft visual studio .net 2003\vc7\include\xtree
;	COMDAT ??9const_iterator@?$_Tree@V?$_Tmap_traits@KPAVCServerDesc@@U?$less@K@std@@V?$allocator@U?$pair@$$CBKPAVCServerDesc@@@std@@@3@$0A@@std@@@std@@QBE_NABV012@@Z
_TEXT	SEGMENT
__Right$ = 8						; size = 4
??9const_iterator@?$_Tree@V?$_Tmap_traits@KPAVCServerDesc@@U?$less@K@std@@V?$allocator@U?$pair@$$CBKPAVCServerDesc@@@std@@@3@$0A@@std@@@std@@QBE_NABV012@@Z PROC NEAR ; std::_Tree<std::_Tmap_traits<unsigned long,CServerDesc *,std::less<unsigned long>,std::allocator<std::pair<unsigned long const ,CServerDesc *> >,0> >::const_iterator::operator!=, COMDAT
; _this$ = ecx

; 246  : 			return (!(*this == _Right));

  00000	8b 01		 mov	 eax, DWORD PTR [ecx]
  00002	8b 54 24 04	 mov	 edx, DWORD PTR __Right$[esp-4]
  00006	56		 push	 esi
  00007	8b 32		 mov	 esi, DWORD PTR [edx]
  00009	33 c9		 xor	 ecx, ecx
  0000b	3b c6		 cmp	 eax, esi
  0000d	0f 95 c1	 setne	 cl
  00010	8a c1		 mov	 al, cl
  00012	5e		 pop	 esi

; 247  : 			}

  00013	c2 04 00	 ret	 4
??9const_iterator@?$_Tree@V?$_Tmap_traits@KPAVCServerDesc@@U?$less@K@std@@V?$allocator@U?$pair@$$CBKPAVCServerDesc@@@std@@@3@$0A@@std@@@std@@QBE_NABV012@@Z ENDP ; std::_Tree<std::_Tmap_traits<unsigned long,CServerDesc *,std::less<unsigned long>,std::allocator<std::pair<unsigned long const ,CServerDesc *> >,0> >::const_iterator::operator!=
_TEXT	ENDS
PUBLIC	?_Key@?$_Tree@V?$_Tmap_traits@KPAVCServerDesc@@U?$less@K@std@@V?$allocator@U?$pair@$$CBKPAVCServerDesc@@@std@@@3@$0A@@std@@@std@@KAABKPAU_Node@?$_Tree_nod@V?$_Tmap_traits@KPAVCServerDesc@@U?$less@K@std@@V?$allocator@U?$pair@$$CBKPAVCServerDesc@@@std@@@3@$0A@@std@@@2@@Z ; std::_Tree<std::_Tmap_traits<unsigned long,CServerDesc *,std::less<unsigned long>,std::allocator<std::pair<unsigned long const ,CServerDesc *> >,0> >::_Key
; Function compile flags: /Ogty
;	COMDAT ?_Key@?$_Tree@V?$_Tmap_traits@KPAVCServerDesc@@U?$less@K@std@@V?$allocator@U?$pair@$$CBKPAVCServerDesc@@@std@@@3@$0A@@std@@@std@@KAABKPAU_Node@?$_Tree_nod@V?$_Tmap_traits@KPAVCServerDesc@@U?$less@K@std@@V?$allocator@U?$pair@$$CBKPAVCServerDesc@@@std@@@3@$0A@@std@@@2@@Z
_TEXT	SEGMENT
__Pnode$ = 8						; size = 4
?_Key@?$_Tree@V?$_Tmap_traits@KPAVCServerDesc@@U?$less@K@std@@V?$allocator@U?$pair@$$CBKPAVCServerDesc@@@std@@@3@$0A@@std@@@std@@KAABKPAU_Node@?$_Tree_nod@V?$_Tmap_traits@KPAVCServerDesc@@U?$less@K@std@@V?$allocator@U?$pair@$$CBKPAVCServerDesc@@@std@@@3@$0A@@std@@@2@@Z PROC NEAR ; std::_Tree<std::_Tmap_traits<unsigned long,CServerDesc *,std::less<unsigned long>,std::allocator<std::pair<unsigned long const ,CServerDesc *> >,0> >::_Key, COMDAT

; 142  : 		return (_Mybase::_Kfn(_Myval(_Pnode)));

  00000	8b 44 24 04	 mov	 eax, DWORD PTR __Pnode$[esp-4]
  00004	83 c0 0c	 add	 eax, 12			; 0000000cH

; 143  : 		}

  00007	c3		 ret	 0
?_Key@?$_Tree@V?$_Tmap_traits@KPAVCServerDesc@@U?$less@K@std@@V?$allocator@U?$pair@$$CBKPAVCServerDesc@@@std@@@3@$0A@@std@@@std@@KAABKPAU_Node@?$_Tree_nod@V?$_Tmap_traits@KPAVCServerDesc@@U?$less@K@std@@V?$allocator@U?$pair@$$CBKPAVCServerDesc@@@std@@@3@$0A@@std@@@2@@Z ENDP ; std::_Tree<std::_Tmap_traits<unsigned long,CServerDesc *,std::less<unsigned long>,std::allocator<std::pair<unsigned long const ,CServerDesc *> >,0> >::_Key
_TEXT	ENDS
PUBLIC	?_Lmost@?$_Tree@V?$_Tmap_traits@KPAVCServerDesc@@U?$less@K@std@@V?$allocator@U?$pair@$$CBKPAVCServerDesc@@@std@@@3@$0A@@std@@@std@@IAEAAPAU_Node@?$_Tree_nod@V?$_Tmap_traits@KPAVCServerDesc@@U?$less@K@std@@V?$allocator@U?$pair@$$CBKPAVCServerDesc@@@std@@@3@$0A@@std@@@2@XZ ; std::_Tree<std::_Tmap_traits<unsigned long,CServerDesc *,std::less<unsigned long>,std::allocator<std::pair<unsigned long const ,CServerDesc *> >,0> >::_Lmost
; Function compile flags: /Ogty
;	COMDAT ?_Lmost@?$_Tree@V?$_Tmap_traits@KPAVCServerDesc@@U?$less@K@std@@V?$allocator@U?$pair@$$CBKPAVCServerDesc@@@std@@@3@$0A@@std@@@std@@IAEAAPAU_Node@?$_Tree_nod@V?$_Tmap_traits@KPAVCServerDesc@@U?$less@K@std@@V?$allocator@U?$pair@$$CBKPAVCServerDesc@@@std@@@3@$0A@@std@@@2@XZ
_TEXT	SEGMENT
?_Lmost@?$_Tree@V?$_Tmap_traits@KPAVCServerDesc@@U?$less@K@std@@V?$allocator@U?$pair@$$CBKPAVCServerDesc@@@std@@@3@$0A@@std@@@std@@IAEAAPAU_Node@?$_Tree_nod@V?$_Tmap_traits@KPAVCServerDesc@@U?$less@K@std@@V?$allocator@U?$pair@$$CBKPAVCServerDesc@@@std@@@3@$0A@@std@@@2@XZ PROC NEAR ; std::_Tree<std::_Tmap_traits<unsigned long,CServerDesc *,std::less<unsigned long>,std::allocator<std::pair<unsigned long const ,CServerDesc *> >,0> >::_Lmost, COMDAT
; _this$ = ecx

; 1005 : 		return (_Left(_Myhead));

  00000	8b 41 04	 mov	 eax, DWORD PTR [ecx+4]

; 1006 : 		}

  00003	c3		 ret	 0
?_Lmost@?$_Tree@V?$_Tmap_traits@KPAVCServerDesc@@U?$less@K@std@@V?$allocator@U?$pair@$$CBKPAVCServerDesc@@@std@@@3@$0A@@std@@@std@@IAEAAPAU_Node@?$_Tree_nod@V?$_Tmap_traits@KPAVCServerDesc@@U?$less@K@std@@V?$allocator@U?$pair@$$CBKPAVCServerDesc@@@std@@@3@$0A@@std@@@2@XZ ENDP ; std::_Tree<std::_Tmap_traits<unsigned long,CServerDesc *,std::less<unsigned long>,std::allocator<std::pair<unsigned long const ,CServerDesc *> >,0> >::_Lmost
_TEXT	ENDS
PUBLIC	?_Rmost@?$_Tree@V?$_Tmap_traits@KPAVCServerDesc@@U?$less@K@std@@V?$allocator@U?$pair@$$CBKPAVCServerDesc@@@std@@@3@$0A@@std@@@std@@IAEAAPAU_Node@?$_Tree_nod@V?$_Tmap_traits@KPAVCServerDesc@@U?$less@K@std@@V?$allocator@U?$pair@$$CBKPAVCServerDesc@@@std@@@3@$0A@@std@@@2@XZ ; std::_Tree<std::_Tmap_traits<unsigned long,CServerDesc *,std::less<unsigned long>,std::allocator<std::pair<unsigned long const ,CServerDesc *> >,0> >::_Rmost
; Function compile flags: /Ogty
;	COMDAT ?_Rmost@?$_Tree@V?$_Tmap_traits@KPAVCServerDesc@@U?$less@K@std@@V?$allocator@U?$pair@$$CBKPAVCServerDesc@@@std@@@3@$0A@@std@@@std@@IAEAAPAU_Node@?$_Tree_nod@V?$_Tmap_traits@KPAVCServerDesc@@U?$less@K@std@@V?$allocator@U?$pair@$$CBKPAVCServerDesc@@@std@@@3@$0A@@std@@@2@XZ
_TEXT	SEGMENT
?_Rmost@?$_Tree@V?$_Tmap_traits@KPAVCServerDesc@@U?$less@K@std@@V?$allocator@U?$pair@$$CBKPAVCServerDesc@@@std@@@3@$0A@@std@@@std@@IAEAAPAU_Node@?$_Tree_nod@V?$_Tmap_traits@KPAVCServerDesc@@U?$less@K@std@@V?$allocator@U?$pair@$$CBKPAVCServerDesc@@@std@@@3@$0A@@std@@@2@XZ PROC NEAR ; std::_Tree<std::_Tmap_traits<unsigned long,CServerDesc *,std::less<unsigned long>,std::allocator<std::pair<unsigned long const ,CServerDesc *> >,0> >::_Rmost, COMDAT
; _this$ = ecx

; 1049 : 		return (_Right(_Myhead));

  00000	8b 41 04	 mov	 eax, DWORD PTR [ecx+4]
  00003	83 c0 08	 add	 eax, 8

; 1050 : 		}

  00006	c3		 ret	 0
?_Rmost@?$_Tree@V?$_Tmap_traits@KPAVCServerDesc@@U?$less@K@std@@V?$allocator@U?$pair@$$CBKPAVCServerDesc@@@std@@@3@$0A@@std@@@std@@IAEAAPAU_Node@?$_Tree_nod@V?$_Tmap_traits@KPAVCServerDesc@@U?$less@K@std@@V?$allocator@U?$pair@$$CBKPAVCServerDesc@@@std@@@3@$0A@@std@@@2@XZ ENDP ; std::_Tree<std::_Tmap_traits<unsigned long,CServerDesc *,std::less<unsigned long>,std::allocator<std::pair<unsigned long const ,CServerDesc *> >,0> >::_Rmost
_TEXT	ENDS
PUBLIC	?_Root@?$_Tree@V?$_Tmap_traits@KPAVCServerDesc@@U?$less@K@std@@V?$allocator@U?$pair@$$CBKPAVCServerDesc@@@std@@@3@$0A@@std@@@std@@IAEAAPAU_Node@?$_Tree_nod@V?$_Tmap_traits@KPAVCServerDesc@@U?$less@K@std@@V?$allocator@U?$pair@$$CBKPAVCServerDesc@@@std@@@3@$0A@@std@@@2@XZ ; std::_Tree<std::_Tmap_traits<unsigned long,CServerDesc *,std::less<unsigned long>,std::allocator<std::pair<unsigned long const ,CServerDesc *> >,0> >::_Root
; Function compile flags: /Ogty
;	COMDAT ?_Root@?$_Tree@V?$_Tmap_traits@KPAVCServerDesc@@U?$less@K@std@@V?$allocator@U?$pair@$$CBKPAVCServerDesc@@@std@@@3@$0A@@std@@@std@@IAEAAPAU_Node@?$_Tree_nod@V?$_Tmap_traits@KPAVCServerDesc@@U?$less@K@std@@V?$allocator@U?$pair@$$CBKPAVCServerDesc@@@std@@@3@$0A@@std@@@2@XZ
_TEXT	SEGMENT
?_Root@?$_Tree@V?$_Tmap_traits@KPAVCServerDesc@@U?$less@K@std@@V?$allocator@U?$pair@$$CBKPAVCServerDesc@@@std@@@3@$0A@@std@@@std@@IAEAAPAU_Node@?$_Tree_nod@V?$_Tmap_traits@KPAVCServerDesc@@U?$less@K@std@@V?$allocator@U?$pair@$$CBKPAVCServerDesc@@@std@@@3@$0A@@std@@@2@XZ PROC NEAR ; std::_Tree<std::_Tmap_traits<unsigned long,CServerDesc *,std::less<unsigned long>,std::allocator<std::pair<unsigned long const ,CServerDesc *> >,0> >::_Root, COMDAT
; _this$ = ecx

; 1059 : 		return (_Parent(_Myhead));

  00000	8b 41 04	 mov	 eax, DWORD PTR [ecx+4]
  00003	83 c0 04	 add	 eax, 4

; 1060 : 		}

  00006	c3		 ret	 0
?_Root@?$_Tree@V?$_Tmap_traits@KPAVCServerDesc@@U?$less@K@std@@V?$allocator@U?$pair@$$CBKPAVCServerDesc@@@std@@@3@$0A@@std@@@std@@IAEAAPAU_Node@?$_Tree_nod@V?$_Tmap_traits@KPAVCServerDesc@@U?$less@K@std@@V?$allocator@U?$pair@$$CBKPAVCServerDesc@@@std@@@3@$0A@@std@@@2@XZ ENDP ; std::_Tree<std::_Tmap_traits<unsigned long,CServerDesc *,std::less<unsigned long>,std::allocator<std::pair<unsigned long const ,CServerDesc *> >,0> >::_Root
_TEXT	ENDS
PUBLIC	??0iterator@?$list@PAVCJurisdiction@@V?$allocator@PAVCJurisdiction@@@std@@@std@@QAE@PAU_Node@?$_List_nod@PAVCJurisdiction@@V?$allocator@PAVCJurisdiction@@@std@@@2@@Z ; std::list<CJurisdiction *,std::allocator<CJurisdiction *> >::iterator::iterator
; Function compile flags: /Ogty
; File c:\program files\microsoft visual studio .net 2003\vc7\include\list
;	COMDAT ??0iterator@?$list@PAVCJurisdiction@@V?$allocator@PAVCJurisdiction@@@std@@@std@@QAE@PAU_Node@?$_List_nod@PAVCJurisdiction@@V?$allocator@PAVCJurisdiction@@@std@@@2@@Z
_TEXT	SEGMENT
__Pnode$ = 8						; size = 4
??0iterator@?$list@PAVCJurisdiction@@V?$allocator@PAVCJurisdiction@@@std@@@std@@QAE@PAU_Node@?$_List_nod@PAVCJurisdiction@@V?$allocator@PAVCJurisdiction@@@std@@@2@@Z PROC NEAR ; std::list<CJurisdiction *,std::allocator<CJurisdiction *> >::iterator::iterator, COMDAT
; _this$ = ecx

; 235  : 			{	// construct with node pointer _Pnode

  00000	8b c1		 mov	 eax, ecx
  00002	8b 4c 24 04	 mov	 ecx, DWORD PTR __Pnode$[esp-4]
  00006	89 08		 mov	 DWORD PTR [eax], ecx

; 236  : 			}

  00008	c2 04 00	 ret	 4
??0iterator@?$list@PAVCJurisdiction@@V?$allocator@PAVCJurisdiction@@@std@@@std@@QAE@PAU_Node@?$_List_nod@PAVCJurisdiction@@V?$allocator@PAVCJurisdiction@@@std@@@2@@Z ENDP ; std::list<CJurisdiction *,std::allocator<CJurisdiction *> >::iterator::iterator
_TEXT	ENDS
PUBLIC	??Dconst_iterator@?$list@PAVCJurisdiction@@V?$allocator@PAVCJurisdiction@@@std@@@std@@QBEABQAVCJurisdiction@@XZ ; std::list<CJurisdiction *,std::allocator<CJurisdiction *> >::const_iterator::operator*
; Function compile flags: /Ogty
;	COMDAT ??Dconst_iterator@?$list@PAVCJurisdiction@@V?$allocator@PAVCJurisdiction@@@std@@@std@@QBEABQAVCJurisdiction@@XZ
_TEXT	SEGMENT
??Dconst_iterator@?$list@PAVCJurisdiction@@V?$allocator@PAVCJurisdiction@@@std@@@std@@QBEABQAVCJurisdiction@@XZ PROC NEAR ; std::list<CJurisdiction *,std::allocator<CJurisdiction *> >::const_iterator::operator*, COMDAT
; _this$ = ecx

; 161  : 			return (_Myval(_Ptr));

  00000	8b 01		 mov	 eax, DWORD PTR [ecx]
  00002	83 c0 08	 add	 eax, 8

; 162  : 			}

  00005	c3		 ret	 0
??Dconst_iterator@?$list@PAVCJurisdiction@@V?$allocator@PAVCJurisdiction@@@std@@@std@@QBEABQAVCJurisdiction@@XZ ENDP ; std::list<CJurisdiction *,std::allocator<CJurisdiction *> >::const_iterator::operator*
_TEXT	ENDS
PUBLIC	??0iterator@?$_Tree@V?$_Tmap_traits@KPAVCServerDesc@@U?$less@K@std@@V?$allocator@U?$pair@$$CBKPAVCServerDesc@@@std@@@3@$0A@@std@@@std@@QAE@PAU_Node@?$_Tree_nod@V?$_Tmap_traits@KPAVCServerDesc@@U?$less@K@std@@V?$allocator@U?$pair@$$CBKPAVCServerDesc@@@std@@@3@$0A@@std@@@2@@Z ; std::_Tree<std::_Tmap_traits<unsigned long,CServerDesc *,std::less<unsigned long>,std::allocator<std::pair<unsigned long const ,CServerDesc *> >,0> >::iterator::iterator
; Function compile flags: /Ogty
; File c:\program files\microsoft visual studio .net 2003\vc7\include\xtree
;	COMDAT ??0iterator@?$_Tree@V?$_Tmap_traits@KPAVCServerDesc@@U?$less@K@std@@V?$allocator@U?$pair@$$CBKPAVCServerDesc@@@std@@@3@$0A@@std@@@std@@QAE@PAU_Node@?$_Tree_nod@V?$_Tmap_traits@KPAVCServerDesc@@U?$less@K@std@@V?$allocator@U?$pair@$$CBKPAVCServerDesc@@@std@@@3@$0A@@std@@@2@@Z
_TEXT	SEGMENT
__Pnode$ = 8						; size = 4
??0iterator@?$_Tree@V?$_Tmap_traits@KPAVCServerDesc@@U?$less@K@std@@V?$allocator@U?$pair@$$CBKPAVCServerDesc@@@std@@@3@$0A@@std@@@std@@QAE@PAU_Node@?$_Tree_nod@V?$_Tmap_traits@KPAVCServerDesc@@U?$less@K@std@@V?$allocator@U?$pair@$$CBKPAVCServerDesc@@@std@@@3@$0A@@std@@@2@@Z PROC NEAR ; std::_Tree<std::_Tmap_traits<unsigned long,CServerDesc *,std::less<unsigned long>,std::allocator<std::pair<unsigned long const ,CServerDesc *> >,0> >::iterator::iterator, COMDAT
; _this$ = ecx

; 312  : 			{	// construct with node pointer _Pnode

  00000	8b c1		 mov	 eax, ecx
  00002	8b 4c 24 04	 mov	 ecx, DWORD PTR __Pnode$[esp-4]
  00006	89 08		 mov	 DWORD PTR [eax], ecx

; 313  : 			}

  00008	c2 04 00	 ret	 4
??0iterator@?$_Tree@V?$_Tmap_traits@KPAVCServerDesc@@U?$less@K@std@@V?$allocator@U?$pair@$$CBKPAVCServerDesc@@@std@@@3@$0A@@std@@@std@@QAE@PAU_Node@?$_Tree_nod@V?$_Tmap_traits@KPAVCServerDesc@@U?$less@K@std@@V?$allocator@U?$pair@$$CBKPAVCServerDesc@@@std@@@3@$0A@@std@@@2@@Z ENDP ; std::_Tree<std::_Tmap_traits<unsigned long,CServerDesc *,std::less<unsigned long>,std::allocator<std::pair<unsigned long const ,CServerDesc *> >,0> >::iterator::iterator
_TEXT	ENDS
PUBLIC	??Diterator@?$_Tree@V?$_Tmap_traits@KPAVCServerDesc@@U?$less@K@std@@V?$allocator@U?$pair@$$CBKPAVCServerDesc@@@std@@@3@$0A@@std@@@std@@QBEAAU?$pair@$$CBKPAVCServerDesc@@@2@XZ ; std::_Tree<std::_Tmap_traits<unsigned long,CServerDesc *,std::less<unsigned long>,std::allocator<std::pair<unsigned long const ,CServerDesc *> >,0> >::iterator::operator*
; Function compile flags: /Ogty
;	COMDAT ??Diterator@?$_Tree@V?$_Tmap_traits@KPAVCServerDesc@@U?$less@K@std@@V?$allocator@U?$pair@$$CBKPAVCServerDesc@@@std@@@3@$0A@@std@@@std@@QBEAAU?$pair@$$CBKPAVCServerDesc@@@2@XZ
_TEXT	SEGMENT
??Diterator@?$_Tree@V?$_Tmap_traits@KPAVCServerDesc@@U?$less@K@std@@V?$allocator@U?$pair@$$CBKPAVCServerDesc@@@std@@@3@$0A@@std@@@std@@QBEAAU?$pair@$$CBKPAVCServerDesc@@@2@XZ PROC NEAR ; std::_Tree<std::_Tmap_traits<unsigned long,CServerDesc *,std::less<unsigned long>,std::allocator<std::pair<unsigned long const ,CServerDesc *> >,0> >::iterator::operator*, COMDAT
; _this$ = ecx

; 317  : 			return ((reference)**(const_iterator *)this);

  00000	8b 01		 mov	 eax, DWORD PTR [ecx]
  00002	83 c0 0c	 add	 eax, 12			; 0000000cH

; 318  : 			}

  00005	c3		 ret	 0
??Diterator@?$_Tree@V?$_Tmap_traits@KPAVCServerDesc@@U?$less@K@std@@V?$allocator@U?$pair@$$CBKPAVCServerDesc@@@std@@@3@$0A@@std@@@std@@QBEAAU?$pair@$$CBKPAVCServerDesc@@@2@XZ ENDP ; std::_Tree<std::_Tmap_traits<unsigned long,CServerDesc *,std::less<unsigned long>,std::allocator<std::pair<unsigned long const ,CServerDesc *> >,0> >::iterator::operator*
_TEXT	ENDS
PUBLIC	?allocate@?$allocator@U_Node@?$_List_nod@PAVCJurisdiction@@V?$allocator@PAVCJurisdiction@@@std@@@std@@@std@@QAEPAU_Node@?$_List_nod@PAVCJurisdiction@@V?$allocator@PAVCJurisdiction@@@std@@@2@I@Z ; std::allocator<std::_List_nod<CJurisdiction *,std::allocator<CJurisdiction *> >::_Node>::allocate
; Function compile flags: /Ogty
; File c:\program files\microsoft visual studio .net 2003\vc7\include\xmemory
;	COMDAT ?allocate@?$allocator@U_Node@?$_List_nod@PAVCJurisdiction@@V?$allocator@PAVCJurisdiction@@@std@@@std@@@std@@QAEPAU_Node@?$_List_nod@PAVCJurisdiction@@V?$allocator@PAVCJurisdiction@@@std@@@2@I@Z
_TEXT	SEGMENT
__Count$ = 8						; size = 4
?allocate@?$allocator@U_Node@?$_List_nod@PAVCJurisdiction@@V?$allocator@PAVCJurisdiction@@@std@@@std@@@std@@QAEPAU_Node@?$_List_nod@PAVCJurisdiction@@V?$allocator@PAVCJurisdiction@@@std@@@2@I@Z PROC NEAR ; std::allocator<std::_List_nod<CJurisdiction *,std::allocator<CJurisdiction *> >::_Node>::allocate, COMDAT
; _this$ = ecx

; 137  : 		return (_Allocate(_Count, (pointer)0));

  00000	8b 44 24 04	 mov	 eax, DWORD PTR __Count$[esp-4]
  00004	8d 04 40	 lea	 eax, DWORD PTR [eax+eax*2]
  00007	c1 e0 02	 shl	 eax, 2
  0000a	50		 push	 eax
  0000b	e8 00 00 00 00	 call	 ??2@YAPAXI@Z		; operator new
  00010	83 c4 04	 add	 esp, 4

; 138  : 		}

  00013	c2 04 00	 ret	 4
?allocate@?$allocator@U_Node@?$_List_nod@PAVCJurisdiction@@V?$allocator@PAVCJurisdiction@@@std@@@std@@@std@@QAEPAU_Node@?$_List_nod@PAVCJurisdiction@@V?$allocator@PAVCJurisdiction@@@std@@@2@I@Z ENDP ; std::allocator<std::_List_nod<CJurisdiction *,std::allocator<CJurisdiction *> >::_Node>::allocate
_TEXT	ENDS
PUBLIC	?destroy@?$allocator@U_Node@?$_List_nod@PAVCJurisdiction@@V?$allocator@PAVCJurisdiction@@@std@@@std@@@std@@QAEXPAU_Node@?$_List_nod@PAVCJurisdiction@@V?$allocator@PAVCJurisdiction@@@std@@@2@@Z ; std::allocator<std::_List_nod<CJurisdiction *,std::allocator<CJurisdiction *> >::_Node>::destroy
; Function compile flags: /Ogty
;	COMDAT ?destroy@?$allocator@U_Node@?$_List_nod@PAVCJurisdiction@@V?$allocator@PAVCJurisdiction@@@std@@@std@@@std@@QAEXPAU_Node@?$_List_nod@PAVCJurisdiction@@V?$allocator@PAVCJurisdiction@@@std@@@2@@Z
_TEXT	SEGMENT
__Ptr$ = 8						; size = 4
?destroy@?$allocator@U_Node@?$_List_nod@PAVCJurisdiction@@V?$allocator@PAVCJurisdiction@@@std@@@std@@@std@@QAEXPAU_Node@?$_List_nod@PAVCJurisdiction@@V?$allocator@PAVCJurisdiction@@@std@@@2@@Z PROC NEAR ; std::allocator<std::_List_nod<CJurisdiction *,std::allocator<CJurisdiction *> >::_Node>::destroy, COMDAT
; _this$ = ecx

; 152  : 		_Destroy(_Ptr);
; 153  : 		}

  00000	c2 04 00	 ret	 4
?destroy@?$allocator@U_Node@?$_List_nod@PAVCJurisdiction@@V?$allocator@PAVCJurisdiction@@@std@@@std@@@std@@QAEXPAU_Node@?$_List_nod@PAVCJurisdiction@@V?$allocator@PAVCJurisdiction@@@std@@@2@@Z ENDP ; std::allocator<std::_List_nod<CJurisdiction *,std::allocator<CJurisdiction *> >::_Node>::destroy
_TEXT	ENDS
PUBLIC	?construct@?$allocator@PAU_Node@?$_List_nod@PAVCJurisdiction@@V?$allocator@PAVCJurisdiction@@@std@@@std@@@std@@QAEXPAPAU_Node@?$_List_nod@PAVCJurisdiction@@V?$allocator@PAVCJurisdiction@@@std@@@2@ABQAU342@@Z ; std::allocator<std::_List_nod<CJurisdiction *,std::allocator<CJurisdiction *> >::_Node *>::construct
; Function compile flags: /Ogty
;	COMDAT ?construct@?$allocator@PAU_Node@?$_List_nod@PAVCJurisdiction@@V?$allocator@PAVCJurisdiction@@@std@@@std@@@std@@QAEXPAPAU_Node@?$_List_nod@PAVCJurisdiction@@V?$allocator@PAVCJurisdiction@@@std@@@2@ABQAU342@@Z
_TEXT	SEGMENT
__Ptr$ = 8						; size = 4
__Val$ = 12						; size = 4
?construct@?$allocator@PAU_Node@?$_List_nod@PAVCJurisdiction@@V?$allocator@PAVCJurisdiction@@@std@@@std@@@std@@QAEXPAPAU_Node@?$_List_nod@PAVCJurisdiction@@V?$allocator@PAVCJurisdiction@@@std@@@2@ABQAU342@@Z PROC NEAR ; std::allocator<std::_List_nod<CJurisdiction *,std::allocator<CJurisdiction *> >::_Node *>::construct, COMDAT
; _this$ = ecx

; 147  : 		_Construct(_Ptr, _Val);

  00000	8b 44 24 04	 mov	 eax, DWORD PTR __Ptr$[esp-4]
  00004	85 c0		 test	 eax, eax
  00006	74 08		 je	 SHORT $L228126
  00008	8b 4c 24 08	 mov	 ecx, DWORD PTR __Val$[esp-4]
  0000c	8b 11		 mov	 edx, DWORD PTR [ecx]
  0000e	89 10		 mov	 DWORD PTR [eax], edx
$L228126:

; 148  : 		}

  00010	c2 08 00	 ret	 8
?construct@?$allocator@PAU_Node@?$_List_nod@PAVCJurisdiction@@V?$allocator@PAVCJurisdiction@@@std@@@std@@@std@@QAEXPAPAU_Node@?$_List_nod@PAVCJurisdiction@@V?$allocator@PAVCJurisdiction@@@std@@@2@ABQAU342@@Z ENDP ; std::allocator<std::_List_nod<CJurisdiction *,std::allocator<CJurisdiction *> >::_Node *>::construct
_TEXT	ENDS
PUBLIC	?destroy@?$allocator@PAU_Node@?$_List_nod@PAVCJurisdiction@@V?$allocator@PAVCJurisdiction@@@std@@@std@@@std@@QAEXPAPAU_Node@?$_List_nod@PAVCJurisdiction@@V?$allocator@PAVCJurisdiction@@@std@@@2@@Z ; std::allocator<std::_List_nod<CJurisdiction *,std::allocator<CJurisdiction *> >::_Node *>::destroy
; Function compile flags: /Ogty
;	COMDAT ?destroy@?$allocator@PAU_Node@?$_List_nod@PAVCJurisdiction@@V?$allocator@PAVCJurisdiction@@@std@@@std@@@std@@QAEXPAPAU_Node@?$_List_nod@PAVCJurisdiction@@V?$allocator@PAVCJurisdiction@@@std@@@2@@Z
_TEXT	SEGMENT
__Ptr$ = 8						; size = 4
?destroy@?$allocator@PAU_Node@?$_List_nod@PAVCJurisdiction@@V?$allocator@PAVCJurisdiction@@@std@@@std@@@std@@QAEXPAPAU_Node@?$_List_nod@PAVCJurisdiction@@V?$allocator@PAVCJurisdiction@@@std@@@2@@Z PROC NEAR ; std::allocator<std::_List_nod<CJurisdiction *,std::allocator<CJurisdiction *> >::_Node *>::destroy, COMDAT
; _this$ = ecx

; 152  : 		_Destroy(_Ptr);
; 153  : 		}

  00000	c2 04 00	 ret	 4
?destroy@?$allocator@PAU_Node@?$_List_nod@PAVCJurisdiction@@V?$allocator@PAVCJurisdiction@@@std@@@std@@@std@@QAEXPAPAU_Node@?$_List_nod@PAVCJurisdiction@@V?$allocator@PAVCJurisdiction@@@std@@@2@@Z ENDP ; std::allocator<std::_List_nod<CJurisdiction *,std::allocator<CJurisdiction *> >::_Node *>::destroy
_TEXT	ENDS
PUBLIC	?_Lbound@?$_Tree@V?$_Tmap_traits@KPAVCServerDesc@@U?$less@K@std@@V?$allocator@U?$pair@$$CBKPAVCServerDesc@@@std@@@3@$0A@@std@@@std@@IBEPAU_Node@?$_Tree_nod@V?$_Tmap_traits@KPAVCServerDesc@@U?$less@K@std@@V?$allocator@U?$pair@$$CBKPAVCServerDesc@@@std@@@3@$0A@@std@@@2@ABK@Z ; std::_Tree<std::_Tmap_traits<unsigned long,CServerDesc *,std::less<unsigned long>,std::allocator<std::pair<unsigned long const ,CServerDesc *> >,0> >::_Lbound
; Function compile flags: /Ogty
; File c:\program files\microsoft visual studio .net 2003\vc7\include\xtree
;	COMDAT ?_Lbound@?$_Tree@V?$_Tmap_traits@KPAVCServerDesc@@U?$less@K@std@@V?$allocator@U?$pair@$$CBKPAVCServerDesc@@@std@@@3@$0A@@std@@@std@@IBEPAU_Node@?$_Tree_nod@V?$_Tmap_traits@KPAVCServerDesc@@U?$less@K@std@@V?$allocator@U?$pair@$$CBKPAVCServerDesc@@@std@@@3@$0A@@std@@@2@ABK@Z
_TEXT	SEGMENT
__Keyval$ = 8						; size = 4
?_Lbound@?$_Tree@V?$_Tmap_traits@KPAVCServerDesc@@U?$less@K@std@@V?$allocator@U?$pair@$$CBKPAVCServerDesc@@@std@@@3@$0A@@std@@@std@@IBEPAU_Node@?$_Tree_nod@V?$_Tmap_traits@KPAVCServerDesc@@U?$less@K@std@@V?$allocator@U?$pair@$$CBKPAVCServerDesc@@@std@@@3@$0A@@std@@@2@ABK@Z PROC NEAR ; std::_Tree<std::_Tmap_traits<unsigned long,CServerDesc *,std::less<unsigned long>,std::allocator<std::pair<unsigned long const ,CServerDesc *> >,0> >::_Lbound, COMDAT
; _this$ = ecx

; 988  : 		_Nodeptr _Pnode = _Root();

  00000	8b 41 04	 mov	 eax, DWORD PTR [ecx+4]
  00003	8b 48 04	 mov	 ecx, DWORD PTR [eax+4]

; 989  : 		_Nodeptr _Wherenode = _Myhead;	// end() if search fails
; 990  : 
; 991  : 		while (!_Isnil(_Pnode))

  00006	8a 51 15	 mov	 dl, BYTE PTR [ecx+21]
  00009	84 d2		 test	 dl, dl
  0000b	75 1d		 jne	 SHORT $L226318
  0000d	8b 54 24 04	 mov	 edx, DWORD PTR __Keyval$[esp-4]
  00011	8b 12		 mov	 edx, DWORD PTR [edx]
  00013	53		 push	 ebx
$L226317:

; 992  : 			if (this->comp(_Key(_Pnode), _Keyval))

  00014	39 51 0c	 cmp	 DWORD PTR [ecx+12], edx
  00017	73 05		 jae	 SHORT $L226319

; 993  : 				_Pnode = _Right(_Pnode);	// descend right subtree

  00019	8b 49 08	 mov	 ecx, DWORD PTR [ecx+8]

; 994  : 			else

  0001c	eb 04		 jmp	 SHORT $L226320
$L226319:

; 995  : 				{	// _Pnode not less than _Keyval, remember it
; 996  : 				_Wherenode = _Pnode;

  0001e	8b c1		 mov	 eax, ecx

; 997  : 				_Pnode = _Left(_Pnode);	// descend left subtree

  00020	8b 09		 mov	 ecx, DWORD PTR [ecx]
$L226320:
  00022	8a 59 15	 mov	 bl, BYTE PTR [ecx+21]
  00025	84 db		 test	 bl, bl
  00027	74 eb		 je	 SHORT $L226317
  00029	5b		 pop	 ebx
$L226318:

; 998  : 				}
; 999  : 
; 1000 : 		return (_Wherenode);	// return best remembered candidate
; 1001 : 		}

  0002a	c2 04 00	 ret	 4
?_Lbound@?$_Tree@V?$_Tmap_traits@KPAVCServerDesc@@U?$less@K@std@@V?$allocator@U?$pair@$$CBKPAVCServerDesc@@@std@@@3@$0A@@std@@@std@@IBEPAU_Node@?$_Tree_nod@V?$_Tmap_traits@KPAVCServerDesc@@U?$less@K@std@@V?$allocator@U?$pair@$$CBKPAVCServerDesc@@@std@@@3@$0A@@std@@@2@ABK@Z ENDP ; std::_Tree<std::_Tmap_traits<unsigned long,CServerDesc *,std::less<unsigned long>,std::allocator<std::pair<unsigned long const ,CServerDesc *> >,0> >::_Lbound
_TEXT	ENDS
PUBLIC	?destroy@?$allocator@U_Node@?$_Tree_nod@V?$_Tmap_traits@KPAVCServerDesc@@U?$less@K@std@@V?$allocator@U?$pair@$$CBKPAVCServerDesc@@@std@@@3@$0A@@std@@@std@@@std@@QAEXPAU_Node@?$_Tree_nod@V?$_Tmap_traits@KPAVCServerDesc@@U?$less@K@std@@V?$allocator@U?$pair@$$CBKPAVCServerDesc@@@std@@@3@$0A@@std@@@2@@Z ; std::allocator<std::_Tree_nod<std::_Tmap_traits<unsigned long,CServerDesc *,std::less<unsigned long>,std::allocator<std::pair<unsigned long const ,CServerDesc *> >,0> >::_Node>::destroy
; Function compile flags: /Ogty
; File c:\program files\microsoft visual studio .net 2003\vc7\include\xmemory
;	COMDAT ?destroy@?$allocator@U_Node@?$_Tree_nod@V?$_Tmap_traits@KPAVCServerDesc@@U?$less@K@std@@V?$allocator@U?$pair@$$CBKPAVCServerDesc@@@std@@@3@$0A@@std@@@std@@@std@@QAEXPAU_Node@?$_Tree_nod@V?$_Tmap_traits@KPAVCServerDesc@@U?$less@K@std@@V?$allocator@U?$pair@$$CBKPAVCServerDesc@@@std@@@3@$0A@@std@@@2@@Z
_TEXT	SEGMENT
__Ptr$ = 8						; size = 4
?destroy@?$allocator@U_Node@?$_Tree_nod@V?$_Tmap_traits@KPAVCServerDesc@@U?$less@K@std@@V?$allocator@U?$pair@$$CBKPAVCServerDesc@@@std@@@3@$0A@@std@@@std@@@std@@QAEXPAU_Node@?$_Tree_nod@V?$_Tmap_traits@KPAVCServerDesc@@U?$less@K@std@@V?$allocator@U?$pair@$$CBKPAVCServerDesc@@@std@@@3@$0A@@std@@@2@@Z PROC NEAR ; std::allocator<std::_Tree_nod<std::_Tmap_traits<unsigned long,CServerDesc *,std::less<unsigned long>,std::allocator<std::pair<unsigned long const ,CServerDesc *> >,0> >::_Node>::destroy, COMDAT
; _this$ = ecx

; 152  : 		_Destroy(_Ptr);
; 153  : 		}

  00000	c2 04 00	 ret	 4
?destroy@?$allocator@U_Node@?$_Tree_nod@V?$_Tmap_traits@KPAVCServerDesc@@U?$less@K@std@@V?$allocator@U?$pair@$$CBKPAVCServerDesc@@@std@@@3@$0A@@std@@@std@@@std@@QAEXPAU_Node@?$_Tree_nod@V?$_Tmap_traits@KPAVCServerDesc@@U?$less@K@std@@V?$allocator@U?$pair@$$CBKPAVCServerDesc@@@std@@@3@$0A@@std@@@2@@Z ENDP ; std::allocator<std::_Tree_nod<std::_Tmap_traits<unsigned long,CServerDesc *,std::less<unsigned long>,std::allocator<std::pair<unsigned long const ,CServerDesc *> >,0> >::_Node>::destroy
_TEXT	ENDS
PUBLIC	?destroy@?$allocator@PAU_Node@?$_Tree_nod@V?$_Tmap_traits@KPAVCServerDesc@@U?$less@K@std@@V?$allocator@U?$pair@$$CBKPAVCServerDesc@@@std@@@3@$0A@@std@@@std@@@std@@QAEXPAPAU_Node@?$_Tree_nod@V?$_Tmap_traits@KPAVCServerDesc@@U?$less@K@std@@V?$allocator@U?$pair@$$CBKPAVCServerDesc@@@std@@@3@$0A@@std@@@2@@Z ; std::allocator<std::_Tree_nod<std::_Tmap_traits<unsigned long,CServerDesc *,std::less<unsigned long>,std::allocator<std::pair<unsigned long const ,CServerDesc *> >,0> >::_Node *>::destroy
; Function compile flags: /Ogty
;	COMDAT ?destroy@?$allocator@PAU_Node@?$_Tree_nod@V?$_Tmap_traits@KPAVCServerDesc@@U?$less@K@std@@V?$allocator@U?$pair@$$CBKPAVCServerDesc@@@std@@@3@$0A@@std@@@std@@@std@@QAEXPAPAU_Node@?$_Tree_nod@V?$_Tmap_traits@KPAVCServerDesc@@U?$less@K@std@@V?$allocator@U?$pair@$$CBKPAVCServerDesc@@@std@@@3@$0A@@std@@@2@@Z
_TEXT	SEGMENT
__Ptr$ = 8						; size = 4
?destroy@?$allocator@PAU_Node@?$_Tree_nod@V?$_Tmap_traits@KPAVCServerDesc@@U?$less@K@std@@V?$allocator@U?$pair@$$CBKPAVCServerDesc@@@std@@@3@$0A@@std@@@std@@@std@@QAEXPAPAU_Node@?$_Tree_nod@V?$_Tmap_traits@KPAVCServerDesc@@U?$less@K@std@@V?$allocator@U?$pair@$$CBKPAVCServerDesc@@@std@@@3@$0A@@std@@@2@@Z PROC NEAR ; std::allocator<std::_Tree_nod<std::_Tmap_traits<unsigned long,CServerDesc *,std::less<unsigned long>,std::allocator<std::pair<unsigned long const ,CServerDesc *> >,0> >::_Node *>::destroy, COMDAT
; _this$ = ecx

; 152  : 		_Destroy(_Ptr);
; 153  : 		}

  00000	c2 04 00	 ret	 4
?destroy@?$allocator@PAU_Node@?$_Tree_nod@V?$_Tmap_traits@KPAVCServerDesc@@U?$less@K@std@@V?$allocator@U?$pair@$$CBKPAVCServerDesc@@@std@@@3@$0A@@std@@@std@@@std@@QAEXPAPAU_Node@?$_Tree_nod@V?$_Tmap_traits@KPAVCServerDesc@@U?$less@K@std@@V?$allocator@U?$pair@$$CBKPAVCServerDesc@@@std@@@3@$0A@@std@@@2@@Z ENDP ; std::allocator<std::_Tree_nod<std::_Tmap_traits<unsigned long,CServerDesc *,std::less<unsigned long>,std::allocator<std::pair<unsigned long const ,CServerDesc *> >,0> >::_Node *>::destroy
_TEXT	ENDS
PUBLIC	??Eiterator@?$list@PAVCJurisdiction@@V?$allocator@PAVCJurisdiction@@@std@@@std@@QAE?AV012@H@Z ; std::list<CJurisdiction *,std::allocator<CJurisdiction *> >::iterator::operator++
; Function compile flags: /Ogty
; File c:\program files\microsoft visual studio .net 2003\vc7\include\list
;	COMDAT ??Eiterator@?$list@PAVCJurisdiction@@V?$allocator@PAVCJurisdiction@@@std@@@std@@QAE?AV012@H@Z
_TEXT	SEGMENT
___$ReturnUdt$ = 8					; size = 4
___formal$ = 12						; size = 4
??Eiterator@?$list@PAVCJurisdiction@@V?$allocator@PAVCJurisdiction@@@std@@@std@@QAE?AV012@H@Z PROC NEAR ; std::list<CJurisdiction *,std::allocator<CJurisdiction *> >::iterator::operator++, COMDAT
; _this$ = ecx

; 256  : 			iterator _Tmp = *this;

  00000	8b 11		 mov	 edx, DWORD PTR [ecx]

; 257  : 			++*this;

  00002	8b 02		 mov	 eax, DWORD PTR [edx]
  00004	89 01		 mov	 DWORD PTR [ecx], eax

; 258  : 			return (_Tmp);

  00006	8b 44 24 04	 mov	 eax, DWORD PTR ___$ReturnUdt$[esp-4]
  0000a	89 10		 mov	 DWORD PTR [eax], edx

; 259  : 			}

  0000c	c2 08 00	 ret	 8
??Eiterator@?$list@PAVCJurisdiction@@V?$allocator@PAVCJurisdiction@@@std@@@std@@QAE?AV012@H@Z ENDP ; std::list<CJurisdiction *,std::allocator<CJurisdiction *> >::iterator::operator++
_TEXT	ENDS
PUBLIC	?_Inc@const_iterator@?$_Tree@V?$_Tmap_traits@KPAVCServerDesc@@U?$less@K@std@@V?$allocator@U?$pair@$$CBKPAVCServerDesc@@@std@@@3@$0A@@std@@@std@@QAEXXZ ; std::_Tree<std::_Tmap_traits<unsigned long,CServerDesc *,std::less<unsigned long>,std::allocator<std::pair<unsigned long const ,CServerDesc *> >,0> >::const_iterator::_Inc
; Function compile flags: /Ogty
; File c:\program files\microsoft visual studio .net 2003\vc7\include\xtree
;	COMDAT ?_Inc@const_iterator@?$_Tree@V?$_Tmap_traits@KPAVCServerDesc@@U?$less@K@std@@V?$allocator@U?$pair@$$CBKPAVCServerDesc@@@std@@@3@$0A@@std@@@std@@QAEXXZ
_TEXT	SEGMENT
?_Inc@const_iterator@?$_Tree@V?$_Tmap_traits@KPAVCServerDesc@@U?$less@K@std@@V?$allocator@U?$pair@$$CBKPAVCServerDesc@@@std@@@3@$0A@@std@@@std@@QAEXXZ PROC NEAR ; std::_Tree<std::_Tmap_traits<unsigned long,CServerDesc *,std::less<unsigned long>,std::allocator<std::pair<unsigned long const ,CServerDesc *> >,0> >::const_iterator::_Inc, COMDAT
; _this$ = ecx

; 268  : 			if (_Isnil(_Ptr))

  00000	8b 01		 mov	 eax, DWORD PTR [ecx]
  00002	8a 50 15	 mov	 dl, BYTE PTR [eax+21]
  00005	84 d2		 test	 dl, dl
  00007	75 4d		 jne	 SHORT $L226362

; 269  : 				;	// end() shouldn't be incremented, don't move
; 270  : 			else if (!_Isnil(_Right(_Ptr)))

  00009	8b 50 08	 mov	 edx, DWORD PTR [eax+8]
  0000c	53		 push	 ebx
  0000d	8a 5a 15	 mov	 bl, BYTE PTR [edx+21]
  00010	84 db		 test	 bl, bl
  00012	75 1b		 jne	 SHORT $L228251

; 271  : 				_Ptr = _Min(_Right(_Ptr));	// ==> smallest of right subtree

  00014	8b 02		 mov	 eax, DWORD PTR [edx]
  00016	8a 58 15	 mov	 bl, BYTE PTR [eax+21]
  00019	84 db		 test	 bl, bl
  0001b	75 0e		 jne	 SHORT $L228232
  0001d	8d 49 00	 npad	 3
$L228231:
  00020	8b d0		 mov	 edx, eax
  00022	8b 02		 mov	 eax, DWORD PTR [edx]
  00024	8a 58 15	 mov	 bl, BYTE PTR [eax+21]
  00027	84 db		 test	 bl, bl
  00029	74 f5		 je	 SHORT $L228231
$L228232:
  0002b	89 11		 mov	 DWORD PTR [ecx], edx
  0002d	5b		 pop	 ebx

; 279  : 				}
; 280  : 			}

  0002e	c3		 ret	 0
$L228251:

; 272  : 			else
; 273  : 				{	// climb looking for right subtree
; 274  : 				_Nodeptr _Pnode;
; 275  : 				while (!_Isnil(_Pnode = _Parent(_Ptr))
; 276  : 					&& _Ptr == _Right(_Pnode))

  0002f	8b 40 04	 mov	 eax, DWORD PTR [eax+4]
  00032	8a 50 15	 mov	 dl, BYTE PTR [eax+21]
  00035	84 d2		 test	 dl, dl
  00037	75 1a		 jne	 SHORT $L226366
  00039	8d a4 24 00 00
	00 00		 npad	 7
$L226365:
  00040	8b 11		 mov	 edx, DWORD PTR [ecx]
  00042	3b 50 08	 cmp	 edx, DWORD PTR [eax+8]
  00045	75 0c		 jne	 SHORT $L226366

; 277  : 					_Ptr = _Pnode;	// ==> parent while right subtree

  00047	89 01		 mov	 DWORD PTR [ecx], eax
  00049	8b 40 04	 mov	 eax, DWORD PTR [eax+4]
  0004c	8a 50 15	 mov	 dl, BYTE PTR [eax+21]
  0004f	84 d2		 test	 dl, dl
  00051	74 ed		 je	 SHORT $L226365
$L226366:

; 278  : 				_Ptr = _Pnode;	// ==> parent (head if end())

  00053	89 01		 mov	 DWORD PTR [ecx], eax
  00055	5b		 pop	 ebx
$L226362:

; 279  : 				}
; 280  : 			}

  00056	c3		 ret	 0
?_Inc@const_iterator@?$_Tree@V?$_Tmap_traits@KPAVCServerDesc@@U?$less@K@std@@V?$allocator@U?$pair@$$CBKPAVCServerDesc@@@std@@@3@$0A@@std@@@std@@QAEXXZ ENDP ; std::_Tree<std::_Tmap_traits<unsigned long,CServerDesc *,std::less<unsigned long>,std::allocator<std::pair<unsigned long const ,CServerDesc *> >,0> >::const_iterator::_Inc
_TEXT	ENDS
PUBLIC	?max_size@?$list@PAVCJurisdiction@@V?$allocator@PAVCJurisdiction@@@std@@@std@@QBEIXZ ; std::list<CJurisdiction *,std::allocator<CJurisdiction *> >::max_size
; Function compile flags: /Ogty
; File c:\program files\microsoft visual studio .net 2003\vc7\include\list
;	COMDAT ?max_size@?$list@PAVCJurisdiction@@V?$allocator@PAVCJurisdiction@@@std@@@std@@QBEIXZ
_TEXT	SEGMENT
?max_size@?$list@PAVCJurisdiction@@V?$allocator@PAVCJurisdiction@@@std@@@std@@QBEIXZ PROC NEAR ; std::list<CJurisdiction *,std::allocator<CJurisdiction *> >::max_size, COMDAT
; _this$ = ecx

; 436  : 		return (this->_Alval.max_size());

  00000	b8 ff ff ff 3f	 mov	 eax, 1073741823		; 3fffffffH

; 437  : 		}

  00005	c3		 ret	 0
?max_size@?$list@PAVCJurisdiction@@V?$allocator@PAVCJurisdiction@@@std@@@std@@QBEIXZ ENDP ; std::list<CJurisdiction *,std::allocator<CJurisdiction *> >::max_size
_TEXT	ENDS
PUBLIC	??0?$_List_nod@PAVCJurisdiction@@V?$allocator@PAVCJurisdiction@@@std@@@std@@IAE@V?$allocator@PAVCJurisdiction@@@1@@Z ; std::_List_nod<CJurisdiction *,std::allocator<CJurisdiction *> >::_List_nod<CJurisdiction *,std::allocator<CJurisdiction *> >
; Function compile flags: /Ogty
;	COMDAT ??0?$_List_nod@PAVCJurisdiction@@V?$allocator@PAVCJurisdiction@@@std@@@std@@IAE@V?$allocator@PAVCJurisdiction@@@1@@Z
_TEXT	SEGMENT
__Al$ = 8						; size = 1
??0?$_List_nod@PAVCJurisdiction@@V?$allocator@PAVCJurisdiction@@@std@@@std@@IAE@V?$allocator@PAVCJurisdiction@@@1@@Z PROC NEAR ; std::_List_nod<CJurisdiction *,std::allocator<CJurisdiction *> >::_List_nod<CJurisdiction *,std::allocator<CJurisdiction *> >, COMDAT
; _this$ = ecx

; 44   : 		{	// construct allocator from _Al

  00000	8b c1		 mov	 eax, ecx

; 45   : 		}

  00002	c2 04 00	 ret	 4
??0?$_List_nod@PAVCJurisdiction@@V?$allocator@PAVCJurisdiction@@@std@@@std@@IAE@V?$allocator@PAVCJurisdiction@@@1@@Z ENDP ; std::_List_nod<CJurisdiction *,std::allocator<CJurisdiction *> >::_List_nod<CJurisdiction *,std::allocator<CJurisdiction *> >
_TEXT	ENDS
PUBLIC	?_Lrotate@?$_Tree@V?$_Tmap_traits@KPAVCServerDesc@@U?$less@K@std@@V?$allocator@U?$pair@$$CBKPAVCServerDesc@@@std@@@3@$0A@@std@@@std@@IAEXPAU_Node@?$_Tree_nod@V?$_Tmap_traits@KPAVCServerDesc@@U?$less@K@std@@V?$allocator@U?$pair@$$CBKPAVCServerDesc@@@std@@@3@$0A@@std@@@2@@Z ; std::_Tree<std::_Tmap_traits<unsigned long,CServerDesc *,std::less<unsigned long>,std::allocator<std::pair<unsigned long const ,CServerDesc *> >,0> >::_Lrotate
; Function compile flags: /Ogty
; File c:\program files\microsoft visual studio .net 2003\vc7\include\xtree
;	COMDAT ?_Lrotate@?$_Tree@V?$_Tmap_traits@KPAVCServerDesc@@U?$less@K@std@@V?$allocator@U?$pair@$$CBKPAVCServerDesc@@@std@@@3@$0A@@std@@@std@@IAEXPAU_Node@?$_Tree_nod@V?$_Tmap_traits@KPAVCServerDesc@@U?$less@K@std@@V?$allocator@U?$pair@$$CBKPAVCServerDesc@@@std@@@3@$0A@@std@@@2@@Z
_TEXT	SEGMENT
__Wherenode$ = 8					; size = 4
?_Lrotate@?$_Tree@V?$_Tmap_traits@KPAVCServerDesc@@U?$less@K@std@@V?$allocator@U?$pair@$$CBKPAVCServerDesc@@@std@@@3@$0A@@std@@@std@@IAEXPAU_Node@?$_Tree_nod@V?$_Tmap_traits@KPAVCServerDesc@@U?$less@K@std@@V?$allocator@U?$pair@$$CBKPAVCServerDesc@@@std@@@3@$0A@@std@@@2@@Z PROC NEAR ; std::_Tree<std::_Tmap_traits<unsigned long,CServerDesc *,std::less<unsigned long>,std::allocator<std::pair<unsigned long const ,CServerDesc *> >,0> >::_Lrotate, COMDAT
; _this$ = ecx

; 1015 : 		_Nodeptr _Pnode = _Right(_Wherenode);

  00000	8b 54 24 04	 mov	 edx, DWORD PTR __Wherenode$[esp-4]
  00004	8b 42 08	 mov	 eax, DWORD PTR [edx+8]
  00007	53		 push	 ebx
  00008	56		 push	 esi

; 1016 : 		_Right(_Wherenode) = _Left(_Pnode);

  00009	8b 30		 mov	 esi, DWORD PTR [eax]
  0000b	89 72 08	 mov	 DWORD PTR [edx+8], esi

; 1017 : 
; 1018 : 		if (!_Isnil(_Left(_Pnode)))

  0000e	8b 30		 mov	 esi, DWORD PTR [eax]
  00010	8a 5e 15	 mov	 bl, BYTE PTR [esi+21]
  00013	84 db		 test	 bl, bl
  00015	75 03		 jne	 SHORT $L226474

; 1019 : 			_Parent(_Left(_Pnode)) = _Wherenode;

  00017	89 56 04	 mov	 DWORD PTR [esi+4], edx
$L226474:

; 1020 : 		_Parent(_Pnode) = _Parent(_Wherenode);

  0001a	8b 72 04	 mov	 esi, DWORD PTR [edx+4]
  0001d	89 70 04	 mov	 DWORD PTR [eax+4], esi

; 1021 : 
; 1022 : 		if (_Wherenode == _Root())

  00020	8b 49 04	 mov	 ecx, DWORD PTR [ecx+4]
  00023	3b 51 04	 cmp	 edx, DWORD PTR [ecx+4]
  00026	75 0d		 jne	 SHORT $L226475

; 1023 : 			_Root() = _Pnode;

  00028	89 41 04	 mov	 DWORD PTR [ecx+4], eax
  0002b	5e		 pop	 esi

; 1028 : 
; 1029 : 		_Left(_Pnode) = _Wherenode;

  0002c	89 10		 mov	 DWORD PTR [eax], edx

; 1030 : 		_Parent(_Wherenode) = _Pnode;

  0002e	89 42 04	 mov	 DWORD PTR [edx+4], eax
  00031	5b		 pop	 ebx

; 1031 : 		}

  00032	c2 04 00	 ret	 4
$L226475:

; 1024 : 		else if (_Wherenode == _Left(_Parent(_Wherenode)))

  00035	8b 4a 04	 mov	 ecx, DWORD PTR [edx+4]
  00038	3b 11		 cmp	 edx, DWORD PTR [ecx]
  0003a	75 0c		 jne	 SHORT $L226477

; 1025 : 			_Left(_Parent(_Wherenode)) = _Pnode;

  0003c	89 01		 mov	 DWORD PTR [ecx], eax
  0003e	5e		 pop	 esi

; 1028 : 
; 1029 : 		_Left(_Pnode) = _Wherenode;

  0003f	89 10		 mov	 DWORD PTR [eax], edx

; 1030 : 		_Parent(_Wherenode) = _Pnode;

  00041	89 42 04	 mov	 DWORD PTR [edx+4], eax
  00044	5b		 pop	 ebx

; 1031 : 		}

  00045	c2 04 00	 ret	 4
$L226477:

; 1026 : 		else
; 1027 : 			_Right(_Parent(_Wherenode)) = _Pnode;

  00048	89 41 08	 mov	 DWORD PTR [ecx+8], eax
  0004b	5e		 pop	 esi

; 1028 : 
; 1029 : 		_Left(_Pnode) = _Wherenode;

  0004c	89 10		 mov	 DWORD PTR [eax], edx

; 1030 : 		_Parent(_Wherenode) = _Pnode;

  0004e	89 42 04	 mov	 DWORD PTR [edx+4], eax
  00051	5b		 pop	 ebx

; 1031 : 		}

  00052	c2 04 00	 ret	 4
?_Lrotate@?$_Tree@V?$_Tmap_traits@KPAVCServerDesc@@U?$less@K@std@@V?$allocator@U?$pair@$$CBKPAVCServerDesc@@@std@@@3@$0A@@std@@@std@@IAEXPAU_Node@?$_Tree_nod@V?$_Tmap_traits@KPAVCServerDesc@@U?$less@K@std@@V?$allocator@U?$pair@$$CBKPAVCServerDesc@@@std@@@3@$0A@@std@@@2@@Z ENDP ; std::_Tree<std::_Tmap_traits<unsigned long,CServerDesc *,std::less<unsigned long>,std::allocator<std::pair<unsigned long const ,CServerDesc *> >,0> >::_Lrotate
_TEXT	ENDS
PUBLIC	?_Rrotate@?$_Tree@V?$_Tmap_traits@KPAVCServerDesc@@U?$less@K@std@@V?$allocator@U?$pair@$$CBKPAVCServerDesc@@@std@@@3@$0A@@std@@@std@@IAEXPAU_Node@?$_Tree_nod@V?$_Tmap_traits@KPAVCServerDesc@@U?$less@K@std@@V?$allocator@U?$pair@$$CBKPAVCServerDesc@@@std@@@3@$0A@@std@@@2@@Z ; std::_Tree<std::_Tmap_traits<unsigned long,CServerDesc *,std::less<unsigned long>,std::allocator<std::pair<unsigned long const ,CServerDesc *> >,0> >::_Rrotate
; Function compile flags: /Ogty
;	COMDAT ?_Rrotate@?$_Tree@V?$_Tmap_traits@KPAVCServerDesc@@U?$less@K@std@@V?$allocator@U?$pair@$$CBKPAVCServerDesc@@@std@@@3@$0A@@std@@@std@@IAEXPAU_Node@?$_Tree_nod@V?$_Tmap_traits@KPAVCServerDesc@@U?$less@K@std@@V?$allocator@U?$pair@$$CBKPAVCServerDesc@@@std@@@3@$0A@@std@@@2@@Z
_TEXT	SEGMENT
__Wherenode$ = 8					; size = 4
?_Rrotate@?$_Tree@V?$_Tmap_traits@KPAVCServerDesc@@U?$less@K@std@@V?$allocator@U?$pair@$$CBKPAVCServerDesc@@@std@@@3@$0A@@std@@@std@@IAEXPAU_Node@?$_Tree_nod@V?$_Tmap_traits@KPAVCServerDesc@@U?$less@K@std@@V?$allocator@U?$pair@$$CBKPAVCServerDesc@@@std@@@3@$0A@@std@@@2@@Z PROC NEAR ; std::_Tree<std::_Tmap_traits<unsigned long,CServerDesc *,std::less<unsigned long>,std::allocator<std::pair<unsigned long const ,CServerDesc *> >,0> >::_Rrotate, COMDAT
; _this$ = ecx

; 1069 : 		_Nodeptr _Pnode = _Left(_Wherenode);

  00000	8b 54 24 04	 mov	 edx, DWORD PTR __Wherenode$[esp-4]
  00004	8b 02		 mov	 eax, DWORD PTR [edx]
  00006	53		 push	 ebx
  00007	56		 push	 esi

; 1070 : 		_Left(_Wherenode) = _Right(_Pnode);

  00008	8b 70 08	 mov	 esi, DWORD PTR [eax+8]
  0000b	89 32		 mov	 DWORD PTR [edx], esi

; 1071 : 
; 1072 : 		if (!_Isnil(_Right(_Pnode)))

  0000d	8b 70 08	 mov	 esi, DWORD PTR [eax+8]
  00010	8a 5e 15	 mov	 bl, BYTE PTR [esi+21]
  00013	84 db		 test	 bl, bl
  00015	75 03		 jne	 SHORT $L226486

; 1073 : 			_Parent(_Right(_Pnode)) = _Wherenode;

  00017	89 56 04	 mov	 DWORD PTR [esi+4], edx
$L226486:

; 1074 : 		_Parent(_Pnode) = _Parent(_Wherenode);

  0001a	8b 72 04	 mov	 esi, DWORD PTR [edx+4]
  0001d	89 70 04	 mov	 DWORD PTR [eax+4], esi

; 1075 : 
; 1076 : 		if (_Wherenode == _Root())

  00020	8b 49 04	 mov	 ecx, DWORD PTR [ecx+4]
  00023	3b 51 04	 cmp	 edx, DWORD PTR [ecx+4]
  00026	75 0e		 jne	 SHORT $L226487

; 1077 : 			_Root() = _Pnode;

  00028	89 41 04	 mov	 DWORD PTR [ecx+4], eax
  0002b	5e		 pop	 esi

; 1082 : 
; 1083 : 		_Right(_Pnode) = _Wherenode;

  0002c	89 50 08	 mov	 DWORD PTR [eax+8], edx

; 1084 : 		_Parent(_Wherenode) = _Pnode;

  0002f	89 42 04	 mov	 DWORD PTR [edx+4], eax
  00032	5b		 pop	 ebx

; 1085 : 		}

  00033	c2 04 00	 ret	 4
$L226487:

; 1078 : 		else if (_Wherenode == _Right(_Parent(_Wherenode)))

  00036	8b 4a 04	 mov	 ecx, DWORD PTR [edx+4]
  00039	3b 51 08	 cmp	 edx, DWORD PTR [ecx+8]
  0003c	75 0e		 jne	 SHORT $L226489

; 1079 : 			_Right(_Parent(_Wherenode)) = _Pnode;

  0003e	89 41 08	 mov	 DWORD PTR [ecx+8], eax
  00041	5e		 pop	 esi

; 1082 : 
; 1083 : 		_Right(_Pnode) = _Wherenode;

  00042	89 50 08	 mov	 DWORD PTR [eax+8], edx

; 1084 : 		_Parent(_Wherenode) = _Pnode;

  00045	89 42 04	 mov	 DWORD PTR [edx+4], eax
  00048	5b		 pop	 ebx

; 1085 : 		}

  00049	c2 04 00	 ret	 4
$L226489:

; 1080 : 		else
; 1081 : 			_Left(_Parent(_Wherenode)) = _Pnode;

  0004c	89 01		 mov	 DWORD PTR [ecx], eax
  0004e	5e		 pop	 esi

; 1082 : 
; 1083 : 		_Right(_Pnode) = _Wherenode;

  0004f	89 50 08	 mov	 DWORD PTR [eax+8], edx

; 1084 : 		_Parent(_Wherenode) = _Pnode;

  00052	89 42 04	 mov	 DWORD PTR [edx+4], eax
  00055	5b		 pop	 ebx

; 1085 : 		}

  00056	c2 04 00	 ret	 4
?_Rrotate@?$_Tree@V?$_Tmap_traits@KPAVCServerDesc@@U?$less@K@std@@V?$allocator@U?$pair@$$CBKPAVCServerDesc@@@std@@@3@$0A@@std@@@std@@IAEXPAU_Node@?$_Tree_nod@V?$_Tmap_traits@KPAVCServerDesc@@U?$less@K@std@@V?$allocator@U?$pair@$$CBKPAVCServerDesc@@@std@@@3@$0A@@std@@@2@@Z ENDP ; std::_Tree<std::_Tmap_traits<unsigned long,CServerDesc *,std::less<unsigned long>,std::allocator<std::pair<unsigned long const ,CServerDesc *> >,0> >::_Rrotate
_TEXT	ENDS
PUBLIC	??0?$_Tree_nod@V?$_Tmap_traits@KPAVCServerDesc@@U?$less@K@std@@V?$allocator@U?$pair@$$CBKPAVCServerDesc@@@std@@@3@$0A@@std@@@std@@IAE@ABU?$less@K@1@V?$allocator@U?$pair@$$CBKPAVCServerDesc@@@std@@@1@@Z ; std::_Tree_nod<std::_Tmap_traits<unsigned long,CServerDesc *,std::less<unsigned long>,std::allocator<std::pair<unsigned long const ,CServerDesc *> >,0> >::_Tree_nod<std::_Tmap_traits<unsigned long,CServerDesc *,std::less<unsigned long>,std::allocator<std::pair<unsigned long const ,CServerDesc *> >,0> >
; Function compile flags: /Ogty
;	COMDAT ??0?$_Tree_nod@V?$_Tmap_traits@KPAVCServerDesc@@U?$less@K@std@@V?$allocator@U?$pair@$$CBKPAVCServerDesc@@@std@@@3@$0A@@std@@@std@@IAE@ABU?$less@K@1@V?$allocator@U?$pair@$$CBKPAVCServerDesc@@@std@@@1@@Z
_TEXT	SEGMENT
__Parg$ = 8						; size = 4
__Al$ = 12						; size = 1
??0?$_Tree_nod@V?$_Tmap_traits@KPAVCServerDesc@@U?$less@K@std@@V?$allocator@U?$pair@$$CBKPAVCServerDesc@@@std@@@3@$0A@@std@@@std@@IAE@ABU?$less@K@1@V?$allocator@U?$pair@$$CBKPAVCServerDesc@@@std@@@1@@Z PROC NEAR ; std::_Tree_nod<std::_Tmap_traits<unsigned long,CServerDesc *,std::less<unsigned long>,std::allocator<std::pair<unsigned long const ,CServerDesc *> >,0> >::_Tree_nod<std::_Tmap_traits<unsigned long,CServerDesc *,std::less<unsigned long>,std::allocator<std::pair<unsigned long const ,CServerDesc *> >,0> >, COMDAT
; _this$ = ecx

; 54   : 		{	// construct traits from _Parg and allocator from _Al

  00000	8b c1		 mov	 eax, ecx

; 55   : 		}

  00002	c2 08 00	 ret	 8
??0?$_Tree_nod@V?$_Tmap_traits@KPAVCServerDesc@@U?$less@K@std@@V?$allocator@U?$pair@$$CBKPAVCServerDesc@@@std@@@3@$0A@@std@@@std@@IAE@ABU?$less@K@1@V?$allocator@U?$pair@$$CBKPAVCServerDesc@@@std@@@1@@Z ENDP ; std::_Tree_nod<std::_Tmap_traits<unsigned long,CServerDesc *,std::less<unsigned long>,std::allocator<std::pair<unsigned long const ,CServerDesc *> >,0> >::_Tree_nod<std::_Tmap_traits<unsigned long,CServerDesc *,std::less<unsigned long>,std::allocator<std::pair<unsigned long const ,CServerDesc *> >,0> >
_TEXT	ENDS
PUBLIC	?allocate@?$allocator@U_Node@?$_Tree_nod@V?$_Tmap_traits@KPAVCServerDesc@@U?$less@K@std@@V?$allocator@U?$pair@$$CBKPAVCServerDesc@@@std@@@3@$0A@@std@@@std@@@std@@QAEPAU_Node@?$_Tree_nod@V?$_Tmap_traits@KPAVCServerDesc@@U?$less@K@std@@V?$allocator@U?$pair@$$CBKPAVCServerDesc@@@std@@@3@$0A@@std@@@2@I@Z ; std::allocator<std::_Tree_nod<std::_Tmap_traits<unsigned long,CServerDesc *,std::less<unsigned long>,std::allocator<std::pair<unsigned long const ,CServerDesc *> >,0> >::_Node>::allocate
; Function compile flags: /Ogty
; File c:\program files\microsoft visual studio .net 2003\vc7\include\xmemory
;	COMDAT ?allocate@?$allocator@U_Node@?$_Tree_nod@V?$_Tmap_traits@KPAVCServerDesc@@U?$less@K@std@@V?$allocator@U?$pair@$$CBKPAVCServerDesc@@@std@@@3@$0A@@std@@@std@@@std@@QAEPAU_Node@?$_Tree_nod@V?$_Tmap_traits@KPAVCServerDesc@@U?$less@K@std@@V?$allocator@U?$pair@$$CBKPAVCServerDesc@@@std@@@3@$0A@@std@@@2@I@Z
_TEXT	SEGMENT
__Count$ = 8						; size = 4
?allocate@?$allocator@U_Node@?$_Tree_nod@V?$_Tmap_traits@KPAVCServerDesc@@U?$less@K@std@@V?$allocator@U?$pair@$$CBKPAVCServerDesc@@@std@@@3@$0A@@std@@@std@@@std@@QAEPAU_Node@?$_Tree_nod@V?$_Tmap_traits@KPAVCServerDesc@@U?$less@K@std@@V?$allocator@U?$pair@$$CBKPAVCServerDesc@@@std@@@3@$0A@@std@@@2@I@Z PROC NEAR ; std::allocator<std::_Tree_nod<std::_Tmap_traits<unsigned long,CServerDesc *,std::less<unsigned long>,std::allocator<std::pair<unsigned long const ,CServerDesc *> >,0> >::_Node>::allocate, COMDAT
; _this$ = ecx

; 137  : 		return (_Allocate(_Count, (pointer)0));

  00000	8b 44 24 04	 mov	 eax, DWORD PTR __Count$[esp-4]
  00004	8d 04 40	 lea	 eax, DWORD PTR [eax+eax*2]
  00007	c1 e0 03	 shl	 eax, 3
  0000a	50		 push	 eax
  0000b	e8 00 00 00 00	 call	 ??2@YAPAXI@Z		; operator new
  00010	83 c4 04	 add	 esp, 4

; 138  : 		}

  00013	c2 04 00	 ret	 4
?allocate@?$allocator@U_Node@?$_Tree_nod@V?$_Tmap_traits@KPAVCServerDesc@@U?$less@K@std@@V?$allocator@U?$pair@$$CBKPAVCServerDesc@@@std@@@3@$0A@@std@@@std@@@std@@QAEPAU_Node@?$_Tree_nod@V?$_Tmap_traits@KPAVCServerDesc@@U?$less@K@std@@V?$allocator@U?$pair@$$CBKPAVCServerDesc@@@std@@@3@$0A@@std@@@2@I@Z ENDP ; std::allocator<std::_Tree_nod<std::_Tmap_traits<unsigned long,CServerDesc *,std::less<unsigned long>,std::allocator<std::pair<unsigned long const ,CServerDesc *> >,0> >::_Node>::allocate
_TEXT	ENDS
PUBLIC	?construct@?$allocator@PAU_Node@?$_Tree_nod@V?$_Tmap_traits@KPAVCServerDesc@@U?$less@K@std@@V?$allocator@U?$pair@$$CBKPAVCServerDesc@@@std@@@3@$0A@@std@@@std@@@std@@QAEXPAPAU_Node@?$_Tree_nod@V?$_Tmap_traits@KPAVCServerDesc@@U?$less@K@std@@V?$allocator@U?$pair@$$CBKPAVCServerDesc@@@std@@@3@$0A@@std@@@2@ABQAU342@@Z ; std::allocator<std::_Tree_nod<std::_Tmap_traits<unsigned long,CServerDesc *,std::less<unsigned long>,std::allocator<std::pair<unsigned long const ,CServerDesc *> >,0> >::_Node *>::construct
; Function compile flags: /Ogty
;	COMDAT ?construct@?$allocator@PAU_Node@?$_Tree_nod@V?$_Tmap_traits@KPAVCServerDesc@@U?$less@K@std@@V?$allocator@U?$pair@$$CBKPAVCServerDesc@@@std@@@3@$0A@@std@@@std@@@std@@QAEXPAPAU_Node@?$_Tree_nod@V?$_Tmap_traits@KPAVCServerDesc@@U?$less@K@std@@V?$allocator@U?$pair@$$CBKPAVCServerDesc@@@std@@@3@$0A@@std@@@2@ABQAU342@@Z
_TEXT	SEGMENT
__Ptr$ = 8						; size = 4
__Val$ = 12						; size = 4
?construct@?$allocator@PAU_Node@?$_Tree_nod@V?$_Tmap_traits@KPAVCServerDesc@@U?$less@K@std@@V?$allocator@U?$pair@$$CBKPAVCServerDesc@@@std@@@3@$0A@@std@@@std@@@std@@QAEXPAPAU_Node@?$_Tree_nod@V?$_Tmap_traits@KPAVCServerDesc@@U?$less@K@std@@V?$allocator@U?$pair@$$CBKPAVCServerDesc@@@std@@@3@$0A@@std@@@2@ABQAU342@@Z PROC NEAR ; std::allocator<std::_Tree_nod<std::_Tmap_traits<unsigned long,CServerDesc *,std::less<unsigned long>,std::allocator<std::pair<unsigned long const ,CServerDesc *> >,0> >::_Node *>::construct, COMDAT
; _this$ = ecx

; 147  : 		_Construct(_Ptr, _Val);

  00000	8b 44 24 04	 mov	 eax, DWORD PTR __Ptr$[esp-4]
  00004	85 c0		 test	 eax, eax
  00006	74 08		 je	 SHORT $L228444
  00008	8b 4c 24 08	 mov	 ecx, DWORD PTR __Val$[esp-4]
  0000c	8b 11		 mov	 edx, DWORD PTR [ecx]
  0000e	89 10		 mov	 DWORD PTR [eax], edx
$L228444:

; 148  : 		}

  00010	c2 08 00	 ret	 8
?construct@?$allocator@PAU_Node@?$_Tree_nod@V?$_Tmap_traits@KPAVCServerDesc@@U?$less@K@std@@V?$allocator@U?$pair@$$CBKPAVCServerDesc@@@std@@@3@$0A@@std@@@std@@@std@@QAEXPAPAU_Node@?$_Tree_nod@V?$_Tmap_traits@KPAVCServerDesc@@U?$less@K@std@@V?$allocator@U?$pair@$$CBKPAVCServerDesc@@@std@@@3@$0A@@std@@@2@ABQAU342@@Z ENDP ; std::allocator<std::_Tree_nod<std::_Tmap_traits<unsigned long,CServerDesc *,std::less<unsigned long>,std::allocator<std::pair<unsigned long const ,CServerDesc *> >,0> >::_Node *>::construct
_TEXT	ENDS
PUBLIC	??6CAr@@QAEAAV0@F@Z				; CAr::operator<<
; Function compile flags: /Ogty
; File c:\documents and settings\test\mes documents\source\virtuos_v17\build\program\_network\misc\include\ar.h
;	COMDAT ??6CAr@@QAEAAV0@F@Z
_TEXT	SEGMENT
_w$ = 8							; size = 2
??6CAr@@QAEAAV0@F@Z PROC NEAR				; CAr::operator<<, COMDAT
; _this$ = ecx

; 103  : 	{ return CAr::operator<<((WORD)w); }

  00000	56		 push	 esi
  00001	6a 02		 push	 2
  00003	8b f1		 mov	 esi, ecx
  00005	e8 00 00 00 00	 call	 ?CheckBuf@CAr@@QAEXI@Z	; CAr::CheckBuf
  0000a	8b 46 08	 mov	 eax, DWORD PTR [esi+8]
  0000d	66 8b 4c 24 08	 mov	 cx, WORD PTR _w$[esp]
  00012	66 89 08	 mov	 WORD PTR [eax], cx
  00015	83 46 08 02	 add	 DWORD PTR [esi+8], 2
  00019	8b c6		 mov	 eax, esi
  0001b	5e		 pop	 esi
  0001c	c2 04 00	 ret	 4
??6CAr@@QAEAAV0@F@Z ENDP				; CAr::operator<<
_TEXT	ENDS
PUBLIC	??5CAr@@QAEAAV0@AAF@Z				; CAr::operator>>
; Function compile flags: /Ogty
;	COMDAT ??5CAr@@QAEAAV0@AAF@Z
_TEXT	SEGMENT
_w$ = 8							; size = 4
??5CAr@@QAEAAV0@AAF@Z PROC NEAR				; CAr::operator>>, COMDAT
; _this$ = ecx

; 130  : 	{ return CAr::operator>>((WORD&)w); }

  00000	8b c1		 mov	 eax, ecx
  00002	8b 48 08	 mov	 ecx, DWORD PTR [eax+8]
  00005	56		 push	 esi
  00006	8b 70 0c	 mov	 esi, DWORD PTR [eax+12]
  00009	8d 51 02	 lea	 edx, DWORD PTR [ecx+2]
  0000c	3b d6		 cmp	 edx, esi
  0000e	5e		 pop	 esi
  0000f	77 11		 ja	 SHORT $L228461
  00011	66 8b 09	 mov	 cx, WORD PTR [ecx]
  00014	8b 54 24 04	 mov	 edx, DWORD PTR _w$[esp-4]
  00018	66 89 0a	 mov	 WORD PTR [edx], cx
  0001b	83 40 08 02	 add	 DWORD PTR [eax+8], 2
  0001f	c2 04 00	 ret	 4
$L228461:
  00022	8b 4c 24 04	 mov	 ecx, DWORD PTR _w$[esp-4]
  00026	66 c7 01 00 00	 mov	 WORD PTR [ecx], 0
  0002b	8b 50 0c	 mov	 edx, DWORD PTR [eax+12]
  0002e	89 50 08	 mov	 DWORD PTR [eax+8], edx
  00031	c2 04 00	 ret	 4
??5CAr@@QAEAAV0@AAF@Z ENDP				; CAr::operator>>
_TEXT	ENDS
PUBLIC	??0?$_String_val@DV?$allocator@D@std@@@std@@IAE@V?$allocator@D@1@@Z ; std::_String_val<char,std::allocator<char> >::_String_val<char,std::allocator<char> >
; Function compile flags: /Ogty
; File c:\program files\microsoft visual studio .net 2003\vc7\include\xstring
;	COMDAT ??0?$_String_val@DV?$allocator@D@std@@@std@@IAE@V?$allocator@D@1@@Z
_TEXT	SEGMENT
__Al$ = 8						; size = 1
??0?$_String_val@DV?$allocator@D@std@@@std@@IAE@V?$allocator@D@1@@Z PROC NEAR ; std::_String_val<char,std::allocator<char> >::_String_val<char,std::allocator<char> >, COMDAT
; _this$ = ecx

; 34   : 		{	// construct allocator from _Al

  00000	8b c1		 mov	 eax, ecx

; 35   : 		}

  00002	c2 04 00	 ret	 4
??0?$_String_val@DV?$allocator@D@std@@@std@@IAE@V?$allocator@D@1@@Z ENDP ; std::_String_val<char,std::allocator<char> >::_String_val<char,std::allocator<char> >
_TEXT	ENDS
PUBLIC	?_Eos@?$basic_string@DU?$char_traits@D@std@@V?$allocator@D@2@@std@@IAEXI@Z ; std::basic_string<char,std::char_traits<char>,std::allocator<char> >::_Eos
; Function compile flags: /Ogty
;	COMDAT ?_Eos@?$basic_string@DU?$char_traits@D@std@@V?$allocator@D@2@@std@@IAEXI@Z
_TEXT	SEGMENT
__Newsize$ = 8						; size = 4
?_Eos@?$basic_string@DU?$char_traits@D@std@@V?$allocator@D@2@@std@@IAEXI@Z PROC NEAR ; std::basic_string<char,std::char_traits<char>,std::allocator<char> >::_Eos, COMDAT
; _this$ = ecx

; 1475 : 		_Traits::assign(_Myptr()[_Mysize = _Newsize], _Elem());

  00000	83 79 18 10	 cmp	 DWORD PTR [ecx+24], 16	; 00000010H
  00004	8b 44 24 04	 mov	 eax, DWORD PTR __Newsize$[esp-4]
  00008	89 41 14	 mov	 DWORD PTR [ecx+20], eax
  0000b	72 0a		 jb	 SHORT $L228477
  0000d	8b 49 04	 mov	 ecx, DWORD PTR [ecx+4]
  00010	c6 04 01 00	 mov	 BYTE PTR [ecx+eax], 0

; 1476 : 		}

  00014	c2 04 00	 ret	 4

; 1475 : 		_Traits::assign(_Myptr()[_Mysize = _Newsize], _Elem());

$L228477:
  00017	c6 44 01 04 00	 mov	 BYTE PTR [ecx+eax+4], 0

; 1476 : 		}

  0001c	c2 04 00	 ret	 4
?_Eos@?$basic_string@DU?$char_traits@D@std@@V?$allocator@D@2@@std@@IAEXI@Z ENDP ; std::basic_string<char,std::char_traits<char>,std::allocator<char> >::_Eos
_TEXT	ENDS
PUBLIC	?max_size@?$basic_string@DU?$char_traits@D@std@@V?$allocator@D@2@@std@@QBEIXZ ; std::basic_string<char,std::char_traits<char>,std::allocator<char> >::max_size
; Function compile flags: /Ogty
;	COMDAT ?max_size@?$basic_string@DU?$char_traits@D@std@@V?$allocator@D@2@@std@@QBEIXZ
_TEXT	SEGMENT
?max_size@?$basic_string@DU?$char_traits@D@std@@V?$allocator@D@2@@std@@QBEIXZ PROC NEAR ; std::basic_string<char,std::char_traits<char>,std::allocator<char> >::max_size, COMDAT
; _this$ = ecx

; 1114 : 		size_type _Num = _Mybase::_Alval.max_size();
; 1115 : 		return (_Num <= 1 ? 1 : _Num - 1);

  00000	b8 fe ff ff ff	 mov	 eax, -2			; fffffffeH

; 1116 : 		}

  00005	c3		 ret	 0
?max_size@?$basic_string@DU?$char_traits@D@std@@V?$allocator@D@2@@std@@QBEIXZ ENDP ; std::basic_string<char,std::char_traits<char>,std::allocator<char> >::max_size
_TEXT	ENDS
PUBLIC	?allocate@?$allocator@D@std@@QAEPADI@Z		; std::allocator<char>::allocate
; Function compile flags: /Ogty
; File c:\program files\microsoft visual studio .net 2003\vc7\include\xmemory
;	COMDAT ?allocate@?$allocator@D@std@@QAEPADI@Z
_TEXT	SEGMENT
__Count$ = 8						; size = 4
?allocate@?$allocator@D@std@@QAEPADI@Z PROC NEAR	; std::allocator<char>::allocate, COMDAT
; _this$ = ecx

; 137  : 		return (_Allocate(_Count, (pointer)0));

  00000	8b 44 24 04	 mov	 eax, DWORD PTR __Count$[esp-4]
  00004	50		 push	 eax
  00005	e8 00 00 00 00	 call	 ??2@YAPAXI@Z		; operator new
  0000a	83 c4 04	 add	 esp, 4

; 138  : 		}

  0000d	c2 04 00	 ret	 4
?allocate@?$allocator@D@std@@QAEPADI@Z ENDP		; std::allocator<char>::allocate
_TEXT	ENDS
PUBLIC	?begin@?$list@PAVCJurisdiction@@V?$allocator@PAVCJurisdiction@@@std@@@std@@QAE?AViterator@12@XZ ; std::list<CJurisdiction *,std::allocator<CJurisdiction *> >::begin
; Function compile flags: /Ogty
; File c:\program files\microsoft visual studio .net 2003\vc7\include\list
;	COMDAT ?begin@?$list@PAVCJurisdiction@@V?$allocator@PAVCJurisdiction@@@std@@@std@@QAE?AViterator@12@XZ
_TEXT	SEGMENT
___$ReturnUdt$ = 8					; size = 4
?begin@?$list@PAVCJurisdiction@@V?$allocator@PAVCJurisdiction@@@std@@@std@@QAE?AViterator@12@XZ PROC NEAR ; std::list<CJurisdiction *,std::allocator<CJurisdiction *> >::begin, COMDAT
; _this$ = ecx

; 377  : 		return (iterator(_Nextnode(_Myhead)));

  00000	8b 41 04	 mov	 eax, DWORD PTR [ecx+4]
  00003	8b 08		 mov	 ecx, DWORD PTR [eax]
  00005	8b 44 24 04	 mov	 eax, DWORD PTR ___$ReturnUdt$[esp-4]
  00009	89 08		 mov	 DWORD PTR [eax], ecx

; 378  : 		}

  0000b	c2 04 00	 ret	 4
?begin@?$list@PAVCJurisdiction@@V?$allocator@PAVCJurisdiction@@@std@@@std@@QAE?AViterator@12@XZ ENDP ; std::list<CJurisdiction *,std::allocator<CJurisdiction *> >::begin
_TEXT	ENDS
PUBLIC	?end@?$list@PAVCJurisdiction@@V?$allocator@PAVCJurisdiction@@@std@@@std@@QAE?AViterator@12@XZ ; std::list<CJurisdiction *,std::allocator<CJurisdiction *> >::end
; Function compile flags: /Ogty
;	COMDAT ?end@?$list@PAVCJurisdiction@@V?$allocator@PAVCJurisdiction@@@std@@@std@@QAE?AViterator@12@XZ
_TEXT	SEGMENT
___$ReturnUdt$ = 8					; size = 4
?end@?$list@PAVCJurisdiction@@V?$allocator@PAVCJurisdiction@@@std@@@std@@QAE?AViterator@12@XZ PROC NEAR ; std::list<CJurisdiction *,std::allocator<CJurisdiction *> >::end, COMDAT
; _this$ = ecx

; 387  : 		return (iterator(_Myhead));

  00000	8b 49 04	 mov	 ecx, DWORD PTR [ecx+4]
  00003	8b 44 24 04	 mov	 eax, DWORD PTR ___$ReturnUdt$[esp-4]
  00007	89 08		 mov	 DWORD PTR [eax], ecx

; 388  : 		}

  00009	c2 04 00	 ret	 4
?end@?$list@PAVCJurisdiction@@V?$allocator@PAVCJurisdiction@@@std@@@std@@QAE?AViterator@12@XZ ENDP ; std::list<CJurisdiction *,std::allocator<CJurisdiction *> >::end
_TEXT	ENDS
PUBLIC	?begin@?$_Tree@V?$_Tmap_traits@KPAVCServerDesc@@U?$less@K@std@@V?$allocator@U?$pair@$$CBKPAVCServerDesc@@@std@@@3@$0A@@std@@@std@@QAE?AViterator@12@XZ ; std::_Tree<std::_Tmap_traits<unsigned long,CServerDesc *,std::less<unsigned long>,std::allocator<std::pair<unsigned long const ,CServerDesc *> >,0> >::begin
; Function compile flags: /Ogty
; File c:\program files\microsoft visual studio .net 2003\vc7\include\xtree
;	COMDAT ?begin@?$_Tree@V?$_Tmap_traits@KPAVCServerDesc@@U?$less@K@std@@V?$allocator@U?$pair@$$CBKPAVCServerDesc@@@std@@@3@$0A@@std@@@std@@QAE?AViterator@12@XZ
_TEXT	SEGMENT
___$ReturnUdt$ = 8					; size = 4
?begin@?$_Tree@V?$_Tmap_traits@KPAVCServerDesc@@U?$less@K@std@@V?$allocator@U?$pair@$$CBKPAVCServerDesc@@@std@@@3@$0A@@std@@@std@@QAE?AViterator@12@XZ PROC NEAR ; std::_Tree<std::_Tmap_traits<unsigned long,CServerDesc *,std::less<unsigned long>,std::allocator<std::pair<unsigned long const ,CServerDesc *> >,0> >::begin, COMDAT
; _this$ = ecx

; 408  : 		return (_TREE_ITERATOR(_Lmost()));

  00000	8b 41 04	 mov	 eax, DWORD PTR [ecx+4]
  00003	8b 08		 mov	 ecx, DWORD PTR [eax]
  00005	8b 44 24 04	 mov	 eax, DWORD PTR ___$ReturnUdt$[esp-4]
  00009	89 08		 mov	 DWORD PTR [eax], ecx

; 409  : 		}

  0000b	c2 04 00	 ret	 4
?begin@?$_Tree@V?$_Tmap_traits@KPAVCServerDesc@@U?$less@K@std@@V?$allocator@U?$pair@$$CBKPAVCServerDesc@@@std@@@3@$0A@@std@@@std@@QAE?AViterator@12@XZ ENDP ; std::_Tree<std::_Tmap_traits<unsigned long,CServerDesc *,std::less<unsigned long>,std::allocator<std::pair<unsigned long const ,CServerDesc *> >,0> >::begin
_TEXT	ENDS
PUBLIC	?end@?$_Tree@V?$_Tmap_traits@KPAVCServerDesc@@U?$less@K@std@@V?$allocator@U?$pair@$$CBKPAVCServerDesc@@@std@@@3@$0A@@std@@@std@@QAE?AViterator@12@XZ ; std::_Tree<std::_Tmap_traits<unsigned long,CServerDesc *,std::less<unsigned long>,std::allocator<std::pair<unsigned long const ,CServerDesc *> >,0> >::end
; Function compile flags: /Ogty
;	COMDAT ?end@?$_Tree@V?$_Tmap_traits@KPAVCServerDesc@@U?$less@K@std@@V?$allocator@U?$pair@$$CBKPAVCServerDesc@@@std@@@3@$0A@@std@@@std@@QAE?AViterator@12@XZ
_TEXT	SEGMENT
___$ReturnUdt$ = 8					; size = 4
?end@?$_Tree@V?$_Tmap_traits@KPAVCServerDesc@@U?$less@K@std@@V?$allocator@U?$pair@$$CBKPAVCServerDesc@@@std@@@3@$0A@@std@@@std@@QAE?AViterator@12@XZ PROC NEAR ; std::_Tree<std::_Tmap_traits<unsigned long,CServerDesc *,std::less<unsigned long>,std::allocator<std::pair<unsigned long const ,CServerDesc *> >,0> >::end, COMDAT
; _this$ = ecx

; 418  : 		return (_TREE_ITERATOR(_Myhead));

  00000	8b 49 04	 mov	 ecx, DWORD PTR [ecx+4]
  00003	8b 44 24 04	 mov	 eax, DWORD PTR ___$ReturnUdt$[esp-4]
  00007	89 08		 mov	 DWORD PTR [eax], ecx

; 419  : 		}

  00009	c2 04 00	 ret	 4
?end@?$_Tree@V?$_Tmap_traits@KPAVCServerDesc@@U?$less@K@std@@V?$allocator@U?$pair@$$CBKPAVCServerDesc@@@std@@@3@$0A@@std@@@std@@QAE?AViterator@12@XZ ENDP ; std::_Tree<std::_Tmap_traits<unsigned long,CServerDesc *,std::less<unsigned long>,std::allocator<std::pair<unsigned long const ,CServerDesc *> >,0> >::end
_TEXT	ENDS
PUBLIC	??Diterator@?$list@PAVCJurisdiction@@V?$allocator@PAVCJurisdiction@@@std@@@std@@QBEAAPAVCJurisdiction@@XZ ; std::list<CJurisdiction *,std::allocator<CJurisdiction *> >::iterator::operator*
; Function compile flags: /Ogty
; File c:\program files\microsoft visual studio .net 2003\vc7\include\list
;	COMDAT ??Diterator@?$list@PAVCJurisdiction@@V?$allocator@PAVCJurisdiction@@@std@@@std@@QBEAAPAVCJurisdiction@@XZ
_TEXT	SEGMENT
??Diterator@?$list@PAVCJurisdiction@@V?$allocator@PAVCJurisdiction@@@std@@@std@@QBEAAPAVCJurisdiction@@XZ PROC NEAR ; std::list<CJurisdiction *,std::allocator<CJurisdiction *> >::iterator::operator*, COMDAT
; _this$ = ecx

; 240  : 			return ((reference)**(const_iterator *)this);

  00000	8b 01		 mov	 eax, DWORD PTR [ecx]
  00002	83 c0 08	 add	 eax, 8

; 241  : 			}

  00005	c3		 ret	 0
??Diterator@?$list@PAVCJurisdiction@@V?$allocator@PAVCJurisdiction@@@std@@@std@@QBEAAPAVCJurisdiction@@XZ ENDP ; std::list<CJurisdiction *,std::allocator<CJurisdiction *> >::iterator::operator*
_TEXT	ENDS
PUBLIC	??Citerator@?$_Tree@V?$_Tmap_traits@KPAVCServerDesc@@U?$less@K@std@@V?$allocator@U?$pair@$$CBKPAVCServerDesc@@@std@@@3@$0A@@std@@@std@@QBEPAU?$pair@$$CBKPAVCServerDesc@@@2@XZ ; std::_Tree<std::_Tmap_traits<unsigned long,CServerDesc *,std::less<unsigned long>,std::allocator<std::pair<unsigned long const ,CServerDesc *> >,0> >::iterator::operator->
; Function compile flags: /Ogty
; File c:\program files\microsoft visual studio .net 2003\vc7\include\xtree
;	COMDAT ??Citerator@?$_Tree@V?$_Tmap_traits@KPAVCServerDesc@@U?$less@K@std@@V?$allocator@U?$pair@$$CBKPAVCServerDesc@@@std@@@3@$0A@@std@@@std@@QBEPAU?$pair@$$CBKPAVCServerDesc@@@2@XZ
_TEXT	SEGMENT
??Citerator@?$_Tree@V?$_Tmap_traits@KPAVCServerDesc@@U?$less@K@std@@V?$allocator@U?$pair@$$CBKPAVCServerDesc@@@std@@@3@$0A@@std@@@std@@QBEPAU?$pair@$$CBKPAVCServerDesc@@@2@XZ PROC NEAR ; std::_Tree<std::_Tmap_traits<unsigned long,CServerDesc *,std::less<unsigned long>,std::allocator<std::pair<unsigned long const ,CServerDesc *> >,0> >::iterator::operator->, COMDAT
; _this$ = ecx

; 322  : 			return (&**this);

  00000	8b 01		 mov	 eax, DWORD PTR [ecx]
  00002	83 c0 0c	 add	 eax, 12			; 0000000cH

; 323  : 			}

  00005	c3		 ret	 0
??Citerator@?$_Tree@V?$_Tmap_traits@KPAVCServerDesc@@U?$less@K@std@@V?$allocator@U?$pair@$$CBKPAVCServerDesc@@@std@@@3@$0A@@std@@@std@@QBEPAU?$pair@$$CBKPAVCServerDesc@@@2@XZ ENDP ; std::_Tree<std::_Tmap_traits<unsigned long,CServerDesc *,std::less<unsigned long>,std::allocator<std::pair<unsigned long const ,CServerDesc *> >,0> >::iterator::operator->
_TEXT	ENDS
PUBLIC	?erase@?$list@PAVCJurisdiction@@V?$allocator@PAVCJurisdiction@@@std@@@std@@QAE?AViterator@12@V312@@Z ; std::list<CJurisdiction *,std::allocator<CJurisdiction *> >::erase
; Function compile flags: /Ogty
; File c:\program files\microsoft visual studio .net 2003\vc7\include\list
;	COMDAT ?erase@?$list@PAVCJurisdiction@@V?$allocator@PAVCJurisdiction@@@std@@@std@@QAE?AViterator@12@V312@@Z
_TEXT	SEGMENT
___$ReturnUdt$ = 8					; size = 4
__Where$ = 12						; size = 4
?erase@?$list@PAVCJurisdiction@@V?$allocator@PAVCJurisdiction@@@std@@@std@@QAE?AViterator@12@V312@@Z PROC NEAR ; std::list<CJurisdiction *,std::allocator<CJurisdiction *> >::erase, COMDAT
; _this$ = ecx

; 587  : 		_Nodeptr _Pnode = (_Where++)._Mynode();

  00000	8b 44 24 08	 mov	 eax, DWORD PTR __Where$[esp-4]
  00004	56		 push	 esi
  00005	8b f1		 mov	 esi, ecx

; 588  : 		if (_Pnode != _Myhead)

  00007	3b 46 04	 cmp	 eax, DWORD PTR [esi+4]
  0000a	57		 push	 edi
  0000b	8b 38		 mov	 edi, DWORD PTR [eax]
  0000d	74 1f		 je	 SHORT $L228646

; 589  : 			{	// not list head, safe to erase
; 590  : 			_Nextnode(_Prevnode(_Pnode)) = _Nextnode(_Pnode);

  0000f	8b 48 04	 mov	 ecx, DWORD PTR [eax+4]
  00012	8b 10		 mov	 edx, DWORD PTR [eax]
  00014	89 11		 mov	 DWORD PTR [ecx], edx

; 591  : 			_Prevnode(_Nextnode(_Pnode)) = _Prevnode(_Pnode);

  00016	8b 08		 mov	 ecx, DWORD PTR [eax]
  00018	8b 50 04	 mov	 edx, DWORD PTR [eax+4]

; 592  : 			this->_Alnod.destroy(_Pnode);
; 593  : 			this->_Alnod.deallocate(_Pnode, 1);

  0001b	50		 push	 eax
  0001c	89 51 04	 mov	 DWORD PTR [ecx+4], edx
  0001f	e8 00 00 00 00	 call	 ??3@YAXPAX@Z		; operator delete

; 594  : 			--_Mysize;

  00024	8b 46 08	 mov	 eax, DWORD PTR [esi+8]
  00027	83 c4 04	 add	 esp, 4
  0002a	48		 dec	 eax
  0002b	89 46 08	 mov	 DWORD PTR [esi+8], eax
$L228646:

; 595  : 			}
; 596  : 		return (_Where);

  0002e	8b 44 24 0c	 mov	 eax, DWORD PTR ___$ReturnUdt$[esp+4]
  00032	89 38		 mov	 DWORD PTR [eax], edi
  00034	5f		 pop	 edi
  00035	5e		 pop	 esi

; 597  : 		}

  00036	c2 08 00	 ret	 8
?erase@?$list@PAVCJurisdiction@@V?$allocator@PAVCJurisdiction@@@std@@@std@@QAE?AViterator@12@V312@@Z ENDP ; std::list<CJurisdiction *,std::allocator<CJurisdiction *> >::erase
_TEXT	ENDS
PUBLIC	?_Buynode@?$list@PAVCJurisdiction@@V?$allocator@PAVCJurisdiction@@@std@@@std@@IAEPAU_Node@?$_List_nod@PAVCJurisdiction@@V?$allocator@PAVCJurisdiction@@@std@@@2@XZ ; std::list<CJurisdiction *,std::allocator<CJurisdiction *> >::_Buynode
EXTRN	__CxxThrowException@8:NEAR
; Function compile flags: /Ogty
;	COMDAT ?_Buynode@?$list@PAVCJurisdiction@@V?$allocator@PAVCJurisdiction@@@std@@@std@@IAEPAU_Node@?$_List_nod@PAVCJurisdiction@@V?$allocator@PAVCJurisdiction@@@std@@@2@XZ
_TEXT	SEGMENT
?_Buynode@?$list@PAVCJurisdiction@@V?$allocator@PAVCJurisdiction@@@std@@@std@@IAEPAU_Node@?$_List_nod@PAVCJurisdiction@@V?$allocator@PAVCJurisdiction@@@std@@@2@XZ PROC NEAR ; std::list<CJurisdiction *,std::allocator<CJurisdiction *> >::_Buynode, COMDAT
; _this$ = ecx

; 899  : 		_Nodeptr _Pnode = this->_Alnod.allocate(1);

  00000	6a 0c		 push	 12			; 0000000cH
  00002	e8 00 00 00 00	 call	 ??2@YAPAXI@Z		; operator new
  00007	83 c4 04	 add	 esp, 4

; 900  : 		int _Linkcnt = 0;
; 901  : 
; 902  : 		_TRY_BEGIN
; 903  : 		this->_Alptr.construct(&_Nextnode(_Pnode), _Pnode);

  0000a	85 c0		 test	 eax, eax
  0000c	74 02		 je	 SHORT $L228682
  0000e	89 00		 mov	 DWORD PTR [eax], eax
$L228682:

; 904  : 		++_Linkcnt;
; 905  : 		this->_Alptr.construct(&_Prevnode(_Pnode), _Pnode);

  00010	8d 48 04	 lea	 ecx, DWORD PTR [eax+4]
  00013	85 c9		 test	 ecx, ecx
  00015	74 02		 je	 SHORT $L228710
  00017	89 01		 mov	 DWORD PTR [ecx], eax
$L228710:

; 906  : 		_CATCH_ALL
; 907  : 		if (0 < _Linkcnt)
; 908  : 			this->_Alptr.destroy(&_Nextnode(_Pnode));
; 909  : 		this->_Alnod.deallocate(_Pnode, 1);
; 910  : 		_RERAISE;
; 911  : 		_CATCH_END
; 912  : 		return (_Pnode);
; 913  : 		}

  00019	c3		 ret	 0
?_Buynode@?$list@PAVCJurisdiction@@V?$allocator@PAVCJurisdiction@@@std@@@std@@IAEPAU_Node@?$_List_nod@PAVCJurisdiction@@V?$allocator@PAVCJurisdiction@@@std@@@2@XZ ENDP ; std::list<CJurisdiction *,std::allocator<CJurisdiction *> >::_Buynode
_TEXT	ENDS
PUBLIC	?lower_bound@?$_Tree@V?$_Tmap_traits@KPAVCServerDesc@@U?$less@K@std@@V?$allocator@U?$pair@$$CBKPAVCServerDesc@@@std@@@3@$0A@@std@@@std@@QAE?AViterator@12@ABK@Z ; std::_Tree<std::_Tmap_traits<unsigned long,CServerDesc *,std::less<unsigned long>,std::allocator<std::pair<unsigned long const ,CServerDesc *> >,0> >::lower_bound
; Function compile flags: /Ogty
; File c:\program files\microsoft visual studio .net 2003\vc7\include\xtree
;	COMDAT ?lower_bound@?$_Tree@V?$_Tmap_traits@KPAVCServerDesc@@U?$less@K@std@@V?$allocator@U?$pair@$$CBKPAVCServerDesc@@@std@@@3@$0A@@std@@@std@@QAE?AViterator@12@ABK@Z
_TEXT	SEGMENT
___$ReturnUdt$ = 8					; size = 4
__Keyval$ = 12						; size = 4
?lower_bound@?$_Tree@V?$_Tmap_traits@KPAVCServerDesc@@U?$less@K@std@@V?$allocator@U?$pair@$$CBKPAVCServerDesc@@@std@@@3@$0A@@std@@@std@@QAE?AViterator@12@ABK@Z PROC NEAR ; std::_Tree<std::_Tmap_traits<unsigned long,CServerDesc *,std::less<unsigned long>,std::allocator<std::pair<unsigned long const ,CServerDesc *> >,0> >::lower_bound, COMDAT
; _this$ = ecx

; 810  : 		return (_TREE_ITERATOR(_Lbound(_Keyval)));

  00000	8b 49 04	 mov	 ecx, DWORD PTR [ecx+4]
  00003	8b 41 04	 mov	 eax, DWORD PTR [ecx+4]
  00006	8a 50 15	 mov	 dl, BYTE PTR [eax+21]
  00009	84 d2		 test	 dl, dl
  0000b	75 1d		 jne	 SHORT $L228801
  0000d	8b 54 24 08	 mov	 edx, DWORD PTR __Keyval$[esp-4]
  00011	8b 12		 mov	 edx, DWORD PTR [edx]
  00013	53		 push	 ebx
$L228769:
  00014	39 50 0c	 cmp	 DWORD PTR [eax+12], edx
  00017	73 05		 jae	 SHORT $L228771
  00019	8b 40 08	 mov	 eax, DWORD PTR [eax+8]
  0001c	eb 04		 jmp	 SHORT $L228772
$L228771:
  0001e	8b c8		 mov	 ecx, eax
  00020	8b 00		 mov	 eax, DWORD PTR [eax]
$L228772:
  00022	8a 58 15	 mov	 bl, BYTE PTR [eax+21]
  00025	84 db		 test	 bl, bl
  00027	74 eb		 je	 SHORT $L228769
  00029	5b		 pop	 ebx
$L228801:
  0002a	8b 44 24 04	 mov	 eax, DWORD PTR ___$ReturnUdt$[esp-4]
  0002e	89 08		 mov	 DWORD PTR [eax], ecx

; 811  : 		}

  00030	c2 08 00	 ret	 8
?lower_bound@?$_Tree@V?$_Tmap_traits@KPAVCServerDesc@@U?$less@K@std@@V?$allocator@U?$pair@$$CBKPAVCServerDesc@@@std@@@3@$0A@@std@@@std@@QAE?AViterator@12@ABK@Z ENDP ; std::_Tree<std::_Tmap_traits<unsigned long,CServerDesc *,std::less<unsigned long>,std::allocator<std::pair<unsigned long const ,CServerDesc *> >,0> >::lower_bound
_TEXT	ENDS
PUBLIC	?_Erase@?$_Tree@V?$_Tmap_traits@KPAVCServerDesc@@U?$less@K@std@@V?$allocator@U?$pair@$$CBKPAVCServerDesc@@@std@@@3@$0A@@std@@@std@@IAEXPAU_Node@?$_Tree_nod@V?$_Tmap_traits@KPAVCServerDesc@@U?$less@K@std@@V?$allocator@U?$pair@$$CBKPAVCServerDesc@@@std@@@3@$0A@@std@@@2@@Z ; std::_Tree<std::_Tmap_traits<unsigned long,CServerDesc *,std::less<unsigned long>,std::allocator<std::pair<unsigned long const ,CServerDesc *> >,0> >::_Erase
; Function compile flags: /Ogty
;	COMDAT ?_Erase@?$_Tree@V?$_Tmap_traits@KPAVCServerDesc@@U?$less@K@std@@V?$allocator@U?$pair@$$CBKPAVCServerDesc@@@std@@@3@$0A@@std@@@std@@IAEXPAU_Node@?$_Tree_nod@V?$_Tmap_traits@KPAVCServerDesc@@U?$less@K@std@@V?$allocator@U?$pair@$$CBKPAVCServerDesc@@@std@@@3@$0A@@std@@@2@@Z
_TEXT	SEGMENT
__Rootnode$ = 8						; size = 4
?_Erase@?$_Tree@V?$_Tmap_traits@KPAVCServerDesc@@U?$less@K@std@@V?$allocator@U?$pair@$$CBKPAVCServerDesc@@@std@@@3@$0A@@std@@@std@@IAEXPAU_Node@?$_Tree_nod@V?$_Tmap_traits@KPAVCServerDesc@@U?$less@K@std@@V?$allocator@U?$pair@$$CBKPAVCServerDesc@@@std@@@3@$0A@@std@@@2@@Z PROC NEAR ; std::_Tree<std::_Tmap_traits<unsigned long,CServerDesc *,std::less<unsigned long>,std::allocator<std::pair<unsigned long const ,CServerDesc *> >,0> >::_Erase, COMDAT
; _this$ = ecx

; 890  : 		{	// free entire subtree, recursively

  00000	53		 push	 ebx
  00001	56		 push	 esi
  00002	57		 push	 edi

; 891  : 		for (_Nodeptr _Pnode = _Rootnode; !_Isnil(_Pnode); _Rootnode = _Pnode)

  00003	8b 7c 24 10	 mov	 edi, DWORD PTR __Rootnode$[esp+8]
  00007	8a 47 15	 mov	 al, BYTE PTR [edi+21]
  0000a	84 c0		 test	 al, al
  0000c	8b d9		 mov	 ebx, ecx
  0000e	8b f7		 mov	 esi, edi
  00010	75 1f		 jne	 SHORT $L226106
$L226104:

; 892  : 			{	// free subtrees, then node
; 893  : 			_Erase(_Right(_Pnode));

  00012	8b 46 08	 mov	 eax, DWORD PTR [esi+8]
  00015	50		 push	 eax
  00016	8b cb		 mov	 ecx, ebx
  00018	e8 00 00 00 00	 call	 ?_Erase@?$_Tree@V?$_Tmap_traits@KPAVCServerDesc@@U?$less@K@std@@V?$allocator@U?$pair@$$CBKPAVCServerDesc@@@std@@@3@$0A@@std@@@std@@IAEXPAU_Node@?$_Tree_nod@V?$_Tmap_traits@KPAVCServerDesc@@U?$less@K@std@@V?$allocator@U?$pair@$$CBKPAVCServerDesc@@@std@@@3@$0A@@std@@@2@@Z ; std::_Tree<std::_Tmap_traits<unsigned long,CServerDesc *,std::less<unsigned long>,std::allocator<std::pair<unsigned long const ,CServerDesc *> >,0> >::_Erase

; 894  : 			_Pnode = _Left(_Pnode);

  0001d	8b 36		 mov	 esi, DWORD PTR [esi]

; 895  : 			this->_Alnod.destroy(_Rootnode);	// destroy, free erased node
; 896  : 			this->_Alnod.deallocate(_Rootnode, 1);

  0001f	57		 push	 edi
  00020	e8 00 00 00 00	 call	 ??3@YAXPAX@Z		; operator delete
  00025	8a 46 15	 mov	 al, BYTE PTR [esi+21]
  00028	83 c4 04	 add	 esp, 4
  0002b	84 c0		 test	 al, al
  0002d	8b fe		 mov	 edi, esi
  0002f	74 e1		 je	 SHORT $L226104
$L226106:
  00031	5f		 pop	 edi
  00032	5e		 pop	 esi
  00033	5b		 pop	 ebx

; 897  : 			}
; 898  : 		}

  00034	c2 04 00	 ret	 4
?_Erase@?$_Tree@V?$_Tmap_traits@KPAVCServerDesc@@U?$less@K@std@@V?$allocator@U?$pair@$$CBKPAVCServerDesc@@@std@@@3@$0A@@std@@@std@@IAEXPAU_Node@?$_Tree_nod@V?$_Tmap_traits@KPAVCServerDesc@@U?$less@K@std@@V?$allocator@U?$pair@$$CBKPAVCServerDesc@@@std@@@3@$0A@@std@@@2@@Z ENDP ; std::_Tree<std::_Tmap_traits<unsigned long,CServerDesc *,std::less<unsigned long>,std::allocator<std::pair<unsigned long const ,CServerDesc *> >,0> >::_Erase
_TEXT	ENDS
PUBLIC	??Econst_iterator@?$_Tree@V?$_Tmap_traits@KPAVCServerDesc@@U?$less@K@std@@V?$allocator@U?$pair@$$CBKPAVCServerDesc@@@std@@@3@$0A@@std@@@std@@QAEAAV012@XZ ; std::_Tree<std::_Tmap_traits<unsigned long,CServerDesc *,std::less<unsigned long>,std::allocator<std::pair<unsigned long const ,CServerDesc *> >,0> >::const_iterator::operator++
; Function compile flags: /Ogty
;	COMDAT ??Econst_iterator@?$_Tree@V?$_Tmap_traits@KPAVCServerDesc@@U?$less@K@std@@V?$allocator@U?$pair@$$CBKPAVCServerDesc@@@std@@@3@$0A@@std@@@std@@QAEAAV012@XZ
_TEXT	SEGMENT
??Econst_iterator@?$_Tree@V?$_Tmap_traits@KPAVCServerDesc@@U?$less@K@std@@V?$allocator@U?$pair@$$CBKPAVCServerDesc@@@std@@@3@$0A@@std@@@std@@QAEAAV012@XZ PROC NEAR ; std::_Tree<std::_Tmap_traits<unsigned long,CServerDesc *,std::less<unsigned long>,std::allocator<std::pair<unsigned long const ,CServerDesc *> >,0> >::const_iterator::operator++, COMDAT
; _this$ = ecx

; 214  : 			{	// preincrement

  00000	56		 push	 esi
  00001	8b f1		 mov	 esi, ecx

; 215  : 			_Inc();

  00003	e8 00 00 00 00	 call	 ?_Inc@const_iterator@?$_Tree@V?$_Tmap_traits@KPAVCServerDesc@@U?$less@K@std@@V?$allocator@U?$pair@$$CBKPAVCServerDesc@@@std@@@3@$0A@@std@@@std@@QAEXXZ ; std::_Tree<std::_Tmap_traits<unsigned long,CServerDesc *,std::less<unsigned long>,std::allocator<std::pair<unsigned long const ,CServerDesc *> >,0> >::const_iterator::_Inc

; 216  : 			return (*this);

  00008	8b c6		 mov	 eax, esi
  0000a	5e		 pop	 esi

; 217  : 			}

  0000b	c3		 ret	 0
??Econst_iterator@?$_Tree@V?$_Tmap_traits@KPAVCServerDesc@@U?$less@K@std@@V?$allocator@U?$pair@$$CBKPAVCServerDesc@@@std@@@3@$0A@@std@@@std@@QAEAAV012@XZ ENDP ; std::_Tree<std::_Tmap_traits<unsigned long,CServerDesc *,std::less<unsigned long>,std::allocator<std::pair<unsigned long const ,CServerDesc *> >,0> >::const_iterator::operator++
_TEXT	ENDS
PUBLIC	?clear@?$list@PAVCJurisdiction@@V?$allocator@PAVCJurisdiction@@@std@@@std@@QAEXXZ ; std::list<CJurisdiction *,std::allocator<CJurisdiction *> >::clear
; Function compile flags: /Ogty
; File c:\program files\microsoft visual studio .net 2003\vc7\include\list
;	COMDAT ?clear@?$list@PAVCJurisdiction@@V?$allocator@PAVCJurisdiction@@@std@@@std@@QAEXXZ
_TEXT	SEGMENT
?clear@?$list@PAVCJurisdiction@@V?$allocator@PAVCJurisdiction@@@std@@@std@@QAEXXZ PROC NEAR ; std::list<CJurisdiction *,std::allocator<CJurisdiction *> >::clear, COMDAT
; _this$ = ecx

; 610  : 		{	// erase all

  00000	56		 push	 esi
  00001	8b f1		 mov	 esi, ecx

; 611  : 		_Nodeptr _Pnext;
; 612  : 		_Nodeptr _Pnode = _Nextnode(_Myhead);

  00003	8b 4e 04	 mov	 ecx, DWORD PTR [esi+4]
  00006	8b 01		 mov	 eax, DWORD PTR [ecx]

; 613  : 		_Nextnode(_Myhead) = _Myhead;

  00008	89 09		 mov	 DWORD PTR [ecx], ecx

; 614  : 		_Prevnode(_Myhead) = _Myhead;

  0000a	8b 4e 04	 mov	 ecx, DWORD PTR [esi+4]
  0000d	89 49 04	 mov	 DWORD PTR [ecx+4], ecx

; 615  : 		_Mysize = 0;
; 616  : 
; 617  : 		for (; _Pnode != _Myhead; _Pnode = _Pnext)

  00010	3b 46 04	 cmp	 eax, DWORD PTR [esi+4]
  00013	c7 46 08 00 00
	00 00		 mov	 DWORD PTR [esi+8], 0
  0001a	74 19		 je	 SHORT $L226216
  0001c	57		 push	 edi
  0001d	8d 49 00	 npad	 3
$L226214:

; 618  : 			{	// delete an element
; 619  : 			_Pnext = _Nextnode(_Pnode);

  00020	8b 38		 mov	 edi, DWORD PTR [eax]

; 620  : 			this->_Alnod.destroy(_Pnode);
; 621  : 			this->_Alnod.deallocate(_Pnode, 1);

  00022	50		 push	 eax
  00023	e8 00 00 00 00	 call	 ??3@YAXPAX@Z		; operator delete
  00028	8b 4e 04	 mov	 ecx, DWORD PTR [esi+4]
  0002b	83 c4 04	 add	 esp, 4
  0002e	3b f9		 cmp	 edi, ecx
  00030	8b c7		 mov	 eax, edi
  00032	75 ec		 jne	 SHORT $L226214
  00034	5f		 pop	 edi
$L226216:
  00035	5e		 pop	 esi

; 622  : 			}
; 623  : 		}

  00036	c3		 ret	 0
?clear@?$list@PAVCJurisdiction@@V?$allocator@PAVCJurisdiction@@@std@@@std@@QAEXXZ ENDP ; std::list<CJurisdiction *,std::allocator<CJurisdiction *> >::clear
_TEXT	ENDS
PUBLIC	?_Buynode@?$list@PAVCJurisdiction@@V?$allocator@PAVCJurisdiction@@@std@@@std@@IAEPAU_Node@?$_List_nod@PAVCJurisdiction@@V?$allocator@PAVCJurisdiction@@@std@@@2@PAU342@0ABQAVCJurisdiction@@@Z ; std::list<CJurisdiction *,std::allocator<CJurisdiction *> >::_Buynode
; Function compile flags: /Ogty
;	COMDAT ?_Buynode@?$list@PAVCJurisdiction@@V?$allocator@PAVCJurisdiction@@@std@@@std@@IAEPAU_Node@?$_List_nod@PAVCJurisdiction@@V?$allocator@PAVCJurisdiction@@@std@@@2@PAU342@0ABQAVCJurisdiction@@@Z
_TEXT	SEGMENT
__Next$ = 8						; size = 4
__Prev$ = 12						; size = 4
__Val$ = 16						; size = 4
?_Buynode@?$list@PAVCJurisdiction@@V?$allocator@PAVCJurisdiction@@@std@@@std@@IAEPAU_Node@?$_List_nod@PAVCJurisdiction@@V?$allocator@PAVCJurisdiction@@@std@@@2@PAU342@0ABQAVCJurisdiction@@@Z PROC NEAR ; std::list<CJurisdiction *,std::allocator<CJurisdiction *> >::_Buynode, COMDAT
; _this$ = ecx

; 918  : 		_Nodeptr _Pnode = this->_Alnod.allocate(1);

  00000	6a 0c		 push	 12			; 0000000cH
  00002	e8 00 00 00 00	 call	 ??2@YAPAXI@Z		; operator new
  00007	83 c4 04	 add	 esp, 4

; 919  : 		_TRY_BEGIN
; 920  : 		new ((void *)_Pnode) _Node(_Next, _Prev, _Val);

  0000a	85 c0		 test	 eax, eax
  0000c	74 16		 je	 SHORT $L228849
  0000e	8b 4c 24 04	 mov	 ecx, DWORD PTR __Next$[esp-4]
  00012	8b 54 24 08	 mov	 edx, DWORD PTR __Prev$[esp-4]
  00016	89 08		 mov	 DWORD PTR [eax], ecx
  00018	8b 4c 24 0c	 mov	 ecx, DWORD PTR __Val$[esp-4]
  0001c	89 50 04	 mov	 DWORD PTR [eax+4], edx
  0001f	8b 11		 mov	 edx, DWORD PTR [ecx]
  00021	89 50 08	 mov	 DWORD PTR [eax+8], edx
$L228849:

; 921  : 		_CATCH_ALL
; 922  : 		this->_Alnod.deallocate(_Pnode, 1);
; 923  : 		_RERAISE;
; 924  : 		_CATCH_END
; 925  : 		return (_Pnode);
; 926  : 		}

  00024	c2 0c 00	 ret	 12			; 0000000cH
?_Buynode@?$list@PAVCJurisdiction@@V?$allocator@PAVCJurisdiction@@@std@@@std@@IAEPAU_Node@?$_List_nod@PAVCJurisdiction@@V?$allocator@PAVCJurisdiction@@@std@@@2@PAU342@0ABQAVCJurisdiction@@@Z ENDP ; std::list<CJurisdiction *,std::allocator<CJurisdiction *> >::_Buynode
_TEXT	ENDS
