; Listing generated by Microsoft (R) Optimizing Compiler Version 13.10.6030 

	TITLE	\Documents and Settings\test\Mes documents\Source\Virtuos_v17\Build\Program\_Common\timer.cpp
	.386P
include listing.inc
if @Version gt 510
.model FLAT
else
_TEXT	SEGMENT PARA USE32 PUBLIC 'CODE'
_TEXT	ENDS
_DATA	SEGMENT DWORD USE32 PUBLIC 'DATA'
_DATA	ENDS
CONST	SEGMENT DWORD USE32 PUBLIC 'CONST'
CONST	ENDS
_BSS	SEGMENT DWORD USE32 PUBLIC 'BSS'
_BSS	ENDS
$$SYMBOLS	SEGMENT BYTE USE32 'DEBSYM'
$$SYMBOLS	ENDS
$$TYPES	SEGMENT BYTE USE32 'DEBTYP'
$$TYPES	ENDS
_TLS	SEGMENT DWORD USE32 PUBLIC 'TLS'
_TLS	ENDS
xdata$x	SEGMENT DWORD USE32 PUBLIC 'CONST'
xdata$x	ENDS
text$AFX_COL1	SEGMENT PARA USE32 PUBLIC ''
text$AFX_COL1	ENDS
;	COMDAT ??0CTimer@@QAE@XZ
_TEXT	SEGMENT PARA USE32 PUBLIC 'CODE'
_TEXT	ENDS
;	COMDAT ??0CTimer@@QAE@M@Z
_TEXT	SEGMENT PARA USE32 PUBLIC 'CODE'
_TEXT	ENDS
;	COMDAT ??0CTimer@@QAE@MH@Z
_TEXT	SEGMENT PARA USE32 PUBLIC 'CODE'
_TEXT	ENDS
;	COMDAT ?GetTime@CTimer@@QAENXZ
_TEXT	SEGMENT PARA USE32 PUBLIC 'CODE'
_TEXT	ENDS
;	COMDAT ?Set@CTimer@@QAEXMH@Z
_TEXT	SEGMENT PARA USE32 PUBLIC 'CODE'
_TEXT	ENDS
;	COMDAT ?Reset@CTimer@@UAEXXZ
_TEXT	SEGMENT PARA USE32 PUBLIC 'CODE'
_TEXT	ENDS
;	COMDAT ?Over@CTimer@@UAEHXZ
_TEXT	SEGMENT PARA USE32 PUBLIC 'CODE'
_TEXT	ENDS
;	COMDAT ?GetLeftTime@CTimer@@QAENXZ
_TEXT	SEGMENT PARA USE32 PUBLIC 'CODE'
_TEXT	ENDS
;	COMDAT ?GetInterval@CTimer@@QAEMXZ
_TEXT	SEGMENT PARA USE32 PUBLIC 'CODE'
_TEXT	ENDS
;	COMDAT ??RCTimer@@QAEXXZ
_TEXT	SEGMENT PARA USE32 PUBLIC 'CODE'
_TEXT	ENDS
;	COMDAT ??RCTimer@@QAEXN@Z
_TEXT	SEGMENT PARA USE32 PUBLIC 'CODE'
_TEXT	ENDS
;	COMDAT ?GetSunPercent@CGameTimer@@QAEHXZ
_TEXT	SEGMENT PARA USE32 PUBLIC 'CODE'
_TEXT	ENDS
;	COMDAT ?GetMoonPercent@CGameTimer@@QAEHXZ
_TEXT	SEGMENT PARA USE32 PUBLIC 'CODE'
_TEXT	ENDS
;	COMDAT ??0CGameTimer@@QAE@XZ
_TEXT	SEGMENT PARA USE32 PUBLIC 'CODE'
_TEXT	ENDS
;	COMDAT ??0CGameTimer@@QAE@N@Z
_TEXT	SEGMENT PARA USE32 PUBLIC 'CODE'
_TEXT	ENDS
;	COMDAT ??1CGameTimer@@QAE@XZ
_TEXT	SEGMENT PARA USE32 PUBLIC 'CODE'
_TEXT	ENDS
;	COMDAT ?SetCurrentTime@CGameTimer@@QAEXN@Z
_TEXT	SEGMENT PARA USE32 PUBLIC 'CODE'
_TEXT	ENDS
;	COMDAT ?GetTickCount@CGameTimer@@QAENXZ
_TEXT	SEGMENT PARA USE32 PUBLIC 'CODE'
_TEXT	ENDS
;	COMDAT ?SetCurrentTime@CGameTimer@@QAEXHH@Z
_TEXT	SEGMENT PARA USE32 PUBLIC 'CODE'
_TEXT	ENDS
;	COMDAT ?Compute@CGameTimer@@QAEXXZ
_TEXT	SEGMENT PARA USE32 PUBLIC 'CODE'
_TEXT	ENDS
;	COMDAT ?SetTime@CGameTimer@@QAEXHHHH@Z
_TEXT	SEGMENT PARA USE32 PUBLIC 'CODE'
_TEXT	ENDS
;	COMDAT ?Set@CSkipTimer@@QAEXM@Z
_TEXT	SEGMENT PARA USE32 PUBLIC 'CODE'
_TEXT	ENDS
;	COMDAT ?Over@CSkipTimer@@UAEHXZ
_TEXT	SEGMENT PARA USE32 PUBLIC 'CODE'
_TEXT	ENDS
;	COMDAT ?IsNeedSkip@CSkipTimer@@QAEHXZ
_TEXT	SEGMENT PARA USE32 PUBLIC 'CODE'
_TEXT	ENDS
;	COMDAT ?Skip@CSkipTimer@@QAEXXZ
_TEXT	SEGMENT PARA USE32 PUBLIC 'CODE'
_TEXT	ENDS
;	COMDAT ?IsMaxSkip@CSkipTimer@@QAEHXZ
_TEXT	SEGMENT PARA USE32 PUBLIC 'CODE'
_TEXT	ENDS
;	COMDAT ??0CDate@@QAE@XZ
_TEXT	SEGMENT PARA USE32 PUBLIC 'CODE'
_TEXT	ENDS
;	COMDAT ??0CDate@@QAE@HHHHHHH@Z
_TEXT	SEGMENT PARA USE32 PUBLIC 'CODE'
_TEXT	ENDS
;	COMDAT ??1CDate@@QAE@XZ
_TEXT	SEGMENT PARA USE32 PUBLIC 'CODE'
_TEXT	ENDS
;	COMDAT ?IsNight@CDate@@QAEHXZ
_TEXT	SEGMENT PARA USE32 PUBLIC 'CODE'
_TEXT	ENDS
;	COMDAT ?GetDay@CDate@@QAEHXZ
_TEXT	SEGMENT PARA USE32 PUBLIC 'CODE'
_TEXT	ENDS
;	COMDAT ?ComputeShade@CDate@@QAEHH@Z
_TEXT	SEGMENT PARA USE32 PUBLIC 'CODE'
_TEXT	ENDS
;	COMDAT ?GetTimeColor@CDate@@QAEXPAUtagTIMECOLOR@@@Z
_TEXT	SEGMENT PARA USE32 PUBLIC 'CODE'
_TEXT	ENDS
;	COMDAT ?Process@CDate@@QAEXXZ
_TEXT	SEGMENT PARA USE32 PUBLIC 'CODE'
_TEXT	ENDS
;	COMDAT ?InitFST@@YAXXZ
_TEXT	SEGMENT PARA USE32 PUBLIC 'CODE'
_TEXT	ENDS
;	COMDAT ?SetFrameSkip@@YAXH@Z
_TEXT	SEGMENT PARA USE32 PUBLIC 'CODE'
_TEXT	ENDS
;	COMDAT ?GetFrameSkip@@YAHXZ
_TEXT	SEGMENT PARA USE32 PUBLIC 'CODE'
_TEXT	ENDS
;	COMDAT ?UpdateTime@@YAXXZ
_TEXT	SEGMENT PARA USE32 PUBLIC 'CODE'
_TEXT	ENDS
;	COMDAT ?IsDrawTiming@@YAHXZ
_TEXT	SEGMENT PARA USE32 PUBLIC 'CODE'
_TEXT	ENDS
;	COMDAT ?SetFST@@YAXXZ
_TEXT	SEGMENT PARA USE32 PUBLIC 'CODE'
_TEXT	ENDS
;	COMDAT ?compare@?$basic_string@DU?$char_traits@D@std@@V?$allocator@D@2@@std@@QBEHABV12@@Z
_TEXT	SEGMENT PARA USE32 PUBLIC 'CODE'
_TEXT	ENDS
;	COMDAT ?IsFull@?$CStack@K@@QAEHXZ
_TEXT	SEGMENT PARA USE32 PUBLIC 'CODE'
_TEXT	ENDS
;	COMDAT ??0?$pair@KPAVCCtrl@@@std@@QAE@ABKABQAVCCtrl@@@Z
_TEXT	SEGMENT PARA USE32 PUBLIC 'CODE'
_TEXT	ENDS
;	COMDAT ?GetMax@?$CItemContainer@VCItemElem@@@@QAEHXZ
_TEXT	SEGMENT PARA USE32 PUBLIC 'CODE'
_TEXT	ENDS
;	COMDAT ??0?$deque@PAUtagACTMSG@@V?$allocator@PAUtagACTMSG@@@std@@@std@@QAE@XZ
_TEXT	SEGMENT PARA USE32 PUBLIC 'CODE'
_TEXT	ENDS
;	COMDAT ??1?$deque@PAUtagACTMSG@@V?$allocator@PAUtagACTMSG@@@std@@@std@@QAE@XZ
_TEXT	SEGMENT PARA USE32 PUBLIC 'CODE'
_TEXT	ENDS
;	COMDAT ?begin@?$deque@PAUtagACTMSG@@V?$allocator@PAUtagACTMSG@@@std@@@std@@QAE?AViterator@12@XZ
_TEXT	SEGMENT PARA USE32 PUBLIC 'CODE'
_TEXT	ENDS
;	COMDAT ?end@?$deque@PAUtagACTMSG@@V?$allocator@PAUtagACTMSG@@@std@@@std@@QAE?AViterator@12@XZ
_TEXT	SEGMENT PARA USE32 PUBLIC 'CODE'
_TEXT	ENDS
;	COMDAT ?empty@?$deque@PAUtagACTMSG@@V?$allocator@PAUtagACTMSG@@@std@@@std@@QBE_NXZ
_TEXT	SEGMENT PARA USE32 PUBLIC 'CODE'
_TEXT	ENDS
;	COMDAT ?clear@?$deque@PAUtagACTMSG@@V?$allocator@PAUtagACTMSG@@@std@@@std@@QAEXXZ
_TEXT	SEGMENT PARA USE32 PUBLIC 'CODE'
_TEXT	ENDS
;	COMDAT ??0?$deque@PAUtagMAGICATKMSG@@V?$allocator@PAUtagMAGICATKMSG@@@std@@@std@@QAE@XZ
_TEXT	SEGMENT PARA USE32 PUBLIC 'CODE'
_TEXT	ENDS
;	COMDAT ??1?$deque@PAUtagMAGICATKMSG@@V?$allocator@PAUtagMAGICATKMSG@@@std@@@std@@QAE@XZ
_TEXT	SEGMENT PARA USE32 PUBLIC 'CODE'
_TEXT	ENDS
;	COMDAT ?begin@?$deque@PAUtagMAGICATKMSG@@V?$allocator@PAUtagMAGICATKMSG@@@std@@@std@@QAE?AViterator@12@XZ
_TEXT	SEGMENT PARA USE32 PUBLIC 'CODE'
_TEXT	ENDS
;	COMDAT ?end@?$deque@PAUtagMAGICATKMSG@@V?$allocator@PAUtagMAGICATKMSG@@@std@@@std@@QAE?AViterator@12@XZ
_TEXT	SEGMENT PARA USE32 PUBLIC 'CODE'
_TEXT	ENDS
;	COMDAT ?empty@?$deque@PAUtagMAGICATKMSG@@V?$allocator@PAUtagMAGICATKMSG@@@std@@@std@@QBE_NXZ
_TEXT	SEGMENT PARA USE32 PUBLIC 'CODE'
_TEXT	ENDS
;	COMDAT ?clear@?$deque@PAUtagMAGICATKMSG@@V?$allocator@PAUtagMAGICATKMSG@@@std@@@std@@QAEXXZ
_TEXT	SEGMENT PARA USE32 PUBLIC 'CODE'
_TEXT	ENDS
;	COMDAT ??Diterator@?$deque@PAUtagACTMSG@@V?$allocator@PAUtagACTMSG@@@std@@@std@@QBEAAPAUtagACTMSG@@XZ
_TEXT	SEGMENT PARA USE32 PUBLIC 'CODE'
_TEXT	ENDS
;	COMDAT ??Eiterator@?$deque@PAUtagACTMSG@@V?$allocator@PAUtagACTMSG@@@std@@@std@@QAEAAV012@XZ
_TEXT	SEGMENT PARA USE32 PUBLIC 'CODE'
_TEXT	ENDS
;	COMDAT ??9const_iterator@?$deque@PAUtagACTMSG@@V?$allocator@PAUtagACTMSG@@@std@@@std@@QBE_NABV012@@Z
_TEXT	SEGMENT PARA USE32 PUBLIC 'CODE'
_TEXT	ENDS
;	COMDAT ??Diterator@?$deque@PAUtagMAGICATKMSG@@V?$allocator@PAUtagMAGICATKMSG@@@std@@@std@@QBEAAPAUtagMAGICATKMSG@@XZ
_TEXT	SEGMENT PARA USE32 PUBLIC 'CODE'
_TEXT	ENDS
;	COMDAT ??Eiterator@?$deque@PAUtagMAGICATKMSG@@V?$allocator@PAUtagMAGICATKMSG@@@std@@@std@@QAEAAV012@XZ
_TEXT	SEGMENT PARA USE32 PUBLIC 'CODE'
_TEXT	ENDS
;	COMDAT ??9const_iterator@?$deque@PAUtagMAGICATKMSG@@V?$allocator@PAUtagMAGICATKMSG@@@std@@@std@@QBE_NABV012@@Z
_TEXT	SEGMENT PARA USE32 PUBLIC 'CODE'
_TEXT	ENDS
;	COMDAT ?compare@?$basic_string@DU?$char_traits@D@std@@V?$allocator@D@2@@std@@QBEHIIPBDI@Z
_TEXT	SEGMENT PARA USE32 PUBLIC 'CODE'
_TEXT	ENDS
;	COMDAT ?_Tidy@?$deque@PAUtagACTMSG@@V?$allocator@PAUtagACTMSG@@@std@@@std@@IAEXXZ
_TEXT	SEGMENT PARA USE32 PUBLIC 'CODE'
_TEXT	ENDS
;	COMDAT ??0?$_Deque_val@PAUtagACTMSG@@V?$allocator@PAUtagACTMSG@@@std@@@std@@IAE@V?$allocator@PAUtagACTMSG@@@1@@Z
_TEXT	SEGMENT PARA USE32 PUBLIC 'CODE'
_TEXT	ENDS
;	COMDAT ??0?$allocator@PAUtagACTMSG@@@std@@QAE@XZ
_TEXT	SEGMENT PARA USE32 PUBLIC 'CODE'
_TEXT	ENDS
;	COMDAT ?_Tidy@?$deque@PAUtagMAGICATKMSG@@V?$allocator@PAUtagMAGICATKMSG@@@std@@@std@@IAEXXZ
_TEXT	SEGMENT PARA USE32 PUBLIC 'CODE'
_TEXT	ENDS
;	COMDAT ??0?$_Deque_val@PAUtagMAGICATKMSG@@V?$allocator@PAUtagMAGICATKMSG@@@std@@@std@@IAE@V?$allocator@PAUtagMAGICATKMSG@@@1@@Z
_TEXT	SEGMENT PARA USE32 PUBLIC 'CODE'
_TEXT	ENDS
;	COMDAT ??0?$allocator@PAUtagMAGICATKMSG@@@std@@QAE@XZ
_TEXT	SEGMENT PARA USE32 PUBLIC 'CODE'
_TEXT	ENDS
;	COMDAT ??0iterator@?$deque@PAUtagACTMSG@@V?$allocator@PAUtagACTMSG@@@std@@@std@@QAE@IPBV12@@Z
_TEXT	SEGMENT PARA USE32 PUBLIC 'CODE'
_TEXT	ENDS
;	COMDAT ??Dconst_iterator@?$deque@PAUtagACTMSG@@V?$allocator@PAUtagACTMSG@@@std@@@std@@QBEABQAUtagACTMSG@@XZ
_TEXT	SEGMENT PARA USE32 PUBLIC 'CODE'
_TEXT	ENDS
;	COMDAT ??8const_iterator@?$deque@PAUtagACTMSG@@V?$allocator@PAUtagACTMSG@@@std@@@std@@QBE_NABV012@@Z
_TEXT	SEGMENT PARA USE32 PUBLIC 'CODE'
_TEXT	ENDS
;	COMDAT ??0iterator@?$deque@PAUtagMAGICATKMSG@@V?$allocator@PAUtagMAGICATKMSG@@@std@@@std@@QAE@IPBV12@@Z
_TEXT	SEGMENT PARA USE32 PUBLIC 'CODE'
_TEXT	ENDS
;	COMDAT ??Dconst_iterator@?$deque@PAUtagMAGICATKMSG@@V?$allocator@PAUtagMAGICATKMSG@@@std@@@std@@QBEABQAUtagMAGICATKMSG@@XZ
_TEXT	SEGMENT PARA USE32 PUBLIC 'CODE'
_TEXT	ENDS
;	COMDAT ??8const_iterator@?$deque@PAUtagMAGICATKMSG@@V?$allocator@PAUtagMAGICATKMSG@@@std@@@std@@QBE_NABV012@@Z
_TEXT	SEGMENT PARA USE32 PUBLIC 'CODE'
_TEXT	ENDS
;	COMDAT ?pop_back@?$deque@PAUtagACTMSG@@V?$allocator@PAUtagACTMSG@@@std@@@std@@QAEXXZ
_TEXT	SEGMENT PARA USE32 PUBLIC 'CODE'
_TEXT	ENDS
;	COMDAT ??0?$_Deque_map@PAUtagACTMSG@@V?$allocator@PAUtagACTMSG@@@std@@@std@@IAE@V?$allocator@PAUtagACTMSG@@@1@@Z
_TEXT	SEGMENT PARA USE32 PUBLIC 'CODE'
_TEXT	ENDS
;	COMDAT ??0?$allocator@PAUtagACTMSG@@@std@@QAE@ABV01@@Z
_TEXT	SEGMENT PARA USE32 PUBLIC 'CODE'
_TEXT	ENDS
;	COMDAT ?deallocate@?$allocator@PAUtagACTMSG@@@std@@QAEXPAPAUtagACTMSG@@I@Z
_TEXT	SEGMENT PARA USE32 PUBLIC 'CODE'
_TEXT	ENDS
;	COMDAT ?deallocate@?$allocator@PAPAUtagACTMSG@@@std@@QAEXPAPAPAUtagACTMSG@@I@Z
_TEXT	SEGMENT PARA USE32 PUBLIC 'CODE'
_TEXT	ENDS
;	COMDAT ?destroy@?$allocator@PAPAUtagACTMSG@@@std@@QAEXPAPAPAUtagACTMSG@@@Z
_TEXT	SEGMENT PARA USE32 PUBLIC 'CODE'
_TEXT	ENDS
;	COMDAT ?pop_back@?$deque@PAUtagMAGICATKMSG@@V?$allocator@PAUtagMAGICATKMSG@@@std@@@std@@QAEXXZ
_TEXT	SEGMENT PARA USE32 PUBLIC 'CODE'
_TEXT	ENDS
;	COMDAT ??0?$_Deque_map@PAUtagMAGICATKMSG@@V?$allocator@PAUtagMAGICATKMSG@@@std@@@std@@IAE@V?$allocator@PAUtagMAGICATKMSG@@@1@@Z
_TEXT	SEGMENT PARA USE32 PUBLIC 'CODE'
_TEXT	ENDS
;	COMDAT ??0?$allocator@PAUtagMAGICATKMSG@@@std@@QAE@ABV01@@Z
_TEXT	SEGMENT PARA USE32 PUBLIC 'CODE'
_TEXT	ENDS
;	COMDAT ?deallocate@?$allocator@PAUtagMAGICATKMSG@@@std@@QAEXPAPAUtagMAGICATKMSG@@I@Z
_TEXT	SEGMENT PARA USE32 PUBLIC 'CODE'
_TEXT	ENDS
;	COMDAT ?deallocate@?$allocator@PAPAUtagMAGICATKMSG@@@std@@QAEXPAPAPAUtagMAGICATKMSG@@I@Z
_TEXT	SEGMENT PARA USE32 PUBLIC 'CODE'
_TEXT	ENDS
;	COMDAT ?destroy@?$allocator@PAPAUtagMAGICATKMSG@@@std@@QAEXPAPAPAUtagMAGICATKMSG@@@Z
_TEXT	SEGMENT PARA USE32 PUBLIC 'CODE'
_TEXT	ENDS
;	COMDAT ??0const_iterator@?$deque@PAUtagACTMSG@@V?$allocator@PAUtagACTMSG@@@std@@@std@@QAE@IPBV12@@Z
_TEXT	SEGMENT PARA USE32 PUBLIC 'CODE'
_TEXT	ENDS
;	COMDAT ??0const_iterator@?$deque@PAUtagMAGICATKMSG@@V?$allocator@PAUtagMAGICATKMSG@@@std@@@std@@QAE@IPBV12@@Z
_TEXT	SEGMENT PARA USE32 PUBLIC 'CODE'
_TEXT	ENDS
;	COMDAT ?destroy@?$allocator@PAUtagACTMSG@@@std@@QAEXPAPAUtagACTMSG@@@Z
_TEXT	SEGMENT PARA USE32 PUBLIC 'CODE'
_TEXT	ENDS
;	COMDAT ?destroy@?$allocator@PAUtagMAGICATKMSG@@@std@@QAEXPAPAUtagMAGICATKMSG@@@Z
_TEXT	SEGMENT PARA USE32 PUBLIC 'CODE'
_TEXT	ENDS
;	COMDAT ??$_Iter_cat@Vconst_iterator@?$vector@EV?$allocator@E@std@@@std@@@std@@YA?AUrandom_access_iterator_tag@0@ABVconst_iterator@?$vector@EV?$allocator@E@std@@@0@@Z
_TEXT	SEGMENT PARA USE32 PUBLIC 'CODE'
_TEXT	ENDS
;	COMDAT ??$_Assign@Vconst_iterator@?$vector@EV?$allocator@E@std@@@std@@@?$vector@EV?$allocator@E@std@@@std@@QAEXVconst_iterator@01@0Uinput_iterator_tag@1@@Z
_TEXT	SEGMENT PARA USE32 PUBLIC 'CODE'
_TEXT	ENDS
;	COMDAT ??$_Iter_cat@Viterator@?$_Tree@V?$_Tmap_traits@KPAVCUser@@U?$less@K@std@@V?$allocator@U?$pair@$$CBKPAVCUser@@@std@@@3@$0A@@std@@@std@@@std@@YA?AUbidirectional_iterator_tag@0@ABViterator@?$_Tree@V?$_Tmap_traits@KPAVCUser@@U?$less@K@std@@V?$allocator@U?$pair@$$CBKPAVCUser@@@std@@@3@$0A@@std@@@0@@Z
_TEXT	SEGMENT PARA USE32 PUBLIC 'CODE'
_TEXT	ENDS
;	COMDAT ??$_Distance2@Viterator@?$_Tree@V?$_Tmap_traits@KPAVCUser@@U?$less@K@std@@V?$allocator@U?$pair@$$CBKPAVCUser@@@std@@@3@$0A@@std@@@std@@I@std@@YAXViterator@?$_Tree@V?$_Tmap_traits@KPAVCUser@@U?$less@K@std@@V?$allocator@U?$pair@$$CBKPAVCUser@@@std@@@3@$0A@@std@@@0@0AAIUbidirectional_iterator_tag@0@@Z
_TEXT	SEGMENT PARA USE32 PUBLIC 'CODE'
_TEXT	ENDS
;	COMDAT ??$_Iter_cat@Viterator@?$_Tree@V?$_Tmap_traits@KPAVCCtrl@@U?$less@K@std@@V?$allocator@U?$pair@$$CBKPAVCCtrl@@@std@@@3@$0A@@std@@@std@@@std@@YA?AUbidirectional_iterator_tag@0@ABViterator@?$_Tree@V?$_Tmap_traits@KPAVCCtrl@@U?$less@K@std@@V?$allocator@U?$pair@$$CBKPAVCCtrl@@@std@@@3@$0A@@std@@@0@@Z
_TEXT	SEGMENT PARA USE32 PUBLIC 'CODE'
_TEXT	ENDS
;	COMDAT ??$_Distance2@Viterator@?$_Tree@V?$_Tmap_traits@KPAVCCtrl@@U?$less@K@std@@V?$allocator@U?$pair@$$CBKPAVCCtrl@@@std@@@3@$0A@@std@@@std@@I@std@@YAXViterator@?$_Tree@V?$_Tmap_traits@KPAVCCtrl@@U?$less@K@std@@V?$allocator@U?$pair@$$CBKPAVCCtrl@@@std@@@3@$0A@@std@@@0@0AAIUbidirectional_iterator_tag@0@@Z
_TEXT	SEGMENT PARA USE32 PUBLIC 'CODE'
_TEXT	ENDS
;	COMDAT ??$_Uninitialized_copy@Vconst_iterator@?$vector@EV?$allocator@E@std@@@std@@PAEV?$allocator@E@3@@std@@YAPAEVconst_iterator@?$vector@EV?$allocator@E@std@@@0@0PAEAAV?$allocator@E@0@@Z
_TEXT	SEGMENT PARA USE32 PUBLIC 'CODE'
_TEXT	ENDS
;	COMDAT ??$_Iter_cat@Viterator@?$_Tree@V?$_Tmap_traits@KEU?$less@K@std@@V?$allocator@U?$pair@$$CBKE@std@@@2@$0A@@std@@@std@@@std@@YA?AUbidirectional_iterator_tag@0@ABViterator@?$_Tree@V?$_Tmap_traits@KEU?$less@K@std@@V?$allocator@U?$pair@$$CBKE@std@@@2@$0A@@std@@@0@@Z
_TEXT	SEGMENT PARA USE32 PUBLIC 'CODE'
_TEXT	ENDS
;	COMDAT ??$_Distance2@Viterator@?$_Tree@V?$_Tmap_traits@KEU?$less@K@std@@V?$allocator@U?$pair@$$CBKE@std@@@2@$0A@@std@@@std@@I@std@@YAXViterator@?$_Tree@V?$_Tmap_traits@KEU?$less@K@std@@V?$allocator@U?$pair@$$CBKE@std@@@2@$0A@@std@@@0@0AAIUbidirectional_iterator_tag@0@@Z
_TEXT	SEGMENT PARA USE32 PUBLIC 'CODE'
_TEXT	ENDS
;	COMDAT ??$_Ptr_cat@PAU__SPAWNREGION@CEventLua@@PAU12@@std@@YA?AU_Nonscalar_ptr_iterator_tag@0@AAPAU__SPAWNREGION@CEventLua@@0@Z
_TEXT	SEGMENT PARA USE32 PUBLIC 'CODE'
_TEXT	ENDS
;	COMDAT ??$_Uninit_fill_n@PAU__SPAWNREGION@CEventLua@@IU12@V?$allocator@U__SPAWNREGION@CEventLua@@@std@@@std@@YAXPAU__SPAWNREGION@CEventLua@@IABU12@AAV?$allocator@U__SPAWNREGION@CEventLua@@@0@U_Nonscalar_ptr_iterator_tag@0@@Z
_TEXT	SEGMENT PARA USE32 PUBLIC 'CODE'
_TEXT	ENDS
;	COMDAT ??$_Copy_opt@PAJPAJ@std@@YAPAJPAJ00U_Scalar_ptr_iterator_tag@0@@Z
_TEXT	SEGMENT PARA USE32 PUBLIC 'CODE'
_TEXT	ENDS
;	COMDAT ??$_Uninitialized_copy@PAJPAJV?$allocator@J@std@@@std@@YAPAJPAJ00AAV?$allocator@J@0@@Z
_TEXT	SEGMENT PARA USE32 PUBLIC 'CODE'
_TEXT	ENDS
;	COMDAT ??$_Copy_backward_opt@PAJPAJ@std@@YAPAJPAJ00U_Scalar_ptr_iterator_tag@0@@Z
_TEXT	SEGMENT PARA USE32 PUBLIC 'CODE'
_TEXT	ENDS
;	COMDAT ??$_Ptr_cat@PAUtagDROPITEM@@PAU1@@std@@YA?AU_Nonscalar_ptr_iterator_tag@0@AAPAUtagDROPITEM@@0@Z
_TEXT	SEGMENT PARA USE32 PUBLIC 'CODE'
_TEXT	ENDS
;	COMDAT ??$_Destroy_range@UtagDROPITEM@@V?$allocator@UtagDROPITEM@@@std@@@std@@YAXPAUtagDROPITEM@@0AAV?$allocator@UtagDROPITEM@@@0@U_Nonscalar_ptr_iterator_tag@0@@Z
_TEXT	SEGMENT PARA USE32 PUBLIC 'CODE'
_TEXT	ENDS
;	COMDAT ??$_Ptr_cat@PAUWORMON@@PAU1@@std@@YA?AU_Nonscalar_ptr_iterator_tag@0@AAPAUWORMON@@0@Z
_TEXT	SEGMENT PARA USE32 PUBLIC 'CODE'
_TEXT	ENDS
;	COMDAT ??$_Destroy_range@UWORMON@@V?$allocator@UWORMON@@@std@@@std@@YAXPAUWORMON@@0AAV?$allocator@UWORMON@@@0@U_Nonscalar_ptr_iterator_tag@0@@Z
_TEXT	SEGMENT PARA USE32 PUBLIC 'CODE'
_TEXT	ENDS
;	COMDAT ??$_Ptr_cat@PAU__ITEMGAME@CMiniGame@@PAU12@@std@@YA?AU_Nonscalar_ptr_iterator_tag@0@AAPAU__ITEMGAME@CMiniGame@@0@Z
_TEXT	SEGMENT PARA USE32 PUBLIC 'CODE'
_TEXT	ENDS
;	COMDAT ??$_Destroy_range@U__ITEMGAME@CMiniGame@@V?$allocator@U__ITEMGAME@CMiniGame@@@std@@@std@@YAXPAU__ITEMGAME@CMiniGame@@0AAV?$allocator@U__ITEMGAME@CMiniGame@@@0@U_Nonscalar_ptr_iterator_tag@0@@Z
_TEXT	SEGMENT PARA USE32 PUBLIC 'CODE'
_TEXT	ENDS
;	COMDAT ??$_Destroy_range@KV?$allocator@K@std@@@std@@YAXPAK0AAV?$allocator@K@0@U_Scalar_ptr_iterator_tag@0@@Z
_TEXT	SEGMENT PARA USE32 PUBLIC 'CODE'
_TEXT	ENDS
;	COMDAT ??$_Destroy_range@HV?$allocator@H@std@@@std@@YAXPAH0AAV?$allocator@H@0@U_Scalar_ptr_iterator_tag@0@@Z
_TEXT	SEGMENT PARA USE32 PUBLIC 'CODE'
_TEXT	ENDS
;	COMDAT ??$_Ptr_cat@PAU__ITEM@CExchange@@PAU12@@std@@YA?AU_Nonscalar_ptr_iterator_tag@0@AAPAU__ITEM@CExchange@@0@Z
_TEXT	SEGMENT PARA USE32 PUBLIC 'CODE'
_TEXT	ENDS
;	COMDAT ??$_Destroy_range@U__ITEM@CExchange@@V?$allocator@U__ITEM@CExchange@@@std@@@std@@YAXPAU__ITEM@CExchange@@0AAV?$allocator@U__ITEM@CExchange@@@0@U_Nonscalar_ptr_iterator_tag@0@@Z
_TEXT	SEGMENT PARA USE32 PUBLIC 'CODE'
_TEXT	ENDS
;	COMDAT ??$_Ptr_cat@PAU__POINT@CExchange@@PAU12@@std@@YA?AU_Nonscalar_ptr_iterator_tag@0@AAPAU__POINT@CExchange@@0@Z
_TEXT	SEGMENT PARA USE32 PUBLIC 'CODE'
_TEXT	ENDS
;	COMDAT ??$_Destroy_range@U__POINT@CExchange@@V?$allocator@U__POINT@CExchange@@@std@@@std@@YAXPAU__POINT@CExchange@@0AAV?$allocator@U__POINT@CExchange@@@0@U_Nonscalar_ptr_iterator_tag@0@@Z
_TEXT	SEGMENT PARA USE32 PUBLIC 'CODE'
_TEXT	ENDS
;	COMDAT ??$_Destroy_range@EV?$allocator@E@std@@@std@@YAXPAE0AAV?$allocator@E@0@U_Scalar_ptr_iterator_tag@0@@Z
_TEXT	SEGMENT PARA USE32 PUBLIC 'CODE'
_TEXT	ENDS
;	COMDAT ??$_Uninitialized_copy@PAU__SPAWNREGION@CEventLua@@PAU12@V?$allocator@U__SPAWNREGION@CEventLua@@@std@@@std@@YAPAU__SPAWNREGION@CEventLua@@PAU12@00AAV?$allocator@U__SPAWNREGION@CEventLua@@@0@@Z
_TEXT	SEGMENT PARA USE32 PUBLIC 'CODE'
_TEXT	ENDS
;	COMDAT ??$_Copy_backward_opt@PAU__SPAWNREGION@CEventLua@@PAU12@@std@@YAPAU__SPAWNREGION@CEventLua@@PAU12@00U_Nonscalar_ptr_iterator_tag@0@@Z
_TEXT	SEGMENT PARA USE32 PUBLIC 'CODE'
_TEXT	ENDS
;	COMDAT ??$_Ptr_cat@PAUD3DXVECTOR3@@PAU1@@std@@YA?AU_Nonscalar_ptr_iterator_tag@0@AAPAUD3DXVECTOR3@@0@Z
_TEXT	SEGMENT PARA USE32 PUBLIC 'CODE'
_TEXT	ENDS
;	COMDAT ??$_Destroy_range@UD3DXVECTOR3@@V?$allocator@UD3DXVECTOR3@@@std@@@std@@YAXPAUD3DXVECTOR3@@0AAV?$allocator@UD3DXVECTOR3@@@0@U_Nonscalar_ptr_iterator_tag@0@@Z
_TEXT	SEGMENT PARA USE32 PUBLIC 'CODE'
_TEXT	ENDS
;	COMDAT ??$_Ptr_cat@PAU_GIFTBOX@@PAU1@@std@@YA?AU_Nonscalar_ptr_iterator_tag@0@AAPAU_GIFTBOX@@0@Z
_TEXT	SEGMENT PARA USE32 PUBLIC 'CODE'
_TEXT	ENDS
;	COMDAT ??$_Destroy_range@U_GIFTBOX@@V?$allocator@U_GIFTBOX@@@std@@@std@@YAXPAU_GIFTBOX@@0AAV?$allocator@U_GIFTBOX@@@0@U_Nonscalar_ptr_iterator_tag@0@@Z
_TEXT	SEGMENT PARA USE32 PUBLIC 'CODE'
_TEXT	ENDS
;	COMDAT ??$_Destroy_range@JV?$allocator@J@std@@@std@@YAXPAJ0AAV?$allocator@J@0@U_Scalar_ptr_iterator_tag@0@@Z
_TEXT	SEGMENT PARA USE32 PUBLIC 'CODE'
_TEXT	ENDS
;	COMDAT ??$_Uninit_fill_n@JIJ@std@@YAXPAJIABJAAV?$allocator@J@0@U_Scalar_ptr_iterator_tag@0@@Z
_TEXT	SEGMENT PARA USE32 PUBLIC 'CODE'
_TEXT	ENDS
;	COMDAT ??$_Destroy_range@U__SPAWNREGION@CEventLua@@V?$allocator@U__SPAWNREGION@CEventLua@@@std@@@std@@YAXPAU__SPAWNREGION@CEventLua@@0AAV?$allocator@U__SPAWNREGION@CEventLua@@@0@U_Nonscalar_ptr_iterator_tag@0@@Z
_TEXT	SEGMENT PARA USE32 PUBLIC 'CODE'
_TEXT	ENDS
;	COMDAT ??$?0PAUtagACTMSG@@@?$allocator@PAPAUtagACTMSG@@@std@@QAE@ABV?$allocator@PAUtagACTMSG@@@1@@Z
_TEXT	SEGMENT PARA USE32 PUBLIC 'CODE'
_TEXT	ENDS
;	COMDAT ??$_Destroy@PAPAUtagACTMSG@@@std@@YAXPAPAPAUtagACTMSG@@@Z
_TEXT	SEGMENT PARA USE32 PUBLIC 'CODE'
_TEXT	ENDS
;	COMDAT ??$?0PAUtagMAGICATKMSG@@@?$allocator@PAPAUtagMAGICATKMSG@@@std@@QAE@ABV?$allocator@PAUtagMAGICATKMSG@@@1@@Z
_TEXT	SEGMENT PARA USE32 PUBLIC 'CODE'
_TEXT	ENDS
;	COMDAT ??$_Destroy@PAPAUtagMAGICATKMSG@@@std@@YAXPAPAPAUtagMAGICATKMSG@@@Z
_TEXT	SEGMENT PARA USE32 PUBLIC 'CODE'
_TEXT	ENDS
;	COMDAT ??$_Destroy@PAUtagACTMSG@@@std@@YAXPAPAUtagACTMSG@@@Z
_TEXT	SEGMENT PARA USE32 PUBLIC 'CODE'
_TEXT	ENDS
;	COMDAT ??$_Destroy@PAUtagMAGICATKMSG@@@std@@YAXPAPAUtagMAGICATKMSG@@@Z
_TEXT	SEGMENT PARA USE32 PUBLIC 'CODE'
_TEXT	ENDS
;	COMDAT ?destroy@?$allocator@UtagDROPITEM@@@std@@QAEXPAUtagDROPITEM@@@Z
_TEXT	SEGMENT PARA USE32 PUBLIC 'CODE'
_TEXT	ENDS
;	COMDAT ?destroy@?$allocator@UWORMON@@@std@@QAEXPAUWORMON@@@Z
_TEXT	SEGMENT PARA USE32 PUBLIC 'CODE'
_TEXT	ENDS
;	COMDAT ?destroy@?$allocator@U__ITEMGAME@CMiniGame@@@std@@QAEXPAU__ITEMGAME@CMiniGame@@@Z
_TEXT	SEGMENT PARA USE32 PUBLIC 'CODE'
_TEXT	ENDS
;	COMDAT ?destroy@?$allocator@U__ITEM@CExchange@@@std@@QAEXPAU__ITEM@CExchange@@@Z
_TEXT	SEGMENT PARA USE32 PUBLIC 'CODE'
_TEXT	ENDS
;	COMDAT ?destroy@?$allocator@U__POINT@CExchange@@@std@@QAEXPAU__POINT@CExchange@@@Z
_TEXT	SEGMENT PARA USE32 PUBLIC 'CODE'
_TEXT	ENDS
;	COMDAT ?begin@?$vector@EV?$allocator@E@std@@@std@@QAE?AViterator@12@XZ
_TEXT	SEGMENT PARA USE32 PUBLIC 'CODE'
_TEXT	ENDS
;	COMDAT ?end@?$vector@EV?$allocator@E@std@@@std@@QAE?AViterator@12@XZ
_TEXT	SEGMENT PARA USE32 PUBLIC 'CODE'
_TEXT	ENDS
;	COMDAT ?erase@?$vector@EV?$allocator@E@std@@@std@@QAE?AViterator@12@V312@0@Z
_TEXT	SEGMENT PARA USE32 PUBLIC 'CODE'
_TEXT	ENDS
;	COMDAT ?construct@?$allocator@U__SPAWNREGION@CEventLua@@@std@@QAEXPAU__SPAWNREGION@CEventLua@@ABU34@@Z
_TEXT	SEGMENT PARA USE32 PUBLIC 'CODE'
_TEXT	ENDS
;	COMDAT ?destroy@?$allocator@U__SPAWNREGION@CEventLua@@@std@@QAEXPAU__SPAWNREGION@CEventLua@@@Z
_TEXT	SEGMENT PARA USE32 PUBLIC 'CODE'
_TEXT	ENDS
;	COMDAT ?destroy@?$allocator@UD3DXVECTOR3@@@std@@QAEXPAUD3DXVECTOR3@@@Z
_TEXT	SEGMENT PARA USE32 PUBLIC 'CODE'
_TEXT	ENDS
;	COMDAT ?destroy@?$allocator@U_GIFTBOX@@@std@@QAEXPAU_GIFTBOX@@@Z
_TEXT	SEGMENT PARA USE32 PUBLIC 'CODE'
_TEXT	ENDS
;	COMDAT ??9const_iterator@?$vector@EV?$allocator@E@std@@@std@@QBE_NABV012@@Z
_TEXT	SEGMENT PARA USE32 PUBLIC 'CODE'
_TEXT	ENDS
;	COMDAT ??0iterator@?$vector@EV?$allocator@E@std@@@std@@QAE@PAE@Z
_TEXT	SEGMENT PARA USE32 PUBLIC 'CODE'
_TEXT	ENDS
;	COMDAT ??8const_iterator@?$vector@EV?$allocator@E@std@@@std@@QBE_NABV012@@Z
_TEXT	SEGMENT PARA USE32 PUBLIC 'CODE'
_TEXT	ENDS
;	COMDAT ??$insert@Vconst_iterator@?$vector@EV?$allocator@E@std@@@std@@@?$vector@EV?$allocator@E@std@@@std@@QAEXViterator@01@Vconst_iterator@01@1@Z
_TEXT	SEGMENT PARA USE32 PUBLIC 'CODE'
_TEXT	ENDS
;	COMDAT ??$_Ptr_cat@Vconst_iterator@?$vector@EV?$allocator@E@std@@@std@@PAE@std@@YA?AU_Nonscalar_ptr_iterator_tag@0@AAVconst_iterator@?$vector@EV?$allocator@E@std@@@0@AAPAE@Z
_TEXT	SEGMENT PARA USE32 PUBLIC 'CODE'
_TEXT	ENDS
;	COMDAT ??$_Uninit_copy@Vconst_iterator@?$vector@EV?$allocator@E@std@@@std@@PAEV?$allocator@E@3@@std@@YAPAEVconst_iterator@?$vector@EV?$allocator@E@std@@@0@0PAEAAV?$allocator@E@0@U_Nonscalar_ptr_iterator_tag@0@@Z
_TEXT	SEGMENT PARA USE32 PUBLIC 'CODE'
_TEXT	ENDS
;	COMDAT ??$_Uninit_copy@JJ@std@@YAPAJPAJ00AAV?$allocator@J@0@U_Scalar_ptr_iterator_tag@0@@Z
_TEXT	SEGMENT PARA USE32 PUBLIC 'CODE'
_TEXT	ENDS
;	COMDAT ??$_Uninit_copy@PAU__SPAWNREGION@CEventLua@@PAU12@V?$allocator@U__SPAWNREGION@CEventLua@@@std@@@std@@YAPAU__SPAWNREGION@CEventLua@@PAU12@00AAV?$allocator@U__SPAWNREGION@CEventLua@@@0@U_Nonscalar_ptr_iterator_tag@0@@Z
_TEXT	SEGMENT PARA USE32 PUBLIC 'CODE'
_TEXT	ENDS
;	COMDAT ??$fill_n@PAJIJ@std@@YAXPAJIABJ@Z
_TEXT	SEGMENT PARA USE32 PUBLIC 'CODE'
_TEXT	ENDS
;	COMDAT ??$_Destroy@UtagDROPITEM@@@std@@YAXPAUtagDROPITEM@@@Z
_TEXT	SEGMENT PARA USE32 PUBLIC 'CODE'
_TEXT	ENDS
;	COMDAT ??$_Destroy@UWORMON@@@std@@YAXPAUWORMON@@@Z
_TEXT	SEGMENT PARA USE32 PUBLIC 'CODE'
_TEXT	ENDS
;	COMDAT ??$_Destroy@U__ITEMGAME@CMiniGame@@@std@@YAXPAU__ITEMGAME@CMiniGame@@@Z
_TEXT	SEGMENT PARA USE32 PUBLIC 'CODE'
_TEXT	ENDS
;	COMDAT ??$_Destroy@U__ITEM@CExchange@@@std@@YAXPAU__ITEM@CExchange@@@Z
_TEXT	SEGMENT PARA USE32 PUBLIC 'CODE'
_TEXT	ENDS
;	COMDAT ??$_Destroy@U__POINT@CExchange@@@std@@YAXPAU__POINT@CExchange@@@Z
_TEXT	SEGMENT PARA USE32 PUBLIC 'CODE'
_TEXT	ENDS
;	COMDAT ??$copy@PAEPAE@std@@YAPAEPAE00@Z
_TEXT	SEGMENT PARA USE32 PUBLIC 'CODE'
_TEXT	ENDS
;	COMDAT ??$_Construct@U__SPAWNREGION@CEventLua@@U12@@std@@YAXPAU__SPAWNREGION@CEventLua@@ABU12@@Z
_TEXT	SEGMENT PARA USE32 PUBLIC 'CODE'
_TEXT	ENDS
;	COMDAT ??$_Destroy@U__SPAWNREGION@CEventLua@@@std@@YAXPAU__SPAWNREGION@CEventLua@@@Z
_TEXT	SEGMENT PARA USE32 PUBLIC 'CODE'
_TEXT	ENDS
;	COMDAT ??$_Destroy@UD3DXVECTOR3@@@std@@YAXPAUD3DXVECTOR3@@@Z
_TEXT	SEGMENT PARA USE32 PUBLIC 'CODE'
_TEXT	ENDS
;	COMDAT ??$_Destroy@U_GIFTBOX@@@std@@YAXPAU_GIFTBOX@@@Z
_TEXT	SEGMENT PARA USE32 PUBLIC 'CODE'
_TEXT	ENDS
;	COMDAT ?construct@?$allocator@E@std@@QAEXPAEABE@Z
_TEXT	SEGMENT PARA USE32 PUBLIC 'CODE'
_TEXT	ENDS
;	COMDAT ?destroy@?$allocator@E@std@@QAEXPAE@Z
_TEXT	SEGMENT PARA USE32 PUBLIC 'CODE'
_TEXT	ENDS
;	COMDAT ??Dconst_iterator@?$vector@EV?$allocator@E@std@@@std@@QBEABEXZ
_TEXT	SEGMENT PARA USE32 PUBLIC 'CODE'
_TEXT	ENDS
;	COMDAT ??Econst_iterator@?$vector@EV?$allocator@E@std@@@std@@QAEAAV012@XZ
_TEXT	SEGMENT PARA USE32 PUBLIC 'CODE'
_TEXT	ENDS
;	COMDAT ??$_Insert@Vconst_iterator@?$vector@EV?$allocator@E@std@@@std@@@?$vector@EV?$allocator@E@std@@@std@@QAEXViterator@01@Vconst_iterator@01@1Uforward_iterator_tag@1@@Z
_TEXT	SEGMENT PARA USE32 PUBLIC 'CODE'
_TEXT	ENDS
;	COMDAT ??$_Copy_opt@PAEPAE@std@@YAPAEPAE00U_Scalar_ptr_iterator_tag@0@@Z
_TEXT	SEGMENT PARA USE32 PUBLIC 'CODE'
_TEXT	ENDS
;	COMDAT ??$_Construct@EE@std@@YAXPAEABE@Z
_TEXT	SEGMENT PARA USE32 PUBLIC 'CODE'
_TEXT	ENDS
;	COMDAT ??$_Destroy@E@std@@YAXPAE@Z
_TEXT	SEGMENT PARA USE32 PUBLIC 'CODE'
_TEXT	ENDS
;	COMDAT ?capacity@?$vector@EV?$allocator@E@std@@@std@@QBEIXZ
_TEXT	SEGMENT PARA USE32 PUBLIC 'CODE'
_TEXT	ENDS
;	COMDAT ??Giterator@?$vector@EV?$allocator@E@std@@@std@@QBEHABVconst_iterator@12@@Z
_TEXT	SEGMENT PARA USE32 PUBLIC 'CODE'
_TEXT	ENDS
;	COMDAT ??Gconst_iterator@?$vector@EV?$allocator@E@std@@@std@@QBEHABV012@@Z
_TEXT	SEGMENT PARA USE32 PUBLIC 'CODE'
_TEXT	ENDS
;	COMDAT ??$_Distance@Vconst_iterator@?$vector@EV?$allocator@E@std@@@std@@I@std@@YAXVconst_iterator@?$vector@EV?$allocator@E@std@@@0@0AAI@Z
_TEXT	SEGMENT PARA USE32 PUBLIC 'CODE'
_TEXT	ENDS
;	COMDAT ??$_Ucopy@PAE@?$vector@EV?$allocator@E@std@@@std@@IAEPAEPAE00@Z
_TEXT	SEGMENT PARA USE32 PUBLIC 'CODE'
_TEXT	ENDS
;	COMDAT ??$advance@Vconst_iterator@?$vector@EV?$allocator@E@std@@@std@@H@std@@YAXAAVconst_iterator@?$vector@EV?$allocator@E@std@@@0@H@Z
_TEXT	SEGMENT PARA USE32 PUBLIC 'CODE'
_TEXT	ENDS
;	COMDAT ??$copy@Vconst_iterator@?$vector@EV?$allocator@E@std@@@std@@PAE@std@@YAPAEVconst_iterator@?$vector@EV?$allocator@E@std@@@0@0PAE@Z
_TEXT	SEGMENT PARA USE32 PUBLIC 'CODE'
_TEXT	ENDS
;	COMDAT ??$copy_backward@PAEPAE@std@@YAPAEPAE00@Z
_TEXT	SEGMENT PARA USE32 PUBLIC 'CODE'
_TEXT	ENDS
;	COMDAT ??$_Distance2@Vconst_iterator@?$vector@EV?$allocator@E@std@@@std@@I@std@@YAXVconst_iterator@?$vector@EV?$allocator@E@std@@@0@0AAIUrandom_access_iterator_tag@0@@Z
_TEXT	SEGMENT PARA USE32 PUBLIC 'CODE'
_TEXT	ENDS
;	COMDAT ??$_Uninitialized_copy@PAEPAEV?$allocator@E@std@@@std@@YAPAEPAE00AAV?$allocator@E@0@@Z
_TEXT	SEGMENT PARA USE32 PUBLIC 'CODE'
_TEXT	ENDS
;	COMDAT ??$_Advance@Vconst_iterator@?$vector@EV?$allocator@E@std@@@std@@H@std@@YAXAAVconst_iterator@?$vector@EV?$allocator@E@std@@@0@HUrandom_access_iterator_tag@0@@Z
_TEXT	SEGMENT PARA USE32 PUBLIC 'CODE'
_TEXT	ENDS
;	COMDAT ??$_Copy_opt@Vconst_iterator@?$vector@EV?$allocator@E@std@@@std@@PAE@std@@YAPAEVconst_iterator@?$vector@EV?$allocator@E@std@@@0@0PAEU_Nonscalar_ptr_iterator_tag@0@@Z
_TEXT	SEGMENT PARA USE32 PUBLIC 'CODE'
_TEXT	ENDS
;	COMDAT ??$_Copy_backward_opt@PAEPAE@std@@YAPAEPAE00U_Scalar_ptr_iterator_tag@0@@Z
_TEXT	SEGMENT PARA USE32 PUBLIC 'CODE'
_TEXT	ENDS
;	COMDAT ??Yconst_iterator@?$vector@EV?$allocator@E@std@@@std@@QAEAAV012@H@Z
_TEXT	SEGMENT PARA USE32 PUBLIC 'CODE'
_TEXT	ENDS
;	COMDAT ??$_Uninit_copy@EE@std@@YAPAEPAE00AAV?$allocator@E@0@U_Scalar_ptr_iterator_tag@0@@Z
_TEXT	SEGMENT PARA USE32 PUBLIC 'CODE'
_TEXT	ENDS
;	COMDAT ?deallocate@?$allocator@E@std@@QAEXPAEI@Z
_TEXT	SEGMENT PARA USE32 PUBLIC 'CODE'
_TEXT	ENDS
;	COMDAT ??$_Ucopy@Vconst_iterator@?$vector@EV?$allocator@E@std@@@std@@@?$vector@EV?$allocator@E@std@@@std@@IAEPAEVconst_iterator@01@0PAE@Z
_TEXT	SEGMENT PARA USE32 PUBLIC 'CODE'
_TEXT	ENDS
;	COMDAT ?allocate@?$allocator@E@std@@QAEPAEI@Z
_TEXT	SEGMENT PARA USE32 PUBLIC 'CODE'
_TEXT	ENDS
;	COMDAT ??$_Allocate@E@std@@YAPAEIPAE@Z
_TEXT	SEGMENT PARA USE32 PUBLIC 'CODE'
_TEXT	ENDS
;	COMDAT ?_Xlen@?$vector@EV?$allocator@E@std@@@std@@IBEXXZ
_TEXT	SEGMENT PARA USE32 PUBLIC 'CODE'
_TEXT	ENDS
;	COMDAT ??0length_error@std@@QAE@ABV?$basic_string@DU?$char_traits@D@std@@V?$allocator@D@2@@1@@Z
_TEXT	SEGMENT PARA USE32 PUBLIC 'CODE'
_TEXT	ENDS
;	COMDAT ??0logic_error@std@@QAE@ABV?$basic_string@DU?$char_traits@D@std@@V?$allocator@D@2@@1@@Z
_TEXT	SEGMENT PARA USE32 PUBLIC 'CODE'
_TEXT	ENDS
;	COMDAT ??_7logic_error@std@@6B@
CONST	SEGMENT DWORD USE32 PUBLIC 'CONST'
CONST	ENDS
;	COMDAT ??_Glogic_error@std@@UAEPAXI@Z
_TEXT	SEGMENT PARA USE32 PUBLIC 'CODE'
_TEXT	ENDS
;	COMDAT ?what@logic_error@std@@UBEPBDXZ
_TEXT	SEGMENT PARA USE32 PUBLIC 'CODE'
_TEXT	ENDS
;	COMDAT ?c_str@?$basic_string@DU?$char_traits@D@std@@V?$allocator@D@2@@std@@QBEPBDXZ
_TEXT	SEGMENT PARA USE32 PUBLIC 'CODE'
_TEXT	ENDS
;	COMDAT ??0?$basic_string@DU?$char_traits@D@std@@V?$allocator@D@2@@std@@QAE@ABV01@@Z
_TEXT	SEGMENT PARA USE32 PUBLIC 'CODE'
_TEXT	ENDS
;	COMDAT ??0?$_String_val@DV?$allocator@D@std@@@std@@IAE@V?$allocator@D@1@@Z
_TEXT	SEGMENT PARA USE32 PUBLIC 'CODE'
_TEXT	ENDS
;	COMDAT ??0?$allocator@D@std@@QAE@ABV01@@Z
_TEXT	SEGMENT PARA USE32 PUBLIC 'CODE'
_TEXT	ENDS
;	COMDAT ?_Tidy@?$basic_string@DU?$char_traits@D@std@@V?$allocator@D@2@@std@@IAEX_NI@Z
_TEXT	SEGMENT PARA USE32 PUBLIC 'CODE'
_TEXT	ENDS
;	COMDAT ?copy@?$char_traits@D@std@@SAPADPADPBDI@Z
_TEXT	SEGMENT PARA USE32 PUBLIC 'CODE'
_TEXT	ENDS
;	COMDAT ?deallocate@?$allocator@D@std@@QAEXPADI@Z
_TEXT	SEGMENT PARA USE32 PUBLIC 'CODE'
_TEXT	ENDS
;	COMDAT ?_Eos@?$basic_string@DU?$char_traits@D@std@@V?$allocator@D@2@@std@@IAEXI@Z
_TEXT	SEGMENT PARA USE32 PUBLIC 'CODE'
_TEXT	ENDS
;	COMDAT ?assign@?$char_traits@D@std@@SAXAADABD@Z
_TEXT	SEGMENT PARA USE32 PUBLIC 'CODE'
_TEXT	ENDS
;	COMDAT ?_Myptr@?$basic_string@DU?$char_traits@D@std@@V?$allocator@D@2@@std@@QAEPADXZ
_TEXT	SEGMENT PARA USE32 PUBLIC 'CODE'
_TEXT	ENDS
;	COMDAT ?assign@?$basic_string@DU?$char_traits@D@std@@V?$allocator@D@2@@std@@QAEAAV12@ABV12@II@Z
_TEXT	SEGMENT PARA USE32 PUBLIC 'CODE'
_TEXT	ENDS
;	COMDAT ?erase@?$basic_string@DU?$char_traits@D@std@@V?$allocator@D@2@@std@@QAEAAV12@II@Z
_TEXT	SEGMENT PARA USE32 PUBLIC 'CODE'
_TEXT	ENDS
;	COMDAT ?move@?$char_traits@D@std@@SAPADPADPBDI@Z
_TEXT	SEGMENT PARA USE32 PUBLIC 'CODE'
_TEXT	ENDS
;	COMDAT ?_Grow@?$basic_string@DU?$char_traits@D@std@@V?$allocator@D@2@@std@@IAE_NI_N@Z
_TEXT	SEGMENT PARA USE32 PUBLIC 'CODE'
_TEXT	ENDS
;	COMDAT ?max_size@?$basic_string@DU?$char_traits@D@std@@V?$allocator@D@2@@std@@QBEIXZ
_TEXT	SEGMENT PARA USE32 PUBLIC 'CODE'
_TEXT	ENDS
;	COMDAT ?max_size@?$allocator@D@std@@QBEIXZ
_TEXT	SEGMENT PARA USE32 PUBLIC 'CODE'
_TEXT	ENDS
;	COMDAT ?_Copy@?$basic_string@DU?$char_traits@D@std@@V?$allocator@D@2@@std@@IAEXII@Z
_TEXT	SEGMENT PARA USE32 PUBLIC 'CODE'
_TEXT	ENDS
;	COMDAT ?allocate@?$allocator@D@std@@QAEPADI@Z
_TEXT	SEGMENT PARA USE32 PUBLIC 'CODE'
_TEXT	ENDS
;	COMDAT ??$_Allocate@D@std@@YAPADIPAD@Z
_TEXT	SEGMENT PARA USE32 PUBLIC 'CODE'
_TEXT	ENDS
;	COMDAT ?npos@?$basic_string@DU?$char_traits@D@std@@V?$allocator@D@2@@std@@2IB
CONST	SEGMENT DWORD USE32 PUBLIC 'CONST'
CONST	ENDS
;	COMDAT ??1logic_error@std@@UAE@XZ
_TEXT	SEGMENT PARA USE32 PUBLIC 'CODE'
_TEXT	ENDS
;	COMDAT ??_7length_error@std@@6B@
CONST	SEGMENT DWORD USE32 PUBLIC 'CONST'
CONST	ENDS
;	COMDAT ??_Glength_error@std@@UAEPAXI@Z
_TEXT	SEGMENT PARA USE32 PUBLIC 'CODE'
_TEXT	ENDS
;	COMDAT ??1length_error@std@@UAE@XZ
_TEXT	SEGMENT PARA USE32 PUBLIC 'CODE'
_TEXT	ENDS
;	COMDAT ??0?$basic_string@DU?$char_traits@D@std@@V?$allocator@D@2@@std@@QAE@PBD@Z
_TEXT	SEGMENT PARA USE32 PUBLIC 'CODE'
_TEXT	ENDS
;	COMDAT ??0?$allocator@D@std@@QAE@XZ
_TEXT	SEGMENT PARA USE32 PUBLIC 'CODE'
_TEXT	ENDS
;	COMDAT ?assign@?$basic_string@DU?$char_traits@D@std@@V?$allocator@D@2@@std@@QAEAAV12@PBD@Z
_TEXT	SEGMENT PARA USE32 PUBLIC 'CODE'
_TEXT	ENDS
;	COMDAT ?assign@?$basic_string@DU?$char_traits@D@std@@V?$allocator@D@2@@std@@QAEAAV12@PBDI@Z
_TEXT	SEGMENT PARA USE32 PUBLIC 'CODE'
_TEXT	ENDS
;	COMDAT ?_Inside@?$basic_string@DU?$char_traits@D@std@@V?$allocator@D@2@@std@@IAE_NPBD@Z
_TEXT	SEGMENT PARA USE32 PUBLIC 'CODE'
_TEXT	ENDS
;	COMDAT ?length@?$char_traits@D@std@@SAIPBD@Z
_TEXT	SEGMENT PARA USE32 PUBLIC 'CODE'
_TEXT	ENDS
;	COMDAT ??_C@_0BD@OLBABOEK@vector?$DMT?$DO?5too?5long?$AA@
CONST	SEGMENT DWORD USE32 PUBLIC 'CONST'
CONST	ENDS
;	COMDAT ??1?$basic_string@DU?$char_traits@D@std@@V?$allocator@D@2@@std@@QAE@XZ
_TEXT	SEGMENT PARA USE32 PUBLIC 'CODE'
_TEXT	ENDS
;	COMDAT __TI3?AVlength_error@std@@
xdata$x	SEGMENT DWORD USE32 PUBLIC 'CONST'
xdata$x	ENDS
;	COMDAT __CTA3?AVlength_error@std@@
xdata$x	SEGMENT DWORD USE32 PUBLIC 'CONST'
xdata$x	ENDS
;	COMDAT __CT??_R0?AVlength_error@std@@@8??0length_error@std@@QAE@ABV01@@Z40
xdata$x	SEGMENT DWORD USE32 PUBLIC 'CONST'
xdata$x	ENDS
;	COMDAT ??_R0?AVlength_error@std@@@8
_DATA	SEGMENT DWORD USE32 PUBLIC 'DATA'
_DATA	ENDS
;	COMDAT ??0length_error@std@@QAE@ABV01@@Z
_TEXT	SEGMENT PARA USE32 PUBLIC 'CODE'
_TEXT	ENDS
;	COMDAT ??0logic_error@std@@QAE@ABV01@@Z
_TEXT	SEGMENT PARA USE32 PUBLIC 'CODE'
_TEXT	ENDS
;	COMDAT __CT??_R0?AVlogic_error@std@@@8??0logic_error@std@@QAE@ABV01@@Z40
xdata$x	SEGMENT DWORD USE32 PUBLIC 'CONST'
xdata$x	ENDS
;	COMDAT ??_R0?AVlogic_error@std@@@8
_DATA	SEGMENT DWORD USE32 PUBLIC 'DATA'
_DATA	ENDS
;	COMDAT __CT??_R0?AVexception@@@8??0exception@@QAE@ABV0@@Z12
xdata$x	SEGMENT DWORD USE32 PUBLIC 'CONST'
xdata$x	ENDS
;	COMDAT ??_R0?AVexception@@@8
_DATA	SEGMENT DWORD USE32 PUBLIC 'DATA'
_DATA	ENDS
;	COMDAT ?size@?$vector@EV?$allocator@E@std@@@std@@QBEIXZ
_TEXT	SEGMENT PARA USE32 PUBLIC 'CODE'
_TEXT	ENDS
;	COMDAT ?max_size@?$vector@EV?$allocator@E@std@@@std@@QBEIXZ
_TEXT	SEGMENT PARA USE32 PUBLIC 'CODE'
_TEXT	ENDS
;	COMDAT ?max_size@?$allocator@E@std@@QBEIXZ
_TEXT	SEGMENT PARA USE32 PUBLIC 'CODE'
_TEXT	ENDS
;	COMDAT ??2@YAPAXIPAX@Z
_TEXT	SEGMENT PARA USE32 PUBLIC 'CODE'
_TEXT	ENDS
;	COMDAT ?_Ptr_cat@std@@YA?AU_Scalar_ptr_iterator_tag@1@PAE0@Z
_TEXT	SEGMENT PARA USE32 PUBLIC 'CODE'
_TEXT	ENDS
;	COMDAT ??0const_iterator@?$vector@EV?$allocator@E@std@@@std@@QAE@PAE@Z
_TEXT	SEGMENT PARA USE32 PUBLIC 'CODE'
_TEXT	ENDS
;	COMDAT ?_Destroy@?$vector@EV?$allocator@E@std@@@std@@IAEXPAE0@Z
_TEXT	SEGMENT PARA USE32 PUBLIC 'CODE'
_TEXT	ENDS
;	COMDAT ??$_Destroy_range@EV?$allocator@E@std@@@std@@YAXPAE0AAV?$allocator@E@0@@Z
_TEXT	SEGMENT PARA USE32 PUBLIC 'CODE'
_TEXT	ENDS
;	COMDAT ?_Ptr_cat@std@@YA?AU_Scalar_ptr_iterator_tag@1@PAJ0@Z
_TEXT	SEGMENT PARA USE32 PUBLIC 'CODE'
_TEXT	ENDS
;	COMDAT ??9const_iterator@?$_Tree@V?$_Tmap_traits@KEU?$less@K@std@@V?$allocator@U?$pair@$$CBKE@std@@@2@$0A@@std@@@std@@QBE_NABV012@@Z
_TEXT	SEGMENT PARA USE32 PUBLIC 'CODE'
_TEXT	ENDS
;	COMDAT ??8const_iterator@?$_Tree@V?$_Tmap_traits@KEU?$less@K@std@@V?$allocator@U?$pair@$$CBKE@std@@@2@$0A@@std@@@std@@QBE_NABV012@@Z
_TEXT	SEGMENT PARA USE32 PUBLIC 'CODE'
_TEXT	ENDS
;	COMDAT ??Eiterator@?$_Tree@V?$_Tmap_traits@KEU?$less@K@std@@V?$allocator@U?$pair@$$CBKE@std@@@2@$0A@@std@@@std@@QAEAAV012@XZ
_TEXT	SEGMENT PARA USE32 PUBLIC 'CODE'
_TEXT	ENDS
;	COMDAT ??Econst_iterator@?$_Tree@V?$_Tmap_traits@KEU?$less@K@std@@V?$allocator@U?$pair@$$CBKE@std@@@2@$0A@@std@@@std@@QAEAAV012@XZ
_TEXT	SEGMENT PARA USE32 PUBLIC 'CODE'
_TEXT	ENDS
;	COMDAT ?_Inc@const_iterator@?$_Tree@V?$_Tmap_traits@KEU?$less@K@std@@V?$allocator@U?$pair@$$CBKE@std@@@2@$0A@@std@@@std@@QAEXXZ
_TEXT	SEGMENT PARA USE32 PUBLIC 'CODE'
_TEXT	ENDS
;	COMDAT ?_Min@?$_Tree@V?$_Tmap_traits@KEU?$less@K@std@@V?$allocator@U?$pair@$$CBKE@std@@@2@$0A@@std@@@std@@KAPAU_Node@?$_Tree_nod@V?$_Tmap_traits@KEU?$less@K@std@@V?$allocator@U?$pair@$$CBKE@std@@@2@$0A@@std@@@2@PAU342@@Z
_TEXT	SEGMENT PARA USE32 PUBLIC 'CODE'
_TEXT	ENDS
;	COMDAT ?_Left@?$_Tree@V?$_Tmap_traits@KEU?$less@K@std@@V?$allocator@U?$pair@$$CBKE@std@@@2@$0A@@std@@@std@@KAAAPAU_Node@?$_Tree_nod@V?$_Tmap_traits@KEU?$less@K@std@@V?$allocator@U?$pair@$$CBKE@std@@@2@$0A@@std@@@2@PAU342@@Z
_TEXT	SEGMENT PARA USE32 PUBLIC 'CODE'
_TEXT	ENDS
;	COMDAT ?_Isnil@?$_Tree@V?$_Tmap_traits@KEU?$less@K@std@@V?$allocator@U?$pair@$$CBKE@std@@@2@$0A@@std@@@std@@KAAADPAU_Node@?$_Tree_nod@V?$_Tmap_traits@KEU?$less@K@std@@V?$allocator@U?$pair@$$CBKE@std@@@2@$0A@@std@@@2@@Z
_TEXT	SEGMENT PARA USE32 PUBLIC 'CODE'
_TEXT	ENDS
;	COMDAT ?_Parent@?$_Tree@V?$_Tmap_traits@KEU?$less@K@std@@V?$allocator@U?$pair@$$CBKE@std@@@2@$0A@@std@@@std@@KAAAPAU_Node@?$_Tree_nod@V?$_Tmap_traits@KEU?$less@K@std@@V?$allocator@U?$pair@$$CBKE@std@@@2@$0A@@std@@@2@PAU342@@Z
_TEXT	SEGMENT PARA USE32 PUBLIC 'CODE'
_TEXT	ENDS
;	COMDAT ?_Right@?$_Tree@V?$_Tmap_traits@KEU?$less@K@std@@V?$allocator@U?$pair@$$CBKE@std@@@2@$0A@@std@@@std@@KAAAPAU_Node@?$_Tree_nod@V?$_Tmap_traits@KEU?$less@K@std@@V?$allocator@U?$pair@$$CBKE@std@@@2@$0A@@std@@@2@PAU342@@Z
_TEXT	SEGMENT PARA USE32 PUBLIC 'CODE'
_TEXT	ENDS
;	COMDAT ??9const_iterator@?$_Tree@V?$_Tmap_traits@KPAVCCtrl@@U?$less@K@std@@V?$allocator@U?$pair@$$CBKPAVCCtrl@@@std@@@3@$0A@@std@@@std@@QBE_NABV012@@Z
_TEXT	SEGMENT PARA USE32 PUBLIC 'CODE'
_TEXT	ENDS
;	COMDAT ??8const_iterator@?$_Tree@V?$_Tmap_traits@KPAVCCtrl@@U?$less@K@std@@V?$allocator@U?$pair@$$CBKPAVCCtrl@@@std@@@3@$0A@@std@@@std@@QBE_NABV012@@Z
_TEXT	SEGMENT PARA USE32 PUBLIC 'CODE'
_TEXT	ENDS
;	COMDAT ??Eiterator@?$_Tree@V?$_Tmap_traits@KPAVCCtrl@@U?$less@K@std@@V?$allocator@U?$pair@$$CBKPAVCCtrl@@@std@@@3@$0A@@std@@@std@@QAEAAV012@XZ
_TEXT	SEGMENT PARA USE32 PUBLIC 'CODE'
_TEXT	ENDS
;	COMDAT ??Econst_iterator@?$_Tree@V?$_Tmap_traits@KPAVCCtrl@@U?$less@K@std@@V?$allocator@U?$pair@$$CBKPAVCCtrl@@@std@@@3@$0A@@std@@@std@@QAEAAV012@XZ
_TEXT	SEGMENT PARA USE32 PUBLIC 'CODE'
_TEXT	ENDS
;	COMDAT ?_Inc@const_iterator@?$_Tree@V?$_Tmap_traits@KPAVCCtrl@@U?$less@K@std@@V?$allocator@U?$pair@$$CBKPAVCCtrl@@@std@@@3@$0A@@std@@@std@@QAEXXZ
_TEXT	SEGMENT PARA USE32 PUBLIC 'CODE'
_TEXT	ENDS
;	COMDAT ?_Min@?$_Tree@V?$_Tmap_traits@KPAVCCtrl@@U?$less@K@std@@V?$allocator@U?$pair@$$CBKPAVCCtrl@@@std@@@3@$0A@@std@@@std@@KAPAU_Node@?$_Tree_nod@V?$_Tmap_traits@KPAVCCtrl@@U?$less@K@std@@V?$allocator@U?$pair@$$CBKPAVCCtrl@@@std@@@3@$0A@@std@@@2@PAU342@@Z
_TEXT	SEGMENT PARA USE32 PUBLIC 'CODE'
_TEXT	ENDS
;	COMDAT ?_Left@?$_Tree@V?$_Tmap_traits@KPAVCCtrl@@U?$less@K@std@@V?$allocator@U?$pair@$$CBKPAVCCtrl@@@std@@@3@$0A@@std@@@std@@KAAAPAU_Node@?$_Tree_nod@V?$_Tmap_traits@KPAVCCtrl@@U?$less@K@std@@V?$allocator@U?$pair@$$CBKPAVCCtrl@@@std@@@3@$0A@@std@@@2@PAU342@@Z
_TEXT	SEGMENT PARA USE32 PUBLIC 'CODE'
_TEXT	ENDS
;	COMDAT ?_Isnil@?$_Tree@V?$_Tmap_traits@KPAVCCtrl@@U?$less@K@std@@V?$allocator@U?$pair@$$CBKPAVCCtrl@@@std@@@3@$0A@@std@@@std@@KAAADPAU_Node@?$_Tree_nod@V?$_Tmap_traits@KPAVCCtrl@@U?$less@K@std@@V?$allocator@U?$pair@$$CBKPAVCCtrl@@@std@@@3@$0A@@std@@@2@@Z
_TEXT	SEGMENT PARA USE32 PUBLIC 'CODE'
_TEXT	ENDS
;	COMDAT ?_Parent@?$_Tree@V?$_Tmap_traits@KPAVCCtrl@@U?$less@K@std@@V?$allocator@U?$pair@$$CBKPAVCCtrl@@@std@@@3@$0A@@std@@@std@@KAAAPAU_Node@?$_Tree_nod@V?$_Tmap_traits@KPAVCCtrl@@U?$less@K@std@@V?$allocator@U?$pair@$$CBKPAVCCtrl@@@std@@@3@$0A@@std@@@2@PAU342@@Z
_TEXT	SEGMENT PARA USE32 PUBLIC 'CODE'
_TEXT	ENDS
;	COMDAT ?_Right@?$_Tree@V?$_Tmap_traits@KPAVCCtrl@@U?$less@K@std@@V?$allocator@U?$pair@$$CBKPAVCCtrl@@@std@@@3@$0A@@std@@@std@@KAAAPAU_Node@?$_Tree_nod@V?$_Tmap_traits@KPAVCCtrl@@U?$less@K@std@@V?$allocator@U?$pair@$$CBKPAVCCtrl@@@std@@@3@$0A@@std@@@2@PAU342@@Z
_TEXT	SEGMENT PARA USE32 PUBLIC 'CODE'
_TEXT	ENDS
;	COMDAT ??9const_iterator@?$_Tree@V?$_Tmap_traits@KPAVCUser@@U?$less@K@std@@V?$allocator@U?$pair@$$CBKPAVCUser@@@std@@@3@$0A@@std@@@std@@QBE_NABV012@@Z
_TEXT	SEGMENT PARA USE32 PUBLIC 'CODE'
_TEXT	ENDS
;	COMDAT ??8const_iterator@?$_Tree@V?$_Tmap_traits@KPAVCUser@@U?$less@K@std@@V?$allocator@U?$pair@$$CBKPAVCUser@@@std@@@3@$0A@@std@@@std@@QBE_NABV012@@Z
_TEXT	SEGMENT PARA USE32 PUBLIC 'CODE'
_TEXT	ENDS
;	COMDAT ??Eiterator@?$_Tree@V?$_Tmap_traits@KPAVCUser@@U?$less@K@std@@V?$allocator@U?$pair@$$CBKPAVCUser@@@std@@@3@$0A@@std@@@std@@QAEAAV012@XZ
_TEXT	SEGMENT PARA USE32 PUBLIC 'CODE'
_TEXT	ENDS
;	COMDAT ??Econst_iterator@?$_Tree@V?$_Tmap_traits@KPAVCUser@@U?$less@K@std@@V?$allocator@U?$pair@$$CBKPAVCUser@@@std@@@3@$0A@@std@@@std@@QAEAAV012@XZ
_TEXT	SEGMENT PARA USE32 PUBLIC 'CODE'
_TEXT	ENDS
;	COMDAT ?_Inc@const_iterator@?$_Tree@V?$_Tmap_traits@KPAVCUser@@U?$less@K@std@@V?$allocator@U?$pair@$$CBKPAVCUser@@@std@@@3@$0A@@std@@@std@@QAEXXZ
_TEXT	SEGMENT PARA USE32 PUBLIC 'CODE'
_TEXT	ENDS
;	COMDAT ?_Min@?$_Tree@V?$_Tmap_traits@KPAVCUser@@U?$less@K@std@@V?$allocator@U?$pair@$$CBKPAVCUser@@@std@@@3@$0A@@std@@@std@@KAPAU_Node@?$_Tree_nod@V?$_Tmap_traits@KPAVCUser@@U?$less@K@std@@V?$allocator@U?$pair@$$CBKPAVCUser@@@std@@@3@$0A@@std@@@2@PAU342@@Z
_TEXT	SEGMENT PARA USE32 PUBLIC 'CODE'
_TEXT	ENDS
;	COMDAT ?_Left@?$_Tree@V?$_Tmap_traits@KPAVCUser@@U?$less@K@std@@V?$allocator@U?$pair@$$CBKPAVCUser@@@std@@@3@$0A@@std@@@std@@KAAAPAU_Node@?$_Tree_nod@V?$_Tmap_traits@KPAVCUser@@U?$less@K@std@@V?$allocator@U?$pair@$$CBKPAVCUser@@@std@@@3@$0A@@std@@@2@PAU342@@Z
_TEXT	SEGMENT PARA USE32 PUBLIC 'CODE'
_TEXT	ENDS
;	COMDAT ?_Isnil@?$_Tree@V?$_Tmap_traits@KPAVCUser@@U?$less@K@std@@V?$allocator@U?$pair@$$CBKPAVCUser@@@std@@@3@$0A@@std@@@std@@KAAADPAU_Node@?$_Tree_nod@V?$_Tmap_traits@KPAVCUser@@U?$less@K@std@@V?$allocator@U?$pair@$$CBKPAVCUser@@@std@@@3@$0A@@std@@@2@@Z
_TEXT	SEGMENT PARA USE32 PUBLIC 'CODE'
_TEXT	ENDS
;	COMDAT ?_Parent@?$_Tree@V?$_Tmap_traits@KPAVCUser@@U?$less@K@std@@V?$allocator@U?$pair@$$CBKPAVCUser@@@std@@@3@$0A@@std@@@std@@KAAAPAU_Node@?$_Tree_nod@V?$_Tmap_traits@KPAVCUser@@U?$less@K@std@@V?$allocator@U?$pair@$$CBKPAVCUser@@@std@@@3@$0A@@std@@@2@PAU342@@Z
_TEXT	SEGMENT PARA USE32 PUBLIC 'CODE'
_TEXT	ENDS
;	COMDAT ?_Right@?$_Tree@V?$_Tmap_traits@KPAVCUser@@U?$less@K@std@@V?$allocator@U?$pair@$$CBKPAVCUser@@@std@@@3@$0A@@std@@@std@@KAAAPAU_Node@?$_Tree_nod@V?$_Tmap_traits@KPAVCUser@@U?$less@K@std@@V?$allocator@U?$pair@$$CBKPAVCUser@@@std@@@3@$0A@@std@@@2@PAU342@@Z
_TEXT	SEGMENT PARA USE32 PUBLIC 'CODE'
_TEXT	ENDS
;	COMDAT ?_Psave@?$_Facetptr@V?$ctype@G@std@@@std@@2PBVfacet@locale@2@B
_DATA	SEGMENT DWORD USE32 PUBLIC 'DATA'
_DATA	ENDS
;	COMDAT ?_Psave@?$_Facetptr@V?$ctype@D@std@@@std@@2PBVfacet@locale@2@B
_DATA	SEGMENT DWORD USE32 PUBLIC 'DATA'
_DATA	ENDS
;	COMDAT ?compare@?$char_traits@D@std@@SAHPBD0I@Z
_TEXT	SEGMENT PARA USE32 PUBLIC 'CODE'
_TEXT	ENDS
;	COMDAT ?_Myptr@?$basic_string@DU?$char_traits@D@std@@V?$allocator@D@2@@std@@QBEPBDXZ
_TEXT	SEGMENT PARA USE32 PUBLIC 'CODE'
_TEXT	ENDS
;	COMDAT ?size@?$basic_string@DU?$char_traits@D@std@@V?$allocator@D@2@@std@@QBEIXZ
_TEXT	SEGMENT PARA USE32 PUBLIC 'CODE'
_TEXT	ENDS
;	COMDAT ??1CSkipTimer@@UAE@XZ
_TEXT	SEGMENT PARA USE32 PUBLIC 'CODE'
_TEXT	ENDS
;	COMDAT ??_7CSkipTimer@@6B@
CONST	SEGMENT DWORD USE32 PUBLIC 'CONST'
CONST	ENDS
;	COMDAT ??_GCSkipTimer@@UAEPAXI@Z
_TEXT	SEGMENT PARA USE32 PUBLIC 'CODE'
_TEXT	ENDS
;	COMDAT ??1CTimer@@UAE@XZ
_TEXT	SEGMENT PARA USE32 PUBLIC 'CODE'
_TEXT	ENDS
;	COMDAT ??0CSkipTimer@@QAE@XZ
_TEXT	SEGMENT PARA USE32 PUBLIC 'CODE'
_TEXT	ENDS
;	COMDAT ??_7CTimer@@6B@
CONST	SEGMENT DWORD USE32 PUBLIC 'CONST'
CONST	ENDS
;	COMDAT ??_GCTimer@@UAEPAXI@Z
_TEXT	SEGMENT PARA USE32 PUBLIC 'CODE'
_TEXT	ENDS
sxdata	SEGMENT DWORD USE32 'SXDATA'
sxdata	ENDS
FLAT	GROUP _DATA, CONST, _BSS
	ASSUME	CS: FLAT, DS: FLAT, SS: FLAT
endif

INCLUDELIB LIBCMT
INCLUDELIB OLDNAMES

PUBLIC	?m_lTime@@3KA					; m_lTime
PUBLIC	?m_dwOldTime@@3KA				; m_dwOldTime
_BSS	SEGMENT
?m_lTime@@3KA DD 01H DUP (?)				; m_lTime
?m_dwOldTime@@3KA DD 01H DUP (?)			; m_dwOldTime
_BSS	ENDS
_DATA	SEGMENT
_s_bFrameSkip DD 01H
_DATA	ENDS
PUBLIC	?GetTime@CTimer@@QAENXZ				; CTimer::GetTime
PUBLIC	__real@41f0000000000000
EXTRN	?g_tmCurrent@@3KA:DWORD				; g_tmCurrent
EXTRN	__fltused:NEAR
;	COMDAT __real@41f0000000000000
; File c:\documents and settings\test\mes documents\source\virtuos_v17\build\program\_common\timer.cpp
CONST	SEGMENT
__real@41f0000000000000 DQ 041f0000000000000r	; 4.29497e+009
; Function compile flags: /Ogty
CONST	ENDS
;	COMDAT ?GetTime@CTimer@@QAENXZ
_TEXT	SEGMENT
tv66 = -4						; size = 4
?GetTime@CTimer@@QAENXZ PROC NEAR			; CTimer::GetTime, COMDAT
; _this$ = ecx

; 24   : {

  00000	51		 push	 ecx

; 25   : 	//LARGE_INTEGER largeTime = { 0, 0 };
; 26   : 	//QueryPerformanceCounter(&largeTime);
; 27   : #ifdef __GLOBAL_COUNT_0705
; 28   : 	return (double)g_tmCurrent; //((double) largeTime.LowPart + (double) largeTime.HighPart * (double) 0xffffffffffffffff);

  00001	a1 00 00 00 00	 mov	 eax, DWORD PTR ?g_tmCurrent@@3KA ; g_tmCurrent
  00006	db 05 00 00 00
	00		 fild	 DWORD PTR ?g_tmCurrent@@3KA ; g_tmCurrent
  0000c	85 c0		 test	 eax, eax
  0000e	7d 06		 jge	 SHORT $L227060
  00010	dc 05 00 00 00
	00		 fadd	 QWORD PTR __real@41f0000000000000
$L227060:

; 29   : #else // __GLOBAL_COUNT_0705 
; 30   : 	return (double)timeGetTime(); //((double) largeTime.LowPart + (double) largeTime.HighPart * (double) 0xffffffffffffffff);
; 31   : #endif // __GLOBAL_COUNT_0705
; 32   : }

  00016	59		 pop	 ecx
  00017	c3		 ret	 0
?GetTime@CTimer@@QAENXZ ENDP				; CTimer::GetTime
_TEXT	ENDS
PUBLIC	?Set@CTimer@@QAEXMH@Z				; CTimer::Set
; Function compile flags: /Ogty
;	COMDAT ?Set@CTimer@@QAEXMH@Z
_TEXT	SEGMENT
tv147 = -4						; size = 4
_fInterval$ = 8						; size = 4
_bFirstTimeOut$ = 12					; size = 4
?Set@CTimer@@QAEXMH@Z PROC NEAR				; CTimer::Set, COMDAT
; _this$ = ecx

; 35   : {

  00000	51		 push	 ecx

; 36   : 	m_fInterval		= fInterval;

  00001	8b 44 24 08	 mov	 eax, DWORD PTR _fInterval$[esp]
  00005	89 41 18	 mov	 DWORD PTR [ecx+24], eax

; 37   : 	m_curTime	= GetTime();

  00008	db 05 00 00 00
	00		 fild	 DWORD PTR ?g_tmCurrent@@3KA ; g_tmCurrent
  0000e	8b 15 00 00 00
	00		 mov	 edx, DWORD PTR ?g_tmCurrent@@3KA ; g_tmCurrent
  00014	85 d2		 test	 edx, edx
  00016	7d 06		 jge	 SHORT $L227072
  00018	dc 05 00 00 00
	00		 fadd	 QWORD PTR __real@41f0000000000000
$L227072:

; 38   : 	m_endTime	= bFirstTimeOut ? m_curTime : m_curTime + fInterval;

  0001e	8b 44 24 0c	 mov	 eax, DWORD PTR _bFirstTimeOut$[esp]
  00022	dd 51 08	 fst	 QWORD PTR [ecx+8]
  00025	85 c0		 test	 eax, eax
  00027	75 04		 jne	 SHORT $L227073
  00029	d8 44 24 08	 fadd	 DWORD PTR _fInterval$[esp]
$L227073:
  0002d	dd 59 10	 fstp	 QWORD PTR [ecx+16]

; 39   : }

  00030	59		 pop	 ecx
  00031	c2 08 00	 ret	 8
?Set@CTimer@@QAEXMH@Z ENDP				; CTimer::Set
_TEXT	ENDS
PUBLIC	?Reset@CTimer@@UAEXXZ				; CTimer::Reset
; Function compile flags: /Ogty
;	COMDAT ?Reset@CTimer@@UAEXXZ
_TEXT	SEGMENT
tv147 = -4						; size = 4
?Reset@CTimer@@UAEXXZ PROC NEAR				; CTimer::Reset, COMDAT
; _this$ = ecx

; 42   : {

  00000	51		 push	 ecx

; 43   : 	Set( m_fInterval );

  00001	a1 00 00 00 00	 mov	 eax, DWORD PTR ?g_tmCurrent@@3KA ; g_tmCurrent
  00006	d9 41 18	 fld	 DWORD PTR [ecx+24]
  00009	85 c0		 test	 eax, eax
  0000b	db 05 00 00 00
	00		 fild	 DWORD PTR ?g_tmCurrent@@3KA ; g_tmCurrent
  00011	7d 06		 jge	 SHORT $L227090
  00013	dc 05 00 00 00
	00		 fadd	 QWORD PTR __real@41f0000000000000
$L227090:
  00019	dd 51 08	 fst	 QWORD PTR [ecx+8]
  0001c	d9 c9		 fxch	 ST(1)
  0001e	d8 c1		 fadd	 ST(0), ST(1)
  00020	dd 59 10	 fstp	 QWORD PTR [ecx+16]
  00023	dd d8		 fstp	 ST(0)

; 44   : }

  00025	59		 pop	 ecx
  00026	c3		 ret	 0
?Reset@CTimer@@UAEXXZ ENDP				; CTimer::Reset
_TEXT	ENDS
PUBLIC	?Over@CTimer@@UAEHXZ				; CTimer::Over
PUBLIC	__real@41ebffffffa00000
PUBLIC	__real@41bfffffff000000
;	COMDAT __real@41ebffffffa00000
CONST	SEGMENT
__real@41ebffffffa00000 DQ 041ebffffffa00000r	; 3.7581e+009
CONST	ENDS
;	COMDAT __real@41bfffffff000000
CONST	SEGMENT
__real@41bfffffff000000 DQ 041bfffffff000000r	; 5.36871e+008
; Function compile flags: /Ogty
CONST	ENDS
;	COMDAT ?Over@CTimer@@UAEHXZ
_TEXT	SEGMENT
tv138 = -4						; size = 4
?Over@CTimer@@UAEHXZ PROC NEAR				; CTimer::Over, COMDAT
; _this$ = ecx

; 47   : {

  00000	51		 push	 ecx

; 48   : 	double dwCurr	= GetTime();

  00001	a1 00 00 00 00	 mov	 eax, DWORD PTR ?g_tmCurrent@@3KA ; g_tmCurrent
  00006	db 05 00 00 00
	00		 fild	 DWORD PTR ?g_tmCurrent@@3KA ; g_tmCurrent
  0000c	85 c0		 test	 eax, eax
  0000e	7d 06		 jge	 SHORT $L227102
  00010	dc 05 00 00 00
	00		 fadd	 QWORD PTR __real@41f0000000000000
$L227102:

; 49   : 
; 50   : 	if( dwCurr >= m_endTime )

  00016	dc 51 10	 fcom	 QWORD PTR [ecx+16]
  00019	df e0		 fnstsw	 ax
  0001b	f6 c4 01	 test	 ah, 1
  0001e	75 09		 jne	 SHORT $L225625
  00020	dd d8		 fstp	 ST(0)

; 51   : 		return TRUE;

  00022	b8 01 00 00 00	 mov	 eax, 1

; 57   : }

  00027	59		 pop	 ecx
  00028	c3		 ret	 0
$L225625:

; 52   : 
; 53   : 	if( m_endTime > 3758096381 && dwCurr < 536870911 )

  00029	dd 41 10	 fld	 QWORD PTR [ecx+16]
  0002c	dc 1d 00 00 00
	00		 fcomp	 QWORD PTR __real@41ebffffffa00000
  00032	df e0		 fnstsw	 ax
  00034	f6 c4 41	 test	 ah, 65			; 00000041H
  00037	75 14		 jne	 SHORT $L227101
  00039	dc 1d 00 00 00
	00		 fcomp	 QWORD PTR __real@41bfffffff000000
  0003f	df e0		 fnstsw	 ax
  00041	f6 c4 05	 test	 ah, 5
  00044	7a 09		 jp	 SHORT $L225626

; 54   : 		return TRUE;

  00046	b8 01 00 00 00	 mov	 eax, 1

; 57   : }

  0004b	59		 pop	 ecx
  0004c	c3		 ret	 0
$L227101:

; 52   : 
; 53   : 	if( m_endTime > 3758096381 && dwCurr < 536870911 )

  0004d	dd d8		 fstp	 ST(0)
$L225626:

; 55   : 
; 56   : 	return FALSE;

  0004f	33 c0		 xor	 eax, eax

; 57   : }

  00051	59		 pop	 ecx
  00052	c3		 ret	 0
?Over@CTimer@@UAEHXZ ENDP				; CTimer::Over
_TEXT	ENDS
PUBLIC	?GetLeftTime@CTimer@@QAENXZ			; CTimer::GetLeftTime
; Function compile flags: /Ogty
;	COMDAT ?GetLeftTime@CTimer@@QAENXZ
_TEXT	SEGMENT
tv133 = -4						; size = 4
?GetLeftTime@CTimer@@QAENXZ PROC NEAR			; CTimer::GetLeftTime, COMDAT
; _this$ = ecx

; 60   : {

  00000	51		 push	 ecx

; 61   : 	return ( GetTime() - m_curTime );

  00001	a1 00 00 00 00	 mov	 eax, DWORD PTR ?g_tmCurrent@@3KA ; g_tmCurrent
  00006	db 05 00 00 00
	00		 fild	 DWORD PTR ?g_tmCurrent@@3KA ; g_tmCurrent
  0000c	85 c0		 test	 eax, eax
  0000e	7d 06		 jge	 SHORT $L227109
  00010	dc 05 00 00 00
	00		 fadd	 QWORD PTR __real@41f0000000000000
$L227109:
  00016	dc 61 08	 fsub	 QWORD PTR [ecx+8]

; 62   : }

  00019	59		 pop	 ecx
  0001a	c3		 ret	 0
?GetLeftTime@CTimer@@QAENXZ ENDP			; CTimer::GetLeftTime
_TEXT	ENDS
PUBLIC	?GetInterval@CTimer@@QAEMXZ			; CTimer::GetInterval
; Function compile flags: /Ogty
;	COMDAT ?GetInterval@CTimer@@QAEMXZ
_TEXT	SEGMENT
?GetInterval@CTimer@@QAEMXZ PROC NEAR			; CTimer::GetInterval, COMDAT
; _this$ = ecx

; 66   : 	return m_fInterval;

  00000	d9 41 18	 fld	 DWORD PTR [ecx+24]

; 67   : }

  00003	c3		 ret	 0
?GetInterval@CTimer@@QAEMXZ ENDP			; CTimer::GetInterval
_TEXT	ENDS
PUBLIC	??RCTimer@@QAEXXZ				; CTimer::operator()
; Function compile flags: /Ogty
;	COMDAT ??RCTimer@@QAEXXZ
_TEXT	SEGMENT
??RCTimer@@QAEXXZ PROC NEAR				; CTimer::operator(), COMDAT
; _this$ = ecx

; 70   : {

  00000	56		 push	 esi
  00001	8b f1		 mov	 esi, ecx
$L225640:

; 71   : 	while( !Over() );

  00003	8b 06		 mov	 eax, DWORD PTR [esi]
  00005	8b ce		 mov	 ecx, esi
  00007	ff 50 08	 call	 DWORD PTR [eax+8]
  0000a	85 c0		 test	 eax, eax
  0000c	74 f5		 je	 SHORT $L225640
  0000e	5e		 pop	 esi

; 72   : }

  0000f	c3		 ret	 0
??RCTimer@@QAEXXZ ENDP					; CTimer::operator()
_TEXT	ENDS
PUBLIC	??RCTimer@@QAEXN@Z				; CTimer::operator()
; Function compile flags: /Ogty
;	COMDAT ??RCTimer@@QAEXN@Z
_TEXT	SEGMENT
tv150 = 8						; size = 4
_fInterval$ = 8						; size = 8
??RCTimer@@QAEXN@Z PROC NEAR				; CTimer::operator(), COMDAT
; _this$ = ecx

; 76   : 	Set( (float)fInterval );	while( !Over() );

  00000	dd 44 24 04	 fld	 QWORD PTR _fInterval$[esp-4]
  00004	56		 push	 esi
  00005	8b f1		 mov	 esi, ecx
  00007	d9 56 18	 fst	 DWORD PTR [esi+24]
  0000a	a1 00 00 00 00	 mov	 eax, DWORD PTR ?g_tmCurrent@@3KA ; g_tmCurrent
  0000f	85 c0		 test	 eax, eax
  00011	db 05 00 00 00
	00		 fild	 DWORD PTR ?g_tmCurrent@@3KA ; g_tmCurrent
  00017	7d 06		 jge	 SHORT $L227134
  00019	dc 05 00 00 00
	00		 fadd	 QWORD PTR __real@41f0000000000000
$L227134:
  0001f	dd 56 08	 fst	 QWORD PTR [esi+8]
  00022	d9 c9		 fxch	 ST(1)
  00024	d8 c1		 fadd	 ST(0), ST(1)
  00026	dd 5e 10	 fstp	 QWORD PTR [esi+16]
  00029	dd d8		 fstp	 ST(0)
  0002b	eb 03 8d 49 00	 npad	 5
$L225648:
  00030	8b 16		 mov	 edx, DWORD PTR [esi]
  00032	8b ce		 mov	 ecx, esi
  00034	ff 52 08	 call	 DWORD PTR [edx+8]
  00037	85 c0		 test	 eax, eax
  00039	74 f5		 je	 SHORT $L225648
  0003b	5e		 pop	 esi

; 77   : }

  0003c	c2 08 00	 ret	 8
??RCTimer@@QAEXN@Z ENDP					; CTimer::operator()
_TEXT	ENDS
PUBLIC	?GetSunPercent@CGameTimer@@QAEHXZ		; CGameTimer::GetSunPercent
; Function compile flags: /Ogty
;	COMDAT ?GetSunPercent@CGameTimer@@QAEHXZ
_TEXT	SEGMENT
?GetSunPercent@CGameTimer@@QAEHXZ PROC NEAR		; CGameTimer::GetSunPercent, COMDAT
; _this$ = ecx

; 89   : 	int nMin, nHour, nResult = 0;
; 90   : 	if( m_nHour >= HOUR_SUNRISE && m_nHour < HOUR_SUNSET )

  00000	8b 51 1c	 mov	 edx, DWORD PTR [ecx+28]
  00003	33 c0		 xor	 eax, eax
  00005	83 fa 06	 cmp	 edx, 6
  00008	56		 push	 esi
  00009	7c 28		 jl	 SHORT $L225661
  0000b	83 fa 12	 cmp	 edx, 18			; 00000012H
  0000e	7d 28		 jge	 SHORT $L227141

; 91   : 	{
; 92   : 		nHour = m_nHour - HOUR_SUNRISE;
; 93   : 		nMin = nHour * 60 + m_nMin;	// 60 * 2 : nMin = 100 : x
; 94   : 		nResult = nMin * 100 / ( 60 * SETRISE_VARIABLE );

  00010	8d 72 fa	 lea	 esi, DWORD PTR [edx-6]
  00013	8b 51 18	 mov	 edx, DWORD PTR [ecx+24]
  00016	6b f6 3c	 imul	 esi, 60			; 0000003cH
  00019	03 f2		 add	 esi, edx
  0001b	6b f6 64	 imul	 esi, 100		; 00000064H
  0001e	b8 89 88 88 88	 mov	 eax, -2004318071	; 88888889H
  00023	f7 ee		 imul	 esi
  00025	03 d6		 add	 edx, esi
  00027	c1 fa 06	 sar	 edx, 6
  0002a	8b c2		 mov	 eax, edx
  0002c	c1 e8 1f	 shr	 eax, 31			; 0000001fH
  0002f	03 c2		 add	 eax, edx

; 95   : 	}
; 96   : 	else

  00031	eb 2c		 jmp	 SHORT $L225663
$L225661:

; 97   : 	if( m_nHour >= HOUR_SUNSET )

  00033	83 fa 12	 cmp	 edx, 18			; 00000012H
  00036	7c 39		 jl	 SHORT $L225665
$L227141:

; 98   : 	{
; 99   : 		nHour = m_nHour - HOUR_SUNSET; 
; 100  : 		nMin =  nHour * 60 + m_nMin;	// 60 * 2 : nMin = 100 : x
; 101  : 		nResult = 100 - ( nMin * 100 / ( 60 * SETRISE_VARIABLE ) );

  00038	be 12 00 00 00	 mov	 esi, 18			; 00000012H
  0003d	2b f2		 sub	 esi, edx
  0003f	8b 51 18	 mov	 edx, DWORD PTR [ecx+24]
  00042	6b f6 3c	 imul	 esi, 60			; 0000003cH
  00045	2b f2		 sub	 esi, edx
  00047	6b f6 64	 imul	 esi, 100		; 00000064H
  0004a	b8 89 88 88 88	 mov	 eax, -2004318071	; 88888889H
  0004f	f7 ee		 imul	 esi
  00051	03 d6		 add	 edx, esi
  00053	c1 fa 06	 sar	 edx, 6
  00056	8b c2		 mov	 eax, edx
  00058	c1 e8 1f	 shr	 eax, 31			; 0000001fH
  0005b	8d 44 02 64	 lea	 eax, DWORD PTR [edx+eax+100]
$L225663:

; 102  : 	}
; 103  : 	if( nResult < 0 ) nResult = 0;

  0005f	85 c0		 test	 eax, eax
  00061	7d 04		 jge	 SHORT $L225664
  00063	33 c0		 xor	 eax, eax
  00065	5e		 pop	 esi

; 105  : //	if( nResult > 0 && nResult < 100 )
; 106  : //	;//TRACE( "sun %d \n", nResult );
; 107  : 	return nResult;
; 108  : }

  00066	c3		 ret	 0
$L225664:

; 104  : 	if( nResult > 100 ) nResult = 100;

  00067	83 f8 64	 cmp	 eax, 100		; 00000064H
  0006a	7e 05		 jle	 SHORT $L225665
  0006c	b8 64 00 00 00	 mov	 eax, 100		; 00000064H
$L225665:
  00071	5e		 pop	 esi

; 105  : //	if( nResult > 0 && nResult < 100 )
; 106  : //	;//TRACE( "sun %d \n", nResult );
; 107  : 	return nResult;
; 108  : }

  00072	c3		 ret	 0
?GetSunPercent@CGameTimer@@QAEHXZ ENDP			; CGameTimer::GetSunPercent
_TEXT	ENDS
PUBLIC	?GetMoonPercent@CGameTimer@@QAEHXZ		; CGameTimer::GetMoonPercent
; Function compile flags: /Ogty
;	COMDAT ?GetMoonPercent@CGameTimer@@QAEHXZ
_TEXT	SEGMENT
?GetMoonPercent@CGameTimer@@QAEHXZ PROC NEAR		; CGameTimer::GetMoonPercent, COMDAT
; _this$ = ecx

; 114  : 	int nResult = 100 - GetSunPercent();

  00000	e8 00 00 00 00	 call	 ?GetSunPercent@CGameTimer@@QAEHXZ ; CGameTimer::GetSunPercent
  00005	b9 64 00 00 00	 mov	 ecx, 100		; 00000064H
  0000a	2b c8		 sub	 ecx, eax

; 115  : 	/*
; 116  : 	int nMin, nHour, nResult = 100;
; 117  : 	if( m_nHour >= HOUR_MOONSET && m_nHour < HOUR_MOONRISE - SETRISE_VARIABLE ) // / 18 < 20
; 118  : 	{
; 119  : 		nHour = m_nHour - HOUR_MOONSET;
; 120  : 		nMin = nHour * 60 + m_nMin; // 60 * 2 : nMin = 100 : x
; 121  : 		nResult = 100 - ( nMin * 100 / ( 60 * SETRISE_VARIABLE ) );
; 122  : 	}
; 123  : 	else
; 124  : 	if( m_nHour >= HOUR_MOONRISE  )
; 125  : 	{
; 126  : 		nHour = m_nHour - HOUR_MOONRISE; 
; 127  : 		nMin = nHour * 60 + m_nMin; // 60 * 2 : nMin = 100 : x
; 128  : 		nResult = ( nMin * 100 / ( 60 * SETRISE_VARIABLE ) );
; 129  : 	}
; 130  : 	if( nResult < 0 ) nResult = 0;
; 131  : 	if( nResult > 100 ) nResult = 100;
; 132  : 	*/
; 133  : //	if( nResult > 0 && nResult < 100 )
; 134  : //	;//	TRACE( "Moon %d \n", nResult );
; 135  : 	return nResult;

  0000c	8b c1		 mov	 eax, ecx

; 136  : }

  0000e	c3		 ret	 0
?GetMoonPercent@CGameTimer@@QAEHXZ ENDP			; CGameTimer::GetMoonPercent
_TEXT	ENDS
PUBLIC	??1CGameTimer@@QAE@XZ				; CGameTimer::~CGameTimer
; Function compile flags: /Ogty
;	COMDAT ??1CGameTimer@@QAE@XZ
_TEXT	SEGMENT
??1CGameTimer@@QAE@XZ PROC NEAR				; CGameTimer::~CGameTimer, COMDAT
; _this$ = ecx

; 166  : }

  00000	c3		 ret	 0
??1CGameTimer@@QAE@XZ ENDP				; CGameTimer::~CGameTimer
_TEXT	ENDS
PUBLIC	?SetCurrentTime@CGameTimer@@QAEXN@Z		; CGameTimer::SetCurrentTime
EXTRN	__imp__timeGetTime@0:NEAR
; Function compile flags: /Ogty
;	COMDAT ?SetCurrentTime@CGameTimer@@QAEXN@Z
_TEXT	SEGMENT
tv131 = 8						; size = 4
_dCurrentime$ = 8					; size = 8
?SetCurrentTime@CGameTimer@@QAEXN@Z PROC NEAR		; CGameTimer::SetCurrentTime, COMDAT
; _this$ = ecx

; 169  : 	m_dCurrentTime = dCurrentime; 

  00000	dd 44 24 04	 fld	 QWORD PTR _dCurrentime$[esp-4]
  00004	56		 push	 esi
  00005	8b f1		 mov	 esi, ecx
  00007	dd 1e		 fstp	 QWORD PTR [esi]

; 170  :     m_dBeginTime = (double)timeGetTime();

  00009	ff 15 00 00 00
	00		 call	 DWORD PTR __imp__timeGetTime@0
  0000f	85 c0		 test	 eax, eax
  00011	89 44 24 08	 mov	 DWORD PTR tv131[esp], eax
  00015	db 44 24 08	 fild	 DWORD PTR tv131[esp]
  00019	7d 06		 jge	 SHORT $L227151
  0001b	dc 05 00 00 00
	00		 fadd	 QWORD PTR __real@41f0000000000000
$L227151:
  00021	dd 5e 08	 fstp	 QWORD PTR [esi+8]
  00024	5e		 pop	 esi

; 171  : }

  00025	c2 08 00	 ret	 8
?SetCurrentTime@CGameTimer@@QAEXN@Z ENDP		; CGameTimer::SetCurrentTime
_TEXT	ENDS
PUBLIC	?GetTickCount@CGameTimer@@QAENXZ		; CGameTimer::GetTickCount
; Function compile flags: /Ogty
;	COMDAT ?GetTickCount@CGameTimer@@QAENXZ
_TEXT	SEGMENT
tv135 = -4						; size = 4
?GetTickCount@CGameTimer@@QAENXZ PROC NEAR		; CGameTimer::GetTickCount, COMDAT
; _this$ = ecx

; 173  : { 

  00000	51		 push	 ecx
  00001	56		 push	 esi
  00002	8b f1		 mov	 esi, ecx

; 174  : 	double dTime = (double)timeGetTime();

  00004	ff 15 00 00 00
	00		 call	 DWORD PTR __imp__timeGetTime@0
  0000a	85 c0		 test	 eax, eax
  0000c	89 44 24 04	 mov	 DWORD PTR tv135[esp+8], eax
  00010	db 44 24 04	 fild	 DWORD PTR tv135[esp+8]
  00014	7d 06		 jge	 SHORT $L227155
  00016	dc 05 00 00 00
	00		 fadd	 QWORD PTR __real@41f0000000000000
$L227155:

; 175  : 	return dTime - m_dBeginTime + m_dCurrentTime;

  0001c	dc 66 08	 fsub	 QWORD PTR [esi+8]
  0001f	dc 06		 fadd	 QWORD PTR [esi]
  00021	5e		 pop	 esi

; 176  : }

  00022	59		 pop	 ecx
  00023	c3		 ret	 0
?GetTickCount@CGameTimer@@QAENXZ ENDP			; CGameTimer::GetTickCount
_TEXT	ENDS
PUBLIC	?SetCurrentTime@CGameTimer@@QAEXHH@Z		; CGameTimer::SetCurrentTime
; Function compile flags: /Ogty
;	COMDAT ?SetCurrentTime@CGameTimer@@QAEXHH@Z
_TEXT	SEGMENT
tv128 = 8						; size = 4
tv71 = 8						; size = 4
_nDay$ = 8						; size = 4
_nHour$ = 12						; size = 4
?SetCurrentTime@CGameTimer@@QAEXHH@Z PROC NEAR		; CGameTimer::SetCurrentTime, COMDAT
; _this$ = ecx

; 179  : 	int nSec = ( ( nDay * 24 ) + nHour ) * 60 * 60;
; 180  : 	SetCurrentTime( nSec * TIMESPEED );

  00000	8b 44 24 04	 mov	 eax, DWORD PTR _nDay$[esp-4]
  00004	56		 push	 esi
  00005	8b f1		 mov	 esi, ecx
  00007	8b 4c 24 0c	 mov	 ecx, DWORD PTR _nHour$[esp]
  0000b	8d 04 40	 lea	 eax, DWORD PTR [eax+eax*2]
  0000e	8d 14 c1	 lea	 edx, DWORD PTR [ecx+eax*8]
  00011	69 d2 a0 8c 00
	00		 imul	 edx, 36000		; 00008ca0H
  00017	89 54 24 08	 mov	 DWORD PTR tv128[esp], edx
  0001b	db 44 24 08	 fild	 DWORD PTR tv128[esp]
  0001f	dd 1e		 fstp	 QWORD PTR [esi]
  00021	ff 15 00 00 00
	00		 call	 DWORD PTR __imp__timeGetTime@0
  00027	85 c0		 test	 eax, eax
  00029	89 44 24 08	 mov	 DWORD PTR tv71[esp], eax
  0002d	db 44 24 08	 fild	 DWORD PTR tv71[esp]
  00031	7d 06		 jge	 SHORT $L227162
  00033	dc 05 00 00 00
	00		 fadd	 QWORD PTR __real@41f0000000000000
$L227162:
  00039	dd 5e 08	 fstp	 QWORD PTR [esi+8]
  0003c	5e		 pop	 esi

; 181  : }

  0003d	c2 08 00	 ret	 8
?SetCurrentTime@CGameTimer@@QAEXHH@Z ENDP		; CGameTimer::SetCurrentTime
_TEXT	ENDS
PUBLIC	?Compute@CGameTimer@@QAEXXZ			; CGameTimer::Compute
EXTRN	__ftol2:NEAR
; Function compile flags: /Ogty
;	COMDAT ?Compute@CGameTimer@@QAEXXZ
_TEXT	SEGMENT
tv206 = -4						; size = 4
?Compute@CGameTimer@@QAEXXZ PROC NEAR			; CGameTimer::Compute, COMDAT
; _this$ = ecx

; 183  : {

  00000	51		 push	 ecx
  00001	56		 push	 esi
  00002	8b f1		 mov	 esi, ecx

; 184  : 	if( m_bFixed )

  00004	8b 46 10	 mov	 eax, DWORD PTR [esi+16]
  00007	85 c0		 test	 eax, eax
  00009	75 5e		 jne	 SHORT $L225699

; 185  : 		return;
; 186  : 	long lCurTime = (long)( GetCurrentTime() );

  0000b	ff 15 00 00 00
	00		 call	 DWORD PTR __imp__timeGetTime@0
  00011	85 c0		 test	 eax, eax
  00013	89 44 24 04	 mov	 DWORD PTR tv206[esp+8], eax
  00017	db 44 24 04	 fild	 DWORD PTR tv206[esp+8]
  0001b	7d 06		 jge	 SHORT $L227171
  0001d	dc 05 00 00 00
	00		 fadd	 QWORD PTR __real@41f0000000000000
$L227171:
  00023	dc 66 08	 fsub	 QWORD PTR [esi+8]
  00026	dc 06		 fadd	 QWORD PTR [esi]

; 187  : 	int nSec, nMin, nHour, nDay;
; 188  : 	lCurTime /= TIMESPEED;

  00028	e8 00 00 00 00	 call	 __ftol2
  0002d	8b c8		 mov	 ecx, eax
  0002f	b8 67 66 66 66	 mov	 eax, 1717986919		; 66666667H
  00034	f7 e9		 imul	 ecx
  00036	c1 fa 02	 sar	 edx, 2
  00039	8b c2		 mov	 eax, edx
  0003b	c1 e8 1f	 shr	 eax, 31			; 0000001fH
  0003e	03 c2		 add	 eax, edx

; 189  : 
; 190  : 	nSec    = lCurTime / 60;

  00040	99		 cdq
  00041	b9 3c 00 00 00	 mov	 ecx, 60			; 0000003cH
  00046	f7 f9		 idiv	 ecx

; 191  : 	m_nSec  = lCurTime % 60;

  00048	89 56 14	 mov	 DWORD PTR [esi+20], edx

; 192  : 	nMin    = nSec  / 60; // 60 .

  0004b	99		 cdq
  0004c	f7 f9		 idiv	 ecx

; 193  : 	m_nMin  = nSec  % 60; // 60 .
; 194  : 	nHour   = nMin  / 24; // 24 .
; 195  : 	m_nHour = nMin  % 24; // 24 .

  0004e	b9 18 00 00 00	 mov	 ecx, 24			; 00000018H
  00053	89 56 18	 mov	 DWORD PTR [esi+24], edx
  00056	99		 cdq
  00057	f7 f9		 idiv	 ecx

; 196  : 	nDay    = nHour / 30; // 30 .
; 197  : 	m_nDay  = nHour % 30; // 30.

  00059	b9 1e 00 00 00	 mov	 ecx, 30			; 0000001eH

; 198  : 	
; 199  : 	m_nHour++; // 1 based

  0005e	42		 inc	 edx
  0005f	89 56 1c	 mov	 DWORD PTR [esi+28], edx
  00062	99		 cdq
  00063	f7 f9		 idiv	 ecx

; 200  : 	m_nDay++; // 1 based

  00065	42		 inc	 edx
  00066	89 56 20	 mov	 DWORD PTR [esi+32], edx
$L225699:
  00069	5e		 pop	 esi

; 201  : 	//m_nHour = 19;
; 202  : 	
; 203  : #ifdef __XUZHU
; 204  : //#ifdef _DEBUG
; 205  : //	m_nHour = 7;		//   
; 206  : //#endif
; 207  : #endif	
; 208  : }

  0006a	59		 pop	 ecx
  0006b	c3		 ret	 0
?Compute@CGameTimer@@QAEXXZ ENDP			; CGameTimer::Compute
_TEXT	ENDS
PUBLIC	?SetTime@CGameTimer@@QAEXHHHH@Z			; CGameTimer::SetTime
; Function compile flags: /Ogty
;	COMDAT ?SetTime@CGameTimer@@QAEXHHHH@Z
_TEXT	SEGMENT
_nDay$ = 8						; size = 4
_nHour$ = 12						; size = 4
_nMin$ = 16						; size = 4
_nSec$ = 20						; size = 4
?SetTime@CGameTimer@@QAEXHHHH@Z PROC NEAR		; CGameTimer::SetTime, COMDAT
; _this$ = ecx

; 211  : 	m_nDay = nDay;

  00000	8b 44 24 04	 mov	 eax, DWORD PTR _nDay$[esp-4]

; 212  : 	m_nHour = nHour;

  00004	8b 54 24 08	 mov	 edx, DWORD PTR _nHour$[esp-4]
  00008	89 41 20	 mov	 DWORD PTR [ecx+32], eax

; 213  : 	m_nMin = nMin;

  0000b	8b 44 24 0c	 mov	 eax, DWORD PTR _nMin$[esp-4]
  0000f	89 51 1c	 mov	 DWORD PTR [ecx+28], edx

; 214  : 	m_nSec = nSec;

  00012	8b 54 24 10	 mov	 edx, DWORD PTR _nSec$[esp-4]
  00016	89 41 18	 mov	 DWORD PTR [ecx+24], eax
  00019	89 51 14	 mov	 DWORD PTR [ecx+20], edx

; 215  : }

  0001c	c2 10 00	 ret	 16			; 00000010H
?SetTime@CGameTimer@@QAEXHHHH@Z ENDP			; CGameTimer::SetTime
_TEXT	ENDS
PUBLIC	?Set@CSkipTimer@@QAEXM@Z			; CSkipTimer::Set
; Function compile flags: /Ogty
;	COMDAT ?Set@CSkipTimer@@QAEXM@Z
_TEXT	SEGMENT
tv136 = -4						; size = 4
_fInterval$ = 8						; size = 4
?Set@CSkipTimer@@QAEXM@Z PROC NEAR			; CSkipTimer::Set, COMDAT
; _this$ = ecx

; 218  : {

  00000	51		 push	 ecx

; 219  : 	m_curTime	= GetTime();

  00001	a1 00 00 00 00	 mov	 eax, DWORD PTR ?g_tmCurrent@@3KA ; g_tmCurrent
  00006	db 05 00 00 00
	00		 fild	 DWORD PTR ?g_tmCurrent@@3KA ; g_tmCurrent
  0000c	85 c0		 test	 eax, eax
  0000e	7d 06		 jge	 SHORT $L227181
  00010	dc 05 00 00 00
	00		 fadd	 QWORD PTR __real@41f0000000000000
$L227181:

; 220  : 	m_fInterval		= fInterval;

  00016	8b 54 24 08	 mov	 edx, DWORD PTR _fInterval$[esp]
  0001a	dd 59 08	 fstp	 QWORD PTR [ecx+8]
  0001d	89 51 18	 mov	 DWORD PTR [ecx+24], edx

; 221  : 	m_bMaxSkip	= 0;

  00020	c7 41 20 00 00
	00 00		 mov	 DWORD PTR [ecx+32], 0

; 222  : }

  00027	59		 pop	 ecx
  00028	c2 04 00	 ret	 4
?Set@CSkipTimer@@QAEXM@Z ENDP				; CSkipTimer::Set
_TEXT	ENDS
PUBLIC	?Over@CSkipTimer@@UAEHXZ			; CSkipTimer::Over
PUBLIC	__real@00000000
;	COMDAT __real@00000000
CONST	SEGMENT
__real@00000000 DD 000000000r			; 0
; Function compile flags: /Ogty
CONST	ENDS
;	COMDAT ?Over@CSkipTimer@@UAEHXZ
_TEXT	SEGMENT
tv170 = -4						; size = 4
?Over@CSkipTimer@@UAEHXZ PROC NEAR			; CSkipTimer::Over, COMDAT
; _this$ = ecx

; 224  : {

  00000	51		 push	 ecx

; 225  : 	if( m_fInterval == 0.0f )

  00001	d9 05 00 00 00
	00		 fld	 DWORD PTR __real@00000000
  00007	d9 41 18	 fld	 DWORD PTR [ecx+24]
  0000a	da e9		 fucompp
  0000c	df e0		 fnstsw	 ax
  0000e	f6 c4 44	 test	 ah, 68			; 00000044H

; 226  : 		return FALSE;

  00011	7b 46		 jnp	 SHORT $L225726

; 227  : 
; 228  : 	DWORD dwCurr = (DWORD)GetTime();

  00013	8b 15 00 00 00
	00		 mov	 edx, DWORD PTR ?g_tmCurrent@@3KA ; g_tmCurrent

; 229  : 
; 230  : 	if( dwCurr > ( m_curTime + m_fInterval ) )	

  00019	d9 41 18	 fld	 DWORD PTR [ecx+24]
  0001c	85 d2		 test	 edx, edx
  0001e	dc 41 08	 fadd	 QWORD PTR [ecx+8]
  00021	89 14 24	 mov	 DWORD PTR tv170[esp+4], edx
  00024	db 04 24	 fild	 DWORD PTR tv170[esp+4]
  00027	7d 06		 jge	 SHORT $L227192
  00029	dc 05 00 00 00
	00		 fadd	 QWORD PTR __real@41f0000000000000
$L227192:
  0002f	d8 d9		 fcomp	 ST(1)
  00031	df e0		 fnstsw	 ax
  00033	f6 c4 41	 test	 ah, 65			; 00000041H

; 231  : 	{
; 232  : 		m_curTime	+= m_fInterval;
; 233  : 		return TRUE;

  00036	74 15		 je	 SHORT $L227193

; 234  : 	}
; 235  : 
; 236  : 	if( dwCurr < 536870911 && ( m_curTime + m_fInterval ) > 3758096381 )

  00038	81 fa ff ff ff
	1f		 cmp	 edx, 536870911		; 1fffffffH
  0003e	73 17		 jae	 SHORT $L227191
  00040	dc 15 00 00 00
	00		 fcom	 QWORD PTR __real@41ebffffffa00000
  00046	df e0		 fnstsw	 ax
  00048	f6 c4 41	 test	 ah, 65			; 00000041H
  0004b	75 0a		 jne	 SHORT $L227191
$L227193:

; 237  : 	{
; 238  : 		m_curTime += m_fInterval;

  0004d	dd 59 08	 fstp	 QWORD PTR [ecx+8]

; 239  : 		return TRUE;

  00050	b8 01 00 00 00	 mov	 eax, 1

; 243  : }

  00055	59		 pop	 ecx
  00056	c3		 ret	 0
$L227191:

; 234  : 	}
; 235  : 
; 236  : 	if( dwCurr < 536870911 && ( m_curTime + m_fInterval ) > 3758096381 )

  00057	dd d8		 fstp	 ST(0)
$L225726:

; 240  : 	}
; 241  : 
; 242  : 	return FALSE;

  00059	33 c0		 xor	 eax, eax

; 243  : }

  0005b	59		 pop	 ecx
  0005c	c3		 ret	 0
?Over@CSkipTimer@@UAEHXZ ENDP				; CSkipTimer::Over
_TEXT	ENDS
PUBLIC	?IsNeedSkip@CSkipTimer@@QAEHXZ			; CSkipTimer::IsNeedSkip
; Function compile flags: /Ogty
;	COMDAT ?IsNeedSkip@CSkipTimer@@QAEHXZ
_TEXT	SEGMENT
tv137 = -4						; size = 4
?IsNeedSkip@CSkipTimer@@QAEHXZ PROC NEAR		; CSkipTimer::IsNeedSkip, COMDAT
; _this$ = ecx

; 246  : {

  00000	51		 push	 ecx

; 247  : 	if (GetTime() > m_curTime+m_fInterval)

  00001	a1 00 00 00 00	 mov	 eax, DWORD PTR ?g_tmCurrent@@3KA ; g_tmCurrent
  00006	db 05 00 00 00
	00		 fild	 DWORD PTR ?g_tmCurrent@@3KA ; g_tmCurrent
  0000c	85 c0		 test	 eax, eax
  0000e	7d 06		 jge	 SHORT $L227200
  00010	dc 05 00 00 00
	00		 fadd	 QWORD PTR __real@41f0000000000000
$L227200:
  00016	d9 41 18	 fld	 DWORD PTR [ecx+24]
  00019	dc 41 08	 fadd	 QWORD PTR [ecx+8]
  0001c	de d9		 fcompp
  0001e	df e0		 fnstsw	 ax
  00020	f6 c4 05	 test	 ah, 5
  00023	7a 07		 jp	 SHORT $L225731

; 248  : 		return TRUE;

  00025	b8 01 00 00 00	 mov	 eax, 1

; 250  : }

  0002a	59		 pop	 ecx
  0002b	c3		 ret	 0
$L225731:

; 249  : 	return FALSE;

  0002c	33 c0		 xor	 eax, eax

; 250  : }

  0002e	59		 pop	 ecx
  0002f	c3		 ret	 0
?IsNeedSkip@CSkipTimer@@QAEHXZ ENDP			; CSkipTimer::IsNeedSkip
_TEXT	ENDS
PUBLIC	?Skip@CSkipTimer@@QAEXXZ			; CSkipTimer::Skip
; Function compile flags: /Ogty
;	COMDAT ?Skip@CSkipTimer@@QAEXXZ
_TEXT	SEGMENT
?Skip@CSkipTimer@@QAEXXZ PROC NEAR			; CSkipTimer::Skip, COMDAT
; _this$ = ecx

; 254  : 	m_curTime	+= m_fInterval;

  00000	d9 41 18	 fld	 DWORD PTR [ecx+24]
  00003	dc 41 08	 fadd	 QWORD PTR [ecx+8]
  00006	dd 59 08	 fstp	 QWORD PTR [ecx+8]

; 255  : }

  00009	c3		 ret	 0
?Skip@CSkipTimer@@QAEXXZ ENDP				; CSkipTimer::Skip
_TEXT	ENDS
PUBLIC	?IsMaxSkip@CSkipTimer@@QAEHXZ			; CSkipTimer::IsMaxSkip
PUBLIC	__real@3fc5555555555555
;	COMDAT __real@3fc5555555555555
CONST	SEGMENT
__real@3fc5555555555555 DQ 03fc5555555555555r	; 0.166667
; Function compile flags: /Ogty
CONST	ENDS
;	COMDAT ?IsMaxSkip@CSkipTimer@@QAEHXZ
_TEXT	SEGMENT
tv181 = -4						; size = 4
?IsMaxSkip@CSkipTimer@@QAEHXZ PROC NEAR			; CSkipTimer::IsMaxSkip, COMDAT
; _this$ = ecx

; 258  : {

  00000	51		 push	 ecx
  00001	56		 push	 esi
  00002	8b f1		 mov	 esi, ecx

; 262  : 	
; 263  : 	if( m_bMaxSkip == 0 )

  00004	8b 46 20	 mov	 eax, DWORD PTR [esi+32]
  00007	85 c0		 test	 eax, eax
  00009	75 36		 jne	 SHORT $L225741

; 264  : 	{
; 265  : 		m_bMaxSkip = (int)( time / SKIPPING_PARAM );

  0000b	a1 00 00 00 00	 mov	 eax, DWORD PTR ?g_tmCurrent@@3KA ; g_tmCurrent
  00010	db 05 00 00 00
	00		 fild	 DWORD PTR ?g_tmCurrent@@3KA ; g_tmCurrent
  00016	85 c0		 test	 eax, eax
  00018	7d 06		 jge	 SHORT $L227212
  0001a	dc 05 00 00 00
	00		 fadd	 QWORD PTR __real@41f0000000000000
$L227212:

; 259  : 	double time = GetTime();
; 260  : 
; 261  : 	time	= ( time - m_curTime ) / m_fInterval;

  00020	dc 66 08	 fsub	 QWORD PTR [esi+8]

; 264  : 	{
; 265  : 		m_bMaxSkip = (int)( time / SKIPPING_PARAM );

  00023	d8 76 18	 fdiv	 DWORD PTR [esi+24]
  00026	dc 0d 00 00 00
	00		 fmul	 QWORD PTR __real@3fc5555555555555
  0002c	e8 00 00 00 00	 call	 __ftol2

; 266  : 	}
; 267  : 	else
; 268  : 	{
; 269  : 		m_bMaxSkip --;

  00031	89 46 20	 mov	 DWORD PTR [esi+32], eax

; 270  : 	}
; 271  : 
; 272  : 	if( m_bMaxSkip == 0 )

  00034	8b 4e 20	 mov	 ecx, DWORD PTR [esi+32]
  00037	33 c0		 xor	 eax, eax
  00039	85 c9		 test	 ecx, ecx
  0003b	0f 94 c0	 sete	 al
  0003e	5e		 pop	 esi

; 273  : 		return TRUE;
; 274  : 
; 275  : 	return FALSE;
; 276  : }

  0003f	59		 pop	 ecx
  00040	c3		 ret	 0
$L225741:

; 266  : 	}
; 267  : 	else
; 268  : 	{
; 269  : 		m_bMaxSkip --;

  00041	48		 dec	 eax
  00042	89 46 20	 mov	 DWORD PTR [esi+32], eax

; 270  : 	}
; 271  : 
; 272  : 	if( m_bMaxSkip == 0 )

  00045	8b 4e 20	 mov	 ecx, DWORD PTR [esi+32]
  00048	33 c0		 xor	 eax, eax
  0004a	85 c9		 test	 ecx, ecx
  0004c	0f 94 c0	 sete	 al
  0004f	5e		 pop	 esi

; 273  : 		return TRUE;
; 274  : 
; 275  : 	return FALSE;
; 276  : }

  00050	59		 pop	 ecx
  00051	c3		 ret	 0
?IsMaxSkip@CSkipTimer@@QAEHXZ ENDP			; CSkipTimer::IsMaxSkip
_TEXT	ENDS
PUBLIC	?IsNight@CDate@@QAEHXZ				; CDate::IsNight
; Function compile flags: /Ogty
;	COMDAT ?IsNight@CDate@@QAEHXZ
_TEXT	SEGMENT
?IsNight@CDate@@QAEHXZ PROC NEAR			; CDate::IsNight, COMDAT
; _this$ = ecx

; 316  : 	if(m_nHour < 6 || m_nHour >= 19)

  00000	8b 41 38	 mov	 eax, DWORD PTR [ecx+56]
  00003	83 f8 06	 cmp	 eax, 6
  00006	7c 08		 jl	 SHORT $L225766
  00008	83 f8 13	 cmp	 eax, 19			; 00000013H
  0000b	7d 03		 jge	 SHORT $L225766

; 318  : 	return FALSE;

  0000d	33 c0		 xor	 eax, eax

; 319  : }

  0000f	c3		 ret	 0
$L225766:

; 317  : 		return TRUE;

  00010	b8 01 00 00 00	 mov	 eax, 1

; 319  : }

  00015	c3		 ret	 0
?IsNight@CDate@@QAEHXZ ENDP				; CDate::IsNight
_TEXT	ENDS
PUBLIC	?GetDay@CDate@@QAEHXZ				; CDate::GetDay
; Function compile flags: /Ogty
;	COMDAT ?GetDay@CDate@@QAEHXZ
_TEXT	SEGMENT
?GetDay@CDate@@QAEHXZ PROC NEAR				; CDate::GetDay, COMDAT
; _this$ = ecx

; 324  : 	int		nDay = (m_nYear * 365) + (m_nMonth * 30) + m_nDay;

  00000	8b 41 2c	 mov	 eax, DWORD PTR [ecx+44]
  00003	8b 51 30	 mov	 edx, DWORD PTR [ecx+48]
  00006	69 c0 6d 01 00
	00		 imul	 eax, 365		; 0000016dH
  0000c	6b d2 1e	 imul	 edx, 30			; 0000001eH

; 325  : 
; 326  : 	return	nDay;

  0000f	03 c2		 add	 eax, edx
  00011	03 41 34	 add	 eax, DWORD PTR [ecx+52]

; 327  : }

  00014	c3		 ret	 0
?GetDay@CDate@@QAEHXZ ENDP				; CDate::GetDay
_TEXT	ENDS
PUBLIC	?ComputeShade@CDate@@QAEHH@Z			; CDate::ComputeShade
; Function compile flags: /Ogty
;	COMDAT ?ComputeShade@CDate@@QAEHH@Z
_TEXT	SEGMENT
_nMax$ = 8						; size = 4
?ComputeShade@CDate@@QAEHH@Z PROC NEAR			; CDate::ComputeShade, COMDAT
; _this$ = ecx

; 329  : {

  00000	56		 push	 esi

; 330  : //	int nVal;
; 331  : 	int nResult = 0;
; 332  : 	if(m_nHour >= 21 || m_nHour <= 4)

  00001	8b 71 38	 mov	 esi, DWORD PTR [ecx+56]
  00004	33 c0		 xor	 eax, eax
  00006	83 fe 15	 cmp	 esi, 21			; 00000015H
  00009	7d 46		 jge	 SHORT $L225778
  0000b	83 fe 04	 cmp	 esi, 4
  0000e	7e 41		 jle	 SHORT $L225778

; 334  : 	if(m_nHour >= 19) // 19, 20

  00010	83 fe 13	 cmp	 esi, 19			; 00000013H
  00013	7c 14		 jl	 SHORT $L225779

; 335  : 	{
; 336  : 		nResult = (((m_nHour - 19) * 60) + m_nMinute) / 16;

  00015	8b 51 3c	 mov	 edx, DWORD PTR [ecx+60]
  00018	8d 46 ed	 lea	 eax, DWORD PTR [esi-19]
  0001b	6b c0 3c	 imul	 eax, 60			; 0000003cH
  0001e	03 c2		 add	 eax, edx
  00020	99		 cdq
  00021	83 e2 0f	 and	 edx, 15			; 0000000fH
  00024	03 c2		 add	 eax, edx
  00026	c1 f8 04	 sar	 eax, 4
$L225779:

; 337  : 	}
; 338  : 	if(m_nHour <= 6) // 5, 6

  00029	83 fe 06	 cmp	 esi, 6
  0002c	7f 18		 jg	 SHORT $L225780

; 339  : 	{
; 340  : 		nResult = (((6 - m_nHour) * 60) + (60-m_nMinute)) / 16;

  0002e	8b 51 3c	 mov	 edx, DWORD PTR [ecx+60]
  00031	b8 07 00 00 00	 mov	 eax, 7
  00036	2b c6		 sub	 eax, esi
  00038	6b c0 3c	 imul	 eax, 60			; 0000003cH
  0003b	2b c2		 sub	 eax, edx
  0003d	99		 cdq
  0003e	83 e2 0f	 and	 edx, 15			; 0000000fH
  00041	03 c2		 add	 eax, edx
  00043	c1 f8 04	 sar	 eax, 4
$L225780:

; 341  : 	}
; 342  : 	if(nResult == nMax) 

  00046	3b 44 24 08	 cmp	 eax, DWORD PTR _nMax$[esp]
  0004a	75 0a		 jne	 SHORT $L225775

; 333  : 		return nMax-1;

  0004c	48		 dec	 eax
  0004d	5e		 pop	 esi

; 343  : 		nResult--;
; 344  : 	return nResult;
; 345  : }

  0004e	c2 04 00	 ret	 4
$L225778:

; 333  : 		return nMax-1;

  00051	8b 44 24 08	 mov	 eax, DWORD PTR _nMax$[esp]
  00055	48		 dec	 eax
$L225775:
  00056	5e		 pop	 esi

; 343  : 		nResult--;
; 344  : 	return nResult;
; 345  : }

  00057	c2 04 00	 ret	 4
?ComputeShade@CDate@@QAEHH@Z ENDP			; CDate::ComputeShade
_TEXT	ENDS
PUBLIC	?GetTimeColor@CDate@@QAEXPAUtagTIMECOLOR@@@Z	; CDate::GetTimeColor
; Function compile flags: /Ogty
;	COMDAT ?GetTimeColor@CDate@@QAEXPAUtagTIMECOLOR@@@Z
_TEXT	SEGMENT
_pTimeColor$ = 8					; size = 4
?GetTimeColor@CDate@@QAEXPAUtagTIMECOLOR@@@Z PROC NEAR	; CDate::GetTimeColor, COMDAT
; _this$ = ecx

; 348  : 	int nTime;
; 349  : 	//    
; 350  : 	if(m_nHour >= 18)

  00000	8b 41 38	 mov	 eax, DWORD PTR [ecx+56]
  00003	83 f8 12	 cmp	 eax, 18			; 00000012H
  00006	56		 push	 esi
  00007	7c 42		 jl	 SHORT $L225787

; 351  : 	{
; 352  : 		nTime = (m_nHour - 18) * 60 + m_nMinute; //   ( 360 + 59 = 419)
; 353  : 		// 419 : 0x0f = nTime = x
; 354  : 		pTimeColor->m_nDarkAlpha = nTime * 0x0f / 359;

  00009	8b 51 3c	 mov	 edx, DWORD PTR [ecx+60]
  0000c	8d 70 ee	 lea	 esi, DWORD PTR [eax-18]
  0000f	6b f6 3c	 imul	 esi, 60			; 0000003cH
  00012	03 f2		 add	 esi, edx
  00014	6b f6 0f	 imul	 esi, 15			; 0000000fH
  00017	8b 4c 24 08	 mov	 ecx, DWORD PTR _pTimeColor$[esp]
  0001b	b8 35 31 8d b6	 mov	 eax, -1232260811	; b68d3135H
  00020	f7 ee		 imul	 esi
  00022	03 d6		 add	 edx, esi
  00024	c1 fa 08	 sar	 edx, 8
  00027	8b c2		 mov	 eax, edx
  00029	c1 e8 1f	 shr	 eax, 31			; 0000001fH
  0002c	03 c2		 add	 eax, edx

; 355  : 		if(pTimeColor->m_nDarkAlpha > 0x0f) 

  0002e	83 f8 0f	 cmp	 eax, 15			; 0000000fH
  00031	89 01		 mov	 DWORD PTR [ecx], eax
  00033	7e 06		 jle	 SHORT $L225788

; 356  : 			pTimeColor->m_nDarkAlpha = 0x0f;

  00035	c7 01 0f 00 00
	00		 mov	 DWORD PTR [ecx], 15	; 0000000fH
$L225788:

; 357  : 		pTimeColor->m_nR = -3;

  0003b	b0 fd		 mov	 al, -3			; fffffffdH
  0003d	88 41 04	 mov	 BYTE PTR [ecx+4], al

; 358  : 		pTimeColor->m_nG = -3;

  00040	88 41 05	 mov	 BYTE PTR [ecx+5], al

; 359  : 		pTimeColor->m_nB = 0;

  00043	c6 41 06 00	 mov	 BYTE PTR [ecx+6], 0
  00047	5e		 pop	 esi

; 380  : 	}
; 381  : }

  00048	c2 04 00	 ret	 4
$L225787:

; 360  : 	}
; 361  : 	else
; 362  : 	//    
; 363  : 	if(m_nHour <= 5)

  0004b	83 f8 05	 cmp	 eax, 5
  0004e	7f 45		 jg	 SHORT $L225790

; 364  : 	{
; 365  : 		nTime = (8 - m_nHour) * 60 - m_nMinute; // 420 - 1 = 419) (   )
; 366  : 		// 419 : 0x0f = nTime = x
; 367  : 		pTimeColor->m_nDarkAlpha = nTime * 0x0f / 359;

  00050	8b 51 3c	 mov	 edx, DWORD PTR [ecx+60]
  00053	be 08 00 00 00	 mov	 esi, 8
  00058	2b f0		 sub	 esi, eax
  0005a	6b f6 3c	 imul	 esi, 60			; 0000003cH
  0005d	2b f2		 sub	 esi, edx
  0005f	6b f6 0f	 imul	 esi, 15			; 0000000fH
  00062	8b 4c 24 08	 mov	 ecx, DWORD PTR _pTimeColor$[esp]
  00066	b8 35 31 8d b6	 mov	 eax, -1232260811	; b68d3135H
  0006b	f7 ee		 imul	 esi
  0006d	03 d6		 add	 edx, esi
  0006f	c1 fa 08	 sar	 edx, 8
  00072	8b c2		 mov	 eax, edx
  00074	c1 e8 1f	 shr	 eax, 31			; 0000001fH
  00077	03 c2		 add	 eax, edx

; 368  : 		if(pTimeColor->m_nDarkAlpha > 0x0f) 

  00079	83 f8 0f	 cmp	 eax, 15			; 0000000fH
  0007c	89 01		 mov	 DWORD PTR [ecx], eax
  0007e	7e 06		 jle	 SHORT $L225791

; 369  : 			pTimeColor->m_nDarkAlpha = 0x0f;

  00080	c7 01 0f 00 00
	00		 mov	 DWORD PTR [ecx], 15	; 0000000fH
$L225791:

; 370  : 		pTimeColor->m_nR = 0;

  00086	33 d2		 xor	 edx, edx
  00088	88 51 04	 mov	 BYTE PTR [ecx+4], dl

; 371  : 		pTimeColor->m_nG = 0;

  0008b	88 51 05	 mov	 BYTE PTR [ecx+5], dl

; 372  : 		pTimeColor->m_nB = 0;

  0008e	88 51 06	 mov	 BYTE PTR [ecx+6], dl
  00091	5e		 pop	 esi

; 380  : 	}
; 381  : }

  00092	c2 04 00	 ret	 4
$L225790:

; 373  : 	}
; 374  : 	else
; 375  : 	{
; 376  : 		pTimeColor->m_nDarkAlpha = 0;

  00095	8b 44 24 08	 mov	 eax, DWORD PTR _pTimeColor$[esp]
  00099	33 d2		 xor	 edx, edx
  0009b	89 10		 mov	 DWORD PTR [eax], edx

; 377  : 		pTimeColor->m_nR = 0;

  0009d	88 50 04	 mov	 BYTE PTR [eax+4], dl

; 378  : 		pTimeColor->m_nG = 0;

  000a0	88 50 05	 mov	 BYTE PTR [eax+5], dl

; 379  : 		pTimeColor->m_nB = 0;

  000a3	88 50 06	 mov	 BYTE PTR [eax+6], dl
  000a6	5e		 pop	 esi

; 380  : 	}
; 381  : }

  000a7	c2 04 00	 ret	 4
?GetTimeColor@CDate@@QAEXPAUtagTIMECOLOR@@@Z ENDP	; CDate::GetTimeColor
_TEXT	ENDS
PUBLIC	?Process@CDate@@QAEXXZ				; CDate::Process
; Function compile flags: /Ogty
;	COMDAT ?Process@CDate@@QAEXXZ
_TEXT	SEGMENT
?Process@CDate@@QAEXXZ PROC NEAR			; CDate::Process, COMDAT
; _this$ = ecx

; 383  : {

  00000	56		 push	 esi
  00001	8b f1		 mov	 esi, ecx

; 384  : 	while(m_delay.Over())

  00003	8b 06		 mov	 eax, DWORD PTR [esi]
  00005	ff 50 08	 call	 DWORD PTR [eax+8]
  00008	85 c0		 test	 eax, eax
  0000a	74 6f		 je	 SHORT $L225798
  0000c	53		 push	 ebx
  0000d	57		 push	 edi
  0000e	bb 3c 00 00 00	 mov	 ebx, 60			; 0000003cH
  00013	bf 01 00 00 00	 mov	 edi, 1
$L225797:

; 385  : 	{
; 386  : 		//m_delay.Set(m_nDelay);//m_nDelay);
; 387  : 		m_nSecond++;

  00018	8b 4e 40	 mov	 ecx, DWORD PTR [esi+64]
  0001b	41		 inc	 ecx

; 388  : 		if(m_nSecond >= 60)

  0001c	8b c1		 mov	 eax, ecx
  0001e	3b c3		 cmp	 eax, ebx
  00020	89 4e 40	 mov	 DWORD PTR [esi+64], ecx
  00023	7c 0a		 jl	 SHORT $L225799

; 389  : 		{
; 390  : 			m_nSecond = 1;
; 391  : 			m_nMinute++;

  00025	8b 46 3c	 mov	 eax, DWORD PTR [esi+60]
  00028	40		 inc	 eax
  00029	89 7e 40	 mov	 DWORD PTR [esi+64], edi
  0002c	89 46 3c	 mov	 DWORD PTR [esi+60], eax
$L225799:

; 392  : 		}
; 393  : 		if(m_nMinute >= 60)

  0002f	39 5e 3c	 cmp	 DWORD PTR [esi+60], ebx
  00032	7c 0a		 jl	 SHORT $L225800

; 394  : 		{
; 395  : 			m_nMinute = 1;
; 396  : 			m_nHour++;

  00034	8b 46 38	 mov	 eax, DWORD PTR [esi+56]
  00037	40		 inc	 eax
  00038	89 7e 3c	 mov	 DWORD PTR [esi+60], edi
  0003b	89 46 38	 mov	 DWORD PTR [esi+56], eax
$L225800:

; 397  : 		}
; 398  : 		if(m_nHour > 24)

  0003e	83 7e 38 18	 cmp	 DWORD PTR [esi+56], 24	; 00000018H
  00042	7e 0a		 jle	 SHORT $L225801

; 399  : 		{
; 400  : 			m_nHour = 1;
; 401  : 			m_nDay++;

  00044	8b 46 34	 mov	 eax, DWORD PTR [esi+52]
  00047	40		 inc	 eax
  00048	89 7e 38	 mov	 DWORD PTR [esi+56], edi
  0004b	89 46 34	 mov	 DWORD PTR [esi+52], eax
$L225801:

; 402  : 		}
; 403  : 		if(m_nDay > 30)

  0004e	83 7e 34 1e	 cmp	 DWORD PTR [esi+52], 30	; 0000001eH
  00052	7e 0a		 jle	 SHORT $L225802

; 404  : 		{
; 405  : 			m_nDay = 1;
; 406  : 			m_nMonth++;

  00054	8b 46 30	 mov	 eax, DWORD PTR [esi+48]
  00057	40		 inc	 eax
  00058	89 7e 34	 mov	 DWORD PTR [esi+52], edi
  0005b	89 46 30	 mov	 DWORD PTR [esi+48], eax
$L225802:

; 407  : 		}
; 408  : 		if(m_nMonth > 12)

  0005e	83 7e 30 0c	 cmp	 DWORD PTR [esi+48], 12	; 0000000cH
  00062	7e 0a		 jle	 SHORT $L225803

; 409  : 		{ 
; 410  : 			m_nMonth = 1;
; 411  : 			m_nYear++;

  00064	8b 46 2c	 mov	 eax, DWORD PTR [esi+44]
  00067	40		 inc	 eax
  00068	89 7e 30	 mov	 DWORD PTR [esi+48], edi
  0006b	89 46 2c	 mov	 DWORD PTR [esi+44], eax
$L225803:
  0006e	8b 16		 mov	 edx, DWORD PTR [esi]
  00070	8b ce		 mov	 ecx, esi
  00072	ff 52 08	 call	 DWORD PTR [edx+8]
  00075	85 c0		 test	 eax, eax
  00077	75 9f		 jne	 SHORT $L225797
  00079	5f		 pop	 edi
  0007a	5b		 pop	 ebx
$L225798:
  0007b	5e		 pop	 esi

; 412  : 		}
; 413  : 	}
; 414  : }

  0007c	c3		 ret	 0
?Process@CDate@@QAEXXZ ENDP				; CDate::Process
_TEXT	ENDS
PUBLIC	?InitFST@@YAXXZ					; InitFST
; Function compile flags: /Ogty
;	COMDAT ?InitFST@@YAXXZ
_TEXT	SEGMENT
?InitFST@@YAXXZ PROC NEAR				; InitFST, COMDAT

; 471  : 	m_lTime = 0;

  00000	c7 05 00 00 00
	00 00 00 00 00	 mov	 DWORD PTR ?m_lTime@@3KA, 0 ; m_lTime

; 472  : 	m_dwOldTime = timeGetTime();

  0000a	ff 15 00 00 00
	00		 call	 DWORD PTR __imp__timeGetTime@0
  00010	a3 00 00 00 00	 mov	 DWORD PTR ?m_dwOldTime@@3KA, eax ; m_dwOldTime

; 473  : 	s_bFrameSkip = TRUE;

  00015	c7 05 00 00 00
	00 01 00 00 00	 mov	 DWORD PTR _s_bFrameSkip, 1

; 474  : }

  0001f	c3		 ret	 0
?InitFST@@YAXXZ ENDP					; InitFST
_TEXT	ENDS
PUBLIC	?SetFrameSkip@@YAXH@Z				; SetFrameSkip
; Function compile flags: /Ogty
;	COMDAT ?SetFrameSkip@@YAXH@Z
_TEXT	SEGMENT
_bFlag$ = 8						; size = 4
?SetFrameSkip@@YAXH@Z PROC NEAR				; SetFrameSkip, COMDAT

; 479  : 	s_bFrameSkip = bFlag;

  00000	8b 44 24 04	 mov	 eax, DWORD PTR _bFlag$[esp-4]

; 480  : 	if( bFlag == TRUE )		InitFST();

  00004	83 f8 01	 cmp	 eax, 1
  00007	a3 00 00 00 00	 mov	 DWORD PTR _s_bFrameSkip, eax
  0000c	75 1f		 jne	 SHORT $L227238
  0000e	c7 05 00 00 00
	00 00 00 00 00	 mov	 DWORD PTR ?m_lTime@@3KA, 0 ; m_lTime
  00018	ff 15 00 00 00
	00		 call	 DWORD PTR __imp__timeGetTime@0
  0001e	a3 00 00 00 00	 mov	 DWORD PTR ?m_dwOldTime@@3KA, eax ; m_dwOldTime
  00023	c7 05 00 00 00
	00 01 00 00 00	 mov	 DWORD PTR _s_bFrameSkip, 1
$L227238:

; 481  : }

  0002d	c3		 ret	 0
?SetFrameSkip@@YAXH@Z ENDP				; SetFrameSkip
_TEXT	ENDS
PUBLIC	?GetFrameSkip@@YAHXZ				; GetFrameSkip
; Function compile flags: /Ogty
;	COMDAT ?GetFrameSkip@@YAHXZ
_TEXT	SEGMENT
?GetFrameSkip@@YAHXZ PROC NEAR				; GetFrameSkip, COMDAT

; 486  : 	return s_bFrameSkip;

  00000	a1 00 00 00 00	 mov	 eax, DWORD PTR _s_bFrameSkip

; 487  : }

  00005	c3		 ret	 0
?GetFrameSkip@@YAHXZ ENDP				; GetFrameSkip
; Function compile flags: /Ogty
_TEXT	ENDS
;	COMDAT ?UpdateTime@@YAXXZ
_TEXT	SEGMENT
?UpdateTime@@YAXXZ PROC NEAR				; UpdateTime, COMDAT

; 491  : 	DWORD	dwTime = timeGetTime();

  00000	ff 15 00 00 00
	00		 call	 DWORD PTR __imp__timeGetTime@0

; 492  : 
; 493  : 	m_lTime += (dwTime - m_dwOldTime);	//   

  00006	8b 0d 00 00 00
	00		 mov	 ecx, DWORD PTR ?m_dwOldTime@@3KA ; m_dwOldTime
  0000c	8b d0		 mov	 edx, eax
  0000e	2b d1		 sub	 edx, ecx
  00010	8b 0d 00 00 00
	00		 mov	 ecx, DWORD PTR ?m_lTime@@3KA ; m_lTime
  00016	03 ca		 add	 ecx, edx

; 494  : 	if( m_lTime > 1000 )	m_lTime = 1000;

  00018	81 f9 e8 03 00
	00		 cmp	 ecx, 1000		; 000003e8H
  0001e	89 0d 00 00 00
	00		 mov	 DWORD PTR ?m_lTime@@3KA, ecx ; m_lTime

; 495  : 
; 496  : #ifdef __BS_EFFECT_LUA
; 497  : 	g_timeMTE += ( dwTime - m_dwOldTime );
; 498  : 	if( g_timeMTE > 20000 )	//20 
; 499  : 		g_timeMTE = 0;
; 500  : #endif //__BS_EFFECT_LUA
; 501  : 	m_dwOldTime = dwTime;

  00024	a3 00 00 00 00	 mov	 DWORD PTR ?m_dwOldTime@@3KA, eax ; m_dwOldTime
  00029	76 0a		 jbe	 SHORT $L225821

; 494  : 	if( m_lTime > 1000 )	m_lTime = 1000;

  0002b	c7 05 00 00 00
	00 e8 03 00 00	 mov	 DWORD PTR ?m_lTime@@3KA, 1000 ; m_lTime, 000003e8H
$L225821:

; 502  : }

  00035	c3		 ret	 0
?UpdateTime@@YAXXZ ENDP					; UpdateTime
_TEXT	ENDS
PUBLIC	?IsDrawTiming@@YAHXZ				; IsDrawTiming
; Function compile flags: /Ogty
;	COMDAT ?IsDrawTiming@@YAHXZ
_TEXT	SEGMENT
?IsDrawTiming@@YAHXZ PROC NEAR				; IsDrawTiming, COMDAT

; 506  : 	if( s_bFrameSkip == FALSE )		return TRUE;		//     .

  00000	a1 00 00 00 00	 mov	 eax, DWORD PTR _s_bFrameSkip
  00005	85 c0		 test	 eax, eax
  00007	74 48		 je	 SHORT $L227255

; 507  : 	UpdateTime();

  00009	ff 15 00 00 00
	00		 call	 DWORD PTR __imp__timeGetTime@0
  0000f	8b 0d 00 00 00
	00		 mov	 ecx, DWORD PTR ?m_dwOldTime@@3KA ; m_dwOldTime
  00015	8b d0		 mov	 edx, eax
  00017	2b d1		 sub	 edx, ecx
  00019	8b 0d 00 00 00
	00		 mov	 ecx, DWORD PTR ?m_lTime@@3KA ; m_lTime
  0001f	03 ca		 add	 ecx, edx
  00021	81 f9 e8 03 00
	00		 cmp	 ecx, 1000		; 000003e8H
  00027	89 0d 00 00 00
	00		 mov	 DWORD PTR ?m_lTime@@3KA, ecx ; m_lTime
  0002d	76 0b		 jbe	 SHORT $L227253
  0002f	b9 e8 03 00 00	 mov	 ecx, 1000		; 000003e8H
  00034	89 0d 00 00 00
	00		 mov	 DWORD PTR ?m_lTime@@3KA, ecx ; m_lTime
$L227253:

; 508  : 	if( m_lTime >= 1000 )	

  0003a	81 f9 e8 03 00
	00		 cmp	 ecx, 1000		; 000003e8H
  00040	a3 00 00 00 00	 mov	 DWORD PTR ?m_dwOldTime@@3KA, eax ; m_dwOldTime
  00045	72 10		 jb	 SHORT $L225826

; 509  : 	{
; 510  : 		m_lTime = 0;

  00047	c7 05 00 00 00
	00 00 00 00 00	 mov	 DWORD PTR ?m_lTime@@3KA, 0 ; m_lTime
$L227255:

; 511  : 		return TRUE;

  00051	b8 01 00 00 00	 mov	 eax, 1

; 514  : }

  00056	c3		 ret	 0
$L225826:

; 512  : 	}
; 513  : 	return (m_lTime < (1000 / FRAME_PER_SEC)) ? TRUE : FALSE;

  00057	83 f9 10	 cmp	 ecx, 16			; 00000010H
  0005a	1b c0		 sbb	 eax, eax
  0005c	f7 d8		 neg	 eax

; 514  : }

  0005e	c3		 ret	 0
?IsDrawTiming@@YAHXZ ENDP				; IsDrawTiming
_TEXT	ENDS
PUBLIC	?SetFST@@YAXXZ					; SetFST
; Function compile flags: /Ogty
;	COMDAT ?SetFST@@YAXXZ
_TEXT	SEGMENT
?SetFST@@YAXXZ PROC NEAR				; SetFST, COMDAT

; 518  : 	if( s_bFrameSkip == FALSE )		return;

  00000	a1 00 00 00 00	 mov	 eax, DWORD PTR _s_bFrameSkip
  00005	85 c0		 test	 eax, eax
  00007	74 7f		 je	 SHORT $L225829
  00009	56		 push	 esi

; 519  : 	UpdateTime();

  0000a	8b 35 00 00 00
	00		 mov	 esi, DWORD PTR __imp__timeGetTime@0
  00010	ff d6		 call	 esi
  00012	8b 0d 00 00 00
	00		 mov	 ecx, DWORD PTR ?m_dwOldTime@@3KA ; m_dwOldTime
  00018	8b d0		 mov	 edx, eax
  0001a	2b d1		 sub	 edx, ecx
  0001c	8b 0d 00 00 00
	00		 mov	 ecx, DWORD PTR ?m_lTime@@3KA ; m_lTime
  00022	03 ca		 add	 ecx, edx
  00024	81 f9 e8 03 00
	00		 cmp	 ecx, 1000		; 000003e8H
  0002a	89 0d 00 00 00
	00		 mov	 DWORD PTR ?m_lTime@@3KA, ecx ; m_lTime
  00030	76 0b		 jbe	 SHORT $L227262
  00032	b9 e8 03 00 00	 mov	 ecx, 1000		; 000003e8H
  00037	89 0d 00 00 00
	00		 mov	 DWORD PTR ?m_lTime@@3KA, ecx ; m_lTime
$L227262:

; 520  : 	while (m_lTime < (1000 / FRAME_PER_SEC))

  0003d	83 f9 10	 cmp	 ecx, 16			; 00000010H
  00040	a3 00 00 00 00	 mov	 DWORD PTR ?m_dwOldTime@@3KA, eax ; m_dwOldTime
  00045	73 37		 jae	 SHORT $L225833
$L225832:

; 521  : 		UpdateTime();

  00047	ff d6		 call	 esi
  00049	8b 0d 00 00 00
	00		 mov	 ecx, DWORD PTR ?m_dwOldTime@@3KA ; m_dwOldTime
  0004f	8b d0		 mov	 edx, eax
  00051	2b d1		 sub	 edx, ecx
  00053	8b 0d 00 00 00
	00		 mov	 ecx, DWORD PTR ?m_lTime@@3KA ; m_lTime
  00059	03 ca		 add	 ecx, edx
  0005b	81 f9 e8 03 00
	00		 cmp	 ecx, 1000		; 000003e8H
  00061	89 0d 00 00 00
	00		 mov	 DWORD PTR ?m_lTime@@3KA, ecx ; m_lTime
  00067	76 0b		 jbe	 SHORT $L227267
  00069	b9 e8 03 00 00	 mov	 ecx, 1000		; 000003e8H
  0006e	89 0d 00 00 00
	00		 mov	 DWORD PTR ?m_lTime@@3KA, ecx ; m_lTime
$L227267:
  00074	83 f9 10	 cmp	 ecx, 16			; 00000010H
  00077	a3 00 00 00 00	 mov	 DWORD PTR ?m_dwOldTime@@3KA, eax ; m_dwOldTime
  0007c	72 c9		 jb	 SHORT $L225832
$L225833:

; 522  : 
; 523  : 	m_lTime -= (1000 / FRAME_PER_SEC);

  0007e	83 e9 10	 sub	 ecx, 16			; 00000010H
  00081	89 0d 00 00 00
	00		 mov	 DWORD PTR ?m_lTime@@3KA, ecx ; m_lTime
  00087	5e		 pop	 esi
$L225829:

; 524  : }

  00088	c3		 ret	 0
?SetFST@@YAXXZ ENDP					; SetFST
_TEXT	ENDS
PUBLIC	??1CTimer@@UAE@XZ				; CTimer::~CTimer
PUBLIC	??_7CTimer@@6B@					; CTimer::`vftable'
PUBLIC	??_GCTimer@@UAEPAXI@Z				; CTimer::`scalar deleting destructor'
EXTRN	??_ECTimer@@UAEPAXI@Z:NEAR			; CTimer::`vector deleting destructor'
;	COMDAT ??_7CTimer@@6B@
; File c:\documents and settings\test\mes documents\source\virtuos_v17\build\program\_common\timer.h
CONST	SEGMENT
??_7CTimer@@6B@ DD FLAT:??_ECTimer@@UAEPAXI@Z		; CTimer::`vftable'
	DD	FLAT:?Reset@CTimer@@UAEXXZ
	DD	FLAT:?Over@CTimer@@UAEHXZ
; Function compile flags: /Ogty
CONST	ENDS
;	COMDAT ??1CTimer@@UAE@XZ
_TEXT	SEGMENT
??1CTimer@@UAE@XZ PROC NEAR				; CTimer::~CTimer, COMDAT
; _this$ = ecx

; 19   : 	virtual ~CTimer()	{}

  00000	c7 01 00 00 00
	00		 mov	 DWORD PTR [ecx], OFFSET FLAT:??_7CTimer@@6B@
  00006	c3		 ret	 0
??1CTimer@@UAE@XZ ENDP					; CTimer::~CTimer
_TEXT	ENDS
EXTRN	??3@YAXPAX@Z:NEAR				; operator delete
; Function compile flags: /Ogty
;	COMDAT ??_GCTimer@@UAEPAXI@Z
_TEXT	SEGMENT
___flags$ = 8						; size = 4
??_GCTimer@@UAEPAXI@Z PROC NEAR				; CTimer::`scalar deleting destructor', COMDAT
; _this$ = ecx
  00000	f6 44 24 04 01	 test	 BYTE PTR ___flags$[esp-4], 1
  00005	56		 push	 esi
  00006	8b f1		 mov	 esi, ecx
  00008	c7 06 00 00 00
	00		 mov	 DWORD PTR [esi], OFFSET FLAT:??_7CTimer@@6B@
  0000e	74 09		 je	 SHORT $L227279
  00010	56		 push	 esi
  00011	e8 00 00 00 00	 call	 ??3@YAXPAX@Z		; operator delete
  00016	83 c4 04	 add	 esp, 4
$L227279:
  00019	8b c6		 mov	 eax, esi
  0001b	5e		 pop	 esi
  0001c	c2 04 00	 ret	 4
??_GCTimer@@UAEPAXI@Z ENDP				; CTimer::`scalar deleting destructor'
_TEXT	ENDS
PUBLIC	??1CSkipTimer@@UAE@XZ				; CSkipTimer::~CSkipTimer
; Function compile flags: /Ogty
;	COMDAT ??1CSkipTimer@@UAE@XZ
_TEXT	SEGMENT
??1CSkipTimer@@UAE@XZ PROC NEAR				; CSkipTimer::~CSkipTimer, COMDAT
; _this$ = ecx

; 49   : 	virtual	~CSkipTimer()	{}

  00000	c7 01 00 00 00
	00		 mov	 DWORD PTR [ecx], OFFSET FLAT:??_7CTimer@@6B@
  00006	c3		 ret	 0
??1CSkipTimer@@UAE@XZ ENDP				; CSkipTimer::~CSkipTimer
_TEXT	ENDS
PUBLIC	??0CTimer@@QAE@XZ				; CTimer::CTimer
; Function compile flags: /Ogty
; File c:\documents and settings\test\mes documents\source\virtuos_v17\build\program\_common\timer.cpp
;	COMDAT ??0CTimer@@QAE@XZ
_TEXT	SEGMENT
tv143 = -4						; size = 4
??0CTimer@@QAE@XZ PROC NEAR				; CTimer::CTimer, COMDAT
; _this$ = ecx

; 9    : {

  00000	51		 push	 ecx
  00001	8b c1		 mov	 eax, ecx
  00003	c7 00 00 00 00
	00		 mov	 DWORD PTR [eax], OFFSET FLAT:??_7CTimer@@6B@

; 10   : 	Set( 0.0f );

  00009	c7 40 18 00 00
	00 00		 mov	 DWORD PTR [eax+24], 0
  00010	db 05 00 00 00
	00		 fild	 DWORD PTR ?g_tmCurrent@@3KA ; g_tmCurrent
  00016	8b 0d 00 00 00
	00		 mov	 ecx, DWORD PTR ?g_tmCurrent@@3KA ; g_tmCurrent
  0001c	85 c9		 test	 ecx, ecx
  0001e	7d 06		 jge	 SHORT $L227302
  00020	dc 05 00 00 00
	00		 fadd	 QWORD PTR __real@41f0000000000000
$L227302:
  00026	dd 50 08	 fst	 QWORD PTR [eax+8]
  00029	dd 58 10	 fstp	 QWORD PTR [eax+16]

; 11   : }

  0002c	59		 pop	 ecx
  0002d	c3		 ret	 0
??0CTimer@@QAE@XZ ENDP					; CTimer::CTimer
_TEXT	ENDS
PUBLIC	??0CTimer@@QAE@M@Z				; CTimer::CTimer
; Function compile flags: /Ogty
;	COMDAT ??0CTimer@@QAE@M@Z
_TEXT	SEGMENT
tv146 = -4						; size = 4
_fInterval$ = 8						; size = 4
??0CTimer@@QAE@M@Z PROC NEAR				; CTimer::CTimer, COMDAT
; _this$ = ecx

; 14   : {

  00000	51		 push	 ecx
  00001	8b c1		 mov	 eax, ecx

; 15   : 	Set( fInterval );

  00003	8b 4c 24 08	 mov	 ecx, DWORD PTR _fInterval$[esp]
  00007	c7 00 00 00 00
	00		 mov	 DWORD PTR [eax], OFFSET FLAT:??_7CTimer@@6B@
  0000d	89 48 18	 mov	 DWORD PTR [eax+24], ecx
  00010	db 05 00 00 00
	00		 fild	 DWORD PTR ?g_tmCurrent@@3KA ; g_tmCurrent
  00016	8b 15 00 00 00
	00		 mov	 edx, DWORD PTR ?g_tmCurrent@@3KA ; g_tmCurrent
  0001c	85 d2		 test	 edx, edx
  0001e	7d 06		 jge	 SHORT $L227318
  00020	dc 05 00 00 00
	00		 fadd	 QWORD PTR __real@41f0000000000000
$L227318:
  00026	dd 50 08	 fst	 QWORD PTR [eax+8]
  00029	d9 44 24 08	 fld	 DWORD PTR _fInterval$[esp]
  0002d	d8 c1		 fadd	 ST(0), ST(1)
  0002f	dd 58 10	 fstp	 QWORD PTR [eax+16]
  00032	dd d8		 fstp	 ST(0)

; 16   : }

  00034	59		 pop	 ecx
  00035	c2 04 00	 ret	 4
??0CTimer@@QAE@M@Z ENDP					; CTimer::CTimer
_TEXT	ENDS
PUBLIC	??0CTimer@@QAE@MH@Z				; CTimer::CTimer
; Function compile flags: /Ogty
;	COMDAT ??0CTimer@@QAE@MH@Z
_TEXT	SEGMENT
tv149 = -4						; size = 4
_fInterval$ = 8						; size = 4
_bFirstTimeOut$ = 12					; size = 4
??0CTimer@@QAE@MH@Z PROC NEAR				; CTimer::CTimer, COMDAT
; _this$ = ecx

; 19   : {

  00000	51		 push	 ecx
  00001	8b c1		 mov	 eax, ecx

; 20   : 	Set( fInterval, bFirstTimeOut );

  00003	8b 4c 24 08	 mov	 ecx, DWORD PTR _fInterval$[esp]
  00007	c7 00 00 00 00
	00		 mov	 DWORD PTR [eax], OFFSET FLAT:??_7CTimer@@6B@
  0000d	89 48 18	 mov	 DWORD PTR [eax+24], ecx
  00010	db 05 00 00 00
	00		 fild	 DWORD PTR ?g_tmCurrent@@3KA ; g_tmCurrent
  00016	8b 15 00 00 00
	00		 mov	 edx, DWORD PTR ?g_tmCurrent@@3KA ; g_tmCurrent
  0001c	85 d2		 test	 edx, edx
  0001e	7d 06		 jge	 SHORT $L227334
  00020	dc 05 00 00 00
	00		 fadd	 QWORD PTR __real@41f0000000000000
$L227334:
  00026	8b 4c 24 0c	 mov	 ecx, DWORD PTR _bFirstTimeOut$[esp]
  0002a	dd 50 08	 fst	 QWORD PTR [eax+8]
  0002d	85 c9		 test	 ecx, ecx
  0002f	75 04		 jne	 SHORT $L227331
  00031	d8 44 24 08	 fadd	 DWORD PTR _fInterval$[esp]
$L227331:
  00035	dd 58 10	 fstp	 QWORD PTR [eax+16]

; 21   : }

  00038	59		 pop	 ecx
  00039	c2 08 00	 ret	 8
??0CTimer@@QAE@MH@Z ENDP				; CTimer::CTimer
_TEXT	ENDS
PUBLIC	__real@0000000000000000
PUBLIC	__real@4147e53000000000
PUBLIC	??0CGameTimer@@QAE@XZ				; CGameTimer::CGameTimer
;	COMDAT __real@0000000000000000
CONST	SEGMENT
__real@0000000000000000 DQ 00000000000000000r	; 0
CONST	ENDS
;	COMDAT __real@4147e53000000000
CONST	SEGMENT
__real@4147e53000000000 DQ 04147e53000000000r	; 3.132e+006
; Function compile flags: /Ogty
CONST	ENDS
;	COMDAT ??0CGameTimer@@QAE@XZ
_TEXT	SEGMENT
tv147 = -4						; size = 4
??0CGameTimer@@QAE@XZ PROC NEAR				; CGameTimer::CGameTimer, COMDAT
; _this$ = ecx

; 143  : {

  00000	51		 push	 ecx

; 144  : 	m_nSec = 0;
; 145  : 	m_nMin = 0;
; 146  : 	m_nHour = 0;
; 147  : 	m_nDay = 0;
; 148  : 	m_dBeginTime = 0;

  00001	dd 05 00 00 00
	00		 fld	 QWORD PTR __real@0000000000000000
  00007	56		 push	 esi
  00008	8b f1		 mov	 esi, ecx
  0000a	dd 5e 08	 fstp	 QWORD PTR [esi+8]
  0000d	57		 push	 edi

; 149  : 	m_dCurrentTime = 0;
; 150  : 	SetCurrentTime( 3, 15 );

  0000e	dd 05 00 00 00
	00		 fld	 QWORD PTR __real@4147e53000000000
  00014	33 ff		 xor	 edi, edi
  00016	dd 1e		 fstp	 QWORD PTR [esi]
  00018	89 7e 14	 mov	 DWORD PTR [esi+20], edi
  0001b	89 7e 18	 mov	 DWORD PTR [esi+24], edi
  0001e	89 7e 1c	 mov	 DWORD PTR [esi+28], edi
  00021	89 7e 20	 mov	 DWORD PTR [esi+32], edi
  00024	ff 15 00 00 00
	00		 call	 DWORD PTR __imp__timeGetTime@0
  0002a	85 c0		 test	 eax, eax
  0002c	89 44 24 08	 mov	 DWORD PTR tv147[esp+12], eax
  00030	db 44 24 08	 fild	 DWORD PTR tv147[esp+12]
  00034	7d 06		 jge	 SHORT $L227351
  00036	dc 05 00 00 00
	00		 fadd	 QWORD PTR __real@41f0000000000000
$L227351:

; 151  : 	m_bFixed = FALSE;

  0003c	89 7e 10	 mov	 DWORD PTR [esi+16], edi
  0003f	dd 5e 08	 fstp	 QWORD PTR [esi+8]
  00042	5f		 pop	 edi

; 152  : }

  00043	8b c6		 mov	 eax, esi
  00045	5e		 pop	 esi
  00046	59		 pop	 ecx
  00047	c3		 ret	 0
??0CGameTimer@@QAE@XZ ENDP				; CGameTimer::CGameTimer
_TEXT	ENDS
PUBLIC	??0CGameTimer@@QAE@N@Z				; CGameTimer::CGameTimer
; Function compile flags: /Ogty
;	COMDAT ??0CGameTimer@@QAE@N@Z
_TEXT	SEGMENT
tv147 = 8						; size = 4
_dCurrentime$ = 8					; size = 8
??0CGameTimer@@QAE@N@Z PROC NEAR			; CGameTimer::CGameTimer, COMDAT
; _this$ = ecx

; 155  : 	m_nSec = 0;
; 156  : 	m_nMin = 0;
; 157  : 	m_nHour = 0;
; 158  : 	m_nDay = 0;
; 159  : 	m_dBeginTime = 0;

  00000	dd 05 00 00 00
	00		 fld	 QWORD PTR __real@0000000000000000
  00006	56		 push	 esi
  00007	8b f1		 mov	 esi, ecx
  00009	dd 5e 08	 fstp	 QWORD PTR [esi+8]
  0000c	57		 push	 edi

; 160  : 	m_dCurrentTime = 0;
; 161  : 	SetCurrentTime( dCurrentime );

  0000d	dd 44 24 0c	 fld	 QWORD PTR _dCurrentime$[esp+4]
  00011	33 ff		 xor	 edi, edi
  00013	dd 1e		 fstp	 QWORD PTR [esi]
  00015	89 7e 14	 mov	 DWORD PTR [esi+20], edi
  00018	89 7e 18	 mov	 DWORD PTR [esi+24], edi
  0001b	89 7e 1c	 mov	 DWORD PTR [esi+28], edi
  0001e	89 7e 20	 mov	 DWORD PTR [esi+32], edi
  00021	ff 15 00 00 00
	00		 call	 DWORD PTR __imp__timeGetTime@0
  00027	85 c0		 test	 eax, eax
  00029	89 44 24 0c	 mov	 DWORD PTR tv147[esp+4], eax
  0002d	db 44 24 0c	 fild	 DWORD PTR tv147[esp+4]
  00031	7d 06		 jge	 SHORT $L227358
  00033	dc 05 00 00 00
	00		 fadd	 QWORD PTR __real@41f0000000000000
$L227358:

; 162  : 	m_bFixed = FALSE;

  00039	89 7e 10	 mov	 DWORD PTR [esi+16], edi
  0003c	dd 5e 08	 fstp	 QWORD PTR [esi+8]
  0003f	5f		 pop	 edi

; 163  : }

  00040	8b c6		 mov	 eax, esi
  00042	5e		 pop	 esi
  00043	c2 08 00	 ret	 8
??0CGameTimer@@QAE@N@Z ENDP				; CGameTimer::CGameTimer
_TEXT	ENDS
PUBLIC	??1CDate@@QAE@XZ				; CDate::~CDate
; Function compile flags: /Ogty
;	COMDAT ??1CDate@@QAE@XZ
_TEXT	SEGMENT
??1CDate@@QAE@XZ PROC NEAR				; CDate::~CDate, COMDAT
; _this$ = ecx

; 313  : }

  00000	c7 01 00 00 00
	00		 mov	 DWORD PTR [ecx], OFFSET FLAT:??_7CTimer@@6B@
  00006	c3		 ret	 0
??1CDate@@QAE@XZ ENDP					; CDate::~CDate
_TEXT	ENDS
PUBLIC	??0CSkipTimer@@QAE@XZ				; CSkipTimer::CSkipTimer
PUBLIC	??_7CSkipTimer@@6B@				; CSkipTimer::`vftable'
PUBLIC	??_GCSkipTimer@@UAEPAXI@Z			; CSkipTimer::`scalar deleting destructor'
EXTRN	??_ECSkipTimer@@UAEPAXI@Z:NEAR			; CSkipTimer::`vector deleting destructor'
;	COMDAT ??_7CSkipTimer@@6B@
CONST	SEGMENT
??_7CSkipTimer@@6B@ DD FLAT:??_ECSkipTimer@@UAEPAXI@Z	; CSkipTimer::`vftable'
	DD	FLAT:?Reset@CTimer@@UAEXXZ
	DD	FLAT:?Over@CSkipTimer@@UAEHXZ
; Function compile flags: /Ogty
; File c:\documents and settings\test\mes documents\source\virtuos_v17\build\program\_common\timer.h
CONST	ENDS
;	COMDAT ??0CSkipTimer@@QAE@XZ
_TEXT	SEGMENT
tv144 = -4						; size = 4
??0CSkipTimer@@QAE@XZ PROC NEAR				; CSkipTimer::CSkipTimer, COMDAT
; _this$ = ecx

; 47   : 	CSkipTimer() : CTimer()		{}

  00000	51		 push	 ecx
  00001	8b c1		 mov	 eax, ecx
  00003	c7 00 00 00 00
	00		 mov	 DWORD PTR [eax], OFFSET FLAT:??_7CTimer@@6B@
  00009	c7 40 18 00 00
	00 00		 mov	 DWORD PTR [eax+24], 0
  00010	db 05 00 00 00
	00		 fild	 DWORD PTR ?g_tmCurrent@@3KA ; g_tmCurrent
  00016	8b 0d 00 00 00
	00		 mov	 ecx, DWORD PTR ?g_tmCurrent@@3KA ; g_tmCurrent
  0001c	85 c9		 test	 ecx, ecx
  0001e	7d 06		 jge	 SHORT $L227396
  00020	dc 05 00 00 00
	00		 fadd	 QWORD PTR __real@41f0000000000000
$L227396:
  00026	dd 50 08	 fst	 QWORD PTR [eax+8]
  00029	c7 00 00 00 00
	00		 mov	 DWORD PTR [eax], OFFSET FLAT:??_7CSkipTimer@@6B@
  0002f	dd 58 10	 fstp	 QWORD PTR [eax+16]
  00032	59		 pop	 ecx
  00033	c3		 ret	 0
??0CSkipTimer@@QAE@XZ ENDP				; CSkipTimer::CSkipTimer
; Function compile flags: /Ogty
_TEXT	ENDS
;	COMDAT ??_GCSkipTimer@@UAEPAXI@Z
_TEXT	SEGMENT
___flags$ = 8						; size = 4
??_GCSkipTimer@@UAEPAXI@Z PROC NEAR			; CSkipTimer::`scalar deleting destructor', COMDAT
; _this$ = ecx
  00000	56		 push	 esi
  00001	8b f1		 mov	 esi, ecx
  00003	e8 00 00 00 00	 call	 ??1CSkipTimer@@UAE@XZ	; CSkipTimer::~CSkipTimer
  00008	f6 44 24 08 01	 test	 BYTE PTR ___flags$[esp], 1
  0000d	74 09		 je	 SHORT $L227400
  0000f	56		 push	 esi
  00010	e8 00 00 00 00	 call	 ??3@YAXPAX@Z		; operator delete
  00015	83 c4 04	 add	 esp, 4
$L227400:
  00018	8b c6		 mov	 eax, esi
  0001a	5e		 pop	 esi
  0001b	c2 04 00	 ret	 4
??_GCSkipTimer@@UAEPAXI@Z ENDP				; CSkipTimer::`scalar deleting destructor'
_TEXT	ENDS
PUBLIC	??0CDate@@QAE@XZ				; CDate::CDate
; Function compile flags: /Ogty
; File c:\documents and settings\test\mes documents\source\virtuos_v17\build\program\_common\timer.cpp
;	COMDAT ??0CDate@@QAE@XZ
_TEXT	SEGMENT
tv165 = -4						; size = 4
??0CDate@@QAE@XZ PROC NEAR				; CDate::CDate, COMDAT
; _this$ = ecx

; 291  : {

  00000	51		 push	 ecx
  00001	8b c1		 mov	 eax, ecx
  00003	c7 00 00 00 00
	00		 mov	 DWORD PTR [eax], OFFSET FLAT:??_7CTimer@@6B@
  00009	c7 40 18 00 00
	00 00		 mov	 DWORD PTR [eax+24], 0
  00010	db 05 00 00 00
	00		 fild	 DWORD PTR ?g_tmCurrent@@3KA ; g_tmCurrent
  00016	8b 0d 00 00 00
	00		 mov	 ecx, DWORD PTR ?g_tmCurrent@@3KA ; g_tmCurrent
  0001c	85 c9		 test	 ecx, ecx
  0001e	7d 06		 jge	 SHORT $L227437
  00020	dc 05 00 00 00
	00		 fadd	 QWORD PTR __real@41f0000000000000
$L227437:

; 292  : 	m_nYear   = 1;

  00026	b9 01 00 00 00	 mov	 ecx, 1
  0002b	dd 50 08	 fst	 QWORD PTR [eax+8]
  0002e	dd 58 10	 fstp	 QWORD PTR [eax+16]
  00031	c7 00 00 00 00
	00		 mov	 DWORD PTR [eax], OFFSET FLAT:??_7CSkipTimer@@6B@
  00037	89 48 2c	 mov	 DWORD PTR [eax+44], ecx

; 293  : 	m_nMonth  = 1;

  0003a	89 48 30	 mov	 DWORD PTR [eax+48], ecx

; 294  : 	m_nDay    = 1;

  0003d	89 48 34	 mov	 DWORD PTR [eax+52], ecx

; 295  : 	m_nHour   = 1;

  00040	89 48 38	 mov	 DWORD PTR [eax+56], ecx

; 296  : 	m_nMinute = 1;

  00043	89 48 3c	 mov	 DWORD PTR [eax+60], ecx

; 297  : 	m_nSecond = 1;

  00046	89 48 40	 mov	 DWORD PTR [eax+64], ecx

; 298  : 	m_nDelay  = 1;

  00049	89 48 28	 mov	 DWORD PTR [eax+40], ecx

; 299  : }

  0004c	59		 pop	 ecx
  0004d	c3		 ret	 0
??0CDate@@QAE@XZ ENDP					; CDate::CDate
_TEXT	ENDS
PUBLIC	??0CDate@@QAE@HHHHHHH@Z				; CDate::CDate
; Function compile flags: /Ogty
;	COMDAT ??0CDate@@QAE@HHHHHHH@Z
_TEXT	SEGMENT
tv173 = -4						; size = 4
tv168 = 8						; size = 4
_nYear$ = 8						; size = 4
_nMonth$ = 12						; size = 4
_nDay$ = 16						; size = 4
_nHour$ = 20						; size = 4
_nMinute$ = 24						; size = 4
_nSecond$ = 28						; size = 4
_nDelay$ = 32						; size = 4
??0CDate@@QAE@HHHHHHH@Z PROC NEAR			; CDate::CDate, COMDAT
; _this$ = ecx

; 301  : {

  00000	51		 push	 ecx
  00001	8b c1		 mov	 eax, ecx
  00003	33 c9		 xor	 ecx, ecx
  00005	c7 00 00 00 00
	00		 mov	 DWORD PTR [eax], OFFSET FLAT:??_7CTimer@@6B@
  0000b	89 48 18	 mov	 DWORD PTR [eax+24], ecx
  0000e	db 05 00 00 00
	00		 fild	 DWORD PTR ?g_tmCurrent@@3KA ; g_tmCurrent
  00014	8b 15 00 00 00
	00		 mov	 edx, DWORD PTR ?g_tmCurrent@@3KA ; g_tmCurrent
  0001a	85 d2		 test	 edx, edx
  0001c	7d 06		 jge	 SHORT $L227483
  0001e	dc 05 00 00 00
	00		 fadd	 QWORD PTR __real@41f0000000000000
$L227483:

; 302  : 	m_nYear   = nYear  ;

  00024	8b 54 24 08	 mov	 edx, DWORD PTR _nYear$[esp]
  00028	dd 50 08	 fst	 QWORD PTR [eax+8]
  0002b	89 50 2c	 mov	 DWORD PTR [eax+44], edx
  0002e	dd 58 10	 fstp	 QWORD PTR [eax+16]

; 303  : 	m_nMonth  = nMonth ;

  00031	8b 54 24 0c	 mov	 edx, DWORD PTR _nMonth$[esp]
  00035	89 50 30	 mov	 DWORD PTR [eax+48], edx

; 304  : 	m_nDay    = nDay   ;

  00038	8b 54 24 10	 mov	 edx, DWORD PTR _nDay$[esp]
  0003c	89 50 34	 mov	 DWORD PTR [eax+52], edx

; 305  : 	m_nHour   = nHour  ;

  0003f	8b 54 24 14	 mov	 edx, DWORD PTR _nHour$[esp]
  00043	89 50 38	 mov	 DWORD PTR [eax+56], edx

; 306  : 	m_nMinute = nMinute;

  00046	8b 54 24 18	 mov	 edx, DWORD PTR _nMinute$[esp]
  0004a	89 50 3c	 mov	 DWORD PTR [eax+60], edx

; 307  : 	m_nSecond = nSecond;

  0004d	8b 54 24 1c	 mov	 edx, DWORD PTR _nSecond$[esp]
  00051	89 50 40	 mov	 DWORD PTR [eax+64], edx

; 308  : 	m_nDelay  = nDelay ;

  00054	8b 54 24 20	 mov	 edx, DWORD PTR _nDelay$[esp]
  00058	c7 00 00 00 00
	00		 mov	 DWORD PTR [eax], OFFSET FLAT:??_7CSkipTimer@@6B@
  0005e	89 50 28	 mov	 DWORD PTR [eax+40], edx

; 309  : 	m_delay.Set((float)m_nDelay);

  00061	db 05 00 00 00
	00		 fild	 DWORD PTR ?g_tmCurrent@@3KA ; g_tmCurrent
  00067	8b 15 00 00 00
	00		 mov	 edx, DWORD PTR ?g_tmCurrent@@3KA ; g_tmCurrent
  0006d	85 d2		 test	 edx, edx
  0006f	7d 06		 jge	 SHORT $L227484
  00071	dc 05 00 00 00
	00		 fadd	 QWORD PTR __real@41f0000000000000
$L227484:
  00077	dd 58 08	 fstp	 QWORD PTR [eax+8]
  0007a	89 48 20	 mov	 DWORD PTR [eax+32], ecx
  0007d	db 44 24 20	 fild	 DWORD PTR _nDelay$[esp]
  00081	d9 58 18	 fstp	 DWORD PTR [eax+24]

; 310  : }

  00084	59		 pop	 ecx
  00085	c2 1c 00	 ret	 28			; 0000001cH
??0CDate@@QAE@HHHHHHH@Z ENDP				; CDate::CDate
_TEXT	ENDS
END
