; Listing generated by Microsoft (R) Optimizing Compiler Version 13.10.6030 

	TITLE	.\WantedListSnapshot.cpp
	.386P
include listing.inc
if @Version gt 510
.model FLAT
else
_TEXT	SEGMENT PARA USE32 PUBLIC 'CODE'
_TEXT	ENDS
_DATA	SEGMENT DWORD USE32 PUBLIC 'DATA'
_DATA	ENDS
CONST	SEGMENT DWORD USE32 PUBLIC 'CONST'
CONST	ENDS
_BSS	SEGMENT DWORD USE32 PUBLIC 'BSS'
_BSS	ENDS
$$SYMBOLS	SEGMENT BYTE USE32 'DEBSYM'
$$SYMBOLS	ENDS
$$TYPES	SEGMENT BYTE USE32 'DEBTYP'
$$TYPES	ENDS
_TLS	SEGMENT DWORD USE32 PUBLIC 'TLS'
_TLS	ENDS
text$yd	SEGMENT PARA USE32 PUBLIC 'CODE'
text$yd	ENDS
xdata$x	SEGMENT DWORD USE32 PUBLIC 'CONST'
xdata$x	ENDS
text$AFX_COL1	SEGMENT PARA USE32 PUBLIC ''
text$AFX_COL1	ENDS
;	COMDAT ?GetInstance@CWantedListSnapshot@@SAAAV1@XZ
_TEXT	SEGMENT PARA USE32 PUBLIC 'CODE'
_TEXT	ENDS
;	COMDAT _$E2
text$yd	SEGMENT PARA USE32 PUBLIC 'CODE'
text$yd	ENDS
;	COMDAT ??0CWantedListSnapshot@@QAE@XZ
_TEXT	SEGMENT PARA USE32 PUBLIC 'CODE'
_TEXT	ENDS
;	COMDAT ??_GCWantedListSnapshot@@UAEPAXI@Z
_TEXT	SEGMENT PARA USE32 PUBLIC 'CODE'
_TEXT	ENDS
;	COMDAT ??1CWantedListSnapshot@@UAE@XZ
_TEXT	SEGMENT PARA USE32 PUBLIC 'CODE'
_TEXT	ENDS
;	COMDAT ?Read@CWantedListSnapshot@@QAEXAAVCAr@@@Z
_TEXT	SEGMENT PARA USE32 PUBLIC 'CODE'
_TEXT	ENDS
;	COMDAT ?Write@CWantedListSnapshot@@QAEXAAVCAr@@@Z
_TEXT	SEGMENT PARA USE32 PUBLIC 'CODE'
_TEXT	ENDS
;	COMDAT ?GetPlayerIndex@CWantedListSnapshot@@QAEHPBD@Z
_TEXT	SEGMENT PARA USE32 PUBLIC 'CODE'
_TEXT	ENDS
;	COMDAT ?compare@?$basic_string@DU?$char_traits@D@std@@V?$allocator@D@2@@std@@QBEHABV12@@Z
_TEXT	SEGMENT PARA USE32 PUBLIC 'CODE'
_TEXT	ENDS
;	COMDAT ?IsFull@?$CStack@K@@QAEHXZ
_TEXT	SEGMENT PARA USE32 PUBLIC 'CODE'
_TEXT	ENDS
;	COMDAT ??0?$pair@KPAVCCtrl@@@std@@QAE@ABKABQAVCCtrl@@@Z
_TEXT	SEGMENT PARA USE32 PUBLIC 'CODE'
_TEXT	ENDS
;	COMDAT ?GetMax@?$CItemContainer@VCItemElem@@@@QAEHXZ
_TEXT	SEGMENT PARA USE32 PUBLIC 'CODE'
_TEXT	ENDS
;	COMDAT ??0?$deque@PAUtagACTMSG@@V?$allocator@PAUtagACTMSG@@@std@@@std@@QAE@XZ
_TEXT	SEGMENT PARA USE32 PUBLIC 'CODE'
_TEXT	ENDS
;	COMDAT ??1?$deque@PAUtagACTMSG@@V?$allocator@PAUtagACTMSG@@@std@@@std@@QAE@XZ
_TEXT	SEGMENT PARA USE32 PUBLIC 'CODE'
_TEXT	ENDS
;	COMDAT ?begin@?$deque@PAUtagACTMSG@@V?$allocator@PAUtagACTMSG@@@std@@@std@@QAE?AViterator@12@XZ
_TEXT	SEGMENT PARA USE32 PUBLIC 'CODE'
_TEXT	ENDS
;	COMDAT ?end@?$deque@PAUtagACTMSG@@V?$allocator@PAUtagACTMSG@@@std@@@std@@QAE?AViterator@12@XZ
_TEXT	SEGMENT PARA USE32 PUBLIC 'CODE'
_TEXT	ENDS
;	COMDAT ?empty@?$deque@PAUtagACTMSG@@V?$allocator@PAUtagACTMSG@@@std@@@std@@QBE_NXZ
_TEXT	SEGMENT PARA USE32 PUBLIC 'CODE'
_TEXT	ENDS
;	COMDAT ?clear@?$deque@PAUtagACTMSG@@V?$allocator@PAUtagACTMSG@@@std@@@std@@QAEXXZ
_TEXT	SEGMENT PARA USE32 PUBLIC 'CODE'
_TEXT	ENDS
;	COMDAT ??0?$deque@PAUtagMAGICATKMSG@@V?$allocator@PAUtagMAGICATKMSG@@@std@@@std@@QAE@XZ
_TEXT	SEGMENT PARA USE32 PUBLIC 'CODE'
_TEXT	ENDS
;	COMDAT ??1?$deque@PAUtagMAGICATKMSG@@V?$allocator@PAUtagMAGICATKMSG@@@std@@@std@@QAE@XZ
_TEXT	SEGMENT PARA USE32 PUBLIC 'CODE'
_TEXT	ENDS
;	COMDAT ?begin@?$deque@PAUtagMAGICATKMSG@@V?$allocator@PAUtagMAGICATKMSG@@@std@@@std@@QAE?AViterator@12@XZ
_TEXT	SEGMENT PARA USE32 PUBLIC 'CODE'
_TEXT	ENDS
;	COMDAT ?end@?$deque@PAUtagMAGICATKMSG@@V?$allocator@PAUtagMAGICATKMSG@@@std@@@std@@QAE?AViterator@12@XZ
_TEXT	SEGMENT PARA USE32 PUBLIC 'CODE'
_TEXT	ENDS
;	COMDAT ?empty@?$deque@PAUtagMAGICATKMSG@@V?$allocator@PAUtagMAGICATKMSG@@@std@@@std@@QBE_NXZ
_TEXT	SEGMENT PARA USE32 PUBLIC 'CODE'
_TEXT	ENDS
;	COMDAT ?clear@?$deque@PAUtagMAGICATKMSG@@V?$allocator@PAUtagMAGICATKMSG@@@std@@@std@@QAEXXZ
_TEXT	SEGMENT PARA USE32 PUBLIC 'CODE'
_TEXT	ENDS
;	COMDAT ??Diterator@?$deque@PAUtagACTMSG@@V?$allocator@PAUtagACTMSG@@@std@@@std@@QBEAAPAUtagACTMSG@@XZ
_TEXT	SEGMENT PARA USE32 PUBLIC 'CODE'
_TEXT	ENDS
;	COMDAT ??Eiterator@?$deque@PAUtagACTMSG@@V?$allocator@PAUtagACTMSG@@@std@@@std@@QAEAAV012@XZ
_TEXT	SEGMENT PARA USE32 PUBLIC 'CODE'
_TEXT	ENDS
;	COMDAT ??9const_iterator@?$deque@PAUtagACTMSG@@V?$allocator@PAUtagACTMSG@@@std@@@std@@QBE_NABV012@@Z
_TEXT	SEGMENT PARA USE32 PUBLIC 'CODE'
_TEXT	ENDS
;	COMDAT ??Diterator@?$deque@PAUtagMAGICATKMSG@@V?$allocator@PAUtagMAGICATKMSG@@@std@@@std@@QBEAAPAUtagMAGICATKMSG@@XZ
_TEXT	SEGMENT PARA USE32 PUBLIC 'CODE'
_TEXT	ENDS
;	COMDAT ??Eiterator@?$deque@PAUtagMAGICATKMSG@@V?$allocator@PAUtagMAGICATKMSG@@@std@@@std@@QAEAAV012@XZ
_TEXT	SEGMENT PARA USE32 PUBLIC 'CODE'
_TEXT	ENDS
;	COMDAT ??9const_iterator@?$deque@PAUtagMAGICATKMSG@@V?$allocator@PAUtagMAGICATKMSG@@@std@@@std@@QBE_NABV012@@Z
_TEXT	SEGMENT PARA USE32 PUBLIC 'CODE'
_TEXT	ENDS
;	COMDAT ??0?$vector@UWANTED_ENTRY@@V?$allocator@UWANTED_ENTRY@@@std@@@std@@QAE@XZ
_TEXT	SEGMENT PARA USE32 PUBLIC 'CODE'
_TEXT	ENDS
;	COMDAT ??1?$vector@UWANTED_ENTRY@@V?$allocator@UWANTED_ENTRY@@@std@@@std@@QAE@XZ
_TEXT	SEGMENT PARA USE32 PUBLIC 'CODE'
_TEXT	ENDS
;	COMDAT ?begin@?$vector@UWANTED_ENTRY@@V?$allocator@UWANTED_ENTRY@@@std@@@std@@QAE?AViterator@12@XZ
_TEXT	SEGMENT PARA USE32 PUBLIC 'CODE'
_TEXT	ENDS
;	COMDAT ?end@?$vector@UWANTED_ENTRY@@V?$allocator@UWANTED_ENTRY@@@std@@@std@@QAE?AViterator@12@XZ
_TEXT	SEGMENT PARA USE32 PUBLIC 'CODE'
_TEXT	ENDS
;	COMDAT ?size@?$vector@UWANTED_ENTRY@@V?$allocator@UWANTED_ENTRY@@@std@@@std@@QBEIXZ
_TEXT	SEGMENT PARA USE32 PUBLIC 'CODE'
_TEXT	ENDS
;	COMDAT ??A?$vector@UWANTED_ENTRY@@V?$allocator@UWANTED_ENTRY@@@std@@@std@@QAEAAUWANTED_ENTRY@@I@Z
_TEXT	SEGMENT PARA USE32 PUBLIC 'CODE'
_TEXT	ENDS
;	COMDAT ?push_back@?$vector@UWANTED_ENTRY@@V?$allocator@UWANTED_ENTRY@@@std@@@std@@QAEXABUWANTED_ENTRY@@@Z
_TEXT	SEGMENT PARA USE32 PUBLIC 'CODE'
_TEXT	ENDS
;	COMDAT ?clear@?$vector@UWANTED_ENTRY@@V?$allocator@UWANTED_ENTRY@@@std@@@std@@QAEXXZ
_TEXT	SEGMENT PARA USE32 PUBLIC 'CODE'
_TEXT	ENDS
;	COMDAT ??0iterator@?$vector@UWANTED_ENTRY@@V?$allocator@UWANTED_ENTRY@@@std@@@std@@QAE@XZ
_TEXT	SEGMENT PARA USE32 PUBLIC 'CODE'
_TEXT	ENDS
;	COMDAT ??Diterator@?$vector@UWANTED_ENTRY@@V?$allocator@UWANTED_ENTRY@@@std@@@std@@QBEAAUWANTED_ENTRY@@XZ
_TEXT	SEGMENT PARA USE32 PUBLIC 'CODE'
_TEXT	ENDS
;	COMDAT ??Eiterator@?$vector@UWANTED_ENTRY@@V?$allocator@UWANTED_ENTRY@@@std@@@std@@QAEAAV012@XZ
_TEXT	SEGMENT PARA USE32 PUBLIC 'CODE'
_TEXT	ENDS
;	COMDAT ??9const_iterator@?$vector@UWANTED_ENTRY@@V?$allocator@UWANTED_ENTRY@@@std@@@std@@QBE_NABV012@@Z
_TEXT	SEGMENT PARA USE32 PUBLIC 'CODE'
_TEXT	ENDS
;	COMDAT ?compare@?$basic_string@DU?$char_traits@D@std@@V?$allocator@D@2@@std@@QBEHIIPBDI@Z
_TEXT	SEGMENT PARA USE32 PUBLIC 'CODE'
_TEXT	ENDS
;	COMDAT ?_Tidy@?$deque@PAUtagACTMSG@@V?$allocator@PAUtagACTMSG@@@std@@@std@@IAEXXZ
_TEXT	SEGMENT PARA USE32 PUBLIC 'CODE'
_TEXT	ENDS
;	COMDAT ??0?$_Deque_val@PAUtagACTMSG@@V?$allocator@PAUtagACTMSG@@@std@@@std@@IAE@V?$allocator@PAUtagACTMSG@@@1@@Z
_TEXT	SEGMENT PARA USE32 PUBLIC 'CODE'
_TEXT	ENDS
;	COMDAT ??0?$allocator@PAUtagACTMSG@@@std@@QAE@XZ
_TEXT	SEGMENT PARA USE32 PUBLIC 'CODE'
_TEXT	ENDS
;	COMDAT ?_Tidy@?$deque@PAUtagMAGICATKMSG@@V?$allocator@PAUtagMAGICATKMSG@@@std@@@std@@IAEXXZ
_TEXT	SEGMENT PARA USE32 PUBLIC 'CODE'
_TEXT	ENDS
;	COMDAT ??0?$_Deque_val@PAUtagMAGICATKMSG@@V?$allocator@PAUtagMAGICATKMSG@@@std@@@std@@IAE@V?$allocator@PAUtagMAGICATKMSG@@@1@@Z
_TEXT	SEGMENT PARA USE32 PUBLIC 'CODE'
_TEXT	ENDS
;	COMDAT ??0?$allocator@PAUtagMAGICATKMSG@@@std@@QAE@XZ
_TEXT	SEGMENT PARA USE32 PUBLIC 'CODE'
_TEXT	ENDS
;	COMDAT ??0iterator@?$deque@PAUtagACTMSG@@V?$allocator@PAUtagACTMSG@@@std@@@std@@QAE@IPBV12@@Z
_TEXT	SEGMENT PARA USE32 PUBLIC 'CODE'
_TEXT	ENDS
;	COMDAT ??Dconst_iterator@?$deque@PAUtagACTMSG@@V?$allocator@PAUtagACTMSG@@@std@@@std@@QBEABQAUtagACTMSG@@XZ
_TEXT	SEGMENT PARA USE32 PUBLIC 'CODE'
_TEXT	ENDS
;	COMDAT ??8const_iterator@?$deque@PAUtagACTMSG@@V?$allocator@PAUtagACTMSG@@@std@@@std@@QBE_NABV012@@Z
_TEXT	SEGMENT PARA USE32 PUBLIC 'CODE'
_TEXT	ENDS
;	COMDAT ??0iterator@?$deque@PAUtagMAGICATKMSG@@V?$allocator@PAUtagMAGICATKMSG@@@std@@@std@@QAE@IPBV12@@Z
_TEXT	SEGMENT PARA USE32 PUBLIC 'CODE'
_TEXT	ENDS
;	COMDAT ??Dconst_iterator@?$deque@PAUtagMAGICATKMSG@@V?$allocator@PAUtagMAGICATKMSG@@@std@@@std@@QBEABQAUtagMAGICATKMSG@@XZ
_TEXT	SEGMENT PARA USE32 PUBLIC 'CODE'
_TEXT	ENDS
;	COMDAT ??8const_iterator@?$deque@PAUtagMAGICATKMSG@@V?$allocator@PAUtagMAGICATKMSG@@@std@@@std@@QBE_NABV012@@Z
_TEXT	SEGMENT PARA USE32 PUBLIC 'CODE'
_TEXT	ENDS
;	COMDAT ?capacity@?$vector@UWANTED_ENTRY@@V?$allocator@UWANTED_ENTRY@@@std@@@std@@QBEIXZ
_TEXT	SEGMENT PARA USE32 PUBLIC 'CODE'
_TEXT	ENDS
;	COMDAT ?insert@?$vector@UWANTED_ENTRY@@V?$allocator@UWANTED_ENTRY@@@std@@@std@@QAE?AViterator@12@V312@ABUWANTED_ENTRY@@@Z
_TEXT	SEGMENT PARA USE32 PUBLIC 'CODE'
_TEXT	ENDS
;	COMDAT ?_Buy@?$vector@UWANTED_ENTRY@@V?$allocator@UWANTED_ENTRY@@@std@@@std@@IAE_NI@Z
_TEXT	SEGMENT PARA USE32 PUBLIC 'CODE'
_TEXT	ENDS
;	COMDAT ?_Tidy@?$vector@UWANTED_ENTRY@@V?$allocator@UWANTED_ENTRY@@@std@@@std@@IAEXXZ
_TEXT	SEGMENT PARA USE32 PUBLIC 'CODE'
_TEXT	ENDS
;	COMDAT ?_Ufill@?$vector@UWANTED_ENTRY@@V?$allocator@UWANTED_ENTRY@@@std@@@std@@IAEPAUWANTED_ENTRY@@PAU3@IABU3@@Z
_TEXT	SEGMENT PARA USE32 PUBLIC 'CODE'
_TEXT	ENDS
;	COMDAT ??0?$_Vector_val@UWANTED_ENTRY@@V?$allocator@UWANTED_ENTRY@@@std@@@std@@IAE@V?$allocator@UWANTED_ENTRY@@@1@@Z
_TEXT	SEGMENT PARA USE32 PUBLIC 'CODE'
_TEXT	ENDS
;	COMDAT ??0?$allocator@UWANTED_ENTRY@@@std@@QAE@XZ
_TEXT	SEGMENT PARA USE32 PUBLIC 'CODE'
_TEXT	ENDS
;	COMDAT ??0iterator@?$vector@UWANTED_ENTRY@@V?$allocator@UWANTED_ENTRY@@@std@@@std@@QAE@PAUWANTED_ENTRY@@@Z
_TEXT	SEGMENT PARA USE32 PUBLIC 'CODE'
_TEXT	ENDS
;	COMDAT ??Hiterator@?$vector@UWANTED_ENTRY@@V?$allocator@UWANTED_ENTRY@@@std@@@std@@QBE?AV012@H@Z
_TEXT	SEGMENT PARA USE32 PUBLIC 'CODE'
_TEXT	ENDS
;	COMDAT ??0const_iterator@?$vector@UWANTED_ENTRY@@V?$allocator@UWANTED_ENTRY@@@std@@@std@@QAE@XZ
_TEXT	SEGMENT PARA USE32 PUBLIC 'CODE'
_TEXT	ENDS
;	COMDAT ??Dconst_iterator@?$vector@UWANTED_ENTRY@@V?$allocator@UWANTED_ENTRY@@@std@@@std@@QBEABUWANTED_ENTRY@@XZ
_TEXT	SEGMENT PARA USE32 PUBLIC 'CODE'
_TEXT	ENDS
;	COMDAT ??8const_iterator@?$vector@UWANTED_ENTRY@@V?$allocator@UWANTED_ENTRY@@@std@@@std@@QBE_NABV012@@Z
_TEXT	SEGMENT PARA USE32 PUBLIC 'CODE'
_TEXT	ENDS
;	COMDAT ?pop_back@?$deque@PAUtagACTMSG@@V?$allocator@PAUtagACTMSG@@@std@@@std@@QAEXXZ
_TEXT	SEGMENT PARA USE32 PUBLIC 'CODE'
_TEXT	ENDS
;	COMDAT ??0?$_Deque_map@PAUtagACTMSG@@V?$allocator@PAUtagACTMSG@@@std@@@std@@IAE@V?$allocator@PAUtagACTMSG@@@1@@Z
_TEXT	SEGMENT PARA USE32 PUBLIC 'CODE'
_TEXT	ENDS
;	COMDAT ??0?$allocator@PAUtagACTMSG@@@std@@QAE@ABV01@@Z
_TEXT	SEGMENT PARA USE32 PUBLIC 'CODE'
_TEXT	ENDS
;	COMDAT ?deallocate@?$allocator@PAUtagACTMSG@@@std@@QAEXPAPAUtagACTMSG@@I@Z
_TEXT	SEGMENT PARA USE32 PUBLIC 'CODE'
_TEXT	ENDS
;	COMDAT ?deallocate@?$allocator@PAPAUtagACTMSG@@@std@@QAEXPAPAPAUtagACTMSG@@I@Z
_TEXT	SEGMENT PARA USE32 PUBLIC 'CODE'
_TEXT	ENDS
;	COMDAT ?destroy@?$allocator@PAPAUtagACTMSG@@@std@@QAEXPAPAPAUtagACTMSG@@@Z
_TEXT	SEGMENT PARA USE32 PUBLIC 'CODE'
_TEXT	ENDS
;	COMDAT ?pop_back@?$deque@PAUtagMAGICATKMSG@@V?$allocator@PAUtagMAGICATKMSG@@@std@@@std@@QAEXXZ
_TEXT	SEGMENT PARA USE32 PUBLIC 'CODE'
_TEXT	ENDS
;	COMDAT ??0?$_Deque_map@PAUtagMAGICATKMSG@@V?$allocator@PAUtagMAGICATKMSG@@@std@@@std@@IAE@V?$allocator@PAUtagMAGICATKMSG@@@1@@Z
_TEXT	SEGMENT PARA USE32 PUBLIC 'CODE'
_TEXT	ENDS
;	COMDAT ??0?$allocator@PAUtagMAGICATKMSG@@@std@@QAE@ABV01@@Z
_TEXT	SEGMENT PARA USE32 PUBLIC 'CODE'
_TEXT	ENDS
;	COMDAT ?deallocate@?$allocator@PAUtagMAGICATKMSG@@@std@@QAEXPAPAUtagMAGICATKMSG@@I@Z
_TEXT	SEGMENT PARA USE32 PUBLIC 'CODE'
_TEXT	ENDS
;	COMDAT ?deallocate@?$allocator@PAPAUtagMAGICATKMSG@@@std@@QAEXPAPAPAUtagMAGICATKMSG@@I@Z
_TEXT	SEGMENT PARA USE32 PUBLIC 'CODE'
_TEXT	ENDS
;	COMDAT ?destroy@?$allocator@PAPAUtagMAGICATKMSG@@@std@@QAEXPAPAPAUtagMAGICATKMSG@@@Z
_TEXT	SEGMENT PARA USE32 PUBLIC 'CODE'
_TEXT	ENDS
;	COMDAT ??0const_iterator@?$deque@PAUtagACTMSG@@V?$allocator@PAUtagACTMSG@@@std@@@std@@QAE@IPBV12@@Z
_TEXT	SEGMENT PARA USE32 PUBLIC 'CODE'
_TEXT	ENDS
;	COMDAT ??0const_iterator@?$deque@PAUtagMAGICATKMSG@@V?$allocator@PAUtagMAGICATKMSG@@@std@@@std@@QAE@IPBV12@@Z
_TEXT	SEGMENT PARA USE32 PUBLIC 'CODE'
_TEXT	ENDS
;	COMDAT ?max_size@?$vector@UWANTED_ENTRY@@V?$allocator@UWANTED_ENTRY@@@std@@@std@@QBEIXZ
_TEXT	SEGMENT PARA USE32 PUBLIC 'CODE'
_TEXT	ENDS
;	COMDAT ?_Destroy@?$vector@UWANTED_ENTRY@@V?$allocator@UWANTED_ENTRY@@@std@@@std@@IAEXPAUWANTED_ENTRY@@0@Z
_TEXT	SEGMENT PARA USE32 PUBLIC 'CODE'
_TEXT	ENDS
;	COMDAT ?_Insert_n@?$vector@UWANTED_ENTRY@@V?$allocator@UWANTED_ENTRY@@@std@@@std@@IAEXViterator@12@IABUWANTED_ENTRY@@@Z
_TEXT	SEGMENT PARA USE32 PUBLIC 'CODE'
_TEXT	ENDS
;	COMDAT ?_Xlen@?$vector@UWANTED_ENTRY@@V?$allocator@UWANTED_ENTRY@@@std@@@std@@IBEXXZ
_TEXT	SEGMENT PARA USE32 PUBLIC 'CODE'
_TEXT	ENDS
;	COMDAT ??0?$allocator@UWANTED_ENTRY@@@std@@QAE@ABV01@@Z
_TEXT	SEGMENT PARA USE32 PUBLIC 'CODE'
_TEXT	ENDS
;	COMDAT ?deallocate@?$allocator@UWANTED_ENTRY@@@std@@QAEXPAUWANTED_ENTRY@@I@Z
_TEXT	SEGMENT PARA USE32 PUBLIC 'CODE'
_TEXT	ENDS
;	COMDAT ?allocate@?$allocator@UWANTED_ENTRY@@@std@@QAEPAUWANTED_ENTRY@@I@Z
_TEXT	SEGMENT PARA USE32 PUBLIC 'CODE'
_TEXT	ENDS
;	COMDAT ??Yiterator@?$vector@UWANTED_ENTRY@@V?$allocator@UWANTED_ENTRY@@@std@@@std@@QAEAAV012@H@Z
_TEXT	SEGMENT PARA USE32 PUBLIC 'CODE'
_TEXT	ENDS
;	COMDAT ??Giterator@?$vector@UWANTED_ENTRY@@V?$allocator@UWANTED_ENTRY@@@std@@@std@@QBEHABVconst_iterator@12@@Z
_TEXT	SEGMENT PARA USE32 PUBLIC 'CODE'
_TEXT	ENDS
;	COMDAT ??0const_iterator@?$vector@UWANTED_ENTRY@@V?$allocator@UWANTED_ENTRY@@@std@@@std@@QAE@PAUWANTED_ENTRY@@@Z
_TEXT	SEGMENT PARA USE32 PUBLIC 'CODE'
_TEXT	ENDS
;	COMDAT ?destroy@?$allocator@PAUtagACTMSG@@@std@@QAEXPAPAUtagACTMSG@@@Z
_TEXT	SEGMENT PARA USE32 PUBLIC 'CODE'
_TEXT	ENDS
;	COMDAT ?destroy@?$allocator@PAUtagMAGICATKMSG@@@std@@QAEXPAPAUtagMAGICATKMSG@@@Z
_TEXT	SEGMENT PARA USE32 PUBLIC 'CODE'
_TEXT	ENDS
;	COMDAT ?max_size@?$allocator@UWANTED_ENTRY@@@std@@QBEIXZ
_TEXT	SEGMENT PARA USE32 PUBLIC 'CODE'
_TEXT	ENDS
;	COMDAT ??Gconst_iterator@?$vector@UWANTED_ENTRY@@V?$allocator@UWANTED_ENTRY@@@std@@@std@@QBEHABV012@@Z
_TEXT	SEGMENT PARA USE32 PUBLIC 'CODE'
_TEXT	ENDS
;	COMDAT ??$_Iter_cat@Vconst_iterator@?$vector@EV?$allocator@E@std@@@std@@@std@@YA?AUrandom_access_iterator_tag@0@ABVconst_iterator@?$vector@EV?$allocator@E@std@@@0@@Z
_TEXT	SEGMENT PARA USE32 PUBLIC 'CODE'
_TEXT	ENDS
;	COMDAT ??$_Assign@Vconst_iterator@?$vector@EV?$allocator@E@std@@@std@@@?$vector@EV?$allocator@E@std@@@std@@QAEXVconst_iterator@01@0Uinput_iterator_tag@1@@Z
_TEXT	SEGMENT PARA USE32 PUBLIC 'CODE'
_TEXT	ENDS
;	COMDAT ??$_Iter_cat@Viterator@?$_Tree@V?$_Tmap_traits@KPAVCUser@@U?$less@K@std@@V?$allocator@U?$pair@$$CBKPAVCUser@@@std@@@3@$0A@@std@@@std@@@std@@YA?AUbidirectional_iterator_tag@0@ABViterator@?$_Tree@V?$_Tmap_traits@KPAVCUser@@U?$less@K@std@@V?$allocator@U?$pair@$$CBKPAVCUser@@@std@@@3@$0A@@std@@@0@@Z
_TEXT	SEGMENT PARA USE32 PUBLIC 'CODE'
_TEXT	ENDS
;	COMDAT ??$_Distance2@Viterator@?$_Tree@V?$_Tmap_traits@KPAVCUser@@U?$less@K@std@@V?$allocator@U?$pair@$$CBKPAVCUser@@@std@@@3@$0A@@std@@@std@@I@std@@YAXViterator@?$_Tree@V?$_Tmap_traits@KPAVCUser@@U?$less@K@std@@V?$allocator@U?$pair@$$CBKPAVCUser@@@std@@@3@$0A@@std@@@0@0AAIUbidirectional_iterator_tag@0@@Z
_TEXT	SEGMENT PARA USE32 PUBLIC 'CODE'
_TEXT	ENDS
;	COMDAT ??$_Iter_cat@Viterator@?$_Tree@V?$_Tmap_traits@KPAVCCtrl@@U?$less@K@std@@V?$allocator@U?$pair@$$CBKPAVCCtrl@@@std@@@3@$0A@@std@@@std@@@std@@YA?AUbidirectional_iterator_tag@0@ABViterator@?$_Tree@V?$_Tmap_traits@KPAVCCtrl@@U?$less@K@std@@V?$allocator@U?$pair@$$CBKPAVCCtrl@@@std@@@3@$0A@@std@@@0@@Z
_TEXT	SEGMENT PARA USE32 PUBLIC 'CODE'
_TEXT	ENDS
;	COMDAT ??$_Distance2@Viterator@?$_Tree@V?$_Tmap_traits@KPAVCCtrl@@U?$less@K@std@@V?$allocator@U?$pair@$$CBKPAVCCtrl@@@std@@@3@$0A@@std@@@std@@I@std@@YAXViterator@?$_Tree@V?$_Tmap_traits@KPAVCCtrl@@U?$less@K@std@@V?$allocator@U?$pair@$$CBKPAVCCtrl@@@std@@@3@$0A@@std@@@0@0AAIUbidirectional_iterator_tag@0@@Z
_TEXT	SEGMENT PARA USE32 PUBLIC 'CODE'
_TEXT	ENDS
;	COMDAT ??$_Uninitialized_copy@Vconst_iterator@?$vector@EV?$allocator@E@std@@@std@@PAEV?$allocator@E@3@@std@@YAPAEVconst_iterator@?$vector@EV?$allocator@E@std@@@0@0PAEAAV?$allocator@E@0@@Z
_TEXT	SEGMENT PARA USE32 PUBLIC 'CODE'
_TEXT	ENDS
;	COMDAT ??$_Iter_cat@Viterator@?$_Tree@V?$_Tmap_traits@KEU?$less@K@std@@V?$allocator@U?$pair@$$CBKE@std@@@2@$0A@@std@@@std@@@std@@YA?AUbidirectional_iterator_tag@0@ABViterator@?$_Tree@V?$_Tmap_traits@KEU?$less@K@std@@V?$allocator@U?$pair@$$CBKE@std@@@2@$0A@@std@@@0@@Z
_TEXT	SEGMENT PARA USE32 PUBLIC 'CODE'
_TEXT	ENDS
;	COMDAT ??$_Distance2@Viterator@?$_Tree@V?$_Tmap_traits@KEU?$less@K@std@@V?$allocator@U?$pair@$$CBKE@std@@@2@$0A@@std@@@std@@I@std@@YAXViterator@?$_Tree@V?$_Tmap_traits@KEU?$less@K@std@@V?$allocator@U?$pair@$$CBKE@std@@@2@$0A@@std@@@0@0AAIUbidirectional_iterator_tag@0@@Z
_TEXT	SEGMENT PARA USE32 PUBLIC 'CODE'
_TEXT	ENDS
;	COMDAT ??$_Ptr_cat@PAU__SPAWNREGION@CEventLua@@PAU12@@std@@YA?AU_Nonscalar_ptr_iterator_tag@0@AAPAU__SPAWNREGION@CEventLua@@0@Z
_TEXT	SEGMENT PARA USE32 PUBLIC 'CODE'
_TEXT	ENDS
;	COMDAT ??$_Uninit_fill_n@PAU__SPAWNREGION@CEventLua@@IU12@V?$allocator@U__SPAWNREGION@CEventLua@@@std@@@std@@YAXPAU__SPAWNREGION@CEventLua@@IABU12@AAV?$allocator@U__SPAWNREGION@CEventLua@@@0@U_Nonscalar_ptr_iterator_tag@0@@Z
_TEXT	SEGMENT PARA USE32 PUBLIC 'CODE'
_TEXT	ENDS
;	COMDAT ??$_Copy_opt@PAJPAJ@std@@YAPAJPAJ00U_Scalar_ptr_iterator_tag@0@@Z
_TEXT	SEGMENT PARA USE32 PUBLIC 'CODE'
_TEXT	ENDS
;	COMDAT ??$_Uninitialized_copy@PAJPAJV?$allocator@J@std@@@std@@YAPAJPAJ00AAV?$allocator@J@0@@Z
_TEXT	SEGMENT PARA USE32 PUBLIC 'CODE'
_TEXT	ENDS
;	COMDAT ??$_Copy_backward_opt@PAJPAJ@std@@YAPAJPAJ00U_Scalar_ptr_iterator_tag@0@@Z
_TEXT	SEGMENT PARA USE32 PUBLIC 'CODE'
_TEXT	ENDS
;	COMDAT ??$_Ptr_cat@PAUtagDROPITEM@@PAU1@@std@@YA?AU_Nonscalar_ptr_iterator_tag@0@AAPAUtagDROPITEM@@0@Z
_TEXT	SEGMENT PARA USE32 PUBLIC 'CODE'
_TEXT	ENDS
;	COMDAT ??$_Destroy_range@UtagDROPITEM@@V?$allocator@UtagDROPITEM@@@std@@@std@@YAXPAUtagDROPITEM@@0AAV?$allocator@UtagDROPITEM@@@0@U_Nonscalar_ptr_iterator_tag@0@@Z
_TEXT	SEGMENT PARA USE32 PUBLIC 'CODE'
_TEXT	ENDS
;	COMDAT ??$_Ptr_cat@PAUWORMON@@PAU1@@std@@YA?AU_Nonscalar_ptr_iterator_tag@0@AAPAUWORMON@@0@Z
_TEXT	SEGMENT PARA USE32 PUBLIC 'CODE'
_TEXT	ENDS
;	COMDAT ??$_Destroy_range@UWORMON@@V?$allocator@UWORMON@@@std@@@std@@YAXPAUWORMON@@0AAV?$allocator@UWORMON@@@0@U_Nonscalar_ptr_iterator_tag@0@@Z
_TEXT	SEGMENT PARA USE32 PUBLIC 'CODE'
_TEXT	ENDS
;	COMDAT ??$_Ptr_cat@PAU__ITEMGAME@CMiniGame@@PAU12@@std@@YA?AU_Nonscalar_ptr_iterator_tag@0@AAPAU__ITEMGAME@CMiniGame@@0@Z
_TEXT	SEGMENT PARA USE32 PUBLIC 'CODE'
_TEXT	ENDS
;	COMDAT ??$_Destroy_range@U__ITEMGAME@CMiniGame@@V?$allocator@U__ITEMGAME@CMiniGame@@@std@@@std@@YAXPAU__ITEMGAME@CMiniGame@@0AAV?$allocator@U__ITEMGAME@CMiniGame@@@0@U_Nonscalar_ptr_iterator_tag@0@@Z
_TEXT	SEGMENT PARA USE32 PUBLIC 'CODE'
_TEXT	ENDS
;	COMDAT ??$_Destroy_range@KV?$allocator@K@std@@@std@@YAXPAK0AAV?$allocator@K@0@U_Scalar_ptr_iterator_tag@0@@Z
_TEXT	SEGMENT PARA USE32 PUBLIC 'CODE'
_TEXT	ENDS
;	COMDAT ??$_Destroy_range@HV?$allocator@H@std@@@std@@YAXPAH0AAV?$allocator@H@0@U_Scalar_ptr_iterator_tag@0@@Z
_TEXT	SEGMENT PARA USE32 PUBLIC 'CODE'
_TEXT	ENDS
;	COMDAT ??$_Ptr_cat@PAU__ITEM@CExchange@@PAU12@@std@@YA?AU_Nonscalar_ptr_iterator_tag@0@AAPAU__ITEM@CExchange@@0@Z
_TEXT	SEGMENT PARA USE32 PUBLIC 'CODE'
_TEXT	ENDS
;	COMDAT ??$_Destroy_range@U__ITEM@CExchange@@V?$allocator@U__ITEM@CExchange@@@std@@@std@@YAXPAU__ITEM@CExchange@@0AAV?$allocator@U__ITEM@CExchange@@@0@U_Nonscalar_ptr_iterator_tag@0@@Z
_TEXT	SEGMENT PARA USE32 PUBLIC 'CODE'
_TEXT	ENDS
;	COMDAT ??$_Ptr_cat@PAU__POINT@CExchange@@PAU12@@std@@YA?AU_Nonscalar_ptr_iterator_tag@0@AAPAU__POINT@CExchange@@0@Z
_TEXT	SEGMENT PARA USE32 PUBLIC 'CODE'
_TEXT	ENDS
;	COMDAT ??$_Destroy_range@U__POINT@CExchange@@V?$allocator@U__POINT@CExchange@@@std@@@std@@YAXPAU__POINT@CExchange@@0AAV?$allocator@U__POINT@CExchange@@@0@U_Nonscalar_ptr_iterator_tag@0@@Z
_TEXT	SEGMENT PARA USE32 PUBLIC 'CODE'
_TEXT	ENDS
;	COMDAT ??$_Destroy_range@EV?$allocator@E@std@@@std@@YAXPAE0AAV?$allocator@E@0@U_Scalar_ptr_iterator_tag@0@@Z
_TEXT	SEGMENT PARA USE32 PUBLIC 'CODE'
_TEXT	ENDS
;	COMDAT ??$_Uninitialized_copy@PAU__SPAWNREGION@CEventLua@@PAU12@V?$allocator@U__SPAWNREGION@CEventLua@@@std@@@std@@YAPAU__SPAWNREGION@CEventLua@@PAU12@00AAV?$allocator@U__SPAWNREGION@CEventLua@@@0@@Z
_TEXT	SEGMENT PARA USE32 PUBLIC 'CODE'
_TEXT	ENDS
;	COMDAT ??$_Copy_backward_opt@PAU__SPAWNREGION@CEventLua@@PAU12@@std@@YAPAU__SPAWNREGION@CEventLua@@PAU12@00U_Nonscalar_ptr_iterator_tag@0@@Z
_TEXT	SEGMENT PARA USE32 PUBLIC 'CODE'
_TEXT	ENDS
;	COMDAT ??$_Ptr_cat@PAUD3DXVECTOR3@@PAU1@@std@@YA?AU_Nonscalar_ptr_iterator_tag@0@AAPAUD3DXVECTOR3@@0@Z
_TEXT	SEGMENT PARA USE32 PUBLIC 'CODE'
_TEXT	ENDS
;	COMDAT ??$_Destroy_range@UD3DXVECTOR3@@V?$allocator@UD3DXVECTOR3@@@std@@@std@@YAXPAUD3DXVECTOR3@@0AAV?$allocator@UD3DXVECTOR3@@@0@U_Nonscalar_ptr_iterator_tag@0@@Z
_TEXT	SEGMENT PARA USE32 PUBLIC 'CODE'
_TEXT	ENDS
;	COMDAT ??$_Ptr_cat@PAU_GIFTBOX@@PAU1@@std@@YA?AU_Nonscalar_ptr_iterator_tag@0@AAPAU_GIFTBOX@@0@Z
_TEXT	SEGMENT PARA USE32 PUBLIC 'CODE'
_TEXT	ENDS
;	COMDAT ??$_Destroy_range@U_GIFTBOX@@V?$allocator@U_GIFTBOX@@@std@@@std@@YAXPAU_GIFTBOX@@0AAV?$allocator@U_GIFTBOX@@@0@U_Nonscalar_ptr_iterator_tag@0@@Z
_TEXT	SEGMENT PARA USE32 PUBLIC 'CODE'
_TEXT	ENDS
;	COMDAT ??$_Destroy_range@JV?$allocator@J@std@@@std@@YAXPAJ0AAV?$allocator@J@0@U_Scalar_ptr_iterator_tag@0@@Z
_TEXT	SEGMENT PARA USE32 PUBLIC 'CODE'
_TEXT	ENDS
;	COMDAT ??$_Uninit_fill_n@JIJ@std@@YAXPAJIABJAAV?$allocator@J@0@U_Scalar_ptr_iterator_tag@0@@Z
_TEXT	SEGMENT PARA USE32 PUBLIC 'CODE'
_TEXT	ENDS
;	COMDAT ??$_Destroy_range@U__SPAWNREGION@CEventLua@@V?$allocator@U__SPAWNREGION@CEventLua@@@std@@@std@@YAXPAU__SPAWNREGION@CEventLua@@0AAV?$allocator@U__SPAWNREGION@CEventLua@@@0@U_Nonscalar_ptr_iterator_tag@0@@Z
_TEXT	SEGMENT PARA USE32 PUBLIC 'CODE'
_TEXT	ENDS
;	COMDAT ??$_Uninitialized_fill_n@PAUWANTED_ENTRY@@IU1@V?$allocator@UWANTED_ENTRY@@@std@@@std@@YAXPAUWANTED_ENTRY@@IABU1@AAV?$allocator@UWANTED_ENTRY@@@0@@Z
_TEXT	SEGMENT PARA USE32 PUBLIC 'CODE'
_TEXT	ENDS
;	COMDAT ??$?0PAUtagACTMSG@@@?$allocator@PAPAUtagACTMSG@@@std@@QAE@ABV?$allocator@PAUtagACTMSG@@@1@@Z
_TEXT	SEGMENT PARA USE32 PUBLIC 'CODE'
_TEXT	ENDS
;	COMDAT ??$_Destroy@PAPAUtagACTMSG@@@std@@YAXPAPAPAUtagACTMSG@@@Z
_TEXT	SEGMENT PARA USE32 PUBLIC 'CODE'
_TEXT	ENDS
;	COMDAT ??$?0PAUtagMAGICATKMSG@@@?$allocator@PAPAUtagMAGICATKMSG@@@std@@QAE@ABV?$allocator@PAUtagMAGICATKMSG@@@1@@Z
_TEXT	SEGMENT PARA USE32 PUBLIC 'CODE'
_TEXT	ENDS
;	COMDAT ??$_Destroy@PAPAUtagMAGICATKMSG@@@std@@YAXPAPAPAUtagMAGICATKMSG@@@Z
_TEXT	SEGMENT PARA USE32 PUBLIC 'CODE'
_TEXT	ENDS
;	COMDAT ??$_Destroy_range@UWANTED_ENTRY@@V?$allocator@UWANTED_ENTRY@@@std@@@std@@YAXPAUWANTED_ENTRY@@0AAV?$allocator@UWANTED_ENTRY@@@0@@Z
_TEXT	SEGMENT PARA USE32 PUBLIC 'CODE'
_TEXT	ENDS
;	COMDAT ??$_Ucopy@PAUWANTED_ENTRY@@@?$vector@UWANTED_ENTRY@@V?$allocator@UWANTED_ENTRY@@@std@@@std@@IAEPAUWANTED_ENTRY@@PAU2@00@Z
_TEXT	SEGMENT PARA USE32 PUBLIC 'CODE'
_TEXT	ENDS
;	COMDAT ??$fill@PAUWANTED_ENTRY@@U1@@std@@YAXPAUWANTED_ENTRY@@0ABU1@@Z
_TEXT	SEGMENT PARA USE32 PUBLIC 'CODE'
_TEXT	ENDS
;	COMDAT ??$copy_backward@PAUWANTED_ENTRY@@PAU1@@std@@YAPAUWANTED_ENTRY@@PAU1@00@Z
_TEXT	SEGMENT PARA USE32 PUBLIC 'CODE'
_TEXT	ENDS
;	COMDAT ??$_Allocate@UWANTED_ENTRY@@@std@@YAPAUWANTED_ENTRY@@IPAU1@@Z
_TEXT	SEGMENT PARA USE32 PUBLIC 'CODE'
_TEXT	ENDS
;	COMDAT ??$_Destroy@PAUtagACTMSG@@@std@@YAXPAPAUtagACTMSG@@@Z
_TEXT	SEGMENT PARA USE32 PUBLIC 'CODE'
_TEXT	ENDS
;	COMDAT ??$_Destroy@PAUtagMAGICATKMSG@@@std@@YAXPAPAUtagMAGICATKMSG@@@Z
_TEXT	SEGMENT PARA USE32 PUBLIC 'CODE'
_TEXT	ENDS
;	COMDAT ?destroy@?$allocator@UtagDROPITEM@@@std@@QAEXPAUtagDROPITEM@@@Z
_TEXT	SEGMENT PARA USE32 PUBLIC 'CODE'
_TEXT	ENDS
;	COMDAT ?destroy@?$allocator@UWORMON@@@std@@QAEXPAUWORMON@@@Z
_TEXT	SEGMENT PARA USE32 PUBLIC 'CODE'
_TEXT	ENDS
;	COMDAT ?destroy@?$allocator@U__ITEMGAME@CMiniGame@@@std@@QAEXPAU__ITEMGAME@CMiniGame@@@Z
_TEXT	SEGMENT PARA USE32 PUBLIC 'CODE'
_TEXT	ENDS
;	COMDAT ?destroy@?$allocator@U__ITEM@CExchange@@@std@@QAEXPAU__ITEM@CExchange@@@Z
_TEXT	SEGMENT PARA USE32 PUBLIC 'CODE'
_TEXT	ENDS
;	COMDAT ?destroy@?$allocator@U__POINT@CExchange@@@std@@QAEXPAU__POINT@CExchange@@@Z
_TEXT	SEGMENT PARA USE32 PUBLIC 'CODE'
_TEXT	ENDS
;	COMDAT ?begin@?$vector@EV?$allocator@E@std@@@std@@QAE?AViterator@12@XZ
_TEXT	SEGMENT PARA USE32 PUBLIC 'CODE'
_TEXT	ENDS
;	COMDAT ?end@?$vector@EV?$allocator@E@std@@@std@@QAE?AViterator@12@XZ
_TEXT	SEGMENT PARA USE32 PUBLIC 'CODE'
_TEXT	ENDS
;	COMDAT ?erase@?$vector@EV?$allocator@E@std@@@std@@QAE?AViterator@12@V312@0@Z
_TEXT	SEGMENT PARA USE32 PUBLIC 'CODE'
_TEXT	ENDS
;	COMDAT ?construct@?$allocator@U__SPAWNREGION@CEventLua@@@std@@QAEXPAU__SPAWNREGION@CEventLua@@ABU34@@Z
_TEXT	SEGMENT PARA USE32 PUBLIC 'CODE'
_TEXT	ENDS
;	COMDAT ?destroy@?$allocator@U__SPAWNREGION@CEventLua@@@std@@QAEXPAU__SPAWNREGION@CEventLua@@@Z
_TEXT	SEGMENT PARA USE32 PUBLIC 'CODE'
_TEXT	ENDS
;	COMDAT ?destroy@?$allocator@UD3DXVECTOR3@@@std@@QAEXPAUD3DXVECTOR3@@@Z
_TEXT	SEGMENT PARA USE32 PUBLIC 'CODE'
_TEXT	ENDS
;	COMDAT ?destroy@?$allocator@U_GIFTBOX@@@std@@QAEXPAU_GIFTBOX@@@Z
_TEXT	SEGMENT PARA USE32 PUBLIC 'CODE'
_TEXT	ENDS
;	COMDAT ??9const_iterator@?$vector@EV?$allocator@E@std@@@std@@QBE_NABV012@@Z
_TEXT	SEGMENT PARA USE32 PUBLIC 'CODE'
_TEXT	ENDS
;	COMDAT ??0iterator@?$vector@EV?$allocator@E@std@@@std@@QAE@PAE@Z
_TEXT	SEGMENT PARA USE32 PUBLIC 'CODE'
_TEXT	ENDS
;	COMDAT ??8const_iterator@?$vector@EV?$allocator@E@std@@@std@@QBE_NABV012@@Z
_TEXT	SEGMENT PARA USE32 PUBLIC 'CODE'
_TEXT	ENDS
;	COMDAT ??$insert@Vconst_iterator@?$vector@EV?$allocator@E@std@@@std@@@?$vector@EV?$allocator@E@std@@@std@@QAEXViterator@01@Vconst_iterator@01@1@Z
_TEXT	SEGMENT PARA USE32 PUBLIC 'CODE'
_TEXT	ENDS
;	COMDAT ??$_Ptr_cat@Vconst_iterator@?$vector@EV?$allocator@E@std@@@std@@PAE@std@@YA?AU_Nonscalar_ptr_iterator_tag@0@AAVconst_iterator@?$vector@EV?$allocator@E@std@@@0@AAPAE@Z
_TEXT	SEGMENT PARA USE32 PUBLIC 'CODE'
_TEXT	ENDS
;	COMDAT ??$_Uninit_copy@Vconst_iterator@?$vector@EV?$allocator@E@std@@@std@@PAEV?$allocator@E@3@@std@@YAPAEVconst_iterator@?$vector@EV?$allocator@E@std@@@0@0PAEAAV?$allocator@E@0@U_Nonscalar_ptr_iterator_tag@0@@Z
_TEXT	SEGMENT PARA USE32 PUBLIC 'CODE'
_TEXT	ENDS
;	COMDAT ??$_Uninit_copy@JJ@std@@YAPAJPAJ00AAV?$allocator@J@0@U_Scalar_ptr_iterator_tag@0@@Z
_TEXT	SEGMENT PARA USE32 PUBLIC 'CODE'
_TEXT	ENDS
;	COMDAT ??$_Uninit_copy@PAU__SPAWNREGION@CEventLua@@PAU12@V?$allocator@U__SPAWNREGION@CEventLua@@@std@@@std@@YAPAU__SPAWNREGION@CEventLua@@PAU12@00AAV?$allocator@U__SPAWNREGION@CEventLua@@@0@U_Nonscalar_ptr_iterator_tag@0@@Z
_TEXT	SEGMENT PARA USE32 PUBLIC 'CODE'
_TEXT	ENDS
;	COMDAT ??$fill_n@PAJIJ@std@@YAXPAJIABJ@Z
_TEXT	SEGMENT PARA USE32 PUBLIC 'CODE'
_TEXT	ENDS
;	COMDAT ??$_Ptr_cat@PAUWANTED_ENTRY@@PAU1@@std@@YA?AU_Nonscalar_ptr_iterator_tag@0@AAPAUWANTED_ENTRY@@0@Z
_TEXT	SEGMENT PARA USE32 PUBLIC 'CODE'
_TEXT	ENDS
;	COMDAT ??$_Uninit_fill_n@PAUWANTED_ENTRY@@IU1@V?$allocator@UWANTED_ENTRY@@@std@@@std@@YAXPAUWANTED_ENTRY@@IABU1@AAV?$allocator@UWANTED_ENTRY@@@0@U_Nonscalar_ptr_iterator_tag@0@@Z
_TEXT	SEGMENT PARA USE32 PUBLIC 'CODE'
_TEXT	ENDS
;	COMDAT ??$_Destroy_range@UWANTED_ENTRY@@V?$allocator@UWANTED_ENTRY@@@std@@@std@@YAXPAUWANTED_ENTRY@@0AAV?$allocator@UWANTED_ENTRY@@@0@U_Nonscalar_ptr_iterator_tag@0@@Z
_TEXT	SEGMENT PARA USE32 PUBLIC 'CODE'
_TEXT	ENDS
;	COMDAT ??$_Uninitialized_copy@PAUWANTED_ENTRY@@PAU1@V?$allocator@UWANTED_ENTRY@@@std@@@std@@YAPAUWANTED_ENTRY@@PAU1@00AAV?$allocator@UWANTED_ENTRY@@@0@@Z
_TEXT	SEGMENT PARA USE32 PUBLIC 'CODE'
_TEXT	ENDS
;	COMDAT ??$_Copy_backward_opt@PAUWANTED_ENTRY@@PAU1@@std@@YAPAUWANTED_ENTRY@@PAU1@00U_Nonscalar_ptr_iterator_tag@0@@Z
_TEXT	SEGMENT PARA USE32 PUBLIC 'CODE'
_TEXT	ENDS
;	COMDAT ??$_Destroy@UtagDROPITEM@@@std@@YAXPAUtagDROPITEM@@@Z
_TEXT	SEGMENT PARA USE32 PUBLIC 'CODE'
_TEXT	ENDS
;	COMDAT ??$_Destroy@UWORMON@@@std@@YAXPAUWORMON@@@Z
_TEXT	SEGMENT PARA USE32 PUBLIC 'CODE'
_TEXT	ENDS
;	COMDAT ??$_Destroy@U__ITEMGAME@CMiniGame@@@std@@YAXPAU__ITEMGAME@CMiniGame@@@Z
_TEXT	SEGMENT PARA USE32 PUBLIC 'CODE'
_TEXT	ENDS
;	COMDAT ??$_Destroy@U__ITEM@CExchange@@@std@@YAXPAU__ITEM@CExchange@@@Z
_TEXT	SEGMENT PARA USE32 PUBLIC 'CODE'
_TEXT	ENDS
;	COMDAT ??$_Destroy@U__POINT@CExchange@@@std@@YAXPAU__POINT@CExchange@@@Z
_TEXT	SEGMENT PARA USE32 PUBLIC 'CODE'
_TEXT	ENDS
;	COMDAT ??$copy@PAEPAE@std@@YAPAEPAE00@Z
_TEXT	SEGMENT PARA USE32 PUBLIC 'CODE'
_TEXT	ENDS
;	COMDAT ??$_Construct@U__SPAWNREGION@CEventLua@@U12@@std@@YAXPAU__SPAWNREGION@CEventLua@@ABU12@@Z
_TEXT	SEGMENT PARA USE32 PUBLIC 'CODE'
_TEXT	ENDS
;	COMDAT ??$_Destroy@U__SPAWNREGION@CEventLua@@@std@@YAXPAU__SPAWNREGION@CEventLua@@@Z
_TEXT	SEGMENT PARA USE32 PUBLIC 'CODE'
_TEXT	ENDS
;	COMDAT ??$_Destroy@UD3DXVECTOR3@@@std@@YAXPAUD3DXVECTOR3@@@Z
_TEXT	SEGMENT PARA USE32 PUBLIC 'CODE'
_TEXT	ENDS
;	COMDAT ??$_Destroy@U_GIFTBOX@@@std@@YAXPAU_GIFTBOX@@@Z
_TEXT	SEGMENT PARA USE32 PUBLIC 'CODE'
_TEXT	ENDS
;	COMDAT ?construct@?$allocator@E@std@@QAEXPAEABE@Z
_TEXT	SEGMENT PARA USE32 PUBLIC 'CODE'
_TEXT	ENDS
;	COMDAT ?destroy@?$allocator@E@std@@QAEXPAE@Z
_TEXT	SEGMENT PARA USE32 PUBLIC 'CODE'
_TEXT	ENDS
;	COMDAT ??Dconst_iterator@?$vector@EV?$allocator@E@std@@@std@@QBEABEXZ
_TEXT	SEGMENT PARA USE32 PUBLIC 'CODE'
_TEXT	ENDS
;	COMDAT ??Econst_iterator@?$vector@EV?$allocator@E@std@@@std@@QAEAAV012@XZ
_TEXT	SEGMENT PARA USE32 PUBLIC 'CODE'
_TEXT	ENDS
;	COMDAT ?construct@?$allocator@UWANTED_ENTRY@@@std@@QAEXPAUWANTED_ENTRY@@ABU3@@Z
_TEXT	SEGMENT PARA USE32 PUBLIC 'CODE'
_TEXT	ENDS
;	COMDAT ?destroy@?$allocator@UWANTED_ENTRY@@@std@@QAEXPAUWANTED_ENTRY@@@Z
_TEXT	SEGMENT PARA USE32 PUBLIC 'CODE'
_TEXT	ENDS
;	COMDAT ??$_Insert@Vconst_iterator@?$vector@EV?$allocator@E@std@@@std@@@?$vector@EV?$allocator@E@std@@@std@@QAEXViterator@01@Vconst_iterator@01@1Uforward_iterator_tag@1@@Z
_TEXT	SEGMENT PARA USE32 PUBLIC 'CODE'
_TEXT	ENDS
;	COMDAT ??$_Uninit_copy@PAUWANTED_ENTRY@@PAU1@V?$allocator@UWANTED_ENTRY@@@std@@@std@@YAPAUWANTED_ENTRY@@PAU1@00AAV?$allocator@UWANTED_ENTRY@@@0@U_Nonscalar_ptr_iterator_tag@0@@Z
_TEXT	SEGMENT PARA USE32 PUBLIC 'CODE'
_TEXT	ENDS
;	COMDAT ??$_Copy_opt@PAEPAE@std@@YAPAEPAE00U_Scalar_ptr_iterator_tag@0@@Z
_TEXT	SEGMENT PARA USE32 PUBLIC 'CODE'
_TEXT	ENDS
;	COMDAT ??$_Construct@EE@std@@YAXPAEABE@Z
_TEXT	SEGMENT PARA USE32 PUBLIC 'CODE'
_TEXT	ENDS
;	COMDAT ??$_Destroy@E@std@@YAXPAE@Z
_TEXT	SEGMENT PARA USE32 PUBLIC 'CODE'
_TEXT	ENDS
;	COMDAT ??$_Construct@UWANTED_ENTRY@@U1@@std@@YAXPAUWANTED_ENTRY@@ABU1@@Z
_TEXT	SEGMENT PARA USE32 PUBLIC 'CODE'
_TEXT	ENDS
;	COMDAT ??$_Destroy@UWANTED_ENTRY@@@std@@YAXPAUWANTED_ENTRY@@@Z
_TEXT	SEGMENT PARA USE32 PUBLIC 'CODE'
_TEXT	ENDS
;	COMDAT ?capacity@?$vector@EV?$allocator@E@std@@@std@@QBEIXZ
_TEXT	SEGMENT PARA USE32 PUBLIC 'CODE'
_TEXT	ENDS
;	COMDAT ??Giterator@?$vector@EV?$allocator@E@std@@@std@@QBEHABVconst_iterator@12@@Z
_TEXT	SEGMENT PARA USE32 PUBLIC 'CODE'
_TEXT	ENDS
;	COMDAT ??Gconst_iterator@?$vector@EV?$allocator@E@std@@@std@@QBEHABV012@@Z
_TEXT	SEGMENT PARA USE32 PUBLIC 'CODE'
_TEXT	ENDS
;	COMDAT ??$_Distance@Vconst_iterator@?$vector@EV?$allocator@E@std@@@std@@I@std@@YAXVconst_iterator@?$vector@EV?$allocator@E@std@@@0@0AAI@Z
_TEXT	SEGMENT PARA USE32 PUBLIC 'CODE'
_TEXT	ENDS
;	COMDAT ??$_Ucopy@PAE@?$vector@EV?$allocator@E@std@@@std@@IAEPAEPAE00@Z
_TEXT	SEGMENT PARA USE32 PUBLIC 'CODE'
_TEXT	ENDS
;	COMDAT ??$advance@Vconst_iterator@?$vector@EV?$allocator@E@std@@@std@@H@std@@YAXAAVconst_iterator@?$vector@EV?$allocator@E@std@@@0@H@Z
_TEXT	SEGMENT PARA USE32 PUBLIC 'CODE'
_TEXT	ENDS
;	COMDAT ??$copy@Vconst_iterator@?$vector@EV?$allocator@E@std@@@std@@PAE@std@@YAPAEVconst_iterator@?$vector@EV?$allocator@E@std@@@0@0PAE@Z
_TEXT	SEGMENT PARA USE32 PUBLIC 'CODE'
_TEXT	ENDS
;	COMDAT ??$copy_backward@PAEPAE@std@@YAPAEPAE00@Z
_TEXT	SEGMENT PARA USE32 PUBLIC 'CODE'
_TEXT	ENDS
;	COMDAT ??$_Distance2@Vconst_iterator@?$vector@EV?$allocator@E@std@@@std@@I@std@@YAXVconst_iterator@?$vector@EV?$allocator@E@std@@@0@0AAIUrandom_access_iterator_tag@0@@Z
_TEXT	SEGMENT PARA USE32 PUBLIC 'CODE'
_TEXT	ENDS
;	COMDAT ??$_Uninitialized_copy@PAEPAEV?$allocator@E@std@@@std@@YAPAEPAE00AAV?$allocator@E@0@@Z
_TEXT	SEGMENT PARA USE32 PUBLIC 'CODE'
_TEXT	ENDS
;	COMDAT ??$_Advance@Vconst_iterator@?$vector@EV?$allocator@E@std@@@std@@H@std@@YAXAAVconst_iterator@?$vector@EV?$allocator@E@std@@@0@HUrandom_access_iterator_tag@0@@Z
_TEXT	SEGMENT PARA USE32 PUBLIC 'CODE'
_TEXT	ENDS
;	COMDAT ??$_Copy_opt@Vconst_iterator@?$vector@EV?$allocator@E@std@@@std@@PAE@std@@YAPAEVconst_iterator@?$vector@EV?$allocator@E@std@@@0@0PAEU_Nonscalar_ptr_iterator_tag@0@@Z
_TEXT	SEGMENT PARA USE32 PUBLIC 'CODE'
_TEXT	ENDS
;	COMDAT ??$_Copy_backward_opt@PAEPAE@std@@YAPAEPAE00U_Scalar_ptr_iterator_tag@0@@Z
_TEXT	SEGMENT PARA USE32 PUBLIC 'CODE'
_TEXT	ENDS
;	COMDAT ??Yconst_iterator@?$vector@EV?$allocator@E@std@@@std@@QAEAAV012@H@Z
_TEXT	SEGMENT PARA USE32 PUBLIC 'CODE'
_TEXT	ENDS
;	COMDAT ??$_Uninit_copy@EE@std@@YAPAEPAE00AAV?$allocator@E@0@U_Scalar_ptr_iterator_tag@0@@Z
_TEXT	SEGMENT PARA USE32 PUBLIC 'CODE'
_TEXT	ENDS
;	COMDAT ?deallocate@?$allocator@E@std@@QAEXPAEI@Z
_TEXT	SEGMENT PARA USE32 PUBLIC 'CODE'
_TEXT	ENDS
;	COMDAT ??$_Ucopy@Vconst_iterator@?$vector@EV?$allocator@E@std@@@std@@@?$vector@EV?$allocator@E@std@@@std@@IAEPAEVconst_iterator@01@0PAE@Z
_TEXT	SEGMENT PARA USE32 PUBLIC 'CODE'
_TEXT	ENDS
;	COMDAT ?allocate@?$allocator@E@std@@QAEPAEI@Z
_TEXT	SEGMENT PARA USE32 PUBLIC 'CODE'
_TEXT	ENDS
;	COMDAT ??$_Allocate@E@std@@YAPAEIPAE@Z
_TEXT	SEGMENT PARA USE32 PUBLIC 'CODE'
_TEXT	ENDS
;	COMDAT ?_Xlen@?$vector@EV?$allocator@E@std@@@std@@IBEXXZ
_TEXT	SEGMENT PARA USE32 PUBLIC 'CODE'
_TEXT	ENDS
;	COMDAT ?size@?$vector@EV?$allocator@E@std@@@std@@QBEIXZ
_TEXT	SEGMENT PARA USE32 PUBLIC 'CODE'
_TEXT	ENDS
;	COMDAT ?max_size@?$vector@EV?$allocator@E@std@@@std@@QBEIXZ
_TEXT	SEGMENT PARA USE32 PUBLIC 'CODE'
_TEXT	ENDS
;	COMDAT ?max_size@?$allocator@E@std@@QBEIXZ
_TEXT	SEGMENT PARA USE32 PUBLIC 'CODE'
_TEXT	ENDS
;	COMDAT ??2@YAPAXIPAX@Z
_TEXT	SEGMENT PARA USE32 PUBLIC 'CODE'
_TEXT	ENDS
;	COMDAT ?_Ptr_cat@std@@YA?AU_Scalar_ptr_iterator_tag@1@PAE0@Z
_TEXT	SEGMENT PARA USE32 PUBLIC 'CODE'
_TEXT	ENDS
;	COMDAT ??0const_iterator@?$vector@EV?$allocator@E@std@@@std@@QAE@PAE@Z
_TEXT	SEGMENT PARA USE32 PUBLIC 'CODE'
_TEXT	ENDS
;	COMDAT ?_Destroy@?$vector@EV?$allocator@E@std@@@std@@IAEXPAE0@Z
_TEXT	SEGMENT PARA USE32 PUBLIC 'CODE'
_TEXT	ENDS
;	COMDAT ??$_Destroy_range@EV?$allocator@E@std@@@std@@YAXPAE0AAV?$allocator@E@0@@Z
_TEXT	SEGMENT PARA USE32 PUBLIC 'CODE'
_TEXT	ENDS
;	COMDAT ?_Ptr_cat@std@@YA?AU_Scalar_ptr_iterator_tag@1@PAJ0@Z
_TEXT	SEGMENT PARA USE32 PUBLIC 'CODE'
_TEXT	ENDS
;	COMDAT ??9const_iterator@?$_Tree@V?$_Tmap_traits@KEU?$less@K@std@@V?$allocator@U?$pair@$$CBKE@std@@@2@$0A@@std@@@std@@QBE_NABV012@@Z
_TEXT	SEGMENT PARA USE32 PUBLIC 'CODE'
_TEXT	ENDS
;	COMDAT ??8const_iterator@?$_Tree@V?$_Tmap_traits@KEU?$less@K@std@@V?$allocator@U?$pair@$$CBKE@std@@@2@$0A@@std@@@std@@QBE_NABV012@@Z
_TEXT	SEGMENT PARA USE32 PUBLIC 'CODE'
_TEXT	ENDS
;	COMDAT ??Eiterator@?$_Tree@V?$_Tmap_traits@KEU?$less@K@std@@V?$allocator@U?$pair@$$CBKE@std@@@2@$0A@@std@@@std@@QAEAAV012@XZ
_TEXT	SEGMENT PARA USE32 PUBLIC 'CODE'
_TEXT	ENDS
;	COMDAT ??Econst_iterator@?$_Tree@V?$_Tmap_traits@KEU?$less@K@std@@V?$allocator@U?$pair@$$CBKE@std@@@2@$0A@@std@@@std@@QAEAAV012@XZ
_TEXT	SEGMENT PARA USE32 PUBLIC 'CODE'
_TEXT	ENDS
;	COMDAT ?_Inc@const_iterator@?$_Tree@V?$_Tmap_traits@KEU?$less@K@std@@V?$allocator@U?$pair@$$CBKE@std@@@2@$0A@@std@@@std@@QAEXXZ
_TEXT	SEGMENT PARA USE32 PUBLIC 'CODE'
_TEXT	ENDS
;	COMDAT ?_Min@?$_Tree@V?$_Tmap_traits@KEU?$less@K@std@@V?$allocator@U?$pair@$$CBKE@std@@@2@$0A@@std@@@std@@KAPAU_Node@?$_Tree_nod@V?$_Tmap_traits@KEU?$less@K@std@@V?$allocator@U?$pair@$$CBKE@std@@@2@$0A@@std@@@2@PAU342@@Z
_TEXT	SEGMENT PARA USE32 PUBLIC 'CODE'
_TEXT	ENDS
;	COMDAT ?_Left@?$_Tree@V?$_Tmap_traits@KEU?$less@K@std@@V?$allocator@U?$pair@$$CBKE@std@@@2@$0A@@std@@@std@@KAAAPAU_Node@?$_Tree_nod@V?$_Tmap_traits@KEU?$less@K@std@@V?$allocator@U?$pair@$$CBKE@std@@@2@$0A@@std@@@2@PAU342@@Z
_TEXT	SEGMENT PARA USE32 PUBLIC 'CODE'
_TEXT	ENDS
;	COMDAT ?_Isnil@?$_Tree@V?$_Tmap_traits@KEU?$less@K@std@@V?$allocator@U?$pair@$$CBKE@std@@@2@$0A@@std@@@std@@KAAADPAU_Node@?$_Tree_nod@V?$_Tmap_traits@KEU?$less@K@std@@V?$allocator@U?$pair@$$CBKE@std@@@2@$0A@@std@@@2@@Z
_TEXT	SEGMENT PARA USE32 PUBLIC 'CODE'
_TEXT	ENDS
;	COMDAT ?_Parent@?$_Tree@V?$_Tmap_traits@KEU?$less@K@std@@V?$allocator@U?$pair@$$CBKE@std@@@2@$0A@@std@@@std@@KAAAPAU_Node@?$_Tree_nod@V?$_Tmap_traits@KEU?$less@K@std@@V?$allocator@U?$pair@$$CBKE@std@@@2@$0A@@std@@@2@PAU342@@Z
_TEXT	SEGMENT PARA USE32 PUBLIC 'CODE'
_TEXT	ENDS
;	COMDAT ?_Right@?$_Tree@V?$_Tmap_traits@KEU?$less@K@std@@V?$allocator@U?$pair@$$CBKE@std@@@2@$0A@@std@@@std@@KAAAPAU_Node@?$_Tree_nod@V?$_Tmap_traits@KEU?$less@K@std@@V?$allocator@U?$pair@$$CBKE@std@@@2@$0A@@std@@@2@PAU342@@Z
_TEXT	SEGMENT PARA USE32 PUBLIC 'CODE'
_TEXT	ENDS
;	COMDAT ??9const_iterator@?$_Tree@V?$_Tmap_traits@KPAVCCtrl@@U?$less@K@std@@V?$allocator@U?$pair@$$CBKPAVCCtrl@@@std@@@3@$0A@@std@@@std@@QBE_NABV012@@Z
_TEXT	SEGMENT PARA USE32 PUBLIC 'CODE'
_TEXT	ENDS
;	COMDAT ??8const_iterator@?$_Tree@V?$_Tmap_traits@KPAVCCtrl@@U?$less@K@std@@V?$allocator@U?$pair@$$CBKPAVCCtrl@@@std@@@3@$0A@@std@@@std@@QBE_NABV012@@Z
_TEXT	SEGMENT PARA USE32 PUBLIC 'CODE'
_TEXT	ENDS
;	COMDAT ??Eiterator@?$_Tree@V?$_Tmap_traits@KPAVCCtrl@@U?$less@K@std@@V?$allocator@U?$pair@$$CBKPAVCCtrl@@@std@@@3@$0A@@std@@@std@@QAEAAV012@XZ
_TEXT	SEGMENT PARA USE32 PUBLIC 'CODE'
_TEXT	ENDS
;	COMDAT ??Econst_iterator@?$_Tree@V?$_Tmap_traits@KPAVCCtrl@@U?$less@K@std@@V?$allocator@U?$pair@$$CBKPAVCCtrl@@@std@@@3@$0A@@std@@@std@@QAEAAV012@XZ
_TEXT	SEGMENT PARA USE32 PUBLIC 'CODE'
_TEXT	ENDS
;	COMDAT ?_Inc@const_iterator@?$_Tree@V?$_Tmap_traits@KPAVCCtrl@@U?$less@K@std@@V?$allocator@U?$pair@$$CBKPAVCCtrl@@@std@@@3@$0A@@std@@@std@@QAEXXZ
_TEXT	SEGMENT PARA USE32 PUBLIC 'CODE'
_TEXT	ENDS
;	COMDAT ?_Min@?$_Tree@V?$_Tmap_traits@KPAVCCtrl@@U?$less@K@std@@V?$allocator@U?$pair@$$CBKPAVCCtrl@@@std@@@3@$0A@@std@@@std@@KAPAU_Node@?$_Tree_nod@V?$_Tmap_traits@KPAVCCtrl@@U?$less@K@std@@V?$allocator@U?$pair@$$CBKPAVCCtrl@@@std@@@3@$0A@@std@@@2@PAU342@@Z
_TEXT	SEGMENT PARA USE32 PUBLIC 'CODE'
_TEXT	ENDS
;	COMDAT ?_Left@?$_Tree@V?$_Tmap_traits@KPAVCCtrl@@U?$less@K@std@@V?$allocator@U?$pair@$$CBKPAVCCtrl@@@std@@@3@$0A@@std@@@std@@KAAAPAU_Node@?$_Tree_nod@V?$_Tmap_traits@KPAVCCtrl@@U?$less@K@std@@V?$allocator@U?$pair@$$CBKPAVCCtrl@@@std@@@3@$0A@@std@@@2@PAU342@@Z
_TEXT	SEGMENT PARA USE32 PUBLIC 'CODE'
_TEXT	ENDS
;	COMDAT ?_Isnil@?$_Tree@V?$_Tmap_traits@KPAVCCtrl@@U?$less@K@std@@V?$allocator@U?$pair@$$CBKPAVCCtrl@@@std@@@3@$0A@@std@@@std@@KAAADPAU_Node@?$_Tree_nod@V?$_Tmap_traits@KPAVCCtrl@@U?$less@K@std@@V?$allocator@U?$pair@$$CBKPAVCCtrl@@@std@@@3@$0A@@std@@@2@@Z
_TEXT	SEGMENT PARA USE32 PUBLIC 'CODE'
_TEXT	ENDS
;	COMDAT ?_Parent@?$_Tree@V?$_Tmap_traits@KPAVCCtrl@@U?$less@K@std@@V?$allocator@U?$pair@$$CBKPAVCCtrl@@@std@@@3@$0A@@std@@@std@@KAAAPAU_Node@?$_Tree_nod@V?$_Tmap_traits@KPAVCCtrl@@U?$less@K@std@@V?$allocator@U?$pair@$$CBKPAVCCtrl@@@std@@@3@$0A@@std@@@2@PAU342@@Z
_TEXT	SEGMENT PARA USE32 PUBLIC 'CODE'
_TEXT	ENDS
;	COMDAT ?_Right@?$_Tree@V?$_Tmap_traits@KPAVCCtrl@@U?$less@K@std@@V?$allocator@U?$pair@$$CBKPAVCCtrl@@@std@@@3@$0A@@std@@@std@@KAAAPAU_Node@?$_Tree_nod@V?$_Tmap_traits@KPAVCCtrl@@U?$less@K@std@@V?$allocator@U?$pair@$$CBKPAVCCtrl@@@std@@@3@$0A@@std@@@2@PAU342@@Z
_TEXT	SEGMENT PARA USE32 PUBLIC 'CODE'
_TEXT	ENDS
;	COMDAT ??9const_iterator@?$_Tree@V?$_Tmap_traits@KPAVCUser@@U?$less@K@std@@V?$allocator@U?$pair@$$CBKPAVCUser@@@std@@@3@$0A@@std@@@std@@QBE_NABV012@@Z
_TEXT	SEGMENT PARA USE32 PUBLIC 'CODE'
_TEXT	ENDS
;	COMDAT ??8const_iterator@?$_Tree@V?$_Tmap_traits@KPAVCUser@@U?$less@K@std@@V?$allocator@U?$pair@$$CBKPAVCUser@@@std@@@3@$0A@@std@@@std@@QBE_NABV012@@Z
_TEXT	SEGMENT PARA USE32 PUBLIC 'CODE'
_TEXT	ENDS
;	COMDAT ??Eiterator@?$_Tree@V?$_Tmap_traits@KPAVCUser@@U?$less@K@std@@V?$allocator@U?$pair@$$CBKPAVCUser@@@std@@@3@$0A@@std@@@std@@QAEAAV012@XZ
_TEXT	SEGMENT PARA USE32 PUBLIC 'CODE'
_TEXT	ENDS
;	COMDAT ??Econst_iterator@?$_Tree@V?$_Tmap_traits@KPAVCUser@@U?$less@K@std@@V?$allocator@U?$pair@$$CBKPAVCUser@@@std@@@3@$0A@@std@@@std@@QAEAAV012@XZ
_TEXT	SEGMENT PARA USE32 PUBLIC 'CODE'
_TEXT	ENDS
;	COMDAT ?_Inc@const_iterator@?$_Tree@V?$_Tmap_traits@KPAVCUser@@U?$less@K@std@@V?$allocator@U?$pair@$$CBKPAVCUser@@@std@@@3@$0A@@std@@@std@@QAEXXZ
_TEXT	SEGMENT PARA USE32 PUBLIC 'CODE'
_TEXT	ENDS
;	COMDAT ?_Min@?$_Tree@V?$_Tmap_traits@KPAVCUser@@U?$less@K@std@@V?$allocator@U?$pair@$$CBKPAVCUser@@@std@@@3@$0A@@std@@@std@@KAPAU_Node@?$_Tree_nod@V?$_Tmap_traits@KPAVCUser@@U?$less@K@std@@V?$allocator@U?$pair@$$CBKPAVCUser@@@std@@@3@$0A@@std@@@2@PAU342@@Z
_TEXT	SEGMENT PARA USE32 PUBLIC 'CODE'
_TEXT	ENDS
;	COMDAT ?_Left@?$_Tree@V?$_Tmap_traits@KPAVCUser@@U?$less@K@std@@V?$allocator@U?$pair@$$CBKPAVCUser@@@std@@@3@$0A@@std@@@std@@KAAAPAU_Node@?$_Tree_nod@V?$_Tmap_traits@KPAVCUser@@U?$less@K@std@@V?$allocator@U?$pair@$$CBKPAVCUser@@@std@@@3@$0A@@std@@@2@PAU342@@Z
_TEXT	SEGMENT PARA USE32 PUBLIC 'CODE'
_TEXT	ENDS
;	COMDAT ?_Isnil@?$_Tree@V?$_Tmap_traits@KPAVCUser@@U?$less@K@std@@V?$allocator@U?$pair@$$CBKPAVCUser@@@std@@@3@$0A@@std@@@std@@KAAADPAU_Node@?$_Tree_nod@V?$_Tmap_traits@KPAVCUser@@U?$less@K@std@@V?$allocator@U?$pair@$$CBKPAVCUser@@@std@@@3@$0A@@std@@@2@@Z
_TEXT	SEGMENT PARA USE32 PUBLIC 'CODE'
_TEXT	ENDS
;	COMDAT ?_Parent@?$_Tree@V?$_Tmap_traits@KPAVCUser@@U?$less@K@std@@V?$allocator@U?$pair@$$CBKPAVCUser@@@std@@@3@$0A@@std@@@std@@KAAAPAU_Node@?$_Tree_nod@V?$_Tmap_traits@KPAVCUser@@U?$less@K@std@@V?$allocator@U?$pair@$$CBKPAVCUser@@@std@@@3@$0A@@std@@@2@PAU342@@Z
_TEXT	SEGMENT PARA USE32 PUBLIC 'CODE'
_TEXT	ENDS
;	COMDAT ?_Right@?$_Tree@V?$_Tmap_traits@KPAVCUser@@U?$less@K@std@@V?$allocator@U?$pair@$$CBKPAVCUser@@@std@@@3@$0A@@std@@@std@@KAAAPAU_Node@?$_Tree_nod@V?$_Tmap_traits@KPAVCUser@@U?$less@K@std@@V?$allocator@U?$pair@$$CBKPAVCUser@@@std@@@3@$0A@@std@@@2@PAU342@@Z
_TEXT	SEGMENT PARA USE32 PUBLIC 'CODE'
_TEXT	ENDS
;	COMDAT ?_Psave@?$_Facetptr@V?$ctype@G@std@@@std@@2PBVfacet@locale@2@B
_DATA	SEGMENT DWORD USE32 PUBLIC 'DATA'
_DATA	ENDS
;	COMDAT ?_Psave@?$_Facetptr@V?$ctype@D@std@@@std@@2PBVfacet@locale@2@B
_DATA	SEGMENT DWORD USE32 PUBLIC 'DATA'
_DATA	ENDS
;	COMDAT __TI3?AVlength_error@std@@
xdata$x	SEGMENT DWORD USE32 PUBLIC 'CONST'
xdata$x	ENDS
;	COMDAT ??1length_error@std@@UAE@XZ
_TEXT	SEGMENT PARA USE32 PUBLIC 'CODE'
_TEXT	ENDS
;	COMDAT ??_7length_error@std@@6B@
CONST	SEGMENT DWORD USE32 PUBLIC 'CONST'
CONST	ENDS
;	COMDAT ??_Glength_error@std@@UAEPAXI@Z
_TEXT	SEGMENT PARA USE32 PUBLIC 'CODE'
_TEXT	ENDS
;	COMDAT ?what@logic_error@std@@UBEPBDXZ
_TEXT	SEGMENT PARA USE32 PUBLIC 'CODE'
_TEXT	ENDS
;	COMDAT ?c_str@?$basic_string@DU?$char_traits@D@std@@V?$allocator@D@2@@std@@QBEPBDXZ
_TEXT	SEGMENT PARA USE32 PUBLIC 'CODE'
_TEXT	ENDS
;	COMDAT ??1logic_error@std@@UAE@XZ
_TEXT	SEGMENT PARA USE32 PUBLIC 'CODE'
_TEXT	ENDS
;	COMDAT ??_7logic_error@std@@6B@
CONST	SEGMENT DWORD USE32 PUBLIC 'CONST'
CONST	ENDS
;	COMDAT ??_Glogic_error@std@@UAEPAXI@Z
_TEXT	SEGMENT PARA USE32 PUBLIC 'CODE'
_TEXT	ENDS
;	COMDAT __CTA3?AVlength_error@std@@
xdata$x	SEGMENT DWORD USE32 PUBLIC 'CONST'
xdata$x	ENDS
;	COMDAT __CT??_R0?AVlength_error@std@@@8??0length_error@std@@QAE@ABV01@@Z40
xdata$x	SEGMENT DWORD USE32 PUBLIC 'CONST'
xdata$x	ENDS
;	COMDAT ??_R0?AVlength_error@std@@@8
_DATA	SEGMENT DWORD USE32 PUBLIC 'DATA'
_DATA	ENDS
;	COMDAT ??0length_error@std@@QAE@ABV01@@Z
_TEXT	SEGMENT PARA USE32 PUBLIC 'CODE'
_TEXT	ENDS
;	COMDAT ??0logic_error@std@@QAE@ABV01@@Z
_TEXT	SEGMENT PARA USE32 PUBLIC 'CODE'
_TEXT	ENDS
;	COMDAT ??0?$basic_string@DU?$char_traits@D@std@@V?$allocator@D@2@@std@@QAE@ABV01@@Z
_TEXT	SEGMENT PARA USE32 PUBLIC 'CODE'
_TEXT	ENDS
;	COMDAT ??0?$_String_val@DV?$allocator@D@std@@@std@@IAE@V?$allocator@D@1@@Z
_TEXT	SEGMENT PARA USE32 PUBLIC 'CODE'
_TEXT	ENDS
;	COMDAT ??0?$allocator@D@std@@QAE@ABV01@@Z
_TEXT	SEGMENT PARA USE32 PUBLIC 'CODE'
_TEXT	ENDS
;	COMDAT ?_Tidy@?$basic_string@DU?$char_traits@D@std@@V?$allocator@D@2@@std@@IAEX_NI@Z
_TEXT	SEGMENT PARA USE32 PUBLIC 'CODE'
_TEXT	ENDS
;	COMDAT ?copy@?$char_traits@D@std@@SAPADPADPBDI@Z
_TEXT	SEGMENT PARA USE32 PUBLIC 'CODE'
_TEXT	ENDS
;	COMDAT ?deallocate@?$allocator@D@std@@QAEXPADI@Z
_TEXT	SEGMENT PARA USE32 PUBLIC 'CODE'
_TEXT	ENDS
;	COMDAT ?_Eos@?$basic_string@DU?$char_traits@D@std@@V?$allocator@D@2@@std@@IAEXI@Z
_TEXT	SEGMENT PARA USE32 PUBLIC 'CODE'
_TEXT	ENDS
;	COMDAT ?assign@?$char_traits@D@std@@SAXAADABD@Z
_TEXT	SEGMENT PARA USE32 PUBLIC 'CODE'
_TEXT	ENDS
;	COMDAT ?_Myptr@?$basic_string@DU?$char_traits@D@std@@V?$allocator@D@2@@std@@QAEPADXZ
_TEXT	SEGMENT PARA USE32 PUBLIC 'CODE'
_TEXT	ENDS
;	COMDAT ?assign@?$basic_string@DU?$char_traits@D@std@@V?$allocator@D@2@@std@@QAEAAV12@ABV12@II@Z
_TEXT	SEGMENT PARA USE32 PUBLIC 'CODE'
_TEXT	ENDS
;	COMDAT ?erase@?$basic_string@DU?$char_traits@D@std@@V?$allocator@D@2@@std@@QAEAAV12@II@Z
_TEXT	SEGMENT PARA USE32 PUBLIC 'CODE'
_TEXT	ENDS
;	COMDAT ?move@?$char_traits@D@std@@SAPADPADPBDI@Z
_TEXT	SEGMENT PARA USE32 PUBLIC 'CODE'
_TEXT	ENDS
;	COMDAT ?_Grow@?$basic_string@DU?$char_traits@D@std@@V?$allocator@D@2@@std@@IAE_NI_N@Z
_TEXT	SEGMENT PARA USE32 PUBLIC 'CODE'
_TEXT	ENDS
;	COMDAT ?max_size@?$basic_string@DU?$char_traits@D@std@@V?$allocator@D@2@@std@@QBEIXZ
_TEXT	SEGMENT PARA USE32 PUBLIC 'CODE'
_TEXT	ENDS
;	COMDAT ?max_size@?$allocator@D@std@@QBEIXZ
_TEXT	SEGMENT PARA USE32 PUBLIC 'CODE'
_TEXT	ENDS
;	COMDAT ?_Copy@?$basic_string@DU?$char_traits@D@std@@V?$allocator@D@2@@std@@IAEXII@Z
_TEXT	SEGMENT PARA USE32 PUBLIC 'CODE'
_TEXT	ENDS
;	COMDAT ?allocate@?$allocator@D@std@@QAEPADI@Z
_TEXT	SEGMENT PARA USE32 PUBLIC 'CODE'
_TEXT	ENDS
;	COMDAT ??$_Allocate@D@std@@YAPADIPAD@Z
_TEXT	SEGMENT PARA USE32 PUBLIC 'CODE'
_TEXT	ENDS
;	COMDAT ?npos@?$basic_string@DU?$char_traits@D@std@@V?$allocator@D@2@@std@@2IB
CONST	SEGMENT DWORD USE32 PUBLIC 'CONST'
CONST	ENDS
;	COMDAT __CT??_R0?AVlogic_error@std@@@8??0logic_error@std@@QAE@ABV01@@Z40
xdata$x	SEGMENT DWORD USE32 PUBLIC 'CONST'
xdata$x	ENDS
;	COMDAT ??_R0?AVlogic_error@std@@@8
_DATA	SEGMENT DWORD USE32 PUBLIC 'DATA'
_DATA	ENDS
;	COMDAT __CT??_R0?AVexception@@@8??0exception@@QAE@ABV0@@Z12
xdata$x	SEGMENT DWORD USE32 PUBLIC 'CONST'
xdata$x	ENDS
;	COMDAT ??_R0?AVexception@@@8
_DATA	SEGMENT DWORD USE32 PUBLIC 'DATA'
_DATA	ENDS
;	COMDAT ??1?$basic_string@DU?$char_traits@D@std@@V?$allocator@D@2@@std@@QAE@XZ
_TEXT	SEGMENT PARA USE32 PUBLIC 'CODE'
_TEXT	ENDS
;	COMDAT ??_C@_0BD@OLBABOEK@vector?$DMT?$DO?5too?5long?$AA@
CONST	SEGMENT DWORD USE32 PUBLIC 'CONST'
CONST	ENDS
;	COMDAT ??0?$basic_string@DU?$char_traits@D@std@@V?$allocator@D@2@@std@@QAE@PBD@Z
_TEXT	SEGMENT PARA USE32 PUBLIC 'CODE'
_TEXT	ENDS
;	COMDAT ??0?$allocator@D@std@@QAE@XZ
_TEXT	SEGMENT PARA USE32 PUBLIC 'CODE'
_TEXT	ENDS
;	COMDAT ?assign@?$basic_string@DU?$char_traits@D@std@@V?$allocator@D@2@@std@@QAEAAV12@PBD@Z
_TEXT	SEGMENT PARA USE32 PUBLIC 'CODE'
_TEXT	ENDS
;	COMDAT ?assign@?$basic_string@DU?$char_traits@D@std@@V?$allocator@D@2@@std@@QAEAAV12@PBDI@Z
_TEXT	SEGMENT PARA USE32 PUBLIC 'CODE'
_TEXT	ENDS
;	COMDAT ?_Inside@?$basic_string@DU?$char_traits@D@std@@V?$allocator@D@2@@std@@IAE_NPBD@Z
_TEXT	SEGMENT PARA USE32 PUBLIC 'CODE'
_TEXT	ENDS
;	COMDAT ?length@?$char_traits@D@std@@SAIPBD@Z
_TEXT	SEGMENT PARA USE32 PUBLIC 'CODE'
_TEXT	ENDS
;	COMDAT ??0length_error@std@@QAE@ABV?$basic_string@DU?$char_traits@D@std@@V?$allocator@D@2@@1@@Z
_TEXT	SEGMENT PARA USE32 PUBLIC 'CODE'
_TEXT	ENDS
;	COMDAT ??0logic_error@std@@QAE@ABV?$basic_string@DU?$char_traits@D@std@@V?$allocator@D@2@@1@@Z
_TEXT	SEGMENT PARA USE32 PUBLIC 'CODE'
_TEXT	ENDS
;	COMDAT ?compare@?$char_traits@D@std@@SAHPBD0I@Z
_TEXT	SEGMENT PARA USE32 PUBLIC 'CODE'
_TEXT	ENDS
;	COMDAT ?_Myptr@?$basic_string@DU?$char_traits@D@std@@V?$allocator@D@2@@std@@QBEPBDXZ
_TEXT	SEGMENT PARA USE32 PUBLIC 'CODE'
_TEXT	ENDS
;	COMDAT ?size@?$basic_string@DU?$char_traits@D@std@@V?$allocator@D@2@@std@@QBEIXZ
_TEXT	SEGMENT PARA USE32 PUBLIC 'CODE'
_TEXT	ENDS
;	COMDAT ??6@YAAAVCAr@@AAV0@_J@Z
_TEXT	SEGMENT PARA USE32 PUBLIC 'CODE'
_TEXT	ENDS
;	COMDAT ??6CAr@@QAEAAV0@H@Z
_TEXT	SEGMENT PARA USE32 PUBLIC 'CODE'
_TEXT	ENDS
;	COMDAT ??6CAr@@QAEAAV0@J@Z
_TEXT	SEGMENT PARA USE32 PUBLIC 'CODE'
_TEXT	ENDS
;	COMDAT ??5@YAAAVCAr@@AAV0@AA_J@Z
_TEXT	SEGMENT PARA USE32 PUBLIC 'CODE'
_TEXT	ENDS
;	COMDAT ??5CAr@@QAEAAV0@AAH@Z
_TEXT	SEGMENT PARA USE32 PUBLIC 'CODE'
_TEXT	ENDS
;	COMDAT ??5CAr@@QAEAAV0@AAJ@Z
_TEXT	SEGMENT PARA USE32 PUBLIC 'CODE'
_TEXT	ENDS
;	COMDAT ??_7CWantedListSnapshot@@6B@
CONST	SEGMENT DWORD USE32 PUBLIC 'CONST'
CONST	ENDS
;	COMDAT ?wantedList@?1??GetInstance@CWantedListSnapshot@@SAAAV2@XZ@4V2@A
_BSS	SEGMENT DWORD USE32 PUBLIC 'BSS'
_BSS	ENDS
;	COMDAT ?$S1@?1??GetInstance@CWantedListSnapshot@@SAAAV2@XZ@4IA
_BSS	SEGMENT DWORD USE32 PUBLIC 'BSS'
_BSS	ENDS
sxdata	SEGMENT DWORD USE32 'SXDATA'
sxdata	ENDS
FLAT	GROUP _DATA, CONST, _BSS
	ASSUME	CS: FLAT, DS: FLAT, SS: FLAT
endif

INCLUDELIB LIBCMT
INCLUDELIB OLDNAMES

PUBLIC	??2@YAPAXIPAX@Z					; operator new
; Function compile flags: /Ogty
; File c:\program files\microsoft visual studio .net 2003\vc7\include\new.h
;	COMDAT ??2@YAPAXIPAX@Z
_TEXT	SEGMENT
___formal$ = 8						; size = 4
__P$ = 12						; size = 4
??2@YAPAXIPAX@Z PROC NEAR				; operator new, COMDAT

; 109  :         {return (_P); }

  00000	8b 44 24 08	 mov	 eax, DWORD PTR __P$[esp-4]
  00004	c3		 ret	 0
??2@YAPAXIPAX@Z ENDP					; operator new
_TEXT	ENDS
PUBLIC	?size@?$vector@UWANTED_ENTRY@@V?$allocator@UWANTED_ENTRY@@@std@@@std@@QBEIXZ ; std::vector<WANTED_ENTRY,std::allocator<WANTED_ENTRY> >::size
; Function compile flags: /Ogty
; File c:\program files\microsoft visual studio .net 2003\vc7\include\vector
;	COMDAT ?size@?$vector@UWANTED_ENTRY@@V?$allocator@UWANTED_ENTRY@@@std@@@std@@QBEIXZ
_TEXT	SEGMENT
?size@?$vector@UWANTED_ENTRY@@V?$allocator@UWANTED_ENTRY@@@std@@@std@@QBEIXZ PROC NEAR ; std::vector<WANTED_ENTRY,std::allocator<WANTED_ENTRY> >::size, COMDAT
; _this$ = ecx

; 516  : 		return (_Myfirst == 0 ? 0 : _Mylast - _Myfirst);

  00000	8b 41 04	 mov	 eax, DWORD PTR [ecx+4]
  00003	85 c0		 test	 eax, eax
  00005	75 01		 jne	 SHORT $L227790

; 517  : 		}

  00007	c3		 ret	 0
$L227790:

; 516  : 		return (_Myfirst == 0 ? 0 : _Mylast - _Myfirst);

  00008	8b 49 08	 mov	 ecx, DWORD PTR [ecx+8]
  0000b	2b c8		 sub	 ecx, eax
  0000d	b8 4f ec c4 4e	 mov	 eax, 1321528399		; 4ec4ec4fH
  00012	f7 e9		 imul	 ecx
  00014	c1 fa 05	 sar	 edx, 5
  00017	8b c2		 mov	 eax, edx
  00019	c1 e8 1f	 shr	 eax, 31			; 0000001fH
  0001c	03 c2		 add	 eax, edx

; 517  : 		}

  0001e	c3		 ret	 0
?size@?$vector@UWANTED_ENTRY@@V?$allocator@UWANTED_ENTRY@@@std@@@std@@QBEIXZ ENDP ; std::vector<WANTED_ENTRY,std::allocator<WANTED_ENTRY> >::size
_TEXT	ENDS
PUBLIC	??Eiterator@?$vector@UWANTED_ENTRY@@V?$allocator@UWANTED_ENTRY@@@std@@@std@@QAEAAV012@XZ ; std::vector<WANTED_ENTRY,std::allocator<WANTED_ENTRY> >::iterator::operator++
; Function compile flags: /Ogty
;	COMDAT ??Eiterator@?$vector@UWANTED_ENTRY@@V?$allocator@UWANTED_ENTRY@@@std@@@std@@QAEAAV012@XZ
_TEXT	SEGMENT
??Eiterator@?$vector@UWANTED_ENTRY@@V?$allocator@UWANTED_ENTRY@@@std@@@std@@QAEAAV012@XZ PROC NEAR ; std::vector<WANTED_ENTRY,std::allocator<WANTED_ENTRY> >::iterator::operator++, COMDAT
; _this$ = ecx

; 229  : 			{	// preincrement

  00000	8b c1		 mov	 eax, ecx

; 230  : 			++this->_Myptr;

  00002	83 00 68	 add	 DWORD PTR [eax], 104	; 00000068H

; 231  : 			return (*this);
; 232  : 			}

  00005	c3		 ret	 0
??Eiterator@?$vector@UWANTED_ENTRY@@V?$allocator@UWANTED_ENTRY@@@std@@@std@@QAEAAV012@XZ ENDP ; std::vector<WANTED_ENTRY,std::allocator<WANTED_ENTRY> >::iterator::operator++
_TEXT	ENDS
PUBLIC	?capacity@?$vector@UWANTED_ENTRY@@V?$allocator@UWANTED_ENTRY@@@std@@@std@@QBEIXZ ; std::vector<WANTED_ENTRY,std::allocator<WANTED_ENTRY> >::capacity
; Function compile flags: /Ogty
;	COMDAT ?capacity@?$vector@UWANTED_ENTRY@@V?$allocator@UWANTED_ENTRY@@@std@@@std@@QBEIXZ
_TEXT	SEGMENT
?capacity@?$vector@UWANTED_ENTRY@@V?$allocator@UWANTED_ENTRY@@@std@@@std@@QBEIXZ PROC NEAR ; std::vector<WANTED_ENTRY,std::allocator<WANTED_ENTRY> >::capacity, COMDAT
; _this$ = ecx

; 458  : 		return (_Myfirst == 0 ? 0 : _Myend - _Myfirst);

  00000	8b 41 04	 mov	 eax, DWORD PTR [ecx+4]
  00003	85 c0		 test	 eax, eax
  00005	75 01		 jne	 SHORT $L227798

; 459  : 		}

  00007	c3		 ret	 0
$L227798:

; 458  : 		return (_Myfirst == 0 ? 0 : _Myend - _Myfirst);

  00008	8b 49 0c	 mov	 ecx, DWORD PTR [ecx+12]
  0000b	2b c8		 sub	 ecx, eax
  0000d	b8 4f ec c4 4e	 mov	 eax, 1321528399		; 4ec4ec4fH
  00012	f7 e9		 imul	 ecx
  00014	c1 fa 05	 sar	 edx, 5
  00017	8b c2		 mov	 eax, edx
  00019	c1 e8 1f	 shr	 eax, 31			; 0000001fH
  0001c	03 c2		 add	 eax, edx

; 459  : 		}

  0001e	c3		 ret	 0
?capacity@?$vector@UWANTED_ENTRY@@V?$allocator@UWANTED_ENTRY@@@std@@@std@@QBEIXZ ENDP ; std::vector<WANTED_ENTRY,std::allocator<WANTED_ENTRY> >::capacity
_TEXT	ENDS
PUBLIC	??0?$allocator@UWANTED_ENTRY@@@std@@QAE@XZ	; std::allocator<WANTED_ENTRY>::allocator<WANTED_ENTRY>
; Function compile flags: /Ogty
; File c:\program files\microsoft visual studio .net 2003\vc7\include\xmemory
;	COMDAT ??0?$allocator@UWANTED_ENTRY@@@std@@QAE@XZ
_TEXT	SEGMENT
??0?$allocator@UWANTED_ENTRY@@@std@@QAE@XZ PROC NEAR	; std::allocator<WANTED_ENTRY>::allocator<WANTED_ENTRY>, COMDAT
; _this$ = ecx

; 111  : 	allocator()

  00000	8b c1		 mov	 eax, ecx

; 112  : 		{	// construct default allocator (do nothing)
; 113  : 		}

  00002	c3		 ret	 0
??0?$allocator@UWANTED_ENTRY@@@std@@QAE@XZ ENDP		; std::allocator<WANTED_ENTRY>::allocator<WANTED_ENTRY>
_TEXT	ENDS
PUBLIC	??0const_iterator@?$vector@UWANTED_ENTRY@@V?$allocator@UWANTED_ENTRY@@@std@@@std@@QAE@XZ ; std::vector<WANTED_ENTRY,std::allocator<WANTED_ENTRY> >::const_iterator::const_iterator
; Function compile flags: /Ogty
; File c:\program files\microsoft visual studio .net 2003\vc7\include\vector
;	COMDAT ??0const_iterator@?$vector@UWANTED_ENTRY@@V?$allocator@UWANTED_ENTRY@@@std@@@std@@QAE@XZ
_TEXT	SEGMENT
??0const_iterator@?$vector@UWANTED_ENTRY@@V?$allocator@UWANTED_ENTRY@@@std@@@std@@QAE@XZ PROC NEAR ; std::vector<WANTED_ENTRY,std::allocator<WANTED_ENTRY> >::const_iterator::const_iterator, COMDAT
; _this$ = ecx

; 68   : 		const_iterator()

  00000	8b c1		 mov	 eax, ecx

; 69   : 			{	// construct with null pointer
; 70   : 			_Myptr = 0;

  00002	c7 00 00 00 00
	00		 mov	 DWORD PTR [eax], 0

; 71   : 			}

  00008	c3		 ret	 0
??0const_iterator@?$vector@UWANTED_ENTRY@@V?$allocator@UWANTED_ENTRY@@@std@@@std@@QAE@XZ ENDP ; std::vector<WANTED_ENTRY,std::allocator<WANTED_ENTRY> >::const_iterator::const_iterator
_TEXT	ENDS
PUBLIC	??Dconst_iterator@?$vector@UWANTED_ENTRY@@V?$allocator@UWANTED_ENTRY@@@std@@@std@@QBEABUWANTED_ENTRY@@XZ ; std::vector<WANTED_ENTRY,std::allocator<WANTED_ENTRY> >::const_iterator::operator*
; Function compile flags: /Ogty
;	COMDAT ??Dconst_iterator@?$vector@UWANTED_ENTRY@@V?$allocator@UWANTED_ENTRY@@@std@@@std@@QBEABUWANTED_ENTRY@@XZ
_TEXT	SEGMENT
??Dconst_iterator@?$vector@UWANTED_ENTRY@@V?$allocator@UWANTED_ENTRY@@@std@@@std@@QBEABUWANTED_ENTRY@@XZ PROC NEAR ; std::vector<WANTED_ENTRY,std::allocator<WANTED_ENTRY> >::const_iterator::operator*, COMDAT
; _this$ = ecx

; 80   : 
; 81   : 
; 82   : 			return (*_Myptr);

  00000	8b 01		 mov	 eax, DWORD PTR [ecx]

; 83   : 			}

  00002	c3		 ret	 0
??Dconst_iterator@?$vector@UWANTED_ENTRY@@V?$allocator@UWANTED_ENTRY@@@std@@@std@@QBEABUWANTED_ENTRY@@XZ ENDP ; std::vector<WANTED_ENTRY,std::allocator<WANTED_ENTRY> >::const_iterator::operator*
_TEXT	ENDS
PUBLIC	??8const_iterator@?$vector@UWANTED_ENTRY@@V?$allocator@UWANTED_ENTRY@@@std@@@std@@QBE_NABV012@@Z ; std::vector<WANTED_ENTRY,std::allocator<WANTED_ENTRY> >::const_iterator::operator==
; Function compile flags: /Ogty
;	COMDAT ??8const_iterator@?$vector@UWANTED_ENTRY@@V?$allocator@UWANTED_ENTRY@@@std@@@std@@QBE_NABV012@@Z
_TEXT	SEGMENT
__Right$ = 8						; size = 4
??8const_iterator@?$vector@UWANTED_ENTRY@@V?$allocator@UWANTED_ENTRY@@@std@@@std@@QBE_NABV012@@Z PROC NEAR ; std::vector<WANTED_ENTRY,std::allocator<WANTED_ENTRY> >::const_iterator::operator==, COMDAT
; _this$ = ecx

; 153  : 
; 154  : 
; 155  : 			return (_Myptr == _Right._Myptr);

  00000	8b 01		 mov	 eax, DWORD PTR [ecx]
  00002	8b 4c 24 04	 mov	 ecx, DWORD PTR __Right$[esp-4]
  00006	2b 01		 sub	 eax, DWORD PTR [ecx]
  00008	f7 d8		 neg	 eax
  0000a	1b c0		 sbb	 eax, eax
  0000c	40		 inc	 eax

; 156  : 			}

  0000d	c2 04 00	 ret	 4
??8const_iterator@?$vector@UWANTED_ENTRY@@V?$allocator@UWANTED_ENTRY@@@std@@@std@@QBE_NABV012@@Z ENDP ; std::vector<WANTED_ENTRY,std::allocator<WANTED_ENTRY> >::const_iterator::operator==
_TEXT	ENDS
PUBLIC	??0?$allocator@UWANTED_ENTRY@@@std@@QAE@ABV01@@Z ; std::allocator<WANTED_ENTRY>::allocator<WANTED_ENTRY>
; Function compile flags: /Ogty
; File c:\program files\microsoft visual studio .net 2003\vc7\include\xmemory
;	COMDAT ??0?$allocator@UWANTED_ENTRY@@@std@@QAE@ABV01@@Z
_TEXT	SEGMENT
___formal$ = 8						; size = 4
??0?$allocator@UWANTED_ENTRY@@@std@@QAE@ABV01@@Z PROC NEAR ; std::allocator<WANTED_ENTRY>::allocator<WANTED_ENTRY>, COMDAT
; _this$ = ecx

; 115  : 	allocator(const allocator<_Ty>&)

  00000	8b c1		 mov	 eax, ecx

; 116  : 		{	// construct by copying (do nothing)
; 117  : 		}

  00002	c2 04 00	 ret	 4
??0?$allocator@UWANTED_ENTRY@@@std@@QAE@ABV01@@Z ENDP	; std::allocator<WANTED_ENTRY>::allocator<WANTED_ENTRY>
_TEXT	ENDS
PUBLIC	?deallocate@?$allocator@UWANTED_ENTRY@@@std@@QAEXPAUWANTED_ENTRY@@I@Z ; std::allocator<WANTED_ENTRY>::deallocate
EXTRN	??3@YAXPAX@Z:NEAR				; operator delete
; Function compile flags: /Ogty
;	COMDAT ?deallocate@?$allocator@UWANTED_ENTRY@@@std@@QAEXPAUWANTED_ENTRY@@I@Z
_TEXT	SEGMENT
__Ptr$ = 8						; size = 4
___formal$ = 12						; size = 4
?deallocate@?$allocator@UWANTED_ENTRY@@@std@@QAEXPAUWANTED_ENTRY@@I@Z PROC NEAR ; std::allocator<WANTED_ENTRY>::deallocate, COMDAT
; _this$ = ecx

; 132  : 		operator delete(_Ptr);

  00000	8b 44 24 04	 mov	 eax, DWORD PTR __Ptr$[esp-4]
  00004	50		 push	 eax
  00005	e8 00 00 00 00	 call	 ??3@YAXPAX@Z		; operator delete
  0000a	59		 pop	 ecx

; 133  : 		}

  0000b	c2 08 00	 ret	 8
?deallocate@?$allocator@UWANTED_ENTRY@@@std@@QAEXPAUWANTED_ENTRY@@I@Z ENDP ; std::allocator<WANTED_ENTRY>::deallocate
_TEXT	ENDS
PUBLIC	??Yiterator@?$vector@UWANTED_ENTRY@@V?$allocator@UWANTED_ENTRY@@@std@@@std@@QAEAAV012@H@Z ; std::vector<WANTED_ENTRY,std::allocator<WANTED_ENTRY> >::iterator::operator+=
; Function compile flags: /Ogty
; File c:\program files\microsoft visual studio .net 2003\vc7\include\vector
;	COMDAT ??Yiterator@?$vector@UWANTED_ENTRY@@V?$allocator@UWANTED_ENTRY@@@std@@@std@@QAEAAV012@H@Z
_TEXT	SEGMENT
__Off$ = 8						; size = 4
??Yiterator@?$vector@UWANTED_ENTRY@@V?$allocator@UWANTED_ENTRY@@@std@@@std@@QAEAAV012@H@Z PROC NEAR ; std::vector<WANTED_ENTRY,std::allocator<WANTED_ENTRY> >::iterator::operator+=, COMDAT
; _this$ = ecx

; 255  : 			{	// increment by integer

  00000	8b c1		 mov	 eax, ecx

; 256  : 			this->_Myptr += _Off;

  00002	8b 4c 24 04	 mov	 ecx, DWORD PTR __Off$[esp-4]
  00006	8b 10		 mov	 edx, DWORD PTR [eax]
  00008	6b c9 68	 imul	 ecx, 104		; 00000068H
  0000b	03 d1		 add	 edx, ecx
  0000d	89 10		 mov	 DWORD PTR [eax], edx

; 257  : 			return (*this);
; 258  : 			}

  0000f	c2 04 00	 ret	 4
??Yiterator@?$vector@UWANTED_ENTRY@@V?$allocator@UWANTED_ENTRY@@@std@@@std@@QAEAAV012@H@Z ENDP ; std::vector<WANTED_ENTRY,std::allocator<WANTED_ENTRY> >::iterator::operator+=
_TEXT	ENDS
PUBLIC	??0const_iterator@?$vector@UWANTED_ENTRY@@V?$allocator@UWANTED_ENTRY@@@std@@@std@@QAE@PAUWANTED_ENTRY@@@Z ; std::vector<WANTED_ENTRY,std::allocator<WANTED_ENTRY> >::const_iterator::const_iterator
; Function compile flags: /Ogty
;	COMDAT ??0const_iterator@?$vector@UWANTED_ENTRY@@V?$allocator@UWANTED_ENTRY@@@std@@@std@@QAE@PAUWANTED_ENTRY@@@Z
_TEXT	SEGMENT
__Ptr$ = 8						; size = 4
??0const_iterator@?$vector@UWANTED_ENTRY@@V?$allocator@UWANTED_ENTRY@@@std@@@std@@QAE@PAUWANTED_ENTRY@@@Z PROC NEAR ; std::vector<WANTED_ENTRY,std::allocator<WANTED_ENTRY> >::const_iterator::const_iterator, COMDAT
; _this$ = ecx

; 73   : 		const_iterator(_Tptr _Ptr)

  00000	8b c1		 mov	 eax, ecx

; 74   : 			{	// construct with pointer _Ptr
; 75   : 			_Myptr = _Ptr;

  00002	8b 4c 24 04	 mov	 ecx, DWORD PTR __Ptr$[esp-4]
  00006	89 08		 mov	 DWORD PTR [eax], ecx

; 76   : 			}

  00008	c2 04 00	 ret	 4
??0const_iterator@?$vector@UWANTED_ENTRY@@V?$allocator@UWANTED_ENTRY@@@std@@@std@@QAE@PAUWANTED_ENTRY@@@Z ENDP ; std::vector<WANTED_ENTRY,std::allocator<WANTED_ENTRY> >::const_iterator::const_iterator
_TEXT	ENDS
PUBLIC	?max_size@?$allocator@UWANTED_ENTRY@@@std@@QBEIXZ ; std::allocator<WANTED_ENTRY>::max_size
; Function compile flags: /Ogty
; File c:\program files\microsoft visual studio .net 2003\vc7\include\xmemory
;	COMDAT ?max_size@?$allocator@UWANTED_ENTRY@@@std@@QBEIXZ
_TEXT	SEGMENT
?max_size@?$allocator@UWANTED_ENTRY@@@std@@QBEIXZ PROC NEAR ; std::allocator<WANTED_ENTRY>::max_size, COMDAT
; _this$ = ecx

; 157  : 		_SIZT _Count = (_SIZT)(-1) / sizeof (_Ty);
; 158  : 		return (0 < _Count ? _Count : 1);

  00000	b8 62 27 76 02	 mov	 eax, 41297762		; 02762762H

; 159  : 		}

  00005	c3		 ret	 0
?max_size@?$allocator@UWANTED_ENTRY@@@std@@QBEIXZ ENDP	; std::allocator<WANTED_ENTRY>::max_size
_TEXT	ENDS
PUBLIC	??Gconst_iterator@?$vector@UWANTED_ENTRY@@V?$allocator@UWANTED_ENTRY@@@std@@@std@@QBEHABV012@@Z ; std::vector<WANTED_ENTRY,std::allocator<WANTED_ENTRY> >::const_iterator::operator-
; Function compile flags: /Ogty
; File c:\program files\microsoft visual studio .net 2003\vc7\include\vector
;	COMDAT ??Gconst_iterator@?$vector@UWANTED_ENTRY@@V?$allocator@UWANTED_ENTRY@@@std@@@std@@QBEHABV012@@Z
_TEXT	SEGMENT
__Right$ = 8						; size = 4
??Gconst_iterator@?$vector@UWANTED_ENTRY@@V?$allocator@UWANTED_ENTRY@@@std@@@std@@QBEHABV012@@Z PROC NEAR ; std::vector<WANTED_ENTRY,std::allocator<WANTED_ENTRY> >::const_iterator::operator-, COMDAT
; _this$ = ecx

; 141  : 
; 142  : 
; 143  : 			return (_Myptr - _Right._Myptr);

  00000	8b 44 24 04	 mov	 eax, DWORD PTR __Right$[esp-4]
  00004	8b 10		 mov	 edx, DWORD PTR [eax]
  00006	8b 09		 mov	 ecx, DWORD PTR [ecx]
  00008	2b ca		 sub	 ecx, edx
  0000a	b8 4f ec c4 4e	 mov	 eax, 1321528399		; 4ec4ec4fH
  0000f	f7 e9		 imul	 ecx
  00011	c1 fa 05	 sar	 edx, 5
  00014	8b c2		 mov	 eax, edx
  00016	c1 e8 1f	 shr	 eax, 31			; 0000001fH
  00019	03 c2		 add	 eax, edx

; 144  : 			}

  0001b	c2 04 00	 ret	 4
??Gconst_iterator@?$vector@UWANTED_ENTRY@@V?$allocator@UWANTED_ENTRY@@@std@@@std@@QBEHABV012@@Z ENDP ; std::vector<WANTED_ENTRY,std::allocator<WANTED_ENTRY> >::const_iterator::operator-
_TEXT	ENDS
PUBLIC	??$fill@PAUWANTED_ENTRY@@U1@@std@@YAXPAUWANTED_ENTRY@@0ABU1@@Z ; std::fill<WANTED_ENTRY *,WANTED_ENTRY>
; Function compile flags: /Ogty
; File c:\program files\microsoft visual studio .net 2003\vc7\include\xutility
;	COMDAT ??$fill@PAUWANTED_ENTRY@@U1@@std@@YAXPAUWANTED_ENTRY@@0ABU1@@Z
_TEXT	SEGMENT
__First$ = 8						; size = 4
__Last$ = 12						; size = 4
__Val$ = 16						; size = 4
??$fill@PAUWANTED_ENTRY@@U1@@std@@YAXPAUWANTED_ENTRY@@0ABU1@@Z PROC NEAR ; std::fill<WANTED_ENTRY *,WANTED_ENTRY>, COMDAT

; 1135 : 	for (; _First != _Last; ++_First)

  00000	8b 44 24 04	 mov	 eax, DWORD PTR __First$[esp-4]
  00004	8b 54 24 08	 mov	 edx, DWORD PTR __Last$[esp-4]
  00008	3b c2		 cmp	 eax, edx
  0000a	74 1c		 je	 SHORT $L226888
  0000c	53		 push	 ebx
  0000d	8b 5c 24 10	 mov	 ebx, DWORD PTR __Val$[esp]
  00011	56		 push	 esi
  00012	57		 push	 edi
$L226886:

; 1136 : 		*_First = _Val;

  00013	8b f8		 mov	 edi, eax
  00015	83 c0 68	 add	 eax, 104		; 00000068H
  00018	3b c2		 cmp	 eax, edx
  0001a	b9 1a 00 00 00	 mov	 ecx, 26			; 0000001aH
  0001f	8b f3		 mov	 esi, ebx
  00021	f3 a5		 rep movsd
  00023	75 ee		 jne	 SHORT $L226886
  00025	5f		 pop	 edi
  00026	5e		 pop	 esi
  00027	5b		 pop	 ebx
$L226888:

; 1137 : 	}

  00028	c3		 ret	 0
??$fill@PAUWANTED_ENTRY@@U1@@std@@YAXPAUWANTED_ENTRY@@0ABU1@@Z ENDP ; std::fill<WANTED_ENTRY *,WANTED_ENTRY>
_TEXT	ENDS
PUBLIC	??$_Allocate@UWANTED_ENTRY@@@std@@YAPAUWANTED_ENTRY@@IPAU1@@Z ; std::_Allocate<WANTED_ENTRY>
EXTRN	??2@YAPAXI@Z:NEAR				; operator new
; Function compile flags: /Ogty
; File c:\program files\microsoft visual studio .net 2003\vc7\include\xmemory
;	COMDAT ??$_Allocate@UWANTED_ENTRY@@@std@@YAPAUWANTED_ENTRY@@IPAU1@@Z
_TEXT	SEGMENT
__Count$ = 8						; size = 4
___formal$ = 12						; size = 4
??$_Allocate@UWANTED_ENTRY@@@std@@YAPAUWANTED_ENTRY@@IPAU1@@Z PROC NEAR ; std::_Allocate<WANTED_ENTRY>, COMDAT

; 34   : 	return ((_Ty _FARQ *)operator new(_Count * sizeof (_Ty)));

  00000	8b 44 24 04	 mov	 eax, DWORD PTR __Count$[esp-4]
  00004	6b c0 68	 imul	 eax, 104		; 00000068H
  00007	50		 push	 eax
  00008	e8 00 00 00 00	 call	 ??2@YAPAXI@Z		; operator new
  0000d	83 c4 04	 add	 esp, 4

; 35   : 	}

  00010	c3		 ret	 0
??$_Allocate@UWANTED_ENTRY@@@std@@YAPAUWANTED_ENTRY@@IPAU1@@Z ENDP ; std::_Allocate<WANTED_ENTRY>
_TEXT	ENDS
PUBLIC	??$_Ptr_cat@PAUWANTED_ENTRY@@PAU1@@std@@YA?AU_Nonscalar_ptr_iterator_tag@0@AAPAUWANTED_ENTRY@@0@Z ; std::_Ptr_cat<WANTED_ENTRY *,WANTED_ENTRY *>
; Function compile flags: /Ogty
; File c:\program files\microsoft visual studio .net 2003\vc7\include\xutility
;	COMDAT ??$_Ptr_cat@PAUWANTED_ENTRY@@PAU1@@std@@YA?AU_Nonscalar_ptr_iterator_tag@0@AAPAUWANTED_ENTRY@@0@Z
_TEXT	SEGMENT
__Cat$ = -1						; size = 1
___formal$ = 8						; size = 4
___formal$ = 12						; size = 4
??$_Ptr_cat@PAUWANTED_ENTRY@@PAU1@@std@@YA?AU_Nonscalar_ptr_iterator_tag@0@AAPAUWANTED_ENTRY@@0@Z PROC NEAR ; std::_Ptr_cat<WANTED_ENTRY *,WANTED_ENTRY *>, COMDAT

; 211  : 	{	// return pointer category from arbitrary arguments

  00000	51		 push	 ecx

; 212  : 	_Nonscalar_ptr_iterator_tag _Cat;
; 213  : 	return (_Cat);

  00001	8a 44 24 03	 mov	 al, BYTE PTR __Cat$[esp+4]

; 214  : 	}

  00005	59		 pop	 ecx
  00006	c3		 ret	 0
??$_Ptr_cat@PAUWANTED_ENTRY@@PAU1@@std@@YA?AU_Nonscalar_ptr_iterator_tag@0@AAPAUWANTED_ENTRY@@0@Z ENDP ; std::_Ptr_cat<WANTED_ENTRY *,WANTED_ENTRY *>
_TEXT	ENDS
PUBLIC	??$_Copy_backward_opt@PAUWANTED_ENTRY@@PAU1@@std@@YAPAUWANTED_ENTRY@@PAU1@00U_Nonscalar_ptr_iterator_tag@0@@Z ; std::_Copy_backward_opt<WANTED_ENTRY *,WANTED_ENTRY *>
; Function compile flags: /Ogty
;	COMDAT ??$_Copy_backward_opt@PAUWANTED_ENTRY@@PAU1@@std@@YAPAUWANTED_ENTRY@@PAU1@00U_Nonscalar_ptr_iterator_tag@0@@Z
_TEXT	SEGMENT
__First$ = 8						; size = 4
__Last$ = 12						; size = 4
__Dest$ = 16						; size = 4
___formal$ = 20						; size = 1
??$_Copy_backward_opt@PAUWANTED_ENTRY@@PAU1@@std@@YAPAUWANTED_ENTRY@@PAU1@00U_Nonscalar_ptr_iterator_tag@0@@Z PROC NEAR ; std::_Copy_backward_opt<WANTED_ENTRY *,WANTED_ENTRY *>, COMDAT

; 1049 : 	while (_First != _Last)

  00000	8b 54 24 08	 mov	 edx, DWORD PTR __Last$[esp-4]
  00004	8b 44 24 0c	 mov	 eax, DWORD PTR __Dest$[esp-4]
  00008	53		 push	 ebx
  00009	8b 5c 24 08	 mov	 ebx, DWORD PTR __First$[esp]
  0000d	3b da		 cmp	 ebx, edx
  0000f	74 19		 je	 SHORT $L227102
  00011	56		 push	 esi
  00012	57		 push	 edi
$L227101:

; 1050 : 		*--_Dest = *--_Last;

  00013	83 ea 68	 sub	 edx, 104		; 00000068H
  00016	83 e8 68	 sub	 eax, 104		; 00000068H
  00019	3b d3		 cmp	 edx, ebx
  0001b	b9 1a 00 00 00	 mov	 ecx, 26			; 0000001aH
  00020	8b f2		 mov	 esi, edx
  00022	8b f8		 mov	 edi, eax
  00024	f3 a5		 rep movsd
  00026	75 eb		 jne	 SHORT $L227101
  00028	5f		 pop	 edi
  00029	5e		 pop	 esi
$L227102:
  0002a	5b		 pop	 ebx

; 1051 : 	return (_Dest);
; 1052 : 	}

  0002b	c3		 ret	 0
??$_Copy_backward_opt@PAUWANTED_ENTRY@@PAU1@@std@@YAPAUWANTED_ENTRY@@PAU1@00U_Nonscalar_ptr_iterator_tag@0@@Z ENDP ; std::_Copy_backward_opt<WANTED_ENTRY *,WANTED_ENTRY *>
_TEXT	ENDS
PUBLIC	??$_Construct@UWANTED_ENTRY@@U1@@std@@YAXPAUWANTED_ENTRY@@ABU1@@Z ; std::_Construct<WANTED_ENTRY,WANTED_ENTRY>
; Function compile flags: /Ogty
; File c:\program files\microsoft visual studio .net 2003\vc7\include\xmemory
;	COMDAT ??$_Construct@UWANTED_ENTRY@@U1@@std@@YAXPAUWANTED_ENTRY@@ABU1@@Z
_TEXT	SEGMENT
__Ptr$ = 8						; size = 4
__Val$ = 12						; size = 4
??$_Construct@UWANTED_ENTRY@@U1@@std@@YAXPAUWANTED_ENTRY@@ABU1@@Z PROC NEAR ; std::_Construct<WANTED_ENTRY,WANTED_ENTRY>, COMDAT

; 41   : 	{	// construct object at _Ptr with value _Val

  00000	57		 push	 edi

; 42   : 	new ((void _FARQ *)_Ptr) _T1(_Val);

  00001	8b 7c 24 08	 mov	 edi, DWORD PTR __Ptr$[esp]
  00005	85 ff		 test	 edi, edi
  00007	74 0d		 je	 SHORT $L227853
  00009	56		 push	 esi
  0000a	8b 74 24 10	 mov	 esi, DWORD PTR __Val$[esp+4]
  0000e	b9 1a 00 00 00	 mov	 ecx, 26			; 0000001aH
  00013	f3 a5		 rep movsd
  00015	5e		 pop	 esi
$L227853:
  00016	5f		 pop	 edi

; 43   : 	}

  00017	c3		 ret	 0
??$_Construct@UWANTED_ENTRY@@U1@@std@@YAXPAUWANTED_ENTRY@@ABU1@@Z ENDP ; std::_Construct<WANTED_ENTRY,WANTED_ENTRY>
_TEXT	ENDS
PUBLIC	??$_Destroy@UWANTED_ENTRY@@@std@@YAXPAUWANTED_ENTRY@@@Z ; std::_Destroy<WANTED_ENTRY>
; Function compile flags: /Ogty
;	COMDAT ??$_Destroy@UWANTED_ENTRY@@@std@@YAXPAUWANTED_ENTRY@@@Z
_TEXT	SEGMENT
__Ptr$ = 8						; size = 4
??$_Destroy@UWANTED_ENTRY@@@std@@YAXPAUWANTED_ENTRY@@@Z PROC NEAR ; std::_Destroy<WANTED_ENTRY>, COMDAT

; 49   : 	_DESTRUCTOR(_Ty, _Ptr);
; 50   : 	}

  00000	c3		 ret	 0
??$_Destroy@UWANTED_ENTRY@@@std@@YAXPAUWANTED_ENTRY@@@Z ENDP ; std::_Destroy<WANTED_ENTRY>
_TEXT	ENDS
PUBLIC	?assign@?$char_traits@D@std@@SAXAADABD@Z	; std::char_traits<char>::assign
; Function compile flags: /Ogty
; File c:\program files\microsoft visual studio .net 2003\vc7\include\iosfwd
;	COMDAT ?assign@?$char_traits@D@std@@SAXAADABD@Z
_TEXT	SEGMENT
__Left$ = 8						; size = 4
__Right$ = 12						; size = 4
?assign@?$char_traits@D@std@@SAXAADABD@Z PROC NEAR	; std::char_traits<char>::assign, COMDAT

; 331  : 		_Left = _Right;

  00000	8b 44 24 08	 mov	 eax, DWORD PTR __Right$[esp-4]
  00004	8a 08		 mov	 cl, BYTE PTR [eax]
  00006	8b 54 24 04	 mov	 edx, DWORD PTR __Left$[esp-4]
  0000a	88 0a		 mov	 BYTE PTR [edx], cl

; 332  : 		}

  0000c	c3		 ret	 0
?assign@?$char_traits@D@std@@SAXAADABD@Z ENDP		; std::char_traits<char>::assign
_TEXT	ENDS
PUBLIC	?length@?$char_traits@D@std@@SAIPBD@Z		; std::char_traits<char>::length
; Function compile flags: /Ogty
;	COMDAT ?length@?$char_traits@D@std@@SAIPBD@Z
_TEXT	SEGMENT
__First$ = 8						; size = 4
?length@?$char_traits@D@std@@SAIPBD@Z PROC NEAR		; std::char_traits<char>::length, COMDAT

; 352  : 		return (::strlen(_First));

  00000	8b 44 24 04	 mov	 eax, DWORD PTR __First$[esp-4]
  00004	8d 50 01	 lea	 edx, DWORD PTR [eax+1]
$L227867:
  00007	8a 08		 mov	 cl, BYTE PTR [eax]
  00009	40		 inc	 eax
  0000a	84 c9		 test	 cl, cl
  0000c	75 f9		 jne	 SHORT $L227867
  0000e	2b c2		 sub	 eax, edx

; 353  : 		}

  00010	c3		 ret	 0
?length@?$char_traits@D@std@@SAIPBD@Z ENDP		; std::char_traits<char>::length
_TEXT	ENDS
PUBLIC	?copy@?$char_traits@D@std@@SAPADPADPBDI@Z	; std::char_traits<char>::copy
; Function compile flags: /Ogty
;	COMDAT ?copy@?$char_traits@D@std@@SAPADPADPBDI@Z
_TEXT	SEGMENT
__First1$ = 8						; size = 4
__First2$ = 12						; size = 4
__Count$ = 16						; size = 4
?copy@?$char_traits@D@std@@SAPADPADPBDI@Z PROC NEAR	; std::char_traits<char>::copy, COMDAT

; 358  : 		return ((_Elem *)::memcpy(_First1, _First2, _Count));

  00000	8b 4c 24 0c	 mov	 ecx, DWORD PTR __Count$[esp-4]
  00004	56		 push	 esi
  00005	8b 74 24 0c	 mov	 esi, DWORD PTR __First2$[esp]
  00009	57		 push	 edi
  0000a	8b 7c 24 0c	 mov	 edi, DWORD PTR __First1$[esp+4]
  0000e	8b c1		 mov	 eax, ecx
  00010	8b d7		 mov	 edx, edi
  00012	c1 e9 02	 shr	 ecx, 2
  00015	f3 a5		 rep movsd
  00017	8b c8		 mov	 ecx, eax
  00019	83 e1 03	 and	 ecx, 3
  0001c	f3 a4		 rep movsb
  0001e	5f		 pop	 edi
  0001f	8b c2		 mov	 eax, edx
  00021	5e		 pop	 esi

; 359  : 		}

  00022	c3		 ret	 0
?copy@?$char_traits@D@std@@SAPADPADPBDI@Z ENDP		; std::char_traits<char>::copy
_TEXT	ENDS
PUBLIC	?move@?$char_traits@D@std@@SAPADPADPBDI@Z	; std::char_traits<char>::move
EXTRN	_memmove:NEAR
; Function compile flags: /Ogty
;	COMDAT ?move@?$char_traits@D@std@@SAPADPADPBDI@Z
_TEXT	SEGMENT
__First1$ = 8						; size = 4
__First2$ = 12						; size = 4
__Count$ = 16						; size = 4
?move@?$char_traits@D@std@@SAPADPADPBDI@Z PROC NEAR	; std::char_traits<char>::move, COMDAT

; 370  : 		return ((_Elem *)::memmove(_First1, _First2, _Count));

  00000	e9 00 00 00 00	 jmp	 _memmove
?move@?$char_traits@D@std@@SAPADPADPBDI@Z ENDP		; std::char_traits<char>::move
_TEXT	ENDS
PUBLIC	??6CAr@@QAEAAV0@J@Z				; CAr::operator<<
EXTRN	?CheckBuf@CAr@@QAEXI@Z:NEAR			; CAr::CheckBuf
; Function compile flags: /Ogty
; File c:\documents and settings\test\mes documents\source\virtuos_v17\build\program\_network\misc\include\ar.h
;	COMDAT ??6CAr@@QAEAAV0@J@Z
_TEXT	SEGMENT
_l$ = 8							; size = 4
??6CAr@@QAEAAV0@J@Z PROC NEAR				; CAr::operator<<, COMDAT
; _this$ = ecx

; 113  : 	{ CheckBuf( sizeof(LONG) );

  00000	56		 push	 esi
  00001	6a 04		 push	 4
  00003	8b f1		 mov	 esi, ecx
  00005	e8 00 00 00 00	 call	 ?CheckBuf@CAr@@QAEXI@Z	; CAr::CheckBuf

; 114  : 		*(UNALIGNED LONG*)m_lpBufCur = l; m_lpBufCur += sizeof(LONG); return *this; }

  0000a	8b 46 08	 mov	 eax, DWORD PTR [esi+8]
  0000d	8b 4c 24 08	 mov	 ecx, DWORD PTR _l$[esp]
  00011	89 08		 mov	 DWORD PTR [eax], ecx
  00013	83 46 08 04	 add	 DWORD PTR [esi+8], 4
  00017	8b c6		 mov	 eax, esi
  00019	5e		 pop	 esi
  0001a	c2 04 00	 ret	 4
??6CAr@@QAEAAV0@J@Z ENDP				; CAr::operator<<
_TEXT	ENDS
PUBLIC	??5CAr@@QAEAAV0@AAJ@Z				; CAr::operator>>
; Function compile flags: /Ogty
;	COMDAT ??5CAr@@QAEAAV0@AAJ@Z
_TEXT	SEGMENT
_l$ = 8							; size = 4
??5CAr@@QAEAAV0@AAJ@Z PROC NEAR				; CAr::operator>>, COMDAT
; _this$ = ecx

; 152  : 	{	CAR_SAFE_READ( LONG, l );	}

  00000	8b c1		 mov	 eax, ecx
  00002	8b 48 08	 mov	 ecx, DWORD PTR [eax+8]
  00005	56		 push	 esi
  00006	8b 70 0c	 mov	 esi, DWORD PTR [eax+12]
  00009	8d 51 04	 lea	 edx, DWORD PTR [ecx+4]
  0000c	3b d6		 cmp	 edx, esi
  0000e	5e		 pop	 esi
  0000f	77 0f		 ja	 SHORT $L205498
  00011	8b 09		 mov	 ecx, DWORD PTR [ecx]
  00013	8b 54 24 04	 mov	 edx, DWORD PTR _l$[esp-4]
  00017	89 0a		 mov	 DWORD PTR [edx], ecx
  00019	83 40 08 04	 add	 DWORD PTR [eax+8], 4
  0001d	c2 04 00	 ret	 4
$L205498:
  00020	8b 4c 24 04	 mov	 ecx, DWORD PTR _l$[esp-4]
  00024	c7 01 00 00 00
	00		 mov	 DWORD PTR [ecx], 0
  0002a	8b 50 0c	 mov	 edx, DWORD PTR [eax+12]
  0002d	89 50 08	 mov	 DWORD PTR [eax+8], edx
  00030	c2 04 00	 ret	 4
??5CAr@@QAEAAV0@AAJ@Z ENDP				; CAr::operator>>
_TEXT	ENDS
PUBLIC	??6@YAAAVCAr@@AAV0@_J@Z				; operator<<
EXTRN	?Write@CAr@@QAEXPBXI@Z:NEAR			; CAr::Write
; Function compile flags: /Ogty
;	COMDAT ??6@YAAAVCAr@@AAV0@_J@Z
_TEXT	SEGMENT
_ar$ = 8						; size = 4
_i$ = 12						; size = 8
??6@YAAAVCAr@@AAV0@_J@Z PROC NEAR			; operator<<, COMDAT

; 163  : 	{	ar.Write( &i, sizeof(__int64) );	return ar;	}

  00000	56		 push	 esi
  00001	8b 74 24 08	 mov	 esi, DWORD PTR _ar$[esp]
  00005	6a 08		 push	 8
  00007	8d 44 24 10	 lea	 eax, DWORD PTR _i$[esp+4]
  0000b	50		 push	 eax
  0000c	8b ce		 mov	 ecx, esi
  0000e	e8 00 00 00 00	 call	 ?Write@CAr@@QAEXPBXI@Z	; CAr::Write
  00013	8b c6		 mov	 eax, esi
  00015	5e		 pop	 esi
  00016	c3		 ret	 0
??6@YAAAVCAr@@AAV0@_J@Z ENDP				; operator<<
_TEXT	ENDS
PUBLIC	??5@YAAAVCAr@@AAV0@AA_J@Z			; operator>>
EXTRN	?Read@CAr@@QAEXPAXI@Z:NEAR			; CAr::Read
; Function compile flags: /Ogty
;	COMDAT ??5@YAAAVCAr@@AAV0@AA_J@Z
_TEXT	SEGMENT
_ar$ = 8						; size = 4
_i$ = 12						; size = 4
??5@YAAAVCAr@@AAV0@AA_J@Z PROC NEAR			; operator>>, COMDAT

; 166  : 	{	ar.Read( &i, sizeof(__int64) );	return ar;	}

  00000	8b 44 24 08	 mov	 eax, DWORD PTR _i$[esp-4]
  00004	56		 push	 esi
  00005	8b 74 24 08	 mov	 esi, DWORD PTR _ar$[esp]
  00009	6a 08		 push	 8
  0000b	50		 push	 eax
  0000c	8b ce		 mov	 ecx, esi
  0000e	e8 00 00 00 00	 call	 ?Read@CAr@@QAEXPAXI@Z	; CAr::Read
  00013	8b c6		 mov	 eax, esi
  00015	5e		 pop	 esi
  00016	c3		 ret	 0
??5@YAAAVCAr@@AAV0@AA_J@Z ENDP				; operator>>
_TEXT	ENDS
PUBLIC	?size@?$basic_string@DU?$char_traits@D@std@@V?$allocator@D@2@@std@@QBEIXZ ; std::basic_string<char,std::char_traits<char>,std::allocator<char> >::size
; Function compile flags: /Ogty
; File c:\program files\microsoft visual studio .net 2003\vc7\include\xstring
;	COMDAT ?size@?$basic_string@DU?$char_traits@D@std@@V?$allocator@D@2@@std@@QBEIXZ
_TEXT	SEGMENT
?size@?$basic_string@DU?$char_traits@D@std@@V?$allocator@D@2@@std@@QBEIXZ PROC NEAR ; std::basic_string<char,std::char_traits<char>,std::allocator<char> >::size, COMDAT
; _this$ = ecx

; 1109 : 		return (_Mysize);

  00000	8b 41 14	 mov	 eax, DWORD PTR [ecx+20]

; 1110 : 		}

  00003	c3		 ret	 0
?size@?$basic_string@DU?$char_traits@D@std@@V?$allocator@D@2@@std@@QBEIXZ ENDP ; std::basic_string<char,std::char_traits<char>,std::allocator<char> >::size
_TEXT	ENDS
PUBLIC	?_Myptr@?$basic_string@DU?$char_traits@D@std@@V?$allocator@D@2@@std@@QBEPBDXZ ; std::basic_string<char,std::char_traits<char>,std::allocator<char> >::_Myptr
; Function compile flags: /Ogty
;	COMDAT ?_Myptr@?$basic_string@DU?$char_traits@D@std@@V?$allocator@D@2@@std@@QBEPBDXZ
_TEXT	SEGMENT
?_Myptr@?$basic_string@DU?$char_traits@D@std@@V?$allocator@D@2@@std@@QBEPBDXZ PROC NEAR ; std::basic_string<char,std::char_traits<char>,std::allocator<char> >::_Myptr, COMDAT
; _this$ = ecx

; 1537 : 		return (_BUF_SIZE <= _Myres ? _Bx._Ptr : _Bx._Buf);

  00000	83 79 18 10	 cmp	 DWORD PTR [ecx+24], 16	; 00000010H
  00004	72 04		 jb	 SHORT $L227893
  00006	8b 41 04	 mov	 eax, DWORD PTR [ecx+4]

; 1538 : 		}

  00009	c3		 ret	 0
$L227893:

; 1537 : 		return (_BUF_SIZE <= _Myres ? _Bx._Ptr : _Bx._Buf);

  0000a	8d 41 04	 lea	 eax, DWORD PTR [ecx+4]

; 1538 : 		}

  0000d	c3		 ret	 0
?_Myptr@?$basic_string@DU?$char_traits@D@std@@V?$allocator@D@2@@std@@QBEPBDXZ ENDP ; std::basic_string<char,std::char_traits<char>,std::allocator<char> >::_Myptr
_TEXT	ENDS
PUBLIC	??0?$allocator@D@std@@QAE@XZ			; std::allocator<char>::allocator<char>
; Function compile flags: /Ogty
; File c:\program files\microsoft visual studio .net 2003\vc7\include\xmemory
;	COMDAT ??0?$allocator@D@std@@QAE@XZ
_TEXT	SEGMENT
??0?$allocator@D@std@@QAE@XZ PROC NEAR			; std::allocator<char>::allocator<char>, COMDAT
; _this$ = ecx

; 111  : 	allocator()

  00000	8b c1		 mov	 eax, ecx

; 112  : 		{	// construct default allocator (do nothing)
; 113  : 		}

  00002	c3		 ret	 0
??0?$allocator@D@std@@QAE@XZ ENDP			; std::allocator<char>::allocator<char>
_TEXT	ENDS
PUBLIC	??0?$allocator@D@std@@QAE@ABV01@@Z		; std::allocator<char>::allocator<char>
; Function compile flags: /Ogty
;	COMDAT ??0?$allocator@D@std@@QAE@ABV01@@Z
_TEXT	SEGMENT
___formal$ = 8						; size = 4
??0?$allocator@D@std@@QAE@ABV01@@Z PROC NEAR		; std::allocator<char>::allocator<char>, COMDAT
; _this$ = ecx

; 115  : 	allocator(const allocator<_Ty>&)

  00000	8b c1		 mov	 eax, ecx

; 116  : 		{	// construct by copying (do nothing)
; 117  : 		}

  00002	c2 04 00	 ret	 4
??0?$allocator@D@std@@QAE@ABV01@@Z ENDP			; std::allocator<char>::allocator<char>
_TEXT	ENDS
PUBLIC	?_Myptr@?$basic_string@DU?$char_traits@D@std@@V?$allocator@D@2@@std@@QAEPADXZ ; std::basic_string<char,std::char_traits<char>,std::allocator<char> >::_Myptr
; Function compile flags: /Ogty
; File c:\program files\microsoft visual studio .net 2003\vc7\include\xstring
;	COMDAT ?_Myptr@?$basic_string@DU?$char_traits@D@std@@V?$allocator@D@2@@std@@QAEPADXZ
_TEXT	SEGMENT
?_Myptr@?$basic_string@DU?$char_traits@D@std@@V?$allocator@D@2@@std@@QAEPADXZ PROC NEAR ; std::basic_string<char,std::char_traits<char>,std::allocator<char> >::_Myptr, COMDAT
; _this$ = ecx

; 1532 : 		return (_BUF_SIZE <= _Myres ? _Bx._Ptr : _Bx._Buf);

  00000	83 79 18 10	 cmp	 DWORD PTR [ecx+24], 16	; 00000010H
  00004	72 04		 jb	 SHORT $L227904
  00006	8b 41 04	 mov	 eax, DWORD PTR [ecx+4]

; 1533 : 		}

  00009	c3		 ret	 0
$L227904:

; 1532 : 		return (_BUF_SIZE <= _Myres ? _Bx._Ptr : _Bx._Buf);

  0000a	8d 41 04	 lea	 eax, DWORD PTR [ecx+4]

; 1533 : 		}

  0000d	c3		 ret	 0
?_Myptr@?$basic_string@DU?$char_traits@D@std@@V?$allocator@D@2@@std@@QAEPADXZ ENDP ; std::basic_string<char,std::char_traits<char>,std::allocator<char> >::_Myptr
_TEXT	ENDS
PUBLIC	?deallocate@?$allocator@D@std@@QAEXPADI@Z	; std::allocator<char>::deallocate
; Function compile flags: /Ogty
; File c:\program files\microsoft visual studio .net 2003\vc7\include\xmemory
;	COMDAT ?deallocate@?$allocator@D@std@@QAEXPADI@Z
_TEXT	SEGMENT
__Ptr$ = 8						; size = 4
___formal$ = 12						; size = 4
?deallocate@?$allocator@D@std@@QAEXPADI@Z PROC NEAR	; std::allocator<char>::deallocate, COMDAT
; _this$ = ecx

; 132  : 		operator delete(_Ptr);

  00000	8b 44 24 04	 mov	 eax, DWORD PTR __Ptr$[esp-4]
  00004	50		 push	 eax
  00005	e8 00 00 00 00	 call	 ??3@YAXPAX@Z		; operator delete
  0000a	59		 pop	 ecx

; 133  : 		}

  0000b	c2 08 00	 ret	 8
?deallocate@?$allocator@D@std@@QAEXPADI@Z ENDP		; std::allocator<char>::deallocate
_TEXT	ENDS
PUBLIC	?_Inside@?$basic_string@DU?$char_traits@D@std@@V?$allocator@D@2@@std@@IAE_NPBD@Z ; std::basic_string<char,std::char_traits<char>,std::allocator<char> >::_Inside
; Function compile flags: /Ogty
; File c:\program files\microsoft visual studio .net 2003\vc7\include\xstring
;	COMDAT ?_Inside@?$basic_string@DU?$char_traits@D@std@@V?$allocator@D@2@@std@@IAE_NPBD@Z
_TEXT	SEGMENT
__Ptr$ = 8						; size = 4
?_Inside@?$basic_string@DU?$char_traits@D@std@@V?$allocator@D@2@@std@@IAE_NPBD@Z PROC NEAR ; std::basic_string<char,std::char_traits<char>,std::allocator<char> >::_Inside, COMDAT
; _this$ = ecx

; 1494 : 		{	// test if _Ptr points inside string

  00000	56		 push	 esi

; 1495 : 		if (_Ptr < _Myptr() || _Myptr() + _Mysize <= _Ptr)

  00001	8b 71 18	 mov	 esi, DWORD PTR [ecx+24]
  00004	83 fe 10	 cmp	 esi, 16			; 00000010H
  00007	57		 push	 edi
  00008	8d 41 04	 lea	 eax, DWORD PTR [ecx+4]
  0000b	72 04		 jb	 SHORT $L227917
  0000d	8b 10		 mov	 edx, DWORD PTR [eax]
  0000f	eb 02		 jmp	 SHORT $L227918
$L227917:
  00011	8b d0		 mov	 edx, eax
$L227918:
  00013	8b 7c 24 0c	 mov	 edi, DWORD PTR __Ptr$[esp+4]
  00017	3b fa		 cmp	 edi, edx
  00019	72 17		 jb	 SHORT $L222788
  0001b	83 fe 10	 cmp	 esi, 16			; 00000010H
  0001e	72 02		 jb	 SHORT $L227925
  00020	8b 00		 mov	 eax, DWORD PTR [eax]
$L227925:
  00022	8b 49 14	 mov	 ecx, DWORD PTR [ecx+20]
  00025	03 c8		 add	 ecx, eax
  00027	3b cf		 cmp	 ecx, edi
  00029	76 07		 jbe	 SHORT $L222788
  0002b	5f		 pop	 edi

; 1497 : 		else
; 1498 : 			return (true);

  0002c	b0 01		 mov	 al, 1
  0002e	5e		 pop	 esi

; 1499 : 		}

  0002f	c2 04 00	 ret	 4
$L222788:
  00032	5f		 pop	 edi

; 1496 : 			return (false);	// don't ask

  00033	32 c0		 xor	 al, al
  00035	5e		 pop	 esi

; 1499 : 		}

  00036	c2 04 00	 ret	 4
?_Inside@?$basic_string@DU?$char_traits@D@std@@V?$allocator@D@2@@std@@IAE_NPBD@Z ENDP ; std::basic_string<char,std::char_traits<char>,std::allocator<char> >::_Inside
_TEXT	ENDS
PUBLIC	?max_size@?$allocator@D@std@@QBEIXZ		; std::allocator<char>::max_size
; Function compile flags: /Ogty
; File c:\program files\microsoft visual studio .net 2003\vc7\include\xmemory
;	COMDAT ?max_size@?$allocator@D@std@@QBEIXZ
_TEXT	SEGMENT
?max_size@?$allocator@D@std@@QBEIXZ PROC NEAR		; std::allocator<char>::max_size, COMDAT
; _this$ = ecx

; 157  : 		_SIZT _Count = (_SIZT)(-1) / sizeof (_Ty);
; 158  : 		return (0 < _Count ? _Count : 1);

  00000	83 c8 ff	 or	 eax, -1

; 159  : 		}

  00003	c3		 ret	 0
?max_size@?$allocator@D@std@@QBEIXZ ENDP		; std::allocator<char>::max_size
_TEXT	ENDS
PUBLIC	??$_Allocate@D@std@@YAPADIPAD@Z			; std::_Allocate<char>
; Function compile flags: /Ogty
;	COMDAT ??$_Allocate@D@std@@YAPADIPAD@Z
_TEXT	SEGMENT
__Count$ = 8						; size = 4
___formal$ = 12						; size = 4
??$_Allocate@D@std@@YAPADIPAD@Z PROC NEAR		; std::_Allocate<char>, COMDAT

; 34   : 	return ((_Ty _FARQ *)operator new(_Count * sizeof (_Ty)));

  00000	8b 44 24 04	 mov	 eax, DWORD PTR __Count$[esp-4]
  00004	50		 push	 eax
  00005	e8 00 00 00 00	 call	 ??2@YAPAXI@Z		; operator new
  0000a	83 c4 04	 add	 esp, 4

; 35   : 	}

  0000d	c3		 ret	 0
??$_Allocate@D@std@@YAPADIPAD@Z ENDP			; std::_Allocate<char>
_TEXT	ENDS
PUBLIC	??0iterator@?$vector@UWANTED_ENTRY@@V?$allocator@UWANTED_ENTRY@@@std@@@std@@QAE@XZ ; std::vector<WANTED_ENTRY,std::allocator<WANTED_ENTRY> >::iterator::iterator
; Function compile flags: /Ogty
; File c:\program files\microsoft visual studio .net 2003\vc7\include\vector
;	COMDAT ??0iterator@?$vector@UWANTED_ENTRY@@V?$allocator@UWANTED_ENTRY@@@std@@@std@@QAE@XZ
_TEXT	SEGMENT
??0iterator@?$vector@UWANTED_ENTRY@@V?$allocator@UWANTED_ENTRY@@@std@@@std@@QAE@XZ PROC NEAR ; std::vector<WANTED_ENTRY,std::allocator<WANTED_ENTRY> >::iterator::iterator, COMDAT
; _this$ = ecx

; 209  : 		iterator()

  00000	8b c1		 mov	 eax, ecx
  00002	c7 00 00 00 00
	00		 mov	 DWORD PTR [eax], 0

; 210  : 			{	// construct with null vector pointer
; 211  : 			}

  00008	c3		 ret	 0
??0iterator@?$vector@UWANTED_ENTRY@@V?$allocator@UWANTED_ENTRY@@@std@@@std@@QAE@XZ ENDP ; std::vector<WANTED_ENTRY,std::allocator<WANTED_ENTRY> >::iterator::iterator
_TEXT	ENDS
PUBLIC	??Diterator@?$vector@UWANTED_ENTRY@@V?$allocator@UWANTED_ENTRY@@@std@@@std@@QBEAAUWANTED_ENTRY@@XZ ; std::vector<WANTED_ENTRY,std::allocator<WANTED_ENTRY> >::iterator::operator*
; Function compile flags: /Ogty
;	COMDAT ??Diterator@?$vector@UWANTED_ENTRY@@V?$allocator@UWANTED_ENTRY@@@std@@@std@@QBEAAUWANTED_ENTRY@@XZ
_TEXT	SEGMENT
??Diterator@?$vector@UWANTED_ENTRY@@V?$allocator@UWANTED_ENTRY@@@std@@@std@@QBEAAUWANTED_ENTRY@@XZ PROC NEAR ; std::vector<WANTED_ENTRY,std::allocator<WANTED_ENTRY> >::iterator::operator*, COMDAT
; _this$ = ecx

; 220  : 			return ((reference)**(const_iterator *)this);

  00000	8b 01		 mov	 eax, DWORD PTR [ecx]

; 221  : 			}

  00002	c3		 ret	 0
??Diterator@?$vector@UWANTED_ENTRY@@V?$allocator@UWANTED_ENTRY@@@std@@@std@@QBEAAUWANTED_ENTRY@@XZ ENDP ; std::vector<WANTED_ENTRY,std::allocator<WANTED_ENTRY> >::iterator::operator*
_TEXT	ENDS
PUBLIC	??9const_iterator@?$vector@UWANTED_ENTRY@@V?$allocator@UWANTED_ENTRY@@@std@@@std@@QBE_NABV012@@Z ; std::vector<WANTED_ENTRY,std::allocator<WANTED_ENTRY> >::const_iterator::operator!=
; Function compile flags: /Ogty
;	COMDAT ??9const_iterator@?$vector@UWANTED_ENTRY@@V?$allocator@UWANTED_ENTRY@@@std@@@std@@QBE_NABV012@@Z
_TEXT	SEGMENT
__Right$ = 8						; size = 4
??9const_iterator@?$vector@UWANTED_ENTRY@@V?$allocator@UWANTED_ENTRY@@@std@@@std@@QBE_NABV012@@Z PROC NEAR ; std::vector<WANTED_ENTRY,std::allocator<WANTED_ENTRY> >::const_iterator::operator!=, COMDAT
; _this$ = ecx

; 160  : 			return (!(*this == _Right));

  00000	8b 01		 mov	 eax, DWORD PTR [ecx]
  00002	8b 54 24 04	 mov	 edx, DWORD PTR __Right$[esp-4]
  00006	56		 push	 esi
  00007	8b 32		 mov	 esi, DWORD PTR [edx]
  00009	33 c9		 xor	 ecx, ecx
  0000b	3b c6		 cmp	 eax, esi
  0000d	0f 95 c1	 setne	 cl
  00010	8a c1		 mov	 al, cl
  00012	5e		 pop	 esi

; 161  : 			}

  00013	c2 04 00	 ret	 4
??9const_iterator@?$vector@UWANTED_ENTRY@@V?$allocator@UWANTED_ENTRY@@@std@@@std@@QBE_NABV012@@Z ENDP ; std::vector<WANTED_ENTRY,std::allocator<WANTED_ENTRY> >::const_iterator::operator!=
_TEXT	ENDS
PUBLIC	??0?$_Vector_val@UWANTED_ENTRY@@V?$allocator@UWANTED_ENTRY@@@std@@@std@@IAE@V?$allocator@UWANTED_ENTRY@@@1@@Z ; std::_Vector_val<WANTED_ENTRY,std::allocator<WANTED_ENTRY> >::_Vector_val<WANTED_ENTRY,std::allocator<WANTED_ENTRY> >
; Function compile flags: /Ogty
;	COMDAT ??0?$_Vector_val@UWANTED_ENTRY@@V?$allocator@UWANTED_ENTRY@@@std@@@std@@IAE@V?$allocator@UWANTED_ENTRY@@@1@@Z
_TEXT	SEGMENT
__Al$ = 8						; size = 1
??0?$_Vector_val@UWANTED_ENTRY@@V?$allocator@UWANTED_ENTRY@@@std@@@std@@IAE@V?$allocator@UWANTED_ENTRY@@@1@@Z PROC NEAR ; std::_Vector_val<WANTED_ENTRY,std::allocator<WANTED_ENTRY> >::_Vector_val<WANTED_ENTRY,std::allocator<WANTED_ENTRY> >, COMDAT
; _this$ = ecx

; 21   : 		{	// construct allocator from _Al

  00000	8b c1		 mov	 eax, ecx

; 22   : 		}

  00002	c2 04 00	 ret	 4
??0?$_Vector_val@UWANTED_ENTRY@@V?$allocator@UWANTED_ENTRY@@@std@@@std@@IAE@V?$allocator@UWANTED_ENTRY@@@1@@Z ENDP ; std::_Vector_val<WANTED_ENTRY,std::allocator<WANTED_ENTRY> >::_Vector_val<WANTED_ENTRY,std::allocator<WANTED_ENTRY> >
_TEXT	ENDS
PUBLIC	??0iterator@?$vector@UWANTED_ENTRY@@V?$allocator@UWANTED_ENTRY@@@std@@@std@@QAE@PAUWANTED_ENTRY@@@Z ; std::vector<WANTED_ENTRY,std::allocator<WANTED_ENTRY> >::iterator::iterator
; Function compile flags: /Ogty
;	COMDAT ??0iterator@?$vector@UWANTED_ENTRY@@V?$allocator@UWANTED_ENTRY@@@std@@@std@@QAE@PAUWANTED_ENTRY@@@Z
_TEXT	SEGMENT
__Ptr$ = 8						; size = 4
??0iterator@?$vector@UWANTED_ENTRY@@V?$allocator@UWANTED_ENTRY@@@std@@@std@@QAE@PAUWANTED_ENTRY@@@Z PROC NEAR ; std::vector<WANTED_ENTRY,std::allocator<WANTED_ENTRY> >::iterator::iterator, COMDAT
; _this$ = ecx

; 215  : 			{	// construct with pointer _Ptr

  00000	8b c1		 mov	 eax, ecx
  00002	8b 4c 24 04	 mov	 ecx, DWORD PTR __Ptr$[esp-4]
  00006	89 08		 mov	 DWORD PTR [eax], ecx

; 216  : 			}

  00008	c2 04 00	 ret	 4
??0iterator@?$vector@UWANTED_ENTRY@@V?$allocator@UWANTED_ENTRY@@@std@@@std@@QAE@PAUWANTED_ENTRY@@@Z ENDP ; std::vector<WANTED_ENTRY,std::allocator<WANTED_ENTRY> >::iterator::iterator
_TEXT	ENDS
PUBLIC	??Hiterator@?$vector@UWANTED_ENTRY@@V?$allocator@UWANTED_ENTRY@@@std@@@std@@QBE?AV012@H@Z ; std::vector<WANTED_ENTRY,std::allocator<WANTED_ENTRY> >::iterator::operator+
; Function compile flags: /Ogty
;	COMDAT ??Hiterator@?$vector@UWANTED_ENTRY@@V?$allocator@UWANTED_ENTRY@@@std@@@std@@QBE?AV012@H@Z
_TEXT	SEGMENT
___$ReturnUdt$ = 8					; size = 4
__Off$ = 12						; size = 4
??Hiterator@?$vector@UWANTED_ENTRY@@V?$allocator@UWANTED_ENTRY@@@std@@@std@@QBE?AV012@H@Z PROC NEAR ; std::vector<WANTED_ENTRY,std::allocator<WANTED_ENTRY> >::iterator::operator+, COMDAT
; _this$ = ecx

; 262  : 			iterator _Tmp = *this;
; 263  : 			return (_Tmp += _Off);

  00000	8b 54 24 08	 mov	 edx, DWORD PTR __Off$[esp-4]
  00004	8b 01		 mov	 eax, DWORD PTR [ecx]
  00006	6b d2 68	 imul	 edx, 104		; 00000068H
  00009	03 d0		 add	 edx, eax
  0000b	8b 44 24 04	 mov	 eax, DWORD PTR ___$ReturnUdt$[esp-4]
  0000f	89 10		 mov	 DWORD PTR [eax], edx

; 264  : 			}

  00011	c2 08 00	 ret	 8
??Hiterator@?$vector@UWANTED_ENTRY@@V?$allocator@UWANTED_ENTRY@@@std@@@std@@QBE?AV012@H@Z ENDP ; std::vector<WANTED_ENTRY,std::allocator<WANTED_ENTRY> >::iterator::operator+
_TEXT	ENDS
PUBLIC	?max_size@?$vector@UWANTED_ENTRY@@V?$allocator@UWANTED_ENTRY@@@std@@@std@@QBEIXZ ; std::vector<WANTED_ENTRY,std::allocator<WANTED_ENTRY> >::max_size
; Function compile flags: /Ogty
;	COMDAT ?max_size@?$vector@UWANTED_ENTRY@@V?$allocator@UWANTED_ENTRY@@@std@@@std@@QBEIXZ
_TEXT	SEGMENT
?max_size@?$vector@UWANTED_ENTRY@@V?$allocator@UWANTED_ENTRY@@@std@@@std@@QBEIXZ PROC NEAR ; std::vector<WANTED_ENTRY,std::allocator<WANTED_ENTRY> >::max_size, COMDAT
; _this$ = ecx

; 521  : 		return (this->_Alval.max_size());

  00000	b8 62 27 76 02	 mov	 eax, 41297762		; 02762762H

; 522  : 		}

  00005	c3		 ret	 0
?max_size@?$vector@UWANTED_ENTRY@@V?$allocator@UWANTED_ENTRY@@@std@@@std@@QBEIXZ ENDP ; std::vector<WANTED_ENTRY,std::allocator<WANTED_ENTRY> >::max_size
_TEXT	ENDS
PUBLIC	?allocate@?$allocator@UWANTED_ENTRY@@@std@@QAEPAUWANTED_ENTRY@@I@Z ; std::allocator<WANTED_ENTRY>::allocate
; Function compile flags: /Ogty
; File c:\program files\microsoft visual studio .net 2003\vc7\include\xmemory
;	COMDAT ?allocate@?$allocator@UWANTED_ENTRY@@@std@@QAEPAUWANTED_ENTRY@@I@Z
_TEXT	SEGMENT
__Count$ = 8						; size = 4
?allocate@?$allocator@UWANTED_ENTRY@@@std@@QAEPAUWANTED_ENTRY@@I@Z PROC NEAR ; std::allocator<WANTED_ENTRY>::allocate, COMDAT
; _this$ = ecx

; 137  : 		return (_Allocate(_Count, (pointer)0));

  00000	8b 44 24 04	 mov	 eax, DWORD PTR __Count$[esp-4]
  00004	6b c0 68	 imul	 eax, 104		; 00000068H
  00007	50		 push	 eax
  00008	e8 00 00 00 00	 call	 ??2@YAPAXI@Z		; operator new
  0000d	83 c4 04	 add	 esp, 4

; 138  : 		}

  00010	c2 04 00	 ret	 4
?allocate@?$allocator@UWANTED_ENTRY@@@std@@QAEPAUWANTED_ENTRY@@I@Z ENDP ; std::allocator<WANTED_ENTRY>::allocate
_TEXT	ENDS
PUBLIC	??Giterator@?$vector@UWANTED_ENTRY@@V?$allocator@UWANTED_ENTRY@@@std@@@std@@QBEHABVconst_iterator@12@@Z ; std::vector<WANTED_ENTRY,std::allocator<WANTED_ENTRY> >::iterator::operator-
; Function compile flags: /Ogty
; File c:\program files\microsoft visual studio .net 2003\vc7\include\vector
;	COMDAT ??Giterator@?$vector@UWANTED_ENTRY@@V?$allocator@UWANTED_ENTRY@@@std@@@std@@QBEHABVconst_iterator@12@@Z
_TEXT	SEGMENT
__Right$ = 8						; size = 4
??Giterator@?$vector@UWANTED_ENTRY@@V?$allocator@UWANTED_ENTRY@@@std@@@std@@QBEHABVconst_iterator@12@@Z PROC NEAR ; std::vector<WANTED_ENTRY,std::allocator<WANTED_ENTRY> >::iterator::operator-, COMDAT
; _this$ = ecx

; 279  : 			return ((const_iterator)*this - _Right);

  00000	8b 01		 mov	 eax, DWORD PTR [ecx]
  00002	8b 4c 24 04	 mov	 ecx, DWORD PTR __Right$[esp-4]
  00006	2b 01		 sub	 eax, DWORD PTR [ecx]
  00008	8b c8		 mov	 ecx, eax
  0000a	b8 4f ec c4 4e	 mov	 eax, 1321528399		; 4ec4ec4fH
  0000f	f7 e9		 imul	 ecx
  00011	c1 fa 05	 sar	 edx, 5
  00014	8b c2		 mov	 eax, edx
  00016	c1 e8 1f	 shr	 eax, 31			; 0000001fH
  00019	03 c2		 add	 eax, edx

; 280  : 			}

  0001b	c2 04 00	 ret	 4
??Giterator@?$vector@UWANTED_ENTRY@@V?$allocator@UWANTED_ENTRY@@@std@@@std@@QBEHABVconst_iterator@12@@Z ENDP ; std::vector<WANTED_ENTRY,std::allocator<WANTED_ENTRY> >::iterator::operator-
_TEXT	ENDS
PUBLIC	??$copy_backward@PAUWANTED_ENTRY@@PAU1@@std@@YAPAUWANTED_ENTRY@@PAU1@00@Z ; std::copy_backward<WANTED_ENTRY *,WANTED_ENTRY *>
; Function compile flags: /Ogty
; File c:\program files\microsoft visual studio .net 2003\vc7\include\xutility
;	COMDAT ??$copy_backward@PAUWANTED_ENTRY@@PAU1@@std@@YAPAUWANTED_ENTRY@@PAU1@00@Z
_TEXT	SEGMENT
__First$ = 8						; size = 4
__Last$ = 12						; size = 4
__Dest$ = 16						; size = 4
??$copy_backward@PAUWANTED_ENTRY@@PAU1@@std@@YAPAUWANTED_ENTRY@@PAU1@00@Z PROC NEAR ; std::copy_backward<WANTED_ENTRY *,WANTED_ENTRY *>, COMDAT

; 1068 : 	return (_Copy_backward_opt(_First, _Last, _Dest,
; 1069 : 		_Ptr_cat(_First, _Dest)));

  00000	8b 54 24 08	 mov	 edx, DWORD PTR __Last$[esp-4]
  00004	8b 44 24 0c	 mov	 eax, DWORD PTR __Dest$[esp-4]
  00008	53		 push	 ebx
  00009	8b 5c 24 08	 mov	 ebx, DWORD PTR __First$[esp]
  0000d	3b da		 cmp	 ebx, edx
  0000f	74 19		 je	 SHORT $L228007
  00011	56		 push	 esi
  00012	57		 push	 edi
$L228006:
  00013	83 ea 68	 sub	 edx, 104		; 00000068H
  00016	83 e8 68	 sub	 eax, 104		; 00000068H
  00019	3b d3		 cmp	 edx, ebx
  0001b	b9 1a 00 00 00	 mov	 ecx, 26			; 0000001aH
  00020	8b f2		 mov	 esi, edx
  00022	8b f8		 mov	 edi, eax
  00024	f3 a5		 rep movsd
  00026	75 eb		 jne	 SHORT $L228006
  00028	5f		 pop	 edi
  00029	5e		 pop	 esi
$L228007:
  0002a	5b		 pop	 ebx

; 1070 : 	}

  0002b	c3		 ret	 0
??$copy_backward@PAUWANTED_ENTRY@@PAU1@@std@@YAPAUWANTED_ENTRY@@PAU1@00@Z ENDP ; std::copy_backward<WANTED_ENTRY *,WANTED_ENTRY *>
_TEXT	ENDS
PUBLIC	?construct@?$allocator@UWANTED_ENTRY@@@std@@QAEXPAUWANTED_ENTRY@@ABU3@@Z ; std::allocator<WANTED_ENTRY>::construct
; Function compile flags: /Ogty
; File c:\program files\microsoft visual studio .net 2003\vc7\include\xmemory
;	COMDAT ?construct@?$allocator@UWANTED_ENTRY@@@std@@QAEXPAUWANTED_ENTRY@@ABU3@@Z
_TEXT	SEGMENT
__Ptr$ = 8						; size = 4
__Val$ = 12						; size = 4
?construct@?$allocator@UWANTED_ENTRY@@@std@@QAEXPAUWANTED_ENTRY@@ABU3@@Z PROC NEAR ; std::allocator<WANTED_ENTRY>::construct, COMDAT
; _this$ = ecx

; 146  : 		{	// construct object at _Ptr with value _Val

  00000	57		 push	 edi

; 147  : 		_Construct(_Ptr, _Val);

  00001	8b 7c 24 08	 mov	 edi, DWORD PTR __Ptr$[esp]
  00005	85 ff		 test	 edi, edi
  00007	74 0d		 je	 SHORT $L228026
  00009	56		 push	 esi
  0000a	8b 74 24 10	 mov	 esi, DWORD PTR __Val$[esp+4]
  0000e	b9 1a 00 00 00	 mov	 ecx, 26			; 0000001aH
  00013	f3 a5		 rep movsd
  00015	5e		 pop	 esi
$L228026:
  00016	5f		 pop	 edi

; 148  : 		}

  00017	c2 08 00	 ret	 8
?construct@?$allocator@UWANTED_ENTRY@@@std@@QAEXPAUWANTED_ENTRY@@ABU3@@Z ENDP ; std::allocator<WANTED_ENTRY>::construct
_TEXT	ENDS
PUBLIC	?destroy@?$allocator@UWANTED_ENTRY@@@std@@QAEXPAUWANTED_ENTRY@@@Z ; std::allocator<WANTED_ENTRY>::destroy
; Function compile flags: /Ogty
;	COMDAT ?destroy@?$allocator@UWANTED_ENTRY@@@std@@QAEXPAUWANTED_ENTRY@@@Z
_TEXT	SEGMENT
__Ptr$ = 8						; size = 4
?destroy@?$allocator@UWANTED_ENTRY@@@std@@QAEXPAUWANTED_ENTRY@@@Z PROC NEAR ; std::allocator<WANTED_ENTRY>::destroy, COMDAT
; _this$ = ecx

; 152  : 		_Destroy(_Ptr);
; 153  : 		}

  00000	c2 04 00	 ret	 4
?destroy@?$allocator@UWANTED_ENTRY@@@std@@QAEXPAUWANTED_ENTRY@@@Z ENDP ; std::allocator<WANTED_ENTRY>::destroy
_TEXT	ENDS
PUBLIC	??$_Uninit_copy@PAUWANTED_ENTRY@@PAU1@V?$allocator@UWANTED_ENTRY@@@std@@@std@@YAPAUWANTED_ENTRY@@PAU1@00AAV?$allocator@UWANTED_ENTRY@@@0@U_Nonscalar_ptr_iterator_tag@0@@Z ; std::_Uninit_copy<WANTED_ENTRY *,WANTED_ENTRY *,std::allocator<WANTED_ENTRY> >
EXTRN	__CxxThrowException@8:NEAR
; Function compile flags: /Ogty
; File c:\program files\microsoft visual studio .net 2003\vc7\include\memory
;	COMDAT ??$_Uninit_copy@PAUWANTED_ENTRY@@PAU1@V?$allocator@UWANTED_ENTRY@@@std@@@std@@YAPAUWANTED_ENTRY@@PAU1@00AAV?$allocator@UWANTED_ENTRY@@@0@U_Nonscalar_ptr_iterator_tag@0@@Z
_TEXT	SEGMENT
__First$ = 8						; size = 4
__Last$ = 12						; size = 4
__Dest$ = 16						; size = 4
__Al$ = 20						; size = 4
___formal$ = 24						; size = 1
??$_Uninit_copy@PAUWANTED_ENTRY@@PAU1@V?$allocator@UWANTED_ENTRY@@@std@@@std@@YAPAUWANTED_ENTRY@@PAU1@00AAV?$allocator@UWANTED_ENTRY@@@0@U_Nonscalar_ptr_iterator_tag@0@@Z PROC NEAR ; std::_Uninit_copy<WANTED_ENTRY *,WANTED_ENTRY *,std::allocator<WANTED_ENTRY> >, COMDAT

; 78   : 	_FwdIt _Next = _Dest;
; 79   : 
; 80   : 	_TRY_BEGIN
; 81   : 	for (; _First != _Last; ++_Dest, ++_First)

  00000	8b 54 24 04	 mov	 edx, DWORD PTR __First$[esp-4]
  00004	8b 44 24 0c	 mov	 eax, DWORD PTR __Dest$[esp-4]
  00008	53		 push	 ebx
  00009	8b 5c 24 0c	 mov	 ebx, DWORD PTR __Last$[esp]
  0000d	3b d3		 cmp	 edx, ebx
  0000f	74 1d		 je	 SHORT $L227225
  00011	56		 push	 esi
  00012	57		 push	 edi
$L227223:

; 82   : 		_Al.construct(_Dest, *_First);

  00013	85 c0		 test	 eax, eax
  00015	74 0b		 je	 SHORT $L227224
  00017	b9 1a 00 00 00	 mov	 ecx, 26			; 0000001aH
  0001c	8b f2		 mov	 esi, edx
  0001e	8b f8		 mov	 edi, eax
  00020	f3 a5		 rep movsd
$L227224:
  00022	83 c2 68	 add	 edx, 104		; 00000068H
  00025	83 c0 68	 add	 eax, 104		; 00000068H
  00028	3b d3		 cmp	 edx, ebx
  0002a	75 e7		 jne	 SHORT $L227223
  0002c	5f		 pop	 edi
  0002d	5e		 pop	 esi
$L227225:
  0002e	5b		 pop	 ebx

; 83   : 	_CATCH_ALL
; 84   : 	for (; _Next != _Dest; ++_Next)
; 85   : 		_Al.destroy(_Next);
; 86   : 	_RERAISE;
; 87   : 	_CATCH_END
; 88   : 	return (_Dest);
; 89   : 	}

  0002f	c3		 ret	 0
??$_Uninit_copy@PAUWANTED_ENTRY@@PAU1@V?$allocator@UWANTED_ENTRY@@@std@@@std@@YAPAUWANTED_ENTRY@@PAU1@00AAV?$allocator@UWANTED_ENTRY@@@0@U_Nonscalar_ptr_iterator_tag@0@@Z ENDP ; std::_Uninit_copy<WANTED_ENTRY *,WANTED_ENTRY *,std::allocator<WANTED_ENTRY> >
_TEXT	ENDS
PUBLIC	??6CAr@@QAEAAV0@H@Z				; CAr::operator<<
; Function compile flags: /Ogty
; File c:\documents and settings\test\mes documents\source\virtuos_v17\build\program\_network\misc\include\ar.h
;	COMDAT ??6CAr@@QAEAAV0@H@Z
_TEXT	SEGMENT
_i$ = 8							; size = 4
??6CAr@@QAEAAV0@H@Z PROC NEAR				; CAr::operator<<, COMDAT
; _this$ = ecx

; 99   : 	{ return CAr::operator<<((LONG)i); }

  00000	56		 push	 esi
  00001	6a 04		 push	 4
  00003	8b f1		 mov	 esi, ecx
  00005	e8 00 00 00 00	 call	 ?CheckBuf@CAr@@QAEXI@Z	; CAr::CheckBuf
  0000a	8b 46 08	 mov	 eax, DWORD PTR [esi+8]
  0000d	8b 4c 24 08	 mov	 ecx, DWORD PTR _i$[esp]
  00011	89 08		 mov	 DWORD PTR [eax], ecx
  00013	83 46 08 04	 add	 DWORD PTR [esi+8], 4
  00017	8b c6		 mov	 eax, esi
  00019	5e		 pop	 esi
  0001a	c2 04 00	 ret	 4
??6CAr@@QAEAAV0@H@Z ENDP				; CAr::operator<<
_TEXT	ENDS
PUBLIC	??5CAr@@QAEAAV0@AAH@Z				; CAr::operator>>
; Function compile flags: /Ogty
;	COMDAT ??5CAr@@QAEAAV0@AAH@Z
_TEXT	SEGMENT
_i$ = 8							; size = 4
??5CAr@@QAEAAV0@AAH@Z PROC NEAR				; CAr::operator>>, COMDAT
; _this$ = ecx

; 126  : 	{ return CAr::operator>>((LONG&)i); }

  00000	8b c1		 mov	 eax, ecx
  00002	8b 48 08	 mov	 ecx, DWORD PTR [eax+8]
  00005	56		 push	 esi
  00006	8b 70 0c	 mov	 esi, DWORD PTR [eax+12]
  00009	8d 51 04	 lea	 edx, DWORD PTR [ecx+4]
  0000c	3b d6		 cmp	 edx, esi
  0000e	5e		 pop	 esi
  0000f	77 0f		 ja	 SHORT $L228085
  00011	8b 09		 mov	 ecx, DWORD PTR [ecx]
  00013	8b 54 24 04	 mov	 edx, DWORD PTR _i$[esp-4]
  00017	89 0a		 mov	 DWORD PTR [edx], ecx
  00019	83 40 08 04	 add	 DWORD PTR [eax+8], 4
  0001d	c2 04 00	 ret	 4
$L228085:
  00020	8b 4c 24 04	 mov	 ecx, DWORD PTR _i$[esp-4]
  00024	c7 01 00 00 00
	00		 mov	 DWORD PTR [ecx], 0
  0002a	8b 50 0c	 mov	 edx, DWORD PTR [eax+12]
  0002d	89 50 08	 mov	 DWORD PTR [eax+8], edx
  00030	c2 04 00	 ret	 4
??5CAr@@QAEAAV0@AAH@Z ENDP				; CAr::operator>>
_TEXT	ENDS
PUBLIC	??0?$_String_val@DV?$allocator@D@std@@@std@@IAE@V?$allocator@D@1@@Z ; std::_String_val<char,std::allocator<char> >::_String_val<char,std::allocator<char> >
; Function compile flags: /Ogty
; File c:\program files\microsoft visual studio .net 2003\vc7\include\xstring
;	COMDAT ??0?$_String_val@DV?$allocator@D@std@@@std@@IAE@V?$allocator@D@1@@Z
_TEXT	SEGMENT
__Al$ = 8						; size = 1
??0?$_String_val@DV?$allocator@D@std@@@std@@IAE@V?$allocator@D@1@@Z PROC NEAR ; std::_String_val<char,std::allocator<char> >::_String_val<char,std::allocator<char> >, COMDAT
; _this$ = ecx

; 34   : 		{	// construct allocator from _Al

  00000	8b c1		 mov	 eax, ecx

; 35   : 		}

  00002	c2 04 00	 ret	 4
??0?$_String_val@DV?$allocator@D@std@@@std@@IAE@V?$allocator@D@1@@Z ENDP ; std::_String_val<char,std::allocator<char> >::_String_val<char,std::allocator<char> >
_TEXT	ENDS
PUBLIC	?_Eos@?$basic_string@DU?$char_traits@D@std@@V?$allocator@D@2@@std@@IAEXI@Z ; std::basic_string<char,std::char_traits<char>,std::allocator<char> >::_Eos
; Function compile flags: /Ogty
;	COMDAT ?_Eos@?$basic_string@DU?$char_traits@D@std@@V?$allocator@D@2@@std@@IAEXI@Z
_TEXT	SEGMENT
__Newsize$ = 8						; size = 4
?_Eos@?$basic_string@DU?$char_traits@D@std@@V?$allocator@D@2@@std@@IAEXI@Z PROC NEAR ; std::basic_string<char,std::char_traits<char>,std::allocator<char> >::_Eos, COMDAT
; _this$ = ecx

; 1475 : 		_Traits::assign(_Myptr()[_Mysize = _Newsize], _Elem());

  00000	83 79 18 10	 cmp	 DWORD PTR [ecx+24], 16	; 00000010H
  00004	8b 44 24 04	 mov	 eax, DWORD PTR __Newsize$[esp-4]
  00008	89 41 14	 mov	 DWORD PTR [ecx+20], eax
  0000b	72 0a		 jb	 SHORT $L228103
  0000d	8b 49 04	 mov	 ecx, DWORD PTR [ecx+4]
  00010	c6 04 01 00	 mov	 BYTE PTR [ecx+eax], 0

; 1476 : 		}

  00014	c2 04 00	 ret	 4

; 1475 : 		_Traits::assign(_Myptr()[_Mysize = _Newsize], _Elem());

$L228103:
  00017	c6 44 01 04 00	 mov	 BYTE PTR [ecx+eax+4], 0

; 1476 : 		}

  0001c	c2 04 00	 ret	 4
?_Eos@?$basic_string@DU?$char_traits@D@std@@V?$allocator@D@2@@std@@IAEXI@Z ENDP ; std::basic_string<char,std::char_traits<char>,std::allocator<char> >::_Eos
_TEXT	ENDS
PUBLIC	?max_size@?$basic_string@DU?$char_traits@D@std@@V?$allocator@D@2@@std@@QBEIXZ ; std::basic_string<char,std::char_traits<char>,std::allocator<char> >::max_size
; Function compile flags: /Ogty
;	COMDAT ?max_size@?$basic_string@DU?$char_traits@D@std@@V?$allocator@D@2@@std@@QBEIXZ
_TEXT	SEGMENT
?max_size@?$basic_string@DU?$char_traits@D@std@@V?$allocator@D@2@@std@@QBEIXZ PROC NEAR ; std::basic_string<char,std::char_traits<char>,std::allocator<char> >::max_size, COMDAT
; _this$ = ecx

; 1114 : 		size_type _Num = _Mybase::_Alval.max_size();
; 1115 : 		return (_Num <= 1 ? 1 : _Num - 1);

  00000	b8 fe ff ff ff	 mov	 eax, -2			; fffffffeH

; 1116 : 		}

  00005	c3		 ret	 0
?max_size@?$basic_string@DU?$char_traits@D@std@@V?$allocator@D@2@@std@@QBEIXZ ENDP ; std::basic_string<char,std::char_traits<char>,std::allocator<char> >::max_size
_TEXT	ENDS
PUBLIC	?allocate@?$allocator@D@std@@QAEPADI@Z		; std::allocator<char>::allocate
; Function compile flags: /Ogty
; File c:\program files\microsoft visual studio .net 2003\vc7\include\xmemory
;	COMDAT ?allocate@?$allocator@D@std@@QAEPADI@Z
_TEXT	SEGMENT
__Count$ = 8						; size = 4
?allocate@?$allocator@D@std@@QAEPADI@Z PROC NEAR	; std::allocator<char>::allocate, COMDAT
; _this$ = ecx

; 137  : 		return (_Allocate(_Count, (pointer)0));

  00000	8b 44 24 04	 mov	 eax, DWORD PTR __Count$[esp-4]
  00004	50		 push	 eax
  00005	e8 00 00 00 00	 call	 ??2@YAPAXI@Z		; operator new
  0000a	83 c4 04	 add	 esp, 4

; 138  : 		}

  0000d	c2 04 00	 ret	 4
?allocate@?$allocator@D@std@@QAEPADI@Z ENDP		; std::allocator<char>::allocate
_TEXT	ENDS
PUBLIC	?begin@?$vector@UWANTED_ENTRY@@V?$allocator@UWANTED_ENTRY@@@std@@@std@@QAE?AViterator@12@XZ ; std::vector<WANTED_ENTRY,std::allocator<WANTED_ENTRY> >::begin
; Function compile flags: /Ogty
; File c:\program files\microsoft visual studio .net 2003\vc7\include\vector
;	COMDAT ?begin@?$vector@UWANTED_ENTRY@@V?$allocator@UWANTED_ENTRY@@@std@@@std@@QAE?AViterator@12@XZ
_TEXT	SEGMENT
___$ReturnUdt$ = 8					; size = 4
?begin@?$vector@UWANTED_ENTRY@@V?$allocator@UWANTED_ENTRY@@@std@@@std@@QAE?AViterator@12@XZ PROC NEAR ; std::vector<WANTED_ENTRY,std::allocator<WANTED_ENTRY> >::begin, COMDAT
; _this$ = ecx

; 463  : 		return (iterator(_Myfirst));

  00000	8b 49 04	 mov	 ecx, DWORD PTR [ecx+4]
  00003	8b 44 24 04	 mov	 eax, DWORD PTR ___$ReturnUdt$[esp-4]
  00007	89 08		 mov	 DWORD PTR [eax], ecx

; 464  : 		}

  00009	c2 04 00	 ret	 4
?begin@?$vector@UWANTED_ENTRY@@V?$allocator@UWANTED_ENTRY@@@std@@@std@@QAE?AViterator@12@XZ ENDP ; std::vector<WANTED_ENTRY,std::allocator<WANTED_ENTRY> >::begin
_TEXT	ENDS
PUBLIC	?end@?$vector@UWANTED_ENTRY@@V?$allocator@UWANTED_ENTRY@@@std@@@std@@QAE?AViterator@12@XZ ; std::vector<WANTED_ENTRY,std::allocator<WANTED_ENTRY> >::end
; Function compile flags: /Ogty
;	COMDAT ?end@?$vector@UWANTED_ENTRY@@V?$allocator@UWANTED_ENTRY@@@std@@@std@@QAE?AViterator@12@XZ
_TEXT	SEGMENT
___$ReturnUdt$ = 8					; size = 4
?end@?$vector@UWANTED_ENTRY@@V?$allocator@UWANTED_ENTRY@@@std@@@std@@QAE?AViterator@12@XZ PROC NEAR ; std::vector<WANTED_ENTRY,std::allocator<WANTED_ENTRY> >::end, COMDAT
; _this$ = ecx

; 473  : 		return (iterator(_Mylast));

  00000	8b 49 08	 mov	 ecx, DWORD PTR [ecx+8]
  00003	8b 44 24 04	 mov	 eax, DWORD PTR ___$ReturnUdt$[esp-4]
  00007	89 08		 mov	 DWORD PTR [eax], ecx

; 474  : 		}

  00009	c2 04 00	 ret	 4
?end@?$vector@UWANTED_ENTRY@@V?$allocator@UWANTED_ENTRY@@@std@@@std@@QAE?AViterator@12@XZ ENDP ; std::vector<WANTED_ENTRY,std::allocator<WANTED_ENTRY> >::end
_TEXT	ENDS
PUBLIC	??A?$vector@UWANTED_ENTRY@@V?$allocator@UWANTED_ENTRY@@@std@@@std@@QAEAAUWANTED_ENTRY@@I@Z ; std::vector<WANTED_ENTRY,std::allocator<WANTED_ENTRY> >::operator[]
; Function compile flags: /Ogty
;	COMDAT ??A?$vector@UWANTED_ENTRY@@V?$allocator@UWANTED_ENTRY@@@std@@@std@@QAEAAUWANTED_ENTRY@@I@Z
_TEXT	SEGMENT
__Pos$ = 8						; size = 4
??A?$vector@UWANTED_ENTRY@@V?$allocator@UWANTED_ENTRY@@@std@@@std@@QAEAAUWANTED_ENTRY@@I@Z PROC NEAR ; std::vector<WANTED_ENTRY,std::allocator<WANTED_ENTRY> >::operator[], COMDAT
; _this$ = ecx

; 555  : 		return (*(begin() + _Pos));

  00000	8b 44 24 04	 mov	 eax, DWORD PTR __Pos$[esp-4]
  00004	8b 51 04	 mov	 edx, DWORD PTR [ecx+4]
  00007	6b c0 68	 imul	 eax, 104		; 00000068H
  0000a	03 c2		 add	 eax, edx

; 556  : 		}

  0000c	c2 04 00	 ret	 4
??A?$vector@UWANTED_ENTRY@@V?$allocator@UWANTED_ENTRY@@@std@@@std@@QAEAAUWANTED_ENTRY@@I@Z ENDP ; std::vector<WANTED_ENTRY,std::allocator<WANTED_ENTRY> >::operator[]
_TEXT	ENDS
PUBLIC	??$_Uninit_fill_n@PAUWANTED_ENTRY@@IU1@V?$allocator@UWANTED_ENTRY@@@std@@@std@@YAXPAUWANTED_ENTRY@@IABU1@AAV?$allocator@UWANTED_ENTRY@@@0@U_Nonscalar_ptr_iterator_tag@0@@Z ; std::_Uninit_fill_n<WANTED_ENTRY *,unsigned int,WANTED_ENTRY,std::allocator<WANTED_ENTRY> >
; Function compile flags: /Ogty
; File c:\program files\microsoft visual studio .net 2003\vc7\include\memory
;	COMDAT ??$_Uninit_fill_n@PAUWANTED_ENTRY@@IU1@V?$allocator@UWANTED_ENTRY@@@std@@@std@@YAXPAUWANTED_ENTRY@@IABU1@AAV?$allocator@UWANTED_ENTRY@@@0@U_Nonscalar_ptr_iterator_tag@0@@Z
_TEXT	SEGMENT
__First$ = 8						; size = 4
__Count$ = 12						; size = 4
__Val$ = 16						; size = 4
__Al$ = 20						; size = 4
___formal$ = 24						; size = 1
??$_Uninit_fill_n@PAUWANTED_ENTRY@@IU1@V?$allocator@UWANTED_ENTRY@@@std@@@std@@YAXPAUWANTED_ENTRY@@IABU1@AAV?$allocator@UWANTED_ENTRY@@@0@U_Nonscalar_ptr_iterator_tag@0@@Z PROC NEAR ; std::_Uninit_fill_n<WANTED_ENTRY *,unsigned int,WANTED_ENTRY,std::allocator<WANTED_ENTRY> >, COMDAT

; 208  : 	_FwdIt _Next = _First;
; 209  : 
; 210  : 	_TRY_BEGIN
; 211  : 	for (; 0 < _Count; --_Count, ++_First)

  00000	8b 44 24 08	 mov	 eax, DWORD PTR __Count$[esp-4]
  00004	85 c0		 test	 eax, eax
  00006	76 25		 jbe	 SHORT $L227051
  00008	53		 push	 ebx
  00009	8b 5c 24 10	 mov	 ebx, DWORD PTR __Val$[esp]
  0000d	56		 push	 esi
  0000e	8b d0		 mov	 edx, eax
  00010	8b 44 24 0c	 mov	 eax, DWORD PTR __First$[esp+4]
  00014	57		 push	 edi
$L227049:

; 212  : 		_Al.construct(_First, _Val);

  00015	85 c0		 test	 eax, eax
  00017	74 0b		 je	 SHORT $L227050
  00019	b9 1a 00 00 00	 mov	 ecx, 26			; 0000001aH
  0001e	8b f3		 mov	 esi, ebx
  00020	8b f8		 mov	 edi, eax
  00022	f3 a5		 rep movsd
$L227050:
  00024	83 c0 68	 add	 eax, 104		; 00000068H
  00027	4a		 dec	 edx
  00028	75 eb		 jne	 SHORT $L227049
  0002a	5f		 pop	 edi
  0002b	5e		 pop	 esi
  0002c	5b		 pop	 ebx
$L227051:

; 213  : 	_CATCH_ALL
; 214  : 	for (; _Next != _First; ++_Next)
; 215  : 		_Al.destroy(_Next);
; 216  : 	_RERAISE;
; 217  : 	_CATCH_END
; 218  : 	}

  0002d	c3		 ret	 0
??$_Uninit_fill_n@PAUWANTED_ENTRY@@IU1@V?$allocator@UWANTED_ENTRY@@@std@@@std@@YAXPAUWANTED_ENTRY@@IABU1@AAV?$allocator@UWANTED_ENTRY@@@0@U_Nonscalar_ptr_iterator_tag@0@@Z ENDP ; std::_Uninit_fill_n<WANTED_ENTRY *,unsigned int,WANTED_ENTRY,std::allocator<WANTED_ENTRY> >
_TEXT	ENDS
PUBLIC	??$_Destroy_range@UWANTED_ENTRY@@V?$allocator@UWANTED_ENTRY@@@std@@@std@@YAXPAUWANTED_ENTRY@@0AAV?$allocator@UWANTED_ENTRY@@@0@U_Nonscalar_ptr_iterator_tag@0@@Z ; std::_Destroy_range<WANTED_ENTRY,std::allocator<WANTED_ENTRY> >
; Function compile flags: /Ogty
; File c:\program files\microsoft visual studio .net 2003\vc7\include\xmemory
;	COMDAT ??$_Destroy_range@UWANTED_ENTRY@@V?$allocator@UWANTED_ENTRY@@@std@@@std@@YAXPAUWANTED_ENTRY@@0AAV?$allocator@UWANTED_ENTRY@@@0@U_Nonscalar_ptr_iterator_tag@0@@Z
_TEXT	SEGMENT
__First$ = 8						; size = 4
__Last$ = 12						; size = 4
__Al$ = 16						; size = 4
___formal$ = 20						; size = 1
??$_Destroy_range@UWANTED_ENTRY@@V?$allocator@UWANTED_ENTRY@@@std@@@std@@YAXPAUWANTED_ENTRY@@0AAV?$allocator@UWANTED_ENTRY@@@0@U_Nonscalar_ptr_iterator_tag@0@@Z PROC NEAR ; std::_Destroy_range<WANTED_ENTRY,std::allocator<WANTED_ENTRY> >, COMDAT

; 225  : 	for (; _First != _Last; ++_First)
; 226  : 		_Al.destroy(_First);
; 227  : 	}

  00000	c3		 ret	 0
??$_Destroy_range@UWANTED_ENTRY@@V?$allocator@UWANTED_ENTRY@@@std@@@std@@YAXPAUWANTED_ENTRY@@0AAV?$allocator@UWANTED_ENTRY@@@0@U_Nonscalar_ptr_iterator_tag@0@@Z ENDP ; std::_Destroy_range<WANTED_ENTRY,std::allocator<WANTED_ENTRY> >
_TEXT	ENDS
PUBLIC	??$_Uninitialized_copy@PAUWANTED_ENTRY@@PAU1@V?$allocator@UWANTED_ENTRY@@@std@@@std@@YAPAUWANTED_ENTRY@@PAU1@00AAV?$allocator@UWANTED_ENTRY@@@0@@Z ; std::_Uninitialized_copy<WANTED_ENTRY *,WANTED_ENTRY *,std::allocator<WANTED_ENTRY> >
; Function compile flags: /Ogty
; File c:\program files\microsoft visual studio .net 2003\vc7\include\memory
;	COMDAT ??$_Uninitialized_copy@PAUWANTED_ENTRY@@PAU1@V?$allocator@UWANTED_ENTRY@@@std@@@std@@YAPAUWANTED_ENTRY@@PAU1@00AAV?$allocator@UWANTED_ENTRY@@@0@@Z
_TEXT	SEGMENT
__Cat$228233 = -4					; size = 1
__First$ = 8						; size = 4
__Last$ = 12						; size = 4
__Dest$ = 16						; size = 4
__Al$ = 20						; size = 4
??$_Uninitialized_copy@PAUWANTED_ENTRY@@PAU1@V?$allocator@UWANTED_ENTRY@@@std@@@std@@YAPAUWANTED_ENTRY@@PAU1@00AAV?$allocator@UWANTED_ENTRY@@@0@@Z PROC NEAR ; std::_Uninitialized_copy<WANTED_ENTRY *,WANTED_ENTRY *,std::allocator<WANTED_ENTRY> >, COMDAT

; 126  : 	{	// copy [_First, _Last) to raw _Dest, using _Al

  00000	51		 push	 ecx

; 127  : 	return (_Uninit_copy(_First, _Last, _Dest, _Al,
; 128  : 		_Ptr_cat(_First, _Dest)));

  00001	8b 04 24	 mov	 eax, DWORD PTR __Cat$228233[esp+4]
  00004	8b 4c 24 14	 mov	 ecx, DWORD PTR __Al$[esp]
  00008	8b 54 24 10	 mov	 edx, DWORD PTR __Dest$[esp]
  0000c	50		 push	 eax
  0000d	8b 44 24 10	 mov	 eax, DWORD PTR __Last$[esp+4]
  00011	51		 push	 ecx
  00012	8b 4c 24 10	 mov	 ecx, DWORD PTR __First$[esp+8]
  00016	52		 push	 edx
  00017	50		 push	 eax
  00018	51		 push	 ecx
  00019	e8 00 00 00 00	 call	 ??$_Uninit_copy@PAUWANTED_ENTRY@@PAU1@V?$allocator@UWANTED_ENTRY@@@std@@@std@@YAPAUWANTED_ENTRY@@PAU1@00AAV?$allocator@UWANTED_ENTRY@@@0@U_Nonscalar_ptr_iterator_tag@0@@Z ; std::_Uninit_copy<WANTED_ENTRY *,WANTED_ENTRY *,std::allocator<WANTED_ENTRY> >

; 129  : 	}

  0001e	83 c4 18	 add	 esp, 24			; 00000018H
  00021	c3		 ret	 0
??$_Uninitialized_copy@PAUWANTED_ENTRY@@PAU1@V?$allocator@UWANTED_ENTRY@@@std@@@std@@YAPAUWANTED_ENTRY@@PAU1@00AAV?$allocator@UWANTED_ENTRY@@@0@@Z ENDP ; std::_Uninitialized_copy<WANTED_ENTRY *,WANTED_ENTRY *,std::allocator<WANTED_ENTRY> >
_TEXT	ENDS
PUBLIC	?_Tidy@?$basic_string@DU?$char_traits@D@std@@V?$allocator@D@2@@std@@IAEX_NI@Z ; std::basic_string<char,std::char_traits<char>,std::allocator<char> >::_Tidy
; Function compile flags: /Ogty
; File c:\program files\microsoft visual studio .net 2003\vc7\include\xstring
;	COMDAT ?_Tidy@?$basic_string@DU?$char_traits@D@std@@V?$allocator@D@2@@std@@IAEX_NI@Z
_TEXT	SEGMENT
__Built$ = 8						; size = 1
__Newsize$ = 12						; size = 4
?_Tidy@?$basic_string@DU?$char_traits@D@std@@V?$allocator@D@2@@std@@IAEX_NI@Z PROC NEAR ; std::basic_string<char,std::char_traits<char>,std::allocator<char> >::_Tidy, COMDAT
; _this$ = ecx

; 1510 : 		if (!_Built)

  00000	8a 44 24 04	 mov	 al, BYTE PTR __Built$[esp-4]
  00004	84 c0		 test	 al, al
  00006	53		 push	 ebx
  00007	55		 push	 ebp
  00008	8b 6c 24 10	 mov	 ebp, DWORD PTR __Newsize$[esp+4]
  0000c	8b d9		 mov	 ebx, ecx
  0000e	74 2f		 je	 SHORT $L228242

; 1511 : 			;
; 1512 : 		else if (_BUF_SIZE <= _Myres)

  00010	83 7b 18 10	 cmp	 DWORD PTR [ebx+24], 16	; 00000010H
  00014	72 29		 jb	 SHORT $L228242

; 1513 : 			{	// copy any leftovers to small buffer and deallocate
; 1514 : 			_Elem *_Ptr = _Bx._Ptr;
; 1515 : 			if (0 < _Newsize)

  00016	85 ed		 test	 ebp, ebp
  00018	8b 43 04	 mov	 eax, DWORD PTR [ebx+4]
  0001b	57		 push	 edi
  0001c	8d 7b 04	 lea	 edi, DWORD PTR [ebx+4]
  0001f	76 14		 jbe	 SHORT $L228239
  00021	56		 push	 esi

; 1516 : 				_Traits::copy(_Bx._Buf, _Ptr, _Newsize);

  00022	8b cd		 mov	 ecx, ebp
  00024	8b d1		 mov	 edx, ecx
  00026	c1 e9 02	 shr	 ecx, 2
  00029	8b f0		 mov	 esi, eax
  0002b	f3 a5		 rep movsd
  0002d	8b ca		 mov	 ecx, edx
  0002f	83 e1 03	 and	 ecx, 3
  00032	f3 a4		 rep movsb
  00034	5e		 pop	 esi
$L228239:

; 1517 : 			_Mybase::_Alval.deallocate(_Ptr, _Myres + 1);

  00035	50		 push	 eax
  00036	e8 00 00 00 00	 call	 ??3@YAXPAX@Z		; operator delete
  0003b	83 c4 04	 add	 esp, 4
  0003e	5f		 pop	 edi
$L228242:

; 1518 : 			}
; 1519 : 		_Myres = _BUF_SIZE - 1;
; 1520 : 		_Eos(_Newsize);

  0003f	89 6b 14	 mov	 DWORD PTR [ebx+20], ebp
  00042	c7 43 18 0f 00
	00 00		 mov	 DWORD PTR [ebx+24], 15	; 0000000fH
  00049	c6 44 2b 04 00	 mov	 BYTE PTR [ebx+ebp+4], 0
  0004e	5d		 pop	 ebp
  0004f	5b		 pop	 ebx

; 1521 : 		}

  00050	c2 08 00	 ret	 8
?_Tidy@?$basic_string@DU?$char_traits@D@std@@V?$allocator@D@2@@std@@IAEX_NI@Z ENDP ; std::basic_string<char,std::char_traits<char>,std::allocator<char> >::_Tidy
_TEXT	ENDS
PUBLIC	?erase@?$basic_string@DU?$char_traits@D@std@@V?$allocator@D@2@@std@@QAEAAV12@II@Z ; std::basic_string<char,std::char_traits<char>,std::allocator<char> >::erase
EXTRN	?_Xran@_String_base@std@@QBEXXZ:NEAR		; std::_String_base::_Xran
; Function compile flags: /Ogty
;	COMDAT ?erase@?$basic_string@DU?$char_traits@D@std@@V?$allocator@D@2@@std@@QAEAAV12@II@Z
_TEXT	SEGMENT
__Off$ = 8						; size = 4
__Count$ = 12						; size = 4
?erase@?$basic_string@DU?$char_traits@D@std@@V?$allocator@D@2@@std@@QAEAAV12@II@Z PROC NEAR ; std::basic_string<char,std::char_traits<char>,std::allocator<char> >::erase, COMDAT
; _this$ = ecx

; 792  : 		{	// erase elements [_Off, _Off + _Count)

  00000	55		 push	 ebp

; 793  : 		if (_Mysize < _Off)

  00001	8b 6c 24 08	 mov	 ebp, DWORD PTR __Off$[esp]
  00005	56		 push	 esi
  00006	8b f1		 mov	 esi, ecx
  00008	39 6e 14	 cmp	 DWORD PTR [esi+20], ebp
  0000b	57		 push	 edi
  0000c	73 05		 jae	 SHORT $L221371

; 794  : 			_String_base::_Xran();	// _Off off end

  0000e	e8 00 00 00 00	 call	 ?_Xran@_String_base@std@@QBEXXZ ; std::_String_base::_Xran
$L221371:

; 795  : 		if (_Mysize - _Off < _Count)

  00013	8b 46 14	 mov	 eax, DWORD PTR [esi+20]
  00016	8b 7c 24 14	 mov	 edi, DWORD PTR __Count$[esp+8]
  0001a	2b c5		 sub	 eax, ebp
  0001c	3b c7		 cmp	 eax, edi
  0001e	73 02		 jae	 SHORT $L221372

; 796  : 			_Count = _Mysize - _Off;	// trim _Count

  00020	8b f8		 mov	 edi, eax
$L221372:

; 797  : 		if (0 < _Count)

  00022	85 ff		 test	 edi, edi
  00024	76 47		 jbe	 SHORT $L228308

; 798  : 			{	// move elements down
; 799  : 			_Traits::move(_Myptr() + _Off, _Myptr() + _Off + _Count,
; 800  : 				_Mysize - _Off - _Count);

  00026	8b 4e 18	 mov	 ecx, DWORD PTR [esi+24]
  00029	83 f9 10	 cmp	 ecx, 16			; 00000010H
  0002c	53		 push	 ebx
  0002d	8d 5e 04	 lea	 ebx, DWORD PTR [esi+4]
  00030	72 04		 jb	 SHORT $L228274
  00032	8b 13		 mov	 edx, DWORD PTR [ebx]
  00034	eb 02		 jmp	 SHORT $L228275
$L228274:
  00036	8b d3		 mov	 edx, ebx
$L228275:
  00038	83 f9 10	 cmp	 ecx, 16			; 00000010H
  0003b	72 04		 jb	 SHORT $L228281
  0003d	8b 0b		 mov	 ecx, DWORD PTR [ebx]
  0003f	eb 02		 jmp	 SHORT $L228282
$L228281:
  00041	8b cb		 mov	 ecx, ebx
$L228282:
  00043	2b c7		 sub	 eax, edi

; 803  : 			}
; 804  : 		return (*this);

  00045	03 d5		 add	 edx, ebp
  00047	50		 push	 eax
  00048	03 d7		 add	 edx, edi
  0004a	52		 push	 edx
  0004b	03 cd		 add	 ecx, ebp
  0004d	51		 push	 ecx
  0004e	e8 00 00 00 00	 call	 _memmove
  00053	8b 46 14	 mov	 eax, DWORD PTR [esi+20]
  00056	8b 4e 18	 mov	 ecx, DWORD PTR [esi+24]
  00059	2b c7		 sub	 eax, edi
  0005b	83 c4 0c	 add	 esp, 12			; 0000000cH
  0005e	83 f9 10	 cmp	 ecx, 16			; 00000010H
  00061	89 46 14	 mov	 DWORD PTR [esi+20], eax
  00064	72 02		 jb	 SHORT $L228305

; 801  : 			size_type _Newsize = _Mysize - _Count;
; 802  : 			_Eos(_Newsize);

  00066	8b 1b		 mov	 ebx, DWORD PTR [ebx]
$L228305:
  00068	c6 04 03 00	 mov	 BYTE PTR [ebx+eax], 0
  0006c	5b		 pop	 ebx
$L228308:
  0006d	5f		 pop	 edi

; 803  : 			}
; 804  : 		return (*this);

  0006e	8b c6		 mov	 eax, esi
  00070	5e		 pop	 esi
  00071	5d		 pop	 ebp

; 805  : 		}

  00072	c2 08 00	 ret	 8
?erase@?$basic_string@DU?$char_traits@D@std@@V?$allocator@D@2@@std@@QAEAAV12@II@Z ENDP ; std::basic_string<char,std::char_traits<char>,std::allocator<char> >::erase
_TEXT	ENDS
PUBLIC	?_Copy@?$basic_string@DU?$char_traits@D@std@@V?$allocator@D@2@@std@@IAEXII@Z ; std::basic_string<char,std::char_traits<char>,std::allocator<char> >::_Copy
EXTRN	__except_list:DWORD
EXTRN	___CxxFrameHandler:NEAR
;	COMDAT xdata$x
; File c:\program files\microsoft visual studio .net 2003\vc7\include\iosfwd
xdata$x	SEGMENT
$T228513 DD	0ffffffffH
	DD	00H
	DD	0ffffffffH
	DD	00H
	DD	01H
	DD	00H
	DD	01H
	DD	00H
$T228515 DD	00H
	DD	00H
	DD	00H
	DD	FLAT:$L228315
$T228516 DD	00H
	DD	00H
	DD	00H
	DD	FLAT:$L228313
$T228514 DD	02H
	DD	02H
	DD	03H
	DD	01H
	DD	FLAT:$T228515
	DD	00H
	DD	00H
	DD	03H
	DD	01H
	DD	FLAT:$T228516
$T228507 DD	019930520H
	DD	04H
	DD	FLAT:$T228513
	DD	02H
	DD	FLAT:$T228514
	DD	2 DUP(00H)
; Function compile flags: /Ogty
; File c:\program files\microsoft visual studio .net 2003\vc7\include\xstring
xdata$x	ENDS
;	COMDAT ?_Copy@?$basic_string@DU?$char_traits@D@std@@V?$allocator@D@2@@std@@IAEXII@Z
_TEXT	SEGMENT
__Newres$ = -24						; size = 4
_this$ = -20						; size = 4
__$EHRec$ = -16						; size = 16
__Ptr$ = 8						; size = 4
__Newsize$ = 8						; size = 4
__Oldlen$ = 12						; size = 4
?_Copy@?$basic_string@DU?$char_traits@D@std@@V?$allocator@D@2@@std@@IAEXII@Z PROC NEAR ; std::basic_string<char,std::char_traits<char>,std::allocator<char> >::_Copy, COMDAT
; _this$ = ecx

; 1444 : 		{	// copy _Oldlen elements to newly allocated buffer

  00000	55		 push	 ebp
  00001	8b ec		 mov	 ebp, esp
  00003	6a ff		 push	 -1
  00005	68 00 00 00 00	 push	 __ehhandler$?_Copy@?$basic_string@DU?$char_traits@D@std@@V?$allocator@D@2@@std@@IAEXII@Z
  0000a	64 a1 00 00 00
	00		 mov	 eax, DWORD PTR fs:__except_list
  00010	50		 push	 eax
  00011	64 89 25 00 00
	00 00		 mov	 DWORD PTR fs:__except_list, esp
  00018	83 ec 0c	 sub	 esp, 12			; 0000000cH

; 1445 : 		size_type _Newres = _Newsize | _ALLOC_MASK;

  0001b	8b 45 08	 mov	 eax, DWORD PTR __Newsize$[ebp]
  0001e	53		 push	 ebx
  0001f	56		 push	 esi
  00020	8b d8		 mov	 ebx, eax
  00022	83 cb 0f	 or	 ebx, 15			; 0000000fH

; 1446 : 		if (max_size() < _Newres)

  00025	83 fb fe	 cmp	 ebx, -2			; fffffffeH
  00028	57		 push	 edi
  00029	8b f1		 mov	 esi, ecx
  0002b	89 65 f0	 mov	 DWORD PTR __$EHRec$[ebp], esp
  0002e	89 75 ec	 mov	 DWORD PTR _this$[ebp], esi
  00031	76 04		 jbe	 SHORT $L222778

; 1447 : 			_Newres = _Newsize;	// undo roundup if too big

  00033	8b d8		 mov	 ebx, eax

; 1448 : 		else if (_Newres / 3 < _Myres / 2

  00035	eb 22		 jmp	 SHORT $L222780
$L222778:

; 1449 : 			&& _Myres <= max_size() - _Myres / 2)

  00037	8b 7e 18	 mov	 edi, DWORD PTR [esi+24]
  0003a	b8 ab aa aa aa	 mov	 eax, -1431655765	; aaaaaaabH
  0003f	f7 e3		 mul	 ebx
  00041	8b cf		 mov	 ecx, edi
  00043	d1 e9		 shr	 ecx, 1
  00045	d1 ea		 shr	 edx, 1
  00047	3b d1		 cmp	 edx, ecx
  00049	73 0e		 jae	 SHORT $L222780
  0004b	b8 fe ff ff ff	 mov	 eax, -2			; fffffffeH
  00050	2b c1		 sub	 eax, ecx
  00052	3b f8		 cmp	 edi, eax
  00054	77 03		 ja	 SHORT $L222780

; 1450 : 			_Newres = _Myres + _Myres / 2;	// grow exponentially if possible

  00056	8d 1c 39	 lea	 ebx, DWORD PTR [ecx+edi]
$L222780:

; 1451 : 		_Elem *_Ptr;
; 1452 : 
; 1453 : 		_TRY_BEGIN
; 1454 : 			_Ptr = _Mybase::_Alval.allocate(_Newres + 1);

  00059	8d 4b 01	 lea	 ecx, DWORD PTR [ebx+1]
  0005c	51		 push	 ecx
  0005d	c7 45 fc 00 00
	00 00		 mov	 DWORD PTR __$EHRec$[ebp+12], 0
  00064	e8 00 00 00 00	 call	 ??2@YAPAXI@Z		; operator new
  00069	8b d0		 mov	 edx, eax
  0006b	83 c4 04	 add	 esp, 4
  0006e	89 55 08	 mov	 DWORD PTR __Ptr$[ebp], edx
  00071	eb 29		 jmp	 SHORT $L222782
$L228313:

; 1455 : 		_CATCH_ALL
; 1456 : 			_Newres = _Newsize;	// allocation failed, undo roundup and retry

  00073	8b 45 08	 mov	 eax, DWORD PTR __Newsize$[ebp]
  00076	89 45 e8	 mov	 DWORD PTR __Newres$[ebp], eax

; 1457 : 			_TRY_BEGIN
; 1458 : 				_Ptr = _Mybase::_Alval.allocate(_Newres + 1);

  00079	40		 inc	 eax
  0007a	89 65 f0	 mov	 DWORD PTR __$EHRec$[ebp], esp
  0007d	50		 push	 eax
  0007e	c6 45 fc 02	 mov	 BYTE PTR __$EHRec$[ebp+12], 2
  00082	e8 00 00 00 00	 call	 ??2@YAPAXI@Z		; operator new
  00087	89 45 08	 mov	 DWORD PTR __Ptr$[ebp], eax
  0008a	83 c4 04	 add	 esp, 4

; 1462 : 			_CATCH_END
; 1463 : 		_CATCH_END

  0008d	b8 00 00 00 00	 mov	 eax, $L228508
  00092	c3		 ret	 0
$L228508:
  00093	8b 5d e8	 mov	 ebx, DWORD PTR __Newres$[ebp]
  00096	8b 75 ec	 mov	 esi, DWORD PTR _this$[ebp]
  00099	8b 55 08	 mov	 edx, DWORD PTR __Ptr$[ebp]
$L222782:

; 1464 : 
; 1465 : 		if (0 < _Oldlen)

  0009c	8b 4d 0c	 mov	 ecx, DWORD PTR __Oldlen$[ebp]
  0009f	85 c9		 test	 ecx, ecx
  000a1	76 24		 jbe	 SHORT $L228432

; 1466 : 			_Traits::copy(_Ptr, _Myptr(), _Oldlen);	// copy existing elements

  000a3	83 7e 18 10	 cmp	 DWORD PTR [esi+24], 16	; 00000010H
  000a7	72 05		 jb	 SHORT $L228428
  000a9	8b 76 04	 mov	 esi, DWORD PTR [esi+4]
  000ac	eb 03		 jmp	 SHORT $L228429
$L228428:
  000ae	83 c6 04	 add	 esi, 4
$L228429:
  000b1	8b c1		 mov	 eax, ecx
  000b3	c1 e9 02	 shr	 ecx, 2
  000b6	8b fa		 mov	 edi, edx
  000b8	f3 a5		 rep movsd
  000ba	8b c8		 mov	 ecx, eax
  000bc	83 e1 03	 and	 ecx, 3
  000bf	f3 a4		 rep movsb
  000c1	8b 75 ec	 mov	 esi, DWORD PTR _this$[ebp]
  000c4	8b 4d 0c	 mov	 ecx, DWORD PTR __Oldlen$[ebp]
$L228432:

; 1467 : 		_Tidy(true);

  000c7	83 7e 18 10	 cmp	 DWORD PTR [esi+24], 16	; 00000010H
  000cb	72 12		 jb	 SHORT $L228469
  000cd	8b 4e 04	 mov	 ecx, DWORD PTR [esi+4]
  000d0	51		 push	 ecx
  000d1	e8 00 00 00 00	 call	 ??3@YAXPAX@Z		; operator delete
  000d6	8b 55 08	 mov	 edx, DWORD PTR __Ptr$[ebp]
  000d9	8b 4d 0c	 mov	 ecx, DWORD PTR __Oldlen$[ebp]
  000dc	83 c4 04	 add	 esp, 4
$L228469:

; 1468 : 		_Bx._Ptr = _Ptr;
; 1469 : 		_Myres = _Newres;
; 1470 : 		_Eos(_Oldlen);

  000df	83 fb 10	 cmp	 ebx, 16			; 00000010H
  000e2	8d 46 04	 lea	 eax, DWORD PTR [esi+4]
  000e5	c6 00 00	 mov	 BYTE PTR [eax], 0
  000e8	89 10		 mov	 DWORD PTR [eax], edx
  000ea	89 5e 18	 mov	 DWORD PTR [esi+24], ebx
  000ed	89 4e 14	 mov	 DWORD PTR [esi+20], ecx
  000f0	72 02		 jb	 SHORT $L228501
  000f2	8b c2		 mov	 eax, edx
$L228501:

; 1471 : 		}

  000f4	5f		 pop	 edi
  000f5	c6 04 08 00	 mov	 BYTE PTR [eax+ecx], 0
  000f9	8b 4d f4	 mov	 ecx, DWORD PTR __$EHRec$[ebp+4]
  000fc	5e		 pop	 esi
  000fd	64 89 0d 00 00
	00 00		 mov	 DWORD PTR fs:__except_list, ecx
  00104	5b		 pop	 ebx
  00105	8b e5		 mov	 esp, ebp
  00107	5d		 pop	 ebp
  00108	c2 08 00	 ret	 8
$L228315:

; 1459 : 			_CATCH_ALL
; 1460 : 			_Tidy(true);	// failed again, discard storage and reraise

  0010b	8b 75 ec	 mov	 esi, DWORD PTR _this$[ebp]
  0010e	83 7e 18 10	 cmp	 DWORD PTR [esi+24], 16	; 00000010H
  00112	72 0c		 jb	 SHORT $L228408
  00114	8b 56 04	 mov	 edx, DWORD PTR [esi+4]
  00117	52		 push	 edx
  00118	e8 00 00 00 00	 call	 ??3@YAXPAX@Z		; operator delete
  0011d	83 c4 04	 add	 esp, 4
$L228408:

; 1461 : 			_RERAISE;

  00120	6a 00		 push	 0
  00122	c7 46 18 0f 00
	00 00		 mov	 DWORD PTR [esi+24], 15	; 0000000fH
  00129	c7 46 14 00 00
	00 00		 mov	 DWORD PTR [esi+20], 0
  00130	6a 00		 push	 0
  00132	c6 46 04 00	 mov	 BYTE PTR [esi+4], 0
  00136	e8 00 00 00 00	 call	 __CxxThrowException@8
$L228518:
$L228512:
  0013b	cc		 int	 3
_TEXT	ENDS
;	COMDAT text$x
text$x	SEGMENT
__ehhandler$?_Copy@?$basic_string@DU?$char_traits@D@std@@V?$allocator@D@2@@std@@IAEXII@Z:
  00000	b8 00 00 00 00	 mov	 eax, OFFSET FLAT:$T228507
  00005	e9 00 00 00 00	 jmp	 ___CxxFrameHandler
text$x	ENDS
?_Copy@?$basic_string@DU?$char_traits@D@std@@V?$allocator@D@2@@std@@IAEXII@Z ENDP ; std::basic_string<char,std::char_traits<char>,std::allocator<char> >::_Copy
PUBLIC	?Write@CWantedListSnapshot@@QAEXAAVCAr@@@Z	; CWantedListSnapshot::Write
EXTRN	?WriteString@CAr@@QAEXPBD@Z:NEAR		; CAr::WriteString
; Function compile flags: /Ogty
; File c:\documents and settings\test\mes documents\source\virtuos_v17\build\program\worldserver\wantedlistsnapshot.cpp
;	COMDAT ?Write@CWantedListSnapshot@@QAEXAAVCAr@@@Z
_TEXT	SEGMENT
$T228616 = -8						; size = 8
_ar$ = 8						; size = 4
?Write@CWantedListSnapshot@@QAEXAAVCAr@@@Z PROC NEAR	; CWantedListSnapshot::Write, COMDAT
; _this$ = ecx

; 47   : {

  00000	83 ec 08	 sub	 esp, 8
  00003	53		 push	 ebx
  00004	55		 push	 ebp
  00005	56		 push	 esi

; 48   : 	ar << m_lRecvTime;

  00006	8b 74 24 18	 mov	 esi, DWORD PTR _ar$[esp+16]
  0000a	57		 push	 edi
  0000b	8b d9		 mov	 ebx, ecx
  0000d	8b 7b 04	 mov	 edi, DWORD PTR [ebx+4]
  00010	bd 04 00 00 00	 mov	 ebp, 4
  00015	55		 push	 ebp
  00016	8b ce		 mov	 ecx, esi
  00018	e8 00 00 00 00	 call	 ?CheckBuf@CAr@@QAEXI@Z	; CAr::CheckBuf
  0001d	8b 46 08	 mov	 eax, DWORD PTR [esi+8]
  00020	89 38		 mov	 DWORD PTR [eax], edi
  00022	01 6e 08	 add	 DWORD PTR [esi+8], ebp

; 49   : 	ar << (int)m_wantedList.size();

  00025	8b 43 0c	 mov	 eax, DWORD PTR [ebx+12]
  00028	85 c0		 test	 eax, eax
  0002a	75 04		 jne	 SHORT $L228533
  0002c	33 ff		 xor	 edi, edi
  0002e	eb 16		 jmp	 SHORT $L228534
$L228533:
  00030	8b 4b 10	 mov	 ecx, DWORD PTR [ebx+16]
  00033	2b c8		 sub	 ecx, eax
  00035	b8 4f ec c4 4e	 mov	 eax, 1321528399		; 4ec4ec4fH
  0003a	f7 e9		 imul	 ecx
  0003c	c1 fa 05	 sar	 edx, 5
  0003f	8b fa		 mov	 edi, edx
  00041	c1 ef 1f	 shr	 edi, 31			; 0000001fH
  00044	03 fa		 add	 edi, edx
$L228534:
  00046	55		 push	 ebp
  00047	8b ce		 mov	 ecx, esi
  00049	e8 00 00 00 00	 call	 ?CheckBuf@CAr@@QAEXI@Z	; CAr::CheckBuf
  0004e	8b 4e 08	 mov	 ecx, DWORD PTR [esi+8]
  00051	89 39		 mov	 DWORD PTR [ecx], edi
  00053	01 6e 08	 add	 DWORD PTR [esi+8], ebp

; 50   : 
; 51   : 	WANTED_ENTRY_VECTOR::iterator it;
; 52   : 	for( it = m_wantedList.begin(); it != m_wantedList.end(); ++it )

  00056	8b 7b 0c	 mov	 edi, DWORD PTR [ebx+12]
  00059	3b 7b 10	 cmp	 edi, DWORD PTR [ebx+16]
  0005c	74 55		 je	 SHORT $L226116
  0005e	8b ff		 npad	 2
$L228572:

; 53   : 	{
; 54   : 		ar.WriteString( (*it).szPlayer );

  00060	57		 push	 edi
  00061	8b ce		 mov	 ecx, esi
  00063	e8 00 00 00 00	 call	 ?WriteString@CAr@@QAEXPBD@Z ; CAr::WriteString

; 55   : 		ar << (*it).nGold;

  00068	8b 57 48	 mov	 edx, DWORD PTR [edi+72]
  0006b	8b 47 4c	 mov	 eax, DWORD PTR [edi+76]
  0006e	6a 08		 push	 8
  00070	8d 4c 24 14	 lea	 ecx, DWORD PTR $T228616[esp+28]
  00074	51		 push	 ecx
  00075	8b ce		 mov	 ecx, esi
  00077	89 54 24 18	 mov	 DWORD PTR $T228616[esp+32], edx
  0007b	89 44 24 1c	 mov	 DWORD PTR $T228616[esp+36], eax
  0007f	e8 00 00 00 00	 call	 ?Write@CAr@@QAEXPBXI@Z	; CAr::Write

; 56   : 		ar << (*it).nEnd; 

  00084	8b 6f 40	 mov	 ebp, DWORD PTR [edi+64]
  00087	6a 04		 push	 4
  00089	8b ce		 mov	 ecx, esi
  0008b	e8 00 00 00 00	 call	 ?CheckBuf@CAr@@QAEXI@Z	; CAr::CheckBuf
  00090	8b 56 08	 mov	 edx, DWORD PTR [esi+8]
  00093	89 2a		 mov	 DWORD PTR [edx], ebp
  00095	8b 6e 08	 mov	 ebp, DWORD PTR [esi+8]
  00098	8d 47 50	 lea	 eax, DWORD PTR [edi+80]
  0009b	83 c5 04	 add	 ebp, 4

; 57   : 		ar.WriteString( (*it).szMsg );

  0009e	50		 push	 eax
  0009f	8b ce		 mov	 ecx, esi
  000a1	89 6e 08	 mov	 DWORD PTR [esi+8], ebp
  000a4	e8 00 00 00 00	 call	 ?WriteString@CAr@@QAEXPBD@Z ; CAr::WriteString
  000a9	8b 43 10	 mov	 eax, DWORD PTR [ebx+16]
  000ac	83 c7 68	 add	 edi, 104		; 00000068H
  000af	3b f8		 cmp	 edi, eax
  000b1	75 ad		 jne	 SHORT $L228572
$L226116:
  000b3	5f		 pop	 edi
  000b4	5e		 pop	 esi
  000b5	5d		 pop	 ebp
  000b6	5b		 pop	 ebx

; 58   : 	}
; 59   : }

  000b7	83 c4 08	 add	 esp, 8
  000ba	c2 04 00	 ret	 4
?Write@CWantedListSnapshot@@QAEXAAVCAr@@@Z ENDP		; CWantedListSnapshot::Write
_TEXT	ENDS
PUBLIC	?GetPlayerIndex@CWantedListSnapshot@@QAEHPBD@Z	; CWantedListSnapshot::GetPlayerIndex
; Function compile flags: /Ogty
;	COMDAT ?GetPlayerIndex@CWantedListSnapshot@@QAEHPBD@Z
_TEXT	SEGMENT
_szPlayer$ = 8						; size = 4
?GetPlayerIndex@CWantedListSnapshot@@QAEHPBD@Z PROC NEAR ; CWantedListSnapshot::GetPlayerIndex, COMDAT
; _this$ = ecx

; 64   : 	int nCount = m_wantedList.size();

  00000	8b 41 0c	 mov	 eax, DWORD PTR [ecx+12]
  00003	85 c0		 test	 eax, eax
  00005	53		 push	 ebx
  00006	55		 push	 ebp
  00007	56		 push	 esi
  00008	57		 push	 edi
  00009	75 04		 jne	 SHORT $L228646
  0000b	33 ff		 xor	 edi, edi
  0000d	eb 16		 jmp	 SHORT $L228647
$L228646:
  0000f	8b 51 10	 mov	 edx, DWORD PTR [ecx+16]
  00012	2b d0		 sub	 edx, eax
  00014	b8 4f ec c4 4e	 mov	 eax, 1321528399		; 4ec4ec4fH
  00019	f7 ea		 imul	 edx
  0001b	c1 fa 05	 sar	 edx, 5
  0001e	8b fa		 mov	 edi, edx
  00020	c1 ef 1f	 shr	 edi, 31			; 0000001fH
  00023	03 fa		 add	 edi, edx
$L228647:

; 65   : 
; 66   : 	for( int i=0; i<nCount; ++i )

  00025	33 c0		 xor	 eax, eax
  00027	85 ff		 test	 edi, edi
  00029	7e 40		 jle	 SHORT $L226125
  0002b	8b 69 0c	 mov	 ebp, DWORD PTR [ecx+12]
  0002e	8b ff		 npad	 2
$L228712:

; 67   : 	{
; 68   : 		if( strcmp( szPlayer, m_wantedList[i].szPlayer) == 0 )

  00030	8b 4c 24 14	 mov	 ecx, DWORD PTR _szPlayer$[esp+12]
  00034	8b f5		 mov	 esi, ebp
$L228708:
  00036	8a 19		 mov	 bl, BYTE PTR [ecx]
  00038	8a d3		 mov	 dl, bl
  0003a	3a 1e		 cmp	 bl, BYTE PTR [esi]
  0003c	75 1c		 jne	 SHORT $L228709
  0003e	84 d2		 test	 dl, dl
  00040	74 14		 je	 SHORT $L228710
  00042	8a 59 01	 mov	 bl, BYTE PTR [ecx+1]
  00045	8a d3		 mov	 dl, bl
  00047	3a 5e 01	 cmp	 bl, BYTE PTR [esi+1]
  0004a	75 0e		 jne	 SHORT $L228709
  0004c	83 c1 02	 add	 ecx, 2
  0004f	83 c6 02	 add	 esi, 2
  00052	84 d2		 test	 dl, dl
  00054	75 e0		 jne	 SHORT $L228708
$L228710:
  00056	33 c9		 xor	 ecx, ecx
  00058	eb 05		 jmp	 SHORT $L228711
$L228709:
  0005a	1b c9		 sbb	 ecx, ecx
  0005c	83 d9 ff	 sbb	 ecx, -1
$L228711:
  0005f	85 c9		 test	 ecx, ecx
  00061	74 0b		 je	 SHORT $L226120
  00063	40		 inc	 eax
  00064	83 c5 68	 add	 ebp, 104		; 00000068H
  00067	3b c7		 cmp	 eax, edi
  00069	7c c5		 jl	 SHORT $L228712
$L226125:

; 69   : 			return i;
; 70   : 	}
; 71   : 
; 72   : 	return -1;

  0006b	83 c8 ff	 or	 eax, -1
$L226120:
  0006e	5f		 pop	 edi
  0006f	5e		 pop	 esi
  00070	5d		 pop	 ebp
  00071	5b		 pop	 ebx

; 73   : }

  00072	c2 04 00	 ret	 4
?GetPlayerIndex@CWantedListSnapshot@@QAEHPBD@Z ENDP	; CWantedListSnapshot::GetPlayerIndex
_TEXT	ENDS
PUBLIC	??$_Uninitialized_fill_n@PAUWANTED_ENTRY@@IU1@V?$allocator@UWANTED_ENTRY@@@std@@@std@@YAXPAUWANTED_ENTRY@@IABU1@AAV?$allocator@UWANTED_ENTRY@@@0@@Z ; std::_Uninitialized_fill_n<WANTED_ENTRY *,unsigned int,WANTED_ENTRY,std::allocator<WANTED_ENTRY> >
; Function compile flags: /Ogty
; File c:\program files\microsoft visual studio .net 2003\vc7\include\memory
;	COMDAT ??$_Uninitialized_fill_n@PAUWANTED_ENTRY@@IU1@V?$allocator@UWANTED_ENTRY@@@std@@@std@@YAXPAUWANTED_ENTRY@@IABU1@AAV?$allocator@UWANTED_ENTRY@@@0@@Z
_TEXT	SEGMENT
__Cat$228720 = -4					; size = 1
__First$ = 8						; size = 4
__Count$ = 12						; size = 4
__Val$ = 16						; size = 4
__Al$ = 20						; size = 4
??$_Uninitialized_fill_n@PAUWANTED_ENTRY@@IU1@V?$allocator@UWANTED_ENTRY@@@std@@@std@@YAXPAUWANTED_ENTRY@@IABU1@AAV?$allocator@UWANTED_ENTRY@@@0@@Z PROC NEAR ; std::_Uninitialized_fill_n<WANTED_ENTRY *,unsigned int,WANTED_ENTRY,std::allocator<WANTED_ENTRY> >, COMDAT

; 255  : 	{	// copy _Count *_Val to raw _First, using _Al

  00000	51		 push	 ecx

; 256  : 	_Uninit_fill_n(_First, _Count, _Val, _Al,
; 257  : 		_Ptr_cat(_First, _First));

  00001	8b 04 24	 mov	 eax, DWORD PTR __Cat$228720[esp+4]
  00004	8b 4c 24 14	 mov	 ecx, DWORD PTR __Al$[esp]
  00008	8b 54 24 10	 mov	 edx, DWORD PTR __Val$[esp]
  0000c	50		 push	 eax
  0000d	8b 44 24 10	 mov	 eax, DWORD PTR __Count$[esp+4]
  00011	51		 push	 ecx
  00012	8b 4c 24 10	 mov	 ecx, DWORD PTR __First$[esp+8]
  00016	52		 push	 edx
  00017	50		 push	 eax
  00018	51		 push	 ecx
  00019	e8 00 00 00 00	 call	 ??$_Uninit_fill_n@PAUWANTED_ENTRY@@IU1@V?$allocator@UWANTED_ENTRY@@@std@@@std@@YAXPAUWANTED_ENTRY@@IABU1@AAV?$allocator@UWANTED_ENTRY@@@0@U_Nonscalar_ptr_iterator_tag@0@@Z ; std::_Uninit_fill_n<WANTED_ENTRY *,unsigned int,WANTED_ENTRY,std::allocator<WANTED_ENTRY> >

; 258  : 	}

  0001e	83 c4 18	 add	 esp, 24			; 00000018H
  00021	c3		 ret	 0
??$_Uninitialized_fill_n@PAUWANTED_ENTRY@@IU1@V?$allocator@UWANTED_ENTRY@@@std@@@std@@YAXPAUWANTED_ENTRY@@IABU1@AAV?$allocator@UWANTED_ENTRY@@@0@@Z ENDP ; std::_Uninitialized_fill_n<WANTED_ENTRY *,unsigned int,WANTED_ENTRY,std::allocator<WANTED_ENTRY> >
_TEXT	ENDS
PUBLIC	??$_Destroy_range@UWANTED_ENTRY@@V?$allocator@UWANTED_ENTRY@@@std@@@std@@YAXPAUWANTED_ENTRY@@0AAV?$allocator@UWANTED_ENTRY@@@0@@Z ; std::_Destroy_range<WANTED_ENTRY,std::allocator<WANTED_ENTRY> >
; Function compile flags: /Ogty
; File c:\program files\microsoft visual studio .net 2003\vc7\include\xmemory
;	COMDAT ??$_Destroy_range@UWANTED_ENTRY@@V?$allocator@UWANTED_ENTRY@@@std@@@std@@YAXPAUWANTED_ENTRY@@0AAV?$allocator@UWANTED_ENTRY@@@0@@Z
_TEXT	SEGMENT
__First$ = 8						; size = 4
__Last$ = 12						; size = 4
__Al$ = 16						; size = 4
??$_Destroy_range@UWANTED_ENTRY@@V?$allocator@UWANTED_ENTRY@@@std@@@std@@YAXPAUWANTED_ENTRY@@0AAV?$allocator@UWANTED_ENTRY@@@0@@Z PROC NEAR ; std::_Destroy_range<WANTED_ENTRY,std::allocator<WANTED_ENTRY> >, COMDAT

; 217  : 	_Destroy_range(_First, _Last, _Al, _Ptr_cat(_First, _Last));
; 218  : 	}

  00000	c3		 ret	 0
??$_Destroy_range@UWANTED_ENTRY@@V?$allocator@UWANTED_ENTRY@@@std@@@std@@YAXPAUWANTED_ENTRY@@0AAV?$allocator@UWANTED_ENTRY@@@0@@Z ENDP ; std::_Destroy_range<WANTED_ENTRY,std::allocator<WANTED_ENTRY> >
_TEXT	ENDS
PUBLIC	??$_Ucopy@PAUWANTED_ENTRY@@@?$vector@UWANTED_ENTRY@@V?$allocator@UWANTED_ENTRY@@@std@@@std@@IAEPAUWANTED_ENTRY@@PAU2@00@Z ; std::vector<WANTED_ENTRY,std::allocator<WANTED_ENTRY> >::_Ucopy<WANTED_ENTRY *>
; Function compile flags: /Ogty
; File c:\program files\microsoft visual studio .net 2003\vc7\include\vector
;	COMDAT ??$_Ucopy@PAUWANTED_ENTRY@@@?$vector@UWANTED_ENTRY@@V?$allocator@UWANTED_ENTRY@@@std@@@std@@IAEPAUWANTED_ENTRY@@PAU2@00@Z
_TEXT	SEGMENT
__First$ = 8						; size = 4
__Last$ = 12						; size = 4
__Cat$228742 = 16					; size = 1
__Ptr$ = 16						; size = 4
??$_Ucopy@PAUWANTED_ENTRY@@@?$vector@UWANTED_ENTRY@@V?$allocator@UWANTED_ENTRY@@@std@@@std@@IAEPAUWANTED_ENTRY@@PAU2@00@Z PROC NEAR ; std::vector<WANTED_ENTRY,std::allocator<WANTED_ENTRY> >::_Ucopy<WANTED_ENTRY *>, COMDAT
; _this$ = ecx

; 802  : 		{	// copy initializing [_First, _Last), using allocator
; 803  : 		return (_Uninitialized_copy(_First, _Last,
; 804  : 			_Ptr, this->_Alval));

  00000	8b 44 24 0c	 mov	 eax, DWORD PTR __Cat$228742[esp-4]
  00004	8b 54 24 08	 mov	 edx, DWORD PTR __Last$[esp-4]
  00008	50		 push	 eax
  00009	8b 44 24 08	 mov	 eax, DWORD PTR __First$[esp]
  0000d	51		 push	 ecx
  0000e	8b 4c 24 14	 mov	 ecx, DWORD PTR __Ptr$[esp+4]
  00012	51		 push	 ecx
  00013	52		 push	 edx
  00014	50		 push	 eax
  00015	e8 00 00 00 00	 call	 ??$_Uninit_copy@PAUWANTED_ENTRY@@PAU1@V?$allocator@UWANTED_ENTRY@@@std@@@std@@YAPAUWANTED_ENTRY@@PAU1@00AAV?$allocator@UWANTED_ENTRY@@@0@U_Nonscalar_ptr_iterator_tag@0@@Z ; std::_Uninit_copy<WANTED_ENTRY *,WANTED_ENTRY *,std::allocator<WANTED_ENTRY> >
  0001a	83 c4 14	 add	 esp, 20			; 00000014H

; 805  : 		}

  0001d	c2 0c 00	 ret	 12			; 0000000cH
??$_Ucopy@PAUWANTED_ENTRY@@@?$vector@UWANTED_ENTRY@@V?$allocator@UWANTED_ENTRY@@@std@@@std@@IAEPAUWANTED_ENTRY@@PAU2@00@Z ENDP ; std::vector<WANTED_ENTRY,std::allocator<WANTED_ENTRY> >::_Ucopy<WANTED_ENTRY *>
_TEXT	ENDS
PUBLIC	??1?$basic_string@DU?$char_traits@D@std@@V?$allocator@D@2@@std@@QAE@XZ ; std::basic_string<char,std::char_traits<char>,std::allocator<char> >::~basic_string<char,std::char_traits<char>,std::allocator<char> >
; Function compile flags: /Ogty
; File c:\program files\microsoft visual studio .net 2003\vc7\include\xstring
;	COMDAT ??1?$basic_string@DU?$char_traits@D@std@@V?$allocator@D@2@@std@@QAE@XZ
_TEXT	SEGMENT
??1?$basic_string@DU?$char_traits@D@std@@V?$allocator@D@2@@std@@QAE@XZ PROC NEAR ; std::basic_string<char,std::char_traits<char>,std::allocator<char> >::~basic_string<char,std::char_traits<char>,std::allocator<char> >, COMDAT
; _this$ = ecx

; 456  : 		{	// destroy the string

  00000	56		 push	 esi
  00001	8b f1		 mov	 esi, ecx

; 457  : 		_Tidy(true);

  00003	83 7e 18 10	 cmp	 DWORD PTR [esi+24], 16	; 00000010H
  00007	72 0c		 jb	 SHORT $L228782
  00009	8b 46 04	 mov	 eax, DWORD PTR [esi+4]
  0000c	50		 push	 eax
  0000d	e8 00 00 00 00	 call	 ??3@YAXPAX@Z		; operator delete
  00012	83 c4 04	 add	 esp, 4
$L228782:
  00015	33 c0		 xor	 eax, eax
  00017	c7 46 18 0f 00
	00 00		 mov	 DWORD PTR [esi+24], 15	; 0000000fH
  0001e	89 46 14	 mov	 DWORD PTR [esi+20], eax
  00021	88 46 04	 mov	 BYTE PTR [esi+4], al
  00024	5e		 pop	 esi

; 458  : 		}

  00025	c3		 ret	 0
??1?$basic_string@DU?$char_traits@D@std@@V?$allocator@D@2@@std@@QAE@XZ ENDP ; std::basic_string<char,std::char_traits<char>,std::allocator<char> >::~basic_string<char,std::char_traits<char>,std::allocator<char> >
_TEXT	ENDS
PUBLIC	?_Grow@?$basic_string@DU?$char_traits@D@std@@V?$allocator@D@2@@std@@IAE_NI_N@Z ; std::basic_string<char,std::char_traits<char>,std::allocator<char> >::_Grow
EXTRN	?_Xlen@_String_base@std@@QBEXXZ:NEAR		; std::_String_base::_Xlen
; Function compile flags: /Ogty
;	COMDAT ?_Grow@?$basic_string@DU?$char_traits@D@std@@V?$allocator@D@2@@std@@IAE_NI_N@Z
_TEXT	SEGMENT
__Newsize$ = 8						; size = 4
__Trim$ = 12						; size = 1
?_Grow@?$basic_string@DU?$char_traits@D@std@@V?$allocator@D@2@@std@@IAE_NI_N@Z PROC NEAR ; std::basic_string<char,std::char_traits<char>,std::allocator<char> >::_Grow, COMDAT
; _this$ = ecx

; 1480 : 		{	// ensure buffer is big enough, trim to size if _Trim is true

  00000	55		 push	 ebp
  00001	56		 push	 esi

; 1481 : 		if (max_size() < _Newsize)

  00002	8b 74 24 0c	 mov	 esi, DWORD PTR __Newsize$[esp+4]
  00006	83 fe fe	 cmp	 esi, -2			; fffffffeH
  00009	8b e9		 mov	 ebp, ecx
  0000b	76 05		 jbe	 SHORT $L221380

; 1482 : 			_String_base::_Xlen();	// result too long

  0000d	e8 00 00 00 00	 call	 ?_Xlen@_String_base@std@@QBEXXZ ; std::_String_base::_Xlen
$L221380:

; 1483 : 		if (_Myres < _Newsize)

  00012	8b 45 18	 mov	 eax, DWORD PTR [ebp+24]
  00015	3b c6		 cmp	 eax, esi
  00017	73 19		 jae	 SHORT $L221381

; 1484 : 			_Copy(_Newsize, _Mysize);	// reallocate to grow

  00019	8b 45 14	 mov	 eax, DWORD PTR [ebp+20]
  0001c	50		 push	 eax
  0001d	56		 push	 esi
  0001e	8b cd		 mov	 ecx, ebp
  00020	e8 00 00 00 00	 call	 ?_Copy@?$basic_string@DU?$char_traits@D@std@@V?$allocator@D@2@@std@@IAEXII@Z ; std::basic_string<char,std::char_traits<char>,std::allocator<char> >::_Copy

; 1490 : 		return (0 < _Newsize);	// return true only if more work to do

  00025	33 c0		 xor	 eax, eax
  00027	3b c6		 cmp	 eax, esi
  00029	1b c0		 sbb	 eax, eax
  0002b	5e		 pop	 esi
  0002c	f7 d8		 neg	 eax
  0002e	5d		 pop	 ebp

; 1491 : 		}

  0002f	c2 08 00	 ret	 8
$L221381:

; 1485 : 		else if (_Trim && _Newsize < _BUF_SIZE)

  00032	8a 4c 24 10	 mov	 cl, BYTE PTR __Trim$[esp+4]
  00036	84 c9		 test	 cl, cl
  00038	74 5c		 je	 SHORT $L221383
  0003a	83 fe 10	 cmp	 esi, 16			; 00000010H
  0003d	73 57		 jae	 SHORT $L221383
  0003f	53		 push	 ebx

; 1486 : 			_Tidy(true,	// copy and deallocate if trimming to small string
; 1487 : 				_Newsize < _Mysize ? _Newsize : _Mysize);

  00040	8b 5d 14	 mov	 ebx, DWORD PTR [ebp+20]
  00043	3b f3		 cmp	 esi, ebx
  00045	73 02		 jae	 SHORT $L228803
  00047	8b de		 mov	 ebx, esi
$L228803:
  00049	83 f8 10	 cmp	 eax, 16			; 00000010H
  0004c	72 2b		 jb	 SHORT $L228857
  0004e	85 db		 test	 ebx, ebx
  00050	8b 45 04	 mov	 eax, DWORD PTR [ebp+4]
  00053	57		 push	 edi
  00054	8d 7d 04	 lea	 edi, DWORD PTR [ebp+4]
  00057	76 16		 jbe	 SHORT $L228855
  00059	8b cb		 mov	 ecx, ebx
  0005b	8b d1		 mov	 edx, ecx
  0005d	c1 e9 02	 shr	 ecx, 2
  00060	8b f0		 mov	 esi, eax
  00062	f3 a5		 rep movsd
  00064	8b ca		 mov	 ecx, edx
  00066	83 e1 03	 and	 ecx, 3
  00069	f3 a4		 rep movsb
  0006b	8b 74 24 14	 mov	 esi, DWORD PTR __Newsize$[esp+12]
$L228855:
  0006f	50		 push	 eax
  00070	e8 00 00 00 00	 call	 ??3@YAXPAX@Z		; operator delete
  00075	83 c4 04	 add	 esp, 4
  00078	5f		 pop	 edi
$L228857:
  00079	89 5d 14	 mov	 DWORD PTR [ebp+20], ebx

; 1490 : 		return (0 < _Newsize);	// return true only if more work to do

  0007c	33 c0		 xor	 eax, eax
  0007e	c7 45 18 0f 00
	00 00		 mov	 DWORD PTR [ebp+24], 15	; 0000000fH
  00085	c6 44 2b 04 00	 mov	 BYTE PTR [ebx+ebp+4], 0
  0008a	3b c6		 cmp	 eax, esi
  0008c	5b		 pop	 ebx
  0008d	1b c0		 sbb	 eax, eax
  0008f	5e		 pop	 esi
  00090	f7 d8		 neg	 eax
  00092	5d		 pop	 ebp

; 1491 : 		}

  00093	c2 08 00	 ret	 8
$L221383:

; 1488 : 		else if (_Newsize == 0)

  00096	85 f6		 test	 esi, esi
  00098	75 23		 jne	 SHORT $L228894

; 1489 : 			_Eos(0);	// new size is zero, just null terminate

  0009a	83 f8 10	 cmp	 eax, 16			; 00000010H
  0009d	89 75 14	 mov	 DWORD PTR [ebp+20], esi
  000a0	72 14		 jb	 SHORT $L228892
  000a2	8b 6d 04	 mov	 ebp, DWORD PTR [ebp+4]

; 1490 : 		return (0 < _Newsize);	// return true only if more work to do

  000a5	33 c0		 xor	 eax, eax
  000a7	3b c6		 cmp	 eax, esi
  000a9	1b c0		 sbb	 eax, eax
  000ab	5e		 pop	 esi
  000ac	c6 45 00 00	 mov	 BYTE PTR [ebp], 0
  000b0	f7 d8		 neg	 eax
  000b2	5d		 pop	 ebp

; 1491 : 		}

  000b3	c2 08 00	 ret	 8

; 1489 : 			_Eos(0);	// new size is zero, just null terminate

$L228892:
  000b6	83 c5 04	 add	 ebp, 4
  000b9	c6 45 00 00	 mov	 BYTE PTR [ebp], 0
$L228894:

; 1490 : 		return (0 < _Newsize);	// return true only if more work to do

  000bd	33 c0		 xor	 eax, eax
  000bf	3b c6		 cmp	 eax, esi
  000c1	1b c0		 sbb	 eax, eax
  000c3	5e		 pop	 esi
  000c4	f7 d8		 neg	 eax
  000c6	5d		 pop	 ebp

; 1491 : 		}

  000c7	c2 08 00	 ret	 8
?_Grow@?$basic_string@DU?$char_traits@D@std@@V?$allocator@D@2@@std@@IAE_NI_N@Z ENDP ; std::basic_string<char,std::char_traits<char>,std::allocator<char> >::_Grow
_TEXT	ENDS
PUBLIC	?_Ufill@?$vector@UWANTED_ENTRY@@V?$allocator@UWANTED_ENTRY@@@std@@@std@@IAEPAUWANTED_ENTRY@@PAU3@IABU3@@Z ; std::vector<WANTED_ENTRY,std::allocator<WANTED_ENTRY> >::_Ufill
; Function compile flags: /Ogty
; File c:\program files\microsoft visual studio .net 2003\vc7\include\vector
;	COMDAT ?_Ufill@?$vector@UWANTED_ENTRY@@V?$allocator@UWANTED_ENTRY@@@std@@@std@@IAEPAUWANTED_ENTRY@@PAU3@IABU3@@Z
_TEXT	SEGMENT
__Ptr$ = 8						; size = 4
__Count$ = 12						; size = 4
__Cat$228911 = 16					; size = 1
__Val$ = 16						; size = 4
?_Ufill@?$vector@UWANTED_ENTRY@@V?$allocator@UWANTED_ENTRY@@@std@@@std@@IAEPAUWANTED_ENTRY@@PAU3@IABU3@@Z PROC NEAR ; std::vector<WANTED_ENTRY,std::allocator<WANTED_ENTRY> >::_Ufill, COMDAT
; _this$ = ecx

; 878  : 		_Uninitialized_fill_n(_Ptr, _Count, _Val, this->_Alval);

  00000	8b 44 24 0c	 mov	 eax, DWORD PTR __Cat$228911[esp-4]
  00004	56		 push	 esi
  00005	8b 74 24 0c	 mov	 esi, DWORD PTR __Count$[esp]
  00009	57		 push	 edi
  0000a	8b 7c 24 0c	 mov	 edi, DWORD PTR __Ptr$[esp+4]
  0000e	50		 push	 eax
  0000f	51		 push	 ecx
  00010	8b 4c 24 1c	 mov	 ecx, DWORD PTR __Val$[esp+12]
  00014	51		 push	 ecx
  00015	56		 push	 esi
  00016	57		 push	 edi
  00017	e8 00 00 00 00	 call	 ??$_Uninit_fill_n@PAUWANTED_ENTRY@@IU1@V?$allocator@UWANTED_ENTRY@@@std@@@std@@YAXPAUWANTED_ENTRY@@IABU1@AAV?$allocator@UWANTED_ENTRY@@@0@U_Nonscalar_ptr_iterator_tag@0@@Z ; std::_Uninit_fill_n<WANTED_ENTRY *,unsigned int,WANTED_ENTRY,std::allocator<WANTED_ENTRY> >

; 879  : 		return (_Ptr + _Count);

  0001c	8b c6		 mov	 eax, esi
  0001e	6b c0 68	 imul	 eax, 104		; 00000068H
  00021	83 c4 14	 add	 esp, 20			; 00000014H
  00024	03 c7		 add	 eax, edi
  00026	5f		 pop	 edi
  00027	5e		 pop	 esi

; 880  : 		}

  00028	c2 0c 00	 ret	 12			; 0000000cH
?_Ufill@?$vector@UWANTED_ENTRY@@V?$allocator@UWANTED_ENTRY@@@std@@@std@@IAEPAUWANTED_ENTRY@@PAU3@IABU3@@Z ENDP ; std::vector<WANTED_ENTRY,std::allocator<WANTED_ENTRY> >::_Ufill
_TEXT	ENDS
PUBLIC	?_Destroy@?$vector@UWANTED_ENTRY@@V?$allocator@UWANTED_ENTRY@@@std@@@std@@IAEXPAUWANTED_ENTRY@@0@Z ; std::vector<WANTED_ENTRY,std::allocator<WANTED_ENTRY> >::_Destroy
; Function compile flags: /Ogty
;	COMDAT ?_Destroy@?$vector@UWANTED_ENTRY@@V?$allocator@UWANTED_ENTRY@@@std@@@std@@IAEXPAUWANTED_ENTRY@@0@Z
_TEXT	SEGMENT
__First$ = 8						; size = 4
__Last$ = 12						; size = 4
?_Destroy@?$vector@UWANTED_ENTRY@@V?$allocator@UWANTED_ENTRY@@@std@@@std@@IAEXPAUWANTED_ENTRY@@0@Z PROC NEAR ; std::vector<WANTED_ENTRY,std::allocator<WANTED_ENTRY> >::_Destroy, COMDAT
; _this$ = ecx

; 787  : 		_Destroy_range(_First, _Last, this->_Alval);
; 788  : 		}

  00000	c2 08 00	 ret	 8
?_Destroy@?$vector@UWANTED_ENTRY@@V?$allocator@UWANTED_ENTRY@@@std@@@std@@IAEXPAUWANTED_ENTRY@@0@Z ENDP ; std::vector<WANTED_ENTRY,std::allocator<WANTED_ENTRY> >::_Destroy
_TEXT	ENDS
PUBLIC	??1logic_error@std@@UAE@XZ			; std::logic_error::~logic_error
PUBLIC	?what@logic_error@std@@UBEPBDXZ			; std::logic_error::what
PUBLIC	??_7logic_error@std@@6B@			; std::logic_error::`vftable'
PUBLIC	??_Glogic_error@std@@UAEPAXI@Z			; std::logic_error::`scalar deleting destructor'
EXTRN	??1exception@@UAE@XZ:NEAR			; exception::~exception
EXTRN	??_Elogic_error@std@@UAEPAXI@Z:NEAR		; std::logic_error::`vector deleting destructor'
;	COMDAT ??_7logic_error@std@@6B@
; File c:\program files\microsoft visual studio .net 2003\vc7\include\iosfwd
CONST	SEGMENT
??_7logic_error@std@@6B@ DD FLAT:??_Elogic_error@std@@UAEPAXI@Z ; std::logic_error::`vftable'
	DD	FLAT:?what@logic_error@std@@UBEPBDXZ
; Function compile flags: /Ogty
; File c:\program files\microsoft visual studio .net 2003\vc7\include\stdexcept
CONST	ENDS
;	COMDAT ??1logic_error@std@@UAE@XZ
_TEXT	SEGMENT
??1logic_error@std@@UAE@XZ PROC NEAR			; std::logic_error::~logic_error, COMDAT
; _this$ = ecx

; 23   : 		{}	// destroy the object

  00000	56		 push	 esi
  00001	8b f1		 mov	 esi, ecx
  00003	c7 06 00 00 00
	00		 mov	 DWORD PTR [esi], OFFSET FLAT:??_7logic_error@std@@6B@
  00009	83 7e 24 10	 cmp	 DWORD PTR [esi+36], 16	; 00000010H
  0000d	72 0c		 jb	 SHORT $L228977
  0000f	8b 46 10	 mov	 eax, DWORD PTR [esi+16]
  00012	50		 push	 eax
  00013	e8 00 00 00 00	 call	 ??3@YAXPAX@Z		; operator delete
  00018	83 c4 04	 add	 esp, 4
$L228977:
  0001b	33 c0		 xor	 eax, eax
  0001d	c7 46 24 0f 00
	00 00		 mov	 DWORD PTR [esi+36], 15	; 0000000fH
  00024	89 46 20	 mov	 DWORD PTR [esi+32], eax
  00027	88 46 10	 mov	 BYTE PTR [esi+16], al
  0002a	8b ce		 mov	 ecx, esi
  0002c	5e		 pop	 esi
  0002d	e9 00 00 00 00	 jmp	 ??1exception@@UAE@XZ	; exception::~exception
??1logic_error@std@@UAE@XZ ENDP				; std::logic_error::~logic_error
; Function compile flags: /Ogty
_TEXT	ENDS
;	COMDAT ?what@logic_error@std@@UBEPBDXZ
_TEXT	SEGMENT
?what@logic_error@std@@UBEPBDXZ PROC NEAR		; std::logic_error::what, COMDAT
; _this$ = ecx

; 27   : 		return (_Str.c_str());

  00000	83 79 24 10	 cmp	 DWORD PTR [ecx+36], 16	; 00000010H
  00004	72 04		 jb	 SHORT $L229010
  00006	8b 41 10	 mov	 eax, DWORD PTR [ecx+16]

; 28   : 		}

  00009	c3		 ret	 0

; 27   : 		return (_Str.c_str());

$L229010:
  0000a	8d 41 10	 lea	 eax, DWORD PTR [ecx+16]

; 28   : 		}

  0000d	c3		 ret	 0
?what@logic_error@std@@UBEPBDXZ ENDP			; std::logic_error::what
; Function compile flags: /Ogty
_TEXT	ENDS
;	COMDAT ??_Glogic_error@std@@UAEPAXI@Z
_TEXT	SEGMENT
___flags$ = 8						; size = 4
??_Glogic_error@std@@UAEPAXI@Z PROC NEAR		; std::logic_error::`scalar deleting destructor', COMDAT
; _this$ = ecx
  00000	56		 push	 esi
  00001	8b f1		 mov	 esi, ecx
  00003	e8 00 00 00 00	 call	 ??1logic_error@std@@UAE@XZ ; std::logic_error::~logic_error
  00008	f6 44 24 08 01	 test	 BYTE PTR ___flags$[esp], 1
  0000d	74 09		 je	 SHORT $L229017
  0000f	56		 push	 esi
  00010	e8 00 00 00 00	 call	 ??3@YAXPAX@Z		; operator delete
  00015	83 c4 04	 add	 esp, 4
$L229017:
  00018	8b c6		 mov	 eax, esi
  0001a	5e		 pop	 esi
  0001b	c2 04 00	 ret	 4
??_Glogic_error@std@@UAEPAXI@Z ENDP			; std::logic_error::`scalar deleting destructor'
_TEXT	ENDS
PUBLIC	?assign@?$basic_string@DU?$char_traits@D@std@@V?$allocator@D@2@@std@@QAEAAV12@ABV12@II@Z ; std::basic_string<char,std::char_traits<char>,std::allocator<char> >::assign
; Function compile flags: /Ogty
; File c:\program files\microsoft visual studio .net 2003\vc7\include\xstring
;	COMDAT ?assign@?$basic_string@DU?$char_traits@D@std@@V?$allocator@D@2@@std@@QAEAAV12@ABV12@II@Z
_TEXT	SEGMENT
__Right$ = 8						; size = 4
__Roff$ = 12						; size = 4
__Count$ = 16						; size = 4
?assign@?$basic_string@DU?$char_traits@D@std@@V?$allocator@D@2@@std@@QAEAAV12@ABV12@II@Z PROC NEAR ; std::basic_string<char,std::char_traits<char>,std::allocator<char> >::assign, COMDAT
; _this$ = ecx

; 590  : 		{	// assign _Right [_Roff, _Roff + _Count)

  00000	53		 push	 ebx
  00001	55		 push	 ebp
  00002	56		 push	 esi

; 591  : 		if (_Right.size() < _Roff)

  00003	8b 74 24 14	 mov	 esi, DWORD PTR __Roff$[esp+8]
  00007	57		 push	 edi
  00008	8b 7c 24 14	 mov	 edi, DWORD PTR __Right$[esp+12]
  0000c	39 77 14	 cmp	 DWORD PTR [edi+20], esi
  0000f	8b d9		 mov	 ebx, ecx
  00011	73 05		 jae	 SHORT $L220001

; 592  : 			_String_base::_Xran();	// _Roff off end

  00013	e8 00 00 00 00	 call	 ?_Xran@_String_base@std@@QBEXXZ ; std::_String_base::_Xran
$L220001:

; 593  : 		size_type _Num = _Right.size() - _Roff;

  00018	8b 6f 14	 mov	 ebp, DWORD PTR [edi+20]

; 594  : 		if (_Count < _Num)

  0001b	8b 44 24 1c	 mov	 eax, DWORD PTR __Count$[esp+12]
  0001f	2b ee		 sub	 ebp, esi
  00021	3b c5		 cmp	 eax, ebp
  00023	73 02		 jae	 SHORT $L220003

; 595  : 			_Num = _Count;	// trim _Num to size

  00025	8b e8		 mov	 ebp, eax
$L220003:

; 596  : 
; 597  : 		if (this == &_Right)

  00027	3b df		 cmp	 ebx, edi
  00029	75 1f		 jne	 SHORT $L220004

; 598  : 			erase((size_type)(_Roff + _Num)), erase(0, _Roff);	// substring

  0002b	6a ff		 push	 -1
  0002d	03 ee		 add	 ebp, esi
  0002f	55		 push	 ebp
  00030	8b cb		 mov	 ecx, ebx
  00032	e8 00 00 00 00	 call	 ?erase@?$basic_string@DU?$char_traits@D@std@@V?$allocator@D@2@@std@@QAEAAV12@II@Z ; std::basic_string<char,std::char_traits<char>,std::allocator<char> >::erase
  00037	56		 push	 esi
  00038	6a 00		 push	 0
  0003a	8b cb		 mov	 ecx, ebx
  0003c	e8 00 00 00 00	 call	 ?erase@?$basic_string@DU?$char_traits@D@std@@V?$allocator@D@2@@std@@QAEAAV12@II@Z ; std::basic_string<char,std::char_traits<char>,std::allocator<char> >::erase
  00041	5f		 pop	 edi
  00042	5e		 pop	 esi
  00043	5d		 pop	 ebp

; 603  : 			}
; 604  : 		return (*this);

  00044	8b c3		 mov	 eax, ebx
  00046	5b		 pop	 ebx

; 605  : 		}

  00047	c2 0c 00	 ret	 12			; 0000000cH
$L220004:

; 599  : 		else if (_Grow(_Num))

  0004a	83 fd fe	 cmp	 ebp, -2			; fffffffeH
  0004d	76 07		 jbe	 SHORT $L229126
  0004f	8b cb		 mov	 ecx, ebx
  00051	e8 00 00 00 00	 call	 ?_Xlen@_String_base@std@@QBEXXZ ; std::_String_base::_Xlen
$L229126:
  00056	8b 43 18	 mov	 eax, DWORD PTR [ebx+24]
  00059	3b c5		 cmp	 eax, ebp
  0005b	73 21		 jae	 SHORT $L229127
  0005d	8b 43 14	 mov	 eax, DWORD PTR [ebx+20]
  00060	50		 push	 eax
  00061	55		 push	 ebp
  00062	8b cb		 mov	 ecx, ebx
  00064	e8 00 00 00 00	 call	 ?_Copy@?$basic_string@DU?$char_traits@D@std@@V?$allocator@D@2@@std@@IAEXII@Z ; std::basic_string<char,std::char_traits<char>,std::allocator<char> >::_Copy
  00069	85 ed		 test	 ebp, ebp
$L229214:
  0006b	76 6d		 jbe	 SHORT $L229213

; 600  : 			{	// make room and assign new stuff
; 601  : 			_Traits::copy(_Myptr(), _Right._Myptr() + _Roff, _Num);

  0006d	8b 4f 18	 mov	 ecx, DWORD PTR [edi+24]
  00070	b8 10 00 00 00	 mov	 eax, 16			; 00000010H
  00075	3b c8		 cmp	 ecx, eax
  00077	72 2f		 jb	 SHORT $L229178
  00079	8b 57 04	 mov	 edx, DWORD PTR [edi+4]
  0007c	eb 2d		 jmp	 SHORT $L229179

; 599  : 		else if (_Grow(_Num))

$L229127:
  0007e	85 ed		 test	 ebp, ebp
  00080	75 e9		 jne	 SHORT $L229214
  00082	83 f8 10	 cmp	 eax, 16			; 00000010H
  00085	89 6b 14	 mov	 DWORD PTR [ebx+20], ebp
  00088	72 0f		 jb	 SHORT $L229170
  0008a	8b 43 04	 mov	 eax, DWORD PTR [ebx+4]
  0008d	5f		 pop	 edi
  0008e	5e		 pop	 esi
  0008f	c6 00 00	 mov	 BYTE PTR [eax], 0
  00092	5d		 pop	 ebp

; 603  : 			}
; 604  : 		return (*this);

  00093	8b c3		 mov	 eax, ebx
  00095	5b		 pop	 ebx

; 605  : 		}

  00096	c2 0c 00	 ret	 12			; 0000000cH

; 599  : 		else if (_Grow(_Num))

$L229170:
  00099	5f		 pop	 edi
  0009a	8d 43 04	 lea	 eax, DWORD PTR [ebx+4]
  0009d	5e		 pop	 esi
  0009e	c6 00 00	 mov	 BYTE PTR [eax], 0
  000a1	5d		 pop	 ebp

; 603  : 			}
; 604  : 		return (*this);

  000a2	8b c3		 mov	 eax, ebx
  000a4	5b		 pop	 ebx

; 605  : 		}

  000a5	c2 0c 00	 ret	 12			; 0000000cH

; 600  : 			{	// make room and assign new stuff
; 601  : 			_Traits::copy(_Myptr(), _Right._Myptr() + _Roff, _Num);

$L229178:
  000a8	8d 57 04	 lea	 edx, DWORD PTR [edi+4]
$L229179:
  000ab	39 43 18	 cmp	 DWORD PTR [ebx+24], eax
  000ae	8d 43 04	 lea	 eax, DWORD PTR [ebx+4]
  000b1	72 04		 jb	 SHORT $L229186
  000b3	8b 38		 mov	 edi, DWORD PTR [eax]
  000b5	eb 02		 jmp	 SHORT $L229187
$L229186:
  000b7	8b f8		 mov	 edi, eax
$L229187:
  000b9	03 f2		 add	 esi, edx
  000bb	8b cd		 mov	 ecx, ebp
  000bd	8b d1		 mov	 edx, ecx
  000bf	c1 e9 02	 shr	 ecx, 2
  000c2	f3 a5		 rep movsd
  000c4	8b ca		 mov	 ecx, edx
  000c6	83 e1 03	 and	 ecx, 3
  000c9	f3 a4		 rep movsb

; 602  : 			_Eos(_Num);

  000cb	83 7b 18 10	 cmp	 DWORD PTR [ebx+24], 16	; 00000010H
  000cf	89 6b 14	 mov	 DWORD PTR [ebx+20], ebp
  000d2	72 02		 jb	 SHORT $L229210
  000d4	8b 00		 mov	 eax, DWORD PTR [eax]
$L229210:
  000d6	c6 04 28 00	 mov	 BYTE PTR [eax+ebp], 0
$L229213:
  000da	5f		 pop	 edi
  000db	5e		 pop	 esi
  000dc	5d		 pop	 ebp

; 603  : 			}
; 604  : 		return (*this);

  000dd	8b c3		 mov	 eax, ebx
  000df	5b		 pop	 ebx

; 605  : 		}

  000e0	c2 0c 00	 ret	 12			; 0000000cH
?assign@?$basic_string@DU?$char_traits@D@std@@V?$allocator@D@2@@std@@QAEAAV12@ABV12@II@Z ENDP ; std::basic_string<char,std::char_traits<char>,std::allocator<char> >::assign
_TEXT	ENDS
PUBLIC	?assign@?$basic_string@DU?$char_traits@D@std@@V?$allocator@D@2@@std@@QAEAAV12@PBDI@Z ; std::basic_string<char,std::char_traits<char>,std::allocator<char> >::assign
; Function compile flags: /Ogty
;	COMDAT ?assign@?$basic_string@DU?$char_traits@D@std@@V?$allocator@D@2@@std@@QAEAAV12@PBDI@Z
_TEXT	SEGMENT
__Ptr$ = 8						; size = 4
__Num$ = 12						; size = 4
?assign@?$basic_string@DU?$char_traits@D@std@@V?$allocator@D@2@@std@@QAEAAV12@PBDI@Z PROC NEAR ; std::basic_string<char,std::char_traits<char>,std::allocator<char> >::assign, COMDAT
; _this$ = ecx

; 608  : 		{	// assign [_Ptr, _Ptr + _Num)

  00000	53		 push	 ebx
  00001	8b d9		 mov	 ebx, ecx

; 609  : 		if (_Inside(_Ptr))

  00003	8b 53 18	 mov	 edx, DWORD PTR [ebx+24]
  00006	83 fa 10	 cmp	 edx, 16			; 00000010H
  00009	56		 push	 esi
  0000a	57		 push	 edi
  0000b	72 05		 jb	 SHORT $L229240
  0000d	8b 43 04	 mov	 eax, DWORD PTR [ebx+4]
  00010	eb 03		 jmp	 SHORT $L229241
$L229240:
  00012	8d 43 04	 lea	 eax, DWORD PTR [ebx+4]
$L229241:
  00015	8b 74 24 10	 mov	 esi, DWORD PTR __Ptr$[esp+8]
  00019	3b f0		 cmp	 esi, eax
  0001b	72 34		 jb	 SHORT $L221367
  0001d	83 fa 10	 cmp	 edx, 16			; 00000010H
  00020	8d 43 04	 lea	 eax, DWORD PTR [ebx+4]
  00023	72 04		 jb	 SHORT $L229244
  00025	8b 08		 mov	 ecx, DWORD PTR [eax]
  00027	eb 02		 jmp	 SHORT $L229245
$L229244:
  00029	8b c8		 mov	 ecx, eax
$L229245:
  0002b	8b 7b 14	 mov	 edi, DWORD PTR [ebx+20]
  0002e	03 f9		 add	 edi, ecx
  00030	3b fe		 cmp	 edi, esi
  00032	76 1d		 jbe	 SHORT $L221367

; 610  : 			return (assign(*this, _Ptr - _Myptr(), _Num));	// substring

  00034	83 fa 10	 cmp	 edx, 16			; 00000010H
  00037	72 02		 jb	 SHORT $L229253
  00039	8b 00		 mov	 eax, DWORD PTR [eax]
$L229253:
  0003b	8b 4c 24 14	 mov	 ecx, DWORD PTR __Num$[esp+8]
  0003f	51		 push	 ecx
  00040	2b f0		 sub	 esi, eax
  00042	56		 push	 esi
  00043	53		 push	 ebx
  00044	8b cb		 mov	 ecx, ebx
  00046	e8 00 00 00 00	 call	 ?assign@?$basic_string@DU?$char_traits@D@std@@V?$allocator@D@2@@std@@QAEAAV12@ABV12@II@Z ; std::basic_string<char,std::char_traits<char>,std::allocator<char> >::assign
  0004b	5f		 pop	 edi
  0004c	5e		 pop	 esi
  0004d	5b		 pop	 ebx

; 618  : 		}

  0004e	c2 08 00	 ret	 8
$L221367:
  00051	55		 push	 ebp

; 611  : 
; 612  : 		if (_Grow(_Num))

  00052	8b 6c 24 18	 mov	 ebp, DWORD PTR __Num$[esp+12]
  00056	83 fd fe	 cmp	 ebp, -2			; fffffffeH
  00059	76 07		 jbe	 SHORT $L229351
  0005b	8b cb		 mov	 ecx, ebx
  0005d	e8 00 00 00 00	 call	 ?_Xlen@_String_base@std@@QBEXXZ ; std::_String_base::_Xlen
$L229351:
  00062	8b 43 18	 mov	 eax, DWORD PTR [ebx+24]
  00065	3b c5		 cmp	 eax, ebp
  00067	73 1b		 jae	 SHORT $L229352
  00069	8b 53 14	 mov	 edx, DWORD PTR [ebx+20]
  0006c	52		 push	 edx
  0006d	55		 push	 ebp
  0006e	8b cb		 mov	 ecx, ebx
  00070	e8 00 00 00 00	 call	 ?_Copy@?$basic_string@DU?$char_traits@D@std@@V?$allocator@D@2@@std@@IAEXII@Z ; std::basic_string<char,std::char_traits<char>,std::allocator<char> >::_Copy
  00075	85 ed		 test	 ebp, ebp
$L229432:
  00077	76 68		 jbe	 SHORT $L229428

; 613  : 			{	// make room and assign new stuff
; 614  : 			_Traits::copy(_Myptr(), _Ptr, _Num);

  00079	83 7b 18 10	 cmp	 DWORD PTR [ebx+24], 16	; 00000010H
  0007d	72 2f		 jb	 SHORT $L229403
  0007f	8b 7b 04	 mov	 edi, DWORD PTR [ebx+4]
  00082	eb 2d		 jmp	 SHORT $L229404

; 611  : 
; 612  : 		if (_Grow(_Num))

$L229352:
  00084	85 ed		 test	 ebp, ebp
  00086	75 ef		 jne	 SHORT $L229432
  00088	83 f8 10	 cmp	 eax, 16			; 00000010H
  0008b	89 6b 14	 mov	 DWORD PTR [ebx+20], ebp
  0008e	72 0f		 jb	 SHORT $L229395
  00090	8b 43 04	 mov	 eax, DWORD PTR [ebx+4]
  00093	5d		 pop	 ebp
  00094	5f		 pop	 edi
  00095	c6 00 00	 mov	 BYTE PTR [eax], 0
  00098	5e		 pop	 esi

; 616  : 			}
; 617  : 		return (*this);

  00099	8b c3		 mov	 eax, ebx
  0009b	5b		 pop	 ebx

; 618  : 		}

  0009c	c2 08 00	 ret	 8

; 611  : 
; 612  : 		if (_Grow(_Num))

$L229395:
  0009f	5d		 pop	 ebp
  000a0	8d 43 04	 lea	 eax, DWORD PTR [ebx+4]
  000a3	5f		 pop	 edi
  000a4	c6 00 00	 mov	 BYTE PTR [eax], 0
  000a7	5e		 pop	 esi

; 616  : 			}
; 617  : 		return (*this);

  000a8	8b c3		 mov	 eax, ebx
  000aa	5b		 pop	 ebx

; 618  : 		}

  000ab	c2 08 00	 ret	 8

; 613  : 			{	// make room and assign new stuff
; 614  : 			_Traits::copy(_Myptr(), _Ptr, _Num);

$L229403:
  000ae	8d 7b 04	 lea	 edi, DWORD PTR [ebx+4]
$L229404:
  000b1	8b cd		 mov	 ecx, ebp
  000b3	8b c1		 mov	 eax, ecx
  000b5	c1 e9 02	 shr	 ecx, 2
  000b8	f3 a5		 rep movsd
  000ba	8b c8		 mov	 ecx, eax
  000bc	83 e1 03	 and	 ecx, 3
  000bf	f3 a4		 rep movsb

; 615  : 			_Eos(_Num);

  000c1	83 7b 18 10	 cmp	 DWORD PTR [ebx+24], 16	; 00000010H
  000c5	89 6b 14	 mov	 DWORD PTR [ebx+20], ebp
  000c8	72 10		 jb	 SHORT $L229425
  000ca	8b 43 04	 mov	 eax, DWORD PTR [ebx+4]
  000cd	c6 04 28 00	 mov	 BYTE PTR [eax+ebp], 0
  000d1	5d		 pop	 ebp
  000d2	5f		 pop	 edi
  000d3	5e		 pop	 esi

; 616  : 			}
; 617  : 		return (*this);

  000d4	8b c3		 mov	 eax, ebx
  000d6	5b		 pop	 ebx

; 618  : 		}

  000d7	c2 08 00	 ret	 8

; 615  : 			_Eos(_Num);

$L229425:
  000da	8d 43 04	 lea	 eax, DWORD PTR [ebx+4]
  000dd	c6 04 28 00	 mov	 BYTE PTR [eax+ebp], 0
$L229428:
  000e1	5d		 pop	 ebp
  000e2	5f		 pop	 edi
  000e3	5e		 pop	 esi

; 616  : 			}
; 617  : 		return (*this);

  000e4	8b c3		 mov	 eax, ebx
  000e6	5b		 pop	 ebx

; 618  : 		}

  000e7	c2 08 00	 ret	 8
?assign@?$basic_string@DU?$char_traits@D@std@@V?$allocator@D@2@@std@@QAEAAV12@PBDI@Z ENDP ; std::basic_string<char,std::char_traits<char>,std::allocator<char> >::assign
_TEXT	ENDS
PUBLIC	?_Tidy@?$vector@UWANTED_ENTRY@@V?$allocator@UWANTED_ENTRY@@@std@@@std@@IAEXXZ ; std::vector<WANTED_ENTRY,std::allocator<WANTED_ENTRY> >::_Tidy
; Function compile flags: /Ogty
; File c:\program files\microsoft visual studio .net 2003\vc7\include\vector
;	COMDAT ?_Tidy@?$vector@UWANTED_ENTRY@@V?$allocator@UWANTED_ENTRY@@@std@@@std@@IAEXXZ
_TEXT	SEGMENT
?_Tidy@?$vector@UWANTED_ENTRY@@V?$allocator@UWANTED_ENTRY@@@std@@@std@@IAEXXZ PROC NEAR ; std::vector<WANTED_ENTRY,std::allocator<WANTED_ENTRY> >::_Tidy, COMDAT
; _this$ = ecx

; 791  : 		{	// free all storage

  00000	56		 push	 esi
  00001	8b f1		 mov	 esi, ecx

; 792  : 		if (_Myfirst != 0)

  00003	8b 46 04	 mov	 eax, DWORD PTR [esi+4]
  00006	85 c0		 test	 eax, eax
  00008	74 09		 je	 SHORT $L229438

; 793  : 			{	// something to free, destroy and deallocate it
; 794  : 			_Destroy(_Myfirst, _Mylast);
; 795  : 			this->_Alval.deallocate(_Myfirst, _Myend - _Myfirst);

  0000a	50		 push	 eax
  0000b	e8 00 00 00 00	 call	 ??3@YAXPAX@Z		; operator delete
  00010	83 c4 04	 add	 esp, 4
$L229438:

; 796  : 			}
; 797  : 		_Myfirst = 0, _Mylast = 0, _Myend = 0;

  00013	c7 46 04 00 00
	00 00		 mov	 DWORD PTR [esi+4], 0
  0001a	c7 46 08 00 00
	00 00		 mov	 DWORD PTR [esi+8], 0
  00021	c7 46 0c 00 00
	00 00		 mov	 DWORD PTR [esi+12], 0
  00028	5e		 pop	 esi

; 798  : 		}

  00029	c3		 ret	 0
?_Tidy@?$vector@UWANTED_ENTRY@@V?$allocator@UWANTED_ENTRY@@@std@@@std@@IAEXXZ ENDP ; std::vector<WANTED_ENTRY,std::allocator<WANTED_ENTRY> >::_Tidy
_TEXT	ENDS
PUBLIC	??0?$basic_string@DU?$char_traits@D@std@@V?$allocator@D@2@@std@@QAE@ABV01@@Z ; std::basic_string<char,std::char_traits<char>,std::allocator<char> >::basic_string<char,std::char_traits<char>,std::allocator<char> >
; Function compile flags: /Ogty
; File c:\program files\microsoft visual studio .net 2003\vc7\include\xstring
;	COMDAT ??0?$basic_string@DU?$char_traits@D@std@@V?$allocator@D@2@@std@@QAE@ABV01@@Z
_TEXT	SEGMENT
__Right$ = 8						; size = 4
??0?$basic_string@DU?$char_traits@D@std@@V?$allocator@D@2@@std@@QAE@ABV01@@Z PROC NEAR ; std::basic_string<char,std::char_traits<char>,std::allocator<char> >::basic_string<char,std::char_traits<char>,std::allocator<char> >, COMDAT
; _this$ = ecx

; 323  : 		{	// construct by copying _Right

  00000	56		 push	 esi

; 324  : 		_Tidy();

  00001	33 c0		 xor	 eax, eax
  00003	8b f1		 mov	 esi, ecx

; 325  : 		assign(_Right, 0, npos);

  00005	6a ff		 push	 -1
  00007	89 46 14	 mov	 DWORD PTR [esi+20], eax
  0000a	c7 46 18 0f 00
	00 00		 mov	 DWORD PTR [esi+24], 15	; 0000000fH
  00011	50		 push	 eax
  00012	88 46 04	 mov	 BYTE PTR [esi+4], al
  00015	8b 44 24 10	 mov	 eax, DWORD PTR __Right$[esp+8]
  00019	50		 push	 eax
  0001a	e8 00 00 00 00	 call	 ?assign@?$basic_string@DU?$char_traits@D@std@@V?$allocator@D@2@@std@@QAEAAV12@ABV12@II@Z ; std::basic_string<char,std::char_traits<char>,std::allocator<char> >::assign

; 326  : 		}

  0001f	8b c6		 mov	 eax, esi
  00021	5e		 pop	 esi
  00022	c2 04 00	 ret	 4
??0?$basic_string@DU?$char_traits@D@std@@V?$allocator@D@2@@std@@QAE@ABV01@@Z ENDP ; std::basic_string<char,std::char_traits<char>,std::allocator<char> >::basic_string<char,std::char_traits<char>,std::allocator<char> >
_TEXT	ENDS
PUBLIC	?assign@?$basic_string@DU?$char_traits@D@std@@V?$allocator@D@2@@std@@QAEAAV12@PBD@Z ; std::basic_string<char,std::char_traits<char>,std::allocator<char> >::assign
; Function compile flags: /Ogty
;	COMDAT ?assign@?$basic_string@DU?$char_traits@D@std@@V?$allocator@D@2@@std@@QAEAAV12@PBD@Z
_TEXT	SEGMENT
__Ptr$ = 8						; size = 4
?assign@?$basic_string@DU?$char_traits@D@std@@V?$allocator@D@2@@std@@QAEAAV12@PBD@Z PROC NEAR ; std::basic_string<char,std::char_traits<char>,std::allocator<char> >::assign, COMDAT
; _this$ = ecx

; 621  : 		{	// assign [_Ptr, <null>)

  00000	56		 push	 esi

; 622  : 		return (assign(_Ptr, _Traits::length(_Ptr)));

  00001	8b 74 24 08	 mov	 esi, DWORD PTR __Ptr$[esp]
  00005	8b c6		 mov	 eax, esi
  00007	57		 push	 edi
  00008	8d 78 01	 lea	 edi, DWORD PTR [eax+1]
  0000b	eb 03 8d 49 00	 npad	 5
$L229514:
  00010	8a 10		 mov	 dl, BYTE PTR [eax]
  00012	40		 inc	 eax
  00013	84 d2		 test	 dl, dl
  00015	75 f9		 jne	 SHORT $L229514
  00017	2b c7		 sub	 eax, edi
  00019	50		 push	 eax
  0001a	56		 push	 esi
  0001b	e8 00 00 00 00	 call	 ?assign@?$basic_string@DU?$char_traits@D@std@@V?$allocator@D@2@@std@@QAEAAV12@PBDI@Z ; std::basic_string<char,std::char_traits<char>,std::allocator<char> >::assign
  00020	5f		 pop	 edi
  00021	5e		 pop	 esi

; 623  : 		}

  00022	c2 04 00	 ret	 4
?assign@?$basic_string@DU?$char_traits@D@std@@V?$allocator@D@2@@std@@QAEAAV12@PBD@Z ENDP ; std::basic_string<char,std::char_traits<char>,std::allocator<char> >::assign
_TEXT	ENDS
PUBLIC	??1?$vector@UWANTED_ENTRY@@V?$allocator@UWANTED_ENTRY@@@std@@@std@@QAE@XZ ; std::vector<WANTED_ENTRY,std::allocator<WANTED_ENTRY> >::~vector<WANTED_ENTRY,std::allocator<WANTED_ENTRY> >
; Function compile flags: /Ogty
; File c:\program files\microsoft visual studio .net 2003\vc7\include\vector
;	COMDAT ??1?$vector@UWANTED_ENTRY@@V?$allocator@UWANTED_ENTRY@@@std@@@std@@QAE@XZ
_TEXT	SEGMENT
??1?$vector@UWANTED_ENTRY@@V?$allocator@UWANTED_ENTRY@@@std@@@std@@QAE@XZ PROC NEAR ; std::vector<WANTED_ENTRY,std::allocator<WANTED_ENTRY> >::~vector<WANTED_ENTRY,std::allocator<WANTED_ENTRY> >, COMDAT
; _this$ = ecx

; 387  : 		{	// destroy the object

  00000	56		 push	 esi
  00001	8b f1		 mov	 esi, ecx

; 388  : 		_Tidy();

  00003	8b 46 04	 mov	 eax, DWORD PTR [esi+4]
  00006	85 c0		 test	 eax, eax
  00008	74 09		 je	 SHORT $L229528
  0000a	50		 push	 eax
  0000b	e8 00 00 00 00	 call	 ??3@YAXPAX@Z		; operator delete
  00010	83 c4 04	 add	 esp, 4
$L229528:
  00013	c7 46 04 00 00
	00 00		 mov	 DWORD PTR [esi+4], 0
  0001a	c7 46 08 00 00
	00 00		 mov	 DWORD PTR [esi+8], 0
  00021	c7 46 0c 00 00
	00 00		 mov	 DWORD PTR [esi+12], 0
  00028	5e		 pop	 esi

; 389  : 		}

  00029	c3		 ret	 0
??1?$vector@UWANTED_ENTRY@@V?$allocator@UWANTED_ENTRY@@@std@@@std@@QAE@XZ ENDP ; std::vector<WANTED_ENTRY,std::allocator<WANTED_ENTRY> >::~vector<WANTED_ENTRY,std::allocator<WANTED_ENTRY> >
_TEXT	ENDS
PUBLIC	?clear@?$vector@UWANTED_ENTRY@@V?$allocator@UWANTED_ENTRY@@@std@@@std@@QAEXXZ ; std::vector<WANTED_ENTRY,std::allocator<WANTED_ENTRY> >::clear
; Function compile flags: /Ogty
;	COMDAT ?clear@?$vector@UWANTED_ENTRY@@V?$allocator@UWANTED_ENTRY@@@std@@@std@@QAEXXZ
_TEXT	SEGMENT
?clear@?$vector@UWANTED_ENTRY@@V?$allocator@UWANTED_ENTRY@@@std@@@std@@QAEXXZ PROC NEAR ; std::vector<WANTED_ENTRY,std::allocator<WANTED_ENTRY> >::clear, COMDAT
; _this$ = ecx

; 743  : 		{	// erase all

  00000	56		 push	 esi
  00001	8b f1		 mov	 esi, ecx

; 744  : 		_Tidy();

  00003	8b 46 04	 mov	 eax, DWORD PTR [esi+4]
  00006	85 c0		 test	 eax, eax
  00008	74 09		 je	 SHORT $L229541
  0000a	50		 push	 eax
  0000b	e8 00 00 00 00	 call	 ??3@YAXPAX@Z		; operator delete
  00010	83 c4 04	 add	 esp, 4
$L229541:
  00013	c7 46 04 00 00
	00 00		 mov	 DWORD PTR [esi+4], 0
  0001a	c7 46 08 00 00
	00 00		 mov	 DWORD PTR [esi+8], 0
  00021	c7 46 0c 00 00
	00 00		 mov	 DWORD PTR [esi+12], 0
  00028	5e		 pop	 esi

; 745  : 		}

  00029	c3		 ret	 0
?clear@?$vector@UWANTED_ENTRY@@V?$allocator@UWANTED_ENTRY@@@std@@@std@@QAEXXZ ENDP ; std::vector<WANTED_ENTRY,std::allocator<WANTED_ENTRY> >::clear
_TEXT	ENDS
PUBLIC	??0logic_error@std@@QAE@ABV?$basic_string@DU?$char_traits@D@std@@V?$allocator@D@2@@1@@Z ; std::logic_error::logic_error
EXTRN	??0exception@@QAE@XZ:NEAR			; exception::exception
;	COMDAT xdata$x
; File c:\program files\microsoft visual studio .net 2003\vc7\include\iosfwd
xdata$x	SEGMENT
$T229646 DD	0ffffffffH
	DD	FLAT:$L229546
$T229644 DD	019930520H
	DD	01H
	DD	FLAT:$T229646
	DD	2 DUP(00H)
	DD	2 DUP(00H)
; Function compile flags: /Ogty
; File c:\program files\microsoft visual studio .net 2003\vc7\include\stdexcept
xdata$x	ENDS
;	COMDAT ??0logic_error@std@@QAE@ABV?$basic_string@DU?$char_traits@D@std@@V?$allocator@D@2@@1@@Z
_TEXT	SEGMENT
_this$ = -16						; size = 4
__$EHRec$ = -12						; size = 12
__Message$ = 8						; size = 4
??0logic_error@std@@QAE@ABV?$basic_string@DU?$char_traits@D@std@@V?$allocator@D@2@@1@@Z PROC NEAR ; std::logic_error::logic_error, COMDAT
; _this$ = ecx

; 19   : 		{	// construct from message string

  00000	6a ff		 push	 -1
  00002	68 00 00 00 00	 push	 __ehhandler$??0logic_error@std@@QAE@ABV?$basic_string@DU?$char_traits@D@std@@V?$allocator@D@2@@1@@Z
  00007	64 a1 00 00 00
	00		 mov	 eax, DWORD PTR fs:__except_list
  0000d	50		 push	 eax
  0000e	64 89 25 00 00
	00 00		 mov	 DWORD PTR fs:__except_list, esp
  00015	51		 push	 ecx
  00016	56		 push	 esi
  00017	8b f1		 mov	 esi, ecx
  00019	89 74 24 04	 mov	 DWORD PTR _this$[esp+20], esi
  0001d	e8 00 00 00 00	 call	 ??0exception@@QAE@XZ	; exception::exception
  00022	33 c0		 xor	 eax, eax
  00024	8d 4e 0c	 lea	 ecx, DWORD PTR [esi+12]
  00027	c7 06 00 00 00
	00		 mov	 DWORD PTR [esi], OFFSET FLAT:??_7logic_error@std@@6B@
  0002d	6a ff		 push	 -1
  0002f	89 41 14	 mov	 DWORD PTR [ecx+20], eax
  00032	c7 41 18 0f 00
	00 00		 mov	 DWORD PTR [ecx+24], 15	; 0000000fH
  00039	50		 push	 eax
  0003a	89 44 24 18	 mov	 DWORD PTR __$EHRec$[esp+36], eax
  0003e	88 41 04	 mov	 BYTE PTR [ecx+4], al
  00041	8b 44 24 20	 mov	 eax, DWORD PTR __Message$[esp+24]
  00045	50		 push	 eax
  00046	e8 00 00 00 00	 call	 ?assign@?$basic_string@DU?$char_traits@D@std@@V?$allocator@D@2@@std@@QAEAAV12@ABV12@II@Z ; std::basic_string<char,std::char_traits<char>,std::allocator<char> >::assign

; 20   : 		}

  0004b	8b 4c 24 08	 mov	 ecx, DWORD PTR __$EHRec$[esp+20]
  0004f	8b c6		 mov	 eax, esi
  00051	5e		 pop	 esi
  00052	64 89 0d 00 00
	00 00		 mov	 DWORD PTR fs:__except_list, ecx
  00059	83 c4 10	 add	 esp, 16			; 00000010H
  0005c	c2 04 00	 ret	 4
_TEXT	ENDS
;	COMDAT text$x
text$x	SEGMENT
$L229546:
  00000	8b 4d f0	 mov	 ecx, DWORD PTR _this$[ebp]
  00003	e9 00 00 00 00	 jmp	 ??1exception@@UAE@XZ	; exception::~exception
__ehhandler$??0logic_error@std@@QAE@ABV?$basic_string@DU?$char_traits@D@std@@V?$allocator@D@2@@1@@Z:
  00008	b8 00 00 00 00	 mov	 eax, OFFSET FLAT:$T229644
  0000d	e9 00 00 00 00	 jmp	 ___CxxFrameHandler
text$x	ENDS
??0logic_error@std@@QAE@ABV?$basic_string@DU?$char_traits@D@std@@V?$allocator@D@2@@1@@Z ENDP ; std::logic_error::logic_error
PUBLIC	??0length_error@std@@QAE@ABV?$basic_string@DU?$char_traits@D@std@@V?$allocator@D@2@@1@@Z ; std::length_error::length_error
PUBLIC	??_7length_error@std@@6B@			; std::length_error::`vftable'
PUBLIC	??_Glength_error@std@@UAEPAXI@Z			; std::length_error::`scalar deleting destructor'
EXTRN	??_Elength_error@std@@UAEPAXI@Z:NEAR		; std::length_error::`vector deleting destructor'
;	COMDAT ??_7length_error@std@@6B@
CONST	SEGMENT
??_7length_error@std@@6B@ DD FLAT:??_Elength_error@std@@UAEPAXI@Z ; std::length_error::`vftable'
	DD	FLAT:?what@logic_error@std@@UBEPBDXZ
; Function compile flags: /Ogty
CONST	ENDS
;	COMDAT ??0length_error@std@@QAE@ABV?$basic_string@DU?$char_traits@D@std@@V?$allocator@D@2@@1@@Z
_TEXT	SEGMENT
__Message$ = 8						; size = 4
??0length_error@std@@QAE@ABV?$basic_string@DU?$char_traits@D@std@@V?$allocator@D@2@@1@@Z PROC NEAR ; std::length_error::length_error, COMDAT
; _this$ = ecx

; 95   : 		{	// construct from message string

  00000	8b 44 24 04	 mov	 eax, DWORD PTR __Message$[esp-4]
  00004	56		 push	 esi
  00005	50		 push	 eax
  00006	8b f1		 mov	 esi, ecx
  00008	e8 00 00 00 00	 call	 ??0logic_error@std@@QAE@ABV?$basic_string@DU?$char_traits@D@std@@V?$allocator@D@2@@1@@Z ; std::logic_error::logic_error
  0000d	c7 06 00 00 00
	00		 mov	 DWORD PTR [esi], OFFSET FLAT:??_7length_error@std@@6B@

; 96   : 		}

  00013	8b c6		 mov	 eax, esi
  00015	5e		 pop	 esi
  00016	c2 04 00	 ret	 4
??0length_error@std@@QAE@ABV?$basic_string@DU?$char_traits@D@std@@V?$allocator@D@2@@1@@Z ENDP ; std::length_error::length_error
_TEXT	ENDS
PUBLIC	??1length_error@std@@UAE@XZ			; std::length_error::~length_error
; Function compile flags: /Ogty
;	COMDAT ??_Glength_error@std@@UAEPAXI@Z
_TEXT	SEGMENT
___flags$ = 8						; size = 4
??_Glength_error@std@@UAEPAXI@Z PROC NEAR		; std::length_error::`scalar deleting destructor', COMDAT
; _this$ = ecx
  00000	56		 push	 esi
  00001	8b f1		 mov	 esi, ecx
  00003	e8 00 00 00 00	 call	 ??1length_error@std@@UAE@XZ ; std::length_error::~length_error
  00008	f6 44 24 08 01	 test	 BYTE PTR ___flags$[esp], 1
  0000d	74 09		 je	 SHORT $L229656
  0000f	56		 push	 esi
  00010	e8 00 00 00 00	 call	 ??3@YAXPAX@Z		; operator delete
  00015	83 c4 04	 add	 esp, 4
$L229656:
  00018	8b c6		 mov	 eax, esi
  0001a	5e		 pop	 esi
  0001b	c2 04 00	 ret	 4
??_Glength_error@std@@UAEPAXI@Z ENDP			; std::length_error::`scalar deleting destructor'
; Function compile flags: /Ogty
_TEXT	ENDS
;	COMDAT ??1length_error@std@@UAE@XZ
_TEXT	SEGMENT
??1length_error@std@@UAE@XZ PROC NEAR			; std::length_error::~length_error, COMDAT
; _this$ = ecx

; 99   : 		{}	// destroy the object

  00000	56		 push	 esi
  00001	8b f1		 mov	 esi, ecx
  00003	c7 06 00 00 00
	00		 mov	 DWORD PTR [esi], OFFSET FLAT:??_7logic_error@std@@6B@
  00009	83 7e 24 10	 cmp	 DWORD PTR [esi+36], 16	; 00000010H
  0000d	72 0c		 jb	 SHORT $L229743
  0000f	8b 46 10	 mov	 eax, DWORD PTR [esi+16]
  00012	50		 push	 eax
  00013	e8 00 00 00 00	 call	 ??3@YAXPAX@Z		; operator delete
  00018	83 c4 04	 add	 esp, 4
$L229743:
  0001b	33 c0		 xor	 eax, eax
  0001d	c7 46 24 0f 00
	00 00		 mov	 DWORD PTR [esi+36], 15	; 0000000fH
  00024	89 46 20	 mov	 DWORD PTR [esi+32], eax
  00027	88 46 10	 mov	 BYTE PTR [esi+16], al
  0002a	8b ce		 mov	 ecx, esi
  0002c	5e		 pop	 esi
  0002d	e9 00 00 00 00	 jmp	 ??1exception@@UAE@XZ	; exception::~exception
??1length_error@std@@UAE@XZ ENDP			; std::length_error::~length_error
_TEXT	ENDS
PUBLIC	??0?$basic_string@DU?$char_traits@D@std@@V?$allocator@D@2@@std@@QAE@PBD@Z ; std::basic_string<char,std::char_traits<char>,std::allocator<char> >::basic_string<char,std::char_traits<char>,std::allocator<char> >
; Function compile flags: /Ogty
; File c:\program files\microsoft visual studio .net 2003\vc7\include\xstring
;	COMDAT ??0?$basic_string@DU?$char_traits@D@std@@V?$allocator@D@2@@std@@QAE@PBD@Z
_TEXT	SEGMENT
__Ptr$ = 8						; size = 4
??0?$basic_string@DU?$char_traits@D@std@@V?$allocator@D@2@@std@@QAE@PBD@Z PROC NEAR ; std::basic_string<char,std::char_traits<char>,std::allocator<char> >::basic_string<char,std::char_traits<char>,std::allocator<char> >, COMDAT
; _this$ = ecx

; 361  : 		_Tidy();
; 362  : 		assign(_Ptr);

  00000	8b 54 24 04	 mov	 edx, DWORD PTR __Ptr$[esp-4]
  00004	56		 push	 esi
  00005	8b f1		 mov	 esi, ecx
  00007	8b c2		 mov	 eax, edx
  00009	57		 push	 edi
  0000a	c7 46 18 0f 00
	00 00		 mov	 DWORD PTR [esi+24], 15	; 0000000fH
  00011	c7 46 14 00 00
	00 00		 mov	 DWORD PTR [esi+20], 0
  00018	c6 46 04 00	 mov	 BYTE PTR [esi+4], 0
  0001c	8d 78 01	 lea	 edi, DWORD PTR [eax+1]
  0001f	90		 npad	 1
$L229838:
  00020	8a 08		 mov	 cl, BYTE PTR [eax]
  00022	40		 inc	 eax
  00023	84 c9		 test	 cl, cl
  00025	75 f9		 jne	 SHORT $L229838
  00027	2b c7		 sub	 eax, edi
  00029	50		 push	 eax
  0002a	52		 push	 edx
  0002b	8b ce		 mov	 ecx, esi
  0002d	e8 00 00 00 00	 call	 ?assign@?$basic_string@DU?$char_traits@D@std@@V?$allocator@D@2@@std@@QAEAAV12@PBDI@Z ; std::basic_string<char,std::char_traits<char>,std::allocator<char> >::assign
  00032	5f		 pop	 edi

; 363  : 		}

  00033	8b c6		 mov	 eax, esi
  00035	5e		 pop	 esi
  00036	c2 04 00	 ret	 4
??0?$basic_string@DU?$char_traits@D@std@@V?$allocator@D@2@@std@@QAE@PBD@Z ENDP ; std::basic_string<char,std::char_traits<char>,std::allocator<char> >::basic_string<char,std::char_traits<char>,std::allocator<char> >
_TEXT	ENDS
PUBLIC	??1CWantedListSnapshot@@UAE@XZ			; CWantedListSnapshot::~CWantedListSnapshot
PUBLIC	??_7CWantedListSnapshot@@6B@			; CWantedListSnapshot::`vftable'
PUBLIC	??_GCWantedListSnapshot@@UAEPAXI@Z		; CWantedListSnapshot::`scalar deleting destructor'
EXTRN	??_ECWantedListSnapshot@@UAEPAXI@Z:NEAR		; CWantedListSnapshot::`vector deleting destructor'
;	COMDAT ??_7CWantedListSnapshot@@6B@
; File c:\program files\microsoft visual studio .net 2003\vc7\include\xmemory
CONST	SEGMENT
??_7CWantedListSnapshot@@6B@ DD FLAT:??_ECWantedListSnapshot@@UAEPAXI@Z ; CWantedListSnapshot::`vftable'
; Function compile flags: /Ogty
; File c:\documents and settings\test\mes documents\source\virtuos_v17\build\program\worldserver\wantedlistsnapshot.cpp
CONST	ENDS
;	COMDAT ??1CWantedListSnapshot@@UAE@XZ
_TEXT	SEGMENT
??1CWantedListSnapshot@@UAE@XZ PROC NEAR		; CWantedListSnapshot::~CWantedListSnapshot, COMDAT
; _this$ = ecx

; 19   : {

  00000	56		 push	 esi
  00001	8b f1		 mov	 esi, ecx
  00003	c7 06 00 00 00
	00		 mov	 DWORD PTR [esi], OFFSET FLAT:??_7CWantedListSnapshot@@6B@

; 20   : }

  00009	8b 46 0c	 mov	 eax, DWORD PTR [esi+12]
  0000c	85 c0		 test	 eax, eax
  0000e	74 09		 je	 SHORT $L229859
  00010	50		 push	 eax
  00011	e8 00 00 00 00	 call	 ??3@YAXPAX@Z		; operator delete
  00016	83 c4 04	 add	 esp, 4
$L229859:
  00019	c7 46 0c 00 00
	00 00		 mov	 DWORD PTR [esi+12], 0
  00020	c7 46 10 00 00
	00 00		 mov	 DWORD PTR [esi+16], 0
  00027	c7 46 14 00 00
	00 00		 mov	 DWORD PTR [esi+20], 0
  0002e	5e		 pop	 esi
  0002f	c3		 ret	 0
??1CWantedListSnapshot@@UAE@XZ ENDP			; CWantedListSnapshot::~CWantedListSnapshot
_TEXT	ENDS
PUBLIC	??_C@_0BD@OLBABOEK@vector?$DMT?$DO?5too?5long?$AA@ ; `string'
PUBLIC	__TI3?AVlength_error@std@@
PUBLIC	__CTA3?AVlength_error@std@@
PUBLIC	??_R0?AVlength_error@std@@@8			; std::length_error `RTTI Type Descriptor'
PUBLIC	__CT??_R0?AVlength_error@std@@@8??0length_error@std@@QAE@ABV01@@Z40
PUBLIC	??_R0?AVlogic_error@std@@@8			; std::logic_error `RTTI Type Descriptor'
PUBLIC	__CT??_R0?AVlogic_error@std@@@8??0logic_error@std@@QAE@ABV01@@Z40
PUBLIC	??_R0?AVexception@@@8				; exception `RTTI Type Descriptor'
PUBLIC	__CT??_R0?AVexception@@@8??0exception@@QAE@ABV0@@Z12
PUBLIC	?_Xlen@?$vector@UWANTED_ENTRY@@V?$allocator@UWANTED_ENTRY@@@std@@@std@@IBEXXZ ; std::vector<WANTED_ENTRY,std::allocator<WANTED_ENTRY> >::_Xlen
PUBLIC	??0logic_error@std@@QAE@ABV01@@Z		; std::logic_error::logic_error
PUBLIC	??0length_error@std@@QAE@ABV01@@Z		; std::length_error::length_error
EXTRN	??0exception@@QAE@ABV0@@Z:NEAR			; exception::exception
EXTRN	??_7type_info@@6B@:DWORD			; type_info::`vftable'
;	COMDAT xdata$x
; File c:\program files\microsoft visual studio .net 2003\vc7\include\stdexcept
xdata$x	SEGMENT
$T229983 DD	0ffffffffH
	DD	FLAT:$L229868
$T229980 DD	019930520H
	DD	01H
	DD	FLAT:$T229983
	DD	2 DUP(00H)
	DD	2 DUP(00H)
xdata$x	ENDS
;	COMDAT ??_C@_0BD@OLBABOEK@vector?$DMT?$DO?5too?5long?$AA@
CONST	SEGMENT
??_C@_0BD@OLBABOEK@vector?$DMT?$DO?5too?5long?$AA@ DB 'vector<T> too long'
	DB	00H						; `string'
CONST	ENDS
;	COMDAT __TI3?AVlength_error@std@@
xdata$x	SEGMENT
__TI3?AVlength_error@std@@ DD 00H
	DD	FLAT:??1length_error@std@@UAE@XZ
	DD	00H
	DD	FLAT:__CTA3?AVlength_error@std@@
xdata$x	ENDS
;	COMDAT __CTA3?AVlength_error@std@@
xdata$x	SEGMENT
__CTA3?AVlength_error@std@@ DD 03H
	DD	FLAT:__CT??_R0?AVlength_error@std@@@8??0length_error@std@@QAE@ABV01@@Z40
	DD	FLAT:__CT??_R0?AVlogic_error@std@@@8??0logic_error@std@@QAE@ABV01@@Z40
	DD	FLAT:__CT??_R0?AVexception@@@8??0exception@@QAE@ABV0@@Z12
xdata$x	ENDS
;	COMDAT __CT??_R0?AVlength_error@std@@@8??0length_error@std@@QAE@ABV01@@Z40
xdata$x	SEGMENT
__CT??_R0?AVlength_error@std@@@8??0length_error@std@@QAE@ABV01@@Z40 DD 00H
	DD	FLAT:??_R0?AVlength_error@std@@@8
	DD	00H
	DD	0ffffffffH
	ORG $+4
	DD	028H
	DD	FLAT:??0length_error@std@@QAE@ABV01@@Z
xdata$x	ENDS
;	COMDAT ??_R0?AVlength_error@std@@@8
_DATA	SEGMENT
??_R0?AVlength_error@std@@@8 DD FLAT:??_7type_info@@6B@	; std::length_error `RTTI Type Descriptor'
	DD	00H
	DB	'.?AVlength_error@std@@', 00H
_DATA	ENDS
;	COMDAT __CT??_R0?AVlogic_error@std@@@8??0logic_error@std@@QAE@ABV01@@Z40
xdata$x	SEGMENT
__CT??_R0?AVlogic_error@std@@@8??0logic_error@std@@QAE@ABV01@@Z40 DD 00H
	DD	FLAT:??_R0?AVlogic_error@std@@@8
	DD	00H
	DD	0ffffffffH
	ORG $+4
	DD	028H
	DD	FLAT:??0logic_error@std@@QAE@ABV01@@Z
xdata$x	ENDS
;	COMDAT ??_R0?AVlogic_error@std@@@8
_DATA	SEGMENT
??_R0?AVlogic_error@std@@@8 DD FLAT:??_7type_info@@6B@	; std::logic_error `RTTI Type Descriptor'
	DD	00H
	DB	'.?AVlogic_error@std@@', 00H
_DATA	ENDS
;	COMDAT __CT??_R0?AVexception@@@8??0exception@@QAE@ABV0@@Z12
xdata$x	SEGMENT
__CT??_R0?AVexception@@@8??0exception@@QAE@ABV0@@Z12 DD 00H
	DD	FLAT:??_R0?AVexception@@@8
	DD	00H
	DD	0ffffffffH
	ORG $+4
	DD	0cH
	DD	FLAT:??0exception@@QAE@ABV0@@Z
xdata$x	ENDS
;	COMDAT ??_R0?AVexception@@@8
_DATA	SEGMENT
??_R0?AVexception@@@8 DD FLAT:??_7type_info@@6B@	; exception `RTTI Type Descriptor'
	DD	00H
	DB	'.?AVexception@@', 00H
; Function compile flags: /Ogty
; File c:\program files\microsoft visual studio .net 2003\vc7\include\vector
_DATA	ENDS
;	COMDAT ?_Xlen@?$vector@UWANTED_ENTRY@@V?$allocator@UWANTED_ENTRY@@@std@@@std@@IBEXXZ
_TEXT	SEGMENT
$T229867 = -80						; size = 28
$T229866 = -52						; size = 40
__$EHRec$ = -12						; size = 12
?_Xlen@?$vector@UWANTED_ENTRY@@V?$allocator@UWANTED_ENTRY@@@std@@@std@@IBEXXZ PROC NEAR ; std::vector<WANTED_ENTRY,std::allocator<WANTED_ENTRY> >::_Xlen, COMDAT
; _this$ = ecx

; 883  : 		{	// report a length_error

  00000	6a ff		 push	 -1
  00002	68 00 00 00 00	 push	 __ehhandler$?_Xlen@?$vector@UWANTED_ENTRY@@V?$allocator@UWANTED_ENTRY@@@std@@@std@@IBEXXZ
  00007	64 a1 00 00 00
	00		 mov	 eax, DWORD PTR fs:__except_list
  0000d	50		 push	 eax
  0000e	64 89 25 00 00
	00 00		 mov	 DWORD PTR fs:__except_list, esp
  00015	83 ec 44	 sub	 esp, 68			; 00000044H

; 884  : 		_THROW(length_error, "vector<T> too long");

  00018	6a 12		 push	 18			; 00000012H
  0001a	68 00 00 00 00	 push	 OFFSET FLAT:??_C@_0BD@OLBABOEK@vector?$DMT?$DO?5too?5long?$AA@
  0001f	8d 4c 24 08	 lea	 ecx, DWORD PTR $T229867[esp+88]
  00023	c7 44 24 20 0f
	00 00 00	 mov	 DWORD PTR $T229867[esp+112], 15 ; 0000000fH
  0002b	c7 44 24 1c 00
	00 00 00	 mov	 DWORD PTR $T229867[esp+108], 0
  00033	c6 44 24 0c 00	 mov	 BYTE PTR $T229867[esp+92], 0
  00038	e8 00 00 00 00	 call	 ?assign@?$basic_string@DU?$char_traits@D@std@@V?$allocator@D@2@@std@@QAEAAV12@PBDI@Z ; std::basic_string<char,std::char_traits<char>,std::allocator<char> >::assign
  0003d	8d 04 24	 lea	 eax, DWORD PTR $T229867[esp+80]
  00040	50		 push	 eax
  00041	8d 4c 24 20	 lea	 ecx, DWORD PTR $T229866[esp+84]
  00045	c7 44 24 50 00
	00 00 00	 mov	 DWORD PTR __$EHRec$[esp+92], 0
  0004d	e8 00 00 00 00	 call	 ??0logic_error@std@@QAE@ABV?$basic_string@DU?$char_traits@D@std@@V?$allocator@D@2@@1@@Z ; std::logic_error::logic_error
  00052	68 00 00 00 00	 push	 OFFSET FLAT:__TI3?AVlength_error@std@@
  00057	8d 4c 24 20	 lea	 ecx, DWORD PTR $T229866[esp+84]
  0005b	51		 push	 ecx
  0005c	c7 44 24 24 00
	00 00 00	 mov	 DWORD PTR $T229866[esp+88], OFFSET FLAT:??_7length_error@std@@6B@
  00064	e8 00 00 00 00	 call	 __CxxThrowException@8
$L229984:
$L229982:
  00069	cc		 int	 3
_TEXT	ENDS
;	COMDAT text$x
text$x	SEGMENT
$L229868:
  00000	8d 4d b0	 lea	 ecx, DWORD PTR $T229867[ebp]
  00003	e9 00 00 00 00	 jmp	 ??1?$basic_string@DU?$char_traits@D@std@@V?$allocator@D@2@@std@@QAE@XZ ; std::basic_string<char,std::char_traits<char>,std::allocator<char> >::~basic_string<char,std::char_traits<char>,std::allocator<char> >
__ehhandler$?_Xlen@?$vector@UWANTED_ENTRY@@V?$allocator@UWANTED_ENTRY@@@std@@@std@@IBEXXZ:
  00008	b8 00 00 00 00	 mov	 eax, OFFSET FLAT:$T229980
  0000d	e9 00 00 00 00	 jmp	 ___CxxFrameHandler
text$x	ENDS
?_Xlen@?$vector@UWANTED_ENTRY@@V?$allocator@UWANTED_ENTRY@@@std@@@std@@IBEXXZ ENDP ; std::vector<WANTED_ENTRY,std::allocator<WANTED_ENTRY> >::_Xlen
;	COMDAT xdata$x
xdata$x	SEGMENT
$T230090 DD	0ffffffffH
	DD	FLAT:$L229990
$T230088 DD	019930520H
	DD	01H
	DD	FLAT:$T230090
	DD	2 DUP(00H)
	DD	2 DUP(00H)
; Function compile flags: /Ogty
xdata$x	ENDS
;	COMDAT ??0logic_error@std@@QAE@ABV01@@Z
_TEXT	SEGMENT
_this$ = -16						; size = 4
__$EHRec$ = -12						; size = 12
___that$ = 8						; size = 4
??0logic_error@std@@QAE@ABV01@@Z PROC NEAR		; std::logic_error::logic_error, COMDAT
; _this$ = ecx
  00000	6a ff		 push	 -1
  00002	68 00 00 00 00	 push	 __ehhandler$??0logic_error@std@@QAE@ABV01@@Z
  00007	64 a1 00 00 00
	00		 mov	 eax, DWORD PTR fs:__except_list
  0000d	50		 push	 eax
  0000e	64 89 25 00 00
	00 00		 mov	 DWORD PTR fs:__except_list, esp
  00015	51		 push	 ecx
  00016	56		 push	 esi
  00017	57		 push	 edi
  00018	8b 7c 24 1c	 mov	 edi, DWORD PTR ___that$[esp+20]
  0001c	8b f1		 mov	 esi, ecx
  0001e	57		 push	 edi
  0001f	89 74 24 0c	 mov	 DWORD PTR _this$[esp+28], esi
  00023	e8 00 00 00 00	 call	 ??0exception@@QAE@ABV0@@Z ; exception::exception
  00028	33 c0		 xor	 eax, eax
  0002a	6a ff		 push	 -1
  0002c	8d 4e 0c	 lea	 ecx, DWORD PTR [esi+12]
  0002f	c7 06 00 00 00
	00		 mov	 DWORD PTR [esi], OFFSET FLAT:??_7logic_error@std@@6B@
  00035	50		 push	 eax
  00036	83 c7 0c	 add	 edi, 12			; 0000000cH
  00039	c7 41 18 0f 00
	00 00		 mov	 DWORD PTR [ecx+24], 15	; 0000000fH
  00040	89 41 14	 mov	 DWORD PTR [ecx+20], eax
  00043	57		 push	 edi
  00044	89 44 24 20	 mov	 DWORD PTR __$EHRec$[esp+44], eax
  00048	88 41 04	 mov	 BYTE PTR [ecx+4], al
  0004b	e8 00 00 00 00	 call	 ?assign@?$basic_string@DU?$char_traits@D@std@@V?$allocator@D@2@@std@@QAEAAV12@ABV12@II@Z ; std::basic_string<char,std::char_traits<char>,std::allocator<char> >::assign
  00050	8b 4c 24 0c	 mov	 ecx, DWORD PTR __$EHRec$[esp+24]
  00054	5f		 pop	 edi
  00055	8b c6		 mov	 eax, esi
  00057	5e		 pop	 esi
  00058	64 89 0d 00 00
	00 00		 mov	 DWORD PTR fs:__except_list, ecx
  0005f	83 c4 10	 add	 esp, 16			; 00000010H
  00062	c2 04 00	 ret	 4
_TEXT	ENDS
;	COMDAT text$x
text$x	SEGMENT
$L229990:
  00000	8b 4d f0	 mov	 ecx, DWORD PTR _this$[ebp]
  00003	e9 00 00 00 00	 jmp	 ??1exception@@UAE@XZ	; exception::~exception
__ehhandler$??0logic_error@std@@QAE@ABV01@@Z:
  00008	b8 00 00 00 00	 mov	 eax, OFFSET FLAT:$T230088
  0000d	e9 00 00 00 00	 jmp	 ___CxxFrameHandler
text$x	ENDS
??0logic_error@std@@QAE@ABV01@@Z ENDP			; std::logic_error::logic_error
; Function compile flags: /Ogty
;	COMDAT ??0length_error@std@@QAE@ABV01@@Z
_TEXT	SEGMENT
___that$ = 8						; size = 4
??0length_error@std@@QAE@ABV01@@Z PROC NEAR		; std::length_error::length_error, COMDAT
; _this$ = ecx
  00000	8b 44 24 04	 mov	 eax, DWORD PTR ___that$[esp-4]
  00004	56		 push	 esi
  00005	50		 push	 eax
  00006	8b f1		 mov	 esi, ecx
  00008	e8 00 00 00 00	 call	 ??0logic_error@std@@QAE@ABV01@@Z
  0000d	c7 06 00 00 00
	00		 mov	 DWORD PTR [esi], OFFSET FLAT:??_7length_error@std@@6B@
  00013	8b c6		 mov	 eax, esi
  00015	5e		 pop	 esi
  00016	c2 04 00	 ret	 4
??0length_error@std@@QAE@ABV01@@Z ENDP			; std::length_error::length_error
; Function compile flags: /Ogty
_TEXT	ENDS
;	COMDAT ??_GCWantedListSnapshot@@UAEPAXI@Z
_TEXT	SEGMENT
___flags$ = 8						; size = 4
??_GCWantedListSnapshot@@UAEPAXI@Z PROC NEAR		; CWantedListSnapshot::`scalar deleting destructor', COMDAT
; _this$ = ecx
  00000	56		 push	 esi
  00001	8b f1		 mov	 esi, ecx
  00003	e8 00 00 00 00	 call	 ??1CWantedListSnapshot@@UAE@XZ ; CWantedListSnapshot::~CWantedListSnapshot
  00008	f6 44 24 08 01	 test	 BYTE PTR ___flags$[esp], 1
  0000d	74 09		 je	 SHORT $L230100
  0000f	56		 push	 esi
  00010	e8 00 00 00 00	 call	 ??3@YAXPAX@Z		; operator delete
  00015	83 c4 04	 add	 esp, 4
$L230100:
  00018	8b c6		 mov	 eax, esi
  0001a	5e		 pop	 esi
  0001b	c2 04 00	 ret	 4
??_GCWantedListSnapshot@@UAEPAXI@Z ENDP			; CWantedListSnapshot::`scalar deleting destructor'
_TEXT	ENDS
PUBLIC	?_Buy@?$vector@UWANTED_ENTRY@@V?$allocator@UWANTED_ENTRY@@@std@@@std@@IAE_NI@Z ; std::vector<WANTED_ENTRY,std::allocator<WANTED_ENTRY> >::_Buy
; Function compile flags: /Ogty
;	COMDAT ?_Buy@?$vector@UWANTED_ENTRY@@V?$allocator@UWANTED_ENTRY@@@std@@@std@@IAE_NI@Z
_TEXT	SEGMENT
__Capacity$ = 8						; size = 4
?_Buy@?$vector@UWANTED_ENTRY@@V?$allocator@UWANTED_ENTRY@@@std@@@std@@IAE_NI@Z PROC NEAR ; std::vector<WANTED_ENTRY,std::allocator<WANTED_ENTRY> >::_Buy, COMDAT
; _this$ = ecx

; 770  : 		{	// allocate array with _Capacity elements

  00000	56		 push	 esi

; 771  : 		_Myfirst = 0, _Mylast = 0, _Myend = 0;

  00001	33 c0		 xor	 eax, eax
  00003	57		 push	 edi

; 772  : 		if (_Capacity == 0)

  00004	8b 7c 24 0c	 mov	 edi, DWORD PTR __Capacity$[esp+4]
  00008	3b f8		 cmp	 edi, eax
  0000a	8b f1		 mov	 esi, ecx
  0000c	89 46 04	 mov	 DWORD PTR [esi+4], eax
  0000f	89 46 08	 mov	 DWORD PTR [esi+8], eax
  00012	89 46 0c	 mov	 DWORD PTR [esi+12], eax
  00015	75 07		 jne	 SHORT $L226305
  00017	5f		 pop	 edi

; 773  : 			return (false);

  00018	32 c0		 xor	 al, al
  0001a	5e		 pop	 esi

; 783  : 		}

  0001b	c2 04 00	 ret	 4
$L226305:

; 774  : 		else if (max_size() < _Capacity)

  0001e	81 ff 62 27 76
	02		 cmp	 edi, 41297762		; 02762762H
  00024	76 07		 jbe	 SHORT $L226307

; 775  : 			_Xlen();	// result too long

  00026	8b ce		 mov	 ecx, esi
  00028	e8 00 00 00 00	 call	 ?_Xlen@?$vector@UWANTED_ENTRY@@V?$allocator@UWANTED_ENTRY@@@std@@@std@@IBEXXZ ; std::vector<WANTED_ENTRY,std::allocator<WANTED_ENTRY> >::_Xlen
$L230129:
$L226307:

; 776  : 		else
; 777  : 			{	// nonempty array, allocate storage
; 778  : 			_Myfirst = this->_Alval.allocate(_Capacity);

  0002d	6b ff 68	 imul	 edi, 104		; 00000068H
  00030	57		 push	 edi
  00031	e8 00 00 00 00	 call	 ??2@YAPAXI@Z		; operator new

; 779  : 			_Mylast = _Myfirst;
; 780  : 			_Myend = _Myfirst + _Capacity;

  00036	03 f8		 add	 edi, eax
  00038	83 c4 04	 add	 esp, 4
  0003b	89 7e 0c	 mov	 DWORD PTR [esi+12], edi
  0003e	89 46 04	 mov	 DWORD PTR [esi+4], eax
  00041	89 46 08	 mov	 DWORD PTR [esi+8], eax
  00044	5f		 pop	 edi

; 781  : 			}
; 782  : 		return (true);

  00045	b0 01		 mov	 al, 1
  00047	5e		 pop	 esi

; 783  : 		}

  00048	c2 04 00	 ret	 4
$L230128:
?_Buy@?$vector@UWANTED_ENTRY@@V?$allocator@UWANTED_ENTRY@@@std@@@std@@IAE_NI@Z ENDP ; std::vector<WANTED_ENTRY,std::allocator<WANTED_ENTRY> >::_Buy
_TEXT	ENDS
PUBLIC	?_Insert_n@?$vector@UWANTED_ENTRY@@V?$allocator@UWANTED_ENTRY@@@std@@@std@@IAEXViterator@12@IABUWANTED_ENTRY@@@Z ; std::vector<WANTED_ENTRY,std::allocator<WANTED_ENTRY> >::_Insert_n
EXTRN	___security_cookie:DWORD
EXTRN	@__security_check_cookie@4:NEAR
;	COMDAT xdata$x
; File c:\program files\microsoft visual studio .net 2003\vc7\include\xutility
xdata$x	SEGMENT
$T230350 DD	0ffffffffH
	DD	00H
	DD	0ffffffffH
	DD	00H
	DD	0ffffffffH
	DD	00H
	DD	0ffffffffH
	DD	00H
$T230352 DD	00H
	DD	00H
	DD	00H
	DD	FLAT:$L230137
$T230353 DD	00H
	DD	00H
	DD	00H
	DD	FLAT:$L230139
$T230351 DD	00H
	DD	00H
	DD	01H
	DD	01H
	DD	FLAT:$T230352
	DD	02H
	DD	02H
	DD	03H
	DD	01H
	DD	FLAT:$T230353
$T230344 DD	019930520H
	DD	04H
	DD	FLAT:$T230350
	DD	02H
	DD	FLAT:$T230351
	DD	2 DUP(00H)
; Function compile flags: /Ogty
; File c:\program files\microsoft visual studio .net 2003\vc7\include\vector
xdata$x	ENDS
;	COMDAT ?_Insert_n@?$vector@UWANTED_ENTRY@@V?$allocator@UWANTED_ENTRY@@@std@@@std@@IAEXViterator@12@IABUWANTED_ENTRY@@@Z
_TEXT	SEGMENT
tv427 = -132						; size = 4
__Newvec$226413 = -132					; size = 4
tv414 = -128						; size = 4
tv398 = -128						; size = 4
__Cat$230338 = -128					; size = 1
__Cat$230314 = -128					; size = 1
__Cat$230252 = -128					; size = 1
__Cat$230275 = -128					; size = 1
__Cat$230229 = -128					; size = 1
__Ptr$226414 = -128					; size = 4
__Tmp$ = -124						; size = 104
__$ArrayPad$ = -20					; size = 4
__$EHRec$ = -16						; size = 16
__$ReturnAddr$ = 4					; size = 4
__Where$ = 8						; size = 4
__Count$ = 12						; size = 4
__Val$ = 16						; size = 4
?_Insert_n@?$vector@UWANTED_ENTRY@@V?$allocator@UWANTED_ENTRY@@@std@@@std@@IAEXViterator@12@IABUWANTED_ENTRY@@@Z PROC NEAR ; std::vector<WANTED_ENTRY,std::allocator<WANTED_ENTRY> >::_Insert_n, COMDAT
; _this$ = ecx

; 809  : 		{	// insert _Count * _Val at _Where

  00000	55		 push	 ebp
  00001	8b ec		 mov	 ebp, esp
  00003	6a ff		 push	 -1
  00005	68 00 00 00 00	 push	 __ehhandler$?_Insert_n@?$vector@UWANTED_ENTRY@@V?$allocator@UWANTED_ENTRY@@@std@@@std@@IAEXViterator@12@IABUWANTED_ENTRY@@@Z
  0000a	64 a1 00 00 00
	00		 mov	 eax, DWORD PTR fs:__except_list
  00010	50		 push	 eax
  00011	64 89 25 00 00
	00 00		 mov	 DWORD PTR fs:__except_list, esp
  00018	83 ec 78	 sub	 esp, 120		; 00000078H
  0001b	a1 00 00 00 00	 mov	 eax, DWORD PTR ___security_cookie
  00020	53		 push	 ebx
  00021	56		 push	 esi
  00022	8b 75 10	 mov	 esi, DWORD PTR __Val$[ebp]
  00025	57		 push	 edi
  00026	8b d9		 mov	 ebx, ecx

; 810  : 		_Ty _Tmp = _Val;	// in case _Val is in sequence

  00028	b9 1a 00 00 00	 mov	 ecx, 26			; 0000001aH
  0002d	8d 7d 84	 lea	 edi, DWORD PTR __Tmp$[ebp]
  00030	f3 a5		 rep movsd

; 811  : 		size_type _Capacity = capacity();

  00032	8b 7b 04	 mov	 edi, DWORD PTR [ebx+4]
  00035	33 c5		 xor	 eax, ebp
  00037	85 ff		 test	 edi, edi
  00039	89 45 ec	 mov	 DWORD PTR __$ArrayPad$[ebp], eax
  0003c	89 65 f0	 mov	 DWORD PTR __$EHRec$[ebp], esp
  0003f	75 04		 jne	 SHORT $L230144
  00041	33 c9		 xor	 ecx, ecx
  00043	eb 16		 jmp	 SHORT $L230145
$L230144:
  00045	8b 4b 0c	 mov	 ecx, DWORD PTR [ebx+12]
  00048	2b cf		 sub	 ecx, edi
  0004a	b8 4f ec c4 4e	 mov	 eax, 1321528399		; 4ec4ec4fH
  0004f	f7 e9		 imul	 ecx
  00051	c1 fa 05	 sar	 edx, 5
  00054	8b ca		 mov	 ecx, edx
  00056	c1 e9 1f	 shr	 ecx, 31			; 0000001fH
  00059	03 ca		 add	 ecx, edx
$L230145:

; 812  : 
; 813  : 		if (_Count == 0)

  0005b	8b 75 0c	 mov	 esi, DWORD PTR __Count$[ebp]
  0005e	85 f6		 test	 esi, esi
  00060	0f 84 29 02 00
	00		 je	 $L226433

; 814  : 			;
; 815  : 		else if (max_size() - size() < _Count)

  00066	85 ff		 test	 edi, edi
  00068	75 04		 jne	 SHORT $L230167
  0006a	33 c0		 xor	 eax, eax
  0006c	eb 16		 jmp	 SHORT $L230168
$L230167:
  0006e	8b 53 08	 mov	 edx, DWORD PTR [ebx+8]
  00071	2b d7		 sub	 edx, edi
  00073	b8 4f ec c4 4e	 mov	 eax, 1321528399		; 4ec4ec4fH
  00078	f7 ea		 imul	 edx
  0007a	c1 fa 05	 sar	 edx, 5
  0007d	8b c2		 mov	 eax, edx
  0007f	c1 e8 1f	 shr	 eax, 31			; 0000001fH
  00082	03 c2		 add	 eax, edx
$L230168:
  00084	ba 62 27 76 02	 mov	 edx, 41297762		; 02762762H
  00089	2b d0		 sub	 edx, eax
  0008b	3b d6		 cmp	 edx, esi
  0008d	73 07		 jae	 SHORT $L226409

; 816  : 			_Xlen();	// result too long

  0008f	8b cb		 mov	 ecx, ebx
  00091	e8 00 00 00 00	 call	 ?_Xlen@?$vector@UWANTED_ENTRY@@V?$allocator@UWANTED_ENTRY@@@std@@@std@@IBEXXZ ; std::vector<WANTED_ENTRY,std::allocator<WANTED_ENTRY> >::_Xlen
$L230354:
$L226409:

; 817  : 		else if (_Capacity < size() + _Count)

  00096	85 ff		 test	 edi, edi
  00098	75 04		 jne	 SHORT $L230174
  0009a	33 c0		 xor	 eax, eax
  0009c	eb 16		 jmp	 SHORT $L230175
$L230174:
  0009e	8b 53 08	 mov	 edx, DWORD PTR [ebx+8]
  000a1	2b d7		 sub	 edx, edi
  000a3	b8 4f ec c4 4e	 mov	 eax, 1321528399		; 4ec4ec4fH
  000a8	f7 ea		 imul	 edx
  000aa	c1 fa 05	 sar	 edx, 5
  000ad	8b c2		 mov	 eax, edx
  000af	c1 e8 1f	 shr	 eax, 31			; 0000001fH
  000b2	03 c2		 add	 eax, edx
$L230175:
  000b4	03 c6		 add	 eax, esi
  000b6	3b c8		 cmp	 ecx, eax
  000b8	0f 83 0a 01 00
	00		 jae	 $L226411

; 818  : 			{	// not enough room, reallocate
; 819  : 			_Capacity = max_size() - _Capacity / 2 < _Capacity
; 820  : 				? 0 : _Capacity + _Capacity / 2;	// try to grow by 50%

  000be	8b c1		 mov	 eax, ecx
  000c0	d1 e8		 shr	 eax, 1
  000c2	ba 62 27 76 02	 mov	 edx, 41297762		; 02762762H
  000c7	2b d0		 sub	 edx, eax
  000c9	3b d1		 cmp	 edx, ecx
  000cb	73 04		 jae	 SHORT $L230134
  000cd	33 c9		 xor	 ecx, ecx
  000cf	eb 02		 jmp	 SHORT $L230135
$L230134:
  000d1	03 c8		 add	 ecx, eax
$L230135:

; 821  : 			if (_Capacity < size() + _Count)

  000d3	85 ff		 test	 edi, edi
  000d5	75 04		 jne	 SHORT $L230197
  000d7	33 c0		 xor	 eax, eax
  000d9	eb 16		 jmp	 SHORT $L230198
$L230197:
  000db	8b 53 08	 mov	 edx, DWORD PTR [ebx+8]
  000de	2b d7		 sub	 edx, edi
  000e0	b8 4f ec c4 4e	 mov	 eax, 1321528399		; 4ec4ec4fH
  000e5	f7 ea		 imul	 edx
  000e7	c1 fa 05	 sar	 edx, 5
  000ea	8b c2		 mov	 eax, edx
  000ec	c1 e8 1f	 shr	 eax, 31			; 0000001fH
  000ef	03 c2		 add	 eax, edx
$L230198:
  000f1	03 c6		 add	 eax, esi
  000f3	3b c8		 cmp	 ecx, eax
  000f5	73 0b		 jae	 SHORT $L226412

; 822  : 				_Capacity = size() + _Count;

  000f7	8b cb		 mov	 ecx, ebx
  000f9	e8 00 00 00 00	 call	 ?size@?$vector@UWANTED_ENTRY@@V?$allocator@UWANTED_ENTRY@@@std@@@std@@QBEIXZ ; std::vector<WANTED_ENTRY,std::allocator<WANTED_ENTRY> >::size
  000fe	8b c8		 mov	 ecx, eax
  00100	03 ce		 add	 ecx, esi
$L226412:

; 823  : 			pointer _Newvec = this->_Alval.allocate(_Capacity);

  00102	8b f9		 mov	 edi, ecx
  00104	6b ff 68	 imul	 edi, 104		; 00000068H
  00107	57		 push	 edi
  00108	e8 00 00 00 00	 call	 ??2@YAPAXI@Z		; operator new

; 824  : 			pointer _Ptr = _Newvec;
; 825  : 
; 826  : 			_TRY_BEGIN
; 827  : 			_Ptr = _Ucopy(_Myfirst, _ITER_BASE(_Where),
; 828  : 				_Newvec);	// copy prefix

  0010d	8b 55 80	 mov	 edx, DWORD PTR __Cat$230229[ebp]
  00110	8b 4b 04	 mov	 ecx, DWORD PTR [ebx+4]
  00113	52		 push	 edx
  00114	53		 push	 ebx
  00115	50		 push	 eax
  00116	89 85 7c ff ff
	ff		 mov	 DWORD PTR __Newvec$226413[ebp], eax
  0011c	8b 45 08	 mov	 eax, DWORD PTR __Where$[ebp]
  0011f	50		 push	 eax
  00120	51		 push	 ecx
  00121	c7 45 fc 00 00
	00 00		 mov	 DWORD PTR __$EHRec$[ebp+12], 0
  00128	e8 00 00 00 00	 call	 ??$_Uninit_copy@PAUWANTED_ENTRY@@PAU1@V?$allocator@UWANTED_ENTRY@@@std@@@std@@YAPAUWANTED_ENTRY@@PAU1@00AAV?$allocator@UWANTED_ENTRY@@@0@U_Nonscalar_ptr_iterator_tag@0@@Z ; std::_Uninit_copy<WANTED_ENTRY *,WANTED_ENTRY *,std::allocator<WANTED_ENTRY> >
  0012d	83 c4 18	 add	 esp, 24			; 00000018H
  00130	89 45 80	 mov	 DWORD PTR __Ptr$226414[ebp], eax

; 829  : 			_Ptr = _Ufill(_Ptr, _Count, _Tmp);	// add new stuff

  00133	8b 4d 80	 mov	 ecx, DWORD PTR __Cat$230252[ebp]
  00136	51		 push	 ecx
  00137	53		 push	 ebx
  00138	8d 55 84	 lea	 edx, DWORD PTR __Tmp$[ebp]
  0013b	52		 push	 edx
  0013c	56		 push	 esi
  0013d	50		 push	 eax
  0013e	e8 00 00 00 00	 call	 ??$_Uninit_fill_n@PAUWANTED_ENTRY@@IU1@V?$allocator@UWANTED_ENTRY@@@std@@@std@@YAXPAUWANTED_ENTRY@@IABU1@AAV?$allocator@UWANTED_ENTRY@@@0@U_Nonscalar_ptr_iterator_tag@0@@Z ; std::_Uninit_fill_n<WANTED_ENTRY *,unsigned int,WANTED_ENTRY,std::allocator<WANTED_ENTRY> >

; 830  : 			_Ucopy(_ITER_BASE(_Where), _Mylast, _Ptr);	// copy suffix

  00143	8b 55 80	 mov	 edx, DWORD PTR __Cat$230275[ebp]
  00146	8b 4d 80	 mov	 ecx, DWORD PTR __Ptr$226414[ebp]
  00149	8b c6		 mov	 eax, esi
  0014b	6b c0 68	 imul	 eax, 104		; 00000068H
  0014e	83 c4 14	 add	 esp, 20			; 00000014H
  00151	52		 push	 edx
  00152	03 c8		 add	 ecx, eax
  00154	8b 43 08	 mov	 eax, DWORD PTR [ebx+8]
  00157	53		 push	 ebx
  00158	51		 push	 ecx
  00159	50		 push	 eax
  0015a	8b 45 08	 mov	 eax, DWORD PTR __Where$[ebp]
  0015d	50		 push	 eax
  0015e	e8 00 00 00 00	 call	 ??$_Uninit_copy@PAUWANTED_ENTRY@@PAU1@V?$allocator@UWANTED_ENTRY@@@std@@@std@@YAPAUWANTED_ENTRY@@PAU1@00AAV?$allocator@UWANTED_ENTRY@@@0@U_Nonscalar_ptr_iterator_tag@0@@Z ; std::_Uninit_copy<WANTED_ENTRY *,WANTED_ENTRY *,std::allocator<WANTED_ENTRY> >

; 835  : 			_CATCH_END
; 836  : 
; 837  : 			_Count += size();

  00163	8b 43 04	 mov	 eax, DWORD PTR [ebx+4]
  00166	83 c4 14	 add	 esp, 20			; 00000014H
  00169	85 c0		 test	 eax, eax
  0016b	74 16		 je	 SHORT $L230286
$L230285:
  0016d	8b 4b 08	 mov	 ecx, DWORD PTR [ebx+8]
  00170	2b c8		 sub	 ecx, eax
  00172	b8 4f ec c4 4e	 mov	 eax, 1321528399		; 4ec4ec4fH
  00177	f7 e9		 imul	 ecx
  00179	c1 fa 05	 sar	 edx, 5
  0017c	8b c2		 mov	 eax, edx
  0017e	c1 e8 1f	 shr	 eax, 31			; 0000001fH
  00181	03 c2		 add	 eax, edx
$L230286:
  00183	03 f0		 add	 esi, eax

; 838  : 			if (_Myfirst != 0)

  00185	8b 43 04	 mov	 eax, DWORD PTR [ebx+4]
  00188	85 c0		 test	 eax, eax
  0018a	74 09		 je	 SHORT $L230289

; 839  : 				{	// destroy and deallocate old array
; 840  : 				_Destroy(_Myfirst, _Mylast);
; 841  : 				this->_Alval.deallocate(_Myfirst, _Myend - _Myfirst);

  0018c	50		 push	 eax
  0018d	e8 00 00 00 00	 call	 ??3@YAXPAX@Z		; operator delete
  00192	83 c4 04	 add	 esp, 4
$L230289:

; 842  : 				}
; 843  : 			_Myend = _Newvec + _Capacity;

  00195	8b 85 7c ff ff
	ff		 mov	 eax, DWORD PTR __Newvec$226413[ebp]

; 844  : 			_Mylast = _Newvec + _Count;

  0019b	6b f6 68	 imul	 esi, 104		; 00000068H
  0019e	03 f8		 add	 edi, eax
  001a0	03 f0		 add	 esi, eax
  001a2	89 7b 0c	 mov	 DWORD PTR [ebx+12], edi
  001a5	89 73 08	 mov	 DWORD PTR [ebx+8], esi

; 845  : 			_Myfirst = _Newvec;

  001a8	89 43 04	 mov	 DWORD PTR [ebx+4], eax

; 846  : 			}
; 847  : 		else if ((size_type)(_Mylast - _ITER_BASE(_Where)) < _Count)

  001ab	e9 df 00 00 00	 jmp	 $L226433
$L230137:

; 831  : 			_CATCH_ALL
; 832  : 			_Destroy(_Newvec, _Ptr);
; 833  : 			this->_Alval.deallocate(_Newvec, _Capacity);

  001b0	8b 8d 7c ff ff
	ff		 mov	 ecx, DWORD PTR __Newvec$226413[ebp]
  001b6	51		 push	 ecx
  001b7	e8 00 00 00 00	 call	 ??3@YAXPAX@Z		; operator delete
  001bc	83 c4 04	 add	 esp, 4
$L230139:

; 834  : 			_RERAISE;

  001bf	6a 00		 push	 0
  001c1	6a 00		 push	 0
  001c3	e8 00 00 00 00	 call	 __CxxThrowException@8
$L230355:
$L226411:

; 846  : 			}
; 847  : 		else if ((size_type)(_Mylast - _ITER_BASE(_Where)) < _Count)

  001c8	8b 4b 08	 mov	 ecx, DWORD PTR [ebx+8]
  001cb	8b 7d 08	 mov	 edi, DWORD PTR __Where$[ebp]
  001ce	8b d1		 mov	 edx, ecx
  001d0	2b d7		 sub	 edx, edi
  001d2	b8 4f ec c4 4e	 mov	 eax, 1321528399		; 4ec4ec4fH
  001d7	f7 ea		 imul	 edx
  001d9	c1 fa 05	 sar	 edx, 5
  001dc	8b c2		 mov	 eax, edx
  001de	c1 e8 1f	 shr	 eax, 31			; 0000001fH
  001e1	03 c2		 add	 eax, edx
  001e3	3b c6		 cmp	 eax, esi
  001e5	89 4d 80	 mov	 DWORD PTR tv398[ebp], ecx
  001e8	73 67		 jae	 SHORT $L226424

; 848  : 			{	// new stuff spills off end
; 849  : 			_Ucopy(_ITER_BASE(_Where), _Mylast,
; 850  : 				_ITER_BASE(_Where) + _Count);	// copy suffix

  001ea	8b c6		 mov	 eax, esi
  001ec	6b c0 68	 imul	 eax, 104		; 00000068H
  001ef	89 45 80	 mov	 DWORD PTR tv414[ebp], eax
  001f2	8b 55 80	 mov	 edx, DWORD PTR __Cat$230314[ebp]
  001f5	52		 push	 edx
  001f6	53		 push	 ebx
  001f7	03 c7		 add	 eax, edi
  001f9	50		 push	 eax
  001fa	51		 push	 ecx
  001fb	57		 push	 edi
  001fc	e8 00 00 00 00	 call	 ??$_Uninit_copy@PAUWANTED_ENTRY@@PAU1@V?$allocator@UWANTED_ENTRY@@@std@@@std@@YAPAUWANTED_ENTRY@@PAU1@00AAV?$allocator@UWANTED_ENTRY@@@0@U_Nonscalar_ptr_iterator_tag@0@@Z ; std::_Uninit_copy<WANTED_ENTRY *,WANTED_ENTRY *,std::allocator<WANTED_ENTRY> >

; 851  : 
; 852  : 			_TRY_BEGIN
; 853  : 			_Ufill(_Mylast, _Count - (_Mylast - _ITER_BASE(_Where)),
; 854  : 				_Tmp);	// insert new stuff off end

  00201	8b 4b 08	 mov	 ecx, DWORD PTR [ebx+8]
  00204	83 c4 14	 add	 esp, 20			; 00000014H
  00207	8d 45 84	 lea	 eax, DWORD PTR __Tmp$[ebp]
  0020a	50		 push	 eax
  0020b	8b d1		 mov	 edx, ecx
  0020d	2b d7		 sub	 edx, edi
  0020f	b8 4f ec c4 4e	 mov	 eax, 1321528399		; 4ec4ec4fH
  00214	f7 ea		 imul	 edx
  00216	c1 fa 05	 sar	 edx, 5
  00219	8b c2		 mov	 eax, edx
  0021b	c1 e8 1f	 shr	 eax, 31			; 0000001fH
  0021e	03 c2		 add	 eax, edx
  00220	2b f0		 sub	 esi, eax
  00222	56		 push	 esi
  00223	51		 push	 ecx
  00224	8b cb		 mov	 ecx, ebx
  00226	c7 45 fc 02 00
	00 00		 mov	 DWORD PTR __$EHRec$[ebp+12], 2
  0022d	e8 00 00 00 00	 call	 ?_Ufill@?$vector@UWANTED_ENTRY@@V?$allocator@UWANTED_ENTRY@@@std@@@std@@IAEPAUWANTED_ENTRY@@PAU3@IABU3@@Z ; std::vector<WANTED_ENTRY,std::allocator<WANTED_ENTRY> >::_Ufill

; 855  : 			_CATCH_ALL
; 856  : 			_Destroy(_ITER_BASE(_Where) + _Count, _Mylast + _Count);
; 857  : 			_RERAISE;
; 858  : 			_CATCH_END
; 859  : 
; 860  : 			_Mylast += _Count;

  00232	8b 73 08	 mov	 esi, DWORD PTR [ebx+8]
  00235	8b 45 80	 mov	 eax, DWORD PTR tv414[ebp]
  00238	03 f0		 add	 esi, eax
  0023a	89 73 08	 mov	 DWORD PTR [ebx+8], esi

; 861  : 			fill(_ITER_BASE(_Where), _Mylast - _Count,
; 862  : 				_Tmp);	// insert up to old end

  0023d	8d 4d 84	 lea	 ecx, DWORD PTR __Tmp$[ebp]
  00240	8b de		 mov	 ebx, esi
  00242	51		 push	 ecx
  00243	2b d8		 sub	 ebx, eax
  00245	53		 push	 ebx
  00246	57		 push	 edi
  00247	e8 00 00 00 00	 call	 ??$fill@PAUWANTED_ENTRY@@U1@@std@@YAXPAUWANTED_ENTRY@@0ABU1@@Z ; std::fill<WANTED_ENTRY *,WANTED_ENTRY>
  0024c	83 c4 0c	 add	 esp, 12			; 0000000cH

; 863  : 			}
; 864  : 		else

  0024f	eb 3e		 jmp	 SHORT $L226433
$L226424:

; 865  : 			{	// new stuff can all be assigned
; 866  : 			pointer _Oldend = _Mylast;
; 867  : 			_Mylast = _Ucopy(_Oldend - _Count, _Oldend,
; 868  : 				_Mylast);	// copy suffix

  00251	8b 55 80	 mov	 edx, DWORD PTR __Cat$230338[ebp]
  00254	6b f6 68	 imul	 esi, 104		; 00000068H
  00257	52		 push	 edx
  00258	53		 push	 ebx
  00259	51		 push	 ecx
  0025a	8b c1		 mov	 eax, ecx
  0025c	2b c6		 sub	 eax, esi
  0025e	51		 push	 ecx
  0025f	50		 push	 eax
  00260	89 85 7c ff ff
	ff		 mov	 DWORD PTR tv427[ebp], eax
  00266	e8 00 00 00 00	 call	 ??$_Uninit_copy@PAUWANTED_ENTRY@@PAU1@V?$allocator@UWANTED_ENTRY@@@std@@@std@@YAPAUWANTED_ENTRY@@PAU1@00AAV?$allocator@UWANTED_ENTRY@@@0@U_Nonscalar_ptr_iterator_tag@0@@Z ; std::_Uninit_copy<WANTED_ENTRY *,WANTED_ENTRY *,std::allocator<WANTED_ENTRY> >

; 869  : 			copy_backward(_ITER_BASE(_Where), _Oldend - _Count,
; 870  : 				_Oldend);	// copy hole

  0026b	8b 8d 7c ff ff
	ff		 mov	 ecx, DWORD PTR tv427[ebp]
  00271	89 43 08	 mov	 DWORD PTR [ebx+8], eax
  00274	8b 45 80	 mov	 eax, DWORD PTR tv398[ebp]
  00277	50		 push	 eax
  00278	51		 push	 ecx
  00279	57		 push	 edi
  0027a	e8 00 00 00 00	 call	 ??$copy_backward@PAUWANTED_ENTRY@@PAU1@@std@@YAPAUWANTED_ENTRY@@PAU1@00@Z ; std::copy_backward<WANTED_ENTRY *,WANTED_ENTRY *>

; 871  : 			fill(_ITER_BASE(_Where), _ITER_BASE(_Where) + _Count,
; 872  : 				_Tmp);	// insert into hole

  0027f	8d 55 84	 lea	 edx, DWORD PTR __Tmp$[ebp]
  00282	52		 push	 edx
  00283	03 f7		 add	 esi, edi
  00285	56		 push	 esi
  00286	57		 push	 edi
  00287	e8 00 00 00 00	 call	 ??$fill@PAUWANTED_ENTRY@@U1@@std@@YAXPAUWANTED_ENTRY@@0ABU1@@Z ; std::fill<WANTED_ENTRY *,WANTED_ENTRY>
  0028c	83 c4 2c	 add	 esp, 44			; 0000002cH
$L226433:

; 873  : 			}
; 874  : 		}

  0028f	8b 4d f4	 mov	 ecx, DWORD PTR __$EHRec$[ebp+4]
  00292	64 89 0d 00 00
	00 00		 mov	 DWORD PTR fs:__except_list, ecx
  00299	8b 4d ec	 mov	 ecx, DWORD PTR __$ArrayPad$[ebp]
  0029c	5f		 pop	 edi
  0029d	5e		 pop	 esi
  0029e	33 cd		 xor	 ecx, ebp
  002a0	5b		 pop	 ebx
  002a1	e8 00 00 00 00	 call	 @__security_check_cookie@4
  002a6	8b e5		 mov	 esp, ebp
  002a8	5d		 pop	 ebp
  002a9	c2 0c 00	 ret	 12			; 0000000cH
$L230349:
_TEXT	ENDS
;	COMDAT text$x
text$x	SEGMENT
__ehhandler$?_Insert_n@?$vector@UWANTED_ENTRY@@V?$allocator@UWANTED_ENTRY@@@std@@@std@@IAEXViterator@12@IABUWANTED_ENTRY@@@Z:
  00000	b8 00 00 00 00	 mov	 eax, OFFSET FLAT:$T230344
  00005	e9 00 00 00 00	 jmp	 ___CxxFrameHandler
text$x	ENDS
?_Insert_n@?$vector@UWANTED_ENTRY@@V?$allocator@UWANTED_ENTRY@@@std@@@std@@IAEXViterator@12@IABUWANTED_ENTRY@@@Z ENDP ; std::vector<WANTED_ENTRY,std::allocator<WANTED_ENTRY> >::_Insert_n
PUBLIC	??0?$vector@UWANTED_ENTRY@@V?$allocator@UWANTED_ENTRY@@@std@@@std@@QAE@XZ ; std::vector<WANTED_ENTRY,std::allocator<WANTED_ENTRY> >::vector<WANTED_ENTRY,std::allocator<WANTED_ENTRY> >
; Function compile flags: /Ogty
;	COMDAT ??0?$vector@UWANTED_ENTRY@@V?$allocator@UWANTED_ENTRY@@@std@@@std@@QAE@XZ
_TEXT	SEGMENT
??0?$vector@UWANTED_ENTRY@@V?$allocator@UWANTED_ENTRY@@@std@@@std@@QAE@XZ PROC NEAR ; std::vector<WANTED_ENTRY,std::allocator<WANTED_ENTRY> >::vector<WANTED_ENTRY,std::allocator<WANTED_ENTRY> >, COMDAT
; _this$ = ecx

; 299  : 		{	// construct empty vector

  00000	8b c1		 mov	 eax, ecx

; 300  : 		_Buy(0);

  00002	33 c9		 xor	 ecx, ecx
  00004	89 48 04	 mov	 DWORD PTR [eax+4], ecx
  00007	89 48 08	 mov	 DWORD PTR [eax+8], ecx
  0000a	89 48 0c	 mov	 DWORD PTR [eax+12], ecx

; 301  : 		}

  0000d	c3		 ret	 0
??0?$vector@UWANTED_ENTRY@@V?$allocator@UWANTED_ENTRY@@@std@@@std@@QAE@XZ ENDP ; std::vector<WANTED_ENTRY,std::allocator<WANTED_ENTRY> >::vector<WANTED_ENTRY,std::allocator<WANTED_ENTRY> >
_TEXT	ENDS
PUBLIC	?insert@?$vector@UWANTED_ENTRY@@V?$allocator@UWANTED_ENTRY@@@std@@@std@@QAE?AViterator@12@V312@ABUWANTED_ENTRY@@@Z ; std::vector<WANTED_ENTRY,std::allocator<WANTED_ENTRY> >::insert
; Function compile flags: /Ogty
;	COMDAT ?insert@?$vector@UWANTED_ENTRY@@V?$allocator@UWANTED_ENTRY@@@std@@@std@@QAE?AViterator@12@V312@ABUWANTED_ENTRY@@@Z
_TEXT	SEGMENT
___$ReturnUdt$ = 8					; size = 4
tv90 = 12						; size = 4
__Where$ = 12						; size = 4
__Val$ = 16						; size = 4
?insert@?$vector@UWANTED_ENTRY@@V?$allocator@UWANTED_ENTRY@@@std@@@std@@QAE?AViterator@12@V312@ABUWANTED_ENTRY@@@Z PROC NEAR ; std::vector<WANTED_ENTRY,std::allocator<WANTED_ENTRY> >::insert, COMDAT
; _this$ = ecx

; 620  : 		{	// insert _Val at _Where

  00000	53		 push	 ebx

; 621  : 		size_type _Off = size() == 0 ? 0 : _Where - begin();

  00001	8b 5c 24 0c	 mov	 ebx, DWORD PTR __Where$[esp]
  00005	56		 push	 esi
  00006	57		 push	 edi
  00007	8b f9		 mov	 edi, ecx
  00009	8b 77 04	 mov	 esi, DWORD PTR [edi+4]
  0000c	85 f6		 test	 esi, esi
  0000e	74 1c		 je	 SHORT $L230482
  00010	8b 4f 08	 mov	 ecx, DWORD PTR [edi+8]
  00013	2b ce		 sub	 ecx, esi
  00015	b8 4f ec c4 4e	 mov	 eax, 1321528399		; 4ec4ec4fH
  0001a	f7 e9		 imul	 ecx
  0001c	c1 fa 05	 sar	 edx, 5
  0001f	8b c2		 mov	 eax, edx
  00021	c1 e8 1f	 shr	 eax, 31			; 0000001fH
  00024	03 c2		 add	 eax, edx
  00026	89 44 24 14	 mov	 DWORD PTR tv90[esp+8], eax
  0002a	75 04		 jne	 SHORT $L230421
$L230482:
  0002c	33 f6		 xor	 esi, esi
  0002e	eb 15		 jmp	 SHORT $L230422
$L230421:
  00030	8b cb		 mov	 ecx, ebx
  00032	2b ce		 sub	 ecx, esi
  00034	b8 4f ec c4 4e	 mov	 eax, 1321528399		; 4ec4ec4fH
  00039	f7 e9		 imul	 ecx
  0003b	c1 fa 05	 sar	 edx, 5
  0003e	8b f2		 mov	 esi, edx
  00040	c1 ee 1f	 shr	 esi, 31			; 0000001fH
  00043	03 f2		 add	 esi, edx
$L230422:

; 622  : 		_Insert_n(_Where, (size_type)1, _Val);

  00045	8b 4c 24 18	 mov	 ecx, DWORD PTR __Val$[esp+8]
  00049	51		 push	 ecx
  0004a	6a 01		 push	 1
  0004c	53		 push	 ebx
  0004d	8b cf		 mov	 ecx, edi
  0004f	e8 00 00 00 00	 call	 ?_Insert_n@?$vector@UWANTED_ENTRY@@V?$allocator@UWANTED_ENTRY@@@std@@@std@@IAEXViterator@12@IABUWANTED_ENTRY@@@Z ; std::vector<WANTED_ENTRY,std::allocator<WANTED_ENTRY> >::_Insert_n

; 623  : 		return (begin() + _Off);

  00054	6b f6 68	 imul	 esi, 104		; 00000068H
  00057	03 77 04	 add	 esi, DWORD PTR [edi+4]
  0005a	8b 44 24 10	 mov	 eax, DWORD PTR ___$ReturnUdt$[esp+8]
  0005e	5f		 pop	 edi
  0005f	89 30		 mov	 DWORD PTR [eax], esi
  00061	5e		 pop	 esi
  00062	5b		 pop	 ebx

; 624  : 		}

  00063	c2 0c 00	 ret	 12			; 0000000cH
?insert@?$vector@UWANTED_ENTRY@@V?$allocator@UWANTED_ENTRY@@@std@@@std@@QAE?AViterator@12@V312@ABUWANTED_ENTRY@@@Z ENDP ; std::vector<WANTED_ENTRY,std::allocator<WANTED_ENTRY> >::insert
_TEXT	ENDS
PUBLIC	??0CWantedListSnapshot@@QAE@XZ			; CWantedListSnapshot::CWantedListSnapshot
; Function compile flags: /Ogty
; File c:\documents and settings\test\mes documents\source\virtuos_v17\build\program\worldserver\wantedlistsnapshot.cpp
;	COMDAT ??0CWantedListSnapshot@@QAE@XZ
_TEXT	SEGMENT
??0CWantedListSnapshot@@QAE@XZ PROC NEAR		; CWantedListSnapshot::CWantedListSnapshot, COMDAT
; _this$ = ecx

; 14   : {

  00000	8b c1		 mov	 eax, ecx
  00002	33 c9		 xor	 ecx, ecx
  00004	c7 00 00 00 00
	00		 mov	 DWORD PTR [eax], OFFSET FLAT:??_7CWantedListSnapshot@@6B@
  0000a	89 48 0c	 mov	 DWORD PTR [eax+12], ecx
  0000d	89 48 10	 mov	 DWORD PTR [eax+16], ecx
  00010	89 48 14	 mov	 DWORD PTR [eax+20], ecx

; 15   : 	m_lRecvTime = 0;

  00013	89 48 04	 mov	 DWORD PTR [eax+4], ecx

; 16   : }

  00016	c3		 ret	 0
??0CWantedListSnapshot@@QAE@XZ ENDP			; CWantedListSnapshot::CWantedListSnapshot
_TEXT	ENDS
PUBLIC	?push_back@?$vector@UWANTED_ENTRY@@V?$allocator@UWANTED_ENTRY@@@std@@@std@@QAEXABUWANTED_ENTRY@@@Z ; std::vector<WANTED_ENTRY,std::allocator<WANTED_ENTRY> >::push_back
; Function compile flags: /Ogty
; File c:\program files\microsoft visual studio .net 2003\vc7\include\vector
;	COMDAT ?push_back@?$vector@UWANTED_ENTRY@@V?$allocator@UWANTED_ENTRY@@@std@@@std@@QAEXABUWANTED_ENTRY@@@Z
_TEXT	SEGMENT
__Cat$230612 = 8					; size = 1
$T230577 = 8						; size = 4
__Val$ = 8						; size = 4
?push_back@?$vector@UWANTED_ENTRY@@V?$allocator@UWANTED_ENTRY@@@std@@@std@@QAEXABUWANTED_ENTRY@@@Z PROC NEAR ; std::vector<WANTED_ENTRY,std::allocator<WANTED_ENTRY> >::push_back, COMDAT
; _this$ = ecx

; 579  : 		{	// insert element at end

  00000	56		 push	 esi
  00001	8b f1		 mov	 esi, ecx
  00003	57		 push	 edi

; 580  : 		if (size() < capacity())

  00004	8b 7e 04	 mov	 edi, DWORD PTR [esi+4]
  00007	85 ff		 test	 edi, edi
  00009	75 04		 jne	 SHORT $L230582
  0000b	33 c9		 xor	 ecx, ecx
  0000d	eb 16		 jmp	 SHORT $L230583
$L230582:
  0000f	8b 4e 08	 mov	 ecx, DWORD PTR [esi+8]
  00012	2b cf		 sub	 ecx, edi
  00014	b8 4f ec c4 4e	 mov	 eax, 1321528399		; 4ec4ec4fH
  00019	f7 e9		 imul	 ecx
  0001b	c1 fa 05	 sar	 edx, 5
  0001e	8b ca		 mov	 ecx, edx
  00020	c1 e9 1f	 shr	 ecx, 31			; 0000001fH
  00023	03 ca		 add	 ecx, edx
$L230583:
  00025	85 ff		 test	 edi, edi
  00027	74 3e		 je	 SHORT $L226221
  00029	8b 56 0c	 mov	 edx, DWORD PTR [esi+12]
  0002c	2b d7		 sub	 edx, edi
  0002e	b8 4f ec c4 4e	 mov	 eax, 1321528399		; 4ec4ec4fH
  00033	f7 ea		 imul	 edx
  00035	c1 fa 05	 sar	 edx, 5
  00038	8b c2		 mov	 eax, edx
  0003a	c1 e8 1f	 shr	 eax, 31			; 0000001fH
  0003d	03 c2		 add	 eax, edx
  0003f	3b c8		 cmp	 ecx, eax
  00041	73 24		 jae	 SHORT $L226221

; 581  : 			_Mylast = _Ufill(_Mylast, 1, _Val);

  00043	8b 44 24 0c	 mov	 eax, DWORD PTR __Cat$230612[esp+4]
  00047	8b 4c 24 0c	 mov	 ecx, DWORD PTR __Val$[esp+4]
  0004b	8b 7e 08	 mov	 edi, DWORD PTR [esi+8]
  0004e	50		 push	 eax
  0004f	56		 push	 esi
  00050	51		 push	 ecx
  00051	6a 01		 push	 1
  00053	57		 push	 edi
  00054	e8 00 00 00 00	 call	 ??$_Uninit_fill_n@PAUWANTED_ENTRY@@IU1@V?$allocator@UWANTED_ENTRY@@@std@@@std@@YAXPAUWANTED_ENTRY@@IABU1@AAV?$allocator@UWANTED_ENTRY@@@0@U_Nonscalar_ptr_iterator_tag@0@@Z ; std::_Uninit_fill_n<WANTED_ENTRY *,unsigned int,WANTED_ENTRY,std::allocator<WANTED_ENTRY> >
  00059	83 c4 14	 add	 esp, 20			; 00000014H
  0005c	83 c7 68	 add	 edi, 104		; 00000068H
  0005f	89 7e 08	 mov	 DWORD PTR [esi+8], edi
  00062	5f		 pop	 edi
  00063	5e		 pop	 esi

; 584  : 		}

  00064	c2 04 00	 ret	 4
$L226221:

; 582  : 		else
; 583  : 			insert(end(), _Val);

  00067	8b 54 24 0c	 mov	 edx, DWORD PTR __Val$[esp+4]
  0006b	8b 46 08	 mov	 eax, DWORD PTR [esi+8]
  0006e	52		 push	 edx
  0006f	50		 push	 eax
  00070	8d 44 24 14	 lea	 eax, DWORD PTR $T230577[esp+12]
  00074	50		 push	 eax
  00075	8b ce		 mov	 ecx, esi
  00077	e8 00 00 00 00	 call	 ?insert@?$vector@UWANTED_ENTRY@@V?$allocator@UWANTED_ENTRY@@@std@@@std@@QAE?AViterator@12@V312@ABUWANTED_ENTRY@@@Z ; std::vector<WANTED_ENTRY,std::allocator<WANTED_ENTRY> >::insert
  0007c	5f		 pop	 edi
  0007d	5e		 pop	 esi

; 584  : 		}

  0007e	c2 04 00	 ret	 4
?push_back@?$vector@UWANTED_ENTRY@@V?$allocator@UWANTED_ENTRY@@@std@@@std@@QAEXABUWANTED_ENTRY@@@Z ENDP ; std::vector<WANTED_ENTRY,std::allocator<WANTED_ENTRY> >::push_back
_TEXT	ENDS
PUBLIC	?GetInstance@CWantedListSnapshot@@SAAAV1@XZ	; CWantedListSnapshot::GetInstance
EXTRN	_atexit:NEAR
;	COMDAT ?wantedList@?1??GetInstance@CWantedListSnapshot@@SAAAV2@XZ@4V2@A
; File c:\program files\microsoft visual studio .net 2003\vc7\include\xmemory
_BSS	SEGMENT
?wantedList@?1??GetInstance@CWantedListSnapshot@@SAAAV2@XZ@4V2@A DB 018H DUP (?) ; `CWantedListSnapshot::GetInstance'::`2'::wantedList
_BSS	ENDS
;	COMDAT ?$S1@?1??GetInstance@CWantedListSnapshot@@SAAAV2@XZ@4IA
_BSS	SEGMENT
?$S1@?1??GetInstance@CWantedListSnapshot@@SAAAV2@XZ@4IA DD 01H DUP (?) ; `CWantedListSnapshot::GetInstance'::`2'::$S1
_BSS	ENDS
;	COMDAT xdata$x
xdata$x	SEGMENT
$T230756 DD	0ffffffffH
	DD	FLAT:$L230634
$T230753 DD	019930520H
	DD	01H
	DD	FLAT:$T230756
	DD	2 DUP(00H)
	DD	2 DUP(00H)
; Function compile flags: /Ogty
; File c:\documents and settings\test\mes documents\source\virtuos_v17\build\program\worldserver\wantedlistsnapshot.cpp
xdata$x	ENDS
;	COMDAT ?GetInstance@CWantedListSnapshot@@SAAAV1@XZ
_TEXT	SEGMENT
__$EHRec$ = -12						; size = 12
?GetInstance@CWantedListSnapshot@@SAAAV1@XZ PROC NEAR	; CWantedListSnapshot::GetInstance, COMDAT

; 5    : {

  00000	64 a1 00 00 00
	00		 mov	 eax, DWORD PTR fs:__except_list

; 6    : 	static CWantedListSnapshot wantedList;

  00006	8a 0d 00 00 00
	00		 mov	 cl, BYTE PTR ?$S1@?1??GetInstance@CWantedListSnapshot@@SAAAV2@XZ@4IA
  0000c	6a ff		 push	 -1
  0000e	68 00 00 00 00	 push	 __ehhandler$?GetInstance@CWantedListSnapshot@@SAAAV1@XZ
  00013	50		 push	 eax
  00014	b8 01 00 00 00	 mov	 eax, 1
  00019	84 c8		 test	 cl, al
  0001b	64 89 25 00 00
	00 00		 mov	 DWORD PTR fs:__except_list, esp
  00022	75 33		 jne	 SHORT $L230754
  00024	09 05 00 00 00
	00		 or	 DWORD PTR ?$S1@?1??GetInstance@CWantedListSnapshot@@SAAAV2@XZ@4IA, eax
  0002a	33 c0		 xor	 eax, eax
  0002c	68 00 00 00 00	 push	 OFFSET FLAT:_$E2
  00031	c7 05 00 00 00
	00 00 00 00 00	 mov	 DWORD PTR ?wantedList@?1??GetInstance@CWantedListSnapshot@@SAAAV2@XZ@4V2@A, OFFSET FLAT:??_7CWantedListSnapshot@@6B@
  0003b	a3 0c 00 00 00	 mov	 DWORD PTR ?wantedList@?1??GetInstance@CWantedListSnapshot@@SAAAV2@XZ@4V2@A+12, eax
  00040	a3 10 00 00 00	 mov	 DWORD PTR ?wantedList@?1??GetInstance@CWantedListSnapshot@@SAAAV2@XZ@4V2@A+16, eax
  00045	a3 14 00 00 00	 mov	 DWORD PTR ?wantedList@?1??GetInstance@CWantedListSnapshot@@SAAAV2@XZ@4V2@A+20, eax
  0004a	a3 04 00 00 00	 mov	 DWORD PTR ?wantedList@?1??GetInstance@CWantedListSnapshot@@SAAAV2@XZ@4V2@A+4, eax
  0004f	e8 00 00 00 00	 call	 _atexit
  00054	83 c4 04	 add	 esp, 4
$L230754:

; 7    : 	return wantedList;
; 8    : }

  00057	8b 0c 24	 mov	 ecx, DWORD PTR __$EHRec$[esp+12]
  0005a	b8 00 00 00 00	 mov	 eax, OFFSET FLAT:?wantedList@?1??GetInstance@CWantedListSnapshot@@SAAAV2@XZ@4V2@A
  0005f	64 89 0d 00 00
	00 00		 mov	 DWORD PTR fs:__except_list, ecx
  00066	83 c4 0c	 add	 esp, 12			; 0000000cH
  00069	c3		 ret	 0
_TEXT	ENDS
;	COMDAT text$x
text$x	SEGMENT
$L230634:
  00000	a1 00 00 00 00	 mov	 eax, DWORD PTR ?$S1@?1??GetInstance@CWantedListSnapshot@@SAAAV2@XZ@4IA
  00005	83 e0 fe	 and	 eax, -2			; fffffffeH
  00008	a3 00 00 00 00	 mov	 DWORD PTR ?$S1@?1??GetInstance@CWantedListSnapshot@@SAAAV2@XZ@4IA, eax
  0000d	c3		 ret	 0
__ehhandler$?GetInstance@CWantedListSnapshot@@SAAAV1@XZ:
  0000e	b8 00 00 00 00	 mov	 eax, OFFSET FLAT:$T230753
  00013	e9 00 00 00 00	 jmp	 ___CxxFrameHandler
text$x	ENDS
?GetInstance@CWantedListSnapshot@@SAAAV1@XZ ENDP	; CWantedListSnapshot::GetInstance
PUBLIC	?Read@CWantedListSnapshot@@QAEXAAVCAr@@@Z	; CWantedListSnapshot::Read
EXTRN	?ReadString@CAr@@QAEPADPADH@Z:NEAR		; CAr::ReadString
; Function compile flags: /Ogty
;	COMDAT ?Read@CWantedListSnapshot@@QAEXAAVCAr@@@Z
_TEXT	SEGMENT
_entry$225989 = -108					; size = 104
__$ArrayPad$ = -4					; size = 4
__$ReturnAddr$ = 4					; size = 4
_ar$ = 8						; size = 4
?Read@CWantedListSnapshot@@QAEXAAVCAr@@@Z PROC NEAR	; CWantedListSnapshot::Read, COMDAT
; _this$ = ecx

; 27   : {

  00000	83 ec 6c	 sub	 esp, 108		; 0000006cH
  00003	a1 00 00 00 00	 mov	 eax, DWORD PTR ___security_cookie
  00008	33 c4		 xor	 eax, esp
  0000a	53		 push	 ebx
  0000b	55		 push	 ebp
  0000c	56		 push	 esi
  0000d	8b 74 24 7c	 mov	 esi, DWORD PTR _ar$[esp+116]
  00011	57		 push	 edi
  00012	8b f9		 mov	 edi, ecx

; 28   : 	m_wantedList.clear();

  00014	8d 5f 08	 lea	 ebx, DWORD PTR [edi+8]
  00017	89 44 24 78	 mov	 DWORD PTR __$ArrayPad$[esp+124], eax
  0001b	8b 43 04	 mov	 eax, DWORD PTR [ebx+4]
  0001e	33 ed		 xor	 ebp, ebp
  00020	3b c5		 cmp	 eax, ebp
  00022	74 09		 je	 SHORT $L230779
  00024	50		 push	 eax
  00025	e8 00 00 00 00	 call	 ??3@YAXPAX@Z		; operator delete
  0002a	83 c4 04	 add	 esp, 4
$L230779:
  0002d	89 6b 04	 mov	 DWORD PTR [ebx+4], ebp
  00030	89 6b 08	 mov	 DWORD PTR [ebx+8], ebp
  00033	89 6b 0c	 mov	 DWORD PTR [ebx+12], ebp

; 29   : 
; 30   : 	int nCount;				//   
; 31   : 
; 32   : 	ar >> m_lRecvTime;

  00036	8b 46 08	 mov	 eax, DWORD PTR [esi+8]
  00039	8b 56 0c	 mov	 edx, DWORD PTR [esi+12]
  0003c	8d 48 04	 lea	 ecx, DWORD PTR [eax+4]
  0003f	3b ca		 cmp	 ecx, edx
  00041	77 0d		 ja	 SHORT $L230786
  00043	8b 10		 mov	 edx, DWORD PTR [eax]
  00045	89 57 04	 mov	 DWORD PTR [edi+4], edx
  00048	8b 46 08	 mov	 eax, DWORD PTR [esi+8]
  0004b	83 c0 04	 add	 eax, 4
  0004e	eb 06		 jmp	 SHORT $L230814
$L230786:
  00050	89 6f 04	 mov	 DWORD PTR [edi+4], ebp
  00053	8b 46 0c	 mov	 eax, DWORD PTR [esi+12]
$L230814:

; 33   : 	ar >> nCount;						

  00056	8b 56 0c	 mov	 edx, DWORD PTR [esi+12]
  00059	8d 48 04	 lea	 ecx, DWORD PTR [eax+4]
  0005c	3b ca		 cmp	 ecx, edx
  0005e	89 46 08	 mov	 DWORD PTR [esi+8], eax
  00061	77 07		 ja	 SHORT $L230798
  00063	8b 00		 mov	 eax, DWORD PTR [eax]
  00065	89 4e 08	 mov	 DWORD PTR [esi+8], ecx
  00068	eb 05		 jmp	 SHORT $L230799
$L230798:
  0006a	33 c0		 xor	 eax, eax
  0006c	89 56 08	 mov	 DWORD PTR [esi+8], edx
$L230799:

; 34   : 	for( int i=0; i<nCount; i++)

  0006f	3b c5		 cmp	 eax, ebp
  00071	7e 5a		 jle	 SHORT $L225988
  00073	8b f8		 mov	 edi, eax
$L225986:

; 35   : 	{
; 36   : 		WANTED_ENTRY	entry;
; 37   : 		ar.ReadString( entry.szPlayer, 64 );

  00075	6a 40		 push	 64			; 00000040H
  00077	8d 4c 24 14	 lea	 ecx, DWORD PTR _entry$225989[esp+128]
  0007b	51		 push	 ecx
  0007c	8b ce		 mov	 ecx, esi
  0007e	e8 00 00 00 00	 call	 ?ReadString@CAr@@QAEPADPADH@Z ; CAr::ReadString

; 38   : 		ar >> entry.nGold;

  00083	6a 08		 push	 8
  00085	8d 54 24 5c	 lea	 edx, DWORD PTR _entry$225989[esp+200]
  00089	52		 push	 edx
  0008a	8b ce		 mov	 ecx, esi
  0008c	e8 00 00 00 00	 call	 ?Read@CAr@@QAEXPAXI@Z	; CAr::Read

; 39   : 		ar >> entry.nEnd; 

  00091	8b 46 08	 mov	 eax, DWORD PTR [esi+8]
  00094	8b 56 0c	 mov	 edx, DWORD PTR [esi+12]
  00097	8d 48 04	 lea	 ecx, DWORD PTR [eax+4]
  0009a	3b ca		 cmp	 ecx, edx
  0009c	77 0b		 ja	 SHORT $L230807
  0009e	8b 00		 mov	 eax, DWORD PTR [eax]
  000a0	89 44 24 50	 mov	 DWORD PTR _entry$225989[esp+188], eax
  000a4	89 4e 08	 mov	 DWORD PTR [esi+8], ecx
  000a7	eb 07		 jmp	 SHORT $L230808
$L230807:
  000a9	89 6c 24 50	 mov	 DWORD PTR _entry$225989[esp+188], ebp
  000ad	89 56 08	 mov	 DWORD PTR [esi+8], edx
$L230808:

; 40   : 		ar.ReadString( entry.szMsg, WANTED_MSG_MAX + 1 );

  000b0	6a 15		 push	 21			; 00000015H
  000b2	8d 4c 24 64	 lea	 ecx, DWORD PTR _entry$225989[esp+208]
  000b6	51		 push	 ecx
  000b7	8b ce		 mov	 ecx, esi
  000b9	e8 00 00 00 00	 call	 ?ReadString@CAr@@QAEPADPADH@Z ; CAr::ReadString

; 41   : 
; 42   : 		m_wantedList.push_back( entry );

  000be	8d 54 24 10	 lea	 edx, DWORD PTR _entry$225989[esp+124]
  000c2	52		 push	 edx
  000c3	8b cb		 mov	 ecx, ebx
  000c5	e8 00 00 00 00	 call	 ?push_back@?$vector@UWANTED_ENTRY@@V?$allocator@UWANTED_ENTRY@@@std@@@std@@QAEXABUWANTED_ENTRY@@@Z ; std::vector<WANTED_ENTRY,std::allocator<WANTED_ENTRY> >::push_back
  000ca	4f		 dec	 edi
  000cb	75 a8		 jne	 SHORT $L225986
$L225988:

; 43   : 	}	
; 44   : }

  000cd	8b 4c 24 78	 mov	 ecx, DWORD PTR __$ArrayPad$[esp+124]
  000d1	5f		 pop	 edi
  000d2	5e		 pop	 esi
  000d3	5d		 pop	 ebp
  000d4	5b		 pop	 ebx
  000d5	33 cc		 xor	 ecx, esp
  000d7	e8 00 00 00 00	 call	 @__security_check_cookie@4
  000dc	83 c4 6c	 add	 esp, 108		; 0000006cH
  000df	c2 04 00	 ret	 4
?Read@CWantedListSnapshot@@QAEXAAVCAr@@@Z ENDP		; CWantedListSnapshot::Read
; Function compile flags: /Ogty
_TEXT	ENDS
;	COMDAT _$E2
text$yd	SEGMENT
_$E2	PROC NEAR					; COMDAT
  00000	b9 00 00 00 00	 mov	 ecx, OFFSET FLAT:?wantedList@?1??GetInstance@CWantedListSnapshot@@SAAAV2@XZ@4V2@A
  00005	e9 00 00 00 00	 jmp	 ??1CWantedListSnapshot@@UAE@XZ ; CWantedListSnapshot::~CWantedListSnapshot
_$E2	ENDP
text$yd	ENDS
END
