; Listing generated by Microsoft (R) Optimizing Compiler Version 13.10.6030 

	TITLE	\Documents and Settings\test\Mes documents\Source\Virtuos_v17\Build\Program\_Common\WorldFile.cpp
	.386P
include listing.inc
if @Version gt 510
.model FLAT
else
_TEXT	SEGMENT PARA USE32 PUBLIC 'CODE'
_TEXT	ENDS
_DATA	SEGMENT DWORD USE32 PUBLIC 'DATA'
_DATA	ENDS
CONST	SEGMENT DWORD USE32 PUBLIC 'CONST'
CONST	ENDS
_BSS	SEGMENT DWORD USE32 PUBLIC 'BSS'
_BSS	ENDS
$$SYMBOLS	SEGMENT BYTE USE32 'DEBSYM'
$$SYMBOLS	ENDS
$$TYPES	SEGMENT BYTE USE32 'DEBTYP'
$$TYPES	ENDS
_TLS	SEGMENT DWORD USE32 PUBLIC 'TLS'
_TLS	ENDS
;	COMDAT ??_C@_07DLHCIBDH@default?$AA@
CONST	SEGMENT DWORD USE32 PUBLIC 'CONST'
CONST	ENDS
;	COMDAT ??_C@_01KICIPPFI@?2?$AA@
CONST	SEGMENT DWORD USE32 PUBLIC 'CONST'
CONST	ENDS
;	COMDAT ??_C@_04PBJIJNEF@?4wld?$AA@
CONST	SEGMENT DWORD USE32 PUBLIC 'CONST'
CONST	ENDS
;	COMDAT ??_C@_04IAGNFIBA@size?$AA@
CONST	SEGMENT DWORD USE32 PUBLIC 'CONST'
CONST	ENDS
;	COMDAT ??_C@_07LIABELBC@ambient?$AA@
CONST	SEGMENT DWORD USE32 PUBLIC 'CONST'
CONST	ENDS
;	COMDAT ??_C@_07CKHGFECF@revival?$AA@
CONST	SEGMENT DWORD USE32 PUBLIC 'CONST'
CONST	ENDS
;	COMDAT ??_C@_06BPDGOGCM@indoor?$AA@
CONST	SEGMENT DWORD USE32 PUBLIC 'CONST'
CONST	ENDS
;	COMDAT ??_C@_03HPMGHIMH@fly?$AA@
CONST	SEGMENT DWORD USE32 PUBLIC 'CONST'
CONST	ENDS
;	COMDAT ??_C@_03NCFPNHCE@bgm?$AA@
CONST	SEGMENT DWORD USE32 PUBLIC 'CONST'
CONST	ENDS
;	COMDAT ??_C@_06LJHLKHIE@pkmode?$AA@
CONST	SEGMENT DWORD USE32 PUBLIC 'CONST'
CONST	ENDS
;	COMDAT ??_C@_07KFBPAAO@diffuse?$AA@
CONST	SEGMENT DWORD USE32 PUBLIC 'CONST'
CONST	ENDS
;	COMDAT ??_C@_08IEJILPJD@lightDir?$AA@
CONST	SEGMENT DWORD USE32 PUBLIC 'CONST'
CONST	ENDS
;	COMDAT ??_C@_0L@IEOKJMIE@fogSetting?$AA@
CONST	SEGMENT DWORD USE32 PUBLIC 'CONST'
CONST	ENDS
;	COMDAT ??_C@_03BMLFCHKC@MPU?$AA@
CONST	SEGMENT DWORD USE32 PUBLIC 'CONST'
CONST	ENDS
;	COMDAT ??_C@_03BNEOMJOP@sky?$AA@
CONST	SEGMENT DWORD USE32 PUBLIC 'CONST'
CONST	ENDS
;	COMDAT ??_C@_05KMHBFKKJ@cloud?$AA@
CONST	SEGMENT DWORD USE32 PUBLIC 'CONST'
CONST	ENDS
;	COMDAT ??_C@_03OHFMDAD@sun?$AA@
CONST	SEGMENT DWORD USE32 PUBLIC 'CONST'
CONST	ENDS
;	COMDAT ??_C@_04IDMPJGHP@moon?$AA@
CONST	SEGMENT DWORD USE32 PUBLIC 'CONST'
CONST	ENDS
;	COMDAT ??_C@_0L@MLDBKMFO@use24light?$AA@
CONST	SEGMENT DWORD USE32 PUBLIC 'CONST'
CONST	ENDS
;	COMDAT ??_C@_08PEPEPPIG@?$CFs?$CFs?4pat?$AA@
CONST	SEGMENT DWORD USE32 PUBLIC 'CONST'
CONST	ENDS
;	COMDAT ??_C@_08JAIMAGBM@?$CFs?$CFs?4dyo?$AA@
CONST	SEGMENT DWORD USE32 PUBLIC 'CONST'
CONST	ENDS
;	COMDAT ??_C@_02JDPG@rb?$AA@
CONST	SEGMENT DWORD USE32 PUBLIC 'CONST'
CONST	ENDS
;	COMDAT ??_C@_07OAIJKKOJ@region2?$AA@
CONST	SEGMENT DWORD USE32 PUBLIC 'CONST'
CONST	ENDS
;	COMDAT ??_C@_07PJJCJLKI@region3?$AA@
CONST	SEGMENT DWORD USE32 PUBLIC 'CONST'
CONST	ENDS
;	COMDAT ??_C@_02PCIJFNDE@?$AN?6?$AA@
CONST	SEGMENT DWORD USE32 PUBLIC 'CONST'
CONST	ENDS
;	COMDAT ??_C@_02JOGGLHBA@?2n?$AA@
CONST	SEGMENT DWORD USE32 PUBLIC 'CONST'
CONST	ENDS
;	COMDAT ??_C@_08HEIJBNCJ@respawn2?$AA@
CONST	SEGMENT DWORD USE32 PUBLIC 'CONST'
CONST	ENDS
;	COMDAT ??_C@_08GNJCCMGI@respawn3?$AA@
CONST	SEGMENT DWORD USE32 PUBLIC 'CONST'
CONST	ENDS
;	COMDAT ??_C@_08CCNDLKKP@respawn4?$AA@
CONST	SEGMENT DWORD USE32 PUBLIC 'CONST'
CONST	ENDS
;	COMDAT ??_C@_08DLMIILOO@respawn5?$AA@
CONST	SEGMENT DWORD USE32 PUBLIC 'CONST'
CONST	ENDS
;	COMDAT ??_C@_08BAOFNICN@respawn6?$AA@
CONST	SEGMENT DWORD USE32 PUBLIC 'CONST'
CONST	ENDS
;	COMDAT ??_C@_08JPOOJGM@respawn7?$AA@
CONST	SEGMENT DWORD USE32 PUBLIC 'CONST'
CONST	ENDS
;	COMDAT ??_C@_0EA@DKDHDJBA@type?$DN?$CFd?0?5index?$DN?$CFd?0?5left?$DN?$CFd?0?5top?$DN@
CONST	SEGMENT DWORD USE32 PUBLIC 'CONST'
CONST	ENDS
;	COMDAT ??_C@_08OKFNLBGE@?$CFs?$CFs?4rgn?$AA@
CONST	SEGMENT DWORD USE32 PUBLIC 'CONST'
CONST	ENDS
;	COMDAT ??_C@_06JEJEKGIK@region?$AA@
CONST	SEGMENT DWORD USE32 PUBLIC 'CONST'
CONST	ENDS
;	COMDAT ??_C@_07PABIOCAD@respawn?$AA@
CONST	SEGMENT DWORD USE32 PUBLIC 'CONST'
CONST	ENDS
;	COMDAT ??_C@_0BC@CNNIKIAG@?$CFs?$CFs?$CF02d?9?$CF02d?4lnd?$AA@
CONST	SEGMENT DWORD USE32 PUBLIC 'CONST'
CONST	ENDS
;	COMDAT ??_C@_0L@HNBIHNDK@Npc_Reward?$AA@
CONST	SEGMENT DWORD USE32 PUBLIC 'CONST'
CONST	ENDS
;	COMDAT ??_C@_0N@ECDDLOKN@MaMa_PKNPC01?$AA@
CONST	SEGMENT DWORD USE32 PUBLIC 'CONST'
CONST	ENDS
;	COMDAT ??_C@_0O@JHMCKCLL@MaFl_GuildWar?$AA@
CONST	SEGMENT DWORD USE32 PUBLIC 'CONST'
CONST	ENDS
;	COMDAT ??_C@_0N@CFLHKDHL@MaFl_Donaris?$AA@
CONST	SEGMENT DWORD USE32 PUBLIC 'CONST'
CONST	ENDS
;	COMDAT ??_C@_0L@COKDNMAK@MaFl_Annie?$AA@
CONST	SEGMENT DWORD USE32 PUBLIC 'CONST'
CONST	ENDS
;	COMDAT ??_C@_09IJFDCBKI@MaFl_Amos?$AA@
CONST	SEGMENT DWORD USE32 PUBLIC 'CONST'
CONST	ENDS
;	COMDAT ??_C@_08BOCINMNN@MaFl_Ray?$AA@
CONST	SEGMENT DWORD USE32 PUBLIC 'CONST'
CONST	ENDS
;	COMDAT ??_C@_0BF@GIDCKINC@MaFl_SecretRoom_EAST?$AA@
CONST	SEGMENT DWORD USE32 PUBLIC 'CONST'
CONST	ENDS
;	COMDAT ??_C@_0BF@HKGPDCHN@MaDa_SecretRoom_WEST?$AA@
CONST	SEGMENT DWORD USE32 PUBLIC 'CONST'
CONST	ENDS
;	COMDAT ??_C@_0O@KLHPCLJ@MaFl_HairShop?$AA@
CONST	SEGMENT DWORD USE32 PUBLIC 'CONST'
CONST	ENDS
;	COMDAT ??_C@_0N@EABLOLBA@MaFl_FaceOff?$AA@
CONST	SEGMENT DWORD USE32 PUBLIC 'CONST'
CONST	ENDS
;	COMDAT ??_C@_0BC@FLMJHIEJ@MaFl_RainbowStart?$AA@
CONST	SEGMENT DWORD USE32 PUBLIC 'CONST'
CONST	ENDS
xdata$x	SEGMENT DWORD USE32 PUBLIC 'CONST'
xdata$x	ENDS
text$AFX_COL1	SEGMENT PARA USE32 PUBLIC ''
text$AFX_COL1	ENDS
;	COMDAT ?GetWorldStruct@CWorldMng@@QAEPAUtagWORLD@@K@Z
_TEXT	SEGMENT PARA USE32 PUBLIC 'CODE'
_TEXT	ENDS
;	COMDAT ?SelectMemberClear@__GuildCombatMember@CGuildCombat@@QAEXXZ
_TEXT	SEGMENT PARA USE32 PUBLIC 'CODE'
_TEXT	ENDS
;	COMDAT ??0__MINIGAME_PACKET@@QAE@GHHH@Z
_TEXT	SEGMENT PARA USE32 PUBLIC 'CODE'
_TEXT	ENDS
;	COMDAT ?Serialize@__MINIGAME_PACKET@@UAEXAAVCAr@@@Z
_TEXT	SEGMENT PARA USE32 PUBLIC 'CODE'
_TEXT	ENDS
;	COMDAT ?Serialize@__MINIGAME_EXT_PACKET@@UAEXAAVCAr@@@Z
_TEXT	SEGMENT PARA USE32 PUBLIC 'CODE'
_TEXT	ENDS
;	COMDAT ??0MINIGMAME_PRIZE_LIST@CRainbowRaceMng@@QAE@KHK@Z
_TEXT	SEGMENT PARA USE32 PUBLIC 'CODE'
_TEXT	ENDS
;	COMDAT ?RemovePlayerId2CampusId@CCampusMng@@QAEXK@Z
_TEXT	SEGMENT PARA USE32 PUBLIC 'CODE'
_TEXT	ENDS
;	COMDAT ?IsInstanceDungeon@CInstanceDungeonHelper@@QAEHK@Z
_TEXT	SEGMENT PARA USE32 PUBLIC 'CODE'
_TEXT	ENDS
;	COMDAT ?OpenWorld@CWorld@@QAEHKH@Z
_TEXT	SEGMENT PARA USE32 PUBLIC 'CODE'
_TEXT	ENDS
;	COMDAT ?OpenWorld@CWorld@@QAEHPBDH@Z
_TEXT	SEGMENT PARA USE32 PUBLIC 'CODE'
_TEXT	ENDS
;	COMDAT ?LoadPatrol@CWorld@@QAEHXZ
_TEXT	SEGMENT PARA USE32 PUBLIC 'CODE'
_TEXT	ENDS
;	COMDAT ?DeleteLayerControls@CWorld@@QAEXH@Z
_TEXT	SEGMENT PARA USE32 PUBLIC 'CODE'
_TEXT	ENDS
;	COMDAT ?LoadObject@CWorld@@QAEHH@Z
_TEXT	SEGMENT PARA USE32 PUBLIC 'CODE'
_TEXT	ENDS
;	COMDAT ?RegionDesc_SaveFormatToString@@YAXPAG@Z
_TEXT	SEGMENT PARA USE32 PUBLIC 'CODE'
_TEXT	ENDS
;	COMDAT ?RegionDesc_StringToSaveFormat@@YAXPAG@Z
_TEXT	SEGMENT PARA USE32 PUBLIC 'CODE'
_TEXT	ENDS
;	COMDAT ?ReadRegion@CWorld@@QAEHAAVCScript@@@Z
_TEXT	SEGMENT PARA USE32 PUBLIC 'CODE'
_TEXT	ENDS
;	COMDAT ?ReadRespawn@CWorld@@QAEHAAVCScript@@@Z
_TEXT	SEGMENT PARA USE32 PUBLIC 'CODE'
_TEXT	ENDS
;	COMDAT ?LoadRegion@CWorld@@QAEHXZ
_TEXT	SEGMENT PARA USE32 PUBLIC 'CODE'
_TEXT	ENDS
;	COMDAT ?ReadWorld@CWorld@@QAEHABVCRect@@@Z
_TEXT	SEGMENT PARA USE32 PUBLIC 'CODE'
_TEXT	ENDS
;	COMDAT ?IsUsableDYO@CWorld@@QAEHPAVCObj@@@Z
_TEXT	SEGMENT PARA USE32 PUBLIC 'CODE'
_TEXT	ENDS
;	COMDAT ?IsUsableDYO2@CWorld@@QAEHPAUtagCHARACTER@@@Z
_TEXT	SEGMENT PARA USE32 PUBLIC 'CODE'
_TEXT	ENDS
;	COMDAT ?CreateLayer@CWorld@@QAEHH@Z
_TEXT	SEGMENT PARA USE32 PUBLIC 'CODE'
_TEXT	ENDS
;	COMDAT ?HasNobody@CWorld@@QAEHH@Z
_TEXT	SEGMENT PARA USE32 PUBLIC 'CODE'
_TEXT	ENDS
;	COMDAT ?HasNobody_Process@CWorld@@AAEHH@Z
_TEXT	SEGMENT PARA USE32 PUBLIC 'CODE'
_TEXT	ENDS
;	COMDAT ?HasNoObj_Add@CWorld@@AAEHH@Z
_TEXT	SEGMENT PARA USE32 PUBLIC 'CODE'
_TEXT	ENDS
;	COMDAT ?HasNobody_Replace@CWorld@@AAEHH@Z
_TEXT	SEGMENT PARA USE32 PUBLIC 'CODE'
_TEXT	ENDS
;	COMDAT ?IsLayerPlayer@CWorld@@AAEHPAVCObj@@H@Z
_TEXT	SEGMENT PARA USE32 PUBLIC 'CODE'
_TEXT	ENDS
;	COMDAT ?DriveOut@CWorld@@QAEXH@Z
_TEXT	SEGMENT PARA USE32 PUBLIC 'CODE'
_TEXT	ENDS
;	COMDAT ?ReleaseLayer@CWorld@@QAEHH@Z
_TEXT	SEGMENT PARA USE32 PUBLIC 'CODE'
_TEXT	ENDS
;	COMDAT ?DestroyObj@CWorld@@QAEXH@Z
_TEXT	SEGMENT PARA USE32 PUBLIC 'CODE'
_TEXT	ENDS
;	COMDAT ?Delete@?$CStringT@DV?$StrTraitMFC@DV?$ChTraitsCRT@D@ATL@@@@@ATL@@QAEHHH@Z
_TEXT	SEGMENT PARA USE32 PUBLIC 'CODE'
_TEXT	ENDS
;	COMDAT ?Replace@?$CStringT@DV?$StrTraitMFC@DV?$ChTraitsCRT@D@ATL@@@@@ATL@@QAEHPBD0@Z
_TEXT	SEGMENT PARA USE32 PUBLIC 'CODE'
_TEXT	ENDS
;	COMDAT ?Format@?$CStringT@DV?$StrTraitMFC@DV?$ChTraitsCRT@D@ATL@@@@@ATL@@QAAXPBDZZ
_TEXT	SEGMENT PARA USE32 PUBLIC 'CODE'
_TEXT	ENDS
;	COMDAT ??8ATL@@YA_NABV?$CStringT@DV?$StrTraitMFC@DV?$ChTraitsCRT@D@ATL@@@@@0@PBD@Z
_TEXT	SEGMENT PARA USE32 PUBLIC 'CODE'
_TEXT	ENDS
;	COMDAT ??9ATL@@YA_NPBDABV?$CStringT@DV?$StrTraitMFC@DV?$ChTraitsCRT@D@ATL@@@@@0@@Z
_TEXT	SEGMENT PARA USE32 PUBLIC 'CODE'
_TEXT	ENDS
;	COMDAT ?compare@?$basic_string@DU?$char_traits@D@std@@V?$allocator@D@2@@std@@QBEHABV12@@Z
_TEXT	SEGMENT PARA USE32 PUBLIC 'CODE'
_TEXT	ENDS
;	COMDAT ?IsFull@?$CStack@K@@QAEHXZ
_TEXT	SEGMENT PARA USE32 PUBLIC 'CODE'
_TEXT	ENDS
;	COMDAT ??A?$map@KPAVCCtrl@@U?$less@K@std@@V?$allocator@U?$pair@$$CBKPAVCCtrl@@@std@@@3@@std@@QAEAAPAVCCtrl@@ABK@Z
_TEXT	SEGMENT PARA USE32 PUBLIC 'CODE'
_TEXT	ENDS
;	COMDAT ??0?$pair@KPAVCCtrl@@@std@@QAE@ABKABQAVCCtrl@@@Z
_TEXT	SEGMENT PARA USE32 PUBLIC 'CODE'
_TEXT	ENDS
;	COMDAT ?size@?$vector@KV?$allocator@K@std@@@std@@QBEIXZ
_TEXT	SEGMENT PARA USE32 PUBLIC 'CODE'
_TEXT	ENDS
;	COMDAT ?empty@?$vector@KV?$allocator@K@std@@@std@@QBE_NXZ
_TEXT	SEGMENT PARA USE32 PUBLIC 'CODE'
_TEXT	ENDS
;	COMDAT ??A?$vector@KV?$allocator@K@std@@@std@@QAEAAKI@Z
_TEXT	SEGMENT PARA USE32 PUBLIC 'CODE'
_TEXT	ENDS
;	COMDAT ?GetMax@?$CItemContainer@VCItemElem@@@@QAEHXZ
_TEXT	SEGMENT PARA USE32 PUBLIC 'CODE'
_TEXT	ENDS
;	COMDAT ??0?$deque@PAUtagACTMSG@@V?$allocator@PAUtagACTMSG@@@std@@@std@@QAE@XZ
_TEXT	SEGMENT PARA USE32 PUBLIC 'CODE'
_TEXT	ENDS
;	COMDAT ??1?$deque@PAUtagACTMSG@@V?$allocator@PAUtagACTMSG@@@std@@@std@@QAE@XZ
_TEXT	SEGMENT PARA USE32 PUBLIC 'CODE'
_TEXT	ENDS
;	COMDAT ?begin@?$deque@PAUtagACTMSG@@V?$allocator@PAUtagACTMSG@@@std@@@std@@QAE?AViterator@12@XZ
_TEXT	SEGMENT PARA USE32 PUBLIC 'CODE'
_TEXT	ENDS
;	COMDAT ?end@?$deque@PAUtagACTMSG@@V?$allocator@PAUtagACTMSG@@@std@@@std@@QAE?AViterator@12@XZ
_TEXT	SEGMENT PARA USE32 PUBLIC 'CODE'
_TEXT	ENDS
;	COMDAT ?empty@?$deque@PAUtagACTMSG@@V?$allocator@PAUtagACTMSG@@@std@@@std@@QBE_NXZ
_TEXT	SEGMENT PARA USE32 PUBLIC 'CODE'
_TEXT	ENDS
;	COMDAT ?clear@?$deque@PAUtagACTMSG@@V?$allocator@PAUtagACTMSG@@@std@@@std@@QAEXXZ
_TEXT	SEGMENT PARA USE32 PUBLIC 'CODE'
_TEXT	ENDS
;	COMDAT ??0?$deque@PAUtagMAGICATKMSG@@V?$allocator@PAUtagMAGICATKMSG@@@std@@@std@@QAE@XZ
_TEXT	SEGMENT PARA USE32 PUBLIC 'CODE'
_TEXT	ENDS
;	COMDAT ??1?$deque@PAUtagMAGICATKMSG@@V?$allocator@PAUtagMAGICATKMSG@@@std@@@std@@QAE@XZ
_TEXT	SEGMENT PARA USE32 PUBLIC 'CODE'
_TEXT	ENDS
;	COMDAT ?begin@?$deque@PAUtagMAGICATKMSG@@V?$allocator@PAUtagMAGICATKMSG@@@std@@@std@@QAE?AViterator@12@XZ
_TEXT	SEGMENT PARA USE32 PUBLIC 'CODE'
_TEXT	ENDS
;	COMDAT ?end@?$deque@PAUtagMAGICATKMSG@@V?$allocator@PAUtagMAGICATKMSG@@@std@@@std@@QAE?AViterator@12@XZ
_TEXT	SEGMENT PARA USE32 PUBLIC 'CODE'
_TEXT	ENDS
;	COMDAT ?empty@?$deque@PAUtagMAGICATKMSG@@V?$allocator@PAUtagMAGICATKMSG@@@std@@@std@@QBE_NXZ
_TEXT	SEGMENT PARA USE32 PUBLIC 'CODE'
_TEXT	ENDS
;	COMDAT ?clear@?$deque@PAUtagMAGICATKMSG@@V?$allocator@PAUtagMAGICATKMSG@@@std@@@std@@QAEXXZ
_TEXT	SEGMENT PARA USE32 PUBLIC 'CODE'
_TEXT	ENDS
;	COMDAT ?push_back@?$vector@PAVCObj@@V?$allocator@PAVCObj@@@std@@@std@@QAEXABQAVCObj@@@Z
_TEXT	SEGMENT PARA USE32 PUBLIC 'CODE'
_TEXT	ENDS
;	COMDAT ??Diterator@?$deque@PAUtagACTMSG@@V?$allocator@PAUtagACTMSG@@@std@@@std@@QBEAAPAUtagACTMSG@@XZ
_TEXT	SEGMENT PARA USE32 PUBLIC 'CODE'
_TEXT	ENDS
;	COMDAT ??Eiterator@?$deque@PAUtagACTMSG@@V?$allocator@PAUtagACTMSG@@@std@@@std@@QAEAAV012@XZ
_TEXT	SEGMENT PARA USE32 PUBLIC 'CODE'
_TEXT	ENDS
;	COMDAT ??9const_iterator@?$deque@PAUtagACTMSG@@V?$allocator@PAUtagACTMSG@@@std@@@std@@QBE_NABV012@@Z
_TEXT	SEGMENT PARA USE32 PUBLIC 'CODE'
_TEXT	ENDS
;	COMDAT ??Diterator@?$deque@PAUtagMAGICATKMSG@@V?$allocator@PAUtagMAGICATKMSG@@@std@@@std@@QBEAAPAUtagMAGICATKMSG@@XZ
_TEXT	SEGMENT PARA USE32 PUBLIC 'CODE'
_TEXT	ENDS
;	COMDAT ??Eiterator@?$deque@PAUtagMAGICATKMSG@@V?$allocator@PAUtagMAGICATKMSG@@@std@@@std@@QAEAAV012@XZ
_TEXT	SEGMENT PARA USE32 PUBLIC 'CODE'
_TEXT	ENDS
;	COMDAT ??9const_iterator@?$deque@PAUtagMAGICATKMSG@@V?$allocator@PAUtagMAGICATKMSG@@@std@@@std@@QBE_NABV012@@Z
_TEXT	SEGMENT PARA USE32 PUBLIC 'CODE'
_TEXT	ENDS
;	COMDAT ?erase@?$_Tree@V?$_Tmap_traits@KU_Friend@@U?$less@K@std@@V?$allocator@U?$pair@$$CBKU_Friend@@@std@@@3@$0A@@std@@@std@@QAEIABK@Z
_TEXT	SEGMENT PARA USE32 PUBLIC 'CODE'
_TEXT	ENDS
;	COMDAT ?size@?$_Tree@V?$_Tmap_traits@KPAVCGuildMember@@U?$less@K@std@@V?$allocator@U?$pair@$$CBKPAVCGuildMember@@@std@@@3@$0A@@std@@@std@@QBEIXZ
_TEXT	SEGMENT PARA USE32 PUBLIC 'CODE'
_TEXT	ENDS
;	COMDAT ?size@?$_Tree@V?$_Tmap_traits@KPAVCGuild@@U?$less@K@std@@V?$allocator@U?$pair@$$CBKPAVCGuild@@@std@@@3@$0A@@std@@@std@@QBEIXZ
_TEXT	SEGMENT PARA USE32 PUBLIC 'CODE'
_TEXT	ENDS
;	COMDAT ?size@?$vector@PAU__JOINPLAYER@CGuildCombat@@V?$allocator@PAU__JOINPLAYER@CGuildCombat@@@std@@@std@@QBEIXZ
_TEXT	SEGMENT PARA USE32 PUBLIC 'CODE'
_TEXT	ENDS
;	COMDAT ??A?$vector@PAU__JOINPLAYER@CGuildCombat@@V?$allocator@PAU__JOINPLAYER@CGuildCombat@@@std@@@std@@QAEAAPAU__JOINPLAYER@CGuildCombat@@I@Z
_TEXT	SEGMENT PARA USE32 PUBLIC 'CODE'
_TEXT	ENDS
;	COMDAT ?clear@?$vector@PAU__JOINPLAYER@CGuildCombat@@V?$allocator@PAU__JOINPLAYER@CGuildCombat@@@std@@@std@@QAEXXZ
_TEXT	SEGMENT PARA USE32 PUBLIC 'CODE'
_TEXT	ENDS
;	COMDAT ?clear@?$list@PAU__JOINPLAYER@CGuildCombat@@V?$allocator@PAU__JOINPLAYER@CGuildCombat@@@std@@@std@@QAEXXZ
_TEXT	SEGMENT PARA USE32 PUBLIC 'CODE'
_TEXT	ENDS
;	COMDAT ?size@?$_Tree@V?$_Tmap_traits@KPAU_PlayerData@@U?$less@K@std@@V?$allocator@U?$pair@$$CBKPAU_PlayerData@@@std@@@3@$0A@@std@@@std@@QBEIXZ
_TEXT	SEGMENT PARA USE32 PUBLIC 'CODE'
_TEXT	ENDS
;	COMDAT ??0?$vector@U__SECRETROOM_MONSTER@@V?$allocator@U__SECRETROOM_MONSTER@@@std@@@std@@QAE@XZ
_TEXT	SEGMENT PARA USE32 PUBLIC 'CODE'
_TEXT	ENDS
;	COMDAT ??1?$vector@U__SECRETROOM_MONSTER@@V?$allocator@U__SECRETROOM_MONSTER@@@std@@@std@@QAE@XZ
_TEXT	SEGMENT PARA USE32 PUBLIC 'CODE'
_TEXT	ENDS
;	COMDAT ??0?$vector@V?$basic_string@DU?$char_traits@D@std@@V?$allocator@D@2@@std@@V?$allocator@V?$basic_string@DU?$char_traits@D@std@@V?$allocator@D@2@@std@@@2@@std@@QAE@XZ
_TEXT	SEGMENT PARA USE32 PUBLIC 'CODE'
_TEXT	ENDS
;	COMDAT ??1?$vector@V?$basic_string@DU?$char_traits@D@std@@V?$allocator@D@2@@std@@V?$allocator@V?$basic_string@DU?$char_traits@D@std@@V?$allocator@D@2@@std@@@2@@std@@QAE@XZ
_TEXT	SEGMENT PARA USE32 PUBLIC 'CODE'
_TEXT	ENDS
;	COMDAT ?size@?$vector@V?$basic_string@DU?$char_traits@D@std@@V?$allocator@D@2@@std@@V?$allocator@V?$basic_string@DU?$char_traits@D@std@@V?$allocator@D@2@@std@@@2@@std@@QBEIXZ
_TEXT	SEGMENT PARA USE32 PUBLIC 'CODE'
_TEXT	ENDS
;	COMDAT ??A?$vector@V?$basic_string@DU?$char_traits@D@std@@V?$allocator@D@2@@std@@V?$allocator@V?$basic_string@DU?$char_traits@D@std@@V?$allocator@D@2@@std@@@2@@std@@QAEAAV?$basic_string@DU?$char_traits@D@std@@V?$allocator@D@2@@1@I@Z
_TEXT	SEGMENT PARA USE32 PUBLIC 'CODE'
_TEXT	ENDS
;	COMDAT ?push_back@?$vector@V?$basic_string@DU?$char_traits@D@std@@V?$allocator@D@2@@std@@V?$allocator@V?$basic_string@DU?$char_traits@D@std@@V?$allocator@D@2@@std@@@2@@std@@QAEXABV?$basic_string@DU?$char_traits@D@std@@V?$allocator@D@2@@2@@Z
_TEXT	SEGMENT PARA USE32 PUBLIC 'CODE'
_TEXT	ENDS
;	COMDAT ?clear@?$vector@V?$basic_string@DU?$char_traits@D@std@@V?$allocator@D@2@@std@@V?$allocator@V?$basic_string@DU?$char_traits@D@std@@V?$allocator@D@2@@std@@@2@@std@@QAEXXZ
_TEXT	SEGMENT PARA USE32 PUBLIC 'CODE'
_TEXT	ENDS
;	COMDAT ?push_back@?$vector@UMINIGMAME_PRIZE_LIST@CRainbowRaceMng@@V?$allocator@UMINIGMAME_PRIZE_LIST@CRainbowRaceMng@@@std@@@std@@QAEXABUMINIGMAME_PRIZE_LIST@CRainbowRaceMng@@@Z
_TEXT	SEGMENT PARA USE32 PUBLIC 'CODE'
_TEXT	ENDS
;	COMDAT ?size@?$_Tree@V?$_Tmap_traits@KPAVCRainbowRace@@U?$less@K@std@@V?$allocator@U?$pair@$$CBKPAVCRainbowRace@@@std@@@3@$0A@@std@@@std@@QBEIXZ
_TEXT	SEGMENT PARA USE32 PUBLIC 'CODE'
_TEXT	ENDS
;	COMDAT ?size@?$vector@PAVCMiniGameBase@@V?$allocator@PAVCMiniGameBase@@@std@@@std@@QBEIXZ
_TEXT	SEGMENT PARA USE32 PUBLIC 'CODE'
_TEXT	ENDS
;	COMDAT ??A?$vector@PAVCMiniGameBase@@V?$allocator@PAVCMiniGameBase@@@std@@@std@@QAEAAPAVCMiniGameBase@@I@Z
_TEXT	SEGMENT PARA USE32 PUBLIC 'CODE'
_TEXT	ENDS
;	COMDAT ?size@?$vector@UGuildHouse_Furniture_Info@CGuildHouseBase@@V?$allocator@UGuildHouse_Furniture_Info@CGuildHouseBase@@@std@@@std@@QBEIXZ
_TEXT	SEGMENT PARA USE32 PUBLIC 'CODE'
_TEXT	ENDS
;	COMDAT ??A?$vector@UGuildHouse_Furniture_Info@CGuildHouseBase@@V?$allocator@UGuildHouse_Furniture_Info@CGuildHouseBase@@@std@@@std@@QAEAAUGuildHouse_Furniture_Info@CGuildHouseBase@@I@Z
_TEXT	SEGMENT PARA USE32 PUBLIC 'CODE'
_TEXT	ENDS
;	COMDAT ?empty@?$_Tree@V?$_Tmap_traits@KPAVCGuildHouseBase@@U?$less@K@std@@V?$allocator@U?$pair@$$CBKPAVCGuildHouseBase@@@std@@@3@$0A@@std@@@std@@QBE_NXZ
_TEXT	SEGMENT PARA USE32 PUBLIC 'CODE'
_TEXT	ENDS
;	COMDAT ?insert@?$_Tree@V?$_Tmap_traits@KPAVCGuildHouseBase@@U?$less@K@std@@V?$allocator@U?$pair@$$CBKPAVCGuildHouseBase@@@std@@@3@$0A@@std@@@std@@QAE?AU?$pair@Viterator@?$_Tree@V?$_Tmap_traits@KPAVCGuildHouseBase@@U?$less@K@std@@V?$allocator@U?$pair@$$CBKPAVCGuildHouseBase@@@std@@@3@$0A@@std@@@std@@_N@2@ABU?$pair@$$CBKPAVCGuildHouseBase@@@2@@Z
_TEXT	SEGMENT PARA USE32 PUBLIC 'CODE'
_TEXT	ENDS
;	COMDAT ?size@?$_Tree@V?$_Tmap_traits@KPAVCCampusMember@@U?$less@K@std@@V?$allocator@U?$pair@$$CBKPAVCCampusMember@@@std@@@3@$0A@@std@@@std@@QBEIXZ
_TEXT	SEGMENT PARA USE32 PUBLIC 'CODE'
_TEXT	ENDS
;	COMDAT ?empty@?$_Tree@V?$_Tmap_traits@KPAVCCampus@@U?$less@K@std@@V?$allocator@U?$pair@$$CBKPAVCCampus@@@std@@@3@$0A@@std@@@std@@QBE_NXZ
_TEXT	SEGMENT PARA USE32 PUBLIC 'CODE'
_TEXT	ENDS
;	COMDAT ?erase@?$_Tree@V?$_Tmap_traits@KKU?$less@K@std@@V?$allocator@U?$pair@$$CBKK@std@@@2@$0A@@std@@@std@@QAEIABK@Z
_TEXT	SEGMENT PARA USE32 PUBLIC 'CODE'
_TEXT	ENDS
;	COMDAT ?Compare@?$CStringT@DV?$StrTraitMFC@DV?$ChTraitsCRT@D@ATL@@@@@ATL@@QBEHPBD@Z
_TEXT	SEGMENT PARA USE32 PUBLIC 'CODE'
_TEXT	ENDS
;	COMDAT ?FormatV@?$CStringT@DV?$StrTraitMFC@DV?$ChTraitsCRT@D@ATL@@@@@ATL@@QAEXPBDPAD@Z
_TEXT	SEGMENT PARA USE32 PUBLIC 'CODE'
_TEXT	ENDS
;	COMDAT ?GetBuffer@?$CSimpleStringT@D$0A@@ATL@@QAEPADXZ
_TEXT	SEGMENT PARA USE32 PUBLIC 'CODE'
_TEXT	ENDS
;	COMDAT ?StringFindString@?$ChTraitsCRT@D@ATL@@SAPADPADPBD@Z
_TEXT	SEGMENT PARA USE32 PUBLIC 'CODE'
_TEXT	ENDS
;	COMDAT ?SafeStringLen@?$ChTraitsCRT@D@ATL@@SAHPBD@Z
_TEXT	SEGMENT PARA USE32 PUBLIC 'CODE'
_TEXT	ENDS
;	COMDAT ?compare@?$basic_string@DU?$char_traits@D@std@@V?$allocator@D@2@@std@@QBEHIIPBDI@Z
_TEXT	SEGMENT PARA USE32 PUBLIC 'CODE'
_TEXT	ENDS
;	COMDAT ??0?$allocator@V?$basic_string@DU?$char_traits@D@std@@V?$allocator@D@2@@std@@@std@@QAE@XZ
_TEXT	SEGMENT PARA USE32 PUBLIC 'CODE'
_TEXT	ENDS
;	COMDAT ?insert@?$_Tree@V?$_Tmap_traits@KPAVCCtrl@@U?$less@K@std@@V?$allocator@U?$pair@$$CBKPAVCCtrl@@@std@@@3@$0A@@std@@@std@@QAE?AViterator@12@V312@ABU?$pair@$$CBKPAVCCtrl@@@2@@Z
_TEXT	SEGMENT PARA USE32 PUBLIC 'CODE'
_TEXT	ENDS
;	COMDAT ??0?$pair@$$CBKPAVCCtrl@@@std@@QAE@ABKABQAVCCtrl@@@Z
_TEXT	SEGMENT PARA USE32 PUBLIC 'CODE'
_TEXT	ENDS
;	COMDAT ?begin@?$vector@KV?$allocator@K@std@@@std@@QAE?AViterator@12@XZ
_TEXT	SEGMENT PARA USE32 PUBLIC 'CODE'
_TEXT	ENDS
;	COMDAT ?_Tidy@?$deque@PAUtagACTMSG@@V?$allocator@PAUtagACTMSG@@@std@@@std@@IAEXXZ
_TEXT	SEGMENT PARA USE32 PUBLIC 'CODE'
_TEXT	ENDS
;	COMDAT ??0?$_Deque_val@PAUtagACTMSG@@V?$allocator@PAUtagACTMSG@@@std@@@std@@IAE@V?$allocator@PAUtagACTMSG@@@1@@Z
_TEXT	SEGMENT PARA USE32 PUBLIC 'CODE'
_TEXT	ENDS
;	COMDAT ??0?$allocator@PAUtagACTMSG@@@std@@QAE@XZ
_TEXT	SEGMENT PARA USE32 PUBLIC 'CODE'
_TEXT	ENDS
;	COMDAT ?_Tidy@?$deque@PAUtagMAGICATKMSG@@V?$allocator@PAUtagMAGICATKMSG@@@std@@@std@@IAEXXZ
_TEXT	SEGMENT PARA USE32 PUBLIC 'CODE'
_TEXT	ENDS
;	COMDAT ??0?$_Deque_val@PAUtagMAGICATKMSG@@V?$allocator@PAUtagMAGICATKMSG@@@std@@@std@@IAE@V?$allocator@PAUtagMAGICATKMSG@@@1@@Z
_TEXT	SEGMENT PARA USE32 PUBLIC 'CODE'
_TEXT	ENDS
;	COMDAT ??0?$allocator@PAUtagMAGICATKMSG@@@std@@QAE@XZ
_TEXT	SEGMENT PARA USE32 PUBLIC 'CODE'
_TEXT	ENDS
;	COMDAT ?capacity@?$vector@PAVCObj@@V?$allocator@PAVCObj@@@std@@@std@@QBEIXZ
_TEXT	SEGMENT PARA USE32 PUBLIC 'CODE'
_TEXT	ENDS
;	COMDAT ?end@?$vector@PAVCObj@@V?$allocator@PAVCObj@@@std@@@std@@QAE?AViterator@12@XZ
_TEXT	SEGMENT PARA USE32 PUBLIC 'CODE'
_TEXT	ENDS
;	COMDAT ?size@?$vector@PAVCObj@@V?$allocator@PAVCObj@@@std@@@std@@QBEIXZ
_TEXT	SEGMENT PARA USE32 PUBLIC 'CODE'
_TEXT	ENDS
;	COMDAT ?insert@?$vector@PAVCObj@@V?$allocator@PAVCObj@@@std@@@std@@QAE?AViterator@12@V312@ABQAVCObj@@@Z
_TEXT	SEGMENT PARA USE32 PUBLIC 'CODE'
_TEXT	ENDS
;	COMDAT ?_Ufill@?$vector@PAVCObj@@V?$allocator@PAVCObj@@@std@@@std@@IAEPAPAVCObj@@PAPAV3@IABQAV3@@Z
_TEXT	SEGMENT PARA USE32 PUBLIC 'CODE'
_TEXT	ENDS
;	COMDAT ??0iterator@?$deque@PAUtagACTMSG@@V?$allocator@PAUtagACTMSG@@@std@@@std@@QAE@IPBV12@@Z
_TEXT	SEGMENT PARA USE32 PUBLIC 'CODE'
_TEXT	ENDS
;	COMDAT ??Dconst_iterator@?$deque@PAUtagACTMSG@@V?$allocator@PAUtagACTMSG@@@std@@@std@@QBEABQAUtagACTMSG@@XZ
_TEXT	SEGMENT PARA USE32 PUBLIC 'CODE'
_TEXT	ENDS
;	COMDAT ??8const_iterator@?$deque@PAUtagACTMSG@@V?$allocator@PAUtagACTMSG@@@std@@@std@@QBE_NABV012@@Z
_TEXT	SEGMENT PARA USE32 PUBLIC 'CODE'
_TEXT	ENDS
;	COMDAT ??0iterator@?$deque@PAUtagMAGICATKMSG@@V?$allocator@PAUtagMAGICATKMSG@@@std@@@std@@QAE@IPBV12@@Z
_TEXT	SEGMENT PARA USE32 PUBLIC 'CODE'
_TEXT	ENDS
;	COMDAT ??Dconst_iterator@?$deque@PAUtagMAGICATKMSG@@V?$allocator@PAUtagMAGICATKMSG@@@std@@@std@@QBEABQAUtagMAGICATKMSG@@XZ
_TEXT	SEGMENT PARA USE32 PUBLIC 'CODE'
_TEXT	ENDS
;	COMDAT ??8const_iterator@?$deque@PAUtagMAGICATKMSG@@V?$allocator@PAUtagMAGICATKMSG@@@std@@@std@@QBE_NABV012@@Z
_TEXT	SEGMENT PARA USE32 PUBLIC 'CODE'
_TEXT	ENDS
;	COMDAT ?erase@?$_Tree@V?$_Tmap_traits@KU_Friend@@U?$less@K@std@@V?$allocator@U?$pair@$$CBKU_Friend@@@std@@@3@$0A@@std@@@std@@QAE?AViterator@12@V312@0@Z
_TEXT	SEGMENT PARA USE32 PUBLIC 'CODE'
_TEXT	ENDS
;	COMDAT ?equal_range@?$_Tree@V?$_Tmap_traits@KU_Friend@@U?$less@K@std@@V?$allocator@U?$pair@$$CBKU_Friend@@@std@@@3@$0A@@std@@@std@@QAE?AU?$pair@Viterator@?$_Tree@V?$_Tmap_traits@KU_Friend@@U?$less@K@std@@V?$allocator@U?$pair@$$CBKU_Friend@@@std@@@3@$0A@@std@@@std@@V123@@2@ABK@Z
_TEXT	SEGMENT PARA USE32 PUBLIC 'CODE'
_TEXT	ENDS
;	COMDAT ?begin@?$vector@PAU__JOINPLAYER@CGuildCombat@@V?$allocator@PAU__JOINPLAYER@CGuildCombat@@@std@@@std@@QAE?AViterator@12@XZ
_TEXT	SEGMENT PARA USE32 PUBLIC 'CODE'
_TEXT	ENDS
;	COMDAT ?_Tidy@?$vector@PAU__JOINPLAYER@CGuildCombat@@V?$allocator@PAU__JOINPLAYER@CGuildCombat@@@std@@@std@@IAEXXZ
_TEXT	SEGMENT PARA USE32 PUBLIC 'CODE'
_TEXT	ENDS
;	COMDAT ?_Nextnode@?$list@PAU__JOINPLAYER@CGuildCombat@@V?$allocator@PAU__JOINPLAYER@CGuildCombat@@@std@@@std@@KAAAPAU_Node@?$_List_nod@PAU__JOINPLAYER@CGuildCombat@@V?$allocator@PAU__JOINPLAYER@CGuildCombat@@@std@@@2@PAU342@@Z
_TEXT	SEGMENT PARA USE32 PUBLIC 'CODE'
_TEXT	ENDS
;	COMDAT ?_Prevnode@?$list@PAU__JOINPLAYER@CGuildCombat@@V?$allocator@PAU__JOINPLAYER@CGuildCombat@@@std@@@std@@KAAAPAU_Node@?$_List_nod@PAU__JOINPLAYER@CGuildCombat@@V?$allocator@PAU__JOINPLAYER@CGuildCombat@@@std@@@2@PAU342@@Z
_TEXT	SEGMENT PARA USE32 PUBLIC 'CODE'
_TEXT	ENDS
;	COMDAT ?deallocate@?$allocator@U_Node@?$_List_nod@PAU__JOINPLAYER@CGuildCombat@@V?$allocator@PAU__JOINPLAYER@CGuildCombat@@@std@@@std@@@std@@QAEXPAU_Node@?$_List_nod@PAU__JOINPLAYER@CGuildCombat@@V?$allocator@PAU__JOINPLAYER@CGuildCombat@@@std@@@2@I@Z
_TEXT	SEGMENT PARA USE32 PUBLIC 'CODE'
_TEXT	ENDS
;	COMDAT ?destroy@?$allocator@U_Node@?$_List_nod@PAU__JOINPLAYER@CGuildCombat@@V?$allocator@PAU__JOINPLAYER@CGuildCombat@@@std@@@std@@@std@@QAEXPAU_Node@?$_List_nod@PAU__JOINPLAYER@CGuildCombat@@V?$allocator@PAU__JOINPLAYER@CGuildCombat@@@std@@@2@@Z
_TEXT	SEGMENT PARA USE32 PUBLIC 'CODE'
_TEXT	ENDS
;	COMDAT ?_Buy@?$vector@U__SECRETROOM_MONSTER@@V?$allocator@U__SECRETROOM_MONSTER@@@std@@@std@@IAE_NI@Z
_TEXT	SEGMENT PARA USE32 PUBLIC 'CODE'
_TEXT	ENDS
;	COMDAT ?_Tidy@?$vector@U__SECRETROOM_MONSTER@@V?$allocator@U__SECRETROOM_MONSTER@@@std@@@std@@IAEXXZ
_TEXT	SEGMENT PARA USE32 PUBLIC 'CODE'
_TEXT	ENDS
;	COMDAT ??0?$_Vector_val@U__SECRETROOM_MONSTER@@V?$allocator@U__SECRETROOM_MONSTER@@@std@@@std@@IAE@V?$allocator@U__SECRETROOM_MONSTER@@@1@@Z
_TEXT	SEGMENT PARA USE32 PUBLIC 'CODE'
_TEXT	ENDS
;	COMDAT ??0?$allocator@U__SECRETROOM_MONSTER@@@std@@QAE@XZ
_TEXT	SEGMENT PARA USE32 PUBLIC 'CODE'
_TEXT	ENDS
;	COMDAT ?capacity@?$vector@V?$basic_string@DU?$char_traits@D@std@@V?$allocator@D@2@@std@@V?$allocator@V?$basic_string@DU?$char_traits@D@std@@V?$allocator@D@2@@std@@@2@@std@@QBEIXZ
_TEXT	SEGMENT PARA USE32 PUBLIC 'CODE'
_TEXT	ENDS
;	COMDAT ?begin@?$vector@V?$basic_string@DU?$char_traits@D@std@@V?$allocator@D@2@@std@@V?$allocator@V?$basic_string@DU?$char_traits@D@std@@V?$allocator@D@2@@std@@@2@@std@@QAE?AViterator@12@XZ
_TEXT	SEGMENT PARA USE32 PUBLIC 'CODE'
_TEXT	ENDS
;	COMDAT ?end@?$vector@V?$basic_string@DU?$char_traits@D@std@@V?$allocator@D@2@@std@@V?$allocator@V?$basic_string@DU?$char_traits@D@std@@V?$allocator@D@2@@std@@@2@@std@@QAE?AViterator@12@XZ
_TEXT	SEGMENT PARA USE32 PUBLIC 'CODE'
_TEXT	ENDS
;	COMDAT ?insert@?$vector@V?$basic_string@DU?$char_traits@D@std@@V?$allocator@D@2@@std@@V?$allocator@V?$basic_string@DU?$char_traits@D@std@@V?$allocator@D@2@@std@@@2@@std@@QAE?AViterator@12@V312@ABV?$basic_string@DU?$char_traits@D@std@@V?$allocator@D@2@@2@@Z
_TEXT	SEGMENT PARA USE32 PUBLIC 'CODE'
_TEXT	ENDS
;	COMDAT ?_Buy@?$vector@V?$basic_string@DU?$char_traits@D@std@@V?$allocator@D@2@@std@@V?$allocator@V?$basic_string@DU?$char_traits@D@std@@V?$allocator@D@2@@std@@@2@@std@@IAE_NI@Z
_TEXT	SEGMENT PARA USE32 PUBLIC 'CODE'
_TEXT	ENDS
;	COMDAT ?_Tidy@?$vector@V?$basic_string@DU?$char_traits@D@std@@V?$allocator@D@2@@std@@V?$allocator@V?$basic_string@DU?$char_traits@D@std@@V?$allocator@D@2@@std@@@2@@std@@IAEXXZ
_TEXT	SEGMENT PARA USE32 PUBLIC 'CODE'
_TEXT	ENDS
;	COMDAT ?_Ufill@?$vector@V?$basic_string@DU?$char_traits@D@std@@V?$allocator@D@2@@std@@V?$allocator@V?$basic_string@DU?$char_traits@D@std@@V?$allocator@D@2@@std@@@2@@std@@IAEPAV?$basic_string@DU?$char_traits@D@std@@V?$allocator@D@2@@2@PAV32@IABV32@@Z
_TEXT	SEGMENT PARA USE32 PUBLIC 'CODE'
_TEXT	ENDS
;	COMDAT ??0?$_Vector_val@V?$basic_string@DU?$char_traits@D@std@@V?$allocator@D@2@@std@@V?$allocator@V?$basic_string@DU?$char_traits@D@std@@V?$allocator@D@2@@std@@@2@@std@@IAE@V?$allocator@V?$basic_string@DU?$char_traits@D@std@@V?$allocator@D@2@@std@@@1@@Z
_TEXT	SEGMENT PARA USE32 PUBLIC 'CODE'
_TEXT	ENDS
;	COMDAT ?capacity@?$vector@UMINIGMAME_PRIZE_LIST@CRainbowRaceMng@@V?$allocator@UMINIGMAME_PRIZE_LIST@CRainbowRaceMng@@@std@@@std@@QBEIXZ
_TEXT	SEGMENT PARA USE32 PUBLIC 'CODE'
_TEXT	ENDS
;	COMDAT ?end@?$vector@UMINIGMAME_PRIZE_LIST@CRainbowRaceMng@@V?$allocator@UMINIGMAME_PRIZE_LIST@CRainbowRaceMng@@@std@@@std@@QAE?AViterator@12@XZ
_TEXT	SEGMENT PARA USE32 PUBLIC 'CODE'
_TEXT	ENDS
;	COMDAT ?size@?$vector@UMINIGMAME_PRIZE_LIST@CRainbowRaceMng@@V?$allocator@UMINIGMAME_PRIZE_LIST@CRainbowRaceMng@@@std@@@std@@QBEIXZ
_TEXT	SEGMENT PARA USE32 PUBLIC 'CODE'
_TEXT	ENDS
;	COMDAT ?insert@?$vector@UMINIGMAME_PRIZE_LIST@CRainbowRaceMng@@V?$allocator@UMINIGMAME_PRIZE_LIST@CRainbowRaceMng@@@std@@@std@@QAE?AViterator@12@V312@ABUMINIGMAME_PRIZE_LIST@CRainbowRaceMng@@@Z
_TEXT	SEGMENT PARA USE32 PUBLIC 'CODE'
_TEXT	ENDS
;	COMDAT ?_Ufill@?$vector@UMINIGMAME_PRIZE_LIST@CRainbowRaceMng@@V?$allocator@UMINIGMAME_PRIZE_LIST@CRainbowRaceMng@@@std@@@std@@IAEPAUMINIGMAME_PRIZE_LIST@CRainbowRaceMng@@PAU34@IABU34@@Z
_TEXT	SEGMENT PARA USE32 PUBLIC 'CODE'
_TEXT	ENDS
;	COMDAT ?begin@?$vector@PAVCMiniGameBase@@V?$allocator@PAVCMiniGameBase@@@std@@@std@@QAE?AViterator@12@XZ
_TEXT	SEGMENT PARA USE32 PUBLIC 'CODE'
_TEXT	ENDS
;	COMDAT ?begin@?$vector@UGuildHouse_Furniture_Info@CGuildHouseBase@@V?$allocator@UGuildHouse_Furniture_Info@CGuildHouseBase@@@std@@@std@@QAE?AViterator@12@XZ
_TEXT	SEGMENT PARA USE32 PUBLIC 'CODE'
_TEXT	ENDS
;	COMDAT ?_Isnil@?$_Tree@V?$_Tmap_traits@KPAVCGuildHouseBase@@U?$less@K@std@@V?$allocator@U?$pair@$$CBKPAVCGuildHouseBase@@@std@@@3@$0A@@std@@@std@@KAAADPAU_Node@?$_Tree_nod@V?$_Tmap_traits@KPAVCGuildHouseBase@@U?$less@K@std@@V?$allocator@U?$pair@$$CBKPAVCGuildHouseBase@@@std@@@3@$0A@@std@@@2@@Z
_TEXT	SEGMENT PARA USE32 PUBLIC 'CODE'
_TEXT	ENDS
;	COMDAT ?_Key@?$_Tree@V?$_Tmap_traits@KPAVCGuildHouseBase@@U?$less@K@std@@V?$allocator@U?$pair@$$CBKPAVCGuildHouseBase@@@std@@@3@$0A@@std@@@std@@KAABKPAU_Node@?$_Tree_nod@V?$_Tmap_traits@KPAVCGuildHouseBase@@U?$less@K@std@@V?$allocator@U?$pair@$$CBKPAVCGuildHouseBase@@@std@@@3@$0A@@std@@@2@@Z
_TEXT	SEGMENT PARA USE32 PUBLIC 'CODE'
_TEXT	ENDS
;	COMDAT ?_Left@?$_Tree@V?$_Tmap_traits@KPAVCGuildHouseBase@@U?$less@K@std@@V?$allocator@U?$pair@$$CBKPAVCGuildHouseBase@@@std@@@3@$0A@@std@@@std@@KAAAPAU_Node@?$_Tree_nod@V?$_Tmap_traits@KPAVCGuildHouseBase@@U?$less@K@std@@V?$allocator@U?$pair@$$CBKPAVCGuildHouseBase@@@std@@@3@$0A@@std@@@2@PAU342@@Z
_TEXT	SEGMENT PARA USE32 PUBLIC 'CODE'
_TEXT	ENDS
;	COMDAT ?_Right@?$_Tree@V?$_Tmap_traits@KPAVCGuildHouseBase@@U?$less@K@std@@V?$allocator@U?$pair@$$CBKPAVCGuildHouseBase@@@std@@@3@$0A@@std@@@std@@KAAAPAU_Node@?$_Tree_nod@V?$_Tmap_traits@KPAVCGuildHouseBase@@U?$less@K@std@@V?$allocator@U?$pair@$$CBKPAVCGuildHouseBase@@@std@@@3@$0A@@std@@@2@PAU342@@Z
_TEXT	SEGMENT PARA USE32 PUBLIC 'CODE'
_TEXT	ENDS
;	COMDAT ?begin@?$_Tree@V?$_Tmap_traits@KPAVCGuildHouseBase@@U?$less@K@std@@V?$allocator@U?$pair@$$CBKPAVCGuildHouseBase@@@std@@@3@$0A@@std@@@std@@QAE?AViterator@12@XZ
_TEXT	SEGMENT PARA USE32 PUBLIC 'CODE'
_TEXT	ENDS
;	COMDAT ?size@?$_Tree@V?$_Tmap_traits@KPAVCGuildHouseBase@@U?$less@K@std@@V?$allocator@U?$pair@$$CBKPAVCGuildHouseBase@@@std@@@3@$0A@@std@@@std@@QBEIXZ
_TEXT	SEGMENT PARA USE32 PUBLIC 'CODE'
_TEXT	ENDS
;	COMDAT ?_Insert@?$_Tree@V?$_Tmap_traits@KPAVCGuildHouseBase@@U?$less@K@std@@V?$allocator@U?$pair@$$CBKPAVCGuildHouseBase@@@std@@@3@$0A@@std@@@std@@IAE?AViterator@12@_NPAU_Node@?$_Tree_nod@V?$_Tmap_traits@KPAVCGuildHouseBase@@U?$less@K@std@@V?$allocator@U?$pair@$$CBKPAVCGuildHouseBase@@@std@@@3@$0A@@std@@@2@ABU?$pair@$$CBKPAVCGuildHouseBase@@@2@@Z
_TEXT	SEGMENT PARA USE32 PUBLIC 'CODE'
_TEXT	ENDS
;	COMDAT ?_Root@?$_Tree@V?$_Tmap_traits@KPAVCGuildHouseBase@@U?$less@K@std@@V?$allocator@U?$pair@$$CBKPAVCGuildHouseBase@@@std@@@3@$0A@@std@@@std@@IAEAAPAU_Node@?$_Tree_nod@V?$_Tmap_traits@KPAVCGuildHouseBase@@U?$less@K@std@@V?$allocator@U?$pair@$$CBKPAVCGuildHouseBase@@@std@@@3@$0A@@std@@@2@XZ
_TEXT	SEGMENT PARA USE32 PUBLIC 'CODE'
_TEXT	ENDS
;	COMDAT ?_Kfn@?$_Tmap_traits@KPAVCGuildHouseBase@@U?$less@K@std@@V?$allocator@U?$pair@$$CBKPAVCGuildHouseBase@@@std@@@3@$0A@@std@@SAABKABU?$pair@$$CBKPAVCGuildHouseBase@@@2@@Z
_TEXT	SEGMENT PARA USE32 PUBLIC 'CODE'
_TEXT	ENDS
;	COMDAT ??0?$pair@Viterator@?$_Tree@V?$_Tmap_traits@KPAVCGuildHouseBase@@U?$less@K@std@@V?$allocator@U?$pair@$$CBKPAVCGuildHouseBase@@@std@@@3@$0A@@std@@@std@@_N@std@@QAE@ABViterator@?$_Tree@V?$_Tmap_traits@KPAVCGuildHouseBase@@U?$less@K@std@@V?$allocator@U?$pair@$$CBKPAVCGuildHouseBase@@@std@@@3@$0A@@std@@@1@AB_N@Z
_TEXT	SEGMENT PARA USE32 PUBLIC 'CODE'
_TEXT	ENDS
;	COMDAT ??0iterator@?$_Tree@V?$_Tmap_traits@KPAVCGuildHouseBase@@U?$less@K@std@@V?$allocator@U?$pair@$$CBKPAVCGuildHouseBase@@@std@@@3@$0A@@std@@@std@@QAE@PAU_Node@?$_Tree_nod@V?$_Tmap_traits@KPAVCGuildHouseBase@@U?$less@K@std@@V?$allocator@U?$pair@$$CBKPAVCGuildHouseBase@@@std@@@3@$0A@@std@@@2@@Z
_TEXT	SEGMENT PARA USE32 PUBLIC 'CODE'
_TEXT	ENDS
;	COMDAT ??Fiterator@?$_Tree@V?$_Tmap_traits@KPAVCGuildHouseBase@@U?$less@K@std@@V?$allocator@U?$pair@$$CBKPAVCGuildHouseBase@@@std@@@3@$0A@@std@@@std@@QAEAAV012@XZ
_TEXT	SEGMENT PARA USE32 PUBLIC 'CODE'
_TEXT	ENDS
;	COMDAT ??8const_iterator@?$_Tree@V?$_Tmap_traits@KPAVCGuildHouseBase@@U?$less@K@std@@V?$allocator@U?$pair@$$CBKPAVCGuildHouseBase@@@std@@@3@$0A@@std@@@std@@QBE_NABV012@@Z
_TEXT	SEGMENT PARA USE32 PUBLIC 'CODE'
_TEXT	ENDS
;	COMDAT ?_Mynode@const_iterator@?$_Tree@V?$_Tmap_traits@KPAVCGuildHouseBase@@U?$less@K@std@@V?$allocator@U?$pair@$$CBKPAVCGuildHouseBase@@@std@@@3@$0A@@std@@@std@@QBEPAU_Node@?$_Tree_nod@V?$_Tmap_traits@KPAVCGuildHouseBase@@U?$less@K@std@@V?$allocator@U?$pair@$$CBKPAVCGuildHouseBase@@@std@@@3@$0A@@std@@@3@XZ
_TEXT	SEGMENT PARA USE32 PUBLIC 'CODE'
_TEXT	ENDS
;	COMDAT ?size@?$_Tree@V?$_Tmap_traits@KPAVCCampus@@U?$less@K@std@@V?$allocator@U?$pair@$$CBKPAVCCampus@@@std@@@3@$0A@@std@@@std@@QBEIXZ
_TEXT	SEGMENT PARA USE32 PUBLIC 'CODE'
_TEXT	ENDS
;	COMDAT ?erase@?$_Tree@V?$_Tmap_traits@KKU?$less@K@std@@V?$allocator@U?$pair@$$CBKK@std@@@2@$0A@@std@@@std@@QAE?AViterator@12@V312@0@Z
_TEXT	SEGMENT PARA USE32 PUBLIC 'CODE'
_TEXT	ENDS
;	COMDAT ?equal_range@?$_Tree@V?$_Tmap_traits@KKU?$less@K@std@@V?$allocator@U?$pair@$$CBKK@std@@@2@$0A@@std@@@std@@QAE?AU?$pair@Viterator@?$_Tree@V?$_Tmap_traits@KKU?$less@K@std@@V?$allocator@U?$pair@$$CBKK@std@@@2@$0A@@std@@@std@@V123@@2@ABK@Z
_TEXT	SEGMENT PARA USE32 PUBLIC 'CODE'
_TEXT	ENDS
;	COMDAT ??Diterator@?$vector@KV?$allocator@K@std@@@std@@QBEAAKXZ
_TEXT	SEGMENT PARA USE32 PUBLIC 'CODE'
_TEXT	ENDS
;	COMDAT ??Hiterator@?$vector@KV?$allocator@K@std@@@std@@QBE?AV012@H@Z
_TEXT	SEGMENT PARA USE32 PUBLIC 'CODE'
_TEXT	ENDS
;	COMDAT ??Diterator@?$vector@PAU__JOINPLAYER@CGuildCombat@@V?$allocator@PAU__JOINPLAYER@CGuildCombat@@@std@@@std@@QBEAAPAU__JOINPLAYER@CGuildCombat@@XZ
_TEXT	SEGMENT PARA USE32 PUBLIC 'CODE'
_TEXT	ENDS
;	COMDAT ??Hiterator@?$vector@PAU__JOINPLAYER@CGuildCombat@@V?$allocator@PAU__JOINPLAYER@CGuildCombat@@@std@@@std@@QBE?AV012@H@Z
_TEXT	SEGMENT PARA USE32 PUBLIC 'CODE'
_TEXT	ENDS
;	COMDAT ??Diterator@?$vector@V?$basic_string@DU?$char_traits@D@std@@V?$allocator@D@2@@std@@V?$allocator@V?$basic_string@DU?$char_traits@D@std@@V?$allocator@D@2@@std@@@2@@std@@QBEAAV?$basic_string@DU?$char_traits@D@std@@V?$allocator@D@2@@2@XZ
_TEXT	SEGMENT PARA USE32 PUBLIC 'CODE'
_TEXT	ENDS
;	COMDAT ??Hiterator@?$vector@V?$basic_string@DU?$char_traits@D@std@@V?$allocator@D@2@@std@@V?$allocator@V?$basic_string@DU?$char_traits@D@std@@V?$allocator@D@2@@std@@@2@@std@@QBE?AV012@H@Z
_TEXT	SEGMENT PARA USE32 PUBLIC 'CODE'
_TEXT	ENDS
;	COMDAT ??Diterator@?$vector@PAVCMiniGameBase@@V?$allocator@PAVCMiniGameBase@@@std@@@std@@QBEAAPAVCMiniGameBase@@XZ
_TEXT	SEGMENT PARA USE32 PUBLIC 'CODE'
_TEXT	ENDS
;	COMDAT ??Hiterator@?$vector@PAVCMiniGameBase@@V?$allocator@PAVCMiniGameBase@@@std@@@std@@QBE?AV012@H@Z
_TEXT	SEGMENT PARA USE32 PUBLIC 'CODE'
_TEXT	ENDS
;	COMDAT ??Diterator@?$vector@UGuildHouse_Furniture_Info@CGuildHouseBase@@V?$allocator@UGuildHouse_Furniture_Info@CGuildHouseBase@@@std@@@std@@QBEAAUGuildHouse_Furniture_Info@CGuildHouseBase@@XZ
_TEXT	SEGMENT PARA USE32 PUBLIC 'CODE'
_TEXT	ENDS
;	COMDAT ??Hiterator@?$vector@UGuildHouse_Furniture_Info@CGuildHouseBase@@V?$allocator@UGuildHouse_Furniture_Info@CGuildHouseBase@@@std@@@std@@QBE?AV012@H@Z
_TEXT	SEGMENT PARA USE32 PUBLIC 'CODE'
_TEXT	ENDS
;	COMDAT ?StringCompare@?$ChTraitsCRT@D@ATL@@SAHPBD0@Z
_TEXT	SEGMENT PARA USE32 PUBLIC 'CODE'
_TEXT	ENDS
;	COMDAT ??0?$allocator@V?$basic_string@DU?$char_traits@D@std@@V?$allocator@D@2@@std@@@std@@QAE@ABV01@@Z
_TEXT	SEGMENT PARA USE32 PUBLIC 'CODE'
_TEXT	ENDS
;	COMDAT ?deallocate@?$allocator@V?$basic_string@DU?$char_traits@D@std@@V?$allocator@D@2@@std@@@std@@QAEXPAV?$basic_string@DU?$char_traits@D@std@@V?$allocator@D@2@@2@I@Z
_TEXT	SEGMENT PARA USE32 PUBLIC 'CODE'
_TEXT	ENDS
;	COMDAT ?allocate@?$allocator@V?$basic_string@DU?$char_traits@D@std@@V?$allocator@D@2@@std@@@std@@QAEPAV?$basic_string@DU?$char_traits@D@std@@V?$allocator@D@2@@2@I@Z
_TEXT	SEGMENT PARA USE32 PUBLIC 'CODE'
_TEXT	ENDS
;	COMDAT ?size@?$_Tree@V?$_Tmap_traits@KPAVCCtrl@@U?$less@K@std@@V?$allocator@U?$pair@$$CBKPAVCCtrl@@@std@@@3@$0A@@std@@@std@@QBEIXZ
_TEXT	SEGMENT PARA USE32 PUBLIC 'CODE'
_TEXT	ENDS
;	COMDAT ??0iterator@?$_Tree@V?$_Tmap_traits@KPAVCCtrl@@U?$less@K@std@@V?$allocator@U?$pair@$$CBKPAVCCtrl@@@std@@@3@$0A@@std@@@std@@QAE@XZ
_TEXT	SEGMENT PARA USE32 PUBLIC 'CODE'
_TEXT	ENDS
;	COMDAT ?pop_back@?$deque@PAUtagACTMSG@@V?$allocator@PAUtagACTMSG@@@std@@@std@@QAEXXZ
_TEXT	SEGMENT PARA USE32 PUBLIC 'CODE'
_TEXT	ENDS
;	COMDAT ??0?$_Deque_map@PAUtagACTMSG@@V?$allocator@PAUtagACTMSG@@@std@@@std@@IAE@V?$allocator@PAUtagACTMSG@@@1@@Z
_TEXT	SEGMENT PARA USE32 PUBLIC 'CODE'
_TEXT	ENDS
;	COMDAT ??0?$allocator@PAUtagACTMSG@@@std@@QAE@ABV01@@Z
_TEXT	SEGMENT PARA USE32 PUBLIC 'CODE'
_TEXT	ENDS
;	COMDAT ?deallocate@?$allocator@PAUtagACTMSG@@@std@@QAEXPAPAUtagACTMSG@@I@Z
_TEXT	SEGMENT PARA USE32 PUBLIC 'CODE'
_TEXT	ENDS
;	COMDAT ?deallocate@?$allocator@PAPAUtagACTMSG@@@std@@QAEXPAPAPAUtagACTMSG@@I@Z
_TEXT	SEGMENT PARA USE32 PUBLIC 'CODE'
_TEXT	ENDS
;	COMDAT ?destroy@?$allocator@PAPAUtagACTMSG@@@std@@QAEXPAPAPAUtagACTMSG@@@Z
_TEXT	SEGMENT PARA USE32 PUBLIC 'CODE'
_TEXT	ENDS
;	COMDAT ?pop_back@?$deque@PAUtagMAGICATKMSG@@V?$allocator@PAUtagMAGICATKMSG@@@std@@@std@@QAEXXZ
_TEXT	SEGMENT PARA USE32 PUBLIC 'CODE'
_TEXT	ENDS
;	COMDAT ??0?$_Deque_map@PAUtagMAGICATKMSG@@V?$allocator@PAUtagMAGICATKMSG@@@std@@@std@@IAE@V?$allocator@PAUtagMAGICATKMSG@@@1@@Z
_TEXT	SEGMENT PARA USE32 PUBLIC 'CODE'
_TEXT	ENDS
;	COMDAT ??0?$allocator@PAUtagMAGICATKMSG@@@std@@QAE@ABV01@@Z
_TEXT	SEGMENT PARA USE32 PUBLIC 'CODE'
_TEXT	ENDS
;	COMDAT ?deallocate@?$allocator@PAUtagMAGICATKMSG@@@std@@QAEXPAPAUtagMAGICATKMSG@@I@Z
_TEXT	SEGMENT PARA USE32 PUBLIC 'CODE'
_TEXT	ENDS
;	COMDAT ?deallocate@?$allocator@PAPAUtagMAGICATKMSG@@@std@@QAEXPAPAPAUtagMAGICATKMSG@@I@Z
_TEXT	SEGMENT PARA USE32 PUBLIC 'CODE'
_TEXT	ENDS
;	COMDAT ?destroy@?$allocator@PAPAUtagMAGICATKMSG@@@std@@QAEXPAPAPAUtagMAGICATKMSG@@@Z
_TEXT	SEGMENT PARA USE32 PUBLIC 'CODE'
_TEXT	ENDS
;	COMDAT ?begin@?$vector@PAVCObj@@V?$allocator@PAVCObj@@@std@@@std@@QAE?AViterator@12@XZ
_TEXT	SEGMENT PARA USE32 PUBLIC 'CODE'
_TEXT	ENDS
;	COMDAT ?_Insert_n@?$vector@PAVCObj@@V?$allocator@PAVCObj@@@std@@@std@@IAEXViterator@12@IABQAVCObj@@@Z
_TEXT	SEGMENT PARA USE32 PUBLIC 'CODE'
_TEXT	ENDS
;	COMDAT ??0const_iterator@?$deque@PAUtagACTMSG@@V?$allocator@PAUtagACTMSG@@@std@@@std@@QAE@IPBV12@@Z
_TEXT	SEGMENT PARA USE32 PUBLIC 'CODE'
_TEXT	ENDS
;	COMDAT ??0const_iterator@?$deque@PAUtagMAGICATKMSG@@V?$allocator@PAUtagMAGICATKMSG@@@std@@@std@@QAE@IPBV12@@Z
_TEXT	SEGMENT PARA USE32 PUBLIC 'CODE'
_TEXT	ENDS
;	COMDAT ?begin@?$_Tree@V?$_Tmap_traits@KU_Friend@@U?$less@K@std@@V?$allocator@U?$pair@$$CBKU_Friend@@@std@@@3@$0A@@std@@@std@@QAE?AViterator@12@XZ
_TEXT	SEGMENT PARA USE32 PUBLIC 'CODE'
_TEXT	ENDS
;	COMDAT ?end@?$_Tree@V?$_Tmap_traits@KU_Friend@@U?$less@K@std@@V?$allocator@U?$pair@$$CBKU_Friend@@@std@@@3@$0A@@std@@@std@@QAE?AViterator@12@XZ
_TEXT	SEGMENT PARA USE32 PUBLIC 'CODE'
_TEXT	ENDS
;	COMDAT ?erase@?$_Tree@V?$_Tmap_traits@KU_Friend@@U?$less@K@std@@V?$allocator@U?$pair@$$CBKU_Friend@@@std@@@3@$0A@@std@@@std@@QAE?AViterator@12@V312@@Z
_TEXT	SEGMENT PARA USE32 PUBLIC 'CODE'
_TEXT	ENDS
;	COMDAT ?clear@?$_Tree@V?$_Tmap_traits@KU_Friend@@U?$less@K@std@@V?$allocator@U?$pair@$$CBKU_Friend@@@std@@@3@$0A@@std@@@std@@QAEXXZ
_TEXT	SEGMENT PARA USE32 PUBLIC 'CODE'
_TEXT	ENDS
;	COMDAT ?lower_bound@?$_Tree@V?$_Tmap_traits@KU_Friend@@U?$less@K@std@@V?$allocator@U?$pair@$$CBKU_Friend@@@std@@@3@$0A@@std@@@std@@QAE?AViterator@12@ABK@Z
_TEXT	SEGMENT PARA USE32 PUBLIC 'CODE'
_TEXT	ENDS
;	COMDAT ?upper_bound@?$_Tree@V?$_Tmap_traits@KU_Friend@@U?$less@K@std@@V?$allocator@U?$pair@$$CBKU_Friend@@@std@@@3@$0A@@std@@@std@@QAE?AViterator@12@ABK@Z
_TEXT	SEGMENT PARA USE32 PUBLIC 'CODE'
_TEXT	ENDS
;	COMDAT ??Eiterator@?$_Tree@V?$_Tmap_traits@KU_Friend@@U?$less@K@std@@V?$allocator@U?$pair@$$CBKU_Friend@@@std@@@3@$0A@@std@@@std@@QAE?AV012@H@Z
_TEXT	SEGMENT PARA USE32 PUBLIC 'CODE'
_TEXT	ENDS
;	COMDAT ??8const_iterator@?$_Tree@V?$_Tmap_traits@KU_Friend@@U?$less@K@std@@V?$allocator@U?$pair@$$CBKU_Friend@@@std@@@3@$0A@@std@@@std@@QBE_NABV012@@Z
_TEXT	SEGMENT PARA USE32 PUBLIC 'CODE'
_TEXT	ENDS
;	COMDAT ??9const_iterator@?$_Tree@V?$_Tmap_traits@KU_Friend@@U?$less@K@std@@V?$allocator@U?$pair@$$CBKU_Friend@@@std@@@3@$0A@@std@@@std@@QBE_NABV012@@Z
_TEXT	SEGMENT PARA USE32 PUBLIC 'CODE'
_TEXT	ENDS
;	COMDAT ?_Destroy@?$vector@PAU__JOINPLAYER@CGuildCombat@@V?$allocator@PAU__JOINPLAYER@CGuildCombat@@@std@@@std@@IAEXPAPAU__JOINPLAYER@CGuildCombat@@0@Z
_TEXT	SEGMENT PARA USE32 PUBLIC 'CODE'
_TEXT	ENDS
;	COMDAT ?deallocate@?$allocator@PAU__JOINPLAYER@CGuildCombat@@@std@@QAEXPAPAU__JOINPLAYER@CGuildCombat@@I@Z
_TEXT	SEGMENT PARA USE32 PUBLIC 'CODE'
_TEXT	ENDS
;	COMDAT ?max_size@?$vector@U__SECRETROOM_MONSTER@@V?$allocator@U__SECRETROOM_MONSTER@@@std@@@std@@QBEIXZ
_TEXT	SEGMENT PARA USE32 PUBLIC 'CODE'
_TEXT	ENDS
;	COMDAT ?_Destroy@?$vector@U__SECRETROOM_MONSTER@@V?$allocator@U__SECRETROOM_MONSTER@@@std@@@std@@IAEXPAU__SECRETROOM_MONSTER@@0@Z
_TEXT	SEGMENT PARA USE32 PUBLIC 'CODE'
_TEXT	ENDS
;	COMDAT ?_Xlen@?$vector@U__SECRETROOM_MONSTER@@V?$allocator@U__SECRETROOM_MONSTER@@@std@@@std@@IBEXXZ
_TEXT	SEGMENT PARA USE32 PUBLIC 'CODE'
_TEXT	ENDS
;	COMDAT ??0?$allocator@U__SECRETROOM_MONSTER@@@std@@QAE@ABV01@@Z
_TEXT	SEGMENT PARA USE32 PUBLIC 'CODE'
_TEXT	ENDS
;	COMDAT ?deallocate@?$allocator@U__SECRETROOM_MONSTER@@@std@@QAEXPAU__SECRETROOM_MONSTER@@I@Z
_TEXT	SEGMENT PARA USE32 PUBLIC 'CODE'
_TEXT	ENDS
;	COMDAT ?allocate@?$allocator@U__SECRETROOM_MONSTER@@@std@@QAEPAU__SECRETROOM_MONSTER@@I@Z
_TEXT	SEGMENT PARA USE32 PUBLIC 'CODE'
_TEXT	ENDS
;	COMDAT ?max_size@?$vector@V?$basic_string@DU?$char_traits@D@std@@V?$allocator@D@2@@std@@V?$allocator@V?$basic_string@DU?$char_traits@D@std@@V?$allocator@D@2@@std@@@2@@std@@QBEIXZ
_TEXT	SEGMENT PARA USE32 PUBLIC 'CODE'
_TEXT	ENDS
;	COMDAT ?_Destroy@?$vector@V?$basic_string@DU?$char_traits@D@std@@V?$allocator@D@2@@std@@V?$allocator@V?$basic_string@DU?$char_traits@D@std@@V?$allocator@D@2@@std@@@2@@std@@IAEXPAV?$basic_string@DU?$char_traits@D@std@@V?$allocator@D@2@@2@0@Z
_TEXT	SEGMENT PARA USE32 PUBLIC 'CODE'
_TEXT	ENDS
;	COMDAT ?_Insert_n@?$vector@V?$basic_string@DU?$char_traits@D@std@@V?$allocator@D@2@@std@@V?$allocator@V?$basic_string@DU?$char_traits@D@std@@V?$allocator@D@2@@std@@@2@@std@@IAEXViterator@12@IABV?$basic_string@DU?$char_traits@D@std@@V?$allocator@D@2@@2@@Z
_TEXT	SEGMENT PARA USE32 PUBLIC 'CODE'
_TEXT	ENDS
;	COMDAT ?_Xlen@?$vector@V?$basic_string@DU?$char_traits@D@std@@V?$allocator@D@2@@std@@V?$allocator@V?$basic_string@DU?$char_traits@D@std@@V?$allocator@D@2@@std@@@2@@std@@IBEXXZ
_TEXT	SEGMENT PARA USE32 PUBLIC 'CODE'
_TEXT	ENDS
;	COMDAT ?begin@?$vector@UMINIGMAME_PRIZE_LIST@CRainbowRaceMng@@V?$allocator@UMINIGMAME_PRIZE_LIST@CRainbowRaceMng@@@std@@@std@@QAE?AViterator@12@XZ
_TEXT	SEGMENT PARA USE32 PUBLIC 'CODE'
_TEXT	ENDS
;	COMDAT ?_Insert_n@?$vector@UMINIGMAME_PRIZE_LIST@CRainbowRaceMng@@V?$allocator@UMINIGMAME_PRIZE_LIST@CRainbowRaceMng@@@std@@@std@@IAEXViterator@12@IABUMINIGMAME_PRIZE_LIST@CRainbowRaceMng@@@Z
_TEXT	SEGMENT PARA USE32 PUBLIC 'CODE'
_TEXT	ENDS
;	COMDAT ?_Color@?$_Tree@V?$_Tmap_traits@KPAVCGuildHouseBase@@U?$less@K@std@@V?$allocator@U?$pair@$$CBKPAVCGuildHouseBase@@@std@@@3@$0A@@std@@@std@@KAAADPAU_Node@?$_Tree_nod@V?$_Tmap_traits@KPAVCGuildHouseBase@@U?$less@K@std@@V?$allocator@U?$pair@$$CBKPAVCGuildHouseBase@@@std@@@3@$0A@@std@@@2@@Z
_TEXT	SEGMENT PARA USE32 PUBLIC 'CODE'
_TEXT	ENDS
;	COMDAT ?_Parent@?$_Tree@V?$_Tmap_traits@KPAVCGuildHouseBase@@U?$less@K@std@@V?$allocator@U?$pair@$$CBKPAVCGuildHouseBase@@@std@@@3@$0A@@std@@@std@@KAAAPAU_Node@?$_Tree_nod@V?$_Tmap_traits@KPAVCGuildHouseBase@@U?$less@K@std@@V?$allocator@U?$pair@$$CBKPAVCGuildHouseBase@@@std@@@3@$0A@@std@@@2@PAU342@@Z
_TEXT	SEGMENT PARA USE32 PUBLIC 'CODE'
_TEXT	ENDS
;	COMDAT ?_Myval@?$_Tree@V?$_Tmap_traits@KPAVCGuildHouseBase@@U?$less@K@std@@V?$allocator@U?$pair@$$CBKPAVCGuildHouseBase@@@std@@@3@$0A@@std@@@std@@KAAAU?$pair@$$CBKPAVCGuildHouseBase@@@2@PAU_Node@?$_Tree_nod@V?$_Tmap_traits@KPAVCGuildHouseBase@@U?$less@K@std@@V?$allocator@U?$pair@$$CBKPAVCGuildHouseBase@@@std@@@3@$0A@@std@@@2@@Z
_TEXT	SEGMENT PARA USE32 PUBLIC 'CODE'
_TEXT	ENDS
;	COMDAT ?max_size@?$_Tree@V?$_Tmap_traits@KPAVCGuildHouseBase@@U?$less@K@std@@V?$allocator@U?$pair@$$CBKPAVCGuildHouseBase@@@std@@@3@$0A@@std@@@std@@QBEIXZ
_TEXT	SEGMENT PARA USE32 PUBLIC 'CODE'
_TEXT	ENDS
;	COMDAT ?_Lmost@?$_Tree@V?$_Tmap_traits@KPAVCGuildHouseBase@@U?$less@K@std@@V?$allocator@U?$pair@$$CBKPAVCGuildHouseBase@@@std@@@3@$0A@@std@@@std@@IAEAAPAU_Node@?$_Tree_nod@V?$_Tmap_traits@KPAVCGuildHouseBase@@U?$less@K@std@@V?$allocator@U?$pair@$$CBKPAVCGuildHouseBase@@@std@@@3@$0A@@std@@@2@XZ
_TEXT	SEGMENT PARA USE32 PUBLIC 'CODE'
_TEXT	ENDS
;	COMDAT ?_Lrotate@?$_Tree@V?$_Tmap_traits@KPAVCGuildHouseBase@@U?$less@K@std@@V?$allocator@U?$pair@$$CBKPAVCGuildHouseBase@@@std@@@3@$0A@@std@@@std@@IAEXPAU_Node@?$_Tree_nod@V?$_Tmap_traits@KPAVCGuildHouseBase@@U?$less@K@std@@V?$allocator@U?$pair@$$CBKPAVCGuildHouseBase@@@std@@@3@$0A@@std@@@2@@Z
_TEXT	SEGMENT PARA USE32 PUBLIC 'CODE'
_TEXT	ENDS
;	COMDAT ?_Rmost@?$_Tree@V?$_Tmap_traits@KPAVCGuildHouseBase@@U?$less@K@std@@V?$allocator@U?$pair@$$CBKPAVCGuildHouseBase@@@std@@@3@$0A@@std@@@std@@IAEAAPAU_Node@?$_Tree_nod@V?$_Tmap_traits@KPAVCGuildHouseBase@@U?$less@K@std@@V?$allocator@U?$pair@$$CBKPAVCGuildHouseBase@@@std@@@3@$0A@@std@@@2@XZ
_TEXT	SEGMENT PARA USE32 PUBLIC 'CODE'
_TEXT	ENDS
;	COMDAT ?_Rrotate@?$_Tree@V?$_Tmap_traits@KPAVCGuildHouseBase@@U?$less@K@std@@V?$allocator@U?$pair@$$CBKPAVCGuildHouseBase@@@std@@@3@$0A@@std@@@std@@IAEXPAU_Node@?$_Tree_nod@V?$_Tmap_traits@KPAVCGuildHouseBase@@U?$less@K@std@@V?$allocator@U?$pair@$$CBKPAVCGuildHouseBase@@@std@@@3@$0A@@std@@@2@@Z
_TEXT	SEGMENT PARA USE32 PUBLIC 'CODE'
_TEXT	ENDS
;	COMDAT ?_Buynode@?$_Tree@V?$_Tmap_traits@KPAVCGuildHouseBase@@U?$less@K@std@@V?$allocator@U?$pair@$$CBKPAVCGuildHouseBase@@@std@@@3@$0A@@std@@@std@@IAEPAU_Node@?$_Tree_nod@V?$_Tmap_traits@KPAVCGuildHouseBase@@U?$less@K@std@@V?$allocator@U?$pair@$$CBKPAVCGuildHouseBase@@@std@@@3@$0A@@std@@@2@PAU342@00ABU?$pair@$$CBKPAVCGuildHouseBase@@@2@D@Z
_TEXT	SEGMENT PARA USE32 PUBLIC 'CODE'
_TEXT	ENDS
;	COMDAT ??0const_iterator@?$_Tree@V?$_Tmap_traits@KPAVCGuildHouseBase@@U?$less@K@std@@V?$allocator@U?$pair@$$CBKPAVCGuildHouseBase@@@std@@@3@$0A@@std@@@std@@QAE@PAU_Node@?$_Tree_nod@V?$_Tmap_traits@KPAVCGuildHouseBase@@U?$less@K@std@@V?$allocator@U?$pair@$$CBKPAVCGuildHouseBase@@@std@@@3@$0A@@std@@@2@@Z
_TEXT	SEGMENT PARA USE32 PUBLIC 'CODE'
_TEXT	ENDS
;	COMDAT ??Fconst_iterator@?$_Tree@V?$_Tmap_traits@KPAVCGuildHouseBase@@U?$less@K@std@@V?$allocator@U?$pair@$$CBKPAVCGuildHouseBase@@@std@@@3@$0A@@std@@@std@@QAEAAV012@XZ
_TEXT	SEGMENT PARA USE32 PUBLIC 'CODE'
_TEXT	ENDS
;	COMDAT ?begin@?$_Tree@V?$_Tmap_traits@KKU?$less@K@std@@V?$allocator@U?$pair@$$CBKK@std@@@2@$0A@@std@@@std@@QAE?AViterator@12@XZ
_TEXT	SEGMENT PARA USE32 PUBLIC 'CODE'
_TEXT	ENDS
;	COMDAT ?end@?$_Tree@V?$_Tmap_traits@KKU?$less@K@std@@V?$allocator@U?$pair@$$CBKK@std@@@2@$0A@@std@@@std@@QAE?AViterator@12@XZ
_TEXT	SEGMENT PARA USE32 PUBLIC 'CODE'
_TEXT	ENDS
;	COMDAT ?erase@?$_Tree@V?$_Tmap_traits@KKU?$less@K@std@@V?$allocator@U?$pair@$$CBKK@std@@@2@$0A@@std@@@std@@QAE?AViterator@12@V312@@Z
_TEXT	SEGMENT PARA USE32 PUBLIC 'CODE'
_TEXT	ENDS
;	COMDAT ?clear@?$_Tree@V?$_Tmap_traits@KKU?$less@K@std@@V?$allocator@U?$pair@$$CBKK@std@@@2@$0A@@std@@@std@@QAEXXZ
_TEXT	SEGMENT PARA USE32 PUBLIC 'CODE'
_TEXT	ENDS
;	COMDAT ?lower_bound@?$_Tree@V?$_Tmap_traits@KKU?$less@K@std@@V?$allocator@U?$pair@$$CBKK@std@@@2@$0A@@std@@@std@@QAE?AViterator@12@ABK@Z
_TEXT	SEGMENT PARA USE32 PUBLIC 'CODE'
_TEXT	ENDS
;	COMDAT ?upper_bound@?$_Tree@V?$_Tmap_traits@KKU?$less@K@std@@V?$allocator@U?$pair@$$CBKK@std@@@2@$0A@@std@@@std@@QAE?AViterator@12@ABK@Z
_TEXT	SEGMENT PARA USE32 PUBLIC 'CODE'
_TEXT	ENDS
;	COMDAT ??Eiterator@?$_Tree@V?$_Tmap_traits@KKU?$less@K@std@@V?$allocator@U?$pair@$$CBKK@std@@@2@$0A@@std@@@std@@QAE?AV012@H@Z
_TEXT	SEGMENT PARA USE32 PUBLIC 'CODE'
_TEXT	ENDS
;	COMDAT ??8const_iterator@?$_Tree@V?$_Tmap_traits@KKU?$less@K@std@@V?$allocator@U?$pair@$$CBKK@std@@@2@$0A@@std@@@std@@QBE_NABV012@@Z
_TEXT	SEGMENT PARA USE32 PUBLIC 'CODE'
_TEXT	ENDS
;	COMDAT ??9const_iterator@?$_Tree@V?$_Tmap_traits@KKU?$less@K@std@@V?$allocator@U?$pair@$$CBKK@std@@@2@$0A@@std@@@std@@QBE_NABV012@@Z
_TEXT	SEGMENT PARA USE32 PUBLIC 'CODE'
_TEXT	ENDS
;	COMDAT ??0iterator@?$vector@KV?$allocator@K@std@@@std@@QAE@PAK@Z
_TEXT	SEGMENT PARA USE32 PUBLIC 'CODE'
_TEXT	ENDS
;	COMDAT ??Yiterator@?$vector@KV?$allocator@K@std@@@std@@QAEAAV012@H@Z
_TEXT	SEGMENT PARA USE32 PUBLIC 'CODE'
_TEXT	ENDS
;	COMDAT ??Dconst_iterator@?$vector@KV?$allocator@K@std@@@std@@QBEABKXZ
_TEXT	SEGMENT PARA USE32 PUBLIC 'CODE'
_TEXT	ENDS
;	COMDAT ??0iterator@?$vector@PAVCObj@@V?$allocator@PAVCObj@@@std@@@std@@QAE@PAPAVCObj@@@Z
_TEXT	SEGMENT PARA USE32 PUBLIC 'CODE'
_TEXT	ENDS
;	COMDAT ??Hiterator@?$vector@PAVCObj@@V?$allocator@PAVCObj@@@std@@@std@@QBE?AV012@H@Z
_TEXT	SEGMENT PARA USE32 PUBLIC 'CODE'
_TEXT	ENDS
;	COMDAT ??Giterator@?$vector@PAVCObj@@V?$allocator@PAVCObj@@@std@@@std@@QBEHABVconst_iterator@12@@Z
_TEXT	SEGMENT PARA USE32 PUBLIC 'CODE'
_TEXT	ENDS
;	COMDAT ??0?$pair@Viterator@?$_Tree@V?$_Tmap_traits@KU_Friend@@U?$less@K@std@@V?$allocator@U?$pair@$$CBKU_Friend@@@std@@@3@$0A@@std@@@std@@V123@@std@@QAE@ABViterator@?$_Tree@V?$_Tmap_traits@KU_Friend@@U?$less@K@std@@V?$allocator@U?$pair@$$CBKU_Friend@@@std@@@3@$0A@@std@@@1@0@Z
_TEXT	SEGMENT PARA USE32 PUBLIC 'CODE'
_TEXT	ENDS
;	COMDAT ??0iterator@?$vector@PAU__JOINPLAYER@CGuildCombat@@V?$allocator@PAU__JOINPLAYER@CGuildCombat@@@std@@@std@@QAE@PAPAU__JOINPLAYER@CGuildCombat@@@Z
_TEXT	SEGMENT PARA USE32 PUBLIC 'CODE'
_TEXT	ENDS
;	COMDAT ??Yiterator@?$vector@PAU__JOINPLAYER@CGuildCombat@@V?$allocator@PAU__JOINPLAYER@CGuildCombat@@@std@@@std@@QAEAAV012@H@Z
_TEXT	SEGMENT PARA USE32 PUBLIC 'CODE'
_TEXT	ENDS
;	COMDAT ??Dconst_iterator@?$vector@PAU__JOINPLAYER@CGuildCombat@@V?$allocator@PAU__JOINPLAYER@CGuildCombat@@@std@@@std@@QBEABQAU__JOINPLAYER@CGuildCombat@@XZ
_TEXT	SEGMENT PARA USE32 PUBLIC 'CODE'
_TEXT	ENDS
;	COMDAT ??0iterator@?$vector@V?$basic_string@DU?$char_traits@D@std@@V?$allocator@D@2@@std@@V?$allocator@V?$basic_string@DU?$char_traits@D@std@@V?$allocator@D@2@@std@@@2@@std@@QAE@PAV?$basic_string@DU?$char_traits@D@std@@V?$allocator@D@2@@2@@Z
_TEXT	SEGMENT PARA USE32 PUBLIC 'CODE'
_TEXT	ENDS
;	COMDAT ??Yiterator@?$vector@V?$basic_string@DU?$char_traits@D@std@@V?$allocator@D@2@@std@@V?$allocator@V?$basic_string@DU?$char_traits@D@std@@V?$allocator@D@2@@std@@@2@@std@@QAEAAV012@H@Z
_TEXT	SEGMENT PARA USE32 PUBLIC 'CODE'
_TEXT	ENDS
;	COMDAT ??Giterator@?$vector@V?$basic_string@DU?$char_traits@D@std@@V?$allocator@D@2@@std@@V?$allocator@V?$basic_string@DU?$char_traits@D@std@@V?$allocator@D@2@@std@@@2@@std@@QBEHABVconst_iterator@12@@Z
_TEXT	SEGMENT PARA USE32 PUBLIC 'CODE'
_TEXT	ENDS
;	COMDAT ??Dconst_iterator@?$vector@V?$basic_string@DU?$char_traits@D@std@@V?$allocator@D@2@@std@@V?$allocator@V?$basic_string@DU?$char_traits@D@std@@V?$allocator@D@2@@std@@@2@@std@@QBEABV?$basic_string@DU?$char_traits@D@std@@V?$allocator@D@2@@2@XZ
_TEXT	SEGMENT PARA USE32 PUBLIC 'CODE'
_TEXT	ENDS
;	COMDAT ??0iterator@?$vector@UMINIGMAME_PRIZE_LIST@CRainbowRaceMng@@V?$allocator@UMINIGMAME_PRIZE_LIST@CRainbowRaceMng@@@std@@@std@@QAE@PAUMINIGMAME_PRIZE_LIST@CRainbowRaceMng@@@Z
_TEXT	SEGMENT PARA USE32 PUBLIC 'CODE'
_TEXT	ENDS
;	COMDAT ??Hiterator@?$vector@UMINIGMAME_PRIZE_LIST@CRainbowRaceMng@@V?$allocator@UMINIGMAME_PRIZE_LIST@CRainbowRaceMng@@@std@@@std@@QBE?AV012@H@Z
_TEXT	SEGMENT PARA USE32 PUBLIC 'CODE'
_TEXT	ENDS
;	COMDAT ??Giterator@?$vector@UMINIGMAME_PRIZE_LIST@CRainbowRaceMng@@V?$allocator@UMINIGMAME_PRIZE_LIST@CRainbowRaceMng@@@std@@@std@@QBEHABVconst_iterator@12@@Z
_TEXT	SEGMENT PARA USE32 PUBLIC 'CODE'
_TEXT	ENDS
;	COMDAT ??0iterator@?$vector@PAVCMiniGameBase@@V?$allocator@PAVCMiniGameBase@@@std@@@std@@QAE@PAPAVCMiniGameBase@@@Z
_TEXT	SEGMENT PARA USE32 PUBLIC 'CODE'
_TEXT	ENDS
;	COMDAT ??Yiterator@?$vector@PAVCMiniGameBase@@V?$allocator@PAVCMiniGameBase@@@std@@@std@@QAEAAV012@H@Z
_TEXT	SEGMENT PARA USE32 PUBLIC 'CODE'
_TEXT	ENDS
;	COMDAT ??Dconst_iterator@?$vector@PAVCMiniGameBase@@V?$allocator@PAVCMiniGameBase@@@std@@@std@@QBEABQAVCMiniGameBase@@XZ
_TEXT	SEGMENT PARA USE32 PUBLIC 'CODE'
_TEXT	ENDS
;	COMDAT ??0iterator@?$vector@UGuildHouse_Furniture_Info@CGuildHouseBase@@V?$allocator@UGuildHouse_Furniture_Info@CGuildHouseBase@@@std@@@std@@QAE@PAUGuildHouse_Furniture_Info@CGuildHouseBase@@@Z
_TEXT	SEGMENT PARA USE32 PUBLIC 'CODE'
_TEXT	ENDS
;	COMDAT ??Yiterator@?$vector@UGuildHouse_Furniture_Info@CGuildHouseBase@@V?$allocator@UGuildHouse_Furniture_Info@CGuildHouseBase@@@std@@@std@@QAEAAV012@H@Z
_TEXT	SEGMENT PARA USE32 PUBLIC 'CODE'
_TEXT	ENDS
;	COMDAT ??Dconst_iterator@?$vector@UGuildHouse_Furniture_Info@CGuildHouseBase@@V?$allocator@UGuildHouse_Furniture_Info@CGuildHouseBase@@@std@@@std@@QBEABUGuildHouse_Furniture_Info@CGuildHouseBase@@XZ
_TEXT	SEGMENT PARA USE32 PUBLIC 'CODE'
_TEXT	ENDS
;	COMDAT ??0?$pair@Viterator@?$_Tree@V?$_Tmap_traits@KKU?$less@K@std@@V?$allocator@U?$pair@$$CBKK@std@@@2@$0A@@std@@@std@@V123@@std@@QAE@ABViterator@?$_Tree@V?$_Tmap_traits@KKU?$less@K@std@@V?$allocator@U?$pair@$$CBKK@std@@@2@$0A@@std@@@1@0@Z
_TEXT	SEGMENT PARA USE32 PUBLIC 'CODE'
_TEXT	ENDS
;	COMDAT ?max_size@?$allocator@V?$basic_string@DU?$char_traits@D@std@@V?$allocator@D@2@@std@@@std@@QBEIXZ
_TEXT	SEGMENT PARA USE32 PUBLIC 'CODE'
_TEXT	ENDS
;	COMDAT ??0const_iterator@?$_Tree@V?$_Tmap_traits@KPAVCCtrl@@U?$less@K@std@@V?$allocator@U?$pair@$$CBKPAVCCtrl@@@std@@@3@$0A@@std@@@std@@QAE@XZ
_TEXT	SEGMENT PARA USE32 PUBLIC 'CODE'
_TEXT	ENDS
;	COMDAT ?destroy@?$allocator@PAUtagACTMSG@@@std@@QAEXPAPAUtagACTMSG@@@Z
_TEXT	SEGMENT PARA USE32 PUBLIC 'CODE'
_TEXT	ENDS
;	COMDAT ?destroy@?$allocator@PAUtagMAGICATKMSG@@@std@@QAEXPAPAUtagMAGICATKMSG@@@Z
_TEXT	SEGMENT PARA USE32 PUBLIC 'CODE'
_TEXT	ENDS
;	COMDAT ?max_size@?$vector@PAVCObj@@V?$allocator@PAVCObj@@@std@@@std@@QBEIXZ
_TEXT	SEGMENT PARA USE32 PUBLIC 'CODE'
_TEXT	ENDS
;	COMDAT ?_Destroy@?$vector@PAVCObj@@V?$allocator@PAVCObj@@@std@@@std@@IAEXPAPAVCObj@@0@Z
_TEXT	SEGMENT PARA USE32 PUBLIC 'CODE'
_TEXT	ENDS
;	COMDAT ?_Xlen@?$vector@PAVCObj@@V?$allocator@PAVCObj@@@std@@@std@@IBEXXZ
_TEXT	SEGMENT PARA USE32 PUBLIC 'CODE'
_TEXT	ENDS
;	COMDAT ?deallocate@?$allocator@PAVCObj@@@std@@QAEXPAPAVCObj@@I@Z
_TEXT	SEGMENT PARA USE32 PUBLIC 'CODE'
_TEXT	ENDS
;	COMDAT ?allocate@?$allocator@PAVCObj@@@std@@QAEPAPAVCObj@@I@Z
_TEXT	SEGMENT PARA USE32 PUBLIC 'CODE'
_TEXT	ENDS
;	COMDAT ?_Color@?$_Tree@V?$_Tmap_traits@KU_Friend@@U?$less@K@std@@V?$allocator@U?$pair@$$CBKU_Friend@@@std@@@3@$0A@@std@@@std@@KAAADPAU_Node@?$_Tree_nod@V?$_Tmap_traits@KU_Friend@@U?$less@K@std@@V?$allocator@U?$pair@$$CBKU_Friend@@@std@@@3@$0A@@std@@@2@@Z
_TEXT	SEGMENT PARA USE32 PUBLIC 'CODE'
_TEXT	ENDS
;	COMDAT ?_Isnil@?$_Tree@V?$_Tmap_traits@KU_Friend@@U?$less@K@std@@V?$allocator@U?$pair@$$CBKU_Friend@@@std@@@3@$0A@@std@@@std@@KAAADPAU_Node@?$_Tree_nod@V?$_Tmap_traits@KU_Friend@@U?$less@K@std@@V?$allocator@U?$pair@$$CBKU_Friend@@@std@@@3@$0A@@std@@@2@@Z
_TEXT	SEGMENT PARA USE32 PUBLIC 'CODE'
_TEXT	ENDS
;	COMDAT ?_Left@?$_Tree@V?$_Tmap_traits@KU_Friend@@U?$less@K@std@@V?$allocator@U?$pair@$$CBKU_Friend@@@std@@@3@$0A@@std@@@std@@KAAAPAU_Node@?$_Tree_nod@V?$_Tmap_traits@KU_Friend@@U?$less@K@std@@V?$allocator@U?$pair@$$CBKU_Friend@@@std@@@3@$0A@@std@@@2@PAU342@@Z
_TEXT	SEGMENT PARA USE32 PUBLIC 'CODE'
_TEXT	ENDS
;	COMDAT ?_Parent@?$_Tree@V?$_Tmap_traits@KU_Friend@@U?$less@K@std@@V?$allocator@U?$pair@$$CBKU_Friend@@@std@@@3@$0A@@std@@@std@@KAAAPAU_Node@?$_Tree_nod@V?$_Tmap_traits@KU_Friend@@U?$less@K@std@@V?$allocator@U?$pair@$$CBKU_Friend@@@std@@@3@$0A@@std@@@2@PAU342@@Z
_TEXT	SEGMENT PARA USE32 PUBLIC 'CODE'
_TEXT	ENDS
;	COMDAT ?_Right@?$_Tree@V?$_Tmap_traits@KU_Friend@@U?$less@K@std@@V?$allocator@U?$pair@$$CBKU_Friend@@@std@@@3@$0A@@std@@@std@@KAAAPAU_Node@?$_Tree_nod@V?$_Tmap_traits@KU_Friend@@U?$less@K@std@@V?$allocator@U?$pair@$$CBKU_Friend@@@std@@@3@$0A@@std@@@2@PAU342@@Z
_TEXT	SEGMENT PARA USE32 PUBLIC 'CODE'
_TEXT	ENDS
;	COMDAT ?_Erase@?$_Tree@V?$_Tmap_traits@KU_Friend@@U?$less@K@std@@V?$allocator@U?$pair@$$CBKU_Friend@@@std@@@3@$0A@@std@@@std@@IAEXPAU_Node@?$_Tree_nod@V?$_Tmap_traits@KU_Friend@@U?$less@K@std@@V?$allocator@U?$pair@$$CBKU_Friend@@@std@@@3@$0A@@std@@@2@@Z
_TEXT	SEGMENT PARA USE32 PUBLIC 'CODE'
_TEXT	ENDS
;	COMDAT ?_Lbound@?$_Tree@V?$_Tmap_traits@KU_Friend@@U?$less@K@std@@V?$allocator@U?$pair@$$CBKU_Friend@@@std@@@3@$0A@@std@@@std@@IBEPAU_Node@?$_Tree_nod@V?$_Tmap_traits@KU_Friend@@U?$less@K@std@@V?$allocator@U?$pair@$$CBKU_Friend@@@std@@@3@$0A@@std@@@2@ABK@Z
_TEXT	SEGMENT PARA USE32 PUBLIC 'CODE'
_TEXT	ENDS
;	COMDAT ?_Lmost@?$_Tree@V?$_Tmap_traits@KU_Friend@@U?$less@K@std@@V?$allocator@U?$pair@$$CBKU_Friend@@@std@@@3@$0A@@std@@@std@@IAEAAPAU_Node@?$_Tree_nod@V?$_Tmap_traits@KU_Friend@@U?$less@K@std@@V?$allocator@U?$pair@$$CBKU_Friend@@@std@@@3@$0A@@std@@@2@XZ
_TEXT	SEGMENT PARA USE32 PUBLIC 'CODE'
_TEXT	ENDS
;	COMDAT ?_Lrotate@?$_Tree@V?$_Tmap_traits@KU_Friend@@U?$less@K@std@@V?$allocator@U?$pair@$$CBKU_Friend@@@std@@@3@$0A@@std@@@std@@IAEXPAU_Node@?$_Tree_nod@V?$_Tmap_traits@KU_Friend@@U?$less@K@std@@V?$allocator@U?$pair@$$CBKU_Friend@@@std@@@3@$0A@@std@@@2@@Z
_TEXT	SEGMENT PARA USE32 PUBLIC 'CODE'
_TEXT	ENDS
;	COMDAT ?_Max@?$_Tree@V?$_Tmap_traits@KU_Friend@@U?$less@K@std@@V?$allocator@U?$pair@$$CBKU_Friend@@@std@@@3@$0A@@std@@@std@@KAPAU_Node@?$_Tree_nod@V?$_Tmap_traits@KU_Friend@@U?$less@K@std@@V?$allocator@U?$pair@$$CBKU_Friend@@@std@@@3@$0A@@std@@@2@PAU342@@Z
_TEXT	SEGMENT PARA USE32 PUBLIC 'CODE'
_TEXT	ENDS
;	COMDAT ?_Min@?$_Tree@V?$_Tmap_traits@KU_Friend@@U?$less@K@std@@V?$allocator@U?$pair@$$CBKU_Friend@@@std@@@3@$0A@@std@@@std@@KAPAU_Node@?$_Tree_nod@V?$_Tmap_traits@KU_Friend@@U?$less@K@std@@V?$allocator@U?$pair@$$CBKU_Friend@@@std@@@3@$0A@@std@@@2@PAU342@@Z
_TEXT	SEGMENT PARA USE32 PUBLIC 'CODE'
_TEXT	ENDS
;	COMDAT ?_Rmost@?$_Tree@V?$_Tmap_traits@KU_Friend@@U?$less@K@std@@V?$allocator@U?$pair@$$CBKU_Friend@@@std@@@3@$0A@@std@@@std@@IAEAAPAU_Node@?$_Tree_nod@V?$_Tmap_traits@KU_Friend@@U?$less@K@std@@V?$allocator@U?$pair@$$CBKU_Friend@@@std@@@3@$0A@@std@@@2@XZ
_TEXT	SEGMENT PARA USE32 PUBLIC 'CODE'
_TEXT	ENDS
;	COMDAT ?_Root@?$_Tree@V?$_Tmap_traits@KU_Friend@@U?$less@K@std@@V?$allocator@U?$pair@$$CBKU_Friend@@@std@@@3@$0A@@std@@@std@@IAEAAPAU_Node@?$_Tree_nod@V?$_Tmap_traits@KU_Friend@@U?$less@K@std@@V?$allocator@U?$pair@$$CBKU_Friend@@@std@@@3@$0A@@std@@@2@XZ
_TEXT	SEGMENT PARA USE32 PUBLIC 'CODE'
_TEXT	ENDS
;	COMDAT ?_Rrotate@?$_Tree@V?$_Tmap_traits@KU_Friend@@U?$less@K@std@@V?$allocator@U?$pair@$$CBKU_Friend@@@std@@@3@$0A@@std@@@std@@IAEXPAU_Node@?$_Tree_nod@V?$_Tmap_traits@KU_Friend@@U?$less@K@std@@V?$allocator@U?$pair@$$CBKU_Friend@@@std@@@3@$0A@@std@@@2@@Z
_TEXT	SEGMENT PARA USE32 PUBLIC 'CODE'
_TEXT	ENDS
;	COMDAT ?_Ubound@?$_Tree@V?$_Tmap_traits@KU_Friend@@U?$less@K@std@@V?$allocator@U?$pair@$$CBKU_Friend@@@std@@@3@$0A@@std@@@std@@IBEPAU_Node@?$_Tree_nod@V?$_Tmap_traits@KU_Friend@@U?$less@K@std@@V?$allocator@U?$pair@$$CBKU_Friend@@@std@@@3@$0A@@std@@@2@ABK@Z
_TEXT	SEGMENT PARA USE32 PUBLIC 'CODE'
_TEXT	ENDS
;	COMDAT ?deallocate@?$allocator@U_Node@?$_Tree_nod@V?$_Tmap_traits@KU_Friend@@U?$less@K@std@@V?$allocator@U?$pair@$$CBKU_Friend@@@std@@@3@$0A@@std@@@std@@@std@@QAEXPAU_Node@?$_Tree_nod@V?$_Tmap_traits@KU_Friend@@U?$less@K@std@@V?$allocator@U?$pair@$$CBKU_Friend@@@std@@@3@$0A@@std@@@2@I@Z
_TEXT	SEGMENT PARA USE32 PUBLIC 'CODE'
_TEXT	ENDS
;	COMDAT ?destroy@?$allocator@U_Node@?$_Tree_nod@V?$_Tmap_traits@KU_Friend@@U?$less@K@std@@V?$allocator@U?$pair@$$CBKU_Friend@@@std@@@3@$0A@@std@@@std@@@std@@QAEXPAU_Node@?$_Tree_nod@V?$_Tmap_traits@KU_Friend@@U?$less@K@std@@V?$allocator@U?$pair@$$CBKU_Friend@@@std@@@3@$0A@@std@@@2@@Z
_TEXT	SEGMENT PARA USE32 PUBLIC 'CODE'
_TEXT	ENDS
;	COMDAT ??0iterator@?$_Tree@V?$_Tmap_traits@KU_Friend@@U?$less@K@std@@V?$allocator@U?$pair@$$CBKU_Friend@@@std@@@3@$0A@@std@@@std@@QAE@PAU_Node@?$_Tree_nod@V?$_Tmap_traits@KU_Friend@@U?$less@K@std@@V?$allocator@U?$pair@$$CBKU_Friend@@@std@@@3@$0A@@std@@@2@@Z
_TEXT	SEGMENT PARA USE32 PUBLIC 'CODE'
_TEXT	ENDS
;	COMDAT ??Eiterator@?$_Tree@V?$_Tmap_traits@KU_Friend@@U?$less@K@std@@V?$allocator@U?$pair@$$CBKU_Friend@@@std@@@3@$0A@@std@@@std@@QAEAAV012@XZ
_TEXT	SEGMENT PARA USE32 PUBLIC 'CODE'
_TEXT	ENDS
;	COMDAT ?_Mynode@const_iterator@?$_Tree@V?$_Tmap_traits@KU_Friend@@U?$less@K@std@@V?$allocator@U?$pair@$$CBKU_Friend@@@std@@@3@$0A@@std@@@std@@QBEPAU_Node@?$_Tree_nod@V?$_Tmap_traits@KU_Friend@@U?$less@K@std@@V?$allocator@U?$pair@$$CBKU_Friend@@@std@@@3@$0A@@std@@@3@XZ
_TEXT	SEGMENT PARA USE32 PUBLIC 'CODE'
_TEXT	ENDS
;	COMDAT ?max_size@?$allocator@U__SECRETROOM_MONSTER@@@std@@QBEIXZ
_TEXT	SEGMENT PARA USE32 PUBLIC 'CODE'
_TEXT	ENDS
;	COMDAT ?max_size@?$vector@UMINIGMAME_PRIZE_LIST@CRainbowRaceMng@@V?$allocator@UMINIGMAME_PRIZE_LIST@CRainbowRaceMng@@@std@@@std@@QBEIXZ
_TEXT	SEGMENT PARA USE32 PUBLIC 'CODE'
_TEXT	ENDS
;	COMDAT ?_Destroy@?$vector@UMINIGMAME_PRIZE_LIST@CRainbowRaceMng@@V?$allocator@UMINIGMAME_PRIZE_LIST@CRainbowRaceMng@@@std@@@std@@IAEXPAUMINIGMAME_PRIZE_LIST@CRainbowRaceMng@@0@Z
_TEXT	SEGMENT PARA USE32 PUBLIC 'CODE'
_TEXT	ENDS
;	COMDAT ?_Xlen@?$vector@UMINIGMAME_PRIZE_LIST@CRainbowRaceMng@@V?$allocator@UMINIGMAME_PRIZE_LIST@CRainbowRaceMng@@@std@@@std@@IBEXXZ
_TEXT	SEGMENT PARA USE32 PUBLIC 'CODE'
_TEXT	ENDS
;	COMDAT ?deallocate@?$allocator@UMINIGMAME_PRIZE_LIST@CRainbowRaceMng@@@std@@QAEXPAUMINIGMAME_PRIZE_LIST@CRainbowRaceMng@@I@Z
_TEXT	SEGMENT PARA USE32 PUBLIC 'CODE'
_TEXT	ENDS
;	COMDAT ?allocate@?$allocator@UMINIGMAME_PRIZE_LIST@CRainbowRaceMng@@@std@@QAEPAUMINIGMAME_PRIZE_LIST@CRainbowRaceMng@@I@Z
_TEXT	SEGMENT PARA USE32 PUBLIC 'CODE'
_TEXT	ENDS
;	COMDAT ?max_size@?$allocator@U?$pair@$$CBKPAVCGuildHouseBase@@@std@@@std@@QBEIXZ
_TEXT	SEGMENT PARA USE32 PUBLIC 'CODE'
_TEXT	ENDS
;	COMDAT ?deallocate@?$allocator@U_Node@?$_Tree_nod@V?$_Tmap_traits@KPAVCGuildHouseBase@@U?$less@K@std@@V?$allocator@U?$pair@$$CBKPAVCGuildHouseBase@@@std@@@3@$0A@@std@@@std@@@std@@QAEXPAU_Node@?$_Tree_nod@V?$_Tmap_traits@KPAVCGuildHouseBase@@U?$less@K@std@@V?$allocator@U?$pair@$$CBKPAVCGuildHouseBase@@@std@@@3@$0A@@std@@@2@I@Z
_TEXT	SEGMENT PARA USE32 PUBLIC 'CODE'
_TEXT	ENDS
;	COMDAT ?allocate@?$allocator@U_Node@?$_Tree_nod@V?$_Tmap_traits@KPAVCGuildHouseBase@@U?$less@K@std@@V?$allocator@U?$pair@$$CBKPAVCGuildHouseBase@@@std@@@3@$0A@@std@@@std@@@std@@QAEPAU_Node@?$_Tree_nod@V?$_Tmap_traits@KPAVCGuildHouseBase@@U?$less@K@std@@V?$allocator@U?$pair@$$CBKPAVCGuildHouseBase@@@std@@@3@$0A@@std@@@2@I@Z
_TEXT	SEGMENT PARA USE32 PUBLIC 'CODE'
_TEXT	ENDS
;	COMDAT ?_Dec@const_iterator@?$_Tree@V?$_Tmap_traits@KPAVCGuildHouseBase@@U?$less@K@std@@V?$allocator@U?$pair@$$CBKPAVCGuildHouseBase@@@std@@@3@$0A@@std@@@std@@QAEXXZ
_TEXT	SEGMENT PARA USE32 PUBLIC 'CODE'
_TEXT	ENDS
;	COMDAT ?_Color@?$_Tree@V?$_Tmap_traits@KKU?$less@K@std@@V?$allocator@U?$pair@$$CBKK@std@@@2@$0A@@std@@@std@@KAAADPAU_Node@?$_Tree_nod@V?$_Tmap_traits@KKU?$less@K@std@@V?$allocator@U?$pair@$$CBKK@std@@@2@$0A@@std@@@2@@Z
_TEXT	SEGMENT PARA USE32 PUBLIC 'CODE'
_TEXT	ENDS
;	COMDAT ?_Isnil@?$_Tree@V?$_Tmap_traits@KKU?$less@K@std@@V?$allocator@U?$pair@$$CBKK@std@@@2@$0A@@std@@@std@@KAAADPAU_Node@?$_Tree_nod@V?$_Tmap_traits@KKU?$less@K@std@@V?$allocator@U?$pair@$$CBKK@std@@@2@$0A@@std@@@2@@Z
_TEXT	SEGMENT PARA USE32 PUBLIC 'CODE'
_TEXT	ENDS
;	COMDAT ?_Left@?$_Tree@V?$_Tmap_traits@KKU?$less@K@std@@V?$allocator@U?$pair@$$CBKK@std@@@2@$0A@@std@@@std@@KAAAPAU_Node@?$_Tree_nod@V?$_Tmap_traits@KKU?$less@K@std@@V?$allocator@U?$pair@$$CBKK@std@@@2@$0A@@std@@@2@PAU342@@Z
_TEXT	SEGMENT PARA USE32 PUBLIC 'CODE'
_TEXT	ENDS
;	COMDAT ?_Parent@?$_Tree@V?$_Tmap_traits@KKU?$less@K@std@@V?$allocator@U?$pair@$$CBKK@std@@@2@$0A@@std@@@std@@KAAAPAU_Node@?$_Tree_nod@V?$_Tmap_traits@KKU?$less@K@std@@V?$allocator@U?$pair@$$CBKK@std@@@2@$0A@@std@@@2@PAU342@@Z
_TEXT	SEGMENT PARA USE32 PUBLIC 'CODE'
_TEXT	ENDS
;	COMDAT ?_Right@?$_Tree@V?$_Tmap_traits@KKU?$less@K@std@@V?$allocator@U?$pair@$$CBKK@std@@@2@$0A@@std@@@std@@KAAAPAU_Node@?$_Tree_nod@V?$_Tmap_traits@KKU?$less@K@std@@V?$allocator@U?$pair@$$CBKK@std@@@2@$0A@@std@@@2@PAU342@@Z
_TEXT	SEGMENT PARA USE32 PUBLIC 'CODE'
_TEXT	ENDS
;	COMDAT ?_Erase@?$_Tree@V?$_Tmap_traits@KKU?$less@K@std@@V?$allocator@U?$pair@$$CBKK@std@@@2@$0A@@std@@@std@@IAEXPAU_Node@?$_Tree_nod@V?$_Tmap_traits@KKU?$less@K@std@@V?$allocator@U?$pair@$$CBKK@std@@@2@$0A@@std@@@2@@Z
_TEXT	SEGMENT PARA USE32 PUBLIC 'CODE'
_TEXT	ENDS
;	COMDAT ?_Lbound@?$_Tree@V?$_Tmap_traits@KKU?$less@K@std@@V?$allocator@U?$pair@$$CBKK@std@@@2@$0A@@std@@@std@@IBEPAU_Node@?$_Tree_nod@V?$_Tmap_traits@KKU?$less@K@std@@V?$allocator@U?$pair@$$CBKK@std@@@2@$0A@@std@@@2@ABK@Z
_TEXT	SEGMENT PARA USE32 PUBLIC 'CODE'
_TEXT	ENDS
;	COMDAT ?_Lmost@?$_Tree@V?$_Tmap_traits@KKU?$less@K@std@@V?$allocator@U?$pair@$$CBKK@std@@@2@$0A@@std@@@std@@IAEAAPAU_Node@?$_Tree_nod@V?$_Tmap_traits@KKU?$less@K@std@@V?$allocator@U?$pair@$$CBKK@std@@@2@$0A@@std@@@2@XZ
_TEXT	SEGMENT PARA USE32 PUBLIC 'CODE'
_TEXT	ENDS
;	COMDAT ?_Lrotate@?$_Tree@V?$_Tmap_traits@KKU?$less@K@std@@V?$allocator@U?$pair@$$CBKK@std@@@2@$0A@@std@@@std@@IAEXPAU_Node@?$_Tree_nod@V?$_Tmap_traits@KKU?$less@K@std@@V?$allocator@U?$pair@$$CBKK@std@@@2@$0A@@std@@@2@@Z
_TEXT	SEGMENT PARA USE32 PUBLIC 'CODE'
_TEXT	ENDS
;	COMDAT ?_Max@?$_Tree@V?$_Tmap_traits@KKU?$less@K@std@@V?$allocator@U?$pair@$$CBKK@std@@@2@$0A@@std@@@std@@KAPAU_Node@?$_Tree_nod@V?$_Tmap_traits@KKU?$less@K@std@@V?$allocator@U?$pair@$$CBKK@std@@@2@$0A@@std@@@2@PAU342@@Z
_TEXT	SEGMENT PARA USE32 PUBLIC 'CODE'
_TEXT	ENDS
;	COMDAT ?_Min@?$_Tree@V?$_Tmap_traits@KKU?$less@K@std@@V?$allocator@U?$pair@$$CBKK@std@@@2@$0A@@std@@@std@@KAPAU_Node@?$_Tree_nod@V?$_Tmap_traits@KKU?$less@K@std@@V?$allocator@U?$pair@$$CBKK@std@@@2@$0A@@std@@@2@PAU342@@Z
_TEXT	SEGMENT PARA USE32 PUBLIC 'CODE'
_TEXT	ENDS
;	COMDAT ?_Rmost@?$_Tree@V?$_Tmap_traits@KKU?$less@K@std@@V?$allocator@U?$pair@$$CBKK@std@@@2@$0A@@std@@@std@@IAEAAPAU_Node@?$_Tree_nod@V?$_Tmap_traits@KKU?$less@K@std@@V?$allocator@U?$pair@$$CBKK@std@@@2@$0A@@std@@@2@XZ
_TEXT	SEGMENT PARA USE32 PUBLIC 'CODE'
_TEXT	ENDS
;	COMDAT ?_Root@?$_Tree@V?$_Tmap_traits@KKU?$less@K@std@@V?$allocator@U?$pair@$$CBKK@std@@@2@$0A@@std@@@std@@IAEAAPAU_Node@?$_Tree_nod@V?$_Tmap_traits@KKU?$less@K@std@@V?$allocator@U?$pair@$$CBKK@std@@@2@$0A@@std@@@2@XZ
_TEXT	SEGMENT PARA USE32 PUBLIC 'CODE'
_TEXT	ENDS
;	COMDAT ?_Rrotate@?$_Tree@V?$_Tmap_traits@KKU?$less@K@std@@V?$allocator@U?$pair@$$CBKK@std@@@2@$0A@@std@@@std@@IAEXPAU_Node@?$_Tree_nod@V?$_Tmap_traits@KKU?$less@K@std@@V?$allocator@U?$pair@$$CBKK@std@@@2@$0A@@std@@@2@@Z
_TEXT	SEGMENT PARA USE32 PUBLIC 'CODE'
_TEXT	ENDS
;	COMDAT ?_Ubound@?$_Tree@V?$_Tmap_traits@KKU?$less@K@std@@V?$allocator@U?$pair@$$CBKK@std@@@2@$0A@@std@@@std@@IBEPAU_Node@?$_Tree_nod@V?$_Tmap_traits@KKU?$less@K@std@@V?$allocator@U?$pair@$$CBKK@std@@@2@$0A@@std@@@2@ABK@Z
_TEXT	SEGMENT PARA USE32 PUBLIC 'CODE'
_TEXT	ENDS
;	COMDAT ?deallocate@?$allocator@U_Node@?$_Tree_nod@V?$_Tmap_traits@KKU?$less@K@std@@V?$allocator@U?$pair@$$CBKK@std@@@2@$0A@@std@@@std@@@std@@QAEXPAU_Node@?$_Tree_nod@V?$_Tmap_traits@KKU?$less@K@std@@V?$allocator@U?$pair@$$CBKK@std@@@2@$0A@@std@@@2@I@Z
_TEXT	SEGMENT PARA USE32 PUBLIC 'CODE'
_TEXT	ENDS
;	COMDAT ?destroy@?$allocator@U_Node@?$_Tree_nod@V?$_Tmap_traits@KKU?$less@K@std@@V?$allocator@U?$pair@$$CBKK@std@@@2@$0A@@std@@@std@@@std@@QAEXPAU_Node@?$_Tree_nod@V?$_Tmap_traits@KKU?$less@K@std@@V?$allocator@U?$pair@$$CBKK@std@@@2@$0A@@std@@@2@@Z
_TEXT	SEGMENT PARA USE32 PUBLIC 'CODE'
_TEXT	ENDS
;	COMDAT ??0iterator@?$_Tree@V?$_Tmap_traits@KKU?$less@K@std@@V?$allocator@U?$pair@$$CBKK@std@@@2@$0A@@std@@@std@@QAE@PAU_Node@?$_Tree_nod@V?$_Tmap_traits@KKU?$less@K@std@@V?$allocator@U?$pair@$$CBKK@std@@@2@$0A@@std@@@2@@Z
_TEXT	SEGMENT PARA USE32 PUBLIC 'CODE'
_TEXT	ENDS
;	COMDAT ??Eiterator@?$_Tree@V?$_Tmap_traits@KKU?$less@K@std@@V?$allocator@U?$pair@$$CBKK@std@@@2@$0A@@std@@@std@@QAEAAV012@XZ
_TEXT	SEGMENT PARA USE32 PUBLIC 'CODE'
_TEXT	ENDS
;	COMDAT ?_Mynode@const_iterator@?$_Tree@V?$_Tmap_traits@KKU?$less@K@std@@V?$allocator@U?$pair@$$CBKK@std@@@2@$0A@@std@@@std@@QBEPAU_Node@?$_Tree_nod@V?$_Tmap_traits@KKU?$less@K@std@@V?$allocator@U?$pair@$$CBKK@std@@@2@$0A@@std@@@3@XZ
_TEXT	SEGMENT PARA USE32 PUBLIC 'CODE'
_TEXT	ENDS
;	COMDAT ??0const_iterator@?$vector@KV?$allocator@K@std@@@std@@QAE@PAK@Z
_TEXT	SEGMENT PARA USE32 PUBLIC 'CODE'
_TEXT	ENDS
;	COMDAT ??Yiterator@?$vector@PAVCObj@@V?$allocator@PAVCObj@@@std@@@std@@QAEAAV012@H@Z
_TEXT	SEGMENT PARA USE32 PUBLIC 'CODE'
_TEXT	ENDS
;	COMDAT ??0const_iterator@?$vector@PAVCObj@@V?$allocator@PAVCObj@@@std@@@std@@QAE@PAPAVCObj@@@Z
_TEXT	SEGMENT PARA USE32 PUBLIC 'CODE'
_TEXT	ENDS
;	COMDAT ??Gconst_iterator@?$vector@PAVCObj@@V?$allocator@PAVCObj@@@std@@@std@@QBEHABV012@@Z
_TEXT	SEGMENT PARA USE32 PUBLIC 'CODE'
_TEXT	ENDS
;	COMDAT ??0const_iterator@?$vector@PAU__JOINPLAYER@CGuildCombat@@V?$allocator@PAU__JOINPLAYER@CGuildCombat@@@std@@@std@@QAE@PAPAU__JOINPLAYER@CGuildCombat@@@Z
_TEXT	SEGMENT PARA USE32 PUBLIC 'CODE'
_TEXT	ENDS
;	COMDAT ??0const_iterator@?$vector@V?$basic_string@DU?$char_traits@D@std@@V?$allocator@D@2@@std@@V?$allocator@V?$basic_string@DU?$char_traits@D@std@@V?$allocator@D@2@@std@@@2@@std@@QAE@PAV?$basic_string@DU?$char_traits@D@std@@V?$allocator@D@2@@2@@Z
_TEXT	SEGMENT PARA USE32 PUBLIC 'CODE'
_TEXT	ENDS
;	COMDAT ??Gconst_iterator@?$vector@V?$basic_string@DU?$char_traits@D@std@@V?$allocator@D@2@@std@@V?$allocator@V?$basic_string@DU?$char_traits@D@std@@V?$allocator@D@2@@std@@@2@@std@@QBEHABV012@@Z
_TEXT	SEGMENT PARA USE32 PUBLIC 'CODE'
_TEXT	ENDS
;	COMDAT ??Yiterator@?$vector@UMINIGMAME_PRIZE_LIST@CRainbowRaceMng@@V?$allocator@UMINIGMAME_PRIZE_LIST@CRainbowRaceMng@@@std@@@std@@QAEAAV012@H@Z
_TEXT	SEGMENT PARA USE32 PUBLIC 'CODE'
_TEXT	ENDS
;	COMDAT ??0const_iterator@?$vector@UMINIGMAME_PRIZE_LIST@CRainbowRaceMng@@V?$allocator@UMINIGMAME_PRIZE_LIST@CRainbowRaceMng@@@std@@@std@@QAE@PAUMINIGMAME_PRIZE_LIST@CRainbowRaceMng@@@Z
_TEXT	SEGMENT PARA USE32 PUBLIC 'CODE'
_TEXT	ENDS
;	COMDAT ??Gconst_iterator@?$vector@UMINIGMAME_PRIZE_LIST@CRainbowRaceMng@@V?$allocator@UMINIGMAME_PRIZE_LIST@CRainbowRaceMng@@@std@@@std@@QBEHABV012@@Z
_TEXT	SEGMENT PARA USE32 PUBLIC 'CODE'
_TEXT	ENDS
;	COMDAT ??0const_iterator@?$vector@PAVCMiniGameBase@@V?$allocator@PAVCMiniGameBase@@@std@@@std@@QAE@PAPAVCMiniGameBase@@@Z
_TEXT	SEGMENT PARA USE32 PUBLIC 'CODE'
_TEXT	ENDS
;	COMDAT ??0const_iterator@?$vector@UGuildHouse_Furniture_Info@CGuildHouseBase@@V?$allocator@UGuildHouse_Furniture_Info@CGuildHouseBase@@@std@@@std@@QAE@PAUGuildHouse_Furniture_Info@CGuildHouseBase@@@Z
_TEXT	SEGMENT PARA USE32 PUBLIC 'CODE'
_TEXT	ENDS
;	COMDAT ??0_Node@?$_Tree_nod@V?$_Tmap_traits@KPAVCGuildHouseBase@@U?$less@K@std@@V?$allocator@U?$pair@$$CBKPAVCGuildHouseBase@@@std@@@3@$0A@@std@@@std@@QAE@PAU012@00ABU?$pair@$$CBKPAVCGuildHouseBase@@@2@D@Z
_TEXT	SEGMENT PARA USE32 PUBLIC 'CODE'
_TEXT	ENDS
;	COMDAT ?max_size@?$allocator@PAVCObj@@@std@@QBEIXZ
_TEXT	SEGMENT PARA USE32 PUBLIC 'CODE'
_TEXT	ENDS
;	COMDAT ?_Key@?$_Tree@V?$_Tmap_traits@KU_Friend@@U?$less@K@std@@V?$allocator@U?$pair@$$CBKU_Friend@@@std@@@3@$0A@@std@@@std@@KAABKPAU_Node@?$_Tree_nod@V?$_Tmap_traits@KU_Friend@@U?$less@K@std@@V?$allocator@U?$pair@$$CBKU_Friend@@@std@@@3@$0A@@std@@@2@@Z
_TEXT	SEGMENT PARA USE32 PUBLIC 'CODE'
_TEXT	ENDS
;	COMDAT ?_Root@?$_Tree@V?$_Tmap_traits@KU_Friend@@U?$less@K@std@@V?$allocator@U?$pair@$$CBKU_Friend@@@std@@@3@$0A@@std@@@std@@IBEAAPAU_Node@?$_Tree_nod@V?$_Tmap_traits@KU_Friend@@U?$less@K@std@@V?$allocator@U?$pair@$$CBKU_Friend@@@std@@@3@$0A@@std@@@2@XZ
_TEXT	SEGMENT PARA USE32 PUBLIC 'CODE'
_TEXT	ENDS
;	COMDAT ??0const_iterator@?$_Tree@V?$_Tmap_traits@KU_Friend@@U?$less@K@std@@V?$allocator@U?$pair@$$CBKU_Friend@@@std@@@3@$0A@@std@@@std@@QAE@PAU_Node@?$_Tree_nod@V?$_Tmap_traits@KU_Friend@@U?$less@K@std@@V?$allocator@U?$pair@$$CBKU_Friend@@@std@@@3@$0A@@std@@@2@@Z
_TEXT	SEGMENT PARA USE32 PUBLIC 'CODE'
_TEXT	ENDS
;	COMDAT ??Econst_iterator@?$_Tree@V?$_Tmap_traits@KU_Friend@@U?$less@K@std@@V?$allocator@U?$pair@$$CBKU_Friend@@@std@@@3@$0A@@std@@@std@@QAEAAV012@XZ
_TEXT	SEGMENT PARA USE32 PUBLIC 'CODE'
_TEXT	ENDS
;	COMDAT ?max_size@?$allocator@UMINIGMAME_PRIZE_LIST@CRainbowRaceMng@@@std@@QBEIXZ
_TEXT	SEGMENT PARA USE32 PUBLIC 'CODE'
_TEXT	ENDS
;	COMDAT ?_Max@?$_Tree@V?$_Tmap_traits@KPAVCGuildHouseBase@@U?$less@K@std@@V?$allocator@U?$pair@$$CBKPAVCGuildHouseBase@@@std@@@3@$0A@@std@@@std@@KAPAU_Node@?$_Tree_nod@V?$_Tmap_traits@KPAVCGuildHouseBase@@U?$less@K@std@@V?$allocator@U?$pair@$$CBKPAVCGuildHouseBase@@@std@@@3@$0A@@std@@@2@PAU342@@Z
_TEXT	SEGMENT PARA USE32 PUBLIC 'CODE'
_TEXT	ENDS
;	COMDAT ?_Key@?$_Tree@V?$_Tmap_traits@KKU?$less@K@std@@V?$allocator@U?$pair@$$CBKK@std@@@2@$0A@@std@@@std@@KAABKPAU_Node@?$_Tree_nod@V?$_Tmap_traits@KKU?$less@K@std@@V?$allocator@U?$pair@$$CBKK@std@@@2@$0A@@std@@@2@@Z
_TEXT	SEGMENT PARA USE32 PUBLIC 'CODE'
_TEXT	ENDS
;	COMDAT ?_Root@?$_Tree@V?$_Tmap_traits@KKU?$less@K@std@@V?$allocator@U?$pair@$$CBKK@std@@@2@$0A@@std@@@std@@IBEAAPAU_Node@?$_Tree_nod@V?$_Tmap_traits@KKU?$less@K@std@@V?$allocator@U?$pair@$$CBKK@std@@@2@$0A@@std@@@2@XZ
_TEXT	SEGMENT PARA USE32 PUBLIC 'CODE'
_TEXT	ENDS
;	COMDAT ??0const_iterator@?$_Tree@V?$_Tmap_traits@KKU?$less@K@std@@V?$allocator@U?$pair@$$CBKK@std@@@2@$0A@@std@@@std@@QAE@PAU_Node@?$_Tree_nod@V?$_Tmap_traits@KKU?$less@K@std@@V?$allocator@U?$pair@$$CBKK@std@@@2@$0A@@std@@@2@@Z
_TEXT	SEGMENT PARA USE32 PUBLIC 'CODE'
_TEXT	ENDS
;	COMDAT ??Econst_iterator@?$_Tree@V?$_Tmap_traits@KKU?$less@K@std@@V?$allocator@U?$pair@$$CBKK@std@@@2@$0A@@std@@@std@@QAEAAV012@XZ
_TEXT	SEGMENT PARA USE32 PUBLIC 'CODE'
_TEXT	ENDS
;	COMDAT ?_Myval@?$_Tree@V?$_Tmap_traits@KU_Friend@@U?$less@K@std@@V?$allocator@U?$pair@$$CBKU_Friend@@@std@@@3@$0A@@std@@@std@@KAAAU?$pair@$$CBKU_Friend@@@2@PAU_Node@?$_Tree_nod@V?$_Tmap_traits@KU_Friend@@U?$less@K@std@@V?$allocator@U?$pair@$$CBKU_Friend@@@std@@@3@$0A@@std@@@2@@Z
_TEXT	SEGMENT PARA USE32 PUBLIC 'CODE'
_TEXT	ENDS
;	COMDAT ?_Kfn@?$_Tmap_traits@KU_Friend@@U?$less@K@std@@V?$allocator@U?$pair@$$CBKU_Friend@@@std@@@3@$0A@@std@@SAABKABU?$pair@$$CBKU_Friend@@@2@@Z
_TEXT	SEGMENT PARA USE32 PUBLIC 'CODE'
_TEXT	ENDS
;	COMDAT ?_Inc@const_iterator@?$_Tree@V?$_Tmap_traits@KU_Friend@@U?$less@K@std@@V?$allocator@U?$pair@$$CBKU_Friend@@@std@@@3@$0A@@std@@@std@@QAEXXZ
_TEXT	SEGMENT PARA USE32 PUBLIC 'CODE'
_TEXT	ENDS
;	COMDAT ?_Myval@?$_Tree@V?$_Tmap_traits@KKU?$less@K@std@@V?$allocator@U?$pair@$$CBKK@std@@@2@$0A@@std@@@std@@KAAAU?$pair@$$CBKK@2@PAU_Node@?$_Tree_nod@V?$_Tmap_traits@KKU?$less@K@std@@V?$allocator@U?$pair@$$CBKK@std@@@2@$0A@@std@@@2@@Z
_TEXT	SEGMENT PARA USE32 PUBLIC 'CODE'
_TEXT	ENDS
;	COMDAT ?_Kfn@?$_Tmap_traits@KKU?$less@K@std@@V?$allocator@U?$pair@$$CBKK@std@@@2@$0A@@std@@SAABKABU?$pair@$$CBKK@2@@Z
_TEXT	SEGMENT PARA USE32 PUBLIC 'CODE'
_TEXT	ENDS
;	COMDAT ?_Inc@const_iterator@?$_Tree@V?$_Tmap_traits@KKU?$less@K@std@@V?$allocator@U?$pair@$$CBKK@std@@@2@$0A@@std@@@std@@QAEXXZ
_TEXT	SEGMENT PARA USE32 PUBLIC 'CODE'
_TEXT	ENDS
;	COMDAT ??$_Iter_cat@Vconst_iterator@?$vector@EV?$allocator@E@std@@@std@@@std@@YA?AUrandom_access_iterator_tag@0@ABVconst_iterator@?$vector@EV?$allocator@E@std@@@0@@Z
_TEXT	SEGMENT PARA USE32 PUBLIC 'CODE'
_TEXT	ENDS
;	COMDAT ??$_Assign@Vconst_iterator@?$vector@EV?$allocator@E@std@@@std@@@?$vector@EV?$allocator@E@std@@@std@@QAEXVconst_iterator@01@0Uinput_iterator_tag@1@@Z
_TEXT	SEGMENT PARA USE32 PUBLIC 'CODE'
_TEXT	ENDS
;	COMDAT ??$_Iter_cat@Viterator@?$_Tree@V?$_Tmap_traits@KPAVCUser@@U?$less@K@std@@V?$allocator@U?$pair@$$CBKPAVCUser@@@std@@@3@$0A@@std@@@std@@@std@@YA?AUbidirectional_iterator_tag@0@ABViterator@?$_Tree@V?$_Tmap_traits@KPAVCUser@@U?$less@K@std@@V?$allocator@U?$pair@$$CBKPAVCUser@@@std@@@3@$0A@@std@@@0@@Z
_TEXT	SEGMENT PARA USE32 PUBLIC 'CODE'
_TEXT	ENDS
;	COMDAT ??$_Distance2@Viterator@?$_Tree@V?$_Tmap_traits@KPAVCUser@@U?$less@K@std@@V?$allocator@U?$pair@$$CBKPAVCUser@@@std@@@3@$0A@@std@@@std@@I@std@@YAXViterator@?$_Tree@V?$_Tmap_traits@KPAVCUser@@U?$less@K@std@@V?$allocator@U?$pair@$$CBKPAVCUser@@@std@@@3@$0A@@std@@@0@0AAIUbidirectional_iterator_tag@0@@Z
_TEXT	SEGMENT PARA USE32 PUBLIC 'CODE'
_TEXT	ENDS
;	COMDAT ??$_Iter_cat@Viterator@?$_Tree@V?$_Tmap_traits@KPAVCCtrl@@U?$less@K@std@@V?$allocator@U?$pair@$$CBKPAVCCtrl@@@std@@@3@$0A@@std@@@std@@@std@@YA?AUbidirectional_iterator_tag@0@ABViterator@?$_Tree@V?$_Tmap_traits@KPAVCCtrl@@U?$less@K@std@@V?$allocator@U?$pair@$$CBKPAVCCtrl@@@std@@@3@$0A@@std@@@0@@Z
_TEXT	SEGMENT PARA USE32 PUBLIC 'CODE'
_TEXT	ENDS
;	COMDAT ??$_Distance2@Viterator@?$_Tree@V?$_Tmap_traits@KPAVCCtrl@@U?$less@K@std@@V?$allocator@U?$pair@$$CBKPAVCCtrl@@@std@@@3@$0A@@std@@@std@@I@std@@YAXViterator@?$_Tree@V?$_Tmap_traits@KPAVCCtrl@@U?$less@K@std@@V?$allocator@U?$pair@$$CBKPAVCCtrl@@@std@@@3@$0A@@std@@@0@0AAIUbidirectional_iterator_tag@0@@Z
_TEXT	SEGMENT PARA USE32 PUBLIC 'CODE'
_TEXT	ENDS
;	COMDAT ??$_Uninitialized_copy@Vconst_iterator@?$vector@EV?$allocator@E@std@@@std@@PAEV?$allocator@E@3@@std@@YAPAEVconst_iterator@?$vector@EV?$allocator@E@std@@@0@0PAEAAV?$allocator@E@0@@Z
_TEXT	SEGMENT PARA USE32 PUBLIC 'CODE'
_TEXT	ENDS
;	COMDAT ??$_Iter_cat@Viterator@?$_Tree@V?$_Tmap_traits@KEU?$less@K@std@@V?$allocator@U?$pair@$$CBKE@std@@@2@$0A@@std@@@std@@@std@@YA?AUbidirectional_iterator_tag@0@ABViterator@?$_Tree@V?$_Tmap_traits@KEU?$less@K@std@@V?$allocator@U?$pair@$$CBKE@std@@@2@$0A@@std@@@0@@Z
_TEXT	SEGMENT PARA USE32 PUBLIC 'CODE'
_TEXT	ENDS
;	COMDAT ??$_Distance2@Viterator@?$_Tree@V?$_Tmap_traits@KEU?$less@K@std@@V?$allocator@U?$pair@$$CBKE@std@@@2@$0A@@std@@@std@@I@std@@YAXViterator@?$_Tree@V?$_Tmap_traits@KEU?$less@K@std@@V?$allocator@U?$pair@$$CBKE@std@@@2@$0A@@std@@@0@0AAIUbidirectional_iterator_tag@0@@Z
_TEXT	SEGMENT PARA USE32 PUBLIC 'CODE'
_TEXT	ENDS
;	COMDAT ??$_Ptr_cat@PAU__SPAWNREGION@CEventLua@@PAU12@@std@@YA?AU_Nonscalar_ptr_iterator_tag@0@AAPAU__SPAWNREGION@CEventLua@@0@Z
_TEXT	SEGMENT PARA USE32 PUBLIC 'CODE'
_TEXT	ENDS
;	COMDAT ??$_Uninit_fill_n@PAU__SPAWNREGION@CEventLua@@IU12@V?$allocator@U__SPAWNREGION@CEventLua@@@std@@@std@@YAXPAU__SPAWNREGION@CEventLua@@IABU12@AAV?$allocator@U__SPAWNREGION@CEventLua@@@0@U_Nonscalar_ptr_iterator_tag@0@@Z
_TEXT	SEGMENT PARA USE32 PUBLIC 'CODE'
_TEXT	ENDS
;	COMDAT ??$_Copy_opt@PAJPAJ@std@@YAPAJPAJ00U_Scalar_ptr_iterator_tag@0@@Z
_TEXT	SEGMENT PARA USE32 PUBLIC 'CODE'
_TEXT	ENDS
;	COMDAT ??$_Uninitialized_copy@PAJPAJV?$allocator@J@std@@@std@@YAPAJPAJ00AAV?$allocator@J@0@@Z
_TEXT	SEGMENT PARA USE32 PUBLIC 'CODE'
_TEXT	ENDS
;	COMDAT ??$_Copy_backward_opt@PAJPAJ@std@@YAPAJPAJ00U_Scalar_ptr_iterator_tag@0@@Z
_TEXT	SEGMENT PARA USE32 PUBLIC 'CODE'
_TEXT	ENDS
;	COMDAT ??$_Ptr_cat@PAUtagDROPITEM@@PAU1@@std@@YA?AU_Nonscalar_ptr_iterator_tag@0@AAPAUtagDROPITEM@@0@Z
_TEXT	SEGMENT PARA USE32 PUBLIC 'CODE'
_TEXT	ENDS
;	COMDAT ??$_Destroy_range@UtagDROPITEM@@V?$allocator@UtagDROPITEM@@@std@@@std@@YAXPAUtagDROPITEM@@0AAV?$allocator@UtagDROPITEM@@@0@U_Nonscalar_ptr_iterator_tag@0@@Z
_TEXT	SEGMENT PARA USE32 PUBLIC 'CODE'
_TEXT	ENDS
;	COMDAT ??$_Ptr_cat@PAUWORMON@@PAU1@@std@@YA?AU_Nonscalar_ptr_iterator_tag@0@AAPAUWORMON@@0@Z
_TEXT	SEGMENT PARA USE32 PUBLIC 'CODE'
_TEXT	ENDS
;	COMDAT ??$_Destroy_range@UWORMON@@V?$allocator@UWORMON@@@std@@@std@@YAXPAUWORMON@@0AAV?$allocator@UWORMON@@@0@U_Nonscalar_ptr_iterator_tag@0@@Z
_TEXT	SEGMENT PARA USE32 PUBLIC 'CODE'
_TEXT	ENDS
;	COMDAT ??$_Ptr_cat@PAU__ITEMGAME@CMiniGame@@PAU12@@std@@YA?AU_Nonscalar_ptr_iterator_tag@0@AAPAU__ITEMGAME@CMiniGame@@0@Z
_TEXT	SEGMENT PARA USE32 PUBLIC 'CODE'
_TEXT	ENDS
;	COMDAT ??$_Destroy_range@U__ITEMGAME@CMiniGame@@V?$allocator@U__ITEMGAME@CMiniGame@@@std@@@std@@YAXPAU__ITEMGAME@CMiniGame@@0AAV?$allocator@U__ITEMGAME@CMiniGame@@@0@U_Nonscalar_ptr_iterator_tag@0@@Z
_TEXT	SEGMENT PARA USE32 PUBLIC 'CODE'
_TEXT	ENDS
;	COMDAT ??$_Destroy_range@KV?$allocator@K@std@@@std@@YAXPAK0AAV?$allocator@K@0@U_Scalar_ptr_iterator_tag@0@@Z
_TEXT	SEGMENT PARA USE32 PUBLIC 'CODE'
_TEXT	ENDS
;	COMDAT ??$_Destroy_range@HV?$allocator@H@std@@@std@@YAXPAH0AAV?$allocator@H@0@U_Scalar_ptr_iterator_tag@0@@Z
_TEXT	SEGMENT PARA USE32 PUBLIC 'CODE'
_TEXT	ENDS
;	COMDAT ??$_Ptr_cat@PAU__ITEM@CExchange@@PAU12@@std@@YA?AU_Nonscalar_ptr_iterator_tag@0@AAPAU__ITEM@CExchange@@0@Z
_TEXT	SEGMENT PARA USE32 PUBLIC 'CODE'
_TEXT	ENDS
;	COMDAT ??$_Destroy_range@U__ITEM@CExchange@@V?$allocator@U__ITEM@CExchange@@@std@@@std@@YAXPAU__ITEM@CExchange@@0AAV?$allocator@U__ITEM@CExchange@@@0@U_Nonscalar_ptr_iterator_tag@0@@Z
_TEXT	SEGMENT PARA USE32 PUBLIC 'CODE'
_TEXT	ENDS
;	COMDAT ??$_Ptr_cat@PAU__POINT@CExchange@@PAU12@@std@@YA?AU_Nonscalar_ptr_iterator_tag@0@AAPAU__POINT@CExchange@@0@Z
_TEXT	SEGMENT PARA USE32 PUBLIC 'CODE'
_TEXT	ENDS
;	COMDAT ??$_Destroy_range@U__POINT@CExchange@@V?$allocator@U__POINT@CExchange@@@std@@@std@@YAXPAU__POINT@CExchange@@0AAV?$allocator@U__POINT@CExchange@@@0@U_Nonscalar_ptr_iterator_tag@0@@Z
_TEXT	SEGMENT PARA USE32 PUBLIC 'CODE'
_TEXT	ENDS
;	COMDAT ??$_Destroy_range@EV?$allocator@E@std@@@std@@YAXPAE0AAV?$allocator@E@0@U_Scalar_ptr_iterator_tag@0@@Z
_TEXT	SEGMENT PARA USE32 PUBLIC 'CODE'
_TEXT	ENDS
;	COMDAT ??$_Uninitialized_copy@PAU__SPAWNREGION@CEventLua@@PAU12@V?$allocator@U__SPAWNREGION@CEventLua@@@std@@@std@@YAPAU__SPAWNREGION@CEventLua@@PAU12@00AAV?$allocator@U__SPAWNREGION@CEventLua@@@0@@Z
_TEXT	SEGMENT PARA USE32 PUBLIC 'CODE'
_TEXT	ENDS
;	COMDAT ??$_Copy_backward_opt@PAU__SPAWNREGION@CEventLua@@PAU12@@std@@YAPAU__SPAWNREGION@CEventLua@@PAU12@00U_Nonscalar_ptr_iterator_tag@0@@Z
_TEXT	SEGMENT PARA USE32 PUBLIC 'CODE'
_TEXT	ENDS
;	COMDAT ??$_Ptr_cat@PAUD3DXVECTOR3@@PAU1@@std@@YA?AU_Nonscalar_ptr_iterator_tag@0@AAPAUD3DXVECTOR3@@0@Z
_TEXT	SEGMENT PARA USE32 PUBLIC 'CODE'
_TEXT	ENDS
;	COMDAT ??$_Destroy_range@UD3DXVECTOR3@@V?$allocator@UD3DXVECTOR3@@@std@@@std@@YAXPAUD3DXVECTOR3@@0AAV?$allocator@UD3DXVECTOR3@@@0@U_Nonscalar_ptr_iterator_tag@0@@Z
_TEXT	SEGMENT PARA USE32 PUBLIC 'CODE'
_TEXT	ENDS
;	COMDAT ??$_Ptr_cat@PAU_GIFTBOX@@PAU1@@std@@YA?AU_Nonscalar_ptr_iterator_tag@0@AAPAU_GIFTBOX@@0@Z
_TEXT	SEGMENT PARA USE32 PUBLIC 'CODE'
_TEXT	ENDS
;	COMDAT ??$_Destroy_range@U_GIFTBOX@@V?$allocator@U_GIFTBOX@@@std@@@std@@YAXPAU_GIFTBOX@@0AAV?$allocator@U_GIFTBOX@@@0@U_Nonscalar_ptr_iterator_tag@0@@Z
_TEXT	SEGMENT PARA USE32 PUBLIC 'CODE'
_TEXT	ENDS
;	COMDAT ??$_Destroy_range@JV?$allocator@J@std@@@std@@YAXPAJ0AAV?$allocator@J@0@U_Scalar_ptr_iterator_tag@0@@Z
_TEXT	SEGMENT PARA USE32 PUBLIC 'CODE'
_TEXT	ENDS
;	COMDAT ??$_Uninit_fill_n@JIJ@std@@YAXPAJIABJAAV?$allocator@J@0@U_Scalar_ptr_iterator_tag@0@@Z
_TEXT	SEGMENT PARA USE32 PUBLIC 'CODE'
_TEXT	ENDS
;	COMDAT ??$_Destroy_range@U__SPAWNREGION@CEventLua@@V?$allocator@U__SPAWNREGION@CEventLua@@@std@@@std@@YAXPAU__SPAWNREGION@CEventLua@@0AAV?$allocator@U__SPAWNREGION@CEventLua@@@0@U_Nonscalar_ptr_iterator_tag@0@@Z
_TEXT	SEGMENT PARA USE32 PUBLIC 'CODE'
_TEXT	ENDS
;	COMDAT ??1?$CFixedArray@UtagWORLD@@@@UAE@XZ
_TEXT	SEGMENT PARA USE32 PUBLIC 'CODE'
_TEXT	ENDS
;	COMDAT ?GetAt@?$CFixedArray@UtagWORLD@@@@QAEPAUtagWORLD@@K@Z
_TEXT	SEGMENT PARA USE32 PUBLIC 'CODE'
_TEXT	ENDS
;	COMDAT ??$make_pair@KPAVCGuildHouseBase@@@std@@YA?AU?$pair@KPAVCGuildHouseBase@@@0@KPAVCGuildHouseBase@@@Z
_TEXT	SEGMENT PARA USE32 PUBLIC 'CODE'
_TEXT	ENDS
;	COMDAT ??$?0KPAVCGuildHouseBase@@@?$pair@$$CBKPAVCGuildHouseBase@@@std@@QAE@ABU?$pair@KPAVCGuildHouseBase@@@1@@Z
_TEXT	SEGMENT PARA USE32 PUBLIC 'CODE'
_TEXT	ENDS
;	COMDAT ??$_Distance@Viterator@?$_Tree@V?$_Tmap_traits@KU_Friend@@U?$less@K@std@@V?$allocator@U?$pair@$$CBKU_Friend@@@std@@@3@$0A@@std@@@std@@I@std@@YAXViterator@?$_Tree@V?$_Tmap_traits@KU_Friend@@U?$less@K@std@@V?$allocator@U?$pair@$$CBKU_Friend@@@std@@@3@$0A@@std@@@0@0AAI@Z
_TEXT	SEGMENT PARA USE32 PUBLIC 'CODE'
_TEXT	ENDS
;	COMDAT ??$_Distance@Viterator@?$_Tree@V?$_Tmap_traits@KKU?$less@K@std@@V?$allocator@U?$pair@$$CBKK@std@@@2@$0A@@std@@@std@@I@std@@YAXViterator@?$_Tree@V?$_Tmap_traits@KKU?$less@K@std@@V?$allocator@U?$pair@$$CBKK@std@@@2@$0A@@std@@@0@0AAI@Z
_TEXT	SEGMENT PARA USE32 PUBLIC 'CODE'
_TEXT	ENDS
;	COMDAT ??$_Uninitialized_fill_n@PAPAVCObj@@IPAV1@V?$allocator@PAVCObj@@@std@@@std@@YAXPAPAVCObj@@IABQAV1@AAV?$allocator@PAVCObj@@@0@@Z
_TEXT	SEGMENT PARA USE32 PUBLIC 'CODE'
_TEXT	ENDS
;	COMDAT ??$_Destroy@U_Node@?$_List_nod@PAU__JOINPLAYER@CGuildCombat@@V?$allocator@PAU__JOINPLAYER@CGuildCombat@@@std@@@std@@@std@@YAXPAU_Node@?$_List_nod@PAU__JOINPLAYER@CGuildCombat@@V?$allocator@PAU__JOINPLAYER@CGuildCombat@@@std@@@0@@Z
_TEXT	SEGMENT PARA USE32 PUBLIC 'CODE'
_TEXT	ENDS
;	COMDAT ??$_Uninitialized_fill_n@PAV?$basic_string@DU?$char_traits@D@std@@V?$allocator@D@2@@std@@IV12@V?$allocator@V?$basic_string@DU?$char_traits@D@std@@V?$allocator@D@2@@std@@@2@@std@@YAXPAV?$basic_string@DU?$char_traits@D@std@@V?$allocator@D@2@@0@IABV10@AAV?$allocator@V?$basic_string@DU?$char_traits@D@std@@V?$allocator@D@2@@std@@@0@@Z
_TEXT	SEGMENT PARA USE32 PUBLIC 'CODE'
_TEXT	ENDS
;	COMDAT ??$_Uninitialized_fill_n@PAUMINIGMAME_PRIZE_LIST@CRainbowRaceMng@@IU12@V?$allocator@UMINIGMAME_PRIZE_LIST@CRainbowRaceMng@@@std@@@std@@YAXPAUMINIGMAME_PRIZE_LIST@CRainbowRaceMng@@IABU12@AAV?$allocator@UMINIGMAME_PRIZE_LIST@CRainbowRaceMng@@@0@@Z
_TEXT	SEGMENT PARA USE32 PUBLIC 'CODE'
_TEXT	ENDS
;	COMDAT ??$_Allocate@V?$basic_string@DU?$char_traits@D@std@@V?$allocator@D@2@@std@@@std@@YAPAV?$basic_string@DU?$char_traits@D@std@@V?$allocator@D@2@@0@IPAV10@@Z
_TEXT	SEGMENT PARA USE32 PUBLIC 'CODE'
_TEXT	ENDS
;	COMDAT ??$?0PAUtagACTMSG@@@?$allocator@PAPAUtagACTMSG@@@std@@QAE@ABV?$allocator@PAUtagACTMSG@@@1@@Z
_TEXT	SEGMENT PARA USE32 PUBLIC 'CODE'
_TEXT	ENDS
;	COMDAT ??$_Destroy@PAPAUtagACTMSG@@@std@@YAXPAPAPAUtagACTMSG@@@Z
_TEXT	SEGMENT PARA USE32 PUBLIC 'CODE'
_TEXT	ENDS
;	COMDAT ??$?0PAUtagMAGICATKMSG@@@?$allocator@PAPAUtagMAGICATKMSG@@@std@@QAE@ABV?$allocator@PAUtagMAGICATKMSG@@@1@@Z
_TEXT	SEGMENT PARA USE32 PUBLIC 'CODE'
_TEXT	ENDS
;	COMDAT ??$_Destroy@PAPAUtagMAGICATKMSG@@@std@@YAXPAPAPAUtagMAGICATKMSG@@@Z
_TEXT	SEGMENT PARA USE32 PUBLIC 'CODE'
_TEXT	ENDS
;	COMDAT ??$_Ucopy@PAPAVCObj@@@?$vector@PAVCObj@@V?$allocator@PAVCObj@@@std@@@std@@IAEPAPAVCObj@@PAPAV2@00@Z
_TEXT	SEGMENT PARA USE32 PUBLIC 'CODE'
_TEXT	ENDS
;	COMDAT ??$fill@PAPAVCObj@@PAV1@@std@@YAXPAPAVCObj@@0ABQAV1@@Z
_TEXT	SEGMENT PARA USE32 PUBLIC 'CODE'
_TEXT	ENDS
;	COMDAT ??$copy_backward@PAPAVCObj@@PAPAV1@@std@@YAPAPAVCObj@@PAPAV1@00@Z
_TEXT	SEGMENT PARA USE32 PUBLIC 'CODE'
_TEXT	ENDS
;	COMDAT ??$_Destroy_range@PAU__JOINPLAYER@CGuildCombat@@V?$allocator@PAU__JOINPLAYER@CGuildCombat@@@std@@@std@@YAXPAPAU__JOINPLAYER@CGuildCombat@@0AAV?$allocator@PAU__JOINPLAYER@CGuildCombat@@@0@@Z
_TEXT	SEGMENT PARA USE32 PUBLIC 'CODE'
_TEXT	ENDS
;	COMDAT ??$_Destroy_range@U__SECRETROOM_MONSTER@@V?$allocator@U__SECRETROOM_MONSTER@@@std@@@std@@YAXPAU__SECRETROOM_MONSTER@@0AAV?$allocator@U__SECRETROOM_MONSTER@@@0@@Z
_TEXT	SEGMENT PARA USE32 PUBLIC 'CODE'
_TEXT	ENDS
;	COMDAT ??$_Allocate@U__SECRETROOM_MONSTER@@@std@@YAPAU__SECRETROOM_MONSTER@@IPAU1@@Z
_TEXT	SEGMENT PARA USE32 PUBLIC 'CODE'
_TEXT	ENDS
;	COMDAT ??$_Destroy_range@V?$basic_string@DU?$char_traits@D@std@@V?$allocator@D@2@@std@@V?$allocator@V?$basic_string@DU?$char_traits@D@std@@V?$allocator@D@2@@std@@@2@@std@@YAXPAV?$basic_string@DU?$char_traits@D@std@@V?$allocator@D@2@@0@0AAV?$allocator@V?$basic_string@DU?$char_traits@D@std@@V?$allocator@D@2@@std@@@0@@Z
_TEXT	SEGMENT PARA USE32 PUBLIC 'CODE'
_TEXT	ENDS
;	COMDAT ??$_Ucopy@PAV?$basic_string@DU?$char_traits@D@std@@V?$allocator@D@2@@std@@@?$vector@V?$basic_string@DU?$char_traits@D@std@@V?$allocator@D@2@@std@@V?$allocator@V?$basic_string@DU?$char_traits@D@std@@V?$allocator@D@2@@std@@@2@@std@@IAEPAV?$basic_string@DU?$char_traits@D@std@@V?$allocator@D@2@@1@PAV21@00@Z
_TEXT	SEGMENT PARA USE32 PUBLIC 'CODE'
_TEXT	ENDS
;	COMDAT ??$fill@PAV?$basic_string@DU?$char_traits@D@std@@V?$allocator@D@2@@std@@V12@@std@@YAXPAV?$basic_string@DU?$char_traits@D@std@@V?$allocator@D@2@@0@0ABV10@@Z
_TEXT	SEGMENT PARA USE32 PUBLIC 'CODE'
_TEXT	ENDS
;	COMDAT ??$copy_backward@PAV?$basic_string@DU?$char_traits@D@std@@V?$allocator@D@2@@std@@PAV12@@std@@YAPAV?$basic_string@DU?$char_traits@D@std@@V?$allocator@D@2@@0@PAV10@00@Z
_TEXT	SEGMENT PARA USE32 PUBLIC 'CODE'
_TEXT	ENDS
;	COMDAT ??$_Ucopy@PAUMINIGMAME_PRIZE_LIST@CRainbowRaceMng@@@?$vector@UMINIGMAME_PRIZE_LIST@CRainbowRaceMng@@V?$allocator@UMINIGMAME_PRIZE_LIST@CRainbowRaceMng@@@std@@@std@@IAEPAUMINIGMAME_PRIZE_LIST@CRainbowRaceMng@@PAU23@00@Z
_TEXT	SEGMENT PARA USE32 PUBLIC 'CODE'
_TEXT	ENDS
;	COMDAT ??$fill@PAUMINIGMAME_PRIZE_LIST@CRainbowRaceMng@@U12@@std@@YAXPAUMINIGMAME_PRIZE_LIST@CRainbowRaceMng@@0ABU12@@Z
_TEXT	SEGMENT PARA USE32 PUBLIC 'CODE'
_TEXT	ENDS
;	COMDAT ??$copy_backward@PAUMINIGMAME_PRIZE_LIST@CRainbowRaceMng@@PAU12@@std@@YAPAUMINIGMAME_PRIZE_LIST@CRainbowRaceMng@@PAU12@00@Z
_TEXT	SEGMENT PARA USE32 PUBLIC 'CODE'
_TEXT	ENDS
;	COMDAT ??$_Destroy@PAUtagACTMSG@@@std@@YAXPAPAUtagACTMSG@@@Z
_TEXT	SEGMENT PARA USE32 PUBLIC 'CODE'
_TEXT	ENDS
;	COMDAT ??$_Destroy@PAUtagMAGICATKMSG@@@std@@YAXPAPAUtagMAGICATKMSG@@@Z
_TEXT	SEGMENT PARA USE32 PUBLIC 'CODE'
_TEXT	ENDS
;	COMDAT ??$_Destroy_range@PAVCObj@@V?$allocator@PAVCObj@@@std@@@std@@YAXPAPAVCObj@@0AAV?$allocator@PAVCObj@@@0@@Z
_TEXT	SEGMENT PARA USE32 PUBLIC 'CODE'
_TEXT	ENDS
;	COMDAT ??$_Allocate@PAVCObj@@@std@@YAPAPAVCObj@@IPAPAV1@@Z
_TEXT	SEGMENT PARA USE32 PUBLIC 'CODE'
_TEXT	ENDS
;	COMDAT ??$_Destroy@U_Node@?$_Tree_nod@V?$_Tmap_traits@KU_Friend@@U?$less@K@std@@V?$allocator@U?$pair@$$CBKU_Friend@@@std@@@3@$0A@@std@@@std@@@std@@YAXPAU_Node@?$_Tree_nod@V?$_Tmap_traits@KU_Friend@@U?$less@K@std@@V?$allocator@U?$pair@$$CBKU_Friend@@@std@@@3@$0A@@std@@@0@@Z
_TEXT	SEGMENT PARA USE32 PUBLIC 'CODE'
_TEXT	ENDS
;	COMDAT ??$_Destroy_range@UMINIGMAME_PRIZE_LIST@CRainbowRaceMng@@V?$allocator@UMINIGMAME_PRIZE_LIST@CRainbowRaceMng@@@std@@@std@@YAXPAUMINIGMAME_PRIZE_LIST@CRainbowRaceMng@@0AAV?$allocator@UMINIGMAME_PRIZE_LIST@CRainbowRaceMng@@@0@@Z
_TEXT	SEGMENT PARA USE32 PUBLIC 'CODE'
_TEXT	ENDS
;	COMDAT ??$_Allocate@UMINIGMAME_PRIZE_LIST@CRainbowRaceMng@@@std@@YAPAUMINIGMAME_PRIZE_LIST@CRainbowRaceMng@@IPAU12@@Z
_TEXT	SEGMENT PARA USE32 PUBLIC 'CODE'
_TEXT	ENDS
;	COMDAT ??$_Allocate@U_Node@?$_Tree_nod@V?$_Tmap_traits@KPAVCGuildHouseBase@@U?$less@K@std@@V?$allocator@U?$pair@$$CBKPAVCGuildHouseBase@@@std@@@3@$0A@@std@@@std@@@std@@YAPAU_Node@?$_Tree_nod@V?$_Tmap_traits@KPAVCGuildHouseBase@@U?$less@K@std@@V?$allocator@U?$pair@$$CBKPAVCGuildHouseBase@@@std@@@3@$0A@@std@@@0@IPAU120@@Z
_TEXT	SEGMENT PARA USE32 PUBLIC 'CODE'
_TEXT	ENDS
;	COMDAT ??$_Destroy@U_Node@?$_Tree_nod@V?$_Tmap_traits@KKU?$less@K@std@@V?$allocator@U?$pair@$$CBKK@std@@@2@$0A@@std@@@std@@@std@@YAXPAU_Node@?$_Tree_nod@V?$_Tmap_traits@KKU?$less@K@std@@V?$allocator@U?$pair@$$CBKK@std@@@2@$0A@@std@@@0@@Z
_TEXT	SEGMENT PARA USE32 PUBLIC 'CODE'
_TEXT	ENDS
;	COMDAT ??_G?$CFixedArray@UtagWORLD@@@@UAEPAXI@Z
_TEXT	SEGMENT PARA USE32 PUBLIC 'CODE'
_TEXT	ENDS
;	COMDAT ?destroy@?$allocator@UtagDROPITEM@@@std@@QAEXPAUtagDROPITEM@@@Z
_TEXT	SEGMENT PARA USE32 PUBLIC 'CODE'
_TEXT	ENDS
;	COMDAT ?destroy@?$allocator@UWORMON@@@std@@QAEXPAUWORMON@@@Z
_TEXT	SEGMENT PARA USE32 PUBLIC 'CODE'
_TEXT	ENDS
;	COMDAT ?destroy@?$allocator@U__ITEMGAME@CMiniGame@@@std@@QAEXPAU__ITEMGAME@CMiniGame@@@Z
_TEXT	SEGMENT PARA USE32 PUBLIC 'CODE'
_TEXT	ENDS
;	COMDAT ?destroy@?$allocator@U__ITEM@CExchange@@@std@@QAEXPAU__ITEM@CExchange@@@Z
_TEXT	SEGMENT PARA USE32 PUBLIC 'CODE'
_TEXT	ENDS
;	COMDAT ?destroy@?$allocator@U__POINT@CExchange@@@std@@QAEXPAU__POINT@CExchange@@@Z
_TEXT	SEGMENT PARA USE32 PUBLIC 'CODE'
_TEXT	ENDS
;	COMDAT ?begin@?$vector@EV?$allocator@E@std@@@std@@QAE?AViterator@12@XZ
_TEXT	SEGMENT PARA USE32 PUBLIC 'CODE'
_TEXT	ENDS
;	COMDAT ?end@?$vector@EV?$allocator@E@std@@@std@@QAE?AViterator@12@XZ
_TEXT	SEGMENT PARA USE32 PUBLIC 'CODE'
_TEXT	ENDS
;	COMDAT ?erase@?$vector@EV?$allocator@E@std@@@std@@QAE?AViterator@12@V312@0@Z
_TEXT	SEGMENT PARA USE32 PUBLIC 'CODE'
_TEXT	ENDS
;	COMDAT ?construct@?$allocator@U__SPAWNREGION@CEventLua@@@std@@QAEXPAU__SPAWNREGION@CEventLua@@ABU34@@Z
_TEXT	SEGMENT PARA USE32 PUBLIC 'CODE'
_TEXT	ENDS
;	COMDAT ?destroy@?$allocator@U__SPAWNREGION@CEventLua@@@std@@QAEXPAU__SPAWNREGION@CEventLua@@@Z
_TEXT	SEGMENT PARA USE32 PUBLIC 'CODE'
_TEXT	ENDS
;	COMDAT ?destroy@?$allocator@UD3DXVECTOR3@@@std@@QAEXPAUD3DXVECTOR3@@@Z
_TEXT	SEGMENT PARA USE32 PUBLIC 'CODE'
_TEXT	ENDS
;	COMDAT ?destroy@?$allocator@U_GIFTBOX@@@std@@QAEXPAU_GIFTBOX@@@Z
_TEXT	SEGMENT PARA USE32 PUBLIC 'CODE'
_TEXT	ENDS
;	COMDAT ??0?$pair@KPAVCGuildHouseBase@@@std@@QAE@ABKABQAVCGuildHouseBase@@@Z
_TEXT	SEGMENT PARA USE32 PUBLIC 'CODE'
_TEXT	ENDS
;	COMDAT ??9const_iterator@?$vector@EV?$allocator@E@std@@@std@@QBE_NABV012@@Z
_TEXT	SEGMENT PARA USE32 PUBLIC 'CODE'
_TEXT	ENDS
;	COMDAT ??0iterator@?$vector@EV?$allocator@E@std@@@std@@QAE@PAE@Z
_TEXT	SEGMENT PARA USE32 PUBLIC 'CODE'
_TEXT	ENDS
;	COMDAT ??8const_iterator@?$vector@EV?$allocator@E@std@@@std@@QBE_NABV012@@Z
_TEXT	SEGMENT PARA USE32 PUBLIC 'CODE'
_TEXT	ENDS
;	COMDAT ??$insert@Vconst_iterator@?$vector@EV?$allocator@E@std@@@std@@@?$vector@EV?$allocator@E@std@@@std@@QAEXViterator@01@Vconst_iterator@01@1@Z
_TEXT	SEGMENT PARA USE32 PUBLIC 'CODE'
_TEXT	ENDS
;	COMDAT ??$_Ptr_cat@Vconst_iterator@?$vector@EV?$allocator@E@std@@@std@@PAE@std@@YA?AU_Nonscalar_ptr_iterator_tag@0@AAVconst_iterator@?$vector@EV?$allocator@E@std@@@0@AAPAE@Z
_TEXT	SEGMENT PARA USE32 PUBLIC 'CODE'
_TEXT	ENDS
;	COMDAT ??$_Uninit_copy@Vconst_iterator@?$vector@EV?$allocator@E@std@@@std@@PAEV?$allocator@E@3@@std@@YAPAEVconst_iterator@?$vector@EV?$allocator@E@std@@@0@0PAEAAV?$allocator@E@0@U_Nonscalar_ptr_iterator_tag@0@@Z
_TEXT	SEGMENT PARA USE32 PUBLIC 'CODE'
_TEXT	ENDS
;	COMDAT ??$_Uninit_copy@JJ@std@@YAPAJPAJ00AAV?$allocator@J@0@U_Scalar_ptr_iterator_tag@0@@Z
_TEXT	SEGMENT PARA USE32 PUBLIC 'CODE'
_TEXT	ENDS
;	COMDAT ??$_Uninit_copy@PAU__SPAWNREGION@CEventLua@@PAU12@V?$allocator@U__SPAWNREGION@CEventLua@@@std@@@std@@YAPAU__SPAWNREGION@CEventLua@@PAU12@00AAV?$allocator@U__SPAWNREGION@CEventLua@@@0@U_Nonscalar_ptr_iterator_tag@0@@Z
_TEXT	SEGMENT PARA USE32 PUBLIC 'CODE'
_TEXT	ENDS
;	COMDAT ??$fill_n@PAJIJ@std@@YAXPAJIABJ@Z
_TEXT	SEGMENT PARA USE32 PUBLIC 'CODE'
_TEXT	ENDS
;	COMDAT ??$_Iter_cat@Viterator@?$_Tree@V?$_Tmap_traits@KU_Friend@@U?$less@K@std@@V?$allocator@U?$pair@$$CBKU_Friend@@@std@@@3@$0A@@std@@@std@@@std@@YA?AUbidirectional_iterator_tag@0@ABViterator@?$_Tree@V?$_Tmap_traits@KU_Friend@@U?$less@K@std@@V?$allocator@U?$pair@$$CBKU_Friend@@@std@@@3@$0A@@std@@@0@@Z
_TEXT	SEGMENT PARA USE32 PUBLIC 'CODE'
_TEXT	ENDS
;	COMDAT ??$_Distance2@Viterator@?$_Tree@V?$_Tmap_traits@KU_Friend@@U?$less@K@std@@V?$allocator@U?$pair@$$CBKU_Friend@@@std@@@3@$0A@@std@@@std@@I@std@@YAXViterator@?$_Tree@V?$_Tmap_traits@KU_Friend@@U?$less@K@std@@V?$allocator@U?$pair@$$CBKU_Friend@@@std@@@3@$0A@@std@@@0@0AAIUbidirectional_iterator_tag@0@@Z
_TEXT	SEGMENT PARA USE32 PUBLIC 'CODE'
_TEXT	ENDS
;	COMDAT ??$_Iter_cat@Viterator@?$_Tree@V?$_Tmap_traits@KKU?$less@K@std@@V?$allocator@U?$pair@$$CBKK@std@@@2@$0A@@std@@@std@@@std@@YA?AUbidirectional_iterator_tag@0@ABViterator@?$_Tree@V?$_Tmap_traits@KKU?$less@K@std@@V?$allocator@U?$pair@$$CBKK@std@@@2@$0A@@std@@@0@@Z
_TEXT	SEGMENT PARA USE32 PUBLIC 'CODE'
_TEXT	ENDS
;	COMDAT ??$_Distance2@Viterator@?$_Tree@V?$_Tmap_traits@KKU?$less@K@std@@V?$allocator@U?$pair@$$CBKK@std@@@2@$0A@@std@@@std@@I@std@@YAXViterator@?$_Tree@V?$_Tmap_traits@KKU?$less@K@std@@V?$allocator@U?$pair@$$CBKK@std@@@2@$0A@@std@@@0@0AAIUbidirectional_iterator_tag@0@@Z
_TEXT	SEGMENT PARA USE32 PUBLIC 'CODE'
_TEXT	ENDS
;	COMDAT ??$_Ptr_cat@VCObj@@@std@@YA?AU_Scalar_ptr_iterator_tag@0@PAPAVCObj@@0@Z
_TEXT	SEGMENT PARA USE32 PUBLIC 'CODE'
_TEXT	ENDS
;	COMDAT ??$_Uninit_fill_n@PAVCObj@@IPAV1@@std@@YAXPAPAVCObj@@IABQAV1@AAV?$allocator@PAVCObj@@@0@U_Scalar_ptr_iterator_tag@0@@Z
_TEXT	SEGMENT PARA USE32 PUBLIC 'CODE'
_TEXT	ENDS
;	COMDAT ??$_Ptr_cat@PAV?$basic_string@DU?$char_traits@D@std@@V?$allocator@D@2@@std@@PAV12@@std@@YA?AU_Nonscalar_ptr_iterator_tag@0@AAPAV?$basic_string@DU?$char_traits@D@std@@V?$allocator@D@2@@0@0@Z
_TEXT	SEGMENT PARA USE32 PUBLIC 'CODE'
_TEXT	ENDS
;	COMDAT ??$_Uninit_fill_n@PAV?$basic_string@DU?$char_traits@D@std@@V?$allocator@D@2@@std@@IV12@V?$allocator@V?$basic_string@DU?$char_traits@D@std@@V?$allocator@D@2@@std@@@2@@std@@YAXPAV?$basic_string@DU?$char_traits@D@std@@V?$allocator@D@2@@0@IABV10@AAV?$allocator@V?$basic_string@DU?$char_traits@D@std@@V?$allocator@D@2@@std@@@0@U_Nonscalar_ptr_iterator_tag@0@@Z
_TEXT	SEGMENT PARA USE32 PUBLIC 'CODE'
_TEXT	ENDS
;	COMDAT ??$_Ptr_cat@PAUMINIGMAME_PRIZE_LIST@CRainbowRaceMng@@PAU12@@std@@YA?AU_Nonscalar_ptr_iterator_tag@0@AAPAUMINIGMAME_PRIZE_LIST@CRainbowRaceMng@@0@Z
_TEXT	SEGMENT PARA USE32 PUBLIC 'CODE'
_TEXT	ENDS
;	COMDAT ??$_Uninit_fill_n@PAUMINIGMAME_PRIZE_LIST@CRainbowRaceMng@@IU12@V?$allocator@UMINIGMAME_PRIZE_LIST@CRainbowRaceMng@@@std@@@std@@YAXPAUMINIGMAME_PRIZE_LIST@CRainbowRaceMng@@IABU12@AAV?$allocator@UMINIGMAME_PRIZE_LIST@CRainbowRaceMng@@@0@U_Nonscalar_ptr_iterator_tag@0@@Z
_TEXT	SEGMENT PARA USE32 PUBLIC 'CODE'
_TEXT	ENDS
;	COMDAT ??$_Uninitialized_copy@PAPAVCObj@@PAPAV1@V?$allocator@PAVCObj@@@std@@@std@@YAPAPAVCObj@@PAPAV1@00AAV?$allocator@PAVCObj@@@0@@Z
_TEXT	SEGMENT PARA USE32 PUBLIC 'CODE'
_TEXT	ENDS
;	COMDAT ??$_Copy_backward_opt@PAPAVCObj@@PAPAV1@@std@@YAPAPAVCObj@@PAPAV1@00U_Scalar_ptr_iterator_tag@0@@Z
_TEXT	SEGMENT PARA USE32 PUBLIC 'CODE'
_TEXT	ENDS
;	COMDAT ??$_Ptr_cat@U__JOINPLAYER@CGuildCombat@@@std@@YA?AU_Scalar_ptr_iterator_tag@0@PAPAU__JOINPLAYER@CGuildCombat@@0@Z
_TEXT	SEGMENT PARA USE32 PUBLIC 'CODE'
_TEXT	ENDS
;	COMDAT ??$_Destroy_range@PAU__JOINPLAYER@CGuildCombat@@V?$allocator@PAU__JOINPLAYER@CGuildCombat@@@std@@@std@@YAXPAPAU__JOINPLAYER@CGuildCombat@@0AAV?$allocator@PAU__JOINPLAYER@CGuildCombat@@@0@U_Scalar_ptr_iterator_tag@0@@Z
_TEXT	SEGMENT PARA USE32 PUBLIC 'CODE'
_TEXT	ENDS
;	COMDAT ??$_Ptr_cat@PAU__SECRETROOM_MONSTER@@PAU1@@std@@YA?AU_Nonscalar_ptr_iterator_tag@0@AAPAU__SECRETROOM_MONSTER@@0@Z
_TEXT	SEGMENT PARA USE32 PUBLIC 'CODE'
_TEXT	ENDS
;	COMDAT ??$_Destroy_range@U__SECRETROOM_MONSTER@@V?$allocator@U__SECRETROOM_MONSTER@@@std@@@std@@YAXPAU__SECRETROOM_MONSTER@@0AAV?$allocator@U__SECRETROOM_MONSTER@@@0@U_Nonscalar_ptr_iterator_tag@0@@Z
_TEXT	SEGMENT PARA USE32 PUBLIC 'CODE'
_TEXT	ENDS
;	COMDAT ??$_Destroy_range@V?$basic_string@DU?$char_traits@D@std@@V?$allocator@D@2@@std@@V?$allocator@V?$basic_string@DU?$char_traits@D@std@@V?$allocator@D@2@@std@@@2@@std@@YAXPAV?$basic_string@DU?$char_traits@D@std@@V?$allocator@D@2@@0@0AAV?$allocator@V?$basic_string@DU?$char_traits@D@std@@V?$allocator@D@2@@std@@@0@U_Nonscalar_ptr_iterator_tag@0@@Z
_TEXT	SEGMENT PARA USE32 PUBLIC 'CODE'
_TEXT	ENDS
;	COMDAT ??$_Uninitialized_copy@PAV?$basic_string@DU?$char_traits@D@std@@V?$allocator@D@2@@std@@PAV12@V?$allocator@V?$basic_string@DU?$char_traits@D@std@@V?$allocator@D@2@@std@@@2@@std@@YAPAV?$basic_string@DU?$char_traits@D@std@@V?$allocator@D@2@@0@PAV10@00AAV?$allocator@V?$basic_string@DU?$char_traits@D@std@@V?$allocator@D@2@@std@@@0@@Z
_TEXT	SEGMENT PARA USE32 PUBLIC 'CODE'
_TEXT	ENDS
;	COMDAT ??$_Copy_backward_opt@PAV?$basic_string@DU?$char_traits@D@std@@V?$allocator@D@2@@std@@PAV12@@std@@YAPAV?$basic_string@DU?$char_traits@D@std@@V?$allocator@D@2@@0@PAV10@00U_Nonscalar_ptr_iterator_tag@0@@Z
_TEXT	SEGMENT PARA USE32 PUBLIC 'CODE'
_TEXT	ENDS
;	COMDAT ??$_Uninitialized_copy@PAUMINIGMAME_PRIZE_LIST@CRainbowRaceMng@@PAU12@V?$allocator@UMINIGMAME_PRIZE_LIST@CRainbowRaceMng@@@std@@@std@@YAPAUMINIGMAME_PRIZE_LIST@CRainbowRaceMng@@PAU12@00AAV?$allocator@UMINIGMAME_PRIZE_LIST@CRainbowRaceMng@@@0@@Z
_TEXT	SEGMENT PARA USE32 PUBLIC 'CODE'
_TEXT	ENDS
;	COMDAT ??$_Copy_backward_opt@PAUMINIGMAME_PRIZE_LIST@CRainbowRaceMng@@PAU12@@std@@YAPAUMINIGMAME_PRIZE_LIST@CRainbowRaceMng@@PAU12@00U_Nonscalar_ptr_iterator_tag@0@@Z
_TEXT	SEGMENT PARA USE32 PUBLIC 'CODE'
_TEXT	ENDS
;	COMDAT ??$_Destroy_range@PAVCObj@@V?$allocator@PAVCObj@@@std@@@std@@YAXPAPAVCObj@@0AAV?$allocator@PAVCObj@@@0@U_Scalar_ptr_iterator_tag@0@@Z
_TEXT	SEGMENT PARA USE32 PUBLIC 'CODE'
_TEXT	ENDS
;	COMDAT ??$_Destroy_range@UMINIGMAME_PRIZE_LIST@CRainbowRaceMng@@V?$allocator@UMINIGMAME_PRIZE_LIST@CRainbowRaceMng@@@std@@@std@@YAXPAUMINIGMAME_PRIZE_LIST@CRainbowRaceMng@@0AAV?$allocator@UMINIGMAME_PRIZE_LIST@CRainbowRaceMng@@@0@U_Nonscalar_ptr_iterator_tag@0@@Z
_TEXT	SEGMENT PARA USE32 PUBLIC 'CODE'
_TEXT	ENDS
;	COMDAT ??$_Destroy@UtagDROPITEM@@@std@@YAXPAUtagDROPITEM@@@Z
_TEXT	SEGMENT PARA USE32 PUBLIC 'CODE'
_TEXT	ENDS
;	COMDAT ??$_Destroy@UWORMON@@@std@@YAXPAUWORMON@@@Z
_TEXT	SEGMENT PARA USE32 PUBLIC 'CODE'
_TEXT	ENDS
;	COMDAT ??$_Destroy@U__ITEMGAME@CMiniGame@@@std@@YAXPAU__ITEMGAME@CMiniGame@@@Z
_TEXT	SEGMENT PARA USE32 PUBLIC 'CODE'
_TEXT	ENDS
;	COMDAT ??$_Destroy@U__ITEM@CExchange@@@std@@YAXPAU__ITEM@CExchange@@@Z
_TEXT	SEGMENT PARA USE32 PUBLIC 'CODE'
_TEXT	ENDS
;	COMDAT ??$_Destroy@U__POINT@CExchange@@@std@@YAXPAU__POINT@CExchange@@@Z
_TEXT	SEGMENT PARA USE32 PUBLIC 'CODE'
_TEXT	ENDS
;	COMDAT ??$copy@PAEPAE@std@@YAPAEPAE00@Z
_TEXT	SEGMENT PARA USE32 PUBLIC 'CODE'
_TEXT	ENDS
;	COMDAT ??$_Construct@U__SPAWNREGION@CEventLua@@U12@@std@@YAXPAU__SPAWNREGION@CEventLua@@ABU12@@Z
_TEXT	SEGMENT PARA USE32 PUBLIC 'CODE'
_TEXT	ENDS
;	COMDAT ??$_Destroy@U__SPAWNREGION@CEventLua@@@std@@YAXPAU__SPAWNREGION@CEventLua@@@Z
_TEXT	SEGMENT PARA USE32 PUBLIC 'CODE'
_TEXT	ENDS
;	COMDAT ??$_Destroy@UD3DXVECTOR3@@@std@@YAXPAUD3DXVECTOR3@@@Z
_TEXT	SEGMENT PARA USE32 PUBLIC 'CODE'
_TEXT	ENDS
;	COMDAT ??$_Destroy@U_GIFTBOX@@@std@@YAXPAU_GIFTBOX@@@Z
_TEXT	SEGMENT PARA USE32 PUBLIC 'CODE'
_TEXT	ENDS
;	COMDAT ?construct@?$allocator@V?$basic_string@DU?$char_traits@D@std@@V?$allocator@D@2@@std@@@std@@QAEXPAV?$basic_string@DU?$char_traits@D@std@@V?$allocator@D@2@@2@ABV32@@Z
_TEXT	SEGMENT PARA USE32 PUBLIC 'CODE'
_TEXT	ENDS
;	COMDAT ?destroy@?$allocator@V?$basic_string@DU?$char_traits@D@std@@V?$allocator@D@2@@std@@@std@@QAEXPAV?$basic_string@DU?$char_traits@D@std@@V?$allocator@D@2@@2@@Z
_TEXT	SEGMENT PARA USE32 PUBLIC 'CODE'
_TEXT	ENDS
;	COMDAT ?construct@?$allocator@E@std@@QAEXPAEABE@Z
_TEXT	SEGMENT PARA USE32 PUBLIC 'CODE'
_TEXT	ENDS
;	COMDAT ?destroy@?$allocator@E@std@@QAEXPAE@Z
_TEXT	SEGMENT PARA USE32 PUBLIC 'CODE'
_TEXT	ENDS
;	COMDAT ??Dconst_iterator@?$vector@EV?$allocator@E@std@@@std@@QBEABEXZ
_TEXT	SEGMENT PARA USE32 PUBLIC 'CODE'
_TEXT	ENDS
;	COMDAT ??Econst_iterator@?$vector@EV?$allocator@E@std@@@std@@QAEAAV012@XZ
_TEXT	SEGMENT PARA USE32 PUBLIC 'CODE'
_TEXT	ENDS
;	COMDAT ?destroy@?$allocator@U__SECRETROOM_MONSTER@@@std@@QAEXPAU__SECRETROOM_MONSTER@@@Z
_TEXT	SEGMENT PARA USE32 PUBLIC 'CODE'
_TEXT	ENDS
;	COMDAT ?construct@?$allocator@UMINIGMAME_PRIZE_LIST@CRainbowRaceMng@@@std@@QAEXPAUMINIGMAME_PRIZE_LIST@CRainbowRaceMng@@ABU34@@Z
_TEXT	SEGMENT PARA USE32 PUBLIC 'CODE'
_TEXT	ENDS
;	COMDAT ?destroy@?$allocator@UMINIGMAME_PRIZE_LIST@CRainbowRaceMng@@@std@@QAEXPAUMINIGMAME_PRIZE_LIST@CRainbowRaceMng@@@Z
_TEXT	SEGMENT PARA USE32 PUBLIC 'CODE'
_TEXT	ENDS
;	COMDAT ??$_Insert@Vconst_iterator@?$vector@EV?$allocator@E@std@@@std@@@?$vector@EV?$allocator@E@std@@@std@@QAEXViterator@01@Vconst_iterator@01@1Uforward_iterator_tag@1@@Z
_TEXT	SEGMENT PARA USE32 PUBLIC 'CODE'
_TEXT	ENDS
;	COMDAT ??$fill_n@PAPAVCObj@@IPAV1@@std@@YAXPAPAVCObj@@IABQAV1@@Z
_TEXT	SEGMENT PARA USE32 PUBLIC 'CODE'
_TEXT	ENDS
;	COMDAT ??$_Uninit_copy@PAVCObj@@PAV1@@std@@YAPAPAVCObj@@PAPAV1@00AAV?$allocator@PAVCObj@@@0@U_Scalar_ptr_iterator_tag@0@@Z
_TEXT	SEGMENT PARA USE32 PUBLIC 'CODE'
_TEXT	ENDS
;	COMDAT ??$_Uninit_copy@PAV?$basic_string@DU?$char_traits@D@std@@V?$allocator@D@2@@std@@PAV12@V?$allocator@V?$basic_string@DU?$char_traits@D@std@@V?$allocator@D@2@@std@@@2@@std@@YAPAV?$basic_string@DU?$char_traits@D@std@@V?$allocator@D@2@@0@PAV10@00AAV?$allocator@V?$basic_string@DU?$char_traits@D@std@@V?$allocator@D@2@@std@@@0@U_Nonscalar_ptr_iterator_tag@0@@Z
_TEXT	SEGMENT PARA USE32 PUBLIC 'CODE'
_TEXT	ENDS
;	COMDAT ??$_Uninit_copy@PAUMINIGMAME_PRIZE_LIST@CRainbowRaceMng@@PAU12@V?$allocator@UMINIGMAME_PRIZE_LIST@CRainbowRaceMng@@@std@@@std@@YAPAUMINIGMAME_PRIZE_LIST@CRainbowRaceMng@@PAU12@00AAV?$allocator@UMINIGMAME_PRIZE_LIST@CRainbowRaceMng@@@0@U_Nonscalar_ptr_iterator_tag@0@@Z
_TEXT	SEGMENT PARA USE32 PUBLIC 'CODE'
_TEXT	ENDS
;	COMDAT ??$_Copy_opt@PAEPAE@std@@YAPAEPAE00U_Scalar_ptr_iterator_tag@0@@Z
_TEXT	SEGMENT PARA USE32 PUBLIC 'CODE'
_TEXT	ENDS
;	COMDAT ??$_Construct@V?$basic_string@DU?$char_traits@D@std@@V?$allocator@D@2@@std@@V12@@std@@YAXPAV?$basic_string@DU?$char_traits@D@std@@V?$allocator@D@2@@0@ABV10@@Z
_TEXT	SEGMENT PARA USE32 PUBLIC 'CODE'
_TEXT	ENDS
;	COMDAT ??$_Destroy@V?$basic_string@DU?$char_traits@D@std@@V?$allocator@D@2@@std@@@std@@YAXPAV?$basic_string@DU?$char_traits@D@std@@V?$allocator@D@2@@0@@Z
_TEXT	SEGMENT PARA USE32 PUBLIC 'CODE'
_TEXT	ENDS
;	COMDAT ??$_Construct@EE@std@@YAXPAEABE@Z
_TEXT	SEGMENT PARA USE32 PUBLIC 'CODE'
_TEXT	ENDS
;	COMDAT ??$_Destroy@E@std@@YAXPAE@Z
_TEXT	SEGMENT PARA USE32 PUBLIC 'CODE'
_TEXT	ENDS
;	COMDAT ??$_Destroy@U__SECRETROOM_MONSTER@@@std@@YAXPAU__SECRETROOM_MONSTER@@@Z
_TEXT	SEGMENT PARA USE32 PUBLIC 'CODE'
_TEXT	ENDS
;	COMDAT ??$_Construct@UMINIGMAME_PRIZE_LIST@CRainbowRaceMng@@U12@@std@@YAXPAUMINIGMAME_PRIZE_LIST@CRainbowRaceMng@@ABU12@@Z
_TEXT	SEGMENT PARA USE32 PUBLIC 'CODE'
_TEXT	ENDS
;	COMDAT ??$_Destroy@UMINIGMAME_PRIZE_LIST@CRainbowRaceMng@@@std@@YAXPAUMINIGMAME_PRIZE_LIST@CRainbowRaceMng@@@Z
_TEXT	SEGMENT PARA USE32 PUBLIC 'CODE'
_TEXT	ENDS
;	COMDAT ??_G?$basic_string@DU?$char_traits@D@std@@V?$allocator@D@2@@std@@QAEPAXI@Z
_TEXT	SEGMENT PARA USE32 PUBLIC 'CODE'
_TEXT	ENDS
;	COMDAT ?capacity@?$vector@EV?$allocator@E@std@@@std@@QBEIXZ
_TEXT	SEGMENT PARA USE32 PUBLIC 'CODE'
_TEXT	ENDS
;	COMDAT ??Giterator@?$vector@EV?$allocator@E@std@@@std@@QBEHABVconst_iterator@12@@Z
_TEXT	SEGMENT PARA USE32 PUBLIC 'CODE'
_TEXT	ENDS
;	COMDAT ??Gconst_iterator@?$vector@EV?$allocator@E@std@@@std@@QBEHABV012@@Z
_TEXT	SEGMENT PARA USE32 PUBLIC 'CODE'
_TEXT	ENDS
;	COMDAT ??$_Distance@Vconst_iterator@?$vector@EV?$allocator@E@std@@@std@@I@std@@YAXVconst_iterator@?$vector@EV?$allocator@E@std@@@0@0AAI@Z
_TEXT	SEGMENT PARA USE32 PUBLIC 'CODE'
_TEXT	ENDS
;	COMDAT ??$_Ucopy@PAE@?$vector@EV?$allocator@E@std@@@std@@IAEPAEPAE00@Z
_TEXT	SEGMENT PARA USE32 PUBLIC 'CODE'
_TEXT	ENDS
;	COMDAT ??$advance@Vconst_iterator@?$vector@EV?$allocator@E@std@@@std@@H@std@@YAXAAVconst_iterator@?$vector@EV?$allocator@E@std@@@0@H@Z
_TEXT	SEGMENT PARA USE32 PUBLIC 'CODE'
_TEXT	ENDS
;	COMDAT ??$copy@Vconst_iterator@?$vector@EV?$allocator@E@std@@@std@@PAE@std@@YAPAEVconst_iterator@?$vector@EV?$allocator@E@std@@@0@0PAE@Z
_TEXT	SEGMENT PARA USE32 PUBLIC 'CODE'
_TEXT	ENDS
;	COMDAT ??$copy_backward@PAEPAE@std@@YAPAEPAE00@Z
_TEXT	SEGMENT PARA USE32 PUBLIC 'CODE'
_TEXT	ENDS
;	COMDAT ??$_Distance2@Vconst_iterator@?$vector@EV?$allocator@E@std@@@std@@I@std@@YAXVconst_iterator@?$vector@EV?$allocator@E@std@@@0@0AAIUrandom_access_iterator_tag@0@@Z
_TEXT	SEGMENT PARA USE32 PUBLIC 'CODE'
_TEXT	ENDS
;	COMDAT ??$_Uninitialized_copy@PAEPAEV?$allocator@E@std@@@std@@YAPAEPAE00AAV?$allocator@E@0@@Z
_TEXT	SEGMENT PARA USE32 PUBLIC 'CODE'
_TEXT	ENDS
;	COMDAT ??$_Advance@Vconst_iterator@?$vector@EV?$allocator@E@std@@@std@@H@std@@YAXAAVconst_iterator@?$vector@EV?$allocator@E@std@@@0@HUrandom_access_iterator_tag@0@@Z
_TEXT	SEGMENT PARA USE32 PUBLIC 'CODE'
_TEXT	ENDS
;	COMDAT ??$_Copy_opt@Vconst_iterator@?$vector@EV?$allocator@E@std@@@std@@PAE@std@@YAPAEVconst_iterator@?$vector@EV?$allocator@E@std@@@0@0PAEU_Nonscalar_ptr_iterator_tag@0@@Z
_TEXT	SEGMENT PARA USE32 PUBLIC 'CODE'
_TEXT	ENDS
;	COMDAT ??$_Copy_backward_opt@PAEPAE@std@@YAPAEPAE00U_Scalar_ptr_iterator_tag@0@@Z
_TEXT	SEGMENT PARA USE32 PUBLIC 'CODE'
_TEXT	ENDS
;	COMDAT ??Yconst_iterator@?$vector@EV?$allocator@E@std@@@std@@QAEAAV012@H@Z
_TEXT	SEGMENT PARA USE32 PUBLIC 'CODE'
_TEXT	ENDS
;	COMDAT ??$_Uninit_copy@EE@std@@YAPAEPAE00AAV?$allocator@E@0@U_Scalar_ptr_iterator_tag@0@@Z
_TEXT	SEGMENT PARA USE32 PUBLIC 'CODE'
_TEXT	ENDS
;	COMDAT ?deallocate@?$allocator@E@std@@QAEXPAEI@Z
_TEXT	SEGMENT PARA USE32 PUBLIC 'CODE'
_TEXT	ENDS
;	COMDAT ??$_Ucopy@Vconst_iterator@?$vector@EV?$allocator@E@std@@@std@@@?$vector@EV?$allocator@E@std@@@std@@IAEPAEVconst_iterator@01@0PAE@Z
_TEXT	SEGMENT PARA USE32 PUBLIC 'CODE'
_TEXT	ENDS
;	COMDAT ?allocate@?$allocator@E@std@@QAEPAEI@Z
_TEXT	SEGMENT PARA USE32 PUBLIC 'CODE'
_TEXT	ENDS
;	COMDAT ??$_Allocate@E@std@@YAPAEIPAE@Z
_TEXT	SEGMENT PARA USE32 PUBLIC 'CODE'
_TEXT	ENDS
;	COMDAT ?_Xlen@?$vector@EV?$allocator@E@std@@@std@@IBEXXZ
_TEXT	SEGMENT PARA USE32 PUBLIC 'CODE'
_TEXT	ENDS
;	COMDAT ?size@?$vector@EV?$allocator@E@std@@@std@@QBEIXZ
_TEXT	SEGMENT PARA USE32 PUBLIC 'CODE'
_TEXT	ENDS
;	COMDAT ?max_size@?$vector@EV?$allocator@E@std@@@std@@QBEIXZ
_TEXT	SEGMENT PARA USE32 PUBLIC 'CODE'
_TEXT	ENDS
;	COMDAT ?max_size@?$allocator@E@std@@QBEIXZ
_TEXT	SEGMENT PARA USE32 PUBLIC 'CODE'
_TEXT	ENDS
;	COMDAT ?_Ptr_cat@std@@YA?AU_Scalar_ptr_iterator_tag@1@PAE0@Z
_TEXT	SEGMENT PARA USE32 PUBLIC 'CODE'
_TEXT	ENDS
;	COMDAT ??0const_iterator@?$vector@EV?$allocator@E@std@@@std@@QAE@PAE@Z
_TEXT	SEGMENT PARA USE32 PUBLIC 'CODE'
_TEXT	ENDS
;	COMDAT ?_Destroy@?$vector@EV?$allocator@E@std@@@std@@IAEXPAE0@Z
_TEXT	SEGMENT PARA USE32 PUBLIC 'CODE'
_TEXT	ENDS
;	COMDAT ??$_Destroy_range@EV?$allocator@E@std@@@std@@YAXPAE0AAV?$allocator@E@0@@Z
_TEXT	SEGMENT PARA USE32 PUBLIC 'CODE'
_TEXT	ENDS
;	COMDAT ??4?$basic_string@DU?$char_traits@D@std@@V?$allocator@D@2@@std@@QAEAAV01@ABV01@@Z
_TEXT	SEGMENT PARA USE32 PUBLIC 'CODE'
_TEXT	ENDS
;	COMDAT ?assign@?$basic_string@DU?$char_traits@D@std@@V?$allocator@D@2@@std@@QAEAAV12@ABV12@@Z
_TEXT	SEGMENT PARA USE32 PUBLIC 'CODE'
_TEXT	ENDS
;	COMDAT ?assign@?$basic_string@DU?$char_traits@D@std@@V?$allocator@D@2@@std@@QAEAAV12@ABV12@II@Z
_TEXT	SEGMENT PARA USE32 PUBLIC 'CODE'
_TEXT	ENDS
;	COMDAT ?erase@?$basic_string@DU?$char_traits@D@std@@V?$allocator@D@2@@std@@QAEAAV12@II@Z
_TEXT	SEGMENT PARA USE32 PUBLIC 'CODE'
_TEXT	ENDS
;	COMDAT ?move@?$char_traits@D@std@@SAPADPADPBDI@Z
_TEXT	SEGMENT PARA USE32 PUBLIC 'CODE'
_TEXT	ENDS
;	COMDAT ?_Grow@?$basic_string@DU?$char_traits@D@std@@V?$allocator@D@2@@std@@IAE_NI_N@Z
_TEXT	SEGMENT PARA USE32 PUBLIC 'CODE'
_TEXT	ENDS
;	COMDAT ?max_size@?$basic_string@DU?$char_traits@D@std@@V?$allocator@D@2@@std@@QBEIXZ
_TEXT	SEGMENT PARA USE32 PUBLIC 'CODE'
_TEXT	ENDS
;	COMDAT ?max_size@?$allocator@D@std@@QBEIXZ
_TEXT	SEGMENT PARA USE32 PUBLIC 'CODE'
_TEXT	ENDS
;	COMDAT ?_Copy@?$basic_string@DU?$char_traits@D@std@@V?$allocator@D@2@@std@@IAEXII@Z
_TEXT	SEGMENT PARA USE32 PUBLIC 'CODE'
_TEXT	ENDS
;	COMDAT ?allocate@?$allocator@D@std@@QAEPADI@Z
_TEXT	SEGMENT PARA USE32 PUBLIC 'CODE'
_TEXT	ENDS
;	COMDAT ??$_Allocate@D@std@@YAPADIPAD@Z
_TEXT	SEGMENT PARA USE32 PUBLIC 'CODE'
_TEXT	ENDS
;	COMDAT ?_Tidy@?$basic_string@DU?$char_traits@D@std@@V?$allocator@D@2@@std@@IAEX_NI@Z
_TEXT	SEGMENT PARA USE32 PUBLIC 'CODE'
_TEXT	ENDS
;	COMDAT ?deallocate@?$allocator@D@std@@QAEXPADI@Z
_TEXT	SEGMENT PARA USE32 PUBLIC 'CODE'
_TEXT	ENDS
;	COMDAT ?copy@?$char_traits@D@std@@SAPADPADPBDI@Z
_TEXT	SEGMENT PARA USE32 PUBLIC 'CODE'
_TEXT	ENDS
;	COMDAT ?_Myptr@?$basic_string@DU?$char_traits@D@std@@V?$allocator@D@2@@std@@QAEPADXZ
_TEXT	SEGMENT PARA USE32 PUBLIC 'CODE'
_TEXT	ENDS
;	COMDAT ?_Eos@?$basic_string@DU?$char_traits@D@std@@V?$allocator@D@2@@std@@IAEXI@Z
_TEXT	SEGMENT PARA USE32 PUBLIC 'CODE'
_TEXT	ENDS
;	COMDAT ?assign@?$char_traits@D@std@@SAXAADABD@Z
_TEXT	SEGMENT PARA USE32 PUBLIC 'CODE'
_TEXT	ENDS
;	COMDAT ?npos@?$basic_string@DU?$char_traits@D@std@@V?$allocator@D@2@@std@@2IB
CONST	SEGMENT DWORD USE32 PUBLIC 'CONST'
CONST	ENDS
;	COMDAT ??_7?$CFixedArray@UtagWORLD@@@@6B@
CONST	SEGMENT DWORD USE32 PUBLIC 'CONST'
CONST	ENDS
;	COMDAT ?_Ptr_cat@std@@YA?AU_Scalar_ptr_iterator_tag@1@PAJ0@Z
_TEXT	SEGMENT PARA USE32 PUBLIC 'CODE'
_TEXT	ENDS
;	COMDAT ??9const_iterator@?$_Tree@V?$_Tmap_traits@KEU?$less@K@std@@V?$allocator@U?$pair@$$CBKE@std@@@2@$0A@@std@@@std@@QBE_NABV012@@Z
_TEXT	SEGMENT PARA USE32 PUBLIC 'CODE'
_TEXT	ENDS
;	COMDAT ??8const_iterator@?$_Tree@V?$_Tmap_traits@KEU?$less@K@std@@V?$allocator@U?$pair@$$CBKE@std@@@2@$0A@@std@@@std@@QBE_NABV012@@Z
_TEXT	SEGMENT PARA USE32 PUBLIC 'CODE'
_TEXT	ENDS
;	COMDAT ??Eiterator@?$_Tree@V?$_Tmap_traits@KEU?$less@K@std@@V?$allocator@U?$pair@$$CBKE@std@@@2@$0A@@std@@@std@@QAEAAV012@XZ
_TEXT	SEGMENT PARA USE32 PUBLIC 'CODE'
_TEXT	ENDS
;	COMDAT ??Econst_iterator@?$_Tree@V?$_Tmap_traits@KEU?$less@K@std@@V?$allocator@U?$pair@$$CBKE@std@@@2@$0A@@std@@@std@@QAEAAV012@XZ
_TEXT	SEGMENT PARA USE32 PUBLIC 'CODE'
_TEXT	ENDS
;	COMDAT ?_Inc@const_iterator@?$_Tree@V?$_Tmap_traits@KEU?$less@K@std@@V?$allocator@U?$pair@$$CBKE@std@@@2@$0A@@std@@@std@@QAEXXZ
_TEXT	SEGMENT PARA USE32 PUBLIC 'CODE'
_TEXT	ENDS
;	COMDAT ?_Min@?$_Tree@V?$_Tmap_traits@KEU?$less@K@std@@V?$allocator@U?$pair@$$CBKE@std@@@2@$0A@@std@@@std@@KAPAU_Node@?$_Tree_nod@V?$_Tmap_traits@KEU?$less@K@std@@V?$allocator@U?$pair@$$CBKE@std@@@2@$0A@@std@@@2@PAU342@@Z
_TEXT	SEGMENT PARA USE32 PUBLIC 'CODE'
_TEXT	ENDS
;	COMDAT ?_Left@?$_Tree@V?$_Tmap_traits@KEU?$less@K@std@@V?$allocator@U?$pair@$$CBKE@std@@@2@$0A@@std@@@std@@KAAAPAU_Node@?$_Tree_nod@V?$_Tmap_traits@KEU?$less@K@std@@V?$allocator@U?$pair@$$CBKE@std@@@2@$0A@@std@@@2@PAU342@@Z
_TEXT	SEGMENT PARA USE32 PUBLIC 'CODE'
_TEXT	ENDS
;	COMDAT ?_Isnil@?$_Tree@V?$_Tmap_traits@KEU?$less@K@std@@V?$allocator@U?$pair@$$CBKE@std@@@2@$0A@@std@@@std@@KAAADPAU_Node@?$_Tree_nod@V?$_Tmap_traits@KEU?$less@K@std@@V?$allocator@U?$pair@$$CBKE@std@@@2@$0A@@std@@@2@@Z
_TEXT	SEGMENT PARA USE32 PUBLIC 'CODE'
_TEXT	ENDS
;	COMDAT ?_Parent@?$_Tree@V?$_Tmap_traits@KEU?$less@K@std@@V?$allocator@U?$pair@$$CBKE@std@@@2@$0A@@std@@@std@@KAAAPAU_Node@?$_Tree_nod@V?$_Tmap_traits@KEU?$less@K@std@@V?$allocator@U?$pair@$$CBKE@std@@@2@$0A@@std@@@2@PAU342@@Z
_TEXT	SEGMENT PARA USE32 PUBLIC 'CODE'
_TEXT	ENDS
;	COMDAT ?_Right@?$_Tree@V?$_Tmap_traits@KEU?$less@K@std@@V?$allocator@U?$pair@$$CBKE@std@@@2@$0A@@std@@@std@@KAAAPAU_Node@?$_Tree_nod@V?$_Tmap_traits@KEU?$less@K@std@@V?$allocator@U?$pair@$$CBKE@std@@@2@$0A@@std@@@2@PAU342@@Z
_TEXT	SEGMENT PARA USE32 PUBLIC 'CODE'
_TEXT	ENDS
;	COMDAT ??9const_iterator@?$_Tree@V?$_Tmap_traits@KPAVCCtrl@@U?$less@K@std@@V?$allocator@U?$pair@$$CBKPAVCCtrl@@@std@@@3@$0A@@std@@@std@@QBE_NABV012@@Z
_TEXT	SEGMENT PARA USE32 PUBLIC 'CODE'
_TEXT	ENDS
;	COMDAT ??9const_iterator@?$_Tree@V?$_Tmap_traits@KPAVCUser@@U?$less@K@std@@V?$allocator@U?$pair@$$CBKPAVCUser@@@std@@@3@$0A@@std@@@std@@QBE_NABV012@@Z
_TEXT	SEGMENT PARA USE32 PUBLIC 'CODE'
_TEXT	ENDS
;	COMDAT ??8const_iterator@?$_Tree@V?$_Tmap_traits@KPAVCUser@@U?$less@K@std@@V?$allocator@U?$pair@$$CBKPAVCUser@@@std@@@3@$0A@@std@@@std@@QBE_NABV012@@Z
_TEXT	SEGMENT PARA USE32 PUBLIC 'CODE'
_TEXT	ENDS
;	COMDAT ??Eiterator@?$_Tree@V?$_Tmap_traits@KPAVCUser@@U?$less@K@std@@V?$allocator@U?$pair@$$CBKPAVCUser@@@std@@@3@$0A@@std@@@std@@QAEAAV012@XZ
_TEXT	SEGMENT PARA USE32 PUBLIC 'CODE'
_TEXT	ENDS
;	COMDAT ??Econst_iterator@?$_Tree@V?$_Tmap_traits@KPAVCUser@@U?$less@K@std@@V?$allocator@U?$pair@$$CBKPAVCUser@@@std@@@3@$0A@@std@@@std@@QAEAAV012@XZ
_TEXT	SEGMENT PARA USE32 PUBLIC 'CODE'
_TEXT	ENDS
;	COMDAT ?_Inc@const_iterator@?$_Tree@V?$_Tmap_traits@KPAVCUser@@U?$less@K@std@@V?$allocator@U?$pair@$$CBKPAVCUser@@@std@@@3@$0A@@std@@@std@@QAEXXZ
_TEXT	SEGMENT PARA USE32 PUBLIC 'CODE'
_TEXT	ENDS
;	COMDAT ?_Min@?$_Tree@V?$_Tmap_traits@KPAVCUser@@U?$less@K@std@@V?$allocator@U?$pair@$$CBKPAVCUser@@@std@@@3@$0A@@std@@@std@@KAPAU_Node@?$_Tree_nod@V?$_Tmap_traits@KPAVCUser@@U?$less@K@std@@V?$allocator@U?$pair@$$CBKPAVCUser@@@std@@@3@$0A@@std@@@2@PAU342@@Z
_TEXT	SEGMENT PARA USE32 PUBLIC 'CODE'
_TEXT	ENDS
;	COMDAT ?_Left@?$_Tree@V?$_Tmap_traits@KPAVCUser@@U?$less@K@std@@V?$allocator@U?$pair@$$CBKPAVCUser@@@std@@@3@$0A@@std@@@std@@KAAAPAU_Node@?$_Tree_nod@V?$_Tmap_traits@KPAVCUser@@U?$less@K@std@@V?$allocator@U?$pair@$$CBKPAVCUser@@@std@@@3@$0A@@std@@@2@PAU342@@Z
_TEXT	SEGMENT PARA USE32 PUBLIC 'CODE'
_TEXT	ENDS
;	COMDAT ?_Isnil@?$_Tree@V?$_Tmap_traits@KPAVCUser@@U?$less@K@std@@V?$allocator@U?$pair@$$CBKPAVCUser@@@std@@@3@$0A@@std@@@std@@KAAADPAU_Node@?$_Tree_nod@V?$_Tmap_traits@KPAVCUser@@U?$less@K@std@@V?$allocator@U?$pair@$$CBKPAVCUser@@@std@@@3@$0A@@std@@@2@@Z
_TEXT	SEGMENT PARA USE32 PUBLIC 'CODE'
_TEXT	ENDS
;	COMDAT ?_Parent@?$_Tree@V?$_Tmap_traits@KPAVCUser@@U?$less@K@std@@V?$allocator@U?$pair@$$CBKPAVCUser@@@std@@@3@$0A@@std@@@std@@KAAAPAU_Node@?$_Tree_nod@V?$_Tmap_traits@KPAVCUser@@U?$less@K@std@@V?$allocator@U?$pair@$$CBKPAVCUser@@@std@@@3@$0A@@std@@@2@PAU342@@Z
_TEXT	SEGMENT PARA USE32 PUBLIC 'CODE'
_TEXT	ENDS
;	COMDAT ?_Right@?$_Tree@V?$_Tmap_traits@KPAVCUser@@U?$less@K@std@@V?$allocator@U?$pair@$$CBKPAVCUser@@@std@@@3@$0A@@std@@@std@@KAAAPAU_Node@?$_Tree_nod@V?$_Tmap_traits@KPAVCUser@@U?$less@K@std@@V?$allocator@U?$pair@$$CBKPAVCUser@@@std@@@3@$0A@@std@@@2@PAU342@@Z
_TEXT	SEGMENT PARA USE32 PUBLIC 'CODE'
_TEXT	ENDS
;	COMDAT ?_Psave@?$_Facetptr@V?$ctype@G@std@@@std@@2PBVfacet@locale@2@B
_DATA	SEGMENT DWORD USE32 PUBLIC 'DATA'
_DATA	ENDS
;	COMDAT ?_Psave@?$_Facetptr@V?$ctype@D@std@@@std@@2PBVfacet@locale@2@B
_DATA	SEGMENT DWORD USE32 PUBLIC 'DATA'
_DATA	ENDS
;	COMDAT ??3@YAXPAX0@Z
_TEXT	SEGMENT PARA USE32 PUBLIC 'CODE'
_TEXT	ENDS
;	COMDAT ??2@YAPAXIPAX@Z
_TEXT	SEGMENT PARA USE32 PUBLIC 'CODE'
_TEXT	ENDS
;	COMDAT ??0?$basic_string@DU?$char_traits@D@std@@V?$allocator@D@2@@std@@QAE@ABV01@@Z
_TEXT	SEGMENT PARA USE32 PUBLIC 'CODE'
_TEXT	ENDS
;	COMDAT ??0?$_String_val@DV?$allocator@D@std@@@std@@IAE@V?$allocator@D@1@@Z
_TEXT	SEGMENT PARA USE32 PUBLIC 'CODE'
_TEXT	ENDS
;	COMDAT ??0?$allocator@D@std@@QAE@ABV01@@Z
_TEXT	SEGMENT PARA USE32 PUBLIC 'CODE'
_TEXT	ENDS
;	COMDAT ??_C@_0BD@OLBABOEK@vector?$DMT?$DO?5too?5long?$AA@
CONST	SEGMENT DWORD USE32 PUBLIC 'CONST'
CONST	ENDS
;	COMDAT ??$swap@D@std@@YAXAAD0@Z
_TEXT	SEGMENT PARA USE32 PUBLIC 'CODE'
_TEXT	ENDS
;	COMDAT __TI3?AVout_of_range@std@@
xdata$x	SEGMENT DWORD USE32 PUBLIC 'CONST'
xdata$x	ENDS
;	COMDAT ??1out_of_range@std@@UAE@XZ
_TEXT	SEGMENT PARA USE32 PUBLIC 'CODE'
_TEXT	ENDS
;	COMDAT ??_7out_of_range@std@@6B@
CONST	SEGMENT DWORD USE32 PUBLIC 'CONST'
CONST	ENDS
;	COMDAT ??_Gout_of_range@std@@UAEPAXI@Z
_TEXT	SEGMENT PARA USE32 PUBLIC 'CODE'
_TEXT	ENDS
;	COMDAT ?what@logic_error@std@@UBEPBDXZ
_TEXT	SEGMENT PARA USE32 PUBLIC 'CODE'
_TEXT	ENDS
;	COMDAT ??1logic_error@std@@UAE@XZ
_TEXT	SEGMENT PARA USE32 PUBLIC 'CODE'
_TEXT	ENDS
;	COMDAT ??_7logic_error@std@@6B@
CONST	SEGMENT DWORD USE32 PUBLIC 'CONST'
CONST	ENDS
;	COMDAT ??_Glogic_error@std@@UAEPAXI@Z
_TEXT	SEGMENT PARA USE32 PUBLIC 'CODE'
_TEXT	ENDS
;	COMDAT __CTA3?AVout_of_range@std@@
xdata$x	SEGMENT DWORD USE32 PUBLIC 'CONST'
xdata$x	ENDS
;	COMDAT __CT??_R0?AVout_of_range@std@@@8??0out_of_range@std@@QAE@ABV01@@Z40
xdata$x	SEGMENT DWORD USE32 PUBLIC 'CONST'
xdata$x	ENDS
;	COMDAT ??_R0?AVout_of_range@std@@@8
_DATA	SEGMENT DWORD USE32 PUBLIC 'DATA'
_DATA	ENDS
;	COMDAT ??0out_of_range@std@@QAE@ABV01@@Z
_TEXT	SEGMENT PARA USE32 PUBLIC 'CODE'
_TEXT	ENDS
;	COMDAT ??0logic_error@std@@QAE@ABV01@@Z
_TEXT	SEGMENT PARA USE32 PUBLIC 'CODE'
_TEXT	ENDS
;	COMDAT __CT??_R0?AVlogic_error@std@@@8??0logic_error@std@@QAE@ABV01@@Z40
xdata$x	SEGMENT DWORD USE32 PUBLIC 'CONST'
xdata$x	ENDS
;	COMDAT ??_R0?AVlogic_error@std@@@8
_DATA	SEGMENT DWORD USE32 PUBLIC 'DATA'
_DATA	ENDS
;	COMDAT __CT??_R0?AVexception@@@8??0exception@@QAE@ABV0@@Z12
xdata$x	SEGMENT DWORD USE32 PUBLIC 'CONST'
xdata$x	ENDS
;	COMDAT ??_R0?AVexception@@@8
_DATA	SEGMENT DWORD USE32 PUBLIC 'DATA'
_DATA	ENDS
;	COMDAT ??_C@_0BM@PAPJHAGI@invalid?5map?1set?$DMT?$DO?5iterator?$AA@
CONST	SEGMENT DWORD USE32 PUBLIC 'CONST'
CONST	ENDS
;	COMDAT ??0out_of_range@std@@QAE@ABV?$basic_string@DU?$char_traits@D@std@@V?$allocator@D@2@@1@@Z
_TEXT	SEGMENT PARA USE32 PUBLIC 'CODE'
_TEXT	ENDS
;	COMDAT ??0logic_error@std@@QAE@ABV?$basic_string@DU?$char_traits@D@std@@V?$allocator@D@2@@1@@Z
_TEXT	SEGMENT PARA USE32 PUBLIC 'CODE'
_TEXT	ENDS
;	COMDAT __TI3?AVlength_error@std@@
xdata$x	SEGMENT DWORD USE32 PUBLIC 'CONST'
xdata$x	ENDS
;	COMDAT ??1length_error@std@@UAE@XZ
_TEXT	SEGMENT PARA USE32 PUBLIC 'CODE'
_TEXT	ENDS
;	COMDAT ??_7length_error@std@@6B@
CONST	SEGMENT DWORD USE32 PUBLIC 'CONST'
CONST	ENDS
;	COMDAT ??_Glength_error@std@@UAEPAXI@Z
_TEXT	SEGMENT PARA USE32 PUBLIC 'CODE'
_TEXT	ENDS
;	COMDAT __CTA3?AVlength_error@std@@
xdata$x	SEGMENT DWORD USE32 PUBLIC 'CONST'
xdata$x	ENDS
;	COMDAT __CT??_R0?AVlength_error@std@@@8??0length_error@std@@QAE@ABV01@@Z40
xdata$x	SEGMENT DWORD USE32 PUBLIC 'CONST'
xdata$x	ENDS
;	COMDAT ??_R0?AVlength_error@std@@@8
_DATA	SEGMENT DWORD USE32 PUBLIC 'DATA'
_DATA	ENDS
;	COMDAT ??0length_error@std@@QAE@ABV01@@Z
_TEXT	SEGMENT PARA USE32 PUBLIC 'CODE'
_TEXT	ENDS
;	COMDAT ??_C@_0BE@JONHPENG@map?1set?$DMT?$DO?5too?5long?$AA@
CONST	SEGMENT DWORD USE32 PUBLIC 'CONST'
CONST	ENDS
;	COMDAT ??0length_error@std@@QAE@ABV?$basic_string@DU?$char_traits@D@std@@V?$allocator@D@2@@1@@Z
_TEXT	SEGMENT PARA USE32 PUBLIC 'CODE'
_TEXT	ENDS
;	COMDAT ?insert@?$_Tree@V?$_Tmap_traits@KPAVCCtrl@@U?$less@K@std@@V?$allocator@U?$pair@$$CBKPAVCCtrl@@@std@@@3@$0A@@std@@@std@@QAE?AU?$pair@Viterator@?$_Tree@V?$_Tmap_traits@KPAVCCtrl@@U?$less@K@std@@V?$allocator@U?$pair@$$CBKPAVCCtrl@@@std@@@3@$0A@@std@@@std@@_N@2@ABU?$pair@$$CBKPAVCCtrl@@@2@@Z
_TEXT	SEGMENT PARA USE32 PUBLIC 'CODE'
_TEXT	ENDS
;	COMDAT ?_Root@?$_Tree@V?$_Tmap_traits@KPAVCCtrl@@U?$less@K@std@@V?$allocator@U?$pair@$$CBKPAVCCtrl@@@std@@@3@$0A@@std@@@std@@IAEAAPAU_Node@?$_Tree_nod@V?$_Tmap_traits@KPAVCCtrl@@U?$less@K@std@@V?$allocator@U?$pair@$$CBKPAVCCtrl@@@std@@@3@$0A@@std@@@2@XZ
_TEXT	SEGMENT PARA USE32 PUBLIC 'CODE'
_TEXT	ENDS
;	COMDAT ?_Parent@?$_Tree@V?$_Tmap_traits@KPAVCCtrl@@U?$less@K@std@@V?$allocator@U?$pair@$$CBKPAVCCtrl@@@std@@@3@$0A@@std@@@std@@KAAAPAU_Node@?$_Tree_nod@V?$_Tmap_traits@KPAVCCtrl@@U?$less@K@std@@V?$allocator@U?$pair@$$CBKPAVCCtrl@@@std@@@3@$0A@@std@@@2@PAU342@@Z
_TEXT	SEGMENT PARA USE32 PUBLIC 'CODE'
_TEXT	ENDS
;	COMDAT ?_Left@?$_Tree@V?$_Tmap_traits@KPAVCCtrl@@U?$less@K@std@@V?$allocator@U?$pair@$$CBKPAVCCtrl@@@std@@@3@$0A@@std@@@std@@KAAAPAU_Node@?$_Tree_nod@V?$_Tmap_traits@KPAVCCtrl@@U?$less@K@std@@V?$allocator@U?$pair@$$CBKPAVCCtrl@@@std@@@3@$0A@@std@@@2@PAU342@@Z
_TEXT	SEGMENT PARA USE32 PUBLIC 'CODE'
_TEXT	ENDS
;	COMDAT ??0iterator@?$_Tree@V?$_Tmap_traits@KPAVCCtrl@@U?$less@K@std@@V?$allocator@U?$pair@$$CBKPAVCCtrl@@@std@@@3@$0A@@std@@@std@@QAE@PAU_Node@?$_Tree_nod@V?$_Tmap_traits@KPAVCCtrl@@U?$less@K@std@@V?$allocator@U?$pair@$$CBKPAVCCtrl@@@std@@@3@$0A@@std@@@2@@Z
_TEXT	SEGMENT PARA USE32 PUBLIC 'CODE'
_TEXT	ENDS
;	COMDAT ??0const_iterator@?$_Tree@V?$_Tmap_traits@KPAVCCtrl@@U?$less@K@std@@V?$allocator@U?$pair@$$CBKPAVCCtrl@@@std@@@3@$0A@@std@@@std@@QAE@PAU_Node@?$_Tree_nod@V?$_Tmap_traits@KPAVCCtrl@@U?$less@K@std@@V?$allocator@U?$pair@$$CBKPAVCCtrl@@@std@@@3@$0A@@std@@@2@@Z
_TEXT	SEGMENT PARA USE32 PUBLIC 'CODE'
_TEXT	ENDS
;	COMDAT ??0?$pair@Viterator@?$_Tree@V?$_Tmap_traits@KPAVCCtrl@@U?$less@K@std@@V?$allocator@U?$pair@$$CBKPAVCCtrl@@@std@@@3@$0A@@std@@@std@@_N@std@@QAE@ABViterator@?$_Tree@V?$_Tmap_traits@KPAVCCtrl@@U?$less@K@std@@V?$allocator@U?$pair@$$CBKPAVCCtrl@@@std@@@3@$0A@@std@@@1@AB_N@Z
_TEXT	SEGMENT PARA USE32 PUBLIC 'CODE'
_TEXT	ENDS
;	COMDAT ??Eiterator@?$_Tree@V?$_Tmap_traits@KPAVCCtrl@@U?$less@K@std@@V?$allocator@U?$pair@$$CBKPAVCCtrl@@@std@@@3@$0A@@std@@@std@@QAEAAV012@XZ
_TEXT	SEGMENT PARA USE32 PUBLIC 'CODE'
_TEXT	ENDS
;	COMDAT ??Econst_iterator@?$_Tree@V?$_Tmap_traits@KPAVCCtrl@@U?$less@K@std@@V?$allocator@U?$pair@$$CBKPAVCCtrl@@@std@@@3@$0A@@std@@@std@@QAEAAV012@XZ
_TEXT	SEGMENT PARA USE32 PUBLIC 'CODE'
_TEXT	ENDS
;	COMDAT ?_Inc@const_iterator@?$_Tree@V?$_Tmap_traits@KPAVCCtrl@@U?$less@K@std@@V?$allocator@U?$pair@$$CBKPAVCCtrl@@@std@@@3@$0A@@std@@@std@@QAEXXZ
_TEXT	SEGMENT PARA USE32 PUBLIC 'CODE'
_TEXT	ENDS
;	COMDAT ?_Min@?$_Tree@V?$_Tmap_traits@KPAVCCtrl@@U?$less@K@std@@V?$allocator@U?$pair@$$CBKPAVCCtrl@@@std@@@3@$0A@@std@@@std@@KAPAU_Node@?$_Tree_nod@V?$_Tmap_traits@KPAVCCtrl@@U?$less@K@std@@V?$allocator@U?$pair@$$CBKPAVCCtrl@@@std@@@3@$0A@@std@@@2@PAU342@@Z
_TEXT	SEGMENT PARA USE32 PUBLIC 'CODE'
_TEXT	ENDS
;	COMDAT ?_Right@?$_Tree@V?$_Tmap_traits@KPAVCCtrl@@U?$less@K@std@@V?$allocator@U?$pair@$$CBKPAVCCtrl@@@std@@@3@$0A@@std@@@std@@KAAAPAU_Node@?$_Tree_nod@V?$_Tmap_traits@KPAVCCtrl@@U?$less@K@std@@V?$allocator@U?$pair@$$CBKPAVCCtrl@@@std@@@3@$0A@@std@@@2@PAU342@@Z
_TEXT	SEGMENT PARA USE32 PUBLIC 'CODE'
_TEXT	ENDS
;	COMDAT ?_Isnil@?$_Tree@V?$_Tmap_traits@KPAVCCtrl@@U?$less@K@std@@V?$allocator@U?$pair@$$CBKPAVCCtrl@@@std@@@3@$0A@@std@@@std@@KAAADPAU_Node@?$_Tree_nod@V?$_Tmap_traits@KPAVCCtrl@@U?$less@K@std@@V?$allocator@U?$pair@$$CBKPAVCCtrl@@@std@@@3@$0A@@std@@@2@@Z
_TEXT	SEGMENT PARA USE32 PUBLIC 'CODE'
_TEXT	ENDS
;	COMDAT ??Fiterator@?$_Tree@V?$_Tmap_traits@KPAVCCtrl@@U?$less@K@std@@V?$allocator@U?$pair@$$CBKPAVCCtrl@@@std@@@3@$0A@@std@@@std@@QAEAAV012@XZ
_TEXT	SEGMENT PARA USE32 PUBLIC 'CODE'
_TEXT	ENDS
;	COMDAT ??Fconst_iterator@?$_Tree@V?$_Tmap_traits@KPAVCCtrl@@U?$less@K@std@@V?$allocator@U?$pair@$$CBKPAVCCtrl@@@std@@@3@$0A@@std@@@std@@QAEAAV012@XZ
_TEXT	SEGMENT PARA USE32 PUBLIC 'CODE'
_TEXT	ENDS
;	COMDAT ?_Dec@const_iterator@?$_Tree@V?$_Tmap_traits@KPAVCCtrl@@U?$less@K@std@@V?$allocator@U?$pair@$$CBKPAVCCtrl@@@std@@@3@$0A@@std@@@std@@QAEXXZ
_TEXT	SEGMENT PARA USE32 PUBLIC 'CODE'
_TEXT	ENDS
;	COMDAT ?_Max@?$_Tree@V?$_Tmap_traits@KPAVCCtrl@@U?$less@K@std@@V?$allocator@U?$pair@$$CBKPAVCCtrl@@@std@@@3@$0A@@std@@@std@@KAPAU_Node@?$_Tree_nod@V?$_Tmap_traits@KPAVCCtrl@@U?$less@K@std@@V?$allocator@U?$pair@$$CBKPAVCCtrl@@@std@@@3@$0A@@std@@@2@PAU342@@Z
_TEXT	SEGMENT PARA USE32 PUBLIC 'CODE'
_TEXT	ENDS
;	COMDAT ?_Rmost@?$_Tree@V?$_Tmap_traits@KPAVCCtrl@@U?$less@K@std@@V?$allocator@U?$pair@$$CBKPAVCCtrl@@@std@@@3@$0A@@std@@@std@@IAEAAPAU_Node@?$_Tree_nod@V?$_Tmap_traits@KPAVCCtrl@@U?$less@K@std@@V?$allocator@U?$pair@$$CBKPAVCCtrl@@@std@@@3@$0A@@std@@@2@XZ
_TEXT	SEGMENT PARA USE32 PUBLIC 'CODE'
_TEXT	ENDS
;	COMDAT ?_Kfn@?$_Tmap_traits@KPAVCCtrl@@U?$less@K@std@@V?$allocator@U?$pair@$$CBKPAVCCtrl@@@std@@@3@$0A@@std@@SAABKABU?$pair@$$CBKPAVCCtrl@@@2@@Z
_TEXT	SEGMENT PARA USE32 PUBLIC 'CODE'
_TEXT	ENDS
;	COMDAT ?begin@?$_Tree@V?$_Tmap_traits@KPAVCCtrl@@U?$less@K@std@@V?$allocator@U?$pair@$$CBKPAVCCtrl@@@std@@@3@$0A@@std@@@std@@QAE?AViterator@12@XZ
_TEXT	SEGMENT PARA USE32 PUBLIC 'CODE'
_TEXT	ENDS
;	COMDAT ?_Lmost@?$_Tree@V?$_Tmap_traits@KPAVCCtrl@@U?$less@K@std@@V?$allocator@U?$pair@$$CBKPAVCCtrl@@@std@@@3@$0A@@std@@@std@@IAEAAPAU_Node@?$_Tree_nod@V?$_Tmap_traits@KPAVCCtrl@@U?$less@K@std@@V?$allocator@U?$pair@$$CBKPAVCCtrl@@@std@@@3@$0A@@std@@@2@XZ
_TEXT	SEGMENT PARA USE32 PUBLIC 'CODE'
_TEXT	ENDS
;	COMDAT ?_Insert@?$_Tree@V?$_Tmap_traits@KPAVCCtrl@@U?$less@K@std@@V?$allocator@U?$pair@$$CBKPAVCCtrl@@@std@@@3@$0A@@std@@@std@@IAE?AViterator@12@_NPAU_Node@?$_Tree_nod@V?$_Tmap_traits@KPAVCCtrl@@U?$less@K@std@@V?$allocator@U?$pair@$$CBKPAVCCtrl@@@std@@@3@$0A@@std@@@2@ABU?$pair@$$CBKPAVCCtrl@@@2@@Z
_TEXT	SEGMENT PARA USE32 PUBLIC 'CODE'
_TEXT	ENDS
;	COMDAT ?max_size@?$_Tree@V?$_Tmap_traits@KPAVCCtrl@@U?$less@K@std@@V?$allocator@U?$pair@$$CBKPAVCCtrl@@@std@@@3@$0A@@std@@@std@@QBEIXZ
_TEXT	SEGMENT PARA USE32 PUBLIC 'CODE'
_TEXT	ENDS
;	COMDAT ?max_size@?$allocator@U?$pair@$$CBKPAVCCtrl@@@std@@@std@@QBEIXZ
_TEXT	SEGMENT PARA USE32 PUBLIC 'CODE'
_TEXT	ENDS
;	COMDAT ?_Buynode@?$_Tree@V?$_Tmap_traits@KPAVCCtrl@@U?$less@K@std@@V?$allocator@U?$pair@$$CBKPAVCCtrl@@@std@@@3@$0A@@std@@@std@@IAEPAU_Node@?$_Tree_nod@V?$_Tmap_traits@KPAVCCtrl@@U?$less@K@std@@V?$allocator@U?$pair@$$CBKPAVCCtrl@@@std@@@3@$0A@@std@@@2@PAU342@00ABU?$pair@$$CBKPAVCCtrl@@@2@D@Z
_TEXT	SEGMENT PARA USE32 PUBLIC 'CODE'
_TEXT	ENDS
;	COMDAT ?allocate@?$allocator@U_Node@?$_Tree_nod@V?$_Tmap_traits@KPAVCCtrl@@U?$less@K@std@@V?$allocator@U?$pair@$$CBKPAVCCtrl@@@std@@@3@$0A@@std@@@std@@@std@@QAEPAU_Node@?$_Tree_nod@V?$_Tmap_traits@KPAVCCtrl@@U?$less@K@std@@V?$allocator@U?$pair@$$CBKPAVCCtrl@@@std@@@3@$0A@@std@@@2@I@Z
_TEXT	SEGMENT PARA USE32 PUBLIC 'CODE'
_TEXT	ENDS
;	COMDAT ??$_Allocate@U_Node@?$_Tree_nod@V?$_Tmap_traits@KPAVCCtrl@@U?$less@K@std@@V?$allocator@U?$pair@$$CBKPAVCCtrl@@@std@@@3@$0A@@std@@@std@@@std@@YAPAU_Node@?$_Tree_nod@V?$_Tmap_traits@KPAVCCtrl@@U?$less@K@std@@V?$allocator@U?$pair@$$CBKPAVCCtrl@@@std@@@3@$0A@@std@@@0@IPAU120@@Z
_TEXT	SEGMENT PARA USE32 PUBLIC 'CODE'
_TEXT	ENDS
;	COMDAT ??0_Node@?$_Tree_nod@V?$_Tmap_traits@KPAVCCtrl@@U?$less@K@std@@V?$allocator@U?$pair@$$CBKPAVCCtrl@@@std@@@3@$0A@@std@@@std@@QAE@PAU012@00ABU?$pair@$$CBKPAVCCtrl@@@2@D@Z
_TEXT	SEGMENT PARA USE32 PUBLIC 'CODE'
_TEXT	ENDS
;	COMDAT ?deallocate@?$allocator@U_Node@?$_Tree_nod@V?$_Tmap_traits@KPAVCCtrl@@U?$less@K@std@@V?$allocator@U?$pair@$$CBKPAVCCtrl@@@std@@@3@$0A@@std@@@std@@@std@@QAEXPAU_Node@?$_Tree_nod@V?$_Tmap_traits@KPAVCCtrl@@U?$less@K@std@@V?$allocator@U?$pair@$$CBKPAVCCtrl@@@std@@@3@$0A@@std@@@2@I@Z
_TEXT	SEGMENT PARA USE32 PUBLIC 'CODE'
_TEXT	ENDS
;	COMDAT ?_Rrotate@?$_Tree@V?$_Tmap_traits@KPAVCCtrl@@U?$less@K@std@@V?$allocator@U?$pair@$$CBKPAVCCtrl@@@std@@@3@$0A@@std@@@std@@IAEXPAU_Node@?$_Tree_nod@V?$_Tmap_traits@KPAVCCtrl@@U?$less@K@std@@V?$allocator@U?$pair@$$CBKPAVCCtrl@@@std@@@3@$0A@@std@@@2@@Z
_TEXT	SEGMENT PARA USE32 PUBLIC 'CODE'
_TEXT	ENDS
;	COMDAT ?_Lrotate@?$_Tree@V?$_Tmap_traits@KPAVCCtrl@@U?$less@K@std@@V?$allocator@U?$pair@$$CBKPAVCCtrl@@@std@@@3@$0A@@std@@@std@@IAEXPAU_Node@?$_Tree_nod@V?$_Tmap_traits@KPAVCCtrl@@U?$less@K@std@@V?$allocator@U?$pair@$$CBKPAVCCtrl@@@std@@@3@$0A@@std@@@2@@Z
_TEXT	SEGMENT PARA USE32 PUBLIC 'CODE'
_TEXT	ENDS
;	COMDAT ?_Color@?$_Tree@V?$_Tmap_traits@KPAVCCtrl@@U?$less@K@std@@V?$allocator@U?$pair@$$CBKPAVCCtrl@@@std@@@3@$0A@@std@@@std@@KAAADPAU_Node@?$_Tree_nod@V?$_Tmap_traits@KPAVCCtrl@@U?$less@K@std@@V?$allocator@U?$pair@$$CBKPAVCCtrl@@@std@@@3@$0A@@std@@@2@@Z
_TEXT	SEGMENT PARA USE32 PUBLIC 'CODE'
_TEXT	ENDS
;	COMDAT ?compare@?$char_traits@D@std@@SAHPBD0I@Z
_TEXT	SEGMENT PARA USE32 PUBLIC 'CODE'
_TEXT	ENDS
;	COMDAT ?Fork@?$CSimpleStringT@D$0A@@ATL@@AAEXH@Z
_TEXT	SEGMENT PARA USE32 PUBLIC 'CODE'
_TEXT	ENDS
;	COMDAT ?ThrowMemoryException@?$CSimpleStringT@D$0A@@ATL@@KAXXZ
_TEXT	SEGMENT PARA USE32 PUBLIC 'CODE'
_TEXT	ENDS
;	COMDAT ?CopyChars@?$CSimpleStringT@D$0A@@ATL@@SAXPADPBDH@Z
_TEXT	SEGMENT PARA USE32 PUBLIC 'CODE'
_TEXT	ENDS
;	COMDAT ?data@CStringData@ATL@@QAEPAXXZ
_TEXT	SEGMENT PARA USE32 PUBLIC 'CODE'
_TEXT	ENDS
;	COMDAT ?Release@CStringData@ATL@@QAEXXZ
_TEXT	SEGMENT PARA USE32 PUBLIC 'CODE'
_TEXT	ENDS
;	COMDAT ?Attach@?$CSimpleStringT@D$0A@@ATL@@AAEXPAUCStringData@2@@Z
_TEXT	SEGMENT PARA USE32 PUBLIC 'CODE'
_TEXT	ENDS
;	COMDAT ?IsShared@CStringData@ATL@@QBE_NXZ
_TEXT	SEGMENT PARA USE32 PUBLIC 'CODE'
_TEXT	ENDS
;	COMDAT ?GetData@?$CSimpleStringT@D$0A@@ATL@@ABEPAUCStringData@2@XZ
_TEXT	SEGMENT PARA USE32 PUBLIC 'CODE'
_TEXT	ENDS
;	COMDAT ?Format@?$ChTraitsCRT@D@ATL@@SAHPADPBD0@Z
_TEXT	SEGMENT PARA USE32 PUBLIC 'CODE'
_TEXT	ENDS
;	COMDAT ?GetFormattedLength@?$ChTraitsCRT@D@ATL@@SAHPBDPAD@Z
_TEXT	SEGMENT PARA USE32 PUBLIC 'CODE'
_TEXT	ENDS
;	COMDAT ?AtlThrow@ATL@@YGXJ@Z
_TEXT	SEGMENT PARA USE32 PUBLIC 'CODE'
_TEXT	ENDS
;	COMDAT ??Diterator@?$_Tree@V?$_Tmap_traits@KPAVCCtrl@@U?$less@K@std@@V?$allocator@U?$pair@$$CBKPAVCCtrl@@@std@@@3@$0A@@std@@@std@@QBEAAU?$pair@$$CBKPAVCCtrl@@@2@XZ
_TEXT	SEGMENT PARA USE32 PUBLIC 'CODE'
_TEXT	ENDS
;	COMDAT ??Dconst_iterator@?$_Tree@V?$_Tmap_traits@KPAVCCtrl@@U?$less@K@std@@V?$allocator@U?$pair@$$CBKPAVCCtrl@@@std@@@3@$0A@@std@@@std@@QBEABU?$pair@$$CBKPAVCCtrl@@@2@XZ
_TEXT	SEGMENT PARA USE32 PUBLIC 'CODE'
_TEXT	ENDS
;	COMDAT ?_Myval@?$_Tree@V?$_Tmap_traits@KPAVCCtrl@@U?$less@K@std@@V?$allocator@U?$pair@$$CBKPAVCCtrl@@@std@@@3@$0A@@std@@@std@@KAAAU?$pair@$$CBKPAVCCtrl@@@2@PAU_Node@?$_Tree_nod@V?$_Tmap_traits@KPAVCCtrl@@U?$less@K@std@@V?$allocator@U?$pair@$$CBKPAVCCtrl@@@std@@@3@$0A@@std@@@2@@Z
_TEXT	SEGMENT PARA USE32 PUBLIC 'CODE'
_TEXT	ENDS
;	COMDAT ?_Mynode@const_iterator@?$_Tree@V?$_Tmap_traits@KPAVCCtrl@@U?$less@K@std@@V?$allocator@U?$pair@$$CBKPAVCCtrl@@@std@@@3@$0A@@std@@@std@@QBEPAU_Node@?$_Tree_nod@V?$_Tmap_traits@KPAVCCtrl@@U?$less@K@std@@V?$allocator@U?$pair@$$CBKPAVCCtrl@@@std@@@3@$0A@@std@@@3@XZ
_TEXT	SEGMENT PARA USE32 PUBLIC 'CODE'
_TEXT	ENDS
;	COMDAT ?_Key@?$_Tree@V?$_Tmap_traits@KPAVCCtrl@@U?$less@K@std@@V?$allocator@U?$pair@$$CBKPAVCCtrl@@@std@@@3@$0A@@std@@@std@@KAABKPAU_Node@?$_Tree_nod@V?$_Tmap_traits@KPAVCCtrl@@U?$less@K@std@@V?$allocator@U?$pair@$$CBKPAVCCtrl@@@std@@@3@$0A@@std@@@2@@Z
_TEXT	SEGMENT PARA USE32 PUBLIC 'CODE'
_TEXT	ENDS
;	COMDAT ??R?$less@K@std@@QBE_NABK0@Z
_TEXT	SEGMENT PARA USE32 PUBLIC 'CODE'
_TEXT	ENDS
;	COMDAT ?end@?$_Tree@V?$_Tmap_traits@KPAVCCtrl@@U?$less@K@std@@V?$allocator@U?$pair@$$CBKPAVCCtrl@@@std@@@3@$0A@@std@@@std@@QAE?AViterator@12@XZ
_TEXT	SEGMENT PARA USE32 PUBLIC 'CODE'
_TEXT	ENDS
;	COMDAT ??8const_iterator@?$_Tree@V?$_Tmap_traits@KPAVCCtrl@@U?$less@K@std@@V?$allocator@U?$pair@$$CBKPAVCCtrl@@@std@@@3@$0A@@std@@@std@@QBE_NABV012@@Z
_TEXT	SEGMENT PARA USE32 PUBLIC 'CODE'
_TEXT	ENDS
;	COMDAT ?lower_bound@?$_Tree@V?$_Tmap_traits@KPAVCCtrl@@U?$less@K@std@@V?$allocator@U?$pair@$$CBKPAVCCtrl@@@std@@@3@$0A@@std@@@std@@QAE?AViterator@12@ABK@Z
_TEXT	SEGMENT PARA USE32 PUBLIC 'CODE'
_TEXT	ENDS
;	COMDAT ?_Lbound@?$_Tree@V?$_Tmap_traits@KPAVCCtrl@@U?$less@K@std@@V?$allocator@U?$pair@$$CBKPAVCCtrl@@@std@@@3@$0A@@std@@@std@@IBEPAU_Node@?$_Tree_nod@V?$_Tmap_traits@KPAVCCtrl@@U?$less@K@std@@V?$allocator@U?$pair@$$CBKPAVCCtrl@@@std@@@3@$0A@@std@@@2@ABK@Z
_TEXT	SEGMENT PARA USE32 PUBLIC 'CODE'
_TEXT	ENDS
;	COMDAT ?_Root@?$_Tree@V?$_Tmap_traits@KPAVCCtrl@@U?$less@K@std@@V?$allocator@U?$pair@$$CBKPAVCCtrl@@@std@@@3@$0A@@std@@@std@@IBEAAPAU_Node@?$_Tree_nod@V?$_Tmap_traits@KPAVCCtrl@@U?$less@K@std@@V?$allocator@U?$pair@$$CBKPAVCCtrl@@@std@@@3@$0A@@std@@@2@XZ
_TEXT	SEGMENT PARA USE32 PUBLIC 'CODE'
_TEXT	ENDS
;	COMDAT ?_Myptr@?$basic_string@DU?$char_traits@D@std@@V?$allocator@D@2@@std@@QBEPBDXZ
_TEXT	SEGMENT PARA USE32 PUBLIC 'CODE'
_TEXT	ENDS
;	COMDAT ?size@?$basic_string@DU?$char_traits@D@std@@V?$allocator@D@2@@std@@QBEIXZ
_TEXT	SEGMENT PARA USE32 PUBLIC 'CODE'
_TEXT	ENDS
;	COMDAT ?GetBuffer@?$CSimpleStringT@D$0A@@ATL@@QAEPADH@Z
_TEXT	SEGMENT PARA USE32 PUBLIC 'CODE'
_TEXT	ENDS
;	COMDAT ?PrepareWrite@?$CSimpleStringT@D$0A@@ATL@@AAEPADH@Z
_TEXT	SEGMENT PARA USE32 PUBLIC 'CODE'
_TEXT	ENDS
;	COMDAT ?PrepareWrite2@?$CSimpleStringT@D$0A@@ATL@@AAEXH@Z
_TEXT	SEGMENT PARA USE32 PUBLIC 'CODE'
_TEXT	ENDS
;	COMDAT ?Reallocate@?$CSimpleStringT@D$0A@@ATL@@AAEXH@Z
_TEXT	SEGMENT PARA USE32 PUBLIC 'CODE'
_TEXT	ENDS
;	COMDAT ?StringFindString@?$ChTraitsCRT@D@ATL@@SAPBDPBD0@Z
_TEXT	SEGMENT PARA USE32 PUBLIC 'CODE'
_TEXT	ENDS
;	COMDAT ?GetString@?$CSimpleStringT@D$0A@@ATL@@QBEPBDXZ
_TEXT	SEGMENT PARA USE32 PUBLIC 'CODE'
_TEXT	ENDS
;	COMDAT ?ReleaseBufferSetLength@?$CSimpleStringT@D$0A@@ATL@@QAEXH@Z
_TEXT	SEGMENT PARA USE32 PUBLIC 'CODE'
_TEXT	ENDS
;	COMDAT ?SetLength@?$CSimpleStringT@D$0A@@ATL@@AAEXH@Z
_TEXT	SEGMENT PARA USE32 PUBLIC 'CODE'
_TEXT	ENDS
;	COMDAT ?Invalidate@CWorld@@QAEXHH@Z
_TEXT	SEGMENT PARA USE32 PUBLIC 'CODE'
_TEXT	ENDS
;	COMDAT ?IsPlayer@CMover@@QAEHXZ
_TEXT	SEGMENT PARA USE32 PUBLIC 'CODE'
_TEXT	ENDS
;	COMDAT ?Seek@CFileIO@@UAEHJH@Z
_TEXT	SEGMENT PARA USE32 PUBLIC 'CODE'
_TEXT	ENDS
;	COMDAT ?Read@CFileIO@@UAEIPAXII@Z
_TEXT	SEGMENT PARA USE32 PUBLIC 'CODE'
_TEXT	ENDS
;	COMDAT ?GetMoverProp@CProject@@QAEPAUMoverProp@@H@Z
_TEXT	SEGMENT PARA USE32 PUBLIC 'CODE'
_TEXT	ENDS
;	COMDAT ?LOG_RANGE@@YAXPBDHHH@Z
_TEXT	SEGMENT PARA USE32 PUBLIC 'CODE'
_TEXT	ENDS
;	COMDAT ??_C@_0BM@HMFGHCP@?$CFs?5min?3?$CFd?0?5max?3?$CFd?0?5index?3?$CFd?$AA@
CONST	SEGMENT DWORD USE32 PUBLIC 'CONST'
CONST	ENDS
;	COMDAT ??_C@_0BJ@GKPOBPPI@GetMoverProp?5range_error?$AA@
CONST	SEGMENT DWORD USE32 PUBLIC 'CONST'
CONST	ENDS
;	COMDAT ?AddTail@CRegionElemArray@@QAEXQAUREGIONELEM@@@Z
_TEXT	SEGMENT PARA USE32 PUBLIC 'CODE'
_TEXT	ENDS
;	COMDAT ??0REGIONELEM@@QAE@XZ
_TEXT	SEGMENT PARA USE32 PUBLIC 'CODE'
_TEXT	ENDS
;	COMDAT ??0CRect@@QAE@XZ
_TEXT	SEGMENT PARA USE32 PUBLIC 'CODE'
_TEXT	ENDS
;	COMDAT ?GetID@CWorld@@QAEKXZ
_TEXT	SEGMENT PARA USE32 PUBLIC 'CODE'
_TEXT	ENDS
;	COMDAT ?GetPos@CObj@@QAE?AUD3DXVECTOR3@@XZ
_TEXT	SEGMENT PARA USE32 PUBLIC 'CODE'
_TEXT	ENDS
;	COMDAT ??1CFileIO@@UAE@XZ
_TEXT	SEGMENT PARA USE32 PUBLIC 'CODE'
_TEXT	ENDS
;	COMDAT ??_7CFileIO@@6B@
CONST	SEGMENT DWORD USE32 PUBLIC 'CONST'
CONST	ENDS
;	COMDAT ??_GCFileIO@@UAEPAXI@Z
_TEXT	SEGMENT PARA USE32 PUBLIC 'CODE'
_TEXT	ENDS
;	COMDAT ?Flush@CFileIO@@UAEHXZ
_TEXT	SEGMENT PARA USE32 PUBLIC 'CODE'
_TEXT	ENDS
;	COMDAT ?GetC@CFileIO@@UAEDXZ
_TEXT	SEGMENT PARA USE32 PUBLIC 'CODE'
_TEXT	ENDS
;	COMDAT ?GetW@CFileIO@@UAEGXZ
_TEXT	SEGMENT PARA USE32 PUBLIC 'CODE'
_TEXT	ENDS
;	COMDAT ?GetDW@CFileIO@@UAEKXZ
_TEXT	SEGMENT PARA USE32 PUBLIC 'CODE'
_TEXT	ENDS
;	COMDAT ?Tell@CFileIO@@UAEJXZ
_TEXT	SEGMENT PARA USE32 PUBLIC 'CODE'
_TEXT	ENDS
;	COMDAT ?GetLength@CFileIO@@UAEJXZ
_TEXT	SEGMENT PARA USE32 PUBLIC 'CODE'
_TEXT	ENDS
;	COMDAT ?Handle@CFileIO@@QAEHXZ
_TEXT	SEGMENT PARA USE32 PUBLIC 'CODE'
_TEXT	ENDS
;	COMDAT ??0CFileIO@@QAE@XZ
_TEXT	SEGMENT PARA USE32 PUBLIC 'CODE'
_TEXT	ENDS
;	COMDAT ?GetLayer@CObj@@QAEHXZ
_TEXT	SEGMENT PARA USE32 PUBLIC 'CODE'
_TEXT	ENDS
;	COMDAT ?GetType@CObj@@QAEKXZ
_TEXT	SEGMENT PARA USE32 PUBLIC 'CODE'
_TEXT	ENDS
;	COMDAT ??B?$CSimpleStringT@D$0A@@ATL@@QBEPBDXZ
_TEXT	SEGMENT PARA USE32 PUBLIC 'CODE'
_TEXT	ENDS
;	COMDAT ?GetLength@?$CSimpleStringT@D$0A@@ATL@@QBEHXZ
_TEXT	SEGMENT PARA USE32 PUBLIC 'CODE'
_TEXT	ENDS
;	COMDAT ??0?$CStringT@DV?$StrTraitMFC@DV?$ChTraitsCRT@D@ATL@@@@@ATL@@QAE@XZ
_TEXT	SEGMENT PARA USE32 PUBLIC 'CODE'
_TEXT	ENDS
;	COMDAT ??0?$CSimpleStringT@D$0A@@ATL@@QAE@PAUIAtlStringMgr@1@@Z
_TEXT	SEGMENT PARA USE32 PUBLIC 'CODE'
_TEXT	ENDS
;	COMDAT ?GetDefaultManager@?$StrTraitMFC@DV?$ChTraitsCRT@D@ATL@@@@SAPAUIAtlStringMgr@ATL@@XZ
_TEXT	SEGMENT PARA USE32 PUBLIC 'CODE'
_TEXT	ENDS
;	COMDAT ??1?$CSimpleStringT@D$0A@@ATL@@QAE@XZ
_TEXT	SEGMENT PARA USE32 PUBLIC 'CODE'
_TEXT	ENDS
;	COMDAT ??1?$CStringT@DV?$StrTraitMFC@DV?$ChTraitsCRT@D@ATL@@@@@ATL@@QAE@XZ
_TEXT	SEGMENT PARA USE32 PUBLIC 'CODE'
_TEXT	ENDS
;	COMDAT ??0?$CStringT@DV?$StrTraitMFC@DV?$ChTraitsCRT@D@ATL@@@@@ATL@@QAE@PBD@Z
_TEXT	SEGMENT PARA USE32 PUBLIC 'CODE'
_TEXT	ENDS
;	COMDAT ?CheckImplicitLoad@?$CStringT@DV?$StrTraitMFC@DV?$ChTraitsCRT@D@ATL@@@@@ATL@@AAE_NPBX@Z
_TEXT	SEGMENT PARA USE32 PUBLIC 'CODE'
_TEXT	ENDS
;	COMDAT ?LoadStringA@?$CStringT@DV?$StrTraitMFC@DV?$ChTraitsCRT@D@ATL@@@@@ATL@@QAEHI@Z
_TEXT	SEGMENT PARA USE32 PUBLIC 'CODE'
_TEXT	ENDS
;	COMDAT ?FindStringResourceInstance@?$StrTraitMFC@DV?$ChTraitsCRT@D@ATL@@@@SAPAUHINSTANCE__@@I@Z
_TEXT	SEGMENT PARA USE32 PUBLIC 'CODE'
_TEXT	ENDS
;	COMDAT ?LoadStringA@?$CStringT@DV?$StrTraitMFC@DV?$ChTraitsCRT@D@ATL@@@@@ATL@@QAEHPAUHINSTANCE__@@I@Z
_TEXT	SEGMENT PARA USE32 PUBLIC 'CODE'
_TEXT	ENDS
;	COMDAT ?AtlGetStringResourceImage@ATL@@YAPBUATLSTRINGRESOURCEIMAGE@1@PAUHINSTANCE__@@I@Z
_TEXT	SEGMENT PARA USE32 PUBLIC 'CODE'
_TEXT	ENDS
;	COMDAT ?_AtlGetStringResourceImage@ATL@@YAPBUATLSTRINGRESOURCEIMAGE@1@PAUHINSTANCE__@@PAUHRSRC__@@I@Z
_TEXT	SEGMENT PARA USE32 PUBLIC 'CODE'
_TEXT	ENDS
;	COMDAT ?GetBaseTypeLength@?$ChTraitsCRT@D@ATL@@SAHPBGH@Z
_TEXT	SEGMENT PARA USE32 PUBLIC 'CODE'
_TEXT	ENDS
;	COMDAT ?_AtlGetConversionACP@ATL@@YGIXZ
_TEXT	SEGMENT PARA USE32 PUBLIC 'CODE'
_TEXT	ENDS
;	COMDAT ?g_pfnGetThreadACP@ATL@@3P6GIXZA
_DATA	SEGMENT DWORD USE32 PUBLIC 'DATA'
_DATA	ENDS
;	COMDAT ?_AtlGetThreadACPThunk@ATL@@YGIXZ
_TEXT	SEGMENT PARA USE32 PUBLIC 'CODE'
_TEXT	ENDS
;	COMDAT ?_AtlGetThreadACPReal@ATL@@YGIXZ
_TEXT	SEGMENT PARA USE32 PUBLIC 'CODE'
_TEXT	ENDS
;	COMDAT ?_AtlGetThreadACPFake@ATL@@YGIXZ
_TEXT	SEGMENT PARA USE32 PUBLIC 'CODE'
_TEXT	ENDS
;	COMDAT ?InterlockedExchangePointer@@YGPAXPAPAXPAX@Z
_TEXT	SEGMENT PARA USE32 PUBLIC 'CODE'
_TEXT	ENDS
;	COMDAT ?ConvertToBaseType@?$ChTraitsCRT@D@ATL@@SAXPADHPBGH@Z
_TEXT	SEGMENT PARA USE32 PUBLIC 'CODE'
_TEXT	ENDS
;	COMDAT ??4?$CStringT@DV?$StrTraitMFC@DV?$ChTraitsCRT@D@ATL@@@@@ATL@@QAEAAV01@PBD@Z
_TEXT	SEGMENT PARA USE32 PUBLIC 'CODE'
_TEXT	ENDS
;	COMDAT ??4?$CSimpleStringT@D$0A@@ATL@@QAEAAV01@PBD@Z
_TEXT	SEGMENT PARA USE32 PUBLIC 'CODE'
_TEXT	ENDS
;	COMDAT ?SetString@?$CSimpleStringT@D$0A@@ATL@@QAEXPBD@Z
_TEXT	SEGMENT PARA USE32 PUBLIC 'CODE'
_TEXT	ENDS
;	COMDAT ?SetString@?$CSimpleStringT@D$0A@@ATL@@QAEXPBDH@Z
_TEXT	SEGMENT PARA USE32 PUBLIC 'CODE'
_TEXT	ENDS
;	COMDAT ?Empty@?$CSimpleStringT@D$0A@@ATL@@QAEXXZ
_TEXT	SEGMENT PARA USE32 PUBLIC 'CODE'
_TEXT	ENDS
;	COMDAT ?IsLocked@CStringData@ATL@@QBE_NXZ
_TEXT	SEGMENT PARA USE32 PUBLIC 'CODE'
_TEXT	ENDS
;	COMDAT ?CopyCharsOverlapped@?$CSimpleStringT@D$0A@@ATL@@SAXPADPBDH@Z
_TEXT	SEGMENT PARA USE32 PUBLIC 'CODE'
_TEXT	ENDS
;	COMDAT ?StringLength@?$CSimpleStringT@D$0A@@ATL@@SAHPBD@Z
_TEXT	SEGMENT PARA USE32 PUBLIC 'CODE'
_TEXT	ENDS
;	COMDAT ??4?$basic_string@DU?$char_traits@D@std@@V?$allocator@D@2@@std@@QAEAAV01@PBD@Z
_TEXT	SEGMENT PARA USE32 PUBLIC 'CODE'
_TEXT	ENDS
;	COMDAT ?assign@?$basic_string@DU?$char_traits@D@std@@V?$allocator@D@2@@std@@QAEAAV12@PBD@Z
_TEXT	SEGMENT PARA USE32 PUBLIC 'CODE'
_TEXT	ENDS
;	COMDAT ?assign@?$basic_string@DU?$char_traits@D@std@@V?$allocator@D@2@@std@@QAEAAV12@PBDI@Z
_TEXT	SEGMENT PARA USE32 PUBLIC 'CODE'
_TEXT	ENDS
;	COMDAT ?_Inside@?$basic_string@DU?$char_traits@D@std@@V?$allocator@D@2@@std@@IAE_NPBD@Z
_TEXT	SEGMENT PARA USE32 PUBLIC 'CODE'
_TEXT	ENDS
;	COMDAT ?length@?$char_traits@D@std@@SAIPBD@Z
_TEXT	SEGMENT PARA USE32 PUBLIC 'CODE'
_TEXT	ENDS
;	COMDAT ?erase@?$_Tree@V?$_Tmap_traits@KPAVCCtrl@@U?$less@K@std@@V?$allocator@U?$pair@$$CBKPAVCCtrl@@@std@@@3@$0A@@std@@@std@@QAEIABK@Z
_TEXT	SEGMENT PARA USE32 PUBLIC 'CODE'
_TEXT	ENDS
;	COMDAT ?equal_range@?$_Tree@V?$_Tmap_traits@KPAVCCtrl@@U?$less@K@std@@V?$allocator@U?$pair@$$CBKPAVCCtrl@@@std@@@3@$0A@@std@@@std@@QAE?AU?$pair@Viterator@?$_Tree@V?$_Tmap_traits@KPAVCCtrl@@U?$less@K@std@@V?$allocator@U?$pair@$$CBKPAVCCtrl@@@std@@@3@$0A@@std@@@std@@V123@@2@ABK@Z
_TEXT	SEGMENT PARA USE32 PUBLIC 'CODE'
_TEXT	ENDS
;	COMDAT ??0?$pair@Viterator@?$_Tree@V?$_Tmap_traits@KPAVCCtrl@@U?$less@K@std@@V?$allocator@U?$pair@$$CBKPAVCCtrl@@@std@@@3@$0A@@std@@@std@@V123@@std@@QAE@ABViterator@?$_Tree@V?$_Tmap_traits@KPAVCCtrl@@U?$less@K@std@@V?$allocator@U?$pair@$$CBKPAVCCtrl@@@std@@@3@$0A@@std@@@1@0@Z
_TEXT	SEGMENT PARA USE32 PUBLIC 'CODE'
_TEXT	ENDS
;	COMDAT ?upper_bound@?$_Tree@V?$_Tmap_traits@KPAVCCtrl@@U?$less@K@std@@V?$allocator@U?$pair@$$CBKPAVCCtrl@@@std@@@3@$0A@@std@@@std@@QAE?AViterator@12@ABK@Z
_TEXT	SEGMENT PARA USE32 PUBLIC 'CODE'
_TEXT	ENDS
;	COMDAT ?_Ubound@?$_Tree@V?$_Tmap_traits@KPAVCCtrl@@U?$less@K@std@@V?$allocator@U?$pair@$$CBKPAVCCtrl@@@std@@@3@$0A@@std@@@std@@IBEPAU_Node@?$_Tree_nod@V?$_Tmap_traits@KPAVCCtrl@@U?$less@K@std@@V?$allocator@U?$pair@$$CBKPAVCCtrl@@@std@@@3@$0A@@std@@@2@ABK@Z
_TEXT	SEGMENT PARA USE32 PUBLIC 'CODE'
_TEXT	ENDS
;	COMDAT ??$_Distance@Viterator@?$_Tree@V?$_Tmap_traits@KPAVCCtrl@@U?$less@K@std@@V?$allocator@U?$pair@$$CBKPAVCCtrl@@@std@@@3@$0A@@std@@@std@@I@std@@YAXViterator@?$_Tree@V?$_Tmap_traits@KPAVCCtrl@@U?$less@K@std@@V?$allocator@U?$pair@$$CBKPAVCCtrl@@@std@@@3@$0A@@std@@@0@0AAI@Z
_TEXT	SEGMENT PARA USE32 PUBLIC 'CODE'
_TEXT	ENDS
;	COMDAT ?erase@?$_Tree@V?$_Tmap_traits@KPAVCCtrl@@U?$less@K@std@@V?$allocator@U?$pair@$$CBKPAVCCtrl@@@std@@@3@$0A@@std@@@std@@QAE?AViterator@12@V312@0@Z
_TEXT	SEGMENT PARA USE32 PUBLIC 'CODE'
_TEXT	ENDS
;	COMDAT ?clear@?$_Tree@V?$_Tmap_traits@KPAVCCtrl@@U?$less@K@std@@V?$allocator@U?$pair@$$CBKPAVCCtrl@@@std@@@3@$0A@@std@@@std@@QAEXXZ
_TEXT	SEGMENT PARA USE32 PUBLIC 'CODE'
_TEXT	ENDS
;	COMDAT ?_Erase@?$_Tree@V?$_Tmap_traits@KPAVCCtrl@@U?$less@K@std@@V?$allocator@U?$pair@$$CBKPAVCCtrl@@@std@@@3@$0A@@std@@@std@@IAEXPAU_Node@?$_Tree_nod@V?$_Tmap_traits@KPAVCCtrl@@U?$less@K@std@@V?$allocator@U?$pair@$$CBKPAVCCtrl@@@std@@@3@$0A@@std@@@2@@Z
_TEXT	SEGMENT PARA USE32 PUBLIC 'CODE'
_TEXT	ENDS
;	COMDAT ?destroy@?$allocator@U_Node@?$_Tree_nod@V?$_Tmap_traits@KPAVCCtrl@@U?$less@K@std@@V?$allocator@U?$pair@$$CBKPAVCCtrl@@@std@@@3@$0A@@std@@@std@@@std@@QAEXPAU_Node@?$_Tree_nod@V?$_Tmap_traits@KPAVCCtrl@@U?$less@K@std@@V?$allocator@U?$pair@$$CBKPAVCCtrl@@@std@@@3@$0A@@std@@@2@@Z
_TEXT	SEGMENT PARA USE32 PUBLIC 'CODE'
_TEXT	ENDS
;	COMDAT ??$_Destroy@U_Node@?$_Tree_nod@V?$_Tmap_traits@KPAVCCtrl@@U?$less@K@std@@V?$allocator@U?$pair@$$CBKPAVCCtrl@@@std@@@3@$0A@@std@@@std@@@std@@YAXPAU_Node@?$_Tree_nod@V?$_Tmap_traits@KPAVCCtrl@@U?$less@K@std@@V?$allocator@U?$pair@$$CBKPAVCCtrl@@@std@@@3@$0A@@std@@@0@@Z
_TEXT	SEGMENT PARA USE32 PUBLIC 'CODE'
_TEXT	ENDS
;	COMDAT ?erase@?$_Tree@V?$_Tmap_traits@KPAVCCtrl@@U?$less@K@std@@V?$allocator@U?$pair@$$CBKPAVCCtrl@@@std@@@3@$0A@@std@@@std@@QAE?AViterator@12@V312@@Z
_TEXT	SEGMENT PARA USE32 PUBLIC 'CODE'
_TEXT	ENDS
;	COMDAT ??Eiterator@?$_Tree@V?$_Tmap_traits@KPAVCCtrl@@U?$less@K@std@@V?$allocator@U?$pair@$$CBKPAVCCtrl@@@std@@@3@$0A@@std@@@std@@QAE?AV012@H@Z
_TEXT	SEGMENT PARA USE32 PUBLIC 'CODE'
_TEXT	ENDS
;	COMDAT ??5@YAAAVCAr@@AAV0@AAUD3DXVECTOR3@@@Z
_TEXT	SEGMENT PARA USE32 PUBLIC 'CODE'
_TEXT	ENDS
;	COMDAT ??5CAr@@QAEAAV0@AAM@Z
_TEXT	SEGMENT PARA USE32 PUBLIC 'CODE'
_TEXT	ENDS
;	COMDAT ??5CAr@@QAEAAV0@AAJ@Z
_TEXT	SEGMENT PARA USE32 PUBLIC 'CODE'
_TEXT	ENDS
;	COMDAT ?time_null@@YAJXZ
_TEXT	SEGMENT PARA USE32 PUBLIC 'CODE'
_TEXT	ENDS
;	COMDAT ??6CAr@@QAEAAV0@J@Z
_TEXT	SEGMENT PARA USE32 PUBLIC 'CODE'
_TEXT	ENDS
;	COMDAT ??6@YAAAVCAr@@AAV0@UD3DXVECTOR3@@@Z
_TEXT	SEGMENT PARA USE32 PUBLIC 'CODE'
_TEXT	ENDS
;	COMDAT ??6CAr@@QAEAAV0@M@Z
_TEXT	SEGMENT PARA USE32 PUBLIC 'CODE'
_TEXT	ENDS
;	COMDAT ??1?$basic_string@DU?$char_traits@D@std@@V?$allocator@D@2@@std@@QAE@XZ
_TEXT	SEGMENT PARA USE32 PUBLIC 'CODE'
_TEXT	ENDS
;	COMDAT ??0?$basic_string@DU?$char_traits@D@std@@V?$allocator@D@2@@std@@QAE@PBD@Z
_TEXT	SEGMENT PARA USE32 PUBLIC 'CODE'
_TEXT	ENDS
;	COMDAT ??0?$allocator@D@std@@QAE@XZ
_TEXT	SEGMENT PARA USE32 PUBLIC 'CODE'
_TEXT	ENDS
;	COMDAT ?c_str@?$basic_string@DU?$char_traits@D@std@@V?$allocator@D@2@@std@@QBEPBDXZ
_TEXT	SEGMENT PARA USE32 PUBLIC 'CODE'
_TEXT	ENDS
;	COMDAT ??6CAr@@QAEAAV0@I@Z
_TEXT	SEGMENT PARA USE32 PUBLIC 'CODE'
_TEXT	ENDS
;	COMDAT ??_7__MINIGAME_EXT_PACKET@@6B@
CONST	SEGMENT DWORD USE32 PUBLIC 'CONST'
CONST	ENDS
;	COMDAT ??5CAr@@QAEAAV0@AAG@Z
_TEXT	SEGMENT PARA USE32 PUBLIC 'CODE'
_TEXT	ENDS
;	COMDAT ??5CAr@@QAEAAV0@AAH@Z
_TEXT	SEGMENT PARA USE32 PUBLIC 'CODE'
_TEXT	ENDS
;	COMDAT ??6CAr@@QAEAAV0@G@Z
_TEXT	SEGMENT PARA USE32 PUBLIC 'CODE'
_TEXT	ENDS
;	COMDAT ??6CAr@@QAEAAV0@H@Z
_TEXT	SEGMENT PARA USE32 PUBLIC 'CODE'
_TEXT	ENDS
;	COMDAT ??_7__MINIGAME_PACKET@@6B@
CONST	SEGMENT DWORD USE32 PUBLIC 'CONST'
CONST	ENDS
;	COMDAT ??1?$vector@KV?$allocator@K@std@@@std@@QAE@XZ
_TEXT	SEGMENT PARA USE32 PUBLIC 'CODE'
_TEXT	ENDS
;	COMDAT ?_Tidy@?$vector@KV?$allocator@K@std@@@std@@IAEXXZ
_TEXT	SEGMENT PARA USE32 PUBLIC 'CODE'
_TEXT	ENDS
;	COMDAT ?_Destroy@?$vector@KV?$allocator@K@std@@@std@@IAEXPAK0@Z
_TEXT	SEGMENT PARA USE32 PUBLIC 'CODE'
_TEXT	ENDS
;	COMDAT ??$_Destroy_range@KV?$allocator@K@std@@@std@@YAXPAK0AAV?$allocator@K@0@@Z
_TEXT	SEGMENT PARA USE32 PUBLIC 'CODE'
_TEXT	ENDS
;	COMDAT ?_Ptr_cat@std@@YA?AU_Scalar_ptr_iterator_tag@1@PAK0@Z
_TEXT	SEGMENT PARA USE32 PUBLIC 'CODE'
_TEXT	ENDS
;	COMDAT ?deallocate@?$allocator@K@std@@QAEXPAKI@Z
_TEXT	SEGMENT PARA USE32 PUBLIC 'CODE'
_TEXT	ENDS
;	COMDAT ??0?$vector@KV?$allocator@K@std@@@std@@QAE@XZ
_TEXT	SEGMENT PARA USE32 PUBLIC 'CODE'
_TEXT	ENDS
;	COMDAT ??0?$_Vector_val@KV?$allocator@K@std@@@std@@IAE@V?$allocator@K@1@@Z
_TEXT	SEGMENT PARA USE32 PUBLIC 'CODE'
_TEXT	ENDS
;	COMDAT ??0?$allocator@K@std@@QAE@ABV01@@Z
_TEXT	SEGMENT PARA USE32 PUBLIC 'CODE'
_TEXT	ENDS
;	COMDAT ??0?$allocator@K@std@@QAE@XZ
_TEXT	SEGMENT PARA USE32 PUBLIC 'CODE'
_TEXT	ENDS
;	COMDAT ?_Buy@?$vector@KV?$allocator@K@std@@@std@@IAE_NI@Z
_TEXT	SEGMENT PARA USE32 PUBLIC 'CODE'
_TEXT	ENDS
;	COMDAT ?max_size@?$vector@KV?$allocator@K@std@@@std@@QBEIXZ
_TEXT	SEGMENT PARA USE32 PUBLIC 'CODE'
_TEXT	ENDS
;	COMDAT ?max_size@?$allocator@K@std@@QBEIXZ
_TEXT	SEGMENT PARA USE32 PUBLIC 'CODE'
_TEXT	ENDS
;	COMDAT ?_Xlen@?$vector@KV?$allocator@K@std@@@std@@IBEXXZ
_TEXT	SEGMENT PARA USE32 PUBLIC 'CODE'
_TEXT	ENDS
;	COMDAT ?allocate@?$allocator@K@std@@QAEPAKI@Z
_TEXT	SEGMENT PARA USE32 PUBLIC 'CODE'
_TEXT	ENDS
;	COMDAT ??$_Allocate@K@std@@YAPAKIPAK@Z
_TEXT	SEGMENT PARA USE32 PUBLIC 'CODE'
_TEXT	ENDS
;	COMDAT ??5CAr@@QAEAAV0@AAK@Z
_TEXT	SEGMENT PARA USE32 PUBLIC 'CODE'
_TEXT	ENDS
;	COMDAT ??6CAr@@QAEAAV0@K@Z
_TEXT	SEGMENT PARA USE32 PUBLIC 'CODE'
_TEXT	ENDS
;	COMDAT ?IsStoring@CAr@@QBEHXZ
_TEXT	SEGMENT PARA USE32 PUBLIC 'CODE'
_TEXT	ENDS
;	COMDAT ??0D3DXVECTOR3@@QAE@MMM@Z
_TEXT	SEGMENT PARA USE32 PUBLIC 'CODE'
_TEXT	ENDS
;	COMDAT ?GetTickCount@CTime@ATL@@SG?AV12@XZ
_TEXT	SEGMENT PARA USE32 PUBLIC 'CODE'
_TEXT	ENDS
;	COMDAT ??0CTime@ATL@@QAE@_J@Z
_TEXT	SEGMENT PARA USE32 PUBLIC 'CODE'
_TEXT	ENDS
;	COMDAT ??0D3DXVECTOR3@@QAE@XZ
_TEXT	SEGMENT PARA USE32 PUBLIC 'CODE'
_TEXT	ENDS
;	COMDAT ??0CTime@ATL@@QAE@XZ
_TEXT	SEGMENT PARA USE32 PUBLIC 'CODE'
_TEXT	ENDS
sxdata	SEGMENT DWORD USE32 'SXDATA'
sxdata	ENDS
FLAT	GROUP _DATA, CONST, _BSS
	ASSUME	CS: FLAT, DS: FLAT, SS: FLAT
endif

INCLUDELIB LIBCMT
INCLUDELIB OLDNAMES

PUBLIC	?DEFAULT_FNAME@@3PBDB				; DEFAULT_FNAME
PUBLIC	??_C@_07DLHCIBDH@default?$AA@			; `string'
PUBLIC	?g_pfnGetThreadACP@ATL@@3P6GIXZA		; ATL::g_pfnGetThreadACP
PUBLIC	?_AtlGetThreadACPThunk@ATL@@YGIXZ		; ATL::_AtlGetThreadACPThunk
;	COMDAT ??_C@_07DLHCIBDH@default?$AA@
CONST	SEGMENT
??_C@_07DLHCIBDH@default?$AA@ DB 'default', 00H		; `string'
CONST	ENDS
_DATA	SEGMENT
?DEFAULT_FNAME@@3PBDB DD FLAT:??_C@_07DLHCIBDH@default?$AA@ ; DEFAULT_FNAME
_DATA	ENDS
;	COMDAT ?g_pfnGetThreadACP@ATL@@3P6GIXZA
_DATA	SEGMENT
?g_pfnGetThreadACP@ATL@@3P6GIXZA DD FLAT:?_AtlGetThreadACPThunk@ATL@@YGIXZ ; ATL::g_pfnGetThreadACP
_DATA	ENDS
PUBLIC	?InterlockedExchangePointer@@YGPAXPAPAXPAX@Z	; InterlockedExchangePointer
EXTRN	__imp__InterlockedExchange@8:NEAR
; Function compile flags: /Ogty
; File c:\program files\microsoft visual studio .net 2003\vc7\atlmfc\include\atlconv.h
;	COMDAT ?InterlockedExchangePointer@@YGPAXPAPAXPAX@Z
_TEXT	SEGMENT
_pp$ = 8						; size = 4
_pNew$ = 12						; size = 4
?InterlockedExchangePointer@@YGPAXPAPAXPAX@Z PROC NEAR	; InterlockedExchangePointer, COMDAT

; 92   : 	return( reinterpret_cast<void*>(static_cast<LONG_PTR>(::InterlockedExchange(reinterpret_cast<LONG*>(pp), static_cast<LONG>(reinterpret_cast<LONG_PTR>(pNew))))) );

  00000	ff 25 00 00 00
	00		 jmp	 DWORD PTR __imp__InterlockedExchange@8
?InterlockedExchangePointer@@YGPAXPAPAXPAX@Z ENDP	; InterlockedExchangePointer
_TEXT	ENDS
PUBLIC	?_AtlGetThreadACPFake@ATL@@YGIXZ		; ATL::_AtlGetThreadACPFake
EXTRN	__imp__GetThreadLocale@0:NEAR
EXTRN	___security_cookie:DWORD
EXTRN	@__security_check_cookie@4:NEAR
EXTRN	__imp__GetACP@0:NEAR
EXTRN	__imp__GetLocaleInfoA@16:NEAR
; Function compile flags: /Ogty
;	COMDAT ?_AtlGetThreadACPFake@ATL@@YGIXZ
_TEXT	SEGMENT
_szACP$ = -12						; size = 7
__$ArrayPad$ = -4					; size = 4
__$ReturnAddr$ = 4					; size = 4
?_AtlGetThreadACPFake@ATL@@YGIXZ PROC NEAR		; ATL::_AtlGetThreadACPFake, COMDAT

; 101  : {

  00000	83 ec 0c	 sub	 esp, 12			; 0000000cH
  00003	a1 00 00 00 00	 mov	 eax, DWORD PTR ___security_cookie
  00008	33 c4		 xor	 eax, esp
  0000a	56		 push	 esi
  0000b	89 44 24 0c	 mov	 DWORD PTR __$ArrayPad$[esp+16], eax

; 102  : 	UINT nACP = 0;

  0000f	33 f6		 xor	 esi, esi

; 103  : 
; 104  : 	LCID lcidThread = ::GetThreadLocale();

  00011	ff 15 00 00 00
	00		 call	 DWORD PTR __imp__GetThreadLocale@0

; 105  : 
; 106  : 	char szACP[7];
; 107  : 	// GetLocaleInfoA will fail for a Unicode-only LCID, but those are only supported on 
; 108  : 	// Windows 2000.  Since Windows 2000 supports CP_THREAD_ACP, this code path is never
; 109  : 	// executed on Windows 2000.
; 110  : 	if (::GetLocaleInfoA(lcidThread, LOCALE_IDEFAULTANSICODEPAGE, szACP, 7) != 0)

  00017	6a 07		 push	 7
  00019	8d 4c 24 08	 lea	 ecx, DWORD PTR _szACP$[esp+20]
  0001d	51		 push	 ecx
  0001e	68 04 10 00 00	 push	 4100			; 00001004H
  00023	50		 push	 eax
  00024	ff 15 00 00 00
	00		 call	 DWORD PTR __imp__GetLocaleInfoA@16
  0002a	85 c0		 test	 eax, eax
  0002c	74 27		 je	 SHORT $L264022

; 111  : 	{
; 112  : 		char* pch = szACP;
; 113  : 		while (*pch != '\0')

  0002e	8a 44 24 04	 mov	 al, BYTE PTR _szACP$[esp+16]
  00032	84 c0		 test	 al, al
  00034	8d 4c 24 04	 lea	 ecx, DWORD PTR _szACP$[esp+16]
  00038	74 1b		 je	 SHORT $L264022
  0003a	8d 9b 00 00 00
	00		 npad	 6
$L38556:

; 114  : 		{
; 115  : 			nACP *= 10;
; 116  : 			nACP += *pch++ - '0';

  00040	0f be c0	 movsx	 eax, al
  00043	8d 14 b6	 lea	 edx, DWORD PTR [esi+esi*4]
  00046	41		 inc	 ecx
  00047	8d 74 50 d0	 lea	 esi, DWORD PTR [eax+edx*2-48]
  0004b	8a 01		 mov	 al, BYTE PTR [ecx]
  0004d	84 c0		 test	 al, al
  0004f	75 ef		 jne	 SHORT $L38556

; 117  : 		}
; 118  : 	}
; 119  : 	// Use the Default ANSI Code Page if we were unable to get the thread ACP or if one does not exist.
; 120  : 	if (nACP == 0)

  00051	85 f6		 test	 esi, esi
  00053	75 16		 jne	 SHORT $L264023
$L264022:

; 121  : 		nACP = ::GetACP();

  00055	ff 15 00 00 00
	00		 call	 DWORD PTR __imp__GetACP@0
  0005b	5e		 pop	 esi

; 122  : 
; 123  : 	return nACP;
; 124  : }

  0005c	8b 4c 24 08	 mov	 ecx, DWORD PTR __$ArrayPad$[esp+12]
  00060	33 cc		 xor	 ecx, esp
  00062	e8 00 00 00 00	 call	 @__security_check_cookie@4
  00067	83 c4 0c	 add	 esp, 12			; 0000000cH
  0006a	c3		 ret	 0
$L264023:
  0006b	8b 4c 24 0c	 mov	 ecx, DWORD PTR __$ArrayPad$[esp+16]
  0006f	8b c6		 mov	 eax, esi
  00071	5e		 pop	 esi
  00072	33 cc		 xor	 ecx, esp
  00074	e8 00 00 00 00	 call	 @__security_check_cookie@4
  00079	83 c4 0c	 add	 esp, 12			; 0000000cH
  0007c	c3		 ret	 0
?_AtlGetThreadACPFake@ATL@@YGIXZ ENDP			; ATL::_AtlGetThreadACPFake
_TEXT	ENDS
PUBLIC	?_AtlGetThreadACPReal@ATL@@YGIXZ		; ATL::_AtlGetThreadACPReal
; Function compile flags: /Ogty
;	COMDAT ?_AtlGetThreadACPReal@ATL@@YGIXZ
_TEXT	SEGMENT
?_AtlGetThreadACPReal@ATL@@YGIXZ PROC NEAR		; ATL::_AtlGetThreadACPReal, COMDAT

; 128  : 	return( CP_THREAD_ACP );

  00000	b8 03 00 00 00	 mov	 eax, 3

; 129  : }

  00005	c3		 ret	 0
?_AtlGetThreadACPReal@ATL@@YGIXZ ENDP			; ATL::_AtlGetThreadACPReal
_TEXT	ENDS
EXTRN	__imp__GetVersionExA@4:NEAR
; Function compile flags: /Ogty
;	COMDAT ?_AtlGetThreadACPThunk@ATL@@YGIXZ
_TEXT	SEGMENT
_ver$ = -152						; size = 148
__$ArrayPad$ = -4					; size = 4
__$ReturnAddr$ = 4					; size = 4
?_AtlGetThreadACPThunk@ATL@@YGIXZ PROC NEAR		; ATL::_AtlGetThreadACPThunk, COMDAT

; 134  : {

  00000	81 ec 98 00 00
	00		 sub	 esp, 152		; 00000098H
  00006	a1 00 00 00 00	 mov	 eax, DWORD PTR ___security_cookie
  0000b	33 c4		 xor	 eax, esp
  0000d	89 84 24 94 00
	00 00		 mov	 DWORD PTR __$ArrayPad$[esp+152], eax

; 135  : 	OSVERSIONINFO ver;
; 136  : 	ATLGETTHREADACP pfnGetThreadACP;
; 137  : 
; 138  : 	ver.dwOSVersionInfoSize = sizeof( ver );
; 139  : 	::GetVersionEx( &ver );

  00014	8d 04 24	 lea	 eax, DWORD PTR _ver$[esp+152]
  00017	50		 push	 eax
  00018	c7 44 24 04 94
	00 00 00	 mov	 DWORD PTR _ver$[esp+156], 148 ; 00000094H
  00020	ff 15 00 00 00
	00		 call	 DWORD PTR __imp__GetVersionExA@4

; 140  : 	if( (ver.dwPlatformId == VER_PLATFORM_WIN32_NT) && (ver.dwMajorVersion >= 5) )

  00026	83 7c 24 10 02	 cmp	 DWORD PTR _ver$[esp+168], 2
  0002b	75 0c		 jne	 SHORT $L38566
  0002d	83 7c 24 04 05	 cmp	 DWORD PTR _ver$[esp+156], 5

; 141  : 	{
; 142  : 		// On Win2K, CP_THREAD_ACP is supported
; 143  : 		pfnGetThreadACP = _AtlGetThreadACPReal;

  00032	b8 00 00 00 00	 mov	 eax, OFFSET FLAT:?_AtlGetThreadACPReal@ATL@@YGIXZ ; ATL::_AtlGetThreadACPReal
  00037	73 05		 jae	 SHORT $L38567
$L38566:

; 144  : 	}
; 145  : 	else
; 146  : 	{
; 147  : 		pfnGetThreadACP = _AtlGetThreadACPFake;

  00039	b8 00 00 00 00	 mov	 eax, OFFSET FLAT:?_AtlGetThreadACPFake@ATL@@YGIXZ ; ATL::_AtlGetThreadACPFake
$L38567:

; 148  : 	}
; 149  : 	InterlockedExchangePointer( reinterpret_cast< void** >(&g_pfnGetThreadACP), pfnGetThreadACP );

  0003e	50		 push	 eax
  0003f	68 00 00 00 00	 push	 OFFSET FLAT:?g_pfnGetThreadACP@ATL@@3P6GIXZA ; ATL::g_pfnGetThreadACP
  00044	ff 15 00 00 00
	00		 call	 DWORD PTR __imp__InterlockedExchange@8

; 150  : 
; 151  : 	return( g_pfnGetThreadACP() );

  0004a	ff 15 00 00 00
	00		 call	 DWORD PTR ?g_pfnGetThreadACP@ATL@@3P6GIXZA ; ATL::g_pfnGetThreadACP

; 152  : }

  00050	8b 8c 24 94 00
	00 00		 mov	 ecx, DWORD PTR __$ArrayPad$[esp+152]
  00057	33 cc		 xor	 ecx, esp
  00059	e8 00 00 00 00	 call	 @__security_check_cookie@4
  0005e	81 c4 98 00 00
	00		 add	 esp, 152		; 00000098H
  00064	c3		 ret	 0
?_AtlGetThreadACPThunk@ATL@@YGIXZ ENDP			; ATL::_AtlGetThreadACPThunk
_TEXT	ENDS
PUBLIC	?_AtlGetConversionACP@ATL@@YGIXZ		; ATL::_AtlGetConversionACP
; Function compile flags: /Ogty
;	COMDAT ?_AtlGetConversionACP@ATL@@YGIXZ
_TEXT	SEGMENT
?_AtlGetConversionACP@ATL@@YGIXZ PROC NEAR		; ATL::_AtlGetConversionACP, COMDAT

; 158  : 	return( g_pfnGetThreadACP() );

  00000	ff 25 00 00 00
	00		 jmp	 DWORD PTR ?g_pfnGetThreadACP@ATL@@3P6GIXZA ; ATL::g_pfnGetThreadACP
?_AtlGetConversionACP@ATL@@YGIXZ ENDP			; ATL::_AtlGetConversionACP
_TEXT	ENDS
PUBLIC	?AtlThrow@ATL@@YGXJ@Z				; ATL::AtlThrow
EXTRN	?AfxThrowMemoryException@@YGXXZ:NEAR		; AfxThrowMemoryException
EXTRN	?AfxThrowOleException@@YGXJ@Z:NEAR		; AfxThrowOleException
; Function compile flags: /Ogty
; File c:\program files\microsoft visual studio .net 2003\vc7\atlmfc\include\atlexcept.h
;	COMDAT ?AtlThrow@ATL@@YGXJ@Z
_TEXT	SEGMENT
_hr$ = 8						; size = 4
?AtlThrow@ATL@@YGXJ@Z PROC NEAR				; ATL::AtlThrow, COMDAT

; 62   : 	ATLTRACE(atlTraceException, 0, _T("AtlThrow: hr = 0x%x\n"), hr );
; 63   : #ifdef _AFX
; 64   : 	if( hr == E_OUTOFMEMORY )

  00000	8b 44 24 04	 mov	 eax, DWORD PTR _hr$[esp-4]
  00004	3d 0e 00 07 80	 cmp	 eax, -2147024882	; 8007000eH
  00009	75 05		 jne	 SHORT $L39168

; 65   : 	{
; 66   : 		AfxThrowMemoryException();

  0000b	e8 00 00 00 00	 call	 ?AfxThrowMemoryException@@YGXXZ ; AfxThrowMemoryException
$L264046:
$L39168:

; 67   : 	}
; 68   : 	else
; 69   : 	{
; 70   : 		AfxThrowOleException( hr );

  00010	50		 push	 eax
  00011	e8 00 00 00 00	 call	 ?AfxThrowOleException@@YGXJ@Z ; AfxThrowOleException
$L264047:
$L264045:
  00016	cc		 int	 3
?AtlThrow@ATL@@YGXJ@Z ENDP				; ATL::AtlThrow
_TEXT	ENDS
PUBLIC	?_AtlGetStringResourceImage@ATL@@YAPBUATLSTRINGRESOURCEIMAGE@1@PAUHINSTANCE__@@PAUHRSRC__@@I@Z ; ATL::_AtlGetStringResourceImage
EXTRN	__imp__LoadResource@8:NEAR
EXTRN	__imp__SizeofResource@8:NEAR
EXTRN	__imp__LockResource@4:NEAR
; Function compile flags: /Ogty
; File c:\program files\microsoft visual studio .net 2003\vc7\atlmfc\include\atlcore.h
;	COMDAT ?_AtlGetStringResourceImage@ATL@@YAPBUATLSTRINGRESOURCEIMAGE@1@PAUHINSTANCE__@@PAUHRSRC__@@I@Z
_TEXT	SEGMENT
_hInstance$ = 8						; size = 4
_hResource$ = 12					; size = 4
_id$ = 16						; size = 4
?_AtlGetStringResourceImage@ATL@@YAPBUATLSTRINGRESOURCEIMAGE@1@PAUHINSTANCE__@@PAUHRSRC__@@I@Z PROC NEAR ; ATL::_AtlGetStringResourceImage, COMDAT

; 239  : {

  00000	53		 push	 ebx

; 240  : 	const ATLSTRINGRESOURCEIMAGE* pImage;
; 241  : 	const ATLSTRINGRESOURCEIMAGE* pImageEnd;
; 242  : 	ULONG nResourceSize;
; 243  : 	HGLOBAL hGlobal;
; 244  : 	UINT iIndex;
; 245  : 
; 246  : 	hGlobal = ::LoadResource( hInstance, hResource );

  00001	8b 5c 24 08	 mov	 ebx, DWORD PTR _hInstance$[esp]
  00005	57		 push	 edi
  00006	8b 7c 24 10	 mov	 edi, DWORD PTR _hResource$[esp+4]
  0000a	57		 push	 edi
  0000b	53		 push	 ebx
  0000c	ff 15 00 00 00
	00		 call	 DWORD PTR __imp__LoadResource@8

; 247  : 	if( hGlobal == NULL )

  00012	85 c0		 test	 eax, eax
  00014	75 03		 jne	 SHORT $L39522
  00016	5f		 pop	 edi
  00017	5b		 pop	 ebx

; 272  : 	{
; 273  : 		return( NULL );
; 274  : 	}
; 275  : 
; 276  : 	return( pImage );
; 277  : }

  00018	c3		 ret	 0
$L39522:
  00019	56		 push	 esi

; 248  : 	{
; 249  : 		return( NULL );
; 250  : 	}
; 251  : 
; 252  : 	pImage = (const ATLSTRINGRESOURCEIMAGE*)::LockResource( hGlobal );

  0001a	50		 push	 eax
  0001b	ff 15 00 00 00
	00		 call	 DWORD PTR __imp__LockResource@4
  00021	8b f0		 mov	 esi, eax

; 253  : 	if( pImage == NULL )

  00023	85 f6		 test	 esi, esi
  00025	75 06		 jne	 SHORT $L39524
$L264053:
  00027	5e		 pop	 esi
  00028	5f		 pop	 edi

; 254  : 	{
; 255  : 		return( NULL );

  00029	33 c0		 xor	 eax, eax
  0002b	5b		 pop	 ebx

; 272  : 	{
; 273  : 		return( NULL );
; 274  : 	}
; 275  : 
; 276  : 	return( pImage );
; 277  : }

  0002c	c3		 ret	 0
$L39524:

; 256  : 	}
; 257  : 
; 258  : 	nResourceSize = ::SizeofResource( hInstance, hResource );

  0002d	57		 push	 edi
  0002e	53		 push	 ebx
  0002f	ff 15 00 00 00
	00		 call	 DWORD PTR __imp__SizeofResource@8

; 259  : 	pImageEnd = (const ATLSTRINGRESOURCEIMAGE*)(LPBYTE( pImage )+nResourceSize);
; 260  : 	iIndex = id&0x000f;

  00035	8b 4c 24 18	 mov	 ecx, DWORD PTR _id$[esp+8]
  00039	03 c6		 add	 eax, esi
  0003b	83 e1 0f	 and	 ecx, 15			; 0000000fH

; 261  : 
; 262  : 	while( (iIndex > 0) && (pImage < pImageEnd) )

  0003e	76 0e		 jbe	 SHORT $L39528
$L39527:
  00040	3b f0		 cmp	 esi, eax
  00042	73 e3		 jae	 SHORT $L264053

; 263  : 	{
; 264  : 		pImage = (const ATLSTRINGRESOURCEIMAGE*)(LPBYTE( pImage )+(sizeof( ATLSTRINGRESOURCEIMAGE )+(pImage->nLength*sizeof( WCHAR ))));
; 265  : 		iIndex--;

  00044	49		 dec	 ecx
  00045	0f b7 16	 movzx	 edx, WORD PTR [esi]
  00048	8d 74 56 02	 lea	 esi, DWORD PTR [esi+edx*2+2]
  0004c	75 f2		 jne	 SHORT $L39527
$L39528:

; 266  : 	}
; 267  : 	if( pImage >= pImageEnd )

  0004e	3b f0		 cmp	 esi, eax

; 268  : 	{
; 269  : 		return( NULL );

  00050	73 d5		 jae	 SHORT $L264053

; 270  : 	}
; 271  : 	if( pImage->nLength == 0 )

  00052	66 8b 06	 mov	 ax, WORD PTR [esi]
  00055	66 f7 d8	 neg	 ax
  00058	1b c0		 sbb	 eax, eax
  0005a	23 c6		 and	 eax, esi
  0005c	5e		 pop	 esi
  0005d	5f		 pop	 edi
  0005e	5b		 pop	 ebx

; 272  : 	{
; 273  : 		return( NULL );
; 274  : 	}
; 275  : 
; 276  : 	return( pImage );
; 277  : }

  0005f	c3		 ret	 0
?_AtlGetStringResourceImage@ATL@@YAPBUATLSTRINGRESOURCEIMAGE@1@PAUHINSTANCE__@@PAUHRSRC__@@I@Z ENDP ; ATL::_AtlGetStringResourceImage
_TEXT	ENDS
PUBLIC	?AtlGetStringResourceImage@ATL@@YAPBUATLSTRINGRESOURCEIMAGE@1@PAUHINSTANCE__@@I@Z ; ATL::AtlGetStringResourceImage
EXTRN	__imp__FindResourceA@12:NEAR
; Function compile flags: /Ogty
;	COMDAT ?AtlGetStringResourceImage@ATL@@YAPBUATLSTRINGRESOURCEIMAGE@1@PAUHINSTANCE__@@I@Z
_TEXT	SEGMENT
_hInstance$ = 8						; size = 4
_id$ = 12						; size = 4
?AtlGetStringResourceImage@ATL@@YAPBUATLSTRINGRESOURCEIMAGE@1@PAUHINSTANCE__@@I@Z PROC NEAR ; ATL::AtlGetStringResourceImage, COMDAT

; 280  : {

  00000	56		 push	 esi

; 281  : 	HRSRC hResource;
; 282  : 
; 283  : 	hResource = ::FindResource( hInstance, MAKEINTRESOURCE( ((id>>4)+1) ), RT_STRING );

  00001	8b 74 24 0c	 mov	 esi, DWORD PTR _id$[esp]
  00005	8b c6		 mov	 eax, esi
  00007	c1 e8 04	 shr	 eax, 4
  0000a	57		 push	 edi
  0000b	8b 7c 24 0c	 mov	 edi, DWORD PTR _hInstance$[esp+4]
  0000f	40		 inc	 eax
  00010	0f b7 c8	 movzx	 ecx, ax
  00013	6a 06		 push	 6
  00015	51		 push	 ecx
  00016	57		 push	 edi
  00017	ff 15 00 00 00
	00		 call	 DWORD PTR __imp__FindResourceA@12

; 284  : 	if( hResource == NULL )

  0001d	85 c0		 test	 eax, eax
  0001f	75 03		 jne	 SHORT $L39545
  00021	5f		 pop	 edi
  00022	5e		 pop	 esi

; 290  : }

  00023	c3		 ret	 0
$L39545:

; 285  : 	{
; 286  : 		return( NULL );
; 287  : 	}
; 288  : 
; 289  : 	return _AtlGetStringResourceImage( hInstance, hResource, id );

  00024	56		 push	 esi
  00025	50		 push	 eax
  00026	57		 push	 edi
  00027	e8 00 00 00 00	 call	 ?_AtlGetStringResourceImage@ATL@@YAPBUATLSTRINGRESOURCEIMAGE@1@PAUHINSTANCE__@@PAUHRSRC__@@I@Z ; ATL::_AtlGetStringResourceImage
  0002c	83 c4 0c	 add	 esp, 12			; 0000000cH
  0002f	5f		 pop	 edi
  00030	5e		 pop	 esi

; 290  : }

  00031	c3		 ret	 0
?AtlGetStringResourceImage@ATL@@YAPBUATLSTRINGRESOURCEIMAGE@1@PAUHINSTANCE__@@I@Z ENDP ; ATL::AtlGetStringResourceImage
_TEXT	ENDS
PUBLIC	?IsInstanceDungeon@CInstanceDungeonHelper@@QAEHK@Z ; CInstanceDungeonHelper::IsInstanceDungeon
EXTRN	?GetType@CInstanceDungeonHelper@@AAEHK@Z:NEAR	; CInstanceDungeonHelper::GetType
; Function compile flags: /Ogty
; File c:\documents and settings\test\mes documents\source\virtuos_v17\build\program\_common\instancedungeonbase.h
;	COMDAT ?IsInstanceDungeon@CInstanceDungeonHelper@@QAEHK@Z
_TEXT	SEGMENT
_dwWorldId$ = 8						; size = 4
?IsInstanceDungeon@CInstanceDungeonHelper@@QAEHK@Z PROC NEAR ; CInstanceDungeonHelper::IsInstanceDungeon, COMDAT
; _this$ = ecx

; 205  : 	BOOL	IsInstanceDungeon( DWORD dwWorldId )	{ return GetType( dwWorldId ) != NULL_ID; }

  00000	8b 44 24 04	 mov	 eax, DWORD PTR _dwWorldId$[esp-4]
  00004	50		 push	 eax
  00005	e8 00 00 00 00	 call	 ?GetType@CInstanceDungeonHelper@@AAEHK@Z ; CInstanceDungeonHelper::GetType
  0000a	33 c9		 xor	 ecx, ecx
  0000c	83 f8 ff	 cmp	 eax, -1
  0000f	0f 95 c1	 setne	 cl
  00012	8b c1		 mov	 eax, ecx
  00014	c2 04 00	 ret	 4
?IsInstanceDungeon@CInstanceDungeonHelper@@QAEHK@Z ENDP	; CInstanceDungeonHelper::IsInstanceDungeon
_TEXT	ENDS
PUBLIC	?data@CStringData@ATL@@QAEPAXXZ			; ATL::CStringData::data
; Function compile flags: /Ogty
; File c:\program files\microsoft visual studio .net 2003\vc7\atlmfc\include\atlsimpstr.h
;	COMDAT ?data@CStringData@ATL@@QAEPAXXZ
_TEXT	SEGMENT
?data@CStringData@ATL@@QAEPAXXZ PROC NEAR		; ATL::CStringData::data, COMDAT
; _this$ = ecx

; 66   : 		return (this+1);

  00000	8d 41 10	 lea	 eax, DWORD PTR [ecx+16]

; 67   : 	}

  00003	c3		 ret	 0
?data@CStringData@ATL@@QAEPAXXZ ENDP			; ATL::CStringData::data
_TEXT	ENDS
PUBLIC	?IsLocked@CStringData@ATL@@QBE_NXZ		; ATL::CStringData::IsLocked
; Function compile flags: /Ogty
;	COMDAT ?IsLocked@CStringData@ATL@@QBE_NXZ
_TEXT	SEGMENT
?IsLocked@CStringData@ATL@@QBE_NXZ PROC NEAR		; ATL::CStringData::IsLocked, COMDAT
; _this$ = ecx

; 76   : 		return nRefs < 0;

  00000	8b 51 0c	 mov	 edx, DWORD PTR [ecx+12]
  00003	33 c0		 xor	 eax, eax
  00005	85 d2		 test	 edx, edx
  00007	0f 9c c0	 setl	 al

; 77   : 	}

  0000a	c3		 ret	 0
?IsLocked@CStringData@ATL@@QBE_NXZ ENDP			; ATL::CStringData::IsLocked
_TEXT	ENDS
PUBLIC	?IsShared@CStringData@ATL@@QBE_NXZ		; ATL::CStringData::IsShared
; Function compile flags: /Ogty
;	COMDAT ?IsShared@CStringData@ATL@@QBE_NXZ
_TEXT	SEGMENT
?IsShared@CStringData@ATL@@QBE_NXZ PROC NEAR		; ATL::CStringData::IsShared, COMDAT
; _this$ = ecx

; 80   : 		return( nRefs > 1 ); 

  00000	8b 51 0c	 mov	 edx, DWORD PTR [ecx+12]
  00003	33 c0		 xor	 eax, eax
  00005	83 fa 01	 cmp	 edx, 1
  00008	0f 9f c0	 setg	 al

; 81   : 	}

  0000b	c3		 ret	 0
?IsShared@CStringData@ATL@@QBE_NXZ ENDP			; ATL::CStringData::IsShared
_TEXT	ENDS
PUBLIC	?Release@CStringData@ATL@@QAEXXZ		; ATL::CStringData::Release
; Function compile flags: /Ogty
;	COMDAT ?Release@CStringData@ATL@@QAEXXZ
_TEXT	SEGMENT
?Release@CStringData@ATL@@QAEXXZ PROC NEAR		; ATL::CStringData::Release, COMDAT
; _this$ = ecx

; 93   : 		ATLASSERT( nRefs != 0 );
; 94   : 
; 95   : 		if( _InterlockedDecrement( &nRefs ) <= 0 )

  00000	8d 41 0c	 lea	 eax, DWORD PTR [ecx+12]
  00003	83 ca ff	 or	 edx, -1
  00006	f0 0f c1 10	 lock	  xadd	 DWORD PTR [eax], edx
  0000a	4a		 dec	 edx
  0000b	85 d2		 test	 edx, edx
  0000d	7f 0a		 jg	 SHORT $L39885

; 96   : 		{
; 97   : 			pStringMgr->Free( this );

  0000f	8b 01		 mov	 eax, DWORD PTR [ecx]
  00011	8b 10		 mov	 edx, DWORD PTR [eax]
  00013	51		 push	 ecx
  00014	8b c8		 mov	 ecx, eax
  00016	ff 52 04	 call	 DWORD PTR [edx+4]
$L39885:

; 98   : 		}
; 99   : 	}

  00019	c3		 ret	 0
?Release@CStringData@ATL@@QAEXXZ ENDP			; ATL::CStringData::Release
_TEXT	ENDS
PUBLIC	?RegionDesc_SaveFormatToString@@YAXPAG@Z	; RegionDesc_SaveFormatToString
; Function compile flags: /Ogty
; File c:\documents and settings\test\mes documents\source\virtuos_v17\build\program\_common\worldfile.cpp
;	COMDAT ?RegionDesc_SaveFormatToString@@YAXPAG@Z
_TEXT	SEGMENT
_pwszDesc$ = 8						; size = 4
?RegionDesc_SaveFormatToString@@YAXPAG@Z PROC NEAR	; RegionDesc_SaveFormatToString, COMDAT

; 387  : 	wchar_t* pwszSrc = pwszDesc;

  00000	8b 44 24 04	 mov	 eax, DWORD PTR _pwszDesc$[esp-4]

; 388  : 	while( *pwszSrc )

  00004	66 83 38 00	 cmp	 WORD PTR [eax], 0
  00008	74 28		 je	 SHORT $L258550
  0000a	ba 6e 00 00 00	 mov	 edx, 110		; 0000006eH
  0000f	b9 0a 00 00 00	 mov	 ecx, 10			; 0000000aH
$L258549:

; 389  : 	{
; 390  : 		if( *pwszSrc == '\\' && *(pwszSrc + 1 )== 'n')

  00014	66 83 38 5c	 cmp	 WORD PTR [eax], 92	; 0000005cH
  00018	75 0f		 jne	 SHORT $L258551
  0001a	66 39 50 02	 cmp	 WORD PTR [eax+2], dx
  0001e	75 09		 jne	 SHORT $L258551

; 391  : 		{
; 392  : 			*(pwszSrc + 0) = '\r';

  00020	66 c7 00 0d 00	 mov	 WORD PTR [eax], 13	; 0000000dH

; 393  : 			*(pwszSrc + 1) = '\n';

  00025	66 89 48 02	 mov	 WORD PTR [eax+2], cx
$L258551:

; 394  : 		}
; 395  : 		pwszSrc++;

  00029	83 c0 02	 add	 eax, 2
  0002c	66 83 38 00	 cmp	 WORD PTR [eax], 0
  00030	75 e2		 jne	 SHORT $L258549
$L258550:

; 396  : 	}
; 397  : }

  00032	c3		 ret	 0
?RegionDesc_SaveFormatToString@@YAXPAG@Z ENDP		; RegionDesc_SaveFormatToString
_TEXT	ENDS
PUBLIC	?RegionDesc_StringToSaveFormat@@YAXPAG@Z	; RegionDesc_StringToSaveFormat
; Function compile flags: /Ogty
;	COMDAT ?RegionDesc_StringToSaveFormat@@YAXPAG@Z
_TEXT	SEGMENT
_pwszDesc$ = 8						; size = 4
?RegionDesc_StringToSaveFormat@@YAXPAG@Z PROC NEAR	; RegionDesc_StringToSaveFormat, COMDAT

; 401  : 	wchar_t* pwszSrc = pwszDesc;

  00000	8b 44 24 04	 mov	 eax, DWORD PTR _pwszDesc$[esp-4]

; 402  : 	while( *pwszSrc )

  00004	66 83 38 00	 cmp	 WORD PTR [eax], 0
  00008	74 28		 je	 SHORT $L258558
  0000a	ba 0a 00 00 00	 mov	 edx, 10			; 0000000aH
  0000f	b9 6e 00 00 00	 mov	 ecx, 110		; 0000006eH
$L258557:

; 403  : 	{
; 404  : 		if( *pwszSrc == '\r' && *(pwszSrc + 1 )== '\n')

  00014	66 83 38 0d	 cmp	 WORD PTR [eax], 13	; 0000000dH
  00018	75 0f		 jne	 SHORT $L258559
  0001a	66 39 50 02	 cmp	 WORD PTR [eax+2], dx
  0001e	75 09		 jne	 SHORT $L258559

; 405  : 		{
; 406  : 			*(pwszSrc + 0) = '\\';

  00020	66 c7 00 5c 00	 mov	 WORD PTR [eax], 92	; 0000005cH

; 407  : 			*(pwszSrc + 1) = 'n';

  00025	66 89 48 02	 mov	 WORD PTR [eax+2], cx
$L258559:

; 408  : 		}
; 409  : 		pwszSrc++;

  00029	83 c0 02	 add	 eax, 2
  0002c	66 83 38 00	 cmp	 WORD PTR [eax], 0
  00030	75 e2		 jne	 SHORT $L258557
$L258558:

; 410  : 	}	
; 411  : }

  00032	c3		 ret	 0
?RegionDesc_StringToSaveFormat@@YAXPAG@Z ENDP		; RegionDesc_StringToSaveFormat
_TEXT	ENDS
PUBLIC	?size@?$vector@KV?$allocator@K@std@@@std@@QBEIXZ ; std::vector<unsigned long,std::allocator<unsigned long> >::size
; Function compile flags: /Ogty
; File c:\program files\microsoft visual studio .net 2003\vc7\include\vector
;	COMDAT ?size@?$vector@KV?$allocator@K@std@@@std@@QBEIXZ
_TEXT	SEGMENT
?size@?$vector@KV?$allocator@K@std@@@std@@QBEIXZ PROC NEAR ; std::vector<unsigned long,std::allocator<unsigned long> >::size, COMDAT
; _this$ = ecx

; 516  : 		return (_Myfirst == 0 ? 0 : _Mylast - _Myfirst);

  00000	8b 51 04	 mov	 edx, DWORD PTR [ecx+4]
  00003	85 d2		 test	 edx, edx
  00005	75 03		 jne	 SHORT $L264086
  00007	33 c0		 xor	 eax, eax

; 517  : 		}

  00009	c3		 ret	 0
$L264086:

; 516  : 		return (_Myfirst == 0 ? 0 : _Mylast - _Myfirst);

  0000a	8b 41 08	 mov	 eax, DWORD PTR [ecx+8]
  0000d	2b c2		 sub	 eax, edx
  0000f	c1 f8 02	 sar	 eax, 2

; 517  : 		}

  00012	c3		 ret	 0
?size@?$vector@KV?$allocator@K@std@@@std@@QBEIXZ ENDP	; std::vector<unsigned long,std::allocator<unsigned long> >::size
_TEXT	ENDS
PUBLIC	?empty@?$vector@KV?$allocator@K@std@@@std@@QBE_NXZ ; std::vector<unsigned long,std::allocator<unsigned long> >::empty
; Function compile flags: /Ogty
;	COMDAT ?empty@?$vector@KV?$allocator@K@std@@@std@@QBE_NXZ
_TEXT	SEGMENT
?empty@?$vector@KV?$allocator@K@std@@@std@@QBE_NXZ PROC NEAR ; std::vector<unsigned long,std::allocator<unsigned long> >::empty, COMDAT
; _this$ = ecx

; 526  : 		return (size() == 0);

  00000	8b 51 04	 mov	 edx, DWORD PTR [ecx+4]
  00003	85 d2		 test	 edx, edx
  00005	75 0c		 jne	 SHORT $L264095
  00007	33 c0		 xor	 eax, eax
  00009	33 c9		 xor	 ecx, ecx
  0000b	85 c0		 test	 eax, eax
  0000d	0f 94 c1	 sete	 cl
  00010	8a c1		 mov	 al, cl

; 527  : 		}

  00012	c3		 ret	 0

; 526  : 		return (size() == 0);

$L264095:
  00013	8b 41 08	 mov	 eax, DWORD PTR [ecx+8]
  00016	2b c2		 sub	 eax, edx
  00018	c1 f8 02	 sar	 eax, 2
  0001b	33 c9		 xor	 ecx, ecx
  0001d	85 c0		 test	 eax, eax
  0001f	0f 94 c1	 sete	 cl
  00022	8a c1		 mov	 al, cl

; 527  : 		}

  00024	c3		 ret	 0
?empty@?$vector@KV?$allocator@K@std@@@std@@QBE_NXZ ENDP	; std::vector<unsigned long,std::allocator<unsigned long> >::empty
_TEXT	ENDS
PUBLIC	?SafeStringLen@?$ChTraitsCRT@D@ATL@@SAHPBD@Z	; ATL::ChTraitsCRT<char>::SafeStringLen
; Function compile flags: /Ogty
; File c:\program files\microsoft visual studio .net 2003\vc7\atlmfc\include\cstringt.h
;	COMDAT ?SafeStringLen@?$ChTraitsCRT@D@ATL@@SAHPBD@Z
_TEXT	SEGMENT
_psz$ = 8						; size = 4
?SafeStringLen@?$ChTraitsCRT@D@ATL@@SAHPBD@Z PROC NEAR	; ATL::ChTraitsCRT<char>::SafeStringLen, COMDAT

; 508  : 		// returns length in bytes
; 509  : 		return (psz != NULL) ? int( strlen( psz ) ) : 0;

  00000	8b 44 24 04	 mov	 eax, DWORD PTR _psz$[esp-4]
  00004	85 c0		 test	 eax, eax
  00006	74 12		 je	 SHORT $L264101
  00008	8d 50 01	 lea	 edx, DWORD PTR [eax+1]
  0000b	eb 03 8d 49 00	 npad	 5
$L264103:
  00010	8a 08		 mov	 cl, BYTE PTR [eax]
  00012	40		 inc	 eax
  00013	84 c9		 test	 cl, cl
  00015	75 f9		 jne	 SHORT $L264103
  00017	2b c2		 sub	 eax, edx

; 510  : 	}

  00019	c3		 ret	 0
$L264101:

; 508  : 		// returns length in bytes
; 509  : 		return (psz != NULL) ? int( strlen( psz ) ) : 0;

  0001a	33 c0		 xor	 eax, eax

; 510  : 	}

  0001c	c3		 ret	 0
?SafeStringLen@?$ChTraitsCRT@D@ATL@@SAHPBD@Z ENDP	; ATL::ChTraitsCRT<char>::SafeStringLen
_TEXT	ENDS
PUBLIC	??0CRect@@QAE@XZ				; CRect::CRect
; Function compile flags: /Ogty
; File c:\program files\microsoft visual studio .net 2003\vc7\atlmfc\include\atltypes.inl
;	COMDAT ??0CRect@@QAE@XZ
_TEXT	SEGMENT
??0CRect@@QAE@XZ PROC NEAR				; CRect::CRect, COMDAT
; _this$ = ecx

; 110  : 	{ /* random filled */ }

  00000	8b c1		 mov	 eax, ecx
  00002	c3		 ret	 0
??0CRect@@QAE@XZ ENDP					; CRect::CRect
_TEXT	ENDS
PUBLIC	?capacity@?$vector@PAVCObj@@V?$allocator@PAVCObj@@@std@@@std@@QBEIXZ ; std::vector<CObj *,std::allocator<CObj *> >::capacity
; Function compile flags: /Ogty
; File c:\program files\microsoft visual studio .net 2003\vc7\include\vector
;	COMDAT ?capacity@?$vector@PAVCObj@@V?$allocator@PAVCObj@@@std@@@std@@QBEIXZ
_TEXT	SEGMENT
?capacity@?$vector@PAVCObj@@V?$allocator@PAVCObj@@@std@@@std@@QBEIXZ PROC NEAR ; std::vector<CObj *,std::allocator<CObj *> >::capacity, COMDAT
; _this$ = ecx

; 458  : 		return (_Myfirst == 0 ? 0 : _Myend - _Myfirst);

  00000	8b 51 04	 mov	 edx, DWORD PTR [ecx+4]
  00003	85 d2		 test	 edx, edx
  00005	75 03		 jne	 SHORT $L264110
  00007	33 c0		 xor	 eax, eax

; 459  : 		}

  00009	c3		 ret	 0
$L264110:

; 458  : 		return (_Myfirst == 0 ? 0 : _Myend - _Myfirst);

  0000a	8b 41 0c	 mov	 eax, DWORD PTR [ecx+12]
  0000d	2b c2		 sub	 eax, edx
  0000f	c1 f8 02	 sar	 eax, 2

; 459  : 		}

  00012	c3		 ret	 0
?capacity@?$vector@PAVCObj@@V?$allocator@PAVCObj@@@std@@@std@@QBEIXZ ENDP ; std::vector<CObj *,std::allocator<CObj *> >::capacity
_TEXT	ENDS
PUBLIC	?size@?$vector@PAVCObj@@V?$allocator@PAVCObj@@@std@@@std@@QBEIXZ ; std::vector<CObj *,std::allocator<CObj *> >::size
; Function compile flags: /Ogty
;	COMDAT ?size@?$vector@PAVCObj@@V?$allocator@PAVCObj@@@std@@@std@@QBEIXZ
_TEXT	SEGMENT
?size@?$vector@PAVCObj@@V?$allocator@PAVCObj@@@std@@@std@@QBEIXZ PROC NEAR ; std::vector<CObj *,std::allocator<CObj *> >::size, COMDAT
; _this$ = ecx

; 516  : 		return (_Myfirst == 0 ? 0 : _Mylast - _Myfirst);

  00000	8b 51 04	 mov	 edx, DWORD PTR [ecx+4]
  00003	85 d2		 test	 edx, edx
  00005	75 03		 jne	 SHORT $L264115
  00007	33 c0		 xor	 eax, eax

; 517  : 		}

  00009	c3		 ret	 0
$L264115:

; 516  : 		return (_Myfirst == 0 ? 0 : _Mylast - _Myfirst);

  0000a	8b 41 08	 mov	 eax, DWORD PTR [ecx+8]
  0000d	2b c2		 sub	 eax, edx
  0000f	c1 f8 02	 sar	 eax, 2

; 517  : 		}

  00012	c3		 ret	 0
?size@?$vector@PAVCObj@@V?$allocator@PAVCObj@@@std@@@std@@QBEIXZ ENDP ; std::vector<CObj *,std::allocator<CObj *> >::size
_TEXT	ENDS
PUBLIC	?StringCompare@?$ChTraitsCRT@D@ATL@@SAHPBD0@Z	; ATL::ChTraitsCRT<char>::StringCompare
EXTRN	__mbscmp:NEAR
; Function compile flags: /Ogty
; File c:\program files\microsoft visual studio .net 2003\vc7\atlmfc\include\cstringt.h
;	COMDAT ?StringCompare@?$ChTraitsCRT@D@ATL@@SAHPBD0@Z
_TEXT	SEGMENT
_pszA$ = 8						; size = 4
_pszB$ = 12						; size = 4
?StringCompare@?$ChTraitsCRT@D@ATL@@SAHPBD0@Z PROC NEAR	; ATL::ChTraitsCRT<char>::StringCompare, COMDAT

; 336  : 		return _mbscmp( reinterpret_cast< const unsigned char* >( pszA ), reinterpret_cast< const unsigned char* >( pszB ) );

  00000	e9 00 00 00 00	 jmp	 __mbscmp
?StringCompare@?$ChTraitsCRT@D@ATL@@SAHPBD0@Z ENDP	; ATL::ChTraitsCRT<char>::StringCompare
_TEXT	ENDS
PUBLIC	??Yiterator@?$vector@KV?$allocator@K@std@@@std@@QAEAAV012@H@Z ; std::vector<unsigned long,std::allocator<unsigned long> >::iterator::operator+=
; Function compile flags: /Ogty
; File c:\program files\microsoft visual studio .net 2003\vc7\include\vector
;	COMDAT ??Yiterator@?$vector@KV?$allocator@K@std@@@std@@QAEAAV012@H@Z
_TEXT	SEGMENT
__Off$ = 8						; size = 4
??Yiterator@?$vector@KV?$allocator@K@std@@@std@@QAEAAV012@H@Z PROC NEAR ; std::vector<unsigned long,std::allocator<unsigned long> >::iterator::operator+=, COMDAT
; _this$ = ecx

; 255  : 			{	// increment by integer

  00000	8b c1		 mov	 eax, ecx

; 256  : 			this->_Myptr += _Off;

  00002	8b 4c 24 04	 mov	 ecx, DWORD PTR __Off$[esp-4]
  00006	8d 14 8d 00 00
	00 00		 lea	 edx, DWORD PTR [ecx*4]
  0000d	01 10		 add	 DWORD PTR [eax], edx

; 257  : 			return (*this);
; 258  : 			}

  0000f	c2 04 00	 ret	 4
??Yiterator@?$vector@KV?$allocator@K@std@@@std@@QAEAAV012@H@Z ENDP ; std::vector<unsigned long,std::allocator<unsigned long> >::iterator::operator+=
_TEXT	ENDS
PUBLIC	??Dconst_iterator@?$vector@KV?$allocator@K@std@@@std@@QBEABKXZ ; std::vector<unsigned long,std::allocator<unsigned long> >::const_iterator::operator*
; Function compile flags: /Ogty
;	COMDAT ??Dconst_iterator@?$vector@KV?$allocator@K@std@@@std@@QBEABKXZ
_TEXT	SEGMENT
??Dconst_iterator@?$vector@KV?$allocator@K@std@@@std@@QBEABKXZ PROC NEAR ; std::vector<unsigned long,std::allocator<unsigned long> >::const_iterator::operator*, COMDAT
; _this$ = ecx

; 80   : 
; 81   : 
; 82   : 			return (*_Myptr);

  00000	8b 01		 mov	 eax, DWORD PTR [ecx]

; 83   : 			}

  00002	c3		 ret	 0
??Dconst_iterator@?$vector@KV?$allocator@K@std@@@std@@QBEABKXZ ENDP ; std::vector<unsigned long,std::allocator<unsigned long> >::const_iterator::operator*
_TEXT	ENDS
PUBLIC	?deallocate@?$allocator@PAVCObj@@@std@@QAEXPAPAVCObj@@I@Z ; std::allocator<CObj *>::deallocate
EXTRN	??3@YAXPAX@Z:NEAR				; operator delete
; Function compile flags: /Ogty
; File c:\program files\microsoft visual studio .net 2003\vc7\include\xmemory
;	COMDAT ?deallocate@?$allocator@PAVCObj@@@std@@QAEXPAPAVCObj@@I@Z
_TEXT	SEGMENT
__Ptr$ = 8						; size = 4
___formal$ = 12						; size = 4
?deallocate@?$allocator@PAVCObj@@@std@@QAEXPAPAVCObj@@I@Z PROC NEAR ; std::allocator<CObj *>::deallocate, COMDAT
; _this$ = ecx

; 132  : 		operator delete(_Ptr);

  00000	8b 44 24 04	 mov	 eax, DWORD PTR __Ptr$[esp-4]
  00004	50		 push	 eax
  00005	e8 00 00 00 00	 call	 ??3@YAXPAX@Z		; operator delete
  0000a	59		 pop	 ecx

; 133  : 		}

  0000b	c2 08 00	 ret	 8
?deallocate@?$allocator@PAVCObj@@@std@@QAEXPAPAVCObj@@I@Z ENDP ; std::allocator<CObj *>::deallocate
_TEXT	ENDS
PUBLIC	??0const_iterator@?$vector@KV?$allocator@K@std@@@std@@QAE@PAK@Z ; std::vector<unsigned long,std::allocator<unsigned long> >::const_iterator::const_iterator
; Function compile flags: /Ogty
; File c:\program files\microsoft visual studio .net 2003\vc7\include\vector
;	COMDAT ??0const_iterator@?$vector@KV?$allocator@K@std@@@std@@QAE@PAK@Z
_TEXT	SEGMENT
__Ptr$ = 8						; size = 4
??0const_iterator@?$vector@KV?$allocator@K@std@@@std@@QAE@PAK@Z PROC NEAR ; std::vector<unsigned long,std::allocator<unsigned long> >::const_iterator::const_iterator, COMDAT
; _this$ = ecx

; 73   : 		const_iterator(_Tptr _Ptr)

  00000	8b c1		 mov	 eax, ecx

; 74   : 			{	// construct with pointer _Ptr
; 75   : 			_Myptr = _Ptr;

  00002	8b 4c 24 04	 mov	 ecx, DWORD PTR __Ptr$[esp-4]
  00006	89 08		 mov	 DWORD PTR [eax], ecx

; 76   : 			}

  00008	c2 04 00	 ret	 4
??0const_iterator@?$vector@KV?$allocator@K@std@@@std@@QAE@PAK@Z ENDP ; std::vector<unsigned long,std::allocator<unsigned long> >::const_iterator::const_iterator
_TEXT	ENDS
PUBLIC	??Yiterator@?$vector@PAVCObj@@V?$allocator@PAVCObj@@@std@@@std@@QAEAAV012@H@Z ; std::vector<CObj *,std::allocator<CObj *> >::iterator::operator+=
; Function compile flags: /Ogty
;	COMDAT ??Yiterator@?$vector@PAVCObj@@V?$allocator@PAVCObj@@@std@@@std@@QAEAAV012@H@Z
_TEXT	SEGMENT
__Off$ = 8						; size = 4
??Yiterator@?$vector@PAVCObj@@V?$allocator@PAVCObj@@@std@@@std@@QAEAAV012@H@Z PROC NEAR ; std::vector<CObj *,std::allocator<CObj *> >::iterator::operator+=, COMDAT
; _this$ = ecx

; 255  : 			{	// increment by integer

  00000	8b c1		 mov	 eax, ecx

; 256  : 			this->_Myptr += _Off;

  00002	8b 4c 24 04	 mov	 ecx, DWORD PTR __Off$[esp-4]
  00006	8d 14 8d 00 00
	00 00		 lea	 edx, DWORD PTR [ecx*4]
  0000d	01 10		 add	 DWORD PTR [eax], edx

; 257  : 			return (*this);
; 258  : 			}

  0000f	c2 04 00	 ret	 4
??Yiterator@?$vector@PAVCObj@@V?$allocator@PAVCObj@@@std@@@std@@QAEAAV012@H@Z ENDP ; std::vector<CObj *,std::allocator<CObj *> >::iterator::operator+=
_TEXT	ENDS
PUBLIC	??0const_iterator@?$vector@PAVCObj@@V?$allocator@PAVCObj@@@std@@@std@@QAE@PAPAVCObj@@@Z ; std::vector<CObj *,std::allocator<CObj *> >::const_iterator::const_iterator
; Function compile flags: /Ogty
;	COMDAT ??0const_iterator@?$vector@PAVCObj@@V?$allocator@PAVCObj@@@std@@@std@@QAE@PAPAVCObj@@@Z
_TEXT	SEGMENT
__Ptr$ = 8						; size = 4
??0const_iterator@?$vector@PAVCObj@@V?$allocator@PAVCObj@@@std@@@std@@QAE@PAPAVCObj@@@Z PROC NEAR ; std::vector<CObj *,std::allocator<CObj *> >::const_iterator::const_iterator, COMDAT
; _this$ = ecx

; 73   : 		const_iterator(_Tptr _Ptr)

  00000	8b c1		 mov	 eax, ecx

; 74   : 			{	// construct with pointer _Ptr
; 75   : 			_Myptr = _Ptr;

  00002	8b 4c 24 04	 mov	 ecx, DWORD PTR __Ptr$[esp-4]
  00006	89 08		 mov	 DWORD PTR [eax], ecx

; 76   : 			}

  00008	c2 04 00	 ret	 4
??0const_iterator@?$vector@PAVCObj@@V?$allocator@PAVCObj@@@std@@@std@@QAE@PAPAVCObj@@@Z ENDP ; std::vector<CObj *,std::allocator<CObj *> >::const_iterator::const_iterator
_TEXT	ENDS
PUBLIC	??Gconst_iterator@?$vector@PAVCObj@@V?$allocator@PAVCObj@@@std@@@std@@QBEHABV012@@Z ; std::vector<CObj *,std::allocator<CObj *> >::const_iterator::operator-
; Function compile flags: /Ogty
;	COMDAT ??Gconst_iterator@?$vector@PAVCObj@@V?$allocator@PAVCObj@@@std@@@std@@QBEHABV012@@Z
_TEXT	SEGMENT
__Right$ = 8						; size = 4
??Gconst_iterator@?$vector@PAVCObj@@V?$allocator@PAVCObj@@@std@@@std@@QBEHABV012@@Z PROC NEAR ; std::vector<CObj *,std::allocator<CObj *> >::const_iterator::operator-, COMDAT
; _this$ = ecx

; 141  : 
; 142  : 
; 143  : 			return (_Myptr - _Right._Myptr);

  00000	8b 01		 mov	 eax, DWORD PTR [ecx]
  00002	8b 4c 24 04	 mov	 ecx, DWORD PTR __Right$[esp-4]
  00006	2b 01		 sub	 eax, DWORD PTR [ecx]
  00008	c1 f8 02	 sar	 eax, 2

; 144  : 			}

  0000b	c2 04 00	 ret	 4
??Gconst_iterator@?$vector@PAVCObj@@V?$allocator@PAVCObj@@@std@@@std@@QBEHABV012@@Z ENDP ; std::vector<CObj *,std::allocator<CObj *> >::const_iterator::operator-
_TEXT	ENDS
PUBLIC	?max_size@?$allocator@PAVCObj@@@std@@QBEIXZ	; std::allocator<CObj *>::max_size
; Function compile flags: /Ogty
; File c:\program files\microsoft visual studio .net 2003\vc7\include\xmemory
;	COMDAT ?max_size@?$allocator@PAVCObj@@@std@@QBEIXZ
_TEXT	SEGMENT
?max_size@?$allocator@PAVCObj@@@std@@QBEIXZ PROC NEAR	; std::allocator<CObj *>::max_size, COMDAT
; _this$ = ecx

; 157  : 		_SIZT _Count = (_SIZT)(-1) / sizeof (_Ty);
; 158  : 		return (0 < _Count ? _Count : 1);

  00000	b8 ff ff ff 3f	 mov	 eax, 1073741823		; 3fffffffH

; 159  : 		}

  00005	c3		 ret	 0
?max_size@?$allocator@PAVCObj@@@std@@QBEIXZ ENDP	; std::allocator<CObj *>::max_size
_TEXT	ENDS
PUBLIC	?GetAt@?$CFixedArray@UtagWORLD@@@@QAEPAUtagWORLD@@K@Z ; CFixedArray<tagWORLD>::GetAt
; Function compile flags: /Ogty
; File c:\documents and settings\test\mes documents\source\virtuos_v17\build\program\_common\data.h
;	COMDAT ?GetAt@?$CFixedArray@UtagWORLD@@@@QAEPAUtagWORLD@@K@Z
_TEXT	SEGMENT
_dwIndex$ = 8						; size = 4
?GetAt@?$CFixedArray@UtagWORLD@@@@QAEPAUtagWORLD@@K@Z PROC NEAR ; CFixedArray<tagWORLD>::GetAt, COMDAT
; _this$ = ecx

; 270  : 	if( dwIndex >= (DWORD)m_nMaxIndex )

  00000	8b 44 24 04	 mov	 eax, DWORD PTR _dwIndex$[esp-4]
  00004	3b 41 18	 cmp	 eax, DWORD PTR [ecx+24]
  00007	72 05		 jb	 SHORT $L261723

; 271  : 		return NULL;

  00009	33 c0		 xor	 eax, eax

; 273  : }

  0000b	c2 04 00	 ret	 4
$L261723:

; 272  : 	return (T*) m_apOffset[ dwIndex ];

  0000e	8b 49 08	 mov	 ecx, DWORD PTR [ecx+8]
  00011	8b 04 81	 mov	 eax, DWORD PTR [ecx+eax*4]

; 273  : }

  00014	c2 04 00	 ret	 4
?GetAt@?$CFixedArray@UtagWORLD@@@@QAEPAUtagWORLD@@K@Z ENDP ; CFixedArray<tagWORLD>::GetAt
_TEXT	ENDS
PUBLIC	??$fill@PAPAVCObj@@PAV1@@std@@YAXPAPAVCObj@@0ABQAV1@@Z ; std::fill<CObj * *,CObj *>
; Function compile flags: /Ogty
; File c:\program files\microsoft visual studio .net 2003\vc7\include\xutility
;	COMDAT ??$fill@PAPAVCObj@@PAV1@@std@@YAXPAPAVCObj@@0ABQAV1@@Z
_TEXT	SEGMENT
__First$ = 8						; size = 4
__Last$ = 12						; size = 4
__Val$ = 16						; size = 4
??$fill@PAPAVCObj@@PAV1@@std@@YAXPAPAVCObj@@0ABQAV1@@Z PROC NEAR ; std::fill<CObj * *,CObj *>, COMDAT

; 1135 : 	for (; _First != _Last; ++_First)

  00000	8b 44 24 04	 mov	 eax, DWORD PTR __First$[esp-4]
  00004	8b 4c 24 08	 mov	 ecx, DWORD PTR __Last$[esp-4]
  00008	3b c1		 cmp	 eax, ecx
  0000a	74 11		 je	 SHORT $L262185
  0000c	8b 54 24 0c	 mov	 edx, DWORD PTR __Val$[esp-4]
  00010	56		 push	 esi
$L262183:

; 1136 : 		*_First = _Val;

  00011	8b 32		 mov	 esi, DWORD PTR [edx]
  00013	89 30		 mov	 DWORD PTR [eax], esi
  00015	83 c0 04	 add	 eax, 4
  00018	3b c1		 cmp	 eax, ecx
  0001a	75 f5		 jne	 SHORT $L262183
  0001c	5e		 pop	 esi
$L262185:

; 1137 : 	}

  0001d	c3		 ret	 0
??$fill@PAPAVCObj@@PAV1@@std@@YAXPAPAVCObj@@0ABQAV1@@Z ENDP ; std::fill<CObj * *,CObj *>
_TEXT	ENDS
PUBLIC	??$_Allocate@PAVCObj@@@std@@YAPAPAVCObj@@IPAPAV1@@Z ; std::_Allocate<CObj *>
EXTRN	??2@YAPAXI@Z:NEAR				; operator new
; Function compile flags: /Ogty
; File c:\program files\microsoft visual studio .net 2003\vc7\include\xmemory
;	COMDAT ??$_Allocate@PAVCObj@@@std@@YAPAPAVCObj@@IPAPAV1@@Z
_TEXT	SEGMENT
__Count$ = 8						; size = 4
___formal$ = 12						; size = 4
??$_Allocate@PAVCObj@@@std@@YAPAPAVCObj@@IPAPAV1@@Z PROC NEAR ; std::_Allocate<CObj *>, COMDAT

; 34   : 	return ((_Ty _FARQ *)operator new(_Count * sizeof (_Ty)));

  00000	8b 44 24 04	 mov	 eax, DWORD PTR __Count$[esp-4]
  00004	8d 0c 85 00 00
	00 00		 lea	 ecx, DWORD PTR [eax*4]
  0000b	51		 push	 ecx
  0000c	e8 00 00 00 00	 call	 ??2@YAPAXI@Z		; operator new
  00011	83 c4 04	 add	 esp, 4

; 35   : 	}

  00014	c3		 ret	 0
??$_Allocate@PAVCObj@@@std@@YAPAPAVCObj@@IPAPAV1@@Z ENDP ; std::_Allocate<CObj *>
_TEXT	ENDS
PUBLIC	??$_Ptr_cat@VCObj@@@std@@YA?AU_Scalar_ptr_iterator_tag@0@PAPAVCObj@@0@Z ; std::_Ptr_cat<CObj>
; Function compile flags: /Ogty
; File c:\program files\microsoft visual studio .net 2003\vc7\include\xutility
;	COMDAT ??$_Ptr_cat@VCObj@@@std@@YA?AU_Scalar_ptr_iterator_tag@0@PAPAVCObj@@0@Z
_TEXT	SEGMENT
__Cat$ = -1						; size = 1
___formal$ = 8						; size = 4
___formal$ = 12						; size = 4
??$_Ptr_cat@VCObj@@@std@@YA?AU_Scalar_ptr_iterator_tag@0@PAPAVCObj@@0@Z PROC NEAR ; std::_Ptr_cat<CObj>, COMDAT

; 218  : 	{	// return pointer category from pointer to pointer arguments

  00000	51		 push	 ecx

; 219  : 	_Scalar_ptr_iterator_tag _Cat;
; 220  : 	return (_Cat);

  00001	8a 44 24 03	 mov	 al, BYTE PTR __Cat$[esp+4]

; 221  : 	}

  00005	59		 pop	 ecx
  00006	c3		 ret	 0
??$_Ptr_cat@VCObj@@@std@@YA?AU_Scalar_ptr_iterator_tag@0@PAPAVCObj@@0@Z ENDP ; std::_Ptr_cat<CObj>
_TEXT	ENDS
PUBLIC	??$_Copy_backward_opt@PAPAVCObj@@PAPAV1@@std@@YAPAPAVCObj@@PAPAV1@00U_Scalar_ptr_iterator_tag@0@@Z ; std::_Copy_backward_opt<CObj * *,CObj * *>
EXTRN	_memmove:NEAR
; Function compile flags: /Ogty
;	COMDAT ??$_Copy_backward_opt@PAPAVCObj@@PAPAV1@@std@@YAPAPAVCObj@@PAPAV1@00U_Scalar_ptr_iterator_tag@0@@Z
_TEXT	SEGMENT
__First$ = 8						; size = 4
__Last$ = 12						; size = 4
__Dest$ = 16						; size = 4
___formal$ = 20						; size = 1
??$_Copy_backward_opt@PAPAVCObj@@PAPAV1@@std@@YAPAPAVCObj@@PAPAV1@00U_Scalar_ptr_iterator_tag@0@@Z PROC NEAR ; std::_Copy_backward_opt<CObj * *,CObj * *>, COMDAT

; 1059 : 	ptrdiff_t _Off = _Last - _First;	// NB: non-overlapping move

  00000	8b 4c 24 04	 mov	 ecx, DWORD PTR __First$[esp-4]
  00004	8b 44 24 08	 mov	 eax, DWORD PTR __Last$[esp-4]
  00008	2b c1		 sub	 eax, ecx
  0000a	c1 f8 02	 sar	 eax, 2

; 1060 : 	return ((_OutIt)memmove(&*_Dest - _Off, &*_First,
; 1061 : 		_Off * sizeof (*_First)));

  0000d	c1 e0 02	 shl	 eax, 2
  00010	50		 push	 eax
  00011	51		 push	 ecx
  00012	8b 4c 24 14	 mov	 ecx, DWORD PTR __Dest$[esp+4]
  00016	2b c8		 sub	 ecx, eax
  00018	51		 push	 ecx
  00019	e8 00 00 00 00	 call	 _memmove
  0001e	83 c4 0c	 add	 esp, 12			; 0000000cH

; 1062 : 	}

  00021	c3		 ret	 0
??$_Copy_backward_opt@PAPAVCObj@@PAPAV1@@std@@YAPAPAVCObj@@PAPAV1@00U_Scalar_ptr_iterator_tag@0@@Z ENDP ; std::_Copy_backward_opt<CObj * *,CObj * *>
_TEXT	ENDS
PUBLIC	??$_Destroy_range@PAVCObj@@V?$allocator@PAVCObj@@@std@@@std@@YAXPAPAVCObj@@0AAV?$allocator@PAVCObj@@@0@U_Scalar_ptr_iterator_tag@0@@Z ; std::_Destroy_range<CObj *,std::allocator<CObj *> >
; Function compile flags: /Ogty
; File c:\program files\microsoft visual studio .net 2003\vc7\include\xmemory
;	COMDAT ??$_Destroy_range@PAVCObj@@V?$allocator@PAVCObj@@@std@@@std@@YAXPAPAVCObj@@0AAV?$allocator@PAVCObj@@@0@U_Scalar_ptr_iterator_tag@0@@Z
_TEXT	SEGMENT
__First$ = 8						; size = 4
__Last$ = 12						; size = 4
__Al$ = 16						; size = 4
___formal$ = 20						; size = 1
??$_Destroy_range@PAVCObj@@V?$allocator@PAVCObj@@@std@@@std@@YAXPAPAVCObj@@0AAV?$allocator@PAVCObj@@@0@U_Scalar_ptr_iterator_tag@0@@Z PROC NEAR ; std::_Destroy_range<CObj *,std::allocator<CObj *> >, COMDAT

; 234  : 	}

  00000	c3		 ret	 0
??$_Destroy_range@PAVCObj@@V?$allocator@PAVCObj@@@std@@@std@@YAXPAPAVCObj@@0AAV?$allocator@PAVCObj@@@0@U_Scalar_ptr_iterator_tag@0@@Z ENDP ; std::_Destroy_range<CObj *,std::allocator<CObj *> >
_TEXT	ENDS
PUBLIC	??$fill_n@PAPAVCObj@@IPAV1@@std@@YAXPAPAVCObj@@IABQAV1@@Z ; std::fill_n<CObj * *,unsigned int,CObj *>
; Function compile flags: /Ogty
; File c:\program files\microsoft visual studio .net 2003\vc7\include\xutility
;	COMDAT ??$fill_n@PAPAVCObj@@IPAV1@@std@@YAXPAPAVCObj@@IABQAV1@@Z
_TEXT	SEGMENT
__First$ = 8						; size = 4
__Count$ = 12						; size = 4
__Val$ = 16						; size = 4
??$fill_n@PAPAVCObj@@IPAV1@@std@@YAXPAPAVCObj@@IABQAV1@@Z PROC NEAR ; std::fill_n<CObj * *,unsigned int,CObj *>, COMDAT

; 1160 : 	for (; 0 < _Count; --_Count, ++_First)

  00000	8b 4c 24 08	 mov	 ecx, DWORD PTR __Count$[esp-4]
  00004	85 c9		 test	 ecx, ecx
  00006	76 14		 jbe	 SHORT $L262882
  00008	8b 54 24 0c	 mov	 edx, DWORD PTR __Val$[esp-4]
  0000c	8b 44 24 04	 mov	 eax, DWORD PTR __First$[esp-4]
  00010	56		 push	 esi
$L262880:

; 1161 : 		*_First = _Val;

  00011	8b 32		 mov	 esi, DWORD PTR [edx]
  00013	89 30		 mov	 DWORD PTR [eax], esi
  00015	83 c0 04	 add	 eax, 4
  00018	49		 dec	 ecx
  00019	75 f6		 jne	 SHORT $L262880
  0001b	5e		 pop	 esi
$L262882:

; 1162 : 	}

  0001c	c3		 ret	 0
??$fill_n@PAPAVCObj@@IPAV1@@std@@YAXPAPAVCObj@@IABQAV1@@Z ENDP ; std::fill_n<CObj * *,unsigned int,CObj *>
_TEXT	ENDS
PUBLIC	??$_Uninit_copy@PAVCObj@@PAV1@@std@@YAPAPAVCObj@@PAPAV1@00AAV?$allocator@PAVCObj@@@0@U_Scalar_ptr_iterator_tag@0@@Z ; std::_Uninit_copy<CObj *,CObj *>
; Function compile flags: /Ogty
; File c:\program files\microsoft visual studio .net 2003\vc7\include\memory
;	COMDAT ??$_Uninit_copy@PAVCObj@@PAV1@@std@@YAPAPAVCObj@@PAPAV1@00AAV?$allocator@PAVCObj@@@0@U_Scalar_ptr_iterator_tag@0@@Z
_TEXT	SEGMENT
__First$ = 8						; size = 4
__Last$ = 12						; size = 4
__Dest$ = 16						; size = 4
___formal$ = 20						; size = 4
___formal$ = 24						; size = 1
??$_Uninit_copy@PAVCObj@@PAV1@@std@@YAPAPAVCObj@@PAPAV1@00AAV?$allocator@PAVCObj@@@0@U_Scalar_ptr_iterator_tag@0@@Z PROC NEAR ; std::_Uninit_copy<CObj *,CObj *>, COMDAT

; 106  : 	size_t _Count = (size_t)(_Last - _First);

  00000	8b 4c 24 04	 mov	 ecx, DWORD PTR __First$[esp-4]
  00004	8b 44 24 08	 mov	 eax, DWORD PTR __Last$[esp-4]
  00008	2b c1		 sub	 eax, ecx
  0000a	56		 push	 esi
  0000b	c1 f8 02	 sar	 eax, 2

; 107  : 	return ((_Ty2 *)memmove(&*_Dest, &*_First,
; 108  : 		_Count * sizeof (*_First)) + _Count);	// NB: non-overlapping move

  0000e	8d 34 85 00 00
	00 00		 lea	 esi, DWORD PTR [eax*4]
  00015	8b 44 24 10	 mov	 eax, DWORD PTR __Dest$[esp]
  00019	56		 push	 esi
  0001a	51		 push	 ecx
  0001b	50		 push	 eax
  0001c	e8 00 00 00 00	 call	 _memmove
  00021	83 c4 0c	 add	 esp, 12			; 0000000cH
  00024	03 c6		 add	 eax, esi
  00026	5e		 pop	 esi

; 109  : 	}

  00027	c3		 ret	 0
??$_Uninit_copy@PAVCObj@@PAV1@@std@@YAPAPAVCObj@@PAPAV1@00AAV?$allocator@PAVCObj@@@0@U_Scalar_ptr_iterator_tag@0@@Z ENDP ; std::_Uninit_copy<CObj *,CObj *>
_TEXT	ENDS
PUBLIC	?assign@?$char_traits@D@std@@SAXAADABD@Z	; std::char_traits<char>::assign
; Function compile flags: /Ogty
; File c:\program files\microsoft visual studio .net 2003\vc7\include\iosfwd
;	COMDAT ?assign@?$char_traits@D@std@@SAXAADABD@Z
_TEXT	SEGMENT
__Left$ = 8						; size = 4
__Right$ = 12						; size = 4
?assign@?$char_traits@D@std@@SAXAADABD@Z PROC NEAR	; std::char_traits<char>::assign, COMDAT

; 331  : 		_Left = _Right;

  00000	8b 44 24 08	 mov	 eax, DWORD PTR __Right$[esp-4]
  00004	8a 08		 mov	 cl, BYTE PTR [eax]
  00006	8b 54 24 04	 mov	 edx, DWORD PTR __Left$[esp-4]
  0000a	88 0a		 mov	 BYTE PTR [edx], cl

; 332  : 		}

  0000c	c3		 ret	 0
?assign@?$char_traits@D@std@@SAXAADABD@Z ENDP		; std::char_traits<char>::assign
_TEXT	ENDS
PUBLIC	?length@?$char_traits@D@std@@SAIPBD@Z		; std::char_traits<char>::length
; Function compile flags: /Ogty
;	COMDAT ?length@?$char_traits@D@std@@SAIPBD@Z
_TEXT	SEGMENT
__First$ = 8						; size = 4
?length@?$char_traits@D@std@@SAIPBD@Z PROC NEAR		; std::char_traits<char>::length, COMDAT

; 352  : 		return (::strlen(_First));

  00000	8b 44 24 04	 mov	 eax, DWORD PTR __First$[esp-4]
  00004	8d 50 01	 lea	 edx, DWORD PTR [eax+1]
$L264181:
  00007	8a 08		 mov	 cl, BYTE PTR [eax]
  00009	40		 inc	 eax
  0000a	84 c9		 test	 cl, cl
  0000c	75 f9		 jne	 SHORT $L264181
  0000e	2b c2		 sub	 eax, edx

; 353  : 		}

  00010	c3		 ret	 0
?length@?$char_traits@D@std@@SAIPBD@Z ENDP		; std::char_traits<char>::length
_TEXT	ENDS
PUBLIC	?copy@?$char_traits@D@std@@SAPADPADPBDI@Z	; std::char_traits<char>::copy
; Function compile flags: /Ogty
;	COMDAT ?copy@?$char_traits@D@std@@SAPADPADPBDI@Z
_TEXT	SEGMENT
__First1$ = 8						; size = 4
__First2$ = 12						; size = 4
__Count$ = 16						; size = 4
?copy@?$char_traits@D@std@@SAPADPADPBDI@Z PROC NEAR	; std::char_traits<char>::copy, COMDAT

; 358  : 		return ((_Elem *)::memcpy(_First1, _First2, _Count));

  00000	8b 4c 24 0c	 mov	 ecx, DWORD PTR __Count$[esp-4]
  00004	56		 push	 esi
  00005	8b 74 24 0c	 mov	 esi, DWORD PTR __First2$[esp]
  00009	57		 push	 edi
  0000a	8b 7c 24 0c	 mov	 edi, DWORD PTR __First1$[esp+4]
  0000e	8b c1		 mov	 eax, ecx
  00010	8b d7		 mov	 edx, edi
  00012	c1 e9 02	 shr	 ecx, 2
  00015	f3 a5		 rep movsd
  00017	8b c8		 mov	 ecx, eax
  00019	83 e1 03	 and	 ecx, 3
  0001c	f3 a4		 rep movsb
  0001e	5f		 pop	 edi
  0001f	8b c2		 mov	 eax, edx
  00021	5e		 pop	 esi

; 359  : 		}

  00022	c3		 ret	 0
?copy@?$char_traits@D@std@@SAPADPADPBDI@Z ENDP		; std::char_traits<char>::copy
_TEXT	ENDS
PUBLIC	?move@?$char_traits@D@std@@SAPADPADPBDI@Z	; std::char_traits<char>::move
; Function compile flags: /Ogty
;	COMDAT ?move@?$char_traits@D@std@@SAPADPADPBDI@Z
_TEXT	SEGMENT
__First1$ = 8						; size = 4
__First2$ = 12						; size = 4
__Count$ = 16						; size = 4
?move@?$char_traits@D@std@@SAPADPADPBDI@Z PROC NEAR	; std::char_traits<char>::move, COMDAT

; 370  : 		return ((_Elem *)::memmove(_First1, _First2, _Count));

  00000	e9 00 00 00 00	 jmp	 _memmove
?move@?$char_traits@D@std@@SAPADPADPBDI@Z ENDP		; std::char_traits<char>::move
_TEXT	ENDS
PUBLIC	??0D3DXVECTOR3@@QAE@XZ				; D3DXVECTOR3::D3DXVECTOR3
; Function compile flags: /Ogty
; File c:\documents and settings\test\mes documents\source\virtuos_v17\build\program\dx_sdk\d3dx9math.h
;	COMDAT ??0D3DXVECTOR3@@QAE@XZ
_TEXT	SEGMENT
??0D3DXVECTOR3@@QAE@XZ PROC NEAR			; D3DXVECTOR3::D3DXVECTOR3, COMDAT
; _this$ = ecx

; 165  :     D3DXVECTOR3() {};

  00000	8b c1		 mov	 eax, ecx
  00002	c3		 ret	 0
??0D3DXVECTOR3@@QAE@XZ ENDP				; D3DXVECTOR3::D3DXVECTOR3
_TEXT	ENDS
PUBLIC	??0D3DXVECTOR3@@QAE@MMM@Z			; D3DXVECTOR3::D3DXVECTOR3
EXTRN	__fltused:NEAR
; Function compile flags: /Ogty
; File c:\documents and settings\test\mes documents\source\virtuos_v17\build\program\dx_sdk\d3dx9math.inl
;	COMDAT ??0D3DXVECTOR3@@QAE@MMM@Z
_TEXT	SEGMENT
_fx$ = 8						; size = 4
_fy$ = 12						; size = 4
_fz$ = 16						; size = 4
??0D3DXVECTOR3@@QAE@MMM@Z PROC NEAR			; D3DXVECTOR3::D3DXVECTOR3, COMDAT
; _this$ = ecx

; 300  :     x = fx;
; 301  :     y = fy;

  00000	8b 54 24 08	 mov	 edx, DWORD PTR _fy$[esp-4]
  00004	8b c1		 mov	 eax, ecx
  00006	8b 4c 24 04	 mov	 ecx, DWORD PTR _fx$[esp-4]
  0000a	89 08		 mov	 DWORD PTR [eax], ecx

; 302  :     z = fz;

  0000c	8b 4c 24 0c	 mov	 ecx, DWORD PTR _fz$[esp-4]
  00010	89 50 04	 mov	 DWORD PTR [eax+4], edx
  00013	89 48 08	 mov	 DWORD PTR [eax+8], ecx

; 303  : }

  00016	c2 0c 00	 ret	 12			; 0000000cH
??0D3DXVECTOR3@@QAE@MMM@Z ENDP				; D3DXVECTOR3::D3DXVECTOR3
_TEXT	ENDS
PUBLIC	??0CFileIO@@QAE@XZ				; CFileIO::CFileIO
PUBLIC	?Flush@CFileIO@@UAEHXZ				; CFileIO::Flush
PUBLIC	?GetC@CFileIO@@UAEDXZ				; CFileIO::GetC
PUBLIC	?GetW@CFileIO@@UAEGXZ				; CFileIO::GetW
PUBLIC	?GetDW@CFileIO@@UAEKXZ				; CFileIO::GetDW
PUBLIC	?Tell@CFileIO@@UAEJXZ				; CFileIO::Tell
PUBLIC	?Seek@CFileIO@@UAEHJH@Z				; CFileIO::Seek
PUBLIC	?GetLength@CFileIO@@UAEJXZ			; CFileIO::GetLength
PUBLIC	?Read@CFileIO@@UAEIPAXII@Z			; CFileIO::Read
PUBLIC	??_7CFileIO@@6B@				; CFileIO::`vftable'
PUBLIC	??_GCFileIO@@UAEPAXI@Z				; CFileIO::`scalar deleting destructor'
EXTRN	?Open@CFileIO@@UAEHPBDPAD@Z:NEAR		; CFileIO::Open
EXTRN	?Close@CFileIO@@UAEHXZ:NEAR			; CFileIO::Close
EXTRN	?Read@CFileIO@@UAEPAXXZ:NEAR			; CFileIO::Read
EXTRN	??_ECFileIO@@UAEPAXI@Z:NEAR			; CFileIO::`vector deleting destructor'
;	COMDAT ??_7CFileIO@@6B@
; File c:\documents and settings\test\mes documents\source\virtuos_v17\build\program\_common\file.h
CONST	SEGMENT
??_7CFileIO@@6B@ DD FLAT:??_ECFileIO@@UAEPAXI@Z		; CFileIO::`vftable'
	DD	FLAT:?Open@CFileIO@@UAEHPBDPAD@Z
	DD	FLAT:?Close@CFileIO@@UAEHXZ
	DD	FLAT:?Flush@CFileIO@@UAEHXZ
	DD	FLAT:?GetC@CFileIO@@UAEDXZ
	DD	FLAT:?GetW@CFileIO@@UAEGXZ
	DD	FLAT:?GetDW@CFileIO@@UAEKXZ
	DD	FLAT:?Tell@CFileIO@@UAEJXZ
	DD	FLAT:?Seek@CFileIO@@UAEHJH@Z
	DD	FLAT:?GetLength@CFileIO@@UAEJXZ
	DD	FLAT:?Read@CFileIO@@UAEPAXXZ
	DD	FLAT:?Read@CFileIO@@UAEIPAXII@Z
; Function compile flags: /Ogty
CONST	ENDS
;	COMDAT ??0CFileIO@@QAE@XZ
_TEXT	SEGMENT
??0CFileIO@@QAE@XZ PROC NEAR				; CFileIO::CFileIO, COMDAT
; _this$ = ecx

; 15   : 	CFileIO() { fp = NULL; } 

  00000	8b c1		 mov	 eax, ecx
  00002	c7 00 00 00 00
	00		 mov	 DWORD PTR [eax], OFFSET FLAT:??_7CFileIO@@6B@
  00008	c7 40 04 00 00
	00 00		 mov	 DWORD PTR [eax+4], 0
  0000f	c3		 ret	 0
??0CFileIO@@QAE@XZ ENDP					; CFileIO::CFileIO
_TEXT	ENDS
PUBLIC	??1CFileIO@@UAE@XZ				; CFileIO::~CFileIO
; Function compile flags: /Ogty
;	COMDAT ??1CFileIO@@UAE@XZ
_TEXT	SEGMENT
??1CFileIO@@UAE@XZ PROC NEAR				; CFileIO::~CFileIO, COMDAT
; _this$ = ecx

; 17   : 	virtual ~CFileIO() { Close(); }

  00000	c7 01 00 00 00
	00		 mov	 DWORD PTR [ecx], OFFSET FLAT:??_7CFileIO@@6B@
  00006	e9 00 00 00 00	 jmp	 ?Close@CFileIO@@UAEHXZ	; CFileIO::Close
??1CFileIO@@UAE@XZ ENDP					; CFileIO::~CFileIO
_TEXT	ENDS
EXTRN	_fflush:NEAR
; Function compile flags: /Ogty
;	COMDAT ?Flush@CFileIO@@UAEHXZ
_TEXT	SEGMENT
?Flush@CFileIO@@UAEHXZ PROC NEAR			; CFileIO::Flush, COMDAT
; _this$ = ecx

; 20   : 	virtual int	 Flush()  { return fflush( fp ); }

  00000	8b 41 04	 mov	 eax, DWORD PTR [ecx+4]
  00003	50		 push	 eax
  00004	e8 00 00 00 00	 call	 _fflush
  00009	83 c4 04	 add	 esp, 4
  0000c	c3		 ret	 0
?Flush@CFileIO@@UAEHXZ ENDP				; CFileIO::Flush
_TEXT	ENDS
EXTRN	_getc:NEAR
; Function compile flags: /Ogty
;	COMDAT ?GetC@CFileIO@@UAEDXZ
_TEXT	SEGMENT
?GetC@CFileIO@@UAEDXZ PROC NEAR				; CFileIO::GetC, COMDAT
; _this$ = ecx

; 21   : 	virtual char  GetC()  { return (char)getc( fp ); }

  00000	8b 41 04	 mov	 eax, DWORD PTR [ecx+4]
  00003	50		 push	 eax
  00004	e8 00 00 00 00	 call	 _getc
  00009	83 c4 04	 add	 esp, 4
  0000c	c3		 ret	 0
?GetC@CFileIO@@UAEDXZ ENDP				; CFileIO::GetC
_TEXT	ENDS
EXTRN	_fgetwc:NEAR
; Function compile flags: /Ogty
;	COMDAT ?GetW@CFileIO@@UAEGXZ
_TEXT	SEGMENT
?GetW@CFileIO@@UAEGXZ PROC NEAR				; CFileIO::GetW, COMDAT
; _this$ = ecx

; 22   : 	virtual WORD  GetW()  { return getwc( fp ); } 

  00000	8b 41 04	 mov	 eax, DWORD PTR [ecx+4]
  00003	50		 push	 eax
  00004	e8 00 00 00 00	 call	 _fgetwc
  00009	83 c4 04	 add	 esp, 4
  0000c	c3		 ret	 0
?GetW@CFileIO@@UAEGXZ ENDP				; CFileIO::GetW
_TEXT	ENDS
EXTRN	_fread:NEAR
; Function compile flags: /Ogty
;	COMDAT ?GetDW@CFileIO@@UAEKXZ
_TEXT	SEGMENT
_dw$ = -4						; size = 4
?GetDW@CFileIO@@UAEKXZ PROC NEAR			; CFileIO::GetDW, COMDAT
; _this$ = ecx

; 23   : 	virtual DWORD GetDW() { DWORD dw; fread( &dw, sizeof( dw ), 1, fp ); return dw; }

  00000	51		 push	 ecx
  00001	8b 41 04	 mov	 eax, DWORD PTR [ecx+4]
  00004	50		 push	 eax
  00005	6a 01		 push	 1
  00007	8d 4c 24 08	 lea	 ecx, DWORD PTR _dw$[esp+12]
  0000b	6a 04		 push	 4
  0000d	51		 push	 ecx
  0000e	e8 00 00 00 00	 call	 _fread
  00013	8b 44 24 10	 mov	 eax, DWORD PTR _dw$[esp+20]
  00017	83 c4 14	 add	 esp, 20			; 00000014H
  0001a	c3		 ret	 0
?GetDW@CFileIO@@UAEKXZ ENDP				; CFileIO::GetDW
_TEXT	ENDS
EXTRN	_ftell:NEAR
; Function compile flags: /Ogty
;	COMDAT ?Tell@CFileIO@@UAEJXZ
_TEXT	SEGMENT
?Tell@CFileIO@@UAEJXZ PROC NEAR				; CFileIO::Tell, COMDAT
; _this$ = ecx

; 24   : 	virtual long Tell()   { return ftell(fp); }

  00000	8b 41 04	 mov	 eax, DWORD PTR [ecx+4]
  00003	50		 push	 eax
  00004	e8 00 00 00 00	 call	 _ftell
  00009	83 c4 04	 add	 esp, 4
  0000c	c3		 ret	 0
?Tell@CFileIO@@UAEJXZ ENDP				; CFileIO::Tell
_TEXT	ENDS
EXTRN	_fseek:NEAR
; Function compile flags: /Ogty
;	COMDAT ?Seek@CFileIO@@UAEHJH@Z
_TEXT	SEGMENT
_offset$ = 8						; size = 4
_whence$ = 12						; size = 4
?Seek@CFileIO@@UAEHJH@Z PROC NEAR			; CFileIO::Seek, COMDAT
; _this$ = ecx

; 25   : 	virtual int  Seek( long offset, int whence ) { return fseek( fp, offset, whence ); }

  00000	8b 44 24 08	 mov	 eax, DWORD PTR _whence$[esp-4]
  00004	8b 54 24 04	 mov	 edx, DWORD PTR _offset$[esp-4]
  00008	50		 push	 eax
  00009	8b 41 04	 mov	 eax, DWORD PTR [ecx+4]
  0000c	52		 push	 edx
  0000d	50		 push	 eax
  0000e	e8 00 00 00 00	 call	 _fseek
  00013	83 c4 0c	 add	 esp, 12			; 0000000cH
  00016	c2 08 00	 ret	 8
?Seek@CFileIO@@UAEHJH@Z ENDP				; CFileIO::Seek
; Function compile flags: /Ogty
_TEXT	ENDS
;	COMDAT ?Read@CFileIO@@UAEIPAXII@Z
_TEXT	SEGMENT
_ptr$ = 8						; size = 4
_size$ = 12						; size = 4
_n$ = 16						; size = 4
?Read@CFileIO@@UAEIPAXII@Z PROC NEAR			; CFileIO::Read, COMDAT
; _this$ = ecx

; 27   : 	virtual size_t Read( void *ptr, size_t size, size_t n = 1 )	{ return fread( ptr, size, n, fp ); }

  00000	8b 41 04	 mov	 eax, DWORD PTR [ecx+4]
  00003	8b 4c 24 0c	 mov	 ecx, DWORD PTR _n$[esp-4]
  00007	8b 54 24 08	 mov	 edx, DWORD PTR _size$[esp-4]
  0000b	50		 push	 eax
  0000c	8b 44 24 08	 mov	 eax, DWORD PTR _ptr$[esp]
  00010	51		 push	 ecx
  00011	52		 push	 edx
  00012	50		 push	 eax
  00013	e8 00 00 00 00	 call	 _fread
  00018	83 c4 10	 add	 esp, 16			; 00000010H
  0001b	c2 0c 00	 ret	 12			; 0000000cH
?Read@CFileIO@@UAEIPAXII@Z ENDP				; CFileIO::Read
; Function compile flags: /Ogty
_TEXT	ENDS
;	COMDAT ??_GCFileIO@@UAEPAXI@Z
_TEXT	SEGMENT
___flags$ = 8						; size = 4
??_GCFileIO@@UAEPAXI@Z PROC NEAR			; CFileIO::`scalar deleting destructor', COMDAT
; _this$ = ecx
  00000	56		 push	 esi
  00001	8b f1		 mov	 esi, ecx
  00003	c7 06 00 00 00
	00		 mov	 DWORD PTR [esi], OFFSET FLAT:??_7CFileIO@@6B@
  00009	e8 00 00 00 00	 call	 ?Close@CFileIO@@UAEHXZ	; CFileIO::Close
  0000e	f6 44 24 08 01	 test	 BYTE PTR ___flags$[esp], 1
  00013	74 09		 je	 SHORT $L264229
  00015	56		 push	 esi
  00016	e8 00 00 00 00	 call	 ??3@YAXPAX@Z		; operator delete
  0001b	83 c4 04	 add	 esp, 4
$L264229:
  0001e	8b c6		 mov	 eax, esi
  00020	5e		 pop	 esi
  00021	c2 04 00	 ret	 4
??_GCFileIO@@UAEPAXI@Z ENDP				; CFileIO::`scalar deleting destructor'
_TEXT	ENDS
PUBLIC	?GetType@CObj@@QAEKXZ				; CObj::GetType
; Function compile flags: /Ogty
; File c:\documents and settings\test\mes documents\source\virtuos_v17\build\program\_common\obj.h
;	COMDAT ?GetType@CObj@@QAEKXZ
_TEXT	SEGMENT
?GetType@CObj@@QAEKXZ PROC NEAR				; CObj::GetType, COMDAT
; _this$ = ecx

; 206  : 	DWORD			GetType() { return m_dwType; }

  00000	8b 81 70 01 00
	00		 mov	 eax, DWORD PTR [ecx+368]
  00006	c3		 ret	 0
?GetType@CObj@@QAEKXZ ENDP				; CObj::GetType
_TEXT	ENDS
PUBLIC	?GetPos@CObj@@QAE?AUD3DXVECTOR3@@XZ		; CObj::GetPos
; Function compile flags: /Ogty
;	COMDAT ?GetPos@CObj@@QAE?AUD3DXVECTOR3@@XZ
_TEXT	SEGMENT
___$ReturnUdt$ = 8					; size = 4
?GetPos@CObj@@QAE?AUD3DXVECTOR3@@XZ PROC NEAR		; CObj::GetPos, COMDAT
; _this$ = ecx

; 215  : 	D3DXVECTOR3		GetPos()	{ return m_vPos; }

  00000	8b 44 24 04	 mov	 eax, DWORD PTR ___$ReturnUdt$[esp-4]
  00004	81 c1 60 01 00
	00		 add	 ecx, 352		; 00000160H
  0000a	56		 push	 esi
  0000b	8b 31		 mov	 esi, DWORD PTR [ecx]
  0000d	8b d0		 mov	 edx, eax
  0000f	89 32		 mov	 DWORD PTR [edx], esi
  00011	8b 71 04	 mov	 esi, DWORD PTR [ecx+4]
  00014	89 72 04	 mov	 DWORD PTR [edx+4], esi
  00017	8b 49 08	 mov	 ecx, DWORD PTR [ecx+8]
  0001a	89 4a 08	 mov	 DWORD PTR [edx+8], ecx
  0001d	5e		 pop	 esi
  0001e	c2 04 00	 ret	 4
?GetPos@CObj@@QAE?AUD3DXVECTOR3@@XZ ENDP		; CObj::GetPos
_TEXT	ENDS
PUBLIC	?GetLayer@CObj@@QAEHXZ				; CObj::GetLayer
; Function compile flags: /Ogty
;	COMDAT ?GetLayer@CObj@@QAEHXZ
_TEXT	SEGMENT
?GetLayer@CObj@@QAEHXZ PROC NEAR			; CObj::GetLayer, COMDAT
; _this$ = ecx

; 247  : 	int		GetLayer()	{	return m_nLayer;	}

  00000	8b 81 b8 01 00
	00		 mov	 eax, DWORD PTR [ecx+440]
  00006	c3		 ret	 0
?GetLayer@CObj@@QAEHXZ ENDP				; CObj::GetLayer
_TEXT	ENDS
PUBLIC	?LOG_RANGE@@YAXPBDHHH@Z				; LOG_RANGE
PUBLIC	??_C@_0BM@HMFGHCP@?$CFs?5min?3?$CFd?0?5max?3?$CFd?0?5index?3?$CFd?$AA@ ; `string'
EXTRN	?Error@@YAPBDPBDZZ:NEAR				; Error
;	COMDAT ??_C@_0BM@HMFGHCP@?$CFs?5min?3?$CFd?0?5max?3?$CFd?0?5index?3?$CFd?$AA@
; File c:\documents and settings\test\mes documents\source\virtuos_v17\build\program\_common\project.h
CONST	SEGMENT
??_C@_0BM@HMFGHCP@?$CFs?5min?3?$CFd?0?5max?3?$CFd?0?5index?3?$CFd?$AA@ DB '%'
	DB	's min:%d, max:%d, index:%d', 00H		; `string'
; Function compile flags: /Ogty
CONST	ENDS
;	COMDAT ?LOG_RANGE@@YAXPBDHHH@Z
_TEXT	SEGMENT
_szMsg$ = 8						; size = 4
_nMin$ = 12						; size = 4
_nMax$ = 16						; size = 4
_nIndex$ = 20						; size = 4
?LOG_RANGE@@YAXPBDHHH@Z PROC NEAR			; LOG_RANGE, COMDAT

; 559  : 	LPCTSTR szErr = Error( _T( "%s min:%d, max:%d, index:%d" ), szMsg, nMin, nMax, nIndex ); 

  00000	8b 44 24 10	 mov	 eax, DWORD PTR _nIndex$[esp-4]
  00004	8b 4c 24 0c	 mov	 ecx, DWORD PTR _nMax$[esp-4]
  00008	8b 54 24 08	 mov	 edx, DWORD PTR _nMin$[esp-4]
  0000c	50		 push	 eax
  0000d	8b 44 24 08	 mov	 eax, DWORD PTR _szMsg$[esp]
  00011	51		 push	 ecx
  00012	52		 push	 edx
  00013	50		 push	 eax
  00014	68 00 00 00 00	 push	 OFFSET FLAT:??_C@_0BM@HMFGHCP@?$CFs?5min?3?$CFd?0?5max?3?$CFd?0?5index?3?$CFd?$AA@
  00019	e8 00 00 00 00	 call	 ?Error@@YAPBDPBDZZ	; Error
  0001e	83 c4 14	 add	 esp, 20			; 00000014H

; 560  : 	ADDERRORMSG( szErr ); 
; 561  : }

  00021	c3		 ret	 0
?LOG_RANGE@@YAXPBDHHH@Z ENDP				; LOG_RANGE
_TEXT	ENDS
PUBLIC	??_C@_0BJ@GKPOBPPI@GetMoverProp?5range_error?$AA@ ; `string'
PUBLIC	?GetMoverProp@CProject@@QAEPAUMoverProp@@H@Z	; CProject::GetMoverProp
;	COMDAT ??_C@_0BJ@GKPOBPPI@GetMoverProp?5range_error?$AA@
CONST	SEGMENT
??_C@_0BJ@GKPOBPPI@GetMoverProp?5range_error?$AA@ DB 'GetMoverProp range_'
	DB	'error', 00H					; `string'
; Function compile flags: /Ogty
CONST	ENDS
;	COMDAT ?GetMoverProp@CProject@@QAEPAUMoverProp@@H@Z
_TEXT	SEGMENT
_nIndex$ = 8						; size = 4
?GetMoverProp@CProject@@QAEPAUMoverProp@@H@Z PROC NEAR	; CProject::GetMoverProp, COMDAT
; _this$ = ecx

; 1381 : 	VERIFY_RANGE( nIndex, 0, m_nMoverPropSize, "GetMoverProp range_error", NULL );

  00000	8b 44 24 04	 mov	 eax, DWORD PTR _nIndex$[esp-4]
  00004	85 c0		 test	 eax, eax
  00006	7c 19		 jl	 SHORT $L197938
  00008	3b 81 d0 01 00
	00		 cmp	 eax, DWORD PTR [ecx+464]
  0000e	7d 11		 jge	 SHORT $L197938

; 1382 : 	return m_pPropMover + nIndex;

  00010	8b 91 d4 01 00
	00		 mov	 edx, DWORD PTR [ecx+468]
  00016	69 c0 d8 06 00
	00		 imul	 eax, 1752		; 000006d8H
  0001c	03 c2		 add	 eax, edx

; 1383 : }

  0001e	c2 04 00	 ret	 4
$L197938:

; 1381 : 	VERIFY_RANGE( nIndex, 0, m_nMoverPropSize, "GetMoverProp range_error", NULL );

  00021	50		 push	 eax
  00022	8b 81 d0 01 00
	00		 mov	 eax, DWORD PTR [ecx+464]
  00028	50		 push	 eax
  00029	6a 00		 push	 0
  0002b	68 00 00 00 00	 push	 OFFSET FLAT:??_C@_0BJ@GKPOBPPI@GetMoverProp?5range_error?$AA@
  00030	68 00 00 00 00	 push	 OFFSET FLAT:??_C@_0BM@HMFGHCP@?$CFs?5min?3?$CFd?0?5max?3?$CFd?0?5index?3?$CFd?$AA@
  00035	e8 00 00 00 00	 call	 ?Error@@YAPBDPBDZZ	; Error
  0003a	83 c4 14	 add	 esp, 20			; 00000014H
  0003d	33 c0		 xor	 eax, eax

; 1383 : }

  0003f	c2 04 00	 ret	 4
?GetMoverProp@CProject@@QAEPAUMoverProp@@H@Z ENDP	; CProject::GetMoverProp
_TEXT	ENDS
PUBLIC	?IsPlayer@CMover@@QAEHXZ			; CMover::IsPlayer
; Function compile flags: /Ogty
; File c:\documents and settings\test\mes documents\source\virtuos_v17\build\program\_common\mover.h
;	COMDAT ?IsPlayer@CMover@@QAEHXZ
_TEXT	SEGMENT
?IsPlayer@CMover@@QAEHXZ PROC NEAR			; CMover::IsPlayer, COMDAT
; _this$ = ecx

; 1042 : 	BOOL			IsPlayer()			{ return m_bPlayer; }

  00000	8b 81 34 02 00
	00		 mov	 eax, DWORD PTR [ecx+564]
  00006	c3		 ret	 0
?IsPlayer@CMover@@QAEHXZ ENDP				; CMover::IsPlayer
_TEXT	ENDS
PUBLIC	??0REGIONELEM@@QAE@XZ				; REGIONELEM::REGIONELEM
; Function compile flags: /Ogty
;	COMDAT ??0REGIONELEM@@QAE@XZ
_TEXT	SEGMENT
??0REGIONELEM@@QAE@XZ PROC NEAR				; REGIONELEM::REGIONELEM, COMDAT
; _this$ = ecx
  00000	8b c1		 mov	 eax, ecx
  00002	c3		 ret	 0
??0REGIONELEM@@QAE@XZ ENDP				; REGIONELEM::REGIONELEM
_TEXT	ENDS
PUBLIC	?AddTail@CRegionElemArray@@QAEXQAUREGIONELEM@@@Z ; CRegionElemArray::AddTail
; Function compile flags: /Ogty
; File c:\documents and settings\test\mes documents\source\virtuos_v17\build\program\_common\region.h
;	COMDAT ?AddTail@CRegionElemArray@@QAEXQAUREGIONELEM@@@Z
_TEXT	SEGMENT
_lpRegionElem$ = 8					; size = 4
?AddTail@CRegionElemArray@@QAEXQAUREGIONELEM@@@Z PROC NEAR ; CRegionElemArray::AddTail, COMDAT
; _this$ = ecx

; 83   : 	ASSERT( m_cbRegionElem < MAX_REGIONELEM );
; 84   : 	memcpy( &m_aRegionElem[m_cbRegionElem++], lpRegionElem, sizeof(REGIONELEM) );

  00000	8b 01		 mov	 eax, DWORD PTR [ecx]
  00002	8b d0		 mov	 edx, eax
  00004	69 d2 f4 02 00
	00		 imul	 edx, 756		; 000002f4H
  0000a	56		 push	 esi
  0000b	8b 74 24 08	 mov	 esi, DWORD PTR _lpRegionElem$[esp]
  0000f	57		 push	 edi
  00010	40		 inc	 eax
  00011	8d 7c 0a 04	 lea	 edi, DWORD PTR [edx+ecx+4]
  00015	89 01		 mov	 DWORD PTR [ecx], eax
  00017	b9 bd 00 00 00	 mov	 ecx, 189		; 000000bdH
  0001c	f3 a5		 rep movsd
  0001e	5f		 pop	 edi
  0001f	5e		 pop	 esi

; 85   : }

  00020	c2 04 00	 ret	 4
?AddTail@CRegionElemArray@@QAEXQAUREGIONELEM@@@Z ENDP	; CRegionElemArray::AddTail
_TEXT	ENDS
PUBLIC	?GetID@CWorld@@QAEKXZ				; CWorld::GetID
; Function compile flags: /Ogty
; File c:\documents and settings\test\mes documents\source\virtuos_v17\build\program\_common\world.h
;	COMDAT ?GetID@CWorld@@QAEKXZ
_TEXT	SEGMENT
?GetID@CWorld@@QAEKXZ PROC NEAR				; CWorld::GetID, COMDAT
; _this$ = ecx

; 413  : 	DWORD			GetID()	{ return m_dwWorldID; }

  00000	8b 01		 mov	 eax, DWORD PTR [ecx]
  00002	c3		 ret	 0
?GetID@CWorld@@QAEKXZ ENDP				; CWorld::GetID
_TEXT	ENDS
PUBLIC	?Invalidate@CWorld@@QAEXHH@Z			; CWorld::Invalidate
EXTRN	?Invalidate@CLayeredLinkMap@@QAEXHH@Z:NEAR	; CLayeredLinkMap::Invalidate
; Function compile flags: /Ogty
;	COMDAT ?Invalidate@CWorld@@QAEXHH@Z
_TEXT	SEGMENT
_nLayer$ = 8						; size = 4
_bInvalid$ = 12						; size = 4
?Invalidate@CWorld@@QAEXHH@Z PROC NEAR			; CWorld::Invalidate, COMDAT
; _this$ = ecx

; 617  : 	void	Invalidate( int nLayer, BOOL bInvalid = TRUE )	{	m_linkMap.Invalidate( nLayer, bInvalid );	}

  00000	83 c1 24	 add	 ecx, 36			; 00000024H
  00003	e9 00 00 00 00	 jmp	 ?Invalidate@CLayeredLinkMap@@QAEXHH@Z ; CLayeredLinkMap::Invalidate
?Invalidate@CWorld@@QAEXHH@Z ENDP			; CWorld::Invalidate
_TEXT	ENDS
PUBLIC	??B?$CSimpleStringT@D$0A@@ATL@@QBEPBDXZ		; ATL::CSimpleStringT<char,0>::operator char const *
; Function compile flags: /Ogty
; File c:\program files\microsoft visual studio .net 2003\vc7\atlmfc\include\atlsimpstr.h
;	COMDAT ??B?$CSimpleStringT@D$0A@@ATL@@QBEPBDXZ
_TEXT	SEGMENT
??B?$CSimpleStringT@D$0A@@ATL@@QBEPBDXZ PROC NEAR	; ATL::CSimpleStringT<char,0>::operator char const *, COMDAT
; _this$ = ecx

; 379  : 		return( m_pszData );

  00000	8b 01		 mov	 eax, DWORD PTR [ecx]

; 380  : 	}

  00002	c3		 ret	 0
??B?$CSimpleStringT@D$0A@@ATL@@QBEPBDXZ ENDP		; ATL::CSimpleStringT<char,0>::operator char const *
_TEXT	ENDS
PUBLIC	?size@?$basic_string@DU?$char_traits@D@std@@V?$allocator@D@2@@std@@QBEIXZ ; std::basic_string<char,std::char_traits<char>,std::allocator<char> >::size
; Function compile flags: /Ogty
; File c:\program files\microsoft visual studio .net 2003\vc7\include\xstring
;	COMDAT ?size@?$basic_string@DU?$char_traits@D@std@@V?$allocator@D@2@@std@@QBEIXZ
_TEXT	SEGMENT
?size@?$basic_string@DU?$char_traits@D@std@@V?$allocator@D@2@@std@@QBEIXZ PROC NEAR ; std::basic_string<char,std::char_traits<char>,std::allocator<char> >::size, COMDAT
; _this$ = ecx

; 1109 : 		return (_Mysize);

  00000	8b 41 14	 mov	 eax, DWORD PTR [ecx+20]

; 1110 : 		}

  00003	c3		 ret	 0
?size@?$basic_string@DU?$char_traits@D@std@@V?$allocator@D@2@@std@@QBEIXZ ENDP ; std::basic_string<char,std::char_traits<char>,std::allocator<char> >::size
_TEXT	ENDS
PUBLIC	?GetString@?$CSimpleStringT@D$0A@@ATL@@QBEPBDXZ	; ATL::CSimpleStringT<char,0>::GetString
; Function compile flags: /Ogty
; File c:\program files\microsoft visual studio .net 2003\vc7\atlmfc\include\atlsimpstr.h
;	COMDAT ?GetString@?$CSimpleStringT@D$0A@@ATL@@QBEPBDXZ
_TEXT	SEGMENT
?GetString@?$CSimpleStringT@D$0A@@ATL@@QBEPBDXZ PROC NEAR ; ATL::CSimpleStringT<char,0>::GetString, COMDAT
; _this$ = ecx

; 510  : 		return( m_pszData );

  00000	8b 01		 mov	 eax, DWORD PTR [ecx]

; 511  : 	}

  00002	c3		 ret	 0
?GetString@?$CSimpleStringT@D$0A@@ATL@@QBEPBDXZ ENDP	; ATL::CSimpleStringT<char,0>::GetString
_TEXT	ENDS
PUBLIC	?StringLength@?$CSimpleStringT@D$0A@@ATL@@SAHPBD@Z ; ATL::CSimpleStringT<char,0>::StringLength
; Function compile flags: /Ogty
;	COMDAT ?StringLength@?$CSimpleStringT@D$0A@@ATL@@SAHPBD@Z
_TEXT	SEGMENT
_psz$ = 8						; size = 4
?StringLength@?$CSimpleStringT@D$0A@@ATL@@SAHPBD@Z PROC NEAR ; ATL::CSimpleStringT<char,0>::StringLength, COMDAT

; 678  : 		if( psz == NULL )

  00000	8b 44 24 04	 mov	 eax, DWORD PTR _psz$[esp-4]
  00004	85 c0		 test	 eax, eax
  00006	75 01		 jne	 SHORT $L219971

; 683  : 	}

  00008	c3		 ret	 0
$L219971:

; 679  : 		{
; 680  : 			return( 0 );
; 681  : 		}
; 682  : 		return( int( strlen( psz ) ) );

  00009	8d 50 01	 lea	 edx, DWORD PTR [eax+1]
  0000c	8d 64 24 00	 npad	 4
$L264286:
  00010	8a 08		 mov	 cl, BYTE PTR [eax]
  00012	40		 inc	 eax
  00013	84 c9		 test	 cl, cl
  00015	75 f9		 jne	 SHORT $L264286
  00017	2b c2		 sub	 eax, edx

; 683  : 	}

  00019	c3		 ret	 0
?StringLength@?$CSimpleStringT@D$0A@@ATL@@SAHPBD@Z ENDP	; ATL::CSimpleStringT<char,0>::StringLength
_TEXT	ENDS
PUBLIC	?GetData@?$CSimpleStringT@D$0A@@ATL@@ABEPAUCStringData@2@XZ ; ATL::CSimpleStringT<char,0>::GetData
; Function compile flags: /Ogty
;	COMDAT ?GetData@?$CSimpleStringT@D$0A@@ATL@@ABEPAUCStringData@2@XZ
_TEXT	SEGMENT
?GetData@?$CSimpleStringT@D$0A@@ATL@@ABEPAUCStringData@2@XZ PROC NEAR ; ATL::CSimpleStringT<char,0>::GetData, COMDAT
; _this$ = ecx

; 731  : 		return( reinterpret_cast< CStringData* >( m_pszData )-1 );

  00000	8b 01		 mov	 eax, DWORD PTR [ecx]
  00002	83 e8 10	 sub	 eax, 16			; 00000010H

; 732  : 	}

  00005	c3		 ret	 0
?GetData@?$CSimpleStringT@D$0A@@ATL@@ABEPAUCStringData@2@XZ ENDP ; ATL::CSimpleStringT<char,0>::GetData
_TEXT	ENDS
PUBLIC	?SetLength@?$CSimpleStringT@D$0A@@ATL@@AAEXH@Z	; ATL::CSimpleStringT<char,0>::SetLength
; Function compile flags: /Ogty
;	COMDAT ?SetLength@?$CSimpleStringT@D$0A@@ATL@@AAEXH@Z
_TEXT	SEGMENT
_nLength$ = 8						; size = 4
?SetLength@?$CSimpleStringT@D$0A@@ATL@@AAEXH@Z PROC NEAR ; ATL::CSimpleStringT<char,0>::SetLength, COMDAT
; _this$ = ecx

; 790  : 		ATLASSERT( nLength >= 0 );
; 791  : 		ATLASSERT( nLength <= GetData()->nAllocLength );
; 792  : 
; 793  : 		if( nLength < 0 || nLength > GetData()->nAllocLength)

  00000	8b 44 24 04	 mov	 eax, DWORD PTR _nLength$[esp-4]
  00004	85 c0		 test	 eax, eax
  00006	7c 13		 jl	 SHORT $L219986
  00008	8b 11		 mov	 edx, DWORD PTR [ecx]
  0000a	3b 42 f8	 cmp	 eax, DWORD PTR [edx-8]
  0000d	7f 0c		 jg	 SHORT $L219986

; 794  : 			AtlThrow(E_INVALIDARG);
; 795  : 			
; 796  : 		GetData()->nDataLength = nLength;

  0000f	89 42 f4	 mov	 DWORD PTR [edx-12], eax

; 797  : 		m_pszData[nLength] = 0;

  00012	8b 09		 mov	 ecx, DWORD PTR [ecx]
  00014	c6 04 08 00	 mov	 BYTE PTR [eax+ecx], 0

; 798  : 	}

  00018	c2 04 00	 ret	 4
$L219986:
  0001b	68 57 00 07 80	 push	 -2147024809		; 80070057H
  00020	e8 00 00 00 00	 call	 ?AtlThrow@ATL@@YGXJ@Z	; ATL::AtlThrow
$L264300:
$L264299:
  00025	cc		 int	 3
?SetLength@?$CSimpleStringT@D$0A@@ATL@@AAEXH@Z ENDP	; ATL::CSimpleStringT<char,0>::SetLength
_TEXT	ENDS
PUBLIC	?FindStringResourceInstance@?$StrTraitMFC@DV?$ChTraitsCRT@D@ATL@@@@SAPAUHINSTANCE__@@I@Z ; StrTraitMFC<char,ATL::ChTraitsCRT<char> >::FindStringResourceInstance
EXTRN	?AfxFindStringResourceHandle@@YGPAUHINSTANCE__@@I@Z:NEAR ; AfxFindStringResourceHandle
; Function compile flags: /Ogty
; File c:\program files\microsoft visual studio .net 2003\vc7\atlmfc\include\afxstr.h
;	COMDAT ?FindStringResourceInstance@?$StrTraitMFC@DV?$ChTraitsCRT@D@ATL@@@@SAPAUHINSTANCE__@@I@Z
_TEXT	SEGMENT
_nID$ = 8						; size = 4
?FindStringResourceInstance@?$StrTraitMFC@DV?$ChTraitsCRT@D@ATL@@@@SAPAUHINSTANCE__@@I@Z PROC NEAR ; StrTraitMFC<char,ATL::ChTraitsCRT<char> >::FindStringResourceInstance, COMDAT

; 45   : 		return( AfxFindStringResourceHandle( nID ) );

  00000	8b 44 24 04	 mov	 eax, DWORD PTR _nID$[esp-4]
  00004	50		 push	 eax
  00005	e8 00 00 00 00	 call	 ?AfxFindStringResourceHandle@@YGPAUHINSTANCE__@@I@Z ; AfxFindStringResourceHandle

; 46   : 	}

  0000a	c3		 ret	 0
?FindStringResourceInstance@?$StrTraitMFC@DV?$ChTraitsCRT@D@ATL@@@@SAPAUHINSTANCE__@@I@Z ENDP ; StrTraitMFC<char,ATL::ChTraitsCRT<char> >::FindStringResourceInstance
_TEXT	ENDS
PUBLIC	?GetDefaultManager@?$StrTraitMFC@DV?$ChTraitsCRT@D@ATL@@@@SAPAUIAtlStringMgr@ATL@@XZ ; StrTraitMFC<char,ATL::ChTraitsCRT<char> >::GetDefaultManager
EXTRN	?AfxGetStringManager@@YGPAUIAtlStringMgr@ATL@@XZ:NEAR ; AfxGetStringManager
; Function compile flags: /Ogty
;	COMDAT ?GetDefaultManager@?$StrTraitMFC@DV?$ChTraitsCRT@D@ATL@@@@SAPAUIAtlStringMgr@ATL@@XZ
_TEXT	SEGMENT
?GetDefaultManager@?$StrTraitMFC@DV?$ChTraitsCRT@D@ATL@@@@SAPAUIAtlStringMgr@ATL@@XZ PROC NEAR ; StrTraitMFC<char,ATL::ChTraitsCRT<char> >::GetDefaultManager, COMDAT

; 50   : 		return( AfxGetStringManager() );

  00000	e9 00 00 00 00	 jmp	 ?AfxGetStringManager@@YGPAUIAtlStringMgr@ATL@@XZ ; AfxGetStringManager
?GetDefaultManager@?$StrTraitMFC@DV?$ChTraitsCRT@D@ATL@@@@SAPAUIAtlStringMgr@ATL@@XZ ENDP ; StrTraitMFC<char,ATL::ChTraitsCRT<char> >::GetDefaultManager
_TEXT	ENDS
PUBLIC	?StringFindString@?$ChTraitsCRT@D@ATL@@SAPBDPBD0@Z ; ATL::ChTraitsCRT<char>::StringFindString
EXTRN	__mbsstr:NEAR
; Function compile flags: /Ogty
; File c:\program files\microsoft visual studio .net 2003\vc7\atlmfc\include\cstringt.h
;	COMDAT ?StringFindString@?$ChTraitsCRT@D@ATL@@SAPBDPBD0@Z
_TEXT	SEGMENT
_pszBlock$ = 8						; size = 4
_pszMatch$ = 12						; size = 4
?StringFindString@?$ChTraitsCRT@D@ATL@@SAPBDPBD0@Z PROC NEAR ; ATL::ChTraitsCRT<char>::StringFindString, COMDAT

; 356  : 		return reinterpret_cast< LPCSTR >( _mbsstr( reinterpret_cast< const unsigned char* >( pszBlock ),
; 357  : 			reinterpret_cast< const unsigned char* >( pszMatch ) ) );

  00000	e9 00 00 00 00	 jmp	 __mbsstr
?StringFindString@?$ChTraitsCRT@D@ATL@@SAPBDPBD0@Z ENDP	; ATL::ChTraitsCRT<char>::StringFindString
_TEXT	ENDS
PUBLIC	?_Myptr@?$basic_string@DU?$char_traits@D@std@@V?$allocator@D@2@@std@@QBEPBDXZ ; std::basic_string<char,std::char_traits<char>,std::allocator<char> >::_Myptr
; Function compile flags: /Ogty
; File c:\program files\microsoft visual studio .net 2003\vc7\include\xstring
;	COMDAT ?_Myptr@?$basic_string@DU?$char_traits@D@std@@V?$allocator@D@2@@std@@QBEPBDXZ
_TEXT	SEGMENT
?_Myptr@?$basic_string@DU?$char_traits@D@std@@V?$allocator@D@2@@std@@QBEPBDXZ PROC NEAR ; std::basic_string<char,std::char_traits<char>,std::allocator<char> >::_Myptr, COMDAT
; _this$ = ecx

; 1537 : 		return (_BUF_SIZE <= _Myres ? _Bx._Ptr : _Bx._Buf);

  00000	83 79 18 10	 cmp	 DWORD PTR [ecx+24], 16	; 00000010H
  00004	72 04		 jb	 SHORT $L264315
  00006	8b 41 04	 mov	 eax, DWORD PTR [ecx+4]

; 1538 : 		}

  00009	c3		 ret	 0
$L264315:

; 1537 : 		return (_BUF_SIZE <= _Myres ? _Bx._Ptr : _Bx._Buf);

  0000a	8d 41 04	 lea	 eax, DWORD PTR [ecx+4]

; 1538 : 		}

  0000d	c3		 ret	 0
?_Myptr@?$basic_string@DU?$char_traits@D@std@@V?$allocator@D@2@@std@@QBEPBDXZ ENDP ; std::basic_string<char,std::char_traits<char>,std::allocator<char> >::_Myptr
_TEXT	ENDS
PUBLIC	??0?$allocator@D@std@@QAE@XZ			; std::allocator<char>::allocator<char>
; Function compile flags: /Ogty
; File c:\program files\microsoft visual studio .net 2003\vc7\include\xmemory
;	COMDAT ??0?$allocator@D@std@@QAE@XZ
_TEXT	SEGMENT
??0?$allocator@D@std@@QAE@XZ PROC NEAR			; std::allocator<char>::allocator<char>, COMDAT
; _this$ = ecx

; 111  : 	allocator()

  00000	8b c1		 mov	 eax, ecx

; 112  : 		{	// construct default allocator (do nothing)
; 113  : 		}

  00002	c3		 ret	 0
??0?$allocator@D@std@@QAE@XZ ENDP			; std::allocator<char>::allocator<char>
_TEXT	ENDS
PUBLIC	??0?$allocator@D@std@@QAE@ABV01@@Z		; std::allocator<char>::allocator<char>
; Function compile flags: /Ogty
;	COMDAT ??0?$allocator@D@std@@QAE@ABV01@@Z
_TEXT	SEGMENT
___formal$ = 8						; size = 4
??0?$allocator@D@std@@QAE@ABV01@@Z PROC NEAR		; std::allocator<char>::allocator<char>, COMDAT
; _this$ = ecx

; 115  : 	allocator(const allocator<_Ty>&)

  00000	8b c1		 mov	 eax, ecx

; 116  : 		{	// construct by copying (do nothing)
; 117  : 		}

  00002	c2 04 00	 ret	 4
??0?$allocator@D@std@@QAE@ABV01@@Z ENDP			; std::allocator<char>::allocator<char>
_TEXT	ENDS
PUBLIC	?Attach@?$CSimpleStringT@D$0A@@ATL@@AAEXPAUCStringData@2@@Z ; ATL::CSimpleStringT<char,0>::Attach
; Function compile flags: /Ogty
; File c:\program files\microsoft visual studio .net 2003\vc7\atlmfc\include\atlsimpstr.h
;	COMDAT ?Attach@?$CSimpleStringT@D$0A@@ATL@@AAEXPAUCStringData@2@@Z
_TEXT	SEGMENT
_pData$ = 8						; size = 4
?Attach@?$CSimpleStringT@D$0A@@ATL@@AAEXPAUCStringData@2@@Z PROC NEAR ; ATL::CSimpleStringT<char,0>::Attach, COMDAT
; _this$ = ecx

; 712  : 		m_pszData = static_cast< PXSTR >( pData->data() );

  00000	8b 44 24 04	 mov	 eax, DWORD PTR _pData$[esp-4]
  00004	83 c0 10	 add	 eax, 16			; 00000010H
  00007	89 01		 mov	 DWORD PTR [ecx], eax

; 713  : 	}

  00009	c2 04 00	 ret	 4
?Attach@?$CSimpleStringT@D$0A@@ATL@@AAEXPAUCStringData@2@@Z ENDP ; ATL::CSimpleStringT<char,0>::Attach
_TEXT	ENDS
PUBLIC	?GetFormattedLength@?$ChTraitsCRT@D@ATL@@SAHPBDPAD@Z ; ATL::ChTraitsCRT<char>::GetFormattedLength
EXTRN	__vscprintf:NEAR
; Function compile flags: /Ogty
; File c:\program files\microsoft visual studio .net 2003\vc7\atlmfc\include\cstringt.h
;	COMDAT ?GetFormattedLength@?$ChTraitsCRT@D@ATL@@SAHPBDPAD@Z
_TEXT	SEGMENT
_pszFormat$ = 8						; size = 4
_args$ = 12						; size = 4
?GetFormattedLength@?$ChTraitsCRT@D@ATL@@SAHPBDPAD@Z PROC NEAR ; ATL::ChTraitsCRT<char>::GetFormattedLength, COMDAT

; 408  : 		return _vscprintf( pszFormat, args );

  00000	e9 00 00 00 00	 jmp	 __vscprintf
?GetFormattedLength@?$ChTraitsCRT@D@ATL@@SAHPBDPAD@Z ENDP ; ATL::ChTraitsCRT<char>::GetFormattedLength
_TEXT	ENDS
PUBLIC	?Format@?$ChTraitsCRT@D@ATL@@SAHPADPBD0@Z	; ATL::ChTraitsCRT<char>::Format
EXTRN	_vsprintf:NEAR
; Function compile flags: /Ogty
;	COMDAT ?Format@?$ChTraitsCRT@D@ATL@@SAHPADPBD0@Z
_TEXT	SEGMENT
_pszBuffer$ = 8						; size = 4
_pszFormat$ = 12					; size = 4
_args$ = 16						; size = 4
?Format@?$ChTraitsCRT@D@ATL@@SAHPADPBD0@Z PROC NEAR	; ATL::ChTraitsCRT<char>::Format, COMDAT

; 413  : 		return vsprintf( pszBuffer, pszFormat, args );

  00000	e9 00 00 00 00	 jmp	 _vsprintf
?Format@?$ChTraitsCRT@D@ATL@@SAHPADPBD0@Z ENDP		; ATL::ChTraitsCRT<char>::Format
_TEXT	ENDS
PUBLIC	?GetBaseTypeLength@?$ChTraitsCRT@D@ATL@@SAHPBGH@Z ; ATL::ChTraitsCRT<char>::GetBaseTypeLength
EXTRN	__imp__WideCharToMultiByte@32:NEAR
; Function compile flags: /Ogty
;	COMDAT ?GetBaseTypeLength@?$ChTraitsCRT@D@ATL@@SAHPBGH@Z
_TEXT	SEGMENT
_pszSource$ = 8						; size = 4
_nLength$ = 12						; size = 4
?GetBaseTypeLength@?$ChTraitsCRT@D@ATL@@SAHPBGH@Z PROC NEAR ; ATL::ChTraitsCRT<char>::GetBaseTypeLength, COMDAT

; 437  : 		// Returns required buffer length in XCHARs
; 438  : 		return ::WideCharToMultiByte( _AtlGetConversionACP(), 0, pszSource, nLength, NULL, 0, NULL, NULL );

  00000	ff 15 00 00 00
	00		 call	 DWORD PTR ?g_pfnGetThreadACP@ATL@@3P6GIXZA ; ATL::g_pfnGetThreadACP
  00006	8b 4c 24 08	 mov	 ecx, DWORD PTR _nLength$[esp-4]
  0000a	8b 54 24 04	 mov	 edx, DWORD PTR _pszSource$[esp-4]
  0000e	6a 00		 push	 0
  00010	6a 00		 push	 0
  00012	6a 00		 push	 0
  00014	6a 00		 push	 0
  00016	51		 push	 ecx
  00017	52		 push	 edx
  00018	6a 00		 push	 0
  0001a	50		 push	 eax
  0001b	ff 15 00 00 00
	00		 call	 DWORD PTR __imp__WideCharToMultiByte@32

; 439  : 	}

  00021	c3		 ret	 0
?GetBaseTypeLength@?$ChTraitsCRT@D@ATL@@SAHPBGH@Z ENDP	; ATL::ChTraitsCRT<char>::GetBaseTypeLength
_TEXT	ENDS
PUBLIC	?ConvertToBaseType@?$ChTraitsCRT@D@ATL@@SAXPADHPBGH@Z ; ATL::ChTraitsCRT<char>::ConvertToBaseType
; Function compile flags: /Ogty
;	COMDAT ?ConvertToBaseType@?$ChTraitsCRT@D@ATL@@SAXPADHPBGH@Z
_TEXT	SEGMENT
_pszDest$ = 8						; size = 4
_nDestLength$ = 12					; size = 4
_pszSrc$ = 16						; size = 4
_nSrcLength$ = 20					; size = 4
?ConvertToBaseType@?$ChTraitsCRT@D@ATL@@SAXPADHPBGH@Z PROC NEAR ; ATL::ChTraitsCRT<char>::ConvertToBaseType, COMDAT

; 452  : 		// nLen is in XCHARs
; 453  : 		::WideCharToMultiByte( _AtlGetConversionACP(), 0, pszSrc, nSrcLength, pszDest, nDestLength, NULL, NULL );

  00000	8b 44 24 08	 mov	 eax, DWORD PTR _nDestLength$[esp-4]
  00004	8b 4c 24 04	 mov	 ecx, DWORD PTR _pszDest$[esp-4]
  00008	8b 54 24 10	 mov	 edx, DWORD PTR _nSrcLength$[esp-4]
  0000c	6a 00		 push	 0
  0000e	6a 00		 push	 0
  00010	50		 push	 eax
  00011	8b 44 24 18	 mov	 eax, DWORD PTR _pszSrc$[esp+8]
  00015	51		 push	 ecx
  00016	52		 push	 edx
  00017	50		 push	 eax
  00018	6a 00		 push	 0
  0001a	ff 15 00 00 00
	00		 call	 DWORD PTR ?g_pfnGetThreadACP@ATL@@3P6GIXZA ; ATL::g_pfnGetThreadACP
  00020	50		 push	 eax
  00021	ff 15 00 00 00
	00		 call	 DWORD PTR __imp__WideCharToMultiByte@32

; 454  : 	}

  00027	c3		 ret	 0
?ConvertToBaseType@?$ChTraitsCRT@D@ATL@@SAXPADHPBGH@Z ENDP ; ATL::ChTraitsCRT<char>::ConvertToBaseType
_TEXT	ENDS
PUBLIC	?_Myptr@?$basic_string@DU?$char_traits@D@std@@V?$allocator@D@2@@std@@QAEPADXZ ; std::basic_string<char,std::char_traits<char>,std::allocator<char> >::_Myptr
; Function compile flags: /Ogty
; File c:\program files\microsoft visual studio .net 2003\vc7\include\xstring
;	COMDAT ?_Myptr@?$basic_string@DU?$char_traits@D@std@@V?$allocator@D@2@@std@@QAEPADXZ
_TEXT	SEGMENT
?_Myptr@?$basic_string@DU?$char_traits@D@std@@V?$allocator@D@2@@std@@QAEPADXZ PROC NEAR ; std::basic_string<char,std::char_traits<char>,std::allocator<char> >::_Myptr, COMDAT
; _this$ = ecx

; 1532 : 		return (_BUF_SIZE <= _Myres ? _Bx._Ptr : _Bx._Buf);

  00000	83 79 18 10	 cmp	 DWORD PTR [ecx+24], 16	; 00000010H
  00004	72 04		 jb	 SHORT $L264353
  00006	8b 41 04	 mov	 eax, DWORD PTR [ecx+4]

; 1533 : 		}

  00009	c3		 ret	 0
$L264353:

; 1532 : 		return (_BUF_SIZE <= _Myres ? _Bx._Ptr : _Bx._Buf);

  0000a	8d 41 04	 lea	 eax, DWORD PTR [ecx+4]

; 1533 : 		}

  0000d	c3		 ret	 0
?_Myptr@?$basic_string@DU?$char_traits@D@std@@V?$allocator@D@2@@std@@QAEPADXZ ENDP ; std::basic_string<char,std::char_traits<char>,std::allocator<char> >::_Myptr
_TEXT	ENDS
PUBLIC	?deallocate@?$allocator@D@std@@QAEXPADI@Z	; std::allocator<char>::deallocate
; Function compile flags: /Ogty
; File c:\program files\microsoft visual studio .net 2003\vc7\include\xmemory
;	COMDAT ?deallocate@?$allocator@D@std@@QAEXPADI@Z
_TEXT	SEGMENT
__Ptr$ = 8						; size = 4
___formal$ = 12						; size = 4
?deallocate@?$allocator@D@std@@QAEXPADI@Z PROC NEAR	; std::allocator<char>::deallocate, COMDAT
; _this$ = ecx

; 132  : 		operator delete(_Ptr);

  00000	8b 44 24 04	 mov	 eax, DWORD PTR __Ptr$[esp-4]
  00004	50		 push	 eax
  00005	e8 00 00 00 00	 call	 ??3@YAXPAX@Z		; operator delete
  0000a	59		 pop	 ecx

; 133  : 		}

  0000b	c2 08 00	 ret	 8
?deallocate@?$allocator@D@std@@QAEXPADI@Z ENDP		; std::allocator<char>::deallocate
_TEXT	ENDS
PUBLIC	?CopyChars@?$CSimpleStringT@D$0A@@ATL@@SAXPADPBDH@Z ; ATL::CSimpleStringT<char,0>::CopyChars
; Function compile flags: /Ogty
; File c:\program files\microsoft visual studio .net 2003\vc7\atlmfc\include\atlsimpstr.h
;	COMDAT ?CopyChars@?$CSimpleStringT@D$0A@@ATL@@SAXPADPBDH@Z
_TEXT	SEGMENT
_pchDest$ = 8						; size = 4
_pchSrc$ = 12						; size = 4
_nChars$ = 16						; size = 4
?CopyChars@?$CSimpleStringT@D$0A@@ATL@@SAXPADPBDH@Z PROC NEAR ; ATL::CSimpleStringT<char,0>::CopyChars, COMDAT

; 653  : 		memcpy( pchDest, pchSrc, nChars*sizeof( XCHAR ) );

  00000	8b 4c 24 0c	 mov	 ecx, DWORD PTR _nChars$[esp-4]
  00004	56		 push	 esi
  00005	8b 74 24 0c	 mov	 esi, DWORD PTR _pchSrc$[esp]
  00009	8b c1		 mov	 eax, ecx
  0000b	57		 push	 edi
  0000c	8b 7c 24 0c	 mov	 edi, DWORD PTR _pchDest$[esp+4]
  00010	c1 e9 02	 shr	 ecx, 2
  00013	f3 a5		 rep movsd
  00015	8b c8		 mov	 ecx, eax
  00017	83 e1 03	 and	 ecx, 3
  0001a	f3 a4		 rep movsb
  0001c	5f		 pop	 edi
  0001d	5e		 pop	 esi

; 654  : 	}

  0001e	c3		 ret	 0
?CopyChars@?$CSimpleStringT@D$0A@@ATL@@SAXPADPBDH@Z ENDP ; ATL::CSimpleStringT<char,0>::CopyChars
_TEXT	ENDS
PUBLIC	?CopyCharsOverlapped@?$CSimpleStringT@D$0A@@ATL@@SAXPADPBDH@Z ; ATL::CSimpleStringT<char,0>::CopyCharsOverlapped
; Function compile flags: /Ogty
;	COMDAT ?CopyCharsOverlapped@?$CSimpleStringT@D$0A@@ATL@@SAXPADPBDH@Z
_TEXT	SEGMENT
_pchDest$ = 8						; size = 4
_pchSrc$ = 12						; size = 4
_nChars$ = 16						; size = 4
?CopyCharsOverlapped@?$CSimpleStringT@D$0A@@ATL@@SAXPADPBDH@Z PROC NEAR ; ATL::CSimpleStringT<char,0>::CopyCharsOverlapped, COMDAT

; 657  : 		memmove( pchDest, pchSrc, nChars*sizeof( XCHAR ) );

  00000	e9 00 00 00 00	 jmp	 _memmove
?CopyCharsOverlapped@?$CSimpleStringT@D$0A@@ATL@@SAXPADPBDH@Z ENDP ; ATL::CSimpleStringT<char,0>::CopyCharsOverlapped
_TEXT	ENDS
PUBLIC	?ThrowMemoryException@?$CSimpleStringT@D$0A@@ATL@@KAXXZ ; ATL::CSimpleStringT<char,0>::ThrowMemoryException
; Function compile flags: /Ogty
;	COMDAT ?ThrowMemoryException@?$CSimpleStringT@D$0A@@ATL@@KAXXZ
_TEXT	SEGMENT
?ThrowMemoryException@?$CSimpleStringT@D$0A@@ATL@@KAXXZ PROC NEAR ; ATL::CSimpleStringT<char,0>::ThrowMemoryException, COMDAT

; 705  : 		AtlThrow( E_OUTOFMEMORY );

  00000	68 0e 00 07 80	 push	 -2147024882		; 8007000eH
  00005	e8 00 00 00 00	 call	 ?AtlThrow@ATL@@YGXJ@Z	; ATL::AtlThrow
$L264368:
$L264367:
  0000a	cc		 int	 3
?ThrowMemoryException@?$CSimpleStringT@D$0A@@ATL@@KAXXZ ENDP ; ATL::CSimpleStringT<char,0>::ThrowMemoryException
_TEXT	ENDS
PUBLIC	?Fork@?$CSimpleStringT@D$0A@@ATL@@AAEXH@Z	; ATL::CSimpleStringT<char,0>::Fork
; Function compile flags: /Ogty
;	COMDAT ?Fork@?$CSimpleStringT@D$0A@@ATL@@AAEXH@Z
_TEXT	SEGMENT
_this$ = -4						; size = 4
tv181 = 8						; size = 4
_nLength$ = 8						; size = 4
?Fork@?$CSimpleStringT@D$0A@@ATL@@AAEXH@Z PROC NEAR	; ATL::CSimpleStringT<char,0>::Fork, COMDAT
; _this$ = ecx

; 715  : 	{

  00000	51		 push	 ecx
  00001	53		 push	 ebx

; 716  : 		CStringData* pOldData = GetData();

  00002	8b 19		 mov	 ebx, DWORD PTR [ecx]
  00004	83 eb 10	 sub	 ebx, 16			; 00000010H
  00007	55		 push	 ebp

; 717  : 		int nOldLength = pOldData->nDataLength;

  00008	8b 6b 04	 mov	 ebp, DWORD PTR [ebx+4]
  0000b	89 4c 24 08	 mov	 DWORD PTR _this$[esp+12], ecx

; 718  : 		CStringData* pNewData = pOldData->pStringMgr->Clone()->Allocate( nLength, sizeof( XCHAR ) );

  0000f	8b 0b		 mov	 ecx, DWORD PTR [ebx]
  00011	8b 01		 mov	 eax, DWORD PTR [ecx]
  00013	56		 push	 esi
  00014	ff 50 10	 call	 DWORD PTR [eax+16]
  00017	8b 74 24 14	 mov	 esi, DWORD PTR _nLength$[esp+12]
  0001b	8b 10		 mov	 edx, DWORD PTR [eax]
  0001d	6a 01		 push	 1
  0001f	56		 push	 esi
  00020	8b c8		 mov	 ecx, eax
  00022	ff 12		 call	 DWORD PTR [edx]

; 719  : 		if( pNewData == NULL )

  00024	85 c0		 test	 eax, eax
  00026	75 05		 jne	 SHORT $L222762

; 720  : 		{
; 721  : 			ThrowMemoryException();

  00028	e8 00 00 00 00	 call	 ?ThrowMemoryException@?$CSimpleStringT@D$0A@@ATL@@KAXXZ ; ATL::CSimpleStringT<char,0>::ThrowMemoryException
$L264399:
$L222762:

; 722  : 		}
; 723  : 		int nCharsToCopy = ((nOldLength < nLength) ? nOldLength : nLength)+1;  // Copy '\0'

  0002d	3b ee		 cmp	 ebp, esi
  0002f	7d 02		 jge	 SHORT $L264373
  00031	8b f5		 mov	 esi, ebp
$L264373:
  00033	8d 4e 01	 lea	 ecx, DWORD PTR [esi+1]

; 724  : 		CopyChars( PXSTR( pNewData->data() ), PCXSTR( pOldData->data() ), nCharsToCopy );

  00036	8b d1		 mov	 edx, ecx
  00038	57		 push	 edi
  00039	c1 e9 02	 shr	 ecx, 2
  0003c	8d 78 10	 lea	 edi, DWORD PTR [eax+16]
  0003f	89 7c 24 18	 mov	 DWORD PTR tv181[esp+16], edi
  00043	8d 73 10	 lea	 esi, DWORD PTR [ebx+16]
  00046	f3 a5		 rep movsd
  00048	8b ca		 mov	 ecx, edx
  0004a	83 e1 03	 and	 ecx, 3
  0004d	f3 a4		 rep movsb

; 725  : 		pNewData->nDataLength = nOldLength;

  0004f	89 68 04	 mov	 DWORD PTR [eax+4], ebp

; 726  : 		pOldData->Release();

  00052	8d 43 0c	 lea	 eax, DWORD PTR [ebx+12]
  00055	83 c9 ff	 or	 ecx, -1
  00058	f0 0f c1 08	 lock	  xadd	 DWORD PTR [eax], ecx
  0005c	49		 dec	 ecx
  0005d	85 c9		 test	 ecx, ecx
  0005f	5f		 pop	 edi
  00060	7f 08		 jg	 SHORT $L264389
  00062	8b 0b		 mov	 ecx, DWORD PTR [ebx]
  00064	8b 11		 mov	 edx, DWORD PTR [ecx]
  00066	53		 push	 ebx
  00067	ff 52 04	 call	 DWORD PTR [edx+4]
$L264389:

; 727  : 		Attach( pNewData );

  0006a	8b 44 24 14	 mov	 eax, DWORD PTR tv181[esp+12]
  0006e	8b 4c 24 0c	 mov	 ecx, DWORD PTR _this$[esp+16]
  00072	5e		 pop	 esi
  00073	5d		 pop	 ebp
  00074	89 01		 mov	 DWORD PTR [ecx], eax
  00076	5b		 pop	 ebx

; 728  : 	}

  00077	59		 pop	 ecx
  00078	c2 04 00	 ret	 4
$L264398:
?Fork@?$CSimpleStringT@D$0A@@ATL@@AAEXH@Z ENDP		; ATL::CSimpleStringT<char,0>::Fork
_TEXT	ENDS
PUBLIC	?Reallocate@?$CSimpleStringT@D$0A@@ATL@@AAEXH@Z	; ATL::CSimpleStringT<char,0>::Reallocate
; Function compile flags: /Ogty
;	COMDAT ?Reallocate@?$CSimpleStringT@D$0A@@ATL@@AAEXH@Z
_TEXT	SEGMENT
_nLength$ = 8						; size = 4
?Reallocate@?$CSimpleStringT@D$0A@@ATL@@AAEXH@Z PROC NEAR ; ATL::CSimpleStringT<char,0>::Reallocate, COMDAT
; _this$ = ecx

; 776  : 	{

  00000	56		 push	 esi
  00001	57		 push	 edi

; 777  : 		CStringData* pOldData = GetData();
; 778  : 		ATLASSERT( pOldData->nAllocLength < nLength );
; 779  : 		IAtlStringMgr* pStringMgr = pOldData->pStringMgr;
; 780  : 		CStringData* pNewData = pStringMgr->Reallocate( pOldData, nLength, sizeof( XCHAR ) );

  00002	8b 7c 24 0c	 mov	 edi, DWORD PTR _nLength$[esp+4]
  00006	8b f1		 mov	 esi, ecx
  00008	8b 06		 mov	 eax, DWORD PTR [esi]
  0000a	8b 48 f0	 mov	 ecx, DWORD PTR [eax-16]
  0000d	8b 11		 mov	 edx, DWORD PTR [ecx]
  0000f	83 e8 10	 sub	 eax, 16			; 00000010H
  00012	6a 01		 push	 1
  00014	57		 push	 edi
  00015	50		 push	 eax
  00016	ff 52 08	 call	 DWORD PTR [edx+8]

; 781  : 		if( pNewData == NULL )

  00019	85 c0		 test	 eax, eax
  0001b	75 05		 jne	 SHORT $L222771

; 782  : 		{
; 783  : 			ThrowMemoryException();

  0001d	e8 00 00 00 00	 call	 ?ThrowMemoryException@?$CSimpleStringT@D$0A@@ATL@@KAXXZ ; ATL::CSimpleStringT<char,0>::ThrowMemoryException
$L264415:
$L222771:

; 784  : 		}
; 785  : 		Attach( pNewData );

  00022	83 c0 10	 add	 eax, 16			; 00000010H
  00025	5f		 pop	 edi
  00026	89 06		 mov	 DWORD PTR [esi], eax
  00028	5e		 pop	 esi

; 786  : 	}

  00029	c2 04 00	 ret	 4
$L264414:
?Reallocate@?$CSimpleStringT@D$0A@@ATL@@AAEXH@Z ENDP	; ATL::CSimpleStringT<char,0>::Reallocate
_TEXT	ENDS
PUBLIC	?_Inside@?$basic_string@DU?$char_traits@D@std@@V?$allocator@D@2@@std@@IAE_NPBD@Z ; std::basic_string<char,std::char_traits<char>,std::allocator<char> >::_Inside
; Function compile flags: /Ogty
; File c:\program files\microsoft visual studio .net 2003\vc7\include\xstring
;	COMDAT ?_Inside@?$basic_string@DU?$char_traits@D@std@@V?$allocator@D@2@@std@@IAE_NPBD@Z
_TEXT	SEGMENT
__Ptr$ = 8						; size = 4
?_Inside@?$basic_string@DU?$char_traits@D@std@@V?$allocator@D@2@@std@@IAE_NPBD@Z PROC NEAR ; std::basic_string<char,std::char_traits<char>,std::allocator<char> >::_Inside, COMDAT
; _this$ = ecx

; 1494 : 		{	// test if _Ptr points inside string

  00000	56		 push	 esi

; 1495 : 		if (_Ptr < _Myptr() || _Myptr() + _Mysize <= _Ptr)

  00001	8b 71 18	 mov	 esi, DWORD PTR [ecx+24]
  00004	83 fe 10	 cmp	 esi, 16			; 00000010H
  00007	57		 push	 edi
  00008	8d 41 04	 lea	 eax, DWORD PTR [ecx+4]
  0000b	72 04		 jb	 SHORT $L264424
  0000d	8b 10		 mov	 edx, DWORD PTR [eax]
  0000f	eb 02		 jmp	 SHORT $L264425
$L264424:
  00011	8b d0		 mov	 edx, eax
$L264425:
  00013	8b 7c 24 0c	 mov	 edi, DWORD PTR __Ptr$[esp+4]
  00017	3b fa		 cmp	 edi, edx
  00019	72 17		 jb	 SHORT $L222788
  0001b	83 fe 10	 cmp	 esi, 16			; 00000010H
  0001e	72 02		 jb	 SHORT $L264432
  00020	8b 00		 mov	 eax, DWORD PTR [eax]
$L264432:
  00022	8b 49 14	 mov	 ecx, DWORD PTR [ecx+20]
  00025	03 c8		 add	 ecx, eax
  00027	3b cf		 cmp	 ecx, edi
  00029	76 07		 jbe	 SHORT $L222788
  0002b	5f		 pop	 edi

; 1497 : 		else
; 1498 : 			return (true);

  0002c	b0 01		 mov	 al, 1
  0002e	5e		 pop	 esi

; 1499 : 		}

  0002f	c2 04 00	 ret	 4
$L222788:
  00032	5f		 pop	 edi

; 1496 : 			return (false);	// don't ask

  00033	32 c0		 xor	 al, al
  00035	5e		 pop	 esi

; 1499 : 		}

  00036	c2 04 00	 ret	 4
?_Inside@?$basic_string@DU?$char_traits@D@std@@V?$allocator@D@2@@std@@IAE_NPBD@Z ENDP ; std::basic_string<char,std::char_traits<char>,std::allocator<char> >::_Inside
_TEXT	ENDS
PUBLIC	?max_size@?$allocator@D@std@@QBEIXZ		; std::allocator<char>::max_size
; Function compile flags: /Ogty
; File c:\program files\microsoft visual studio .net 2003\vc7\include\xmemory
;	COMDAT ?max_size@?$allocator@D@std@@QBEIXZ
_TEXT	SEGMENT
?max_size@?$allocator@D@std@@QBEIXZ PROC NEAR		; std::allocator<char>::max_size, COMDAT
; _this$ = ecx

; 157  : 		_SIZT _Count = (_SIZT)(-1) / sizeof (_Ty);
; 158  : 		return (0 < _Count ? _Count : 1);

  00000	83 c8 ff	 or	 eax, -1

; 159  : 		}

  00003	c3		 ret	 0
?max_size@?$allocator@D@std@@QBEIXZ ENDP		; std::allocator<char>::max_size
_TEXT	ENDS
PUBLIC	??$_Allocate@D@std@@YAPADIPAD@Z			; std::_Allocate<char>
; Function compile flags: /Ogty
;	COMDAT ??$_Allocate@D@std@@YAPADIPAD@Z
_TEXT	SEGMENT
__Count$ = 8						; size = 4
___formal$ = 12						; size = 4
??$_Allocate@D@std@@YAPADIPAD@Z PROC NEAR		; std::_Allocate<char>, COMDAT

; 34   : 	return ((_Ty _FARQ *)operator new(_Count * sizeof (_Ty)));

  00000	8b 44 24 04	 mov	 eax, DWORD PTR __Count$[esp-4]
  00004	50		 push	 eax
  00005	e8 00 00 00 00	 call	 ??2@YAPAXI@Z		; operator new
  0000a	83 c4 04	 add	 esp, 4

; 35   : 	}

  0000d	c3		 ret	 0
??$_Allocate@D@std@@YAPADIPAD@Z ENDP			; std::_Allocate<char>
_TEXT	ENDS
PUBLIC	?GetWorldStruct@CWorldMng@@QAEPAUtagWORLD@@K@Z	; CWorldMng::GetWorldStruct
; Function compile flags: /Ogty
; File c:\documents and settings\test\mes documents\source\virtuos_v17\build\program\_common\worldmng.h
;	COMDAT ?GetWorldStruct@CWorldMng@@QAEPAUtagWORLD@@K@Z
_TEXT	SEGMENT
_idWorld$ = 8						; size = 4
?GetWorldStruct@CWorldMng@@QAEPAUtagWORLD@@K@Z PROC NEAR ; CWorldMng::GetWorldStruct, COMDAT
; _this$ = ecx

; 93   : 	LPWORLD	GetWorldStruct( OBJID idWorld )	{ return (LPWORLD)m_aWorld.GetAt( idWorld ); }

  00000	8b 44 24 04	 mov	 eax, DWORD PTR _idWorld$[esp-4]
  00004	3b 81 30 e8 05
	00		 cmp	 eax, DWORD PTR [ecx+387120]
  0000a	72 05		 jb	 SHORT $L264447
  0000c	33 c0		 xor	 eax, eax
  0000e	c2 04 00	 ret	 4
$L264447:
  00011	8b 89 20 e8 05
	00		 mov	 ecx, DWORD PTR [ecx+387104]
  00017	8b 04 81	 mov	 eax, DWORD PTR [ecx+eax*4]
  0001a	c2 04 00	 ret	 4
?GetWorldStruct@CWorldMng@@QAEPAUtagWORLD@@K@Z ENDP	; CWorldMng::GetWorldStruct
_TEXT	ENDS
PUBLIC	?DeleteLayerControls@CWorld@@QAEXH@Z		; CWorld::DeleteLayerControls
EXTRN	?Delete@CObj@@QAEXXZ:NEAR			; CObj::Delete
; Function compile flags: /Ogty
; File c:\documents and settings\test\mes documents\source\virtuos_v17\build\program\_common\worldfile.cpp
;	COMDAT ?DeleteLayerControls@CWorld@@QAEXH@Z
_TEXT	SEGMENT
_nLayer$ = 8						; size = 4
?DeleteLayerControls@CWorld@@QAEXH@Z PROC NEAR		; CWorld::DeleteLayerControls, COMDAT
; _this$ = ecx

; 283  : {

  00000	53		 push	 ebx
  00001	8b d9		 mov	 ebx, ecx

; 284  : 	CObj* pObj;
; 285  : 	for( DWORD i = 0; i < m_dwObjNum; i++ )

  00003	8b 43 44	 mov	 eax, DWORD PTR [ebx+68]
  00006	57		 push	 edi
  00007	33 ff		 xor	 edi, edi
  00009	85 c0		 test	 eax, eax
  0000b	76 32		 jbe	 SHORT $L258511
  0000d	55		 push	 ebp
  0000e	8b 6c 24 10	 mov	 ebp, DWORD PTR _nLayer$[esp+8]
  00012	56		 push	 esi
  00013	8d 73 48	 lea	 esi, DWORD PTR [ebx+72]
$L264463:

; 286  : 	{
; 287  : 		pObj	= m_apObject[i];

  00016	8b 0e		 mov	 ecx, DWORD PTR [esi]

; 288  : 		if( pObj && pObj->GetType() == OT_CTRL && pObj->GetLayer() == nLayer )

  00018	85 c9		 test	 ecx, ecx
  0001a	74 16		 je	 SHORT $L258510
  0001c	83 b9 70 01 00
	00 02		 cmp	 DWORD PTR [ecx+368], 2
  00023	75 0d		 jne	 SHORT $L258510
  00025	39 a9 b8 01 00
	00		 cmp	 DWORD PTR [ecx+440], ebp
  0002b	75 05		 jne	 SHORT $L258510

; 289  : 			pObj->Delete();

  0002d	e8 00 00 00 00	 call	 ?Delete@CObj@@QAEXXZ	; CObj::Delete
$L258510:

; 284  : 	CObj* pObj;
; 285  : 	for( DWORD i = 0; i < m_dwObjNum; i++ )

  00032	8b 43 44	 mov	 eax, DWORD PTR [ebx+68]
  00035	47		 inc	 edi
  00036	83 c6 04	 add	 esi, 4
  00039	3b f8		 cmp	 edi, eax
  0003b	72 d9		 jb	 SHORT $L264463
  0003d	5e		 pop	 esi
  0003e	5d		 pop	 ebp
$L258511:
  0003f	5f		 pop	 edi
  00040	5b		 pop	 ebx

; 290  : 	}
; 291  : }

  00041	c2 04 00	 ret	 4
?DeleteLayerControls@CWorld@@QAEXH@Z ENDP		; CWorld::DeleteLayerControls
_TEXT	ENDS
PUBLIC	?HasNoObj_Add@CWorld@@AAEHH@Z			; CWorld::HasNoObj_Add
; Function compile flags: /Ogty
;	COMDAT ?HasNoObj_Add@CWorld@@AAEHH@Z
_TEXT	SEGMENT
_nLayer$ = 8						; size = 4
?HasNoObj_Add@CWorld@@AAEHH@Z PROC NEAR			; CWorld::HasNoObj_Add, COMDAT
; _this$ = ecx

; 1241 : {

  00000	56		 push	 esi

; 1246 : 	}
; 1247 : 	return TRUE;

  00001	8b b1 60 b0 05
	00		 mov	 esi, DWORD PTR [ecx+372832]
  00007	33 d2		 xor	 edx, edx
  00009	85 f6		 test	 esi, esi
  0000b	57		 push	 edi
  0000c	7e 20		 jle	 SHORT $L258893
  0000e	8b 7c 24 0c	 mov	 edi, DWORD PTR _nLayer$[esp+4]
  00012	81 c1 64 b0 05
	00		 add	 ecx, 372836		; 0005b064H
$L258891:
  00018	8b 01		 mov	 eax, DWORD PTR [ecx]
  0001a	85 c0		 test	 eax, eax
  0001c	74 08		 je	 SHORT $L258892
  0001e	39 b8 b8 01 00
	00		 cmp	 DWORD PTR [eax+440], edi
  00024	74 12		 je	 SHORT $L264472
$L258892:

; 1242 : 	for( int i = 0; i < m_cbAddObjs; i++ )

  00026	42		 inc	 edx
  00027	83 c1 04	 add	 ecx, 4
  0002a	3b d6		 cmp	 edx, esi
  0002c	7c ea		 jl	 SHORT $L258891
$L258893:
  0002e	5f		 pop	 edi
  0002f	5e		 pop	 esi

; 1246 : 	}
; 1247 : 	return TRUE;

  00030	b8 01 00 00 00	 mov	 eax, 1

; 1248 : }

  00035	c2 04 00	 ret	 4
$L264472:
  00038	5f		 pop	 edi
  00039	5e		 pop	 esi

; 1243 : 	{
; 1244 : 		if( m_apAddObjs[i] && m_apAddObjs[i]->GetLayer() == nLayer )
; 1245 : 			return FALSE;

  0003a	33 c0		 xor	 eax, eax

; 1248 : }

  0003c	c2 04 00	 ret	 4
?HasNoObj_Add@CWorld@@AAEHH@Z ENDP			; CWorld::HasNoObj_Add
_TEXT	ENDS
PUBLIC	?HasNobody_Replace@CWorld@@AAEHH@Z		; CWorld::HasNobody_Replace
EXTRN	?g_WorldMng@@3VCWorldMng@@A:BYTE		; g_WorldMng
EXTRN	?HasNobody_Replace@CWorldMng@@QAEHKH@Z:NEAR	; CWorldMng::HasNobody_Replace
; Function compile flags: /Ogty
;	COMDAT ?HasNobody_Replace@CWorld@@AAEHH@Z
_TEXT	SEGMENT
_nLayer$ = 8						; size = 4
?HasNobody_Replace@CWorld@@AAEHH@Z PROC NEAR		; CWorld::HasNobody_Replace, COMDAT
; _this$ = ecx

; 1252 : #if __VER >= 15 // __GUILD_HOUSE
; 1253 : 	return g_WorldMng.HasNobody_Replace( GetID(), nLayer );

  00000	8b 44 24 04	 mov	 eax, DWORD PTR _nLayer$[esp-4]
  00004	8b 09		 mov	 ecx, DWORD PTR [ecx]
  00006	50		 push	 eax
  00007	51		 push	 ecx
  00008	b9 00 00 00 00	 mov	 ecx, OFFSET FLAT:?g_WorldMng@@3VCWorldMng@@A
  0000d	e8 00 00 00 00	 call	 ?HasNobody_Replace@CWorldMng@@QAEHKH@Z ; CWorldMng::HasNobody_Replace

; 1254 : #else // __GUILD_HOUSE
; 1255 : 	for( int i = 0; i < m_cbReplaceObj; ++i )
; 1256 : 	{
; 1257 : 		if( m_aReplaceObj[i].nLayer == nLayer )
; 1258 : 			return FALSE;
; 1259 : 	}
; 1260 : #endif // __GUILD_HOUSE
; 1261 : 	return TRUE;
; 1262 : }

  00012	c2 04 00	 ret	 4
?HasNobody_Replace@CWorld@@AAEHH@Z ENDP			; CWorld::HasNobody_Replace
_TEXT	ENDS
PUBLIC	?IsLayerPlayer@CWorld@@AAEHPAVCObj@@H@Z		; CWorld::IsLayerPlayer
; Function compile flags: /Ogty
;	COMDAT ?IsLayerPlayer@CWorld@@AAEHPAVCObj@@H@Z
_TEXT	SEGMENT
_pObj$ = 8						; size = 4
_nLayer$ = 12						; size = 4
?IsLayerPlayer@CWorld@@AAEHPAVCObj@@H@Z PROC NEAR	; CWorld::IsLayerPlayer, COMDAT
; _this$ = ecx

; 1266 : 	return ( pObj && pObj->GetLayer() == nLayer && pObj->GetType() == OT_MOVER && static_cast<CMover*>( pObj )->IsPlayer() );

  00000	8b 44 24 04	 mov	 eax, DWORD PTR _pObj$[esp-4]
  00004	85 c0		 test	 eax, eax
  00006	74 27		 je	 SHORT $L264485
  00008	8b 88 b8 01 00
	00		 mov	 ecx, DWORD PTR [eax+440]
  0000e	3b 4c 24 08	 cmp	 ecx, DWORD PTR _nLayer$[esp-4]
  00012	75 1b		 jne	 SHORT $L264485
  00014	83 b8 70 01 00
	00 05		 cmp	 DWORD PTR [eax+368], 5
  0001b	75 12		 jne	 SHORT $L264485
  0001d	8b 88 34 02 00
	00		 mov	 ecx, DWORD PTR [eax+564]
  00023	85 c9		 test	 ecx, ecx
  00025	74 08		 je	 SHORT $L264485
  00027	b8 01 00 00 00	 mov	 eax, 1

; 1267 : }

  0002c	c2 08 00	 ret	 8
$L264485:

; 1266 : 	return ( pObj && pObj->GetLayer() == nLayer && pObj->GetType() == OT_MOVER && static_cast<CMover*>( pObj )->IsPlayer() );

  0002f	33 c0		 xor	 eax, eax

; 1267 : }

  00031	c2 08 00	 ret	 8
?IsLayerPlayer@CWorld@@AAEHPAVCObj@@H@Z ENDP		; CWorld::IsLayerPlayer
_TEXT	ENDS
PUBLIC	?DriveOut@CWorld@@QAEXH@Z			; CWorld::DriveOut
EXTRN	?GoOut@CHousingMng@@QAEXPAVCUser@@@Z:NEAR	; CHousingMng::GoOut
EXTRN	?Replace@CMover@@QAEHKKAAUD3DXVECTOR3@@W4REPLACE_TYPE@@H@Z:NEAR ; CMover::Replace
EXTRN	?GetInstance@CInstanceDungeonHelper@@SAPAV1@XZ:NEAR ; CInstanceDungeonHelper::GetInstance
EXTRN	?GoOut@CInstanceDungeonHelper@@QAEXPAVCUser@@@Z:NEAR ; CInstanceDungeonHelper::GoOut
EXTRN	?GetInstance@CHousingMng@@SAPAV1@XZ:NEAR	; CHousingMng::GetInstance
EXTRN	?g_uIdofMulti@@3KA:DWORD			; g_uIdofMulti
EXTRN	?GetInstance@CGuildHouseMng@@SAPAV1@XZ:NEAR	; CGuildHouseMng::GetInstance
EXTRN	?IsGuildHouse@CGuildHouseMng@@QAEHK@Z:NEAR	; CGuildHouseMng::IsGuildHouse
; Function compile flags: /Ogty
;	COMDAT ?DriveOut@CWorld@@QAEXH@Z
_TEXT	SEGMENT
_i$258909 = -16						; size = 4
$T264502 = -12						; size = 12
_nLayer$ = 8						; size = 4
?DriveOut@CWorld@@QAEXH@Z PROC NEAR			; CWorld::DriveOut, COMDAT
; _this$ = ecx

; 1270 : {

  00000	83 ec 10	 sub	 esp, 16			; 00000010H
  00003	53		 push	 ebx
  00004	8b d9		 mov	 ebx, ecx

; 1271 : #ifdef __WORLDSERVER
; 1272 : 	for( DWORD i = 0; i < m_dwObjNum; i++ )

  00006	8b 43 44	 mov	 eax, DWORD PTR [ebx+68]
  00009	85 c0		 test	 eax, eax
  0000b	c7 44 24 04 00
	00 00 00	 mov	 DWORD PTR _i$258909[esp+20], 0
  00013	0f 86 e3 00 00
	00		 jbe	 $L258912
  00019	55		 push	 ebp
  0001a	56		 push	 esi
  0001b	57		 push	 edi
  0001c	8d 6b 48	 lea	 ebp, DWORD PTR [ebx+72]
  0001f	90		 npad	 1
$L264560:

; 1273 : 	{
; 1274 : 		if( IsLayerPlayer( m_apObject[i], nLayer ) )

  00020	8b 75 00	 mov	 esi, DWORD PTR [ebp]
  00023	85 f6		 test	 esi, esi
  00025	0f 84 b7 00 00
	00		 je	 $L258911
  0002b	8b 44 24 24	 mov	 eax, DWORD PTR _nLayer$[esp+28]
  0002f	39 86 b8 01 00
	00		 cmp	 DWORD PTR [esi+440], eax
  00035	0f 85 a7 00 00
	00		 jne	 $L258911
  0003b	83 be 70 01 00
	00 05		 cmp	 DWORD PTR [esi+368], 5
  00042	0f 85 9a 00 00
	00		 jne	 $L258911
  00048	8b 86 34 02 00
	00		 mov	 eax, DWORD PTR [esi+564]
  0004e	85 c0		 test	 eax, eax
  00050	0f 84 8c 00 00
	00		 je	 $L258911

; 1275 : 		{
; 1276 : 			CUser* pUser	= static_cast<CUser*>( m_apObject[i] );
; 1277 : 			switch( GetID() )

  00056	8b 3b		 mov	 edi, DWORD PTR [ebx]
  00058	81 ff d1 00 00
	00		 cmp	 edi, 209		; 000000d1H
  0005e	74 75		 je	 SHORT $L258920

; 1281 : #endif // __HOUSING
; 1282 : 				default :
; 1283 : #if __VER >= 14 // __INSTANCE_DUNGEON
; 1284 : 					if( CInstanceDungeonHelper::GetInstance()->IsInstanceDungeon( GetID() ) )

  00060	e8 00 00 00 00	 call	 ?GetInstance@CInstanceDungeonHelper@@SAPAV1@XZ ; CInstanceDungeonHelper::GetInstance
  00065	57		 push	 edi
  00066	8b c8		 mov	 ecx, eax
  00068	e8 00 00 00 00	 call	 ?GetType@CInstanceDungeonHelper@@AAEHK@Z ; CInstanceDungeonHelper::GetType
  0006d	83 f8 ff	 cmp	 eax, -1
  00070	74 0f		 je	 SHORT $L258922

; 1285 : 					{
; 1286 : 						CInstanceDungeonHelper::GetInstance()->GoOut( pUser );

  00072	56		 push	 esi
  00073	e8 00 00 00 00	 call	 ?GetInstance@CInstanceDungeonHelper@@SAPAV1@XZ ; CInstanceDungeonHelper::GetInstance
  00078	8b c8		 mov	 ecx, eax
  0007a	e8 00 00 00 00	 call	 ?GoOut@CInstanceDungeonHelper@@QAEXPAVCUser@@@Z ; CInstanceDungeonHelper::GoOut

; 1287 : 						break;

  0007f	eb 61		 jmp	 SHORT $L258911
$L258922:

; 1288 : 					}
; 1289 : #endif // __INSTANCE_DUNGEON
; 1290 : #if __VER >= 15 // __GUILD_HOUSE
; 1291 : 					else if( GuildHouseMng->IsGuildHouse( GetID() ) )

  00081	8b 03		 mov	 eax, DWORD PTR [ebx]
  00083	50		 push	 eax
  00084	e8 00 00 00 00	 call	 ?GetInstance@CGuildHouseMng@@SAPAV1@XZ ; CGuildHouseMng::GetInstance
  00089	8b c8		 mov	 ecx, eax
  0008b	e8 00 00 00 00	 call	 ?IsGuildHouse@CGuildHouseMng@@QAEHK@Z ; CGuildHouseMng::IsGuildHouse
  00090	85 c0		 test	 eax, eax

; 1292 : 					{
; 1293 : 						//pUser->REPLACE( g_uIdofMulti, WI_WORLD_MADRIGAL, pUser->m_vMarkingPos, REPLACE_FORCE, nDefaultLayer );
; 1294 : 						Invalidate( nLayer, FALSE );

  00092	6a 00		 push	 0
  00094	74 0f		 je	 SHORT $L258924
  00096	8b 4c 24 28	 mov	 ecx, DWORD PTR _nLayer$[esp+32]
  0009a	51		 push	 ecx
  0009b	8d 4b 24	 lea	 ecx, DWORD PTR [ebx+36]
  0009e	e8 00 00 00 00	 call	 ?Invalidate@CLayeredLinkMap@@QAEXHH@Z ; CLayeredLinkMap::Invalidate

; 1295 : 						break;

  000a3	eb 3d		 jmp	 SHORT $L258911
$L258924:

; 1296 : 					}
; 1297 : #endif // __GUILD_HOUSE
; 1298 : 					pUser->REPLACE( g_uIdofMulti, WI_WORLD_MADRIGAL, D3DXVECTOR3( 6983.0f, 0.0f, 3330.0f ), REPLACE_FORCE, nDefaultLayer );

  000a5	a1 00 00 00 00	 mov	 eax, DWORD PTR ?g_uIdofMulti@@3KA ; g_uIdofMulti
  000aa	6a 01		 push	 1
  000ac	8d 54 24 1c	 lea	 edx, DWORD PTR $T264502[esp+40]
  000b0	52		 push	 edx
  000b1	6a 01		 push	 1
  000b3	50		 push	 eax
  000b4	8b ce		 mov	 ecx, esi
  000b6	c7 44 24 28 00
	38 da 45	 mov	 DWORD PTR $T264502[esp+52], 1171929088 ; 45da3800H
  000be	c7 44 24 2c 00
	00 00 00	 mov	 DWORD PTR $T264502[esp+56], 0
  000c6	c7 44 24 30 00
	20 50 45	 mov	 DWORD PTR $T264502[esp+60], 1162878976 ; 45502000H
  000ce	e8 00 00 00 00	 call	 ?Replace@CMover@@QAEHKKAAUD3DXVECTOR3@@W4REPLACE_TYPE@@H@Z ; CMover::Replace

; 1299 : 					break;

  000d3	eb 0d		 jmp	 SHORT $L258911
$L258920:

; 1278 : 			{
; 1279 : #if __VER >= 13 // __HOUSING
; 1280 : 				case WI_WORLD_MINIROOM : CHousingMng::GetInstance()->GoOut( pUser ); break;

  000d5	56		 push	 esi
  000d6	e8 00 00 00 00	 call	 ?GetInstance@CHousingMng@@SAPAV1@XZ ; CHousingMng::GetInstance
  000db	8b c8		 mov	 ecx, eax
  000dd	e8 00 00 00 00	 call	 ?GoOut@CHousingMng@@QAEXPAVCUser@@@Z ; CHousingMng::GoOut
$L258911:
  000e2	8b 44 24 10	 mov	 eax, DWORD PTR _i$258909[esp+32]
  000e6	8b 4b 44	 mov	 ecx, DWORD PTR [ebx+68]
  000e9	40		 inc	 eax
  000ea	83 c5 04	 add	 ebp, 4
  000ed	3b c1		 cmp	 eax, ecx
  000ef	89 44 24 10	 mov	 DWORD PTR _i$258909[esp+32], eax
  000f3	0f 82 27 ff ff
	ff		 jb	 $L264560
  000f9	5f		 pop	 edi
  000fa	5e		 pop	 esi
  000fb	5d		 pop	 ebp
$L258912:
  000fc	5b		 pop	 ebx

; 1300 : 			}
; 1301 : 		}
; 1302 : 	}
; 1303 : #endif	// __WORLDSERVER
; 1304 : }

  000fd	83 c4 10	 add	 esp, 16			; 00000010H
  00100	c2 04 00	 ret	 4
?DriveOut@CWorld@@QAEXH@Z ENDP				; CWorld::DriveOut
_TEXT	ENDS
PUBLIC	?DestroyObj@CWorld@@QAEXH@Z			; CWorld::DestroyObj
EXTRN	?DestroyObj@CWorld@@QAEXPAVCObj@@@Z:NEAR	; CWorld::DestroyObj
; Function compile flags: /Ogty
;	COMDAT ?DestroyObj@CWorld@@QAEXH@Z
_TEXT	SEGMENT
_nLayer$ = 8						; size = 4
?DestroyObj@CWorld@@QAEXH@Z PROC NEAR			; CWorld::DestroyObj, COMDAT
; _this$ = ecx

; 1315 : {

  00000	53		 push	 ebx
  00001	56		 push	 esi
  00002	8b f1		 mov	 esi, ecx

; 1316 : 	for( DWORD i = 0; i < m_dwObjNum; i++ )

  00004	8b 46 44	 mov	 eax, DWORD PTR [esi+68]
  00007	33 db		 xor	 ebx, ebx
  00009	85 c0		 test	 eax, eax
  0000b	76 2c		 jbe	 SHORT $L258937
  0000d	55		 push	 ebp
  0000e	8b 6c 24 10	 mov	 ebp, DWORD PTR _nLayer$[esp+8]
  00012	57		 push	 edi
  00013	8d 7e 48	 lea	 edi, DWORD PTR [esi+72]
$L264570:

; 1317 : 	{
; 1318 : 		CObj* pObj	= m_apObject[i];

  00016	8b 07		 mov	 eax, DWORD PTR [edi]

; 1319 : 		if( pObj && pObj->GetLayer() == nLayer )

  00018	85 c0		 test	 eax, eax
  0001a	74 10		 je	 SHORT $L258936
  0001c	39 a8 b8 01 00
	00		 cmp	 DWORD PTR [eax+440], ebp
  00022	75 08		 jne	 SHORT $L258936

; 1320 : 			DestroyObj( pObj );

  00024	50		 push	 eax
  00025	8b ce		 mov	 ecx, esi
  00027	e8 00 00 00 00	 call	 ?DestroyObj@CWorld@@QAEXPAVCObj@@@Z ; CWorld::DestroyObj
$L258936:
  0002c	8b 46 44	 mov	 eax, DWORD PTR [esi+68]
  0002f	43		 inc	 ebx
  00030	83 c7 04	 add	 edi, 4
  00033	3b d8		 cmp	 ebx, eax
  00035	72 df		 jb	 SHORT $L264570
  00037	5f		 pop	 edi
  00038	5d		 pop	 ebp
$L258937:
  00039	5e		 pop	 esi
  0003a	5b		 pop	 ebx

; 1321 : 	}
; 1322 : }

  0003b	c2 04 00	 ret	 4
?DestroyObj@CWorld@@QAEXH@Z ENDP			; CWorld::DestroyObj
_TEXT	ENDS
PUBLIC	?Compare@?$CStringT@DV?$StrTraitMFC@DV?$ChTraitsCRT@D@ATL@@@@@ATL@@QBEHPBD@Z ; ATL::CStringT<char,StrTraitMFC<char,ATL::ChTraitsCRT<char> > >::Compare
; Function compile flags: /Ogty
; File c:\program files\microsoft visual studio .net 2003\vc7\atlmfc\include\cstringt.h
;	COMDAT ?Compare@?$CStringT@DV?$StrTraitMFC@DV?$ChTraitsCRT@D@ATL@@@@@ATL@@QBEHPBD@Z
_TEXT	SEGMENT
_psz$ = 8						; size = 4
?Compare@?$CStringT@DV?$StrTraitMFC@DV?$ChTraitsCRT@D@ATL@@@@@ATL@@QBEHPBD@Z PROC NEAR ; ATL::CStringT<char,StrTraitMFC<char,ATL::ChTraitsCRT<char> > >::Compare, COMDAT
; _this$ = ecx

; 1088 : 		ATLASSERT( AtlIsValidString( psz ) );
; 1089 : 		return( StringTraits::StringCompare( GetString(), psz ) );

  00000	8b 44 24 04	 mov	 eax, DWORD PTR _psz$[esp-4]
  00004	8b 09		 mov	 ecx, DWORD PTR [ecx]
  00006	50		 push	 eax
  00007	51		 push	 ecx
  00008	e8 00 00 00 00	 call	 __mbscmp
  0000d	83 c4 08	 add	 esp, 8

; 1090 : 	}

  00010	c2 04 00	 ret	 4
?Compare@?$CStringT@DV?$StrTraitMFC@DV?$ChTraitsCRT@D@ATL@@@@@ATL@@QBEHPBD@Z ENDP ; ATL::CStringT<char,StrTraitMFC<char,ATL::ChTraitsCRT<char> > >::Compare
_TEXT	ENDS
PUBLIC	?GetBuffer@?$CSimpleStringT@D$0A@@ATL@@QAEPADXZ	; ATL::CSimpleStringT<char,0>::GetBuffer
; Function compile flags: /Ogty
; File c:\program files\microsoft visual studio .net 2003\vc7\atlmfc\include\atlsimpstr.h
;	COMDAT ?GetBuffer@?$CSimpleStringT@D$0A@@ATL@@QAEPADXZ
_TEXT	SEGMENT
?GetBuffer@?$CSimpleStringT@D$0A@@ATL@@QAEPADXZ PROC NEAR ; ATL::CSimpleStringT<char,0>::GetBuffer, COMDAT
; _this$ = ecx

; 479  : 	{

  00000	56		 push	 esi
  00001	8b f1		 mov	 esi, ecx

; 480  : 		CStringData* pData = GetData();

  00003	8b 06		 mov	 eax, DWORD PTR [esi]

; 481  : 		if( pData->IsShared() )

  00005	8b 48 fc	 mov	 ecx, DWORD PTR [eax-4]
  00008	83 e8 10	 sub	 eax, 16			; 00000010H
  0000b	83 f9 01	 cmp	 ecx, 1
  0000e	7e 0b		 jle	 SHORT $L264590

; 482  : 		{
; 483  : 			Fork( pData->nDataLength );

  00010	8b 40 04	 mov	 eax, DWORD PTR [eax+4]
  00013	50		 push	 eax
  00014	8b ce		 mov	 ecx, esi
  00016	e8 00 00 00 00	 call	 ?Fork@?$CSimpleStringT@D$0A@@ATL@@AAEXH@Z ; ATL::CSimpleStringT<char,0>::Fork
$L264590:

; 484  : 		}
; 485  : 
; 486  : 		return( m_pszData );

  0001b	8b 06		 mov	 eax, DWORD PTR [esi]
  0001d	5e		 pop	 esi

; 487  : 	}

  0001e	c3		 ret	 0
?GetBuffer@?$CSimpleStringT@D$0A@@ATL@@QAEPADXZ ENDP	; ATL::CSimpleStringT<char,0>::GetBuffer
_TEXT	ENDS
PUBLIC	?StringFindString@?$ChTraitsCRT@D@ATL@@SAPADPADPBD@Z ; ATL::ChTraitsCRT<char>::StringFindString
; Function compile flags: /Ogty
; File c:\program files\microsoft visual studio .net 2003\vc7\atlmfc\include\cstringt.h
;	COMDAT ?StringFindString@?$ChTraitsCRT@D@ATL@@SAPADPADPBD@Z
_TEXT	SEGMENT
_pszBlock$ = 8						; size = 4
_pszMatch$ = 12						; size = 4
?StringFindString@?$ChTraitsCRT@D@ATL@@SAPADPADPBD@Z PROC NEAR ; ATL::ChTraitsCRT<char>::StringFindString, COMDAT

; 362  : 		return( const_cast< LPSTR >( StringFindString( const_cast< LPCSTR >( pszBlock ), pszMatch ) ) );

  00000	e9 00 00 00 00	 jmp	 __mbsstr
?StringFindString@?$ChTraitsCRT@D@ATL@@SAPADPADPBD@Z ENDP ; ATL::ChTraitsCRT<char>::StringFindString
_TEXT	ENDS
PUBLIC	??Diterator@?$vector@KV?$allocator@K@std@@@std@@QBEAAKXZ ; std::vector<unsigned long,std::allocator<unsigned long> >::iterator::operator*
; Function compile flags: /Ogty
; File c:\program files\microsoft visual studio .net 2003\vc7\include\vector
;	COMDAT ??Diterator@?$vector@KV?$allocator@K@std@@@std@@QBEAAKXZ
_TEXT	SEGMENT
??Diterator@?$vector@KV?$allocator@K@std@@@std@@QBEAAKXZ PROC NEAR ; std::vector<unsigned long,std::allocator<unsigned long> >::iterator::operator*, COMDAT
; _this$ = ecx

; 220  : 			return ((reference)**(const_iterator *)this);

  00000	8b 01		 mov	 eax, DWORD PTR [ecx]

; 221  : 			}

  00002	c3		 ret	 0
??Diterator@?$vector@KV?$allocator@K@std@@@std@@QBEAAKXZ ENDP ; std::vector<unsigned long,std::allocator<unsigned long> >::iterator::operator*
_TEXT	ENDS
PUBLIC	??Hiterator@?$vector@KV?$allocator@K@std@@@std@@QBE?AV012@H@Z ; std::vector<unsigned long,std::allocator<unsigned long> >::iterator::operator+
; Function compile flags: /Ogty
;	COMDAT ??Hiterator@?$vector@KV?$allocator@K@std@@@std@@QBE?AV012@H@Z
_TEXT	SEGMENT
___$ReturnUdt$ = 8					; size = 4
__Off$ = 12						; size = 4
??Hiterator@?$vector@KV?$allocator@K@std@@@std@@QBE?AV012@H@Z PROC NEAR ; std::vector<unsigned long,std::allocator<unsigned long> >::iterator::operator+, COMDAT
; _this$ = ecx

; 262  : 			iterator _Tmp = *this;
; 263  : 			return (_Tmp += _Off);

  00000	8b 01		 mov	 eax, DWORD PTR [ecx]
  00002	8b 4c 24 08	 mov	 ecx, DWORD PTR __Off$[esp-4]
  00006	8d 14 88	 lea	 edx, DWORD PTR [eax+ecx*4]
  00009	8b 44 24 04	 mov	 eax, DWORD PTR ___$ReturnUdt$[esp-4]
  0000d	89 10		 mov	 DWORD PTR [eax], edx

; 264  : 			}

  0000f	c2 08 00	 ret	 8
??Hiterator@?$vector@KV?$allocator@K@std@@@std@@QBE?AV012@H@Z ENDP ; std::vector<unsigned long,std::allocator<unsigned long> >::iterator::operator+
_TEXT	ENDS
PUBLIC	??0iterator@?$vector@KV?$allocator@K@std@@@std@@QAE@PAK@Z ; std::vector<unsigned long,std::allocator<unsigned long> >::iterator::iterator
; Function compile flags: /Ogty
;	COMDAT ??0iterator@?$vector@KV?$allocator@K@std@@@std@@QAE@PAK@Z
_TEXT	SEGMENT
__Ptr$ = 8						; size = 4
??0iterator@?$vector@KV?$allocator@K@std@@@std@@QAE@PAK@Z PROC NEAR ; std::vector<unsigned long,std::allocator<unsigned long> >::iterator::iterator, COMDAT
; _this$ = ecx

; 215  : 			{	// construct with pointer _Ptr

  00000	8b c1		 mov	 eax, ecx
  00002	8b 4c 24 04	 mov	 ecx, DWORD PTR __Ptr$[esp-4]
  00006	89 08		 mov	 DWORD PTR [eax], ecx

; 216  : 			}

  00008	c2 04 00	 ret	 4
??0iterator@?$vector@KV?$allocator@K@std@@@std@@QAE@PAK@Z ENDP ; std::vector<unsigned long,std::allocator<unsigned long> >::iterator::iterator
_TEXT	ENDS
PUBLIC	??0iterator@?$vector@PAVCObj@@V?$allocator@PAVCObj@@@std@@@std@@QAE@PAPAVCObj@@@Z ; std::vector<CObj *,std::allocator<CObj *> >::iterator::iterator
; Function compile flags: /Ogty
;	COMDAT ??0iterator@?$vector@PAVCObj@@V?$allocator@PAVCObj@@@std@@@std@@QAE@PAPAVCObj@@@Z
_TEXT	SEGMENT
__Ptr$ = 8						; size = 4
??0iterator@?$vector@PAVCObj@@V?$allocator@PAVCObj@@@std@@@std@@QAE@PAPAVCObj@@@Z PROC NEAR ; std::vector<CObj *,std::allocator<CObj *> >::iterator::iterator, COMDAT
; _this$ = ecx

; 215  : 			{	// construct with pointer _Ptr

  00000	8b c1		 mov	 eax, ecx
  00002	8b 4c 24 04	 mov	 ecx, DWORD PTR __Ptr$[esp-4]
  00006	89 08		 mov	 DWORD PTR [eax], ecx

; 216  : 			}

  00008	c2 04 00	 ret	 4
??0iterator@?$vector@PAVCObj@@V?$allocator@PAVCObj@@@std@@@std@@QAE@PAPAVCObj@@@Z ENDP ; std::vector<CObj *,std::allocator<CObj *> >::iterator::iterator
_TEXT	ENDS
PUBLIC	??Hiterator@?$vector@PAVCObj@@V?$allocator@PAVCObj@@@std@@@std@@QBE?AV012@H@Z ; std::vector<CObj *,std::allocator<CObj *> >::iterator::operator+
; Function compile flags: /Ogty
;	COMDAT ??Hiterator@?$vector@PAVCObj@@V?$allocator@PAVCObj@@@std@@@std@@QBE?AV012@H@Z
_TEXT	SEGMENT
___$ReturnUdt$ = 8					; size = 4
__Off$ = 12						; size = 4
??Hiterator@?$vector@PAVCObj@@V?$allocator@PAVCObj@@@std@@@std@@QBE?AV012@H@Z PROC NEAR ; std::vector<CObj *,std::allocator<CObj *> >::iterator::operator+, COMDAT
; _this$ = ecx

; 262  : 			iterator _Tmp = *this;
; 263  : 			return (_Tmp += _Off);

  00000	8b 01		 mov	 eax, DWORD PTR [ecx]
  00002	8b 4c 24 08	 mov	 ecx, DWORD PTR __Off$[esp-4]
  00006	8d 14 88	 lea	 edx, DWORD PTR [eax+ecx*4]
  00009	8b 44 24 04	 mov	 eax, DWORD PTR ___$ReturnUdt$[esp-4]
  0000d	89 10		 mov	 DWORD PTR [eax], edx

; 264  : 			}

  0000f	c2 08 00	 ret	 8
??Hiterator@?$vector@PAVCObj@@V?$allocator@PAVCObj@@@std@@@std@@QBE?AV012@H@Z ENDP ; std::vector<CObj *,std::allocator<CObj *> >::iterator::operator+
_TEXT	ENDS
PUBLIC	??Giterator@?$vector@PAVCObj@@V?$allocator@PAVCObj@@@std@@@std@@QBEHABVconst_iterator@12@@Z ; std::vector<CObj *,std::allocator<CObj *> >::iterator::operator-
; Function compile flags: /Ogty
;	COMDAT ??Giterator@?$vector@PAVCObj@@V?$allocator@PAVCObj@@@std@@@std@@QBEHABVconst_iterator@12@@Z
_TEXT	SEGMENT
__Right$ = 8						; size = 4
??Giterator@?$vector@PAVCObj@@V?$allocator@PAVCObj@@@std@@@std@@QBEHABVconst_iterator@12@@Z PROC NEAR ; std::vector<CObj *,std::allocator<CObj *> >::iterator::operator-, COMDAT
; _this$ = ecx

; 279  : 			return ((const_iterator)*this - _Right);

  00000	8b 01		 mov	 eax, DWORD PTR [ecx]
  00002	8b 4c 24 04	 mov	 ecx, DWORD PTR __Right$[esp-4]
  00006	2b 01		 sub	 eax, DWORD PTR [ecx]
  00008	c1 f8 02	 sar	 eax, 2

; 280  : 			}

  0000b	c2 04 00	 ret	 4
??Giterator@?$vector@PAVCObj@@V?$allocator@PAVCObj@@@std@@@std@@QBEHABVconst_iterator@12@@Z ENDP ; std::vector<CObj *,std::allocator<CObj *> >::iterator::operator-
_TEXT	ENDS
PUBLIC	?max_size@?$vector@PAVCObj@@V?$allocator@PAVCObj@@@std@@@std@@QBEIXZ ; std::vector<CObj *,std::allocator<CObj *> >::max_size
; Function compile flags: /Ogty
;	COMDAT ?max_size@?$vector@PAVCObj@@V?$allocator@PAVCObj@@@std@@@std@@QBEIXZ
_TEXT	SEGMENT
?max_size@?$vector@PAVCObj@@V?$allocator@PAVCObj@@@std@@@std@@QBEIXZ PROC NEAR ; std::vector<CObj *,std::allocator<CObj *> >::max_size, COMDAT
; _this$ = ecx

; 521  : 		return (this->_Alval.max_size());

  00000	b8 ff ff ff 3f	 mov	 eax, 1073741823		; 3fffffffH

; 522  : 		}

  00005	c3		 ret	 0
?max_size@?$vector@PAVCObj@@V?$allocator@PAVCObj@@@std@@@std@@QBEIXZ ENDP ; std::vector<CObj *,std::allocator<CObj *> >::max_size
_TEXT	ENDS
PUBLIC	?allocate@?$allocator@PAVCObj@@@std@@QAEPAPAVCObj@@I@Z ; std::allocator<CObj *>::allocate
; Function compile flags: /Ogty
; File c:\program files\microsoft visual studio .net 2003\vc7\include\xmemory
;	COMDAT ?allocate@?$allocator@PAVCObj@@@std@@QAEPAPAVCObj@@I@Z
_TEXT	SEGMENT
__Count$ = 8						; size = 4
?allocate@?$allocator@PAVCObj@@@std@@QAEPAPAVCObj@@I@Z PROC NEAR ; std::allocator<CObj *>::allocate, COMDAT
; _this$ = ecx

; 137  : 		return (_Allocate(_Count, (pointer)0));

  00000	8b 44 24 04	 mov	 eax, DWORD PTR __Count$[esp-4]
  00004	8d 0c 85 00 00
	00 00		 lea	 ecx, DWORD PTR [eax*4]
  0000b	51		 push	 ecx
  0000c	e8 00 00 00 00	 call	 ??2@YAPAXI@Z		; operator new
  00011	83 c4 04	 add	 esp, 4

; 138  : 		}

  00014	c2 04 00	 ret	 4
?allocate@?$allocator@PAVCObj@@@std@@QAEPAPAVCObj@@I@Z ENDP ; std::allocator<CObj *>::allocate
_TEXT	ENDS
PUBLIC	??$copy_backward@PAPAVCObj@@PAPAV1@@std@@YAPAPAVCObj@@PAPAV1@00@Z ; std::copy_backward<CObj * *,CObj * *>
; Function compile flags: /Ogty
; File c:\program files\microsoft visual studio .net 2003\vc7\include\xutility
;	COMDAT ??$copy_backward@PAPAVCObj@@PAPAV1@@std@@YAPAPAVCObj@@PAPAV1@00@Z
_TEXT	SEGMENT
__First$ = 8						; size = 4
__Last$ = 12						; size = 4
__Dest$ = 16						; size = 4
??$copy_backward@PAPAVCObj@@PAPAV1@@std@@YAPAPAVCObj@@PAPAV1@00@Z PROC NEAR ; std::copy_backward<CObj * *,CObj * *>, COMDAT

; 1068 : 	return (_Copy_backward_opt(_First, _Last, _Dest,
; 1069 : 		_Ptr_cat(_First, _Dest)));

  00000	8b 4c 24 04	 mov	 ecx, DWORD PTR __First$[esp-4]
  00004	8b 44 24 08	 mov	 eax, DWORD PTR __Last$[esp-4]
  00008	2b c1		 sub	 eax, ecx
  0000a	c1 f8 02	 sar	 eax, 2
  0000d	c1 e0 02	 shl	 eax, 2
  00010	50		 push	 eax
  00011	51		 push	 ecx
  00012	8b 4c 24 14	 mov	 ecx, DWORD PTR __Dest$[esp+4]
  00016	2b c8		 sub	 ecx, eax
  00018	51		 push	 ecx
  00019	e8 00 00 00 00	 call	 _memmove
  0001e	83 c4 0c	 add	 esp, 12			; 0000000cH

; 1070 : 	}

  00021	c3		 ret	 0
??$copy_backward@PAPAVCObj@@PAPAV1@@std@@YAPAPAVCObj@@PAPAV1@00@Z ENDP ; std::copy_backward<CObj * *,CObj * *>
_TEXT	ENDS
PUBLIC	??$_Destroy_range@PAVCObj@@V?$allocator@PAVCObj@@@std@@@std@@YAXPAPAVCObj@@0AAV?$allocator@PAVCObj@@@0@@Z ; std::_Destroy_range<CObj *,std::allocator<CObj *> >
; Function compile flags: /Ogty
; File c:\program files\microsoft visual studio .net 2003\vc7\include\xmemory
;	COMDAT ??$_Destroy_range@PAVCObj@@V?$allocator@PAVCObj@@@std@@@std@@YAXPAPAVCObj@@0AAV?$allocator@PAVCObj@@@0@@Z
_TEXT	SEGMENT
__First$ = 8						; size = 4
__Last$ = 12						; size = 4
__Al$ = 16						; size = 4
??$_Destroy_range@PAVCObj@@V?$allocator@PAVCObj@@@std@@@std@@YAXPAPAVCObj@@0AAV?$allocator@PAVCObj@@@0@@Z PROC NEAR ; std::_Destroy_range<CObj *,std::allocator<CObj *> >, COMDAT

; 217  : 	_Destroy_range(_First, _Last, _Al, _Ptr_cat(_First, _Last));
; 218  : 	}

  00000	c3		 ret	 0
??$_Destroy_range@PAVCObj@@V?$allocator@PAVCObj@@@std@@@std@@YAXPAPAVCObj@@0AAV?$allocator@PAVCObj@@@0@@Z ENDP ; std::_Destroy_range<CObj *,std::allocator<CObj *> >
_TEXT	ENDS
PUBLIC	??$_Uninit_fill_n@PAVCObj@@IPAV1@@std@@YAXPAPAVCObj@@IABQAV1@AAV?$allocator@PAVCObj@@@0@U_Scalar_ptr_iterator_tag@0@@Z ; std::_Uninit_fill_n<CObj *,unsigned int,CObj *>
; Function compile flags: /Ogty
; File c:\program files\microsoft visual studio .net 2003\vc7\include\memory
;	COMDAT ??$_Uninit_fill_n@PAVCObj@@IPAV1@@std@@YAXPAPAVCObj@@IABQAV1@AAV?$allocator@PAVCObj@@@0@U_Scalar_ptr_iterator_tag@0@@Z
_TEXT	SEGMENT
__First$ = 8						; size = 4
__Count$ = 12						; size = 4
__Val$ = 16						; size = 4
___formal$ = 20						; size = 4
___formal$ = 24						; size = 1
??$_Uninit_fill_n@PAVCObj@@IPAV1@@std@@YAXPAPAVCObj@@IABQAV1@AAV?$allocator@PAVCObj@@@0@U_Scalar_ptr_iterator_tag@0@@Z PROC NEAR ; std::_Uninit_fill_n<CObj *,unsigned int,CObj *>, COMDAT

; 237  : 	fill_n(_First, _Count, _Val);

  00000	8b 4c 24 08	 mov	 ecx, DWORD PTR __Count$[esp-4]
  00004	85 c9		 test	 ecx, ecx
  00006	8b 44 24 04	 mov	 eax, DWORD PTR __First$[esp-4]
  0000a	76 10		 jbe	 SHORT $L264684
  0000c	8b 54 24 0c	 mov	 edx, DWORD PTR __Val$[esp-4]
  00010	56		 push	 esi
$L264682:
  00011	8b 32		 mov	 esi, DWORD PTR [edx]
  00013	89 30		 mov	 DWORD PTR [eax], esi
  00015	83 c0 04	 add	 eax, 4
  00018	49		 dec	 ecx
  00019	75 f6		 jne	 SHORT $L264682
  0001b	5e		 pop	 esi
$L264684:

; 238  : 	}

  0001c	c3		 ret	 0
??$_Uninit_fill_n@PAVCObj@@IPAV1@@std@@YAXPAPAVCObj@@IABQAV1@AAV?$allocator@PAVCObj@@@0@U_Scalar_ptr_iterator_tag@0@@Z ENDP ; std::_Uninit_fill_n<CObj *,unsigned int,CObj *>
_TEXT	ENDS
PUBLIC	??$_Uninitialized_copy@PAPAVCObj@@PAPAV1@V?$allocator@PAVCObj@@@std@@@std@@YAPAPAVCObj@@PAPAV1@00AAV?$allocator@PAVCObj@@@0@@Z ; std::_Uninitialized_copy<CObj * *,CObj * *,std::allocator<CObj *> >
; Function compile flags: /Ogty
;	COMDAT ??$_Uninitialized_copy@PAPAVCObj@@PAPAV1@V?$allocator@PAVCObj@@@std@@@std@@YAPAPAVCObj@@PAPAV1@00AAV?$allocator@PAVCObj@@@0@@Z
_TEXT	SEGMENT
__First$ = 8						; size = 4
__Last$ = 12						; size = 4
__Dest$ = 16						; size = 4
__Al$ = 20						; size = 4
??$_Uninitialized_copy@PAPAVCObj@@PAPAV1@V?$allocator@PAVCObj@@@std@@@std@@YAPAPAVCObj@@PAPAV1@00AAV?$allocator@PAVCObj@@@0@@Z PROC NEAR ; std::_Uninitialized_copy<CObj * *,CObj * *,std::allocator<CObj *> >, COMDAT

; 127  : 	return (_Uninit_copy(_First, _Last, _Dest, _Al,
; 128  : 		_Ptr_cat(_First, _Dest)));

  00000	8b 4c 24 04	 mov	 ecx, DWORD PTR __First$[esp-4]
  00004	8b 44 24 08	 mov	 eax, DWORD PTR __Last$[esp-4]
  00008	2b c1		 sub	 eax, ecx
  0000a	56		 push	 esi
  0000b	c1 f8 02	 sar	 eax, 2
  0000e	8d 34 85 00 00
	00 00		 lea	 esi, DWORD PTR [eax*4]
  00015	8b 44 24 10	 mov	 eax, DWORD PTR __Dest$[esp]
  00019	56		 push	 esi
  0001a	51		 push	 ecx
  0001b	50		 push	 eax
  0001c	e8 00 00 00 00	 call	 _memmove
  00021	83 c4 0c	 add	 esp, 12			; 0000000cH
  00024	03 c6		 add	 eax, esi
  00026	5e		 pop	 esi

; 129  : 	}

  00027	c3		 ret	 0
??$_Uninitialized_copy@PAPAVCObj@@PAPAV1@V?$allocator@PAVCObj@@@std@@@std@@YAPAPAVCObj@@PAPAV1@00AAV?$allocator@PAVCObj@@@0@@Z ENDP ; std::_Uninitialized_copy<CObj * *,CObj * *,std::allocator<CObj *> >
_TEXT	ENDS
EXTRN	_fileno:NEAR
EXTRN	__filelength:NEAR
; Function compile flags: /Ogty
; File c:\documents and settings\test\mes documents\source\virtuos_v17\build\program\_common\file.h
;	COMDAT ?GetLength@CFileIO@@UAEJXZ
_TEXT	SEGMENT
?GetLength@CFileIO@@UAEJXZ PROC NEAR			; CFileIO::GetLength, COMDAT
; _this$ = ecx

; 26   : 	virtual long GetLength() { return _filelength( Handle() ); }

  00000	8b 41 04	 mov	 eax, DWORD PTR [ecx+4]
  00003	50		 push	 eax
  00004	e8 00 00 00 00	 call	 _fileno
  00009	50		 push	 eax
  0000a	e8 00 00 00 00	 call	 __filelength
  0000f	83 c4 08	 add	 esp, 8
  00012	c3		 ret	 0
?GetLength@CFileIO@@UAEJXZ ENDP				; CFileIO::GetLength
_TEXT	ENDS
PUBLIC	?GetLength@?$CSimpleStringT@D$0A@@ATL@@QBEHXZ	; ATL::CSimpleStringT<char,0>::GetLength
; Function compile flags: /Ogty
; File c:\program files\microsoft visual studio .net 2003\vc7\atlmfc\include\atlsimpstr.h
;	COMDAT ?GetLength@?$CSimpleStringT@D$0A@@ATL@@QBEHXZ
_TEXT	SEGMENT
?GetLength@?$CSimpleStringT@D$0A@@ATL@@QBEHXZ PROC NEAR	; ATL::CSimpleStringT<char,0>::GetLength, COMDAT
; _this$ = ecx

; 501  : 		return( GetData()->nDataLength );

  00000	8b 01		 mov	 eax, DWORD PTR [ecx]
  00002	8b 40 f4	 mov	 eax, DWORD PTR [eax-12]

; 502  : 	}

  00005	c3		 ret	 0
?GetLength@?$CSimpleStringT@D$0A@@ATL@@QBEHXZ ENDP	; ATL::CSimpleStringT<char,0>::GetLength
_TEXT	ENDS
PUBLIC	??0?$CSimpleStringT@D$0A@@ATL@@QAE@PAUIAtlStringMgr@1@@Z ; ATL::CSimpleStringT<char,0>::CSimpleStringT<char,0>
; Function compile flags: /Ogty
;	COMDAT ??0?$CSimpleStringT@D$0A@@ATL@@QAE@PAUIAtlStringMgr@1@@Z
_TEXT	SEGMENT
_pStringMgr$ = 8					; size = 4
??0?$CSimpleStringT@D$0A@@ATL@@QAE@PAUIAtlStringMgr@1@@Z PROC NEAR ; ATL::CSimpleStringT<char,0>::CSimpleStringT<char,0>, COMDAT
; _this$ = ecx

; 210  : 	explicit CSimpleStringT( IAtlStringMgr* pStringMgr ) throw()

  00000	56		 push	 esi
  00001	8b f1		 mov	 esi, ecx

; 211  : 	{
; 212  : 		ATLASSERT( pStringMgr != NULL );
; 213  : 		CStringData* pData = pStringMgr->GetNilString();

  00003	8b 4c 24 08	 mov	 ecx, DWORD PTR _pStringMgr$[esp]
  00007	8b 01		 mov	 eax, DWORD PTR [ecx]
  00009	ff 50 0c	 call	 DWORD PTR [eax+12]

; 214  : 		Attach( pData );

  0000c	83 c0 10	 add	 eax, 16			; 00000010H
  0000f	89 06		 mov	 DWORD PTR [esi], eax

; 215  : 	}

  00011	8b c6		 mov	 eax, esi
  00013	5e		 pop	 esi
  00014	c2 04 00	 ret	 4
??0?$CSimpleStringT@D$0A@@ATL@@QAE@PAUIAtlStringMgr@1@@Z ENDP ; ATL::CSimpleStringT<char,0>::CSimpleStringT<char,0>
_TEXT	ENDS
PUBLIC	??1?$CSimpleStringT@D$0A@@ATL@@QAE@XZ		; ATL::CSimpleStringT<char,0>::~CSimpleStringT<char,0>
; Function compile flags: /Ogty
;	COMDAT ??1?$CSimpleStringT@D$0A@@ATL@@QAE@XZ
_TEXT	SEGMENT
??1?$CSimpleStringT@D$0A@@ATL@@QAE@XZ PROC NEAR		; ATL::CSimpleStringT<char,0>::~CSimpleStringT<char,0>, COMDAT
; _this$ = ecx

; 263  : 		CStringData* pData = GetData();

  00000	8b 01		 mov	 eax, DWORD PTR [ecx]
  00002	83 e8 10	 sub	 eax, 16			; 00000010H

; 264  : 		pData->Release();

  00005	8d 48 0c	 lea	 ecx, DWORD PTR [eax+12]
  00008	83 ca ff	 or	 edx, -1
  0000b	f0 0f c1 11	 lock	  xadd	 DWORD PTR [ecx], edx
  0000f	4a		 dec	 edx
  00010	85 d2		 test	 edx, edx
  00012	7f 08		 jg	 SHORT $L264734
  00014	8b 08		 mov	 ecx, DWORD PTR [eax]
  00016	8b 11		 mov	 edx, DWORD PTR [ecx]
  00018	50		 push	 eax
  00019	ff 52 04	 call	 DWORD PTR [edx+4]
$L264734:

; 265  : 	}

  0001c	c3		 ret	 0
??1?$CSimpleStringT@D$0A@@ATL@@QAE@XZ ENDP		; ATL::CSimpleStringT<char,0>::~CSimpleStringT<char,0>
_TEXT	ENDS
PUBLIC	?ReleaseBufferSetLength@?$CSimpleStringT@D$0A@@ATL@@QAEXH@Z ; ATL::CSimpleStringT<char,0>::ReleaseBufferSetLength
; Function compile flags: /Ogty
;	COMDAT ?ReleaseBufferSetLength@?$CSimpleStringT@D$0A@@ATL@@QAEXH@Z
_TEXT	SEGMENT
_nNewLength$ = 8					; size = 4
?ReleaseBufferSetLength@?$CSimpleStringT@D$0A@@ATL@@QAEXH@Z PROC NEAR ; ATL::CSimpleStringT<char,0>::ReleaseBufferSetLength, COMDAT
; _this$ = ecx

; 547  : 		ATLASSERT( nNewLength >= 0 );
; 548  : 		SetLength( nNewLength );

  00000	8b 44 24 04	 mov	 eax, DWORD PTR _nNewLength$[esp-4]
  00004	85 c0		 test	 eax, eax
  00006	7c 13		 jl	 SHORT $L264752
  00008	8b 11		 mov	 edx, DWORD PTR [ecx]
  0000a	3b 42 f8	 cmp	 eax, DWORD PTR [edx-8]
  0000d	7f 0c		 jg	 SHORT $L264752
  0000f	89 42 f4	 mov	 DWORD PTR [edx-12], eax
  00012	8b 09		 mov	 ecx, DWORD PTR [ecx]
  00014	c6 04 08 00	 mov	 BYTE PTR [eax+ecx], 0

; 549  : 	}

  00018	c2 04 00	 ret	 4
$L264752:
  0001b	68 57 00 07 80	 push	 -2147024809		; 80070057H
  00020	e8 00 00 00 00	 call	 ?AtlThrow@ATL@@YGXJ@Z	; ATL::AtlThrow
$L264755:
$L264754:
  00025	cc		 int	 3
?ReleaseBufferSetLength@?$CSimpleStringT@D$0A@@ATL@@QAEXH@Z ENDP ; ATL::CSimpleStringT<char,0>::ReleaseBufferSetLength
_TEXT	ENDS
PUBLIC	??0?$_String_val@DV?$allocator@D@std@@@std@@IAE@V?$allocator@D@1@@Z ; std::_String_val<char,std::allocator<char> >::_String_val<char,std::allocator<char> >
; Function compile flags: /Ogty
; File c:\program files\microsoft visual studio .net 2003\vc7\include\xstring
;	COMDAT ??0?$_String_val@DV?$allocator@D@std@@@std@@IAE@V?$allocator@D@1@@Z
_TEXT	SEGMENT
__Al$ = 8						; size = 1
??0?$_String_val@DV?$allocator@D@std@@@std@@IAE@V?$allocator@D@1@@Z PROC NEAR ; std::_String_val<char,std::allocator<char> >::_String_val<char,std::allocator<char> >, COMDAT
; _this$ = ecx

; 34   : 		{	// construct allocator from _Al

  00000	8b c1		 mov	 eax, ecx

; 35   : 		}

  00002	c2 04 00	 ret	 4
??0?$_String_val@DV?$allocator@D@std@@@std@@IAE@V?$allocator@D@1@@Z ENDP ; std::_String_val<char,std::allocator<char> >::_String_val<char,std::allocator<char> >
_TEXT	ENDS
PUBLIC	?Empty@?$CSimpleStringT@D$0A@@ATL@@QAEXXZ	; ATL::CSimpleStringT<char,0>::Empty
; Function compile flags: /Ogty
; File c:\program files\microsoft visual studio .net 2003\vc7\atlmfc\include\atlsimpstr.h
;	COMDAT ?Empty@?$CSimpleStringT@D$0A@@ATL@@QAEXXZ
_TEXT	SEGMENT
?Empty@?$CSimpleStringT@D$0A@@ATL@@QAEXXZ PROC NEAR	; ATL::CSimpleStringT<char,0>::Empty, COMDAT
; _this$ = ecx

; 421  : 	{

  00000	56		 push	 esi
  00001	8b f1		 mov	 esi, ecx

; 422  : 		CStringData* pOldData = GetData();

  00003	8b 0e		 mov	 ecx, DWORD PTR [esi]

; 423  : 		IAtlStringMgr* pStringMgr = pOldData->pStringMgr;
; 424  : 		if( pOldData->nDataLength == 0 )

  00005	8b 51 f4	 mov	 edx, DWORD PTR [ecx-12]
  00008	85 d2		 test	 edx, edx
  0000a	8d 41 f0	 lea	 eax, DWORD PTR [ecx-16]
  0000d	57		 push	 edi
  0000e	8b 38		 mov	 edi, DWORD PTR [eax]
  00010	74 4c		 je	 SHORT $L264795
  00012	53		 push	 ebx

; 425  : 		{
; 426  : 			return;
; 427  : 		}
; 428  : 
; 429  : 		if( pOldData->IsLocked() )

  00013	8b 58 0c	 mov	 ebx, DWORD PTR [eax+12]
  00016	8d 50 0c	 lea	 edx, DWORD PTR [eax+12]
  00019	85 db		 test	 ebx, ebx
  0001b	5b		 pop	 ebx
  0001c	7d 20		 jge	 SHORT $L221323

; 430  : 		{
; 431  : 			// Don't reallocate a locked buffer that's shrinking
; 432  : 			SetLength( 0 );

  0001e	8b 41 f8	 mov	 eax, DWORD PTR [ecx-8]
  00021	85 c0		 test	 eax, eax
  00023	7d 0a		 jge	 SHORT $L264784
  00025	68 57 00 07 80	 push	 -2147024809		; 80070057H
  0002a	e8 00 00 00 00	 call	 ?AtlThrow@ATL@@YGXJ@Z	; ATL::AtlThrow
$L264800:
$L264784:
  0002f	c7 41 f4 00 00
	00 00		 mov	 DWORD PTR [ecx-12], 0
  00036	8b 06		 mov	 eax, DWORD PTR [esi]
  00038	5f		 pop	 edi
  00039	c6 00 00	 mov	 BYTE PTR [eax], 0
  0003c	5e		 pop	 esi

; 439  : 		}
; 440  : 	}

  0003d	c3		 ret	 0
$L221323:

; 433  : 		}
; 434  : 		else
; 435  : 		{
; 436  : 			pOldData->Release();

  0003e	83 c9 ff	 or	 ecx, -1
  00041	f0 0f c1 0a	 lock	  xadd	 DWORD PTR [edx], ecx
  00045	49		 dec	 ecx
  00046	85 c9		 test	 ecx, ecx
  00048	7f 08		 jg	 SHORT $L264790
  0004a	8b 08		 mov	 ecx, DWORD PTR [eax]
  0004c	8b 11		 mov	 edx, DWORD PTR [ecx]
  0004e	50		 push	 eax
  0004f	ff 52 04	 call	 DWORD PTR [edx+4]
$L264790:

; 437  : 			CStringData* pNewData = pStringMgr->GetNilString();

  00052	8b 07		 mov	 eax, DWORD PTR [edi]
  00054	8b cf		 mov	 ecx, edi
  00056	ff 50 0c	 call	 DWORD PTR [eax+12]

; 438  : 			Attach( pNewData );

  00059	83 c0 10	 add	 eax, 16			; 00000010H
  0005c	89 06		 mov	 DWORD PTR [esi], eax
$L264795:
  0005e	5f		 pop	 edi
  0005f	5e		 pop	 esi

; 439  : 		}
; 440  : 	}

  00060	c3		 ret	 0
$L264799:
?Empty@?$CSimpleStringT@D$0A@@ATL@@QAEXXZ ENDP		; ATL::CSimpleStringT<char,0>::Empty
_TEXT	ENDS
PUBLIC	?PrepareWrite2@?$CSimpleStringT@D$0A@@ATL@@AAEXH@Z ; ATL::CSimpleStringT<char,0>::PrepareWrite2
; Function compile flags: /Ogty
;	COMDAT ?PrepareWrite2@?$CSimpleStringT@D$0A@@ATL@@AAEXH@Z
_TEXT	SEGMENT
_nLength$ = 8						; size = 4
?PrepareWrite2@?$CSimpleStringT@D$0A@@ATL@@AAEXH@Z PROC NEAR ; ATL::CSimpleStringT<char,0>::PrepareWrite2, COMDAT
; _this$ = ecx

; 747  : 		CStringData* pOldData = GetData();

  00000	8b 01		 mov	 eax, DWORD PTR [ecx]

; 748  : 		if( pOldData->nDataLength > nLength )

  00002	8b 54 24 04	 mov	 edx, DWORD PTR _nLength$[esp-4]
  00006	83 e8 10	 sub	 eax, 16			; 00000010H
  00009	56		 push	 esi
  0000a	8b 70 04	 mov	 esi, DWORD PTR [eax+4]
  0000d	3b f2		 cmp	 esi, edx
  0000f	7e 02		 jle	 SHORT $L221345

; 749  : 		{
; 750  : 			nLength = pOldData->nDataLength;

  00011	8b d6		 mov	 edx, esi
$L221345:

; 751  : 		}
; 752  : 		if( pOldData->IsShared() )

  00013	83 78 0c 01	 cmp	 DWORD PTR [eax+12], 1
  00017	5e		 pop	 esi
  00018	7e 09		 jle	 SHORT $L221346

; 753  : 		{
; 754  : 			Fork( nLength );

  0001a	89 54 24 04	 mov	 DWORD PTR _nLength$[esp-4], edx
  0001e	e9 00 00 00 00	 jmp	 ?Fork@?$CSimpleStringT@D$0A@@ATL@@AAEXH@Z ; ATL::CSimpleStringT<char,0>::Fork
$L221346:

; 755  : 		}
; 756  : 		else if( pOldData->nAllocLength < nLength )

  00023	8b 40 08	 mov	 eax, DWORD PTR [eax+8]
  00026	3b c2		 cmp	 eax, edx
  00028	7d 1f		 jge	 SHORT $L221348

; 757  : 		{
; 758  : 			// Grow exponentially, until we hit 1K.
; 759  : 			int nNewLength = pOldData->nAllocLength;
; 760  : 			if( nNewLength > 1024 )

  0002a	3d 00 04 00 00	 cmp	 eax, 1024		; 00000400H
  0002f	7e 07		 jle	 SHORT $L221350

; 761  : 			{
; 762  : 				nNewLength += 1024;

  00031	05 00 04 00 00	 add	 eax, 1024		; 00000400H

; 763  : 			}
; 764  : 			else

  00036	eb 02		 jmp	 SHORT $L221351
$L221350:

; 765  : 			{
; 766  : 				nNewLength *= 2;

  00038	03 c0		 add	 eax, eax
$L221351:

; 767  : 			}
; 768  : 			if( nNewLength < nLength )

  0003a	3b c2		 cmp	 eax, edx
  0003c	7d 02		 jge	 SHORT $L221352

; 769  : 			{
; 770  : 				nNewLength = nLength;

  0003e	8b c2		 mov	 eax, edx
$L221352:

; 771  : 			}
; 772  : 			Reallocate( nNewLength );

  00040	89 44 24 04	 mov	 DWORD PTR _nLength$[esp-4], eax
  00044	e9 00 00 00 00	 jmp	 ?Reallocate@?$CSimpleStringT@D$0A@@ATL@@AAEXH@Z ; ATL::CSimpleStringT<char,0>::Reallocate
$L221348:

; 773  : 		}
; 774  : 	}

  00049	c2 04 00	 ret	 4
?PrepareWrite2@?$CSimpleStringT@D$0A@@ATL@@AAEXH@Z ENDP	; ATL::CSimpleStringT<char,0>::PrepareWrite2
_TEXT	ENDS
PUBLIC	?_Eos@?$basic_string@DU?$char_traits@D@std@@V?$allocator@D@2@@std@@IAEXI@Z ; std::basic_string<char,std::char_traits<char>,std::allocator<char> >::_Eos
; Function compile flags: /Ogty
; File c:\program files\microsoft visual studio .net 2003\vc7\include\xstring
;	COMDAT ?_Eos@?$basic_string@DU?$char_traits@D@std@@V?$allocator@D@2@@std@@IAEXI@Z
_TEXT	SEGMENT
__Newsize$ = 8						; size = 4
?_Eos@?$basic_string@DU?$char_traits@D@std@@V?$allocator@D@2@@std@@IAEXI@Z PROC NEAR ; std::basic_string<char,std::char_traits<char>,std::allocator<char> >::_Eos, COMDAT
; _this$ = ecx

; 1475 : 		_Traits::assign(_Myptr()[_Mysize = _Newsize], _Elem());

  00000	83 79 18 10	 cmp	 DWORD PTR [ecx+24], 16	; 00000010H
  00004	8b 44 24 04	 mov	 eax, DWORD PTR __Newsize$[esp-4]
  00008	89 41 14	 mov	 DWORD PTR [ecx+20], eax
  0000b	72 0a		 jb	 SHORT $L264819
  0000d	8b 49 04	 mov	 ecx, DWORD PTR [ecx+4]
  00010	c6 04 01 00	 mov	 BYTE PTR [ecx+eax], 0

; 1476 : 		}

  00014	c2 04 00	 ret	 4

; 1475 : 		_Traits::assign(_Myptr()[_Mysize = _Newsize], _Elem());

$L264819:
  00017	c6 44 01 04 00	 mov	 BYTE PTR [ecx+eax+4], 0

; 1476 : 		}

  0001c	c2 04 00	 ret	 4
?_Eos@?$basic_string@DU?$char_traits@D@std@@V?$allocator@D@2@@std@@IAEXI@Z ENDP ; std::basic_string<char,std::char_traits<char>,std::allocator<char> >::_Eos
_TEXT	ENDS
PUBLIC	?max_size@?$basic_string@DU?$char_traits@D@std@@V?$allocator@D@2@@std@@QBEIXZ ; std::basic_string<char,std::char_traits<char>,std::allocator<char> >::max_size
; Function compile flags: /Ogty
;	COMDAT ?max_size@?$basic_string@DU?$char_traits@D@std@@V?$allocator@D@2@@std@@QBEIXZ
_TEXT	SEGMENT
?max_size@?$basic_string@DU?$char_traits@D@std@@V?$allocator@D@2@@std@@QBEIXZ PROC NEAR ; std::basic_string<char,std::char_traits<char>,std::allocator<char> >::max_size, COMDAT
; _this$ = ecx

; 1114 : 		size_type _Num = _Mybase::_Alval.max_size();
; 1115 : 		return (_Num <= 1 ? 1 : _Num - 1);

  00000	b8 fe ff ff ff	 mov	 eax, -2			; fffffffeH

; 1116 : 		}

  00005	c3		 ret	 0
?max_size@?$basic_string@DU?$char_traits@D@std@@V?$allocator@D@2@@std@@QBEIXZ ENDP ; std::basic_string<char,std::char_traits<char>,std::allocator<char> >::max_size
_TEXT	ENDS
PUBLIC	?allocate@?$allocator@D@std@@QAEPADI@Z		; std::allocator<char>::allocate
; Function compile flags: /Ogty
; File c:\program files\microsoft visual studio .net 2003\vc7\include\xmemory
;	COMDAT ?allocate@?$allocator@D@std@@QAEPADI@Z
_TEXT	SEGMENT
__Count$ = 8						; size = 4
?allocate@?$allocator@D@std@@QAEPADI@Z PROC NEAR	; std::allocator<char>::allocate, COMDAT
; _this$ = ecx

; 137  : 		return (_Allocate(_Count, (pointer)0));

  00000	8b 44 24 04	 mov	 eax, DWORD PTR __Count$[esp-4]
  00004	50		 push	 eax
  00005	e8 00 00 00 00	 call	 ??2@YAPAXI@Z		; operator new
  0000a	83 c4 04	 add	 esp, 4

; 138  : 		}

  0000d	c2 04 00	 ret	 4
?allocate@?$allocator@D@std@@QAEPADI@Z ENDP		; std::allocator<char>::allocate
_TEXT	ENDS
PUBLIC	?HasNobody_Process@CWorld@@AAEHH@Z		; CWorld::HasNobody_Process
; Function compile flags: /Ogty
; File c:\documents and settings\test\mes documents\source\virtuos_v17\build\program\_common\worldfile.cpp
;	COMDAT ?HasNobody_Process@CWorld@@AAEHH@Z
_TEXT	SEGMENT
_nLayer$ = 8						; size = 4
?HasNobody_Process@CWorld@@AAEHH@Z PROC NEAR		; CWorld::HasNobody_Process, COMDAT
; _this$ = ecx

; 1231 : {

  00000	55		 push	 ebp
  00001	56		 push	 esi

; 1236 : 	}
; 1237 : 	return TRUE;

  00002	8b 71 44	 mov	 esi, DWORD PTR [ecx+68]
  00005	33 d2		 xor	 edx, edx
  00007	85 f6		 test	 esi, esi
  00009	57		 push	 edi
  0000a	76 30		 jbe	 SHORT $L258884
  0000c	8b 7c 24 10	 mov	 edi, DWORD PTR _nLayer$[esp+8]
  00010	83 c1 48	 add	 ecx, 72			; 00000048H
$L258882:
  00013	8b 01		 mov	 eax, DWORD PTR [ecx]
  00015	85 c0		 test	 eax, eax
  00017	74 1b		 je	 SHORT $L264862
  00019	39 b8 b8 01 00
	00		 cmp	 DWORD PTR [eax+440], edi
  0001f	75 13		 jne	 SHORT $L264862
  00021	83 b8 70 01 00
	00 05		 cmp	 DWORD PTR [eax+368], 5
  00028	75 0a		 jne	 SHORT $L264862
  0002a	8b a8 34 02 00
	00		 mov	 ebp, DWORD PTR [eax+564]
  00030	85 ed		 test	 ebp, ebp
  00032	75 13		 jne	 SHORT $L264873

; 1232 : 	for( DWORD i = 0; i < m_dwObjNum; i++ )
; 1233 : 	{
; 1234 : 		if( IsLayerPlayer( m_apObject[i], nLayer ) )

$L264862:
  00034	42		 inc	 edx
  00035	83 c1 04	 add	 ecx, 4
  00038	3b d6		 cmp	 edx, esi
  0003a	72 d7		 jb	 SHORT $L258882
$L258884:
  0003c	5f		 pop	 edi
  0003d	5e		 pop	 esi

; 1236 : 	}
; 1237 : 	return TRUE;

  0003e	b8 01 00 00 00	 mov	 eax, 1
  00043	5d		 pop	 ebp

; 1238 : }

  00044	c2 04 00	 ret	 4
$L264873:
  00047	5f		 pop	 edi
  00048	5e		 pop	 esi

; 1235 : 			return FALSE;

  00049	33 c0		 xor	 eax, eax
  0004b	5d		 pop	 ebp

; 1238 : }

  0004c	c2 04 00	 ret	 4
?HasNobody_Process@CWorld@@AAEHH@Z ENDP			; CWorld::HasNobody_Process
_TEXT	ENDS
PUBLIC	?ReleaseLayer@CWorld@@QAEHH@Z			; CWorld::ReleaseLayer
EXTRN	?Release@CLayerdRespawner@@QAEXH@Z:NEAR		; CLayerdRespawner::Release
EXTRN	?DeleteLinkMap@CLayeredLinkMap@@QAEXH@Z:NEAR	; CLayeredLinkMap::DeleteLinkMap
; Function compile flags: /Ogty
;	COMDAT ?ReleaseLayer@CWorld@@QAEHH@Z
_TEXT	SEGMENT
_nLayer$ = 8						; size = 4
?ReleaseLayer@CWorld@@QAEHH@Z PROC NEAR			; CWorld::ReleaseLayer, COMDAT
; _this$ = ecx

; 1307 : {

  00000	56		 push	 esi
  00001	57		 push	 edi

; 1308 : 	DestroyObj( nLayer );

  00002	8b 7c 24 0c	 mov	 edi, DWORD PTR _nLayer$[esp+4]
  00006	57		 push	 edi
  00007	8b f1		 mov	 esi, ecx
  00009	e8 00 00 00 00	 call	 ?DestroyObj@CWorld@@QAEXH@Z ; CWorld::DestroyObj

; 1309 : 	m_linkMap.DeleteLinkMap( nLayer );

  0000e	57		 push	 edi
  0000f	8d 4e 24	 lea	 ecx, DWORD PTR [esi+36]
  00012	e8 00 00 00 00	 call	 ?DeleteLinkMap@CLayeredLinkMap@@QAEXH@Z ; CLayeredLinkMap::DeleteLinkMap

; 1310 : 	m_respawner.Release( nLayer );

  00017	57		 push	 edi
  00018	8d 8e c0 30 08
	00		 lea	 ecx, DWORD PTR [esi+536768]
  0001e	e8 00 00 00 00	 call	 ?Release@CLayerdRespawner@@QAEXH@Z ; CLayerdRespawner::Release
  00023	5f		 pop	 edi

; 1311 : 	return TRUE;

  00024	b8 01 00 00 00	 mov	 eax, 1
  00029	5e		 pop	 esi

; 1312 : }

  0002a	c2 04 00	 ret	 4
?ReleaseLayer@CWorld@@QAEHH@Z ENDP			; CWorld::ReleaseLayer
_TEXT	ENDS
PUBLIC	?Delete@?$CStringT@DV?$StrTraitMFC@DV?$ChTraitsCRT@D@ATL@@@@@ATL@@QAEHHH@Z ; ATL::CStringT<char,StrTraitMFC<char,ATL::ChTraitsCRT<char> > >::Delete
; Function compile flags: /Ogty
; File c:\program files\microsoft visual studio .net 2003\vc7\atlmfc\include\cstringt.h
;	COMDAT ?Delete@?$CStringT@DV?$StrTraitMFC@DV?$ChTraitsCRT@D@ATL@@@@@ATL@@QAEHHH@Z
_TEXT	SEGMENT
_nXCHARsToCopy$258948 = 8				; size = 4
_iIndex$ = 8						; size = 4
_nCount$ = 12						; size = 4
?Delete@?$CStringT@DV?$StrTraitMFC@DV?$ChTraitsCRT@D@ATL@@@@@ATL@@QAEHHH@Z PROC NEAR ; ATL::CStringT<char,StrTraitMFC<char,ATL::ChTraitsCRT<char> > >::Delete, COMDAT
; _this$ = ecx

; 1114 : 	{

  00000	53		 push	 ebx

; 1115 : 		if( iIndex < 0 )

  00001	8b 5c 24 08	 mov	 ebx, DWORD PTR _iIndex$[esp]
  00005	85 db		 test	 ebx, ebx
  00007	55		 push	 ebp
  00008	56		 push	 esi
  00009	57		 push	 edi
  0000a	8b e9		 mov	 ebp, ecx
  0000c	7d 02		 jge	 SHORT $L258942

; 1116 : 			iIndex = 0;

  0000e	33 db		 xor	 ebx, ebx
$L258942:

; 1117 : 		
; 1118 : 		if( nCount < 0 )

  00010	8b 74 24 18	 mov	 esi, DWORD PTR _nCount$[esp+12]
  00014	85 f6		 test	 esi, esi
  00016	7d 02		 jge	 SHORT $L258943

; 1119 : 			nCount = 0;

  00018	33 f6		 xor	 esi, esi
$L258943:

; 1120 : 
; 1121 : 		int nLength = GetLength();

  0001a	8b 4d 00	 mov	 ecx, DWORD PTR [ebp]
  0001d	8b 41 f4	 mov	 eax, DWORD PTR [ecx-12]

; 1122 : 		if( (nCount+iIndex) > nLength )

  00020	8d 14 33	 lea	 edx, DWORD PTR [ebx+esi]
  00023	3b d0		 cmp	 edx, eax
  00025	7e 04		 jle	 SHORT $L258945

; 1123 : 		{
; 1124 : 			nCount = nLength-iIndex;

  00027	8b f0		 mov	 esi, eax
  00029	2b f3		 sub	 esi, ebx
$L258945:

; 1125 : 		}
; 1126 : 		if( nCount > 0 )

  0002b	85 f6		 test	 esi, esi
  0002d	7e 4b		 jle	 SHORT $L264934

; 1127 : 		{
; 1128 : 			int nNewLength = nLength-nCount;

  0002f	8b f8		 mov	 edi, eax

; 1129 : 			int nXCHARsToCopy = nLength-(iIndex+nCount)+1;

  00031	2b c3		 sub	 eax, ebx
  00033	2b c6		 sub	 eax, esi
  00035	2b fe		 sub	 edi, esi
  00037	40		 inc	 eax
  00038	89 44 24 14	 mov	 DWORD PTR _nXCHARsToCopy$258948[esp+12], eax

; 1130 : 			PXSTR pszBuffer = GetBuffer();

  0003c	83 79 fc 01	 cmp	 DWORD PTR [ecx-4], 1
  00040	7e 0b		 jle	 SHORT $L264902
  00042	8b 41 f4	 mov	 eax, DWORD PTR [ecx-12]
  00045	50		 push	 eax
  00046	8b cd		 mov	 ecx, ebp
  00048	e8 00 00 00 00	 call	 ?Fork@?$CSimpleStringT@D$0A@@ATL@@AAEXH@Z ; ATL::CSimpleStringT<char,0>::Fork
$L264902:
  0004d	8b 45 00	 mov	 eax, DWORD PTR [ebp]

; 1131 : 			memmove( pszBuffer+iIndex, pszBuffer+iIndex+nCount, nXCHARsToCopy*sizeof( XCHAR ) );

  00050	8b 4c 24 14	 mov	 ecx, DWORD PTR _nXCHARsToCopy$258948[esp+12]
  00054	03 c3		 add	 eax, ebx
  00056	51		 push	 ecx
  00057	8d 14 30	 lea	 edx, DWORD PTR [eax+esi]
  0005a	52		 push	 edx
  0005b	50		 push	 eax
  0005c	e8 00 00 00 00	 call	 _memmove
  00061	83 c4 0c	 add	 esp, 12			; 0000000cH

; 1132 : 			ReleaseBufferSetLength( nNewLength );

  00064	85 ff		 test	 edi, edi
  00066	7c 1f		 jl	 SHORT $L264933
  00068	8b 45 00	 mov	 eax, DWORD PTR [ebp]
  0006b	3b 78 f8	 cmp	 edi, DWORD PTR [eax-8]
  0006e	7f 17		 jg	 SHORT $L264933
  00070	89 78 f4	 mov	 DWORD PTR [eax-12], edi
  00073	8b 45 00	 mov	 eax, DWORD PTR [ebp]
  00076	c6 04 07 00	 mov	 BYTE PTR [edi+eax], 0
$L264934:

; 1133 : 		}
; 1134 : 
; 1135 : 		return( GetLength() );

  0007a	8b 4d 00	 mov	 ecx, DWORD PTR [ebp]
  0007d	8b 41 f4	 mov	 eax, DWORD PTR [ecx-12]
  00080	5f		 pop	 edi
  00081	5e		 pop	 esi
  00082	5d		 pop	 ebp
  00083	5b		 pop	 ebx

; 1136 : 	}

  00084	c2 08 00	 ret	 8
$L264933:
  00087	68 57 00 07 80	 push	 -2147024809		; 80070057H
  0008c	e8 00 00 00 00	 call	 ?AtlThrow@ATL@@YGXJ@Z	; ATL::AtlThrow
$L264946:
$L264945:
  00091	cc		 int	 3
?Delete@?$CStringT@DV?$StrTraitMFC@DV?$ChTraitsCRT@D@ATL@@@@@ATL@@QAEHHH@Z ENDP ; ATL::CStringT<char,StrTraitMFC<char,ATL::ChTraitsCRT<char> > >::Delete
_TEXT	ENDS
PUBLIC	??8ATL@@YA_NABV?$CStringT@DV?$StrTraitMFC@DV?$ChTraitsCRT@D@ATL@@@@@0@PBD@Z ; ATL::operator==
; Function compile flags: /Ogty
;	COMDAT ??8ATL@@YA_NABV?$CStringT@DV?$StrTraitMFC@DV?$ChTraitsCRT@D@ATL@@@@@0@PBD@Z
_TEXT	SEGMENT
_str1$ = 8						; size = 4
_psz2$ = 12						; size = 4
??8ATL@@YA_NABV?$CStringT@DV?$StrTraitMFC@DV?$ChTraitsCRT@D@ATL@@@@@0@PBD@Z PROC NEAR ; ATL::operator==, COMDAT

; 2088 : 		return( str1.Compare( psz2 ) == 0 );

  00000	8b 4c 24 08	 mov	 ecx, DWORD PTR _psz2$[esp-4]
  00004	8b 44 24 04	 mov	 eax, DWORD PTR _str1$[esp-4]
  00008	8b 00		 mov	 eax, DWORD PTR [eax]
  0000a	51		 push	 ecx
  0000b	50		 push	 eax
  0000c	e8 00 00 00 00	 call	 __mbscmp
  00011	83 c4 08	 add	 esp, 8
  00014	f7 d8		 neg	 eax
  00016	1b c0		 sbb	 eax, eax
  00018	40		 inc	 eax

; 2089 : 	}

  00019	c3		 ret	 0
??8ATL@@YA_NABV?$CStringT@DV?$StrTraitMFC@DV?$ChTraitsCRT@D@ATL@@@@@0@PBD@Z ENDP ; ATL::operator==
_TEXT	ENDS
PUBLIC	??9ATL@@YA_NPBDABV?$CStringT@DV?$StrTraitMFC@DV?$ChTraitsCRT@D@ATL@@@@@0@@Z ; ATL::operator!=
; Function compile flags: /Ogty
;	COMDAT ??9ATL@@YA_NPBDABV?$CStringT@DV?$StrTraitMFC@DV?$ChTraitsCRT@D@ATL@@@@@0@@Z
_TEXT	SEGMENT
_psz1$ = 8						; size = 4
_str2$ = 12						; size = 4
??9ATL@@YA_NPBDABV?$CStringT@DV?$StrTraitMFC@DV?$ChTraitsCRT@D@ATL@@@@@0@@Z PROC NEAR ; ATL::operator!=, COMDAT

; 2128 : 		return( str2.Compare( psz1 ) != 0 );

  00000	8b 4c 24 04	 mov	 ecx, DWORD PTR _psz1$[esp-4]
  00004	8b 44 24 08	 mov	 eax, DWORD PTR _str2$[esp-4]
  00008	8b 00		 mov	 eax, DWORD PTR [eax]
  0000a	51		 push	 ecx
  0000b	50		 push	 eax
  0000c	e8 00 00 00 00	 call	 __mbscmp
  00011	83 c4 08	 add	 esp, 8
  00014	f7 d8		 neg	 eax
  00016	1b c0		 sbb	 eax, eax
  00018	f7 d8		 neg	 eax

; 2129 : 	}

  0001a	c3		 ret	 0
??9ATL@@YA_NPBDABV?$CStringT@DV?$StrTraitMFC@DV?$ChTraitsCRT@D@ATL@@@@@0@@Z ENDP ; ATL::operator!=
_TEXT	ENDS
PUBLIC	?begin@?$vector@KV?$allocator@K@std@@@std@@QAE?AViterator@12@XZ ; std::vector<unsigned long,std::allocator<unsigned long> >::begin
; Function compile flags: /Ogty
; File c:\program files\microsoft visual studio .net 2003\vc7\include\vector
;	COMDAT ?begin@?$vector@KV?$allocator@K@std@@@std@@QAE?AViterator@12@XZ
_TEXT	SEGMENT
___$ReturnUdt$ = 8					; size = 4
?begin@?$vector@KV?$allocator@K@std@@@std@@QAE?AViterator@12@XZ PROC NEAR ; std::vector<unsigned long,std::allocator<unsigned long> >::begin, COMDAT
; _this$ = ecx

; 463  : 		return (iterator(_Myfirst));

  00000	8b 49 04	 mov	 ecx, DWORD PTR [ecx+4]
  00003	8b 44 24 04	 mov	 eax, DWORD PTR ___$ReturnUdt$[esp-4]
  00007	89 08		 mov	 DWORD PTR [eax], ecx

; 464  : 		}

  00009	c2 04 00	 ret	 4
?begin@?$vector@KV?$allocator@K@std@@@std@@QAE?AViterator@12@XZ ENDP ; std::vector<unsigned long,std::allocator<unsigned long> >::begin
_TEXT	ENDS
PUBLIC	?end@?$vector@PAVCObj@@V?$allocator@PAVCObj@@@std@@@std@@QAE?AViterator@12@XZ ; std::vector<CObj *,std::allocator<CObj *> >::end
; Function compile flags: /Ogty
;	COMDAT ?end@?$vector@PAVCObj@@V?$allocator@PAVCObj@@@std@@@std@@QAE?AViterator@12@XZ
_TEXT	SEGMENT
___$ReturnUdt$ = 8					; size = 4
?end@?$vector@PAVCObj@@V?$allocator@PAVCObj@@@std@@@std@@QAE?AViterator@12@XZ PROC NEAR ; std::vector<CObj *,std::allocator<CObj *> >::end, COMDAT
; _this$ = ecx

; 473  : 		return (iterator(_Mylast));

  00000	8b 49 08	 mov	 ecx, DWORD PTR [ecx+8]
  00003	8b 44 24 04	 mov	 eax, DWORD PTR ___$ReturnUdt$[esp-4]
  00007	89 08		 mov	 DWORD PTR [eax], ecx

; 474  : 		}

  00009	c2 04 00	 ret	 4
?end@?$vector@PAVCObj@@V?$allocator@PAVCObj@@@std@@@std@@QAE?AViterator@12@XZ ENDP ; std::vector<CObj *,std::allocator<CObj *> >::end
_TEXT	ENDS
PUBLIC	?begin@?$vector@PAVCObj@@V?$allocator@PAVCObj@@@std@@@std@@QAE?AViterator@12@XZ ; std::vector<CObj *,std::allocator<CObj *> >::begin
; Function compile flags: /Ogty
;	COMDAT ?begin@?$vector@PAVCObj@@V?$allocator@PAVCObj@@@std@@@std@@QAE?AViterator@12@XZ
_TEXT	SEGMENT
___$ReturnUdt$ = 8					; size = 4
?begin@?$vector@PAVCObj@@V?$allocator@PAVCObj@@@std@@@std@@QAE?AViterator@12@XZ PROC NEAR ; std::vector<CObj *,std::allocator<CObj *> >::begin, COMDAT
; _this$ = ecx

; 463  : 		return (iterator(_Myfirst));

  00000	8b 49 04	 mov	 ecx, DWORD PTR [ecx+4]
  00003	8b 44 24 04	 mov	 eax, DWORD PTR ___$ReturnUdt$[esp-4]
  00007	89 08		 mov	 DWORD PTR [eax], ecx

; 464  : 		}

  00009	c2 04 00	 ret	 4
?begin@?$vector@PAVCObj@@V?$allocator@PAVCObj@@@std@@@std@@QAE?AViterator@12@XZ ENDP ; std::vector<CObj *,std::allocator<CObj *> >::begin
_TEXT	ENDS
PUBLIC	?_Destroy@?$vector@PAVCObj@@V?$allocator@PAVCObj@@@std@@@std@@IAEXPAPAVCObj@@0@Z ; std::vector<CObj *,std::allocator<CObj *> >::_Destroy
; Function compile flags: /Ogty
;	COMDAT ?_Destroy@?$vector@PAVCObj@@V?$allocator@PAVCObj@@@std@@@std@@IAEXPAPAVCObj@@0@Z
_TEXT	SEGMENT
__First$ = 8						; size = 4
__Last$ = 12						; size = 4
?_Destroy@?$vector@PAVCObj@@V?$allocator@PAVCObj@@@std@@@std@@IAEXPAPAVCObj@@0@Z PROC NEAR ; std::vector<CObj *,std::allocator<CObj *> >::_Destroy, COMDAT
; _this$ = ecx

; 787  : 		_Destroy_range(_First, _Last, this->_Alval);
; 788  : 		}

  00000	c2 08 00	 ret	 8
?_Destroy@?$vector@PAVCObj@@V?$allocator@PAVCObj@@@std@@@std@@IAEXPAPAVCObj@@0@Z ENDP ; std::vector<CObj *,std::allocator<CObj *> >::_Destroy
_TEXT	ENDS
PUBLIC	??$_Uninitialized_fill_n@PAPAVCObj@@IPAV1@V?$allocator@PAVCObj@@@std@@@std@@YAXPAPAVCObj@@IABQAV1@AAV?$allocator@PAVCObj@@@0@@Z ; std::_Uninitialized_fill_n<CObj * *,unsigned int,CObj *,std::allocator<CObj *> >
; Function compile flags: /Ogty
; File c:\program files\microsoft visual studio .net 2003\vc7\include\memory
;	COMDAT ??$_Uninitialized_fill_n@PAPAVCObj@@IPAV1@V?$allocator@PAVCObj@@@std@@@std@@YAXPAPAVCObj@@IABQAV1@AAV?$allocator@PAVCObj@@@0@@Z
_TEXT	SEGMENT
__First$ = 8						; size = 4
__Count$ = 12						; size = 4
__Val$ = 16						; size = 4
__Al$ = 20						; size = 4
??$_Uninitialized_fill_n@PAPAVCObj@@IPAV1@V?$allocator@PAVCObj@@@std@@@std@@YAXPAPAVCObj@@IABQAV1@AAV?$allocator@PAVCObj@@@0@@Z PROC NEAR ; std::_Uninitialized_fill_n<CObj * *,unsigned int,CObj *,std::allocator<CObj *> >, COMDAT

; 256  : 	_Uninit_fill_n(_First, _Count, _Val, _Al,
; 257  : 		_Ptr_cat(_First, _First));

  00000	8b 4c 24 08	 mov	 ecx, DWORD PTR __Count$[esp-4]
  00004	85 c9		 test	 ecx, ecx
  00006	8b 44 24 04	 mov	 eax, DWORD PTR __First$[esp-4]
  0000a	76 10		 jbe	 SHORT $L265042
  0000c	8b 54 24 0c	 mov	 edx, DWORD PTR __Val$[esp-4]
  00010	56		 push	 esi
$L265040:
  00011	8b 32		 mov	 esi, DWORD PTR [edx]
  00013	89 30		 mov	 DWORD PTR [eax], esi
  00015	83 c0 04	 add	 eax, 4
  00018	49		 dec	 ecx
  00019	75 f6		 jne	 SHORT $L265040
  0001b	5e		 pop	 esi
$L265042:

; 258  : 	}

  0001c	c3		 ret	 0
??$_Uninitialized_fill_n@PAPAVCObj@@IPAV1@V?$allocator@PAVCObj@@@std@@@std@@YAXPAPAVCObj@@IABQAV1@AAV?$allocator@PAVCObj@@@0@@Z ENDP ; std::_Uninitialized_fill_n<CObj * *,unsigned int,CObj *,std::allocator<CObj *> >
_TEXT	ENDS
PUBLIC	??$_Ucopy@PAPAVCObj@@@?$vector@PAVCObj@@V?$allocator@PAVCObj@@@std@@@std@@IAEPAPAVCObj@@PAPAV2@00@Z ; std::vector<CObj *,std::allocator<CObj *> >::_Ucopy<CObj * *>
; Function compile flags: /Ogty
; File c:\program files\microsoft visual studio .net 2003\vc7\include\vector
;	COMDAT ??$_Ucopy@PAPAVCObj@@@?$vector@PAVCObj@@V?$allocator@PAVCObj@@@std@@@std@@IAEPAPAVCObj@@PAPAV2@00@Z
_TEXT	SEGMENT
__First$ = 8						; size = 4
__Last$ = 12						; size = 4
__Ptr$ = 16						; size = 4
??$_Ucopy@PAPAVCObj@@@?$vector@PAVCObj@@V?$allocator@PAVCObj@@@std@@@std@@IAEPAPAVCObj@@PAPAV2@00@Z PROC NEAR ; std::vector<CObj *,std::allocator<CObj *> >::_Ucopy<CObj * *>, COMDAT
; _this$ = ecx

; 802  : 		{	// copy initializing [_First, _Last), using allocator
; 803  : 		return (_Uninitialized_copy(_First, _Last,
; 804  : 			_Ptr, this->_Alval));

  00000	8b 4c 24 04	 mov	 ecx, DWORD PTR __First$[esp-4]
  00004	8b 44 24 08	 mov	 eax, DWORD PTR __Last$[esp-4]
  00008	2b c1		 sub	 eax, ecx
  0000a	56		 push	 esi
  0000b	c1 f8 02	 sar	 eax, 2
  0000e	8d 34 85 00 00
	00 00		 lea	 esi, DWORD PTR [eax*4]
  00015	8b 44 24 10	 mov	 eax, DWORD PTR __Ptr$[esp]
  00019	56		 push	 esi
  0001a	51		 push	 ecx
  0001b	50		 push	 eax
  0001c	e8 00 00 00 00	 call	 _memmove
  00021	83 c4 0c	 add	 esp, 12			; 0000000cH
  00024	03 c6		 add	 eax, esi
  00026	5e		 pop	 esi

; 805  : 		}

  00027	c2 0c 00	 ret	 12			; 0000000cH
??$_Ucopy@PAPAVCObj@@@?$vector@PAVCObj@@V?$allocator@PAVCObj@@@std@@@std@@IAEPAPAVCObj@@PAPAV2@00@Z ENDP ; std::vector<CObj *,std::allocator<CObj *> >::_Ucopy<CObj * *>
_TEXT	ENDS
PUBLIC	??0?$CStringT@DV?$StrTraitMFC@DV?$ChTraitsCRT@D@ATL@@@@@ATL@@QAE@XZ ; ATL::CStringT<char,StrTraitMFC<char,ATL::ChTraitsCRT<char> > >::CStringT<char,StrTraitMFC<char,ATL::ChTraitsCRT<char> > >
; Function compile flags: /Ogty
; File c:\program files\microsoft visual studio .net 2003\vc7\atlmfc\include\cstringt.h
;	COMDAT ??0?$CStringT@DV?$StrTraitMFC@DV?$ChTraitsCRT@D@ATL@@@@@ATL@@QAE@XZ
_TEXT	SEGMENT
??0?$CStringT@DV?$StrTraitMFC@DV?$ChTraitsCRT@D@ATL@@@@@ATL@@QAE@XZ PROC NEAR ; ATL::CStringT<char,StrTraitMFC<char,ATL::ChTraitsCRT<char> > >::CStringT<char,StrTraitMFC<char,ATL::ChTraitsCRT<char> > >, COMDAT
; _this$ = ecx

; 796  : 	{

  00000	56		 push	 esi
  00001	8b f1		 mov	 esi, ecx
  00003	e8 00 00 00 00	 call	 ?AfxGetStringManager@@YGPAUIAtlStringMgr@ATL@@XZ ; AfxGetStringManager
  00008	8b 10		 mov	 edx, DWORD PTR [eax]
  0000a	8b c8		 mov	 ecx, eax
  0000c	ff 52 0c	 call	 DWORD PTR [edx+12]
  0000f	83 c0 10	 add	 eax, 16			; 00000010H
  00012	89 06		 mov	 DWORD PTR [esi], eax

; 797  : 	}

  00014	8b c6		 mov	 eax, esi
  00016	5e		 pop	 esi
  00017	c3		 ret	 0
??0?$CStringT@DV?$StrTraitMFC@DV?$ChTraitsCRT@D@ATL@@@@@ATL@@QAE@XZ ENDP ; ATL::CStringT<char,StrTraitMFC<char,ATL::ChTraitsCRT<char> > >::CStringT<char,StrTraitMFC<char,ATL::ChTraitsCRT<char> > >
_TEXT	ENDS
PUBLIC	??1?$CStringT@DV?$StrTraitMFC@DV?$ChTraitsCRT@D@ATL@@@@@ATL@@QAE@XZ ; ATL::CStringT<char,StrTraitMFC<char,ATL::ChTraitsCRT<char> > >::~CStringT<char,StrTraitMFC<char,ATL::ChTraitsCRT<char> > >
; Function compile flags: /Ogty
;	COMDAT ??1?$CStringT@DV?$StrTraitMFC@DV?$ChTraitsCRT@D@ATL@@@@@ATL@@QAE@XZ
_TEXT	SEGMENT
??1?$CStringT@DV?$StrTraitMFC@DV?$ChTraitsCRT@D@ATL@@@@@ATL@@QAE@XZ PROC NEAR ; ATL::CStringT<char,StrTraitMFC<char,ATL::ChTraitsCRT<char> > >::~CStringT<char,StrTraitMFC<char,ATL::ChTraitsCRT<char> > >, COMDAT
; _this$ = ecx

; 963  : 	}

  00000	8b 01		 mov	 eax, DWORD PTR [ecx]
  00002	83 e8 10	 sub	 eax, 16			; 00000010H
  00005	8d 48 0c	 lea	 ecx, DWORD PTR [eax+12]
  00008	83 ca ff	 or	 edx, -1
  0000b	f0 0f c1 11	 lock	  xadd	 DWORD PTR [ecx], edx
  0000f	4a		 dec	 edx
  00010	85 d2		 test	 edx, edx
  00012	7f 08		 jg	 SHORT $L265109
  00014	8b 08		 mov	 ecx, DWORD PTR [eax]
  00016	8b 11		 mov	 edx, DWORD PTR [ecx]
  00018	50		 push	 eax
  00019	ff 52 04	 call	 DWORD PTR [edx+4]
$L265109:
  0001c	c3		 ret	 0
??1?$CStringT@DV?$StrTraitMFC@DV?$ChTraitsCRT@D@ATL@@@@@ATL@@QAE@XZ ENDP ; ATL::CStringT<char,StrTraitMFC<char,ATL::ChTraitsCRT<char> > >::~CStringT<char,StrTraitMFC<char,ATL::ChTraitsCRT<char> > >
_TEXT	ENDS
PUBLIC	?PrepareWrite@?$CSimpleStringT@D$0A@@ATL@@AAEPADH@Z ; ATL::CSimpleStringT<char,0>::PrepareWrite
; Function compile flags: /Ogty
; File c:\program files\microsoft visual studio .net 2003\vc7\atlmfc\include\atlsimpstr.h
;	COMDAT ?PrepareWrite@?$CSimpleStringT@D$0A@@ATL@@AAEPADH@Z
_TEXT	SEGMENT
_nLength$ = 8						; size = 4
?PrepareWrite@?$CSimpleStringT@D$0A@@ATL@@AAEPADH@Z PROC NEAR ; ATL::CSimpleStringT<char,0>::PrepareWrite, COMDAT
; _this$ = ecx

; 734  : 	{

  00000	56		 push	 esi
  00001	8b f1		 mov	 esi, ecx

; 735  : 		CStringData* pOldData = GetData();

  00003	8b 06		 mov	 eax, DWORD PTR [esi]

; 736  : 		int nShared = 1-pOldData->nRefs;  // nShared < 0 means true, >= 0 means false

  00005	8b 50 fc	 mov	 edx, DWORD PTR [eax-4]
  00008	83 e8 10	 sub	 eax, 16			; 00000010H
  0000b	b9 01 00 00 00	 mov	 ecx, 1
  00010	2b ca		 sub	 ecx, edx

; 737  : 		int nTooShort = pOldData->nAllocLength-nLength;  // nTooShort < 0 means true, >= 0 means false

  00012	8b 50 08	 mov	 edx, DWORD PTR [eax+8]
  00015	8b 44 24 08	 mov	 eax, DWORD PTR _nLength$[esp]
  00019	2b d0		 sub	 edx, eax

; 738  : 		if( (nShared|nTooShort) < 0 )  // If either sign bit is set (i.e. either is less than zero), we need to copy data

  0001b	0b ca		 or	 ecx, edx
  0001d	7d 08		 jge	 SHORT $L265116

; 739  : 		{
; 740  : 			PrepareWrite2( nLength );

  0001f	50		 push	 eax
  00020	8b ce		 mov	 ecx, esi
  00022	e8 00 00 00 00	 call	 ?PrepareWrite2@?$CSimpleStringT@D$0A@@ATL@@AAEXH@Z ; ATL::CSimpleStringT<char,0>::PrepareWrite2
$L265116:

; 741  : 		}
; 742  : 
; 743  : 		return( m_pszData );

  00027	8b 06		 mov	 eax, DWORD PTR [esi]
  00029	5e		 pop	 esi

; 744  : 	}

  0002a	c2 04 00	 ret	 4
?PrepareWrite@?$CSimpleStringT@D$0A@@ATL@@AAEPADH@Z ENDP ; ATL::CSimpleStringT<char,0>::PrepareWrite
_TEXT	ENDS
PUBLIC	?_Tidy@?$basic_string@DU?$char_traits@D@std@@V?$allocator@D@2@@std@@IAEX_NI@Z ; std::basic_string<char,std::char_traits<char>,std::allocator<char> >::_Tidy
; Function compile flags: /Ogty
; File c:\program files\microsoft visual studio .net 2003\vc7\include\xstring
;	COMDAT ?_Tidy@?$basic_string@DU?$char_traits@D@std@@V?$allocator@D@2@@std@@IAEX_NI@Z
_TEXT	SEGMENT
__Built$ = 8						; size = 1
__Newsize$ = 12						; size = 4
?_Tidy@?$basic_string@DU?$char_traits@D@std@@V?$allocator@D@2@@std@@IAEX_NI@Z PROC NEAR ; std::basic_string<char,std::char_traits<char>,std::allocator<char> >::_Tidy, COMDAT
; _this$ = ecx

; 1510 : 		if (!_Built)

  00000	8a 44 24 04	 mov	 al, BYTE PTR __Built$[esp-4]
  00004	84 c0		 test	 al, al
  00006	53		 push	 ebx
  00007	55		 push	 ebp
  00008	8b 6c 24 10	 mov	 ebp, DWORD PTR __Newsize$[esp+4]
  0000c	8b d9		 mov	 ebx, ecx
  0000e	74 2f		 je	 SHORT $L265124

; 1511 : 			;
; 1512 : 		else if (_BUF_SIZE <= _Myres)

  00010	83 7b 18 10	 cmp	 DWORD PTR [ebx+24], 16	; 00000010H
  00014	72 29		 jb	 SHORT $L265124

; 1513 : 			{	// copy any leftovers to small buffer and deallocate
; 1514 : 			_Elem *_Ptr = _Bx._Ptr;
; 1515 : 			if (0 < _Newsize)

  00016	85 ed		 test	 ebp, ebp
  00018	8b 43 04	 mov	 eax, DWORD PTR [ebx+4]
  0001b	57		 push	 edi
  0001c	8d 7b 04	 lea	 edi, DWORD PTR [ebx+4]
  0001f	76 14		 jbe	 SHORT $L265121
  00021	56		 push	 esi

; 1516 : 				_Traits::copy(_Bx._Buf, _Ptr, _Newsize);

  00022	8b cd		 mov	 ecx, ebp
  00024	8b d1		 mov	 edx, ecx
  00026	c1 e9 02	 shr	 ecx, 2
  00029	8b f0		 mov	 esi, eax
  0002b	f3 a5		 rep movsd
  0002d	8b ca		 mov	 ecx, edx
  0002f	83 e1 03	 and	 ecx, 3
  00032	f3 a4		 rep movsb
  00034	5e		 pop	 esi
$L265121:

; 1517 : 			_Mybase::_Alval.deallocate(_Ptr, _Myres + 1);

  00035	50		 push	 eax
  00036	e8 00 00 00 00	 call	 ??3@YAXPAX@Z		; operator delete
  0003b	83 c4 04	 add	 esp, 4
  0003e	5f		 pop	 edi
$L265124:

; 1518 : 			}
; 1519 : 		_Myres = _BUF_SIZE - 1;
; 1520 : 		_Eos(_Newsize);

  0003f	89 6b 14	 mov	 DWORD PTR [ebx+20], ebp
  00042	c7 43 18 0f 00
	00 00		 mov	 DWORD PTR [ebx+24], 15	; 0000000fH
  00049	c6 44 2b 04 00	 mov	 BYTE PTR [ebx+ebp+4], 0
  0004e	5d		 pop	 ebp
  0004f	5b		 pop	 ebx

; 1521 : 		}

  00050	c2 08 00	 ret	 8
?_Tidy@?$basic_string@DU?$char_traits@D@std@@V?$allocator@D@2@@std@@IAEX_NI@Z ENDP ; std::basic_string<char,std::char_traits<char>,std::allocator<char> >::_Tidy
_TEXT	ENDS
PUBLIC	?erase@?$basic_string@DU?$char_traits@D@std@@V?$allocator@D@2@@std@@QAEAAV12@II@Z ; std::basic_string<char,std::char_traits<char>,std::allocator<char> >::erase
EXTRN	?_Xran@_String_base@std@@QBEXXZ:NEAR		; std::_String_base::_Xran
; Function compile flags: /Ogty
;	COMDAT ?erase@?$basic_string@DU?$char_traits@D@std@@V?$allocator@D@2@@std@@QAEAAV12@II@Z
_TEXT	SEGMENT
__Off$ = 8						; size = 4
__Count$ = 12						; size = 4
?erase@?$basic_string@DU?$char_traits@D@std@@V?$allocator@D@2@@std@@QAEAAV12@II@Z PROC NEAR ; std::basic_string<char,std::char_traits<char>,std::allocator<char> >::erase, COMDAT
; _this$ = ecx

; 792  : 		{	// erase elements [_Off, _Off + _Count)

  00000	55		 push	 ebp

; 793  : 		if (_Mysize < _Off)

  00001	8b 6c 24 08	 mov	 ebp, DWORD PTR __Off$[esp]
  00005	56		 push	 esi
  00006	8b f1		 mov	 esi, ecx
  00008	39 6e 14	 cmp	 DWORD PTR [esi+20], ebp
  0000b	57		 push	 edi
  0000c	73 05		 jae	 SHORT $L221371

; 794  : 			_String_base::_Xran();	// _Off off end

  0000e	e8 00 00 00 00	 call	 ?_Xran@_String_base@std@@QBEXXZ ; std::_String_base::_Xran
$L221371:

; 795  : 		if (_Mysize - _Off < _Count)

  00013	8b 46 14	 mov	 eax, DWORD PTR [esi+20]
  00016	8b 7c 24 14	 mov	 edi, DWORD PTR __Count$[esp+8]
  0001a	2b c5		 sub	 eax, ebp
  0001c	3b c7		 cmp	 eax, edi
  0001e	73 02		 jae	 SHORT $L221372

; 796  : 			_Count = _Mysize - _Off;	// trim _Count

  00020	8b f8		 mov	 edi, eax
$L221372:

; 797  : 		if (0 < _Count)

  00022	85 ff		 test	 edi, edi
  00024	76 47		 jbe	 SHORT $L265190

; 798  : 			{	// move elements down
; 799  : 			_Traits::move(_Myptr() + _Off, _Myptr() + _Off + _Count,
; 800  : 				_Mysize - _Off - _Count);

  00026	8b 4e 18	 mov	 ecx, DWORD PTR [esi+24]
  00029	83 f9 10	 cmp	 ecx, 16			; 00000010H
  0002c	53		 push	 ebx
  0002d	8d 5e 04	 lea	 ebx, DWORD PTR [esi+4]
  00030	72 04		 jb	 SHORT $L265156
  00032	8b 13		 mov	 edx, DWORD PTR [ebx]
  00034	eb 02		 jmp	 SHORT $L265157
$L265156:
  00036	8b d3		 mov	 edx, ebx
$L265157:
  00038	83 f9 10	 cmp	 ecx, 16			; 00000010H
  0003b	72 04		 jb	 SHORT $L265163
  0003d	8b 0b		 mov	 ecx, DWORD PTR [ebx]
  0003f	eb 02		 jmp	 SHORT $L265164
$L265163:
  00041	8b cb		 mov	 ecx, ebx
$L265164:
  00043	2b c7		 sub	 eax, edi

; 803  : 			}
; 804  : 		return (*this);

  00045	03 d5		 add	 edx, ebp
  00047	50		 push	 eax
  00048	03 d7		 add	 edx, edi
  0004a	52		 push	 edx
  0004b	03 cd		 add	 ecx, ebp
  0004d	51		 push	 ecx
  0004e	e8 00 00 00 00	 call	 _memmove
  00053	8b 46 14	 mov	 eax, DWORD PTR [esi+20]
  00056	8b 4e 18	 mov	 ecx, DWORD PTR [esi+24]
  00059	2b c7		 sub	 eax, edi
  0005b	83 c4 0c	 add	 esp, 12			; 0000000cH
  0005e	83 f9 10	 cmp	 ecx, 16			; 00000010H
  00061	89 46 14	 mov	 DWORD PTR [esi+20], eax
  00064	72 02		 jb	 SHORT $L265187

; 801  : 			size_type _Newsize = _Mysize - _Count;
; 802  : 			_Eos(_Newsize);

  00066	8b 1b		 mov	 ebx, DWORD PTR [ebx]
$L265187:
  00068	c6 04 03 00	 mov	 BYTE PTR [ebx+eax], 0
  0006c	5b		 pop	 ebx
$L265190:
  0006d	5f		 pop	 edi

; 803  : 			}
; 804  : 		return (*this);

  0006e	8b c6		 mov	 eax, esi
  00070	5e		 pop	 esi
  00071	5d		 pop	 ebp

; 805  : 		}

  00072	c2 08 00	 ret	 8
?erase@?$basic_string@DU?$char_traits@D@std@@V?$allocator@D@2@@std@@QAEAAV12@II@Z ENDP ; std::basic_string<char,std::char_traits<char>,std::allocator<char> >::erase
_TEXT	ENDS
PUBLIC	?_Copy@?$basic_string@DU?$char_traits@D@std@@V?$allocator@D@2@@std@@IAEXII@Z ; std::basic_string<char,std::char_traits<char>,std::allocator<char> >::_Copy
EXTRN	__except_list:DWORD
EXTRN	___CxxFrameHandler:NEAR
EXTRN	__CxxThrowException@8:NEAR
;	COMDAT xdata$x
; File c:\program files\microsoft visual studio .net 2003\vc7\include\iosfwd
xdata$x	SEGMENT
$T265398 DD	0ffffffffH
	DD	00H
	DD	0ffffffffH
	DD	00H
	DD	01H
	DD	00H
	DD	01H
	DD	00H
$T265400 DD	00H
	DD	00H
	DD	00H
	DD	FLAT:$L265198
$T265401 DD	00H
	DD	00H
	DD	00H
	DD	FLAT:$L265196
$T265399 DD	02H
	DD	02H
	DD	03H
	DD	01H
	DD	FLAT:$T265400
	DD	00H
	DD	00H
	DD	03H
	DD	01H
	DD	FLAT:$T265401
$T265392 DD	019930520H
	DD	04H
	DD	FLAT:$T265398
	DD	02H
	DD	FLAT:$T265399
	DD	2 DUP(00H)
; Function compile flags: /Ogty
; File c:\program files\microsoft visual studio .net 2003\vc7\include\xstring
xdata$x	ENDS
;	COMDAT ?_Copy@?$basic_string@DU?$char_traits@D@std@@V?$allocator@D@2@@std@@IAEXII@Z
_TEXT	SEGMENT
__Newres$ = -24						; size = 4
_this$ = -20						; size = 4
__$EHRec$ = -16						; size = 16
__Ptr$ = 8						; size = 4
__Newsize$ = 8						; size = 4
__Oldlen$ = 12						; size = 4
?_Copy@?$basic_string@DU?$char_traits@D@std@@V?$allocator@D@2@@std@@IAEXII@Z PROC NEAR ; std::basic_string<char,std::char_traits<char>,std::allocator<char> >::_Copy, COMDAT
; _this$ = ecx

; 1444 : 		{	// copy _Oldlen elements to newly allocated buffer

  00000	55		 push	 ebp
  00001	8b ec		 mov	 ebp, esp
  00003	6a ff		 push	 -1
  00005	68 00 00 00 00	 push	 __ehhandler$?_Copy@?$basic_string@DU?$char_traits@D@std@@V?$allocator@D@2@@std@@IAEXII@Z
  0000a	64 a1 00 00 00
	00		 mov	 eax, DWORD PTR fs:__except_list
  00010	50		 push	 eax
  00011	64 89 25 00 00
	00 00		 mov	 DWORD PTR fs:__except_list, esp
  00018	83 ec 0c	 sub	 esp, 12			; 0000000cH

; 1445 : 		size_type _Newres = _Newsize | _ALLOC_MASK;

  0001b	8b 45 08	 mov	 eax, DWORD PTR __Newsize$[ebp]
  0001e	53		 push	 ebx
  0001f	56		 push	 esi
  00020	8b d8		 mov	 ebx, eax
  00022	83 cb 0f	 or	 ebx, 15			; 0000000fH

; 1446 : 		if (max_size() < _Newres)

  00025	83 fb fe	 cmp	 ebx, -2			; fffffffeH
  00028	57		 push	 edi
  00029	8b f1		 mov	 esi, ecx
  0002b	89 65 f0	 mov	 DWORD PTR __$EHRec$[ebp], esp
  0002e	89 75 ec	 mov	 DWORD PTR _this$[ebp], esi
  00031	76 04		 jbe	 SHORT $L222778

; 1447 : 			_Newres = _Newsize;	// undo roundup if too big

  00033	8b d8		 mov	 ebx, eax

; 1448 : 		else if (_Newres / 3 < _Myres / 2

  00035	eb 22		 jmp	 SHORT $L222780
$L222778:

; 1449 : 			&& _Myres <= max_size() - _Myres / 2)

  00037	8b 7e 18	 mov	 edi, DWORD PTR [esi+24]
  0003a	b8 ab aa aa aa	 mov	 eax, -1431655765	; aaaaaaabH
  0003f	f7 e3		 mul	 ebx
  00041	8b cf		 mov	 ecx, edi
  00043	d1 e9		 shr	 ecx, 1
  00045	d1 ea		 shr	 edx, 1
  00047	3b d1		 cmp	 edx, ecx
  00049	73 0e		 jae	 SHORT $L222780
  0004b	b8 fe ff ff ff	 mov	 eax, -2			; fffffffeH
  00050	2b c1		 sub	 eax, ecx
  00052	3b f8		 cmp	 edi, eax
  00054	77 03		 ja	 SHORT $L222780

; 1450 : 			_Newres = _Myres + _Myres / 2;	// grow exponentially if possible

  00056	8d 1c 39	 lea	 ebx, DWORD PTR [ecx+edi]
$L222780:

; 1451 : 		_Elem *_Ptr;
; 1452 : 
; 1453 : 		_TRY_BEGIN
; 1454 : 			_Ptr = _Mybase::_Alval.allocate(_Newres + 1);

  00059	8d 4b 01	 lea	 ecx, DWORD PTR [ebx+1]
  0005c	51		 push	 ecx
  0005d	c7 45 fc 00 00
	00 00		 mov	 DWORD PTR __$EHRec$[ebp+12], 0
  00064	e8 00 00 00 00	 call	 ??2@YAPAXI@Z		; operator new
  00069	8b d0		 mov	 edx, eax
  0006b	83 c4 04	 add	 esp, 4
  0006e	89 55 08	 mov	 DWORD PTR __Ptr$[ebp], edx
  00071	eb 29		 jmp	 SHORT $L222782
$L265196:

; 1455 : 		_CATCH_ALL
; 1456 : 			_Newres = _Newsize;	// allocation failed, undo roundup and retry

  00073	8b 45 08	 mov	 eax, DWORD PTR __Newsize$[ebp]
  00076	89 45 e8	 mov	 DWORD PTR __Newres$[ebp], eax

; 1457 : 			_TRY_BEGIN
; 1458 : 				_Ptr = _Mybase::_Alval.allocate(_Newres + 1);

  00079	40		 inc	 eax
  0007a	89 65 f0	 mov	 DWORD PTR __$EHRec$[ebp], esp
  0007d	50		 push	 eax
  0007e	c6 45 fc 02	 mov	 BYTE PTR __$EHRec$[ebp+12], 2
  00082	e8 00 00 00 00	 call	 ??2@YAPAXI@Z		; operator new
  00087	89 45 08	 mov	 DWORD PTR __Ptr$[ebp], eax
  0008a	83 c4 04	 add	 esp, 4

; 1462 : 			_CATCH_END
; 1463 : 		_CATCH_END

  0008d	b8 00 00 00 00	 mov	 eax, $L265393
  00092	c3		 ret	 0
$L265393:
  00093	8b 5d e8	 mov	 ebx, DWORD PTR __Newres$[ebp]
  00096	8b 75 ec	 mov	 esi, DWORD PTR _this$[ebp]
  00099	8b 55 08	 mov	 edx, DWORD PTR __Ptr$[ebp]
$L222782:

; 1464 : 
; 1465 : 		if (0 < _Oldlen)

  0009c	8b 4d 0c	 mov	 ecx, DWORD PTR __Oldlen$[ebp]
  0009f	85 c9		 test	 ecx, ecx
  000a1	76 24		 jbe	 SHORT $L265315

; 1466 : 			_Traits::copy(_Ptr, _Myptr(), _Oldlen);	// copy existing elements

  000a3	83 7e 18 10	 cmp	 DWORD PTR [esi+24], 16	; 00000010H
  000a7	72 05		 jb	 SHORT $L265311
  000a9	8b 76 04	 mov	 esi, DWORD PTR [esi+4]
  000ac	eb 03		 jmp	 SHORT $L265312
$L265311:
  000ae	83 c6 04	 add	 esi, 4
$L265312:
  000b1	8b c1		 mov	 eax, ecx
  000b3	c1 e9 02	 shr	 ecx, 2
  000b6	8b fa		 mov	 edi, edx
  000b8	f3 a5		 rep movsd
  000ba	8b c8		 mov	 ecx, eax
  000bc	83 e1 03	 and	 ecx, 3
  000bf	f3 a4		 rep movsb
  000c1	8b 75 ec	 mov	 esi, DWORD PTR _this$[ebp]
  000c4	8b 4d 0c	 mov	 ecx, DWORD PTR __Oldlen$[ebp]
$L265315:

; 1467 : 		_Tidy(true);

  000c7	83 7e 18 10	 cmp	 DWORD PTR [esi+24], 16	; 00000010H
  000cb	72 12		 jb	 SHORT $L265352
  000cd	8b 4e 04	 mov	 ecx, DWORD PTR [esi+4]
  000d0	51		 push	 ecx
  000d1	e8 00 00 00 00	 call	 ??3@YAXPAX@Z		; operator delete
  000d6	8b 55 08	 mov	 edx, DWORD PTR __Ptr$[ebp]
  000d9	8b 4d 0c	 mov	 ecx, DWORD PTR __Oldlen$[ebp]
  000dc	83 c4 04	 add	 esp, 4
$L265352:

; 1468 : 		_Bx._Ptr = _Ptr;
; 1469 : 		_Myres = _Newres;
; 1470 : 		_Eos(_Oldlen);

  000df	83 fb 10	 cmp	 ebx, 16			; 00000010H
  000e2	8d 46 04	 lea	 eax, DWORD PTR [esi+4]
  000e5	c6 00 00	 mov	 BYTE PTR [eax], 0
  000e8	89 10		 mov	 DWORD PTR [eax], edx
  000ea	89 5e 18	 mov	 DWORD PTR [esi+24], ebx
  000ed	89 4e 14	 mov	 DWORD PTR [esi+20], ecx
  000f0	72 02		 jb	 SHORT $L265384
  000f2	8b c2		 mov	 eax, edx
$L265384:

; 1471 : 		}

  000f4	5f		 pop	 edi
  000f5	c6 04 08 00	 mov	 BYTE PTR [eax+ecx], 0
  000f9	8b 4d f4	 mov	 ecx, DWORD PTR __$EHRec$[ebp+4]
  000fc	5e		 pop	 esi
  000fd	64 89 0d 00 00
	00 00		 mov	 DWORD PTR fs:__except_list, ecx
  00104	5b		 pop	 ebx
  00105	8b e5		 mov	 esp, ebp
  00107	5d		 pop	 ebp
  00108	c2 08 00	 ret	 8
$L265198:

; 1459 : 			_CATCH_ALL
; 1460 : 			_Tidy(true);	// failed again, discard storage and reraise

  0010b	8b 75 ec	 mov	 esi, DWORD PTR _this$[ebp]
  0010e	83 7e 18 10	 cmp	 DWORD PTR [esi+24], 16	; 00000010H
  00112	72 0c		 jb	 SHORT $L265291
  00114	8b 56 04	 mov	 edx, DWORD PTR [esi+4]
  00117	52		 push	 edx
  00118	e8 00 00 00 00	 call	 ??3@YAXPAX@Z		; operator delete
  0011d	83 c4 04	 add	 esp, 4
$L265291:

; 1461 : 			_RERAISE;

  00120	6a 00		 push	 0
  00122	c7 46 18 0f 00
	00 00		 mov	 DWORD PTR [esi+24], 15	; 0000000fH
  00129	c7 46 14 00 00
	00 00		 mov	 DWORD PTR [esi+20], 0
  00130	6a 00		 push	 0
  00132	c6 46 04 00	 mov	 BYTE PTR [esi+4], 0
  00136	e8 00 00 00 00	 call	 __CxxThrowException@8
$L265403:
$L265397:
  0013b	cc		 int	 3
_TEXT	ENDS
;	COMDAT text$x
text$x	SEGMENT
__ehhandler$?_Copy@?$basic_string@DU?$char_traits@D@std@@V?$allocator@D@2@@std@@IAEXII@Z:
  00000	b8 00 00 00 00	 mov	 eax, OFFSET FLAT:$T265392
  00005	e9 00 00 00 00	 jmp	 ___CxxFrameHandler
text$x	ENDS
?_Copy@?$basic_string@DU?$char_traits@D@std@@V?$allocator@D@2@@std@@IAEXII@Z ENDP ; std::basic_string<char,std::char_traits<char>,std::allocator<char> >::_Copy
PUBLIC	?ReadRespawn@CWorld@@QAEHAAVCScript@@@Z		; CWorld::ReadRespawn
PUBLIC	__real@3fe0000000000000
PUBLIC	__real@3fe6666666666666
PUBLIC	??_C@_08HEIJBNCJ@respawn2?$AA@			; `string'
PUBLIC	??_C@_08GNJCCMGI@respawn3?$AA@			; `string'
PUBLIC	??_C@_08CCNDLKKP@respawn4?$AA@			; `string'
PUBLIC	??_C@_08DLMIILOO@respawn5?$AA@			; `string'
PUBLIC	??_C@_08BAOFNICN@respawn6?$AA@			; `string'
PUBLIC	??_C@_08JPOOJGM@respawn7?$AA@			; `string'
PUBLIC	??_C@_0EA@DKDHDJBA@type?$DN?$CFd?0?5index?$DN?$CFd?0?5left?$DN?$CFd?0?5top?$DN@ ; `string'
EXTRN	__imp__OutputDebugStringA@4:NEAR
EXTRN	?GetLanguage@@YAHXZ:NEAR			; GetLanguage
EXTRN	?Add@CLayerdRespawner@@QAEHAAVCRespawnInfo@@H@Z:NEAR ; CLayerdRespawner::Add
EXTRN	_sprintf:NEAR
EXTRN	__ftol2:NEAR
EXTRN	?prj@@3VCProject@@A:BYTE			; prj
EXTRN	?GetNumber@CScanner@@QAEHH@Z:NEAR		; CScanner::GetNumber
EXTRN	?GetFloat@CScanner@@QAEMH@Z:NEAR		; CScanner::GetFloat
EXTRN	?GetState@CFlyffEvent@@QAEEH@Z:NEAR		; CFlyffEvent::GetState
EXTRN	?g_eLocal@@3VCFlyffEvent@@A:BYTE		; g_eLocal
EXTRN	??0CRespawnInfo@@QAE@XZ:NEAR			; CRespawnInfo::CRespawnInfo
EXTRN	??1CRespawnInfo@@UAE@XZ:NEAR			; CRespawnInfo::~CRespawnInfo
EXTRN	?GenResPoint@CRespawnInfo@@QAEHPAVCWorld@@@Z:NEAR ; CRespawnInfo::GenResPoint
;	COMDAT xdata$x
; File c:\documents and settings\test\mes documents\source\virtuos_v17\build\program\_common\project.h
xdata$x	SEGMENT
$T265612 DD	0ffffffffH
	DD	FLAT:$L265414
$T265578 DD	019930520H
	DD	01H
	DD	FLAT:$T265612
	DD	2 DUP(00H)
	DD	2 DUP(00H)
xdata$x	ENDS
;	COMDAT ??_C@_08HEIJBNCJ@respawn2?$AA@
CONST	SEGMENT
??_C@_08HEIJBNCJ@respawn2?$AA@ DB 'respawn2', 00H	; `string'
CONST	ENDS
;	COMDAT ??_C@_08GNJCCMGI@respawn3?$AA@
CONST	SEGMENT
??_C@_08GNJCCMGI@respawn3?$AA@ DB 'respawn3', 00H	; `string'
CONST	ENDS
;	COMDAT ??_C@_08CCNDLKKP@respawn4?$AA@
CONST	SEGMENT
??_C@_08CCNDLKKP@respawn4?$AA@ DB 'respawn4', 00H	; `string'
CONST	ENDS
;	COMDAT ??_C@_08DLMIILOO@respawn5?$AA@
CONST	SEGMENT
??_C@_08DLMIILOO@respawn5?$AA@ DB 'respawn5', 00H	; `string'
CONST	ENDS
;	COMDAT ??_C@_08BAOFNICN@respawn6?$AA@
CONST	SEGMENT
??_C@_08BAOFNICN@respawn6?$AA@ DB 'respawn6', 00H	; `string'
CONST	ENDS
;	COMDAT ??_C@_08JPOOJGM@respawn7?$AA@
CONST	SEGMENT
??_C@_08JPOOJGM@respawn7?$AA@ DB 'respawn7', 00H	; `string'
CONST	ENDS
;	COMDAT __real@3fe0000000000000
CONST	SEGMENT
__real@3fe0000000000000 DQ 03fe0000000000000r	; 0.5
CONST	ENDS
;	COMDAT __real@3fe6666666666666
CONST	SEGMENT
__real@3fe6666666666666 DQ 03fe6666666666666r	; 0.7
CONST	ENDS
;	COMDAT ??_C@_0EA@DKDHDJBA@type?$DN?$CFd?0?5index?$DN?$CFd?0?5left?$DN?$CFd?0?5top?$DN@
CONST	SEGMENT
??_C@_0EA@DKDHDJBA@type?$DN?$CFd?0?5index?$DN?$CFd?0?5left?$DN?$CFd?0?5top?$DN@ DB 't'
	DB	'ype=%d, index=%d, left=%d, top=%d, right=%d, bottom=%d, num=%'
	DB	'd', 00H					; `string'
; Function compile flags: /Ogty
; File c:\documents and settings\test\mes documents\source\virtuos_v17\build\program\_common\worldfile.cpp
CONST	ENDS
;	COMDAT ?ReadRespawn@CWorld@@QAEHAAVCScript@@@Z
_TEXT	SEGMENT
tv1403 = -1656						; size = 4
tv1400 = -1656						; size = 4
_nContrl$258662 = -1656					; size = 4
_vPos$ = -1652						; size = 12
$T265409 = -1640					; size = 12
$T265575 = -1628					; size = 4
_ri$ = -1624						; size = 1352
_lpOutputString$258697 = -272				; size = 256
__$ArrayPad$ = -16					; size = 4
__$EHRec$ = -12						; size = 12
__$ReturnAddr$ = 4					; size = 4
_s$ = 8							; size = 4
?ReadRespawn@CWorld@@QAEHAAVCScript@@@Z PROC NEAR	; CWorld::ReadRespawn, COMDAT
; _this$ = ecx

; 556  : {

  00000	6a ff		 push	 -1
  00002	68 00 00 00 00	 push	 __ehhandler$?ReadRespawn@CWorld@@QAEHAAVCScript@@@Z
  00007	64 a1 00 00 00
	00		 mov	 eax, DWORD PTR fs:__except_list
  0000d	50		 push	 eax
  0000e	64 89 25 00 00
	00 00		 mov	 DWORD PTR fs:__except_list, esp
  00015	81 ec 6c 06 00
	00		 sub	 esp, 1644		; 0000066cH
  0001b	a1 00 00 00 00	 mov	 eax, DWORD PTR ___security_cookie
  00020	33 c4		 xor	 eax, esp
  00022	53		 push	 ebx
  00023	55		 push	 ebp
  00024	56		 push	 esi
  00025	8b b4 24 88 06
	00 00		 mov	 esi, DWORD PTR _s$[esp+1664]
  0002c	57		 push	 edi
  0002d	89 84 24 78 06
	00 00		 mov	 DWORD PTR __$ArrayPad$[esp+1672], eax

; 557  : 	int nVersion = 1;
; 558  : 	if( s.Token == _T( "respawn2" ) )

  00034	8b 46 20	 mov	 eax, DWORD PTR [esi+32]
  00037	68 00 00 00 00	 push	 OFFSET FLAT:??_C@_08HEIJBNCJ@respawn2?$AA@
  0003c	50		 push	 eax
  0003d	89 4c 24 34	 mov	 DWORD PTR $T265575[esp+1680], ecx
  00041	bb 01 00 00 00	 mov	 ebx, 1
  00046	e8 00 00 00 00	 call	 __mbscmp
  0004b	83 c4 08	 add	 esp, 8
  0004e	85 c0		 test	 eax, eax
  00050	75 05		 jne	 SHORT $L258612

; 559  : 		nVersion = 2;

  00052	bb 02 00 00 00	 mov	 ebx, 2
$L258612:

; 560  : 	if( s.Token == _T( "respawn3" ) )

  00057	8b 46 20	 mov	 eax, DWORD PTR [esi+32]
  0005a	68 00 00 00 00	 push	 OFFSET FLAT:??_C@_08GNJCCMGI@respawn3?$AA@
  0005f	50		 push	 eax
  00060	e8 00 00 00 00	 call	 __mbscmp
  00065	83 c4 08	 add	 esp, 8
  00068	85 c0		 test	 eax, eax
  0006a	75 05		 jne	 SHORT $L258614

; 561  : 		nVersion = 3;

  0006c	bb 03 00 00 00	 mov	 ebx, 3
$L258614:

; 562  : 	//__YAIMONSTER_EX
; 563  : 	//__Y_PATROL				
; 564  : 	if( s.Token == _T( "respawn4" ) )

  00071	8b 46 20	 mov	 eax, DWORD PTR [esi+32]
  00074	68 00 00 00 00	 push	 OFFSET FLAT:??_C@_08CCNDLKKP@respawn4?$AA@
  00079	50		 push	 eax
  0007a	e8 00 00 00 00	 call	 __mbscmp
  0007f	83 c4 08	 add	 esp, 8
  00082	85 c0		 test	 eax, eax
  00084	75 05		 jne	 SHORT $L258616

; 565  : 		nVersion = 4;	

  00086	bb 04 00 00 00	 mov	 ebx, 4
$L258616:

; 566  : 	if( s.Token == _T( "respawn5" ) )

  0008b	8b 46 20	 mov	 eax, DWORD PTR [esi+32]
  0008e	68 00 00 00 00	 push	 OFFSET FLAT:??_C@_08DLMIILOO@respawn5?$AA@
  00093	50		 push	 eax
  00094	e8 00 00 00 00	 call	 __mbscmp
  00099	83 c4 08	 add	 esp, 8
  0009c	85 c0		 test	 eax, eax
  0009e	75 05		 jne	 SHORT $L258618

; 567  : 		nVersion = 5;	

  000a0	bb 05 00 00 00	 mov	 ebx, 5
$L258618:

; 568  : 	if( s.Token == _T( "respawn6" ) )

  000a5	8b 46 20	 mov	 eax, DWORD PTR [esi+32]
  000a8	68 00 00 00 00	 push	 OFFSET FLAT:??_C@_08BAOFNICN@respawn6?$AA@
  000ad	50		 push	 eax
  000ae	e8 00 00 00 00	 call	 __mbscmp
  000b3	83 c4 08	 add	 esp, 8
  000b6	85 c0		 test	 eax, eax
  000b8	75 05		 jne	 SHORT $L258620

; 569  : 		nVersion = 6;

  000ba	bb 06 00 00 00	 mov	 ebx, 6
$L258620:

; 570  : #if __VER >= 10 // __LEGEND
; 571  : 	if( s.Token == _T( "respawn7" ) )

  000bf	8b 46 20	 mov	 eax, DWORD PTR [esi+32]
  000c2	68 00 00 00 00	 push	 OFFSET FLAT:??_C@_08JPOOJGM@respawn7?$AA@
  000c7	50		 push	 eax
  000c8	e8 00 00 00 00	 call	 __mbscmp
  000cd	83 c4 08	 add	 esp, 8
  000d0	85 c0		 test	 eax, eax
  000d2	75 05		 jne	 SHORT $L258622

; 572  : 		nVersion = 7;

  000d4	bb 07 00 00 00	 mov	 ebx, 7
$L258622:

; 573  : #endif //__LEGEND
; 574  : 	
; 575  : 	
; 576  : 	CRespawnInfo ri,* pInfo = &ri;

  000d9	8d 4c 24 30	 lea	 ecx, DWORD PTR _ri$[esp+1672]
  000dd	e8 00 00 00 00	 call	 ??0CRespawnInfo@@QAE@XZ	; CRespawnInfo::CRespawnInfo

; 577  : 	DWORD dwType;
; 578  : 	DWORD dwIndex;
; 579  : 	D3DXVECTOR3 vPos;
; 580  : 	dwType = s.GetNumber();

  000e2	6a 00		 push	 0
  000e4	8b ce		 mov	 ecx, esi
  000e6	c7 84 24 88 06
	00 00 00 00 00
	00		 mov	 DWORD PTR __$EHRec$[esp+1684], 0
  000f1	e8 00 00 00 00	 call	 ?GetNumber@CScanner@@QAEHH@Z ; CScanner::GetNumber

; 581  : 
; 582  : 	dwIndex = s.GetNumber();

  000f6	6a 00		 push	 0
  000f8	8b ce		 mov	 ecx, esi
  000fa	8b e8		 mov	 ebp, eax
  000fc	e8 00 00 00 00	 call	 ?GetNumber@CScanner@@QAEHH@Z ; CScanner::GetNumber

; 583  : 	vPos.x = s.GetFloat();

  00101	6a 00		 push	 0
  00103	8b ce		 mov	 ecx, esi
  00105	8b f8		 mov	 edi, eax
  00107	e8 00 00 00 00	 call	 ?GetFloat@CScanner@@QAEMH@Z ; CScanner::GetFloat
  0010c	d9 5c 24 14	 fstp	 DWORD PTR _vPos$[esp+1672]

; 584  : 	vPos.y = s.GetFloat();

  00110	6a 00		 push	 0
  00112	8b ce		 mov	 ecx, esi
  00114	e8 00 00 00 00	 call	 ?GetFloat@CScanner@@QAEMH@Z ; CScanner::GetFloat
  00119	d9 5c 24 18	 fstp	 DWORD PTR _vPos$[esp+1676]

; 585  : 	vPos.z = s.GetFloat();

  0011d	6a 00		 push	 0
  0011f	8b ce		 mov	 ecx, esi
  00121	e8 00 00 00 00	 call	 ?GetFloat@CScanner@@QAEMH@Z ; CScanner::GetFloat
  00126	d9 5c 24 1c	 fstp	 DWORD PTR _vPos$[esp+1680]

; 586  : 	
; 587  : 	pInfo->m_dwIndex     = dwIndex;
; 588  : 	pInfo->m_dwType	= dwType;
; 589  : 
; 590  : #ifdef __S1108_BACK_END_SYSTEM
; 591  : 	pInfo->m_nMaxcb		 = s.GetNumber();

  0012a	6a 00		 push	 0
  0012c	8b ce		 mov	 ecx, esi
  0012e	89 7c 24 3c	 mov	 DWORD PTR _ri$[esp+1684], edi
  00132	89 6c 24 38	 mov	 DWORD PTR _ri$[esp+1680], ebp
  00136	e8 00 00 00 00	 call	 ?GetNumber@CScanner@@QAEHH@Z ; CScanner::GetNumber

; 592  : 	pInfo->m_cb          = 0;

  0013b	c7 44 24 3c 00
	00 00 00	 mov	 DWORD PTR _ri$[esp+1684], 0

; 593  : #else // __S1108_BACK_END_SYSTEM
; 594  : 	pInfo->m_cb          = (u_short)s.GetNumber();
; 595  : #endif // __S1108_BACK_END_SYSTEM
; 596  : 
; 597  : 	pInfo->m_uTime = (short)s.GetNumber();

  00143	6a 00		 push	 0
  00145	8b ce		 mov	 ecx, esi
  00147	89 84 24 40 02
	00 00		 mov	 DWORD PTR _ri$[esp+2200], eax
  0014e	e8 00 00 00 00	 call	 ?GetNumber@CScanner@@QAEHH@Z ; CScanner::GetNumber

; 598  : 
; 599  : #ifdef __S1108_BACK_END_SYSTEM
; 600  : 	pInfo->m_nMaxAttackNum = (long)s.GetNumber();

  00153	6a 00		 push	 0
  00155	8b ce		 mov	 ecx, esi
  00157	66 89 44 24 64	 mov	 WORD PTR _ri$[esp+1724], ax
  0015c	e8 00 00 00 00	 call	 ?GetNumber@CScanner@@QAEHH@Z ; CScanner::GetNumber
  00161	89 84 24 40 02
	00 00		 mov	 DWORD PTR _ri$[esp+2200], eax

; 601  : 	pInfo->m_nActiveAttackNum = 0;
; 602  : #else // __S1108_BACK_END_SYSTEM
; 603  : 	pInfo->m_nActiveAttackNum = (long)s.GetNumber();
; 604  : #endif // __S1108_BACK_END_SYSTEM
; 605  : 
; 606  : 	pInfo->m_vPos	= D3DXVECTOR3( 0.0f, 0.0f, 0.0f );

  00168	c7 44 24 20 00
	00 00 00	 mov	 DWORD PTR $T265409[esp+1672], 0
  00170	8b 44 24 20	 mov	 eax, DWORD PTR $T265409[esp+1672]
  00174	c7 44 24 24 00
	00 00 00	 mov	 DWORD PTR $T265409[esp+1676], 0
  0017c	8b 4c 24 24	 mov	 ecx, DWORD PTR $T265409[esp+1676]
  00180	c7 44 24 28 00
	00 00 00	 mov	 DWORD PTR $T265409[esp+1680], 0
  00188	8b 54 24 28	 mov	 edx, DWORD PTR $T265409[esp+1680]
  0018c	89 44 24 54	 mov	 DWORD PTR _ri$[esp+1708], eax

; 607  : 
; 608  : 	pInfo->m_fY = vPos.y;

  00190	8b 44 24 18	 mov	 eax, DWORD PTR _vPos$[esp+1676]

; 609  : 	if( dwType == OT_MOVER )

  00194	83 fd 05	 cmp	 ebp, 5
  00197	c7 44 24 40 00
	00 00 00	 mov	 DWORD PTR _ri$[esp+1688], 0
  0019f	89 4c 24 58	 mov	 DWORD PTR _ri$[esp+1712], ecx
  001a3	89 54 24 5c	 mov	 DWORD PTR _ri$[esp+1716], edx
  001a7	89 84 24 88 00
	00 00		 mov	 DWORD PTR _ri$[esp+1760], eax
  001ae	8b e8		 mov	 ebp, eax
  001b0	0f 85 dc 00 00
	00		 jne	 $L265602

; 610  : 	{
; 611  : 		MoverProp* pMoverProp	= prj.GetMoverProp( dwIndex );

  001b6	85 ff		 test	 edi, edi
  001b8	a1 d0 01 00 00	 mov	 eax, DWORD PTR ?prj@@3VCProject@@A+464
  001bd	7c 6b		 jl	 SHORT $L265570
  001bf	3b f8		 cmp	 edi, eax
  001c1	7d 67		 jge	 SHORT $L265570
  001c3	a1 d4 01 00 00	 mov	 eax, DWORD PTR ?prj@@3VCProject@@A+468
  001c8	69 ff d8 06 00
	00		 imul	 edi, 1752		; 000006d8H
  001ce	03 f8		 add	 edi, eax

; 612  : #ifdef __WORLDSERVER
; 613  : 		if( pMoverProp )

  001d0	85 ff		 test	 edi, edi
  001d2	0f 84 ba 00 00
	00		 je	 $L265602

; 614  : 		{
; 615  : 			// PK   skip.
; 616  : 			if( ::GetLanguage() != LANG_KOR )	//   skip .

  001d8	e8 00 00 00 00	 call	 ?GetLanguage@@YAHXZ	; GetLanguage
  001dd	85 c0		 test	 eax, eax
  001df	74 1d		 je	 SHORT $L265601

; 617  : 				if( pMoverProp->dwClass == RANK_GUARD && g_eLocal.GetState( EVE_PK ) == FALSE ) 

  001e1	83 bf 94 00 00
	00 08		 cmp	 DWORD PTR [edi+148], 8
  001e8	75 14		 jne	 SHORT $L265601
  001ea	6a 0b		 push	 11			; 0000000bH
  001ec	b9 00 00 00 00	 mov	 ecx, OFFSET FLAT:?g_eLocal@@3VCFlyffEvent@@A
  001f1	e8 00 00 00 00	 call	 ?GetState@CFlyffEvent@@QAEEH@Z ; CFlyffEvent::GetState
  001f6	84 c0		 test	 al, al

; 618  : 					return TRUE;

  001f8	0f 84 eb 04 00
	00		 je	 $L265609
$L265601:

; 619  : 			
; 620  : 			if( pMoverProp->dwClass == RANK_MATERIAL )

  001fe	8b 87 94 00 00
	00		 mov	 eax, DWORD PTR [edi+148]
  00204	83 f8 06	 cmp	 eax, 6

; 621  : 				return TRUE;

  00207	0f 84 dc 04 00
	00		 je	 $L265609

; 622  : 
; 623  : 			if( pMoverProp->dwClass != RANK_BOSS )

  0020d	83 f8 04	 cmp	 eax, 4
  00210	74 62		 je	 SHORT $L258642

; 624  : 			{
; 625  : 				switch( pMoverProp->dwID )

  00212	8b 07		 mov	 eax, DWORD PTR [edi]
  00214	83 c0 ec	 add	 eax, -20		; ffffffecH
  00217	83 f8 4e	 cmp	 eax, 78			; 0000004eH
  0021a	77 3b		 ja	 SHORT $L258647
  0021c	0f b6 88 00 00
	00 00		 movzx	 ecx, BYTE PTR $L265595[eax]
  00223	ff 24 8d 00 00
	00 00		 jmp	 DWORD PTR $L265611[ecx*4]

; 610  : 	{
; 611  : 		MoverProp* pMoverProp	= prj.GetMoverProp( dwIndex );

$L265570:
  0022a	57		 push	 edi
  0022b	50		 push	 eax
  0022c	6a 00		 push	 0
  0022e	68 00 00 00 00	 push	 OFFSET FLAT:??_C@_0BJ@GKPOBPPI@GetMoverProp?5range_error?$AA@
  00233	68 00 00 00 00	 push	 OFFSET FLAT:??_C@_0BM@HMFGHCP@?$CFs?5min?3?$CFd?0?5max?3?$CFd?0?5index?3?$CFd?$AA@
  00238	e8 00 00 00 00	 call	 ?Error@@YAPBDPBDZZ	; Error
  0023d	83 c4 14	 add	 esp, 20			; 00000014H

; 612  : #ifdef __WORLDSERVER
; 613  : 		if( pMoverProp )

  00240	eb 50		 jmp	 SHORT $L265602
$L258645:

; 626  : 				{
; 627  : 					case MI_AIBATT1:
; 628  : 					case MI_AIBATT2:
; 629  : 					case MI_AIBATT3:
; 630  : 					case MI_MUSHPANG1:
; 631  : 					case MI_MUSHPANG2:
; 632  : 					case MI_MUSHPANG3:
; 633  : 					case MI_BURUDENG1:
; 634  : 					case MI_BURUDENG2:
; 635  : 					case MI_BURUDENG3:
; 636  : 						pInfo->m_uTime	= (u_short)( pInfo->m_uTime	* 0.5 );

  00242	0f b7 54 24 60	 movzx	 edx, WORD PTR _ri$[esp+1720]
  00247	89 54 24 10	 mov	 DWORD PTR tv1403[esp+1672], edx
  0024b	db 44 24 10	 fild	 DWORD PTR tv1403[esp+1672]
  0024f	dc 0d 00 00 00
	00		 fmul	 QWORD PTR __real@3fe0000000000000

; 637  : 						break;

  00255	eb 13		 jmp	 SHORT $L265610
$L258647:

; 638  : 					default:
; 639  : 						pInfo->m_uTime	= (u_short)( pInfo->m_uTime * 0.7 );

  00257	0f b7 44 24 60	 movzx	 eax, WORD PTR _ri$[esp+1720]
  0025c	89 44 24 10	 mov	 DWORD PTR tv1400[esp+1672], eax
  00260	db 44 24 10	 fild	 DWORD PTR tv1400[esp+1672]
  00264	dc 0d 00 00 00
	00		 fmul	 QWORD PTR __real@3fe6666666666666
$L265610:
  0026a	e8 00 00 00 00	 call	 __ftol2
  0026f	66 89 44 24 60	 mov	 WORD PTR _ri$[esp+1720], ax
$L258642:

; 640  : 						break;
; 641  : 				}						
; 642  : 			}
; 643  : 		if( pMoverProp->dwFlying )

  00274	8b 87 10 01 00
	00		 mov	 eax, DWORD PTR [edi+272]
  0027a	85 c0		 test	 eax, eax
  0027c	74 14		 je	 SHORT $L265602

; 644  : 			pInfo->m_vPos	= vPos;

  0027e	8b 4c 24 14	 mov	 ecx, DWORD PTR _vPos$[esp+1672]
  00282	8b 54 24 1c	 mov	 edx, DWORD PTR _vPos$[esp+1680]
  00286	89 4c 24 54	 mov	 DWORD PTR _ri$[esp+1708], ecx
  0028a	89 6c 24 58	 mov	 DWORD PTR _ri$[esp+1712], ebp
  0028e	89 54 24 5c	 mov	 DWORD PTR _ri$[esp+1716], edx
$L265602:

; 645  : 		}
; 646  : #endif	// __WORLDSERVER
; 647  : 	}
; 648  : 	pInfo->m_rect.left   = (LONG)s.GetNumber();

  00292	6a 00		 push	 0
  00294	8b ce		 mov	 ecx, esi
  00296	e8 00 00 00 00	 call	 ?GetNumber@CScanner@@QAEHH@Z ; CScanner::GetNumber

; 649  : 	pInfo->m_rect.top    = (LONG)s.GetNumber();

  0029b	6a 00		 push	 0
  0029d	8b ce		 mov	 ecx, esi
  0029f	89 44 24 48	 mov	 DWORD PTR _ri$[esp+1696], eax
  002a3	e8 00 00 00 00	 call	 ?GetNumber@CScanner@@QAEHH@Z ; CScanner::GetNumber

; 650  : 	pInfo->m_rect.right  = (LONG)s.GetNumber();

  002a8	6a 00		 push	 0
  002aa	8b ce		 mov	 ecx, esi
  002ac	89 44 24 4c	 mov	 DWORD PTR _ri$[esp+1700], eax
  002b0	e8 00 00 00 00	 call	 ?GetNumber@CScanner@@QAEHH@Z ; CScanner::GetNumber

; 651  : 	pInfo->m_rect.bottom = (LONG)s.GetNumber();

  002b5	6a 00		 push	 0
  002b7	8b ce		 mov	 ecx, esi
  002b9	89 44 24 50	 mov	 DWORD PTR _ri$[esp+1704], eax
  002bd	e8 00 00 00 00	 call	 ?GetNumber@CScanner@@QAEHH@Z ; CScanner::GetNumber

; 652  : 	if( nVersion >= 2 )

  002c2	83 fb 02	 cmp	 ebx, 2
  002c5	89 44 24 50	 mov	 DWORD PTR _ri$[esp+1704], eax
  002c9	7c 57		 jl	 SHORT $L258654

; 653  : 	{
; 654  : 		pInfo->m_nDayMin = s.GetNumber();

  002cb	6a 00		 push	 0
  002cd	8b ce		 mov	 ecx, esi
  002cf	e8 00 00 00 00	 call	 ?GetNumber@CScanner@@QAEHH@Z ; CScanner::GetNumber

; 655  : 		pInfo->m_nDayMax = s.GetNumber();

  002d4	6a 00		 push	 0
  002d6	8b ce		 mov	 ecx, esi
  002d8	89 44 24 7c	 mov	 DWORD PTR _ri$[esp+1748], eax
  002dc	e8 00 00 00 00	 call	 ?GetNumber@CScanner@@QAEHH@Z ; CScanner::GetNumber

; 656  : 		pInfo->m_nHourMin = s.GetNumber();

  002e1	6a 00		 push	 0
  002e3	8b ce		 mov	 ecx, esi
  002e5	89 84 24 80 00
	00 00		 mov	 DWORD PTR _ri$[esp+1752], eax
  002ec	e8 00 00 00 00	 call	 ?GetNumber@CScanner@@QAEHH@Z ; CScanner::GetNumber

; 657  : 		pInfo->m_nHourMax = s.GetNumber();

  002f1	6a 00		 push	 0
  002f3	8b ce		 mov	 ecx, esi
  002f5	89 84 24 84 00
	00 00		 mov	 DWORD PTR _ri$[esp+1756], eax
  002fc	e8 00 00 00 00	 call	 ?GetNumber@CScanner@@QAEHH@Z ; CScanner::GetNumber

; 658  : 		pInfo->m_nItemMin = s.GetNumber();

  00301	6a 00		 push	 0
  00303	8b ce		 mov	 ecx, esi
  00305	89 84 24 88 00
	00 00		 mov	 DWORD PTR _ri$[esp+1760], eax
  0030c	e8 00 00 00 00	 call	 ?GetNumber@CScanner@@QAEHH@Z ; CScanner::GetNumber

; 659  : 		pInfo->m_nItemMax = s.GetNumber();

  00311	6a 00		 push	 0
  00313	8b ce		 mov	 ecx, esi
  00315	89 44 24 74	 mov	 DWORD PTR _ri$[esp+1740], eax
  00319	e8 00 00 00 00	 call	 ?GetNumber@CScanner@@QAEHH@Z ; CScanner::GetNumber
  0031e	89 44 24 74	 mov	 DWORD PTR _ri$[esp+1740], eax
$L258654:

; 660  : 	}
; 661  : 
; 662  : 	if( nVersion >= 4 )

  00322	83 fb 04	 cmp	 ebx, 4
  00325	7c 4f		 jl	 SHORT $L265604

; 663  : 	{		
; 664  : 		pInfo->m_dwAiState = s.GetNumber();

  00327	6a 00		 push	 0
  00329	8b ce		 mov	 ecx, esi
  0032b	e8 00 00 00 00	 call	 ?GetNumber@CScanner@@QAEHH@Z ; CScanner::GetNumber

; 665  : 		pInfo->m_fAngle    = s.GetFloat();	

  00330	6a 00		 push	 0
  00332	8b ce		 mov	 ecx, esi
  00334	89 84 24 4c 02
	00 00		 mov	 DWORD PTR _ri$[esp+2212], eax
  0033b	e8 00 00 00 00	 call	 ?GetFloat@CScanner@@QAEMH@Z ; CScanner::GetFloat
  00340	d9 9c 24 4c 02
	00 00		 fstp	 DWORD PTR _ri$[esp+2212]

; 666  : 		
; 667  : 		if( pInfo->m_nMaxcb == 1 )

  00347	83 bc 24 3c 02
	00 00 01	 cmp	 DWORD PTR _ri$[esp+2196], 1
  0034f	75 25		 jne	 SHORT $L265604

; 668  : 		{
; 669  : 			if( pInfo->m_dwAiState == 8 || pInfo->m_dwAiState == 9 )

  00351	8b 84 24 48 02
	00 00		 mov	 eax, DWORD PTR _ri$[esp+2208]
  00358	83 f8 08	 cmp	 eax, 8
  0035b	74 05		 je	 SHORT $L258658
  0035d	83 f8 09	 cmp	 eax, 9
  00360	75 14		 jne	 SHORT $L265604
$L258658:

; 670  : 			{
; 671  : 				pInfo->m_vPos = vPos;

  00362	8b 44 24 14	 mov	 eax, DWORD PTR _vPos$[esp+1672]
  00366	8b 4c 24 1c	 mov	 ecx, DWORD PTR _vPos$[esp+1680]
  0036a	89 44 24 54	 mov	 DWORD PTR _ri$[esp+1708], eax
  0036e	89 6c 24 58	 mov	 DWORD PTR _ri$[esp+1712], ebp
  00372	89 4c 24 5c	 mov	 DWORD PTR _ri$[esp+1716], ecx
$L265604:

; 672  : 			}
; 673  : 		}
; 674  : 	}
; 675  : 
; 676  : 	if( nVersion >= 5 )

  00376	83 fb 05	 cmp	 ebx, 5
  00379	7c 10		 jl	 SHORT $L258659

; 677  : 	{		
; 678  : 		pInfo->m_dwPatrolIndex = s.GetNumber();

  0037b	6a 00		 push	 0
  0037d	8b ce		 mov	 ecx, esi
  0037f	e8 00 00 00 00	 call	 ?GetNumber@CScanner@@QAEHH@Z ; CScanner::GetNumber
  00384	89 84 24 50 02
	00 00		 mov	 DWORD PTR _ri$[esp+2216], eax
$L258659:

; 679  : 	}
; 680  : 	
; 681  : 	if( nVersion >= 6 )

  0038b	83 fb 06	 cmp	 ebx, 6
  0038e	7c 20		 jl	 SHORT $L258660

; 682  : 	{		
; 683  : 		pInfo->m_bPatrolCycle  = s.GetNumber();

  00390	6a 00		 push	 0
  00392	8b ce		 mov	 ecx, esi
  00394	e8 00 00 00 00	 call	 ?GetNumber@CScanner@@QAEHH@Z ; CScanner::GetNumber
  00399	8a 8c 24 54 02
	00 00		 mov	 cl, BYTE PTR _ri$[esp+2220]
  003a0	8a d1		 mov	 dl, cl
  003a2	32 d0		 xor	 dl, al
  003a4	80 e2 01	 and	 dl, 1
  003a7	32 ca		 xor	 cl, dl
  003a9	88 8c 24 54 02
	00 00		 mov	 BYTE PTR _ri$[esp+2220], cl
$L258660:

; 684  : 	}
; 685  : 	
; 686  : 	if( nVersion >= 3 )

  003b0	83 fb 03	 cmp	 ebx, 3
  003b3	0f 8c 8f 02 00
	00		 jl	 $L265605

; 687  : 	{	
; 688  : 		int nContrl = s.GetNumber();

  003b9	6a 00		 push	 0
  003bb	8b ce		 mov	 ecx, esi
  003bd	e8 00 00 00 00	 call	 ?GetNumber@CScanner@@QAEHH@Z ; CScanner::GetNumber
  003c2	8b f8		 mov	 edi, eax

; 689  : 		if( nContrl )

  003c4	85 ff		 test	 edi, edi
  003c6	89 7c 24 10	 mov	 DWORD PTR _nContrl$258662[esp+1672], edi
  003ca	0f 84 78 02 00
	00		 je	 $L265605

; 690  : 		{
; 691  : 			pInfo->m_CtrlElem.m_dwSet = s.GetNumber(); 

  003d0	6a 00		 push	 0
  003d2	8b ce		 mov	 ecx, esi
  003d4	e8 00 00 00 00	 call	 ?GetNumber@CScanner@@QAEHH@Z ; CScanner::GetNumber

; 692  : 			pInfo->m_CtrlElem.m_dwSetItem = s.GetNumber();  

  003d9	6a 00		 push	 0
  003db	8b ce		 mov	 ecx, esi
  003dd	89 84 24 90 00
	00 00		 mov	 DWORD PTR _ri$[esp+1768], eax
  003e4	e8 00 00 00 00	 call	 ?GetNumber@CScanner@@QAEHH@Z ; CScanner::GetNumber

; 693  : 			if( nContrl == 2 )

  003e9	83 ff 02	 cmp	 edi, 2
  003ec	89 84 24 90 00
	00 00		 mov	 DWORD PTR _ri$[esp+1768], eax
  003f3	75 12		 jne	 SHORT $L258664

; 694  : 			{
; 695  : 				pInfo->m_CtrlElem.m_dwSetItemCount = s.GetNumber();  

  003f5	6a 00		 push	 0
  003f7	8b ce		 mov	 ecx, esi
  003f9	e8 00 00 00 00	 call	 ?GetNumber@CScanner@@QAEHH@Z ; CScanner::GetNumber
  003fe	89 84 24 28 02
	00 00		 mov	 DWORD PTR _ri$[esp+2176], eax

; 696  : 			}
; 697  : 			else

  00405	eb 0b		 jmp	 SHORT $L258665
$L258664:

; 698  : 			{
; 699  : 				pInfo->m_CtrlElem.m_dwSetItemCount = 1;

  00407	c7 84 24 28 02
	00 00 01 00 00
	00		 mov	 DWORD PTR _ri$[esp+2176], 1
$L258665:

; 700  : 			}
; 701  : 			pInfo->m_CtrlElem.m_dwSetLevel = s.GetNumber();  

  00412	6a 00		 push	 0
  00414	8b ce		 mov	 ecx, esi
  00416	e8 00 00 00 00	 call	 ?GetNumber@CScanner@@QAEHH@Z ; CScanner::GetNumber

; 702  : 			pInfo->m_CtrlElem.m_dwSetQuestNum = s.GetNumber();  

  0041b	6a 00		 push	 0
  0041d	8b ce		 mov	 ecx, esi
  0041f	89 84 24 98 00
	00 00		 mov	 DWORD PTR _ri$[esp+1776], eax
  00426	e8 00 00 00 00	 call	 ?GetNumber@CScanner@@QAEHH@Z ; CScanner::GetNumber

; 703  : 			pInfo->m_CtrlElem.m_dwSetFlagNum = s.GetNumber();  

  0042b	6a 00		 push	 0
  0042d	8b ce		 mov	 ecx, esi
  0042f	89 84 24 9c 00
	00 00		 mov	 DWORD PTR _ri$[esp+1780], eax
  00436	e8 00 00 00 00	 call	 ?GetNumber@CScanner@@QAEHH@Z ; CScanner::GetNumber

; 704  : 			if( nContrl == 2 )

  0043b	83 ff 02	 cmp	 edi, 2
  0043e	89 84 24 9c 00
	00 00		 mov	 DWORD PTR _ri$[esp+1780], eax
  00445	75 40		 jne	 SHORT $L258666

; 705  : 			{
; 706  : 				pInfo->m_CtrlElem.m_dwSetQuestNum1 = s.GetNumber();  

  00447	6a 00		 push	 0
  00449	8b ce		 mov	 ecx, esi
  0044b	e8 00 00 00 00	 call	 ?GetNumber@CScanner@@QAEHH@Z ; CScanner::GetNumber

; 707  : 				pInfo->m_CtrlElem.m_dwSetFlagNum1 = s.GetNumber();  

  00450	6a 00		 push	 0
  00452	8b ce		 mov	 ecx, esi
  00454	89 84 24 1c 02
	00 00		 mov	 DWORD PTR _ri$[esp+2164], eax
  0045b	e8 00 00 00 00	 call	 ?GetNumber@CScanner@@QAEHH@Z ; CScanner::GetNumber

; 708  : 				pInfo->m_CtrlElem.m_dwSetQuestNum2 = s.GetNumber();  

  00460	6a 00		 push	 0
  00462	8b ce		 mov	 ecx, esi
  00464	89 84 24 20 02
	00 00		 mov	 DWORD PTR _ri$[esp+2168], eax
  0046b	e8 00 00 00 00	 call	 ?GetNumber@CScanner@@QAEHH@Z ; CScanner::GetNumber

; 709  : 				pInfo->m_CtrlElem.m_dwSetFlagNum2 = s.GetNumber();  

  00470	6a 00		 push	 0
  00472	8b ce		 mov	 ecx, esi
  00474	89 84 24 24 02
	00 00		 mov	 DWORD PTR _ri$[esp+2172], eax
  0047b	e8 00 00 00 00	 call	 ?GetNumber@CScanner@@QAEHH@Z ; CScanner::GetNumber
  00480	89 84 24 24 02
	00 00		 mov	 DWORD PTR _ri$[esp+2172], eax
$L258666:

; 710  : 			}
; 711  : 			pInfo->m_CtrlElem.m_dwSetGender = s.GetNumber();

  00487	6a 00		 push	 0
  00489	8b ce		 mov	 ecx, esi
  0048b	e8 00 00 00 00	 call	 ?GetNumber@CScanner@@QAEHH@Z ; CScanner::GetNumber
  00490	89 84 24 a0 00
	00 00		 mov	 DWORD PTR _ri$[esp+1784], eax

; 712  : 
; 713  : #if __VER >= 10 // __LEGEND
; 714  : 			int maxjob = 0;
; 715  : 			if(nVersion <= 6)

  00497	33 c0		 xor	 eax, eax
  00499	83 fb 06	 cmp	 ebx, 6
  0049c	0f 9f c0	 setg	 al
  0049f	48		 dec	 eax
  004a0	83 e0 f0	 and	 eax, -16		; fffffff0H
  004a3	83 c0 20	 add	 eax, 32			; 00000020H
  004a6	8b e8		 mov	 ebp, eax

; 716  : 				maxjob = 16;
; 717  : 			else
; 718  : 				maxjob = 32;
; 719  : 
; 720  : 			for( int i = 0; i < maxjob; i++ )

  004a8	85 ed		 test	 ebp, ebp
  004aa	7e 18		 jle	 SHORT $L258673
  004ac	8d bc 24 a4 00
	00 00		 lea	 edi, DWORD PTR _ri$[esp+1788]
$L258671:

; 721  : 				pInfo->m_CtrlElem.m_bSetJob[ i ] = s.GetNumber();

  004b3	6a 00		 push	 0
  004b5	8b ce		 mov	 ecx, esi
  004b7	e8 00 00 00 00	 call	 ?GetNumber@CScanner@@QAEHH@Z ; CScanner::GetNumber
  004bc	89 07		 mov	 DWORD PTR [edi], eax
  004be	83 c7 04	 add	 edi, 4
  004c1	4d		 dec	 ebp
  004c2	75 ef		 jne	 SHORT $L258671
$L258673:

; 722  : #else //__LEGEND
; 723  : 			for( int i = 0; i < MAX_JOB; i++ )
; 724  : 				pInfo->m_CtrlElem.m_bSetJob[ i ] = s.GetNumber();
; 725  : #endif //__LEGEND
; 726  : 
; 727  : 			pInfo->m_CtrlElem.m_dwSetEndu = s.GetNumber();  

  004c4	6a 00		 push	 0
  004c6	8b ce		 mov	 ecx, esi
  004c8	e8 00 00 00 00	 call	 ?GetNumber@CScanner@@QAEHH@Z ; CScanner::GetNumber

; 728  : 			pInfo->m_CtrlElem.m_dwMinItemNum = s.GetNumber();  

  004cd	6a 00		 push	 0
  004cf	8b ce		 mov	 ecx, esi
  004d1	89 84 24 28 01
	00 00		 mov	 DWORD PTR _ri$[esp+1920], eax
  004d8	e8 00 00 00 00	 call	 ?GetNumber@CScanner@@QAEHH@Z ; CScanner::GetNumber

; 729  : 			pInfo->m_CtrlElem.m_dwMaxiItemNum = s.GetNumber();  

  004dd	6a 00		 push	 0
  004df	8b ce		 mov	 ecx, esi
  004e1	89 84 24 2c 01
	00 00		 mov	 DWORD PTR _ri$[esp+1924], eax
  004e8	e8 00 00 00 00	 call	 ?GetNumber@CScanner@@QAEHH@Z ; CScanner::GetNumber
  004ed	89 84 24 2c 01
	00 00		 mov	 DWORD PTR _ri$[esp+1924], eax
  004f4	8d bc 24 30 01
	00 00		 lea	 edi, DWORD PTR _ri$[esp+1928]
  004fb	bd 04 00 00 00	 mov	 ebp, 4
$L258674:

; 730  : 			for( i = 0; i < MAX_CTRLDROPITEM; i++ )
; 731  : 				pInfo->m_CtrlElem.m_dwInsideItemKind[ i ] = s.GetNumber();  

  00500	6a 00		 push	 0
  00502	8b ce		 mov	 ecx, esi
  00504	e8 00 00 00 00	 call	 ?GetNumber@CScanner@@QAEHH@Z ; CScanner::GetNumber
  00509	89 07		 mov	 DWORD PTR [edi], eax
  0050b	83 c7 04	 add	 edi, 4
  0050e	4d		 dec	 ebp
  0050f	75 ef		 jne	 SHORT $L258674

; 732  : 			for( i = 0; i < MAX_CTRLDROPITEM; i++ )

  00511	8d bc 24 40 01
	00 00		 lea	 edi, DWORD PTR _ri$[esp+1944]
  00518	bd 04 00 00 00	 mov	 ebp, 4
  0051d	8d 49 00	 npad	 3
$L258677:

; 733  : 				pInfo->m_CtrlElem.m_dwInsideItemPer[ i ] = s.GetNumber(); 

  00520	6a 00		 push	 0
  00522	8b ce		 mov	 ecx, esi
  00524	e8 00 00 00 00	 call	 ?GetNumber@CScanner@@QAEHH@Z ; CScanner::GetNumber
  00529	89 07		 mov	 DWORD PTR [edi], eax
  0052b	83 c7 04	 add	 edi, 4
  0052e	4d		 dec	 ebp
  0052f	75 ef		 jne	 SHORT $L258677

; 734  : 			for( i = 0; i < MAX_CTRLDROPMOB; i++ )

  00531	8d bc 24 50 01
	00 00		 lea	 edi, DWORD PTR _ri$[esp+1960]
  00538	bd 03 00 00 00	 mov	 ebp, 3
  0053d	8d 49 00	 npad	 3
$L258680:

; 735  : 				pInfo->m_CtrlElem.m_dwMonResKind[ i ] = s.GetNumber(); 

  00540	6a 00		 push	 0
  00542	8b ce		 mov	 ecx, esi
  00544	e8 00 00 00 00	 call	 ?GetNumber@CScanner@@QAEHH@Z ; CScanner::GetNumber
  00549	89 07		 mov	 DWORD PTR [edi], eax
  0054b	83 c7 04	 add	 edi, 4
  0054e	4d		 dec	 ebp
  0054f	75 ef		 jne	 SHORT $L258680

; 736  : 			for( i = 0; i < MAX_CTRLDROPMOB; i++ )

  00551	8d bc 24 5c 01
	00 00		 lea	 edi, DWORD PTR _ri$[esp+1972]
  00558	bd 03 00 00 00	 mov	 ebp, 3
  0055d	8d 49 00	 npad	 3
$L258683:

; 737  : 				pInfo->m_CtrlElem.m_dwMonResNum[ i ] = s.GetNumber(); 

  00560	6a 00		 push	 0
  00562	8b ce		 mov	 ecx, esi
  00564	e8 00 00 00 00	 call	 ?GetNumber@CScanner@@QAEHH@Z ; CScanner::GetNumber
  00569	89 07		 mov	 DWORD PTR [edi], eax
  0056b	83 c7 04	 add	 edi, 4
  0056e	4d		 dec	 ebp
  0056f	75 ef		 jne	 SHORT $L258683

; 738  : 			for( i = 0; i < MAX_CTRLDROPMOB; i++ )

  00571	8d bc 24 68 01
	00 00		 lea	 edi, DWORD PTR _ri$[esp+1984]
  00578	bd 03 00 00 00	 mov	 ebp, 3
  0057d	8d 49 00	 npad	 3
$L258686:

; 739  : 				pInfo->m_CtrlElem.m_dwMonActAttack[ i ] = s.GetNumber();  

  00580	6a 00		 push	 0
  00582	8b ce		 mov	 ecx, esi
  00584	e8 00 00 00 00	 call	 ?GetNumber@CScanner@@QAEHH@Z ; CScanner::GetNumber
  00589	89 07		 mov	 DWORD PTR [edi], eax
  0058b	83 c7 04	 add	 edi, 4
  0058e	4d		 dec	 ebp
  0058f	75 ef		 jne	 SHORT $L258686

; 740  : 			pInfo->m_CtrlElem.m_dwTrapOperType = s.GetNumber();  

  00591	6a 00		 push	 0
  00593	8b ce		 mov	 ecx, esi
  00595	e8 00 00 00 00	 call	 ?GetNumber@CScanner@@QAEHH@Z ; CScanner::GetNumber

; 741  : 			pInfo->m_CtrlElem.m_dwTrapRandomPer = s.GetNumber();  

  0059a	6a 00		 push	 0
  0059c	8b ce		 mov	 ecx, esi
  0059e	89 84 24 78 01
	00 00		 mov	 DWORD PTR _ri$[esp+2000], eax
  005a5	e8 00 00 00 00	 call	 ?GetNumber@CScanner@@QAEHH@Z ; CScanner::GetNumber

; 742  : 			pInfo->m_CtrlElem.m_dwTrapDelay = s.GetNumber();  

  005aa	6a 00		 push	 0
  005ac	8b ce		 mov	 ecx, esi
  005ae	89 84 24 7c 01
	00 00		 mov	 DWORD PTR _ri$[esp+2004], eax
  005b5	e8 00 00 00 00	 call	 ?GetNumber@CScanner@@QAEHH@Z ; CScanner::GetNumber
  005ba	89 84 24 7c 01
	00 00		 mov	 DWORD PTR _ri$[esp+2004], eax
  005c1	8d bc 24 80 01
	00 00		 lea	 edi, DWORD PTR _ri$[esp+2008]
  005c8	bd 03 00 00 00	 mov	 ebp, 3
  005cd	8d 49 00	 npad	 3
$L258689:

; 743  : 			for( i = 0; i < MAX_TRAP; i++ )
; 744  : 				pInfo->m_CtrlElem.m_dwTrapKind[ i ] = s.GetNumber();  

  005d0	6a 00		 push	 0
  005d2	8b ce		 mov	 ecx, esi
  005d4	e8 00 00 00 00	 call	 ?GetNumber@CScanner@@QAEHH@Z ; CScanner::GetNumber
  005d9	89 07		 mov	 DWORD PTR [edi], eax
  005db	83 c7 04	 add	 edi, 4
  005de	4d		 dec	 ebp
  005df	75 ef		 jne	 SHORT $L258689

; 745  : 			for( i = 0; i < MAX_TRAP; i++ )

  005e1	8d bc 24 8c 01
	00 00		 lea	 edi, DWORD PTR _ri$[esp+2020]
  005e8	bd 03 00 00 00	 mov	 ebp, 3
  005ed	8d 49 00	 npad	 3
$L258692:

; 746  : 				pInfo->m_CtrlElem.m_dwTrapLevel[ i ] = s.GetNumber(); 

  005f0	6a 00		 push	 0
  005f2	8b ce		 mov	 ecx, esi
  005f4	e8 00 00 00 00	 call	 ?GetNumber@CScanner@@QAEHH@Z ; CScanner::GetNumber
  005f9	89 07		 mov	 DWORD PTR [edi], eax
  005fb	83 c7 04	 add	 edi, 4
  005fe	4d		 dec	 ebp
  005ff	75 ef		 jne	 SHORT $L258692

; 747  : 			
; 748  : 			if( nContrl == 2 )

  00601	83 7c 24 10 02	 cmp	 DWORD PTR _nContrl$258662[esp+1672], 2
  00606	75 40		 jne	 SHORT $L265605

; 749  : 			{
; 750  : 				pInfo->m_CtrlElem.m_dwTeleWorldId = s.GetNumber();  

  00608	6a 00		 push	 0
  0060a	8b ce		 mov	 ecx, esi
  0060c	e8 00 00 00 00	 call	 ?GetNumber@CScanner@@QAEHH@Z ; CScanner::GetNumber

; 751  : 				pInfo->m_CtrlElem.m_dwTeleX = s.GetNumber();  

  00611	6a 00		 push	 0
  00613	8b ce		 mov	 ecx, esi
  00615	89 84 24 30 02
	00 00		 mov	 DWORD PTR _ri$[esp+2184], eax
  0061c	e8 00 00 00 00	 call	 ?GetNumber@CScanner@@QAEHH@Z ; CScanner::GetNumber

; 752  : 				pInfo->m_CtrlElem.m_dwTeleY = s.GetNumber();  

  00621	6a 00		 push	 0
  00623	8b ce		 mov	 ecx, esi
  00625	89 84 24 34 02
	00 00		 mov	 DWORD PTR _ri$[esp+2188], eax
  0062c	e8 00 00 00 00	 call	 ?GetNumber@CScanner@@QAEHH@Z ; CScanner::GetNumber

; 753  : 				pInfo->m_CtrlElem.m_dwTeleZ = s.GetNumber();  

  00631	6a 00		 push	 0
  00633	8b ce		 mov	 ecx, esi
  00635	89 84 24 38 02
	00 00		 mov	 DWORD PTR _ri$[esp+2192], eax
  0063c	e8 00 00 00 00	 call	 ?GetNumber@CScanner@@QAEHH@Z ; CScanner::GetNumber
  00641	89 84 24 38 02
	00 00		 mov	 DWORD PTR _ri$[esp+2192], eax
$L265605:

; 754  : 			}
; 755  : 		}
; 756  : 	}
; 757  : 
; 758  : #ifdef __WORLDSERVER
; 759  : #ifdef __RES0807
; 760  : 	if( FALSE == ri.GenResPoint( this ) )

  00648	8b 74 24 2c	 mov	 esi, DWORD PTR $T265575[esp+1672]
  0064c	56		 push	 esi
  0064d	8d 4c 24 34	 lea	 ecx, DWORD PTR _ri$[esp+1676]
  00651	e8 00 00 00 00	 call	 ?GenResPoint@CRespawnInfo@@QAEHPAVCWorld@@@Z ; CRespawnInfo::GenResPoint
  00656	85 c0		 test	 eax, eax
  00658	0f 85 79 00 00
	00		 jne	 $L258696

; 761  : 	{
; 762  : 		char lpOutputString[256]	=	{ 0,};
; 763  : 		sprintf( lpOutputString, "type=%d, index=%d, left=%d, top=%d, right=%d, bottom=%d, num=%d",
; 764  : 			ri.m_dwType, ri.m_dwIndex, ri.m_rect.left, ri.m_rect.top, ri.m_rect.right, ri.m_rect.bottom, ri.m_nMaxcb );

  0065e	8b 54 24 50	 mov	 edx, DWORD PTR _ri$[esp+1704]
  00662	88 84 24 78 05
	00 00		 mov	 BYTE PTR _lpOutputString$258697[esp+1672], al
  00669	b9 3f 00 00 00	 mov	 ecx, 63			; 0000003fH
  0066e	8d bc 24 79 05
	00 00		 lea	 edi, DWORD PTR _lpOutputString$258697[esp+1673]
  00675	f3 ab		 rep stosd
  00677	8b 8c 24 3c 02
	00 00		 mov	 ecx, DWORD PTR _ri$[esp+2196]
  0067e	51		 push	 ecx
  0067f	8b 4c 24 4c	 mov	 ecx, DWORD PTR _ri$[esp+1700]
  00683	52		 push	 edx
  00684	8b 54 24 4c	 mov	 edx, DWORD PTR _ri$[esp+1700]
  00688	66 ab		 stosw
  0068a	aa		 stosb
  0068b	8b 44 24 54	 mov	 eax, DWORD PTR _ri$[esp+1708]
  0068f	50		 push	 eax
  00690	8b 44 24 44	 mov	 eax, DWORD PTR _ri$[esp+1692]
  00694	51		 push	 ecx
  00695	8b 4c 24 44	 mov	 ecx, DWORD PTR _ri$[esp+1692]
  00699	52		 push	 edx
  0069a	50		 push	 eax
  0069b	51		 push	 ecx
  0069c	8d 94 24 94 05
	00 00		 lea	 edx, DWORD PTR _lpOutputString$258697[esp+1700]
  006a3	68 00 00 00 00	 push	 OFFSET FLAT:??_C@_0EA@DKDHDJBA@type?$DN?$CFd?0?5index?$DN?$CFd?0?5left?$DN?$CFd?0?5top?$DN@
  006a8	52		 push	 edx
  006a9	e8 00 00 00 00	 call	 _sprintf
  006ae	83 c4 24	 add	 esp, 36			; 00000024H

; 765  : 		OutputDebugString( lpOutputString );

  006b1	8d 84 24 78 05
	00 00		 lea	 eax, DWORD PTR _lpOutputString$258697[esp+1672]
  006b8	50		 push	 eax
  006b9	ff 15 00 00 00
	00		 call	 DWORD PTR __imp__OutputDebugStringA@4

; 766  : 		return FALSE;

  006bf	8d 4c 24 30	 lea	 ecx, DWORD PTR _ri$[esp+1672]
  006c3	c7 84 24 84 06
	00 00 ff ff ff
	ff		 mov	 DWORD PTR __$EHRec$[esp+1680], -1
  006ce	e8 00 00 00 00	 call	 ??1CRespawnInfo@@UAE@XZ	; CRespawnInfo::~CRespawnInfo
  006d3	33 c0		 xor	 eax, eax
  006d5	eb 2b		 jmp	 SHORT $L258610
$L258696:

; 767  : 	}
; 768  : #endif	// __RES0807
; 769  : 	m_respawner.Add( ri );

  006d7	6a 00		 push	 0
  006d9	8d 4c 24 34	 lea	 ecx, DWORD PTR _ri$[esp+1676]
  006dd	51		 push	 ecx
  006de	8d 8e c0 30 08
	00		 lea	 ecx, DWORD PTR [esi+536768]
  006e4	e8 00 00 00 00	 call	 ?Add@CLayerdRespawner@@QAEHAAVCRespawnInfo@@H@Z ; CLayerdRespawner::Add
$L265609:

; 770  : #endif	// __WORLDSERVER
; 771  : 
; 772  : 	return TRUE;

  006e9	8d 4c 24 30	 lea	 ecx, DWORD PTR _ri$[esp+1672]
  006ed	c7 84 24 84 06
	00 00 ff ff ff
	ff		 mov	 DWORD PTR __$EHRec$[esp+1680], -1
  006f8	e8 00 00 00 00	 call	 ??1CRespawnInfo@@UAE@XZ	; CRespawnInfo::~CRespawnInfo
  006fd	b8 01 00 00 00	 mov	 eax, 1
$L258610:

; 773  : }

  00702	8b 8c 24 7c 06
	00 00		 mov	 ecx, DWORD PTR __$EHRec$[esp+1672]
  00709	5f		 pop	 edi
  0070a	5e		 pop	 esi
  0070b	5d		 pop	 ebp
  0070c	64 89 0d 00 00
	00 00		 mov	 DWORD PTR fs:__except_list, ecx
  00713	8b 8c 24 6c 06
	00 00		 mov	 ecx, DWORD PTR __$ArrayPad$[esp+1660]
  0071a	5b		 pop	 ebx
  0071b	33 cc		 xor	 ecx, esp
  0071d	e8 00 00 00 00	 call	 @__security_check_cookie@4
  00722	81 c4 78 06 00
	00		 add	 esp, 1656		; 00000678H
  00728	c2 04 00	 ret	 4
  0072b	90		 npad	 1
$L265611:
  0072c	00 00 00 00	 DD	 $L258645
  00730	00 00 00 00	 DD	 $L258647
$L265595:
  00734	00		 DB	 0
  00735	00		 DB	 0
  00736	00		 DB	 0
  00737	01		 DB	 1
  00738	00		 DB	 0
  00739	00		 DB	 0
  0073a	00		 DB	 0
  0073b	01		 DB	 1
  0073c	01		 DB	 1
  0073d	01		 DB	 1
  0073e	01		 DB	 1
  0073f	01		 DB	 1
  00740	01		 DB	 1
  00741	01		 DB	 1
  00742	01		 DB	 1
  00743	01		 DB	 1
  00744	01		 DB	 1
  00745	01		 DB	 1
  00746	01		 DB	 1
  00747	01		 DB	 1
  00748	01		 DB	 1
  00749	01		 DB	 1
  0074a	01		 DB	 1
  0074b	01		 DB	 1
  0074c	01		 DB	 1
  0074d	01		 DB	 1
  0074e	01		 DB	 1
  0074f	01		 DB	 1
  00750	01		 DB	 1
  00751	01		 DB	 1
  00752	01		 DB	 1
  00753	01		 DB	 1
  00754	01		 DB	 1
  00755	01		 DB	 1
  00756	01		 DB	 1
  00757	01		 DB	 1
  00758	01		 DB	 1
  00759	01		 DB	 1
  0075a	01		 DB	 1
  0075b	01		 DB	 1
  0075c	01		 DB	 1
  0075d	01		 DB	 1
  0075e	01		 DB	 1
  0075f	01		 DB	 1
  00760	01		 DB	 1
  00761	01		 DB	 1
  00762	01		 DB	 1
  00763	01		 DB	 1
  00764	01		 DB	 1
  00765	01		 DB	 1
  00766	01		 DB	 1
  00767	01		 DB	 1
  00768	01		 DB	 1
  00769	01		 DB	 1
  0076a	01		 DB	 1
  0076b	01		 DB	 1
  0076c	01		 DB	 1
  0076d	01		 DB	 1
  0076e	01		 DB	 1
  0076f	01		 DB	 1
  00770	01		 DB	 1
  00771	01		 DB	 1
  00772	01		 DB	 1
  00773	01		 DB	 1
  00774	01		 DB	 1
  00775	01		 DB	 1
  00776	01		 DB	 1
  00777	01		 DB	 1
  00778	01		 DB	 1
  00779	01		 DB	 1
  0077a	01		 DB	 1
  0077b	01		 DB	 1
  0077c	01		 DB	 1
  0077d	01		 DB	 1
  0077e	01		 DB	 1
  0077f	01		 DB	 1
  00780	00		 DB	 0
  00781	00		 DB	 0
  00782	00		 DB	 0
_TEXT	ENDS
;	COMDAT text$x
text$x	SEGMENT
$L265414:
  00000	8d 8d a8 f9 ff
	ff		 lea	 ecx, DWORD PTR _ri$[ebp]
  00006	e9 00 00 00 00	 jmp	 ??1CRespawnInfo@@UAE@XZ	; CRespawnInfo::~CRespawnInfo
__ehhandler$?ReadRespawn@CWorld@@QAEHAAVCScript@@@Z:
  0000b	b8 00 00 00 00	 mov	 eax, OFFSET FLAT:$T265578
  00010	e9 00 00 00 00	 jmp	 ___CxxFrameHandler
text$x	ENDS
?ReadRespawn@CWorld@@QAEHAAVCScript@@@Z ENDP		; CWorld::ReadRespawn
PUBLIC	?HasNobody@CWorld@@QAEHH@Z			; CWorld::HasNobody
; Function compile flags: /Ogty
;	COMDAT ?HasNobody@CWorld@@QAEHH@Z
_TEXT	SEGMENT
_nLayer$ = 8						; size = 4
?HasNobody@CWorld@@QAEHH@Z PROC NEAR			; CWorld::HasNobody, COMDAT
; _this$ = ecx

; 1220 : {

  00000	56		 push	 esi
  00001	57		 push	 edi

; 1221 : 	if( !HasNobody_Process( nLayer ) )

  00002	8b 7c 24 0c	 mov	 edi, DWORD PTR _nLayer$[esp+4]
  00006	57		 push	 edi
  00007	8b f1		 mov	 esi, ecx
  00009	e8 00 00 00 00	 call	 ?HasNobody_Process@CWorld@@AAEHH@Z ; CWorld::HasNobody_Process
  0000e	85 c0		 test	 eax, eax
  00010	75 07		 jne	 SHORT $L258874
$L265628:
  00012	5f		 pop	 edi

; 1222 : 		return FALSE;

  00013	33 c0		 xor	 eax, eax
  00015	5e		 pop	 esi

; 1226 : 		return FALSE;
; 1227 : 	return TRUE;
; 1228 : }

  00016	c2 04 00	 ret	 4
$L258874:

; 1223 : 	if( !HasNoObj_Add( nLayer ) )

  00019	57		 push	 edi
  0001a	8b ce		 mov	 ecx, esi
  0001c	e8 00 00 00 00	 call	 ?HasNoObj_Add@CWorld@@AAEHH@Z ; CWorld::HasNoObj_Add
  00021	85 c0		 test	 eax, eax

; 1224 : 		return FALSE;

  00023	74 ed		 je	 SHORT $L265628

; 1225 : 	if( !HasNobody_Replace( nLayer ) )

  00025	8b 36		 mov	 esi, DWORD PTR [esi]
  00027	57		 push	 edi
  00028	56		 push	 esi
  00029	b9 00 00 00 00	 mov	 ecx, OFFSET FLAT:?g_WorldMng@@3VCWorldMng@@A
  0002e	e8 00 00 00 00	 call	 ?HasNobody_Replace@CWorldMng@@QAEHKH@Z ; CWorldMng::HasNobody_Replace
  00033	f7 d8		 neg	 eax
  00035	1b c0		 sbb	 eax, eax
  00037	5f		 pop	 edi
  00038	f7 d8		 neg	 eax
  0003a	5e		 pop	 esi

; 1226 : 		return FALSE;
; 1227 : 	return TRUE;
; 1228 : }

  0003b	c2 04 00	 ret	 4
?HasNobody@CWorld@@QAEHH@Z ENDP				; CWorld::HasNobody
_TEXT	ENDS
PUBLIC	??A?$vector@KV?$allocator@K@std@@@std@@QAEAAKI@Z ; std::vector<unsigned long,std::allocator<unsigned long> >::operator[]
; Function compile flags: /Ogty
; File c:\program files\microsoft visual studio .net 2003\vc7\include\vector
;	COMDAT ??A?$vector@KV?$allocator@K@std@@@std@@QAEAAKI@Z
_TEXT	SEGMENT
__Pos$ = 8						; size = 4
??A?$vector@KV?$allocator@K@std@@@std@@QAEAAKI@Z PROC NEAR ; std::vector<unsigned long,std::allocator<unsigned long> >::operator[], COMDAT
; _this$ = ecx

; 555  : 		return (*(begin() + _Pos));

  00000	8b 41 04	 mov	 eax, DWORD PTR [ecx+4]
  00003	8b 4c 24 04	 mov	 ecx, DWORD PTR __Pos$[esp-4]
  00007	8d 04 88	 lea	 eax, DWORD PTR [eax+ecx*4]

; 556  : 		}

  0000a	c2 04 00	 ret	 4
??A?$vector@KV?$allocator@K@std@@@std@@QAEAAKI@Z ENDP	; std::vector<unsigned long,std::allocator<unsigned long> >::operator[]
_TEXT	ENDS
PUBLIC	?_Ufill@?$vector@PAVCObj@@V?$allocator@PAVCObj@@@std@@@std@@IAEPAPAVCObj@@PAPAV3@IABQAV3@@Z ; std::vector<CObj *,std::allocator<CObj *> >::_Ufill
; Function compile flags: /Ogty
;	COMDAT ?_Ufill@?$vector@PAVCObj@@V?$allocator@PAVCObj@@@std@@@std@@IAEPAPAVCObj@@PAPAV3@IABQAV3@@Z
_TEXT	SEGMENT
__Ptr$ = 8						; size = 4
__Count$ = 12						; size = 4
__Val$ = 16						; size = 4
?_Ufill@?$vector@PAVCObj@@V?$allocator@PAVCObj@@@std@@@std@@IAEPAPAVCObj@@PAPAV3@IABQAV3@@Z PROC NEAR ; std::vector<CObj *,std::allocator<CObj *> >::_Ufill, COMDAT
; _this$ = ecx

; 877  : 		{	// copy initializing _Count * _Val, using allocator

  00000	56		 push	 esi

; 878  : 		_Uninitialized_fill_n(_Ptr, _Count, _Val, this->_Alval);

  00001	8b 74 24 0c	 mov	 esi, DWORD PTR __Count$[esp]
  00005	85 f6		 test	 esi, esi
  00007	57		 push	 edi
  00008	8b 7c 24 0c	 mov	 edi, DWORD PTR __Ptr$[esp+4]
  0000c	8b c7		 mov	 eax, edi
  0000e	76 12		 jbe	 SHORT $L265707
  00010	8b 54 24 14	 mov	 edx, DWORD PTR __Val$[esp+4]
  00014	8b ce		 mov	 ecx, esi
  00016	53		 push	 ebx
$L265701:
  00017	8b 1a		 mov	 ebx, DWORD PTR [edx]
  00019	89 18		 mov	 DWORD PTR [eax], ebx
  0001b	83 c0 04	 add	 eax, 4
  0001e	49		 dec	 ecx
  0001f	75 f6		 jne	 SHORT $L265701
  00021	5b		 pop	 ebx
$L265707:

; 879  : 		return (_Ptr + _Count);

  00022	8d 04 b7	 lea	 eax, DWORD PTR [edi+esi*4]
  00025	5f		 pop	 edi
  00026	5e		 pop	 esi

; 880  : 		}

  00027	c2 0c 00	 ret	 12			; 0000000cH
?_Ufill@?$vector@PAVCObj@@V?$allocator@PAVCObj@@@std@@@std@@IAEPAPAVCObj@@PAPAV3@IABQAV3@@Z ENDP ; std::vector<CObj *,std::allocator<CObj *> >::_Ufill
_TEXT	ENDS
PUBLIC	?GetBuffer@?$CSimpleStringT@D$0A@@ATL@@QAEPADH@Z ; ATL::CSimpleStringT<char,0>::GetBuffer
; Function compile flags: /Ogty
; File c:\program files\microsoft visual studio .net 2003\vc7\atlmfc\include\atlsimpstr.h
;	COMDAT ?GetBuffer@?$CSimpleStringT@D$0A@@ATL@@QAEPADH@Z
_TEXT	SEGMENT
_nMinBufferLength$ = 8					; size = 4
?GetBuffer@?$CSimpleStringT@D$0A@@ATL@@QAEPADH@Z PROC NEAR ; ATL::CSimpleStringT<char,0>::GetBuffer, COMDAT
; _this$ = ecx

; 489  : 	{

  00000	56		 push	 esi
  00001	8b f1		 mov	 esi, ecx

; 490  : 		return( PrepareWrite( nMinBufferLength ) );

  00003	8b 06		 mov	 eax, DWORD PTR [esi]
  00005	8b 50 fc	 mov	 edx, DWORD PTR [eax-4]
  00008	83 e8 10	 sub	 eax, 16			; 00000010H
  0000b	b9 01 00 00 00	 mov	 ecx, 1
  00010	2b ca		 sub	 ecx, edx
  00012	8b 50 08	 mov	 edx, DWORD PTR [eax+8]
  00015	8b 44 24 08	 mov	 eax, DWORD PTR _nMinBufferLength$[esp]
  00019	2b d0		 sub	 edx, eax
  0001b	0b ca		 or	 ecx, edx
  0001d	7d 08		 jge	 SHORT $L265724
  0001f	50		 push	 eax
  00020	8b ce		 mov	 ecx, esi
  00022	e8 00 00 00 00	 call	 ?PrepareWrite2@?$CSimpleStringT@D$0A@@ATL@@AAEXH@Z ; ATL::CSimpleStringT<char,0>::PrepareWrite2
$L265724:
  00027	8b 06		 mov	 eax, DWORD PTR [esi]
  00029	5e		 pop	 esi

; 491  : 	}

  0002a	c2 04 00	 ret	 4
?GetBuffer@?$CSimpleStringT@D$0A@@ATL@@QAEPADH@Z ENDP	; ATL::CSimpleStringT<char,0>::GetBuffer
_TEXT	ENDS
PUBLIC	??1?$basic_string@DU?$char_traits@D@std@@V?$allocator@D@2@@std@@QAE@XZ ; std::basic_string<char,std::char_traits<char>,std::allocator<char> >::~basic_string<char,std::char_traits<char>,std::allocator<char> >
; Function compile flags: /Ogty
; File c:\program files\microsoft visual studio .net 2003\vc7\include\xstring
;	COMDAT ??1?$basic_string@DU?$char_traits@D@std@@V?$allocator@D@2@@std@@QAE@XZ
_TEXT	SEGMENT
??1?$basic_string@DU?$char_traits@D@std@@V?$allocator@D@2@@std@@QAE@XZ PROC NEAR ; std::basic_string<char,std::char_traits<char>,std::allocator<char> >::~basic_string<char,std::char_traits<char>,std::allocator<char> >, COMDAT
; _this$ = ecx

; 456  : 		{	// destroy the string

  00000	56		 push	 esi
  00001	8b f1		 mov	 esi, ecx

; 457  : 		_Tidy(true);

  00003	83 7e 18 10	 cmp	 DWORD PTR [esi+24], 16	; 00000010H
  00007	72 0c		 jb	 SHORT $L265761
  00009	8b 46 04	 mov	 eax, DWORD PTR [esi+4]
  0000c	50		 push	 eax
  0000d	e8 00 00 00 00	 call	 ??3@YAXPAX@Z		; operator delete
  00012	83 c4 04	 add	 esp, 4
$L265761:
  00015	33 c0		 xor	 eax, eax
  00017	c7 46 18 0f 00
	00 00		 mov	 DWORD PTR [esi+24], 15	; 0000000fH
  0001e	89 46 14	 mov	 DWORD PTR [esi+20], eax
  00021	88 46 04	 mov	 BYTE PTR [esi+4], al
  00024	5e		 pop	 esi

; 458  : 		}

  00025	c3		 ret	 0
??1?$basic_string@DU?$char_traits@D@std@@V?$allocator@D@2@@std@@QAE@XZ ENDP ; std::basic_string<char,std::char_traits<char>,std::allocator<char> >::~basic_string<char,std::char_traits<char>,std::allocator<char> >
_TEXT	ENDS
PUBLIC	?LoadStringA@?$CStringT@DV?$StrTraitMFC@DV?$ChTraitsCRT@D@ATL@@@@@ATL@@QAEHPAUHINSTANCE__@@I@Z ; ATL::CStringT<char,StrTraitMFC<char,ATL::ChTraitsCRT<char> > >::LoadStringA
; Function compile flags: /Ogty
; File c:\program files\microsoft visual studio .net 2003\vc7\atlmfc\include\cstringt.h
;	COMDAT ?LoadStringA@?$CStringT@DV?$StrTraitMFC@DV?$ChTraitsCRT@D@ATL@@@@@ATL@@QAEHPAUHINSTANCE__@@I@Z
_TEXT	SEGMENT
_hInstance$ = 8						; size = 4
_nID$ = 12						; size = 4
?LoadStringA@?$CStringT@DV?$StrTraitMFC@DV?$ChTraitsCRT@D@ATL@@@@@ATL@@QAEHPAUHINSTANCE__@@I@Z PROC NEAR ; ATL::CStringT<char,StrTraitMFC<char,ATL::ChTraitsCRT<char> > >::LoadStringA, COMDAT
; _this$ = ecx

; 1981 : 	{

  00000	53		 push	 ebx
  00001	56		 push	 esi

; 1982 : 		const ATLSTRINGRESOURCEIMAGE* pImage = AtlGetStringResourceImage( hInstance, nID );

  00002	8b 74 24 10	 mov	 esi, DWORD PTR _nID$[esp+4]
  00006	8b c6		 mov	 eax, esi
  00008	c1 e8 04	 shr	 eax, 4
  0000b	57		 push	 edi
  0000c	8b 7c 24 10	 mov	 edi, DWORD PTR _hInstance$[esp+8]
  00010	40		 inc	 eax
  00011	8b d9		 mov	 ebx, ecx
  00013	0f b7 c8	 movzx	 ecx, ax
  00016	6a 06		 push	 6
  00018	51		 push	 ecx
  00019	57		 push	 edi
  0001a	ff 15 00 00 00
	00		 call	 DWORD PTR __imp__FindResourceA@12
  00020	85 c0		 test	 eax, eax
  00022	74 11		 je	 SHORT $L265857
  00024	56		 push	 esi
  00025	50		 push	 eax
  00026	57		 push	 edi
  00027	e8 00 00 00 00	 call	 ?_AtlGetStringResourceImage@ATL@@YAPBUATLSTRINGRESOURCEIMAGE@1@PAUHINSTANCE__@@PAUHRSRC__@@I@Z ; ATL::_AtlGetStringResourceImage
  0002c	8b f8		 mov	 edi, eax
  0002e	83 c4 0c	 add	 esp, 12			; 0000000cH

; 1983 : 		if( pImage == NULL )

  00031	85 ff		 test	 edi, edi
  00033	75 08		 jne	 SHORT $L219928
$L265857:
  00035	5f		 pop	 edi
  00036	5e		 pop	 esi

; 1984 : 		{
; 1985 : 			return( FALSE );

  00037	33 c0		 xor	 eax, eax
  00039	5b		 pop	 ebx

; 1994 : 	}

  0003a	c2 08 00	 ret	 8
$L219928:

; 1986 : 		}
; 1987 : 
; 1988 : 		int nLength = StringTraits::GetBaseTypeLength( pImage->achString, pImage->nLength );

  0003d	0f b7 37	 movzx	 esi, WORD PTR [edi]
  00040	55		 push	 ebp
  00041	ff 15 00 00 00
	00		 call	 DWORD PTR ?g_pfnGetThreadACP@ATL@@3P6GIXZA ; ATL::g_pfnGetThreadACP
  00047	6a 00		 push	 0
  00049	6a 00		 push	 0
  0004b	6a 00		 push	 0
  0004d	6a 00		 push	 0
  0004f	56		 push	 esi
  00050	8d 6f 02	 lea	 ebp, DWORD PTR [edi+2]
  00053	55		 push	 ebp
  00054	6a 00		 push	 0
  00056	50		 push	 eax
  00057	ff 15 00 00 00
	00		 call	 DWORD PTR __imp__WideCharToMultiByte@32
  0005d	8b f0		 mov	 esi, eax

; 1989 : 		PXSTR pszBuffer = GetBuffer( nLength );

  0005f	8b 03		 mov	 eax, DWORD PTR [ebx]
  00061	8b 48 fc	 mov	 ecx, DWORD PTR [eax-4]
  00064	83 e8 10	 sub	 eax, 16			; 00000010H
  00067	8b 40 08	 mov	 eax, DWORD PTR [eax+8]
  0006a	ba 01 00 00 00	 mov	 edx, 1
  0006f	2b d1		 sub	 edx, ecx
  00071	2b c6		 sub	 eax, esi
  00073	0b d0		 or	 edx, eax
  00075	7d 08		 jge	 SHORT $L265819
  00077	56		 push	 esi
  00078	8b cb		 mov	 ecx, ebx
  0007a	e8 00 00 00 00	 call	 ?PrepareWrite2@?$CSimpleStringT@D$0A@@ATL@@AAEXH@Z ; ATL::CSimpleStringT<char,0>::PrepareWrite2
$L265819:
  0007f	8b 03		 mov	 eax, DWORD PTR [ebx]

; 1990 : 		StringTraits::ConvertToBaseType( pszBuffer, nLength, pImage->achString, pImage->nLength );

  00081	0f b7 0f	 movzx	 ecx, WORD PTR [edi]
  00084	6a 00		 push	 0
  00086	6a 00		 push	 0
  00088	56		 push	 esi
  00089	50		 push	 eax
  0008a	51		 push	 ecx
  0008b	55		 push	 ebp
  0008c	6a 00		 push	 0
  0008e	ff 15 00 00 00
	00		 call	 DWORD PTR ?g_pfnGetThreadACP@ATL@@3P6GIXZA ; ATL::g_pfnGetThreadACP
  00094	50		 push	 eax
  00095	ff 15 00 00 00
	00		 call	 DWORD PTR __imp__WideCharToMultiByte@32

; 1991 : 		ReleaseBufferSetLength( nLength );

  0009b	85 f6		 test	 esi, esi
  0009d	5d		 pop	 ebp
  0009e	7c 1b		 jl	 SHORT $L265854
  000a0	8b 03		 mov	 eax, DWORD PTR [ebx]
  000a2	3b 70 f8	 cmp	 esi, DWORD PTR [eax-8]
  000a5	7f 14		 jg	 SHORT $L265854
  000a7	89 70 f4	 mov	 DWORD PTR [eax-12], esi
  000aa	8b 0b		 mov	 ecx, DWORD PTR [ebx]
  000ac	5f		 pop	 edi
  000ad	c6 04 0e 00	 mov	 BYTE PTR [esi+ecx], 0
  000b1	5e		 pop	 esi

; 1992 : 
; 1993 : 		return( TRUE );

  000b2	b8 01 00 00 00	 mov	 eax, 1
  000b7	5b		 pop	 ebx

; 1994 : 	}

  000b8	c2 08 00	 ret	 8
$L265854:
  000bb	68 57 00 07 80	 push	 -2147024809		; 80070057H
  000c0	e8 00 00 00 00	 call	 ?AtlThrow@ATL@@YGXJ@Z	; ATL::AtlThrow
$L265859:
$L265858:
  000c5	cc		 int	 3
?LoadStringA@?$CStringT@DV?$StrTraitMFC@DV?$ChTraitsCRT@D@ATL@@@@@ATL@@QAEHPAUHINSTANCE__@@I@Z ENDP ; ATL::CStringT<char,StrTraitMFC<char,ATL::ChTraitsCRT<char> > >::LoadStringA
_TEXT	ENDS
PUBLIC	?SetString@?$CSimpleStringT@D$0A@@ATL@@QAEXPBDH@Z ; ATL::CSimpleStringT<char,0>::SetString
; Function compile flags: /Ogty
; File c:\program files\microsoft visual studio .net 2003\vc7\atlmfc\include\atlsimpstr.h
;	COMDAT ?SetString@?$CSimpleStringT@D$0A@@ATL@@QAEXPBDH@Z
_TEXT	SEGMENT
_pszSrc$ = 8						; size = 4
_nLength$ = 12						; size = 4
?SetString@?$CSimpleStringT@D$0A@@ATL@@QAEXPBDH@Z PROC NEAR ; ATL::CSimpleStringT<char,0>::SetString, COMDAT
; _this$ = ecx

; 583  : 	{

  00000	53		 push	 ebx

; 584  : 		if( nLength == 0 )

  00001	8b 5c 24 0c	 mov	 ebx, DWORD PTR _nLength$[esp]
  00005	85 db		 test	 ebx, ebx
  00007	55		 push	 ebp
  00008	8b e9		 mov	 ebp, ecx
  0000a	75 0a		 jne	 SHORT $L221330

; 585  : 		{
; 586  : 			Empty();

  0000c	e8 00 00 00 00	 call	 ?Empty@?$CSimpleStringT@D$0A@@ATL@@QAEXXZ ; ATL::CSimpleStringT<char,0>::Empty
  00011	5d		 pop	 ebp
  00012	5b		 pop	 ebx

; 614  : 		}
; 615  : 	}

  00013	c2 08 00	 ret	 8
$L221330:

; 587  : 		}
; 588  : 		else
; 589  : 		{
; 590  : 			// It is possible that pszSrc points to a location inside of our 
; 591  : 			// buffer.  GetBuffer() might change m_pszData if (1) the buffer 
; 592  : 			// is shared or (2) the buffer is too small to hold the new 
; 593  : 			// string.  We detect this aliasing, and modify pszSrc to point
; 594  : 			// into the newly allocated buffer instead.
; 595  : 			
; 596  : 			if(pszSrc == NULL)

  00016	8b 54 24 0c	 mov	 edx, DWORD PTR _pszSrc$[esp+4]
  0001a	85 d2		 test	 edx, edx
  0001c	75 0a		 jne	 SHORT $L221332

; 612  : 			}
; 613  : 			ReleaseBufferSetLength( nLength );

$L265931:
  0001e	68 57 00 07 80	 push	 -2147024809		; 80070057H
  00023	e8 00 00 00 00	 call	 ?AtlThrow@ATL@@YGXJ@Z	; ATL::AtlThrow
$L265935:
$L221332:

; 597  : 				AtlThrow(E_INVALIDARG);			
; 598  : 				
; 599  : 			UINT nOldLength = GetLength();

  00028	8b 45 00	 mov	 eax, DWORD PTR [ebp]
  0002b	56		 push	 esi

; 600  : 			UINT_PTR nOffset = pszSrc-GetString();

  0002c	8b f2		 mov	 esi, edx
  0002e	2b f0		 sub	 esi, eax

; 601  : 			// If 0 <= nOffset <= nOldLength, then pszSrc points into our 
; 602  : 			// buffer
; 603  : 
; 604  : 			PXSTR pszBuffer = GetBuffer( nLength );

  00030	b9 01 00 00 00	 mov	 ecx, 1
  00035	2b 48 fc	 sub	 ecx, DWORD PTR [eax-4]
  00038	57		 push	 edi
  00039	8b 78 f4	 mov	 edi, DWORD PTR [eax-12]
  0003c	8b 40 f8	 mov	 eax, DWORD PTR [eax-8]
  0003f	2b c3		 sub	 eax, ebx
  00041	0b c8		 or	 ecx, eax
  00043	7d 0c		 jge	 SHORT $L265899
  00045	53		 push	 ebx
  00046	8b cd		 mov	 ecx, ebp
  00048	e8 00 00 00 00	 call	 ?PrepareWrite2@?$CSimpleStringT@D$0A@@ATL@@AAEXH@Z ; ATL::CSimpleStringT<char,0>::PrepareWrite2
  0004d	8b 54 24 14	 mov	 edx, DWORD PTR _pszSrc$[esp+12]
$L265899:

; 605  : 			if( nOffset <= nOldLength )

  00051	3b f7		 cmp	 esi, edi
  00053	8b 45 00	 mov	 eax, DWORD PTR [ebp]
  00056	77 10		 ja	 SHORT $L221337

; 606  : 			{
; 607  : 				CopyCharsOverlapped( pszBuffer, pszBuffer+nOffset, nLength );

  00058	53		 push	 ebx
  00059	8d 0c 30	 lea	 ecx, DWORD PTR [eax+esi]
  0005c	51		 push	 ecx
  0005d	50		 push	 eax
  0005e	e8 00 00 00 00	 call	 _memmove
  00063	83 c4 0c	 add	 esp, 12			; 0000000cH

; 608  : 			}
; 609  : 			else

  00066	eb 14		 jmp	 SHORT $L265904
$L221337:

; 610  : 			{
; 611  : 				CopyChars( pszBuffer, pszSrc, nLength );

  00068	8b cb		 mov	 ecx, ebx
  0006a	8b f2		 mov	 esi, edx
  0006c	8b d1		 mov	 edx, ecx
  0006e	c1 e9 02	 shr	 ecx, 2
  00071	8b f8		 mov	 edi, eax
  00073	f3 a5		 rep movsd
  00075	8b ca		 mov	 ecx, edx
  00077	83 e1 03	 and	 ecx, 3
  0007a	f3 a4		 rep movsb
$L265904:

; 612  : 			}
; 613  : 			ReleaseBufferSetLength( nLength );

  0007c	85 db		 test	 ebx, ebx
  0007e	5f		 pop	 edi
  0007f	5e		 pop	 esi
  00080	7c 9c		 jl	 SHORT $L265931
  00082	8b 45 00	 mov	 eax, DWORD PTR [ebp]
  00085	3b 58 f8	 cmp	 ebx, DWORD PTR [eax-8]
  00088	7f 94		 jg	 SHORT $L265931
  0008a	89 58 f4	 mov	 DWORD PTR [eax-12], ebx
  0008d	8b 45 00	 mov	 eax, DWORD PTR [ebp]
  00090	5d		 pop	 ebp
  00091	c6 04 03 00	 mov	 BYTE PTR [ebx+eax], 0
  00095	5b		 pop	 ebx

; 614  : 		}
; 615  : 	}

  00096	c2 08 00	 ret	 8
$L265934:
?SetString@?$CSimpleStringT@D$0A@@ATL@@QAEXPBDH@Z ENDP	; ATL::CSimpleStringT<char,0>::SetString
_TEXT	ENDS
PUBLIC	?_Grow@?$basic_string@DU?$char_traits@D@std@@V?$allocator@D@2@@std@@IAE_NI_N@Z ; std::basic_string<char,std::char_traits<char>,std::allocator<char> >::_Grow
EXTRN	?_Xlen@_String_base@std@@QBEXXZ:NEAR		; std::_String_base::_Xlen
; Function compile flags: /Ogty
; File c:\program files\microsoft visual studio .net 2003\vc7\include\xstring
;	COMDAT ?_Grow@?$basic_string@DU?$char_traits@D@std@@V?$allocator@D@2@@std@@IAE_NI_N@Z
_TEXT	SEGMENT
__Newsize$ = 8						; size = 4
__Trim$ = 12						; size = 1
?_Grow@?$basic_string@DU?$char_traits@D@std@@V?$allocator@D@2@@std@@IAE_NI_N@Z PROC NEAR ; std::basic_string<char,std::char_traits<char>,std::allocator<char> >::_Grow, COMDAT
; _this$ = ecx

; 1480 : 		{	// ensure buffer is big enough, trim to size if _Trim is true

  00000	55		 push	 ebp
  00001	56		 push	 esi

; 1481 : 		if (max_size() < _Newsize)

  00002	8b 74 24 0c	 mov	 esi, DWORD PTR __Newsize$[esp+4]
  00006	83 fe fe	 cmp	 esi, -2			; fffffffeH
  00009	8b e9		 mov	 ebp, ecx
  0000b	76 05		 jbe	 SHORT $L221380

; 1482 : 			_String_base::_Xlen();	// result too long

  0000d	e8 00 00 00 00	 call	 ?_Xlen@_String_base@std@@QBEXXZ ; std::_String_base::_Xlen
$L221380:

; 1483 : 		if (_Myres < _Newsize)

  00012	8b 45 18	 mov	 eax, DWORD PTR [ebp+24]
  00015	3b c6		 cmp	 eax, esi
  00017	73 19		 jae	 SHORT $L221381

; 1484 : 			_Copy(_Newsize, _Mysize);	// reallocate to grow

  00019	8b 45 14	 mov	 eax, DWORD PTR [ebp+20]
  0001c	50		 push	 eax
  0001d	56		 push	 esi
  0001e	8b cd		 mov	 ecx, ebp
  00020	e8 00 00 00 00	 call	 ?_Copy@?$basic_string@DU?$char_traits@D@std@@V?$allocator@D@2@@std@@IAEXII@Z ; std::basic_string<char,std::char_traits<char>,std::allocator<char> >::_Copy

; 1490 : 		return (0 < _Newsize);	// return true only if more work to do

  00025	33 c0		 xor	 eax, eax
  00027	3b c6		 cmp	 eax, esi
  00029	1b c0		 sbb	 eax, eax
  0002b	5e		 pop	 esi
  0002c	f7 d8		 neg	 eax
  0002e	5d		 pop	 ebp

; 1491 : 		}

  0002f	c2 08 00	 ret	 8
$L221381:

; 1485 : 		else if (_Trim && _Newsize < _BUF_SIZE)

  00032	8a 4c 24 10	 mov	 cl, BYTE PTR __Trim$[esp+4]
  00036	84 c9		 test	 cl, cl
  00038	74 5c		 je	 SHORT $L221383
  0003a	83 fe 10	 cmp	 esi, 16			; 00000010H
  0003d	73 57		 jae	 SHORT $L221383
  0003f	53		 push	 ebx

; 1486 : 			_Tidy(true,	// copy and deallocate if trimming to small string
; 1487 : 				_Newsize < _Mysize ? _Newsize : _Mysize);

  00040	8b 5d 14	 mov	 ebx, DWORD PTR [ebp+20]
  00043	3b f3		 cmp	 esi, ebx
  00045	73 02		 jae	 SHORT $L265940
  00047	8b de		 mov	 ebx, esi
$L265940:
  00049	83 f8 10	 cmp	 eax, 16			; 00000010H
  0004c	72 2b		 jb	 SHORT $L265994
  0004e	85 db		 test	 ebx, ebx
  00050	8b 45 04	 mov	 eax, DWORD PTR [ebp+4]
  00053	57		 push	 edi
  00054	8d 7d 04	 lea	 edi, DWORD PTR [ebp+4]
  00057	76 16		 jbe	 SHORT $L265992
  00059	8b cb		 mov	 ecx, ebx
  0005b	8b d1		 mov	 edx, ecx
  0005d	c1 e9 02	 shr	 ecx, 2
  00060	8b f0		 mov	 esi, eax
  00062	f3 a5		 rep movsd
  00064	8b ca		 mov	 ecx, edx
  00066	83 e1 03	 and	 ecx, 3
  00069	f3 a4		 rep movsb
  0006b	8b 74 24 14	 mov	 esi, DWORD PTR __Newsize$[esp+12]
$L265992:
  0006f	50		 push	 eax
  00070	e8 00 00 00 00	 call	 ??3@YAXPAX@Z		; operator delete
  00075	83 c4 04	 add	 esp, 4
  00078	5f		 pop	 edi
$L265994:
  00079	89 5d 14	 mov	 DWORD PTR [ebp+20], ebx

; 1490 : 		return (0 < _Newsize);	// return true only if more work to do

  0007c	33 c0		 xor	 eax, eax
  0007e	c7 45 18 0f 00
	00 00		 mov	 DWORD PTR [ebp+24], 15	; 0000000fH
  00085	c6 44 2b 04 00	 mov	 BYTE PTR [ebx+ebp+4], 0
  0008a	3b c6		 cmp	 eax, esi
  0008c	5b		 pop	 ebx
  0008d	1b c0		 sbb	 eax, eax
  0008f	5e		 pop	 esi
  00090	f7 d8		 neg	 eax
  00092	5d		 pop	 ebp

; 1491 : 		}

  00093	c2 08 00	 ret	 8
$L221383:

; 1488 : 		else if (_Newsize == 0)

  00096	85 f6		 test	 esi, esi
  00098	75 23		 jne	 SHORT $L266031

; 1489 : 			_Eos(0);	// new size is zero, just null terminate

  0009a	83 f8 10	 cmp	 eax, 16			; 00000010H
  0009d	89 75 14	 mov	 DWORD PTR [ebp+20], esi
  000a0	72 14		 jb	 SHORT $L266029
  000a2	8b 6d 04	 mov	 ebp, DWORD PTR [ebp+4]

; 1490 : 		return (0 < _Newsize);	// return true only if more work to do

  000a5	33 c0		 xor	 eax, eax
  000a7	3b c6		 cmp	 eax, esi
  000a9	1b c0		 sbb	 eax, eax
  000ab	5e		 pop	 esi
  000ac	c6 45 00 00	 mov	 BYTE PTR [ebp], 0
  000b0	f7 d8		 neg	 eax
  000b2	5d		 pop	 ebp

; 1491 : 		}

  000b3	c2 08 00	 ret	 8

; 1489 : 			_Eos(0);	// new size is zero, just null terminate

$L266029:
  000b6	83 c5 04	 add	 ebp, 4
  000b9	c6 45 00 00	 mov	 BYTE PTR [ebp], 0
$L266031:

; 1490 : 		return (0 < _Newsize);	// return true only if more work to do

  000bd	33 c0		 xor	 eax, eax
  000bf	3b c6		 cmp	 eax, esi
  000c1	1b c0		 sbb	 eax, eax
  000c3	5e		 pop	 esi
  000c4	f7 d8		 neg	 eax
  000c6	5d		 pop	 ebp

; 1491 : 		}

  000c7	c2 08 00	 ret	 8
?_Grow@?$basic_string@DU?$char_traits@D@std@@V?$allocator@D@2@@std@@IAE_NI_N@Z ENDP ; std::basic_string<char,std::char_traits<char>,std::allocator<char> >::_Grow
_TEXT	ENDS
PUBLIC	?IsUsableDYO2@CWorld@@QAEHPAUtagCHARACTER@@@Z	; CWorld::IsUsableDYO2
EXTRN	?GetSubLanguage@@YAHXZ:NEAR			; GetSubLanguage
; Function compile flags: /Ogty
; File c:\documents and settings\test\mes documents\source\virtuos_v17\build\program\_common\worldfile.cpp
;	COMDAT ?IsUsableDYO2@CWorld@@QAEHPAUtagCHARACTER@@@Z
_TEXT	SEGMENT
_pCharacter$ = 8					; size = 4
?IsUsableDYO2@CWorld@@QAEHPAUtagCHARACTER@@@Z PROC NEAR	; CWorld::IsUsableDYO2, COMDAT
; _this$ = ecx

; 1182 : {

  00000	56		 push	 esi

; 1183 : 	if( pCharacter->m_vecdwLanguage.empty() )

  00001	8b 74 24 08	 mov	 esi, DWORD PTR _pCharacter$[esp]
  00005	8b 8e 48 08 00
	00		 mov	 ecx, DWORD PTR [esi+2120]
  0000b	85 c9		 test	 ecx, ecx
  0000d	74 0f		 je	 SHORT $L266172
  0000f	8b 86 4c 08 00
	00		 mov	 eax, DWORD PTR [esi+2124]
  00015	2b c1		 sub	 eax, ecx
  00017	c1 f8 02	 sar	 eax, 2
  0001a	85 c0		 test	 eax, eax
  0001c	75 0a		 jne	 SHORT $L258852
$L266172:

; 1184 : 		return pCharacter->bOutput;

  0001e	8b 86 54 08 00
	00		 mov	 eax, DWORD PTR [esi+2132]
  00024	5e		 pop	 esi

; 1194 : }

  00025	c2 04 00	 ret	 4
$L258852:
  00028	55		 push	 ebp
  00029	53		 push	 ebx

; 1185 : 	
; 1186 : 	for( DWORD i=0; i<pCharacter->m_vecdwLanguage.size(); i++ )

  0002a	33 ed		 xor	 ebp, ebp
  0002c	57		 push	 edi
  0002d	8d 49 00	 npad	 3
$L258854:
  00030	8b 8e 48 08 00
	00		 mov	 ecx, DWORD PTR [esi+2120]
  00036	85 c9		 test	 ecx, ecx
  00038	74 4b		 je	 SHORT $L258856
  0003a	8b 86 4c 08 00
	00		 mov	 eax, DWORD PTR [esi+2124]
  00040	2b c1		 sub	 eax, ecx
  00042	c1 f8 02	 sar	 eax, 2
  00045	3b e8		 cmp	 ebp, eax
  00047	73 3c		 jae	 SHORT $L258856
  00049	8b f9		 mov	 edi, ecx
  0004b	8d 1c ad 00 00
	00 00		 lea	 ebx, DWORD PTR [ebp*4]
  00052	03 fb		 add	 edi, ebx

; 1187 : 	{
; 1188 : 		if( HIWORD(pCharacter->m_vecdwLanguage[i]) == ::GetLanguage()
; 1189 : 			&& LOWORD(pCharacter->m_vecdwLanguage[i]) == ::GetSubLanguage() )

  00054	e8 00 00 00 00	 call	 ?GetLanguage@@YAHXZ	; GetLanguage
  00059	0f b7 4f 02	 movzx	 ecx, WORD PTR [edi+2]
  0005d	3b c8		 cmp	 ecx, eax
  0005f	75 14		 jne	 SHORT $L258855
  00061	8b be 48 08 00
	00		 mov	 edi, DWORD PTR [esi+2120]
  00067	03 fb		 add	 edi, ebx
  00069	e8 00 00 00 00	 call	 ?GetSubLanguage@@YAHXZ	; GetSubLanguage
  0006e	0f b7 17	 movzx	 edx, WORD PTR [edi]
  00071	3b d0		 cmp	 edx, eax
  00073	74 03		 je	 SHORT $L266171
$L258855:

; 1185 : 	
; 1186 : 	for( DWORD i=0; i<pCharacter->m_vecdwLanguage.size(); i++ )

  00075	45		 inc	 ebp
  00076	eb b8		 jmp	 SHORT $L258854
$L266171:

; 1190 : 			return pCharacter->bOutput;

  00078	8b 86 54 08 00
	00		 mov	 eax, DWORD PTR [esi+2132]
  0007e	5f		 pop	 edi
  0007f	5b		 pop	 ebx
  00080	5d		 pop	 ebp
  00081	5e		 pop	 esi

; 1194 : }

  00082	c2 04 00	 ret	 4
$L258856:

; 1191 : 	}
; 1192 : 
; 1193 : 	return !(pCharacter->bOutput);

  00085	8b 8e 54 08 00
	00		 mov	 ecx, DWORD PTR [esi+2132]
  0008b	5f		 pop	 edi
  0008c	5b		 pop	 ebx
  0008d	33 c0		 xor	 eax, eax
  0008f	85 c9		 test	 ecx, ecx
  00091	5d		 pop	 ebp
  00092	0f 94 c0	 sete	 al
  00095	5e		 pop	 esi

; 1194 : }

  00096	c2 04 00	 ret	 4
?IsUsableDYO2@CWorld@@QAEHPAUtagCHARACTER@@@Z ENDP	; CWorld::IsUsableDYO2
_TEXT	ENDS
PUBLIC	?Replace@?$CStringT@DV?$StrTraitMFC@DV?$ChTraitsCRT@D@ATL@@@@@ATL@@QAEHPBD0@Z ; ATL::CStringT<char,StrTraitMFC<char,ATL::ChTraitsCRT<char> > >::Replace
; Function compile flags: /Ogty
; File c:\program files\microsoft visual studio .net 2003\vc7\atlmfc\include\cstringt.h
;	COMDAT ?Replace@?$CStringT@DV?$StrTraitMFC@DV?$ChTraitsCRT@D@ATL@@@@@ATL@@QAEHPBD0@Z
_TEXT	SEGMENT
_nReplacementLen$ = -32					; size = 4
_nOldLength$258967 = -28				; size = 4
_this$ = -24						; size = 4
_nSourceLen$ = -20					; size = 4
_pszBuffer$258969 = -16					; size = 4
_pszEnd$258958 = -12					; size = 4
_nCount$ = -12						; size = 4
_pszEnd$258971 = -8					; size = 4
_nNewLength$258968 = -4					; size = 4
_pszOld$ = 8						; size = 4
_pszNew$ = 12						; size = 4
?Replace@?$CStringT@DV?$StrTraitMFC@DV?$ChTraitsCRT@D@ATL@@@@@ATL@@QAEHPBD0@Z PROC NEAR ; ATL::CStringT<char,StrTraitMFC<char,ATL::ChTraitsCRT<char> > >::Replace, COMDAT
; _this$ = ecx

; 1230 : 	{

  00000	83 ec 20	 sub	 esp, 32			; 00000020H
  00003	53		 push	 ebx

; 1231 : 		// can't have empty or NULL lpszOld
; 1232 : 
; 1233 : 		// nSourceLen is in XCHARs
; 1234 : 		int nSourceLen = StringTraits::SafeStringLen( pszOld );

  00004	8b 5c 24 28	 mov	 ebx, DWORD PTR _pszOld$[esp+32]
  00008	55		 push	 ebp
  00009	56		 push	 esi
  0000a	33 ed		 xor	 ebp, ebp
  0000c	3b dd		 cmp	 ebx, ebp
  0000e	8b f1		 mov	 esi, ecx
  00010	57		 push	 edi
  00011	89 74 24 18	 mov	 DWORD PTR _this$[esp+48], esi
  00015	74 1a		 je	 SHORT $L266302
  00017	8b fb		 mov	 edi, ebx
  00019	8d 4f 01	 lea	 ecx, DWORD PTR [edi+1]
  0001c	8d 64 24 00	 npad	 4
$L266303:
  00020	8a 07		 mov	 al, BYTE PTR [edi]
  00022	47		 inc	 edi
  00023	84 c0		 test	 al, al
  00025	75 f9		 jne	 SHORT $L266303
  00027	2b f9		 sub	 edi, ecx

; 1235 : 		if( nSourceLen == 0 )

  00029	3b fd		 cmp	 edi, ebp
  0002b	89 7c 24 1c	 mov	 DWORD PTR _nSourceLen$[esp+48], edi
  0002f	75 0c		 jne	 SHORT $L258954
$L266302:
  00031	5f		 pop	 edi
  00032	5e		 pop	 esi
  00033	5d		 pop	 ebp

; 1236 : 			return( 0 );

  00034	33 c0		 xor	 eax, eax
  00036	5b		 pop	 ebx

; 1291 : 	}

  00037	83 c4 20	 add	 esp, 32			; 00000020H
  0003a	c2 08 00	 ret	 8
$L258954:

; 1237 : 		// nReplacementLen is in XCHARs
; 1238 : 		int nReplacementLen = StringTraits::SafeStringLen( pszNew );

  0003d	8b 44 24 38	 mov	 eax, DWORD PTR _pszNew$[esp+44]
  00041	3b c5		 cmp	 eax, ebp
  00043	74 12		 je	 SHORT $L266194
  00045	8d 50 01	 lea	 edx, DWORD PTR [eax+1]
$L266304:
  00048	8a 08		 mov	 cl, BYTE PTR [eax]
  0004a	40		 inc	 eax
  0004b	84 c9		 test	 cl, cl
  0004d	75 f9		 jne	 SHORT $L266304
  0004f	2b c2		 sub	 eax, edx
  00051	89 44 24 10	 mov	 DWORD PTR _nReplacementLen$[esp+48], eax
  00055	eb 04		 jmp	 SHORT $L266195
$L266194:
  00057	89 6c 24 10	 mov	 DWORD PTR _nReplacementLen$[esp+48], ebp
$L266195:

; 1239 : 
; 1240 : 		// loop once to figure out the size of the result string
; 1241 : 		int nCount = 0;
; 1242 : 		{
; 1243 : 			PCXSTR pszStart = GetString();

  0005b	8b 36		 mov	 esi, DWORD PTR [esi]

; 1244 : 			PCXSTR pszEnd = pszStart+GetLength();

  0005d	8b 46 f4	 mov	 eax, DWORD PTR [esi-12]
  00060	03 c6		 add	 eax, esi

; 1245 : 			while( pszStart < pszEnd )

  00062	3b f0		 cmp	 esi, eax
  00064	89 6c 24 24	 mov	 DWORD PTR _nCount$[esp+48], ebp
  00068	89 44 24 24	 mov	 DWORD PTR _pszEnd$258958[esp+48], eax
  0006c	0f 83 6f 01 00
	00		 jae	 $L266292
$L258960:

; 1246 : 			{
; 1247 : 				PCXSTR pszTarget;
; 1248 : 				while( (pszTarget = StringTraits::StringFindString( pszStart, pszOld ) ) != NULL)

  00072	53		 push	 ebx
  00073	56		 push	 esi
  00074	e8 00 00 00 00	 call	 __mbsstr
  00079	83 c4 08	 add	 esp, 8
  0007c	85 c0		 test	 eax, eax
  0007e	74 12		 je	 SHORT $L258965
$L258964:

; 1249 : 				{
; 1250 : 					nCount++;
; 1251 : 					pszStart = pszTarget+nSourceLen;

  00080	8d 34 38	 lea	 esi, DWORD PTR [eax+edi]
  00083	53		 push	 ebx
  00084	56		 push	 esi
  00085	45		 inc	 ebp
  00086	e8 00 00 00 00	 call	 __mbsstr
  0008b	83 c4 08	 add	 esp, 8
  0008e	85 c0		 test	 eax, eax
  00090	75 ee		 jne	 SHORT $L258964
$L258965:

; 1252 : 				}
; 1253 : 				pszStart += StringTraits::SafeStringLen( pszStart )+1;

  00092	85 f6		 test	 esi, esi
  00094	74 15		 je	 SHORT $L266216
  00096	8b c6		 mov	 eax, esi
  00098	8d 50 01	 lea	 edx, DWORD PTR [eax+1]
  0009b	eb 03 8d 49 00	 npad	 5
$L266305:
  000a0	8a 08		 mov	 cl, BYTE PTR [eax]
  000a2	40		 inc	 eax
  000a3	84 c9		 test	 cl, cl
  000a5	75 f9		 jne	 SHORT $L266305
  000a7	2b c2		 sub	 eax, edx
  000a9	eb 02		 jmp	 SHORT $L266217
$L266216:
  000ab	33 c0		 xor	 eax, eax
$L266217:
  000ad	8d 74 06 01	 lea	 esi, DWORD PTR [esi+eax+1]
  000b1	3b 74 24 24	 cmp	 esi, DWORD PTR _pszEnd$258958[esp+48]
  000b5	72 bb		 jb	 SHORT $L258960

; 1254 : 			}
; 1255 : 		}
; 1256 : 
; 1257 : 		// if any changes were made, make them
; 1258 : 		if( nCount > 0 )

  000b7	85 ed		 test	 ebp, ebp
  000b9	89 6c 24 24	 mov	 DWORD PTR _nCount$[esp+48], ebp
  000bd	0f 8e 1e 01 00
	00		 jle	 $L266292

; 1259 : 		{
; 1260 : 			// if the buffer is too small, just
; 1261 : 			//   allocate a new buffer (slow but sure)
; 1262 : 			int nOldLength = GetLength();
; 1263 : 			int nNewLength = nOldLength+(nReplacementLen-nSourceLen)*nCount;

  000c3	8b 5c 24 10	 mov	 ebx, DWORD PTR _nReplacementLen$[esp+48]
  000c7	8b 44 24 18	 mov	 eax, DWORD PTR _this$[esp+48]
  000cb	8b 08		 mov	 ecx, DWORD PTR [eax]
  000cd	8b 41 f4	 mov	 eax, DWORD PTR [ecx-12]
  000d0	2b df		 sub	 ebx, edi
  000d2	0f af dd	 imul	 ebx, ebp
  000d5	03 d8		 add	 ebx, eax

; 1264 : 
; 1265 : 			PXSTR pszBuffer = GetBuffer( max( nNewLength, nOldLength ) );

  000d7	3b d8		 cmp	 ebx, eax
  000d9	89 44 24 14	 mov	 DWORD PTR _nOldLength$258967[esp+48], eax
  000dd	89 5c 24 2c	 mov	 DWORD PTR _nNewLength$258968[esp+48], ebx
  000e1	7e 02		 jle	 SHORT $L266181
  000e3	8b c3		 mov	 eax, ebx
$L266181:
  000e5	8b 71 fc	 mov	 esi, DWORD PTR [ecx-4]
  000e8	8b 49 f8	 mov	 ecx, DWORD PTR [ecx-8]
  000eb	ba 01 00 00 00	 mov	 edx, 1
  000f0	2b d6		 sub	 edx, esi
  000f2	2b c8		 sub	 ecx, eax
  000f4	0b d1		 or	 edx, ecx
  000f6	7d 0a		 jge	 SHORT $L266309
  000f8	8b 4c 24 18	 mov	 ecx, DWORD PTR _this$[esp+48]
  000fc	50		 push	 eax
  000fd	e8 00 00 00 00	 call	 ?PrepareWrite2@?$CSimpleStringT@D$0A@@ATL@@AAEXH@Z ; ATL::CSimpleStringT<char,0>::PrepareWrite2
$L266309:
  00102	8b 54 24 18	 mov	 edx, DWORD PTR _this$[esp+48]
  00106	8b 2a		 mov	 ebp, DWORD PTR [edx]

; 1266 : 
; 1267 : 			PXSTR pszStart = pszBuffer;
; 1268 : 			PXSTR pszEnd = pszStart+nOldLength;

  00108	8b 44 24 14	 mov	 eax, DWORD PTR _nOldLength$258967[esp+48]
  0010c	03 c5		 add	 eax, ebp

; 1269 : 
; 1270 : 			// loop again to actually do the work
; 1271 : 			while( pszStart < pszEnd )

  0010e	3b e8		 cmp	 ebp, eax
  00110	89 6c 24 20	 mov	 DWORD PTR _pszBuffer$258969[esp+48], ebp
  00114	8b f5		 mov	 esi, ebp
  00116	89 44 24 28	 mov	 DWORD PTR _pszEnd$258971[esp+48], eax
  0011a	0f 83 a5 00 00
	00		 jae	 $L258974
$L258973:

; 1272 : 			{
; 1273 : 				PXSTR pszTarget;
; 1274 : 				while( (pszTarget = StringTraits::StringFindString( pszStart, pszOld ) ) != NULL )

  00120	8b 4c 24 34	 mov	 ecx, DWORD PTR _pszOld$[esp+44]
  00124	51		 push	 ecx
  00125	56		 push	 esi
  00126	e8 00 00 00 00	 call	 __mbsstr
  0012b	8b d8		 mov	 ebx, eax
  0012d	83 c4 08	 add	 esp, 8
  00130	85 db		 test	 ebx, ebx
  00132	74 69		 je	 SHORT $L258978
$L266307:

; 1275 : 				{
; 1276 : 					int nBalance = nOldLength-int(pszTarget-pszBuffer+nSourceLen);

  00134	8b 54 24 14	 mov	 edx, DWORD PTR _nOldLength$258967[esp+48]

; 1277 : 					memmove( pszTarget+nReplacementLen, pszTarget+nSourceLen, nBalance*sizeof( XCHAR ) );

  00138	8b 74 24 10	 mov	 esi, DWORD PTR _nReplacementLen$[esp+48]
  0013c	2b eb		 sub	 ebp, ebx
  0013e	2b ef		 sub	 ebp, edi
  00140	03 ea		 add	 ebp, edx
  00142	55		 push	 ebp
  00143	8d 14 3b	 lea	 edx, DWORD PTR [ebx+edi]
  00146	8d 04 33	 lea	 eax, DWORD PTR [ebx+esi]
  00149	52		 push	 edx
  0014a	50		 push	 eax
  0014b	e8 00 00 00 00	 call	 _memmove
  00150	8b 54 24 40	 mov	 edx, DWORD PTR _pszOld$[esp+56]

; 1278 : 
; 1279 : 					memcpy( pszTarget, pszNew, nReplacementLen*sizeof( XCHAR ) );

  00154	8b ce		 mov	 ecx, esi
  00156	8b 74 24 44	 mov	 esi, DWORD PTR _pszNew$[esp+56]
  0015a	8b c1		 mov	 eax, ecx
  0015c	c1 e9 02	 shr	 ecx, 2
  0015f	8b fb		 mov	 edi, ebx
  00161	f3 a5		 rep movsd
  00163	8b c8		 mov	 ecx, eax
  00165	83 e1 03	 and	 ecx, 3

; 1280 : 					pszStart = pszTarget+nReplacementLen;
; 1281 : 					pszTarget[nReplacementLen+nBalance] = 0;

  00168	03 eb		 add	 ebp, ebx
  0016a	f3 a4		 rep movsb
  0016c	8b c8		 mov	 ecx, eax
  0016e	c6 04 28 00	 mov	 BYTE PTR [eax+ebp], 0

; 1282 : 					nOldLength += (nReplacementLen-nSourceLen);

  00172	8b 6c 24 28	 mov	 ebp, DWORD PTR _nSourceLen$[esp+60]
  00176	8d 34 0b	 lea	 esi, DWORD PTR [ebx+ecx]
  00179	8b 5c 24 20	 mov	 ebx, DWORD PTR _nOldLength$258967[esp+60]
  0017d	2b c5		 sub	 eax, ebp
  0017f	52		 push	 edx
  00180	03 d8		 add	 ebx, eax
  00182	56		 push	 esi
  00183	89 5c 24 28	 mov	 DWORD PTR _nOldLength$258967[esp+68], ebx
  00187	e8 00 00 00 00	 call	 __mbsstr
  0018c	8b 6c 24 34	 mov	 ebp, DWORD PTR _pszBuffer$258969[esp+68]
  00190	8b 7c 24 30	 mov	 edi, DWORD PTR _nSourceLen$[esp+68]
  00194	8b d8		 mov	 ebx, eax
  00196	83 c4 14	 add	 esp, 20			; 00000014H
  00199	85 db		 test	 ebx, ebx
  0019b	75 97		 jne	 SHORT $L266307
$L258978:

; 1283 : 				}
; 1284 : 				pszStart += StringTraits::SafeStringLen( pszStart )+1;

  0019d	85 f6		 test	 esi, esi
  0019f	74 10		 je	 SHORT $L266264
  001a1	8b c6		 mov	 eax, esi
  001a3	8d 50 01	 lea	 edx, DWORD PTR [eax+1]
$L266306:
  001a6	8a 08		 mov	 cl, BYTE PTR [eax]
  001a8	40		 inc	 eax
  001a9	84 c9		 test	 cl, cl
  001ab	75 f9		 jne	 SHORT $L266306
  001ad	2b c2		 sub	 eax, edx
  001af	eb 02		 jmp	 SHORT $L266265
$L266264:
  001b1	33 c0		 xor	 eax, eax
$L266265:
  001b3	8d 74 06 01	 lea	 esi, DWORD PTR [esi+eax+1]
  001b7	3b 74 24 28	 cmp	 esi, DWORD PTR _pszEnd$258971[esp+48]
  001bb	0f 82 5f ff ff
	ff		 jb	 $L258973

; 1269 : 
; 1270 : 			// loop again to actually do the work
; 1271 : 			while( pszStart < pszEnd )

  001c1	8b 5c 24 2c	 mov	 ebx, DWORD PTR _nNewLength$258968[esp+48]
$L258974:

; 1285 : 			}
; 1286 : 			ATLASSERT( pszBuffer[nNewLength] == 0 );
; 1287 : 			ReleaseBufferSetLength( nNewLength );

  001c5	85 db		 test	 ebx, ebx
  001c7	7c 24		 jl	 SHORT $L266291
  001c9	8b 4c 24 18	 mov	 ecx, DWORD PTR _this$[esp+48]
  001cd	8b 01		 mov	 eax, DWORD PTR [ecx]
  001cf	3b 58 f8	 cmp	 ebx, DWORD PTR [eax-8]
  001d2	7f 19		 jg	 SHORT $L266291
  001d4	8b 6c 24 24	 mov	 ebp, DWORD PTR _nCount$[esp+48]
  001d8	89 58 f4	 mov	 DWORD PTR [eax-12], ebx
  001db	8b 01		 mov	 eax, DWORD PTR [ecx]
  001dd	c6 04 03 00	 mov	 BYTE PTR [ebx+eax], 0
$L266292:
  001e1	5f		 pop	 edi
  001e2	5e		 pop	 esi

; 1288 : 		}
; 1289 : 
; 1290 : 		return( nCount );

  001e3	8b c5		 mov	 eax, ebp
  001e5	5d		 pop	 ebp
  001e6	5b		 pop	 ebx

; 1291 : 	}

  001e7	83 c4 20	 add	 esp, 32			; 00000020H
  001ea	c2 08 00	 ret	 8

; 1285 : 			}
; 1286 : 			ATLASSERT( pszBuffer[nNewLength] == 0 );
; 1287 : 			ReleaseBufferSetLength( nNewLength );

$L266291:
  001ed	68 57 00 07 80	 push	 -2147024809		; 80070057H
  001f2	e8 00 00 00 00	 call	 ?AtlThrow@ATL@@YGXJ@Z	; ATL::AtlThrow
$L266311:
$L266310:
  001f7	cc		 int	 3
?Replace@?$CStringT@DV?$StrTraitMFC@DV?$ChTraitsCRT@D@ATL@@@@@ATL@@QAEHPBD0@Z ENDP ; ATL::CStringT<char,StrTraitMFC<char,ATL::ChTraitsCRT<char> > >::Replace
_TEXT	ENDS
PUBLIC	?FormatV@?$CStringT@DV?$StrTraitMFC@DV?$ChTraitsCRT@D@ATL@@@@@ATL@@QAEXPBDPAD@Z ; ATL::CStringT<char,StrTraitMFC<char,ATL::ChTraitsCRT<char> > >::FormatV
; Function compile flags: /Ogty
;	COMDAT ?FormatV@?$CStringT@DV?$StrTraitMFC@DV?$ChTraitsCRT@D@ATL@@@@@ATL@@QAEXPBDPAD@Z
_TEXT	SEGMENT
_pszFormat$ = 8						; size = 4
_args$ = 12						; size = 4
?FormatV@?$CStringT@DV?$StrTraitMFC@DV?$ChTraitsCRT@D@ATL@@@@@ATL@@QAEXPBDPAD@Z PROC NEAR ; ATL::CStringT<char,StrTraitMFC<char,ATL::ChTraitsCRT<char> > >::FormatV, COMDAT
; _this$ = ecx

; 1855 : 	{

  00000	53		 push	 ebx

; 1856 : 		ATLASSERT( AtlIsValidString( pszFormat ) );
; 1857 : 		if(pszFormat == NULL)

  00001	8b 5c 24 08	 mov	 ebx, DWORD PTR _pszFormat$[esp]
  00005	85 db		 test	 ebx, ebx
  00007	57		 push	 edi
  00008	8b f9		 mov	 edi, ecx
  0000a	75 0a		 jne	 SHORT $L260098

; 1858 : 			AtlThrow(E_INVALIDARG);

  0000c	68 57 00 07 80	 push	 -2147024809		; 80070057H
  00011	e8 00 00 00 00	 call	 ?AtlThrow@ATL@@YGXJ@Z	; ATL::AtlThrow
$L266375:
$L260098:
  00016	55		 push	 ebp

; 1859 : 
; 1860 : 		int nLength = StringTraits::GetFormattedLength( pszFormat, args );

  00017	8b 6c 24 14	 mov	 ebp, DWORD PTR _args$[esp+8]
  0001b	56		 push	 esi
  0001c	55		 push	 ebp
  0001d	53		 push	 ebx
  0001e	e8 00 00 00 00	 call	 __vscprintf
  00023	8b f0		 mov	 esi, eax

; 1861 : 		PXSTR pszBuffer = GetBuffer( nLength );

  00025	8b 07		 mov	 eax, DWORD PTR [edi]
  00027	8b 50 fc	 mov	 edx, DWORD PTR [eax-4]
  0002a	83 e8 10	 sub	 eax, 16			; 00000010H
  0002d	b9 01 00 00 00	 mov	 ecx, 1
  00032	2b ca		 sub	 ecx, edx
  00034	8b 50 08	 mov	 edx, DWORD PTR [eax+8]
  00037	2b d6		 sub	 edx, esi
  00039	83 c4 08	 add	 esp, 8
  0003c	0b ca		 or	 ecx, edx
  0003e	7d 08		 jge	 SHORT $L266340
  00040	56		 push	 esi
  00041	8b cf		 mov	 ecx, edi
  00043	e8 00 00 00 00	 call	 ?PrepareWrite2@?$CSimpleStringT@D$0A@@ATL@@AAEXH@Z ; ATL::CSimpleStringT<char,0>::PrepareWrite2
$L266340:

; 1862 : 		StringTraits::Format( pszBuffer, pszFormat, args );

  00048	8b 07		 mov	 eax, DWORD PTR [edi]
  0004a	55		 push	 ebp
  0004b	53		 push	 ebx
  0004c	50		 push	 eax
  0004d	e8 00 00 00 00	 call	 _vsprintf
  00052	83 c4 0c	 add	 esp, 12			; 0000000cH

; 1863 : 		ReleaseBufferSetLength( nLength );

  00055	85 f6		 test	 esi, esi
  00057	7c 17		 jl	 SHORT $L266370
  00059	8b 07		 mov	 eax, DWORD PTR [edi]
  0005b	3b 70 f8	 cmp	 esi, DWORD PTR [eax-8]
  0005e	7f 10		 jg	 SHORT $L266370
  00060	89 70 f4	 mov	 DWORD PTR [eax-12], esi
  00063	8b 0f		 mov	 ecx, DWORD PTR [edi]
  00065	c6 04 0e 00	 mov	 BYTE PTR [esi+ecx], 0
  00069	5e		 pop	 esi
  0006a	5d		 pop	 ebp
  0006b	5f		 pop	 edi
  0006c	5b		 pop	 ebx

; 1864 : 	}

  0006d	c2 08 00	 ret	 8
$L266370:
  00070	68 57 00 07 80	 push	 -2147024809		; 80070057H
  00075	e8 00 00 00 00	 call	 ?AtlThrow@ATL@@YGXJ@Z	; ATL::AtlThrow
$L266376:
$L266374:
  0007a	cc		 int	 3
?FormatV@?$CStringT@DV?$StrTraitMFC@DV?$ChTraitsCRT@D@ATL@@@@@ATL@@QAEXPBDPAD@Z ENDP ; ATL::CStringT<char,StrTraitMFC<char,ATL::ChTraitsCRT<char> > >::FormatV
_TEXT	ENDS
PUBLIC	??1logic_error@std@@UAE@XZ			; std::logic_error::~logic_error
PUBLIC	?what@logic_error@std@@UBEPBDXZ			; std::logic_error::what
PUBLIC	??_7logic_error@std@@6B@			; std::logic_error::`vftable'
PUBLIC	??_Glogic_error@std@@UAEPAXI@Z			; std::logic_error::`scalar deleting destructor'
EXTRN	??1exception@@UAE@XZ:NEAR			; exception::~exception
EXTRN	??_Elogic_error@std@@UAEPAXI@Z:NEAR		; std::logic_error::`vector deleting destructor'
;	COMDAT ??_7logic_error@std@@6B@
; File c:\program files\microsoft visual studio .net 2003\vc7\include\iosfwd
CONST	SEGMENT
??_7logic_error@std@@6B@ DD FLAT:??_Elogic_error@std@@UAEPAXI@Z ; std::logic_error::`vftable'
	DD	FLAT:?what@logic_error@std@@UBEPBDXZ
; Function compile flags: /Ogty
; File c:\program files\microsoft visual studio .net 2003\vc7\include\stdexcept
CONST	ENDS
;	COMDAT ??1logic_error@std@@UAE@XZ
_TEXT	SEGMENT
??1logic_error@std@@UAE@XZ PROC NEAR			; std::logic_error::~logic_error, COMDAT
; _this$ = ecx

; 23   : 		{}	// destroy the object

  00000	56		 push	 esi
  00001	8b f1		 mov	 esi, ecx
  00003	c7 06 00 00 00
	00		 mov	 DWORD PTR [esi], OFFSET FLAT:??_7logic_error@std@@6B@
  00009	83 7e 24 10	 cmp	 DWORD PTR [esi+36], 16	; 00000010H
  0000d	72 0c		 jb	 SHORT $L266438
  0000f	8b 46 10	 mov	 eax, DWORD PTR [esi+16]
  00012	50		 push	 eax
  00013	e8 00 00 00 00	 call	 ??3@YAXPAX@Z		; operator delete
  00018	83 c4 04	 add	 esp, 4
$L266438:
  0001b	33 c0		 xor	 eax, eax
  0001d	c7 46 24 0f 00
	00 00		 mov	 DWORD PTR [esi+36], 15	; 0000000fH
  00024	89 46 20	 mov	 DWORD PTR [esi+32], eax
  00027	88 46 10	 mov	 BYTE PTR [esi+16], al
  0002a	8b ce		 mov	 ecx, esi
  0002c	5e		 pop	 esi
  0002d	e9 00 00 00 00	 jmp	 ??1exception@@UAE@XZ	; exception::~exception
??1logic_error@std@@UAE@XZ ENDP				; std::logic_error::~logic_error
; Function compile flags: /Ogty
_TEXT	ENDS
;	COMDAT ?what@logic_error@std@@UBEPBDXZ
_TEXT	SEGMENT
?what@logic_error@std@@UBEPBDXZ PROC NEAR		; std::logic_error::what, COMDAT
; _this$ = ecx

; 27   : 		return (_Str.c_str());

  00000	83 79 24 10	 cmp	 DWORD PTR [ecx+36], 16	; 00000010H
  00004	72 04		 jb	 SHORT $L266470
  00006	8b 41 10	 mov	 eax, DWORD PTR [ecx+16]

; 28   : 		}

  00009	c3		 ret	 0

; 27   : 		return (_Str.c_str());

$L266470:
  0000a	8d 41 10	 lea	 eax, DWORD PTR [ecx+16]

; 28   : 		}

  0000d	c3		 ret	 0
?what@logic_error@std@@UBEPBDXZ ENDP			; std::logic_error::what
; Function compile flags: /Ogty
_TEXT	ENDS
;	COMDAT ??_Glogic_error@std@@UAEPAXI@Z
_TEXT	SEGMENT
___flags$ = 8						; size = 4
??_Glogic_error@std@@UAEPAXI@Z PROC NEAR		; std::logic_error::`scalar deleting destructor', COMDAT
; _this$ = ecx
  00000	56		 push	 esi
  00001	8b f1		 mov	 esi, ecx
  00003	e8 00 00 00 00	 call	 ??1logic_error@std@@UAE@XZ ; std::logic_error::~logic_error
  00008	f6 44 24 08 01	 test	 BYTE PTR ___flags$[esp], 1
  0000d	74 09		 je	 SHORT $L266478
  0000f	56		 push	 esi
  00010	e8 00 00 00 00	 call	 ??3@YAXPAX@Z		; operator delete
  00015	83 c4 04	 add	 esp, 4
$L266478:
  00018	8b c6		 mov	 eax, esi
  0001a	5e		 pop	 esi
  0001b	c2 04 00	 ret	 4
??_Glogic_error@std@@UAEPAXI@Z ENDP			; std::logic_error::`scalar deleting destructor'
_TEXT	ENDS
PUBLIC	?LoadStringA@?$CStringT@DV?$StrTraitMFC@DV?$ChTraitsCRT@D@ATL@@@@@ATL@@QAEHI@Z ; ATL::CStringT<char,StrTraitMFC<char,ATL::ChTraitsCRT<char> > >::LoadStringA
; Function compile flags: /Ogty
; File c:\program files\microsoft visual studio .net 2003\vc7\atlmfc\include\cstringt.h
;	COMDAT ?LoadStringA@?$CStringT@DV?$StrTraitMFC@DV?$ChTraitsCRT@D@ATL@@@@@ATL@@QAEHI@Z
_TEXT	SEGMENT
_nID$ = 8						; size = 4
?LoadStringA@?$CStringT@DV?$StrTraitMFC@DV?$ChTraitsCRT@D@ATL@@@@@ATL@@QAEHI@Z PROC NEAR ; ATL::CStringT<char,StrTraitMFC<char,ATL::ChTraitsCRT<char> > >::LoadStringA, COMDAT
; _this$ = ecx

; 1969 : 	{

  00000	56		 push	 esi
  00001	57		 push	 edi

; 1970 : 		HINSTANCE hInst = StringTraits::FindStringResourceInstance( nID );

  00002	8b 7c 24 0c	 mov	 edi, DWORD PTR _nID$[esp+4]
  00006	57		 push	 edi
  00007	8b f1		 mov	 esi, ecx
  00009	e8 00 00 00 00	 call	 ?AfxFindStringResourceHandle@@YGPAUHINSTANCE__@@I@Z ; AfxFindStringResourceHandle

; 1971 : 		if( hInst == NULL )

  0000e	85 c0		 test	 eax, eax
  00010	75 05		 jne	 SHORT $L218601
  00012	5f		 pop	 edi
  00013	5e		 pop	 esi

; 1977 : 	}

  00014	c2 04 00	 ret	 4
$L218601:

; 1972 : 		{
; 1973 : 			return( FALSE );
; 1974 : 		}
; 1975 : 
; 1976 : 		return( LoadString( hInst, nID ) );		

  00017	57		 push	 edi
  00018	50		 push	 eax
  00019	8b ce		 mov	 ecx, esi
  0001b	e8 00 00 00 00	 call	 ?LoadStringA@?$CStringT@DV?$StrTraitMFC@DV?$ChTraitsCRT@D@ATL@@@@@ATL@@QAEHPAUHINSTANCE__@@I@Z ; ATL::CStringT<char,StrTraitMFC<char,ATL::ChTraitsCRT<char> > >::LoadStringA
  00020	5f		 pop	 edi
  00021	5e		 pop	 esi

; 1977 : 	}

  00022	c2 04 00	 ret	 4
?LoadStringA@?$CStringT@DV?$StrTraitMFC@DV?$ChTraitsCRT@D@ATL@@@@@ATL@@QAEHI@Z ENDP ; ATL::CStringT<char,StrTraitMFC<char,ATL::ChTraitsCRT<char> > >::LoadStringA
_TEXT	ENDS
PUBLIC	?CheckImplicitLoad@?$CStringT@DV?$StrTraitMFC@DV?$ChTraitsCRT@D@ATL@@@@@ATL@@AAE_NPBX@Z ; ATL::CStringT<char,StrTraitMFC<char,ATL::ChTraitsCRT<char> > >::CheckImplicitLoad
; Function compile flags: /Ogty
;	COMDAT ?CheckImplicitLoad@?$CStringT@DV?$StrTraitMFC@DV?$ChTraitsCRT@D@ATL@@@@@ATL@@AAE_NPBX@Z
_TEXT	SEGMENT
_pv$ = 8						; size = 4
?CheckImplicitLoad@?$CStringT@DV?$StrTraitMFC@DV?$ChTraitsCRT@D@ATL@@@@@ATL@@AAE_NPBX@Z PROC NEAR ; ATL::CStringT<char,StrTraitMFC<char,ATL::ChTraitsCRT<char> > >::CheckImplicitLoad, COMDAT
; _this$ = ecx

; 2229 : 	{

  00000	57		 push	 edi
  00001	8b f9		 mov	 edi, ecx

; 2230 : 		bool bRet = false;
; 2231 : 
; 2232 : 		if( (pv != NULL) && IS_INTRESOURCE( pv ) )

  00003	8b 4c 24 08	 mov	 ecx, DWORD PTR _pv$[esp]
  00007	32 c0		 xor	 al, al
  00009	85 c9		 test	 ecx, ecx
  0000b	74 22		 je	 SHORT $L219935
  0000d	f7 c1 00 00 ff
	ff		 test	 ecx, -65536		; ffff0000H
  00013	75 1a		 jne	 SHORT $L219935
  00015	56		 push	 esi

; 2233 : 		{
; 2234 : 			UINT nID = LOWORD( reinterpret_cast< DWORD_PTR >( pv ) );

  00016	0f b7 f1	 movzx	 esi, cx

; 2235 : 			if( !LoadString( nID ) )

  00019	56		 push	 esi
  0001a	e8 00 00 00 00	 call	 ?AfxFindStringResourceHandle@@YGPAUHINSTANCE__@@I@Z ; AfxFindStringResourceHandle
  0001f	85 c0		 test	 eax, eax
  00021	74 09		 je	 SHORT $L266495
  00023	56		 push	 esi
  00024	50		 push	 eax
  00025	8b cf		 mov	 ecx, edi
  00027	e8 00 00 00 00	 call	 ?LoadStringA@?$CStringT@DV?$StrTraitMFC@DV?$ChTraitsCRT@D@ATL@@@@@ATL@@QAEHPAUHINSTANCE__@@I@Z ; ATL::CStringT<char,StrTraitMFC<char,ATL::ChTraitsCRT<char> > >::LoadStringA
$L266495:

; 2236 : 			{
; 2237 : 				ATLTRACE( atlTraceString, 2, _T( "Warning: implicit LoadString(%u) failed\n" ), nID );
; 2238 : 			}
; 2239 : 			bRet = true;

  0002c	b0 01		 mov	 al, 1
  0002e	5e		 pop	 esi
$L219935:
  0002f	5f		 pop	 edi

; 2240 : 		}
; 2241 : 
; 2242 : 		return( bRet );
; 2243 : 	}

  00030	c2 04 00	 ret	 4
?CheckImplicitLoad@?$CStringT@DV?$StrTraitMFC@DV?$ChTraitsCRT@D@ATL@@@@@ATL@@AAE_NPBX@Z ENDP ; ATL::CStringT<char,StrTraitMFC<char,ATL::ChTraitsCRT<char> > >::CheckImplicitLoad
_TEXT	ENDS
PUBLIC	?assign@?$basic_string@DU?$char_traits@D@std@@V?$allocator@D@2@@std@@QAEAAV12@ABV12@II@Z ; std::basic_string<char,std::char_traits<char>,std::allocator<char> >::assign
; Function compile flags: /Ogty
; File c:\program files\microsoft visual studio .net 2003\vc7\include\xstring
;	COMDAT ?assign@?$basic_string@DU?$char_traits@D@std@@V?$allocator@D@2@@std@@QAEAAV12@ABV12@II@Z
_TEXT	SEGMENT
__Right$ = 8						; size = 4
__Roff$ = 12						; size = 4
__Count$ = 16						; size = 4
?assign@?$basic_string@DU?$char_traits@D@std@@V?$allocator@D@2@@std@@QAEAAV12@ABV12@II@Z PROC NEAR ; std::basic_string<char,std::char_traits<char>,std::allocator<char> >::assign, COMDAT
; _this$ = ecx

; 590  : 		{	// assign _Right [_Roff, _Roff + _Count)

  00000	53		 push	 ebx
  00001	55		 push	 ebp
  00002	56		 push	 esi

; 591  : 		if (_Right.size() < _Roff)

  00003	8b 74 24 14	 mov	 esi, DWORD PTR __Roff$[esp+8]
  00007	57		 push	 edi
  00008	8b 7c 24 14	 mov	 edi, DWORD PTR __Right$[esp+12]
  0000c	39 77 14	 cmp	 DWORD PTR [edi+20], esi
  0000f	8b d9		 mov	 ebx, ecx
  00011	73 05		 jae	 SHORT $L220001

; 592  : 			_String_base::_Xran();	// _Roff off end

  00013	e8 00 00 00 00	 call	 ?_Xran@_String_base@std@@QBEXXZ ; std::_String_base::_Xran
$L220001:

; 593  : 		size_type _Num = _Right.size() - _Roff;

  00018	8b 6f 14	 mov	 ebp, DWORD PTR [edi+20]

; 594  : 		if (_Count < _Num)

  0001b	8b 44 24 1c	 mov	 eax, DWORD PTR __Count$[esp+12]
  0001f	2b ee		 sub	 ebp, esi
  00021	3b c5		 cmp	 eax, ebp
  00023	73 02		 jae	 SHORT $L220003

; 595  : 			_Num = _Count;	// trim _Num to size

  00025	8b e8		 mov	 ebp, eax
$L220003:

; 596  : 
; 597  : 		if (this == &_Right)

  00027	3b df		 cmp	 ebx, edi
  00029	75 1f		 jne	 SHORT $L220004

; 598  : 			erase((size_type)(_Roff + _Num)), erase(0, _Roff);	// substring

  0002b	6a ff		 push	 -1
  0002d	03 ee		 add	 ebp, esi
  0002f	55		 push	 ebp
  00030	8b cb		 mov	 ecx, ebx
  00032	e8 00 00 00 00	 call	 ?erase@?$basic_string@DU?$char_traits@D@std@@V?$allocator@D@2@@std@@QAEAAV12@II@Z ; std::basic_string<char,std::char_traits<char>,std::allocator<char> >::erase
  00037	56		 push	 esi
  00038	6a 00		 push	 0
  0003a	8b cb		 mov	 ecx, ebx
  0003c	e8 00 00 00 00	 call	 ?erase@?$basic_string@DU?$char_traits@D@std@@V?$allocator@D@2@@std@@QAEAAV12@II@Z ; std::basic_string<char,std::char_traits<char>,std::allocator<char> >::erase
  00041	5f		 pop	 edi
  00042	5e		 pop	 esi
  00043	5d		 pop	 ebp

; 603  : 			}
; 604  : 		return (*this);

  00044	8b c3		 mov	 eax, ebx
  00046	5b		 pop	 ebx

; 605  : 		}

  00047	c2 0c 00	 ret	 12			; 0000000cH
$L220004:

; 599  : 		else if (_Grow(_Num))

  0004a	83 fd fe	 cmp	 ebp, -2			; fffffffeH
  0004d	76 07		 jbe	 SHORT $L266609
  0004f	8b cb		 mov	 ecx, ebx
  00051	e8 00 00 00 00	 call	 ?_Xlen@_String_base@std@@QBEXXZ ; std::_String_base::_Xlen
$L266609:
  00056	8b 43 18	 mov	 eax, DWORD PTR [ebx+24]
  00059	3b c5		 cmp	 eax, ebp
  0005b	73 21		 jae	 SHORT $L266610
  0005d	8b 43 14	 mov	 eax, DWORD PTR [ebx+20]
  00060	50		 push	 eax
  00061	55		 push	 ebp
  00062	8b cb		 mov	 ecx, ebx
  00064	e8 00 00 00 00	 call	 ?_Copy@?$basic_string@DU?$char_traits@D@std@@V?$allocator@D@2@@std@@IAEXII@Z ; std::basic_string<char,std::char_traits<char>,std::allocator<char> >::_Copy
  00069	85 ed		 test	 ebp, ebp
$L266697:
  0006b	76 6d		 jbe	 SHORT $L266696

; 600  : 			{	// make room and assign new stuff
; 601  : 			_Traits::copy(_Myptr(), _Right._Myptr() + _Roff, _Num);

  0006d	8b 4f 18	 mov	 ecx, DWORD PTR [edi+24]
  00070	b8 10 00 00 00	 mov	 eax, 16			; 00000010H
  00075	3b c8		 cmp	 ecx, eax
  00077	72 2f		 jb	 SHORT $L266661
  00079	8b 57 04	 mov	 edx, DWORD PTR [edi+4]
  0007c	eb 2d		 jmp	 SHORT $L266662

; 599  : 		else if (_Grow(_Num))

$L266610:
  0007e	85 ed		 test	 ebp, ebp
  00080	75 e9		 jne	 SHORT $L266697
  00082	83 f8 10	 cmp	 eax, 16			; 00000010H
  00085	89 6b 14	 mov	 DWORD PTR [ebx+20], ebp
  00088	72 0f		 jb	 SHORT $L266653
  0008a	8b 43 04	 mov	 eax, DWORD PTR [ebx+4]
  0008d	5f		 pop	 edi
  0008e	5e		 pop	 esi
  0008f	c6 00 00	 mov	 BYTE PTR [eax], 0
  00092	5d		 pop	 ebp

; 603  : 			}
; 604  : 		return (*this);

  00093	8b c3		 mov	 eax, ebx
  00095	5b		 pop	 ebx

; 605  : 		}

  00096	c2 0c 00	 ret	 12			; 0000000cH

; 599  : 		else if (_Grow(_Num))

$L266653:
  00099	5f		 pop	 edi
  0009a	8d 43 04	 lea	 eax, DWORD PTR [ebx+4]
  0009d	5e		 pop	 esi
  0009e	c6 00 00	 mov	 BYTE PTR [eax], 0
  000a1	5d		 pop	 ebp

; 603  : 			}
; 604  : 		return (*this);

  000a2	8b c3		 mov	 eax, ebx
  000a4	5b		 pop	 ebx

; 605  : 		}

  000a5	c2 0c 00	 ret	 12			; 0000000cH

; 600  : 			{	// make room and assign new stuff
; 601  : 			_Traits::copy(_Myptr(), _Right._Myptr() + _Roff, _Num);

$L266661:
  000a8	8d 57 04	 lea	 edx, DWORD PTR [edi+4]
$L266662:
  000ab	39 43 18	 cmp	 DWORD PTR [ebx+24], eax
  000ae	8d 43 04	 lea	 eax, DWORD PTR [ebx+4]
  000b1	72 04		 jb	 SHORT $L266669
  000b3	8b 38		 mov	 edi, DWORD PTR [eax]
  000b5	eb 02		 jmp	 SHORT $L266670
$L266669:
  000b7	8b f8		 mov	 edi, eax
$L266670:
  000b9	03 f2		 add	 esi, edx
  000bb	8b cd		 mov	 ecx, ebp
  000bd	8b d1		 mov	 edx, ecx
  000bf	c1 e9 02	 shr	 ecx, 2
  000c2	f3 a5		 rep movsd
  000c4	8b ca		 mov	 ecx, edx
  000c6	83 e1 03	 and	 ecx, 3
  000c9	f3 a4		 rep movsb

; 602  : 			_Eos(_Num);

  000cb	83 7b 18 10	 cmp	 DWORD PTR [ebx+24], 16	; 00000010H
  000cf	89 6b 14	 mov	 DWORD PTR [ebx+20], ebp
  000d2	72 02		 jb	 SHORT $L266693
  000d4	8b 00		 mov	 eax, DWORD PTR [eax]
$L266693:
  000d6	c6 04 28 00	 mov	 BYTE PTR [eax+ebp], 0
$L266696:
  000da	5f		 pop	 edi
  000db	5e		 pop	 esi
  000dc	5d		 pop	 ebp

; 603  : 			}
; 604  : 		return (*this);

  000dd	8b c3		 mov	 eax, ebx
  000df	5b		 pop	 ebx

; 605  : 		}

  000e0	c2 0c 00	 ret	 12			; 0000000cH
?assign@?$basic_string@DU?$char_traits@D@std@@V?$allocator@D@2@@std@@QAEAAV12@ABV12@II@Z ENDP ; std::basic_string<char,std::char_traits<char>,std::allocator<char> >::assign
_TEXT	ENDS
PUBLIC	?SetString@?$CSimpleStringT@D$0A@@ATL@@QAEXPBD@Z ; ATL::CSimpleStringT<char,0>::SetString
; Function compile flags: /Ogty
; File c:\program files\microsoft visual studio .net 2003\vc7\atlmfc\include\atlsimpstr.h
;	COMDAT ?SetString@?$CSimpleStringT@D$0A@@ATL@@QAEXPBD@Z
_TEXT	SEGMENT
_pszSrc$ = 8						; size = 4
?SetString@?$CSimpleStringT@D$0A@@ATL@@QAEXPBD@Z PROC NEAR ; ATL::CSimpleStringT<char,0>::SetString, COMDAT
; _this$ = ecx

; 579  : 	{

  00000	56		 push	 esi

; 580  : 		SetString( pszSrc, StringLength( pszSrc ) );

  00001	8b 74 24 08	 mov	 esi, DWORD PTR _pszSrc$[esp]
  00005	85 f6		 test	 esi, esi
  00007	75 0d		 jne	 SHORT $L266704
  00009	33 c0		 xor	 eax, eax
  0000b	50		 push	 eax
  0000c	56		 push	 esi
  0000d	e8 00 00 00 00	 call	 ?SetString@?$CSimpleStringT@D$0A@@ATL@@QAEXPBDH@Z ; ATL::CSimpleStringT<char,0>::SetString
  00012	5e		 pop	 esi

; 581  : 	}

  00013	c2 04 00	 ret	 4

; 580  : 		SetString( pszSrc, StringLength( pszSrc ) );

$L266704:
  00016	8b c6		 mov	 eax, esi
  00018	57		 push	 edi
  00019	8d 78 01	 lea	 edi, DWORD PTR [eax+1]
  0001c	8d 64 24 00	 npad	 4
$L266706:
  00020	8a 10		 mov	 dl, BYTE PTR [eax]
  00022	40		 inc	 eax
  00023	84 d2		 test	 dl, dl
  00025	75 f9		 jne	 SHORT $L266706
  00027	2b c7		 sub	 eax, edi
  00029	5f		 pop	 edi
  0002a	50		 push	 eax
  0002b	56		 push	 esi
  0002c	e8 00 00 00 00	 call	 ?SetString@?$CSimpleStringT@D$0A@@ATL@@QAEXPBDH@Z ; ATL::CSimpleStringT<char,0>::SetString
  00031	5e		 pop	 esi

; 581  : 	}

  00032	c2 04 00	 ret	 4
?SetString@?$CSimpleStringT@D$0A@@ATL@@QAEXPBD@Z ENDP	; ATL::CSimpleStringT<char,0>::SetString
_TEXT	ENDS
PUBLIC	?assign@?$basic_string@DU?$char_traits@D@std@@V?$allocator@D@2@@std@@QAEAAV12@PBDI@Z ; std::basic_string<char,std::char_traits<char>,std::allocator<char> >::assign
; Function compile flags: /Ogty
; File c:\program files\microsoft visual studio .net 2003\vc7\include\xstring
;	COMDAT ?assign@?$basic_string@DU?$char_traits@D@std@@V?$allocator@D@2@@std@@QAEAAV12@PBDI@Z
_TEXT	SEGMENT
__Ptr$ = 8						; size = 4
__Num$ = 12						; size = 4
?assign@?$basic_string@DU?$char_traits@D@std@@V?$allocator@D@2@@std@@QAEAAV12@PBDI@Z PROC NEAR ; std::basic_string<char,std::char_traits<char>,std::allocator<char> >::assign, COMDAT
; _this$ = ecx

; 608  : 		{	// assign [_Ptr, _Ptr + _Num)

  00000	53		 push	 ebx
  00001	8b d9		 mov	 ebx, ecx

; 609  : 		if (_Inside(_Ptr))

  00003	8b 53 18	 mov	 edx, DWORD PTR [ebx+24]
  00006	83 fa 10	 cmp	 edx, 16			; 00000010H
  00009	56		 push	 esi
  0000a	57		 push	 edi
  0000b	72 05		 jb	 SHORT $L266728
  0000d	8b 43 04	 mov	 eax, DWORD PTR [ebx+4]
  00010	eb 03		 jmp	 SHORT $L266729
$L266728:
  00012	8d 43 04	 lea	 eax, DWORD PTR [ebx+4]
$L266729:
  00015	8b 74 24 10	 mov	 esi, DWORD PTR __Ptr$[esp+8]
  00019	3b f0		 cmp	 esi, eax
  0001b	72 34		 jb	 SHORT $L221367
  0001d	83 fa 10	 cmp	 edx, 16			; 00000010H
  00020	8d 43 04	 lea	 eax, DWORD PTR [ebx+4]
  00023	72 04		 jb	 SHORT $L266732
  00025	8b 08		 mov	 ecx, DWORD PTR [eax]
  00027	eb 02		 jmp	 SHORT $L266733
$L266732:
  00029	8b c8		 mov	 ecx, eax
$L266733:
  0002b	8b 7b 14	 mov	 edi, DWORD PTR [ebx+20]
  0002e	03 f9		 add	 edi, ecx
  00030	3b fe		 cmp	 edi, esi
  00032	76 1d		 jbe	 SHORT $L221367

; 610  : 			return (assign(*this, _Ptr - _Myptr(), _Num));	// substring

  00034	83 fa 10	 cmp	 edx, 16			; 00000010H
  00037	72 02		 jb	 SHORT $L266745
  00039	8b 00		 mov	 eax, DWORD PTR [eax]
$L266745:
  0003b	8b 4c 24 14	 mov	 ecx, DWORD PTR __Num$[esp+8]
  0003f	51		 push	 ecx
  00040	2b f0		 sub	 esi, eax
  00042	56		 push	 esi
  00043	53		 push	 ebx
  00044	8b cb		 mov	 ecx, ebx
  00046	e8 00 00 00 00	 call	 ?assign@?$basic_string@DU?$char_traits@D@std@@V?$allocator@D@2@@std@@QAEAAV12@ABV12@II@Z ; std::basic_string<char,std::char_traits<char>,std::allocator<char> >::assign
  0004b	5f		 pop	 edi
  0004c	5e		 pop	 esi
  0004d	5b		 pop	 ebx

; 618  : 		}

  0004e	c2 08 00	 ret	 8
$L221367:
  00051	55		 push	 ebp

; 611  : 
; 612  : 		if (_Grow(_Num))

  00052	8b 6c 24 18	 mov	 ebp, DWORD PTR __Num$[esp+12]
  00056	83 fd fe	 cmp	 ebp, -2			; fffffffeH
  00059	76 07		 jbe	 SHORT $L266843
  0005b	8b cb		 mov	 ecx, ebx
  0005d	e8 00 00 00 00	 call	 ?_Xlen@_String_base@std@@QBEXXZ ; std::_String_base::_Xlen
$L266843:
  00062	8b 43 18	 mov	 eax, DWORD PTR [ebx+24]
  00065	3b c5		 cmp	 eax, ebp
  00067	73 1b		 jae	 SHORT $L266844
  00069	8b 53 14	 mov	 edx, DWORD PTR [ebx+20]
  0006c	52		 push	 edx
  0006d	55		 push	 ebp
  0006e	8b cb		 mov	 ecx, ebx
  00070	e8 00 00 00 00	 call	 ?_Copy@?$basic_string@DU?$char_traits@D@std@@V?$allocator@D@2@@std@@IAEXII@Z ; std::basic_string<char,std::char_traits<char>,std::allocator<char> >::_Copy
  00075	85 ed		 test	 ebp, ebp
$L266924:
  00077	76 68		 jbe	 SHORT $L266921

; 613  : 			{	// make room and assign new stuff
; 614  : 			_Traits::copy(_Myptr(), _Ptr, _Num);

  00079	83 7b 18 10	 cmp	 DWORD PTR [ebx+24], 16	; 00000010H
  0007d	72 2f		 jb	 SHORT $L266896
  0007f	8b 7b 04	 mov	 edi, DWORD PTR [ebx+4]
  00082	eb 2d		 jmp	 SHORT $L266897

; 611  : 
; 612  : 		if (_Grow(_Num))

$L266844:
  00084	85 ed		 test	 ebp, ebp
  00086	75 ef		 jne	 SHORT $L266924
  00088	83 f8 10	 cmp	 eax, 16			; 00000010H
  0008b	89 6b 14	 mov	 DWORD PTR [ebx+20], ebp
  0008e	72 0f		 jb	 SHORT $L266887
  00090	8b 43 04	 mov	 eax, DWORD PTR [ebx+4]
  00093	5d		 pop	 ebp
  00094	5f		 pop	 edi
  00095	c6 00 00	 mov	 BYTE PTR [eax], 0
  00098	5e		 pop	 esi

; 616  : 			}
; 617  : 		return (*this);

  00099	8b c3		 mov	 eax, ebx
  0009b	5b		 pop	 ebx

; 618  : 		}

  0009c	c2 08 00	 ret	 8

; 611  : 
; 612  : 		if (_Grow(_Num))

$L266887:
  0009f	5d		 pop	 ebp
  000a0	8d 43 04	 lea	 eax, DWORD PTR [ebx+4]
  000a3	5f		 pop	 edi
  000a4	c6 00 00	 mov	 BYTE PTR [eax], 0
  000a7	5e		 pop	 esi

; 616  : 			}
; 617  : 		return (*this);

  000a8	8b c3		 mov	 eax, ebx
  000aa	5b		 pop	 ebx

; 618  : 		}

  000ab	c2 08 00	 ret	 8

; 613  : 			{	// make room and assign new stuff
; 614  : 			_Traits::copy(_Myptr(), _Ptr, _Num);

$L266896:
  000ae	8d 7b 04	 lea	 edi, DWORD PTR [ebx+4]
$L266897:
  000b1	8b cd		 mov	 ecx, ebp
  000b3	8b c1		 mov	 eax, ecx
  000b5	c1 e9 02	 shr	 ecx, 2
  000b8	f3 a5		 rep movsd
  000ba	8b c8		 mov	 ecx, eax
  000bc	83 e1 03	 and	 ecx, 3
  000bf	f3 a4		 rep movsb

; 615  : 			_Eos(_Num);

  000c1	83 7b 18 10	 cmp	 DWORD PTR [ebx+24], 16	; 00000010H
  000c5	89 6b 14	 mov	 DWORD PTR [ebx+20], ebp
  000c8	72 10		 jb	 SHORT $L266919
  000ca	8b 43 04	 mov	 eax, DWORD PTR [ebx+4]
  000cd	c6 04 28 00	 mov	 BYTE PTR [eax+ebp], 0
  000d1	5d		 pop	 ebp
  000d2	5f		 pop	 edi
  000d3	5e		 pop	 esi

; 616  : 			}
; 617  : 		return (*this);

  000d4	8b c3		 mov	 eax, ebx
  000d6	5b		 pop	 ebx

; 618  : 		}

  000d7	c2 08 00	 ret	 8

; 615  : 			_Eos(_Num);

$L266919:
  000da	8d 43 04	 lea	 eax, DWORD PTR [ebx+4]
  000dd	c6 04 28 00	 mov	 BYTE PTR [eax+ebp], 0
$L266921:
  000e1	5d		 pop	 ebp
  000e2	5f		 pop	 edi
  000e3	5e		 pop	 esi

; 616  : 			}
; 617  : 		return (*this);

  000e4	8b c3		 mov	 eax, ebx
  000e6	5b		 pop	 ebx

; 618  : 		}

  000e7	c2 08 00	 ret	 8
?assign@?$basic_string@DU?$char_traits@D@std@@V?$allocator@D@2@@std@@QAEAAV12@PBDI@Z ENDP ; std::basic_string<char,std::char_traits<char>,std::allocator<char> >::assign
_TEXT	ENDS
PUBLIC	?ReadRegion@CWorld@@QAEHAAVCScript@@@Z		; CWorld::ReadRegion
PUBLIC	??_C@_07OAIJKKOJ@region2?$AA@			; `string'
PUBLIC	??_C@_07PJJCJLKI@region3?$AA@			; `string'
PUBLIC	??_C@_02PCIJFNDE@?$AN?6?$AA@			; `string'
PUBLIC	??_C@_02JOGGLHBA@?2n?$AA@			; `string'
;	COMDAT ??_C@_07OAIJKKOJ@region2?$AA@
; File c:\documents and settings\test\mes documents\source\virtuos_v17\build\program\_common\region.h
CONST	SEGMENT
??_C@_07OAIJKKOJ@region2?$AA@ DB 'region2', 00H		; `string'
CONST	ENDS
;	COMDAT ??_C@_07PJJCJLKI@region3?$AA@
CONST	SEGMENT
??_C@_07PJJCJLKI@region3?$AA@ DB 'region3', 00H		; `string'
CONST	ENDS
;	COMDAT ??_C@_02PCIJFNDE@?$AN?6?$AA@
CONST	SEGMENT
??_C@_02PCIJFNDE@?$AN?6?$AA@ DB 0dH, 0aH, 00H		; `string'
CONST	ENDS
;	COMDAT ??_C@_02JOGGLHBA@?2n?$AA@
CONST	SEGMENT
??_C@_02JOGGLHBA@?2n?$AA@ DB '\n', 00H			; `string'
; Function compile flags: /Ogty
; File c:\documents and settings\test\mes documents\source\virtuos_v17\build\program\_common\worldfile.cpp
CONST	ENDS
;	COMDAT ?ReadRegion@CWorld@@QAEHAAVCScript@@@Z
_TEXT	SEGMENT
_bNewFormat$ = -796					; size = 4
$T267008 = -792						; size = 4
_bNewFormat3$ = -788					; size = 4
_dwIndex$ = -784					; size = 4
_vPos$ = -780						; size = 12
_re$ = -768						; size = 756
__$ArrayPad$ = -4					; size = 4
__$ReturnAddr$ = 4					; size = 4
_s$ = 8							; size = 4
?ReadRegion@CWorld@@QAEHAAVCScript@@@Z PROC NEAR	; CWorld::ReadRegion, COMDAT
; _this$ = ecx

; 414  : {

  00000	55		 push	 ebp
  00001	8b ec		 mov	 ebp, esp
  00003	83 e4 f8	 and	 esp, -8			; fffffff8H
  00006	81 ec 1c 03 00
	00		 sub	 esp, 796		; 0000031cH
  0000c	a1 00 00 00 00	 mov	 eax, DWORD PTR ___security_cookie
  00011	53		 push	 ebx
  00012	56		 push	 esi
  00013	8b 75 08	 mov	 esi, DWORD PTR _s$[ebp]
  00016	33 c5		 xor	 eax, ebp
  00018	57		 push	 edi
  00019	89 84 24 24 03
	00 00		 mov	 DWORD PTR __$ArrayPad$[esp+808], eax

; 415  : 	BOOL bNewFormat = FALSE;
; 416  : 	BOOL bNewFormat3 = FALSE;
; 417  : 	if( s.Token == _T( "region2" ) )

  00020	8b 46 20	 mov	 eax, DWORD PTR [esi+32]
  00023	8d 5e 20	 lea	 ebx, DWORD PTR [esi+32]
  00026	33 ff		 xor	 edi, edi
  00028	68 00 00 00 00	 push	 OFFSET FLAT:??_C@_07OAIJKKOJ@region2?$AA@
  0002d	50		 push	 eax
  0002e	89 4c 24 18	 mov	 DWORD PTR $T267008[esp+816], ecx
  00032	89 7c 24 14	 mov	 DWORD PTR _bNewFormat$[esp+816], edi
  00036	89 7c 24 1c	 mov	 DWORD PTR _bNewFormat3$[esp+816], edi
  0003a	e8 00 00 00 00	 call	 __mbscmp
  0003f	83 c4 08	 add	 esp, 8
  00042	85 c0		 test	 eax, eax
  00044	75 08		 jne	 SHORT $L258566

; 418  : 		bNewFormat = TRUE;

  00046	c7 44 24 0c 01
	00 00 00	 mov	 DWORD PTR _bNewFormat$[esp+808], 1
$L258566:

; 419  : 	if( s.Token == _T( "region3" ) )

  0004e	8b 03		 mov	 eax, DWORD PTR [ebx]
  00050	68 00 00 00 00	 push	 OFFSET FLAT:??_C@_07PJJCJLKI@region3?$AA@
  00055	50		 push	 eax
  00056	e8 00 00 00 00	 call	 __mbscmp
  0005b	83 c4 08	 add	 esp, 8
  0005e	85 c0		 test	 eax, eax
  00060	75 0d		 jne	 SHORT $L258568

; 420  : 	{
; 421  : 		bNewFormat3 = TRUE;

  00062	b8 01 00 00 00	 mov	 eax, 1
  00067	89 44 24 14	 mov	 DWORD PTR _bNewFormat3$[esp+808], eax

; 422  : 		bNewFormat = TRUE;

  0006b	89 44 24 0c	 mov	 DWORD PTR _bNewFormat$[esp+808], eax
$L258568:

; 423  : 	}
; 424  : 	DWORD dwType = s.GetNumber();

  0006f	57		 push	 edi
  00070	8b ce		 mov	 ecx, esi
  00072	e8 00 00 00 00	 call	 ?GetNumber@CScanner@@QAEHH@Z ; CScanner::GetNumber

; 425  : 	DWORD dwIndex = s.GetNumber();

  00077	57		 push	 edi
  00078	8b ce		 mov	 ecx, esi
  0007a	e8 00 00 00 00	 call	 ?GetNumber@CScanner@@QAEHH@Z ; CScanner::GetNumber

; 426  : 	D3DXVECTOR3 vPos;
; 427  : 	vPos.x = s.GetFloat();

  0007f	57		 push	 edi
  00080	8b ce		 mov	 ecx, esi
  00082	89 44 24 1c	 mov	 DWORD PTR _dwIndex$[esp+812], eax
  00086	e8 00 00 00 00	 call	 ?GetFloat@CScanner@@QAEMH@Z ; CScanner::GetFloat
  0008b	d9 5c 24 1c	 fstp	 DWORD PTR _vPos$[esp+808]

; 428  : 	vPos.y = s.GetFloat();

  0008f	57		 push	 edi
  00090	8b ce		 mov	 ecx, esi
  00092	e8 00 00 00 00	 call	 ?GetFloat@CScanner@@QAEMH@Z ; CScanner::GetFloat
  00097	d9 5c 24 20	 fstp	 DWORD PTR _vPos$[esp+812]

; 429  : 	vPos.z = s.GetFloat();

  0009b	57		 push	 edi
  0009c	8b ce		 mov	 ecx, esi
  0009e	e8 00 00 00 00	 call	 ?GetFloat@CScanner@@QAEMH@Z ; CScanner::GetFloat
  000a3	d9 5c 24 24	 fstp	 DWORD PTR _vPos$[esp+816]

; 430  : 
; 431  : 	REGIONELEM re,* pRe = &re;
; 432  : 	ZeroMemory( &re, sizeof( re ) );

  000a7	33 c0		 xor	 eax, eax
  000a9	b9 bd 00 00 00	 mov	 ecx, 189		; 000000bdH
  000ae	8d 7c 24 28	 lea	 edi, DWORD PTR _re$[esp+808]
  000b2	f3 ab		 rep stosd

; 433  : 
; 434  : 	pRe->m_uItemId		= 0xffffffff;

  000b4	83 c8 ff	 or	 eax, -1

; 435  : 	pRe->m_uiItemCount	= 0xffffffff;
; 436  : 	pRe->m_uiMinLevel	= 0xffffffff;
; 437  : 	pRe->m_uiMaxLevel	= 0xffffffff;
; 438  : 	pRe->m_iQuest		= 0xffffffff;
; 439  : 	pRe->m_iQuestFlag	= 0xffffffff;
; 440  : 	pRe->m_iJob			= 0xffffffff;
; 441  : 	pRe->m_iGender		= 0xffffffff;
; 442  : 	pRe->m_bCheckParty	= FALSE;

  000b7	33 ff		 xor	 edi, edi

; 443  : 	pRe->m_bCheckGuild	= FALSE;
; 444  : 	pRe->m_bChaoKey		= FALSE;
; 445  : 	pRe->m_dwAttribute	= s.GetNumber();

  000b9	57		 push	 edi
  000ba	8b ce		 mov	 ecx, esi
  000bc	89 84 24 f4 02
	00 00		 mov	 DWORD PTR _re$[esp+1524], eax
  000c3	89 84 24 f8 02
	00 00		 mov	 DWORD PTR _re$[esp+1528], eax
  000ca	89 84 24 fc 02
	00 00		 mov	 DWORD PTR _re$[esp+1532], eax
  000d1	89 84 24 00 03
	00 00		 mov	 DWORD PTR _re$[esp+1536], eax
  000d8	89 84 24 04 03
	00 00		 mov	 DWORD PTR _re$[esp+1540], eax
  000df	89 84 24 08 03
	00 00		 mov	 DWORD PTR _re$[esp+1544], eax
  000e6	89 84 24 0c 03
	00 00		 mov	 DWORD PTR _re$[esp+1548], eax
  000ed	89 84 24 10 03
	00 00		 mov	 DWORD PTR _re$[esp+1552], eax
  000f4	89 bc 24 14 03
	00 00		 mov	 DWORD PTR _re$[esp+1556], edi
  000fb	89 bc 24 18 03
	00 00		 mov	 DWORD PTR _re$[esp+1560], edi
  00102	89 bc 24 1c 03
	00 00		 mov	 DWORD PTR _re$[esp+1564], edi
  00109	e8 00 00 00 00	 call	 ?GetNumber@CScanner@@QAEHH@Z ; CScanner::GetNumber

; 446  : 	pRe->m_dwIdMusic = s.GetNumber();

  0010e	57		 push	 edi
  0010f	8b ce		 mov	 ecx, esi
  00111	89 84 24 cc 00
	00 00		 mov	 DWORD PTR _re$[esp+972], eax
  00118	e8 00 00 00 00	 call	 ?GetNumber@CScanner@@QAEHH@Z ; CScanner::GetNumber

; 447  : 	pRe->m_bDirectMusic = (bool)(s.GetNumber() == 1);

  0011d	57		 push	 edi
  0011e	8b ce		 mov	 ecx, esi
  00120	89 84 24 e8 02
	00 00		 mov	 DWORD PTR _re$[esp+1512], eax
  00127	e8 00 00 00 00	 call	 ?GetNumber@CScanner@@QAEHH@Z ; CScanner::GetNumber
  0012c	48		 dec	 eax
  0012d	f7 d8		 neg	 eax
  0012f	1a c0		 sbb	 al, al
  00131	fe c0		 inc	 al
  00133	88 84 24 de 02
	00 00		 mov	 BYTE PTR _re$[esp+1502], al

; 448  : 
; 449  : 	s.GetToken(); _tcscpy( pRe->m_szScript, s.token );

  0013a	8b 06		 mov	 eax, DWORD PTR [esi]
  0013c	57		 push	 edi
  0013d	8b ce		 mov	 ecx, esi
  0013f	ff 50 14	 call	 DWORD PTR [eax+20]
  00142	8b 46 24	 mov	 eax, DWORD PTR [esi+36]
  00145	8d 94 24 a8 00
	00 00		 lea	 edx, DWORD PTR _re$[esp+936]
  0014c	2b d0		 sub	 edx, eax
  0014e	8b ff		 npad	 2
$L266929:
  00150	8a 08		 mov	 cl, BYTE PTR [eax]
  00152	88 0c 02	 mov	 BYTE PTR [edx+eax], cl
  00155	40		 inc	 eax
  00156	84 c9		 test	 cl, cl
  00158	75 f6		 jne	 SHORT $L266929

; 450  : 	s.GetToken(); _tcscpy( pRe->m_szSound, s.token );

  0015a	8b 16		 mov	 edx, DWORD PTR [esi]
  0015c	57		 push	 edi
  0015d	8b ce		 mov	 ecx, esi
  0015f	ff 52 14	 call	 DWORD PTR [edx+20]
  00162	8b 46 24	 mov	 eax, DWORD PTR [esi+36]
  00165	8d 94 24 88 00
	00 00		 lea	 edx, DWORD PTR _re$[esp+904]
  0016c	2b d0		 sub	 edx, eax
  0016e	8b ff		 npad	 2
$L266930:
  00170	8a 08		 mov	 cl, BYTE PTR [eax]
  00172	88 0c 02	 mov	 BYTE PTR [edx+eax], cl
  00175	40		 inc	 eax
  00176	84 c9		 test	 cl, cl
  00178	75 f6		 jne	 SHORT $L266930

; 451  : 	pRe->m_dwIdTeleWorld = s.GetNumber();

  0017a	57		 push	 edi
  0017b	8b ce		 mov	 ecx, esi
  0017d	e8 00 00 00 00	 call	 ?GetNumber@CScanner@@QAEHH@Z ; CScanner::GetNumber

; 452  : 
; 453  : 	pRe->m_vPos        = vPos;

  00182	8b 4c 24 20	 mov	 ecx, DWORD PTR _vPos$[esp+812]
  00186	8b 54 24 24	 mov	 edx, DWORD PTR _vPos$[esp+816]
  0018a	89 84 24 84 00
	00 00		 mov	 DWORD PTR _re$[esp+900], eax
  00191	8b 44 24 1c	 mov	 eax, DWORD PTR _vPos$[esp+808]
  00195	89 4c 24 3c	 mov	 DWORD PTR _re$[esp+828], ecx

; 454  : 	pRe->m_vTeleWorld.x = s.GetFloat();

  00199	57		 push	 edi
  0019a	8b ce		 mov	 ecx, esi
  0019c	89 44 24 3c	 mov	 DWORD PTR _re$[esp+828], eax
  001a0	89 54 24 44	 mov	 DWORD PTR _re$[esp+836], edx
  001a4	e8 00 00 00 00	 call	 ?GetFloat@CScanner@@QAEMH@Z ; CScanner::GetFloat
  001a9	d9 5c 24 2c	 fstp	 DWORD PTR _re$[esp+812]

; 455  : 	pRe->m_vTeleWorld.y = s.GetFloat();

  001ad	57		 push	 edi
  001ae	8b ce		 mov	 ecx, esi
  001b0	e8 00 00 00 00	 call	 ?GetFloat@CScanner@@QAEMH@Z ; CScanner::GetFloat
  001b5	d9 5c 24 30	 fstp	 DWORD PTR _re$[esp+816]

; 456  : 	pRe->m_vTeleWorld.z = s.GetFloat();

  001b9	57		 push	 edi
  001ba	8b ce		 mov	 ecx, esi
  001bc	e8 00 00 00 00	 call	 ?GetFloat@CScanner@@QAEMH@Z ; CScanner::GetFloat
  001c1	d9 5c 24 34	 fstp	 DWORD PTR _re$[esp+820]

; 457  : 	pRe->m_rect.left   = (LONG)s.GetNumber();

  001c5	57		 push	 edi
  001c6	8b ce		 mov	 ecx, esi
  001c8	e8 00 00 00 00	 call	 ?GetNumber@CScanner@@QAEHH@Z ; CScanner::GetNumber

; 458  : 	pRe->m_rect.top	   = (LONG)s.GetNumber();

  001cd	57		 push	 edi
  001ce	8b ce		 mov	 ecx, esi
  001d0	89 84 24 d0 00
	00 00		 mov	 DWORD PTR _re$[esp+976], eax
  001d7	e8 00 00 00 00	 call	 ?GetNumber@CScanner@@QAEHH@Z ; CScanner::GetNumber

; 459  : 	pRe->m_rect.right  = (LONG)s.GetNumber();

  001dc	57		 push	 edi
  001dd	8b ce		 mov	 ecx, esi
  001df	89 84 24 d4 00
	00 00		 mov	 DWORD PTR _re$[esp+980], eax
  001e6	e8 00 00 00 00	 call	 ?GetNumber@CScanner@@QAEHH@Z ; CScanner::GetNumber

; 460  : 	pRe->m_rect.bottom = (LONG)s.GetNumber();

  001eb	57		 push	 edi
  001ec	8b ce		 mov	 ecx, esi
  001ee	89 84 24 d8 00
	00 00		 mov	 DWORD PTR _re$[esp+984], eax
  001f5	e8 00 00 00 00	 call	 ?GetNumber@CScanner@@QAEHH@Z ; CScanner::GetNumber
  001fa	89 84 24 d8 00
	00 00		 mov	 DWORD PTR _re$[esp+984], eax

; 461  : 	s.GetToken();

  00201	8b 06		 mov	 eax, DWORD PTR [esi]
  00203	57		 push	 edi
  00204	8b ce		 mov	 ecx, esi
  00206	ff 50 14	 call	 DWORD PTR [eax+20]

; 462  : 	strcpy( pRe->m_szKey, s.Token );

  00209	8b 03		 mov	 eax, DWORD PTR [ebx]
  0020b	8d 54 24 64	 lea	 edx, DWORD PTR _re$[esp+868]
  0020f	2b d0		 sub	 edx, eax
$L266931:
  00211	8a 08		 mov	 cl, BYTE PTR [eax]
  00213	88 0c 02	 mov	 BYTE PTR [edx+eax], cl
  00216	40		 inc	 eax
  00217	84 c9		 test	 cl, cl
  00219	75 f6		 jne	 SHORT $L266931

; 463  : 	pRe->m_bTargetKey  =  (bool)(s.GetNumber() == 1);

  0021b	57		 push	 edi
  0021c	8b ce		 mov	 ecx, esi
  0021e	e8 00 00 00 00	 call	 ?GetNumber@CScanner@@QAEHH@Z ; CScanner::GetNumber
  00223	48		 dec	 eax
  00224	f7 d8		 neg	 eax
  00226	1a c0		 sbb	 al, al
  00228	fe c0		 inc	 al
  0022a	88 84 24 e0 02
	00 00		 mov	 BYTE PTR _re$[esp+1504], al

; 464  : 	if( bNewFormat3 )

  00231	39 7c 24 14	 cmp	 DWORD PTR _bNewFormat3$[esp+808], edi
  00235	0f 84 a5 00 00
	00		 je	 $L258581

; 465  : 	{
; 466  : 		pRe->m_uItemId		= (u_long)s.GetNumber();

  0023b	57		 push	 edi
  0023c	8b ce		 mov	 ecx, esi
  0023e	e8 00 00 00 00	 call	 ?GetNumber@CScanner@@QAEHH@Z ; CScanner::GetNumber

; 467  : 		pRe->m_uiItemCount	= (UINT)s.GetNumber();

  00243	57		 push	 edi
  00244	8b ce		 mov	 ecx, esi
  00246	89 84 24 f4 02
	00 00		 mov	 DWORD PTR _re$[esp+1524], eax
  0024d	e8 00 00 00 00	 call	 ?GetNumber@CScanner@@QAEHH@Z ; CScanner::GetNumber

; 468  : 		pRe->m_uiMinLevel	= (UINT)s.GetNumber();

  00252	57		 push	 edi
  00253	8b ce		 mov	 ecx, esi
  00255	89 84 24 f8 02
	00 00		 mov	 DWORD PTR _re$[esp+1528], eax
  0025c	e8 00 00 00 00	 call	 ?GetNumber@CScanner@@QAEHH@Z ; CScanner::GetNumber

; 469  : 		pRe->m_uiMaxLevel	= (UINT)s.GetNumber();

  00261	57		 push	 edi
  00262	8b ce		 mov	 ecx, esi
  00264	89 84 24 fc 02
	00 00		 mov	 DWORD PTR _re$[esp+1532], eax
  0026b	e8 00 00 00 00	 call	 ?GetNumber@CScanner@@QAEHH@Z ; CScanner::GetNumber

; 470  : 		pRe->m_iQuest		= s.GetNumber();

  00270	57		 push	 edi
  00271	8b ce		 mov	 ecx, esi
  00273	89 84 24 00 03
	00 00		 mov	 DWORD PTR _re$[esp+1536], eax
  0027a	e8 00 00 00 00	 call	 ?GetNumber@CScanner@@QAEHH@Z ; CScanner::GetNumber

; 471  : 		pRe->m_iQuestFlag	= s.GetNumber();

  0027f	57		 push	 edi
  00280	8b ce		 mov	 ecx, esi
  00282	89 84 24 04 03
	00 00		 mov	 DWORD PTR _re$[esp+1540], eax
  00289	e8 00 00 00 00	 call	 ?GetNumber@CScanner@@QAEHH@Z ; CScanner::GetNumber

; 472  : 		pRe->m_iJob			= s.GetNumber();

  0028e	57		 push	 edi
  0028f	8b ce		 mov	 ecx, esi
  00291	89 84 24 08 03
	00 00		 mov	 DWORD PTR _re$[esp+1544], eax
  00298	e8 00 00 00 00	 call	 ?GetNumber@CScanner@@QAEHH@Z ; CScanner::GetNumber

; 473  : 		pRe->m_iGender		= s.GetNumber();

  0029d	57		 push	 edi
  0029e	8b ce		 mov	 ecx, esi
  002a0	89 84 24 0c 03
	00 00		 mov	 DWORD PTR _re$[esp+1548], eax
  002a7	e8 00 00 00 00	 call	 ?GetNumber@CScanner@@QAEHH@Z ; CScanner::GetNumber

; 474  : 		pRe->m_bCheckParty	= (BOOL)s.GetNumber();

  002ac	57		 push	 edi
  002ad	8b ce		 mov	 ecx, esi
  002af	89 84 24 10 03
	00 00		 mov	 DWORD PTR _re$[esp+1552], eax
  002b6	e8 00 00 00 00	 call	 ?GetNumber@CScanner@@QAEHH@Z ; CScanner::GetNumber

; 475  : 		pRe->m_bCheckGuild	= (BOOL)s.GetNumber();

  002bb	57		 push	 edi
  002bc	8b ce		 mov	 ecx, esi
  002be	89 84 24 14 03
	00 00		 mov	 DWORD PTR _re$[esp+1556], eax
  002c5	e8 00 00 00 00	 call	 ?GetNumber@CScanner@@QAEHH@Z ; CScanner::GetNumber

; 476  : 		pRe->m_bChaoKey		= (BOOL)s.GetNumber();

  002ca	57		 push	 edi
  002cb	8b ce		 mov	 ecx, esi
  002cd	89 84 24 18 03
	00 00		 mov	 DWORD PTR _re$[esp+1560], eax
  002d4	e8 00 00 00 00	 call	 ?GetNumber@CScanner@@QAEHH@Z ; CScanner::GetNumber
  002d9	89 84 24 18 03
	00 00		 mov	 DWORD PTR _re$[esp+1560], eax
$L258581:

; 477  : 	}
; 478  : 
; 479  : 	if( bNewFormat == FALSE )

  002e0	39 7c 24 0c	 cmp	 DWORD PTR _bNewFormat$[esp+808], edi

; 480  : 	{
; 481  : 		pRe->m_cDescSize = (char)( (LONG)s.GetNumber() );

  002e4	8b ce		 mov	 ecx, esi
  002e6	57		 push	 edi
  002e7	75 57		 jne	 SHORT $L258589
  002e9	e8 00 00 00 00	 call	 ?GetNumber@CScanner@@QAEHH@Z ; CScanner::GetNumber

; 482  : 		if( pRe->m_cDescSize )

  002ee	84 c0		 test	 al, al
  002f0	88 84 24 dd 00
	00 00		 mov	 BYTE PTR _re$[esp+989], al
  002f7	0f 84 f5 00 00
	00		 je	 $L258598

; 483  : 		{
; 484  : 			pRe->m_cDescSize = 1;
; 485  : 			s.GetToken(); // {

  002fd	8b 16		 mov	 edx, DWORD PTR [esi]
  002ff	57		 push	 edi
  00300	8b ce		 mov	 ecx, esi
  00302	c6 84 24 e1 00
	00 00 01	 mov	 BYTE PTR _re$[esp+993], 1
  0030a	ff 52 14	 call	 DWORD PTR [edx+20]

; 486  : 			s.GetToken();

  0030d	8b 06		 mov	 eax, DWORD PTR [esi]
  0030f	57		 push	 edi
  00310	8b ce		 mov	 ecx, esi
  00312	ff 50 14	 call	 DWORD PTR [eax+20]

; 487  : 
; 488  : 			s.Token.Replace( "\\n", "\r\n" );

  00315	68 00 00 00 00	 push	 OFFSET FLAT:??_C@_02PCIJFNDE@?$AN?6?$AA@
  0031a	68 00 00 00 00	 push	 OFFSET FLAT:??_C@_02JOGGLHBA@?2n?$AA@
  0031f	8b cb		 mov	 ecx, ebx
  00321	e8 00 00 00 00	 call	 ?Replace@?$CStringT@DV?$StrTraitMFC@DV?$ChTraitsCRT@D@ATL@@@@@ATL@@QAEHPBD0@Z ; ATL::CStringT<char,StrTraitMFC<char,ATL::ChTraitsCRT<char> > >::Replace

; 489  : 			strcpy( pRe->m_szDesc, s.Token );	

  00326	8b 03		 mov	 eax, DWORD PTR [ebx]
  00328	8d 94 24 de 00
	00 00		 lea	 edx, DWORD PTR _re$[esp+990]
  0032f	2b d0		 sub	 edx, eax
$L266932:
  00331	8a 08		 mov	 cl, BYTE PTR [eax]
  00333	88 0c 02	 mov	 BYTE PTR [edx+eax], cl
  00336	40		 inc	 eax
  00337	84 c9		 test	 cl, cl
  00339	75 f6		 jne	 SHORT $L266932

; 490  : 
; 491  : 			s.GetToken();	// }
; 492  : 
; 493  : 		}
; 494  : 	}
; 495  : 	else

  0033b	e9 aa 00 00 00	 jmp	 $L267019
$L258589:

; 496  : 	{
; 497  : 		s.GetToken(); // get "title"

  00340	8b 06		 mov	 eax, DWORD PTR [esi]
  00342	ff 50 14	 call	 DWORD PTR [eax+20]

; 498  : 		BOOL bDesc = s.GetNumber();

  00345	57		 push	 edi
  00346	8b ce		 mov	 ecx, esi
  00348	e8 00 00 00 00	 call	 ?GetNumber@CScanner@@QAEHH@Z ; CScanner::GetNumber

; 499  : 		if( bDesc )

  0034d	85 c0		 test	 eax, eax
  0034f	74 41		 je	 SHORT $L258597

; 500  : 		{
; 501  : 			s.GetToken(); // {

  00351	8b 16		 mov	 edx, DWORD PTR [esi]
  00353	57		 push	 edi
  00354	8b ce		 mov	 ecx, esi
  00356	ff 52 14	 call	 DWORD PTR [edx+20]

; 502  : 			s.GetToken();

  00359	8b 06		 mov	 eax, DWORD PTR [esi]
  0035b	57		 push	 edi
  0035c	8b ce		 mov	 ecx, esi
  0035e	ff 50 14	 call	 DWORD PTR [eax+20]

; 503  : 
; 504  : 			s.Token.Replace( "\\n", "\r\n" );

  00361	68 00 00 00 00	 push	 OFFSET FLAT:??_C@_02PCIJFNDE@?$AN?6?$AA@
  00366	68 00 00 00 00	 push	 OFFSET FLAT:??_C@_02JOGGLHBA@?2n?$AA@
  0036b	8b cb		 mov	 ecx, ebx
  0036d	e8 00 00 00 00	 call	 ?Replace@?$CStringT@DV?$StrTraitMFC@DV?$ChTraitsCRT@D@ATL@@@@@ATL@@QAEHPBD0@Z ; ATL::CStringT<char,StrTraitMFC<char,ATL::ChTraitsCRT<char> > >::Replace

; 505  : 			strcpy( pRe->m_szTitle, s.Token );

  00372	8b 03		 mov	 eax, DWORD PTR [ebx]
  00374	8d 94 24 de 01
	00 00		 lea	 edx, DWORD PTR _re$[esp+1246]
  0037b	2b d0		 sub	 edx, eax
  0037d	8d 49 00	 npad	 3
$L266933:
  00380	8a 08		 mov	 cl, BYTE PTR [eax]
  00382	88 0c 02	 mov	 BYTE PTR [edx+eax], cl
  00385	40		 inc	 eax
  00386	84 c9		 test	 cl, cl
  00388	75 f6		 jne	 SHORT $L266933

; 506  : 
; 507  : 			s.GetToken();	// }

  0038a	8b 16		 mov	 edx, DWORD PTR [esi]
  0038c	57		 push	 edi
  0038d	8b ce		 mov	 ecx, esi
  0038f	ff 52 14	 call	 DWORD PTR [edx+20]
$L258597:

; 508  : 		}
; 509  : 
; 510  : 		s.GetToken(); // get "desc"

  00392	8b 06		 mov	 eax, DWORD PTR [esi]
  00394	57		 push	 edi
  00395	8b ce		 mov	 ecx, esi
  00397	ff 50 14	 call	 DWORD PTR [eax+20]

; 511  : 		bDesc = s.GetNumber();

  0039a	57		 push	 edi
  0039b	8b ce		 mov	 ecx, esi
  0039d	e8 00 00 00 00	 call	 ?GetNumber@CScanner@@QAEHH@Z ; CScanner::GetNumber

; 512  : 		if( bDesc )

  003a2	85 c0		 test	 eax, eax
  003a4	74 4c		 je	 SHORT $L258598

; 513  : 		{
; 514  : 			pRe->m_cDescSize = 1;
; 515  : 			s.GetToken(); // {

  003a6	8b 16		 mov	 edx, DWORD PTR [esi]
  003a8	57		 push	 edi
  003a9	8b ce		 mov	 ecx, esi
  003ab	c6 84 24 e1 00
	00 00 01	 mov	 BYTE PTR _re$[esp+993], 1
  003b3	ff 52 14	 call	 DWORD PTR [edx+20]

; 516  : 			s.GetToken();

  003b6	8b 06		 mov	 eax, DWORD PTR [esi]
  003b8	57		 push	 edi
  003b9	8b ce		 mov	 ecx, esi
  003bb	ff 50 14	 call	 DWORD PTR [eax+20]

; 517  : 
; 518  : 			s.Token.Replace( "\\n", "\r\n" );

  003be	68 00 00 00 00	 push	 OFFSET FLAT:??_C@_02PCIJFNDE@?$AN?6?$AA@
  003c3	68 00 00 00 00	 push	 OFFSET FLAT:??_C@_02JOGGLHBA@?2n?$AA@
  003c8	8b cb		 mov	 ecx, ebx
  003ca	e8 00 00 00 00	 call	 ?Replace@?$CStringT@DV?$StrTraitMFC@DV?$ChTraitsCRT@D@ATL@@@@@ATL@@QAEHPBD0@Z ; ATL::CStringT<char,StrTraitMFC<char,ATL::ChTraitsCRT<char> > >::Replace

; 519  : 			strcpy( pRe->m_szDesc, s.Token );

  003cf	8b 03		 mov	 eax, DWORD PTR [ebx]
  003d1	8d 94 24 de 00
	00 00		 lea	 edx, DWORD PTR _re$[esp+990]
  003d8	2b d0		 sub	 edx, eax
  003da	8d 9b 00 00 00
	00		 npad	 6
$L266934:
  003e0	8a 08		 mov	 cl, BYTE PTR [eax]
  003e2	88 0c 02	 mov	 BYTE PTR [edx+eax], cl
  003e5	40		 inc	 eax
  003e6	84 c9		 test	 cl, cl
  003e8	75 f6		 jne	 SHORT $L266934
$L267019:

; 520  : 
; 521  : 			s.GetToken(); // }

  003ea	8b 16		 mov	 edx, DWORD PTR [esi]
  003ec	8b ce		 mov	 ecx, esi
  003ee	57		 push	 edi
  003ef	ff 52 14	 call	 DWORD PTR [edx+20]
$L258598:

; 522  : 		}
; 523  : 	}
; 524  : 
; 525  : 	
; 526  : 	if( ::GetLanguage() == LANG_KOR )	//__JAPAN_PVP

  003f2	e8 00 00 00 00	 call	 ?GetLanguage@@YAHXZ	; GetLanguage
  003f7	85 c0		 test	 eax, eax
  003f9	75 08		 jne	 SHORT $L258599

; 527  : 		pRe->m_dwAttribute &= ~RA_FIGHT;

  003fb	83 a4 24 c8 00
	00 00 bf	 and	 DWORD PTR _re$[esp+968], -65 ; ffffffbfH
$L258599:

; 528  : 
; 529  : #if __VER <= 8
; 530  : 	// 8   RA_PK RA_PENALTY_PK 
; 531  : 	if( pRe->m_dwAttribute & RA_PK )
; 532  : 	{
; 533  : 		pRe->m_dwAttribute	&= ~RA_PK;
; 534  : 		pRe->m_dwAttribute	|= RA_PENALTY_PK;
; 535  : 	}
; 536  : #endif	// __VER
; 537  : 
; 538  : 	switch( dwIndex )

  00403	8b 44 24 18	 mov	 eax, DWORD PTR _dwIndex$[esp+808]
  00407	83 f8 0c	 cmp	 eax, 12			; 0000000cH
  0040a	72 2c		 jb	 SHORT $L258606
  0040c	83 f8 0d	 cmp	 eax, 13			; 0000000dH
  0040f	76 52		 jbe	 SHORT $L267016
  00411	83 f8 0e	 cmp	 eax, 14			; 0000000eH
  00414	75 22		 jne	 SHORT $L258606

; 539  : 	{
; 540  : 	case RI_BEGIN:
; 541  : 	case RI_REVIVAL:
; 542  : 		break;
; 543  : 	case RI_STRUCTURE:
; 544  : 		m_aStructure.AddTail( pRe );

  00416	8b 4c 24 10	 mov	 ecx, DWORD PTR $T267008[esp+808]
  0041a	8b 81 44 87 0b
	00		 mov	 eax, DWORD PTR [ecx+755524]
  00420	8b d0		 mov	 edx, eax
  00422	69 d2 f4 02 00
	00		 imul	 edx, 756		; 000002f4H
  00428	40		 inc	 eax
  00429	8d bc 0a 48 87
	0b 00		 lea	 edi, DWORD PTR [edx+ecx+755528]
  00430	89 81 44 87 0b
	00		 mov	 DWORD PTR [ecx+755524], eax

; 545  : 		break;

  00436	eb 20		 jmp	 SHORT $L267020
$L258606:

; 546  : 	default:
; 547  : 		{
; 548  : 			m_aRegion.AddTail( pRe );	

  00438	8b 4c 24 10	 mov	 ecx, DWORD PTR $T267008[esp+808]
  0043c	8b 81 40 93 08
	00		 mov	 eax, DWORD PTR [ecx+561984]
  00442	8b d0		 mov	 edx, eax
  00444	69 d2 f4 02 00
	00		 imul	 edx, 756		; 000002f4H
  0044a	40		 inc	 eax
  0044b	8d bc 0a 44 93
	08 00		 lea	 edi, DWORD PTR [edx+ecx+561988]
  00452	89 81 40 93 08
	00		 mov	 DWORD PTR [ecx+561984], eax
$L267020:
  00458	8d 74 24 28	 lea	 esi, DWORD PTR _re$[esp+808]
  0045c	b9 bd 00 00 00	 mov	 ecx, 189		; 000000bdH
  00461	f3 a5		 rep movsd
$L267016:

; 549  : 			break;
; 550  : 		}
; 551  : 	}
; 552  : 	return TRUE;
; 553  : }

  00463	8b 8c 24 24 03
	00 00		 mov	 ecx, DWORD PTR __$ArrayPad$[esp+808]
  0046a	5f		 pop	 edi
  0046b	5e		 pop	 esi
  0046c	33 cd		 xor	 ecx, ebp
  0046e	b8 01 00 00 00	 mov	 eax, 1
  00473	5b		 pop	 ebx
  00474	e8 00 00 00 00	 call	 @__security_check_cookie@4
  00479	8b e5		 mov	 esp, ebp
  0047b	5d		 pop	 ebp
  0047c	c2 04 00	 ret	 4
?ReadRegion@CWorld@@QAEHAAVCScript@@@Z ENDP		; CWorld::ReadRegion
_TEXT	ENDS
PUBLIC	?IsUsableDYO@CWorld@@QAEHPAVCObj@@@Z		; CWorld::IsUsableDYO
PUBLIC	??_C@_0L@HNBIHNDK@Npc_Reward?$AA@		; `string'
PUBLIC	??_C@_0N@ECDDLOKN@MaMa_PKNPC01?$AA@		; `string'
PUBLIC	??_C@_0O@JHMCKCLL@MaFl_GuildWar?$AA@		; `string'
PUBLIC	??_C@_0N@CFLHKDHL@MaFl_Donaris?$AA@		; `string'
PUBLIC	??_C@_0L@COKDNMAK@MaFl_Annie?$AA@		; `string'
PUBLIC	??_C@_09IJFDCBKI@MaFl_Amos?$AA@			; `string'
PUBLIC	??_C@_08BOCINMNN@MaFl_Ray?$AA@			; `string'
PUBLIC	??_C@_0BF@GIDCKINC@MaFl_SecretRoom_EAST?$AA@	; `string'
PUBLIC	??_C@_0BF@HKGPDCHN@MaDa_SecretRoom_WEST?$AA@	; `string'
PUBLIC	??_C@_0O@KLHPCLJ@MaFl_HairShop?$AA@		; `string'
PUBLIC	??_C@_0N@EABLOLBA@MaFl_FaceOff?$AA@		; `string'
PUBLIC	??_C@_0BC@FLMJHIEJ@MaFl_RainbowStart?$AA@	; `string'
EXTRN	_stricmp:NEAR
EXTRN	?GetCharacter@CMover@@QAEPAUtagCHARACTER@@XZ:NEAR ; CMover::GetCharacter
;	COMDAT ??_C@_0L@HNBIHNDK@Npc_Reward?$AA@
; File c:\documents and settings\test\mes documents\source\virtuos_v17\build\program\_common\obj.h
CONST	SEGMENT
??_C@_0L@HNBIHNDK@Npc_Reward?$AA@ DB 'Npc_Reward', 00H	; `string'
CONST	ENDS
;	COMDAT ??_C@_0N@ECDDLOKN@MaMa_PKNPC01?$AA@
CONST	SEGMENT
??_C@_0N@ECDDLOKN@MaMa_PKNPC01?$AA@ DB 'MaMa_PKNPC01', 00H ; `string'
CONST	ENDS
;	COMDAT ??_C@_0O@JHMCKCLL@MaFl_GuildWar?$AA@
CONST	SEGMENT
??_C@_0O@JHMCKCLL@MaFl_GuildWar?$AA@ DB 'MaFl_GuildWar', 00H ; `string'
CONST	ENDS
;	COMDAT ??_C@_0N@CFLHKDHL@MaFl_Donaris?$AA@
CONST	SEGMENT
??_C@_0N@CFLHKDHL@MaFl_Donaris?$AA@ DB 'MaFl_Donaris', 00H ; `string'
CONST	ENDS
;	COMDAT ??_C@_0L@COKDNMAK@MaFl_Annie?$AA@
CONST	SEGMENT
??_C@_0L@COKDNMAK@MaFl_Annie?$AA@ DB 'MaFl_Annie', 00H	; `string'
CONST	ENDS
;	COMDAT ??_C@_09IJFDCBKI@MaFl_Amos?$AA@
CONST	SEGMENT
??_C@_09IJFDCBKI@MaFl_Amos?$AA@ DB 'MaFl_Amos', 00H	; `string'
CONST	ENDS
;	COMDAT ??_C@_08BOCINMNN@MaFl_Ray?$AA@
CONST	SEGMENT
??_C@_08BOCINMNN@MaFl_Ray?$AA@ DB 'MaFl_Ray', 00H	; `string'
CONST	ENDS
;	COMDAT ??_C@_0BF@GIDCKINC@MaFl_SecretRoom_EAST?$AA@
CONST	SEGMENT
??_C@_0BF@GIDCKINC@MaFl_SecretRoom_EAST?$AA@ DB 'MaFl_SecretRoom_EAST', 00H ; `string'
CONST	ENDS
;	COMDAT ??_C@_0BF@HKGPDCHN@MaDa_SecretRoom_WEST?$AA@
CONST	SEGMENT
??_C@_0BF@HKGPDCHN@MaDa_SecretRoom_WEST?$AA@ DB 'MaDa_SecretRoom_WEST', 00H ; `string'
CONST	ENDS
;	COMDAT ??_C@_0O@KLHPCLJ@MaFl_HairShop?$AA@
CONST	SEGMENT
??_C@_0O@KLHPCLJ@MaFl_HairShop?$AA@ DB 'MaFl_HairShop', 00H ; `string'
CONST	ENDS
;	COMDAT ??_C@_0N@EABLOLBA@MaFl_FaceOff?$AA@
CONST	SEGMENT
??_C@_0N@EABLOLBA@MaFl_FaceOff?$AA@ DB 'MaFl_FaceOff', 00H ; `string'
CONST	ENDS
;	COMDAT ??_C@_0BC@FLMJHIEJ@MaFl_RainbowStart?$AA@
CONST	SEGMENT
??_C@_0BC@FLMJHIEJ@MaFl_RainbowStart?$AA@ DB 'MaFl_RainbowStart', 00H ; `string'
; Function compile flags: /Ogty
; File c:\documents and settings\test\mes documents\source\virtuos_v17\build\program\_common\worldfile.cpp
CONST	ENDS
;	COMDAT ?IsUsableDYO@CWorld@@QAEHPAVCObj@@@Z
_TEXT	SEGMENT
_pObj$ = 8						; size = 4
?IsUsableDYO@CWorld@@QAEHPAVCObj@@@Z PROC NEAR		; CWorld::IsUsableDYO, COMDAT
; _this$ = ecx

; 1110 : {

  00000	56		 push	 esi
  00001	57		 push	 edi
  00002	8b f9		 mov	 edi, ecx

; 1111 : 	if( pObj->GetType() == OT_MOVER )

  00004	8b 4c 24 0c	 mov	 ecx, DWORD PTR _pObj$[esp+4]
  00008	83 b9 70 01 00
	00 05		 cmp	 DWORD PTR [ecx+368], 5
  0000f	0f 85 7f 01 00
	00		 jne	 $L258815

; 1112 : 	{
; 1113 : 		LPCHARACTER pCharacter	= ( (CMover*)pObj )->GetCharacter();

  00015	e8 00 00 00 00	 call	 ?GetCharacter@CMover@@QAEPAUtagCHARACTER@@XZ ; CMover::GetCharacter
  0001a	8b f0		 mov	 esi, eax

; 1114 : 		if( pCharacter )

  0001c	85 f6		 test	 esi, esi
  0001e	0f 84 70 01 00
	00		 je	 $L258815

; 1115 : 		{
; 1116 : 			// pk
; 1117 : 			if( stricmp( pCharacter->m_szKey, "Npc_Reward" ) == 0
; 1118 : 				|| stricmp( pCharacter->m_szKey, "MaMa_PKNPC01" ) == 0 )

  00024	68 00 00 00 00	 push	 OFFSET FLAT:??_C@_0L@HNBIHNDK@Npc_Reward?$AA@
  00029	56		 push	 esi
  0002a	e8 00 00 00 00	 call	 _stricmp
  0002f	83 c4 08	 add	 esp, 8
  00032	85 c0		 test	 eax, eax
  00034	74 12		 je	 SHORT $L258817
  00036	68 00 00 00 00	 push	 OFFSET FLAT:??_C@_0N@ECDDLOKN@MaMa_PKNPC01?$AA@
  0003b	56		 push	 esi
  0003c	e8 00 00 00 00	 call	 _stricmp
  00041	83 c4 08	 add	 esp, 8
  00044	85 c0		 test	 eax, eax
  00046	75 14		 jne	 SHORT $L258820
$L258817:

; 1119 : 			{
; 1120 : 				if( g_eLocal.GetState( EVE_PK ) == FALSE )

  00048	6a 0b		 push	 11			; 0000000bH
  0004a	b9 00 00 00 00	 mov	 ecx, OFFSET FLAT:?g_eLocal@@3VCFlyffEvent@@A
  0004f	e8 00 00 00 00	 call	 ?GetState@CFlyffEvent@@QAEEH@Z ; CFlyffEvent::GetState
  00054	84 c0		 test	 al, al

; 1121 : 					return FALSE;

  00056	0f 84 24 01 00
	00		 je	 $L258842
$L258820:

; 1122 : 			}
; 1123 : 			//  
; 1124 : 			if( stricmp( pCharacter->m_szKey, "MaFl_GuildWar" ) == 0
; 1125 : 					|| stricmp( pCharacter->m_szKey, "MaFl_Donaris" ) == 0 )

  0005c	68 00 00 00 00	 push	 OFFSET FLAT:??_C@_0O@JHMCKCLL@MaFl_GuildWar?$AA@
  00061	56		 push	 esi
  00062	e8 00 00 00 00	 call	 _stricmp
  00067	83 c4 08	 add	 esp, 8
  0006a	85 c0		 test	 eax, eax
  0006c	74 12		 je	 SHORT $L258822
  0006e	68 00 00 00 00	 push	 OFFSET FLAT:??_C@_0N@CFLHKDHL@MaFl_Donaris?$AA@
  00073	56		 push	 esi
  00074	e8 00 00 00 00	 call	 _stricmp
  00079	83 c4 08	 add	 esp, 8
  0007c	85 c0		 test	 eax, eax
  0007e	75 14		 jne	 SHORT $L258825
$L258822:

; 1126 : 			{
; 1127 : 				if( g_eLocal.GetState( EVE_GUILDCOMBAT ) == FALSE )

  00080	6a 0f		 push	 15			; 0000000fH
  00082	b9 00 00 00 00	 mov	 ecx, OFFSET FLAT:?g_eLocal@@3VCFlyffEvent@@A
  00087	e8 00 00 00 00	 call	 ?GetState@CFlyffEvent@@QAEEH@Z ; CFlyffEvent::GetState
  0008c	84 c0		 test	 al, al

; 1128 : 					return FALSE;

  0008e	0f 84 ec 00 00
	00		 je	 $L258842
$L258825:

; 1129 : 			}
; 1130 : #if __VER >= 11 // __GUILD_COMBAT_1TO1
; 1131 :  			if( stricmp( pCharacter->m_szKey, "MaFl_Annie" ) == 0
; 1132 :  					|| stricmp( pCharacter->m_szKey, "MaFl_Amos" ) == 0 )

  00094	68 00 00 00 00	 push	 OFFSET FLAT:??_C@_0L@COKDNMAK@MaFl_Annie?$AA@
  00099	56		 push	 esi
  0009a	e8 00 00 00 00	 call	 _stricmp
  0009f	83 c4 08	 add	 esp, 8
  000a2	85 c0		 test	 eax, eax
  000a4	74 12		 je	 SHORT $L258827
  000a6	68 00 00 00 00	 push	 OFFSET FLAT:??_C@_09IJFDCBKI@MaFl_Amos?$AA@
  000ab	56		 push	 esi
  000ac	e8 00 00 00 00	 call	 _stricmp
  000b1	83 c4 08	 add	 esp, 8
  000b4	85 c0		 test	 eax, eax
  000b6	75 14		 jne	 SHORT $L258830
$L258827:

; 1133 :  			{
; 1134 :  				if( g_eLocal.GetState( EVE_GUILDCOMBAT1TO1 ) == FALSE )

  000b8	6a 16		 push	 22			; 00000016H
  000ba	b9 00 00 00 00	 mov	 ecx, OFFSET FLAT:?g_eLocal@@3VCFlyffEvent@@A
  000bf	e8 00 00 00 00	 call	 ?GetState@CFlyffEvent@@QAEEH@Z ; CFlyffEvent::GetState
  000c4	84 c0		 test	 al, al

; 1135 :  					return FALSE;

  000c6	0f 84 b4 00 00
	00		 je	 $L258842
$L258830:

; 1136 :  			}
; 1137 : #endif // __GUILD_COMBAT_1TO1
; 1138 : 
; 1139 : #ifdef __JEFF_11_4
; 1140 : 			if( stricmp( pCharacter->m_szKey, "MaFl_Ray" ) == 0 )

  000cc	68 00 00 00 00	 push	 OFFSET FLAT:??_C@_08BOCINMNN@MaFl_Ray?$AA@
  000d1	56		 push	 esi
  000d2	e8 00 00 00 00	 call	 _stricmp
  000d7	83 c4 08	 add	 esp, 8
  000da	85 c0		 test	 eax, eax
  000dc	75 14		 jne	 SHORT $L258833

; 1141 :  			{
; 1142 :  				if( g_eLocal.GetState( EVE_ARENA ) == FALSE )

  000de	6a 17		 push	 23			; 00000017H
  000e0	b9 00 00 00 00	 mov	 ecx, OFFSET FLAT:?g_eLocal@@3VCFlyffEvent@@A
  000e5	e8 00 00 00 00	 call	 ?GetState@CFlyffEvent@@QAEEH@Z ; CFlyffEvent::GetState
  000ea	84 c0		 test	 al, al

; 1143 :  					return FALSE;

  000ec	0f 84 8e 00 00
	00		 je	 $L258842
$L258833:

; 1144 :  			}
; 1145 : #endif // __JEFF_11_4
; 1146 : 
; 1147 : 			if( stricmp( pCharacter->m_szKey, "MaFl_SecretRoom_EAST" ) == 0
; 1148 : 				|| stricmp( pCharacter->m_szKey, "MaDa_SecretRoom_WEST" ) == 0 )

  000f2	68 00 00 00 00	 push	 OFFSET FLAT:??_C@_0BF@GIDCKINC@MaFl_SecretRoom_EAST?$AA@
  000f7	56		 push	 esi
  000f8	e8 00 00 00 00	 call	 _stricmp
  000fd	83 c4 08	 add	 esp, 8
  00100	85 c0		 test	 eax, eax
  00102	74 12		 je	 SHORT $L258835
  00104	68 00 00 00 00	 push	 OFFSET FLAT:??_C@_0BF@HKGPDCHN@MaDa_SecretRoom_WEST?$AA@
  00109	56		 push	 esi
  0010a	e8 00 00 00 00	 call	 _stricmp
  0010f	83 c4 08	 add	 esp, 8
  00112	85 c0		 test	 eax, eax
  00114	75 10		 jne	 SHORT $L258838
$L258835:

; 1149 : 			{
; 1150 : 				if( g_eLocal.GetState( EVE_SECRETROOM ) == FALSE )

  00116	6a 18		 push	 24			; 00000018H
  00118	b9 00 00 00 00	 mov	 ecx, OFFSET FLAT:?g_eLocal@@3VCFlyffEvent@@A
  0011d	e8 00 00 00 00	 call	 ?GetState@CFlyffEvent@@QAEEH@Z ; CFlyffEvent::GetState
  00122	84 c0		 test	 al, al

; 1151 : 					return FALSE;

  00124	74 5a		 je	 SHORT $L258842
$L258838:

; 1152 : 			}
; 1153 : 
; 1154 : 			// don't load designer & artist in taiwan & japan
; 1155 : 			// ,  
; 1156 : 			if( ::GetLanguage() == LANG_TWN || ::GetLanguage() == LANG_HK )// || ::GetLanguage() == LANG_JAP )

  00126	e8 00 00 00 00	 call	 ?GetLanguage@@YAHXZ	; GetLanguage
  0012b	83 f8 05	 cmp	 eax, 5
  0012e	74 0a		 je	 SHORT $L258840
  00130	e8 00 00 00 00	 call	 ?GetLanguage@@YAHXZ	; GetLanguage
  00135	83 f8 09	 cmp	 eax, 9
  00138	75 24		 jne	 SHORT $L258841
$L258840:

; 1157 : 			{
; 1158 : 				if( stricmp( pCharacter->m_szKey, "MaFl_HairShop" ) == 0
; 1159 : 					|| stricmp( pCharacter->m_szKey, "MaFl_FaceOff" ) == 0 )

  0013a	68 00 00 00 00	 push	 OFFSET FLAT:??_C@_0O@KLHPCLJ@MaFl_HairShop?$AA@
  0013f	56		 push	 esi
  00140	e8 00 00 00 00	 call	 _stricmp
  00145	83 c4 08	 add	 esp, 8
  00148	85 c0		 test	 eax, eax
  0014a	74 34		 je	 SHORT $L258842
  0014c	68 00 00 00 00	 push	 OFFSET FLAT:??_C@_0N@EABLOLBA@MaFl_FaceOff?$AA@
  00151	56		 push	 esi
  00152	e8 00 00 00 00	 call	 _stricmp
  00157	83 c4 08	 add	 esp, 8
  0015a	85 c0		 test	 eax, eax
  0015c	74 22		 je	 SHORT $L258842
$L258841:

; 1160 : 					return FALSE;
; 1161 : 			}
; 1162 : 
; 1163 : 			// 13   -   ...
; 1164 : 			if( stricmp( pCharacter->m_szKey, "MaFl_RainbowStart" ) == 0 )

  0015e	68 00 00 00 00	 push	 OFFSET FLAT:??_C@_0BC@FLMJHIEJ@MaFl_RainbowStart?$AA@
  00163	56		 push	 esi
  00164	e8 00 00 00 00	 call	 _stricmp
  00169	83 c4 08	 add	 esp, 8
  0016c	85 c0		 test	 eax, eax
  0016e	75 17		 jne	 SHORT $L258847

; 1165 : 			{
; 1166 : 				if( g_eLocal.GetState( EVE_RAINBOWRACE ) == FALSE )

  00170	6a 19		 push	 25			; 00000019H
  00172	b9 00 00 00 00	 mov	 ecx, OFFSET FLAT:?g_eLocal@@3VCFlyffEvent@@A
  00177	e8 00 00 00 00	 call	 ?GetState@CFlyffEvent@@QAEEH@Z ; CFlyffEvent::GetState
  0017c	84 c0		 test	 al, al
  0017e	75 07		 jne	 SHORT $L258847
$L258842:
  00180	5f		 pop	 edi

; 1167 : 					return FALSE;

  00181	33 c0		 xor	 eax, eax
  00183	5e		 pop	 esi

; 1177 : }

  00184	c2 04 00	 ret	 4
$L258847:

; 1168 : 			}
; 1169 : 
; 1170 : #ifdef __CHIPI_DYO
; 1171 : 			return IsUsableDYO2( pCharacter );

  00187	56		 push	 esi
  00188	8b cf		 mov	 ecx, edi
  0018a	e8 00 00 00 00	 call	 ?IsUsableDYO2@CWorld@@QAEHPAUtagCHARACTER@@@Z ; CWorld::IsUsableDYO2
  0018f	5f		 pop	 edi
  00190	5e		 pop	 esi

; 1177 : }

  00191	c2 04 00	 ret	 4
$L258815:
  00194	5f		 pop	 edi

; 1172 : #endif // __CHIPI_DYO
; 1173 : 
; 1174 : 		}
; 1175 : 	}
; 1176 : 	return TRUE;

  00195	b8 01 00 00 00	 mov	 eax, 1
  0019a	5e		 pop	 esi

; 1177 : }

  0019b	c2 04 00	 ret	 4
?IsUsableDYO@CWorld@@QAEHPAVCObj@@@Z ENDP		; CWorld::IsUsableDYO
_TEXT	ENDS
PUBLIC	?Format@?$CStringT@DV?$StrTraitMFC@DV?$ChTraitsCRT@D@ATL@@@@@ATL@@QAAXPBDZZ ; ATL::CStringT<char,StrTraitMFC<char,ATL::ChTraitsCRT<char> > >::Format
; Function compile flags: /Ogty
; File c:\program files\microsoft visual studio .net 2003\vc7\atlmfc\include\cstringt.h
;	COMDAT ?Format@?$CStringT@DV?$StrTraitMFC@DV?$ChTraitsCRT@D@ATL@@@@@ATL@@QAAXPBDZZ
_TEXT	SEGMENT
_this$ = 8						; size = 4
_pszFormat$ = 12					; size = 4
?Format@?$CStringT@DV?$StrTraitMFC@DV?$ChTraitsCRT@D@ATL@@@@@ATL@@QAAXPBDZZ PROC NEAR ; ATL::CStringT<char,StrTraitMFC<char,ATL::ChTraitsCRT<char> > >::Format, COMDAT

; 1796 : 		ATLASSERT( AtlIsValidString( pszFormat ) );
; 1797 : 		
; 1798 : 		va_list argList;
; 1799 : 		va_start( argList, pszFormat );
; 1800 : 		FormatV( pszFormat, argList );

  00000	8b 4c 24 08	 mov	 ecx, DWORD PTR _pszFormat$[esp-4]
  00004	8d 44 24 0c	 lea	 eax, DWORD PTR _pszFormat$[esp]
  00008	50		 push	 eax
  00009	51		 push	 ecx
  0000a	8b 4c 24 0c	 mov	 ecx, DWORD PTR _this$[esp+4]
  0000e	e8 00 00 00 00	 call	 ?FormatV@?$CStringT@DV?$StrTraitMFC@DV?$ChTraitsCRT@D@ATL@@@@@ATL@@QAEXPBDPAD@Z ; ATL::CStringT<char,StrTraitMFC<char,ATL::ChTraitsCRT<char> > >::FormatV

; 1801 : 		va_end( argList );
; 1802 : 	}

  00013	c3		 ret	 0
?Format@?$CStringT@DV?$StrTraitMFC@DV?$ChTraitsCRT@D@ATL@@@@@ATL@@QAAXPBDZZ ENDP ; ATL::CStringT<char,StrTraitMFC<char,ATL::ChTraitsCRT<char> > >::Format
_TEXT	ENDS
PUBLIC	??0?$basic_string@DU?$char_traits@D@std@@V?$allocator@D@2@@std@@QAE@ABV01@@Z ; std::basic_string<char,std::char_traits<char>,std::allocator<char> >::basic_string<char,std::char_traits<char>,std::allocator<char> >
; Function compile flags: /Ogty
; File c:\program files\microsoft visual studio .net 2003\vc7\include\xstring
;	COMDAT ??0?$basic_string@DU?$char_traits@D@std@@V?$allocator@D@2@@std@@QAE@ABV01@@Z
_TEXT	SEGMENT
__Right$ = 8						; size = 4
??0?$basic_string@DU?$char_traits@D@std@@V?$allocator@D@2@@std@@QAE@ABV01@@Z PROC NEAR ; std::basic_string<char,std::char_traits<char>,std::allocator<char> >::basic_string<char,std::char_traits<char>,std::allocator<char> >, COMDAT
; _this$ = ecx

; 323  : 		{	// construct by copying _Right

  00000	56		 push	 esi

; 324  : 		_Tidy();

  00001	33 c0		 xor	 eax, eax
  00003	8b f1		 mov	 esi, ecx

; 325  : 		assign(_Right, 0, npos);

  00005	6a ff		 push	 -1
  00007	89 46 14	 mov	 DWORD PTR [esi+20], eax
  0000a	c7 46 18 0f 00
	00 00		 mov	 DWORD PTR [esi+24], 15	; 0000000fH
  00011	50		 push	 eax
  00012	88 46 04	 mov	 BYTE PTR [esi+4], al
  00015	8b 44 24 10	 mov	 eax, DWORD PTR __Right$[esp+8]
  00019	50		 push	 eax
  0001a	e8 00 00 00 00	 call	 ?assign@?$basic_string@DU?$char_traits@D@std@@V?$allocator@D@2@@std@@QAEAAV12@ABV12@II@Z ; std::basic_string<char,std::char_traits<char>,std::allocator<char> >::assign

; 326  : 		}

  0001f	8b c6		 mov	 eax, esi
  00021	5e		 pop	 esi
  00022	c2 04 00	 ret	 4
??0?$basic_string@DU?$char_traits@D@std@@V?$allocator@D@2@@std@@QAE@ABV01@@Z ENDP ; std::basic_string<char,std::char_traits<char>,std::allocator<char> >::basic_string<char,std::char_traits<char>,std::allocator<char> >
_TEXT	ENDS
PUBLIC	??4?$CSimpleStringT@D$0A@@ATL@@QAEAAV01@PBD@Z	; ATL::CSimpleStringT<char,0>::operator=
; Function compile flags: /Ogty
; File c:\program files\microsoft visual studio .net 2003\vc7\atlmfc\include\atlsimpstr.h
;	COMDAT ??4?$CSimpleStringT@D$0A@@ATL@@QAEAAV01@PBD@Z
_TEXT	SEGMENT
_pszSrc$ = 8						; size = 4
??4?$CSimpleStringT@D$0A@@ATL@@QAEAAV01@PBD@Z PROC NEAR	; ATL::CSimpleStringT<char,0>::operator=, COMDAT
; _this$ = ecx

; 316  : 		SetString( pszSrc );

  00000	8b 54 24 04	 mov	 edx, DWORD PTR _pszSrc$[esp-4]
  00004	85 d2		 test	 edx, edx
  00006	57		 push	 edi
  00007	8b f9		 mov	 edi, ecx
  00009	75 0f		 jne	 SHORT $L267109
  0000b	33 c0		 xor	 eax, eax
  0000d	50		 push	 eax
  0000e	52		 push	 edx
  0000f	e8 00 00 00 00	 call	 ?SetString@?$CSimpleStringT@D$0A@@ATL@@QAEXPBDH@Z ; ATL::CSimpleStringT<char,0>::SetString

; 317  : 
; 318  : 		return( *this );

  00014	8b c7		 mov	 eax, edi
  00016	5f		 pop	 edi

; 319  : 	}

  00017	c2 04 00	 ret	 4

; 316  : 		SetString( pszSrc );

$L267109:
  0001a	8b c2		 mov	 eax, edx
  0001c	56		 push	 esi
  0001d	8d 70 01	 lea	 esi, DWORD PTR [eax+1]
$L267111:
  00020	8a 08		 mov	 cl, BYTE PTR [eax]
  00022	40		 inc	 eax
  00023	84 c9		 test	 cl, cl
  00025	75 f9		 jne	 SHORT $L267111
  00027	2b c6		 sub	 eax, esi
  00029	5e		 pop	 esi
  0002a	50		 push	 eax
  0002b	52		 push	 edx
  0002c	8b cf		 mov	 ecx, edi
  0002e	e8 00 00 00 00	 call	 ?SetString@?$CSimpleStringT@D$0A@@ATL@@QAEXPBDH@Z ; ATL::CSimpleStringT<char,0>::SetString

; 317  : 
; 318  : 		return( *this );

  00033	8b c7		 mov	 eax, edi
  00035	5f		 pop	 edi

; 319  : 	}

  00036	c2 04 00	 ret	 4
??4?$CSimpleStringT@D$0A@@ATL@@QAEAAV01@PBD@Z ENDP	; ATL::CSimpleStringT<char,0>::operator=
_TEXT	ENDS
PUBLIC	?assign@?$basic_string@DU?$char_traits@D@std@@V?$allocator@D@2@@std@@QAEAAV12@PBD@Z ; std::basic_string<char,std::char_traits<char>,std::allocator<char> >::assign
; Function compile flags: /Ogty
; File c:\program files\microsoft visual studio .net 2003\vc7\include\xstring
;	COMDAT ?assign@?$basic_string@DU?$char_traits@D@std@@V?$allocator@D@2@@std@@QAEAAV12@PBD@Z
_TEXT	SEGMENT
__Ptr$ = 8						; size = 4
?assign@?$basic_string@DU?$char_traits@D@std@@V?$allocator@D@2@@std@@QAEAAV12@PBD@Z PROC NEAR ; std::basic_string<char,std::char_traits<char>,std::allocator<char> >::assign, COMDAT
; _this$ = ecx

; 621  : 		{	// assign [_Ptr, <null>)

  00000	56		 push	 esi

; 622  : 		return (assign(_Ptr, _Traits::length(_Ptr)));

  00001	8b 74 24 08	 mov	 esi, DWORD PTR __Ptr$[esp]
  00005	8b c6		 mov	 eax, esi
  00007	57		 push	 edi
  00008	8d 78 01	 lea	 edi, DWORD PTR [eax+1]
  0000b	eb 03 8d 49 00	 npad	 5
$L267118:
  00010	8a 10		 mov	 dl, BYTE PTR [eax]
  00012	40		 inc	 eax
  00013	84 d2		 test	 dl, dl
  00015	75 f9		 jne	 SHORT $L267118
  00017	2b c7		 sub	 eax, edi
  00019	50		 push	 eax
  0001a	56		 push	 esi
  0001b	e8 00 00 00 00	 call	 ?assign@?$basic_string@DU?$char_traits@D@std@@V?$allocator@D@2@@std@@QAEAAV12@PBDI@Z ; std::basic_string<char,std::char_traits<char>,std::allocator<char> >::assign
  00020	5f		 pop	 edi
  00021	5e		 pop	 esi

; 623  : 		}

  00022	c2 04 00	 ret	 4
?assign@?$basic_string@DU?$char_traits@D@std@@V?$allocator@D@2@@std@@QAEAAV12@PBD@Z ENDP ; std::basic_string<char,std::char_traits<char>,std::allocator<char> >::assign
_TEXT	ENDS
PUBLIC	??0logic_error@std@@QAE@ABV?$basic_string@DU?$char_traits@D@std@@V?$allocator@D@2@@1@@Z ; std::logic_error::logic_error
EXTRN	??0exception@@QAE@XZ:NEAR			; exception::exception
;	COMDAT xdata$x
; File c:\program files\microsoft visual studio .net 2003\vc7\include\iosfwd
xdata$x	SEGMENT
$T267222 DD	0ffffffffH
	DD	FLAT:$L267122
$T267220 DD	019930520H
	DD	01H
	DD	FLAT:$T267222
	DD	2 DUP(00H)
	DD	2 DUP(00H)
; Function compile flags: /Ogty
; File c:\program files\microsoft visual studio .net 2003\vc7\include\stdexcept
xdata$x	ENDS
;	COMDAT ??0logic_error@std@@QAE@ABV?$basic_string@DU?$char_traits@D@std@@V?$allocator@D@2@@1@@Z
_TEXT	SEGMENT
_this$ = -16						; size = 4
__$EHRec$ = -12						; size = 12
__Message$ = 8						; size = 4
??0logic_error@std@@QAE@ABV?$basic_string@DU?$char_traits@D@std@@V?$allocator@D@2@@1@@Z PROC NEAR ; std::logic_error::logic_error, COMDAT
; _this$ = ecx

; 19   : 		{	// construct from message string

  00000	6a ff		 push	 -1
  00002	68 00 00 00 00	 push	 __ehhandler$??0logic_error@std@@QAE@ABV?$basic_string@DU?$char_traits@D@std@@V?$allocator@D@2@@1@@Z
  00007	64 a1 00 00 00
	00		 mov	 eax, DWORD PTR fs:__except_list
  0000d	50		 push	 eax
  0000e	64 89 25 00 00
	00 00		 mov	 DWORD PTR fs:__except_list, esp
  00015	51		 push	 ecx
  00016	56		 push	 esi
  00017	8b f1		 mov	 esi, ecx
  00019	89 74 24 04	 mov	 DWORD PTR _this$[esp+20], esi
  0001d	e8 00 00 00 00	 call	 ??0exception@@QAE@XZ	; exception::exception
  00022	33 c0		 xor	 eax, eax
  00024	8d 4e 0c	 lea	 ecx, DWORD PTR [esi+12]
  00027	c7 06 00 00 00
	00		 mov	 DWORD PTR [esi], OFFSET FLAT:??_7logic_error@std@@6B@
  0002d	6a ff		 push	 -1
  0002f	89 41 14	 mov	 DWORD PTR [ecx+20], eax
  00032	c7 41 18 0f 00
	00 00		 mov	 DWORD PTR [ecx+24], 15	; 0000000fH
  00039	50		 push	 eax
  0003a	89 44 24 18	 mov	 DWORD PTR __$EHRec$[esp+36], eax
  0003e	88 41 04	 mov	 BYTE PTR [ecx+4], al
  00041	8b 44 24 20	 mov	 eax, DWORD PTR __Message$[esp+24]
  00045	50		 push	 eax
  00046	e8 00 00 00 00	 call	 ?assign@?$basic_string@DU?$char_traits@D@std@@V?$allocator@D@2@@std@@QAEAAV12@ABV12@II@Z ; std::basic_string<char,std::char_traits<char>,std::allocator<char> >::assign

; 20   : 		}

  0004b	8b 4c 24 08	 mov	 ecx, DWORD PTR __$EHRec$[esp+20]
  0004f	8b c6		 mov	 eax, esi
  00051	5e		 pop	 esi
  00052	64 89 0d 00 00
	00 00		 mov	 DWORD PTR fs:__except_list, ecx
  00059	83 c4 10	 add	 esp, 16			; 00000010H
  0005c	c2 04 00	 ret	 4
_TEXT	ENDS
;	COMDAT text$x
text$x	SEGMENT
$L267122:
  00000	8b 4d f0	 mov	 ecx, DWORD PTR _this$[ebp]
  00003	e9 00 00 00 00	 jmp	 ??1exception@@UAE@XZ	; exception::~exception
__ehhandler$??0logic_error@std@@QAE@ABV?$basic_string@DU?$char_traits@D@std@@V?$allocator@D@2@@1@@Z:
  00008	b8 00 00 00 00	 mov	 eax, OFFSET FLAT:$T267220
  0000d	e9 00 00 00 00	 jmp	 ___CxxFrameHandler
text$x	ENDS
??0logic_error@std@@QAE@ABV?$basic_string@DU?$char_traits@D@std@@V?$allocator@D@2@@1@@Z ENDP ; std::logic_error::logic_error
PUBLIC	??0length_error@std@@QAE@ABV?$basic_string@DU?$char_traits@D@std@@V?$allocator@D@2@@1@@Z ; std::length_error::length_error
PUBLIC	??_7length_error@std@@6B@			; std::length_error::`vftable'
PUBLIC	??_Glength_error@std@@UAEPAXI@Z			; std::length_error::`scalar deleting destructor'
EXTRN	??_Elength_error@std@@UAEPAXI@Z:NEAR		; std::length_error::`vector deleting destructor'
;	COMDAT ??_7length_error@std@@6B@
CONST	SEGMENT
??_7length_error@std@@6B@ DD FLAT:??_Elength_error@std@@UAEPAXI@Z ; std::length_error::`vftable'
	DD	FLAT:?what@logic_error@std@@UBEPBDXZ
; Function compile flags: /Ogty
CONST	ENDS
;	COMDAT ??0length_error@std@@QAE@ABV?$basic_string@DU?$char_traits@D@std@@V?$allocator@D@2@@1@@Z
_TEXT	SEGMENT
__Message$ = 8						; size = 4
??0length_error@std@@QAE@ABV?$basic_string@DU?$char_traits@D@std@@V?$allocator@D@2@@1@@Z PROC NEAR ; std::length_error::length_error, COMDAT
; _this$ = ecx

; 95   : 		{	// construct from message string

  00000	8b 44 24 04	 mov	 eax, DWORD PTR __Message$[esp-4]
  00004	56		 push	 esi
  00005	50		 push	 eax
  00006	8b f1		 mov	 esi, ecx
  00008	e8 00 00 00 00	 call	 ??0logic_error@std@@QAE@ABV?$basic_string@DU?$char_traits@D@std@@V?$allocator@D@2@@1@@Z ; std::logic_error::logic_error
  0000d	c7 06 00 00 00
	00		 mov	 DWORD PTR [esi], OFFSET FLAT:??_7length_error@std@@6B@

; 96   : 		}

  00013	8b c6		 mov	 eax, esi
  00015	5e		 pop	 esi
  00016	c2 04 00	 ret	 4
??0length_error@std@@QAE@ABV?$basic_string@DU?$char_traits@D@std@@V?$allocator@D@2@@1@@Z ENDP ; std::length_error::length_error
_TEXT	ENDS
PUBLIC	??1length_error@std@@UAE@XZ			; std::length_error::~length_error
; Function compile flags: /Ogty
;	COMDAT ??_Glength_error@std@@UAEPAXI@Z
_TEXT	SEGMENT
___flags$ = 8						; size = 4
??_Glength_error@std@@UAEPAXI@Z PROC NEAR		; std::length_error::`scalar deleting destructor', COMDAT
; _this$ = ecx
  00000	56		 push	 esi
  00001	8b f1		 mov	 esi, ecx
  00003	e8 00 00 00 00	 call	 ??1length_error@std@@UAE@XZ ; std::length_error::~length_error
  00008	f6 44 24 08 01	 test	 BYTE PTR ___flags$[esp], 1
  0000d	74 09		 je	 SHORT $L267232
  0000f	56		 push	 esi
  00010	e8 00 00 00 00	 call	 ??3@YAXPAX@Z		; operator delete
  00015	83 c4 04	 add	 esp, 4
$L267232:
  00018	8b c6		 mov	 eax, esi
  0001a	5e		 pop	 esi
  0001b	c2 04 00	 ret	 4
??_Glength_error@std@@UAEPAXI@Z ENDP			; std::length_error::`scalar deleting destructor'
; Function compile flags: /Ogty
_TEXT	ENDS
;	COMDAT ??1length_error@std@@UAE@XZ
_TEXT	SEGMENT
??1length_error@std@@UAE@XZ PROC NEAR			; std::length_error::~length_error, COMDAT
; _this$ = ecx

; 99   : 		{}	// destroy the object

  00000	56		 push	 esi
  00001	8b f1		 mov	 esi, ecx
  00003	c7 06 00 00 00
	00		 mov	 DWORD PTR [esi], OFFSET FLAT:??_7logic_error@std@@6B@
  00009	83 7e 24 10	 cmp	 DWORD PTR [esi+36], 16	; 00000010H
  0000d	72 0c		 jb	 SHORT $L267329
  0000f	8b 46 10	 mov	 eax, DWORD PTR [esi+16]
  00012	50		 push	 eax
  00013	e8 00 00 00 00	 call	 ??3@YAXPAX@Z		; operator delete
  00018	83 c4 04	 add	 esp, 4
$L267329:
  0001b	33 c0		 xor	 eax, eax
  0001d	c7 46 24 0f 00
	00 00		 mov	 DWORD PTR [esi+36], 15	; 0000000fH
  00024	89 46 20	 mov	 DWORD PTR [esi+32], eax
  00027	88 46 10	 mov	 BYTE PTR [esi+16], al
  0002a	8b ce		 mov	 ecx, esi
  0002c	5e		 pop	 esi
  0002d	e9 00 00 00 00	 jmp	 ??1exception@@UAE@XZ	; exception::~exception
??1length_error@std@@UAE@XZ ENDP			; std::length_error::~length_error
_TEXT	ENDS
PUBLIC	??4?$CStringT@DV?$StrTraitMFC@DV?$ChTraitsCRT@D@ATL@@@@@ATL@@QAEAAV01@PBD@Z ; ATL::CStringT<char,StrTraitMFC<char,ATL::ChTraitsCRT<char> > >::operator=
; Function compile flags: /Ogty
; File c:\program files\microsoft visual studio .net 2003\vc7\atlmfc\include\cstringt.h
;	COMDAT ??4?$CStringT@DV?$StrTraitMFC@DV?$ChTraitsCRT@D@ATL@@@@@ATL@@QAEAAV01@PBD@Z
_TEXT	SEGMENT
_pszSrc$ = 8						; size = 4
??4?$CStringT@DV?$StrTraitMFC@DV?$ChTraitsCRT@D@ATL@@@@@ATL@@QAEAAV01@PBD@Z PROC NEAR ; ATL::CStringT<char,StrTraitMFC<char,ATL::ChTraitsCRT<char> > >::operator=, COMDAT
; _this$ = ecx

; 983  : 		CThisSimpleString::operator=( pszSrc );

  00000	8b 54 24 04	 mov	 edx, DWORD PTR _pszSrc$[esp-4]
  00004	85 d2		 test	 edx, edx
  00006	57		 push	 edi
  00007	8b f9		 mov	 edi, ecx
  00009	75 0f		 jne	 SHORT $L267358
  0000b	33 c0		 xor	 eax, eax
  0000d	50		 push	 eax
  0000e	52		 push	 edx
  0000f	e8 00 00 00 00	 call	 ?SetString@?$CSimpleStringT@D$0A@@ATL@@QAEXPBDH@Z ; ATL::CSimpleStringT<char,0>::SetString

; 984  : 
; 985  : 		return( *this );

  00014	8b c7		 mov	 eax, edi
  00016	5f		 pop	 edi

; 986  : 	}

  00017	c2 04 00	 ret	 4

; 983  : 		CThisSimpleString::operator=( pszSrc );

$L267358:
  0001a	8b c2		 mov	 eax, edx
  0001c	56		 push	 esi
  0001d	8d 70 01	 lea	 esi, DWORD PTR [eax+1]
$L267361:
  00020	8a 08		 mov	 cl, BYTE PTR [eax]
  00022	40		 inc	 eax
  00023	84 c9		 test	 cl, cl
  00025	75 f9		 jne	 SHORT $L267361
  00027	2b c6		 sub	 eax, esi
  00029	5e		 pop	 esi
  0002a	50		 push	 eax
  0002b	52		 push	 edx
  0002c	8b cf		 mov	 ecx, edi
  0002e	e8 00 00 00 00	 call	 ?SetString@?$CSimpleStringT@D$0A@@ATL@@QAEXPBDH@Z ; ATL::CSimpleStringT<char,0>::SetString

; 984  : 
; 985  : 		return( *this );

  00033	8b c7		 mov	 eax, edi
  00035	5f		 pop	 edi

; 986  : 	}

  00036	c2 04 00	 ret	 4
??4?$CStringT@DV?$StrTraitMFC@DV?$ChTraitsCRT@D@ATL@@@@@ATL@@QAEAAV01@PBD@Z ENDP ; ATL::CStringT<char,StrTraitMFC<char,ATL::ChTraitsCRT<char> > >::operator=
_TEXT	ENDS
PUBLIC	??0?$basic_string@DU?$char_traits@D@std@@V?$allocator@D@2@@std@@QAE@PBD@Z ; std::basic_string<char,std::char_traits<char>,std::allocator<char> >::basic_string<char,std::char_traits<char>,std::allocator<char> >
; Function compile flags: /Ogty
; File c:\program files\microsoft visual studio .net 2003\vc7\include\xstring
;	COMDAT ??0?$basic_string@DU?$char_traits@D@std@@V?$allocator@D@2@@std@@QAE@PBD@Z
_TEXT	SEGMENT
__Ptr$ = 8						; size = 4
??0?$basic_string@DU?$char_traits@D@std@@V?$allocator@D@2@@std@@QAE@PBD@Z PROC NEAR ; std::basic_string<char,std::char_traits<char>,std::allocator<char> >::basic_string<char,std::char_traits<char>,std::allocator<char> >, COMDAT
; _this$ = ecx

; 361  : 		_Tidy();
; 362  : 		assign(_Ptr);

  00000	8b 54 24 04	 mov	 edx, DWORD PTR __Ptr$[esp-4]
  00004	56		 push	 esi
  00005	8b f1		 mov	 esi, ecx
  00007	8b c2		 mov	 eax, edx
  00009	57		 push	 edi
  0000a	c7 46 18 0f 00
	00 00		 mov	 DWORD PTR [esi+24], 15	; 0000000fH
  00011	c7 46 14 00 00
	00 00		 mov	 DWORD PTR [esi+20], 0
  00018	c6 46 04 00	 mov	 BYTE PTR [esi+4], 0
  0001c	8d 78 01	 lea	 edi, DWORD PTR [eax+1]
  0001f	90		 npad	 1
$L267437:
  00020	8a 08		 mov	 cl, BYTE PTR [eax]
  00022	40		 inc	 eax
  00023	84 c9		 test	 cl, cl
  00025	75 f9		 jne	 SHORT $L267437
  00027	2b c7		 sub	 eax, edi
  00029	50		 push	 eax
  0002a	52		 push	 edx
  0002b	8b ce		 mov	 ecx, esi
  0002d	e8 00 00 00 00	 call	 ?assign@?$basic_string@DU?$char_traits@D@std@@V?$allocator@D@2@@std@@QAEAAV12@PBDI@Z ; std::basic_string<char,std::char_traits<char>,std::allocator<char> >::assign
  00032	5f		 pop	 edi

; 363  : 		}

  00033	8b c6		 mov	 eax, esi
  00035	5e		 pop	 esi
  00036	c2 04 00	 ret	 4
??0?$basic_string@DU?$char_traits@D@std@@V?$allocator@D@2@@std@@QAE@PBD@Z ENDP ; std::basic_string<char,std::char_traits<char>,std::allocator<char> >::basic_string<char,std::char_traits<char>,std::allocator<char> >
_TEXT	ENDS
PUBLIC	??4?$basic_string@DU?$char_traits@D@std@@V?$allocator@D@2@@std@@QAEAAV01@PBD@Z ; std::basic_string<char,std::char_traits<char>,std::allocator<char> >::operator=
; Function compile flags: /Ogty
;	COMDAT ??4?$basic_string@DU?$char_traits@D@std@@V?$allocator@D@2@@std@@QAEAAV01@PBD@Z
_TEXT	SEGMENT
__Ptr$ = 8						; size = 4
??4?$basic_string@DU?$char_traits@D@std@@V?$allocator@D@2@@std@@QAEAAV01@PBD@Z PROC NEAR ; std::basic_string<char,std::char_traits<char>,std::allocator<char> >::operator=, COMDAT
; _this$ = ecx

; 471  : 		{	// assign [_Ptr, <null>)

  00000	56		 push	 esi

; 472  : 		return (assign(_Ptr));

  00001	8b 74 24 08	 mov	 esi, DWORD PTR __Ptr$[esp]
  00005	8b c6		 mov	 eax, esi
  00007	57		 push	 edi
  00008	8d 78 01	 lea	 edi, DWORD PTR [eax+1]
  0000b	eb 03 8d 49 00	 npad	 5
$L267449:
  00010	8a 10		 mov	 dl, BYTE PTR [eax]
  00012	40		 inc	 eax
  00013	84 d2		 test	 dl, dl
  00015	75 f9		 jne	 SHORT $L267449
  00017	2b c7		 sub	 eax, edi
  00019	50		 push	 eax
  0001a	56		 push	 esi
  0001b	e8 00 00 00 00	 call	 ?assign@?$basic_string@DU?$char_traits@D@std@@V?$allocator@D@2@@std@@QAEAAV12@PBDI@Z ; std::basic_string<char,std::char_traits<char>,std::allocator<char> >::assign
  00020	5f		 pop	 edi
  00021	5e		 pop	 esi

; 473  : 		}

  00022	c2 04 00	 ret	 4
??4?$basic_string@DU?$char_traits@D@std@@V?$allocator@D@2@@std@@QAEAAV01@PBD@Z ENDP ; std::basic_string<char,std::char_traits<char>,std::allocator<char> >::operator=
_TEXT	ENDS
PUBLIC	?OpenWorld@CWorld@@QAEHPBDH@Z			; CWorld::OpenWorld
PUBLIC	??_C@_01KICIPPFI@?2?$AA@			; `string'
PUBLIC	??_C@_04PBJIJNEF@?4wld?$AA@			; `string'
PUBLIC	??_C@_04IAGNFIBA@size?$AA@			; `string'
PUBLIC	??_C@_07LIABELBC@ambient?$AA@			; `string'
PUBLIC	??_C@_07CKHGFECF@revival?$AA@			; `string'
PUBLIC	??_C@_06BPDGOGCM@indoor?$AA@			; `string'
PUBLIC	??_C@_03HPMGHIMH@fly?$AA@			; `string'
PUBLIC	??_C@_03NCFPNHCE@bgm?$AA@			; `string'
PUBLIC	??_C@_06LJHLKHIE@pkmode?$AA@			; `string'
PUBLIC	??_C@_07KFBPAAO@diffuse?$AA@			; `string'
PUBLIC	??_C@_08IEJILPJD@lightDir?$AA@			; `string'
PUBLIC	??_C@_0L@IEOKJMIE@fogSetting?$AA@		; `string'
PUBLIC	??_C@_03BMLFCHKC@MPU?$AA@			; `string'
PUBLIC	??_C@_03BNEOMJOP@sky?$AA@			; `string'
PUBLIC	??_C@_05KMHBFKKJ@cloud?$AA@			; `string'
PUBLIC	??_C@_03OHFMDAD@sun?$AA@			; `string'
PUBLIC	??_C@_04IDMPJGHP@moon?$AA@			; `string'
PUBLIC	??_C@_0L@MLDBKMFO@use24light?$AA@		; `string'
EXTRN	?OLD_MPU@@3HB:DWORD				; OLD_MPU
EXTRN	?g_MPU@@3HA:DWORD				; g_MPU
EXTRN	?CalcBound@CWorld@@QAEXXZ:NEAR			; CWorld::CalcBound
EXTRN	??_U@YAPAXI@Z:NEAR				; operator new[]
EXTRN	__chkstk:NEAR
EXTRN	?GetHex@CScanner@@QAEKH@Z:NEAR			; CScanner::GetHex
EXTRN	??0CScript@@QAE@H@Z:NEAR			; CScript::CScript
EXTRN	??1CScript@@UAE@XZ:NEAR				; CScript::~CScript
EXTRN	?Init@CLayeredLinkMap@@QAEXHHHHH@Z:NEAR		; CLayeredLinkMap::Init
EXTRN	__splitpath:NEAR
EXTRN	?Load@CScript@@QAEHPBDHH@Z:NEAR			; CScript::Load
EXTRN	?GetToken@CScript@@UAEHH@Z:NEAR			; CScript::GetToken
;	COMDAT xdata$x
; File c:\program files\microsoft visual studio .net 2003\vc7\atlmfc\include\cstringt.h
xdata$x	SEGMENT
$T267675 DD	0ffffffffH
	DD	FLAT:$L267464
$T267652 DD	019930520H
	DD	01H
	DD	FLAT:$T267675
	DD	2 DUP(00H)
	DD	2 DUP(00H)
xdata$x	ENDS
;	COMDAT ??_C@_01KICIPPFI@?2?$AA@
CONST	SEGMENT
??_C@_01KICIPPFI@?2?$AA@ DB '\', 00H			; `string'
CONST	ENDS
;	COMDAT ??_C@_04PBJIJNEF@?4wld?$AA@
CONST	SEGMENT
??_C@_04PBJIJNEF@?4wld?$AA@ DB '.wld', 00H		; `string'
CONST	ENDS
;	COMDAT ??_C@_04IAGNFIBA@size?$AA@
CONST	SEGMENT
??_C@_04IAGNFIBA@size?$AA@ DB 'size', 00H		; `string'
CONST	ENDS
;	COMDAT ??_C@_07LIABELBC@ambient?$AA@
CONST	SEGMENT
??_C@_07LIABELBC@ambient?$AA@ DB 'ambient', 00H		; `string'
CONST	ENDS
;	COMDAT ??_C@_07CKHGFECF@revival?$AA@
CONST	SEGMENT
??_C@_07CKHGFECF@revival?$AA@ DB 'revival', 00H		; `string'
CONST	ENDS
;	COMDAT ??_C@_06BPDGOGCM@indoor?$AA@
CONST	SEGMENT
??_C@_06BPDGOGCM@indoor?$AA@ DB 'indoor', 00H		; `string'
CONST	ENDS
;	COMDAT ??_C@_03HPMGHIMH@fly?$AA@
CONST	SEGMENT
??_C@_03HPMGHIMH@fly?$AA@ DB 'fly', 00H			; `string'
CONST	ENDS
;	COMDAT ??_C@_03NCFPNHCE@bgm?$AA@
CONST	SEGMENT
??_C@_03NCFPNHCE@bgm?$AA@ DB 'bgm', 00H			; `string'
CONST	ENDS
;	COMDAT ??_C@_06LJHLKHIE@pkmode?$AA@
CONST	SEGMENT
??_C@_06LJHLKHIE@pkmode?$AA@ DB 'pkmode', 00H		; `string'
CONST	ENDS
;	COMDAT ??_C@_07KFBPAAO@diffuse?$AA@
CONST	SEGMENT
??_C@_07KFBPAAO@diffuse?$AA@ DB 'diffuse', 00H		; `string'
CONST	ENDS
;	COMDAT ??_C@_08IEJILPJD@lightDir?$AA@
CONST	SEGMENT
??_C@_08IEJILPJD@lightDir?$AA@ DB 'lightDir', 00H	; `string'
CONST	ENDS
;	COMDAT ??_C@_0L@IEOKJMIE@fogSetting?$AA@
CONST	SEGMENT
??_C@_0L@IEOKJMIE@fogSetting?$AA@ DB 'fogSetting', 00H	; `string'
CONST	ENDS
;	COMDAT ??_C@_03BMLFCHKC@MPU?$AA@
CONST	SEGMENT
??_C@_03BMLFCHKC@MPU?$AA@ DB 'MPU', 00H			; `string'
CONST	ENDS
;	COMDAT ??_C@_03BNEOMJOP@sky?$AA@
CONST	SEGMENT
??_C@_03BNEOMJOP@sky?$AA@ DB 'sky', 00H			; `string'
CONST	ENDS
;	COMDAT ??_C@_05KMHBFKKJ@cloud?$AA@
CONST	SEGMENT
??_C@_05KMHBFKKJ@cloud?$AA@ DB 'cloud', 00H		; `string'
CONST	ENDS
;	COMDAT ??_C@_03OHFMDAD@sun?$AA@
CONST	SEGMENT
??_C@_03OHFMDAD@sun?$AA@ DB 'sun', 00H			; `string'
CONST	ENDS
;	COMDAT ??_C@_04IDMPJGHP@moon?$AA@
CONST	SEGMENT
??_C@_04IDMPJGHP@moon?$AA@ DB 'moon', 00H		; `string'
CONST	ENDS
;	COMDAT ??_C@_0L@MLDBKMFO@use24light?$AA@
CONST	SEGMENT
??_C@_0L@MLDBKMFO@use24light?$AA@ DB 'use24light', 00H	; `string'
; Function compile flags: /Ogty
; File c:\documents and settings\test\mes documents\source\virtuos_v17\build\program\_common\worldfile.cpp
CONST	ENDS
;	COMDAT ?OpenWorld@CWorld@@QAEHPBDH@Z
_TEXT	SEGMENT
_drive$ = -4584						; size = 3
_script$ = -4580					; size = 3536
_szPathName$ = -1044					; size = 260
_name$ = -784						; size = 256
_dir$ = -528						; size = 256
_ext$ = -272						; size = 256
__$ArrayPad$ = -16					; size = 4
__$EHRec$ = -12						; size = 12
__$ReturnAddr$ = 4					; size = 4
_lpszFileName$ = 8					; size = 4
_bDir$ = 12						; size = 4
?OpenWorld@CWorld@@QAEHPBDH@Z PROC NEAR			; CWorld::OpenWorld, COMDAT
; _this$ = ecx

; 33   : {

  00000	6a ff		 push	 -1
  00002	68 00 00 00 00	 push	 __ehhandler$?OpenWorld@CWorld@@QAEHPBDH@Z
  00007	64 a1 00 00 00
	00		 mov	 eax, DWORD PTR fs:__except_list
  0000d	50		 push	 eax
  0000e	b8 dc 11 00 00	 mov	 eax, 4572		; 000011dcH
  00013	64 89 25 00 00
	00 00		 mov	 DWORD PTR fs:__except_list, esp
  0001a	e8 00 00 00 00	 call	 __chkstk
  0001f	a1 00 00 00 00	 mov	 eax, DWORD PTR ___security_cookie
  00024	33 c4		 xor	 eax, esp
  00026	55		 push	 ebp
  00027	89 84 24 dc 11
	00 00		 mov	 DWORD PTR __$ArrayPad$[esp+4588], eax

; 34   : 	TCHAR drive[_MAX_DRIVE], dir[_MAX_DIR], name[ _MAX_FNAME ], ext[_MAX_EXT];
; 35   : 	TCHAR szPathName[ _MAX_PATH ];
; 36   : 
; 37   : 	if( bDir == FALSE )

  0002e	8b 84 24 f4 11
	00 00		 mov	 eax, DWORD PTR _bDir$[esp+4584]
  00035	85 c0		 test	 eax, eax
  00037	56		 push	 esi
  00038	8b b4 24 f4 11
	00 00		 mov	 esi, DWORD PTR _lpszFileName$[esp+4588]
  0003f	57		 push	 edi
  00040	8b e9		 mov	 ebp, ecx
  00042	75 1b		 jne	 SHORT $L258416

; 38   : 	{
; 39   : 		strcpy( szPathName, lpszFileName );

  00044	8d 94 24 e0 0d
	00 00		 lea	 edx, DWORD PTR _szPathName$[esp+4596]
  0004b	8b c6		 mov	 eax, esi
  0004d	2b d6		 sub	 edx, esi
  0004f	90		 npad	 1
$L267454:
  00050	8a 08		 mov	 cl, BYTE PTR [eax]
  00052	88 0c 02	 mov	 BYTE PTR [edx+eax], cl
  00055	40		 inc	 eax
  00056	84 c9		 test	 cl, cl
  00058	75 f6		 jne	 SHORT $L267454

; 40   : 	}
; 41   : 	else

  0005a	e9 aa 00 00 00	 jmp	 $L258417
$L258416:

; 42   : 	{
; 43   : 		_splitpath( lpszFileName, drive, dir, name, ext );

  0005f	8d 84 24 e4 10
	00 00		 lea	 eax, DWORD PTR _ext$[esp+4596]
  00066	50		 push	 eax
  00067	8d 8c 24 e8 0e
	00 00		 lea	 ecx, DWORD PTR _name$[esp+4600]
  0006e	51		 push	 ecx
  0006f	8d 94 24 ec 0f
	00 00		 lea	 edx, DWORD PTR _dir$[esp+4604]
  00076	52		 push	 edx
  00077	8d 44 24 18	 lea	 eax, DWORD PTR _drive$[esp+4608]
  0007b	50		 push	 eax
  0007c	56		 push	 esi
  0007d	e8 00 00 00 00	 call	 __splitpath

; 44   : 		strcpy( szPathName, lpszFileName );

  00082	8d 94 24 f4 0d
	00 00		 lea	 edx, DWORD PTR _szPathName$[esp+4616]
  00089	83 c4 14	 add	 esp, 20			; 00000014H
  0008c	8b c6		 mov	 eax, esi
  0008e	2b d6		 sub	 edx, esi
$L267455:
  00090	8a 08		 mov	 cl, BYTE PTR [eax]
  00092	88 0c 02	 mov	 BYTE PTR [edx+eax], cl
  00095	40		 inc	 eax
  00096	84 c9		 test	 cl, cl
  00098	75 f6		 jne	 SHORT $L267455

; 45   : 		strcat( szPathName, "\\" );

  0009a	8d bc 24 e0 0d
	00 00		 lea	 edi, DWORD PTR _szPathName$[esp+4596]
  000a1	4f		 dec	 edi
$L267664:
  000a2	8a 47 01	 mov	 al, BYTE PTR [edi+1]
  000a5	47		 inc	 edi
  000a6	84 c0		 test	 al, al
  000a8	75 f8		 jne	 SHORT $L267664
  000aa	66 8b 0d 00 00
	00 00		 mov	 cx, WORD PTR ??_C@_01KICIPPFI@?2?$AA@

; 46   : 		strcat( szPathName, name );

  000b1	8d 84 24 e4 0e
	00 00		 lea	 eax, DWORD PTR _name$[esp+4596]
  000b8	66 89 0f	 mov	 WORD PTR [edi], cx
  000bb	8b d0		 mov	 edx, eax
  000bd	8d 49 00	 npad	 3
$L267665:
  000c0	8a 08		 mov	 cl, BYTE PTR [eax]
  000c2	40		 inc	 eax
  000c3	84 c9		 test	 cl, cl
  000c5	75 f9		 jne	 SHORT $L267665
  000c7	8d bc 24 e0 0d
	00 00		 lea	 edi, DWORD PTR _szPathName$[esp+4596]
  000ce	2b c2		 sub	 eax, edx
  000d0	4f		 dec	 edi
$L267666:
  000d1	8a 4f 01	 mov	 cl, BYTE PTR [edi+1]
  000d4	47		 inc	 edi
  000d5	84 c9		 test	 cl, cl
  000d7	75 f8		 jne	 SHORT $L267666
  000d9	8b c8		 mov	 ecx, eax
  000db	c1 e9 02	 shr	 ecx, 2
  000de	8b f2		 mov	 esi, edx
  000e0	f3 a5		 rep movsd
  000e2	8b c8		 mov	 ecx, eax
  000e4	83 e1 03	 and	 ecx, 3
  000e7	f3 a4		 rep movsb

; 47   : 		strcat( szPathName, ".wld" );

  000e9	8d bc 24 e0 0d
	00 00		 lea	 edi, DWORD PTR _szPathName$[esp+4596]
  000f0	4f		 dec	 edi
$L267667:
  000f1	8a 47 01	 mov	 al, BYTE PTR [edi+1]
  000f4	47		 inc	 edi
  000f5	84 c0		 test	 al, al
  000f7	75 f8		 jne	 SHORT $L267667
  000f9	8b 15 00 00 00
	00		 mov	 edx, DWORD PTR ??_C@_04PBJIJNEF@?4wld?$AA@
  000ff	a0 04 00 00 00	 mov	 al, BYTE PTR ??_C@_04PBJIJNEF@?4wld?$AA@+4
  00104	89 17		 mov	 DWORD PTR [edi], edx
  00106	88 47 04	 mov	 BYTE PTR [edi+4], al
$L258417:

; 48   : 	}
; 49   : 
; 50   : 	CScript script;	

  00109	6a 00		 push	 0
  0010b	8d 4c 24 14	 lea	 ecx, DWORD PTR _script$[esp+4600]
  0010f	e8 00 00 00 00	 call	 ??0CScript@@QAE@H@Z	; CScript::CScript

; 51   : 	if( script.Load( szPathName ) == FALSE )

  00114	6a 00		 push	 0
  00116	6a 01		 push	 1
  00118	8d 8c 24 e8 0d
	00 00		 lea	 ecx, DWORD PTR _szPathName$[esp+4604]
  0011f	51		 push	 ecx
  00120	8d 4c 24 1c	 lea	 ecx, DWORD PTR _script$[esp+4608]
  00124	c7 84 24 fc 11
	00 00 00 00 00
	00		 mov	 DWORD PTR __$EHRec$[esp+4616], 0
  0012f	e8 00 00 00 00	 call	 ?Load@CScript@@QAEHPBDHH@Z ; CScript::Load
  00134	85 c0		 test	 eax, eax
  00136	75 1b		 jne	 SHORT $L258421

; 52   : 		return FALSE;

  00138	8d 4c 24 10	 lea	 ecx, DWORD PTR _script$[esp+4596]
  0013c	c7 84 24 f0 11
	00 00 ff ff ff
	ff		 mov	 DWORD PTR __$EHRec$[esp+4604], -1
  00147	e8 00 00 00 00	 call	 ??1CScript@@UAE@XZ	; CScript::~CScript
  0014c	33 c0		 xor	 eax, eax
  0014e	e9 57 05 00 00	 jmp	 $L258410
$L258421:
  00153	53		 push	 ebx

; 53   : 
; 54   : 	bool bLoaded_MPU = false;

  00154	32 db		 xor	 bl, bl
  00156	eb 08 8d a4 24
	00 00 00 00 90	 npad	 10
$L258424:

; 55   : 
; 56   : 	do 
; 57   : 	{
; 58   : 		script.GetToken();

  00160	6a 00		 push	 0
  00162	8d 4c 24 18	 lea	 ecx, DWORD PTR _script$[esp+4604]
  00166	e8 00 00 00 00	 call	 ?GetToken@CScript@@UAEHH@Z ; CScript::GetToken

; 59   : 		if( script.Token == _T( "size" ) )

  0016b	8b 54 24 34	 mov	 edx, DWORD PTR _script$[esp+4632]
  0016f	68 00 00 00 00	 push	 OFFSET FLAT:??_C@_04IAGNFIBA@size?$AA@
  00174	52		 push	 edx
  00175	e8 00 00 00 00	 call	 __mbscmp
  0017a	83 c4 08	 add	 esp, 8
  0017d	85 c0		 test	 eax, eax
  0017f	75 32		 jne	 SHORT $L258427

; 60   : 		{
; 61   : 			m_nLandWidth = script.GetNumber();

  00181	50		 push	 eax
  00182	8d 4c 24 18	 lea	 ecx, DWORD PTR _script$[esp+4604]
  00186	e8 00 00 00 00	 call	 ?GetNumber@CScanner@@QAEHH@Z ; CScanner::GetNumber

; 62   : 			script.GetToken();

  0018b	6a 00		 push	 0
  0018d	8d 4c 24 18	 lea	 ecx, DWORD PTR _script$[esp+4604]
  00191	89 45 04	 mov	 DWORD PTR [ebp+4], eax
  00194	e8 00 00 00 00	 call	 ?GetToken@CScript@@UAEHH@Z ; CScript::GetToken

; 63   : 			m_nLandHeight = script.GetNumber();

  00199	6a 00		 push	 0
  0019b	8d 4c 24 18	 lea	 ecx, DWORD PTR _script$[esp+4604]
  0019f	e8 00 00 00 00	 call	 ?GetNumber@CScanner@@QAEHH@Z ; CScanner::GetNumber

; 64   : 			CalcBound();

  001a4	8b cd		 mov	 ecx, ebp
  001a6	89 45 08	 mov	 DWORD PTR [ebp+8], eax
  001a9	e8 00 00 00 00	 call	 ?CalcBound@CWorld@@QAEXXZ ; CWorld::CalcBound

; 65   : 		}
; 66   : 		else

  001ae	e9 74 03 00 00	 jmp	 $L258425
$L258427:

; 67   : 		if( script.Token == _T( "ambient" ) )

  001b3	8b 44 24 34	 mov	 eax, DWORD PTR _script$[esp+4632]
  001b7	68 00 00 00 00	 push	 OFFSET FLAT:??_C@_07LIABELBC@ambient?$AA@
  001bc	50		 push	 eax
  001bd	e8 00 00 00 00	 call	 __mbscmp
  001c2	83 c4 08	 add	 esp, 8
  001c5	85 c0		 test	 eax, eax
  001c7	0f 84 5a 03 00
	00		 je	 $L258425

; 68   : 		{
; 69   : 		#ifndef __WORLDSERVER
; 70   : 			m_dwAmbient = script.GetHex();
; 71   : 		#endif	// __WORLDSERVER
; 72   : 		}
; 73   : 		else
; 74   : 		if( script.Token == _T( "revival" ) )

  001cd	8b 4c 24 34	 mov	 ecx, DWORD PTR _script$[esp+4632]
  001d1	68 00 00 00 00	 push	 OFFSET FLAT:??_C@_07CKHGFECF@revival?$AA@
  001d6	51		 push	 ecx
  001d7	e8 00 00 00 00	 call	 __mbscmp
  001dc	83 c4 08	 add	 esp, 8
  001df	85 c0		 test	 eax, eax
  001e1	75 3c		 jne	 SHORT $L258433

; 75   : 		{
; 76   : 			m_dwIdWorldRevival = script.GetNumber();

  001e3	50		 push	 eax
  001e4	8d 4c 24 18	 lea	 ecx, DWORD PTR _script$[esp+4604]
  001e8	e8 00 00 00 00	 call	 ?GetNumber@CScanner@@QAEHH@Z ; CScanner::GetNumber

; 77   : 			script.GetToken();

  001ed	6a 00		 push	 0
  001ef	8d 4c 24 18	 lea	 ecx, DWORD PTR _script$[esp+4604]
  001f3	89 85 18 93 08
	00		 mov	 DWORD PTR [ebp+561944], eax
  001f9	e8 00 00 00 00	 call	 ?GetToken@CScript@@UAEHH@Z ; CScript::GetToken

; 78   : 			strcpy( m_szKeyRevival, script.token );

  001fe	8b 44 24 38	 mov	 eax, DWORD PTR _script$[esp+4636]
  00202	8b d5		 mov	 edx, ebp
  00204	2b d0		 sub	 edx, eax
  00206	81 c2 f8 92 08
	00		 add	 edx, 561912		; 000892f8H
  0020c	8d 64 24 00	 npad	 4
$L267457:
  00210	8a 08		 mov	 cl, BYTE PTR [eax]
  00212	88 0c 02	 mov	 BYTE PTR [edx+eax], cl
  00215	40		 inc	 eax
  00216	84 c9		 test	 cl, cl
  00218	75 f6		 jne	 SHORT $L267457

; 79   : 		}
; 80   : 		else

  0021a	e9 08 03 00 00	 jmp	 $L258425
$L258433:

; 81   : 		if( script.Token == _T( "indoor" ) )

  0021f	8b 44 24 34	 mov	 eax, DWORD PTR _script$[esp+4632]
  00223	68 00 00 00 00	 push	 OFFSET FLAT:??_C@_06BPDGOGCM@indoor?$AA@
  00228	50		 push	 eax
  00229	e8 00 00 00 00	 call	 __mbscmp
  0022e	83 c4 08	 add	 esp, 8
  00231	85 c0		 test	 eax, eax
  00233	75 15		 jne	 SHORT $L258436

; 82   : 		{
; 83   : 			m_bIsIndoor = script.GetNumber();

  00235	50		 push	 eax
  00236	8d 4c 24 18	 lea	 ecx, DWORD PTR _script$[esp+4604]
  0023a	e8 00 00 00 00	 call	 ?GetNumber@CScanner@@QAEHH@Z ; CScanner::GetNumber
  0023f	89 85 20 93 08
	00		 mov	 DWORD PTR [ebp+561952], eax

; 84   : 		#if defined( __CLIENT ) 
; 85   : 			m_bViewSkybox = m_bViewWeather = !m_bIsIndoor;
; 86   : 		#endif //__CLIENT
; 87   : 		}
; 88   : 		else

  00245	e9 dd 02 00 00	 jmp	 $L258425
$L258436:

; 89   : 		if( script.Token == _T( "fly" ) )

  0024a	8b 4c 24 34	 mov	 ecx, DWORD PTR _script$[esp+4632]
  0024e	68 00 00 00 00	 push	 OFFSET FLAT:??_C@_03HPMGHIMH@fly?$AA@
  00253	51		 push	 ecx
  00254	e8 00 00 00 00	 call	 __mbscmp
  00259	83 c4 08	 add	 esp, 8
  0025c	85 c0		 test	 eax, eax
  0025e	75 15		 jne	 SHORT $L258439

; 90   : 		{
; 91   : 			m_bFly = script.GetNumber();

  00260	50		 push	 eax
  00261	8d 4c 24 18	 lea	 ecx, DWORD PTR _script$[esp+4604]
  00265	e8 00 00 00 00	 call	 ?GetNumber@CScanner@@QAEHH@Z ; CScanner::GetNumber
  0026a	89 85 1c 93 08
	00		 mov	 DWORD PTR [ebp+561948], eax

; 92   : 		}
; 93   : 		else

  00270	e9 b2 02 00 00	 jmp	 $L258425
$L258439:

; 94   : 		if( script.Token == _T( "bgm" ) )

  00275	8b 54 24 34	 mov	 edx, DWORD PTR _script$[esp+4632]
  00279	68 00 00 00 00	 push	 OFFSET FLAT:??_C@_03NCFPNHCE@bgm?$AA@
  0027e	52		 push	 edx
  0027f	e8 00 00 00 00	 call	 __mbscmp
  00284	83 c4 08	 add	 esp, 8
  00287	85 c0		 test	 eax, eax
  00289	75 15		 jne	 SHORT $L258442

; 95   : 		{
; 96   : 			m_dwIdMusic = script.GetNumber();

  0028b	50		 push	 eax
  0028c	8d 4c 24 18	 lea	 ecx, DWORD PTR _script$[esp+4604]
  00290	e8 00 00 00 00	 call	 ?GetNumber@CScanner@@QAEHH@Z ; CScanner::GetNumber
  00295	89 85 34 93 08
	00		 mov	 DWORD PTR [ebp+561972], eax

; 97   : 		}
; 98   : 		else

  0029b	e9 87 02 00 00	 jmp	 $L258425
$L258442:

; 99   : 		if( script.Token == _T( "pkmode" ) )

  002a0	8b 44 24 34	 mov	 eax, DWORD PTR _script$[esp+4632]
  002a4	68 00 00 00 00	 push	 OFFSET FLAT:??_C@_06LJHLKHIE@pkmode?$AA@
  002a9	50		 push	 eax
  002aa	e8 00 00 00 00	 call	 __mbscmp
  002af	83 c4 08	 add	 esp, 8
  002b2	85 c0		 test	 eax, eax
  002b4	75 15		 jne	 SHORT $L258445

; 100  : 		{
; 101  : 			m_nPKMode = script.GetNumber();

  002b6	50		 push	 eax
  002b7	8d 4c 24 18	 lea	 ecx, DWORD PTR _script$[esp+4604]
  002bb	e8 00 00 00 00	 call	 ?GetNumber@CScanner@@QAEHH@Z ; CScanner::GetNumber
  002c0	89 85 38 93 08
	00		 mov	 DWORD PTR [ebp+561976], eax

; 102  : #if __VER <= 8
; 103  : 			// 8   RA_PK RA_PENALTY_PK 
; 104  : 			if( m_nPKMode & RA_PK )
; 105  : 			{
; 106  : 				m_nPKMode	&= ~RA_PK;
; 107  : 				m_nPKMode	|= RA_PENALTY_PK;
; 108  : 			}
; 109  : #endif	// __VER
; 110  : 
; 111  : 		}
; 112  : 		else

  002c6	e9 5c 02 00 00	 jmp	 $L258425
$L258445:

; 113  : 		if( script.Token == _T( "diffuse" ) )

  002cb	8b 4c 24 34	 mov	 ecx, DWORD PTR _script$[esp+4632]
  002cf	68 00 00 00 00	 push	 OFFSET FLAT:??_C@_07KFBPAAO@diffuse?$AA@
  002d4	51		 push	 ecx
  002d5	e8 00 00 00 00	 call	 __mbscmp
  002da	83 c4 08	 add	 esp, 8
  002dd	85 c0		 test	 eax, eax
  002df	75 15		 jne	 SHORT $L258448

; 114  : 		{
; 115  : 			m_dwDiffuse = script.GetHex();

  002e1	50		 push	 eax
  002e2	8d 4c 24 18	 lea	 ecx, DWORD PTR _script$[esp+4604]
  002e6	e8 00 00 00 00	 call	 ?GetHex@CScanner@@QAEKH@Z ; CScanner::GetHex
  002eb	89 85 24 93 08
	00		 mov	 DWORD PTR [ebp+561956], eax

; 116  : 		}
; 117  : 		else

  002f1	e9 31 02 00 00	 jmp	 $L258425
$L258448:

; 118  : 		if( script.Token == _T( "lightDir" ) )

  002f6	8d 54 24 34	 lea	 edx, DWORD PTR _script$[esp+4632]
  002fa	68 00 00 00 00	 push	 OFFSET FLAT:??_C@_08IEJILPJD@lightDir?$AA@
  002ff	52		 push	 edx
  00300	e8 00 00 00 00	 call	 ??8ATL@@YA_NABV?$CStringT@DV?$StrTraitMFC@DV?$ChTraitsCRT@D@ATL@@@@@0@PBD@Z ; ATL::operator==
  00305	83 c4 08	 add	 esp, 8
  00308	84 c0		 test	 al, al
  0030a	74 38		 je	 SHORT $L258451

; 119  : 		{
; 120  : 			m_v3LightDir.x = script.GetFloat();

  0030c	6a 00		 push	 0
  0030e	8d 4c 24 18	 lea	 ecx, DWORD PTR _script$[esp+4604]
  00312	e8 00 00 00 00	 call	 ?GetFloat@CScanner@@QAEMH@Z ; CScanner::GetFloat
  00317	d9 9d 28 93 08
	00		 fstp	 DWORD PTR [ebp+561960]

; 121  : 			m_v3LightDir.y = script.GetFloat();

  0031d	6a 00		 push	 0
  0031f	8d 4c 24 18	 lea	 ecx, DWORD PTR _script$[esp+4604]
  00323	e8 00 00 00 00	 call	 ?GetFloat@CScanner@@QAEMH@Z ; CScanner::GetFloat
  00328	d9 9d 2c 93 08
	00		 fstp	 DWORD PTR [ebp+561964]

; 122  : 			m_v3LightDir.z = script.GetFloat();

  0032e	6a 00		 push	 0
  00330	8d 4c 24 18	 lea	 ecx, DWORD PTR _script$[esp+4604]
  00334	e8 00 00 00 00	 call	 ?GetFloat@CScanner@@QAEMH@Z ; CScanner::GetFloat
  00339	d9 9d 30 93 08
	00		 fstp	 DWORD PTR [ebp+561968]

; 123  : 		}
; 124  : 		else

  0033f	e9 e3 01 00 00	 jmp	 $L258425
$L258451:

; 125  : 		if( script.Token == _T( "fogSetting" ) )

  00344	8d 44 24 34	 lea	 eax, DWORD PTR _script$[esp+4632]
  00348	68 00 00 00 00	 push	 OFFSET FLAT:??_C@_0L@IEOKJMIE@fogSetting?$AA@
  0034d	50		 push	 eax
  0034e	e8 00 00 00 00	 call	 ??8ATL@@YA_NABV?$CStringT@DV?$StrTraitMFC@DV?$ChTraitsCRT@D@ATL@@@@@0@PBD@Z ; ATL::operator==
  00353	83 c4 08	 add	 esp, 8
  00356	84 c0		 test	 al, al
  00358	0f 85 c9 01 00
	00		 jne	 $L258425

; 126  : 		{
; 127  : 		#if defined( __CLIENT )
; 128  : 			m_fFogStartValue = script.GetFloat();
; 129  : 			m_fFogEndValue   = script.GetFloat();
; 130  : 			m_fFogDensity    = script.GetFloat();
; 131  : 			
; 132  : 			#ifdef __YENV			
; 133  : 			s_fFogStart      = m_fFogStartValue;	//  
; 134  : 			s_fFogEnd        = m_fFogEndValue;		//  
; 135  : 			#endif //__YENV
; 136  : 		#endif //__CLIENT
; 137  : 		}			
; 138  : 		else 
; 139  : 		if( script.Token == __T("MPU") )

  0035e	8d 4c 24 34	 lea	 ecx, DWORD PTR _script$[esp+4632]
  00362	68 00 00 00 00	 push	 OFFSET FLAT:??_C@_03BMLFCHKC@MPU?$AA@
  00367	51		 push	 ecx
  00368	e8 00 00 00 00	 call	 ??8ATL@@YA_NABV?$CStringT@DV?$StrTraitMFC@DV?$ChTraitsCRT@D@ATL@@@@@0@PBD@Z ; ATL::operator==
  0036d	83 c4 08	 add	 esp, 8
  00370	84 c0		 test	 al, al
  00372	74 17		 je	 SHORT $L258457

; 140  : 		{
; 141  : 			bLoaded_MPU = true;
; 142  : 			g_MPU = script.GetNumber( );

  00374	6a 00		 push	 0
  00376	8d 4c 24 18	 lea	 ecx, DWORD PTR _script$[esp+4604]
  0037a	b3 01		 mov	 bl, 1
  0037c	e8 00 00 00 00	 call	 ?GetNumber@CScanner@@QAEHH@Z ; CScanner::GetNumber
  00381	a3 00 00 00 00	 mov	 DWORD PTR ?g_MPU@@3HA, eax ; g_MPU

; 143  : 		}
; 144  : 		
; 145  : 
; 146  : #if __VER >= 15 // __BS_CHANGING_ENVIR
; 147  : 		else

  00386	e9 9c 01 00 00	 jmp	 $L258425
$L258457:

; 148  : 		if( script.Token == __T( "sky" ) )

  0038b	8d 54 24 34	 lea	 edx, DWORD PTR _script$[esp+4632]
  0038f	68 00 00 00 00	 push	 OFFSET FLAT:??_C@_03BNEOMJOP@sky?$AA@
  00394	52		 push	 edx
  00395	e8 00 00 00 00	 call	 ??8ATL@@YA_NABV?$CStringT@DV?$StrTraitMFC@DV?$ChTraitsCRT@D@ATL@@@@@0@PBD@Z ; ATL::operator==
  0039a	83 c4 08	 add	 esp, 8
  0039d	84 c0		 test	 al, al
  0039f	74 50		 je	 SHORT $L258460

; 149  : 		{
; 150  : 			for( int i=0; i<3; ++i)

  003a1	8d b5 b4 7f 0e
	00		 lea	 esi, DWORD PTR [ebp+950196]
  003a7	bf 03 00 00 00	 mov	 edi, 3
  003ac	8d 64 24 00	 npad	 4
$L258463:

; 151  : 			{
; 152  : 				script.GetToken();

  003b0	6a 00		 push	 0
  003b2	8d 4c 24 18	 lea	 ecx, DWORD PTR _script$[esp+4604]
  003b6	e8 00 00 00 00	 call	 ?GetToken@CScript@@UAEHH@Z ; CScript::GetToken

; 153  : 				if( DEFAULT_FNAME != script.Token )

  003bb	8b 0d 00 00 00
	00		 mov	 ecx, DWORD PTR ?DEFAULT_FNAME@@3PBDB ; DEFAULT_FNAME
  003c1	8d 44 24 34	 lea	 eax, DWORD PTR _script$[esp+4632]
  003c5	50		 push	 eax
  003c6	51		 push	 ecx
  003c7	e8 00 00 00 00	 call	 ??9ATL@@YA_NPBDABV?$CStringT@DV?$StrTraitMFC@DV?$ChTraitsCRT@D@ATL@@@@@0@@Z ; ATL::operator!=
  003cc	83 c4 08	 add	 esp, 8
  003cf	84 c0		 test	 al, al
  003d1	74 13		 je	 SHORT $L258464

; 154  : 				{
; 155  : 					m_kWorldEnvir._kSky[i]._bUse = TRUE;
; 156  : 					m_kWorldEnvir._kSky[i]._strFileName = script.token;

  003d3	8b 54 24 38	 mov	 edx, DWORD PTR _script$[esp+4636]
  003d7	52		 push	 edx
  003d8	8b ce		 mov	 ecx, esi
  003da	c7 46 fc 01 00
	00 00		 mov	 DWORD PTR [esi-4], 1
  003e1	e8 00 00 00 00	 call	 ??4?$basic_string@DU?$char_traits@D@std@@V?$allocator@D@2@@std@@QAEAAV01@PBD@Z ; std::basic_string<char,std::char_traits<char>,std::allocator<char> >::operator=
$L258464:
  003e6	83 c6 24	 add	 esi, 36			; 00000024H
  003e9	4f		 dec	 edi
  003ea	75 c4		 jne	 SHORT $L258463

; 157  : 				}
; 158  : 			}
; 159  : 			
; 160  : 		}
; 161  : 		else

  003ec	e9 36 01 00 00	 jmp	 $L258425
$L258460:

; 162  : 		if( script.Token == __T( "cloud" ) )

  003f1	8d 44 24 34	 lea	 eax, DWORD PTR _script$[esp+4632]
  003f5	68 00 00 00 00	 push	 OFFSET FLAT:??_C@_05KMHBFKKJ@cloud?$AA@
  003fa	50		 push	 eax
  003fb	e8 00 00 00 00	 call	 ??8ATL@@YA_NABV?$CStringT@DV?$StrTraitMFC@DV?$ChTraitsCRT@D@ATL@@@@@0@PBD@Z ; ATL::operator==
  00400	83 c4 08	 add	 esp, 8
  00403	84 c0		 test	 al, al
  00405	74 4c		 je	 SHORT $L258468

; 163  : 		{
; 164  : 			for( int i=0; i<3; ++i)

  00407	8d b5 20 80 0e
	00		 lea	 esi, DWORD PTR [ebp+950304]
  0040d	bf 03 00 00 00	 mov	 edi, 3
$L258471:

; 165  : 			{
; 166  : 				script.GetToken();

  00412	6a 00		 push	 0
  00414	8d 4c 24 18	 lea	 ecx, DWORD PTR _script$[esp+4604]
  00418	e8 00 00 00 00	 call	 ?GetToken@CScript@@UAEHH@Z ; CScript::GetToken

; 167  : 				if( DEFAULT_FNAME != script.Token )

  0041d	8b 15 00 00 00
	00		 mov	 edx, DWORD PTR ?DEFAULT_FNAME@@3PBDB ; DEFAULT_FNAME
  00423	8d 4c 24 34	 lea	 ecx, DWORD PTR _script$[esp+4632]
  00427	51		 push	 ecx
  00428	52		 push	 edx
  00429	e8 00 00 00 00	 call	 ??9ATL@@YA_NPBDABV?$CStringT@DV?$StrTraitMFC@DV?$ChTraitsCRT@D@ATL@@@@@0@@Z ; ATL::operator!=
  0042e	83 c4 08	 add	 esp, 8
  00431	84 c0		 test	 al, al
  00433	74 13		 je	 SHORT $L258472

; 168  : 				{
; 169  : 					m_kWorldEnvir._kCloud[i]._bUse = TRUE;
; 170  : 					m_kWorldEnvir._kCloud[i]._strFileName = script.token;

  00435	8b 44 24 38	 mov	 eax, DWORD PTR _script$[esp+4636]
  00439	50		 push	 eax
  0043a	8b ce		 mov	 ecx, esi
  0043c	c7 46 fc 01 00
	00 00		 mov	 DWORD PTR [esi-4], 1
  00443	e8 00 00 00 00	 call	 ??4?$basic_string@DU?$char_traits@D@std@@V?$allocator@D@2@@std@@QAEAAV01@PBD@Z ; std::basic_string<char,std::char_traits<char>,std::allocator<char> >::operator=
$L258472:
  00448	83 c6 24	 add	 esi, 36			; 00000024H
  0044b	4f		 dec	 edi
  0044c	75 c4		 jne	 SHORT $L258471

; 171  : 				}
; 172  : 			}
; 173  : 		}
; 174  : 		else

  0044e	e9 d4 00 00 00	 jmp	 $L258425
$L258468:

; 175  : 		if( script.Token  == __T( "sun" ) )

  00453	8d 4c 24 34	 lea	 ecx, DWORD PTR _script$[esp+4632]
  00457	68 00 00 00 00	 push	 OFFSET FLAT:??_C@_03OHFMDAD@sun?$AA@
  0045c	51		 push	 ecx
  0045d	e8 00 00 00 00	 call	 ??8ATL@@YA_NABV?$CStringT@DV?$StrTraitMFC@DV?$ChTraitsCRT@D@ATL@@@@@0@PBD@Z ; ATL::operator==
  00462	83 c4 08	 add	 esp, 8
  00465	84 c0		 test	 al, al
  00467	74 42		 je	 SHORT $L258476

; 176  : 		{
; 177  : 			script.GetToken();

  00469	6a 00		 push	 0
  0046b	8d 4c 24 18	 lea	 ecx, DWORD PTR _script$[esp+4604]
  0046f	e8 00 00 00 00	 call	 ?GetToken@CScript@@UAEHH@Z ; CScript::GetToken

; 178  : 			if( DEFAULT_FNAME != script.Token )

  00474	a1 00 00 00 00	 mov	 eax, DWORD PTR ?DEFAULT_FNAME@@3PBDB ; DEFAULT_FNAME
  00479	8d 54 24 34	 lea	 edx, DWORD PTR _script$[esp+4632]
  0047d	52		 push	 edx
  0047e	50		 push	 eax
  0047f	e8 00 00 00 00	 call	 ??9ATL@@YA_NPBDABV?$CStringT@DV?$StrTraitMFC@DV?$ChTraitsCRT@D@ATL@@@@@0@@Z ; ATL::operator!=
  00484	83 c4 08	 add	 esp, 8
  00487	84 c0		 test	 al, al
  00489	0f 84 98 00 00
	00		 je	 $L258425

; 179  : 			{
; 180  : 				m_kWorldEnvir._kSun._bUse = TRUE;
; 181  : 				m_kWorldEnvir._kSun._strFileName = script.token;

  0048f	8b 4c 24 38	 mov	 ecx, DWORD PTR _script$[esp+4636]
  00493	51		 push	 ecx
  00494	8d 8d 8c 80 0e
	00		 lea	 ecx, DWORD PTR [ebp+950412]
  0049a	c7 85 88 80 0e
	00 01 00 00 00	 mov	 DWORD PTR [ebp+950408], 1
  004a4	e8 00 00 00 00	 call	 ??4?$basic_string@DU?$char_traits@D@std@@V?$allocator@D@2@@std@@QAEAAV01@PBD@Z ; std::basic_string<char,std::char_traits<char>,std::allocator<char> >::operator=

; 182  : 			}
; 183  : 		}
; 184  : 		else

  004a9	eb 7c		 jmp	 SHORT $L258425
$L258476:

; 185  : 		if( script.Token == __T( "moon" ) )

  004ab	8d 54 24 34	 lea	 edx, DWORD PTR _script$[esp+4632]
  004af	68 00 00 00 00	 push	 OFFSET FLAT:??_C@_04IDMPJGHP@moon?$AA@
  004b4	52		 push	 edx
  004b5	e8 00 00 00 00	 call	 ??8ATL@@YA_NABV?$CStringT@DV?$StrTraitMFC@DV?$ChTraitsCRT@D@ATL@@@@@0@PBD@Z ; ATL::operator==
  004ba	83 c4 08	 add	 esp, 8
  004bd	84 c0		 test	 al, al
  004bf	74 3f		 je	 SHORT $L258480

; 186  : 		{
; 187  : 			script.GetToken();

  004c1	6a 00		 push	 0
  004c3	8d 4c 24 18	 lea	 ecx, DWORD PTR _script$[esp+4604]
  004c7	e8 00 00 00 00	 call	 ?GetToken@CScript@@UAEHH@Z ; CScript::GetToken

; 188  : 			if( DEFAULT_FNAME != script.Token )

  004cc	8b 0d 00 00 00
	00		 mov	 ecx, DWORD PTR ?DEFAULT_FNAME@@3PBDB ; DEFAULT_FNAME
  004d2	8d 44 24 34	 lea	 eax, DWORD PTR _script$[esp+4632]
  004d6	50		 push	 eax
  004d7	51		 push	 ecx
  004d8	e8 00 00 00 00	 call	 ??9ATL@@YA_NPBDABV?$CStringT@DV?$StrTraitMFC@DV?$ChTraitsCRT@D@ATL@@@@@0@@Z ; ATL::operator!=
  004dd	83 c4 08	 add	 esp, 8
  004e0	84 c0		 test	 al, al
  004e2	74 43		 je	 SHORT $L258425

; 189  : 			{
; 190  : 				m_kWorldEnvir._kSun._bUse = TRUE;
; 191  : 				m_kWorldEnvir._kSun._strFileName = script.token;

  004e4	8b 54 24 38	 mov	 edx, DWORD PTR _script$[esp+4636]
  004e8	52		 push	 edx
  004e9	8d 8d 8c 80 0e
	00		 lea	 ecx, DWORD PTR [ebp+950412]
  004ef	c7 85 88 80 0e
	00 01 00 00 00	 mov	 DWORD PTR [ebp+950408], 1
  004f9	e8 00 00 00 00	 call	 ??4?$basic_string@DU?$char_traits@D@std@@V?$allocator@D@2@@std@@QAEAAV01@PBD@Z ; std::basic_string<char,std::char_traits<char>,std::allocator<char> >::operator=

; 192  : 			}
; 193  : 		}
; 194  : 		else

  004fe	eb 27		 jmp	 SHORT $L258425
$L258480:

; 195  : 		if( script.Token == __T( "use24light" ) )

  00500	8d 44 24 34	 lea	 eax, DWORD PTR _script$[esp+4632]
  00504	68 00 00 00 00	 push	 OFFSET FLAT:??_C@_0L@MLDBKMFO@use24light?$AA@
  00509	50		 push	 eax
  0050a	e8 00 00 00 00	 call	 ??8ATL@@YA_NABV?$CStringT@DV?$StrTraitMFC@DV?$ChTraitsCRT@D@ATL@@@@@0@PBD@Z ; ATL::operator==
  0050f	83 c4 08	 add	 esp, 8
  00512	84 c0		 test	 al, al
  00514	74 11		 je	 SHORT $L258425

; 196  : 		{
; 197  : 			m_bUsing24Light = script.GetNumber( );

  00516	6a 00		 push	 0
  00518	8d 4c 24 18	 lea	 ecx, DWORD PTR _script$[esp+4604]
  0051c	e8 00 00 00 00	 call	 ?GetNumber@CScanner@@QAEHH@Z ; CScanner::GetNumber
  00521	89 85 c4 7d 0e
	00		 mov	 DWORD PTR [ebp+949700], eax
$L258425:

; 198  : 		}
; 199  : #ifdef __BS_CHANGEABLE_WORLD_SEACLOUD
; 200  : 		else
; 201  : 		if( script.Token == __T( "seacloud" ) )
; 202  : 		{
; 203  : 			script.GetToken( );
; 204  : 			if( DEFAULT_FNAME != script.Token )
; 205  : 			{
; 206  : 				m_kSeaCloud._bUse = TRUE;
; 207  : 				m_kSeaCloud._strFileName = script.token;
; 208  : 			}
; 209  : 		}
; 210  : #endif //__BS_CHANGEABLE_WORLD_SEACLOUD
; 211  : 
; 212  : #endif
; 213  : 	} while( script.tok != FINISHED );

  00527	83 bc 24 40 08
	00 00 15	 cmp	 DWORD PTR _script$[esp+6692], 21 ; 00000015H
  0052f	0f 85 2b fc ff
	ff		 jne	 $L258424

; 214  : 
; 215  : 	if( !bLoaded_MPU )

  00535	84 db		 test	 bl, bl
  00537	5b		 pop	 ebx
  00538	75 0c		 jne	 SHORT $L267671

; 216  : 		g_MPU = OLD_MPU;

  0053a	8b 0d 00 00 00
	00		 mov	 ecx, DWORD PTR ?OLD_MPU@@3HB ; OLD_MPU
  00540	89 0d 00 00 00
	00		 mov	 DWORD PTR ?g_MPU@@3HA, ecx ; g_MPU
$L267671:

; 217  : 
; 218  : #ifdef __CLIENT
; 219  : 	m_nVisibilityLand	= (int)( m_fFarPlane / ( MAP_SIZE * MPU ) );
; 220  : #endif
; 221  : 
; 222  : #if __VER >= 15 // __DYNAMIC_MPU					// gmpbigsun:  MPU ,  MPU OLD_MPU  4   .
; 223  : 	m_iMPU = g_MPU;						// __DYNAMIC_MPU   ".wld"  MPU .!!!!!!!!!!!!!!!!!!!!!!!!

  00546	8b 15 00 00 00
	00		 mov	 edx, DWORD PTR ?g_MPU@@3HA ; g_MPU

; 224  : #else
; 225  : 	m_iMPU = OLD_MPU;
; 226  : #endif
; 227  : 
; 228  : 	//   
; 229  : 	_splitpath( szPathName, drive, dir, name, ext );

  0054c	8d 84 24 e4 10
	00 00		 lea	 eax, DWORD PTR _ext$[esp+4596]
  00553	50		 push	 eax
  00554	8d 8c 24 e8 0e
	00 00		 lea	 ecx, DWORD PTR _name$[esp+4600]
  0055b	51		 push	 ecx
  0055c	89 55 14	 mov	 DWORD PTR [ebp+20], edx
  0055f	8d 94 24 ec 0f
	00 00		 lea	 edx, DWORD PTR _dir$[esp+4604]
  00566	52		 push	 edx
  00567	8d 44 24 18	 lea	 eax, DWORD PTR _drive$[esp+4608]
  0056b	50		 push	 eax
  0056c	8d 8c 24 f0 0d
	00 00		 lea	 ecx, DWORD PTR _szPathName$[esp+4612]
  00573	51		 push	 ecx
  00574	e8 00 00 00 00	 call	 __splitpath

; 230  : 	strcpy( m_szFilePath, dir );

  00579	8d 84 24 f8 0f
	00 00		 lea	 eax, DWORD PTR _dir$[esp+4616]
  00580	8b d5		 mov	 edx, ebp
  00582	8b c8		 mov	 ecx, eax
  00584	2b d1		 sub	 edx, ecx
  00586	83 c4 14	 add	 esp, 20			; 00000014H
  00589	81 c2 34 91 08
	00		 add	 edx, 561460		; 00089134H
  0058f	90		 npad	 1
$L267458:
  00590	8a 08		 mov	 cl, BYTE PTR [eax]
  00592	88 0c 02	 mov	 BYTE PTR [edx+eax], cl
  00595	40		 inc	 eax
  00596	84 c9		 test	 cl, cl
  00598	75 f6		 jne	 SHORT $L267458

; 231  : 	strcpy( m_szFileName, name );

  0059a	8d 84 24 e4 0e
	00 00		 lea	 eax, DWORD PTR _name$[esp+4596]
  005a1	8d 95 38 92 08
	00		 lea	 edx, DWORD PTR [ebp+561720]
  005a7	8b f2		 mov	 esi, edx
  005a9	8b c8		 mov	 ecx, eax
  005ab	2b f1		 sub	 esi, ecx
  005ad	8d 49 00	 npad	 3
$L267459:
  005b0	8a 08		 mov	 cl, BYTE PTR [eax]
  005b2	88 0c 06	 mov	 BYTE PTR [esi+eax], cl
  005b5	40		 inc	 eax
  005b6	84 c9		 test	 cl, cl
  005b8	75 f6		 jne	 SHORT $L267459

; 232  : 	strcat( m_szFileName, ext );

  005ba	8d 84 24 e4 10
	00 00		 lea	 eax, DWORD PTR _ext$[esp+4596]
  005c1	8b f0		 mov	 esi, eax
$L267668:
  005c3	8a 08		 mov	 cl, BYTE PTR [eax]
  005c5	40		 inc	 eax
  005c6	84 c9		 test	 cl, cl
  005c8	75 f9		 jne	 SHORT $L267668
  005ca	8b fa		 mov	 edi, edx
  005cc	2b c6		 sub	 eax, esi
  005ce	4f		 dec	 edi
  005cf	90		 npad	 1
$L267669:
  005d0	8a 4f 01	 mov	 cl, BYTE PTR [edi+1]
  005d3	47		 inc	 edi
  005d4	84 c9		 test	 cl, cl
  005d6	75 f8		 jne	 SHORT $L267669
  005d8	8b c8		 mov	 ecx, eax
  005da	c1 e9 02	 shr	 ecx, 2
  005dd	f3 a5		 rep movsd
  005df	8b c8		 mov	 ecx, eax
  005e1	83 e1 03	 and	 ecx, 3
  005e4	f3 a4		 rep movsb

; 233  : 
; 234  : #ifdef __WORLDSERVER
; 235  : 	_tcscpy( m_lpszWorld, m_szFileName );

  005e6	8b cd		 mov	 ecx, ebp
  005e8	2b ca		 sub	 ecx, edx
  005ea	8b c2		 mov	 eax, edx
  005ec	8d 91 64 30 08
	00		 lea	 edx, DWORD PTR [ecx+536676]
$L267460:
  005f2	8a 08		 mov	 cl, BYTE PTR [eax]
  005f4	88 0c 02	 mov	 BYTE PTR [edx+eax], cl
  005f7	40		 inc	 eax
  005f8	84 c9		 test	 cl, cl
  005fa	75 f6		 jne	 SHORT $L267460

; 236  : 
; 237  : 	int nView = 1;								//  1 = 64 
; 238  : 	if( m_dwWorldID == WI_WORLD_GUILDWAR )	//    2 

  005fc	81 7d 00 ca 00
	00 00		 cmp	 DWORD PTR [ebp], 202	; 000000caH
  00603	b9 01 00 00 00	 mov	 ecx, 1
  00608	75 05		 jne	 SHORT $L258488

; 239  : 		nView = 2;

  0060a	b9 02 00 00 00	 mov	 ecx, 2
$L258488:

; 240  : 
; 241  : #if __VER >= 15 // __GUILD_HOUSE
; 242  : 	nView = nView + ( OLD_MPU - m_iMPU );

  0060f	8b 45 14	 mov	 eax, DWORD PTR [ebp+20]
  00612	8b 15 00 00 00
	00		 mov	 edx, DWORD PTR ?OLD_MPU@@3HB ; OLD_MPU

; 243  : #endif
; 244  : 
; 245  : 	m_linkMap.Init( m_nLandWidth, m_nLandHeight, nView, TRUE, m_iMPU );

  00618	50		 push	 eax
  00619	2b d0		 sub	 edx, eax
  0061b	8b 45 08	 mov	 eax, DWORD PTR [ebp+8]
  0061e	03 ca		 add	 ecx, edx
  00620	6a 01		 push	 1
  00622	51		 push	 ecx
  00623	8b 4d 04	 mov	 ecx, DWORD PTR [ebp+4]
  00626	50		 push	 eax
  00627	51		 push	 ecx
  00628	8d 4d 24	 lea	 ecx, DWORD PTR [ebp+36]
  0062b	e8 00 00 00 00	 call	 ?Init@CLayeredLinkMap@@QAEXHHHHH@Z ; CLayeredLinkMap::Init

; 246  : 	m_apHeightMap = new float[ WORLD_WIDTH * WORLD_HEIGHT ];

  00630	8b 55 0c	 mov	 edx, DWORD PTR [ebp+12]
  00633	0f af 55 10	 imul	 edx, DWORD PTR [ebp+16]
  00637	c1 e2 02	 shl	 edx, 2
  0063a	52		 push	 edx
  0063b	e8 00 00 00 00	 call	 ??_U@YAPAXI@Z		; operator new[]

; 247  : 	memset( m_apHeightMap, 0, sizeof( float ) * WORLD_WIDTH * WORLD_HEIGHT );

  00640	8b 4d 0c	 mov	 ecx, DWORD PTR [ebp+12]
  00643	0f af 4d 10	 imul	 ecx, DWORD PTR [ebp+16]
  00647	c1 e1 02	 shl	 ecx, 2
  0064a	8b f8		 mov	 edi, eax
  0064c	8b d1		 mov	 edx, ecx
  0064e	33 c0		 xor	 eax, eax
  00650	c1 e9 02	 shr	 ecx, 2
  00653	89 7d 1c	 mov	 DWORD PTR [ebp+28], edi
  00656	f3 ab		 rep stosd
  00658	8b ca		 mov	 ecx, edx
  0065a	83 e1 03	 and	 ecx, 3
  0065d	f3 aa		 rep stosb

; 248  : 	m_apWaterHeight = new WATERHEIGHT[ NUM_PATCHES_PER_SIDE * m_nLandWidth * NUM_PATCHES_PER_SIDE * m_nLandHeight ];

  0065f	8b 45 04	 mov	 eax, DWORD PTR [ebp+4]
  00662	0f af 45 08	 imul	 eax, DWORD PTR [ebp+8]
  00666	c1 e0 09	 shl	 eax, 9
  00669	50		 push	 eax
  0066a	e8 00 00 00 00	 call	 ??_U@YAPAXI@Z		; operator new[]

; 249  : 	memset( m_apWaterHeight, 0, sizeof( WATERHEIGHT) * NUM_PATCHES_PER_SIDE * m_nLandWidth * NUM_PATCHES_PER_SIDE * m_nLandHeight );

  0066f	8b 4d 04	 mov	 ecx, DWORD PTR [ebp+4]
  00672	0f af 4d 08	 imul	 ecx, DWORD PTR [ebp+8]
  00676	c1 e1 09	 shl	 ecx, 9
  00679	8b d1		 mov	 edx, ecx
  0067b	c1 e9 02	 shr	 ecx, 2
  0067e	8b f8		 mov	 edi, eax
  00680	89 7d 20	 mov	 DWORD PTR [ebp+32], edi
  00683	33 c0		 xor	 eax, eax
  00685	f3 ab		 rep stosd
  00687	8b ca		 mov	 ecx, edx
  00689	83 e1 03	 and	 ecx, 3
  0068c	f3 aa		 rep stosb
  0068e	83 c4 08	 add	 esp, 8

; 250  : #else	// __WORLDSERVER
; 251  : 	m_apLand = new CLandscape * [ m_nLandWidth * m_nLandHeight ];
; 252  : 	memset( m_apLand, 0, sizeof( CLandscape*) * m_nLandWidth * m_nLandHeight );
; 253  : 	LoadRegion();
; 254  : 
; 255  : #if __VER >= 15 // __BS_CHANGING_ENVIR
; 256  : 	InitWorldEnvir( szPathName );
; 257  : 	InitContinent( szPathName );
; 258  : #else
; 259  : 	InitWorldEnvir( );
; 260  : #endif 
; 261  : 
; 262  : 	
; 263  : 
; 264  : #endif	// __WORLDSERVER
; 265  : 
; 266  : 	return TRUE;

  00691	8d 4c 24 10	 lea	 ecx, DWORD PTR _script$[esp+4596]
  00695	c7 84 24 f0 11
	00 00 ff ff ff
	ff		 mov	 DWORD PTR __$EHRec$[esp+4604], -1
  006a0	e8 00 00 00 00	 call	 ??1CScript@@UAE@XZ	; CScript::~CScript
  006a5	b8 01 00 00 00	 mov	 eax, 1
$L258410:

; 267  : }

  006aa	8b 8c 24 e8 11
	00 00		 mov	 ecx, DWORD PTR __$EHRec$[esp+4596]
  006b1	5f		 pop	 edi
  006b2	5e		 pop	 esi
  006b3	64 89 0d 00 00
	00 00		 mov	 DWORD PTR fs:__except_list, ecx
  006ba	8b 8c 24 dc 11
	00 00		 mov	 ecx, DWORD PTR __$ArrayPad$[esp+4588]
  006c1	5d		 pop	 ebp
  006c2	33 cc		 xor	 ecx, esp
  006c4	e8 00 00 00 00	 call	 @__security_check_cookie@4
  006c9	81 c4 e8 11 00
	00		 add	 esp, 4584		; 000011e8H
  006cf	c2 08 00	 ret	 8
_TEXT	ENDS
;	COMDAT text$x
text$x	SEGMENT
$L267464:
  00000	8d 8d 1c ee ff
	ff		 lea	 ecx, DWORD PTR _script$[ebp]
  00006	e9 00 00 00 00	 jmp	 ??1CScript@@UAE@XZ	; CScript::~CScript
__ehhandler$?OpenWorld@CWorld@@QAEHPBDH@Z:
  0000b	b8 00 00 00 00	 mov	 eax, OFFSET FLAT:$T267652
  00010	e9 00 00 00 00	 jmp	 ___CxxFrameHandler
text$x	ENDS
?OpenWorld@CWorld@@QAEHPBDH@Z ENDP			; CWorld::OpenWorld
PUBLIC	?_Xlen@?$vector@PAVCObj@@V?$allocator@PAVCObj@@@std@@@std@@IBEXXZ ; std::vector<CObj *,std::allocator<CObj *> >::_Xlen
PUBLIC	??_C@_0BD@OLBABOEK@vector?$DMT?$DO?5too?5long?$AA@ ; `string'
PUBLIC	__TI3?AVlength_error@std@@
PUBLIC	__CTA3?AVlength_error@std@@
PUBLIC	??_R0?AVlength_error@std@@@8			; std::length_error `RTTI Type Descriptor'
PUBLIC	__CT??_R0?AVlength_error@std@@@8??0length_error@std@@QAE@ABV01@@Z40
PUBLIC	??_R0?AVlogic_error@std@@@8			; std::logic_error `RTTI Type Descriptor'
PUBLIC	__CT??_R0?AVlogic_error@std@@@8??0logic_error@std@@QAE@ABV01@@Z40
PUBLIC	??_R0?AVexception@@@8				; exception `RTTI Type Descriptor'
PUBLIC	__CT??_R0?AVexception@@@8??0exception@@QAE@ABV0@@Z12
PUBLIC	??0logic_error@std@@QAE@ABV01@@Z		; std::logic_error::logic_error
PUBLIC	??0length_error@std@@QAE@ABV01@@Z		; std::length_error::length_error
EXTRN	??0exception@@QAE@ABV0@@Z:NEAR			; exception::exception
EXTRN	??_7type_info@@6B@:DWORD			; type_info::`vftable'
;	COMDAT xdata$x
; File c:\program files\microsoft visual studio .net 2003\vc7\include\stdexcept
xdata$x	SEGMENT
$T267798 DD	0ffffffffH
	DD	FLAT:$L267683
$T267795 DD	019930520H
	DD	01H
	DD	FLAT:$T267798
	DD	2 DUP(00H)
	DD	2 DUP(00H)
xdata$x	ENDS
;	COMDAT ??_C@_0BD@OLBABOEK@vector?$DMT?$DO?5too?5long?$AA@
CONST	SEGMENT
??_C@_0BD@OLBABOEK@vector?$DMT?$DO?5too?5long?$AA@ DB 'vector<T> too long'
	DB	00H						; `string'
CONST	ENDS
;	COMDAT __TI3?AVlength_error@std@@
xdata$x	SEGMENT
__TI3?AVlength_error@std@@ DD 00H
	DD	FLAT:??1length_error@std@@UAE@XZ
	DD	00H
	DD	FLAT:__CTA3?AVlength_error@std@@
xdata$x	ENDS
;	COMDAT __CTA3?AVlength_error@std@@
xdata$x	SEGMENT
__CTA3?AVlength_error@std@@ DD 03H
	DD	FLAT:__CT??_R0?AVlength_error@std@@@8??0length_error@std@@QAE@ABV01@@Z40
	DD	FLAT:__CT??_R0?AVlogic_error@std@@@8??0logic_error@std@@QAE@ABV01@@Z40
	DD	FLAT:__CT??_R0?AVexception@@@8??0exception@@QAE@ABV0@@Z12
xdata$x	ENDS
;	COMDAT __CT??_R0?AVlength_error@std@@@8??0length_error@std@@QAE@ABV01@@Z40
xdata$x	SEGMENT
__CT??_R0?AVlength_error@std@@@8??0length_error@std@@QAE@ABV01@@Z40 DD 00H
	DD	FLAT:??_R0?AVlength_error@std@@@8
	DD	00H
	DD	0ffffffffH
	ORG $+4
	DD	028H
	DD	FLAT:??0length_error@std@@QAE@ABV01@@Z
xdata$x	ENDS
;	COMDAT ??_R0?AVlength_error@std@@@8
_DATA	SEGMENT
??_R0?AVlength_error@std@@@8 DD FLAT:??_7type_info@@6B@	; std::length_error `RTTI Type Descriptor'
	DD	00H
	DB	'.?AVlength_error@std@@', 00H
_DATA	ENDS
;	COMDAT __CT??_R0?AVlogic_error@std@@@8??0logic_error@std@@QAE@ABV01@@Z40
xdata$x	SEGMENT
__CT??_R0?AVlogic_error@std@@@8??0logic_error@std@@QAE@ABV01@@Z40 DD 00H
	DD	FLAT:??_R0?AVlogic_error@std@@@8
	DD	00H
	DD	0ffffffffH
	ORG $+4
	DD	028H
	DD	FLAT:??0logic_error@std@@QAE@ABV01@@Z
xdata$x	ENDS
;	COMDAT ??_R0?AVlogic_error@std@@@8
_DATA	SEGMENT
??_R0?AVlogic_error@std@@@8 DD FLAT:??_7type_info@@6B@	; std::logic_error `RTTI Type Descriptor'
	DD	00H
	DB	'.?AVlogic_error@std@@', 00H
_DATA	ENDS
;	COMDAT __CT??_R0?AVexception@@@8??0exception@@QAE@ABV0@@Z12
xdata$x	SEGMENT
__CT??_R0?AVexception@@@8??0exception@@QAE@ABV0@@Z12 DD 00H
	DD	FLAT:??_R0?AVexception@@@8
	DD	00H
	DD	0ffffffffH
	ORG $+4
	DD	0cH
	DD	FLAT:??0exception@@QAE@ABV0@@Z
xdata$x	ENDS
;	COMDAT ??_R0?AVexception@@@8
_DATA	SEGMENT
??_R0?AVexception@@@8 DD FLAT:??_7type_info@@6B@	; exception `RTTI Type Descriptor'
	DD	00H
	DB	'.?AVexception@@', 00H
; Function compile flags: /Ogty
; File c:\program files\microsoft visual studio .net 2003\vc7\include\vector
_DATA	ENDS
;	COMDAT ?_Xlen@?$vector@PAVCObj@@V?$allocator@PAVCObj@@@std@@@std@@IBEXXZ
_TEXT	SEGMENT
$T267682 = -80						; size = 28
$T267681 = -52						; size = 40
__$EHRec$ = -12						; size = 12
?_Xlen@?$vector@PAVCObj@@V?$allocator@PAVCObj@@@std@@@std@@IBEXXZ PROC NEAR ; std::vector<CObj *,std::allocator<CObj *> >::_Xlen, COMDAT
; _this$ = ecx

; 883  : 		{	// report a length_error

  00000	6a ff		 push	 -1
  00002	68 00 00 00 00	 push	 __ehhandler$?_Xlen@?$vector@PAVCObj@@V?$allocator@PAVCObj@@@std@@@std@@IBEXXZ
  00007	64 a1 00 00 00
	00		 mov	 eax, DWORD PTR fs:__except_list
  0000d	50		 push	 eax
  0000e	64 89 25 00 00
	00 00		 mov	 DWORD PTR fs:__except_list, esp
  00015	83 ec 44	 sub	 esp, 68			; 00000044H

; 884  : 		_THROW(length_error, "vector<T> too long");

  00018	6a 12		 push	 18			; 00000012H
  0001a	68 00 00 00 00	 push	 OFFSET FLAT:??_C@_0BD@OLBABOEK@vector?$DMT?$DO?5too?5long?$AA@
  0001f	8d 4c 24 08	 lea	 ecx, DWORD PTR $T267682[esp+88]
  00023	c7 44 24 20 0f
	00 00 00	 mov	 DWORD PTR $T267682[esp+112], 15 ; 0000000fH
  0002b	c7 44 24 1c 00
	00 00 00	 mov	 DWORD PTR $T267682[esp+108], 0
  00033	c6 44 24 0c 00	 mov	 BYTE PTR $T267682[esp+92], 0
  00038	e8 00 00 00 00	 call	 ?assign@?$basic_string@DU?$char_traits@D@std@@V?$allocator@D@2@@std@@QAEAAV12@PBDI@Z ; std::basic_string<char,std::char_traits<char>,std::allocator<char> >::assign
  0003d	8d 04 24	 lea	 eax, DWORD PTR $T267682[esp+80]
  00040	50		 push	 eax
  00041	8d 4c 24 20	 lea	 ecx, DWORD PTR $T267681[esp+84]
  00045	c7 44 24 50 00
	00 00 00	 mov	 DWORD PTR __$EHRec$[esp+92], 0
  0004d	e8 00 00 00 00	 call	 ??0logic_error@std@@QAE@ABV?$basic_string@DU?$char_traits@D@std@@V?$allocator@D@2@@1@@Z ; std::logic_error::logic_error
  00052	68 00 00 00 00	 push	 OFFSET FLAT:__TI3?AVlength_error@std@@
  00057	8d 4c 24 20	 lea	 ecx, DWORD PTR $T267681[esp+84]
  0005b	51		 push	 ecx
  0005c	c7 44 24 24 00
	00 00 00	 mov	 DWORD PTR $T267681[esp+88], OFFSET FLAT:??_7length_error@std@@6B@
  00064	e8 00 00 00 00	 call	 __CxxThrowException@8
$L267799:
$L267797:
  00069	cc		 int	 3
_TEXT	ENDS
;	COMDAT text$x
text$x	SEGMENT
$L267683:
  00000	8d 4d b0	 lea	 ecx, DWORD PTR $T267682[ebp]
  00003	e9 00 00 00 00	 jmp	 ??1?$basic_string@DU?$char_traits@D@std@@V?$allocator@D@2@@std@@QAE@XZ ; std::basic_string<char,std::char_traits<char>,std::allocator<char> >::~basic_string<char,std::char_traits<char>,std::allocator<char> >
__ehhandler$?_Xlen@?$vector@PAVCObj@@V?$allocator@PAVCObj@@@std@@@std@@IBEXXZ:
  00008	b8 00 00 00 00	 mov	 eax, OFFSET FLAT:$T267795
  0000d	e9 00 00 00 00	 jmp	 ___CxxFrameHandler
text$x	ENDS
?_Xlen@?$vector@PAVCObj@@V?$allocator@PAVCObj@@@std@@@std@@IBEXXZ ENDP ; std::vector<CObj *,std::allocator<CObj *> >::_Xlen
;	COMDAT xdata$x
xdata$x	SEGMENT
$T267905 DD	0ffffffffH
	DD	FLAT:$L267805
$T267903 DD	019930520H
	DD	01H
	DD	FLAT:$T267905
	DD	2 DUP(00H)
	DD	2 DUP(00H)
; Function compile flags: /Ogty
xdata$x	ENDS
;	COMDAT ??0logic_error@std@@QAE@ABV01@@Z
_TEXT	SEGMENT
_this$ = -16						; size = 4
__$EHRec$ = -12						; size = 12
___that$ = 8						; size = 4
??0logic_error@std@@QAE@ABV01@@Z PROC NEAR		; std::logic_error::logic_error, COMDAT
; _this$ = ecx
  00000	6a ff		 push	 -1
  00002	68 00 00 00 00	 push	 __ehhandler$??0logic_error@std@@QAE@ABV01@@Z
  00007	64 a1 00 00 00
	00		 mov	 eax, DWORD PTR fs:__except_list
  0000d	50		 push	 eax
  0000e	64 89 25 00 00
	00 00		 mov	 DWORD PTR fs:__except_list, esp
  00015	51		 push	 ecx
  00016	56		 push	 esi
  00017	57		 push	 edi
  00018	8b 7c 24 1c	 mov	 edi, DWORD PTR ___that$[esp+20]
  0001c	8b f1		 mov	 esi, ecx
  0001e	57		 push	 edi
  0001f	89 74 24 0c	 mov	 DWORD PTR _this$[esp+28], esi
  00023	e8 00 00 00 00	 call	 ??0exception@@QAE@ABV0@@Z ; exception::exception
  00028	33 c0		 xor	 eax, eax
  0002a	6a ff		 push	 -1
  0002c	8d 4e 0c	 lea	 ecx, DWORD PTR [esi+12]
  0002f	c7 06 00 00 00
	00		 mov	 DWORD PTR [esi], OFFSET FLAT:??_7logic_error@std@@6B@
  00035	50		 push	 eax
  00036	83 c7 0c	 add	 edi, 12			; 0000000cH
  00039	c7 41 18 0f 00
	00 00		 mov	 DWORD PTR [ecx+24], 15	; 0000000fH
  00040	89 41 14	 mov	 DWORD PTR [ecx+20], eax
  00043	57		 push	 edi
  00044	89 44 24 20	 mov	 DWORD PTR __$EHRec$[esp+44], eax
  00048	88 41 04	 mov	 BYTE PTR [ecx+4], al
  0004b	e8 00 00 00 00	 call	 ?assign@?$basic_string@DU?$char_traits@D@std@@V?$allocator@D@2@@std@@QAEAAV12@ABV12@II@Z ; std::basic_string<char,std::char_traits<char>,std::allocator<char> >::assign
  00050	8b 4c 24 0c	 mov	 ecx, DWORD PTR __$EHRec$[esp+24]
  00054	5f		 pop	 edi
  00055	8b c6		 mov	 eax, esi
  00057	5e		 pop	 esi
  00058	64 89 0d 00 00
	00 00		 mov	 DWORD PTR fs:__except_list, ecx
  0005f	83 c4 10	 add	 esp, 16			; 00000010H
  00062	c2 04 00	 ret	 4
_TEXT	ENDS
;	COMDAT text$x
text$x	SEGMENT
$L267805:
  00000	8b 4d f0	 mov	 ecx, DWORD PTR _this$[ebp]
  00003	e9 00 00 00 00	 jmp	 ??1exception@@UAE@XZ	; exception::~exception
__ehhandler$??0logic_error@std@@QAE@ABV01@@Z:
  00008	b8 00 00 00 00	 mov	 eax, OFFSET FLAT:$T267903
  0000d	e9 00 00 00 00	 jmp	 ___CxxFrameHandler
text$x	ENDS
??0logic_error@std@@QAE@ABV01@@Z ENDP			; std::logic_error::logic_error
; Function compile flags: /Ogty
;	COMDAT ??0length_error@std@@QAE@ABV01@@Z
_TEXT	SEGMENT
___that$ = 8						; size = 4
??0length_error@std@@QAE@ABV01@@Z PROC NEAR		; std::length_error::length_error, COMDAT
; _this$ = ecx
  00000	8b 44 24 04	 mov	 eax, DWORD PTR ___that$[esp-4]
  00004	56		 push	 esi
  00005	50		 push	 eax
  00006	8b f1		 mov	 esi, ecx
  00008	e8 00 00 00 00	 call	 ??0logic_error@std@@QAE@ABV01@@Z
  0000d	c7 06 00 00 00
	00		 mov	 DWORD PTR [esi], OFFSET FLAT:??_7length_error@std@@6B@
  00013	8b c6		 mov	 eax, esi
  00015	5e		 pop	 esi
  00016	c2 04 00	 ret	 4
??0length_error@std@@QAE@ABV01@@Z ENDP			; std::length_error::length_error
_TEXT	ENDS
PUBLIC	??0?$CStringT@DV?$StrTraitMFC@DV?$ChTraitsCRT@D@ATL@@@@@ATL@@QAE@PBD@Z ; ATL::CStringT<char,StrTraitMFC<char,ATL::ChTraitsCRT<char> > >::CStringT<char,StrTraitMFC<char,ATL::ChTraitsCRT<char> > >
;	COMDAT xdata$x
; File c:\program files\microsoft visual studio .net 2003\vc7\atlmfc\include\atlsimpstr.h
xdata$x	SEGMENT
$T267996 DD	0ffffffffH
	DD	FLAT:$L267915
$T267990 DD	019930520H
	DD	01H
	DD	FLAT:$T267996
	DD	2 DUP(00H)
	DD	2 DUP(00H)
; Function compile flags: /Ogty
; File c:\program files\microsoft visual studio .net 2003\vc7\atlmfc\include\cstringt.h
xdata$x	ENDS
;	COMDAT ??0?$CStringT@DV?$StrTraitMFC@DV?$ChTraitsCRT@D@ATL@@@@@ATL@@QAE@PBD@Z
_TEXT	SEGMENT
_this$ = -16						; size = 4
__$EHRec$ = -12						; size = 12
_pszSrc$ = 8						; size = 4
??0?$CStringT@DV?$StrTraitMFC@DV?$ChTraitsCRT@D@ATL@@@@@ATL@@QAE@PBD@Z PROC NEAR ; ATL::CStringT<char,StrTraitMFC<char,ATL::ChTraitsCRT<char> > >::CStringT<char,StrTraitMFC<char,ATL::ChTraitsCRT<char> > >, COMDAT
; _this$ = ecx

; 830  : 	{

  00000	6a ff		 push	 -1
  00002	68 00 00 00 00	 push	 __ehhandler$??0?$CStringT@DV?$StrTraitMFC@DV?$ChTraitsCRT@D@ATL@@@@@ATL@@QAE@PBD@Z
  00007	64 a1 00 00 00
	00		 mov	 eax, DWORD PTR fs:__except_list
  0000d	50		 push	 eax
  0000e	64 89 25 00 00
	00 00		 mov	 DWORD PTR fs:__except_list, esp
  00015	51		 push	 ecx
  00016	56		 push	 esi
  00017	8b f1		 mov	 esi, ecx
  00019	57		 push	 edi
  0001a	89 74 24 08	 mov	 DWORD PTR _this$[esp+24], esi
  0001e	e8 00 00 00 00	 call	 ?AfxGetStringManager@@YGPAUIAtlStringMgr@ATL@@XZ ; AfxGetStringManager
  00023	8b 10		 mov	 edx, DWORD PTR [eax]
  00025	8b c8		 mov	 ecx, eax
  00027	ff 52 0c	 call	 DWORD PTR [edx+12]
  0002a	83 c0 10	 add	 eax, 16			; 00000010H
  0002d	89 06		 mov	 DWORD PTR [esi], eax

; 831  : 		if( !CheckImplicitLoad( pszSrc ) )

  0002f	8b 54 24 1c	 mov	 edx, DWORD PTR _pszSrc$[esp+20]
  00033	85 d2		 test	 edx, edx
  00035	c7 44 24 14 00
	00 00 00	 mov	 DWORD PTR __$EHRec$[esp+32], 0
  0003d	74 33		 je	 SHORT $L267992
  0003f	f7 c2 00 00 ff
	ff		 test	 edx, -65536		; ffff0000H
  00045	75 2f		 jne	 SHORT $L267987
  00047	0f b7 fa	 movzx	 edi, dx
  0004a	57		 push	 edi
  0004b	e8 00 00 00 00	 call	 ?AfxFindStringResourceHandle@@YGPAUHINSTANCE__@@I@Z ; AfxFindStringResourceHandle
  00050	85 c0		 test	 eax, eax
  00052	74 3e		 je	 SHORT $L267994
  00054	57		 push	 edi
  00055	50		 push	 eax
  00056	8b ce		 mov	 ecx, esi
  00058	e8 00 00 00 00	 call	 ?LoadStringA@?$CStringT@DV?$StrTraitMFC@DV?$ChTraitsCRT@D@ATL@@@@@ATL@@QAEHPAUHINSTANCE__@@I@Z ; ATL::CStringT<char,StrTraitMFC<char,ATL::ChTraitsCRT<char> > >::LoadStringA
  0005d	5f		 pop	 edi

; 835  : 		}
; 836  : 	}

  0005e	8b c6		 mov	 eax, esi
  00060	5e		 pop	 esi
  00061	8b 4c 24 04	 mov	 ecx, DWORD PTR __$EHRec$[esp+16]
  00065	64 89 0d 00 00
	00 00		 mov	 DWORD PTR fs:__except_list, ecx
  0006c	83 c4 10	 add	 esp, 16			; 00000010H
  0006f	c2 04 00	 ret	 4
$L267992:

; 832  : 		{
; 833  : 			// nDestLength is in XCHARs
; 834  : 			*this = pszSrc;

  00072	33 c0		 xor	 eax, eax
  00074	eb 13		 jmp	 SHORT $L267986
$L267987:
  00076	8b c2		 mov	 eax, edx
  00078	8d 78 01	 lea	 edi, DWORD PTR [eax+1]
  0007b	eb 03 8d 49 00	 npad	 5
$L267993:
  00080	8a 08		 mov	 cl, BYTE PTR [eax]
  00082	40		 inc	 eax
  00083	84 c9		 test	 cl, cl
  00085	75 f9		 jne	 SHORT $L267993
  00087	2b c7		 sub	 eax, edi
$L267986:
  00089	50		 push	 eax
  0008a	52		 push	 edx
  0008b	8b ce		 mov	 ecx, esi
  0008d	e8 00 00 00 00	 call	 ?SetString@?$CSimpleStringT@D$0A@@ATL@@QAEXPBDH@Z ; ATL::CSimpleStringT<char,0>::SetString
$L267994:

; 835  : 		}
; 836  : 	}

  00092	8b 4c 24 0c	 mov	 ecx, DWORD PTR __$EHRec$[esp+24]
  00096	5f		 pop	 edi
  00097	8b c6		 mov	 eax, esi
  00099	5e		 pop	 esi
  0009a	64 89 0d 00 00
	00 00		 mov	 DWORD PTR fs:__except_list, ecx
  000a1	83 c4 10	 add	 esp, 16			; 00000010H
  000a4	c2 04 00	 ret	 4
_TEXT	ENDS
;	COMDAT text$x
text$x	SEGMENT
$L267915:
  00000	8b 4d f0	 mov	 ecx, DWORD PTR _this$[ebp]
  00003	e9 00 00 00 00	 jmp	 ??1?$CSimpleStringT@D$0A@@ATL@@QAE@XZ ; ATL::CSimpleStringT<char,0>::~CSimpleStringT<char,0>
__ehhandler$??0?$CStringT@DV?$StrTraitMFC@DV?$ChTraitsCRT@D@ATL@@@@@ATL@@QAE@PBD@Z:
  00008	b8 00 00 00 00	 mov	 eax, OFFSET FLAT:$T267990
  0000d	e9 00 00 00 00	 jmp	 ___CxxFrameHandler
text$x	ENDS
??0?$CStringT@DV?$StrTraitMFC@DV?$ChTraitsCRT@D@ATL@@@@@ATL@@QAE@PBD@Z ENDP ; ATL::CStringT<char,StrTraitMFC<char,ATL::ChTraitsCRT<char> > >::CStringT<char,StrTraitMFC<char,ATL::ChTraitsCRT<char> > >
PUBLIC	?OpenWorld@CWorld@@QAEHKH@Z			; CWorld::OpenWorld
; Function compile flags: /Ogty
; File c:\documents and settings\test\mes documents\source\virtuos_v17\build\program\_common\worldfile.cpp
;	COMDAT ?OpenWorld@CWorld@@QAEHKH@Z
_TEXT	SEGMENT
_idWorld$ = 8						; size = 4
_bDir$ = 12						; size = 4
?OpenWorld@CWorld@@QAEHKH@Z PROC NEAR			; CWorld::OpenWorld, COMDAT
; _this$ = ecx

; 25   : 	LPWORLD lpWorld	= g_WorldMng.GetWorldStruct( idWorld );

  00000	8b 44 24 04	 mov	 eax, DWORD PTR _idWorld$[esp-4]
  00004	3b 05 30 e8 05
	00		 cmp	 eax, DWORD PTR ?g_WorldMng@@3VCWorldMng@@A+387120
  0000a	72 0b		 jb	 SHORT $L268012
  0000c	33 c0		 xor	 eax, eax

; 26   : 	ASSERT( lpWorld->IsValid() );
; 27   : 	return( OpenWorld( lpWorld->m_szFileName, bDir ) );

  0000e	89 44 24 04	 mov	 DWORD PTR _idWorld$[esp-4], eax
  00012	e9 00 00 00 00	 jmp	 ?OpenWorld@CWorld@@QAEHPBDH@Z ; CWorld::OpenWorld

; 25   : 	LPWORLD lpWorld	= g_WorldMng.GetWorldStruct( idWorld );

$L268012:
  00017	8b 15 20 e8 05
	00		 mov	 edx, DWORD PTR ?g_WorldMng@@3VCWorldMng@@A+387104
  0001d	8b 04 82	 mov	 eax, DWORD PTR [edx+eax*4]

; 26   : 	ASSERT( lpWorld->IsValid() );
; 27   : 	return( OpenWorld( lpWorld->m_szFileName, bDir ) );

  00020	89 44 24 04	 mov	 DWORD PTR _idWorld$[esp-4], eax
  00024	e9 00 00 00 00	 jmp	 ?OpenWorld@CWorld@@QAEHPBDH@Z ; CWorld::OpenWorld
?OpenWorld@CWorld@@QAEHKH@Z ENDP			; CWorld::OpenWorld
_TEXT	ENDS
PUBLIC	?LoadPatrol@CWorld@@QAEHXZ			; CWorld::LoadPatrol
PUBLIC	??_C@_08PEPEPPIG@?$CFs?$CFs?4pat?$AA@		; `string'
EXTRN	?GetInstance@CPatrolPath@@SAPAV1@XZ:NEAR	; CPatrolPath::GetInstance
EXTRN	?LoadPatrol@CPatrolPath@@QAEHPBD@Z:NEAR		; CPatrolPath::LoadPatrol
;	COMDAT xdata$x
; File c:\program files\microsoft visual studio .net 2003\vc7\atlmfc\include\atlsimpstr.h
xdata$x	SEGMENT
$T268123 DD	0ffffffffH
	DD	FLAT:$L268019
	DD	00H
	DD	FLAT:$L268020
$T268120 DD	019930520H
	DD	02H
	DD	FLAT:$T268123
	DD	2 DUP(00H)
	DD	2 DUP(00H)
xdata$x	ENDS
;	COMDAT ??_C@_08PEPEPPIG@?$CFs?$CFs?4pat?$AA@
CONST	SEGMENT
??_C@_08PEPEPPIG@?$CFs?$CFs?4pat?$AA@ DB '%s%s.pat', 00H ; `string'
; Function compile flags: /Ogty
; File c:\documents and settings\test\mes documents\source\virtuos_v17\build\program\_common\worldfile.cpp
CONST	ENDS
;	COMDAT ?LoadPatrol@CWorld@@QAEHXZ
_TEXT	SEGMENT
_strLandName$ = -20					; size = 4
_strLandTemp$ = -16					; size = 4
__$EHRec$ = -12						; size = 12
?LoadPatrol@CWorld@@QAEHXZ PROC NEAR			; CWorld::LoadPatrol, COMDAT
; _this$ = ecx

; 273  : {

  00000	6a ff		 push	 -1
  00002	68 00 00 00 00	 push	 __ehhandler$?LoadPatrol@CWorld@@QAEHXZ
  00007	64 a1 00 00 00
	00		 mov	 eax, DWORD PTR fs:__except_list
  0000d	50		 push	 eax
  0000e	64 89 25 00 00
	00 00		 mov	 DWORD PTR fs:__except_list, esp
  00015	83 ec 08	 sub	 esp, 8
  00018	56		 push	 esi
  00019	8b f1		 mov	 esi, ecx
  0001b	57		 push	 edi

; 274  : 	CString strLandName = m_szFileName;

  0001c	8d 86 38 92 08
	00		 lea	 eax, DWORD PTR [esi+561720]
  00022	50		 push	 eax
  00023	8d 4c 24 0c	 lea	 ecx, DWORD PTR _strLandName$[esp+32]
  00027	e8 00 00 00 00	 call	 ??0?$CStringT@DV?$StrTraitMFC@DV?$ChTraitsCRT@D@ATL@@@@@ATL@@QAE@PBD@Z ; ATL::CStringT<char,StrTraitMFC<char,ATL::ChTraitsCRT<char> > >::CStringT<char,StrTraitMFC<char,ATL::ChTraitsCRT<char> > >
  0002c	c7 44 24 18 00
	00 00 00	 mov	 DWORD PTR __$EHRec$[esp+36], 0

; 275  : 	CString strLandTemp;

  00034	e8 00 00 00 00	 call	 ?AfxGetStringManager@@YGPAUIAtlStringMgr@ATL@@XZ ; AfxGetStringManager
  00039	8b 10		 mov	 edx, DWORD PTR [eax]
  0003b	8b c8		 mov	 ecx, eax
  0003d	ff 52 0c	 call	 DWORD PTR [edx+12]
  00040	83 c0 10	 add	 eax, 16			; 00000010H
  00043	89 44 24 0c	 mov	 DWORD PTR _strLandTemp$[esp+28], eax

; 276  : 	strLandName.Delete( strLandName.GetLength() - 4, 4 );

  00047	8b 44 24 08	 mov	 eax, DWORD PTR _strLandName$[esp+28]
  0004b	8b 40 f4	 mov	 eax, DWORD PTR [eax-12]
  0004e	6a 04		 push	 4
  00050	83 c0 fc	 add	 eax, -4			; fffffffcH
  00053	50		 push	 eax
  00054	8d 4c 24 10	 lea	 ecx, DWORD PTR _strLandName$[esp+36]
  00058	c6 44 24 20 01	 mov	 BYTE PTR __$EHRec$[esp+44], 1
  0005d	e8 00 00 00 00	 call	 ?Delete@?$CStringT@DV?$StrTraitMFC@DV?$ChTraitsCRT@D@ATL@@@@@ATL@@QAEHHH@Z ; ATL::CStringT<char,StrTraitMFC<char,ATL::ChTraitsCRT<char> > >::Delete

; 277  : 	strLandTemp.Format( "%s%s.pat", m_szFilePath, strLandName );

  00062	8b 4c 24 08	 mov	 ecx, DWORD PTR _strLandName$[esp+28]
  00066	51		 push	 ecx
  00067	81 c6 34 91 08
	00		 add	 esi, 561460		; 00089134H
  0006d	56		 push	 esi
  0006e	8d 54 24 14	 lea	 edx, DWORD PTR _strLandTemp$[esp+36]
  00072	68 00 00 00 00	 push	 OFFSET FLAT:??_C@_08PEPEPPIG@?$CFs?$CFs?4pat?$AA@
  00077	52		 push	 edx
  00078	e8 00 00 00 00	 call	 ?Format@?$CStringT@DV?$StrTraitMFC@DV?$ChTraitsCRT@D@ATL@@@@@ATL@@QAAXPBDZZ ; ATL::CStringT<char,StrTraitMFC<char,ATL::ChTraitsCRT<char> > >::Format

; 278  : 	return CPatrolPath::GetInstance()->LoadPatrol( strLandTemp );

  0007d	8b 74 24 1c	 mov	 esi, DWORD PTR _strLandTemp$[esp+44]
  00081	83 c4 10	 add	 esp, 16			; 00000010H
  00084	56		 push	 esi
  00085	e8 00 00 00 00	 call	 ?GetInstance@CPatrolPath@@SAPAV1@XZ ; CPatrolPath::GetInstance
  0008a	8b c8		 mov	 ecx, eax
  0008c	e8 00 00 00 00	 call	 ?LoadPatrol@CPatrolPath@@QAEHPBD@Z ; CPatrolPath::LoadPatrol
  00091	8b f8		 mov	 edi, eax
  00093	8d 46 f0	 lea	 eax, DWORD PTR [esi-16]
  00096	c6 44 24 18 00	 mov	 BYTE PTR __$EHRec$[esp+36], 0
  0009b	8d 48 0c	 lea	 ecx, DWORD PTR [eax+12]
  0009e	83 ca ff	 or	 edx, -1
  000a1	f0 0f c1 11	 lock	  xadd	 DWORD PTR [ecx], edx
  000a5	4a		 dec	 edx
  000a6	85 d2		 test	 edx, edx
  000a8	7f 08		 jg	 SHORT $L268089
  000aa	8b 08		 mov	 ecx, DWORD PTR [eax]
  000ac	8b 11		 mov	 edx, DWORD PTR [ecx]
  000ae	50		 push	 eax
  000af	ff 52 04	 call	 DWORD PTR [edx+4]
$L268089:
  000b2	8b 44 24 08	 mov	 eax, DWORD PTR _strLandName$[esp+28]
  000b6	83 c0 f0	 add	 eax, -16		; fffffff0H
  000b9	c7 44 24 18 ff
	ff ff ff	 mov	 DWORD PTR __$EHRec$[esp+36], -1
  000c1	8d 48 0c	 lea	 ecx, DWORD PTR [eax+12]
  000c4	83 ca ff	 or	 edx, -1
  000c7	f0 0f c1 11	 lock	  xadd	 DWORD PTR [ecx], edx
  000cb	4a		 dec	 edx
  000cc	85 d2		 test	 edx, edx
  000ce	7f 08		 jg	 SHORT $L268121
  000d0	8b 08		 mov	 ecx, DWORD PTR [eax]
  000d2	8b 11		 mov	 edx, DWORD PTR [ecx]
  000d4	50		 push	 eax
  000d5	ff 52 04	 call	 DWORD PTR [edx+4]
$L268121:

; 279  : }

  000d8	8b 4c 24 10	 mov	 ecx, DWORD PTR __$EHRec$[esp+28]
  000dc	8b c7		 mov	 eax, edi
  000de	5f		 pop	 edi
  000df	5e		 pop	 esi
  000e0	64 89 0d 00 00
	00 00		 mov	 DWORD PTR fs:__except_list, ecx
  000e7	83 c4 14	 add	 esp, 20			; 00000014H
  000ea	c3		 ret	 0
_TEXT	ENDS
;	COMDAT text$x
text$x	SEGMENT
$L268019:
  00000	8d 4d ec	 lea	 ecx, DWORD PTR _strLandName$[ebp]
  00003	e9 00 00 00 00	 jmp	 ??1?$CStringT@DV?$StrTraitMFC@DV?$ChTraitsCRT@D@ATL@@@@@ATL@@QAE@XZ ; ATL::CStringT<char,StrTraitMFC<char,ATL::ChTraitsCRT<char> > >::~CStringT<char,StrTraitMFC<char,ATL::ChTraitsCRT<char> > >
$L268020:
  00008	8d 4d f0	 lea	 ecx, DWORD PTR _strLandTemp$[ebp]
  0000b	e9 00 00 00 00	 jmp	 ??1?$CStringT@DV?$StrTraitMFC@DV?$ChTraitsCRT@D@ATL@@@@@ATL@@QAE@XZ ; ATL::CStringT<char,StrTraitMFC<char,ATL::ChTraitsCRT<char> > >::~CStringT<char,StrTraitMFC<char,ATL::ChTraitsCRT<char> > >
__ehhandler$?LoadPatrol@CWorld@@QAEHXZ:
  00010	b8 00 00 00 00	 mov	 eax, OFFSET FLAT:$T268120
  00015	e9 00 00 00 00	 jmp	 ___CxxFrameHandler
text$x	ENDS
?LoadPatrol@CWorld@@QAEHXZ ENDP				; CWorld::LoadPatrol
PUBLIC	?LoadObject@CWorld@@QAEHH@Z			; CWorld::LoadObject
PUBLIC	??_C@_08JAIMAGBM@?$CFs?$CFs?4dyo?$AA@		; `string'
PUBLIC	??_C@_02JDPG@rb?$AA@				; `string'
EXTRN	?AddObj@CWorld@@QAEHPAVCObj@@HH@Z:NEAR		; CWorld::AddObj
EXTRN	?UpdateLocalMatrix@CObj@@QAEXXZ:NEAR		; CObj::UpdateLocalMatrix
EXTRN	?SetPos@CObj@@QAEXABUD3DXVECTOR3@@@Z:NEAR	; CObj::SetPos
EXTRN	__imp__lstrlenA@4:NEAR
EXTRN	?ReadObj@@YAPAVCObj@@PAVCFileIO@@@Z:NEAR	; ReadObj
;	COMDAT xdata$x
; File c:\program files\microsoft visual studio .net 2003\vc7\atlmfc\include\atlsimpstr.h
xdata$x	SEGMENT
$T268325 DD	0ffffffffH
	DD	FLAT:$L268136
	DD	00H
	DD	FLAT:$L268137
	DD	01H
	DD	FLAT:$L268138
$T268319 DD	019930520H
	DD	03H
	DD	FLAT:$T268325
	DD	2 DUP(00H)
	DD	2 DUP(00H)
xdata$x	ENDS
;	COMDAT ??_C@_08JAIMAGBM@?$CFs?$CFs?4dyo?$AA@
CONST	SEGMENT
??_C@_08JAIMAGBM@?$CFs?$CFs?4dyo?$AA@ DB '%s%s.dyo', 00H ; `string'
CONST	ENDS
;	COMDAT ??_C@_02JDPG@rb?$AA@
CONST	SEGMENT
??_C@_02JDPG@rb?$AA@ DB 'rb', 00H			; `string'
; Function compile flags: /Ogty
; File c:\documents and settings\test\mes documents\source\virtuos_v17\build\program\_common\worldfile.cpp
CONST	ENDS
;	COMDAT ?LoadObject@CWorld@@QAEHH@Z
_TEXT	SEGMENT
_strLandName$ = -40					; size = 4
_strLandTemp$ = -36					; size = 4
_file$ = -32						; size = 8
_vPos$258529 = -24					; size = 12
__$EHRec$ = -12						; size = 12
_nLayer$ = 8						; size = 4
?LoadObject@CWorld@@QAEHH@Z PROC NEAR			; CWorld::LoadObject, COMDAT
; _this$ = ecx

; 301  : {

  00000	6a ff		 push	 -1
  00002	68 00 00 00 00	 push	 __ehhandler$?LoadObject@CWorld@@QAEHH@Z
  00007	64 a1 00 00 00
	00		 mov	 eax, DWORD PTR fs:__except_list
  0000d	50		 push	 eax
  0000e	64 89 25 00 00
	00 00		 mov	 DWORD PTR fs:__except_list, esp
  00015	83 ec 1c	 sub	 esp, 28			; 0000001cH
  00018	53		 push	 ebx
  00019	55		 push	 ebp
  0001a	56		 push	 esi
  0001b	8b e9		 mov	 ebp, ecx
  0001d	57		 push	 edi

; 302  : 	CString strLandName = m_szFileName;

  0001e	8d 85 38 92 08
	00		 lea	 eax, DWORD PTR [ebp+561720]
  00024	50		 push	 eax
  00025	8d 4c 24 14	 lea	 ecx, DWORD PTR _strLandName$[esp+60]
  00029	e8 00 00 00 00	 call	 ??0?$CStringT@DV?$StrTraitMFC@DV?$ChTraitsCRT@D@ATL@@@@@ATL@@QAE@PBD@Z ; ATL::CStringT<char,StrTraitMFC<char,ATL::ChTraitsCRT<char> > >::CStringT<char,StrTraitMFC<char,ATL::ChTraitsCRT<char> > >
  0002e	33 db		 xor	 ebx, ebx
  00030	89 5c 24 34	 mov	 DWORD PTR __$EHRec$[esp+64], ebx

; 303  : 	CString strLandTemp;

  00034	e8 00 00 00 00	 call	 ?AfxGetStringManager@@YGPAUIAtlStringMgr@ATL@@XZ ; AfxGetStringManager
  00039	8b 10		 mov	 edx, DWORD PTR [eax]
  0003b	8b c8		 mov	 ecx, eax
  0003d	ff 52 0c	 call	 DWORD PTR [edx+12]
  00040	83 c0 10	 add	 eax, 16			; 00000010H
  00043	89 44 24 14	 mov	 DWORD PTR _strLandTemp$[esp+56], eax

; 304  : 	strLandName.Delete( strLandName.GetLength() - 4, 4 );

  00047	8b 44 24 10	 mov	 eax, DWORD PTR _strLandName$[esp+56]
  0004b	8b 40 f4	 mov	 eax, DWORD PTR [eax-12]
  0004e	6a 04		 push	 4
  00050	83 c0 fc	 add	 eax, -4			; fffffffcH
  00053	50		 push	 eax
  00054	8d 4c 24 18	 lea	 ecx, DWORD PTR _strLandName$[esp+64]
  00058	c6 44 24 3c 01	 mov	 BYTE PTR __$EHRec$[esp+72], 1
  0005d	e8 00 00 00 00	 call	 ?Delete@?$CStringT@DV?$StrTraitMFC@DV?$ChTraitsCRT@D@ATL@@@@@ATL@@QAEHHH@Z ; ATL::CStringT<char,StrTraitMFC<char,ATL::ChTraitsCRT<char> > >::Delete

; 305  : 	strLandTemp.Format( "%s%s.dyo", m_szFilePath, strLandName );

  00062	8b 4c 24 10	 mov	 ecx, DWORD PTR _strLandName$[esp+56]
  00066	51		 push	 ecx
  00067	8d 95 34 91 08
	00		 lea	 edx, DWORD PTR [ebp+561460]
  0006d	52		 push	 edx
  0006e	8d 44 24 1c	 lea	 eax, DWORD PTR _strLandTemp$[esp+64]
  00072	68 00 00 00 00	 push	 OFFSET FLAT:??_C@_08JAIMAGBM@?$CFs?$CFs?4dyo?$AA@
  00077	50		 push	 eax
  00078	e8 00 00 00 00	 call	 ?Format@?$CStringT@DV?$StrTraitMFC@DV?$ChTraitsCRT@D@ATL@@@@@ATL@@QAAXPBDZZ ; ATL::CStringT<char,StrTraitMFC<char,ATL::ChTraitsCRT<char> > >::Format

; 306  : 	CResFile file;

  0007d	be 00 00 00 00	 mov	 esi, OFFSET FLAT:??_7CFileIO@@6B@
  00082	83 c4 10	 add	 esp, 16			; 00000010H
  00085	89 74 24 18	 mov	 DWORD PTR _file$[esp+56], esi
  00089	89 5c 24 1c	 mov	 DWORD PTR _file$[esp+60], ebx

; 307  : 
; 308  : 	if( file.Open( strLandTemp,"rb" ) == FALSE )

  0008d	8b 7c 24 14	 mov	 edi, DWORD PTR _strLandTemp$[esp+56]
  00091	68 00 00 00 00	 push	 OFFSET FLAT:??_C@_02JDPG@rb?$AA@
  00096	57		 push	 edi
  00097	8d 4c 24 20	 lea	 ecx, DWORD PTR _file$[esp+64]
  0009b	c6 44 24 3c 02	 mov	 BYTE PTR __$EHRec$[esp+72], 2
  000a0	e8 00 00 00 00	 call	 ?Open@CFileIO@@UAEHPBDPAD@Z ; CFileIO::Open
  000a5	85 c0		 test	 eax, eax
  000a7	75 6d		 jne	 SHORT $L268322

; 309  : 		return FALSE;

  000a9	8d 4c 24 18	 lea	 ecx, DWORD PTR _file$[esp+56]
  000ad	c6 44 24 34 01	 mov	 BYTE PTR __$EHRec$[esp+64], 1
  000b2	89 74 24 18	 mov	 DWORD PTR _file$[esp+56], esi
  000b6	e8 00 00 00 00	 call	 ?Close@CFileIO@@UAEHXZ	; CFileIO::Close
  000bb	8d 47 f0	 lea	 eax, DWORD PTR [edi-16]
  000be	88 5c 24 34	 mov	 BYTE PTR __$EHRec$[esp+64], bl
  000c2	8d 48 0c	 lea	 ecx, DWORD PTR [eax+12]
  000c5	83 ca ff	 or	 edx, -1
  000c8	f0 0f c1 11	 lock	  xadd	 DWORD PTR [ecx], edx
  000cc	4a		 dec	 edx
  000cd	85 d2		 test	 edx, edx
  000cf	7f 08		 jg	 SHORT $L268215
  000d1	8b 08		 mov	 ecx, DWORD PTR [eax]
  000d3	8b 11		 mov	 edx, DWORD PTR [ecx]
  000d5	50		 push	 eax
  000d6	ff 52 04	 call	 DWORD PTR [edx+4]
$L268215:
  000d9	8b 44 24 10	 mov	 eax, DWORD PTR _strLandName$[esp+56]
  000dd	83 c0 f0	 add	 eax, -16		; fffffff0H
  000e0	c7 44 24 34 ff
	ff ff ff	 mov	 DWORD PTR __$EHRec$[esp+64], -1
  000e8	8d 48 0c	 lea	 ecx, DWORD PTR [eax+12]
  000eb	83 ca ff	 or	 edx, -1
  000ee	f0 0f c1 11	 lock	  xadd	 DWORD PTR [ecx], edx
  000f2	4a		 dec	 edx
  000f3	85 d2		 test	 edx, edx
  000f5	7f 08		 jg	 SHORT $L268242
  000f7	8b 08		 mov	 ecx, DWORD PTR [eax]
  000f9	8b 11		 mov	 edx, DWORD PTR [ecx]
  000fb	50		 push	 eax
  000fc	ff 52 04	 call	 DWORD PTR [edx+4]
$L268242:
  000ff	5f		 pop	 edi
  00100	5e		 pop	 esi
  00101	5d		 pop	 ebp
  00102	33 c0		 xor	 eax, eax
  00104	5b		 pop	 ebx

; 381  : }

  00105	8b 4c 24 1c	 mov	 ecx, DWORD PTR __$EHRec$[esp+40]
  00109	64 89 0d 00 00
	00 00		 mov	 DWORD PTR fs:__except_list, ecx
  00110	83 c4 28	 add	 esp, 40			; 00000028H
  00113	c2 04 00	 ret	 4
$L268322:

; 310  : 
; 311  : 	while( 1 )
; 312  : 	{
; 313  : 		CObj* pObj = ::ReadObj( &file );

  00116	8d 44 24 18	 lea	 eax, DWORD PTR _file$[esp+56]
  0011a	50		 push	 eax
  0011b	e8 00 00 00 00	 call	 ?ReadObj@@YAPAVCObj@@PAVCFileIO@@@Z ; ReadObj
  00120	8b f0		 mov	 esi, eax
  00122	83 c4 04	 add	 esp, 4

; 314  : 		if( pObj == NULL )

  00125	3b f3		 cmp	 esi, ebx
  00127	0f 84 d9 00 00
	00		 je	 $L268323
  0012d	8d 49 00	 npad	 3
$L258525:

; 315  : 			break;
; 316  : 
; 317  : 		D3DXVECTOR3 vPos = pObj->GetPos();

  00130	8d be 60 01 00
	00		 lea	 edi, DWORD PTR [esi+352]
  00136	8b cf		 mov	 ecx, edi
  00138	8b 11		 mov	 edx, DWORD PTR [ecx]
  0013a	89 54 24 20	 mov	 DWORD PTR _vPos$258529[esp+56], edx
  0013e	8b 41 04	 mov	 eax, DWORD PTR [ecx+4]
  00141	89 44 24 24	 mov	 DWORD PTR _vPos$258529[esp+60], eax
  00145	8b 49 08	 mov	 ecx, DWORD PTR [ecx+8]

; 318  : 		pObj->SetPos( vPos );

  00148	8d 54 24 20	 lea	 edx, DWORD PTR _vPos$258529[esp+56]
  0014c	89 4c 24 28	 mov	 DWORD PTR _vPos$258529[esp+64], ecx
  00150	52		 push	 edx
  00151	8b ce		 mov	 ecx, esi
  00153	e8 00 00 00 00	 call	 ?SetPos@CObj@@QAEXABUD3DXVECTOR3@@@Z ; CObj::SetPos

; 319  : 		pObj->SetIndex( NULL, pObj->m_dwIndex );

  00158	8b 8e 74 01 00
	00		 mov	 ecx, DWORD PTR [esi+372]
  0015e	8b 06		 mov	 eax, DWORD PTR [esi]
  00160	53		 push	 ebx
  00161	51		 push	 ecx
  00162	53		 push	 ebx
  00163	8b ce		 mov	 ecx, esi
  00165	ff 50 2c	 call	 DWORD PTR [eax+44]

; 320  : 		if( pObj->GetType() == OT_MOVER )

  00168	83 be 70 01 00
	00 05		 cmp	 DWORD PTR [esi+368], 5
  0016f	75 0e		 jne	 SHORT $L258531

; 321  : 			pObj->InitMotion( ((CMover *)pObj)->m_dwMotion );

  00171	8b 86 dc 02 00
	00		 mov	 eax, DWORD PTR [esi+732]
  00177	8b 16		 mov	 edx, DWORD PTR [esi]
  00179	50		 push	 eax
  0017a	8b ce		 mov	 ecx, esi
  0017c	ff 52 08	 call	 DWORD PTR [edx+8]
$L258531:

; 322  : 		pObj->UpdateLocalMatrix();

  0017f	8b ce		 mov	 ecx, esi
  00181	e8 00 00 00 00	 call	 ?UpdateLocalMatrix@CObj@@QAEXXZ ; CObj::UpdateLocalMatrix

; 323  : 		
; 324  : 		if( IsUsableDYO( pObj ) )

  00186	56		 push	 esi
  00187	8b cd		 mov	 ecx, ebp
  00189	e8 00 00 00 00	 call	 ?IsUsableDYO@CWorld@@QAEHPAVCObj@@@Z ; CWorld::IsUsableDYO
  0018e	85 c0		 test	 eax, eax
  00190	74 51		 je	 SHORT $L258533

; 325  : 		{
; 326  : 			ADDOBJ( pObj, TRUE, nLayer );

  00192	8b 4c 24 3c	 mov	 ecx, DWORD PTR _nLayer$[esp+52]
  00196	51		 push	 ecx
  00197	6a 01		 push	 1
  00199	56		 push	 esi
  0019a	8b cd		 mov	 ecx, ebp
  0019c	e8 00 00 00 00	 call	 ?AddObj@CWorld@@QAEHPAVCObj@@HH@Z ; CWorld::AddObj

; 327  : #if __VER >= 13 // __QUEST_HELPER
; 328  : 			if( pObj->GetType() == OT_MOVER && lstrlen( static_cast<CMover*>(pObj)->GetCharacter()->m_szKey ) )

  001a1	83 be 70 01 00
	00 05		 cmp	 DWORD PTR [esi+368], 5
  001a8	75 41		 jne	 SHORT $L268133
  001aa	8b ce		 mov	 ecx, esi
  001ac	e8 00 00 00 00	 call	 ?GetCharacter@CMover@@QAEPAUtagCHARACTER@@XZ ; CMover::GetCharacter
  001b1	50		 push	 eax
  001b2	ff 15 00 00 00
	00		 call	 DWORD PTR __imp__lstrlenA@4
  001b8	85 c0		 test	 eax, eax
  001ba	74 2f		 je	 SHORT $L268133

; 329  : 			{
; 330  : 				LPCHARACTER lpChar = static_cast<CMover*>(pObj)->GetCharacter();

  001bc	8b ce		 mov	 ecx, esi
  001be	e8 00 00 00 00	 call	 ?GetCharacter@CMover@@QAEPAUtagCHARACTER@@XZ ; CMover::GetCharacter

; 331  : 				lpChar->m_dwWorldId = GetID();

  001c3	8b 4d 00	 mov	 ecx, DWORD PTR [ebp]
  001c6	89 88 58 08 00
	00		 mov	 DWORD PTR [eax+2136], ecx

; 332  : 				lpChar->m_vPos = pObj->GetPos();

  001cc	8b 17		 mov	 edx, DWORD PTR [edi]
  001ce	05 5c 08 00 00	 add	 eax, 2140		; 0000085cH
  001d3	89 10		 mov	 DWORD PTR [eax], edx
  001d5	8b 4f 04	 mov	 ecx, DWORD PTR [edi+4]
  001d8	89 48 04	 mov	 DWORD PTR [eax+4], ecx
  001db	8b 57 08	 mov	 edx, DWORD PTR [edi+8]
  001de	89 50 08	 mov	 DWORD PTR [eax+8], edx

; 339  : 			continue;
; 340  : 		}
; 341  : 	} 

  001e1	eb 08		 jmp	 SHORT $L268133
$L258533:

; 333  : 			}
; 334  : #endif // __QUEST_HELPER
; 335  : 		}
; 336  : 		else
; 337  : 		{
; 338  : 			safe_delete( pObj );

  001e3	8b 06		 mov	 eax, DWORD PTR [esi]
  001e5	6a 01		 push	 1
  001e7	8b ce		 mov	 ecx, esi
  001e9	ff 10		 call	 DWORD PTR [eax]
$L268133:
  001eb	8d 4c 24 18	 lea	 ecx, DWORD PTR _file$[esp+56]
  001ef	51		 push	 ecx
  001f0	e8 00 00 00 00	 call	 ?ReadObj@@YAPAVCObj@@PAVCFileIO@@@Z ; ReadObj
  001f5	8b f0		 mov	 esi, eax
  001f7	83 c4 04	 add	 esp, 4
  001fa	3b f3		 cmp	 esi, ebx
  001fc	0f 85 2e ff ff
	ff		 jne	 $L258525

; 314  : 		if( pObj == NULL )

  00202	8b 7c 24 14	 mov	 edi, DWORD PTR _strLandTemp$[esp+56]
$L268323:

; 342  : 	
; 343  : 	// __XSHIPBUS
; 344  : #ifdef __IAOBJ0622	
; 345  : 	if( GetID() == WI_WORLD_MADRIGAL )	//   
; 346  : 	{
; 347  : 		CObj *pObj	= CreateObj( D3DDEVICE, OT_SHIP, 4 );
; 348  : 		D3DXVECTOR3 vPos = D3DXVECTOR3( 6997.2f, 124.2f, 3243.7f );
; 349  : 		pObj->SetPos( vPos );
; 350  : 		pObj->SetAngle( 180.0f );
; 351  : 		ADDOBJ( pObj, TRUE, nLayer );
; 352  : 
; 353  : 		CObj *pObj2	= CreateObj( D3DDEVICE, OT_SHIP, 4 );
; 354  : 		D3DXVECTOR3 vPos2 = D3DXVECTOR3( 7508.74f, 90.2f, 3168.28f );
; 355  : 		pObj2->SetPos( vPos2 );
; 356  : 		pObj2->SetAngle( 180.0f );
; 357  : 		ADDOBJ( pObj2, TRUE, nLayer );
; 358  : 
; 359  : 		CObj *pObj3	= CreateObj( D3DDEVICE, OT_SHIP, 1 );
; 360  : 		D3DXVECTOR3 vPos3 = D3DXVECTOR3( 7528.74f, 90.2f, 3178.28f );
; 361  : 		pObj3->SetPos( vPos3 );
; 362  : 		pObj3->SetAngle( 180.0f );
; 363  : 		ADDOBJ( pObj3, TRUE, nLayer );
; 364  : 
; 365  : 		CObj *pObj4	= CreateObj( D3DDEVICE, OT_SHIP, 2 );
; 366  : 		D3DXVECTOR3 vPos4 = D3DXVECTOR3( 7558.74f, 90.2f, 3188.28f );
; 367  : 		pObj4->SetPos( vPos4 );
; 368  : 		pObj4->SetAngle( 180.0f );
; 369  : 		ADDOBJ( pObj4, TRUE, nLayer );
; 370  : 
; 371  : 		CObj *pObj5	= CreateObj( D3DDEVICE, OT_SHIP, 3 );
; 372  : 		D3DXVECTOR3 vPos5 = D3DXVECTOR3( 7598.74f, 90.2f, 3198.28f );
; 373  : 		pObj5->SetPos( vPos5 );
; 374  : 		pObj5->SetAngle( 180.0f );
; 375  : 		ADDOBJ( pObj5, TRUE, nLayer );
; 376  : 
; 377  : 	}
; 378  : #endif // IAOBJ0622
; 379  : 
; 380  : 	return TRUE;

  00206	8d 4c 24 18	 lea	 ecx, DWORD PTR _file$[esp+56]
  0020a	c6 44 24 34 01	 mov	 BYTE PTR __$EHRec$[esp+64], 1
  0020f	c7 44 24 18 00
	00 00 00	 mov	 DWORD PTR _file$[esp+56], OFFSET FLAT:??_7CFileIO@@6B@
  00217	e8 00 00 00 00	 call	 ?Close@CFileIO@@UAEHXZ	; CFileIO::Close
  0021c	8d 47 f0	 lea	 eax, DWORD PTR [edi-16]
  0021f	88 5c 24 34	 mov	 BYTE PTR __$EHRec$[esp+64], bl
  00223	8d 50 0c	 lea	 edx, DWORD PTR [eax+12]
  00226	83 c9 ff	 or	 ecx, -1
  00229	f0 0f c1 0a	 lock	  xadd	 DWORD PTR [edx], ecx
  0022d	49		 dec	 ecx
  0022e	85 c9		 test	 ecx, ecx
  00230	7f 08		 jg	 SHORT $L268289
  00232	8b 08		 mov	 ecx, DWORD PTR [eax]
  00234	8b 11		 mov	 edx, DWORD PTR [ecx]
  00236	50		 push	 eax
  00237	ff 52 04	 call	 DWORD PTR [edx+4]
$L268289:
  0023a	8b 44 24 10	 mov	 eax, DWORD PTR _strLandName$[esp+56]
  0023e	83 c0 f0	 add	 eax, -16		; fffffff0H
  00241	c7 44 24 34 ff
	ff ff ff	 mov	 DWORD PTR __$EHRec$[esp+64], -1
  00249	8d 48 0c	 lea	 ecx, DWORD PTR [eax+12]
  0024c	83 ca ff	 or	 edx, -1
  0024f	f0 0f c1 11	 lock	  xadd	 DWORD PTR [ecx], edx
  00253	4a		 dec	 edx
  00254	85 d2		 test	 edx, edx
  00256	7f 08		 jg	 SHORT $L268314
  00258	8b 08		 mov	 ecx, DWORD PTR [eax]
  0025a	8b 11		 mov	 edx, DWORD PTR [ecx]
  0025c	50		 push	 eax
  0025d	ff 52 04	 call	 DWORD PTR [edx+4]
$L268314:

; 381  : }

  00260	8b 4c 24 2c	 mov	 ecx, DWORD PTR __$EHRec$[esp+56]
  00264	5f		 pop	 edi
  00265	5e		 pop	 esi
  00266	5d		 pop	 ebp
  00267	b8 01 00 00 00	 mov	 eax, 1
  0026c	5b		 pop	 ebx
  0026d	64 89 0d 00 00
	00 00		 mov	 DWORD PTR fs:__except_list, ecx
  00274	83 c4 28	 add	 esp, 40			; 00000028H
  00277	c2 04 00	 ret	 4
_TEXT	ENDS
;	COMDAT text$x
text$x	SEGMENT
$L268136:
  00000	8d 4d d8	 lea	 ecx, DWORD PTR _strLandName$[ebp]
  00003	e9 00 00 00 00	 jmp	 ??1?$CStringT@DV?$StrTraitMFC@DV?$ChTraitsCRT@D@ATL@@@@@ATL@@QAE@XZ ; ATL::CStringT<char,StrTraitMFC<char,ATL::ChTraitsCRT<char> > >::~CStringT<char,StrTraitMFC<char,ATL::ChTraitsCRT<char> > >
$L268137:
  00008	8d 4d dc	 lea	 ecx, DWORD PTR _strLandTemp$[ebp]
  0000b	e9 00 00 00 00	 jmp	 ??1?$CStringT@DV?$StrTraitMFC@DV?$ChTraitsCRT@D@ATL@@@@@ATL@@QAE@XZ ; ATL::CStringT<char,StrTraitMFC<char,ATL::ChTraitsCRT<char> > >::~CStringT<char,StrTraitMFC<char,ATL::ChTraitsCRT<char> > >
$L268138:
  00010	8d 4d e0	 lea	 ecx, DWORD PTR _file$[ebp]
  00013	e9 00 00 00 00	 jmp	 ??1CFileIO@@UAE@XZ	; CFileIO::~CFileIO
__ehhandler$?LoadObject@CWorld@@QAEHH@Z:
  00018	b8 00 00 00 00	 mov	 eax, OFFSET FLAT:$T268319
  0001d	e9 00 00 00 00	 jmp	 ___CxxFrameHandler
text$x	ENDS
?LoadObject@CWorld@@QAEHH@Z ENDP			; CWorld::LoadObject
PUBLIC	?LoadRegion@CWorld@@QAEHXZ			; CWorld::LoadRegion
PUBLIC	??_C@_08OKFNLBGE@?$CFs?$CFs?4rgn?$AA@		; `string'
PUBLIC	??_C@_06JEJEKGIK@region?$AA@			; `string'
PUBLIC	??_C@_07PABIOCAD@respawn?$AA@			; `string'
EXTRN	?Expand@CWorld@@QAEXXZ:NEAR			; CWorld::Expand
;	COMDAT xdata$x
; File c:\program files\microsoft visual studio .net 2003\vc7\atlmfc\include\atlsimpstr.h
xdata$x	SEGMENT
$T268683 DD	0ffffffffH
	DD	FLAT:$L268334
	DD	00H
	DD	FLAT:$L268335
	DD	01H
	DD	FLAT:$L268336
$T268678 DD	019930520H
	DD	03H
	DD	FLAT:$T268683
	DD	2 DUP(00H)
	DD	2 DUP(00H)
xdata$x	ENDS
;	COMDAT ??_C@_08OKFNLBGE@?$CFs?$CFs?4rgn?$AA@
CONST	SEGMENT
??_C@_08OKFNLBGE@?$CFs?$CFs?4rgn?$AA@ DB '%s%s.rgn', 00H ; `string'
CONST	ENDS
;	COMDAT ??_C@_06JEJEKGIK@region?$AA@
CONST	SEGMENT
??_C@_06JEJEKGIK@region?$AA@ DB 'region', 00H		; `string'
CONST	ENDS
;	COMDAT ??_C@_07PABIOCAD@respawn?$AA@
CONST	SEGMENT
??_C@_07PABIOCAD@respawn?$AA@ DB 'respawn', 00H		; `string'
; Function compile flags: /Ogty
; File c:\documents and settings\test\mes documents\source\virtuos_v17\build\program\_common\worldfile.cpp
CONST	ENDS
;	COMDAT ?LoadRegion@CWorld@@QAEHXZ
_TEXT	SEGMENT
_strLandName$ = -3560					; size = 4
_strLandTemp$ = -3556					; size = 4
_s$ = -3552						; size = 3536
__$ArrayPad$ = -16					; size = 4
__$EHRec$ = -12						; size = 12
__$ReturnAddr$ = 4					; size = 4
?LoadRegion@CWorld@@QAEHXZ PROC NEAR			; CWorld::LoadRegion, COMDAT
; _this$ = ecx

; 776  : {

  00000	6a ff		 push	 -1
  00002	68 00 00 00 00	 push	 __ehhandler$?LoadRegion@CWorld@@QAEHXZ
  00007	64 a1 00 00 00
	00		 mov	 eax, DWORD PTR fs:__except_list
  0000d	50		 push	 eax
  0000e	64 89 25 00 00
	00 00		 mov	 DWORD PTR fs:__except_list, esp
  00015	81 ec dc 0d 00
	00		 sub	 esp, 3548		; 00000ddcH
  0001b	a1 00 00 00 00	 mov	 eax, DWORD PTR ___security_cookie
  00020	33 c4		 xor	 eax, esp
  00022	56		 push	 esi
  00023	8b f1		 mov	 esi, ecx
  00025	89 84 24 dc 0d
	00 00		 mov	 DWORD PTR __$ArrayPad$[esp+3564], eax
  0002c	57		 push	 edi

; 777  : #if defined( __WORLDSERVER ) || defined(__CLIENT)
; 778  : 	CString strLandName = m_szFileName;

  0002d	8d 86 38 92 08
	00		 lea	 eax, DWORD PTR [esi+561720]
  00033	50		 push	 eax
  00034	8d 4c 24 0c	 lea	 ecx, DWORD PTR _strLandName$[esp+3572]
  00038	e8 00 00 00 00	 call	 ??0?$CStringT@DV?$StrTraitMFC@DV?$ChTraitsCRT@D@ATL@@@@@ATL@@QAE@PBD@Z ; ATL::CStringT<char,StrTraitMFC<char,ATL::ChTraitsCRT<char> > >::CStringT<char,StrTraitMFC<char,ATL::ChTraitsCRT<char> > >
  0003d	c7 84 24 ec 0d
	00 00 00 00 00
	00		 mov	 DWORD PTR __$EHRec$[esp+3576], 0

; 779  : 	CString strLandTemp;

  00048	e8 00 00 00 00	 call	 ?AfxGetStringManager@@YGPAUIAtlStringMgr@ATL@@XZ ; AfxGetStringManager
  0004d	8b 10		 mov	 edx, DWORD PTR [eax]
  0004f	8b c8		 mov	 ecx, eax
  00051	ff 52 0c	 call	 DWORD PTR [edx+12]
  00054	83 c0 10	 add	 eax, 16			; 00000010H
  00057	89 44 24 0c	 mov	 DWORD PTR _strLandTemp$[esp+3568], eax

; 780  : 	strLandName.Delete( strLandName.GetLength() - 4, 4 );

  0005b	8b 44 24 08	 mov	 eax, DWORD PTR _strLandName$[esp+3568]
  0005f	8b 40 f4	 mov	 eax, DWORD PTR [eax-12]
  00062	6a 04		 push	 4
  00064	83 c0 fc	 add	 eax, -4			; fffffffcH
  00067	50		 push	 eax
  00068	8d 4c 24 10	 lea	 ecx, DWORD PTR _strLandName$[esp+3576]
  0006c	c6 84 24 f4 0d
	00 00 01	 mov	 BYTE PTR __$EHRec$[esp+3584], 1
  00074	e8 00 00 00 00	 call	 ?Delete@?$CStringT@DV?$StrTraitMFC@DV?$ChTraitsCRT@D@ATL@@@@@ATL@@QAEHHH@Z ; ATL::CStringT<char,StrTraitMFC<char,ATL::ChTraitsCRT<char> > >::Delete

; 781  : 	strLandTemp.Format( "%s%s.rgn", m_szFilePath, strLandName );

  00079	8b 4c 24 08	 mov	 ecx, DWORD PTR _strLandName$[esp+3568]
  0007d	51		 push	 ecx
  0007e	8d 96 34 91 08
	00		 lea	 edx, DWORD PTR [esi+561460]
  00084	52		 push	 edx
  00085	8d 44 24 14	 lea	 eax, DWORD PTR _strLandTemp$[esp+3576]
  00089	68 00 00 00 00	 push	 OFFSET FLAT:??_C@_08OKFNLBGE@?$CFs?$CFs?4rgn?$AA@
  0008e	50		 push	 eax
  0008f	e8 00 00 00 00	 call	 ?Format@?$CStringT@DV?$StrTraitMFC@DV?$ChTraitsCRT@D@ATL@@@@@ATL@@QAAXPBDZZ ; ATL::CStringT<char,StrTraitMFC<char,ATL::ChTraitsCRT<char> > >::Format
  00094	83 c4 10	 add	 esp, 16			; 00000010H

; 782  : 
; 783  : 	CScript s;

  00097	6a 00		 push	 0
  00099	8d 4c 24 14	 lea	 ecx, DWORD PTR _s$[esp+3572]
  0009d	e8 00 00 00 00	 call	 ??0CScript@@QAE@H@Z	; CScript::CScript

; 784  : 	if( s.Load( strLandTemp, FALSE ) )

  000a2	8b 7c 24 0c	 mov	 edi, DWORD PTR _strLandTemp$[esp+3568]
  000a6	6a 00		 push	 0
  000a8	6a 00		 push	 0
  000aa	57		 push	 edi
  000ab	8d 4c 24 1c	 lea	 ecx, DWORD PTR _s$[esp+3580]
  000af	c6 84 24 f8 0d
	00 00 02	 mov	 BYTE PTR __$EHRec$[esp+3588], 2
  000b7	e8 00 00 00 00	 call	 ?Load@CScript@@QAEHPBDHH@Z ; CScript::Load
  000bc	85 c0		 test	 eax, eax

; 785  : 	{
; 786  : 		D3DXVECTOR3 vPos;
; 787  : 		s.GetToken();

  000be	8d 4c 24 10	 lea	 ecx, DWORD PTR _s$[esp+3568]
  000c2	0f 84 a1 01 00
	00		 je	 $L258708
  000c8	6a 00		 push	 0
  000ca	e8 00 00 00 00	 call	 ?GetToken@CScript@@UAEHH@Z ; CScript::GetToken

; 788  : 		while( s.tok != FINISHED )

  000cf	83 bc 24 3c 08
	00 00 15	 cmp	 DWORD PTR _s$[esp+5660], 21 ; 00000015H
  000d7	0f 84 22 01 00
	00		 je	 $L258712
  000dd	8d 49 00	 npad	 3
$L258711:

; 789  : 		{
; 790  : 			if( s.Token == _T( "region" ) || s.Token == _T( "region2" ) || s.Token == _T( "region3" ) )

  000e0	8b 4c 24 30	 mov	 ecx, DWORD PTR _s$[esp+3600]
  000e4	68 00 00 00 00	 push	 OFFSET FLAT:??_C@_06JEJEKGIK@region?$AA@
  000e9	51		 push	 ecx
  000ea	e8 00 00 00 00	 call	 __mbscmp
  000ef	83 c4 08	 add	 esp, 8
  000f2	85 c0		 test	 eax, eax
  000f4	0f 84 e0 00 00
	00		 je	 $L258714
  000fa	8b 54 24 30	 mov	 edx, DWORD PTR _s$[esp+3600]
  000fe	68 00 00 00 00	 push	 OFFSET FLAT:??_C@_07OAIJKKOJ@region2?$AA@
  00103	52		 push	 edx
  00104	e8 00 00 00 00	 call	 __mbscmp
  00109	83 c4 08	 add	 esp, 8
  0010c	85 c0		 test	 eax, eax
  0010e	0f 84 c6 00 00
	00		 je	 $L258714
  00114	8b 44 24 30	 mov	 eax, DWORD PTR _s$[esp+3600]
  00118	68 00 00 00 00	 push	 OFFSET FLAT:??_C@_07PJJCJLKI@region3?$AA@
  0011d	50		 push	 eax
  0011e	e8 00 00 00 00	 call	 __mbscmp
  00123	83 c4 08	 add	 esp, 8
  00126	85 c0		 test	 eax, eax
  00128	0f 84 ac 00 00
	00		 je	 $L258714

; 793  : 			}
; 794  : 			else
; 795  : 			if( s.Token == _T( "respawn" ) || s.Token == _T( "respawn2" ) || s.Token == _T( "respawn3" ) || s.Token == _T( "respawn4" ) || s.Token == _T( "respawn5" ) || s.Token == _T( "respawn6" ) || s.Token == _T( "respawn7" ))

  0012e	8b 4c 24 30	 mov	 ecx, DWORD PTR _s$[esp+3600]
  00132	68 00 00 00 00	 push	 OFFSET FLAT:??_C@_07PABIOCAD@respawn?$AA@
  00137	51		 push	 ecx
  00138	e8 00 00 00 00	 call	 __mbscmp
  0013d	83 c4 08	 add	 esp, 8
  00140	85 c0		 test	 eax, eax
  00142	0f 84 84 00 00
	00		 je	 $L258718
  00148	8b 54 24 30	 mov	 edx, DWORD PTR _s$[esp+3600]
  0014c	68 00 00 00 00	 push	 OFFSET FLAT:??_C@_08HEIJBNCJ@respawn2?$AA@
  00151	52		 push	 edx
  00152	e8 00 00 00 00	 call	 __mbscmp
  00157	83 c4 08	 add	 esp, 8
  0015a	85 c0		 test	 eax, eax
  0015c	74 6e		 je	 SHORT $L258718
  0015e	8b 44 24 30	 mov	 eax, DWORD PTR _s$[esp+3600]
  00162	68 00 00 00 00	 push	 OFFSET FLAT:??_C@_08GNJCCMGI@respawn3?$AA@
  00167	50		 push	 eax
  00168	e8 00 00 00 00	 call	 __mbscmp
  0016d	83 c4 08	 add	 esp, 8
  00170	85 c0		 test	 eax, eax
  00172	74 58		 je	 SHORT $L258718
  00174	8b 4c 24 30	 mov	 ecx, DWORD PTR _s$[esp+3600]
  00178	68 00 00 00 00	 push	 OFFSET FLAT:??_C@_08CCNDLKKP@respawn4?$AA@
  0017d	51		 push	 ecx
  0017e	e8 00 00 00 00	 call	 __mbscmp
  00183	83 c4 08	 add	 esp, 8
  00186	85 c0		 test	 eax, eax
  00188	74 42		 je	 SHORT $L258718
  0018a	8b 54 24 30	 mov	 edx, DWORD PTR _s$[esp+3600]
  0018e	68 00 00 00 00	 push	 OFFSET FLAT:??_C@_08DLMIILOO@respawn5?$AA@
  00193	52		 push	 edx
  00194	e8 00 00 00 00	 call	 __mbscmp
  00199	83 c4 08	 add	 esp, 8
  0019c	85 c0		 test	 eax, eax
  0019e	74 2c		 je	 SHORT $L258718
  001a0	8d 44 24 30	 lea	 eax, DWORD PTR _s$[esp+3600]
  001a4	68 00 00 00 00	 push	 OFFSET FLAT:??_C@_08BAOFNICN@respawn6?$AA@
  001a9	50		 push	 eax
  001aa	e8 00 00 00 00	 call	 ??8ATL@@YA_NABV?$CStringT@DV?$StrTraitMFC@DV?$ChTraitsCRT@D@ATL@@@@@0@PBD@Z ; ATL::operator==
  001af	83 c4 08	 add	 esp, 8
  001b2	84 c0		 test	 al, al
  001b4	75 16		 jne	 SHORT $L258718
  001b6	8d 4c 24 30	 lea	 ecx, DWORD PTR _s$[esp+3600]
  001ba	68 00 00 00 00	 push	 OFFSET FLAT:??_C@_08JPOOJGM@respawn7?$AA@
  001bf	51		 push	 ecx
  001c0	e8 00 00 00 00	 call	 ??8ATL@@YA_NABV?$CStringT@DV?$StrTraitMFC@DV?$ChTraitsCRT@D@ATL@@@@@0@PBD@Z ; ATL::operator==
  001c5	83 c4 08	 add	 esp, 8
  001c8	84 c0		 test	 al, al
  001ca	74 1a		 je	 SHORT $L258717
$L258718:

; 796  : 			{
; 797  : 				ReadRespawn( s );

  001cc	8d 54 24 10	 lea	 edx, DWORD PTR _s$[esp+3568]
  001d0	52		 push	 edx
  001d1	8b ce		 mov	 ecx, esi
  001d3	e8 00 00 00 00	 call	 ?ReadRespawn@CWorld@@QAEHAAVCScript@@@Z ; CWorld::ReadRespawn
  001d8	eb 0c		 jmp	 SHORT $L258717
$L258714:

; 791  : 			{
; 792  : 				ReadRegion( s );

  001da	8d 44 24 10	 lea	 eax, DWORD PTR _s$[esp+3568]
  001de	50		 push	 eax
  001df	8b ce		 mov	 ecx, esi
  001e1	e8 00 00 00 00	 call	 ?ReadRegion@CWorld@@QAEHAAVCScript@@@Z ; CWorld::ReadRegion
$L258717:

; 798  : 			}
; 799  : 			s.GetToken();

  001e6	6a 00		 push	 0
  001e8	8d 4c 24 14	 lea	 ecx, DWORD PTR _s$[esp+3572]
  001ec	e8 00 00 00 00	 call	 ?GetToken@CScript@@UAEHH@Z ; CScript::GetToken
  001f1	83 bc 24 3c 08
	00 00 15	 cmp	 DWORD PTR _s$[esp+5660], 21 ; 00000015H
  001f9	0f 85 e1 fe ff
	ff		 jne	 $L258711
$L258712:

; 800  : 		}
; 801  : #ifdef __LAYER_1021
; 802  : 		Expand();

  001ff	8b ce		 mov	 ecx, esi
  00201	e8 00 00 00 00	 call	 ?Expand@CWorld@@QAEXXZ	; CWorld::Expand

; 803  : #endif	// __LAYER_1021
; 804  : 		return TRUE;

  00206	8d 4c 24 10	 lea	 ecx, DWORD PTR _s$[esp+3568]
  0020a	c6 84 24 ec 0d
	00 00 01	 mov	 BYTE PTR __$EHRec$[esp+3576], 1
  00212	e8 00 00 00 00	 call	 ??1CScript@@UAE@XZ	; CScript::~CScript
  00217	8d 47 f0	 lea	 eax, DWORD PTR [edi-16]
  0021a	c6 84 24 ec 0d
	00 00 00	 mov	 BYTE PTR __$EHRec$[esp+3576], 0
  00222	8d 48 0c	 lea	 ecx, DWORD PTR [eax+12]
  00225	83 ca ff	 or	 edx, -1
  00228	f0 0f c1 11	 lock	  xadd	 DWORD PTR [ecx], edx
  0022c	4a		 dec	 edx
  0022d	85 d2		 test	 edx, edx
  0022f	7f 08		 jg	 SHORT $L268591
  00231	8b 08		 mov	 ecx, DWORD PTR [eax]
  00233	8b 11		 mov	 edx, DWORD PTR [ecx]
  00235	50		 push	 eax
  00236	ff 52 04	 call	 DWORD PTR [edx+4]
$L268591:
  00239	8b 44 24 08	 mov	 eax, DWORD PTR _strLandName$[esp+3568]
  0023d	83 c0 f0	 add	 eax, -16		; fffffff0H
  00240	c7 84 24 ec 0d
	00 00 ff ff ff
	ff		 mov	 DWORD PTR __$EHRec$[esp+3576], -1
  0024b	8d 48 0c	 lea	 ecx, DWORD PTR [eax+12]
  0024e	83 ca ff	 or	 edx, -1
  00251	f0 0f c1 11	 lock	  xadd	 DWORD PTR [ecx], edx
  00255	4a		 dec	 edx
  00256	85 d2		 test	 edx, edx
  00258	7f 08		 jg	 SHORT $L268618
  0025a	8b 08		 mov	 ecx, DWORD PTR [eax]
  0025c	8b 11		 mov	 edx, DWORD PTR [ecx]
  0025e	50		 push	 eax
  0025f	ff 52 04	 call	 DWORD PTR [edx+4]
$L268618:
  00262	b8 01 00 00 00	 mov	 eax, 1
  00267	eb 5a		 jmp	 SHORT $L258703
$L258708:

; 805  : 	}
; 806  : #endif
; 807  : 
; 808  : 	return FALSE;

  00269	c6 84 24 ec 0d
	00 00 01	 mov	 BYTE PTR __$EHRec$[esp+3576], 1
  00271	e8 00 00 00 00	 call	 ??1CScript@@UAE@XZ	; CScript::~CScript
  00276	8d 47 f0	 lea	 eax, DWORD PTR [edi-16]
  00279	c6 84 24 ec 0d
	00 00 00	 mov	 BYTE PTR __$EHRec$[esp+3576], 0
  00281	8d 48 0c	 lea	 ecx, DWORD PTR [eax+12]
  00284	83 ca ff	 or	 edx, -1
  00287	f0 0f c1 11	 lock	  xadd	 DWORD PTR [ecx], edx
  0028b	4a		 dec	 edx
  0028c	85 d2		 test	 edx, edx
  0028e	7f 08		 jg	 SHORT $L268645
  00290	8b 08		 mov	 ecx, DWORD PTR [eax]
  00292	8b 11		 mov	 edx, DWORD PTR [ecx]
  00294	50		 push	 eax
  00295	ff 52 04	 call	 DWORD PTR [edx+4]
$L268645:
  00298	8b 44 24 08	 mov	 eax, DWORD PTR _strLandName$[esp+3568]
  0029c	83 c0 f0	 add	 eax, -16		; fffffff0H
  0029f	c7 84 24 ec 0d
	00 00 ff ff ff
	ff		 mov	 DWORD PTR __$EHRec$[esp+3576], -1
  002aa	8d 48 0c	 lea	 ecx, DWORD PTR [eax+12]
  002ad	83 ca ff	 or	 edx, -1
  002b0	f0 0f c1 11	 lock	  xadd	 DWORD PTR [ecx], edx
  002b4	4a		 dec	 edx
  002b5	85 d2		 test	 edx, edx
  002b7	7f 08		 jg	 SHORT $L268672
  002b9	8b 08		 mov	 ecx, DWORD PTR [eax]
  002bb	8b 11		 mov	 edx, DWORD PTR [ecx]
  002bd	50		 push	 eax
  002be	ff 52 04	 call	 DWORD PTR [edx+4]
$L268672:
  002c1	33 c0		 xor	 eax, eax
$L258703:

; 809  : }

  002c3	8b 8c 24 e4 0d
	00 00		 mov	 ecx, DWORD PTR __$EHRec$[esp+3568]
  002ca	5f		 pop	 edi
  002cb	64 89 0d 00 00
	00 00		 mov	 DWORD PTR fs:__except_list, ecx
  002d2	8b 8c 24 dc 0d
	00 00		 mov	 ecx, DWORD PTR __$ArrayPad$[esp+3564]
  002d9	5e		 pop	 esi
  002da	33 cc		 xor	 ecx, esp
  002dc	e8 00 00 00 00	 call	 @__security_check_cookie@4
  002e1	81 c4 e8 0d 00
	00		 add	 esp, 3560		; 00000de8H
  002e7	c3		 ret	 0
_TEXT	ENDS
;	COMDAT text$x
text$x	SEGMENT
$L268334:
  00000	8d 8d 18 f2 ff
	ff		 lea	 ecx, DWORD PTR _strLandName$[ebp]
  00006	e9 00 00 00 00	 jmp	 ??1?$CStringT@DV?$StrTraitMFC@DV?$ChTraitsCRT@D@ATL@@@@@ATL@@QAE@XZ ; ATL::CStringT<char,StrTraitMFC<char,ATL::ChTraitsCRT<char> > >::~CStringT<char,StrTraitMFC<char,ATL::ChTraitsCRT<char> > >
$L268335:
  0000b	8d 8d 1c f2 ff
	ff		 lea	 ecx, DWORD PTR _strLandTemp$[ebp]
  00011	e9 00 00 00 00	 jmp	 ??1?$CStringT@DV?$StrTraitMFC@DV?$ChTraitsCRT@D@ATL@@@@@ATL@@QAE@XZ ; ATL::CStringT<char,StrTraitMFC<char,ATL::ChTraitsCRT<char> > >::~CStringT<char,StrTraitMFC<char,ATL::ChTraitsCRT<char> > >
$L268336:
  00016	8d 8d 20 f2 ff
	ff		 lea	 ecx, DWORD PTR _s$[ebp]
  0001c	e9 00 00 00 00	 jmp	 ??1CScript@@UAE@XZ	; CScript::~CScript
__ehhandler$?LoadRegion@CWorld@@QAEHXZ:
  00021	b8 00 00 00 00	 mov	 eax, OFFSET FLAT:$T268678
  00026	e9 00 00 00 00	 jmp	 ___CxxFrameHandler
text$x	ENDS
?LoadRegion@CWorld@@QAEHXZ ENDP				; CWorld::LoadRegion
PUBLIC	?CreateLayer@CWorld@@QAEHH@Z			; CWorld::CreateLayer
EXTRN	?Expand@CLayerdRespawner@@QAEXH@Z:NEAR		; CLayerdRespawner::Expand
EXTRN	?CreateLinkMap@CLayeredLinkMap@@QAEHH@Z:NEAR	; CLayeredLinkMap::CreateLinkMap
; Function compile flags: /Ogty
;	COMDAT ?CreateLayer@CWorld@@QAEHH@Z
_TEXT	SEGMENT
_nLayer$ = 8						; size = 4
?CreateLayer@CWorld@@QAEHH@Z PROC NEAR			; CWorld::CreateLayer, COMDAT
; _this$ = ecx

; 1200 : {

  00000	56		 push	 esi

; 1201 : //	ASSERT( IsExpandable() );
; 1202 : //	if( !IsExpandable() )
; 1203 : //		return FALSE;
; 1204 : 	ASSERT( nLayer != 0 );
; 1205 : 	if( nLayer == 0 )

  00001	8b 74 24 08	 mov	 esi, DWORD PTR _nLayer$[esp]
  00005	85 f6		 test	 esi, esi
  00007	57		 push	 edi
  00008	8b f9		 mov	 edi, ecx
  0000a	75 07		 jne	 SHORT $L258867
  0000c	5f		 pop	 edi

; 1206 : 		return FALSE;

  0000d	33 c0		 xor	 eax, eax
  0000f	5e		 pop	 esi

; 1216 : }

  00010	c2 04 00	 ret	 4
$L258867:
  00013	53		 push	 ebx

; 1207 : 	if( !m_linkMap.CreateLinkMap( nLayer ) )

  00014	8d 5f 24	 lea	 ebx, DWORD PTR [edi+36]
  00017	56		 push	 esi
  00018	8b cb		 mov	 ecx, ebx
  0001a	e8 00 00 00 00	 call	 ?CreateLinkMap@CLayeredLinkMap@@QAEHH@Z ; CLayeredLinkMap::CreateLinkMap
  0001f	85 c0		 test	 eax, eax

; 1208 : 		return FALSE;

  00021	74 14		 je	 SHORT $L268690

; 1209 : 	if( !LoadObject( nLayer ) )

  00023	56		 push	 esi
  00024	8b cf		 mov	 ecx, edi
  00026	e8 00 00 00 00	 call	 ?LoadObject@CWorld@@QAEHH@Z ; CWorld::LoadObject
  0002b	85 c0		 test	 eax, eax

; 1210 : 	{
; 1211 : 		m_linkMap.DeleteLinkMap( nLayer );

  0002d	56		 push	 esi
  0002e	75 0f		 jne	 SHORT $L258869
  00030	8b cb		 mov	 ecx, ebx
  00032	e8 00 00 00 00	 call	 ?DeleteLinkMap@CLayeredLinkMap@@QAEXH@Z ; CLayeredLinkMap::DeleteLinkMap
$L268690:
  00037	5b		 pop	 ebx
  00038	5f		 pop	 edi

; 1212 : 		return FALSE;

  00039	33 c0		 xor	 eax, eax
  0003b	5e		 pop	 esi

; 1216 : }

  0003c	c2 04 00	 ret	 4
$L258869:

; 1213 : 	}
; 1214 : 	m_respawner.Expand( nLayer );

  0003f	8d 8f c0 30 08
	00		 lea	 ecx, DWORD PTR [edi+536768]
  00045	e8 00 00 00 00	 call	 ?Expand@CLayerdRespawner@@QAEXH@Z ; CLayerdRespawner::Expand
  0004a	5b		 pop	 ebx
  0004b	5f		 pop	 edi

; 1215 : 	return TRUE;

  0004c	b8 01 00 00 00	 mov	 eax, 1
  00051	5e		 pop	 esi

; 1216 : }

  00052	c2 04 00	 ret	 4
?CreateLayer@CWorld@@QAEHH@Z ENDP			; CWorld::CreateLayer
_TEXT	ENDS
PUBLIC	?_Insert_n@?$vector@PAVCObj@@V?$allocator@PAVCObj@@@std@@@std@@IAEXViterator@12@IABQAVCObj@@@Z ; std::vector<CObj *,std::allocator<CObj *> >::_Insert_n
; Function compile flags: /Ogty
; File c:\program files\microsoft visual studio .net 2003\vc7\include\vector
;	COMDAT ?_Insert_n@?$vector@PAVCObj@@V?$allocator@PAVCObj@@@std@@@std@@IAEXViterator@12@IABQAVCObj@@@Z
_TEXT	SEGMENT
__Newvec$260609 = -4					; size = 4
tv393 = 8						; size = 4
__Where$ = 8						; size = 4
tv382 = 12						; size = 4
__Count$ = 12						; size = 4
__Tmp$ = 16						; size = 4
__Val$ = 16						; size = 4
?_Insert_n@?$vector@PAVCObj@@V?$allocator@PAVCObj@@@std@@@std@@IAEXViterator@12@IABQAVCObj@@@Z PROC NEAR ; std::vector<CObj *,std::allocator<CObj *> >::_Insert_n, COMDAT
; _this$ = ecx

; 809  : 		{	// insert _Count * _Val at _Where

  00000	51		 push	 ecx

; 810  : 		_Ty _Tmp = _Val;	// in case _Val is in sequence

  00001	8b 44 24 10	 mov	 eax, DWORD PTR __Val$[esp]
  00005	56		 push	 esi
  00006	8b f1		 mov	 esi, ecx

; 811  : 		size_type _Capacity = capacity();

  00008	8b 56 04	 mov	 edx, DWORD PTR [esi+4]
  0000b	85 d2		 test	 edx, edx
  0000d	8b 08		 mov	 ecx, DWORD PTR [eax]
  0000f	57		 push	 edi
  00010	89 4c 24 18	 mov	 DWORD PTR __Tmp$[esp+8], ecx
  00014	75 04		 jne	 SHORT $L268705
  00016	33 c0		 xor	 eax, eax
  00018	eb 08		 jmp	 SHORT $L268706
$L268705:
  0001a	8b 46 0c	 mov	 eax, DWORD PTR [esi+12]
  0001d	2b c2		 sub	 eax, edx
  0001f	c1 f8 02	 sar	 eax, 2
$L268706:

; 812  : 
; 813  : 		if (_Count == 0)

  00022	8b 7c 24 14	 mov	 edi, DWORD PTR __Count$[esp+8]
  00026	85 ff		 test	 edi, edi
  00028	0f 84 ac 01 00
	00		 je	 $L260629

; 814  : 			;
; 815  : 		else if (max_size() - size() < _Count)

  0002e	85 d2		 test	 edx, edx
  00030	75 04		 jne	 SHORT $L268728
  00032	33 c9		 xor	 ecx, ecx
  00034	eb 08		 jmp	 SHORT $L268729
$L268728:
  00036	8b 4e 08	 mov	 ecx, DWORD PTR [esi+8]
  00039	2b ca		 sub	 ecx, edx
  0003b	c1 f9 02	 sar	 ecx, 2
$L268729:
  0003e	53		 push	 ebx
  0003f	bb ff ff ff 3f	 mov	 ebx, 1073741823		; 3fffffffH
  00044	2b d9		 sub	 ebx, ecx
  00046	3b df		 cmp	 ebx, edi
  00048	73 07		 jae	 SHORT $L260605

; 816  : 			_Xlen();	// result too long

  0004a	8b ce		 mov	 ecx, esi
  0004c	e8 00 00 00 00	 call	 ?_Xlen@?$vector@PAVCObj@@V?$allocator@PAVCObj@@@std@@@std@@IBEXXZ ; std::vector<CObj *,std::allocator<CObj *> >::_Xlen
$L268859:
$L260605:

; 817  : 		else if (_Capacity < size() + _Count)

  00051	85 d2		 test	 edx, edx
  00053	75 04		 jne	 SHORT $L268735
  00055	33 c9		 xor	 ecx, ecx
  00057	eb 08		 jmp	 SHORT $L268736
$L268735:
  00059	8b 4e 08	 mov	 ecx, DWORD PTR [esi+8]
  0005c	2b ca		 sub	 ecx, edx
  0005e	c1 f9 02	 sar	 ecx, 2
$L268736:
  00061	03 cf		 add	 ecx, edi
  00063	3b c1		 cmp	 eax, ecx
  00065	55		 push	 ebp
  00066	0f 83 d6 00 00
	00		 jae	 $L260607

; 818  : 			{	// not enough room, reallocate
; 819  : 			_Capacity = max_size() - _Capacity / 2 < _Capacity
; 820  : 				? 0 : _Capacity + _Capacity / 2;	// try to grow by 50%

  0006c	8b c8		 mov	 ecx, eax
  0006e	d1 e9		 shr	 ecx, 1
  00070	bb ff ff ff 3f	 mov	 ebx, 1073741823		; 3fffffffH
  00075	2b d9		 sub	 ebx, ecx
  00077	3b d8		 cmp	 ebx, eax
  00079	73 04		 jae	 SHORT $L268694
  0007b	33 c0		 xor	 eax, eax
  0007d	eb 02		 jmp	 SHORT $L268695
$L268694:
  0007f	03 c1		 add	 eax, ecx
$L268695:

; 821  : 			if (_Capacity < size() + _Count)

  00081	85 d2		 test	 edx, edx
  00083	75 04		 jne	 SHORT $L268758
  00085	33 c9		 xor	 ecx, ecx
  00087	eb 08		 jmp	 SHORT $L268759
$L268758:
  00089	8b 4e 08	 mov	 ecx, DWORD PTR [esi+8]
  0008c	2b ca		 sub	 ecx, edx
  0008e	c1 f9 02	 sar	 ecx, 2
$L268759:
  00091	03 cf		 add	 ecx, edi
  00093	3b c1		 cmp	 eax, ecx
  00095	73 12		 jae	 SHORT $L260608

; 822  : 				_Capacity = size() + _Count;

  00097	85 d2		 test	 edx, edx
  00099	75 04		 jne	 SHORT $L268765
  0009b	33 c0		 xor	 eax, eax
  0009d	eb 08		 jmp	 SHORT $L268766
$L268765:
  0009f	8b 46 08	 mov	 eax, DWORD PTR [esi+8]
  000a2	2b c2		 sub	 eax, edx
  000a4	c1 f8 02	 sar	 eax, 2
$L268766:
  000a7	03 c7		 add	 eax, edi
$L260608:

; 823  : 			pointer _Newvec = this->_Alval.allocate(_Capacity);

  000a9	c1 e0 02	 shl	 eax, 2
  000ac	50		 push	 eax
  000ad	89 44 24 20	 mov	 DWORD PTR tv382[esp+20], eax
  000b1	e8 00 00 00 00	 call	 ??2@YAPAXI@Z		; operator new

; 824  : 			pointer _Ptr = _Newvec;
; 825  : 
; 826  : 			_TRY_BEGIN
; 827  : 			_Ptr = _Ucopy(_Myfirst, _ITER_BASE(_Where),
; 828  : 				_Newvec);	// copy prefix

  000b6	8b 4e 04	 mov	 ecx, DWORD PTR [esi+4]
  000b9	8b 5c 24 1c	 mov	 ebx, DWORD PTR __Where$[esp+20]
  000bd	8b d0		 mov	 edx, eax
  000bf	8b c3		 mov	 eax, ebx
  000c1	2b c1		 sub	 eax, ecx
  000c3	c1 f8 02	 sar	 eax, 2
  000c6	8d 2c 85 00 00
	00 00		 lea	 ebp, DWORD PTR [eax*4]
  000cd	55		 push	 ebp
  000ce	51		 push	 ecx
  000cf	52		 push	 edx
  000d0	89 54 24 20	 mov	 DWORD PTR __Newvec$260609[esp+36], edx
  000d4	e8 00 00 00 00	 call	 _memmove
  000d9	83 c4 10	 add	 esp, 16			; 00000010H

; 829  : 			_Ptr = _Ufill(_Ptr, _Count, _Tmp);	// add new stuff

  000dc	8d 54 24 20	 lea	 edx, DWORD PTR __Tmp$[esp+16]
  000e0	52		 push	 edx
  000e1	03 c5		 add	 eax, ebp
  000e3	57		 push	 edi
  000e4	50		 push	 eax
  000e5	8b ce		 mov	 ecx, esi
  000e7	e8 00 00 00 00	 call	 ?_Ufill@?$vector@PAVCObj@@V?$allocator@PAVCObj@@@std@@@std@@IAEPAPAVCObj@@PAPAV3@IABQAV3@@Z ; std::vector<CObj *,std::allocator<CObj *> >::_Ufill

; 830  : 			_Ucopy(_ITER_BASE(_Where), _Mylast, _Ptr);	// copy suffix

  000ec	8b 4e 08	 mov	 ecx, DWORD PTR [esi+8]
  000ef	2b cb		 sub	 ecx, ebx
  000f1	c1 f9 02	 sar	 ecx, 2
  000f4	c1 e1 02	 shl	 ecx, 2
  000f7	51		 push	 ecx
  000f8	53		 push	 ebx
  000f9	50		 push	 eax
  000fa	e8 00 00 00 00	 call	 _memmove

; 831  : 			_CATCH_ALL
; 832  : 			_Destroy(_Newvec, _Ptr);
; 833  : 			this->_Alval.deallocate(_Newvec, _Capacity);
; 834  : 			_RERAISE;
; 835  : 			_CATCH_END
; 836  : 
; 837  : 			_Count += size();

  000ff	8b 46 04	 mov	 eax, DWORD PTR [esi+4]
  00102	83 c4 0c	 add	 esp, 12			; 0000000cH
  00105	85 c0		 test	 eax, eax
  00107	75 04		 jne	 SHORT $L268847
  00109	33 c9		 xor	 ecx, ecx
  0010b	eb 08		 jmp	 SHORT $L268848
$L268847:
  0010d	8b 4e 08	 mov	 ecx, DWORD PTR [esi+8]
  00110	2b c8		 sub	 ecx, eax
  00112	c1 f9 02	 sar	 ecx, 2
$L268848:
  00115	03 f9		 add	 edi, ecx

; 838  : 			if (_Myfirst != 0)

  00117	85 c0		 test	 eax, eax
  00119	74 09		 je	 SHORT $L268851

; 839  : 				{	// destroy and deallocate old array
; 840  : 				_Destroy(_Myfirst, _Mylast);
; 841  : 				this->_Alval.deallocate(_Myfirst, _Myend - _Myfirst);

  0011b	50		 push	 eax
  0011c	e8 00 00 00 00	 call	 ??3@YAXPAX@Z		; operator delete
  00121	83 c4 04	 add	 esp, 4
$L268851:

; 842  : 				}
; 843  : 			_Myend = _Newvec + _Capacity;

  00124	8b 44 24 10	 mov	 eax, DWORD PTR __Newvec$260609[esp+20]
  00128	8b 54 24 1c	 mov	 edx, DWORD PTR tv382[esp+16]
  0012c	5d		 pop	 ebp
  0012d	5b		 pop	 ebx

; 844  : 			_Mylast = _Newvec + _Count;

  0012e	8d 0c b8	 lea	 ecx, DWORD PTR [eax+edi*4]
  00131	03 d0		 add	 edx, eax
  00133	5f		 pop	 edi
  00134	89 56 0c	 mov	 DWORD PTR [esi+12], edx
  00137	89 4e 08	 mov	 DWORD PTR [esi+8], ecx

; 845  : 			_Myfirst = _Newvec;

  0013a	89 46 04	 mov	 DWORD PTR [esi+4], eax
  0013d	5e		 pop	 esi

; 873  : 			}
; 874  : 		}

  0013e	59		 pop	 ecx
  0013f	c2 0c 00	 ret	 12			; 0000000cH
$L260607:

; 846  : 			}
; 847  : 		else if ((size_type)(_Mylast - _ITER_BASE(_Where)) < _Count)

  00142	8b 6e 08	 mov	 ebp, DWORD PTR [esi+8]
  00145	8b 5c 24 18	 mov	 ebx, DWORD PTR __Where$[esp+16]
  00149	8b d5		 mov	 edx, ebp
  0014b	2b d3		 sub	 edx, ebx
  0014d	c1 fa 02	 sar	 edx, 2
  00150	3b d7		 cmp	 edx, edi

; 848  : 			{	// new stuff spills off end
; 849  : 			_Ucopy(_ITER_BASE(_Where), _Mylast,
; 850  : 				_ITER_BASE(_Where) + _Count);	// copy suffix

  00152	8d 04 bd 00 00
	00 00		 lea	 eax, DWORD PTR [edi*4]
  00159	8b ce		 mov	 ecx, esi
  0015b	89 44 24 18	 mov	 DWORD PTR tv393[esp+16], eax
  0015f	73 4b		 jae	 SHORT $L260620
  00161	03 c3		 add	 eax, ebx
  00163	50		 push	 eax
  00164	55		 push	 ebp
  00165	53		 push	 ebx
  00166	e8 00 00 00 00	 call	 ??$_Ucopy@PAPAVCObj@@@?$vector@PAVCObj@@V?$allocator@PAVCObj@@@std@@@std@@IAEPAPAVCObj@@PAPAV2@00@Z ; std::vector<CObj *,std::allocator<CObj *> >::_Ucopy<CObj * *>

; 851  : 
; 852  : 			_TRY_BEGIN
; 853  : 			_Ufill(_Mylast, _Count - (_Mylast - _ITER_BASE(_Where)),
; 854  : 				_Tmp);	// insert new stuff off end

  0016b	8b 46 08	 mov	 eax, DWORD PTR [esi+8]
  0016e	8b d0		 mov	 edx, eax
  00170	2b d3		 sub	 edx, ebx
  00172	8d 4c 24 20	 lea	 ecx, DWORD PTR __Tmp$[esp+16]
  00176	51		 push	 ecx
  00177	c1 fa 02	 sar	 edx, 2
  0017a	2b fa		 sub	 edi, edx
  0017c	57		 push	 edi
  0017d	50		 push	 eax
  0017e	8b ce		 mov	 ecx, esi
  00180	e8 00 00 00 00	 call	 ?_Ufill@?$vector@PAVCObj@@V?$allocator@PAVCObj@@@std@@@std@@IAEPAPAVCObj@@PAPAV3@IABQAV3@@Z ; std::vector<CObj *,std::allocator<CObj *> >::_Ufill

; 855  : 			_CATCH_ALL
; 856  : 			_Destroy(_ITER_BASE(_Where) + _Count, _Mylast + _Count);
; 857  : 			_RERAISE;
; 858  : 			_CATCH_END
; 859  : 
; 860  : 			_Mylast += _Count;

  00185	8b 4e 08	 mov	 ecx, DWORD PTR [esi+8]
  00188	8b 44 24 18	 mov	 eax, DWORD PTR tv393[esp+16]
  0018c	03 c8		 add	 ecx, eax
  0018e	89 4e 08	 mov	 DWORD PTR [esi+8], ecx
  00191	8b f1		 mov	 esi, ecx

; 861  : 			fill(_ITER_BASE(_Where), _Mylast - _Count,
; 862  : 				_Tmp);	// insert up to old end

  00193	8d 4c 24 20	 lea	 ecx, DWORD PTR __Tmp$[esp+16]
  00197	51		 push	 ecx
  00198	2b f0		 sub	 esi, eax
  0019a	56		 push	 esi
  0019b	53		 push	 ebx
  0019c	e8 00 00 00 00	 call	 ??$fill@PAPAVCObj@@PAV1@@std@@YAXPAPAVCObj@@0ABQAV1@@Z ; std::fill<CObj * *,CObj *>
  001a1	83 c4 0c	 add	 esp, 12			; 0000000cH
  001a4	5d		 pop	 ebp
  001a5	5b		 pop	 ebx
  001a6	5f		 pop	 edi
  001a7	5e		 pop	 esi

; 873  : 			}
; 874  : 		}

  001a8	59		 pop	 ecx
  001a9	c2 0c 00	 ret	 12			; 0000000cH
$L260620:

; 863  : 			}
; 864  : 		else
; 865  : 			{	// new stuff can all be assigned
; 866  : 			pointer _Oldend = _Mylast;
; 867  : 			_Mylast = _Ucopy(_Oldend - _Count, _Oldend,
; 868  : 				_Mylast);	// copy suffix

  001ac	55		 push	 ebp
  001ad	8b fd		 mov	 edi, ebp
  001af	2b f8		 sub	 edi, eax
  001b1	55		 push	 ebp
  001b2	57		 push	 edi
  001b3	e8 00 00 00 00	 call	 ??$_Ucopy@PAPAVCObj@@@?$vector@PAVCObj@@V?$allocator@PAVCObj@@@std@@@std@@IAEPAPAVCObj@@PAPAV2@00@Z ; std::vector<CObj *,std::allocator<CObj *> >::_Ucopy<CObj * *>

; 869  : 			copy_backward(_ITER_BASE(_Where), _Oldend - _Count,
; 870  : 				_Oldend);	// copy hole

  001b8	55		 push	 ebp
  001b9	57		 push	 edi
  001ba	53		 push	 ebx
  001bb	89 46 08	 mov	 DWORD PTR [esi+8], eax
  001be	e8 00 00 00 00	 call	 ??$copy_backward@PAPAVCObj@@PAPAV1@@std@@YAPAPAVCObj@@PAPAV1@00@Z ; std::copy_backward<CObj * *,CObj * *>

; 871  : 			fill(_ITER_BASE(_Where), _ITER_BASE(_Where) + _Count,
; 872  : 				_Tmp);	// insert into hole

  001c3	8b 44 24 24	 mov	 eax, DWORD PTR tv393[esp+28]
  001c7	8d 54 24 2c	 lea	 edx, DWORD PTR __Tmp$[esp+28]
  001cb	52		 push	 edx
  001cc	03 c3		 add	 eax, ebx
  001ce	50		 push	 eax
  001cf	53		 push	 ebx
  001d0	e8 00 00 00 00	 call	 ??$fill@PAPAVCObj@@PAV1@@std@@YAXPAPAVCObj@@0ABQAV1@@Z ; std::fill<CObj * *,CObj *>
  001d5	83 c4 18	 add	 esp, 24			; 00000018H
  001d8	5d		 pop	 ebp
  001d9	5b		 pop	 ebx
$L260629:
  001da	5f		 pop	 edi
  001db	5e		 pop	 esi

; 873  : 			}
; 874  : 		}

  001dc	59		 pop	 ecx
  001dd	c2 0c 00	 ret	 12			; 0000000cH
$L268858:
?_Insert_n@?$vector@PAVCObj@@V?$allocator@PAVCObj@@@std@@@std@@IAEXViterator@12@IABQAVCObj@@@Z ENDP ; std::vector<CObj *,std::allocator<CObj *> >::_Insert_n
_TEXT	ENDS
PUBLIC	?insert@?$vector@PAVCObj@@V?$allocator@PAVCObj@@@std@@@std@@QAE?AViterator@12@V312@ABQAVCObj@@@Z ; std::vector<CObj *,std::allocator<CObj *> >::insert
; Function compile flags: /Ogty
;	COMDAT ?insert@?$vector@PAVCObj@@V?$allocator@PAVCObj@@@std@@@std@@QAE?AViterator@12@V312@ABQAVCObj@@@Z
_TEXT	SEGMENT
___$ReturnUdt$ = 8					; size = 4
__Where$ = 12						; size = 4
__Val$ = 16						; size = 4
?insert@?$vector@PAVCObj@@V?$allocator@PAVCObj@@@std@@@std@@QAE?AViterator@12@V312@ABQAVCObj@@@Z PROC NEAR ; std::vector<CObj *,std::allocator<CObj *> >::insert, COMDAT
; _this$ = ecx

; 621  : 		size_type _Off = size() == 0 ? 0 : _Where - begin();

  00000	8b 54 24 08	 mov	 edx, DWORD PTR __Where$[esp-4]
  00004	56		 push	 esi
  00005	57		 push	 edi
  00006	8b f9		 mov	 edi, ecx
  00008	8b 4f 04	 mov	 ecx, DWORD PTR [edi+4]
  0000b	85 c9		 test	 ecx, ecx
  0000d	74 0c		 je	 SHORT $L268925
  0000f	8b 47 08	 mov	 eax, DWORD PTR [edi+8]
  00012	2b c1		 sub	 eax, ecx
  00014	c1 f8 02	 sar	 eax, 2
  00017	85 c0		 test	 eax, eax
  00019	75 04		 jne	 SHORT $L268864
$L268925:
  0001b	33 f6		 xor	 esi, esi
  0001d	eb 07		 jmp	 SHORT $L268865
$L268864:
  0001f	8b f2		 mov	 esi, edx
  00021	2b f1		 sub	 esi, ecx
  00023	c1 fe 02	 sar	 esi, 2
$L268865:

; 622  : 		_Insert_n(_Where, (size_type)1, _Val);

  00026	8b 44 24 14	 mov	 eax, DWORD PTR __Val$[esp+4]
  0002a	50		 push	 eax
  0002b	6a 01		 push	 1
  0002d	52		 push	 edx
  0002e	8b cf		 mov	 ecx, edi
  00030	e8 00 00 00 00	 call	 ?_Insert_n@?$vector@PAVCObj@@V?$allocator@PAVCObj@@@std@@@std@@IAEXViterator@12@IABQAVCObj@@@Z ; std::vector<CObj *,std::allocator<CObj *> >::_Insert_n

; 623  : 		return (begin() + _Off);

  00035	8b 4f 04	 mov	 ecx, DWORD PTR [edi+4]
  00038	8b 44 24 0c	 mov	 eax, DWORD PTR ___$ReturnUdt$[esp+4]
  0003c	8d 14 b1	 lea	 edx, DWORD PTR [ecx+esi*4]
  0003f	5f		 pop	 edi
  00040	89 10		 mov	 DWORD PTR [eax], edx
  00042	5e		 pop	 esi

; 624  : 		}

  00043	c2 0c 00	 ret	 12			; 0000000cH
?insert@?$vector@PAVCObj@@V?$allocator@PAVCObj@@@std@@@std@@QAE?AViterator@12@V312@ABQAVCObj@@@Z ENDP ; std::vector<CObj *,std::allocator<CObj *> >::insert
_TEXT	ENDS
PUBLIC	?push_back@?$vector@PAVCObj@@V?$allocator@PAVCObj@@@std@@@std@@QAEXABQAVCObj@@@Z ; std::vector<CObj *,std::allocator<CObj *> >::push_back
; Function compile flags: /Ogty
;	COMDAT ?push_back@?$vector@PAVCObj@@V?$allocator@PAVCObj@@@std@@@std@@QAEXABQAVCObj@@@Z
_TEXT	SEGMENT
__Val$ = 8						; size = 4
?push_back@?$vector@PAVCObj@@V?$allocator@PAVCObj@@@std@@@std@@QAEXABQAVCObj@@@Z PROC NEAR ; std::vector<CObj *,std::allocator<CObj *> >::push_back, COMDAT
; _this$ = ecx

; 579  : 		{	// insert element at end

  00000	56		 push	 esi

; 580  : 		if (size() < capacity())

  00001	8b 71 04	 mov	 esi, DWORD PTR [ecx+4]
  00004	85 f6		 test	 esi, esi
  00006	75 04		 jne	 SHORT $L268936
  00008	33 d2		 xor	 edx, edx
  0000a	eb 08		 jmp	 SHORT $L268937
$L268936:
  0000c	8b 51 08	 mov	 edx, DWORD PTR [ecx+8]
  0000f	2b d6		 sub	 edx, esi
  00011	c1 fa 02	 sar	 edx, 2
$L268937:
  00014	85 f6		 test	 esi, esi
  00016	74 21		 je	 SHORT $L259182
  00018	8b 41 0c	 mov	 eax, DWORD PTR [ecx+12]
  0001b	2b c6		 sub	 eax, esi
  0001d	c1 f8 02	 sar	 eax, 2
  00020	3b d0		 cmp	 edx, eax
  00022	73 15		 jae	 SHORT $L259182

; 581  : 			_Mylast = _Ufill(_Mylast, 1, _Val);

  00024	8b 41 08	 mov	 eax, DWORD PTR [ecx+8]
  00027	8b 54 24 08	 mov	 edx, DWORD PTR __Val$[esp]
  0002b	8b 12		 mov	 edx, DWORD PTR [edx]
  0002d	89 10		 mov	 DWORD PTR [eax], edx
  0002f	83 c0 04	 add	 eax, 4
  00032	89 41 08	 mov	 DWORD PTR [ecx+8], eax
  00035	5e		 pop	 esi

; 584  : 		}

  00036	c2 04 00	 ret	 4
$L259182:

; 582  : 		else
; 583  : 			insert(end(), _Val);

  00039	8b 54 24 08	 mov	 edx, DWORD PTR __Val$[esp]
  0003d	8b 41 08	 mov	 eax, DWORD PTR [ecx+8]
  00040	52		 push	 edx
  00041	6a 01		 push	 1
  00043	50		 push	 eax
  00044	e8 00 00 00 00	 call	 ?_Insert_n@?$vector@PAVCObj@@V?$allocator@PAVCObj@@@std@@@std@@IAEXViterator@12@IABQAVCObj@@@Z ; std::vector<CObj *,std::allocator<CObj *> >::_Insert_n
  00049	5e		 pop	 esi

; 584  : 		}

  0004a	c2 04 00	 ret	 4
?push_back@?$vector@PAVCObj@@V?$allocator@PAVCObj@@@std@@@std@@QAEXABQAVCObj@@@Z ENDP ; std::vector<CObj *,std::allocator<CObj *> >::push_back
_TEXT	ENDS
PUBLIC	?ReadWorld@CWorld@@QAEHABVCRect@@@Z		; CWorld::ReadWorld
PUBLIC	??_C@_0BC@CNNIKIAG@?$CFs?$CFs?$CF02d?9?$CF02d?4lnd?$AA@ ; `string'
EXTRN	?AddMapCheckInfo@CWorldMng@@QAEXPBD@Z:NEAR	; CWorldMng::AddMapCheckInfo
EXTRN	?InsertObjLink@CWorld@@QAEHPAVCObj@@@Z:NEAR	; CWorld::InsertObjLink
EXTRN	?SetAngle@CObj@@QAEXM@Z:NEAR			; CObj::SetAngle
EXTRN	?SetWorld@CObj@@QAEXPAVCWorld@@@Z:NEAR		; CObj::SetWorld
EXTRN	_rand:NEAR
;	COMDAT xdata$x
; File c:\program files\microsoft visual studio .net 2003\vc7\atlmfc\include\atlsimpstr.h
xdata$x	SEGMENT
$T269628 DD	0ffffffffH
	DD	FLAT:$L269130
	DD	00H
	DD	FLAT:$L269131
	DD	01H
	DD	FLAT:$L269132
	DD	02H
	DD	FLAT:$L269133
$T269596 DD	019930520H
	DD	04H
	DD	FLAT:$T269628
	DD	2 DUP(00H)
	DD	2 DUP(00H)
xdata$x	ENDS
;	COMDAT ??_C@_0BC@CNNIKIAG@?$CFs?$CFs?$CF02d?9?$CF02d?4lnd?$AA@
CONST	SEGMENT
??_C@_0BC@CNNIKIAG@?$CFs?$CFs?$CF02d?9?$CF02d?4lnd?$AA@ DB '%s%s%02d-%02d'
	DB	'.lnd', 00H					; `string'
; Function compile flags: /Ogty
; File c:\documents and settings\test\mes documents\source\virtuos_v17\build\program\_common\worldfile.cpp
CONST	ENDS
;	COMDAT ?ReadWorld@CWorld@@QAEHABVCRect@@@Z
_TEXT	SEGMENT
tv943 = -67440						; size = 4
tv874 = -67440						; size = 4
_nLayer$258772 = -67433					; size = 1
tv1434 = -67432						; size = 4
tv1432 = -67432						; size = 4
tv1424 = -67432						; size = 4
tv942 = -67432						; size = 4
tv868 = -67432						; size = 4
_x$258741 = -67428					; size = 4
_f$258746 = -67424					; size = 8
tv869 = -67416						; size = 4
_pBkgnd$ = -67412					; size = 4
_y2$258753 = -67412					; size = 4
tv1415 = -67408						; size = 4
_dw$258783 = -67408					; size = 4
_y$258737 = -67404					; size = 4
_strLandName$ = -67400					; size = 4
_strLandTemp$ = -67396					; size = 4
_dwVersion$258748 = -67392				; size = 4
_dwObjNum$ = -67388					; size = 4
_vPos$ = -67384						; size = 12
_strFileName$ = -67372					; size = 4
_xLand$ = -67368					; size = 4
_yLand$ = -67364					; size = 4
_aHeightMap$ = -67360					; size = 66564
_aLocation$ = -792					; size = 256
_aWaterHeight$ = -536					; size = 512
__$ArrayPad$ = -20					; size = 4
__$EHRec$ = -12						; size = 12
__$ReturnAddr$ = 4					; size = 4
_rcLandscape$ = 8					; size = 4
?ReadWorld@CWorld@@QAEHABVCRect@@@Z PROC NEAR		; CWorld::ReadWorld, COMDAT
; _this$ = ecx

; 814  : {

  00000	55		 push	 ebp
  00001	8b ec		 mov	 ebp, esp
  00003	83 e4 f8	 and	 esp, -8			; fffffff8H
  00006	6a ff		 push	 -1
  00008	68 00 00 00 00	 push	 __ehhandler$?ReadWorld@CWorld@@QAEHABVCRect@@@Z
  0000d	64 a1 00 00 00
	00		 mov	 eax, DWORD PTR fs:__except_list
  00013	50		 push	 eax
  00014	64 89 25 00 00
	00 00		 mov	 DWORD PTR fs:__except_list, esp
  0001b	51		 push	 ecx
  0001c	b8 64 07 01 00	 mov	 eax, 67428		; 00010764H
  00021	e8 00 00 00 00	 call	 __chkstk
  00026	a1 00 00 00 00	 mov	 eax, DWORD PTR ___security_cookie
  0002b	53		 push	 ebx
  0002c	56		 push	 esi
  0002d	33 c5		 xor	 eax, ebp
  0002f	57		 push	 edi
  00030	89 84 24 6c 07
	01 00		 mov	 DWORD PTR __$ArrayPad$[esp+67456], eax
  00037	8b f1		 mov	 esi, ecx

; 815  : 	CString strFileName;

  00039	e8 00 00 00 00	 call	 ?AfxGetStringManager@@YGPAUIAtlStringMgr@ATL@@XZ ; AfxGetStringManager
  0003e	8b 10		 mov	 edx, DWORD PTR [eax]
  00040	8b c8		 mov	 ecx, eax
  00042	ff 52 0c	 call	 DWORD PTR [edx+12]
  00045	83 c0 10	 add	 eax, 16			; 00000010H
  00048	89 44 24 54	 mov	 DWORD PTR _strFileName$[esp+67456], eax

; 816  : 	CString strLandName = m_szFileName;

  0004c	8d 86 38 92 08
	00		 lea	 eax, DWORD PTR [esi+561720]
  00052	33 db		 xor	 ebx, ebx
  00054	50		 push	 eax
  00055	8d 4c 24 3c	 lea	 ecx, DWORD PTR _strLandName$[esp+67460]
  00059	89 9c 24 80 07
	01 00		 mov	 DWORD PTR __$EHRec$[esp+67468], ebx
  00060	e8 00 00 00 00	 call	 ??0?$CStringT@DV?$StrTraitMFC@DV?$ChTraitsCRT@D@ATL@@@@@ATL@@QAE@PBD@Z ; ATL::CStringT<char,StrTraitMFC<char,ATL::ChTraitsCRT<char> > >::CStringT<char,StrTraitMFC<char,ATL::ChTraitsCRT<char> > >
  00065	c6 84 24 7c 07
	01 00 01	 mov	 BYTE PTR __$EHRec$[esp+67464], 1

; 817  : 	CString strLandTemp;

  0006d	e8 00 00 00 00	 call	 ?AfxGetStringManager@@YGPAUIAtlStringMgr@ATL@@XZ ; AfxGetStringManager
  00072	8b 10		 mov	 edx, DWORD PTR [eax]
  00074	8b c8		 mov	 ecx, eax
  00076	ff 52 0c	 call	 DWORD PTR [edx+12]
  00079	83 c0 10	 add	 eax, 16			; 00000010H
  0007c	89 44 24 3c	 mov	 DWORD PTR _strLandTemp$[esp+67456], eax

; 818  : 	strLandName.Delete( strLandName.GetLength() - 4, 4 );

  00080	8b 44 24 38	 mov	 eax, DWORD PTR _strLandName$[esp+67456]
  00084	8b 40 f4	 mov	 eax, DWORD PTR [eax-12]
  00087	6a 04		 push	 4
  00089	83 c0 fc	 add	 eax, -4			; fffffffcH
  0008c	50		 push	 eax
  0008d	8d 4c 24 40	 lea	 ecx, DWORD PTR _strLandName$[esp+67464]
  00091	c6 84 24 84 07
	01 00 02	 mov	 BYTE PTR __$EHRec$[esp+67472], 2
  00099	e8 00 00 00 00	 call	 ?Delete@?$CStringT@DV?$StrTraitMFC@DV?$ChTraitsCRT@D@ATL@@@@@ATL@@QAEHHH@Z ; ATL::CStringT<char,StrTraitMFC<char,ATL::ChTraitsCRT<char> > >::Delete

; 819  : 	FLOAT aHeightMap[ ( MAP_SIZE + 1 ) * ( MAP_SIZE + 1 ) ];
; 820  : 	WATERHEIGHT aWaterHeight[ NUM_PATCHES_PER_SIDE * NUM_PATCHES_PER_SIDE ];
; 821  : 	BYTE aLocation[ NUM_PATCHES_PER_SIDE * NUM_PATCHES_PER_SIDE ];
; 822  : 	int xLand, yLand;
; 823  : 	D3DXVECTOR3	vPos;
; 824  : 
; 825  : 	CObj* pBkgnd;
; 826  : 	DWORD dwObjNum;
; 827  : 	
; 828  : 	for( int y = 0; y < m_nLandHeight; y++ )

  0009e	39 5e 08	 cmp	 DWORD PTR [esi+8], ebx
  000a1	89 5c 24 34	 mov	 DWORD PTR _y$258737[esp+67456], ebx
  000a5	0f 8e 60 05 00
	00		 jle	 $L258740
  000ab	eb 03 8d 49 00	 npad	 5
$L258738:

; 829  : 	{
; 830  : 		for( int x = 0; x < m_nLandWidth; x++ )

  000b0	8b 46 04	 mov	 eax, DWORD PTR [esi+4]
  000b3	33 ff		 xor	 edi, edi
  000b5	85 c0		 test	 eax, eax
  000b7	89 7c 24 1c	 mov	 DWORD PTR _x$258741[esp+67456], edi
  000bb	0f 8e 3a 05 00
	00		 jle	 $L258739
$L258742:

; 831  : 		{
; 832  : 			strLandTemp.Format( "%s%s%02d-%02d.lnd", m_szFilePath, strLandName, x , y );

  000c1	8b 4c 24 38	 mov	 ecx, DWORD PTR _strLandName$[esp+67456]
  000c5	53		 push	 ebx
  000c6	57		 push	 edi
  000c7	51		 push	 ecx
  000c8	8d 86 34 91 08
	00		 lea	 eax, DWORD PTR [esi+561460]
  000ce	50		 push	 eax
  000cf	8d 54 24 4c	 lea	 edx, DWORD PTR _strLandTemp$[esp+67472]
  000d3	68 00 00 00 00	 push	 OFFSET FLAT:??_C@_0BC@CNNIKIAG@?$CFs?$CFs?$CF02d?9?$CF02d?4lnd?$AA@
  000d8	52		 push	 edx
  000d9	e8 00 00 00 00	 call	 ?Format@?$CStringT@DV?$StrTraitMFC@DV?$ChTraitsCRT@D@ATL@@@@@ATL@@QAAXPBDZZ ; ATL::CStringT<char,StrTraitMFC<char,ATL::ChTraitsCRT<char> > >::Format
  000de	83 c4 18	 add	 esp, 24			; 00000018H

; 833  : 
; 834  : 			CFileIO f;

  000e1	c7 44 24 20 00
	00 00 00	 mov	 DWORD PTR _f$258746[esp+67456], OFFSET FLAT:??_7CFileIO@@6B@
  000e9	c7 44 24 24 00
	00 00 00	 mov	 DWORD PTR _f$258746[esp+67460], 0

; 835  : 			if( f.Open( strLandTemp, "rb" ) )

  000f1	8b 44 24 3c	 mov	 eax, DWORD PTR _strLandTemp$[esp+67456]
  000f5	68 00 00 00 00	 push	 OFFSET FLAT:??_C@_02JDPG@rb?$AA@
  000fa	50		 push	 eax
  000fb	8d 4c 24 28	 lea	 ecx, DWORD PTR _f$258746[esp+67464]
  000ff	c6 84 24 84 07
	01 00 03	 mov	 BYTE PTR __$EHRec$[esp+67472], 3
  00107	e8 00 00 00 00	 call	 ?Open@CFileIO@@UAEHPBDPAD@Z ; CFileIO::Open
  0010c	85 c0		 test	 eax, eax
  0010e	0f 84 a6 04 00
	00		 je	 $L258786

; 836  : 			{
; 837  : 				DWORD dwVersion;
; 838  : 				f.Read( &dwVersion, sizeof( DWORD) );

  00114	8b 4c 24 24	 mov	 ecx, DWORD PTR _f$258746[esp+67460]
  00118	51		 push	 ecx
  00119	6a 01		 push	 1
  0011b	8d 54 24 48	 lea	 edx, DWORD PTR _dwVersion$258748[esp+67464]
  0011f	6a 04		 push	 4
  00121	52		 push	 edx
  00122	e8 00 00 00 00	 call	 _fread

; 839  : 				if( dwVersion >= 1 )

  00127	8b 44 24 50	 mov	 eax, DWORD PTR _dwVersion$258748[esp+67472]
  0012b	83 c4 10	 add	 esp, 16			; 00000010H
  0012e	83 f8 01	 cmp	 eax, 1
  00131	72 29		 jb	 SHORT $L269223

; 840  : 				{
; 841  : 					f.Read( &xLand, sizeof( xLand ) );

  00133	8b 44 24 24	 mov	 eax, DWORD PTR _f$258746[esp+67460]
  00137	50		 push	 eax
  00138	6a 01		 push	 1
  0013a	8d 4c 24 60	 lea	 ecx, DWORD PTR _xLand$[esp+67464]
  0013e	6a 04		 push	 4
  00140	51		 push	 ecx
  00141	e8 00 00 00 00	 call	 _fread

; 842  : 					f.Read( &yLand, sizeof( yLand ) );

  00146	8b 54 24 34	 mov	 edx, DWORD PTR _f$258746[esp+67476]
  0014a	52		 push	 edx
  0014b	6a 01		 push	 1
  0014d	8d 44 24 74	 lea	 eax, DWORD PTR _yLand$[esp+67480]
  00151	6a 04		 push	 4
  00153	50		 push	 eax
  00154	e8 00 00 00 00	 call	 _fread
  00159	83 c4 20	 add	 esp, 32			; 00000020H
$L269223:

; 843  : 				}
; 844  : 				f.Read( (void*)aHeightMap, sizeof(FLOAT), ( MAP_SIZE + 1 ) * ( MAP_SIZE + 1 ) );

  0015c	8b 4c 24 24	 mov	 ecx, DWORD PTR _f$258746[esp+67460]
  00160	51		 push	 ecx
  00161	68 01 41 00 00	 push	 16641			; 00004101H
  00166	8d 54 24 68	 lea	 edx, DWORD PTR _aHeightMap$[esp+67464]
  0016a	6a 04		 push	 4
  0016c	52		 push	 edx
  0016d	e8 00 00 00 00	 call	 _fread

; 845  : 
; 846  : 				for( int y2 = 0; y2 < MAP_SIZE; y2++ )

  00172	33 d2		 xor	 edx, edx
  00174	c1 e7 07	 shl	 edi, 7
  00177	8b cb		 mov	 ecx, ebx
  00179	83 c4 10	 add	 esp, 16			; 00000010H
  0017c	8d 44 24 64	 lea	 eax, DWORD PTR _aHeightMap$[esp+67460]
  00180	c1 e1 07	 shl	 ecx, 7
  00183	89 54 24 2c	 mov	 DWORD PTR _y2$258753[esp+67456], edx
  00187	89 7c 24 10	 mov	 DWORD PTR tv874[esp+67456], edi
  0018b	89 44 24 30	 mov	 DWORD PTR tv1415[esp+67456], eax
  0018f	89 4c 24 18	 mov	 DWORD PTR tv868[esp+67456], ecx
  00193	eb 0b		 jmp	 SHORT $L258754
$L269616:

; 819  : 	FLOAT aHeightMap[ ( MAP_SIZE + 1 ) * ( MAP_SIZE + 1 ) ];
; 820  : 	WATERHEIGHT aWaterHeight[ NUM_PATCHES_PER_SIDE * NUM_PATCHES_PER_SIDE ];
; 821  : 	BYTE aLocation[ NUM_PATCHES_PER_SIDE * NUM_PATCHES_PER_SIDE ];
; 822  : 	int xLand, yLand;
; 823  : 	D3DXVECTOR3	vPos;
; 824  : 
; 825  : 	CObj* pBkgnd;
; 826  : 	DWORD dwObjNum;
; 827  : 	
; 828  : 	for( int y = 0; y < m_nLandHeight; y++ )

  00195	8b 4c 24 18	 mov	 ecx, DWORD PTR tv868[esp+67456]
  00199	8d a4 24 00 00
	00 00		 npad	 7
$L258754:

; 847  : 				{
; 848  : 					for( int x2 = 0; x2 < MAP_SIZE; x2++ )

  001a0	33 c0		 xor	 eax, eax
  001a2	03 ca		 add	 ecx, edx
  001a4	89 4c 24 28	 mov	 DWORD PTR tv869[esp+67456], ecx
  001a8	8b 4c 24 30	 mov	 ecx, DWORD PTR tv1415[esp+67456]
  001ac	8d 64 24 00	 npad	 4
$L258758:

; 849  : 					{
; 850  : 						m_apHeightMap[ ( ( ( y * MAP_SIZE ) + y2 ) * WORLD_WIDTH ) + ( ( x * MAP_SIZE ) + x2 ) ]
; 851  : 							= aHeightMap[ ( y2 * ( MAP_SIZE + 1 ) ) + x2 ];

  001b0	8b 56 0c	 mov	 edx, DWORD PTR [esi+12]
  001b3	0f af 54 24 28	 imul	 edx, DWORD PTR tv869[esp+67456]
  001b8	8b 7e 1c	 mov	 edi, DWORD PTR [esi+28]
  001bb	03 54 24 10	 add	 edx, DWORD PTR tv874[esp+67456]
  001bf	8b 59 fc	 mov	 ebx, DWORD PTR [ecx-4]
  001c2	03 d0		 add	 edx, eax
  001c4	89 1c 97	 mov	 DWORD PTR [edi+edx*4], ebx
  001c7	8b 56 0c	 mov	 edx, DWORD PTR [esi+12]
  001ca	0f af 54 24 28	 imul	 edx, DWORD PTR tv869[esp+67456]
  001cf	8b 7e 1c	 mov	 edi, DWORD PTR [esi+28]
  001d2	03 54 24 10	 add	 edx, DWORD PTR tv874[esp+67456]
  001d6	8b 19		 mov	 ebx, DWORD PTR [ecx]
  001d8	03 d0		 add	 edx, eax
  001da	89 5c 97 04	 mov	 DWORD PTR [edi+edx*4+4], ebx
  001de	8b 56 0c	 mov	 edx, DWORD PTR [esi+12]
  001e1	0f af 54 24 28	 imul	 edx, DWORD PTR tv869[esp+67456]
  001e6	8b 7e 1c	 mov	 edi, DWORD PTR [esi+28]
  001e9	03 54 24 10	 add	 edx, DWORD PTR tv874[esp+67456]
  001ed	8b 59 04	 mov	 ebx, DWORD PTR [ecx+4]
  001f0	03 d0		 add	 edx, eax
  001f2	89 5c 97 08	 mov	 DWORD PTR [edi+edx*4+8], ebx
  001f6	8b 56 0c	 mov	 edx, DWORD PTR [esi+12]
  001f9	0f af 54 24 28	 imul	 edx, DWORD PTR tv869[esp+67456]
  001fe	8b 5c 24 10	 mov	 ebx, DWORD PTR tv874[esp+67456]
  00202	8b 7e 1c	 mov	 edi, DWORD PTR [esi+28]
  00205	03 d3		 add	 edx, ebx
  00207	8b 59 08	 mov	 ebx, DWORD PTR [ecx+8]
  0020a	03 d0		 add	 edx, eax
  0020c	89 5c 97 0c	 mov	 DWORD PTR [edi+edx*4+12], ebx
  00210	8b 56 0c	 mov	 edx, DWORD PTR [esi+12]
  00213	0f af 54 24 28	 imul	 edx, DWORD PTR tv869[esp+67456]
  00218	8b 5c 24 10	 mov	 ebx, DWORD PTR tv874[esp+67456]
  0021c	8b 7e 1c	 mov	 edi, DWORD PTR [esi+28]
  0021f	03 d3		 add	 edx, ebx
  00221	8b 59 0c	 mov	 ebx, DWORD PTR [ecx+12]
  00224	03 d0		 add	 edx, eax
  00226	89 5c 97 10	 mov	 DWORD PTR [edi+edx*4+16], ebx
  0022a	8b 56 0c	 mov	 edx, DWORD PTR [esi+12]
  0022d	0f af 54 24 28	 imul	 edx, DWORD PTR tv869[esp+67456]
  00232	8b 5c 24 10	 mov	 ebx, DWORD PTR tv874[esp+67456]
  00236	8b 7e 1c	 mov	 edi, DWORD PTR [esi+28]
  00239	03 d3		 add	 edx, ebx
  0023b	8b 59 10	 mov	 ebx, DWORD PTR [ecx+16]
  0023e	03 d0		 add	 edx, eax
  00240	89 5c 97 14	 mov	 DWORD PTR [edi+edx*4+20], ebx
  00244	8b 56 0c	 mov	 edx, DWORD PTR [esi+12]
  00247	0f af 54 24 28	 imul	 edx, DWORD PTR tv869[esp+67456]
  0024c	8b 5c 24 10	 mov	 ebx, DWORD PTR tv874[esp+67456]
  00250	8b 7e 1c	 mov	 edi, DWORD PTR [esi+28]
  00253	03 d3		 add	 edx, ebx
  00255	8b 59 14	 mov	 ebx, DWORD PTR [ecx+20]
  00258	03 d0		 add	 edx, eax
  0025a	89 5c 97 18	 mov	 DWORD PTR [edi+edx*4+24], ebx
  0025e	8b 56 0c	 mov	 edx, DWORD PTR [esi+12]
  00261	0f af 54 24 28	 imul	 edx, DWORD PTR tv869[esp+67456]
  00266	8b 5c 24 10	 mov	 ebx, DWORD PTR tv874[esp+67456]
  0026a	8b 7e 1c	 mov	 edi, DWORD PTR [esi+28]
  0026d	03 d3		 add	 edx, ebx
  0026f	8b 59 18	 mov	 ebx, DWORD PTR [ecx+24]
  00272	03 d0		 add	 edx, eax
  00274	83 c0 08	 add	 eax, 8
  00277	83 c1 20	 add	 ecx, 32			; 00000020H
  0027a	3d 80 00 00 00	 cmp	 eax, 128		; 00000080H
  0027f	89 5c 97 1c	 mov	 DWORD PTR [edi+edx*4+28], ebx
  00283	0f 8c 27 ff ff
	ff		 jl	 $L258758
  00289	8b 54 24 2c	 mov	 edx, DWORD PTR _y2$258753[esp+67456]
  0028d	8b 4c 24 30	 mov	 ecx, DWORD PTR tv1415[esp+67456]
  00291	42		 inc	 edx
  00292	81 c1 04 02 00
	00		 add	 ecx, 516		; 00000204H
  00298	81 fa 80 00 00
	00		 cmp	 edx, 128		; 00000080H
  0029e	89 54 24 2c	 mov	 DWORD PTR _y2$258753[esp+67456], edx
  002a2	89 4c 24 30	 mov	 DWORD PTR tv1415[esp+67456], ecx
  002a6	0f 8c e9 fe ff
	ff		 jl	 $L269616

; 852  : 					}
; 853  : 				}
; 854  : 				
; 855  : 				f.Read( (void*)aWaterHeight, sizeof( WATERHEIGHT ), NUM_PATCHES_PER_SIDE * NUM_PATCHES_PER_SIDE );

  002ac	8b 44 24 24	 mov	 eax, DWORD PTR _f$258746[esp+67460]
  002b0	50		 push	 eax
  002b1	68 00 01 00 00	 push	 256			; 00000100H
  002b6	8d 8c 24 70 05
	01 00		 lea	 ecx, DWORD PTR _aWaterHeight$[esp+67464]
  002bd	6a 02		 push	 2
  002bf	51		 push	 ecx
  002c0	e8 00 00 00 00	 call	 _fread
  002c5	8b 54 24 44	 mov	 edx, DWORD PTR _y$258737[esp+67472]

; 856  : 				for( y2 = 0; y2 < NUM_PATCHES_PER_SIDE; y2++ )

  002c9	33 ff		 xor	 edi, edi
  002cb	83 c4 10	 add	 esp, 16			; 00000010H
  002ce	c1 e2 04	 shl	 edx, 4
  002d1	89 7c 24 2c	 mov	 DWORD PTR _y2$258753[esp+67456], edi
  002d5	8d 8c 24 6a 05
	01 00		 lea	 ecx, DWORD PTR _aWaterHeight$[esp+67458]
  002dc	89 54 24 18	 mov	 DWORD PTR tv942[esp+67456], edx
  002e0	eb 04		 jmp	 SHORT $L258763
$L269620:

; 819  : 	FLOAT aHeightMap[ ( MAP_SIZE + 1 ) * ( MAP_SIZE + 1 ) ];
; 820  : 	WATERHEIGHT aWaterHeight[ NUM_PATCHES_PER_SIDE * NUM_PATCHES_PER_SIDE ];
; 821  : 	BYTE aLocation[ NUM_PATCHES_PER_SIDE * NUM_PATCHES_PER_SIDE ];
; 822  : 	int xLand, yLand;
; 823  : 	D3DXVECTOR3	vPos;
; 824  : 
; 825  : 	CObj* pBkgnd;
; 826  : 	DWORD dwObjNum;
; 827  : 	
; 828  : 	for( int y = 0; y < m_nLandHeight; y++ )

  002e2	8b 54 24 18	 mov	 edx, DWORD PTR tv942[esp+67456]
$L258763:

; 857  : 				{
; 858  : 					for( int x2 = 0; x2 < NUM_PATCHES_PER_SIDE; x2++ )

  002e6	33 c0		 xor	 eax, eax
  002e8	03 d7		 add	 edx, edi
  002ea	89 54 24 10	 mov	 DWORD PTR tv943[esp+67456], edx
  002ee	8b ff		 npad	 2
$L258767:

; 859  : 					{
; 860  : 						m_apWaterHeight[ ( ( ( y * NUM_PATCHES_PER_SIDE ) + y2 ) * ( NUM_PATCHES_PER_SIDE * m_nLandWidth ) ) + ( ( x * NUM_PATCHES_PER_SIDE ) + x2 ) ]
; 861  : 							= aWaterHeight[ ( y2 * ( NUM_PATCHES_PER_SIDE ) ) + x2 ];

  002f0	8b 56 04	 mov	 edx, DWORD PTR [esi+4]
  002f3	0f af 54 24 10	 imul	 edx, DWORD PTR tv943[esp+67456]
  002f8	8b 5c 24 1c	 mov	 ebx, DWORD PTR _x$258741[esp+67456]
  002fc	8b 7e 20	 mov	 edi, DWORD PTR [esi+32]
  002ff	03 d3		 add	 edx, ebx
  00301	66 8b 59 fe	 mov	 bx, WORD PTR [ecx-2]
  00305	c1 e2 04	 shl	 edx, 4
  00308	03 d0		 add	 edx, eax
  0030a	66 89 1c 57	 mov	 WORD PTR [edi+edx*2], bx
  0030e	8b 56 04	 mov	 edx, DWORD PTR [esi+4]
  00311	0f af 54 24 10	 imul	 edx, DWORD PTR tv943[esp+67456]
  00316	8b 7c 24 1c	 mov	 edi, DWORD PTR _x$258741[esp+67456]
  0031a	66 8b 19	 mov	 bx, WORD PTR [ecx]
  0031d	03 d7		 add	 edx, edi
  0031f	8b 7e 20	 mov	 edi, DWORD PTR [esi+32]
  00322	c1 e2 04	 shl	 edx, 4
  00325	03 d0		 add	 edx, eax
  00327	66 89 5c 57 02	 mov	 WORD PTR [edi+edx*2+2], bx
  0032c	8b 56 04	 mov	 edx, DWORD PTR [esi+4]
  0032f	0f af 54 24 10	 imul	 edx, DWORD PTR tv943[esp+67456]
  00334	8b 5c 24 1c	 mov	 ebx, DWORD PTR _x$258741[esp+67456]
  00338	8b 7e 20	 mov	 edi, DWORD PTR [esi+32]
  0033b	03 d3		 add	 edx, ebx
  0033d	66 8b 59 02	 mov	 bx, WORD PTR [ecx+2]
  00341	c1 e2 04	 shl	 edx, 4
  00344	03 d0		 add	 edx, eax
  00346	66 89 5c 57 04	 mov	 WORD PTR [edi+edx*2+4], bx
  0034b	8b 56 04	 mov	 edx, DWORD PTR [esi+4]
  0034e	0f af 54 24 10	 imul	 edx, DWORD PTR tv943[esp+67456]
  00353	8b 7c 24 1c	 mov	 edi, DWORD PTR _x$258741[esp+67456]
  00357	66 8b 59 04	 mov	 bx, WORD PTR [ecx+4]
  0035b	03 d7		 add	 edx, edi
  0035d	8b 7e 20	 mov	 edi, DWORD PTR [esi+32]
  00360	c1 e2 04	 shl	 edx, 4
  00363	03 d0		 add	 edx, eax
  00365	83 c0 04	 add	 eax, 4
  00368	83 c1 08	 add	 ecx, 8
  0036b	83 f8 10	 cmp	 eax, 16			; 00000010H
  0036e	66 89 5c 57 06	 mov	 WORD PTR [edi+edx*2+6], bx
  00373	0f 8c 77 ff ff
	ff		 jl	 $L258767
  00379	8b 7c 24 2c	 mov	 edi, DWORD PTR _y2$258753[esp+67456]
  0037d	47		 inc	 edi
  0037e	83 ff 10	 cmp	 edi, 16			; 00000010H
  00381	89 7c 24 2c	 mov	 DWORD PTR _y2$258753[esp+67456], edi
  00385	0f 8c 57 ff ff
	ff		 jl	 $L269620

; 862  : 					}
; 863  : 				}
; 864  : 				if( dwVersion >= 2 )

  0038b	83 7c 24 40 02	 cmp	 DWORD PTR _dwVersion$258748[esp+67456], 2
  00390	72 1c		 jb	 SHORT $L269232

; 865  : 				{
; 866  : 					// skip
; 867  : 					f.Read( aLocation, sizeof( BYTE ), NUM_PATCHES_PER_SIDE * NUM_PATCHES_PER_SIDE );

  00392	8b 44 24 24	 mov	 eax, DWORD PTR _f$258746[esp+67460]
  00396	50		 push	 eax
  00397	68 00 01 00 00	 push	 256			; 00000100H
  0039c	8d 8c 24 70 04
	01 00		 lea	 ecx, DWORD PTR _aLocation$[esp+67464]
  003a3	6a 01		 push	 1
  003a5	51		 push	 ecx
  003a6	e8 00 00 00 00	 call	 _fread
  003ab	83 c4 10	 add	 esp, 16			; 00000010H
$L269232:

; 868  : 				}
; 869  : 				BYTE nLayer;
; 870  : 				f.Read( &nLayer, sizeof(BYTE), 1 );

  003ae	8b 54 24 24	 mov	 edx, DWORD PTR _f$258746[esp+67460]
  003b2	52		 push	 edx
  003b3	6a 01		 push	 1
  003b5	8d 44 24 1f	 lea	 eax, DWORD PTR _nLayer$258772[esp+67464]
  003b9	6a 01		 push	 1
  003bb	50		 push	 eax
  003bc	e8 00 00 00 00	 call	 _fread

; 871  : 				for( BYTE u = 0; u < nLayer; u++ ) {

  003c1	8a 44 24 27	 mov	 al, BYTE PTR _nLayer$258772[esp+67472]
  003c5	83 c4 10	 add	 esp, 16			; 00000010H
  003c8	32 db		 xor	 bl, bl
  003ca	84 c0		 test	 al, al
  003cc	76 3f		 jbe	 SHORT $L258777
  003ce	8b ff		 npad	 2
$L258775:

; 872  : 					f.Seek( sizeof(WORD), SEEK_CUR );

  003d0	8b 4c 24 24	 mov	 ecx, DWORD PTR _f$258746[esp+67460]
  003d4	6a 01		 push	 1
  003d6	6a 02		 push	 2
  003d8	51		 push	 ecx
  003d9	e8 00 00 00 00	 call	 _fseek

; 873  : 					f.Seek( ( sizeof(BOOL) * NUM_PATCHES_PER_SIDE * NUM_PATCHES_PER_SIDE ), SEEK_CUR );

  003de	8b 54 24 30	 mov	 edx, DWORD PTR _f$258746[esp+67472]
  003e2	6a 01		 push	 1
  003e4	68 00 04 00 00	 push	 1024			; 00000400H
  003e9	52		 push	 edx
  003ea	e8 00 00 00 00	 call	 _fseek

; 874  : 					f.Seek( ( sizeof(DWORD) * MAP_SIZE * MAP_SIZE ), SEEK_CUR );

  003ef	8b 44 24 3c	 mov	 eax, DWORD PTR _f$258746[esp+67484]
  003f3	6a 01		 push	 1
  003f5	68 00 00 01 00	 push	 65536			; 00010000H
  003fa	50		 push	 eax
  003fb	e8 00 00 00 00	 call	 _fseek
  00400	8a 44 24 3b	 mov	 al, BYTE PTR _nLayer$258772[esp+67492]
  00404	83 c4 24	 add	 esp, 36			; 00000024H
  00407	fe c3		 inc	 bl
  00409	3a d8		 cmp	 bl, al
  0040b	72 c3		 jb	 SHORT $L258775
$L258777:

; 875  : 				}
; 876  : 
; 877  : 				// read objects
; 878  : 				f.Read( (void*)&dwObjNum, sizeof(DWORD), 1 );

  0040d	8b 4c 24 24	 mov	 ecx, DWORD PTR _f$258746[esp+67460]
  00411	51		 push	 ecx
  00412	6a 01		 push	 1
  00414	8d 54 24 4c	 lea	 edx, DWORD PTR _dwObjNum$[esp+67464]
  00418	6a 04		 push	 4
  0041a	52		 push	 edx
  0041b	e8 00 00 00 00	 call	 _fread

; 879  : 				for( DWORD dw =  0; dw < dwObjNum; dw++ )

  00420	8b 44 24 54	 mov	 eax, DWORD PTR _dwObjNum$[esp+67472]
  00424	83 c4 10	 add	 esp, 16			; 00000010H
  00427	85 c0		 test	 eax, eax
  00429	c7 44 24 30 00
	00 00 00	 mov	 DWORD PTR _dw$258783[esp+67456], 0
  00431	0f 86 7b 01 00
	00		 jbe	 $L269619
  00437	eb 07 8d a4 24
	00 00 00 00	 npad	 9
$L258784:

; 880  : 				{
; 881  : 					pBkgnd	= ReadObj( &f );

  00440	8d 44 24 20	 lea	 eax, DWORD PTR _f$258746[esp+67456]
  00444	50		 push	 eax
  00445	e8 00 00 00 00	 call	 ?ReadObj@@YAPAVCObj@@PAVCFileIO@@@Z ; ReadObj
  0044a	8b f8		 mov	 edi, eax

; 882  : 					vPos	= pBkgnd->GetPos();

  0044c	8d 8f 60 01 00
	00		 lea	 ecx, DWORD PTR [edi+352]
  00452	8b 11		 mov	 edx, DWORD PTR [ecx]
  00454	89 54 24 4c	 mov	 DWORD PTR _vPos$[esp+67460], edx
  00458	8b 41 04	 mov	 eax, DWORD PTR [ecx+4]
  0045b	89 44 24 50	 mov	 DWORD PTR _vPos$[esp+67464], eax

; 883  : 
; 884  : 				//	vPos.x	+= x * LANDREALSCALE;
; 885  : 				//	vPos.z	+= y * LANDREALSCALE;
; 886  : 
; 887  : 					vPos.x	+= x * MAP_SIZE * m_iMPU;

  0045f	8b 46 14	 mov	 eax, DWORD PTR [esi+20]
  00462	8b 49 08	 mov	 ecx, DWORD PTR [ecx+8]
  00465	8b d0		 mov	 edx, eax

; 888  : 					vPos.z	+= y * MAP_SIZE * m_iMPU;

  00467	0f af 44 24 38	 imul	 eax, DWORD PTR _y$258737[esp+67460]
  0046c	0f af 54 24 20	 imul	 edx, DWORD PTR _x$258741[esp+67460]
  00471	c1 e2 07	 shl	 edx, 7
  00474	89 54 24 1c	 mov	 DWORD PTR tv1434[esp+67460], edx
  00478	c1 e0 07	 shl	 eax, 7
  0047b	89 4c 24 54	 mov	 DWORD PTR _vPos$[esp+67468], ecx
  0047f	db 44 24 1c	 fild	 DWORD PTR tv1434[esp+67460]
  00483	89 44 24 1c	 mov	 DWORD PTR tv1432[esp+67460], eax
  00487	83 c4 04	 add	 esp, 4

; 889  : 
; 890  : 					pBkgnd->SetPos( vPos );

  0048a	8d 44 24 48	 lea	 eax, DWORD PTR _vPos$[esp+67456]
  0048e	d8 44 24 48	 fadd	 DWORD PTR _vPos$[esp+67456]
  00492	50		 push	 eax
  00493	8b cf		 mov	 ecx, edi
  00495	89 7c 24 30	 mov	 DWORD PTR _pBkgnd$[esp+67460], edi
  00499	d9 5c 24 4c	 fstp	 DWORD PTR _vPos$[esp+67460]
  0049d	db 44 24 1c	 fild	 DWORD PTR tv1432[esp+67460]
  004a1	d8 44 24 54	 fadd	 DWORD PTR _vPos$[esp+67468]
  004a5	d9 5c 24 54	 fstp	 DWORD PTR _vPos$[esp+67468]
  004a9	e8 00 00 00 00	 call	 ?SetPos@CObj@@QAEXABUD3DXVECTOR3@@@Z ; CObj::SetPos

; 891  : 
; 892  : 					if( pBkgnd->m_dwIndex <= 10 )

  004ae	83 bf 74 01 00
	00 0a		 cmp	 DWORD PTR [edi+372], 10	; 0000000aH
  004b5	77 20		 ja	 SHORT $L258788

; 893  : 						pBkgnd->SetAngle( (float)( rand() % 360 ) );

  004b7	e8 00 00 00 00	 call	 _rand
  004bc	99		 cdq
  004bd	b9 68 01 00 00	 mov	 ecx, 360		; 00000168H
  004c2	f7 f9		 idiv	 ecx
  004c4	51		 push	 ecx
  004c5	8b cf		 mov	 ecx, edi
  004c7	89 54 24 1c	 mov	 DWORD PTR tv1424[esp+67460], edx
  004cb	db 44 24 1c	 fild	 DWORD PTR tv1424[esp+67460]
  004cf	d9 1c 24	 fstp	 DWORD PTR [esp]
  004d2	e8 00 00 00 00	 call	 ?SetAngle@CObj@@QAEXM@Z	; CObj::SetAngle
$L258788:

; 894  : 
; 895  : 					pBkgnd->SetIndex( D3DDEVICE, pBkgnd->m_dwIndex );

  004d7	8b 87 74 01 00
	00		 mov	 eax, DWORD PTR [edi+372]
  004dd	8b 17		 mov	 edx, DWORD PTR [edi]
  004df	6a 00		 push	 0
  004e1	50		 push	 eax
  004e2	6a 00		 push	 0
  004e4	8b cf		 mov	 ecx, edi
  004e6	ff 52 2c	 call	 DWORD PTR [edx+44]

; 896  : 
; 897  : 					if( pBkgnd->GetType() != OT_OBJ )

  004e9	8b 87 70 01 00
	00		 mov	 eax, DWORD PTR [edi+368]
  004ef	85 c0		 test	 eax, eax
  004f1	74 0d		 je	 SHORT $L258790

; 898  : 					{
; 899  : 						SAFE_DELETE( pBkgnd );

  004f3	8b 17		 mov	 edx, DWORD PTR [edi]
  004f5	6a 01		 push	 1
  004f7	8b cf		 mov	 ecx, edi
  004f9	ff 12		 call	 DWORD PTR [edx]

; 900  : 						continue;

  004fb	e9 9d 00 00 00	 jmp	 $L258785
$L258790:

; 901  : 					}
; 902  : 					
; 903  : 					if( ::GetLanguage() == LANG_JAP && pBkgnd->m_dwIndex == 360 )

  00500	e8 00 00 00 00	 call	 ?GetLanguage@@YAHXZ	; GetLanguage
  00505	83 f8 02	 cmp	 eax, 2
  00508	75 0c		 jne	 SHORT $L258795
  0050a	81 bf 74 01 00
	00 68 01 00 00	 cmp	 DWORD PTR [edi+372], 360 ; 00000168H

; 904  : 					{
; 905  : 						SAFE_DELETE( pBkgnd );
; 906  : 					}
; 907  : 					else

  00514	74 7f		 je	 SHORT $L258801
$L258795:

; 908  : 					{
; 909  : 						if( pBkgnd->m_pModel && TRUE == pBkgnd->m_pModel->IsHaveCollObj() )

  00516	8b 87 78 01 00
	00		 mov	 eax, DWORD PTR [edi+376]
  0051c	85 c0		 test	 eax, eax
  0051e	74 75		 je	 SHORT $L258801
  00520	8b c8		 mov	 ecx, eax
  00522	8b 11		 mov	 edx, DWORD PTR [ecx]
  00524	ff 52 48	 call	 DWORD PTR [edx+72]
  00527	83 f8 01	 cmp	 eax, 1
  0052a	75 69		 jne	 SHORT $L258801

; 910  : 						{
; 911  : //							pBkgnd->InitMotion( pBkgnd->m_dwMotion );
; 912  : /*
; 913  : #ifdef __YAIMONSTER_EX
; 914  : 							if( pBkgnd->GetType() == OT_MOVER )
; 915  : 							{
; 916  : 								CRespawnInfo *pInfo = NULL;	
; 917  : 								((CMover*)pBkgnd)->m_resp
; 918  : 								pInfo = &((CMover*)pBkgnd)-> m_respawnInfo;
; 919  : 								
; 920  : 								if( pInfo->m_cb == 1 )
; 921  : 									((CMover*)pBkgnd)->AddAngle(pInfo->m_fAngle);
; 922  : 							}
; 923  : #endif //__YAIMONSTER_EX
; 924  : */							
; 925  : 							pBkgnd->SetWorld( this );

  0052c	56		 push	 esi
  0052d	8b cf		 mov	 ecx, edi
  0052f	e8 00 00 00 00	 call	 ?SetWorld@CObj@@QAEXPAVCWorld@@@Z ; CObj::SetWorld

; 926  : 							InsertObjLink( pBkgnd );

  00534	57		 push	 edi
  00535	8b ce		 mov	 ecx, esi
  00537	e8 00 00 00 00	 call	 ?InsertObjLink@CWorld@@QAEHPAVCObj@@@Z ; CWorld::InsertObjLink

; 927  : 							m_vecBackground.push_back( pBkgnd );

  0053c	8b 96 4c 00 05
	00		 mov	 edx, DWORD PTR [esi+327756]
  00542	85 d2		 test	 edx, edx
  00544	8d 8e 48 00 05
	00		 lea	 ecx, DWORD PTR [esi+327752]
  0054a	75 04		 jne	 SHORT $L269497
  0054c	33 db		 xor	 ebx, ebx
  0054e	eb 08		 jmp	 SHORT $L269498
$L269497:
  00550	8b 59 08	 mov	 ebx, DWORD PTR [ecx+8]
  00553	2b da		 sub	 ebx, edx
  00555	c1 fb 02	 sar	 ebx, 2
$L269498:
  00558	85 d2		 test	 edx, edx
  0055a	74 20		 je	 SHORT $L269476
  0055c	8b 41 0c	 mov	 eax, DWORD PTR [ecx+12]
  0055f	2b c2		 sub	 eax, edx
  00561	c1 f8 02	 sar	 eax, 2
  00564	3b d8		 cmp	 ebx, eax
  00566	73 14		 jae	 SHORT $L269476
  00568	8b 41 08	 mov	 eax, DWORD PTR [ecx+8]
  0056b	89 38		 mov	 DWORD PTR [eax], edi
  0056d	83 c0 04	 add	 eax, 4
  00570	89 41 08	 mov	 DWORD PTR [ecx+8], eax

; 928  : 							pBkgnd->UpdateLocalMatrix();

  00573	8b cf		 mov	 ecx, edi
  00575	e8 00 00 00 00	 call	 ?UpdateLocalMatrix@CObj@@QAEXXZ ; CObj::UpdateLocalMatrix

; 929  : 						}
; 930  : 						else

  0057a	eb 21		 jmp	 SHORT $L258785

; 927  : 							m_vecBackground.push_back( pBkgnd );

$L269476:
  0057c	8b 41 08	 mov	 eax, DWORD PTR [ecx+8]
  0057f	8d 54 24 2c	 lea	 edx, DWORD PTR _pBkgnd$[esp+67456]
  00583	52		 push	 edx
  00584	6a 01		 push	 1
  00586	50		 push	 eax
  00587	e8 00 00 00 00	 call	 ?_Insert_n@?$vector@PAVCObj@@V?$allocator@PAVCObj@@@std@@@std@@IAEXViterator@12@IABQAVCObj@@@Z ; std::vector<CObj *,std::allocator<CObj *> >::_Insert_n

; 928  : 							pBkgnd->UpdateLocalMatrix();

  0058c	8b cf		 mov	 ecx, edi
  0058e	e8 00 00 00 00	 call	 ?UpdateLocalMatrix@CObj@@QAEXXZ ; CObj::UpdateLocalMatrix

; 929  : 						}
; 930  : 						else

  00593	eb 08		 jmp	 SHORT $L258785
$L258801:

; 931  : 						{
; 932  : 							SAFE_DELETE( pBkgnd );

  00595	8b 07		 mov	 eax, DWORD PTR [edi]
  00597	8b cf		 mov	 ecx, edi
  00599	6a 01		 push	 1
  0059b	ff 10		 call	 DWORD PTR [eax]
$L258785:
  0059d	8b 44 24 30	 mov	 eax, DWORD PTR _dw$258783[esp+67456]
  005a1	8b 4c 24 44	 mov	 ecx, DWORD PTR _dwObjNum$[esp+67456]
  005a5	40		 inc	 eax
  005a6	3b c1		 cmp	 eax, ecx
  005a8	89 44 24 30	 mov	 DWORD PTR _dw$258783[esp+67456], eax
  005ac	0f 82 8e fe ff
	ff		 jb	 $L258784
$L269619:

; 879  : 				for( DWORD dw =  0; dw < dwObjNum; dw++ )

  005b2	8b 5c 24 34	 mov	 ebx, DWORD PTR _y$258737[esp+67456]
  005b6	8b 7c 24 1c	 mov	 edi, DWORD PTR _x$258741[esp+67456]
$L258786:

; 933  : 						}
; 934  : 					}
; 935  : 				}
; 936  : 			}
; 937  : 			f.Close();

  005ba	8d 4c 24 20	 lea	 ecx, DWORD PTR _f$258746[esp+67456]
  005be	e8 00 00 00 00	 call	 ?Close@CFileIO@@UAEHXZ	; CFileIO::Close

; 938  : 
; 939  : #ifdef __MAP_SECURITY
; 940  : 			g_WorldMng.AddMapCheckInfo( strLandTemp );

  005c3	8b 4c 24 3c	 mov	 ecx, DWORD PTR _strLandTemp$[esp+67456]
  005c7	51		 push	 ecx
  005c8	b9 00 00 00 00	 mov	 ecx, OFFSET FLAT:?g_WorldMng@@3VCWorldMng@@A
  005cd	e8 00 00 00 00	 call	 ?AddMapCheckInfo@CWorldMng@@QAEXPBD@Z ; CWorldMng::AddMapCheckInfo

; 941  : #endif // __MAP_SECURITY
; 942  : 		}

  005d2	8d 4c 24 20	 lea	 ecx, DWORD PTR _f$258746[esp+67456]
  005d6	c6 84 24 7c 07
	01 00 02	 mov	 BYTE PTR __$EHRec$[esp+67464], 2
  005de	c7 44 24 20 00
	00 00 00	 mov	 DWORD PTR _f$258746[esp+67456], OFFSET FLAT:??_7CFileIO@@6B@
  005e6	e8 00 00 00 00	 call	 ?Close@CFileIO@@UAEHXZ	; CFileIO::Close
  005eb	8b 46 04	 mov	 eax, DWORD PTR [esi+4]
  005ee	47		 inc	 edi
  005ef	3b f8		 cmp	 edi, eax
  005f1	89 7c 24 1c	 mov	 DWORD PTR _x$258741[esp+67456], edi
  005f5	0f 8c c6 fa ff
	ff		 jl	 $L258742
$L258739:

; 819  : 	FLOAT aHeightMap[ ( MAP_SIZE + 1 ) * ( MAP_SIZE + 1 ) ];
; 820  : 	WATERHEIGHT aWaterHeight[ NUM_PATCHES_PER_SIDE * NUM_PATCHES_PER_SIDE ];
; 821  : 	BYTE aLocation[ NUM_PATCHES_PER_SIDE * NUM_PATCHES_PER_SIDE ];
; 822  : 	int xLand, yLand;
; 823  : 	D3DXVECTOR3	vPos;
; 824  : 
; 825  : 	CObj* pBkgnd;
; 826  : 	DWORD dwObjNum;
; 827  : 	
; 828  : 	for( int y = 0; y < m_nLandHeight; y++ )

  005fb	8b 46 08	 mov	 eax, DWORD PTR [esi+8]
  005fe	43		 inc	 ebx
  005ff	3b d8		 cmp	 ebx, eax
  00601	89 5c 24 34	 mov	 DWORD PTR _y$258737[esp+67456], ebx
  00605	0f 8c a5 fa ff
	ff		 jl	 $L258738
$L258740:

; 943  : 	}
; 944  : 	return TRUE;

  0060b	8b 44 24 3c	 mov	 eax, DWORD PTR _strLandTemp$[esp+67456]
  0060f	83 c0 f0	 add	 eax, -16		; fffffff0H
  00612	c6 84 24 7c 07
	01 00 01	 mov	 BYTE PTR __$EHRec$[esp+67464], 1
  0061a	8d 50 0c	 lea	 edx, DWORD PTR [eax+12]
  0061d	83 c9 ff	 or	 ecx, -1
  00620	f0 0f c1 0a	 lock	  xadd	 DWORD PTR [edx], ecx
  00624	49		 dec	 ecx
  00625	85 c9		 test	 ecx, ecx
  00627	7f 08		 jg	 SHORT $L269536
  00629	8b 08		 mov	 ecx, DWORD PTR [eax]
  0062b	8b 11		 mov	 edx, DWORD PTR [ecx]
  0062d	50		 push	 eax
  0062e	ff 52 04	 call	 DWORD PTR [edx+4]
$L269536:
  00631	8b 44 24 38	 mov	 eax, DWORD PTR _strLandName$[esp+67456]
  00635	83 c0 f0	 add	 eax, -16		; fffffff0H
  00638	c6 84 24 7c 07
	01 00 00	 mov	 BYTE PTR __$EHRec$[esp+67464], 0
  00640	8d 48 0c	 lea	 ecx, DWORD PTR [eax+12]
  00643	83 ca ff	 or	 edx, -1
  00646	f0 0f c1 11	 lock	  xadd	 DWORD PTR [ecx], edx
  0064a	4a		 dec	 edx
  0064b	85 d2		 test	 edx, edx
  0064d	7f 08		 jg	 SHORT $L269563
  0064f	8b 08		 mov	 ecx, DWORD PTR [eax]
  00651	8b 11		 mov	 edx, DWORD PTR [ecx]
  00653	50		 push	 eax
  00654	ff 52 04	 call	 DWORD PTR [edx+4]
$L269563:
  00657	8b 44 24 54	 mov	 eax, DWORD PTR _strFileName$[esp+67456]
  0065b	83 c0 f0	 add	 eax, -16		; fffffff0H
  0065e	c7 84 24 7c 07
	01 00 ff ff ff
	ff		 mov	 DWORD PTR __$EHRec$[esp+67464], -1
  00669	8d 48 0c	 lea	 ecx, DWORD PTR [eax+12]
  0066c	83 ca ff	 or	 edx, -1
  0066f	f0 0f c1 11	 lock	  xadd	 DWORD PTR [ecx], edx
  00673	4a		 dec	 edx
  00674	85 d2		 test	 edx, edx
  00676	7f 08		 jg	 SHORT $L269615
  00678	8b 08		 mov	 ecx, DWORD PTR [eax]
  0067a	8b 11		 mov	 edx, DWORD PTR [ecx]
  0067c	50		 push	 eax
  0067d	ff 52 04	 call	 DWORD PTR [edx+4]
$L269615:

; 945  : }

  00680	8b 8c 24 74 07
	01 00		 mov	 ecx, DWORD PTR __$EHRec$[esp+67456]
  00687	64 89 0d 00 00
	00 00		 mov	 DWORD PTR fs:__except_list, ecx
  0068e	8b 8c 24 6c 07
	01 00		 mov	 ecx, DWORD PTR __$ArrayPad$[esp+67456]
  00695	5f		 pop	 edi
  00696	5e		 pop	 esi
  00697	33 cd		 xor	 ecx, ebp
  00699	b8 01 00 00 00	 mov	 eax, 1
  0069e	5b		 pop	 ebx
  0069f	e8 00 00 00 00	 call	 @__security_check_cookie@4
  006a4	8b e5		 mov	 esp, ebp
  006a6	5d		 pop	 ebp
  006a7	c2 04 00	 ret	 4
_TEXT	ENDS
;	COMDAT text$x
text$x	SEGMENT
$L269130:
  00000	8d 8d d4 f8 fe
	ff		 lea	 ecx, DWORD PTR _strFileName$[ebp]
  00006	e9 00 00 00 00	 jmp	 ??1?$CStringT@DV?$StrTraitMFC@DV?$ChTraitsCRT@D@ATL@@@@@ATL@@QAE@XZ ; ATL::CStringT<char,StrTraitMFC<char,ATL::ChTraitsCRT<char> > >::~CStringT<char,StrTraitMFC<char,ATL::ChTraitsCRT<char> > >
$L269131:
  0000b	8d 8d b8 f8 fe
	ff		 lea	 ecx, DWORD PTR _strLandName$[ebp]
  00011	e9 00 00 00 00	 jmp	 ??1?$CStringT@DV?$StrTraitMFC@DV?$ChTraitsCRT@D@ATL@@@@@ATL@@QAE@XZ ; ATL::CStringT<char,StrTraitMFC<char,ATL::ChTraitsCRT<char> > >::~CStringT<char,StrTraitMFC<char,ATL::ChTraitsCRT<char> > >
$L269132:
  00016	8d 8d bc f8 fe
	ff		 lea	 ecx, DWORD PTR _strLandTemp$[ebp]
  0001c	e9 00 00 00 00	 jmp	 ??1?$CStringT@DV?$StrTraitMFC@DV?$ChTraitsCRT@D@ATL@@@@@ATL@@QAE@XZ ; ATL::CStringT<char,StrTraitMFC<char,ATL::ChTraitsCRT<char> > >::~CStringT<char,StrTraitMFC<char,ATL::ChTraitsCRT<char> > >
$L269133:
  00021	8d 8d a0 f8 fe
	ff		 lea	 ecx, DWORD PTR _f$258746[ebp]
  00027	e9 00 00 00 00	 jmp	 ??1CFileIO@@UAE@XZ	; CFileIO::~CFileIO
__ehhandler$?ReadWorld@CWorld@@QAEHABVCRect@@@Z:
  0002c	b8 00 00 00 00	 mov	 eax, OFFSET FLAT:$T269596
  00031	e9 00 00 00 00	 jmp	 ___CxxFrameHandler
text$x	ENDS
?ReadWorld@CWorld@@QAEHABVCRect@@@Z ENDP		; CWorld::ReadWorld
END
