; Listing generated by Microsoft (R) Optimizing Compiler Version 13.10.6030 

	TITLE	\Documents and Settings\test\Mes documents\Source\Virtuos_v17\Build\Program\_Common\World.cpp
	.386P
include listing.inc
if @Version gt 510
.model FLAT
else
_TEXT	SEGMENT PARA USE32 PUBLIC 'CODE'
_TEXT	ENDS
_DATA	SEGMENT DWORD USE32 PUBLIC 'DATA'
_DATA	ENDS
CONST	SEGMENT DWORD USE32 PUBLIC 'CONST'
CONST	ENDS
_BSS	SEGMENT DWORD USE32 PUBLIC 'BSS'
_BSS	ENDS
$$SYMBOLS	SEGMENT BYTE USE32 'DEBSYM'
$$SYMBOLS	ENDS
$$TYPES	SEGMENT BYTE USE32 'DEBTYP'
$$TYPES	ENDS
_TLS	SEGMENT DWORD USE32 PUBLIC 'TLS'
_TLS	ENDS
;	COMDAT ??_C@_0CI@KCJBBNGD@CWorld?3?3AddObj?5obj?8s?5world?5is?5NO@
CONST	SEGMENT DWORD USE32 PUBLIC 'CONST'
CONST	ENDS
;	COMDAT ??_C@_0CK@OMOEDGKP@CWorld?3?3AddObj?5world?5id?3?$CFd?5x?3?$CFf?5@
CONST	SEGMENT DWORD USE32 PUBLIC 'CONST'
CONST	ENDS
;	COMDAT ??_C@_0BK@DCGJKBFJ@CWorld?3?3DeleteObj?5?3?5?$CFs?5?$CFd?$AA@
CONST	SEGMENT DWORD USE32 PUBLIC 'CONST'
CONST	ENDS
;	COMDAT ??_C@_0CG@EDKIFBIC@CWorld?3?3DeleteObj?5?3?5type?$DN?$CFd?5idx?$DN@
CONST	SEGMENT DWORD USE32 PUBLIC 'CONST'
CONST	ENDS
;	COMDAT ??_C@_0P@BHPKFHEI@MAX_DELETEOBJS?$AA@
CONST	SEGMENT DWORD USE32 PUBLIC 'CONST'
CONST	ENDS
;	COMDAT ??_C@_0CA@LOMLCCK@AddObjArray?5nIndex?5?$DN?50xffffffff?$AA@
CONST	SEGMENT DWORD USE32 PUBLIC 'CONST'
CONST	ENDS
;	COMDAT ??_C@_0DD@JHPKICEK@RemoveObjArray?5?5pObj?9?$DOm_dwObjAry@
CONST	SEGMENT DWORD USE32 PUBLIC 'CONST'
CONST	ENDS
;	COMDAT ??_C@_0DI@KBIGLDPE@RemoveObjArray?5m_apObject?$FLpObj?9?$DO@
CONST	SEGMENT DWORD USE32 PUBLIC 'CONST'
CONST	ENDS
;	COMDAT ??_C@_0DB@CFEPIBL@ROL?1?1INVALID?5POS?1?1?$CFd?0?5?$CFd?0?5?$CFf?0?5?$CFf@
CONST	SEGMENT DWORD USE32 PUBLIC 'CONST'
CONST	ENDS
;	COMDAT ??_C@_0CO@PFFBKGBP@CWorld?3?3GetLandHeight?5?3?5?$CFd?5?$CFd?0?5?5@
CONST	SEGMENT DWORD USE32 PUBLIC 'CONST'
CONST	ENDS
;	COMDAT ??_C@_0BI@FJJIKCGF@LINKMAP?5world?5different?$AA@
CONST	SEGMENT DWORD USE32 PUBLIC 'CONST'
CONST	ENDS
;	COMDAT ??_C@_0P@JGKCBPBI@ML?1?1?$CFs?1?1?$CFd?1?1?$CFd?$AA@
CONST	SEGMENT DWORD USE32 PUBLIC 'CONST'
CONST	ENDS
;	COMDAT ??_C@_0BG@ECAHOHBD@ML?1?1BINGO?1?1?$CFd?1?1?$CFd?1?1?$CFd?$AA@
CONST	SEGMENT DWORD USE32 PUBLIC 'CONST'
CONST	ENDS
;	COMDAT ??_C@_0CE@GAGEENAE@_replace?5world?5id?3?$CFd?5x?3?$CFf?5y?3?$CFf?5z@
CONST	SEGMENT DWORD USE32 PUBLIC 'CONST'
CONST	ENDS
;	COMDAT ??_C@_0DB@DMPELOAC@CWorld?3?3SendDamageAround?5?3?5D?3?$CFd?0@
CONST	SEGMENT DWORD USE32 PUBLIC 'CONST'
CONST	ENDS
;	COMDAT ??_C@_0DN@ECMLCJLF@CWorld?3?3SendDamageAround?5?3?5?$CFs?4?5?$LN@
CONST	SEGMENT DWORD USE32 PUBLIC 'CONST'
CONST	ENDS
;	COMDAT ??_C@_0DP@PNAKIIFP@CWorld?3?3SendDamageAround?5?3?5?$CFs?4?5?$LO@
CONST	SEGMENT DWORD USE32 PUBLIC 'CONST'
CONST	ENDS
xdata$x	SEGMENT DWORD USE32 PUBLIC 'CONST'
xdata$x	ENDS
text$AFX_COL1	SEGMENT PARA USE32 PUBLIC ''
text$AFX_COL1	ENDS
;	COMDAT ?GetExpanedLayer@CTicketProperty@@QAEHK@Z
_TEXT	SEGMENT PARA USE32 PUBLIC 'CODE'
_TEXT	ENDS
;	COMDAT ?SelectMemberClear@__GuildCombatMember@CGuildCombat@@QAEXXZ
_TEXT	SEGMENT PARA USE32 PUBLIC 'CODE'
_TEXT	ENDS
;	COMDAT ??0__MINIGAME_PACKET@@QAE@GHHH@Z
_TEXT	SEGMENT PARA USE32 PUBLIC 'CODE'
_TEXT	ENDS
;	COMDAT ?Serialize@__MINIGAME_PACKET@@UAEXAAVCAr@@@Z
_TEXT	SEGMENT PARA USE32 PUBLIC 'CODE'
_TEXT	ENDS
;	COMDAT ?Serialize@__MINIGAME_EXT_PACKET@@UAEXAAVCAr@@@Z
_TEXT	SEGMENT PARA USE32 PUBLIC 'CODE'
_TEXT	ENDS
;	COMDAT ??0MINIGMAME_PRIZE_LIST@CRainbowRaceMng@@QAE@KHK@Z
_TEXT	SEGMENT PARA USE32 PUBLIC 'CODE'
_TEXT	ENDS
;	COMDAT ?RemovePlayerId2CampusId@CCampusMng@@QAEXK@Z
_TEXT	SEGMENT PARA USE32 PUBLIC 'CODE'
_TEXT	ENDS
;	COMDAT ?GetPacketSize@CBuffer2@@UAEKPAE@Z
_TEXT	SEGMENT PARA USE32 PUBLIC 'CODE'
_TEXT	ENDS
;	COMDAT ?SetHeader@CBuffer2@@UAEXK@Z
_TEXT	SEGMENT PARA USE32 PUBLIC 'CODE'
_TEXT	ENDS
;	COMDAT ??_GCBuffer2@@UAEPAXI@Z
_TEXT	SEGMENT PARA USE32 PUBLIC 'CODE'
_TEXT	ENDS
;	COMDAT ??1CBuffer2@@UAE@XZ
_TEXT	SEGMENT PARA USE32 PUBLIC 'CODE'
_TEXT	ENDS
;	COMDAT ?IsEmpty@CBufferQueue@@QAEHXZ
_TEXT	SEGMENT PARA USE32 PUBLIC 'CODE'
_TEXT	ENDS
;	COMDAT ??1CMapChild@@UAE@XZ
_TEXT	SEGMENT PARA USE32 PUBLIC 'CODE'
_TEXT	ENDS
;	COMDAT ??_GCMapChild@@UAEPAXI@Z
_TEXT	SEGMENT PARA USE32 PUBLIC 'CODE'
_TEXT	ENDS
;	COMDAT ??1?$map@KPAVCClientSock@@U?$less@K@std@@V?$allocator@U?$pair@$$CBKPAVCClientSock@@@std@@@3@@std@@QAE@XZ
_TEXT	SEGMENT PARA USE32 PUBLIC 'CODE'
_TEXT	ENDS
;	COMDAT ??1CMapChildE@@UAE@XZ
_TEXT	SEGMENT PARA USE32 PUBLIC 'CODE'
_TEXT	ENDS
;	COMDAT ??_GCMapChildE@@UAEPAXI@Z
_TEXT	SEGMENT PARA USE32 PUBLIC 'CODE'
_TEXT	ENDS
;	COMDAT ??1?$map@KPAVCClientSockE@@U?$less@K@std@@V?$allocator@U?$pair@$$CBKPAVCClientSockE@@@std@@@3@@std@@QAE@XZ
_TEXT	SEGMENT PARA USE32 PUBLIC 'CODE'
_TEXT	ENDS
;	COMDAT ?GetRecvHandle@CDPSock@@QAEPAXXZ
_TEXT	SEGMENT PARA USE32 PUBLIC 'CODE'
_TEXT	ENDS
;	COMDAT ??0CWorld@@QAE@XZ
_TEXT	SEGMENT PARA USE32 PUBLIC 'CODE'
_TEXT	ENDS
;	COMDAT ??0tagREPLACEOBJ@@QAE@XZ
_TEXT	SEGMENT PARA USE32 PUBLIC 'CODE'
_TEXT	ENDS
;	COMDAT ??1ENVIR_INFO@@QAE@XZ
_TEXT	SEGMENT PARA USE32 PUBLIC 'CODE'
_TEXT	ENDS
;	COMDAT ??0WORLD_ENVIR_INFO@@QAE@XZ
_TEXT	SEGMENT PARA USE32 PUBLIC 'CODE'
_TEXT	ENDS
;	COMDAT ??1WORLD_ENVIR_INFO@@QAE@XZ
_TEXT	SEGMENT PARA USE32 PUBLIC 'CODE'
_TEXT	ENDS
;	COMDAT ??1CWorld@@QAE@XZ
_TEXT	SEGMENT PARA USE32 PUBLIC 'CODE'
_TEXT	ENDS
;	COMDAT ?Free@CWorld@@QAEXXZ
_TEXT	SEGMENT PARA USE32 PUBLIC 'CODE'
_TEXT	ENDS
;	COMDAT ?CalcBound@CWorld@@QAEXXZ
_TEXT	SEGMENT PARA USE32 PUBLIC 'CODE'
_TEXT	ENDS
;	COMDAT ?LoadAllMoverDialog@CWorld@@QAEXXZ
_TEXT	SEGMENT PARA USE32 PUBLIC 'CODE'
_TEXT	ENDS
;	COMDAT ?DoNotAdd@CWorld@@QAEHPAVCObj@@@Z
_TEXT	SEGMENT PARA USE32 PUBLIC 'CODE'
_TEXT	ENDS
;	COMDAT ?AddObj@CWorld@@QAEHPAVCObj@@HH@Z
_TEXT	SEGMENT PARA USE32 PUBLIC 'CODE'
_TEXT	ENDS
;	COMDAT ?RemoveObj@CWorld@@QAEXPAVCObj@@@Z
_TEXT	SEGMENT PARA USE32 PUBLIC 'CODE'
_TEXT	ENDS
;	COMDAT ?DeleteObj@CWorld@@QAEXPAVCObj@@@Z
_TEXT	SEGMENT PARA USE32 PUBLIC 'CODE'
_TEXT	ENDS
;	COMDAT ?AddObjArray@CWorld@@QAEHPAVCObj@@@Z
_TEXT	SEGMENT PARA USE32 PUBLIC 'CODE'
_TEXT	ENDS
;	COMDAT ?RemoveObjArray@CWorld@@QAEXPAVCObj@@@Z
_TEXT	SEGMENT PARA USE32 PUBLIC 'CODE'
_TEXT	ENDS
;	COMDAT ?InsertObjLink@CWorld@@QAEHPAVCObj@@@Z
_TEXT	SEGMENT PARA USE32 PUBLIC 'CODE'
_TEXT	ENDS
;	COMDAT ?RemoveObjLink2@CWorld@@QAEHPAVCObj@@@Z
_TEXT	SEGMENT PARA USE32 PUBLIC 'CODE'
_TEXT	ENDS
;	COMDAT ?RemoveObjLink@CWorld@@QAEHPAVCObj@@@Z
_TEXT	SEGMENT PARA USE32 PUBLIC 'CODE'
_TEXT	ENDS
;	COMDAT ?GetObjInLinkMap@CWorld@@QAEPAVCObj@@ABUD3DXVECTOR3@@KHH@Z
_TEXT	SEGMENT PARA USE32 PUBLIC 'CODE'
_TEXT	ENDS
;	COMDAT ?SetObjInLinkMap@CWorld@@QAEHABUD3DXVECTOR3@@KHPAVCObj@@H@Z
_TEXT	SEGMENT PARA USE32 PUBLIC 'CODE'
_TEXT	ENDS
;	COMDAT ?Process@CWorld@@QAEXXZ
_TEXT	SEGMENT PARA USE32 PUBLIC 'CODE'
_TEXT	ENDS
;	COMDAT ?GetLandHeight@CWorld@@QAEMMM@Z
_TEXT	SEGMENT PARA USE32 PUBLIC 'CODE'
_TEXT	ENDS
;	COMDAT ?GetLandHeight@CWorld@@QAEMABUD3DXVECTOR3@@@Z
_TEXT	SEGMENT PARA USE32 PUBLIC 'CODE'
_TEXT	ENDS
;	COMDAT ?GetLandTris@CWorld@@QAEHMMPAUD3DXVECTOR3@@@Z
_TEXT	SEGMENT PARA USE32 PUBLIC 'CODE'
_TEXT	ENDS
;	COMDAT ?GetLandTri2@CWorld@@QAEHMMPAUD3DXVECTOR3@@@Z
_TEXT	SEGMENT PARA USE32 PUBLIC 'CODE'
_TEXT	ENDS
;	COMDAT ?GetLandTri@CWorld@@QAEXMMPAUD3DXVECTOR3@@@Z
_TEXT	SEGMENT PARA USE32 PUBLIC 'CODE'
_TEXT	ENDS
;	COMDAT ?AddItToView@CWorld@@AAEXPAVCCtrl@@@Z
_TEXT	SEGMENT PARA USE32 PUBLIC 'CODE'
_TEXT	ENDS
;	COMDAT ?ModifyView@CWorld@@QAEXPAVCCtrl@@@Z
_TEXT	SEGMENT PARA USE32 PUBLIC 'CODE'
_TEXT	ENDS
;	COMDAT ?PreremoveObj@CWorld@@QAEHK@Z
_TEXT	SEGMENT PARA USE32 PUBLIC 'CODE'
_TEXT	ENDS
;	COMDAT ?PregetObj@CWorld@@QAEPAVCObj@@K@Z
_TEXT	SEGMENT PARA USE32 PUBLIC 'CODE'
_TEXT	ENDS
;	COMDAT ?_add@CWorld@@AAEXXZ
_TEXT	SEGMENT PARA USE32 PUBLIC 'CODE'
_TEXT	ENDS
;	COMDAT ?_modifylink@CWorld@@AAEXXZ
_TEXT	SEGMENT PARA USE32 PUBLIC 'CODE'
_TEXT	ENDS
;	COMDAT ?_delete@CWorld@@AAEXXZ
_TEXT	SEGMENT PARA USE32 PUBLIC 'CODE'
_TEXT	ENDS
;	COMDAT ?DestroyObj@CWorld@@QAEXPAVCObj@@@Z
_TEXT	SEGMENT PARA USE32 PUBLIC 'CODE'
_TEXT	ENDS
;	COMDAT ?_replace@CWorld@@AAEXXZ
_TEXT	SEGMENT PARA USE32 PUBLIC 'CODE'
_TEXT	ENDS
;	COMDAT ?_process@CWorld@@AAEXXZ
_TEXT	SEGMENT PARA USE32 PUBLIC 'CODE'
_TEXT	ENDS
;	COMDAT ?GetHeightAttribute@CWorld@@QAEHMM@Z
_TEXT	SEGMENT PARA USE32 PUBLIC 'CODE'
_TEXT	ENDS
;	COMDAT ?GetWaterHeight@CWorld@@QAEPAUWATERHEIGHT@@HH@Z
_TEXT	SEGMENT PARA USE32 PUBLIC 'CODE'
_TEXT	ENDS
;	COMDAT ?SendDamageAround@CWorld@@QAEXPBUD3DXVECTOR3@@HPAVCMover@@HHM@Z
_TEXT	SEGMENT PARA USE32 PUBLIC 'CODE'
_TEXT	ENDS
;	COMDAT ?OnDie@CWorld@@QAEXPAVCMover@@0@Z
_TEXT	SEGMENT PARA USE32 PUBLIC 'CODE'
_TEXT	ENDS
;	COMDAT ?_OnDie@CWorld@@QAEXXZ
_TEXT	SEGMENT PARA USE32 PUBLIC 'CODE'
_TEXT	ENDS
;	COMDAT ?FindMover@CWorld@@QAEPAVCMover@@PBD@Z
_TEXT	SEGMENT PARA USE32 PUBLIC 'CODE'
_TEXT	ENDS
;	COMDAT ?Expand@CWorld@@QAEXXZ
_TEXT	SEGMENT PARA USE32 PUBLIC 'CODE'
_TEXT	ENDS
;	COMDAT ?compare@?$basic_string@DU?$char_traits@D@std@@V?$allocator@D@2@@std@@QBEHABV12@@Z
_TEXT	SEGMENT PARA USE32 PUBLIC 'CODE'
_TEXT	ENDS
;	COMDAT ?GetCount@?$CStack@K@@QAEHXZ
_TEXT	SEGMENT PARA USE32 PUBLIC 'CODE'
_TEXT	ENDS
;	COMDAT ?IsFull@?$CStack@K@@QAEHXZ
_TEXT	SEGMENT PARA USE32 PUBLIC 'CODE'
_TEXT	ENDS
;	COMDAT ??A?$map@KPAVCCtrl@@U?$less@K@std@@V?$allocator@U?$pair@$$CBKPAVCCtrl@@@std@@@3@@std@@QAEAAPAVCCtrl@@ABK@Z
_TEXT	SEGMENT PARA USE32 PUBLIC 'CODE'
_TEXT	ENDS
;	COMDAT ??0?$pair@KPAVCCtrl@@@std@@QAE@ABKABQAVCCtrl@@@Z
_TEXT	SEGMENT PARA USE32 PUBLIC 'CODE'
_TEXT	ENDS
;	COMDAT ?size@?$vector@KV?$allocator@K@std@@@std@@QBEIXZ
_TEXT	SEGMENT PARA USE32 PUBLIC 'CODE'
_TEXT	ENDS
;	COMDAT ??A?$vector@KV?$allocator@K@std@@@std@@QAEAAKI@Z
_TEXT	SEGMENT PARA USE32 PUBLIC 'CODE'
_TEXT	ENDS
;	COMDAT ?GetMax@?$CItemContainer@VCItemElem@@@@QAEHXZ
_TEXT	SEGMENT PARA USE32 PUBLIC 'CODE'
_TEXT	ENDS
;	COMDAT ??0?$deque@PAUtagACTMSG@@V?$allocator@PAUtagACTMSG@@@std@@@std@@QAE@XZ
_TEXT	SEGMENT PARA USE32 PUBLIC 'CODE'
_TEXT	ENDS
;	COMDAT ??1?$deque@PAUtagACTMSG@@V?$allocator@PAUtagACTMSG@@@std@@@std@@QAE@XZ
_TEXT	SEGMENT PARA USE32 PUBLIC 'CODE'
_TEXT	ENDS
;	COMDAT ?begin@?$deque@PAUtagACTMSG@@V?$allocator@PAUtagACTMSG@@@std@@@std@@QAE?AViterator@12@XZ
_TEXT	SEGMENT PARA USE32 PUBLIC 'CODE'
_TEXT	ENDS
;	COMDAT ?end@?$deque@PAUtagACTMSG@@V?$allocator@PAUtagACTMSG@@@std@@@std@@QAE?AViterator@12@XZ
_TEXT	SEGMENT PARA USE32 PUBLIC 'CODE'
_TEXT	ENDS
;	COMDAT ?empty@?$deque@PAUtagACTMSG@@V?$allocator@PAUtagACTMSG@@@std@@@std@@QBE_NXZ
_TEXT	SEGMENT PARA USE32 PUBLIC 'CODE'
_TEXT	ENDS
;	COMDAT ?clear@?$deque@PAUtagACTMSG@@V?$allocator@PAUtagACTMSG@@@std@@@std@@QAEXXZ
_TEXT	SEGMENT PARA USE32 PUBLIC 'CODE'
_TEXT	ENDS
;	COMDAT ??0?$deque@PAUtagMAGICATKMSG@@V?$allocator@PAUtagMAGICATKMSG@@@std@@@std@@QAE@XZ
_TEXT	SEGMENT PARA USE32 PUBLIC 'CODE'
_TEXT	ENDS
;	COMDAT ??1?$deque@PAUtagMAGICATKMSG@@V?$allocator@PAUtagMAGICATKMSG@@@std@@@std@@QAE@XZ
_TEXT	SEGMENT PARA USE32 PUBLIC 'CODE'
_TEXT	ENDS
;	COMDAT ?begin@?$deque@PAUtagMAGICATKMSG@@V?$allocator@PAUtagMAGICATKMSG@@@std@@@std@@QAE?AViterator@12@XZ
_TEXT	SEGMENT PARA USE32 PUBLIC 'CODE'
_TEXT	ENDS
;	COMDAT ?end@?$deque@PAUtagMAGICATKMSG@@V?$allocator@PAUtagMAGICATKMSG@@@std@@@std@@QAE?AViterator@12@XZ
_TEXT	SEGMENT PARA USE32 PUBLIC 'CODE'
_TEXT	ENDS
;	COMDAT ?empty@?$deque@PAUtagMAGICATKMSG@@V?$allocator@PAUtagMAGICATKMSG@@@std@@@std@@QBE_NXZ
_TEXT	SEGMENT PARA USE32 PUBLIC 'CODE'
_TEXT	ENDS
;	COMDAT ?clear@?$deque@PAUtagMAGICATKMSG@@V?$allocator@PAUtagMAGICATKMSG@@@std@@@std@@QAEXXZ
_TEXT	SEGMENT PARA USE32 PUBLIC 'CODE'
_TEXT	ENDS
;	COMDAT ??0?$vector@UENVIR_INFO@@V?$allocator@UENVIR_INFO@@@std@@@std@@QAE@XZ
_TEXT	SEGMENT PARA USE32 PUBLIC 'CODE'
_TEXT	ENDS
;	COMDAT ??1?$vector@UENVIR_INFO@@V?$allocator@UENVIR_INFO@@@std@@@std@@QAE@XZ
_TEXT	SEGMENT PARA USE32 PUBLIC 'CODE'
_TEXT	ENDS
;	COMDAT ??0?$vector@PAVCObj@@V?$allocator@PAVCObj@@@std@@@std@@QAE@XZ
_TEXT	SEGMENT PARA USE32 PUBLIC 'CODE'
_TEXT	ENDS
;	COMDAT ??1?$vector@PAVCObj@@V?$allocator@PAVCObj@@@std@@@std@@QAE@XZ
_TEXT	SEGMENT PARA USE32 PUBLIC 'CODE'
_TEXT	ENDS
;	COMDAT ?size@?$vector@PAVCObj@@V?$allocator@PAVCObj@@@std@@@std@@QBEIXZ
_TEXT	SEGMENT PARA USE32 PUBLIC 'CODE'
_TEXT	ENDS
;	COMDAT ??A?$vector@PAVCObj@@V?$allocator@PAVCObj@@@std@@@std@@QAEAAPAVCObj@@I@Z
_TEXT	SEGMENT PARA USE32 PUBLIC 'CODE'
_TEXT	ENDS
;	COMDAT ?clear@?$vector@PAVCObj@@V?$allocator@PAVCObj@@@std@@@std@@QAEXXZ
_TEXT	SEGMENT PARA USE32 PUBLIC 'CODE'
_TEXT	ENDS
;	COMDAT ??A?$vector@VCGuildCombat1to1@@V?$allocator@VCGuildCombat1to1@@@std@@@std@@QAEAAVCGuildCombat1to1@@I@Z
_TEXT	SEGMENT PARA USE32 PUBLIC 'CODE'
_TEXT	ENDS
;	COMDAT ??A?$vector@U__GC1TO1TENDER@CGuildCombat1to1Mng@@V?$allocator@U__GC1TO1TENDER@CGuildCombat1to1Mng@@@std@@@std@@QAEAAU__GC1TO1TENDER@CGuildCombat1to1Mng@@I@Z
_TEXT	SEGMENT PARA USE32 PUBLIC 'CODE'
_TEXT	ENDS
;	COMDAT ??Diterator@?$deque@PAUtagACTMSG@@V?$allocator@PAUtagACTMSG@@@std@@@std@@QBEAAPAUtagACTMSG@@XZ
_TEXT	SEGMENT PARA USE32 PUBLIC 'CODE'
_TEXT	ENDS
;	COMDAT ??Eiterator@?$deque@PAUtagACTMSG@@V?$allocator@PAUtagACTMSG@@@std@@@std@@QAEAAV012@XZ
_TEXT	SEGMENT PARA USE32 PUBLIC 'CODE'
_TEXT	ENDS
;	COMDAT ??9const_iterator@?$deque@PAUtagACTMSG@@V?$allocator@PAUtagACTMSG@@@std@@@std@@QBE_NABV012@@Z
_TEXT	SEGMENT PARA USE32 PUBLIC 'CODE'
_TEXT	ENDS
;	COMDAT ??Diterator@?$deque@PAUtagMAGICATKMSG@@V?$allocator@PAUtagMAGICATKMSG@@@std@@@std@@QBEAAPAUtagMAGICATKMSG@@XZ
_TEXT	SEGMENT PARA USE32 PUBLIC 'CODE'
_TEXT	ENDS
;	COMDAT ??Eiterator@?$deque@PAUtagMAGICATKMSG@@V?$allocator@PAUtagMAGICATKMSG@@@std@@@std@@QAEAAV012@XZ
_TEXT	SEGMENT PARA USE32 PUBLIC 'CODE'
_TEXT	ENDS
;	COMDAT ??9const_iterator@?$deque@PAUtagMAGICATKMSG@@V?$allocator@PAUtagMAGICATKMSG@@@std@@@std@@QBE_NABV012@@Z
_TEXT	SEGMENT PARA USE32 PUBLIC 'CODE'
_TEXT	ENDS
;	COMDAT ?erase@?$_Tree@V?$_Tmap_traits@KKU?$less@K@std@@V?$allocator@U?$pair@$$CBKK@std@@@2@$0A@@std@@@std@@QAEIABK@Z
_TEXT	SEGMENT PARA USE32 PUBLIC 'CODE'
_TEXT	ENDS
;	COMDAT ?erase@?$_Tree@V?$_Tmap_traits@KU_Friend@@U?$less@K@std@@V?$allocator@U?$pair@$$CBKU_Friend@@@std@@@3@$0A@@std@@@std@@QAEIABK@Z
_TEXT	SEGMENT PARA USE32 PUBLIC 'CODE'
_TEXT	ENDS
;	COMDAT ?size@?$_Tree@V?$_Tmap_traits@KPAVCGuildMember@@U?$less@K@std@@V?$allocator@U?$pair@$$CBKPAVCGuildMember@@@std@@@3@$0A@@std@@@std@@QBEIXZ
_TEXT	SEGMENT PARA USE32 PUBLIC 'CODE'
_TEXT	ENDS
;	COMDAT ?size@?$_Tree@V?$_Tmap_traits@KPAVCGuild@@U?$less@K@std@@V?$allocator@U?$pair@$$CBKPAVCGuild@@@std@@@3@$0A@@std@@@std@@QBEIXZ
_TEXT	SEGMENT PARA USE32 PUBLIC 'CODE'
_TEXT	ENDS
;	COMDAT ?size@?$vector@PAU__JOINPLAYER@CGuildCombat@@V?$allocator@PAU__JOINPLAYER@CGuildCombat@@@std@@@std@@QBEIXZ
_TEXT	SEGMENT PARA USE32 PUBLIC 'CODE'
_TEXT	ENDS
;	COMDAT ??A?$vector@PAU__JOINPLAYER@CGuildCombat@@V?$allocator@PAU__JOINPLAYER@CGuildCombat@@@std@@@std@@QAEAAPAU__JOINPLAYER@CGuildCombat@@I@Z
_TEXT	SEGMENT PARA USE32 PUBLIC 'CODE'
_TEXT	ENDS
;	COMDAT ?clear@?$vector@PAU__JOINPLAYER@CGuildCombat@@V?$allocator@PAU__JOINPLAYER@CGuildCombat@@@std@@@std@@QAEXXZ
_TEXT	SEGMENT PARA USE32 PUBLIC 'CODE'
_TEXT	ENDS
;	COMDAT ?clear@?$list@PAU__JOINPLAYER@CGuildCombat@@V?$allocator@PAU__JOINPLAYER@CGuildCombat@@@std@@@std@@QAEXXZ
_TEXT	SEGMENT PARA USE32 PUBLIC 'CODE'
_TEXT	ENDS
;	COMDAT ?size@?$_Tree@V?$_Tmap_traits@KPAU_PlayerData@@U?$less@K@std@@V?$allocator@U?$pair@$$CBKPAU_PlayerData@@@std@@@3@$0A@@std@@@std@@QBEIXZ
_TEXT	SEGMENT PARA USE32 PUBLIC 'CODE'
_TEXT	ENDS
;	COMDAT ??0?$vector@U__SECRETROOM_MONSTER@@V?$allocator@U__SECRETROOM_MONSTER@@@std@@@std@@QAE@XZ
_TEXT	SEGMENT PARA USE32 PUBLIC 'CODE'
_TEXT	ENDS
;	COMDAT ??1?$vector@U__SECRETROOM_MONSTER@@V?$allocator@U__SECRETROOM_MONSTER@@@std@@@std@@QAE@XZ
_TEXT	SEGMENT PARA USE32 PUBLIC 'CODE'
_TEXT	ENDS
;	COMDAT ??0?$vector@V?$basic_string@DU?$char_traits@D@std@@V?$allocator@D@2@@std@@V?$allocator@V?$basic_string@DU?$char_traits@D@std@@V?$allocator@D@2@@std@@@2@@std@@QAE@XZ
_TEXT	SEGMENT PARA USE32 PUBLIC 'CODE'
_TEXT	ENDS
;	COMDAT ??1?$vector@V?$basic_string@DU?$char_traits@D@std@@V?$allocator@D@2@@std@@V?$allocator@V?$basic_string@DU?$char_traits@D@std@@V?$allocator@D@2@@std@@@2@@std@@QAE@XZ
_TEXT	SEGMENT PARA USE32 PUBLIC 'CODE'
_TEXT	ENDS
;	COMDAT ?size@?$vector@V?$basic_string@DU?$char_traits@D@std@@V?$allocator@D@2@@std@@V?$allocator@V?$basic_string@DU?$char_traits@D@std@@V?$allocator@D@2@@std@@@2@@std@@QBEIXZ
_TEXT	SEGMENT PARA USE32 PUBLIC 'CODE'
_TEXT	ENDS
;	COMDAT ??A?$vector@V?$basic_string@DU?$char_traits@D@std@@V?$allocator@D@2@@std@@V?$allocator@V?$basic_string@DU?$char_traits@D@std@@V?$allocator@D@2@@std@@@2@@std@@QAEAAV?$basic_string@DU?$char_traits@D@std@@V?$allocator@D@2@@1@I@Z
_TEXT	SEGMENT PARA USE32 PUBLIC 'CODE'
_TEXT	ENDS
;	COMDAT ?push_back@?$vector@V?$basic_string@DU?$char_traits@D@std@@V?$allocator@D@2@@std@@V?$allocator@V?$basic_string@DU?$char_traits@D@std@@V?$allocator@D@2@@std@@@2@@std@@QAEXABV?$basic_string@DU?$char_traits@D@std@@V?$allocator@D@2@@2@@Z
_TEXT	SEGMENT PARA USE32 PUBLIC 'CODE'
_TEXT	ENDS
;	COMDAT ?clear@?$vector@V?$basic_string@DU?$char_traits@D@std@@V?$allocator@D@2@@std@@V?$allocator@V?$basic_string@DU?$char_traits@D@std@@V?$allocator@D@2@@std@@@2@@std@@QAEXXZ
_TEXT	SEGMENT PARA USE32 PUBLIC 'CODE'
_TEXT	ENDS
;	COMDAT ?push_back@?$vector@UMINIGMAME_PRIZE_LIST@CRainbowRaceMng@@V?$allocator@UMINIGMAME_PRIZE_LIST@CRainbowRaceMng@@@std@@@std@@QAEXABUMINIGMAME_PRIZE_LIST@CRainbowRaceMng@@@Z
_TEXT	SEGMENT PARA USE32 PUBLIC 'CODE'
_TEXT	ENDS
;	COMDAT ?size@?$_Tree@V?$_Tmap_traits@KPAVCRainbowRace@@U?$less@K@std@@V?$allocator@U?$pair@$$CBKPAVCRainbowRace@@@std@@@3@$0A@@std@@@std@@QBEIXZ
_TEXT	SEGMENT PARA USE32 PUBLIC 'CODE'
_TEXT	ENDS
;	COMDAT ?size@?$vector@PAVCMiniGameBase@@V?$allocator@PAVCMiniGameBase@@@std@@@std@@QBEIXZ
_TEXT	SEGMENT PARA USE32 PUBLIC 'CODE'
_TEXT	ENDS
;	COMDAT ??A?$vector@PAVCMiniGameBase@@V?$allocator@PAVCMiniGameBase@@@std@@@std@@QAEAAPAVCMiniGameBase@@I@Z
_TEXT	SEGMENT PARA USE32 PUBLIC 'CODE'
_TEXT	ENDS
;	COMDAT ?size@?$vector@UGuildHouse_Furniture_Info@CGuildHouseBase@@V?$allocator@UGuildHouse_Furniture_Info@CGuildHouseBase@@@std@@@std@@QBEIXZ
_TEXT	SEGMENT PARA USE32 PUBLIC 'CODE'
_TEXT	ENDS
;	COMDAT ??A?$vector@UGuildHouse_Furniture_Info@CGuildHouseBase@@V?$allocator@UGuildHouse_Furniture_Info@CGuildHouseBase@@@std@@@std@@QAEAAUGuildHouse_Furniture_Info@CGuildHouseBase@@I@Z
_TEXT	SEGMENT PARA USE32 PUBLIC 'CODE'
_TEXT	ENDS
;	COMDAT ?empty@?$_Tree@V?$_Tmap_traits@KPAVCGuildHouseBase@@U?$less@K@std@@V?$allocator@U?$pair@$$CBKPAVCGuildHouseBase@@@std@@@3@$0A@@std@@@std@@QBE_NXZ
_TEXT	SEGMENT PARA USE32 PUBLIC 'CODE'
_TEXT	ENDS
;	COMDAT ?insert@?$_Tree@V?$_Tmap_traits@KPAVCGuildHouseBase@@U?$less@K@std@@V?$allocator@U?$pair@$$CBKPAVCGuildHouseBase@@@std@@@3@$0A@@std@@@std@@QAE?AU?$pair@Viterator@?$_Tree@V?$_Tmap_traits@KPAVCGuildHouseBase@@U?$less@K@std@@V?$allocator@U?$pair@$$CBKPAVCGuildHouseBase@@@std@@@3@$0A@@std@@@std@@_N@2@ABU?$pair@$$CBKPAVCGuildHouseBase@@@2@@Z
_TEXT	SEGMENT PARA USE32 PUBLIC 'CODE'
_TEXT	ENDS
;	COMDAT ?size@?$_Tree@V?$_Tmap_traits@KPAVCCampusMember@@U?$less@K@std@@V?$allocator@U?$pair@$$CBKPAVCCampusMember@@@std@@@3@$0A@@std@@@std@@QBEIXZ
_TEXT	SEGMENT PARA USE32 PUBLIC 'CODE'
_TEXT	ENDS
;	COMDAT ?empty@?$_Tree@V?$_Tmap_traits@KPAVCCampus@@U?$less@K@std@@V?$allocator@U?$pair@$$CBKPAVCCampus@@@std@@@3@$0A@@std@@@std@@QBE_NXZ
_TEXT	SEGMENT PARA USE32 PUBLIC 'CODE'
_TEXT	ENDS
;	COMDAT ??0?$map@KPAVCClientSock@@U?$less@K@std@@V?$allocator@U?$pair@$$CBKPAVCClientSock@@@std@@@3@@std@@QAE@XZ
_TEXT	SEGMENT PARA USE32 PUBLIC 'CODE'
_TEXT	ENDS
;	COMDAT ??1?$_Tree@V?$_Tmap_traits@KPAVCClientSock@@U?$less@K@std@@V?$allocator@U?$pair@$$CBKPAVCClientSock@@@std@@@3@$0A@@std@@@std@@QAE@XZ
_TEXT	SEGMENT PARA USE32 PUBLIC 'CODE'
_TEXT	ENDS
;	COMDAT ?end@?$_Tree@V?$_Tmap_traits@KPAVCClientSock@@U?$less@K@std@@V?$allocator@U?$pair@$$CBKPAVCClientSock@@@std@@@3@$0A@@std@@@std@@QAE?AViterator@12@XZ
_TEXT	SEGMENT PARA USE32 PUBLIC 'CODE'
_TEXT	ENDS
;	COMDAT ?find@?$_Tree@V?$_Tmap_traits@KPAVCClientSock@@U?$less@K@std@@V?$allocator@U?$pair@$$CBKPAVCClientSock@@@std@@@3@$0A@@std@@@std@@QAE?AViterator@12@ABK@Z
_TEXT	SEGMENT PARA USE32 PUBLIC 'CODE'
_TEXT	ENDS
;	COMDAT ??Citerator@?$_Tree@V?$_Tmap_traits@KPAVCClientSock@@U?$less@K@std@@V?$allocator@U?$pair@$$CBKPAVCClientSock@@@std@@@3@$0A@@std@@@std@@QBEPAU?$pair@$$CBKPAVCClientSock@@@2@XZ
_TEXT	SEGMENT PARA USE32 PUBLIC 'CODE'
_TEXT	ENDS
;	COMDAT ??9const_iterator@?$_Tree@V?$_Tmap_traits@KPAVCClientSock@@U?$less@K@std@@V?$allocator@U?$pair@$$CBKPAVCClientSock@@@std@@@3@$0A@@std@@@std@@QBE_NABV012@@Z
_TEXT	SEGMENT PARA USE32 PUBLIC 'CODE'
_TEXT	ENDS
;	COMDAT ??0?$map@KPAVCClientSockE@@U?$less@K@std@@V?$allocator@U?$pair@$$CBKPAVCClientSockE@@@std@@@3@@std@@QAE@XZ
_TEXT	SEGMENT PARA USE32 PUBLIC 'CODE'
_TEXT	ENDS
;	COMDAT ??1?$_Tree@V?$_Tmap_traits@KPAVCClientSockE@@U?$less@K@std@@V?$allocator@U?$pair@$$CBKPAVCClientSockE@@@std@@@3@$0A@@std@@@std@@QAE@XZ
_TEXT	SEGMENT PARA USE32 PUBLIC 'CODE'
_TEXT	ENDS
;	COMDAT ?end@?$_Tree@V?$_Tmap_traits@KPAVCClientSockE@@U?$less@K@std@@V?$allocator@U?$pair@$$CBKPAVCClientSockE@@@std@@@3@$0A@@std@@@std@@QAE?AViterator@12@XZ
_TEXT	SEGMENT PARA USE32 PUBLIC 'CODE'
_TEXT	ENDS
;	COMDAT ?find@?$_Tree@V?$_Tmap_traits@KPAVCClientSockE@@U?$less@K@std@@V?$allocator@U?$pair@$$CBKPAVCClientSockE@@@std@@@3@$0A@@std@@@std@@QAE?AViterator@12@ABK@Z
_TEXT	SEGMENT PARA USE32 PUBLIC 'CODE'
_TEXT	ENDS
;	COMDAT ??Citerator@?$_Tree@V?$_Tmap_traits@KPAVCClientSockE@@U?$less@K@std@@V?$allocator@U?$pair@$$CBKPAVCClientSockE@@@std@@@3@$0A@@std@@@std@@QBEPAU?$pair@$$CBKPAVCClientSockE@@@2@XZ
_TEXT	SEGMENT PARA USE32 PUBLIC 'CODE'
_TEXT	ENDS
;	COMDAT ??9const_iterator@?$_Tree@V?$_Tmap_traits@KPAVCClientSockE@@U?$less@K@std@@V?$allocator@U?$pair@$$CBKPAVCClientSockE@@@std@@@3@$0A@@std@@@std@@QBE_NABV012@@Z
_TEXT	SEGMENT PARA USE32 PUBLIC 'CODE'
_TEXT	ENDS
;	COMDAT ?end@?$_Tree@V?$_Tmap_traits@KP8CDPSrvr@@AEXAAVCAr@@KKPAEK@ZU?$less@K@std@@V?$allocator@U?$pair@$$CBKP8CDPSrvr@@AEXAAVCAr@@KKPAEK@Z@std@@@4@$0A@@std@@@std@@QAE?AViterator@12@XZ
_TEXT	SEGMENT PARA USE32 PUBLIC 'CODE'
_TEXT	ENDS
;	COMDAT ?find@?$_Tree@V?$_Tmap_traits@KP8CDPSrvr@@AEXAAVCAr@@KKPAEK@ZU?$less@K@std@@V?$allocator@U?$pair@$$CBKP8CDPSrvr@@AEXAAVCAr@@KKPAEK@Z@std@@@4@$0A@@std@@@std@@QAE?AViterator@12@ABK@Z
_TEXT	SEGMENT PARA USE32 PUBLIC 'CODE'
_TEXT	ENDS
;	COMDAT ??Citerator@?$_Tree@V?$_Tmap_traits@KP8CDPSrvr@@AEXAAVCAr@@KKPAEK@ZU?$less@K@std@@V?$allocator@U?$pair@$$CBKP8CDPSrvr@@AEXAAVCAr@@KKPAEK@Z@std@@@4@$0A@@std@@@std@@QBEPAU?$pair@$$CBKP8CDPSrvr@@AEXAAVCAr@@KKPAEK@Z@2@XZ
_TEXT	SEGMENT PARA USE32 PUBLIC 'CODE'
_TEXT	ENDS
;	COMDAT ??9const_iterator@?$_Tree@V?$_Tmap_traits@KP8CDPSrvr@@AEXAAVCAr@@KKPAEK@ZU?$less@K@std@@V?$allocator@U?$pair@$$CBKP8CDPSrvr@@AEXAAVCAr@@KKPAEK@Z@std@@@4@$0A@@std@@@std@@QBE_NABV012@@Z
_TEXT	SEGMENT PARA USE32 PUBLIC 'CODE'
_TEXT	ENDS
;	COMDAT ?end@?$_Tree@V?$_Tmap_traits@KP8CDPCoreClient@@AEXAAVCAr@@KKK@ZU?$less@K@std@@V?$allocator@U?$pair@$$CBKP8CDPCoreClient@@AEXAAVCAr@@KKK@Z@std@@@4@$0A@@std@@@std@@QAE?AViterator@12@XZ
_TEXT	SEGMENT PARA USE32 PUBLIC 'CODE'
_TEXT	ENDS
;	COMDAT ?find@?$_Tree@V?$_Tmap_traits@KP8CDPCoreClient@@AEXAAVCAr@@KKK@ZU?$less@K@std@@V?$allocator@U?$pair@$$CBKP8CDPCoreClient@@AEXAAVCAr@@KKK@Z@std@@@4@$0A@@std@@@std@@QAE?AViterator@12@ABK@Z
_TEXT	SEGMENT PARA USE32 PUBLIC 'CODE'
_TEXT	ENDS
;	COMDAT ??Citerator@?$_Tree@V?$_Tmap_traits@KP8CDPCoreClient@@AEXAAVCAr@@KKK@ZU?$less@K@std@@V?$allocator@U?$pair@$$CBKP8CDPCoreClient@@AEXAAVCAr@@KKK@Z@std@@@4@$0A@@std@@@std@@QBEPAU?$pair@$$CBKP8CDPCoreClient@@AEXAAVCAr@@KKK@Z@2@XZ
_TEXT	SEGMENT PARA USE32 PUBLIC 'CODE'
_TEXT	ENDS
;	COMDAT ??9const_iterator@?$_Tree@V?$_Tmap_traits@KP8CDPCoreClient@@AEXAAVCAr@@KKK@ZU?$less@K@std@@V?$allocator@U?$pair@$$CBKP8CDPCoreClient@@AEXAAVCAr@@KKK@Z@std@@@4@$0A@@std@@@std@@QBE_NABV012@@Z
_TEXT	SEGMENT PARA USE32 PUBLIC 'CODE'
_TEXT	ENDS
;	COMDAT ?compare@?$basic_string@DU?$char_traits@D@std@@V?$allocator@D@2@@std@@QBEHIIPBDI@Z
_TEXT	SEGMENT PARA USE32 PUBLIC 'CODE'
_TEXT	ENDS
;	COMDAT ??0?$allocator@V?$basic_string@DU?$char_traits@D@std@@V?$allocator@D@2@@std@@@std@@QAE@XZ
_TEXT	SEGMENT PARA USE32 PUBLIC 'CODE'
_TEXT	ENDS
;	COMDAT ?insert@?$_Tree@V?$_Tmap_traits@KPAVCCtrl@@U?$less@K@std@@V?$allocator@U?$pair@$$CBKPAVCCtrl@@@std@@@3@$0A@@std@@@std@@QAE?AViterator@12@V312@ABU?$pair@$$CBKPAVCCtrl@@@2@@Z
_TEXT	SEGMENT PARA USE32 PUBLIC 'CODE'
_TEXT	ENDS
;	COMDAT ??0?$pair@$$CBKPAVCCtrl@@@std@@QAE@ABKABQAVCCtrl@@@Z
_TEXT	SEGMENT PARA USE32 PUBLIC 'CODE'
_TEXT	ENDS
;	COMDAT ?begin@?$vector@KV?$allocator@K@std@@@std@@QAE?AViterator@12@XZ
_TEXT	SEGMENT PARA USE32 PUBLIC 'CODE'
_TEXT	ENDS
;	COMDAT ?_Tidy@?$deque@PAUtagACTMSG@@V?$allocator@PAUtagACTMSG@@@std@@@std@@IAEXXZ
_TEXT	SEGMENT PARA USE32 PUBLIC 'CODE'
_TEXT	ENDS
;	COMDAT ??0?$_Deque_val@PAUtagACTMSG@@V?$allocator@PAUtagACTMSG@@@std@@@std@@IAE@V?$allocator@PAUtagACTMSG@@@1@@Z
_TEXT	SEGMENT PARA USE32 PUBLIC 'CODE'
_TEXT	ENDS
;	COMDAT ??0?$allocator@PAUtagACTMSG@@@std@@QAE@XZ
_TEXT	SEGMENT PARA USE32 PUBLIC 'CODE'
_TEXT	ENDS
;	COMDAT ?_Tidy@?$deque@PAUtagMAGICATKMSG@@V?$allocator@PAUtagMAGICATKMSG@@@std@@@std@@IAEXXZ
_TEXT	SEGMENT PARA USE32 PUBLIC 'CODE'
_TEXT	ENDS
;	COMDAT ??0?$_Deque_val@PAUtagMAGICATKMSG@@V?$allocator@PAUtagMAGICATKMSG@@@std@@@std@@IAE@V?$allocator@PAUtagMAGICATKMSG@@@1@@Z
_TEXT	SEGMENT PARA USE32 PUBLIC 'CODE'
_TEXT	ENDS
;	COMDAT ??0?$allocator@PAUtagMAGICATKMSG@@@std@@QAE@XZ
_TEXT	SEGMENT PARA USE32 PUBLIC 'CODE'
_TEXT	ENDS
;	COMDAT ?_Buy@?$vector@UENVIR_INFO@@V?$allocator@UENVIR_INFO@@@std@@@std@@IAE_NI@Z
_TEXT	SEGMENT PARA USE32 PUBLIC 'CODE'
_TEXT	ENDS
;	COMDAT ?_Tidy@?$vector@UENVIR_INFO@@V?$allocator@UENVIR_INFO@@@std@@@std@@IAEXXZ
_TEXT	SEGMENT PARA USE32 PUBLIC 'CODE'
_TEXT	ENDS
;	COMDAT ??0?$_Vector_val@UENVIR_INFO@@V?$allocator@UENVIR_INFO@@@std@@@std@@IAE@V?$allocator@UENVIR_INFO@@@1@@Z
_TEXT	SEGMENT PARA USE32 PUBLIC 'CODE'
_TEXT	ENDS
;	COMDAT ??0?$allocator@UENVIR_INFO@@@std@@QAE@XZ
_TEXT	SEGMENT PARA USE32 PUBLIC 'CODE'
_TEXT	ENDS
;	COMDAT ?begin@?$vector@PAVCObj@@V?$allocator@PAVCObj@@@std@@@std@@QAE?AViterator@12@XZ
_TEXT	SEGMENT PARA USE32 PUBLIC 'CODE'
_TEXT	ENDS
;	COMDAT ?_Buy@?$vector@PAVCObj@@V?$allocator@PAVCObj@@@std@@@std@@IAE_NI@Z
_TEXT	SEGMENT PARA USE32 PUBLIC 'CODE'
_TEXT	ENDS
;	COMDAT ?_Tidy@?$vector@PAVCObj@@V?$allocator@PAVCObj@@@std@@@std@@IAEXXZ
_TEXT	SEGMENT PARA USE32 PUBLIC 'CODE'
_TEXT	ENDS
;	COMDAT ??0?$_Vector_val@PAVCObj@@V?$allocator@PAVCObj@@@std@@@std@@IAE@V?$allocator@PAVCObj@@@1@@Z
_TEXT	SEGMENT PARA USE32 PUBLIC 'CODE'
_TEXT	ENDS
;	COMDAT ??0?$allocator@PAVCObj@@@std@@QAE@XZ
_TEXT	SEGMENT PARA USE32 PUBLIC 'CODE'
_TEXT	ENDS
;	COMDAT ?begin@?$vector@VCGuildCombat1to1@@V?$allocator@VCGuildCombat1to1@@@std@@@std@@QAE?AViterator@12@XZ
_TEXT	SEGMENT PARA USE32 PUBLIC 'CODE'
_TEXT	ENDS
;	COMDAT ?begin@?$vector@U__GC1TO1TENDER@CGuildCombat1to1Mng@@V?$allocator@U__GC1TO1TENDER@CGuildCombat1to1Mng@@@std@@@std@@QAE?AViterator@12@XZ
_TEXT	SEGMENT PARA USE32 PUBLIC 'CODE'
_TEXT	ENDS
;	COMDAT ??0iterator@?$deque@PAUtagACTMSG@@V?$allocator@PAUtagACTMSG@@@std@@@std@@QAE@IPBV12@@Z
_TEXT	SEGMENT PARA USE32 PUBLIC 'CODE'
_TEXT	ENDS
;	COMDAT ??Dconst_iterator@?$deque@PAUtagACTMSG@@V?$allocator@PAUtagACTMSG@@@std@@@std@@QBEABQAUtagACTMSG@@XZ
_TEXT	SEGMENT PARA USE32 PUBLIC 'CODE'
_TEXT	ENDS
;	COMDAT ??8const_iterator@?$deque@PAUtagACTMSG@@V?$allocator@PAUtagACTMSG@@@std@@@std@@QBE_NABV012@@Z
_TEXT	SEGMENT PARA USE32 PUBLIC 'CODE'
_TEXT	ENDS
;	COMDAT ??0iterator@?$deque@PAUtagMAGICATKMSG@@V?$allocator@PAUtagMAGICATKMSG@@@std@@@std@@QAE@IPBV12@@Z
_TEXT	SEGMENT PARA USE32 PUBLIC 'CODE'
_TEXT	ENDS
;	COMDAT ??Dconst_iterator@?$deque@PAUtagMAGICATKMSG@@V?$allocator@PAUtagMAGICATKMSG@@@std@@@std@@QBEABQAUtagMAGICATKMSG@@XZ
_TEXT	SEGMENT PARA USE32 PUBLIC 'CODE'
_TEXT	ENDS
;	COMDAT ??8const_iterator@?$deque@PAUtagMAGICATKMSG@@V?$allocator@PAUtagMAGICATKMSG@@@std@@@std@@QBE_NABV012@@Z
_TEXT	SEGMENT PARA USE32 PUBLIC 'CODE'
_TEXT	ENDS
;	COMDAT ?erase@?$_Tree@V?$_Tmap_traits@KKU?$less@K@std@@V?$allocator@U?$pair@$$CBKK@std@@@2@$0A@@std@@@std@@QAE?AViterator@12@V312@0@Z
_TEXT	SEGMENT PARA USE32 PUBLIC 'CODE'
_TEXT	ENDS
;	COMDAT ?equal_range@?$_Tree@V?$_Tmap_traits@KKU?$less@K@std@@V?$allocator@U?$pair@$$CBKK@std@@@2@$0A@@std@@@std@@QAE?AU?$pair@Viterator@?$_Tree@V?$_Tmap_traits@KKU?$less@K@std@@V?$allocator@U?$pair@$$CBKK@std@@@2@$0A@@std@@@std@@V123@@2@ABK@Z
_TEXT	SEGMENT PARA USE32 PUBLIC 'CODE'
_TEXT	ENDS
;	COMDAT ?erase@?$_Tree@V?$_Tmap_traits@KU_Friend@@U?$less@K@std@@V?$allocator@U?$pair@$$CBKU_Friend@@@std@@@3@$0A@@std@@@std@@QAE?AViterator@12@V312@0@Z
_TEXT	SEGMENT PARA USE32 PUBLIC 'CODE'
_TEXT	ENDS
;	COMDAT ?equal_range@?$_Tree@V?$_Tmap_traits@KU_Friend@@U?$less@K@std@@V?$allocator@U?$pair@$$CBKU_Friend@@@std@@@3@$0A@@std@@@std@@QAE?AU?$pair@Viterator@?$_Tree@V?$_Tmap_traits@KU_Friend@@U?$less@K@std@@V?$allocator@U?$pair@$$CBKU_Friend@@@std@@@3@$0A@@std@@@std@@V123@@2@ABK@Z
_TEXT	SEGMENT PARA USE32 PUBLIC 'CODE'
_TEXT	ENDS
;	COMDAT ?begin@?$vector@PAU__JOINPLAYER@CGuildCombat@@V?$allocator@PAU__JOINPLAYER@CGuildCombat@@@std@@@std@@QAE?AViterator@12@XZ
_TEXT	SEGMENT PARA USE32 PUBLIC 'CODE'
_TEXT	ENDS
;	COMDAT ?_Tidy@?$vector@PAU__JOINPLAYER@CGuildCombat@@V?$allocator@PAU__JOINPLAYER@CGuildCombat@@@std@@@std@@IAEXXZ
_TEXT	SEGMENT PARA USE32 PUBLIC 'CODE'
_TEXT	ENDS
;	COMDAT ?_Nextnode@?$list@PAU__JOINPLAYER@CGuildCombat@@V?$allocator@PAU__JOINPLAYER@CGuildCombat@@@std@@@std@@KAAAPAU_Node@?$_List_nod@PAU__JOINPLAYER@CGuildCombat@@V?$allocator@PAU__JOINPLAYER@CGuildCombat@@@std@@@2@PAU342@@Z
_TEXT	SEGMENT PARA USE32 PUBLIC 'CODE'
_TEXT	ENDS
;	COMDAT ?_Prevnode@?$list@PAU__JOINPLAYER@CGuildCombat@@V?$allocator@PAU__JOINPLAYER@CGuildCombat@@@std@@@std@@KAAAPAU_Node@?$_List_nod@PAU__JOINPLAYER@CGuildCombat@@V?$allocator@PAU__JOINPLAYER@CGuildCombat@@@std@@@2@PAU342@@Z
_TEXT	SEGMENT PARA USE32 PUBLIC 'CODE'
_TEXT	ENDS
;	COMDAT ?deallocate@?$allocator@U_Node@?$_List_nod@PAU__JOINPLAYER@CGuildCombat@@V?$allocator@PAU__JOINPLAYER@CGuildCombat@@@std@@@std@@@std@@QAEXPAU_Node@?$_List_nod@PAU__JOINPLAYER@CGuildCombat@@V?$allocator@PAU__JOINPLAYER@CGuildCombat@@@std@@@2@I@Z
_TEXT	SEGMENT PARA USE32 PUBLIC 'CODE'
_TEXT	ENDS
;	COMDAT ?destroy@?$allocator@U_Node@?$_List_nod@PAU__JOINPLAYER@CGuildCombat@@V?$allocator@PAU__JOINPLAYER@CGuildCombat@@@std@@@std@@@std@@QAEXPAU_Node@?$_List_nod@PAU__JOINPLAYER@CGuildCombat@@V?$allocator@PAU__JOINPLAYER@CGuildCombat@@@std@@@2@@Z
_TEXT	SEGMENT PARA USE32 PUBLIC 'CODE'
_TEXT	ENDS
;	COMDAT ?_Buy@?$vector@U__SECRETROOM_MONSTER@@V?$allocator@U__SECRETROOM_MONSTER@@@std@@@std@@IAE_NI@Z
_TEXT	SEGMENT PARA USE32 PUBLIC 'CODE'
_TEXT	ENDS
;	COMDAT ?_Tidy@?$vector@U__SECRETROOM_MONSTER@@V?$allocator@U__SECRETROOM_MONSTER@@@std@@@std@@IAEXXZ
_TEXT	SEGMENT PARA USE32 PUBLIC 'CODE'
_TEXT	ENDS
;	COMDAT ??0?$_Vector_val@U__SECRETROOM_MONSTER@@V?$allocator@U__SECRETROOM_MONSTER@@@std@@@std@@IAE@V?$allocator@U__SECRETROOM_MONSTER@@@1@@Z
_TEXT	SEGMENT PARA USE32 PUBLIC 'CODE'
_TEXT	ENDS
;	COMDAT ??0?$allocator@U__SECRETROOM_MONSTER@@@std@@QAE@XZ
_TEXT	SEGMENT PARA USE32 PUBLIC 'CODE'
_TEXT	ENDS
;	COMDAT ?capacity@?$vector@V?$basic_string@DU?$char_traits@D@std@@V?$allocator@D@2@@std@@V?$allocator@V?$basic_string@DU?$char_traits@D@std@@V?$allocator@D@2@@std@@@2@@std@@QBEIXZ
_TEXT	SEGMENT PARA USE32 PUBLIC 'CODE'
_TEXT	ENDS
;	COMDAT ?begin@?$vector@V?$basic_string@DU?$char_traits@D@std@@V?$allocator@D@2@@std@@V?$allocator@V?$basic_string@DU?$char_traits@D@std@@V?$allocator@D@2@@std@@@2@@std@@QAE?AViterator@12@XZ
_TEXT	SEGMENT PARA USE32 PUBLIC 'CODE'
_TEXT	ENDS
;	COMDAT ?end@?$vector@V?$basic_string@DU?$char_traits@D@std@@V?$allocator@D@2@@std@@V?$allocator@V?$basic_string@DU?$char_traits@D@std@@V?$allocator@D@2@@std@@@2@@std@@QAE?AViterator@12@XZ
_TEXT	SEGMENT PARA USE32 PUBLIC 'CODE'
_TEXT	ENDS
;	COMDAT ?insert@?$vector@V?$basic_string@DU?$char_traits@D@std@@V?$allocator@D@2@@std@@V?$allocator@V?$basic_string@DU?$char_traits@D@std@@V?$allocator@D@2@@std@@@2@@std@@QAE?AViterator@12@V312@ABV?$basic_string@DU?$char_traits@D@std@@V?$allocator@D@2@@2@@Z
_TEXT	SEGMENT PARA USE32 PUBLIC 'CODE'
_TEXT	ENDS
;	COMDAT ?_Buy@?$vector@V?$basic_string@DU?$char_traits@D@std@@V?$allocator@D@2@@std@@V?$allocator@V?$basic_string@DU?$char_traits@D@std@@V?$allocator@D@2@@std@@@2@@std@@IAE_NI@Z
_TEXT	SEGMENT PARA USE32 PUBLIC 'CODE'
_TEXT	ENDS
;	COMDAT ?_Tidy@?$vector@V?$basic_string@DU?$char_traits@D@std@@V?$allocator@D@2@@std@@V?$allocator@V?$basic_string@DU?$char_traits@D@std@@V?$allocator@D@2@@std@@@2@@std@@IAEXXZ
_TEXT	SEGMENT PARA USE32 PUBLIC 'CODE'
_TEXT	ENDS
;	COMDAT ?_Ufill@?$vector@V?$basic_string@DU?$char_traits@D@std@@V?$allocator@D@2@@std@@V?$allocator@V?$basic_string@DU?$char_traits@D@std@@V?$allocator@D@2@@std@@@2@@std@@IAEPAV?$basic_string@DU?$char_traits@D@std@@V?$allocator@D@2@@2@PAV32@IABV32@@Z
_TEXT	SEGMENT PARA USE32 PUBLIC 'CODE'
_TEXT	ENDS
;	COMDAT ??0?$_Vector_val@V?$basic_string@DU?$char_traits@D@std@@V?$allocator@D@2@@std@@V?$allocator@V?$basic_string@DU?$char_traits@D@std@@V?$allocator@D@2@@std@@@2@@std@@IAE@V?$allocator@V?$basic_string@DU?$char_traits@D@std@@V?$allocator@D@2@@std@@@1@@Z
_TEXT	SEGMENT PARA USE32 PUBLIC 'CODE'
_TEXT	ENDS
;	COMDAT ?capacity@?$vector@UMINIGMAME_PRIZE_LIST@CRainbowRaceMng@@V?$allocator@UMINIGMAME_PRIZE_LIST@CRainbowRaceMng@@@std@@@std@@QBEIXZ
_TEXT	SEGMENT PARA USE32 PUBLIC 'CODE'
_TEXT	ENDS
;	COMDAT ?end@?$vector@UMINIGMAME_PRIZE_LIST@CRainbowRaceMng@@V?$allocator@UMINIGMAME_PRIZE_LIST@CRainbowRaceMng@@@std@@@std@@QAE?AViterator@12@XZ
_TEXT	SEGMENT PARA USE32 PUBLIC 'CODE'
_TEXT	ENDS
;	COMDAT ?size@?$vector@UMINIGMAME_PRIZE_LIST@CRainbowRaceMng@@V?$allocator@UMINIGMAME_PRIZE_LIST@CRainbowRaceMng@@@std@@@std@@QBEIXZ
_TEXT	SEGMENT PARA USE32 PUBLIC 'CODE'
_TEXT	ENDS
;	COMDAT ?insert@?$vector@UMINIGMAME_PRIZE_LIST@CRainbowRaceMng@@V?$allocator@UMINIGMAME_PRIZE_LIST@CRainbowRaceMng@@@std@@@std@@QAE?AViterator@12@V312@ABUMINIGMAME_PRIZE_LIST@CRainbowRaceMng@@@Z
_TEXT	SEGMENT PARA USE32 PUBLIC 'CODE'
_TEXT	ENDS
;	COMDAT ?_Ufill@?$vector@UMINIGMAME_PRIZE_LIST@CRainbowRaceMng@@V?$allocator@UMINIGMAME_PRIZE_LIST@CRainbowRaceMng@@@std@@@std@@IAEPAUMINIGMAME_PRIZE_LIST@CRainbowRaceMng@@PAU34@IABU34@@Z
_TEXT	SEGMENT PARA USE32 PUBLIC 'CODE'
_TEXT	ENDS
;	COMDAT ?begin@?$vector@PAVCMiniGameBase@@V?$allocator@PAVCMiniGameBase@@@std@@@std@@QAE?AViterator@12@XZ
_TEXT	SEGMENT PARA USE32 PUBLIC 'CODE'
_TEXT	ENDS
;	COMDAT ?begin@?$vector@UGuildHouse_Furniture_Info@CGuildHouseBase@@V?$allocator@UGuildHouse_Furniture_Info@CGuildHouseBase@@@std@@@std@@QAE?AViterator@12@XZ
_TEXT	SEGMENT PARA USE32 PUBLIC 'CODE'
_TEXT	ENDS
;	COMDAT ?_Isnil@?$_Tree@V?$_Tmap_traits@KPAVCGuildHouseBase@@U?$less@K@std@@V?$allocator@U?$pair@$$CBKPAVCGuildHouseBase@@@std@@@3@$0A@@std@@@std@@KAAADPAU_Node@?$_Tree_nod@V?$_Tmap_traits@KPAVCGuildHouseBase@@U?$less@K@std@@V?$allocator@U?$pair@$$CBKPAVCGuildHouseBase@@@std@@@3@$0A@@std@@@2@@Z
_TEXT	SEGMENT PARA USE32 PUBLIC 'CODE'
_TEXT	ENDS
;	COMDAT ?_Key@?$_Tree@V?$_Tmap_traits@KPAVCGuildHouseBase@@U?$less@K@std@@V?$allocator@U?$pair@$$CBKPAVCGuildHouseBase@@@std@@@3@$0A@@std@@@std@@KAABKPAU_Node@?$_Tree_nod@V?$_Tmap_traits@KPAVCGuildHouseBase@@U?$less@K@std@@V?$allocator@U?$pair@$$CBKPAVCGuildHouseBase@@@std@@@3@$0A@@std@@@2@@Z
_TEXT	SEGMENT PARA USE32 PUBLIC 'CODE'
_TEXT	ENDS
;	COMDAT ?_Left@?$_Tree@V?$_Tmap_traits@KPAVCGuildHouseBase@@U?$less@K@std@@V?$allocator@U?$pair@$$CBKPAVCGuildHouseBase@@@std@@@3@$0A@@std@@@std@@KAAAPAU_Node@?$_Tree_nod@V?$_Tmap_traits@KPAVCGuildHouseBase@@U?$less@K@std@@V?$allocator@U?$pair@$$CBKPAVCGuildHouseBase@@@std@@@3@$0A@@std@@@2@PAU342@@Z
_TEXT	SEGMENT PARA USE32 PUBLIC 'CODE'
_TEXT	ENDS
;	COMDAT ?_Right@?$_Tree@V?$_Tmap_traits@KPAVCGuildHouseBase@@U?$less@K@std@@V?$allocator@U?$pair@$$CBKPAVCGuildHouseBase@@@std@@@3@$0A@@std@@@std@@KAAAPAU_Node@?$_Tree_nod@V?$_Tmap_traits@KPAVCGuildHouseBase@@U?$less@K@std@@V?$allocator@U?$pair@$$CBKPAVCGuildHouseBase@@@std@@@3@$0A@@std@@@2@PAU342@@Z
_TEXT	SEGMENT PARA USE32 PUBLIC 'CODE'
_TEXT	ENDS
;	COMDAT ?begin@?$_Tree@V?$_Tmap_traits@KPAVCGuildHouseBase@@U?$less@K@std@@V?$allocator@U?$pair@$$CBKPAVCGuildHouseBase@@@std@@@3@$0A@@std@@@std@@QAE?AViterator@12@XZ
_TEXT	SEGMENT PARA USE32 PUBLIC 'CODE'
_TEXT	ENDS
;	COMDAT ?size@?$_Tree@V?$_Tmap_traits@KPAVCGuildHouseBase@@U?$less@K@std@@V?$allocator@U?$pair@$$CBKPAVCGuildHouseBase@@@std@@@3@$0A@@std@@@std@@QBEIXZ
_TEXT	SEGMENT PARA USE32 PUBLIC 'CODE'
_TEXT	ENDS
;	COMDAT ?_Insert@?$_Tree@V?$_Tmap_traits@KPAVCGuildHouseBase@@U?$less@K@std@@V?$allocator@U?$pair@$$CBKPAVCGuildHouseBase@@@std@@@3@$0A@@std@@@std@@IAE?AViterator@12@_NPAU_Node@?$_Tree_nod@V?$_Tmap_traits@KPAVCGuildHouseBase@@U?$less@K@std@@V?$allocator@U?$pair@$$CBKPAVCGuildHouseBase@@@std@@@3@$0A@@std@@@2@ABU?$pair@$$CBKPAVCGuildHouseBase@@@2@@Z
_TEXT	SEGMENT PARA USE32 PUBLIC 'CODE'
_TEXT	ENDS
;	COMDAT ?_Root@?$_Tree@V?$_Tmap_traits@KPAVCGuildHouseBase@@U?$less@K@std@@V?$allocator@U?$pair@$$CBKPAVCGuildHouseBase@@@std@@@3@$0A@@std@@@std@@IAEAAPAU_Node@?$_Tree_nod@V?$_Tmap_traits@KPAVCGuildHouseBase@@U?$less@K@std@@V?$allocator@U?$pair@$$CBKPAVCGuildHouseBase@@@std@@@3@$0A@@std@@@2@XZ
_TEXT	SEGMENT PARA USE32 PUBLIC 'CODE'
_TEXT	ENDS
;	COMDAT ?_Kfn@?$_Tmap_traits@KPAVCGuildHouseBase@@U?$less@K@std@@V?$allocator@U?$pair@$$CBKPAVCGuildHouseBase@@@std@@@3@$0A@@std@@SAABKABU?$pair@$$CBKPAVCGuildHouseBase@@@2@@Z
_TEXT	SEGMENT PARA USE32 PUBLIC 'CODE'
_TEXT	ENDS
;	COMDAT ??0?$pair@Viterator@?$_Tree@V?$_Tmap_traits@KPAVCGuildHouseBase@@U?$less@K@std@@V?$allocator@U?$pair@$$CBKPAVCGuildHouseBase@@@std@@@3@$0A@@std@@@std@@_N@std@@QAE@ABViterator@?$_Tree@V?$_Tmap_traits@KPAVCGuildHouseBase@@U?$less@K@std@@V?$allocator@U?$pair@$$CBKPAVCGuildHouseBase@@@std@@@3@$0A@@std@@@1@AB_N@Z
_TEXT	SEGMENT PARA USE32 PUBLIC 'CODE'
_TEXT	ENDS
;	COMDAT ??0iterator@?$_Tree@V?$_Tmap_traits@KPAVCGuildHouseBase@@U?$less@K@std@@V?$allocator@U?$pair@$$CBKPAVCGuildHouseBase@@@std@@@3@$0A@@std@@@std@@QAE@PAU_Node@?$_Tree_nod@V?$_Tmap_traits@KPAVCGuildHouseBase@@U?$less@K@std@@V?$allocator@U?$pair@$$CBKPAVCGuildHouseBase@@@std@@@3@$0A@@std@@@2@@Z
_TEXT	SEGMENT PARA USE32 PUBLIC 'CODE'
_TEXT	ENDS
;	COMDAT ??Fiterator@?$_Tree@V?$_Tmap_traits@KPAVCGuildHouseBase@@U?$less@K@std@@V?$allocator@U?$pair@$$CBKPAVCGuildHouseBase@@@std@@@3@$0A@@std@@@std@@QAEAAV012@XZ
_TEXT	SEGMENT PARA USE32 PUBLIC 'CODE'
_TEXT	ENDS
;	COMDAT ??8const_iterator@?$_Tree@V?$_Tmap_traits@KPAVCGuildHouseBase@@U?$less@K@std@@V?$allocator@U?$pair@$$CBKPAVCGuildHouseBase@@@std@@@3@$0A@@std@@@std@@QBE_NABV012@@Z
_TEXT	SEGMENT PARA USE32 PUBLIC 'CODE'
_TEXT	ENDS
;	COMDAT ?_Mynode@const_iterator@?$_Tree@V?$_Tmap_traits@KPAVCGuildHouseBase@@U?$less@K@std@@V?$allocator@U?$pair@$$CBKPAVCGuildHouseBase@@@std@@@3@$0A@@std@@@std@@QBEPAU_Node@?$_Tree_nod@V?$_Tmap_traits@KPAVCGuildHouseBase@@U?$less@K@std@@V?$allocator@U?$pair@$$CBKPAVCGuildHouseBase@@@std@@@3@$0A@@std@@@3@XZ
_TEXT	SEGMENT PARA USE32 PUBLIC 'CODE'
_TEXT	ENDS
;	COMDAT ?size@?$_Tree@V?$_Tmap_traits@KPAVCCampus@@U?$less@K@std@@V?$allocator@U?$pair@$$CBKPAVCCampus@@@std@@@3@$0A@@std@@@std@@QBEIXZ
_TEXT	SEGMENT PARA USE32 PUBLIC 'CODE'
_TEXT	ENDS
;	COMDAT ?_Key@?$_Tree@V?$_Tmap_traits@KPAVCClientSock@@U?$less@K@std@@V?$allocator@U?$pair@$$CBKPAVCClientSock@@@std@@@3@$0A@@std@@@std@@KAABKPAU_Node@?$_Tree_nod@V?$_Tmap_traits@KPAVCClientSock@@U?$less@K@std@@V?$allocator@U?$pair@$$CBKPAVCClientSock@@@std@@@3@$0A@@std@@@2@@Z
_TEXT	SEGMENT PARA USE32 PUBLIC 'CODE'
_TEXT	ENDS
;	COMDAT ??0?$_Tree@V?$_Tmap_traits@KPAVCClientSock@@U?$less@K@std@@V?$allocator@U?$pair@$$CBKPAVCClientSock@@@std@@@3@$0A@@std@@@std@@QAE@ABU?$less@K@1@ABV?$allocator@U?$pair@$$CBKPAVCClientSock@@@std@@@1@@Z
_TEXT	SEGMENT PARA USE32 PUBLIC 'CODE'
_TEXT	ENDS
;	COMDAT ?lower_bound@?$_Tree@V?$_Tmap_traits@KPAVCClientSock@@U?$less@K@std@@V?$allocator@U?$pair@$$CBKPAVCClientSock@@@std@@@3@$0A@@std@@@std@@QAE?AViterator@12@ABK@Z
_TEXT	SEGMENT PARA USE32 PUBLIC 'CODE'
_TEXT	ENDS
;	COMDAT ?_Tidy@?$_Tree@V?$_Tmap_traits@KPAVCClientSock@@U?$less@K@std@@V?$allocator@U?$pair@$$CBKPAVCClientSock@@@std@@@3@$0A@@std@@@std@@IAEXXZ
_TEXT	SEGMENT PARA USE32 PUBLIC 'CODE'
_TEXT	ENDS
;	COMDAT ??0?$allocator@U?$pair@$$CBKPAVCClientSock@@@std@@@std@@QAE@XZ
_TEXT	SEGMENT PARA USE32 PUBLIC 'CODE'
_TEXT	ENDS
;	COMDAT ??0iterator@?$_Tree@V?$_Tmap_traits@KPAVCClientSock@@U?$less@K@std@@V?$allocator@U?$pair@$$CBKPAVCClientSock@@@std@@@3@$0A@@std@@@std@@QAE@PAU_Node@?$_Tree_nod@V?$_Tmap_traits@KPAVCClientSock@@U?$less@K@std@@V?$allocator@U?$pair@$$CBKPAVCClientSock@@@std@@@3@$0A@@std@@@2@@Z
_TEXT	SEGMENT PARA USE32 PUBLIC 'CODE'
_TEXT	ENDS
;	COMDAT ??Diterator@?$_Tree@V?$_Tmap_traits@KPAVCClientSock@@U?$less@K@std@@V?$allocator@U?$pair@$$CBKPAVCClientSock@@@std@@@3@$0A@@std@@@std@@QBEAAU?$pair@$$CBKPAVCClientSock@@@2@XZ
_TEXT	SEGMENT PARA USE32 PUBLIC 'CODE'
_TEXT	ENDS
;	COMDAT ??8const_iterator@?$_Tree@V?$_Tmap_traits@KPAVCClientSock@@U?$less@K@std@@V?$allocator@U?$pair@$$CBKPAVCClientSock@@@std@@@3@$0A@@std@@@std@@QBE_NABV012@@Z
_TEXT	SEGMENT PARA USE32 PUBLIC 'CODE'
_TEXT	ENDS
;	COMDAT ?_Mynode@const_iterator@?$_Tree@V?$_Tmap_traits@KPAVCClientSock@@U?$less@K@std@@V?$allocator@U?$pair@$$CBKPAVCClientSock@@@std@@@3@$0A@@std@@@std@@QBEPAU_Node@?$_Tree_nod@V?$_Tmap_traits@KPAVCClientSock@@U?$less@K@std@@V?$allocator@U?$pair@$$CBKPAVCClientSock@@@std@@@3@$0A@@std@@@3@XZ
_TEXT	SEGMENT PARA USE32 PUBLIC 'CODE'
_TEXT	ENDS
;	COMDAT ?_Key@?$_Tree@V?$_Tmap_traits@KPAVCClientSockE@@U?$less@K@std@@V?$allocator@U?$pair@$$CBKPAVCClientSockE@@@std@@@3@$0A@@std@@@std@@KAABKPAU_Node@?$_Tree_nod@V?$_Tmap_traits@KPAVCClientSockE@@U?$less@K@std@@V?$allocator@U?$pair@$$CBKPAVCClientSockE@@@std@@@3@$0A@@std@@@2@@Z
_TEXT	SEGMENT PARA USE32 PUBLIC 'CODE'
_TEXT	ENDS
;	COMDAT ??0?$_Tree@V?$_Tmap_traits@KPAVCClientSockE@@U?$less@K@std@@V?$allocator@U?$pair@$$CBKPAVCClientSockE@@@std@@@3@$0A@@std@@@std@@QAE@ABU?$less@K@1@ABV?$allocator@U?$pair@$$CBKPAVCClientSockE@@@std@@@1@@Z
_TEXT	SEGMENT PARA USE32 PUBLIC 'CODE'
_TEXT	ENDS
;	COMDAT ?lower_bound@?$_Tree@V?$_Tmap_traits@KPAVCClientSockE@@U?$less@K@std@@V?$allocator@U?$pair@$$CBKPAVCClientSockE@@@std@@@3@$0A@@std@@@std@@QAE?AViterator@12@ABK@Z
_TEXT	SEGMENT PARA USE32 PUBLIC 'CODE'
_TEXT	ENDS
;	COMDAT ?_Tidy@?$_Tree@V?$_Tmap_traits@KPAVCClientSockE@@U?$less@K@std@@V?$allocator@U?$pair@$$CBKPAVCClientSockE@@@std@@@3@$0A@@std@@@std@@IAEXXZ
_TEXT	SEGMENT PARA USE32 PUBLIC 'CODE'
_TEXT	ENDS
;	COMDAT ??0?$allocator@U?$pair@$$CBKPAVCClientSockE@@@std@@@std@@QAE@XZ
_TEXT	SEGMENT PARA USE32 PUBLIC 'CODE'
_TEXT	ENDS
;	COMDAT ??0iterator@?$_Tree@V?$_Tmap_traits@KPAVCClientSockE@@U?$less@K@std@@V?$allocator@U?$pair@$$CBKPAVCClientSockE@@@std@@@3@$0A@@std@@@std@@QAE@PAU_Node@?$_Tree_nod@V?$_Tmap_traits@KPAVCClientSockE@@U?$less@K@std@@V?$allocator@U?$pair@$$CBKPAVCClientSockE@@@std@@@3@$0A@@std@@@2@@Z
_TEXT	SEGMENT PARA USE32 PUBLIC 'CODE'
_TEXT	ENDS
;	COMDAT ??Diterator@?$_Tree@V?$_Tmap_traits@KPAVCClientSockE@@U?$less@K@std@@V?$allocator@U?$pair@$$CBKPAVCClientSockE@@@std@@@3@$0A@@std@@@std@@QBEAAU?$pair@$$CBKPAVCClientSockE@@@2@XZ
_TEXT	SEGMENT PARA USE32 PUBLIC 'CODE'
_TEXT	ENDS
;	COMDAT ??8const_iterator@?$_Tree@V?$_Tmap_traits@KPAVCClientSockE@@U?$less@K@std@@V?$allocator@U?$pair@$$CBKPAVCClientSockE@@@std@@@3@$0A@@std@@@std@@QBE_NABV012@@Z
_TEXT	SEGMENT PARA USE32 PUBLIC 'CODE'
_TEXT	ENDS
;	COMDAT ?_Mynode@const_iterator@?$_Tree@V?$_Tmap_traits@KPAVCClientSockE@@U?$less@K@std@@V?$allocator@U?$pair@$$CBKPAVCClientSockE@@@std@@@3@$0A@@std@@@std@@QBEPAU_Node@?$_Tree_nod@V?$_Tmap_traits@KPAVCClientSockE@@U?$less@K@std@@V?$allocator@U?$pair@$$CBKPAVCClientSockE@@@std@@@3@$0A@@std@@@3@XZ
_TEXT	SEGMENT PARA USE32 PUBLIC 'CODE'
_TEXT	ENDS
;	COMDAT ?_Key@?$_Tree@V?$_Tmap_traits@KP8CDPSrvr@@AEXAAVCAr@@KKPAEK@ZU?$less@K@std@@V?$allocator@U?$pair@$$CBKP8CDPSrvr@@AEXAAVCAr@@KKPAEK@Z@std@@@4@$0A@@std@@@std@@KAABKPAU_Node@?$_Tree_nod@V?$_Tmap_traits@KP8CDPSrvr@@AEXAAVCAr@@KKPAEK@ZU?$less@K@std@@V?$allocator@U?$pair@$$CBKP8CDPSrvr@@AEXAAVCAr@@KKPAEK@Z@std@@@4@$0A@@std@@@2@@Z
_TEXT	SEGMENT PARA USE32 PUBLIC 'CODE'
_TEXT	ENDS
;	COMDAT ?lower_bound@?$_Tree@V?$_Tmap_traits@KP8CDPSrvr@@AEXAAVCAr@@KKPAEK@ZU?$less@K@std@@V?$allocator@U?$pair@$$CBKP8CDPSrvr@@AEXAAVCAr@@KKPAEK@Z@std@@@4@$0A@@std@@@std@@QAE?AViterator@12@ABK@Z
_TEXT	SEGMENT PARA USE32 PUBLIC 'CODE'
_TEXT	ENDS
;	COMDAT ??0iterator@?$_Tree@V?$_Tmap_traits@KP8CDPSrvr@@AEXAAVCAr@@KKPAEK@ZU?$less@K@std@@V?$allocator@U?$pair@$$CBKP8CDPSrvr@@AEXAAVCAr@@KKPAEK@Z@std@@@4@$0A@@std@@@std@@QAE@PAU_Node@?$_Tree_nod@V?$_Tmap_traits@KP8CDPSrvr@@AEXAAVCAr@@KKPAEK@ZU?$less@K@std@@V?$allocator@U?$pair@$$CBKP8CDPSrvr@@AEXAAVCAr@@KKPAEK@Z@std@@@4@$0A@@std@@@2@@Z
_TEXT	SEGMENT PARA USE32 PUBLIC 'CODE'
_TEXT	ENDS
;	COMDAT ??Diterator@?$_Tree@V?$_Tmap_traits@KP8CDPSrvr@@AEXAAVCAr@@KKPAEK@ZU?$less@K@std@@V?$allocator@U?$pair@$$CBKP8CDPSrvr@@AEXAAVCAr@@KKPAEK@Z@std@@@4@$0A@@std@@@std@@QBEAAU?$pair@$$CBKP8CDPSrvr@@AEXAAVCAr@@KKPAEK@Z@2@XZ
_TEXT	SEGMENT PARA USE32 PUBLIC 'CODE'
_TEXT	ENDS
;	COMDAT ??8const_iterator@?$_Tree@V?$_Tmap_traits@KP8CDPSrvr@@AEXAAVCAr@@KKPAEK@ZU?$less@K@std@@V?$allocator@U?$pair@$$CBKP8CDPSrvr@@AEXAAVCAr@@KKPAEK@Z@std@@@4@$0A@@std@@@std@@QBE_NABV012@@Z
_TEXT	SEGMENT PARA USE32 PUBLIC 'CODE'
_TEXT	ENDS
;	COMDAT ?_Mynode@const_iterator@?$_Tree@V?$_Tmap_traits@KP8CDPSrvr@@AEXAAVCAr@@KKPAEK@ZU?$less@K@std@@V?$allocator@U?$pair@$$CBKP8CDPSrvr@@AEXAAVCAr@@KKPAEK@Z@std@@@4@$0A@@std@@@std@@QBEPAU_Node@?$_Tree_nod@V?$_Tmap_traits@KP8CDPSrvr@@AEXAAVCAr@@KKPAEK@ZU?$less@K@std@@V?$allocator@U?$pair@$$CBKP8CDPSrvr@@AEXAAVCAr@@KKPAEK@Z@std@@@4@$0A@@std@@@3@XZ
_TEXT	SEGMENT PARA USE32 PUBLIC 'CODE'
_TEXT	ENDS
;	COMDAT ?_Key@?$_Tree@V?$_Tmap_traits@KP8CDPCoreClient@@AEXAAVCAr@@KKK@ZU?$less@K@std@@V?$allocator@U?$pair@$$CBKP8CDPCoreClient@@AEXAAVCAr@@KKK@Z@std@@@4@$0A@@std@@@std@@KAABKPAU_Node@?$_Tree_nod@V?$_Tmap_traits@KP8CDPCoreClient@@AEXAAVCAr@@KKK@ZU?$less@K@std@@V?$allocator@U?$pair@$$CBKP8CDPCoreClient@@AEXAAVCAr@@KKK@Z@std@@@4@$0A@@std@@@2@@Z
_TEXT	SEGMENT PARA USE32 PUBLIC 'CODE'
_TEXT	ENDS
;	COMDAT ?lower_bound@?$_Tree@V?$_Tmap_traits@KP8CDPCoreClient@@AEXAAVCAr@@KKK@ZU?$less@K@std@@V?$allocator@U?$pair@$$CBKP8CDPCoreClient@@AEXAAVCAr@@KKK@Z@std@@@4@$0A@@std@@@std@@QAE?AViterator@12@ABK@Z
_TEXT	SEGMENT PARA USE32 PUBLIC 'CODE'
_TEXT	ENDS
;	COMDAT ??0iterator@?$_Tree@V?$_Tmap_traits@KP8CDPCoreClient@@AEXAAVCAr@@KKK@ZU?$less@K@std@@V?$allocator@U?$pair@$$CBKP8CDPCoreClient@@AEXAAVCAr@@KKK@Z@std@@@4@$0A@@std@@@std@@QAE@PAU_Node@?$_Tree_nod@V?$_Tmap_traits@KP8CDPCoreClient@@AEXAAVCAr@@KKK@ZU?$less@K@std@@V?$allocator@U?$pair@$$CBKP8CDPCoreClient@@AEXAAVCAr@@KKK@Z@std@@@4@$0A@@std@@@2@@Z
_TEXT	SEGMENT PARA USE32 PUBLIC 'CODE'
_TEXT	ENDS
;	COMDAT ??Diterator@?$_Tree@V?$_Tmap_traits@KP8CDPCoreClient@@AEXAAVCAr@@KKK@ZU?$less@K@std@@V?$allocator@U?$pair@$$CBKP8CDPCoreClient@@AEXAAVCAr@@KKK@Z@std@@@4@$0A@@std@@@std@@QBEAAU?$pair@$$CBKP8CDPCoreClient@@AEXAAVCAr@@KKK@Z@2@XZ
_TEXT	SEGMENT PARA USE32 PUBLIC 'CODE'
_TEXT	ENDS
;	COMDAT ??8const_iterator@?$_Tree@V?$_Tmap_traits@KP8CDPCoreClient@@AEXAAVCAr@@KKK@ZU?$less@K@std@@V?$allocator@U?$pair@$$CBKP8CDPCoreClient@@AEXAAVCAr@@KKK@Z@std@@@4@$0A@@std@@@std@@QBE_NABV012@@Z
_TEXT	SEGMENT PARA USE32 PUBLIC 'CODE'
_TEXT	ENDS
;	COMDAT ?_Mynode@const_iterator@?$_Tree@V?$_Tmap_traits@KP8CDPCoreClient@@AEXAAVCAr@@KKK@ZU?$less@K@std@@V?$allocator@U?$pair@$$CBKP8CDPCoreClient@@AEXAAVCAr@@KKK@Z@std@@@4@$0A@@std@@@std@@QBEPAU_Node@?$_Tree_nod@V?$_Tmap_traits@KP8CDPCoreClient@@AEXAAVCAr@@KKK@ZU?$less@K@std@@V?$allocator@U?$pair@$$CBKP8CDPCoreClient@@AEXAAVCAr@@KKK@Z@std@@@4@$0A@@std@@@3@XZ
_TEXT	SEGMENT PARA USE32 PUBLIC 'CODE'
_TEXT	ENDS
;	COMDAT ??Diterator@?$vector@KV?$allocator@K@std@@@std@@QBEAAKXZ
_TEXT	SEGMENT PARA USE32 PUBLIC 'CODE'
_TEXT	ENDS
;	COMDAT ??Hiterator@?$vector@KV?$allocator@K@std@@@std@@QBE?AV012@H@Z
_TEXT	SEGMENT PARA USE32 PUBLIC 'CODE'
_TEXT	ENDS
;	COMDAT ??Diterator@?$vector@PAVCObj@@V?$allocator@PAVCObj@@@std@@@std@@QBEAAPAVCObj@@XZ
_TEXT	SEGMENT PARA USE32 PUBLIC 'CODE'
_TEXT	ENDS
;	COMDAT ??Hiterator@?$vector@PAVCObj@@V?$allocator@PAVCObj@@@std@@@std@@QBE?AV012@H@Z
_TEXT	SEGMENT PARA USE32 PUBLIC 'CODE'
_TEXT	ENDS
;	COMDAT ??Diterator@?$vector@VCGuildCombat1to1@@V?$allocator@VCGuildCombat1to1@@@std@@@std@@QBEAAVCGuildCombat1to1@@XZ
_TEXT	SEGMENT PARA USE32 PUBLIC 'CODE'
_TEXT	ENDS
;	COMDAT ??Hiterator@?$vector@VCGuildCombat1to1@@V?$allocator@VCGuildCombat1to1@@@std@@@std@@QBE?AV012@H@Z
_TEXT	SEGMENT PARA USE32 PUBLIC 'CODE'
_TEXT	ENDS
;	COMDAT ??Diterator@?$vector@U__GC1TO1TENDER@CGuildCombat1to1Mng@@V?$allocator@U__GC1TO1TENDER@CGuildCombat1to1Mng@@@std@@@std@@QBEAAU__GC1TO1TENDER@CGuildCombat1to1Mng@@XZ
_TEXT	SEGMENT PARA USE32 PUBLIC 'CODE'
_TEXT	ENDS
;	COMDAT ??Hiterator@?$vector@U__GC1TO1TENDER@CGuildCombat1to1Mng@@V?$allocator@U__GC1TO1TENDER@CGuildCombat1to1Mng@@@std@@@std@@QBE?AV012@H@Z
_TEXT	SEGMENT PARA USE32 PUBLIC 'CODE'
_TEXT	ENDS
;	COMDAT ??Diterator@?$vector@PAU__JOINPLAYER@CGuildCombat@@V?$allocator@PAU__JOINPLAYER@CGuildCombat@@@std@@@std@@QBEAAPAU__JOINPLAYER@CGuildCombat@@XZ
_TEXT	SEGMENT PARA USE32 PUBLIC 'CODE'
_TEXT	ENDS
;	COMDAT ??Hiterator@?$vector@PAU__JOINPLAYER@CGuildCombat@@V?$allocator@PAU__JOINPLAYER@CGuildCombat@@@std@@@std@@QBE?AV012@H@Z
_TEXT	SEGMENT PARA USE32 PUBLIC 'CODE'
_TEXT	ENDS
;	COMDAT ??Diterator@?$vector@V?$basic_string@DU?$char_traits@D@std@@V?$allocator@D@2@@std@@V?$allocator@V?$basic_string@DU?$char_traits@D@std@@V?$allocator@D@2@@std@@@2@@std@@QBEAAV?$basic_string@DU?$char_traits@D@std@@V?$allocator@D@2@@2@XZ
_TEXT	SEGMENT PARA USE32 PUBLIC 'CODE'
_TEXT	ENDS
;	COMDAT ??Hiterator@?$vector@V?$basic_string@DU?$char_traits@D@std@@V?$allocator@D@2@@std@@V?$allocator@V?$basic_string@DU?$char_traits@D@std@@V?$allocator@D@2@@std@@@2@@std@@QBE?AV012@H@Z
_TEXT	SEGMENT PARA USE32 PUBLIC 'CODE'
_TEXT	ENDS
;	COMDAT ??Diterator@?$vector@PAVCMiniGameBase@@V?$allocator@PAVCMiniGameBase@@@std@@@std@@QBEAAPAVCMiniGameBase@@XZ
_TEXT	SEGMENT PARA USE32 PUBLIC 'CODE'
_TEXT	ENDS
;	COMDAT ??Hiterator@?$vector@PAVCMiniGameBase@@V?$allocator@PAVCMiniGameBase@@@std@@@std@@QBE?AV012@H@Z
_TEXT	SEGMENT PARA USE32 PUBLIC 'CODE'
_TEXT	ENDS
;	COMDAT ??Diterator@?$vector@UGuildHouse_Furniture_Info@CGuildHouseBase@@V?$allocator@UGuildHouse_Furniture_Info@CGuildHouseBase@@@std@@@std@@QBEAAUGuildHouse_Furniture_Info@CGuildHouseBase@@XZ
_TEXT	SEGMENT PARA USE32 PUBLIC 'CODE'
_TEXT	ENDS
;	COMDAT ??Hiterator@?$vector@UGuildHouse_Furniture_Info@CGuildHouseBase@@V?$allocator@UGuildHouse_Furniture_Info@CGuildHouseBase@@@std@@@std@@QBE?AV012@H@Z
_TEXT	SEGMENT PARA USE32 PUBLIC 'CODE'
_TEXT	ENDS
;	COMDAT ??0?$allocator@V?$basic_string@DU?$char_traits@D@std@@V?$allocator@D@2@@std@@@std@@QAE@ABV01@@Z
_TEXT	SEGMENT PARA USE32 PUBLIC 'CODE'
_TEXT	ENDS
;	COMDAT ?deallocate@?$allocator@V?$basic_string@DU?$char_traits@D@std@@V?$allocator@D@2@@std@@@std@@QAEXPAV?$basic_string@DU?$char_traits@D@std@@V?$allocator@D@2@@2@I@Z
_TEXT	SEGMENT PARA USE32 PUBLIC 'CODE'
_TEXT	ENDS
;	COMDAT ?allocate@?$allocator@V?$basic_string@DU?$char_traits@D@std@@V?$allocator@D@2@@std@@@std@@QAEPAV?$basic_string@DU?$char_traits@D@std@@V?$allocator@D@2@@2@I@Z
_TEXT	SEGMENT PARA USE32 PUBLIC 'CODE'
_TEXT	ENDS
;	COMDAT ?size@?$_Tree@V?$_Tmap_traits@KPAVCCtrl@@U?$less@K@std@@V?$allocator@U?$pair@$$CBKPAVCCtrl@@@std@@@3@$0A@@std@@@std@@QBEIXZ
_TEXT	SEGMENT PARA USE32 PUBLIC 'CODE'
_TEXT	ENDS
;	COMDAT ??0iterator@?$_Tree@V?$_Tmap_traits@KPAVCCtrl@@U?$less@K@std@@V?$allocator@U?$pair@$$CBKPAVCCtrl@@@std@@@3@$0A@@std@@@std@@QAE@XZ
_TEXT	SEGMENT PARA USE32 PUBLIC 'CODE'
_TEXT	ENDS
;	COMDAT ?pop_back@?$deque@PAUtagACTMSG@@V?$allocator@PAUtagACTMSG@@@std@@@std@@QAEXXZ
_TEXT	SEGMENT PARA USE32 PUBLIC 'CODE'
_TEXT	ENDS
;	COMDAT ??0?$_Deque_map@PAUtagACTMSG@@V?$allocator@PAUtagACTMSG@@@std@@@std@@IAE@V?$allocator@PAUtagACTMSG@@@1@@Z
_TEXT	SEGMENT PARA USE32 PUBLIC 'CODE'
_TEXT	ENDS
;	COMDAT ??0?$allocator@PAUtagACTMSG@@@std@@QAE@ABV01@@Z
_TEXT	SEGMENT PARA USE32 PUBLIC 'CODE'
_TEXT	ENDS
;	COMDAT ?deallocate@?$allocator@PAUtagACTMSG@@@std@@QAEXPAPAUtagACTMSG@@I@Z
_TEXT	SEGMENT PARA USE32 PUBLIC 'CODE'
_TEXT	ENDS
;	COMDAT ?deallocate@?$allocator@PAPAUtagACTMSG@@@std@@QAEXPAPAPAUtagACTMSG@@I@Z
_TEXT	SEGMENT PARA USE32 PUBLIC 'CODE'
_TEXT	ENDS
;	COMDAT ?destroy@?$allocator@PAPAUtagACTMSG@@@std@@QAEXPAPAPAUtagACTMSG@@@Z
_TEXT	SEGMENT PARA USE32 PUBLIC 'CODE'
_TEXT	ENDS
;	COMDAT ?pop_back@?$deque@PAUtagMAGICATKMSG@@V?$allocator@PAUtagMAGICATKMSG@@@std@@@std@@QAEXXZ
_TEXT	SEGMENT PARA USE32 PUBLIC 'CODE'
_TEXT	ENDS
;	COMDAT ??0?$_Deque_map@PAUtagMAGICATKMSG@@V?$allocator@PAUtagMAGICATKMSG@@@std@@@std@@IAE@V?$allocator@PAUtagMAGICATKMSG@@@1@@Z
_TEXT	SEGMENT PARA USE32 PUBLIC 'CODE'
_TEXT	ENDS
;	COMDAT ??0?$allocator@PAUtagMAGICATKMSG@@@std@@QAE@ABV01@@Z
_TEXT	SEGMENT PARA USE32 PUBLIC 'CODE'
_TEXT	ENDS
;	COMDAT ?deallocate@?$allocator@PAUtagMAGICATKMSG@@@std@@QAEXPAPAUtagMAGICATKMSG@@I@Z
_TEXT	SEGMENT PARA USE32 PUBLIC 'CODE'
_TEXT	ENDS
;	COMDAT ?deallocate@?$allocator@PAPAUtagMAGICATKMSG@@@std@@QAEXPAPAPAUtagMAGICATKMSG@@I@Z
_TEXT	SEGMENT PARA USE32 PUBLIC 'CODE'
_TEXT	ENDS
;	COMDAT ?destroy@?$allocator@PAPAUtagMAGICATKMSG@@@std@@QAEXPAPAPAUtagMAGICATKMSG@@@Z
_TEXT	SEGMENT PARA USE32 PUBLIC 'CODE'
_TEXT	ENDS
;	COMDAT ?max_size@?$vector@UENVIR_INFO@@V?$allocator@UENVIR_INFO@@@std@@@std@@QBEIXZ
_TEXT	SEGMENT PARA USE32 PUBLIC 'CODE'
_TEXT	ENDS
;	COMDAT ?_Destroy@?$vector@UENVIR_INFO@@V?$allocator@UENVIR_INFO@@@std@@@std@@IAEXPAUENVIR_INFO@@0@Z
_TEXT	SEGMENT PARA USE32 PUBLIC 'CODE'
_TEXT	ENDS
;	COMDAT ?_Xlen@?$vector@UENVIR_INFO@@V?$allocator@UENVIR_INFO@@@std@@@std@@IBEXXZ
_TEXT	SEGMENT PARA USE32 PUBLIC 'CODE'
_TEXT	ENDS
;	COMDAT ??0?$allocator@UENVIR_INFO@@@std@@QAE@ABV01@@Z
_TEXT	SEGMENT PARA USE32 PUBLIC 'CODE'
_TEXT	ENDS
;	COMDAT ?deallocate@?$allocator@UENVIR_INFO@@@std@@QAEXPAUENVIR_INFO@@I@Z
_TEXT	SEGMENT PARA USE32 PUBLIC 'CODE'
_TEXT	ENDS
;	COMDAT ?allocate@?$allocator@UENVIR_INFO@@@std@@QAEPAUENVIR_INFO@@I@Z
_TEXT	SEGMENT PARA USE32 PUBLIC 'CODE'
_TEXT	ENDS
;	COMDAT ?max_size@?$vector@PAVCObj@@V?$allocator@PAVCObj@@@std@@@std@@QBEIXZ
_TEXT	SEGMENT PARA USE32 PUBLIC 'CODE'
_TEXT	ENDS
;	COMDAT ?_Destroy@?$vector@PAVCObj@@V?$allocator@PAVCObj@@@std@@@std@@IAEXPAPAVCObj@@0@Z
_TEXT	SEGMENT PARA USE32 PUBLIC 'CODE'
_TEXT	ENDS
;	COMDAT ?_Xlen@?$vector@PAVCObj@@V?$allocator@PAVCObj@@@std@@@std@@IBEXXZ
_TEXT	SEGMENT PARA USE32 PUBLIC 'CODE'
_TEXT	ENDS
;	COMDAT ??0?$allocator@PAVCObj@@@std@@QAE@ABV01@@Z
_TEXT	SEGMENT PARA USE32 PUBLIC 'CODE'
_TEXT	ENDS
;	COMDAT ?deallocate@?$allocator@PAVCObj@@@std@@QAEXPAPAVCObj@@I@Z
_TEXT	SEGMENT PARA USE32 PUBLIC 'CODE'
_TEXT	ENDS
;	COMDAT ?allocate@?$allocator@PAVCObj@@@std@@QAEPAPAVCObj@@I@Z
_TEXT	SEGMENT PARA USE32 PUBLIC 'CODE'
_TEXT	ENDS
;	COMDAT ??0const_iterator@?$deque@PAUtagACTMSG@@V?$allocator@PAUtagACTMSG@@@std@@@std@@QAE@IPBV12@@Z
_TEXT	SEGMENT PARA USE32 PUBLIC 'CODE'
_TEXT	ENDS
;	COMDAT ??0const_iterator@?$deque@PAUtagMAGICATKMSG@@V?$allocator@PAUtagMAGICATKMSG@@@std@@@std@@QAE@IPBV12@@Z
_TEXT	SEGMENT PARA USE32 PUBLIC 'CODE'
_TEXT	ENDS
;	COMDAT ?begin@?$_Tree@V?$_Tmap_traits@KKU?$less@K@std@@V?$allocator@U?$pair@$$CBKK@std@@@2@$0A@@std@@@std@@QAE?AViterator@12@XZ
_TEXT	SEGMENT PARA USE32 PUBLIC 'CODE'
_TEXT	ENDS
;	COMDAT ?end@?$_Tree@V?$_Tmap_traits@KKU?$less@K@std@@V?$allocator@U?$pair@$$CBKK@std@@@2@$0A@@std@@@std@@QAE?AViterator@12@XZ
_TEXT	SEGMENT PARA USE32 PUBLIC 'CODE'
_TEXT	ENDS
;	COMDAT ?erase@?$_Tree@V?$_Tmap_traits@KKU?$less@K@std@@V?$allocator@U?$pair@$$CBKK@std@@@2@$0A@@std@@@std@@QAE?AViterator@12@V312@@Z
_TEXT	SEGMENT PARA USE32 PUBLIC 'CODE'
_TEXT	ENDS
;	COMDAT ?clear@?$_Tree@V?$_Tmap_traits@KKU?$less@K@std@@V?$allocator@U?$pair@$$CBKK@std@@@2@$0A@@std@@@std@@QAEXXZ
_TEXT	SEGMENT PARA USE32 PUBLIC 'CODE'
_TEXT	ENDS
;	COMDAT ?lower_bound@?$_Tree@V?$_Tmap_traits@KKU?$less@K@std@@V?$allocator@U?$pair@$$CBKK@std@@@2@$0A@@std@@@std@@QAE?AViterator@12@ABK@Z
_TEXT	SEGMENT PARA USE32 PUBLIC 'CODE'
_TEXT	ENDS
;	COMDAT ?upper_bound@?$_Tree@V?$_Tmap_traits@KKU?$less@K@std@@V?$allocator@U?$pair@$$CBKK@std@@@2@$0A@@std@@@std@@QAE?AViterator@12@ABK@Z
_TEXT	SEGMENT PARA USE32 PUBLIC 'CODE'
_TEXT	ENDS
;	COMDAT ?begin@?$_Tree@V?$_Tmap_traits@KU_Friend@@U?$less@K@std@@V?$allocator@U?$pair@$$CBKU_Friend@@@std@@@3@$0A@@std@@@std@@QAE?AViterator@12@XZ
_TEXT	SEGMENT PARA USE32 PUBLIC 'CODE'
_TEXT	ENDS
;	COMDAT ?end@?$_Tree@V?$_Tmap_traits@KU_Friend@@U?$less@K@std@@V?$allocator@U?$pair@$$CBKU_Friend@@@std@@@3@$0A@@std@@@std@@QAE?AViterator@12@XZ
_TEXT	SEGMENT PARA USE32 PUBLIC 'CODE'
_TEXT	ENDS
;	COMDAT ?erase@?$_Tree@V?$_Tmap_traits@KU_Friend@@U?$less@K@std@@V?$allocator@U?$pair@$$CBKU_Friend@@@std@@@3@$0A@@std@@@std@@QAE?AViterator@12@V312@@Z
_TEXT	SEGMENT PARA USE32 PUBLIC 'CODE'
_TEXT	ENDS
;	COMDAT ?clear@?$_Tree@V?$_Tmap_traits@KU_Friend@@U?$less@K@std@@V?$allocator@U?$pair@$$CBKU_Friend@@@std@@@3@$0A@@std@@@std@@QAEXXZ
_TEXT	SEGMENT PARA USE32 PUBLIC 'CODE'
_TEXT	ENDS
;	COMDAT ?lower_bound@?$_Tree@V?$_Tmap_traits@KU_Friend@@U?$less@K@std@@V?$allocator@U?$pair@$$CBKU_Friend@@@std@@@3@$0A@@std@@@std@@QAE?AViterator@12@ABK@Z
_TEXT	SEGMENT PARA USE32 PUBLIC 'CODE'
_TEXT	ENDS
;	COMDAT ?upper_bound@?$_Tree@V?$_Tmap_traits@KU_Friend@@U?$less@K@std@@V?$allocator@U?$pair@$$CBKU_Friend@@@std@@@3@$0A@@std@@@std@@QAE?AViterator@12@ABK@Z
_TEXT	SEGMENT PARA USE32 PUBLIC 'CODE'
_TEXT	ENDS
;	COMDAT ??Eiterator@?$_Tree@V?$_Tmap_traits@KU_Friend@@U?$less@K@std@@V?$allocator@U?$pair@$$CBKU_Friend@@@std@@@3@$0A@@std@@@std@@QAE?AV012@H@Z
_TEXT	SEGMENT PARA USE32 PUBLIC 'CODE'
_TEXT	ENDS
;	COMDAT ??8const_iterator@?$_Tree@V?$_Tmap_traits@KU_Friend@@U?$less@K@std@@V?$allocator@U?$pair@$$CBKU_Friend@@@std@@@3@$0A@@std@@@std@@QBE_NABV012@@Z
_TEXT	SEGMENT PARA USE32 PUBLIC 'CODE'
_TEXT	ENDS
;	COMDAT ??9const_iterator@?$_Tree@V?$_Tmap_traits@KU_Friend@@U?$less@K@std@@V?$allocator@U?$pair@$$CBKU_Friend@@@std@@@3@$0A@@std@@@std@@QBE_NABV012@@Z
_TEXT	SEGMENT PARA USE32 PUBLIC 'CODE'
_TEXT	ENDS
;	COMDAT ?_Destroy@?$vector@PAU__JOINPLAYER@CGuildCombat@@V?$allocator@PAU__JOINPLAYER@CGuildCombat@@@std@@@std@@IAEXPAPAU__JOINPLAYER@CGuildCombat@@0@Z
_TEXT	SEGMENT PARA USE32 PUBLIC 'CODE'
_TEXT	ENDS
;	COMDAT ?deallocate@?$allocator@PAU__JOINPLAYER@CGuildCombat@@@std@@QAEXPAPAU__JOINPLAYER@CGuildCombat@@I@Z
_TEXT	SEGMENT PARA USE32 PUBLIC 'CODE'
_TEXT	ENDS
;	COMDAT ?max_size@?$vector@U__SECRETROOM_MONSTER@@V?$allocator@U__SECRETROOM_MONSTER@@@std@@@std@@QBEIXZ
_TEXT	SEGMENT PARA USE32 PUBLIC 'CODE'
_TEXT	ENDS
;	COMDAT ?_Destroy@?$vector@U__SECRETROOM_MONSTER@@V?$allocator@U__SECRETROOM_MONSTER@@@std@@@std@@IAEXPAU__SECRETROOM_MONSTER@@0@Z
_TEXT	SEGMENT PARA USE32 PUBLIC 'CODE'
_TEXT	ENDS
;	COMDAT ?_Xlen@?$vector@U__SECRETROOM_MONSTER@@V?$allocator@U__SECRETROOM_MONSTER@@@std@@@std@@IBEXXZ
_TEXT	SEGMENT PARA USE32 PUBLIC 'CODE'
_TEXT	ENDS
;	COMDAT ??0?$allocator@U__SECRETROOM_MONSTER@@@std@@QAE@ABV01@@Z
_TEXT	SEGMENT PARA USE32 PUBLIC 'CODE'
_TEXT	ENDS
;	COMDAT ?deallocate@?$allocator@U__SECRETROOM_MONSTER@@@std@@QAEXPAU__SECRETROOM_MONSTER@@I@Z
_TEXT	SEGMENT PARA USE32 PUBLIC 'CODE'
_TEXT	ENDS
;	COMDAT ?allocate@?$allocator@U__SECRETROOM_MONSTER@@@std@@QAEPAU__SECRETROOM_MONSTER@@I@Z
_TEXT	SEGMENT PARA USE32 PUBLIC 'CODE'
_TEXT	ENDS
;	COMDAT ?max_size@?$vector@V?$basic_string@DU?$char_traits@D@std@@V?$allocator@D@2@@std@@V?$allocator@V?$basic_string@DU?$char_traits@D@std@@V?$allocator@D@2@@std@@@2@@std@@QBEIXZ
_TEXT	SEGMENT PARA USE32 PUBLIC 'CODE'
_TEXT	ENDS
;	COMDAT ?_Destroy@?$vector@V?$basic_string@DU?$char_traits@D@std@@V?$allocator@D@2@@std@@V?$allocator@V?$basic_string@DU?$char_traits@D@std@@V?$allocator@D@2@@std@@@2@@std@@IAEXPAV?$basic_string@DU?$char_traits@D@std@@V?$allocator@D@2@@2@0@Z
_TEXT	SEGMENT PARA USE32 PUBLIC 'CODE'
_TEXT	ENDS
;	COMDAT ?_Insert_n@?$vector@V?$basic_string@DU?$char_traits@D@std@@V?$allocator@D@2@@std@@V?$allocator@V?$basic_string@DU?$char_traits@D@std@@V?$allocator@D@2@@std@@@2@@std@@IAEXViterator@12@IABV?$basic_string@DU?$char_traits@D@std@@V?$allocator@D@2@@2@@Z
_TEXT	SEGMENT PARA USE32 PUBLIC 'CODE'
_TEXT	ENDS
;	COMDAT ?_Xlen@?$vector@V?$basic_string@DU?$char_traits@D@std@@V?$allocator@D@2@@std@@V?$allocator@V?$basic_string@DU?$char_traits@D@std@@V?$allocator@D@2@@std@@@2@@std@@IBEXXZ
_TEXT	SEGMENT PARA USE32 PUBLIC 'CODE'
_TEXT	ENDS
;	COMDAT ?begin@?$vector@UMINIGMAME_PRIZE_LIST@CRainbowRaceMng@@V?$allocator@UMINIGMAME_PRIZE_LIST@CRainbowRaceMng@@@std@@@std@@QAE?AViterator@12@XZ
_TEXT	SEGMENT PARA USE32 PUBLIC 'CODE'
_TEXT	ENDS
;	COMDAT ?_Insert_n@?$vector@UMINIGMAME_PRIZE_LIST@CRainbowRaceMng@@V?$allocator@UMINIGMAME_PRIZE_LIST@CRainbowRaceMng@@@std@@@std@@IAEXViterator@12@IABUMINIGMAME_PRIZE_LIST@CRainbowRaceMng@@@Z
_TEXT	SEGMENT PARA USE32 PUBLIC 'CODE'
_TEXT	ENDS
;	COMDAT ?_Color@?$_Tree@V?$_Tmap_traits@KPAVCGuildHouseBase@@U?$less@K@std@@V?$allocator@U?$pair@$$CBKPAVCGuildHouseBase@@@std@@@3@$0A@@std@@@std@@KAAADPAU_Node@?$_Tree_nod@V?$_Tmap_traits@KPAVCGuildHouseBase@@U?$less@K@std@@V?$allocator@U?$pair@$$CBKPAVCGuildHouseBase@@@std@@@3@$0A@@std@@@2@@Z
_TEXT	SEGMENT PARA USE32 PUBLIC 'CODE'
_TEXT	ENDS
;	COMDAT ?_Parent@?$_Tree@V?$_Tmap_traits@KPAVCGuildHouseBase@@U?$less@K@std@@V?$allocator@U?$pair@$$CBKPAVCGuildHouseBase@@@std@@@3@$0A@@std@@@std@@KAAAPAU_Node@?$_Tree_nod@V?$_Tmap_traits@KPAVCGuildHouseBase@@U?$less@K@std@@V?$allocator@U?$pair@$$CBKPAVCGuildHouseBase@@@std@@@3@$0A@@std@@@2@PAU342@@Z
_TEXT	SEGMENT PARA USE32 PUBLIC 'CODE'
_TEXT	ENDS
;	COMDAT ?_Myval@?$_Tree@V?$_Tmap_traits@KPAVCGuildHouseBase@@U?$less@K@std@@V?$allocator@U?$pair@$$CBKPAVCGuildHouseBase@@@std@@@3@$0A@@std@@@std@@KAAAU?$pair@$$CBKPAVCGuildHouseBase@@@2@PAU_Node@?$_Tree_nod@V?$_Tmap_traits@KPAVCGuildHouseBase@@U?$less@K@std@@V?$allocator@U?$pair@$$CBKPAVCGuildHouseBase@@@std@@@3@$0A@@std@@@2@@Z
_TEXT	SEGMENT PARA USE32 PUBLIC 'CODE'
_TEXT	ENDS
;	COMDAT ?max_size@?$_Tree@V?$_Tmap_traits@KPAVCGuildHouseBase@@U?$less@K@std@@V?$allocator@U?$pair@$$CBKPAVCGuildHouseBase@@@std@@@3@$0A@@std@@@std@@QBEIXZ
_TEXT	SEGMENT PARA USE32 PUBLIC 'CODE'
_TEXT	ENDS
;	COMDAT ?_Lmost@?$_Tree@V?$_Tmap_traits@KPAVCGuildHouseBase@@U?$less@K@std@@V?$allocator@U?$pair@$$CBKPAVCGuildHouseBase@@@std@@@3@$0A@@std@@@std@@IAEAAPAU_Node@?$_Tree_nod@V?$_Tmap_traits@KPAVCGuildHouseBase@@U?$less@K@std@@V?$allocator@U?$pair@$$CBKPAVCGuildHouseBase@@@std@@@3@$0A@@std@@@2@XZ
_TEXT	SEGMENT PARA USE32 PUBLIC 'CODE'
_TEXT	ENDS
;	COMDAT ?_Lrotate@?$_Tree@V?$_Tmap_traits@KPAVCGuildHouseBase@@U?$less@K@std@@V?$allocator@U?$pair@$$CBKPAVCGuildHouseBase@@@std@@@3@$0A@@std@@@std@@IAEXPAU_Node@?$_Tree_nod@V?$_Tmap_traits@KPAVCGuildHouseBase@@U?$less@K@std@@V?$allocator@U?$pair@$$CBKPAVCGuildHouseBase@@@std@@@3@$0A@@std@@@2@@Z
_TEXT	SEGMENT PARA USE32 PUBLIC 'CODE'
_TEXT	ENDS
;	COMDAT ?_Rmost@?$_Tree@V?$_Tmap_traits@KPAVCGuildHouseBase@@U?$less@K@std@@V?$allocator@U?$pair@$$CBKPAVCGuildHouseBase@@@std@@@3@$0A@@std@@@std@@IAEAAPAU_Node@?$_Tree_nod@V?$_Tmap_traits@KPAVCGuildHouseBase@@U?$less@K@std@@V?$allocator@U?$pair@$$CBKPAVCGuildHouseBase@@@std@@@3@$0A@@std@@@2@XZ
_TEXT	SEGMENT PARA USE32 PUBLIC 'CODE'
_TEXT	ENDS
;	COMDAT ?_Rrotate@?$_Tree@V?$_Tmap_traits@KPAVCGuildHouseBase@@U?$less@K@std@@V?$allocator@U?$pair@$$CBKPAVCGuildHouseBase@@@std@@@3@$0A@@std@@@std@@IAEXPAU_Node@?$_Tree_nod@V?$_Tmap_traits@KPAVCGuildHouseBase@@U?$less@K@std@@V?$allocator@U?$pair@$$CBKPAVCGuildHouseBase@@@std@@@3@$0A@@std@@@2@@Z
_TEXT	SEGMENT PARA USE32 PUBLIC 'CODE'
_TEXT	ENDS
;	COMDAT ?_Buynode@?$_Tree@V?$_Tmap_traits@KPAVCGuildHouseBase@@U?$less@K@std@@V?$allocator@U?$pair@$$CBKPAVCGuildHouseBase@@@std@@@3@$0A@@std@@@std@@IAEPAU_Node@?$_Tree_nod@V?$_Tmap_traits@KPAVCGuildHouseBase@@U?$less@K@std@@V?$allocator@U?$pair@$$CBKPAVCGuildHouseBase@@@std@@@3@$0A@@std@@@2@PAU342@00ABU?$pair@$$CBKPAVCGuildHouseBase@@@2@D@Z
_TEXT	SEGMENT PARA USE32 PUBLIC 'CODE'
_TEXT	ENDS
;	COMDAT ??0const_iterator@?$_Tree@V?$_Tmap_traits@KPAVCGuildHouseBase@@U?$less@K@std@@V?$allocator@U?$pair@$$CBKPAVCGuildHouseBase@@@std@@@3@$0A@@std@@@std@@QAE@PAU_Node@?$_Tree_nod@V?$_Tmap_traits@KPAVCGuildHouseBase@@U?$less@K@std@@V?$allocator@U?$pair@$$CBKPAVCGuildHouseBase@@@std@@@3@$0A@@std@@@2@@Z
_TEXT	SEGMENT PARA USE32 PUBLIC 'CODE'
_TEXT	ENDS
;	COMDAT ??Fconst_iterator@?$_Tree@V?$_Tmap_traits@KPAVCGuildHouseBase@@U?$less@K@std@@V?$allocator@U?$pair@$$CBKPAVCGuildHouseBase@@@std@@@3@$0A@@std@@@std@@QAEAAV012@XZ
_TEXT	SEGMENT PARA USE32 PUBLIC 'CODE'
_TEXT	ENDS
;	COMDAT ??Eiterator@?$_Tree@V?$_Tmap_traits@KKU?$less@K@std@@V?$allocator@U?$pair@$$CBKK@std@@@2@$0A@@std@@@std@@QAE?AV012@H@Z
_TEXT	SEGMENT PARA USE32 PUBLIC 'CODE'
_TEXT	ENDS
;	COMDAT ??8const_iterator@?$_Tree@V?$_Tmap_traits@KKU?$less@K@std@@V?$allocator@U?$pair@$$CBKK@std@@@2@$0A@@std@@@std@@QBE_NABV012@@Z
_TEXT	SEGMENT PARA USE32 PUBLIC 'CODE'
_TEXT	ENDS
;	COMDAT ??9const_iterator@?$_Tree@V?$_Tmap_traits@KKU?$less@K@std@@V?$allocator@U?$pair@$$CBKK@std@@@2@$0A@@std@@@std@@QBE_NABV012@@Z
_TEXT	SEGMENT PARA USE32 PUBLIC 'CODE'
_TEXT	ENDS
;	COMDAT ?_Left@?$_Tree@V?$_Tmap_traits@KPAVCClientSock@@U?$less@K@std@@V?$allocator@U?$pair@$$CBKPAVCClientSock@@@std@@@3@$0A@@std@@@std@@KAAAPAU_Node@?$_Tree_nod@V?$_Tmap_traits@KPAVCClientSock@@U?$less@K@std@@V?$allocator@U?$pair@$$CBKPAVCClientSock@@@std@@@3@$0A@@std@@@2@PAU342@@Z
_TEXT	SEGMENT PARA USE32 PUBLIC 'CODE'
_TEXT	ENDS
;	COMDAT ?_Parent@?$_Tree@V?$_Tmap_traits@KPAVCClientSock@@U?$less@K@std@@V?$allocator@U?$pair@$$CBKPAVCClientSock@@@std@@@3@$0A@@std@@@std@@KAAAPAU_Node@?$_Tree_nod@V?$_Tmap_traits@KPAVCClientSock@@U?$less@K@std@@V?$allocator@U?$pair@$$CBKPAVCClientSock@@@std@@@3@$0A@@std@@@2@PAU342@@Z
_TEXT	SEGMENT PARA USE32 PUBLIC 'CODE'
_TEXT	ENDS
;	COMDAT ?_Right@?$_Tree@V?$_Tmap_traits@KPAVCClientSock@@U?$less@K@std@@V?$allocator@U?$pair@$$CBKPAVCClientSock@@@std@@@3@$0A@@std@@@std@@KAAAPAU_Node@?$_Tree_nod@V?$_Tmap_traits@KPAVCClientSock@@U?$less@K@std@@V?$allocator@U?$pair@$$CBKPAVCClientSock@@@std@@@3@$0A@@std@@@2@PAU342@@Z
_TEXT	SEGMENT PARA USE32 PUBLIC 'CODE'
_TEXT	ENDS
;	COMDAT ?_Myval@?$_Tree@V?$_Tmap_traits@KPAVCClientSock@@U?$less@K@std@@V?$allocator@U?$pair@$$CBKPAVCClientSock@@@std@@@3@$0A@@std@@@std@@KAAAU?$pair@$$CBKPAVCClientSock@@@2@PAU_Node@?$_Tree_nod@V?$_Tmap_traits@KPAVCClientSock@@U?$less@K@std@@V?$allocator@U?$pair@$$CBKPAVCClientSock@@@std@@@3@$0A@@std@@@2@@Z
_TEXT	SEGMENT PARA USE32 PUBLIC 'CODE'
_TEXT	ENDS
;	COMDAT ?begin@?$_Tree@V?$_Tmap_traits@KPAVCClientSock@@U?$less@K@std@@V?$allocator@U?$pair@$$CBKPAVCClientSock@@@std@@@3@$0A@@std@@@std@@QAE?AViterator@12@XZ
_TEXT	SEGMENT PARA USE32 PUBLIC 'CODE'
_TEXT	ENDS
;	COMDAT ?erase@?$_Tree@V?$_Tmap_traits@KPAVCClientSock@@U?$less@K@std@@V?$allocator@U?$pair@$$CBKPAVCClientSock@@@std@@@3@$0A@@std@@@std@@QAE?AViterator@12@V312@0@Z
_TEXT	SEGMENT PARA USE32 PUBLIC 'CODE'
_TEXT	ENDS
;	COMDAT ?_Init@?$_Tree@V?$_Tmap_traits@KPAVCClientSock@@U?$less@K@std@@V?$allocator@U?$pair@$$CBKPAVCClientSock@@@std@@@3@$0A@@std@@@std@@IAEXXZ
_TEXT	SEGMENT PARA USE32 PUBLIC 'CODE'
_TEXT	ENDS
;	COMDAT ?_Lbound@?$_Tree@V?$_Tmap_traits@KPAVCClientSock@@U?$less@K@std@@V?$allocator@U?$pair@$$CBKPAVCClientSock@@@std@@@3@$0A@@std@@@std@@IBEPAU_Node@?$_Tree_nod@V?$_Tmap_traits@KPAVCClientSock@@U?$less@K@std@@V?$allocator@U?$pair@$$CBKPAVCClientSock@@@std@@@3@$0A@@std@@@2@ABK@Z
_TEXT	SEGMENT PARA USE32 PUBLIC 'CODE'
_TEXT	ENDS
;	COMDAT ??0?$_Tree_val@V?$_Tmap_traits@KPAVCClientSock@@U?$less@K@std@@V?$allocator@U?$pair@$$CBKPAVCClientSock@@@std@@@3@$0A@@std@@@std@@IAE@ABU?$less@K@1@V?$allocator@U?$pair@$$CBKPAVCClientSock@@@std@@@1@@Z
_TEXT	SEGMENT PARA USE32 PUBLIC 'CODE'
_TEXT	ENDS
;	COMDAT ?_Kfn@?$_Tmap_traits@KPAVCClientSock@@U?$less@K@std@@V?$allocator@U?$pair@$$CBKPAVCClientSock@@@std@@@3@$0A@@std@@SAABKABU?$pair@$$CBKPAVCClientSock@@@2@@Z
_TEXT	SEGMENT PARA USE32 PUBLIC 'CODE'
_TEXT	ENDS
;	COMDAT ??0?$allocator@U?$pair@$$CBKPAVCClientSock@@@std@@@std@@QAE@ABV01@@Z
_TEXT	SEGMENT PARA USE32 PUBLIC 'CODE'
_TEXT	ENDS
;	COMDAT ?deallocate@?$allocator@U_Node@?$_Tree_nod@V?$_Tmap_traits@KPAVCClientSock@@U?$less@K@std@@V?$allocator@U?$pair@$$CBKPAVCClientSock@@@std@@@3@$0A@@std@@@std@@@std@@QAEXPAU_Node@?$_Tree_nod@V?$_Tmap_traits@KPAVCClientSock@@U?$less@K@std@@V?$allocator@U?$pair@$$CBKPAVCClientSock@@@std@@@3@$0A@@std@@@2@I@Z
_TEXT	SEGMENT PARA USE32 PUBLIC 'CODE'
_TEXT	ENDS
;	COMDAT ?destroy@?$allocator@PAU_Node@?$_Tree_nod@V?$_Tmap_traits@KPAVCClientSock@@U?$less@K@std@@V?$allocator@U?$pair@$$CBKPAVCClientSock@@@std@@@3@$0A@@std@@@std@@@std@@QAEXPAPAU_Node@?$_Tree_nod@V?$_Tmap_traits@KPAVCClientSock@@U?$less@K@std@@V?$allocator@U?$pair@$$CBKPAVCClientSock@@@std@@@3@$0A@@std@@@2@@Z
_TEXT	SEGMENT PARA USE32 PUBLIC 'CODE'
_TEXT	ENDS
;	COMDAT ??0const_iterator@?$_Tree@V?$_Tmap_traits@KPAVCClientSock@@U?$less@K@std@@V?$allocator@U?$pair@$$CBKPAVCClientSock@@@std@@@3@$0A@@std@@@std@@QAE@PAU_Node@?$_Tree_nod@V?$_Tmap_traits@KPAVCClientSock@@U?$less@K@std@@V?$allocator@U?$pair@$$CBKPAVCClientSock@@@std@@@3@$0A@@std@@@2@@Z
_TEXT	SEGMENT PARA USE32 PUBLIC 'CODE'
_TEXT	ENDS
;	COMDAT ??Dconst_iterator@?$_Tree@V?$_Tmap_traits@KPAVCClientSock@@U?$less@K@std@@V?$allocator@U?$pair@$$CBKPAVCClientSock@@@std@@@3@$0A@@std@@@std@@QBEABU?$pair@$$CBKPAVCClientSock@@@2@XZ
_TEXT	SEGMENT PARA USE32 PUBLIC 'CODE'
_TEXT	ENDS
;	COMDAT ?_Left@?$_Tree@V?$_Tmap_traits@KPAVCClientSockE@@U?$less@K@std@@V?$allocator@U?$pair@$$CBKPAVCClientSockE@@@std@@@3@$0A@@std@@@std@@KAAAPAU_Node@?$_Tree_nod@V?$_Tmap_traits@KPAVCClientSockE@@U?$less@K@std@@V?$allocator@U?$pair@$$CBKPAVCClientSockE@@@std@@@3@$0A@@std@@@2@PAU342@@Z
_TEXT	SEGMENT PARA USE32 PUBLIC 'CODE'
_TEXT	ENDS
;	COMDAT ?_Parent@?$_Tree@V?$_Tmap_traits@KPAVCClientSockE@@U?$less@K@std@@V?$allocator@U?$pair@$$CBKPAVCClientSockE@@@std@@@3@$0A@@std@@@std@@KAAAPAU_Node@?$_Tree_nod@V?$_Tmap_traits@KPAVCClientSockE@@U?$less@K@std@@V?$allocator@U?$pair@$$CBKPAVCClientSockE@@@std@@@3@$0A@@std@@@2@PAU342@@Z
_TEXT	SEGMENT PARA USE32 PUBLIC 'CODE'
_TEXT	ENDS
;	COMDAT ?_Right@?$_Tree@V?$_Tmap_traits@KPAVCClientSockE@@U?$less@K@std@@V?$allocator@U?$pair@$$CBKPAVCClientSockE@@@std@@@3@$0A@@std@@@std@@KAAAPAU_Node@?$_Tree_nod@V?$_Tmap_traits@KPAVCClientSockE@@U?$less@K@std@@V?$allocator@U?$pair@$$CBKPAVCClientSockE@@@std@@@3@$0A@@std@@@2@PAU342@@Z
_TEXT	SEGMENT PARA USE32 PUBLIC 'CODE'
_TEXT	ENDS
;	COMDAT ?_Myval@?$_Tree@V?$_Tmap_traits@KPAVCClientSockE@@U?$less@K@std@@V?$allocator@U?$pair@$$CBKPAVCClientSockE@@@std@@@3@$0A@@std@@@std@@KAAAU?$pair@$$CBKPAVCClientSockE@@@2@PAU_Node@?$_Tree_nod@V?$_Tmap_traits@KPAVCClientSockE@@U?$less@K@std@@V?$allocator@U?$pair@$$CBKPAVCClientSockE@@@std@@@3@$0A@@std@@@2@@Z
_TEXT	SEGMENT PARA USE32 PUBLIC 'CODE'
_TEXT	ENDS
;	COMDAT ?begin@?$_Tree@V?$_Tmap_traits@KPAVCClientSockE@@U?$less@K@std@@V?$allocator@U?$pair@$$CBKPAVCClientSockE@@@std@@@3@$0A@@std@@@std@@QAE?AViterator@12@XZ
_TEXT	SEGMENT PARA USE32 PUBLIC 'CODE'
_TEXT	ENDS
;	COMDAT ?erase@?$_Tree@V?$_Tmap_traits@KPAVCClientSockE@@U?$less@K@std@@V?$allocator@U?$pair@$$CBKPAVCClientSockE@@@std@@@3@$0A@@std@@@std@@QAE?AViterator@12@V312@0@Z
_TEXT	SEGMENT PARA USE32 PUBLIC 'CODE'
_TEXT	ENDS
;	COMDAT ?_Init@?$_Tree@V?$_Tmap_traits@KPAVCClientSockE@@U?$less@K@std@@V?$allocator@U?$pair@$$CBKPAVCClientSockE@@@std@@@3@$0A@@std@@@std@@IAEXXZ
_TEXT	SEGMENT PARA USE32 PUBLIC 'CODE'
_TEXT	ENDS
;	COMDAT ?_Lbound@?$_Tree@V?$_Tmap_traits@KPAVCClientSockE@@U?$less@K@std@@V?$allocator@U?$pair@$$CBKPAVCClientSockE@@@std@@@3@$0A@@std@@@std@@IBEPAU_Node@?$_Tree_nod@V?$_Tmap_traits@KPAVCClientSockE@@U?$less@K@std@@V?$allocator@U?$pair@$$CBKPAVCClientSockE@@@std@@@3@$0A@@std@@@2@ABK@Z
_TEXT	SEGMENT PARA USE32 PUBLIC 'CODE'
_TEXT	ENDS
;	COMDAT ??0?$_Tree_val@V?$_Tmap_traits@KPAVCClientSockE@@U?$less@K@std@@V?$allocator@U?$pair@$$CBKPAVCClientSockE@@@std@@@3@$0A@@std@@@std@@IAE@ABU?$less@K@1@V?$allocator@U?$pair@$$CBKPAVCClientSockE@@@std@@@1@@Z
_TEXT	SEGMENT PARA USE32 PUBLIC 'CODE'
_TEXT	ENDS
;	COMDAT ?_Kfn@?$_Tmap_traits@KPAVCClientSockE@@U?$less@K@std@@V?$allocator@U?$pair@$$CBKPAVCClientSockE@@@std@@@3@$0A@@std@@SAABKABU?$pair@$$CBKPAVCClientSockE@@@2@@Z
_TEXT	SEGMENT PARA USE32 PUBLIC 'CODE'
_TEXT	ENDS
;	COMDAT ??0?$allocator@U?$pair@$$CBKPAVCClientSockE@@@std@@@std@@QAE@ABV01@@Z
_TEXT	SEGMENT PARA USE32 PUBLIC 'CODE'
_TEXT	ENDS
;	COMDAT ?deallocate@?$allocator@U_Node@?$_Tree_nod@V?$_Tmap_traits@KPAVCClientSockE@@U?$less@K@std@@V?$allocator@U?$pair@$$CBKPAVCClientSockE@@@std@@@3@$0A@@std@@@std@@@std@@QAEXPAU_Node@?$_Tree_nod@V?$_Tmap_traits@KPAVCClientSockE@@U?$less@K@std@@V?$allocator@U?$pair@$$CBKPAVCClientSockE@@@std@@@3@$0A@@std@@@2@I@Z
_TEXT	SEGMENT PARA USE32 PUBLIC 'CODE'
_TEXT	ENDS
;	COMDAT ?destroy@?$allocator@PAU_Node@?$_Tree_nod@V?$_Tmap_traits@KPAVCClientSockE@@U?$less@K@std@@V?$allocator@U?$pair@$$CBKPAVCClientSockE@@@std@@@3@$0A@@std@@@std@@@std@@QAEXPAPAU_Node@?$_Tree_nod@V?$_Tmap_traits@KPAVCClientSockE@@U?$less@K@std@@V?$allocator@U?$pair@$$CBKPAVCClientSockE@@@std@@@3@$0A@@std@@@2@@Z
_TEXT	SEGMENT PARA USE32 PUBLIC 'CODE'
_TEXT	ENDS
;	COMDAT ??0const_iterator@?$_Tree@V?$_Tmap_traits@KPAVCClientSockE@@U?$less@K@std@@V?$allocator@U?$pair@$$CBKPAVCClientSockE@@@std@@@3@$0A@@std@@@std@@QAE@PAU_Node@?$_Tree_nod@V?$_Tmap_traits@KPAVCClientSockE@@U?$less@K@std@@V?$allocator@U?$pair@$$CBKPAVCClientSockE@@@std@@@3@$0A@@std@@@2@@Z
_TEXT	SEGMENT PARA USE32 PUBLIC 'CODE'
_TEXT	ENDS
;	COMDAT ??Dconst_iterator@?$_Tree@V?$_Tmap_traits@KPAVCClientSockE@@U?$less@K@std@@V?$allocator@U?$pair@$$CBKPAVCClientSockE@@@std@@@3@$0A@@std@@@std@@QBEABU?$pair@$$CBKPAVCClientSockE@@@2@XZ
_TEXT	SEGMENT PARA USE32 PUBLIC 'CODE'
_TEXT	ENDS
;	COMDAT ?_Myval@?$_Tree@V?$_Tmap_traits@KP8CDPSrvr@@AEXAAVCAr@@KKPAEK@ZU?$less@K@std@@V?$allocator@U?$pair@$$CBKP8CDPSrvr@@AEXAAVCAr@@KKPAEK@Z@std@@@4@$0A@@std@@@std@@KAAAU?$pair@$$CBKP8CDPSrvr@@AEXAAVCAr@@KKPAEK@Z@2@PAU_Node@?$_Tree_nod@V?$_Tmap_traits@KP8CDPSrvr@@AEXAAVCAr@@KKPAEK@ZU?$less@K@std@@V?$allocator@U?$pair@$$CBKP8CDPSrvr@@AEXAAVCAr@@KKPAEK@Z@std@@@4@$0A@@std@@@2@@Z
_TEXT	SEGMENT PARA USE32 PUBLIC 'CODE'
_TEXT	ENDS
;	COMDAT ?_Lbound@?$_Tree@V?$_Tmap_traits@KP8CDPSrvr@@AEXAAVCAr@@KKPAEK@ZU?$less@K@std@@V?$allocator@U?$pair@$$CBKP8CDPSrvr@@AEXAAVCAr@@KKPAEK@Z@std@@@4@$0A@@std@@@std@@IBEPAU_Node@?$_Tree_nod@V?$_Tmap_traits@KP8CDPSrvr@@AEXAAVCAr@@KKPAEK@ZU?$less@K@std@@V?$allocator@U?$pair@$$CBKP8CDPSrvr@@AEXAAVCAr@@KKPAEK@Z@std@@@4@$0A@@std@@@2@ABK@Z
_TEXT	SEGMENT PARA USE32 PUBLIC 'CODE'
_TEXT	ENDS
;	COMDAT ?_Kfn@?$_Tmap_traits@KP8CDPSrvr@@AEXAAVCAr@@KKPAEK@ZU?$less@K@std@@V?$allocator@U?$pair@$$CBKP8CDPSrvr@@AEXAAVCAr@@KKPAEK@Z@std@@@4@$0A@@std@@SAABKABU?$pair@$$CBKP8CDPSrvr@@AEXAAVCAr@@KKPAEK@Z@2@@Z
_TEXT	SEGMENT PARA USE32 PUBLIC 'CODE'
_TEXT	ENDS
;	COMDAT ??0const_iterator@?$_Tree@V?$_Tmap_traits@KP8CDPSrvr@@AEXAAVCAr@@KKPAEK@ZU?$less@K@std@@V?$allocator@U?$pair@$$CBKP8CDPSrvr@@AEXAAVCAr@@KKPAEK@Z@std@@@4@$0A@@std@@@std@@QAE@PAU_Node@?$_Tree_nod@V?$_Tmap_traits@KP8CDPSrvr@@AEXAAVCAr@@KKPAEK@ZU?$less@K@std@@V?$allocator@U?$pair@$$CBKP8CDPSrvr@@AEXAAVCAr@@KKPAEK@Z@std@@@4@$0A@@std@@@2@@Z
_TEXT	SEGMENT PARA USE32 PUBLIC 'CODE'
_TEXT	ENDS
;	COMDAT ??Dconst_iterator@?$_Tree@V?$_Tmap_traits@KP8CDPSrvr@@AEXAAVCAr@@KKPAEK@ZU?$less@K@std@@V?$allocator@U?$pair@$$CBKP8CDPSrvr@@AEXAAVCAr@@KKPAEK@Z@std@@@4@$0A@@std@@@std@@QBEABU?$pair@$$CBKP8CDPSrvr@@AEXAAVCAr@@KKPAEK@Z@2@XZ
_TEXT	SEGMENT PARA USE32 PUBLIC 'CODE'
_TEXT	ENDS
;	COMDAT ?_Myval@?$_Tree@V?$_Tmap_traits@KP8CDPCoreClient@@AEXAAVCAr@@KKK@ZU?$less@K@std@@V?$allocator@U?$pair@$$CBKP8CDPCoreClient@@AEXAAVCAr@@KKK@Z@std@@@4@$0A@@std@@@std@@KAAAU?$pair@$$CBKP8CDPCoreClient@@AEXAAVCAr@@KKK@Z@2@PAU_Node@?$_Tree_nod@V?$_Tmap_traits@KP8CDPCoreClient@@AEXAAVCAr@@KKK@ZU?$less@K@std@@V?$allocator@U?$pair@$$CBKP8CDPCoreClient@@AEXAAVCAr@@KKK@Z@std@@@4@$0A@@std@@@2@@Z
_TEXT	SEGMENT PARA USE32 PUBLIC 'CODE'
_TEXT	ENDS
;	COMDAT ?_Lbound@?$_Tree@V?$_Tmap_traits@KP8CDPCoreClient@@AEXAAVCAr@@KKK@ZU?$less@K@std@@V?$allocator@U?$pair@$$CBKP8CDPCoreClient@@AEXAAVCAr@@KKK@Z@std@@@4@$0A@@std@@@std@@IBEPAU_Node@?$_Tree_nod@V?$_Tmap_traits@KP8CDPCoreClient@@AEXAAVCAr@@KKK@ZU?$less@K@std@@V?$allocator@U?$pair@$$CBKP8CDPCoreClient@@AEXAAVCAr@@KKK@Z@std@@@4@$0A@@std@@@2@ABK@Z
_TEXT	SEGMENT PARA USE32 PUBLIC 'CODE'
_TEXT	ENDS
;	COMDAT ?_Kfn@?$_Tmap_traits@KP8CDPCoreClient@@AEXAAVCAr@@KKK@ZU?$less@K@std@@V?$allocator@U?$pair@$$CBKP8CDPCoreClient@@AEXAAVCAr@@KKK@Z@std@@@4@$0A@@std@@SAABKABU?$pair@$$CBKP8CDPCoreClient@@AEXAAVCAr@@KKK@Z@2@@Z
_TEXT	SEGMENT PARA USE32 PUBLIC 'CODE'
_TEXT	ENDS
;	COMDAT ??0const_iterator@?$_Tree@V?$_Tmap_traits@KP8CDPCoreClient@@AEXAAVCAr@@KKK@ZU?$less@K@std@@V?$allocator@U?$pair@$$CBKP8CDPCoreClient@@AEXAAVCAr@@KKK@Z@std@@@4@$0A@@std@@@std@@QAE@PAU_Node@?$_Tree_nod@V?$_Tmap_traits@KP8CDPCoreClient@@AEXAAVCAr@@KKK@ZU?$less@K@std@@V?$allocator@U?$pair@$$CBKP8CDPCoreClient@@AEXAAVCAr@@KKK@Z@std@@@4@$0A@@std@@@2@@Z
_TEXT	SEGMENT PARA USE32 PUBLIC 'CODE'
_TEXT	ENDS
;	COMDAT ??Dconst_iterator@?$_Tree@V?$_Tmap_traits@KP8CDPCoreClient@@AEXAAVCAr@@KKK@ZU?$less@K@std@@V?$allocator@U?$pair@$$CBKP8CDPCoreClient@@AEXAAVCAr@@KKK@Z@std@@@4@$0A@@std@@@std@@QBEABU?$pair@$$CBKP8CDPCoreClient@@AEXAAVCAr@@KKK@Z@2@XZ
_TEXT	SEGMENT PARA USE32 PUBLIC 'CODE'
_TEXT	ENDS
;	COMDAT ??0iterator@?$vector@KV?$allocator@K@std@@@std@@QAE@PAK@Z
_TEXT	SEGMENT PARA USE32 PUBLIC 'CODE'
_TEXT	ENDS
;	COMDAT ??Yiterator@?$vector@KV?$allocator@K@std@@@std@@QAEAAV012@H@Z
_TEXT	SEGMENT PARA USE32 PUBLIC 'CODE'
_TEXT	ENDS
;	COMDAT ??Dconst_iterator@?$vector@KV?$allocator@K@std@@@std@@QBEABKXZ
_TEXT	SEGMENT PARA USE32 PUBLIC 'CODE'
_TEXT	ENDS
;	COMDAT ??0iterator@?$vector@PAVCObj@@V?$allocator@PAVCObj@@@std@@@std@@QAE@PAPAVCObj@@@Z
_TEXT	SEGMENT PARA USE32 PUBLIC 'CODE'
_TEXT	ENDS
;	COMDAT ??Yiterator@?$vector@PAVCObj@@V?$allocator@PAVCObj@@@std@@@std@@QAEAAV012@H@Z
_TEXT	SEGMENT PARA USE32 PUBLIC 'CODE'
_TEXT	ENDS
;	COMDAT ??Dconst_iterator@?$vector@PAVCObj@@V?$allocator@PAVCObj@@@std@@@std@@QBEABQAVCObj@@XZ
_TEXT	SEGMENT PARA USE32 PUBLIC 'CODE'
_TEXT	ENDS
;	COMDAT ??0iterator@?$vector@VCGuildCombat1to1@@V?$allocator@VCGuildCombat1to1@@@std@@@std@@QAE@PAVCGuildCombat1to1@@@Z
_TEXT	SEGMENT PARA USE32 PUBLIC 'CODE'
_TEXT	ENDS
;	COMDAT ??Yiterator@?$vector@VCGuildCombat1to1@@V?$allocator@VCGuildCombat1to1@@@std@@@std@@QAEAAV012@H@Z
_TEXT	SEGMENT PARA USE32 PUBLIC 'CODE'
_TEXT	ENDS
;	COMDAT ??Dconst_iterator@?$vector@VCGuildCombat1to1@@V?$allocator@VCGuildCombat1to1@@@std@@@std@@QBEABVCGuildCombat1to1@@XZ
_TEXT	SEGMENT PARA USE32 PUBLIC 'CODE'
_TEXT	ENDS
;	COMDAT ??0iterator@?$vector@U__GC1TO1TENDER@CGuildCombat1to1Mng@@V?$allocator@U__GC1TO1TENDER@CGuildCombat1to1Mng@@@std@@@std@@QAE@PAU__GC1TO1TENDER@CGuildCombat1to1Mng@@@Z
_TEXT	SEGMENT PARA USE32 PUBLIC 'CODE'
_TEXT	ENDS
;	COMDAT ??Yiterator@?$vector@U__GC1TO1TENDER@CGuildCombat1to1Mng@@V?$allocator@U__GC1TO1TENDER@CGuildCombat1to1Mng@@@std@@@std@@QAEAAV012@H@Z
_TEXT	SEGMENT PARA USE32 PUBLIC 'CODE'
_TEXT	ENDS
;	COMDAT ??Dconst_iterator@?$vector@U__GC1TO1TENDER@CGuildCombat1to1Mng@@V?$allocator@U__GC1TO1TENDER@CGuildCombat1to1Mng@@@std@@@std@@QBEABU__GC1TO1TENDER@CGuildCombat1to1Mng@@XZ
_TEXT	SEGMENT PARA USE32 PUBLIC 'CODE'
_TEXT	ENDS
;	COMDAT ??0?$pair@Viterator@?$_Tree@V?$_Tmap_traits@KKU?$less@K@std@@V?$allocator@U?$pair@$$CBKK@std@@@2@$0A@@std@@@std@@V123@@std@@QAE@ABViterator@?$_Tree@V?$_Tmap_traits@KKU?$less@K@std@@V?$allocator@U?$pair@$$CBKK@std@@@2@$0A@@std@@@1@0@Z
_TEXT	SEGMENT PARA USE32 PUBLIC 'CODE'
_TEXT	ENDS
;	COMDAT ??0?$pair@Viterator@?$_Tree@V?$_Tmap_traits@KU_Friend@@U?$less@K@std@@V?$allocator@U?$pair@$$CBKU_Friend@@@std@@@3@$0A@@std@@@std@@V123@@std@@QAE@ABViterator@?$_Tree@V?$_Tmap_traits@KU_Friend@@U?$less@K@std@@V?$allocator@U?$pair@$$CBKU_Friend@@@std@@@3@$0A@@std@@@1@0@Z
_TEXT	SEGMENT PARA USE32 PUBLIC 'CODE'
_TEXT	ENDS
;	COMDAT ??0iterator@?$vector@PAU__JOINPLAYER@CGuildCombat@@V?$allocator@PAU__JOINPLAYER@CGuildCombat@@@std@@@std@@QAE@PAPAU__JOINPLAYER@CGuildCombat@@@Z
_TEXT	SEGMENT PARA USE32 PUBLIC 'CODE'
_TEXT	ENDS
;	COMDAT ??Yiterator@?$vector@PAU__JOINPLAYER@CGuildCombat@@V?$allocator@PAU__JOINPLAYER@CGuildCombat@@@std@@@std@@QAEAAV012@H@Z
_TEXT	SEGMENT PARA USE32 PUBLIC 'CODE'
_TEXT	ENDS
;	COMDAT ??Dconst_iterator@?$vector@PAU__JOINPLAYER@CGuildCombat@@V?$allocator@PAU__JOINPLAYER@CGuildCombat@@@std@@@std@@QBEABQAU__JOINPLAYER@CGuildCombat@@XZ
_TEXT	SEGMENT PARA USE32 PUBLIC 'CODE'
_TEXT	ENDS
;	COMDAT ??0iterator@?$vector@V?$basic_string@DU?$char_traits@D@std@@V?$allocator@D@2@@std@@V?$allocator@V?$basic_string@DU?$char_traits@D@std@@V?$allocator@D@2@@std@@@2@@std@@QAE@PAV?$basic_string@DU?$char_traits@D@std@@V?$allocator@D@2@@2@@Z
_TEXT	SEGMENT PARA USE32 PUBLIC 'CODE'
_TEXT	ENDS
;	COMDAT ??Yiterator@?$vector@V?$basic_string@DU?$char_traits@D@std@@V?$allocator@D@2@@std@@V?$allocator@V?$basic_string@DU?$char_traits@D@std@@V?$allocator@D@2@@std@@@2@@std@@QAEAAV012@H@Z
_TEXT	SEGMENT PARA USE32 PUBLIC 'CODE'
_TEXT	ENDS
;	COMDAT ??Giterator@?$vector@V?$basic_string@DU?$char_traits@D@std@@V?$allocator@D@2@@std@@V?$allocator@V?$basic_string@DU?$char_traits@D@std@@V?$allocator@D@2@@std@@@2@@std@@QBEHABVconst_iterator@12@@Z
_TEXT	SEGMENT PARA USE32 PUBLIC 'CODE'
_TEXT	ENDS
;	COMDAT ??Dconst_iterator@?$vector@V?$basic_string@DU?$char_traits@D@std@@V?$allocator@D@2@@std@@V?$allocator@V?$basic_string@DU?$char_traits@D@std@@V?$allocator@D@2@@std@@@2@@std@@QBEABV?$basic_string@DU?$char_traits@D@std@@V?$allocator@D@2@@2@XZ
_TEXT	SEGMENT PARA USE32 PUBLIC 'CODE'
_TEXT	ENDS
;	COMDAT ??0iterator@?$vector@UMINIGMAME_PRIZE_LIST@CRainbowRaceMng@@V?$allocator@UMINIGMAME_PRIZE_LIST@CRainbowRaceMng@@@std@@@std@@QAE@PAUMINIGMAME_PRIZE_LIST@CRainbowRaceMng@@@Z
_TEXT	SEGMENT PARA USE32 PUBLIC 'CODE'
_TEXT	ENDS
;	COMDAT ??Hiterator@?$vector@UMINIGMAME_PRIZE_LIST@CRainbowRaceMng@@V?$allocator@UMINIGMAME_PRIZE_LIST@CRainbowRaceMng@@@std@@@std@@QBE?AV012@H@Z
_TEXT	SEGMENT PARA USE32 PUBLIC 'CODE'
_TEXT	ENDS
;	COMDAT ??Giterator@?$vector@UMINIGMAME_PRIZE_LIST@CRainbowRaceMng@@V?$allocator@UMINIGMAME_PRIZE_LIST@CRainbowRaceMng@@@std@@@std@@QBEHABVconst_iterator@12@@Z
_TEXT	SEGMENT PARA USE32 PUBLIC 'CODE'
_TEXT	ENDS
;	COMDAT ??0iterator@?$vector@PAVCMiniGameBase@@V?$allocator@PAVCMiniGameBase@@@std@@@std@@QAE@PAPAVCMiniGameBase@@@Z
_TEXT	SEGMENT PARA USE32 PUBLIC 'CODE'
_TEXT	ENDS
;	COMDAT ??Yiterator@?$vector@PAVCMiniGameBase@@V?$allocator@PAVCMiniGameBase@@@std@@@std@@QAEAAV012@H@Z
_TEXT	SEGMENT PARA USE32 PUBLIC 'CODE'
_TEXT	ENDS
;	COMDAT ??Dconst_iterator@?$vector@PAVCMiniGameBase@@V?$allocator@PAVCMiniGameBase@@@std@@@std@@QBEABQAVCMiniGameBase@@XZ
_TEXT	SEGMENT PARA USE32 PUBLIC 'CODE'
_TEXT	ENDS
;	COMDAT ??0iterator@?$vector@UGuildHouse_Furniture_Info@CGuildHouseBase@@V?$allocator@UGuildHouse_Furniture_Info@CGuildHouseBase@@@std@@@std@@QAE@PAUGuildHouse_Furniture_Info@CGuildHouseBase@@@Z
_TEXT	SEGMENT PARA USE32 PUBLIC 'CODE'
_TEXT	ENDS
;	COMDAT ??Yiterator@?$vector@UGuildHouse_Furniture_Info@CGuildHouseBase@@V?$allocator@UGuildHouse_Furniture_Info@CGuildHouseBase@@@std@@@std@@QAEAAV012@H@Z
_TEXT	SEGMENT PARA USE32 PUBLIC 'CODE'
_TEXT	ENDS
;	COMDAT ??Dconst_iterator@?$vector@UGuildHouse_Furniture_Info@CGuildHouseBase@@V?$allocator@UGuildHouse_Furniture_Info@CGuildHouseBase@@@std@@@std@@QBEABUGuildHouse_Furniture_Info@CGuildHouseBase@@XZ
_TEXT	SEGMENT PARA USE32 PUBLIC 'CODE'
_TEXT	ENDS
;	COMDAT ?max_size@?$allocator@V?$basic_string@DU?$char_traits@D@std@@V?$allocator@D@2@@std@@@std@@QBEIXZ
_TEXT	SEGMENT PARA USE32 PUBLIC 'CODE'
_TEXT	ENDS
;	COMDAT ??0const_iterator@?$_Tree@V?$_Tmap_traits@KPAVCCtrl@@U?$less@K@std@@V?$allocator@U?$pair@$$CBKPAVCCtrl@@@std@@@3@$0A@@std@@@std@@QAE@XZ
_TEXT	SEGMENT PARA USE32 PUBLIC 'CODE'
_TEXT	ENDS
;	COMDAT ?destroy@?$allocator@PAUtagACTMSG@@@std@@QAEXPAPAUtagACTMSG@@@Z
_TEXT	SEGMENT PARA USE32 PUBLIC 'CODE'
_TEXT	ENDS
;	COMDAT ?destroy@?$allocator@PAUtagMAGICATKMSG@@@std@@QAEXPAPAUtagMAGICATKMSG@@@Z
_TEXT	SEGMENT PARA USE32 PUBLIC 'CODE'
_TEXT	ENDS
;	COMDAT ?max_size@?$allocator@UENVIR_INFO@@@std@@QBEIXZ
_TEXT	SEGMENT PARA USE32 PUBLIC 'CODE'
_TEXT	ENDS
;	COMDAT ?max_size@?$allocator@PAVCObj@@@std@@QBEIXZ
_TEXT	SEGMENT PARA USE32 PUBLIC 'CODE'
_TEXT	ENDS
;	COMDAT ?_Color@?$_Tree@V?$_Tmap_traits@KKU?$less@K@std@@V?$allocator@U?$pair@$$CBKK@std@@@2@$0A@@std@@@std@@KAAADPAU_Node@?$_Tree_nod@V?$_Tmap_traits@KKU?$less@K@std@@V?$allocator@U?$pair@$$CBKK@std@@@2@$0A@@std@@@2@@Z
_TEXT	SEGMENT PARA USE32 PUBLIC 'CODE'
_TEXT	ENDS
;	COMDAT ?_Isnil@?$_Tree@V?$_Tmap_traits@KKU?$less@K@std@@V?$allocator@U?$pair@$$CBKK@std@@@2@$0A@@std@@@std@@KAAADPAU_Node@?$_Tree_nod@V?$_Tmap_traits@KKU?$less@K@std@@V?$allocator@U?$pair@$$CBKK@std@@@2@$0A@@std@@@2@@Z
_TEXT	SEGMENT PARA USE32 PUBLIC 'CODE'
_TEXT	ENDS
;	COMDAT ?_Left@?$_Tree@V?$_Tmap_traits@KKU?$less@K@std@@V?$allocator@U?$pair@$$CBKK@std@@@2@$0A@@std@@@std@@KAAAPAU_Node@?$_Tree_nod@V?$_Tmap_traits@KKU?$less@K@std@@V?$allocator@U?$pair@$$CBKK@std@@@2@$0A@@std@@@2@PAU342@@Z
_TEXT	SEGMENT PARA USE32 PUBLIC 'CODE'
_TEXT	ENDS
;	COMDAT ?_Parent@?$_Tree@V?$_Tmap_traits@KKU?$less@K@std@@V?$allocator@U?$pair@$$CBKK@std@@@2@$0A@@std@@@std@@KAAAPAU_Node@?$_Tree_nod@V?$_Tmap_traits@KKU?$less@K@std@@V?$allocator@U?$pair@$$CBKK@std@@@2@$0A@@std@@@2@PAU342@@Z
_TEXT	SEGMENT PARA USE32 PUBLIC 'CODE'
_TEXT	ENDS
;	COMDAT ?_Right@?$_Tree@V?$_Tmap_traits@KKU?$less@K@std@@V?$allocator@U?$pair@$$CBKK@std@@@2@$0A@@std@@@std@@KAAAPAU_Node@?$_Tree_nod@V?$_Tmap_traits@KKU?$less@K@std@@V?$allocator@U?$pair@$$CBKK@std@@@2@$0A@@std@@@2@PAU342@@Z
_TEXT	SEGMENT PARA USE32 PUBLIC 'CODE'
_TEXT	ENDS
;	COMDAT ?_Erase@?$_Tree@V?$_Tmap_traits@KKU?$less@K@std@@V?$allocator@U?$pair@$$CBKK@std@@@2@$0A@@std@@@std@@IAEXPAU_Node@?$_Tree_nod@V?$_Tmap_traits@KKU?$less@K@std@@V?$allocator@U?$pair@$$CBKK@std@@@2@$0A@@std@@@2@@Z
_TEXT	SEGMENT PARA USE32 PUBLIC 'CODE'
_TEXT	ENDS
;	COMDAT ?_Lbound@?$_Tree@V?$_Tmap_traits@KKU?$less@K@std@@V?$allocator@U?$pair@$$CBKK@std@@@2@$0A@@std@@@std@@IBEPAU_Node@?$_Tree_nod@V?$_Tmap_traits@KKU?$less@K@std@@V?$allocator@U?$pair@$$CBKK@std@@@2@$0A@@std@@@2@ABK@Z
_TEXT	SEGMENT PARA USE32 PUBLIC 'CODE'
_TEXT	ENDS
;	COMDAT ?_Lmost@?$_Tree@V?$_Tmap_traits@KKU?$less@K@std@@V?$allocator@U?$pair@$$CBKK@std@@@2@$0A@@std@@@std@@IAEAAPAU_Node@?$_Tree_nod@V?$_Tmap_traits@KKU?$less@K@std@@V?$allocator@U?$pair@$$CBKK@std@@@2@$0A@@std@@@2@XZ
_TEXT	SEGMENT PARA USE32 PUBLIC 'CODE'
_TEXT	ENDS
;	COMDAT ?_Lrotate@?$_Tree@V?$_Tmap_traits@KKU?$less@K@std@@V?$allocator@U?$pair@$$CBKK@std@@@2@$0A@@std@@@std@@IAEXPAU_Node@?$_Tree_nod@V?$_Tmap_traits@KKU?$less@K@std@@V?$allocator@U?$pair@$$CBKK@std@@@2@$0A@@std@@@2@@Z
_TEXT	SEGMENT PARA USE32 PUBLIC 'CODE'
_TEXT	ENDS
;	COMDAT ?_Max@?$_Tree@V?$_Tmap_traits@KKU?$less@K@std@@V?$allocator@U?$pair@$$CBKK@std@@@2@$0A@@std@@@std@@KAPAU_Node@?$_Tree_nod@V?$_Tmap_traits@KKU?$less@K@std@@V?$allocator@U?$pair@$$CBKK@std@@@2@$0A@@std@@@2@PAU342@@Z
_TEXT	SEGMENT PARA USE32 PUBLIC 'CODE'
_TEXT	ENDS
;	COMDAT ?_Min@?$_Tree@V?$_Tmap_traits@KKU?$less@K@std@@V?$allocator@U?$pair@$$CBKK@std@@@2@$0A@@std@@@std@@KAPAU_Node@?$_Tree_nod@V?$_Tmap_traits@KKU?$less@K@std@@V?$allocator@U?$pair@$$CBKK@std@@@2@$0A@@std@@@2@PAU342@@Z
_TEXT	SEGMENT PARA USE32 PUBLIC 'CODE'
_TEXT	ENDS
;	COMDAT ?_Rmost@?$_Tree@V?$_Tmap_traits@KKU?$less@K@std@@V?$allocator@U?$pair@$$CBKK@std@@@2@$0A@@std@@@std@@IAEAAPAU_Node@?$_Tree_nod@V?$_Tmap_traits@KKU?$less@K@std@@V?$allocator@U?$pair@$$CBKK@std@@@2@$0A@@std@@@2@XZ
_TEXT	SEGMENT PARA USE32 PUBLIC 'CODE'
_TEXT	ENDS
;	COMDAT ?_Root@?$_Tree@V?$_Tmap_traits@KKU?$less@K@std@@V?$allocator@U?$pair@$$CBKK@std@@@2@$0A@@std@@@std@@IAEAAPAU_Node@?$_Tree_nod@V?$_Tmap_traits@KKU?$less@K@std@@V?$allocator@U?$pair@$$CBKK@std@@@2@$0A@@std@@@2@XZ
_TEXT	SEGMENT PARA USE32 PUBLIC 'CODE'
_TEXT	ENDS
;	COMDAT ?_Rrotate@?$_Tree@V?$_Tmap_traits@KKU?$less@K@std@@V?$allocator@U?$pair@$$CBKK@std@@@2@$0A@@std@@@std@@IAEXPAU_Node@?$_Tree_nod@V?$_Tmap_traits@KKU?$less@K@std@@V?$allocator@U?$pair@$$CBKK@std@@@2@$0A@@std@@@2@@Z
_TEXT	SEGMENT PARA USE32 PUBLIC 'CODE'
_TEXT	ENDS
;	COMDAT ?_Ubound@?$_Tree@V?$_Tmap_traits@KKU?$less@K@std@@V?$allocator@U?$pair@$$CBKK@std@@@2@$0A@@std@@@std@@IBEPAU_Node@?$_Tree_nod@V?$_Tmap_traits@KKU?$less@K@std@@V?$allocator@U?$pair@$$CBKK@std@@@2@$0A@@std@@@2@ABK@Z
_TEXT	SEGMENT PARA USE32 PUBLIC 'CODE'
_TEXT	ENDS
;	COMDAT ?deallocate@?$allocator@U_Node@?$_Tree_nod@V?$_Tmap_traits@KKU?$less@K@std@@V?$allocator@U?$pair@$$CBKK@std@@@2@$0A@@std@@@std@@@std@@QAEXPAU_Node@?$_Tree_nod@V?$_Tmap_traits@KKU?$less@K@std@@V?$allocator@U?$pair@$$CBKK@std@@@2@$0A@@std@@@2@I@Z
_TEXT	SEGMENT PARA USE32 PUBLIC 'CODE'
_TEXT	ENDS
;	COMDAT ?destroy@?$allocator@U_Node@?$_Tree_nod@V?$_Tmap_traits@KKU?$less@K@std@@V?$allocator@U?$pair@$$CBKK@std@@@2@$0A@@std@@@std@@@std@@QAEXPAU_Node@?$_Tree_nod@V?$_Tmap_traits@KKU?$less@K@std@@V?$allocator@U?$pair@$$CBKK@std@@@2@$0A@@std@@@2@@Z
_TEXT	SEGMENT PARA USE32 PUBLIC 'CODE'
_TEXT	ENDS
;	COMDAT ?_Color@?$_Tree@V?$_Tmap_traits@KU_Friend@@U?$less@K@std@@V?$allocator@U?$pair@$$CBKU_Friend@@@std@@@3@$0A@@std@@@std@@KAAADPAU_Node@?$_Tree_nod@V?$_Tmap_traits@KU_Friend@@U?$less@K@std@@V?$allocator@U?$pair@$$CBKU_Friend@@@std@@@3@$0A@@std@@@2@@Z
_TEXT	SEGMENT PARA USE32 PUBLIC 'CODE'
_TEXT	ENDS
;	COMDAT ?_Isnil@?$_Tree@V?$_Tmap_traits@KU_Friend@@U?$less@K@std@@V?$allocator@U?$pair@$$CBKU_Friend@@@std@@@3@$0A@@std@@@std@@KAAADPAU_Node@?$_Tree_nod@V?$_Tmap_traits@KU_Friend@@U?$less@K@std@@V?$allocator@U?$pair@$$CBKU_Friend@@@std@@@3@$0A@@std@@@2@@Z
_TEXT	SEGMENT PARA USE32 PUBLIC 'CODE'
_TEXT	ENDS
;	COMDAT ?_Left@?$_Tree@V?$_Tmap_traits@KU_Friend@@U?$less@K@std@@V?$allocator@U?$pair@$$CBKU_Friend@@@std@@@3@$0A@@std@@@std@@KAAAPAU_Node@?$_Tree_nod@V?$_Tmap_traits@KU_Friend@@U?$less@K@std@@V?$allocator@U?$pair@$$CBKU_Friend@@@std@@@3@$0A@@std@@@2@PAU342@@Z
_TEXT	SEGMENT PARA USE32 PUBLIC 'CODE'
_TEXT	ENDS
;	COMDAT ?_Parent@?$_Tree@V?$_Tmap_traits@KU_Friend@@U?$less@K@std@@V?$allocator@U?$pair@$$CBKU_Friend@@@std@@@3@$0A@@std@@@std@@KAAAPAU_Node@?$_Tree_nod@V?$_Tmap_traits@KU_Friend@@U?$less@K@std@@V?$allocator@U?$pair@$$CBKU_Friend@@@std@@@3@$0A@@std@@@2@PAU342@@Z
_TEXT	SEGMENT PARA USE32 PUBLIC 'CODE'
_TEXT	ENDS
;	COMDAT ?_Right@?$_Tree@V?$_Tmap_traits@KU_Friend@@U?$less@K@std@@V?$allocator@U?$pair@$$CBKU_Friend@@@std@@@3@$0A@@std@@@std@@KAAAPAU_Node@?$_Tree_nod@V?$_Tmap_traits@KU_Friend@@U?$less@K@std@@V?$allocator@U?$pair@$$CBKU_Friend@@@std@@@3@$0A@@std@@@2@PAU342@@Z
_TEXT	SEGMENT PARA USE32 PUBLIC 'CODE'
_TEXT	ENDS
;	COMDAT ?_Erase@?$_Tree@V?$_Tmap_traits@KU_Friend@@U?$less@K@std@@V?$allocator@U?$pair@$$CBKU_Friend@@@std@@@3@$0A@@std@@@std@@IAEXPAU_Node@?$_Tree_nod@V?$_Tmap_traits@KU_Friend@@U?$less@K@std@@V?$allocator@U?$pair@$$CBKU_Friend@@@std@@@3@$0A@@std@@@2@@Z
_TEXT	SEGMENT PARA USE32 PUBLIC 'CODE'
_TEXT	ENDS
;	COMDAT ?_Lbound@?$_Tree@V?$_Tmap_traits@KU_Friend@@U?$less@K@std@@V?$allocator@U?$pair@$$CBKU_Friend@@@std@@@3@$0A@@std@@@std@@IBEPAU_Node@?$_Tree_nod@V?$_Tmap_traits@KU_Friend@@U?$less@K@std@@V?$allocator@U?$pair@$$CBKU_Friend@@@std@@@3@$0A@@std@@@2@ABK@Z
_TEXT	SEGMENT PARA USE32 PUBLIC 'CODE'
_TEXT	ENDS
;	COMDAT ?_Lmost@?$_Tree@V?$_Tmap_traits@KU_Friend@@U?$less@K@std@@V?$allocator@U?$pair@$$CBKU_Friend@@@std@@@3@$0A@@std@@@std@@IAEAAPAU_Node@?$_Tree_nod@V?$_Tmap_traits@KU_Friend@@U?$less@K@std@@V?$allocator@U?$pair@$$CBKU_Friend@@@std@@@3@$0A@@std@@@2@XZ
_TEXT	SEGMENT PARA USE32 PUBLIC 'CODE'
_TEXT	ENDS
;	COMDAT ?_Lrotate@?$_Tree@V?$_Tmap_traits@KU_Friend@@U?$less@K@std@@V?$allocator@U?$pair@$$CBKU_Friend@@@std@@@3@$0A@@std@@@std@@IAEXPAU_Node@?$_Tree_nod@V?$_Tmap_traits@KU_Friend@@U?$less@K@std@@V?$allocator@U?$pair@$$CBKU_Friend@@@std@@@3@$0A@@std@@@2@@Z
_TEXT	SEGMENT PARA USE32 PUBLIC 'CODE'
_TEXT	ENDS
;	COMDAT ?_Max@?$_Tree@V?$_Tmap_traits@KU_Friend@@U?$less@K@std@@V?$allocator@U?$pair@$$CBKU_Friend@@@std@@@3@$0A@@std@@@std@@KAPAU_Node@?$_Tree_nod@V?$_Tmap_traits@KU_Friend@@U?$less@K@std@@V?$allocator@U?$pair@$$CBKU_Friend@@@std@@@3@$0A@@std@@@2@PAU342@@Z
_TEXT	SEGMENT PARA USE32 PUBLIC 'CODE'
_TEXT	ENDS
;	COMDAT ?_Min@?$_Tree@V?$_Tmap_traits@KU_Friend@@U?$less@K@std@@V?$allocator@U?$pair@$$CBKU_Friend@@@std@@@3@$0A@@std@@@std@@KAPAU_Node@?$_Tree_nod@V?$_Tmap_traits@KU_Friend@@U?$less@K@std@@V?$allocator@U?$pair@$$CBKU_Friend@@@std@@@3@$0A@@std@@@2@PAU342@@Z
_TEXT	SEGMENT PARA USE32 PUBLIC 'CODE'
_TEXT	ENDS
;	COMDAT ?_Rmost@?$_Tree@V?$_Tmap_traits@KU_Friend@@U?$less@K@std@@V?$allocator@U?$pair@$$CBKU_Friend@@@std@@@3@$0A@@std@@@std@@IAEAAPAU_Node@?$_Tree_nod@V?$_Tmap_traits@KU_Friend@@U?$less@K@std@@V?$allocator@U?$pair@$$CBKU_Friend@@@std@@@3@$0A@@std@@@2@XZ
_TEXT	SEGMENT PARA USE32 PUBLIC 'CODE'
_TEXT	ENDS
;	COMDAT ?_Root@?$_Tree@V?$_Tmap_traits@KU_Friend@@U?$less@K@std@@V?$allocator@U?$pair@$$CBKU_Friend@@@std@@@3@$0A@@std@@@std@@IAEAAPAU_Node@?$_Tree_nod@V?$_Tmap_traits@KU_Friend@@U?$less@K@std@@V?$allocator@U?$pair@$$CBKU_Friend@@@std@@@3@$0A@@std@@@2@XZ
_TEXT	SEGMENT PARA USE32 PUBLIC 'CODE'
_TEXT	ENDS
;	COMDAT ?_Rrotate@?$_Tree@V?$_Tmap_traits@KU_Friend@@U?$less@K@std@@V?$allocator@U?$pair@$$CBKU_Friend@@@std@@@3@$0A@@std@@@std@@IAEXPAU_Node@?$_Tree_nod@V?$_Tmap_traits@KU_Friend@@U?$less@K@std@@V?$allocator@U?$pair@$$CBKU_Friend@@@std@@@3@$0A@@std@@@2@@Z
_TEXT	SEGMENT PARA USE32 PUBLIC 'CODE'
_TEXT	ENDS
;	COMDAT ?_Ubound@?$_Tree@V?$_Tmap_traits@KU_Friend@@U?$less@K@std@@V?$allocator@U?$pair@$$CBKU_Friend@@@std@@@3@$0A@@std@@@std@@IBEPAU_Node@?$_Tree_nod@V?$_Tmap_traits@KU_Friend@@U?$less@K@std@@V?$allocator@U?$pair@$$CBKU_Friend@@@std@@@3@$0A@@std@@@2@ABK@Z
_TEXT	SEGMENT PARA USE32 PUBLIC 'CODE'
_TEXT	ENDS
;	COMDAT ?deallocate@?$allocator@U_Node@?$_Tree_nod@V?$_Tmap_traits@KU_Friend@@U?$less@K@std@@V?$allocator@U?$pair@$$CBKU_Friend@@@std@@@3@$0A@@std@@@std@@@std@@QAEXPAU_Node@?$_Tree_nod@V?$_Tmap_traits@KU_Friend@@U?$less@K@std@@V?$allocator@U?$pair@$$CBKU_Friend@@@std@@@3@$0A@@std@@@2@I@Z
_TEXT	SEGMENT PARA USE32 PUBLIC 'CODE'
_TEXT	ENDS
;	COMDAT ?destroy@?$allocator@U_Node@?$_Tree_nod@V?$_Tmap_traits@KU_Friend@@U?$less@K@std@@V?$allocator@U?$pair@$$CBKU_Friend@@@std@@@3@$0A@@std@@@std@@@std@@QAEXPAU_Node@?$_Tree_nod@V?$_Tmap_traits@KU_Friend@@U?$less@K@std@@V?$allocator@U?$pair@$$CBKU_Friend@@@std@@@3@$0A@@std@@@2@@Z
_TEXT	SEGMENT PARA USE32 PUBLIC 'CODE'
_TEXT	ENDS
;	COMDAT ??0iterator@?$_Tree@V?$_Tmap_traits@KU_Friend@@U?$less@K@std@@V?$allocator@U?$pair@$$CBKU_Friend@@@std@@@3@$0A@@std@@@std@@QAE@PAU_Node@?$_Tree_nod@V?$_Tmap_traits@KU_Friend@@U?$less@K@std@@V?$allocator@U?$pair@$$CBKU_Friend@@@std@@@3@$0A@@std@@@2@@Z
_TEXT	SEGMENT PARA USE32 PUBLIC 'CODE'
_TEXT	ENDS
;	COMDAT ??Eiterator@?$_Tree@V?$_Tmap_traits@KU_Friend@@U?$less@K@std@@V?$allocator@U?$pair@$$CBKU_Friend@@@std@@@3@$0A@@std@@@std@@QAEAAV012@XZ
_TEXT	SEGMENT PARA USE32 PUBLIC 'CODE'
_TEXT	ENDS
;	COMDAT ?_Mynode@const_iterator@?$_Tree@V?$_Tmap_traits@KU_Friend@@U?$less@K@std@@V?$allocator@U?$pair@$$CBKU_Friend@@@std@@@3@$0A@@std@@@std@@QBEPAU_Node@?$_Tree_nod@V?$_Tmap_traits@KU_Friend@@U?$less@K@std@@V?$allocator@U?$pair@$$CBKU_Friend@@@std@@@3@$0A@@std@@@3@XZ
_TEXT	SEGMENT PARA USE32 PUBLIC 'CODE'
_TEXT	ENDS
;	COMDAT ?max_size@?$allocator@U__SECRETROOM_MONSTER@@@std@@QBEIXZ
_TEXT	SEGMENT PARA USE32 PUBLIC 'CODE'
_TEXT	ENDS
;	COMDAT ?max_size@?$vector@UMINIGMAME_PRIZE_LIST@CRainbowRaceMng@@V?$allocator@UMINIGMAME_PRIZE_LIST@CRainbowRaceMng@@@std@@@std@@QBEIXZ
_TEXT	SEGMENT PARA USE32 PUBLIC 'CODE'
_TEXT	ENDS
;	COMDAT ?_Destroy@?$vector@UMINIGMAME_PRIZE_LIST@CRainbowRaceMng@@V?$allocator@UMINIGMAME_PRIZE_LIST@CRainbowRaceMng@@@std@@@std@@IAEXPAUMINIGMAME_PRIZE_LIST@CRainbowRaceMng@@0@Z
_TEXT	SEGMENT PARA USE32 PUBLIC 'CODE'
_TEXT	ENDS
;	COMDAT ?_Xlen@?$vector@UMINIGMAME_PRIZE_LIST@CRainbowRaceMng@@V?$allocator@UMINIGMAME_PRIZE_LIST@CRainbowRaceMng@@@std@@@std@@IBEXXZ
_TEXT	SEGMENT PARA USE32 PUBLIC 'CODE'
_TEXT	ENDS
;	COMDAT ?deallocate@?$allocator@UMINIGMAME_PRIZE_LIST@CRainbowRaceMng@@@std@@QAEXPAUMINIGMAME_PRIZE_LIST@CRainbowRaceMng@@I@Z
_TEXT	SEGMENT PARA USE32 PUBLIC 'CODE'
_TEXT	ENDS
;	COMDAT ?allocate@?$allocator@UMINIGMAME_PRIZE_LIST@CRainbowRaceMng@@@std@@QAEPAUMINIGMAME_PRIZE_LIST@CRainbowRaceMng@@I@Z
_TEXT	SEGMENT PARA USE32 PUBLIC 'CODE'
_TEXT	ENDS
;	COMDAT ?max_size@?$allocator@U?$pair@$$CBKPAVCGuildHouseBase@@@std@@@std@@QBEIXZ
_TEXT	SEGMENT PARA USE32 PUBLIC 'CODE'
_TEXT	ENDS
;	COMDAT ?deallocate@?$allocator@U_Node@?$_Tree_nod@V?$_Tmap_traits@KPAVCGuildHouseBase@@U?$less@K@std@@V?$allocator@U?$pair@$$CBKPAVCGuildHouseBase@@@std@@@3@$0A@@std@@@std@@@std@@QAEXPAU_Node@?$_Tree_nod@V?$_Tmap_traits@KPAVCGuildHouseBase@@U?$less@K@std@@V?$allocator@U?$pair@$$CBKPAVCGuildHouseBase@@@std@@@3@$0A@@std@@@2@I@Z
_TEXT	SEGMENT PARA USE32 PUBLIC 'CODE'
_TEXT	ENDS
;	COMDAT ?allocate@?$allocator@U_Node@?$_Tree_nod@V?$_Tmap_traits@KPAVCGuildHouseBase@@U?$less@K@std@@V?$allocator@U?$pair@$$CBKPAVCGuildHouseBase@@@std@@@3@$0A@@std@@@std@@@std@@QAEPAU_Node@?$_Tree_nod@V?$_Tmap_traits@KPAVCGuildHouseBase@@U?$less@K@std@@V?$allocator@U?$pair@$$CBKPAVCGuildHouseBase@@@std@@@3@$0A@@std@@@2@I@Z
_TEXT	SEGMENT PARA USE32 PUBLIC 'CODE'
_TEXT	ENDS
;	COMDAT ?_Dec@const_iterator@?$_Tree@V?$_Tmap_traits@KPAVCGuildHouseBase@@U?$less@K@std@@V?$allocator@U?$pair@$$CBKPAVCGuildHouseBase@@@std@@@3@$0A@@std@@@std@@QAEXXZ
_TEXT	SEGMENT PARA USE32 PUBLIC 'CODE'
_TEXT	ENDS
;	COMDAT ??0iterator@?$_Tree@V?$_Tmap_traits@KKU?$less@K@std@@V?$allocator@U?$pair@$$CBKK@std@@@2@$0A@@std@@@std@@QAE@PAU_Node@?$_Tree_nod@V?$_Tmap_traits@KKU?$less@K@std@@V?$allocator@U?$pair@$$CBKK@std@@@2@$0A@@std@@@2@@Z
_TEXT	SEGMENT PARA USE32 PUBLIC 'CODE'
_TEXT	ENDS
;	COMDAT ??Eiterator@?$_Tree@V?$_Tmap_traits@KKU?$less@K@std@@V?$allocator@U?$pair@$$CBKK@std@@@2@$0A@@std@@@std@@QAEAAV012@XZ
_TEXT	SEGMENT PARA USE32 PUBLIC 'CODE'
_TEXT	ENDS
;	COMDAT ?_Mynode@const_iterator@?$_Tree@V?$_Tmap_traits@KKU?$less@K@std@@V?$allocator@U?$pair@$$CBKK@std@@@2@$0A@@std@@@std@@QBEPAU_Node@?$_Tree_nod@V?$_Tmap_traits@KKU?$less@K@std@@V?$allocator@U?$pair@$$CBKK@std@@@2@$0A@@std@@@3@XZ
_TEXT	SEGMENT PARA USE32 PUBLIC 'CODE'
_TEXT	ENDS
;	COMDAT ?_Isnil@?$_Tree@V?$_Tmap_traits@KPAVCClientSock@@U?$less@K@std@@V?$allocator@U?$pair@$$CBKPAVCClientSock@@@std@@@3@$0A@@std@@@std@@KAAADPAU_Node@?$_Tree_nod@V?$_Tmap_traits@KPAVCClientSock@@U?$less@K@std@@V?$allocator@U?$pair@$$CBKPAVCClientSock@@@std@@@3@$0A@@std@@@2@@Z
_TEXT	SEGMENT PARA USE32 PUBLIC 'CODE'
_TEXT	ENDS
;	COMDAT ?erase@?$_Tree@V?$_Tmap_traits@KPAVCClientSock@@U?$less@K@std@@V?$allocator@U?$pair@$$CBKPAVCClientSock@@@std@@@3@$0A@@std@@@std@@QAE?AViterator@12@V312@@Z
_TEXT	SEGMENT PARA USE32 PUBLIC 'CODE'
_TEXT	ENDS
;	COMDAT ?clear@?$_Tree@V?$_Tmap_traits@KPAVCClientSock@@U?$less@K@std@@V?$allocator@U?$pair@$$CBKPAVCClientSock@@@std@@@3@$0A@@std@@@std@@QAEXXZ
_TEXT	SEGMENT PARA USE32 PUBLIC 'CODE'
_TEXT	ENDS
;	COMDAT ?_Lmost@?$_Tree@V?$_Tmap_traits@KPAVCClientSock@@U?$less@K@std@@V?$allocator@U?$pair@$$CBKPAVCClientSock@@@std@@@3@$0A@@std@@@std@@IAEAAPAU_Node@?$_Tree_nod@V?$_Tmap_traits@KPAVCClientSock@@U?$less@K@std@@V?$allocator@U?$pair@$$CBKPAVCClientSock@@@std@@@3@$0A@@std@@@2@XZ
_TEXT	SEGMENT PARA USE32 PUBLIC 'CODE'
_TEXT	ENDS
;	COMDAT ?_Rmost@?$_Tree@V?$_Tmap_traits@KPAVCClientSock@@U?$less@K@std@@V?$allocator@U?$pair@$$CBKPAVCClientSock@@@std@@@3@$0A@@std@@@std@@IAEAAPAU_Node@?$_Tree_nod@V?$_Tmap_traits@KPAVCClientSock@@U?$less@K@std@@V?$allocator@U?$pair@$$CBKPAVCClientSock@@@std@@@3@$0A@@std@@@2@XZ
_TEXT	SEGMENT PARA USE32 PUBLIC 'CODE'
_TEXT	ENDS
;	COMDAT ?_Root@?$_Tree@V?$_Tmap_traits@KPAVCClientSock@@U?$less@K@std@@V?$allocator@U?$pair@$$CBKPAVCClientSock@@@std@@@3@$0A@@std@@@std@@IAEAAPAU_Node@?$_Tree_nod@V?$_Tmap_traits@KPAVCClientSock@@U?$less@K@std@@V?$allocator@U?$pair@$$CBKPAVCClientSock@@@std@@@3@$0A@@std@@@2@XZ
_TEXT	SEGMENT PARA USE32 PUBLIC 'CODE'
_TEXT	ENDS
;	COMDAT ?_Root@?$_Tree@V?$_Tmap_traits@KPAVCClientSock@@U?$less@K@std@@V?$allocator@U?$pair@$$CBKPAVCClientSock@@@std@@@3@$0A@@std@@@std@@IBEAAPAU_Node@?$_Tree_nod@V?$_Tmap_traits@KPAVCClientSock@@U?$less@K@std@@V?$allocator@U?$pair@$$CBKPAVCClientSock@@@std@@@3@$0A@@std@@@2@XZ
_TEXT	SEGMENT PARA USE32 PUBLIC 'CODE'
_TEXT	ENDS
;	COMDAT ?_Buynode@?$_Tree@V?$_Tmap_traits@KPAVCClientSock@@U?$less@K@std@@V?$allocator@U?$pair@$$CBKPAVCClientSock@@@std@@@3@$0A@@std@@@std@@IAEPAU_Node@?$_Tree_nod@V?$_Tmap_traits@KPAVCClientSock@@U?$less@K@std@@V?$allocator@U?$pair@$$CBKPAVCClientSock@@@std@@@3@$0A@@std@@@2@XZ
_TEXT	SEGMENT PARA USE32 PUBLIC 'CODE'
_TEXT	ENDS
;	COMDAT ??0?$_Tree_ptr@V?$_Tmap_traits@KPAVCClientSock@@U?$less@K@std@@V?$allocator@U?$pair@$$CBKPAVCClientSock@@@std@@@3@$0A@@std@@@std@@IAE@ABU?$less@K@1@V?$allocator@U?$pair@$$CBKPAVCClientSock@@@std@@@1@@Z
_TEXT	SEGMENT PARA USE32 PUBLIC 'CODE'
_TEXT	ENDS
;	COMDAT ??Eiterator@?$_Tree@V?$_Tmap_traits@KPAVCClientSock@@U?$less@K@std@@V?$allocator@U?$pair@$$CBKPAVCClientSock@@@std@@@3@$0A@@std@@@std@@QAE?AV012@H@Z
_TEXT	SEGMENT PARA USE32 PUBLIC 'CODE'
_TEXT	ENDS
;	COMDAT ?_Isnil@?$_Tree@V?$_Tmap_traits@KPAVCClientSockE@@U?$less@K@std@@V?$allocator@U?$pair@$$CBKPAVCClientSockE@@@std@@@3@$0A@@std@@@std@@KAAADPAU_Node@?$_Tree_nod@V?$_Tmap_traits@KPAVCClientSockE@@U?$less@K@std@@V?$allocator@U?$pair@$$CBKPAVCClientSockE@@@std@@@3@$0A@@std@@@2@@Z
_TEXT	SEGMENT PARA USE32 PUBLIC 'CODE'
_TEXT	ENDS
;	COMDAT ?erase@?$_Tree@V?$_Tmap_traits@KPAVCClientSockE@@U?$less@K@std@@V?$allocator@U?$pair@$$CBKPAVCClientSockE@@@std@@@3@$0A@@std@@@std@@QAE?AViterator@12@V312@@Z
_TEXT	SEGMENT PARA USE32 PUBLIC 'CODE'
_TEXT	ENDS
;	COMDAT ?clear@?$_Tree@V?$_Tmap_traits@KPAVCClientSockE@@U?$less@K@std@@V?$allocator@U?$pair@$$CBKPAVCClientSockE@@@std@@@3@$0A@@std@@@std@@QAEXXZ
_TEXT	SEGMENT PARA USE32 PUBLIC 'CODE'
_TEXT	ENDS
;	COMDAT ?_Lmost@?$_Tree@V?$_Tmap_traits@KPAVCClientSockE@@U?$less@K@std@@V?$allocator@U?$pair@$$CBKPAVCClientSockE@@@std@@@3@$0A@@std@@@std@@IAEAAPAU_Node@?$_Tree_nod@V?$_Tmap_traits@KPAVCClientSockE@@U?$less@K@std@@V?$allocator@U?$pair@$$CBKPAVCClientSockE@@@std@@@3@$0A@@std@@@2@XZ
_TEXT	SEGMENT PARA USE32 PUBLIC 'CODE'
_TEXT	ENDS
;	COMDAT ?_Rmost@?$_Tree@V?$_Tmap_traits@KPAVCClientSockE@@U?$less@K@std@@V?$allocator@U?$pair@$$CBKPAVCClientSockE@@@std@@@3@$0A@@std@@@std@@IAEAAPAU_Node@?$_Tree_nod@V?$_Tmap_traits@KPAVCClientSockE@@U?$less@K@std@@V?$allocator@U?$pair@$$CBKPAVCClientSockE@@@std@@@3@$0A@@std@@@2@XZ
_TEXT	SEGMENT PARA USE32 PUBLIC 'CODE'
_TEXT	ENDS
;	COMDAT ?_Root@?$_Tree@V?$_Tmap_traits@KPAVCClientSockE@@U?$less@K@std@@V?$allocator@U?$pair@$$CBKPAVCClientSockE@@@std@@@3@$0A@@std@@@std@@IAEAAPAU_Node@?$_Tree_nod@V?$_Tmap_traits@KPAVCClientSockE@@U?$less@K@std@@V?$allocator@U?$pair@$$CBKPAVCClientSockE@@@std@@@3@$0A@@std@@@2@XZ
_TEXT	SEGMENT PARA USE32 PUBLIC 'CODE'
_TEXT	ENDS
;	COMDAT ?_Root@?$_Tree@V?$_Tmap_traits@KPAVCClientSockE@@U?$less@K@std@@V?$allocator@U?$pair@$$CBKPAVCClientSockE@@@std@@@3@$0A@@std@@@std@@IBEAAPAU_Node@?$_Tree_nod@V?$_Tmap_traits@KPAVCClientSockE@@U?$less@K@std@@V?$allocator@U?$pair@$$CBKPAVCClientSockE@@@std@@@3@$0A@@std@@@2@XZ
_TEXT	SEGMENT PARA USE32 PUBLIC 'CODE'
_TEXT	ENDS
;	COMDAT ?_Buynode@?$_Tree@V?$_Tmap_traits@KPAVCClientSockE@@U?$less@K@std@@V?$allocator@U?$pair@$$CBKPAVCClientSockE@@@std@@@3@$0A@@std@@@std@@IAEPAU_Node@?$_Tree_nod@V?$_Tmap_traits@KPAVCClientSockE@@U?$less@K@std@@V?$allocator@U?$pair@$$CBKPAVCClientSockE@@@std@@@3@$0A@@std@@@2@XZ
_TEXT	SEGMENT PARA USE32 PUBLIC 'CODE'
_TEXT	ENDS
;	COMDAT ??0?$_Tree_ptr@V?$_Tmap_traits@KPAVCClientSockE@@U?$less@K@std@@V?$allocator@U?$pair@$$CBKPAVCClientSockE@@@std@@@3@$0A@@std@@@std@@IAE@ABU?$less@K@1@V?$allocator@U?$pair@$$CBKPAVCClientSockE@@@std@@@1@@Z
_TEXT	SEGMENT PARA USE32 PUBLIC 'CODE'
_TEXT	ENDS
;	COMDAT ??Eiterator@?$_Tree@V?$_Tmap_traits@KPAVCClientSockE@@U?$less@K@std@@V?$allocator@U?$pair@$$CBKPAVCClientSockE@@@std@@@3@$0A@@std@@@std@@QAE?AV012@H@Z
_TEXT	SEGMENT PARA USE32 PUBLIC 'CODE'
_TEXT	ENDS
;	COMDAT ?_Isnil@?$_Tree@V?$_Tmap_traits@KP8CDPSrvr@@AEXAAVCAr@@KKPAEK@ZU?$less@K@std@@V?$allocator@U?$pair@$$CBKP8CDPSrvr@@AEXAAVCAr@@KKPAEK@Z@std@@@4@$0A@@std@@@std@@KAAADPAU_Node@?$_Tree_nod@V?$_Tmap_traits@KP8CDPSrvr@@AEXAAVCAr@@KKPAEK@ZU?$less@K@std@@V?$allocator@U?$pair@$$CBKP8CDPSrvr@@AEXAAVCAr@@KKPAEK@Z@std@@@4@$0A@@std@@@2@@Z
_TEXT	SEGMENT PARA USE32 PUBLIC 'CODE'
_TEXT	ENDS
;	COMDAT ?_Left@?$_Tree@V?$_Tmap_traits@KP8CDPSrvr@@AEXAAVCAr@@KKPAEK@ZU?$less@K@std@@V?$allocator@U?$pair@$$CBKP8CDPSrvr@@AEXAAVCAr@@KKPAEK@Z@std@@@4@$0A@@std@@@std@@KAAAPAU_Node@?$_Tree_nod@V?$_Tmap_traits@KP8CDPSrvr@@AEXAAVCAr@@KKPAEK@ZU?$less@K@std@@V?$allocator@U?$pair@$$CBKP8CDPSrvr@@AEXAAVCAr@@KKPAEK@Z@std@@@4@$0A@@std@@@2@PAU342@@Z
_TEXT	SEGMENT PARA USE32 PUBLIC 'CODE'
_TEXT	ENDS
;	COMDAT ?_Right@?$_Tree@V?$_Tmap_traits@KP8CDPSrvr@@AEXAAVCAr@@KKPAEK@ZU?$less@K@std@@V?$allocator@U?$pair@$$CBKP8CDPSrvr@@AEXAAVCAr@@KKPAEK@Z@std@@@4@$0A@@std@@@std@@KAAAPAU_Node@?$_Tree_nod@V?$_Tmap_traits@KP8CDPSrvr@@AEXAAVCAr@@KKPAEK@ZU?$less@K@std@@V?$allocator@U?$pair@$$CBKP8CDPSrvr@@AEXAAVCAr@@KKPAEK@Z@std@@@4@$0A@@std@@@2@PAU342@@Z
_TEXT	SEGMENT PARA USE32 PUBLIC 'CODE'
_TEXT	ENDS
;	COMDAT ?_Root@?$_Tree@V?$_Tmap_traits@KP8CDPSrvr@@AEXAAVCAr@@KKPAEK@ZU?$less@K@std@@V?$allocator@U?$pair@$$CBKP8CDPSrvr@@AEXAAVCAr@@KKPAEK@Z@std@@@4@$0A@@std@@@std@@IBEAAPAU_Node@?$_Tree_nod@V?$_Tmap_traits@KP8CDPSrvr@@AEXAAVCAr@@KKPAEK@ZU?$less@K@std@@V?$allocator@U?$pair@$$CBKP8CDPSrvr@@AEXAAVCAr@@KKPAEK@Z@std@@@4@$0A@@std@@@2@XZ
_TEXT	SEGMENT PARA USE32 PUBLIC 'CODE'
_TEXT	ENDS
;	COMDAT ?_Isnil@?$_Tree@V?$_Tmap_traits@KP8CDPCoreClient@@AEXAAVCAr@@KKK@ZU?$less@K@std@@V?$allocator@U?$pair@$$CBKP8CDPCoreClient@@AEXAAVCAr@@KKK@Z@std@@@4@$0A@@std@@@std@@KAAADPAU_Node@?$_Tree_nod@V?$_Tmap_traits@KP8CDPCoreClient@@AEXAAVCAr@@KKK@ZU?$less@K@std@@V?$allocator@U?$pair@$$CBKP8CDPCoreClient@@AEXAAVCAr@@KKK@Z@std@@@4@$0A@@std@@@2@@Z
_TEXT	SEGMENT PARA USE32 PUBLIC 'CODE'
_TEXT	ENDS
;	COMDAT ?_Left@?$_Tree@V?$_Tmap_traits@KP8CDPCoreClient@@AEXAAVCAr@@KKK@ZU?$less@K@std@@V?$allocator@U?$pair@$$CBKP8CDPCoreClient@@AEXAAVCAr@@KKK@Z@std@@@4@$0A@@std@@@std@@KAAAPAU_Node@?$_Tree_nod@V?$_Tmap_traits@KP8CDPCoreClient@@AEXAAVCAr@@KKK@ZU?$less@K@std@@V?$allocator@U?$pair@$$CBKP8CDPCoreClient@@AEXAAVCAr@@KKK@Z@std@@@4@$0A@@std@@@2@PAU342@@Z
_TEXT	SEGMENT PARA USE32 PUBLIC 'CODE'
_TEXT	ENDS
;	COMDAT ?_Right@?$_Tree@V?$_Tmap_traits@KP8CDPCoreClient@@AEXAAVCAr@@KKK@ZU?$less@K@std@@V?$allocator@U?$pair@$$CBKP8CDPCoreClient@@AEXAAVCAr@@KKK@Z@std@@@4@$0A@@std@@@std@@KAAAPAU_Node@?$_Tree_nod@V?$_Tmap_traits@KP8CDPCoreClient@@AEXAAVCAr@@KKK@ZU?$less@K@std@@V?$allocator@U?$pair@$$CBKP8CDPCoreClient@@AEXAAVCAr@@KKK@Z@std@@@4@$0A@@std@@@2@PAU342@@Z
_TEXT	SEGMENT PARA USE32 PUBLIC 'CODE'
_TEXT	ENDS
;	COMDAT ?_Root@?$_Tree@V?$_Tmap_traits@KP8CDPCoreClient@@AEXAAVCAr@@KKK@ZU?$less@K@std@@V?$allocator@U?$pair@$$CBKP8CDPCoreClient@@AEXAAVCAr@@KKK@Z@std@@@4@$0A@@std@@@std@@IBEAAPAU_Node@?$_Tree_nod@V?$_Tmap_traits@KP8CDPCoreClient@@AEXAAVCAr@@KKK@ZU?$less@K@std@@V?$allocator@U?$pair@$$CBKP8CDPCoreClient@@AEXAAVCAr@@KKK@Z@std@@@4@$0A@@std@@@2@XZ
_TEXT	SEGMENT PARA USE32 PUBLIC 'CODE'
_TEXT	ENDS
;	COMDAT ??0const_iterator@?$vector@KV?$allocator@K@std@@@std@@QAE@PAK@Z
_TEXT	SEGMENT PARA USE32 PUBLIC 'CODE'
_TEXT	ENDS
;	COMDAT ??0const_iterator@?$vector@PAVCObj@@V?$allocator@PAVCObj@@@std@@@std@@QAE@PAPAVCObj@@@Z
_TEXT	SEGMENT PARA USE32 PUBLIC 'CODE'
_TEXT	ENDS
;	COMDAT ??0const_iterator@?$vector@VCGuildCombat1to1@@V?$allocator@VCGuildCombat1to1@@@std@@@std@@QAE@PAVCGuildCombat1to1@@@Z
_TEXT	SEGMENT PARA USE32 PUBLIC 'CODE'
_TEXT	ENDS
;	COMDAT ??0const_iterator@?$vector@U__GC1TO1TENDER@CGuildCombat1to1Mng@@V?$allocator@U__GC1TO1TENDER@CGuildCombat1to1Mng@@@std@@@std@@QAE@PAU__GC1TO1TENDER@CGuildCombat1to1Mng@@@Z
_TEXT	SEGMENT PARA USE32 PUBLIC 'CODE'
_TEXT	ENDS
;	COMDAT ??0const_iterator@?$vector@PAU__JOINPLAYER@CGuildCombat@@V?$allocator@PAU__JOINPLAYER@CGuildCombat@@@std@@@std@@QAE@PAPAU__JOINPLAYER@CGuildCombat@@@Z
_TEXT	SEGMENT PARA USE32 PUBLIC 'CODE'
_TEXT	ENDS
;	COMDAT ??0const_iterator@?$vector@V?$basic_string@DU?$char_traits@D@std@@V?$allocator@D@2@@std@@V?$allocator@V?$basic_string@DU?$char_traits@D@std@@V?$allocator@D@2@@std@@@2@@std@@QAE@PAV?$basic_string@DU?$char_traits@D@std@@V?$allocator@D@2@@2@@Z
_TEXT	SEGMENT PARA USE32 PUBLIC 'CODE'
_TEXT	ENDS
;	COMDAT ??Gconst_iterator@?$vector@V?$basic_string@DU?$char_traits@D@std@@V?$allocator@D@2@@std@@V?$allocator@V?$basic_string@DU?$char_traits@D@std@@V?$allocator@D@2@@std@@@2@@std@@QBEHABV012@@Z
_TEXT	SEGMENT PARA USE32 PUBLIC 'CODE'
_TEXT	ENDS
;	COMDAT ??Yiterator@?$vector@UMINIGMAME_PRIZE_LIST@CRainbowRaceMng@@V?$allocator@UMINIGMAME_PRIZE_LIST@CRainbowRaceMng@@@std@@@std@@QAEAAV012@H@Z
_TEXT	SEGMENT PARA USE32 PUBLIC 'CODE'
_TEXT	ENDS
;	COMDAT ??0const_iterator@?$vector@UMINIGMAME_PRIZE_LIST@CRainbowRaceMng@@V?$allocator@UMINIGMAME_PRIZE_LIST@CRainbowRaceMng@@@std@@@std@@QAE@PAUMINIGMAME_PRIZE_LIST@CRainbowRaceMng@@@Z
_TEXT	SEGMENT PARA USE32 PUBLIC 'CODE'
_TEXT	ENDS
;	COMDAT ??Gconst_iterator@?$vector@UMINIGMAME_PRIZE_LIST@CRainbowRaceMng@@V?$allocator@UMINIGMAME_PRIZE_LIST@CRainbowRaceMng@@@std@@@std@@QBEHABV012@@Z
_TEXT	SEGMENT PARA USE32 PUBLIC 'CODE'
_TEXT	ENDS
;	COMDAT ??0const_iterator@?$vector@PAVCMiniGameBase@@V?$allocator@PAVCMiniGameBase@@@std@@@std@@QAE@PAPAVCMiniGameBase@@@Z
_TEXT	SEGMENT PARA USE32 PUBLIC 'CODE'
_TEXT	ENDS
;	COMDAT ??0const_iterator@?$vector@UGuildHouse_Furniture_Info@CGuildHouseBase@@V?$allocator@UGuildHouse_Furniture_Info@CGuildHouseBase@@@std@@@std@@QAE@PAUGuildHouse_Furniture_Info@CGuildHouseBase@@@Z
_TEXT	SEGMENT PARA USE32 PUBLIC 'CODE'
_TEXT	ENDS
;	COMDAT ??0_Node@?$_Tree_nod@V?$_Tmap_traits@KPAVCGuildHouseBase@@U?$less@K@std@@V?$allocator@U?$pair@$$CBKPAVCGuildHouseBase@@@std@@@3@$0A@@std@@@std@@QAE@PAU012@00ABU?$pair@$$CBKPAVCGuildHouseBase@@@2@D@Z
_TEXT	SEGMENT PARA USE32 PUBLIC 'CODE'
_TEXT	ENDS
;	COMDAT ?_Key@?$_Tree@V?$_Tmap_traits@KKU?$less@K@std@@V?$allocator@U?$pair@$$CBKK@std@@@2@$0A@@std@@@std@@KAABKPAU_Node@?$_Tree_nod@V?$_Tmap_traits@KKU?$less@K@std@@V?$allocator@U?$pair@$$CBKK@std@@@2@$0A@@std@@@2@@Z
_TEXT	SEGMENT PARA USE32 PUBLIC 'CODE'
_TEXT	ENDS
;	COMDAT ?_Root@?$_Tree@V?$_Tmap_traits@KKU?$less@K@std@@V?$allocator@U?$pair@$$CBKK@std@@@2@$0A@@std@@@std@@IBEAAPAU_Node@?$_Tree_nod@V?$_Tmap_traits@KKU?$less@K@std@@V?$allocator@U?$pair@$$CBKK@std@@@2@$0A@@std@@@2@XZ
_TEXT	SEGMENT PARA USE32 PUBLIC 'CODE'
_TEXT	ENDS
;	COMDAT ?_Key@?$_Tree@V?$_Tmap_traits@KU_Friend@@U?$less@K@std@@V?$allocator@U?$pair@$$CBKU_Friend@@@std@@@3@$0A@@std@@@std@@KAABKPAU_Node@?$_Tree_nod@V?$_Tmap_traits@KU_Friend@@U?$less@K@std@@V?$allocator@U?$pair@$$CBKU_Friend@@@std@@@3@$0A@@std@@@2@@Z
_TEXT	SEGMENT PARA USE32 PUBLIC 'CODE'
_TEXT	ENDS
;	COMDAT ?_Root@?$_Tree@V?$_Tmap_traits@KU_Friend@@U?$less@K@std@@V?$allocator@U?$pair@$$CBKU_Friend@@@std@@@3@$0A@@std@@@std@@IBEAAPAU_Node@?$_Tree_nod@V?$_Tmap_traits@KU_Friend@@U?$less@K@std@@V?$allocator@U?$pair@$$CBKU_Friend@@@std@@@3@$0A@@std@@@2@XZ
_TEXT	SEGMENT PARA USE32 PUBLIC 'CODE'
_TEXT	ENDS
;	COMDAT ??0const_iterator@?$_Tree@V?$_Tmap_traits@KU_Friend@@U?$less@K@std@@V?$allocator@U?$pair@$$CBKU_Friend@@@std@@@3@$0A@@std@@@std@@QAE@PAU_Node@?$_Tree_nod@V?$_Tmap_traits@KU_Friend@@U?$less@K@std@@V?$allocator@U?$pair@$$CBKU_Friend@@@std@@@3@$0A@@std@@@2@@Z
_TEXT	SEGMENT PARA USE32 PUBLIC 'CODE'
_TEXT	ENDS
;	COMDAT ??Econst_iterator@?$_Tree@V?$_Tmap_traits@KU_Friend@@U?$less@K@std@@V?$allocator@U?$pair@$$CBKU_Friend@@@std@@@3@$0A@@std@@@std@@QAEAAV012@XZ
_TEXT	SEGMENT PARA USE32 PUBLIC 'CODE'
_TEXT	ENDS
;	COMDAT ?max_size@?$allocator@UMINIGMAME_PRIZE_LIST@CRainbowRaceMng@@@std@@QBEIXZ
_TEXT	SEGMENT PARA USE32 PUBLIC 'CODE'
_TEXT	ENDS
;	COMDAT ?_Max@?$_Tree@V?$_Tmap_traits@KPAVCGuildHouseBase@@U?$less@K@std@@V?$allocator@U?$pair@$$CBKPAVCGuildHouseBase@@@std@@@3@$0A@@std@@@std@@KAPAU_Node@?$_Tree_nod@V?$_Tmap_traits@KPAVCGuildHouseBase@@U?$less@K@std@@V?$allocator@U?$pair@$$CBKPAVCGuildHouseBase@@@std@@@3@$0A@@std@@@2@PAU342@@Z
_TEXT	SEGMENT PARA USE32 PUBLIC 'CODE'
_TEXT	ENDS
;	COMDAT ??0const_iterator@?$_Tree@V?$_Tmap_traits@KKU?$less@K@std@@V?$allocator@U?$pair@$$CBKK@std@@@2@$0A@@std@@@std@@QAE@PAU_Node@?$_Tree_nod@V?$_Tmap_traits@KKU?$less@K@std@@V?$allocator@U?$pair@$$CBKK@std@@@2@$0A@@std@@@2@@Z
_TEXT	SEGMENT PARA USE32 PUBLIC 'CODE'
_TEXT	ENDS
;	COMDAT ??Econst_iterator@?$_Tree@V?$_Tmap_traits@KKU?$less@K@std@@V?$allocator@U?$pair@$$CBKK@std@@@2@$0A@@std@@@std@@QAEAAV012@XZ
_TEXT	SEGMENT PARA USE32 PUBLIC 'CODE'
_TEXT	ENDS
;	COMDAT ?_Color@?$_Tree@V?$_Tmap_traits@KPAVCClientSock@@U?$less@K@std@@V?$allocator@U?$pair@$$CBKPAVCClientSock@@@std@@@3@$0A@@std@@@std@@KAAADPAU_Node@?$_Tree_nod@V?$_Tmap_traits@KPAVCClientSock@@U?$less@K@std@@V?$allocator@U?$pair@$$CBKPAVCClientSock@@@std@@@3@$0A@@std@@@2@@Z
_TEXT	SEGMENT PARA USE32 PUBLIC 'CODE'
_TEXT	ENDS
;	COMDAT ?_Erase@?$_Tree@V?$_Tmap_traits@KPAVCClientSock@@U?$less@K@std@@V?$allocator@U?$pair@$$CBKPAVCClientSock@@@std@@@3@$0A@@std@@@std@@IAEXPAU_Node@?$_Tree_nod@V?$_Tmap_traits@KPAVCClientSock@@U?$less@K@std@@V?$allocator@U?$pair@$$CBKPAVCClientSock@@@std@@@3@$0A@@std@@@2@@Z
_TEXT	SEGMENT PARA USE32 PUBLIC 'CODE'
_TEXT	ENDS
;	COMDAT ?_Lrotate@?$_Tree@V?$_Tmap_traits@KPAVCClientSock@@U?$less@K@std@@V?$allocator@U?$pair@$$CBKPAVCClientSock@@@std@@@3@$0A@@std@@@std@@IAEXPAU_Node@?$_Tree_nod@V?$_Tmap_traits@KPAVCClientSock@@U?$less@K@std@@V?$allocator@U?$pair@$$CBKPAVCClientSock@@@std@@@3@$0A@@std@@@2@@Z
_TEXT	SEGMENT PARA USE32 PUBLIC 'CODE'
_TEXT	ENDS
;	COMDAT ?_Max@?$_Tree@V?$_Tmap_traits@KPAVCClientSock@@U?$less@K@std@@V?$allocator@U?$pair@$$CBKPAVCClientSock@@@std@@@3@$0A@@std@@@std@@KAPAU_Node@?$_Tree_nod@V?$_Tmap_traits@KPAVCClientSock@@U?$less@K@std@@V?$allocator@U?$pair@$$CBKPAVCClientSock@@@std@@@3@$0A@@std@@@2@PAU342@@Z
_TEXT	SEGMENT PARA USE32 PUBLIC 'CODE'
_TEXT	ENDS
;	COMDAT ?_Min@?$_Tree@V?$_Tmap_traits@KPAVCClientSock@@U?$less@K@std@@V?$allocator@U?$pair@$$CBKPAVCClientSock@@@std@@@3@$0A@@std@@@std@@KAPAU_Node@?$_Tree_nod@V?$_Tmap_traits@KPAVCClientSock@@U?$less@K@std@@V?$allocator@U?$pair@$$CBKPAVCClientSock@@@std@@@3@$0A@@std@@@2@PAU342@@Z
_TEXT	SEGMENT PARA USE32 PUBLIC 'CODE'
_TEXT	ENDS
;	COMDAT ?_Rrotate@?$_Tree@V?$_Tmap_traits@KPAVCClientSock@@U?$less@K@std@@V?$allocator@U?$pair@$$CBKPAVCClientSock@@@std@@@3@$0A@@std@@@std@@IAEXPAU_Node@?$_Tree_nod@V?$_Tmap_traits@KPAVCClientSock@@U?$less@K@std@@V?$allocator@U?$pair@$$CBKPAVCClientSock@@@std@@@3@$0A@@std@@@2@@Z
_TEXT	SEGMENT PARA USE32 PUBLIC 'CODE'
_TEXT	ENDS
;	COMDAT ??0?$_Tree_nod@V?$_Tmap_traits@KPAVCClientSock@@U?$less@K@std@@V?$allocator@U?$pair@$$CBKPAVCClientSock@@@std@@@3@$0A@@std@@@std@@IAE@ABU?$less@K@1@V?$allocator@U?$pair@$$CBKPAVCClientSock@@@std@@@1@@Z
_TEXT	SEGMENT PARA USE32 PUBLIC 'CODE'
_TEXT	ENDS
;	COMDAT ?allocate@?$allocator@U_Node@?$_Tree_nod@V?$_Tmap_traits@KPAVCClientSock@@U?$less@K@std@@V?$allocator@U?$pair@$$CBKPAVCClientSock@@@std@@@3@$0A@@std@@@std@@@std@@QAEPAU_Node@?$_Tree_nod@V?$_Tmap_traits@KPAVCClientSock@@U?$less@K@std@@V?$allocator@U?$pair@$$CBKPAVCClientSock@@@std@@@3@$0A@@std@@@2@I@Z
_TEXT	SEGMENT PARA USE32 PUBLIC 'CODE'
_TEXT	ENDS
;	COMDAT ?destroy@?$allocator@U_Node@?$_Tree_nod@V?$_Tmap_traits@KPAVCClientSock@@U?$less@K@std@@V?$allocator@U?$pair@$$CBKPAVCClientSock@@@std@@@3@$0A@@std@@@std@@@std@@QAEXPAU_Node@?$_Tree_nod@V?$_Tmap_traits@KPAVCClientSock@@U?$less@K@std@@V?$allocator@U?$pair@$$CBKPAVCClientSock@@@std@@@3@$0A@@std@@@2@@Z
_TEXT	SEGMENT PARA USE32 PUBLIC 'CODE'
_TEXT	ENDS
;	COMDAT ?construct@?$allocator@PAU_Node@?$_Tree_nod@V?$_Tmap_traits@KPAVCClientSock@@U?$less@K@std@@V?$allocator@U?$pair@$$CBKPAVCClientSock@@@std@@@3@$0A@@std@@@std@@@std@@QAEXPAPAU_Node@?$_Tree_nod@V?$_Tmap_traits@KPAVCClientSock@@U?$less@K@std@@V?$allocator@U?$pair@$$CBKPAVCClientSock@@@std@@@3@$0A@@std@@@2@ABQAU342@@Z
_TEXT	SEGMENT PARA USE32 PUBLIC 'CODE'
_TEXT	ENDS
;	COMDAT ??Eiterator@?$_Tree@V?$_Tmap_traits@KPAVCClientSock@@U?$less@K@std@@V?$allocator@U?$pair@$$CBKPAVCClientSock@@@std@@@3@$0A@@std@@@std@@QAEAAV012@XZ
_TEXT	SEGMENT PARA USE32 PUBLIC 'CODE'
_TEXT	ENDS
;	COMDAT ?_Color@?$_Tree@V?$_Tmap_traits@KPAVCClientSockE@@U?$less@K@std@@V?$allocator@U?$pair@$$CBKPAVCClientSockE@@@std@@@3@$0A@@std@@@std@@KAAADPAU_Node@?$_Tree_nod@V?$_Tmap_traits@KPAVCClientSockE@@U?$less@K@std@@V?$allocator@U?$pair@$$CBKPAVCClientSockE@@@std@@@3@$0A@@std@@@2@@Z
_TEXT	SEGMENT PARA USE32 PUBLIC 'CODE'
_TEXT	ENDS
;	COMDAT ?_Erase@?$_Tree@V?$_Tmap_traits@KPAVCClientSockE@@U?$less@K@std@@V?$allocator@U?$pair@$$CBKPAVCClientSockE@@@std@@@3@$0A@@std@@@std@@IAEXPAU_Node@?$_Tree_nod@V?$_Tmap_traits@KPAVCClientSockE@@U?$less@K@std@@V?$allocator@U?$pair@$$CBKPAVCClientSockE@@@std@@@3@$0A@@std@@@2@@Z
_TEXT	SEGMENT PARA USE32 PUBLIC 'CODE'
_TEXT	ENDS
;	COMDAT ?_Lrotate@?$_Tree@V?$_Tmap_traits@KPAVCClientSockE@@U?$less@K@std@@V?$allocator@U?$pair@$$CBKPAVCClientSockE@@@std@@@3@$0A@@std@@@std@@IAEXPAU_Node@?$_Tree_nod@V?$_Tmap_traits@KPAVCClientSockE@@U?$less@K@std@@V?$allocator@U?$pair@$$CBKPAVCClientSockE@@@std@@@3@$0A@@std@@@2@@Z
_TEXT	SEGMENT PARA USE32 PUBLIC 'CODE'
_TEXT	ENDS
;	COMDAT ?_Max@?$_Tree@V?$_Tmap_traits@KPAVCClientSockE@@U?$less@K@std@@V?$allocator@U?$pair@$$CBKPAVCClientSockE@@@std@@@3@$0A@@std@@@std@@KAPAU_Node@?$_Tree_nod@V?$_Tmap_traits@KPAVCClientSockE@@U?$less@K@std@@V?$allocator@U?$pair@$$CBKPAVCClientSockE@@@std@@@3@$0A@@std@@@2@PAU342@@Z
_TEXT	SEGMENT PARA USE32 PUBLIC 'CODE'
_TEXT	ENDS
;	COMDAT ?_Min@?$_Tree@V?$_Tmap_traits@KPAVCClientSockE@@U?$less@K@std@@V?$allocator@U?$pair@$$CBKPAVCClientSockE@@@std@@@3@$0A@@std@@@std@@KAPAU_Node@?$_Tree_nod@V?$_Tmap_traits@KPAVCClientSockE@@U?$less@K@std@@V?$allocator@U?$pair@$$CBKPAVCClientSockE@@@std@@@3@$0A@@std@@@2@PAU342@@Z
_TEXT	SEGMENT PARA USE32 PUBLIC 'CODE'
_TEXT	ENDS
;	COMDAT ?_Rrotate@?$_Tree@V?$_Tmap_traits@KPAVCClientSockE@@U?$less@K@std@@V?$allocator@U?$pair@$$CBKPAVCClientSockE@@@std@@@3@$0A@@std@@@std@@IAEXPAU_Node@?$_Tree_nod@V?$_Tmap_traits@KPAVCClientSockE@@U?$less@K@std@@V?$allocator@U?$pair@$$CBKPAVCClientSockE@@@std@@@3@$0A@@std@@@2@@Z
_TEXT	SEGMENT PARA USE32 PUBLIC 'CODE'
_TEXT	ENDS
;	COMDAT ??0?$_Tree_nod@V?$_Tmap_traits@KPAVCClientSockE@@U?$less@K@std@@V?$allocator@U?$pair@$$CBKPAVCClientSockE@@@std@@@3@$0A@@std@@@std@@IAE@ABU?$less@K@1@V?$allocator@U?$pair@$$CBKPAVCClientSockE@@@std@@@1@@Z
_TEXT	SEGMENT PARA USE32 PUBLIC 'CODE'
_TEXT	ENDS
;	COMDAT ?allocate@?$allocator@U_Node@?$_Tree_nod@V?$_Tmap_traits@KPAVCClientSockE@@U?$less@K@std@@V?$allocator@U?$pair@$$CBKPAVCClientSockE@@@std@@@3@$0A@@std@@@std@@@std@@QAEPAU_Node@?$_Tree_nod@V?$_Tmap_traits@KPAVCClientSockE@@U?$less@K@std@@V?$allocator@U?$pair@$$CBKPAVCClientSockE@@@std@@@3@$0A@@std@@@2@I@Z
_TEXT	SEGMENT PARA USE32 PUBLIC 'CODE'
_TEXT	ENDS
;	COMDAT ?destroy@?$allocator@U_Node@?$_Tree_nod@V?$_Tmap_traits@KPAVCClientSockE@@U?$less@K@std@@V?$allocator@U?$pair@$$CBKPAVCClientSockE@@@std@@@3@$0A@@std@@@std@@@std@@QAEXPAU_Node@?$_Tree_nod@V?$_Tmap_traits@KPAVCClientSockE@@U?$less@K@std@@V?$allocator@U?$pair@$$CBKPAVCClientSockE@@@std@@@3@$0A@@std@@@2@@Z
_TEXT	SEGMENT PARA USE32 PUBLIC 'CODE'
_TEXT	ENDS
;	COMDAT ?construct@?$allocator@PAU_Node@?$_Tree_nod@V?$_Tmap_traits@KPAVCClientSockE@@U?$less@K@std@@V?$allocator@U?$pair@$$CBKPAVCClientSockE@@@std@@@3@$0A@@std@@@std@@@std@@QAEXPAPAU_Node@?$_Tree_nod@V?$_Tmap_traits@KPAVCClientSockE@@U?$less@K@std@@V?$allocator@U?$pair@$$CBKPAVCClientSockE@@@std@@@3@$0A@@std@@@2@ABQAU342@@Z
_TEXT	SEGMENT PARA USE32 PUBLIC 'CODE'
_TEXT	ENDS
;	COMDAT ??Eiterator@?$_Tree@V?$_Tmap_traits@KPAVCClientSockE@@U?$less@K@std@@V?$allocator@U?$pair@$$CBKPAVCClientSockE@@@std@@@3@$0A@@std@@@std@@QAEAAV012@XZ
_TEXT	SEGMENT PARA USE32 PUBLIC 'CODE'
_TEXT	ENDS
;	COMDAT ?_Parent@?$_Tree@V?$_Tmap_traits@KP8CDPSrvr@@AEXAAVCAr@@KKPAEK@ZU?$less@K@std@@V?$allocator@U?$pair@$$CBKP8CDPSrvr@@AEXAAVCAr@@KKPAEK@Z@std@@@4@$0A@@std@@@std@@KAAAPAU_Node@?$_Tree_nod@V?$_Tmap_traits@KP8CDPSrvr@@AEXAAVCAr@@KKPAEK@ZU?$less@K@std@@V?$allocator@U?$pair@$$CBKP8CDPSrvr@@AEXAAVCAr@@KKPAEK@Z@std@@@4@$0A@@std@@@2@PAU342@@Z
_TEXT	SEGMENT PARA USE32 PUBLIC 'CODE'
_TEXT	ENDS
;	COMDAT ?_Parent@?$_Tree@V?$_Tmap_traits@KP8CDPCoreClient@@AEXAAVCAr@@KKK@ZU?$less@K@std@@V?$allocator@U?$pair@$$CBKP8CDPCoreClient@@AEXAAVCAr@@KKK@Z@std@@@4@$0A@@std@@@std@@KAAAPAU_Node@?$_Tree_nod@V?$_Tmap_traits@KP8CDPCoreClient@@AEXAAVCAr@@KKK@ZU?$less@K@std@@V?$allocator@U?$pair@$$CBKP8CDPCoreClient@@AEXAAVCAr@@KKK@Z@std@@@4@$0A@@std@@@2@PAU342@@Z
_TEXT	SEGMENT PARA USE32 PUBLIC 'CODE'
_TEXT	ENDS
;	COMDAT ?_Myval@?$_Tree@V?$_Tmap_traits@KKU?$less@K@std@@V?$allocator@U?$pair@$$CBKK@std@@@2@$0A@@std@@@std@@KAAAU?$pair@$$CBKK@2@PAU_Node@?$_Tree_nod@V?$_Tmap_traits@KKU?$less@K@std@@V?$allocator@U?$pair@$$CBKK@std@@@2@$0A@@std@@@2@@Z
_TEXT	SEGMENT PARA USE32 PUBLIC 'CODE'
_TEXT	ENDS
;	COMDAT ?_Kfn@?$_Tmap_traits@KKU?$less@K@std@@V?$allocator@U?$pair@$$CBKK@std@@@2@$0A@@std@@SAABKABU?$pair@$$CBKK@2@@Z
_TEXT	SEGMENT PARA USE32 PUBLIC 'CODE'
_TEXT	ENDS
;	COMDAT ?_Myval@?$_Tree@V?$_Tmap_traits@KU_Friend@@U?$less@K@std@@V?$allocator@U?$pair@$$CBKU_Friend@@@std@@@3@$0A@@std@@@std@@KAAAU?$pair@$$CBKU_Friend@@@2@PAU_Node@?$_Tree_nod@V?$_Tmap_traits@KU_Friend@@U?$less@K@std@@V?$allocator@U?$pair@$$CBKU_Friend@@@std@@@3@$0A@@std@@@2@@Z
_TEXT	SEGMENT PARA USE32 PUBLIC 'CODE'
_TEXT	ENDS
;	COMDAT ?_Kfn@?$_Tmap_traits@KU_Friend@@U?$less@K@std@@V?$allocator@U?$pair@$$CBKU_Friend@@@std@@@3@$0A@@std@@SAABKABU?$pair@$$CBKU_Friend@@@2@@Z
_TEXT	SEGMENT PARA USE32 PUBLIC 'CODE'
_TEXT	ENDS
;	COMDAT ?_Inc@const_iterator@?$_Tree@V?$_Tmap_traits@KU_Friend@@U?$less@K@std@@V?$allocator@U?$pair@$$CBKU_Friend@@@std@@@3@$0A@@std@@@std@@QAEXXZ
_TEXT	SEGMENT PARA USE32 PUBLIC 'CODE'
_TEXT	ENDS
;	COMDAT ?_Inc@const_iterator@?$_Tree@V?$_Tmap_traits@KKU?$less@K@std@@V?$allocator@U?$pair@$$CBKK@std@@@2@$0A@@std@@@std@@QAEXXZ
_TEXT	SEGMENT PARA USE32 PUBLIC 'CODE'
_TEXT	ENDS
;	COMDAT ??0?$_Tmap_traits@KPAVCClientSock@@U?$less@K@std@@V?$allocator@U?$pair@$$CBKPAVCClientSock@@@std@@@3@$0A@@std@@QAE@U?$less@K@1@@Z
_TEXT	SEGMENT PARA USE32 PUBLIC 'CODE'
_TEXT	ENDS
;	COMDAT ??Econst_iterator@?$_Tree@V?$_Tmap_traits@KPAVCClientSock@@U?$less@K@std@@V?$allocator@U?$pair@$$CBKPAVCClientSock@@@std@@@3@$0A@@std@@@std@@QAEAAV012@XZ
_TEXT	SEGMENT PARA USE32 PUBLIC 'CODE'
_TEXT	ENDS
;	COMDAT ??0?$_Tmap_traits@KPAVCClientSockE@@U?$less@K@std@@V?$allocator@U?$pair@$$CBKPAVCClientSockE@@@std@@@3@$0A@@std@@QAE@U?$less@K@1@@Z
_TEXT	SEGMENT PARA USE32 PUBLIC 'CODE'
_TEXT	ENDS
;	COMDAT ??Econst_iterator@?$_Tree@V?$_Tmap_traits@KPAVCClientSockE@@U?$less@K@std@@V?$allocator@U?$pair@$$CBKPAVCClientSockE@@@std@@@3@$0A@@std@@@std@@QAEAAV012@XZ
_TEXT	SEGMENT PARA USE32 PUBLIC 'CODE'
_TEXT	ENDS
;	COMDAT ?_Inc@const_iterator@?$_Tree@V?$_Tmap_traits@KPAVCClientSock@@U?$less@K@std@@V?$allocator@U?$pair@$$CBKPAVCClientSock@@@std@@@3@$0A@@std@@@std@@QAEXXZ
_TEXT	SEGMENT PARA USE32 PUBLIC 'CODE'
_TEXT	ENDS
;	COMDAT ?_Inc@const_iterator@?$_Tree@V?$_Tmap_traits@KPAVCClientSockE@@U?$less@K@std@@V?$allocator@U?$pair@$$CBKPAVCClientSockE@@@std@@@3@$0A@@std@@@std@@QAEXXZ
_TEXT	SEGMENT PARA USE32 PUBLIC 'CODE'
_TEXT	ENDS
;	COMDAT ??$_Iter_cat@Vconst_iterator@?$vector@EV?$allocator@E@std@@@std@@@std@@YA?AUrandom_access_iterator_tag@0@ABVconst_iterator@?$vector@EV?$allocator@E@std@@@0@@Z
_TEXT	SEGMENT PARA USE32 PUBLIC 'CODE'
_TEXT	ENDS
;	COMDAT ??$_Assign@Vconst_iterator@?$vector@EV?$allocator@E@std@@@std@@@?$vector@EV?$allocator@E@std@@@std@@QAEXVconst_iterator@01@0Uinput_iterator_tag@1@@Z
_TEXT	SEGMENT PARA USE32 PUBLIC 'CODE'
_TEXT	ENDS
;	COMDAT ??$_Iter_cat@Viterator@?$_Tree@V?$_Tmap_traits@KPAVCUser@@U?$less@K@std@@V?$allocator@U?$pair@$$CBKPAVCUser@@@std@@@3@$0A@@std@@@std@@@std@@YA?AUbidirectional_iterator_tag@0@ABViterator@?$_Tree@V?$_Tmap_traits@KPAVCUser@@U?$less@K@std@@V?$allocator@U?$pair@$$CBKPAVCUser@@@std@@@3@$0A@@std@@@0@@Z
_TEXT	SEGMENT PARA USE32 PUBLIC 'CODE'
_TEXT	ENDS
;	COMDAT ??$_Distance2@Viterator@?$_Tree@V?$_Tmap_traits@KPAVCUser@@U?$less@K@std@@V?$allocator@U?$pair@$$CBKPAVCUser@@@std@@@3@$0A@@std@@@std@@I@std@@YAXViterator@?$_Tree@V?$_Tmap_traits@KPAVCUser@@U?$less@K@std@@V?$allocator@U?$pair@$$CBKPAVCUser@@@std@@@3@$0A@@std@@@0@0AAIUbidirectional_iterator_tag@0@@Z
_TEXT	SEGMENT PARA USE32 PUBLIC 'CODE'
_TEXT	ENDS
;	COMDAT ??$_Iter_cat@Viterator@?$_Tree@V?$_Tmap_traits@KPAVCCtrl@@U?$less@K@std@@V?$allocator@U?$pair@$$CBKPAVCCtrl@@@std@@@3@$0A@@std@@@std@@@std@@YA?AUbidirectional_iterator_tag@0@ABViterator@?$_Tree@V?$_Tmap_traits@KPAVCCtrl@@U?$less@K@std@@V?$allocator@U?$pair@$$CBKPAVCCtrl@@@std@@@3@$0A@@std@@@0@@Z
_TEXT	SEGMENT PARA USE32 PUBLIC 'CODE'
_TEXT	ENDS
;	COMDAT ??$_Distance2@Viterator@?$_Tree@V?$_Tmap_traits@KPAVCCtrl@@U?$less@K@std@@V?$allocator@U?$pair@$$CBKPAVCCtrl@@@std@@@3@$0A@@std@@@std@@I@std@@YAXViterator@?$_Tree@V?$_Tmap_traits@KPAVCCtrl@@U?$less@K@std@@V?$allocator@U?$pair@$$CBKPAVCCtrl@@@std@@@3@$0A@@std@@@0@0AAIUbidirectional_iterator_tag@0@@Z
_TEXT	SEGMENT PARA USE32 PUBLIC 'CODE'
_TEXT	ENDS
;	COMDAT ??$_Uninitialized_copy@Vconst_iterator@?$vector@EV?$allocator@E@std@@@std@@PAEV?$allocator@E@3@@std@@YAPAEVconst_iterator@?$vector@EV?$allocator@E@std@@@0@0PAEAAV?$allocator@E@0@@Z
_TEXT	SEGMENT PARA USE32 PUBLIC 'CODE'
_TEXT	ENDS
;	COMDAT ??$_Iter_cat@Viterator@?$_Tree@V?$_Tmap_traits@KEU?$less@K@std@@V?$allocator@U?$pair@$$CBKE@std@@@2@$0A@@std@@@std@@@std@@YA?AUbidirectional_iterator_tag@0@ABViterator@?$_Tree@V?$_Tmap_traits@KEU?$less@K@std@@V?$allocator@U?$pair@$$CBKE@std@@@2@$0A@@std@@@0@@Z
_TEXT	SEGMENT PARA USE32 PUBLIC 'CODE'
_TEXT	ENDS
;	COMDAT ??$_Distance2@Viterator@?$_Tree@V?$_Tmap_traits@KEU?$less@K@std@@V?$allocator@U?$pair@$$CBKE@std@@@2@$0A@@std@@@std@@I@std@@YAXViterator@?$_Tree@V?$_Tmap_traits@KEU?$less@K@std@@V?$allocator@U?$pair@$$CBKE@std@@@2@$0A@@std@@@0@0AAIUbidirectional_iterator_tag@0@@Z
_TEXT	SEGMENT PARA USE32 PUBLIC 'CODE'
_TEXT	ENDS
;	COMDAT ??$_Ptr_cat@PAU__SPAWNREGION@CEventLua@@PAU12@@std@@YA?AU_Nonscalar_ptr_iterator_tag@0@AAPAU__SPAWNREGION@CEventLua@@0@Z
_TEXT	SEGMENT PARA USE32 PUBLIC 'CODE'
_TEXT	ENDS
;	COMDAT ??$_Uninit_fill_n@PAU__SPAWNREGION@CEventLua@@IU12@V?$allocator@U__SPAWNREGION@CEventLua@@@std@@@std@@YAXPAU__SPAWNREGION@CEventLua@@IABU12@AAV?$allocator@U__SPAWNREGION@CEventLua@@@0@U_Nonscalar_ptr_iterator_tag@0@@Z
_TEXT	SEGMENT PARA USE32 PUBLIC 'CODE'
_TEXT	ENDS
;	COMDAT ??$_Copy_opt@PAJPAJ@std@@YAPAJPAJ00U_Scalar_ptr_iterator_tag@0@@Z
_TEXT	SEGMENT PARA USE32 PUBLIC 'CODE'
_TEXT	ENDS
;	COMDAT ??$_Uninitialized_copy@PAJPAJV?$allocator@J@std@@@std@@YAPAJPAJ00AAV?$allocator@J@0@@Z
_TEXT	SEGMENT PARA USE32 PUBLIC 'CODE'
_TEXT	ENDS
;	COMDAT ??$_Copy_backward_opt@PAJPAJ@std@@YAPAJPAJ00U_Scalar_ptr_iterator_tag@0@@Z
_TEXT	SEGMENT PARA USE32 PUBLIC 'CODE'
_TEXT	ENDS
;	COMDAT ??$_Ptr_cat@PAUtagDROPITEM@@PAU1@@std@@YA?AU_Nonscalar_ptr_iterator_tag@0@AAPAUtagDROPITEM@@0@Z
_TEXT	SEGMENT PARA USE32 PUBLIC 'CODE'
_TEXT	ENDS
;	COMDAT ??$_Destroy_range@UtagDROPITEM@@V?$allocator@UtagDROPITEM@@@std@@@std@@YAXPAUtagDROPITEM@@0AAV?$allocator@UtagDROPITEM@@@0@U_Nonscalar_ptr_iterator_tag@0@@Z
_TEXT	SEGMENT PARA USE32 PUBLIC 'CODE'
_TEXT	ENDS
;	COMDAT ??$_Ptr_cat@PAUWORMON@@PAU1@@std@@YA?AU_Nonscalar_ptr_iterator_tag@0@AAPAUWORMON@@0@Z
_TEXT	SEGMENT PARA USE32 PUBLIC 'CODE'
_TEXT	ENDS
;	COMDAT ??$_Destroy_range@UWORMON@@V?$allocator@UWORMON@@@std@@@std@@YAXPAUWORMON@@0AAV?$allocator@UWORMON@@@0@U_Nonscalar_ptr_iterator_tag@0@@Z
_TEXT	SEGMENT PARA USE32 PUBLIC 'CODE'
_TEXT	ENDS
;	COMDAT ??$_Ptr_cat@PAU__ITEMGAME@CMiniGame@@PAU12@@std@@YA?AU_Nonscalar_ptr_iterator_tag@0@AAPAU__ITEMGAME@CMiniGame@@0@Z
_TEXT	SEGMENT PARA USE32 PUBLIC 'CODE'
_TEXT	ENDS
;	COMDAT ??$_Destroy_range@U__ITEMGAME@CMiniGame@@V?$allocator@U__ITEMGAME@CMiniGame@@@std@@@std@@YAXPAU__ITEMGAME@CMiniGame@@0AAV?$allocator@U__ITEMGAME@CMiniGame@@@0@U_Nonscalar_ptr_iterator_tag@0@@Z
_TEXT	SEGMENT PARA USE32 PUBLIC 'CODE'
_TEXT	ENDS
;	COMDAT ??$_Destroy_range@KV?$allocator@K@std@@@std@@YAXPAK0AAV?$allocator@K@0@U_Scalar_ptr_iterator_tag@0@@Z
_TEXT	SEGMENT PARA USE32 PUBLIC 'CODE'
_TEXT	ENDS
;	COMDAT ??$_Destroy_range@HV?$allocator@H@std@@@std@@YAXPAH0AAV?$allocator@H@0@U_Scalar_ptr_iterator_tag@0@@Z
_TEXT	SEGMENT PARA USE32 PUBLIC 'CODE'
_TEXT	ENDS
;	COMDAT ??$_Ptr_cat@PAU__ITEM@CExchange@@PAU12@@std@@YA?AU_Nonscalar_ptr_iterator_tag@0@AAPAU__ITEM@CExchange@@0@Z
_TEXT	SEGMENT PARA USE32 PUBLIC 'CODE'
_TEXT	ENDS
;	COMDAT ??$_Destroy_range@U__ITEM@CExchange@@V?$allocator@U__ITEM@CExchange@@@std@@@std@@YAXPAU__ITEM@CExchange@@0AAV?$allocator@U__ITEM@CExchange@@@0@U_Nonscalar_ptr_iterator_tag@0@@Z
_TEXT	SEGMENT PARA USE32 PUBLIC 'CODE'
_TEXT	ENDS
;	COMDAT ??$_Ptr_cat@PAU__POINT@CExchange@@PAU12@@std@@YA?AU_Nonscalar_ptr_iterator_tag@0@AAPAU__POINT@CExchange@@0@Z
_TEXT	SEGMENT PARA USE32 PUBLIC 'CODE'
_TEXT	ENDS
;	COMDAT ??$_Destroy_range@U__POINT@CExchange@@V?$allocator@U__POINT@CExchange@@@std@@@std@@YAXPAU__POINT@CExchange@@0AAV?$allocator@U__POINT@CExchange@@@0@U_Nonscalar_ptr_iterator_tag@0@@Z
_TEXT	SEGMENT PARA USE32 PUBLIC 'CODE'
_TEXT	ENDS
;	COMDAT ??$_Destroy_range@EV?$allocator@E@std@@@std@@YAXPAE0AAV?$allocator@E@0@U_Scalar_ptr_iterator_tag@0@@Z
_TEXT	SEGMENT PARA USE32 PUBLIC 'CODE'
_TEXT	ENDS
;	COMDAT ??$_Uninitialized_copy@PAU__SPAWNREGION@CEventLua@@PAU12@V?$allocator@U__SPAWNREGION@CEventLua@@@std@@@std@@YAPAU__SPAWNREGION@CEventLua@@PAU12@00AAV?$allocator@U__SPAWNREGION@CEventLua@@@0@@Z
_TEXT	SEGMENT PARA USE32 PUBLIC 'CODE'
_TEXT	ENDS
;	COMDAT ??$_Copy_backward_opt@PAU__SPAWNREGION@CEventLua@@PAU12@@std@@YAPAU__SPAWNREGION@CEventLua@@PAU12@00U_Nonscalar_ptr_iterator_tag@0@@Z
_TEXT	SEGMENT PARA USE32 PUBLIC 'CODE'
_TEXT	ENDS
;	COMDAT ??$_Ptr_cat@PAUD3DXVECTOR3@@PAU1@@std@@YA?AU_Nonscalar_ptr_iterator_tag@0@AAPAUD3DXVECTOR3@@0@Z
_TEXT	SEGMENT PARA USE32 PUBLIC 'CODE'
_TEXT	ENDS
;	COMDAT ??$_Destroy_range@UD3DXVECTOR3@@V?$allocator@UD3DXVECTOR3@@@std@@@std@@YAXPAUD3DXVECTOR3@@0AAV?$allocator@UD3DXVECTOR3@@@0@U_Nonscalar_ptr_iterator_tag@0@@Z
_TEXT	SEGMENT PARA USE32 PUBLIC 'CODE'
_TEXT	ENDS
;	COMDAT ??$_Ptr_cat@PAU_GIFTBOX@@PAU1@@std@@YA?AU_Nonscalar_ptr_iterator_tag@0@AAPAU_GIFTBOX@@0@Z
_TEXT	SEGMENT PARA USE32 PUBLIC 'CODE'
_TEXT	ENDS
;	COMDAT ??$_Destroy_range@U_GIFTBOX@@V?$allocator@U_GIFTBOX@@@std@@@std@@YAXPAU_GIFTBOX@@0AAV?$allocator@U_GIFTBOX@@@0@U_Nonscalar_ptr_iterator_tag@0@@Z
_TEXT	SEGMENT PARA USE32 PUBLIC 'CODE'
_TEXT	ENDS
;	COMDAT ??$_Destroy_range@JV?$allocator@J@std@@@std@@YAXPAJ0AAV?$allocator@J@0@U_Scalar_ptr_iterator_tag@0@@Z
_TEXT	SEGMENT PARA USE32 PUBLIC 'CODE'
_TEXT	ENDS
;	COMDAT ??$_Uninit_fill_n@JIJ@std@@YAXPAJIABJAAV?$allocator@J@0@U_Scalar_ptr_iterator_tag@0@@Z
_TEXT	SEGMENT PARA USE32 PUBLIC 'CODE'
_TEXT	ENDS
;	COMDAT ??$_Destroy_range@U__SPAWNREGION@CEventLua@@V?$allocator@U__SPAWNREGION@CEventLua@@@std@@@std@@YAXPAU__SPAWNREGION@CEventLua@@0AAV?$allocator@U__SPAWNREGION@CEventLua@@@0@U_Nonscalar_ptr_iterator_tag@0@@Z
_TEXT	SEGMENT PARA USE32 PUBLIC 'CODE'
_TEXT	ENDS
;	COMDAT ??$make_pair@KPAVCGuildHouseBase@@@std@@YA?AU?$pair@KPAVCGuildHouseBase@@@0@KPAVCGuildHouseBase@@@Z
_TEXT	SEGMENT PARA USE32 PUBLIC 'CODE'
_TEXT	ENDS
;	COMDAT ??$?0KPAVCGuildHouseBase@@@?$pair@$$CBKPAVCGuildHouseBase@@@std@@QAE@ABU?$pair@KPAVCGuildHouseBase@@@1@@Z
_TEXT	SEGMENT PARA USE32 PUBLIC 'CODE'
_TEXT	ENDS
;	COMDAT ??1?$CFixedArray@UtagWORLD@@@@UAE@XZ
_TEXT	SEGMENT PARA USE32 PUBLIC 'CODE'
_TEXT	ENDS
;	COMDAT ?GetAt@?$CFixedArray@UtagWORLD@@@@QAEPAUtagWORLD@@K@Z
_TEXT	SEGMENT PARA USE32 PUBLIC 'CODE'
_TEXT	ENDS
;	COMDAT ??$_Distance@Viterator@?$_Tree@V?$_Tmap_traits@KKU?$less@K@std@@V?$allocator@U?$pair@$$CBKK@std@@@2@$0A@@std@@@std@@I@std@@YAXViterator@?$_Tree@V?$_Tmap_traits@KKU?$less@K@std@@V?$allocator@U?$pair@$$CBKK@std@@@2@$0A@@std@@@0@0AAI@Z
_TEXT	SEGMENT PARA USE32 PUBLIC 'CODE'
_TEXT	ENDS
;	COMDAT ??$_Distance@Viterator@?$_Tree@V?$_Tmap_traits@KU_Friend@@U?$less@K@std@@V?$allocator@U?$pair@$$CBKU_Friend@@@std@@@3@$0A@@std@@@std@@I@std@@YAXViterator@?$_Tree@V?$_Tmap_traits@KU_Friend@@U?$less@K@std@@V?$allocator@U?$pair@$$CBKU_Friend@@@std@@@3@$0A@@std@@@0@0AAI@Z
_TEXT	SEGMENT PARA USE32 PUBLIC 'CODE'
_TEXT	ENDS
;	COMDAT ??$_Destroy@U_Node@?$_List_nod@PAU__JOINPLAYER@CGuildCombat@@V?$allocator@PAU__JOINPLAYER@CGuildCombat@@@std@@@std@@@std@@YAXPAU_Node@?$_List_nod@PAU__JOINPLAYER@CGuildCombat@@V?$allocator@PAU__JOINPLAYER@CGuildCombat@@@std@@@0@@Z
_TEXT	SEGMENT PARA USE32 PUBLIC 'CODE'
_TEXT	ENDS
;	COMDAT ??$_Uninitialized_fill_n@PAV?$basic_string@DU?$char_traits@D@std@@V?$allocator@D@2@@std@@IV12@V?$allocator@V?$basic_string@DU?$char_traits@D@std@@V?$allocator@D@2@@std@@@2@@std@@YAXPAV?$basic_string@DU?$char_traits@D@std@@V?$allocator@D@2@@0@IABV10@AAV?$allocator@V?$basic_string@DU?$char_traits@D@std@@V?$allocator@D@2@@std@@@0@@Z
_TEXT	SEGMENT PARA USE32 PUBLIC 'CODE'
_TEXT	ENDS
;	COMDAT ??$_Uninitialized_fill_n@PAUMINIGMAME_PRIZE_LIST@CRainbowRaceMng@@IU12@V?$allocator@UMINIGMAME_PRIZE_LIST@CRainbowRaceMng@@@std@@@std@@YAXPAUMINIGMAME_PRIZE_LIST@CRainbowRaceMng@@IABU12@AAV?$allocator@UMINIGMAME_PRIZE_LIST@CRainbowRaceMng@@@0@@Z
_TEXT	SEGMENT PARA USE32 PUBLIC 'CODE'
_TEXT	ENDS
;	COMDAT ??$_Allocate@V?$basic_string@DU?$char_traits@D@std@@V?$allocator@D@2@@std@@@std@@YAPAV?$basic_string@DU?$char_traits@D@std@@V?$allocator@D@2@@0@IPAV10@@Z
_TEXT	SEGMENT PARA USE32 PUBLIC 'CODE'
_TEXT	ENDS
;	COMDAT ??$?0PAUtagACTMSG@@@?$allocator@PAPAUtagACTMSG@@@std@@QAE@ABV?$allocator@PAUtagACTMSG@@@1@@Z
_TEXT	SEGMENT PARA USE32 PUBLIC 'CODE'
_TEXT	ENDS
;	COMDAT ??$_Destroy@PAPAUtagACTMSG@@@std@@YAXPAPAPAUtagACTMSG@@@Z
_TEXT	SEGMENT PARA USE32 PUBLIC 'CODE'
_TEXT	ENDS
;	COMDAT ??$?0PAUtagMAGICATKMSG@@@?$allocator@PAPAUtagMAGICATKMSG@@@std@@QAE@ABV?$allocator@PAUtagMAGICATKMSG@@@1@@Z
_TEXT	SEGMENT PARA USE32 PUBLIC 'CODE'
_TEXT	ENDS
;	COMDAT ??$_Destroy@PAPAUtagMAGICATKMSG@@@std@@YAXPAPAPAUtagMAGICATKMSG@@@Z
_TEXT	SEGMENT PARA USE32 PUBLIC 'CODE'
_TEXT	ENDS
;	COMDAT ??$_Destroy_range@UENVIR_INFO@@V?$allocator@UENVIR_INFO@@@std@@@std@@YAXPAUENVIR_INFO@@0AAV?$allocator@UENVIR_INFO@@@0@@Z
_TEXT	SEGMENT PARA USE32 PUBLIC 'CODE'
_TEXT	ENDS
;	COMDAT ??$_Allocate@UENVIR_INFO@@@std@@YAPAUENVIR_INFO@@IPAU1@@Z
_TEXT	SEGMENT PARA USE32 PUBLIC 'CODE'
_TEXT	ENDS
;	COMDAT ??$_Destroy_range@PAVCObj@@V?$allocator@PAVCObj@@@std@@@std@@YAXPAPAVCObj@@0AAV?$allocator@PAVCObj@@@0@@Z
_TEXT	SEGMENT PARA USE32 PUBLIC 'CODE'
_TEXT	ENDS
;	COMDAT ??$_Allocate@PAVCObj@@@std@@YAPAPAVCObj@@IPAPAV1@@Z
_TEXT	SEGMENT PARA USE32 PUBLIC 'CODE'
_TEXT	ENDS
;	COMDAT ??$_Destroy_range@PAU__JOINPLAYER@CGuildCombat@@V?$allocator@PAU__JOINPLAYER@CGuildCombat@@@std@@@std@@YAXPAPAU__JOINPLAYER@CGuildCombat@@0AAV?$allocator@PAU__JOINPLAYER@CGuildCombat@@@0@@Z
_TEXT	SEGMENT PARA USE32 PUBLIC 'CODE'
_TEXT	ENDS
;	COMDAT ??$_Destroy_range@U__SECRETROOM_MONSTER@@V?$allocator@U__SECRETROOM_MONSTER@@@std@@@std@@YAXPAU__SECRETROOM_MONSTER@@0AAV?$allocator@U__SECRETROOM_MONSTER@@@0@@Z
_TEXT	SEGMENT PARA USE32 PUBLIC 'CODE'
_TEXT	ENDS
;	COMDAT ??$_Allocate@U__SECRETROOM_MONSTER@@@std@@YAPAU__SECRETROOM_MONSTER@@IPAU1@@Z
_TEXT	SEGMENT PARA USE32 PUBLIC 'CODE'
_TEXT	ENDS
;	COMDAT ??$_Destroy_range@V?$basic_string@DU?$char_traits@D@std@@V?$allocator@D@2@@std@@V?$allocator@V?$basic_string@DU?$char_traits@D@std@@V?$allocator@D@2@@std@@@2@@std@@YAXPAV?$basic_string@DU?$char_traits@D@std@@V?$allocator@D@2@@0@0AAV?$allocator@V?$basic_string@DU?$char_traits@D@std@@V?$allocator@D@2@@std@@@0@@Z
_TEXT	SEGMENT PARA USE32 PUBLIC 'CODE'
_TEXT	ENDS
;	COMDAT ??$_Ucopy@PAV?$basic_string@DU?$char_traits@D@std@@V?$allocator@D@2@@std@@@?$vector@V?$basic_string@DU?$char_traits@D@std@@V?$allocator@D@2@@std@@V?$allocator@V?$basic_string@DU?$char_traits@D@std@@V?$allocator@D@2@@std@@@2@@std@@IAEPAV?$basic_string@DU?$char_traits@D@std@@V?$allocator@D@2@@1@PAV21@00@Z
_TEXT	SEGMENT PARA USE32 PUBLIC 'CODE'
_TEXT	ENDS
;	COMDAT ??$fill@PAV?$basic_string@DU?$char_traits@D@std@@V?$allocator@D@2@@std@@V12@@std@@YAXPAV?$basic_string@DU?$char_traits@D@std@@V?$allocator@D@2@@0@0ABV10@@Z
_TEXT	SEGMENT PARA USE32 PUBLIC 'CODE'
_TEXT	ENDS
;	COMDAT ??$copy_backward@PAV?$basic_string@DU?$char_traits@D@std@@V?$allocator@D@2@@std@@PAV12@@std@@YAPAV?$basic_string@DU?$char_traits@D@std@@V?$allocator@D@2@@0@PAV10@00@Z
_TEXT	SEGMENT PARA USE32 PUBLIC 'CODE'
_TEXT	ENDS
;	COMDAT ??$_Ucopy@PAUMINIGMAME_PRIZE_LIST@CRainbowRaceMng@@@?$vector@UMINIGMAME_PRIZE_LIST@CRainbowRaceMng@@V?$allocator@UMINIGMAME_PRIZE_LIST@CRainbowRaceMng@@@std@@@std@@IAEPAUMINIGMAME_PRIZE_LIST@CRainbowRaceMng@@PAU23@00@Z
_TEXT	SEGMENT PARA USE32 PUBLIC 'CODE'
_TEXT	ENDS
;	COMDAT ??$fill@PAUMINIGMAME_PRIZE_LIST@CRainbowRaceMng@@U12@@std@@YAXPAUMINIGMAME_PRIZE_LIST@CRainbowRaceMng@@0ABU12@@Z
_TEXT	SEGMENT PARA USE32 PUBLIC 'CODE'
_TEXT	ENDS
;	COMDAT ??$copy_backward@PAUMINIGMAME_PRIZE_LIST@CRainbowRaceMng@@PAU12@@std@@YAPAUMINIGMAME_PRIZE_LIST@CRainbowRaceMng@@PAU12@00@Z
_TEXT	SEGMENT PARA USE32 PUBLIC 'CODE'
_TEXT	ENDS
;	COMDAT ??$_Destroy@PAU_Node@?$_Tree_nod@V?$_Tmap_traits@KPAVCClientSock@@U?$less@K@std@@V?$allocator@U?$pair@$$CBKPAVCClientSock@@@std@@@3@$0A@@std@@@std@@@std@@YAXPAPAU_Node@?$_Tree_nod@V?$_Tmap_traits@KPAVCClientSock@@U?$less@K@std@@V?$allocator@U?$pair@$$CBKPAVCClientSock@@@std@@@3@$0A@@std@@@0@@Z
_TEXT	SEGMENT PARA USE32 PUBLIC 'CODE'
_TEXT	ENDS
;	COMDAT ??$_Destroy@PAU_Node@?$_Tree_nod@V?$_Tmap_traits@KPAVCClientSockE@@U?$less@K@std@@V?$allocator@U?$pair@$$CBKPAVCClientSockE@@@std@@@3@$0A@@std@@@std@@@std@@YAXPAPAU_Node@?$_Tree_nod@V?$_Tmap_traits@KPAVCClientSockE@@U?$less@K@std@@V?$allocator@U?$pair@$$CBKPAVCClientSockE@@@std@@@3@$0A@@std@@@0@@Z
_TEXT	SEGMENT PARA USE32 PUBLIC 'CODE'
_TEXT	ENDS
;	COMDAT ??$_Destroy@PAUtagACTMSG@@@std@@YAXPAPAUtagACTMSG@@@Z
_TEXT	SEGMENT PARA USE32 PUBLIC 'CODE'
_TEXT	ENDS
;	COMDAT ??$_Destroy@PAUtagMAGICATKMSG@@@std@@YAXPAPAUtagMAGICATKMSG@@@Z
_TEXT	SEGMENT PARA USE32 PUBLIC 'CODE'
_TEXT	ENDS
;	COMDAT ??$_Destroy@U_Node@?$_Tree_nod@V?$_Tmap_traits@KKU?$less@K@std@@V?$allocator@U?$pair@$$CBKK@std@@@2@$0A@@std@@@std@@@std@@YAXPAU_Node@?$_Tree_nod@V?$_Tmap_traits@KKU?$less@K@std@@V?$allocator@U?$pair@$$CBKK@std@@@2@$0A@@std@@@0@@Z
_TEXT	SEGMENT PARA USE32 PUBLIC 'CODE'
_TEXT	ENDS
;	COMDAT ??$_Destroy@U_Node@?$_Tree_nod@V?$_Tmap_traits@KU_Friend@@U?$less@K@std@@V?$allocator@U?$pair@$$CBKU_Friend@@@std@@@3@$0A@@std@@@std@@@std@@YAXPAU_Node@?$_Tree_nod@V?$_Tmap_traits@KU_Friend@@U?$less@K@std@@V?$allocator@U?$pair@$$CBKU_Friend@@@std@@@3@$0A@@std@@@0@@Z
_TEXT	SEGMENT PARA USE32 PUBLIC 'CODE'
_TEXT	ENDS
;	COMDAT ??$_Destroy_range@UMINIGMAME_PRIZE_LIST@CRainbowRaceMng@@V?$allocator@UMINIGMAME_PRIZE_LIST@CRainbowRaceMng@@@std@@@std@@YAXPAUMINIGMAME_PRIZE_LIST@CRainbowRaceMng@@0AAV?$allocator@UMINIGMAME_PRIZE_LIST@CRainbowRaceMng@@@0@@Z
_TEXT	SEGMENT PARA USE32 PUBLIC 'CODE'
_TEXT	ENDS
;	COMDAT ??$_Allocate@UMINIGMAME_PRIZE_LIST@CRainbowRaceMng@@@std@@YAPAUMINIGMAME_PRIZE_LIST@CRainbowRaceMng@@IPAU12@@Z
_TEXT	SEGMENT PARA USE32 PUBLIC 'CODE'
_TEXT	ENDS
;	COMDAT ??$_Allocate@U_Node@?$_Tree_nod@V?$_Tmap_traits@KPAVCGuildHouseBase@@U?$less@K@std@@V?$allocator@U?$pair@$$CBKPAVCGuildHouseBase@@@std@@@3@$0A@@std@@@std@@@std@@YAPAU_Node@?$_Tree_nod@V?$_Tmap_traits@KPAVCGuildHouseBase@@U?$less@K@std@@V?$allocator@U?$pair@$$CBKPAVCGuildHouseBase@@@std@@@3@$0A@@std@@@0@IPAU120@@Z
_TEXT	SEGMENT PARA USE32 PUBLIC 'CODE'
_TEXT	ENDS
;	COMDAT ??$?0U?$pair@$$CBKPAVCClientSock@@@std@@@?$allocator@PAU_Node@?$_Tree_nod@V?$_Tmap_traits@KPAVCClientSock@@U?$less@K@std@@V?$allocator@U?$pair@$$CBKPAVCClientSock@@@std@@@3@$0A@@std@@@std@@@std@@QAE@ABV?$allocator@U?$pair@$$CBKPAVCClientSock@@@std@@@1@@Z
_TEXT	SEGMENT PARA USE32 PUBLIC 'CODE'
_TEXT	ENDS
;	COMDAT ??$?0U?$pair@$$CBKPAVCClientSockE@@@std@@@?$allocator@PAU_Node@?$_Tree_nod@V?$_Tmap_traits@KPAVCClientSockE@@U?$less@K@std@@V?$allocator@U?$pair@$$CBKPAVCClientSockE@@@std@@@3@$0A@@std@@@std@@@std@@QAE@ABV?$allocator@U?$pair@$$CBKPAVCClientSockE@@@std@@@1@@Z
_TEXT	SEGMENT PARA USE32 PUBLIC 'CODE'
_TEXT	ENDS
;	COMDAT ??$?0U?$pair@$$CBKPAVCClientSock@@@std@@@?$allocator@U_Node@?$_Tree_nod@V?$_Tmap_traits@KPAVCClientSock@@U?$less@K@std@@V?$allocator@U?$pair@$$CBKPAVCClientSock@@@std@@@3@$0A@@std@@@std@@@std@@QAE@ABV?$allocator@U?$pair@$$CBKPAVCClientSock@@@std@@@1@@Z
_TEXT	SEGMENT PARA USE32 PUBLIC 'CODE'
_TEXT	ENDS
;	COMDAT ??$_Allocate@U_Node@?$_Tree_nod@V?$_Tmap_traits@KPAVCClientSock@@U?$less@K@std@@V?$allocator@U?$pair@$$CBKPAVCClientSock@@@std@@@3@$0A@@std@@@std@@@std@@YAPAU_Node@?$_Tree_nod@V?$_Tmap_traits@KPAVCClientSock@@U?$less@K@std@@V?$allocator@U?$pair@$$CBKPAVCClientSock@@@std@@@3@$0A@@std@@@0@IPAU120@@Z
_TEXT	SEGMENT PARA USE32 PUBLIC 'CODE'
_TEXT	ENDS
;	COMDAT ??$_Destroy@U_Node@?$_Tree_nod@V?$_Tmap_traits@KPAVCClientSock@@U?$less@K@std@@V?$allocator@U?$pair@$$CBKPAVCClientSock@@@std@@@3@$0A@@std@@@std@@@std@@YAXPAU_Node@?$_Tree_nod@V?$_Tmap_traits@KPAVCClientSock@@U?$less@K@std@@V?$allocator@U?$pair@$$CBKPAVCClientSock@@@std@@@3@$0A@@std@@@0@@Z
_TEXT	SEGMENT PARA USE32 PUBLIC 'CODE'
_TEXT	ENDS
;	COMDAT ??$_Construct@PAU_Node@?$_Tree_nod@V?$_Tmap_traits@KPAVCClientSock@@U?$less@K@std@@V?$allocator@U?$pair@$$CBKPAVCClientSock@@@std@@@3@$0A@@std@@@std@@PAU123@@std@@YAXPAPAU_Node@?$_Tree_nod@V?$_Tmap_traits@KPAVCClientSock@@U?$less@K@std@@V?$allocator@U?$pair@$$CBKPAVCClientSock@@@std@@@3@$0A@@std@@@0@ABQAU120@@Z
_TEXT	SEGMENT PARA USE32 PUBLIC 'CODE'
_TEXT	ENDS
;	COMDAT ??$?0U?$pair@$$CBKPAVCClientSockE@@@std@@@?$allocator@U_Node@?$_Tree_nod@V?$_Tmap_traits@KPAVCClientSockE@@U?$less@K@std@@V?$allocator@U?$pair@$$CBKPAVCClientSockE@@@std@@@3@$0A@@std@@@std@@@std@@QAE@ABV?$allocator@U?$pair@$$CBKPAVCClientSockE@@@std@@@1@@Z
_TEXT	SEGMENT PARA USE32 PUBLIC 'CODE'
_TEXT	ENDS
;	COMDAT ??$_Allocate@U_Node@?$_Tree_nod@V?$_Tmap_traits@KPAVCClientSockE@@U?$less@K@std@@V?$allocator@U?$pair@$$CBKPAVCClientSockE@@@std@@@3@$0A@@std@@@std@@@std@@YAPAU_Node@?$_Tree_nod@V?$_Tmap_traits@KPAVCClientSockE@@U?$less@K@std@@V?$allocator@U?$pair@$$CBKPAVCClientSockE@@@std@@@3@$0A@@std@@@0@IPAU120@@Z
_TEXT	SEGMENT PARA USE32 PUBLIC 'CODE'
_TEXT	ENDS
;	COMDAT ??$_Destroy@U_Node@?$_Tree_nod@V?$_Tmap_traits@KPAVCClientSockE@@U?$less@K@std@@V?$allocator@U?$pair@$$CBKPAVCClientSockE@@@std@@@3@$0A@@std@@@std@@@std@@YAXPAU_Node@?$_Tree_nod@V?$_Tmap_traits@KPAVCClientSockE@@U?$less@K@std@@V?$allocator@U?$pair@$$CBKPAVCClientSockE@@@std@@@3@$0A@@std@@@0@@Z
_TEXT	SEGMENT PARA USE32 PUBLIC 'CODE'
_TEXT	ENDS
;	COMDAT ??$_Construct@PAU_Node@?$_Tree_nod@V?$_Tmap_traits@KPAVCClientSockE@@U?$less@K@std@@V?$allocator@U?$pair@$$CBKPAVCClientSockE@@@std@@@3@$0A@@std@@@std@@PAU123@@std@@YAXPAPAU_Node@?$_Tree_nod@V?$_Tmap_traits@KPAVCClientSockE@@U?$less@K@std@@V?$allocator@U?$pair@$$CBKPAVCClientSockE@@@std@@@3@$0A@@std@@@0@ABQAU120@@Z
_TEXT	SEGMENT PARA USE32 PUBLIC 'CODE'
_TEXT	ENDS
;	COMDAT ??_G?$CFixedArray@UtagWORLD@@@@UAEPAXI@Z
_TEXT	SEGMENT PARA USE32 PUBLIC 'CODE'
_TEXT	ENDS
;	COMDAT ?destroy@?$allocator@UtagDROPITEM@@@std@@QAEXPAUtagDROPITEM@@@Z
_TEXT	SEGMENT PARA USE32 PUBLIC 'CODE'
_TEXT	ENDS
;	COMDAT ?destroy@?$allocator@UWORMON@@@std@@QAEXPAUWORMON@@@Z
_TEXT	SEGMENT PARA USE32 PUBLIC 'CODE'
_TEXT	ENDS
;	COMDAT ?destroy@?$allocator@U__ITEMGAME@CMiniGame@@@std@@QAEXPAU__ITEMGAME@CMiniGame@@@Z
_TEXT	SEGMENT PARA USE32 PUBLIC 'CODE'
_TEXT	ENDS
;	COMDAT ?destroy@?$allocator@U__ITEM@CExchange@@@std@@QAEXPAU__ITEM@CExchange@@@Z
_TEXT	SEGMENT PARA USE32 PUBLIC 'CODE'
_TEXT	ENDS
;	COMDAT ?destroy@?$allocator@U__POINT@CExchange@@@std@@QAEXPAU__POINT@CExchange@@@Z
_TEXT	SEGMENT PARA USE32 PUBLIC 'CODE'
_TEXT	ENDS
;	COMDAT ?begin@?$vector@EV?$allocator@E@std@@@std@@QAE?AViterator@12@XZ
_TEXT	SEGMENT PARA USE32 PUBLIC 'CODE'
_TEXT	ENDS
;	COMDAT ?end@?$vector@EV?$allocator@E@std@@@std@@QAE?AViterator@12@XZ
_TEXT	SEGMENT PARA USE32 PUBLIC 'CODE'
_TEXT	ENDS
;	COMDAT ?erase@?$vector@EV?$allocator@E@std@@@std@@QAE?AViterator@12@V312@0@Z
_TEXT	SEGMENT PARA USE32 PUBLIC 'CODE'
_TEXT	ENDS
;	COMDAT ?construct@?$allocator@U__SPAWNREGION@CEventLua@@@std@@QAEXPAU__SPAWNREGION@CEventLua@@ABU34@@Z
_TEXT	SEGMENT PARA USE32 PUBLIC 'CODE'
_TEXT	ENDS
;	COMDAT ?destroy@?$allocator@U__SPAWNREGION@CEventLua@@@std@@QAEXPAU__SPAWNREGION@CEventLua@@@Z
_TEXT	SEGMENT PARA USE32 PUBLIC 'CODE'
_TEXT	ENDS
;	COMDAT ?destroy@?$allocator@UD3DXVECTOR3@@@std@@QAEXPAUD3DXVECTOR3@@@Z
_TEXT	SEGMENT PARA USE32 PUBLIC 'CODE'
_TEXT	ENDS
;	COMDAT ?destroy@?$allocator@U_GIFTBOX@@@std@@QAEXPAU_GIFTBOX@@@Z
_TEXT	SEGMENT PARA USE32 PUBLIC 'CODE'
_TEXT	ENDS
;	COMDAT ??0?$pair@KPAVCGuildHouseBase@@@std@@QAE@ABKABQAVCGuildHouseBase@@@Z
_TEXT	SEGMENT PARA USE32 PUBLIC 'CODE'
_TEXT	ENDS
;	COMDAT ??9const_iterator@?$vector@EV?$allocator@E@std@@@std@@QBE_NABV012@@Z
_TEXT	SEGMENT PARA USE32 PUBLIC 'CODE'
_TEXT	ENDS
;	COMDAT ??0iterator@?$vector@EV?$allocator@E@std@@@std@@QAE@PAE@Z
_TEXT	SEGMENT PARA USE32 PUBLIC 'CODE'
_TEXT	ENDS
;	COMDAT ??8const_iterator@?$vector@EV?$allocator@E@std@@@std@@QBE_NABV012@@Z
_TEXT	SEGMENT PARA USE32 PUBLIC 'CODE'
_TEXT	ENDS
;	COMDAT ??$insert@Vconst_iterator@?$vector@EV?$allocator@E@std@@@std@@@?$vector@EV?$allocator@E@std@@@std@@QAEXViterator@01@Vconst_iterator@01@1@Z
_TEXT	SEGMENT PARA USE32 PUBLIC 'CODE'
_TEXT	ENDS
;	COMDAT ??$_Ptr_cat@Vconst_iterator@?$vector@EV?$allocator@E@std@@@std@@PAE@std@@YA?AU_Nonscalar_ptr_iterator_tag@0@AAVconst_iterator@?$vector@EV?$allocator@E@std@@@0@AAPAE@Z
_TEXT	SEGMENT PARA USE32 PUBLIC 'CODE'
_TEXT	ENDS
;	COMDAT ??$_Uninit_copy@Vconst_iterator@?$vector@EV?$allocator@E@std@@@std@@PAEV?$allocator@E@3@@std@@YAPAEVconst_iterator@?$vector@EV?$allocator@E@std@@@0@0PAEAAV?$allocator@E@0@U_Nonscalar_ptr_iterator_tag@0@@Z
_TEXT	SEGMENT PARA USE32 PUBLIC 'CODE'
_TEXT	ENDS
;	COMDAT ??$_Uninit_copy@JJ@std@@YAPAJPAJ00AAV?$allocator@J@0@U_Scalar_ptr_iterator_tag@0@@Z
_TEXT	SEGMENT PARA USE32 PUBLIC 'CODE'
_TEXT	ENDS
;	COMDAT ??$_Uninit_copy@PAU__SPAWNREGION@CEventLua@@PAU12@V?$allocator@U__SPAWNREGION@CEventLua@@@std@@@std@@YAPAU__SPAWNREGION@CEventLua@@PAU12@00AAV?$allocator@U__SPAWNREGION@CEventLua@@@0@U_Nonscalar_ptr_iterator_tag@0@@Z
_TEXT	SEGMENT PARA USE32 PUBLIC 'CODE'
_TEXT	ENDS
;	COMDAT ??$fill_n@PAJIJ@std@@YAXPAJIABJ@Z
_TEXT	SEGMENT PARA USE32 PUBLIC 'CODE'
_TEXT	ENDS
;	COMDAT ??$_Iter_cat@Viterator@?$_Tree@V?$_Tmap_traits@KKU?$less@K@std@@V?$allocator@U?$pair@$$CBKK@std@@@2@$0A@@std@@@std@@@std@@YA?AUbidirectional_iterator_tag@0@ABViterator@?$_Tree@V?$_Tmap_traits@KKU?$less@K@std@@V?$allocator@U?$pair@$$CBKK@std@@@2@$0A@@std@@@0@@Z
_TEXT	SEGMENT PARA USE32 PUBLIC 'CODE'
_TEXT	ENDS
;	COMDAT ??$_Distance2@Viterator@?$_Tree@V?$_Tmap_traits@KKU?$less@K@std@@V?$allocator@U?$pair@$$CBKK@std@@@2@$0A@@std@@@std@@I@std@@YAXViterator@?$_Tree@V?$_Tmap_traits@KKU?$less@K@std@@V?$allocator@U?$pair@$$CBKK@std@@@2@$0A@@std@@@0@0AAIUbidirectional_iterator_tag@0@@Z
_TEXT	SEGMENT PARA USE32 PUBLIC 'CODE'
_TEXT	ENDS
;	COMDAT ??$_Iter_cat@Viterator@?$_Tree@V?$_Tmap_traits@KU_Friend@@U?$less@K@std@@V?$allocator@U?$pair@$$CBKU_Friend@@@std@@@3@$0A@@std@@@std@@@std@@YA?AUbidirectional_iterator_tag@0@ABViterator@?$_Tree@V?$_Tmap_traits@KU_Friend@@U?$less@K@std@@V?$allocator@U?$pair@$$CBKU_Friend@@@std@@@3@$0A@@std@@@0@@Z
_TEXT	SEGMENT PARA USE32 PUBLIC 'CODE'
_TEXT	ENDS
;	COMDAT ??$_Distance2@Viterator@?$_Tree@V?$_Tmap_traits@KU_Friend@@U?$less@K@std@@V?$allocator@U?$pair@$$CBKU_Friend@@@std@@@3@$0A@@std@@@std@@I@std@@YAXViterator@?$_Tree@V?$_Tmap_traits@KU_Friend@@U?$less@K@std@@V?$allocator@U?$pair@$$CBKU_Friend@@@std@@@3@$0A@@std@@@0@0AAIUbidirectional_iterator_tag@0@@Z
_TEXT	SEGMENT PARA USE32 PUBLIC 'CODE'
_TEXT	ENDS
;	COMDAT ??$_Ptr_cat@PAV?$basic_string@DU?$char_traits@D@std@@V?$allocator@D@2@@std@@PAV12@@std@@YA?AU_Nonscalar_ptr_iterator_tag@0@AAPAV?$basic_string@DU?$char_traits@D@std@@V?$allocator@D@2@@0@0@Z
_TEXT	SEGMENT PARA USE32 PUBLIC 'CODE'
_TEXT	ENDS
;	COMDAT ??$_Uninit_fill_n@PAV?$basic_string@DU?$char_traits@D@std@@V?$allocator@D@2@@std@@IV12@V?$allocator@V?$basic_string@DU?$char_traits@D@std@@V?$allocator@D@2@@std@@@2@@std@@YAXPAV?$basic_string@DU?$char_traits@D@std@@V?$allocator@D@2@@0@IABV10@AAV?$allocator@V?$basic_string@DU?$char_traits@D@std@@V?$allocator@D@2@@std@@@0@U_Nonscalar_ptr_iterator_tag@0@@Z
_TEXT	SEGMENT PARA USE32 PUBLIC 'CODE'
_TEXT	ENDS
;	COMDAT ??$_Ptr_cat@PAUMINIGMAME_PRIZE_LIST@CRainbowRaceMng@@PAU12@@std@@YA?AU_Nonscalar_ptr_iterator_tag@0@AAPAUMINIGMAME_PRIZE_LIST@CRainbowRaceMng@@0@Z
_TEXT	SEGMENT PARA USE32 PUBLIC 'CODE'
_TEXT	ENDS
;	COMDAT ??$_Uninit_fill_n@PAUMINIGMAME_PRIZE_LIST@CRainbowRaceMng@@IU12@V?$allocator@UMINIGMAME_PRIZE_LIST@CRainbowRaceMng@@@std@@@std@@YAXPAUMINIGMAME_PRIZE_LIST@CRainbowRaceMng@@IABU12@AAV?$allocator@UMINIGMAME_PRIZE_LIST@CRainbowRaceMng@@@0@U_Nonscalar_ptr_iterator_tag@0@@Z
_TEXT	SEGMENT PARA USE32 PUBLIC 'CODE'
_TEXT	ENDS
;	COMDAT ??$_Ptr_cat@PAUENVIR_INFO@@PAU1@@std@@YA?AU_Nonscalar_ptr_iterator_tag@0@AAPAUENVIR_INFO@@0@Z
_TEXT	SEGMENT PARA USE32 PUBLIC 'CODE'
_TEXT	ENDS
;	COMDAT ??$_Destroy_range@UENVIR_INFO@@V?$allocator@UENVIR_INFO@@@std@@@std@@YAXPAUENVIR_INFO@@0AAV?$allocator@UENVIR_INFO@@@0@U_Nonscalar_ptr_iterator_tag@0@@Z
_TEXT	SEGMENT PARA USE32 PUBLIC 'CODE'
_TEXT	ENDS
;	COMDAT ??$_Ptr_cat@VCObj@@@std@@YA?AU_Scalar_ptr_iterator_tag@0@PAPAVCObj@@0@Z
_TEXT	SEGMENT PARA USE32 PUBLIC 'CODE'
_TEXT	ENDS
;	COMDAT ??$_Destroy_range@PAVCObj@@V?$allocator@PAVCObj@@@std@@@std@@YAXPAPAVCObj@@0AAV?$allocator@PAVCObj@@@0@U_Scalar_ptr_iterator_tag@0@@Z
_TEXT	SEGMENT PARA USE32 PUBLIC 'CODE'
_TEXT	ENDS
;	COMDAT ??$_Ptr_cat@U__JOINPLAYER@CGuildCombat@@@std@@YA?AU_Scalar_ptr_iterator_tag@0@PAPAU__JOINPLAYER@CGuildCombat@@0@Z
_TEXT	SEGMENT PARA USE32 PUBLIC 'CODE'
_TEXT	ENDS
;	COMDAT ??$_Destroy_range@PAU__JOINPLAYER@CGuildCombat@@V?$allocator@PAU__JOINPLAYER@CGuildCombat@@@std@@@std@@YAXPAPAU__JOINPLAYER@CGuildCombat@@0AAV?$allocator@PAU__JOINPLAYER@CGuildCombat@@@0@U_Scalar_ptr_iterator_tag@0@@Z
_TEXT	SEGMENT PARA USE32 PUBLIC 'CODE'
_TEXT	ENDS
;	COMDAT ??$_Ptr_cat@PAU__SECRETROOM_MONSTER@@PAU1@@std@@YA?AU_Nonscalar_ptr_iterator_tag@0@AAPAU__SECRETROOM_MONSTER@@0@Z
_TEXT	SEGMENT PARA USE32 PUBLIC 'CODE'
_TEXT	ENDS
;	COMDAT ??$_Destroy_range@U__SECRETROOM_MONSTER@@V?$allocator@U__SECRETROOM_MONSTER@@@std@@@std@@YAXPAU__SECRETROOM_MONSTER@@0AAV?$allocator@U__SECRETROOM_MONSTER@@@0@U_Nonscalar_ptr_iterator_tag@0@@Z
_TEXT	SEGMENT PARA USE32 PUBLIC 'CODE'
_TEXT	ENDS
;	COMDAT ??$_Destroy_range@V?$basic_string@DU?$char_traits@D@std@@V?$allocator@D@2@@std@@V?$allocator@V?$basic_string@DU?$char_traits@D@std@@V?$allocator@D@2@@std@@@2@@std@@YAXPAV?$basic_string@DU?$char_traits@D@std@@V?$allocator@D@2@@0@0AAV?$allocator@V?$basic_string@DU?$char_traits@D@std@@V?$allocator@D@2@@std@@@0@U_Nonscalar_ptr_iterator_tag@0@@Z
_TEXT	SEGMENT PARA USE32 PUBLIC 'CODE'
_TEXT	ENDS
;	COMDAT ??$_Uninitialized_copy@PAV?$basic_string@DU?$char_traits@D@std@@V?$allocator@D@2@@std@@PAV12@V?$allocator@V?$basic_string@DU?$char_traits@D@std@@V?$allocator@D@2@@std@@@2@@std@@YAPAV?$basic_string@DU?$char_traits@D@std@@V?$allocator@D@2@@0@PAV10@00AAV?$allocator@V?$basic_string@DU?$char_traits@D@std@@V?$allocator@D@2@@std@@@0@@Z
_TEXT	SEGMENT PARA USE32 PUBLIC 'CODE'
_TEXT	ENDS
;	COMDAT ??$_Copy_backward_opt@PAV?$basic_string@DU?$char_traits@D@std@@V?$allocator@D@2@@std@@PAV12@@std@@YAPAV?$basic_string@DU?$char_traits@D@std@@V?$allocator@D@2@@0@PAV10@00U_Nonscalar_ptr_iterator_tag@0@@Z
_TEXT	SEGMENT PARA USE32 PUBLIC 'CODE'
_TEXT	ENDS
;	COMDAT ??$_Uninitialized_copy@PAUMINIGMAME_PRIZE_LIST@CRainbowRaceMng@@PAU12@V?$allocator@UMINIGMAME_PRIZE_LIST@CRainbowRaceMng@@@std@@@std@@YAPAUMINIGMAME_PRIZE_LIST@CRainbowRaceMng@@PAU12@00AAV?$allocator@UMINIGMAME_PRIZE_LIST@CRainbowRaceMng@@@0@@Z
_TEXT	SEGMENT PARA USE32 PUBLIC 'CODE'
_TEXT	ENDS
;	COMDAT ??$_Copy_backward_opt@PAUMINIGMAME_PRIZE_LIST@CRainbowRaceMng@@PAU12@@std@@YAPAUMINIGMAME_PRIZE_LIST@CRainbowRaceMng@@PAU12@00U_Nonscalar_ptr_iterator_tag@0@@Z
_TEXT	SEGMENT PARA USE32 PUBLIC 'CODE'
_TEXT	ENDS
;	COMDAT ??$_Destroy_range@UMINIGMAME_PRIZE_LIST@CRainbowRaceMng@@V?$allocator@UMINIGMAME_PRIZE_LIST@CRainbowRaceMng@@@std@@@std@@YAXPAUMINIGMAME_PRIZE_LIST@CRainbowRaceMng@@0AAV?$allocator@UMINIGMAME_PRIZE_LIST@CRainbowRaceMng@@@0@U_Nonscalar_ptr_iterator_tag@0@@Z
_TEXT	SEGMENT PARA USE32 PUBLIC 'CODE'
_TEXT	ENDS
;	COMDAT ??$_Destroy@UtagDROPITEM@@@std@@YAXPAUtagDROPITEM@@@Z
_TEXT	SEGMENT PARA USE32 PUBLIC 'CODE'
_TEXT	ENDS
;	COMDAT ??$_Destroy@UWORMON@@@std@@YAXPAUWORMON@@@Z
_TEXT	SEGMENT PARA USE32 PUBLIC 'CODE'
_TEXT	ENDS
;	COMDAT ??$_Destroy@U__ITEMGAME@CMiniGame@@@std@@YAXPAU__ITEMGAME@CMiniGame@@@Z
_TEXT	SEGMENT PARA USE32 PUBLIC 'CODE'
_TEXT	ENDS
;	COMDAT ??$_Destroy@U__ITEM@CExchange@@@std@@YAXPAU__ITEM@CExchange@@@Z
_TEXT	SEGMENT PARA USE32 PUBLIC 'CODE'
_TEXT	ENDS
;	COMDAT ??$_Destroy@U__POINT@CExchange@@@std@@YAXPAU__POINT@CExchange@@@Z
_TEXT	SEGMENT PARA USE32 PUBLIC 'CODE'
_TEXT	ENDS
;	COMDAT ??$copy@PAEPAE@std@@YAPAEPAE00@Z
_TEXT	SEGMENT PARA USE32 PUBLIC 'CODE'
_TEXT	ENDS
;	COMDAT ??$_Construct@U__SPAWNREGION@CEventLua@@U12@@std@@YAXPAU__SPAWNREGION@CEventLua@@ABU12@@Z
_TEXT	SEGMENT PARA USE32 PUBLIC 'CODE'
_TEXT	ENDS
;	COMDAT ??$_Destroy@U__SPAWNREGION@CEventLua@@@std@@YAXPAU__SPAWNREGION@CEventLua@@@Z
_TEXT	SEGMENT PARA USE32 PUBLIC 'CODE'
_TEXT	ENDS
;	COMDAT ??$_Destroy@UD3DXVECTOR3@@@std@@YAXPAUD3DXVECTOR3@@@Z
_TEXT	SEGMENT PARA USE32 PUBLIC 'CODE'
_TEXT	ENDS
;	COMDAT ??$_Destroy@U_GIFTBOX@@@std@@YAXPAU_GIFTBOX@@@Z
_TEXT	SEGMENT PARA USE32 PUBLIC 'CODE'
_TEXT	ENDS
;	COMDAT ?construct@?$allocator@V?$basic_string@DU?$char_traits@D@std@@V?$allocator@D@2@@std@@@std@@QAEXPAV?$basic_string@DU?$char_traits@D@std@@V?$allocator@D@2@@2@ABV32@@Z
_TEXT	SEGMENT PARA USE32 PUBLIC 'CODE'
_TEXT	ENDS
;	COMDAT ?destroy@?$allocator@V?$basic_string@DU?$char_traits@D@std@@V?$allocator@D@2@@std@@@std@@QAEXPAV?$basic_string@DU?$char_traits@D@std@@V?$allocator@D@2@@2@@Z
_TEXT	SEGMENT PARA USE32 PUBLIC 'CODE'
_TEXT	ENDS
;	COMDAT ?construct@?$allocator@E@std@@QAEXPAEABE@Z
_TEXT	SEGMENT PARA USE32 PUBLIC 'CODE'
_TEXT	ENDS
;	COMDAT ?destroy@?$allocator@E@std@@QAEXPAE@Z
_TEXT	SEGMENT PARA USE32 PUBLIC 'CODE'
_TEXT	ENDS
;	COMDAT ??Dconst_iterator@?$vector@EV?$allocator@E@std@@@std@@QBEABEXZ
_TEXT	SEGMENT PARA USE32 PUBLIC 'CODE'
_TEXT	ENDS
;	COMDAT ??Econst_iterator@?$vector@EV?$allocator@E@std@@@std@@QAEAAV012@XZ
_TEXT	SEGMENT PARA USE32 PUBLIC 'CODE'
_TEXT	ENDS
;	COMDAT ?destroy@?$allocator@UENVIR_INFO@@@std@@QAEXPAUENVIR_INFO@@@Z
_TEXT	SEGMENT PARA USE32 PUBLIC 'CODE'
_TEXT	ENDS
;	COMDAT ?destroy@?$allocator@U__SECRETROOM_MONSTER@@@std@@QAEXPAU__SECRETROOM_MONSTER@@@Z
_TEXT	SEGMENT PARA USE32 PUBLIC 'CODE'
_TEXT	ENDS
;	COMDAT ?construct@?$allocator@UMINIGMAME_PRIZE_LIST@CRainbowRaceMng@@@std@@QAEXPAUMINIGMAME_PRIZE_LIST@CRainbowRaceMng@@ABU34@@Z
_TEXT	SEGMENT PARA USE32 PUBLIC 'CODE'
_TEXT	ENDS
;	COMDAT ?destroy@?$allocator@UMINIGMAME_PRIZE_LIST@CRainbowRaceMng@@@std@@QAEXPAUMINIGMAME_PRIZE_LIST@CRainbowRaceMng@@@Z
_TEXT	SEGMENT PARA USE32 PUBLIC 'CODE'
_TEXT	ENDS
;	COMDAT ??$_Insert@Vconst_iterator@?$vector@EV?$allocator@E@std@@@std@@@?$vector@EV?$allocator@E@std@@@std@@QAEXViterator@01@Vconst_iterator@01@1Uforward_iterator_tag@1@@Z
_TEXT	SEGMENT PARA USE32 PUBLIC 'CODE'
_TEXT	ENDS
;	COMDAT ??$_Uninit_copy@PAV?$basic_string@DU?$char_traits@D@std@@V?$allocator@D@2@@std@@PAV12@V?$allocator@V?$basic_string@DU?$char_traits@D@std@@V?$allocator@D@2@@std@@@2@@std@@YAPAV?$basic_string@DU?$char_traits@D@std@@V?$allocator@D@2@@0@PAV10@00AAV?$allocator@V?$basic_string@DU?$char_traits@D@std@@V?$allocator@D@2@@std@@@0@U_Nonscalar_ptr_iterator_tag@0@@Z
_TEXT	SEGMENT PARA USE32 PUBLIC 'CODE'
_TEXT	ENDS
;	COMDAT ??$_Uninit_copy@PAUMINIGMAME_PRIZE_LIST@CRainbowRaceMng@@PAU12@V?$allocator@UMINIGMAME_PRIZE_LIST@CRainbowRaceMng@@@std@@@std@@YAPAUMINIGMAME_PRIZE_LIST@CRainbowRaceMng@@PAU12@00AAV?$allocator@UMINIGMAME_PRIZE_LIST@CRainbowRaceMng@@@0@U_Nonscalar_ptr_iterator_tag@0@@Z
_TEXT	SEGMENT PARA USE32 PUBLIC 'CODE'
_TEXT	ENDS
;	COMDAT ??$_Copy_opt@PAEPAE@std@@YAPAEPAE00U_Scalar_ptr_iterator_tag@0@@Z
_TEXT	SEGMENT PARA USE32 PUBLIC 'CODE'
_TEXT	ENDS
;	COMDAT ??$_Construct@V?$basic_string@DU?$char_traits@D@std@@V?$allocator@D@2@@std@@V12@@std@@YAXPAV?$basic_string@DU?$char_traits@D@std@@V?$allocator@D@2@@0@ABV10@@Z
_TEXT	SEGMENT PARA USE32 PUBLIC 'CODE'
_TEXT	ENDS
;	COMDAT ??$_Destroy@V?$basic_string@DU?$char_traits@D@std@@V?$allocator@D@2@@std@@@std@@YAXPAV?$basic_string@DU?$char_traits@D@std@@V?$allocator@D@2@@0@@Z
_TEXT	SEGMENT PARA USE32 PUBLIC 'CODE'
_TEXT	ENDS
;	COMDAT ??$_Construct@EE@std@@YAXPAEABE@Z
_TEXT	SEGMENT PARA USE32 PUBLIC 'CODE'
_TEXT	ENDS
;	COMDAT ??$_Destroy@E@std@@YAXPAE@Z
_TEXT	SEGMENT PARA USE32 PUBLIC 'CODE'
_TEXT	ENDS
;	COMDAT ??$_Destroy@UENVIR_INFO@@@std@@YAXPAUENVIR_INFO@@@Z
_TEXT	SEGMENT PARA USE32 PUBLIC 'CODE'
_TEXT	ENDS
;	COMDAT ??$_Destroy@U__SECRETROOM_MONSTER@@@std@@YAXPAU__SECRETROOM_MONSTER@@@Z
_TEXT	SEGMENT PARA USE32 PUBLIC 'CODE'
_TEXT	ENDS
;	COMDAT ??$_Construct@UMINIGMAME_PRIZE_LIST@CRainbowRaceMng@@U12@@std@@YAXPAUMINIGMAME_PRIZE_LIST@CRainbowRaceMng@@ABU12@@Z
_TEXT	SEGMENT PARA USE32 PUBLIC 'CODE'
_TEXT	ENDS
;	COMDAT ??$_Destroy@UMINIGMAME_PRIZE_LIST@CRainbowRaceMng@@@std@@YAXPAUMINIGMAME_PRIZE_LIST@CRainbowRaceMng@@@Z
_TEXT	SEGMENT PARA USE32 PUBLIC 'CODE'
_TEXT	ENDS
;	COMDAT ??_G?$basic_string@DU?$char_traits@D@std@@V?$allocator@D@2@@std@@QAEPAXI@Z
_TEXT	SEGMENT PARA USE32 PUBLIC 'CODE'
_TEXT	ENDS
;	COMDAT ??_GENVIR_INFO@@QAEPAXI@Z
_TEXT	SEGMENT PARA USE32 PUBLIC 'CODE'
_TEXT	ENDS
;	COMDAT ?capacity@?$vector@EV?$allocator@E@std@@@std@@QBEIXZ
_TEXT	SEGMENT PARA USE32 PUBLIC 'CODE'
_TEXT	ENDS
;	COMDAT ??Giterator@?$vector@EV?$allocator@E@std@@@std@@QBEHABVconst_iterator@12@@Z
_TEXT	SEGMENT PARA USE32 PUBLIC 'CODE'
_TEXT	ENDS
;	COMDAT ??Gconst_iterator@?$vector@EV?$allocator@E@std@@@std@@QBEHABV012@@Z
_TEXT	SEGMENT PARA USE32 PUBLIC 'CODE'
_TEXT	ENDS
;	COMDAT ??$_Distance@Vconst_iterator@?$vector@EV?$allocator@E@std@@@std@@I@std@@YAXVconst_iterator@?$vector@EV?$allocator@E@std@@@0@0AAI@Z
_TEXT	SEGMENT PARA USE32 PUBLIC 'CODE'
_TEXT	ENDS
;	COMDAT ??$_Ucopy@PAE@?$vector@EV?$allocator@E@std@@@std@@IAEPAEPAE00@Z
_TEXT	SEGMENT PARA USE32 PUBLIC 'CODE'
_TEXT	ENDS
;	COMDAT ??$advance@Vconst_iterator@?$vector@EV?$allocator@E@std@@@std@@H@std@@YAXAAVconst_iterator@?$vector@EV?$allocator@E@std@@@0@H@Z
_TEXT	SEGMENT PARA USE32 PUBLIC 'CODE'
_TEXT	ENDS
;	COMDAT ??$copy@Vconst_iterator@?$vector@EV?$allocator@E@std@@@std@@PAE@std@@YAPAEVconst_iterator@?$vector@EV?$allocator@E@std@@@0@0PAE@Z
_TEXT	SEGMENT PARA USE32 PUBLIC 'CODE'
_TEXT	ENDS
;	COMDAT ??$copy_backward@PAEPAE@std@@YAPAEPAE00@Z
_TEXT	SEGMENT PARA USE32 PUBLIC 'CODE'
_TEXT	ENDS
;	COMDAT ??$_Distance2@Vconst_iterator@?$vector@EV?$allocator@E@std@@@std@@I@std@@YAXVconst_iterator@?$vector@EV?$allocator@E@std@@@0@0AAIUrandom_access_iterator_tag@0@@Z
_TEXT	SEGMENT PARA USE32 PUBLIC 'CODE'
_TEXT	ENDS
;	COMDAT ??$_Uninitialized_copy@PAEPAEV?$allocator@E@std@@@std@@YAPAEPAE00AAV?$allocator@E@0@@Z
_TEXT	SEGMENT PARA USE32 PUBLIC 'CODE'
_TEXT	ENDS
;	COMDAT ??$_Advance@Vconst_iterator@?$vector@EV?$allocator@E@std@@@std@@H@std@@YAXAAVconst_iterator@?$vector@EV?$allocator@E@std@@@0@HUrandom_access_iterator_tag@0@@Z
_TEXT	SEGMENT PARA USE32 PUBLIC 'CODE'
_TEXT	ENDS
;	COMDAT ??$_Copy_opt@Vconst_iterator@?$vector@EV?$allocator@E@std@@@std@@PAE@std@@YAPAEVconst_iterator@?$vector@EV?$allocator@E@std@@@0@0PAEU_Nonscalar_ptr_iterator_tag@0@@Z
_TEXT	SEGMENT PARA USE32 PUBLIC 'CODE'
_TEXT	ENDS
;	COMDAT ??$_Copy_backward_opt@PAEPAE@std@@YAPAEPAE00U_Scalar_ptr_iterator_tag@0@@Z
_TEXT	SEGMENT PARA USE32 PUBLIC 'CODE'
_TEXT	ENDS
;	COMDAT ??Yconst_iterator@?$vector@EV?$allocator@E@std@@@std@@QAEAAV012@H@Z
_TEXT	SEGMENT PARA USE32 PUBLIC 'CODE'
_TEXT	ENDS
;	COMDAT ??$_Uninit_copy@EE@std@@YAPAEPAE00AAV?$allocator@E@0@U_Scalar_ptr_iterator_tag@0@@Z
_TEXT	SEGMENT PARA USE32 PUBLIC 'CODE'
_TEXT	ENDS
;	COMDAT ?deallocate@?$allocator@E@std@@QAEXPAEI@Z
_TEXT	SEGMENT PARA USE32 PUBLIC 'CODE'
_TEXT	ENDS
;	COMDAT ??$_Ucopy@Vconst_iterator@?$vector@EV?$allocator@E@std@@@std@@@?$vector@EV?$allocator@E@std@@@std@@IAEPAEVconst_iterator@01@0PAE@Z
_TEXT	SEGMENT PARA USE32 PUBLIC 'CODE'
_TEXT	ENDS
;	COMDAT ?allocate@?$allocator@E@std@@QAEPAEI@Z
_TEXT	SEGMENT PARA USE32 PUBLIC 'CODE'
_TEXT	ENDS
;	COMDAT ??$_Allocate@E@std@@YAPAEIPAE@Z
_TEXT	SEGMENT PARA USE32 PUBLIC 'CODE'
_TEXT	ENDS
;	COMDAT ?_Xlen@?$vector@EV?$allocator@E@std@@@std@@IBEXXZ
_TEXT	SEGMENT PARA USE32 PUBLIC 'CODE'
_TEXT	ENDS
;	COMDAT ?size@?$vector@EV?$allocator@E@std@@@std@@QBEIXZ
_TEXT	SEGMENT PARA USE32 PUBLIC 'CODE'
_TEXT	ENDS
;	COMDAT ?max_size@?$vector@EV?$allocator@E@std@@@std@@QBEIXZ
_TEXT	SEGMENT PARA USE32 PUBLIC 'CODE'
_TEXT	ENDS
;	COMDAT ?max_size@?$allocator@E@std@@QBEIXZ
_TEXT	SEGMENT PARA USE32 PUBLIC 'CODE'
_TEXT	ENDS
;	COMDAT ?_Ptr_cat@std@@YA?AU_Scalar_ptr_iterator_tag@1@PAE0@Z
_TEXT	SEGMENT PARA USE32 PUBLIC 'CODE'
_TEXT	ENDS
;	COMDAT ??0const_iterator@?$vector@EV?$allocator@E@std@@@std@@QAE@PAE@Z
_TEXT	SEGMENT PARA USE32 PUBLIC 'CODE'
_TEXT	ENDS
;	COMDAT ?_Destroy@?$vector@EV?$allocator@E@std@@@std@@IAEXPAE0@Z
_TEXT	SEGMENT PARA USE32 PUBLIC 'CODE'
_TEXT	ENDS
;	COMDAT ??$_Destroy_range@EV?$allocator@E@std@@@std@@YAXPAE0AAV?$allocator@E@0@@Z
_TEXT	SEGMENT PARA USE32 PUBLIC 'CODE'
_TEXT	ENDS
;	COMDAT ??4?$basic_string@DU?$char_traits@D@std@@V?$allocator@D@2@@std@@QAEAAV01@ABV01@@Z
_TEXT	SEGMENT PARA USE32 PUBLIC 'CODE'
_TEXT	ENDS
;	COMDAT ?assign@?$basic_string@DU?$char_traits@D@std@@V?$allocator@D@2@@std@@QAEAAV12@ABV12@@Z
_TEXT	SEGMENT PARA USE32 PUBLIC 'CODE'
_TEXT	ENDS
;	COMDAT ?assign@?$basic_string@DU?$char_traits@D@std@@V?$allocator@D@2@@std@@QAEAAV12@ABV12@II@Z
_TEXT	SEGMENT PARA USE32 PUBLIC 'CODE'
_TEXT	ENDS
;	COMDAT ?erase@?$basic_string@DU?$char_traits@D@std@@V?$allocator@D@2@@std@@QAEAAV12@II@Z
_TEXT	SEGMENT PARA USE32 PUBLIC 'CODE'
_TEXT	ENDS
;	COMDAT ?move@?$char_traits@D@std@@SAPADPADPBDI@Z
_TEXT	SEGMENT PARA USE32 PUBLIC 'CODE'
_TEXT	ENDS
;	COMDAT ?_Grow@?$basic_string@DU?$char_traits@D@std@@V?$allocator@D@2@@std@@IAE_NI_N@Z
_TEXT	SEGMENT PARA USE32 PUBLIC 'CODE'
_TEXT	ENDS
;	COMDAT ?max_size@?$basic_string@DU?$char_traits@D@std@@V?$allocator@D@2@@std@@QBEIXZ
_TEXT	SEGMENT PARA USE32 PUBLIC 'CODE'
_TEXT	ENDS
;	COMDAT ?max_size@?$allocator@D@std@@QBEIXZ
_TEXT	SEGMENT PARA USE32 PUBLIC 'CODE'
_TEXT	ENDS
;	COMDAT ?_Copy@?$basic_string@DU?$char_traits@D@std@@V?$allocator@D@2@@std@@IAEXII@Z
_TEXT	SEGMENT PARA USE32 PUBLIC 'CODE'
_TEXT	ENDS
;	COMDAT ?allocate@?$allocator@D@std@@QAEPADI@Z
_TEXT	SEGMENT PARA USE32 PUBLIC 'CODE'
_TEXT	ENDS
;	COMDAT ??$_Allocate@D@std@@YAPADIPAD@Z
_TEXT	SEGMENT PARA USE32 PUBLIC 'CODE'
_TEXT	ENDS
;	COMDAT ?_Tidy@?$basic_string@DU?$char_traits@D@std@@V?$allocator@D@2@@std@@IAEX_NI@Z
_TEXT	SEGMENT PARA USE32 PUBLIC 'CODE'
_TEXT	ENDS
;	COMDAT ?deallocate@?$allocator@D@std@@QAEXPADI@Z
_TEXT	SEGMENT PARA USE32 PUBLIC 'CODE'
_TEXT	ENDS
;	COMDAT ?copy@?$char_traits@D@std@@SAPADPADPBDI@Z
_TEXT	SEGMENT PARA USE32 PUBLIC 'CODE'
_TEXT	ENDS
;	COMDAT ?_Myptr@?$basic_string@DU?$char_traits@D@std@@V?$allocator@D@2@@std@@QAEPADXZ
_TEXT	SEGMENT PARA USE32 PUBLIC 'CODE'
_TEXT	ENDS
;	COMDAT ?_Eos@?$basic_string@DU?$char_traits@D@std@@V?$allocator@D@2@@std@@IAEXI@Z
_TEXT	SEGMENT PARA USE32 PUBLIC 'CODE'
_TEXT	ENDS
;	COMDAT ?assign@?$char_traits@D@std@@SAXAADABD@Z
_TEXT	SEGMENT PARA USE32 PUBLIC 'CODE'
_TEXT	ENDS
;	COMDAT ?npos@?$basic_string@DU?$char_traits@D@std@@V?$allocator@D@2@@std@@2IB
CONST	SEGMENT DWORD USE32 PUBLIC 'CONST'
CONST	ENDS
;	COMDAT ??_7?$CFixedArray@UtagWORLD@@@@6B@
CONST	SEGMENT DWORD USE32 PUBLIC 'CONST'
CONST	ENDS
;	COMDAT ?_Ptr_cat@std@@YA?AU_Scalar_ptr_iterator_tag@1@PAJ0@Z
_TEXT	SEGMENT PARA USE32 PUBLIC 'CODE'
_TEXT	ENDS
;	COMDAT ??9const_iterator@?$_Tree@V?$_Tmap_traits@KEU?$less@K@std@@V?$allocator@U?$pair@$$CBKE@std@@@2@$0A@@std@@@std@@QBE_NABV012@@Z
_TEXT	SEGMENT PARA USE32 PUBLIC 'CODE'
_TEXT	ENDS
;	COMDAT ??8const_iterator@?$_Tree@V?$_Tmap_traits@KEU?$less@K@std@@V?$allocator@U?$pair@$$CBKE@std@@@2@$0A@@std@@@std@@QBE_NABV012@@Z
_TEXT	SEGMENT PARA USE32 PUBLIC 'CODE'
_TEXT	ENDS
;	COMDAT ??Eiterator@?$_Tree@V?$_Tmap_traits@KEU?$less@K@std@@V?$allocator@U?$pair@$$CBKE@std@@@2@$0A@@std@@@std@@QAEAAV012@XZ
_TEXT	SEGMENT PARA USE32 PUBLIC 'CODE'
_TEXT	ENDS
;	COMDAT ??Econst_iterator@?$_Tree@V?$_Tmap_traits@KEU?$less@K@std@@V?$allocator@U?$pair@$$CBKE@std@@@2@$0A@@std@@@std@@QAEAAV012@XZ
_TEXT	SEGMENT PARA USE32 PUBLIC 'CODE'
_TEXT	ENDS
;	COMDAT ?_Inc@const_iterator@?$_Tree@V?$_Tmap_traits@KEU?$less@K@std@@V?$allocator@U?$pair@$$CBKE@std@@@2@$0A@@std@@@std@@QAEXXZ
_TEXT	SEGMENT PARA USE32 PUBLIC 'CODE'
_TEXT	ENDS
;	COMDAT ?_Min@?$_Tree@V?$_Tmap_traits@KEU?$less@K@std@@V?$allocator@U?$pair@$$CBKE@std@@@2@$0A@@std@@@std@@KAPAU_Node@?$_Tree_nod@V?$_Tmap_traits@KEU?$less@K@std@@V?$allocator@U?$pair@$$CBKE@std@@@2@$0A@@std@@@2@PAU342@@Z
_TEXT	SEGMENT PARA USE32 PUBLIC 'CODE'
_TEXT	ENDS
;	COMDAT ?_Left@?$_Tree@V?$_Tmap_traits@KEU?$less@K@std@@V?$allocator@U?$pair@$$CBKE@std@@@2@$0A@@std@@@std@@KAAAPAU_Node@?$_Tree_nod@V?$_Tmap_traits@KEU?$less@K@std@@V?$allocator@U?$pair@$$CBKE@std@@@2@$0A@@std@@@2@PAU342@@Z
_TEXT	SEGMENT PARA USE32 PUBLIC 'CODE'
_TEXT	ENDS
;	COMDAT ?_Isnil@?$_Tree@V?$_Tmap_traits@KEU?$less@K@std@@V?$allocator@U?$pair@$$CBKE@std@@@2@$0A@@std@@@std@@KAAADPAU_Node@?$_Tree_nod@V?$_Tmap_traits@KEU?$less@K@std@@V?$allocator@U?$pair@$$CBKE@std@@@2@$0A@@std@@@2@@Z
_TEXT	SEGMENT PARA USE32 PUBLIC 'CODE'
_TEXT	ENDS
;	COMDAT ?_Parent@?$_Tree@V?$_Tmap_traits@KEU?$less@K@std@@V?$allocator@U?$pair@$$CBKE@std@@@2@$0A@@std@@@std@@KAAAPAU_Node@?$_Tree_nod@V?$_Tmap_traits@KEU?$less@K@std@@V?$allocator@U?$pair@$$CBKE@std@@@2@$0A@@std@@@2@PAU342@@Z
_TEXT	SEGMENT PARA USE32 PUBLIC 'CODE'
_TEXT	ENDS
;	COMDAT ?_Right@?$_Tree@V?$_Tmap_traits@KEU?$less@K@std@@V?$allocator@U?$pair@$$CBKE@std@@@2@$0A@@std@@@std@@KAAAPAU_Node@?$_Tree_nod@V?$_Tmap_traits@KEU?$less@K@std@@V?$allocator@U?$pair@$$CBKE@std@@@2@$0A@@std@@@2@PAU342@@Z
_TEXT	SEGMENT PARA USE32 PUBLIC 'CODE'
_TEXT	ENDS
;	COMDAT ??9const_iterator@?$_Tree@V?$_Tmap_traits@KPAVCCtrl@@U?$less@K@std@@V?$allocator@U?$pair@$$CBKPAVCCtrl@@@std@@@3@$0A@@std@@@std@@QBE_NABV012@@Z
_TEXT	SEGMENT PARA USE32 PUBLIC 'CODE'
_TEXT	ENDS
;	COMDAT ??9const_iterator@?$_Tree@V?$_Tmap_traits@KPAVCUser@@U?$less@K@std@@V?$allocator@U?$pair@$$CBKPAVCUser@@@std@@@3@$0A@@std@@@std@@QBE_NABV012@@Z
_TEXT	SEGMENT PARA USE32 PUBLIC 'CODE'
_TEXT	ENDS
;	COMDAT ??8const_iterator@?$_Tree@V?$_Tmap_traits@KPAVCUser@@U?$less@K@std@@V?$allocator@U?$pair@$$CBKPAVCUser@@@std@@@3@$0A@@std@@@std@@QBE_NABV012@@Z
_TEXT	SEGMENT PARA USE32 PUBLIC 'CODE'
_TEXT	ENDS
;	COMDAT ??Eiterator@?$_Tree@V?$_Tmap_traits@KPAVCUser@@U?$less@K@std@@V?$allocator@U?$pair@$$CBKPAVCUser@@@std@@@3@$0A@@std@@@std@@QAEAAV012@XZ
_TEXT	SEGMENT PARA USE32 PUBLIC 'CODE'
_TEXT	ENDS
;	COMDAT ??Econst_iterator@?$_Tree@V?$_Tmap_traits@KPAVCUser@@U?$less@K@std@@V?$allocator@U?$pair@$$CBKPAVCUser@@@std@@@3@$0A@@std@@@std@@QAEAAV012@XZ
_TEXT	SEGMENT PARA USE32 PUBLIC 'CODE'
_TEXT	ENDS
;	COMDAT ?_Inc@const_iterator@?$_Tree@V?$_Tmap_traits@KPAVCUser@@U?$less@K@std@@V?$allocator@U?$pair@$$CBKPAVCUser@@@std@@@3@$0A@@std@@@std@@QAEXXZ
_TEXT	SEGMENT PARA USE32 PUBLIC 'CODE'
_TEXT	ENDS
;	COMDAT ?_Min@?$_Tree@V?$_Tmap_traits@KPAVCUser@@U?$less@K@std@@V?$allocator@U?$pair@$$CBKPAVCUser@@@std@@@3@$0A@@std@@@std@@KAPAU_Node@?$_Tree_nod@V?$_Tmap_traits@KPAVCUser@@U?$less@K@std@@V?$allocator@U?$pair@$$CBKPAVCUser@@@std@@@3@$0A@@std@@@2@PAU342@@Z
_TEXT	SEGMENT PARA USE32 PUBLIC 'CODE'
_TEXT	ENDS
;	COMDAT ?_Left@?$_Tree@V?$_Tmap_traits@KPAVCUser@@U?$less@K@std@@V?$allocator@U?$pair@$$CBKPAVCUser@@@std@@@3@$0A@@std@@@std@@KAAAPAU_Node@?$_Tree_nod@V?$_Tmap_traits@KPAVCUser@@U?$less@K@std@@V?$allocator@U?$pair@$$CBKPAVCUser@@@std@@@3@$0A@@std@@@2@PAU342@@Z
_TEXT	SEGMENT PARA USE32 PUBLIC 'CODE'
_TEXT	ENDS
;	COMDAT ?_Isnil@?$_Tree@V?$_Tmap_traits@KPAVCUser@@U?$less@K@std@@V?$allocator@U?$pair@$$CBKPAVCUser@@@std@@@3@$0A@@std@@@std@@KAAADPAU_Node@?$_Tree_nod@V?$_Tmap_traits@KPAVCUser@@U?$less@K@std@@V?$allocator@U?$pair@$$CBKPAVCUser@@@std@@@3@$0A@@std@@@2@@Z
_TEXT	SEGMENT PARA USE32 PUBLIC 'CODE'
_TEXT	ENDS
;	COMDAT ?_Parent@?$_Tree@V?$_Tmap_traits@KPAVCUser@@U?$less@K@std@@V?$allocator@U?$pair@$$CBKPAVCUser@@@std@@@3@$0A@@std@@@std@@KAAAPAU_Node@?$_Tree_nod@V?$_Tmap_traits@KPAVCUser@@U?$less@K@std@@V?$allocator@U?$pair@$$CBKPAVCUser@@@std@@@3@$0A@@std@@@2@PAU342@@Z
_TEXT	SEGMENT PARA USE32 PUBLIC 'CODE'
_TEXT	ENDS
;	COMDAT ?_Right@?$_Tree@V?$_Tmap_traits@KPAVCUser@@U?$less@K@std@@V?$allocator@U?$pair@$$CBKPAVCUser@@@std@@@3@$0A@@std@@@std@@KAAAPAU_Node@?$_Tree_nod@V?$_Tmap_traits@KPAVCUser@@U?$less@K@std@@V?$allocator@U?$pair@$$CBKPAVCUser@@@std@@@3@$0A@@std@@@2@PAU342@@Z
_TEXT	SEGMENT PARA USE32 PUBLIC 'CODE'
_TEXT	ENDS
;	COMDAT ?_Psave@?$_Facetptr@V?$ctype@G@std@@@std@@2PBVfacet@locale@2@B
_DATA	SEGMENT DWORD USE32 PUBLIC 'DATA'
_DATA	ENDS
;	COMDAT ?_Psave@?$_Facetptr@V?$ctype@D@std@@@std@@2PBVfacet@locale@2@B
_DATA	SEGMENT DWORD USE32 PUBLIC 'DATA'
_DATA	ENDS
;	COMDAT ??3@YAXPAX0@Z
_TEXT	SEGMENT PARA USE32 PUBLIC 'CODE'
_TEXT	ENDS
;	COMDAT ??2@YAPAXIPAX@Z
_TEXT	SEGMENT PARA USE32 PUBLIC 'CODE'
_TEXT	ENDS
;	COMDAT ??0?$basic_string@DU?$char_traits@D@std@@V?$allocator@D@2@@std@@QAE@ABV01@@Z
_TEXT	SEGMENT PARA USE32 PUBLIC 'CODE'
_TEXT	ENDS
;	COMDAT ??0?$_String_val@DV?$allocator@D@std@@@std@@IAE@V?$allocator@D@1@@Z
_TEXT	SEGMENT PARA USE32 PUBLIC 'CODE'
_TEXT	ENDS
;	COMDAT ??0?$allocator@D@std@@QAE@ABV01@@Z
_TEXT	SEGMENT PARA USE32 PUBLIC 'CODE'
_TEXT	ENDS
;	COMDAT ??$swap@D@std@@YAXAAD0@Z
_TEXT	SEGMENT PARA USE32 PUBLIC 'CODE'
_TEXT	ENDS
;	COMDAT __TI3?AVout_of_range@std@@
xdata$x	SEGMENT DWORD USE32 PUBLIC 'CONST'
xdata$x	ENDS
;	COMDAT ??1out_of_range@std@@UAE@XZ
_TEXT	SEGMENT PARA USE32 PUBLIC 'CODE'
_TEXT	ENDS
;	COMDAT ??_7out_of_range@std@@6B@
CONST	SEGMENT DWORD USE32 PUBLIC 'CONST'
CONST	ENDS
;	COMDAT ??_Gout_of_range@std@@UAEPAXI@Z
_TEXT	SEGMENT PARA USE32 PUBLIC 'CODE'
_TEXT	ENDS
;	COMDAT ?what@logic_error@std@@UBEPBDXZ
_TEXT	SEGMENT PARA USE32 PUBLIC 'CODE'
_TEXT	ENDS
;	COMDAT ??1logic_error@std@@UAE@XZ
_TEXT	SEGMENT PARA USE32 PUBLIC 'CODE'
_TEXT	ENDS
;	COMDAT ??_7logic_error@std@@6B@
CONST	SEGMENT DWORD USE32 PUBLIC 'CONST'
CONST	ENDS
;	COMDAT ??_Glogic_error@std@@UAEPAXI@Z
_TEXT	SEGMENT PARA USE32 PUBLIC 'CODE'
_TEXT	ENDS
;	COMDAT __CTA3?AVout_of_range@std@@
xdata$x	SEGMENT DWORD USE32 PUBLIC 'CONST'
xdata$x	ENDS
;	COMDAT __CT??_R0?AVout_of_range@std@@@8??0out_of_range@std@@QAE@ABV01@@Z40
xdata$x	SEGMENT DWORD USE32 PUBLIC 'CONST'
xdata$x	ENDS
;	COMDAT ??_R0?AVout_of_range@std@@@8
_DATA	SEGMENT DWORD USE32 PUBLIC 'DATA'
_DATA	ENDS
;	COMDAT ??0out_of_range@std@@QAE@ABV01@@Z
_TEXT	SEGMENT PARA USE32 PUBLIC 'CODE'
_TEXT	ENDS
;	COMDAT ??0logic_error@std@@QAE@ABV01@@Z
_TEXT	SEGMENT PARA USE32 PUBLIC 'CODE'
_TEXT	ENDS
;	COMDAT __CT??_R0?AVlogic_error@std@@@8??0logic_error@std@@QAE@ABV01@@Z40
xdata$x	SEGMENT DWORD USE32 PUBLIC 'CONST'
xdata$x	ENDS
;	COMDAT ??_R0?AVlogic_error@std@@@8
_DATA	SEGMENT DWORD USE32 PUBLIC 'DATA'
_DATA	ENDS
;	COMDAT __CT??_R0?AVexception@@@8??0exception@@QAE@ABV0@@Z12
xdata$x	SEGMENT DWORD USE32 PUBLIC 'CONST'
xdata$x	ENDS
;	COMDAT ??_R0?AVexception@@@8
_DATA	SEGMENT DWORD USE32 PUBLIC 'DATA'
_DATA	ENDS
;	COMDAT ??_C@_0BM@PAPJHAGI@invalid?5map?1set?$DMT?$DO?5iterator?$AA@
CONST	SEGMENT DWORD USE32 PUBLIC 'CONST'
CONST	ENDS
;	COMDAT ??0out_of_range@std@@QAE@ABV?$basic_string@DU?$char_traits@D@std@@V?$allocator@D@2@@1@@Z
_TEXT	SEGMENT PARA USE32 PUBLIC 'CODE'
_TEXT	ENDS
;	COMDAT ??0logic_error@std@@QAE@ABV?$basic_string@DU?$char_traits@D@std@@V?$allocator@D@2@@1@@Z
_TEXT	SEGMENT PARA USE32 PUBLIC 'CODE'
_TEXT	ENDS
;	COMDAT ??_C@_0BD@OLBABOEK@vector?$DMT?$DO?5too?5long?$AA@
CONST	SEGMENT DWORD USE32 PUBLIC 'CONST'
CONST	ENDS
;	COMDAT __TI3?AVlength_error@std@@
xdata$x	SEGMENT DWORD USE32 PUBLIC 'CONST'
xdata$x	ENDS
;	COMDAT ??1length_error@std@@UAE@XZ
_TEXT	SEGMENT PARA USE32 PUBLIC 'CODE'
_TEXT	ENDS
;	COMDAT ??_7length_error@std@@6B@
CONST	SEGMENT DWORD USE32 PUBLIC 'CONST'
CONST	ENDS
;	COMDAT ??_Glength_error@std@@UAEPAXI@Z
_TEXT	SEGMENT PARA USE32 PUBLIC 'CODE'
_TEXT	ENDS
;	COMDAT __CTA3?AVlength_error@std@@
xdata$x	SEGMENT DWORD USE32 PUBLIC 'CONST'
xdata$x	ENDS
;	COMDAT __CT??_R0?AVlength_error@std@@@8??0length_error@std@@QAE@ABV01@@Z40
xdata$x	SEGMENT DWORD USE32 PUBLIC 'CONST'
xdata$x	ENDS
;	COMDAT ??_R0?AVlength_error@std@@@8
_DATA	SEGMENT DWORD USE32 PUBLIC 'DATA'
_DATA	ENDS
;	COMDAT ??0length_error@std@@QAE@ABV01@@Z
_TEXT	SEGMENT PARA USE32 PUBLIC 'CODE'
_TEXT	ENDS
;	COMDAT ??_C@_0BE@JONHPENG@map?1set?$DMT?$DO?5too?5long?$AA@
CONST	SEGMENT DWORD USE32 PUBLIC 'CONST'
CONST	ENDS
;	COMDAT ??0length_error@std@@QAE@ABV?$basic_string@DU?$char_traits@D@std@@V?$allocator@D@2@@1@@Z
_TEXT	SEGMENT PARA USE32 PUBLIC 'CODE'
_TEXT	ENDS
;	COMDAT ?insert@?$_Tree@V?$_Tmap_traits@KPAVCCtrl@@U?$less@K@std@@V?$allocator@U?$pair@$$CBKPAVCCtrl@@@std@@@3@$0A@@std@@@std@@QAE?AU?$pair@Viterator@?$_Tree@V?$_Tmap_traits@KPAVCCtrl@@U?$less@K@std@@V?$allocator@U?$pair@$$CBKPAVCCtrl@@@std@@@3@$0A@@std@@@std@@_N@2@ABU?$pair@$$CBKPAVCCtrl@@@2@@Z
_TEXT	SEGMENT PARA USE32 PUBLIC 'CODE'
_TEXT	ENDS
;	COMDAT ?_Root@?$_Tree@V?$_Tmap_traits@KPAVCCtrl@@U?$less@K@std@@V?$allocator@U?$pair@$$CBKPAVCCtrl@@@std@@@3@$0A@@std@@@std@@IAEAAPAU_Node@?$_Tree_nod@V?$_Tmap_traits@KPAVCCtrl@@U?$less@K@std@@V?$allocator@U?$pair@$$CBKPAVCCtrl@@@std@@@3@$0A@@std@@@2@XZ
_TEXT	SEGMENT PARA USE32 PUBLIC 'CODE'
_TEXT	ENDS
;	COMDAT ?_Parent@?$_Tree@V?$_Tmap_traits@KPAVCCtrl@@U?$less@K@std@@V?$allocator@U?$pair@$$CBKPAVCCtrl@@@std@@@3@$0A@@std@@@std@@KAAAPAU_Node@?$_Tree_nod@V?$_Tmap_traits@KPAVCCtrl@@U?$less@K@std@@V?$allocator@U?$pair@$$CBKPAVCCtrl@@@std@@@3@$0A@@std@@@2@PAU342@@Z
_TEXT	SEGMENT PARA USE32 PUBLIC 'CODE'
_TEXT	ENDS
;	COMDAT ?_Left@?$_Tree@V?$_Tmap_traits@KPAVCCtrl@@U?$less@K@std@@V?$allocator@U?$pair@$$CBKPAVCCtrl@@@std@@@3@$0A@@std@@@std@@KAAAPAU_Node@?$_Tree_nod@V?$_Tmap_traits@KPAVCCtrl@@U?$less@K@std@@V?$allocator@U?$pair@$$CBKPAVCCtrl@@@std@@@3@$0A@@std@@@2@PAU342@@Z
_TEXT	SEGMENT PARA USE32 PUBLIC 'CODE'
_TEXT	ENDS
;	COMDAT ??0iterator@?$_Tree@V?$_Tmap_traits@KPAVCCtrl@@U?$less@K@std@@V?$allocator@U?$pair@$$CBKPAVCCtrl@@@std@@@3@$0A@@std@@@std@@QAE@PAU_Node@?$_Tree_nod@V?$_Tmap_traits@KPAVCCtrl@@U?$less@K@std@@V?$allocator@U?$pair@$$CBKPAVCCtrl@@@std@@@3@$0A@@std@@@2@@Z
_TEXT	SEGMENT PARA USE32 PUBLIC 'CODE'
_TEXT	ENDS
;	COMDAT ??0const_iterator@?$_Tree@V?$_Tmap_traits@KPAVCCtrl@@U?$less@K@std@@V?$allocator@U?$pair@$$CBKPAVCCtrl@@@std@@@3@$0A@@std@@@std@@QAE@PAU_Node@?$_Tree_nod@V?$_Tmap_traits@KPAVCCtrl@@U?$less@K@std@@V?$allocator@U?$pair@$$CBKPAVCCtrl@@@std@@@3@$0A@@std@@@2@@Z
_TEXT	SEGMENT PARA USE32 PUBLIC 'CODE'
_TEXT	ENDS
;	COMDAT ??0?$pair@Viterator@?$_Tree@V?$_Tmap_traits@KPAVCCtrl@@U?$less@K@std@@V?$allocator@U?$pair@$$CBKPAVCCtrl@@@std@@@3@$0A@@std@@@std@@_N@std@@QAE@ABViterator@?$_Tree@V?$_Tmap_traits@KPAVCCtrl@@U?$less@K@std@@V?$allocator@U?$pair@$$CBKPAVCCtrl@@@std@@@3@$0A@@std@@@1@AB_N@Z
_TEXT	SEGMENT PARA USE32 PUBLIC 'CODE'
_TEXT	ENDS
;	COMDAT ??Eiterator@?$_Tree@V?$_Tmap_traits@KPAVCCtrl@@U?$less@K@std@@V?$allocator@U?$pair@$$CBKPAVCCtrl@@@std@@@3@$0A@@std@@@std@@QAEAAV012@XZ
_TEXT	SEGMENT PARA USE32 PUBLIC 'CODE'
_TEXT	ENDS
;	COMDAT ??Econst_iterator@?$_Tree@V?$_Tmap_traits@KPAVCCtrl@@U?$less@K@std@@V?$allocator@U?$pair@$$CBKPAVCCtrl@@@std@@@3@$0A@@std@@@std@@QAEAAV012@XZ
_TEXT	SEGMENT PARA USE32 PUBLIC 'CODE'
_TEXT	ENDS
;	COMDAT ?_Inc@const_iterator@?$_Tree@V?$_Tmap_traits@KPAVCCtrl@@U?$less@K@std@@V?$allocator@U?$pair@$$CBKPAVCCtrl@@@std@@@3@$0A@@std@@@std@@QAEXXZ
_TEXT	SEGMENT PARA USE32 PUBLIC 'CODE'
_TEXT	ENDS
;	COMDAT ?_Min@?$_Tree@V?$_Tmap_traits@KPAVCCtrl@@U?$less@K@std@@V?$allocator@U?$pair@$$CBKPAVCCtrl@@@std@@@3@$0A@@std@@@std@@KAPAU_Node@?$_Tree_nod@V?$_Tmap_traits@KPAVCCtrl@@U?$less@K@std@@V?$allocator@U?$pair@$$CBKPAVCCtrl@@@std@@@3@$0A@@std@@@2@PAU342@@Z
_TEXT	SEGMENT PARA USE32 PUBLIC 'CODE'
_TEXT	ENDS
;	COMDAT ?_Right@?$_Tree@V?$_Tmap_traits@KPAVCCtrl@@U?$less@K@std@@V?$allocator@U?$pair@$$CBKPAVCCtrl@@@std@@@3@$0A@@std@@@std@@KAAAPAU_Node@?$_Tree_nod@V?$_Tmap_traits@KPAVCCtrl@@U?$less@K@std@@V?$allocator@U?$pair@$$CBKPAVCCtrl@@@std@@@3@$0A@@std@@@2@PAU342@@Z
_TEXT	SEGMENT PARA USE32 PUBLIC 'CODE'
_TEXT	ENDS
;	COMDAT ?_Isnil@?$_Tree@V?$_Tmap_traits@KPAVCCtrl@@U?$less@K@std@@V?$allocator@U?$pair@$$CBKPAVCCtrl@@@std@@@3@$0A@@std@@@std@@KAAADPAU_Node@?$_Tree_nod@V?$_Tmap_traits@KPAVCCtrl@@U?$less@K@std@@V?$allocator@U?$pair@$$CBKPAVCCtrl@@@std@@@3@$0A@@std@@@2@@Z
_TEXT	SEGMENT PARA USE32 PUBLIC 'CODE'
_TEXT	ENDS
;	COMDAT ??Fiterator@?$_Tree@V?$_Tmap_traits@KPAVCCtrl@@U?$less@K@std@@V?$allocator@U?$pair@$$CBKPAVCCtrl@@@std@@@3@$0A@@std@@@std@@QAEAAV012@XZ
_TEXT	SEGMENT PARA USE32 PUBLIC 'CODE'
_TEXT	ENDS
;	COMDAT ??Fconst_iterator@?$_Tree@V?$_Tmap_traits@KPAVCCtrl@@U?$less@K@std@@V?$allocator@U?$pair@$$CBKPAVCCtrl@@@std@@@3@$0A@@std@@@std@@QAEAAV012@XZ
_TEXT	SEGMENT PARA USE32 PUBLIC 'CODE'
_TEXT	ENDS
;	COMDAT ?_Dec@const_iterator@?$_Tree@V?$_Tmap_traits@KPAVCCtrl@@U?$less@K@std@@V?$allocator@U?$pair@$$CBKPAVCCtrl@@@std@@@3@$0A@@std@@@std@@QAEXXZ
_TEXT	SEGMENT PARA USE32 PUBLIC 'CODE'
_TEXT	ENDS
;	COMDAT ?_Max@?$_Tree@V?$_Tmap_traits@KPAVCCtrl@@U?$less@K@std@@V?$allocator@U?$pair@$$CBKPAVCCtrl@@@std@@@3@$0A@@std@@@std@@KAPAU_Node@?$_Tree_nod@V?$_Tmap_traits@KPAVCCtrl@@U?$less@K@std@@V?$allocator@U?$pair@$$CBKPAVCCtrl@@@std@@@3@$0A@@std@@@2@PAU342@@Z
_TEXT	SEGMENT PARA USE32 PUBLIC 'CODE'
_TEXT	ENDS
;	COMDAT ?_Rmost@?$_Tree@V?$_Tmap_traits@KPAVCCtrl@@U?$less@K@std@@V?$allocator@U?$pair@$$CBKPAVCCtrl@@@std@@@3@$0A@@std@@@std@@IAEAAPAU_Node@?$_Tree_nod@V?$_Tmap_traits@KPAVCCtrl@@U?$less@K@std@@V?$allocator@U?$pair@$$CBKPAVCCtrl@@@std@@@3@$0A@@std@@@2@XZ
_TEXT	SEGMENT PARA USE32 PUBLIC 'CODE'
_TEXT	ENDS
;	COMDAT ?_Kfn@?$_Tmap_traits@KPAVCCtrl@@U?$less@K@std@@V?$allocator@U?$pair@$$CBKPAVCCtrl@@@std@@@3@$0A@@std@@SAABKABU?$pair@$$CBKPAVCCtrl@@@2@@Z
_TEXT	SEGMENT PARA USE32 PUBLIC 'CODE'
_TEXT	ENDS
;	COMDAT ?begin@?$_Tree@V?$_Tmap_traits@KPAVCCtrl@@U?$less@K@std@@V?$allocator@U?$pair@$$CBKPAVCCtrl@@@std@@@3@$0A@@std@@@std@@QAE?AViterator@12@XZ
_TEXT	SEGMENT PARA USE32 PUBLIC 'CODE'
_TEXT	ENDS
;	COMDAT ?_Lmost@?$_Tree@V?$_Tmap_traits@KPAVCCtrl@@U?$less@K@std@@V?$allocator@U?$pair@$$CBKPAVCCtrl@@@std@@@3@$0A@@std@@@std@@IAEAAPAU_Node@?$_Tree_nod@V?$_Tmap_traits@KPAVCCtrl@@U?$less@K@std@@V?$allocator@U?$pair@$$CBKPAVCCtrl@@@std@@@3@$0A@@std@@@2@XZ
_TEXT	SEGMENT PARA USE32 PUBLIC 'CODE'
_TEXT	ENDS
;	COMDAT ?_Insert@?$_Tree@V?$_Tmap_traits@KPAVCCtrl@@U?$less@K@std@@V?$allocator@U?$pair@$$CBKPAVCCtrl@@@std@@@3@$0A@@std@@@std@@IAE?AViterator@12@_NPAU_Node@?$_Tree_nod@V?$_Tmap_traits@KPAVCCtrl@@U?$less@K@std@@V?$allocator@U?$pair@$$CBKPAVCCtrl@@@std@@@3@$0A@@std@@@2@ABU?$pair@$$CBKPAVCCtrl@@@2@@Z
_TEXT	SEGMENT PARA USE32 PUBLIC 'CODE'
_TEXT	ENDS
;	COMDAT ?max_size@?$_Tree@V?$_Tmap_traits@KPAVCCtrl@@U?$less@K@std@@V?$allocator@U?$pair@$$CBKPAVCCtrl@@@std@@@3@$0A@@std@@@std@@QBEIXZ
_TEXT	SEGMENT PARA USE32 PUBLIC 'CODE'
_TEXT	ENDS
;	COMDAT ?max_size@?$allocator@U?$pair@$$CBKPAVCCtrl@@@std@@@std@@QBEIXZ
_TEXT	SEGMENT PARA USE32 PUBLIC 'CODE'
_TEXT	ENDS
;	COMDAT ?_Buynode@?$_Tree@V?$_Tmap_traits@KPAVCCtrl@@U?$less@K@std@@V?$allocator@U?$pair@$$CBKPAVCCtrl@@@std@@@3@$0A@@std@@@std@@IAEPAU_Node@?$_Tree_nod@V?$_Tmap_traits@KPAVCCtrl@@U?$less@K@std@@V?$allocator@U?$pair@$$CBKPAVCCtrl@@@std@@@3@$0A@@std@@@2@PAU342@00ABU?$pair@$$CBKPAVCCtrl@@@2@D@Z
_TEXT	SEGMENT PARA USE32 PUBLIC 'CODE'
_TEXT	ENDS
;	COMDAT ?allocate@?$allocator@U_Node@?$_Tree_nod@V?$_Tmap_traits@KPAVCCtrl@@U?$less@K@std@@V?$allocator@U?$pair@$$CBKPAVCCtrl@@@std@@@3@$0A@@std@@@std@@@std@@QAEPAU_Node@?$_Tree_nod@V?$_Tmap_traits@KPAVCCtrl@@U?$less@K@std@@V?$allocator@U?$pair@$$CBKPAVCCtrl@@@std@@@3@$0A@@std@@@2@I@Z
_TEXT	SEGMENT PARA USE32 PUBLIC 'CODE'
_TEXT	ENDS
;	COMDAT ??$_Allocate@U_Node@?$_Tree_nod@V?$_Tmap_traits@KPAVCCtrl@@U?$less@K@std@@V?$allocator@U?$pair@$$CBKPAVCCtrl@@@std@@@3@$0A@@std@@@std@@@std@@YAPAU_Node@?$_Tree_nod@V?$_Tmap_traits@KPAVCCtrl@@U?$less@K@std@@V?$allocator@U?$pair@$$CBKPAVCCtrl@@@std@@@3@$0A@@std@@@0@IPAU120@@Z
_TEXT	SEGMENT PARA USE32 PUBLIC 'CODE'
_TEXT	ENDS
;	COMDAT ??0_Node@?$_Tree_nod@V?$_Tmap_traits@KPAVCCtrl@@U?$less@K@std@@V?$allocator@U?$pair@$$CBKPAVCCtrl@@@std@@@3@$0A@@std@@@std@@QAE@PAU012@00ABU?$pair@$$CBKPAVCCtrl@@@2@D@Z
_TEXT	SEGMENT PARA USE32 PUBLIC 'CODE'
_TEXT	ENDS
;	COMDAT ?deallocate@?$allocator@U_Node@?$_Tree_nod@V?$_Tmap_traits@KPAVCCtrl@@U?$less@K@std@@V?$allocator@U?$pair@$$CBKPAVCCtrl@@@std@@@3@$0A@@std@@@std@@@std@@QAEXPAU_Node@?$_Tree_nod@V?$_Tmap_traits@KPAVCCtrl@@U?$less@K@std@@V?$allocator@U?$pair@$$CBKPAVCCtrl@@@std@@@3@$0A@@std@@@2@I@Z
_TEXT	SEGMENT PARA USE32 PUBLIC 'CODE'
_TEXT	ENDS
;	COMDAT ?_Rrotate@?$_Tree@V?$_Tmap_traits@KPAVCCtrl@@U?$less@K@std@@V?$allocator@U?$pair@$$CBKPAVCCtrl@@@std@@@3@$0A@@std@@@std@@IAEXPAU_Node@?$_Tree_nod@V?$_Tmap_traits@KPAVCCtrl@@U?$less@K@std@@V?$allocator@U?$pair@$$CBKPAVCCtrl@@@std@@@3@$0A@@std@@@2@@Z
_TEXT	SEGMENT PARA USE32 PUBLIC 'CODE'
_TEXT	ENDS
;	COMDAT ?_Lrotate@?$_Tree@V?$_Tmap_traits@KPAVCCtrl@@U?$less@K@std@@V?$allocator@U?$pair@$$CBKPAVCCtrl@@@std@@@3@$0A@@std@@@std@@IAEXPAU_Node@?$_Tree_nod@V?$_Tmap_traits@KPAVCCtrl@@U?$less@K@std@@V?$allocator@U?$pair@$$CBKPAVCCtrl@@@std@@@3@$0A@@std@@@2@@Z
_TEXT	SEGMENT PARA USE32 PUBLIC 'CODE'
_TEXT	ENDS
;	COMDAT ?_Color@?$_Tree@V?$_Tmap_traits@KPAVCCtrl@@U?$less@K@std@@V?$allocator@U?$pair@$$CBKPAVCCtrl@@@std@@@3@$0A@@std@@@std@@KAAADPAU_Node@?$_Tree_nod@V?$_Tmap_traits@KPAVCCtrl@@U?$less@K@std@@V?$allocator@U?$pair@$$CBKPAVCCtrl@@@std@@@3@$0A@@std@@@2@@Z
_TEXT	SEGMENT PARA USE32 PUBLIC 'CODE'
_TEXT	ENDS
;	COMDAT ?compare@?$char_traits@D@std@@SAHPBD0I@Z
_TEXT	SEGMENT PARA USE32 PUBLIC 'CODE'
_TEXT	ENDS
;	COMDAT ??Diterator@?$_Tree@V?$_Tmap_traits@KPAVCCtrl@@U?$less@K@std@@V?$allocator@U?$pair@$$CBKPAVCCtrl@@@std@@@3@$0A@@std@@@std@@QBEAAU?$pair@$$CBKPAVCCtrl@@@2@XZ
_TEXT	SEGMENT PARA USE32 PUBLIC 'CODE'
_TEXT	ENDS
;	COMDAT ??Dconst_iterator@?$_Tree@V?$_Tmap_traits@KPAVCCtrl@@U?$less@K@std@@V?$allocator@U?$pair@$$CBKPAVCCtrl@@@std@@@3@$0A@@std@@@std@@QBEABU?$pair@$$CBKPAVCCtrl@@@2@XZ
_TEXT	SEGMENT PARA USE32 PUBLIC 'CODE'
_TEXT	ENDS
;	COMDAT ?_Myval@?$_Tree@V?$_Tmap_traits@KPAVCCtrl@@U?$less@K@std@@V?$allocator@U?$pair@$$CBKPAVCCtrl@@@std@@@3@$0A@@std@@@std@@KAAAU?$pair@$$CBKPAVCCtrl@@@2@PAU_Node@?$_Tree_nod@V?$_Tmap_traits@KPAVCCtrl@@U?$less@K@std@@V?$allocator@U?$pair@$$CBKPAVCCtrl@@@std@@@3@$0A@@std@@@2@@Z
_TEXT	SEGMENT PARA USE32 PUBLIC 'CODE'
_TEXT	ENDS
;	COMDAT ?_Mynode@const_iterator@?$_Tree@V?$_Tmap_traits@KPAVCCtrl@@U?$less@K@std@@V?$allocator@U?$pair@$$CBKPAVCCtrl@@@std@@@3@$0A@@std@@@std@@QBEPAU_Node@?$_Tree_nod@V?$_Tmap_traits@KPAVCCtrl@@U?$less@K@std@@V?$allocator@U?$pair@$$CBKPAVCCtrl@@@std@@@3@$0A@@std@@@3@XZ
_TEXT	SEGMENT PARA USE32 PUBLIC 'CODE'
_TEXT	ENDS
;	COMDAT ?_Key@?$_Tree@V?$_Tmap_traits@KPAVCCtrl@@U?$less@K@std@@V?$allocator@U?$pair@$$CBKPAVCCtrl@@@std@@@3@$0A@@std@@@std@@KAABKPAU_Node@?$_Tree_nod@V?$_Tmap_traits@KPAVCCtrl@@U?$less@K@std@@V?$allocator@U?$pair@$$CBKPAVCCtrl@@@std@@@3@$0A@@std@@@2@@Z
_TEXT	SEGMENT PARA USE32 PUBLIC 'CODE'
_TEXT	ENDS
;	COMDAT ??R?$less@K@std@@QBE_NABK0@Z
_TEXT	SEGMENT PARA USE32 PUBLIC 'CODE'
_TEXT	ENDS
;	COMDAT ?end@?$_Tree@V?$_Tmap_traits@KPAVCCtrl@@U?$less@K@std@@V?$allocator@U?$pair@$$CBKPAVCCtrl@@@std@@@3@$0A@@std@@@std@@QAE?AViterator@12@XZ
_TEXT	SEGMENT PARA USE32 PUBLIC 'CODE'
_TEXT	ENDS
;	COMDAT ??8const_iterator@?$_Tree@V?$_Tmap_traits@KPAVCCtrl@@U?$less@K@std@@V?$allocator@U?$pair@$$CBKPAVCCtrl@@@std@@@3@$0A@@std@@@std@@QBE_NABV012@@Z
_TEXT	SEGMENT PARA USE32 PUBLIC 'CODE'
_TEXT	ENDS
;	COMDAT ?lower_bound@?$_Tree@V?$_Tmap_traits@KPAVCCtrl@@U?$less@K@std@@V?$allocator@U?$pair@$$CBKPAVCCtrl@@@std@@@3@$0A@@std@@@std@@QAE?AViterator@12@ABK@Z
_TEXT	SEGMENT PARA USE32 PUBLIC 'CODE'
_TEXT	ENDS
;	COMDAT ?_Lbound@?$_Tree@V?$_Tmap_traits@KPAVCCtrl@@U?$less@K@std@@V?$allocator@U?$pair@$$CBKPAVCCtrl@@@std@@@3@$0A@@std@@@std@@IBEPAU_Node@?$_Tree_nod@V?$_Tmap_traits@KPAVCCtrl@@U?$less@K@std@@V?$allocator@U?$pair@$$CBKPAVCCtrl@@@std@@@3@$0A@@std@@@2@ABK@Z
_TEXT	SEGMENT PARA USE32 PUBLIC 'CODE'
_TEXT	ENDS
;	COMDAT ?_Root@?$_Tree@V?$_Tmap_traits@KPAVCCtrl@@U?$less@K@std@@V?$allocator@U?$pair@$$CBKPAVCCtrl@@@std@@@3@$0A@@std@@@std@@IBEAAPAU_Node@?$_Tree_nod@V?$_Tmap_traits@KPAVCCtrl@@U?$less@K@std@@V?$allocator@U?$pair@$$CBKPAVCCtrl@@@std@@@3@$0A@@std@@@2@XZ
_TEXT	SEGMENT PARA USE32 PUBLIC 'CODE'
_TEXT	ENDS
;	COMDAT ?_Myptr@?$basic_string@DU?$char_traits@D@std@@V?$allocator@D@2@@std@@QBEPBDXZ
_TEXT	SEGMENT PARA USE32 PUBLIC 'CODE'
_TEXT	ENDS
;	COMDAT ?size@?$basic_string@DU?$char_traits@D@std@@V?$allocator@D@2@@std@@QBEIXZ
_TEXT	SEGMENT PARA USE32 PUBLIC 'CODE'
_TEXT	ENDS
;	COMDAT __tcscmp
_TEXT	SEGMENT PARA USE32 PUBLIC 'CODE'
_TEXT	ENDS
;	COMDAT ?IsPeaceful@CMover@@QAEHXZ
_TEXT	SEGMENT PARA USE32 PUBLIC 'CODE'
_TEXT	ENDS
;	COMDAT ?GetNextNode@CObj@@QAEPAV1@XZ
_TEXT	SEGMENT PARA USE32 PUBLIC 'CODE'
_TEXT	ENDS
;	COMDAT ?SendDamage@CActionMover@@QAEHKKHHH@Z
_TEXT	SEGMENT PARA USE32 PUBLIC 'CODE'
_TEXT	ENDS
;	COMDAT ?IsLive@CMover@@QAEHXZ
_TEXT	SEGMENT PARA USE32 PUBLIC 'CODE'
_TEXT	ENDS
;	COMDAT ?IsDie@CAction@@QAEHXZ
_TEXT	SEGMENT PARA USE32 PUBLIC 'CODE'
_TEXT	ENDS
;	COMDAT ?IsValidObj@@YAHPAVCObj@@@Z
_TEXT	SEGMENT PARA USE32 PUBLIC 'CODE'
_TEXT	ENDS
;	COMDAT ?D3DXVec3LengthSq@@YAMPBUD3DXVECTOR3@@@Z
_TEXT	SEGMENT PARA USE32 PUBLIC 'CODE'
_TEXT	ENDS
;	COMDAT ??GD3DXVECTOR3@@QBE?AU0@ABU0@@Z
_TEXT	SEGMENT PARA USE32 PUBLIC 'CODE'
_TEXT	ENDS
;	COMDAT ?GetItemProp@CProject@@QAEPAUItemProp@@H@Z
_TEXT	SEGMENT PARA USE32 PUBLIC 'CODE'
_TEXT	ENDS
;	COMDAT ?LOG_RANGE@@YAXPBDHHH@Z
_TEXT	SEGMENT PARA USE32 PUBLIC 'CODE'
_TEXT	ENDS
;	COMDAT ??_C@_0BM@HMFGHCP@?$CFs?5min?3?$CFd?0?5max?3?$CFd?0?5index?3?$CFd?$AA@
CONST	SEGMENT DWORD USE32 PUBLIC 'CONST'
CONST	ENDS
;	COMDAT ?GetSize@?$CFixedArray@UItemProp@@@@QAEHXZ
_TEXT	SEGMENT PARA USE32 PUBLIC 'CODE'
_TEXT	ENDS
;	COMDAT ??_C@_0BI@BEIFNGEL@GetItemProp?5range_error?$AA@
CONST	SEGMENT DWORD USE32 PUBLIC 'CONST'
CONST	ENDS
;	COMDAT ?LOG_CALLSTACK@@YAXXZ
_TEXT	SEGMENT PARA USE32 PUBLIC 'CODE'
_TEXT	ENDS
;	COMDAT ?GetAt@?$CFixedArray@UItemProp@@@@QAEPAUItemProp@@K@Z
_TEXT	SEGMENT PARA USE32 PUBLIC 'CODE'
_TEXT	ENDS
;	COMDAT ?GetSkillProp@CProject@@QAEPAUItemProp@@H@Z
_TEXT	SEGMENT PARA USE32 PUBLIC 'CODE'
_TEXT	ENDS
;	COMDAT ??_C@_0BJ@GPNGCFMK@GetSkillProp?5range_error?$AA@
CONST	SEGMENT DWORD USE32 PUBLIC 'CONST'
CONST	ENDS
;	COMDAT ?PCSetAt@CCtrl@@QAEXKPAV1@@Z
_TEXT	SEGMENT PARA USE32 PUBLIC 'CODE'
_TEXT	ENDS
;	COMDAT ??A?$map@KPAVCUser@@U?$less@K@std@@V?$allocator@U?$pair@$$CBKPAVCUser@@@std@@@3@@std@@QAEAAPAVCUser@@ABK@Z
_TEXT	SEGMENT PARA USE32 PUBLIC 'CODE'
_TEXT	ENDS
;	COMDAT ?lower_bound@?$_Tree@V?$_Tmap_traits@KPAVCUser@@U?$less@K@std@@V?$allocator@U?$pair@$$CBKPAVCUser@@@std@@@3@$0A@@std@@@std@@QAE?AViterator@12@ABK@Z
_TEXT	SEGMENT PARA USE32 PUBLIC 'CODE'
_TEXT	ENDS
;	COMDAT ??0iterator@?$_Tree@V?$_Tmap_traits@KPAVCUser@@U?$less@K@std@@V?$allocator@U?$pair@$$CBKPAVCUser@@@std@@@3@$0A@@std@@@std@@QAE@PAU_Node@?$_Tree_nod@V?$_Tmap_traits@KPAVCUser@@U?$less@K@std@@V?$allocator@U?$pair@$$CBKPAVCUser@@@std@@@3@$0A@@std@@@2@@Z
_TEXT	SEGMENT PARA USE32 PUBLIC 'CODE'
_TEXT	ENDS
;	COMDAT ??0const_iterator@?$_Tree@V?$_Tmap_traits@KPAVCUser@@U?$less@K@std@@V?$allocator@U?$pair@$$CBKPAVCUser@@@std@@@3@$0A@@std@@@std@@QAE@PAU_Node@?$_Tree_nod@V?$_Tmap_traits@KPAVCUser@@U?$less@K@std@@V?$allocator@U?$pair@$$CBKPAVCUser@@@std@@@3@$0A@@std@@@2@@Z
_TEXT	SEGMENT PARA USE32 PUBLIC 'CODE'
_TEXT	ENDS
;	COMDAT ?_Lbound@?$_Tree@V?$_Tmap_traits@KPAVCUser@@U?$less@K@std@@V?$allocator@U?$pair@$$CBKPAVCUser@@@std@@@3@$0A@@std@@@std@@IBEPAU_Node@?$_Tree_nod@V?$_Tmap_traits@KPAVCUser@@U?$less@K@std@@V?$allocator@U?$pair@$$CBKPAVCUser@@@std@@@3@$0A@@std@@@2@ABK@Z
_TEXT	SEGMENT PARA USE32 PUBLIC 'CODE'
_TEXT	ENDS
;	COMDAT ?_Root@?$_Tree@V?$_Tmap_traits@KPAVCUser@@U?$less@K@std@@V?$allocator@U?$pair@$$CBKPAVCUser@@@std@@@3@$0A@@std@@@std@@IBEAAPAU_Node@?$_Tree_nod@V?$_Tmap_traits@KPAVCUser@@U?$less@K@std@@V?$allocator@U?$pair@$$CBKPAVCUser@@@std@@@3@$0A@@std@@@2@XZ
_TEXT	SEGMENT PARA USE32 PUBLIC 'CODE'
_TEXT	ENDS
;	COMDAT ?end@?$_Tree@V?$_Tmap_traits@KPAVCUser@@U?$less@K@std@@V?$allocator@U?$pair@$$CBKPAVCUser@@@std@@@3@$0A@@std@@@std@@QAE?AViterator@12@XZ
_TEXT	SEGMENT PARA USE32 PUBLIC 'CODE'
_TEXT	ENDS
;	COMDAT ?_Key@?$_Tree@V?$_Tmap_traits@KPAVCUser@@U?$less@K@std@@V?$allocator@U?$pair@$$CBKPAVCUser@@@std@@@3@$0A@@std@@@std@@KAABKPAU_Node@?$_Tree_nod@V?$_Tmap_traits@KPAVCUser@@U?$less@K@std@@V?$allocator@U?$pair@$$CBKPAVCUser@@@std@@@3@$0A@@std@@@2@@Z
_TEXT	SEGMENT PARA USE32 PUBLIC 'CODE'
_TEXT	ENDS
;	COMDAT ?_Kfn@?$_Tmap_traits@KPAVCUser@@U?$less@K@std@@V?$allocator@U?$pair@$$CBKPAVCUser@@@std@@@3@$0A@@std@@SAABKABU?$pair@$$CBKPAVCUser@@@2@@Z
_TEXT	SEGMENT PARA USE32 PUBLIC 'CODE'
_TEXT	ENDS
;	COMDAT ?_Myval@?$_Tree@V?$_Tmap_traits@KPAVCUser@@U?$less@K@std@@V?$allocator@U?$pair@$$CBKPAVCUser@@@std@@@3@$0A@@std@@@std@@KAAAU?$pair@$$CBKPAVCUser@@@2@PAU_Node@?$_Tree_nod@V?$_Tmap_traits@KPAVCUser@@U?$less@K@std@@V?$allocator@U?$pair@$$CBKPAVCUser@@@std@@@3@$0A@@std@@@2@@Z
_TEXT	SEGMENT PARA USE32 PUBLIC 'CODE'
_TEXT	ENDS
;	COMDAT ?_Mynode@const_iterator@?$_Tree@V?$_Tmap_traits@KPAVCUser@@U?$less@K@std@@V?$allocator@U?$pair@$$CBKPAVCUser@@@std@@@3@$0A@@std@@@std@@QBEPAU_Node@?$_Tree_nod@V?$_Tmap_traits@KPAVCUser@@U?$less@K@std@@V?$allocator@U?$pair@$$CBKPAVCUser@@@std@@@3@$0A@@std@@@3@XZ
_TEXT	SEGMENT PARA USE32 PUBLIC 'CODE'
_TEXT	ENDS
;	COMDAT ?insert@?$_Tree@V?$_Tmap_traits@KPAVCUser@@U?$less@K@std@@V?$allocator@U?$pair@$$CBKPAVCUser@@@std@@@3@$0A@@std@@@std@@QAE?AViterator@12@V312@ABU?$pair@$$CBKPAVCUser@@@2@@Z
_TEXT	SEGMENT PARA USE32 PUBLIC 'CODE'
_TEXT	ENDS
;	COMDAT ??0iterator@?$_Tree@V?$_Tmap_traits@KPAVCUser@@U?$less@K@std@@V?$allocator@U?$pair@$$CBKPAVCUser@@@std@@@3@$0A@@std@@@std@@QAE@XZ
_TEXT	SEGMENT PARA USE32 PUBLIC 'CODE'
_TEXT	ENDS
;	COMDAT ??0const_iterator@?$_Tree@V?$_Tmap_traits@KPAVCUser@@U?$less@K@std@@V?$allocator@U?$pair@$$CBKPAVCUser@@@std@@@3@$0A@@std@@@std@@QAE@XZ
_TEXT	SEGMENT PARA USE32 PUBLIC 'CODE'
_TEXT	ENDS
;	COMDAT ?size@?$_Tree@V?$_Tmap_traits@KPAVCUser@@U?$less@K@std@@V?$allocator@U?$pair@$$CBKPAVCUser@@@std@@@3@$0A@@std@@@std@@QBEIXZ
_TEXT	SEGMENT PARA USE32 PUBLIC 'CODE'
_TEXT	ENDS
;	COMDAT ?begin@?$_Tree@V?$_Tmap_traits@KPAVCUser@@U?$less@K@std@@V?$allocator@U?$pair@$$CBKPAVCUser@@@std@@@3@$0A@@std@@@std@@QAE?AViterator@12@XZ
_TEXT	SEGMENT PARA USE32 PUBLIC 'CODE'
_TEXT	ENDS
;	COMDAT ?_Lmost@?$_Tree@V?$_Tmap_traits@KPAVCUser@@U?$less@K@std@@V?$allocator@U?$pair@$$CBKPAVCUser@@@std@@@3@$0A@@std@@@std@@IAEAAPAU_Node@?$_Tree_nod@V?$_Tmap_traits@KPAVCUser@@U?$less@K@std@@V?$allocator@U?$pair@$$CBKPAVCUser@@@std@@@3@$0A@@std@@@2@XZ
_TEXT	SEGMENT PARA USE32 PUBLIC 'CODE'
_TEXT	ENDS
;	COMDAT ?_Rmost@?$_Tree@V?$_Tmap_traits@KPAVCUser@@U?$less@K@std@@V?$allocator@U?$pair@$$CBKPAVCUser@@@std@@@3@$0A@@std@@@std@@IAEAAPAU_Node@?$_Tree_nod@V?$_Tmap_traits@KPAVCUser@@U?$less@K@std@@V?$allocator@U?$pair@$$CBKPAVCUser@@@std@@@3@$0A@@std@@@2@XZ
_TEXT	SEGMENT PARA USE32 PUBLIC 'CODE'
_TEXT	ENDS
;	COMDAT ??Fiterator@?$_Tree@V?$_Tmap_traits@KPAVCUser@@U?$less@K@std@@V?$allocator@U?$pair@$$CBKPAVCUser@@@std@@@3@$0A@@std@@@std@@QAEAAV012@XZ
_TEXT	SEGMENT PARA USE32 PUBLIC 'CODE'
_TEXT	ENDS
;	COMDAT ??Fconst_iterator@?$_Tree@V?$_Tmap_traits@KPAVCUser@@U?$less@K@std@@V?$allocator@U?$pair@$$CBKPAVCUser@@@std@@@3@$0A@@std@@@std@@QAEAAV012@XZ
_TEXT	SEGMENT PARA USE32 PUBLIC 'CODE'
_TEXT	ENDS
;	COMDAT ?_Dec@const_iterator@?$_Tree@V?$_Tmap_traits@KPAVCUser@@U?$less@K@std@@V?$allocator@U?$pair@$$CBKPAVCUser@@@std@@@3@$0A@@std@@@std@@QAEXXZ
_TEXT	SEGMENT PARA USE32 PUBLIC 'CODE'
_TEXT	ENDS
;	COMDAT ?_Max@?$_Tree@V?$_Tmap_traits@KPAVCUser@@U?$less@K@std@@V?$allocator@U?$pair@$$CBKPAVCUser@@@std@@@3@$0A@@std@@@std@@KAPAU_Node@?$_Tree_nod@V?$_Tmap_traits@KPAVCUser@@U?$less@K@std@@V?$allocator@U?$pair@$$CBKPAVCUser@@@std@@@3@$0A@@std@@@2@PAU342@@Z
_TEXT	SEGMENT PARA USE32 PUBLIC 'CODE'
_TEXT	ENDS
;	COMDAT ?_Insert@?$_Tree@V?$_Tmap_traits@KPAVCUser@@U?$less@K@std@@V?$allocator@U?$pair@$$CBKPAVCUser@@@std@@@3@$0A@@std@@@std@@IAE?AViterator@12@_NPAU_Node@?$_Tree_nod@V?$_Tmap_traits@KPAVCUser@@U?$less@K@std@@V?$allocator@U?$pair@$$CBKPAVCUser@@@std@@@3@$0A@@std@@@2@ABU?$pair@$$CBKPAVCUser@@@2@@Z
_TEXT	SEGMENT PARA USE32 PUBLIC 'CODE'
_TEXT	ENDS
;	COMDAT ?max_size@?$_Tree@V?$_Tmap_traits@KPAVCUser@@U?$less@K@std@@V?$allocator@U?$pair@$$CBKPAVCUser@@@std@@@3@$0A@@std@@@std@@QBEIXZ
_TEXT	SEGMENT PARA USE32 PUBLIC 'CODE'
_TEXT	ENDS
;	COMDAT ?max_size@?$allocator@U?$pair@$$CBKPAVCUser@@@std@@@std@@QBEIXZ
_TEXT	SEGMENT PARA USE32 PUBLIC 'CODE'
_TEXT	ENDS
;	COMDAT ?_Buynode@?$_Tree@V?$_Tmap_traits@KPAVCUser@@U?$less@K@std@@V?$allocator@U?$pair@$$CBKPAVCUser@@@std@@@3@$0A@@std@@@std@@IAEPAU_Node@?$_Tree_nod@V?$_Tmap_traits@KPAVCUser@@U?$less@K@std@@V?$allocator@U?$pair@$$CBKPAVCUser@@@std@@@3@$0A@@std@@@2@PAU342@00ABU?$pair@$$CBKPAVCUser@@@2@D@Z
_TEXT	SEGMENT PARA USE32 PUBLIC 'CODE'
_TEXT	ENDS
;	COMDAT ?allocate@?$allocator@U_Node@?$_Tree_nod@V?$_Tmap_traits@KPAVCUser@@U?$less@K@std@@V?$allocator@U?$pair@$$CBKPAVCUser@@@std@@@3@$0A@@std@@@std@@@std@@QAEPAU_Node@?$_Tree_nod@V?$_Tmap_traits@KPAVCUser@@U?$less@K@std@@V?$allocator@U?$pair@$$CBKPAVCUser@@@std@@@3@$0A@@std@@@2@I@Z
_TEXT	SEGMENT PARA USE32 PUBLIC 'CODE'
_TEXT	ENDS
;	COMDAT ??$_Allocate@U_Node@?$_Tree_nod@V?$_Tmap_traits@KPAVCUser@@U?$less@K@std@@V?$allocator@U?$pair@$$CBKPAVCUser@@@std@@@3@$0A@@std@@@std@@@std@@YAPAU_Node@?$_Tree_nod@V?$_Tmap_traits@KPAVCUser@@U?$less@K@std@@V?$allocator@U?$pair@$$CBKPAVCUser@@@std@@@3@$0A@@std@@@0@IPAU120@@Z
_TEXT	SEGMENT PARA USE32 PUBLIC 'CODE'
_TEXT	ENDS
;	COMDAT ??0_Node@?$_Tree_nod@V?$_Tmap_traits@KPAVCUser@@U?$less@K@std@@V?$allocator@U?$pair@$$CBKPAVCUser@@@std@@@3@$0A@@std@@@std@@QAE@PAU012@00ABU?$pair@$$CBKPAVCUser@@@2@D@Z
_TEXT	SEGMENT PARA USE32 PUBLIC 'CODE'
_TEXT	ENDS
;	COMDAT ?deallocate@?$allocator@U_Node@?$_Tree_nod@V?$_Tmap_traits@KPAVCUser@@U?$less@K@std@@V?$allocator@U?$pair@$$CBKPAVCUser@@@std@@@3@$0A@@std@@@std@@@std@@QAEXPAU_Node@?$_Tree_nod@V?$_Tmap_traits@KPAVCUser@@U?$less@K@std@@V?$allocator@U?$pair@$$CBKPAVCUser@@@std@@@3@$0A@@std@@@2@I@Z
_TEXT	SEGMENT PARA USE32 PUBLIC 'CODE'
_TEXT	ENDS
;	COMDAT ?_Rrotate@?$_Tree@V?$_Tmap_traits@KPAVCUser@@U?$less@K@std@@V?$allocator@U?$pair@$$CBKPAVCUser@@@std@@@3@$0A@@std@@@std@@IAEXPAU_Node@?$_Tree_nod@V?$_Tmap_traits@KPAVCUser@@U?$less@K@std@@V?$allocator@U?$pair@$$CBKPAVCUser@@@std@@@3@$0A@@std@@@2@@Z
_TEXT	SEGMENT PARA USE32 PUBLIC 'CODE'
_TEXT	ENDS
;	COMDAT ?_Lrotate@?$_Tree@V?$_Tmap_traits@KPAVCUser@@U?$less@K@std@@V?$allocator@U?$pair@$$CBKPAVCUser@@@std@@@3@$0A@@std@@@std@@IAEXPAU_Node@?$_Tree_nod@V?$_Tmap_traits@KPAVCUser@@U?$less@K@std@@V?$allocator@U?$pair@$$CBKPAVCUser@@@std@@@3@$0A@@std@@@2@@Z
_TEXT	SEGMENT PARA USE32 PUBLIC 'CODE'
_TEXT	ENDS
;	COMDAT ?_Color@?$_Tree@V?$_Tmap_traits@KPAVCUser@@U?$less@K@std@@V?$allocator@U?$pair@$$CBKPAVCUser@@@std@@@3@$0A@@std@@@std@@KAAADPAU_Node@?$_Tree_nod@V?$_Tmap_traits@KPAVCUser@@U?$less@K@std@@V?$allocator@U?$pair@$$CBKPAVCUser@@@std@@@3@$0A@@std@@@2@@Z
_TEXT	SEGMENT PARA USE32 PUBLIC 'CODE'
_TEXT	ENDS
;	COMDAT ?_Root@?$_Tree@V?$_Tmap_traits@KPAVCUser@@U?$less@K@std@@V?$allocator@U?$pair@$$CBKPAVCUser@@@std@@@3@$0A@@std@@@std@@IAEAAPAU_Node@?$_Tree_nod@V?$_Tmap_traits@KPAVCUser@@U?$less@K@std@@V?$allocator@U?$pair@$$CBKPAVCUser@@@std@@@3@$0A@@std@@@2@XZ
_TEXT	SEGMENT PARA USE32 PUBLIC 'CODE'
_TEXT	ENDS
;	COMDAT ?insert@?$_Tree@V?$_Tmap_traits@KPAVCUser@@U?$less@K@std@@V?$allocator@U?$pair@$$CBKPAVCUser@@@std@@@3@$0A@@std@@@std@@QAE?AU?$pair@Viterator@?$_Tree@V?$_Tmap_traits@KPAVCUser@@U?$less@K@std@@V?$allocator@U?$pair@$$CBKPAVCUser@@@std@@@3@$0A@@std@@@std@@_N@2@ABU?$pair@$$CBKPAVCUser@@@2@@Z
_TEXT	SEGMENT PARA USE32 PUBLIC 'CODE'
_TEXT	ENDS
;	COMDAT ??0?$pair@Viterator@?$_Tree@V?$_Tmap_traits@KPAVCUser@@U?$less@K@std@@V?$allocator@U?$pair@$$CBKPAVCUser@@@std@@@3@$0A@@std@@@std@@_N@std@@QAE@ABViterator@?$_Tree@V?$_Tmap_traits@KPAVCUser@@U?$less@K@std@@V?$allocator@U?$pair@$$CBKPAVCUser@@@std@@@3@$0A@@std@@@1@AB_N@Z
_TEXT	SEGMENT PARA USE32 PUBLIC 'CODE'
_TEXT	ENDS
;	COMDAT ??0?$pair@$$CBKPAVCUser@@@std@@QAE@ABKABQAVCUser@@@Z
_TEXT	SEGMENT PARA USE32 PUBLIC 'CODE'
_TEXT	ENDS
;	COMDAT ??Diterator@?$_Tree@V?$_Tmap_traits@KPAVCUser@@U?$less@K@std@@V?$allocator@U?$pair@$$CBKPAVCUser@@@std@@@3@$0A@@std@@@std@@QBEAAU?$pair@$$CBKPAVCUser@@@2@XZ
_TEXT	SEGMENT PARA USE32 PUBLIC 'CODE'
_TEXT	ENDS
;	COMDAT ??Dconst_iterator@?$_Tree@V?$_Tmap_traits@KPAVCUser@@U?$less@K@std@@V?$allocator@U?$pair@$$CBKPAVCUser@@@std@@@3@$0A@@std@@@std@@QBEABU?$pair@$$CBKPAVCUser@@@2@XZ
_TEXT	SEGMENT PARA USE32 PUBLIC 'CODE'
_TEXT	ENDS
;	COMDAT ?SetRemovalPos@CObj@@QAEXABUD3DXVECTOR3@@@Z
_TEXT	SEGMENT PARA USE32 PUBLIC 'CODE'
_TEXT	ENDS
;	COMDAT ?SetLinkPos@CObj@@QAEXABUD3DXVECTOR3@@@Z
_TEXT	SEGMENT PARA USE32 PUBLIC 'CODE'
_TEXT	ENDS
;	COMDAT ?IsPlayer@CMover@@QAEHXZ
_TEXT	SEGMENT PARA USE32 PUBLIC 'CODE'
_TEXT	ENDS
;	COMDAT ?GetLayer@CObj@@QAEHXZ
_TEXT	SEGMENT PARA USE32 PUBLIC 'CODE'
_TEXT	ENDS
;	COMDAT ?GetLinkLevel@CObj@@QAEKXZ
_TEXT	SEGMENT PARA USE32 PUBLIC 'CODE'
_TEXT	ENDS
;	COMDAT ??KD3DXVECTOR3@@QBE?AU0@M@Z
_TEXT	SEGMENT PARA USE32 PUBLIC 'CODE'
_TEXT	ENDS
;	COMDAT ?GetRemovalPos@CObj@@QAE?AUD3DXVECTOR3@@XZ
_TEXT	SEGMENT PARA USE32 PUBLIC 'CODE'
_TEXT	ENDS
;	COMDAT ?IsInvalidObj@@YAHPAVCObj@@@Z
_TEXT	SEGMENT PARA USE32 PUBLIC 'CODE'
_TEXT	ENDS
;	COMDAT ?IsVirtual@CObj@@QAEHXZ
_TEXT	SEGMENT PARA USE32 PUBLIC 'CODE'
_TEXT	ENDS
;	COMDAT ?GetId@CCtrl@@QAEKXZ
_TEXT	SEGMENT PARA USE32 PUBLIC 'CODE'
_TEXT	ENDS
;	COMDAT ?VecInWorld@CWorld@@QAEHMM@Z
_TEXT	SEGMENT PARA USE32 PUBLIC 'CODE'
_TEXT	ENDS
;	COMDAT ?GetLinkPos@CObj@@QAE?AUD3DXVECTOR3@@XZ
_TEXT	SEGMENT PARA USE32 PUBLIC 'CODE'
_TEXT	ENDS
;	COMDAT ?Push@?$CStack@K@@QAEXK@Z
_TEXT	SEGMENT PARA USE32 PUBLIC 'CODE'
_TEXT	ENDS
;	COMDAT ??_C@_0GJ@ENFFABMO@c?3?2documents?5and?5settings?2test?2m@
CONST	SEGMENT DWORD USE32 PUBLIC 'CONST'
CONST	ENDS
;	COMDAT ??_C@_06OJLEAOEG@?$CFs?0?5?$CFd?$AA@
CONST	SEGMENT DWORD USE32 PUBLIC 'CONST'
CONST	ENDS
;	COMDAT ?Pop@?$CStack@K@@QAEKXZ
_TEXT	SEGMENT PARA USE32 PUBLIC 'CODE'
_TEXT	ENDS
;	COMDAT ?GetIndex@CObj@@QAEKXZ
_TEXT	SEGMENT PARA USE32 PUBLIC 'CODE'
_TEXT	ENDS
;	COMDAT ?SetDelete@CObj@@QAEXH@Z
_TEXT	SEGMENT PARA USE32 PUBLIC 'CODE'
_TEXT	ENDS
;	COMDAT ?SetFlag@CObj@@AAEXHK@Z
_TEXT	SEGMENT PARA USE32 PUBLIC 'CODE'
_TEXT	ENDS
;	COMDAT ?IsDelete@CObj@@QAEHXZ
_TEXT	SEGMENT PARA USE32 PUBLIC 'CODE'
_TEXT	ENDS
;	COMDAT ?SetLayer@CObj@@QAEXH@Z
_TEXT	SEGMENT PARA USE32 PUBLIC 'CODE'
_TEXT	ENDS
;	COMDAT ?GetPropA@CCommonCtrl@@QAEPAUCtrlProp@@XZ
_TEXT	SEGMENT PARA USE32 PUBLIC 'CODE'
_TEXT	ENDS
;	COMDAT ?GetCtrlProp@CProject@@QAEPAUCtrlProp@@H@Z
_TEXT	SEGMENT PARA USE32 PUBLIC 'CODE'
_TEXT	ENDS
;	COMDAT ?GetSize@?$CFixedArray@UCtrlProp@@@@QAEHXZ
_TEXT	SEGMENT PARA USE32 PUBLIC 'CODE'
_TEXT	ENDS
;	COMDAT ??_C@_0BI@GDJNNIOA@GetCtrlProp?5range_error?$AA@
CONST	SEGMENT DWORD USE32 PUBLIC 'CONST'
CONST	ENDS
;	COMDAT ?GetAt@?$CFixedArray@UCtrlProp@@@@QAEPAUCtrlProp@@K@Z
_TEXT	SEGMENT PARA USE32 PUBLIC 'CODE'
_TEXT	ENDS
;	COMDAT ?IsDynamicObj@CObj@@QAEHXZ
_TEXT	SEGMENT PARA USE32 PUBLIC 'CODE'
_TEXT	ENDS
;	COMDAT ?GetID@CWorld@@QAEKXZ
_TEXT	SEGMENT PARA USE32 PUBLIC 'CODE'
_TEXT	ENDS
;	COMDAT ?VecInWorld@CWorld@@QAEHABUD3DXVECTOR3@@@Z
_TEXT	SEGMENT PARA USE32 PUBLIC 'CODE'
_TEXT	ENDS
;	COMDAT ?GetPos@CObj@@QAE?AUD3DXVECTOR3@@XZ
_TEXT	SEGMENT PARA USE32 PUBLIC 'CODE'
_TEXT	ENDS
;	COMDAT ?GetWorld@CObj@@QAEPAVCWorld@@XZ
_TEXT	SEGMENT PARA USE32 PUBLIC 'CODE'
_TEXT	ENDS
;	COMDAT ?GetType@CObj@@QAEKXZ
_TEXT	SEGMENT PARA USE32 PUBLIC 'CODE'
_TEXT	ENDS
;	COMDAT ??0TextureSet@@QAE@XZ
_TEXT	SEGMENT PARA USE32 PUBLIC 'CODE'
_TEXT	ENDS
;	COMDAT ??1?$vector@UD3DXVECTOR3@@V?$allocator@UD3DXVECTOR3@@@std@@@std@@QAE@XZ
_TEXT	SEGMENT PARA USE32 PUBLIC 'CODE'
_TEXT	ENDS
;	COMDAT ?_Tidy@?$vector@UD3DXVECTOR3@@V?$allocator@UD3DXVECTOR3@@@std@@@std@@IAEXXZ
_TEXT	SEGMENT PARA USE32 PUBLIC 'CODE'
_TEXT	ENDS
;	COMDAT ?_Destroy@?$vector@UD3DXVECTOR3@@V?$allocator@UD3DXVECTOR3@@@std@@@std@@IAEXPAUD3DXVECTOR3@@0@Z
_TEXT	SEGMENT PARA USE32 PUBLIC 'CODE'
_TEXT	ENDS
;	COMDAT ??$_Destroy_range@UD3DXVECTOR3@@V?$allocator@UD3DXVECTOR3@@@std@@@std@@YAXPAUD3DXVECTOR3@@0AAV?$allocator@UD3DXVECTOR3@@@0@@Z
_TEXT	SEGMENT PARA USE32 PUBLIC 'CODE'
_TEXT	ENDS
;	COMDAT ?deallocate@?$allocator@UD3DXVECTOR3@@@std@@QAEXPAUD3DXVECTOR3@@I@Z
_TEXT	SEGMENT PARA USE32 PUBLIC 'CODE'
_TEXT	ENDS
;	COMDAT ??1TextureSet@@QAE@XZ
_TEXT	SEGMENT PARA USE32 PUBLIC 'CODE'
_TEXT	ENDS
;	COMDAT ??0ENVIR_INFO@@QAE@XZ
_TEXT	SEGMENT PARA USE32 PUBLIC 'CODE'
_TEXT	ENDS
;	COMDAT ??0?$vector@UD3DXVECTOR3@@V?$allocator@UD3DXVECTOR3@@@std@@@std@@QAE@XZ
_TEXT	SEGMENT PARA USE32 PUBLIC 'CODE'
_TEXT	ENDS
;	COMDAT ??0?$_Vector_val@UD3DXVECTOR3@@V?$allocator@UD3DXVECTOR3@@@std@@@std@@IAE@V?$allocator@UD3DXVECTOR3@@@1@@Z
_TEXT	SEGMENT PARA USE32 PUBLIC 'CODE'
_TEXT	ENDS
;	COMDAT ??0?$allocator@UD3DXVECTOR3@@@std@@QAE@ABV01@@Z
_TEXT	SEGMENT PARA USE32 PUBLIC 'CODE'
_TEXT	ENDS
;	COMDAT ??0?$allocator@UD3DXVECTOR3@@@std@@QAE@XZ
_TEXT	SEGMENT PARA USE32 PUBLIC 'CODE'
_TEXT	ENDS
;	COMDAT ?_Buy@?$vector@UD3DXVECTOR3@@V?$allocator@UD3DXVECTOR3@@@std@@@std@@IAE_NI@Z
_TEXT	SEGMENT PARA USE32 PUBLIC 'CODE'
_TEXT	ENDS
;	COMDAT ?max_size@?$vector@UD3DXVECTOR3@@V?$allocator@UD3DXVECTOR3@@@std@@@std@@QBEIXZ
_TEXT	SEGMENT PARA USE32 PUBLIC 'CODE'
_TEXT	ENDS
;	COMDAT ?max_size@?$allocator@UD3DXVECTOR3@@@std@@QBEIXZ
_TEXT	SEGMENT PARA USE32 PUBLIC 'CODE'
_TEXT	ENDS
;	COMDAT ?_Xlen@?$vector@UD3DXVECTOR3@@V?$allocator@UD3DXVECTOR3@@@std@@@std@@IBEXXZ
_TEXT	SEGMENT PARA USE32 PUBLIC 'CODE'
_TEXT	ENDS
;	COMDAT ?allocate@?$allocator@UD3DXVECTOR3@@@std@@QAEPAUD3DXVECTOR3@@I@Z
_TEXT	SEGMENT PARA USE32 PUBLIC 'CODE'
_TEXT	ENDS
;	COMDAT ??$_Allocate@UD3DXVECTOR3@@@std@@YAPAUD3DXVECTOR3@@IPAU1@@Z
_TEXT	SEGMENT PARA USE32 PUBLIC 'CODE'
_TEXT	ENDS
;	COMDAT ??0?$basic_string@DU?$char_traits@D@std@@V?$allocator@D@2@@std@@QAE@XZ
_TEXT	SEGMENT PARA USE32 PUBLIC 'CODE'
_TEXT	ENDS
;	COMDAT ??0?$allocator@D@std@@QAE@XZ
_TEXT	SEGMENT PARA USE32 PUBLIC 'CODE'
_TEXT	ENDS
;	COMDAT ??1CRegionElemArray@@QAE@XZ
_TEXT	SEGMENT PARA USE32 PUBLIC 'CODE'
_TEXT	ENDS
;	COMDAT ??0CRegionElemArray@@QAE@XZ
_TEXT	SEGMENT PARA USE32 PUBLIC 'CODE'
_TEXT	ENDS
;	COMDAT ??0REGIONELEM@@QAE@XZ
_TEXT	SEGMENT PARA USE32 PUBLIC 'CODE'
_TEXT	ENDS
;	COMDAT ??0CRect@@QAE@XZ
_TEXT	SEGMENT PARA USE32 PUBLIC 'CODE'
_TEXT	ENDS
;	COMDAT ??1?$CStack@K@@UAE@XZ
_TEXT	SEGMENT PARA USE32 PUBLIC 'CODE'
_TEXT	ENDS
;	COMDAT ??_7?$CStack@K@@6B@
CONST	SEGMENT DWORD USE32 PUBLIC 'CONST'
CONST	ENDS
;	COMDAT ??_G?$CStack@K@@UAEPAXI@Z
_TEXT	SEGMENT PARA USE32 PUBLIC 'CODE'
_TEXT	ENDS
;	COMDAT ??0?$CStack@K@@QAE@HH@Z
_TEXT	SEGMENT PARA USE32 PUBLIC 'CODE'
_TEXT	ENDS
;	COMDAT ??_H@YGXPAXIHP6EPAX0@Z@Z
_TEXT	SEGMENT PARA USE32 PUBLIC 'CODE'
_TEXT	ENDS
;	COMDAT ??_7CMapChildE@@6B@
CONST	SEGMENT DWORD USE32 PUBLIC 'CONST'
CONST	ENDS
;	COMDAT ?Leave@CMclCritSec@@QAEXXZ
_TEXT	SEGMENT PARA USE32 PUBLIC 'CODE'
_TEXT	ENDS
;	COMDAT ?Enter@CMclCritSec@@QAEXXZ
_TEXT	SEGMENT PARA USE32 PUBLIC 'CODE'
_TEXT	ENDS
;	COMDAT ??1CMclCritSec@@UAE@XZ
_TEXT	SEGMENT PARA USE32 PUBLIC 'CODE'
_TEXT	ENDS
;	COMDAT ??_7CMclCritSec@@6B@
CONST	SEGMENT DWORD USE32 PUBLIC 'CONST'
CONST	ENDS
;	COMDAT ??_GCMclCritSec@@UAEPAXI@Z
_TEXT	SEGMENT PARA USE32 PUBLIC 'CODE'
_TEXT	ENDS
;	COMDAT ??0CMclCritSec@@QAE@XZ
_TEXT	SEGMENT PARA USE32 PUBLIC 'CODE'
_TEXT	ENDS
;	COMDAT ??_7CMapChild@@6B@
CONST	SEGMENT DWORD USE32 PUBLIC 'CONST'
CONST	ENDS
;	COMDAT ??1CMclAutoLock@@QAE@XZ
_TEXT	SEGMENT PARA USE32 PUBLIC 'CODE'
_TEXT	ENDS
;	COMDAT ??0CMclAutoLock@@QAE@AAVCMclCritSec@@@Z
_TEXT	SEGMENT PARA USE32 PUBLIC 'CODE'
_TEXT	ENDS
;	COMDAT ??_7CBuffer2@@6B@
CONST	SEGMENT DWORD USE32 PUBLIC 'CONST'
CONST	ENDS
;	COMDAT ?erase@?$_Tree@V?$_Tmap_traits@KPAVCCtrl@@U?$less@K@std@@V?$allocator@U?$pair@$$CBKPAVCCtrl@@@std@@@3@$0A@@std@@@std@@QAEIABK@Z
_TEXT	SEGMENT PARA USE32 PUBLIC 'CODE'
_TEXT	ENDS
;	COMDAT ?equal_range@?$_Tree@V?$_Tmap_traits@KPAVCCtrl@@U?$less@K@std@@V?$allocator@U?$pair@$$CBKPAVCCtrl@@@std@@@3@$0A@@std@@@std@@QAE?AU?$pair@Viterator@?$_Tree@V?$_Tmap_traits@KPAVCCtrl@@U?$less@K@std@@V?$allocator@U?$pair@$$CBKPAVCCtrl@@@std@@@3@$0A@@std@@@std@@V123@@2@ABK@Z
_TEXT	SEGMENT PARA USE32 PUBLIC 'CODE'
_TEXT	ENDS
;	COMDAT ??0?$pair@Viterator@?$_Tree@V?$_Tmap_traits@KPAVCCtrl@@U?$less@K@std@@V?$allocator@U?$pair@$$CBKPAVCCtrl@@@std@@@3@$0A@@std@@@std@@V123@@std@@QAE@ABViterator@?$_Tree@V?$_Tmap_traits@KPAVCCtrl@@U?$less@K@std@@V?$allocator@U?$pair@$$CBKPAVCCtrl@@@std@@@3@$0A@@std@@@1@0@Z
_TEXT	SEGMENT PARA USE32 PUBLIC 'CODE'
_TEXT	ENDS
;	COMDAT ?upper_bound@?$_Tree@V?$_Tmap_traits@KPAVCCtrl@@U?$less@K@std@@V?$allocator@U?$pair@$$CBKPAVCCtrl@@@std@@@3@$0A@@std@@@std@@QAE?AViterator@12@ABK@Z
_TEXT	SEGMENT PARA USE32 PUBLIC 'CODE'
_TEXT	ENDS
;	COMDAT ?_Ubound@?$_Tree@V?$_Tmap_traits@KPAVCCtrl@@U?$less@K@std@@V?$allocator@U?$pair@$$CBKPAVCCtrl@@@std@@@3@$0A@@std@@@std@@IBEPAU_Node@?$_Tree_nod@V?$_Tmap_traits@KPAVCCtrl@@U?$less@K@std@@V?$allocator@U?$pair@$$CBKPAVCCtrl@@@std@@@3@$0A@@std@@@2@ABK@Z
_TEXT	SEGMENT PARA USE32 PUBLIC 'CODE'
_TEXT	ENDS
;	COMDAT ??$_Distance@Viterator@?$_Tree@V?$_Tmap_traits@KPAVCCtrl@@U?$less@K@std@@V?$allocator@U?$pair@$$CBKPAVCCtrl@@@std@@@3@$0A@@std@@@std@@I@std@@YAXViterator@?$_Tree@V?$_Tmap_traits@KPAVCCtrl@@U?$less@K@std@@V?$allocator@U?$pair@$$CBKPAVCCtrl@@@std@@@3@$0A@@std@@@0@0AAI@Z
_TEXT	SEGMENT PARA USE32 PUBLIC 'CODE'
_TEXT	ENDS
;	COMDAT ?erase@?$_Tree@V?$_Tmap_traits@KPAVCCtrl@@U?$less@K@std@@V?$allocator@U?$pair@$$CBKPAVCCtrl@@@std@@@3@$0A@@std@@@std@@QAE?AViterator@12@V312@0@Z
_TEXT	SEGMENT PARA USE32 PUBLIC 'CODE'
_TEXT	ENDS
;	COMDAT ?clear@?$_Tree@V?$_Tmap_traits@KPAVCCtrl@@U?$less@K@std@@V?$allocator@U?$pair@$$CBKPAVCCtrl@@@std@@@3@$0A@@std@@@std@@QAEXXZ
_TEXT	SEGMENT PARA USE32 PUBLIC 'CODE'
_TEXT	ENDS
;	COMDAT ?_Erase@?$_Tree@V?$_Tmap_traits@KPAVCCtrl@@U?$less@K@std@@V?$allocator@U?$pair@$$CBKPAVCCtrl@@@std@@@3@$0A@@std@@@std@@IAEXPAU_Node@?$_Tree_nod@V?$_Tmap_traits@KPAVCCtrl@@U?$less@K@std@@V?$allocator@U?$pair@$$CBKPAVCCtrl@@@std@@@3@$0A@@std@@@2@@Z
_TEXT	SEGMENT PARA USE32 PUBLIC 'CODE'
_TEXT	ENDS
;	COMDAT ?destroy@?$allocator@U_Node@?$_Tree_nod@V?$_Tmap_traits@KPAVCCtrl@@U?$less@K@std@@V?$allocator@U?$pair@$$CBKPAVCCtrl@@@std@@@3@$0A@@std@@@std@@@std@@QAEXPAU_Node@?$_Tree_nod@V?$_Tmap_traits@KPAVCCtrl@@U?$less@K@std@@V?$allocator@U?$pair@$$CBKPAVCCtrl@@@std@@@3@$0A@@std@@@2@@Z
_TEXT	SEGMENT PARA USE32 PUBLIC 'CODE'
_TEXT	ENDS
;	COMDAT ??$_Destroy@U_Node@?$_Tree_nod@V?$_Tmap_traits@KPAVCCtrl@@U?$less@K@std@@V?$allocator@U?$pair@$$CBKPAVCCtrl@@@std@@@3@$0A@@std@@@std@@@std@@YAXPAU_Node@?$_Tree_nod@V?$_Tmap_traits@KPAVCCtrl@@U?$less@K@std@@V?$allocator@U?$pair@$$CBKPAVCCtrl@@@std@@@3@$0A@@std@@@0@@Z
_TEXT	SEGMENT PARA USE32 PUBLIC 'CODE'
_TEXT	ENDS
;	COMDAT ?erase@?$_Tree@V?$_Tmap_traits@KPAVCCtrl@@U?$less@K@std@@V?$allocator@U?$pair@$$CBKPAVCCtrl@@@std@@@3@$0A@@std@@@std@@QAE?AViterator@12@V312@@Z
_TEXT	SEGMENT PARA USE32 PUBLIC 'CODE'
_TEXT	ENDS
;	COMDAT ??Eiterator@?$_Tree@V?$_Tmap_traits@KPAVCCtrl@@U?$less@K@std@@V?$allocator@U?$pair@$$CBKPAVCCtrl@@@std@@@3@$0A@@std@@@std@@QAE?AV012@H@Z
_TEXT	SEGMENT PARA USE32 PUBLIC 'CODE'
_TEXT	ENDS
;	COMDAT ??5@YAAAVCAr@@AAV0@AAUD3DXVECTOR3@@@Z
_TEXT	SEGMENT PARA USE32 PUBLIC 'CODE'
_TEXT	ENDS
;	COMDAT ??5CAr@@QAEAAV0@AAM@Z
_TEXT	SEGMENT PARA USE32 PUBLIC 'CODE'
_TEXT	ENDS
;	COMDAT ??5CAr@@QAEAAV0@AAJ@Z
_TEXT	SEGMENT PARA USE32 PUBLIC 'CODE'
_TEXT	ENDS
;	COMDAT ?time_null@@YAJXZ
_TEXT	SEGMENT PARA USE32 PUBLIC 'CODE'
_TEXT	ENDS
;	COMDAT ??6CAr@@QAEAAV0@J@Z
_TEXT	SEGMENT PARA USE32 PUBLIC 'CODE'
_TEXT	ENDS
;	COMDAT ??6@YAAAVCAr@@AAV0@UD3DXVECTOR3@@@Z
_TEXT	SEGMENT PARA USE32 PUBLIC 'CODE'
_TEXT	ENDS
;	COMDAT ??6CAr@@QAEAAV0@M@Z
_TEXT	SEGMENT PARA USE32 PUBLIC 'CODE'
_TEXT	ENDS
;	COMDAT ??1?$basic_string@DU?$char_traits@D@std@@V?$allocator@D@2@@std@@QAE@XZ
_TEXT	SEGMENT PARA USE32 PUBLIC 'CODE'
_TEXT	ENDS
;	COMDAT ??0?$basic_string@DU?$char_traits@D@std@@V?$allocator@D@2@@std@@QAE@PBD@Z
_TEXT	SEGMENT PARA USE32 PUBLIC 'CODE'
_TEXT	ENDS
;	COMDAT ?assign@?$basic_string@DU?$char_traits@D@std@@V?$allocator@D@2@@std@@QAEAAV12@PBD@Z
_TEXT	SEGMENT PARA USE32 PUBLIC 'CODE'
_TEXT	ENDS
;	COMDAT ?assign@?$basic_string@DU?$char_traits@D@std@@V?$allocator@D@2@@std@@QAEAAV12@PBDI@Z
_TEXT	SEGMENT PARA USE32 PUBLIC 'CODE'
_TEXT	ENDS
;	COMDAT ?_Inside@?$basic_string@DU?$char_traits@D@std@@V?$allocator@D@2@@std@@IAE_NPBD@Z
_TEXT	SEGMENT PARA USE32 PUBLIC 'CODE'
_TEXT	ENDS
;	COMDAT ?length@?$char_traits@D@std@@SAIPBD@Z
_TEXT	SEGMENT PARA USE32 PUBLIC 'CODE'
_TEXT	ENDS
;	COMDAT ?c_str@?$basic_string@DU?$char_traits@D@std@@V?$allocator@D@2@@std@@QBEPBDXZ
_TEXT	SEGMENT PARA USE32 PUBLIC 'CODE'
_TEXT	ENDS
;	COMDAT ??6CAr@@QAEAAV0@I@Z
_TEXT	SEGMENT PARA USE32 PUBLIC 'CODE'
_TEXT	ENDS
;	COMDAT ??_7__MINIGAME_EXT_PACKET@@6B@
CONST	SEGMENT DWORD USE32 PUBLIC 'CONST'
CONST	ENDS
;	COMDAT ??5CAr@@QAEAAV0@AAG@Z
_TEXT	SEGMENT PARA USE32 PUBLIC 'CODE'
_TEXT	ENDS
;	COMDAT ??5CAr@@QAEAAV0@AAH@Z
_TEXT	SEGMENT PARA USE32 PUBLIC 'CODE'
_TEXT	ENDS
;	COMDAT ??6CAr@@QAEAAV0@G@Z
_TEXT	SEGMENT PARA USE32 PUBLIC 'CODE'
_TEXT	ENDS
;	COMDAT ??6CAr@@QAEAAV0@H@Z
_TEXT	SEGMENT PARA USE32 PUBLIC 'CODE'
_TEXT	ENDS
;	COMDAT ??_7__MINIGAME_PACKET@@6B@
CONST	SEGMENT DWORD USE32 PUBLIC 'CONST'
CONST	ENDS
;	COMDAT ??1?$vector@KV?$allocator@K@std@@@std@@QAE@XZ
_TEXT	SEGMENT PARA USE32 PUBLIC 'CODE'
_TEXT	ENDS
;	COMDAT ?_Tidy@?$vector@KV?$allocator@K@std@@@std@@IAEXXZ
_TEXT	SEGMENT PARA USE32 PUBLIC 'CODE'
_TEXT	ENDS
;	COMDAT ?_Destroy@?$vector@KV?$allocator@K@std@@@std@@IAEXPAK0@Z
_TEXT	SEGMENT PARA USE32 PUBLIC 'CODE'
_TEXT	ENDS
;	COMDAT ??$_Destroy_range@KV?$allocator@K@std@@@std@@YAXPAK0AAV?$allocator@K@0@@Z
_TEXT	SEGMENT PARA USE32 PUBLIC 'CODE'
_TEXT	ENDS
;	COMDAT ?_Ptr_cat@std@@YA?AU_Scalar_ptr_iterator_tag@1@PAK0@Z
_TEXT	SEGMENT PARA USE32 PUBLIC 'CODE'
_TEXT	ENDS
;	COMDAT ?deallocate@?$allocator@K@std@@QAEXPAKI@Z
_TEXT	SEGMENT PARA USE32 PUBLIC 'CODE'
_TEXT	ENDS
;	COMDAT ??0?$vector@KV?$allocator@K@std@@@std@@QAE@XZ
_TEXT	SEGMENT PARA USE32 PUBLIC 'CODE'
_TEXT	ENDS
;	COMDAT ??0?$_Vector_val@KV?$allocator@K@std@@@std@@IAE@V?$allocator@K@1@@Z
_TEXT	SEGMENT PARA USE32 PUBLIC 'CODE'
_TEXT	ENDS
;	COMDAT ??0?$allocator@K@std@@QAE@ABV01@@Z
_TEXT	SEGMENT PARA USE32 PUBLIC 'CODE'
_TEXT	ENDS
;	COMDAT ??0?$allocator@K@std@@QAE@XZ
_TEXT	SEGMENT PARA USE32 PUBLIC 'CODE'
_TEXT	ENDS
;	COMDAT ?_Buy@?$vector@KV?$allocator@K@std@@@std@@IAE_NI@Z
_TEXT	SEGMENT PARA USE32 PUBLIC 'CODE'
_TEXT	ENDS
;	COMDAT ?max_size@?$vector@KV?$allocator@K@std@@@std@@QBEIXZ
_TEXT	SEGMENT PARA USE32 PUBLIC 'CODE'
_TEXT	ENDS
;	COMDAT ?max_size@?$allocator@K@std@@QBEIXZ
_TEXT	SEGMENT PARA USE32 PUBLIC 'CODE'
_TEXT	ENDS
;	COMDAT ?_Xlen@?$vector@KV?$allocator@K@std@@@std@@IBEXXZ
_TEXT	SEGMENT PARA USE32 PUBLIC 'CODE'
_TEXT	ENDS
;	COMDAT ?allocate@?$allocator@K@std@@QAEPAKI@Z
_TEXT	SEGMENT PARA USE32 PUBLIC 'CODE'
_TEXT	ENDS
;	COMDAT ??$_Allocate@K@std@@YAPAKIPAK@Z
_TEXT	SEGMENT PARA USE32 PUBLIC 'CODE'
_TEXT	ENDS
;	COMDAT ??5CAr@@QAEAAV0@AAK@Z
_TEXT	SEGMENT PARA USE32 PUBLIC 'CODE'
_TEXT	ENDS
;	COMDAT ??6CAr@@QAEAAV0@K@Z
_TEXT	SEGMENT PARA USE32 PUBLIC 'CODE'
_TEXT	ENDS
;	COMDAT ?IsStoring@CAr@@QBEHXZ
_TEXT	SEGMENT PARA USE32 PUBLIC 'CODE'
_TEXT	ENDS
;	COMDAT ??0D3DXVECTOR3@@QAE@MMM@Z
_TEXT	SEGMENT PARA USE32 PUBLIC 'CODE'
_TEXT	ENDS
;	COMDAT ?GetTickCount@CTime@ATL@@SG?AV12@XZ
_TEXT	SEGMENT PARA USE32 PUBLIC 'CODE'
_TEXT	ENDS
;	COMDAT ??0CTime@ATL@@QAE@_J@Z
_TEXT	SEGMENT PARA USE32 PUBLIC 'CODE'
_TEXT	ENDS
;	COMDAT ??0D3DXVECTOR3@@QAE@XZ
_TEXT	SEGMENT PARA USE32 PUBLIC 'CODE'
_TEXT	ENDS
;	COMDAT ??0CTime@ATL@@QAE@XZ
_TEXT	SEGMENT PARA USE32 PUBLIC 'CODE'
_TEXT	ENDS
sxdata	SEGMENT DWORD USE32 'SXDATA'
sxdata	ENDS
FLAT	GROUP _DATA, CONST, _BSS
	ASSUME	CS: FLAT, DS: FLAT, SS: FLAT
endif

INCLUDELIB LIBCMT
INCLUDELIB OLDNAMES

PUBLIC	?m_nWidthLinkMap@CLandscape@@2PAHA		; CLandscape::m_nWidthLinkMap
_BSS	SEGMENT
?m_nWidthLinkMap@CLandscape@@2PAHA DD 07H DUP (?)	; CLandscape::m_nWidthLinkMap
_BSS	ENDS
PUBLIC	?GetExpanedLayer@CTicketProperty@@QAEHK@Z	; CTicketProperty::GetExpanedLayer
EXTRN	?GetExpanedLayer@CLayerProperty@@QAEHK@Z:NEAR	; CLayerProperty::GetExpanedLayer
; Function compile flags: /Ogty
; File c:\documents and settings\test\mes documents\source\virtuos_v17\build\program\_common\ticket.h
;	COMDAT ?GetExpanedLayer@CTicketProperty@@QAEHK@Z
_TEXT	SEGMENT
_dwWorldId$ = 8						; size = 4
?GetExpanedLayer@CTicketProperty@@QAEHK@Z PROC NEAR	; CTicketProperty::GetExpanedLayer, COMDAT
; _this$ = ecx

; 42   : 	int		GetExpanedLayer( DWORD dwWorldId )	{	return m_lp.GetExpanedLayer( dwWorldId );	}

  00000	83 c1 1c	 add	 ecx, 28			; 0000001cH
  00003	e9 00 00 00 00	 jmp	 ?GetExpanedLayer@CLayerProperty@@QAEHK@Z ; CLayerProperty::GetExpanedLayer
?GetExpanedLayer@CTicketProperty@@QAEHK@Z ENDP		; CTicketProperty::GetExpanedLayer
_TEXT	ENDS
PUBLIC	??2@YAPAXIPAX@Z					; operator new
; Function compile flags: /Ogty
; File c:\program files\microsoft visual studio .net 2003\vc7\include\new.h
;	COMDAT ??2@YAPAXIPAX@Z
_TEXT	SEGMENT
___formal$ = 8						; size = 4
__P$ = 12						; size = 4
??2@YAPAXIPAX@Z PROC NEAR				; operator new, COMDAT

; 109  :         {return (_P); }

  00000	8b 44 24 08	 mov	 eax, DWORD PTR __P$[esp-4]
  00004	c3		 ret	 0
??2@YAPAXIPAX@Z ENDP					; operator new
_TEXT	ENDS
PUBLIC	??3@YAXPAX0@Z					; operator delete
; Function compile flags: /Ogty
;	COMDAT ??3@YAXPAX0@Z
_TEXT	SEGMENT
___formal$ = 8						; size = 4
___formal$ = 12						; size = 4
??3@YAXPAX0@Z PROC NEAR					; operator delete, COMDAT

; 112  :         {return; }

  00000	c3		 ret	 0
??3@YAXPAX0@Z ENDP					; operator delete
_TEXT	ENDS
PUBLIC	__tcscmp
EXTRN	__mbscmp:NEAR
; Function compile flags: /Ogty
; File c:\program files\microsoft visual studio .net 2003\vc7\include\tchar.h
;	COMDAT __tcscmp
_TEXT	SEGMENT
__s1$ = 8						; size = 4
__s2$ = 12						; size = 4
__tcscmp PROC NEAR					; COMDAT

; 854  : __inline int _tcscmp(_CPC _s1,_CPC _s2) {return _mbscmp((_CPUC)_s1,(_CPUC)_s2);}

  00000	e9 00 00 00 00	 jmp	 __mbscmp
__tcscmp ENDP
_TEXT	ENDS
PUBLIC	?CalcBound@CWorld@@QAEXXZ			; CWorld::CalcBound
; Function compile flags: /Ogty
; File c:\documents and settings\test\mes documents\source\virtuos_v17\build\program\_common\world.cpp
;	COMDAT ?CalcBound@CWorld@@QAEXXZ
_TEXT	SEGMENT
?CalcBound@CWorld@@QAEXXZ PROC NEAR			; CWorld::CalcBound, COMDAT
; _this$ = ecx

; 236  : 	WORLD_WIDTH = MAP_SIZE * m_nLandWidth;

  00000	8b 41 04	 mov	 eax, DWORD PTR [ecx+4]

; 237  : 	WORLD_HEIGHT = MAP_SIZE * m_nLandHeight;

  00003	8b 51 08	 mov	 edx, DWORD PTR [ecx+8]
  00006	c1 e0 07	 shl	 eax, 7
  00009	c1 e2 07	 shl	 edx, 7
  0000c	89 41 0c	 mov	 DWORD PTR [ecx+12], eax
  0000f	89 51 10	 mov	 DWORD PTR [ecx+16], edx

; 238  : }

  00012	c3		 ret	 0
?CalcBound@CWorld@@QAEXXZ ENDP				; CWorld::CalcBound
_TEXT	ENDS
PUBLIC	?DoNotAdd@CWorld@@QAEHPAVCObj@@@Z		; CWorld::DoNotAdd
EXTRN	?SetWorld@CObj@@QAEXPAVCWorld@@@Z:NEAR		; CObj::SetWorld
; Function compile flags: /Ogty
;	COMDAT ?DoNotAdd@CWorld@@QAEHPAVCObj@@@Z
_TEXT	SEGMENT
_pObj$ = 8						; size = 4
?DoNotAdd@CWorld@@QAEHPAVCObj@@@Z PROC NEAR		; CWorld::DoNotAdd, COMDAT
; _this$ = ecx

; 408  : {

  00000	56		 push	 esi
  00001	57		 push	 edi
  00002	8b f9		 mov	 edi, ecx

; 417  : 		}
; 418  : 	}
; 419  : 	return FALSE;

  00004	8b 97 60 b0 05
	00		 mov	 edx, DWORD PTR [edi+372832]
  0000a	33 f6		 xor	 esi, esi
  0000c	85 d2		 test	 edx, edx
  0000e	7e 1c		 jle	 SHORT $L262485
  00010	8b 4c 24 0c	 mov	 ecx, DWORD PTR _pObj$[esp+4]
  00014	8d 87 64 b0 05
	00		 lea	 eax, DWORD PTR [edi+372836]
  0001a	8d 9b 00 00 00
	00		 npad	 6
$L262483:
  00020	39 08		 cmp	 DWORD PTR [eax], ecx
  00022	74 0f		 je	 SHORT $L269384
  00024	46		 inc	 esi
  00025	83 c0 04	 add	 eax, 4
  00028	3b f2		 cmp	 esi, edx
  0002a	7c f4		 jl	 SHORT $L262483
$L262485:
  0002c	5f		 pop	 edi
  0002d	5e		 pop	 esi
  0002e	33 c0		 xor	 eax, eax

; 420  : }

  00030	c2 04 00	 ret	 4
$L269384:

; 409  : 
; 410  : 	for( int i = 0; i < m_cbAddObjs; i++ )
; 411  : 	{
; 412  : 		if( m_apAddObjs[i] == pObj )
; 413  : 		{
; 414  : 			pObj->SetWorld( NULL );

  00033	6a 00		 push	 0
  00035	e8 00 00 00 00	 call	 ?SetWorld@CObj@@QAEXPAVCWorld@@@Z ; CObj::SetWorld

; 415  : 			m_apAddObjs[i]	= NULL;

  0003a	c7 84 b7 64 b0
	05 00 00 00 00
	00		 mov	 DWORD PTR [edi+esi*4+372836], 0
  00045	5f		 pop	 edi
  00046	5e		 pop	 esi

; 416  : 			return TRUE;

  00047	b8 01 00 00 00	 mov	 eax, 1

; 420  : }

  0004c	c2 04 00	 ret	 4
?DoNotAdd@CWorld@@QAEHPAVCObj@@@Z ENDP			; CWorld::DoNotAdd
_TEXT	ENDS
PUBLIC	?RemoveObjLink2@CWorld@@QAEHPAVCObj@@@Z		; CWorld::RemoveObjLink2
EXTRN	?RemoveObjLink2@CLayeredLinkMap@@QAEHPAVCObj@@@Z:NEAR ; CLayeredLinkMap::RemoveObjLink2
; Function compile flags: /Ogty
;	COMDAT ?RemoveObjLink2@CWorld@@QAEHPAVCObj@@@Z
_TEXT	SEGMENT
_pObj$ = 8						; size = 4
?RemoveObjLink2@CWorld@@QAEHPAVCObj@@@Z PROC NEAR	; CWorld::RemoveObjLink2, COMDAT
; _this$ = ecx

; 672  : #ifdef __WORLDSERVER
; 673  : 	return m_linkMap.RemoveObjLink2( pObj );

  00000	83 c1 24	 add	 ecx, 36			; 00000024H
  00003	e9 00 00 00 00	 jmp	 ?RemoveObjLink2@CLayeredLinkMap@@QAEHPAVCObj@@@Z ; CLayeredLinkMap::RemoveObjLink2
?RemoveObjLink2@CWorld@@QAEHPAVCObj@@@Z ENDP		; CWorld::RemoveObjLink2
_TEXT	ENDS
PUBLIC	?AddItToView@CWorld@@AAEXPAVCCtrl@@@Z		; CWorld::AddItToView
EXTRN	?AddItToView@CLayeredLinkMap@@QAEXPAVCCtrl@@@Z:NEAR ; CLayeredLinkMap::AddItToView
; Function compile flags: /Ogty
;	COMDAT ?AddItToView@CWorld@@AAEXPAVCCtrl@@@Z
_TEXT	SEGMENT
_pCtrl$ = 8						; size = 4
?AddItToView@CWorld@@AAEXPAVCCtrl@@@Z PROC NEAR		; CWorld::AddItToView, COMDAT
; _this$ = ecx

; 1387 : 	m_linkMap.AddItToView( pCtrl );

  00000	83 c1 24	 add	 ecx, 36			; 00000024H
  00003	e9 00 00 00 00	 jmp	 ?AddItToView@CLayeredLinkMap@@QAEXPAVCCtrl@@@Z ; CLayeredLinkMap::AddItToView
?AddItToView@CWorld@@AAEXPAVCCtrl@@@Z ENDP		; CWorld::AddItToView
_TEXT	ENDS
PUBLIC	?ModifyView@CWorld@@QAEXPAVCCtrl@@@Z		; CWorld::ModifyView
EXTRN	?ModifyView@CLayeredLinkMap@@QAEXPAVCCtrl@@@Z:NEAR ; CLayeredLinkMap::ModifyView
; Function compile flags: /Ogty
;	COMDAT ?ModifyView@CWorld@@QAEXPAVCCtrl@@@Z
_TEXT	SEGMENT
_pCtrl$ = 8						; size = 4
?ModifyView@CWorld@@QAEXPAVCCtrl@@@Z PROC NEAR		; CWorld::ModifyView, COMDAT
; _this$ = ecx

; 1398 : 	m_linkMap.ModifyView( pCtrl );

  00000	83 c1 24	 add	 ecx, 36			; 00000024H
  00003	e9 00 00 00 00	 jmp	 ?ModifyView@CLayeredLinkMap@@QAEXPAVCCtrl@@@Z ; CLayeredLinkMap::ModifyView
?ModifyView@CWorld@@QAEXPAVCCtrl@@@Z ENDP		; CWorld::ModifyView
_TEXT	ENDS
PUBLIC	?OnDie@CWorld@@QAEXPAVCMover@@0@Z		; CWorld::OnDie
; Function compile flags: /Ogty
;	COMDAT ?OnDie@CWorld@@QAEXPAVCMover@@0@Z
_TEXT	SEGMENT
_pDie$ = 8						; size = 4
_pAttacker$ = 12					; size = 4
?OnDie@CWorld@@QAEXPAVCMover@@0@Z PROC NEAR		; CWorld::OnDie, COMDAT
; _this$ = ecx

; 1960 : {

  00000	56		 push	 esi

; 1961 : 	if( m_cbOnDie >= MAX_ON_DIE )

  00001	8b b1 08 31 08
	00		 mov	 esi, DWORD PTR [ecx+536840]
  00007	81 fe 00 04 00
	00		 cmp	 esi, 1024		; 00000400H
  0000d	7d 44		 jge	 SHORT $L263222
  0000f	53		 push	 ebx

; 1962 : 		return;
; 1963 : 	for( int i = 0; i < m_cbOnDie; i++ )

  00010	33 c0		 xor	 eax, eax
  00012	85 f6		 test	 esi, esi
  00014	57		 push	 edi
  00015	8b 7c 24 10	 mov	 edi, DWORD PTR _pDie$[esp+8]
  00019	7e 18		 jle	 SHORT $L263227
  0001b	8d 91 0c 31 08
	00		 lea	 edx, DWORD PTR [ecx+536844]
$L263225:

; 1964 : 	{
; 1965 : 		if( m_aOnDie[i].pDie == pDie )

  00021	39 3a		 cmp	 DWORD PTR [edx], edi
  00023	74 2c		 je	 SHORT $L269403
  00025	8b 99 08 31 08
	00		 mov	 ebx, DWORD PTR [ecx+536840]
  0002b	40		 inc	 eax
  0002c	83 c2 08	 add	 edx, 8
  0002f	3b c3		 cmp	 eax, ebx
  00031	7c ee		 jl	 SHORT $L263225
$L263227:

; 1966 : 			return;
; 1967 : 	}
; 1968 : 	m_aOnDie[m_cbOnDie].pDie	= (CUser*)pDie;
; 1969 : 	m_aOnDie[m_cbOnDie].pAttacker	= (CUser*)pAttacker;

  00033	8b 54 24 14	 mov	 edx, DWORD PTR _pAttacker$[esp+8]
  00037	89 bc f1 0c 31
	08 00		 mov	 DWORD PTR [ecx+esi*8+536844], edi
  0003e	8b 81 08 31 08
	00		 mov	 eax, DWORD PTR [ecx+536840]
  00044	89 94 c1 10 31
	08 00		 mov	 DWORD PTR [ecx+eax*8+536848], edx

; 1970 : 	m_cbOnDie++;

  0004b	ff 81 08 31 08
	00		 inc	 DWORD PTR [ecx+536840]
$L269403:
  00051	5f		 pop	 edi
  00052	5b		 pop	 ebx
$L263222:
  00053	5e		 pop	 esi

; 1971 : }

  00054	c2 08 00	 ret	 8
?OnDie@CWorld@@QAEXPAVCMover@@0@Z ENDP			; CWorld::OnDie
_TEXT	ENDS
PUBLIC	??0CRect@@QAE@XZ				; CRect::CRect
; Function compile flags: /Ogty
; File c:\program files\microsoft visual studio .net 2003\vc7\atlmfc\include\atltypes.inl
;	COMDAT ??0CRect@@QAE@XZ
_TEXT	SEGMENT
??0CRect@@QAE@XZ PROC NEAR				; CRect::CRect, COMDAT
; _this$ = ecx

; 110  : 	{ /* random filled */ }

  00000	8b c1		 mov	 eax, ecx
  00002	c3		 ret	 0
??0CRect@@QAE@XZ ENDP					; CRect::CRect
_TEXT	ENDS
PUBLIC	?GetCount@?$CStack@K@@QAEHXZ			; CStack<unsigned long>::GetCount
; Function compile flags: /Ogty
; File c:\documents and settings\test\mes documents\source\virtuos_v17\build\program\_common\data.h
;	COMDAT ?GetCount@?$CStack@K@@QAEHXZ
_TEXT	SEGMENT
?GetCount@?$CStack@K@@QAEHXZ PROC NEAR			; CStack<unsigned long>::GetCount, COMDAT
; _this$ = ecx

; 24   : 	int		GetCount( void ) { return m_nTop; }

  00000	8b 41 10	 mov	 eax, DWORD PTR [ecx+16]
  00003	c3		 ret	 0
?GetCount@?$CStack@K@@QAEHXZ ENDP			; CStack<unsigned long>::GetCount
_TEXT	ENDS
PUBLIC	?IsFull@?$CStack@K@@QAEHXZ			; CStack<unsigned long>::IsFull
; Function compile flags: /Ogty
;	COMDAT ?IsFull@?$CStack@K@@QAEHXZ
_TEXT	SEGMENT
?IsFull@?$CStack@K@@QAEHXZ PROC NEAR			; CStack<unsigned long>::IsFull, COMDAT
; _this$ = ecx

; 29   : 	BOOL	IsFull( void )	{ return ( m_nTop >= m_nSize ); }

  00000	8b 41 10	 mov	 eax, DWORD PTR [ecx+16]
  00003	56		 push	 esi
  00004	8b 71 08	 mov	 esi, DWORD PTR [ecx+8]
  00007	33 d2		 xor	 edx, edx
  00009	3b c6		 cmp	 eax, esi
  0000b	0f 9d c2	 setge	 dl
  0000e	5e		 pop	 esi
  0000f	8b c2		 mov	 eax, edx
  00011	c3		 ret	 0
?IsFull@?$CStack@K@@QAEHXZ ENDP				; CStack<unsigned long>::IsFull
_TEXT	ENDS
PUBLIC	?size@?$vector@KV?$allocator@K@std@@@std@@QBEIXZ ; std::vector<unsigned long,std::allocator<unsigned long> >::size
; Function compile flags: /Ogty
; File c:\program files\microsoft visual studio .net 2003\vc7\include\vector
;	COMDAT ?size@?$vector@KV?$allocator@K@std@@@std@@QBEIXZ
_TEXT	SEGMENT
?size@?$vector@KV?$allocator@K@std@@@std@@QBEIXZ PROC NEAR ; std::vector<unsigned long,std::allocator<unsigned long> >::size, COMDAT
; _this$ = ecx

; 516  : 		return (_Myfirst == 0 ? 0 : _Mylast - _Myfirst);

  00000	8b 51 04	 mov	 edx, DWORD PTR [ecx+4]
  00003	85 d2		 test	 edx, edx
  00005	75 03		 jne	 SHORT $L269417
  00007	33 c0		 xor	 eax, eax

; 517  : 		}

  00009	c3		 ret	 0
$L269417:

; 516  : 		return (_Myfirst == 0 ? 0 : _Mylast - _Myfirst);

  0000a	8b 41 08	 mov	 eax, DWORD PTR [ecx+8]
  0000d	2b c2		 sub	 eax, edx
  0000f	c1 f8 02	 sar	 eax, 2

; 517  : 		}

  00012	c3		 ret	 0
?size@?$vector@KV?$allocator@K@std@@@std@@QBEIXZ ENDP	; std::vector<unsigned long,std::allocator<unsigned long> >::size
_TEXT	ENDS
PUBLIC	?size@?$vector@PAVCObj@@V?$allocator@PAVCObj@@@std@@@std@@QBEIXZ ; std::vector<CObj *,std::allocator<CObj *> >::size
; Function compile flags: /Ogty
;	COMDAT ?size@?$vector@PAVCObj@@V?$allocator@PAVCObj@@@std@@@std@@QBEIXZ
_TEXT	SEGMENT
?size@?$vector@PAVCObj@@V?$allocator@PAVCObj@@@std@@@std@@QBEIXZ PROC NEAR ; std::vector<CObj *,std::allocator<CObj *> >::size, COMDAT
; _this$ = ecx

; 516  : 		return (_Myfirst == 0 ? 0 : _Mylast - _Myfirst);

  00000	8b 51 04	 mov	 edx, DWORD PTR [ecx+4]
  00003	85 d2		 test	 edx, edx
  00005	75 03		 jne	 SHORT $L269422
  00007	33 c0		 xor	 eax, eax

; 517  : 		}

  00009	c3		 ret	 0
$L269422:

; 516  : 		return (_Myfirst == 0 ? 0 : _Mylast - _Myfirst);

  0000a	8b 41 08	 mov	 eax, DWORD PTR [ecx+8]
  0000d	2b c2		 sub	 eax, edx
  0000f	c1 f8 02	 sar	 eax, 2

; 517  : 		}

  00012	c3		 ret	 0
?size@?$vector@PAVCObj@@V?$allocator@PAVCObj@@@std@@@std@@QBEIXZ ENDP ; std::vector<CObj *,std::allocator<CObj *> >::size
_TEXT	ENDS
PUBLIC	??0?$allocator@UENVIR_INFO@@@std@@QAE@XZ	; std::allocator<ENVIR_INFO>::allocator<ENVIR_INFO>
; Function compile flags: /Ogty
; File c:\program files\microsoft visual studio .net 2003\vc7\include\xmemory
;	COMDAT ??0?$allocator@UENVIR_INFO@@@std@@QAE@XZ
_TEXT	SEGMENT
??0?$allocator@UENVIR_INFO@@@std@@QAE@XZ PROC NEAR	; std::allocator<ENVIR_INFO>::allocator<ENVIR_INFO>, COMDAT
; _this$ = ecx

; 111  : 	allocator()

  00000	8b c1		 mov	 eax, ecx

; 112  : 		{	// construct default allocator (do nothing)
; 113  : 		}

  00002	c3		 ret	 0
??0?$allocator@UENVIR_INFO@@@std@@QAE@XZ ENDP		; std::allocator<ENVIR_INFO>::allocator<ENVIR_INFO>
_TEXT	ENDS
PUBLIC	??0?$allocator@PAVCObj@@@std@@QAE@XZ		; std::allocator<CObj *>::allocator<CObj *>
; Function compile flags: /Ogty
;	COMDAT ??0?$allocator@PAVCObj@@@std@@QAE@XZ
_TEXT	SEGMENT
??0?$allocator@PAVCObj@@@std@@QAE@XZ PROC NEAR		; std::allocator<CObj *>::allocator<CObj *>, COMDAT
; _this$ = ecx

; 111  : 	allocator()

  00000	8b c1		 mov	 eax, ecx

; 112  : 		{	// construct default allocator (do nothing)
; 113  : 		}

  00002	c3		 ret	 0
??0?$allocator@PAVCObj@@@std@@QAE@XZ ENDP		; std::allocator<CObj *>::allocator<CObj *>
_TEXT	ENDS
PUBLIC	??0?$allocator@UENVIR_INFO@@@std@@QAE@ABV01@@Z	; std::allocator<ENVIR_INFO>::allocator<ENVIR_INFO>
; Function compile flags: /Ogty
;	COMDAT ??0?$allocator@UENVIR_INFO@@@std@@QAE@ABV01@@Z
_TEXT	SEGMENT
___formal$ = 8						; size = 4
??0?$allocator@UENVIR_INFO@@@std@@QAE@ABV01@@Z PROC NEAR ; std::allocator<ENVIR_INFO>::allocator<ENVIR_INFO>, COMDAT
; _this$ = ecx

; 115  : 	allocator(const allocator<_Ty>&)

  00000	8b c1		 mov	 eax, ecx

; 116  : 		{	// construct by copying (do nothing)
; 117  : 		}

  00002	c2 04 00	 ret	 4
??0?$allocator@UENVIR_INFO@@@std@@QAE@ABV01@@Z ENDP	; std::allocator<ENVIR_INFO>::allocator<ENVIR_INFO>
_TEXT	ENDS
PUBLIC	?deallocate@?$allocator@UENVIR_INFO@@@std@@QAEXPAUENVIR_INFO@@I@Z ; std::allocator<ENVIR_INFO>::deallocate
EXTRN	??3@YAXPAX@Z:NEAR				; operator delete
; Function compile flags: /Ogty
;	COMDAT ?deallocate@?$allocator@UENVIR_INFO@@@std@@QAEXPAUENVIR_INFO@@I@Z
_TEXT	SEGMENT
__Ptr$ = 8						; size = 4
___formal$ = 12						; size = 4
?deallocate@?$allocator@UENVIR_INFO@@@std@@QAEXPAUENVIR_INFO@@I@Z PROC NEAR ; std::allocator<ENVIR_INFO>::deallocate, COMDAT
; _this$ = ecx

; 132  : 		operator delete(_Ptr);

  00000	8b 44 24 04	 mov	 eax, DWORD PTR __Ptr$[esp-4]
  00004	50		 push	 eax
  00005	e8 00 00 00 00	 call	 ??3@YAXPAX@Z		; operator delete
  0000a	59		 pop	 ecx

; 133  : 		}

  0000b	c2 08 00	 ret	 8
?deallocate@?$allocator@UENVIR_INFO@@@std@@QAEXPAUENVIR_INFO@@I@Z ENDP ; std::allocator<ENVIR_INFO>::deallocate
_TEXT	ENDS
PUBLIC	??0?$allocator@PAVCObj@@@std@@QAE@ABV01@@Z	; std::allocator<CObj *>::allocator<CObj *>
; Function compile flags: /Ogty
;	COMDAT ??0?$allocator@PAVCObj@@@std@@QAE@ABV01@@Z
_TEXT	SEGMENT
___formal$ = 8						; size = 4
??0?$allocator@PAVCObj@@@std@@QAE@ABV01@@Z PROC NEAR	; std::allocator<CObj *>::allocator<CObj *>, COMDAT
; _this$ = ecx

; 115  : 	allocator(const allocator<_Ty>&)

  00000	8b c1		 mov	 eax, ecx

; 116  : 		{	// construct by copying (do nothing)
; 117  : 		}

  00002	c2 04 00	 ret	 4
??0?$allocator@PAVCObj@@@std@@QAE@ABV01@@Z ENDP		; std::allocator<CObj *>::allocator<CObj *>
_TEXT	ENDS
PUBLIC	?deallocate@?$allocator@PAVCObj@@@std@@QAEXPAPAVCObj@@I@Z ; std::allocator<CObj *>::deallocate
; Function compile flags: /Ogty
;	COMDAT ?deallocate@?$allocator@PAVCObj@@@std@@QAEXPAPAVCObj@@I@Z
_TEXT	SEGMENT
__Ptr$ = 8						; size = 4
___formal$ = 12						; size = 4
?deallocate@?$allocator@PAVCObj@@@std@@QAEXPAPAVCObj@@I@Z PROC NEAR ; std::allocator<CObj *>::deallocate, COMDAT
; _this$ = ecx

; 132  : 		operator delete(_Ptr);

  00000	8b 44 24 04	 mov	 eax, DWORD PTR __Ptr$[esp-4]
  00004	50		 push	 eax
  00005	e8 00 00 00 00	 call	 ??3@YAXPAX@Z		; operator delete
  0000a	59		 pop	 ecx

; 133  : 		}

  0000b	c2 08 00	 ret	 8
?deallocate@?$allocator@PAVCObj@@@std@@QAEXPAPAVCObj@@I@Z ENDP ; std::allocator<CObj *>::deallocate
_TEXT	ENDS
PUBLIC	??Yiterator@?$vector@KV?$allocator@K@std@@@std@@QAEAAV012@H@Z ; std::vector<unsigned long,std::allocator<unsigned long> >::iterator::operator+=
; Function compile flags: /Ogty
; File c:\program files\microsoft visual studio .net 2003\vc7\include\vector
;	COMDAT ??Yiterator@?$vector@KV?$allocator@K@std@@@std@@QAEAAV012@H@Z
_TEXT	SEGMENT
__Off$ = 8						; size = 4
??Yiterator@?$vector@KV?$allocator@K@std@@@std@@QAEAAV012@H@Z PROC NEAR ; std::vector<unsigned long,std::allocator<unsigned long> >::iterator::operator+=, COMDAT
; _this$ = ecx

; 255  : 			{	// increment by integer

  00000	8b c1		 mov	 eax, ecx

; 256  : 			this->_Myptr += _Off;

  00002	8b 4c 24 04	 mov	 ecx, DWORD PTR __Off$[esp-4]
  00006	8d 14 8d 00 00
	00 00		 lea	 edx, DWORD PTR [ecx*4]
  0000d	01 10		 add	 DWORD PTR [eax], edx

; 257  : 			return (*this);
; 258  : 			}

  0000f	c2 04 00	 ret	 4
??Yiterator@?$vector@KV?$allocator@K@std@@@std@@QAEAAV012@H@Z ENDP ; std::vector<unsigned long,std::allocator<unsigned long> >::iterator::operator+=
_TEXT	ENDS
PUBLIC	??Dconst_iterator@?$vector@KV?$allocator@K@std@@@std@@QBEABKXZ ; std::vector<unsigned long,std::allocator<unsigned long> >::const_iterator::operator*
; Function compile flags: /Ogty
;	COMDAT ??Dconst_iterator@?$vector@KV?$allocator@K@std@@@std@@QBEABKXZ
_TEXT	SEGMENT
??Dconst_iterator@?$vector@KV?$allocator@K@std@@@std@@QBEABKXZ PROC NEAR ; std::vector<unsigned long,std::allocator<unsigned long> >::const_iterator::operator*, COMDAT
; _this$ = ecx

; 80   : 
; 81   : 
; 82   : 			return (*_Myptr);

  00000	8b 01		 mov	 eax, DWORD PTR [ecx]

; 83   : 			}

  00002	c3		 ret	 0
??Dconst_iterator@?$vector@KV?$allocator@K@std@@@std@@QBEABKXZ ENDP ; std::vector<unsigned long,std::allocator<unsigned long> >::const_iterator::operator*
_TEXT	ENDS
PUBLIC	??Yiterator@?$vector@PAVCObj@@V?$allocator@PAVCObj@@@std@@@std@@QAEAAV012@H@Z ; std::vector<CObj *,std::allocator<CObj *> >::iterator::operator+=
; Function compile flags: /Ogty
;	COMDAT ??Yiterator@?$vector@PAVCObj@@V?$allocator@PAVCObj@@@std@@@std@@QAEAAV012@H@Z
_TEXT	SEGMENT
__Off$ = 8						; size = 4
??Yiterator@?$vector@PAVCObj@@V?$allocator@PAVCObj@@@std@@@std@@QAEAAV012@H@Z PROC NEAR ; std::vector<CObj *,std::allocator<CObj *> >::iterator::operator+=, COMDAT
; _this$ = ecx

; 255  : 			{	// increment by integer

  00000	8b c1		 mov	 eax, ecx

; 256  : 			this->_Myptr += _Off;

  00002	8b 4c 24 04	 mov	 ecx, DWORD PTR __Off$[esp-4]
  00006	8d 14 8d 00 00
	00 00		 lea	 edx, DWORD PTR [ecx*4]
  0000d	01 10		 add	 DWORD PTR [eax], edx

; 257  : 			return (*this);
; 258  : 			}

  0000f	c2 04 00	 ret	 4
??Yiterator@?$vector@PAVCObj@@V?$allocator@PAVCObj@@@std@@@std@@QAEAAV012@H@Z ENDP ; std::vector<CObj *,std::allocator<CObj *> >::iterator::operator+=
_TEXT	ENDS
PUBLIC	??Dconst_iterator@?$vector@PAVCObj@@V?$allocator@PAVCObj@@@std@@@std@@QBEABQAVCObj@@XZ ; std::vector<CObj *,std::allocator<CObj *> >::const_iterator::operator*
; Function compile flags: /Ogty
;	COMDAT ??Dconst_iterator@?$vector@PAVCObj@@V?$allocator@PAVCObj@@@std@@@std@@QBEABQAVCObj@@XZ
_TEXT	SEGMENT
??Dconst_iterator@?$vector@PAVCObj@@V?$allocator@PAVCObj@@@std@@@std@@QBEABQAVCObj@@XZ PROC NEAR ; std::vector<CObj *,std::allocator<CObj *> >::const_iterator::operator*, COMDAT
; _this$ = ecx

; 80   : 
; 81   : 
; 82   : 			return (*_Myptr);

  00000	8b 01		 mov	 eax, DWORD PTR [ecx]

; 83   : 			}

  00002	c3		 ret	 0
??Dconst_iterator@?$vector@PAVCObj@@V?$allocator@PAVCObj@@@std@@@std@@QBEABQAVCObj@@XZ ENDP ; std::vector<CObj *,std::allocator<CObj *> >::const_iterator::operator*
_TEXT	ENDS
PUBLIC	??Yiterator@?$vector@VCGuildCombat1to1@@V?$allocator@VCGuildCombat1to1@@@std@@@std@@QAEAAV012@H@Z ; std::vector<CGuildCombat1to1,std::allocator<CGuildCombat1to1> >::iterator::operator+=
; Function compile flags: /Ogty
;	COMDAT ??Yiterator@?$vector@VCGuildCombat1to1@@V?$allocator@VCGuildCombat1to1@@@std@@@std@@QAEAAV012@H@Z
_TEXT	SEGMENT
__Off$ = 8						; size = 4
??Yiterator@?$vector@VCGuildCombat1to1@@V?$allocator@VCGuildCombat1to1@@@std@@@std@@QAEAAV012@H@Z PROC NEAR ; std::vector<CGuildCombat1to1,std::allocator<CGuildCombat1to1> >::iterator::operator+=, COMDAT
; _this$ = ecx

; 255  : 			{	// increment by integer

  00000	8b c1		 mov	 eax, ecx

; 256  : 			this->_Myptr += _Off;

  00002	8b 4c 24 04	 mov	 ecx, DWORD PTR __Off$[esp-4]
  00006	8b 10		 mov	 edx, DWORD PTR [eax]
  00008	8d 0c 49	 lea	 ecx, DWORD PTR [ecx+ecx*2]
  0000b	c1 e1 04	 shl	 ecx, 4
  0000e	03 d1		 add	 edx, ecx
  00010	89 10		 mov	 DWORD PTR [eax], edx

; 257  : 			return (*this);
; 258  : 			}

  00012	c2 04 00	 ret	 4
??Yiterator@?$vector@VCGuildCombat1to1@@V?$allocator@VCGuildCombat1to1@@@std@@@std@@QAEAAV012@H@Z ENDP ; std::vector<CGuildCombat1to1,std::allocator<CGuildCombat1to1> >::iterator::operator+=
_TEXT	ENDS
PUBLIC	??Dconst_iterator@?$vector@VCGuildCombat1to1@@V?$allocator@VCGuildCombat1to1@@@std@@@std@@QBEABVCGuildCombat1to1@@XZ ; std::vector<CGuildCombat1to1,std::allocator<CGuildCombat1to1> >::const_iterator::operator*
; Function compile flags: /Ogty
;	COMDAT ??Dconst_iterator@?$vector@VCGuildCombat1to1@@V?$allocator@VCGuildCombat1to1@@@std@@@std@@QBEABVCGuildCombat1to1@@XZ
_TEXT	SEGMENT
??Dconst_iterator@?$vector@VCGuildCombat1to1@@V?$allocator@VCGuildCombat1to1@@@std@@@std@@QBEABVCGuildCombat1to1@@XZ PROC NEAR ; std::vector<CGuildCombat1to1,std::allocator<CGuildCombat1to1> >::const_iterator::operator*, COMDAT
; _this$ = ecx

; 80   : 
; 81   : 
; 82   : 			return (*_Myptr);

  00000	8b 01		 mov	 eax, DWORD PTR [ecx]

; 83   : 			}

  00002	c3		 ret	 0
??Dconst_iterator@?$vector@VCGuildCombat1to1@@V?$allocator@VCGuildCombat1to1@@@std@@@std@@QBEABVCGuildCombat1to1@@XZ ENDP ; std::vector<CGuildCombat1to1,std::allocator<CGuildCombat1to1> >::const_iterator::operator*
_TEXT	ENDS
PUBLIC	??Yiterator@?$vector@U__GC1TO1TENDER@CGuildCombat1to1Mng@@V?$allocator@U__GC1TO1TENDER@CGuildCombat1to1Mng@@@std@@@std@@QAEAAV012@H@Z ; std::vector<CGuildCombat1to1Mng::__GC1TO1TENDER,std::allocator<CGuildCombat1to1Mng::__GC1TO1TENDER> >::iterator::operator+=
; Function compile flags: /Ogty
;	COMDAT ??Yiterator@?$vector@U__GC1TO1TENDER@CGuildCombat1to1Mng@@V?$allocator@U__GC1TO1TENDER@CGuildCombat1to1Mng@@@std@@@std@@QAEAAV012@H@Z
_TEXT	SEGMENT
__Off$ = 8						; size = 4
??Yiterator@?$vector@U__GC1TO1TENDER@CGuildCombat1to1Mng@@V?$allocator@U__GC1TO1TENDER@CGuildCombat1to1Mng@@@std@@@std@@QAEAAV012@H@Z PROC NEAR ; std::vector<CGuildCombat1to1Mng::__GC1TO1TENDER,std::allocator<CGuildCombat1to1Mng::__GC1TO1TENDER> >::iterator::operator+=, COMDAT
; _this$ = ecx

; 255  : 			{	// increment by integer

  00000	8b c1		 mov	 eax, ecx

; 256  : 			this->_Myptr += _Off;

  00002	8b 4c 24 04	 mov	 ecx, DWORD PTR __Off$[esp-4]
  00006	8b 10		 mov	 edx, DWORD PTR [eax]
  00008	8d 0c 49	 lea	 ecx, DWORD PTR [ecx+ecx*2]
  0000b	c1 e1 04	 shl	 ecx, 4
  0000e	03 d1		 add	 edx, ecx
  00010	89 10		 mov	 DWORD PTR [eax], edx

; 257  : 			return (*this);
; 258  : 			}

  00012	c2 04 00	 ret	 4
??Yiterator@?$vector@U__GC1TO1TENDER@CGuildCombat1to1Mng@@V?$allocator@U__GC1TO1TENDER@CGuildCombat1to1Mng@@@std@@@std@@QAEAAV012@H@Z ENDP ; std::vector<CGuildCombat1to1Mng::__GC1TO1TENDER,std::allocator<CGuildCombat1to1Mng::__GC1TO1TENDER> >::iterator::operator+=
_TEXT	ENDS
PUBLIC	??Dconst_iterator@?$vector@U__GC1TO1TENDER@CGuildCombat1to1Mng@@V?$allocator@U__GC1TO1TENDER@CGuildCombat1to1Mng@@@std@@@std@@QBEABU__GC1TO1TENDER@CGuildCombat1to1Mng@@XZ ; std::vector<CGuildCombat1to1Mng::__GC1TO1TENDER,std::allocator<CGuildCombat1to1Mng::__GC1TO1TENDER> >::const_iterator::operator*
; Function compile flags: /Ogty
;	COMDAT ??Dconst_iterator@?$vector@U__GC1TO1TENDER@CGuildCombat1to1Mng@@V?$allocator@U__GC1TO1TENDER@CGuildCombat1to1Mng@@@std@@@std@@QBEABU__GC1TO1TENDER@CGuildCombat1to1Mng@@XZ
_TEXT	SEGMENT
??Dconst_iterator@?$vector@U__GC1TO1TENDER@CGuildCombat1to1Mng@@V?$allocator@U__GC1TO1TENDER@CGuildCombat1to1Mng@@@std@@@std@@QBEABU__GC1TO1TENDER@CGuildCombat1to1Mng@@XZ PROC NEAR ; std::vector<CGuildCombat1to1Mng::__GC1TO1TENDER,std::allocator<CGuildCombat1to1Mng::__GC1TO1TENDER> >::const_iterator::operator*, COMDAT
; _this$ = ecx

; 80   : 
; 81   : 
; 82   : 			return (*_Myptr);

  00000	8b 01		 mov	 eax, DWORD PTR [ecx]

; 83   : 			}

  00002	c3		 ret	 0
??Dconst_iterator@?$vector@U__GC1TO1TENDER@CGuildCombat1to1Mng@@V?$allocator@U__GC1TO1TENDER@CGuildCombat1to1Mng@@@std@@@std@@QBEABU__GC1TO1TENDER@CGuildCombat1to1Mng@@XZ ENDP ; std::vector<CGuildCombat1to1Mng::__GC1TO1TENDER,std::allocator<CGuildCombat1to1Mng::__GC1TO1TENDER> >::const_iterator::operator*
_TEXT	ENDS
PUBLIC	?max_size@?$allocator@UENVIR_INFO@@@std@@QBEIXZ	; std::allocator<ENVIR_INFO>::max_size
; Function compile flags: /Ogty
; File c:\program files\microsoft visual studio .net 2003\vc7\include\xmemory
;	COMDAT ?max_size@?$allocator@UENVIR_INFO@@@std@@QBEIXZ
_TEXT	SEGMENT
?max_size@?$allocator@UENVIR_INFO@@@std@@QBEIXZ PROC NEAR ; std::allocator<ENVIR_INFO>::max_size, COMDAT
; _this$ = ecx

; 157  : 		_SIZT _Count = (_SIZT)(-1) / sizeof (_Ty);
; 158  : 		return (0 < _Count ? _Count : 1);

  00000	b8 e5 b1 15 01	 mov	 eax, 18199013		; 0115b1e5H

; 159  : 		}

  00005	c3		 ret	 0
?max_size@?$allocator@UENVIR_INFO@@@std@@QBEIXZ ENDP	; std::allocator<ENVIR_INFO>::max_size
_TEXT	ENDS
PUBLIC	?max_size@?$allocator@PAVCObj@@@std@@QBEIXZ	; std::allocator<CObj *>::max_size
; Function compile flags: /Ogty
;	COMDAT ?max_size@?$allocator@PAVCObj@@@std@@QBEIXZ
_TEXT	SEGMENT
?max_size@?$allocator@PAVCObj@@@std@@QBEIXZ PROC NEAR	; std::allocator<CObj *>::max_size, COMDAT
; _this$ = ecx

; 157  : 		_SIZT _Count = (_SIZT)(-1) / sizeof (_Ty);
; 158  : 		return (0 < _Count ? _Count : 1);

  00000	b8 ff ff ff 3f	 mov	 eax, 1073741823		; 3fffffffH

; 159  : 		}

  00005	c3		 ret	 0
?max_size@?$allocator@PAVCObj@@@std@@QBEIXZ ENDP	; std::allocator<CObj *>::max_size
_TEXT	ENDS
PUBLIC	??0const_iterator@?$vector@KV?$allocator@K@std@@@std@@QAE@PAK@Z ; std::vector<unsigned long,std::allocator<unsigned long> >::const_iterator::const_iterator
; Function compile flags: /Ogty
; File c:\program files\microsoft visual studio .net 2003\vc7\include\vector
;	COMDAT ??0const_iterator@?$vector@KV?$allocator@K@std@@@std@@QAE@PAK@Z
_TEXT	SEGMENT
__Ptr$ = 8						; size = 4
??0const_iterator@?$vector@KV?$allocator@K@std@@@std@@QAE@PAK@Z PROC NEAR ; std::vector<unsigned long,std::allocator<unsigned long> >::const_iterator::const_iterator, COMDAT
; _this$ = ecx

; 73   : 		const_iterator(_Tptr _Ptr)

  00000	8b c1		 mov	 eax, ecx

; 74   : 			{	// construct with pointer _Ptr
; 75   : 			_Myptr = _Ptr;

  00002	8b 4c 24 04	 mov	 ecx, DWORD PTR __Ptr$[esp-4]
  00006	89 08		 mov	 DWORD PTR [eax], ecx

; 76   : 			}

  00008	c2 04 00	 ret	 4
??0const_iterator@?$vector@KV?$allocator@K@std@@@std@@QAE@PAK@Z ENDP ; std::vector<unsigned long,std::allocator<unsigned long> >::const_iterator::const_iterator
_TEXT	ENDS
PUBLIC	??0const_iterator@?$vector@PAVCObj@@V?$allocator@PAVCObj@@@std@@@std@@QAE@PAPAVCObj@@@Z ; std::vector<CObj *,std::allocator<CObj *> >::const_iterator::const_iterator
; Function compile flags: /Ogty
;	COMDAT ??0const_iterator@?$vector@PAVCObj@@V?$allocator@PAVCObj@@@std@@@std@@QAE@PAPAVCObj@@@Z
_TEXT	SEGMENT
__Ptr$ = 8						; size = 4
??0const_iterator@?$vector@PAVCObj@@V?$allocator@PAVCObj@@@std@@@std@@QAE@PAPAVCObj@@@Z PROC NEAR ; std::vector<CObj *,std::allocator<CObj *> >::const_iterator::const_iterator, COMDAT
; _this$ = ecx

; 73   : 		const_iterator(_Tptr _Ptr)

  00000	8b c1		 mov	 eax, ecx

; 74   : 			{	// construct with pointer _Ptr
; 75   : 			_Myptr = _Ptr;

  00002	8b 4c 24 04	 mov	 ecx, DWORD PTR __Ptr$[esp-4]
  00006	89 08		 mov	 DWORD PTR [eax], ecx

; 76   : 			}

  00008	c2 04 00	 ret	 4
??0const_iterator@?$vector@PAVCObj@@V?$allocator@PAVCObj@@@std@@@std@@QAE@PAPAVCObj@@@Z ENDP ; std::vector<CObj *,std::allocator<CObj *> >::const_iterator::const_iterator
_TEXT	ENDS
PUBLIC	??0const_iterator@?$vector@VCGuildCombat1to1@@V?$allocator@VCGuildCombat1to1@@@std@@@std@@QAE@PAVCGuildCombat1to1@@@Z ; std::vector<CGuildCombat1to1,std::allocator<CGuildCombat1to1> >::const_iterator::const_iterator
; Function compile flags: /Ogty
;	COMDAT ??0const_iterator@?$vector@VCGuildCombat1to1@@V?$allocator@VCGuildCombat1to1@@@std@@@std@@QAE@PAVCGuildCombat1to1@@@Z
_TEXT	SEGMENT
__Ptr$ = 8						; size = 4
??0const_iterator@?$vector@VCGuildCombat1to1@@V?$allocator@VCGuildCombat1to1@@@std@@@std@@QAE@PAVCGuildCombat1to1@@@Z PROC NEAR ; std::vector<CGuildCombat1to1,std::allocator<CGuildCombat1to1> >::const_iterator::const_iterator, COMDAT
; _this$ = ecx

; 73   : 		const_iterator(_Tptr _Ptr)

  00000	8b c1		 mov	 eax, ecx

; 74   : 			{	// construct with pointer _Ptr
; 75   : 			_Myptr = _Ptr;

  00002	8b 4c 24 04	 mov	 ecx, DWORD PTR __Ptr$[esp-4]
  00006	89 08		 mov	 DWORD PTR [eax], ecx

; 76   : 			}

  00008	c2 04 00	 ret	 4
??0const_iterator@?$vector@VCGuildCombat1to1@@V?$allocator@VCGuildCombat1to1@@@std@@@std@@QAE@PAVCGuildCombat1to1@@@Z ENDP ; std::vector<CGuildCombat1to1,std::allocator<CGuildCombat1to1> >::const_iterator::const_iterator
_TEXT	ENDS
PUBLIC	??0const_iterator@?$vector@U__GC1TO1TENDER@CGuildCombat1to1Mng@@V?$allocator@U__GC1TO1TENDER@CGuildCombat1to1Mng@@@std@@@std@@QAE@PAU__GC1TO1TENDER@CGuildCombat1to1Mng@@@Z ; std::vector<CGuildCombat1to1Mng::__GC1TO1TENDER,std::allocator<CGuildCombat1to1Mng::__GC1TO1TENDER> >::const_iterator::const_iterator
; Function compile flags: /Ogty
;	COMDAT ??0const_iterator@?$vector@U__GC1TO1TENDER@CGuildCombat1to1Mng@@V?$allocator@U__GC1TO1TENDER@CGuildCombat1to1Mng@@@std@@@std@@QAE@PAU__GC1TO1TENDER@CGuildCombat1to1Mng@@@Z
_TEXT	SEGMENT
__Ptr$ = 8						; size = 4
??0const_iterator@?$vector@U__GC1TO1TENDER@CGuildCombat1to1Mng@@V?$allocator@U__GC1TO1TENDER@CGuildCombat1to1Mng@@@std@@@std@@QAE@PAU__GC1TO1TENDER@CGuildCombat1to1Mng@@@Z PROC NEAR ; std::vector<CGuildCombat1to1Mng::__GC1TO1TENDER,std::allocator<CGuildCombat1to1Mng::__GC1TO1TENDER> >::const_iterator::const_iterator, COMDAT
; _this$ = ecx

; 73   : 		const_iterator(_Tptr _Ptr)

  00000	8b c1		 mov	 eax, ecx

; 74   : 			{	// construct with pointer _Ptr
; 75   : 			_Myptr = _Ptr;

  00002	8b 4c 24 04	 mov	 ecx, DWORD PTR __Ptr$[esp-4]
  00006	89 08		 mov	 DWORD PTR [eax], ecx

; 76   : 			}

  00008	c2 04 00	 ret	 4
??0const_iterator@?$vector@U__GC1TO1TENDER@CGuildCombat1to1Mng@@V?$allocator@U__GC1TO1TENDER@CGuildCombat1to1Mng@@@std@@@std@@QAE@PAU__GC1TO1TENDER@CGuildCombat1to1Mng@@@Z ENDP ; std::vector<CGuildCombat1to1Mng::__GC1TO1TENDER,std::allocator<CGuildCombat1to1Mng::__GC1TO1TENDER> >::const_iterator::const_iterator
_TEXT	ENDS
PUBLIC	??$_Destroy_range@KV?$allocator@K@std@@@std@@YAXPAK0AAV?$allocator@K@0@U_Scalar_ptr_iterator_tag@0@@Z ; std::_Destroy_range<unsigned long,std::allocator<unsigned long> >
; Function compile flags: /Ogty
; File c:\program files\microsoft visual studio .net 2003\vc7\include\xmemory
;	COMDAT ??$_Destroy_range@KV?$allocator@K@std@@@std@@YAXPAK0AAV?$allocator@K@0@U_Scalar_ptr_iterator_tag@0@@Z
_TEXT	SEGMENT
__First$ = 8						; size = 4
__Last$ = 12						; size = 4
__Al$ = 16						; size = 4
___formal$ = 20						; size = 1
??$_Destroy_range@KV?$allocator@K@std@@@std@@YAXPAK0AAV?$allocator@K@0@U_Scalar_ptr_iterator_tag@0@@Z PROC NEAR ; std::_Destroy_range<unsigned long,std::allocator<unsigned long> >, COMDAT

; 234  : 	}

  00000	c3		 ret	 0
??$_Destroy_range@KV?$allocator@K@std@@@std@@YAXPAK0AAV?$allocator@K@0@U_Scalar_ptr_iterator_tag@0@@Z ENDP ; std::_Destroy_range<unsigned long,std::allocator<unsigned long> >
_TEXT	ENDS
PUBLIC	??$_Ptr_cat@PAUD3DXVECTOR3@@PAU1@@std@@YA?AU_Nonscalar_ptr_iterator_tag@0@AAPAUD3DXVECTOR3@@0@Z ; std::_Ptr_cat<D3DXVECTOR3 *,D3DXVECTOR3 *>
; Function compile flags: /Ogty
; File c:\program files\microsoft visual studio .net 2003\vc7\include\xutility
;	COMDAT ??$_Ptr_cat@PAUD3DXVECTOR3@@PAU1@@std@@YA?AU_Nonscalar_ptr_iterator_tag@0@AAPAUD3DXVECTOR3@@0@Z
_TEXT	SEGMENT
__Cat$ = -1						; size = 1
___formal$ = 8						; size = 4
___formal$ = 12						; size = 4
??$_Ptr_cat@PAUD3DXVECTOR3@@PAU1@@std@@YA?AU_Nonscalar_ptr_iterator_tag@0@AAPAUD3DXVECTOR3@@0@Z PROC NEAR ; std::_Ptr_cat<D3DXVECTOR3 *,D3DXVECTOR3 *>, COMDAT

; 211  : 	{	// return pointer category from arbitrary arguments

  00000	51		 push	 ecx

; 212  : 	_Nonscalar_ptr_iterator_tag _Cat;
; 213  : 	return (_Cat);

  00001	8a 44 24 03	 mov	 al, BYTE PTR __Cat$[esp+4]

; 214  : 	}

  00005	59		 pop	 ecx
  00006	c3		 ret	 0
??$_Ptr_cat@PAUD3DXVECTOR3@@PAU1@@std@@YA?AU_Nonscalar_ptr_iterator_tag@0@AAPAUD3DXVECTOR3@@0@Z ENDP ; std::_Ptr_cat<D3DXVECTOR3 *,D3DXVECTOR3 *>
_TEXT	ENDS
PUBLIC	??$_Allocate@UENVIR_INFO@@@std@@YAPAUENVIR_INFO@@IPAU1@@Z ; std::_Allocate<ENVIR_INFO>
EXTRN	??2@YAPAXI@Z:NEAR				; operator new
; Function compile flags: /Ogty
; File c:\program files\microsoft visual studio .net 2003\vc7\include\xmemory
;	COMDAT ??$_Allocate@UENVIR_INFO@@@std@@YAPAUENVIR_INFO@@IPAU1@@Z
_TEXT	SEGMENT
__Count$ = 8						; size = 4
___formal$ = 12						; size = 4
??$_Allocate@UENVIR_INFO@@@std@@YAPAUENVIR_INFO@@IPAU1@@Z PROC NEAR ; std::_Allocate<ENVIR_INFO>, COMDAT

; 34   : 	return ((_Ty _FARQ *)operator new(_Count * sizeof (_Ty)));

  00000	8b 44 24 04	 mov	 eax, DWORD PTR __Count$[esp-4]
  00004	69 c0 ec 00 00
	00		 imul	 eax, 236		; 000000ecH
  0000a	50		 push	 eax
  0000b	e8 00 00 00 00	 call	 ??2@YAPAXI@Z		; operator new
  00010	83 c4 04	 add	 esp, 4

; 35   : 	}

  00013	c3		 ret	 0
??$_Allocate@UENVIR_INFO@@@std@@YAPAUENVIR_INFO@@IPAU1@@Z ENDP ; std::_Allocate<ENVIR_INFO>
_TEXT	ENDS
PUBLIC	??$_Allocate@PAVCObj@@@std@@YAPAPAVCObj@@IPAPAV1@@Z ; std::_Allocate<CObj *>
; Function compile flags: /Ogty
;	COMDAT ??$_Allocate@PAVCObj@@@std@@YAPAPAVCObj@@IPAPAV1@@Z
_TEXT	SEGMENT
__Count$ = 8						; size = 4
___formal$ = 12						; size = 4
??$_Allocate@PAVCObj@@@std@@YAPAPAVCObj@@IPAPAV1@@Z PROC NEAR ; std::_Allocate<CObj *>, COMDAT

; 34   : 	return ((_Ty _FARQ *)operator new(_Count * sizeof (_Ty)));

  00000	8b 44 24 04	 mov	 eax, DWORD PTR __Count$[esp-4]
  00004	8d 0c 85 00 00
	00 00		 lea	 ecx, DWORD PTR [eax*4]
  0000b	51		 push	 ecx
  0000c	e8 00 00 00 00	 call	 ??2@YAPAXI@Z		; operator new
  00011	83 c4 04	 add	 esp, 4

; 35   : 	}

  00014	c3		 ret	 0
??$_Allocate@PAVCObj@@@std@@YAPAPAVCObj@@IPAPAV1@@Z ENDP ; std::_Allocate<CObj *>
_TEXT	ENDS
PUBLIC	??$_Ptr_cat@PAUENVIR_INFO@@PAU1@@std@@YA?AU_Nonscalar_ptr_iterator_tag@0@AAPAUENVIR_INFO@@0@Z ; std::_Ptr_cat<ENVIR_INFO *,ENVIR_INFO *>
; Function compile flags: /Ogty
; File c:\program files\microsoft visual studio .net 2003\vc7\include\xutility
;	COMDAT ??$_Ptr_cat@PAUENVIR_INFO@@PAU1@@std@@YA?AU_Nonscalar_ptr_iterator_tag@0@AAPAUENVIR_INFO@@0@Z
_TEXT	SEGMENT
__Cat$ = -1						; size = 1
___formal$ = 8						; size = 4
___formal$ = 12						; size = 4
??$_Ptr_cat@PAUENVIR_INFO@@PAU1@@std@@YA?AU_Nonscalar_ptr_iterator_tag@0@AAPAUENVIR_INFO@@0@Z PROC NEAR ; std::_Ptr_cat<ENVIR_INFO *,ENVIR_INFO *>, COMDAT

; 211  : 	{	// return pointer category from arbitrary arguments

  00000	51		 push	 ecx

; 212  : 	_Nonscalar_ptr_iterator_tag _Cat;
; 213  : 	return (_Cat);

  00001	8a 44 24 03	 mov	 al, BYTE PTR __Cat$[esp+4]

; 214  : 	}

  00005	59		 pop	 ecx
  00006	c3		 ret	 0
??$_Ptr_cat@PAUENVIR_INFO@@PAU1@@std@@YA?AU_Nonscalar_ptr_iterator_tag@0@AAPAUENVIR_INFO@@0@Z ENDP ; std::_Ptr_cat<ENVIR_INFO *,ENVIR_INFO *>
_TEXT	ENDS
PUBLIC	??$_Ptr_cat@VCObj@@@std@@YA?AU_Scalar_ptr_iterator_tag@0@PAPAVCObj@@0@Z ; std::_Ptr_cat<CObj>
; Function compile flags: /Ogty
;	COMDAT ??$_Ptr_cat@VCObj@@@std@@YA?AU_Scalar_ptr_iterator_tag@0@PAPAVCObj@@0@Z
_TEXT	SEGMENT
__Cat$ = -1						; size = 1
___formal$ = 8						; size = 4
___formal$ = 12						; size = 4
??$_Ptr_cat@VCObj@@@std@@YA?AU_Scalar_ptr_iterator_tag@0@PAPAVCObj@@0@Z PROC NEAR ; std::_Ptr_cat<CObj>, COMDAT

; 218  : 	{	// return pointer category from pointer to pointer arguments

  00000	51		 push	 ecx

; 219  : 	_Scalar_ptr_iterator_tag _Cat;
; 220  : 	return (_Cat);

  00001	8a 44 24 03	 mov	 al, BYTE PTR __Cat$[esp+4]

; 221  : 	}

  00005	59		 pop	 ecx
  00006	c3		 ret	 0
??$_Ptr_cat@VCObj@@@std@@YA?AU_Scalar_ptr_iterator_tag@0@PAPAVCObj@@0@Z ENDP ; std::_Ptr_cat<CObj>
_TEXT	ENDS
PUBLIC	??$_Destroy_range@PAVCObj@@V?$allocator@PAVCObj@@@std@@@std@@YAXPAPAVCObj@@0AAV?$allocator@PAVCObj@@@0@U_Scalar_ptr_iterator_tag@0@@Z ; std::_Destroy_range<CObj *,std::allocator<CObj *> >
; Function compile flags: /Ogty
; File c:\program files\microsoft visual studio .net 2003\vc7\include\xmemory
;	COMDAT ??$_Destroy_range@PAVCObj@@V?$allocator@PAVCObj@@@std@@@std@@YAXPAPAVCObj@@0AAV?$allocator@PAVCObj@@@0@U_Scalar_ptr_iterator_tag@0@@Z
_TEXT	SEGMENT
__First$ = 8						; size = 4
__Last$ = 12						; size = 4
__Al$ = 16						; size = 4
___formal$ = 20						; size = 1
??$_Destroy_range@PAVCObj@@V?$allocator@PAVCObj@@@std@@@std@@YAXPAPAVCObj@@0AAV?$allocator@PAVCObj@@@0@U_Scalar_ptr_iterator_tag@0@@Z PROC NEAR ; std::_Destroy_range<CObj *,std::allocator<CObj *> >, COMDAT

; 234  : 	}

  00000	c3		 ret	 0
??$_Destroy_range@PAVCObj@@V?$allocator@PAVCObj@@@std@@@std@@YAXPAPAVCObj@@0AAV?$allocator@PAVCObj@@@0@U_Scalar_ptr_iterator_tag@0@@Z ENDP ; std::_Destroy_range<CObj *,std::allocator<CObj *> >
_TEXT	ENDS
PUBLIC	??$_Destroy@UD3DXVECTOR3@@@std@@YAXPAUD3DXVECTOR3@@@Z ; std::_Destroy<D3DXVECTOR3>
; Function compile flags: /Ogty
;	COMDAT ??$_Destroy@UD3DXVECTOR3@@@std@@YAXPAUD3DXVECTOR3@@@Z
_TEXT	SEGMENT
__Ptr$ = 8						; size = 4
??$_Destroy@UD3DXVECTOR3@@@std@@YAXPAUD3DXVECTOR3@@@Z PROC NEAR ; std::_Destroy<D3DXVECTOR3>, COMDAT

; 49   : 	_DESTRUCTOR(_Ty, _Ptr);
; 50   : 	}

  00000	c3		 ret	 0
??$_Destroy@UD3DXVECTOR3@@@std@@YAXPAUD3DXVECTOR3@@@Z ENDP ; std::_Destroy<D3DXVECTOR3>
_TEXT	ENDS
PUBLIC	?assign@?$char_traits@D@std@@SAXAADABD@Z	; std::char_traits<char>::assign
; Function compile flags: /Ogty
; File c:\program files\microsoft visual studio .net 2003\vc7\include\iosfwd
;	COMDAT ?assign@?$char_traits@D@std@@SAXAADABD@Z
_TEXT	SEGMENT
__Left$ = 8						; size = 4
__Right$ = 12						; size = 4
?assign@?$char_traits@D@std@@SAXAADABD@Z PROC NEAR	; std::char_traits<char>::assign, COMDAT

; 331  : 		_Left = _Right;

  00000	8b 44 24 08	 mov	 eax, DWORD PTR __Right$[esp-4]
  00004	8a 08		 mov	 cl, BYTE PTR [eax]
  00006	8b 54 24 04	 mov	 edx, DWORD PTR __Left$[esp-4]
  0000a	88 0a		 mov	 BYTE PTR [edx], cl

; 332  : 		}

  0000c	c3		 ret	 0
?assign@?$char_traits@D@std@@SAXAADABD@Z ENDP		; std::char_traits<char>::assign
_TEXT	ENDS
PUBLIC	?length@?$char_traits@D@std@@SAIPBD@Z		; std::char_traits<char>::length
; Function compile flags: /Ogty
;	COMDAT ?length@?$char_traits@D@std@@SAIPBD@Z
_TEXT	SEGMENT
__First$ = 8						; size = 4
?length@?$char_traits@D@std@@SAIPBD@Z PROC NEAR		; std::char_traits<char>::length, COMDAT

; 352  : 		return (::strlen(_First));

  00000	8b 44 24 04	 mov	 eax, DWORD PTR __First$[esp-4]
  00004	8d 50 01	 lea	 edx, DWORD PTR [eax+1]
$L269518:
  00007	8a 08		 mov	 cl, BYTE PTR [eax]
  00009	40		 inc	 eax
  0000a	84 c9		 test	 cl, cl
  0000c	75 f9		 jne	 SHORT $L269518
  0000e	2b c2		 sub	 eax, edx

; 353  : 		}

  00010	c3		 ret	 0
?length@?$char_traits@D@std@@SAIPBD@Z ENDP		; std::char_traits<char>::length
_TEXT	ENDS
PUBLIC	?copy@?$char_traits@D@std@@SAPADPADPBDI@Z	; std::char_traits<char>::copy
; Function compile flags: /Ogty
;	COMDAT ?copy@?$char_traits@D@std@@SAPADPADPBDI@Z
_TEXT	SEGMENT
__First1$ = 8						; size = 4
__First2$ = 12						; size = 4
__Count$ = 16						; size = 4
?copy@?$char_traits@D@std@@SAPADPADPBDI@Z PROC NEAR	; std::char_traits<char>::copy, COMDAT

; 358  : 		return ((_Elem *)::memcpy(_First1, _First2, _Count));

  00000	8b 4c 24 0c	 mov	 ecx, DWORD PTR __Count$[esp-4]
  00004	56		 push	 esi
  00005	8b 74 24 0c	 mov	 esi, DWORD PTR __First2$[esp]
  00009	57		 push	 edi
  0000a	8b 7c 24 0c	 mov	 edi, DWORD PTR __First1$[esp+4]
  0000e	8b c1		 mov	 eax, ecx
  00010	8b d7		 mov	 edx, edi
  00012	c1 e9 02	 shr	 ecx, 2
  00015	f3 a5		 rep movsd
  00017	8b c8		 mov	 ecx, eax
  00019	83 e1 03	 and	 ecx, 3
  0001c	f3 a4		 rep movsb
  0001e	5f		 pop	 edi
  0001f	8b c2		 mov	 eax, edx
  00021	5e		 pop	 esi

; 359  : 		}

  00022	c3		 ret	 0
?copy@?$char_traits@D@std@@SAPADPADPBDI@Z ENDP		; std::char_traits<char>::copy
_TEXT	ENDS
PUBLIC	?move@?$char_traits@D@std@@SAPADPADPBDI@Z	; std::char_traits<char>::move
EXTRN	_memmove:NEAR
; Function compile flags: /Ogty
;	COMDAT ?move@?$char_traits@D@std@@SAPADPADPBDI@Z
_TEXT	SEGMENT
__First1$ = 8						; size = 4
__First2$ = 12						; size = 4
__Count$ = 16						; size = 4
?move@?$char_traits@D@std@@SAPADPADPBDI@Z PROC NEAR	; std::char_traits<char>::move, COMDAT

; 370  : 		return ((_Elem *)::memmove(_First1, _First2, _Count));

  00000	e9 00 00 00 00	 jmp	 _memmove
?move@?$char_traits@D@std@@SAPADPADPBDI@Z ENDP		; std::char_traits<char>::move
_TEXT	ENDS
PUBLIC	?_Ptr_cat@std@@YA?AU_Scalar_ptr_iterator_tag@1@PAK0@Z ; std::_Ptr_cat
; Function compile flags: /Ogty
; File c:\program files\microsoft visual studio .net 2003\vc7\include\xutility
;	COMDAT ?_Ptr_cat@std@@YA?AU_Scalar_ptr_iterator_tag@1@PAK0@Z
_TEXT	SEGMENT
__Cat$ = -1						; size = 1
___formal$ = 8						; size = 4
___formal$ = 12						; size = 4
?_Ptr_cat@std@@YA?AU_Scalar_ptr_iterator_tag@1@PAK0@Z PROC NEAR ; std::_Ptr_cat, COMDAT

; 371  : 	{	// return pointer category from pointer to unsigned long arguments

  00000	51		 push	 ecx

; 372  : 	_Scalar_ptr_iterator_tag _Cat;
; 373  : 	return (_Cat);

  00001	8a 44 24 03	 mov	 al, BYTE PTR __Cat$[esp+4]

; 374  : 	}

  00005	59		 pop	 ecx
  00006	c3		 ret	 0
?_Ptr_cat@std@@YA?AU_Scalar_ptr_iterator_tag@1@PAK0@Z ENDP ; std::_Ptr_cat
_TEXT	ENDS
PUBLIC	??0D3DXVECTOR3@@QAE@XZ				; D3DXVECTOR3::D3DXVECTOR3
; Function compile flags: /Ogty
; File c:\documents and settings\test\mes documents\source\virtuos_v17\build\program\dx_sdk\d3dx9math.h
;	COMDAT ??0D3DXVECTOR3@@QAE@XZ
_TEXT	SEGMENT
??0D3DXVECTOR3@@QAE@XZ PROC NEAR			; D3DXVECTOR3::D3DXVECTOR3, COMDAT
; _this$ = ecx

; 165  :     D3DXVECTOR3() {};

  00000	8b c1		 mov	 eax, ecx
  00002	c3		 ret	 0
??0D3DXVECTOR3@@QAE@XZ ENDP				; D3DXVECTOR3::D3DXVECTOR3
_TEXT	ENDS
PUBLIC	??0D3DXVECTOR3@@QAE@MMM@Z			; D3DXVECTOR3::D3DXVECTOR3
EXTRN	__fltused:NEAR
; Function compile flags: /Ogty
; File c:\documents and settings\test\mes documents\source\virtuos_v17\build\program\dx_sdk\d3dx9math.inl
;	COMDAT ??0D3DXVECTOR3@@QAE@MMM@Z
_TEXT	SEGMENT
_fx$ = 8						; size = 4
_fy$ = 12						; size = 4
_fz$ = 16						; size = 4
??0D3DXVECTOR3@@QAE@MMM@Z PROC NEAR			; D3DXVECTOR3::D3DXVECTOR3, COMDAT
; _this$ = ecx

; 300  :     x = fx;
; 301  :     y = fy;

  00000	8b 54 24 08	 mov	 edx, DWORD PTR _fy$[esp-4]
  00004	8b c1		 mov	 eax, ecx
  00006	8b 4c 24 04	 mov	 ecx, DWORD PTR _fx$[esp-4]
  0000a	89 08		 mov	 DWORD PTR [eax], ecx

; 302  :     z = fz;

  0000c	8b 4c 24 0c	 mov	 ecx, DWORD PTR _fz$[esp-4]
  00010	89 50 04	 mov	 DWORD PTR [eax+4], edx
  00013	89 48 08	 mov	 DWORD PTR [eax+8], ecx

; 303  : }

  00016	c2 0c 00	 ret	 12			; 0000000cH
??0D3DXVECTOR3@@QAE@MMM@Z ENDP				; D3DXVECTOR3::D3DXVECTOR3
_TEXT	ENDS
PUBLIC	??GD3DXVECTOR3@@QBE?AU0@ABU0@@Z			; D3DXVECTOR3::operator-
; Function compile flags: /Ogty
;	COMDAT ??GD3DXVECTOR3@@QBE?AU0@ABU0@@Z
_TEXT	SEGMENT
___$ReturnUdt$ = 8					; size = 4
_v$ = 12						; size = 4
??GD3DXVECTOR3@@QBE?AU0@ABU0@@Z PROC NEAR		; D3DXVECTOR3::operator-, COMDAT
; _this$ = ecx

; 383  :     return D3DXVECTOR3(x - v.x, y - v.y, z - v.z);

  00000	d9 41 08	 fld	 DWORD PTR [ecx+8]
  00003	8b 44 24 08	 mov	 eax, DWORD PTR _v$[esp-4]
  00007	d8 60 08	 fsub	 DWORD PTR [eax+8]
  0000a	d9 41 04	 fld	 DWORD PTR [ecx+4]
  0000d	d8 60 04	 fsub	 DWORD PTR [eax+4]
  00010	d9 01		 fld	 DWORD PTR [ecx]
  00012	d8 20		 fsub	 DWORD PTR [eax]
  00014	8b 44 24 04	 mov	 eax, DWORD PTR ___$ReturnUdt$[esp-4]
  00018	d9 18		 fstp	 DWORD PTR [eax]
  0001a	d9 58 04	 fstp	 DWORD PTR [eax+4]
  0001d	d9 58 08	 fstp	 DWORD PTR [eax+8]

; 384  : }

  00020	c2 08 00	 ret	 8
??GD3DXVECTOR3@@QBE?AU0@ABU0@@Z ENDP			; D3DXVECTOR3::operator-
_TEXT	ENDS
PUBLIC	__real@3f800000
PUBLIC	??KD3DXVECTOR3@@QBE?AU0@M@Z			; D3DXVECTOR3::operator/
;	COMDAT __real@3f800000
CONST	SEGMENT
__real@3f800000 DD 03f800000r			; 1
; Function compile flags: /Ogty
CONST	ENDS
;	COMDAT ??KD3DXVECTOR3@@QBE?AU0@M@Z
_TEXT	SEGMENT
___$ReturnUdt$ = 8					; size = 4
_fInv$ = 12						; size = 4
_f$ = 12						; size = 4
??KD3DXVECTOR3@@QBE?AU0@M@Z PROC NEAR			; D3DXVECTOR3::operator/, COMDAT
; _this$ = ecx

; 395  :     FLOAT fInv = 1.0f / f;

  00000	d9 05 00 00 00
	00		 fld	 DWORD PTR __real@3f800000

; 396  :     return D3DXVECTOR3(x * fInv, y * fInv, z * fInv);

  00006	8b 44 24 04	 mov	 eax, DWORD PTR ___$ReturnUdt$[esp-4]
  0000a	d8 74 24 08	 fdiv	 DWORD PTR _f$[esp-4]
  0000e	d9 54 24 08	 fst	 DWORD PTR _fInv$[esp-4]
  00012	d8 49 08	 fmul	 DWORD PTR [ecx+8]
  00015	d9 44 24 08	 fld	 DWORD PTR _fInv$[esp-4]
  00019	d8 49 04	 fmul	 DWORD PTR [ecx+4]
  0001c	d9 44 24 08	 fld	 DWORD PTR _fInv$[esp-4]
  00020	d8 09		 fmul	 DWORD PTR [ecx]
  00022	d9 18		 fstp	 DWORD PTR [eax]
  00024	d9 58 04	 fstp	 DWORD PTR [eax+4]
  00027	d9 58 08	 fstp	 DWORD PTR [eax+8]

; 397  : }

  0002a	c2 08 00	 ret	 8
??KD3DXVECTOR3@@QBE?AU0@M@Z ENDP			; D3DXVECTOR3::operator/
_TEXT	ENDS
PUBLIC	?D3DXVec3LengthSq@@YAMPBUD3DXVECTOR3@@@Z	; D3DXVec3LengthSq
; Function compile flags: /Ogty
;	COMDAT ?D3DXVec3LengthSq@@YAMPBUD3DXVECTOR3@@@Z
_TEXT	SEGMENT
_pV$ = 8						; size = 4
?D3DXVec3LengthSq@@YAMPBUD3DXVECTOR3@@@Z PROC NEAR	; D3DXVec3LengthSq, COMDAT

; 1693 : #ifdef D3DX_DEBUG
; 1694 :     if(!pV)
; 1695 :         return 0.0f;
; 1696 : #endif
; 1697 : 
; 1698 :     return pV->x * pV->x + pV->y * pV->y + pV->z * pV->z;

  00000	8b 44 24 04	 mov	 eax, DWORD PTR _pV$[esp-4]
  00004	d9 40 08	 fld	 DWORD PTR [eax+8]
  00007	d9 40 04	 fld	 DWORD PTR [eax+4]
  0000a	d9 00		 fld	 DWORD PTR [eax]
  0000c	d9 c0		 fld	 ST(0)
  0000e	d8 c9		 fmul	 ST(0), ST(1)
  00010	d9 c2		 fld	 ST(2)
  00012	d8 cb		 fmul	 ST(0), ST(3)
  00014	de c1		 faddp	 ST(1), ST(0)
  00016	d9 c3		 fld	 ST(3)
  00018	d8 cc		 fmul	 ST(0), ST(4)
  0001a	de c1		 faddp	 ST(1), ST(0)
  0001c	dd db		 fstp	 ST(3)
  0001e	dd d8		 fstp	 ST(0)
  00020	dd d8		 fstp	 ST(0)

; 1699 : }

  00022	c3		 ret	 0
?D3DXVec3LengthSq@@YAMPBUD3DXVECTOR3@@@Z ENDP		; D3DXVec3LengthSq
_TEXT	ENDS
PUBLIC	??_H@YGXPAXIHP6EPAX0@Z@Z			; `vector constructor iterator'
; Function compile flags: /Ogty
;	COMDAT ??_H@YGXPAXIHP6EPAX0@Z@Z
_TEXT	SEGMENT
___t$ = 8						; size = 4
___s$ = 12						; size = 4
___n$ = 16						; size = 4
___f$ = 20						; size = 4
??_H@YGXPAXIHP6EPAX0@Z@Z PROC NEAR			; `vector constructor iterator', COMDAT
  00000	8b 44 24 0c	 mov	 eax, DWORD PTR ___n$[esp-4]
  00004	48		 dec	 eax
  00005	78 26		 js	 SHORT $L171564
  00007	53		 push	 ebx
  00008	8b 5c 24 14	 mov	 ebx, DWORD PTR ___f$[esp]
  0000c	55		 push	 ebp
  0000d	8b 6c 24 10	 mov	 ebp, DWORD PTR ___s$[esp+4]
  00011	56		 push	 esi
  00012	8b 74 24 10	 mov	 esi, DWORD PTR ___t$[esp+8]
  00016	57		 push	 edi
  00017	8d 78 01	 lea	 edi, DWORD PTR [eax+1]
  0001a	8d 9b 00 00 00
	00		 npad	 6
$L171563:
  00020	8b ce		 mov	 ecx, esi
  00022	ff d3		 call	 ebx
  00024	03 f5		 add	 esi, ebp
  00026	4f		 dec	 edi
  00027	75 f7		 jne	 SHORT $L171563
  00029	5f		 pop	 edi
  0002a	5e		 pop	 esi
  0002b	5d		 pop	 ebp
  0002c	5b		 pop	 ebx
$L171564:
  0002d	c2 10 00	 ret	 16			; 00000010H
??_H@YGXPAXIHP6EPAX0@Z@Z ENDP				; `vector constructor iterator'
_TEXT	ENDS
PUBLIC	?IsVirtual@CObj@@QAEHXZ				; CObj::IsVirtual
; Function compile flags: /Ogty
; File c:\documents and settings\test\mes documents\source\virtuos_v17\build\program\_common\obj.h
;	COMDAT ?IsVirtual@CObj@@QAEHXZ
_TEXT	SEGMENT
?IsVirtual@CObj@@QAEHXZ PROC NEAR			; CObj::IsVirtual, COMDAT
; _this$ = ecx

; 178  : 	BOOL			IsVirtual() { return (m_dwFlags & OBJ_FLAG_VIRTUAL);  } 

  00000	8b 41 04	 mov	 eax, DWORD PTR [ecx+4]
  00003	83 e0 04	 and	 eax, 4
  00006	c3		 ret	 0
?IsVirtual@CObj@@QAEHXZ ENDP				; CObj::IsVirtual
_TEXT	ENDS
PUBLIC	?IsDelete@CObj@@QAEHXZ				; CObj::IsDelete
; Function compile flags: /Ogty
;	COMDAT ?IsDelete@CObj@@QAEHXZ
_TEXT	SEGMENT
?IsDelete@CObj@@QAEHXZ PROC NEAR			; CObj::IsDelete, COMDAT
; _this$ = ecx

; 180  : 	BOOL			IsDelete()	{ return (m_dwFlags & OBJ_FLAG_DELETE);  }

  00000	8b 41 04	 mov	 eax, DWORD PTR [ecx+4]
  00003	83 e0 01	 and	 eax, 1
  00006	c3		 ret	 0
?IsDelete@CObj@@QAEHXZ ENDP				; CObj::IsDelete
_TEXT	ENDS
PUBLIC	?GetNextNode@CObj@@QAEPAV1@XZ			; CObj::GetNextNode
; Function compile flags: /Ogty
;	COMDAT ?GetNextNode@CObj@@QAEPAV1@XZ
_TEXT	SEGMENT
?GetNextNode@CObj@@QAEPAV1@XZ PROC NEAR			; CObj::GetNextNode, COMDAT
; _this$ = ecx

; 195  : 	CObj*			GetNextNode() { return m_pNext; }

  00000	8b 81 80 01 00
	00		 mov	 eax, DWORD PTR [ecx+384]
  00006	c3		 ret	 0
?GetNextNode@CObj@@QAEPAV1@XZ ENDP			; CObj::GetNextNode
_TEXT	ENDS
PUBLIC	?GetLinkLevel@CObj@@QAEKXZ			; CObj::GetLinkLevel
; Function compile flags: /Ogty
;	COMDAT ?GetLinkLevel@CObj@@QAEKXZ
_TEXT	SEGMENT
?GetLinkLevel@CObj@@QAEKXZ PROC NEAR			; CObj::GetLinkLevel, COMDAT
; _this$ = ecx

; 199  : 	DWORD			GetLinkLevel() { return m_dwLinkLevel; }

  00000	8b 41 08	 mov	 eax, DWORD PTR [ecx+8]
  00003	c3		 ret	 0
?GetLinkLevel@CObj@@QAEKXZ ENDP				; CObj::GetLinkLevel
_TEXT	ENDS
PUBLIC	?GetType@CObj@@QAEKXZ				; CObj::GetType
; Function compile flags: /Ogty
;	COMDAT ?GetType@CObj@@QAEKXZ
_TEXT	SEGMENT
?GetType@CObj@@QAEKXZ PROC NEAR				; CObj::GetType, COMDAT
; _this$ = ecx

; 206  : 	DWORD			GetType() { return m_dwType; }

  00000	8b 81 70 01 00
	00		 mov	 eax, DWORD PTR [ecx+368]
  00006	c3		 ret	 0
?GetType@CObj@@QAEKXZ ENDP				; CObj::GetType
_TEXT	ENDS
PUBLIC	?GetIndex@CObj@@QAEKXZ				; CObj::GetIndex
; Function compile flags: /Ogty
;	COMDAT ?GetIndex@CObj@@QAEKXZ
_TEXT	SEGMENT
?GetIndex@CObj@@QAEKXZ PROC NEAR			; CObj::GetIndex, COMDAT
; _this$ = ecx

; 207  : 	DWORD			GetIndex() { return m_dwIndex; }

  00000	8b 81 74 01 00
	00		 mov	 eax, DWORD PTR [ecx+372]
  00006	c3		 ret	 0
?GetIndex@CObj@@QAEKXZ ENDP				; CObj::GetIndex
_TEXT	ENDS
PUBLIC	?GetPos@CObj@@QAE?AUD3DXVECTOR3@@XZ		; CObj::GetPos
; Function compile flags: /Ogty
;	COMDAT ?GetPos@CObj@@QAE?AUD3DXVECTOR3@@XZ
_TEXT	SEGMENT
___$ReturnUdt$ = 8					; size = 4
?GetPos@CObj@@QAE?AUD3DXVECTOR3@@XZ PROC NEAR		; CObj::GetPos, COMDAT
; _this$ = ecx

; 215  : 	D3DXVECTOR3		GetPos()	{ return m_vPos; }

  00000	8b 44 24 04	 mov	 eax, DWORD PTR ___$ReturnUdt$[esp-4]
  00004	81 c1 60 01 00
	00		 add	 ecx, 352		; 00000160H
  0000a	56		 push	 esi
  0000b	8b 31		 mov	 esi, DWORD PTR [ecx]
  0000d	8b d0		 mov	 edx, eax
  0000f	89 32		 mov	 DWORD PTR [edx], esi
  00011	8b 71 04	 mov	 esi, DWORD PTR [ecx+4]
  00014	89 72 04	 mov	 DWORD PTR [edx+4], esi
  00017	8b 49 08	 mov	 ecx, DWORD PTR [ecx+8]
  0001a	89 4a 08	 mov	 DWORD PTR [edx+8], ecx
  0001d	5e		 pop	 esi
  0001e	c2 04 00	 ret	 4
?GetPos@CObj@@QAE?AUD3DXVECTOR3@@XZ ENDP		; CObj::GetPos
_TEXT	ENDS
PUBLIC	?GetWorld@CObj@@QAEPAVCWorld@@XZ		; CObj::GetWorld
; Function compile flags: /Ogty
;	COMDAT ?GetWorld@CObj@@QAEPAVCWorld@@XZ
_TEXT	SEGMENT
?GetWorld@CObj@@QAEPAVCWorld@@XZ PROC NEAR		; CObj::GetWorld, COMDAT
; _this$ = ecx

; 221  : 	CWorld*			GetWorld()	{ return m_pWorld; }

  00000	8b 81 6c 01 00
	00		 mov	 eax, DWORD PTR [ecx+364]
  00006	c3		 ret	 0
?GetWorld@CObj@@QAEPAVCWorld@@XZ ENDP			; CObj::GetWorld
_TEXT	ENDS
PUBLIC	?IsDynamicObj@CObj@@QAEHXZ			; CObj::IsDynamicObj
; Function compile flags: /Ogty
;	COMDAT ?IsDynamicObj@CObj@@QAEHXZ
_TEXT	SEGMENT
?IsDynamicObj@CObj@@QAEHXZ PROC NEAR			; CObj::IsDynamicObj, COMDAT
; _this$ = ecx

; 226  : 	BOOL			IsDynamicObj()			{ return m_dwType != OT_OBJ && m_dwType != OT_SFX; }

  00000	8b 81 70 01 00
	00		 mov	 eax, DWORD PTR [ecx+368]
  00006	85 c0		 test	 eax, eax
  00008	74 0b		 je	 SHORT $L269591
  0000a	83 f8 03	 cmp	 eax, 3
  0000d	74 06		 je	 SHORT $L269591
  0000f	b8 01 00 00 00	 mov	 eax, 1
  00014	c3		 ret	 0
$L269591:
  00015	33 c0		 xor	 eax, eax
  00017	c3		 ret	 0
?IsDynamicObj@CObj@@QAEHXZ ENDP				; CObj::IsDynamicObj
_TEXT	ENDS
PUBLIC	?GetLinkPos@CObj@@QAE?AUD3DXVECTOR3@@XZ		; CObj::GetLinkPos
; Function compile flags: /Ogty
;	COMDAT ?GetLinkPos@CObj@@QAE?AUD3DXVECTOR3@@XZ
_TEXT	SEGMENT
___$ReturnUdt$ = 8					; size = 4
?GetLinkPos@CObj@@QAE?AUD3DXVECTOR3@@XZ PROC NEAR	; CObj::GetLinkPos, COMDAT
; _this$ = ecx

; 238  : 	D3DXVECTOR3		GetLinkPos()							{	return m_vLink;	}

  00000	8b 44 24 04	 mov	 eax, DWORD PTR ___$ReturnUdt$[esp-4]
  00004	81 c1 ac 01 00
	00		 add	 ecx, 428		; 000001acH
  0000a	56		 push	 esi
  0000b	8b 31		 mov	 esi, DWORD PTR [ecx]
  0000d	8b d0		 mov	 edx, eax
  0000f	89 32		 mov	 DWORD PTR [edx], esi
  00011	8b 71 04	 mov	 esi, DWORD PTR [ecx+4]
  00014	89 72 04	 mov	 DWORD PTR [edx+4], esi
  00017	8b 49 08	 mov	 ecx, DWORD PTR [ecx+8]
  0001a	89 4a 08	 mov	 DWORD PTR [edx+8], ecx
  0001d	5e		 pop	 esi
  0001e	c2 04 00	 ret	 4
?GetLinkPos@CObj@@QAE?AUD3DXVECTOR3@@XZ ENDP		; CObj::GetLinkPos
_TEXT	ENDS
PUBLIC	?GetRemovalPos@CObj@@QAE?AUD3DXVECTOR3@@XZ	; CObj::GetRemovalPos
; Function compile flags: /Ogty
;	COMDAT ?GetRemovalPos@CObj@@QAE?AUD3DXVECTOR3@@XZ
_TEXT	SEGMENT
___$ReturnUdt$ = 8					; size = 4
?GetRemovalPos@CObj@@QAE?AUD3DXVECTOR3@@XZ PROC NEAR	; CObj::GetRemovalPos, COMDAT
; _this$ = ecx

; 239  : 	D3DXVECTOR3		GetRemovalPos()							{	return m_vRemoval;	}

  00000	8b 44 24 04	 mov	 eax, DWORD PTR ___$ReturnUdt$[esp-4]
  00004	81 c1 a0 01 00
	00		 add	 ecx, 416		; 000001a0H
  0000a	56		 push	 esi
  0000b	8b 31		 mov	 esi, DWORD PTR [ecx]
  0000d	8b d0		 mov	 edx, eax
  0000f	89 32		 mov	 DWORD PTR [edx], esi
  00011	8b 71 04	 mov	 esi, DWORD PTR [ecx+4]
  00014	89 72 04	 mov	 DWORD PTR [edx+4], esi
  00017	8b 49 08	 mov	 ecx, DWORD PTR [ecx+8]
  0001a	89 4a 08	 mov	 DWORD PTR [edx+8], ecx
  0001d	5e		 pop	 esi
  0001e	c2 04 00	 ret	 4
?GetRemovalPos@CObj@@QAE?AUD3DXVECTOR3@@XZ ENDP		; CObj::GetRemovalPos
_TEXT	ENDS
PUBLIC	?SetLinkPos@CObj@@QAEXABUD3DXVECTOR3@@@Z	; CObj::SetLinkPos
; Function compile flags: /Ogty
;	COMDAT ?SetLinkPos@CObj@@QAEXABUD3DXVECTOR3@@@Z
_TEXT	SEGMENT
_vPos$ = 8						; size = 4
?SetLinkPos@CObj@@QAEXABUD3DXVECTOR3@@@Z PROC NEAR	; CObj::SetLinkPos, COMDAT
; _this$ = ecx

; 240  : 	void			SetLinkPos( const D3DXVECTOR3 & vPos )		{	m_vLink		= vPos;	}

  00000	8b 44 24 04	 mov	 eax, DWORD PTR _vPos$[esp-4]
  00004	8b 10		 mov	 edx, DWORD PTR [eax]
  00006	81 c1 ac 01 00
	00		 add	 ecx, 428		; 000001acH
  0000c	89 11		 mov	 DWORD PTR [ecx], edx
  0000e	8b 50 04	 mov	 edx, DWORD PTR [eax+4]
  00011	89 51 04	 mov	 DWORD PTR [ecx+4], edx
  00014	8b 40 08	 mov	 eax, DWORD PTR [eax+8]
  00017	89 41 08	 mov	 DWORD PTR [ecx+8], eax
  0001a	c2 04 00	 ret	 4
?SetLinkPos@CObj@@QAEXABUD3DXVECTOR3@@@Z ENDP		; CObj::SetLinkPos
_TEXT	ENDS
PUBLIC	?SetRemovalPos@CObj@@QAEXABUD3DXVECTOR3@@@Z	; CObj::SetRemovalPos
; Function compile flags: /Ogty
;	COMDAT ?SetRemovalPos@CObj@@QAEXABUD3DXVECTOR3@@@Z
_TEXT	SEGMENT
_vPos$ = 8						; size = 4
?SetRemovalPos@CObj@@QAEXABUD3DXVECTOR3@@@Z PROC NEAR	; CObj::SetRemovalPos, COMDAT
; _this$ = ecx

; 241  : 	void			SetRemovalPos( const D3DXVECTOR3 & vPos )	{	m_vRemoval	= vPos;	}

  00000	8b 44 24 04	 mov	 eax, DWORD PTR _vPos$[esp-4]
  00004	8b 10		 mov	 edx, DWORD PTR [eax]
  00006	81 c1 a0 01 00
	00		 add	 ecx, 416		; 000001a0H
  0000c	89 11		 mov	 DWORD PTR [ecx], edx
  0000e	8b 50 04	 mov	 edx, DWORD PTR [eax+4]
  00011	89 51 04	 mov	 DWORD PTR [ecx+4], edx
  00014	8b 40 08	 mov	 eax, DWORD PTR [eax+8]
  00017	89 41 08	 mov	 DWORD PTR [ecx+8], eax
  0001a	c2 04 00	 ret	 4
?SetRemovalPos@CObj@@QAEXABUD3DXVECTOR3@@@Z ENDP	; CObj::SetRemovalPos
_TEXT	ENDS
PUBLIC	?SetLayer@CObj@@QAEXH@Z				; CObj::SetLayer
; Function compile flags: /Ogty
;	COMDAT ?SetLayer@CObj@@QAEXH@Z
_TEXT	SEGMENT
_nLayer$ = 8						; size = 4
?SetLayer@CObj@@QAEXH@Z PROC NEAR			; CObj::SetLayer, COMDAT
; _this$ = ecx

; 246  : 	void	SetLayer( int nLayer )	{	m_nLayer	= nLayer;	}

  00000	8b 44 24 04	 mov	 eax, DWORD PTR _nLayer$[esp-4]
  00004	89 81 b8 01 00
	00		 mov	 DWORD PTR [ecx+440], eax
  0000a	c2 04 00	 ret	 4
?SetLayer@CObj@@QAEXH@Z ENDP				; CObj::SetLayer
_TEXT	ENDS
PUBLIC	?GetLayer@CObj@@QAEHXZ				; CObj::GetLayer
; Function compile flags: /Ogty
;	COMDAT ?GetLayer@CObj@@QAEHXZ
_TEXT	SEGMENT
?GetLayer@CObj@@QAEHXZ PROC NEAR			; CObj::GetLayer, COMDAT
; _this$ = ecx

; 247  : 	int		GetLayer()	{	return m_nLayer;	}

  00000	8b 81 b8 01 00
	00		 mov	 eax, DWORD PTR [ecx+440]
  00006	c3		 ret	 0
?GetLayer@CObj@@QAEHXZ ENDP				; CObj::GetLayer
_TEXT	ENDS
PUBLIC	?SetFlag@CObj@@AAEXHK@Z				; CObj::SetFlag
; Function compile flags: /Ogty
;	COMDAT ?SetFlag@CObj@@AAEXHK@Z
_TEXT	SEGMENT
_bUpdate$ = 8						; size = 4
_dwValue$ = 12						; size = 4
?SetFlag@CObj@@AAEXHK@Z PROC NEAR			; CObj::SetFlag, COMDAT
; _this$ = ecx

; 272  : 	if( bUpdate )

  00000	8b 44 24 04	 mov	 eax, DWORD PTR _bUpdate$[esp-4]
  00004	85 c0		 test	 eax, eax
  00006	74 0f		 je	 SHORT $L176539

; 273  : 		m_dwFlags |= dwValue;

  00008	8b 51 04	 mov	 edx, DWORD PTR [ecx+4]
  0000b	8b 44 24 08	 mov	 eax, DWORD PTR _dwValue$[esp-4]
  0000f	0b d0		 or	 edx, eax
  00011	89 51 04	 mov	 DWORD PTR [ecx+4], edx

; 276  : }

  00014	c2 08 00	 ret	 8
$L176539:

; 274  : 	else
; 275  : 		m_dwFlags &= (~dwValue);

  00017	8b 54 24 08	 mov	 edx, DWORD PTR _dwValue$[esp-4]
  0001b	8b 41 04	 mov	 eax, DWORD PTR [ecx+4]
  0001e	f7 d2		 not	 edx
  00020	23 c2		 and	 eax, edx
  00022	89 41 04	 mov	 DWORD PTR [ecx+4], eax

; 276  : }

  00025	c2 08 00	 ret	 8
?SetFlag@CObj@@AAEXHK@Z ENDP				; CObj::SetFlag
_TEXT	ENDS
PUBLIC	?IsValidObj@@YAHPAVCObj@@@Z			; IsValidObj
; Function compile flags: /Ogty
;	COMDAT ?IsValidObj@@YAHPAVCObj@@@Z
_TEXT	SEGMENT
_pObj$ = 8						; size = 4
?IsValidObj@@YAHPAVCObj@@@Z PROC NEAR			; IsValidObj, COMDAT

; 327  : 	return pObj && ( pObj->IsDelete() == FALSE ); 

  00000	8b 44 24 04	 mov	 eax, DWORD PTR _pObj$[esp-4]
  00004	85 c0		 test	 eax, eax
  00006	74 0c		 je	 SHORT $L269617
  00008	f6 40 04 01	 test	 BYTE PTR [eax+4], 1
  0000c	75 06		 jne	 SHORT $L269617
  0000e	b8 01 00 00 00	 mov	 eax, 1

; 328  : }

  00013	c3		 ret	 0
$L269617:

; 327  : 	return pObj && ( pObj->IsDelete() == FALSE ); 

  00014	33 c0		 xor	 eax, eax

; 328  : }

  00016	c3		 ret	 0
?IsValidObj@@YAHPAVCObj@@@Z ENDP			; IsValidObj
_TEXT	ENDS
PUBLIC	?IsInvalidObj@@YAHPAVCObj@@@Z			; IsInvalidObj
; Function compile flags: /Ogty
;	COMDAT ?IsInvalidObj@@YAHPAVCObj@@@Z
_TEXT	SEGMENT
_pObj$ = 8						; size = 4
?IsInvalidObj@@YAHPAVCObj@@@Z PROC NEAR			; IsInvalidObj, COMDAT

; 332  : 	return !IsValidObj( pObj ); 

  00000	8b 44 24 04	 mov	 eax, DWORD PTR _pObj$[esp-4]
  00004	85 c0		 test	 eax, eax
  00006	74 15		 je	 SHORT $L269632
  00008	f6 40 04 01	 test	 BYTE PTR [eax+4], 1
  0000c	75 0f		 jne	 SHORT $L269632
  0000e	b8 01 00 00 00	 mov	 eax, 1
  00013	33 c9		 xor	 ecx, ecx
  00015	85 c0		 test	 eax, eax
  00017	0f 94 c1	 sete	 cl
  0001a	8b c1		 mov	 eax, ecx

; 333  : }

  0001c	c3		 ret	 0

; 332  : 	return !IsValidObj( pObj ); 

$L269632:
  0001d	33 c0		 xor	 eax, eax
  0001f	33 c9		 xor	 ecx, ecx
  00021	85 c0		 test	 eax, eax
  00023	0f 94 c1	 sete	 cl
  00026	8b c1		 mov	 eax, ecx

; 333  : }

  00028	c3		 ret	 0
?IsInvalidObj@@YAHPAVCObj@@@Z ENDP			; IsInvalidObj
_TEXT	ENDS
PUBLIC	?GetId@CCtrl@@QAEKXZ				; CCtrl::GetId
; Function compile flags: /Ogty
; File c:\documents and settings\test\mes documents\source\virtuos_v17\build\program\_common\ctrl.h
;	COMDAT ?GetId@CCtrl@@QAEKXZ
_TEXT	SEGMENT
?GetId@CCtrl@@QAEKXZ PROC NEAR				; CCtrl::GetId, COMDAT
; _this$ = ecx

; 58   : 	OBJID			GetId()					{ return m_objid;   }

  00000	8b 81 bc 01 00
	00		 mov	 eax, DWORD PTR [ecx+444]
  00006	c3		 ret	 0
?GetId@CCtrl@@QAEKXZ ENDP				; CCtrl::GetId
_TEXT	ENDS
PUBLIC	?LOG_RANGE@@YAXPBDHHH@Z				; LOG_RANGE
PUBLIC	??_C@_0BM@HMFGHCP@?$CFs?5min?3?$CFd?0?5max?3?$CFd?0?5index?3?$CFd?$AA@ ; `string'
EXTRN	?Error@@YAPBDPBDZZ:NEAR				; Error
;	COMDAT ??_C@_0BM@HMFGHCP@?$CFs?5min?3?$CFd?0?5max?3?$CFd?0?5index?3?$CFd?$AA@
; File c:\documents and settings\test\mes documents\source\virtuos_v17\build\program\_common\project.h
CONST	SEGMENT
??_C@_0BM@HMFGHCP@?$CFs?5min?3?$CFd?0?5max?3?$CFd?0?5index?3?$CFd?$AA@ DB '%'
	DB	's min:%d, max:%d, index:%d', 00H		; `string'
; Function compile flags: /Ogty
CONST	ENDS
;	COMDAT ?LOG_RANGE@@YAXPBDHHH@Z
_TEXT	SEGMENT
_szMsg$ = 8						; size = 4
_nMin$ = 12						; size = 4
_nMax$ = 16						; size = 4
_nIndex$ = 20						; size = 4
?LOG_RANGE@@YAXPBDHHH@Z PROC NEAR			; LOG_RANGE, COMDAT

; 559  : 	LPCTSTR szErr = Error( _T( "%s min:%d, max:%d, index:%d" ), szMsg, nMin, nMax, nIndex ); 

  00000	8b 44 24 10	 mov	 eax, DWORD PTR _nIndex$[esp-4]
  00004	8b 4c 24 0c	 mov	 ecx, DWORD PTR _nMax$[esp-4]
  00008	8b 54 24 08	 mov	 edx, DWORD PTR _nMin$[esp-4]
  0000c	50		 push	 eax
  0000d	8b 44 24 08	 mov	 eax, DWORD PTR _szMsg$[esp]
  00011	51		 push	 ecx
  00012	52		 push	 edx
  00013	50		 push	 eax
  00014	68 00 00 00 00	 push	 OFFSET FLAT:??_C@_0BM@HMFGHCP@?$CFs?5min?3?$CFd?0?5max?3?$CFd?0?5index?3?$CFd?$AA@
  00019	e8 00 00 00 00	 call	 ?Error@@YAPBDPBDZZ	; Error
  0001e	83 c4 14	 add	 esp, 20			; 00000014H

; 560  : 	ADDERRORMSG( szErr ); 
; 561  : }

  00021	c3		 ret	 0
?LOG_RANGE@@YAXPBDHHH@Z ENDP				; LOG_RANGE
_TEXT	ENDS
PUBLIC	?LOG_CALLSTACK@@YAXXZ				; LOG_CALLSTACK
; Function compile flags: /Ogty
;	COMDAT ?LOG_CALLSTACK@@YAXXZ
_TEXT	SEGMENT
?LOG_CALLSTACK@@YAXXZ PROC NEAR				; LOG_CALLSTACK, COMDAT

; 565  : #ifdef _DEBUG
; 566  : 	__asm int 3
; 567  : #endif
; 568  : 
; 569  : #if defined(__INTERNALSERVER)
; 570  : 	int *p = NULL;		//    
; 571  : 	*p = 1;
; 572  : #endif
; 573  : }

  00000	c3		 ret	 0
?LOG_CALLSTACK@@YAXXZ ENDP				; LOG_CALLSTACK
_TEXT	ENDS
PUBLIC	?IsDie@CAction@@QAEHXZ				; CAction::IsDie
; Function compile flags: /Ogty
; File c:\documents and settings\test\mes documents\source\virtuos_v17\build\program\_aiinterface\action.h
;	COMDAT ?IsDie@CAction@@QAEHXZ
_TEXT	SEGMENT
?IsDie@CAction@@QAEHXZ PROC NEAR			; CAction::IsDie, COMDAT
; _this$ = ecx

; 310  : 	BOOL			IsDie() { return (m_dwState & OBJSTA_DIE_ALL) ? TRUE : FALSE; }

  00000	8b 41 04	 mov	 eax, DWORD PTR [ecx+4]
  00003	c1 e8 1b	 shr	 eax, 27			; 0000001bH
  00006	83 e0 01	 and	 eax, 1
  00009	c3		 ret	 0
?IsDie@CAction@@QAEHXZ ENDP				; CAction::IsDie
_TEXT	ENDS
PUBLIC	?SendDamage@CActionMover@@QAEHKKHHH@Z		; CActionMover::SendDamage
; Function compile flags: /Ogty
; File c:\documents and settings\test\mes documents\source\virtuos_v17\build\program\_aiinterface\actionmover.h
;	COMDAT ?SendDamage@CActionMover@@QAEHKKHHH@Z
_TEXT	SEGMENT
_dwAtkFlags$ = 8					; size = 4
_idSender$ = 12						; size = 4
_nParam$ = 16						; size = 4
_bTarget$ = 20						; size = 4
_nReflect$ = 24						; size = 4
?SendDamage@CActionMover@@QAEHKKHHH@Z PROC NEAR		; CActionMover::SendDamage, COMDAT
; _this$ = ecx

; 134  : 	int				SendDamage( DWORD dwAtkFlags, OBJID idSender, int nParam = 0, BOOL bTarget = TRUE, int nReflect = 0 )	{	return SendActMsg( OBJMSG_DAMAGE, dwAtkFlags, idSender, nParam, bTarget, nReflect );	}

  00000	8b 54 24 14	 mov	 edx, DWORD PTR _nReflect$[esp-4]
  00004	8b 01		 mov	 eax, DWORD PTR [ecx]
  00006	52		 push	 edx
  00007	8b 54 24 14	 mov	 edx, DWORD PTR _bTarget$[esp]
  0000b	52		 push	 edx
  0000c	8b 54 24 14	 mov	 edx, DWORD PTR _nParam$[esp+4]
  00010	52		 push	 edx
  00011	8b 54 24 14	 mov	 edx, DWORD PTR _idSender$[esp+8]
  00015	52		 push	 edx
  00016	8b 54 24 14	 mov	 edx, DWORD PTR _dwAtkFlags$[esp+12]
  0001a	52		 push	 edx
  0001b	6a 29		 push	 41			; 00000029H
  0001d	ff 50 04	 call	 DWORD PTR [eax+4]
  00020	c2 14 00	 ret	 20			; 00000014H
?SendDamage@CActionMover@@QAEHKKHHH@Z ENDP		; CActionMover::SendDamage
_TEXT	ENDS
PUBLIC	?IsPlayer@CMover@@QAEHXZ			; CMover::IsPlayer
; Function compile flags: /Ogty
; File c:\documents and settings\test\mes documents\source\virtuos_v17\build\program\_common\mover.h
;	COMDAT ?IsPlayer@CMover@@QAEHXZ
_TEXT	SEGMENT
?IsPlayer@CMover@@QAEHXZ PROC NEAR			; CMover::IsPlayer, COMDAT
; _this$ = ecx

; 1042 : 	BOOL			IsPlayer()			{ return m_bPlayer; }

  00000	8b 81 34 02 00
	00		 mov	 eax, DWORD PTR [ecx+564]
  00006	c3		 ret	 0
?IsPlayer@CMover@@QAEHXZ ENDP				; CMover::IsPlayer
_TEXT	ENDS
PUBLIC	?IsPeaceful@CMover@@QAEHXZ			; CMover::IsPeaceful
; Function compile flags: /Ogty
;	COMDAT ?IsPeaceful@CMover@@QAEHXZ
_TEXT	SEGMENT
?IsPeaceful@CMover@@QAEHXZ PROC NEAR			; CMover::IsPeaceful, COMDAT
; _this$ = ecx

; 1146 : 	BOOL			IsPeaceful() { return m_dwBelligerence == BELLI_PEACEFUL; }

  00000	8b 91 6c 06 00
	00		 mov	 edx, DWORD PTR [ecx+1644]
  00006	33 c0		 xor	 eax, eax
  00008	83 fa 01	 cmp	 edx, 1
  0000b	0f 94 c0	 sete	 al
  0000e	c3		 ret	 0
?IsPeaceful@CMover@@QAEHXZ ENDP				; CMover::IsPeaceful
_TEXT	ENDS
PUBLIC	?IsLive@CMover@@QAEHXZ				; CMover::IsLive
; Function compile flags: /Ogty
;	COMDAT ?IsLive@CMover@@QAEHXZ
_TEXT	SEGMENT
?IsLive@CMover@@QAEHXZ PROC NEAR			; CMover::IsLive, COMDAT
; _this$ = ecx

; 1277 : 	BOOL			IsLive() { return m_pActMover->IsDie() == FALSE || m_nHitPoint > 0; }		// &&   || .  != > 

  00000	8b 81 3c 02 00
	00		 mov	 eax, DWORD PTR [ecx+572]
  00006	f7 40 04 00 00
	00 08		 test	 DWORD PTR [eax+4], 134217728 ; 08000000H
  0000d	74 0d		 je	 SHORT $L269661
  0000f	8b 81 00 06 00
	00		 mov	 eax, DWORD PTR [ecx+1536]
  00015	85 c0		 test	 eax, eax
  00017	7f 03		 jg	 SHORT $L269661
  00019	33 c0		 xor	 eax, eax
  0001b	c3		 ret	 0
$L269661:
  0001c	b8 01 00 00 00	 mov	 eax, 1
  00021	c3		 ret	 0
?IsLive@CMover@@QAEHXZ ENDP				; CMover::IsLive
_TEXT	ENDS
PUBLIC	??1CRegionElemArray@@QAE@XZ			; CRegionElemArray::~CRegionElemArray
; Function compile flags: /Ogty
; File c:\documents and settings\test\mes documents\source\virtuos_v17\build\program\_common\region.h
;	COMDAT ??1CRegionElemArray@@QAE@XZ
_TEXT	SEGMENT
??1CRegionElemArray@@QAE@XZ PROC NEAR			; CRegionElemArray::~CRegionElemArray, COMDAT
; _this$ = ecx

; 74   : 	~CRegionElemArray()		{}

  00000	c3		 ret	 0
??1CRegionElemArray@@QAE@XZ ENDP			; CRegionElemArray::~CRegionElemArray
_TEXT	ENDS
PUBLIC	??0REGIONELEM@@QAE@XZ				; REGIONELEM::REGIONELEM
; Function compile flags: /Ogty
;	COMDAT ??0REGIONELEM@@QAE@XZ
_TEXT	SEGMENT
??0REGIONELEM@@QAE@XZ PROC NEAR				; REGIONELEM::REGIONELEM, COMDAT
; _this$ = ecx
  00000	8b c1		 mov	 eax, ecx
  00002	c3		 ret	 0
??0REGIONELEM@@QAE@XZ ENDP				; REGIONELEM::REGIONELEM
_TEXT	ENDS
PUBLIC	?GetID@CWorld@@QAEKXZ				; CWorld::GetID
; Function compile flags: /Ogty
; File c:\documents and settings\test\mes documents\source\virtuos_v17\build\program\_common\world.h
;	COMDAT ?GetID@CWorld@@QAEKXZ
_TEXT	SEGMENT
?GetID@CWorld@@QAEKXZ PROC NEAR				; CWorld::GetID, COMDAT
; _this$ = ecx

; 413  : 	DWORD			GetID()	{ return m_dwWorldID; }

  00000	8b 01		 mov	 eax, DWORD PTR [ecx]
  00002	c3		 ret	 0
?GetID@CWorld@@QAEKXZ ENDP				; CWorld::GetID
_TEXT	ENDS
PUBLIC	?VecInWorld@CWorld@@QAEHMM@Z			; CWorld::VecInWorld
PUBLIC	__real@00000000
EXTRN	__isnan:NEAR
;	COMDAT __real@00000000
CONST	SEGMENT
__real@00000000 DD 000000000r			; 0
; Function compile flags: /Ogty
CONST	ENDS
;	COMDAT ?VecInWorld@CWorld@@QAEHMM@Z
_TEXT	SEGMENT
_inv_mpu$ = -4						; size = 4
tv178 = 8						; size = 4
tv164 = 8						; size = 4
_x$ = 8							; size = 4
_z$ = 12						; size = 4
?VecInWorld@CWorld@@QAEHMM@Z PROC NEAR			; CWorld::VecInWorld, COMDAT
; _this$ = ecx

; 729  : {

  00000	51		 push	 ecx
  00001	56		 push	 esi
  00002	8b f1		 mov	 esi, ecx

; 730  : //	if( x < 0 || z < 0 || (int)x >= m_nLandWidth * ( MAP_SIZE * MPU ) - 4 || 
; 731  : //	(int)z >= m_nLandHeight * ( MAP_SIZE * MPU ) - 4 )
; 732  : //		return FALSE;
; 733  : 
; 734  : 	float inv_mpu = 1.0f / (float)m_iMPU;

  00004	db 46 14	 fild	 DWORD PTR [esi+20]

; 735  : 
; 736  : 	if( _isnan( x ) )

  00007	83 ec 08	 sub	 esp, 8
  0000a	d8 3d 00 00 00
	00		 fdivr	 DWORD PTR __real@3f800000
  00010	d9 5c 24 0c	 fstp	 DWORD PTR _inv_mpu$[esp+16]
  00014	d9 44 24 14	 fld	 DWORD PTR _x$[esp+12]
  00018	dd 1c 24	 fstp	 QWORD PTR [esp]
  0001b	e8 00 00 00 00	 call	 __isnan
  00020	83 c4 08	 add	 esp, 8
  00023	85 c0		 test	 eax, eax

; 737  : 		return FALSE;

  00025	75 72		 jne	 SHORT $L269689

; 738  : 	if( x < 0.0f )

  00027	d9 44 24 0c	 fld	 DWORD PTR _x$[esp+4]
  0002b	d8 1d 00 00 00
	00		 fcomp	 DWORD PTR __real@00000000
  00031	df e0		 fnstsw	 ax
  00033	f6 c4 05	 test	 ah, 5

; 739  : 		return FALSE;

  00036	7b 61		 jnp	 SHORT $L269689

; 740  : 	if( (x * inv_mpu) >= ( WORLD_WIDTH-1 ) )	

  00038	8b 46 0c	 mov	 eax, DWORD PTR [esi+12]
  0003b	d9 44 24 04	 fld	 DWORD PTR _inv_mpu$[esp+8]
  0003f	d8 4c 24 0c	 fmul	 DWORD PTR _x$[esp+4]
  00043	48		 dec	 eax
  00044	89 44 24 0c	 mov	 DWORD PTR tv178[esp+4], eax
  00048	db 44 24 0c	 fild	 DWORD PTR tv178[esp+4]
  0004c	de d9		 fcompp
  0004e	df e0		 fnstsw	 ax
  00050	f6 c4 41	 test	 ah, 65			; 00000041H

; 741  : 	{
; 742  : 		return FALSE;

  00053	7b 44		 jnp	 SHORT $L269689

; 743  : 	}
; 744  : 
; 745  : 	if( _isnan( z ) )

  00055	d9 44 24 10	 fld	 DWORD PTR _z$[esp+4]
  00059	83 ec 08	 sub	 esp, 8
  0005c	dd 1c 24	 fstp	 QWORD PTR [esp]
  0005f	e8 00 00 00 00	 call	 __isnan
  00064	83 c4 08	 add	 esp, 8
  00067	85 c0		 test	 eax, eax

; 746  : 		return FALSE;

  00069	75 2e		 jne	 SHORT $L269689

; 747  : 	if( z < 0.0f )

  0006b	d9 44 24 10	 fld	 DWORD PTR _z$[esp+4]
  0006f	d8 1d 00 00 00
	00		 fcomp	 DWORD PTR __real@00000000
  00075	df e0		 fnstsw	 ax
  00077	f6 c4 05	 test	 ah, 5

; 748  : 		return FALSE;

  0007a	7b 1d		 jnp	 SHORT $L269689

; 749  : 	if( (z * inv_mpu) >= ( WORLD_HEIGHT-1 ) )		

  0007c	8b 4e 10	 mov	 ecx, DWORD PTR [esi+16]
  0007f	d9 44 24 04	 fld	 DWORD PTR _inv_mpu$[esp+8]
  00083	d8 4c 24 10	 fmul	 DWORD PTR _z$[esp+4]
  00087	49		 dec	 ecx
  00088	89 4c 24 0c	 mov	 DWORD PTR tv164[esp+4], ecx
  0008c	db 44 24 0c	 fild	 DWORD PTR tv164[esp+4]
  00090	de d9		 fcompp
  00092	df e0		 fnstsw	 ax
  00094	f6 c4 41	 test	 ah, 65			; 00000041H
  00097	7a 07		 jp	 SHORT $L216362
$L269689:

; 750  : 		return FALSE;

  00099	33 c0		 xor	 eax, eax
  0009b	5e		 pop	 esi

; 753  : }

  0009c	59		 pop	 ecx
  0009d	c2 08 00	 ret	 8
$L216362:

; 751  : 
; 752  : 	return TRUE;

  000a0	b8 01 00 00 00	 mov	 eax, 1
  000a5	5e		 pop	 esi

; 753  : }

  000a6	59		 pop	 ecx
  000a7	c2 08 00	 ret	 8
?VecInWorld@CWorld@@QAEHMM@Z ENDP			; CWorld::VecInWorld
_TEXT	ENDS
PUBLIC	?VecInWorld@CWorld@@QAEHABUD3DXVECTOR3@@@Z	; CWorld::VecInWorld
; Function compile flags: /Ogty
;	COMDAT ?VecInWorld@CWorld@@QAEHABUD3DXVECTOR3@@@Z
_TEXT	SEGMENT
_vPos$ = 8						; size = 4
?VecInWorld@CWorld@@QAEHABUD3DXVECTOR3@@@Z PROC NEAR	; CWorld::VecInWorld, COMDAT
; _this$ = ecx

; 756  : {

  00000	56		 push	 esi

; 757  : 	if( _isnan( (double)vPos.y ) )

  00001	8b 74 24 08	 mov	 esi, DWORD PTR _vPos$[esp]
  00005	d9 46 04	 fld	 DWORD PTR [esi+4]
  00008	57		 push	 edi
  00009	83 ec 08	 sub	 esp, 8
  0000c	dd 1c 24	 fstp	 QWORD PTR [esp]
  0000f	8b f9		 mov	 edi, ecx
  00011	e8 00 00 00 00	 call	 __isnan
  00016	83 c4 08	 add	 esp, 8
  00019	85 c0		 test	 eax, eax
  0001b	74 07		 je	 SHORT $L216368
  0001d	5f		 pop	 edi

; 758  : 		return FALSE;

  0001e	33 c0		 xor	 eax, eax
  00020	5e		 pop	 esi

; 761  : }

  00021	c2 04 00	 ret	 4
$L216368:

; 759  : 
; 760  : 	return VecInWorld( vPos.x, vPos.z );

  00024	8b 46 08	 mov	 eax, DWORD PTR [esi+8]
  00027	8b 0e		 mov	 ecx, DWORD PTR [esi]
  00029	50		 push	 eax
  0002a	51		 push	 ecx
  0002b	8b cf		 mov	 ecx, edi
  0002d	e8 00 00 00 00	 call	 ?VecInWorld@CWorld@@QAEHMM@Z ; CWorld::VecInWorld
  00032	5f		 pop	 edi
  00033	5e		 pop	 esi

; 761  : }

  00034	c2 04 00	 ret	 4
?VecInWorld@CWorld@@QAEHABUD3DXVECTOR3@@@Z ENDP		; CWorld::VecInWorld
_TEXT	ENDS
PUBLIC	?size@?$basic_string@DU?$char_traits@D@std@@V?$allocator@D@2@@std@@QBEIXZ ; std::basic_string<char,std::char_traits<char>,std::allocator<char> >::size
; Function compile flags: /Ogty
; File c:\program files\microsoft visual studio .net 2003\vc7\include\xstring
;	COMDAT ?size@?$basic_string@DU?$char_traits@D@std@@V?$allocator@D@2@@std@@QBEIXZ
_TEXT	SEGMENT
?size@?$basic_string@DU?$char_traits@D@std@@V?$allocator@D@2@@std@@QBEIXZ PROC NEAR ; std::basic_string<char,std::char_traits<char>,std::allocator<char> >::size, COMDAT
; _this$ = ecx

; 1109 : 		return (_Mysize);

  00000	8b 41 14	 mov	 eax, DWORD PTR [ecx+20]

; 1110 : 		}

  00003	c3		 ret	 0
?size@?$basic_string@DU?$char_traits@D@std@@V?$allocator@D@2@@std@@QBEIXZ ENDP ; std::basic_string<char,std::char_traits<char>,std::allocator<char> >::size
_TEXT	ENDS
PUBLIC	??1?$CStack@K@@UAE@XZ				; CStack<unsigned long>::~CStack<unsigned long>
PUBLIC	??_7?$CStack@K@@6B@				; CStack<unsigned long>::`vftable'
PUBLIC	??_G?$CStack@K@@UAEPAXI@Z			; CStack<unsigned long>::`scalar deleting destructor'
EXTRN	??_V@YAXPAX@Z:NEAR				; operator delete[]
EXTRN	??_E?$CStack@K@@UAEPAXI@Z:NEAR			; CStack<unsigned long>::`vector deleting destructor'
;	COMDAT ??_7?$CStack@K@@6B@
; File c:\documents and settings\test\mes documents\source\virtuos_v17\build\program\_common\data.h
CONST	SEGMENT
??_7?$CStack@K@@6B@ DD FLAT:??_E?$CStack@K@@UAEPAXI@Z	; CStack<unsigned long>::`vftable'
; Function compile flags: /Ogty
CONST	ENDS
;	COMDAT ??1?$CStack@K@@UAE@XZ
_TEXT	SEGMENT
??1?$CStack@K@@UAE@XZ PROC NEAR				; CStack<unsigned long>::~CStack<unsigned long>, COMDAT
; _this$ = ecx

; 20   : 	virtual	~CStack() { SAFE_DELETE_ARRAY( m_pBlock );	}

  00000	56		 push	 esi
  00001	8b f1		 mov	 esi, ecx
  00003	8b 46 04	 mov	 eax, DWORD PTR [esi+4]
  00006	85 c0		 test	 eax, eax
  00008	c7 06 00 00 00
	00		 mov	 DWORD PTR [esi], OFFSET FLAT:??_7?$CStack@K@@6B@
  0000e	74 10		 je	 SHORT $L219066
  00010	50		 push	 eax
  00011	e8 00 00 00 00	 call	 ??_V@YAXPAX@Z		; operator delete[]
  00016	83 c4 04	 add	 esp, 4
  00019	c7 46 04 00 00
	00 00		 mov	 DWORD PTR [esi+4], 0
$L219066:
  00020	5e		 pop	 esi
  00021	c3		 ret	 0
??1?$CStack@K@@UAE@XZ ENDP				; CStack<unsigned long>::~CStack<unsigned long>
_TEXT	ENDS
PUBLIC	?GetSize@?$CFixedArray@UItemProp@@@@QAEHXZ	; CFixedArray<ItemProp>::GetSize
; Function compile flags: /Ogty
;	COMDAT ?GetSize@?$CFixedArray@UItemProp@@@@QAEHXZ
_TEXT	SEGMENT
?GetSize@?$CFixedArray@UItemProp@@@@QAEHXZ PROC NEAR	; CFixedArray<ItemProp>::GetSize, COMDAT
; _this$ = ecx

; 221  : 	int  GetSize() { return m_nMaxIndex; }

  00000	8b 41 18	 mov	 eax, DWORD PTR [ecx+24]
  00003	c3		 ret	 0
?GetSize@?$CFixedArray@UItemProp@@@@QAEHXZ ENDP		; CFixedArray<ItemProp>::GetSize
_TEXT	ENDS
PUBLIC	?GetSize@?$CFixedArray@UCtrlProp@@@@QAEHXZ	; CFixedArray<CtrlProp>::GetSize
; Function compile flags: /Ogty
;	COMDAT ?GetSize@?$CFixedArray@UCtrlProp@@@@QAEHXZ
_TEXT	SEGMENT
?GetSize@?$CFixedArray@UCtrlProp@@@@QAEHXZ PROC NEAR	; CFixedArray<CtrlProp>::GetSize, COMDAT
; _this$ = ecx

; 221  : 	int  GetSize() { return m_nMaxIndex; }

  00000	8b 41 18	 mov	 eax, DWORD PTR [ecx+24]
  00003	c3		 ret	 0
?GetSize@?$CFixedArray@UCtrlProp@@@@QAEHXZ ENDP		; CFixedArray<CtrlProp>::GetSize
; Function compile flags: /Ogty
_TEXT	ENDS
;	COMDAT ??_G?$CStack@K@@UAEPAXI@Z
_TEXT	SEGMENT
___flags$ = 8						; size = 4
??_G?$CStack@K@@UAEPAXI@Z PROC NEAR			; CStack<unsigned long>::`scalar deleting destructor', COMDAT
; _this$ = ecx
  00000	56		 push	 esi
  00001	8b f1		 mov	 esi, ecx
  00003	8b 46 04	 mov	 eax, DWORD PTR [esi+4]
  00006	85 c0		 test	 eax, eax
  00008	c7 06 00 00 00
	00		 mov	 DWORD PTR [esi], OFFSET FLAT:??_7?$CStack@K@@6B@
  0000e	74 10		 je	 SHORT $L269714
  00010	50		 push	 eax
  00011	e8 00 00 00 00	 call	 ??_V@YAXPAX@Z		; operator delete[]
  00016	83 c4 04	 add	 esp, 4
  00019	c7 46 04 00 00
	00 00		 mov	 DWORD PTR [esi+4], 0
$L269714:
  00020	f6 44 24 08 01	 test	 BYTE PTR ___flags$[esp], 1
  00025	74 09		 je	 SHORT $L269715
  00027	56		 push	 esi
  00028	e8 00 00 00 00	 call	 ??3@YAXPAX@Z		; operator delete
  0002d	83 c4 04	 add	 esp, 4
$L269715:
  00030	8b c6		 mov	 eax, esi
  00032	5e		 pop	 esi
  00033	c2 04 00	 ret	 4
??_G?$CStack@K@@UAEPAXI@Z ENDP				; CStack<unsigned long>::`scalar deleting destructor'
_TEXT	ENDS
PUBLIC	?_Myptr@?$basic_string@DU?$char_traits@D@std@@V?$allocator@D@2@@std@@QBEPBDXZ ; std::basic_string<char,std::char_traits<char>,std::allocator<char> >::_Myptr
; Function compile flags: /Ogty
; File c:\program files\microsoft visual studio .net 2003\vc7\include\xstring
;	COMDAT ?_Myptr@?$basic_string@DU?$char_traits@D@std@@V?$allocator@D@2@@std@@QBEPBDXZ
_TEXT	SEGMENT
?_Myptr@?$basic_string@DU?$char_traits@D@std@@V?$allocator@D@2@@std@@QBEPBDXZ PROC NEAR ; std::basic_string<char,std::char_traits<char>,std::allocator<char> >::_Myptr, COMDAT
; _this$ = ecx

; 1537 : 		return (_BUF_SIZE <= _Myres ? _Bx._Ptr : _Bx._Buf);

  00000	83 79 18 10	 cmp	 DWORD PTR [ecx+24], 16	; 00000010H
  00004	72 04		 jb	 SHORT $L269719
  00006	8b 41 04	 mov	 eax, DWORD PTR [ecx+4]

; 1538 : 		}

  00009	c3		 ret	 0
$L269719:

; 1537 : 		return (_BUF_SIZE <= _Myres ? _Bx._Ptr : _Bx._Buf);

  0000a	8d 41 04	 lea	 eax, DWORD PTR [ecx+4]

; 1538 : 		}

  0000d	c3		 ret	 0
?_Myptr@?$basic_string@DU?$char_traits@D@std@@V?$allocator@D@2@@std@@QBEPBDXZ ENDP ; std::basic_string<char,std::char_traits<char>,std::allocator<char> >::_Myptr
_TEXT	ENDS
PUBLIC	??0?$allocator@D@std@@QAE@XZ			; std::allocator<char>::allocator<char>
; Function compile flags: /Ogty
; File c:\program files\microsoft visual studio .net 2003\vc7\include\xmemory
;	COMDAT ??0?$allocator@D@std@@QAE@XZ
_TEXT	SEGMENT
??0?$allocator@D@std@@QAE@XZ PROC NEAR			; std::allocator<char>::allocator<char>, COMDAT
; _this$ = ecx

; 111  : 	allocator()

  00000	8b c1		 mov	 eax, ecx

; 112  : 		{	// construct default allocator (do nothing)
; 113  : 		}

  00002	c3		 ret	 0
??0?$allocator@D@std@@QAE@XZ ENDP			; std::allocator<char>::allocator<char>
_TEXT	ENDS
PUBLIC	??0?$allocator@D@std@@QAE@ABV01@@Z		; std::allocator<char>::allocator<char>
; Function compile flags: /Ogty
;	COMDAT ??0?$allocator@D@std@@QAE@ABV01@@Z
_TEXT	SEGMENT
___formal$ = 8						; size = 4
??0?$allocator@D@std@@QAE@ABV01@@Z PROC NEAR		; std::allocator<char>::allocator<char>, COMDAT
; _this$ = ecx

; 115  : 	allocator(const allocator<_Ty>&)

  00000	8b c1		 mov	 eax, ecx

; 116  : 		{	// construct by copying (do nothing)
; 117  : 		}

  00002	c2 04 00	 ret	 4
??0?$allocator@D@std@@QAE@ABV01@@Z ENDP			; std::allocator<char>::allocator<char>
_TEXT	ENDS
PUBLIC	??R?$less@K@std@@QBE_NABK0@Z			; std::less<unsigned long>::operator()
; Function compile flags: /Ogty
; File c:\program files\microsoft visual studio .net 2003\vc7\include\functional
;	COMDAT ??R?$less@K@std@@QBE_NABK0@Z
_TEXT	SEGMENT
__Left$ = 8						; size = 4
__Right$ = 12						; size = 4
??R?$less@K@std@@QBE_NABK0@Z PROC NEAR			; std::less<unsigned long>::operator(), COMDAT
; _this$ = ecx

; 139  : 		return (_Left < _Right);

  00000	8b 44 24 04	 mov	 eax, DWORD PTR __Left$[esp-4]
  00004	8b 08		 mov	 ecx, DWORD PTR [eax]
  00006	8b 54 24 08	 mov	 edx, DWORD PTR __Right$[esp-4]
  0000a	3b 0a		 cmp	 ecx, DWORD PTR [edx]
  0000c	1b c0		 sbb	 eax, eax
  0000e	f7 d8		 neg	 eax

; 140  : 		}

  00010	c2 08 00	 ret	 8
??R?$less@K@std@@QBE_NABK0@Z ENDP			; std::less<unsigned long>::operator()
_TEXT	ENDS
PUBLIC	??8const_iterator@?$_Tree@V?$_Tmap_traits@KPAVCUser@@U?$less@K@std@@V?$allocator@U?$pair@$$CBKPAVCUser@@@std@@@3@$0A@@std@@@std@@QBE_NABV012@@Z ; std::_Tree<std::_Tmap_traits<unsigned long,CUser *,std::less<unsigned long>,std::allocator<std::pair<unsigned long const ,CUser *> >,0> >::const_iterator::operator==
; Function compile flags: /Ogty
; File c:\program files\microsoft visual studio .net 2003\vc7\include\xtree
;	COMDAT ??8const_iterator@?$_Tree@V?$_Tmap_traits@KPAVCUser@@U?$less@K@std@@V?$allocator@U?$pair@$$CBKPAVCUser@@@std@@@3@$0A@@std@@@std@@QBE_NABV012@@Z
_TEXT	SEGMENT
__Right$ = 8						; size = 4
??8const_iterator@?$_Tree@V?$_Tmap_traits@KPAVCUser@@U?$less@K@std@@V?$allocator@U?$pair@$$CBKPAVCUser@@@std@@@3@$0A@@std@@@std@@QBE_NABV012@@Z PROC NEAR ; std::_Tree<std::_Tmap_traits<unsigned long,CUser *,std::less<unsigned long>,std::allocator<std::pair<unsigned long const ,CUser *> >,0> >::const_iterator::operator==, COMDAT
; _this$ = ecx

; 241  : 			return (_Ptr == _Right._Ptr);

  00000	8b 01		 mov	 eax, DWORD PTR [ecx]
  00002	8b 4c 24 04	 mov	 ecx, DWORD PTR __Right$[esp-4]
  00006	2b 01		 sub	 eax, DWORD PTR [ecx]
  00008	f7 d8		 neg	 eax
  0000a	1b c0		 sbb	 eax, eax
  0000c	40		 inc	 eax

; 242  : 			}

  0000d	c2 04 00	 ret	 4
??8const_iterator@?$_Tree@V?$_Tmap_traits@KPAVCUser@@U?$less@K@std@@V?$allocator@U?$pair@$$CBKPAVCUser@@@std@@@3@$0A@@std@@@std@@QBE_NABV012@@Z ENDP ; std::_Tree<std::_Tmap_traits<unsigned long,CUser *,std::less<unsigned long>,std::allocator<std::pair<unsigned long const ,CUser *> >,0> >::const_iterator::operator==
_TEXT	ENDS
PUBLIC	?_Mynode@const_iterator@?$_Tree@V?$_Tmap_traits@KPAVCUser@@U?$less@K@std@@V?$allocator@U?$pair@$$CBKPAVCUser@@@std@@@3@$0A@@std@@@std@@QBEPAU_Node@?$_Tree_nod@V?$_Tmap_traits@KPAVCUser@@U?$less@K@std@@V?$allocator@U?$pair@$$CBKPAVCUser@@@std@@@3@$0A@@std@@@3@XZ ; std::_Tree<std::_Tmap_traits<unsigned long,CUser *,std::less<unsigned long>,std::allocator<std::pair<unsigned long const ,CUser *> >,0> >::const_iterator::_Mynode
; Function compile flags: /Ogty
;	COMDAT ?_Mynode@const_iterator@?$_Tree@V?$_Tmap_traits@KPAVCUser@@U?$less@K@std@@V?$allocator@U?$pair@$$CBKPAVCUser@@@std@@@3@$0A@@std@@@std@@QBEPAU_Node@?$_Tree_nod@V?$_Tmap_traits@KPAVCUser@@U?$less@K@std@@V?$allocator@U?$pair@$$CBKPAVCUser@@@std@@@3@$0A@@std@@@3@XZ
_TEXT	SEGMENT
?_Mynode@const_iterator@?$_Tree@V?$_Tmap_traits@KPAVCUser@@U?$less@K@std@@V?$allocator@U?$pair@$$CBKPAVCUser@@@std@@@3@$0A@@std@@@std@@QBEPAU_Node@?$_Tree_nod@V?$_Tmap_traits@KPAVCUser@@U?$less@K@std@@V?$allocator@U?$pair@$$CBKPAVCUser@@@std@@@3@$0A@@std@@@3@XZ PROC NEAR ; std::_Tree<std::_Tmap_traits<unsigned long,CUser *,std::less<unsigned long>,std::allocator<std::pair<unsigned long const ,CUser *> >,0> >::const_iterator::_Mynode, COMDAT
; _this$ = ecx

; 284  : 			return (_Ptr);

  00000	8b 01		 mov	 eax, DWORD PTR [ecx]

; 285  : 			}

  00002	c3		 ret	 0
?_Mynode@const_iterator@?$_Tree@V?$_Tmap_traits@KPAVCUser@@U?$less@K@std@@V?$allocator@U?$pair@$$CBKPAVCUser@@@std@@@3@$0A@@std@@@std@@QBEPAU_Node@?$_Tree_nod@V?$_Tmap_traits@KPAVCUser@@U?$less@K@std@@V?$allocator@U?$pair@$$CBKPAVCUser@@@std@@@3@$0A@@std@@@3@XZ ENDP ; std::_Tree<std::_Tmap_traits<unsigned long,CUser *,std::less<unsigned long>,std::allocator<std::pair<unsigned long const ,CUser *> >,0> >::const_iterator::_Mynode
_TEXT	ENDS
PUBLIC	??0?$allocator@UD3DXVECTOR3@@@std@@QAE@XZ	; std::allocator<D3DXVECTOR3>::allocator<D3DXVECTOR3>
; Function compile flags: /Ogty
; File c:\program files\microsoft visual studio .net 2003\vc7\include\xmemory
;	COMDAT ??0?$allocator@UD3DXVECTOR3@@@std@@QAE@XZ
_TEXT	SEGMENT
??0?$allocator@UD3DXVECTOR3@@@std@@QAE@XZ PROC NEAR	; std::allocator<D3DXVECTOR3>::allocator<D3DXVECTOR3>, COMDAT
; _this$ = ecx

; 111  : 	allocator()

  00000	8b c1		 mov	 eax, ecx

; 112  : 		{	// construct default allocator (do nothing)
; 113  : 		}

  00002	c3		 ret	 0
??0?$allocator@UD3DXVECTOR3@@@std@@QAE@XZ ENDP		; std::allocator<D3DXVECTOR3>::allocator<D3DXVECTOR3>
_TEXT	ENDS
PUBLIC	??0?$pair@$$CBKPAVCUser@@@std@@QAE@ABKABQAVCUser@@@Z ; std::pair<unsigned long const ,CUser *>::pair<unsigned long const ,CUser *>
; Function compile flags: /Ogty
; File c:\program files\microsoft visual studio .net 2003\vc7\include\utility
;	COMDAT ??0?$pair@$$CBKPAVCUser@@@std@@QAE@ABKABQAVCUser@@@Z
_TEXT	SEGMENT
__Val1$ = 8						; size = 4
__Val2$ = 12						; size = 4
??0?$pair@$$CBKPAVCUser@@@std@@QAE@ABKABQAVCUser@@@Z PROC NEAR ; std::pair<unsigned long const ,CUser *>::pair<unsigned long const ,CUser *>, COMDAT
; _this$ = ecx

; 34   : 		{	// construct from specified values

  00000	8b c1		 mov	 eax, ecx
  00002	8b 4c 24 04	 mov	 ecx, DWORD PTR __Val1$[esp-4]
  00006	8b 11		 mov	 edx, DWORD PTR [ecx]
  00008	8b 4c 24 08	 mov	 ecx, DWORD PTR __Val2$[esp-4]
  0000c	89 10		 mov	 DWORD PTR [eax], edx
  0000e	8b 11		 mov	 edx, DWORD PTR [ecx]
  00010	89 50 04	 mov	 DWORD PTR [eax+4], edx

; 35   : 		}

  00013	c2 08 00	 ret	 8
??0?$pair@$$CBKPAVCUser@@@std@@QAE@ABKABQAVCUser@@@Z ENDP ; std::pair<unsigned long const ,CUser *>::pair<unsigned long const ,CUser *>
_TEXT	ENDS
PUBLIC	?_Myptr@?$basic_string@DU?$char_traits@D@std@@V?$allocator@D@2@@std@@QAEPADXZ ; std::basic_string<char,std::char_traits<char>,std::allocator<char> >::_Myptr
; Function compile flags: /Ogty
; File c:\program files\microsoft visual studio .net 2003\vc7\include\xstring
;	COMDAT ?_Myptr@?$basic_string@DU?$char_traits@D@std@@V?$allocator@D@2@@std@@QAEPADXZ
_TEXT	SEGMENT
?_Myptr@?$basic_string@DU?$char_traits@D@std@@V?$allocator@D@2@@std@@QAEPADXZ PROC NEAR ; std::basic_string<char,std::char_traits<char>,std::allocator<char> >::_Myptr, COMDAT
; _this$ = ecx

; 1532 : 		return (_BUF_SIZE <= _Myres ? _Bx._Ptr : _Bx._Buf);

  00000	83 79 18 10	 cmp	 DWORD PTR [ecx+24], 16	; 00000010H
  00004	72 04		 jb	 SHORT $L269745
  00006	8b 41 04	 mov	 eax, DWORD PTR [ecx+4]

; 1533 : 		}

  00009	c3		 ret	 0
$L269745:

; 1532 : 		return (_BUF_SIZE <= _Myres ? _Bx._Ptr : _Bx._Buf);

  0000a	8d 41 04	 lea	 eax, DWORD PTR [ecx+4]

; 1533 : 		}

  0000d	c3		 ret	 0
?_Myptr@?$basic_string@DU?$char_traits@D@std@@V?$allocator@D@2@@std@@QAEPADXZ ENDP ; std::basic_string<char,std::char_traits<char>,std::allocator<char> >::_Myptr
_TEXT	ENDS
PUBLIC	?deallocate@?$allocator@D@std@@QAEXPADI@Z	; std::allocator<char>::deallocate
; Function compile flags: /Ogty
; File c:\program files\microsoft visual studio .net 2003\vc7\include\xmemory
;	COMDAT ?deallocate@?$allocator@D@std@@QAEXPADI@Z
_TEXT	SEGMENT
__Ptr$ = 8						; size = 4
___formal$ = 12						; size = 4
?deallocate@?$allocator@D@std@@QAEXPADI@Z PROC NEAR	; std::allocator<char>::deallocate, COMDAT
; _this$ = ecx

; 132  : 		operator delete(_Ptr);

  00000	8b 44 24 04	 mov	 eax, DWORD PTR __Ptr$[esp-4]
  00004	50		 push	 eax
  00005	e8 00 00 00 00	 call	 ??3@YAXPAX@Z		; operator delete
  0000a	59		 pop	 ecx

; 133  : 		}

  0000b	c2 08 00	 ret	 8
?deallocate@?$allocator@D@std@@QAEXPADI@Z ENDP		; std::allocator<char>::deallocate
_TEXT	ENDS
PUBLIC	?_Isnil@?$_Tree@V?$_Tmap_traits@KPAVCUser@@U?$less@K@std@@V?$allocator@U?$pair@$$CBKPAVCUser@@@std@@@3@$0A@@std@@@std@@KAAADPAU_Node@?$_Tree_nod@V?$_Tmap_traits@KPAVCUser@@U?$less@K@std@@V?$allocator@U?$pair@$$CBKPAVCUser@@@std@@@3@$0A@@std@@@2@@Z ; std::_Tree<std::_Tmap_traits<unsigned long,CUser *,std::less<unsigned long>,std::allocator<std::pair<unsigned long const ,CUser *> >,0> >::_Isnil
; Function compile flags: /Ogty
; File c:\program files\microsoft visual studio .net 2003\vc7\include\xtree
;	COMDAT ?_Isnil@?$_Tree@V?$_Tmap_traits@KPAVCUser@@U?$less@K@std@@V?$allocator@U?$pair@$$CBKPAVCUser@@@std@@@3@$0A@@std@@@std@@KAAADPAU_Node@?$_Tree_nod@V?$_Tmap_traits@KPAVCUser@@U?$less@K@std@@V?$allocator@U?$pair@$$CBKPAVCUser@@@std@@@3@$0A@@std@@@2@@Z
_TEXT	SEGMENT
__Pnode$ = 8						; size = 4
?_Isnil@?$_Tree@V?$_Tmap_traits@KPAVCUser@@U?$less@K@std@@V?$allocator@U?$pair@$$CBKPAVCUser@@@std@@@3@$0A@@std@@@std@@KAAADPAU_Node@?$_Tree_nod@V?$_Tmap_traits@KPAVCUser@@U?$less@K@std@@V?$allocator@U?$pair@$$CBKPAVCUser@@@std@@@3@$0A@@std@@@2@@Z PROC NEAR ; std::_Tree<std::_Tmap_traits<unsigned long,CUser *,std::less<unsigned long>,std::allocator<std::pair<unsigned long const ,CUser *> >,0> >::_Isnil, COMDAT

; 137  : 		return ((_Charref)(*_Pnode)._Isnil);

  00000	8b 44 24 04	 mov	 eax, DWORD PTR __Pnode$[esp-4]
  00004	83 c0 15	 add	 eax, 21			; 00000015H

; 138  : 		}

  00007	c3		 ret	 0
?_Isnil@?$_Tree@V?$_Tmap_traits@KPAVCUser@@U?$less@K@std@@V?$allocator@U?$pair@$$CBKPAVCUser@@@std@@@3@$0A@@std@@@std@@KAAADPAU_Node@?$_Tree_nod@V?$_Tmap_traits@KPAVCUser@@U?$less@K@std@@V?$allocator@U?$pair@$$CBKPAVCUser@@@std@@@3@$0A@@std@@@2@@Z ENDP ; std::_Tree<std::_Tmap_traits<unsigned long,CUser *,std::less<unsigned long>,std::allocator<std::pair<unsigned long const ,CUser *> >,0> >::_Isnil
_TEXT	ENDS
PUBLIC	?_Right@?$_Tree@V?$_Tmap_traits@KPAVCUser@@U?$less@K@std@@V?$allocator@U?$pair@$$CBKPAVCUser@@@std@@@3@$0A@@std@@@std@@KAAAPAU_Node@?$_Tree_nod@V?$_Tmap_traits@KPAVCUser@@U?$less@K@std@@V?$allocator@U?$pair@$$CBKPAVCUser@@@std@@@3@$0A@@std@@@2@PAU342@@Z ; std::_Tree<std::_Tmap_traits<unsigned long,CUser *,std::less<unsigned long>,std::allocator<std::pair<unsigned long const ,CUser *> >,0> >::_Right
; Function compile flags: /Ogty
;	COMDAT ?_Right@?$_Tree@V?$_Tmap_traits@KPAVCUser@@U?$less@K@std@@V?$allocator@U?$pair@$$CBKPAVCUser@@@std@@@3@$0A@@std@@@std@@KAAAPAU_Node@?$_Tree_nod@V?$_Tmap_traits@KPAVCUser@@U?$less@K@std@@V?$allocator@U?$pair@$$CBKPAVCUser@@@std@@@3@$0A@@std@@@2@PAU342@@Z
_TEXT	SEGMENT
__Pnode$ = 8						; size = 4
?_Right@?$_Tree@V?$_Tmap_traits@KPAVCUser@@U?$less@K@std@@V?$allocator@U?$pair@$$CBKPAVCUser@@@std@@@3@$0A@@std@@@std@@KAAAPAU_Node@?$_Tree_nod@V?$_Tmap_traits@KPAVCUser@@U?$less@K@std@@V?$allocator@U?$pair@$$CBKPAVCUser@@@std@@@3@$0A@@std@@@2@PAU342@@Z PROC NEAR ; std::_Tree<std::_Tmap_traits<unsigned long,CUser *,std::less<unsigned long>,std::allocator<std::pair<unsigned long const ,CUser *> >,0> >::_Right, COMDAT

; 157  : 		return ((_Nodepref)(*_Pnode)._Right);

  00000	8b 44 24 04	 mov	 eax, DWORD PTR __Pnode$[esp-4]
  00004	83 c0 08	 add	 eax, 8

; 158  : 		}

  00007	c3		 ret	 0
?_Right@?$_Tree@V?$_Tmap_traits@KPAVCUser@@U?$less@K@std@@V?$allocator@U?$pair@$$CBKPAVCUser@@@std@@@3@$0A@@std@@@std@@KAAAPAU_Node@?$_Tree_nod@V?$_Tmap_traits@KPAVCUser@@U?$less@K@std@@V?$allocator@U?$pair@$$CBKPAVCUser@@@std@@@3@$0A@@std@@@2@PAU342@@Z ENDP ; std::_Tree<std::_Tmap_traits<unsigned long,CUser *,std::less<unsigned long>,std::allocator<std::pair<unsigned long const ,CUser *> >,0> >::_Right
_TEXT	ENDS
PUBLIC	?_Myval@?$_Tree@V?$_Tmap_traits@KPAVCUser@@U?$less@K@std@@V?$allocator@U?$pair@$$CBKPAVCUser@@@std@@@3@$0A@@std@@@std@@KAAAU?$pair@$$CBKPAVCUser@@@2@PAU_Node@?$_Tree_nod@V?$_Tmap_traits@KPAVCUser@@U?$less@K@std@@V?$allocator@U?$pair@$$CBKPAVCUser@@@std@@@3@$0A@@std@@@2@@Z ; std::_Tree<std::_Tmap_traits<unsigned long,CUser *,std::less<unsigned long>,std::allocator<std::pair<unsigned long const ,CUser *> >,0> >::_Myval
; Function compile flags: /Ogty
;	COMDAT ?_Myval@?$_Tree@V?$_Tmap_traits@KPAVCUser@@U?$less@K@std@@V?$allocator@U?$pair@$$CBKPAVCUser@@@std@@@3@$0A@@std@@@std@@KAAAU?$pair@$$CBKPAVCUser@@@2@PAU_Node@?$_Tree_nod@V?$_Tmap_traits@KPAVCUser@@U?$less@K@std@@V?$allocator@U?$pair@$$CBKPAVCUser@@@std@@@3@$0A@@std@@@2@@Z
_TEXT	SEGMENT
__Pnode$ = 8						; size = 4
?_Myval@?$_Tree@V?$_Tmap_traits@KPAVCUser@@U?$less@K@std@@V?$allocator@U?$pair@$$CBKPAVCUser@@@std@@@3@$0A@@std@@@std@@KAAAU?$pair@$$CBKPAVCUser@@@2@PAU_Node@?$_Tree_nod@V?$_Tmap_traits@KPAVCUser@@U?$less@K@std@@V?$allocator@U?$pair@$$CBKPAVCUser@@@std@@@3@$0A@@std@@@2@@Z PROC NEAR ; std::_Tree<std::_Tmap_traits<unsigned long,CUser *,std::less<unsigned long>,std::allocator<std::pair<unsigned long const ,CUser *> >,0> >::_Myval, COMDAT

; 162  : 		return ((_Vref)(*_Pnode)._Myval);

  00000	8b 44 24 04	 mov	 eax, DWORD PTR __Pnode$[esp-4]
  00004	83 c0 0c	 add	 eax, 12			; 0000000cH

; 163  : 		}

  00007	c3		 ret	 0
?_Myval@?$_Tree@V?$_Tmap_traits@KPAVCUser@@U?$less@K@std@@V?$allocator@U?$pair@$$CBKPAVCUser@@@std@@@3@$0A@@std@@@std@@KAAAU?$pair@$$CBKPAVCUser@@@2@PAU_Node@?$_Tree_nod@V?$_Tmap_traits@KPAVCUser@@U?$less@K@std@@V?$allocator@U?$pair@$$CBKPAVCUser@@@std@@@3@$0A@@std@@@2@@Z ENDP ; std::_Tree<std::_Tmap_traits<unsigned long,CUser *,std::less<unsigned long>,std::allocator<std::pair<unsigned long const ,CUser *> >,0> >::_Myval
_TEXT	ENDS
PUBLIC	?size@?$_Tree@V?$_Tmap_traits@KPAVCUser@@U?$less@K@std@@V?$allocator@U?$pair@$$CBKPAVCUser@@@std@@@3@$0A@@std@@@std@@QBEIXZ ; std::_Tree<std::_Tmap_traits<unsigned long,CUser *,std::less<unsigned long>,std::allocator<std::pair<unsigned long const ,CUser *> >,0> >::size
; Function compile flags: /Ogty
;	COMDAT ?size@?$_Tree@V?$_Tmap_traits@KPAVCUser@@U?$less@K@std@@V?$allocator@U?$pair@$$CBKPAVCUser@@@std@@@3@$0A@@std@@@std@@QBEIXZ
_TEXT	SEGMENT
?size@?$_Tree@V?$_Tmap_traits@KPAVCUser@@U?$less@K@std@@V?$allocator@U?$pair@$$CBKPAVCUser@@@std@@@3@$0A@@std@@@std@@QBEIXZ PROC NEAR ; std::_Tree<std::_Tmap_traits<unsigned long,CUser *,std::less<unsigned long>,std::allocator<std::pair<unsigned long const ,CUser *> >,0> >::size, COMDAT
; _this$ = ecx

; 448  : 		return (_Mysize);

  00000	8b 41 08	 mov	 eax, DWORD PTR [ecx+8]

; 449  : 		}

  00003	c3		 ret	 0
?size@?$_Tree@V?$_Tmap_traits@KPAVCUser@@U?$less@K@std@@V?$allocator@U?$pair@$$CBKPAVCUser@@@std@@@3@$0A@@std@@@std@@QBEIXZ ENDP ; std::_Tree<std::_Tmap_traits<unsigned long,CUser *,std::less<unsigned long>,std::allocator<std::pair<unsigned long const ,CUser *> >,0> >::size
_TEXT	ENDS
PUBLIC	?_Rmost@?$_Tree@V?$_Tmap_traits@KPAVCUser@@U?$less@K@std@@V?$allocator@U?$pair@$$CBKPAVCUser@@@std@@@3@$0A@@std@@@std@@IAEAAPAU_Node@?$_Tree_nod@V?$_Tmap_traits@KPAVCUser@@U?$less@K@std@@V?$allocator@U?$pair@$$CBKPAVCUser@@@std@@@3@$0A@@std@@@2@XZ ; std::_Tree<std::_Tmap_traits<unsigned long,CUser *,std::less<unsigned long>,std::allocator<std::pair<unsigned long const ,CUser *> >,0> >::_Rmost
; Function compile flags: /Ogty
;	COMDAT ?_Rmost@?$_Tree@V?$_Tmap_traits@KPAVCUser@@U?$less@K@std@@V?$allocator@U?$pair@$$CBKPAVCUser@@@std@@@3@$0A@@std@@@std@@IAEAAPAU_Node@?$_Tree_nod@V?$_Tmap_traits@KPAVCUser@@U?$less@K@std@@V?$allocator@U?$pair@$$CBKPAVCUser@@@std@@@3@$0A@@std@@@2@XZ
_TEXT	SEGMENT
?_Rmost@?$_Tree@V?$_Tmap_traits@KPAVCUser@@U?$less@K@std@@V?$allocator@U?$pair@$$CBKPAVCUser@@@std@@@3@$0A@@std@@@std@@IAEAAPAU_Node@?$_Tree_nod@V?$_Tmap_traits@KPAVCUser@@U?$less@K@std@@V?$allocator@U?$pair@$$CBKPAVCUser@@@std@@@3@$0A@@std@@@2@XZ PROC NEAR ; std::_Tree<std::_Tmap_traits<unsigned long,CUser *,std::less<unsigned long>,std::allocator<std::pair<unsigned long const ,CUser *> >,0> >::_Rmost, COMDAT
; _this$ = ecx

; 1049 : 		return (_Right(_Myhead));

  00000	8b 41 04	 mov	 eax, DWORD PTR [ecx+4]
  00003	83 c0 08	 add	 eax, 8

; 1050 : 		}

  00006	c3		 ret	 0
?_Rmost@?$_Tree@V?$_Tmap_traits@KPAVCUser@@U?$less@K@std@@V?$allocator@U?$pair@$$CBKPAVCUser@@@std@@@3@$0A@@std@@@std@@IAEAAPAU_Node@?$_Tree_nod@V?$_Tmap_traits@KPAVCUser@@U?$less@K@std@@V?$allocator@U?$pair@$$CBKPAVCUser@@@std@@@3@$0A@@std@@@2@XZ ENDP ; std::_Tree<std::_Tmap_traits<unsigned long,CUser *,std::less<unsigned long>,std::allocator<std::pair<unsigned long const ,CUser *> >,0> >::_Rmost
_TEXT	ENDS
PUBLIC	?_Kfn@?$_Tmap_traits@KPAVCUser@@U?$less@K@std@@V?$allocator@U?$pair@$$CBKPAVCUser@@@std@@@3@$0A@@std@@SAABKABU?$pair@$$CBKPAVCUser@@@2@@Z ; std::_Tmap_traits<unsigned long,CUser *,std::less<unsigned long>,std::allocator<std::pair<unsigned long const ,CUser *> >,0>::_Kfn
; Function compile flags: /Ogty
; File c:\program files\microsoft visual studio .net 2003\vc7\include\map
;	COMDAT ?_Kfn@?$_Tmap_traits@KPAVCUser@@U?$less@K@std@@V?$allocator@U?$pair@$$CBKPAVCUser@@@std@@@3@$0A@@std@@SAABKABU?$pair@$$CBKPAVCUser@@@2@@Z
_TEXT	SEGMENT
__Val$ = 8						; size = 4
?_Kfn@?$_Tmap_traits@KPAVCUser@@U?$less@K@std@@V?$allocator@U?$pair@$$CBKPAVCUser@@@std@@@3@$0A@@std@@SAABKABU?$pair@$$CBKPAVCUser@@@2@@Z PROC NEAR ; std::_Tmap_traits<unsigned long,CUser *,std::less<unsigned long>,std::allocator<std::pair<unsigned long const ,CUser *> >,0>::_Kfn, COMDAT

; 64   : 		return (_Val.first);

  00000	8b 44 24 04	 mov	 eax, DWORD PTR __Val$[esp-4]

; 65   : 		}

  00004	c3		 ret	 0
?_Kfn@?$_Tmap_traits@KPAVCUser@@U?$less@K@std@@V?$allocator@U?$pair@$$CBKPAVCUser@@@std@@@3@$0A@@std@@SAABKABU?$pair@$$CBKPAVCUser@@@2@@Z ENDP ; std::_Tmap_traits<unsigned long,CUser *,std::less<unsigned long>,std::allocator<std::pair<unsigned long const ,CUser *> >,0>::_Kfn
_TEXT	ENDS
PUBLIC	?deallocate@?$allocator@K@std@@QAEXPAKI@Z	; std::allocator<unsigned long>::deallocate
; Function compile flags: /Ogty
; File c:\program files\microsoft visual studio .net 2003\vc7\include\xmemory
;	COMDAT ?deallocate@?$allocator@K@std@@QAEXPAKI@Z
_TEXT	SEGMENT
__Ptr$ = 8						; size = 4
___formal$ = 12						; size = 4
?deallocate@?$allocator@K@std@@QAEXPAKI@Z PROC NEAR	; std::allocator<unsigned long>::deallocate, COMDAT
; _this$ = ecx

; 132  : 		operator delete(_Ptr);

  00000	8b 44 24 04	 mov	 eax, DWORD PTR __Ptr$[esp-4]
  00004	50		 push	 eax
  00005	e8 00 00 00 00	 call	 ??3@YAXPAX@Z		; operator delete
  0000a	59		 pop	 ecx

; 133  : 		}

  0000b	c2 08 00	 ret	 8
?deallocate@?$allocator@K@std@@QAEXPAKI@Z ENDP		; std::allocator<unsigned long>::deallocate
_TEXT	ENDS
PUBLIC	??Dconst_iterator@?$_Tree@V?$_Tmap_traits@KPAVCUser@@U?$less@K@std@@V?$allocator@U?$pair@$$CBKPAVCUser@@@std@@@3@$0A@@std@@@std@@QBEABU?$pair@$$CBKPAVCUser@@@2@XZ ; std::_Tree<std::_Tmap_traits<unsigned long,CUser *,std::less<unsigned long>,std::allocator<std::pair<unsigned long const ,CUser *> >,0> >::const_iterator::operator*
; Function compile flags: /Ogty
; File c:\program files\microsoft visual studio .net 2003\vc7\include\xtree
;	COMDAT ??Dconst_iterator@?$_Tree@V?$_Tmap_traits@KPAVCUser@@U?$less@K@std@@V?$allocator@U?$pair@$$CBKPAVCUser@@@std@@@3@$0A@@std@@@std@@QBEABU?$pair@$$CBKPAVCUser@@@2@XZ
_TEXT	SEGMENT
??Dconst_iterator@?$_Tree@V?$_Tmap_traits@KPAVCUser@@U?$less@K@std@@V?$allocator@U?$pair@$$CBKPAVCUser@@@std@@@3@$0A@@std@@@std@@QBEABU?$pair@$$CBKPAVCUser@@@2@XZ PROC NEAR ; std::_Tree<std::_Tmap_traits<unsigned long,CUser *,std::less<unsigned long>,std::allocator<std::pair<unsigned long const ,CUser *> >,0> >::const_iterator::operator*, COMDAT
; _this$ = ecx

; 205  : 			return (_Myval(_Ptr));

  00000	8b 01		 mov	 eax, DWORD PTR [ecx]
  00002	83 c0 0c	 add	 eax, 12			; 0000000cH

; 206  : 			}

  00005	c3		 ret	 0
??Dconst_iterator@?$_Tree@V?$_Tmap_traits@KPAVCUser@@U?$less@K@std@@V?$allocator@U?$pair@$$CBKPAVCUser@@@std@@@3@$0A@@std@@@std@@QBEABU?$pair@$$CBKPAVCUser@@@2@XZ ENDP ; std::_Tree<std::_Tmap_traits<unsigned long,CUser *,std::less<unsigned long>,std::allocator<std::pair<unsigned long const ,CUser *> >,0> >::const_iterator::operator*
_TEXT	ENDS
PUBLIC	??0?$allocator@UD3DXVECTOR3@@@std@@QAE@ABV01@@Z	; std::allocator<D3DXVECTOR3>::allocator<D3DXVECTOR3>
; Function compile flags: /Ogty
; File c:\program files\microsoft visual studio .net 2003\vc7\include\xmemory
;	COMDAT ??0?$allocator@UD3DXVECTOR3@@@std@@QAE@ABV01@@Z
_TEXT	SEGMENT
___formal$ = 8						; size = 4
??0?$allocator@UD3DXVECTOR3@@@std@@QAE@ABV01@@Z PROC NEAR ; std::allocator<D3DXVECTOR3>::allocator<D3DXVECTOR3>, COMDAT
; _this$ = ecx

; 115  : 	allocator(const allocator<_Ty>&)

  00000	8b c1		 mov	 eax, ecx

; 116  : 		{	// construct by copying (do nothing)
; 117  : 		}

  00002	c2 04 00	 ret	 4
??0?$allocator@UD3DXVECTOR3@@@std@@QAE@ABV01@@Z ENDP	; std::allocator<D3DXVECTOR3>::allocator<D3DXVECTOR3>
_TEXT	ENDS
PUBLIC	?deallocate@?$allocator@UD3DXVECTOR3@@@std@@QAEXPAUD3DXVECTOR3@@I@Z ; std::allocator<D3DXVECTOR3>::deallocate
; Function compile flags: /Ogty
;	COMDAT ?deallocate@?$allocator@UD3DXVECTOR3@@@std@@QAEXPAUD3DXVECTOR3@@I@Z
_TEXT	SEGMENT
__Ptr$ = 8						; size = 4
___formal$ = 12						; size = 4
?deallocate@?$allocator@UD3DXVECTOR3@@@std@@QAEXPAUD3DXVECTOR3@@I@Z PROC NEAR ; std::allocator<D3DXVECTOR3>::deallocate, COMDAT
; _this$ = ecx

; 132  : 		operator delete(_Ptr);

  00000	8b 44 24 04	 mov	 eax, DWORD PTR __Ptr$[esp-4]
  00004	50		 push	 eax
  00005	e8 00 00 00 00	 call	 ??3@YAXPAX@Z		; operator delete
  0000a	59		 pop	 ecx

; 133  : 		}

  0000b	c2 08 00	 ret	 8
?deallocate@?$allocator@UD3DXVECTOR3@@@std@@QAEXPAUD3DXVECTOR3@@I@Z ENDP ; std::allocator<D3DXVECTOR3>::deallocate
_TEXT	ENDS
PUBLIC	?_Inside@?$basic_string@DU?$char_traits@D@std@@V?$allocator@D@2@@std@@IAE_NPBD@Z ; std::basic_string<char,std::char_traits<char>,std::allocator<char> >::_Inside
; Function compile flags: /Ogty
; File c:\program files\microsoft visual studio .net 2003\vc7\include\xstring
;	COMDAT ?_Inside@?$basic_string@DU?$char_traits@D@std@@V?$allocator@D@2@@std@@IAE_NPBD@Z
_TEXT	SEGMENT
__Ptr$ = 8						; size = 4
?_Inside@?$basic_string@DU?$char_traits@D@std@@V?$allocator@D@2@@std@@IAE_NPBD@Z PROC NEAR ; std::basic_string<char,std::char_traits<char>,std::allocator<char> >::_Inside, COMDAT
; _this$ = ecx

; 1494 : 		{	// test if _Ptr points inside string

  00000	56		 push	 esi

; 1495 : 		if (_Ptr < _Myptr() || _Myptr() + _Mysize <= _Ptr)

  00001	8b 71 18	 mov	 esi, DWORD PTR [ecx+24]
  00004	83 fe 10	 cmp	 esi, 16			; 00000010H
  00007	57		 push	 edi
  00008	8d 41 04	 lea	 eax, DWORD PTR [ecx+4]
  0000b	72 04		 jb	 SHORT $L269794
  0000d	8b 10		 mov	 edx, DWORD PTR [eax]
  0000f	eb 02		 jmp	 SHORT $L269795
$L269794:
  00011	8b d0		 mov	 edx, eax
$L269795:
  00013	8b 7c 24 0c	 mov	 edi, DWORD PTR __Ptr$[esp+4]
  00017	3b fa		 cmp	 edi, edx
  00019	72 17		 jb	 SHORT $L222788
  0001b	83 fe 10	 cmp	 esi, 16			; 00000010H
  0001e	72 02		 jb	 SHORT $L269802
  00020	8b 00		 mov	 eax, DWORD PTR [eax]
$L269802:
  00022	8b 49 14	 mov	 ecx, DWORD PTR [ecx+20]
  00025	03 c8		 add	 ecx, eax
  00027	3b cf		 cmp	 ecx, edi
  00029	76 07		 jbe	 SHORT $L222788
  0002b	5f		 pop	 edi

; 1497 : 		else
; 1498 : 			return (true);

  0002c	b0 01		 mov	 al, 1
  0002e	5e		 pop	 esi

; 1499 : 		}

  0002f	c2 04 00	 ret	 4
$L222788:
  00032	5f		 pop	 edi

; 1496 : 			return (false);	// don't ask

  00033	32 c0		 xor	 al, al
  00035	5e		 pop	 esi

; 1499 : 		}

  00036	c2 04 00	 ret	 4
?_Inside@?$basic_string@DU?$char_traits@D@std@@V?$allocator@D@2@@std@@IAE_NPBD@Z ENDP ; std::basic_string<char,std::char_traits<char>,std::allocator<char> >::_Inside
_TEXT	ENDS
PUBLIC	?_Color@?$_Tree@V?$_Tmap_traits@KPAVCUser@@U?$less@K@std@@V?$allocator@U?$pair@$$CBKPAVCUser@@@std@@@3@$0A@@std@@@std@@KAAADPAU_Node@?$_Tree_nod@V?$_Tmap_traits@KPAVCUser@@U?$less@K@std@@V?$allocator@U?$pair@$$CBKPAVCUser@@@std@@@3@$0A@@std@@@2@@Z ; std::_Tree<std::_Tmap_traits<unsigned long,CUser *,std::less<unsigned long>,std::allocator<std::pair<unsigned long const ,CUser *> >,0> >::_Color
; Function compile flags: /Ogty
; File c:\program files\microsoft visual studio .net 2003\vc7\include\xtree
;	COMDAT ?_Color@?$_Tree@V?$_Tmap_traits@KPAVCUser@@U?$less@K@std@@V?$allocator@U?$pair@$$CBKPAVCUser@@@std@@@3@$0A@@std@@@std@@KAAADPAU_Node@?$_Tree_nod@V?$_Tmap_traits@KPAVCUser@@U?$less@K@std@@V?$allocator@U?$pair@$$CBKPAVCUser@@@std@@@3@$0A@@std@@@2@@Z
_TEXT	SEGMENT
__Pnode$ = 8						; size = 4
?_Color@?$_Tree@V?$_Tmap_traits@KPAVCUser@@U?$less@K@std@@V?$allocator@U?$pair@$$CBKPAVCUser@@@std@@@3@$0A@@std@@@std@@KAAADPAU_Node@?$_Tree_nod@V?$_Tmap_traits@KPAVCUser@@U?$less@K@std@@V?$allocator@U?$pair@$$CBKPAVCUser@@@std@@@3@$0A@@std@@@2@@Z PROC NEAR ; std::_Tree<std::_Tmap_traits<unsigned long,CUser *,std::less<unsigned long>,std::allocator<std::pair<unsigned long const ,CUser *> >,0> >::_Color, COMDAT

; 132  : 		return ((_Charref)(*_Pnode)._Color);

  00000	8b 44 24 04	 mov	 eax, DWORD PTR __Pnode$[esp-4]
  00004	83 c0 14	 add	 eax, 20			; 00000014H

; 133  : 		}

  00007	c3		 ret	 0
?_Color@?$_Tree@V?$_Tmap_traits@KPAVCUser@@U?$less@K@std@@V?$allocator@U?$pair@$$CBKPAVCUser@@@std@@@3@$0A@@std@@@std@@KAAADPAU_Node@?$_Tree_nod@V?$_Tmap_traits@KPAVCUser@@U?$less@K@std@@V?$allocator@U?$pair@$$CBKPAVCUser@@@std@@@3@$0A@@std@@@2@@Z ENDP ; std::_Tree<std::_Tmap_traits<unsigned long,CUser *,std::less<unsigned long>,std::allocator<std::pair<unsigned long const ,CUser *> >,0> >::_Color
_TEXT	ENDS
PUBLIC	?_Left@?$_Tree@V?$_Tmap_traits@KPAVCUser@@U?$less@K@std@@V?$allocator@U?$pair@$$CBKPAVCUser@@@std@@@3@$0A@@std@@@std@@KAAAPAU_Node@?$_Tree_nod@V?$_Tmap_traits@KPAVCUser@@U?$less@K@std@@V?$allocator@U?$pair@$$CBKPAVCUser@@@std@@@3@$0A@@std@@@2@PAU342@@Z ; std::_Tree<std::_Tmap_traits<unsigned long,CUser *,std::less<unsigned long>,std::allocator<std::pair<unsigned long const ,CUser *> >,0> >::_Left
; Function compile flags: /Ogty
;	COMDAT ?_Left@?$_Tree@V?$_Tmap_traits@KPAVCUser@@U?$less@K@std@@V?$allocator@U?$pair@$$CBKPAVCUser@@@std@@@3@$0A@@std@@@std@@KAAAPAU_Node@?$_Tree_nod@V?$_Tmap_traits@KPAVCUser@@U?$less@K@std@@V?$allocator@U?$pair@$$CBKPAVCUser@@@std@@@3@$0A@@std@@@2@PAU342@@Z
_TEXT	SEGMENT
__Pnode$ = 8						; size = 4
?_Left@?$_Tree@V?$_Tmap_traits@KPAVCUser@@U?$less@K@std@@V?$allocator@U?$pair@$$CBKPAVCUser@@@std@@@3@$0A@@std@@@std@@KAAAPAU_Node@?$_Tree_nod@V?$_Tmap_traits@KPAVCUser@@U?$less@K@std@@V?$allocator@U?$pair@$$CBKPAVCUser@@@std@@@3@$0A@@std@@@2@PAU342@@Z PROC NEAR ; std::_Tree<std::_Tmap_traits<unsigned long,CUser *,std::less<unsigned long>,std::allocator<std::pair<unsigned long const ,CUser *> >,0> >::_Left, COMDAT

; 147  : 		return ((_Nodepref)(*_Pnode)._Left);

  00000	8b 44 24 04	 mov	 eax, DWORD PTR __Pnode$[esp-4]

; 148  : 		}

  00004	c3		 ret	 0
?_Left@?$_Tree@V?$_Tmap_traits@KPAVCUser@@U?$less@K@std@@V?$allocator@U?$pair@$$CBKPAVCUser@@@std@@@3@$0A@@std@@@std@@KAAAPAU_Node@?$_Tree_nod@V?$_Tmap_traits@KPAVCUser@@U?$less@K@std@@V?$allocator@U?$pair@$$CBKPAVCUser@@@std@@@3@$0A@@std@@@2@PAU342@@Z ENDP ; std::_Tree<std::_Tmap_traits<unsigned long,CUser *,std::less<unsigned long>,std::allocator<std::pair<unsigned long const ,CUser *> >,0> >::_Left
_TEXT	ENDS
PUBLIC	?_Parent@?$_Tree@V?$_Tmap_traits@KPAVCUser@@U?$less@K@std@@V?$allocator@U?$pair@$$CBKPAVCUser@@@std@@@3@$0A@@std@@@std@@KAAAPAU_Node@?$_Tree_nod@V?$_Tmap_traits@KPAVCUser@@U?$less@K@std@@V?$allocator@U?$pair@$$CBKPAVCUser@@@std@@@3@$0A@@std@@@2@PAU342@@Z ; std::_Tree<std::_Tmap_traits<unsigned long,CUser *,std::less<unsigned long>,std::allocator<std::pair<unsigned long const ,CUser *> >,0> >::_Parent
; Function compile flags: /Ogty
;	COMDAT ?_Parent@?$_Tree@V?$_Tmap_traits@KPAVCUser@@U?$less@K@std@@V?$allocator@U?$pair@$$CBKPAVCUser@@@std@@@3@$0A@@std@@@std@@KAAAPAU_Node@?$_Tree_nod@V?$_Tmap_traits@KPAVCUser@@U?$less@K@std@@V?$allocator@U?$pair@$$CBKPAVCUser@@@std@@@3@$0A@@std@@@2@PAU342@@Z
_TEXT	SEGMENT
__Pnode$ = 8						; size = 4
?_Parent@?$_Tree@V?$_Tmap_traits@KPAVCUser@@U?$less@K@std@@V?$allocator@U?$pair@$$CBKPAVCUser@@@std@@@3@$0A@@std@@@std@@KAAAPAU_Node@?$_Tree_nod@V?$_Tmap_traits@KPAVCUser@@U?$less@K@std@@V?$allocator@U?$pair@$$CBKPAVCUser@@@std@@@3@$0A@@std@@@2@PAU342@@Z PROC NEAR ; std::_Tree<std::_Tmap_traits<unsigned long,CUser *,std::less<unsigned long>,std::allocator<std::pair<unsigned long const ,CUser *> >,0> >::_Parent, COMDAT

; 152  : 		return ((_Nodepref)(*_Pnode)._Parent);

  00000	8b 44 24 04	 mov	 eax, DWORD PTR __Pnode$[esp-4]
  00004	83 c0 04	 add	 eax, 4

; 153  : 		}

  00007	c3		 ret	 0
?_Parent@?$_Tree@V?$_Tmap_traits@KPAVCUser@@U?$less@K@std@@V?$allocator@U?$pair@$$CBKPAVCUser@@@std@@@3@$0A@@std@@@std@@KAAAPAU_Node@?$_Tree_nod@V?$_Tmap_traits@KPAVCUser@@U?$less@K@std@@V?$allocator@U?$pair@$$CBKPAVCUser@@@std@@@3@$0A@@std@@@2@PAU342@@Z ENDP ; std::_Tree<std::_Tmap_traits<unsigned long,CUser *,std::less<unsigned long>,std::allocator<std::pair<unsigned long const ,CUser *> >,0> >::_Parent
_TEXT	ENDS
PUBLIC	?_Lmost@?$_Tree@V?$_Tmap_traits@KPAVCUser@@U?$less@K@std@@V?$allocator@U?$pair@$$CBKPAVCUser@@@std@@@3@$0A@@std@@@std@@IAEAAPAU_Node@?$_Tree_nod@V?$_Tmap_traits@KPAVCUser@@U?$less@K@std@@V?$allocator@U?$pair@$$CBKPAVCUser@@@std@@@3@$0A@@std@@@2@XZ ; std::_Tree<std::_Tmap_traits<unsigned long,CUser *,std::less<unsigned long>,std::allocator<std::pair<unsigned long const ,CUser *> >,0> >::_Lmost
; Function compile flags: /Ogty
;	COMDAT ?_Lmost@?$_Tree@V?$_Tmap_traits@KPAVCUser@@U?$less@K@std@@V?$allocator@U?$pair@$$CBKPAVCUser@@@std@@@3@$0A@@std@@@std@@IAEAAPAU_Node@?$_Tree_nod@V?$_Tmap_traits@KPAVCUser@@U?$less@K@std@@V?$allocator@U?$pair@$$CBKPAVCUser@@@std@@@3@$0A@@std@@@2@XZ
_TEXT	SEGMENT
?_Lmost@?$_Tree@V?$_Tmap_traits@KPAVCUser@@U?$less@K@std@@V?$allocator@U?$pair@$$CBKPAVCUser@@@std@@@3@$0A@@std@@@std@@IAEAAPAU_Node@?$_Tree_nod@V?$_Tmap_traits@KPAVCUser@@U?$less@K@std@@V?$allocator@U?$pair@$$CBKPAVCUser@@@std@@@3@$0A@@std@@@2@XZ PROC NEAR ; std::_Tree<std::_Tmap_traits<unsigned long,CUser *,std::less<unsigned long>,std::allocator<std::pair<unsigned long const ,CUser *> >,0> >::_Lmost, COMDAT
; _this$ = ecx

; 1005 : 		return (_Left(_Myhead));

  00000	8b 41 04	 mov	 eax, DWORD PTR [ecx+4]

; 1006 : 		}

  00003	c3		 ret	 0
?_Lmost@?$_Tree@V?$_Tmap_traits@KPAVCUser@@U?$less@K@std@@V?$allocator@U?$pair@$$CBKPAVCUser@@@std@@@3@$0A@@std@@@std@@IAEAAPAU_Node@?$_Tree_nod@V?$_Tmap_traits@KPAVCUser@@U?$less@K@std@@V?$allocator@U?$pair@$$CBKPAVCUser@@@std@@@3@$0A@@std@@@2@XZ ENDP ; std::_Tree<std::_Tmap_traits<unsigned long,CUser *,std::less<unsigned long>,std::allocator<std::pair<unsigned long const ,CUser *> >,0> >::_Lmost
_TEXT	ENDS
PUBLIC	?_Max@?$_Tree@V?$_Tmap_traits@KPAVCUser@@U?$less@K@std@@V?$allocator@U?$pair@$$CBKPAVCUser@@@std@@@3@$0A@@std@@@std@@KAPAU_Node@?$_Tree_nod@V?$_Tmap_traits@KPAVCUser@@U?$less@K@std@@V?$allocator@U?$pair@$$CBKPAVCUser@@@std@@@3@$0A@@std@@@2@PAU342@@Z ; std::_Tree<std::_Tmap_traits<unsigned long,CUser *,std::less<unsigned long>,std::allocator<std::pair<unsigned long const ,CUser *> >,0> >::_Max
; Function compile flags: /Ogty
;	COMDAT ?_Max@?$_Tree@V?$_Tmap_traits@KPAVCUser@@U?$less@K@std@@V?$allocator@U?$pair@$$CBKPAVCUser@@@std@@@3@$0A@@std@@@std@@KAPAU_Node@?$_Tree_nod@V?$_Tmap_traits@KPAVCUser@@U?$less@K@std@@V?$allocator@U?$pair@$$CBKPAVCUser@@@std@@@3@$0A@@std@@@2@PAU342@@Z
_TEXT	SEGMENT
__Pnode$ = 8						; size = 4
?_Max@?$_Tree@V?$_Tmap_traits@KPAVCUser@@U?$less@K@std@@V?$allocator@U?$pair@$$CBKPAVCUser@@@std@@@3@$0A@@std@@@std@@KAPAU_Node@?$_Tree_nod@V?$_Tmap_traits@KPAVCUser@@U?$less@K@std@@V?$allocator@U?$pair@$$CBKPAVCUser@@@std@@@3@$0A@@std@@@2@PAU342@@Z PROC NEAR ; std::_Tree<std::_Tmap_traits<unsigned long,CUser *,std::less<unsigned long>,std::allocator<std::pair<unsigned long const ,CUser *> >,0> >::_Max, COMDAT

; 1035 : 		while (!_Isnil(_Right(_Pnode)))

  00000	8b 44 24 04	 mov	 eax, DWORD PTR __Pnode$[esp-4]
  00004	8b 48 08	 mov	 ecx, DWORD PTR [eax+8]
  00007	8a 51 15	 mov	 dl, BYTE PTR [ecx+21]
  0000a	84 d2		 test	 dl, dl
  0000c	75 0e		 jne	 SHORT $L222822
  0000e	8b ff		 npad	 2
$L222821:

; 1036 : 			_Pnode = _Right(_Pnode);

  00010	8b c1		 mov	 eax, ecx
  00012	8b 48 08	 mov	 ecx, DWORD PTR [eax+8]
  00015	8a 51 15	 mov	 dl, BYTE PTR [ecx+21]
  00018	84 d2		 test	 dl, dl
  0001a	74 f4		 je	 SHORT $L222821
$L222822:

; 1037 : 		return (_Pnode);
; 1038 : 		}

  0001c	c3		 ret	 0
?_Max@?$_Tree@V?$_Tmap_traits@KPAVCUser@@U?$less@K@std@@V?$allocator@U?$pair@$$CBKPAVCUser@@@std@@@3@$0A@@std@@@std@@KAPAU_Node@?$_Tree_nod@V?$_Tmap_traits@KPAVCUser@@U?$less@K@std@@V?$allocator@U?$pair@$$CBKPAVCUser@@@std@@@3@$0A@@std@@@2@PAU342@@Z ENDP ; std::_Tree<std::_Tmap_traits<unsigned long,CUser *,std::less<unsigned long>,std::allocator<std::pair<unsigned long const ,CUser *> >,0> >::_Max
_TEXT	ENDS
PUBLIC	?_Min@?$_Tree@V?$_Tmap_traits@KPAVCUser@@U?$less@K@std@@V?$allocator@U?$pair@$$CBKPAVCUser@@@std@@@3@$0A@@std@@@std@@KAPAU_Node@?$_Tree_nod@V?$_Tmap_traits@KPAVCUser@@U?$less@K@std@@V?$allocator@U?$pair@$$CBKPAVCUser@@@std@@@3@$0A@@std@@@2@PAU342@@Z ; std::_Tree<std::_Tmap_traits<unsigned long,CUser *,std::less<unsigned long>,std::allocator<std::pair<unsigned long const ,CUser *> >,0> >::_Min
; Function compile flags: /Ogty
;	COMDAT ?_Min@?$_Tree@V?$_Tmap_traits@KPAVCUser@@U?$less@K@std@@V?$allocator@U?$pair@$$CBKPAVCUser@@@std@@@3@$0A@@std@@@std@@KAPAU_Node@?$_Tree_nod@V?$_Tmap_traits@KPAVCUser@@U?$less@K@std@@V?$allocator@U?$pair@$$CBKPAVCUser@@@std@@@3@$0A@@std@@@2@PAU342@@Z
_TEXT	SEGMENT
__Pnode$ = 8						; size = 4
?_Min@?$_Tree@V?$_Tmap_traits@KPAVCUser@@U?$less@K@std@@V?$allocator@U?$pair@$$CBKPAVCUser@@@std@@@3@$0A@@std@@@std@@KAPAU_Node@?$_Tree_nod@V?$_Tmap_traits@KPAVCUser@@U?$less@K@std@@V?$allocator@U?$pair@$$CBKPAVCUser@@@std@@@3@$0A@@std@@@2@PAU342@@Z PROC NEAR ; std::_Tree<std::_Tmap_traits<unsigned long,CUser *,std::less<unsigned long>,std::allocator<std::pair<unsigned long const ,CUser *> >,0> >::_Min, COMDAT

; 1042 : 		while (!_Isnil(_Left(_Pnode)))

  00000	8b 44 24 04	 mov	 eax, DWORD PTR __Pnode$[esp-4]
  00004	8b 08		 mov	 ecx, DWORD PTR [eax]
  00006	8a 51 15	 mov	 dl, BYTE PTR [ecx+21]
  00009	84 d2		 test	 dl, dl
  0000b	75 0e		 jne	 SHORT $L222826
  0000d	8d 49 00	 npad	 3
$L222825:

; 1043 : 			_Pnode = _Left(_Pnode);

  00010	8b c1		 mov	 eax, ecx
  00012	8b 08		 mov	 ecx, DWORD PTR [eax]
  00014	8a 51 15	 mov	 dl, BYTE PTR [ecx+21]
  00017	84 d2		 test	 dl, dl
  00019	74 f5		 je	 SHORT $L222825
$L222826:

; 1044 : 		return (_Pnode);
; 1045 : 		}

  0001b	c3		 ret	 0
?_Min@?$_Tree@V?$_Tmap_traits@KPAVCUser@@U?$less@K@std@@V?$allocator@U?$pair@$$CBKPAVCUser@@@std@@@3@$0A@@std@@@std@@KAPAU_Node@?$_Tree_nod@V?$_Tmap_traits@KPAVCUser@@U?$less@K@std@@V?$allocator@U?$pair@$$CBKPAVCUser@@@std@@@3@$0A@@std@@@2@PAU342@@Z ENDP ; std::_Tree<std::_Tmap_traits<unsigned long,CUser *,std::less<unsigned long>,std::allocator<std::pair<unsigned long const ,CUser *> >,0> >::_Min
_TEXT	ENDS
PUBLIC	?_Root@?$_Tree@V?$_Tmap_traits@KPAVCUser@@U?$less@K@std@@V?$allocator@U?$pair@$$CBKPAVCUser@@@std@@@3@$0A@@std@@@std@@IAEAAPAU_Node@?$_Tree_nod@V?$_Tmap_traits@KPAVCUser@@U?$less@K@std@@V?$allocator@U?$pair@$$CBKPAVCUser@@@std@@@3@$0A@@std@@@2@XZ ; std::_Tree<std::_Tmap_traits<unsigned long,CUser *,std::less<unsigned long>,std::allocator<std::pair<unsigned long const ,CUser *> >,0> >::_Root
; Function compile flags: /Ogty
;	COMDAT ?_Root@?$_Tree@V?$_Tmap_traits@KPAVCUser@@U?$less@K@std@@V?$allocator@U?$pair@$$CBKPAVCUser@@@std@@@3@$0A@@std@@@std@@IAEAAPAU_Node@?$_Tree_nod@V?$_Tmap_traits@KPAVCUser@@U?$less@K@std@@V?$allocator@U?$pair@$$CBKPAVCUser@@@std@@@3@$0A@@std@@@2@XZ
_TEXT	SEGMENT
?_Root@?$_Tree@V?$_Tmap_traits@KPAVCUser@@U?$less@K@std@@V?$allocator@U?$pair@$$CBKPAVCUser@@@std@@@3@$0A@@std@@@std@@IAEAAPAU_Node@?$_Tree_nod@V?$_Tmap_traits@KPAVCUser@@U?$less@K@std@@V?$allocator@U?$pair@$$CBKPAVCUser@@@std@@@3@$0A@@std@@@2@XZ PROC NEAR ; std::_Tree<std::_Tmap_traits<unsigned long,CUser *,std::less<unsigned long>,std::allocator<std::pair<unsigned long const ,CUser *> >,0> >::_Root, COMDAT
; _this$ = ecx

; 1059 : 		return (_Parent(_Myhead));

  00000	8b 41 04	 mov	 eax, DWORD PTR [ecx+4]
  00003	83 c0 04	 add	 eax, 4

; 1060 : 		}

  00006	c3		 ret	 0
?_Root@?$_Tree@V?$_Tmap_traits@KPAVCUser@@U?$less@K@std@@V?$allocator@U?$pair@$$CBKPAVCUser@@@std@@@3@$0A@@std@@@std@@IAEAAPAU_Node@?$_Tree_nod@V?$_Tmap_traits@KPAVCUser@@U?$less@K@std@@V?$allocator@U?$pair@$$CBKPAVCUser@@@std@@@3@$0A@@std@@@2@XZ ENDP ; std::_Tree<std::_Tmap_traits<unsigned long,CUser *,std::less<unsigned long>,std::allocator<std::pair<unsigned long const ,CUser *> >,0> >::_Root
_TEXT	ENDS
PUBLIC	?_Root@?$_Tree@V?$_Tmap_traits@KPAVCUser@@U?$less@K@std@@V?$allocator@U?$pair@$$CBKPAVCUser@@@std@@@3@$0A@@std@@@std@@IBEAAPAU_Node@?$_Tree_nod@V?$_Tmap_traits@KPAVCUser@@U?$less@K@std@@V?$allocator@U?$pair@$$CBKPAVCUser@@@std@@@3@$0A@@std@@@2@XZ ; std::_Tree<std::_Tmap_traits<unsigned long,CUser *,std::less<unsigned long>,std::allocator<std::pair<unsigned long const ,CUser *> >,0> >::_Root
; Function compile flags: /Ogty
;	COMDAT ?_Root@?$_Tree@V?$_Tmap_traits@KPAVCUser@@U?$less@K@std@@V?$allocator@U?$pair@$$CBKPAVCUser@@@std@@@3@$0A@@std@@@std@@IBEAAPAU_Node@?$_Tree_nod@V?$_Tmap_traits@KPAVCUser@@U?$less@K@std@@V?$allocator@U?$pair@$$CBKPAVCUser@@@std@@@3@$0A@@std@@@2@XZ
_TEXT	SEGMENT
?_Root@?$_Tree@V?$_Tmap_traits@KPAVCUser@@U?$less@K@std@@V?$allocator@U?$pair@$$CBKPAVCUser@@@std@@@3@$0A@@std@@@std@@IBEAAPAU_Node@?$_Tree_nod@V?$_Tmap_traits@KPAVCUser@@U?$less@K@std@@V?$allocator@U?$pair@$$CBKPAVCUser@@@std@@@3@$0A@@std@@@2@XZ PROC NEAR ; std::_Tree<std::_Tmap_traits<unsigned long,CUser *,std::less<unsigned long>,std::allocator<std::pair<unsigned long const ,CUser *> >,0> >::_Root, COMDAT
; _this$ = ecx

; 1064 : 		return (_Parent(_Myhead));

  00000	8b 41 04	 mov	 eax, DWORD PTR [ecx+4]
  00003	83 c0 04	 add	 eax, 4

; 1065 : 		}

  00006	c3		 ret	 0
?_Root@?$_Tree@V?$_Tmap_traits@KPAVCUser@@U?$less@K@std@@V?$allocator@U?$pair@$$CBKPAVCUser@@@std@@@3@$0A@@std@@@std@@IBEAAPAU_Node@?$_Tree_nod@V?$_Tmap_traits@KPAVCUser@@U?$less@K@std@@V?$allocator@U?$pair@$$CBKPAVCUser@@@std@@@3@$0A@@std@@@2@XZ ENDP ; std::_Tree<std::_Tmap_traits<unsigned long,CUser *,std::less<unsigned long>,std::allocator<std::pair<unsigned long const ,CUser *> >,0> >::_Root
_TEXT	ENDS
PUBLIC	?_Rrotate@?$_Tree@V?$_Tmap_traits@KPAVCUser@@U?$less@K@std@@V?$allocator@U?$pair@$$CBKPAVCUser@@@std@@@3@$0A@@std@@@std@@IAEXPAU_Node@?$_Tree_nod@V?$_Tmap_traits@KPAVCUser@@U?$less@K@std@@V?$allocator@U?$pair@$$CBKPAVCUser@@@std@@@3@$0A@@std@@@2@@Z ; std::_Tree<std::_Tmap_traits<unsigned long,CUser *,std::less<unsigned long>,std::allocator<std::pair<unsigned long const ,CUser *> >,0> >::_Rrotate
; Function compile flags: /Ogty
;	COMDAT ?_Rrotate@?$_Tree@V?$_Tmap_traits@KPAVCUser@@U?$less@K@std@@V?$allocator@U?$pair@$$CBKPAVCUser@@@std@@@3@$0A@@std@@@std@@IAEXPAU_Node@?$_Tree_nod@V?$_Tmap_traits@KPAVCUser@@U?$less@K@std@@V?$allocator@U?$pair@$$CBKPAVCUser@@@std@@@3@$0A@@std@@@2@@Z
_TEXT	SEGMENT
__Wherenode$ = 8					; size = 4
?_Rrotate@?$_Tree@V?$_Tmap_traits@KPAVCUser@@U?$less@K@std@@V?$allocator@U?$pair@$$CBKPAVCUser@@@std@@@3@$0A@@std@@@std@@IAEXPAU_Node@?$_Tree_nod@V?$_Tmap_traits@KPAVCUser@@U?$less@K@std@@V?$allocator@U?$pair@$$CBKPAVCUser@@@std@@@3@$0A@@std@@@2@@Z PROC NEAR ; std::_Tree<std::_Tmap_traits<unsigned long,CUser *,std::less<unsigned long>,std::allocator<std::pair<unsigned long const ,CUser *> >,0> >::_Rrotate, COMDAT
; _this$ = ecx

; 1069 : 		_Nodeptr _Pnode = _Left(_Wherenode);

  00000	8b 54 24 04	 mov	 edx, DWORD PTR __Wherenode$[esp-4]
  00004	8b 02		 mov	 eax, DWORD PTR [edx]
  00006	53		 push	 ebx
  00007	56		 push	 esi

; 1070 : 		_Left(_Wherenode) = _Right(_Pnode);

  00008	8b 70 08	 mov	 esi, DWORD PTR [eax+8]
  0000b	89 32		 mov	 DWORD PTR [edx], esi

; 1071 : 
; 1072 : 		if (!_Isnil(_Right(_Pnode)))

  0000d	8b 70 08	 mov	 esi, DWORD PTR [eax+8]
  00010	8a 5e 15	 mov	 bl, BYTE PTR [esi+21]
  00013	84 db		 test	 bl, bl
  00015	75 03		 jne	 SHORT $L222834

; 1073 : 			_Parent(_Right(_Pnode)) = _Wherenode;

  00017	89 56 04	 mov	 DWORD PTR [esi+4], edx
$L222834:

; 1074 : 		_Parent(_Pnode) = _Parent(_Wherenode);

  0001a	8b 72 04	 mov	 esi, DWORD PTR [edx+4]
  0001d	89 70 04	 mov	 DWORD PTR [eax+4], esi

; 1075 : 
; 1076 : 		if (_Wherenode == _Root())

  00020	8b 49 04	 mov	 ecx, DWORD PTR [ecx+4]
  00023	3b 51 04	 cmp	 edx, DWORD PTR [ecx+4]
  00026	75 0e		 jne	 SHORT $L222835

; 1077 : 			_Root() = _Pnode;

  00028	89 41 04	 mov	 DWORD PTR [ecx+4], eax
  0002b	5e		 pop	 esi

; 1082 : 
; 1083 : 		_Right(_Pnode) = _Wherenode;

  0002c	89 50 08	 mov	 DWORD PTR [eax+8], edx

; 1084 : 		_Parent(_Wherenode) = _Pnode;

  0002f	89 42 04	 mov	 DWORD PTR [edx+4], eax
  00032	5b		 pop	 ebx

; 1085 : 		}

  00033	c2 04 00	 ret	 4
$L222835:

; 1078 : 		else if (_Wherenode == _Right(_Parent(_Wherenode)))

  00036	8b 4a 04	 mov	 ecx, DWORD PTR [edx+4]
  00039	3b 51 08	 cmp	 edx, DWORD PTR [ecx+8]
  0003c	75 0e		 jne	 SHORT $L222837

; 1079 : 			_Right(_Parent(_Wherenode)) = _Pnode;

  0003e	89 41 08	 mov	 DWORD PTR [ecx+8], eax
  00041	5e		 pop	 esi

; 1082 : 
; 1083 : 		_Right(_Pnode) = _Wherenode;

  00042	89 50 08	 mov	 DWORD PTR [eax+8], edx

; 1084 : 		_Parent(_Wherenode) = _Pnode;

  00045	89 42 04	 mov	 DWORD PTR [edx+4], eax
  00048	5b		 pop	 ebx

; 1085 : 		}

  00049	c2 04 00	 ret	 4
$L222837:

; 1080 : 		else
; 1081 : 			_Left(_Parent(_Wherenode)) = _Pnode;

  0004c	89 01		 mov	 DWORD PTR [ecx], eax
  0004e	5e		 pop	 esi

; 1082 : 
; 1083 : 		_Right(_Pnode) = _Wherenode;

  0004f	89 50 08	 mov	 DWORD PTR [eax+8], edx

; 1084 : 		_Parent(_Wherenode) = _Pnode;

  00052	89 42 04	 mov	 DWORD PTR [edx+4], eax
  00055	5b		 pop	 ebx

; 1085 : 		}

  00056	c2 04 00	 ret	 4
?_Rrotate@?$_Tree@V?$_Tmap_traits@KPAVCUser@@U?$less@K@std@@V?$allocator@U?$pair@$$CBKPAVCUser@@@std@@@3@$0A@@std@@@std@@IAEXPAU_Node@?$_Tree_nod@V?$_Tmap_traits@KPAVCUser@@U?$less@K@std@@V?$allocator@U?$pair@$$CBKPAVCUser@@@std@@@3@$0A@@std@@@2@@Z ENDP ; std::_Tree<std::_Tmap_traits<unsigned long,CUser *,std::less<unsigned long>,std::allocator<std::pair<unsigned long const ,CUser *> >,0> >::_Rrotate
_TEXT	ENDS
PUBLIC	?deallocate@?$allocator@U_Node@?$_Tree_nod@V?$_Tmap_traits@KPAVCUser@@U?$less@K@std@@V?$allocator@U?$pair@$$CBKPAVCUser@@@std@@@3@$0A@@std@@@std@@@std@@QAEXPAU_Node@?$_Tree_nod@V?$_Tmap_traits@KPAVCUser@@U?$less@K@std@@V?$allocator@U?$pair@$$CBKPAVCUser@@@std@@@3@$0A@@std@@@2@I@Z ; std::allocator<std::_Tree_nod<std::_Tmap_traits<unsigned long,CUser *,std::less<unsigned long>,std::allocator<std::pair<unsigned long const ,CUser *> >,0> >::_Node>::deallocate
; Function compile flags: /Ogty
; File c:\program files\microsoft visual studio .net 2003\vc7\include\xmemory
;	COMDAT ?deallocate@?$allocator@U_Node@?$_Tree_nod@V?$_Tmap_traits@KPAVCUser@@U?$less@K@std@@V?$allocator@U?$pair@$$CBKPAVCUser@@@std@@@3@$0A@@std@@@std@@@std@@QAEXPAU_Node@?$_Tree_nod@V?$_Tmap_traits@KPAVCUser@@U?$less@K@std@@V?$allocator@U?$pair@$$CBKPAVCUser@@@std@@@3@$0A@@std@@@2@I@Z
_TEXT	SEGMENT
__Ptr$ = 8						; size = 4
___formal$ = 12						; size = 4
?deallocate@?$allocator@U_Node@?$_Tree_nod@V?$_Tmap_traits@KPAVCUser@@U?$less@K@std@@V?$allocator@U?$pair@$$CBKPAVCUser@@@std@@@3@$0A@@std@@@std@@@std@@QAEXPAU_Node@?$_Tree_nod@V?$_Tmap_traits@KPAVCUser@@U?$less@K@std@@V?$allocator@U?$pair@$$CBKPAVCUser@@@std@@@3@$0A@@std@@@2@I@Z PROC NEAR ; std::allocator<std::_Tree_nod<std::_Tmap_traits<unsigned long,CUser *,std::less<unsigned long>,std::allocator<std::pair<unsigned long const ,CUser *> >,0> >::_Node>::deallocate, COMDAT
; _this$ = ecx

; 132  : 		operator delete(_Ptr);

  00000	8b 44 24 04	 mov	 eax, DWORD PTR __Ptr$[esp-4]
  00004	50		 push	 eax
  00005	e8 00 00 00 00	 call	 ??3@YAXPAX@Z		; operator delete
  0000a	59		 pop	 ecx

; 133  : 		}

  0000b	c2 08 00	 ret	 8
?deallocate@?$allocator@U_Node@?$_Tree_nod@V?$_Tmap_traits@KPAVCUser@@U?$less@K@std@@V?$allocator@U?$pair@$$CBKPAVCUser@@@std@@@3@$0A@@std@@@std@@@std@@QAEXPAU_Node@?$_Tree_nod@V?$_Tmap_traits@KPAVCUser@@U?$less@K@std@@V?$allocator@U?$pair@$$CBKPAVCUser@@@std@@@3@$0A@@std@@@2@I@Z ENDP ; std::allocator<std::_Tree_nod<std::_Tmap_traits<unsigned long,CUser *,std::less<unsigned long>,std::allocator<std::pair<unsigned long const ,CUser *> >,0> >::_Node>::deallocate
_TEXT	ENDS
PUBLIC	??0const_iterator@?$_Tree@V?$_Tmap_traits@KPAVCUser@@U?$less@K@std@@V?$allocator@U?$pair@$$CBKPAVCUser@@@std@@@3@$0A@@std@@@std@@QAE@XZ ; std::_Tree<std::_Tmap_traits<unsigned long,CUser *,std::less<unsigned long>,std::allocator<std::pair<unsigned long const ,CUser *> >,0> >::const_iterator::const_iterator
; Function compile flags: /Ogty
; File c:\program files\microsoft visual studio .net 2003\vc7\include\xtree
;	COMDAT ??0const_iterator@?$_Tree@V?$_Tmap_traits@KPAVCUser@@U?$less@K@std@@V?$allocator@U?$pair@$$CBKPAVCUser@@@std@@@3@$0A@@std@@@std@@QAE@XZ
_TEXT	SEGMENT
??0const_iterator@?$_Tree@V?$_Tmap_traits@KPAVCUser@@U?$less@K@std@@V?$allocator@U?$pair@$$CBKPAVCUser@@@std@@@3@$0A@@std@@@std@@QAE@XZ PROC NEAR ; std::_Tree<std::_Tmap_traits<unsigned long,CUser *,std::less<unsigned long>,std::allocator<std::pair<unsigned long const ,CUser *> >,0> >::const_iterator::const_iterator, COMDAT
; _this$ = ecx

; 193  : 			{	// construct with null node pointer

  00000	8b c1		 mov	 eax, ecx
  00002	c7 00 00 00 00
	00		 mov	 DWORD PTR [eax], 0

; 194  : 			}

  00008	c3		 ret	 0
??0const_iterator@?$_Tree@V?$_Tmap_traits@KPAVCUser@@U?$less@K@std@@V?$allocator@U?$pair@$$CBKPAVCUser@@@std@@@3@$0A@@std@@@std@@QAE@XZ ENDP ; std::_Tree<std::_Tmap_traits<unsigned long,CUser *,std::less<unsigned long>,std::allocator<std::pair<unsigned long const ,CUser *> >,0> >::const_iterator::const_iterator
_TEXT	ENDS
PUBLIC	??0const_iterator@?$_Tree@V?$_Tmap_traits@KPAVCUser@@U?$less@K@std@@V?$allocator@U?$pair@$$CBKPAVCUser@@@std@@@3@$0A@@std@@@std@@QAE@PAU_Node@?$_Tree_nod@V?$_Tmap_traits@KPAVCUser@@U?$less@K@std@@V?$allocator@U?$pair@$$CBKPAVCUser@@@std@@@3@$0A@@std@@@2@@Z ; std::_Tree<std::_Tmap_traits<unsigned long,CUser *,std::less<unsigned long>,std::allocator<std::pair<unsigned long const ,CUser *> >,0> >::const_iterator::const_iterator
; Function compile flags: /Ogty
;	COMDAT ??0const_iterator@?$_Tree@V?$_Tmap_traits@KPAVCUser@@U?$less@K@std@@V?$allocator@U?$pair@$$CBKPAVCUser@@@std@@@3@$0A@@std@@@std@@QAE@PAU_Node@?$_Tree_nod@V?$_Tmap_traits@KPAVCUser@@U?$less@K@std@@V?$allocator@U?$pair@$$CBKPAVCUser@@@std@@@3@$0A@@std@@@2@@Z
_TEXT	SEGMENT
__Pnode$ = 8						; size = 4
??0const_iterator@?$_Tree@V?$_Tmap_traits@KPAVCUser@@U?$less@K@std@@V?$allocator@U?$pair@$$CBKPAVCUser@@@std@@@3@$0A@@std@@@std@@QAE@PAU_Node@?$_Tree_nod@V?$_Tmap_traits@KPAVCUser@@U?$less@K@std@@V?$allocator@U?$pair@$$CBKPAVCUser@@@std@@@3@$0A@@std@@@2@@Z PROC NEAR ; std::_Tree<std::_Tmap_traits<unsigned long,CUser *,std::less<unsigned long>,std::allocator<std::pair<unsigned long const ,CUser *> >,0> >::const_iterator::const_iterator, COMDAT
; _this$ = ecx

; 200  : 			{	// construct with node pointer _Pnode

  00000	8b c1		 mov	 eax, ecx
  00002	8b 4c 24 04	 mov	 ecx, DWORD PTR __Pnode$[esp-4]
  00006	89 08		 mov	 DWORD PTR [eax], ecx

; 201  : 			}

  00008	c2 04 00	 ret	 4
??0const_iterator@?$_Tree@V?$_Tmap_traits@KPAVCUser@@U?$less@K@std@@V?$allocator@U?$pair@$$CBKPAVCUser@@@std@@@3@$0A@@std@@@std@@QAE@PAU_Node@?$_Tree_nod@V?$_Tmap_traits@KPAVCUser@@U?$less@K@std@@V?$allocator@U?$pair@$$CBKPAVCUser@@@std@@@3@$0A@@std@@@2@@Z ENDP ; std::_Tree<std::_Tmap_traits<unsigned long,CUser *,std::less<unsigned long>,std::allocator<std::pair<unsigned long const ,CUser *> >,0> >::const_iterator::const_iterator
_TEXT	ENDS
PUBLIC	?max_size@?$allocator@UD3DXVECTOR3@@@std@@QBEIXZ ; std::allocator<D3DXVECTOR3>::max_size
; Function compile flags: /Ogty
; File c:\program files\microsoft visual studio .net 2003\vc7\include\xmemory
;	COMDAT ?max_size@?$allocator@UD3DXVECTOR3@@@std@@QBEIXZ
_TEXT	SEGMENT
?max_size@?$allocator@UD3DXVECTOR3@@@std@@QBEIXZ PROC NEAR ; std::allocator<D3DXVECTOR3>::max_size, COMDAT
; _this$ = ecx

; 157  : 		_SIZT _Count = (_SIZT)(-1) / sizeof (_Ty);
; 158  : 		return (0 < _Count ? _Count : 1);

  00000	b8 55 55 55 15	 mov	 eax, 357913941		; 15555555H

; 159  : 		}

  00005	c3		 ret	 0
?max_size@?$allocator@UD3DXVECTOR3@@@std@@QBEIXZ ENDP	; std::allocator<D3DXVECTOR3>::max_size
_TEXT	ENDS
PUBLIC	??0?$pair@Viterator@?$_Tree@V?$_Tmap_traits@KPAVCUser@@U?$less@K@std@@V?$allocator@U?$pair@$$CBKPAVCUser@@@std@@@3@$0A@@std@@@std@@_N@std@@QAE@ABViterator@?$_Tree@V?$_Tmap_traits@KPAVCUser@@U?$less@K@std@@V?$allocator@U?$pair@$$CBKPAVCUser@@@std@@@3@$0A@@std@@@1@AB_N@Z ; std::pair<std::_Tree<std::_Tmap_traits<unsigned long,CUser *,std::less<unsigned long>,std::allocator<std::pair<unsigned long const ,CUser *> >,0> >::iterator,bool>::pair<std::_Tree<std::_Tmap_traits<unsigned long,CUser *,std::less<unsigned long>,std::allocator<std::pair<unsigned long const ,CUser *> >,0> >::iterator,bool>
; Function compile flags: /Ogty
; File c:\program files\microsoft visual studio .net 2003\vc7\include\utility
;	COMDAT ??0?$pair@Viterator@?$_Tree@V?$_Tmap_traits@KPAVCUser@@U?$less@K@std@@V?$allocator@U?$pair@$$CBKPAVCUser@@@std@@@3@$0A@@std@@@std@@_N@std@@QAE@ABViterator@?$_Tree@V?$_Tmap_traits@KPAVCUser@@U?$less@K@std@@V?$allocator@U?$pair@$$CBKPAVCUser@@@std@@@3@$0A@@std@@@1@AB_N@Z
_TEXT	SEGMENT
__Val1$ = 8						; size = 4
__Val2$ = 12						; size = 4
??0?$pair@Viterator@?$_Tree@V?$_Tmap_traits@KPAVCUser@@U?$less@K@std@@V?$allocator@U?$pair@$$CBKPAVCUser@@@std@@@3@$0A@@std@@@std@@_N@std@@QAE@ABViterator@?$_Tree@V?$_Tmap_traits@KPAVCUser@@U?$less@K@std@@V?$allocator@U?$pair@$$CBKPAVCUser@@@std@@@3@$0A@@std@@@1@AB_N@Z PROC NEAR ; std::pair<std::_Tree<std::_Tmap_traits<unsigned long,CUser *,std::less<unsigned long>,std::allocator<std::pair<unsigned long const ,CUser *> >,0> >::iterator,bool>::pair<std::_Tree<std::_Tmap_traits<unsigned long,CUser *,std::less<unsigned long>,std::allocator<std::pair<unsigned long const ,CUser *> >,0> >::iterator,bool>, COMDAT
; _this$ = ecx

; 34   : 		{	// construct from specified values

  00000	8b c1		 mov	 eax, ecx
  00002	8b 4c 24 04	 mov	 ecx, DWORD PTR __Val1$[esp-4]
  00006	8b 11		 mov	 edx, DWORD PTR [ecx]
  00008	8b 4c 24 08	 mov	 ecx, DWORD PTR __Val2$[esp-4]
  0000c	89 10		 mov	 DWORD PTR [eax], edx
  0000e	8a 11		 mov	 dl, BYTE PTR [ecx]
  00010	88 50 04	 mov	 BYTE PTR [eax+4], dl

; 35   : 		}

  00013	c2 08 00	 ret	 8
??0?$pair@Viterator@?$_Tree@V?$_Tmap_traits@KPAVCUser@@U?$less@K@std@@V?$allocator@U?$pair@$$CBKPAVCUser@@@std@@@3@$0A@@std@@@std@@_N@std@@QAE@ABViterator@?$_Tree@V?$_Tmap_traits@KPAVCUser@@U?$less@K@std@@V?$allocator@U?$pair@$$CBKPAVCUser@@@std@@@3@$0A@@std@@@1@AB_N@Z ENDP ; std::pair<std::_Tree<std::_Tmap_traits<unsigned long,CUser *,std::less<unsigned long>,std::allocator<std::pair<unsigned long const ,CUser *> >,0> >::iterator,bool>::pair<std::_Tree<std::_Tmap_traits<unsigned long,CUser *,std::less<unsigned long>,std::allocator<std::pair<unsigned long const ,CUser *> >,0> >::iterator,bool>
_TEXT	ENDS
PUBLIC	?max_size@?$allocator@D@std@@QBEIXZ		; std::allocator<char>::max_size
; Function compile flags: /Ogty
; File c:\program files\microsoft visual studio .net 2003\vc7\include\xmemory
;	COMDAT ?max_size@?$allocator@D@std@@QBEIXZ
_TEXT	SEGMENT
?max_size@?$allocator@D@std@@QBEIXZ PROC NEAR		; std::allocator<char>::max_size, COMDAT
; _this$ = ecx

; 157  : 		_SIZT _Count = (_SIZT)(-1) / sizeof (_Ty);
; 158  : 		return (0 < _Count ? _Count : 1);

  00000	83 c8 ff	 or	 eax, -1

; 159  : 		}

  00003	c3		 ret	 0
?max_size@?$allocator@D@std@@QBEIXZ ENDP		; std::allocator<char>::max_size
_TEXT	ENDS
PUBLIC	?max_size@?$allocator@U?$pair@$$CBKPAVCUser@@@std@@@std@@QBEIXZ ; std::allocator<std::pair<unsigned long const ,CUser *> >::max_size
; Function compile flags: /Ogty
;	COMDAT ?max_size@?$allocator@U?$pair@$$CBKPAVCUser@@@std@@@std@@QBEIXZ
_TEXT	SEGMENT
?max_size@?$allocator@U?$pair@$$CBKPAVCUser@@@std@@@std@@QBEIXZ PROC NEAR ; std::allocator<std::pair<unsigned long const ,CUser *> >::max_size, COMDAT
; _this$ = ecx

; 157  : 		_SIZT _Count = (_SIZT)(-1) / sizeof (_Ty);
; 158  : 		return (0 < _Count ? _Count : 1);

  00000	b8 ff ff ff 1f	 mov	 eax, 536870911		; 1fffffffH

; 159  : 		}

  00005	c3		 ret	 0
?max_size@?$allocator@U?$pair@$$CBKPAVCUser@@@std@@@std@@QBEIXZ ENDP ; std::allocator<std::pair<unsigned long const ,CUser *> >::max_size
_TEXT	ENDS
PUBLIC	?_Dec@const_iterator@?$_Tree@V?$_Tmap_traits@KPAVCUser@@U?$less@K@std@@V?$allocator@U?$pair@$$CBKPAVCUser@@@std@@@3@$0A@@std@@@std@@QAEXXZ ; std::_Tree<std::_Tmap_traits<unsigned long,CUser *,std::less<unsigned long>,std::allocator<std::pair<unsigned long const ,CUser *> >,0> >::const_iterator::_Dec
; Function compile flags: /Ogty
; File c:\program files\microsoft visual studio .net 2003\vc7\include\xtree
;	COMDAT ?_Dec@const_iterator@?$_Tree@V?$_Tmap_traits@KPAVCUser@@U?$less@K@std@@V?$allocator@U?$pair@$$CBKPAVCUser@@@std@@@3@$0A@@std@@@std@@QAEXXZ
_TEXT	SEGMENT
?_Dec@const_iterator@?$_Tree@V?$_Tmap_traits@KPAVCUser@@U?$less@K@std@@V?$allocator@U?$pair@$$CBKPAVCUser@@@std@@@3@$0A@@std@@@std@@QAEXXZ PROC NEAR ; std::_Tree<std::_Tmap_traits<unsigned long,CUser *,std::less<unsigned long>,std::allocator<std::pair<unsigned long const ,CUser *> >,0> >::const_iterator::_Dec, COMDAT
; _this$ = ecx

; 251  : 			if (_Isnil(_Ptr))

  00000	8b 01		 mov	 eax, DWORD PTR [ecx]
  00002	8a 50 15	 mov	 dl, BYTE PTR [eax+21]
  00005	84 d2		 test	 dl, dl
  00007	74 06		 je	 SHORT $L223616

; 252  : 				_Ptr = _Right(_Ptr);	// end() ==> rightmost

  00009	8b 40 08	 mov	 eax, DWORD PTR [eax+8]
  0000c	89 01		 mov	 DWORD PTR [ecx], eax

; 263  : 				}
; 264  : 			}

  0000e	c3		 ret	 0
$L223616:

; 253  : 			else if (!_Isnil(_Left(_Ptr)))

  0000f	8b 10		 mov	 edx, DWORD PTR [eax]
  00011	53		 push	 ebx
  00012	8a 5a 15	 mov	 bl, BYTE PTR [edx+21]
  00015	84 db		 test	 bl, bl
  00017	75 1a		 jne	 SHORT $L270014

; 254  : 				_Ptr = _Max(_Left(_Ptr));	// ==> largest of left subtree

  00019	8b 42 08	 mov	 eax, DWORD PTR [edx+8]
  0001c	8a 58 15	 mov	 bl, BYTE PTR [eax+21]
  0001f	84 db		 test	 bl, bl
  00021	75 0c		 jne	 SHORT $L269992
$L269991:
  00023	8b d0		 mov	 edx, eax
  00025	8b 42 08	 mov	 eax, DWORD PTR [edx+8]
  00028	8a 58 15	 mov	 bl, BYTE PTR [eax+21]
  0002b	84 db		 test	 bl, bl
  0002d	74 f4		 je	 SHORT $L269991
$L269992:
  0002f	89 11		 mov	 DWORD PTR [ecx], edx
  00031	5b		 pop	 ebx

; 263  : 				}
; 264  : 			}

  00032	c3		 ret	 0
$L270014:

; 255  : 			else
; 256  : 				{	// climb looking for left subtree
; 257  : 				_Nodeptr _Pnode;
; 258  : 				while (!_Isnil(_Pnode = _Parent(_Ptr))
; 259  : 					&& _Ptr == _Left(_Pnode))

  00033	8b 40 04	 mov	 eax, DWORD PTR [eax+4]
  00036	8a 50 15	 mov	 dl, BYTE PTR [eax+21]
  00039	84 d2		 test	 dl, dl
  0003b	75 1e		 jne	 SHORT $L270017
  0003d	8d 49 00	 npad	 3
$L223622:
  00040	8b 11		 mov	 edx, DWORD PTR [ecx]
  00042	3b 10		 cmp	 edx, DWORD PTR [eax]
  00044	75 0c		 jne	 SHORT $L223623

; 260  : 					_Ptr = _Pnode;	// ==> parent while left subtree

  00046	89 01		 mov	 DWORD PTR [ecx], eax
  00048	8b 40 04	 mov	 eax, DWORD PTR [eax+4]
  0004b	8a 50 15	 mov	 dl, BYTE PTR [eax+21]
  0004e	84 d2		 test	 dl, dl
  00050	74 ee		 je	 SHORT $L223622
$L223623:

; 261  : 				if (!_Isnil(_Pnode))

  00052	8a 50 15	 mov	 dl, BYTE PTR [eax+21]
  00055	84 d2		 test	 dl, dl
  00057	75 02		 jne	 SHORT $L270017

; 262  : 					_Ptr = _Pnode;	// ==> parent if not head

  00059	89 01		 mov	 DWORD PTR [ecx], eax
$L270017:
  0005b	5b		 pop	 ebx

; 263  : 				}
; 264  : 			}

  0005c	c3		 ret	 0
?_Dec@const_iterator@?$_Tree@V?$_Tmap_traits@KPAVCUser@@U?$less@K@std@@V?$allocator@U?$pair@$$CBKPAVCUser@@@std@@@3@$0A@@std@@@std@@QAEXXZ ENDP ; std::_Tree<std::_Tmap_traits<unsigned long,CUser *,std::less<unsigned long>,std::allocator<std::pair<unsigned long const ,CUser *> >,0> >::const_iterator::_Dec
_TEXT	ENDS
PUBLIC	?_Inc@const_iterator@?$_Tree@V?$_Tmap_traits@KPAVCUser@@U?$less@K@std@@V?$allocator@U?$pair@$$CBKPAVCUser@@@std@@@3@$0A@@std@@@std@@QAEXXZ ; std::_Tree<std::_Tmap_traits<unsigned long,CUser *,std::less<unsigned long>,std::allocator<std::pair<unsigned long const ,CUser *> >,0> >::const_iterator::_Inc
; Function compile flags: /Ogty
;	COMDAT ?_Inc@const_iterator@?$_Tree@V?$_Tmap_traits@KPAVCUser@@U?$less@K@std@@V?$allocator@U?$pair@$$CBKPAVCUser@@@std@@@3@$0A@@std@@@std@@QAEXXZ
_TEXT	SEGMENT
?_Inc@const_iterator@?$_Tree@V?$_Tmap_traits@KPAVCUser@@U?$less@K@std@@V?$allocator@U?$pair@$$CBKPAVCUser@@@std@@@3@$0A@@std@@@std@@QAEXXZ PROC NEAR ; std::_Tree<std::_Tmap_traits<unsigned long,CUser *,std::less<unsigned long>,std::allocator<std::pair<unsigned long const ,CUser *> >,0> >::const_iterator::_Inc, COMDAT
; _this$ = ecx

; 268  : 			if (_Isnil(_Ptr))

  00000	8b 01		 mov	 eax, DWORD PTR [ecx]
  00002	8a 50 15	 mov	 dl, BYTE PTR [eax+21]
  00005	84 d2		 test	 dl, dl
  00007	75 4d		 jne	 SHORT $L223630

; 269  : 				;	// end() shouldn't be incremented, don't move
; 270  : 			else if (!_Isnil(_Right(_Ptr)))

  00009	8b 50 08	 mov	 edx, DWORD PTR [eax+8]
  0000c	53		 push	 ebx
  0000d	8a 5a 15	 mov	 bl, BYTE PTR [edx+21]
  00010	84 db		 test	 bl, bl
  00012	75 1b		 jne	 SHORT $L270065

; 271  : 				_Ptr = _Min(_Right(_Ptr));	// ==> smallest of right subtree

  00014	8b 02		 mov	 eax, DWORD PTR [edx]
  00016	8a 58 15	 mov	 bl, BYTE PTR [eax+21]
  00019	84 db		 test	 bl, bl
  0001b	75 0e		 jne	 SHORT $L270046
  0001d	8d 49 00	 npad	 3
$L270045:
  00020	8b d0		 mov	 edx, eax
  00022	8b 02		 mov	 eax, DWORD PTR [edx]
  00024	8a 58 15	 mov	 bl, BYTE PTR [eax+21]
  00027	84 db		 test	 bl, bl
  00029	74 f5		 je	 SHORT $L270045
$L270046:
  0002b	89 11		 mov	 DWORD PTR [ecx], edx
  0002d	5b		 pop	 ebx

; 279  : 				}
; 280  : 			}

  0002e	c3		 ret	 0
$L270065:

; 272  : 			else
; 273  : 				{	// climb looking for right subtree
; 274  : 				_Nodeptr _Pnode;
; 275  : 				while (!_Isnil(_Pnode = _Parent(_Ptr))
; 276  : 					&& _Ptr == _Right(_Pnode))

  0002f	8b 40 04	 mov	 eax, DWORD PTR [eax+4]
  00032	8a 50 15	 mov	 dl, BYTE PTR [eax+21]
  00035	84 d2		 test	 dl, dl
  00037	75 1a		 jne	 SHORT $L223634
  00039	8d a4 24 00 00
	00 00		 npad	 7
$L223633:
  00040	8b 11		 mov	 edx, DWORD PTR [ecx]
  00042	3b 50 08	 cmp	 edx, DWORD PTR [eax+8]
  00045	75 0c		 jne	 SHORT $L223634

; 277  : 					_Ptr = _Pnode;	// ==> parent while right subtree

  00047	89 01		 mov	 DWORD PTR [ecx], eax
  00049	8b 40 04	 mov	 eax, DWORD PTR [eax+4]
  0004c	8a 50 15	 mov	 dl, BYTE PTR [eax+21]
  0004f	84 d2		 test	 dl, dl
  00051	74 ed		 je	 SHORT $L223633
$L223634:

; 278  : 				_Ptr = _Pnode;	// ==> parent (head if end())

  00053	89 01		 mov	 DWORD PTR [ecx], eax
  00055	5b		 pop	 ebx
$L223630:

; 279  : 				}
; 280  : 			}

  00056	c3		 ret	 0
?_Inc@const_iterator@?$_Tree@V?$_Tmap_traits@KPAVCUser@@U?$less@K@std@@V?$allocator@U?$pair@$$CBKPAVCUser@@@std@@@3@$0A@@std@@@std@@QAEXXZ ENDP ; std::_Tree<std::_Tmap_traits<unsigned long,CUser *,std::less<unsigned long>,std::allocator<std::pair<unsigned long const ,CUser *> >,0> >::const_iterator::_Inc
_TEXT	ENDS
PUBLIC	??0_Node@?$_Tree_nod@V?$_Tmap_traits@KPAVCUser@@U?$less@K@std@@V?$allocator@U?$pair@$$CBKPAVCUser@@@std@@@3@$0A@@std@@@std@@QAE@PAU012@00ABU?$pair@$$CBKPAVCUser@@@2@D@Z ; std::_Tree_nod<std::_Tmap_traits<unsigned long,CUser *,std::less<unsigned long>,std::allocator<std::pair<unsigned long const ,CUser *> >,0> >::_Node::_Node
; Function compile flags: /Ogty
;	COMDAT ??0_Node@?$_Tree_nod@V?$_Tmap_traits@KPAVCUser@@U?$less@K@std@@V?$allocator@U?$pair@$$CBKPAVCUser@@@std@@@3@$0A@@std@@@std@@QAE@PAU012@00ABU?$pair@$$CBKPAVCUser@@@2@D@Z
_TEXT	SEGMENT
__Larg$ = 8						; size = 4
__Parg$ = 12						; size = 4
__Rarg$ = 16						; size = 4
__Val$ = 20						; size = 4
__Carg$ = 24						; size = 1
??0_Node@?$_Tree_nod@V?$_Tmap_traits@KPAVCUser@@U?$less@K@std@@V?$allocator@U?$pair@$$CBKPAVCUser@@@std@@@3@$0A@@std@@@std@@QAE@PAU012@00ABU?$pair@$$CBKPAVCUser@@@2@D@Z PROC NEAR ; std::_Tree_nod<std::_Tmap_traits<unsigned long,CUser *,std::less<unsigned long>,std::allocator<std::pair<unsigned long const ,CUser *> >,0> >::_Node::_Node, COMDAT
; _this$ = ecx

; 40   : 			{	// construct a node with value

  00000	8b 54 24 08	 mov	 edx, DWORD PTR __Parg$[esp-4]
  00004	8b c1		 mov	 eax, ecx
  00006	8b 4c 24 04	 mov	 ecx, DWORD PTR __Larg$[esp-4]
  0000a	89 08		 mov	 DWORD PTR [eax], ecx
  0000c	8b 4c 24 0c	 mov	 ecx, DWORD PTR __Rarg$[esp-4]
  00010	89 48 08	 mov	 DWORD PTR [eax+8], ecx
  00013	8b 4c 24 10	 mov	 ecx, DWORD PTR __Val$[esp-4]
  00017	89 50 04	 mov	 DWORD PTR [eax+4], edx
  0001a	8b 11		 mov	 edx, DWORD PTR [ecx]
  0001c	89 50 0c	 mov	 DWORD PTR [eax+12], edx
  0001f	8b 49 04	 mov	 ecx, DWORD PTR [ecx+4]
  00022	8a 54 24 14	 mov	 dl, BYTE PTR __Carg$[esp-4]
  00026	89 48 10	 mov	 DWORD PTR [eax+16], ecx
  00029	88 50 14	 mov	 BYTE PTR [eax+20], dl
  0002c	c6 40 15 00	 mov	 BYTE PTR [eax+21], 0

; 41   : 			}

  00030	c2 14 00	 ret	 20			; 00000014H
??0_Node@?$_Tree_nod@V?$_Tmap_traits@KPAVCUser@@U?$less@K@std@@V?$allocator@U?$pair@$$CBKPAVCUser@@@std@@@3@$0A@@std@@@std@@QAE@PAU012@00ABU?$pair@$$CBKPAVCUser@@@2@D@Z ENDP ; std::_Tree_nod<std::_Tmap_traits<unsigned long,CUser *,std::less<unsigned long>,std::allocator<std::pair<unsigned long const ,CUser *> >,0> >::_Node::_Node
_TEXT	ENDS
PUBLIC	??0?$CStack@K@@QAE@HH@Z				; CStack<unsigned long>::CStack<unsigned long>
EXTRN	??_U@YAPAXI@Z:NEAR				; operator new[]
; Function compile flags: /Ogty
; File c:\documents and settings\test\mes documents\source\virtuos_v17\build\program\_common\data.h
;	COMDAT ??0?$CStack@K@@QAE@HH@Z
_TEXT	SEGMENT
_nSize$ = 8						; size = 4
_nGrowSize$ = 12					; size = 4
??0?$CStack@K@@QAE@HH@Z PROC NEAR			; CStack<unsigned long>::CStack<unsigned long>, COMDAT
; _this$ = ecx

; 34   : 	m_nTop = 0;
; 35   : 	m_nGrowSize		= nGrowSize;

  00000	8b 44 24 08	 mov	 eax, DWORD PTR _nGrowSize$[esp-4]
  00004	56		 push	 esi
  00005	8b f1		 mov	 esi, ecx
  00007	89 46 0c	 mov	 DWORD PTR [esi+12], eax

; 36   : 	m_pBlock	= new T[m_nSize = nSize];

  0000a	8b 44 24 08	 mov	 eax, DWORD PTR _nSize$[esp]
  0000e	8d 0c 85 00 00
	00 00		 lea	 ecx, DWORD PTR [eax*4]
  00015	51		 push	 ecx
  00016	c7 06 00 00 00
	00		 mov	 DWORD PTR [esi], OFFSET FLAT:??_7?$CStack@K@@6B@
  0001c	c7 46 10 00 00
	00 00		 mov	 DWORD PTR [esi+16], 0
  00023	89 46 08	 mov	 DWORD PTR [esi+8], eax
  00026	e8 00 00 00 00	 call	 ??_U@YAPAXI@Z		; operator new[]
  0002b	89 46 04	 mov	 DWORD PTR [esi+4], eax
  0002e	83 c4 04	 add	 esp, 4

; 37   : }

  00031	8b c6		 mov	 eax, esi
  00033	5e		 pop	 esi
  00034	c2 08 00	 ret	 8
??0?$CStack@K@@QAE@HH@Z ENDP				; CStack<unsigned long>::CStack<unsigned long>
_TEXT	ENDS
PUBLIC	?Push@?$CStack@K@@QAEXK@Z			; CStack<unsigned long>::Push
PUBLIC	??_C@_06OJLEAOEG@?$CFs?0?5?$CFd?$AA@		; `string'
PUBLIC	??_C@_0GJ@ENFFABMO@c?3?2documents?5and?5settings?2test?2m@ ; `string'
EXTRN	?WriteLog@@YAXPBDZZ:NEAR			; WriteLog
;	COMDAT ??_C@_0GJ@ENFFABMO@c?3?2documents?5and?5settings?2test?2m@
CONST	SEGMENT
??_C@_0GJ@ENFFABMO@c?3?2documents?5and?5settings?2test?2m@ DB 'c:\documen'
	DB	'ts and settings\test\mes documents\source\virtuos_v17\build\p'
	DB	'rogram\_directx\..\_Common\data.h', 00H	; `string'
CONST	ENDS
;	COMDAT ??_C@_06OJLEAOEG@?$CFs?0?5?$CFd?$AA@
CONST	SEGMENT
??_C@_06OJLEAOEG@?$CFs?0?5?$CFd?$AA@ DB '%s, %d', 00H	; `string'
; Function compile flags: /Ogty
CONST	ENDS
;	COMDAT ?Push@?$CStack@K@@QAEXK@Z
_TEXT	SEGMENT
_data$ = 8						; size = 4
?Push@?$CStack@K@@QAEXK@Z PROC NEAR			; CStack<unsigned long>::Push, COMDAT
; _this$ = ecx

; 48   : {

  00000	53		 push	 ebx
  00001	8b d9		 mov	 ebx, ecx

; 49   : //	ASSERT( m_nTop < m_nSize );
; 50   : 	if( m_nTop >= m_nSize )

  00003	8b 43 10	 mov	 eax, DWORD PTR [ebx+16]
  00006	3b 43 08	 cmp	 eax, DWORD PTR [ebx+8]
  00009	7c 18		 jl	 SHORT $L224226

; 51   : 	{
; 52   : 		WriteLog( "%s, %d", __FILE__, __LINE__ );

  0000b	6a 34		 push	 52			; 00000034H
  0000d	68 00 00 00 00	 push	 OFFSET FLAT:??_C@_0GJ@ENFFABMO@c?3?2documents?5and?5settings?2test?2m@
  00012	68 00 00 00 00	 push	 OFFSET FLAT:??_C@_06OJLEAOEG@?$CFs?0?5?$CFd?$AA@
  00017	e8 00 00 00 00	 call	 ?WriteLog@@YAXPBDZZ	; WriteLog
  0001c	83 c4 0c	 add	 esp, 12			; 0000000cH
  0001f	5b		 pop	 ebx

; 64   : 	}
; 65   : }

  00020	c2 04 00	 ret	 4
$L224226:

; 53   : 		return;
; 54   : 	}
; 55   : 	m_pBlock[m_nTop++]	= data;

  00023	8b 4b 04	 mov	 ecx, DWORD PTR [ebx+4]
  00026	8b 54 24 08	 mov	 edx, DWORD PTR _data$[esp]
  0002a	89 14 81	 mov	 DWORD PTR [ecx+eax*4], edx

; 56   : 
; 57   : 	if( IsFull() && m_nGrowSize > 0 )

  0002d	8b 43 08	 mov	 eax, DWORD PTR [ebx+8]
  00030	56		 push	 esi
  00031	8b 73 10	 mov	 esi, DWORD PTR [ebx+16]
  00034	46		 inc	 esi
  00035	8b ce		 mov	 ecx, esi
  00037	3b c8		 cmp	 ecx, eax
  00039	89 73 10	 mov	 DWORD PTR [ebx+16], esi
  0003c	7c 4f		 jl	 SHORT $L270084
  0003e	8b 4b 0c	 mov	 ecx, DWORD PTR [ebx+12]
  00041	85 c9		 test	 ecx, ecx
  00043	7e 48		 jle	 SHORT $L270084
  00045	55		 push	 ebp

; 58   : 	{
; 59   : 		T* pOld	= m_pBlock;

  00046	8b 6b 04	 mov	 ebp, DWORD PTR [ebx+4]

; 60   : 		m_pBlock = new T[m_nSize + m_nGrowSize];

  00049	03 c8		 add	 ecx, eax
  0004b	c1 e1 02	 shl	 ecx, 2
  0004e	57		 push	 edi
  0004f	51		 push	 ecx
  00050	e8 00 00 00 00	 call	 ??_U@YAPAXI@Z		; operator new[]

; 61   : 		memcpy( m_pBlock, pOld, m_nTop * sizeof(T) );

  00055	8b 4b 10	 mov	 ecx, DWORD PTR [ebx+16]
  00058	c1 e1 02	 shl	 ecx, 2
  0005b	89 43 04	 mov	 DWORD PTR [ebx+4], eax
  0005e	8b f8		 mov	 edi, eax
  00060	8b c1		 mov	 eax, ecx
  00062	c1 e9 02	 shr	 ecx, 2
  00065	8b f5		 mov	 esi, ebp
  00067	f3 a5		 rep movsd
  00069	8b c8		 mov	 ecx, eax
  0006b	83 e1 03	 and	 ecx, 3
  0006e	83 c4 04	 add	 esp, 4

; 62   : 		SAFE_DELETE_ARRAY( pOld );

  00071	85 ed		 test	 ebp, ebp
  00073	f3 a4		 rep movsb
  00075	74 09		 je	 SHORT $L224233
  00077	55		 push	 ebp
  00078	e8 00 00 00 00	 call	 ??_V@YAXPAX@Z		; operator delete[]
  0007d	83 c4 04	 add	 esp, 4
$L224233:

; 63   : 		m_nSize		+= m_nGrowSize;

  00080	8b 43 08	 mov	 eax, DWORD PTR [ebx+8]
  00083	8b 4b 0c	 mov	 ecx, DWORD PTR [ebx+12]
  00086	03 c1		 add	 eax, ecx
  00088	5f		 pop	 edi
  00089	89 43 08	 mov	 DWORD PTR [ebx+8], eax
  0008c	5d		 pop	 ebp
$L270084:
  0008d	5e		 pop	 esi
  0008e	5b		 pop	 ebx

; 64   : 	}
; 65   : }

  0008f	c2 04 00	 ret	 4
?Push@?$CStack@K@@QAEXK@Z ENDP				; CStack<unsigned long>::Push
_TEXT	ENDS
PUBLIC	?Pop@?$CStack@K@@QAEKXZ				; CStack<unsigned long>::Pop
; Function compile flags: /Ogty
;	COMDAT ?Pop@?$CStack@K@@QAEKXZ
_TEXT	SEGMENT
?Pop@?$CStack@K@@QAEKXZ PROC NEAR			; CStack<unsigned long>::Pop, COMDAT
; _this$ = ecx

; 68   : {

  00000	56		 push	 esi
  00001	8b f1		 mov	 esi, ecx

; 69   : //	ASSERT( m_nTop );
; 70   : 	if( m_nTop < 1 )

  00003	83 7e 10 01	 cmp	 DWORD PTR [esi+16], 1
  00007	7d 14		 jge	 SHORT $L224241

; 71   : 	{
; 72   : 		WriteLog( "%s, %d", __FILE__, __LINE__ );

  00009	6a 48		 push	 72			; 00000048H
  0000b	68 00 00 00 00	 push	 OFFSET FLAT:??_C@_0GJ@ENFFABMO@c?3?2documents?5and?5settings?2test?2m@
  00010	68 00 00 00 00	 push	 OFFSET FLAT:??_C@_06OJLEAOEG@?$CFs?0?5?$CFd?$AA@
  00015	e8 00 00 00 00	 call	 ?WriteLog@@YAXPBDZZ	; WriteLog
  0001a	83 c4 0c	 add	 esp, 12			; 0000000cH
$L224241:

; 73   : 	}
; 74   : 	return m_pBlock[--m_nTop];

  0001d	8b 46 10	 mov	 eax, DWORD PTR [esi+16]
  00020	8b 4e 04	 mov	 ecx, DWORD PTR [esi+4]
  00023	48		 dec	 eax
  00024	89 46 10	 mov	 DWORD PTR [esi+16], eax
  00027	8b 04 81	 mov	 eax, DWORD PTR [ecx+eax*4]
  0002a	5e		 pop	 esi

; 75   : }

  0002b	c3		 ret	 0
?Pop@?$CStack@K@@QAEKXZ ENDP				; CStack<unsigned long>::Pop
_TEXT	ENDS
PUBLIC	?GetAt@?$CFixedArray@UItemProp@@@@QAEPAUItemProp@@K@Z ; CFixedArray<ItemProp>::GetAt
; Function compile flags: /Ogty
;	COMDAT ?GetAt@?$CFixedArray@UItemProp@@@@QAEPAUItemProp@@K@Z
_TEXT	SEGMENT
_dwIndex$ = 8						; size = 4
?GetAt@?$CFixedArray@UItemProp@@@@QAEPAUItemProp@@K@Z PROC NEAR ; CFixedArray<ItemProp>::GetAt, COMDAT
; _this$ = ecx

; 270  : 	if( dwIndex >= (DWORD)m_nMaxIndex )

  00000	8b 44 24 04	 mov	 eax, DWORD PTR _dwIndex$[esp-4]
  00004	3b 41 18	 cmp	 eax, DWORD PTR [ecx+24]
  00007	72 05		 jb	 SHORT $L224299

; 271  : 		return NULL;

  00009	33 c0		 xor	 eax, eax

; 273  : }

  0000b	c2 04 00	 ret	 4
$L224299:

; 272  : 	return (T*) m_apOffset[ dwIndex ];

  0000e	8b 49 08	 mov	 ecx, DWORD PTR [ecx+8]
  00011	8b 04 81	 mov	 eax, DWORD PTR [ecx+eax*4]

; 273  : }

  00014	c2 04 00	 ret	 4
?GetAt@?$CFixedArray@UItemProp@@@@QAEPAUItemProp@@K@Z ENDP ; CFixedArray<ItemProp>::GetAt
_TEXT	ENDS
PUBLIC	?GetAt@?$CFixedArray@UCtrlProp@@@@QAEPAUCtrlProp@@K@Z ; CFixedArray<CtrlProp>::GetAt
; Function compile flags: /Ogty
;	COMDAT ?GetAt@?$CFixedArray@UCtrlProp@@@@QAEPAUCtrlProp@@K@Z
_TEXT	SEGMENT
_dwIndex$ = 8						; size = 4
?GetAt@?$CFixedArray@UCtrlProp@@@@QAEPAUCtrlProp@@K@Z PROC NEAR ; CFixedArray<CtrlProp>::GetAt, COMDAT
; _this$ = ecx

; 270  : 	if( dwIndex >= (DWORD)m_nMaxIndex )

  00000	8b 44 24 04	 mov	 eax, DWORD PTR _dwIndex$[esp-4]
  00004	3b 41 18	 cmp	 eax, DWORD PTR [ecx+24]
  00007	72 05		 jb	 SHORT $L224317

; 271  : 		return NULL;

  00009	33 c0		 xor	 eax, eax

; 273  : }

  0000b	c2 04 00	 ret	 4
$L224317:

; 272  : 	return (T*) m_apOffset[ dwIndex ];

  0000e	8b 49 08	 mov	 ecx, DWORD PTR [ecx+8]
  00011	8b 04 81	 mov	 eax, DWORD PTR [ecx+eax*4]

; 273  : }

  00014	c2 04 00	 ret	 4
?GetAt@?$CFixedArray@UCtrlProp@@@@QAEPAUCtrlProp@@K@Z ENDP ; CFixedArray<CtrlProp>::GetAt
_TEXT	ENDS
PUBLIC	??$_Destroy_range@KV?$allocator@K@std@@@std@@YAXPAK0AAV?$allocator@K@0@@Z ; std::_Destroy_range<unsigned long,std::allocator<unsigned long> >
; Function compile flags: /Ogty
; File c:\program files\microsoft visual studio .net 2003\vc7\include\xmemory
;	COMDAT ??$_Destroy_range@KV?$allocator@K@std@@@std@@YAXPAK0AAV?$allocator@K@0@@Z
_TEXT	SEGMENT
__First$ = 8						; size = 4
__Last$ = 12						; size = 4
__Al$ = 16						; size = 4
??$_Destroy_range@KV?$allocator@K@std@@@std@@YAXPAK0AAV?$allocator@K@0@@Z PROC NEAR ; std::_Destroy_range<unsigned long,std::allocator<unsigned long> >, COMDAT

; 217  : 	_Destroy_range(_First, _Last, _Al, _Ptr_cat(_First, _Last));
; 218  : 	}

  00000	c3		 ret	 0
??$_Destroy_range@KV?$allocator@K@std@@@std@@YAXPAK0AAV?$allocator@K@0@@Z ENDP ; std::_Destroy_range<unsigned long,std::allocator<unsigned long> >
_TEXT	ENDS
PUBLIC	??$_Allocate@UD3DXVECTOR3@@@std@@YAPAUD3DXVECTOR3@@IPAU1@@Z ; std::_Allocate<D3DXVECTOR3>
; Function compile flags: /Ogty
;	COMDAT ??$_Allocate@UD3DXVECTOR3@@@std@@YAPAUD3DXVECTOR3@@IPAU1@@Z
_TEXT	SEGMENT
__Count$ = 8						; size = 4
___formal$ = 12						; size = 4
??$_Allocate@UD3DXVECTOR3@@@std@@YAPAUD3DXVECTOR3@@IPAU1@@Z PROC NEAR ; std::_Allocate<D3DXVECTOR3>, COMDAT

; 34   : 	return ((_Ty _FARQ *)operator new(_Count * sizeof (_Ty)));

  00000	8b 44 24 04	 mov	 eax, DWORD PTR __Count$[esp-4]
  00004	8d 04 40	 lea	 eax, DWORD PTR [eax+eax*2]
  00007	c1 e0 02	 shl	 eax, 2
  0000a	50		 push	 eax
  0000b	e8 00 00 00 00	 call	 ??2@YAPAXI@Z		; operator new
  00010	83 c4 04	 add	 esp, 4

; 35   : 	}

  00013	c3		 ret	 0
??$_Allocate@UD3DXVECTOR3@@@std@@YAPAUD3DXVECTOR3@@IPAU1@@Z ENDP ; std::_Allocate<D3DXVECTOR3>
_TEXT	ENDS
PUBLIC	??$_Allocate@D@std@@YAPADIPAD@Z			; std::_Allocate<char>
; Function compile flags: /Ogty
;	COMDAT ??$_Allocate@D@std@@YAPADIPAD@Z
_TEXT	SEGMENT
__Count$ = 8						; size = 4
___formal$ = 12						; size = 4
??$_Allocate@D@std@@YAPADIPAD@Z PROC NEAR		; std::_Allocate<char>, COMDAT

; 34   : 	return ((_Ty _FARQ *)operator new(_Count * sizeof (_Ty)));

  00000	8b 44 24 04	 mov	 eax, DWORD PTR __Count$[esp-4]
  00004	50		 push	 eax
  00005	e8 00 00 00 00	 call	 ??2@YAPAXI@Z		; operator new
  0000a	83 c4 04	 add	 esp, 4

; 35   : 	}

  0000d	c3		 ret	 0
??$_Allocate@D@std@@YAPADIPAD@Z ENDP			; std::_Allocate<char>
_TEXT	ENDS
PUBLIC	??$_Allocate@U_Node@?$_Tree_nod@V?$_Tmap_traits@KPAVCUser@@U?$less@K@std@@V?$allocator@U?$pair@$$CBKPAVCUser@@@std@@@3@$0A@@std@@@std@@@std@@YAPAU_Node@?$_Tree_nod@V?$_Tmap_traits@KPAVCUser@@U?$less@K@std@@V?$allocator@U?$pair@$$CBKPAVCUser@@@std@@@3@$0A@@std@@@0@IPAU120@@Z ; std::_Allocate<std::_Tree_nod<std::_Tmap_traits<unsigned long,CUser *,std::less<unsigned long>,std::allocator<std::pair<unsigned long const ,CUser *> >,0> >::_Node>
; Function compile flags: /Ogty
;	COMDAT ??$_Allocate@U_Node@?$_Tree_nod@V?$_Tmap_traits@KPAVCUser@@U?$less@K@std@@V?$allocator@U?$pair@$$CBKPAVCUser@@@std@@@3@$0A@@std@@@std@@@std@@YAPAU_Node@?$_Tree_nod@V?$_Tmap_traits@KPAVCUser@@U?$less@K@std@@V?$allocator@U?$pair@$$CBKPAVCUser@@@std@@@3@$0A@@std@@@0@IPAU120@@Z
_TEXT	SEGMENT
__Count$ = 8						; size = 4
___formal$ = 12						; size = 4
??$_Allocate@U_Node@?$_Tree_nod@V?$_Tmap_traits@KPAVCUser@@U?$less@K@std@@V?$allocator@U?$pair@$$CBKPAVCUser@@@std@@@3@$0A@@std@@@std@@@std@@YAPAU_Node@?$_Tree_nod@V?$_Tmap_traits@KPAVCUser@@U?$less@K@std@@V?$allocator@U?$pair@$$CBKPAVCUser@@@std@@@3@$0A@@std@@@0@IPAU120@@Z PROC NEAR ; std::_Allocate<std::_Tree_nod<std::_Tmap_traits<unsigned long,CUser *,std::less<unsigned long>,std::allocator<std::pair<unsigned long const ,CUser *> >,0> >::_Node>, COMDAT

; 34   : 	return ((_Ty _FARQ *)operator new(_Count * sizeof (_Ty)));

  00000	8b 44 24 04	 mov	 eax, DWORD PTR __Count$[esp-4]
  00004	8d 04 40	 lea	 eax, DWORD PTR [eax+eax*2]
  00007	c1 e0 03	 shl	 eax, 3
  0000a	50		 push	 eax
  0000b	e8 00 00 00 00	 call	 ??2@YAPAXI@Z		; operator new
  00010	83 c4 04	 add	 esp, 4

; 35   : 	}

  00013	c3		 ret	 0
??$_Allocate@U_Node@?$_Tree_nod@V?$_Tmap_traits@KPAVCUser@@U?$less@K@std@@V?$allocator@U?$pair@$$CBKPAVCUser@@@std@@@3@$0A@@std@@@std@@@std@@YAPAU_Node@?$_Tree_nod@V?$_Tmap_traits@KPAVCUser@@U?$less@K@std@@V?$allocator@U?$pair@$$CBKPAVCUser@@@std@@@3@$0A@@std@@@0@IPAU120@@Z ENDP ; std::_Allocate<std::_Tree_nod<std::_Tmap_traits<unsigned long,CUser *,std::less<unsigned long>,std::allocator<std::pair<unsigned long const ,CUser *> >,0> >::_Node>
_TEXT	ENDS
PUBLIC	??0tagREPLACEOBJ@@QAE@XZ			; tagREPLACEOBJ::tagREPLACEOBJ
; Function compile flags: /Ogty
;	COMDAT ??0tagREPLACEOBJ@@QAE@XZ
_TEXT	SEGMENT
??0tagREPLACEOBJ@@QAE@XZ PROC NEAR			; tagREPLACEOBJ::tagREPLACEOBJ, COMDAT
; _this$ = ecx
  00000	8b c1		 mov	 eax, ecx
  00002	c3		 ret	 0
??0tagREPLACEOBJ@@QAE@XZ ENDP				; tagREPLACEOBJ::tagREPLACEOBJ
_TEXT	ENDS
PUBLIC	?LoadAllMoverDialog@CWorld@@QAEXXZ		; CWorld::LoadAllMoverDialog
EXTRN	?LoadDialog@CMover@@QAEHXZ:NEAR			; CMover::LoadDialog
; Function compile flags: /Ogty
; File c:\documents and settings\test\mes documents\source\virtuos_v17\build\program\_common\world.cpp
;	COMDAT ?LoadAllMoverDialog@CWorld@@QAEXXZ
_TEXT	SEGMENT
?LoadAllMoverDialog@CWorld@@QAEXXZ PROC NEAR		; CWorld::LoadAllMoverDialog, COMDAT
; _this$ = ecx

; 241  : {

  00000	53		 push	 ebx
  00001	8b d9		 mov	 ebx, ecx

; 242  : #ifdef __WORLDSERVER
; 243  : 	for( DWORD i = 0; i < m_dwObjNum; i++ )

  00003	8b 43 44	 mov	 eax, DWORD PTR [ebx+68]
  00006	57		 push	 edi
  00007	33 ff		 xor	 edi, edi
  00009	85 c0		 test	 eax, eax
  0000b	76 24		 jbe	 SHORT $L262475
  0000d	56		 push	 esi
  0000e	8d 73 48	 lea	 esi, DWORD PTR [ebx+72]
$L270129:

; 244  : 	{
; 245  : 		if( m_apObject[ i ] && m_apObject[ i ]->GetType() == OT_MOVER )

  00011	8b 0e		 mov	 ecx, DWORD PTR [esi]
  00013	85 c9		 test	 ecx, ecx
  00015	74 0e		 je	 SHORT $L262474
  00017	83 b9 70 01 00
	00 05		 cmp	 DWORD PTR [ecx+368], 5
  0001e	75 05		 jne	 SHORT $L262474

; 246  : 			((CMover*)m_apObject[ i ])->LoadDialog();

  00020	e8 00 00 00 00	 call	 ?LoadDialog@CMover@@QAEHXZ ; CMover::LoadDialog
$L262474:

; 242  : #ifdef __WORLDSERVER
; 243  : 	for( DWORD i = 0; i < m_dwObjNum; i++ )

  00025	8b 43 44	 mov	 eax, DWORD PTR [ebx+68]
  00028	47		 inc	 edi
  00029	83 c6 04	 add	 esi, 4
  0002c	3b f8		 cmp	 edi, eax
  0002e	72 e1		 jb	 SHORT $L270129
  00030	5e		 pop	 esi
$L262475:
  00031	5f		 pop	 edi
  00032	5b		 pop	 ebx

; 247  : 	}
; 248  : #endif
; 249  : }

  00033	c3		 ret	 0
?LoadAllMoverDialog@CWorld@@QAEXXZ ENDP			; CWorld::LoadAllMoverDialog
_TEXT	ENDS
PUBLIC	?AddObjArray@CWorld@@QAEHPAVCObj@@@Z		; CWorld::AddObjArray
PUBLIC	??_C@_0CA@LOMLCCK@AddObjArray?5nIndex?5?$DN?50xffffffff?$AA@ ; `string'
;	COMDAT ??_C@_0CA@LOMLCCK@AddObjArray?5nIndex?5?$DN?50xffffffff?$AA@
; File c:\documents and settings\test\mes documents\source\virtuos_v17\build\program\_common\data.h
CONST	SEGMENT
??_C@_0CA@LOMLCCK@AddObjArray?5nIndex?5?$DN?50xffffffff?$AA@ DB 'AddObjAr'
	DB	'ray nIndex = 0xffffffff', 00H		; `string'
; Function compile flags: /Ogty
; File c:\documents and settings\test\mes documents\source\virtuos_v17\build\program\_common\world.cpp
CONST	ENDS
;	COMDAT ?AddObjArray@CWorld@@QAEHPAVCObj@@@Z
_TEXT	SEGMENT
_pObj$ = 8						; size = 4
?AddObjArray@CWorld@@QAEHPAVCObj@@@Z PROC NEAR		; CWorld::AddObjArray, COMDAT
; _this$ = ecx

; 558  : {

  00000	56		 push	 esi
  00001	8b f1		 mov	 esi, ecx

; 559  : #ifdef __WORLDSERVER
; 560  : 	int nIndex;
; 561  : 	if( m_ObjStack.GetCount() > 0 )

  00003	8b 86 b4 30 08
	00		 mov	 eax, DWORD PTR [esi+536756]
  00009	85 c0		 test	 eax, eax
  0000b	7e 31		 jle	 SHORT $L262533

; 562  : 	{
; 563  : 		nIndex	= m_ObjStack.Pop();

  0000d	83 f8 01	 cmp	 eax, 1
  00010	7d 14		 jge	 SHORT $L270140
  00012	6a 48		 push	 72			; 00000048H
  00014	68 00 00 00 00	 push	 OFFSET FLAT:??_C@_0GJ@ENFFABMO@c?3?2documents?5and?5settings?2test?2m@
  00019	68 00 00 00 00	 push	 OFFSET FLAT:??_C@_06OJLEAOEG@?$CFs?0?5?$CFd?$AA@
  0001e	e8 00 00 00 00	 call	 ?WriteLog@@YAXPBDZZ	; WriteLog
  00023	83 c4 0c	 add	 esp, 12			; 0000000cH
$L270140:
  00026	8b 86 b4 30 08
	00		 mov	 eax, DWORD PTR [esi+536756]
  0002c	8b 8e a8 30 08
	00		 mov	 ecx, DWORD PTR [esi+536744]
  00032	48		 dec	 eax
  00033	89 86 b4 30 08
	00		 mov	 DWORD PTR [esi+536756], eax
  00039	8b 04 81	 mov	 eax, DWORD PTR [ecx+eax*4]

; 564  : 		ASSERT( !m_apObject[nIndex] );
; 565  : 	}
; 566  : 	else

  0003c	eb 09		 jmp	 SHORT $L262535
$L262533:

; 567  : 	{
; 568  : 		nIndex	= m_dwObjNum++;

  0003e	8b 46 44	 mov	 eax, DWORD PTR [esi+68]
  00041	8d 50 01	 lea	 edx, DWORD PTR [eax+1]
  00044	89 56 44	 mov	 DWORD PTR [esi+68], edx
$L262535:

; 569  : 	}
; 570  : 
; 571  : 	if( nIndex == 0xffffffff )

  00047	83 f8 ff	 cmp	 eax, -1
  0004a	75 13		 jne	 SHORT $L262536

; 572  : 	{
; 573  : 		WriteLog( "AddObjArray nIndex = 0xffffffff" );

  0004c	68 00 00 00 00	 push	 OFFSET FLAT:??_C@_0CA@LOMLCCK@AddObjArray?5nIndex?5?$DN?50xffffffff?$AA@
  00051	e8 00 00 00 00	 call	 ?WriteLog@@YAXPBDZZ	; WriteLog
  00056	83 c4 04	 add	 esp, 4

; 574  : 		return FALSE;

  00059	33 c0		 xor	 eax, eax
  0005b	5e		 pop	 esi

; 598  : }

  0005c	c2 04 00	 ret	 4
$L262536:

; 575  : 	}
; 576  : 
; 577  : 	m_apObject[nIndex]	= (CCtrl*)pObj;

  0005f	8b 4c 24 08	 mov	 ecx, DWORD PTR _pObj$[esp]
  00063	89 4c 86 48	 mov	 DWORD PTR [esi+eax*4+72], ecx

; 578  : 	pObj->m_dwObjAryIdx	= nIndex;

  00067	89 81 84 01 00
	00		 mov	 DWORD PTR [ecx+388], eax

; 579  : 
; 580  : 	m_cbRunnableObject++;

  0006d	ff 46 18	 inc	 DWORD PTR [esi+24]

; 581  : #else	// __WORLDSERVER
; 582  : 	CLandscape* pLandscape	= GetLandscape( pObj );
; 583  : 	if( NULL != pLandscape ) 
; 584  : 	{
; 585  : 		pLandscape->AddObjArray( pObj );
; 586  : 	}
; 587  : 	/*
; 588  : 	else 
; 589  : 	{
; 590  : 		char szMessage[260]	= { 0, };
; 591  : 		sprintf( szMessage, "AOA error with landscape unloaded - g_pPlayer = %f, %f\t//pObj = %f, %f",
; 592  : 			g_pPlayer->GetPos().x, g_pPlayer->GetPos().z, pObj->GetPos().x, pObj->GetPos().z );
; 593  : 		DEBUGOUT2( szMessage );
; 594  : 	}
; 595  : 	*/
; 596  : #endif	// __WORLDSERVER
; 597  : 	return TRUE;

  00070	b8 01 00 00 00	 mov	 eax, 1
  00075	5e		 pop	 esi

; 598  : }

  00076	c2 04 00	 ret	 4
?AddObjArray@CWorld@@QAEHPAVCObj@@@Z ENDP		; CWorld::AddObjArray
_TEXT	ENDS
PUBLIC	?RemoveObjArray@CWorld@@QAEXPAVCObj@@@Z		; CWorld::RemoveObjArray
PUBLIC	??_C@_0DD@JHPKICEK@RemoveObjArray?5?5pObj?9?$DOm_dwObjAry@ ; `string'
PUBLIC	??_C@_0DI@KBIGLDPE@RemoveObjArray?5m_apObject?$FLpObj?9?$DO@ ; `string'
EXTRN	?WriteError@@YAXPBDZZ:NEAR			; WriteError
;	COMDAT ??_C@_0DD@JHPKICEK@RemoveObjArray?5?5pObj?9?$DOm_dwObjAry@
CONST	SEGMENT
??_C@_0DD@JHPKICEK@RemoveObjArray?5?5pObj?9?$DOm_dwObjAry@ DB 'RemoveObjA'
	DB	'rray  pObj->m_dwObjAryIdx == 0xffffffff ', 00H ; `string'
CONST	ENDS
;	COMDAT ??_C@_0DI@KBIGLDPE@RemoveObjArray?5m_apObject?$FLpObj?9?$DO@
CONST	SEGMENT
??_C@_0DI@KBIGLDPE@RemoveObjArray?5m_apObject?$FLpObj?9?$DO@ DB 'RemoveOb'
	DB	'jArray m_apObject[pObj->m_dwObjAryIdx] != pObj ', 00H ; `string'
; Function compile flags: /Ogty
CONST	ENDS
;	COMDAT ?RemoveObjArray@CWorld@@QAEXPAVCObj@@@Z
_TEXT	SEGMENT
_pObj$ = 8						; size = 4
?RemoveObjArray@CWorld@@QAEXPAVCObj@@@Z PROC NEAR	; CWorld::RemoveObjArray, COMDAT
; _this$ = ecx

; 601  : {

  00000	56		 push	 esi
  00001	57		 push	 edi

; 602  : #ifdef __WORLDSERVER
; 603  : 	if( pObj->m_dwObjAryIdx == 0xffffffff )

  00002	8b 7c 24 0c	 mov	 edi, DWORD PTR _pObj$[esp+4]
  00006	8b 87 84 01 00
	00		 mov	 eax, DWORD PTR [edi+388]
  0000c	83 f8 ff	 cmp	 eax, -1
  0000f	8b f1		 mov	 esi, ecx
  00011	75 12		 jne	 SHORT $L262543

; 604  : 	{
; 605  : 		WriteError( "RemoveObjArray  pObj->m_dwObjAryIdx == 0xffffffff " );

  00013	68 00 00 00 00	 push	 OFFSET FLAT:??_C@_0DD@JHPKICEK@RemoveObjArray?5?5pObj?9?$DOm_dwObjAry@
  00018	e8 00 00 00 00	 call	 ?WriteError@@YAXPBDZZ	; WriteError
  0001d	83 c4 04	 add	 esp, 4
  00020	5f		 pop	 edi
  00021	5e		 pop	 esi

; 619  : #else	// __WORLDSERVER
; 620  : 	CLandscape* pLandscape	= GetLandscape( pObj );
; 621  : 
; 622  : 	if( NULL != pLandscape ) 
; 623  : 	{
; 624  : 		pLandscape->RemoveObjArray( pObj );
; 625  : 	}
; 626  : 	/*
; 627  : 	else 
; 628  : 	{
; 629  : 		char szMessage[260]	= { 0, };
; 630  : 		sprintf( szMessage, "ROA error with landscape unloaded - g_pPlayer = %f, %f\t//pObj = %f, %f",
; 631  : 			g_pPlayer->GetPos().x, g_pPlayer->GetPos().z, pObj->GetPos().x, pObj->GetPos().z );
; 632  : 		DEBUGOUT2( szMessage );
; 633  : 	}
; 634  : 	*/
; 635  : #endif	// __WORLDSERVER
; 636  : }

  00022	c2 04 00	 ret	 4
$L262543:

; 606  : 		return;
; 607  : 	}
; 608  : 
; 609  : 	if( m_apObject[pObj->m_dwObjAryIdx] == pObj )

  00025	39 7c 86 48	 cmp	 DWORD PTR [esi+eax*4+72], edi
  00029	75 26		 jne	 SHORT $L262545

; 610  : 	{
; 611  : 		m_ObjStack.Push( pObj->m_dwObjAryIdx );

  0002b	50		 push	 eax
  0002c	8d 8e a4 30 08
	00		 lea	 ecx, DWORD PTR [esi+536740]
  00032	e8 00 00 00 00	 call	 ?Push@?$CStack@K@@QAEXK@Z ; CStack<unsigned long>::Push

; 612  : 		m_apObject[pObj->m_dwObjAryIdx]		= NULL;

  00037	8b 87 84 01 00
	00		 mov	 eax, DWORD PTR [edi+388]
  0003d	c7 44 86 48 00
	00 00 00	 mov	 DWORD PTR [esi+eax*4+72], 0

; 617  : 	}
; 618  : 	m_cbRunnableObject--;

  00045	8b 46 18	 mov	 eax, DWORD PTR [esi+24]
  00048	48		 dec	 eax
  00049	5f		 pop	 edi
  0004a	89 46 18	 mov	 DWORD PTR [esi+24], eax
  0004d	5e		 pop	 esi

; 619  : #else	// __WORLDSERVER
; 620  : 	CLandscape* pLandscape	= GetLandscape( pObj );
; 621  : 
; 622  : 	if( NULL != pLandscape ) 
; 623  : 	{
; 624  : 		pLandscape->RemoveObjArray( pObj );
; 625  : 	}
; 626  : 	/*
; 627  : 	else 
; 628  : 	{
; 629  : 		char szMessage[260]	= { 0, };
; 630  : 		sprintf( szMessage, "ROA error with landscape unloaded - g_pPlayer = %f, %f\t//pObj = %f, %f",
; 631  : 			g_pPlayer->GetPos().x, g_pPlayer->GetPos().z, pObj->GetPos().x, pObj->GetPos().z );
; 632  : 		DEBUGOUT2( szMessage );
; 633  : 	}
; 634  : 	*/
; 635  : #endif	// __WORLDSERVER
; 636  : }

  0004e	c2 04 00	 ret	 4
$L262545:

; 613  : 	}
; 614  : 	else
; 615  : 	{
; 616  : 		WriteError( "RemoveObjArray m_apObject[pObj->m_dwObjAryIdx] != pObj " );

  00051	68 00 00 00 00	 push	 OFFSET FLAT:??_C@_0DI@KBIGLDPE@RemoveObjArray?5m_apObject?$FLpObj?9?$DO@
  00056	e8 00 00 00 00	 call	 ?WriteError@@YAXPBDZZ	; WriteError

; 617  : 	}
; 618  : 	m_cbRunnableObject--;

  0005b	8b 46 18	 mov	 eax, DWORD PTR [esi+24]
  0005e	83 c4 04	 add	 esp, 4
  00061	48		 dec	 eax
  00062	5f		 pop	 edi
  00063	89 46 18	 mov	 DWORD PTR [esi+24], eax
  00066	5e		 pop	 esi

; 619  : #else	// __WORLDSERVER
; 620  : 	CLandscape* pLandscape	= GetLandscape( pObj );
; 621  : 
; 622  : 	if( NULL != pLandscape ) 
; 623  : 	{
; 624  : 		pLandscape->RemoveObjArray( pObj );
; 625  : 	}
; 626  : 	/*
; 627  : 	else 
; 628  : 	{
; 629  : 		char szMessage[260]	= { 0, };
; 630  : 		sprintf( szMessage, "ROA error with landscape unloaded - g_pPlayer = %f, %f\t//pObj = %f, %f",
; 631  : 			g_pPlayer->GetPos().x, g_pPlayer->GetPos().z, pObj->GetPos().x, pObj->GetPos().z );
; 632  : 		DEBUGOUT2( szMessage );
; 633  : 	}
; 634  : 	*/
; 635  : #endif	// __WORLDSERVER
; 636  : }

  00067	c2 04 00	 ret	 4
?RemoveObjArray@CWorld@@QAEXPAVCObj@@@Z ENDP		; CWorld::RemoveObjArray
_TEXT	ENDS
PUBLIC	?InsertObjLink@CWorld@@QAEHPAVCObj@@@Z		; CWorld::InsertObjLink
EXTRN	?InsertObjLink@CLayeredLinkMap@@QAEHPAVCObj@@@Z:NEAR ; CLayeredLinkMap::InsertObjLink
; Function compile flags: /Ogty
;	COMDAT ?InsertObjLink@CWorld@@QAEHPAVCObj@@@Z
_TEXT	SEGMENT
_vPos$ = -12						; size = 12
_pObj$ = 8						; size = 4
?InsertObjLink@CWorld@@QAEHPAVCObj@@@Z PROC NEAR	; CWorld::InsertObjLink, COMDAT
; _this$ = ecx

; 639  : {

  00000	83 ec 0c	 sub	 esp, 12			; 0000000cH
  00003	53		 push	 ebx
  00004	55		 push	 ebp

; 640  : 	D3DXVECTOR3 vPos	= pObj->GetLinkPos();

  00005	8b 6c 24 18	 mov	 ebp, DWORD PTR _pObj$[esp+16]
  00009	56		 push	 esi
  0000a	8d 85 ac 01 00
	00		 lea	 eax, DWORD PTR [ebp+428]
  00010	57		 push	 edi
  00011	8b 38		 mov	 edi, DWORD PTR [eax]
  00013	8b f1		 mov	 esi, ecx
  00015	8b 48 04	 mov	 ecx, DWORD PTR [eax+4]
  00018	8b 58 08	 mov	 ebx, DWORD PTR [eax+8]
  0001b	89 4c 24 14	 mov	 DWORD PTR _vPos$[esp+32], ecx

; 641  : 	if( VecInWorld( vPos ) == FALSE )

  0001f	d9 44 24 14	 fld	 DWORD PTR _vPos$[esp+32]
  00023	83 ec 08	 sub	 esp, 8
  00026	dd 1c 24	 fstp	 QWORD PTR [esp]
  00029	e8 00 00 00 00	 call	 __isnan
  0002e	83 c4 08	 add	 esp, 8
  00031	85 c0		 test	 eax, eax
  00033	75 0d		 jne	 SHORT $L270157
  00035	53		 push	 ebx
  00036	57		 push	 edi
  00037	8b ce		 mov	 ecx, esi
  00039	e8 00 00 00 00	 call	 ?VecInWorld@CWorld@@QAEHMM@Z ; CWorld::VecInWorld
  0003e	85 c0		 test	 eax, eax
  00040	75 0c		 jne	 SHORT $L262554
$L270157:
  00042	5f		 pop	 edi
  00043	5e		 pop	 esi
  00044	5d		 pop	 ebp

; 642  : 		return FALSE;

  00045	33 c0		 xor	 eax, eax
  00047	5b		 pop	 ebx

; 646  : #else	// __WORLDSERVER
; 647  : 	FLOAT rX	= vPos.x / MPU;	// - m_nWorldX;
; 648  : 	FLOAT rZ	= vPos.z / MPU;	// - m_nWorldY;
; 649  : 	int mX	= int( rX / MAP_SIZE );
; 650  : 	int mZ	= int( rZ / MAP_SIZE );
; 651  : 
; 652  : 	CLandscape* pLandscape	= m_apLand[mX + mZ * m_nLandWidth];
; 653  : 	if( NULL != pLandscape ) 
; 654  : 	{
; 655  : 		return pLandscape->InsertObjLink( pObj );
; 656  : 	}
; 657  : 	/*
; 658  : 	else 
; 659  : 	{
; 660  : 		char szMessage[260]	= { 0, };
; 661  : 		sprintf( szMessage, "IOL error with landscape unloaded - g_pPlayer = %f, %f\t//pObj = %f, %f",
; 662  : 			g_pPlayer->GetPos().x, g_pPlayer->GetPos().z, pObj->GetPos().x, pObj->GetPos().z );
; 663  : 		DEBUGOUT2( szMessage );
; 664  : 	}
; 665  : 	*/
; 666  : 	return FALSE;
; 667  : #endif	// __WORLDSERVER
; 668  : }

  00048	83 c4 0c	 add	 esp, 12			; 0000000cH
  0004b	c2 04 00	 ret	 4
$L262554:

; 643  : 
; 644  : #ifdef __WORLDSERVER
; 645  : 	return m_linkMap.InsertObjLink( pObj );

  0004e	55		 push	 ebp
  0004f	8d 4e 24	 lea	 ecx, DWORD PTR [esi+36]
  00052	e8 00 00 00 00	 call	 ?InsertObjLink@CLayeredLinkMap@@QAEHPAVCObj@@@Z ; CLayeredLinkMap::InsertObjLink
  00057	5f		 pop	 edi
  00058	5e		 pop	 esi
  00059	5d		 pop	 ebp
  0005a	5b		 pop	 ebx

; 646  : #else	// __WORLDSERVER
; 647  : 	FLOAT rX	= vPos.x / MPU;	// - m_nWorldX;
; 648  : 	FLOAT rZ	= vPos.z / MPU;	// - m_nWorldY;
; 649  : 	int mX	= int( rX / MAP_SIZE );
; 650  : 	int mZ	= int( rZ / MAP_SIZE );
; 651  : 
; 652  : 	CLandscape* pLandscape	= m_apLand[mX + mZ * m_nLandWidth];
; 653  : 	if( NULL != pLandscape ) 
; 654  : 	{
; 655  : 		return pLandscape->InsertObjLink( pObj );
; 656  : 	}
; 657  : 	/*
; 658  : 	else 
; 659  : 	{
; 660  : 		char szMessage[260]	= { 0, };
; 661  : 		sprintf( szMessage, "IOL error with landscape unloaded - g_pPlayer = %f, %f\t//pObj = %f, %f",
; 662  : 			g_pPlayer->GetPos().x, g_pPlayer->GetPos().z, pObj->GetPos().x, pObj->GetPos().z );
; 663  : 		DEBUGOUT2( szMessage );
; 664  : 	}
; 665  : 	*/
; 666  : 	return FALSE;
; 667  : #endif	// __WORLDSERVER
; 668  : }

  0005b	83 c4 0c	 add	 esp, 12			; 0000000cH
  0005e	c2 04 00	 ret	 4
?InsertObjLink@CWorld@@QAEHPAVCObj@@@Z ENDP		; CWorld::InsertObjLink
_TEXT	ENDS
PUBLIC	?RemoveObjLink@CWorld@@QAEHPAVCObj@@@Z		; CWorld::RemoveObjLink
PUBLIC	??_C@_0DB@CFEPIBL@ROL?1?1INVALID?5POS?1?1?$CFd?0?5?$CFd?0?5?$CFf?0?5?$CFf@ ; `string'
EXTRN	?RemoveObjLink@CLayeredLinkMap@@QAEHPAVCObj@@@Z:NEAR ; CLayeredLinkMap::RemoveObjLink
;	COMDAT ??_C@_0DB@CFEPIBL@ROL?1?1INVALID?5POS?1?1?$CFd?0?5?$CFd?0?5?$CFf?0?5?$CFf@
; File c:\documents and settings\test\mes documents\source\virtuos_v17\build\program\_common\obj.h
CONST	SEGMENT
??_C@_0DB@CFEPIBL@ROL?1?1INVALID?5POS?1?1?$CFd?0?5?$CFd?0?5?$CFf?0?5?$CFf@ DB 'R'
	DB	'OL//INVALID POS//%d, %d, %f, %f, %f, %f, %f, %f', 00H ; `string'
; Function compile flags: /Ogty
; File c:\documents and settings\test\mes documents\source\virtuos_v17\build\program\_common\world.cpp
CONST	ENDS
;	COMDAT ?RemoveObjLink@CWorld@@QAEHPAVCObj@@@Z
_TEXT	SEGMENT
_vPos$ = -48						; size = 12
$T270161 = -36						; size = 12
$T270162 = -24						; size = 12
$T270163 = -12						; size = 12
_pObj$ = 8						; size = 4
?RemoveObjLink@CWorld@@QAEHPAVCObj@@@Z PROC NEAR	; CWorld::RemoveObjLink, COMDAT
; _this$ = ecx

; 680  : {

  00000	55		 push	 ebp
  00001	8b ec		 mov	 ebp, esp
  00003	83 e4 f8	 and	 esp, -8			; fffffff8H
  00006	83 ec 34	 sub	 esp, 52			; 00000034H
  00009	53		 push	 ebx
  0000a	56		 push	 esi
  0000b	57		 push	 edi

; 681  : 	D3DXVECTOR3	vPos	= pObj->GetLinkPos();

  0000c	8b 7d 08	 mov	 edi, DWORD PTR _pObj$[ebp]
  0000f	8d 87 ac 01 00
	00		 lea	 eax, DWORD PTR [edi+428]
  00015	8b 18		 mov	 ebx, DWORD PTR [eax]
  00017	8b f1		 mov	 esi, ecx
  00019	8b 48 04	 mov	 ecx, DWORD PTR [eax+4]
  0001c	8b 50 08	 mov	 edx, DWORD PTR [eax+8]
  0001f	89 4c 24 14	 mov	 DWORD PTR _vPos$[esp+68], ecx

; 682  : 	if( VecInWorld( vPos ) == FALSE )

  00023	d9 44 24 14	 fld	 DWORD PTR _vPos$[esp+68]
  00027	83 ec 08	 sub	 esp, 8
  0002a	dd 1c 24	 fstp	 QWORD PTR [esp]
  0002d	89 5c 24 18	 mov	 DWORD PTR _vPos$[esp+72], ebx
  00031	89 54 24 20	 mov	 DWORD PTR _vPos$[esp+80], edx
  00035	e8 00 00 00 00	 call	 __isnan
  0003a	83 c4 08	 add	 esp, 8
  0003d	85 c0		 test	 eax, eax
  0003f	75 15		 jne	 SHORT $L270189
  00041	8b 44 24 18	 mov	 eax, DWORD PTR _vPos$[esp+72]
  00045	50		 push	 eax
  00046	53		 push	 ebx
  00047	8b ce		 mov	 ecx, esi
  00049	e8 00 00 00 00	 call	 ?VecInWorld@CWorld@@QAEHMM@Z ; CWorld::VecInWorld
  0004e	85 c0		 test	 eax, eax
  00050	0f 85 9e 00 00
	00		 jne	 $L262565
$L270189:

; 683  : 	{
; 684  : 		WriteError( "ROL//INVALID POS//%d, %d, %f, %f, %f, %f, %f, %f", 
; 685  : 			pObj->GetType(), pObj->GetIndex(), pObj->GetPos().x, pObj->GetPos().y, pObj->GetPos().z, vPos.x, vPos.y, vPos.z );

  00056	d9 44 24 18	 fld	 DWORD PTR _vPos$[esp+72]
  0005a	8d 87 60 01 00
	00		 lea	 eax, DWORD PTR [edi+352]
  00060	83 ec 30	 sub	 esp, 48			; 00000030H
  00063	dd 5c 24 28	 fstp	 QWORD PTR [esp+40]
  00067	8b c8		 mov	 ecx, eax
  00069	8b 11		 mov	 edx, DWORD PTR [ecx]
  0006b	d9 44 24 44	 fld	 DWORD PTR _vPos$[esp+116]
  0006f	89 54 24 4c	 mov	 DWORD PTR $T270161[esp+112], edx
  00073	dd 5c 24 20	 fstp	 QWORD PTR [esp+32]
  00077	8b 51 04	 mov	 edx, DWORD PTR [ecx+4]
  0007a	d9 44 24 40	 fld	 DWORD PTR _vPos$[esp+112]
  0007e	8b 49 08	 mov	 ecx, DWORD PTR [ecx+8]
  00081	dd 5c 24 18	 fstp	 QWORD PTR [esp+24]
  00085	89 54 24 50	 mov	 DWORD PTR $T270161[esp+116], edx
  00089	89 4c 24 54	 mov	 DWORD PTR $T270161[esp+120], ecx
  0008d	d9 44 24 54	 fld	 DWORD PTR $T270161[esp+120]
  00091	8b d0		 mov	 edx, eax
  00093	dd 5c 24 10	 fstp	 QWORD PTR [esp+16]
  00097	8b 0a		 mov	 ecx, DWORD PTR [edx]
  00099	89 4c 24 58	 mov	 DWORD PTR $T270162[esp+112], ecx
  0009d	8b 4a 04	 mov	 ecx, DWORD PTR [edx+4]
  000a0	8b 52 08	 mov	 edx, DWORD PTR [edx+8]
  000a3	89 4c 24 5c	 mov	 DWORD PTR $T270162[esp+116], ecx
  000a7	d9 44 24 5c	 fld	 DWORD PTR $T270162[esp+116]
  000ab	8b 08		 mov	 ecx, DWORD PTR [eax]
  000ad	dd 5c 24 08	 fstp	 QWORD PTR [esp+8]
  000b1	89 54 24 60	 mov	 DWORD PTR $T270162[esp+120], edx
  000b5	8b 50 04	 mov	 edx, DWORD PTR [eax+4]
  000b8	8b 40 08	 mov	 eax, DWORD PTR [eax+8]
  000bb	89 4c 24 64	 mov	 DWORD PTR $T270163[esp+112], ecx
  000bf	d9 44 24 64	 fld	 DWORD PTR $T270163[esp+112]
  000c3	8b 8f 74 01 00
	00		 mov	 ecx, DWORD PTR [edi+372]
  000c9	dd 1c 24	 fstp	 QWORD PTR [esp]
  000cc	89 54 24 68	 mov	 DWORD PTR $T270163[esp+116], edx
  000d0	8b 97 70 01 00
	00		 mov	 edx, DWORD PTR [edi+368]
  000d6	51		 push	 ecx
  000d7	52		 push	 edx
  000d8	68 00 00 00 00	 push	 OFFSET FLAT:??_C@_0DB@CFEPIBL@ROL?1?1INVALID?5POS?1?1?$CFd?0?5?$CFd?0?5?$CFf?0?5?$CFf@
  000dd	89 44 24 78	 mov	 DWORD PTR $T270163[esp+132], eax
  000e1	e8 00 00 00 00	 call	 ?WriteError@@YAXPBDZZ	; WriteError
  000e6	83 c4 3c	 add	 esp, 60			; 0000003cH

; 686  : 		return FALSE;

  000e9	33 c0		 xor	 eax, eax

; 690  : #else	// __WORLDSERVER
; 691  : 	FLOAT rX = vPos.x / MPU;	
; 692  : 	FLOAT rZ = vPos.z / MPU;	
; 693  : 	int   mX = int( rX / MAP_SIZE );
; 694  : 	int   mZ = int( rZ / MAP_SIZE );
; 695  : 
; 696  : 	CLandscape* pLandscape	= m_apLand[mX + mZ * m_nLandWidth];
; 697  : 	if( NULL != pLandscape ) {
; 698  : 		return pLandscape->RemoveObjLink( pObj );
; 699  : 	}
; 700  : 	/*
; 701  : 	else {
; 702  : 		char szMessage[260]	= { 0, };
; 703  : 		sprintf( szMessage, "ROL error with landscape unloaded - g_pPlayer = %f, %f\t//pObj = %f, %f",
; 704  : 			g_pPlayer->GetPos().x, g_pPlayer->GetPos().z, pObj->GetPos().x, pObj->GetPos().z );
; 705  : 		DEBUGOUT2( szMessage );
; 706  : 	}
; 707  : 	*/
; 708  : 	return FALSE;
; 709  : #endif	// __WORLDSERVER
; 710  : }

  000eb	5f		 pop	 edi
  000ec	5e		 pop	 esi
  000ed	5b		 pop	 ebx
  000ee	8b e5		 mov	 esp, ebp
  000f0	5d		 pop	 ebp
  000f1	c2 04 00	 ret	 4
$L262565:

; 687  : 	}
; 688  : #ifdef __WORLDSERVER
; 689  : 	return m_linkMap.RemoveObjLink( pObj );

  000f4	57		 push	 edi
  000f5	8d 4e 24	 lea	 ecx, DWORD PTR [esi+36]
  000f8	e8 00 00 00 00	 call	 ?RemoveObjLink@CLayeredLinkMap@@QAEHPAVCObj@@@Z ; CLayeredLinkMap::RemoveObjLink

; 690  : #else	// __WORLDSERVER
; 691  : 	FLOAT rX = vPos.x / MPU;	
; 692  : 	FLOAT rZ = vPos.z / MPU;	
; 693  : 	int   mX = int( rX / MAP_SIZE );
; 694  : 	int   mZ = int( rZ / MAP_SIZE );
; 695  : 
; 696  : 	CLandscape* pLandscape	= m_apLand[mX + mZ * m_nLandWidth];
; 697  : 	if( NULL != pLandscape ) {
; 698  : 		return pLandscape->RemoveObjLink( pObj );
; 699  : 	}
; 700  : 	/*
; 701  : 	else {
; 702  : 		char szMessage[260]	= { 0, };
; 703  : 		sprintf( szMessage, "ROL error with landscape unloaded - g_pPlayer = %f, %f\t//pObj = %f, %f",
; 704  : 			g_pPlayer->GetPos().x, g_pPlayer->GetPos().z, pObj->GetPos().x, pObj->GetPos().z );
; 705  : 		DEBUGOUT2( szMessage );
; 706  : 	}
; 707  : 	*/
; 708  : 	return FALSE;
; 709  : #endif	// __WORLDSERVER
; 710  : }

  000fd	5f		 pop	 edi
  000fe	5e		 pop	 esi
  000ff	5b		 pop	 ebx
  00100	8b e5		 mov	 esp, ebp
  00102	5d		 pop	 ebp
  00103	c2 04 00	 ret	 4
?RemoveObjLink@CWorld@@QAEHPAVCObj@@@Z ENDP		; CWorld::RemoveObjLink
_TEXT	ENDS
PUBLIC	?GetObjInLinkMap@CWorld@@QAEPAVCObj@@ABUD3DXVECTOR3@@KHH@Z ; CWorld::GetObjInLinkMap
EXTRN	?GetObjInLinkMap@CLayeredLinkMap@@QAEPAVCObj@@ABUD3DXVECTOR3@@KHH@Z:NEAR ; CLayeredLinkMap::GetObjInLinkMap
; Function compile flags: /Ogty
;	COMDAT ?GetObjInLinkMap@CWorld@@QAEPAVCObj@@ABUD3DXVECTOR3@@KHH@Z
_TEXT	SEGMENT
_vPos$ = 8						; size = 4
_dwLinkType$ = 12					; size = 4
_nLinkLevel$ = 16					; size = 4
_nLayer$ = 20						; size = 4
?GetObjInLinkMap@CWorld@@QAEPAVCObj@@ABUD3DXVECTOR3@@KHH@Z PROC NEAR ; CWorld::GetObjInLinkMap, COMDAT
; _this$ = ecx

; 717  : {

  00000	56		 push	 esi

; 718  : 	if( VecInWorld( vPos ) == FALSE )

  00001	8b 74 24 08	 mov	 esi, DWORD PTR _vPos$[esp]
  00005	d9 46 04	 fld	 DWORD PTR [esi+4]
  00008	57		 push	 edi
  00009	83 ec 08	 sub	 esp, 8
  0000c	dd 1c 24	 fstp	 QWORD PTR [esp]
  0000f	8b f9		 mov	 edi, ecx
  00011	e8 00 00 00 00	 call	 __isnan
  00016	83 c4 08	 add	 esp, 8
  00019	85 c0		 test	 eax, eax
  0001b	75 12		 jne	 SHORT $L270197
  0001d	8b 46 08	 mov	 eax, DWORD PTR [esi+8]
  00020	8b 0e		 mov	 ecx, DWORD PTR [esi]
  00022	50		 push	 eax
  00023	51		 push	 ecx
  00024	8b cf		 mov	 ecx, edi
  00026	e8 00 00 00 00	 call	 ?VecInWorld@CWorld@@QAEHMM@Z ; CWorld::VecInWorld
  0002b	85 c0		 test	 eax, eax
  0002d	75 07		 jne	 SHORT $L262577
$L270197:
  0002f	5f		 pop	 edi

; 719  : 		return NULL;

  00030	33 c0		 xor	 eax, eax
  00032	5e		 pop	 esi

; 723  : 	#else	// __LAYER_1015
; 724  : 	return m_linkMap.GetObjInLinkMap( vPos, dwLinkType, nLinkLevel );
; 725  : 	#endif	// __LAYER_1015
; 726  : #else	// __WORLDSERVER
; 727  : 	FLOAT rX = vPos.x / MPU;
; 728  : 	FLOAT rZ = vPos.z / MPU;
; 729  : 	int	mX	= int( rX / MAP_SIZE );
; 730  : 	int	mZ	= int( rZ / MAP_SIZE );
; 731  : 	CLandscape* pLandscape	= m_apLand[mX + mZ * m_nLandWidth];
; 732  : 	if( NULL != pLandscape ) {
; 733  : 		return pLandscape->GetObjInLinkMap( vPos, dwLinkType, nLinkLevel );
; 734  : 	}
; 735  : 	/*
; 736  : 	else {
; 737  : 		char szMessage[260]	= { 0, };
; 738  : 		sprintf( szMessage, "GOILM error with landscape unloaded - g_pPlayer = %f, %f\t//pObj = %f, %f",
; 739  : 			g_pPlayer->GetPos().x, g_pPlayer->GetPos().z, vPos.x, vPos.z );
; 740  : 		DEBUGOUT2( szMessage );
; 741  : 	}
; 742  : 	*/
; 743  : 	return NULL;
; 744  : #endif	// __WORLDSERVER
; 745  : }

  00033	c2 10 00	 ret	 16			; 00000010H
$L262577:

; 720  : #ifdef __WORLDSERVER
; 721  : 	#ifdef __LAYER_1015
; 722  : 	return m_linkMap.GetObjInLinkMap( vPos, dwLinkType, nLinkLevel, nLayer );

  00036	8b 54 24 18	 mov	 edx, DWORD PTR _nLayer$[esp+4]
  0003a	8b 44 24 14	 mov	 eax, DWORD PTR _nLinkLevel$[esp+4]
  0003e	8b 4c 24 10	 mov	 ecx, DWORD PTR _dwLinkType$[esp+4]
  00042	52		 push	 edx
  00043	50		 push	 eax
  00044	51		 push	 ecx
  00045	56		 push	 esi
  00046	8d 4f 24	 lea	 ecx, DWORD PTR [edi+36]
  00049	e8 00 00 00 00	 call	 ?GetObjInLinkMap@CLayeredLinkMap@@QAEPAVCObj@@ABUD3DXVECTOR3@@KHH@Z ; CLayeredLinkMap::GetObjInLinkMap
  0004e	5f		 pop	 edi
  0004f	5e		 pop	 esi

; 723  : 	#else	// __LAYER_1015
; 724  : 	return m_linkMap.GetObjInLinkMap( vPos, dwLinkType, nLinkLevel );
; 725  : 	#endif	// __LAYER_1015
; 726  : #else	// __WORLDSERVER
; 727  : 	FLOAT rX = vPos.x / MPU;
; 728  : 	FLOAT rZ = vPos.z / MPU;
; 729  : 	int	mX	= int( rX / MAP_SIZE );
; 730  : 	int	mZ	= int( rZ / MAP_SIZE );
; 731  : 	CLandscape* pLandscape	= m_apLand[mX + mZ * m_nLandWidth];
; 732  : 	if( NULL != pLandscape ) {
; 733  : 		return pLandscape->GetObjInLinkMap( vPos, dwLinkType, nLinkLevel );
; 734  : 	}
; 735  : 	/*
; 736  : 	else {
; 737  : 		char szMessage[260]	= { 0, };
; 738  : 		sprintf( szMessage, "GOILM error with landscape unloaded - g_pPlayer = %f, %f\t//pObj = %f, %f",
; 739  : 			g_pPlayer->GetPos().x, g_pPlayer->GetPos().z, vPos.x, vPos.z );
; 740  : 		DEBUGOUT2( szMessage );
; 741  : 	}
; 742  : 	*/
; 743  : 	return NULL;
; 744  : #endif	// __WORLDSERVER
; 745  : }

  00050	c2 10 00	 ret	 16			; 00000010H
?GetObjInLinkMap@CWorld@@QAEPAVCObj@@ABUD3DXVECTOR3@@KHH@Z ENDP ; CWorld::GetObjInLinkMap
_TEXT	ENDS
PUBLIC	?SetObjInLinkMap@CWorld@@QAEHABUD3DXVECTOR3@@KHPAVCObj@@H@Z ; CWorld::SetObjInLinkMap
EXTRN	?SetObjInLinkMap@CLayeredLinkMap@@QAEHABUD3DXVECTOR3@@KHPAVCObj@@H@Z:NEAR ; CLayeredLinkMap::SetObjInLinkMap
; Function compile flags: /Ogty
;	COMDAT ?SetObjInLinkMap@CWorld@@QAEHABUD3DXVECTOR3@@KHPAVCObj@@H@Z
_TEXT	SEGMENT
_vPos$ = 8						; size = 4
_dwLinkType$ = 12					; size = 4
_nLinkLevel$ = 16					; size = 4
_pObj$ = 20						; size = 4
_nLayer$ = 24						; size = 4
?SetObjInLinkMap@CWorld@@QAEHABUD3DXVECTOR3@@KHPAVCObj@@H@Z PROC NEAR ; CWorld::SetObjInLinkMap, COMDAT
; _this$ = ecx

; 752  : {

  00000	56		 push	 esi

; 753  : 	if( VecInWorld( vPos ) == FALSE )

  00001	8b 74 24 08	 mov	 esi, DWORD PTR _vPos$[esp]
  00005	d9 46 04	 fld	 DWORD PTR [esi+4]
  00008	57		 push	 edi
  00009	83 ec 08	 sub	 esp, 8
  0000c	dd 1c 24	 fstp	 QWORD PTR [esp]
  0000f	8b f9		 mov	 edi, ecx
  00011	e8 00 00 00 00	 call	 __isnan
  00016	83 c4 08	 add	 esp, 8
  00019	85 c0		 test	 eax, eax
  0001b	75 12		 jne	 SHORT $L270206
  0001d	8b 46 08	 mov	 eax, DWORD PTR [esi+8]
  00020	8b 0e		 mov	 ecx, DWORD PTR [esi]
  00022	50		 push	 eax
  00023	51		 push	 ecx
  00024	8b cf		 mov	 ecx, edi
  00026	e8 00 00 00 00	 call	 ?VecInWorld@CWorld@@QAEHMM@Z ; CWorld::VecInWorld
  0002b	85 c0		 test	 eax, eax
  0002d	75 07		 jne	 SHORT $L262586
$L270206:
  0002f	5f		 pop	 edi

; 754  : 		return FALSE;

  00030	33 c0		 xor	 eax, eax
  00032	5e		 pop	 esi

; 758  : 	#else	// __LAYER_1015
; 759  : 	return m_linkMap.SetObjInLinkMap( vPos, dwLinkType, nLinkLevel, pObj );
; 760  : 	#endif	// __LAYER_1015
; 761  : #else	// __WORLDSERVER
; 762  : 	FLOAT rX = vPos.x / MPU;
; 763  : 	FLOAT rZ = vPos.z / MPU;
; 764  : 	int mX	= int( rX / MAP_SIZE );
; 765  : 	int mZ	= int( rZ / MAP_SIZE );
; 766  : 	CLandscape* pLandscape	= m_apLand[mX + mZ * m_nLandWidth];
; 767  : 	if( NULL != pLandscape ) {
; 768  : 		pLandscape->SetObjInLinkMap( vPos, dwLinkType, nLinkLevel, pObj );	//m_aObjLinkMap[mX_ + mZ_ * MAP_SIZE]	= pObj;
; 769  : 	}
; 770  : 	/*
; 771  : 	else {
; 772  : 		char szMessage[260]	= { 0, };
; 773  : 		sprintf( szMessage, "SOILM error with landscape unloaded - g_pPlayer = %f, %f\t//pObj = %f, %f",
; 774  : 			g_pPlayer->GetPos().x, g_pPlayer->GetPos().z, vPos.x, vPos.z );
; 775  : 		DEBUGOUT2( szMessage );
; 776  : 	}
; 777  : 	*/
; 778  : #endif	// __WORLDSERVER
; 779  : 	return TRUE;
; 780  : } 

  00033	c2 14 00	 ret	 20			; 00000014H
$L262586:

; 755  : #ifdef __WORLDSERVER
; 756  : 	#ifdef __LAYER_1015
; 757  : 	return m_linkMap.SetObjInLinkMap( vPos, dwLinkType, nLinkLevel, pObj, nLayer );

  00036	8b 54 24 1c	 mov	 edx, DWORD PTR _nLayer$[esp+4]
  0003a	8b 44 24 18	 mov	 eax, DWORD PTR _pObj$[esp+4]
  0003e	8b 4c 24 14	 mov	 ecx, DWORD PTR _nLinkLevel$[esp+4]
  00042	52		 push	 edx
  00043	8b 54 24 14	 mov	 edx, DWORD PTR _dwLinkType$[esp+8]
  00047	50		 push	 eax
  00048	51		 push	 ecx
  00049	52		 push	 edx
  0004a	56		 push	 esi
  0004b	8d 4f 24	 lea	 ecx, DWORD PTR [edi+36]
  0004e	e8 00 00 00 00	 call	 ?SetObjInLinkMap@CLayeredLinkMap@@QAEHABUD3DXVECTOR3@@KHPAVCObj@@H@Z ; CLayeredLinkMap::SetObjInLinkMap
  00053	5f		 pop	 edi
  00054	5e		 pop	 esi

; 758  : 	#else	// __LAYER_1015
; 759  : 	return m_linkMap.SetObjInLinkMap( vPos, dwLinkType, nLinkLevel, pObj );
; 760  : 	#endif	// __LAYER_1015
; 761  : #else	// __WORLDSERVER
; 762  : 	FLOAT rX = vPos.x / MPU;
; 763  : 	FLOAT rZ = vPos.z / MPU;
; 764  : 	int mX	= int( rX / MAP_SIZE );
; 765  : 	int mZ	= int( rZ / MAP_SIZE );
; 766  : 	CLandscape* pLandscape	= m_apLand[mX + mZ * m_nLandWidth];
; 767  : 	if( NULL != pLandscape ) {
; 768  : 		pLandscape->SetObjInLinkMap( vPos, dwLinkType, nLinkLevel, pObj );	//m_aObjLinkMap[mX_ + mZ_ * MAP_SIZE]	= pObj;
; 769  : 	}
; 770  : 	/*
; 771  : 	else {
; 772  : 		char szMessage[260]	= { 0, };
; 773  : 		sprintf( szMessage, "SOILM error with landscape unloaded - g_pPlayer = %f, %f\t//pObj = %f, %f",
; 774  : 			g_pPlayer->GetPos().x, g_pPlayer->GetPos().z, vPos.x, vPos.z );
; 775  : 		DEBUGOUT2( szMessage );
; 776  : 	}
; 777  : 	*/
; 778  : #endif	// __WORLDSERVER
; 779  : 	return TRUE;
; 780  : } 

  00055	c2 14 00	 ret	 20			; 00000014H
?SetObjInLinkMap@CWorld@@QAEHABUD3DXVECTOR3@@KHPAVCObj@@H@Z ENDP ; CWorld::SetObjInLinkMap
_TEXT	ENDS
PUBLIC	?GetLandHeight@CWorld@@QAEMMM@Z			; CWorld::GetLandHeight
PUBLIC	??_C@_0CO@PFFBKGBP@CWorld?3?3GetLandHeight?5?3?5?$CFd?5?$CFd?0?5?5@ ; `string'
PUBLIC	__real@447a0000
PUBLIC	__real@3a83126f
EXTRN	__ftol2:NEAR
;	COMDAT ??_C@_0CO@PFFBKGBP@CWorld?3?3GetLandHeight?5?3?5?$CFd?5?$CFd?0?5?5@
CONST	SEGMENT
??_C@_0CO@PFFBKGBP@CWorld?3?3GetLandHeight?5?3?5?$CFd?5?$CFd?0?5?5@ DB 'C'
	DB	'World::GetLandHeight : %d %d,  %f %f,  %d %d', 00H ; `string'
CONST	ENDS
;	COMDAT __real@447a0000
CONST	SEGMENT
__real@447a0000 DD 0447a0000r			; 1000
CONST	ENDS
;	COMDAT __real@3a83126f
CONST	SEGMENT
__real@3a83126f DD 03a83126fr			; 0.001
; Function compile flags: /Ogty
CONST	ENDS
;	COMDAT ?GetLandHeight@CWorld@@QAEMMM@Z
_TEXT	SEGMENT
_dz$ = -16						; size = 4
_pz$ = -16						; size = 4
_dx$ = -12						; size = 4
__z$ = -8						; size = 4
tv317 = -4						; size = 4
tv309 = -4						; size = 4
tv300 = -4						; size = 4
tv292 = -4						; size = 4
__x$ = -4						; size = 4
_y1$ = 8						; size = 4
_px$ = 8						; size = 4
_x$ = 8							; size = 4
_y2$ = 12						; size = 4
_z$ = 12						; size = 4
?GetLandHeight@CWorld@@QAEMMM@Z PROC NEAR		; CWorld::GetLandHeight, COMDAT
; _this$ = ecx

; 1011 : {

  00000	83 ec 10	 sub	 esp, 16			; 00000010H

; 1012 : 	float _x = x, _z = z;

  00003	8b 44 24 14	 mov	 eax, DWORD PTR _x$[esp+12]
  00007	56		 push	 esi
  00008	8b f1		 mov	 esi, ecx
  0000a	8b 4c 24 1c	 mov	 ecx, DWORD PTR _z$[esp+16]

; 1013 : 
; 1014 : 	if( VecInWorld( x, z ) == FALSE )

  0000e	8b d1		 mov	 edx, ecx
  00010	52		 push	 edx
  00011	89 4c 24 10	 mov	 DWORD PTR __z$[esp+24], ecx
  00015	50		 push	 eax
  00016	8b ce		 mov	 ecx, esi
  00018	89 44 24 18	 mov	 DWORD PTR __x$[esp+28], eax
  0001c	e8 00 00 00 00	 call	 ?VecInWorld@CWorld@@QAEHMM@Z ; CWorld::VecInWorld
  00021	85 c0		 test	 eax, eax
  00023	75 0d		 jne	 SHORT $L262598

; 1015 : 		return 0;

  00025	d9 05 00 00 00
	00		 fld	 DWORD PTR __real@00000000
  0002b	5e		 pop	 esi

; 1061 : #else
; 1062 : 	float rX = x;
; 1063 : 	float rZ = z;
; 1064 : 	int mX = int( rX / MAP_SIZE );
; 1065 : 	int mZ = int( rZ / MAP_SIZE );
; 1066 : 	CLandscape* pLand = m_apLand[ mX + mZ * m_nLandWidth ];
; 1067 : 	if( pLand == NULL ) 
; 1068 : 		return 0;
; 1069 : 
; 1070 : 	return pLand->GetHeight( x - ( mX * MAP_SIZE ), z - ( mZ * MAP_SIZE ) );
; 1071 : #endif
; 1072 : }

  0002c	83 c4 10	 add	 esp, 16			; 00000010H
  0002f	c2 08 00	 ret	 8
$L262598:

; 1016 : 	
; 1017 : 	x /= m_iMPU;		

  00032	db 46 14	 fild	 DWORD PTR [esi+20]
  00035	53		 push	 ebx
  00036	55		 push	 ebp
  00037	57		 push	 edi
  00038	d8 3d 00 00 00
	00		 fdivr	 DWORD PTR __real@3f800000
  0003e	d9 44 24 24	 fld	 DWORD PTR _x$[esp+28]
  00042	d8 c9		 fmul	 ST(0), ST(1)

; 1018 : 	z /= m_iMPU;

  00044	d9 c9		 fxch	 ST(1)
  00046	d8 4c 24 28	 fmul	 DWORD PTR _z$[esp+28]
  0004a	d9 5c 24 28	 fstp	 DWORD PTR _z$[esp+28]

; 1019 : #ifdef __WORLDSERVER
; 1020 : 	int px, pz;
; 1021 : 	FLOAT dx, dz;
; 1022 : 	FLOAT dy1, dy2, dy3, dy4;
; 1023 : 	px = (int)x;

  0004e	d9 c0		 fld	 ST(0)
  00050	e8 00 00 00 00	 call	 __ftol2

; 1024 : 	pz = (int)z;

  00055	d9 44 24 28	 fld	 DWORD PTR _z$[esp+28]
  00059	8b f8		 mov	 edi, eax
  0005b	89 7c 24 24	 mov	 DWORD PTR _px$[esp+28], edi
  0005f	e8 00 00 00 00	 call	 __ftol2

; 1025 : 	dx = x - px;

  00064	db 44 24 24	 fild	 DWORD PTR _px$[esp+28]

; 1026 : 	dz=  z - pz;
; 1027 : 
; 1028 : 	FLOAT y1 = m_apHeightMap[ px + pz * WORLD_WIDTH ];

  00068	8b 4e 0c	 mov	 ecx, DWORD PTR [esi+12]
  0006b	8b 5e 1c	 mov	 ebx, DWORD PTR [esi+28]

; 1029 : 	FLOAT y2 = m_apHeightMap[ px + 1 + pz * WORLD_WIDTH ];
; 1030 : 
; 1031 : 	if( px + ( pz + 1 ) * WORLD_WIDTH >= WORLD_WIDTH * WORLD_HEIGHT )

  0006e	8b 6e 10	 mov	 ebp, DWORD PTR [esi+16]
  00071	d8 e9		 fsubr	 ST(0), ST(1)
  00073	8b d1		 mov	 edx, ecx
  00075	0f af e9	 imul	 ebp, ecx
  00078	d9 5c 24 14	 fstp	 DWORD PTR _dx$[esp+32]
  0007c	dd d8		 fstp	 ST(0)
  0007e	0f af d0	 imul	 edx, eax
  00081	03 d7		 add	 edx, edi
  00083	8d 14 93	 lea	 edx, DWORD PTR [ebx+edx*4]
  00086	8b 1a		 mov	 ebx, DWORD PTR [edx]
  00088	8b 52 04	 mov	 edx, DWORD PTR [edx+4]
  0008b	89 44 24 10	 mov	 DWORD PTR _pz$[esp+32], eax
  0008f	89 5c 24 24	 mov	 DWORD PTR _y1$[esp+28], ebx
  00093	8d 58 01	 lea	 ebx, DWORD PTR [eax+1]
  00096	db 44 24 10	 fild	 DWORD PTR _pz$[esp+32]
  0009a	d8 6c 24 28	 fsubr	 DWORD PTR _z$[esp+28]
  0009e	89 54 24 28	 mov	 DWORD PTR _y2$[esp+28], edx
  000a2	8b d3		 mov	 edx, ebx
  000a4	0f af d1	 imul	 edx, ecx
  000a7	d9 5c 24 10	 fstp	 DWORD PTR _dz$[esp+32]
  000ab	03 d7		 add	 edx, edi
  000ad	3b d5		 cmp	 edx, ebp
  000af	7c 29		 jl	 SHORT $L262611

; 1032 : 		Error( "CWorld::GetLandHeight : %d %d,  %f %f,  %d %d", px, pz, _x, _z, m_nLandWidth, m_nLandHeight );

  000b1	8b 4e 08	 mov	 ecx, DWORD PTR [esi+8]
  000b4	d9 44 24 18	 fld	 DWORD PTR __z$[esp+32]
  000b8	8b 56 04	 mov	 edx, DWORD PTR [esi+4]
  000bb	51		 push	 ecx
  000bc	52		 push	 edx
  000bd	83 ec 10	 sub	 esp, 16			; 00000010H
  000c0	dd 5c 24 08	 fstp	 QWORD PTR [esp+8]
  000c4	d9 44 24 34	 fld	 DWORD PTR __x$[esp+56]
  000c8	dd 1c 24	 fstp	 QWORD PTR [esp]
  000cb	50		 push	 eax
  000cc	57		 push	 edi
  000cd	68 00 00 00 00	 push	 OFFSET FLAT:??_C@_0CO@PFFBKGBP@CWorld?3?3GetLandHeight?5?3?5?$CFd?5?$CFd?0?5?5@
  000d2	e8 00 00 00 00	 call	 ?Error@@YAPBDPBDZZ	; Error
  000d7	83 c4 24	 add	 esp, 36			; 00000024H
$L262611:

; 1033 : 
; 1034 : 	FLOAT y3 = m_apHeightMap[ px + ( pz + 1 ) * WORLD_WIDTH ];

  000da	8b 46 0c	 mov	 eax, DWORD PTR [esi+12]
  000dd	8b 4e 1c	 mov	 ecx, DWORD PTR [esi+28]
  000e0	0f af c3	 imul	 eax, ebx
  000e3	03 c7		 add	 eax, edi
  000e5	8d 04 81	 lea	 eax, DWORD PTR [ecx+eax*4]
  000e8	5f		 pop	 edi
  000e9	5d		 pop	 ebp
  000ea	d9 00		 fld	 DWORD PTR [eax]
  000ec	5b		 pop	 ebx

; 1035 : 	FLOAT y4 = m_apHeightMap[ px + 1 + ( pz + 1 ) * WORLD_WIDTH ];

  000ed	d9 40 04	 fld	 DWORD PTR [eax+4]

; 1036 : 	if( y1 >= HGT_NOWALK )		// 1000   .

  000f0	d9 44 24 18	 fld	 DWORD PTR _y1$[esp+16]
  000f4	d8 1d 00 00 00
	00		 fcomp	 DWORD PTR __real@447a0000
  000fa	df e0		 fnstsw	 ax
  000fc	f6 c4 01	 test	 ah, 1
  000ff	75 25		 jne	 SHORT $L262615

; 1037 : 	{
; 1038 : 		int n = (int)(y1 / HGT_NOWALK);

  00101	d9 44 24 18	 fld	 DWORD PTR _y1$[esp+16]
  00105	d8 0d 00 00 00
	00		 fmul	 DWORD PTR __real@3a83126f

; 1039 : 		y1 -= (float)(HGT_NOWALK * n);

  0010b	e8 00 00 00 00	 call	 __ftol2
  00110	89 44 24 10	 mov	 DWORD PTR tv317[esp+20], eax
  00114	db 44 24 10	 fild	 DWORD PTR tv317[esp+20]
  00118	d8 0d 00 00 00
	00		 fmul	 DWORD PTR __real@447a0000
  0011e	d8 6c 24 18	 fsubr	 DWORD PTR _y1$[esp+16]
  00122	d9 5c 24 18	 fstp	 DWORD PTR _y1$[esp+16]
$L262615:

; 1040 : 	}
; 1041 : 	if( y2 >= HGT_NOWALK )		// 1000   .

  00126	d9 44 24 1c	 fld	 DWORD PTR _y2$[esp+16]
  0012a	d8 1d 00 00 00
	00		 fcomp	 DWORD PTR __real@447a0000
  00130	df e0		 fnstsw	 ax
  00132	f6 c4 01	 test	 ah, 1
  00135	75 25		 jne	 SHORT $L262619

; 1042 : 	{
; 1043 : 		int n = (int)(y2 / HGT_NOWALK);

  00137	d9 44 24 1c	 fld	 DWORD PTR _y2$[esp+16]
  0013b	d8 0d 00 00 00
	00		 fmul	 DWORD PTR __real@3a83126f

; 1044 : 		y2 -= (float)(HGT_NOWALK * n);

  00141	e8 00 00 00 00	 call	 __ftol2
  00146	89 44 24 10	 mov	 DWORD PTR tv309[esp+20], eax
  0014a	db 44 24 10	 fild	 DWORD PTR tv309[esp+20]
  0014e	d8 0d 00 00 00
	00		 fmul	 DWORD PTR __real@447a0000
  00154	d8 6c 24 1c	 fsubr	 DWORD PTR _y2$[esp+16]
  00158	d9 5c 24 1c	 fstp	 DWORD PTR _y2$[esp+16]
$L262619:

; 1045 : 	}
; 1046 : 	if( y3 >= HGT_NOWALK )		// 1000   .

  0015c	d9 c1		 fld	 ST(1)
  0015e	d8 1d 00 00 00
	00		 fcomp	 DWORD PTR __real@447a0000
  00164	df e0		 fnstsw	 ax
  00166	f6 c4 01	 test	 ah, 1
  00169	75 1d		 jne	 SHORT $L262623

; 1047 : 	{
; 1048 : 		int n = (int)(y3 / HGT_NOWALK);

  0016b	d9 c1		 fld	 ST(1)
  0016d	d8 0d 00 00 00
	00		 fmul	 DWORD PTR __real@3a83126f

; 1049 : 		y3 -= (float)(HGT_NOWALK * n);

  00173	e8 00 00 00 00	 call	 __ftol2
  00178	89 44 24 10	 mov	 DWORD PTR tv300[esp+20], eax
  0017c	db 44 24 10	 fild	 DWORD PTR tv300[esp+20]
  00180	d8 0d 00 00 00
	00		 fmul	 DWORD PTR __real@447a0000
  00186	de ea		 fsubp	 ST(2), ST(0)
$L262623:

; 1050 : 	}
; 1051 : 	if( y4 >= HGT_NOWALK )		// 1000   .

  00188	d8 15 00 00 00
	00		 fcom	 DWORD PTR __real@447a0000
  0018e	df e0		 fnstsw	 ax
  00190	f6 c4 01	 test	 ah, 1
  00193	75 1d		 jne	 SHORT $L262627

; 1052 : 	{
; 1053 : 		int n = (int)(y4 / HGT_NOWALK);

  00195	d9 05 00 00 00
	00		 fld	 DWORD PTR __real@3a83126f
  0019b	d8 c9		 fmul	 ST(0), ST(1)

; 1054 : 		y4 -= (float)(HGT_NOWALK * n);

  0019d	e8 00 00 00 00	 call	 __ftol2
  001a2	89 44 24 10	 mov	 DWORD PTR tv292[esp+20], eax
  001a6	db 44 24 10	 fild	 DWORD PTR tv292[esp+20]
  001aa	d8 0d 00 00 00
	00		 fmul	 DWORD PTR __real@447a0000
  001b0	de e9		 fsubp	 ST(1), ST(0)
$L262627:

; 1055 : 	}
; 1056 : 	dy1 = y1 * ( 1 - dx ) * ( 1 - dz );

  001b2	d9 05 00 00 00
	00		 fld	 DWORD PTR __real@3f800000
  001b8	5e		 pop	 esi
  001b9	d8 24 24	 fsub	 DWORD PTR _dz$[esp+16]
  001bc	d9 05 00 00 00
	00		 fld	 DWORD PTR __real@3f800000
  001c2	d8 64 24 04	 fsub	 DWORD PTR _dx$[esp+16]

; 1057 : 	dy2 = y2 * dx * ( 1 - dz );
; 1058 : 	dy3 = y3 * ( 1 - dx ) * dz;
; 1059 : 	dy4 = y4 * dx * dz;
; 1060 : 	return dy1 + dy2 + dy3 + dy4;	

  001c6	d9 c0		 fld	 ST(0)
  001c8	de cc		 fmulp	 ST(4), ST(0)
  001ca	d9 cb		 fxch	 ST(3)
  001cc	d8 0c 24	 fmul	 DWORD PTR _dz$[esp+16]
  001cf	d9 c1		 fld	 ST(1)
  001d1	d8 4c 24 18	 fmul	 DWORD PTR _y2$[esp+12]
  001d5	d8 4c 24 04	 fmul	 DWORD PTR _dx$[esp+16]
  001d9	de c1		 faddp	 ST(1), ST(0)
  001db	d9 ca		 fxch	 ST(2)
  001dd	d8 0c 24	 fmul	 DWORD PTR _dz$[esp+16]
  001e0	d8 4c 24 04	 fmul	 DWORD PTR _dx$[esp+16]
  001e4	de c2		 faddp	 ST(2), ST(0)
  001e6	d9 ca		 fxch	 ST(2)
  001e8	d8 ca		 fmul	 ST(0), ST(2)
  001ea	d8 4c 24 14	 fmul	 DWORD PTR _y1$[esp+12]
  001ee	de c1		 faddp	 ST(1), ST(0)
  001f0	dd d9		 fstp	 ST(1)

; 1061 : #else
; 1062 : 	float rX = x;
; 1063 : 	float rZ = z;
; 1064 : 	int mX = int( rX / MAP_SIZE );
; 1065 : 	int mZ = int( rZ / MAP_SIZE );
; 1066 : 	CLandscape* pLand = m_apLand[ mX + mZ * m_nLandWidth ];
; 1067 : 	if( pLand == NULL ) 
; 1068 : 		return 0;
; 1069 : 
; 1070 : 	return pLand->GetHeight( x - ( mX * MAP_SIZE ), z - ( mZ * MAP_SIZE ) );
; 1071 : #endif
; 1072 : }

  001f2	83 c4 10	 add	 esp, 16			; 00000010H
  001f5	c2 08 00	 ret	 8
?GetLandHeight@CWorld@@QAEMMM@Z ENDP			; CWorld::GetLandHeight
_TEXT	ENDS
PUBLIC	?GetLandHeight@CWorld@@QAEMABUD3DXVECTOR3@@@Z	; CWorld::GetLandHeight
; Function compile flags: /Ogty
;	COMDAT ?GetLandHeight@CWorld@@QAEMABUD3DXVECTOR3@@@Z
_TEXT	SEGMENT
_vPos$ = 8						; size = 4
?GetLandHeight@CWorld@@QAEMABUD3DXVECTOR3@@@Z PROC NEAR	; CWorld::GetLandHeight, COMDAT
; _this$ = ecx

; 1076 : 	return GetLandHeight( vPos.x, vPos.z );

  00000	8b 44 24 04	 mov	 eax, DWORD PTR _vPos$[esp-4]
  00004	8b 50 08	 mov	 edx, DWORD PTR [eax+8]
  00007	8b 00		 mov	 eax, DWORD PTR [eax]
  00009	52		 push	 edx
  0000a	50		 push	 eax
  0000b	e8 00 00 00 00	 call	 ?GetLandHeight@CWorld@@QAEMMM@Z ; CWorld::GetLandHeight

; 1077 : }

  00010	c2 04 00	 ret	 4
?GetLandHeight@CWorld@@QAEMABUD3DXVECTOR3@@@Z ENDP	; CWorld::GetLandHeight
_TEXT	ENDS
PUBLIC	?GetLandTri2@CWorld@@QAEHMMPAUD3DXVECTOR3@@@Z	; CWorld::GetLandTri2
; Function compile flags: /Ogty
;	COMDAT ?GetLandTri2@CWorld@@QAEHMMPAUD3DXVECTOR3@@@Z
_TEXT	SEGMENT
_gx$ = -20						; size = 4
_gz$ = -16						; size = 4
$T270244 = -12						; size = 12
$T270243 = -12						; size = 12
$T270242 = -12						; size = 12
$T270241 = -12						; size = 12
$T270240 = -12						; size = 12
$T270239 = -12						; size = 12
$T270238 = -12						; size = 12
$T270237 = -12						; size = 12
$T270236 = -12						; size = 12
$T270235 = -12						; size = 12
$T270234 = -12						; size = 12
$T270233 = -12						; size = 12
$T270232 = -12						; size = 12
$T270231 = -12						; size = 12
$T270230 = -12						; size = 12
$T270229 = -12						; size = 12
$T270228 = -12						; size = 12
$T270227 = -12						; size = 12
$T270226 = -12						; size = 12
$T270225 = -12						; size = 12
$T270224 = -12						; size = 12
$T270223 = -12						; size = 12
$T270222 = -12						; size = 12
$T270221 = -12						; size = 12
tv1231 = 8						; size = 4
tv1227 = 8						; size = 4
tv1215 = 8						; size = 4
tv1210 = 8						; size = 4
tv1199 = 8						; size = 4
tv1194 = 8						; size = 4
tv1182 = 8						; size = 4
tv1178 = 8						; size = 4
tv1166 = 8						; size = 4
tv1161 = 8						; size = 4
tv1150 = 8						; size = 4
tv1145 = 8						; size = 4
tv1133 = 8						; size = 4
tv1129 = 8						; size = 4
tv1117 = 8						; size = 4
tv1113 = 8						; size = 4
tv1102 = 8						; size = 4
tv1097 = 8						; size = 4
tv1086 = 8						; size = 4
tv1082 = 8						; size = 4
tv1071 = 8						; size = 4
tv1067 = 8						; size = 4
tv1054 = 8						; size = 4
tv1049 = 8						; size = 4
tv1033 = 8						; size = 4
tv1028 = 8						; size = 4
tv1012 = 8						; size = 4
tv1008 = 8						; size = 4
tv941 = 8						; size = 4
tv765 = 8						; size = 4
tv749 = 8						; size = 4
tv728 = 8						; size = 4
tv691 = 8						; size = 4
tv617 = 8						; size = 4
tv604 = 8						; size = 4
tv562 = 8						; size = 4
tv551 = 8						; size = 4
tv545 = 8						; size = 4
tv539 = 8						; size = 4
tv485 = 8						; size = 4
tv473 = 8						; size = 4
tv472 = 8						; size = 4
tv428 = 8						; size = 4
tv348 = 8						; size = 4
tv340 = 8						; size = 4
tv329 = 8						; size = 4
tv325 = 8						; size = 4
tv302 = 8						; size = 4
tv299 = 8						; size = 4
tv293 = 8						; size = 4
tv256 = 8						; size = 4
tv233 = 8						; size = 4
tv175 = 8						; size = 4
tv153 = 8						; size = 4
_x$ = 8							; size = 4
tv1232 = 12						; size = 4
tv1225 = 12						; size = 4
tv1218 = 12						; size = 4
tv1211 = 12						; size = 4
tv1184 = 12						; size = 4
tv1177 = 12						; size = 4
tv1170 = 12						; size = 4
tv1148 = 12						; size = 4
tv1141 = 12						; size = 4
tv1134 = 12						; size = 4
tv1127 = 12						; size = 4
tv1092 = 12						; size = 4
tv1080 = 12						; size = 4
_z$ = 12						; size = 4
_pTri$ = 16						; size = 4
?GetLandTri2@CWorld@@QAEHMMPAUD3DXVECTOR3@@@Z PROC NEAR	; CWorld::GetLandTri2, COMDAT
; _this$ = ecx

; 1123 : 	if( VecInWorld( x, z ) == FALSE ) return FALSE;

  00000	8b 44 24 08	 mov	 eax, DWORD PTR _z$[esp-4]
  00004	83 ec 14	 sub	 esp, 20			; 00000014H
  00007	56		 push	 esi
  00008	8b f1		 mov	 esi, ecx
  0000a	8b 4c 24 1c	 mov	 ecx, DWORD PTR _x$[esp+20]
  0000e	50		 push	 eax
  0000f	51		 push	 ecx
  00010	8b ce		 mov	 ecx, esi
  00012	e8 00 00 00 00	 call	 ?VecInWorld@CWorld@@QAEHMM@Z ; CWorld::VecInWorld
  00017	85 c0		 test	 eax, eax
  00019	75 07		 jne	 SHORT $L262657
  0001b	5e		 pop	 esi

; 1277 : }

  0001c	83 c4 14	 add	 esp, 20			; 00000014H
  0001f	c2 0c 00	 ret	 12			; 0000000cH
$L262657:

; 1124 : 
; 1125 : 	x /= m_iMPU; 

  00022	db 46 14	 fild	 DWORD PTR [esi+20]
  00025	53		 push	 ebx
  00026	55		 push	 ebp
  00027	57		 push	 edi
  00028	d8 3d 00 00 00
	00		 fdivr	 DWORD PTR __real@3f800000
  0002e	d9 44 24 28	 fld	 DWORD PTR _x$[esp+32]
  00032	d8 c9		 fmul	 ST(0), ST(1)
  00034	d9 5c 24 28	 fstp	 DWORD PTR _x$[esp+32]

; 1126 : 	z /= m_iMPU;

  00038	d8 4c 24 2c	 fmul	 DWORD PTR _z$[esp+32]
  0003c	d9 5c 24 2c	 fstp	 DWORD PTR _z$[esp+32]

; 1127 : 
; 1128 : #ifdef __WORLDSERVER
; 1129 : 	int gx = (int)x;

  00040	d9 44 24 28	 fld	 DWORD PTR _x$[esp+32]
  00044	e8 00 00 00 00	 call	 __ftol2

; 1130 : 	int gz = (int)z;

  00049	d9 44 24 2c	 fld	 DWORD PTR _z$[esp+32]
  0004d	8b f8		 mov	 edi, eax
  0004f	89 7c 24 10	 mov	 DWORD PTR _gx$[esp+36], edi
  00053	e8 00 00 00 00	 call	 __ftol2

; 1131 : 	float glx = x - gx;

  00058	db 44 24 10	 fild	 DWORD PTR _gx$[esp+36]
  0005c	8b c8		 mov	 ecx, eax
  0005e	89 4c 24 14	 mov	 DWORD PTR _gz$[esp+36], ecx
  00062	d8 6c 24 28	 fsubr	 DWORD PTR _x$[esp+32]

; 1132 : 	float glz = z - gz;
; 1133 : 
; 1134 : 	if( (gx + gz) % 2 == 0 ) 

  00066	8d 14 39	 lea	 edx, DWORD PTR [ecx+edi]
  00069	81 e2 01 00 00
	80		 and	 edx, -2147483647	; 80000001H
  0006f	db 44 24 14	 fild	 DWORD PTR _gz$[esp+36]
  00073	d8 6c 24 2c	 fsubr	 DWORD PTR _z$[esp+32]
  00077	79 05		 jns	 SHORT $L270395
  00079	4a		 dec	 edx
  0007a	83 ca fe	 or	 edx, -2			; fffffffeH
  0007d	42		 inc	 edx
$L270395:
  0007e	0f 85 be 03 00
	00		 jne	 $L262664

; 1135 : 	{
; 1136 : 		if( glx > glz ) 
; 1137 : 		{
; 1138 : 			//0,3,1
; 1139 : 			pTri[0] = D3DXVECTOR3( (float)( (gx  ) * m_iMPU ), (float)( m_apHeightMap[(gx  )+(gz  )*WORLD_WIDTH] ), (float)( (gz  )*m_iMPU ) );

  00084	8b 5e 1c	 mov	 ebx, DWORD PTR [esi+28]
  00087	d9 c9		 fxch	 ST(1)
  00089	d8 d9		 fcomp	 ST(1)
  0008b	df e0		 fnstsw	 ax
  0008d	dd d8		 fstp	 ST(0)
  0008f	f6 c4 41	 test	 ah, 65			; 00000041H
  00092	8b 46 14	 mov	 eax, DWORD PTR [esi+20]
  00095	8b d0		 mov	 edx, eax
  00097	0f 85 cd 01 00
	00		 jne	 $L262665
  0009d	0f af d7	 imul	 edx, edi
  000a0	0f af c1	 imul	 eax, ecx
  000a3	89 54 24 28	 mov	 DWORD PTR tv1231[esp+32], edx
  000a7	8b 56 0c	 mov	 edx, DWORD PTR [esi+12]
  000aa	0f af d1	 imul	 edx, ecx
  000ad	db 44 24 28	 fild	 DWORD PTR tv1231[esp+32]
  000b1	d9 5c 24 18	 fstp	 DWORD PTR $T270221[esp+36]
  000b5	03 d7		 add	 edx, edi
  000b7	89 44 24 28	 mov	 DWORD PTR tv1227[esp+32], eax
  000bb	d9 04 93	 fld	 DWORD PTR [ebx+edx*4]
  000be	8b 5c 24 30	 mov	 ebx, DWORD PTR _pTri$[esp+32]
  000c2	8b 54 24 18	 mov	 edx, DWORD PTR $T270221[esp+36]
  000c6	d9 5c 24 1c	 fstp	 DWORD PTR $T270221[esp+40]
  000ca	db 44 24 28	 fild	 DWORD PTR tv1227[esp+32]
  000ce	8b c3		 mov	 eax, ebx
  000d0	89 10		 mov	 DWORD PTR [eax], edx
  000d2	8b 54 24 1c	 mov	 edx, DWORD PTR $T270221[esp+40]
  000d6	89 50 04	 mov	 DWORD PTR [eax+4], edx
  000d9	d9 5c 24 20	 fstp	 DWORD PTR $T270221[esp+44]
  000dd	8b 54 24 20	 mov	 edx, DWORD PTR $T270221[esp+44]
  000e1	89 50 08	 mov	 DWORD PTR [eax+8], edx

; 1140 : 			pTri[1] = D3DXVECTOR3( (float)( (gx+1) * m_iMPU ), (float)( m_apHeightMap[(gx+1)+(gz+1)*WORLD_WIDTH] ), (float)( (gz+1)*m_iMPU ) );

  000e4	8b 56 14	 mov	 edx, DWORD PTR [esi+20]
  000e7	8b 6e 1c	 mov	 ebp, DWORD PTR [esi+28]
  000ea	8d 47 01	 lea	 eax, DWORD PTR [edi+1]
  000ed	0f af d0	 imul	 edx, eax
  000f0	89 54 24 28	 mov	 DWORD PTR tv1215[esp+32], edx
  000f4	8b 56 0c	 mov	 edx, DWORD PTR [esi+12]
  000f7	8d 41 01	 lea	 eax, DWORD PTR [ecx+1]
  000fa	db 44 24 28	 fild	 DWORD PTR tv1215[esp+32]
  000fe	0f af d0	 imul	 edx, eax
  00101	d9 5c 24 18	 fstp	 DWORD PTR $T270222[esp+36]
  00105	03 d7		 add	 edx, edi
  00107	d9 44 95 04	 fld	 DWORD PTR [ebp+edx*4+4]
  0010b	8b 6c 24 18	 mov	 ebp, DWORD PTR $T270222[esp+36]
  0010f	8b d0		 mov	 edx, eax
  00111	d9 5c 24 1c	 fstp	 DWORD PTR $T270222[esp+40]
  00115	0f af 56 14	 imul	 edx, DWORD PTR [esi+20]
  00119	89 54 24 28	 mov	 DWORD PTR tv1210[esp+32], edx
  0011d	8d 53 0c	 lea	 edx, DWORD PTR [ebx+12]
  00120	89 2a		 mov	 DWORD PTR [edx], ebp
  00122	db 44 24 28	 fild	 DWORD PTR tv1210[esp+32]
  00126	8b 6c 24 1c	 mov	 ebp, DWORD PTR $T270222[esp+40]
  0012a	89 6a 04	 mov	 DWORD PTR [edx+4], ebp
  0012d	d9 5c 24 20	 fstp	 DWORD PTR $T270222[esp+44]
  00131	8b 6c 24 20	 mov	 ebp, DWORD PTR $T270222[esp+44]
  00135	89 6a 08	 mov	 DWORD PTR [edx+8], ebp

; 1141 : 			pTri[2] = D3DXVECTOR3( (float)( (gx+1) * m_iMPU ), (float)( m_apHeightMap[(gx+1)+(gz  )*WORLD_WIDTH] ), (float)( (gz  )*m_iMPU ) );

  00138	8b 56 14	 mov	 edx, DWORD PTR [esi+20]
  0013b	89 54 24 2c	 mov	 DWORD PTR tv1080[esp+32], edx
  0013f	8b ea		 mov	 ebp, edx
  00141	8d 57 01	 lea	 edx, DWORD PTR [edi+1]
  00144	0f af ea	 imul	 ebp, edx
  00147	8b 56 0c	 mov	 edx, DWORD PTR [esi+12]
  0014a	0f af d1	 imul	 edx, ecx
  0014d	89 6c 24 28	 mov	 DWORD PTR tv1199[esp+32], ebp
  00151	8b 6e 1c	 mov	 ebp, DWORD PTR [esi+28]
  00154	03 d7		 add	 edx, edi
  00156	db 44 24 28	 fild	 DWORD PTR tv1199[esp+32]
  0015a	d9 5c 24 18	 fstp	 DWORD PTR $T270223[esp+36]
  0015e	d9 44 95 04	 fld	 DWORD PTR [ebp+edx*4+4]
  00162	8b 54 24 2c	 mov	 edx, DWORD PTR tv1080[esp+32]
  00166	8b 6c 24 18	 mov	 ebp, DWORD PTR $T270223[esp+36]
  0016a	0f af d1	 imul	 edx, ecx
  0016d	d9 5c 24 1c	 fstp	 DWORD PTR $T270223[esp+40]
  00171	89 54 24 28	 mov	 DWORD PTR tv1194[esp+32], edx
  00175	8d 53 18	 lea	 edx, DWORD PTR [ebx+24]
  00178	89 2a		 mov	 DWORD PTR [edx], ebp
  0017a	db 44 24 28	 fild	 DWORD PTR tv1194[esp+32]
  0017e	8b 6c 24 1c	 mov	 ebp, DWORD PTR $T270223[esp+40]
  00182	89 6a 04	 mov	 DWORD PTR [edx+4], ebp
  00185	d9 5c 24 20	 fstp	 DWORD PTR $T270223[esp+44]
  00189	8b 6c 24 20	 mov	 ebp, DWORD PTR $T270223[esp+44]
  0018d	89 6a 08	 mov	 DWORD PTR [edx+8], ebp

; 1142 : 
; 1143 : 			pTri[3] = D3DXVECTOR3( (float)( (gx  ) * m_iMPU ), (float)( m_apHeightMap[(gx  )+(gz  )*WORLD_WIDTH] ), (float)( (gz  )*m_iMPU ) );

  00190	8b 56 14	 mov	 edx, DWORD PTR [esi+20]
  00193	89 54 24 2c	 mov	 DWORD PTR tv1092[esp+32], edx
  00197	0f af d7	 imul	 edx, edi
  0019a	89 54 24 28	 mov	 DWORD PTR tv1182[esp+32], edx
  0019e	8b 56 0c	 mov	 edx, DWORD PTR [esi+12]
  001a1	0f af d1	 imul	 edx, ecx
  001a4	db 44 24 28	 fild	 DWORD PTR tv1182[esp+32]
  001a8	d9 5c 24 18	 fstp	 DWORD PTR $T270224[esp+36]
  001ac	03 d7		 add	 edx, edi
  001ae	8b 6e 1c	 mov	 ebp, DWORD PTR [esi+28]
  001b1	d9 44 95 00	 fld	 DWORD PTR [ebp+edx*4]
  001b5	8b 54 24 2c	 mov	 edx, DWORD PTR tv1092[esp+32]
  001b9	0f af d1	 imul	 edx, ecx
  001bc	d9 5c 24 1c	 fstp	 DWORD PTR $T270224[esp+40]
  001c0	89 54 24 28	 mov	 DWORD PTR tv1178[esp+32], edx
  001c4	8b 54 24 18	 mov	 edx, DWORD PTR $T270224[esp+36]
  001c8	8d 4b 24	 lea	 ecx, DWORD PTR [ebx+36]
  001cb	db 44 24 28	 fild	 DWORD PTR tv1178[esp+32]
  001cf	89 11		 mov	 DWORD PTR [ecx], edx
  001d1	8b 54 24 1c	 mov	 edx, DWORD PTR $T270224[esp+40]
  001d5	89 51 04	 mov	 DWORD PTR [ecx+4], edx
  001d8	d9 5c 24 20	 fstp	 DWORD PTR $T270224[esp+44]
  001dc	8b 54 24 20	 mov	 edx, DWORD PTR $T270224[esp+44]
  001e0	89 51 08	 mov	 DWORD PTR [ecx+8], edx

; 1144 : 			pTri[4] = D3DXVECTOR3( (float)( (gx  ) * m_iMPU ), (float)( m_apHeightMap[(gx  )+(gz+1)*WORLD_WIDTH] ), (float)( (gz+1)*m_iMPU ) );

  001e3	8b 4e 14	 mov	 ecx, DWORD PTR [esi+20]
  001e6	8b 6e 1c	 mov	 ebp, DWORD PTR [esi+28]
  001e9	8b d1		 mov	 edx, ecx
  001eb	0f af c8	 imul	 ecx, eax
  001ee	0f af d7	 imul	 edx, edi
  001f1	89 54 24 28	 mov	 DWORD PTR tv1166[esp+32], edx
  001f5	8b 56 0c	 mov	 edx, DWORD PTR [esi+12]
  001f8	0f af d0	 imul	 edx, eax
  001fb	db 44 24 28	 fild	 DWORD PTR tv1166[esp+32]
  001ff	d9 5c 24 18	 fstp	 DWORD PTR $T270225[esp+36]
  00203	03 d7		 add	 edx, edi
  00205	89 4c 24 28	 mov	 DWORD PTR tv1161[esp+32], ecx
  00209	8d 4b 30	 lea	 ecx, DWORD PTR [ebx+48]
  0020c	d9 44 95 00	 fld	 DWORD PTR [ebp+edx*4]
  00210	8b 54 24 18	 mov	 edx, DWORD PTR $T270225[esp+36]
  00214	89 11		 mov	 DWORD PTR [ecx], edx
  00216	d9 5c 24 1c	 fstp	 DWORD PTR $T270225[esp+40]
  0021a	db 44 24 28	 fild	 DWORD PTR tv1161[esp+32]
  0021e	8b 54 24 1c	 mov	 edx, DWORD PTR $T270225[esp+40]
  00222	89 51 04	 mov	 DWORD PTR [ecx+4], edx
  00225	d9 5c 24 20	 fstp	 DWORD PTR $T270225[esp+44]
  00229	8b 54 24 20	 mov	 edx, DWORD PTR $T270225[esp+44]
  0022d	89 51 08	 mov	 DWORD PTR [ecx+8], edx

; 1145 : 			pTri[5] = D3DXVECTOR3( (float)( (gx+1) * m_iMPU ), (float)( m_apHeightMap[(gx+1)+(gz+1)*WORLD_WIDTH] ), (float)( (gz+1)*m_iMPU ) );

  00230	8b 4e 14	 mov	 ecx, DWORD PTR [esi+20]
  00233	8b e9		 mov	 ebp, ecx
  00235	8d 57 01	 lea	 edx, DWORD PTR [edi+1]
  00238	0f af ea	 imul	 ebp, edx
  0023b	8b 56 0c	 mov	 edx, DWORD PTR [esi+12]
  0023e	8b 76 1c	 mov	 esi, DWORD PTR [esi+28]
  00241	0f af d0	 imul	 edx, eax
  00244	03 d7		 add	 edx, edi
  00246	0f af c8	 imul	 ecx, eax
  00249	89 6c 24 28	 mov	 DWORD PTR tv1150[esp+32], ebp
  0024d	db 44 24 28	 fild	 DWORD PTR tv1150[esp+32]
  00251	89 4c 24 28	 mov	 DWORD PTR tv1145[esp+32], ecx
  00255	d9 5c 24 18	 fstp	 DWORD PTR $T270226[esp+36]
  00259	d9 44 96 04	 fld	 DWORD PTR [esi+edx*4+4]
  0025d	d9 5c 24 1c	 fstp	 DWORD PTR $T270226[esp+40]
  00261	db 44 24 28	 fild	 DWORD PTR tv1145[esp+32]

; 1146 : 		}
; 1147 : 		else {

  00265	e9 a0 05 00 00	 jmp	 $L270396
$L262665:

; 1148 : 			//0,2,3
; 1149 : 			pTri[0] = D3DXVECTOR3( (float)( (gx  )*m_iMPU ), (float)( m_apHeightMap[(gx  )+(gz  )*WORLD_WIDTH] ), (float)( (gz  )*m_iMPU ) );

  0026a	0f af d7	 imul	 edx, edi
  0026d	0f af c1	 imul	 eax, ecx
  00270	89 54 24 28	 mov	 DWORD PTR tv1133[esp+32], edx
  00274	8b 56 0c	 mov	 edx, DWORD PTR [esi+12]
  00277	0f af d1	 imul	 edx, ecx
  0027a	db 44 24 28	 fild	 DWORD PTR tv1133[esp+32]
  0027e	d9 5c 24 18	 fstp	 DWORD PTR $T270227[esp+36]
  00282	03 d7		 add	 edx, edi
  00284	89 44 24 28	 mov	 DWORD PTR tv1129[esp+32], eax
  00288	d9 04 93	 fld	 DWORD PTR [ebx+edx*4]
  0028b	8b 5c 24 30	 mov	 ebx, DWORD PTR _pTri$[esp+32]
  0028f	8b 54 24 18	 mov	 edx, DWORD PTR $T270227[esp+36]
  00293	d9 5c 24 1c	 fstp	 DWORD PTR $T270227[esp+40]
  00297	db 44 24 28	 fild	 DWORD PTR tv1129[esp+32]
  0029b	8b c3		 mov	 eax, ebx
  0029d	89 10		 mov	 DWORD PTR [eax], edx
  0029f	8b 54 24 1c	 mov	 edx, DWORD PTR $T270227[esp+40]
  002a3	89 50 04	 mov	 DWORD PTR [eax+4], edx
  002a6	d9 5c 24 20	 fstp	 DWORD PTR $T270227[esp+44]
  002aa	8b 54 24 20	 mov	 edx, DWORD PTR $T270227[esp+44]
  002ae	89 50 08	 mov	 DWORD PTR [eax+8], edx

; 1150 : 			pTri[1] = D3DXVECTOR3( (float)( (gx  )*m_iMPU ), (float)( m_apHeightMap[(gx  )+(gz+1)*WORLD_WIDTH] ), (float)( (gz+1)*m_iMPU ) );

  002b1	8b 46 14	 mov	 eax, DWORD PTR [esi+20]
  002b4	8b 56 0c	 mov	 edx, DWORD PTR [esi+12]
  002b7	8b 6e 1c	 mov	 ebp, DWORD PTR [esi+28]
  002ba	89 44 24 2c	 mov	 DWORD PTR tv1127[esp+32], eax
  002be	0f af c7	 imul	 eax, edi
  002c1	89 44 24 28	 mov	 DWORD PTR tv1117[esp+32], eax
  002c5	8d 41 01	 lea	 eax, DWORD PTR [ecx+1]
  002c8	0f af d0	 imul	 edx, eax
  002cb	db 44 24 28	 fild	 DWORD PTR tv1117[esp+32]
  002cf	d9 5c 24 18	 fstp	 DWORD PTR $T270228[esp+36]
  002d3	03 d7		 add	 edx, edi
  002d5	d9 44 95 00	 fld	 DWORD PTR [ebp+edx*4]
  002d9	8b 54 24 2c	 mov	 edx, DWORD PTR tv1127[esp+32]
  002dd	8b 6c 24 18	 mov	 ebp, DWORD PTR $T270228[esp+36]
  002e1	0f af d0	 imul	 edx, eax
  002e4	d9 5c 24 1c	 fstp	 DWORD PTR $T270228[esp+40]
  002e8	89 54 24 28	 mov	 DWORD PTR tv1113[esp+32], edx
  002ec	8d 53 0c	 lea	 edx, DWORD PTR [ebx+12]
  002ef	89 2a		 mov	 DWORD PTR [edx], ebp
  002f1	db 44 24 28	 fild	 DWORD PTR tv1113[esp+32]
  002f5	8b 6c 24 1c	 mov	 ebp, DWORD PTR $T270228[esp+40]
  002f9	89 6a 04	 mov	 DWORD PTR [edx+4], ebp
  002fc	d9 5c 24 20	 fstp	 DWORD PTR $T270228[esp+44]
  00300	8b 6c 24 20	 mov	 ebp, DWORD PTR $T270228[esp+44]
  00304	89 6a 08	 mov	 DWORD PTR [edx+8], ebp

; 1151 : 			pTri[2] = D3DXVECTOR3( (float)( (gx+1)*m_iMPU ), (float)( m_apHeightMap[(gx+1)+(gz+1)*WORLD_WIDTH] ), (float)( (gz+1)*m_iMPU ) );

  00307	8b 6e 14	 mov	 ebp, DWORD PTR [esi+20]
  0030a	89 6c 24 2c	 mov	 DWORD PTR tv1134[esp+32], ebp
  0030e	8d 57 01	 lea	 edx, DWORD PTR [edi+1]
  00311	0f af ea	 imul	 ebp, edx
  00314	8b 56 0c	 mov	 edx, DWORD PTR [esi+12]
  00317	0f af d0	 imul	 edx, eax
  0031a	89 6c 24 28	 mov	 DWORD PTR tv1102[esp+32], ebp
  0031e	8b 6e 1c	 mov	 ebp, DWORD PTR [esi+28]
  00321	03 d7		 add	 edx, edi
  00323	db 44 24 28	 fild	 DWORD PTR tv1102[esp+32]
  00327	d9 5c 24 18	 fstp	 DWORD PTR $T270229[esp+36]
  0032b	d9 44 95 04	 fld	 DWORD PTR [ebp+edx*4+4]
  0032f	8b 54 24 2c	 mov	 edx, DWORD PTR tv1134[esp+32]
  00333	8b 6c 24 18	 mov	 ebp, DWORD PTR $T270229[esp+36]
  00337	0f af d0	 imul	 edx, eax
  0033a	d9 5c 24 1c	 fstp	 DWORD PTR $T270229[esp+40]
  0033e	89 54 24 28	 mov	 DWORD PTR tv1097[esp+32], edx
  00342	8d 53 18	 lea	 edx, DWORD PTR [ebx+24]
  00345	89 2a		 mov	 DWORD PTR [edx], ebp
  00347	db 44 24 28	 fild	 DWORD PTR tv1097[esp+32]
  0034b	8b 6c 24 1c	 mov	 ebp, DWORD PTR $T270229[esp+40]
  0034f	89 6a 04	 mov	 DWORD PTR [edx+4], ebp
  00352	d9 5c 24 20	 fstp	 DWORD PTR $T270229[esp+44]
  00356	8b 6c 24 20	 mov	 ebp, DWORD PTR $T270229[esp+44]
  0035a	89 6a 08	 mov	 DWORD PTR [edx+8], ebp

; 1152 : 
; 1153 : 			pTri[3] = D3DXVECTOR3( (float)( (gx  )*m_iMPU ), (float)( m_apHeightMap[(gx  )+(gz  )*WORLD_WIDTH] ), (float)( (gz  )*m_iMPU ) );

  0035d	8b 56 14	 mov	 edx, DWORD PTR [esi+20]
  00360	8b 6e 1c	 mov	 ebp, DWORD PTR [esi+28]
  00363	89 54 24 2c	 mov	 DWORD PTR tv1141[esp+32], edx
  00367	0f af d7	 imul	 edx, edi
  0036a	89 54 24 28	 mov	 DWORD PTR tv1086[esp+32], edx
  0036e	8b 56 0c	 mov	 edx, DWORD PTR [esi+12]
  00371	0f af d1	 imul	 edx, ecx
  00374	db 44 24 28	 fild	 DWORD PTR tv1086[esp+32]
  00378	d9 5c 24 18	 fstp	 DWORD PTR $T270230[esp+36]
  0037c	03 d7		 add	 edx, edi
  0037e	d9 44 95 00	 fld	 DWORD PTR [ebp+edx*4]
  00382	8b 54 24 2c	 mov	 edx, DWORD PTR tv1141[esp+32]
  00386	8b 6c 24 18	 mov	 ebp, DWORD PTR $T270230[esp+36]
  0038a	0f af d1	 imul	 edx, ecx
  0038d	d9 5c 24 1c	 fstp	 DWORD PTR $T270230[esp+40]
  00391	89 54 24 28	 mov	 DWORD PTR tv1082[esp+32], edx
  00395	8d 53 24	 lea	 edx, DWORD PTR [ebx+36]
  00398	89 2a		 mov	 DWORD PTR [edx], ebp
  0039a	db 44 24 28	 fild	 DWORD PTR tv1082[esp+32]
  0039e	8b 6c 24 1c	 mov	 ebp, DWORD PTR $T270230[esp+40]
  003a2	89 6a 04	 mov	 DWORD PTR [edx+4], ebp
  003a5	d9 5c 24 20	 fstp	 DWORD PTR $T270230[esp+44]
  003a9	8b 6c 24 20	 mov	 ebp, DWORD PTR $T270230[esp+44]
  003ad	89 6a 08	 mov	 DWORD PTR [edx+8], ebp

; 1154 : 			pTri[4] = D3DXVECTOR3( (float)( (gx+1)*m_iMPU ), (float)( m_apHeightMap[(gx+1)+(gz+1)*WORLD_WIDTH] ), (float)( (gz+1)*m_iMPU ) );

  003b0	8b 56 14	 mov	 edx, DWORD PTR [esi+20]
  003b3	8b ea		 mov	 ebp, edx
  003b5	89 54 24 2c	 mov	 DWORD PTR tv1148[esp+32], edx
  003b9	8d 57 01	 lea	 edx, DWORD PTR [edi+1]
  003bc	0f af ea	 imul	 ebp, edx
  003bf	8b 56 0c	 mov	 edx, DWORD PTR [esi+12]
  003c2	0f af d0	 imul	 edx, eax
  003c5	03 d7		 add	 edx, edi
  003c7	89 6c 24 28	 mov	 DWORD PTR tv1071[esp+32], ebp
  003cb	8b 6e 1c	 mov	 ebp, DWORD PTR [esi+28]
  003ce	db 44 24 28	 fild	 DWORD PTR tv1071[esp+32]
  003d2	d9 5c 24 18	 fstp	 DWORD PTR $T270231[esp+36]
  003d6	d9 44 95 04	 fld	 DWORD PTR [ebp+edx*4+4]
  003da	8b 54 24 2c	 mov	 edx, DWORD PTR tv1148[esp+32]
  003de	0f af d0	 imul	 edx, eax
  003e1	d9 5c 24 1c	 fstp	 DWORD PTR $T270231[esp+40]
  003e5	89 54 24 28	 mov	 DWORD PTR tv1067[esp+32], edx
  003e9	8b 54 24 18	 mov	 edx, DWORD PTR $T270231[esp+36]
  003ed	8d 43 30	 lea	 eax, DWORD PTR [ebx+48]
  003f0	db 44 24 28	 fild	 DWORD PTR tv1067[esp+32]
  003f4	89 10		 mov	 DWORD PTR [eax], edx
  003f6	8b 54 24 1c	 mov	 edx, DWORD PTR $T270231[esp+40]
  003fa	89 50 04	 mov	 DWORD PTR [eax+4], edx
  003fd	d9 5c 24 20	 fstp	 DWORD PTR $T270231[esp+44]
  00401	8b 54 24 20	 mov	 edx, DWORD PTR $T270231[esp+44]
  00405	89 50 08	 mov	 DWORD PTR [eax+8], edx

; 1155 : 			pTri[5] = D3DXVECTOR3( (float)( (gx+1)*m_iMPU ), (float)( m_apHeightMap[(gx+1)+(gz  )*WORLD_WIDTH] ), (float)( (gz  )*m_iMPU ) );

  00408	8b 46 14	 mov	 eax, DWORD PTR [esi+20]
  0040b	8b e8		 mov	 ebp, eax
  0040d	8d 57 01	 lea	 edx, DWORD PTR [edi+1]
  00410	0f af ea	 imul	 ebp, edx
  00413	8b 56 0c	 mov	 edx, DWORD PTR [esi+12]
  00416	8b 76 1c	 mov	 esi, DWORD PTR [esi+28]
  00419	0f af d1	 imul	 edx, ecx
  0041c	03 d7		 add	 edx, edi
  0041e	0f af c1	 imul	 eax, ecx
  00421	89 6c 24 28	 mov	 DWORD PTR tv1054[esp+32], ebp
  00425	db 44 24 28	 fild	 DWORD PTR tv1054[esp+32]
  00429	89 44 24 28	 mov	 DWORD PTR tv1049[esp+32], eax
  0042d	d9 5c 24 18	 fstp	 DWORD PTR $T270232[esp+36]
  00431	d9 44 96 04	 fld	 DWORD PTR [esi+edx*4+4]
  00435	d9 5c 24 1c	 fstp	 DWORD PTR $T270232[esp+40]
  00439	db 44 24 28	 fild	 DWORD PTR tv1049[esp+32]

; 1156 : 		}
; 1157 : 	}
; 1158 : 	else 

  0043d	e9 c8 03 00 00	 jmp	 $L270396
$L262664:

; 1159 : 	{
; 1160 : 		if( glx + glz < 1.0f )

  00442	d8 c1		 fadd	 ST(0), ST(1)
  00444	d8 1d 00 00 00
	00		 fcomp	 DWORD PTR __real@3f800000
  0044a	df e0		 fnstsw	 ax
  0044c	dd d8		 fstp	 ST(0)
  0044e	f6 c4 05	 test	 ah, 5

; 1161 : 		{
; 1162 : 			//0,2,1
; 1163 : 			pTri[0] = D3DXVECTOR3( (float)( (gx  )*m_iMPU ), (float)( m_apHeightMap[(gx  )+(gz  )*WORLD_WIDTH] ), (float)( (gz  )*m_iMPU ) );

  00451	8b 46 14	 mov	 eax, DWORD PTR [esi+20]
  00454	0f 8a d7 01 00
	00		 jp	 $L262716
  0045a	8b 5e 1c	 mov	 ebx, DWORD PTR [esi+28]
  0045d	8b d0		 mov	 edx, eax
  0045f	0f af c1	 imul	 eax, ecx
  00462	0f af d7	 imul	 edx, edi
  00465	89 54 24 28	 mov	 DWORD PTR tv1033[esp+32], edx
  00469	8b 56 0c	 mov	 edx, DWORD PTR [esi+12]
  0046c	0f af d1	 imul	 edx, ecx
  0046f	db 44 24 28	 fild	 DWORD PTR tv1033[esp+32]
  00473	d9 5c 24 18	 fstp	 DWORD PTR $T270233[esp+36]
  00477	03 d7		 add	 edx, edi
  00479	89 44 24 28	 mov	 DWORD PTR tv1028[esp+32], eax
  0047d	d9 04 93	 fld	 DWORD PTR [ebx+edx*4]
  00480	8b 5c 24 30	 mov	 ebx, DWORD PTR _pTri$[esp+32]
  00484	8b 54 24 18	 mov	 edx, DWORD PTR $T270233[esp+36]
  00488	d9 5c 24 1c	 fstp	 DWORD PTR $T270233[esp+40]
  0048c	db 44 24 28	 fild	 DWORD PTR tv1028[esp+32]
  00490	8b c3		 mov	 eax, ebx
  00492	89 10		 mov	 DWORD PTR [eax], edx
  00494	8b 54 24 1c	 mov	 edx, DWORD PTR $T270233[esp+40]
  00498	89 50 04	 mov	 DWORD PTR [eax+4], edx
  0049b	d9 5c 24 20	 fstp	 DWORD PTR $T270233[esp+44]
  0049f	8b 54 24 20	 mov	 edx, DWORD PTR $T270233[esp+44]
  004a3	89 50 08	 mov	 DWORD PTR [eax+8], edx

; 1164 : 			pTri[1] = D3DXVECTOR3( (float)( (gx  )*m_iMPU ), (float)( m_apHeightMap[(gx  )+(gz+1)*WORLD_WIDTH] ), (float)( (gz+1)*m_iMPU ) );

  004a6	8b 46 14	 mov	 eax, DWORD PTR [esi+20]
  004a9	8b 56 0c	 mov	 edx, DWORD PTR [esi+12]
  004ac	8b 6e 1c	 mov	 ebp, DWORD PTR [esi+28]
  004af	89 44 24 2c	 mov	 DWORD PTR tv1170[esp+32], eax
  004b3	0f af c7	 imul	 eax, edi
  004b6	89 44 24 28	 mov	 DWORD PTR tv1012[esp+32], eax
  004ba	8d 41 01	 lea	 eax, DWORD PTR [ecx+1]
  004bd	0f af d0	 imul	 edx, eax
  004c0	db 44 24 28	 fild	 DWORD PTR tv1012[esp+32]
  004c4	d9 5c 24 18	 fstp	 DWORD PTR $T270234[esp+36]
  004c8	03 d7		 add	 edx, edi
  004ca	d9 44 95 00	 fld	 DWORD PTR [ebp+edx*4]
  004ce	8b 54 24 2c	 mov	 edx, DWORD PTR tv1170[esp+32]
  004d2	8b 6c 24 18	 mov	 ebp, DWORD PTR $T270234[esp+36]
  004d6	0f af d0	 imul	 edx, eax
  004d9	d9 5c 24 1c	 fstp	 DWORD PTR $T270234[esp+40]
  004dd	89 54 24 28	 mov	 DWORD PTR tv1008[esp+32], edx
  004e1	8d 53 0c	 lea	 edx, DWORD PTR [ebx+12]
  004e4	89 2a		 mov	 DWORD PTR [edx], ebp
  004e6	db 44 24 28	 fild	 DWORD PTR tv1008[esp+32]
  004ea	8b 6c 24 1c	 mov	 ebp, DWORD PTR $T270234[esp+40]
  004ee	89 6a 04	 mov	 DWORD PTR [edx+4], ebp
  004f1	d9 5c 24 20	 fstp	 DWORD PTR $T270234[esp+44]
  004f5	8b 6c 24 20	 mov	 ebp, DWORD PTR $T270234[esp+44]
  004f9	89 6a 08	 mov	 DWORD PTR [edx+8], ebp

; 1165 : 			pTri[2] = D3DXVECTOR3( (float)( (gx+1)*m_iMPU ), (float)( m_apHeightMap[(gx+1)+(gz  )*WORLD_WIDTH] ), (float)( (gz  )*m_iMPU ) );

  004fc	8b 6e 14	 mov	 ebp, DWORD PTR [esi+20]
  004ff	89 6c 24 2c	 mov	 DWORD PTR tv1177[esp+32], ebp
  00503	8d 57 01	 lea	 edx, DWORD PTR [edi+1]
  00506	0f af ea	 imul	 ebp, edx
  00509	8b 56 0c	 mov	 edx, DWORD PTR [esi+12]
  0050c	0f af d1	 imul	 edx, ecx
  0050f	89 6c 24 28	 mov	 DWORD PTR tv941[esp+32], ebp
  00513	8b 6e 1c	 mov	 ebp, DWORD PTR [esi+28]
  00516	03 d7		 add	 edx, edi
  00518	db 44 24 28	 fild	 DWORD PTR tv941[esp+32]
  0051c	d9 5c 24 18	 fstp	 DWORD PTR $T270235[esp+36]
  00520	d9 44 95 04	 fld	 DWORD PTR [ebp+edx*4+4]
  00524	8b 54 24 2c	 mov	 edx, DWORD PTR tv1177[esp+32]
  00528	8b 6c 24 18	 mov	 ebp, DWORD PTR $T270235[esp+36]
  0052c	0f af d1	 imul	 edx, ecx
  0052f	d9 5c 24 1c	 fstp	 DWORD PTR $T270235[esp+40]
  00533	89 54 24 28	 mov	 DWORD PTR tv765[esp+32], edx
  00537	8d 53 18	 lea	 edx, DWORD PTR [ebx+24]
  0053a	89 2a		 mov	 DWORD PTR [edx], ebp
  0053c	db 44 24 28	 fild	 DWORD PTR tv765[esp+32]
  00540	8b 6c 24 1c	 mov	 ebp, DWORD PTR $T270235[esp+40]
  00544	89 6a 04	 mov	 DWORD PTR [edx+4], ebp
  00547	d9 5c 24 20	 fstp	 DWORD PTR $T270235[esp+44]
  0054b	8b 6c 24 20	 mov	 ebp, DWORD PTR $T270235[esp+44]
  0054f	89 6a 08	 mov	 DWORD PTR [edx+8], ebp

; 1166 : 
; 1167 : 			pTri[3] = D3DXVECTOR3( (float)( (gx+1)*m_iMPU ), (float)( m_apHeightMap[(gx+1)+(gz  )*WORLD_WIDTH] ), (float)( (gz  )*m_iMPU ) );

  00552	8b 56 14	 mov	 edx, DWORD PTR [esi+20]
  00555	8b ea		 mov	 ebp, edx
  00557	89 54 24 2c	 mov	 DWORD PTR tv1184[esp+32], edx
  0055b	8d 57 01	 lea	 edx, DWORD PTR [edi+1]
  0055e	0f af ea	 imul	 ebp, edx
  00561	89 6c 24 28	 mov	 DWORD PTR tv749[esp+32], ebp
  00565	db 44 24 28	 fild	 DWORD PTR tv749[esp+32]
  00569	d9 5c 24 18	 fstp	 DWORD PTR $T270236[esp+36]
  0056d	8b 56 0c	 mov	 edx, DWORD PTR [esi+12]
  00570	8b 6e 1c	 mov	 ebp, DWORD PTR [esi+28]
  00573	0f af d1	 imul	 edx, ecx
  00576	03 d7		 add	 edx, edi
  00578	d9 44 95 04	 fld	 DWORD PTR [ebp+edx*4+4]
  0057c	8b 54 24 2c	 mov	 edx, DWORD PTR tv1184[esp+32]
  00580	0f af d1	 imul	 edx, ecx
  00583	d9 5c 24 1c	 fstp	 DWORD PTR $T270236[esp+40]
  00587	89 54 24 28	 mov	 DWORD PTR tv562[esp+32], edx
  0058b	8b 54 24 18	 mov	 edx, DWORD PTR $T270236[esp+36]
  0058f	8d 4b 24	 lea	 ecx, DWORD PTR [ebx+36]
  00592	db 44 24 28	 fild	 DWORD PTR tv562[esp+32]
  00596	89 11		 mov	 DWORD PTR [ecx], edx
  00598	8b 54 24 1c	 mov	 edx, DWORD PTR $T270236[esp+40]
  0059c	89 51 04	 mov	 DWORD PTR [ecx+4], edx
  0059f	d9 5c 24 20	 fstp	 DWORD PTR $T270236[esp+44]
  005a3	8b 54 24 20	 mov	 edx, DWORD PTR $T270236[esp+44]
  005a7	89 51 08	 mov	 DWORD PTR [ecx+8], edx

; 1168 : 			pTri[4] = D3DXVECTOR3( (float)( (gx  )*m_iMPU ), (float)( m_apHeightMap[(gx  )+(gz+1)*WORLD_WIDTH] ), (float)( (gz+1)*m_iMPU ) );

  005aa	8b 4e 14	 mov	 ecx, DWORD PTR [esi+20]
  005ad	8b 6e 1c	 mov	 ebp, DWORD PTR [esi+28]
  005b0	8b d1		 mov	 edx, ecx
  005b2	0f af c8	 imul	 ecx, eax
  005b5	0f af d7	 imul	 edx, edi
  005b8	89 54 24 28	 mov	 DWORD PTR tv473[esp+32], edx
  005bc	8b 56 0c	 mov	 edx, DWORD PTR [esi+12]
  005bf	0f af d0	 imul	 edx, eax
  005c2	db 44 24 28	 fild	 DWORD PTR tv473[esp+32]
  005c6	d9 5c 24 18	 fstp	 DWORD PTR $T270237[esp+36]
  005ca	03 d7		 add	 edx, edi
  005cc	89 4c 24 28	 mov	 DWORD PTR tv428[esp+32], ecx
  005d0	8d 4b 30	 lea	 ecx, DWORD PTR [ebx+48]
  005d3	d9 44 95 00	 fld	 DWORD PTR [ebp+edx*4]
  005d7	8b 54 24 18	 mov	 edx, DWORD PTR $T270237[esp+36]
  005db	89 11		 mov	 DWORD PTR [ecx], edx
  005dd	d9 5c 24 1c	 fstp	 DWORD PTR $T270237[esp+40]
  005e1	db 44 24 28	 fild	 DWORD PTR tv428[esp+32]
  005e5	8b 54 24 1c	 mov	 edx, DWORD PTR $T270237[esp+40]
  005e9	89 51 04	 mov	 DWORD PTR [ecx+4], edx
  005ec	d9 5c 24 20	 fstp	 DWORD PTR $T270237[esp+44]
  005f0	8b 54 24 20	 mov	 edx, DWORD PTR $T270237[esp+44]
  005f4	89 51 08	 mov	 DWORD PTR [ecx+8], edx

; 1169 : 			pTri[5] = D3DXVECTOR3( (float)( (gx+1)*m_iMPU ), (float)( m_apHeightMap[(gx+1)+(gz+1)*WORLD_WIDTH] ), (float)( (gz+1)*m_iMPU ) );

  005f7	8b 4e 14	 mov	 ecx, DWORD PTR [esi+20]
  005fa	8b e9		 mov	 ebp, ecx
  005fc	8d 57 01	 lea	 edx, DWORD PTR [edi+1]
  005ff	0f af ea	 imul	 ebp, edx
  00602	8b 56 0c	 mov	 edx, DWORD PTR [esi+12]
  00605	8b 76 1c	 mov	 esi, DWORD PTR [esi+28]
  00608	0f af d0	 imul	 edx, eax
  0060b	03 d7		 add	 edx, edi
  0060d	0f af c8	 imul	 ecx, eax
  00610	89 6c 24 28	 mov	 DWORD PTR tv340[esp+32], ebp
  00614	db 44 24 28	 fild	 DWORD PTR tv340[esp+32]
  00618	89 4c 24 28	 mov	 DWORD PTR tv302[esp+32], ecx
  0061c	d9 5c 24 18	 fstp	 DWORD PTR $T270238[esp+36]
  00620	d9 44 96 04	 fld	 DWORD PTR [esi+edx*4+4]
  00624	d9 5c 24 1c	 fstp	 DWORD PTR $T270238[esp+40]
  00628	db 44 24 28	 fild	 DWORD PTR tv302[esp+32]

; 1170 : 		}
; 1171 : 		else 

  0062c	e9 d9 01 00 00	 jmp	 $L270396
$L262716:

; 1172 : 		{
; 1173 : 			//1,2,3
; 1174 : 			pTri[0] = D3DXVECTOR3( (float)( (gx+1)*m_iMPU ), (float)( m_apHeightMap[(gx+1)+(gz  )*WORLD_WIDTH] ), (float)( (gz  )*m_iMPU ) );

  00631	8b d8		 mov	 ebx, eax
  00633	0f af c1	 imul	 eax, ecx
  00636	8d 57 01	 lea	 edx, DWORD PTR [edi+1]
  00639	0f af da	 imul	 ebx, edx
  0063c	8b 56 0c	 mov	 edx, DWORD PTR [esi+12]
  0063f	0f af d1	 imul	 edx, ecx
  00642	03 d7		 add	 edx, edi
  00644	89 5c 24 28	 mov	 DWORD PTR tv256[esp+32], ebx
  00648	8b 5e 1c	 mov	 ebx, DWORD PTR [esi+28]
  0064b	db 44 24 28	 fild	 DWORD PTR tv256[esp+32]
  0064f	89 44 24 28	 mov	 DWORD PTR tv233[esp+32], eax
  00653	d9 5c 24 18	 fstp	 DWORD PTR $T270239[esp+36]
  00657	d9 44 93 04	 fld	 DWORD PTR [ebx+edx*4+4]
  0065b	8b 5c 24 30	 mov	 ebx, DWORD PTR _pTri$[esp+32]
  0065f	8b 54 24 18	 mov	 edx, DWORD PTR $T270239[esp+36]
  00663	d9 5c 24 1c	 fstp	 DWORD PTR $T270239[esp+40]
  00667	db 44 24 28	 fild	 DWORD PTR tv233[esp+32]
  0066b	8b c3		 mov	 eax, ebx
  0066d	89 10		 mov	 DWORD PTR [eax], edx
  0066f	8b 54 24 1c	 mov	 edx, DWORD PTR $T270239[esp+40]
  00673	89 50 04	 mov	 DWORD PTR [eax+4], edx
  00676	d9 5c 24 20	 fstp	 DWORD PTR $T270239[esp+44]
  0067a	8b 54 24 20	 mov	 edx, DWORD PTR $T270239[esp+44]
  0067e	89 50 08	 mov	 DWORD PTR [eax+8], edx

; 1175 : 			pTri[1] = D3DXVECTOR3( (float)( (gx  )*m_iMPU ), (float)( m_apHeightMap[(gx  )+(gz+1)*WORLD_WIDTH] ), (float)( (gz+1)*m_iMPU ) );

  00681	8b 46 14	 mov	 eax, DWORD PTR [esi+20]
  00684	8b 56 0c	 mov	 edx, DWORD PTR [esi+12]
  00687	8b 6e 1c	 mov	 ebp, DWORD PTR [esi+28]
  0068a	89 44 24 2c	 mov	 DWORD PTR tv1211[esp+32], eax
  0068e	0f af c7	 imul	 eax, edi
  00691	89 44 24 28	 mov	 DWORD PTR tv175[esp+32], eax
  00695	8d 41 01	 lea	 eax, DWORD PTR [ecx+1]
  00698	0f af d0	 imul	 edx, eax
  0069b	db 44 24 28	 fild	 DWORD PTR tv175[esp+32]
  0069f	d9 5c 24 18	 fstp	 DWORD PTR $T270240[esp+36]
  006a3	03 d7		 add	 edx, edi
  006a5	d9 44 95 00	 fld	 DWORD PTR [ebp+edx*4]
  006a9	8b 54 24 2c	 mov	 edx, DWORD PTR tv1211[esp+32]
  006ad	8b 6c 24 18	 mov	 ebp, DWORD PTR $T270240[esp+36]
  006b1	0f af d0	 imul	 edx, eax
  006b4	d9 5c 24 1c	 fstp	 DWORD PTR $T270240[esp+40]
  006b8	89 54 24 28	 mov	 DWORD PTR tv153[esp+32], edx
  006bc	8d 53 0c	 lea	 edx, DWORD PTR [ebx+12]
  006bf	89 2a		 mov	 DWORD PTR [edx], ebp
  006c1	db 44 24 28	 fild	 DWORD PTR tv153[esp+32]
  006c5	8b 6c 24 1c	 mov	 ebp, DWORD PTR $T270240[esp+40]
  006c9	89 6a 04	 mov	 DWORD PTR [edx+4], ebp
  006cc	d9 5c 24 20	 fstp	 DWORD PTR $T270240[esp+44]
  006d0	8b 6c 24 20	 mov	 ebp, DWORD PTR $T270240[esp+44]
  006d4	89 6a 08	 mov	 DWORD PTR [edx+8], ebp

; 1176 : 			pTri[2] = D3DXVECTOR3( (float)( (gx+1)*m_iMPU ), (float)( m_apHeightMap[(gx+1)+(gz+1)*WORLD_WIDTH] ), (float)( (gz+1)*m_iMPU ) );

  006d7	8b 56 14	 mov	 edx, DWORD PTR [esi+20]
  006da	89 54 24 2c	 mov	 DWORD PTR tv1218[esp+32], edx
  006de	8b ea		 mov	 ebp, edx
  006e0	8d 57 01	 lea	 edx, DWORD PTR [edi+1]
  006e3	0f af ea	 imul	 ebp, edx
  006e6	8b 56 0c	 mov	 edx, DWORD PTR [esi+12]
  006e9	0f af d0	 imul	 edx, eax
  006ec	89 6c 24 28	 mov	 DWORD PTR tv728[esp+32], ebp
  006f0	8b 6e 1c	 mov	 ebp, DWORD PTR [esi+28]
  006f3	03 d7		 add	 edx, edi
  006f5	db 44 24 28	 fild	 DWORD PTR tv728[esp+32]
  006f9	d9 5c 24 18	 fstp	 DWORD PTR $T270241[esp+36]
  006fd	d9 44 95 04	 fld	 DWORD PTR [ebp+edx*4+4]
  00701	8b 54 24 2c	 mov	 edx, DWORD PTR tv1218[esp+32]
  00705	8b 6c 24 18	 mov	 ebp, DWORD PTR $T270241[esp+36]
  00709	0f af d0	 imul	 edx, eax
  0070c	d9 5c 24 1c	 fstp	 DWORD PTR $T270241[esp+40]
  00710	89 54 24 28	 mov	 DWORD PTR tv691[esp+32], edx
  00714	8d 53 18	 lea	 edx, DWORD PTR [ebx+24]
  00717	89 2a		 mov	 DWORD PTR [edx], ebp
  00719	db 44 24 28	 fild	 DWORD PTR tv691[esp+32]
  0071d	8b 6c 24 1c	 mov	 ebp, DWORD PTR $T270241[esp+40]
  00721	89 6a 04	 mov	 DWORD PTR [edx+4], ebp
  00724	d9 5c 24 20	 fstp	 DWORD PTR $T270241[esp+44]
  00728	8b 6c 24 20	 mov	 ebp, DWORD PTR $T270241[esp+44]
  0072c	89 6a 08	 mov	 DWORD PTR [edx+8], ebp

; 1177 : 
; 1178 : 			pTri[3] = D3DXVECTOR3( (float)( (gx  )*m_iMPU ), (float)( m_apHeightMap[(gx  )+(gz  )*WORLD_WIDTH] ), (float)( (gz  )*m_iMPU ) );

  0072f	8b 56 14	 mov	 edx, DWORD PTR [esi+20]
  00732	89 54 24 2c	 mov	 DWORD PTR tv1225[esp+32], edx
  00736	0f af d7	 imul	 edx, edi
  00739	89 54 24 28	 mov	 DWORD PTR tv604[esp+32], edx
  0073d	db 44 24 28	 fild	 DWORD PTR tv604[esp+32]
  00741	d9 5c 24 18	 fstp	 DWORD PTR $T270242[esp+36]
  00745	8b 56 0c	 mov	 edx, DWORD PTR [esi+12]
  00748	8b 6e 1c	 mov	 ebp, DWORD PTR [esi+28]
  0074b	0f af d1	 imul	 edx, ecx
  0074e	03 d7		 add	 edx, edi
  00750	d9 44 95 00	 fld	 DWORD PTR [ebp+edx*4]
  00754	8b 54 24 2c	 mov	 edx, DWORD PTR tv1225[esp+32]
  00758	8b 6c 24 18	 mov	 ebp, DWORD PTR $T270242[esp+36]
  0075c	0f af d1	 imul	 edx, ecx
  0075f	d9 5c 24 1c	 fstp	 DWORD PTR $T270242[esp+40]
  00763	89 54 24 28	 mov	 DWORD PTR tv617[esp+32], edx
  00767	8d 53 24	 lea	 edx, DWORD PTR [ebx+36]
  0076a	89 2a		 mov	 DWORD PTR [edx], ebp
  0076c	db 44 24 28	 fild	 DWORD PTR tv617[esp+32]
  00770	8b 6c 24 1c	 mov	 ebp, DWORD PTR $T270242[esp+40]
  00774	89 6a 04	 mov	 DWORD PTR [edx+4], ebp
  00777	d9 5c 24 20	 fstp	 DWORD PTR $T270242[esp+44]
  0077b	8b 6c 24 20	 mov	 ebp, DWORD PTR $T270242[esp+44]
  0077f	89 6a 08	 mov	 DWORD PTR [edx+8], ebp

; 1179 : 			pTri[4] = D3DXVECTOR3( (float)( (gx  )*m_iMPU ), (float)( m_apHeightMap[(gx  )+(gz+1)*WORLD_WIDTH] ), (float)( (gz+1)*m_iMPU ) );

  00782	8b 56 14	 mov	 edx, DWORD PTR [esi+20]
  00785	89 54 24 2c	 mov	 DWORD PTR tv1232[esp+32], edx
  00789	0f af d7	 imul	 edx, edi
  0078c	8b 6e 1c	 mov	 ebp, DWORD PTR [esi+28]
  0078f	89 54 24 28	 mov	 DWORD PTR tv539[esp+32], edx
  00793	8b 56 0c	 mov	 edx, DWORD PTR [esi+12]
  00796	0f af d0	 imul	 edx, eax
  00799	db 44 24 28	 fild	 DWORD PTR tv539[esp+32]
  0079d	d9 5c 24 18	 fstp	 DWORD PTR $T270243[esp+36]
  007a1	03 d7		 add	 edx, edi
  007a3	d9 44 95 00	 fld	 DWORD PTR [ebp+edx*4]
  007a7	8b 54 24 2c	 mov	 edx, DWORD PTR tv1232[esp+32]
  007ab	0f af d0	 imul	 edx, eax
  007ae	d9 5c 24 1c	 fstp	 DWORD PTR $T270243[esp+40]
  007b2	89 54 24 28	 mov	 DWORD PTR tv551[esp+32], edx
  007b6	8b 54 24 18	 mov	 edx, DWORD PTR $T270243[esp+36]
  007ba	8d 43 30	 lea	 eax, DWORD PTR [ebx+48]
  007bd	db 44 24 28	 fild	 DWORD PTR tv551[esp+32]
  007c1	89 10		 mov	 DWORD PTR [eax], edx
  007c3	8b 54 24 1c	 mov	 edx, DWORD PTR $T270243[esp+40]
  007c7	89 50 04	 mov	 DWORD PTR [eax+4], edx
  007ca	d9 5c 24 20	 fstp	 DWORD PTR $T270243[esp+44]
  007ce	8b 54 24 20	 mov	 edx, DWORD PTR $T270243[esp+44]
  007d2	89 50 08	 mov	 DWORD PTR [eax+8], edx

; 1180 : 			pTri[5] = D3DXVECTOR3( (float)( (gx+1)*m_iMPU ), (float)( m_apHeightMap[(gx+1)+(gz  )*WORLD_WIDTH] ), (float)( (gz  )*m_iMPU ) );

  007d5	8b 46 14	 mov	 eax, DWORD PTR [esi+20]
  007d8	8b e8		 mov	 ebp, eax
  007da	8d 57 01	 lea	 edx, DWORD PTR [edi+1]
  007dd	0f af ea	 imul	 ebp, edx
  007e0	8b 56 0c	 mov	 edx, DWORD PTR [esi+12]
  007e3	8b 76 1c	 mov	 esi, DWORD PTR [esi+28]
  007e6	0f af d1	 imul	 edx, ecx
  007e9	03 d7		 add	 edx, edi
  007eb	0f af c1	 imul	 eax, ecx
  007ee	89 6c 24 28	 mov	 DWORD PTR tv472[esp+32], ebp
  007f2	db 44 24 28	 fild	 DWORD PTR tv472[esp+32]
  007f6	89 44 24 28	 mov	 DWORD PTR tv485[esp+32], eax
  007fa	d9 5c 24 18	 fstp	 DWORD PTR $T270244[esp+36]
  007fe	d9 44 96 04	 fld	 DWORD PTR [esi+edx*4+4]
  00802	d9 5c 24 1c	 fstp	 DWORD PTR $T270244[esp+40]
  00806	db 44 24 28	 fild	 DWORD PTR tv485[esp+32]
$L270396:
  0080a	8b 4c 24 18	 mov	 ecx, DWORD PTR $T270244[esp+36]
  0080e	d9 5c 24 20	 fstp	 DWORD PTR $T270244[esp+44]

; 1181 : 		}
; 1182 : 	}
; 1183 : 	float y = pTri[0].y;

  00812	d9 43 04	 fld	 DWORD PTR [ebx+4]
  00815	8b 54 24 1c	 mov	 edx, DWORD PTR $T270244[esp+40]

; 1184 : 	if( y >= HGT_NOWALK )		// 1000   .

  00819	d8 15 00 00 00
	00		 fcom	 DWORD PTR __real@447a0000
  0081f	8d 43 3c	 lea	 eax, DWORD PTR [ebx+60]
  00822	89 08		 mov	 DWORD PTR [eax], ecx
  00824	8b 4c 24 20	 mov	 ecx, DWORD PTR $T270244[esp+44]
  00828	89 50 04	 mov	 DWORD PTR [eax+4], edx
  0082b	89 48 08	 mov	 DWORD PTR [eax+8], ecx
  0082e	df e0		 fnstsw	 ax
  00830	f6 c4 01	 test	 ah, 1
  00833	75 21		 jne	 SHORT $L270394

; 1185 : 	{
; 1186 : 		int n = (int)(y / HGT_NOWALK);

  00835	d8 0d 00 00 00
	00		 fmul	 DWORD PTR __real@3a83126f

; 1187 : 		pTri[0].y -= (float)(HGT_NOWALK * n);

  0083b	e8 00 00 00 00	 call	 __ftol2
  00840	89 44 24 28	 mov	 DWORD PTR tv545[esp+32], eax
  00844	db 44 24 28	 fild	 DWORD PTR tv545[esp+32]
  00848	d8 0d 00 00 00
	00		 fmul	 DWORD PTR __real@447a0000
  0084e	d8 6b 04	 fsubr	 DWORD PTR [ebx+4]
  00851	d9 5b 04	 fstp	 DWORD PTR [ebx+4]
  00854	eb 02		 jmp	 SHORT $L262767
$L270394:
  00856	dd d8		 fstp	 ST(0)
$L262767:

; 1188 : 	}
; 1189 : 	y = pTri[1].y;

  00858	d9 43 10	 fld	 DWORD PTR [ebx+16]

; 1190 : 	if( y >= HGT_NOWALK )		// 1000   .

  0085b	d8 15 00 00 00
	00		 fcom	 DWORD PTR __real@447a0000
  00861	df e0		 fnstsw	 ax
  00863	f6 c4 01	 test	 ah, 1
  00866	75 21		 jne	 SHORT $L270393

; 1191 : 	{
; 1192 : 		int n = (int)(y / HGT_NOWALK);

  00868	d8 0d 00 00 00
	00		 fmul	 DWORD PTR __real@3a83126f

; 1193 : 		pTri[1].y -= (float)(HGT_NOWALK * n);

  0086e	e8 00 00 00 00	 call	 __ftol2
  00873	89 44 24 28	 mov	 DWORD PTR tv348[esp+32], eax
  00877	db 44 24 28	 fild	 DWORD PTR tv348[esp+32]
  0087b	d8 0d 00 00 00
	00		 fmul	 DWORD PTR __real@447a0000
  00881	d8 6b 10	 fsubr	 DWORD PTR [ebx+16]
  00884	d9 5b 10	 fstp	 DWORD PTR [ebx+16]
  00887	eb 02		 jmp	 SHORT $L262771
$L270393:
  00889	dd d8		 fstp	 ST(0)
$L262771:

; 1194 : 	}
; 1195 : 	y = pTri[2].y;

  0088b	d9 43 1c	 fld	 DWORD PTR [ebx+28]

; 1196 : 	if( y >= HGT_NOWALK )		// 1000   .

  0088e	d8 15 00 00 00
	00		 fcom	 DWORD PTR __real@447a0000
  00894	df e0		 fnstsw	 ax
  00896	f6 c4 01	 test	 ah, 1
  00899	75 21		 jne	 SHORT $L270392

; 1197 : 	{
; 1198 : 		int n = (int)(y / HGT_NOWALK);

  0089b	d8 0d 00 00 00
	00		 fmul	 DWORD PTR __real@3a83126f

; 1199 : 		pTri[2].y -= (float)(HGT_NOWALK * n);

  008a1	e8 00 00 00 00	 call	 __ftol2
  008a6	89 44 24 28	 mov	 DWORD PTR tv325[esp+32], eax
  008aa	db 44 24 28	 fild	 DWORD PTR tv325[esp+32]
  008ae	d8 0d 00 00 00
	00		 fmul	 DWORD PTR __real@447a0000
  008b4	d8 6b 1c	 fsubr	 DWORD PTR [ebx+28]
  008b7	d9 5b 1c	 fstp	 DWORD PTR [ebx+28]
  008ba	eb 02		 jmp	 SHORT $L262775
$L270392:
  008bc	dd d8		 fstp	 ST(0)
$L262775:

; 1200 : 	}
; 1201 : 	y = pTri[3].y;

  008be	d9 43 28	 fld	 DWORD PTR [ebx+40]

; 1202 : 	if( y >= HGT_NOWALK )		// 1000   .

  008c1	d8 15 00 00 00
	00		 fcom	 DWORD PTR __real@447a0000
  008c7	df e0		 fnstsw	 ax
  008c9	f6 c4 01	 test	 ah, 1
  008cc	75 21		 jne	 SHORT $L270391

; 1203 : 	{
; 1204 : 		int n = (int)(y / HGT_NOWALK);

  008ce	d8 0d 00 00 00
	00		 fmul	 DWORD PTR __real@3a83126f

; 1205 : 		pTri[3].y -= (float)(HGT_NOWALK * n);

  008d4	e8 00 00 00 00	 call	 __ftol2
  008d9	89 44 24 28	 mov	 DWORD PTR tv329[esp+32], eax
  008dd	db 44 24 28	 fild	 DWORD PTR tv329[esp+32]
  008e1	d8 0d 00 00 00
	00		 fmul	 DWORD PTR __real@447a0000
  008e7	d8 6b 28	 fsubr	 DWORD PTR [ebx+40]
  008ea	d9 5b 28	 fstp	 DWORD PTR [ebx+40]
  008ed	eb 02		 jmp	 SHORT $L262779
$L270391:
  008ef	dd d8		 fstp	 ST(0)
$L262779:

; 1206 : 	}
; 1207 : 	y = pTri[4].y;

  008f1	d9 43 34	 fld	 DWORD PTR [ebx+52]

; 1208 : 	if( y >= HGT_NOWALK )		// 1000   .

  008f4	d8 15 00 00 00
	00		 fcom	 DWORD PTR __real@447a0000
  008fa	df e0		 fnstsw	 ax
  008fc	f6 c4 01	 test	 ah, 1
  008ff	75 21		 jne	 SHORT $L270390

; 1209 : 	{
; 1210 : 		int n = (int)(y / HGT_NOWALK);

  00901	d8 0d 00 00 00
	00		 fmul	 DWORD PTR __real@3a83126f

; 1211 : 		pTri[4].y -= (float)(HGT_NOWALK * n);

  00907	e8 00 00 00 00	 call	 __ftol2
  0090c	89 44 24 28	 mov	 DWORD PTR tv293[esp+32], eax
  00910	db 44 24 28	 fild	 DWORD PTR tv293[esp+32]
  00914	d8 0d 00 00 00
	00		 fmul	 DWORD PTR __real@447a0000
  0091a	d8 6b 34	 fsubr	 DWORD PTR [ebx+52]
  0091d	d9 5b 34	 fstp	 DWORD PTR [ebx+52]
  00920	eb 02		 jmp	 SHORT $L262783
$L270390:
  00922	dd d8		 fstp	 ST(0)
$L262783:

; 1212 : 	}
; 1213 : 	y = pTri[5].y;

  00924	d9 43 40	 fld	 DWORD PTR [ebx+64]

; 1214 : 	if( y >= HGT_NOWALK )		// 1000   .

  00927	d8 15 00 00 00
	00		 fcom	 DWORD PTR __real@447a0000
  0092d	df e0		 fnstsw	 ax
  0092f	f6 c4 01	 test	 ah, 1
  00932	75 2e		 jne	 SHORT $L270389

; 1215 : 	{
; 1216 : 		int n = (int)(y / HGT_NOWALK);

  00934	d8 0d 00 00 00
	00		 fmul	 DWORD PTR __real@3a83126f

; 1217 : 		pTri[5].y -= (float)(HGT_NOWALK * n);

  0093a	e8 00 00 00 00	 call	 __ftol2
  0093f	89 44 24 28	 mov	 DWORD PTR tv299[esp+32], eax
  00943	db 44 24 28	 fild	 DWORD PTR tv299[esp+32]
  00947	5f		 pop	 edi
  00948	5d		 pop	 ebp

; 1218 : 	}
; 1219 : 	
; 1220 : #else
; 1221 : 	int lx=(int)(x/MAP_SIZE);
; 1222 : 	int lz=(int)(z/MAP_SIZE);
; 1223 : 	DWORD gx=(int)x-lx*MAP_SIZE;
; 1224 : 	DWORD gz=(int)z-lz*MAP_SIZE;
; 1225 : 	float glx=x-(int)x;
; 1226 : 	float glz=z-(int)z;
; 1227 : 
; 1228 : 	CLandscape* pLand = m_apLand[ lx + lz * m_nLandWidth ];
; 1229 : 	if( pLand == NULL ) return FALSE;
; 1230 : 
; 1231 : 	if((gx+gz)%2==0) {
; 1232 : 		if(glx>glz) {
; 1233 : 			//0,3,1
; 1234 : 			pTri[0]=D3DXVECTOR3( (float)( (gx  +lx*MAP_SIZE)*m_iMPU ), (float)( pLand->GetHeight(gx  ,gz  ) ), (float)( (gz  +lz*MAP_SIZE)*m_iMPU ) );
; 1235 : 			pTri[1]=D3DXVECTOR3( (float)( (gx+1+lx*MAP_SIZE)*m_iMPU ), (float)( pLand->GetHeight(gx+1,gz+1) ), (float)( (gz+1+lz*MAP_SIZE)*m_iMPU ) );
; 1236 : 			pTri[2]=D3DXVECTOR3( (float)( (gx+1+lx*MAP_SIZE)*m_iMPU ), (float)( pLand->GetHeight(gx+1,gz  ) ), (float)( (gz  +lz*MAP_SIZE)*m_iMPU ) );
; 1237 : 
; 1238 : 			pTri[3]=D3DXVECTOR3( (float)( (gx  +lx*MAP_SIZE)*m_iMPU ), (float)( pLand->GetHeight(gx  ,gz  ) ), (float)( (gz  +lz*MAP_SIZE)*m_iMPU ) );
; 1239 : 			pTri[4]=D3DXVECTOR3( (float)( (gx  +lx*MAP_SIZE)*m_iMPU ), (float)( pLand->GetHeight(gx  ,gz+1) ), (float)( (gz+1+lz*MAP_SIZE)*m_iMPU ) );
; 1240 : 			pTri[5]=D3DXVECTOR3( (float)( (gx+1+lx*MAP_SIZE)*m_iMPU ), (float)( pLand->GetHeight(gx+1,gz+1) ), (float)( (gz+1+lz*MAP_SIZE)*m_iMPU ) );
; 1241 : 		}
; 1242 : 		else {
; 1243 : 			//0,2,3
; 1244 : 			pTri[0]=D3DXVECTOR3( (float)( (gx  +lx*MAP_SIZE)*m_iMPU ), (float)( pLand->GetHeight(gx  ,gz  ) ), (float)( (gz  +lz*MAP_SIZE)*m_iMPU ) );
; 1245 : 			pTri[1]=D3DXVECTOR3( (float)( (gx  +lx*MAP_SIZE)*m_iMPU ), (float)( pLand->GetHeight(gx  ,gz+1) ), (float)( (gz+1+lz*MAP_SIZE)*m_iMPU ) );
; 1246 : 			pTri[2]=D3DXVECTOR3( (float)( (gx+1+lx*MAP_SIZE)*m_iMPU ), (float)( pLand->GetHeight(gx+1,gz+1) ), (float)( (gz+1+lz*MAP_SIZE)*m_iMPU ) );
; 1247 : 
; 1248 : 			pTri[3]=D3DXVECTOR3( (float)( (gx  +lx*MAP_SIZE)*m_iMPU ), (float)( pLand->GetHeight(gx  ,gz  ) ), (float)( (gz  +lz*MAP_SIZE)*m_iMPU ) );
; 1249 : 			pTri[4]=D3DXVECTOR3( (float)( (gx+1+lx*MAP_SIZE)*m_iMPU ), (float)( pLand->GetHeight(gx+1,gz+1) ), (float)( (gz+1+lz*MAP_SIZE)*m_iMPU ) );
; 1250 : 			pTri[5]=D3DXVECTOR3( (float)( (gx+1+lx*MAP_SIZE)*m_iMPU ), (float)( pLand->GetHeight(gx+1,gz  ) ), (float)( (gz  +lz*MAP_SIZE)*m_iMPU ) );
; 1251 : 		}
; 1252 : 	}
; 1253 : 	else {
; 1254 : 		if(glx+glz<1.0f) {
; 1255 : 			//0,2,1
; 1256 : 			pTri[0]=D3DXVECTOR3( (float)( (gx  +lx*MAP_SIZE)*m_iMPU ), (float)( pLand->GetHeight(gx  ,gz  ) ), (float)( (gz  +lz*MAP_SIZE)*m_iMPU ) );
; 1257 : 			pTri[1]=D3DXVECTOR3( (float)( (gx  +lx*MAP_SIZE)*m_iMPU ), (float)( pLand->GetHeight(gx  ,gz+1) ), (float)( (gz+1+lz*MAP_SIZE)*m_iMPU ) );
; 1258 : 			pTri[2]=D3DXVECTOR3( (float)( (gx+1+lx*MAP_SIZE)*m_iMPU ), (float)( pLand->GetHeight(gx+1,gz  ) ), (float)( (gz  +lz*MAP_SIZE)*m_iMPU ) );
; 1259 : 
; 1260 : 			pTri[3]=D3DXVECTOR3( (float)( (gx+1+lx*MAP_SIZE)*m_iMPU ), (float)( pLand->GetHeight(gx+1,gz  ) ), (float)( (gz  +lz*MAP_SIZE)*m_iMPU ) );
; 1261 : 			pTri[4]=D3DXVECTOR3( (float)( (gx  +lx*MAP_SIZE)*m_iMPU ), (float)( pLand->GetHeight(gx  ,gz+1) ), (float)( (gz+1+lz*MAP_SIZE)*m_iMPU ) );
; 1262 : 			pTri[5]=D3DXVECTOR3( (float)( (gx+1+lx*MAP_SIZE)*m_iMPU ), (float)( pLand->GetHeight(gx+1,gz+1) ), (float)( (gz+1+lz*MAP_SIZE)*m_iMPU ) );
; 1263 : 		}
; 1264 : 		else {
; 1265 : 			//1,2,3
; 1266 : 			pTri[0]=D3DXVECTOR3( (float)( (gx+1+lx*MAP_SIZE)*m_iMPU ), (float)( pLand->GetHeight(gx+1,gz  ) ), (float)( (gz  +lz*MAP_SIZE)*m_iMPU ) );
; 1267 : 			pTri[1]=D3DXVECTOR3( (float)( (gx  +lx*MAP_SIZE)*m_iMPU ), (float)( pLand->GetHeight(gx  ,gz+1) ), (float)( (gz+1+lz*MAP_SIZE)*m_iMPU ) );
; 1268 : 			pTri[2]=D3DXVECTOR3( (float)( (gx+1+lx*MAP_SIZE)*m_iMPU ), (float)( pLand->GetHeight(gx+1,gz+1) ), (float)( (gz+1+lz*MAP_SIZE)*m_iMPU ) );
; 1269 : 
; 1270 : 			pTri[3]=D3DXVECTOR3( (float)( (gx  +lx*MAP_SIZE)*m_iMPU ), (float)( pLand->GetHeight(gx  ,gz  ) ), (float)( (gz  +lz*MAP_SIZE)*m_iMPU ) );
; 1271 : 			pTri[4]=D3DXVECTOR3( (float)( (gx  +lx*MAP_SIZE)*m_iMPU ), (float)( pLand->GetHeight(gx  ,gz+1) ), (float)( (gz+1+lz*MAP_SIZE)*m_iMPU ) );
; 1272 : 			pTri[5]=D3DXVECTOR3( (float)( (gx+1+lx*MAP_SIZE)*m_iMPU ), (float)( pLand->GetHeight(gx+1,gz  ) ), (float)( (gz  +lz*MAP_SIZE)*m_iMPU ) );
; 1273 : 		}
; 1274 : 	}
; 1275 : #endif
; 1276 : 	return TRUE;

  00949	b8 01 00 00 00	 mov	 eax, 1
  0094e	d8 0d 00 00 00
	00		 fmul	 DWORD PTR __real@447a0000
  00954	d8 6b 40	 fsubr	 DWORD PTR [ebx+64]
  00957	d9 5b 40	 fstp	 DWORD PTR [ebx+64]
  0095a	5b		 pop	 ebx
  0095b	5e		 pop	 esi

; 1277 : }

  0095c	83 c4 14	 add	 esp, 20			; 00000014H
  0095f	c2 0c 00	 ret	 12			; 0000000cH
$L270389:
  00962	5f		 pop	 edi

; 1217 : 		pTri[5].y -= (float)(HGT_NOWALK * n);

  00963	dd d8		 fstp	 ST(0)
  00965	5d		 pop	 ebp
  00966	5b		 pop	 ebx

; 1218 : 	}
; 1219 : 	
; 1220 : #else
; 1221 : 	int lx=(int)(x/MAP_SIZE);
; 1222 : 	int lz=(int)(z/MAP_SIZE);
; 1223 : 	DWORD gx=(int)x-lx*MAP_SIZE;
; 1224 : 	DWORD gz=(int)z-lz*MAP_SIZE;
; 1225 : 	float glx=x-(int)x;
; 1226 : 	float glz=z-(int)z;
; 1227 : 
; 1228 : 	CLandscape* pLand = m_apLand[ lx + lz * m_nLandWidth ];
; 1229 : 	if( pLand == NULL ) return FALSE;
; 1230 : 
; 1231 : 	if((gx+gz)%2==0) {
; 1232 : 		if(glx>glz) {
; 1233 : 			//0,3,1
; 1234 : 			pTri[0]=D3DXVECTOR3( (float)( (gx  +lx*MAP_SIZE)*m_iMPU ), (float)( pLand->GetHeight(gx  ,gz  ) ), (float)( (gz  +lz*MAP_SIZE)*m_iMPU ) );
; 1235 : 			pTri[1]=D3DXVECTOR3( (float)( (gx+1+lx*MAP_SIZE)*m_iMPU ), (float)( pLand->GetHeight(gx+1,gz+1) ), (float)( (gz+1+lz*MAP_SIZE)*m_iMPU ) );
; 1236 : 			pTri[2]=D3DXVECTOR3( (float)( (gx+1+lx*MAP_SIZE)*m_iMPU ), (float)( pLand->GetHeight(gx+1,gz  ) ), (float)( (gz  +lz*MAP_SIZE)*m_iMPU ) );
; 1237 : 
; 1238 : 			pTri[3]=D3DXVECTOR3( (float)( (gx  +lx*MAP_SIZE)*m_iMPU ), (float)( pLand->GetHeight(gx  ,gz  ) ), (float)( (gz  +lz*MAP_SIZE)*m_iMPU ) );
; 1239 : 			pTri[4]=D3DXVECTOR3( (float)( (gx  +lx*MAP_SIZE)*m_iMPU ), (float)( pLand->GetHeight(gx  ,gz+1) ), (float)( (gz+1+lz*MAP_SIZE)*m_iMPU ) );
; 1240 : 			pTri[5]=D3DXVECTOR3( (float)( (gx+1+lx*MAP_SIZE)*m_iMPU ), (float)( pLand->GetHeight(gx+1,gz+1) ), (float)( (gz+1+lz*MAP_SIZE)*m_iMPU ) );
; 1241 : 		}
; 1242 : 		else {
; 1243 : 			//0,2,3
; 1244 : 			pTri[0]=D3DXVECTOR3( (float)( (gx  +lx*MAP_SIZE)*m_iMPU ), (float)( pLand->GetHeight(gx  ,gz  ) ), (float)( (gz  +lz*MAP_SIZE)*m_iMPU ) );
; 1245 : 			pTri[1]=D3DXVECTOR3( (float)( (gx  +lx*MAP_SIZE)*m_iMPU ), (float)( pLand->GetHeight(gx  ,gz+1) ), (float)( (gz+1+lz*MAP_SIZE)*m_iMPU ) );
; 1246 : 			pTri[2]=D3DXVECTOR3( (float)( (gx+1+lx*MAP_SIZE)*m_iMPU ), (float)( pLand->GetHeight(gx+1,gz+1) ), (float)( (gz+1+lz*MAP_SIZE)*m_iMPU ) );
; 1247 : 
; 1248 : 			pTri[3]=D3DXVECTOR3( (float)( (gx  +lx*MAP_SIZE)*m_iMPU ), (float)( pLand->GetHeight(gx  ,gz  ) ), (float)( (gz  +lz*MAP_SIZE)*m_iMPU ) );
; 1249 : 			pTri[4]=D3DXVECTOR3( (float)( (gx+1+lx*MAP_SIZE)*m_iMPU ), (float)( pLand->GetHeight(gx+1,gz+1) ), (float)( (gz+1+lz*MAP_SIZE)*m_iMPU ) );
; 1250 : 			pTri[5]=D3DXVECTOR3( (float)( (gx+1+lx*MAP_SIZE)*m_iMPU ), (float)( pLand->GetHeight(gx+1,gz  ) ), (float)( (gz  +lz*MAP_SIZE)*m_iMPU ) );
; 1251 : 		}
; 1252 : 	}
; 1253 : 	else {
; 1254 : 		if(glx+glz<1.0f) {
; 1255 : 			//0,2,1
; 1256 : 			pTri[0]=D3DXVECTOR3( (float)( (gx  +lx*MAP_SIZE)*m_iMPU ), (float)( pLand->GetHeight(gx  ,gz  ) ), (float)( (gz  +lz*MAP_SIZE)*m_iMPU ) );
; 1257 : 			pTri[1]=D3DXVECTOR3( (float)( (gx  +lx*MAP_SIZE)*m_iMPU ), (float)( pLand->GetHeight(gx  ,gz+1) ), (float)( (gz+1+lz*MAP_SIZE)*m_iMPU ) );
; 1258 : 			pTri[2]=D3DXVECTOR3( (float)( (gx+1+lx*MAP_SIZE)*m_iMPU ), (float)( pLand->GetHeight(gx+1,gz  ) ), (float)( (gz  +lz*MAP_SIZE)*m_iMPU ) );
; 1259 : 
; 1260 : 			pTri[3]=D3DXVECTOR3( (float)( (gx+1+lx*MAP_SIZE)*m_iMPU ), (float)( pLand->GetHeight(gx+1,gz  ) ), (float)( (gz  +lz*MAP_SIZE)*m_iMPU ) );
; 1261 : 			pTri[4]=D3DXVECTOR3( (float)( (gx  +lx*MAP_SIZE)*m_iMPU ), (float)( pLand->GetHeight(gx  ,gz+1) ), (float)( (gz+1+lz*MAP_SIZE)*m_iMPU ) );
; 1262 : 			pTri[5]=D3DXVECTOR3( (float)( (gx+1+lx*MAP_SIZE)*m_iMPU ), (float)( pLand->GetHeight(gx+1,gz+1) ), (float)( (gz+1+lz*MAP_SIZE)*m_iMPU ) );
; 1263 : 		}
; 1264 : 		else {
; 1265 : 			//1,2,3
; 1266 : 			pTri[0]=D3DXVECTOR3( (float)( (gx+1+lx*MAP_SIZE)*m_iMPU ), (float)( pLand->GetHeight(gx+1,gz  ) ), (float)( (gz  +lz*MAP_SIZE)*m_iMPU ) );
; 1267 : 			pTri[1]=D3DXVECTOR3( (float)( (gx  +lx*MAP_SIZE)*m_iMPU ), (float)( pLand->GetHeight(gx  ,gz+1) ), (float)( (gz+1+lz*MAP_SIZE)*m_iMPU ) );
; 1268 : 			pTri[2]=D3DXVECTOR3( (float)( (gx+1+lx*MAP_SIZE)*m_iMPU ), (float)( pLand->GetHeight(gx+1,gz+1) ), (float)( (gz+1+lz*MAP_SIZE)*m_iMPU ) );
; 1269 : 
; 1270 : 			pTri[3]=D3DXVECTOR3( (float)( (gx  +lx*MAP_SIZE)*m_iMPU ), (float)( pLand->GetHeight(gx  ,gz  ) ), (float)( (gz  +lz*MAP_SIZE)*m_iMPU ) );
; 1271 : 			pTri[4]=D3DXVECTOR3( (float)( (gx  +lx*MAP_SIZE)*m_iMPU ), (float)( pLand->GetHeight(gx  ,gz+1) ), (float)( (gz+1+lz*MAP_SIZE)*m_iMPU ) );
; 1272 : 			pTri[5]=D3DXVECTOR3( (float)( (gx+1+lx*MAP_SIZE)*m_iMPU ), (float)( pLand->GetHeight(gx+1,gz  ) ), (float)( (gz  +lz*MAP_SIZE)*m_iMPU ) );
; 1273 : 		}
; 1274 : 	}
; 1275 : #endif
; 1276 : 	return TRUE;

  00967	b8 01 00 00 00	 mov	 eax, 1
  0096c	5e		 pop	 esi

; 1277 : }

  0096d	83 c4 14	 add	 esp, 20			; 00000014H
  00970	c2 0c 00	 ret	 12			; 0000000cH
?GetLandTri2@CWorld@@QAEHMMPAUD3DXVECTOR3@@@Z ENDP	; CWorld::GetLandTri2
_TEXT	ENDS
PUBLIC	?GetLandTri@CWorld@@QAEXMMPAUD3DXVECTOR3@@@Z	; CWorld::GetLandTri
; Function compile flags: /Ogty
;	COMDAT ?GetLandTri@CWorld@@QAEXMMPAUD3DXVECTOR3@@@Z
_TEXT	SEGMENT
_gx$ = -20						; size = 4
_gz$ = -16						; size = 4
$T270411 = -12						; size = 12
$T270410 = -12						; size = 12
$T270409 = -12						; size = 12
$T270408 = -12						; size = 12
$T270407 = -12						; size = 12
$T270406 = -12						; size = 12
$T270405 = -12						; size = 12
$T270404 = -12						; size = 12
$T270403 = -12						; size = 12
$T270402 = -12						; size = 12
$T270401 = -12						; size = 12
$T270400 = -12						; size = 12
tv695 = 8						; size = 4
tv690 = 8						; size = 4
tv678 = 8						; size = 4
tv673 = 8						; size = 4
tv662 = 8						; size = 4
tv657 = 8						; size = 4
tv646 = 8						; size = 4
tv641 = 8						; size = 4
tv630 = 8						; size = 4
tv626 = 8						; size = 4
tv616 = 8						; size = 4
tv610 = 8						; size = 4
tv593 = 8						; size = 4
tv589 = 8						; size = 4
tv578 = 8						; size = 4
tv552 = 8						; size = 4
tv429 = 8						; size = 4
tv423 = 8						; size = 4
tv386 = 8						; size = 4
tv348 = 8						; size = 4
tv321 = 8						; size = 4
tv305 = 8						; size = 4
tv267 = 8						; size = 4
tv199 = 8						; size = 4
tv175 = 8						; size = 4
tv149 = 8						; size = 4
tv129 = 8						; size = 4
_x$ = 8							; size = 4
_z$ = 12						; size = 4
_pTri$ = 16						; size = 4
?GetLandTri@CWorld@@QAEXMMPAUD3DXVECTOR3@@@Z PROC NEAR	; CWorld::GetLandTri, COMDAT
; _this$ = ecx

; 1281 : 	if( VecInWorld( x, z ) == FALSE ) return;

  00000	8b 44 24 08	 mov	 eax, DWORD PTR _z$[esp-4]
  00004	83 ec 14	 sub	 esp, 20			; 00000014H
  00007	56		 push	 esi
  00008	8b f1		 mov	 esi, ecx
  0000a	8b 4c 24 1c	 mov	 ecx, DWORD PTR _x$[esp+20]
  0000e	50		 push	 eax
  0000f	51		 push	 ecx
  00010	8b ce		 mov	 ecx, esi
  00012	e8 00 00 00 00	 call	 ?VecInWorld@CWorld@@QAEHMM@Z ; CWorld::VecInWorld
  00017	85 c0		 test	 eax, eax
  00019	0f 84 9b 04 00
	00		 je	 $L262867

; 1282 : 
; 1283 : 	x /= m_iMPU;			//SMPU

  0001f	db 46 14	 fild	 DWORD PTR [esi+20]
  00022	53		 push	 ebx
  00023	55		 push	 ebp
  00024	57		 push	 edi
  00025	d8 3d 00 00 00
	00		 fdivr	 DWORD PTR __real@3f800000
  0002b	d9 44 24 28	 fld	 DWORD PTR _x$[esp+32]
  0002f	d8 c9		 fmul	 ST(0), ST(1)
  00031	d9 5c 24 28	 fstp	 DWORD PTR _x$[esp+32]

; 1284 : 	z /= m_iMPU;

  00035	d8 4c 24 2c	 fmul	 DWORD PTR _z$[esp+32]
  00039	d9 5c 24 2c	 fstp	 DWORD PTR _z$[esp+32]

; 1285 : 
; 1286 : #ifdef __WORLDSERVER
; 1287 : 	int gx=(int)x;

  0003d	d9 44 24 28	 fld	 DWORD PTR _x$[esp+32]
  00041	e8 00 00 00 00	 call	 __ftol2

; 1288 : 	int gz=(int)z;

  00046	d9 44 24 2c	 fld	 DWORD PTR _z$[esp+32]
  0004a	8b f8		 mov	 edi, eax
  0004c	89 7c 24 10	 mov	 DWORD PTR _gx$[esp+36], edi
  00050	e8 00 00 00 00	 call	 __ftol2

; 1289 : 	float glx=x-gx;

  00055	db 44 24 10	 fild	 DWORD PTR _gx$[esp+36]
  00059	8b c8		 mov	 ecx, eax
  0005b	89 4c 24 14	 mov	 DWORD PTR _gz$[esp+36], ecx
  0005f	d8 6c 24 28	 fsubr	 DWORD PTR _x$[esp+32]

; 1290 : 	float glz=z-gz;
; 1291 : 
; 1292 : 	if((gx+gz)%2==0) {

  00063	8d 14 39	 lea	 edx, DWORD PTR [ecx+edi]
  00066	81 e2 01 00 00
	80		 and	 edx, -2147483647	; 80000001H
  0006c	db 44 24 14	 fild	 DWORD PTR _gz$[esp+36]
  00070	d8 6c 24 2c	 fsubr	 DWORD PTR _z$[esp+32]
  00074	79 05		 jns	 SHORT $L270488
  00076	4a		 dec	 edx
  00077	83 ca fe	 or	 edx, -2			; fffffffeH
  0007a	42		 inc	 edx
$L270488:
  0007b	0f 85 b9 01 00
	00		 jne	 $L262804

; 1293 : 		if(glx>glz) {
; 1294 : 			//0,3,1
; 1295 : 			pTri[0]=D3DXVECTOR3( (float)( (gx  )*m_iMPU ), (float)( m_apHeightMap[(gx  )+(gz  )*WORLD_WIDTH] ), (float)( (gz  )*m_iMPU ) );

  00081	8b 5e 1c	 mov	 ebx, DWORD PTR [esi+28]
  00084	d9 c9		 fxch	 ST(1)
  00086	d8 d9		 fcomp	 ST(1)
  00088	df e0		 fnstsw	 ax
  0008a	dd d8		 fstp	 ST(0)
  0008c	f6 c4 41	 test	 ah, 65			; 00000041H
  0008f	8b 46 14	 mov	 eax, DWORD PTR [esi+20]
  00092	8b d0		 mov	 edx, eax
  00094	0f 85 d3 00 00
	00		 jne	 $L262805
  0009a	0f af d7	 imul	 edx, edi
  0009d	0f af c1	 imul	 eax, ecx
  000a0	89 54 24 28	 mov	 DWORD PTR tv695[esp+32], edx
  000a4	8b 56 0c	 mov	 edx, DWORD PTR [esi+12]
  000a7	0f af d1	 imul	 edx, ecx
  000aa	db 44 24 28	 fild	 DWORD PTR tv695[esp+32]
  000ae	d9 5c 24 18	 fstp	 DWORD PTR $T270400[esp+36]
  000b2	03 d7		 add	 edx, edi
  000b4	89 44 24 28	 mov	 DWORD PTR tv690[esp+32], eax
  000b8	d9 04 93	 fld	 DWORD PTR [ebx+edx*4]
  000bb	8b 5c 24 30	 mov	 ebx, DWORD PTR _pTri$[esp+32]
  000bf	8b 54 24 18	 mov	 edx, DWORD PTR $T270400[esp+36]
  000c3	d9 5c 24 1c	 fstp	 DWORD PTR $T270400[esp+40]
  000c7	db 44 24 28	 fild	 DWORD PTR tv690[esp+32]
  000cb	8b c3		 mov	 eax, ebx
  000cd	89 10		 mov	 DWORD PTR [eax], edx
  000cf	8b 54 24 1c	 mov	 edx, DWORD PTR $T270400[esp+40]
  000d3	89 50 04	 mov	 DWORD PTR [eax+4], edx
  000d6	d9 5c 24 20	 fstp	 DWORD PTR $T270400[esp+44]
  000da	8b 54 24 20	 mov	 edx, DWORD PTR $T270400[esp+44]
  000de	89 50 08	 mov	 DWORD PTR [eax+8], edx

; 1296 : 			pTri[1]=D3DXVECTOR3( (float)( (gx+1)*m_iMPU ), (float)( m_apHeightMap[(gx+1)+(gz+1)*WORLD_WIDTH] ), (float)( (gz+1)*m_iMPU ) );

  000e1	8b 56 14	 mov	 edx, DWORD PTR [esi+20]
  000e4	8b 6e 1c	 mov	 ebp, DWORD PTR [esi+28]
  000e7	8d 47 01	 lea	 eax, DWORD PTR [edi+1]
  000ea	0f af d0	 imul	 edx, eax
  000ed	89 54 24 28	 mov	 DWORD PTR tv678[esp+32], edx
  000f1	8b 56 0c	 mov	 edx, DWORD PTR [esi+12]
  000f4	8d 41 01	 lea	 eax, DWORD PTR [ecx+1]
  000f7	db 44 24 28	 fild	 DWORD PTR tv678[esp+32]
  000fb	0f af d0	 imul	 edx, eax
  000fe	0f af 46 14	 imul	 eax, DWORD PTR [esi+20]
  00102	d9 5c 24 18	 fstp	 DWORD PTR $T270401[esp+36]
  00106	03 d7		 add	 edx, edi
  00108	89 44 24 28	 mov	 DWORD PTR tv673[esp+32], eax
  0010c	8d 43 0c	 lea	 eax, DWORD PTR [ebx+12]
  0010f	d9 44 95 04	 fld	 DWORD PTR [ebp+edx*4+4]
  00113	8b 54 24 18	 mov	 edx, DWORD PTR $T270401[esp+36]
  00117	89 10		 mov	 DWORD PTR [eax], edx
  00119	d9 5c 24 1c	 fstp	 DWORD PTR $T270401[esp+40]
  0011d	db 44 24 28	 fild	 DWORD PTR tv673[esp+32]
  00121	8b 54 24 1c	 mov	 edx, DWORD PTR $T270401[esp+40]
  00125	89 50 04	 mov	 DWORD PTR [eax+4], edx
  00128	d9 5c 24 20	 fstp	 DWORD PTR $T270401[esp+44]
  0012c	8b 54 24 20	 mov	 edx, DWORD PTR $T270401[esp+44]
  00130	89 50 08	 mov	 DWORD PTR [eax+8], edx

; 1297 : 			pTri[2]=D3DXVECTOR3( (float)( (gx+1)*m_iMPU ), (float)( m_apHeightMap[(gx+1)+(gz  )*WORLD_WIDTH] ), (float)( (gz  )*m_iMPU ) );

  00133	8b 46 14	 mov	 eax, DWORD PTR [esi+20]
  00136	8b e8		 mov	 ebp, eax
  00138	8d 57 01	 lea	 edx, DWORD PTR [edi+1]
  0013b	0f af ea	 imul	 ebp, edx
  0013e	8b 56 0c	 mov	 edx, DWORD PTR [esi+12]
  00141	8b 76 1c	 mov	 esi, DWORD PTR [esi+28]
  00144	0f af d1	 imul	 edx, ecx
  00147	03 d7		 add	 edx, edi
  00149	0f af c1	 imul	 eax, ecx
  0014c	89 6c 24 28	 mov	 DWORD PTR tv662[esp+32], ebp
  00150	db 44 24 28	 fild	 DWORD PTR tv662[esp+32]
  00154	89 44 24 28	 mov	 DWORD PTR tv657[esp+32], eax
  00158	d9 5c 24 18	 fstp	 DWORD PTR $T270402[esp+36]
  0015c	d9 44 96 04	 fld	 DWORD PTR [esi+edx*4+4]
  00160	d9 5c 24 1c	 fstp	 DWORD PTR $T270402[esp+40]
  00164	db 44 24 28	 fild	 DWORD PTR tv657[esp+32]

; 1298 : 		}
; 1299 : 		else {

  00168	e9 8e 02 00 00	 jmp	 $L270489
$L262805:

; 1300 : 			//0,2,3
; 1301 : 			pTri[0]=D3DXVECTOR3( (float)( (gx  )*m_iMPU ), (float)( m_apHeightMap[(gx  )+(gz  )*WORLD_WIDTH] ), (float)( (gz  )*m_iMPU ) );

  0016d	0f af d7	 imul	 edx, edi
  00170	0f af c1	 imul	 eax, ecx
  00173	89 54 24 28	 mov	 DWORD PTR tv646[esp+32], edx
  00177	8b 56 0c	 mov	 edx, DWORD PTR [esi+12]
  0017a	0f af d1	 imul	 edx, ecx
  0017d	db 44 24 28	 fild	 DWORD PTR tv646[esp+32]
  00181	d9 5c 24 18	 fstp	 DWORD PTR $T270403[esp+36]
  00185	03 d7		 add	 edx, edi
  00187	89 44 24 28	 mov	 DWORD PTR tv641[esp+32], eax
  0018b	d9 04 93	 fld	 DWORD PTR [ebx+edx*4]
  0018e	8b 5c 24 30	 mov	 ebx, DWORD PTR _pTri$[esp+32]
  00192	8b 54 24 18	 mov	 edx, DWORD PTR $T270403[esp+36]
  00196	d9 5c 24 1c	 fstp	 DWORD PTR $T270403[esp+40]
  0019a	db 44 24 28	 fild	 DWORD PTR tv641[esp+32]
  0019e	8b c3		 mov	 eax, ebx
  001a0	89 10		 mov	 DWORD PTR [eax], edx
  001a2	8b 54 24 1c	 mov	 edx, DWORD PTR $T270403[esp+40]
  001a6	89 50 04	 mov	 DWORD PTR [eax+4], edx
  001a9	d9 5c 24 20	 fstp	 DWORD PTR $T270403[esp+44]
  001ad	8b 54 24 20	 mov	 edx, DWORD PTR $T270403[esp+44]
  001b1	89 50 08	 mov	 DWORD PTR [eax+8], edx

; 1302 : 			pTri[1]=D3DXVECTOR3( (float)( (gx  )*m_iMPU ), (float)( m_apHeightMap[(gx  )+(gz+1)*WORLD_WIDTH] ), (float)( (gz+1)*m_iMPU ) );

  001b4	8b 46 14	 mov	 eax, DWORD PTR [esi+20]
  001b7	8b 6e 1c	 mov	 ebp, DWORD PTR [esi+28]
  001ba	8b d0		 mov	 edx, eax
  001bc	0f af d7	 imul	 edx, edi
  001bf	89 54 24 28	 mov	 DWORD PTR tv630[esp+32], edx
  001c3	8b 56 0c	 mov	 edx, DWORD PTR [esi+12]
  001c6	41		 inc	 ecx
  001c7	db 44 24 28	 fild	 DWORD PTR tv630[esp+32]
  001cb	0f af d1	 imul	 edx, ecx
  001ce	0f af c1	 imul	 eax, ecx
  001d1	d9 5c 24 18	 fstp	 DWORD PTR $T270404[esp+36]
  001d5	03 d7		 add	 edx, edi
  001d7	89 44 24 28	 mov	 DWORD PTR tv626[esp+32], eax
  001db	8d 43 0c	 lea	 eax, DWORD PTR [ebx+12]
  001de	d9 44 95 00	 fld	 DWORD PTR [ebp+edx*4]
  001e2	8b 54 24 18	 mov	 edx, DWORD PTR $T270404[esp+36]
  001e6	89 10		 mov	 DWORD PTR [eax], edx
  001e8	d9 5c 24 1c	 fstp	 DWORD PTR $T270404[esp+40]
  001ec	db 44 24 28	 fild	 DWORD PTR tv626[esp+32]
  001f0	8b 54 24 1c	 mov	 edx, DWORD PTR $T270404[esp+40]
  001f4	89 50 04	 mov	 DWORD PTR [eax+4], edx
  001f7	d9 5c 24 20	 fstp	 DWORD PTR $T270404[esp+44]
  001fb	8b 54 24 20	 mov	 edx, DWORD PTR $T270404[esp+44]
  001ff	89 50 08	 mov	 DWORD PTR [eax+8], edx

; 1303 : 			pTri[2]=D3DXVECTOR3( (float)( (gx+1)*m_iMPU ), (float)( m_apHeightMap[(gx+1)+(gz+1)*WORLD_WIDTH] ), (float)( (gz+1)*m_iMPU ) );

  00202	8b 46 14	 mov	 eax, DWORD PTR [esi+20]
  00205	8d 57 01	 lea	 edx, DWORD PTR [edi+1]
  00208	0f af d0	 imul	 edx, eax
  0020b	89 54 24 28	 mov	 DWORD PTR tv616[esp+32], edx
  0020f	8b 56 0c	 mov	 edx, DWORD PTR [esi+12]
  00212	8b 76 1c	 mov	 esi, DWORD PTR [esi+28]
  00215	0f af d1	 imul	 edx, ecx
  00218	db 44 24 28	 fild	 DWORD PTR tv616[esp+32]
  0021c	d9 5c 24 18	 fstp	 DWORD PTR $T270405[esp+36]
  00220	03 d7		 add	 edx, edi
  00222	0f af c1	 imul	 eax, ecx
  00225	d9 44 96 04	 fld	 DWORD PTR [esi+edx*4+4]
  00229	d9 5c 24 1c	 fstp	 DWORD PTR $T270405[esp+40]
  0022d	89 44 24 28	 mov	 DWORD PTR tv610[esp+32], eax
  00231	db 44 24 28	 fild	 DWORD PTR tv610[esp+32]

; 1304 : 		}
; 1305 : 	}
; 1306 : 	else {

  00235	e9 c1 01 00 00	 jmp	 $L270489
$L262804:

; 1307 : 		if(glx+glz<1.0f) {

  0023a	d8 c1		 fadd	 ST(0), ST(1)
  0023c	d8 1d 00 00 00
	00		 fcomp	 DWORD PTR __real@3f800000
  00242	df e0		 fnstsw	 ax
  00244	dd d8		 fstp	 ST(0)
  00246	f6 c4 05	 test	 ah, 5

; 1308 : 			//0,2,1
; 1309 : 			pTri[0]=D3DXVECTOR3( (float)( (gx  )*m_iMPU ), (float)( m_apHeightMap[(gx  )+(gz  )*WORLD_WIDTH] ), (float)( (gz  )*m_iMPU ) );

  00249	8b 46 14	 mov	 eax, DWORD PTR [esi+20]
  0024c	0f 8a d6 00 00
	00		 jp	 $L262832
  00252	8b 5e 1c	 mov	 ebx, DWORD PTR [esi+28]
  00255	8b d0		 mov	 edx, eax
  00257	0f af c1	 imul	 eax, ecx
  0025a	0f af d7	 imul	 edx, edi
  0025d	89 54 24 28	 mov	 DWORD PTR tv593[esp+32], edx
  00261	8b 56 0c	 mov	 edx, DWORD PTR [esi+12]
  00264	0f af d1	 imul	 edx, ecx
  00267	db 44 24 28	 fild	 DWORD PTR tv593[esp+32]
  0026b	d9 5c 24 18	 fstp	 DWORD PTR $T270406[esp+36]
  0026f	03 d7		 add	 edx, edi
  00271	89 44 24 28	 mov	 DWORD PTR tv589[esp+32], eax
  00275	d9 04 93	 fld	 DWORD PTR [ebx+edx*4]
  00278	8b 5c 24 30	 mov	 ebx, DWORD PTR _pTri$[esp+32]
  0027c	8b 54 24 18	 mov	 edx, DWORD PTR $T270406[esp+36]
  00280	d9 5c 24 1c	 fstp	 DWORD PTR $T270406[esp+40]
  00284	db 44 24 28	 fild	 DWORD PTR tv589[esp+32]
  00288	8b c3		 mov	 eax, ebx
  0028a	89 10		 mov	 DWORD PTR [eax], edx
  0028c	8b 54 24 1c	 mov	 edx, DWORD PTR $T270406[esp+40]
  00290	89 50 04	 mov	 DWORD PTR [eax+4], edx
  00293	d9 5c 24 20	 fstp	 DWORD PTR $T270406[esp+44]
  00297	8b 54 24 20	 mov	 edx, DWORD PTR $T270406[esp+44]
  0029b	89 50 08	 mov	 DWORD PTR [eax+8], edx

; 1310 : 			pTri[1]=D3DXVECTOR3( (float)( (gx  )*m_iMPU ), (float)( m_apHeightMap[(gx  )+(gz+1)*WORLD_WIDTH] ), (float)( (gz+1)*m_iMPU ) );

  0029e	8b 46 14	 mov	 eax, DWORD PTR [esi+20]
  002a1	8b 6e 0c	 mov	 ebp, DWORD PTR [esi+12]
  002a4	8b d0		 mov	 edx, eax
  002a6	0f af d7	 imul	 edx, edi
  002a9	89 54 24 28	 mov	 DWORD PTR tv578[esp+32], edx
  002ad	8d 51 01	 lea	 edx, DWORD PTR [ecx+1]
  002b0	0f af ea	 imul	 ebp, edx
  002b3	db 44 24 28	 fild	 DWORD PTR tv578[esp+32]
  002b7	d9 5c 24 18	 fstp	 DWORD PTR $T270407[esp+36]
  002bb	8b 56 1c	 mov	 edx, DWORD PTR [esi+28]
  002be	03 ef		 add	 ebp, edi
  002c0	d9 04 aa	 fld	 DWORD PTR [edx+ebp*4]
  002c3	8d 51 01	 lea	 edx, DWORD PTR [ecx+1]
  002c6	0f af c2	 imul	 eax, edx
  002c9	d9 5c 24 1c	 fstp	 DWORD PTR $T270407[esp+40]
  002cd	8b 54 24 18	 mov	 edx, DWORD PTR $T270407[esp+36]
  002d1	89 44 24 28	 mov	 DWORD PTR tv552[esp+32], eax
  002d5	8d 43 0c	 lea	 eax, DWORD PTR [ebx+12]
  002d8	89 10		 mov	 DWORD PTR [eax], edx
  002da	db 44 24 28	 fild	 DWORD PTR tv552[esp+32]
  002de	8b 54 24 1c	 mov	 edx, DWORD PTR $T270407[esp+40]
  002e2	89 50 04	 mov	 DWORD PTR [eax+4], edx
  002e5	d9 5c 24 20	 fstp	 DWORD PTR $T270407[esp+44]
  002e9	8b 54 24 20	 mov	 edx, DWORD PTR $T270407[esp+44]
  002ed	89 50 08	 mov	 DWORD PTR [eax+8], edx

; 1311 : 			pTri[2]=D3DXVECTOR3( (float)( (gx+1)*m_iMPU ), (float)( m_apHeightMap[(gx+1)+(gz  )*WORLD_WIDTH] ), (float)( (gz  )*m_iMPU ) );

  002f0	8b 46 14	 mov	 eax, DWORD PTR [esi+20]
  002f3	8d 57 01	 lea	 edx, DWORD PTR [edi+1]
  002f6	0f af d0	 imul	 edx, eax
  002f9	89 54 24 28	 mov	 DWORD PTR tv429[esp+32], edx
  002fd	8b 56 0c	 mov	 edx, DWORD PTR [esi+12]
  00300	8b 76 1c	 mov	 esi, DWORD PTR [esi+28]
  00303	0f af d1	 imul	 edx, ecx
  00306	db 44 24 28	 fild	 DWORD PTR tv429[esp+32]
  0030a	d9 5c 24 18	 fstp	 DWORD PTR $T270408[esp+36]
  0030e	03 d7		 add	 edx, edi
  00310	0f af c1	 imul	 eax, ecx
  00313	d9 44 96 04	 fld	 DWORD PTR [esi+edx*4+4]
  00317	d9 5c 24 1c	 fstp	 DWORD PTR $T270408[esp+40]
  0031b	89 44 24 28	 mov	 DWORD PTR tv423[esp+32], eax
  0031f	db 44 24 28	 fild	 DWORD PTR tv423[esp+32]

; 1312 : 		}
; 1313 : 		else {

  00323	e9 d3 00 00 00	 jmp	 $L270489
$L262832:

; 1314 : 			//1,2,3
; 1315 : 			pTri[0]=D3DXVECTOR3( (float)( (gx+1)*m_iMPU ), (float)( m_apHeightMap[(gx+1)+(gz  )*WORLD_WIDTH] ), (float)( (gz  )*m_iMPU ) );

  00328	8b d8		 mov	 ebx, eax
  0032a	0f af c1	 imul	 eax, ecx
  0032d	8d 57 01	 lea	 edx, DWORD PTR [edi+1]
  00330	0f af da	 imul	 ebx, edx
  00333	8b 56 0c	 mov	 edx, DWORD PTR [esi+12]
  00336	0f af d1	 imul	 edx, ecx
  00339	03 d7		 add	 edx, edi
  0033b	89 5c 24 28	 mov	 DWORD PTR tv305[esp+32], ebx
  0033f	8b 5e 1c	 mov	 ebx, DWORD PTR [esi+28]
  00342	db 44 24 28	 fild	 DWORD PTR tv305[esp+32]
  00346	89 44 24 28	 mov	 DWORD PTR tv267[esp+32], eax
  0034a	d9 5c 24 18	 fstp	 DWORD PTR $T270409[esp+36]
  0034e	d9 44 93 04	 fld	 DWORD PTR [ebx+edx*4+4]
  00352	8b 5c 24 30	 mov	 ebx, DWORD PTR _pTri$[esp+32]
  00356	8b 54 24 18	 mov	 edx, DWORD PTR $T270409[esp+36]
  0035a	d9 5c 24 1c	 fstp	 DWORD PTR $T270409[esp+40]
  0035e	db 44 24 28	 fild	 DWORD PTR tv267[esp+32]
  00362	8b c3		 mov	 eax, ebx
  00364	89 10		 mov	 DWORD PTR [eax], edx
  00366	8b 54 24 1c	 mov	 edx, DWORD PTR $T270409[esp+40]
  0036a	89 50 04	 mov	 DWORD PTR [eax+4], edx
  0036d	d9 5c 24 20	 fstp	 DWORD PTR $T270409[esp+44]
  00371	8b 54 24 20	 mov	 edx, DWORD PTR $T270409[esp+44]
  00375	89 50 08	 mov	 DWORD PTR [eax+8], edx

; 1316 : 			pTri[1]=D3DXVECTOR3( (float)( (gx  )*m_iMPU ), (float)( m_apHeightMap[(gx  )+(gz+1)*WORLD_WIDTH] ), (float)( (gz+1)*m_iMPU ) );

  00378	8b 46 14	 mov	 eax, DWORD PTR [esi+20]
  0037b	8b 6e 1c	 mov	 ebp, DWORD PTR [esi+28]
  0037e	8b d0		 mov	 edx, eax
  00380	0f af d7	 imul	 edx, edi
  00383	89 54 24 28	 mov	 DWORD PTR tv199[esp+32], edx
  00387	8b 56 0c	 mov	 edx, DWORD PTR [esi+12]
  0038a	41		 inc	 ecx
  0038b	db 44 24 28	 fild	 DWORD PTR tv199[esp+32]
  0038f	0f af d1	 imul	 edx, ecx
  00392	0f af c1	 imul	 eax, ecx
  00395	d9 5c 24 18	 fstp	 DWORD PTR $T270410[esp+36]
  00399	03 d7		 add	 edx, edi
  0039b	89 44 24 28	 mov	 DWORD PTR tv175[esp+32], eax
  0039f	8d 43 0c	 lea	 eax, DWORD PTR [ebx+12]
  003a2	d9 44 95 00	 fld	 DWORD PTR [ebp+edx*4]
  003a6	8b 54 24 18	 mov	 edx, DWORD PTR $T270410[esp+36]
  003aa	89 10		 mov	 DWORD PTR [eax], edx
  003ac	d9 5c 24 1c	 fstp	 DWORD PTR $T270410[esp+40]
  003b0	db 44 24 28	 fild	 DWORD PTR tv175[esp+32]
  003b4	8b 54 24 1c	 mov	 edx, DWORD PTR $T270410[esp+40]
  003b8	89 50 04	 mov	 DWORD PTR [eax+4], edx
  003bb	d9 5c 24 20	 fstp	 DWORD PTR $T270410[esp+44]
  003bf	8b 54 24 20	 mov	 edx, DWORD PTR $T270410[esp+44]
  003c3	89 50 08	 mov	 DWORD PTR [eax+8], edx

; 1317 : 			pTri[2]=D3DXVECTOR3( (float)( (gx+1)*m_iMPU ), (float)( m_apHeightMap[(gx+1)+(gz+1)*WORLD_WIDTH] ), (float)( (gz+1)*m_iMPU ) );

  003c6	8b 46 14	 mov	 eax, DWORD PTR [esi+20]
  003c9	8b e8		 mov	 ebp, eax
  003cb	8d 57 01	 lea	 edx, DWORD PTR [edi+1]
  003ce	0f af ea	 imul	 ebp, edx
  003d1	8b 56 0c	 mov	 edx, DWORD PTR [esi+12]
  003d4	8b 76 1c	 mov	 esi, DWORD PTR [esi+28]
  003d7	0f af d1	 imul	 edx, ecx
  003da	03 d7		 add	 edx, edi
  003dc	0f af c1	 imul	 eax, ecx
  003df	89 6c 24 28	 mov	 DWORD PTR tv129[esp+32], ebp
  003e3	db 44 24 28	 fild	 DWORD PTR tv129[esp+32]
  003e7	89 44 24 28	 mov	 DWORD PTR tv386[esp+32], eax
  003eb	d9 5c 24 18	 fstp	 DWORD PTR $T270411[esp+36]
  003ef	d9 44 96 04	 fld	 DWORD PTR [esi+edx*4+4]
  003f3	d9 5c 24 1c	 fstp	 DWORD PTR $T270411[esp+40]
  003f7	db 44 24 28	 fild	 DWORD PTR tv386[esp+32]
$L270489:
  003fb	8b 4c 24 18	 mov	 ecx, DWORD PTR $T270411[esp+36]
  003ff	d9 5c 24 20	 fstp	 DWORD PTR $T270411[esp+44]

; 1318 : 		}
; 1319 : 	}
; 1320 : 
; 1321 : 	float y = pTri[0].y;

  00403	d9 43 04	 fld	 DWORD PTR [ebx+4]
  00406	8b 54 24 1c	 mov	 edx, DWORD PTR $T270411[esp+40]

; 1322 : 	if( y >= HGT_NOWALK )		// 1000   .

  0040a	d8 15 00 00 00
	00		 fcom	 DWORD PTR __real@447a0000
  00410	8d 43 18	 lea	 eax, DWORD PTR [ebx+24]
  00413	89 08		 mov	 DWORD PTR [eax], ecx
  00415	8b 4c 24 20	 mov	 ecx, DWORD PTR $T270411[esp+44]
  00419	89 50 04	 mov	 DWORD PTR [eax+4], edx
  0041c	89 48 08	 mov	 DWORD PTR [eax+8], ecx
  0041f	df e0		 fnstsw	 ax
  00421	f6 c4 01	 test	 ah, 1
  00424	75 21		 jne	 SHORT $L270486

; 1323 : 	{
; 1324 : 		int n = (int)(y / HGT_NOWALK);

  00426	d8 0d 00 00 00
	00		 fmul	 DWORD PTR __real@3a83126f

; 1325 : 		pTri[0].y -= (float)(HGT_NOWALK * n);

  0042c	e8 00 00 00 00	 call	 __ftol2
  00431	89 44 24 28	 mov	 DWORD PTR tv149[esp+32], eax
  00435	db 44 24 28	 fild	 DWORD PTR tv149[esp+32]
  00439	d8 0d 00 00 00
	00		 fmul	 DWORD PTR __real@447a0000
  0043f	d8 6b 04	 fsubr	 DWORD PTR [ebx+4]
  00442	d9 5b 04	 fstp	 DWORD PTR [ebx+4]
  00445	eb 02		 jmp	 SHORT $L262859
$L270486:
  00447	dd d8		 fstp	 ST(0)
$L262859:

; 1326 : 	}
; 1327 : 	y = pTri[1].y;

  00449	d9 43 10	 fld	 DWORD PTR [ebx+16]

; 1328 : 	if( y >= HGT_NOWALK )		// 1000   .

  0044c	d8 15 00 00 00
	00		 fcom	 DWORD PTR __real@447a0000
  00452	df e0		 fnstsw	 ax
  00454	f6 c4 01	 test	 ah, 1
  00457	75 21		 jne	 SHORT $L270485

; 1329 : 	{
; 1330 : 		int n = (int)(y / HGT_NOWALK);

  00459	d8 0d 00 00 00
	00		 fmul	 DWORD PTR __real@3a83126f

; 1331 : 		pTri[1].y -= (float)(HGT_NOWALK * n);

  0045f	e8 00 00 00 00	 call	 __ftol2
  00464	89 44 24 28	 mov	 DWORD PTR tv321[esp+32], eax
  00468	db 44 24 28	 fild	 DWORD PTR tv321[esp+32]
  0046c	d8 0d 00 00 00
	00		 fmul	 DWORD PTR __real@447a0000
  00472	d8 6b 10	 fsubr	 DWORD PTR [ebx+16]
  00475	d9 5b 10	 fstp	 DWORD PTR [ebx+16]
  00478	eb 02		 jmp	 SHORT $L262863
$L270485:
  0047a	dd d8		 fstp	 ST(0)
$L262863:

; 1332 : 	}
; 1333 : 	y = pTri[2].y;

  0047c	d9 43 1c	 fld	 DWORD PTR [ebx+28]

; 1334 : 	if( y >= HGT_NOWALK )		// 1000   .

  0047f	d8 15 00 00 00
	00		 fcom	 DWORD PTR __real@447a0000
  00485	df e0		 fnstsw	 ax
  00487	f6 c4 01	 test	 ah, 1
  0048a	75 29		 jne	 SHORT $L270484

; 1335 : 	{
; 1336 : 		int n = (int)(y / HGT_NOWALK);

  0048c	d8 0d 00 00 00
	00		 fmul	 DWORD PTR __real@3a83126f

; 1337 : 		pTri[2].y -= (float)(HGT_NOWALK * n);

  00492	e8 00 00 00 00	 call	 __ftol2
  00497	89 44 24 28	 mov	 DWORD PTR tv348[esp+32], eax
  0049b	db 44 24 28	 fild	 DWORD PTR tv348[esp+32]
  0049f	5f		 pop	 edi
  004a0	5d		 pop	 ebp
  004a1	d8 0d 00 00 00
	00		 fmul	 DWORD PTR __real@447a0000
  004a7	d8 6b 1c	 fsubr	 DWORD PTR [ebx+28]
  004aa	d9 5b 1c	 fstp	 DWORD PTR [ebx+28]
  004ad	5b		 pop	 ebx
  004ae	5e		 pop	 esi

; 1338 : 	}
; 1339 : 	
; 1340 : #else
; 1341 : 	int lx=(int)(x/MAP_SIZE);
; 1342 : 	int lz=(int)(z/MAP_SIZE);
; 1343 : 	DWORD gx=(int)x-lx*MAP_SIZE;
; 1344 : 	DWORD gz=(int)z-lz*MAP_SIZE;
; 1345 : 	float glx=x-(int)x;
; 1346 : 	float glz=z-(int)z;
; 1347 : 
; 1348 : 	CLandscape* pLand = m_apLand[ lx + lz * m_nLandWidth ];
; 1349 : 	if( pLand == NULL ) return;
; 1350 : 
; 1351 : 	if((gx+gz)%2==0) {
; 1352 : 		if(glx>glz) {
; 1353 : 			//0,3,1
; 1354 : 			pTri[0]=D3DXVECTOR3( (FLOAT)( (gx  +lx*MAP_SIZE)*m_iMPU ), (FLOAT)( pLand->GetHeight(gx  ,gz  ) ), (FLOAT)( (gz  +lz*MAP_SIZE)*m_iMPU) );
; 1355 : 			pTri[1]=D3DXVECTOR3( (FLOAT)( (gx+1+lx*MAP_SIZE)*m_iMPU ), (FLOAT)( pLand->GetHeight(gx+1,gz+1) ), (FLOAT)( (gz+1+lz*MAP_SIZE)*m_iMPU) );
; 1356 : 			pTri[2]=D3DXVECTOR3( (FLOAT)( (gx+1+lx*MAP_SIZE)*m_iMPU ), (FLOAT)( pLand->GetHeight(gx+1,gz  ) ), (FLOAT)( (gz  +lz*MAP_SIZE)*m_iMPU) );
; 1357 : 		}
; 1358 : 		else {
; 1359 : 			//0,2,3
; 1360 : 			pTri[0]=D3DXVECTOR3( (FLOAT)( (gx  +lx*MAP_SIZE)*m_iMPU ), (FLOAT)( pLand->GetHeight(gx  ,gz  ) ), (FLOAT)( (gz  +lz*MAP_SIZE)*m_iMPU) );
; 1361 : 			pTri[1]=D3DXVECTOR3( (FLOAT)( (gx  +lx*MAP_SIZE)*m_iMPU ), (FLOAT)( pLand->GetHeight(gx  ,gz+1) ), (FLOAT)( (gz+1+lz*MAP_SIZE)*m_iMPU) );
; 1362 : 			pTri[2]=D3DXVECTOR3( (FLOAT)( (gx+1+lx*MAP_SIZE)*m_iMPU ), (FLOAT)( pLand->GetHeight(gx+1,gz+1) ), (FLOAT)( (gz+1+lz*MAP_SIZE)*m_iMPU) );
; 1363 : 		}
; 1364 : 	}
; 1365 : 	else {
; 1366 : 		if(glx+glz<1.0f) {
; 1367 : 			//0,2,1
; 1368 : 			pTri[0]=D3DXVECTOR3( (FLOAT)( (gx  +lx*MAP_SIZE)*m_iMPU ), (FLOAT)( pLand->GetHeight(gx  ,gz  ) ), (FLOAT)( (gz  +lz*MAP_SIZE)*m_iMPU) );
; 1369 : 			pTri[1]=D3DXVECTOR3( (FLOAT)( (gx  +lx*MAP_SIZE)*m_iMPU ), (FLOAT)( pLand->GetHeight(gx  ,gz+1) ), (FLOAT)( (gz+1+lz*MAP_SIZE)*m_iMPU) );
; 1370 : 			pTri[2]=D3DXVECTOR3( (FLOAT)( (gx+1+lx*MAP_SIZE)*m_iMPU ), (FLOAT)( pLand->GetHeight(gx+1,gz  ) ), (FLOAT)( (gz  +lz*MAP_SIZE)*m_iMPU) );
; 1371 : 		}
; 1372 : 		else {
; 1373 : 			//1,2,3
; 1374 : 			pTri[0]=D3DXVECTOR3( (FLOAT)( (gx+1+lx*MAP_SIZE)*m_iMPU ), (FLOAT)( pLand->GetHeight(gx+1,gz  ) ), (FLOAT)( (gz  +lz*MAP_SIZE)*m_iMPU) );
; 1375 : 			pTri[1]=D3DXVECTOR3( (FLOAT)( (gx  +lx*MAP_SIZE)*m_iMPU ), (FLOAT)( pLand->GetHeight(gx  ,gz+1) ), (FLOAT)( (gz+1+lz*MAP_SIZE)*m_iMPU) );
; 1376 : 			pTri[2]=D3DXVECTOR3( (FLOAT)( (gx+1+lx*MAP_SIZE)*m_iMPU ), (FLOAT)( pLand->GetHeight(gx+1,gz+1) ), (FLOAT)( (gz+1+lz*MAP_SIZE)*m_iMPU) );
; 1377 : 		}
; 1378 : 	}
; 1379 : #endif
; 1380 : 
; 1381 : }

  004af	83 c4 14	 add	 esp, 20			; 00000014H
  004b2	c2 0c 00	 ret	 12			; 0000000cH
$L270484:
  004b5	5f		 pop	 edi

; 1337 : 		pTri[2].y -= (float)(HGT_NOWALK * n);

  004b6	dd d8		 fstp	 ST(0)
  004b8	5d		 pop	 ebp
  004b9	5b		 pop	 ebx
$L262867:
  004ba	5e		 pop	 esi

; 1338 : 	}
; 1339 : 	
; 1340 : #else
; 1341 : 	int lx=(int)(x/MAP_SIZE);
; 1342 : 	int lz=(int)(z/MAP_SIZE);
; 1343 : 	DWORD gx=(int)x-lx*MAP_SIZE;
; 1344 : 	DWORD gz=(int)z-lz*MAP_SIZE;
; 1345 : 	float glx=x-(int)x;
; 1346 : 	float glz=z-(int)z;
; 1347 : 
; 1348 : 	CLandscape* pLand = m_apLand[ lx + lz * m_nLandWidth ];
; 1349 : 	if( pLand == NULL ) return;
; 1350 : 
; 1351 : 	if((gx+gz)%2==0) {
; 1352 : 		if(glx>glz) {
; 1353 : 			//0,3,1
; 1354 : 			pTri[0]=D3DXVECTOR3( (FLOAT)( (gx  +lx*MAP_SIZE)*m_iMPU ), (FLOAT)( pLand->GetHeight(gx  ,gz  ) ), (FLOAT)( (gz  +lz*MAP_SIZE)*m_iMPU) );
; 1355 : 			pTri[1]=D3DXVECTOR3( (FLOAT)( (gx+1+lx*MAP_SIZE)*m_iMPU ), (FLOAT)( pLand->GetHeight(gx+1,gz+1) ), (FLOAT)( (gz+1+lz*MAP_SIZE)*m_iMPU) );
; 1356 : 			pTri[2]=D3DXVECTOR3( (FLOAT)( (gx+1+lx*MAP_SIZE)*m_iMPU ), (FLOAT)( pLand->GetHeight(gx+1,gz  ) ), (FLOAT)( (gz  +lz*MAP_SIZE)*m_iMPU) );
; 1357 : 		}
; 1358 : 		else {
; 1359 : 			//0,2,3
; 1360 : 			pTri[0]=D3DXVECTOR3( (FLOAT)( (gx  +lx*MAP_SIZE)*m_iMPU ), (FLOAT)( pLand->GetHeight(gx  ,gz  ) ), (FLOAT)( (gz  +lz*MAP_SIZE)*m_iMPU) );
; 1361 : 			pTri[1]=D3DXVECTOR3( (FLOAT)( (gx  +lx*MAP_SIZE)*m_iMPU ), (FLOAT)( pLand->GetHeight(gx  ,gz+1) ), (FLOAT)( (gz+1+lz*MAP_SIZE)*m_iMPU) );
; 1362 : 			pTri[2]=D3DXVECTOR3( (FLOAT)( (gx+1+lx*MAP_SIZE)*m_iMPU ), (FLOAT)( pLand->GetHeight(gx+1,gz+1) ), (FLOAT)( (gz+1+lz*MAP_SIZE)*m_iMPU) );
; 1363 : 		}
; 1364 : 	}
; 1365 : 	else {
; 1366 : 		if(glx+glz<1.0f) {
; 1367 : 			//0,2,1
; 1368 : 			pTri[0]=D3DXVECTOR3( (FLOAT)( (gx  +lx*MAP_SIZE)*m_iMPU ), (FLOAT)( pLand->GetHeight(gx  ,gz  ) ), (FLOAT)( (gz  +lz*MAP_SIZE)*m_iMPU) );
; 1369 : 			pTri[1]=D3DXVECTOR3( (FLOAT)( (gx  +lx*MAP_SIZE)*m_iMPU ), (FLOAT)( pLand->GetHeight(gx  ,gz+1) ), (FLOAT)( (gz+1+lz*MAP_SIZE)*m_iMPU) );
; 1370 : 			pTri[2]=D3DXVECTOR3( (FLOAT)( (gx+1+lx*MAP_SIZE)*m_iMPU ), (FLOAT)( pLand->GetHeight(gx+1,gz  ) ), (FLOAT)( (gz  +lz*MAP_SIZE)*m_iMPU) );
; 1371 : 		}
; 1372 : 		else {
; 1373 : 			//1,2,3
; 1374 : 			pTri[0]=D3DXVECTOR3( (FLOAT)( (gx+1+lx*MAP_SIZE)*m_iMPU ), (FLOAT)( pLand->GetHeight(gx+1,gz  ) ), (FLOAT)( (gz  +lz*MAP_SIZE)*m_iMPU) );
; 1375 : 			pTri[1]=D3DXVECTOR3( (FLOAT)( (gx  +lx*MAP_SIZE)*m_iMPU ), (FLOAT)( pLand->GetHeight(gx  ,gz+1) ), (FLOAT)( (gz+1+lz*MAP_SIZE)*m_iMPU) );
; 1376 : 			pTri[2]=D3DXVECTOR3( (FLOAT)( (gx+1+lx*MAP_SIZE)*m_iMPU ), (FLOAT)( pLand->GetHeight(gx+1,gz+1) ), (FLOAT)( (gz+1+lz*MAP_SIZE)*m_iMPU) );
; 1377 : 		}
; 1378 : 	}
; 1379 : #endif
; 1380 : 
; 1381 : }

  004bb	83 c4 14	 add	 esp, 20			; 00000014H
  004be	c2 0c 00	 ret	 12			; 0000000cH
?GetLandTri@CWorld@@QAEXMMPAUD3DXVECTOR3@@@Z ENDP	; CWorld::GetLandTri
_TEXT	ENDS
PUBLIC	?PreremoveObj@CWorld@@QAEHK@Z			; CWorld::PreremoveObj
; Function compile flags: /Ogty
;	COMDAT ?PreremoveObj@CWorld@@QAEHK@Z
_TEXT	SEGMENT
_objid$ = 8						; size = 4
?PreremoveObj@CWorld@@QAEHK@Z PROC NEAR			; CWorld::PreremoveObj, COMDAT
; _this$ = ecx

; 1403 : {

  00000	53		 push	 ebx
  00001	55		 push	 ebp
  00002	56		 push	 esi
  00003	57		 push	 edi
  00004	8b f9		 mov	 edi, ecx

; 1412 : 		}
; 1413 : 	}
; 1414 : 	return FALSE;

  00006	8b 9f 60 b0 05
	00		 mov	 ebx, DWORD PTR [edi+372832]
  0000c	33 f6		 xor	 esi, esi
  0000e	85 db		 test	 ebx, ebx
  00010	7e 33		 jle	 SHORT $L262887
  00012	8b 6c 24 14	 mov	 ebp, DWORD PTR _objid$[esp+12]
  00016	8d 97 64 b0 05
	00		 lea	 edx, DWORD PTR [edi+372836]
  0001c	8d 64 24 00	 npad	 4
$L270514:
  00020	8b 02		 mov	 eax, DWORD PTR [edx]
  00022	85 c0		 test	 eax, eax
  00024	74 17		 je	 SHORT $L262886
  00026	8b 88 70 01 00
	00		 mov	 ecx, DWORD PTR [eax+368]
  0002c	85 c9		 test	 ecx, ecx
  0002e	74 0d		 je	 SHORT $L262886

; 1406 : 	{
; 1407 : 		pObj	= m_apAddObjs[i];
; 1408 : 		if( pObj && pObj->IsDynamicObj() && ( (CCtrl*)pObj )->GetId() == objid )

  00030	83 f9 03	 cmp	 ecx, 3
  00033	74 08		 je	 SHORT $L262886
  00035	39 a8 bc 01 00
	00		 cmp	 DWORD PTR [eax+444], ebp
  0003b	74 11		 je	 SHORT $L270509
$L262886:

; 1404 : 	CObj* pObj;
; 1405 : 	for( int i = 0; i < m_cbAddObjs; i++ )

  0003d	46		 inc	 esi
  0003e	83 c2 04	 add	 edx, 4
  00041	3b f3		 cmp	 esi, ebx
  00043	7c db		 jl	 SHORT $L270514
$L262887:
  00045	5f		 pop	 edi
  00046	5e		 pop	 esi
  00047	5d		 pop	 ebp

; 1412 : 		}
; 1413 : 	}
; 1414 : 	return FALSE;

  00048	33 c0		 xor	 eax, eax
  0004a	5b		 pop	 ebx

; 1415 : }

  0004b	c2 04 00	 ret	 4
$L270509:

; 1409 : 		{
; 1410 : 			SAFE_DELETE( m_apAddObjs[i] );

  0004e	8b 8c b7 64 b0
	05 00		 mov	 ecx, DWORD PTR [edi+esi*4+372836]
  00055	85 c9		 test	 ecx, ecx
  00057	74 11		 je	 SHORT $L262890
  00059	8b 01		 mov	 eax, DWORD PTR [ecx]
  0005b	6a 01		 push	 1
  0005d	ff 10		 call	 DWORD PTR [eax]
  0005f	c7 84 b7 64 b0
	05 00 00 00 00
	00		 mov	 DWORD PTR [edi+esi*4+372836], 0
$L262890:
  0006a	5f		 pop	 edi
  0006b	5e		 pop	 esi
  0006c	5d		 pop	 ebp

; 1411 : 			return TRUE;

  0006d	b8 01 00 00 00	 mov	 eax, 1
  00072	5b		 pop	 ebx

; 1415 : }

  00073	c2 04 00	 ret	 4
?PreremoveObj@CWorld@@QAEHK@Z ENDP			; CWorld::PreremoveObj
_TEXT	ENDS
PUBLIC	?PregetObj@CWorld@@QAEPAVCObj@@K@Z		; CWorld::PregetObj
; Function compile flags: /Ogty
;	COMDAT ?PregetObj@CWorld@@QAEPAVCObj@@K@Z
_TEXT	SEGMENT
_objid$ = 8						; size = 4
?PregetObj@CWorld@@QAEPAVCObj@@K@Z PROC NEAR		; CWorld::PregetObj, COMDAT
; _this$ = ecx

; 1418 : {

  00000	53		 push	 ebx
  00001	56		 push	 esi
  00002	57		 push	 edi

; 1424 : 			return pObj;
; 1425 : 	}
; 1426 : 
; 1427 : 	return NULL;

  00003	8b b9 60 b0 05
	00		 mov	 edi, DWORD PTR [ecx+372832]
  00009	33 d2		 xor	 edx, edx
  0000b	85 ff		 test	 edi, edi
  0000d	7e 36		 jle	 SHORT $L262902
  0000f	8b 5c 24 10	 mov	 ebx, DWORD PTR _objid$[esp+8]
  00013	8d b1 64 b0 05
	00		 lea	 esi, DWORD PTR [ecx+372836]
  00019	8d a4 24 00 00
	00 00		 npad	 7
$L262900:
  00020	8b 06		 mov	 eax, DWORD PTR [esi]
  00022	85 c0		 test	 eax, eax
  00024	74 17		 je	 SHORT $L262901
  00026	8b 88 70 01 00
	00		 mov	 ecx, DWORD PTR [eax+368]
  0002c	85 c9		 test	 ecx, ecx
  0002e	74 0d		 je	 SHORT $L262901

; 1421 : 	{
; 1422 : 		pObj	= m_apAddObjs[i];
; 1423 : 		if( pObj && pObj->IsDynamicObj() && ( (CCtrl*)pObj )->GetId() == objid )

  00030	83 f9 03	 cmp	 ecx, 3
  00033	74 08		 je	 SHORT $L262901
  00035	39 98 bc 01 00
	00		 cmp	 DWORD PTR [eax+444], ebx
  0003b	74 0a		 je	 SHORT $L262897
$L262901:

; 1419 : 	CObj* pObj;
; 1420 : 	for( int i = 0; i < m_cbAddObjs; i++ )

  0003d	42		 inc	 edx
  0003e	83 c6 04	 add	 esi, 4
  00041	3b d7		 cmp	 edx, edi
  00043	7c db		 jl	 SHORT $L262900
$L262902:

; 1424 : 			return pObj;
; 1425 : 	}
; 1426 : 
; 1427 : 	return NULL;

  00045	33 c0		 xor	 eax, eax
$L262897:
  00047	5f		 pop	 edi
  00048	5e		 pop	 esi
  00049	5b		 pop	 ebx

; 1428 : }

  0004a	c2 04 00	 ret	 4
?PregetObj@CWorld@@QAEPAVCObj@@K@Z ENDP			; CWorld::PregetObj
_TEXT	ENDS
PUBLIC	?_add@CWorld@@AAEXXZ				; CWorld::_add
EXTRN	?g_DPCoreClient@@3VCDPCoreClient@@A:BYTE	; g_DPCoreClient
EXTRN	?GetInstance@CNpcChecker@@SAPAV1@XZ:NEAR	; CNpcChecker::GetInstance
EXTRN	?AddNpc@CNpcChecker@@QAEXPAVCObj@@@Z:NEAR	; CNpcChecker::AddNpc
EXTRN	?CheckIdStack@CDPCoreClient@@QAEHXZ:NEAR	; CDPCoreClient::CheckIdStack
; Function compile flags: /Ogty
;	COMDAT ?_add@CWorld@@AAEXXZ
_TEXT	SEGMENT
?_add@CWorld@@AAEXXZ PROC NEAR				; CWorld::_add, COMDAT
; _this$ = ecx

; 1431 : {

  00000	57		 push	 edi
  00001	8b f9		 mov	 edi, ecx

; 1432 : 	CObj* pObj;
; 1433 : 
; 1434 : 	if( g_DPCoreClient.CheckIdStack() == FALSE )

  00003	b9 00 00 00 00	 mov	 ecx, OFFSET FLAT:?g_DPCoreClient@@3VCDPCoreClient@@A
  00008	e8 00 00 00 00	 call	 ?CheckIdStack@CDPCoreClient@@QAEHXZ ; CDPCoreClient::CheckIdStack
  0000d	85 c0		 test	 eax, eax
  0000f	0f 84 a0 00 00
	00		 je	 $L262908

; 1435 : 	{
; 1436 : 		return;
; 1437 : 	}
; 1438 : 
; 1439 : 	for( int i = 0; i < m_cbAddObjs; i++ )

  00015	8b 87 60 b0 05
	00		 mov	 eax, DWORD PTR [edi+372832]
  0001b	53		 push	 ebx
  0001c	33 db		 xor	 ebx, ebx
  0001e	85 c0		 test	 eax, eax
  00020	0f 8e 84 00 00
	00		 jle	 $L262914
  00026	55		 push	 ebp
  00027	56		 push	 esi
  00028	8d af 64 f0 06
	00		 lea	 ebp, DWORD PTR [edi+454756]
  0002e	8b ff		 npad	 2
$L270557:

; 1440 : 	{
; 1441 : 		pObj	= m_apAddObjs[i];

  00030	8b b5 00 c0 fe
	ff		 mov	 esi, DWORD PTR [ebp-81920]

; 1442 : 		if( NULL == pObj )	

  00036	85 f6		 test	 esi, esi
  00038	74 60		 je	 SHORT $L262913

; 1443 : 			continue;
; 1444 : 
; 1445 : #ifdef __WORLDSERVER
; 1446 : 		if( !pObj->IsVirtual() )

  0003a	f6 46 04 04	 test	 BYTE PTR [esi+4], 4
  0003e	75 0c		 jne	 SHORT $L262917

; 1447 : #endif	// __WORLDSERVER
; 1448 : 		{
; 1449 : 			if( !InsertObjLink( pObj ))			//   (     )

  00040	56		 push	 esi
  00041	8b cf		 mov	 ecx, edi
  00043	e8 00 00 00 00	 call	 ?InsertObjLink@CWorld@@QAEHPAVCObj@@@Z ; CWorld::InsertObjLink
  00048	85 c0		 test	 eax, eax
  0004a	74 4e		 je	 SHORT $L262913
$L262917:

; 1450 : 				continue;
; 1451 : 		}
; 1452 : 
; 1453 : 		if( !AddObjArray( pObj ))			// m_apObject  .

  0004c	56		 push	 esi
  0004d	8b cf		 mov	 ecx, edi
  0004f	e8 00 00 00 00	 call	 ?AddObjArray@CWorld@@QAEHPAVCObj@@@Z ; CWorld::AddObjArray
  00054	85 c0		 test	 eax, eax
  00056	75 0a		 jne	 SHORT $L262918

; 1454 : 		{
; 1455 : 			RemoveObjLink( pObj );

  00058	56		 push	 esi
  00059	8b cf		 mov	 ecx, edi
  0005b	e8 00 00 00 00	 call	 ?RemoveObjLink@CWorld@@QAEHPAVCObj@@@Z ; CWorld::RemoveObjLink

; 1456 : 			continue;

  00060	eb 38		 jmp	 SHORT $L262913
$L262918:

; 1457 : 		}
; 1458 : 
; 1459 : #ifdef __WORLDSERVER
; 1460 : 		if( !pObj->IsVirtual() )

  00062	f6 46 04 04	 test	 BYTE PTR [esi+4], 4
  00066	75 25		 jne	 SHORT $L270552

; 1461 : #endif	// __WORLDSERVER
; 1462 : 		{
; 1463 : 			if( pObj->IsDynamicObj() ) 

  00068	8b 86 70 01 00
	00		 mov	 eax, DWORD PTR [esi+368]
  0006e	85 c0		 test	 eax, eax
  00070	74 1b		 je	 SHORT $L270552
  00072	83 f8 03	 cmp	 eax, 3
  00075	74 16		 je	 SHORT $L270552

; 1464 : 			{
; 1465 : 				if( m_bAddItToGlobalId[i] )

  00077	83 7d 00 00	 cmp	 DWORD PTR [ebp], 0
  0007b	74 07		 je	 SHORT $L262921

; 1466 : 					( (CCtrl*)pObj )->AddItToGlobalId();	// prj.m_objmap  prj.m_idPlayerToUserPtr .

  0007d	8b 06		 mov	 eax, DWORD PTR [esi]
  0007f	8b ce		 mov	 ecx, esi
  00081	ff 50 3c	 call	 DWORD PTR [eax+60]
$L262921:

; 1467 : 				AddItToView( (CCtrl*)pObj );

  00084	56		 push	 esi
  00085	8d 4f 24	 lea	 ecx, DWORD PTR [edi+36]
  00088	e8 00 00 00 00	 call	 ?AddItToView@CLayeredLinkMap@@QAEXPAVCCtrl@@@Z ; CLayeredLinkMap::AddItToView
$L270552:

; 1468 : 			}
; 1469 : 		}
; 1470 : #ifdef __WORLDSERVER
; 1471 : 		CNpcChecker::GetInstance()->AddNpc( pObj );

  0008d	56		 push	 esi
  0008e	e8 00 00 00 00	 call	 ?GetInstance@CNpcChecker@@SAPAV1@XZ ; CNpcChecker::GetInstance
  00093	8b c8		 mov	 ecx, eax
  00095	e8 00 00 00 00	 call	 ?AddNpc@CNpcChecker@@QAEXPAVCObj@@@Z ; CNpcChecker::AddNpc
$L262913:
  0009a	8b 87 60 b0 05
	00		 mov	 eax, DWORD PTR [edi+372832]
  000a0	43		 inc	 ebx
  000a1	83 c5 04	 add	 ebp, 4
  000a4	3b d8		 cmp	 ebx, eax
  000a6	7c 88		 jl	 SHORT $L270557
  000a8	5e		 pop	 esi
  000a9	5d		 pop	 ebp
$L262914:

; 1472 : #endif	// __WORLDSERVER
; 1473 : 	}
; 1474 : 	m_cbAddObjs		= 0;

  000aa	c7 87 60 b0 05
	00 00 00 00 00	 mov	 DWORD PTR [edi+372832], 0
  000b4	5b		 pop	 ebx
$L262908:
  000b5	5f		 pop	 edi

; 1475 : }

  000b6	c3		 ret	 0
?_add@CWorld@@AAEXXZ ENDP				; CWorld::_add
_TEXT	ENDS
PUBLIC	?_modifylink@CWorld@@AAEXXZ			; CWorld::_modifylink
PUBLIC	??_C@_0BI@FJJIKCGF@LINKMAP?5world?5different?$AA@ ; `string'
PUBLIC	??_C@_0P@JGKCBPBI@ML?1?1?$CFs?1?1?$CFd?1?1?$CFd?$AA@ ; `string'
PUBLIC	??_C@_0BG@ECAHOHBD@ML?1?1BINGO?1?1?$CFd?1?1?$CFd?1?1?$CFd?$AA@ ; `string'
EXTRN	?InsNextNode@CObj@@QAEXPAV1@@Z:NEAR		; CObj::InsNextNode
EXTRN	?DelNode@CObj@@QAEXXZ:NEAR			; CObj::DelNode
EXTRN	?GetLinkType@CObj@@QAEKXZ:NEAR			; CObj::GetLinkType
EXTRN	?GetName@CMover@@QAEPBDH@Z:NEAR			; CMover::GetName
;	COMDAT ??_C@_0BI@FJJIKCGF@LINKMAP?5world?5different?$AA@
CONST	SEGMENT
??_C@_0BI@FJJIKCGF@LINKMAP?5world?5different?$AA@ DB 'LINKMAP world diffe'
	DB	'rent', 00H					; `string'
CONST	ENDS
;	COMDAT ??_C@_0P@JGKCBPBI@ML?1?1?$CFs?1?1?$CFd?1?1?$CFd?$AA@
CONST	SEGMENT
??_C@_0P@JGKCBPBI@ML?1?1?$CFs?1?1?$CFd?1?1?$CFd?$AA@ DB 'ML//%s//%d//%d', 00H ; `string'
CONST	ENDS
;	COMDAT ??_C@_0BG@ECAHOHBD@ML?1?1BINGO?1?1?$CFd?1?1?$CFd?1?1?$CFd?$AA@
CONST	SEGMENT
??_C@_0BG@ECAHOHBD@ML?1?1BINGO?1?1?$CFd?1?1?$CFd?1?1?$CFd?$AA@ DB 'ML//BI'
	DB	'NGO//%d//%d//%d', 00H			; `string'
; Function compile flags: /Ogty
CONST	ENDS
;	COMDAT ?_modifylink@CWorld@@AAEXXZ
_TEXT	SEGMENT
_nLayer$262956 = -96					; size = 4
tv530 = -92						; size = 4
_i$262936 = -88						; size = 4
_vOld$ = -84						; size = 12
_vCur$ = -72						; size = 12
$T270563 = -60						; size = 12
$T270564 = -48						; size = 12
$T270566 = -36						; size = 12
_vCurtmp$ = -24						; size = 12
_vOldtmp$ = -12						; size = 12
?_modifylink@CWorld@@AAEXXZ PROC NEAR			; CWorld::_modifylink, COMDAT
; _this$ = ecx

; 1478 : {

  00000	55		 push	 ebp
  00001	8b ec		 mov	 ebp, esp
  00003	83 e4 f8	 and	 esp, -8			; fffffff8H
  00006	83 ec 60	 sub	 esp, 96			; 00000060H
  00009	53		 push	 ebx
  0000a	55		 push	 ebp
  0000b	56		 push	 esi
  0000c	57		 push	 edi
  0000d	8b f9		 mov	 edi, ecx

; 1479 : 	CObj* pObj, *pObjtmp;
; 1480 : 	D3DXVECTOR3 vOld, vCur, vOldtmp, vCurtmp;
; 1481 : 	int nLinkLevel;
; 1482 : 	DWORD dwLinkType;
; 1483 : 
; 1484 : 	for( int i = 0; i < m_cbModifyLink; i++ )

  0000f	8b 8f 58 00 05
	00		 mov	 ecx, DWORD PTR [edi+327768]
  00015	33 c0		 xor	 eax, eax
  00017	3b c8		 cmp	 ecx, eax
  00019	89 44 24 18	 mov	 DWORD PTR _i$262936[esp+112], eax
  0001d	0f 8e 1a 03 00
	00		 jle	 $L270719
  00023	8d 87 5c 00 05
	00		 lea	 eax, DWORD PTR [edi+327772]
  00029	89 44 24 14	 mov	 DWORD PTR tv530[esp+112], eax
  0002d	8d 49 00	 npad	 3
$L262937:

; 1485 : 	{
; 1486 : 		pObj	= m_apModifyLink[i];

  00030	8b 4c 24 14	 mov	 ecx, DWORD PTR tv530[esp+112]
  00034	8b 31		 mov	 esi, DWORD PTR [ecx]

; 1487 : 		if( IsInvalidObj( pObj ) )	

  00036	85 f6		 test	 esi, esi
  00038	0f 84 cb 02 00
	00		 je	 $L262938
  0003e	f6 46 04 01	 test	 BYTE PTR [esi+4], 1
  00042	0f 85 c1 02 00
	00		 jne	 $L262938

; 1488 : 			continue;
; 1489 : 
; 1490 : 		if( pObj->GetWorld() != this )

  00048	39 be 6c 01 00
	00		 cmp	 DWORD PTR [esi+364], edi
  0004e	74 12		 je	 SHORT $L262941

; 1491 : 		{
; 1492 : 			WriteError( "LINKMAP world different" );	// temp

  00050	68 00 00 00 00	 push	 OFFSET FLAT:??_C@_0BI@FJJIKCGF@LINKMAP?5world?5different?$AA@
  00055	e8 00 00 00 00	 call	 ?WriteError@@YAXPBDZZ	; WriteError
  0005a	83 c4 04	 add	 esp, 4

; 1493 : 			continue;

  0005d	e9 a7 02 00 00	 jmp	 $L262938
$L262941:

; 1494 : 		}
; 1495 : 
; 1496 : 		vOld	= pObj->GetLinkPos();
; 1497 : 		vCur	= pObj->GetRemovalPos();
; 1498 : 		vOldtmp		= vOld	/ (FLOAT)( m_iMPU );

  00062	db 47 14	 fild	 DWORD PTR [edi+20]
  00065	8d 86 ac 01 00
	00		 lea	 eax, DWORD PTR [esi+428]
  0006b	8b 10		 mov	 edx, DWORD PTR [eax]
  0006d	89 54 24 1c	 mov	 DWORD PTR _vOld$[esp+112], edx
  00071	d8 3d 00 00 00
	00		 fdivr	 DWORD PTR __real@3f800000
  00077	8b 48 04	 mov	 ecx, DWORD PTR [eax+4]
  0007a	89 4c 24 20	 mov	 DWORD PTR _vOld$[esp+116], ecx
  0007e	8b 50 08	 mov	 edx, DWORD PTR [eax+8]
  00081	89 54 24 24	 mov	 DWORD PTR _vOld$[esp+120], edx
  00085	8d 86 a0 01 00
	00		 lea	 eax, DWORD PTR [esi+416]
  0008b	8b 08		 mov	 ecx, DWORD PTR [eax]
  0008d	89 4c 24 28	 mov	 DWORD PTR _vCur$[esp+112], ecx
  00091	8b 50 04	 mov	 edx, DWORD PTR [eax+4]
  00094	89 54 24 2c	 mov	 DWORD PTR _vCur$[esp+116], edx
  00098	8b 40 08	 mov	 eax, DWORD PTR [eax+8]
  0009b	89 44 24 30	 mov	 DWORD PTR _vCur$[esp+120], eax
  0009f	d9 c0		 fld	 ST(0)
  000a1	d9 44 24 1c	 fld	 DWORD PTR _vOld$[esp+112]
  000a5	d8 c9		 fmul	 ST(0), ST(1)
  000a7	d9 5c 24 34	 fstp	 DWORD PTR $T270563[esp+112]
  000ab	8b 4c 24 34	 mov	 ecx, DWORD PTR $T270563[esp+112]
  000af	d9 44 24 20	 fld	 DWORD PTR _vOld$[esp+116]
  000b3	89 4c 24 64	 mov	 DWORD PTR _vOldtmp$[esp+112], ecx
  000b7	d8 c9		 fmul	 ST(0), ST(1)
  000b9	d9 5c 24 38	 fstp	 DWORD PTR $T270563[esp+116]
  000bd	8b 54 24 38	 mov	 edx, DWORD PTR $T270563[esp+116]
  000c1	d9 44 24 24	 fld	 DWORD PTR _vOld$[esp+120]
  000c5	89 54 24 68	 mov	 DWORD PTR _vOldtmp$[esp+116], edx
  000c9	d8 c9		 fmul	 ST(0), ST(1)
  000cb	d9 5c 24 3c	 fstp	 DWORD PTR $T270563[esp+120]
  000cf	8b 44 24 3c	 mov	 eax, DWORD PTR $T270563[esp+120]
  000d3	89 44 24 6c	 mov	 DWORD PTR _vOldtmp$[esp+120], eax
  000d7	dd d8		 fstp	 ST(0)

; 1499 : 		vCurtmp		= vCur / (FLOAT)( m_iMPU );

  000d9	d9 44 24 28	 fld	 DWORD PTR _vCur$[esp+112]
  000dd	d8 c9		 fmul	 ST(0), ST(1)
  000df	d9 5c 24 40	 fstp	 DWORD PTR $T270564[esp+112]
  000e3	8b 4c 24 40	 mov	 ecx, DWORD PTR $T270564[esp+112]
  000e7	d9 44 24 2c	 fld	 DWORD PTR _vCur$[esp+116]
  000eb	89 4c 24 58	 mov	 DWORD PTR _vCurtmp$[esp+112], ecx
  000ef	d8 c9		 fmul	 ST(0), ST(1)
  000f1	d9 5c 24 44	 fstp	 DWORD PTR $T270564[esp+116]
  000f5	8b 54 24 44	 mov	 edx, DWORD PTR $T270564[esp+116]
  000f9	d9 44 24 30	 fld	 DWORD PTR _vCur$[esp+120]
  000fd	89 54 24 5c	 mov	 DWORD PTR _vCurtmp$[esp+116], edx
  00101	d8 c9		 fmul	 ST(0), ST(1)
  00103	d9 5c 24 48	 fstp	 DWORD PTR $T270564[esp+120]
  00107	8b 44 24 48	 mov	 eax, DWORD PTR $T270564[esp+120]
  0010b	89 44 24 60	 mov	 DWORD PTR _vCurtmp$[esp+120], eax
  0010f	dd d8		 fstp	 ST(0)

; 1500 : 
; 1501 : 		if( (int)vOldtmp.x != (int)vCurtmp.x || (int)vOldtmp.z != (int)vCurtmp.z )

  00111	d9 44 24 58	 fld	 DWORD PTR _vCurtmp$[esp+112]
  00115	e8 00 00 00 00	 call	 __ftol2
  0011a	d9 44 24 64	 fld	 DWORD PTR _vOldtmp$[esp+112]
  0011e	8b d8		 mov	 ebx, eax
  00120	e8 00 00 00 00	 call	 __ftol2
  00125	3b c3		 cmp	 eax, ebx
  00127	75 1c		 jne	 SHORT $L262954
  00129	d9 44 24 60	 fld	 DWORD PTR _vCurtmp$[esp+120]
  0012d	e8 00 00 00 00	 call	 __ftol2
  00132	d9 44 24 6c	 fld	 DWORD PTR _vOldtmp$[esp+120]
  00136	8b d8		 mov	 ebx, eax
  00138	e8 00 00 00 00	 call	 __ftol2
  0013d	3b c3		 cmp	 eax, ebx
  0013f	0f 84 c4 01 00
	00		 je	 $L262938
$L262954:

; 1502 : 		{
; 1503 : 			dwLinkType	= pObj->GetLinkType();

  00145	8b ce		 mov	 ecx, esi
  00147	e8 00 00 00 00	 call	 ?GetLinkType@CObj@@QAEKXZ ; CObj::GetLinkType

; 1504 : 			nLinkLevel	= (int)pObj->GetLinkLevel();
; 1505 : #ifdef __LAYER_1015
; 1506 : 			int nLayer	= pObj->GetLayer();

  0014c	8b 8e b8 01 00
	00		 mov	 ecx, DWORD PTR [esi+440]
  00152	8b 6e 08	 mov	 ebp, DWORD PTR [esi+8]
  00155	8b d8		 mov	 ebx, eax

; 1507 : #endif	// __LAYER_1015
; 1508 : 
; 1509 : 			if( pObj->GetType() == OT_MOVER && ( (CMover*)pObj )->IsPlayer() && nLinkLevel != 0 )

  00157	83 be 70 01 00
	00 05		 cmp	 DWORD PTR [esi+368], 5
  0015e	89 4c 24 10	 mov	 DWORD PTR _nLayer$262956[esp+112], ecx
  00162	75 2d		 jne	 SHORT $L262958
  00164	8b 86 34 02 00
	00		 mov	 eax, DWORD PTR [esi+564]
  0016a	85 c0		 test	 eax, eax
  0016c	74 23		 je	 SHORT $L262958
  0016e	85 ed		 test	 ebp, ebp
  00170	74 1f		 je	 SHORT $L262958

; 1510 : 				WriteError( "ML//%s//%d//%d", ( (CMover*)pObj )->GetName(), ( (CMover*)pObj )->m_idPlayer, nLinkLevel );

  00172	8b 96 38 02 00
	00		 mov	 edx, DWORD PTR [esi+568]
  00178	55		 push	 ebp
  00179	52		 push	 edx
  0017a	6a 00		 push	 0
  0017c	8b ce		 mov	 ecx, esi
  0017e	e8 00 00 00 00	 call	 ?GetName@CMover@@QAEPBDH@Z ; CMover::GetName
  00183	50		 push	 eax
  00184	68 00 00 00 00	 push	 OFFSET FLAT:??_C@_0P@JGKCBPBI@ML?1?1?$CFs?1?1?$CFd?1?1?$CFd?$AA@
  00189	e8 00 00 00 00	 call	 ?WriteError@@YAXPBDZZ	; WriteError
  0018e	83 c4 10	 add	 esp, 16			; 00000010H
$L262958:

; 1511 : #ifdef __LAYER_1015
; 1512 : 			if( !pObj->m_pPrev && GetObjInLinkMap( vOld, dwLinkType, nLinkLevel, nLayer ) != pObj )

  00191	8b 86 7c 01 00
	00		 mov	 eax, DWORD PTR [esi+380]
  00197	85 c0		 test	 eax, eax
  00199	75 3f		 jne	 SHORT $L270665
  0019b	8b 44 24 10	 mov	 eax, DWORD PTR _nLayer$262956[esp+112]
  0019f	50		 push	 eax
  001a0	55		 push	 ebp
  001a1	53		 push	 ebx
  001a2	8d 4c 24 28	 lea	 ecx, DWORD PTR _vOld$[esp+124]
  001a6	51		 push	 ecx
  001a7	8b cf		 mov	 ecx, edi
  001a9	e8 00 00 00 00	 call	 ?GetObjInLinkMap@CWorld@@QAEPAVCObj@@ABUD3DXVECTOR3@@KHH@Z ; CWorld::GetObjInLinkMap
  001ae	3b c6		 cmp	 eax, esi
  001b0	74 28		 je	 SHORT $L270665

; 1513 : #else	// __LAYER_1015
; 1514 : 			if( !pObj->m_pPrev && GetObjInLinkMap( vOld, dwLinkType, nLinkLevel ) != pObj )
; 1515 : #endif	// __LAYER_1015
; 1516 : 			{
; 1517 : 				WriteError( "ML//BINGO//%d//%d//%d", pObj->GetType(), pObj->GetIndex(), pObj->GetLinkLevel() );

  001b2	8b 56 08	 mov	 edx, DWORD PTR [esi+8]
  001b5	8b 86 74 01 00
	00		 mov	 eax, DWORD PTR [esi+372]
  001bb	8b 8e 70 01 00
	00		 mov	 ecx, DWORD PTR [esi+368]
  001c1	52		 push	 edx
  001c2	50		 push	 eax
  001c3	51		 push	 ecx
  001c4	68 00 00 00 00	 push	 OFFSET FLAT:??_C@_0BG@ECAHOHBD@ML?1?1BINGO?1?1?$CFd?1?1?$CFd?1?1?$CFd?$AA@
  001c9	e8 00 00 00 00	 call	 ?WriteError@@YAXPBDZZ	; WriteError
  001ce	83 c4 10	 add	 esp, 16			; 00000010H

; 1518 : 				RemoveObjLink2( pObj );

  001d1	56		 push	 esi
  001d2	8d 4f 24	 lea	 ecx, DWORD PTR [edi+36]
  001d5	e8 00 00 00 00	 call	 ?RemoveObjLink2@CLayeredLinkMap@@QAEHPAVCObj@@@Z ; CLayeredLinkMap::RemoveObjLink2
$L270665:

; 1519 : 			}
; 1520 : 
; 1521 : #ifdef __LAYER_1015
; 1522 : 			if( GetObjInLinkMap( vOld, dwLinkType, nLinkLevel, nLayer ) == pObj )

  001da	d9 44 24 20	 fld	 DWORD PTR _vOld$[esp+116]
  001de	83 ec 08	 sub	 esp, 8
  001e1	dd 1c 24	 fstp	 QWORD PTR [esp]
  001e4	e8 00 00 00 00	 call	 __isnan
  001e9	83 c4 08	 add	 esp, 8
  001ec	85 c0		 test	 eax, eax
  001ee	75 15		 jne	 SHORT $L270716
  001f0	8b 54 24 24	 mov	 edx, DWORD PTR _vOld$[esp+120]
  001f4	8b 44 24 1c	 mov	 eax, DWORD PTR _vOld$[esp+112]
  001f8	52		 push	 edx
  001f9	50		 push	 eax
  001fa	8b cf		 mov	 ecx, edi
  001fc	e8 00 00 00 00	 call	 ?VecInWorld@CWorld@@QAEHMM@Z ; CWorld::VecInWorld
  00201	85 c0		 test	 eax, eax
  00203	75 04		 jne	 SHORT $L270677
$L270716:
  00205	33 c0		 xor	 eax, eax
  00207	eb 14		 jmp	 SHORT $L270676
$L270677:
  00209	8b 4c 24 10	 mov	 ecx, DWORD PTR _nLayer$262956[esp+112]
  0020d	51		 push	 ecx
  0020e	55		 push	 ebp
  0020f	53		 push	 ebx
  00210	8d 54 24 28	 lea	 edx, DWORD PTR _vOld$[esp+124]
  00214	52		 push	 edx
  00215	8d 4f 24	 lea	 ecx, DWORD PTR [edi+36]
  00218	e8 00 00 00 00	 call	 ?GetObjInLinkMap@CLayeredLinkMap@@QAEPAVCObj@@ABUD3DXVECTOR3@@KHH@Z ; CLayeredLinkMap::GetObjInLinkMap
$L270676:
  0021d	3b c6		 cmp	 eax, esi
  0021f	75 1a		 jne	 SHORT $L262964

; 1523 : 				SetObjInLinkMap( vOld, dwLinkType, nLinkLevel, pObj->m_pNext, nLayer );

  00221	8b 44 24 10	 mov	 eax, DWORD PTR _nLayer$262956[esp+112]
  00225	8b 8e 80 01 00
	00		 mov	 ecx, DWORD PTR [esi+384]
  0022b	50		 push	 eax
  0022c	51		 push	 ecx
  0022d	55		 push	 ebp
  0022e	53		 push	 ebx
  0022f	8d 54 24 2c	 lea	 edx, DWORD PTR _vOld$[esp+128]
  00233	52		 push	 edx
  00234	8b cf		 mov	 ecx, edi
  00236	e8 00 00 00 00	 call	 ?SetObjInLinkMap@CWorld@@QAEHABUD3DXVECTOR3@@KHPAVCObj@@H@Z ; CWorld::SetObjInLinkMap
$L262964:

; 1524 : #else	// __LAYER_1015
; 1525 : 			if( GetObjInLinkMap( vOld, dwLinkType, nLinkLevel ) == pObj )
; 1526 : 				SetObjInLinkMap( vOld, dwLinkType, nLinkLevel, pObj->m_pNext );
; 1527 : #endif	// __LAYER_1015
; 1528 : 			pObj->DelNode();

  0023b	8b ce		 mov	 ecx, esi
  0023d	e8 00 00 00 00	 call	 ?DelNode@CObj@@QAEXXZ	; CObj::DelNode

; 1529 : 
; 1530 : #ifdef __LAYER_1015
; 1531 : 			if( ( pObjtmp = GetObjInLinkMap( vCur, dwLinkType, nLinkLevel, nLayer ) ) )

  00242	d9 44 24 2c	 fld	 DWORD PTR _vCur$[esp+116]
  00246	83 ec 08	 sub	 esp, 8
  00249	dd 1c 24	 fstp	 QWORD PTR [esp]
  0024c	e8 00 00 00 00	 call	 __isnan
  00251	83 c4 08	 add	 esp, 8
  00254	85 c0		 test	 eax, eax
  00256	75 37		 jne	 SHORT $L262965
  00258	8b 44 24 30	 mov	 eax, DWORD PTR _vCur$[esp+120]
  0025c	8b 4c 24 28	 mov	 ecx, DWORD PTR _vCur$[esp+112]
  00260	50		 push	 eax
  00261	51		 push	 ecx
  00262	8b cf		 mov	 ecx, edi
  00264	e8 00 00 00 00	 call	 ?VecInWorld@CWorld@@QAEHMM@Z ; CWorld::VecInWorld
  00269	85 c0		 test	 eax, eax
  0026b	74 22		 je	 SHORT $L262965
  0026d	8b 54 24 10	 mov	 edx, DWORD PTR _nLayer$262956[esp+112]
  00271	52		 push	 edx
  00272	55		 push	 ebp
  00273	53		 push	 ebx
  00274	8d 44 24 34	 lea	 eax, DWORD PTR _vCur$[esp+124]
  00278	50		 push	 eax
  00279	8d 4f 24	 lea	 ecx, DWORD PTR [edi+36]
  0027c	e8 00 00 00 00	 call	 ?GetObjInLinkMap@CLayeredLinkMap@@QAEPAVCObj@@ABUD3DXVECTOR3@@KHH@Z ; CLayeredLinkMap::GetObjInLinkMap
  00281	85 c0		 test	 eax, eax
  00283	74 0a		 je	 SHORT $L262965

; 1532 : 				pObjtmp->InsNextNode( pObj );

  00285	56		 push	 esi
  00286	8b c8		 mov	 ecx, eax
  00288	e8 00 00 00 00	 call	 ?InsNextNode@CObj@@QAEXPAV1@@Z ; CObj::InsNextNode

; 1533 : 			else

  0028d	eb 14		 jmp	 SHORT $L262966
$L262965:

; 1534 : 				SetObjInLinkMap( vCur, dwLinkType, nLinkLevel, pObj, nLayer );

  0028f	8b 4c 24 10	 mov	 ecx, DWORD PTR _nLayer$262956[esp+112]
  00293	51		 push	 ecx
  00294	56		 push	 esi
  00295	55		 push	 ebp
  00296	53		 push	 ebx
  00297	8d 54 24 38	 lea	 edx, DWORD PTR _vCur$[esp+128]
  0029b	52		 push	 edx
  0029c	8b cf		 mov	 ecx, edi
  0029e	e8 00 00 00 00	 call	 ?SetObjInLinkMap@CWorld@@QAEHABUD3DXVECTOR3@@KHPAVCObj@@H@Z ; CWorld::SetObjInLinkMap
$L262966:

; 1535 : #else	// __LAYER_1015
; 1536 : 			if( ( pObjtmp = GetObjInLinkMap( vCur, dwLinkType, nLinkLevel ) ) )
; 1537 : 				pObjtmp->InsNextNode( pObj );
; 1538 : 			else
; 1539 : 				SetObjInLinkMap( vCur, dwLinkType, nLinkLevel, pObj );
; 1540 : #endif	// __LAYER_1015
; 1541 : 
; 1542 : 			pObj->SetLinkPos( pObj->GetRemovalPos() );

  002a3	8d 86 a0 01 00
	00		 lea	 eax, DWORD PTR [esi+416]
  002a9	8b c8		 mov	 ecx, eax
  002ab	8b 11		 mov	 edx, DWORD PTR [ecx]
  002ad	89 96 ac 01 00
	00		 mov	 DWORD PTR [esi+428], edx
  002b3	8b 51 04	 mov	 edx, DWORD PTR [ecx+4]
  002b6	8b 49 08	 mov	 ecx, DWORD PTR [ecx+8]
  002b9	89 96 b0 01 00
	00		 mov	 DWORD PTR [esi+432], edx

; 1543 : 			pObj->SetRemovalPos( D3DXVECTOR3( 0, 0, 0 ) );

  002bf	c7 44 24 4c 00
	00 00 00	 mov	 DWORD PTR $T270566[esp+112], 0
  002c7	8b 54 24 4c	 mov	 edx, DWORD PTR $T270566[esp+112]
  002cb	89 10		 mov	 DWORD PTR [eax], edx
  002cd	89 8e b4 01 00
	00		 mov	 DWORD PTR [esi+436], ecx
  002d3	c7 44 24 50 00
	00 00 00	 mov	 DWORD PTR $T270566[esp+116], 0
  002db	8b 4c 24 50	 mov	 ecx, DWORD PTR $T270566[esp+116]
  002df	c7 44 24 54 00
	00 00 00	 mov	 DWORD PTR $T270566[esp+120], 0
  002e7	8b 54 24 54	 mov	 edx, DWORD PTR $T270566[esp+120]
  002eb	89 48 04	 mov	 DWORD PTR [eax+4], ecx
  002ee	89 50 08	 mov	 DWORD PTR [eax+8], edx

; 1544 : 
; 1545 : 			if( pObj->IsDynamicObj() )

  002f1	8b 86 70 01 00
	00		 mov	 eax, DWORD PTR [esi+368]
  002f7	85 c0		 test	 eax, eax
  002f9	74 0e		 je	 SHORT $L262938
  002fb	83 f8 03	 cmp	 eax, 3
  002fe	74 09		 je	 SHORT $L262938

; 1546 : 				ModifyView( ( CCtrl* )pObj );

  00300	56		 push	 esi
  00301	8d 4f 24	 lea	 ecx, DWORD PTR [edi+36]
  00304	e8 00 00 00 00	 call	 ?ModifyView@CLayeredLinkMap@@QAEXPAVCCtrl@@@Z ; CLayeredLinkMap::ModifyView
$L262938:
  00309	8b 44 24 18	 mov	 eax, DWORD PTR _i$262936[esp+112]
  0030d	8b 54 24 14	 mov	 edx, DWORD PTR tv530[esp+112]
  00311	8b 8f 58 00 05
	00		 mov	 ecx, DWORD PTR [edi+327768]
  00317	40		 inc	 eax
  00318	83 c2 04	 add	 edx, 4
  0031b	3b c1		 cmp	 eax, ecx
  0031d	89 44 24 18	 mov	 DWORD PTR _i$262936[esp+112], eax
  00321	89 54 24 14	 mov	 DWORD PTR tv530[esp+112], edx
  00325	0f 8c 05 fd ff
	ff		 jl	 $L262937

; 1547 : 		}
; 1548 : 	}
; 1549 : 	m_cbModifyLink	= 0;

  0032b	c7 87 58 00 05
	00 00 00 00 00	 mov	 DWORD PTR [edi+327768], 0

; 1550 : }

  00335	5f		 pop	 edi
  00336	5e		 pop	 esi
  00337	5d		 pop	 ebp
  00338	5b		 pop	 ebx
  00339	8b e5		 mov	 esp, ebp
  0033b	5d		 pop	 ebp
  0033c	c3		 ret	 0
$L270719:

; 1547 : 		}
; 1548 : 	}
; 1549 : 	m_cbModifyLink	= 0;

  0033d	89 87 58 00 05
	00		 mov	 DWORD PTR [edi+327768], eax

; 1550 : }

  00343	5f		 pop	 edi
  00344	5e		 pop	 esi
  00345	5d		 pop	 ebp
  00346	5b		 pop	 ebx
  00347	8b e5		 mov	 esp, ebp
  00349	5d		 pop	 ebp
  0034a	c3		 ret	 0
?_modifylink@CWorld@@AAEXXZ ENDP			; CWorld::_modifylink
_TEXT	ENDS
PUBLIC	?DestroyObj@CWorld@@QAEXPAVCObj@@@Z		; CWorld::DestroyObj
EXTRN	?RemoveNpc@CNpcChecker@@QAEXPAVCObj@@@Z:NEAR	; CNpcChecker::RemoveNpc
; Function compile flags: /Ogty
;	COMDAT ?DestroyObj@CWorld@@QAEXPAVCObj@@@Z
_TEXT	SEGMENT
_pObj$ = 8						; size = 4
?DestroyObj@CWorld@@QAEXPAVCObj@@@Z PROC NEAR		; CWorld::DestroyObj, COMDAT
; _this$ = ecx

; 1585 : {

  00000	56		 push	 esi

; 1586 : 	RemoveObjArray( pObj );

  00001	8b 74 24 08	 mov	 esi, DWORD PTR _pObj$[esp]
  00005	56		 push	 esi
  00006	e8 00 00 00 00	 call	 ?RemoveObjArray@CWorld@@QAEXPAVCObj@@@Z ; CWorld::RemoveObjArray

; 1587 : #ifdef __WORLDSERVER
; 1588 : 	CNpcChecker::GetInstance()->RemoveNpc( pObj );

  0000b	56		 push	 esi
  0000c	e8 00 00 00 00	 call	 ?GetInstance@CNpcChecker@@SAPAV1@XZ ; CNpcChecker::GetInstance
  00011	8b c8		 mov	 ecx, eax
  00013	e8 00 00 00 00	 call	 ?RemoveNpc@CNpcChecker@@QAEXPAVCObj@@@Z ; CNpcChecker::RemoveNpc

; 1589 : #endif	// __WORLDSERVER
; 1590 : 	SAFE_DELETE( pObj );

  00018	85 f6		 test	 esi, esi
  0001a	74 08		 je	 SHORT $L270728
  0001c	8b 06		 mov	 eax, DWORD PTR [esi]
  0001e	6a 01		 push	 1
  00020	8b ce		 mov	 ecx, esi
  00022	ff 10		 call	 DWORD PTR [eax]
$L270728:
  00024	5e		 pop	 esi

; 1591 : }

  00025	c2 04 00	 ret	 4
?DestroyObj@CWorld@@QAEXPAVCObj@@@Z ENDP		; CWorld::DestroyObj
_TEXT	ENDS
PUBLIC	?_process@CWorld@@AAEXXZ			; CWorld::_process
; Function compile flags: /Ogty
;	COMDAT ?_process@CWorld@@AAEXXZ
_TEXT	SEGMENT
?_process@CWorld@@AAEXXZ PROC NEAR			; CWorld::_process, COMDAT
; _this$ = ecx

; 1712 : {

  00000	55		 push	 ebp
  00001	8b e9		 mov	 ebp, ecx

; 1713 : 	CObj* pObj;
; 1714 : 	for( DWORD i = 0; i < m_dwObjNum; i++ )

  00003	8b 45 44	 mov	 eax, DWORD PTR [ebp+68]
  00006	57		 push	 edi
  00007	33 ff		 xor	 edi, edi
  00009	85 c0		 test	 eax, eax
  0000b	76 2a		 jbe	 SHORT $L263050
  0000d	56		 push	 esi
  0000e	8d 75 48	 lea	 esi, DWORD PTR [ebp+72]
$L270738:

; 1715 : 	{
; 1716 : 		pObj	= m_apObject[i];

  00011	8b 0e		 mov	 ecx, DWORD PTR [esi]

; 1717 : 		if( pObj && !pObj->IsDelete() && pObj->m_dwObjAryIdx != 0xffffffff )

  00013	85 c9		 test	 ecx, ecx
  00015	74 14		 je	 SHORT $L263049
  00017	f6 41 04 01	 test	 BYTE PTR [ecx+4], 1
  0001b	75 0e		 jne	 SHORT $L263049
  0001d	83 b9 84 01 00
	00 ff		 cmp	 DWORD PTR [ecx+388], -1
  00024	74 05		 je	 SHORT $L263049

; 1718 : 			pObj->Process();

  00026	8b 01		 mov	 eax, DWORD PTR [ecx]
  00028	ff 50 18	 call	 DWORD PTR [eax+24]
$L263049:
  0002b	8b 45 44	 mov	 eax, DWORD PTR [ebp+68]
  0002e	47		 inc	 edi
  0002f	83 c6 04	 add	 esi, 4
  00032	3b f8		 cmp	 edi, eax
  00034	72 db		 jb	 SHORT $L270738
  00036	5e		 pop	 esi
$L263050:
  00037	5f		 pop	 edi
  00038	5d		 pop	 ebp

; 1719 : 	}
; 1720 : }

  00039	c3		 ret	 0
?_process@CWorld@@AAEXXZ ENDP				; CWorld::_process
_TEXT	ENDS
PUBLIC	?GetHeightAttribute@CWorld@@QAEHMM@Z		; CWorld::GetHeightAttribute
PUBLIC	__real@457a0000
PUBLIC	__real@453b8000
PUBLIC	__real@44fa0000
;	COMDAT __real@457a0000
CONST	SEGMENT
__real@457a0000 DD 0457a0000r			; 4000
CONST	ENDS
;	COMDAT __real@453b8000
CONST	SEGMENT
__real@453b8000 DD 0453b8000r			; 3000
CONST	ENDS
;	COMDAT __real@44fa0000
CONST	SEGMENT
__real@44fa0000 DD 044fa0000r			; 2000
; Function compile flags: /Ogty
CONST	ENDS
;	COMDAT ?GetHeightAttribute@CWorld@@QAEHMM@Z
_TEXT	SEGMENT
_x$ = 8							; size = 4
_fHeight$ = 12						; size = 4
_z$ = 12						; size = 4
?GetHeightAttribute@CWorld@@QAEHMM@Z PROC NEAR		; CWorld::GetHeightAttribute, COMDAT
; _this$ = ecx

; 1770 : 	if( VecInWorld( x, z ) == FALSE )

  00000	8b 44 24 08	 mov	 eax, DWORD PTR _z$[esp-4]
  00004	56		 push	 esi
  00005	8b f1		 mov	 esi, ecx
  00007	8b 4c 24 08	 mov	 ecx, DWORD PTR _x$[esp]
  0000b	50		 push	 eax
  0000c	51		 push	 ecx
  0000d	8b ce		 mov	 ecx, esi
  0000f	e8 00 00 00 00	 call	 ?VecInWorld@CWorld@@QAEHMM@Z ; CWorld::VecInWorld
  00014	85 c0		 test	 eax, eax
  00016	75 07		 jne	 SHORT $L263057

; 1771 : 		return -1;

  00018	83 c8 ff	 or	 eax, -1
  0001b	5e		 pop	 esi

; 1790 : }

  0001c	c2 08 00	 ret	 8
$L263057:

; 1772 : 
; 1773 : 	float inv_mpu = 1.0f / (float)m_iMPU;

  0001f	db 46 14	 fild	 DWORD PTR [esi+20]
  00022	57		 push	 edi
  00023	d8 3d 00 00 00
	00		 fdivr	 DWORD PTR __real@3f800000

; 1774 : 
; 1775 : 	x *= inv_mpu; //x /= MPU;
; 1776 : 	z *= inv_mpu; //z /= MPU;

  00029	d9 44 24 10	 fld	 DWORD PTR _z$[esp+4]
  0002d	d8 c9		 fmul	 ST(0), ST(1)

; 1777 : 
; 1778 : 	FLOAT fHeight = m_apHeightMap[ (int)x + (int)z * WORLD_WIDTH ]; //WORLD_WIDTH = MAP_SIZE * m_nLandWidth

  0002f	e8 00 00 00 00	 call	 __ftol2
  00034	d8 4c 24 0c	 fmul	 DWORD PTR _x$[esp+4]
  00038	8b f8		 mov	 edi, eax
  0003a	0f af 7e 0c	 imul	 edi, DWORD PTR [esi+12]
  0003e	e8 00 00 00 00	 call	 __ftol2
  00043	8b 56 1c	 mov	 edx, DWORD PTR [esi+28]
  00046	03 f8		 add	 edi, eax
  00048	d9 04 ba	 fld	 DWORD PTR [edx+edi*4]
  0004b	5f		 pop	 edi
  0004c	d9 54 24 0c	 fst	 DWORD PTR _fHeight$[esp]

; 1779 : 	if( fHeight >= HGT_NOWALK )

  00050	d8 1d 00 00 00
	00		 fcomp	 DWORD PTR __real@447a0000
  00056	df e0		 fnstsw	 ax
  00058	f6 c4 01	 test	 ah, 1
  0005b	75 57		 jne	 SHORT $L263063

; 1780 : 	{
; 1781 : 		if( fHeight >= HGT_DIE )

  0005d	d9 44 24 0c	 fld	 DWORD PTR _fHeight$[esp]
  00061	d8 1d 00 00 00
	00		 fcomp	 DWORD PTR __real@457a0000
  00067	df e0		 fnstsw	 ax
  00069	f6 c4 01	 test	 ah, 1
  0006c	75 09		 jne	 SHORT $L263064

; 1782 : 			return HATTR_DIE;

  0006e	b8 04 00 00 00	 mov	 eax, 4
  00073	5e		 pop	 esi

; 1790 : }

  00074	c2 08 00	 ret	 8
$L263064:

; 1783 : 		if( fHeight >= HGT_NOMOVE )

  00077	d9 44 24 0c	 fld	 DWORD PTR _fHeight$[esp]
  0007b	d8 1d 00 00 00
	00		 fcomp	 DWORD PTR __real@453b8000
  00081	df e0		 fnstsw	 ax
  00083	f6 c4 01	 test	 ah, 1
  00086	75 09		 jne	 SHORT $L263065

; 1784 : 			return HATTR_NOMOVE;

  00088	b8 03 00 00 00	 mov	 eax, 3
  0008d	5e		 pop	 esi

; 1790 : }

  0008e	c2 08 00	 ret	 8
$L263065:

; 1785 : 		if( fHeight >= HGT_NOFLY )

  00091	d9 44 24 0c	 fld	 DWORD PTR _fHeight$[esp]
  00095	d8 1d 00 00 00
	00		 fcomp	 DWORD PTR __real@44fa0000
  0009b	df e0		 fnstsw	 ax
  0009d	f6 c4 01	 test	 ah, 1
  000a0	75 09		 jne	 SHORT $L263066

; 1786 : 			return HATTR_NOFLY;

  000a2	b8 02 00 00 00	 mov	 eax, 2
  000a7	5e		 pop	 esi

; 1790 : }

  000a8	c2 08 00	 ret	 8
$L263066:

; 1787 : 		return HATTR_NOWALK;

  000ab	b8 01 00 00 00	 mov	 eax, 1
  000b0	5e		 pop	 esi

; 1790 : }

  000b1	c2 08 00	 ret	 8
$L263063:

; 1788 : 	}
; 1789 : 	return HATTR_NONE;

  000b4	33 c0		 xor	 eax, eax
  000b6	5e		 pop	 esi

; 1790 : }

  000b7	c2 08 00	 ret	 8
?GetHeightAttribute@CWorld@@QAEHMM@Z ENDP		; CWorld::GetHeightAttribute
_TEXT	ENDS
PUBLIC	?GetWaterHeight@CWorld@@QAEPAUWATERHEIGHT@@HH@Z	; CWorld::GetWaterHeight
; Function compile flags: /Ogty
;	COMDAT ?GetWaterHeight@CWorld@@QAEPAUWATERHEIGHT@@HH@Z
_TEXT	SEGMENT
_x$ = 8							; size = 4
_z$ = 12						; size = 4
?GetWaterHeight@CWorld@@QAEPAUWATERHEIGHT@@HH@Z PROC NEAR ; CWorld::GetWaterHeight, COMDAT
; _this$ = ecx

; 1793 : 	if( VecInWorld( (float)( x ), (float)( z ) ) == FALSE )

  00000	db 44 24 08	 fild	 DWORD PTR _z$[esp-4]
  00004	56		 push	 esi
  00005	83 ec 08	 sub	 esp, 8
  00008	8b f1		 mov	 esi, ecx
  0000a	d9 5c 24 04	 fstp	 DWORD PTR [esp+4]
  0000e	db 44 24 10	 fild	 DWORD PTR _x$[esp+8]
  00012	d9 1c 24	 fstp	 DWORD PTR [esp]
  00015	e8 00 00 00 00	 call	 ?VecInWorld@CWorld@@QAEHMM@Z ; CWorld::VecInWorld
  0001a	85 c0		 test	 eax, eax
  0001c	75 04		 jne	 SHORT $L263074
  0001e	5e		 pop	 esi

; 1804 : }

  0001f	c2 08 00	 ret	 8
$L263074:

; 1794 : 		return NULL;
; 1795 : 
; 1796 : 	x /= m_iMPU;
; 1797 : 	z /= m_iMPU;

  00022	8b 44 24 0c	 mov	 eax, DWORD PTR _z$[esp]
  00026	8b 4e 14	 mov	 ecx, DWORD PTR [esi+20]
  00029	99		 cdq
  0002a	f7 f9		 idiv	 ecx
  0002c	57		 push	 edi

; 1798 : 
; 1799 : 	int tx = x / PATCH_SIZE;
; 1800 : 	int tz = z / PATCH_SIZE;

  0002d	99		 cdq
  0002e	83 e2 07	 and	 edx, 7
  00031	03 c2		 add	 eax, edx
  00033	8b f8		 mov	 edi, eax
  00035	8b 44 24 0c	 mov	 eax, DWORD PTR _x$[esp+4]
  00039	99		 cdq
  0003a	f7 f9		 idiv	 ecx
  0003c	c1 ff 03	 sar	 edi, 3

; 1801 : 
; 1802 : 	LPWATERHEIGHT lpWaterHeight = &m_apWaterHeight[ tx + tz * ( NUM_PATCHES_PER_SIDE * m_nLandWidth ) ];
; 1803 : 	return lpWaterHeight;

  0003f	0f af 7e 04	 imul	 edi, DWORD PTR [esi+4]
  00043	c1 e7 04	 shl	 edi, 4
  00046	99		 cdq
  00047	83 e2 07	 and	 edx, 7
  0004a	03 c2		 add	 eax, edx
  0004c	c1 f8 03	 sar	 eax, 3
  0004f	03 f8		 add	 edi, eax
  00051	8b 46 20	 mov	 eax, DWORD PTR [esi+32]
  00054	8d 04 78	 lea	 eax, DWORD PTR [eax+edi*2]
  00057	5f		 pop	 edi
  00058	5e		 pop	 esi

; 1804 : }

  00059	c2 08 00	 ret	 8
?GetWaterHeight@CWorld@@QAEPAUWATERHEIGHT@@HH@Z ENDP	; CWorld::GetWaterHeight
_TEXT	ENDS
PUBLIC	?FindMover@CWorld@@QAEPAVCMover@@PBD@Z		; CWorld::FindMover
; Function compile flags: /Ogty
;	COMDAT ?FindMover@CWorld@@QAEPAVCMover@@PBD@Z
_TEXT	SEGMENT
_szName$ = 8						; size = 4
?FindMover@CWorld@@QAEPAVCMover@@PBD@Z PROC NEAR	; CWorld::FindMover, COMDAT
; _this$ = ecx

; 1993 : {

  00000	53		 push	 ebx
  00001	55		 push	 ebp
  00002	8b e9		 mov	 ebp, ecx

; 1994 : 	CMover* pMover;
; 1995 : 	for( DWORD i = 0; i < m_dwObjNum; i++ )

  00004	8b 45 44	 mov	 eax, DWORD PTR [ebp+68]
  00007	56		 push	 esi
  00008	33 db		 xor	 ebx, ebx
  0000a	85 c0		 test	 eax, eax
  0000c	57		 push	 edi
  0000d	76 38		 jbe	 SHORT $L263251
  0000f	8d 7d 48	 lea	 edi, DWORD PTR [ebp+72]
$L270765:

; 1996 : 	{
; 1997 : 		if( m_apObject[ i ] && m_apObject[ i ]->GetType() == OT_MOVER )

  00012	8b 37		 mov	 esi, DWORD PTR [edi]
  00014	85 f6		 test	 esi, esi
  00016	74 24		 je	 SHORT $L263250
  00018	83 be 70 01 00
	00 05		 cmp	 DWORD PTR [esi+368], 5
  0001f	75 1b		 jne	 SHORT $L263250

; 1998 : 		{
; 1999 : 			pMover = (CMover*)m_apObject[ i ];
; 2000 : 			if( _tcscmp( pMover->GetName(), szName ) == NULL )

  00021	6a 00		 push	 0
  00023	8b ce		 mov	 ecx, esi
  00025	e8 00 00 00 00	 call	 ?GetName@CMover@@QAEPBDH@Z ; CMover::GetName
  0002a	8b 4c 24 14	 mov	 ecx, DWORD PTR _szName$[esp+12]
  0002e	51		 push	 ecx
  0002f	50		 push	 eax
  00030	e8 00 00 00 00	 call	 __mbscmp
  00035	83 c4 08	 add	 esp, 8
  00038	85 c0		 test	 eax, eax
  0003a	74 14		 je	 SHORT $L270763
$L263250:

; 1994 : 	CMover* pMover;
; 1995 : 	for( DWORD i = 0; i < m_dwObjNum; i++ )

  0003c	8b 45 44	 mov	 eax, DWORD PTR [ebp+68]
  0003f	43		 inc	 ebx
  00040	83 c7 04	 add	 edi, 4
  00043	3b d8		 cmp	 ebx, eax
  00045	72 cb		 jb	 SHORT $L270765
$L263251:
  00047	5f		 pop	 edi
  00048	5e		 pop	 esi
  00049	5d		 pop	 ebp

; 2002 : 		}
; 2003 : 	}
; 2004 : 
; 2005 : 	return NULL;

  0004a	33 c0		 xor	 eax, eax
  0004c	5b		 pop	 ebx

; 2006 : }

  0004d	c2 04 00	 ret	 4
$L270763:
  00050	5f		 pop	 edi

; 2001 : 				return pMover;

  00051	8b c6		 mov	 eax, esi
  00053	5e		 pop	 esi
  00054	5d		 pop	 ebp
  00055	5b		 pop	 ebx

; 2006 : }

  00056	c2 04 00	 ret	 4
?FindMover@CWorld@@QAEPAVCMover@@PBD@Z ENDP		; CWorld::FindMover
_TEXT	ENDS
PUBLIC	?Expand@CWorld@@QAEXXZ				; CWorld::Expand
EXTRN	?CreateLayer@CWorld@@QAEHH@Z:NEAR		; CWorld::CreateLayer
EXTRN	?Expand@CLayerdRespawner@@QAEXH@Z:NEAR		; CLayerdRespawner::Expand
EXTRN	?GetInstance@CTicketProperty@@SAPAV1@XZ:NEAR	; CTicketProperty::GetInstance
; Function compile flags: /Ogty
;	COMDAT ?Expand@CWorld@@QAEXXZ
_TEXT	SEGMENT
?Expand@CWorld@@QAEXXZ PROC NEAR			; CWorld::Expand, COMDAT
; _this$ = ecx

; 2011 : {

  00000	56		 push	 esi
  00001	57		 push	 edi
  00002	8b f1		 mov	 esi, ecx

; 2012 : 	m_respawner.Expand( nDefaultLayer );

  00004	6a 00		 push	 0
  00006	8d 8e c0 30 08
	00		 lea	 ecx, DWORD PTR [esi+536768]
  0000c	e8 00 00 00 00	 call	 ?Expand@CLayerdRespawner@@QAEXH@Z ; CLayerdRespawner::Expand

; 2013 : #ifdef __AZRIA_1023
; 2014 : 	int nExpand	= CTicketProperty::GetInstance()->GetExpanedLayer( GetID() );

  00011	8b 3e		 mov	 edi, DWORD PTR [esi]
  00013	e8 00 00 00 00	 call	 ?GetInstance@CTicketProperty@@SAPAV1@XZ ; CTicketProperty::GetInstance
  00018	57		 push	 edi
  00019	8d 48 1c	 lea	 ecx, DWORD PTR [eax+28]
  0001c	e8 00 00 00 00	 call	 ?GetExpanedLayer@CLayerProperty@@QAEHK@Z ; CLayerProperty::GetExpanedLayer

; 2015 : 	for( int nLayer = -1, i = 0; i < nExpand; i++, nLayer-- )

  00021	83 cf ff	 or	 edi, -1
  00024	85 c0		 test	 eax, eax
  00026	7e 15		 jle	 SHORT $L263263
  00028	53		 push	 ebx
  00029	8b d8		 mov	 ebx, eax
  0002b	eb 03 8d 49 00	 npad	 5
$L263261:

; 2016 : 		CreateLayer( nLayer );

  00030	57		 push	 edi
  00031	8b ce		 mov	 ecx, esi
  00033	e8 00 00 00 00	 call	 ?CreateLayer@CWorld@@QAEHH@Z ; CWorld::CreateLayer
  00038	4f		 dec	 edi
  00039	4b		 dec	 ebx
  0003a	75 f4		 jne	 SHORT $L263261
  0003c	5b		 pop	 ebx
$L263263:
  0003d	5f		 pop	 edi
  0003e	5e		 pop	 esi

; 2017 : #endif	// __AZRIA_1023
; 2018 : }

  0003f	c3		 ret	 0
?Expand@CWorld@@QAEXXZ ENDP				; CWorld::Expand
_TEXT	ENDS
PUBLIC	??0?$_Vector_val@UENVIR_INFO@@V?$allocator@UENVIR_INFO@@@std@@@std@@IAE@V?$allocator@UENVIR_INFO@@@1@@Z ; std::_Vector_val<ENVIR_INFO,std::allocator<ENVIR_INFO> >::_Vector_val<ENVIR_INFO,std::allocator<ENVIR_INFO> >
; Function compile flags: /Ogty
; File c:\program files\microsoft visual studio .net 2003\vc7\include\vector
;	COMDAT ??0?$_Vector_val@UENVIR_INFO@@V?$allocator@UENVIR_INFO@@@std@@@std@@IAE@V?$allocator@UENVIR_INFO@@@1@@Z
_TEXT	SEGMENT
__Al$ = 8						; size = 1
??0?$_Vector_val@UENVIR_INFO@@V?$allocator@UENVIR_INFO@@@std@@@std@@IAE@V?$allocator@UENVIR_INFO@@@1@@Z PROC NEAR ; std::_Vector_val<ENVIR_INFO,std::allocator<ENVIR_INFO> >::_Vector_val<ENVIR_INFO,std::allocator<ENVIR_INFO> >, COMDAT
; _this$ = ecx

; 21   : 		{	// construct allocator from _Al

  00000	8b c1		 mov	 eax, ecx

; 22   : 		}

  00002	c2 04 00	 ret	 4
??0?$_Vector_val@UENVIR_INFO@@V?$allocator@UENVIR_INFO@@@std@@@std@@IAE@V?$allocator@UENVIR_INFO@@@1@@Z ENDP ; std::_Vector_val<ENVIR_INFO,std::allocator<ENVIR_INFO> >::_Vector_val<ENVIR_INFO,std::allocator<ENVIR_INFO> >
_TEXT	ENDS
PUBLIC	??0?$_Vector_val@PAVCObj@@V?$allocator@PAVCObj@@@std@@@std@@IAE@V?$allocator@PAVCObj@@@1@@Z ; std::_Vector_val<CObj *,std::allocator<CObj *> >::_Vector_val<CObj *,std::allocator<CObj *> >
; Function compile flags: /Ogty
;	COMDAT ??0?$_Vector_val@PAVCObj@@V?$allocator@PAVCObj@@@std@@@std@@IAE@V?$allocator@PAVCObj@@@1@@Z
_TEXT	SEGMENT
__Al$ = 8						; size = 1
??0?$_Vector_val@PAVCObj@@V?$allocator@PAVCObj@@@std@@@std@@IAE@V?$allocator@PAVCObj@@@1@@Z PROC NEAR ; std::_Vector_val<CObj *,std::allocator<CObj *> >::_Vector_val<CObj *,std::allocator<CObj *> >, COMDAT
; _this$ = ecx

; 21   : 		{	// construct allocator from _Al

  00000	8b c1		 mov	 eax, ecx

; 22   : 		}

  00002	c2 04 00	 ret	 4
??0?$_Vector_val@PAVCObj@@V?$allocator@PAVCObj@@@std@@@std@@IAE@V?$allocator@PAVCObj@@@1@@Z ENDP ; std::_Vector_val<CObj *,std::allocator<CObj *> >::_Vector_val<CObj *,std::allocator<CObj *> >
_TEXT	ENDS
PUBLIC	??Diterator@?$vector@KV?$allocator@K@std@@@std@@QBEAAKXZ ; std::vector<unsigned long,std::allocator<unsigned long> >::iterator::operator*
; Function compile flags: /Ogty
;	COMDAT ??Diterator@?$vector@KV?$allocator@K@std@@@std@@QBEAAKXZ
_TEXT	SEGMENT
??Diterator@?$vector@KV?$allocator@K@std@@@std@@QBEAAKXZ PROC NEAR ; std::vector<unsigned long,std::allocator<unsigned long> >::iterator::operator*, COMDAT
; _this$ = ecx

; 220  : 			return ((reference)**(const_iterator *)this);

  00000	8b 01		 mov	 eax, DWORD PTR [ecx]

; 221  : 			}

  00002	c3		 ret	 0
??Diterator@?$vector@KV?$allocator@K@std@@@std@@QBEAAKXZ ENDP ; std::vector<unsigned long,std::allocator<unsigned long> >::iterator::operator*
_TEXT	ENDS
PUBLIC	??Hiterator@?$vector@KV?$allocator@K@std@@@std@@QBE?AV012@H@Z ; std::vector<unsigned long,std::allocator<unsigned long> >::iterator::operator+
; Function compile flags: /Ogty
;	COMDAT ??Hiterator@?$vector@KV?$allocator@K@std@@@std@@QBE?AV012@H@Z
_TEXT	SEGMENT
___$ReturnUdt$ = 8					; size = 4
__Off$ = 12						; size = 4
??Hiterator@?$vector@KV?$allocator@K@std@@@std@@QBE?AV012@H@Z PROC NEAR ; std::vector<unsigned long,std::allocator<unsigned long> >::iterator::operator+, COMDAT
; _this$ = ecx

; 262  : 			iterator _Tmp = *this;
; 263  : 			return (_Tmp += _Off);

  00000	8b 01		 mov	 eax, DWORD PTR [ecx]
  00002	8b 4c 24 08	 mov	 ecx, DWORD PTR __Off$[esp-4]
  00006	8d 14 88	 lea	 edx, DWORD PTR [eax+ecx*4]
  00009	8b 44 24 04	 mov	 eax, DWORD PTR ___$ReturnUdt$[esp-4]
  0000d	89 10		 mov	 DWORD PTR [eax], edx

; 264  : 			}

  0000f	c2 08 00	 ret	 8
??Hiterator@?$vector@KV?$allocator@K@std@@@std@@QBE?AV012@H@Z ENDP ; std::vector<unsigned long,std::allocator<unsigned long> >::iterator::operator+
_TEXT	ENDS
PUBLIC	??Diterator@?$vector@PAVCObj@@V?$allocator@PAVCObj@@@std@@@std@@QBEAAPAVCObj@@XZ ; std::vector<CObj *,std::allocator<CObj *> >::iterator::operator*
; Function compile flags: /Ogty
;	COMDAT ??Diterator@?$vector@PAVCObj@@V?$allocator@PAVCObj@@@std@@@std@@QBEAAPAVCObj@@XZ
_TEXT	SEGMENT
??Diterator@?$vector@PAVCObj@@V?$allocator@PAVCObj@@@std@@@std@@QBEAAPAVCObj@@XZ PROC NEAR ; std::vector<CObj *,std::allocator<CObj *> >::iterator::operator*, COMDAT
; _this$ = ecx

; 220  : 			return ((reference)**(const_iterator *)this);

  00000	8b 01		 mov	 eax, DWORD PTR [ecx]

; 221  : 			}

  00002	c3		 ret	 0
??Diterator@?$vector@PAVCObj@@V?$allocator@PAVCObj@@@std@@@std@@QBEAAPAVCObj@@XZ ENDP ; std::vector<CObj *,std::allocator<CObj *> >::iterator::operator*
_TEXT	ENDS
PUBLIC	??Hiterator@?$vector@PAVCObj@@V?$allocator@PAVCObj@@@std@@@std@@QBE?AV012@H@Z ; std::vector<CObj *,std::allocator<CObj *> >::iterator::operator+
; Function compile flags: /Ogty
;	COMDAT ??Hiterator@?$vector@PAVCObj@@V?$allocator@PAVCObj@@@std@@@std@@QBE?AV012@H@Z
_TEXT	SEGMENT
___$ReturnUdt$ = 8					; size = 4
__Off$ = 12						; size = 4
??Hiterator@?$vector@PAVCObj@@V?$allocator@PAVCObj@@@std@@@std@@QBE?AV012@H@Z PROC NEAR ; std::vector<CObj *,std::allocator<CObj *> >::iterator::operator+, COMDAT
; _this$ = ecx

; 262  : 			iterator _Tmp = *this;
; 263  : 			return (_Tmp += _Off);

  00000	8b 01		 mov	 eax, DWORD PTR [ecx]
  00002	8b 4c 24 08	 mov	 ecx, DWORD PTR __Off$[esp-4]
  00006	8d 14 88	 lea	 edx, DWORD PTR [eax+ecx*4]
  00009	8b 44 24 04	 mov	 eax, DWORD PTR ___$ReturnUdt$[esp-4]
  0000d	89 10		 mov	 DWORD PTR [eax], edx

; 264  : 			}

  0000f	c2 08 00	 ret	 8
??Hiterator@?$vector@PAVCObj@@V?$allocator@PAVCObj@@@std@@@std@@QBE?AV012@H@Z ENDP ; std::vector<CObj *,std::allocator<CObj *> >::iterator::operator+
_TEXT	ENDS
PUBLIC	??Diterator@?$vector@VCGuildCombat1to1@@V?$allocator@VCGuildCombat1to1@@@std@@@std@@QBEAAVCGuildCombat1to1@@XZ ; std::vector<CGuildCombat1to1,std::allocator<CGuildCombat1to1> >::iterator::operator*
; Function compile flags: /Ogty
;	COMDAT ??Diterator@?$vector@VCGuildCombat1to1@@V?$allocator@VCGuildCombat1to1@@@std@@@std@@QBEAAVCGuildCombat1to1@@XZ
_TEXT	SEGMENT
??Diterator@?$vector@VCGuildCombat1to1@@V?$allocator@VCGuildCombat1to1@@@std@@@std@@QBEAAVCGuildCombat1to1@@XZ PROC NEAR ; std::vector<CGuildCombat1to1,std::allocator<CGuildCombat1to1> >::iterator::operator*, COMDAT
; _this$ = ecx

; 220  : 			return ((reference)**(const_iterator *)this);

  00000	8b 01		 mov	 eax, DWORD PTR [ecx]

; 221  : 			}

  00002	c3		 ret	 0
??Diterator@?$vector@VCGuildCombat1to1@@V?$allocator@VCGuildCombat1to1@@@std@@@std@@QBEAAVCGuildCombat1to1@@XZ ENDP ; std::vector<CGuildCombat1to1,std::allocator<CGuildCombat1to1> >::iterator::operator*
_TEXT	ENDS
PUBLIC	??Hiterator@?$vector@VCGuildCombat1to1@@V?$allocator@VCGuildCombat1to1@@@std@@@std@@QBE?AV012@H@Z ; std::vector<CGuildCombat1to1,std::allocator<CGuildCombat1to1> >::iterator::operator+
; Function compile flags: /Ogty
;	COMDAT ??Hiterator@?$vector@VCGuildCombat1to1@@V?$allocator@VCGuildCombat1to1@@@std@@@std@@QBE?AV012@H@Z
_TEXT	SEGMENT
___$ReturnUdt$ = 8					; size = 4
__Off$ = 12						; size = 4
??Hiterator@?$vector@VCGuildCombat1to1@@V?$allocator@VCGuildCombat1to1@@@std@@@std@@QBE?AV012@H@Z PROC NEAR ; std::vector<CGuildCombat1to1,std::allocator<CGuildCombat1to1> >::iterator::operator+, COMDAT
; _this$ = ecx

; 262  : 			iterator _Tmp = *this;
; 263  : 			return (_Tmp += _Off);

  00000	8b 44 24 08	 mov	 eax, DWORD PTR __Off$[esp-4]
  00004	8d 14 40	 lea	 edx, DWORD PTR [eax+eax*2]
  00007	8b 01		 mov	 eax, DWORD PTR [ecx]
  00009	c1 e2 04	 shl	 edx, 4
  0000c	03 d0		 add	 edx, eax
  0000e	8b 44 24 04	 mov	 eax, DWORD PTR ___$ReturnUdt$[esp-4]
  00012	89 10		 mov	 DWORD PTR [eax], edx

; 264  : 			}

  00014	c2 08 00	 ret	 8
??Hiterator@?$vector@VCGuildCombat1to1@@V?$allocator@VCGuildCombat1to1@@@std@@@std@@QBE?AV012@H@Z ENDP ; std::vector<CGuildCombat1to1,std::allocator<CGuildCombat1to1> >::iterator::operator+
_TEXT	ENDS
PUBLIC	??Diterator@?$vector@U__GC1TO1TENDER@CGuildCombat1to1Mng@@V?$allocator@U__GC1TO1TENDER@CGuildCombat1to1Mng@@@std@@@std@@QBEAAU__GC1TO1TENDER@CGuildCombat1to1Mng@@XZ ; std::vector<CGuildCombat1to1Mng::__GC1TO1TENDER,std::allocator<CGuildCombat1to1Mng::__GC1TO1TENDER> >::iterator::operator*
; Function compile flags: /Ogty
;	COMDAT ??Diterator@?$vector@U__GC1TO1TENDER@CGuildCombat1to1Mng@@V?$allocator@U__GC1TO1TENDER@CGuildCombat1to1Mng@@@std@@@std@@QBEAAU__GC1TO1TENDER@CGuildCombat1to1Mng@@XZ
_TEXT	SEGMENT
??Diterator@?$vector@U__GC1TO1TENDER@CGuildCombat1to1Mng@@V?$allocator@U__GC1TO1TENDER@CGuildCombat1to1Mng@@@std@@@std@@QBEAAU__GC1TO1TENDER@CGuildCombat1to1Mng@@XZ PROC NEAR ; std::vector<CGuildCombat1to1Mng::__GC1TO1TENDER,std::allocator<CGuildCombat1to1Mng::__GC1TO1TENDER> >::iterator::operator*, COMDAT
; _this$ = ecx

; 220  : 			return ((reference)**(const_iterator *)this);

  00000	8b 01		 mov	 eax, DWORD PTR [ecx]

; 221  : 			}

  00002	c3		 ret	 0
??Diterator@?$vector@U__GC1TO1TENDER@CGuildCombat1to1Mng@@V?$allocator@U__GC1TO1TENDER@CGuildCombat1to1Mng@@@std@@@std@@QBEAAU__GC1TO1TENDER@CGuildCombat1to1Mng@@XZ ENDP ; std::vector<CGuildCombat1to1Mng::__GC1TO1TENDER,std::allocator<CGuildCombat1to1Mng::__GC1TO1TENDER> >::iterator::operator*
_TEXT	ENDS
PUBLIC	??Hiterator@?$vector@U__GC1TO1TENDER@CGuildCombat1to1Mng@@V?$allocator@U__GC1TO1TENDER@CGuildCombat1to1Mng@@@std@@@std@@QBE?AV012@H@Z ; std::vector<CGuildCombat1to1Mng::__GC1TO1TENDER,std::allocator<CGuildCombat1to1Mng::__GC1TO1TENDER> >::iterator::operator+
; Function compile flags: /Ogty
;	COMDAT ??Hiterator@?$vector@U__GC1TO1TENDER@CGuildCombat1to1Mng@@V?$allocator@U__GC1TO1TENDER@CGuildCombat1to1Mng@@@std@@@std@@QBE?AV012@H@Z
_TEXT	SEGMENT
___$ReturnUdt$ = 8					; size = 4
__Off$ = 12						; size = 4
??Hiterator@?$vector@U__GC1TO1TENDER@CGuildCombat1to1Mng@@V?$allocator@U__GC1TO1TENDER@CGuildCombat1to1Mng@@@std@@@std@@QBE?AV012@H@Z PROC NEAR ; std::vector<CGuildCombat1to1Mng::__GC1TO1TENDER,std::allocator<CGuildCombat1to1Mng::__GC1TO1TENDER> >::iterator::operator+, COMDAT
; _this$ = ecx

; 262  : 			iterator _Tmp = *this;
; 263  : 			return (_Tmp += _Off);

  00000	8b 44 24 08	 mov	 eax, DWORD PTR __Off$[esp-4]
  00004	8d 14 40	 lea	 edx, DWORD PTR [eax+eax*2]
  00007	8b 01		 mov	 eax, DWORD PTR [ecx]
  00009	c1 e2 04	 shl	 edx, 4
  0000c	03 d0		 add	 edx, eax
  0000e	8b 44 24 04	 mov	 eax, DWORD PTR ___$ReturnUdt$[esp-4]
  00012	89 10		 mov	 DWORD PTR [eax], edx

; 264  : 			}

  00014	c2 08 00	 ret	 8
??Hiterator@?$vector@U__GC1TO1TENDER@CGuildCombat1to1Mng@@V?$allocator@U__GC1TO1TENDER@CGuildCombat1to1Mng@@@std@@@std@@QBE?AV012@H@Z ENDP ; std::vector<CGuildCombat1to1Mng::__GC1TO1TENDER,std::allocator<CGuildCombat1to1Mng::__GC1TO1TENDER> >::iterator::operator+
_TEXT	ENDS
PUBLIC	?max_size@?$vector@UENVIR_INFO@@V?$allocator@UENVIR_INFO@@@std@@@std@@QBEIXZ ; std::vector<ENVIR_INFO,std::allocator<ENVIR_INFO> >::max_size
; Function compile flags: /Ogty
;	COMDAT ?max_size@?$vector@UENVIR_INFO@@V?$allocator@UENVIR_INFO@@@std@@@std@@QBEIXZ
_TEXT	SEGMENT
?max_size@?$vector@UENVIR_INFO@@V?$allocator@UENVIR_INFO@@@std@@@std@@QBEIXZ PROC NEAR ; std::vector<ENVIR_INFO,std::allocator<ENVIR_INFO> >::max_size, COMDAT
; _this$ = ecx

; 521  : 		return (this->_Alval.max_size());

  00000	b8 e5 b1 15 01	 mov	 eax, 18199013		; 0115b1e5H

; 522  : 		}

  00005	c3		 ret	 0
?max_size@?$vector@UENVIR_INFO@@V?$allocator@UENVIR_INFO@@@std@@@std@@QBEIXZ ENDP ; std::vector<ENVIR_INFO,std::allocator<ENVIR_INFO> >::max_size
_TEXT	ENDS
PUBLIC	?allocate@?$allocator@UENVIR_INFO@@@std@@QAEPAUENVIR_INFO@@I@Z ; std::allocator<ENVIR_INFO>::allocate
; Function compile flags: /Ogty
; File c:\program files\microsoft visual studio .net 2003\vc7\include\xmemory
;	COMDAT ?allocate@?$allocator@UENVIR_INFO@@@std@@QAEPAUENVIR_INFO@@I@Z
_TEXT	SEGMENT
__Count$ = 8						; size = 4
?allocate@?$allocator@UENVIR_INFO@@@std@@QAEPAUENVIR_INFO@@I@Z PROC NEAR ; std::allocator<ENVIR_INFO>::allocate, COMDAT
; _this$ = ecx

; 137  : 		return (_Allocate(_Count, (pointer)0));

  00000	8b 44 24 04	 mov	 eax, DWORD PTR __Count$[esp-4]
  00004	69 c0 ec 00 00
	00		 imul	 eax, 236		; 000000ecH
  0000a	50		 push	 eax
  0000b	e8 00 00 00 00	 call	 ??2@YAPAXI@Z		; operator new
  00010	83 c4 04	 add	 esp, 4

; 138  : 		}

  00013	c2 04 00	 ret	 4
?allocate@?$allocator@UENVIR_INFO@@@std@@QAEPAUENVIR_INFO@@I@Z ENDP ; std::allocator<ENVIR_INFO>::allocate
_TEXT	ENDS
PUBLIC	?max_size@?$vector@PAVCObj@@V?$allocator@PAVCObj@@@std@@@std@@QBEIXZ ; std::vector<CObj *,std::allocator<CObj *> >::max_size
; Function compile flags: /Ogty
; File c:\program files\microsoft visual studio .net 2003\vc7\include\vector
;	COMDAT ?max_size@?$vector@PAVCObj@@V?$allocator@PAVCObj@@@std@@@std@@QBEIXZ
_TEXT	SEGMENT
?max_size@?$vector@PAVCObj@@V?$allocator@PAVCObj@@@std@@@std@@QBEIXZ PROC NEAR ; std::vector<CObj *,std::allocator<CObj *> >::max_size, COMDAT
; _this$ = ecx

; 521  : 		return (this->_Alval.max_size());

  00000	b8 ff ff ff 3f	 mov	 eax, 1073741823		; 3fffffffH

; 522  : 		}

  00005	c3		 ret	 0
?max_size@?$vector@PAVCObj@@V?$allocator@PAVCObj@@@std@@@std@@QBEIXZ ENDP ; std::vector<CObj *,std::allocator<CObj *> >::max_size
_TEXT	ENDS
PUBLIC	?allocate@?$allocator@PAVCObj@@@std@@QAEPAPAVCObj@@I@Z ; std::allocator<CObj *>::allocate
; Function compile flags: /Ogty
; File c:\program files\microsoft visual studio .net 2003\vc7\include\xmemory
;	COMDAT ?allocate@?$allocator@PAVCObj@@@std@@QAEPAPAVCObj@@I@Z
_TEXT	SEGMENT
__Count$ = 8						; size = 4
?allocate@?$allocator@PAVCObj@@@std@@QAEPAPAVCObj@@I@Z PROC NEAR ; std::allocator<CObj *>::allocate, COMDAT
; _this$ = ecx

; 137  : 		return (_Allocate(_Count, (pointer)0));

  00000	8b 44 24 04	 mov	 eax, DWORD PTR __Count$[esp-4]
  00004	8d 0c 85 00 00
	00 00		 lea	 ecx, DWORD PTR [eax*4]
  0000b	51		 push	 ecx
  0000c	e8 00 00 00 00	 call	 ??2@YAPAXI@Z		; operator new
  00011	83 c4 04	 add	 esp, 4

; 138  : 		}

  00014	c2 04 00	 ret	 4
?allocate@?$allocator@PAVCObj@@@std@@QAEPAPAVCObj@@I@Z ENDP ; std::allocator<CObj *>::allocate
_TEXT	ENDS
PUBLIC	??0iterator@?$vector@KV?$allocator@K@std@@@std@@QAE@PAK@Z ; std::vector<unsigned long,std::allocator<unsigned long> >::iterator::iterator
; Function compile flags: /Ogty
; File c:\program files\microsoft visual studio .net 2003\vc7\include\vector
;	COMDAT ??0iterator@?$vector@KV?$allocator@K@std@@@std@@QAE@PAK@Z
_TEXT	SEGMENT
__Ptr$ = 8						; size = 4
??0iterator@?$vector@KV?$allocator@K@std@@@std@@QAE@PAK@Z PROC NEAR ; std::vector<unsigned long,std::allocator<unsigned long> >::iterator::iterator, COMDAT
; _this$ = ecx

; 215  : 			{	// construct with pointer _Ptr

  00000	8b c1		 mov	 eax, ecx
  00002	8b 4c 24 04	 mov	 ecx, DWORD PTR __Ptr$[esp-4]
  00006	89 08		 mov	 DWORD PTR [eax], ecx

; 216  : 			}

  00008	c2 04 00	 ret	 4
??0iterator@?$vector@KV?$allocator@K@std@@@std@@QAE@PAK@Z ENDP ; std::vector<unsigned long,std::allocator<unsigned long> >::iterator::iterator
_TEXT	ENDS
PUBLIC	??0iterator@?$vector@PAVCObj@@V?$allocator@PAVCObj@@@std@@@std@@QAE@PAPAVCObj@@@Z ; std::vector<CObj *,std::allocator<CObj *> >::iterator::iterator
; Function compile flags: /Ogty
;	COMDAT ??0iterator@?$vector@PAVCObj@@V?$allocator@PAVCObj@@@std@@@std@@QAE@PAPAVCObj@@@Z
_TEXT	SEGMENT
__Ptr$ = 8						; size = 4
??0iterator@?$vector@PAVCObj@@V?$allocator@PAVCObj@@@std@@@std@@QAE@PAPAVCObj@@@Z PROC NEAR ; std::vector<CObj *,std::allocator<CObj *> >::iterator::iterator, COMDAT
; _this$ = ecx

; 215  : 			{	// construct with pointer _Ptr

  00000	8b c1		 mov	 eax, ecx
  00002	8b 4c 24 04	 mov	 ecx, DWORD PTR __Ptr$[esp-4]
  00006	89 08		 mov	 DWORD PTR [eax], ecx

; 216  : 			}

  00008	c2 04 00	 ret	 4
??0iterator@?$vector@PAVCObj@@V?$allocator@PAVCObj@@@std@@@std@@QAE@PAPAVCObj@@@Z ENDP ; std::vector<CObj *,std::allocator<CObj *> >::iterator::iterator
_TEXT	ENDS
PUBLIC	??0iterator@?$vector@VCGuildCombat1to1@@V?$allocator@VCGuildCombat1to1@@@std@@@std@@QAE@PAVCGuildCombat1to1@@@Z ; std::vector<CGuildCombat1to1,std::allocator<CGuildCombat1to1> >::iterator::iterator
; Function compile flags: /Ogty
;	COMDAT ??0iterator@?$vector@VCGuildCombat1to1@@V?$allocator@VCGuildCombat1to1@@@std@@@std@@QAE@PAVCGuildCombat1to1@@@Z
_TEXT	SEGMENT
__Ptr$ = 8						; size = 4
??0iterator@?$vector@VCGuildCombat1to1@@V?$allocator@VCGuildCombat1to1@@@std@@@std@@QAE@PAVCGuildCombat1to1@@@Z PROC NEAR ; std::vector<CGuildCombat1to1,std::allocator<CGuildCombat1to1> >::iterator::iterator, COMDAT
; _this$ = ecx

; 215  : 			{	// construct with pointer _Ptr

  00000	8b c1		 mov	 eax, ecx
  00002	8b 4c 24 04	 mov	 ecx, DWORD PTR __Ptr$[esp-4]
  00006	89 08		 mov	 DWORD PTR [eax], ecx

; 216  : 			}

  00008	c2 04 00	 ret	 4
??0iterator@?$vector@VCGuildCombat1to1@@V?$allocator@VCGuildCombat1to1@@@std@@@std@@QAE@PAVCGuildCombat1to1@@@Z ENDP ; std::vector<CGuildCombat1to1,std::allocator<CGuildCombat1to1> >::iterator::iterator
_TEXT	ENDS
PUBLIC	??0iterator@?$vector@U__GC1TO1TENDER@CGuildCombat1to1Mng@@V?$allocator@U__GC1TO1TENDER@CGuildCombat1to1Mng@@@std@@@std@@QAE@PAU__GC1TO1TENDER@CGuildCombat1to1Mng@@@Z ; std::vector<CGuildCombat1to1Mng::__GC1TO1TENDER,std::allocator<CGuildCombat1to1Mng::__GC1TO1TENDER> >::iterator::iterator
; Function compile flags: /Ogty
;	COMDAT ??0iterator@?$vector@U__GC1TO1TENDER@CGuildCombat1to1Mng@@V?$allocator@U__GC1TO1TENDER@CGuildCombat1to1Mng@@@std@@@std@@QAE@PAU__GC1TO1TENDER@CGuildCombat1to1Mng@@@Z
_TEXT	SEGMENT
__Ptr$ = 8						; size = 4
??0iterator@?$vector@U__GC1TO1TENDER@CGuildCombat1to1Mng@@V?$allocator@U__GC1TO1TENDER@CGuildCombat1to1Mng@@@std@@@std@@QAE@PAU__GC1TO1TENDER@CGuildCombat1to1Mng@@@Z PROC NEAR ; std::vector<CGuildCombat1to1Mng::__GC1TO1TENDER,std::allocator<CGuildCombat1to1Mng::__GC1TO1TENDER> >::iterator::iterator, COMDAT
; _this$ = ecx

; 215  : 			{	// construct with pointer _Ptr

  00000	8b c1		 mov	 eax, ecx
  00002	8b 4c 24 04	 mov	 ecx, DWORD PTR __Ptr$[esp-4]
  00006	89 08		 mov	 DWORD PTR [eax], ecx

; 216  : 			}

  00008	c2 04 00	 ret	 4
??0iterator@?$vector@U__GC1TO1TENDER@CGuildCombat1to1Mng@@V?$allocator@U__GC1TO1TENDER@CGuildCombat1to1Mng@@@std@@@std@@QAE@PAU__GC1TO1TENDER@CGuildCombat1to1Mng@@@Z ENDP ; std::vector<CGuildCombat1to1Mng::__GC1TO1TENDER,std::allocator<CGuildCombat1to1Mng::__GC1TO1TENDER> >::iterator::iterator
_TEXT	ENDS
PUBLIC	??$_Destroy_range@PAVCObj@@V?$allocator@PAVCObj@@@std@@@std@@YAXPAPAVCObj@@0AAV?$allocator@PAVCObj@@@0@@Z ; std::_Destroy_range<CObj *,std::allocator<CObj *> >
; Function compile flags: /Ogty
; File c:\program files\microsoft visual studio .net 2003\vc7\include\xmemory
;	COMDAT ??$_Destroy_range@PAVCObj@@V?$allocator@PAVCObj@@@std@@@std@@YAXPAPAVCObj@@0AAV?$allocator@PAVCObj@@@0@@Z
_TEXT	SEGMENT
__First$ = 8						; size = 4
__Last$ = 12						; size = 4
__Al$ = 16						; size = 4
??$_Destroy_range@PAVCObj@@V?$allocator@PAVCObj@@@std@@@std@@YAXPAPAVCObj@@0AAV?$allocator@PAVCObj@@@0@@Z PROC NEAR ; std::_Destroy_range<CObj *,std::allocator<CObj *> >, COMDAT

; 217  : 	_Destroy_range(_First, _Last, _Al, _Ptr_cat(_First, _Last));
; 218  : 	}

  00000	c3		 ret	 0
??$_Destroy_range@PAVCObj@@V?$allocator@PAVCObj@@@std@@@std@@YAXPAPAVCObj@@0AAV?$allocator@PAVCObj@@@0@@Z ENDP ; std::_Destroy_range<CObj *,std::allocator<CObj *> >
_TEXT	ENDS
PUBLIC	?destroy@?$allocator@UD3DXVECTOR3@@@std@@QAEXPAUD3DXVECTOR3@@@Z ; std::allocator<D3DXVECTOR3>::destroy
; Function compile flags: /Ogty
;	COMDAT ?destroy@?$allocator@UD3DXVECTOR3@@@std@@QAEXPAUD3DXVECTOR3@@@Z
_TEXT	SEGMENT
__Ptr$ = 8						; size = 4
?destroy@?$allocator@UD3DXVECTOR3@@@std@@QAEXPAUD3DXVECTOR3@@@Z PROC NEAR ; std::allocator<D3DXVECTOR3>::destroy, COMDAT
; _this$ = ecx

; 152  : 		_Destroy(_Ptr);
; 153  : 		}

  00000	c2 04 00	 ret	 4
?destroy@?$allocator@UD3DXVECTOR3@@@std@@QAEXPAUD3DXVECTOR3@@@Z ENDP ; std::allocator<D3DXVECTOR3>::destroy
_TEXT	ENDS
PUBLIC	?SetDelete@CObj@@QAEXH@Z			; CObj::SetDelete
; Function compile flags: /Ogty
; File c:\documents and settings\test\mes documents\source\virtuos_v17\build\program\_common\obj.h
;	COMDAT ?SetDelete@CObj@@QAEXH@Z
_TEXT	SEGMENT
_bUpdate$ = 8						; size = 4
?SetDelete@CObj@@QAEXH@Z PROC NEAR			; CObj::SetDelete, COMDAT
; _this$ = ecx

; 181  : 	void			SetDelete( BOOL bUpdate ) { SetFlag( bUpdate, OBJ_FLAG_DELETE ); }

  00000	8b 44 24 04	 mov	 eax, DWORD PTR _bUpdate$[esp-4]
  00004	85 c0		 test	 eax, eax
  00006	8b 41 04	 mov	 eax, DWORD PTR [ecx+4]
  00009	74 09		 je	 SHORT $L270923
  0000b	83 c8 01	 or	 eax, 1
  0000e	89 41 04	 mov	 DWORD PTR [ecx+4], eax
  00011	c2 04 00	 ret	 4
$L270923:
  00014	83 e0 fe	 and	 eax, -2			; fffffffeH
  00017	89 41 04	 mov	 DWORD PTR [ecx+4], eax
  0001a	c2 04 00	 ret	 4
?SetDelete@CObj@@QAEXH@Z ENDP				; CObj::SetDelete
_TEXT	ENDS
PUBLIC	??_C@_0BI@GDJNNIOA@GetCtrlProp?5range_error?$AA@ ; `string'
PUBLIC	?GetCtrlProp@CProject@@QAEPAUCtrlProp@@H@Z	; CProject::GetCtrlProp
;	COMDAT ??_C@_0BI@GDJNNIOA@GetCtrlProp?5range_error?$AA@
; File c:\documents and settings\test\mes documents\source\virtuos_v17\build\program\_common\data.h
CONST	SEGMENT
??_C@_0BI@GDJNNIOA@GetCtrlProp?5range_error?$AA@ DB 'GetCtrlProp range_er'
	DB	'ror', 00H					; `string'
; Function compile flags: /Ogty
; File c:\documents and settings\test\mes documents\source\virtuos_v17\build\program\_common\project.h
CONST	ENDS
;	COMDAT ?GetCtrlProp@CProject@@QAEPAUCtrlProp@@H@Z
_TEXT	SEGMENT
_nIndex$ = 8						; size = 4
?GetCtrlProp@CProject@@QAEPAUCtrlProp@@H@Z PROC NEAR	; CProject::GetCtrlProp, COMDAT
; _this$ = ecx

; 1358 : 	VERIFY_RANGE_ASSERT( nIndex, 0, m_aPropCtrl.GetSize(), "GetCtrlProp range_error", NULL );

  00000	8b 44 24 04	 mov	 eax, DWORD PTR _nIndex$[esp-4]
  00004	85 c0		 test	 eax, eax
  00006	7c 1a		 jl	 SHORT $L197904
  00008	8b 91 14 02 00
	00		 mov	 edx, DWORD PTR [ecx+532]
  0000e	3b c2		 cmp	 eax, edx
  00010	7d 10		 jge	 SHORT $L197904

; 1359 : 	return m_aPropCtrl.GetAt( nIndex ); 

  00012	3b c2		 cmp	 eax, edx
  00014	73 28		 jae	 SHORT $L270951
  00016	8b 89 04 02 00
	00		 mov	 ecx, DWORD PTR [ecx+516]
  0001c	8b 04 81	 mov	 eax, DWORD PTR [ecx+eax*4]

; 1360 : }

  0001f	c2 04 00	 ret	 4
$L197904:

; 1358 : 	VERIFY_RANGE_ASSERT( nIndex, 0, m_aPropCtrl.GetSize(), "GetCtrlProp range_error", NULL );

  00022	8b 91 14 02 00
	00		 mov	 edx, DWORD PTR [ecx+532]
  00028	50		 push	 eax
  00029	52		 push	 edx
  0002a	6a 00		 push	 0
  0002c	68 00 00 00 00	 push	 OFFSET FLAT:??_C@_0BI@GDJNNIOA@GetCtrlProp?5range_error?$AA@
  00031	68 00 00 00 00	 push	 OFFSET FLAT:??_C@_0BM@HMFGHCP@?$CFs?5min?3?$CFd?0?5max?3?$CFd?0?5index?3?$CFd?$AA@
  00036	e8 00 00 00 00	 call	 ?Error@@YAPBDPBDZZ	; Error
  0003b	83 c4 14	 add	 esp, 20			; 00000014H
$L270951:
  0003e	33 c0		 xor	 eax, eax

; 1360 : }

  00040	c2 04 00	 ret	 4
?GetCtrlProp@CProject@@QAEPAUCtrlProp@@H@Z ENDP		; CProject::GetCtrlProp
_TEXT	ENDS
PUBLIC	??_C@_0BI@BEIFNGEL@GetItemProp?5range_error?$AA@ ; `string'
PUBLIC	?GetItemProp@CProject@@QAEPAUItemProp@@H@Z	; CProject::GetItemProp
;	COMDAT ??_C@_0BI@BEIFNGEL@GetItemProp?5range_error?$AA@
; File c:\documents and settings\test\mes documents\source\virtuos_v17\build\program\_common\data.h
CONST	SEGMENT
??_C@_0BI@BEIFNGEL@GetItemProp?5range_error?$AA@ DB 'GetItemProp range_er'
	DB	'ror', 00H					; `string'
; Function compile flags: /Ogty
; File c:\documents and settings\test\mes documents\source\virtuos_v17\build\program\_common\project.h
CONST	ENDS
;	COMDAT ?GetItemProp@CProject@@QAEPAUItemProp@@H@Z
_TEXT	SEGMENT
_nIndex$ = 8						; size = 4
?GetItemProp@CProject@@QAEPAUItemProp@@H@Z PROC NEAR	; CProject::GetItemProp, COMDAT
; _this$ = ecx

; 1364 : 	VERIFY_RANGE_ASSERT( nIndex, 0, m_aPropItem.GetSize(), "GetItemProp range_error", NULL );

  00000	8b 44 24 04	 mov	 eax, DWORD PTR _nIndex$[esp-4]
  00004	85 c0		 test	 eax, eax
  00006	7c 1a		 jl	 SHORT $L197914
  00008	8b 91 5c 02 00
	00		 mov	 edx, DWORD PTR [ecx+604]
  0000e	3b c2		 cmp	 eax, edx
  00010	7d 10		 jge	 SHORT $L197914

; 1365 : 	return m_aPropItem.GetAt( nIndex ); 

  00012	3b c2		 cmp	 eax, edx
  00014	73 28		 jae	 SHORT $L270976
  00016	8b 89 4c 02 00
	00		 mov	 ecx, DWORD PTR [ecx+588]
  0001c	8b 04 81	 mov	 eax, DWORD PTR [ecx+eax*4]

; 1366 : }

  0001f	c2 04 00	 ret	 4
$L197914:

; 1364 : 	VERIFY_RANGE_ASSERT( nIndex, 0, m_aPropItem.GetSize(), "GetItemProp range_error", NULL );

  00022	8b 91 5c 02 00
	00		 mov	 edx, DWORD PTR [ecx+604]
  00028	50		 push	 eax
  00029	52		 push	 edx
  0002a	6a 00		 push	 0
  0002c	68 00 00 00 00	 push	 OFFSET FLAT:??_C@_0BI@BEIFNGEL@GetItemProp?5range_error?$AA@
  00031	68 00 00 00 00	 push	 OFFSET FLAT:??_C@_0BM@HMFGHCP@?$CFs?5min?3?$CFd?0?5max?3?$CFd?0?5index?3?$CFd?$AA@
  00036	e8 00 00 00 00	 call	 ?Error@@YAPBDPBDZZ	; Error
  0003b	83 c4 14	 add	 esp, 20			; 00000014H
$L270976:
  0003e	33 c0		 xor	 eax, eax

; 1366 : }

  00040	c2 04 00	 ret	 4
?GetItemProp@CProject@@QAEPAUItemProp@@H@Z ENDP		; CProject::GetItemProp
_TEXT	ENDS
PUBLIC	??_C@_0BJ@GPNGCFMK@GetSkillProp?5range_error?$AA@ ; `string'
PUBLIC	?GetSkillProp@CProject@@QAEPAUItemProp@@H@Z	; CProject::GetSkillProp
;	COMDAT ??_C@_0BJ@GPNGCFMK@GetSkillProp?5range_error?$AA@
; File c:\documents and settings\test\mes documents\source\virtuos_v17\build\program\_common\data.h
CONST	SEGMENT
??_C@_0BJ@GPNGCFMK@GetSkillProp?5range_error?$AA@ DB 'GetSkillProp range_'
	DB	'error', 00H					; `string'
; Function compile flags: /Ogty
; File c:\documents and settings\test\mes documents\source\virtuos_v17\build\program\_common\project.h
CONST	ENDS
;	COMDAT ?GetSkillProp@CProject@@QAEPAUItemProp@@H@Z
_TEXT	SEGMENT
_nIndex$ = 8						; size = 4
?GetSkillProp@CProject@@QAEPAUItemProp@@H@Z PROC NEAR	; CProject::GetSkillProp, COMDAT
; _this$ = ecx

; 1370 : 	VERIFY_RANGE( nIndex, 0, m_aPropSkill.GetSize(), "GetSkillProp range_error", NULL );

  00000	8b 44 24 04	 mov	 eax, DWORD PTR _nIndex$[esp-4]
  00004	85 c0		 test	 eax, eax
  00006	7c 1a		 jl	 SHORT $L197924
  00008	8b 91 80 02 00
	00		 mov	 edx, DWORD PTR [ecx+640]
  0000e	3b c2		 cmp	 eax, edx
  00010	7d 10		 jge	 SHORT $L197924

; 1371 : 	return m_aPropSkill.GetAt( nIndex ); 

  00012	3b c2		 cmp	 eax, edx
  00014	73 28		 jae	 SHORT $L270998
  00016	8b 89 70 02 00
	00		 mov	 ecx, DWORD PTR [ecx+624]
  0001c	8b 04 81	 mov	 eax, DWORD PTR [ecx+eax*4]

; 1372 : }

  0001f	c2 04 00	 ret	 4
$L197924:

; 1370 : 	VERIFY_RANGE( nIndex, 0, m_aPropSkill.GetSize(), "GetSkillProp range_error", NULL );

  00022	8b 91 80 02 00
	00		 mov	 edx, DWORD PTR [ecx+640]
  00028	50		 push	 eax
  00029	52		 push	 edx
  0002a	6a 00		 push	 0
  0002c	68 00 00 00 00	 push	 OFFSET FLAT:??_C@_0BJ@GPNGCFMK@GetSkillProp?5range_error?$AA@
  00031	68 00 00 00 00	 push	 OFFSET FLAT:??_C@_0BM@HMFGHCP@?$CFs?5min?3?$CFd?0?5max?3?$CFd?0?5index?3?$CFd?$AA@
  00036	e8 00 00 00 00	 call	 ?Error@@YAPBDPBDZZ	; Error
  0003b	83 c4 14	 add	 esp, 20			; 00000014H
$L270998:
  0003e	33 c0		 xor	 eax, eax

; 1372 : }

  00040	c2 04 00	 ret	 4
?GetSkillProp@CProject@@QAEPAUItemProp@@H@Z ENDP	; CProject::GetSkillProp
_TEXT	ENDS
PUBLIC	??0CRegionElemArray@@QAE@XZ			; CRegionElemArray::CRegionElemArray
; Function compile flags: /Ogty
; File c:\documents and settings\test\mes documents\source\virtuos_v17\build\program\_common\region.h
;	COMDAT ??0CRegionElemArray@@QAE@XZ
_TEXT	SEGMENT
??0CRegionElemArray@@QAE@XZ PROC NEAR			; CRegionElemArray::CRegionElemArray, COMDAT
; _this$ = ecx

; 73   : 	CRegionElemArray()	{	m_cbRegionElem	= 0;	}

  00000	8b c1		 mov	 eax, ecx
  00002	c7 00 00 00 00
	00		 mov	 DWORD PTR [eax], 0
  00008	c3		 ret	 0
??0CRegionElemArray@@QAE@XZ ENDP			; CRegionElemArray::CRegionElemArray
_TEXT	ENDS
PUBLIC	?GetPropA@CCommonCtrl@@QAEPAUCtrlProp@@XZ	; CCommonCtrl::GetPropA
EXTRN	?prj@@3VCProject@@A:BYTE			; prj
; Function compile flags: /Ogty
; File c:\documents and settings\test\mes documents\source\virtuos_v17\build\program\_common\commonctrl.h
;	COMDAT ?GetPropA@CCommonCtrl@@QAEPAUCtrlProp@@XZ
_TEXT	SEGMENT
?GetPropA@CCommonCtrl@@QAEPAUCtrlProp@@XZ PROC NEAR	; CCommonCtrl::GetPropA, COMDAT
; _this$ = ecx

; 114  : 	CtrlProp*		GetProp() { return prj.GetCtrlProp( GetIndex() ); }

  00000	8b 81 74 01 00
	00		 mov	 eax, DWORD PTR [ecx+372]
  00006	85 c0		 test	 eax, eax
  00008	8b 0d 14 02 00
	00		 mov	 ecx, DWORD PTR ?prj@@3VCProject@@A+532
  0000e	7c 10		 jl	 SHORT $L271046
  00010	3b c1		 cmp	 eax, ecx
  00012	7d 0c		 jge	 SHORT $L271046
  00014	73 20		 jae	 SHORT $L271061
  00016	8b 0d 04 02 00
	00		 mov	 ecx, DWORD PTR ?prj@@3VCProject@@A+516
  0001c	8b 04 81	 mov	 eax, DWORD PTR [ecx+eax*4]
  0001f	c3		 ret	 0
$L271046:
  00020	50		 push	 eax
  00021	51		 push	 ecx
  00022	6a 00		 push	 0
  00024	68 00 00 00 00	 push	 OFFSET FLAT:??_C@_0BI@GDJNNIOA@GetCtrlProp?5range_error?$AA@
  00029	68 00 00 00 00	 push	 OFFSET FLAT:??_C@_0BM@HMFGHCP@?$CFs?5min?3?$CFd?0?5max?3?$CFd?0?5index?3?$CFd?$AA@
  0002e	e8 00 00 00 00	 call	 ?Error@@YAPBDPBDZZ	; Error
  00033	83 c4 14	 add	 esp, 20			; 00000014H
$L271061:
  00036	33 c0		 xor	 eax, eax
  00038	c3		 ret	 0
?GetPropA@CCommonCtrl@@QAEPAUCtrlProp@@XZ ENDP		; CCommonCtrl::GetPropA
_TEXT	ENDS
PUBLIC	??0?$_String_val@DV?$allocator@D@std@@@std@@IAE@V?$allocator@D@1@@Z ; std::_String_val<char,std::allocator<char> >::_String_val<char,std::allocator<char> >
; Function compile flags: /Ogty
; File c:\program files\microsoft visual studio .net 2003\vc7\include\xstring
;	COMDAT ??0?$_String_val@DV?$allocator@D@std@@@std@@IAE@V?$allocator@D@1@@Z
_TEXT	SEGMENT
__Al$ = 8						; size = 1
??0?$_String_val@DV?$allocator@D@std@@@std@@IAE@V?$allocator@D@1@@Z PROC NEAR ; std::_String_val<char,std::allocator<char> >::_String_val<char,std::allocator<char> >, COMDAT
; _this$ = ecx

; 34   : 		{	// construct allocator from _Al

  00000	8b c1		 mov	 eax, ecx

; 35   : 		}

  00002	c2 04 00	 ret	 4
??0?$_String_val@DV?$allocator@D@std@@@std@@IAE@V?$allocator@D@1@@Z ENDP ; std::_String_val<char,std::allocator<char> >::_String_val<char,std::allocator<char> >
_TEXT	ENDS
PUBLIC	?_Key@?$_Tree@V?$_Tmap_traits@KPAVCUser@@U?$less@K@std@@V?$allocator@U?$pair@$$CBKPAVCUser@@@std@@@3@$0A@@std@@@std@@KAABKPAU_Node@?$_Tree_nod@V?$_Tmap_traits@KPAVCUser@@U?$less@K@std@@V?$allocator@U?$pair@$$CBKPAVCUser@@@std@@@3@$0A@@std@@@2@@Z ; std::_Tree<std::_Tmap_traits<unsigned long,CUser *,std::less<unsigned long>,std::allocator<std::pair<unsigned long const ,CUser *> >,0> >::_Key
; Function compile flags: /Ogty
; File c:\program files\microsoft visual studio .net 2003\vc7\include\xtree
;	COMDAT ?_Key@?$_Tree@V?$_Tmap_traits@KPAVCUser@@U?$less@K@std@@V?$allocator@U?$pair@$$CBKPAVCUser@@@std@@@3@$0A@@std@@@std@@KAABKPAU_Node@?$_Tree_nod@V?$_Tmap_traits@KPAVCUser@@U?$less@K@std@@V?$allocator@U?$pair@$$CBKPAVCUser@@@std@@@3@$0A@@std@@@2@@Z
_TEXT	SEGMENT
__Pnode$ = 8						; size = 4
?_Key@?$_Tree@V?$_Tmap_traits@KPAVCUser@@U?$less@K@std@@V?$allocator@U?$pair@$$CBKPAVCUser@@@std@@@3@$0A@@std@@@std@@KAABKPAU_Node@?$_Tree_nod@V?$_Tmap_traits@KPAVCUser@@U?$less@K@std@@V?$allocator@U?$pair@$$CBKPAVCUser@@@std@@@3@$0A@@std@@@2@@Z PROC NEAR ; std::_Tree<std::_Tmap_traits<unsigned long,CUser *,std::less<unsigned long>,std::allocator<std::pair<unsigned long const ,CUser *> >,0> >::_Key, COMDAT

; 142  : 		return (_Mybase::_Kfn(_Myval(_Pnode)));

  00000	8b 44 24 04	 mov	 eax, DWORD PTR __Pnode$[esp-4]
  00004	83 c0 0c	 add	 eax, 12			; 0000000cH

; 143  : 		}

  00007	c3		 ret	 0
?_Key@?$_Tree@V?$_Tmap_traits@KPAVCUser@@U?$less@K@std@@V?$allocator@U?$pair@$$CBKPAVCUser@@@std@@@3@$0A@@std@@@std@@KAABKPAU_Node@?$_Tree_nod@V?$_Tmap_traits@KPAVCUser@@U?$less@K@std@@V?$allocator@U?$pair@$$CBKPAVCUser@@@std@@@3@$0A@@std@@@2@@Z ENDP ; std::_Tree<std::_Tmap_traits<unsigned long,CUser *,std::less<unsigned long>,std::allocator<std::pair<unsigned long const ,CUser *> >,0> >::_Key
_TEXT	ENDS
PUBLIC	??Diterator@?$_Tree@V?$_Tmap_traits@KPAVCUser@@U?$less@K@std@@V?$allocator@U?$pair@$$CBKPAVCUser@@@std@@@3@$0A@@std@@@std@@QBEAAU?$pair@$$CBKPAVCUser@@@2@XZ ; std::_Tree<std::_Tmap_traits<unsigned long,CUser *,std::less<unsigned long>,std::allocator<std::pair<unsigned long const ,CUser *> >,0> >::iterator::operator*
; Function compile flags: /Ogty
;	COMDAT ??Diterator@?$_Tree@V?$_Tmap_traits@KPAVCUser@@U?$less@K@std@@V?$allocator@U?$pair@$$CBKPAVCUser@@@std@@@3@$0A@@std@@@std@@QBEAAU?$pair@$$CBKPAVCUser@@@2@XZ
_TEXT	SEGMENT
??Diterator@?$_Tree@V?$_Tmap_traits@KPAVCUser@@U?$less@K@std@@V?$allocator@U?$pair@$$CBKPAVCUser@@@std@@@3@$0A@@std@@@std@@QBEAAU?$pair@$$CBKPAVCUser@@@2@XZ PROC NEAR ; std::_Tree<std::_Tmap_traits<unsigned long,CUser *,std::less<unsigned long>,std::allocator<std::pair<unsigned long const ,CUser *> >,0> >::iterator::operator*, COMDAT
; _this$ = ecx

; 317  : 			return ((reference)**(const_iterator *)this);

  00000	8b 01		 mov	 eax, DWORD PTR [ecx]
  00002	83 c0 0c	 add	 eax, 12			; 0000000cH

; 318  : 			}

  00005	c3		 ret	 0
??Diterator@?$_Tree@V?$_Tmap_traits@KPAVCUser@@U?$less@K@std@@V?$allocator@U?$pair@$$CBKPAVCUser@@@std@@@3@$0A@@std@@@std@@QBEAAU?$pair@$$CBKPAVCUser@@@2@XZ ENDP ; std::_Tree<std::_Tmap_traits<unsigned long,CUser *,std::less<unsigned long>,std::allocator<std::pair<unsigned long const ,CUser *> >,0> >::iterator::operator*
_TEXT	ENDS
PUBLIC	??0?$_Vector_val@UD3DXVECTOR3@@V?$allocator@UD3DXVECTOR3@@@std@@@std@@IAE@V?$allocator@UD3DXVECTOR3@@@1@@Z ; std::_Vector_val<D3DXVECTOR3,std::allocator<D3DXVECTOR3> >::_Vector_val<D3DXVECTOR3,std::allocator<D3DXVECTOR3> >
; Function compile flags: /Ogty
; File c:\program files\microsoft visual studio .net 2003\vc7\include\vector
;	COMDAT ??0?$_Vector_val@UD3DXVECTOR3@@V?$allocator@UD3DXVECTOR3@@@std@@@std@@IAE@V?$allocator@UD3DXVECTOR3@@@1@@Z
_TEXT	SEGMENT
__Al$ = 8						; size = 1
??0?$_Vector_val@UD3DXVECTOR3@@V?$allocator@UD3DXVECTOR3@@@std@@@std@@IAE@V?$allocator@UD3DXVECTOR3@@@1@@Z PROC NEAR ; std::_Vector_val<D3DXVECTOR3,std::allocator<D3DXVECTOR3> >::_Vector_val<D3DXVECTOR3,std::allocator<D3DXVECTOR3> >, COMDAT
; _this$ = ecx

; 21   : 		{	// construct allocator from _Al

  00000	8b c1		 mov	 eax, ecx

; 22   : 		}

  00002	c2 04 00	 ret	 4
??0?$_Vector_val@UD3DXVECTOR3@@V?$allocator@UD3DXVECTOR3@@@std@@@std@@IAE@V?$allocator@UD3DXVECTOR3@@@1@@Z ENDP ; std::_Vector_val<D3DXVECTOR3,std::allocator<D3DXVECTOR3> >::_Vector_val<D3DXVECTOR3,std::allocator<D3DXVECTOR3> >
_TEXT	ENDS
PUBLIC	?_Eos@?$basic_string@DU?$char_traits@D@std@@V?$allocator@D@2@@std@@IAEXI@Z ; std::basic_string<char,std::char_traits<char>,std::allocator<char> >::_Eos
; Function compile flags: /Ogty
; File c:\program files\microsoft visual studio .net 2003\vc7\include\xstring
;	COMDAT ?_Eos@?$basic_string@DU?$char_traits@D@std@@V?$allocator@D@2@@std@@IAEXI@Z
_TEXT	SEGMENT
__Newsize$ = 8						; size = 4
?_Eos@?$basic_string@DU?$char_traits@D@std@@V?$allocator@D@2@@std@@IAEXI@Z PROC NEAR ; std::basic_string<char,std::char_traits<char>,std::allocator<char> >::_Eos, COMDAT
; _this$ = ecx

; 1475 : 		_Traits::assign(_Myptr()[_Mysize = _Newsize], _Elem());

  00000	83 79 18 10	 cmp	 DWORD PTR [ecx+24], 16	; 00000010H
  00004	8b 44 24 04	 mov	 eax, DWORD PTR __Newsize$[esp-4]
  00008	89 41 14	 mov	 DWORD PTR [ecx+20], eax
  0000b	72 0a		 jb	 SHORT $L271103
  0000d	8b 49 04	 mov	 ecx, DWORD PTR [ecx+4]
  00010	c6 04 01 00	 mov	 BYTE PTR [ecx+eax], 0

; 1476 : 		}

  00014	c2 04 00	 ret	 4

; 1475 : 		_Traits::assign(_Myptr()[_Mysize = _Newsize], _Elem());

$L271103:
  00017	c6 44 01 04 00	 mov	 BYTE PTR [ecx+eax+4], 0

; 1476 : 		}

  0001c	c2 04 00	 ret	 4
?_Eos@?$basic_string@DU?$char_traits@D@std@@V?$allocator@D@2@@std@@IAEXI@Z ENDP ; std::basic_string<char,std::char_traits<char>,std::allocator<char> >::_Eos
_TEXT	ENDS
PUBLIC	?_Lbound@?$_Tree@V?$_Tmap_traits@KPAVCUser@@U?$less@K@std@@V?$allocator@U?$pair@$$CBKPAVCUser@@@std@@@3@$0A@@std@@@std@@IBEPAU_Node@?$_Tree_nod@V?$_Tmap_traits@KPAVCUser@@U?$less@K@std@@V?$allocator@U?$pair@$$CBKPAVCUser@@@std@@@3@$0A@@std@@@2@ABK@Z ; std::_Tree<std::_Tmap_traits<unsigned long,CUser *,std::less<unsigned long>,std::allocator<std::pair<unsigned long const ,CUser *> >,0> >::_Lbound
; Function compile flags: /Ogty
; File c:\program files\microsoft visual studio .net 2003\vc7\include\xtree
;	COMDAT ?_Lbound@?$_Tree@V?$_Tmap_traits@KPAVCUser@@U?$less@K@std@@V?$allocator@U?$pair@$$CBKPAVCUser@@@std@@@3@$0A@@std@@@std@@IBEPAU_Node@?$_Tree_nod@V?$_Tmap_traits@KPAVCUser@@U?$less@K@std@@V?$allocator@U?$pair@$$CBKPAVCUser@@@std@@@3@$0A@@std@@@2@ABK@Z
_TEXT	SEGMENT
__Keyval$ = 8						; size = 4
?_Lbound@?$_Tree@V?$_Tmap_traits@KPAVCUser@@U?$less@K@std@@V?$allocator@U?$pair@$$CBKPAVCUser@@@std@@@3@$0A@@std@@@std@@IBEPAU_Node@?$_Tree_nod@V?$_Tmap_traits@KPAVCUser@@U?$less@K@std@@V?$allocator@U?$pair@$$CBKPAVCUser@@@std@@@3@$0A@@std@@@2@ABK@Z PROC NEAR ; std::_Tree<std::_Tmap_traits<unsigned long,CUser *,std::less<unsigned long>,std::allocator<std::pair<unsigned long const ,CUser *> >,0> >::_Lbound, COMDAT
; _this$ = ecx

; 988  : 		_Nodeptr _Pnode = _Root();

  00000	8b 41 04	 mov	 eax, DWORD PTR [ecx+4]
  00003	8b 48 04	 mov	 ecx, DWORD PTR [eax+4]

; 989  : 		_Nodeptr _Wherenode = _Myhead;	// end() if search fails
; 990  : 
; 991  : 		while (!_Isnil(_Pnode))

  00006	8a 51 15	 mov	 dl, BYTE PTR [ecx+21]
  00009	84 d2		 test	 dl, dl
  0000b	75 1d		 jne	 SHORT $L221597
  0000d	8b 54 24 04	 mov	 edx, DWORD PTR __Keyval$[esp-4]
  00011	8b 12		 mov	 edx, DWORD PTR [edx]
  00013	53		 push	 ebx
$L221596:

; 992  : 			if (this->comp(_Key(_Pnode), _Keyval))

  00014	39 51 0c	 cmp	 DWORD PTR [ecx+12], edx
  00017	73 05		 jae	 SHORT $L221598

; 993  : 				_Pnode = _Right(_Pnode);	// descend right subtree

  00019	8b 49 08	 mov	 ecx, DWORD PTR [ecx+8]

; 994  : 			else

  0001c	eb 04		 jmp	 SHORT $L221599
$L221598:

; 995  : 				{	// _Pnode not less than _Keyval, remember it
; 996  : 				_Wherenode = _Pnode;

  0001e	8b c1		 mov	 eax, ecx

; 997  : 				_Pnode = _Left(_Pnode);	// descend left subtree

  00020	8b 09		 mov	 ecx, DWORD PTR [ecx]
$L221599:
  00022	8a 59 15	 mov	 bl, BYTE PTR [ecx+21]
  00025	84 db		 test	 bl, bl
  00027	74 eb		 je	 SHORT $L221596
  00029	5b		 pop	 ebx
$L221597:

; 998  : 				}
; 999  : 
; 1000 : 		return (_Wherenode);	// return best remembered candidate
; 1001 : 		}

  0002a	c2 04 00	 ret	 4
?_Lbound@?$_Tree@V?$_Tmap_traits@KPAVCUser@@U?$less@K@std@@V?$allocator@U?$pair@$$CBKPAVCUser@@@std@@@3@$0A@@std@@@std@@IBEPAU_Node@?$_Tree_nod@V?$_Tmap_traits@KPAVCUser@@U?$less@K@std@@V?$allocator@U?$pair@$$CBKPAVCUser@@@std@@@3@$0A@@std@@@2@ABK@Z ENDP ; std::_Tree<std::_Tmap_traits<unsigned long,CUser *,std::less<unsigned long>,std::allocator<std::pair<unsigned long const ,CUser *> >,0> >::_Lbound
_TEXT	ENDS
PUBLIC	??0iterator@?$_Tree@V?$_Tmap_traits@KPAVCUser@@U?$less@K@std@@V?$allocator@U?$pair@$$CBKPAVCUser@@@std@@@3@$0A@@std@@@std@@QAE@XZ ; std::_Tree<std::_Tmap_traits<unsigned long,CUser *,std::less<unsigned long>,std::allocator<std::pair<unsigned long const ,CUser *> >,0> >::iterator::iterator
; Function compile flags: /Ogty
;	COMDAT ??0iterator@?$_Tree@V?$_Tmap_traits@KPAVCUser@@U?$less@K@std@@V?$allocator@U?$pair@$$CBKPAVCUser@@@std@@@3@$0A@@std@@@std@@QAE@XZ
_TEXT	SEGMENT
??0iterator@?$_Tree@V?$_Tmap_traits@KPAVCUser@@U?$less@K@std@@V?$allocator@U?$pair@$$CBKPAVCUser@@@std@@@3@$0A@@std@@@std@@QAE@XZ PROC NEAR ; std::_Tree<std::_Tmap_traits<unsigned long,CUser *,std::less<unsigned long>,std::allocator<std::pair<unsigned long const ,CUser *> >,0> >::iterator::iterator, COMDAT
; _this$ = ecx

; 304  : 		iterator()

  00000	8b c1		 mov	 eax, ecx
  00002	c7 00 00 00 00
	00		 mov	 DWORD PTR [eax], 0

; 305  : 			{	// construct with null node pointer
; 306  : 			}

  00008	c3		 ret	 0
??0iterator@?$_Tree@V?$_Tmap_traits@KPAVCUser@@U?$less@K@std@@V?$allocator@U?$pair@$$CBKPAVCUser@@@std@@@3@$0A@@std@@@std@@QAE@XZ ENDP ; std::_Tree<std::_Tmap_traits<unsigned long,CUser *,std::less<unsigned long>,std::allocator<std::pair<unsigned long const ,CUser *> >,0> >::iterator::iterator
_TEXT	ENDS
PUBLIC	??0iterator@?$_Tree@V?$_Tmap_traits@KPAVCUser@@U?$less@K@std@@V?$allocator@U?$pair@$$CBKPAVCUser@@@std@@@3@$0A@@std@@@std@@QAE@PAU_Node@?$_Tree_nod@V?$_Tmap_traits@KPAVCUser@@U?$less@K@std@@V?$allocator@U?$pair@$$CBKPAVCUser@@@std@@@3@$0A@@std@@@2@@Z ; std::_Tree<std::_Tmap_traits<unsigned long,CUser *,std::less<unsigned long>,std::allocator<std::pair<unsigned long const ,CUser *> >,0> >::iterator::iterator
; Function compile flags: /Ogty
;	COMDAT ??0iterator@?$_Tree@V?$_Tmap_traits@KPAVCUser@@U?$less@K@std@@V?$allocator@U?$pair@$$CBKPAVCUser@@@std@@@3@$0A@@std@@@std@@QAE@PAU_Node@?$_Tree_nod@V?$_Tmap_traits@KPAVCUser@@U?$less@K@std@@V?$allocator@U?$pair@$$CBKPAVCUser@@@std@@@3@$0A@@std@@@2@@Z
_TEXT	SEGMENT
__Pnode$ = 8						; size = 4
??0iterator@?$_Tree@V?$_Tmap_traits@KPAVCUser@@U?$less@K@std@@V?$allocator@U?$pair@$$CBKPAVCUser@@@std@@@3@$0A@@std@@@std@@QAE@PAU_Node@?$_Tree_nod@V?$_Tmap_traits@KPAVCUser@@U?$less@K@std@@V?$allocator@U?$pair@$$CBKPAVCUser@@@std@@@3@$0A@@std@@@2@@Z PROC NEAR ; std::_Tree<std::_Tmap_traits<unsigned long,CUser *,std::less<unsigned long>,std::allocator<std::pair<unsigned long const ,CUser *> >,0> >::iterator::iterator, COMDAT
; _this$ = ecx

; 312  : 			{	// construct with node pointer _Pnode

  00000	8b c1		 mov	 eax, ecx
  00002	8b 4c 24 04	 mov	 ecx, DWORD PTR __Pnode$[esp-4]
  00006	89 08		 mov	 DWORD PTR [eax], ecx

; 313  : 			}

  00008	c2 04 00	 ret	 4
??0iterator@?$_Tree@V?$_Tmap_traits@KPAVCUser@@U?$less@K@std@@V?$allocator@U?$pair@$$CBKPAVCUser@@@std@@@3@$0A@@std@@@std@@QAE@PAU_Node@?$_Tree_nod@V?$_Tmap_traits@KPAVCUser@@U?$less@K@std@@V?$allocator@U?$pair@$$CBKPAVCUser@@@std@@@3@$0A@@std@@@2@@Z ENDP ; std::_Tree<std::_Tmap_traits<unsigned long,CUser *,std::less<unsigned long>,std::allocator<std::pair<unsigned long const ,CUser *> >,0> >::iterator::iterator
_TEXT	ENDS
PUBLIC	?_Destroy@?$vector@KV?$allocator@K@std@@@std@@IAEXPAK0@Z ; std::vector<unsigned long,std::allocator<unsigned long> >::_Destroy
; Function compile flags: /Ogty
; File c:\program files\microsoft visual studio .net 2003\vc7\include\vector
;	COMDAT ?_Destroy@?$vector@KV?$allocator@K@std@@@std@@IAEXPAK0@Z
_TEXT	SEGMENT
__First$ = 8						; size = 4
__Last$ = 12						; size = 4
?_Destroy@?$vector@KV?$allocator@K@std@@@std@@IAEXPAK0@Z PROC NEAR ; std::vector<unsigned long,std::allocator<unsigned long> >::_Destroy, COMDAT
; _this$ = ecx

; 787  : 		_Destroy_range(_First, _Last, this->_Alval);
; 788  : 		}

  00000	c2 08 00	 ret	 8
?_Destroy@?$vector@KV?$allocator@K@std@@@std@@IAEXPAK0@Z ENDP ; std::vector<unsigned long,std::allocator<unsigned long> >::_Destroy
_TEXT	ENDS
PUBLIC	?max_size@?$vector@UD3DXVECTOR3@@V?$allocator@UD3DXVECTOR3@@@std@@@std@@QBEIXZ ; std::vector<D3DXVECTOR3,std::allocator<D3DXVECTOR3> >::max_size
; Function compile flags: /Ogty
;	COMDAT ?max_size@?$vector@UD3DXVECTOR3@@V?$allocator@UD3DXVECTOR3@@@std@@@std@@QBEIXZ
_TEXT	SEGMENT
?max_size@?$vector@UD3DXVECTOR3@@V?$allocator@UD3DXVECTOR3@@@std@@@std@@QBEIXZ PROC NEAR ; std::vector<D3DXVECTOR3,std::allocator<D3DXVECTOR3> >::max_size, COMDAT
; _this$ = ecx

; 521  : 		return (this->_Alval.max_size());

  00000	b8 55 55 55 15	 mov	 eax, 357913941		; 15555555H

; 522  : 		}

  00005	c3		 ret	 0
?max_size@?$vector@UD3DXVECTOR3@@V?$allocator@UD3DXVECTOR3@@@std@@@std@@QBEIXZ ENDP ; std::vector<D3DXVECTOR3,std::allocator<D3DXVECTOR3> >::max_size
_TEXT	ENDS
PUBLIC	?allocate@?$allocator@UD3DXVECTOR3@@@std@@QAEPAUD3DXVECTOR3@@I@Z ; std::allocator<D3DXVECTOR3>::allocate
; Function compile flags: /Ogty
; File c:\program files\microsoft visual studio .net 2003\vc7\include\xmemory
;	COMDAT ?allocate@?$allocator@UD3DXVECTOR3@@@std@@QAEPAUD3DXVECTOR3@@I@Z
_TEXT	SEGMENT
__Count$ = 8						; size = 4
?allocate@?$allocator@UD3DXVECTOR3@@@std@@QAEPAUD3DXVECTOR3@@I@Z PROC NEAR ; std::allocator<D3DXVECTOR3>::allocate, COMDAT
; _this$ = ecx

; 137  : 		return (_Allocate(_Count, (pointer)0));

  00000	8b 44 24 04	 mov	 eax, DWORD PTR __Count$[esp-4]
  00004	8d 04 40	 lea	 eax, DWORD PTR [eax+eax*2]
  00007	c1 e0 02	 shl	 eax, 2
  0000a	50		 push	 eax
  0000b	e8 00 00 00 00	 call	 ??2@YAPAXI@Z		; operator new
  00010	83 c4 04	 add	 esp, 4

; 138  : 		}

  00013	c2 04 00	 ret	 4
?allocate@?$allocator@UD3DXVECTOR3@@@std@@QAEPAUD3DXVECTOR3@@I@Z ENDP ; std::allocator<D3DXVECTOR3>::allocate
_TEXT	ENDS
PUBLIC	?max_size@?$basic_string@DU?$char_traits@D@std@@V?$allocator@D@2@@std@@QBEIXZ ; std::basic_string<char,std::char_traits<char>,std::allocator<char> >::max_size
; Function compile flags: /Ogty
; File c:\program files\microsoft visual studio .net 2003\vc7\include\xstring
;	COMDAT ?max_size@?$basic_string@DU?$char_traits@D@std@@V?$allocator@D@2@@std@@QBEIXZ
_TEXT	SEGMENT
?max_size@?$basic_string@DU?$char_traits@D@std@@V?$allocator@D@2@@std@@QBEIXZ PROC NEAR ; std::basic_string<char,std::char_traits<char>,std::allocator<char> >::max_size, COMDAT
; _this$ = ecx

; 1114 : 		size_type _Num = _Mybase::_Alval.max_size();
; 1115 : 		return (_Num <= 1 ? 1 : _Num - 1);

  00000	b8 fe ff ff ff	 mov	 eax, -2			; fffffffeH

; 1116 : 		}

  00005	c3		 ret	 0
?max_size@?$basic_string@DU?$char_traits@D@std@@V?$allocator@D@2@@std@@QBEIXZ ENDP ; std::basic_string<char,std::char_traits<char>,std::allocator<char> >::max_size
_TEXT	ENDS
PUBLIC	?max_size@?$_Tree@V?$_Tmap_traits@KPAVCUser@@U?$less@K@std@@V?$allocator@U?$pair@$$CBKPAVCUser@@@std@@@3@$0A@@std@@@std@@QBEIXZ ; std::_Tree<std::_Tmap_traits<unsigned long,CUser *,std::less<unsigned long>,std::allocator<std::pair<unsigned long const ,CUser *> >,0> >::max_size
; Function compile flags: /Ogty
; File c:\program files\microsoft visual studio .net 2003\vc7\include\xtree
;	COMDAT ?max_size@?$_Tree@V?$_Tmap_traits@KPAVCUser@@U?$less@K@std@@V?$allocator@U?$pair@$$CBKPAVCUser@@@std@@@3@$0A@@std@@@std@@QBEIXZ
_TEXT	SEGMENT
?max_size@?$_Tree@V?$_Tmap_traits@KPAVCUser@@U?$less@K@std@@V?$allocator@U?$pair@$$CBKPAVCUser@@@std@@@3@$0A@@std@@@std@@QBEIXZ PROC NEAR ; std::_Tree<std::_Tmap_traits<unsigned long,CUser *,std::less<unsigned long>,std::allocator<std::pair<unsigned long const ,CUser *> >,0> >::max_size, COMDAT
; _this$ = ecx

; 453  : 		return (this->_Alval.max_size());

  00000	b8 ff ff ff 1f	 mov	 eax, 536870911		; 1fffffffH

; 454  : 		}

  00005	c3		 ret	 0
?max_size@?$_Tree@V?$_Tmap_traits@KPAVCUser@@U?$less@K@std@@V?$allocator@U?$pair@$$CBKPAVCUser@@@std@@@3@$0A@@std@@@std@@QBEIXZ ENDP ; std::_Tree<std::_Tmap_traits<unsigned long,CUser *,std::less<unsigned long>,std::allocator<std::pair<unsigned long const ,CUser *> >,0> >::max_size
_TEXT	ENDS
PUBLIC	?_Lrotate@?$_Tree@V?$_Tmap_traits@KPAVCUser@@U?$less@K@std@@V?$allocator@U?$pair@$$CBKPAVCUser@@@std@@@3@$0A@@std@@@std@@IAEXPAU_Node@?$_Tree_nod@V?$_Tmap_traits@KPAVCUser@@U?$less@K@std@@V?$allocator@U?$pair@$$CBKPAVCUser@@@std@@@3@$0A@@std@@@2@@Z ; std::_Tree<std::_Tmap_traits<unsigned long,CUser *,std::less<unsigned long>,std::allocator<std::pair<unsigned long const ,CUser *> >,0> >::_Lrotate
; Function compile flags: /Ogty
;	COMDAT ?_Lrotate@?$_Tree@V?$_Tmap_traits@KPAVCUser@@U?$less@K@std@@V?$allocator@U?$pair@$$CBKPAVCUser@@@std@@@3@$0A@@std@@@std@@IAEXPAU_Node@?$_Tree_nod@V?$_Tmap_traits@KPAVCUser@@U?$less@K@std@@V?$allocator@U?$pair@$$CBKPAVCUser@@@std@@@3@$0A@@std@@@2@@Z
_TEXT	SEGMENT
__Wherenode$ = 8					; size = 4
?_Lrotate@?$_Tree@V?$_Tmap_traits@KPAVCUser@@U?$less@K@std@@V?$allocator@U?$pair@$$CBKPAVCUser@@@std@@@3@$0A@@std@@@std@@IAEXPAU_Node@?$_Tree_nod@V?$_Tmap_traits@KPAVCUser@@U?$less@K@std@@V?$allocator@U?$pair@$$CBKPAVCUser@@@std@@@3@$0A@@std@@@2@@Z PROC NEAR ; std::_Tree<std::_Tmap_traits<unsigned long,CUser *,std::less<unsigned long>,std::allocator<std::pair<unsigned long const ,CUser *> >,0> >::_Lrotate, COMDAT
; _this$ = ecx

; 1015 : 		_Nodeptr _Pnode = _Right(_Wherenode);

  00000	8b 54 24 04	 mov	 edx, DWORD PTR __Wherenode$[esp-4]
  00004	8b 42 08	 mov	 eax, DWORD PTR [edx+8]
  00007	53		 push	 ebx
  00008	56		 push	 esi

; 1016 : 		_Right(_Wherenode) = _Left(_Pnode);

  00009	8b 30		 mov	 esi, DWORD PTR [eax]
  0000b	89 72 08	 mov	 DWORD PTR [edx+8], esi

; 1017 : 
; 1018 : 		if (!_Isnil(_Left(_Pnode)))

  0000e	8b 30		 mov	 esi, DWORD PTR [eax]
  00010	8a 5e 15	 mov	 bl, BYTE PTR [esi+21]
  00013	84 db		 test	 bl, bl
  00015	75 03		 jne	 SHORT $L222814

; 1019 : 			_Parent(_Left(_Pnode)) = _Wherenode;

  00017	89 56 04	 mov	 DWORD PTR [esi+4], edx
$L222814:

; 1020 : 		_Parent(_Pnode) = _Parent(_Wherenode);

  0001a	8b 72 04	 mov	 esi, DWORD PTR [edx+4]
  0001d	89 70 04	 mov	 DWORD PTR [eax+4], esi

; 1021 : 
; 1022 : 		if (_Wherenode == _Root())

  00020	8b 49 04	 mov	 ecx, DWORD PTR [ecx+4]
  00023	3b 51 04	 cmp	 edx, DWORD PTR [ecx+4]
  00026	75 0d		 jne	 SHORT $L222815

; 1023 : 			_Root() = _Pnode;

  00028	89 41 04	 mov	 DWORD PTR [ecx+4], eax
  0002b	5e		 pop	 esi

; 1028 : 
; 1029 : 		_Left(_Pnode) = _Wherenode;

  0002c	89 10		 mov	 DWORD PTR [eax], edx

; 1030 : 		_Parent(_Wherenode) = _Pnode;

  0002e	89 42 04	 mov	 DWORD PTR [edx+4], eax
  00031	5b		 pop	 ebx

; 1031 : 		}

  00032	c2 04 00	 ret	 4
$L222815:

; 1024 : 		else if (_Wherenode == _Left(_Parent(_Wherenode)))

  00035	8b 4a 04	 mov	 ecx, DWORD PTR [edx+4]
  00038	3b 11		 cmp	 edx, DWORD PTR [ecx]
  0003a	75 0c		 jne	 SHORT $L222817

; 1025 : 			_Left(_Parent(_Wherenode)) = _Pnode;

  0003c	89 01		 mov	 DWORD PTR [ecx], eax
  0003e	5e		 pop	 esi

; 1028 : 
; 1029 : 		_Left(_Pnode) = _Wherenode;

  0003f	89 10		 mov	 DWORD PTR [eax], edx

; 1030 : 		_Parent(_Wherenode) = _Pnode;

  00041	89 42 04	 mov	 DWORD PTR [edx+4], eax
  00044	5b		 pop	 ebx

; 1031 : 		}

  00045	c2 04 00	 ret	 4
$L222817:

; 1026 : 		else
; 1027 : 			_Right(_Parent(_Wherenode)) = _Pnode;

  00048	89 41 08	 mov	 DWORD PTR [ecx+8], eax
  0004b	5e		 pop	 esi

; 1028 : 
; 1029 : 		_Left(_Pnode) = _Wherenode;

  0004c	89 10		 mov	 DWORD PTR [eax], edx

; 1030 : 		_Parent(_Wherenode) = _Pnode;

  0004e	89 42 04	 mov	 DWORD PTR [edx+4], eax
  00051	5b		 pop	 ebx

; 1031 : 		}

  00052	c2 04 00	 ret	 4
?_Lrotate@?$_Tree@V?$_Tmap_traits@KPAVCUser@@U?$less@K@std@@V?$allocator@U?$pair@$$CBKPAVCUser@@@std@@@3@$0A@@std@@@std@@IAEXPAU_Node@?$_Tree_nod@V?$_Tmap_traits@KPAVCUser@@U?$less@K@std@@V?$allocator@U?$pair@$$CBKPAVCUser@@@std@@@3@$0A@@std@@@2@@Z ENDP ; std::_Tree<std::_Tmap_traits<unsigned long,CUser *,std::less<unsigned long>,std::allocator<std::pair<unsigned long const ,CUser *> >,0> >::_Lrotate
_TEXT	ENDS
PUBLIC	??Econst_iterator@?$_Tree@V?$_Tmap_traits@KPAVCUser@@U?$less@K@std@@V?$allocator@U?$pair@$$CBKPAVCUser@@@std@@@3@$0A@@std@@@std@@QAEAAV012@XZ ; std::_Tree<std::_Tmap_traits<unsigned long,CUser *,std::less<unsigned long>,std::allocator<std::pair<unsigned long const ,CUser *> >,0> >::const_iterator::operator++
; Function compile flags: /Ogty
;	COMDAT ??Econst_iterator@?$_Tree@V?$_Tmap_traits@KPAVCUser@@U?$less@K@std@@V?$allocator@U?$pair@$$CBKPAVCUser@@@std@@@3@$0A@@std@@@std@@QAEAAV012@XZ
_TEXT	SEGMENT
??Econst_iterator@?$_Tree@V?$_Tmap_traits@KPAVCUser@@U?$less@K@std@@V?$allocator@U?$pair@$$CBKPAVCUser@@@std@@@3@$0A@@std@@@std@@QAEAAV012@XZ PROC NEAR ; std::_Tree<std::_Tmap_traits<unsigned long,CUser *,std::less<unsigned long>,std::allocator<std::pair<unsigned long const ,CUser *> >,0> >::const_iterator::operator++, COMDAT
; _this$ = ecx

; 214  : 			{	// preincrement

  00000	56		 push	 esi
  00001	8b f1		 mov	 esi, ecx

; 215  : 			_Inc();

  00003	e8 00 00 00 00	 call	 ?_Inc@const_iterator@?$_Tree@V?$_Tmap_traits@KPAVCUser@@U?$less@K@std@@V?$allocator@U?$pair@$$CBKPAVCUser@@@std@@@3@$0A@@std@@@std@@QAEXXZ ; std::_Tree<std::_Tmap_traits<unsigned long,CUser *,std::less<unsigned long>,std::allocator<std::pair<unsigned long const ,CUser *> >,0> >::const_iterator::_Inc

; 216  : 			return (*this);

  00008	8b c6		 mov	 eax, esi
  0000a	5e		 pop	 esi

; 217  : 			}

  0000b	c3		 ret	 0
??Econst_iterator@?$_Tree@V?$_Tmap_traits@KPAVCUser@@U?$less@K@std@@V?$allocator@U?$pair@$$CBKPAVCUser@@@std@@@3@$0A@@std@@@std@@QAEAAV012@XZ ENDP ; std::_Tree<std::_Tmap_traits<unsigned long,CUser *,std::less<unsigned long>,std::allocator<std::pair<unsigned long const ,CUser *> >,0> >::const_iterator::operator++
_TEXT	ENDS
PUBLIC	??Fconst_iterator@?$_Tree@V?$_Tmap_traits@KPAVCUser@@U?$less@K@std@@V?$allocator@U?$pair@$$CBKPAVCUser@@@std@@@3@$0A@@std@@@std@@QAEAAV012@XZ ; std::_Tree<std::_Tmap_traits<unsigned long,CUser *,std::less<unsigned long>,std::allocator<std::pair<unsigned long const ,CUser *> >,0> >::const_iterator::operator--
; Function compile flags: /Ogty
;	COMDAT ??Fconst_iterator@?$_Tree@V?$_Tmap_traits@KPAVCUser@@U?$less@K@std@@V?$allocator@U?$pair@$$CBKPAVCUser@@@std@@@3@$0A@@std@@@std@@QAEAAV012@XZ
_TEXT	SEGMENT
??Fconst_iterator@?$_Tree@V?$_Tmap_traits@KPAVCUser@@U?$less@K@std@@V?$allocator@U?$pair@$$CBKPAVCUser@@@std@@@3@$0A@@std@@@std@@QAEAAV012@XZ PROC NEAR ; std::_Tree<std::_Tmap_traits<unsigned long,CUser *,std::less<unsigned long>,std::allocator<std::pair<unsigned long const ,CUser *> >,0> >::const_iterator::operator--, COMDAT
; _this$ = ecx

; 227  : 			{	// predecrement

  00000	56		 push	 esi
  00001	8b f1		 mov	 esi, ecx

; 228  : 			_Dec();

  00003	e8 00 00 00 00	 call	 ?_Dec@const_iterator@?$_Tree@V?$_Tmap_traits@KPAVCUser@@U?$less@K@std@@V?$allocator@U?$pair@$$CBKPAVCUser@@@std@@@3@$0A@@std@@@std@@QAEXXZ ; std::_Tree<std::_Tmap_traits<unsigned long,CUser *,std::less<unsigned long>,std::allocator<std::pair<unsigned long const ,CUser *> >,0> >::const_iterator::_Dec

; 229  : 			return (*this);

  00008	8b c6		 mov	 eax, esi
  0000a	5e		 pop	 esi

; 230  : 			}

  0000b	c3		 ret	 0
??Fconst_iterator@?$_Tree@V?$_Tmap_traits@KPAVCUser@@U?$less@K@std@@V?$allocator@U?$pair@$$CBKPAVCUser@@@std@@@3@$0A@@std@@@std@@QAEAAV012@XZ ENDP ; std::_Tree<std::_Tmap_traits<unsigned long,CUser *,std::less<unsigned long>,std::allocator<std::pair<unsigned long const ,CUser *> >,0> >::const_iterator::operator--
_TEXT	ENDS
PUBLIC	?allocate@?$allocator@D@std@@QAEPADI@Z		; std::allocator<char>::allocate
; Function compile flags: /Ogty
; File c:\program files\microsoft visual studio .net 2003\vc7\include\xmemory
;	COMDAT ?allocate@?$allocator@D@std@@QAEPADI@Z
_TEXT	SEGMENT
__Count$ = 8						; size = 4
?allocate@?$allocator@D@std@@QAEPADI@Z PROC NEAR	; std::allocator<char>::allocate, COMDAT
; _this$ = ecx

; 137  : 		return (_Allocate(_Count, (pointer)0));

  00000	8b 44 24 04	 mov	 eax, DWORD PTR __Count$[esp-4]
  00004	50		 push	 eax
  00005	e8 00 00 00 00	 call	 ??2@YAPAXI@Z		; operator new
  0000a	83 c4 04	 add	 esp, 4

; 138  : 		}

  0000d	c2 04 00	 ret	 4
?allocate@?$allocator@D@std@@QAEPADI@Z ENDP		; std::allocator<char>::allocate
_TEXT	ENDS
PUBLIC	?allocate@?$allocator@U_Node@?$_Tree_nod@V?$_Tmap_traits@KPAVCUser@@U?$less@K@std@@V?$allocator@U?$pair@$$CBKPAVCUser@@@std@@@3@$0A@@std@@@std@@@std@@QAEPAU_Node@?$_Tree_nod@V?$_Tmap_traits@KPAVCUser@@U?$less@K@std@@V?$allocator@U?$pair@$$CBKPAVCUser@@@std@@@3@$0A@@std@@@2@I@Z ; std::allocator<std::_Tree_nod<std::_Tmap_traits<unsigned long,CUser *,std::less<unsigned long>,std::allocator<std::pair<unsigned long const ,CUser *> >,0> >::_Node>::allocate
; Function compile flags: /Ogty
;	COMDAT ?allocate@?$allocator@U_Node@?$_Tree_nod@V?$_Tmap_traits@KPAVCUser@@U?$less@K@std@@V?$allocator@U?$pair@$$CBKPAVCUser@@@std@@@3@$0A@@std@@@std@@@std@@QAEPAU_Node@?$_Tree_nod@V?$_Tmap_traits@KPAVCUser@@U?$less@K@std@@V?$allocator@U?$pair@$$CBKPAVCUser@@@std@@@3@$0A@@std@@@2@I@Z
_TEXT	SEGMENT
__Count$ = 8						; size = 4
?allocate@?$allocator@U_Node@?$_Tree_nod@V?$_Tmap_traits@KPAVCUser@@U?$less@K@std@@V?$allocator@U?$pair@$$CBKPAVCUser@@@std@@@3@$0A@@std@@@std@@@std@@QAEPAU_Node@?$_Tree_nod@V?$_Tmap_traits@KPAVCUser@@U?$less@K@std@@V?$allocator@U?$pair@$$CBKPAVCUser@@@std@@@3@$0A@@std@@@2@I@Z PROC NEAR ; std::allocator<std::_Tree_nod<std::_Tmap_traits<unsigned long,CUser *,std::less<unsigned long>,std::allocator<std::pair<unsigned long const ,CUser *> >,0> >::_Node>::allocate, COMDAT
; _this$ = ecx

; 137  : 		return (_Allocate(_Count, (pointer)0));

  00000	8b 44 24 04	 mov	 eax, DWORD PTR __Count$[esp-4]
  00004	8d 04 40	 lea	 eax, DWORD PTR [eax+eax*2]
  00007	c1 e0 03	 shl	 eax, 3
  0000a	50		 push	 eax
  0000b	e8 00 00 00 00	 call	 ??2@YAPAXI@Z		; operator new
  00010	83 c4 04	 add	 esp, 4

; 138  : 		}

  00013	c2 04 00	 ret	 4
?allocate@?$allocator@U_Node@?$_Tree_nod@V?$_Tmap_traits@KPAVCUser@@U?$less@K@std@@V?$allocator@U?$pair@$$CBKPAVCUser@@@std@@@3@$0A@@std@@@std@@@std@@QAEPAU_Node@?$_Tree_nod@V?$_Tmap_traits@KPAVCUser@@U?$less@K@std@@V?$allocator@U?$pair@$$CBKPAVCUser@@@std@@@3@$0A@@std@@@2@I@Z ENDP ; std::allocator<std::_Tree_nod<std::_Tmap_traits<unsigned long,CUser *,std::less<unsigned long>,std::allocator<std::pair<unsigned long const ,CUser *> >,0> >::_Node>::allocate
_TEXT	ENDS
PUBLIC	?AddObj@CWorld@@QAEHPAVCObj@@HH@Z		; CWorld::AddObj
PUBLIC	??_C@_0CI@KCJBBNGD@CWorld?3?3AddObj?5obj?8s?5world?5is?5NO@ ; `string'
PUBLIC	??_C@_0CK@OMOEDGKP@CWorld?3?3AddObj?5world?5id?3?$CFd?5x?3?$CFf?5@ ; `string'
EXTRN	?UpdateLocalMatrix@CObj@@QAEXXZ:NEAR		; CObj::UpdateLocalMatrix
EXTRN	?SetPos@CObj@@QAEXABUD3DXVECTOR3@@@Z:NEAR	; CObj::SetPos
;	COMDAT ??_C@_0CI@KCJBBNGD@CWorld?3?3AddObj?5obj?8s?5world?5is?5NO@
; File c:\documents and settings\test\mes documents\source\virtuos_v17\build\program\_common\obj.h
CONST	SEGMENT
??_C@_0CI@KCJBBNGD@CWorld?3?3AddObj?5obj?8s?5world?5is?5NO@ DB 'CWorld::A'
	DB	'ddObj obj''s world is NOT NULL.', 00H	; `string'
CONST	ENDS
;	COMDAT ??_C@_0CK@OMOEDGKP@CWorld?3?3AddObj?5world?5id?3?$CFd?5x?3?$CFf?5@
CONST	SEGMENT
??_C@_0CK@OMOEDGKP@CWorld?3?3AddObj?5world?5id?3?$CFd?5x?3?$CFf?5@ DB 'CW'
	DB	'orld::AddObj world id:%d x:%f y:%f z:%f', 00H ; `string'
; Function compile flags: /Ogty
; File c:\documents and settings\test\mes documents\source\virtuos_v17\build\program\_common\world.cpp
CONST	ENDS
;	COMDAT ?AddObj@CWorld@@QAEHPAVCObj@@HH@Z
_TEXT	SEGMENT
_v$ = -24						; size = 12
$T271298 = -12						; size = 12
_pObj$ = 8						; size = 4
_bAddItToGlobalId$ = 12					; size = 4
_nLayer$ = 16						; size = 4
?AddObj@CWorld@@QAEHPAVCObj@@HH@Z PROC NEAR		; CWorld::AddObj, COMDAT
; _this$ = ecx

; 428  : {

  00000	83 ec 18	 sub	 esp, 24			; 00000018H
  00003	56		 push	 esi

; 429  : 	if( pObj->GetWorld() )

  00004	8b 74 24 20	 mov	 esi, DWORD PTR _pObj$[esp+24]
  00008	8b 86 6c 01 00
	00		 mov	 eax, DWORD PTR [esi+364]
  0000e	85 c0		 test	 eax, eax
  00010	57		 push	 edi
  00011	8b f9		 mov	 edi, ecx
  00013	74 17		 je	 SHORT $L262493

; 430  : 	{
; 431  : 		WriteError("CWorld::AddObj obj's world is NOT NULL." );

  00015	68 00 00 00 00	 push	 OFFSET FLAT:??_C@_0CI@KCJBBNGD@CWorld?3?3AddObj?5obj?8s?5world?5is?5NO@
  0001a	e8 00 00 00 00	 call	 ?WriteError@@YAXPBDZZ	; WriteError
  0001f	83 c4 04	 add	 esp, 4
  00022	5f		 pop	 edi

; 432  : 		return FALSE;

  00023	33 c0		 xor	 eax, eax
  00025	5e		 pop	 esi

; 513  : }

  00026	83 c4 18	 add	 esp, 24			; 00000018H
  00029	c2 0c 00	 ret	 12			; 0000000cH
$L262493:

; 433  : 	}
; 434  : 
; 435  : 	D3DXVECTOR3 v = pObj->GetPos();

  0002c	8d 86 60 01 00
	00		 lea	 eax, DWORD PTR [esi+352]
  00032	8b 08		 mov	 ecx, DWORD PTR [eax]
  00034	8b 50 04	 mov	 edx, DWORD PTR [eax+4]
  00037	8b 40 08	 mov	 eax, DWORD PTR [eax+8]
  0003a	89 54 24 0c	 mov	 DWORD PTR _v$[esp+36], edx

; 436  : 	if( VecInWorld( v ) == FALSE )

  0003e	d9 44 24 0c	 fld	 DWORD PTR _v$[esp+36]
  00042	83 ec 08	 sub	 esp, 8
  00045	dd 1c 24	 fstp	 QWORD PTR [esp]
  00048	89 4c 24 10	 mov	 DWORD PTR _v$[esp+40], ecx
  0004c	89 44 24 18	 mov	 DWORD PTR _v$[esp+48], eax
  00050	e8 00 00 00 00	 call	 __isnan
  00055	83 c4 08	 add	 esp, 8
  00058	85 c0		 test	 eax, eax
  0005a	75 15		 jne	 SHORT $L271328
  0005c	8b 4c 24 10	 mov	 ecx, DWORD PTR _v$[esp+40]
  00060	8b 54 24 08	 mov	 edx, DWORD PTR _v$[esp+32]
  00064	51		 push	 ecx
  00065	52		 push	 edx
  00066	8b cf		 mov	 ecx, edi
  00068	e8 00 00 00 00	 call	 ?VecInWorld@CWorld@@QAEHMM@Z ; CWorld::VecInWorld
  0006d	85 c0		 test	 eax, eax
  0006f	75 34		 jne	 SHORT $L262497
$L271328:

; 437  : 	{
; 438  : 		WriteError("CWorld::AddObj world id:%d x:%f y:%f z:%f", GetID(), v.x, v.y, v.z );

  00071	d9 44 24 10	 fld	 DWORD PTR _v$[esp+40]
  00075	8b 07		 mov	 eax, DWORD PTR [edi]
  00077	83 ec 18	 sub	 esp, 24			; 00000018H
  0007a	dd 5c 24 10	 fstp	 QWORD PTR [esp+16]
  0007e	d9 44 24 24	 fld	 DWORD PTR _v$[esp+60]
  00082	dd 5c 24 08	 fstp	 QWORD PTR [esp+8]
  00086	d9 44 24 20	 fld	 DWORD PTR _v$[esp+56]
  0008a	dd 1c 24	 fstp	 QWORD PTR [esp]
  0008d	50		 push	 eax
  0008e	68 00 00 00 00	 push	 OFFSET FLAT:??_C@_0CK@OMOEDGKP@CWorld?3?3AddObj?5world?5id?3?$CFd?5x?3?$CFf?5@
  00093	e8 00 00 00 00	 call	 ?WriteError@@YAXPBDZZ	; WriteError
  00098	83 c4 20	 add	 esp, 32			; 00000020H
  0009b	5f		 pop	 edi

; 439  : 		return FALSE;

  0009c	33 c0		 xor	 eax, eax
  0009e	5e		 pop	 esi

; 513  : }

  0009f	83 c4 18	 add	 esp, 24			; 00000018H
  000a2	c2 0c 00	 ret	 12			; 0000000cH
$L262497:

; 440  : 	}
; 441  : 
; 442  : 	if( pObj->IsDynamicObj() )

  000a5	8b 86 70 01 00
	00		 mov	 eax, DWORD PTR [esi+368]
  000ab	85 c0		 test	 eax, eax
  000ad	74 64		 je	 SHORT $L262499
  000af	83 f8 03	 cmp	 eax, 3
  000b2	74 5f		 je	 SHORT $L262499

; 443  : 	{
; 444  : #ifndef __WORLDSERVER
; 445  : 		//    ( prj lock), _add .
; 446  : 		if( bAddItToGlobalId ) 
; 447  : 			( (CCtrl*)pObj )->AddItToGlobalId();
; 448  : #endif	// __WORLDSERVER
; 449  : 		FLOAT fHeight	= GetLandHeight( v );

  000b4	8b 4c 24 10	 mov	 ecx, DWORD PTR _v$[esp+40]
  000b8	8b 54 24 08	 mov	 edx, DWORD PTR _v$[esp+32]
  000bc	51		 push	 ecx
  000bd	52		 push	 edx
  000be	8b cf		 mov	 ecx, edi
  000c0	e8 00 00 00 00	 call	 ?GetLandHeight@CWorld@@QAEMMM@Z ; CWorld::GetLandHeight

; 450  : 		v.y		= ( v.y < fHeight ? fHeight : v.y );

  000c5	d9 44 24 0c	 fld	 DWORD PTR _v$[esp+36]
  000c9	d8 d9		 fcomp	 ST(1)
  000cb	df e0		 fnstsw	 ax
  000cd	f6 c4 05	 test	 ah, 5
  000d0	7a 06		 jp	 SHORT $L271330
  000d2	d9 5c 24 0c	 fstp	 DWORD PTR _v$[esp+36]
  000d6	eb 02		 jmp	 SHORT $L271296
$L271330:
  000d8	dd d8		 fstp	 ST(0)
$L271296:

; 451  : 		
; 452  : 		//  ...Door   
; 453  : 		if( pObj->m_dwType == OT_CTRL )

  000da	83 be 70 01 00
	00 02		 cmp	 DWORD PTR [esi+368], 2
  000e1	75 24		 jne	 SHORT $L262506

; 454  : 		{
; 455  : 			CCommonCtrl* pCCtrl = (CCommonCtrl*)pObj;
; 456  : 			CtrlProp* pProp = pCCtrl->GetProp();

  000e3	8b ce		 mov	 ecx, esi
  000e5	e8 00 00 00 00	 call	 ?GetPropA@CCommonCtrl@@QAEPAUCtrlProp@@XZ ; CCommonCtrl::GetPropA

; 457  : 			if( pProp )

  000ea	85 c0		 test	 eax, eax
  000ec	74 19		 je	 SHORT $L262506

; 458  : 			{
; 459  : 				if( pProp->dwCtrlKind1 == CK1_DOOR )

  000ee	83 78 50 01	 cmp	 DWORD PTR [eax+80], 1
  000f2	75 13		 jne	 SHORT $L262506

; 460  : 					v.y = pObj->GetPos().y;

  000f4	8d 44 24 14	 lea	 eax, DWORD PTR $T271298[esp+32]
  000f8	50		 push	 eax
  000f9	8b ce		 mov	 ecx, esi
  000fb	e8 00 00 00 00	 call	 ?GetPos@CObj@@QAE?AUD3DXVECTOR3@@XZ ; CObj::GetPos
  00100	8b 48 04	 mov	 ecx, DWORD PTR [eax+4]
  00103	89 4c 24 0c	 mov	 DWORD PTR _v$[esp+36], ecx
$L262506:

; 461  : 			}
; 462  : 		}
; 463  : 
; 464  : 		pObj->SetPos( v );

  00107	8d 54 24 08	 lea	 edx, DWORD PTR _v$[esp+32]
  0010b	52		 push	 edx
  0010c	8b ce		 mov	 ecx, esi
  0010e	e8 00 00 00 00	 call	 ?SetPos@CObj@@QAEXABUD3DXVECTOR3@@@Z ; CObj::SetPos
$L262499:

; 465  : 	}
; 466  : 	pObj->UpdateLocalMatrix();

  00113	8b ce		 mov	 ecx, esi
  00115	e8 00 00 00 00	 call	 ?UpdateLocalMatrix@CObj@@QAEXXZ ; CObj::UpdateLocalMatrix

; 467  : #ifdef __LAYER_1015
; 468  : 	pObj->SetLayer( nLayer );

  0011a	8b 44 24 2c	 mov	 eax, DWORD PTR _nLayer$[esp+28]

; 469  : #endif	// __LAYER_1015
; 470  : 	pObj->SetWorld( this );

  0011e	57		 push	 edi
  0011f	8b ce		 mov	 ecx, esi
  00121	89 86 b8 01 00
	00		 mov	 DWORD PTR [esi+440], eax
  00127	e8 00 00 00 00	 call	 ?SetWorld@CObj@@QAEXPAVCWorld@@@Z ; CObj::SetWorld

; 471  : 
; 472  : 	if( pObj->m_pAIInterface ) 

  0012c	8b 8e 88 01 00
	00		 mov	 ecx, DWORD PTR [esi+392]
  00132	85 c9		 test	 ecx, ecx
  00134	74 05		 je	 SHORT $L262508

; 473  : 		pObj->m_pAIInterface->InitAI();

  00136	8b 11		 mov	 edx, DWORD PTR [ecx]
  00138	ff 52 14	 call	 DWORD PTR [edx+20]
$L262508:

; 474  : 
; 475  : #ifdef __WORLDSERVER
; 476  : 	ASSERT( m_cbAddObjs < MAX_ADDOBJS );
; 477  : 	m_bAddItToGlobalId[m_cbAddObjs]	= bAddItToGlobalId;

  0013b	8b 87 60 b0 05
	00		 mov	 eax, DWORD PTR [edi+372832]
  00141	8b 4c 24 28	 mov	 ecx, DWORD PTR _bAddItToGlobalId$[esp+28]
  00145	89 8c 87 64 f0
	06 00		 mov	 DWORD PTR [edi+eax*4+454756], ecx

; 478  : 	m_apAddObjs[m_cbAddObjs++]	= pObj;

  0014c	8b 97 60 b0 05
	00		 mov	 edx, DWORD PTR [edi+372832]
  00152	89 b4 97 64 b0
	05 00		 mov	 DWORD PTR [edi+edx*4+372836], esi
  00159	ff 87 60 b0 05
	00		 inc	 DWORD PTR [edi+372832]
  0015f	5f		 pop	 edi

; 479  : #else	// __WORLDSERVER
; 480  : 	InsertObjLink( pObj );
; 481  : 	AddObjArray( pObj );
; 482  : #endif	// __WORLDSERVER
; 483  : 
; 484  : #ifdef __CLIENT
; 485  : 	if( CMover::GetActiveMover() && CMover::GetActiveMover()->m_pActMover &&
; 486  : 		CMover::GetActiveMover()->m_pActMover->IsFly() )
; 487  : 	{
; 488  : 		if( pObj->GetType() == OT_MOVER )
; 489  : 		{
; 490  : 			if( ((CMover *)pObj)->GetId() == m_idObjFocusOld )
; 491  : 			{
; 492  : 				SetObjFocus( pObj );
; 493  : 			}
; 494  : 		}
; 495  : 	}
; 496  : 
; 497  : #ifdef __BS_EFFECT_LUA
; 498  : 	
; 499  : 	//   Effect ( NPC only!! )
; 500  : 	if( OT_MOVER == pObj->GetType() )
; 501  : 	{
; 502  : 		CMover* pMover = static_cast< CMover* > ( pObj );
; 503  : 		
; 504  : 		if( pMover->IsNPC() )
; 505  : 			run_lua_sfx( OBJSTA_NONE, pMover->GetId(), pMover->GetNameO3D() );
; 506  : 	}
; 507  : 
; 508  : #endif //__BS_EFFECT_LUA
; 509  : 
; 510  : #endif //__CLIENT
; 511  : 
; 512  : 	return TRUE;

  00160	b8 01 00 00 00	 mov	 eax, 1
  00165	5e		 pop	 esi

; 513  : }

  00166	83 c4 18	 add	 esp, 24			; 00000018H
  00169	c2 0c 00	 ret	 12			; 0000000cH
?AddObj@CWorld@@QAEHPAVCObj@@HH@Z ENDP			; CWorld::AddObj
_TEXT	ENDS
PUBLIC	?RemoveObj@CWorld@@QAEXPAVCObj@@@Z		; CWorld::RemoveObj
; Function compile flags: /Ogty
;	COMDAT ?RemoveObj@CWorld@@QAEXPAVCObj@@@Z
_TEXT	SEGMENT
_pObj$ = 8						; size = 4
?RemoveObj@CWorld@@QAEXPAVCObj@@@Z PROC NEAR		; CWorld::RemoveObj, COMDAT
; _this$ = ecx

; 516  : {

  00000	56		 push	 esi

; 517  : 	if( pObj->GetWorld() == NULL ) 

  00001	8b 74 24 08	 mov	 esi, DWORD PTR _pObj$[esp]
  00005	8b 86 6c 01 00
	00		 mov	 eax, DWORD PTR [esi+364]
  0000b	85 c0		 test	 eax, eax
  0000d	57		 push	 edi
  0000e	8b f9		 mov	 edi, ecx
  00010	74 19		 je	 SHORT $L262513

; 518  : 		return;
; 519  : 	pObj->SetWorld( NULL );

  00012	6a 00		 push	 0
  00014	8b ce		 mov	 ecx, esi
  00016	e8 00 00 00 00	 call	 ?SetWorld@CObj@@QAEXPAVCWorld@@@Z ; CObj::SetWorld

; 520  : 	RemoveObjLink( pObj );

  0001b	56		 push	 esi
  0001c	8b cf		 mov	 ecx, edi
  0001e	e8 00 00 00 00	 call	 ?RemoveObjLink@CWorld@@QAEHPAVCObj@@@Z ; CWorld::RemoveObjLink

; 521  : 	RemoveObjArray( pObj );

  00023	56		 push	 esi
  00024	8b cf		 mov	 ecx, edi
  00026	e8 00 00 00 00	 call	 ?RemoveObjArray@CWorld@@QAEXPAVCObj@@@Z ; CWorld::RemoveObjArray
$L262513:
  0002b	5f		 pop	 edi
  0002c	5e		 pop	 esi

; 522  : }

  0002d	c2 04 00	 ret	 4
?RemoveObj@CWorld@@QAEXPAVCObj@@@Z ENDP			; CWorld::RemoveObj
_TEXT	ENDS
PUBLIC	?DeleteObj@CWorld@@QAEXPAVCObj@@@Z		; CWorld::DeleteObj
PUBLIC	??_C@_0BK@DCGJKBFJ@CWorld?3?3DeleteObj?5?3?5?$CFs?5?$CFd?$AA@ ; `string'
PUBLIC	??_C@_0CG@EDKIFBIC@CWorld?3?3DeleteObj?5?3?5type?$DN?$CFd?5idx?$DN@ ; `string'
PUBLIC	??_C@_0P@BHPKFHEI@MAX_DELETEOBJS?$AA@		; `string'
;	COMDAT ??_C@_0BK@DCGJKBFJ@CWorld?3?3DeleteObj?5?3?5?$CFs?5?$CFd?$AA@
; File c:\documents and settings\test\mes documents\source\virtuos_v17\build\program\_common\obj.h
CONST	SEGMENT
??_C@_0BK@DCGJKBFJ@CWorld?3?3DeleteObj?5?3?5?$CFs?5?$CFd?$AA@ DB 'CWorld:'
	DB	':DeleteObj : %s %d', 00H			; `string'
CONST	ENDS
;	COMDAT ??_C@_0CG@EDKIFBIC@CWorld?3?3DeleteObj?5?3?5type?$DN?$CFd?5idx?$DN@
CONST	SEGMENT
??_C@_0CG@EDKIFBIC@CWorld?3?3DeleteObj?5?3?5type?$DN?$CFd?5idx?$DN@ DB 'C'
	DB	'World::DeleteObj : type=%d idx=%d %d', 00H	; `string'
CONST	ENDS
;	COMDAT ??_C@_0P@BHPKFHEI@MAX_DELETEOBJS?$AA@
CONST	SEGMENT
??_C@_0P@BHPKFHEI@MAX_DELETEOBJS?$AA@ DB 'MAX_DELETEOBJS', 00H ; `string'
; Function compile flags: /Ogty
; File c:\documents and settings\test\mes documents\source\virtuos_v17\build\program\_common\world.cpp
CONST	ENDS
;	COMDAT ?DeleteObj@CWorld@@QAEXPAVCObj@@@Z
_TEXT	SEGMENT
_pObj$ = 8						; size = 4
?DeleteObj@CWorld@@QAEXPAVCObj@@@Z PROC NEAR		; CWorld::DeleteObj, COMDAT
; _this$ = ecx

; 526  : {

  00000	56		 push	 esi

; 527  : 	if( !pObj->IsDelete() )

  00001	8b 74 24 08	 mov	 esi, DWORD PTR _pObj$[esp]
  00005	8b 46 04	 mov	 eax, DWORD PTR [esi+4]
  00008	a8 01		 test	 al, 1
  0000a	57		 push	 edi
  0000b	8b f9		 mov	 edi, ecx
  0000d	75 79		 jne	 SHORT $L262519

; 528  : 	{
; 529  : 		pObj->SetDelete( TRUE );

  0000f	83 c8 01	 or	 eax, 1
  00012	89 46 04	 mov	 DWORD PTR [esi+4], eax

; 530  : #ifdef __WORLDSERVER
; 531  : 		if( m_nDeleteObjs >= MAX_DELETEOBJS )

  00015	8b 87 30 51 08
	00		 mov	 eax, DWORD PTR [edi+545072]
  0001b	3d 00 10 00 00	 cmp	 eax, 4096		; 00001000H
  00020	7c 3a		 jl	 SHORT $L262524

; 532  : 		{
; 533  : 			if( pObj->GetType() == OT_MOVER )

  00022	8b 8e 70 01 00
	00		 mov	 ecx, DWORD PTR [esi+368]
  00028	83 f9 05	 cmp	 ecx, 5

; 534  : 				Error( "CWorld::DeleteObj : %s %d", ((CMover *)pObj)->GetName(), m_nDeleteObjs );

  0002b	50		 push	 eax
  0002c	75 19		 jne	 SHORT $L262521
  0002e	6a 00		 push	 0
  00030	8b ce		 mov	 ecx, esi
  00032	e8 00 00 00 00	 call	 ?GetName@CMover@@QAEPBDH@Z ; CMover::GetName
  00037	50		 push	 eax
  00038	68 00 00 00 00	 push	 OFFSET FLAT:??_C@_0BK@DCGJKBFJ@CWorld?3?3DeleteObj?5?3?5?$CFs?5?$CFd?$AA@
  0003d	e8 00 00 00 00	 call	 ?Error@@YAPBDPBDZZ	; Error
  00042	83 c4 0c	 add	 esp, 12			; 0000000cH

; 535  : 			else

  00045	eb 15		 jmp	 SHORT $L262524
$L262521:

; 536  : 				Error( "CWorld::DeleteObj : type=%d idx=%d %d", pObj->GetType(), pObj->GetIndex(), m_nDeleteObjs );

  00047	8b 86 74 01 00
	00		 mov	 eax, DWORD PTR [esi+372]
  0004d	50		 push	 eax
  0004e	51		 push	 ecx
  0004f	68 00 00 00 00	 push	 OFFSET FLAT:??_C@_0CG@EDKIFBIC@CWorld?3?3DeleteObj?5?3?5type?$DN?$CFd?5idx?$DN@
  00054	e8 00 00 00 00	 call	 ?Error@@YAPBDPBDZZ	; Error
  00059	83 c4 10	 add	 esp, 16			; 00000010H
$L262524:

; 537  : 		}
; 538  : 
; 539  : 		if( m_nDeleteObjs >= MAX_DELETEOBJS )

  0005c	81 bf 30 51 08
	00 00 10 00 00	 cmp	 DWORD PTR [edi+545072], 4096 ; 00001000H
  00066	7c 0d		 jl	 SHORT $L262526

; 540  : 			Error( "MAX_DELETEOBJS" );

  00068	68 00 00 00 00	 push	 OFFSET FLAT:??_C@_0P@BHPKFHEI@MAX_DELETEOBJS?$AA@
  0006d	e8 00 00 00 00	 call	 ?Error@@YAPBDPBDZZ	; Error
  00072	83 c4 04	 add	 esp, 4
$L262526:

; 541  : 		m_apDeleteObjs[ m_nDeleteObjs++ ] = pObj;

  00075	8b 8f 30 51 08
	00		 mov	 ecx, DWORD PTR [edi+545072]
  0007b	89 b4 8f 34 51
	08 00		 mov	 DWORD PTR [edi+ecx*4+545076], esi
  00082	ff 87 30 51 08
	00		 inc	 DWORD PTR [edi+545072]
$L262519:
  00088	5f		 pop	 edi
  00089	5e		 pop	 esi

; 542  : #else
; 543  : 
; 544  : #ifdef __BS_SAFE_WORLD_DELETE
; 545  : 		if(pObj->m_ppViewPtr)
; 546  : 		{
; 547  : 			*pObj->m_ppViewPtr = NULL;
; 548  : 			pObj->m_ppViewPtr = NULL;
; 549  : 		}
; 550  : #endif //__BS_SAFE_WORLD_DELETE
; 551  : 
; 552  : 		m_apDeleteObjs[ m_nDeleteObjs++ ] = pObj;
; 553  : #endif
; 554  : 	}
; 555  : }

  0008a	c2 04 00	 ret	 4
?DeleteObj@CWorld@@QAEXPAVCObj@@@Z ENDP			; CWorld::DeleteObj
_TEXT	ENDS
PUBLIC	?GetLandTris@CWorld@@QAEHMMPAUD3DXVECTOR3@@@Z	; CWorld::GetLandTris
; Function compile flags: /Ogty
;	COMDAT ?GetLandTris@CWorld@@QAEHMMPAUD3DXVECTOR3@@@Z
_TEXT	SEGMENT
_x$ = 8							; size = 4
_z$ = 12						; size = 4
_pTris$ = 16						; size = 4
?GetLandTris@CWorld@@QAEHMMPAUD3DXVECTOR3@@@Z PROC NEAR	; CWorld::GetLandTris, COMDAT
; _this$ = ecx

; 1109 : 	int offset=0;
; 1110 : 	if(GetLandTri2(x,			z,			pTris+offset)) offset+=6;

  00000	8b 44 24 04	 mov	 eax, DWORD PTR _x$[esp-4]
  00004	53		 push	 ebx
  00005	8b 5c 24 10	 mov	 ebx, DWORD PTR _pTris$[esp]
  00009	55		 push	 ebp
  0000a	8b 6c 24 10	 mov	 ebp, DWORD PTR _z$[esp+4]
  0000e	56		 push	 esi
  0000f	57		 push	 edi
  00010	53		 push	 ebx
  00011	55		 push	 ebp
  00012	50		 push	 eax
  00013	8b f9		 mov	 edi, ecx
  00015	33 f6		 xor	 esi, esi
  00017	e8 00 00 00 00	 call	 ?GetLandTri2@CWorld@@QAEHMMPAUD3DXVECTOR3@@@Z ; CWorld::GetLandTri2
  0001c	85 c0		 test	 eax, eax
  0001e	74 05		 je	 SHORT $L262642
  00020	be 06 00 00 00	 mov	 esi, 6
$L262642:

; 1111 : 	if(GetLandTri2(x-m_iMPU,	z-m_iMPU,	pTris+offset)) offset+=6;

  00025	db 47 14	 fild	 DWORD PTR [edi+20]
  00028	8d 0c 76	 lea	 ecx, DWORD PTR [esi+esi*2]
  0002b	d9 44 24 18	 fld	 DWORD PTR _z$[esp+12]
  0002f	8d 14 8b	 lea	 edx, DWORD PTR [ebx+ecx*4]
  00032	52		 push	 edx
  00033	d8 e1		 fsub	 ST(0), ST(1)
  00035	83 ec 08	 sub	 esp, 8
  00038	8b cf		 mov	 ecx, edi
  0003a	d9 5c 24 04	 fstp	 DWORD PTR [esp+4]
  0003e	d9 44 24 20	 fld	 DWORD PTR _x$[esp+24]
  00042	d8 e1		 fsub	 ST(0), ST(1)
  00044	d9 1c 24	 fstp	 DWORD PTR [esp]
  00047	dd d8		 fstp	 ST(0)
  00049	e8 00 00 00 00	 call	 ?GetLandTri2@CWorld@@QAEHMMPAUD3DXVECTOR3@@@Z ; CWorld::GetLandTri2
  0004e	85 c0		 test	 eax, eax
  00050	74 03		 je	 SHORT $L262643
  00052	83 c6 06	 add	 esi, 6
$L262643:

; 1112 : 	if(GetLandTri2(x,			z-m_iMPU,	pTris+offset)) offset+=6;

  00055	db 47 14	 fild	 DWORD PTR [edi+20]
  00058	8b 54 24 14	 mov	 edx, DWORD PTR _x$[esp+12]
  0005c	8d 04 76	 lea	 eax, DWORD PTR [esi+esi*2]
  0005f	8d 0c 83	 lea	 ecx, DWORD PTR [ebx+eax*4]
  00062	d8 6c 24 18	 fsubr	 DWORD PTR _z$[esp+12]
  00066	51		 push	 ecx
  00067	51		 push	 ecx
  00068	8b cf		 mov	 ecx, edi
  0006a	d9 1c 24	 fstp	 DWORD PTR [esp]
  0006d	52		 push	 edx
  0006e	e8 00 00 00 00	 call	 ?GetLandTri2@CWorld@@QAEHMMPAUD3DXVECTOR3@@@Z ; CWorld::GetLandTri2
  00073	85 c0		 test	 eax, eax
  00075	74 03		 je	 SHORT $L262644
  00077	83 c6 06	 add	 esi, 6
$L262644:

; 1113 : 	if(GetLandTri2(x+m_iMPU,	z-m_iMPU,	pTris+offset)) offset+=6;

  0007a	db 47 14	 fild	 DWORD PTR [edi+20]
  0007d	8d 04 76	 lea	 eax, DWORD PTR [esi+esi*2]
  00080	d9 44 24 18	 fld	 DWORD PTR _z$[esp+12]
  00084	8d 0c 83	 lea	 ecx, DWORD PTR [ebx+eax*4]
  00087	51		 push	 ecx
  00088	d8 e1		 fsub	 ST(0), ST(1)
  0008a	83 ec 08	 sub	 esp, 8
  0008d	8b cf		 mov	 ecx, edi
  0008f	d9 5c 24 04	 fstp	 DWORD PTR [esp+4]
  00093	d8 44 24 20	 fadd	 DWORD PTR _x$[esp+24]
  00097	d9 1c 24	 fstp	 DWORD PTR [esp]
  0009a	e8 00 00 00 00	 call	 ?GetLandTri2@CWorld@@QAEHMMPAUD3DXVECTOR3@@@Z ; CWorld::GetLandTri2
  0009f	85 c0		 test	 eax, eax
  000a1	74 03		 je	 SHORT $L262645
  000a3	83 c6 06	 add	 esi, 6
$L262645:

; 1114 : 	if(GetLandTri2(x-m_iMPU,	z,			pTris+offset)) offset+=6;

  000a6	db 47 14	 fild	 DWORD PTR [edi+20]
  000a9	8d 14 76	 lea	 edx, DWORD PTR [esi+esi*2]
  000ac	8d 04 93	 lea	 eax, DWORD PTR [ebx+edx*4]
  000af	50		 push	 eax
  000b0	d8 6c 24 18	 fsubr	 DWORD PTR _x$[esp+16]
  000b4	55		 push	 ebp
  000b5	51		 push	 ecx
  000b6	8b cf		 mov	 ecx, edi
  000b8	d9 1c 24	 fstp	 DWORD PTR [esp]
  000bb	e8 00 00 00 00	 call	 ?GetLandTri2@CWorld@@QAEHMMPAUD3DXVECTOR3@@@Z ; CWorld::GetLandTri2
  000c0	85 c0		 test	 eax, eax
  000c2	74 03		 je	 SHORT $L262646
  000c4	83 c6 06	 add	 esi, 6
$L262646:

; 1115 : 	if(GetLandTri2(x+m_iMPU,	z,			pTris+offset)) offset+=6;

  000c7	db 47 14	 fild	 DWORD PTR [edi+20]
  000ca	8d 0c 76	 lea	 ecx, DWORD PTR [esi+esi*2]
  000cd	8d 14 8b	 lea	 edx, DWORD PTR [ebx+ecx*4]
  000d0	52		 push	 edx
  000d1	d8 44 24 18	 fadd	 DWORD PTR _x$[esp+16]
  000d5	55		 push	 ebp
  000d6	51		 push	 ecx
  000d7	8b cf		 mov	 ecx, edi
  000d9	d9 1c 24	 fstp	 DWORD PTR [esp]
  000dc	e8 00 00 00 00	 call	 ?GetLandTri2@CWorld@@QAEHMMPAUD3DXVECTOR3@@@Z ; CWorld::GetLandTri2
  000e1	85 c0		 test	 eax, eax
  000e3	74 03		 je	 SHORT $L271372
  000e5	83 c6 06	 add	 esi, 6
$L271372:

; 1116 : 	if(GetLandTri2(x-m_iMPU,	z+m_iMPU,	pTris+offset)) offset+=6;

  000e8	db 47 14	 fild	 DWORD PTR [edi+20]
  000eb	8d 04 76	 lea	 eax, DWORD PTR [esi+esi*2]
  000ee	d9 44 24 18	 fld	 DWORD PTR _z$[esp+12]
  000f2	8d 0c 83	 lea	 ecx, DWORD PTR [ebx+eax*4]
  000f5	51		 push	 ecx
  000f6	d8 c1		 fadd	 ST(0), ST(1)
  000f8	83 ec 08	 sub	 esp, 8
  000fb	8b cf		 mov	 ecx, edi
  000fd	d9 5c 24 04	 fstp	 DWORD PTR [esp+4]
  00101	d9 44 24 20	 fld	 DWORD PTR _x$[esp+24]
  00105	d8 e1		 fsub	 ST(0), ST(1)
  00107	d9 1c 24	 fstp	 DWORD PTR [esp]
  0010a	dd d8		 fstp	 ST(0)
  0010c	e8 00 00 00 00	 call	 ?GetLandTri2@CWorld@@QAEHMMPAUD3DXVECTOR3@@@Z ; CWorld::GetLandTri2
  00111	85 c0		 test	 eax, eax
  00113	74 03		 je	 SHORT $L271373
  00115	83 c6 06	 add	 esi, 6
$L271373:

; 1117 : 	if(GetLandTri2(x,			z+m_iMPU,	pTris+offset)) offset+=6;

  00118	db 47 14	 fild	 DWORD PTR [edi+20]
  0011b	8d 14 76	 lea	 edx, DWORD PTR [esi+esi*2]
  0011e	8d 04 93	 lea	 eax, DWORD PTR [ebx+edx*4]
  00121	50		 push	 eax
  00122	d8 44 24 1c	 fadd	 DWORD PTR _z$[esp+16]
  00126	51		 push	 ecx
  00127	8b 4c 24 1c	 mov	 ecx, DWORD PTR _x$[esp+20]
  0012b	d9 1c 24	 fstp	 DWORD PTR [esp]
  0012e	51		 push	 ecx
  0012f	8b cf		 mov	 ecx, edi
  00131	e8 00 00 00 00	 call	 ?GetLandTri2@CWorld@@QAEHMMPAUD3DXVECTOR3@@@Z ; CWorld::GetLandTri2
  00136	85 c0		 test	 eax, eax
  00138	74 03		 je	 SHORT $L271374
  0013a	83 c6 06	 add	 esi, 6
$L271374:

; 1118 : 	if(GetLandTri2(x+m_iMPU,	z+m_iMPU,	pTris+offset)) offset+=6;

  0013d	db 47 14	 fild	 DWORD PTR [edi+20]
  00140	8d 14 76	 lea	 edx, DWORD PTR [esi+esi*2]
  00143	d9 44 24 18	 fld	 DWORD PTR _z$[esp+12]
  00147	8d 04 93	 lea	 eax, DWORD PTR [ebx+edx*4]
  0014a	50		 push	 eax
  0014b	d8 c1		 fadd	 ST(0), ST(1)
  0014d	83 ec 08	 sub	 esp, 8
  00150	8b cf		 mov	 ecx, edi
  00152	d9 5c 24 04	 fstp	 DWORD PTR [esp+4]
  00156	d8 44 24 20	 fadd	 DWORD PTR _x$[esp+24]
  0015a	d9 1c 24	 fstp	 DWORD PTR [esp]
  0015d	e8 00 00 00 00	 call	 ?GetLandTri2@CWorld@@QAEHMMPAUD3DXVECTOR3@@@Z ; CWorld::GetLandTri2
  00162	85 c0		 test	 eax, eax
  00164	74 03		 je	 SHORT $L271371
  00166	83 c6 06	 add	 esi, 6
$L271371:
  00169	5f		 pop	 edi

; 1119 : 	return offset;

  0016a	8b c6		 mov	 eax, esi
  0016c	5e		 pop	 esi
  0016d	5d		 pop	 ebp
  0016e	5b		 pop	 ebx

; 1120 : }

  0016f	c2 0c 00	 ret	 12			; 0000000cH
?GetLandTris@CWorld@@QAEHMMPAUD3DXVECTOR3@@@Z ENDP	; CWorld::GetLandTris
_TEXT	ENDS
PUBLIC	?_delete@CWorld@@AAEXXZ				; CWorld::_delete
; Function compile flags: /Ogty
;	COMDAT ?_delete@CWorld@@AAEXXZ
_TEXT	SEGMENT
_i$262976 = -16						; size = 4
$T271378 = -12						; size = 12
?_delete@CWorld@@AAEXXZ PROC NEAR			; CWorld::_delete, COMDAT
; _this$ = ecx

; 1553 : {

  00000	83 ec 10	 sub	 esp, 16			; 00000010H
  00003	56		 push	 esi
  00004	8b f1		 mov	 esi, ecx

; 1554 : 	CObj* pObj;
; 1555 : 
; 1556 : 	for( int i = 0; i < m_nDeleteObjs; i++ )

  00006	8b 8e 30 51 08
	00		 mov	 ecx, DWORD PTR [esi+545072]
  0000c	33 c0		 xor	 eax, eax
  0000e	3b c8		 cmp	 ecx, eax
  00010	89 44 24 04	 mov	 DWORD PTR _i$262976[esp+20], eax
  00014	0f 8e 2d 01 00
	00		 jle	 $L271415
  0001a	53		 push	 ebx
  0001b	55		 push	 ebp
  0001c	57		 push	 edi
  0001d	8d ae 34 51 08
	00		 lea	 ebp, DWORD PTR [esi+545076]
$L271416:

; 1559 : 
; 1560 : 		for( int j = 0; j < m_cbReplaceObj; j++ )

  00023	8b 86 5c 40 05
	00		 mov	 eax, DWORD PTR [esi+344156]
  00029	8b 7d 00	 mov	 edi, DWORD PTR [ebp]
  0002c	33 c9		 xor	 ecx, ecx
  0002e	85 c0		 test	 eax, eax
  00030	7e 1e		 jle	 SHORT $L262983

; 1557 : 	{
; 1558 : 		pObj	= m_apDeleteObjs[i];

  00032	8d 86 60 40 05
	00		 lea	 eax, DWORD PTR [esi+344160]
$L262981:

; 1561 : 		{
; 1562 : 			if( m_aReplaceObj[j].pObj == pObj )

  00038	39 38		 cmp	 DWORD PTR [eax], edi
  0003a	75 06		 jne	 SHORT $L262982

; 1563 : 				m_aReplaceObj[j].pObj	= NULL;

  0003c	c7 00 00 00 00
	00		 mov	 DWORD PTR [eax], 0
$L262982:

; 1559 : 
; 1560 : 		for( int j = 0; j < m_cbReplaceObj; j++ )

  00042	8b 96 5c 40 05
	00		 mov	 edx, DWORD PTR [esi+344156]
  00048	41		 inc	 ecx
  00049	83 c0 1c	 add	 eax, 28			; 0000001cH
  0004c	3b ca		 cmp	 ecx, edx
  0004e	7c e8		 jl	 SHORT $L262981
$L262983:

; 1564 : 		}
; 1565 : 		
; 1566 : 		for( j = 0; j < m_cbModifyLink; j++ )

  00050	8b 86 58 00 05
	00		 mov	 eax, DWORD PTR [esi+327768]
  00056	33 c9		 xor	 ecx, ecx
  00058	85 c0		 test	 eax, eax
  0005a	7e 50		 jle	 SHORT $L262987
  0005c	8d 86 5c 00 05
	00		 lea	 eax, DWORD PTR [esi+327772]
$L271417:

; 1567 : 		{
; 1568 : 			if( m_apModifyLink[j] == pObj )

  00062	39 38		 cmp	 DWORD PTR [eax], edi
  00064	75 38		 jne	 SHORT $L262986

; 1569 : 			{
; 1570 : 				m_apModifyLink[j]	= NULL;

  00066	c7 00 00 00 00
	00		 mov	 DWORD PTR [eax], 0

; 1571 : 				pObj->m_vRemoval	= D3DXVECTOR3( 0.0f, 0.0f, 0.0f );

  0006c	c7 44 24 14 00
	00 00 00	 mov	 DWORD PTR $T271378[esp+32], 0
  00074	8b 5c 24 14	 mov	 ebx, DWORD PTR $T271378[esp+32]
  00078	8d 97 a0 01 00
	00		 lea	 edx, DWORD PTR [edi+416]
  0007e	89 1a		 mov	 DWORD PTR [edx], ebx
  00080	c7 44 24 18 00
	00 00 00	 mov	 DWORD PTR $T271378[esp+36], 0
  00088	8b 5c 24 18	 mov	 ebx, DWORD PTR $T271378[esp+36]
  0008c	89 5a 04	 mov	 DWORD PTR [edx+4], ebx
  0008f	c7 44 24 1c 00
	00 00 00	 mov	 DWORD PTR $T271378[esp+40], 0
  00097	8b 5c 24 1c	 mov	 ebx, DWORD PTR $T271378[esp+40]
  0009b	89 5a 08	 mov	 DWORD PTR [edx+8], ebx
$L262986:
  0009e	8b 96 58 00 05
	00		 mov	 edx, DWORD PTR [esi+327768]
  000a4	41		 inc	 ecx
  000a5	83 c0 04	 add	 eax, 4
  000a8	3b ca		 cmp	 ecx, edx
  000aa	7c b6		 jl	 SHORT $L271417
$L262987:

; 1572 : 			}
; 1573 : 		}
; 1574 : 
; 1575 : #ifdef __WORLDSERVER
; 1576 : 		if( !pObj->IsVirtual() )

  000ac	f6 47 04 04	 test	 BYTE PTR [edi+4], 4
  000b0	75 08		 jne	 SHORT $L262990

; 1577 : #endif	// __WORLDSERVER
; 1578 : 			RemoveObjLink( pObj );

  000b2	57		 push	 edi
  000b3	8b ce		 mov	 ecx, esi
  000b5	e8 00 00 00 00	 call	 ?RemoveObjLink@CWorld@@QAEHPAVCObj@@@Z ; CWorld::RemoveObjLink
$L262990:

; 1579 : 		DestroyObj( pObj );

  000ba	8b 87 84 01 00
	00		 mov	 eax, DWORD PTR [edi+388]
  000c0	83 f8 ff	 cmp	 eax, -1
  000c3	75 0f		 jne	 SHORT $L271403
  000c5	68 00 00 00 00	 push	 OFFSET FLAT:??_C@_0DD@JHPKICEK@RemoveObjArray?5?5pObj?9?$DOm_dwObjAry@
  000ca	e8 00 00 00 00	 call	 ?WriteError@@YAXPBDZZ	; WriteError
  000cf	83 c4 04	 add	 esp, 4
  000d2	eb 32		 jmp	 SHORT $L271402
$L271403:
  000d4	39 7c 86 48	 cmp	 DWORD PTR [esi+eax*4+72], edi
  000d8	75 1c		 jne	 SHORT $L271404
  000da	50		 push	 eax
  000db	8d 8e a4 30 08
	00		 lea	 ecx, DWORD PTR [esi+536740]
  000e1	e8 00 00 00 00	 call	 ?Push@?$CStack@K@@QAEXK@Z ; CStack<unsigned long>::Push
  000e6	8b 87 84 01 00
	00		 mov	 eax, DWORD PTR [edi+388]
  000ec	c7 44 86 48 00
	00 00 00	 mov	 DWORD PTR [esi+eax*4+72], 0
  000f4	eb 0d		 jmp	 SHORT $L271405
$L271404:
  000f6	68 00 00 00 00	 push	 OFFSET FLAT:??_C@_0DI@KBIGLDPE@RemoveObjArray?5m_apObject?$FLpObj?9?$DO@
  000fb	e8 00 00 00 00	 call	 ?WriteError@@YAXPBDZZ	; WriteError
  00100	83 c4 04	 add	 esp, 4
$L271405:
  00103	ff 4e 18	 dec	 DWORD PTR [esi+24]
$L271402:
  00106	57		 push	 edi
  00107	e8 00 00 00 00	 call	 ?GetInstance@CNpcChecker@@SAPAV1@XZ ; CNpcChecker::GetInstance
  0010c	8b c8		 mov	 ecx, eax
  0010e	e8 00 00 00 00	 call	 ?RemoveNpc@CNpcChecker@@QAEXPAVCObj@@@Z ; CNpcChecker::RemoveNpc
  00113	8b 17		 mov	 edx, DWORD PTR [edi]
  00115	6a 01		 push	 1
  00117	8b cf		 mov	 ecx, edi
  00119	ff 12		 call	 DWORD PTR [edx]
  0011b	8b 44 24 10	 mov	 eax, DWORD PTR _i$262976[esp+32]
  0011f	8b 8e 30 51 08
	00		 mov	 ecx, DWORD PTR [esi+545072]
  00125	40		 inc	 eax
  00126	83 c5 04	 add	 ebp, 4
  00129	3b c1		 cmp	 eax, ecx
  0012b	89 44 24 10	 mov	 DWORD PTR _i$262976[esp+32], eax
  0012f	0f 8c ee fe ff
	ff		 jl	 $L271416
  00135	5f		 pop	 edi
  00136	5d		 pop	 ebp
  00137	5b		 pop	 ebx

; 1580 : 	}
; 1581 : 	m_nDeleteObjs	= 0;

  00138	c7 86 30 51 08
	00 00 00 00 00	 mov	 DWORD PTR [esi+545072], 0
  00142	5e		 pop	 esi

; 1582 : }

  00143	83 c4 10	 add	 esp, 16			; 00000010H
  00146	c3		 ret	 0
$L271415:

; 1580 : 	}
; 1581 : 	m_nDeleteObjs	= 0;

  00147	89 86 30 51 08
	00		 mov	 DWORD PTR [esi+545072], eax
  0014d	5e		 pop	 esi

; 1582 : }

  0014e	83 c4 10	 add	 esp, 16			; 00000010H
  00151	c3		 ret	 0
?_delete@CWorld@@AAEXXZ ENDP				; CWorld::_delete
_TEXT	ENDS
PUBLIC	?SendDamageAround@CWorld@@QAEXPBUD3DXVECTOR3@@HPAVCMover@@HHM@Z ; CWorld::SendDamageAround
PUBLIC	__real@40800000
PUBLIC	__real@41000000
PUBLIC	__real@41800000
PUBLIC	__real@42000000
PUBLIC	??_C@_0DB@DMPELOAC@CWorld?3?3SendDamageAround?5?3?5D?3?$CFd?0@ ; `string'
PUBLIC	??_C@_0DN@ECMLCJLF@CWorld?3?3SendDamageAround?5?3?5?$CFs?4?5?$LN@ ; `string'
PUBLIC	??_C@_0DP@PNAKIIFP@CWorld?3?3SendDamageAround?5?3?5?$CFs?4?5?$LO@ ; `string'
EXTRN	?SendDamageForce@CActionMover@@QAEHKKHH@Z:NEAR	; CActionMover::SendDamageForce
EXTRN	?GetLinkWidth@CLayeredLinkMap@@QAEHKHH@Z:NEAR	; CLayeredLinkMap::GetLinkWidth
EXTRN	?GetObj@CLayeredLinkMap@@QAEPAPAVCObj@@KKH@Z:NEAR ; CLayeredLinkMap::GetObj
EXTRN	?GetMaxLinkLevel@CLayeredLinkMap@@QAEHKH@Z:NEAR	; CLayeredLinkMap::GetMaxLinkLevel
;	COMDAT __real@40800000
; File c:\documents and settings\test\mes documents\source\virtuos_v17\build\program\_common\obj.h
CONST	SEGMENT
__real@40800000 DD 040800000r			; 4
CONST	ENDS
;	COMDAT __real@41000000
CONST	SEGMENT
__real@41000000 DD 041000000r			; 8
CONST	ENDS
;	COMDAT __real@41800000
CONST	SEGMENT
__real@41800000 DD 041800000r			; 16
CONST	ENDS
;	COMDAT __real@42000000
CONST	SEGMENT
__real@42000000 DD 042000000r			; 32
CONST	ENDS
;	COMDAT ??_C@_0DB@DMPELOAC@CWorld?3?3SendDamageAround?5?3?5D?3?$CFd?0@
CONST	SEGMENT
??_C@_0DB@DMPELOAC@CWorld?3?3SendDamageAround?5?3?5D?3?$CFd?0@ DB 'CWorld'
	DB	'::SendDamageAround : D:%d,%d,%d A:%s %d %f', 00H ; `string'
CONST	ENDS
;	COMDAT ??_C@_0DN@ECMLCJLF@CWorld?3?3SendDamageAround?5?3?5?$CFs?4?5?$LN@
CONST	SEGMENT
??_C@_0DN@ECMLCJLF@CWorld?3?3SendDamageAround?5?3?5?$CFs?4?5?$LN@ DB 'CWo'
	DB	'rld::SendDamageAround : %s. ', 0bdH, 0baH, 0c5H, 0b3H, '(%d)', 0c0H
	DB	0c7H, ' ', 0c7H, 0c1H, 0b7H, 0ceH, 0c6H, 0dbH, 0c6H, 0bcH, 0b0H
	DB	0a1H, ' ', 0beH, 0f7H, 0a4H, 0b2H, 0b4H, 0d9H, '.', 00H ; `string'
CONST	ENDS
;	COMDAT ??_C@_0DP@PNAKIIFP@CWorld?3?3SendDamageAround?5?3?5?$CFs?4?5?$LO@
CONST	SEGMENT
??_C@_0DP@PNAKIIFP@CWorld?3?3SendDamageAround?5?3?5?$CFs?4?5?$LO@ DB 'CWo'
	DB	'rld::SendDamageAround : %s. ', 0beH, 0c6H, 0c0H, 0ccH, 0c5H, 0dbH
	DB	'(%d)', 0c0H, 0c7H, ' ', 0c7H, 0c1H, 0b7H, 0ceH, 0c6H, 0dbH, 0c6H
	DB	0bcH, 0b0H, 0a1H, ' ', 0beH, 0f7H, 0a4H, 0b2H, 0b4H, 0d9H, '.', 00H ; `string'
; Function compile flags: /Ogty
; File c:\documents and settings\test\mes documents\source\virtuos_v17\build\program\_common\world.cpp
CONST	ENDS
;	COMDAT ?SendDamageAround@CWorld@@QAEXPBUD3DXVECTOR3@@HPAVCMover@@HHM@Z
_TEXT	SEGMENT
_this$ = -128						; size = 4
_nRange$ = -124						; size = 4
__i$263183 = -120					; size = 4
__i$263129 = -120					; size = 4
tv1381 = -116						; size = 4
tv1231 = -116						; size = 4
__nLinkXMin$263175 = -112				; size = 4
__nLinkXMin$263121 = -112				; size = 4
tv1335 = -108						; size = 4
tv1277 = -108						; size = 4
__nX$263125 = -108					; size = 4
tv781 = -104						; size = 4
tv787 = -100						; size = 4
_pProp$ = -96						; size = 4
tv203 = -92						; size = 4
__nLinkXMax$263123 = -92				; size = 4
tv557 = -88						; size = 4
___limit$263149 = -88					; size = 4
tv380 = -84						; size = 4
___limit$263203 = -84					; size = 4
__pObjs$263187 = -84					; size = 4
__pObjs$263133 = -84					; size = 4
tv326 = -80						; size = 4
__nLinkXMax$263177 = -80				; size = 4
__nX$263179 = -80					; size = 4
__nMaxHeight$263119 = -80				; size = 4
tv1385 = -76						; size = 4
__nMaxHeight$263173 = -76				; size = 4
__nLinkX$263113 = -76					; size = 4
tv934 = -72						; size = 4
__nLinkZ$263115 = -72					; size = 4
tv929 = -68						; size = 4
tv790 = -68						; size = 4
tv924 = -64						; size = 4
tv795 = -64						; size = 4
tv919 = -60						; size = 4
tv800 = -60						; size = 4
tv805 = -56						; size = 4
__nLinkZ$263169 = -56					; size = 4
tv1281 = -52						; size = 4
__nLinkX$263167 = -52					; size = 4
_vDist$ = -48						; size = 12
_vPos$ = -36						; size = 12
$T271424 = -24						; size = 12
$T271421 = -24						; size = 12
$T271423 = -12						; size = 12
$T271422 = -12						; size = 12
_pvPos$ = 8						; size = 4
_nDmgType$ = 12						; size = 4
_pAttacker$ = 16					; size = 4
_nApplyType$ = 20					; size = 4
_nAttackID$ = 24					; size = 4
_fRange$ = 28						; size = 4
?SendDamageAround@CWorld@@QAEXPBUD3DXVECTOR3@@HPAVCMover@@HHM@Z PROC NEAR ; CWorld::SendDamageAround, COMDAT
; _this$ = ecx

; 1818 : {

  00000	81 ec 80 00 00
	00		 sub	 esp, 128		; 00000080H

; 1819 : #ifdef __WORLDSERVER
; 1820 : 	int nRange	= 4;	// 4, 8, 16  .
; 1821 : 	float fDistSq;
; 1822 : 	CObj* pObj;
; 1823 : 	CMover *pTarget;
; 1824 : 	D3DXVECTOR3 vPos = *pvPos;
; 1825 : 	D3DXVECTOR3 vDist;
; 1826 : 
; 1827 : 	if( fRange <= 4.0f )

  00006	d9 84 24 98 00
	00 00		 fld	 DWORD PTR _fRange$[esp+124]
  0000d	53		 push	 ebx
  0000e	8b 9c 24 88 00
	00 00		 mov	 ebx, DWORD PTR _pvPos$[esp+128]
  00015	d8 1d 00 00 00
	00		 fcomp	 DWORD PTR __real@40800000
  0001b	8b c3		 mov	 eax, ebx
  0001d	89 4c 24 04	 mov	 DWORD PTR _this$[esp+132], ecx
  00021	8b 08		 mov	 ecx, DWORD PTR [eax]
  00023	8b 50 04	 mov	 edx, DWORD PTR [eax+4]
  00026	8b 40 08	 mov	 eax, DWORD PTR [eax+8]
  00029	55		 push	 ebp
  0002a	89 44 24 6c	 mov	 DWORD PTR _vPos$[esp+144], eax
  0002e	df e0		 fnstsw	 ax
  00030	56		 push	 esi
  00031	f6 c4 41	 test	 ah, 65			; 00000041H
  00034	57		 push	 edi
  00035	89 4c 24 6c	 mov	 DWORD PTR _vPos$[esp+144], ecx
  00039	89 54 24 70	 mov	 DWORD PTR _vPos$[esp+148], edx
  0003d	7a 07		 jp	 SHORT $L263093

; 1828 : 		nRange = 4;

  0003f	bd 04 00 00 00	 mov	 ebp, 4

; 1829 : 	else if( fRange <= 8.0f )

  00044	eb 54		 jmp	 SHORT $L271692
$L263093:
  00046	d9 84 24 a8 00
	00 00		 fld	 DWORD PTR _fRange$[esp+140]
  0004d	d8 1d 00 00 00
	00		 fcomp	 DWORD PTR __real@41000000
  00053	df e0		 fnstsw	 ax
  00055	f6 c4 41	 test	 ah, 65			; 00000041H
  00058	7a 07		 jp	 SHORT $L263095

; 1830 : 		nRange = 8;

  0005a	bd 08 00 00 00	 mov	 ebp, 8

; 1831 : 	else if( fRange <= 16.0f )

  0005f	eb 39		 jmp	 SHORT $L271692
$L263095:
  00061	d9 84 24 a8 00
	00 00		 fld	 DWORD PTR _fRange$[esp+140]
  00068	d8 1d 00 00 00
	00		 fcomp	 DWORD PTR __real@41800000
  0006e	df e0		 fnstsw	 ax
  00070	f6 c4 41	 test	 ah, 65			; 00000041H
  00073	7a 07		 jp	 SHORT $L263097

; 1832 : 		nRange = 16;

  00075	bd 10 00 00 00	 mov	 ebp, 16			; 00000010H

; 1833 : 	else if( fRange <= 32.0f )

  0007a	eb 1e		 jmp	 SHORT $L271692
$L263097:
  0007c	d9 84 24 a8 00
	00 00		 fld	 DWORD PTR _fRange$[esp+140]

; 1834 : 		nRange = 32;

  00083	bd 20 00 00 00	 mov	 ebp, 32			; 00000020H
  00088	d8 1d 00 00 00
	00		 fcomp	 DWORD PTR __real@42000000
  0008e	df e0		 fnstsw	 ax
  00090	f6 c4 41	 test	 ah, 65			; 00000041H
  00093	7b 05		 jnp	 SHORT $L271692

; 1835 : 	else
; 1836 : 		nRange = 64;

  00095	bd 40 00 00 00	 mov	 ebp, 64			; 00000040H
$L271692:

; 1837 : 
; 1838 : 	if( fRange <= 0 )	//  0  .

  0009a	d9 84 24 a8 00
	00 00		 fld	 DWORD PTR _fRange$[esp+140]
  000a1	8b b4 24 a4 00
	00 00		 mov	 esi, DWORD PTR _nAttackID$[esp+140]
  000a8	d8 1d 00 00 00
	00		 fcomp	 DWORD PTR __real@00000000
  000ae	8b bc 24 9c 00
	00 00		 mov	 edi, DWORD PTR _pAttacker$[esp+140]
  000b5	89 6c 24 14	 mov	 DWORD PTR _nRange$[esp+144], ebp
  000b9	df e0		 fnstsw	 ax
  000bb	f6 c4 41	 test	 ah, 65			; 00000041H
  000be	7a 3b		 jp	 SHORT $L271691

; 1839 : 		Error( "CWorld::SendDamageAround : D:%d,%d,%d A:%s %d %f", pvPos->x, pvPos->y, pvPos->z, pAttacker->GetName(), nAttackID, fRange );

  000c0	d9 84 24 a8 00
	00 00		 fld	 DWORD PTR _fRange$[esp+140]
  000c7	83 ec 08	 sub	 esp, 8
  000ca	dd 1c 24	 fstp	 QWORD PTR [esp]
  000cd	56		 push	 esi
  000ce	6a 00		 push	 0
  000d0	8b cf		 mov	 ecx, edi
  000d2	e8 00 00 00 00	 call	 ?GetName@CMover@@QAEPBDH@Z ; CMover::GetName
  000d7	d9 43 08	 fld	 DWORD PTR [ebx+8]
  000da	50		 push	 eax
  000db	83 ec 18	 sub	 esp, 24			; 00000018H
  000de	dd 5c 24 10	 fstp	 QWORD PTR [esp+16]
  000e2	d9 43 04	 fld	 DWORD PTR [ebx+4]
  000e5	dd 5c 24 08	 fstp	 QWORD PTR [esp+8]
  000e9	d9 03		 fld	 DWORD PTR [ebx]
  000eb	dd 1c 24	 fstp	 QWORD PTR [esp]
  000ee	68 00 00 00 00	 push	 OFFSET FLAT:??_C@_0DB@DMPELOAC@CWorld?3?3SendDamageAround?5?3?5D?3?$CFd?0@
  000f3	e8 00 00 00 00	 call	 ?Error@@YAPBDPBDZZ	; Error
  000f8	83 c4 2c	 add	 esp, 44			; 0000002cH
$L271691:

; 1840 : 
; 1841 : 	ItemProp* pProp;
; 1842 : 	if( nDmgType == AF_MAGICSKILL )

  000fb	83 bc 24 98 00
	00 00 20	 cmp	 DWORD PTR _nDmgType$[esp+140], 32 ; 00000020H
  00103	75 65		 jne	 SHORT $L271500

; 1843 : 	{
; 1844 : 		pProp = prj.GetSkillProp( nAttackID );		// UseSkill    

  00105	85 f6		 test	 esi, esi
  00107	a1 80 02 00 00	 mov	 eax, DWORD PTR ?prj@@3VCProject@@A+640
  0010c	7c 44		 jl	 SHORT $L271463
  0010e	3b f0		 cmp	 esi, eax
  00110	7d 40		 jge	 SHORT $L271463
  00112	72 04		 jb	 SHORT $L271456
  00114	33 c0		 xor	 eax, eax
  00116	eb 09		 jmp	 SHORT $L271455
$L271456:
  00118	8b 0d 70 02 00
	00		 mov	 ecx, DWORD PTR ?prj@@3VCProject@@A+624
  0011e	8b 04 b1	 mov	 eax, DWORD PTR [ecx+esi*4]
$L271455:

; 1845 : 		if( pProp == NULL )

  00121	85 c0		 test	 eax, eax
  00123	89 44 24 30	 mov	 DWORD PTR _pProp$[esp+144], eax
  00127	0f 85 9e 00 00
	00		 jne	 $L263109
$L271670:

; 1846 : 		{
; 1847 : 			Error( "CWorld::SendDamageAround : %s. (%d)  .", pAttacker->GetName(), nAttackID );

  0012d	56		 push	 esi
  0012e	6a 00		 push	 0
  00130	8b cf		 mov	 ecx, edi
  00132	e8 00 00 00 00	 call	 ?GetName@CMover@@QAEPBDH@Z ; CMover::GetName
  00137	50		 push	 eax
  00138	68 00 00 00 00	 push	 OFFSET FLAT:??_C@_0DN@ECMLCJLF@CWorld?3?3SendDamageAround?5?3?5?$CFs?4?5?$LN@
  0013d	e8 00 00 00 00	 call	 ?Error@@YAPBDPBDZZ	; Error
  00142	83 c4 0c	 add	 esp, 12			; 0000000cH
  00145	5f		 pop	 edi
  00146	5e		 pop	 esi
  00147	5d		 pop	 ebp
  00148	5b		 pop	 ebx

; 1929 : 	}
; 1930 : 		
; 1931 : #endif // WORLDSERVER		
; 1932 : } // SendDamageAround()

  00149	81 c4 80 00 00
	00		 add	 esp, 128		; 00000080H
  0014f	c2 18 00	 ret	 24			; 00000018H

; 1843 : 	{
; 1844 : 		pProp = prj.GetSkillProp( nAttackID );		// UseSkill    

$L271463:
  00152	56		 push	 esi
  00153	50		 push	 eax
  00154	6a 00		 push	 0
  00156	68 00 00 00 00	 push	 OFFSET FLAT:??_C@_0BJ@GPNGCFMK@GetSkillProp?5range_error?$AA@
  0015b	68 00 00 00 00	 push	 OFFSET FLAT:??_C@_0BM@HMFGHCP@?$CFs?5min?3?$CFd?0?5max?3?$CFd?0?5index?3?$CFd?$AA@
  00160	e8 00 00 00 00	 call	 ?Error@@YAPBDPBDZZ	; Error
  00165	83 c4 14	 add	 esp, 20			; 00000014H

; 1845 : 		if( pProp == NULL )

  00168	eb c3		 jmp	 SHORT $L271670

; 1848 : 			return;	// property not found
; 1849 : 		}
; 1850 : 	} else
; 1851 : 	{
; 1852 : 		pProp = prj.GetItemProp( nAttackID );		//  

$L271500:
  0016a	85 f6		 test	 esi, esi
  0016c	a1 5c 02 00 00	 mov	 eax, DWORD PTR ?prj@@3VCProject@@A+604
  00171	7c 40		 jl	 SHORT $L271504
  00173	3b f0		 cmp	 esi, eax
  00175	7d 3c		 jge	 SHORT $L271504
  00177	72 04		 jb	 SHORT $L271497
  00179	33 c0		 xor	 eax, eax
  0017b	eb 09		 jmp	 SHORT $L271496
$L271497:
  0017d	8b 15 4c 02 00
	00		 mov	 edx, DWORD PTR ?prj@@3VCProject@@A+588
  00183	8b 04 b2	 mov	 eax, DWORD PTR [edx+esi*4]
$L271496:

; 1853 : 		if( pProp == NULL )

  00186	85 c0		 test	 eax, eax
  00188	89 44 24 30	 mov	 DWORD PTR _pProp$[esp+144], eax
  0018c	75 3d		 jne	 SHORT $L263109
$L271671:

; 1854 : 		{
; 1855 : 			Error( "CWorld::SendDamageAround : %s. (%d)  .", pAttacker->GetName(), nAttackID );

  0018e	56		 push	 esi
  0018f	6a 00		 push	 0
  00191	8b cf		 mov	 ecx, edi
  00193	e8 00 00 00 00	 call	 ?GetName@CMover@@QAEPBDH@Z ; CMover::GetName
  00198	50		 push	 eax
  00199	68 00 00 00 00	 push	 OFFSET FLAT:??_C@_0DP@PNAKIIFP@CWorld?3?3SendDamageAround?5?3?5?$CFs?4?5?$LO@
  0019e	e8 00 00 00 00	 call	 ?Error@@YAPBDPBDZZ	; Error
  001a3	83 c4 0c	 add	 esp, 12			; 0000000cH
  001a6	5f		 pop	 edi
  001a7	5e		 pop	 esi
  001a8	5d		 pop	 ebp
  001a9	5b		 pop	 ebx

; 1929 : 	}
; 1930 : 		
; 1931 : #endif // WORLDSERVER		
; 1932 : } // SendDamageAround()

  001aa	81 c4 80 00 00
	00		 add	 esp, 128		; 00000080H
  001b0	c2 18 00	 ret	 24			; 00000018H

; 1848 : 			return;	// property not found
; 1849 : 		}
; 1850 : 	} else
; 1851 : 	{
; 1852 : 		pProp = prj.GetItemProp( nAttackID );		//  

$L271504:
  001b3	56		 push	 esi
  001b4	50		 push	 eax
  001b5	6a 00		 push	 0
  001b7	68 00 00 00 00	 push	 OFFSET FLAT:??_C@_0BI@BEIFNGEL@GetItemProp?5range_error?$AA@
  001bc	68 00 00 00 00	 push	 OFFSET FLAT:??_C@_0BM@HMFGHCP@?$CFs?5min?3?$CFd?0?5max?3?$CFd?0?5index?3?$CFd?$AA@
  001c1	e8 00 00 00 00	 call	 ?Error@@YAPBDPBDZZ	; Error
  001c6	83 c4 14	 add	 esp, 20			; 00000014H

; 1853 : 		if( pProp == NULL )

  001c9	eb c3		 jmp	 SHORT $L271671
$L263109:

; 1856 : 			return;	// property not found
; 1857 : 		}
; 1858 : 	}
; 1859 : 	
; 1860 : 	BOOL	bDamage = FALSE;
; 1861 : 
; 1862 : 	if( nApplyType & OBJTYPE_PLAYER )	//   

  001cb	f6 84 24 a0 00
	00 00 01	 test	 BYTE PTR _nApplyType$[esp+140], 1
  001d3	0f 84 91 03 00
	00		 je	 $L271685

; 1863 : 	{
; 1864 : 		FOR_LINKMAP( this, vPos, pObj, nRange, CObj::linkPlayer, pAttacker->GetLayer() )

  001d9	8b 44 24 10	 mov	 eax, DWORD PTR _this$[esp+144]
  001dd	db 40 14	 fild	 DWORD PTR [eax+20]
  001e0	d8 3d 00 00 00
	00		 fdivr	 DWORD PTR __real@3f800000
  001e6	d9 44 24 6c	 fld	 DWORD PTR _vPos$[esp+144]
  001ea	d8 c9		 fmul	 ST(0), ST(1)
  001ec	e8 00 00 00 00	 call	 __ftol2
  001f1	d8 4c 24 74	 fmul	 DWORD PTR _vPos$[esp+152]
  001f5	8b f0		 mov	 esi, eax
  001f7	89 74 24 44	 mov	 DWORD PTR __nLinkX$263113[esp+144], esi
  001fb	e8 00 00 00 00	 call	 __ftol2
  00200	8b 4c 24 10	 mov	 ecx, DWORD PTR _this$[esp+144]
  00204	8b d8		 mov	 ebx, eax
  00206	8b 87 b8 01 00
	00		 mov	 eax, DWORD PTR [edi+440]
  0020c	50		 push	 eax
  0020d	83 c1 24	 add	 ecx, 36			; 00000024H
  00210	6a 02		 push	 2
  00212	89 5c 24 50	 mov	 DWORD PTR __nLinkZ$263115[esp+152], ebx
  00216	c7 44 24 20 00
	00 00 00	 mov	 DWORD PTR __i$263129[esp+152], 0
  0021e	e8 00 00 00 00	 call	 ?GetMaxLinkLevel@CLayeredLinkMap@@QAEHKH@Z ; CLayeredLinkMap::GetMaxLinkLevel
  00223	85 c0		 test	 eax, eax
  00225	0f 8e 3f 03 00
	00		 jle	 $L271685
  0022b	d9 44 24 6c	 fld	 DWORD PTR _vPos$[esp+144]
  0022f	e8 00 00 00 00	 call	 __ftol2
  00234	d9 44 24 74	 fld	 DWORD PTR _vPos$[esp+152]
  00238	89 44 24 28	 mov	 DWORD PTR tv781[esp+144], eax
  0023c	e8 00 00 00 00	 call	 __ftol2
  00241	89 44 24 2c	 mov	 DWORD PTR tv787[esp+144], eax
  00245	8b c6		 mov	 eax, esi
  00247	2b c5		 sub	 eax, ebp
  00249	89 44 24 4c	 mov	 DWORD PTR tv790[esp+144], eax
  0024d	8b c3		 mov	 eax, ebx
  0024f	2b c5		 sub	 eax, ebp
  00251	03 f5		 add	 esi, ebp
  00253	03 dd		 add	 ebx, ebp
  00255	89 44 24 50	 mov	 DWORD PTR tv795[esp+144], eax
  00259	89 74 24 54	 mov	 DWORD PTR tv800[esp+144], esi
  0025d	89 5c 24 58	 mov	 DWORD PTR tv805[esp+144], ebx
$L263130:
  00261	8b 87 b8 01 00
	00		 mov	 eax, DWORD PTR [edi+440]
  00267	8b 4c 24 18	 mov	 ecx, DWORD PTR __i$263129[esp+144]
  0026b	8b 5c 24 10	 mov	 ebx, DWORD PTR _this$[esp+144]
  0026f	50		 push	 eax
  00270	51		 push	 ecx
  00271	8d 6b 24	 lea	 ebp, DWORD PTR [ebx+36]
  00274	6a 02		 push	 2
  00276	8b cd		 mov	 ecx, ebp
  00278	e8 00 00 00 00	 call	 ?GetLinkWidth@CLayeredLinkMap@@QAEHKHH@Z ; CLayeredLinkMap::GetLinkWidth
  0027d	8b 54 24 18	 mov	 edx, DWORD PTR __i$263129[esp+144]
  00281	8b f0		 mov	 esi, eax
  00283	8b 87 b8 01 00
	00		 mov	 eax, DWORD PTR [edi+440]
  00289	50		 push	 eax
  0028a	52		 push	 edx
  0028b	6a 02		 push	 2
  0028d	8b cd		 mov	 ecx, ebp
  0028f	e8 00 00 00 00	 call	 ?GetObj@CLayeredLinkMap@@QAEPAPAVCObj@@KKH@Z ; CLayeredLinkMap::GetObj
  00294	89 44 24 3c	 mov	 DWORD PTR __pObjs$263133[esp+144], eax
  00298	8b 43 04	 mov	 eax, DWORD PTR [ebx+4]
  0029b	8b e8		 mov	 ebp, eax
  0029d	c1 e0 07	 shl	 eax, 7
  002a0	0f af ee	 imul	 ebp, esi
  002a3	99		 cdq
  002a4	f7 fd		 idiv	 ebp
  002a6	8b 4b 08	 mov	 ecx, DWORD PTR [ebx+8]
  002a9	8b 5b 14	 mov	 ebx, DWORD PTR [ebx+20]
  002ac	0f af ce	 imul	 ecx, esi
  002af	89 4c 24 40	 mov	 DWORD PTR __nMaxHeight$263119[esp+144], ecx
  002b3	8b c8		 mov	 ecx, eax
  002b5	8b c3		 mov	 eax, ebx
  002b7	0f af c1	 imul	 eax, ecx
  002ba	99		 cdq
  002bb	2b c2		 sub	 eax, edx
  002bd	8b f0		 mov	 esi, eax
  002bf	8b 44 24 44	 mov	 eax, DWORD PTR __nLinkX$263113[esp+144]
  002c3	99		 cdq
  002c4	f7 f9		 idiv	 ecx
  002c6	8b 54 24 28	 mov	 edx, DWORD PTR tv781[esp+144]
  002ca	d1 fe		 sar	 esi, 1
  002cc	0f af c3	 imul	 eax, ebx
  002cf	0f af c1	 imul	 eax, ecx
  002d2	2b d0		 sub	 edx, eax
  002d4	33 c0		 xor	 eax, eax
  002d6	3b d6		 cmp	 edx, esi
  002d8	0f 9f c0	 setg	 al
  002db	89 44 24 24	 mov	 DWORD PTR __nX$263125[esp+144], eax
  002df	8b 44 24 48	 mov	 eax, DWORD PTR __nLinkZ$263115[esp+144]
  002e3	99		 cdq
  002e4	f7 f9		 idiv	 ecx
  002e6	8b 54 24 2c	 mov	 edx, DWORD PTR tv787[esp+144]
  002ea	0f af c3	 imul	 eax, ebx
  002ed	0f af c1	 imul	 eax, ecx
  002f0	2b d0		 sub	 edx, eax
  002f2	33 c0		 xor	 eax, eax
  002f4	3b d6		 cmp	 edx, esi
  002f6	0f 9f c0	 setg	 al
  002f9	8b f0		 mov	 esi, eax
  002fb	8b 44 24 4c	 mov	 eax, DWORD PTR tv790[esp+144]
  002ff	99		 cdq
  00300	f7 f9		 idiv	 ecx
  00302	8b 54 24 24	 mov	 edx, DWORD PTR __nX$263125[esp+144]
  00306	8d 44 10 ff	 lea	 eax, DWORD PTR [eax+edx-1]
  0030a	85 c0		 test	 eax, eax
  0030c	89 44 24 20	 mov	 DWORD PTR __nLinkXMin$263121[esp+144], eax
  00310	7d 08		 jge	 SHORT $L271688
  00312	c7 44 24 20 00
	00 00 00	 mov	 DWORD PTR __nLinkXMin$263121[esp+144], 0
$L271688:
  0031a	8b 44 24 50	 mov	 eax, DWORD PTR tv795[esp+144]
  0031e	99		 cdq
  0031f	f7 f9		 idiv	 ecx
  00321	8d 5c 30 ff	 lea	 ebx, DWORD PTR [eax+esi-1]
  00325	85 db		 test	 ebx, ebx
  00327	7d 02		 jge	 SHORT $L263138
  00329	33 db		 xor	 ebx, ebx
$L263138:
  0032b	8b 44 24 54	 mov	 eax, DWORD PTR tv800[esp+144]
  0032f	99		 cdq
  00330	f7 f9		 idiv	 ecx
  00332	03 44 24 24	 add	 eax, DWORD PTR __nX$263125[esp+144]
  00336	3b c5		 cmp	 eax, ebp
  00338	89 44 24 34	 mov	 DWORD PTR __nLinkXMax$263123[esp+144], eax
  0033c	7c 07		 jl	 SHORT $L263139
  0033e	8d 45 ff	 lea	 eax, DWORD PTR [ebp-1]
  00341	89 44 24 34	 mov	 DWORD PTR __nLinkXMax$263123[esp+144], eax
$L263139:
  00345	8b 44 24 58	 mov	 eax, DWORD PTR tv805[esp+144]
  00349	99		 cdq
  0034a	f7 f9		 idiv	 ecx
  0034c	8b 4c 24 40	 mov	 ecx, DWORD PTR __nMaxHeight$263119[esp+144]
  00350	03 c6		 add	 eax, esi
  00352	3b c1		 cmp	 eax, ecx
  00354	7c 03		 jl	 SHORT $L263140
  00356	8d 41 ff	 lea	 eax, DWORD PTR [ecx-1]
$L263140:
  00359	3b d8		 cmp	 ebx, eax
  0035b	0f 8f df 01 00
	00		 jg	 $L263131
  00361	8b 74 24 3c	 mov	 esi, DWORD PTR __pObjs$263133[esp+144]
  00365	8b d3		 mov	 edx, ebx
  00367	0f af d5	 imul	 edx, ebp
  0036a	8d 0c ad 00 00
	00 00		 lea	 ecx, DWORD PTR [ebp*4]
  00371	8b ac 24 a4 00
	00 00		 mov	 ebp, DWORD PTR _nAttackID$[esp+140]
  00378	89 4c 24 5c	 mov	 DWORD PTR tv1281[esp+144], ecx
  0037c	8b 4c 24 20	 mov	 ecx, DWORD PTR __nLinkXMin$263121[esp+144]
  00380	03 d1		 add	 edx, ecx
  00382	2b c3		 sub	 eax, ebx
  00384	8b 9c 24 98 00
	00 00		 mov	 ebx, DWORD PTR _nDmgType$[esp+140]
  0038b	8d 14 96	 lea	 edx, DWORD PTR [esi+edx*4]
  0038e	40		 inc	 eax
  0038f	89 54 24 24	 mov	 DWORD PTR tv1277[esp+144], edx
  00393	89 44 24 40	 mov	 DWORD PTR tv326[esp+144], eax
  00397	eb 07 8d a4 24
	00 00 00 00	 npad	 9
$L263142:
  003a0	8b 44 24 34	 mov	 eax, DWORD PTR __nLinkXMax$263123[esp+144]
  003a4	3b c8		 cmp	 ecx, eax
  003a6	0f 8f 77 01 00
	00		 jg	 $L263143
  003ac	8b 54 24 24	 mov	 edx, DWORD PTR tv1277[esp+144]
  003b0	2b c1		 sub	 eax, ecx
  003b2	40		 inc	 eax
  003b3	89 54 24 1c	 mov	 DWORD PTR tv1231[esp+144], edx
  003b7	89 44 24 3c	 mov	 DWORD PTR tv380[esp+144], eax
  003bb	eb 03 8d 49 00	 npad	 5
$L263146:
  003c0	8b 44 24 1c	 mov	 eax, DWORD PTR tv1231[esp+144]
  003c4	8b 30		 mov	 esi, DWORD PTR [eax]
  003c6	85 f6		 test	 esi, esi
  003c8	c7 44 24 38 e8
	03 00 00	 mov	 DWORD PTR ___limit$263149[esp+144], 1000 ; 000003e8H
  003d0	0f 84 2f 01 00
	00		 je	 $L263147
$L263151:
  003d6	8b 44 24 38	 mov	 eax, DWORD PTR ___limit$263149[esp+144]
  003da	8b c8		 mov	 ecx, eax
  003dc	48		 dec	 eax
  003dd	85 c9		 test	 ecx, ecx
  003df	89 44 24 38	 mov	 DWORD PTR ___limit$263149[esp+144], eax
  003e3	0f 84 1c 01 00
	00		 je	 $L263147

; 1865 : 		{
; 1866 : 			if( pObj->GetType() == OT_MOVER )

  003e9	83 be 70 01 00
	00 05		 cmp	 DWORD PTR [esi+368], 5
  003f0	0f 85 01 01 00
	00		 jne	 $L271575

; 1867 : 			{
; 1868 : 				if( pAttacker->IsPlayer() )
; 1869 : 				{
; 1870 : 					bDamage = TRUE;
; 1871 : 				} else
; 1872 : 				//  
; 1873 : 				{
; 1874 : 					bDamage = TRUE;
; 1875 : 				}
; 1876 : 
; 1877 : 				if( bDamage )
; 1878 : 				{
; 1879 : 					vDist = pObj->GetPos() - vPos;		// this ->  

  003f6	8d 96 60 01 00
	00		 lea	 edx, DWORD PTR [esi+352]
  003fc	8b 02		 mov	 eax, DWORD PTR [edx]
  003fe	8b 4a 04	 mov	 ecx, DWORD PTR [edx+4]
  00401	8b 52 08	 mov	 edx, DWORD PTR [edx+8]
  00404	89 44 24 78	 mov	 DWORD PTR $T271421[esp+144], eax
  00408	d9 44 24 78	 fld	 DWORD PTR $T271421[esp+144]
  0040c	d8 64 24 6c	 fsub	 DWORD PTR _vPos$[esp+144]
  00410	89 4c 24 7c	 mov	 DWORD PTR $T271421[esp+148], ecx
  00414	89 94 24 80 00
	00 00		 mov	 DWORD PTR $T271421[esp+152], edx
  0041b	d9 9c 24 84 00
	00 00		 fstp	 DWORD PTR $T271422[esp+144]
  00422	8b 84 24 84 00
	00 00		 mov	 eax, DWORD PTR $T271422[esp+144]
  00429	d9 44 24 7c	 fld	 DWORD PTR $T271421[esp+148]
  0042d	89 44 24 60	 mov	 DWORD PTR _vDist$[esp+144], eax
  00431	d8 64 24 70	 fsub	 DWORD PTR _vPos$[esp+148]
  00435	d9 9c 24 88 00
	00 00		 fstp	 DWORD PTR $T271422[esp+148]
  0043c	8b 8c 24 88 00
	00 00		 mov	 ecx, DWORD PTR $T271422[esp+148]
  00443	d9 84 24 80 00
	00 00		 fld	 DWORD PTR $T271421[esp+152]
  0044a	89 4c 24 64	 mov	 DWORD PTR _vDist$[esp+148], ecx
  0044e	d8 64 24 74	 fsub	 DWORD PTR _vPos$[esp+152]
  00452	d9 9c 24 8c 00
	00 00		 fstp	 DWORD PTR $T271422[esp+152]
  00459	8b 94 24 8c 00
	00 00		 mov	 edx, DWORD PTR $T271422[esp+152]
  00460	89 54 24 68	 mov	 DWORD PTR _vDist$[esp+152], edx

; 1880 : 					fDistSq = D3DXVec3LengthSq( &vDist );

  00464	d9 44 24 68	 fld	 DWORD PTR _vDist$[esp+152]
  00468	d8 4c 24 68	 fmul	 DWORD PTR _vDist$[esp+152]
  0046c	d9 44 24 64	 fld	 DWORD PTR _vDist$[esp+148]
  00470	d8 4c 24 64	 fmul	 DWORD PTR _vDist$[esp+148]

; 1905 : 	{
; 1906 : 		FOR_LINKMAP( this, vPos, pObj, nRange, CObj::linkDynamic, pAttacker->GetLayer() )

  00474	de c1		 faddp	 ST(1), ST(0)
  00476	d9 44 24 60	 fld	 DWORD PTR _vDist$[esp+144]
  0047a	d8 4c 24 60	 fmul	 DWORD PTR _vDist$[esp+144]
  0047e	de c1		 faddp	 ST(1), ST(0)
  00480	d9 84 24 a8 00
	00 00		 fld	 DWORD PTR _fRange$[esp+140]
  00487	d8 8c 24 a8 00
	00 00		 fmul	 DWORD PTR _fRange$[esp+140]
  0048e	de d9		 fcompp
  00490	df e0		 fnstsw	 ax
  00492	f6 c4 41	 test	 ah, 65			; 00000041H
  00495	75 60		 jne	 SHORT $L271575

; 1881 : 					if( fDistSq < fRange * fRange )		//   fRange  .
; 1882 : 					{
; 1883 : 						if( pObj != pAttacker )		//   .

  00497	3b f7		 cmp	 esi, edi
  00499	74 5c		 je	 SHORT $L271575

; 1884 : 						{
; 1885 : 							pTarget = (CMover *)pObj;
; 1886 : 							if( IsValidObj( (CObj*)pTarget ) && pTarget->IsLive() )

  0049b	f6 46 04 01	 test	 BYTE PTR [esi+4], 1
  0049f	75 56		 jne	 SHORT $L271575
  004a1	8b 8e 3c 02 00
	00		 mov	 ecx, DWORD PTR [esi+572]
  004a7	f7 41 04 00 00
	00 08		 test	 DWORD PTR [ecx+4], 134217728 ; 08000000H
  004ae	74 0a		 je	 SHORT $L271561
  004b0	8b 86 00 06 00
	00		 mov	 eax, DWORD PTR [esi+1536]
  004b6	85 c0		 test	 eax, eax
  004b8	7e 3d		 jle	 SHORT $L271575
$L271561:

; 1887 : 							{
; 1888 : 								if( pProp->dwComboStyle == CT_FINISH )

  004ba	8b 44 24 30	 mov	 eax, DWORD PTR _pProp$[esp+144]
  004be	83 b8 48 02 00
	00 03		 cmp	 DWORD PTR [eax+584], 3
  004c5	75 17		 jne	 SHORT $L263164

; 1889 : 									pTarget->m_pActMover->SendDamageForce( nDmgType, pAttacker->GetId(), (nAttackID << 16) );

  004c7	8b 87 bc 01 00
	00		 mov	 eax, DWORD PTR [edi+444]
  004cd	6a 01		 push	 1
  004cf	8b d5		 mov	 edx, ebp
  004d1	c1 e2 10	 shl	 edx, 16			; 00000010H
  004d4	52		 push	 edx
  004d5	50		 push	 eax
  004d6	53		 push	 ebx
  004d7	e8 00 00 00 00	 call	 ?SendDamageForce@CActionMover@@QAEHKKHH@Z ; CActionMover::SendDamageForce

; 1890 : 								else

  004dc	eb 19		 jmp	 SHORT $L271575
$L263164:

; 1891 : 									pTarget->m_pActMover->SendDamage( nDmgType, pAttacker->GetId(), (nAttackID << 16) );

  004de	8b 11		 mov	 edx, DWORD PTR [ecx]
  004e0	6a 00		 push	 0
  004e2	6a 01		 push	 1
  004e4	8b c5		 mov	 eax, ebp
  004e6	c1 e0 10	 shl	 eax, 16			; 00000010H
  004e9	50		 push	 eax
  004ea	8b 87 bc 01 00
	00		 mov	 eax, DWORD PTR [edi+444]
  004f0	50		 push	 eax
  004f1	53		 push	 ebx
  004f2	6a 29		 push	 41			; 00000029H
  004f4	ff 52 04	 call	 DWORD PTR [edx+4]
$L271575:

; 1892 : 							}
; 1893 : 						}
; 1894 : 					}
; 1895 : 					
; 1896 : 					bDamage = FALSE;	//    .
; 1897 : 				} // bDamage
; 1898 : 			}
; 1899 : 		}
; 1900 : 		END_LINKMAP

  004f7	8b b6 80 01 00
	00		 mov	 esi, DWORD PTR [esi+384]
  004fd	85 f6		 test	 esi, esi
  004ff	0f 85 d1 fe ff
	ff		 jne	 $L263151
$L263147:

; 1863 : 	{
; 1864 : 		FOR_LINKMAP( this, vPos, pObj, nRange, CObj::linkPlayer, pAttacker->GetLayer() )

  00505	8b 4c 24 1c	 mov	 ecx, DWORD PTR tv1231[esp+144]
  00509	8b 44 24 3c	 mov	 eax, DWORD PTR tv380[esp+144]
  0050d	83 c1 04	 add	 ecx, 4
  00510	48		 dec	 eax
  00511	89 4c 24 1c	 mov	 DWORD PTR tv1231[esp+144], ecx
  00515	89 44 24 3c	 mov	 DWORD PTR tv380[esp+144], eax
  00519	0f 85 a1 fe ff
	ff		 jne	 $L263146
  0051f	8b 4c 24 20	 mov	 ecx, DWORD PTR __nLinkXMin$263121[esp+144]
$L263143:
  00523	8b 74 24 24	 mov	 esi, DWORD PTR tv1277[esp+144]
  00527	8b 54 24 5c	 mov	 edx, DWORD PTR tv1281[esp+144]
  0052b	8b 44 24 40	 mov	 eax, DWORD PTR tv326[esp+144]
  0052f	03 f2		 add	 esi, edx
  00531	48		 dec	 eax
  00532	89 74 24 24	 mov	 DWORD PTR tv1277[esp+144], esi
  00536	89 44 24 40	 mov	 DWORD PTR tv326[esp+144], eax
  0053a	0f 85 60 fe ff
	ff		 jne	 $L263142
$L263131:
  00540	8b 87 b8 01 00
	00		 mov	 eax, DWORD PTR [edi+440]
  00546	8b 74 24 18	 mov	 esi, DWORD PTR __i$263129[esp+144]
  0054a	8b 4c 24 10	 mov	 ecx, DWORD PTR _this$[esp+144]
  0054e	50		 push	 eax
  0054f	46		 inc	 esi
  00550	6a 02		 push	 2
  00552	83 c1 24	 add	 ecx, 36			; 00000024H
  00555	89 74 24 20	 mov	 DWORD PTR __i$263129[esp+152], esi
  00559	e8 00 00 00 00	 call	 ?GetMaxLinkLevel@CLayeredLinkMap@@QAEHKH@Z ; CLayeredLinkMap::GetMaxLinkLevel
  0055e	3b f0		 cmp	 esi, eax
  00560	0f 8c fb fc ff
	ff		 jl	 $L263130
  00566	8b 6c 24 14	 mov	 ebp, DWORD PTR _nRange$[esp+144]
$L271685:

; 1901 : 	}
; 1902 : 
; 1903 : 	//  .
; 1904 : 	if( nApplyType & OBJTYPE_MONSTER )

  0056a	f6 84 24 a0 00
	00 00 02	 test	 BYTE PTR _nApplyType$[esp+140], 2
  00572	0f 84 9b 03 00
	00		 je	 $L263186

; 1905 : 	{
; 1906 : 		FOR_LINKMAP( this, vPos, pObj, nRange, CObj::linkDynamic, pAttacker->GetLayer() )

  00578	8b 44 24 10	 mov	 eax, DWORD PTR _this$[esp+144]
  0057c	db 40 14	 fild	 DWORD PTR [eax+20]
  0057f	d8 3d 00 00 00
	00		 fdivr	 DWORD PTR __real@3f800000
  00585	d9 44 24 6c	 fld	 DWORD PTR _vPos$[esp+144]
  00589	d8 c9		 fmul	 ST(0), ST(1)
  0058b	e8 00 00 00 00	 call	 __ftol2
  00590	d8 4c 24 74	 fmul	 DWORD PTR _vPos$[esp+152]
  00594	8b f0		 mov	 esi, eax
  00596	89 74 24 5c	 mov	 DWORD PTR __nLinkX$263167[esp+144], esi
  0059a	e8 00 00 00 00	 call	 __ftol2
  0059f	8b 4c 24 10	 mov	 ecx, DWORD PTR _this$[esp+144]
  005a3	8b d8		 mov	 ebx, eax
  005a5	8b 87 b8 01 00
	00		 mov	 eax, DWORD PTR [edi+440]
  005ab	50		 push	 eax
  005ac	83 c1 24	 add	 ecx, 36			; 00000024H
  005af	6a 01		 push	 1
  005b1	89 5c 24 60	 mov	 DWORD PTR __nLinkZ$263169[esp+152], ebx
  005b5	c7 44 24 20 00
	00 00 00	 mov	 DWORD PTR __i$263183[esp+152], 0
  005bd	e8 00 00 00 00	 call	 ?GetMaxLinkLevel@CLayeredLinkMap@@QAEHKH@Z ; CLayeredLinkMap::GetMaxLinkLevel
  005c2	85 c0		 test	 eax, eax
  005c4	0f 8e 49 03 00
	00		 jle	 $L263186
  005ca	d9 44 24 6c	 fld	 DWORD PTR _vPos$[esp+144]
  005ce	e8 00 00 00 00	 call	 __ftol2
  005d3	d9 44 24 74	 fld	 DWORD PTR _vPos$[esp+152]
  005d7	89 44 24 28	 mov	 DWORD PTR tv781[esp+144], eax
  005db	e8 00 00 00 00	 call	 __ftol2
  005e0	89 44 24 2c	 mov	 DWORD PTR tv787[esp+144], eax
  005e4	8b c6		 mov	 eax, esi
  005e6	2b c5		 sub	 eax, ebp
  005e8	89 44 24 54	 mov	 DWORD PTR tv919[esp+144], eax
  005ec	8b c3		 mov	 eax, ebx
  005ee	2b c5		 sub	 eax, ebp
  005f0	03 f5		 add	 esi, ebp
  005f2	03 dd		 add	 ebx, ebp
  005f4	89 44 24 50	 mov	 DWORD PTR tv924[esp+144], eax
  005f8	89 74 24 4c	 mov	 DWORD PTR tv929[esp+144], esi
  005fc	89 5c 24 48	 mov	 DWORD PTR tv934[esp+144], ebx
$L263184:
  00600	8b 87 b8 01 00
	00		 mov	 eax, DWORD PTR [edi+440]
  00606	8b 4c 24 18	 mov	 ecx, DWORD PTR __i$263183[esp+144]
  0060a	8b 5c 24 10	 mov	 ebx, DWORD PTR _this$[esp+144]
  0060e	50		 push	 eax
  0060f	51		 push	 ecx
  00610	8d 6b 24	 lea	 ebp, DWORD PTR [ebx+36]
  00613	6a 01		 push	 1
  00615	8b cd		 mov	 ecx, ebp
  00617	e8 00 00 00 00	 call	 ?GetLinkWidth@CLayeredLinkMap@@QAEHKHH@Z ; CLayeredLinkMap::GetLinkWidth
  0061c	8b 54 24 18	 mov	 edx, DWORD PTR __i$263183[esp+144]
  00620	8b f0		 mov	 esi, eax
  00622	8b 87 b8 01 00
	00		 mov	 eax, DWORD PTR [edi+440]
  00628	50		 push	 eax
  00629	52		 push	 edx
  0062a	6a 01		 push	 1
  0062c	8b cd		 mov	 ecx, ebp
  0062e	e8 00 00 00 00	 call	 ?GetObj@CLayeredLinkMap@@QAEPAPAVCObj@@KKH@Z ; CLayeredLinkMap::GetObj
  00633	89 44 24 3c	 mov	 DWORD PTR __pObjs$263187[esp+144], eax
  00637	8b 43 04	 mov	 eax, DWORD PTR [ebx+4]
  0063a	8b e8		 mov	 ebp, eax
  0063c	c1 e0 07	 shl	 eax, 7
  0063f	0f af ee	 imul	 ebp, esi
  00642	99		 cdq
  00643	f7 fd		 idiv	 ebp
  00645	8b 4b 08	 mov	 ecx, DWORD PTR [ebx+8]
  00648	8b 5b 14	 mov	 ebx, DWORD PTR [ebx+20]
  0064b	0f af ce	 imul	 ecx, esi
  0064e	89 4c 24 44	 mov	 DWORD PTR __nMaxHeight$263173[esp+144], ecx
  00652	8b c8		 mov	 ecx, eax
  00654	8b c3		 mov	 eax, ebx
  00656	0f af c1	 imul	 eax, ecx
  00659	99		 cdq
  0065a	2b c2		 sub	 eax, edx
  0065c	8b f0		 mov	 esi, eax
  0065e	8b 44 24 5c	 mov	 eax, DWORD PTR __nLinkX$263167[esp+144]
  00662	99		 cdq
  00663	f7 f9		 idiv	 ecx
  00665	8b 54 24 28	 mov	 edx, DWORD PTR tv781[esp+144]
  00669	d1 fe		 sar	 esi, 1
  0066b	0f af c3	 imul	 eax, ebx
  0066e	0f af c1	 imul	 eax, ecx
  00671	2b d0		 sub	 edx, eax
  00673	33 c0		 xor	 eax, eax
  00675	3b d6		 cmp	 edx, esi
  00677	0f 9f c0	 setg	 al
  0067a	89 44 24 40	 mov	 DWORD PTR __nX$263179[esp+144], eax
  0067e	8b 44 24 58	 mov	 eax, DWORD PTR __nLinkZ$263169[esp+144]
  00682	99		 cdq
  00683	f7 f9		 idiv	 ecx
  00685	8b 54 24 2c	 mov	 edx, DWORD PTR tv787[esp+144]
  00689	0f af c3	 imul	 eax, ebx
  0068c	0f af c1	 imul	 eax, ecx
  0068f	2b d0		 sub	 edx, eax
  00691	33 c0		 xor	 eax, eax
  00693	3b d6		 cmp	 edx, esi
  00695	0f 9f c0	 setg	 al
  00698	8b f0		 mov	 esi, eax
  0069a	8b 44 24 54	 mov	 eax, DWORD PTR tv919[esp+144]
  0069e	99		 cdq
  0069f	f7 f9		 idiv	 ecx
  006a1	8b 54 24 40	 mov	 edx, DWORD PTR __nX$263179[esp+144]
  006a5	8d 44 10 ff	 lea	 eax, DWORD PTR [eax+edx-1]
  006a9	85 c0		 test	 eax, eax
  006ab	89 44 24 20	 mov	 DWORD PTR __nLinkXMin$263175[esp+144], eax
  006af	7d 08		 jge	 SHORT $L271686
  006b1	c7 44 24 20 00
	00 00 00	 mov	 DWORD PTR __nLinkXMin$263175[esp+144], 0
$L271686:
  006b9	8b 44 24 50	 mov	 eax, DWORD PTR tv924[esp+144]
  006bd	99		 cdq
  006be	f7 f9		 idiv	 ecx
  006c0	8d 5c 30 ff	 lea	 ebx, DWORD PTR [eax+esi-1]
  006c4	85 db		 test	 ebx, ebx
  006c6	7d 02		 jge	 SHORT $L263192
  006c8	33 db		 xor	 ebx, ebx
$L263192:
  006ca	8b 44 24 4c	 mov	 eax, DWORD PTR tv929[esp+144]
  006ce	99		 cdq
  006cf	f7 f9		 idiv	 ecx
  006d1	03 44 24 40	 add	 eax, DWORD PTR __nX$263179[esp+144]
  006d5	3b c5		 cmp	 eax, ebp
  006d7	89 44 24 40	 mov	 DWORD PTR __nLinkXMax$263177[esp+144], eax
  006db	7c 07		 jl	 SHORT $L263193
  006dd	8d 45 ff	 lea	 eax, DWORD PTR [ebp-1]
  006e0	89 44 24 40	 mov	 DWORD PTR __nLinkXMax$263177[esp+144], eax
$L263193:
  006e4	8b 44 24 48	 mov	 eax, DWORD PTR tv934[esp+144]
  006e8	99		 cdq
  006e9	f7 f9		 idiv	 ecx
  006eb	8b 4c 24 44	 mov	 ecx, DWORD PTR __nMaxHeight$263173[esp+144]
  006ef	03 c6		 add	 eax, esi
  006f1	3b c1		 cmp	 eax, ecx
  006f3	7c 03		 jl	 SHORT $L263194
  006f5	8d 41 ff	 lea	 eax, DWORD PTR [ecx-1]
$L263194:
  006f8	3b d8		 cmp	 ebx, eax
  006fa	0f 8f ed 01 00
	00		 jg	 $L263185
  00700	8b 74 24 3c	 mov	 esi, DWORD PTR __pObjs$263187[esp+144]
  00704	8b d3		 mov	 edx, ebx
  00706	0f af d5	 imul	 edx, ebp
  00709	8d 0c ad 00 00
	00 00		 lea	 ecx, DWORD PTR [ebp*4]
  00710	8b ac 24 a4 00
	00 00		 mov	 ebp, DWORD PTR _nAttackID$[esp+140]
  00717	89 4c 24 44	 mov	 DWORD PTR tv1385[esp+144], ecx
  0071b	8b 4c 24 20	 mov	 ecx, DWORD PTR __nLinkXMin$263175[esp+144]
  0071f	03 d1		 add	 edx, ecx
  00721	2b c3		 sub	 eax, ebx
  00723	8b 9c 24 98 00
	00 00		 mov	 ebx, DWORD PTR _nDmgType$[esp+140]
  0072a	8d 14 96	 lea	 edx, DWORD PTR [esi+edx*4]
  0072d	40		 inc	 eax
  0072e	89 54 24 1c	 mov	 DWORD PTR tv1381[esp+144], edx
  00732	89 44 24 34	 mov	 DWORD PTR tv203[esp+144], eax
  00736	eb 08 8d a4 24
	00 00 00 00 90	 npad	 10
$L263196:
  00740	8b 44 24 40	 mov	 eax, DWORD PTR __nLinkXMax$263177[esp+144]
  00744	3b c8		 cmp	 ecx, eax
  00746	0f 8f 84 01 00
	00		 jg	 $L263197
  0074c	8b 54 24 1c	 mov	 edx, DWORD PTR tv1381[esp+144]
  00750	2b c1		 sub	 eax, ecx
  00752	40		 inc	 eax
  00753	89 54 24 24	 mov	 DWORD PTR tv1335[esp+144], edx
  00757	89 44 24 38	 mov	 DWORD PTR tv557[esp+144], eax
  0075b	eb 03 8d 49 00	 npad	 5
$L263200:
  00760	8b 44 24 24	 mov	 eax, DWORD PTR tv1335[esp+144]
  00764	8b 30		 mov	 esi, DWORD PTR [eax]
  00766	85 f6		 test	 esi, esi
  00768	c7 44 24 3c e8
	03 00 00	 mov	 DWORD PTR ___limit$263203[esp+144], 1000 ; 000003e8H
  00770	0f 84 3c 01 00
	00		 je	 $L263201
$L263205:
  00776	8b 44 24 3c	 mov	 eax, DWORD PTR ___limit$263203[esp+144]
  0077a	8b c8		 mov	 ecx, eax
  0077c	48		 dec	 eax
  0077d	85 c9		 test	 ecx, ecx
  0077f	89 44 24 3c	 mov	 DWORD PTR ___limit$263203[esp+144], eax
  00783	0f 84 29 01 00
	00		 je	 $L263201

; 1907 : 		{
; 1908 : 			if( pObj->GetType() == OT_MOVER && ((CMover *)pObj)->IsPeaceful() == FALSE )

  00789	83 be 70 01 00
	00 05		 cmp	 DWORD PTR [esi+368], 5
  00790	0f 85 0e 01 00
	00		 jne	 $L271650
  00796	83 be 6c 06 00
	00 01		 cmp	 DWORD PTR [esi+1644], 1
  0079d	0f 84 01 01 00
	00		 je	 $L271650

; 1909 : 			{
; 1910 : 				vDist = pObj->GetPos() - vPos;		// this ->  

  007a3	8d 96 60 01 00
	00		 lea	 edx, DWORD PTR [esi+352]
  007a9	8b 02		 mov	 eax, DWORD PTR [edx]
  007ab	8b 4a 04	 mov	 ecx, DWORD PTR [edx+4]
  007ae	8b 52 08	 mov	 edx, DWORD PTR [edx+8]
  007b1	89 84 24 84 00
	00 00		 mov	 DWORD PTR $T271423[esp+144], eax
  007b8	d9 84 24 84 00
	00 00		 fld	 DWORD PTR $T271423[esp+144]
  007bf	d8 64 24 6c	 fsub	 DWORD PTR _vPos$[esp+144]
  007c3	89 8c 24 88 00
	00 00		 mov	 DWORD PTR $T271423[esp+148], ecx
  007ca	89 94 24 8c 00
	00 00		 mov	 DWORD PTR $T271423[esp+152], edx
  007d1	d9 5c 24 78	 fstp	 DWORD PTR $T271424[esp+144]
  007d5	8b 44 24 78	 mov	 eax, DWORD PTR $T271424[esp+144]
  007d9	d9 84 24 88 00
	00 00		 fld	 DWORD PTR $T271423[esp+148]
  007e0	89 44 24 60	 mov	 DWORD PTR _vDist$[esp+144], eax
  007e4	d8 64 24 70	 fsub	 DWORD PTR _vPos$[esp+148]
  007e8	d9 5c 24 7c	 fstp	 DWORD PTR $T271424[esp+148]
  007ec	8b 4c 24 7c	 mov	 ecx, DWORD PTR $T271424[esp+148]
  007f0	d9 84 24 8c 00
	00 00		 fld	 DWORD PTR $T271423[esp+152]
  007f7	89 4c 24 64	 mov	 DWORD PTR _vDist$[esp+148], ecx
  007fb	d8 64 24 74	 fsub	 DWORD PTR _vPos$[esp+152]
  007ff	d9 9c 24 80 00
	00 00		 fstp	 DWORD PTR $T271424[esp+152]
  00806	8b 94 24 80 00
	00 00		 mov	 edx, DWORD PTR $T271424[esp+152]
  0080d	89 54 24 68	 mov	 DWORD PTR _vDist$[esp+152], edx

; 1911 : 				fDistSq = D3DXVec3LengthSq( &vDist );

  00811	d9 44 24 68	 fld	 DWORD PTR _vDist$[esp+152]
  00815	d8 4c 24 68	 fmul	 DWORD PTR _vDist$[esp+152]
  00819	d9 44 24 64	 fld	 DWORD PTR _vDist$[esp+148]
  0081d	d8 4c 24 64	 fmul	 DWORD PTR _vDist$[esp+148]
  00821	de c1		 faddp	 ST(1), ST(0)
  00823	d9 44 24 60	 fld	 DWORD PTR _vDist$[esp+144]
  00827	d8 4c 24 60	 fmul	 DWORD PTR _vDist$[esp+144]

; 1912 : 				if( fDistSq < fRange * fRange )		//   fRange  .

  0082b	de c1		 faddp	 ST(1), ST(0)
  0082d	d9 84 24 a8 00
	00 00		 fld	 DWORD PTR _fRange$[esp+140]
  00834	d8 8c 24 a8 00
	00 00		 fmul	 DWORD PTR _fRange$[esp+140]
  0083b	de d9		 fcompp
  0083d	df e0		 fnstsw	 ax
  0083f	f6 c4 41	 test	 ah, 65			; 00000041H
  00842	75 60		 jne	 SHORT $L271650

; 1913 : 				{
; 1914 : 					if( pObj != pAttacker )		//   .

  00844	3b f7		 cmp	 esi, edi
  00846	74 5c		 je	 SHORT $L271650

; 1915 : 					{
; 1916 : 						pTarget = (CMover *)pObj;
; 1917 : 						if( IsValidObj( (CObj*)pTarget ) && pTarget->IsLive() )

  00848	f6 46 04 01	 test	 BYTE PTR [esi+4], 1
  0084c	75 56		 jne	 SHORT $L271650
  0084e	8b 8e 3c 02 00
	00		 mov	 ecx, DWORD PTR [esi+572]
  00854	f7 41 04 00 00
	00 08		 test	 DWORD PTR [ecx+4], 134217728 ; 08000000H
  0085b	74 0a		 je	 SHORT $L271636
  0085d	8b 86 00 06 00
	00		 mov	 eax, DWORD PTR [esi+1536]
  00863	85 c0		 test	 eax, eax
  00865	7e 3d		 jle	 SHORT $L271650
$L271636:

; 1918 : 						{
; 1919 : 							if( pProp->dwComboStyle == CT_FINISH )

  00867	8b 44 24 30	 mov	 eax, DWORD PTR _pProp$[esp+144]
  0086b	83 b8 48 02 00
	00 03		 cmp	 DWORD PTR [eax+584], 3
  00872	75 17		 jne	 SHORT $L263216

; 1920 : 								pTarget->m_pActMover->SendDamageForce( nDmgType, pAttacker->GetId(), (nAttackID << 16) );

  00874	8b 87 bc 01 00
	00		 mov	 eax, DWORD PTR [edi+444]
  0087a	6a 01		 push	 1
  0087c	8b d5		 mov	 edx, ebp
  0087e	c1 e2 10	 shl	 edx, 16			; 00000010H
  00881	52		 push	 edx
  00882	50		 push	 eax
  00883	53		 push	 ebx
  00884	e8 00 00 00 00	 call	 ?SendDamageForce@CActionMover@@QAEHKKHH@Z ; CActionMover::SendDamageForce

; 1921 : 							else

  00889	eb 19		 jmp	 SHORT $L271650
$L263216:

; 1922 : 								pTarget->m_pActMover->SendDamage( nDmgType, pAttacker->GetId(), (nAttackID << 16) );

  0088b	8b 11		 mov	 edx, DWORD PTR [ecx]
  0088d	6a 00		 push	 0
  0088f	6a 01		 push	 1
  00891	8b c5		 mov	 eax, ebp
  00893	c1 e0 10	 shl	 eax, 16			; 00000010H
  00896	50		 push	 eax
  00897	8b 87 bc 01 00
	00		 mov	 eax, DWORD PTR [edi+444]
  0089d	50		 push	 eax
  0089e	53		 push	 ebx
  0089f	6a 29		 push	 41			; 00000029H
  008a1	ff 52 04	 call	 DWORD PTR [edx+4]
$L271650:

; 1923 : 						}
; 1924 : 					}
; 1925 : 				}
; 1926 : 			}
; 1927 : 		}
; 1928 : 		END_LINKMAP

  008a4	8b b6 80 01 00
	00		 mov	 esi, DWORD PTR [esi+384]
  008aa	85 f6		 test	 esi, esi
  008ac	0f 85 c4 fe ff
	ff		 jne	 $L263205
$L263201:

; 1905 : 	{
; 1906 : 		FOR_LINKMAP( this, vPos, pObj, nRange, CObj::linkDynamic, pAttacker->GetLayer() )

  008b2	8b 4c 24 24	 mov	 ecx, DWORD PTR tv1335[esp+144]
  008b6	8b 44 24 38	 mov	 eax, DWORD PTR tv557[esp+144]
  008ba	83 c1 04	 add	 ecx, 4
  008bd	48		 dec	 eax
  008be	89 4c 24 24	 mov	 DWORD PTR tv1335[esp+144], ecx
  008c2	89 44 24 38	 mov	 DWORD PTR tv557[esp+144], eax
  008c6	0f 85 94 fe ff
	ff		 jne	 $L263200
  008cc	8b 4c 24 20	 mov	 ecx, DWORD PTR __nLinkXMin$263175[esp+144]
$L263197:
  008d0	8b 74 24 1c	 mov	 esi, DWORD PTR tv1381[esp+144]
  008d4	8b 54 24 44	 mov	 edx, DWORD PTR tv1385[esp+144]
  008d8	8b 44 24 34	 mov	 eax, DWORD PTR tv203[esp+144]
  008dc	03 f2		 add	 esi, edx
  008de	48		 dec	 eax
  008df	89 74 24 1c	 mov	 DWORD PTR tv1381[esp+144], esi
  008e3	89 44 24 34	 mov	 DWORD PTR tv203[esp+144], eax
  008e7	0f 85 53 fe ff
	ff		 jne	 $L263196
$L263185:
  008ed	8b 87 b8 01 00
	00		 mov	 eax, DWORD PTR [edi+440]
  008f3	8b 74 24 18	 mov	 esi, DWORD PTR __i$263183[esp+144]
  008f7	8b 4c 24 10	 mov	 ecx, DWORD PTR _this$[esp+144]
  008fb	50		 push	 eax
  008fc	46		 inc	 esi
  008fd	6a 01		 push	 1
  008ff	83 c1 24	 add	 ecx, 36			; 00000024H
  00902	89 74 24 20	 mov	 DWORD PTR __i$263183[esp+152], esi
  00906	e8 00 00 00 00	 call	 ?GetMaxLinkLevel@CLayeredLinkMap@@QAEHKH@Z ; CLayeredLinkMap::GetMaxLinkLevel
  0090b	3b f0		 cmp	 esi, eax
  0090d	0f 8c ed fc ff
	ff		 jl	 $L263184
$L263186:
  00913	5f		 pop	 edi
  00914	5e		 pop	 esi
  00915	5d		 pop	 ebp
  00916	5b		 pop	 ebx

; 1929 : 	}
; 1930 : 		
; 1931 : #endif // WORLDSERVER		
; 1932 : } // SendDamageAround()

  00917	81 c4 80 00 00
	00		 add	 esp, 128		; 00000080H
  0091d	c2 18 00	 ret	 24			; 00000018H
?SendDamageAround@CWorld@@QAEXPBUD3DXVECTOR3@@HPAVCMover@@HHM@Z ENDP ; CWorld::SendDamageAround
_TEXT	ENDS
PUBLIC	?begin@?$vector@KV?$allocator@K@std@@@std@@QAE?AViterator@12@XZ ; std::vector<unsigned long,std::allocator<unsigned long> >::begin
; Function compile flags: /Ogty
; File c:\program files\microsoft visual studio .net 2003\vc7\include\vector
;	COMDAT ?begin@?$vector@KV?$allocator@K@std@@@std@@QAE?AViterator@12@XZ
_TEXT	SEGMENT
___$ReturnUdt$ = 8					; size = 4
?begin@?$vector@KV?$allocator@K@std@@@std@@QAE?AViterator@12@XZ PROC NEAR ; std::vector<unsigned long,std::allocator<unsigned long> >::begin, COMDAT
; _this$ = ecx

; 463  : 		return (iterator(_Myfirst));

  00000	8b 49 04	 mov	 ecx, DWORD PTR [ecx+4]
  00003	8b 44 24 04	 mov	 eax, DWORD PTR ___$ReturnUdt$[esp-4]
  00007	89 08		 mov	 DWORD PTR [eax], ecx

; 464  : 		}

  00009	c2 04 00	 ret	 4
?begin@?$vector@KV?$allocator@K@std@@@std@@QAE?AViterator@12@XZ ENDP ; std::vector<unsigned long,std::allocator<unsigned long> >::begin
_TEXT	ENDS
PUBLIC	?begin@?$vector@PAVCObj@@V?$allocator@PAVCObj@@@std@@@std@@QAE?AViterator@12@XZ ; std::vector<CObj *,std::allocator<CObj *> >::begin
; Function compile flags: /Ogty
;	COMDAT ?begin@?$vector@PAVCObj@@V?$allocator@PAVCObj@@@std@@@std@@QAE?AViterator@12@XZ
_TEXT	SEGMENT
___$ReturnUdt$ = 8					; size = 4
?begin@?$vector@PAVCObj@@V?$allocator@PAVCObj@@@std@@@std@@QAE?AViterator@12@XZ PROC NEAR ; std::vector<CObj *,std::allocator<CObj *> >::begin, COMDAT
; _this$ = ecx

; 463  : 		return (iterator(_Myfirst));

  00000	8b 49 04	 mov	 ecx, DWORD PTR [ecx+4]
  00003	8b 44 24 04	 mov	 eax, DWORD PTR ___$ReturnUdt$[esp-4]
  00007	89 08		 mov	 DWORD PTR [eax], ecx

; 464  : 		}

  00009	c2 04 00	 ret	 4
?begin@?$vector@PAVCObj@@V?$allocator@PAVCObj@@@std@@@std@@QAE?AViterator@12@XZ ENDP ; std::vector<CObj *,std::allocator<CObj *> >::begin
_TEXT	ENDS
PUBLIC	?begin@?$vector@VCGuildCombat1to1@@V?$allocator@VCGuildCombat1to1@@@std@@@std@@QAE?AViterator@12@XZ ; std::vector<CGuildCombat1to1,std::allocator<CGuildCombat1to1> >::begin
; Function compile flags: /Ogty
;	COMDAT ?begin@?$vector@VCGuildCombat1to1@@V?$allocator@VCGuildCombat1to1@@@std@@@std@@QAE?AViterator@12@XZ
_TEXT	SEGMENT
___$ReturnUdt$ = 8					; size = 4
?begin@?$vector@VCGuildCombat1to1@@V?$allocator@VCGuildCombat1to1@@@std@@@std@@QAE?AViterator@12@XZ PROC NEAR ; std::vector<CGuildCombat1to1,std::allocator<CGuildCombat1to1> >::begin, COMDAT
; _this$ = ecx

; 463  : 		return (iterator(_Myfirst));

  00000	8b 49 04	 mov	 ecx, DWORD PTR [ecx+4]
  00003	8b 44 24 04	 mov	 eax, DWORD PTR ___$ReturnUdt$[esp-4]
  00007	89 08		 mov	 DWORD PTR [eax], ecx

; 464  : 		}

  00009	c2 04 00	 ret	 4
?begin@?$vector@VCGuildCombat1to1@@V?$allocator@VCGuildCombat1to1@@@std@@@std@@QAE?AViterator@12@XZ ENDP ; std::vector<CGuildCombat1to1,std::allocator<CGuildCombat1to1> >::begin
_TEXT	ENDS
PUBLIC	?begin@?$vector@U__GC1TO1TENDER@CGuildCombat1to1Mng@@V?$allocator@U__GC1TO1TENDER@CGuildCombat1to1Mng@@@std@@@std@@QAE?AViterator@12@XZ ; std::vector<CGuildCombat1to1Mng::__GC1TO1TENDER,std::allocator<CGuildCombat1to1Mng::__GC1TO1TENDER> >::begin
; Function compile flags: /Ogty
;	COMDAT ?begin@?$vector@U__GC1TO1TENDER@CGuildCombat1to1Mng@@V?$allocator@U__GC1TO1TENDER@CGuildCombat1to1Mng@@@std@@@std@@QAE?AViterator@12@XZ
_TEXT	SEGMENT
___$ReturnUdt$ = 8					; size = 4
?begin@?$vector@U__GC1TO1TENDER@CGuildCombat1to1Mng@@V?$allocator@U__GC1TO1TENDER@CGuildCombat1to1Mng@@@std@@@std@@QAE?AViterator@12@XZ PROC NEAR ; std::vector<CGuildCombat1to1Mng::__GC1TO1TENDER,std::allocator<CGuildCombat1to1Mng::__GC1TO1TENDER> >::begin, COMDAT
; _this$ = ecx

; 463  : 		return (iterator(_Myfirst));

  00000	8b 49 04	 mov	 ecx, DWORD PTR [ecx+4]
  00003	8b 44 24 04	 mov	 eax, DWORD PTR ___$ReturnUdt$[esp-4]
  00007	89 08		 mov	 DWORD PTR [eax], ecx

; 464  : 		}

  00009	c2 04 00	 ret	 4
?begin@?$vector@U__GC1TO1TENDER@CGuildCombat1to1Mng@@V?$allocator@U__GC1TO1TENDER@CGuildCombat1to1Mng@@@std@@@std@@QAE?AViterator@12@XZ ENDP ; std::vector<CGuildCombat1to1Mng::__GC1TO1TENDER,std::allocator<CGuildCombat1to1Mng::__GC1TO1TENDER> >::begin
_TEXT	ENDS
PUBLIC	?_Destroy@?$vector@PAVCObj@@V?$allocator@PAVCObj@@@std@@@std@@IAEXPAPAVCObj@@0@Z ; std::vector<CObj *,std::allocator<CObj *> >::_Destroy
; Function compile flags: /Ogty
;	COMDAT ?_Destroy@?$vector@PAVCObj@@V?$allocator@PAVCObj@@@std@@@std@@IAEXPAPAVCObj@@0@Z
_TEXT	SEGMENT
__First$ = 8						; size = 4
__Last$ = 12						; size = 4
?_Destroy@?$vector@PAVCObj@@V?$allocator@PAVCObj@@@std@@@std@@IAEXPAPAVCObj@@0@Z PROC NEAR ; std::vector<CObj *,std::allocator<CObj *> >::_Destroy, COMDAT
; _this$ = ecx

; 787  : 		_Destroy_range(_First, _Last, this->_Alval);
; 788  : 		}

  00000	c2 08 00	 ret	 8
?_Destroy@?$vector@PAVCObj@@V?$allocator@PAVCObj@@@std@@@std@@IAEXPAPAVCObj@@0@Z ENDP ; std::vector<CObj *,std::allocator<CObj *> >::_Destroy
_TEXT	ENDS
PUBLIC	??$_Destroy_range@UD3DXVECTOR3@@V?$allocator@UD3DXVECTOR3@@@std@@@std@@YAXPAUD3DXVECTOR3@@0AAV?$allocator@UD3DXVECTOR3@@@0@U_Nonscalar_ptr_iterator_tag@0@@Z ; std::_Destroy_range<D3DXVECTOR3,std::allocator<D3DXVECTOR3> >
; Function compile flags: /Ogty
; File c:\program files\microsoft visual studio .net 2003\vc7\include\xmemory
;	COMDAT ??$_Destroy_range@UD3DXVECTOR3@@V?$allocator@UD3DXVECTOR3@@@std@@@std@@YAXPAUD3DXVECTOR3@@0AAV?$allocator@UD3DXVECTOR3@@@0@U_Nonscalar_ptr_iterator_tag@0@@Z
_TEXT	SEGMENT
__First$ = 8						; size = 4
__Last$ = 12						; size = 4
__Al$ = 16						; size = 4
___formal$ = 20						; size = 1
??$_Destroy_range@UD3DXVECTOR3@@V?$allocator@UD3DXVECTOR3@@@std@@@std@@YAXPAUD3DXVECTOR3@@0AAV?$allocator@UD3DXVECTOR3@@@0@U_Nonscalar_ptr_iterator_tag@0@@Z PROC NEAR ; std::_Destroy_range<D3DXVECTOR3,std::allocator<D3DXVECTOR3> >, COMDAT

; 225  : 	for (; _First != _Last; ++_First)
; 226  : 		_Al.destroy(_First);
; 227  : 	}

  00000	c3		 ret	 0
??$_Destroy_range@UD3DXVECTOR3@@V?$allocator@UD3DXVECTOR3@@@std@@@std@@YAXPAUD3DXVECTOR3@@0AAV?$allocator@UD3DXVECTOR3@@@0@U_Nonscalar_ptr_iterator_tag@0@@Z ENDP ; std::_Destroy_range<D3DXVECTOR3,std::allocator<D3DXVECTOR3> >
_TEXT	ENDS
PUBLIC	?_Tidy@?$basic_string@DU?$char_traits@D@std@@V?$allocator@D@2@@std@@IAEX_NI@Z ; std::basic_string<char,std::char_traits<char>,std::allocator<char> >::_Tidy
; Function compile flags: /Ogty
; File c:\program files\microsoft visual studio .net 2003\vc7\include\xstring
;	COMDAT ?_Tidy@?$basic_string@DU?$char_traits@D@std@@V?$allocator@D@2@@std@@IAEX_NI@Z
_TEXT	SEGMENT
__Built$ = 8						; size = 1
__Newsize$ = 12						; size = 4
?_Tidy@?$basic_string@DU?$char_traits@D@std@@V?$allocator@D@2@@std@@IAEX_NI@Z PROC NEAR ; std::basic_string<char,std::char_traits<char>,std::allocator<char> >::_Tidy, COMDAT
; _this$ = ecx

; 1510 : 		if (!_Built)

  00000	8a 44 24 04	 mov	 al, BYTE PTR __Built$[esp-4]
  00004	84 c0		 test	 al, al
  00006	53		 push	 ebx
  00007	55		 push	 ebp
  00008	8b 6c 24 10	 mov	 ebp, DWORD PTR __Newsize$[esp+4]
  0000c	8b d9		 mov	 ebx, ecx
  0000e	74 2f		 je	 SHORT $L271756

; 1511 : 			;
; 1512 : 		else if (_BUF_SIZE <= _Myres)

  00010	83 7b 18 10	 cmp	 DWORD PTR [ebx+24], 16	; 00000010H
  00014	72 29		 jb	 SHORT $L271756

; 1513 : 			{	// copy any leftovers to small buffer and deallocate
; 1514 : 			_Elem *_Ptr = _Bx._Ptr;
; 1515 : 			if (0 < _Newsize)

  00016	85 ed		 test	 ebp, ebp
  00018	8b 43 04	 mov	 eax, DWORD PTR [ebx+4]
  0001b	57		 push	 edi
  0001c	8d 7b 04	 lea	 edi, DWORD PTR [ebx+4]
  0001f	76 14		 jbe	 SHORT $L271753
  00021	56		 push	 esi

; 1516 : 				_Traits::copy(_Bx._Buf, _Ptr, _Newsize);

  00022	8b cd		 mov	 ecx, ebp
  00024	8b d1		 mov	 edx, ecx
  00026	c1 e9 02	 shr	 ecx, 2
  00029	8b f0		 mov	 esi, eax
  0002b	f3 a5		 rep movsd
  0002d	8b ca		 mov	 ecx, edx
  0002f	83 e1 03	 and	 ecx, 3
  00032	f3 a4		 rep movsb
  00034	5e		 pop	 esi
$L271753:

; 1517 : 			_Mybase::_Alval.deallocate(_Ptr, _Myres + 1);

  00035	50		 push	 eax
  00036	e8 00 00 00 00	 call	 ??3@YAXPAX@Z		; operator delete
  0003b	83 c4 04	 add	 esp, 4
  0003e	5f		 pop	 edi
$L271756:

; 1518 : 			}
; 1519 : 		_Myres = _BUF_SIZE - 1;
; 1520 : 		_Eos(_Newsize);

  0003f	89 6b 14	 mov	 DWORD PTR [ebx+20], ebp
  00042	c7 43 18 0f 00
	00 00		 mov	 DWORD PTR [ebx+24], 15	; 0000000fH
  00049	c6 44 2b 04 00	 mov	 BYTE PTR [ebx+ebp+4], 0
  0004e	5d		 pop	 ebp
  0004f	5b		 pop	 ebx

; 1521 : 		}

  00050	c2 08 00	 ret	 8
?_Tidy@?$basic_string@DU?$char_traits@D@std@@V?$allocator@D@2@@std@@IAEX_NI@Z ENDP ; std::basic_string<char,std::char_traits<char>,std::allocator<char> >::_Tidy
_TEXT	ENDS
PUBLIC	?end@?$_Tree@V?$_Tmap_traits@KPAVCUser@@U?$less@K@std@@V?$allocator@U?$pair@$$CBKPAVCUser@@@std@@@3@$0A@@std@@@std@@QAE?AViterator@12@XZ ; std::_Tree<std::_Tmap_traits<unsigned long,CUser *,std::less<unsigned long>,std::allocator<std::pair<unsigned long const ,CUser *> >,0> >::end
; Function compile flags: /Ogty
; File c:\program files\microsoft visual studio .net 2003\vc7\include\xtree
;	COMDAT ?end@?$_Tree@V?$_Tmap_traits@KPAVCUser@@U?$less@K@std@@V?$allocator@U?$pair@$$CBKPAVCUser@@@std@@@3@$0A@@std@@@std@@QAE?AViterator@12@XZ
_TEXT	SEGMENT
___$ReturnUdt$ = 8					; size = 4
?end@?$_Tree@V?$_Tmap_traits@KPAVCUser@@U?$less@K@std@@V?$allocator@U?$pair@$$CBKPAVCUser@@@std@@@3@$0A@@std@@@std@@QAE?AViterator@12@XZ PROC NEAR ; std::_Tree<std::_Tmap_traits<unsigned long,CUser *,std::less<unsigned long>,std::allocator<std::pair<unsigned long const ,CUser *> >,0> >::end, COMDAT
; _this$ = ecx

; 418  : 		return (_TREE_ITERATOR(_Myhead));

  00000	8b 49 04	 mov	 ecx, DWORD PTR [ecx+4]
  00003	8b 44 24 04	 mov	 eax, DWORD PTR ___$ReturnUdt$[esp-4]
  00007	89 08		 mov	 DWORD PTR [eax], ecx

; 419  : 		}

  00009	c2 04 00	 ret	 4
?end@?$_Tree@V?$_Tmap_traits@KPAVCUser@@U?$less@K@std@@V?$allocator@U?$pair@$$CBKPAVCUser@@@std@@@3@$0A@@std@@@std@@QAE?AViterator@12@XZ ENDP ; std::_Tree<std::_Tmap_traits<unsigned long,CUser *,std::less<unsigned long>,std::allocator<std::pair<unsigned long const ,CUser *> >,0> >::end
_TEXT	ENDS
PUBLIC	?lower_bound@?$_Tree@V?$_Tmap_traits@KPAVCUser@@U?$less@K@std@@V?$allocator@U?$pair@$$CBKPAVCUser@@@std@@@3@$0A@@std@@@std@@QAE?AViterator@12@ABK@Z ; std::_Tree<std::_Tmap_traits<unsigned long,CUser *,std::less<unsigned long>,std::allocator<std::pair<unsigned long const ,CUser *> >,0> >::lower_bound
; Function compile flags: /Ogty
;	COMDAT ?lower_bound@?$_Tree@V?$_Tmap_traits@KPAVCUser@@U?$less@K@std@@V?$allocator@U?$pair@$$CBKPAVCUser@@@std@@@3@$0A@@std@@@std@@QAE?AViterator@12@ABK@Z
_TEXT	SEGMENT
___$ReturnUdt$ = 8					; size = 4
__Keyval$ = 12						; size = 4
?lower_bound@?$_Tree@V?$_Tmap_traits@KPAVCUser@@U?$less@K@std@@V?$allocator@U?$pair@$$CBKPAVCUser@@@std@@@3@$0A@@std@@@std@@QAE?AViterator@12@ABK@Z PROC NEAR ; std::_Tree<std::_Tmap_traits<unsigned long,CUser *,std::less<unsigned long>,std::allocator<std::pair<unsigned long const ,CUser *> >,0> >::lower_bound, COMDAT
; _this$ = ecx

; 810  : 		return (_TREE_ITERATOR(_Lbound(_Keyval)));

  00000	8b 49 04	 mov	 ecx, DWORD PTR [ecx+4]
  00003	8b 41 04	 mov	 eax, DWORD PTR [ecx+4]
  00006	8a 50 15	 mov	 dl, BYTE PTR [eax+21]
  00009	84 d2		 test	 dl, dl
  0000b	75 1d		 jne	 SHORT $L271864
  0000d	8b 54 24 08	 mov	 edx, DWORD PTR __Keyval$[esp-4]
  00011	8b 12		 mov	 edx, DWORD PTR [edx]
  00013	53		 push	 ebx
$L271832:
  00014	39 50 0c	 cmp	 DWORD PTR [eax+12], edx
  00017	73 05		 jae	 SHORT $L271834
  00019	8b 40 08	 mov	 eax, DWORD PTR [eax+8]
  0001c	eb 04		 jmp	 SHORT $L271835
$L271834:
  0001e	8b c8		 mov	 ecx, eax
  00020	8b 00		 mov	 eax, DWORD PTR [eax]
$L271835:
  00022	8a 58 15	 mov	 bl, BYTE PTR [eax+21]
  00025	84 db		 test	 bl, bl
  00027	74 eb		 je	 SHORT $L271832
  00029	5b		 pop	 ebx
$L271864:
  0002a	8b 44 24 04	 mov	 eax, DWORD PTR ___$ReturnUdt$[esp-4]
  0002e	89 08		 mov	 DWORD PTR [eax], ecx

; 811  : 		}

  00030	c2 08 00	 ret	 8
?lower_bound@?$_Tree@V?$_Tmap_traits@KPAVCUser@@U?$less@K@std@@V?$allocator@U?$pair@$$CBKPAVCUser@@@std@@@3@$0A@@std@@@std@@QAE?AViterator@12@ABK@Z ENDP ; std::_Tree<std::_Tmap_traits<unsigned long,CUser *,std::less<unsigned long>,std::allocator<std::pair<unsigned long const ,CUser *> >,0> >::lower_bound
_TEXT	ENDS
PUBLIC	?_Tidy@?$vector@KV?$allocator@K@std@@@std@@IAEXXZ ; std::vector<unsigned long,std::allocator<unsigned long> >::_Tidy
; Function compile flags: /Ogty
; File c:\program files\microsoft visual studio .net 2003\vc7\include\vector
;	COMDAT ?_Tidy@?$vector@KV?$allocator@K@std@@@std@@IAEXXZ
_TEXT	SEGMENT
?_Tidy@?$vector@KV?$allocator@K@std@@@std@@IAEXXZ PROC NEAR ; std::vector<unsigned long,std::allocator<unsigned long> >::_Tidy, COMDAT
; _this$ = ecx

; 791  : 		{	// free all storage

  00000	56		 push	 esi
  00001	8b f1		 mov	 esi, ecx

; 792  : 		if (_Myfirst != 0)

  00003	8b 46 04	 mov	 eax, DWORD PTR [esi+4]
  00006	85 c0		 test	 eax, eax
  00008	74 09		 je	 SHORT $L271869

; 793  : 			{	// something to free, destroy and deallocate it
; 794  : 			_Destroy(_Myfirst, _Mylast);
; 795  : 			this->_Alval.deallocate(_Myfirst, _Myend - _Myfirst);

  0000a	50		 push	 eax
  0000b	e8 00 00 00 00	 call	 ??3@YAXPAX@Z		; operator delete
  00010	83 c4 04	 add	 esp, 4
$L271869:

; 796  : 			}
; 797  : 		_Myfirst = 0, _Mylast = 0, _Myend = 0;

  00013	c7 46 04 00 00
	00 00		 mov	 DWORD PTR [esi+4], 0
  0001a	c7 46 08 00 00
	00 00		 mov	 DWORD PTR [esi+8], 0
  00021	c7 46 0c 00 00
	00 00		 mov	 DWORD PTR [esi+12], 0
  00028	5e		 pop	 esi

; 798  : 		}

  00029	c3		 ret	 0
?_Tidy@?$vector@KV?$allocator@K@std@@@std@@IAEXXZ ENDP	; std::vector<unsigned long,std::allocator<unsigned long> >::_Tidy
_TEXT	ENDS
PUBLIC	?erase@?$basic_string@DU?$char_traits@D@std@@V?$allocator@D@2@@std@@QAEAAV12@II@Z ; std::basic_string<char,std::char_traits<char>,std::allocator<char> >::erase
EXTRN	?_Xran@_String_base@std@@QBEXXZ:NEAR		; std::_String_base::_Xran
; Function compile flags: /Ogty
; File c:\program files\microsoft visual studio .net 2003\vc7\include\xstring
;	COMDAT ?erase@?$basic_string@DU?$char_traits@D@std@@V?$allocator@D@2@@std@@QAEAAV12@II@Z
_TEXT	SEGMENT
__Off$ = 8						; size = 4
__Count$ = 12						; size = 4
?erase@?$basic_string@DU?$char_traits@D@std@@V?$allocator@D@2@@std@@QAEAAV12@II@Z PROC NEAR ; std::basic_string<char,std::char_traits<char>,std::allocator<char> >::erase, COMDAT
; _this$ = ecx

; 792  : 		{	// erase elements [_Off, _Off + _Count)

  00000	55		 push	 ebp

; 793  : 		if (_Mysize < _Off)

  00001	8b 6c 24 08	 mov	 ebp, DWORD PTR __Off$[esp]
  00005	56		 push	 esi
  00006	8b f1		 mov	 esi, ecx
  00008	39 6e 14	 cmp	 DWORD PTR [esi+20], ebp
  0000b	57		 push	 edi
  0000c	73 05		 jae	 SHORT $L221371

; 794  : 			_String_base::_Xran();	// _Off off end

  0000e	e8 00 00 00 00	 call	 ?_Xran@_String_base@std@@QBEXXZ ; std::_String_base::_Xran
$L221371:

; 795  : 		if (_Mysize - _Off < _Count)

  00013	8b 46 14	 mov	 eax, DWORD PTR [esi+20]
  00016	8b 7c 24 14	 mov	 edi, DWORD PTR __Count$[esp+8]
  0001a	2b c5		 sub	 eax, ebp
  0001c	3b c7		 cmp	 eax, edi
  0001e	73 02		 jae	 SHORT $L221372

; 796  : 			_Count = _Mysize - _Off;	// trim _Count

  00020	8b f8		 mov	 edi, eax
$L221372:

; 797  : 		if (0 < _Count)

  00022	85 ff		 test	 edi, edi
  00024	76 47		 jbe	 SHORT $L271915

; 798  : 			{	// move elements down
; 799  : 			_Traits::move(_Myptr() + _Off, _Myptr() + _Off + _Count,
; 800  : 				_Mysize - _Off - _Count);

  00026	8b 4e 18	 mov	 ecx, DWORD PTR [esi+24]
  00029	83 f9 10	 cmp	 ecx, 16			; 00000010H
  0002c	53		 push	 ebx
  0002d	8d 5e 04	 lea	 ebx, DWORD PTR [esi+4]
  00030	72 04		 jb	 SHORT $L271881
  00032	8b 13		 mov	 edx, DWORD PTR [ebx]
  00034	eb 02		 jmp	 SHORT $L271882
$L271881:
  00036	8b d3		 mov	 edx, ebx
$L271882:
  00038	83 f9 10	 cmp	 ecx, 16			; 00000010H
  0003b	72 04		 jb	 SHORT $L271888
  0003d	8b 0b		 mov	 ecx, DWORD PTR [ebx]
  0003f	eb 02		 jmp	 SHORT $L271889
$L271888:
  00041	8b cb		 mov	 ecx, ebx
$L271889:
  00043	2b c7		 sub	 eax, edi

; 803  : 			}
; 804  : 		return (*this);

  00045	03 d5		 add	 edx, ebp
  00047	50		 push	 eax
  00048	03 d7		 add	 edx, edi
  0004a	52		 push	 edx
  0004b	03 cd		 add	 ecx, ebp
  0004d	51		 push	 ecx
  0004e	e8 00 00 00 00	 call	 _memmove
  00053	8b 46 14	 mov	 eax, DWORD PTR [esi+20]
  00056	8b 4e 18	 mov	 ecx, DWORD PTR [esi+24]
  00059	2b c7		 sub	 eax, edi
  0005b	83 c4 0c	 add	 esp, 12			; 0000000cH
  0005e	83 f9 10	 cmp	 ecx, 16			; 00000010H
  00061	89 46 14	 mov	 DWORD PTR [esi+20], eax
  00064	72 02		 jb	 SHORT $L271912

; 801  : 			size_type _Newsize = _Mysize - _Count;
; 802  : 			_Eos(_Newsize);

  00066	8b 1b		 mov	 ebx, DWORD PTR [ebx]
$L271912:
  00068	c6 04 03 00	 mov	 BYTE PTR [ebx+eax], 0
  0006c	5b		 pop	 ebx
$L271915:
  0006d	5f		 pop	 edi

; 803  : 			}
; 804  : 		return (*this);

  0006e	8b c6		 mov	 eax, esi
  00070	5e		 pop	 esi
  00071	5d		 pop	 ebp

; 805  : 		}

  00072	c2 08 00	 ret	 8
?erase@?$basic_string@DU?$char_traits@D@std@@V?$allocator@D@2@@std@@QAEAAV12@II@Z ENDP ; std::basic_string<char,std::char_traits<char>,std::allocator<char> >::erase
_TEXT	ENDS
PUBLIC	?begin@?$_Tree@V?$_Tmap_traits@KPAVCUser@@U?$less@K@std@@V?$allocator@U?$pair@$$CBKPAVCUser@@@std@@@3@$0A@@std@@@std@@QAE?AViterator@12@XZ ; std::_Tree<std::_Tmap_traits<unsigned long,CUser *,std::less<unsigned long>,std::allocator<std::pair<unsigned long const ,CUser *> >,0> >::begin
; Function compile flags: /Ogty
; File c:\program files\microsoft visual studio .net 2003\vc7\include\xtree
;	COMDAT ?begin@?$_Tree@V?$_Tmap_traits@KPAVCUser@@U?$less@K@std@@V?$allocator@U?$pair@$$CBKPAVCUser@@@std@@@3@$0A@@std@@@std@@QAE?AViterator@12@XZ
_TEXT	SEGMENT
___$ReturnUdt$ = 8					; size = 4
?begin@?$_Tree@V?$_Tmap_traits@KPAVCUser@@U?$less@K@std@@V?$allocator@U?$pair@$$CBKPAVCUser@@@std@@@3@$0A@@std@@@std@@QAE?AViterator@12@XZ PROC NEAR ; std::_Tree<std::_Tmap_traits<unsigned long,CUser *,std::less<unsigned long>,std::allocator<std::pair<unsigned long const ,CUser *> >,0> >::begin, COMDAT
; _this$ = ecx

; 408  : 		return (_TREE_ITERATOR(_Lmost()));

  00000	8b 41 04	 mov	 eax, DWORD PTR [ecx+4]
  00003	8b 08		 mov	 ecx, DWORD PTR [eax]
  00005	8b 44 24 04	 mov	 eax, DWORD PTR ___$ReturnUdt$[esp-4]
  00009	89 08		 mov	 DWORD PTR [eax], ecx

; 409  : 		}

  0000b	c2 04 00	 ret	 4
?begin@?$_Tree@V?$_Tmap_traits@KPAVCUser@@U?$less@K@std@@V?$allocator@U?$pair@$$CBKPAVCUser@@@std@@@3@$0A@@std@@@std@@QAE?AViterator@12@XZ ENDP ; std::_Tree<std::_Tmap_traits<unsigned long,CUser *,std::less<unsigned long>,std::allocator<std::pair<unsigned long const ,CUser *> >,0> >::begin
_TEXT	ENDS
PUBLIC	??Eiterator@?$_Tree@V?$_Tmap_traits@KPAVCUser@@U?$less@K@std@@V?$allocator@U?$pair@$$CBKPAVCUser@@@std@@@3@$0A@@std@@@std@@QAEAAV012@XZ ; std::_Tree<std::_Tmap_traits<unsigned long,CUser *,std::less<unsigned long>,std::allocator<std::pair<unsigned long const ,CUser *> >,0> >::iterator::operator++
; Function compile flags: /Ogty
;	COMDAT ??Eiterator@?$_Tree@V?$_Tmap_traits@KPAVCUser@@U?$less@K@std@@V?$allocator@U?$pair@$$CBKPAVCUser@@@std@@@3@$0A@@std@@@std@@QAEAAV012@XZ
_TEXT	SEGMENT
??Eiterator@?$_Tree@V?$_Tmap_traits@KPAVCUser@@U?$less@K@std@@V?$allocator@U?$pair@$$CBKPAVCUser@@@std@@@3@$0A@@std@@@std@@QAEAAV012@XZ PROC NEAR ; std::_Tree<std::_Tmap_traits<unsigned long,CUser *,std::less<unsigned long>,std::allocator<std::pair<unsigned long const ,CUser *> >,0> >::iterator::operator++, COMDAT
; _this$ = ecx

; 326  : 			{	// preincrement

  00000	56		 push	 esi
  00001	8b f1		 mov	 esi, ecx

; 327  : 			++(*(const_iterator *)this);

  00003	e8 00 00 00 00	 call	 ?_Inc@const_iterator@?$_Tree@V?$_Tmap_traits@KPAVCUser@@U?$less@K@std@@V?$allocator@U?$pair@$$CBKPAVCUser@@@std@@@3@$0A@@std@@@std@@QAEXXZ ; std::_Tree<std::_Tmap_traits<unsigned long,CUser *,std::less<unsigned long>,std::allocator<std::pair<unsigned long const ,CUser *> >,0> >::const_iterator::_Inc

; 328  : 			return (*this);

  00008	8b c6		 mov	 eax, esi
  0000a	5e		 pop	 esi

; 329  : 			}

  0000b	c3		 ret	 0
??Eiterator@?$_Tree@V?$_Tmap_traits@KPAVCUser@@U?$less@K@std@@V?$allocator@U?$pair@$$CBKPAVCUser@@@std@@@3@$0A@@std@@@std@@QAEAAV012@XZ ENDP ; std::_Tree<std::_Tmap_traits<unsigned long,CUser *,std::less<unsigned long>,std::allocator<std::pair<unsigned long const ,CUser *> >,0> >::iterator::operator++
_TEXT	ENDS
PUBLIC	??Fiterator@?$_Tree@V?$_Tmap_traits@KPAVCUser@@U?$less@K@std@@V?$allocator@U?$pair@$$CBKPAVCUser@@@std@@@3@$0A@@std@@@std@@QAEAAV012@XZ ; std::_Tree<std::_Tmap_traits<unsigned long,CUser *,std::less<unsigned long>,std::allocator<std::pair<unsigned long const ,CUser *> >,0> >::iterator::operator--
; Function compile flags: /Ogty
;	COMDAT ??Fiterator@?$_Tree@V?$_Tmap_traits@KPAVCUser@@U?$less@K@std@@V?$allocator@U?$pair@$$CBKPAVCUser@@@std@@@3@$0A@@std@@@std@@QAEAAV012@XZ
_TEXT	SEGMENT
??Fiterator@?$_Tree@V?$_Tmap_traits@KPAVCUser@@U?$less@K@std@@V?$allocator@U?$pair@$$CBKPAVCUser@@@std@@@3@$0A@@std@@@std@@QAEAAV012@XZ PROC NEAR ; std::_Tree<std::_Tmap_traits<unsigned long,CUser *,std::less<unsigned long>,std::allocator<std::pair<unsigned long const ,CUser *> >,0> >::iterator::operator--, COMDAT
; _this$ = ecx

; 339  : 			{	// predecrement

  00000	56		 push	 esi
  00001	8b f1		 mov	 esi, ecx

; 340  : 			--(*(const_iterator *)this);

  00003	e8 00 00 00 00	 call	 ?_Dec@const_iterator@?$_Tree@V?$_Tmap_traits@KPAVCUser@@U?$less@K@std@@V?$allocator@U?$pair@$$CBKPAVCUser@@@std@@@3@$0A@@std@@@std@@QAEXXZ ; std::_Tree<std::_Tmap_traits<unsigned long,CUser *,std::less<unsigned long>,std::allocator<std::pair<unsigned long const ,CUser *> >,0> >::const_iterator::_Dec

; 341  : 			return (*this);

  00008	8b c6		 mov	 eax, esi
  0000a	5e		 pop	 esi

; 342  : 			}

  0000b	c3		 ret	 0
??Fiterator@?$_Tree@V?$_Tmap_traits@KPAVCUser@@U?$less@K@std@@V?$allocator@U?$pair@$$CBKPAVCUser@@@std@@@3@$0A@@std@@@std@@QAEAAV012@XZ ENDP ; std::_Tree<std::_Tmap_traits<unsigned long,CUser *,std::less<unsigned long>,std::allocator<std::pair<unsigned long const ,CUser *> >,0> >::iterator::operator--
_TEXT	ENDS
PUBLIC	?_Copy@?$basic_string@DU?$char_traits@D@std@@V?$allocator@D@2@@std@@IAEXII@Z ; std::basic_string<char,std::char_traits<char>,std::allocator<char> >::_Copy
EXTRN	__CxxThrowException@8:NEAR
EXTRN	__except_list:DWORD
EXTRN	___CxxFrameHandler:NEAR
;	COMDAT xdata$x
; File c:\program files\microsoft visual studio .net 2003\vc7\include\iosfwd
xdata$x	SEGMENT
$T272156 DD	0ffffffffH
	DD	00H
	DD	0ffffffffH
	DD	00H
	DD	01H
	DD	00H
	DD	01H
	DD	00H
$T272158 DD	00H
	DD	00H
	DD	00H
	DD	FLAT:$L271956
$T272159 DD	00H
	DD	00H
	DD	00H
	DD	FLAT:$L271954
$T272157 DD	02H
	DD	02H
	DD	03H
	DD	01H
	DD	FLAT:$T272158
	DD	00H
	DD	00H
	DD	03H
	DD	01H
	DD	FLAT:$T272159
$T272150 DD	019930520H
	DD	04H
	DD	FLAT:$T272156
	DD	02H
	DD	FLAT:$T272157
	DD	2 DUP(00H)
; Function compile flags: /Ogty
; File c:\program files\microsoft visual studio .net 2003\vc7\include\xstring
xdata$x	ENDS
;	COMDAT ?_Copy@?$basic_string@DU?$char_traits@D@std@@V?$allocator@D@2@@std@@IAEXII@Z
_TEXT	SEGMENT
__Newres$ = -24						; size = 4
_this$ = -20						; size = 4
__$EHRec$ = -16						; size = 16
__Ptr$ = 8						; size = 4
__Newsize$ = 8						; size = 4
__Oldlen$ = 12						; size = 4
?_Copy@?$basic_string@DU?$char_traits@D@std@@V?$allocator@D@2@@std@@IAEXII@Z PROC NEAR ; std::basic_string<char,std::char_traits<char>,std::allocator<char> >::_Copy, COMDAT
; _this$ = ecx

; 1444 : 		{	// copy _Oldlen elements to newly allocated buffer

  00000	55		 push	 ebp
  00001	8b ec		 mov	 ebp, esp
  00003	6a ff		 push	 -1
  00005	68 00 00 00 00	 push	 __ehhandler$?_Copy@?$basic_string@DU?$char_traits@D@std@@V?$allocator@D@2@@std@@IAEXII@Z
  0000a	64 a1 00 00 00
	00		 mov	 eax, DWORD PTR fs:__except_list
  00010	50		 push	 eax
  00011	64 89 25 00 00
	00 00		 mov	 DWORD PTR fs:__except_list, esp
  00018	83 ec 0c	 sub	 esp, 12			; 0000000cH

; 1445 : 		size_type _Newres = _Newsize | _ALLOC_MASK;

  0001b	8b 45 08	 mov	 eax, DWORD PTR __Newsize$[ebp]
  0001e	53		 push	 ebx
  0001f	56		 push	 esi
  00020	8b d8		 mov	 ebx, eax
  00022	83 cb 0f	 or	 ebx, 15			; 0000000fH

; 1446 : 		if (max_size() < _Newres)

  00025	83 fb fe	 cmp	 ebx, -2			; fffffffeH
  00028	57		 push	 edi
  00029	8b f1		 mov	 esi, ecx
  0002b	89 65 f0	 mov	 DWORD PTR __$EHRec$[ebp], esp
  0002e	89 75 ec	 mov	 DWORD PTR _this$[ebp], esi
  00031	76 04		 jbe	 SHORT $L222778

; 1447 : 			_Newres = _Newsize;	// undo roundup if too big

  00033	8b d8		 mov	 ebx, eax

; 1448 : 		else if (_Newres / 3 < _Myres / 2

  00035	eb 22		 jmp	 SHORT $L222780
$L222778:

; 1449 : 			&& _Myres <= max_size() - _Myres / 2)

  00037	8b 7e 18	 mov	 edi, DWORD PTR [esi+24]
  0003a	b8 ab aa aa aa	 mov	 eax, -1431655765	; aaaaaaabH
  0003f	f7 e3		 mul	 ebx
  00041	8b cf		 mov	 ecx, edi
  00043	d1 e9		 shr	 ecx, 1
  00045	d1 ea		 shr	 edx, 1
  00047	3b d1		 cmp	 edx, ecx
  00049	73 0e		 jae	 SHORT $L222780
  0004b	b8 fe ff ff ff	 mov	 eax, -2			; fffffffeH
  00050	2b c1		 sub	 eax, ecx
  00052	3b f8		 cmp	 edi, eax
  00054	77 03		 ja	 SHORT $L222780

; 1450 : 			_Newres = _Myres + _Myres / 2;	// grow exponentially if possible

  00056	8d 1c 39	 lea	 ebx, DWORD PTR [ecx+edi]
$L222780:

; 1451 : 		_Elem *_Ptr;
; 1452 : 
; 1453 : 		_TRY_BEGIN
; 1454 : 			_Ptr = _Mybase::_Alval.allocate(_Newres + 1);

  00059	8d 4b 01	 lea	 ecx, DWORD PTR [ebx+1]
  0005c	51		 push	 ecx
  0005d	c7 45 fc 00 00
	00 00		 mov	 DWORD PTR __$EHRec$[ebp+12], 0
  00064	e8 00 00 00 00	 call	 ??2@YAPAXI@Z		; operator new
  00069	8b d0		 mov	 edx, eax
  0006b	83 c4 04	 add	 esp, 4
  0006e	89 55 08	 mov	 DWORD PTR __Ptr$[ebp], edx
  00071	eb 29		 jmp	 SHORT $L222782
$L271954:

; 1455 : 		_CATCH_ALL
; 1456 : 			_Newres = _Newsize;	// allocation failed, undo roundup and retry

  00073	8b 45 08	 mov	 eax, DWORD PTR __Newsize$[ebp]
  00076	89 45 e8	 mov	 DWORD PTR __Newres$[ebp], eax

; 1457 : 			_TRY_BEGIN
; 1458 : 				_Ptr = _Mybase::_Alval.allocate(_Newres + 1);

  00079	40		 inc	 eax
  0007a	89 65 f0	 mov	 DWORD PTR __$EHRec$[ebp], esp
  0007d	50		 push	 eax
  0007e	c6 45 fc 02	 mov	 BYTE PTR __$EHRec$[ebp+12], 2
  00082	e8 00 00 00 00	 call	 ??2@YAPAXI@Z		; operator new
  00087	89 45 08	 mov	 DWORD PTR __Ptr$[ebp], eax
  0008a	83 c4 04	 add	 esp, 4

; 1462 : 			_CATCH_END
; 1463 : 		_CATCH_END

  0008d	b8 00 00 00 00	 mov	 eax, $L272151
  00092	c3		 ret	 0
$L272151:
  00093	8b 5d e8	 mov	 ebx, DWORD PTR __Newres$[ebp]
  00096	8b 75 ec	 mov	 esi, DWORD PTR _this$[ebp]
  00099	8b 55 08	 mov	 edx, DWORD PTR __Ptr$[ebp]
$L222782:

; 1464 : 
; 1465 : 		if (0 < _Oldlen)

  0009c	8b 4d 0c	 mov	 ecx, DWORD PTR __Oldlen$[ebp]
  0009f	85 c9		 test	 ecx, ecx
  000a1	76 24		 jbe	 SHORT $L272073

; 1466 : 			_Traits::copy(_Ptr, _Myptr(), _Oldlen);	// copy existing elements

  000a3	83 7e 18 10	 cmp	 DWORD PTR [esi+24], 16	; 00000010H
  000a7	72 05		 jb	 SHORT $L272070
  000a9	8b 76 04	 mov	 esi, DWORD PTR [esi+4]
  000ac	eb 03		 jmp	 SHORT $L272071
$L272070:
  000ae	83 c6 04	 add	 esi, 4
$L272071:
  000b1	8b c1		 mov	 eax, ecx
  000b3	c1 e9 02	 shr	 ecx, 2
  000b6	8b fa		 mov	 edi, edx
  000b8	f3 a5		 rep movsd
  000ba	8b c8		 mov	 ecx, eax
  000bc	83 e1 03	 and	 ecx, 3
  000bf	f3 a4		 rep movsb
  000c1	8b 75 ec	 mov	 esi, DWORD PTR _this$[ebp]
  000c4	8b 4d 0c	 mov	 ecx, DWORD PTR __Oldlen$[ebp]
$L272073:

; 1467 : 		_Tidy(true);

  000c7	83 7e 18 10	 cmp	 DWORD PTR [esi+24], 16	; 00000010H
  000cb	72 12		 jb	 SHORT $L272109
  000cd	8b 4e 04	 mov	 ecx, DWORD PTR [esi+4]
  000d0	51		 push	 ecx
  000d1	e8 00 00 00 00	 call	 ??3@YAXPAX@Z		; operator delete
  000d6	8b 55 08	 mov	 edx, DWORD PTR __Ptr$[ebp]
  000d9	8b 4d 0c	 mov	 ecx, DWORD PTR __Oldlen$[ebp]
  000dc	83 c4 04	 add	 esp, 4
$L272109:

; 1468 : 		_Bx._Ptr = _Ptr;
; 1469 : 		_Myres = _Newres;
; 1470 : 		_Eos(_Oldlen);

  000df	83 fb 10	 cmp	 ebx, 16			; 00000010H
  000e2	8d 46 04	 lea	 eax, DWORD PTR [esi+4]
  000e5	c6 00 00	 mov	 BYTE PTR [eax], 0
  000e8	89 10		 mov	 DWORD PTR [eax], edx
  000ea	89 5e 18	 mov	 DWORD PTR [esi+24], ebx
  000ed	89 4e 14	 mov	 DWORD PTR [esi+20], ecx
  000f0	72 02		 jb	 SHORT $L272144
  000f2	8b c2		 mov	 eax, edx
$L272144:

; 1471 : 		}

  000f4	5f		 pop	 edi
  000f5	c6 04 08 00	 mov	 BYTE PTR [eax+ecx], 0
  000f9	8b 4d f4	 mov	 ecx, DWORD PTR __$EHRec$[ebp+4]
  000fc	5e		 pop	 esi
  000fd	64 89 0d 00 00
	00 00		 mov	 DWORD PTR fs:__except_list, ecx
  00104	5b		 pop	 ebx
  00105	8b e5		 mov	 esp, ebp
  00107	5d		 pop	 ebp
  00108	c2 08 00	 ret	 8
$L271956:

; 1459 : 			_CATCH_ALL
; 1460 : 			_Tidy(true);	// failed again, discard storage and reraise

  0010b	8b 75 ec	 mov	 esi, DWORD PTR _this$[ebp]
  0010e	83 7e 18 10	 cmp	 DWORD PTR [esi+24], 16	; 00000010H
  00112	72 0c		 jb	 SHORT $L272048
  00114	8b 56 04	 mov	 edx, DWORD PTR [esi+4]
  00117	52		 push	 edx
  00118	e8 00 00 00 00	 call	 ??3@YAXPAX@Z		; operator delete
  0011d	83 c4 04	 add	 esp, 4
$L272048:

; 1461 : 			_RERAISE;

  00120	6a 00		 push	 0
  00122	c7 46 18 0f 00
	00 00		 mov	 DWORD PTR [esi+24], 15	; 0000000fH
  00129	c7 46 14 00 00
	00 00		 mov	 DWORD PTR [esi+20], 0
  00130	6a 00		 push	 0
  00132	c6 46 04 00	 mov	 BYTE PTR [esi+4], 0
  00136	e8 00 00 00 00	 call	 __CxxThrowException@8
$L272161:
$L272155:
  0013b	cc		 int	 3
_TEXT	ENDS
;	COMDAT text$x
text$x	SEGMENT
__ehhandler$?_Copy@?$basic_string@DU?$char_traits@D@std@@V?$allocator@D@2@@std@@IAEXII@Z:
  00000	b8 00 00 00 00	 mov	 eax, OFFSET FLAT:$T272150
  00005	e9 00 00 00 00	 jmp	 ___CxxFrameHandler
text$x	ENDS
?_Copy@?$basic_string@DU?$char_traits@D@std@@V?$allocator@D@2@@std@@IAEXII@Z ENDP ; std::basic_string<char,std::char_traits<char>,std::allocator<char> >::_Copy
PUBLIC	?_Buynode@?$_Tree@V?$_Tmap_traits@KPAVCUser@@U?$less@K@std@@V?$allocator@U?$pair@$$CBKPAVCUser@@@std@@@3@$0A@@std@@@std@@IAEPAU_Node@?$_Tree_nod@V?$_Tmap_traits@KPAVCUser@@U?$less@K@std@@V?$allocator@U?$pair@$$CBKPAVCUser@@@std@@@3@$0A@@std@@@2@PAU342@00ABU?$pair@$$CBKPAVCUser@@@2@D@Z ; std::_Tree<std::_Tmap_traits<unsigned long,CUser *,std::less<unsigned long>,std::allocator<std::pair<unsigned long const ,CUser *> >,0> >::_Buynode
; Function compile flags: /Ogty
; File c:\program files\microsoft visual studio .net 2003\vc7\include\xtree
;	COMDAT ?_Buynode@?$_Tree@V?$_Tmap_traits@KPAVCUser@@U?$less@K@std@@V?$allocator@U?$pair@$$CBKPAVCUser@@@std@@@3@$0A@@std@@@std@@IAEPAU_Node@?$_Tree_nod@V?$_Tmap_traits@KPAVCUser@@U?$less@K@std@@V?$allocator@U?$pair@$$CBKPAVCUser@@@std@@@3@$0A@@std@@@2@PAU342@00ABU?$pair@$$CBKPAVCUser@@@2@D@Z
_TEXT	SEGMENT
__Larg$ = 8						; size = 4
__Parg$ = 12						; size = 4
__Rarg$ = 16						; size = 4
__Val$ = 20						; size = 4
__Carg$ = 24						; size = 1
?_Buynode@?$_Tree@V?$_Tmap_traits@KPAVCUser@@U?$less@K@std@@V?$allocator@U?$pair@$$CBKPAVCUser@@@std@@@3@$0A@@std@@@std@@IAEPAU_Node@?$_Tree_nod@V?$_Tmap_traits@KPAVCUser@@U?$less@K@std@@V?$allocator@U?$pair@$$CBKPAVCUser@@@std@@@3@$0A@@std@@@2@PAU342@00ABU?$pair@$$CBKPAVCUser@@@2@D@Z PROC NEAR ; std::_Tree<std::_Tmap_traits<unsigned long,CUser *,std::less<unsigned long>,std::allocator<std::pair<unsigned long const ,CUser *> >,0> >::_Buynode, COMDAT
; _this$ = ecx

; 1131 : 		_Nodeptr _Wherenode = this->_Alnod.allocate(1);

  00000	6a 18		 push	 24			; 00000018H
  00002	e8 00 00 00 00	 call	 ??2@YAPAXI@Z		; operator new
  00007	83 c4 04	 add	 esp, 4

; 1132 : 		_TRY_BEGIN
; 1133 : 		new (_Wherenode) _Node(_Larg, _Parg, _Rarg, _Val, _Carg);

  0000a	85 c0		 test	 eax, eax
  0000c	74 2e		 je	 SHORT $L272168
  0000e	8b 4c 24 04	 mov	 ecx, DWORD PTR __Larg$[esp-4]
  00012	8b 54 24 08	 mov	 edx, DWORD PTR __Parg$[esp-4]
  00016	89 08		 mov	 DWORD PTR [eax], ecx
  00018	8b 4c 24 0c	 mov	 ecx, DWORD PTR __Rarg$[esp-4]
  0001c	89 48 08	 mov	 DWORD PTR [eax+8], ecx
  0001f	8b 4c 24 10	 mov	 ecx, DWORD PTR __Val$[esp-4]
  00023	89 50 04	 mov	 DWORD PTR [eax+4], edx
  00026	8b 11		 mov	 edx, DWORD PTR [ecx]
  00028	89 50 0c	 mov	 DWORD PTR [eax+12], edx
  0002b	8b 49 04	 mov	 ecx, DWORD PTR [ecx+4]
  0002e	8a 54 24 14	 mov	 dl, BYTE PTR __Carg$[esp-4]
  00032	89 48 10	 mov	 DWORD PTR [eax+16], ecx
  00035	88 50 14	 mov	 BYTE PTR [eax+20], dl
  00038	c6 40 15 00	 mov	 BYTE PTR [eax+21], 0
$L272168:

; 1134 : 		_CATCH_ALL
; 1135 : 		this->_Alnod.deallocate(_Wherenode, 1);
; 1136 : 		_RERAISE;
; 1137 : 		_CATCH_END
; 1138 : 		return (_Wherenode);
; 1139 : 		}

  0003c	c2 14 00	 ret	 20			; 00000014H
?_Buynode@?$_Tree@V?$_Tmap_traits@KPAVCUser@@U?$less@K@std@@V?$allocator@U?$pair@$$CBKPAVCUser@@@std@@@3@$0A@@std@@@std@@IAEPAU_Node@?$_Tree_nod@V?$_Tmap_traits@KPAVCUser@@U?$less@K@std@@V?$allocator@U?$pair@$$CBKPAVCUser@@@std@@@3@$0A@@std@@@2@PAU342@00ABU?$pair@$$CBKPAVCUser@@@2@D@Z ENDP ; std::_Tree<std::_Tmap_traits<unsigned long,CUser *,std::less<unsigned long>,std::allocator<std::pair<unsigned long const ,CUser *> >,0> >::_Buynode
_TEXT	ENDS
PUBLIC	??$_Destroy_range@UD3DXVECTOR3@@V?$allocator@UD3DXVECTOR3@@@std@@@std@@YAXPAUD3DXVECTOR3@@0AAV?$allocator@UD3DXVECTOR3@@@0@@Z ; std::_Destroy_range<D3DXVECTOR3,std::allocator<D3DXVECTOR3> >
; Function compile flags: /Ogty
; File c:\program files\microsoft visual studio .net 2003\vc7\include\xmemory
;	COMDAT ??$_Destroy_range@UD3DXVECTOR3@@V?$allocator@UD3DXVECTOR3@@@std@@@std@@YAXPAUD3DXVECTOR3@@0AAV?$allocator@UD3DXVECTOR3@@@0@@Z
_TEXT	SEGMENT
__First$ = 8						; size = 4
__Last$ = 12						; size = 4
__Al$ = 16						; size = 4
??$_Destroy_range@UD3DXVECTOR3@@V?$allocator@UD3DXVECTOR3@@@std@@@std@@YAXPAUD3DXVECTOR3@@0AAV?$allocator@UD3DXVECTOR3@@@0@@Z PROC NEAR ; std::_Destroy_range<D3DXVECTOR3,std::allocator<D3DXVECTOR3> >, COMDAT

; 217  : 	_Destroy_range(_First, _Last, _Al, _Ptr_cat(_First, _Last));
; 218  : 	}

  00000	c3		 ret	 0
??$_Destroy_range@UD3DXVECTOR3@@V?$allocator@UD3DXVECTOR3@@@std@@@std@@YAXPAUD3DXVECTOR3@@0AAV?$allocator@UD3DXVECTOR3@@@0@@Z ENDP ; std::_Destroy_range<D3DXVECTOR3,std::allocator<D3DXVECTOR3> >
_TEXT	ENDS
PUBLIC	??A?$vector@KV?$allocator@K@std@@@std@@QAEAAKI@Z ; std::vector<unsigned long,std::allocator<unsigned long> >::operator[]
; Function compile flags: /Ogty
; File c:\program files\microsoft visual studio .net 2003\vc7\include\vector
;	COMDAT ??A?$vector@KV?$allocator@K@std@@@std@@QAEAAKI@Z
_TEXT	SEGMENT
__Pos$ = 8						; size = 4
??A?$vector@KV?$allocator@K@std@@@std@@QAEAAKI@Z PROC NEAR ; std::vector<unsigned long,std::allocator<unsigned long> >::operator[], COMDAT
; _this$ = ecx

; 555  : 		return (*(begin() + _Pos));

  00000	8b 41 04	 mov	 eax, DWORD PTR [ecx+4]
  00003	8b 4c 24 04	 mov	 ecx, DWORD PTR __Pos$[esp-4]
  00007	8d 04 88	 lea	 eax, DWORD PTR [eax+ecx*4]

; 556  : 		}

  0000a	c2 04 00	 ret	 4
??A?$vector@KV?$allocator@K@std@@@std@@QAEAAKI@Z ENDP	; std::vector<unsigned long,std::allocator<unsigned long> >::operator[]
_TEXT	ENDS
PUBLIC	??A?$vector@PAVCObj@@V?$allocator@PAVCObj@@@std@@@std@@QAEAAPAVCObj@@I@Z ; std::vector<CObj *,std::allocator<CObj *> >::operator[]
; Function compile flags: /Ogty
;	COMDAT ??A?$vector@PAVCObj@@V?$allocator@PAVCObj@@@std@@@std@@QAEAAPAVCObj@@I@Z
_TEXT	SEGMENT
__Pos$ = 8						; size = 4
??A?$vector@PAVCObj@@V?$allocator@PAVCObj@@@std@@@std@@QAEAAPAVCObj@@I@Z PROC NEAR ; std::vector<CObj *,std::allocator<CObj *> >::operator[], COMDAT
; _this$ = ecx

; 555  : 		return (*(begin() + _Pos));

  00000	8b 41 04	 mov	 eax, DWORD PTR [ecx+4]
  00003	8b 4c 24 04	 mov	 ecx, DWORD PTR __Pos$[esp-4]
  00007	8d 04 88	 lea	 eax, DWORD PTR [eax+ecx*4]

; 556  : 		}

  0000a	c2 04 00	 ret	 4
??A?$vector@PAVCObj@@V?$allocator@PAVCObj@@@std@@@std@@QAEAAPAVCObj@@I@Z ENDP ; std::vector<CObj *,std::allocator<CObj *> >::operator[]
_TEXT	ENDS
PUBLIC	??A?$vector@VCGuildCombat1to1@@V?$allocator@VCGuildCombat1to1@@@std@@@std@@QAEAAVCGuildCombat1to1@@I@Z ; std::vector<CGuildCombat1to1,std::allocator<CGuildCombat1to1> >::operator[]
; Function compile flags: /Ogty
;	COMDAT ??A?$vector@VCGuildCombat1to1@@V?$allocator@VCGuildCombat1to1@@@std@@@std@@QAEAAVCGuildCombat1to1@@I@Z
_TEXT	SEGMENT
__Pos$ = 8						; size = 4
??A?$vector@VCGuildCombat1to1@@V?$allocator@VCGuildCombat1to1@@@std@@@std@@QAEAAVCGuildCombat1to1@@I@Z PROC NEAR ; std::vector<CGuildCombat1to1,std::allocator<CGuildCombat1to1> >::operator[], COMDAT
; _this$ = ecx

; 555  : 		return (*(begin() + _Pos));

  00000	8b 44 24 04	 mov	 eax, DWORD PTR __Pos$[esp-4]
  00004	8b 51 04	 mov	 edx, DWORD PTR [ecx+4]
  00007	8d 04 40	 lea	 eax, DWORD PTR [eax+eax*2]
  0000a	c1 e0 04	 shl	 eax, 4
  0000d	03 c2		 add	 eax, edx

; 556  : 		}

  0000f	c2 04 00	 ret	 4
??A?$vector@VCGuildCombat1to1@@V?$allocator@VCGuildCombat1to1@@@std@@@std@@QAEAAVCGuildCombat1to1@@I@Z ENDP ; std::vector<CGuildCombat1to1,std::allocator<CGuildCombat1to1> >::operator[]
_TEXT	ENDS
PUBLIC	??A?$vector@U__GC1TO1TENDER@CGuildCombat1to1Mng@@V?$allocator@U__GC1TO1TENDER@CGuildCombat1to1Mng@@@std@@@std@@QAEAAU__GC1TO1TENDER@CGuildCombat1to1Mng@@I@Z ; std::vector<CGuildCombat1to1Mng::__GC1TO1TENDER,std::allocator<CGuildCombat1to1Mng::__GC1TO1TENDER> >::operator[]
; Function compile flags: /Ogty
;	COMDAT ??A?$vector@U__GC1TO1TENDER@CGuildCombat1to1Mng@@V?$allocator@U__GC1TO1TENDER@CGuildCombat1to1Mng@@@std@@@std@@QAEAAU__GC1TO1TENDER@CGuildCombat1to1Mng@@I@Z
_TEXT	SEGMENT
__Pos$ = 8						; size = 4
??A?$vector@U__GC1TO1TENDER@CGuildCombat1to1Mng@@V?$allocator@U__GC1TO1TENDER@CGuildCombat1to1Mng@@@std@@@std@@QAEAAU__GC1TO1TENDER@CGuildCombat1to1Mng@@I@Z PROC NEAR ; std::vector<CGuildCombat1to1Mng::__GC1TO1TENDER,std::allocator<CGuildCombat1to1Mng::__GC1TO1TENDER> >::operator[], COMDAT
; _this$ = ecx

; 555  : 		return (*(begin() + _Pos));

  00000	8b 44 24 04	 mov	 eax, DWORD PTR __Pos$[esp-4]
  00004	8b 51 04	 mov	 edx, DWORD PTR [ecx+4]
  00007	8d 04 40	 lea	 eax, DWORD PTR [eax+eax*2]
  0000a	c1 e0 04	 shl	 eax, 4
  0000d	03 c2		 add	 eax, edx

; 556  : 		}

  0000f	c2 04 00	 ret	 4
??A?$vector@U__GC1TO1TENDER@CGuildCombat1to1Mng@@V?$allocator@U__GC1TO1TENDER@CGuildCombat1to1Mng@@@std@@@std@@QAEAAU__GC1TO1TENDER@CGuildCombat1to1Mng@@I@Z ENDP ; std::vector<CGuildCombat1to1Mng::__GC1TO1TENDER,std::allocator<CGuildCombat1to1Mng::__GC1TO1TENDER> >::operator[]
_TEXT	ENDS
PUBLIC	?_Tidy@?$vector@PAVCObj@@V?$allocator@PAVCObj@@@std@@@std@@IAEXXZ ; std::vector<CObj *,std::allocator<CObj *> >::_Tidy
; Function compile flags: /Ogty
;	COMDAT ?_Tidy@?$vector@PAVCObj@@V?$allocator@PAVCObj@@@std@@@std@@IAEXXZ
_TEXT	SEGMENT
?_Tidy@?$vector@PAVCObj@@V?$allocator@PAVCObj@@@std@@@std@@IAEXXZ PROC NEAR ; std::vector<CObj *,std::allocator<CObj *> >::_Tidy, COMDAT
; _this$ = ecx

; 791  : 		{	// free all storage

  00000	56		 push	 esi
  00001	8b f1		 mov	 esi, ecx

; 792  : 		if (_Myfirst != 0)

  00003	8b 46 04	 mov	 eax, DWORD PTR [esi+4]
  00006	85 c0		 test	 eax, eax
  00008	74 09		 je	 SHORT $L272357

; 793  : 			{	// something to free, destroy and deallocate it
; 794  : 			_Destroy(_Myfirst, _Mylast);
; 795  : 			this->_Alval.deallocate(_Myfirst, _Myend - _Myfirst);

  0000a	50		 push	 eax
  0000b	e8 00 00 00 00	 call	 ??3@YAXPAX@Z		; operator delete
  00010	83 c4 04	 add	 esp, 4
$L272357:

; 796  : 			}
; 797  : 		_Myfirst = 0, _Mylast = 0, _Myend = 0;

  00013	c7 46 04 00 00
	00 00		 mov	 DWORD PTR [esi+4], 0
  0001a	c7 46 08 00 00
	00 00		 mov	 DWORD PTR [esi+8], 0
  00021	c7 46 0c 00 00
	00 00		 mov	 DWORD PTR [esi+12], 0
  00028	5e		 pop	 esi

; 798  : 		}

  00029	c3		 ret	 0
?_Tidy@?$vector@PAVCObj@@V?$allocator@PAVCObj@@@std@@@std@@IAEXXZ ENDP ; std::vector<CObj *,std::allocator<CObj *> >::_Tidy
_TEXT	ENDS
PUBLIC	??0?$basic_string@DU?$char_traits@D@std@@V?$allocator@D@2@@std@@QAE@XZ ; std::basic_string<char,std::char_traits<char>,std::allocator<char> >::basic_string<char,std::char_traits<char>,std::allocator<char> >
; Function compile flags: /Ogty
; File c:\program files\microsoft visual studio .net 2003\vc7\include\xstring
;	COMDAT ??0?$basic_string@DU?$char_traits@D@std@@V?$allocator@D@2@@std@@QAE@XZ
_TEXT	SEGMENT
??0?$basic_string@DU?$char_traits@D@std@@V?$allocator@D@2@@std@@QAE@XZ PROC NEAR ; std::basic_string<char,std::char_traits<char>,std::allocator<char> >::basic_string<char,std::char_traits<char>,std::allocator<char> >, COMDAT
; _this$ = ecx

; 311  : 		{	// construct empty string

  00000	8b c1		 mov	 eax, ecx

; 312  : 		_Tidy();

  00002	33 c9		 xor	 ecx, ecx
  00004	c7 40 18 0f 00
	00 00		 mov	 DWORD PTR [eax+24], 15	; 0000000fH
  0000b	89 48 14	 mov	 DWORD PTR [eax+20], ecx
  0000e	88 48 04	 mov	 BYTE PTR [eax+4], cl

; 313  : 		}

  00011	c3		 ret	 0
??0?$basic_string@DU?$char_traits@D@std@@V?$allocator@D@2@@std@@QAE@XZ ENDP ; std::basic_string<char,std::char_traits<char>,std::allocator<char> >::basic_string<char,std::char_traits<char>,std::allocator<char> >
_TEXT	ENDS
PUBLIC	??1?$basic_string@DU?$char_traits@D@std@@V?$allocator@D@2@@std@@QAE@XZ ; std::basic_string<char,std::char_traits<char>,std::allocator<char> >::~basic_string<char,std::char_traits<char>,std::allocator<char> >
; Function compile flags: /Ogty
;	COMDAT ??1?$basic_string@DU?$char_traits@D@std@@V?$allocator@D@2@@std@@QAE@XZ
_TEXT	SEGMENT
??1?$basic_string@DU?$char_traits@D@std@@V?$allocator@D@2@@std@@QAE@XZ PROC NEAR ; std::basic_string<char,std::char_traits<char>,std::allocator<char> >::~basic_string<char,std::char_traits<char>,std::allocator<char> >, COMDAT
; _this$ = ecx

; 456  : 		{	// destroy the string

  00000	56		 push	 esi
  00001	8b f1		 mov	 esi, ecx

; 457  : 		_Tidy(true);

  00003	83 7e 18 10	 cmp	 DWORD PTR [esi+24], 16	; 00000010H
  00007	72 0c		 jb	 SHORT $L272465
  00009	8b 46 04	 mov	 eax, DWORD PTR [esi+4]
  0000c	50		 push	 eax
  0000d	e8 00 00 00 00	 call	 ??3@YAXPAX@Z		; operator delete
  00012	83 c4 04	 add	 esp, 4
$L272465:
  00015	33 c0		 xor	 eax, eax
  00017	c7 46 18 0f 00
	00 00		 mov	 DWORD PTR [esi+24], 15	; 0000000fH
  0001e	89 46 14	 mov	 DWORD PTR [esi+20], eax
  00021	88 46 04	 mov	 BYTE PTR [esi+4], al
  00024	5e		 pop	 esi

; 458  : 		}

  00025	c3		 ret	 0
??1?$basic_string@DU?$char_traits@D@std@@V?$allocator@D@2@@std@@QAE@XZ ENDP ; std::basic_string<char,std::char_traits<char>,std::allocator<char> >::~basic_string<char,std::char_traits<char>,std::allocator<char> >
_TEXT	ENDS
PUBLIC	??1?$vector@KV?$allocator@K@std@@@std@@QAE@XZ	; std::vector<unsigned long,std::allocator<unsigned long> >::~vector<unsigned long,std::allocator<unsigned long> >
; Function compile flags: /Ogty
; File c:\program files\microsoft visual studio .net 2003\vc7\include\vector
;	COMDAT ??1?$vector@KV?$allocator@K@std@@@std@@QAE@XZ
_TEXT	SEGMENT
??1?$vector@KV?$allocator@K@std@@@std@@QAE@XZ PROC NEAR	; std::vector<unsigned long,std::allocator<unsigned long> >::~vector<unsigned long,std::allocator<unsigned long> >, COMDAT
; _this$ = ecx

; 387  : 		{	// destroy the object

  00000	56		 push	 esi
  00001	8b f1		 mov	 esi, ecx

; 388  : 		_Tidy();

  00003	8b 46 04	 mov	 eax, DWORD PTR [esi+4]
  00006	85 c0		 test	 eax, eax
  00008	74 09		 je	 SHORT $L272492
  0000a	50		 push	 eax
  0000b	e8 00 00 00 00	 call	 ??3@YAXPAX@Z		; operator delete
  00010	83 c4 04	 add	 esp, 4
$L272492:
  00013	c7 46 04 00 00
	00 00		 mov	 DWORD PTR [esi+4], 0
  0001a	c7 46 08 00 00
	00 00		 mov	 DWORD PTR [esi+8], 0
  00021	c7 46 0c 00 00
	00 00		 mov	 DWORD PTR [esi+12], 0
  00028	5e		 pop	 esi

; 389  : 		}

  00029	c3		 ret	 0
??1?$vector@KV?$allocator@K@std@@@std@@QAE@XZ ENDP	; std::vector<unsigned long,std::allocator<unsigned long> >::~vector<unsigned long,std::allocator<unsigned long> >
_TEXT	ENDS
PUBLIC	?_Grow@?$basic_string@DU?$char_traits@D@std@@V?$allocator@D@2@@std@@IAE_NI_N@Z ; std::basic_string<char,std::char_traits<char>,std::allocator<char> >::_Grow
EXTRN	?_Xlen@_String_base@std@@QBEXXZ:NEAR		; std::_String_base::_Xlen
; Function compile flags: /Ogty
; File c:\program files\microsoft visual studio .net 2003\vc7\include\xstring
;	COMDAT ?_Grow@?$basic_string@DU?$char_traits@D@std@@V?$allocator@D@2@@std@@IAE_NI_N@Z
_TEXT	SEGMENT
__Newsize$ = 8						; size = 4
__Trim$ = 12						; size = 1
?_Grow@?$basic_string@DU?$char_traits@D@std@@V?$allocator@D@2@@std@@IAE_NI_N@Z PROC NEAR ; std::basic_string<char,std::char_traits<char>,std::allocator<char> >::_Grow, COMDAT
; _this$ = ecx

; 1480 : 		{	// ensure buffer is big enough, trim to size if _Trim is true

  00000	55		 push	 ebp
  00001	56		 push	 esi

; 1481 : 		if (max_size() < _Newsize)

  00002	8b 74 24 0c	 mov	 esi, DWORD PTR __Newsize$[esp+4]
  00006	83 fe fe	 cmp	 esi, -2			; fffffffeH
  00009	8b e9		 mov	 ebp, ecx
  0000b	76 05		 jbe	 SHORT $L221380

; 1482 : 			_String_base::_Xlen();	// result too long

  0000d	e8 00 00 00 00	 call	 ?_Xlen@_String_base@std@@QBEXXZ ; std::_String_base::_Xlen
$L221380:

; 1483 : 		if (_Myres < _Newsize)

  00012	8b 45 18	 mov	 eax, DWORD PTR [ebp+24]
  00015	3b c6		 cmp	 eax, esi
  00017	73 19		 jae	 SHORT $L221381

; 1484 : 			_Copy(_Newsize, _Mysize);	// reallocate to grow

  00019	8b 45 14	 mov	 eax, DWORD PTR [ebp+20]
  0001c	50		 push	 eax
  0001d	56		 push	 esi
  0001e	8b cd		 mov	 ecx, ebp
  00020	e8 00 00 00 00	 call	 ?_Copy@?$basic_string@DU?$char_traits@D@std@@V?$allocator@D@2@@std@@IAEXII@Z ; std::basic_string<char,std::char_traits<char>,std::allocator<char> >::_Copy

; 1490 : 		return (0 < _Newsize);	// return true only if more work to do

  00025	33 c0		 xor	 eax, eax
  00027	3b c6		 cmp	 eax, esi
  00029	1b c0		 sbb	 eax, eax
  0002b	5e		 pop	 esi
  0002c	f7 d8		 neg	 eax
  0002e	5d		 pop	 ebp

; 1491 : 		}

  0002f	c2 08 00	 ret	 8
$L221381:

; 1485 : 		else if (_Trim && _Newsize < _BUF_SIZE)

  00032	8a 4c 24 10	 mov	 cl, BYTE PTR __Trim$[esp+4]
  00036	84 c9		 test	 cl, cl
  00038	74 5c		 je	 SHORT $L221383
  0003a	83 fe 10	 cmp	 esi, 16			; 00000010H
  0003d	73 57		 jae	 SHORT $L221383
  0003f	53		 push	 ebx

; 1486 : 			_Tidy(true,	// copy and deallocate if trimming to small string
; 1487 : 				_Newsize < _Mysize ? _Newsize : _Mysize);

  00040	8b 5d 14	 mov	 ebx, DWORD PTR [ebp+20]
  00043	3b f3		 cmp	 esi, ebx
  00045	73 02		 jae	 SHORT $L272499
  00047	8b de		 mov	 ebx, esi
$L272499:
  00049	83 f8 10	 cmp	 eax, 16			; 00000010H
  0004c	72 2b		 jb	 SHORT $L272554
  0004e	85 db		 test	 ebx, ebx
  00050	8b 45 04	 mov	 eax, DWORD PTR [ebp+4]
  00053	57		 push	 edi
  00054	8d 7d 04	 lea	 edi, DWORD PTR [ebp+4]
  00057	76 16		 jbe	 SHORT $L272551
  00059	8b cb		 mov	 ecx, ebx
  0005b	8b d1		 mov	 edx, ecx
  0005d	c1 e9 02	 shr	 ecx, 2
  00060	8b f0		 mov	 esi, eax
  00062	f3 a5		 rep movsd
  00064	8b ca		 mov	 ecx, edx
  00066	83 e1 03	 and	 ecx, 3
  00069	f3 a4		 rep movsb
  0006b	8b 74 24 14	 mov	 esi, DWORD PTR __Newsize$[esp+12]
$L272551:
  0006f	50		 push	 eax
  00070	e8 00 00 00 00	 call	 ??3@YAXPAX@Z		; operator delete
  00075	83 c4 04	 add	 esp, 4
  00078	5f		 pop	 edi
$L272554:
  00079	89 5d 14	 mov	 DWORD PTR [ebp+20], ebx

; 1490 : 		return (0 < _Newsize);	// return true only if more work to do

  0007c	33 c0		 xor	 eax, eax
  0007e	c7 45 18 0f 00
	00 00		 mov	 DWORD PTR [ebp+24], 15	; 0000000fH
  00085	c6 44 2b 04 00	 mov	 BYTE PTR [ebx+ebp+4], 0
  0008a	3b c6		 cmp	 eax, esi
  0008c	5b		 pop	 ebx
  0008d	1b c0		 sbb	 eax, eax
  0008f	5e		 pop	 esi
  00090	f7 d8		 neg	 eax
  00092	5d		 pop	 ebp

; 1491 : 		}

  00093	c2 08 00	 ret	 8
$L221383:

; 1488 : 		else if (_Newsize == 0)

  00096	85 f6		 test	 esi, esi
  00098	75 23		 jne	 SHORT $L272590

; 1489 : 			_Eos(0);	// new size is zero, just null terminate

  0009a	83 f8 10	 cmp	 eax, 16			; 00000010H
  0009d	89 75 14	 mov	 DWORD PTR [ebp+20], esi
  000a0	72 14		 jb	 SHORT $L272587
  000a2	8b 6d 04	 mov	 ebp, DWORD PTR [ebp+4]

; 1490 : 		return (0 < _Newsize);	// return true only if more work to do

  000a5	33 c0		 xor	 eax, eax
  000a7	3b c6		 cmp	 eax, esi
  000a9	1b c0		 sbb	 eax, eax
  000ab	5e		 pop	 esi
  000ac	c6 45 00 00	 mov	 BYTE PTR [ebp], 0
  000b0	f7 d8		 neg	 eax
  000b2	5d		 pop	 ebp

; 1491 : 		}

  000b3	c2 08 00	 ret	 8

; 1489 : 			_Eos(0);	// new size is zero, just null terminate

$L272587:
  000b6	83 c5 04	 add	 ebp, 4
  000b9	c6 45 00 00	 mov	 BYTE PTR [ebp], 0
$L272590:

; 1490 : 		return (0 < _Newsize);	// return true only if more work to do

  000bd	33 c0		 xor	 eax, eax
  000bf	3b c6		 cmp	 eax, esi
  000c1	1b c0		 sbb	 eax, eax
  000c3	5e		 pop	 esi
  000c4	f7 d8		 neg	 eax
  000c6	5d		 pop	 ebp

; 1491 : 		}

  000c7	c2 08 00	 ret	 8
?_Grow@?$basic_string@DU?$char_traits@D@std@@V?$allocator@D@2@@std@@IAE_NI_N@Z ENDP ; std::basic_string<char,std::char_traits<char>,std::allocator<char> >::_Grow
_TEXT	ENDS
PUBLIC	?_Destroy@?$vector@UD3DXVECTOR3@@V?$allocator@UD3DXVECTOR3@@@std@@@std@@IAEXPAUD3DXVECTOR3@@0@Z ; std::vector<D3DXVECTOR3,std::allocator<D3DXVECTOR3> >::_Destroy
; Function compile flags: /Ogty
; File c:\program files\microsoft visual studio .net 2003\vc7\include\vector
;	COMDAT ?_Destroy@?$vector@UD3DXVECTOR3@@V?$allocator@UD3DXVECTOR3@@@std@@@std@@IAEXPAUD3DXVECTOR3@@0@Z
_TEXT	SEGMENT
__First$ = 8						; size = 4
__Last$ = 12						; size = 4
?_Destroy@?$vector@UD3DXVECTOR3@@V?$allocator@UD3DXVECTOR3@@@std@@@std@@IAEXPAUD3DXVECTOR3@@0@Z PROC NEAR ; std::vector<D3DXVECTOR3,std::allocator<D3DXVECTOR3> >::_Destroy, COMDAT
; _this$ = ecx

; 787  : 		_Destroy_range(_First, _Last, this->_Alval);
; 788  : 		}

  00000	c2 08 00	 ret	 8
?_Destroy@?$vector@UD3DXVECTOR3@@V?$allocator@UD3DXVECTOR3@@@std@@@std@@IAEXPAUD3DXVECTOR3@@0@Z ENDP ; std::vector<D3DXVECTOR3,std::allocator<D3DXVECTOR3> >::_Destroy
_TEXT	ENDS
PUBLIC	?_OnDie@CWorld@@QAEXXZ				; CWorld::_OnDie
EXTRN	?g_GuildCombatMng@@3VCGuildCombat@@A:BYTE	; g_GuildCombatMng
EXTRN	?GetPoint@CGuildCombat@@QAEXPAVCUser@@0@Z:NEAR	; CGuildCombat::GetPoint
EXTRN	?OutWar@CGuildCombat@@QAEXPAVCUser@@0H@Z:NEAR	; CGuildCombat::OutWar
EXTRN	?SetLost@CGuildCombat1to1@@QAEXPAVCUser@@@Z:NEAR ; CGuildCombat1to1::SetLost
EXTRN	?g_GuildCombat1to1Mng@@3VCGuildCombat1to1Mng@@A:BYTE ; g_GuildCombat1to1Mng
EXTRN	?GetTenderGuildIndexByUser@CGuildCombat1to1Mng@@QAEHPAVCUser@@@Z:NEAR ; CGuildCombat1to1Mng::GetTenderGuildIndexByUser
; Function compile flags: /Ogty
; File c:\documents and settings\test\mes documents\source\virtuos_v17\build\program\_common\world.cpp
;	COMDAT ?_OnDie@CWorld@@QAEXXZ
_TEXT	SEGMENT
?_OnDie@CWorld@@QAEXXZ PROC NEAR			; CWorld::_OnDie, COMDAT
; _this$ = ecx

; 1974 : {

  00000	53		 push	 ebx
  00001	57		 push	 edi
  00002	8b f9		 mov	 edi, ecx

; 1975 : 	for( int i = 0; i < m_cbOnDie; i++ )

  00004	8b 87 08 31 08
	00		 mov	 eax, DWORD PTR [edi+536840]
  0000a	33 db		 xor	 ebx, ebx
  0000c	85 c0		 test	 eax, eax
  0000e	7e 76		 jle	 SHORT $L272711
  00010	56		 push	 esi
  00011	8d b7 0c 31 08
	00		 lea	 esi, DWORD PTR [edi+536844]
$L263236:

; 1976 : 	{
; 1977 : 		g_GuildCombatMng.OutWar( m_aOnDie[i].pDie, NULL );

  00017	8b 06		 mov	 eax, DWORD PTR [esi]
  00019	6a 00		 push	 0
  0001b	6a 00		 push	 0
  0001d	50		 push	 eax
  0001e	b9 00 00 00 00	 mov	 ecx, OFFSET FLAT:?g_GuildCombatMng@@3VCGuildCombat@@A
  00023	e8 00 00 00 00	 call	 ?OutWar@CGuildCombat@@QAEXPAVCUser@@0H@Z ; CGuildCombat::OutWar

; 1978 : 		g_GuildCombatMng.GetPoint( m_aOnDie[i].pAttacker, m_aOnDie[i].pDie );

  00028	8b 0e		 mov	 ecx, DWORD PTR [esi]
  0002a	8b 56 04	 mov	 edx, DWORD PTR [esi+4]
  0002d	51		 push	 ecx
  0002e	52		 push	 edx
  0002f	b9 00 00 00 00	 mov	 ecx, OFFSET FLAT:?g_GuildCombatMng@@3VCGuildCombat@@A
  00034	e8 00 00 00 00	 call	 ?GetPoint@CGuildCombat@@QAEXPAVCUser@@0@Z ; CGuildCombat::GetPoint

; 1979 : #if __VER >= 11 // __GUILD_COMBAT_1TO1
; 1980 : 		int nIndex = g_GuildCombat1to1Mng.GetTenderGuildIndexByUser( m_aOnDie[i].pDie );

  00039	8b 06		 mov	 eax, DWORD PTR [esi]
  0003b	50		 push	 eax
  0003c	b9 00 00 00 00	 mov	 ecx, OFFSET FLAT:?g_GuildCombat1to1Mng@@3VCGuildCombat1to1Mng@@A
  00041	e8 00 00 00 00	 call	 ?GetTenderGuildIndexByUser@CGuildCombat1to1Mng@@QAEHPAVCUser@@@Z ; CGuildCombat1to1Mng::GetTenderGuildIndexByUser

; 1981 : 		if( nIndex != NULL_ID )

  00046	83 f8 ff	 cmp	 eax, -1
  00049	74 2c		 je	 SHORT $L263237

; 1982 : 		{
; 1983 : 			int nStageId = g_GuildCombat1to1Mng.m_vecTenderGuild[nIndex].nStageId;

  0004b	8b 15 54 00 00
	00		 mov	 edx, DWORD PTR ?g_GuildCombat1to1Mng@@3VCGuildCombat1to1Mng@@A+84
  00051	8d 04 40	 lea	 eax, DWORD PTR [eax+eax*2]
  00054	c1 e0 04	 shl	 eax, 4
  00057	03 c2		 add	 eax, edx
  00059	8b 40 08	 mov	 eax, DWORD PTR [eax+8]

; 1984 : 			if( nStageId != NULL_ID )

  0005c	83 f8 ff	 cmp	 eax, -1
  0005f	74 16		 je	 SHORT $L263237

; 1985 : 				g_GuildCombat1to1Mng.m_vecGuilCombat1to1[nStageId].SetLost( m_aOnDie[i].pDie );

  00061	8b 15 44 00 00
	00		 mov	 edx, DWORD PTR ?g_GuildCombat1to1Mng@@3VCGuildCombat1to1Mng@@A+68
  00067	8d 0c 40	 lea	 ecx, DWORD PTR [eax+eax*2]
  0006a	c1 e1 04	 shl	 ecx, 4
  0006d	03 ca		 add	 ecx, edx
  0006f	8b 16		 mov	 edx, DWORD PTR [esi]
  00071	52		 push	 edx
  00072	e8 00 00 00 00	 call	 ?SetLost@CGuildCombat1to1@@QAEXPAVCUser@@@Z ; CGuildCombat1to1::SetLost
$L263237:
  00077	8b 87 08 31 08
	00		 mov	 eax, DWORD PTR [edi+536840]
  0007d	43		 inc	 ebx
  0007e	83 c6 08	 add	 esi, 8
  00081	3b d8		 cmp	 ebx, eax
  00083	7c 92		 jl	 SHORT $L263236
  00085	5e		 pop	 esi
$L272711:

; 1986 : 		}
; 1987 : #endif // __GUILD_COMBAT_1TO1
; 1988 : 	}
; 1989 : 	m_cbOnDie	= 0;

  00086	c7 87 08 31 08
	00 00 00 00 00	 mov	 DWORD PTR [edi+536840], 0
  00090	5f		 pop	 edi
  00091	5b		 pop	 ebx

; 1990 : }

  00092	c3		 ret	 0
?_OnDie@CWorld@@QAEXXZ ENDP				; CWorld::_OnDie
_TEXT	ENDS
PUBLIC	??1?$vector@PAVCObj@@V?$allocator@PAVCObj@@@std@@@std@@QAE@XZ ; std::vector<CObj *,std::allocator<CObj *> >::~vector<CObj *,std::allocator<CObj *> >
; Function compile flags: /Ogty
; File c:\program files\microsoft visual studio .net 2003\vc7\include\vector
;	COMDAT ??1?$vector@PAVCObj@@V?$allocator@PAVCObj@@@std@@@std@@QAE@XZ
_TEXT	SEGMENT
??1?$vector@PAVCObj@@V?$allocator@PAVCObj@@@std@@@std@@QAE@XZ PROC NEAR ; std::vector<CObj *,std::allocator<CObj *> >::~vector<CObj *,std::allocator<CObj *> >, COMDAT
; _this$ = ecx

; 387  : 		{	// destroy the object

  00000	56		 push	 esi
  00001	8b f1		 mov	 esi, ecx

; 388  : 		_Tidy();

  00003	8b 46 04	 mov	 eax, DWORD PTR [esi+4]
  00006	85 c0		 test	 eax, eax
  00008	74 09		 je	 SHORT $L272722
  0000a	50		 push	 eax
  0000b	e8 00 00 00 00	 call	 ??3@YAXPAX@Z		; operator delete
  00010	83 c4 04	 add	 esp, 4
$L272722:
  00013	c7 46 04 00 00
	00 00		 mov	 DWORD PTR [esi+4], 0
  0001a	c7 46 08 00 00
	00 00		 mov	 DWORD PTR [esi+8], 0
  00021	c7 46 0c 00 00
	00 00		 mov	 DWORD PTR [esi+12], 0
  00028	5e		 pop	 esi

; 389  : 		}

  00029	c3		 ret	 0
??1?$vector@PAVCObj@@V?$allocator@PAVCObj@@@std@@@std@@QAE@XZ ENDP ; std::vector<CObj *,std::allocator<CObj *> >::~vector<CObj *,std::allocator<CObj *> >
_TEXT	ENDS
PUBLIC	?clear@?$vector@PAVCObj@@V?$allocator@PAVCObj@@@std@@@std@@QAEXXZ ; std::vector<CObj *,std::allocator<CObj *> >::clear
; Function compile flags: /Ogty
;	COMDAT ?clear@?$vector@PAVCObj@@V?$allocator@PAVCObj@@@std@@@std@@QAEXXZ
_TEXT	SEGMENT
?clear@?$vector@PAVCObj@@V?$allocator@PAVCObj@@@std@@@std@@QAEXXZ PROC NEAR ; std::vector<CObj *,std::allocator<CObj *> >::clear, COMDAT
; _this$ = ecx

; 743  : 		{	// erase all

  00000	56		 push	 esi
  00001	8b f1		 mov	 esi, ecx

; 744  : 		_Tidy();

  00003	8b 46 04	 mov	 eax, DWORD PTR [esi+4]
  00006	85 c0		 test	 eax, eax
  00008	74 09		 je	 SHORT $L272736
  0000a	50		 push	 eax
  0000b	e8 00 00 00 00	 call	 ??3@YAXPAX@Z		; operator delete
  00010	83 c4 04	 add	 esp, 4
$L272736:
  00013	c7 46 04 00 00
	00 00		 mov	 DWORD PTR [esi+4], 0
  0001a	c7 46 08 00 00
	00 00		 mov	 DWORD PTR [esi+8], 0
  00021	c7 46 0c 00 00
	00 00		 mov	 DWORD PTR [esi+12], 0
  00028	5e		 pop	 esi

; 745  : 		}

  00029	c3		 ret	 0
?clear@?$vector@PAVCObj@@V?$allocator@PAVCObj@@@std@@@std@@QAEXXZ ENDP ; std::vector<CObj *,std::allocator<CObj *> >::clear
_TEXT	ENDS
PUBLIC	??1logic_error@std@@UAE@XZ			; std::logic_error::~logic_error
PUBLIC	?what@logic_error@std@@UBEPBDXZ			; std::logic_error::what
PUBLIC	??_7logic_error@std@@6B@			; std::logic_error::`vftable'
PUBLIC	??_Glogic_error@std@@UAEPAXI@Z			; std::logic_error::`scalar deleting destructor'
EXTRN	??1exception@@UAE@XZ:NEAR			; exception::~exception
EXTRN	??_Elogic_error@std@@UAEPAXI@Z:NEAR		; std::logic_error::`vector deleting destructor'
;	COMDAT ??_7logic_error@std@@6B@
; File c:\program files\microsoft visual studio .net 2003\vc7\include\iosfwd
CONST	SEGMENT
??_7logic_error@std@@6B@ DD FLAT:??_Elogic_error@std@@UAEPAXI@Z ; std::logic_error::`vftable'
	DD	FLAT:?what@logic_error@std@@UBEPBDXZ
; Function compile flags: /Ogty
; File c:\program files\microsoft visual studio .net 2003\vc7\include\stdexcept
CONST	ENDS
;	COMDAT ??1logic_error@std@@UAE@XZ
_TEXT	SEGMENT
??1logic_error@std@@UAE@XZ PROC NEAR			; std::logic_error::~logic_error, COMDAT
; _this$ = ecx

; 23   : 		{}	// destroy the object

  00000	56		 push	 esi
  00001	8b f1		 mov	 esi, ecx
  00003	c7 06 00 00 00
	00		 mov	 DWORD PTR [esi], OFFSET FLAT:??_7logic_error@std@@6B@
  00009	83 7e 24 10	 cmp	 DWORD PTR [esi+36], 16	; 00000010H
  0000d	72 0c		 jb	 SHORT $L272800
  0000f	8b 46 10	 mov	 eax, DWORD PTR [esi+16]
  00012	50		 push	 eax
  00013	e8 00 00 00 00	 call	 ??3@YAXPAX@Z		; operator delete
  00018	83 c4 04	 add	 esp, 4
$L272800:
  0001b	33 c0		 xor	 eax, eax
  0001d	c7 46 24 0f 00
	00 00		 mov	 DWORD PTR [esi+36], 15	; 0000000fH
  00024	89 46 20	 mov	 DWORD PTR [esi+32], eax
  00027	88 46 10	 mov	 BYTE PTR [esi+16], al
  0002a	8b ce		 mov	 ecx, esi
  0002c	5e		 pop	 esi
  0002d	e9 00 00 00 00	 jmp	 ??1exception@@UAE@XZ	; exception::~exception
??1logic_error@std@@UAE@XZ ENDP				; std::logic_error::~logic_error
; Function compile flags: /Ogty
_TEXT	ENDS
;	COMDAT ?what@logic_error@std@@UBEPBDXZ
_TEXT	SEGMENT
?what@logic_error@std@@UBEPBDXZ PROC NEAR		; std::logic_error::what, COMDAT
; _this$ = ecx

; 27   : 		return (_Str.c_str());

  00000	83 79 24 10	 cmp	 DWORD PTR [ecx+36], 16	; 00000010H
  00004	72 04		 jb	 SHORT $L272833
  00006	8b 41 10	 mov	 eax, DWORD PTR [ecx+16]

; 28   : 		}

  00009	c3		 ret	 0

; 27   : 		return (_Str.c_str());

$L272833:
  0000a	8d 41 10	 lea	 eax, DWORD PTR [ecx+16]

; 28   : 		}

  0000d	c3		 ret	 0
?what@logic_error@std@@UBEPBDXZ ENDP			; std::logic_error::what
; Function compile flags: /Ogty
_TEXT	ENDS
;	COMDAT ??_Glogic_error@std@@UAEPAXI@Z
_TEXT	SEGMENT
___flags$ = 8						; size = 4
??_Glogic_error@std@@UAEPAXI@Z PROC NEAR		; std::logic_error::`scalar deleting destructor', COMDAT
; _this$ = ecx
  00000	56		 push	 esi
  00001	8b f1		 mov	 esi, ecx
  00003	e8 00 00 00 00	 call	 ??1logic_error@std@@UAE@XZ ; std::logic_error::~logic_error
  00008	f6 44 24 08 01	 test	 BYTE PTR ___flags$[esp], 1
  0000d	74 09		 je	 SHORT $L272841
  0000f	56		 push	 esi
  00010	e8 00 00 00 00	 call	 ??3@YAXPAX@Z		; operator delete
  00015	83 c4 04	 add	 esp, 4
$L272841:
  00018	8b c6		 mov	 eax, esi
  0001a	5e		 pop	 esi
  0001b	c2 04 00	 ret	 4
??_Glogic_error@std@@UAEPAXI@Z ENDP			; std::logic_error::`scalar deleting destructor'
_TEXT	ENDS
PUBLIC	??0TextureSet@@QAE@XZ				; TextureSet::TextureSet
; Function compile flags: /Ogty
; File c:\documents and settings\test\mes documents\source\virtuos_v17\build\program\_common\world.h
;	COMDAT ??0TextureSet@@QAE@XZ
_TEXT	SEGMENT
??0TextureSet@@QAE@XZ PROC NEAR				; TextureSet::TextureSet, COMDAT
; _this$ = ecx

; 106  : 	TextureSet( ) { _bUse = FALSE; _pTexture = NULL; }

  00000	8b c1		 mov	 eax, ecx
  00002	33 c9		 xor	 ecx, ecx
  00004	c7 40 1c 0f 00
	00 00		 mov	 DWORD PTR [eax+28], 15	; 0000000fH
  0000b	89 48 18	 mov	 DWORD PTR [eax+24], ecx
  0000e	88 48 08	 mov	 BYTE PTR [eax+8], cl
  00011	89 08		 mov	 DWORD PTR [eax], ecx
  00013	89 48 20	 mov	 DWORD PTR [eax+32], ecx
  00016	c3		 ret	 0
??0TextureSet@@QAE@XZ ENDP				; TextureSet::TextureSet
_TEXT	ENDS
PUBLIC	??1TextureSet@@QAE@XZ				; TextureSet::~TextureSet
; Function compile flags: /Ogty
;	COMDAT ??1TextureSet@@QAE@XZ
_TEXT	SEGMENT
??1TextureSet@@QAE@XZ PROC NEAR				; TextureSet::~TextureSet, COMDAT
; _this$ = ecx

; 107  : 	~TextureSet( ) { _pTexture = NULL; }

  00000	56		 push	 esi
  00001	8b f1		 mov	 esi, ecx
  00003	c7 46 20 00 00
	00 00		 mov	 DWORD PTR [esi+32], 0
  0000a	83 7e 1c 10	 cmp	 DWORD PTR [esi+28], 16	; 00000010H
  0000e	72 0c		 jb	 SHORT $L273001
  00010	8b 46 08	 mov	 eax, DWORD PTR [esi+8]
  00013	50		 push	 eax
  00014	e8 00 00 00 00	 call	 ??3@YAXPAX@Z		; operator delete
  00019	83 c4 04	 add	 esp, 4
$L273001:
  0001c	c7 46 1c 0f 00
	00 00		 mov	 DWORD PTR [esi+28], 15	; 0000000fH
  00023	c7 46 18 00 00
	00 00		 mov	 DWORD PTR [esi+24], 0
  0002a	c6 46 08 00	 mov	 BYTE PTR [esi+8], 0
  0002e	5e		 pop	 esi
  0002f	c3		 ret	 0
??1TextureSet@@QAE@XZ ENDP				; TextureSet::~TextureSet
_TEXT	ENDS
PUBLIC	?assign@?$basic_string@DU?$char_traits@D@std@@V?$allocator@D@2@@std@@QAEAAV12@ABV12@II@Z ; std::basic_string<char,std::char_traits<char>,std::allocator<char> >::assign
; Function compile flags: /Ogty
; File c:\program files\microsoft visual studio .net 2003\vc7\include\xstring
;	COMDAT ?assign@?$basic_string@DU?$char_traits@D@std@@V?$allocator@D@2@@std@@QAEAAV12@ABV12@II@Z
_TEXT	SEGMENT
__Right$ = 8						; size = 4
__Roff$ = 12						; size = 4
__Count$ = 16						; size = 4
?assign@?$basic_string@DU?$char_traits@D@std@@V?$allocator@D@2@@std@@QAEAAV12@ABV12@II@Z PROC NEAR ; std::basic_string<char,std::char_traits<char>,std::allocator<char> >::assign, COMDAT
; _this$ = ecx

; 590  : 		{	// assign _Right [_Roff, _Roff + _Count)

  00000	53		 push	 ebx
  00001	55		 push	 ebp
  00002	56		 push	 esi

; 591  : 		if (_Right.size() < _Roff)

  00003	8b 74 24 14	 mov	 esi, DWORD PTR __Roff$[esp+8]
  00007	57		 push	 edi
  00008	8b 7c 24 14	 mov	 edi, DWORD PTR __Right$[esp+12]
  0000c	39 77 14	 cmp	 DWORD PTR [edi+20], esi
  0000f	8b d9		 mov	 ebx, ecx
  00011	73 05		 jae	 SHORT $L220001

; 592  : 			_String_base::_Xran();	// _Roff off end

  00013	e8 00 00 00 00	 call	 ?_Xran@_String_base@std@@QBEXXZ ; std::_String_base::_Xran
$L220001:

; 593  : 		size_type _Num = _Right.size() - _Roff;

  00018	8b 6f 14	 mov	 ebp, DWORD PTR [edi+20]

; 594  : 		if (_Count < _Num)

  0001b	8b 44 24 1c	 mov	 eax, DWORD PTR __Count$[esp+12]
  0001f	2b ee		 sub	 ebp, esi
  00021	3b c5		 cmp	 eax, ebp
  00023	73 02		 jae	 SHORT $L220003

; 595  : 			_Num = _Count;	// trim _Num to size

  00025	8b e8		 mov	 ebp, eax
$L220003:

; 596  : 
; 597  : 		if (this == &_Right)

  00027	3b df		 cmp	 ebx, edi
  00029	75 1f		 jne	 SHORT $L220004

; 598  : 			erase((size_type)(_Roff + _Num)), erase(0, _Roff);	// substring

  0002b	6a ff		 push	 -1
  0002d	03 ee		 add	 ebp, esi
  0002f	55		 push	 ebp
  00030	8b cb		 mov	 ecx, ebx
  00032	e8 00 00 00 00	 call	 ?erase@?$basic_string@DU?$char_traits@D@std@@V?$allocator@D@2@@std@@QAEAAV12@II@Z ; std::basic_string<char,std::char_traits<char>,std::allocator<char> >::erase
  00037	56		 push	 esi
  00038	6a 00		 push	 0
  0003a	8b cb		 mov	 ecx, ebx
  0003c	e8 00 00 00 00	 call	 ?erase@?$basic_string@DU?$char_traits@D@std@@V?$allocator@D@2@@std@@QAEAAV12@II@Z ; std::basic_string<char,std::char_traits<char>,std::allocator<char> >::erase
  00041	5f		 pop	 edi
  00042	5e		 pop	 esi
  00043	5d		 pop	 ebp

; 603  : 			}
; 604  : 		return (*this);

  00044	8b c3		 mov	 eax, ebx
  00046	5b		 pop	 ebx

; 605  : 		}

  00047	c2 0c 00	 ret	 12			; 0000000cH
$L220004:

; 599  : 		else if (_Grow(_Num))

  0004a	83 fd fe	 cmp	 ebp, -2			; fffffffeH
  0004d	76 07		 jbe	 SHORT $L273127
  0004f	8b cb		 mov	 ecx, ebx
  00051	e8 00 00 00 00	 call	 ?_Xlen@_String_base@std@@QBEXXZ ; std::_String_base::_Xlen
$L273127:
  00056	8b 43 18	 mov	 eax, DWORD PTR [ebx+24]
  00059	3b c5		 cmp	 eax, ebp
  0005b	73 21		 jae	 SHORT $L273128
  0005d	8b 43 14	 mov	 eax, DWORD PTR [ebx+20]
  00060	50		 push	 eax
  00061	55		 push	 ebp
  00062	8b cb		 mov	 ecx, ebx
  00064	e8 00 00 00 00	 call	 ?_Copy@?$basic_string@DU?$char_traits@D@std@@V?$allocator@D@2@@std@@IAEXII@Z ; std::basic_string<char,std::char_traits<char>,std::allocator<char> >::_Copy
  00069	85 ed		 test	 ebp, ebp
$L273215:
  0006b	76 6d		 jbe	 SHORT $L273214

; 600  : 			{	// make room and assign new stuff
; 601  : 			_Traits::copy(_Myptr(), _Right._Myptr() + _Roff, _Num);

  0006d	8b 4f 18	 mov	 ecx, DWORD PTR [edi+24]
  00070	b8 10 00 00 00	 mov	 eax, 16			; 00000010H
  00075	3b c8		 cmp	 ecx, eax
  00077	72 2f		 jb	 SHORT $L273179
  00079	8b 57 04	 mov	 edx, DWORD PTR [edi+4]
  0007c	eb 2d		 jmp	 SHORT $L273180

; 599  : 		else if (_Grow(_Num))

$L273128:
  0007e	85 ed		 test	 ebp, ebp
  00080	75 e9		 jne	 SHORT $L273215
  00082	83 f8 10	 cmp	 eax, 16			; 00000010H
  00085	89 6b 14	 mov	 DWORD PTR [ebx+20], ebp
  00088	72 0f		 jb	 SHORT $L273171
  0008a	8b 43 04	 mov	 eax, DWORD PTR [ebx+4]
  0008d	5f		 pop	 edi
  0008e	5e		 pop	 esi
  0008f	c6 00 00	 mov	 BYTE PTR [eax], 0
  00092	5d		 pop	 ebp

; 603  : 			}
; 604  : 		return (*this);

  00093	8b c3		 mov	 eax, ebx
  00095	5b		 pop	 ebx

; 605  : 		}

  00096	c2 0c 00	 ret	 12			; 0000000cH

; 599  : 		else if (_Grow(_Num))

$L273171:
  00099	5f		 pop	 edi
  0009a	8d 43 04	 lea	 eax, DWORD PTR [ebx+4]
  0009d	5e		 pop	 esi
  0009e	c6 00 00	 mov	 BYTE PTR [eax], 0
  000a1	5d		 pop	 ebp

; 603  : 			}
; 604  : 		return (*this);

  000a2	8b c3		 mov	 eax, ebx
  000a4	5b		 pop	 ebx

; 605  : 		}

  000a5	c2 0c 00	 ret	 12			; 0000000cH

; 600  : 			{	// make room and assign new stuff
; 601  : 			_Traits::copy(_Myptr(), _Right._Myptr() + _Roff, _Num);

$L273179:
  000a8	8d 57 04	 lea	 edx, DWORD PTR [edi+4]
$L273180:
  000ab	39 43 18	 cmp	 DWORD PTR [ebx+24], eax
  000ae	8d 43 04	 lea	 eax, DWORD PTR [ebx+4]
  000b1	72 04		 jb	 SHORT $L273187
  000b3	8b 38		 mov	 edi, DWORD PTR [eax]
  000b5	eb 02		 jmp	 SHORT $L273188
$L273187:
  000b7	8b f8		 mov	 edi, eax
$L273188:
  000b9	03 f2		 add	 esi, edx
  000bb	8b cd		 mov	 ecx, ebp
  000bd	8b d1		 mov	 edx, ecx
  000bf	c1 e9 02	 shr	 ecx, 2
  000c2	f3 a5		 rep movsd
  000c4	8b ca		 mov	 ecx, edx
  000c6	83 e1 03	 and	 ecx, 3
  000c9	f3 a4		 rep movsb

; 602  : 			_Eos(_Num);

  000cb	83 7b 18 10	 cmp	 DWORD PTR [ebx+24], 16	; 00000010H
  000cf	89 6b 14	 mov	 DWORD PTR [ebx+20], ebp
  000d2	72 02		 jb	 SHORT $L273211
  000d4	8b 00		 mov	 eax, DWORD PTR [eax]
$L273211:
  000d6	c6 04 28 00	 mov	 BYTE PTR [eax+ebp], 0
$L273214:
  000da	5f		 pop	 edi
  000db	5e		 pop	 esi
  000dc	5d		 pop	 ebp

; 603  : 			}
; 604  : 		return (*this);

  000dd	8b c3		 mov	 eax, ebx
  000df	5b		 pop	 ebx

; 605  : 		}

  000e0	c2 0c 00	 ret	 12			; 0000000cH
?assign@?$basic_string@DU?$char_traits@D@std@@V?$allocator@D@2@@std@@QAEAAV12@ABV12@II@Z ENDP ; std::basic_string<char,std::char_traits<char>,std::allocator<char> >::assign
_TEXT	ENDS
PUBLIC	?_Tidy@?$vector@UD3DXVECTOR3@@V?$allocator@UD3DXVECTOR3@@@std@@@std@@IAEXXZ ; std::vector<D3DXVECTOR3,std::allocator<D3DXVECTOR3> >::_Tidy
; Function compile flags: /Ogty
; File c:\program files\microsoft visual studio .net 2003\vc7\include\vector
;	COMDAT ?_Tidy@?$vector@UD3DXVECTOR3@@V?$allocator@UD3DXVECTOR3@@@std@@@std@@IAEXXZ
_TEXT	SEGMENT
?_Tidy@?$vector@UD3DXVECTOR3@@V?$allocator@UD3DXVECTOR3@@@std@@@std@@IAEXXZ PROC NEAR ; std::vector<D3DXVECTOR3,std::allocator<D3DXVECTOR3> >::_Tidy, COMDAT
; _this$ = ecx

; 791  : 		{	// free all storage

  00000	56		 push	 esi
  00001	8b f1		 mov	 esi, ecx

; 792  : 		if (_Myfirst != 0)

  00003	8b 46 04	 mov	 eax, DWORD PTR [esi+4]
  00006	85 c0		 test	 eax, eax
  00008	74 09		 je	 SHORT $L273220

; 793  : 			{	// something to free, destroy and deallocate it
; 794  : 			_Destroy(_Myfirst, _Mylast);
; 795  : 			this->_Alval.deallocate(_Myfirst, _Myend - _Myfirst);

  0000a	50		 push	 eax
  0000b	e8 00 00 00 00	 call	 ??3@YAXPAX@Z		; operator delete
  00010	83 c4 04	 add	 esp, 4
$L273220:

; 796  : 			}
; 797  : 		_Myfirst = 0, _Mylast = 0, _Myend = 0;

  00013	c7 46 04 00 00
	00 00		 mov	 DWORD PTR [esi+4], 0
  0001a	c7 46 08 00 00
	00 00		 mov	 DWORD PTR [esi+8], 0
  00021	c7 46 0c 00 00
	00 00		 mov	 DWORD PTR [esi+12], 0
  00028	5e		 pop	 esi

; 798  : 		}

  00029	c3		 ret	 0
?_Tidy@?$vector@UD3DXVECTOR3@@V?$allocator@UD3DXVECTOR3@@@std@@@std@@IAEXXZ ENDP ; std::vector<D3DXVECTOR3,std::allocator<D3DXVECTOR3> >::_Tidy
_TEXT	ENDS
PUBLIC	?assign@?$basic_string@DU?$char_traits@D@std@@V?$allocator@D@2@@std@@QAEAAV12@PBDI@Z ; std::basic_string<char,std::char_traits<char>,std::allocator<char> >::assign
; Function compile flags: /Ogty
; File c:\program files\microsoft visual studio .net 2003\vc7\include\xstring
;	COMDAT ?assign@?$basic_string@DU?$char_traits@D@std@@V?$allocator@D@2@@std@@QAEAAV12@PBDI@Z
_TEXT	SEGMENT
__Ptr$ = 8						; size = 4
__Num$ = 12						; size = 4
?assign@?$basic_string@DU?$char_traits@D@std@@V?$allocator@D@2@@std@@QAEAAV12@PBDI@Z PROC NEAR ; std::basic_string<char,std::char_traits<char>,std::allocator<char> >::assign, COMDAT
; _this$ = ecx

; 608  : 		{	// assign [_Ptr, _Ptr + _Num)

  00000	53		 push	 ebx
  00001	8b d9		 mov	 ebx, ecx

; 609  : 		if (_Inside(_Ptr))

  00003	8b 53 18	 mov	 edx, DWORD PTR [ebx+24]
  00006	83 fa 10	 cmp	 edx, 16			; 00000010H
  00009	56		 push	 esi
  0000a	57		 push	 edi
  0000b	72 05		 jb	 SHORT $L273249
  0000d	8b 43 04	 mov	 eax, DWORD PTR [ebx+4]
  00010	eb 03		 jmp	 SHORT $L273250
$L273249:
  00012	8d 43 04	 lea	 eax, DWORD PTR [ebx+4]
$L273250:
  00015	8b 74 24 10	 mov	 esi, DWORD PTR __Ptr$[esp+8]
  00019	3b f0		 cmp	 esi, eax
  0001b	72 34		 jb	 SHORT $L221367
  0001d	83 fa 10	 cmp	 edx, 16			; 00000010H
  00020	8d 43 04	 lea	 eax, DWORD PTR [ebx+4]
  00023	72 04		 jb	 SHORT $L273253
  00025	8b 08		 mov	 ecx, DWORD PTR [eax]
  00027	eb 02		 jmp	 SHORT $L273254
$L273253:
  00029	8b c8		 mov	 ecx, eax
$L273254:
  0002b	8b 7b 14	 mov	 edi, DWORD PTR [ebx+20]
  0002e	03 f9		 add	 edi, ecx
  00030	3b fe		 cmp	 edi, esi
  00032	76 1d		 jbe	 SHORT $L221367

; 610  : 			return (assign(*this, _Ptr - _Myptr(), _Num));	// substring

  00034	83 fa 10	 cmp	 edx, 16			; 00000010H
  00037	72 02		 jb	 SHORT $L273262
  00039	8b 00		 mov	 eax, DWORD PTR [eax]
$L273262:
  0003b	8b 4c 24 14	 mov	 ecx, DWORD PTR __Num$[esp+8]
  0003f	51		 push	 ecx
  00040	2b f0		 sub	 esi, eax
  00042	56		 push	 esi
  00043	53		 push	 ebx
  00044	8b cb		 mov	 ecx, ebx
  00046	e8 00 00 00 00	 call	 ?assign@?$basic_string@DU?$char_traits@D@std@@V?$allocator@D@2@@std@@QAEAAV12@ABV12@II@Z ; std::basic_string<char,std::char_traits<char>,std::allocator<char> >::assign
  0004b	5f		 pop	 edi
  0004c	5e		 pop	 esi
  0004d	5b		 pop	 ebx

; 618  : 		}

  0004e	c2 08 00	 ret	 8
$L221367:
  00051	55		 push	 ebp

; 611  : 
; 612  : 		if (_Grow(_Num))

  00052	8b 6c 24 18	 mov	 ebp, DWORD PTR __Num$[esp+12]
  00056	83 fd fe	 cmp	 ebp, -2			; fffffffeH
  00059	76 07		 jbe	 SHORT $L273360
  0005b	8b cb		 mov	 ecx, ebx
  0005d	e8 00 00 00 00	 call	 ?_Xlen@_String_base@std@@QBEXXZ ; std::_String_base::_Xlen
$L273360:
  00062	8b 43 18	 mov	 eax, DWORD PTR [ebx+24]
  00065	3b c5		 cmp	 eax, ebp
  00067	73 1b		 jae	 SHORT $L273361
  00069	8b 53 14	 mov	 edx, DWORD PTR [ebx+20]
  0006c	52		 push	 edx
  0006d	55		 push	 ebp
  0006e	8b cb		 mov	 ecx, ebx
  00070	e8 00 00 00 00	 call	 ?_Copy@?$basic_string@DU?$char_traits@D@std@@V?$allocator@D@2@@std@@IAEXII@Z ; std::basic_string<char,std::char_traits<char>,std::allocator<char> >::_Copy
  00075	85 ed		 test	 ebp, ebp
$L273441:
  00077	76 68		 jbe	 SHORT $L273437

; 613  : 			{	// make room and assign new stuff
; 614  : 			_Traits::copy(_Myptr(), _Ptr, _Num);

  00079	83 7b 18 10	 cmp	 DWORD PTR [ebx+24], 16	; 00000010H
  0007d	72 2f		 jb	 SHORT $L273412
  0007f	8b 7b 04	 mov	 edi, DWORD PTR [ebx+4]
  00082	eb 2d		 jmp	 SHORT $L273413

; 611  : 
; 612  : 		if (_Grow(_Num))

$L273361:
  00084	85 ed		 test	 ebp, ebp
  00086	75 ef		 jne	 SHORT $L273441
  00088	83 f8 10	 cmp	 eax, 16			; 00000010H
  0008b	89 6b 14	 mov	 DWORD PTR [ebx+20], ebp
  0008e	72 0f		 jb	 SHORT $L273404
  00090	8b 43 04	 mov	 eax, DWORD PTR [ebx+4]
  00093	5d		 pop	 ebp
  00094	5f		 pop	 edi
  00095	c6 00 00	 mov	 BYTE PTR [eax], 0
  00098	5e		 pop	 esi

; 616  : 			}
; 617  : 		return (*this);

  00099	8b c3		 mov	 eax, ebx
  0009b	5b		 pop	 ebx

; 618  : 		}

  0009c	c2 08 00	 ret	 8

; 611  : 
; 612  : 		if (_Grow(_Num))

$L273404:
  0009f	5d		 pop	 ebp
  000a0	8d 43 04	 lea	 eax, DWORD PTR [ebx+4]
  000a3	5f		 pop	 edi
  000a4	c6 00 00	 mov	 BYTE PTR [eax], 0
  000a7	5e		 pop	 esi

; 616  : 			}
; 617  : 		return (*this);

  000a8	8b c3		 mov	 eax, ebx
  000aa	5b		 pop	 ebx

; 618  : 		}

  000ab	c2 08 00	 ret	 8

; 613  : 			{	// make room and assign new stuff
; 614  : 			_Traits::copy(_Myptr(), _Ptr, _Num);

$L273412:
  000ae	8d 7b 04	 lea	 edi, DWORD PTR [ebx+4]
$L273413:
  000b1	8b cd		 mov	 ecx, ebp
  000b3	8b c1		 mov	 eax, ecx
  000b5	c1 e9 02	 shr	 ecx, 2
  000b8	f3 a5		 rep movsd
  000ba	8b c8		 mov	 ecx, eax
  000bc	83 e1 03	 and	 ecx, 3
  000bf	f3 a4		 rep movsb

; 615  : 			_Eos(_Num);

  000c1	83 7b 18 10	 cmp	 DWORD PTR [ebx+24], 16	; 00000010H
  000c5	89 6b 14	 mov	 DWORD PTR [ebx+20], ebp
  000c8	72 10		 jb	 SHORT $L273434
  000ca	8b 43 04	 mov	 eax, DWORD PTR [ebx+4]
  000cd	c6 04 28 00	 mov	 BYTE PTR [eax+ebp], 0
  000d1	5d		 pop	 ebp
  000d2	5f		 pop	 edi
  000d3	5e		 pop	 esi

; 616  : 			}
; 617  : 		return (*this);

  000d4	8b c3		 mov	 eax, ebx
  000d6	5b		 pop	 ebx

; 618  : 		}

  000d7	c2 08 00	 ret	 8

; 615  : 			_Eos(_Num);

$L273434:
  000da	8d 43 04	 lea	 eax, DWORD PTR [ebx+4]
  000dd	c6 04 28 00	 mov	 BYTE PTR [eax+ebp], 0
$L273437:
  000e1	5d		 pop	 ebp
  000e2	5f		 pop	 edi
  000e3	5e		 pop	 esi

; 616  : 			}
; 617  : 		return (*this);

  000e4	8b c3		 mov	 eax, ebx
  000e6	5b		 pop	 ebx

; 618  : 		}

  000e7	c2 08 00	 ret	 8
?assign@?$basic_string@DU?$char_traits@D@std@@V?$allocator@D@2@@std@@QAEAAV12@PBDI@Z ENDP ; std::basic_string<char,std::char_traits<char>,std::allocator<char> >::assign
_TEXT	ENDS
PUBLIC	??0WORLD_ENVIR_INFO@@QAE@XZ			; WORLD_ENVIR_INFO::WORLD_ENVIR_INFO
EXTRN	??_L@YGXPAXIHP6EX0@Z1@Z:NEAR			; `eh vector constructor iterator'
EXTRN	??_M@YGXPAXIHP6EX0@Z@Z:NEAR			; `eh vector destructor iterator'
;	COMDAT xdata$x
xdata$x	SEGMENT
$T273708 DD	0ffffffffH
	DD	FLAT:$L273445
$T273706 DD	019930520H
	DD	01H
	DD	FLAT:$T273708
	DD	2 DUP(00H)
	DD	2 DUP(00H)
; Function compile flags: /Ogty
xdata$x	ENDS
;	COMDAT ??0WORLD_ENVIR_INFO@@QAE@XZ
_TEXT	SEGMENT
_this$ = -16						; size = 4
__$EHRec$ = -12						; size = 12
??0WORLD_ENVIR_INFO@@QAE@XZ PROC NEAR			; WORLD_ENVIR_INFO::WORLD_ENVIR_INFO, COMDAT
; _this$ = ecx
  00000	6a ff		 push	 -1
  00002	68 00 00 00 00	 push	 __ehhandler$??0WORLD_ENVIR_INFO@@QAE@XZ
  00007	64 a1 00 00 00
	00		 mov	 eax, DWORD PTR fs:__except_list
  0000d	50		 push	 eax
  0000e	64 89 25 00 00
	00 00		 mov	 DWORD PTR fs:__except_list, esp
  00015	51		 push	 ecx
  00016	53		 push	 ebx
  00017	56		 push	 esi
  00018	68 00 00 00 00	 push	 OFFSET FLAT:??1TextureSet@@QAE@XZ ; TextureSet::~TextureSet
  0001d	68 00 00 00 00	 push	 OFFSET FLAT:??0TextureSet@@QAE@XZ ; TextureSet::TextureSet
  00022	6a 03		 push	 3
  00024	8b f1		 mov	 esi, ecx
  00026	6a 24		 push	 36			; 00000024H
  00028	56		 push	 esi
  00029	89 74 24 1c	 mov	 DWORD PTR _this$[esp+44], esi
  0002d	e8 00 00 00 00	 call	 ??_L@YGXPAXIHP6EX0@Z1@Z
  00032	68 00 00 00 00	 push	 OFFSET FLAT:??1TextureSet@@QAE@XZ ; TextureSet::~TextureSet
  00037	68 00 00 00 00	 push	 OFFSET FLAT:??0TextureSet@@QAE@XZ ; TextureSet::TextureSet
  0003c	6a 03		 push	 3
  0003e	6a 24		 push	 36			; 00000024H
  00040	8d 46 6c	 lea	 eax, DWORD PTR [esi+108]
  00043	33 db		 xor	 ebx, ebx
  00045	50		 push	 eax
  00046	89 5c 24 28	 mov	 DWORD PTR __$EHRec$[esp+52], ebx
  0004a	e8 00 00 00 00	 call	 ??_L@YGXPAXIHP6EX0@Z1@Z
  0004f	8b 4c 24 0c	 mov	 ecx, DWORD PTR __$EHRec$[esp+24]
  00053	89 9e f0 00 00
	00		 mov	 DWORD PTR [esi+240], ebx
  00059	b8 0f 00 00 00	 mov	 eax, 15			; 0000000fH
  0005e	89 86 f4 00 00
	00		 mov	 DWORD PTR [esi+244], eax
  00064	88 9e e0 00 00
	00		 mov	 BYTE PTR [esi+224], bl
  0006a	89 9e d8 00 00
	00		 mov	 DWORD PTR [esi+216], ebx
  00070	89 9e f8 00 00
	00		 mov	 DWORD PTR [esi+248], ebx
  00076	89 86 18 01 00
	00		 mov	 DWORD PTR [esi+280], eax
  0007c	89 9e 14 01 00
	00		 mov	 DWORD PTR [esi+276], ebx
  00082	88 9e 04 01 00
	00		 mov	 BYTE PTR [esi+260], bl
  00088	89 9e fc 00 00
	00		 mov	 DWORD PTR [esi+252], ebx
  0008e	89 9e 1c 01 00
	00		 mov	 DWORD PTR [esi+284], ebx
  00094	8b c6		 mov	 eax, esi
  00096	5e		 pop	 esi
  00097	5b		 pop	 ebx
  00098	64 89 0d 00 00
	00 00		 mov	 DWORD PTR fs:__except_list, ecx
  0009f	83 c4 10	 add	 esp, 16			; 00000010H
  000a2	c3		 ret	 0
_TEXT	ENDS
;	COMDAT text$x
text$x	SEGMENT
$L273445:
  00000	68 00 00 00 00	 push	 OFFSET FLAT:??1TextureSet@@QAE@XZ ; TextureSet::~TextureSet
  00005	6a 03		 push	 3
  00007	6a 24		 push	 36			; 00000024H
  00009	8b 45 f0	 mov	 eax, DWORD PTR _this$[ebp]
  0000c	50		 push	 eax
  0000d	e8 00 00 00 00	 call	 ??_M@YGXPAXIHP6EX0@Z@Z
  00012	c3		 ret	 0
__ehhandler$??0WORLD_ENVIR_INFO@@QAE@XZ:
  00013	b8 00 00 00 00	 mov	 eax, OFFSET FLAT:$T273706
  00018	e9 00 00 00 00	 jmp	 ___CxxFrameHandler
text$x	ENDS
??0WORLD_ENVIR_INFO@@QAE@XZ ENDP			; WORLD_ENVIR_INFO::WORLD_ENVIR_INFO
PUBLIC	??1WORLD_ENVIR_INFO@@QAE@XZ			; WORLD_ENVIR_INFO::~WORLD_ENVIR_INFO
;	COMDAT xdata$x
xdata$x	SEGMENT
$T273921 DD	0ffffffffH
	DD	FLAT:$L273714
$T273919 DD	019930520H
	DD	01H
	DD	FLAT:$T273921
	DD	2 DUP(00H)
	DD	2 DUP(00H)
; Function compile flags: /Ogty
xdata$x	ENDS
;	COMDAT ??1WORLD_ENVIR_INFO@@QAE@XZ
_TEXT	SEGMENT
_this$ = -16						; size = 4
__$EHRec$ = -12						; size = 12
??1WORLD_ENVIR_INFO@@QAE@XZ PROC NEAR			; WORLD_ENVIR_INFO::~WORLD_ENVIR_INFO, COMDAT
; _this$ = ecx
  00000	6a ff		 push	 -1
  00002	68 00 00 00 00	 push	 __ehhandler$??1WORLD_ENVIR_INFO@@QAE@XZ
  00007	64 a1 00 00 00
	00		 mov	 eax, DWORD PTR fs:__except_list
  0000d	50		 push	 eax
  0000e	64 89 25 00 00
	00 00		 mov	 DWORD PTR fs:__except_list, esp
  00015	51		 push	 ecx
  00016	53		 push	 ebx
  00017	56		 push	 esi
  00018	8b f1		 mov	 esi, ecx
  0001a	89 74 24 08	 mov	 DWORD PTR _this$[esp+24], esi
  0001e	33 db		 xor	 ebx, ebx
  00020	89 9e 1c 01 00
	00		 mov	 DWORD PTR [esi+284], ebx
  00026	83 be 18 01 00
	00 10		 cmp	 DWORD PTR [esi+280], 16	; 00000010H
  0002d	89 5c 24 14	 mov	 DWORD PTR __$EHRec$[esp+32], ebx
  00031	72 0f		 jb	 SHORT $L273798
  00033	8b 86 04 01 00
	00		 mov	 eax, DWORD PTR [esi+260]
  00039	50		 push	 eax
  0003a	e8 00 00 00 00	 call	 ??3@YAXPAX@Z		; operator delete
  0003f	83 c4 04	 add	 esp, 4
$L273798:
  00042	c7 86 18 01 00
	00 0f 00 00 00	 mov	 DWORD PTR [esi+280], 15	; 0000000fH
  0004c	89 9e 14 01 00
	00		 mov	 DWORD PTR [esi+276], ebx
  00052	88 9e 04 01 00
	00		 mov	 BYTE PTR [esi+260], bl
  00058	89 9e f8 00 00
	00		 mov	 DWORD PTR [esi+248], ebx
  0005e	83 be f4 00 00
	00 10		 cmp	 DWORD PTR [esi+244], 16	; 00000010H
  00065	72 0f		 jb	 SHORT $L273899
  00067	8b 86 e0 00 00
	00		 mov	 eax, DWORD PTR [esi+224]
  0006d	50		 push	 eax
  0006e	e8 00 00 00 00	 call	 ??3@YAXPAX@Z		; operator delete
  00073	83 c4 04	 add	 esp, 4
$L273899:
  00076	68 00 00 00 00	 push	 OFFSET FLAT:??1TextureSet@@QAE@XZ ; TextureSet::~TextureSet
  0007b	6a 03		 push	 3
  0007d	6a 24		 push	 36			; 00000024H
  0007f	8d 46 6c	 lea	 eax, DWORD PTR [esi+108]
  00082	c7 86 f4 00 00
	00 0f 00 00 00	 mov	 DWORD PTR [esi+244], 15	; 0000000fH
  0008c	89 9e f0 00 00
	00		 mov	 DWORD PTR [esi+240], ebx
  00092	50		 push	 eax
  00093	88 9e e0 00 00
	00		 mov	 BYTE PTR [esi+224], bl
  00099	e8 00 00 00 00	 call	 ??_M@YGXPAXIHP6EX0@Z@Z
  0009e	68 00 00 00 00	 push	 OFFSET FLAT:??1TextureSet@@QAE@XZ ; TextureSet::~TextureSet
  000a3	6a 03		 push	 3
  000a5	6a 24		 push	 36			; 00000024H
  000a7	56		 push	 esi
  000a8	c7 44 24 24 ff
	ff ff ff	 mov	 DWORD PTR __$EHRec$[esp+48], -1
  000b0	e8 00 00 00 00	 call	 ??_M@YGXPAXIHP6EX0@Z@Z
  000b5	8b 4c 24 0c	 mov	 ecx, DWORD PTR __$EHRec$[esp+24]
  000b9	5e		 pop	 esi
  000ba	5b		 pop	 ebx
  000bb	64 89 0d 00 00
	00 00		 mov	 DWORD PTR fs:__except_list, ecx
  000c2	83 c4 10	 add	 esp, 16			; 00000010H
  000c5	c3		 ret	 0
_TEXT	ENDS
;	COMDAT text$x
text$x	SEGMENT
$L273714:
  00000	68 00 00 00 00	 push	 OFFSET FLAT:??1TextureSet@@QAE@XZ ; TextureSet::~TextureSet
  00005	6a 03		 push	 3
  00007	6a 24		 push	 36			; 00000024H
  00009	8b 45 f0	 mov	 eax, DWORD PTR _this$[ebp]
  0000c	50		 push	 eax
  0000d	e8 00 00 00 00	 call	 ??_M@YGXPAXIHP6EX0@Z@Z
  00012	c3		 ret	 0
__ehhandler$??1WORLD_ENVIR_INFO@@QAE@XZ:
  00013	b8 00 00 00 00	 mov	 eax, OFFSET FLAT:$T273919
  00018	e9 00 00 00 00	 jmp	 ___CxxFrameHandler
text$x	ENDS
??1WORLD_ENVIR_INFO@@QAE@XZ ENDP			; WORLD_ENVIR_INFO::~WORLD_ENVIR_INFO
PUBLIC	?Free@CWorld@@QAEXXZ				; CWorld::Free
EXTRN	?Release@CLayeredLinkMap@@QAEXXZ:NEAR		; CLayeredLinkMap::Release
; Function compile flags: /Ogty
; File c:\documents and settings\test\mes documents\source\virtuos_v17\build\program\_common\world.cpp
;	COMDAT ?Free@CWorld@@QAEXXZ
_TEXT	SEGMENT
?Free@CWorld@@QAEXXZ PROC NEAR				; CWorld::Free, COMDAT
; _this$ = ecx

; 174  : {

  00000	53		 push	 ebx
  00001	55		 push	 ebp
  00002	56		 push	 esi
  00003	8b f1		 mov	 esi, ecx

; 175  : #ifdef __WORLDSERVER
; 176  : 	CObj* pObjtmp;
; 177  : 	for( DWORD i = 0; i < m_dwObjNum; i++ )

  00005	8b 46 44	 mov	 eax, DWORD PTR [esi+68]
  00008	57		 push	 edi
  00009	33 ff		 xor	 edi, edi
  0000b	85 c0		 test	 eax, eax
  0000d	76 1a		 jbe	 SHORT $L262446
  0000f	8d 5e 48	 lea	 ebx, DWORD PTR [esi+72]
$L274134:

; 178  : 	{
; 179  : 		pObjtmp		= m_apObject[i];

  00012	8b 0b		 mov	 ecx, DWORD PTR [ebx]

; 180  : 		SAFE_DELETE( pObjtmp );

  00014	85 c9		 test	 ecx, ecx
  00016	74 06		 je	 SHORT $L262445
  00018	8b 01		 mov	 eax, DWORD PTR [ecx]
  0001a	6a 01		 push	 1
  0001c	ff 10		 call	 DWORD PTR [eax]
$L262445:
  0001e	8b 46 44	 mov	 eax, DWORD PTR [esi+68]
  00021	47		 inc	 edi
  00022	83 c3 04	 add	 ebx, 4
  00025	3b f8		 cmp	 edi, eax
  00027	72 e9		 jb	 SHORT $L274134
$L262446:

; 181  : 	}
; 182  : 	
; 183  : 	int nBk = m_vecBackground.size();

  00029	8b 86 4c 00 05
	00		 mov	 eax, DWORD PTR [esi+327756]
  0002f	85 c0		 test	 eax, eax
  00031	75 04		 jne	 SHORT $L273942
  00033	33 ed		 xor	 ebp, ebp
  00035	eb 0b		 jmp	 SHORT $L273943
$L273942:
  00037	8b ae 50 00 05
	00		 mov	 ebp, DWORD PTR [esi+327760]
  0003d	2b e8		 sub	 ebp, eax
  0003f	c1 fd 02	 sar	 ebp, 2
$L273943:

; 184  : 	for( int i = 0; i < nBk; ++i )

  00042	33 db		 xor	 ebx, ebx
  00044	85 ed		 test	 ebp, ebp
  00046	7e 3d		 jle	 SHORT $L262455
  00048	eb 06 8d 9b 00
	00 00 00	 npad	 8
$L262453:
  00050	8b 8e 4c 00 05
	00		 mov	 ecx, DWORD PTR [esi+327756]
  00056	8d 3c 9d 00 00
	00 00		 lea	 edi, DWORD PTR [ebx*4]
  0005d	8d 04 39	 lea	 eax, DWORD PTR [ecx+edi]

; 185  : 		SAFE_DELETE( m_vecBackground[i] );

  00060	8b 08		 mov	 ecx, DWORD PTR [eax]
  00062	85 c9		 test	 ecx, ecx
  00064	74 1a		 je	 SHORT $L262454
  00066	8b c1		 mov	 eax, ecx
  00068	85 c0		 test	 eax, eax
  0006a	74 06		 je	 SHORT $L273933
  0006c	8b 10		 mov	 edx, DWORD PTR [eax]
  0006e	6a 01		 push	 1
  00070	ff 12		 call	 DWORD PTR [edx]
$L273933:
  00072	8b 86 4c 00 05
	00		 mov	 eax, DWORD PTR [esi+327756]
  00078	03 c7		 add	 eax, edi
  0007a	c7 00 00 00 00
	00		 mov	 DWORD PTR [eax], 0
$L262454:
  00080	43		 inc	 ebx
  00081	3b dd		 cmp	 ebx, ebp
  00083	7c cb		 jl	 SHORT $L262453
$L262455:

; 186  : 	m_vecBackground.clear();

  00085	8b 86 4c 00 05
	00		 mov	 eax, DWORD PTR [esi+327756]
  0008b	85 c0		 test	 eax, eax
  0008d	74 09		 je	 SHORT $L274127
  0008f	50		 push	 eax
  00090	e8 00 00 00 00	 call	 ??3@YAXPAX@Z		; operator delete
  00095	83 c4 04	 add	 esp, 4
$L274127:
  00098	33 c0		 xor	 eax, eax

; 187  : 	
; 188  : 	m_linkMap.Release();

  0009a	8d 4e 24	 lea	 ecx, DWORD PTR [esi+36]
  0009d	89 86 4c 00 05
	00		 mov	 DWORD PTR [esi+327756], eax
  000a3	89 86 50 00 05
	00		 mov	 DWORD PTR [esi+327760], eax
  000a9	89 86 54 00 05
	00		 mov	 DWORD PTR [esi+327764], eax
  000af	e8 00 00 00 00	 call	 ?Release@CLayeredLinkMap@@QAEXXZ ; CLayeredLinkMap::Release

; 189  : 	SAFE_DELETE_ARRAY( m_apHeightMap );

  000b4	8b 46 1c	 mov	 eax, DWORD PTR [esi+28]
  000b7	33 ff		 xor	 edi, edi
  000b9	3b c7		 cmp	 eax, edi
  000bb	74 0c		 je	 SHORT $L262460
  000bd	50		 push	 eax
  000be	e8 00 00 00 00	 call	 ??_V@YAXPAX@Z		; operator delete[]
  000c3	83 c4 04	 add	 esp, 4
  000c6	89 7e 1c	 mov	 DWORD PTR [esi+28], edi
$L262460:

; 190  : 	SAFE_DELETE_ARRAY( m_apWaterHeight );

  000c9	8b 46 20	 mov	 eax, DWORD PTR [esi+32]
  000cc	3b c7		 cmp	 eax, edi
  000ce	74 0c		 je	 SHORT $L262463
  000d0	50		 push	 eax
  000d1	e8 00 00 00 00	 call	 ??_V@YAXPAX@Z		; operator delete[]
  000d6	83 c4 04	 add	 esp, 4
  000d9	89 7e 20	 mov	 DWORD PTR [esi+32], edi
$L262463:
  000dc	5f		 pop	 edi
  000dd	5e		 pop	 esi
  000de	5d		 pop	 ebp
  000df	5b		 pop	 ebx

; 191  : 
; 192  : //	CCtrlRegion* pCtrlRegion;
; 193  : //	while( !m_lspCtrlRegion.empty() )
; 194  : //	{
; 195  : //		pCtrlRegion	= m_lspCtrlRegion.front();
; 196  : //		m_lspCtrlRegion.pop_front();
; 197  : //		SAFE_DELETE( pCtrlRegion );
; 198  : //	}
; 199  : #else	// __WORLDSERVER
; 200  : 	// Light  
; 201  : 	POSITION pos 
; 202  : 		= m_mapLight.GetStartPosition();
; 203  : 	CLight* pLight;
; 204  : 	CString string;
; 205  : 	while( pos )
; 206  : 	{
; 207  : 		m_mapLight.GetNextAssoc( pos, string, (void*&)pLight );
; 208  : 		SAFE_DELETE( pLight );
; 209  : 	}
; 210  : 	m_mapLight.RemoveAll();
; 211  : 	if( m_apLand != NULL )
; 212  : 	{
; 213  : 		for( int i = 0; i < m_nLandWidth * m_nLandHeight; i++)
; 214  : 			SAFE_DELETE( m_apLand[ i ] );
; 215  : 		SAFE_DELETE_ARRAY( m_apLand );
; 216  : 	}
; 217  : 
; 218  : 	m_pObjFocus	= NULL;
; 219  : 	m_nDeleteObjs	= 0;
; 220  : 
; 221  : #if __VER >= 15 // __BS_CHANGING_ENVIR
; 222  : 	m_strCurContName = "";
; 223  : #endif 	
; 224  : 
; 225  : #ifdef __BS_EFFECT_LUA
; 226  : 	CSfxModelMng::Free( );
; 227  : #endif	//__BS_EFFECT_LUA
; 228  : 
; 229  : #endif	// __WORLDSERVER
; 230  : }

  000e0	c3		 ret	 0
?Free@CWorld@@QAEXXZ ENDP				; CWorld::Free
_TEXT	ENDS
PUBLIC	??0?$basic_string@DU?$char_traits@D@std@@V?$allocator@D@2@@std@@QAE@ABV01@@Z ; std::basic_string<char,std::char_traits<char>,std::allocator<char> >::basic_string<char,std::char_traits<char>,std::allocator<char> >
; Function compile flags: /Ogty
; File c:\program files\microsoft visual studio .net 2003\vc7\include\xstring
;	COMDAT ??0?$basic_string@DU?$char_traits@D@std@@V?$allocator@D@2@@std@@QAE@ABV01@@Z
_TEXT	SEGMENT
__Right$ = 8						; size = 4
??0?$basic_string@DU?$char_traits@D@std@@V?$allocator@D@2@@std@@QAE@ABV01@@Z PROC NEAR ; std::basic_string<char,std::char_traits<char>,std::allocator<char> >::basic_string<char,std::char_traits<char>,std::allocator<char> >, COMDAT
; _this$ = ecx

; 323  : 		{	// construct by copying _Right

  00000	56		 push	 esi

; 324  : 		_Tidy();

  00001	33 c0		 xor	 eax, eax
  00003	8b f1		 mov	 esi, ecx

; 325  : 		assign(_Right, 0, npos);

  00005	6a ff		 push	 -1
  00007	89 46 14	 mov	 DWORD PTR [esi+20], eax
  0000a	c7 46 18 0f 00
	00 00		 mov	 DWORD PTR [esi+24], 15	; 0000000fH
  00011	50		 push	 eax
  00012	88 46 04	 mov	 BYTE PTR [esi+4], al
  00015	8b 44 24 10	 mov	 eax, DWORD PTR __Right$[esp+8]
  00019	50		 push	 eax
  0001a	e8 00 00 00 00	 call	 ?assign@?$basic_string@DU?$char_traits@D@std@@V?$allocator@D@2@@std@@QAEAAV12@ABV12@II@Z ; std::basic_string<char,std::char_traits<char>,std::allocator<char> >::assign

; 326  : 		}

  0001f	8b c6		 mov	 eax, esi
  00021	5e		 pop	 esi
  00022	c2 04 00	 ret	 4
??0?$basic_string@DU?$char_traits@D@std@@V?$allocator@D@2@@std@@QAE@ABV01@@Z ENDP ; std::basic_string<char,std::char_traits<char>,std::allocator<char> >::basic_string<char,std::char_traits<char>,std::allocator<char> >
_TEXT	ENDS
PUBLIC	??1?$vector@UD3DXVECTOR3@@V?$allocator@UD3DXVECTOR3@@@std@@@std@@QAE@XZ ; std::vector<D3DXVECTOR3,std::allocator<D3DXVECTOR3> >::~vector<D3DXVECTOR3,std::allocator<D3DXVECTOR3> >
; Function compile flags: /Ogty
; File c:\program files\microsoft visual studio .net 2003\vc7\include\vector
;	COMDAT ??1?$vector@UD3DXVECTOR3@@V?$allocator@UD3DXVECTOR3@@@std@@@std@@QAE@XZ
_TEXT	SEGMENT
??1?$vector@UD3DXVECTOR3@@V?$allocator@UD3DXVECTOR3@@@std@@@std@@QAE@XZ PROC NEAR ; std::vector<D3DXVECTOR3,std::allocator<D3DXVECTOR3> >::~vector<D3DXVECTOR3,std::allocator<D3DXVECTOR3> >, COMDAT
; _this$ = ecx

; 387  : 		{	// destroy the object

  00000	56		 push	 esi
  00001	8b f1		 mov	 esi, ecx

; 388  : 		_Tidy();

  00003	8b 46 04	 mov	 eax, DWORD PTR [esi+4]
  00006	85 c0		 test	 eax, eax
  00008	74 09		 je	 SHORT $L274214
  0000a	50		 push	 eax
  0000b	e8 00 00 00 00	 call	 ??3@YAXPAX@Z		; operator delete
  00010	83 c4 04	 add	 esp, 4
$L274214:
  00013	c7 46 04 00 00
	00 00		 mov	 DWORD PTR [esi+4], 0
  0001a	c7 46 08 00 00
	00 00		 mov	 DWORD PTR [esi+8], 0
  00021	c7 46 0c 00 00
	00 00		 mov	 DWORD PTR [esi+12], 0
  00028	5e		 pop	 esi

; 389  : 		}

  00029	c3		 ret	 0
??1?$vector@UD3DXVECTOR3@@V?$allocator@UD3DXVECTOR3@@@std@@@std@@QAE@XZ ENDP ; std::vector<D3DXVECTOR3,std::allocator<D3DXVECTOR3> >::~vector<D3DXVECTOR3,std::allocator<D3DXVECTOR3> >
_TEXT	ENDS
PUBLIC	?assign@?$basic_string@DU?$char_traits@D@std@@V?$allocator@D@2@@std@@QAEAAV12@PBD@Z ; std::basic_string<char,std::char_traits<char>,std::allocator<char> >::assign
; Function compile flags: /Ogty
; File c:\program files\microsoft visual studio .net 2003\vc7\include\xstring
;	COMDAT ?assign@?$basic_string@DU?$char_traits@D@std@@V?$allocator@D@2@@std@@QAEAAV12@PBD@Z
_TEXT	SEGMENT
__Ptr$ = 8						; size = 4
?assign@?$basic_string@DU?$char_traits@D@std@@V?$allocator@D@2@@std@@QAEAAV12@PBD@Z PROC NEAR ; std::basic_string<char,std::char_traits<char>,std::allocator<char> >::assign, COMDAT
; _this$ = ecx

; 621  : 		{	// assign [_Ptr, <null>)

  00000	56		 push	 esi

; 622  : 		return (assign(_Ptr, _Traits::length(_Ptr)));

  00001	8b 74 24 08	 mov	 esi, DWORD PTR __Ptr$[esp]
  00005	8b c6		 mov	 eax, esi
  00007	57		 push	 edi
  00008	8d 78 01	 lea	 edi, DWORD PTR [eax+1]
  0000b	eb 03 8d 49 00	 npad	 5
$L274222:
  00010	8a 10		 mov	 dl, BYTE PTR [eax]
  00012	40		 inc	 eax
  00013	84 d2		 test	 dl, dl
  00015	75 f9		 jne	 SHORT $L274222
  00017	2b c7		 sub	 eax, edi
  00019	50		 push	 eax
  0001a	56		 push	 esi
  0001b	e8 00 00 00 00	 call	 ?assign@?$basic_string@DU?$char_traits@D@std@@V?$allocator@D@2@@std@@QAEAAV12@PBDI@Z ; std::basic_string<char,std::char_traits<char>,std::allocator<char> >::assign
  00020	5f		 pop	 edi
  00021	5e		 pop	 esi

; 623  : 		}

  00022	c2 04 00	 ret	 4
?assign@?$basic_string@DU?$char_traits@D@std@@V?$allocator@D@2@@std@@QAEAAV12@PBD@Z ENDP ; std::basic_string<char,std::char_traits<char>,std::allocator<char> >::assign
_TEXT	ENDS
PUBLIC	??1ENVIR_INFO@@QAE@XZ				; ENVIR_INFO::~ENVIR_INFO
; Function compile flags: /Ogty
;	COMDAT ??1ENVIR_INFO@@QAE@XZ
_TEXT	SEGMENT
??1ENVIR_INFO@@QAE@XZ PROC NEAR				; ENVIR_INFO::~ENVIR_INFO, COMDAT
; _this$ = ecx
  00000	53		 push	 ebx
  00001	56		 push	 esi
  00002	8b f1		 mov	 esi, ecx
  00004	8b 86 e0 00 00
	00		 mov	 eax, DWORD PTR [esi+224]
  0000a	33 db		 xor	 ebx, ebx
  0000c	3b c3		 cmp	 eax, ebx
  0000e	57		 push	 edi
  0000f	74 09		 je	 SHORT $L274249
  00011	50		 push	 eax
  00012	e8 00 00 00 00	 call	 ??3@YAXPAX@Z		; operator delete
  00017	83 c4 04	 add	 esp, 4
$L274249:
  0001a	89 9e e0 00 00
	00		 mov	 DWORD PTR [esi+224], ebx
  00020	89 9e e4 00 00
	00		 mov	 DWORD PTR [esi+228], ebx
  00026	89 9e e8 00 00
	00		 mov	 DWORD PTR [esi+232], ebx
  0002c	55		 push	 ebp
  0002d	89 9e d8 00 00
	00		 mov	 DWORD PTR [esi+216], ebx
  00033	8b 86 d4 00 00
	00		 mov	 eax, DWORD PTR [esi+212]
  00039	bd 10 00 00 00	 mov	 ebp, 16			; 00000010H
  0003e	3b c5		 cmp	 eax, ebp
  00040	72 0f		 jb	 SHORT $L274334
  00042	8b 86 c0 00 00
	00		 mov	 eax, DWORD PTR [esi+192]
  00048	50		 push	 eax
  00049	e8 00 00 00 00	 call	 ??3@YAXPAX@Z		; operator delete
  0004e	83 c4 04	 add	 esp, 4
$L274334:
  00051	bf 0f 00 00 00	 mov	 edi, 15			; 0000000fH
  00056	89 be d4 00 00
	00		 mov	 DWORD PTR [esi+212], edi
  0005c	89 9e d0 00 00
	00		 mov	 DWORD PTR [esi+208], ebx
  00062	88 9e c0 00 00
	00		 mov	 BYTE PTR [esi+192], bl
  00068	89 9e b4 00 00
	00		 mov	 DWORD PTR [esi+180], ebx
  0006e	39 ae b0 00 00
	00		 cmp	 DWORD PTR [esi+176], ebp
  00074	72 0f		 jb	 SHORT $L274434
  00076	8b 8e 9c 00 00
	00		 mov	 ecx, DWORD PTR [esi+156]
  0007c	51		 push	 ecx
  0007d	e8 00 00 00 00	 call	 ??3@YAXPAX@Z		; operator delete
  00082	83 c4 04	 add	 esp, 4
$L274434:
  00085	89 be b0 00 00
	00		 mov	 DWORD PTR [esi+176], edi
  0008b	89 9e ac 00 00
	00		 mov	 DWORD PTR [esi+172], ebx
  00091	88 9e 9c 00 00
	00		 mov	 BYTE PTR [esi+156], bl
  00097	89 9e 90 00 00
	00		 mov	 DWORD PTR [esi+144], ebx
  0009d	39 ae 8c 00 00
	00		 cmp	 DWORD PTR [esi+140], ebp
  000a3	72 0c		 jb	 SHORT $L274533
  000a5	8b 56 78	 mov	 edx, DWORD PTR [esi+120]
  000a8	52		 push	 edx
  000a9	e8 00 00 00 00	 call	 ??3@YAXPAX@Z		; operator delete
  000ae	83 c4 04	 add	 esp, 4
$L274533:
  000b1	89 be 8c 00 00
	00		 mov	 DWORD PTR [esi+140], edi
  000b7	89 9e 88 00 00
	00		 mov	 DWORD PTR [esi+136], ebx
  000bd	88 5e 78	 mov	 BYTE PTR [esi+120], bl
  000c0	89 5e 6c	 mov	 DWORD PTR [esi+108], ebx
  000c3	39 6e 68	 cmp	 DWORD PTR [esi+104], ebp
  000c6	72 0c		 jb	 SHORT $L274633
  000c8	8b 46 54	 mov	 eax, DWORD PTR [esi+84]
  000cb	50		 push	 eax
  000cc	e8 00 00 00 00	 call	 ??3@YAXPAX@Z		; operator delete
  000d1	83 c4 04	 add	 esp, 4
$L274633:
  000d4	89 7e 68	 mov	 DWORD PTR [esi+104], edi
  000d7	89 5e 64	 mov	 DWORD PTR [esi+100], ebx
  000da	88 5e 54	 mov	 BYTE PTR [esi+84], bl
  000dd	39 6e 1c	 cmp	 DWORD PTR [esi+28], ebp
  000e0	5d		 pop	 ebp
  000e1	72 0c		 jb	 SHORT $L274707
  000e3	8b 4e 08	 mov	 ecx, DWORD PTR [esi+8]
  000e6	51		 push	 ecx
  000e7	e8 00 00 00 00	 call	 ??3@YAXPAX@Z		; operator delete
  000ec	83 c4 04	 add	 esp, 4
$L274707:
  000ef	89 7e 1c	 mov	 DWORD PTR [esi+28], edi
  000f2	89 5e 18	 mov	 DWORD PTR [esi+24], ebx
  000f5	5f		 pop	 edi
  000f6	88 5e 08	 mov	 BYTE PTR [esi+8], bl
  000f9	5e		 pop	 esi
  000fa	5b		 pop	 ebx
  000fb	c3		 ret	 0
??1ENVIR_INFO@@QAE@XZ ENDP				; ENVIR_INFO::~ENVIR_INFO
_TEXT	ENDS
PUBLIC	??_GENVIR_INFO@@QAEPAXI@Z			; ENVIR_INFO::`scalar deleting destructor'
; Function compile flags: /Ogty
;	COMDAT ??_GENVIR_INFO@@QAEPAXI@Z
_TEXT	SEGMENT
___flags$ = 8						; size = 4
??_GENVIR_INFO@@QAEPAXI@Z PROC NEAR			; ENVIR_INFO::`scalar deleting destructor', COMDAT
; _this$ = ecx
  00000	56		 push	 esi
  00001	8b f1		 mov	 esi, ecx
  00003	e8 00 00 00 00	 call	 ??1ENVIR_INFO@@QAE@XZ
  00008	f6 44 24 08 01	 test	 BYTE PTR ___flags$[esp], 1
  0000d	74 09		 je	 SHORT $L274729
  0000f	56		 push	 esi
  00010	e8 00 00 00 00	 call	 ??3@YAXPAX@Z		; operator delete
  00015	83 c4 04	 add	 esp, 4
$L274729:
  00018	8b c6		 mov	 eax, esi
  0001a	5e		 pop	 esi
  0001b	c2 04 00	 ret	 4
??_GENVIR_INFO@@QAEPAXI@Z ENDP				; ENVIR_INFO::`scalar deleting destructor'
_TEXT	ENDS
PUBLIC	??0logic_error@std@@QAE@ABV?$basic_string@DU?$char_traits@D@std@@V?$allocator@D@2@@1@@Z ; std::logic_error::logic_error
EXTRN	??0exception@@QAE@XZ:NEAR			; exception::exception
;	COMDAT xdata$x
; File c:\program files\microsoft visual studio .net 2003\vc7\include\iosfwd
xdata$x	SEGMENT
$T274833 DD	0ffffffffH
	DD	FLAT:$L274733
$T274831 DD	019930520H
	DD	01H
	DD	FLAT:$T274833
	DD	2 DUP(00H)
	DD	2 DUP(00H)
; Function compile flags: /Ogty
; File c:\program files\microsoft visual studio .net 2003\vc7\include\stdexcept
xdata$x	ENDS
;	COMDAT ??0logic_error@std@@QAE@ABV?$basic_string@DU?$char_traits@D@std@@V?$allocator@D@2@@1@@Z
_TEXT	SEGMENT
_this$ = -16						; size = 4
__$EHRec$ = -12						; size = 12
__Message$ = 8						; size = 4
??0logic_error@std@@QAE@ABV?$basic_string@DU?$char_traits@D@std@@V?$allocator@D@2@@1@@Z PROC NEAR ; std::logic_error::logic_error, COMDAT
; _this$ = ecx

; 19   : 		{	// construct from message string

  00000	6a ff		 push	 -1
  00002	68 00 00 00 00	 push	 __ehhandler$??0logic_error@std@@QAE@ABV?$basic_string@DU?$char_traits@D@std@@V?$allocator@D@2@@1@@Z
  00007	64 a1 00 00 00
	00		 mov	 eax, DWORD PTR fs:__except_list
  0000d	50		 push	 eax
  0000e	64 89 25 00 00
	00 00		 mov	 DWORD PTR fs:__except_list, esp
  00015	51		 push	 ecx
  00016	56		 push	 esi
  00017	8b f1		 mov	 esi, ecx
  00019	89 74 24 04	 mov	 DWORD PTR _this$[esp+20], esi
  0001d	e8 00 00 00 00	 call	 ??0exception@@QAE@XZ	; exception::exception
  00022	33 c0		 xor	 eax, eax
  00024	8d 4e 0c	 lea	 ecx, DWORD PTR [esi+12]
  00027	c7 06 00 00 00
	00		 mov	 DWORD PTR [esi], OFFSET FLAT:??_7logic_error@std@@6B@
  0002d	6a ff		 push	 -1
  0002f	89 41 14	 mov	 DWORD PTR [ecx+20], eax
  00032	c7 41 18 0f 00
	00 00		 mov	 DWORD PTR [ecx+24], 15	; 0000000fH
  00039	50		 push	 eax
  0003a	89 44 24 18	 mov	 DWORD PTR __$EHRec$[esp+36], eax
  0003e	88 41 04	 mov	 BYTE PTR [ecx+4], al
  00041	8b 44 24 20	 mov	 eax, DWORD PTR __Message$[esp+24]
  00045	50		 push	 eax
  00046	e8 00 00 00 00	 call	 ?assign@?$basic_string@DU?$char_traits@D@std@@V?$allocator@D@2@@std@@QAEAAV12@ABV12@II@Z ; std::basic_string<char,std::char_traits<char>,std::allocator<char> >::assign

; 20   : 		}

  0004b	8b 4c 24 08	 mov	 ecx, DWORD PTR __$EHRec$[esp+20]
  0004f	8b c6		 mov	 eax, esi
  00051	5e		 pop	 esi
  00052	64 89 0d 00 00
	00 00		 mov	 DWORD PTR fs:__except_list, ecx
  00059	83 c4 10	 add	 esp, 16			; 00000010H
  0005c	c2 04 00	 ret	 4
_TEXT	ENDS
;	COMDAT text$x
text$x	SEGMENT
$L274733:
  00000	8b 4d f0	 mov	 ecx, DWORD PTR _this$[ebp]
  00003	e9 00 00 00 00	 jmp	 ??1exception@@UAE@XZ	; exception::~exception
__ehhandler$??0logic_error@std@@QAE@ABV?$basic_string@DU?$char_traits@D@std@@V?$allocator@D@2@@1@@Z:
  00008	b8 00 00 00 00	 mov	 eax, OFFSET FLAT:$T274831
  0000d	e9 00 00 00 00	 jmp	 ___CxxFrameHandler
text$x	ENDS
??0logic_error@std@@QAE@ABV?$basic_string@DU?$char_traits@D@std@@V?$allocator@D@2@@1@@Z ENDP ; std::logic_error::logic_error
PUBLIC	??0length_error@std@@QAE@ABV?$basic_string@DU?$char_traits@D@std@@V?$allocator@D@2@@1@@Z ; std::length_error::length_error
PUBLIC	??_7length_error@std@@6B@			; std::length_error::`vftable'
PUBLIC	??_Glength_error@std@@UAEPAXI@Z			; std::length_error::`scalar deleting destructor'
EXTRN	??_Elength_error@std@@UAEPAXI@Z:NEAR		; std::length_error::`vector deleting destructor'
;	COMDAT ??_7length_error@std@@6B@
CONST	SEGMENT
??_7length_error@std@@6B@ DD FLAT:??_Elength_error@std@@UAEPAXI@Z ; std::length_error::`vftable'
	DD	FLAT:?what@logic_error@std@@UBEPBDXZ
; Function compile flags: /Ogty
CONST	ENDS
;	COMDAT ??0length_error@std@@QAE@ABV?$basic_string@DU?$char_traits@D@std@@V?$allocator@D@2@@1@@Z
_TEXT	SEGMENT
__Message$ = 8						; size = 4
??0length_error@std@@QAE@ABV?$basic_string@DU?$char_traits@D@std@@V?$allocator@D@2@@1@@Z PROC NEAR ; std::length_error::length_error, COMDAT
; _this$ = ecx

; 95   : 		{	// construct from message string

  00000	8b 44 24 04	 mov	 eax, DWORD PTR __Message$[esp-4]
  00004	56		 push	 esi
  00005	50		 push	 eax
  00006	8b f1		 mov	 esi, ecx
  00008	e8 00 00 00 00	 call	 ??0logic_error@std@@QAE@ABV?$basic_string@DU?$char_traits@D@std@@V?$allocator@D@2@@1@@Z ; std::logic_error::logic_error
  0000d	c7 06 00 00 00
	00		 mov	 DWORD PTR [esi], OFFSET FLAT:??_7length_error@std@@6B@

; 96   : 		}

  00013	8b c6		 mov	 eax, esi
  00015	5e		 pop	 esi
  00016	c2 04 00	 ret	 4
??0length_error@std@@QAE@ABV?$basic_string@DU?$char_traits@D@std@@V?$allocator@D@2@@1@@Z ENDP ; std::length_error::length_error
_TEXT	ENDS
PUBLIC	??1length_error@std@@UAE@XZ			; std::length_error::~length_error
; Function compile flags: /Ogty
;	COMDAT ??_Glength_error@std@@UAEPAXI@Z
_TEXT	SEGMENT
___flags$ = 8						; size = 4
??_Glength_error@std@@UAEPAXI@Z PROC NEAR		; std::length_error::`scalar deleting destructor', COMDAT
; _this$ = ecx
  00000	56		 push	 esi
  00001	8b f1		 mov	 esi, ecx
  00003	e8 00 00 00 00	 call	 ??1length_error@std@@UAE@XZ ; std::length_error::~length_error
  00008	f6 44 24 08 01	 test	 BYTE PTR ___flags$[esp], 1
  0000d	74 09		 je	 SHORT $L274843
  0000f	56		 push	 esi
  00010	e8 00 00 00 00	 call	 ??3@YAXPAX@Z		; operator delete
  00015	83 c4 04	 add	 esp, 4
$L274843:
  00018	8b c6		 mov	 eax, esi
  0001a	5e		 pop	 esi
  0001b	c2 04 00	 ret	 4
??_Glength_error@std@@UAEPAXI@Z ENDP			; std::length_error::`scalar deleting destructor'
; Function compile flags: /Ogty
_TEXT	ENDS
;	COMDAT ??1length_error@std@@UAE@XZ
_TEXT	SEGMENT
??1length_error@std@@UAE@XZ PROC NEAR			; std::length_error::~length_error, COMDAT
; _this$ = ecx

; 99   : 		{}	// destroy the object

  00000	56		 push	 esi
  00001	8b f1		 mov	 esi, ecx
  00003	c7 06 00 00 00
	00		 mov	 DWORD PTR [esi], OFFSET FLAT:??_7logic_error@std@@6B@
  00009	83 7e 24 10	 cmp	 DWORD PTR [esi+36], 16	; 00000010H
  0000d	72 0c		 jb	 SHORT $L274930
  0000f	8b 46 10	 mov	 eax, DWORD PTR [esi+16]
  00012	50		 push	 eax
  00013	e8 00 00 00 00	 call	 ??3@YAXPAX@Z		; operator delete
  00018	83 c4 04	 add	 esp, 4
$L274930:
  0001b	33 c0		 xor	 eax, eax
  0001d	c7 46 24 0f 00
	00 00		 mov	 DWORD PTR [esi+36], 15	; 0000000fH
  00024	89 46 20	 mov	 DWORD PTR [esi+32], eax
  00027	88 46 10	 mov	 BYTE PTR [esi+16], al
  0002a	8b ce		 mov	 ecx, esi
  0002c	5e		 pop	 esi
  0002d	e9 00 00 00 00	 jmp	 ??1exception@@UAE@XZ	; exception::~exception
??1length_error@std@@UAE@XZ ENDP			; std::length_error::~length_error
_TEXT	ENDS
PUBLIC	??0?$basic_string@DU?$char_traits@D@std@@V?$allocator@D@2@@std@@QAE@PBD@Z ; std::basic_string<char,std::char_traits<char>,std::allocator<char> >::basic_string<char,std::char_traits<char>,std::allocator<char> >
; Function compile flags: /Ogty
; File c:\program files\microsoft visual studio .net 2003\vc7\include\xstring
;	COMDAT ??0?$basic_string@DU?$char_traits@D@std@@V?$allocator@D@2@@std@@QAE@PBD@Z
_TEXT	SEGMENT
__Ptr$ = 8						; size = 4
??0?$basic_string@DU?$char_traits@D@std@@V?$allocator@D@2@@std@@QAE@PBD@Z PROC NEAR ; std::basic_string<char,std::char_traits<char>,std::allocator<char> >::basic_string<char,std::char_traits<char>,std::allocator<char> >, COMDAT
; _this$ = ecx

; 361  : 		_Tidy();
; 362  : 		assign(_Ptr);

  00000	8b 54 24 04	 mov	 edx, DWORD PTR __Ptr$[esp-4]
  00004	56		 push	 esi
  00005	8b f1		 mov	 esi, ecx
  00007	8b c2		 mov	 eax, edx
  00009	57		 push	 edi
  0000a	c7 46 18 0f 00
	00 00		 mov	 DWORD PTR [esi+24], 15	; 0000000fH
  00011	c7 46 14 00 00
	00 00		 mov	 DWORD PTR [esi+20], 0
  00018	c6 46 04 00	 mov	 BYTE PTR [esi+4], 0
  0001c	8d 78 01	 lea	 edi, DWORD PTR [eax+1]
  0001f	90		 npad	 1
$L275025:
  00020	8a 08		 mov	 cl, BYTE PTR [eax]
  00022	40		 inc	 eax
  00023	84 c9		 test	 cl, cl
  00025	75 f9		 jne	 SHORT $L275025
  00027	2b c7		 sub	 eax, edi
  00029	50		 push	 eax
  0002a	52		 push	 edx
  0002b	8b ce		 mov	 ecx, esi
  0002d	e8 00 00 00 00	 call	 ?assign@?$basic_string@DU?$char_traits@D@std@@V?$allocator@D@2@@std@@QAEAAV12@PBDI@Z ; std::basic_string<char,std::char_traits<char>,std::allocator<char> >::assign
  00032	5f		 pop	 edi

; 363  : 		}

  00033	8b c6		 mov	 eax, esi
  00035	5e		 pop	 esi
  00036	c2 04 00	 ret	 4
??0?$basic_string@DU?$char_traits@D@std@@V?$allocator@D@2@@std@@QAE@PBD@Z ENDP ; std::basic_string<char,std::char_traits<char>,std::allocator<char> >::basic_string<char,std::char_traits<char>,std::allocator<char> >
_TEXT	ENDS
PUBLIC	?_Insert@?$_Tree@V?$_Tmap_traits@KPAVCUser@@U?$less@K@std@@V?$allocator@U?$pair@$$CBKPAVCUser@@@std@@@3@$0A@@std@@@std@@IAE?AViterator@12@_NPAU_Node@?$_Tree_nod@V?$_Tmap_traits@KPAVCUser@@U?$less@K@std@@V?$allocator@U?$pair@$$CBKPAVCUser@@@std@@@3@$0A@@std@@@2@ABU?$pair@$$CBKPAVCUser@@@2@@Z ; std::_Tree<std::_Tmap_traits<unsigned long,CUser *,std::less<unsigned long>,std::allocator<std::pair<unsigned long const ,CUser *> >,0> >::_Insert
PUBLIC	__TI3?AVlength_error@std@@
PUBLIC	__CTA3?AVlength_error@std@@
PUBLIC	??_R0?AVlength_error@std@@@8			; std::length_error `RTTI Type Descriptor'
PUBLIC	__CT??_R0?AVlength_error@std@@@8??0length_error@std@@QAE@ABV01@@Z40
PUBLIC	??_R0?AVlogic_error@std@@@8			; std::logic_error `RTTI Type Descriptor'
PUBLIC	__CT??_R0?AVlogic_error@std@@@8??0logic_error@std@@QAE@ABV01@@Z40
PUBLIC	??_R0?AVexception@@@8				; exception `RTTI Type Descriptor'
PUBLIC	__CT??_R0?AVexception@@@8??0exception@@QAE@ABV0@@Z12
PUBLIC	??_C@_0BE@JONHPENG@map?1set?$DMT?$DO?5too?5long?$AA@ ; `string'
PUBLIC	??0logic_error@std@@QAE@ABV01@@Z		; std::logic_error::logic_error
PUBLIC	??0length_error@std@@QAE@ABV01@@Z		; std::length_error::length_error
EXTRN	??0exception@@QAE@ABV0@@Z:NEAR			; exception::exception
EXTRN	??_7type_info@@6B@:DWORD			; type_info::`vftable'
;	COMDAT xdata$x
; File c:\program files\microsoft visual studio .net 2003\vc7\include\xtree
xdata$x	SEGMENT
$T275401 DD	0ffffffffH
	DD	FLAT:$L275031
$T275396 DD	019930520H
	DD	01H
	DD	FLAT:$T275401
	DD	2 DUP(00H)
	DD	2 DUP(00H)
xdata$x	ENDS
;	COMDAT ??_C@_0BE@JONHPENG@map?1set?$DMT?$DO?5too?5long?$AA@
CONST	SEGMENT
??_C@_0BE@JONHPENG@map?1set?$DMT?$DO?5too?5long?$AA@ DB 'map/set<T> too l'
	DB	'ong', 00H					; `string'
CONST	ENDS
;	COMDAT __TI3?AVlength_error@std@@
xdata$x	SEGMENT
__TI3?AVlength_error@std@@ DD 00H
	DD	FLAT:??1length_error@std@@UAE@XZ
	DD	00H
	DD	FLAT:__CTA3?AVlength_error@std@@
xdata$x	ENDS
;	COMDAT __CTA3?AVlength_error@std@@
xdata$x	SEGMENT
__CTA3?AVlength_error@std@@ DD 03H
	DD	FLAT:__CT??_R0?AVlength_error@std@@@8??0length_error@std@@QAE@ABV01@@Z40
	DD	FLAT:__CT??_R0?AVlogic_error@std@@@8??0logic_error@std@@QAE@ABV01@@Z40
	DD	FLAT:__CT??_R0?AVexception@@@8??0exception@@QAE@ABV0@@Z12
xdata$x	ENDS
;	COMDAT __CT??_R0?AVlength_error@std@@@8??0length_error@std@@QAE@ABV01@@Z40
xdata$x	SEGMENT
__CT??_R0?AVlength_error@std@@@8??0length_error@std@@QAE@ABV01@@Z40 DD 00H
	DD	FLAT:??_R0?AVlength_error@std@@@8
	DD	00H
	DD	0ffffffffH
	ORG $+4
	DD	028H
	DD	FLAT:??0length_error@std@@QAE@ABV01@@Z
xdata$x	ENDS
;	COMDAT ??_R0?AVlength_error@std@@@8
_DATA	SEGMENT
??_R0?AVlength_error@std@@@8 DD FLAT:??_7type_info@@6B@	; std::length_error `RTTI Type Descriptor'
	DD	00H
	DB	'.?AVlength_error@std@@', 00H
_DATA	ENDS
;	COMDAT __CT??_R0?AVlogic_error@std@@@8??0logic_error@std@@QAE@ABV01@@Z40
xdata$x	SEGMENT
__CT??_R0?AVlogic_error@std@@@8??0logic_error@std@@QAE@ABV01@@Z40 DD 00H
	DD	FLAT:??_R0?AVlogic_error@std@@@8
	DD	00H
	DD	0ffffffffH
	ORG $+4
	DD	028H
	DD	FLAT:??0logic_error@std@@QAE@ABV01@@Z
xdata$x	ENDS
;	COMDAT ??_R0?AVlogic_error@std@@@8
_DATA	SEGMENT
??_R0?AVlogic_error@std@@@8 DD FLAT:??_7type_info@@6B@	; std::logic_error `RTTI Type Descriptor'
	DD	00H
	DB	'.?AVlogic_error@std@@', 00H
_DATA	ENDS
;	COMDAT __CT??_R0?AVexception@@@8??0exception@@QAE@ABV0@@Z12
xdata$x	SEGMENT
__CT??_R0?AVexception@@@8??0exception@@QAE@ABV0@@Z12 DD 00H
	DD	FLAT:??_R0?AVexception@@@8
	DD	00H
	DD	0ffffffffH
	ORG $+4
	DD	0cH
	DD	FLAT:??0exception@@QAE@ABV0@@Z
xdata$x	ENDS
;	COMDAT ??_R0?AVexception@@@8
_DATA	SEGMENT
??_R0?AVexception@@@8 DD FLAT:??_7type_info@@6B@	; exception `RTTI Type Descriptor'
	DD	00H
	DB	'.?AVexception@@', 00H
; Function compile flags: /Ogty
_DATA	ENDS
;	COMDAT ?_Insert@?$_Tree@V?$_Tmap_traits@KPAVCUser@@U?$less@K@std@@V?$allocator@U?$pair@$$CBKPAVCUser@@@std@@@3@$0A@@std@@@std@@IAE?AViterator@12@_NPAU_Node@?$_Tree_nod@V?$_Tmap_traits@KPAVCUser@@U?$less@K@std@@V?$allocator@U?$pair@$$CBKPAVCUser@@@std@@@3@$0A@@std@@@2@ABU?$pair@$$CBKPAVCUser@@@2@@Z
_TEXT	SEGMENT
$T275030 = -80						; size = 28
$T275029 = -52						; size = 40
__$EHRec$ = -12						; size = 12
___$ReturnUdt$ = 8					; size = 4
__Addleft$ = 12						; size = 1
__Wherenode$ = 16					; size = 4
__Newnode$ = 20						; size = 4
__Val$ = 20						; size = 4
?_Insert@?$_Tree@V?$_Tmap_traits@KPAVCUser@@U?$less@K@std@@V?$allocator@U?$pair@$$CBKPAVCUser@@@std@@@3@$0A@@std@@@std@@IAE?AViterator@12@_NPAU_Node@?$_Tree_nod@V?$_Tmap_traits@KPAVCUser@@U?$less@K@std@@V?$allocator@U?$pair@$$CBKPAVCUser@@@std@@@3@$0A@@std@@@2@ABU?$pair@$$CBKPAVCUser@@@2@@Z PROC NEAR ; std::_Tree<std::_Tmap_traits<unsigned long,CUser *,std::less<unsigned long>,std::allocator<std::pair<unsigned long const ,CUser *> >,0> >::_Insert, COMDAT
; _this$ = ecx

; 911  : 		{	// add node with value next to _Wherenode, to left if _Addnode

  00000	64 a1 00 00 00
	00		 mov	 eax, DWORD PTR fs:__except_list
  00006	6a ff		 push	 -1
  00008	68 00 00 00 00	 push	 __ehhandler$?_Insert@?$_Tree@V?$_Tmap_traits@KPAVCUser@@U?$less@K@std@@V?$allocator@U?$pair@$$CBKPAVCUser@@@std@@@3@$0A@@std@@@std@@IAE?AViterator@12@_NPAU_Node@?$_Tree_nod@V?$_Tmap_traits@KPAVCUser@@U?$less@K@std@@V?$allocator@U?$pair@$$CBKPAVCUser@@@std@@@3@$0A@@std@@@2@ABU?$pair@$$CBKPAVCUser@@@2@@Z
  0000d	50		 push	 eax
  0000e	64 89 25 00 00
	00 00		 mov	 DWORD PTR fs:__except_list, esp
  00015	83 ec 44	 sub	 esp, 68			; 00000044H
  00018	56		 push	 esi
  00019	57		 push	 edi
  0001a	8b f9		 mov	 edi, ecx

; 912  : 		if (max_size() - 1 <= _Mysize)

  0001c	81 7f 08 fe ff
	ff 1f		 cmp	 DWORD PTR [edi+8], 536870910 ; 1ffffffeH
  00023	72 4c		 jb	 SHORT $L221567

; 913  : 			_THROW(length_error, "map/set<T> too long");

  00025	6a 13		 push	 19			; 00000013H
  00027	33 f6		 xor	 esi, esi
  00029	68 00 00 00 00	 push	 OFFSET FLAT:??_C@_0BE@JONHPENG@map?1set?$DMT?$DO?5too?5long?$AA@
  0002e	8d 4c 24 10	 lea	 ecx, DWORD PTR $T275030[esp+96]
  00032	c7 44 24 28 0f
	00 00 00	 mov	 DWORD PTR $T275030[esp+120], 15 ; 0000000fH
  0003a	89 74 24 24	 mov	 DWORD PTR $T275030[esp+116], esi
  0003e	c6 44 24 14 00	 mov	 BYTE PTR $T275030[esp+100], 0
  00043	e8 00 00 00 00	 call	 ?assign@?$basic_string@DU?$char_traits@D@std@@V?$allocator@D@2@@std@@QAEAAV12@PBDI@Z ; std::basic_string<char,std::char_traits<char>,std::allocator<char> >::assign
  00048	8d 44 24 08	 lea	 eax, DWORD PTR $T275030[esp+88]
  0004c	50		 push	 eax
  0004d	8d 4c 24 28	 lea	 ecx, DWORD PTR $T275029[esp+92]
  00051	89 74 24 58	 mov	 DWORD PTR __$EHRec$[esp+100], esi
  00055	e8 00 00 00 00	 call	 ??0logic_error@std@@QAE@ABV?$basic_string@DU?$char_traits@D@std@@V?$allocator@D@2@@1@@Z ; std::logic_error::logic_error
  0005a	68 00 00 00 00	 push	 OFFSET FLAT:__TI3?AVlength_error@std@@
  0005f	8d 4c 24 28	 lea	 ecx, DWORD PTR $T275029[esp+92]
  00063	51		 push	 ecx
  00064	c7 44 24 2c 00
	00 00 00	 mov	 DWORD PTR $T275029[esp+96], OFFSET FLAT:??_7length_error@std@@6B@
  0006c	e8 00 00 00 00	 call	 __CxxThrowException@8
$L275402:
$L221567:

; 914  : 		_Nodeptr _Newnode = _Buynode(_Myhead, _Wherenode, _Myhead,
; 915  : 			_Val, _Red);

  00071	8b 54 24 68	 mov	 edx, DWORD PTR __Val$[esp+84]
  00075	8b 47 04	 mov	 eax, DWORD PTR [edi+4]
  00078	8b 74 24 64	 mov	 esi, DWORD PTR __Wherenode$[esp+84]
  0007c	53		 push	 ebx
  0007d	6a 00		 push	 0
  0007f	52		 push	 edx
  00080	50		 push	 eax
  00081	56		 push	 esi
  00082	50		 push	 eax
  00083	8b cf		 mov	 ecx, edi
  00085	e8 00 00 00 00	 call	 ?_Buynode@?$_Tree@V?$_Tmap_traits@KPAVCUser@@U?$less@K@std@@V?$allocator@U?$pair@$$CBKPAVCUser@@@std@@@3@$0A@@std@@@std@@IAEPAU_Node@?$_Tree_nod@V?$_Tmap_traits@KPAVCUser@@U?$less@K@std@@V?$allocator@U?$pair@$$CBKPAVCUser@@@std@@@3@$0A@@std@@@2@PAU342@00ABU?$pair@$$CBKPAVCUser@@@2@D@Z ; std::_Tree<std::_Tmap_traits<unsigned long,CUser *,std::less<unsigned long>,std::allocator<std::pair<unsigned long const ,CUser *> >,0> >::_Buynode

; 916  : 
; 917  : 		++_Mysize;

  0008a	8b 5f 08	 mov	 ebx, DWORD PTR [edi+8]
  0008d	8b c8		 mov	 ecx, eax

; 918  : 		if (_Wherenode == _Myhead)

  0008f	8b 47 04	 mov	 eax, DWORD PTR [edi+4]
  00092	43		 inc	 ebx
  00093	3b f0		 cmp	 esi, eax
  00095	89 4c 24 6c	 mov	 DWORD PTR __Newnode$[esp+88], ecx
  00099	89 5f 08	 mov	 DWORD PTR [edi+8], ebx
  0009c	75 10		 jne	 SHORT $L221572

; 919  : 			{	// first node in tree, just set head values
; 920  : 			_Root() = _Newnode;

  0009e	89 48 04	 mov	 DWORD PTR [eax+4], ecx

; 921  : 			_Lmost() = _Newnode, _Rmost() = _Newnode;

  000a1	8b 47 04	 mov	 eax, DWORD PTR [edi+4]
  000a4	89 08		 mov	 DWORD PTR [eax], ecx
  000a6	8b 57 04	 mov	 edx, DWORD PTR [edi+4]
  000a9	89 4a 08	 mov	 DWORD PTR [edx+8], ecx

; 922  : 			}
; 923  : 		else if (_Addleft)

  000ac	eb 23		 jmp	 SHORT $L221577
$L221572:
  000ae	8a 44 24 64	 mov	 al, BYTE PTR __Addleft$[esp+88]
  000b2	84 c0		 test	 al, al
  000b4	74 0d		 je	 SHORT $L221574

; 924  : 			{	// add to left of _Wherenode
; 925  : 			_Left(_Wherenode) = _Newnode;

  000b6	89 0e		 mov	 DWORD PTR [esi], ecx

; 926  : 			if (_Wherenode == _Lmost())

  000b8	8b 47 04	 mov	 eax, DWORD PTR [edi+4]
  000bb	3b 30		 cmp	 esi, DWORD PTR [eax]
  000bd	75 12		 jne	 SHORT $L221577

; 927  : 				_Lmost() = _Newnode;

  000bf	89 08		 mov	 DWORD PTR [eax], ecx

; 928  : 			}
; 929  : 		else

  000c1	eb 0e		 jmp	 SHORT $L221577
$L221574:

; 930  : 			{	// add to right of _Wherenode
; 931  : 			_Right(_Wherenode) = _Newnode;

  000c3	89 4e 08	 mov	 DWORD PTR [esi+8], ecx

; 932  : 			if (_Wherenode == _Rmost())

  000c6	8b 47 04	 mov	 eax, DWORD PTR [edi+4]
  000c9	3b 70 08	 cmp	 esi, DWORD PTR [eax+8]
  000cc	75 03		 jne	 SHORT $L221577

; 933  : 				_Rmost() = _Newnode;

  000ce	89 48 08	 mov	 DWORD PTR [eax+8], ecx
$L221577:

; 934  : 			}
; 935  : 
; 936  : 		for (_Nodeptr _Pnode = _Newnode; _Color(_Parent(_Pnode)) == _Red; )

  000d1	8b 51 04	 mov	 edx, DWORD PTR [ecx+4]
  000d4	80 7a 14 00	 cmp	 BYTE PTR [edx+20], 0
  000d8	8d 41 04	 lea	 eax, DWORD PTR [ecx+4]
  000db	8b f1		 mov	 esi, ecx
  000dd	b3 01		 mov	 bl, 1
  000df	0f 85 a5 00 00
	00		 jne	 $L221581
  000e5	55		 push	 ebp
$L221580:

; 937  : 			if (_Parent(_Pnode) == _Left(_Parent(_Parent(_Pnode))))

  000e6	8b 08		 mov	 ecx, DWORD PTR [eax]
  000e8	8b 69 04	 mov	 ebp, DWORD PTR [ecx+4]
  000eb	8b 55 00	 mov	 edx, DWORD PTR [ebp]
  000ee	3b ca		 cmp	 ecx, edx
  000f0	75 50		 jne	 SHORT $L221582

; 938  : 				{	// fixup red-red in left subtree
; 939  : 				_Wherenode = _Right(_Parent(_Parent(_Pnode)));

  000f2	8b 55 08	 mov	 edx, DWORD PTR [ebp+8]

; 940  : 				if (_Color(_Wherenode) == _Red)

  000f5	80 7a 14 00	 cmp	 BYTE PTR [edx+20], 0
  000f9	75 18		 jne	 SHORT $L221583
$L275400:

; 941  : 					{	// parent has two red children, blacken both
; 942  : 					_Color(_Parent(_Pnode)) = _Black;

  000fb	8b 08		 mov	 ecx, DWORD PTR [eax]
  000fd	88 59 14	 mov	 BYTE PTR [ecx+20], bl

; 943  : 					_Color(_Wherenode) = _Black;

  00100	88 5a 14	 mov	 BYTE PTR [edx+20], bl

; 944  : 					_Color(_Parent(_Parent(_Pnode))) = _Red;

  00103	8b 10		 mov	 edx, DWORD PTR [eax]
  00105	8b 4a 04	 mov	 ecx, DWORD PTR [edx+4]
  00108	c6 41 14 00	 mov	 BYTE PTR [ecx+20], 0

; 945  : 					_Pnode = _Parent(_Parent(_Pnode));

  0010c	8b 10		 mov	 edx, DWORD PTR [eax]
  0010e	8b 72 04	 mov	 esi, DWORD PTR [edx+4]

; 946  : 					}
; 947  : 				else

  00111	eb 61		 jmp	 SHORT $L221588
$L221583:

; 948  : 					{	// parent has red and black children
; 949  : 					if (_Pnode == _Right(_Parent(_Pnode)))

  00113	3b 71 08	 cmp	 esi, DWORD PTR [ecx+8]
  00116	75 0a		 jne	 SHORT $L221585

; 950  : 						{	// rotate right child to left
; 951  : 						_Pnode = _Parent(_Pnode);

  00118	8b f1		 mov	 esi, ecx

; 952  : 						_Lrotate(_Pnode);

  0011a	56		 push	 esi
  0011b	8b cf		 mov	 ecx, edi
  0011d	e8 00 00 00 00	 call	 ?_Lrotate@?$_Tree@V?$_Tmap_traits@KPAVCUser@@U?$less@K@std@@V?$allocator@U?$pair@$$CBKPAVCUser@@@std@@@3@$0A@@std@@@std@@IAEXPAU_Node@?$_Tree_nod@V?$_Tmap_traits@KPAVCUser@@U?$less@K@std@@V?$allocator@U?$pair@$$CBKPAVCUser@@@std@@@3@$0A@@std@@@2@@Z ; std::_Tree<std::_Tmap_traits<unsigned long,CUser *,std::less<unsigned long>,std::allocator<std::pair<unsigned long const ,CUser *> >,0> >::_Lrotate
$L221585:

; 953  : 						}
; 954  : 					_Color(_Parent(_Pnode)) = _Black;	// propagate red up

  00122	8b 46 04	 mov	 eax, DWORD PTR [esi+4]
  00125	88 58 14	 mov	 BYTE PTR [eax+20], bl

; 955  : 					_Color(_Parent(_Parent(_Pnode))) = _Red;

  00128	8b 4e 04	 mov	 ecx, DWORD PTR [esi+4]
  0012b	8b 51 04	 mov	 edx, DWORD PTR [ecx+4]
  0012e	c6 42 14 00	 mov	 BYTE PTR [edx+20], 0

; 956  : 					_Rrotate(_Parent(_Parent(_Pnode)));

  00132	8b 46 04	 mov	 eax, DWORD PTR [esi+4]
  00135	8b 48 04	 mov	 ecx, DWORD PTR [eax+4]
  00138	51		 push	 ecx
  00139	8b cf		 mov	 ecx, edi
  0013b	e8 00 00 00 00	 call	 ?_Rrotate@?$_Tree@V?$_Tmap_traits@KPAVCUser@@U?$less@K@std@@V?$allocator@U?$pair@$$CBKPAVCUser@@@std@@@3@$0A@@std@@@std@@IAEXPAU_Node@?$_Tree_nod@V?$_Tmap_traits@KPAVCUser@@U?$less@K@std@@V?$allocator@U?$pair@$$CBKPAVCUser@@@std@@@3@$0A@@std@@@2@@Z ; std::_Tree<std::_Tmap_traits<unsigned long,CUser *,std::less<unsigned long>,std::allocator<std::pair<unsigned long const ,CUser *> >,0> >::_Rrotate

; 957  : 					}
; 958  : 				}
; 959  : 			else

  00140	eb 32		 jmp	 SHORT $L221588
$L221582:

; 960  : 				{	// fixup red-red in right subtree
; 961  : 				_Wherenode = _Left(_Parent(_Parent(_Pnode)));
; 962  : 				if (_Color(_Wherenode) == _Red)

  00142	80 7a 14 00	 cmp	 BYTE PTR [edx+20], 0

; 963  : 					{	// parent has two red children, blacken both
; 964  : 					_Color(_Parent(_Pnode)) = _Black;
; 965  : 					_Color(_Wherenode) = _Black;
; 966  : 					_Color(_Parent(_Parent(_Pnode))) = _Red;
; 967  : 					_Pnode = _Parent(_Parent(_Pnode));
; 968  : 					}
; 969  : 				else

  00146	74 b3		 je	 SHORT $L275400

; 970  : 					{	// parent has red and black children
; 971  : 					if (_Pnode == _Left(_Parent(_Pnode)))

  00148	3b 31		 cmp	 esi, DWORD PTR [ecx]
  0014a	75 0a		 jne	 SHORT $L221589

; 972  : 						{	// rotate left child to right
; 973  : 						_Pnode = _Parent(_Pnode);

  0014c	8b f1		 mov	 esi, ecx

; 974  : 						_Rrotate(_Pnode);

  0014e	56		 push	 esi
  0014f	8b cf		 mov	 ecx, edi
  00151	e8 00 00 00 00	 call	 ?_Rrotate@?$_Tree@V?$_Tmap_traits@KPAVCUser@@U?$less@K@std@@V?$allocator@U?$pair@$$CBKPAVCUser@@@std@@@3@$0A@@std@@@std@@IAEXPAU_Node@?$_Tree_nod@V?$_Tmap_traits@KPAVCUser@@U?$less@K@std@@V?$allocator@U?$pair@$$CBKPAVCUser@@@std@@@3@$0A@@std@@@2@@Z ; std::_Tree<std::_Tmap_traits<unsigned long,CUser *,std::less<unsigned long>,std::allocator<std::pair<unsigned long const ,CUser *> >,0> >::_Rrotate
$L221589:

; 975  : 						}
; 976  : 					_Color(_Parent(_Pnode)) = _Black;	// propagate red up

  00156	8b 46 04	 mov	 eax, DWORD PTR [esi+4]
  00159	88 58 14	 mov	 BYTE PTR [eax+20], bl

; 977  : 					_Color(_Parent(_Parent(_Pnode))) = _Red;

  0015c	8b 4e 04	 mov	 ecx, DWORD PTR [esi+4]
  0015f	8b 51 04	 mov	 edx, DWORD PTR [ecx+4]
  00162	c6 42 14 00	 mov	 BYTE PTR [edx+20], 0

; 978  : 					_Lrotate(_Parent(_Parent(_Pnode)));

  00166	8b 46 04	 mov	 eax, DWORD PTR [esi+4]
  00169	8b 48 04	 mov	 ecx, DWORD PTR [eax+4]
  0016c	51		 push	 ecx
  0016d	8b cf		 mov	 ecx, edi
  0016f	e8 00 00 00 00	 call	 ?_Lrotate@?$_Tree@V?$_Tmap_traits@KPAVCUser@@U?$less@K@std@@V?$allocator@U?$pair@$$CBKPAVCUser@@@std@@@3@$0A@@std@@@std@@IAEXPAU_Node@?$_Tree_nod@V?$_Tmap_traits@KPAVCUser@@U?$less@K@std@@V?$allocator@U?$pair@$$CBKPAVCUser@@@std@@@3@$0A@@std@@@2@@Z ; std::_Tree<std::_Tmap_traits<unsigned long,CUser *,std::less<unsigned long>,std::allocator<std::pair<unsigned long const ,CUser *> >,0> >::_Lrotate
$L221588:
  00174	8b 56 04	 mov	 edx, DWORD PTR [esi+4]
  00177	8a 4a 14	 mov	 cl, BYTE PTR [edx+20]
  0017a	84 c9		 test	 cl, cl
  0017c	8d 46 04	 lea	 eax, DWORD PTR [esi+4]
  0017f	0f 84 61 ff ff
	ff		 je	 $L221580
  00185	8b 4c 24 70	 mov	 ecx, DWORD PTR __Newnode$[esp+92]
  00189	5d		 pop	 ebp
$L221581:

; 979  : 					}
; 980  : 				}
; 981  : 
; 982  : 		_Color(_Root()) = _Black;	// root is always black

  0018a	8b 47 04	 mov	 eax, DWORD PTR [edi+4]
  0018d	8b 50 04	 mov	 edx, DWORD PTR [eax+4]

; 983  : 		return (_TREE_ITERATOR(_Newnode));

  00190	8b 44 24 60	 mov	 eax, DWORD PTR ___$ReturnUdt$[esp+88]
  00194	88 5a 14	 mov	 BYTE PTR [edx+20], bl
  00197	5b		 pop	 ebx
  00198	89 08		 mov	 DWORD PTR [eax], ecx

; 984  : 		}

  0019a	8b 4c 24 4c	 mov	 ecx, DWORD PTR __$EHRec$[esp+88]
  0019e	5f		 pop	 edi
  0019f	5e		 pop	 esi
  001a0	64 89 0d 00 00
	00 00		 mov	 DWORD PTR fs:__except_list, ecx
  001a7	83 c4 50	 add	 esp, 80			; 00000050H
  001aa	c2 10 00	 ret	 16			; 00000010H
$L275399:
_TEXT	ENDS
;	COMDAT text$x
text$x	SEGMENT
$L275031:
  00000	8d 4d b0	 lea	 ecx, DWORD PTR $T275030[ebp]
  00003	e9 00 00 00 00	 jmp	 ??1?$basic_string@DU?$char_traits@D@std@@V?$allocator@D@2@@std@@QAE@XZ ; std::basic_string<char,std::char_traits<char>,std::allocator<char> >::~basic_string<char,std::char_traits<char>,std::allocator<char> >
__ehhandler$?_Insert@?$_Tree@V?$_Tmap_traits@KPAVCUser@@U?$less@K@std@@V?$allocator@U?$pair@$$CBKPAVCUser@@@std@@@3@$0A@@std@@@std@@IAE?AViterator@12@_NPAU_Node@?$_Tree_nod@V?$_Tmap_traits@KPAVCUser@@U?$less@K@std@@V?$allocator@U?$pair@$$CBKPAVCUser@@@std@@@3@$0A@@std@@@2@ABU?$pair@$$CBKPAVCUser@@@2@@Z:
  00008	b8 00 00 00 00	 mov	 eax, OFFSET FLAT:$T275396
  0000d	e9 00 00 00 00	 jmp	 ___CxxFrameHandler
text$x	ENDS
?_Insert@?$_Tree@V?$_Tmap_traits@KPAVCUser@@U?$less@K@std@@V?$allocator@U?$pair@$$CBKPAVCUser@@@std@@@3@$0A@@std@@@std@@IAE?AViterator@12@_NPAU_Node@?$_Tree_nod@V?$_Tmap_traits@KPAVCUser@@U?$less@K@std@@V?$allocator@U?$pair@$$CBKPAVCUser@@@std@@@3@$0A@@std@@@2@ABU?$pair@$$CBKPAVCUser@@@2@@Z ENDP ; std::_Tree<std::_Tmap_traits<unsigned long,CUser *,std::less<unsigned long>,std::allocator<std::pair<unsigned long const ,CUser *> >,0> >::_Insert
;	COMDAT xdata$x
xdata$x	SEGMENT
$T275508 DD	0ffffffffH
	DD	FLAT:$L275408
$T275506 DD	019930520H
	DD	01H
	DD	FLAT:$T275508
	DD	2 DUP(00H)
	DD	2 DUP(00H)
; Function compile flags: /Ogty
xdata$x	ENDS
;	COMDAT ??0logic_error@std@@QAE@ABV01@@Z
_TEXT	SEGMENT
_this$ = -16						; size = 4
__$EHRec$ = -12						; size = 12
___that$ = 8						; size = 4
??0logic_error@std@@QAE@ABV01@@Z PROC NEAR		; std::logic_error::logic_error, COMDAT
; _this$ = ecx
  00000	6a ff		 push	 -1
  00002	68 00 00 00 00	 push	 __ehhandler$??0logic_error@std@@QAE@ABV01@@Z
  00007	64 a1 00 00 00
	00		 mov	 eax, DWORD PTR fs:__except_list
  0000d	50		 push	 eax
  0000e	64 89 25 00 00
	00 00		 mov	 DWORD PTR fs:__except_list, esp
  00015	51		 push	 ecx
  00016	56		 push	 esi
  00017	57		 push	 edi
  00018	8b 7c 24 1c	 mov	 edi, DWORD PTR ___that$[esp+20]
  0001c	8b f1		 mov	 esi, ecx
  0001e	57		 push	 edi
  0001f	89 74 24 0c	 mov	 DWORD PTR _this$[esp+28], esi
  00023	e8 00 00 00 00	 call	 ??0exception@@QAE@ABV0@@Z ; exception::exception
  00028	33 c0		 xor	 eax, eax
  0002a	6a ff		 push	 -1
  0002c	8d 4e 0c	 lea	 ecx, DWORD PTR [esi+12]
  0002f	c7 06 00 00 00
	00		 mov	 DWORD PTR [esi], OFFSET FLAT:??_7logic_error@std@@6B@
  00035	50		 push	 eax
  00036	83 c7 0c	 add	 edi, 12			; 0000000cH
  00039	c7 41 18 0f 00
	00 00		 mov	 DWORD PTR [ecx+24], 15	; 0000000fH
  00040	89 41 14	 mov	 DWORD PTR [ecx+20], eax
  00043	57		 push	 edi
  00044	89 44 24 20	 mov	 DWORD PTR __$EHRec$[esp+44], eax
  00048	88 41 04	 mov	 BYTE PTR [ecx+4], al
  0004b	e8 00 00 00 00	 call	 ?assign@?$basic_string@DU?$char_traits@D@std@@V?$allocator@D@2@@std@@QAEAAV12@ABV12@II@Z ; std::basic_string<char,std::char_traits<char>,std::allocator<char> >::assign
  00050	8b 4c 24 0c	 mov	 ecx, DWORD PTR __$EHRec$[esp+24]
  00054	5f		 pop	 edi
  00055	8b c6		 mov	 eax, esi
  00057	5e		 pop	 esi
  00058	64 89 0d 00 00
	00 00		 mov	 DWORD PTR fs:__except_list, ecx
  0005f	83 c4 10	 add	 esp, 16			; 00000010H
  00062	c2 04 00	 ret	 4
_TEXT	ENDS
;	COMDAT text$x
text$x	SEGMENT
$L275408:
  00000	8b 4d f0	 mov	 ecx, DWORD PTR _this$[ebp]
  00003	e9 00 00 00 00	 jmp	 ??1exception@@UAE@XZ	; exception::~exception
__ehhandler$??0logic_error@std@@QAE@ABV01@@Z:
  00008	b8 00 00 00 00	 mov	 eax, OFFSET FLAT:$T275506
  0000d	e9 00 00 00 00	 jmp	 ___CxxFrameHandler
text$x	ENDS
??0logic_error@std@@QAE@ABV01@@Z ENDP			; std::logic_error::logic_error
; Function compile flags: /Ogty
;	COMDAT ??0length_error@std@@QAE@ABV01@@Z
_TEXT	SEGMENT
___that$ = 8						; size = 4
??0length_error@std@@QAE@ABV01@@Z PROC NEAR		; std::length_error::length_error, COMDAT
; _this$ = ecx
  00000	8b 44 24 04	 mov	 eax, DWORD PTR ___that$[esp-4]
  00004	56		 push	 esi
  00005	50		 push	 eax
  00006	8b f1		 mov	 esi, ecx
  00008	e8 00 00 00 00	 call	 ??0logic_error@std@@QAE@ABV01@@Z
  0000d	c7 06 00 00 00
	00		 mov	 DWORD PTR [esi], OFFSET FLAT:??_7length_error@std@@6B@
  00013	8b c6		 mov	 eax, esi
  00015	5e		 pop	 esi
  00016	c2 04 00	 ret	 4
??0length_error@std@@QAE@ABV01@@Z ENDP			; std::length_error::length_error
_TEXT	ENDS
PUBLIC	??_C@_0BD@OLBABOEK@vector?$DMT?$DO?5too?5long?$AA@ ; `string'
PUBLIC	?_Xlen@?$vector@UD3DXVECTOR3@@V?$allocator@UD3DXVECTOR3@@@std@@@std@@IBEXXZ ; std::vector<D3DXVECTOR3,std::allocator<D3DXVECTOR3> >::_Xlen
;	COMDAT xdata$x
; File c:\program files\microsoft visual studio .net 2003\vc7\include\stdexcept
xdata$x	SEGMENT
$T275635 DD	0ffffffffH
	DD	FLAT:$L275520
$T275632 DD	019930520H
	DD	01H
	DD	FLAT:$T275635
	DD	2 DUP(00H)
	DD	2 DUP(00H)
xdata$x	ENDS
;	COMDAT ??_C@_0BD@OLBABOEK@vector?$DMT?$DO?5too?5long?$AA@
CONST	SEGMENT
??_C@_0BD@OLBABOEK@vector?$DMT?$DO?5too?5long?$AA@ DB 'vector<T> too long'
	DB	00H						; `string'
; Function compile flags: /Ogty
; File c:\program files\microsoft visual studio .net 2003\vc7\include\vector
CONST	ENDS
;	COMDAT ?_Xlen@?$vector@UD3DXVECTOR3@@V?$allocator@UD3DXVECTOR3@@@std@@@std@@IBEXXZ
_TEXT	SEGMENT
$T275519 = -80						; size = 28
$T275518 = -52						; size = 40
__$EHRec$ = -12						; size = 12
?_Xlen@?$vector@UD3DXVECTOR3@@V?$allocator@UD3DXVECTOR3@@@std@@@std@@IBEXXZ PROC NEAR ; std::vector<D3DXVECTOR3,std::allocator<D3DXVECTOR3> >::_Xlen, COMDAT
; _this$ = ecx

; 883  : 		{	// report a length_error

  00000	6a ff		 push	 -1
  00002	68 00 00 00 00	 push	 __ehhandler$?_Xlen@?$vector@UD3DXVECTOR3@@V?$allocator@UD3DXVECTOR3@@@std@@@std@@IBEXXZ
  00007	64 a1 00 00 00
	00		 mov	 eax, DWORD PTR fs:__except_list
  0000d	50		 push	 eax
  0000e	64 89 25 00 00
	00 00		 mov	 DWORD PTR fs:__except_list, esp
  00015	83 ec 44	 sub	 esp, 68			; 00000044H

; 884  : 		_THROW(length_error, "vector<T> too long");

  00018	6a 12		 push	 18			; 00000012H
  0001a	68 00 00 00 00	 push	 OFFSET FLAT:??_C@_0BD@OLBABOEK@vector?$DMT?$DO?5too?5long?$AA@
  0001f	8d 4c 24 08	 lea	 ecx, DWORD PTR $T275519[esp+88]
  00023	c7 44 24 20 0f
	00 00 00	 mov	 DWORD PTR $T275519[esp+112], 15 ; 0000000fH
  0002b	c7 44 24 1c 00
	00 00 00	 mov	 DWORD PTR $T275519[esp+108], 0
  00033	c6 44 24 0c 00	 mov	 BYTE PTR $T275519[esp+92], 0
  00038	e8 00 00 00 00	 call	 ?assign@?$basic_string@DU?$char_traits@D@std@@V?$allocator@D@2@@std@@QAEAAV12@PBDI@Z ; std::basic_string<char,std::char_traits<char>,std::allocator<char> >::assign
  0003d	8d 04 24	 lea	 eax, DWORD PTR $T275519[esp+80]
  00040	50		 push	 eax
  00041	8d 4c 24 20	 lea	 ecx, DWORD PTR $T275518[esp+84]
  00045	c7 44 24 50 00
	00 00 00	 mov	 DWORD PTR __$EHRec$[esp+92], 0
  0004d	e8 00 00 00 00	 call	 ??0logic_error@std@@QAE@ABV?$basic_string@DU?$char_traits@D@std@@V?$allocator@D@2@@1@@Z ; std::logic_error::logic_error
  00052	68 00 00 00 00	 push	 OFFSET FLAT:__TI3?AVlength_error@std@@
  00057	8d 4c 24 20	 lea	 ecx, DWORD PTR $T275518[esp+84]
  0005b	51		 push	 ecx
  0005c	c7 44 24 24 00
	00 00 00	 mov	 DWORD PTR $T275518[esp+88], OFFSET FLAT:??_7length_error@std@@6B@
  00064	e8 00 00 00 00	 call	 __CxxThrowException@8
$L275636:
$L275634:
  00069	cc		 int	 3
_TEXT	ENDS
;	COMDAT text$x
text$x	SEGMENT
$L275520:
  00000	8d 4d b0	 lea	 ecx, DWORD PTR $T275519[ebp]
  00003	e9 00 00 00 00	 jmp	 ??1?$basic_string@DU?$char_traits@D@std@@V?$allocator@D@2@@std@@QAE@XZ ; std::basic_string<char,std::char_traits<char>,std::allocator<char> >::~basic_string<char,std::char_traits<char>,std::allocator<char> >
__ehhandler$?_Xlen@?$vector@UD3DXVECTOR3@@V?$allocator@UD3DXVECTOR3@@@std@@@std@@IBEXXZ:
  00008	b8 00 00 00 00	 mov	 eax, OFFSET FLAT:$T275632
  0000d	e9 00 00 00 00	 jmp	 ___CxxFrameHandler
text$x	ENDS
?_Xlen@?$vector@UD3DXVECTOR3@@V?$allocator@UD3DXVECTOR3@@@std@@@std@@IBEXXZ ENDP ; std::vector<D3DXVECTOR3,std::allocator<D3DXVECTOR3> >::_Xlen
PUBLIC	?_Xlen@?$vector@UENVIR_INFO@@V?$allocator@UENVIR_INFO@@@std@@@std@@IBEXXZ ; std::vector<ENVIR_INFO,std::allocator<ENVIR_INFO> >::_Xlen
;	COMDAT xdata$x
; File c:\program files\microsoft visual studio .net 2003\vc7\include\stdexcept
xdata$x	SEGMENT
$T275759 DD	0ffffffffH
	DD	FLAT:$L275644
$T275756 DD	019930520H
	DD	01H
	DD	FLAT:$T275759
	DD	2 DUP(00H)
	DD	2 DUP(00H)
; Function compile flags: /Ogty
; File c:\program files\microsoft visual studio .net 2003\vc7\include\vector
xdata$x	ENDS
;	COMDAT ?_Xlen@?$vector@UENVIR_INFO@@V?$allocator@UENVIR_INFO@@@std@@@std@@IBEXXZ
_TEXT	SEGMENT
$T275643 = -80						; size = 28
$T275642 = -52						; size = 40
__$EHRec$ = -12						; size = 12
?_Xlen@?$vector@UENVIR_INFO@@V?$allocator@UENVIR_INFO@@@std@@@std@@IBEXXZ PROC NEAR ; std::vector<ENVIR_INFO,std::allocator<ENVIR_INFO> >::_Xlen, COMDAT
; _this$ = ecx

; 883  : 		{	// report a length_error

  00000	6a ff		 push	 -1
  00002	68 00 00 00 00	 push	 __ehhandler$?_Xlen@?$vector@UENVIR_INFO@@V?$allocator@UENVIR_INFO@@@std@@@std@@IBEXXZ
  00007	64 a1 00 00 00
	00		 mov	 eax, DWORD PTR fs:__except_list
  0000d	50		 push	 eax
  0000e	64 89 25 00 00
	00 00		 mov	 DWORD PTR fs:__except_list, esp
  00015	83 ec 44	 sub	 esp, 68			; 00000044H

; 884  : 		_THROW(length_error, "vector<T> too long");

  00018	6a 12		 push	 18			; 00000012H
  0001a	68 00 00 00 00	 push	 OFFSET FLAT:??_C@_0BD@OLBABOEK@vector?$DMT?$DO?5too?5long?$AA@
  0001f	8d 4c 24 08	 lea	 ecx, DWORD PTR $T275643[esp+88]
  00023	c7 44 24 20 0f
	00 00 00	 mov	 DWORD PTR $T275643[esp+112], 15 ; 0000000fH
  0002b	c7 44 24 1c 00
	00 00 00	 mov	 DWORD PTR $T275643[esp+108], 0
  00033	c6 44 24 0c 00	 mov	 BYTE PTR $T275643[esp+92], 0
  00038	e8 00 00 00 00	 call	 ?assign@?$basic_string@DU?$char_traits@D@std@@V?$allocator@D@2@@std@@QAEAAV12@PBDI@Z ; std::basic_string<char,std::char_traits<char>,std::allocator<char> >::assign
  0003d	8d 04 24	 lea	 eax, DWORD PTR $T275643[esp+80]
  00040	50		 push	 eax
  00041	8d 4c 24 20	 lea	 ecx, DWORD PTR $T275642[esp+84]
  00045	c7 44 24 50 00
	00 00 00	 mov	 DWORD PTR __$EHRec$[esp+92], 0
  0004d	e8 00 00 00 00	 call	 ??0logic_error@std@@QAE@ABV?$basic_string@DU?$char_traits@D@std@@V?$allocator@D@2@@1@@Z ; std::logic_error::logic_error
  00052	68 00 00 00 00	 push	 OFFSET FLAT:__TI3?AVlength_error@std@@
  00057	8d 4c 24 20	 lea	 ecx, DWORD PTR $T275642[esp+84]
  0005b	51		 push	 ecx
  0005c	c7 44 24 24 00
	00 00 00	 mov	 DWORD PTR $T275642[esp+88], OFFSET FLAT:??_7length_error@std@@6B@
  00064	e8 00 00 00 00	 call	 __CxxThrowException@8
$L275760:
$L275758:
  00069	cc		 int	 3
_TEXT	ENDS
;	COMDAT text$x
text$x	SEGMENT
$L275644:
  00000	8d 4d b0	 lea	 ecx, DWORD PTR $T275643[ebp]
  00003	e9 00 00 00 00	 jmp	 ??1?$basic_string@DU?$char_traits@D@std@@V?$allocator@D@2@@std@@QAE@XZ ; std::basic_string<char,std::char_traits<char>,std::allocator<char> >::~basic_string<char,std::char_traits<char>,std::allocator<char> >
__ehhandler$?_Xlen@?$vector@UENVIR_INFO@@V?$allocator@UENVIR_INFO@@@std@@@std@@IBEXXZ:
  00008	b8 00 00 00 00	 mov	 eax, OFFSET FLAT:$T275756
  0000d	e9 00 00 00 00	 jmp	 ___CxxFrameHandler
text$x	ENDS
?_Xlen@?$vector@UENVIR_INFO@@V?$allocator@UENVIR_INFO@@@std@@@std@@IBEXXZ ENDP ; std::vector<ENVIR_INFO,std::allocator<ENVIR_INFO> >::_Xlen
PUBLIC	?_Xlen@?$vector@PAVCObj@@V?$allocator@PAVCObj@@@std@@@std@@IBEXXZ ; std::vector<CObj *,std::allocator<CObj *> >::_Xlen
;	COMDAT xdata$x
; File c:\program files\microsoft visual studio .net 2003\vc7\include\stdexcept
xdata$x	SEGMENT
$T275883 DD	0ffffffffH
	DD	FLAT:$L275768
$T275880 DD	019930520H
	DD	01H
	DD	FLAT:$T275883
	DD	2 DUP(00H)
	DD	2 DUP(00H)
; Function compile flags: /Ogty
; File c:\program files\microsoft visual studio .net 2003\vc7\include\vector
xdata$x	ENDS
;	COMDAT ?_Xlen@?$vector@PAVCObj@@V?$allocator@PAVCObj@@@std@@@std@@IBEXXZ
_TEXT	SEGMENT
$T275767 = -80						; size = 28
$T275766 = -52						; size = 40
__$EHRec$ = -12						; size = 12
?_Xlen@?$vector@PAVCObj@@V?$allocator@PAVCObj@@@std@@@std@@IBEXXZ PROC NEAR ; std::vector<CObj *,std::allocator<CObj *> >::_Xlen, COMDAT
; _this$ = ecx

; 883  : 		{	// report a length_error

  00000	6a ff		 push	 -1
  00002	68 00 00 00 00	 push	 __ehhandler$?_Xlen@?$vector@PAVCObj@@V?$allocator@PAVCObj@@@std@@@std@@IBEXXZ
  00007	64 a1 00 00 00
	00		 mov	 eax, DWORD PTR fs:__except_list
  0000d	50		 push	 eax
  0000e	64 89 25 00 00
	00 00		 mov	 DWORD PTR fs:__except_list, esp
  00015	83 ec 44	 sub	 esp, 68			; 00000044H

; 884  : 		_THROW(length_error, "vector<T> too long");

  00018	6a 12		 push	 18			; 00000012H
  0001a	68 00 00 00 00	 push	 OFFSET FLAT:??_C@_0BD@OLBABOEK@vector?$DMT?$DO?5too?5long?$AA@
  0001f	8d 4c 24 08	 lea	 ecx, DWORD PTR $T275767[esp+88]
  00023	c7 44 24 20 0f
	00 00 00	 mov	 DWORD PTR $T275767[esp+112], 15 ; 0000000fH
  0002b	c7 44 24 1c 00
	00 00 00	 mov	 DWORD PTR $T275767[esp+108], 0
  00033	c6 44 24 0c 00	 mov	 BYTE PTR $T275767[esp+92], 0
  00038	e8 00 00 00 00	 call	 ?assign@?$basic_string@DU?$char_traits@D@std@@V?$allocator@D@2@@std@@QAEAAV12@PBDI@Z ; std::basic_string<char,std::char_traits<char>,std::allocator<char> >::assign
  0003d	8d 04 24	 lea	 eax, DWORD PTR $T275767[esp+80]
  00040	50		 push	 eax
  00041	8d 4c 24 20	 lea	 ecx, DWORD PTR $T275766[esp+84]
  00045	c7 44 24 50 00
	00 00 00	 mov	 DWORD PTR __$EHRec$[esp+92], 0
  0004d	e8 00 00 00 00	 call	 ??0logic_error@std@@QAE@ABV?$basic_string@DU?$char_traits@D@std@@V?$allocator@D@2@@1@@Z ; std::logic_error::logic_error
  00052	68 00 00 00 00	 push	 OFFSET FLAT:__TI3?AVlength_error@std@@
  00057	8d 4c 24 20	 lea	 ecx, DWORD PTR $T275766[esp+84]
  0005b	51		 push	 ecx
  0005c	c7 44 24 24 00
	00 00 00	 mov	 DWORD PTR $T275766[esp+88], OFFSET FLAT:??_7length_error@std@@6B@
  00064	e8 00 00 00 00	 call	 __CxxThrowException@8
$L275884:
$L275882:
  00069	cc		 int	 3
_TEXT	ENDS
;	COMDAT text$x
text$x	SEGMENT
$L275768:
  00000	8d 4d b0	 lea	 ecx, DWORD PTR $T275767[ebp]
  00003	e9 00 00 00 00	 jmp	 ??1?$basic_string@DU?$char_traits@D@std@@V?$allocator@D@2@@std@@QAE@XZ ; std::basic_string<char,std::char_traits<char>,std::allocator<char> >::~basic_string<char,std::char_traits<char>,std::allocator<char> >
__ehhandler$?_Xlen@?$vector@PAVCObj@@V?$allocator@PAVCObj@@@std@@@std@@IBEXXZ:
  00008	b8 00 00 00 00	 mov	 eax, OFFSET FLAT:$T275880
  0000d	e9 00 00 00 00	 jmp	 ___CxxFrameHandler
text$x	ENDS
?_Xlen@?$vector@PAVCObj@@V?$allocator@PAVCObj@@@std@@@std@@IBEXXZ ENDP ; std::vector<CObj *,std::allocator<CObj *> >::_Xlen
PUBLIC	??$_Destroy@UENVIR_INFO@@@std@@YAXPAUENVIR_INFO@@@Z ; std::_Destroy<ENVIR_INFO>
; Function compile flags: /Ogty
; File c:\program files\microsoft visual studio .net 2003\vc7\include\xmemory
;	COMDAT ??$_Destroy@UENVIR_INFO@@@std@@YAXPAUENVIR_INFO@@@Z
_TEXT	SEGMENT
__Ptr$ = 8						; size = 4
??$_Destroy@UENVIR_INFO@@@std@@YAXPAUENVIR_INFO@@@Z PROC NEAR ; std::_Destroy<ENVIR_INFO>, COMDAT

; 49   : 	_DESTRUCTOR(_Ty, _Ptr);

  00000	8b 4c 24 04	 mov	 ecx, DWORD PTR __Ptr$[esp-4]
  00004	e9 00 00 00 00	 jmp	 ??1ENVIR_INFO@@QAE@XZ
??$_Destroy@UENVIR_INFO@@@std@@YAXPAUENVIR_INFO@@@Z ENDP ; std::_Destroy<ENVIR_INFO>
_TEXT	ENDS
PUBLIC	?_Buy@?$vector@UD3DXVECTOR3@@V?$allocator@UD3DXVECTOR3@@@std@@@std@@IAE_NI@Z ; std::vector<D3DXVECTOR3,std::allocator<D3DXVECTOR3> >::_Buy
; Function compile flags: /Ogty
; File c:\program files\microsoft visual studio .net 2003\vc7\include\vector
;	COMDAT ?_Buy@?$vector@UD3DXVECTOR3@@V?$allocator@UD3DXVECTOR3@@@std@@@std@@IAE_NI@Z
_TEXT	SEGMENT
__Capacity$ = 8						; size = 4
?_Buy@?$vector@UD3DXVECTOR3@@V?$allocator@UD3DXVECTOR3@@@std@@@std@@IAE_NI@Z PROC NEAR ; std::vector<D3DXVECTOR3,std::allocator<D3DXVECTOR3> >::_Buy, COMDAT
; _this$ = ecx

; 771  : 		_Myfirst = 0, _Mylast = 0, _Myend = 0;
; 772  : 		if (_Capacity == 0)

  00000	8b 44 24 04	 mov	 eax, DWORD PTR __Capacity$[esp-4]
  00004	56		 push	 esi
  00005	8b f1		 mov	 esi, ecx
  00007	33 c9		 xor	 ecx, ecx
  00009	3b c1		 cmp	 eax, ecx
  0000b	89 4e 04	 mov	 DWORD PTR [esi+4], ecx
  0000e	89 4e 08	 mov	 DWORD PTR [esi+8], ecx
  00011	89 4e 0c	 mov	 DWORD PTR [esi+12], ecx
  00014	75 06		 jne	 SHORT $L220828

; 773  : 			return (false);

  00016	32 c0		 xor	 al, al
  00018	5e		 pop	 esi

; 783  : 		}

  00019	c2 04 00	 ret	 4
$L220828:

; 774  : 		else if (max_size() < _Capacity)

  0001c	3d 55 55 55 15	 cmp	 eax, 357913941		; 15555555H
  00021	76 07		 jbe	 SHORT $L220830

; 775  : 			_Xlen();	// result too long

  00023	8b ce		 mov	 ecx, esi
  00025	e8 00 00 00 00	 call	 ?_Xlen@?$vector@UD3DXVECTOR3@@V?$allocator@UD3DXVECTOR3@@@std@@@std@@IBEXXZ ; std::vector<D3DXVECTOR3,std::allocator<D3DXVECTOR3> >::_Xlen
$L275922:
$L220830:
  0002a	57		 push	 edi

; 776  : 		else
; 777  : 			{	// nonempty array, allocate storage
; 778  : 			_Myfirst = this->_Alval.allocate(_Capacity);

  0002b	8d 3c 40	 lea	 edi, DWORD PTR [eax+eax*2]
  0002e	c1 e7 02	 shl	 edi, 2
  00031	57		 push	 edi
  00032	e8 00 00 00 00	 call	 ??2@YAPAXI@Z		; operator new

; 779  : 			_Mylast = _Myfirst;
; 780  : 			_Myend = _Myfirst + _Capacity;

  00037	03 f8		 add	 edi, eax
  00039	83 c4 04	 add	 esp, 4
  0003c	89 7e 0c	 mov	 DWORD PTR [esi+12], edi
  0003f	89 46 04	 mov	 DWORD PTR [esi+4], eax
  00042	89 46 08	 mov	 DWORD PTR [esi+8], eax
  00045	5f		 pop	 edi

; 781  : 			}
; 782  : 		return (true);

  00046	b0 01		 mov	 al, 1
  00048	5e		 pop	 esi

; 783  : 		}

  00049	c2 04 00	 ret	 4
$L275921:
?_Buy@?$vector@UD3DXVECTOR3@@V?$allocator@UD3DXVECTOR3@@@std@@@std@@IAE_NI@Z ENDP ; std::vector<D3DXVECTOR3,std::allocator<D3DXVECTOR3> >::_Buy
_TEXT	ENDS
PUBLIC	?insert@?$_Tree@V?$_Tmap_traits@KPAVCUser@@U?$less@K@std@@V?$allocator@U?$pair@$$CBKPAVCUser@@@std@@@3@$0A@@std@@@std@@QAE?AU?$pair@Viterator@?$_Tree@V?$_Tmap_traits@KPAVCUser@@U?$less@K@std@@V?$allocator@U?$pair@$$CBKPAVCUser@@@std@@@3@$0A@@std@@@std@@_N@2@ABU?$pair@$$CBKPAVCUser@@@2@@Z ; std::_Tree<std::_Tmap_traits<unsigned long,CUser *,std::less<unsigned long>,std::allocator<std::pair<unsigned long const ,CUser *> >,0> >::insert
; Function compile flags: /Ogty
; File c:\program files\microsoft visual studio .net 2003\vc7\include\xtree
;	COMDAT ?insert@?$_Tree@V?$_Tmap_traits@KPAVCUser@@U?$less@K@std@@V?$allocator@U?$pair@$$CBKPAVCUser@@@std@@@3@$0A@@std@@@std@@QAE?AU?$pair@Viterator@?$_Tree@V?$_Tmap_traits@KPAVCUser@@U?$less@K@std@@V?$allocator@U?$pair@$$CBKPAVCUser@@@std@@@3@$0A@@std@@@std@@_N@2@ABU?$pair@$$CBKPAVCUser@@@2@@Z
_TEXT	SEGMENT
__Addleft$ = -4						; size = 1
___$ReturnUdt$ = 8					; size = 4
$T275934 = 12						; size = 4
$T275932 = 12						; size = 4
__Where$221481 = 12					; size = 4
__Val$ = 12						; size = 4
?insert@?$_Tree@V?$_Tmap_traits@KPAVCUser@@U?$less@K@std@@V?$allocator@U?$pair@$$CBKPAVCUser@@@std@@@3@$0A@@std@@@std@@QAE?AU?$pair@Viterator@?$_Tree@V?$_Tmap_traits@KPAVCUser@@U?$less@K@std@@V?$allocator@U?$pair@$$CBKPAVCUser@@@std@@@3@$0A@@std@@@std@@_N@2@ABU?$pair@$$CBKPAVCUser@@@2@@Z PROC NEAR ; std::_Tree<std::_Tmap_traits<unsigned long,CUser *,std::less<unsigned long>,std::allocator<std::pair<unsigned long const ,CUser *> >,0> >::insert, COMDAT
; _this$ = ecx

; 477  : 		{	// try to insert node with value _Val

  00000	51		 push	 ecx
  00001	55		 push	 ebp

; 478  : 		_Nodeptr _Trynode = _Root();
; 479  : 		_Nodeptr _Wherenode = _Myhead;
; 480  : 		bool _Addleft = true;	// add to left of head if tree empty
; 481  : 		while (!_Isnil(_Trynode))

  00002	8b 6c 24 10	 mov	 ebp, DWORD PTR __Val$[esp+4]
  00006	56		 push	 esi
  00007	57		 push	 edi
  00008	8b f9		 mov	 edi, ecx
  0000a	8b 77 04	 mov	 esi, DWORD PTR [edi+4]
  0000d	8b 46 04	 mov	 eax, DWORD PTR [esi+4]
  00010	8a 50 15	 mov	 dl, BYTE PTR [eax+21]
  00013	84 d2		 test	 dl, dl
  00015	b1 01		 mov	 cl, 1
  00017	88 4c 24 0c	 mov	 BYTE PTR __Addleft$[esp+16], cl
  0001b	75 20		 jne	 SHORT $L221471
  0001d	8b 55 00	 mov	 edx, DWORD PTR [ebp]
$L221470:

; 482  : 			{	// look for leaf to insert before (_Addleft) or after
; 483  : 			_Wherenode = _Trynode;
; 484  : 			_Addleft = this->comp(this->_Kfn(_Val), _Key(_Trynode));

  00020	3b 50 0c	 cmp	 edx, DWORD PTR [eax+12]
  00023	0f 92 c1	 setb	 cl

; 485  : 			_Trynode = _Addleft ? _Left(_Trynode) : _Right(_Trynode);

  00026	84 c9		 test	 cl, cl
  00028	8b f0		 mov	 esi, eax
  0002a	88 4c 24 0c	 mov	 BYTE PTR __Addleft$[esp+16], cl
  0002e	74 04		 je	 SHORT $L275926
  00030	8b 00		 mov	 eax, DWORD PTR [eax]
  00032	eb 03		 jmp	 SHORT $L275927
$L275926:
  00034	8b 40 08	 mov	 eax, DWORD PTR [eax+8]
$L275927:

; 478  : 		_Nodeptr _Trynode = _Root();
; 479  : 		_Nodeptr _Wherenode = _Myhead;
; 480  : 		bool _Addleft = true;	// add to left of head if tree empty
; 481  : 		while (!_Isnil(_Trynode))

  00037	80 78 15 00	 cmp	 BYTE PTR [eax+21], 0
  0003b	74 e3		 je	 SHORT $L221470
$L221471:

; 486  : 			}
; 487  : 
; 488  : 		if (this->_Multi)
; 489  : 			return (_Pairib(_Insert(_Addleft, _Wherenode, _Val), true));
; 490  : 		else
; 491  : 			{	// insert only if unique
; 492  : 			iterator _Where = _TREE_ITERATOR(_Wherenode);
; 493  : 			if (!_Addleft)

  0003d	84 c9		 test	 cl, cl
  0003f	8b d6		 mov	 edx, esi
  00041	89 54 24 18	 mov	 DWORD PTR __Where$221481[esp+12], edx
  00045	74 33		 je	 SHORT $L276027

; 494  : 				;	// need to test if insert after is okay
; 495  : 			else if (_Where == begin())

  00047	8b 47 04	 mov	 eax, DWORD PTR [edi+4]
  0004a	3b 30		 cmp	 esi, DWORD PTR [eax]

; 496  : 				return (_Pairib(_Insert(true, _Wherenode, _Val), true));

  0004c	8d 4c 24 18	 lea	 ecx, DWORD PTR $T275932[esp+12]
  00050	75 1f		 jne	 SHORT $L221486
  00052	55		 push	 ebp
  00053	56		 push	 esi
  00054	6a 01		 push	 1
  00056	51		 push	 ecx
  00057	8b cf		 mov	 ecx, edi
  00059	e8 00 00 00 00	 call	 ?_Insert@?$_Tree@V?$_Tmap_traits@KPAVCUser@@U?$less@K@std@@V?$allocator@U?$pair@$$CBKPAVCUser@@@std@@@3@$0A@@std@@@std@@IAE?AViterator@12@_NPAU_Node@?$_Tree_nod@V?$_Tmap_traits@KPAVCUser@@U?$less@K@std@@V?$allocator@U?$pair@$$CBKPAVCUser@@@std@@@3@$0A@@std@@@2@ABU?$pair@$$CBKPAVCUser@@@2@@Z ; std::_Tree<std::_Tmap_traits<unsigned long,CUser *,std::less<unsigned long>,std::allocator<std::pair<unsigned long const ,CUser *> >,0> >::_Insert
  0005e	8b 10		 mov	 edx, DWORD PTR [eax]
  00060	8b 44 24 14	 mov	 eax, DWORD PTR ___$ReturnUdt$[esp+12]
  00064	5f		 pop	 edi
  00065	5e		 pop	 esi
  00066	c6 40 04 01	 mov	 BYTE PTR [eax+4], 1

; 502  : 			else
; 503  : 				return (_Pairib(_Where, false));

  0006a	89 10		 mov	 DWORD PTR [eax], edx
  0006c	5d		 pop	 ebp

; 504  : 			}
; 505  : 		}

  0006d	59		 pop	 ecx
  0006e	c2 08 00	 ret	 8
$L221486:

; 497  : 			else
; 498  : 				--_Where;	// need to test if insert before is okay

  00071	e8 00 00 00 00	 call	 ?_Dec@const_iterator@?$_Tree@V?$_Tmap_traits@KPAVCUser@@U?$less@K@std@@V?$allocator@U?$pair@$$CBKPAVCUser@@@std@@@3@$0A@@std@@@std@@QAEXXZ ; std::_Tree<std::_Tmap_traits<unsigned long,CUser *,std::less<unsigned long>,std::allocator<std::pair<unsigned long const ,CUser *> >,0> >::const_iterator::_Dec
  00076	8b 54 24 18	 mov	 edx, DWORD PTR __Where$221481[esp+12]
$L276027:

; 499  : 
; 500  : 			if (this->comp(_Key(_Where._Mynode()), this->_Kfn(_Val)))

  0007a	8b 42 0c	 mov	 eax, DWORD PTR [edx+12]
  0007d	3b 45 00	 cmp	 eax, DWORD PTR [ebp]
  00080	73 26		 jae	 SHORT $L221491

; 501  : 				return (_Pairib(_Insert(_Addleft, _Wherenode, _Val), true));

  00082	8b 4c 24 0c	 mov	 ecx, DWORD PTR __Addleft$[esp+16]
  00086	55		 push	 ebp
  00087	56		 push	 esi
  00088	51		 push	 ecx
  00089	8d 54 24 24	 lea	 edx, DWORD PTR $T275934[esp+24]
  0008d	52		 push	 edx
  0008e	8b cf		 mov	 ecx, edi
  00090	e8 00 00 00 00	 call	 ?_Insert@?$_Tree@V?$_Tmap_traits@KPAVCUser@@U?$less@K@std@@V?$allocator@U?$pair@$$CBKPAVCUser@@@std@@@3@$0A@@std@@@std@@IAE?AViterator@12@_NPAU_Node@?$_Tree_nod@V?$_Tmap_traits@KPAVCUser@@U?$less@K@std@@V?$allocator@U?$pair@$$CBKPAVCUser@@@std@@@3@$0A@@std@@@2@ABU?$pair@$$CBKPAVCUser@@@2@@Z ; std::_Tree<std::_Tmap_traits<unsigned long,CUser *,std::less<unsigned long>,std::allocator<std::pair<unsigned long const ,CUser *> >,0> >::_Insert
  00095	8b 08		 mov	 ecx, DWORD PTR [eax]
  00097	8b 44 24 14	 mov	 eax, DWORD PTR ___$ReturnUdt$[esp+12]
  0009b	5f		 pop	 edi
  0009c	5e		 pop	 esi
  0009d	89 08		 mov	 DWORD PTR [eax], ecx
  0009f	c6 40 04 01	 mov	 BYTE PTR [eax+4], 1
  000a3	5d		 pop	 ebp

; 504  : 			}
; 505  : 		}

  000a4	59		 pop	 ecx
  000a5	c2 08 00	 ret	 8
$L221491:

; 502  : 			else
; 503  : 				return (_Pairib(_Where, false));

  000a8	8b 44 24 14	 mov	 eax, DWORD PTR ___$ReturnUdt$[esp+12]
  000ac	5f		 pop	 edi
  000ad	5e		 pop	 esi
  000ae	c6 40 04 00	 mov	 BYTE PTR [eax+4], 0
  000b2	89 10		 mov	 DWORD PTR [eax], edx
  000b4	5d		 pop	 ebp

; 504  : 			}
; 505  : 		}

  000b5	59		 pop	 ecx
  000b6	c2 08 00	 ret	 8
?insert@?$_Tree@V?$_Tmap_traits@KPAVCUser@@U?$less@K@std@@V?$allocator@U?$pair@$$CBKPAVCUser@@@std@@@3@$0A@@std@@@std@@QAE?AU?$pair@Viterator@?$_Tree@V?$_Tmap_traits@KPAVCUser@@U?$less@K@std@@V?$allocator@U?$pair@$$CBKPAVCUser@@@std@@@3@$0A@@std@@@std@@_N@2@ABU?$pair@$$CBKPAVCUser@@@2@@Z ENDP ; std::_Tree<std::_Tmap_traits<unsigned long,CUser *,std::less<unsigned long>,std::allocator<std::pair<unsigned long const ,CUser *> >,0> >::insert
_TEXT	ENDS
PUBLIC	?_Buy@?$vector@UENVIR_INFO@@V?$allocator@UENVIR_INFO@@@std@@@std@@IAE_NI@Z ; std::vector<ENVIR_INFO,std::allocator<ENVIR_INFO> >::_Buy
; Function compile flags: /Ogty
; File c:\program files\microsoft visual studio .net 2003\vc7\include\vector
;	COMDAT ?_Buy@?$vector@UENVIR_INFO@@V?$allocator@UENVIR_INFO@@@std@@@std@@IAE_NI@Z
_TEXT	SEGMENT
__Capacity$ = 8						; size = 4
?_Buy@?$vector@UENVIR_INFO@@V?$allocator@UENVIR_INFO@@@std@@@std@@IAE_NI@Z PROC NEAR ; std::vector<ENVIR_INFO,std::allocator<ENVIR_INFO> >::_Buy, COMDAT
; _this$ = ecx

; 770  : 		{	// allocate array with _Capacity elements

  00000	56		 push	 esi

; 771  : 		_Myfirst = 0, _Mylast = 0, _Myend = 0;

  00001	33 c0		 xor	 eax, eax
  00003	57		 push	 edi

; 772  : 		if (_Capacity == 0)

  00004	8b 7c 24 0c	 mov	 edi, DWORD PTR __Capacity$[esp+4]
  00008	3b f8		 cmp	 edi, eax
  0000a	8b f1		 mov	 esi, ecx
  0000c	89 46 04	 mov	 DWORD PTR [esi+4], eax
  0000f	89 46 08	 mov	 DWORD PTR [esi+8], eax
  00012	89 46 0c	 mov	 DWORD PTR [esi+12], eax
  00015	75 07		 jne	 SHORT $L264804
  00017	5f		 pop	 edi

; 773  : 			return (false);

  00018	32 c0		 xor	 al, al
  0001a	5e		 pop	 esi

; 783  : 		}

  0001b	c2 04 00	 ret	 4
$L264804:

; 774  : 		else if (max_size() < _Capacity)

  0001e	81 ff e5 b1 15
	01		 cmp	 edi, 18199013		; 0115b1e5H
  00024	76 07		 jbe	 SHORT $L264806

; 775  : 			_Xlen();	// result too long

  00026	8b ce		 mov	 ecx, esi
  00028	e8 00 00 00 00	 call	 ?_Xlen@?$vector@UENVIR_INFO@@V?$allocator@UENVIR_INFO@@@std@@@std@@IBEXXZ ; std::vector<ENVIR_INFO,std::allocator<ENVIR_INFO> >::_Xlen
$L276088:
$L264806:

; 776  : 		else
; 777  : 			{	// nonempty array, allocate storage
; 778  : 			_Myfirst = this->_Alval.allocate(_Capacity);

  0002d	69 ff ec 00 00
	00		 imul	 edi, 236		; 000000ecH
  00033	57		 push	 edi
  00034	e8 00 00 00 00	 call	 ??2@YAPAXI@Z		; operator new

; 779  : 			_Mylast = _Myfirst;
; 780  : 			_Myend = _Myfirst + _Capacity;

  00039	03 f8		 add	 edi, eax
  0003b	83 c4 04	 add	 esp, 4
  0003e	89 7e 0c	 mov	 DWORD PTR [esi+12], edi
  00041	89 46 04	 mov	 DWORD PTR [esi+4], eax
  00044	89 46 08	 mov	 DWORD PTR [esi+8], eax
  00047	5f		 pop	 edi

; 781  : 			}
; 782  : 		return (true);

  00048	b0 01		 mov	 al, 1
  0004a	5e		 pop	 esi

; 783  : 		}

  0004b	c2 04 00	 ret	 4
$L276087:
?_Buy@?$vector@UENVIR_INFO@@V?$allocator@UENVIR_INFO@@@std@@@std@@IAE_NI@Z ENDP ; std::vector<ENVIR_INFO,std::allocator<ENVIR_INFO> >::_Buy
_TEXT	ENDS
PUBLIC	?_Buy@?$vector@PAVCObj@@V?$allocator@PAVCObj@@@std@@@std@@IAE_NI@Z ; std::vector<CObj *,std::allocator<CObj *> >::_Buy
; Function compile flags: /Ogty
;	COMDAT ?_Buy@?$vector@PAVCObj@@V?$allocator@PAVCObj@@@std@@@std@@IAE_NI@Z
_TEXT	SEGMENT
__Capacity$ = 8						; size = 4
?_Buy@?$vector@PAVCObj@@V?$allocator@PAVCObj@@@std@@@std@@IAE_NI@Z PROC NEAR ; std::vector<CObj *,std::allocator<CObj *> >::_Buy, COMDAT
; _this$ = ecx

; 771  : 		_Myfirst = 0, _Mylast = 0, _Myend = 0;
; 772  : 		if (_Capacity == 0)

  00000	8b 44 24 04	 mov	 eax, DWORD PTR __Capacity$[esp-4]
  00004	56		 push	 esi
  00005	8b f1		 mov	 esi, ecx
  00007	33 c9		 xor	 ecx, ecx
  00009	3b c1		 cmp	 eax, ecx
  0000b	89 4e 04	 mov	 DWORD PTR [esi+4], ecx
  0000e	89 4e 08	 mov	 DWORD PTR [esi+8], ecx
  00011	89 4e 0c	 mov	 DWORD PTR [esi+12], ecx
  00014	75 06		 jne	 SHORT $L264821

; 773  : 			return (false);

  00016	32 c0		 xor	 al, al
  00018	5e		 pop	 esi

; 783  : 		}

  00019	c2 04 00	 ret	 4
$L264821:

; 774  : 		else if (max_size() < _Capacity)

  0001c	3d ff ff ff 3f	 cmp	 eax, 1073741823		; 3fffffffH
  00021	76 07		 jbe	 SHORT $L264823

; 775  : 			_Xlen();	// result too long

  00023	8b ce		 mov	 ecx, esi
  00025	e8 00 00 00 00	 call	 ?_Xlen@?$vector@PAVCObj@@V?$allocator@PAVCObj@@@std@@@std@@IBEXXZ ; std::vector<CObj *,std::allocator<CObj *> >::_Xlen
$L276117:
$L264823:
  0002a	57		 push	 edi

; 776  : 		else
; 777  : 			{	// nonempty array, allocate storage
; 778  : 			_Myfirst = this->_Alval.allocate(_Capacity);

  0002b	8d 3c 85 00 00
	00 00		 lea	 edi, DWORD PTR [eax*4]
  00032	57		 push	 edi
  00033	e8 00 00 00 00	 call	 ??2@YAPAXI@Z		; operator new

; 779  : 			_Mylast = _Myfirst;
; 780  : 			_Myend = _Myfirst + _Capacity;

  00038	03 f8		 add	 edi, eax
  0003a	83 c4 04	 add	 esp, 4
  0003d	89 7e 0c	 mov	 DWORD PTR [esi+12], edi
  00040	89 46 04	 mov	 DWORD PTR [esi+4], eax
  00043	89 46 08	 mov	 DWORD PTR [esi+8], eax
  00046	5f		 pop	 edi

; 781  : 			}
; 782  : 		return (true);

  00047	b0 01		 mov	 al, 1
  00049	5e		 pop	 esi

; 783  : 		}

  0004a	c2 04 00	 ret	 4
$L276116:
?_Buy@?$vector@PAVCObj@@V?$allocator@PAVCObj@@@std@@@std@@IAE_NI@Z ENDP ; std::vector<CObj *,std::allocator<CObj *> >::_Buy
_TEXT	ENDS
PUBLIC	?destroy@?$allocator@UENVIR_INFO@@@std@@QAEXPAUENVIR_INFO@@@Z ; std::allocator<ENVIR_INFO>::destroy
; Function compile flags: /Ogty
; File c:\program files\microsoft visual studio .net 2003\vc7\include\xmemory
;	COMDAT ?destroy@?$allocator@UENVIR_INFO@@@std@@QAEXPAUENVIR_INFO@@@Z
_TEXT	SEGMENT
__Ptr$ = 8						; size = 4
?destroy@?$allocator@UENVIR_INFO@@@std@@QAEXPAUENVIR_INFO@@@Z PROC NEAR ; std::allocator<ENVIR_INFO>::destroy, COMDAT
; _this$ = ecx

; 152  : 		_Destroy(_Ptr);

  00000	8b 4c 24 04	 mov	 ecx, DWORD PTR __Ptr$[esp-4]
  00004	e8 00 00 00 00	 call	 ??1ENVIR_INFO@@QAE@XZ

; 153  : 		}

  00009	c2 04 00	 ret	 4
?destroy@?$allocator@UENVIR_INFO@@@std@@QAEXPAUENVIR_INFO@@@Z ENDP ; std::allocator<ENVIR_INFO>::destroy
_TEXT	ENDS
PUBLIC	??0?$vector@UD3DXVECTOR3@@V?$allocator@UD3DXVECTOR3@@@std@@@std@@QAE@XZ ; std::vector<D3DXVECTOR3,std::allocator<D3DXVECTOR3> >::vector<D3DXVECTOR3,std::allocator<D3DXVECTOR3> >
; Function compile flags: /Ogty
; File c:\program files\microsoft visual studio .net 2003\vc7\include\vector
;	COMDAT ??0?$vector@UD3DXVECTOR3@@V?$allocator@UD3DXVECTOR3@@@std@@@std@@QAE@XZ
_TEXT	SEGMENT
??0?$vector@UD3DXVECTOR3@@V?$allocator@UD3DXVECTOR3@@@std@@@std@@QAE@XZ PROC NEAR ; std::vector<D3DXVECTOR3,std::allocator<D3DXVECTOR3> >::vector<D3DXVECTOR3,std::allocator<D3DXVECTOR3> >, COMDAT
; _this$ = ecx

; 299  : 		{	// construct empty vector

  00000	8b c1		 mov	 eax, ecx

; 300  : 		_Buy(0);

  00002	33 c9		 xor	 ecx, ecx
  00004	89 48 04	 mov	 DWORD PTR [eax+4], ecx
  00007	89 48 08	 mov	 DWORD PTR [eax+8], ecx
  0000a	89 48 0c	 mov	 DWORD PTR [eax+12], ecx

; 301  : 		}

  0000d	c3		 ret	 0
??0?$vector@UD3DXVECTOR3@@V?$allocator@UD3DXVECTOR3@@@std@@@std@@QAE@XZ ENDP ; std::vector<D3DXVECTOR3,std::allocator<D3DXVECTOR3> >::vector<D3DXVECTOR3,std::allocator<D3DXVECTOR3> >
_TEXT	ENDS
PUBLIC	?insert@?$_Tree@V?$_Tmap_traits@KPAVCUser@@U?$less@K@std@@V?$allocator@U?$pair@$$CBKPAVCUser@@@std@@@3@$0A@@std@@@std@@QAE?AViterator@12@V312@ABU?$pair@$$CBKPAVCUser@@@2@@Z ; std::_Tree<std::_Tmap_traits<unsigned long,CUser *,std::less<unsigned long>,std::allocator<std::pair<unsigned long const ,CUser *> >,0> >::insert
; Function compile flags: /Ogty
; File c:\program files\microsoft visual studio .net 2003\vc7\include\xtree
;	COMDAT ?insert@?$_Tree@V?$_Tmap_traits@KPAVCUser@@U?$less@K@std@@V?$allocator@U?$pair@$$CBKPAVCUser@@@std@@@3@$0A@@std@@@std@@QAE?AViterator@12@V312@ABU?$pair@$$CBKPAVCUser@@@2@@Z
_TEXT	SEGMENT
$T276200 = -8						; size = 8
___$ReturnUdt$ = 8					; size = 4
__Where$ = 12						; size = 4
__Next$ = 16						; size = 4
__Val$ = 16						; size = 4
?insert@?$_Tree@V?$_Tmap_traits@KPAVCUser@@U?$less@K@std@@V?$allocator@U?$pair@$$CBKPAVCUser@@@std@@@3@$0A@@std@@@std@@QAE?AViterator@12@V312@ABU?$pair@$$CBKPAVCUser@@@2@@Z PROC NEAR ; std::_Tree<std::_Tmap_traits<unsigned long,CUser *,std::less<unsigned long>,std::allocator<std::pair<unsigned long const ,CUser *> >,0> >::insert, COMDAT
; _this$ = ecx

; 509  : 		{	// try to insert node with value _Val using _Where as a hint

  00000	83 ec 08	 sub	 esp, 8
  00003	56		 push	 esi
  00004	57		 push	 edi
  00005	8b f9		 mov	 edi, ecx

; 510  : 		iterator _Next;
; 511  : 
; 512  : 		if (size() == 0)

  00007	8b 47 08	 mov	 eax, DWORD PTR [edi+8]
  0000a	85 c0		 test	 eax, eax
  0000c	75 21		 jne	 SHORT $L220296

; 513  : 			return (_Insert(true, _Myhead, _Val));	// insert into empty tree

  0000e	8b 44 24 1c	 mov	 eax, DWORD PTR __Val$[esp+12]
  00012	8b 4f 04	 mov	 ecx, DWORD PTR [edi+4]
  00015	8b 74 24 14	 mov	 esi, DWORD PTR ___$ReturnUdt$[esp+12]
  00019	50		 push	 eax
  0001a	51		 push	 ecx
  0001b	6a 01		 push	 1
  0001d	56		 push	 esi
  0001e	8b cf		 mov	 ecx, edi
  00020	e8 00 00 00 00	 call	 ?_Insert@?$_Tree@V?$_Tmap_traits@KPAVCUser@@U?$less@K@std@@V?$allocator@U?$pair@$$CBKPAVCUser@@@std@@@3@$0A@@std@@@std@@IAE?AViterator@12@_NPAU_Node@?$_Tree_nod@V?$_Tmap_traits@KPAVCUser@@U?$less@K@std@@V?$allocator@U?$pair@$$CBKPAVCUser@@@std@@@3@$0A@@std@@@2@ABU?$pair@$$CBKPAVCUser@@@2@@Z ; std::_Tree<std::_Tmap_traits<unsigned long,CUser *,std::less<unsigned long>,std::allocator<std::pair<unsigned long const ,CUser *> >,0> >::_Insert
  00025	5f		 pop	 edi
  00026	8b c6		 mov	 eax, esi
  00028	5e		 pop	 esi

; 580  : 		}

  00029	83 c4 08	 add	 esp, 8
  0002c	c2 0c 00	 ret	 12			; 0000000cH
$L220296:

; 514  : 		else if (this->_Multi)
; 515  : 			{	// insert even if duplicate
; 516  : 			if (_Where == begin())
; 517  : 				{	// insert at beginning if before first element
; 518  : 				if (!this->comp(_Key(_Where._Mynode()), this->_Kfn(_Val)))
; 519  : 					return (_Insert(true, _Where._Mynode(), _Val));
; 520  : 				}
; 521  : 			else if (_Where == end())
; 522  : 				{	// insert at end if after last element
; 523  : 				if (!this->comp(this->_Kfn(_Val), _Key(_Rmost())))
; 524  : 					return (_Insert(false, _Rmost(), _Val));
; 525  : 				}
; 526  : 			else if (!this->comp(_Key(_Where._Mynode()), this->_Kfn(_Val))
; 527  : 				&& !this->comp(this->_Kfn(_Val),
; 528  : 					_Key((--(_Next = _Where))._Mynode())))
; 529  : 				{	// insert before _Where
; 530  : 				if (_Isnil(_Right(_Next._Mynode())))
; 531  : 					return (_Insert(false, _Next._Mynode(), _Val));
; 532  : 				else
; 533  : 					return (_Insert(true, _Where._Mynode(), _Val));
; 534  : 				}
; 535  : 			else if (!this->comp(this->_Kfn(_Val), _Key(_Where._Mynode()))
; 536  : 				&& (++(_Next = _Where) == end()
; 537  : 					|| !this->comp(_Key(_Next._Mynode()),
; 538  : 						this->_Kfn(_Val))))
; 539  : 				{	// insert after _Where
; 540  : 				if (_Isnil(_Right(_Where._Mynode())))
; 541  : 					return (_Insert(false, _Where._Mynode(), _Val));
; 542  : 				else
; 543  : 					return (_Insert(true, _Next._Mynode(), _Val));
; 544  : 				}
; 545  : 			}
; 546  : 		else
; 547  : 			{	// insert only if unique
; 548  : 			if (_Where == begin())

  0002f	8b 47 04	 mov	 eax, DWORD PTR [edi+4]
  00032	8b 08		 mov	 ecx, DWORD PTR [eax]

; 549  : 				{	// insert at beginning if before first element
; 550  : 				if (this->comp(this->_Kfn(_Val), _Key(_Where._Mynode())))

  00034	8b 74 24 1c	 mov	 esi, DWORD PTR __Val$[esp+12]
  00038	53		 push	 ebx
  00039	8b 5c 24 1c	 mov	 ebx, DWORD PTR __Where$[esp+16]
  0003d	3b d9		 cmp	 ebx, ecx
  0003f	55		 push	 ebp
  00040	75 27		 jne	 SHORT $L220325
  00042	8b 16		 mov	 edx, DWORD PTR [esi]
  00044	3b 53 0c	 cmp	 edx, DWORD PTR [ebx+12]
  00047	0f 83 fd 00 00
	00		 jae	 $L220345

; 551  : 					return (_Insert(true, _Where._Mynode(), _Val));

  0004d	56		 push	 esi
  0004e	8b 74 24 20	 mov	 esi, DWORD PTR ___$ReturnUdt$[esp+24]
  00052	53		 push	 ebx
  00053	6a 01		 push	 1
  00055	56		 push	 esi
  00056	8b cf		 mov	 ecx, edi
  00058	e8 00 00 00 00	 call	 ?_Insert@?$_Tree@V?$_Tmap_traits@KPAVCUser@@U?$less@K@std@@V?$allocator@U?$pair@$$CBKPAVCUser@@@std@@@3@$0A@@std@@@std@@IAE?AViterator@12@_NPAU_Node@?$_Tree_nod@V?$_Tmap_traits@KPAVCUser@@U?$less@K@std@@V?$allocator@U?$pair@$$CBKPAVCUser@@@std@@@3@$0A@@std@@@2@ABU?$pair@$$CBKPAVCUser@@@2@@Z ; std::_Tree<std::_Tmap_traits<unsigned long,CUser *,std::less<unsigned long>,std::allocator<std::pair<unsigned long const ,CUser *> >,0> >::_Insert
  0005d	5d		 pop	 ebp
  0005e	5b		 pop	 ebx
  0005f	5f		 pop	 edi
  00060	8b c6		 mov	 eax, esi
  00062	5e		 pop	 esi

; 580  : 		}

  00063	83 c4 08	 add	 esp, 8
  00066	c2 0c 00	 ret	 12			; 0000000cH
$L220325:

; 552  : 				}
; 553  : 			else if (_Where == end())

  00069	3b d8		 cmp	 ebx, eax
  0006b	75 2a		 jne	 SHORT $L220330

; 554  : 				{	// insert at end if after last element
; 555  : 				if (this->comp(_Key(_Rmost()), this->_Kfn(_Val)))

  0006d	8b 40 08	 mov	 eax, DWORD PTR [eax+8]
  00070	8b 48 0c	 mov	 ecx, DWORD PTR [eax+12]
  00073	3b 0e		 cmp	 ecx, DWORD PTR [esi]
  00075	0f 83 cf 00 00
	00		 jae	 $L220345

; 556  : 					return (_Insert(false, _Rmost(), _Val));

  0007b	56		 push	 esi
  0007c	8b 74 24 20	 mov	 esi, DWORD PTR ___$ReturnUdt$[esp+24]
  00080	50		 push	 eax
  00081	6a 00		 push	 0
  00083	56		 push	 esi
  00084	8b cf		 mov	 ecx, edi
  00086	e8 00 00 00 00	 call	 ?_Insert@?$_Tree@V?$_Tmap_traits@KPAVCUser@@U?$less@K@std@@V?$allocator@U?$pair@$$CBKPAVCUser@@@std@@@3@$0A@@std@@@std@@IAE?AViterator@12@_NPAU_Node@?$_Tree_nod@V?$_Tmap_traits@KPAVCUser@@U?$less@K@std@@V?$allocator@U?$pair@$$CBKPAVCUser@@@std@@@3@$0A@@std@@@2@ABU?$pair@$$CBKPAVCUser@@@2@@Z ; std::_Tree<std::_Tmap_traits<unsigned long,CUser *,std::less<unsigned long>,std::allocator<std::pair<unsigned long const ,CUser *> >,0> >::_Insert
  0008b	5d		 pop	 ebp
  0008c	5b		 pop	 ebx
  0008d	5f		 pop	 edi
  0008e	8b c6		 mov	 eax, esi
  00090	5e		 pop	 esi

; 580  : 		}

  00091	83 c4 08	 add	 esp, 8
  00094	c2 0c 00	 ret	 12			; 0000000cH
$L220330:

; 557  : 				}
; 558  : 			else if (this->comp(this->_Kfn(_Val), _Key(_Where._Mynode()))
; 559  : 				&& this->comp(_Key((--(_Next = _Where))._Mynode()),
; 560  : 					this->_Kfn(_Val)))

  00097	8b 2e		 mov	 ebp, DWORD PTR [esi]
  00099	39 6b 0c	 cmp	 DWORD PTR [ebx+12], ebp
  0009c	76 54		 jbe	 SHORT $L276743
  0009e	8d 4c 24 24	 lea	 ecx, DWORD PTR __Next$[esp+20]
  000a2	89 5c 24 24	 mov	 DWORD PTR __Next$[esp+20], ebx
  000a6	e8 00 00 00 00	 call	 ?_Dec@const_iterator@?$_Tree@V?$_Tmap_traits@KPAVCUser@@U?$less@K@std@@V?$allocator@U?$pair@$$CBKPAVCUser@@@std@@@3@$0A@@std@@@std@@QAEXXZ ; std::_Tree<std::_Tmap_traits<unsigned long,CUser *,std::less<unsigned long>,std::allocator<std::pair<unsigned long const ,CUser *> >,0> >::const_iterator::_Dec
  000ab	8b 44 24 24	 mov	 eax, DWORD PTR __Next$[esp+20]
  000af	39 68 0c	 cmp	 DWORD PTR [eax+12], ebp
  000b2	73 3b		 jae	 SHORT $L220334

; 561  : 				{	// insert before _Where
; 562  : 				if (_Isnil(_Right(_Next._Mynode())))

  000b4	8b 50 08	 mov	 edx, DWORD PTR [eax+8]
  000b7	8a 4a 15	 mov	 cl, BYTE PTR [edx+21]

; 563  : 					return (_Insert(false, _Next._Mynode(), _Val));

  000ba	56		 push	 esi
  000bb	8b 74 24 20	 mov	 esi, DWORD PTR ___$ReturnUdt$[esp+24]
  000bf	84 c9		 test	 cl, cl
  000c1	8b cf		 mov	 ecx, edi
  000c3	74 15		 je	 SHORT $L220335
  000c5	50		 push	 eax
  000c6	6a 00		 push	 0
  000c8	56		 push	 esi
  000c9	e8 00 00 00 00	 call	 ?_Insert@?$_Tree@V?$_Tmap_traits@KPAVCUser@@U?$less@K@std@@V?$allocator@U?$pair@$$CBKPAVCUser@@@std@@@3@$0A@@std@@@std@@IAE?AViterator@12@_NPAU_Node@?$_Tree_nod@V?$_Tmap_traits@KPAVCUser@@U?$less@K@std@@V?$allocator@U?$pair@$$CBKPAVCUser@@@std@@@3@$0A@@std@@@2@ABU?$pair@$$CBKPAVCUser@@@2@@Z ; std::_Tree<std::_Tmap_traits<unsigned long,CUser *,std::less<unsigned long>,std::allocator<std::pair<unsigned long const ,CUser *> >,0> >::_Insert
  000ce	5d		 pop	 ebp
  000cf	5b		 pop	 ebx
  000d0	5f		 pop	 edi
  000d1	8b c6		 mov	 eax, esi
  000d3	5e		 pop	 esi

; 580  : 		}

  000d4	83 c4 08	 add	 esp, 8
  000d7	c2 0c 00	 ret	 12			; 0000000cH
$L220335:

; 564  : 				else
; 565  : 					return (_Insert(true, _Where._Mynode(), _Val));

  000da	53		 push	 ebx
  000db	6a 01		 push	 1
  000dd	56		 push	 esi
  000de	e8 00 00 00 00	 call	 ?_Insert@?$_Tree@V?$_Tmap_traits@KPAVCUser@@U?$less@K@std@@V?$allocator@U?$pair@$$CBKPAVCUser@@@std@@@3@$0A@@std@@@std@@IAE?AViterator@12@_NPAU_Node@?$_Tree_nod@V?$_Tmap_traits@KPAVCUser@@U?$less@K@std@@V?$allocator@U?$pair@$$CBKPAVCUser@@@std@@@3@$0A@@std@@@2@ABU?$pair@$$CBKPAVCUser@@@2@@Z ; std::_Tree<std::_Tmap_traits<unsigned long,CUser *,std::less<unsigned long>,std::allocator<std::pair<unsigned long const ,CUser *> >,0> >::_Insert
  000e3	5d		 pop	 ebp
  000e4	5b		 pop	 ebx
  000e5	5f		 pop	 edi
  000e6	8b c6		 mov	 eax, esi
  000e8	5e		 pop	 esi

; 580  : 		}

  000e9	83 c4 08	 add	 esp, 8
  000ec	c2 0c 00	 ret	 12			; 0000000cH
$L220334:

; 566  : 				}
; 567  : 			else if (this->comp(_Key(_Where._Mynode()), this->_Kfn(_Val))
; 568  : 				&& (++(_Next = _Where) == end()
; 569  : 					|| this->comp(this->_Kfn(_Val),
; 570  : 						_Key(_Next._Mynode()))))

  000ef	39 6b 0c	 cmp	 DWORD PTR [ebx+12], ebp
$L276743:
  000f2	73 56		 jae	 SHORT $L220345
  000f4	8d 4c 24 24	 lea	 ecx, DWORD PTR __Next$[esp+20]
  000f8	89 5c 24 24	 mov	 DWORD PTR __Next$[esp+20], ebx
  000fc	e8 00 00 00 00	 call	 ?_Inc@const_iterator@?$_Tree@V?$_Tmap_traits@KPAVCUser@@U?$less@K@std@@V?$allocator@U?$pair@$$CBKPAVCUser@@@std@@@3@$0A@@std@@@std@@QAEXXZ ; std::_Tree<std::_Tmap_traits<unsigned long,CUser *,std::less<unsigned long>,std::allocator<std::pair<unsigned long const ,CUser *> >,0> >::const_iterator::_Inc
  00101	8b 44 24 24	 mov	 eax, DWORD PTR __Next$[esp+20]
  00105	3b 47 04	 cmp	 eax, DWORD PTR [edi+4]
  00108	74 05		 je	 SHORT $L220342
  0010a	3b 68 0c	 cmp	 ebp, DWORD PTR [eax+12]
  0010d	73 3b		 jae	 SHORT $L220345
$L220342:

; 571  : 				{	// insert after _Where
; 572  : 				if (_Isnil(_Right(_Where._Mynode())))

  0010f	8b 4b 08	 mov	 ecx, DWORD PTR [ebx+8]
  00112	8a 51 15	 mov	 dl, BYTE PTR [ecx+21]
  00115	84 d2		 test	 dl, dl

; 573  : 					return (_Insert(false, _Where._Mynode(), _Val));

  00117	56		 push	 esi
  00118	8b 74 24 20	 mov	 esi, DWORD PTR ___$ReturnUdt$[esp+24]
  0011c	8b cf		 mov	 ecx, edi
  0011e	74 15		 je	 SHORT $L220343
  00120	53		 push	 ebx
  00121	6a 00		 push	 0
  00123	56		 push	 esi
  00124	e8 00 00 00 00	 call	 ?_Insert@?$_Tree@V?$_Tmap_traits@KPAVCUser@@U?$less@K@std@@V?$allocator@U?$pair@$$CBKPAVCUser@@@std@@@3@$0A@@std@@@std@@IAE?AViterator@12@_NPAU_Node@?$_Tree_nod@V?$_Tmap_traits@KPAVCUser@@U?$less@K@std@@V?$allocator@U?$pair@$$CBKPAVCUser@@@std@@@3@$0A@@std@@@2@ABU?$pair@$$CBKPAVCUser@@@2@@Z ; std::_Tree<std::_Tmap_traits<unsigned long,CUser *,std::less<unsigned long>,std::allocator<std::pair<unsigned long const ,CUser *> >,0> >::_Insert
  00129	5d		 pop	 ebp
  0012a	5b		 pop	 ebx
  0012b	5f		 pop	 edi
  0012c	8b c6		 mov	 eax, esi
  0012e	5e		 pop	 esi

; 580  : 		}

  0012f	83 c4 08	 add	 esp, 8
  00132	c2 0c 00	 ret	 12			; 0000000cH
$L220343:

; 574  : 				else
; 575  : 					return (_Insert(true, _Next._Mynode(), _Val));

  00135	50		 push	 eax
  00136	6a 01		 push	 1
  00138	56		 push	 esi
  00139	e8 00 00 00 00	 call	 ?_Insert@?$_Tree@V?$_Tmap_traits@KPAVCUser@@U?$less@K@std@@V?$allocator@U?$pair@$$CBKPAVCUser@@@std@@@3@$0A@@std@@@std@@IAE?AViterator@12@_NPAU_Node@?$_Tree_nod@V?$_Tmap_traits@KPAVCUser@@U?$less@K@std@@V?$allocator@U?$pair@$$CBKPAVCUser@@@std@@@3@$0A@@std@@@2@ABU?$pair@$$CBKPAVCUser@@@2@@Z ; std::_Tree<std::_Tmap_traits<unsigned long,CUser *,std::less<unsigned long>,std::allocator<std::pair<unsigned long const ,CUser *> >,0> >::_Insert
  0013e	5d		 pop	 ebp
  0013f	5b		 pop	 ebx
  00140	5f		 pop	 edi
  00141	8b c6		 mov	 eax, esi
  00143	5e		 pop	 esi

; 580  : 		}

  00144	83 c4 08	 add	 esp, 8
  00147	c2 0c 00	 ret	 12			; 0000000cH
$L220345:

; 576  : 				}
; 577  : 			}
; 578  : 
; 579  : 		return (insert(_Val).first);	// try usual insert if all else fails

  0014a	56		 push	 esi
  0014b	8d 54 24 14	 lea	 edx, DWORD PTR $T276200[esp+28]
  0014f	52		 push	 edx
  00150	8b cf		 mov	 ecx, edi
  00152	e8 00 00 00 00	 call	 ?insert@?$_Tree@V?$_Tmap_traits@KPAVCUser@@U?$less@K@std@@V?$allocator@U?$pair@$$CBKPAVCUser@@@std@@@3@$0A@@std@@@std@@QAE?AU?$pair@Viterator@?$_Tree@V?$_Tmap_traits@KPAVCUser@@U?$less@K@std@@V?$allocator@U?$pair@$$CBKPAVCUser@@@std@@@3@$0A@@std@@@std@@_N@2@ABU?$pair@$$CBKPAVCUser@@@2@@Z ; std::_Tree<std::_Tmap_traits<unsigned long,CUser *,std::less<unsigned long>,std::allocator<std::pair<unsigned long const ,CUser *> >,0> >::insert
  00157	8b 08		 mov	 ecx, DWORD PTR [eax]
  00159	8b 44 24 1c	 mov	 eax, DWORD PTR ___$ReturnUdt$[esp+20]
  0015d	5d		 pop	 ebp
  0015e	5b		 pop	 ebx
  0015f	5f		 pop	 edi
  00160	89 08		 mov	 DWORD PTR [eax], ecx
  00162	5e		 pop	 esi

; 580  : 		}

  00163	83 c4 08	 add	 esp, 8
  00166	c2 0c 00	 ret	 12			; 0000000cH
?insert@?$_Tree@V?$_Tmap_traits@KPAVCUser@@U?$less@K@std@@V?$allocator@U?$pair@$$CBKPAVCUser@@@std@@@3@$0A@@std@@@std@@QAE?AViterator@12@V312@ABU?$pair@$$CBKPAVCUser@@@2@@Z ENDP ; std::_Tree<std::_Tmap_traits<unsigned long,CUser *,std::less<unsigned long>,std::allocator<std::pair<unsigned long const ,CUser *> >,0> >::insert
_TEXT	ENDS
PUBLIC	??0?$vector@UENVIR_INFO@@V?$allocator@UENVIR_INFO@@@std@@@std@@QAE@XZ ; std::vector<ENVIR_INFO,std::allocator<ENVIR_INFO> >::vector<ENVIR_INFO,std::allocator<ENVIR_INFO> >
; Function compile flags: /Ogty
; File c:\program files\microsoft visual studio .net 2003\vc7\include\vector
;	COMDAT ??0?$vector@UENVIR_INFO@@V?$allocator@UENVIR_INFO@@@std@@@std@@QAE@XZ
_TEXT	SEGMENT
??0?$vector@UENVIR_INFO@@V?$allocator@UENVIR_INFO@@@std@@@std@@QAE@XZ PROC NEAR ; std::vector<ENVIR_INFO,std::allocator<ENVIR_INFO> >::vector<ENVIR_INFO,std::allocator<ENVIR_INFO> >, COMDAT
; _this$ = ecx

; 299  : 		{	// construct empty vector

  00000	8b c1		 mov	 eax, ecx

; 300  : 		_Buy(0);

  00002	33 c9		 xor	 ecx, ecx
  00004	89 48 04	 mov	 DWORD PTR [eax+4], ecx
  00007	89 48 08	 mov	 DWORD PTR [eax+8], ecx
  0000a	89 48 0c	 mov	 DWORD PTR [eax+12], ecx

; 301  : 		}

  0000d	c3		 ret	 0
??0?$vector@UENVIR_INFO@@V?$allocator@UENVIR_INFO@@@std@@@std@@QAE@XZ ENDP ; std::vector<ENVIR_INFO,std::allocator<ENVIR_INFO> >::vector<ENVIR_INFO,std::allocator<ENVIR_INFO> >
_TEXT	ENDS
PUBLIC	??0?$vector@PAVCObj@@V?$allocator@PAVCObj@@@std@@@std@@QAE@XZ ; std::vector<CObj *,std::allocator<CObj *> >::vector<CObj *,std::allocator<CObj *> >
; Function compile flags: /Ogty
;	COMDAT ??0?$vector@PAVCObj@@V?$allocator@PAVCObj@@@std@@@std@@QAE@XZ
_TEXT	SEGMENT
??0?$vector@PAVCObj@@V?$allocator@PAVCObj@@@std@@@std@@QAE@XZ PROC NEAR ; std::vector<CObj *,std::allocator<CObj *> >::vector<CObj *,std::allocator<CObj *> >, COMDAT
; _this$ = ecx

; 299  : 		{	// construct empty vector

  00000	8b c1		 mov	 eax, ecx

; 300  : 		_Buy(0);

  00002	33 c9		 xor	 ecx, ecx
  00004	89 48 04	 mov	 DWORD PTR [eax+4], ecx
  00007	89 48 08	 mov	 DWORD PTR [eax+8], ecx
  0000a	89 48 0c	 mov	 DWORD PTR [eax+12], ecx

; 301  : 		}

  0000d	c3		 ret	 0
??0?$vector@PAVCObj@@V?$allocator@PAVCObj@@@std@@@std@@QAE@XZ ENDP ; std::vector<CObj *,std::allocator<CObj *> >::vector<CObj *,std::allocator<CObj *> >
_TEXT	ENDS
PUBLIC	??$_Destroy_range@UENVIR_INFO@@V?$allocator@UENVIR_INFO@@@std@@@std@@YAXPAUENVIR_INFO@@0AAV?$allocator@UENVIR_INFO@@@0@U_Nonscalar_ptr_iterator_tag@0@@Z ; std::_Destroy_range<ENVIR_INFO,std::allocator<ENVIR_INFO> >
; Function compile flags: /Ogty
; File c:\program files\microsoft visual studio .net 2003\vc7\include\xmemory
;	COMDAT ??$_Destroy_range@UENVIR_INFO@@V?$allocator@UENVIR_INFO@@@std@@@std@@YAXPAUENVIR_INFO@@0AAV?$allocator@UENVIR_INFO@@@0@U_Nonscalar_ptr_iterator_tag@0@@Z
_TEXT	SEGMENT
__First$ = 8						; size = 4
__Last$ = 12						; size = 4
__Al$ = 16						; size = 4
___formal$ = 20						; size = 1
??$_Destroy_range@UENVIR_INFO@@V?$allocator@UENVIR_INFO@@@std@@@std@@YAXPAUENVIR_INFO@@0AAV?$allocator@UENVIR_INFO@@@0@U_Nonscalar_ptr_iterator_tag@0@@Z PROC NEAR ; std::_Destroy_range<ENVIR_INFO,std::allocator<ENVIR_INFO> >, COMDAT

; 224  : 	{	// destroy [_First, _Last), arbitrary type

  00000	56		 push	 esi

; 225  : 	for (; _First != _Last; ++_First)

  00001	8b 74 24 08	 mov	 esi, DWORD PTR __First$[esp]
  00005	57		 push	 edi
  00006	8b 7c 24 10	 mov	 edi, DWORD PTR __Last$[esp+4]
  0000a	3b f7		 cmp	 esi, edi
  0000c	74 13		 je	 SHORT $L267755
  0000e	8b ff		 npad	 2
$L267753:

; 226  : 		_Al.destroy(_First);

  00010	8b ce		 mov	 ecx, esi
  00012	e8 00 00 00 00	 call	 ??1ENVIR_INFO@@QAE@XZ
  00017	81 c6 ec 00 00
	00		 add	 esi, 236		; 000000ecH
  0001d	3b f7		 cmp	 esi, edi
  0001f	75 ef		 jne	 SHORT $L267753
$L267755:
  00021	5f		 pop	 edi
  00022	5e		 pop	 esi

; 227  : 	}

  00023	c3		 ret	 0
??$_Destroy_range@UENVIR_INFO@@V?$allocator@UENVIR_INFO@@@std@@@std@@YAXPAUENVIR_INFO@@0AAV?$allocator@UENVIR_INFO@@@0@U_Nonscalar_ptr_iterator_tag@0@@Z ENDP ; std::_Destroy_range<ENVIR_INFO,std::allocator<ENVIR_INFO> >
_TEXT	ENDS
PUBLIC	??0ENVIR_INFO@@QAE@XZ				; ENVIR_INFO::ENVIR_INFO
;	COMDAT xdata$x
xdata$x	SEGMENT
$T277592 DD	0ffffffffH
	DD	FLAT:$L276890
	DD	00H
	DD	FLAT:$L276891
	DD	01H
	DD	FLAT:$L276892
	DD	02H
	DD	FLAT:$L276893
	DD	03H
	DD	FLAT:$L276894
$T277590 DD	019930520H
	DD	05H
	DD	FLAT:$T277592
	DD	2 DUP(00H)
	DD	2 DUP(00H)
; Function compile flags: /Ogty
; File c:\documents and settings\test\mes documents\source\virtuos_v17\build\program\_common\world.h
xdata$x	ENDS
;	COMDAT ??0ENVIR_INFO@@QAE@XZ
_TEXT	SEGMENT
_this$ = -16						; size = 4
__$EHRec$ = -12						; size = 12
??0ENVIR_INFO@@QAE@XZ PROC NEAR				; ENVIR_INFO::ENVIR_INFO, COMDAT
; _this$ = ecx

; 117  : 	ENVIR_INFO( )

  00000	6a ff		 push	 -1
  00002	68 00 00 00 00	 push	 __ehhandler$??0ENVIR_INFO@@QAE@XZ
  00007	64 a1 00 00 00
	00		 mov	 eax, DWORD PTR fs:__except_list
  0000d	50		 push	 eax
  0000e	64 89 25 00 00
	00 00		 mov	 DWORD PTR fs:__except_list, esp
  00015	51		 push	 ecx
  00016	8b c1		 mov	 eax, ecx
  00018	33 c9		 xor	 ecx, ecx
  0001a	ba 0f 00 00 00	 mov	 edx, 15			; 0000000fH
  0001f	89 50 1c	 mov	 DWORD PTR [eax+28], edx
  00022	89 48 18	 mov	 DWORD PTR [eax+24], ecx
  00025	88 48 08	 mov	 BYTE PTR [eax+8], cl
  00028	89 50 68	 mov	 DWORD PTR [eax+104], edx
  0002b	89 48 64	 mov	 DWORD PTR [eax+100], ecx
  0002e	88 48 54	 mov	 BYTE PTR [eax+84], cl
  00031	89 48 4c	 mov	 DWORD PTR [eax+76], ecx
  00034	89 48 6c	 mov	 DWORD PTR [eax+108], ecx
  00037	89 90 8c 00 00
	00		 mov	 DWORD PTR [eax+140], edx
  0003d	89 88 88 00 00
	00		 mov	 DWORD PTR [eax+136], ecx
  00043	88 48 78	 mov	 BYTE PTR [eax+120], cl
  00046	89 48 70	 mov	 DWORD PTR [eax+112], ecx
  00049	89 88 90 00 00
	00		 mov	 DWORD PTR [eax+144], ecx
  0004f	89 90 b0 00 00
	00		 mov	 DWORD PTR [eax+176], edx
  00055	89 88 ac 00 00
	00		 mov	 DWORD PTR [eax+172], ecx
  0005b	88 88 9c 00 00
	00		 mov	 BYTE PTR [eax+156], cl
  00061	89 88 94 00 00
	00		 mov	 DWORD PTR [eax+148], ecx
  00067	89 88 b4 00 00
	00		 mov	 DWORD PTR [eax+180], ecx
  0006d	89 90 d4 00 00
	00		 mov	 DWORD PTR [eax+212], edx
  00073	89 88 d0 00 00
	00		 mov	 DWORD PTR [eax+208], ecx
  00079	88 88 c0 00 00
	00		 mov	 BYTE PTR [eax+192], cl
  0007f	89 88 b8 00 00
	00		 mov	 DWORD PTR [eax+184], ecx
  00085	89 88 d8 00 00
	00		 mov	 DWORD PTR [eax+216], ecx
  0008b	89 88 e0 00 00
	00		 mov	 DWORD PTR [eax+224], ecx
  00091	89 88 e4 00 00
	00		 mov	 DWORD PTR [eax+228], ecx
  00097	89 88 e8 00 00
	00		 mov	 DWORD PTR [eax+232], ecx

; 118  : 	{
; 119  : 		_iWeather = 0;

  0009d	89 48 48	 mov	 DWORD PTR [eax+72], ecx

; 120  : 		_bUseEnvir = FALSE;

  000a0	89 48 20	 mov	 DWORD PTR [eax+32], ecx

; 121  : 		_bUseRealData = FALSE;

  000a3	89 48 24	 mov	 DWORD PTR [eax+36], ecx

; 122  : #ifdef _DEBUG
; 123  : 		_VBforLine = NULL;
; 124  : #endif 
; 125  : 	}

  000a6	8b 4c 24 04	 mov	 ecx, DWORD PTR __$EHRec$[esp+16]
  000aa	64 89 0d 00 00
	00 00		 mov	 DWORD PTR fs:__except_list, ecx
  000b1	83 c4 10	 add	 esp, 16			; 00000010H
  000b4	c3		 ret	 0
_TEXT	ENDS
;	COMDAT text$x
text$x	SEGMENT
$L276890:
  00000	8b 4d f0	 mov	 ecx, DWORD PTR _this$[ebp]
  00003	83 c1 04	 add	 ecx, 4
  00006	e9 00 00 00 00	 jmp	 ??1?$basic_string@DU?$char_traits@D@std@@V?$allocator@D@2@@std@@QAE@XZ ; std::basic_string<char,std::char_traits<char>,std::allocator<char> >::~basic_string<char,std::char_traits<char>,std::allocator<char> >
$L276891:
  0000b	8b 4d f0	 mov	 ecx, DWORD PTR _this$[ebp]
  0000e	83 c1 4c	 add	 ecx, 76			; 0000004cH
  00011	e9 00 00 00 00	 jmp	 ??1TextureSet@@QAE@XZ	; TextureSet::~TextureSet
$L276892:
  00016	8b 4d f0	 mov	 ecx, DWORD PTR _this$[ebp]
  00019	83 c1 70	 add	 ecx, 112		; 00000070H
  0001c	e9 00 00 00 00	 jmp	 ??1TextureSet@@QAE@XZ	; TextureSet::~TextureSet
$L276893:
  00021	8b 4d f0	 mov	 ecx, DWORD PTR _this$[ebp]
  00024	81 c1 94 00 00
	00		 add	 ecx, 148		; 00000094H
  0002a	e9 00 00 00 00	 jmp	 ??1TextureSet@@QAE@XZ	; TextureSet::~TextureSet
$L276894:
  0002f	8b 4d f0	 mov	 ecx, DWORD PTR _this$[ebp]
  00032	81 c1 b8 00 00
	00		 add	 ecx, 184		; 000000b8H
  00038	e9 00 00 00 00	 jmp	 ??1TextureSet@@QAE@XZ	; TextureSet::~TextureSet
__ehhandler$??0ENVIR_INFO@@QAE@XZ:
  0003d	b8 00 00 00 00	 mov	 eax, OFFSET FLAT:$T277590
  00042	e9 00 00 00 00	 jmp	 ___CxxFrameHandler
text$x	ENDS
??0ENVIR_INFO@@QAE@XZ ENDP				; ENVIR_INFO::ENVIR_INFO
PUBLIC	??A?$map@KPAVCUser@@U?$less@K@std@@V?$allocator@U?$pair@$$CBKPAVCUser@@@std@@@3@@std@@QAEAAPAVCUser@@ABK@Z ; std::map<unsigned long,CUser *,std::less<unsigned long>,std::allocator<std::pair<unsigned long const ,CUser *> > >::operator[]
; Function compile flags: /Ogty
; File c:\program files\microsoft visual studio .net 2003\vc7\include\map
;	COMDAT ??A?$map@KPAVCUser@@U?$less@K@std@@V?$allocator@U?$pair@$$CBKPAVCUser@@@std@@@3@@std@@QAEAAPAVCUser@@ABK@Z
_TEXT	SEGMENT
$T277599 = -8						; size = 8
$T277601 = 8						; size = 4
__Keyval$ = 8						; size = 4
??A?$map@KPAVCUser@@U?$less@K@std@@V?$allocator@U?$pair@$$CBKPAVCUser@@@std@@@3@@std@@QAEAAPAVCUser@@ABK@Z PROC NEAR ; std::map<unsigned long,CUser *,std::less<unsigned long>,std::allocator<std::pair<unsigned long const ,CUser *> > >::operator[], COMDAT
; _this$ = ecx

; 143  : 		iterator _Where = this->lower_bound(_Keyval);

  00000	8b 51 04	 mov	 edx, DWORD PTR [ecx+4]
  00003	8b 42 04	 mov	 eax, DWORD PTR [edx+4]
  00006	83 ec 08	 sub	 esp, 8
  00009	53		 push	 ebx
  0000a	8a 58 15	 mov	 bl, BYTE PTR [eax+21]
  0000d	84 db		 test	 bl, bl
  0000f	56		 push	 esi
  00010	8b 74 24 14	 mov	 esi, DWORD PTR __Keyval$[esp+12]
  00014	57		 push	 edi
  00015	75 1e		 jne	 SHORT $L277695
  00017	8b 3e		 mov	 edi, DWORD PTR [esi]
  00019	8d a4 24 00 00
	00 00		 npad	 7
$L277694:
  00020	39 78 0c	 cmp	 DWORD PTR [eax+12], edi
  00023	73 05		 jae	 SHORT $L277696
  00025	8b 40 08	 mov	 eax, DWORD PTR [eax+8]
  00028	eb 04		 jmp	 SHORT $L277697
$L277696:
  0002a	8b d0		 mov	 edx, eax
  0002c	8b 00		 mov	 eax, DWORD PTR [eax]
$L277697:
  0002e	8a 58 15	 mov	 bl, BYTE PTR [eax+21]
  00031	84 db		 test	 bl, bl
  00033	74 eb		 je	 SHORT $L277694
$L277695:

; 144  : 		if (_Where == this->end() || this->comp(_Keyval, this->_Key(_Where._Mynode())))

  00035	3b 51 04	 cmp	 edx, DWORD PTR [ecx+4]
  00038	74 07		 je	 SHORT $L219001
  0003a	8b 06		 mov	 eax, DWORD PTR [esi]
  0003c	3b 42 0c	 cmp	 eax, DWORD PTR [edx+12]
  0003f	73 2c		 jae	 SHORT $L277760
$L219001:

; 145  : 			_Where = this->insert(_Where,
; 146  : 				value_type(_Keyval, mapped_type()));

  00041	8b 06		 mov	 eax, DWORD PTR [esi]
  00043	89 44 24 0c	 mov	 DWORD PTR $T277599[esp+20], eax
  00047	8d 44 24 0c	 lea	 eax, DWORD PTR $T277599[esp+20]
  0004b	50		 push	 eax
  0004c	52		 push	 edx
  0004d	8d 54 24 20	 lea	 edx, DWORD PTR $T277601[esp+24]
  00051	52		 push	 edx
  00052	c7 44 24 1c 00
	00 00 00	 mov	 DWORD PTR $T277599[esp+36], 0
  0005a	e8 00 00 00 00	 call	 ?insert@?$_Tree@V?$_Tmap_traits@KPAVCUser@@U?$less@K@std@@V?$allocator@U?$pair@$$CBKPAVCUser@@@std@@@3@$0A@@std@@@std@@QAE?AViterator@12@V312@ABU?$pair@$$CBKPAVCUser@@@2@@Z ; std::_Tree<std::_Tmap_traits<unsigned long,CUser *,std::less<unsigned long>,std::allocator<std::pair<unsigned long const ,CUser *> >,0> >::insert
  0005f	8b 00		 mov	 eax, DWORD PTR [eax]
  00061	5f		 pop	 edi
  00062	5e		 pop	 esi

; 147  : 		return ((*_Where).second);

  00063	83 c0 10	 add	 eax, 16			; 00000010H
  00066	5b		 pop	 ebx

; 148  : 		}

  00067	83 c4 08	 add	 esp, 8
  0006a	c2 04 00	 ret	 4
$L277760:
  0006d	5f		 pop	 edi
  0006e	5e		 pop	 esi

; 147  : 		return ((*_Where).second);

  0006f	8d 42 10	 lea	 eax, DWORD PTR [edx+16]
  00072	5b		 pop	 ebx

; 148  : 		}

  00073	83 c4 08	 add	 esp, 8
  00076	c2 04 00	 ret	 4
??A?$map@KPAVCUser@@U?$less@K@std@@V?$allocator@U?$pair@$$CBKPAVCUser@@@std@@@3@@std@@QAEAAPAVCUser@@ABK@Z ENDP ; std::map<unsigned long,CUser *,std::less<unsigned long>,std::allocator<std::pair<unsigned long const ,CUser *> > >::operator[]
_TEXT	ENDS
PUBLIC	??$_Destroy_range@UENVIR_INFO@@V?$allocator@UENVIR_INFO@@@std@@@std@@YAXPAUENVIR_INFO@@0AAV?$allocator@UENVIR_INFO@@@0@@Z ; std::_Destroy_range<ENVIR_INFO,std::allocator<ENVIR_INFO> >
; Function compile flags: /Ogty
; File c:\program files\microsoft visual studio .net 2003\vc7\include\xmemory
;	COMDAT ??$_Destroy_range@UENVIR_INFO@@V?$allocator@UENVIR_INFO@@@std@@@std@@YAXPAUENVIR_INFO@@0AAV?$allocator@UENVIR_INFO@@@0@@Z
_TEXT	SEGMENT
__First$ = 8						; size = 4
__Last$ = 12						; size = 4
__Al$ = 16						; size = 4
??$_Destroy_range@UENVIR_INFO@@V?$allocator@UENVIR_INFO@@@std@@@std@@YAXPAUENVIR_INFO@@0AAV?$allocator@UENVIR_INFO@@@0@@Z PROC NEAR ; std::_Destroy_range<ENVIR_INFO,std::allocator<ENVIR_INFO> >, COMDAT

; 216  : 	{	// destroy [_First, _Last)

  00000	56		 push	 esi

; 217  : 	_Destroy_range(_First, _Last, _Al, _Ptr_cat(_First, _Last));

  00001	8b 74 24 08	 mov	 esi, DWORD PTR __First$[esp]
  00005	57		 push	 edi
  00006	8b 7c 24 10	 mov	 edi, DWORD PTR __Last$[esp+4]
  0000a	3b f7		 cmp	 esi, edi
  0000c	74 13		 je	 SHORT $L277799
  0000e	8b ff		 npad	 2
$L277797:
  00010	8b ce		 mov	 ecx, esi
  00012	e8 00 00 00 00	 call	 ??1ENVIR_INFO@@QAE@XZ
  00017	81 c6 ec 00 00
	00		 add	 esi, 236		; 000000ecH
  0001d	3b f7		 cmp	 esi, edi
  0001f	75 ef		 jne	 SHORT $L277797
$L277799:
  00021	5f		 pop	 edi
  00022	5e		 pop	 esi

; 218  : 	}

  00023	c3		 ret	 0
??$_Destroy_range@UENVIR_INFO@@V?$allocator@UENVIR_INFO@@@std@@@std@@YAXPAUENVIR_INFO@@0AAV?$allocator@UENVIR_INFO@@@0@@Z ENDP ; std::_Destroy_range<ENVIR_INFO,std::allocator<ENVIR_INFO> >
_TEXT	ENDS
PUBLIC	?PCSetAt@CCtrl@@QAEXKPAV1@@Z			; CCtrl::PCSetAt
; Function compile flags: /Ogty
; File c:\documents and settings\test\mes documents\source\virtuos_v17\build\program\_common\ctrl.h
;	COMDAT ?PCSetAt@CCtrl@@QAEXKPAV1@@Z
_TEXT	SEGMENT
_objid$ = 8						; size = 4
_pCtrl$ = 12						; size = 4
?PCSetAt@CCtrl@@QAEXKPAV1@@Z PROC NEAR			; CCtrl::PCSetAt, COMDAT
; _this$ = ecx

; 115  : 	m_2pc[ objid ] = (CUser *)pCtrl;

  00000	8d 44 24 04	 lea	 eax, DWORD PTR _objid$[esp-4]
  00004	50		 push	 eax
  00005	81 c1 0c 02 00
	00		 add	 ecx, 524		; 0000020cH
  0000b	e8 00 00 00 00	 call	 ??A?$map@KPAVCUser@@U?$less@K@std@@V?$allocator@U?$pair@$$CBKPAVCUser@@@std@@@3@@std@@QAEAAPAVCUser@@ABK@Z ; std::map<unsigned long,CUser *,std::less<unsigned long>,std::allocator<std::pair<unsigned long const ,CUser *> > >::operator[]
  00010	8b 4c 24 08	 mov	 ecx, DWORD PTR _pCtrl$[esp-4]
  00014	89 08		 mov	 DWORD PTR [eax], ecx

; 116  : }

  00016	c2 08 00	 ret	 8
?PCSetAt@CCtrl@@QAEXKPAV1@@Z ENDP			; CCtrl::PCSetAt
_TEXT	ENDS
PUBLIC	?_replace@CWorld@@AAEXXZ			; CWorld::_replace
PUBLIC	??_C@_0CE@GAGEENAE@_replace?5world?5id?3?$CFd?5x?3?$CFf?5y?3?$CFf?5z@ ; `string'
EXTRN	?GetInstance@CHousingMng@@SAPAV1@XZ:NEAR	; CHousingMng::GetInstance
EXTRN	?GetWorld@CWorldMng@@QAEPAVCWorld@@K@Z:NEAR	; CWorldMng::GetWorld
EXTRN	?GetFullHeight@CWorld@@QAEMABUD3DXVECTOR3@@@Z:NEAR ; CWorld::GetFullHeight
EXTRN	?AddHousingPaperingInfo@CUser@@QAEXKH@Z:NEAR	; CUser::AddHousingPaperingInfo
EXTRN	?g_UserMng@@3VCUserMng@@A:BYTE			; g_UserMng
EXTRN	?HasPet@CMover@@QAEHXZ:NEAR			; CMover::HasPet
EXTRN	?g_WorldMng@@3VCWorldMng@@A:BYTE		; g_WorldMng
EXTRN	?RemovePet@CMover@@QAEXXZ:NEAR			; CMover::RemovePet
EXTRN	?RemoveItFromView@CCtrl@@QAEXH@Z:NEAR		; CCtrl::RemoveItFromView
EXTRN	?GetInstance@CGuildHouseMng@@SAPAV1@XZ:NEAR	; CGuildHouseMng::GetInstance
EXTRN	?IsGuildHouse@CGuildHouseMng@@QAEHK@Z:NEAR	; CGuildHouseMng::IsGuildHouse
EXTRN	?CheckDestroyGuildHouse@CGuildHouseMng@@QAEXPAVCUser@@@Z:NEAR ; CGuildHouseMng::CheckDestroyGuildHouse
EXTRN	?SetApplyDST@CGuildHouseMng@@QAEXPAVCUser@@@Z:NEAR ; CGuildHouseMng::SetApplyDST
EXTRN	?ResetApplyDST@CGuildHouseMng@@QAEXPAVCUser@@@Z:NEAR ; CGuildHouseMng::ResetApplyDST
EXTRN	?RemoveItFromView2@CUser@@QAEXH@Z:NEAR		; CUser::RemoveItFromView2
EXTRN	?Notify@CUser@@QAEHXZ:NEAR			; CUser::Notify
EXTRN	?AddSetPos@CUserMng@@QAEXPAVCCtrl@@AAUD3DXVECTOR3@@@Z:NEAR ; CUserMng::AddSetPos
EXTRN	?AddAddObj@CUser@@QAEXPAVCCtrl@@@Z:NEAR		; CUser::AddAddObj
EXTRN	?AddReplace@CUser@@QAEXKAAUD3DXVECTOR3@@@Z:NEAR	; CUser::AddReplace
EXTRN	?GetHousing@CHousingMng@@QAEPAVCHousing@@K@Z:NEAR ; CHousingMng::GetHousing
EXTRN	?AddEnvironment@CUser@@QAEXXZ:NEAR		; CUser::AddEnvironment
EXTRN	?g_uIdofMulti@@3KA:DWORD			; g_uIdofMulti
EXTRN	?GetAllPaperingInfo@CHousing@@QAE?AV?$vector@KV?$allocator@K@std@@@std@@XZ:NEAR ; CHousing::GetAllPaperingInfo
EXTRN	?AddGuildCombatUserState@CUserMng@@QAEXPAVCMover@@@Z:NEAR ; CUserMng::AddGuildCombatUserState
EXTRN	?AddSMModeAll@CUser@@QAEXXZ:NEAR		; CUser::AddSMModeAll
;	COMDAT xdata$x
; File c:\program files\microsoft visual studio .net 2003\vc7\include\xmemory
xdata$x	SEGMENT
$T277983 DD	0ffffffffH
	DD	FLAT:$L277810
$T277970 DD	019930520H
	DD	01H
	DD	FLAT:$T277983
	DD	2 DUP(00H)
	DD	2 DUP(00H)
xdata$x	ENDS
;	COMDAT ??_C@_0CE@GAGEENAE@_replace?5world?5id?3?$CFd?5x?3?$CFf?5y?3?$CFf?5z@
CONST	SEGMENT
??_C@_0CE@GAGEENAE@_replace?5world?5id?3?$CFd?5x?3?$CFf?5y?3?$CFf?5z@ DB '_'
	DB	'replace world id:%d x:%f y:%f z:%f', 00H	; `string'
; Function compile flags: /Ogty
; File c:\documents and settings\test\mes documents\source\virtuos_v17\build\program\_common\world.cpp
CONST	ENDS
;	COMDAT ?_replace@CWorld@@AAEXXZ
_TEXT	SEGMENT
_this$ = -60						; size = 4
tv601 = -56						; size = 4
_i$263007 = -52						; size = 4
$T277887 = -48						; size = 4
_vPos$ = -44						; size = 12
_vecTemp$263033 = -32					; size = 16
__$EHRec$ = -12						; size = 12
?_replace@CWorld@@AAEXXZ PROC NEAR			; CWorld::_replace, COMDAT
; _this$ = ecx

; 1594 : {

  00000	55		 push	 ebp
  00001	8b ec		 mov	 ebp, esp
  00003	83 e4 f8	 and	 esp, -8			; fffffff8H
  00006	6a ff		 push	 -1
  00008	68 00 00 00 00	 push	 __ehhandler$?_replace@CWorld@@AAEXXZ
  0000d	64 a1 00 00 00
	00		 mov	 eax, DWORD PTR fs:__except_list
  00013	50		 push	 eax
  00014	64 89 25 00 00
	00 00		 mov	 DWORD PTR fs:__except_list, esp
  0001b	83 ec 34	 sub	 esp, 52			; 00000034H

; 1595 : 	CMover*		pMover;
; 1596 : 	DWORD		dwWorldID;
; 1597 : 	D3DXVECTOR3 vPos;
; 1598 : 	u_long		uIdofMulti;
; 1599 : 	
; 1600 : 	for( int i = 0; i < m_cbReplaceObj; ++i )

  0001e	8b 91 5c 40 05
	00		 mov	 edx, DWORD PTR [ecx+344156]
  00024	53		 push	 ebx
  00025	55		 push	 ebp
  00026	33 c0		 xor	 eax, eax
  00028	3b d0		 cmp	 edx, eax
  0002a	56		 push	 esi
  0002b	57		 push	 edi
  0002c	89 4c 24 14	 mov	 DWORD PTR _this$[esp+80], ecx
  00030	89 44 24 1c	 mov	 DWORD PTR _i$263007[esp+80], eax
  00034	0f 8e fd 02 00
	00		 jle	 $L277978
  0003a	8d a9 64 40 05
	00		 lea	 ebp, DWORD PTR [ecx+344164]
  00040	89 6c 24 18	 mov	 DWORD PTR tv601[esp+80], ebp
$L263008:

; 1601 : 	{
; 1602 : 		pMover	= m_aReplaceObj[i].pObj;

  00044	8b 75 fc	 mov	 esi, DWORD PTR [ebp-4]

; 1603 : 		if( ::IsInvalidObj( pMover ) )

  00047	85 f6		 test	 esi, esi
  00049	0f 84 ad 02 00
	00		 je	 $L263009
  0004f	f6 46 04 01	 test	 BYTE PTR [esi+4], 1
  00053	0f 85 a3 02 00
	00		 jne	 $L263009

; 1604 : 			continue;
; 1605 : 
; 1606 : 		dwWorldID	= m_aReplaceObj[i].dwWorldID;

  00059	8b 7d 00	 mov	 edi, DWORD PTR [ebp]

; 1607 : 		vPos  	    = m_aReplaceObj[i].vPos;
; 1608 : 		uIdofMulti	= m_aReplaceObj[i].uIdofMulti;
; 1609 : #ifdef __LAYER_1015
; 1610 : 		int nLayer	= m_aReplaceObj[i].nLayer;

  0005c	8b 5d 14	 mov	 ebx, DWORD PTR [ebp+20]
  0005f	8d 45 04	 lea	 eax, DWORD PTR [ebp+4]
  00062	8b 10		 mov	 edx, DWORD PTR [eax]
  00064	89 54 24 24	 mov	 DWORD PTR _vPos$[esp+80], edx
  00068	8b 50 04	 mov	 edx, DWORD PTR [eax+4]
  0006b	8b 40 08	 mov	 eax, DWORD PTR [eax+8]
  0006e	89 54 24 28	 mov	 DWORD PTR _vPos$[esp+84], edx

; 1611 : #endif	// __LAYER_1015
; 1612 : 
; 1613 : 		if( uIdofMulti != g_uIdofMulti )		//   

  00072	8b 15 00 00 00
	00		 mov	 edx, DWORD PTR ?g_uIdofMulti@@3KA ; g_uIdofMulti
  00078	89 44 24 2c	 mov	 DWORD PTR _vPos$[esp+88], eax
  0007c	8b 45 10	 mov	 eax, DWORD PTR [ebp+16]
  0007f	3b c2		 cmp	 eax, edx
  00081	0f 85 75 02 00
	00		 jne	 $L263009

; 1614 : 			continue;
; 1615 : 
; 1616 : #ifdef __LAYER_1015
; 1617 : 		if( GetID() == dwWorldID && pMover->GetLayer() == nLayer )

  00087	8b 01		 mov	 eax, DWORD PTR [ecx]
  00089	3b c7		 cmp	 eax, edi
  0008b	75 67		 jne	 SHORT $L263014
  0008d	39 9e b8 01 00
	00		 cmp	 DWORD PTR [esi+440], ebx
  00093	75 5f		 jne	 SHORT $L263014

; 1618 : #else	// __LAYER_1015
; 1619 : 		if( GetID() == dwWorldID )
; 1620 : #endif	// __LAYER_1015
; 1621 : 		{
; 1622 : 			if( vPos.y == 0.0f )

  00095	d9 05 00 00 00
	00		 fld	 DWORD PTR __real@00000000
  0009b	d9 44 24 28	 fld	 DWORD PTR _vPos$[esp+84]
  0009f	da e9		 fucompp
  000a1	df e0		 fnstsw	 ax
  000a3	f6 c4 44	 test	 ah, 68			; 00000044H
  000a6	7a 16		 jp	 SHORT $L263015

; 1623 : 			{
; 1624 : 				vPos.y = 100.0f;
; 1625 : 				vPos.y = GetFullHeight( vPos );  //  

  000a8	8d 54 24 24	 lea	 edx, DWORD PTR _vPos$[esp+80]
  000ac	52		 push	 edx
  000ad	c7 44 24 2c 00
	00 c8 42	 mov	 DWORD PTR _vPos$[esp+88], 1120403456 ; 42c80000H
  000b5	e8 00 00 00 00	 call	 ?GetFullHeight@CWorld@@QAEMABUD3DXVECTOR3@@@Z ; CWorld::GetFullHeight
  000ba	d9 5c 24 28	 fstp	 DWORD PTR _vPos$[esp+84]
$L263015:

; 1626 : 			}
; 1627 : 			g_UserMng.AddSetPos( (CCtrl*)pMover, vPos );

  000be	8d 44 24 24	 lea	 eax, DWORD PTR _vPos$[esp+80]
  000c2	50		 push	 eax
  000c3	56		 push	 esi
  000c4	b9 00 00 00 00	 mov	 ecx, OFFSET FLAT:?g_UserMng@@3VCUserMng@@A
  000c9	e8 00 00 00 00	 call	 ?AddSetPos@CUserMng@@QAEXPAVCCtrl@@AAUD3DXVECTOR3@@@Z ; CUserMng::AddSetPos

; 1628 : 			//vPos.y = GetFullHeight( vPos );  //  
; 1629 : 			pMover->SetPos( vPos );

  000ce	8d 4c 24 24	 lea	 ecx, DWORD PTR _vPos$[esp+80]
  000d2	51		 push	 ecx
  000d3	8b ce		 mov	 ecx, esi
  000d5	e8 00 00 00 00	 call	 ?SetPos@CObj@@QAEXABUD3DXVECTOR3@@@Z ; CObj::SetPos

; 1630 : 			if( pMover->IsPlayer() )

  000da	8b 86 34 02 00
	00		 mov	 eax, DWORD PTR [esi+564]
  000e0	85 c0		 test	 eax, eax
  000e2	0f 84 10 02 00
	00		 je	 $L277979

; 1631 : 				( (CUser*)pMover )->Notify();	

  000e8	8b ce		 mov	 ecx, esi
  000ea	e8 00 00 00 00	 call	 ?Notify@CUser@@QAEHXZ	; CUser::Notify

; 1632 : 		}
; 1633 : 		else

  000ef	e9 04 02 00 00	 jmp	 $L277979
$L263014:

; 1634 : 		{	
; 1635 : 			if( pMover->IsPlayer() == FALSE )

  000f4	8b 96 34 02 00
	00		 mov	 edx, DWORD PTR [esi+564]
  000fa	85 d2		 test	 edx, edx
  000fc	0f 84 fa 01 00
	00		 je	 $L263009

; 1636 : 				continue;
; 1637 : 
; 1638 : 			CUser* pUser = (CUser*)pMover;
; 1639 : #if __VER >= 15 // __GUILD_HOUSE
; 1640 : 			if( GuildHouseMng->IsGuildHouse( GetID() ) )

  00102	50		 push	 eax
  00103	e8 00 00 00 00	 call	 ?GetInstance@CGuildHouseMng@@SAPAV1@XZ ; CGuildHouseMng::GetInstance
  00108	8b c8		 mov	 ecx, eax
  0010a	e8 00 00 00 00	 call	 ?IsGuildHouse@CGuildHouseMng@@QAEHK@Z ; CGuildHouseMng::IsGuildHouse
  0010f	85 c0		 test	 eax, eax
  00111	74 0d		 je	 SHORT $L263023

; 1641 : 				GuildHouseMng->CheckDestroyGuildHouse( pUser );

  00113	56		 push	 esi
  00114	e8 00 00 00 00	 call	 ?GetInstance@CGuildHouseMng@@SAPAV1@XZ ; CGuildHouseMng::GetInstance
  00119	8b c8		 mov	 ecx, eax
  0011b	e8 00 00 00 00	 call	 ?CheckDestroyGuildHouse@CGuildHouseMng@@QAEXPAVCUser@@@Z ; CGuildHouseMng::CheckDestroyGuildHouse
$L263023:

; 1642 : #endif // __GUILD_HOUSE
; 1643 : 			CWorld* pWorld = g_WorldMng.GetWorld( dwWorldID );

  00120	57		 push	 edi
  00121	b9 00 00 00 00	 mov	 ecx, OFFSET FLAT:?g_WorldMng@@3VCWorldMng@@A
  00126	e8 00 00 00 00	 call	 ?GetWorld@CWorldMng@@QAEPAVCWorld@@K@Z ; CWorldMng::GetWorld
  0012b	8b e8		 mov	 ebp, eax

; 1644 : 			if( pWorld && pWorld->VecInWorld( vPos ) )	

  0012d	85 ed		 test	 ebp, ebp
  0012f	0f 84 97 01 00
	00		 je	 $L263025
  00135	d9 44 24 28	 fld	 DWORD PTR _vPos$[esp+84]
  00139	83 ec 08	 sub	 esp, 8
  0013c	dd 1c 24	 fstp	 QWORD PTR [esp]
  0013f	e8 00 00 00 00	 call	 __isnan
  00144	83 c4 08	 add	 esp, 8
  00147	85 c0		 test	 eax, eax
  00149	0f 85 7d 01 00
	00		 jne	 $L263025
  0014f	8b 54 24 2c	 mov	 edx, DWORD PTR _vPos$[esp+88]
  00153	8b 44 24 24	 mov	 eax, DWORD PTR _vPos$[esp+80]
  00157	52		 push	 edx
  00158	50		 push	 eax
  00159	8b cd		 mov	 ecx, ebp
  0015b	e8 00 00 00 00	 call	 ?VecInWorld@CWorld@@QAEHMM@Z ; CWorld::VecInWorld
  00160	85 c0		 test	 eax, eax
  00162	0f 84 64 01 00
	00		 je	 $L263025

; 1645 : 			{
; 1646 : 				pUser->RemoveItFromView( TRUE );		// pc

  00168	6a 01		 push	 1
  0016a	8b ce		 mov	 ecx, esi
  0016c	e8 00 00 00 00	 call	 ?RemoveItFromView@CCtrl@@QAEXH@Z ; CCtrl::RemoveItFromView

; 1647 : 				pUser->RemoveItFromView2( TRUE );		// npc

  00171	6a 01		 push	 1
  00173	8b ce		 mov	 ecx, esi
  00175	e8 00 00 00 00	 call	 ?RemoveItFromView2@CUser@@QAEXH@Z ; CUser::RemoveItFromView2

; 1648 : #if __VER >= 9	// __PET_0410
; 1649 : 				if( pUser->HasPet() )

  0017a	8b ce		 mov	 ecx, esi
  0017c	e8 00 00 00 00	 call	 ?HasPet@CMover@@QAEHXZ	; CMover::HasPet
  00181	85 c0		 test	 eax, eax
  00183	74 07		 je	 SHORT $L263026

; 1650 : 					pUser->RemovePet();

  00185	8b ce		 mov	 ecx, esi
  00187	e8 00 00 00 00	 call	 ?RemovePet@CMover@@QAEXXZ ; CMover::RemovePet
$L263026:

; 1651 : #if __VER < 15 // __REACTIVATE_EATPET
; 1652 : 				if( pUser->HasActivatedEatPet() )
; 1653 : 					pUser->InactivateEatPet();
; 1654 : #endif // __REACTIVATE_EATPET
; 1655 : #endif	// __PET_0410
; 1656 : #if __VER >= 11 // __GUILD_COMBAT_1TO1
; 1657 : 				if( dwWorldID == WI_WORLD_MADRIGAL && pUser->GetWorld() &&
; 1658 : 					(pUser->GetWorld()->GetID() >= WI_WORLD_GUILDWAR1TO1_0 &&
; 1659 : 					pUser->GetWorld()->GetID() <= WI_WORLD_GUILDWAR1TO1_L) )

  0018c	83 ff 01	 cmp	 edi, 1
  0018f	75 31		 jne	 SHORT $L263027
  00191	8b 86 6c 01 00
	00		 mov	 eax, DWORD PTR [esi+364]
  00197	85 c0		 test	 eax, eax
  00199	74 27		 je	 SHORT $L263027
  0019b	8b 08		 mov	 ecx, DWORD PTR [eax]
  0019d	81 f9 f1 00 00
	00		 cmp	 ecx, 241		; 000000f1H
  001a3	72 1d		 jb	 SHORT $L263027
  001a5	81 f9 f4 00 00
	00		 cmp	 ecx, 244		; 000000f4H
  001ab	77 15		 ja	 SHORT $L263027

; 1660 : 				{
; 1661 : 					pUser->m_nGuildCombatState = 0;
; 1662 : 					g_UserMng.AddGuildCombatUserState( pUser );

  001ad	56		 push	 esi
  001ae	b9 00 00 00 00	 mov	 ecx, OFFSET FLAT:?g_UserMng@@3VCUserMng@@A
  001b3	c7 86 98 0e 00
	00 00 00 00 00	 mov	 DWORD PTR [esi+3736], 0
  001bd	e8 00 00 00 00	 call	 ?AddGuildCombatUserState@CUserMng@@QAEXPAVCMover@@@Z ; CUserMng::AddGuildCombatUserState
$L263027:

; 1663 : 				}
; 1664 : #endif // __GUILD_COMBAT_1TO1
; 1665 : #if __VER >= 15 // __GUILD_HOUSE
; 1666 : 				GuildHouseMng->ResetApplyDST( pUser );

  001c2	56		 push	 esi
  001c3	e8 00 00 00 00	 call	 ?GetInstance@CGuildHouseMng@@SAPAV1@XZ ; CGuildHouseMng::GetInstance
  001c8	8b c8		 mov	 ecx, eax
  001ca	e8 00 00 00 00	 call	 ?ResetApplyDST@CGuildHouseMng@@QAEXPAVCUser@@@Z ; CGuildHouseMng::ResetApplyDST

; 1667 : #endif // __GUILD_HOUSE
; 1668 : 				pUser->AddReplace( dwWorldID, vPos );

  001cf	8d 4c 24 24	 lea	 ecx, DWORD PTR _vPos$[esp+80]
  001d3	51		 push	 ecx
  001d4	57		 push	 edi
  001d5	8b ce		 mov	 ecx, esi
  001d7	e8 00 00 00 00	 call	 ?AddReplace@CUser@@QAEXKAAUD3DXVECTOR3@@@Z ; CUser::AddReplace

; 1669 : 				pUser->Notify();	

  001dc	8b ce		 mov	 ecx, esi
  001de	e8 00 00 00 00	 call	 ?Notify@CUser@@QAEHXZ	; CUser::Notify

; 1670 : 				RemoveObj( pUser );						// pWorld = NULL, RemoveObjLink, RemoveObjArray

  001e3	8b 4c 24 14	 mov	 ecx, DWORD PTR _this$[esp+80]
  001e7	56		 push	 esi
  001e8	e8 00 00 00 00	 call	 ?RemoveObj@CWorld@@QAEXPAVCObj@@@Z ; CWorld::RemoveObj

; 1671 : 				pUser->SetPos( vPos );

  001ed	8d 54 24 24	 lea	 edx, DWORD PTR _vPos$[esp+80]
  001f1	52		 push	 edx
  001f2	8b ce		 mov	 ecx, esi
  001f4	e8 00 00 00 00	 call	 ?SetPos@CObj@@QAEXABUD3DXVECTOR3@@@Z ; CObj::SetPos

; 1672 : 				pUser->PCSetAt( pUser->GetId(), pUser );

  001f9	8b 86 bc 01 00
	00		 mov	 eax, DWORD PTR [esi+444]
  001ff	8d 4c 24 20	 lea	 ecx, DWORD PTR $T277887[esp+80]
  00203	51		 push	 ecx
  00204	8d 8e 0c 02 00
	00		 lea	 ecx, DWORD PTR [esi+524]
  0020a	89 44 24 24	 mov	 DWORD PTR $T277887[esp+84], eax
  0020e	e8 00 00 00 00	 call	 ??A?$map@KPAVCUser@@U?$less@K@std@@V?$allocator@U?$pair@$$CBKPAVCUser@@@std@@@3@@std@@QAEAAPAVCUser@@ABK@Z ; std::map<unsigned long,CUser *,std::less<unsigned long>,std::allocator<std::pair<unsigned long const ,CUser *> > >::operator[]

; 1673 : 				pUser->AddAddObj( pUser );

  00213	56		 push	 esi
  00214	8b ce		 mov	 ecx, esi
  00216	89 30		 mov	 DWORD PTR [eax], esi
  00218	e8 00 00 00 00	 call	 ?AddAddObj@CUser@@QAEXPAVCCtrl@@@Z ; CUser::AddAddObj

; 1674 : 				pWorld->ADDOBJ( pUser, FALSE, nLayer );			// set pWorld 

  0021d	53		 push	 ebx
  0021e	6a 00		 push	 0
  00220	56		 push	 esi
  00221	8b cd		 mov	 ecx, ebp
  00223	e8 00 00 00 00	 call	 ?AddObj@CWorld@@QAEHPAVCObj@@HH@Z ; CWorld::AddObj

; 1675 : #ifndef __BUFF_1107	// chipi_090623  -           ..
; 1676 : 				g_UserMng.AddHdr( pUser, SNAPSHOTTYPE_RESETBUFFSKILL );	//   	
; 1677 : #endif // __BUFF_1107
; 1678 : 				pUser->AddSMModeAll();

  00228	8b ce		 mov	 ecx, esi
  0022a	e8 00 00 00 00	 call	 ?AddSMModeAll@CUser@@QAEXXZ ; CUser::AddSMModeAll

; 1679 : 				pUser->AddEnvironment(); //   

  0022f	8b ce		 mov	 ecx, esi
  00231	e8 00 00 00 00	 call	 ?AddEnvironment@CUser@@QAEXXZ ; CUser::AddEnvironment

; 1680 : #if __VER >= 15 // __GUILD_HOUSE
; 1681 : 				GuildHouseMng->SetApplyDST( pUser );

  00236	56		 push	 esi
  00237	e8 00 00 00 00	 call	 ?GetInstance@CGuildHouseMng@@SAPAV1@XZ ; CGuildHouseMng::GetInstance
  0023c	8b c8		 mov	 ecx, eax
  0023e	e8 00 00 00 00	 call	 ?SetApplyDST@CGuildHouseMng@@QAEXPAVCUser@@@Z ; CGuildHouseMng::SetApplyDST

; 1682 : #endif // __GUILD_HOUSE
; 1683 : 
; 1684 : #if __VER >= 13 // __HOUSING
; 1685 : 				if( dwWorldID == WI_WORLD_MINIROOM )

  00243	81 ff d1 00 00
	00		 cmp	 edi, 209		; 000000d1H
  00249	0f 85 a5 00 00
	00		 jne	 $L277980

; 1686 : 				{
; 1687 : 					CHousing* pHousing = CHousingMng::GetInstance()->GetHousing( static_cast<DWORD>( nLayer ) );

  0024f	53		 push	 ebx
  00250	e8 00 00 00 00	 call	 ?GetInstance@CHousingMng@@SAPAV1@XZ ; CHousingMng::GetInstance
  00255	8b c8		 mov	 ecx, eax
  00257	e8 00 00 00 00	 call	 ?GetHousing@CHousingMng@@QAEPAVCHousing@@K@Z ; CHousingMng::GetHousing
  0025c	8b f8		 mov	 edi, eax

; 1688 : 					if( pHousing )

  0025e	85 ff		 test	 edi, edi
  00260	0f 84 8e 00 00
	00		 je	 $L277980

; 1689 : 					{
; 1690 : 						pUser->AddHousingPaperingInfo( NULL_ID, FALSE );	//    

  00266	33 db		 xor	 ebx, ebx
  00268	53		 push	 ebx
  00269	6a ff		 push	 -1
  0026b	8b ce		 mov	 ecx, esi
  0026d	e8 00 00 00 00	 call	 ?AddHousingPaperingInfo@CUser@@QAEXKH@Z ; CUser::AddHousingPaperingInfo

; 1691 : 						vector<DWORD> vecTemp = pHousing->GetAllPaperingInfo();

  00272	8d 54 24 30	 lea	 edx, DWORD PTR _vecTemp$263033[esp+80]
  00276	52		 push	 edx
  00277	8b cf		 mov	 ecx, edi
  00279	e8 00 00 00 00	 call	 ?GetAllPaperingInfo@CHousing@@QAE?AV?$vector@KV?$allocator@K@std@@@std@@XZ ; CHousing::GetAllPaperingInfo
  0027e	89 5c 24 4c	 mov	 DWORD PTR __$EHRec$[esp+88], ebx

; 1692 : 						for( DWORD i=0; i<vecTemp.size(); i++ )

  00282	33 ff		 xor	 edi, edi
$L263036:
  00284	8b 4c 24 34	 mov	 ecx, DWORD PTR _vecTemp$263033[esp+84]
  00288	3b cb		 cmp	 ecx, ebx
  0028a	74 1d		 je	 SHORT $L277975
  0028c	8b 44 24 38	 mov	 eax, DWORD PTR _vecTemp$263033[esp+88]
  00290	2b c1		 sub	 eax, ecx
  00292	c1 f8 02	 sar	 eax, 2
  00295	3b f8		 cmp	 edi, eax
  00297	73 10		 jae	 SHORT $L277975

; 1693 : 						{
; 1694 : 							pUser->AddHousingPaperingInfo( vecTemp[i], TRUE );

  00299	8b 04 b9	 mov	 eax, DWORD PTR [ecx+edi*4]
  0029c	6a 01		 push	 1
  0029e	50		 push	 eax
  0029f	8b ce		 mov	 ecx, esi
  002a1	e8 00 00 00 00	 call	 ?AddHousingPaperingInfo@CUser@@QAEXKH@Z ; CUser::AddHousingPaperingInfo
  002a6	47		 inc	 edi
  002a7	eb db		 jmp	 SHORT $L263036
$L277975:

; 1695 : 						}
; 1696 : 					}

  002a9	3b cb		 cmp	 ecx, ebx
  002ab	c7 44 24 4c ff
	ff ff ff	 mov	 DWORD PTR __$EHRec$[esp+88], -1
  002b3	74 09		 je	 SHORT $L277967
  002b5	51		 push	 ecx
  002b6	e8 00 00 00 00	 call	 ??3@YAXPAX@Z		; operator delete
  002bb	83 c4 04	 add	 esp, 4
$L277967:
  002be	89 5c 24 34	 mov	 DWORD PTR _vecTemp$263033[esp+84], ebx
  002c2	89 5c 24 38	 mov	 DWORD PTR _vecTemp$263033[esp+88], ebx
  002c6	89 5c 24 3c	 mov	 DWORD PTR _vecTemp$263033[esp+92], ebx

; 1697 : 				}
; 1698 : #endif // __HOUSING
; 1699 : 			}
; 1700 : 			else

  002ca	eb 28		 jmp	 SHORT $L277980
$L263025:

; 1701 : 			{
; 1702 : 				ASSERT( 0 );
; 1703 : 				WriteError("_replace world id:%d x:%f y:%f z:%f", dwWorldID, vPos.x, vPos.y, vPos.z );

  002cc	d9 44 24 2c	 fld	 DWORD PTR _vPos$[esp+88]
  002d0	83 ec 18	 sub	 esp, 24			; 00000018H
  002d3	dd 5c 24 10	 fstp	 QWORD PTR [esp+16]
  002d7	d9 44 24 40	 fld	 DWORD PTR _vPos$[esp+108]
  002db	dd 5c 24 08	 fstp	 QWORD PTR [esp+8]
  002df	d9 44 24 3c	 fld	 DWORD PTR _vPos$[esp+104]
  002e3	dd 1c 24	 fstp	 QWORD PTR [esp]
  002e6	57		 push	 edi
  002e7	68 00 00 00 00	 push	 OFFSET FLAT:??_C@_0CE@GAGEENAE@_replace?5world?5id?3?$CFd?5x?3?$CFf?5y?3?$CFf?5z@
  002ec	e8 00 00 00 00	 call	 ?WriteError@@YAXPBDZZ	; WriteError
  002f1	83 c4 20	 add	 esp, 32			; 00000020H
$L277980:
  002f4	8b 6c 24 18	 mov	 ebp, DWORD PTR tv601[esp+80]
$L277979:

; 1632 : 		}
; 1633 : 		else

  002f8	8b 4c 24 14	 mov	 ecx, DWORD PTR _this$[esp+80]
$L263009:

; 1595 : 	CMover*		pMover;
; 1596 : 	DWORD		dwWorldID;
; 1597 : 	D3DXVECTOR3 vPos;
; 1598 : 	u_long		uIdofMulti;
; 1599 : 	
; 1600 : 	for( int i = 0; i < m_cbReplaceObj; ++i )

  002fc	8b 44 24 1c	 mov	 eax, DWORD PTR _i$263007[esp+80]
  00300	8b 91 5c 40 05
	00		 mov	 edx, DWORD PTR [ecx+344156]
  00306	40		 inc	 eax
  00307	83 c5 1c	 add	 ebp, 28			; 0000001cH
  0030a	3b c2		 cmp	 eax, edx
  0030c	89 44 24 1c	 mov	 DWORD PTR _i$263007[esp+80], eax
  00310	89 6c 24 18	 mov	 DWORD PTR tv601[esp+80], ebp
  00314	0f 8c 2a fd ff
	ff		 jl	 $L263008

; 1704 : 			}
; 1705 : 		}
; 1706 : 	}
; 1707 : 	m_cbReplaceObj = 0;

  0031a	c7 81 5c 40 05
	00 00 00 00 00	 mov	 DWORD PTR [ecx+344156], 0

; 1708 : 
; 1709 : }

  00324	8b 4c 24 44	 mov	 ecx, DWORD PTR __$EHRec$[esp+80]
  00328	64 89 0d 00 00
	00 00		 mov	 DWORD PTR fs:__except_list, ecx
  0032f	5f		 pop	 edi
  00330	5e		 pop	 esi
  00331	5d		 pop	 ebp
  00332	5b		 pop	 ebx
  00333	8b e5		 mov	 esp, ebp
  00335	5d		 pop	 ebp
  00336	c3		 ret	 0
$L277978:

; 1704 : 			}
; 1705 : 		}
; 1706 : 	}
; 1707 : 	m_cbReplaceObj = 0;

  00337	89 81 5c 40 05
	00		 mov	 DWORD PTR [ecx+344156], eax

; 1708 : 
; 1709 : }

  0033d	8b 4c 24 44	 mov	 ecx, DWORD PTR __$EHRec$[esp+80]
  00341	5f		 pop	 edi
  00342	64 89 0d 00 00
	00 00		 mov	 DWORD PTR fs:__except_list, ecx
  00349	5e		 pop	 esi
  0034a	5d		 pop	 ebp
  0034b	5b		 pop	 ebx
  0034c	8b e5		 mov	 esp, ebp
  0034e	5d		 pop	 ebp
  0034f	c3		 ret	 0
_TEXT	ENDS
;	COMDAT text$x
text$x	SEGMENT
$L277810:
  00000	8d 4d e0	 lea	 ecx, DWORD PTR _vecTemp$263033[ebp]
  00003	e9 00 00 00 00	 jmp	 ??1?$vector@KV?$allocator@K@std@@@std@@QAE@XZ ; std::vector<unsigned long,std::allocator<unsigned long> >::~vector<unsigned long,std::allocator<unsigned long> >
__ehhandler$?_replace@CWorld@@AAEXXZ:
  00008	b8 00 00 00 00	 mov	 eax, OFFSET FLAT:$T277970
  0000d	e9 00 00 00 00	 jmp	 ___CxxFrameHandler
text$x	ENDS
?_replace@CWorld@@AAEXXZ ENDP				; CWorld::_replace
PUBLIC	?_Destroy@?$vector@UENVIR_INFO@@V?$allocator@UENVIR_INFO@@@std@@@std@@IAEXPAUENVIR_INFO@@0@Z ; std::vector<ENVIR_INFO,std::allocator<ENVIR_INFO> >::_Destroy
; Function compile flags: /Ogty
; File c:\program files\microsoft visual studio .net 2003\vc7\include\vector
;	COMDAT ?_Destroy@?$vector@UENVIR_INFO@@V?$allocator@UENVIR_INFO@@@std@@@std@@IAEXPAUENVIR_INFO@@0@Z
_TEXT	SEGMENT
__First$ = 8						; size = 4
__Last$ = 12						; size = 4
?_Destroy@?$vector@UENVIR_INFO@@V?$allocator@UENVIR_INFO@@@std@@@std@@IAEXPAUENVIR_INFO@@0@Z PROC NEAR ; std::vector<ENVIR_INFO,std::allocator<ENVIR_INFO> >::_Destroy, COMDAT
; _this$ = ecx

; 786  : 		{	// destroy [_First, _Last) using allocator

  00000	56		 push	 esi

; 787  : 		_Destroy_range(_First, _Last, this->_Alval);

  00001	8b 74 24 08	 mov	 esi, DWORD PTR __First$[esp]
  00005	57		 push	 edi
  00006	8b 7c 24 10	 mov	 edi, DWORD PTR __Last$[esp+4]
  0000a	3b f7		 cmp	 esi, edi
  0000c	74 13		 je	 SHORT $L278037
  0000e	8b ff		 npad	 2
$L278034:
  00010	8b ce		 mov	 ecx, esi
  00012	e8 00 00 00 00	 call	 ??1ENVIR_INFO@@QAE@XZ
  00017	81 c6 ec 00 00
	00		 add	 esi, 236		; 000000ecH
  0001d	3b f7		 cmp	 esi, edi
  0001f	75 ef		 jne	 SHORT $L278034
$L278037:
  00021	5f		 pop	 edi
  00022	5e		 pop	 esi

; 788  : 		}

  00023	c2 08 00	 ret	 8
?_Destroy@?$vector@UENVIR_INFO@@V?$allocator@UENVIR_INFO@@@std@@@std@@IAEXPAUENVIR_INFO@@0@Z ENDP ; std::vector<ENVIR_INFO,std::allocator<ENVIR_INFO> >::_Destroy
_TEXT	ENDS
PUBLIC	?Process@CWorld@@QAEXXZ				; CWorld::Process
EXTRN	?Process@CLayeredLinkMap@@QAEXPAVCWorld@@@Z:NEAR ; CLayeredLinkMap::Process
; Function compile flags: /Ogty
; File c:\documents and settings\test\mes documents\source\virtuos_v17\build\program\_common\world.cpp
;	COMDAT ?Process@CWorld@@QAEXXZ
_TEXT	SEGMENT
?Process@CWorld@@QAEXXZ PROC NEAR			; CWorld::Process, COMDAT
; _this$ = ecx

; 784  : {

  00000	56		 push	 esi
  00001	8b f1		 mov	 esi, ecx

; 785  : 	_add();

  00003	e8 00 00 00 00	 call	 ?_add@CWorld@@AAEXXZ	; CWorld::_add

; 786  : 	_process();		// iocp

  00008	8b ce		 mov	 ecx, esi
  0000a	e8 00 00 00 00	 call	 ?_process@CWorld@@AAEXXZ ; CWorld::_process

; 787  : 	_modifylink();	// _replace();

  0000f	8b ce		 mov	 ecx, esi
  00011	e8 00 00 00 00	 call	 ?_modifylink@CWorld@@AAEXXZ ; CWorld::_modifylink

; 788  : 	_OnDie();		// CUserMng	// CGuildMng

  00016	8b ce		 mov	 ecx, esi
  00018	e8 00 00 00 00	 call	 ?_OnDie@CWorld@@QAEXXZ	; CWorld::_OnDie

; 789  : 	_replace();		//_modifylink();

  0001d	8b ce		 mov	 ecx, esi
  0001f	e8 00 00 00 00	 call	 ?_replace@CWorld@@AAEXXZ ; CWorld::_replace

; 790  : 	_delete();

  00024	8b ce		 mov	 ecx, esi
  00026	e8 00 00 00 00	 call	 ?_delete@CWorld@@AAEXXZ	; CWorld::_delete

; 791  : 
; 792  : 	if( m_bLoadScriptFlag )

  0002b	8b 86 04 31 08
	00		 mov	 eax, DWORD PTR [esi+536836]
  00031	85 c0		 test	 eax, eax
  00033	74 11		 je	 SHORT $L262590

; 793  : 	{
; 794  : 		LoadAllMoverDialog();

  00035	8b ce		 mov	 ecx, esi
  00037	e8 00 00 00 00	 call	 ?LoadAllMoverDialog@CWorld@@QAEXXZ ; CWorld::LoadAllMoverDialog

; 795  : 		m_bLoadScriptFlag = FALSE;

  0003c	c7 86 04 31 08
	00 00 00 00 00	 mov	 DWORD PTR [esi+536836], 0
$L262590:

; 796  : 	}
; 797  : #ifdef __LAYER_1021
; 798  : 	m_linkMap.Process( this );

  00046	56		 push	 esi
  00047	8d 4e 24	 lea	 ecx, DWORD PTR [esi+36]
  0004a	e8 00 00 00 00	 call	 ?Process@CLayeredLinkMap@@QAEXPAVCWorld@@@Z ; CLayeredLinkMap::Process
  0004f	5e		 pop	 esi

; 799  : #endif	// __LAYER_1021
; 800  : }

  00050	c3		 ret	 0
?Process@CWorld@@QAEXXZ ENDP				; CWorld::Process
_TEXT	ENDS
PUBLIC	?_Tidy@?$vector@UENVIR_INFO@@V?$allocator@UENVIR_INFO@@@std@@@std@@IAEXXZ ; std::vector<ENVIR_INFO,std::allocator<ENVIR_INFO> >::_Tidy
; Function compile flags: /Ogty
; File c:\program files\microsoft visual studio .net 2003\vc7\include\vector
;	COMDAT ?_Tidy@?$vector@UENVIR_INFO@@V?$allocator@UENVIR_INFO@@@std@@@std@@IAEXXZ
_TEXT	SEGMENT
?_Tidy@?$vector@UENVIR_INFO@@V?$allocator@UENVIR_INFO@@@std@@@std@@IAEXXZ PROC NEAR ; std::vector<ENVIR_INFO,std::allocator<ENVIR_INFO> >::_Tidy, COMDAT
; _this$ = ecx

; 791  : 		{	// free all storage

  00000	53		 push	 ebx
  00001	8b d9		 mov	 ebx, ecx
  00003	56		 push	 esi

; 792  : 		if (_Myfirst != 0)

  00004	8b 73 04	 mov	 esi, DWORD PTR [ebx+4]
  00007	85 f6		 test	 esi, esi
  00009	74 26		 je	 SHORT $L278138
  0000b	57		 push	 edi

; 793  : 			{	// something to free, destroy and deallocate it
; 794  : 			_Destroy(_Myfirst, _Mylast);

  0000c	8b 7b 08	 mov	 edi, DWORD PTR [ebx+8]
  0000f	3b f7		 cmp	 esi, edi
  00011	74 11		 je	 SHORT $L278126
$L278124:
  00013	8b ce		 mov	 ecx, esi
  00015	e8 00 00 00 00	 call	 ??1ENVIR_INFO@@QAE@XZ
  0001a	81 c6 ec 00 00
	00		 add	 esi, 236		; 000000ecH
  00020	3b f7		 cmp	 esi, edi
  00022	75 ef		 jne	 SHORT $L278124
$L278126:

; 795  : 			this->_Alval.deallocate(_Myfirst, _Myend - _Myfirst);

  00024	8b 43 04	 mov	 eax, DWORD PTR [ebx+4]
  00027	50		 push	 eax
  00028	e8 00 00 00 00	 call	 ??3@YAXPAX@Z		; operator delete
  0002d	83 c4 04	 add	 esp, 4
  00030	5f		 pop	 edi
$L278138:
  00031	5e		 pop	 esi

; 796  : 			}
; 797  : 		_Myfirst = 0, _Mylast = 0, _Myend = 0;

  00032	c7 43 04 00 00
	00 00		 mov	 DWORD PTR [ebx+4], 0
  00039	c7 43 08 00 00
	00 00		 mov	 DWORD PTR [ebx+8], 0
  00040	c7 43 0c 00 00
	00 00		 mov	 DWORD PTR [ebx+12], 0
  00047	5b		 pop	 ebx

; 798  : 		}

  00048	c3		 ret	 0
?_Tidy@?$vector@UENVIR_INFO@@V?$allocator@UENVIR_INFO@@@std@@@std@@IAEXXZ ENDP ; std::vector<ENVIR_INFO,std::allocator<ENVIR_INFO> >::_Tidy
_TEXT	ENDS
PUBLIC	??1?$vector@UENVIR_INFO@@V?$allocator@UENVIR_INFO@@@std@@@std@@QAE@XZ ; std::vector<ENVIR_INFO,std::allocator<ENVIR_INFO> >::~vector<ENVIR_INFO,std::allocator<ENVIR_INFO> >
; Function compile flags: /Ogty
;	COMDAT ??1?$vector@UENVIR_INFO@@V?$allocator@UENVIR_INFO@@@std@@@std@@QAE@XZ
_TEXT	SEGMENT
??1?$vector@UENVIR_INFO@@V?$allocator@UENVIR_INFO@@@std@@@std@@QAE@XZ PROC NEAR ; std::vector<ENVIR_INFO,std::allocator<ENVIR_INFO> >::~vector<ENVIR_INFO,std::allocator<ENVIR_INFO> >, COMDAT
; _this$ = ecx

; 388  : 		_Tidy();

  00000	e9 00 00 00 00	 jmp	 ?_Tidy@?$vector@UENVIR_INFO@@V?$allocator@UENVIR_INFO@@@std@@@std@@IAEXXZ ; std::vector<ENVIR_INFO,std::allocator<ENVIR_INFO> >::_Tidy
??1?$vector@UENVIR_INFO@@V?$allocator@UENVIR_INFO@@@std@@@std@@QAE@XZ ENDP ; std::vector<ENVIR_INFO,std::allocator<ENVIR_INFO> >::~vector<ENVIR_INFO,std::allocator<ENVIR_INFO> >
_TEXT	ENDS
PUBLIC	??0CWorld@@QAE@XZ				; CWorld::CWorld
EXTRN	??0CMapWordToPtr@@QAE@H@Z:NEAR			; CMapWordToPtr::CMapWordToPtr
EXTRN	??0CLayerdRespawner@@QAE@XZ:NEAR		; CLayerdRespawner::CLayerdRespawner
EXTRN	??1CLayerdRespawner@@UAE@XZ:NEAR		; CLayerdRespawner::~CLayerdRespawner
EXTRN	??1CMapWordToPtr@@UAE@XZ:NEAR			; CMapWordToPtr::~CMapWordToPtr
EXTRN	??0CLayeredLinkMap@@QAE@XZ:NEAR			; CLayeredLinkMap::CLayeredLinkMap
EXTRN	??1CLayeredLinkMap@@UAE@XZ:NEAR			; CLayeredLinkMap::~CLayeredLinkMap
;	COMDAT xdata$x
; File c:\documents and settings\test\mes documents\source\virtuos_v17\build\program\dx_sdk\d3dx9math.inl
xdata$x	SEGMENT
$T278489 DD	0ffffffffH
	DD	FLAT:$L278151
	DD	00H
	DD	FLAT:$L278152
	DD	01H
	DD	FLAT:$L278153
	DD	02H
	DD	FLAT:$L278154
	DD	03H
	DD	FLAT:$L278155
	DD	04H
	DD	FLAT:$L278156
	DD	05H
	DD	FLAT:$L278157
	DD	06H
	DD	FLAT:$L278158
	DD	07H
	DD	FLAT:$L278159
$T278481 DD	019930520H
	DD	09H
	DD	FLAT:$T278489
	DD	2 DUP(00H)
	DD	2 DUP(00H)
; Function compile flags: /Ogty
; File c:\documents and settings\test\mes documents\source\virtuos_v17\build\program\_common\world.cpp
xdata$x	ENDS
;	COMDAT ??0CWorld@@QAE@XZ
_TEXT	SEGMENT
_this$ = -28						; size = 4
$T278150 = -24						; size = 12
__$EHRec$ = -12						; size = 12
??0CWorld@@QAE@XZ PROC NEAR				; CWorld::CWorld, COMDAT
; _this$ = ecx

; 80   : {

  00000	6a ff		 push	 -1
  00002	68 00 00 00 00	 push	 __ehhandler$??0CWorld@@QAE@XZ
  00007	64 a1 00 00 00
	00		 mov	 eax, DWORD PTR fs:__except_list
  0000d	50		 push	 eax
  0000e	64 89 25 00 00
	00 00		 mov	 DWORD PTR fs:__except_list, esp
  00015	83 ec 10	 sub	 esp, 16			; 00000010H
  00018	53		 push	 ebx
  00019	56		 push	 esi
  0001a	8b f1		 mov	 esi, ecx
  0001c	33 db		 xor	 ebx, ebx
  0001e	57		 push	 edi
  0001f	8d 4e 24	 lea	 ecx, DWORD PTR [esi+36]
  00022	89 74 24 0c	 mov	 DWORD PTR _this$[esp+40], esi
  00026	89 5e 18	 mov	 DWORD PTR [esi+24], ebx
  00029	e8 00 00 00 00	 call	 ??0CLayeredLinkMap@@QAE@XZ ; CLayeredLinkMap::CLayeredLinkMap
  0002e	89 5c 24 24	 mov	 DWORD PTR __$EHRec$[esp+48], ebx
  00032	89 9e 4c 00 05
	00		 mov	 DWORD PTR [esi+327756], ebx
  00038	89 9e 50 00 05
	00		 mov	 DWORD PTR [esi+327760], ebx
  0003e	89 9e 54 00 05
	00		 mov	 DWORD PTR [esi+327764], ebx
  00044	b8 00 04 00 00	 mov	 eax, 1024		; 00000400H
  00049	68 00 10 00 00	 push	 4096			; 00001000H
  0004e	c6 44 24 28 01	 mov	 BYTE PTR __$EHRec$[esp+52], 1
  00053	c7 86 a4 30 08
	00 00 00 00 00	 mov	 DWORD PTR [esi+536740], OFFSET FLAT:??_7?$CStack@K@@6B@
  0005d	89 9e b4 30 08
	00		 mov	 DWORD PTR [esi+536756], ebx
  00063	89 86 b0 30 08
	00		 mov	 DWORD PTR [esi+536752], eax
  00069	89 86 ac 30 08
	00		 mov	 DWORD PTR [esi+536748], eax
  0006f	e8 00 00 00 00	 call	 ??_U@YAPAXI@Z		; operator new[]
  00074	83 c4 04	 add	 esp, 4
  00077	89 86 a8 30 08
	00		 mov	 DWORD PTR [esi+536744], eax
  0007d	8d 8e c0 30 08
	00		 lea	 ecx, DWORD PTR [esi+536768]
  00083	c6 44 24 24 02	 mov	 BYTE PTR __$EHRec$[esp+48], 2
  00088	e8 00 00 00 00	 call	 ??0CLayerdRespawner@@QAE@XZ ; CLayerdRespawner::CLayerdRespawner
  0008d	6a 0a		 push	 10			; 0000000aH
  0008f	8d 8e 0c 51 08
	00		 lea	 ecx, DWORD PTR [esi+545036]
  00095	c6 44 24 28 03	 mov	 BYTE PTR __$EHRec$[esp+52], 3
  0009a	e8 00 00 00 00	 call	 ??0CMapWordToPtr@@QAE@H@Z ; CMapWordToPtr::CMapWordToPtr
  0009f	89 9e 40 93 08
	00		 mov	 DWORD PTR [esi+561984], ebx
  000a5	89 9e 44 87 0b
	00		 mov	 DWORD PTR [esi+755524], ebx
  000ab	c7 86 a0 7d 0e
	00 0f 00 00 00	 mov	 DWORD PTR [esi+949664], 15 ; 0000000fH
  000b5	89 9e 9c 7d 0e
	00		 mov	 DWORD PTR [esi+949660], ebx
  000bb	88 9e 8c 7d 0e
	00		 mov	 BYTE PTR [esi+949644], bl
  000c1	8d 8e c8 7d 0e
	00		 lea	 ecx, DWORD PTR [esi+949704]
  000c7	c6 44 24 24 05	 mov	 BYTE PTR __$EHRec$[esp+48], 5
  000cc	e8 00 00 00 00	 call	 ??0ENVIR_INFO@@QAE@XZ	; ENVIR_INFO::ENVIR_INFO
  000d1	8d 8e b4 7e 0e
	00		 lea	 ecx, DWORD PTR [esi+949940]
  000d7	c6 44 24 24 06	 mov	 BYTE PTR __$EHRec$[esp+48], 6
  000dc	e8 00 00 00 00	 call	 ??0ENVIR_INFO@@QAE@XZ	; ENVIR_INFO::ENVIR_INFO
  000e1	89 9e a4 7f 0e
	00		 mov	 DWORD PTR [esi+950180], ebx
  000e7	89 9e a8 7f 0e
	00		 mov	 DWORD PTR [esi+950184], ebx
  000ed	89 9e ac 7f 0e
	00		 mov	 DWORD PTR [esi+950188], ebx
  000f3	8d 8e b0 7f 0e
	00		 lea	 ecx, DWORD PTR [esi+950192]
  000f9	c6 44 24 24 08	 mov	 BYTE PTR __$EHRec$[esp+48], 8
  000fe	e8 00 00 00 00	 call	 ??0WORLD_ENVIR_INFO@@QAE@XZ

; 81   : 	m_nLandWidth	= 0;

  00103	89 5e 04	 mov	 DWORD PTR [esi+4], ebx

; 82   : 	m_nLandHeight	= 0;

  00106	89 5e 08	 mov	 DWORD PTR [esi+8], ebx

; 83   : 	WORLD_WIDTH = 0;

  00109	89 5e 0c	 mov	 DWORD PTR [esi+12], ebx

; 84   : 	WORLD_HEIGHT = 0;

  0010c	89 5e 10	 mov	 DWORD PTR [esi+16], ebx

; 85   : 	m_dwWorldID	= NULL_ID;

  0010f	c7 06 ff ff ff
	ff		 mov	 DWORD PTR [esi], -1

; 86   : 	m_dwIdWorldRevival = WI_WORLD_NONE; 

  00115	89 9e 18 93 08
	00		 mov	 DWORD PTR [esi+561944], ebx

; 87   : 	ZeroMemory( m_szKeyRevival, sizeof( m_szKeyRevival ) );	

  0011b	33 c0		 xor	 eax, eax
  0011d	8d 8e f8 92 08
	00		 lea	 ecx, DWORD PTR [esi+561912]
  00123	89 01		 mov	 DWORD PTR [ecx], eax
  00125	89 41 04	 mov	 DWORD PTR [ecx+4], eax
  00128	89 41 08	 mov	 DWORD PTR [ecx+8], eax
  0012b	89 41 0c	 mov	 DWORD PTR [ecx+12], eax
  0012e	89 41 10	 mov	 DWORD PTR [ecx+16], eax
  00131	89 41 14	 mov	 DWORD PTR [ecx+20], eax
  00134	89 41 18	 mov	 DWORD PTR [ecx+24], eax
  00137	89 41 1c	 mov	 DWORD PTR [ecx+28], eax

; 88   : 	m_nDeleteObjs	= 0;

  0013a	89 9e 30 51 08
	00		 mov	 DWORD PTR [esi+545072], ebx

; 89   : 	m_szFileName[0]	= '\0';

  00140	88 9e 38 92 08
	00		 mov	 BYTE PTR [esi+561720], bl

; 90   : 	m_fMaxHeight = 200.0f;		//091209  200

  00146	c7 86 28 51 08
	00 00 00 48 43	 mov	 DWORD PTR [esi+545064], 1128792064 ; 43480000H

; 91   : 	m_fMinHeight = 85.0f;

  00150	c7 86 2c 51 08
	00 00 00 aa 42	 mov	 DWORD PTR [esi+545068], 1118437376 ; 42aa0000H

; 92   : 	m_bFly = TRUE;

  0015a	c7 86 1c 93 08
	00 01 00 00 00	 mov	 DWORD PTR [esi+561948], 1

; 93   : 	m_bIsIndoor  = FALSE;

  00164	89 9e 20 93 08
	00		 mov	 DWORD PTR [esi+561952], ebx

; 94   : 	m_dwDiffuse  = 0;

  0016a	89 9e 24 93 08
	00		 mov	 DWORD PTR [esi+561956], ebx

; 95   : 	m_v3LightDir = D3DXVECTOR3( 0.0f,0.0f,0.0f );

  00170	89 44 24 10	 mov	 DWORD PTR $T278150[esp+40], eax
  00174	89 44 24 14	 mov	 DWORD PTR $T278150[esp+44], eax
  00178	8d 96 28 93 08
	00		 lea	 edx, DWORD PTR [esi+561960]
  0017e	89 02		 mov	 DWORD PTR [edx], eax
  00180	8b c8		 mov	 ecx, eax
  00182	89 4a 04	 mov	 DWORD PTR [edx+4], ecx

; 96   : 	m_dwIdMusic  = 0;

  00185	89 9e 34 93 08
	00		 mov	 DWORD PTR [esi+561972], ebx

; 97   : 	m_nPKMode = 0;

  0018b	89 9e 38 93 08
	00		 mov	 DWORD PTR [esi+561976], ebx

; 98   : 	m_szWorldName[0] = '\0';

  00191	88 9e 78 92 08
	00		 mov	 BYTE PTR [esi+561784], bl

; 99   : 
; 100  : #ifdef __WORLDSERVER
; 101  : 	m_apHeightMap	= NULL;

  00197	89 5e 1c	 mov	 DWORD PTR [esi+28], ebx

; 102  : 	m_apWaterHeight = NULL;

  0019a	89 5e 20	 mov	 DWORD PTR [esi+32], ebx

; 103  : 	m_dwObjNum	= 0;

  0019d	89 5e 44	 mov	 DWORD PTR [esi+68], ebx

; 104  : 	m_cbAddObjs		= 0;

  001a0	89 9e 60 b0 05
	00		 mov	 DWORD PTR [esi+372832], ebx
  001a6	89 42 08	 mov	 DWORD PTR [edx+8], eax

; 105  : 	memset( m_lpszWorld, 0, sizeof(TCHAR) * 64 );

  001a9	8d be 64 30 08
	00		 lea	 edi, DWORD PTR [esi+536676]
  001af	b9 10 00 00 00	 mov	 ecx, 16			; 00000010H
  001b4	f3 ab		 rep stosd

; 106  : 	m_cbUser	= 0;

  001b6	89 9e b8 30 08
	00		 mov	 DWORD PTR [esi+536760], ebx

; 107  : 	nextptr	= NULL;

  001bc	89 9e bc 30 08
	00		 mov	 DWORD PTR [esi+536764], ebx

; 108  : 	m_cbModifyLink	= 0;

  001c2	89 9e 58 00 05
	00		 mov	 DWORD PTR [esi+327768], ebx

; 109  : 	m_cbReplaceObj	= 0;

  001c8	89 9e 5c 40 05
	00		 mov	 DWORD PTR [esi+344156], ebx

; 110  : 	m_bLoadScriptFlag = FALSE;

  001ce	89 9e 04 31 08
	00		 mov	 DWORD PTR [esi+536836], ebx

; 111  : 
; 112  : 	m_cbOnDie	= 0;

  001d4	89 9e 08 31 08
	00		 mov	 DWORD PTR [esi+536840], ebx

; 113  : 	memset( m_aOnDie, 0, sizeof(m_aOnDie) );

  001da	8d be 0c 31 08
	00		 lea	 edi, DWORD PTR [esi+536844]
  001e0	b9 00 08 00 00	 mov	 ecx, 2048		; 00000800H
  001e5	f3 ab		 rep stosd

; 114  : #else	// __WORLDSERVER
; 115  : 	m_fElapsedTime	=0;
; 116  : 	m_nVisibilityLand	= (int)( m_fFarPlane / ( MAP_SIZE * MPU ) );
; 117  : 	m_fFogStartValue	= 70;
; 118  : 	m_fFogEndValue	= 400;
; 119  : 	m_fFogDensity	= 0.0f;
; 120  : 	m_pd3dDevice	= NULL;
; 121  : 	m_pBoundBoxVertexBuffer = NULL;
; 122  : 	m_nCharLandPosX = -1;
; 123  : 	m_nCharLandPosZ = -1;
; 124  : 
; 125  : 	m_bViewGrid	= FALSE;
; 126  : 	m_bViewGridPatch = FALSE;
; 127  : 	m_bViewGridLandscape = FALSE;
; 128  : 	m_bViewWireframe = FALSE;
; 129  : 	m_bViewSkybox = TRUE;
; 130  : 	m_bViewTerrain = TRUE;
; 131  : 	m_bViewAllObjects = TRUE;
; 132  : 	m_bViewFog = TRUE;
; 133  : 	m_bViewWater = TRUE;
; 134  : 	m_bViewName	= TRUE;
; 135  : 	m_bViewHP	= TRUE;	
; 136  : 	m_bViewLight = TRUE;
; 137  : 	m_bViewWeather = TRUE;
; 138  : 	m_bViewBoundBox	= FALSE;
; 139  : 	m_bCullObj = TRUE;
; 140  : 	m_bProcess = TRUE;
; 141  : 	m_bViewObj = TRUE;
; 142  : 	m_bViewMover = TRUE;
; 143  : 	m_bViewItem	= TRUE;
; 144  : 	m_bViewRegion = TRUE;
; 145  : 	m_bViewSpawn = TRUE;
; 146  : 	m_bViewHeightAttribute = FALSE;
; 147  : 	m_bViewLODObj = TRUE;
; 148  : 
; 149  : 	m_nObjCullSize = 0;
; 150  : 	m_nSfxCullSize = 0;
; 151  : 	m_bViewIdState = FALSE;
; 152  : 	m_dwAmbient	= D3DCOLOR_ARGB( 255,128,128,128);
; 153  : 	m_pObjFocus		= NULL;
; 154  : 	m_idObjFocusOld	= NULL_ID;
; 155  : 	m_dwLightIndex	= 0;
; 156  : 	m_pCamera	= NULL;
; 157  : 	m_apLand	= NULL;
; 158  : 
; 159  : #if __VER >= 15 // __BS_CHANGING_ENVIR
; 160  : 	m_bProcessingEnvir = FALSE;
; 161  : 	m_dwOldTime		= 0;
; 162  : 	m_dwAddedTime	= 0;
; 163  : 	m_bUsing24Light = FALSE;
; 164  : #endif
; 165  : #endif // __WORLDSERVER
; 166  : }

  001e7	8b 4c 24 1c	 mov	 ecx, DWORD PTR __$EHRec$[esp+40]
  001eb	5f		 pop	 edi
  001ec	89 44 24 14	 mov	 DWORD PTR $T278150[esp+44], eax
  001f0	8b c6		 mov	 eax, esi
  001f2	5e		 pop	 esi
  001f3	5b		 pop	 ebx
  001f4	64 89 0d 00 00
	00 00		 mov	 DWORD PTR fs:__except_list, ecx
  001fb	83 c4 1c	 add	 esp, 28			; 0000001cH
  001fe	c3		 ret	 0
_TEXT	ENDS
;	COMDAT text$x
text$x	SEGMENT
$L278151:
  00000	8b 4d e4	 mov	 ecx, DWORD PTR _this$[ebp]
  00003	83 c1 24	 add	 ecx, 36			; 00000024H
  00006	e9 00 00 00 00	 jmp	 ??1CLayeredLinkMap@@UAE@XZ ; CLayeredLinkMap::~CLayeredLinkMap
$L278152:
  0000b	8b 4d e4	 mov	 ecx, DWORD PTR _this$[ebp]
  0000e	81 c1 48 00 05
	00		 add	 ecx, 327752		; 00050048H
  00014	e9 00 00 00 00	 jmp	 ??1?$vector@PAVCObj@@V?$allocator@PAVCObj@@@std@@@std@@QAE@XZ ; std::vector<CObj *,std::allocator<CObj *> >::~vector<CObj *,std::allocator<CObj *> >
$L278153:
  00019	8b 4d e4	 mov	 ecx, DWORD PTR _this$[ebp]
  0001c	81 c1 a4 30 08
	00		 add	 ecx, 536740		; 000830a4H
  00022	e9 00 00 00 00	 jmp	 ??1?$CStack@K@@UAE@XZ	; CStack<unsigned long>::~CStack<unsigned long>
$L278154:
  00027	8b 4d e4	 mov	 ecx, DWORD PTR _this$[ebp]
  0002a	81 c1 c0 30 08
	00		 add	 ecx, 536768		; 000830c0H
  00030	e9 00 00 00 00	 jmp	 ??1CLayerdRespawner@@UAE@XZ ; CLayerdRespawner::~CLayerdRespawner
$L278155:
  00035	8b 4d e4	 mov	 ecx, DWORD PTR _this$[ebp]
  00038	81 c1 0c 51 08
	00		 add	 ecx, 545036		; 0008510cH
  0003e	e9 00 00 00 00	 jmp	 ??1CMapWordToPtr@@UAE@XZ ; CMapWordToPtr::~CMapWordToPtr
$L278156:
  00043	8b 4d e4	 mov	 ecx, DWORD PTR _this$[ebp]
  00046	81 c1 88 7d 0e
	00		 add	 ecx, 949640		; 000e7d88H
  0004c	e9 00 00 00 00	 jmp	 ??1?$basic_string@DU?$char_traits@D@std@@V?$allocator@D@2@@std@@QAE@XZ ; std::basic_string<char,std::char_traits<char>,std::allocator<char> >::~basic_string<char,std::char_traits<char>,std::allocator<char> >
$L278157:
  00051	8b 4d e4	 mov	 ecx, DWORD PTR _this$[ebp]
  00054	81 c1 c8 7d 0e
	00		 add	 ecx, 949704		; 000e7dc8H
  0005a	e9 00 00 00 00	 jmp	 ??1ENVIR_INFO@@QAE@XZ
$L278158:
  0005f	8b 4d e4	 mov	 ecx, DWORD PTR _this$[ebp]
  00062	81 c1 b4 7e 0e
	00		 add	 ecx, 949940		; 000e7eb4H
  00068	e9 00 00 00 00	 jmp	 ??1ENVIR_INFO@@QAE@XZ
$L278159:
  0006d	8b 4d e4	 mov	 ecx, DWORD PTR _this$[ebp]
  00070	81 c1 a0 7f 0e
	00		 add	 ecx, 950176		; 000e7fa0H
  00076	e9 00 00 00 00	 jmp	 ??1?$vector@UENVIR_INFO@@V?$allocator@UENVIR_INFO@@@std@@@std@@QAE@XZ ; std::vector<ENVIR_INFO,std::allocator<ENVIR_INFO> >::~vector<ENVIR_INFO,std::allocator<ENVIR_INFO> >
__ehhandler$??0CWorld@@QAE@XZ:
  0007b	b8 00 00 00 00	 mov	 eax, OFFSET FLAT:$T278481
  00080	e9 00 00 00 00	 jmp	 ___CxxFrameHandler
text$x	ENDS
??0CWorld@@QAE@XZ ENDP					; CWorld::CWorld
PUBLIC	??1CWorld@@QAE@XZ				; CWorld::~CWorld
;	COMDAT xdata$x
; File c:\program files\microsoft visual studio .net 2003\vc7\include\xmemory
xdata$x	SEGMENT
$T278618 DD	0ffffffffH
	DD	FLAT:$L278495
	DD	00H
	DD	FLAT:$L278496
	DD	01H
	DD	FLAT:$L278497
	DD	02H
	DD	FLAT:$L278498
	DD	03H
	DD	FLAT:$L278499
	DD	04H
	DD	FLAT:$L278500
	DD	05H
	DD	FLAT:$L278501
	DD	06H
	DD	FLAT:$L278502
	DD	07H
	DD	FLAT:$L278503
	DD	08H
	DD	FLAT:$L278504
$T278616 DD	019930520H
	DD	0aH
	DD	FLAT:$T278618
	DD	2 DUP(00H)
	DD	2 DUP(00H)
; Function compile flags: /Ogty
; File c:\documents and settings\test\mes documents\source\virtuos_v17\build\program\_common\world.cpp
xdata$x	ENDS
;	COMDAT ??1CWorld@@QAE@XZ
_TEXT	SEGMENT
_this$ = -16						; size = 4
__$EHRec$ = -12						; size = 12
??1CWorld@@QAE@XZ PROC NEAR				; CWorld::~CWorld, COMDAT
; _this$ = ecx

; 169  : {

  00000	6a ff		 push	 -1
  00002	68 00 00 00 00	 push	 __ehhandler$??1CWorld@@QAE@XZ
  00007	64 a1 00 00 00
	00		 mov	 eax, DWORD PTR fs:__except_list
  0000d	50		 push	 eax
  0000e	64 89 25 00 00
	00 00		 mov	 DWORD PTR fs:__except_list, esp
  00015	51		 push	 ecx
  00016	53		 push	 ebx
  00017	56		 push	 esi
  00018	8b f1		 mov	 esi, ecx
  0001a	89 74 24 08	 mov	 DWORD PTR _this$[esp+24], esi
  0001e	c7 44 24 14 09
	00 00 00	 mov	 DWORD PTR __$EHRec$[esp+32], 9

; 170  : 	Free();

  00026	e8 00 00 00 00	 call	 ?Free@CWorld@@QAEXXZ	; CWorld::Free

; 171  : }

  0002b	8d 8e b0 7f 0e
	00		 lea	 ecx, DWORD PTR [esi+950192]
  00031	c6 44 24 14 08	 mov	 BYTE PTR __$EHRec$[esp+32], 8
  00036	e8 00 00 00 00	 call	 ??1WORLD_ENVIR_INFO@@QAE@XZ
  0003b	8d 8e a0 7f 0e
	00		 lea	 ecx, DWORD PTR [esi+950176]
  00041	e8 00 00 00 00	 call	 ?_Tidy@?$vector@UENVIR_INFO@@V?$allocator@UENVIR_INFO@@@std@@@std@@IAEXXZ ; std::vector<ENVIR_INFO,std::allocator<ENVIR_INFO> >::_Tidy
  00046	8d 8e b4 7e 0e
	00		 lea	 ecx, DWORD PTR [esi+949940]
  0004c	e8 00 00 00 00	 call	 ??1ENVIR_INFO@@QAE@XZ
  00051	8d 8e c8 7d 0e
	00		 lea	 ecx, DWORD PTR [esi+949704]
  00057	e8 00 00 00 00	 call	 ??1ENVIR_INFO@@QAE@XZ
  0005c	83 be a0 7d 0e
	00 10		 cmp	 DWORD PTR [esi+949664], 16 ; 00000010H
  00063	72 0f		 jb	 SHORT $L278577
  00065	8b 86 8c 7d 0e
	00		 mov	 eax, DWORD PTR [esi+949644]
  0006b	50		 push	 eax
  0006c	e8 00 00 00 00	 call	 ??3@YAXPAX@Z		; operator delete
  00071	83 c4 04	 add	 esp, 4
$L278577:
  00074	33 db		 xor	 ebx, ebx
  00076	c7 86 a0 7d 0e
	00 0f 00 00 00	 mov	 DWORD PTR [esi+949664], 15 ; 0000000fH
  00080	89 9e 9c 7d 0e
	00		 mov	 DWORD PTR [esi+949660], ebx
  00086	8d 8e 0c 51 08
	00		 lea	 ecx, DWORD PTR [esi+545036]
  0008c	88 9e 8c 7d 0e
	00		 mov	 BYTE PTR [esi+949644], bl
  00092	c6 44 24 14 03	 mov	 BYTE PTR __$EHRec$[esp+32], 3
  00097	e8 00 00 00 00	 call	 ??1CMapWordToPtr@@UAE@XZ ; CMapWordToPtr::~CMapWordToPtr
  0009c	8d 8e c0 30 08
	00		 lea	 ecx, DWORD PTR [esi+536768]
  000a2	c6 44 24 14 02	 mov	 BYTE PTR __$EHRec$[esp+32], 2
  000a7	e8 00 00 00 00	 call	 ??1CLayerdRespawner@@UAE@XZ ; CLayerdRespawner::~CLayerdRespawner
  000ac	8b 86 a8 30 08
	00		 mov	 eax, DWORD PTR [esi+536744]
  000b2	3b c3		 cmp	 eax, ebx
  000b4	c7 86 a4 30 08
	00 00 00 00 00	 mov	 DWORD PTR [esi+536740], OFFSET FLAT:??_7?$CStack@K@@6B@
  000be	74 0f		 je	 SHORT $L278593
  000c0	50		 push	 eax
  000c1	e8 00 00 00 00	 call	 ??_V@YAXPAX@Z		; operator delete[]
  000c6	83 c4 04	 add	 esp, 4
  000c9	89 9e a8 30 08
	00		 mov	 DWORD PTR [esi+536744], ebx
$L278593:
  000cf	8b 86 4c 00 05
	00		 mov	 eax, DWORD PTR [esi+327756]
  000d5	3b c3		 cmp	 eax, ebx
  000d7	74 09		 je	 SHORT $L278610
  000d9	50		 push	 eax
  000da	e8 00 00 00 00	 call	 ??3@YAXPAX@Z		; operator delete
  000df	83 c4 04	 add	 esp, 4
$L278610:
  000e2	8d 4e 24	 lea	 ecx, DWORD PTR [esi+36]
  000e5	89 9e 4c 00 05
	00		 mov	 DWORD PTR [esi+327756], ebx
  000eb	89 9e 50 00 05
	00		 mov	 DWORD PTR [esi+327760], ebx
  000f1	89 9e 54 00 05
	00		 mov	 DWORD PTR [esi+327764], ebx
  000f7	c7 44 24 14 ff
	ff ff ff	 mov	 DWORD PTR __$EHRec$[esp+32], -1
  000ff	e8 00 00 00 00	 call	 ??1CLayeredLinkMap@@UAE@XZ ; CLayeredLinkMap::~CLayeredLinkMap
  00104	8b 4c 24 0c	 mov	 ecx, DWORD PTR __$EHRec$[esp+24]
  00108	5e		 pop	 esi
  00109	5b		 pop	 ebx
  0010a	64 89 0d 00 00
	00 00		 mov	 DWORD PTR fs:__except_list, ecx
  00111	83 c4 10	 add	 esp, 16			; 00000010H
  00114	c3		 ret	 0
_TEXT	ENDS
;	COMDAT text$x
text$x	SEGMENT
$L278495:
  00000	8b 4d f0	 mov	 ecx, DWORD PTR _this$[ebp]
  00003	83 c1 24	 add	 ecx, 36			; 00000024H
  00006	e9 00 00 00 00	 jmp	 ??1CLayeredLinkMap@@UAE@XZ ; CLayeredLinkMap::~CLayeredLinkMap
$L278496:
  0000b	8b 4d f0	 mov	 ecx, DWORD PTR _this$[ebp]
  0000e	81 c1 48 00 05
	00		 add	 ecx, 327752		; 00050048H
  00014	e9 00 00 00 00	 jmp	 ??1?$vector@PAVCObj@@V?$allocator@PAVCObj@@@std@@@std@@QAE@XZ ; std::vector<CObj *,std::allocator<CObj *> >::~vector<CObj *,std::allocator<CObj *> >
$L278497:
  00019	8b 4d f0	 mov	 ecx, DWORD PTR _this$[ebp]
  0001c	81 c1 a4 30 08
	00		 add	 ecx, 536740		; 000830a4H
  00022	e9 00 00 00 00	 jmp	 ??1?$CStack@K@@UAE@XZ	; CStack<unsigned long>::~CStack<unsigned long>
$L278498:
  00027	8b 4d f0	 mov	 ecx, DWORD PTR _this$[ebp]
  0002a	81 c1 c0 30 08
	00		 add	 ecx, 536768		; 000830c0H
  00030	e9 00 00 00 00	 jmp	 ??1CLayerdRespawner@@UAE@XZ ; CLayerdRespawner::~CLayerdRespawner
$L278499:
  00035	8b 4d f0	 mov	 ecx, DWORD PTR _this$[ebp]
  00038	81 c1 0c 51 08
	00		 add	 ecx, 545036		; 0008510cH
  0003e	e9 00 00 00 00	 jmp	 ??1CMapWordToPtr@@UAE@XZ ; CMapWordToPtr::~CMapWordToPtr
$L278500:
  00043	8b 4d f0	 mov	 ecx, DWORD PTR _this$[ebp]
  00046	81 c1 88 7d 0e
	00		 add	 ecx, 949640		; 000e7d88H
  0004c	e9 00 00 00 00	 jmp	 ??1?$basic_string@DU?$char_traits@D@std@@V?$allocator@D@2@@std@@QAE@XZ ; std::basic_string<char,std::char_traits<char>,std::allocator<char> >::~basic_string<char,std::char_traits<char>,std::allocator<char> >
$L278501:
  00051	8b 4d f0	 mov	 ecx, DWORD PTR _this$[ebp]
  00054	81 c1 c8 7d 0e
	00		 add	 ecx, 949704		; 000e7dc8H
  0005a	e9 00 00 00 00	 jmp	 ??1ENVIR_INFO@@QAE@XZ
$L278502:
  0005f	8b 4d f0	 mov	 ecx, DWORD PTR _this$[ebp]
  00062	81 c1 b4 7e 0e
	00		 add	 ecx, 949940		; 000e7eb4H
  00068	e9 00 00 00 00	 jmp	 ??1ENVIR_INFO@@QAE@XZ
$L278503:
  0006d	8b 4d f0	 mov	 ecx, DWORD PTR _this$[ebp]
  00070	81 c1 a0 7f 0e
	00		 add	 ecx, 950176		; 000e7fa0H
  00076	e9 00 00 00 00	 jmp	 ??1?$vector@UENVIR_INFO@@V?$allocator@UENVIR_INFO@@@std@@@std@@QAE@XZ ; std::vector<ENVIR_INFO,std::allocator<ENVIR_INFO> >::~vector<ENVIR_INFO,std::allocator<ENVIR_INFO> >
$L278504:
  0007b	8b 4d f0	 mov	 ecx, DWORD PTR _this$[ebp]
  0007e	81 c1 b0 7f 0e
	00		 add	 ecx, 950192		; 000e7fb0H
  00084	e9 00 00 00 00	 jmp	 ??1WORLD_ENVIR_INFO@@QAE@XZ
__ehhandler$??1CWorld@@QAE@XZ:
  00089	b8 00 00 00 00	 mov	 eax, OFFSET FLAT:$T278616
  0008e	e9 00 00 00 00	 jmp	 ___CxxFrameHandler
text$x	ENDS
??1CWorld@@QAE@XZ ENDP					; CWorld::~CWorld
END
