 WorldServer

 Timestamp is 525ed040 (Wed Oct 16 13:43:28 2013)

 Preferred load address is 00400000

 Start         Length     Name                   Class
 0001:00000000 001b85f2H .text                   CODE
 0001:001b85f2 000000adH .text$AFX_AUX           CODE
 0001:001b869f 00000000H .text$AFX_CMNCTL        CODE
 0001:001b869f 0000098aH .text$AFX_COL1          CODE
 0001:001b9029 00000585H .text$AFX_COL2          CODE
 0001:001b95ae 00003b75H .text$AFX_CORE1         CODE
 0001:001bd123 00000c99H .text$AFX_CORE2         CODE
 0001:001bddbc 00000415H .text$AFX_CORE3         CODE
 0001:001be1d1 00000094H .text$AFX_CORE4         CODE
 0001:001be265 000013b9H .text$AFX_INIT          CODE
 0001:001bf61e 0000025dH .text$AFX_OLE1          CODE
 0001:001bf87b 0000001cH .text$AFX_TERM          CODE
 0001:001bf8a0 00007cfcH .text$x                 CODE
 0001:001c75a0 00000c1aH .text$yc                CODE
 0001:001c81c0 000005beH .text$yd                CODE
 0002:00000000 00000510H .idata$5                DATA
 0002:00000510 0002d000H .rdata                  DATA
 0002:0002d510 00000089H .rdata$debug            DATA
 0002:0002d59c 00000058H .rdata$ilfixup          DATA
 0002:0002d5f4 00000cc0H .rdata$r                DATA
 0002:0002e2b4 00000004H .rtc$IAA                DATA
 0002:0002e2b8 00000004H .rtc$IZZ                DATA
 0002:0002e2bc 00000004H .rtc$TAA                DATA
 0002:0002e2c0 00000004H .rtc$TZZ                DATA
 0002:0002e2c4 00011028H .xdata$x                DATA
 0002:0003f2ec 00000000H ATL$__a                 DATA
 0002:0003f2ec 00000000H ATL$__z                 DATA
 0002:0003f2ec 000000f0H .idata$2                DATA
 0002:0003f3dc 00000014H .idata$3                DATA
 0002:0003f3f0 00000510H .idata$4                DATA
 0002:0003f900 0000143eH .idata$6                DATA
 0002:00040d3e 00000000H .edata                  DATA
 0003:00000000 00000004H .CRT$XCA                DATA
 0003:00000004 00000004H .CRT$XCA0               DATA
 0003:00000008 00000004H .CRT$XCAA               DATA
 0003:0000000c 0000000cH .CRT$XCC                DATA
 0003:00000018 00000004H .CRT$XCL                DATA
 0003:0000001c 000000e4H .CRT$XCU                DATA
 0003:00000100 00000004H .CRT$XCZ                DATA
 0003:00000104 00000004H .CRT$XIA                DATA
 0003:00000108 00000014H .CRT$XIC                DATA
 0003:0000011c 00000004H .CRT$XIY                DATA
 0003:00000120 00000004H .CRT$XIZ                DATA
 0003:00000124 00000004H .CRT$XPA                DATA
 0003:00000128 00000008H .CRT$XPX                DATA
 0003:00000130 00000004H .CRT$XPZ                DATA
 0003:00000134 00000004H .CRT$XTA                DATA
 0003:00000138 00000004H .CRT$XTB                DATA
 0003:0000013c 00000004H .CRT$XTZ                DATA
 0003:00000140 000116f4H .data                   DATA
 0003:00011840 001dfe34H .bss                    DATA
 0004:00000000 00000238H .rsrc$01                DATA
 0004:00000240 00027df8H .rsrc$02                DATA

  Address         Publics by Value              Rva+Base     Lib:Object

 0000:00000000       __except_list              00000000     <absolute>
 0000:00000000       ___safe_se_handler_count   00000000     <absolute>
 0000:00000000       ___safe_se_handler_table   00000000     <absolute>
 0000:00000000       ___ImageBase               00400000     <linker-defined>
 0001:00000000       ?GetSkillLevel@ATTACK_INFO@@QBEHXZ 00401000 f   AttackArbiter.obj
 0001:00000010       ?IsRangeAttack@ATTACK_INFO@@QBEHXZ 00401010 f   AttackArbiter.obj
 0001:00000020       ??0CAttackArbiter@@QAE@KPAVCMover@@0KHHH@Z 00401020 f   AttackArbiter.obj
 0001:00000070       ??1CAttackArbiter@@UAE@XZ  00401070 f   AttackArbiter.obj
 0001:00000080       ?xRandom@@YAKK@Z           00401080 f i AttackArbiter.obj
 0001:000000a0       ?GetPos@CObj@@QAE?AUD3DXVECTOR3@@XZ 004010a0 f i AttackArbiter.obj
 0001:000000d0       ?IsValidObjID@@YAHK@Z      004010d0 f i AttackArbiter.obj
 0001:000000f0       ?IsBaruna@ItemProp@@QAEHXZ 004010f0 f i AttackArbiter.obj
 0001:00000110       ?GetMoverProp@CProject@@QAEPAUMoverProp@@H@Z 00401110 f i AttackArbiter.obj
 0001:00000160       ?GetPropA@CMover@@QAEPAUMoverProp@@XZ 00401160 f i AttackArbiter.obj
 0001:000001a0       ?IsDie@CMover@@QAEHXZ      004011a0 f i AttackArbiter.obj
 0001:000001d0       ?GetChargeLevel@ATTACK_INFO@@QBEHXZ 004011d0 f   AttackArbiter.obj
 0001:000001f0       ?GetSkill@ATTACK_INFO@@QBEHXZ 004011f0 f   AttackArbiter.obj
 0001:00000200       ??_ECAttackArbiter@@UAEPAXI@Z 00401200 f i AttackArbiter.obj
 0001:00000200       ??_GCAttackArbiter@@UAEPAXI@Z 00401200 f i AttackArbiter.obj
 0001:00000220       ?CheckValidDamageMsg@CAttackArbiter@@AAEHXZ 00401220 f   AttackArbiter.obj
 0001:00000320       ?CalcATK@CAttackArbiter@@AAEHPAUATTACK_INFO@@@Z 00401320 f   AttackArbiter.obj
 0001:00000450       ?OnAfterDamage@CAttackArbiter@@AAEHPAUATTACK_INFO@@H@Z 00401450 f   AttackArbiter.obj
 0001:000005f0       ?PostAsalraalaikum@CAttackArbiter@@AAEHXZ 004015f0 f   AttackArbiter.obj
 0001:00000720       ?ChanceSkill@CAttackArbiter@@AAEXHPAVCCtrl@@0@Z 00401720 f   AttackArbiter.obj
 0001:000007b0       ?StealHP@CAttackArbiter@@AAEXHW4ATK_TYPE@@@Z 004017b0 f   AttackArbiter.obj
 0001:00000860       ?OnDamaged@CAttackArbiter@@AAEXH@Z 00401860 f   AttackArbiter.obj
 0001:000008b0       ?GetItemProp@CProject@@QAEPAUItemProp@@H@Z 004018b0 f i AttackArbiter.obj
 0001:00000900       ?GetPropA@CItemElem@@QAEPAUItemProp@@XZ 00401900 f i AttackArbiter.obj
 0001:00000900       ?GetPropA@CItemBase@@QAEPAUItemProp@@XZ 00401900 f i Item.obj
 0001:00000940       ?CanIgnoreDEF@ATTACK_INFO@@QBEHXZ 00401940 f   AttackArbiter.obj
 0001:00000970       ?PostCalcDamage@CAttackArbiter@@AAEHHPAUATTACK_INFO@@@Z 00401970 f   AttackArbiter.obj
 0001:00000ae0       ?ProcessAbnormal@CAttackArbiter@@AAEXHPAUATTACK_INFO@@@Z 00401ae0 f   AttackArbiter.obj
 0001:00000e60       ?OnDiedPVP@CAttackArbiter@@AAEXXZ 00401e60 f   AttackArbiter.obj
 0001:00000f60       ?OnDiedSchoolEvent@CAttackArbiter@@AAEXXZ 00401f60 f   AttackArbiter.obj
 0001:00001150       ?OnDied@CAttackArbiter@@AAEXXZ 00402150 f   AttackArbiter.obj
 0001:00001330       ?OnDamageMsgW@CAttackArbiter@@QAEHXZ 00402330 f   AttackArbiter.obj
 0001:000016d0       ??0CCampusMember@@QAE@XZ   004026d0 f   Campus.obj
 0001:000016e0       ?IsValidObj@@YAHPAVCObj@@@Z 004026e0 f i Campus.obj
 0001:00001700       ??6CAr@@QAEAAV0@K@Z        00402700 f i Campus.obj
 0001:00001700       ??6CAr@@QAEAAV0@H@Z        00402700 f i Campus.obj
 0001:00001700       ??6CAr@@QAEAAV0@I@Z        00402700 f i Campus.obj
 0001:00001720       ??5CAr@@QAEAAV0@AAH@Z      00402720 f i Campus.obj
 0001:00001720       ??5CAr@@QAEAAV0@AAM@Z      00402720 f i DPCoreClient.obj
 0001:00001720       ??5CAr@@QAEAAV0@AAK@Z      00402720 f i Campus.obj
 0001:00001760       ?_Inc@const_iterator@?$_Tree@V?$_Tmap_traits@KPAU_PlayerData@@U?$less@K@std@@V?$allocator@U?$pair@$$CBKPAU_PlayerData@@@std@@@3@$0A@@std@@@std@@QAEXXZ 00402760 f i playerdata.obj
 0001:00001760       ?_Inc@const_iterator@?$_Tree@V?$_Tmap_traits@KPAVCClientSockE@@U?$less@K@std@@V?$allocator@U?$pair@$$CBKPAVCClientSockE@@@std@@@3@$0A@@std@@@std@@QAEXXZ 00402760 f i serversocke.obj
 0001:00001760       ?_Inc@const_iterator@?$_Tree@V?$_Tmap_traits@KPAVCCtrl@@U?$less@K@std@@V?$allocator@U?$pair@$$CBKPAVCCtrl@@@std@@@3@$0A@@std@@@std@@QAEXXZ 00402760 f i LinkMap.obj
 0001:00001760       ?_Inc@const_iterator@?$_Tree@V?$_Tmap_traits@KPAVCCampus@@U?$less@K@std@@V?$allocator@U?$pair@$$CBKPAVCCampus@@@std@@@3@$0A@@std@@@std@@QAEXXZ 00402760 f i Campus.obj
 0001:00001760       ?_Inc@const_iterator@?$_Tree@V?$_Tmap_traits@KHU?$less@K@std@@V?$allocator@U?$pair@$$CBKH@std@@@2@$0A@@std@@@std@@QAEXXZ 00402760 f i CreateMonster.obj
 0001:00001760       ?_Inc@const_iterator@?$_Tree@V?$_Tmap_traits@KEU?$less@K@std@@V?$allocator@U?$pair@$$CBKE@std@@@2@$0A@@std@@@std@@QAEXXZ 00402760 f i EventLua.obj
 0001:00001760       ?_Inc@const_iterator@?$_Tree@V?$_Tmap_traits@HKU?$less@H@std@@V?$allocator@U?$pair@$$CBHK@std@@@2@$0A@@std@@@std@@QAEXXZ 00402760 f i CampusHelper.obj
 0001:00001760       ?_Inc@const_iterator@?$_Tree@V?$_Tmap_traits@KPAVCMover@@U?$less@K@std@@V?$allocator@U?$pair@$$CBKPAVCMover@@@std@@@3@$0A@@std@@@std@@QAEXXZ 00402760 f i Project.obj
 0001:00001760       ?_Inc@const_iterator@?$_Tree@V?$_Tmap_traits@HMU?$less@H@std@@V?$allocator@U?$pair@$$CBHM@std@@@2@$0A@@std@@@std@@QAEXXZ 00402760 f i GuildHouse.obj
 0001:00001760       ?_Inc@const_iterator@?$_Tree@V?$_Tmap_traits@KPAVCHousing@@U?$less@K@std@@V?$allocator@U?$pair@$$CBKPAVCHousing@@@std@@@3@$0A@@std@@@std@@QAEXXZ 00402760 f i Housing.obj
 0001:00001760       ?_Inc@const_iterator@?$_Tree@V?$_Tmap_traits@KP8CDPDatabaseClient@@AEXAAVCAr@@KK@ZU?$less@K@std@@V?$allocator@U?$pair@$$CBKP8CDPDatabaseClient@@AEXAAVCAr@@KK@Z@std@@@4@$0A@@std@@@std@@QAEXXZ 00402760 f i DPDatabaseClient.obj
 0001:00001760       ?_Inc@const_iterator@?$_Tree@V?$_Tmap_traits@HPAVCSpawn@@U?$less@H@std@@V?$allocator@U?$pair@$$CBHPAVCSpawn@@@std@@@3@$0A@@std@@@std@@QAEXXZ 00402760 f i spevent.obj
 0001:00001760       ?_Inc@const_iterator@?$_Tree@V?$_Tmap_traits@KPAUCREATE_MONSTER_PROP@@U?$less@K@std@@V?$allocator@U?$pair@$$CBKPAUCREATE_MONSTER_PROP@@@std@@@3@$0A@@std@@@std@@QAEXXZ 00402760 f i CreateMonster.obj
 0001:00001760       ?_Inc@const_iterator@?$_Tree@V?$_Tmap_traits@HPAVCSetItem@@U?$less@H@std@@V?$allocator@U?$pair@$$CBHPAVCSetItem@@@std@@@3@$0A@@std@@@std@@QAEXXZ 00402760 f i Project.obj
 0001:00001760       ?_Inc@const_iterator@?$_Tree@V?$_Tmap_traits@KPAVCSetItem@@U?$less@K@std@@V?$allocator@U?$pair@$$CBKPAVCSetItem@@@std@@@3@$0A@@std@@@std@@QAEXXZ 00402760 f i Project.obj
 0001:00001760       ?_Inc@const_iterator@?$_Tree@V?$_Tmap_traits@HHU?$less@H@std@@V?$allocator@U?$pair@$$CBHH@std@@@2@$0A@@std@@@std@@QAEXXZ 00402760 f i ItemUpgrade.obj
 0001:00001760       ?_Inc@const_iterator@?$_Tree@V?$_Tmap_traits@HPAVCRespawner@@U?$less@H@std@@V?$allocator@U?$pair@$$CBHPAVCRespawner@@@std@@@3@$0A@@std@@@std@@QAEXXZ 00402760 f i Respawn.obj
 0001:00001760       ?_Inc@const_iterator@?$_Tree@V?$_Tmap_traits@KPAVIBuff@@U?$less@K@std@@V?$allocator@U?$pair@$$CBKPAVIBuff@@@std@@@3@$0A@@std@@@std@@QAEXXZ 00402760 f i buff.obj
 0001:00001760       ?_Inc@const_iterator@?$_Tree@V?$_Tmap_traits@HPAVCLinkMap@@U?$less@H@std@@V?$allocator@U?$pair@$$CBHPAVCLinkMap@@@std@@@3@$0A@@std@@@std@@QAEXXZ 00402760 f i layeredlinkmap.obj
 0001:00001760       ?_Inc@const_iterator@?$_Tree@V?$_Tmap_traits@KPAVCUser@@U?$less@K@std@@V?$allocator@U?$pair@$$CBKPAVCUser@@@std@@@3@$0A@@std@@@std@@QAEXXZ 00402760 f i LinkMap.obj
 0001:00001760       ?_Inc@const_iterator@?$_Tree@V?$_Tmap_traits@HHU?$less@H@std@@V?$allocator@U?$pair@$$CBHH@std@@@2@$00@std@@@std@@QAEXXZ 00402760 f i GuildCombat1to1.obj
 0001:00001760       ?_Inc@const_iterator@?$_Tree@V?$_Tmap_traits@KP8CDPCoreClient@@AEXAAVCAr@@KKK@ZU?$less@K@std@@V?$allocator@U?$pair@$$CBKP8CDPCoreClient@@AEXAAVCAr@@KKK@Z@std@@@4@$0A@@std@@@std@@QAEXXZ 00402760 f i DPCoreClient.obj
 0001:00001760       ?_Inc@const_iterator@?$_Tree@V?$_Tmap_traits@EPAU__TAXDETAIL@@U?$less@E@std@@V?$allocator@U?$pair@$$CBEPAU__TAXDETAIL@@@std@@@3@$0A@@std@@@std@@QAEXXZ 00402760 f i Tax.obj
 0001:00001760       ?_Inc@const_iterator@?$_Tree@V?$_Tmap_traits@PAVCSetItem@@HU?$less@PAVCSetItem@@@std@@V?$allocator@U?$pair@QAVCSetItem@@H@std@@@3@$0A@@std@@@std@@QAEXXZ 00402760 f i mover.obj
 0001:00001760       ?_Inc@const_iterator@?$_Tree@V?$_Tmap_traits@KPAVCClientSock@@U?$less@K@std@@V?$allocator@U?$pair@$$CBKPAVCClientSock@@@std@@@3@$0A@@std@@@std@@QAEXXZ 00402760 f i serversock.obj
 0001:00001760       ?_Inc@const_iterator@?$_Tree@V?$_Tmap_traits@HPAVCTransformItemComponent@@U?$less@H@std@@V?$allocator@U?$pair@$$CBHPAVCTransformItemComponent@@@std@@@3@$0A@@std@@@std@@QAEXXZ 00402760 f i pet.obj
 0001:00001760       ?_Inc@const_iterator@?$_Tree@V?$_Tmap_traits@KPAVCMailBox@@U?$less@K@std@@V?$allocator@U?$pair@$$CBKPAVCMailBox@@@std@@@3@$0A@@std@@@std@@QAEXXZ 00402760 f i post.obj
 0001:00001760       ?_Inc@const_iterator@?$_Tree@V?$_Tmap_traits@KPAVCCouple@@U?$less@K@std@@V?$allocator@U?$pair@$$CBKPAVCCouple@@@std@@@3@$0A@@std@@@std@@QAEXXZ 00402760 f i couple.obj
 0001:00001760       ?_Inc@const_iterator@?$_Tree@V?$_Tmap_traits@EPAVCSecretRoomContinent@@U?$less@E@std@@V?$allocator@U?$pair@$$CBEPAVCSecretRoomContinent@@@std@@@3@$0A@@std@@@std@@QAEXXZ 00402760 f i DPDatabaseClient.obj
 0001:00001760       ?_Inc@const_iterator@?$_Tree@V?$_Tmap_traits@KPAVCGuildMember@@U?$less@K@std@@V?$allocator@U?$pair@$$CBKPAVCGuildMember@@@std@@@3@$0A@@std@@@std@@QAEXXZ 00402760 f i DPCoreClient.obj
 0001:00001760       ?_Inc@const_iterator@?$_Tree@V?$_Tmap_traits@KP8CDPSrvr@@AEXAAVCAr@@KKPAEK@ZU?$less@K@std@@V?$allocator@U?$pair@$$CBKP8CDPSrvr@@AEXAAVCAr@@KKPAEK@Z@std@@@4@$0A@@std@@@std@@QAEXXZ 00402760 f i DPSrvr.obj
 0001:00001760       ?_Inc@const_iterator@?$_Tree@V?$_Tmap_traits@EPAU__TAXINFO@@U?$less@E@std@@V?$allocator@U?$pair@$$CBEPAU__TAXINFO@@@std@@@3@$0A@@std@@@std@@QAEXXZ 00402760 f i Tax.obj
 0001:00001760       ?_Inc@const_iterator@?$_Tree@V?$_Tmap_traits@HV?$CStringT@DV?$StrTraitMFC@DV?$ChTraitsCRT@D@ATL@@@@@ATL@@U?$less@H@std@@V?$allocator@U?$pair@$$CBHV?$CStringT@DV?$StrTraitMFC@DV?$ChTraitsCRT@D@ATL@@@@@ATL@@@std@@@4@$0A@@std@@@std@@QAEXXZ 00402760 f i MiniGame.obj
 0001:00001760       ?_Inc@const_iterator@?$_Tree@V?$_Tmap_traits@KPAVCColosseumMatch@@U?$less@K@std@@V?$allocator@U?$pair@$$CBKPAVCColosseumMatch@@@std@@@3@$0A@@std@@@std@@QAEXXZ 00402760 f i Colosseum.obj
 0001:00001760       ?_Inc@const_iterator@?$_Tree@V?$_Tmap_traits@KPAVCGuild@@U?$less@K@std@@V?$allocator@U?$pair@$$CBKPAVCGuild@@@std@@@3@$0A@@std@@@std@@QAEXXZ 00402760 f i eveschool.obj
 0001:00001760       ?_Inc@const_iterator@?$_Tree@V?$_Tmap_traits@HPAV?$list@PAVCEventItem@@V?$allocator@PAVCEventItem@@@std@@@std@@U?$less@H@2@V?$allocator@U?$pair@$$CBHPAV?$list@PAVCEventItem@@V?$allocator@PAVCEventItem@@@std@@@std@@@std@@@2@$0A@@std@@@std@@QAEXXZ 00402760 f i spevent.obj
 0001:00001760       ?_Inc@const_iterator@?$_Tree@V?$_Tmap_traits@KPAVCParty@@U?$less@K@std@@V?$allocator@U?$pair@$$CBKPAVCParty@@@std@@@3@$0A@@std@@@std@@QAEXXZ 00402760 f i User.obj
 0001:00001760       ?_Inc@const_iterator@?$_Tree@V?$_Tmap_traits@KPAUAMP_STORE_INFO@@U?$less@K@std@@V?$allocator@U?$pair@$$CBKPAUAMP_STORE_INFO@@@std@@@3@$0A@@std@@@std@@QAEXXZ 00402760 f i Project.obj
 0001:00001760       ?_Inc@const_iterator@?$_Tree@V?$_Tmap_traits@KKU?$less@K@std@@V?$allocator@U?$pair@$$CBKK@std@@@2@$0A@@std@@@std@@QAEXXZ 00402760 f i Campus.obj
 0001:00001760       ?_Inc@const_iterator@?$_Tree@V?$_Tmap_traits@KPAVCRainbowRace@@U?$less@K@std@@V?$allocator@U?$pair@$$CBKPAVCRainbowRace@@@std@@@3@$0A@@std@@@std@@QAEXXZ 00402760 f i RainbowRace.obj
 0001:00001760       ?_Inc@const_iterator@?$_Tree@V?$_Tmap_traits@HPAVCFSMstate@@U?$less@H@std@@V?$allocator@U?$pair@$$CBHPAVCFSMstate@@@std@@@3@$0A@@std@@@std@@QAEXXZ 00402760 f i FSM.obj
 0001:00001760       ?_Inc@const_iterator@?$_Tree@V?$_Tmap_traits@KPAVCCampusMember@@U?$less@K@std@@V?$allocator@U?$pair@$$CBKPAVCCampusMember@@@std@@@3@$0A@@std@@@std@@QAEXXZ 00402760 f i Campus.obj
 0001:00001760       ?_Inc@const_iterator@?$_Tree@V?$_Tmap_traits@KPAVCGuildWar@@U?$less@K@std@@V?$allocator@U?$pair@$$CBKPAVCGuildWar@@@std@@@3@$0A@@std@@@std@@QAEXXZ 00402760 f i guildwar.obj
 0001:00001760       ?_Inc@const_iterator@?$_Tree@V?$_Tmap_traits@KV?$CStringT@DV?$StrTraitMFC@DV?$ChTraitsCRT@D@ATL@@@@@ATL@@U?$less@K@std@@V?$allocator@U?$pair@$$CBKV?$CStringT@DV?$StrTraitMFC@DV?$ChTraitsCRT@D@ATL@@@@@ATL@@@std@@@4@$0A@@std@@@std@@QAEXXZ 00402760 f i DPCoreClient.obj
 0001:00001760       ?_Inc@const_iterator@?$_Tree@V?$_Tmap_traits@KPAVCGuildHouseBase@@U?$less@K@std@@V?$allocator@U?$pair@$$CBKPAVCGuildHouseBase@@@std@@@3@$0A@@std@@@std@@QAEXXZ 00402760 f i GuildHouse.obj
 0001:00001760       ?_Inc@const_iterator@?$_Tree@V?$_Tmap_traits@KPAV?$vector@U_SINGLE_DST@@V?$allocator@U_SINGLE_DST@@@std@@@std@@U?$less@K@2@V?$allocator@U?$pair@$$CBKPAV?$vector@U_SINGLE_DST@@V?$allocator@U_SINGLE_DST@@@std@@@std@@@std@@@2@$0A@@std@@@std@@QAEXXZ 00402760 f i accessory.obj
 0001:00001760       ?_Inc@const_iterator@?$_Tree@V?$_Tmap_traits@KPAVCChatting@@U?$less@K@std@@V?$allocator@U?$pair@$$CBKPAVCChatting@@@std@@@3@$0A@@std@@@std@@QAEXXZ 00402760 f i Chatting.obj
 0001:000017c0       ?Serialize@CCampusMember@@QAEXAAVCAr@@@Z 004027c0 f   Campus.obj
 0001:000017c0       ?Serialize@INSTACNEDUNGEON_INFO@@QAEXAAVCAr@@@Z 004027c0 f   DPCoreClient.obj
 0001:00001860       ?_Erase@?$_Tree@V?$_Tmap_traits@KPAVCCampusMember@@U?$less@K@std@@V?$allocator@U?$pair@$$CBKPAVCCampusMember@@@std@@@3@$0A@@std@@@std@@IAEXPAU_Node@?$_Tree_nod@V?$_Tmap_traits@KPAVCCampusMember@@U?$less@K@std@@V?$allocator@U?$pair@$$CBKPAVCCampusMember@@@std@@@3@$0A@@std@@@2@@Z 00402860 f i Campus.obj
 0001:000018a0       ?_Erase@?$_Tree@V?$_Tmap_traits@KPAVCCampus@@U?$less@K@std@@V?$allocator@U?$pair@$$CBKPAVCCampus@@@std@@@3@$0A@@std@@@std@@IAEXPAU_Node@?$_Tree_nod@V?$_Tmap_traits@KPAVCCampus@@U?$less@K@std@@V?$allocator@U?$pair@$$CBKPAVCCampus@@@std@@@3@$0A@@std@@@2@@Z 004028a0 f i Campus.obj
 0001:000018e0       ?_Erase@?$_Tree@V?$_Tmap_traits@KKU?$less@K@std@@V?$allocator@U?$pair@$$CBKK@std@@@2@$0A@@std@@@std@@IAEXPAU_Node@?$_Tree_nod@V?$_Tmap_traits@KKU?$less@K@std@@V?$allocator@U?$pair@$$CBKK@std@@@2@$0A@@std@@@2@@Z 004028e0 f i Campus.obj
 0001:00001920       ?_Buynode@?$_Tree@V?$_Tmap_traits@HKU?$less@H@std@@V?$allocator@U?$pair@$$CBHK@std@@@2@$0A@@std@@@std@@IAEPAU_Node@?$_Tree_nod@V?$_Tmap_traits@HKU?$less@H@std@@V?$allocator@U?$pair@$$CBHK@std@@@2@$0A@@std@@@2@PAU342@00ABU?$pair@$$CBHK@2@D@Z 00402920 f i CampusHelper.obj
 0001:00001920       ?_Buynode@?$_Tree@V?$_Tmap_traits@KEU?$less@K@std@@V?$allocator@U?$pair@$$CBKE@std@@@2@$0A@@std@@@std@@IAEPAU_Node@?$_Tree_nod@V?$_Tmap_traits@KEU?$less@K@std@@V?$allocator@U?$pair@$$CBKE@std@@@2@$0A@@std@@@2@PAU342@00ABU?$pair@$$CBKE@2@D@Z 00402920 f i EventLua.obj
 0001:00001920       ?_Buynode@?$_Tree@V?$_Tmap_traits@KP8CDPDatabaseClient@@AEXAAVCAr@@KK@ZU?$less@K@std@@V?$allocator@U?$pair@$$CBKP8CDPDatabaseClient@@AEXAAVCAr@@KK@Z@std@@@4@$0A@@std@@@std@@IAEPAU_Node@?$_Tree_nod@V?$_Tmap_traits@KP8CDPDatabaseClient@@AEXAAVCAr@@KK@ZU?$less@K@std@@V?$allocator@U?$pair@$$CBKP8CDPDatabaseClient@@AEXAAVCAr@@KK@Z@std@@@4@$0A@@std@@@2@PAU342@00ABU?$pair@$$CBKP8CDPDatabaseClient@@AEXAAVCAr@@KK@Z@2@D@Z 00402920 f i DPDatabaseClient.obj
 0001:00001920       ?_Buynode@?$_Tree@V?$_Tmap_traits@KPAVCCouple@@U?$less@K@std@@V?$allocator@U?$pair@$$CBKPAVCCouple@@@std@@@3@$0A@@std@@@std@@IAEPAU_Node@?$_Tree_nod@V?$_Tmap_traits@KPAVCCouple@@U?$less@K@std@@V?$allocator@U?$pair@$$CBKPAVCCouple@@@std@@@3@$0A@@std@@@2@PAU342@00ABU?$pair@$$CBKPAVCCouple@@@2@D@Z 00402920 f i couple.obj
 0001:00001920       ?_Buynode@?$_Tree@V?$_Tmap_traits@KKU?$less@K@std@@V?$allocator@U?$pair@$$CBKK@std@@@2@$0A@@std@@@std@@IAEPAU_Node@?$_Tree_nod@V?$_Tmap_traits@KKU?$less@K@std@@V?$allocator@U?$pair@$$CBKK@std@@@2@$0A@@std@@@2@PAU342@00ABU?$pair@$$CBKK@2@D@Z 00402920 f i Campus.obj
 0001:00001920       ?_Buynode@?$_Tree@V?$_Tmap_traits@HHU?$less@H@std@@V?$allocator@U?$pair@$$CBHH@std@@@2@$0A@@std@@@std@@IAEPAU_Node@?$_Tree_nod@V?$_Tmap_traits@HHU?$less@H@std@@V?$allocator@U?$pair@$$CBHH@std@@@2@$0A@@std@@@2@PAU342@00ABU?$pair@$$CBHH@2@D@Z 00402920 f i ItemUpgrade.obj
 0001:00001920       ?_Buynode@?$_Tree@V?$_Tmap_traits@EPAVCSecretRoomContinent@@U?$less@E@std@@V?$allocator@U?$pair@$$CBEPAVCSecretRoomContinent@@@std@@@3@$0A@@std@@@std@@IAEPAU_Node@?$_Tree_nod@V?$_Tmap_traits@EPAVCSecretRoomContinent@@U?$less@E@std@@V?$allocator@U?$pair@$$CBEPAVCSecretRoomContinent@@@std@@@3@$0A@@std@@@2@PAU342@00ABU?$pair@$$CBEPAVCSecretRoomContinent@@@2@D@Z 00402920 f i SecretRoom.obj
 0001:00001920       ?_Buynode@?$_Tree@V?$_Tmap_traits@KPAVCGuild@@U?$less@K@std@@V?$allocator@U?$pair@$$CBKPAVCGuild@@@std@@@3@$0A@@std@@@std@@IAEPAU_Node@?$_Tree_nod@V?$_Tmap_traits@KPAVCGuild@@U?$less@K@std@@V?$allocator@U?$pair@$$CBKPAVCGuild@@@std@@@3@$0A@@std@@@2@PAU342@00ABU?$pair@$$CBKPAVCGuild@@@2@D@Z 00402920 f i guild.obj
 0001:00001920       ?_Buynode@?$_Tree@V?$_Tmap_traits@KPAVCSetItem@@U?$less@K@std@@V?$allocator@U?$pair@$$CBKPAVCSetItem@@@std@@@3@$0A@@std@@@std@@IAEPAU_Node@?$_Tree_nod@V?$_Tmap_traits@KPAVCSetItem@@U?$less@K@std@@V?$allocator@U?$pair@$$CBKPAVCSetItem@@@std@@@3@$0A@@std@@@2@PAU342@00ABU?$pair@$$CBKPAVCSetItem@@@2@D@Z 00402920 f i Project.obj
 0001:00001920       ?_Buynode@?$_Tree@V?$_Tmap_traits@KPAVCMover@@U?$less@K@std@@V?$allocator@U?$pair@$$CBKPAVCMover@@@std@@@3@$0A@@std@@@std@@IAEPAU_Node@?$_Tree_nod@V?$_Tmap_traits@KPAVCMover@@U?$less@K@std@@V?$allocator@U?$pair@$$CBKPAVCMover@@@std@@@3@$0A@@std@@@2@PAU342@00ABU?$pair@$$CBKPAVCMover@@@2@D@Z 00402920 f i ctrl.obj
 0001:00001920       ?_Buynode@?$_Tree@V?$_Tmap_traits@KPAVCUser@@U?$less@K@std@@V?$allocator@U?$pair@$$CBKPAVCUser@@@std@@@3@$0A@@std@@@std@@IAEPAU_Node@?$_Tree_nod@V?$_Tmap_traits@KPAVCUser@@U?$less@K@std@@V?$allocator@U?$pair@$$CBKPAVCUser@@@std@@@3@$0A@@std@@@2@PAU342@00ABU?$pair@$$CBKPAVCUser@@@2@D@Z 00402920 f i LinkMap.obj
 0001:00001920       ?_Buynode@?$_Tree@V?$_Tmap_traits@HHU?$less@H@std@@V?$allocator@U?$pair@$$CBHH@std@@@2@$00@std@@@std@@IAEPAU_Node@?$_Tree_nod@V?$_Tmap_traits@HHU?$less@H@std@@V?$allocator@U?$pair@$$CBHH@std@@@2@$00@std@@@2@PAU342@00ABU?$pair@$$CBHH@2@D@Z 00402920 f i GuildCombat1to1.obj
 0001:00001920       ?_Buynode@?$_Tree@V?$_Tmap_traits@KPAVCGuildMember@@U?$less@K@std@@V?$allocator@U?$pair@$$CBKPAVCGuildMember@@@std@@@3@$0A@@std@@@std@@IAEPAU_Node@?$_Tree_nod@V?$_Tmap_traits@KPAVCGuildMember@@U?$less@K@std@@V?$allocator@U?$pair@$$CBKPAVCGuildMember@@@std@@@3@$0A@@std@@@2@PAU342@00ABU?$pair@$$CBKPAVCGuildMember@@@2@D@Z 00402920 f i guild.obj
 0001:00001920       ?_Buynode@?$_Tree@V?$_Tmap_traits@HPAVCLinkMap@@U?$less@H@std@@V?$allocator@U?$pair@$$CBHPAVCLinkMap@@@std@@@3@$0A@@std@@@std@@IAEPAU_Node@?$_Tree_nod@V?$_Tmap_traits@HPAVCLinkMap@@U?$less@H@std@@V?$allocator@U?$pair@$$CBHPAVCLinkMap@@@std@@@3@$0A@@std@@@2@PAU342@00ABU?$pair@$$CBHPAVCLinkMap@@@2@D@Z 00402920 f i layeredlinkmap.obj
 0001:00001920       ?_Buynode@?$_Tree@V?$_Tmap_traits@HMU?$less@H@std@@V?$allocator@U?$pair@$$CBHM@std@@@2@$0A@@std@@@std@@IAEPAU_Node@?$_Tree_nod@V?$_Tmap_traits@HMU?$less@H@std@@V?$allocator@U?$pair@$$CBHM@std@@@2@$0A@@std@@@2@PAU342@00ABU?$pair@$$CBHM@2@D@Z 00402920 f i GuildHouse.obj
 0001:00001920       ?_Buynode@?$_Tree@V?$_Tmap_traits@HPAVCSpawn@@U?$less@H@std@@V?$allocator@U?$pair@$$CBHPAVCSpawn@@@std@@@3@$0A@@std@@@std@@IAEPAU_Node@?$_Tree_nod@V?$_Tmap_traits@HPAVCSpawn@@U?$less@H@std@@V?$allocator@U?$pair@$$CBHPAVCSpawn@@@std@@@3@$0A@@std@@@2@PAU342@00ABU?$pair@$$CBHPAVCSpawn@@@2@D@Z 00402920 f i spevent.obj
 0001:00001920       ?_Buynode@?$_Tree@V?$_Tmap_traits@KPAVCCtrl@@U?$less@K@std@@V?$allocator@U?$pair@$$CBKPAVCCtrl@@@std@@@3@$0A@@std@@@std@@IAEPAU_Node@?$_Tree_nod@V?$_Tmap_traits@KPAVCCtrl@@U?$less@K@std@@V?$allocator@U?$pair@$$CBKPAVCCtrl@@@std@@@3@$0A@@std@@@2@PAU342@00ABU?$pair@$$CBKPAVCCtrl@@@2@D@Z 00402920 f i LinkMap.obj
 0001:00001920       ?_Buynode@?$_Tree@V?$_Tmap_traits@KPAVCColosseumMatch@@U?$less@K@std@@V?$allocator@U?$pair@$$CBKPAVCColosseumMatch@@@std@@@3@$0A@@std@@@std@@IAEPAU_Node@?$_Tree_nod@V?$_Tmap_traits@KPAVCColosseumMatch@@U?$less@K@std@@V?$allocator@U?$pair@$$CBKPAVCColosseumMatch@@@std@@@3@$0A@@std@@@2@PAU342@00ABU?$pair@$$CBKPAVCColosseumMatch@@@2@D@Z 00402920 f i Colosseum.obj
 0001:00001920       ?_Buynode@?$_Tree@V?$_Tmap_traits@KPAVCMailBox@@U?$less@K@std@@V?$allocator@U?$pair@$$CBKPAVCMailBox@@@std@@@3@$0A@@std@@@std@@IAEPAU_Node@?$_Tree_nod@V?$_Tmap_traits@KPAVCMailBox@@U?$less@K@std@@V?$allocator@U?$pair@$$CBKPAVCMailBox@@@std@@@3@$0A@@std@@@2@PAU342@00ABU?$pair@$$CBKPAVCMailBox@@@2@D@Z 00402920 f i post.obj
 0001:00001920       ?_Buynode@?$_Tree@V?$_Tmap_traits@KPAVCCampus@@U?$less@K@std@@V?$allocator@U?$pair@$$CBKPAVCCampus@@@std@@@3@$0A@@std@@@std@@IAEPAU_Node@?$_Tree_nod@V?$_Tmap_traits@KPAVCCampus@@U?$less@K@std@@V?$allocator@U?$pair@$$CBKPAVCCampus@@@std@@@3@$0A@@std@@@2@PAU342@00ABU?$pair@$$CBKPAVCCampus@@@2@D@Z 00402920 f i Campus.obj
 0001:00001920       ?_Buynode@?$_Tree@V?$_Tmap_traits@KPAVCClientSockE@@U?$less@K@std@@V?$allocator@U?$pair@$$CBKPAVCClientSockE@@@std@@@3@$0A@@std@@@std@@IAEPAU_Node@?$_Tree_nod@V?$_Tmap_traits@KPAVCClientSockE@@U?$less@K@std@@V?$allocator@U?$pair@$$CBKPAVCClientSockE@@@std@@@3@$0A@@std@@@2@PAU342@00ABU?$pair@$$CBKPAVCClientSockE@@@2@D@Z 00402920 f i serversocke.obj
 0001:00001920       ?_Buynode@?$_Tree@V?$_Tmap_traits@KP8CDPCoreClient@@AEXAAVCAr@@KKK@ZU?$less@K@std@@V?$allocator@U?$pair@$$CBKP8CDPCoreClient@@AEXAAVCAr@@KKK@Z@std@@@4@$0A@@std@@@std@@IAEPAU_Node@?$_Tree_nod@V?$_Tmap_traits@KP8CDPCoreClient@@AEXAAVCAr@@KKK@ZU?$less@K@std@@V?$allocator@U?$pair@$$CBKP8CDPCoreClient@@AEXAAVCAr@@KKK@Z@std@@@4@$0A@@std@@@2@PAU342@00ABU?$pair@$$CBKP8CDPCoreClient@@AEXAAVCAr@@KKK@Z@2@D@Z 00402920 f i DPCoreClient.obj
 0001:00001920       ?_Buynode@?$_Tree@V?$_Tmap_traits@KP8CDPSrvr@@AEXAAVCAr@@KKPAEK@ZU?$less@K@std@@V?$allocator@U?$pair@$$CBKP8CDPSrvr@@AEXAAVCAr@@KKPAEK@Z@std@@@4@$0A@@std@@@std@@IAEPAU_Node@?$_Tree_nod@V?$_Tmap_traits@KP8CDPSrvr@@AEXAAVCAr@@KKPAEK@ZU?$less@K@std@@V?$allocator@U?$pair@$$CBKP8CDPSrvr@@AEXAAVCAr@@KKPAEK@Z@std@@@4@$0A@@std@@@2@PAU342@00ABU?$pair@$$CBKP8CDPSrvr@@AEXAAVCAr@@KKPAEK@Z@2@D@Z 00402920 f i DPSrvr.obj
 0001:00001920       ?_Buynode@?$_Tree@V?$_Tmap_traits@KPAVCRainbowRace@@U?$less@K@std@@V?$allocator@U?$pair@$$CBKPAVCRainbowRace@@@std@@@3@$0A@@std@@@std@@IAEPAU_Node@?$_Tree_nod@V?$_Tmap_traits@KPAVCRainbowRace@@U?$less@K@std@@V?$allocator@U?$pair@$$CBKPAVCRainbowRace@@@std@@@3@$0A@@std@@@2@PAU342@00ABU?$pair@$$CBKPAVCRainbowRace@@@2@D@Z 00402920 f i RainbowRace.obj
 0001:00001920       ?_Buynode@?$_Tree@V?$_Tmap_traits@EPAU__TAXINFO@@U?$less@E@std@@V?$allocator@U?$pair@$$CBEPAU__TAXINFO@@@std@@@3@$0A@@std@@@std@@IAEPAU_Node@?$_Tree_nod@V?$_Tmap_traits@EPAU__TAXINFO@@U?$less@E@std@@V?$allocator@U?$pair@$$CBEPAU__TAXINFO@@@std@@@3@$0A@@std@@@2@PAU342@00ABU?$pair@$$CBEPAU__TAXINFO@@@2@D@Z 00402920 f i Tax.obj
 0001:00001920       ?_Buynode@?$_Tree@V?$_Tmap_traits@KPAVCClientSock@@U?$less@K@std@@V?$allocator@U?$pair@$$CBKPAVCClientSock@@@std@@@3@$0A@@std@@@std@@IAEPAU_Node@?$_Tree_nod@V?$_Tmap_traits@KPAVCClientSock@@U?$less@K@std@@V?$allocator@U?$pair@$$CBKPAVCClientSock@@@std@@@3@$0A@@std@@@2@PAU342@00ABU?$pair@$$CBKPAVCClientSock@@@2@D@Z 00402920 f i serversock.obj
 0001:00001920       ?_Buynode@?$_Tree@V?$_Tmap_traits@KPAU_PlayerData@@U?$less@K@std@@V?$allocator@U?$pair@$$CBKPAU_PlayerData@@@std@@@3@$0A@@std@@@std@@IAEPAU_Node@?$_Tree_nod@V?$_Tmap_traits@KPAU_PlayerData@@U?$less@K@std@@V?$allocator@U?$pair@$$CBKPAU_PlayerData@@@std@@@3@$0A@@std@@@2@PAU342@00ABU?$pair@$$CBKPAU_PlayerData@@@2@D@Z 00402920 f i playerdata.obj
 0001:00001920       ?_Buynode@?$_Tree@V?$_Tmap_traits@KPAVCParty@@U?$less@K@std@@V?$allocator@U?$pair@$$CBKPAVCParty@@@std@@@3@$0A@@std@@@std@@IAEPAU_Node@?$_Tree_nod@V?$_Tmap_traits@KPAVCParty@@U?$less@K@std@@V?$allocator@U?$pair@$$CBKPAVCParty@@@std@@@3@$0A@@std@@@2@PAU342@00ABU?$pair@$$CBKPAVCParty@@@2@D@Z 00402920 f i party.obj
 0001:00001920       ?_Buynode@?$_Tree@V?$_Tmap_traits@KPAVCHousing@@U?$less@K@std@@V?$allocator@U?$pair@$$CBKPAVCHousing@@@std@@@3@$0A@@std@@@std@@IAEPAU_Node@?$_Tree_nod@V?$_Tmap_traits@KPAVCHousing@@U?$less@K@std@@V?$allocator@U?$pair@$$CBKPAVCHousing@@@std@@@3@$0A@@std@@@2@PAU342@00ABU?$pair@$$CBKPAVCHousing@@@2@D@Z 00402920 f i Housing.obj
 0001:00001920       ?_Buynode@?$_Tree@V?$_Tmap_traits@KPAV?$vector@U_SINGLE_DST@@V?$allocator@U_SINGLE_DST@@@std@@@std@@U?$less@K@2@V?$allocator@U?$pair@$$CBKPAV?$vector@U_SINGLE_DST@@V?$allocator@U_SINGLE_DST@@@std@@@std@@@std@@@2@$0A@@std@@@std@@IAEPAU_Node@?$_Tree_nod@V?$_Tmap_traits@KPAV?$vector@U_SINGLE_DST@@V?$allocator@U_SINGLE_DST@@@std@@@std@@U?$less@K@2@V?$allocator@U?$pair@$$CBKPAV?$vector@U_SINGLE_DST@@V?$allocator@U_SINGLE_DST@@@std@@@std@@@std@@@2@$0A@@std@@@2@PAU342@00ABU?$pair@$$CBKPAV?$vector@U_SINGLE_DST@@V?$allocator@U_SINGLE_DST@@@std@@@std@@@2@D@Z 00402920 f i accessory.obj
 0001:00001920       ?_Buynode@?$_Tree@V?$_Tmap_traits@EPAU__TAXDETAIL@@U?$less@E@std@@V?$allocator@U?$pair@$$CBEPAU__TAXDETAIL@@@std@@@3@$0A@@std@@@std@@IAEPAU_Node@?$_Tree_nod@V?$_Tmap_traits@EPAU__TAXDETAIL@@U?$less@E@std@@V?$allocator@U?$pair@$$CBEPAU__TAXDETAIL@@@std@@@3@$0A@@std@@@2@PAU342@00ABU?$pair@$$CBEPAU__TAXDETAIL@@@2@D@Z 00402920 f i Tax.obj
 0001:00001920       ?_Buynode@?$_Tree@V?$_Tmap_traits@KPAVIBuff@@U?$less@K@std@@V?$allocator@U?$pair@$$CBKPAVIBuff@@@std@@@3@$0A@@std@@@std@@IAEPAU_Node@?$_Tree_nod@V?$_Tmap_traits@KPAVIBuff@@U?$less@K@std@@V?$allocator@U?$pair@$$CBKPAVIBuff@@@std@@@3@$0A@@std@@@2@PAU342@00ABU?$pair@$$CBKPAVIBuff@@@2@D@Z 00402920 f i buff.obj
 0001:00001920       ?_Buynode@?$_Tree@V?$_Tmap_traits@PAVCSetItem@@HU?$less@PAVCSetItem@@@std@@V?$allocator@U?$pair@QAVCSetItem@@H@std@@@3@$0A@@std@@@std@@IAEPAU_Node@?$_Tree_nod@V?$_Tmap_traits@PAVCSetItem@@HU?$less@PAVCSetItem@@@std@@V?$allocator@U?$pair@QAVCSetItem@@H@std@@@3@$0A@@std@@@2@PAU342@00ABU?$pair@QAVCSetItem@@H@2@D@Z 00402920 f i mover.obj
 0001:00001920       ?_Buynode@?$_Tree@V?$_Tmap_traits@KPAVCChatting@@U?$less@K@std@@V?$allocator@U?$pair@$$CBKPAVCChatting@@@std@@@3@$0A@@std@@@std@@IAEPAU_Node@?$_Tree_nod@V?$_Tmap_traits@KPAVCChatting@@U?$less@K@std@@V?$allocator@U?$pair@$$CBKPAVCChatting@@@std@@@3@$0A@@std@@@2@PAU342@00ABU?$pair@$$CBKPAVCChatting@@@2@D@Z 00402920 f i Chatting.obj
 0001:00001920       ?_Buynode@?$_Tree@V?$_Tmap_traits@HPAV?$list@PAVCEventItem@@V?$allocator@PAVCEventItem@@@std@@@std@@U?$less@H@2@V?$allocator@U?$pair@$$CBHPAV?$list@PAVCEventItem@@V?$allocator@PAVCEventItem@@@std@@@std@@@std@@@2@$0A@@std@@@std@@IAEPAU_Node@?$_Tree_nod@V?$_Tmap_traits@HPAV?$list@PAVCEventItem@@V?$allocator@PAVCEventItem@@@std@@@std@@U?$less@H@2@V?$allocator@U?$pair@$$CBHPAV?$list@PAVCEventItem@@V?$allocator@PAVCEventItem@@@std@@@std@@@std@@@2@$0A@@std@@@2@PAU342@00ABU?$pair@$$CBHPAV?$list@PAVCEventItem@@V?$allocator@PAVCEventItem@@@std@@@std@@@2@D@Z 00402920 f i spevent.obj
 0001:00001920       ?_Buynode@?$_Tree@V?$_Tmap_traits@KPAUCREATE_MONSTER_PROP@@U?$less@K@std@@V?$allocator@U?$pair@$$CBKPAUCREATE_MONSTER_PROP@@@std@@@3@$0A@@std@@@std@@IAEPAU_Node@?$_Tree_nod@V?$_Tmap_traits@KPAUCREATE_MONSTER_PROP@@U?$less@K@std@@V?$allocator@U?$pair@$$CBKPAUCREATE_MONSTER_PROP@@@std@@@3@$0A@@std@@@2@PAU342@00ABU?$pair@$$CBKPAUCREATE_MONSTER_PROP@@@2@D@Z 00402920 f i CreateMonster.obj
 0001:00001920       ?_Buynode@?$_Tree@V?$_Tmap_traits@HPAVCSetItem@@U?$less@H@std@@V?$allocator@U?$pair@$$CBHPAVCSetItem@@@std@@@3@$0A@@std@@@std@@IAEPAU_Node@?$_Tree_nod@V?$_Tmap_traits@HPAVCSetItem@@U?$less@H@std@@V?$allocator@U?$pair@$$CBHPAVCSetItem@@@std@@@3@$0A@@std@@@2@PAU342@00ABU?$pair@$$CBHPAVCSetItem@@@2@D@Z 00402920 f i Project.obj
 0001:00001920       ?_Buynode@?$_Tree@V?$_Tmap_traits@KPAVCGuildWar@@U?$less@K@std@@V?$allocator@U?$pair@$$CBKPAVCGuildWar@@@std@@@3@$0A@@std@@@std@@IAEPAU_Node@?$_Tree_nod@V?$_Tmap_traits@KPAVCGuildWar@@U?$less@K@std@@V?$allocator@U?$pair@$$CBKPAVCGuildWar@@@std@@@3@$0A@@std@@@2@PAU342@00ABU?$pair@$$CBKPAVCGuildWar@@@2@D@Z 00402920 f i guildwar.obj
 0001:00001920       ?_Buynode@?$_Tree@V?$_Tmap_traits@KPAVCGuildHouseBase@@U?$less@K@std@@V?$allocator@U?$pair@$$CBKPAVCGuildHouseBase@@@std@@@3@$0A@@std@@@std@@IAEPAU_Node@?$_Tree_nod@V?$_Tmap_traits@KPAVCGuildHouseBase@@U?$less@K@std@@V?$allocator@U?$pair@$$CBKPAVCGuildHouseBase@@@std@@@3@$0A@@std@@@2@PAU342@00ABU?$pair@$$CBKPAVCGuildHouseBase@@@2@D@Z 00402920 f i GuildHouse.obj
 0001:00001920       ?_Buynode@?$_Tree@V?$_Tmap_traits@KPAVCCampusMember@@U?$less@K@std@@V?$allocator@U?$pair@$$CBKPAVCCampusMember@@@std@@@3@$0A@@std@@@std@@IAEPAU_Node@?$_Tree_nod@V?$_Tmap_traits@KPAVCCampusMember@@U?$less@K@std@@V?$allocator@U?$pair@$$CBKPAVCCampusMember@@@std@@@3@$0A@@std@@@2@PAU342@00ABU?$pair@$$CBKPAVCCampusMember@@@2@D@Z 00402920 f i Campus.obj
 0001:00001920       ?_Buynode@?$_Tree@V?$_Tmap_traits@KPAUAMP_STORE_INFO@@U?$less@K@std@@V?$allocator@U?$pair@$$CBKPAUAMP_STORE_INFO@@@std@@@3@$0A@@std@@@std@@IAEPAU_Node@?$_Tree_nod@V?$_Tmap_traits@KPAUAMP_STORE_INFO@@U?$less@K@std@@V?$allocator@U?$pair@$$CBKPAUAMP_STORE_INFO@@@std@@@3@$0A@@std@@@2@PAU342@00ABU?$pair@$$CBKPAUAMP_STORE_INFO@@@2@D@Z 00402920 f i ProjectCmn.obj
 0001:00001920       ?_Buynode@?$_Tree@V?$_Tmap_traits@KHU?$less@K@std@@V?$allocator@U?$pair@$$CBKH@std@@@2@$0A@@std@@@std@@IAEPAU_Node@?$_Tree_nod@V?$_Tmap_traits@KHU?$less@K@std@@V?$allocator@U?$pair@$$CBKH@std@@@2@$0A@@std@@@2@PAU342@00ABU?$pair@$$CBKH@2@D@Z 00402920 f i CreateMonster.obj
 0001:00001920       ?_Buynode@?$_Tree@V?$_Tmap_traits@HPAVCRespawner@@U?$less@H@std@@V?$allocator@U?$pair@$$CBHPAVCRespawner@@@std@@@3@$0A@@std@@@std@@IAEPAU_Node@?$_Tree_nod@V?$_Tmap_traits@HPAVCRespawner@@U?$less@H@std@@V?$allocator@U?$pair@$$CBHPAVCRespawner@@@std@@@3@$0A@@std@@@2@PAU342@00ABU?$pair@$$CBHPAVCRespawner@@@2@D@Z 00402920 f i Respawn.obj
 0001:00001920       ?_Buynode@?$_Tree@V?$_Tmap_traits@HPAVCTransformItemComponent@@U?$less@H@std@@V?$allocator@U?$pair@$$CBHPAVCTransformItemComponent@@@std@@@3@$0A@@std@@@std@@IAEPAU_Node@?$_Tree_nod@V?$_Tmap_traits@HPAVCTransformItemComponent@@U?$less@H@std@@V?$allocator@U?$pair@$$CBHPAVCTransformItemComponent@@@std@@@3@$0A@@std@@@2@PAU342@00ABU?$pair@$$CBHPAVCTransformItemComponent@@@2@D@Z 00402920 f i pet.obj
 0001:00001960       ?erase@?$basic_string@DU?$char_traits@D@std@@V?$allocator@D@2@@std@@QAEAAV12@II@Z 00402960 f i Campus.obj
 0001:000019e0       ?_Copy@?$basic_string@DU?$char_traits@D@std@@V?$allocator@D@2@@std@@IAEXII@Z 004029e0 f i Campus.obj
 0001:00001b20       ?Clear@CCampus@@QAEXXZ     00402b20 f   Campus.obj
 0001:00001bb0       ?GetPupilNum@CCampus@@QAEHXZ 00402bb0 f   Campus.obj
 0001:00001bf0       ?GetBuffLevel@CCampus@@QAEHK@Z 00402bf0 f   Campus.obj
 0001:00001c80       ?GetCampusIdByPlayerId@CCampusMng@@QAEKK@Z 00402c80 f   Campus.obj
 0001:00001cb0       ??$_Distance@Viterator@?$_Tree@V?$_Tmap_traits@KPAVIBuff@@U?$less@K@std@@V?$allocator@U?$pair@$$CBKPAVIBuff@@@std@@@3@$0A@@std@@@std@@I@std@@YAXViterator@?$_Tree@V?$_Tmap_traits@KPAVIBuff@@U?$less@K@std@@V?$allocator@U?$pair@$$CBKPAVIBuff@@@std@@@3@$0A@@std@@@0@0AAI@Z 00402cb0 f i buff.obj
 0001:00001cb0       ??$_Distance@Viterator@?$_Tree@V?$_Tmap_traits@KEU?$less@K@std@@V?$allocator@U?$pair@$$CBKE@std@@@2@$0A@@std@@@std@@I@std@@YAXViterator@?$_Tree@V?$_Tmap_traits@KEU?$less@K@std@@V?$allocator@U?$pair@$$CBKE@std@@@2@$0A@@std@@@0@0AAI@Z 00402cb0 f i mover.obj
 0001:00001cb0       ??$_Distance@Viterator@?$_Tree@V?$_Tmap_traits@KPAVCCampusMember@@U?$less@K@std@@V?$allocator@U?$pair@$$CBKPAVCCampusMember@@@std@@@3@$0A@@std@@@std@@I@std@@YAXViterator@?$_Tree@V?$_Tmap_traits@KPAVCCampusMember@@U?$less@K@std@@V?$allocator@U?$pair@$$CBKPAVCCampusMember@@@std@@@3@$0A@@std@@@0@0AAI@Z 00402cb0 f i Campus.obj
 0001:00001cb0       ??$_Distance@Viterator@?$_Tree@V?$_Tmap_traits@KPAVCGuild@@U?$less@K@std@@V?$allocator@U?$pair@$$CBKPAVCGuild@@@std@@@3@$0A@@std@@@std@@I@std@@YAXViterator@?$_Tree@V?$_Tmap_traits@KPAVCGuild@@U?$less@K@std@@V?$allocator@U?$pair@$$CBKPAVCGuild@@@std@@@3@$0A@@std@@@0@0AAI@Z 00402cb0 f i guild.obj
 0001:00001cb0       ??$_Distance@Viterator@?$_Tree@V?$_Tmap_traits@KPAVCChatting@@U?$less@K@std@@V?$allocator@U?$pair@$$CBKPAVCChatting@@@std@@@3@$0A@@std@@@std@@I@std@@YAXViterator@?$_Tree@V?$_Tmap_traits@KPAVCChatting@@U?$less@K@std@@V?$allocator@U?$pair@$$CBKPAVCChatting@@@std@@@3@$0A@@std@@@0@0AAI@Z 00402cb0 f i Chatting.obj
 0001:00001cb0       ??$_Distance@Viterator@?$_Tree@V?$_Tmap_traits@KPAVCUser@@U?$less@K@std@@V?$allocator@U?$pair@$$CBKPAVCUser@@@std@@@3@$0A@@std@@@std@@I@std@@YAXViterator@?$_Tree@V?$_Tmap_traits@KPAVCUser@@U?$less@K@std@@V?$allocator@U?$pair@$$CBKPAVCUser@@@std@@@3@$0A@@std@@@0@0AAI@Z 00402cb0 f i LinkMap.obj
 0001:00001cb0       ??$_Distance@Viterator@?$_Tree@V?$_Tmap_traits@KKU?$less@K@std@@V?$allocator@U?$pair@$$CBKK@std@@@2@$0A@@std@@@std@@I@std@@YAXViterator@?$_Tree@V?$_Tmap_traits@KKU?$less@K@std@@V?$allocator@U?$pair@$$CBKK@std@@@2@$0A@@std@@@0@0AAI@Z 00402cb0 f i CampusHelper.obj
 0001:00001cb0       ??$_Distance@Viterator@?$_Tree@V?$_Tmap_traits@KPAVCGuildMember@@U?$less@K@std@@V?$allocator@U?$pair@$$CBKPAVCGuildMember@@@std@@@3@$0A@@std@@@std@@I@std@@YAXViterator@?$_Tree@V?$_Tmap_traits@KPAVCGuildMember@@U?$less@K@std@@V?$allocator@U?$pair@$$CBKPAVCGuildMember@@@std@@@3@$0A@@std@@@0@0AAI@Z 00402cb0 f i guild.obj
 0001:00001cb0       ??$_Distance@Viterator@?$_Tree@V?$_Tmap_traits@KPAVCMover@@U?$less@K@std@@V?$allocator@U?$pair@$$CBKPAVCMover@@@std@@@3@$0A@@std@@@std@@I@std@@YAXViterator@?$_Tree@V?$_Tmap_traits@KPAVCMover@@U?$less@K@std@@V?$allocator@U?$pair@$$CBKPAVCMover@@@std@@@3@$0A@@std@@@0@0AAI@Z 00402cb0 f i ctrl.obj
 0001:00001cb0       ??$_Distance@Viterator@?$_Tree@V?$_Tmap_traits@KPAVCCtrl@@U?$less@K@std@@V?$allocator@U?$pair@$$CBKPAVCCtrl@@@std@@@3@$0A@@std@@@std@@I@std@@YAXViterator@?$_Tree@V?$_Tmap_traits@KPAVCCtrl@@U?$less@K@std@@V?$allocator@U?$pair@$$CBKPAVCCtrl@@@std@@@3@$0A@@std@@@0@0AAI@Z 00402cb0 f i LinkMap.obj
 0001:00001cb0       ??$_Distance@Viterator@?$_Tree@V?$_Tmap_traits@KPAVCParty@@U?$less@K@std@@V?$allocator@U?$pair@$$CBKPAVCParty@@@std@@@3@$0A@@std@@@std@@I@std@@YAXViterator@?$_Tree@V?$_Tmap_traits@KPAVCParty@@U?$less@K@std@@V?$allocator@U?$pair@$$CBKPAVCParty@@@std@@@3@$0A@@std@@@0@0AAI@Z 00402cb0 f i party.obj
 0001:00001cb0       ??$_Distance@Viterator@?$_Tree@V?$_Tmap_traits@KPAVCCampus@@U?$less@K@std@@V?$allocator@U?$pair@$$CBKPAVCCampus@@@std@@@3@$0A@@std@@@std@@I@std@@YAXViterator@?$_Tree@V?$_Tmap_traits@KPAVCCampus@@U?$less@K@std@@V?$allocator@U?$pair@$$CBKPAVCCampus@@@std@@@3@$0A@@std@@@0@0AAI@Z 00402cb0 f i Campus.obj
 0001:00001cf0       ?what@logic_error@std@@UBEPBDXZ 00402cf0 f i Campus.obj
 0001:00001d00       ??_Elogic_error@std@@UAEPAXI@Z 00402d00 f i Campus.obj
 0001:00001d00       ??_Glength_error@std@@UAEPAXI@Z 00402d00 f i Campus.obj
 0001:00001d00       ??_Glogic_error@std@@UAEPAXI@Z 00402d00 f i Campus.obj
 0001:00001d00       ??_Gout_of_range@std@@UAEPAXI@Z 00402d00 f i Campus.obj
 0001:00001d00       ??_Elength_error@std@@UAEPAXI@Z 00402d00 f i Campus.obj
 0001:00001d00       ??_Eout_of_range@std@@UAEPAXI@Z 00402d00 f i Campus.obj
 0001:00001d20       ?assign@?$basic_string@DU?$char_traits@D@std@@V?$allocator@D@2@@std@@QAEAAV12@ABV12@II@Z 00402d20 f i Campus.obj
 0001:00001e10       ?assign@?$basic_string@DU?$char_traits@D@std@@V?$allocator@D@2@@std@@QAEAAV12@PBDI@Z 00402e10 f i Campus.obj
 0001:00001f00       ?IsMember@CCampus@@QAEHK@Z 00402f00 f   Campus.obj
 0001:00001f40       ?IsChangeBuffLevel@CCampus@@QAEHK@Z 00402f40 f   Campus.obj
 0001:00001f70       ??0?$basic_string@DU?$char_traits@D@std@@V?$allocator@D@2@@std@@QAE@ABV01@@Z 00402f70 f i Campus.obj
 0001:00001fa0       ?IsPupil@CCampus@@QAEHK@Z  00402fa0 f   Campus.obj
 0001:00001ff0       ??0logic_error@std@@QAE@ABV?$basic_string@DU?$char_traits@D@std@@V?$allocator@D@2@@1@@Z 00402ff0 f i Campus.obj
 0001:00002050       ??1logic_error@std@@UAE@XZ 00403050 f i Campus.obj
 0001:00002050       ??1out_of_range@std@@UAE@XZ 00403050 f i Campus.obj
 0001:00002050       ??1length_error@std@@UAE@XZ 00403050 f i Campus.obj
 0001:00002090       ??0?$basic_string@DU?$char_traits@D@std@@V?$allocator@D@2@@std@@QAE@PBD@Z 00403090 f i Campus.obj
 0001:000020d0       ?_Xlen@?$vector@KV?$allocator@K@std@@@std@@IBEXXZ 004030d0 f i Campus.obj
 0001:00002140       ??0logic_error@std@@QAE@ABV01@@Z 00403140 f i Campus.obj
 0001:000021b0       ??0length_error@std@@QAE@ABV01@@Z 004031b0 f i Campus.obj
 0001:000021d0       ?_Insert@?$_Tree@V?$_Tmap_traits@KKU?$less@K@std@@V?$allocator@U?$pair@$$CBKK@std@@@2@$0A@@std@@@std@@IAE?AViterator@12@_NPAU_Node@?$_Tree_nod@V?$_Tmap_traits@KKU?$less@K@std@@V?$allocator@U?$pair@$$CBKK@std@@@2@$0A@@std@@@2@ABU?$pair@$$CBKK@2@@Z 004031d0 f i Campus.obj
 0001:000021d0       ?_Insert@?$_Tree@V?$_Tmap_traits@KPAVCCampus@@U?$less@K@std@@V?$allocator@U?$pair@$$CBKPAVCCampus@@@std@@@3@$0A@@std@@@std@@IAE?AViterator@12@_NPAU_Node@?$_Tree_nod@V?$_Tmap_traits@KPAVCCampus@@U?$less@K@std@@V?$allocator@U?$pair@$$CBKPAVCCampus@@@std@@@3@$0A@@std@@@2@ABU?$pair@$$CBKPAVCCampus@@@2@@Z 004031d0 f i Campus.obj
 0001:000021d0       ?_Insert@?$_Tree@V?$_Tmap_traits@KPAVCCampusMember@@U?$less@K@std@@V?$allocator@U?$pair@$$CBKPAVCCampusMember@@@std@@@3@$0A@@std@@@std@@IAE?AViterator@12@_NPAU_Node@?$_Tree_nod@V?$_Tmap_traits@KPAVCCampusMember@@U?$less@K@std@@V?$allocator@U?$pair@$$CBKPAVCCampusMember@@@std@@@3@$0A@@std@@@2@ABU?$pair@$$CBKPAVCCampusMember@@@2@@Z 004031d0 f i Campus.obj
 0001:00002380       ?_Insert_n@?$vector@KV?$allocator@K@std@@@std@@IAEXViterator@12@IABK@Z 00403380 f i Campus.obj
 0001:00002560       ??0out_of_range@std@@QAE@ABV01@@Z 00403560 f i Campus.obj
 0001:00002580       ?erase@?$_Tree@V?$_Tmap_traits@KPAVCCampusMember@@U?$less@K@std@@V?$allocator@U?$pair@$$CBKPAVCCampusMember@@@std@@@3@$0A@@std@@@std@@QAE?AViterator@12@V312@@Z 00403580 f i Campus.obj
 0001:00002580       ?erase@?$_Tree@V?$_Tmap_traits@KKU?$less@K@std@@V?$allocator@U?$pair@$$CBKK@std@@@2@$0A@@std@@@std@@QAE?AViterator@12@V312@@Z 00403580 f i Campus.obj
 0001:00002580       ?erase@?$_Tree@V?$_Tmap_traits@KPAVCCampus@@U?$less@K@std@@V?$allocator@U?$pair@$$CBKPAVCCampus@@@std@@@3@$0A@@std@@@std@@QAE?AViterator@12@V312@@Z 00403580 f i Campus.obj
 0001:00002840       ?_Buy@?$vector@KV?$allocator@K@std@@@std@@IAE_NI@Z 00403840 f i Campus.obj
 0001:00002890       ??0?$vector@KV?$allocator@K@std@@@std@@QAE@ABV01@@Z 00403890 f i Campus.obj
 0001:00002950       ?insert@?$_Tree@V?$_Tmap_traits@KPAVCCampus@@U?$less@K@std@@V?$allocator@U?$pair@$$CBKPAVCCampus@@@std@@@3@$0A@@std@@@std@@QAE?AU?$pair@Viterator@?$_Tree@V?$_Tmap_traits@KPAVCCampus@@U?$less@K@std@@V?$allocator@U?$pair@$$CBKPAVCCampus@@@std@@@3@$0A@@std@@@std@@_N@2@ABU?$pair@$$CBKPAVCCampus@@@2@@Z 00403950 f i Campus.obj
 0001:00002950       ?insert@?$_Tree@V?$_Tmap_traits@KKU?$less@K@std@@V?$allocator@U?$pair@$$CBKK@std@@@2@$0A@@std@@@std@@QAE?AU?$pair@Viterator@?$_Tree@V?$_Tmap_traits@KKU?$less@K@std@@V?$allocator@U?$pair@$$CBKK@std@@@2@$0A@@std@@@std@@_N@2@ABU?$pair@$$CBKK@2@@Z 00403950 f i Campus.obj
 0001:00002950       ?insert@?$_Tree@V?$_Tmap_traits@KPAVCCampusMember@@U?$less@K@std@@V?$allocator@U?$pair@$$CBKPAVCCampusMember@@@std@@@3@$0A@@std@@@std@@QAE?AU?$pair@Viterator@?$_Tree@V?$_Tmap_traits@KPAVCCampusMember@@U?$less@K@std@@V?$allocator@U?$pair@$$CBKPAVCCampusMember@@@std@@@3@$0A@@std@@@std@@_N@2@ABU?$pair@$$CBKPAVCCampusMember@@@2@@Z 00403950 f i Campus.obj
 0001:00002a10       ?erase@?$_Tree@V?$_Tmap_traits@KPAVCCampusMember@@U?$less@K@std@@V?$allocator@U?$pair@$$CBKPAVCCampusMember@@@std@@@3@$0A@@std@@@std@@QAE?AViterator@12@V312@0@Z 00403a10 f i Campus.obj
 0001:00002ad0       ?erase@?$_Tree@V?$_Tmap_traits@KPAVCCampus@@U?$less@K@std@@V?$allocator@U?$pair@$$CBKPAVCCampus@@@std@@@3@$0A@@std@@@std@@QAE?AViterator@12@V312@0@Z 00403ad0 f i Campus.obj
 0001:00002b90       ?erase@?$_Tree@V?$_Tmap_traits@KKU?$less@K@std@@V?$allocator@U?$pair@$$CBKK@std@@@2@$0A@@std@@@std@@QAE?AViterator@12@V312@0@Z 00403b90 f i Campus.obj
 0001:00002c50       ?Serialize@CCampus@@QAEXAAVCAr@@@Z 00403c50 f   Campus.obj
 0001:00002dc0       ?AddMember@CCampus@@QAEHPAVCCampusMember@@@Z 00403dc0 f   Campus.obj
 0001:00002e70       ?AddCampus@CCampusMng@@QAEKPAVCCampus@@@Z 00403e70 f   Campus.obj
 0001:00002ef0       ?AddPlayerId2CampusId@CCampusMng@@QAE_NKK@Z 00403ef0 f   Campus.obj
 0001:00002f20       ?push_back@?$vector@KV?$allocator@K@std@@@std@@QAEXABK@Z 00403f20 f i Campus.obj
 0001:00002f70       ?erase@?$_Tree@V?$_Tmap_traits@KPAVCCampusMember@@U?$less@K@std@@V?$allocator@U?$pair@$$CBKPAVCCampusMember@@@std@@@3@$0A@@std@@@std@@QAEIABK@Z 00403f70 f i Campus.obj
 0001:00002fd0       ?erase@?$_Tree@V?$_Tmap_traits@KPAVCCampus@@U?$less@K@std@@V?$allocator@U?$pair@$$CBKPAVCCampus@@@std@@@3@$0A@@std@@@std@@QAEIABK@Z 00403fd0 f i Campus.obj
 0001:00003030       ??1?$map@KPAVCCampusMember@@U?$less@K@std@@V?$allocator@U?$pair@$$CBKPAVCCampusMember@@@std@@@3@@std@@QAE@XZ 00404030 f i Campus.obj
 0001:00003060       ??1CCampus@@QAE@XZ         00404060 f   Campus.obj
 0001:000030e0       ?GetAllMemberPlayerId@CCampus@@QAE?AV?$vector@KV?$allocator@K@std@@@std@@XZ 004040e0 f   Campus.obj
 0001:000031b0       ?RemoveMember@CCampus@@QAEHK@Z 004041b0 f   Campus.obj
 0001:00003230       ??1?$map@KPAVCCampus@@U?$less@K@std@@V?$allocator@U?$pair@$$CBKPAVCCampus@@@std@@@3@@std@@QAE@XZ 00404230 f i Campus.obj
 0001:00003260       ??1?$map@KKU?$less@K@std@@V?$allocator@U?$pair@$$CBKK@std@@@2@@std@@QAE@XZ 00404260 f i Campus.obj
 0001:00003290       ?RemoveCampus@CCampusMng@@QAEHK@Z 00404290 f   Campus.obj
 0001:00003300       ??0CCampus@@QAE@XZ         00404300 f   Campus.obj
 0001:00003340       ??0CCampusMng@@QAE@XZ      00404340 f   Campus.obj
 0001:000033e0       ?Clear@CCampusMng@@QAEXXZ  004043e0 f   Campus.obj
 0001:000034c0       ?Serialize@CCampusMng@@QAEXAAVCAr@@@Z 004044c0 f   Campus.obj
 0001:00003770       ??1CCampusMng@@QAE@XZ      00404770 f   Campus.obj
 0001:00003810       ?_Min@?$_Tree@V?$_Tmap_traits@HU__FIVESYSTEM@CMiniGame@@U?$less@H@std@@V?$allocator@U?$pair@$$CBHU__FIVESYSTEM@CMiniGame@@@std@@@4@$0A@@std@@@std@@KAPAU_Node@?$_Tree_nod@V?$_Tmap_traits@HU__FIVESYSTEM@CMiniGame@@U?$less@H@std@@V?$allocator@U?$pair@$$CBHU__FIVESYSTEM@CMiniGame@@@std@@@4@$0A@@std@@@2@PAU342@@Z 00404810 f i MiniGame.obj
 0001:00003810       ?_Min@?$_Tree@V?$_Tmap_traits@KUHIT_INFO@@U?$less@K@std@@V?$allocator@U?$pair@$$CBKUHIT_INFO@@@std@@@3@$0A@@std@@@std@@KAPAU_Node@?$_Tree_nod@V?$_Tmap_traits@KUHIT_INFO@@U?$less@K@std@@V?$allocator@U?$pair@$$CBKUHIT_INFO@@@std@@@3@$0A@@std@@@2@PAU342@@Z 00404810 f i mover.obj
 0001:00003810       ?_Min@?$_Tree@V?$_Tmap_traits@HUREWARD@CCampusHelper@@U?$less@H@std@@V?$allocator@U?$pair@$$CBHUREWARD@CCampusHelper@@@std@@@4@$0A@@std@@@std@@KAPAU_Node@?$_Tree_nod@V?$_Tmap_traits@HUREWARD@CCampusHelper@@U?$less@H@std@@V?$allocator@U?$pair@$$CBHUREWARD@CCampusHelper@@@std@@@4@$0A@@std@@@2@PAU342@@Z 00404810 f i CampusHelper.obj
 0001:00003810       ?_Min@?$_Tree@V?$_Tmap_traits@KU_Friend@@U?$less@K@std@@V?$allocator@U?$pair@$$CBKU_Friend@@@std@@@3@$0A@@std@@@std@@KAPAU_Node@?$_Tree_nod@V?$_Tmap_traits@KU_Friend@@U?$less@K@std@@V?$allocator@U?$pair@$$CBKU_Friend@@@std@@@3@$0A@@std@@@2@PAU342@@Z 00404810 f i DPCoreClient.obj
 0001:00003830       ?IsMasterLevel@CCampusHelper@@QAEHPAVCUser@@@Z 00404830 f   CampusHelper.obj
 0001:00003860       ?IsPupilLevel@CCampusHelper@@QAEHPAVCUser@@@Z 00404860 f   CampusHelper.obj
 0001:00003890       ?GetMaxPupilNum@CCampusHelper@@QAEHPAVCUser@@@Z 00404890 f   CampusHelper.obj
 0001:000038e0       ?RecoveryCampusPoint@CCampusHelper@@QAEXPAVCUser@@K@Z 004048e0 f   CampusHelper.obj
 0001:00003940       ?OnRemoveCampusMember@CCampusHelper@@QAEXPAVCUser@@K@Z 00404940 f   CampusHelper.obj
 0001:000039f0       ?_Rrotate@?$_Tree@V?$_Tmap_traits@KUHIT_INFO@@U?$less@K@std@@V?$allocator@U?$pair@$$CBKUHIT_INFO@@@std@@@3@$0A@@std@@@std@@IAEXPAU_Node@?$_Tree_nod@V?$_Tmap_traits@KUHIT_INFO@@U?$less@K@std@@V?$allocator@U?$pair@$$CBKUHIT_INFO@@@std@@@3@$0A@@std@@@2@@Z 004049f0 f i mover.obj
 0001:000039f0       ?_Rrotate@?$_Tree@V?$_Tmap_traits@KU_Friend@@U?$less@K@std@@V?$allocator@U?$pair@$$CBKU_Friend@@@std@@@3@$0A@@std@@@std@@IAEXPAU_Node@?$_Tree_nod@V?$_Tmap_traits@KU_Friend@@U?$less@K@std@@V?$allocator@U?$pair@$$CBKU_Friend@@@std@@@3@$0A@@std@@@2@@Z 004049f0 f i DPCoreClient.obj
 0001:000039f0       ?_Rrotate@?$_Tree@V?$_Tmap_traits@HU__FIVESYSTEM@CMiniGame@@U?$less@H@std@@V?$allocator@U?$pair@$$CBHU__FIVESYSTEM@CMiniGame@@@std@@@4@$0A@@std@@@std@@IAEXPAU_Node@?$_Tree_nod@V?$_Tmap_traits@HU__FIVESYSTEM@CMiniGame@@U?$less@H@std@@V?$allocator@U?$pair@$$CBHU__FIVESYSTEM@CMiniGame@@@std@@@4@$0A@@std@@@2@@Z 004049f0 f i MiniGame.obj
 0001:000039f0       ?_Rrotate@?$_Tree@V?$_Tmap_traits@HUREWARD@CCampusHelper@@U?$less@H@std@@V?$allocator@U?$pair@$$CBHUREWARD@CCampusHelper@@@std@@@4@$0A@@std@@@std@@IAEXPAU_Node@?$_Tree_nod@V?$_Tmap_traits@HUREWARD@CCampusHelper@@U?$less@H@std@@V?$allocator@U?$pair@$$CBHUREWARD@CCampusHelper@@@std@@@4@$0A@@std@@@2@@Z 004049f0 f i CampusHelper.obj
 0001:00003a50       ?OnUpdateCampusPoint@CCampusHelper@@QAEXAAVCAr@@@Z 00404a50 f   CampusHelper.obj
 0001:00003ad0       ?_Erase@?$_Tree@V?$_Tmap_traits@HUREWARD@CCampusHelper@@U?$less@H@std@@V?$allocator@U?$pair@$$CBHUREWARD@CCampusHelper@@@std@@@4@$0A@@std@@@std@@IAEXPAU_Node@?$_Tree_nod@V?$_Tmap_traits@HUREWARD@CCampusHelper@@U?$less@H@std@@V?$allocator@U?$pair@$$CBHUREWARD@CCampusHelper@@@std@@@4@$0A@@std@@@2@@Z 00404ad0 f i CampusHelper.obj
 0001:00003b10       ?_Erase@?$_Tree@V?$_Tmap_traits@HKU?$less@H@std@@V?$allocator@U?$pair@$$CBHK@std@@@2@$0A@@std@@@std@@IAEXPAU_Node@?$_Tree_nod@V?$_Tmap_traits@HKU?$less@H@std@@V?$allocator@U?$pair@$$CBHK@std@@@2@$0A@@std@@@2@@Z 00404b10 f i CampusHelper.obj
 0001:00003b50       ?IsCompleteCampusQuest@CCampusHelper@@QAEHPAVCUser@@@Z 00404b50 f   CampusHelper.obj
 0001:00003ba0       ?find@?$_Tree@V?$_Tmap_traits@HKU?$less@H@std@@V?$allocator@U?$pair@$$CBHK@std@@@2@$0A@@std@@@std@@QAE?AViterator@12@ABH@Z 00404ba0 f i CampusHelper.obj
 0001:00003ba0       ?find@?$_Tree@V?$_Tmap_traits@HPAVCTransformItemComponent@@U?$less@H@std@@V?$allocator@U?$pair@$$CBHPAVCTransformItemComponent@@@std@@@3@$0A@@std@@@std@@QAE?AViterator@12@ABH@Z 00404ba0 f i pet.obj
 0001:00003ba0       ?find@?$_Tree@V?$_Tmap_traits@HPAVCLinkMap@@U?$less@H@std@@V?$allocator@U?$pair@$$CBHPAVCLinkMap@@@std@@@3@$0A@@std@@@std@@QAE?AViterator@12@ABH@Z 00404ba0 f i layeredlinkmap.obj
 0001:00003ba0       ?find@?$_Tree@V?$_Tmap_traits@HHU?$less@H@std@@V?$allocator@U?$pair@$$CBHH@std@@@2@$0A@@std@@@std@@QAE?AViterator@12@ABH@Z 00404ba0 f i ItemUpgrade.obj
 0001:00003ba0       ?find@?$_Tree@V?$_Tmap_traits@HV?$CStringT@DV?$StrTraitMFC@DV?$ChTraitsCRT@D@ATL@@@@@ATL@@U?$less@H@std@@V?$allocator@U?$pair@$$CBHV?$CStringT@DV?$StrTraitMFC@DV?$ChTraitsCRT@D@ATL@@@@@ATL@@@std@@@4@$0A@@std@@@std@@QAE?AViterator@12@ABH@Z 00404ba0 f i MiniGame.obj
 0001:00003ba0       ?find@?$_Tree@V?$_Tmap_traits@HPAVCRespawner@@U?$less@H@std@@V?$allocator@U?$pair@$$CBHPAVCRespawner@@@std@@@3@$0A@@std@@@std@@QAE?AViterator@12@ABH@Z 00404ba0 f i Respawn.obj
 0001:00003ba0       ?find@?$_Tree@V?$_Tmap_traits@HPAVCFSMstate@@U?$less@H@std@@V?$allocator@U?$pair@$$CBHPAVCFSMstate@@@std@@@3@$0A@@std@@@std@@QAE?AViterator@12@ABH@Z 00404ba0 f i FSM.obj
 0001:00003ba0       ?find@?$_Tree@V?$_Tmap_traits@HMU?$less@H@std@@V?$allocator@U?$pair@$$CBHM@std@@@2@$0A@@std@@@std@@QAE?AViterator@12@ABH@Z 00404ba0 f i GuildHouse.obj
 0001:00003c10       ?Clear@CCampusHelper@@QAEXXZ 00404c10 f   CampusHelper.obj
 0001:00003ca0       ?OnUpdatePlayerData@CCampusHelper@@QAEXKPAU_PlayerData@@@Z 00404ca0 f   CampusHelper.obj
 0001:00003d50       ?IsInviteAble@CCampusHelper@@QAEHPAVCUser@@0@Z 00404d50 f   CampusHelper.obj
 0001:00003f60       ?AddAllMemberUpdateCampus@CCampusHelper@@QAEXPAVCCampus@@@Z 00404f60 f   CampusHelper.obj
 0001:00003ff0       ?GetCampusBuff@CCampusHelper@@QAEKH@Z 00404ff0 f   CampusHelper.obj
 0001:00004020       ?GetReward@CCampusHelper@@QAEPAUREWARD@1@H@Z 00405020 f   CampusHelper.obj
 0001:00004050       ?OnInviteCampusMember@CCampusHelper@@QAEXPAVCUser@@0@Z 00405050 f   CampusHelper.obj
 0001:00004090       ?OnAcceptCampusMember@CCampusHelper@@QAEXPAVCUser@@0@Z 00405090 f   CampusHelper.obj
 0001:00004170       ?OnAddCampusMember@CCampusHelper@@QAEXAAVCAr@@@Z 00405170 f   CampusHelper.obj
 0001:00004520       ?SetLevelUpReward@CCampusHelper@@QAEXPAVCUser@@@Z 00405520 f   CampusHelper.obj
 0001:000045e0       ?_Xlen@?$vector@HV?$allocator@H@std@@@std@@IBEXXZ 004055e0 f i CampusHelper.obj
 0001:00004650       ?erase@?$_Tree@V?$_Tmap_traits@HKU?$less@H@std@@V?$allocator@U?$pair@$$CBHK@std@@@2@$0A@@std@@@std@@QAE?AViterator@12@V312@@Z 00405650 f i CampusHelper.obj
 0001:00004910       ?_Insert@?$_Tree@V?$_Tmap_traits@HKU?$less@H@std@@V?$allocator@U?$pair@$$CBHK@std@@@2@$0A@@std@@@std@@IAE?AViterator@12@_NPAU_Node@?$_Tree_nod@V?$_Tmap_traits@HKU?$less@H@std@@V?$allocator@U?$pair@$$CBHK@std@@@2@$0A@@std@@@2@ABU?$pair@$$CBHK@2@@Z 00405910 f i CampusHelper.obj
 0001:00004ac0       ?_Insert@?$_Tree@V?$_Tmap_traits@HUREWARD@CCampusHelper@@U?$less@H@std@@V?$allocator@U?$pair@$$CBHUREWARD@CCampusHelper@@@std@@@4@$0A@@std@@@std@@IAE?AViterator@12@_NPAU_Node@?$_Tree_nod@V?$_Tmap_traits@HUREWARD@CCampusHelper@@U?$less@H@std@@V?$allocator@U?$pair@$$CBHUREWARD@CCampusHelper@@@std@@@4@$0A@@std@@@2@ABU?$pair@$$CBHUREWARD@CCampusHelper@@@2@@Z 00405ac0 f i CampusHelper.obj
 0001:00004c70       ?_Insert_n@?$vector@HV?$allocator@H@std@@@std@@IAEXViterator@12@IABH@Z 00405c70 f i CampusHelper.obj
 0001:00004e50       ?erase@?$_Tree@V?$_Tmap_traits@HUREWARD@CCampusHelper@@U?$less@H@std@@V?$allocator@U?$pair@$$CBHUREWARD@CCampusHelper@@@std@@@4@$0A@@std@@@std@@QAE?AViterator@12@V312@@Z 00405e50 f i CampusHelper.obj
 0001:00005110       ?_Buy@?$vector@HV?$allocator@H@std@@@std@@IAE_NI@Z 00406110 f i CampusHelper.obj
 0001:00005160       ?erase@?$_Tree@V?$_Tmap_traits@HKU?$less@H@std@@V?$allocator@U?$pair@$$CBHK@std@@@2@$0A@@std@@@std@@QAE?AViterator@12@V312@0@Z 00406160 f i CampusHelper.obj
 0001:00005220       ?insert@?$_Tree@V?$_Tmap_traits@HKU?$less@H@std@@V?$allocator@U?$pair@$$CBHK@std@@@2@$0A@@std@@@std@@QAE?AU?$pair@Viterator@?$_Tree@V?$_Tmap_traits@HKU?$less@H@std@@V?$allocator@U?$pair@$$CBHK@std@@@2@$0A@@std@@@std@@_N@2@ABU?$pair@$$CBHK@2@@Z 00406220 f i CampusHelper.obj
 0001:000052e0       ?insert@?$_Tree@V?$_Tmap_traits@HUREWARD@CCampusHelper@@U?$less@H@std@@V?$allocator@U?$pair@$$CBHUREWARD@CCampusHelper@@@std@@@4@$0A@@std@@@std@@QAE?AU?$pair@Viterator@?$_Tree@V?$_Tmap_traits@HUREWARD@CCampusHelper@@U?$less@H@std@@V?$allocator@U?$pair@$$CBHUREWARD@CCampusHelper@@@std@@@4@$0A@@std@@@std@@_N@2@ABU?$pair@$$CBHUREWARD@CCampusHelper@@@2@@Z 004062e0 f i CampusHelper.obj
 0001:000053a0       ?erase@?$_Tree@V?$_Tmap_traits@HUREWARD@CCampusHelper@@U?$less@H@std@@V?$allocator@U?$pair@$$CBHUREWARD@CCampusHelper@@@std@@@4@$0A@@std@@@std@@QAE?AViterator@12@V312@0@Z 004063a0 f i CampusHelper.obj
 0001:00005460       ?push_back@?$vector@HV?$allocator@H@std@@@std@@QAEXABH@Z 00406460 f i CampusHelper.obj
 0001:000054b0       ?erase@?$_Tree@V?$_Tmap_traits@KKU?$less@K@std@@V?$allocator@U?$pair@$$CBKK@std@@@2@$0A@@std@@@std@@QAEIABK@Z 004064b0 f i CampusHelper.obj
 0001:00005510       ?LoadScript@CCampusHelper@@QAEXXZ 00406510 f   CampusHelper.obj
 0001:000057f0       ?AddAllMemberRemoveCampus@CCampusHelper@@QAEXPAVCCampus@@@Z 004067f0 f   CampusHelper.obj
 0001:00005930       ??1?$map@HKU?$less@H@std@@V?$allocator@U?$pair@$$CBHK@std@@@2@@std@@QAE@XZ 00406930 f i CampusHelper.obj
 0001:00005960       ??1?$map@HUREWARD@CCampusHelper@@U?$less@H@std@@V?$allocator@U?$pair@$$CBHUREWARD@CCampusHelper@@@std@@@4@@std@@QAE@XZ 00406960 f i CampusHelper.obj
 0001:00005990       ??1CCampusHelper@@QAE@XZ   00406990 f   CampusHelper.obj
 0001:00005a50       ?OnRemoveCampusMember@CCampusHelper@@QAEXAAVCAr@@@Z 00406a50 f   CampusHelper.obj
 0001:00005bb0       ??0CCampusHelper@@QAE@XZ   00406bb0 f   CampusHelper.obj
 0001:00005c80       ?GetInstance@CCampusHelper@@SAPAV1@XZ 00406c80 f   CampusHelper.obj
 0001:00005ce0       ?_AtlGetThreadACPFake@ATL@@YGIXZ 00406ce0 f i Colosseum.obj
 0001:00005d60       ?_AtlGetThreadACPReal@ATL@@YGIXZ 00406d60 f i Colosseum.obj
 0001:00005d70       ?_AtlGetThreadACPThunk@ATL@@YGIXZ 00406d70 f i Colosseum.obj
 0001:00005de0       ?AtlThrow@ATL@@YGXJ@Z      00406de0 f i Colosseum.obj
 0001:00005e00       ?_AtlGetStringResourceImage@ATL@@YAPBUATLSTRINGRESOURCEIMAGE@1@PAUHINSTANCE__@@PAUHRSRC__@@I@Z 00406e00 f i Colosseum.obj
 0001:00005e60       ?AtlGetStringResourceImage@ATL@@YAPBUATLSTRINGRESOURCEIMAGE@1@PAUHINSTANCE__@@I@Z 00406e60 f i Colosseum.obj
 0001:00005ea0       ?Release@CStringData@ATL@@QAEXXZ 00406ea0 f i Colosseum.obj
 0001:00005ec0       ?CreateRoomLayer@CColosseumMatch@@QAEXXZ 00406ec0 f   Colosseum.obj
 0001:00005f00       ??$fill@PAUTreasureItem@@U1@@std@@YAXPAUTreasureItem@@0ABU1@@Z 00406f00 f i ProjectCmn.obj
 0001:00005f00       ??$fill@PAU__COLOSSEUM_MONSTER@@U1@@std@@YAXPAU__COLOSSEUM_MONSTER@@0ABU1@@Z 00406f00 f i Colosseum.obj
 0001:00005f30       ?SetLength@?$CSimpleStringT@D$0A@@ATL@@AAEXH@Z 00406f30 f i Colosseum.obj
 0001:00005f60       ?ThrowMemoryException@?$CSimpleStringT@D$0A@@ATL@@KAXXZ 00406f60 f i Colosseum.obj
 0001:00005f70       ?Fork@?$CSimpleStringT@D$0A@@ATL@@AAEXH@Z 00406f70 f i Colosseum.obj
 0001:00005ff0       ?Reallocate@?$CSimpleStringT@D$0A@@ATL@@AAEXH@Z 00406ff0 f i Colosseum.obj
 0001:00006020       ?_Erase@?$_Tree@V?$_Tmap_traits@KPAVCColosseumMatch@@U?$less@K@std@@V?$allocator@U?$pair@$$CBKPAVCColosseumMatch@@@std@@@3@$0A@@std@@@std@@IAEXPAU_Node@?$_Tree_nod@V?$_Tmap_traits@KPAVCColosseumMatch@@U?$less@K@std@@V?$allocator@U?$pair@$$CBKPAVCColosseumMatch@@@std@@@3@$0A@@std@@@2@@Z 00407020 f i Colosseum.obj
 0001:00006060       ??$copy_backward@PAU__COLOSSEUM_MONSTER@@PAU1@@std@@YAPAU__COLOSSEUM_MONSTER@@PAU1@00@Z 00407060 f i Colosseum.obj
 0001:00006060       ??$copy_backward@PAUTreasureItem@@PAU1@@std@@YAPAUTreasureItem@@PAU1@00@Z 00407060 f i ProjectCmn.obj
 0001:00006090       ??1?$CStringT@DV?$StrTraitMFC@DV?$ChTraitsCRT@D@ATL@@@@@ATL@@QAE@XZ 00407090 f i Colosseum.obj
 0001:00006090       ??1?$CSimpleStringT@D$0A@@ATL@@QAE@XZ 00407090 f i Colosseum.obj
 0001:000060b0       ?PrepareWrite2@?$CSimpleStringT@D$0A@@ATL@@AAEXH@Z 004070b0 f i Colosseum.obj
 0001:00006100       ??$_Uninit_fill_n@PAUTreasureItem@@IU1@V?$allocator@UTreasureItem@@@std@@@std@@YAXPAUTreasureItem@@IABU1@AAV?$allocator@UTreasureItem@@@0@U_Nonscalar_ptr_iterator_tag@0@@Z 00407100 f i ProjectCmn.obj
 0001:00006100       ??$_Uninit_fill_n@PAU__COLOSSEUM_MONSTER@@IU1@V?$allocator@U__COLOSSEUM_MONSTER@@@std@@@std@@YAXPAU__COLOSSEUM_MONSTER@@IABU1@AAV?$allocator@U__COLOSSEUM_MONSTER@@@0@U_Nonscalar_ptr_iterator_tag@0@@Z 00407100 f i Colosseum.obj
 0001:00006130       ??$_Uninit_copy@PAU__COLOSSEUM_MONSTER@@PAU1@V?$allocator@U__COLOSSEUM_MONSTER@@@std@@@std@@YAPAU__COLOSSEUM_MONSTER@@PAU1@00AAV?$allocator@U__COLOSSEUM_MONSTER@@@0@U_Nonscalar_ptr_iterator_tag@0@@Z 00407130 f i Colosseum.obj
 0001:00006130       ??$_Uninit_copy@Vconst_iterator@?$vector@U__COLOSSEUM_MONSTER@@V?$allocator@U__COLOSSEUM_MONSTER@@@std@@@std@@PAU__COLOSSEUM_MONSTER@@V?$allocator@U__COLOSSEUM_MONSTER@@@3@@std@@YAPAU__COLOSSEUM_MONSTER@@Vconst_iterator@?$vector@U__COLOSSEUM_MONSTER@@V?$allocator@U__COLOSSEUM_MONSTER@@@std@@@0@0PAU1@AAV?$allocator@U__COLOSSEUM_MONSTER@@@0@U_Nonscalar_ptr_iterator_tag@0@@Z 00407130 f i Colosseum.obj
 0001:00006130       ??$_Uninit_copy@PAUTreasureItem@@PAU1@V?$allocator@UTreasureItem@@@std@@@std@@YAPAUTreasureItem@@PAU1@00AAV?$allocator@UTreasureItem@@@0@U_Nonscalar_ptr_iterator_tag@0@@Z 00407130 f i ProjectCmn.obj
 0001:00006160       ??0?$CStringT@DV?$StrTraitMFC@DV?$ChTraitsCRT@D@ATL@@@@@ATL@@QAE@XZ 00407160 f i Colosseum.obj
 0001:00006180       ?GetBuffer@?$CSimpleStringT@D$0A@@ATL@@QAEPADH@Z 00407180 f i Colosseum.obj
 0001:00006180       ?PrepareWrite@?$CSimpleStringT@D$0A@@ATL@@AAEPADH@Z 00407180 f i Colosseum.obj
 0001:000061b0       ?LoadStringA@?$CStringT@DV?$StrTraitMFC@DV?$ChTraitsCRT@D@ATL@@@@@ATL@@QAEHPAUHINSTANCE__@@I@Z 004071b0 f i Colosseum.obj
 0001:00006280       ?GetMatchByParty@CColosseumMng@@QAEPAVCColosseumMatch@@PAVCParty@@@Z 00407280 f   Colosseum.obj
 0001:000062c0       ?GetMatchByMoverID@CColosseumMng@@QAEPAVCColosseumMatch@@K@Z 004072c0 f   Colosseum.obj
 0001:00006300       ??1CColosseumMatch@@UAE@XZ 00407300 f   Colosseum.obj
 0001:00006390       ?FormatV@?$CStringT@DV?$StrTraitMFC@DV?$ChTraitsCRT@D@ATL@@@@@ATL@@QAEXPBDPAD@Z 00407390 f i Colosseum.obj
 0001:00006410       ?_Ufill@?$vector@UTreasureItem@@V?$allocator@UTreasureItem@@@std@@@std@@IAEPAUTreasureItem@@PAU3@IABU3@@Z 00407410 f i ProjectCmn.obj
 0001:00006410       ?_Ufill@?$vector@U__COLOSSEUM_MONSTER@@V?$allocator@U__COLOSSEUM_MONSTER@@@std@@@std@@IAEPAU__COLOSSEUM_MONSTER@@PAU3@IABU3@@Z 00407410 f i Colosseum.obj
 0001:00006440       ?LoadStringA@?$CStringT@DV?$StrTraitMFC@DV?$ChTraitsCRT@D@ATL@@@@@ATL@@QAEHI@Z 00407440 f i Colosseum.obj
 0001:00006470       ??_ECColosseumMatch@@UAEPAXI@Z 00407470 f i Colosseum.obj
 0001:00006470       ??_GCColosseumMatch@@UAEPAXI@Z 00407470 f i Colosseum.obj
 0001:00006490       ?Format@?$CStringT@DV?$StrTraitMFC@DV?$ChTraitsCRT@D@ATL@@@@@ATL@@QAAXIZZ 00407490 f i Colosseum.obj
 0001:00006530       ?erase@?$_Tree@V?$_Tmap_traits@KPAVCColosseumMatch@@U?$less@K@std@@V?$allocator@U?$pair@$$CBKPAVCColosseumMatch@@@std@@@3@$0A@@std@@@std@@QAE?AViterator@12@V312@@Z 00407530 f i Colosseum.obj
 0001:000067f0       ?_Xran@?$vector@KV?$allocator@K@std@@@std@@IBEXXZ 004077f0 f i Colosseum.obj
 0001:000067f0       ?_Xran@?$vector@U__COLOSSEUM_MONSTER@@V?$allocator@U__COLOSSEUM_MONSTER@@@std@@@std@@IBEXXZ 004077f0 f i Colosseum.obj
 0001:00006860       ?_Insert@?$_Tree@V?$_Tmap_traits@KPAVCColosseumMatch@@U?$less@K@std@@V?$allocator@U?$pair@$$CBKPAVCColosseumMatch@@@std@@@3@$0A@@std@@@std@@IAE?AViterator@12@_NPAU_Node@?$_Tree_nod@V?$_Tmap_traits@KPAVCColosseumMatch@@U?$less@K@std@@V?$allocator@U?$pair@$$CBKPAVCColosseumMatch@@@std@@@3@$0A@@std@@@2@ABU?$pair@$$CBKPAVCColosseumMatch@@@2@@Z 00407860 f i Colosseum.obj
 0001:00006a10       ?erase@?$_Tree@V?$_Tmap_traits@KPAVCColosseumMatch@@U?$less@K@std@@V?$allocator@U?$pair@$$CBKPAVCColosseumMatch@@@std@@@3@$0A@@std@@@std@@QAE?AViterator@12@V312@0@Z 00407a10 f i Colosseum.obj
 0001:00006ad0       ?_Xlen@?$vector@U__COLOSSEUM_MONSTER@@V?$allocator@U__COLOSSEUM_MONSTER@@@std@@@std@@IBEXXZ 00407ad0 f i Colosseum.obj
 0001:00006b40       ?DestroyMatch@CColosseumMng@@QAEXK@Z 00407b40 f   Colosseum.obj
 0001:00006b90       ?insert@?$_Tree@V?$_Tmap_traits@KPAVCColosseumMatch@@U?$less@K@std@@V?$allocator@U?$pair@$$CBKPAVCColosseumMatch@@@std@@@3@$0A@@std@@@std@@QAE?AU?$pair@Viterator@?$_Tree@V?$_Tmap_traits@KPAVCColosseumMatch@@U?$less@K@std@@V?$allocator@U?$pair@$$CBKPAVCColosseumMatch@@@std@@@3@$0A@@std@@@std@@_N@2@ABU?$pair@$$CBKPAVCColosseumMatch@@@2@@Z 00407b90 f i Colosseum.obj
 0001:00006c50       ?_Insert_n@?$vector@U__COLOSSEUM_MONSTER@@V?$allocator@U__COLOSSEUM_MONSTER@@@std@@@std@@IAEXViterator@12@IABU__COLOSSEUM_MONSTER@@@Z 00407c50 f i Colosseum.obj
 0001:00006f20       ?IsTeleported@CColosseumMatch@@QAEHK@Z 00407f20 f   Colosseum.obj
 0001:00006f80       ??0?$vector@U__COLOSSEUM_MONSTER@@V?$allocator@U__COLOSSEUM_MONSTER@@@std@@@std@@QAE@ABV01@@Z 00407f80 f i Colosseum.obj
 0001:00007050       ?insert@?$vector@U__COLOSSEUM_MONSTER@@V?$allocator@U__COLOSSEUM_MONSTER@@@std@@@std@@QAE?AViterator@12@V312@ABU__COLOSSEUM_MONSTER@@@Z 00408050 f i Colosseum.obj
 0001:000070c0       ??1?$map@KPAVCColosseumMatch@@U?$less@K@std@@V?$allocator@U?$pair@$$CBKPAVCColosseumMatch@@@std@@@3@@std@@QAE@XZ 004080c0 f i Colosseum.obj
 0001:000070f0       ??1CColosseumMng@@UAE@XZ   004080f0 f   Colosseum.obj
 0001:00007180       ?EnterRoom@CColosseumMatch@@QAEXPAVCUser@@@Z 00408180 f   Colosseum.obj
 0001:00007240       ?push_back@?$vector@U__COLOSSEUM_MONSTER@@V?$allocator@U__COLOSSEUM_MONSTER@@@std@@@std@@QAEXABU__COLOSSEUM_MONSTER@@@Z 00408240 f i Colosseum.obj
 0001:000072d0       ??0CColosseumMng@@QAE@XZ   004082d0 f   Colosseum.obj
 0001:00007350       ??_GCColosseumMng@@UAEPAXI@Z 00408350 f i Colosseum.obj
 0001:00007350       ??_ECColosseumMng@@UAEPAXI@Z 00408350 f i Colosseum.obj
 0001:00007370       ?GetInstance@CColosseumMng@@SAPAV1@XZ 00408370 f   Colosseum.obj
 0001:000073d0       ?LoadScript@CColosseumMng@@QAEHXZ 004083d0 f   Colosseum.obj
 0001:00007560       ??0CColosseumMatch@@QAE@XZ 00408560 f   Colosseum.obj
 0001:000075d0       ?CreateMover@CColosseumMatch@@QAEXXZ 004085d0 f   Colosseum.obj
 0001:00007870       ?KickUser@CColosseumMatch@@QAEXK@Z 00408870 f   Colosseum.obj
 0001:00007960       ?EndWaitTime@CColosseumMatch@@QAEXXZ 00408960 f   Colosseum.obj
 0001:000079f0       ?DestroyMover@CColosseumMatch@@QAEXXZ 004089f0 f   Colosseum.obj
 0001:00007b90       ?EndMatch@CColosseumMatch@@QAEXH@Z 00408b90 f   Colosseum.obj
 0001:00007c90       ?CreateNewMatch@CColosseumMng@@QAEHPAVCUser@@EE@Z 00408c90 f   Colosseum.obj
 0001:00007e60       ?Process@CColosseumMng@@QAEXXZ 00408e60 f   Colosseum.obj
 0001:00007f70       ??_ECCouple@@UAEPAXI@Z     00408f70 f i couple.obj
 0001:00007f70       ??_GCCouple@@UAEPAXI@Z     00408f70 f i couple.obj
 0001:00007f90       ?GetPartner@CCouple@@QAEKK@Z 00408f90 f   couple.obj
 0001:00007fa0       ??8ATL@@YA_NABV?$CStringT@DV?$StrTraitMFC@DV?$ChTraitsCRT@D@ATL@@@@@0@PBD@Z 00408fa0 f i couple.obj
 0001:00007fc0       ?_Erase@?$_Tree@V?$_Tmap_traits@KPAVCCouple@@U?$less@K@std@@V?$allocator@U?$pair@$$CBKPAVCCouple@@@std@@@3@$0A@@std@@@std@@IAEXPAU_Node@?$_Tree_nod@V?$_Tmap_traits@KPAVCCouple@@U?$less@K@std@@V?$allocator@U?$pair@$$CBKPAVCCouple@@@std@@@3@$0A@@std@@@2@@Z 00408fc0 f i couple.obj
 0001:00008000       ??$_Uninit_fill_n@PAU_NPC_BUFF_SKILL@@IU1@V?$allocator@U_NPC_BUFF_SKILL@@@std@@@std@@YAXPAU_NPC_BUFF_SKILL@@IABU1@AAV?$allocator@U_NPC_BUFF_SKILL@@@0@U_Nonscalar_ptr_iterator_tag@0@@Z 00409000 f i Project.obj
 0001:00008000       ??$_Uninit_fill_n@PAU_COUPLE_ITEM@@IU1@V?$allocator@U_COUPLE_ITEM@@@std@@@std@@YAXPAU_COUPLE_ITEM@@IABU1@AAV?$allocator@U_COUPLE_ITEM@@@0@U_Nonscalar_ptr_iterator_tag@0@@Z 00409000 f i couple.obj
 0001:00008000       ??$_Uninit_fill_n@PAU__SPAWNREGION@CEventLua@@IU12@V?$allocator@U__SPAWNREGION@CEventLua@@@std@@@std@@YAXPAU__SPAWNREGION@CEventLua@@IABU12@AAV?$allocator@U__SPAWNREGION@CEventLua@@@0@U_Nonscalar_ptr_iterator_tag@0@@Z 00409000 f i DPDatabaseClient.obj
 0001:00008000       ??$_Uninit_fill_n@PAUINSTACNEDUNGEON_INFO@@IU1@V?$allocator@UINSTACNEDUNGEON_INFO@@@std@@@std@@YAXPAUINSTACNEDUNGEON_INFO@@IABU1@AAV?$allocator@UINSTACNEDUNGEON_INFO@@@0@U_Nonscalar_ptr_iterator_tag@0@@Z 00409000 f i InstanceDungeonBase.obj
 0001:00008050       ?GetLevel@CCoupleProperty@@QAEHH@Z 00409050 f   couple.obj
 0001:00008090       ?GetTotalExperience@CCoupleProperty@@QAEHH@Z 00409090 f   couple.obj
 0001:000080a0       ??$_Ucopy@PAU_COUPLE_ITEM@@@?$vector@U_COUPLE_ITEM@@V?$allocator@U_COUPLE_ITEM@@@std@@@std@@IAEPAU_COUPLE_ITEM@@PAU2@00@Z 004090a0 f i couple.obj
 0001:000080c0       ?Clear@CCoupleMgr@@AAEXXZ  004090c0 f   couple.obj
 0001:00008160       ?GetSkill@CCoupleProperty@@QAEAAV?$vector@HV?$allocator@H@std@@@std@@H@Z 00409160 f   couple.obj
 0001:00008180       ?_Insert@?$_Tree@V?$_Tmap_traits@KPAVCCouple@@U?$less@K@std@@V?$allocator@U?$pair@$$CBKPAVCCouple@@@std@@@3@$0A@@std@@@std@@IAE?AViterator@12@_NPAU_Node@?$_Tree_nod@V?$_Tmap_traits@KPAVCCouple@@U?$less@K@std@@V?$allocator@U?$pair@$$CBKPAVCCouple@@@std@@@3@$0A@@std@@@2@ABU?$pair@$$CBKPAVCCouple@@@2@@Z 00409180 f i couple.obj
 0001:00008330       ?_Xlen@?$vector@U_COUPLE_ITEM@@V?$allocator@U_COUPLE_ITEM@@@std@@@std@@IBEXXZ 00409330 f i couple.obj
 0001:00008330       ?_Xlen@?$vector@PAVCCouple@@V?$allocator@PAVCCouple@@@std@@@std@@IBEXXZ 00409330 f i couple.obj
 0001:00008330       ?_Xlen@?$vector@V?$vector@U_COUPLE_ITEM@@V?$allocator@U_COUPLE_ITEM@@@std@@@std@@V?$allocator@V?$vector@U_COUPLE_ITEM@@V?$allocator@U_COUPLE_ITEM@@@std@@@std@@@2@@std@@IBEXXZ 00409330 f i couple.obj
 0001:00008330       ?_Xlen@?$vector@V?$vector@HV?$allocator@H@std@@@std@@V?$allocator@V?$vector@HV?$allocator@H@std@@@std@@@2@@std@@IBEXXZ 00409330 f i couple.obj
 0001:000083a0       ?erase@?$_Tree@V?$_Tmap_traits@KPAVCCouple@@U?$less@K@std@@V?$allocator@U?$pair@$$CBKPAVCCouple@@@std@@@3@$0A@@std@@@std@@QAE?AViterator@12@V312@@Z 004093a0 f i couple.obj
 0001:00008660       ??$_Destroy_range@V?$vector@HV?$allocator@H@std@@@std@@V?$allocator@V?$vector@HV?$allocator@H@std@@@std@@@2@@std@@YAXPAV?$vector@HV?$allocator@H@std@@@0@0AAV?$allocator@V?$vector@HV?$allocator@H@std@@@std@@@0@U_Nonscalar_ptr_iterator_tag@0@@Z 00409660 f i couple.obj
 0001:00008660       ??$_Destroy_range@V?$vector@U_COUPLE_ITEM@@V?$allocator@U_COUPLE_ITEM@@@std@@@std@@V?$allocator@V?$vector@U_COUPLE_ITEM@@V?$allocator@U_COUPLE_ITEM@@@std@@@std@@@2@@std@@YAXPAV?$vector@U_COUPLE_ITEM@@V?$allocator@U_COUPLE_ITEM@@@std@@@0@0AAV?$allocator@V?$vector@U_COUPLE_ITEM@@V?$allocator@U_COUPLE_ITEM@@@std@@@std@@@0@U_Nonscalar_ptr_iterator_tag@0@@Z 00409660 f i couple.obj
 0001:000086a0       ??$_Insert@Viterator@?$vector@HV?$allocator@H@std@@@std@@@?$vector@HV?$allocator@H@std@@@std@@QAEXViterator@01@00Uforward_iterator_tag@1@@Z 004096a0 f i couple.obj
 0001:000088f0       ?insert@?$_Tree@V?$_Tmap_traits@KPAVCCouple@@U?$less@K@std@@V?$allocator@U?$pair@$$CBKPAVCCouple@@@std@@@3@$0A@@std@@@std@@QAE?AU?$pair@Viterator@?$_Tree@V?$_Tmap_traits@KPAVCCouple@@U?$less@K@std@@V?$allocator@U?$pair@$$CBKPAVCCouple@@@std@@@3@$0A@@std@@@std@@_N@2@ABU?$pair@$$CBKPAVCCouple@@@2@@Z 004098f0 f i couple.obj
 0001:000089b0       ?erase@?$_Tree@V?$_Tmap_traits@KPAVCCouple@@U?$less@K@std@@V?$allocator@U?$pair@$$CBKPAVCCouple@@@std@@@3@$0A@@std@@@std@@QAE?AViterator@12@V312@0@Z 004099b0 f i couple.obj
 0001:00008a70       ?_Insert_n@?$vector@PAVCCouple@@V?$allocator@PAVCCouple@@@std@@@std@@IAEXViterator@12@IABQAVCCouple@@@Z 00409a70 f i couple.obj
 0001:00008c50       ?_Buy@?$vector@U_COUPLE_ITEM@@V?$allocator@U_COUPLE_ITEM@@@std@@@std@@IAE_NI@Z 00409c50 f i couple.obj
 0001:00008ca0       ?_Insert_n@?$vector@U_COUPLE_ITEM@@V?$allocator@U_COUPLE_ITEM@@@std@@@std@@IAEXViterator@12@IABU_COUPLE_ITEM@@@Z 00409ca0 f i couple.obj
 0001:00008f70       ??0?$vector@HV?$allocator@H@std@@@std@@QAE@ABV01@@Z 00409f70 f i couple.obj
 0001:00009030       ??0?$vector@U_COUPLE_ITEM@@V?$allocator@U_COUPLE_ITEM@@@std@@@std@@QAE@ABV01@@Z 0040a030 f i couple.obj
 0001:00009100       ??4?$vector@HV?$allocator@H@std@@@std@@QAEAAV01@ABV01@@Z 0040a100 f i couple.obj
 0001:00009250       ??4?$vector@U_COUPLE_ITEM@@V?$allocator@U_COUPLE_ITEM@@@std@@@std@@QAEAAV01@ABV01@@Z 0040a250 f i couple.obj
 0001:000093d0       ??$_Copy_opt@PAV?$vector@U_COUPLE_ITEM@@V?$allocator@U_COUPLE_ITEM@@@std@@@std@@PAV12@@std@@YAPAV?$vector@U_COUPLE_ITEM@@V?$allocator@U_COUPLE_ITEM@@@std@@@0@PAV10@00U_Nonscalar_ptr_iterator_tag@0@@Z 0040a3d0 f i couple.obj
 0001:00009410       ??$_Copy_backward_opt@PAV?$vector@U_COUPLE_ITEM@@V?$allocator@U_COUPLE_ITEM@@@std@@@std@@PAV12@@std@@YAPAV?$vector@U_COUPLE_ITEM@@V?$allocator@U_COUPLE_ITEM@@@std@@@0@PAV10@00U_Nonscalar_ptr_iterator_tag@0@@Z 0040a410 f i couple.obj
 0001:00009450       ??$_Copy_opt@PAV?$vector@HV?$allocator@H@std@@@std@@PAV12@@std@@YAPAV?$vector@HV?$allocator@H@std@@@0@PAV10@00U_Nonscalar_ptr_iterator_tag@0@@Z 0040a450 f i couple.obj
 0001:00009490       ??$_Copy_backward_opt@PAV?$vector@HV?$allocator@H@std@@@std@@PAV12@@std@@YAPAV?$vector@HV?$allocator@H@std@@@0@PAV10@00U_Nonscalar_ptr_iterator_tag@0@@Z 0040a490 f i couple.obj
 0001:000094d0       ?destroy@?$allocator@V?$vector@HV?$allocator@H@std@@@std@@@std@@QAEXPAV?$vector@HV?$allocator@H@std@@@2@@Z 0040a4d0 f i couple.obj
 0001:000094d0       ?destroy@?$allocator@V?$vector@U_COUPLE_ITEM@@V?$allocator@U_COUPLE_ITEM@@@std@@@std@@@std@@QAEXPAV?$vector@U_COUPLE_ITEM@@V?$allocator@U_COUPLE_ITEM@@@std@@@2@@Z 0040a4d0 f i couple.obj
 0001:00009500       ?insert@?$vector@U_COUPLE_ITEM@@V?$allocator@U_COUPLE_ITEM@@@std@@@std@@QAE?AViterator@12@V312@ABU_COUPLE_ITEM@@@Z 0040a500 f i couple.obj
 0001:00009570       ??$fill@PAV?$vector@U_COUPLE_ITEM@@V?$allocator@U_COUPLE_ITEM@@@std@@@std@@V12@@std@@YAXPAV?$vector@U_COUPLE_ITEM@@V?$allocator@U_COUPLE_ITEM@@@std@@@0@0ABV10@@Z 0040a570 f i couple.obj
 0001:000095a0       ??$fill@PAV?$vector@HV?$allocator@H@std@@@std@@V12@@std@@YAXPAV?$vector@HV?$allocator@H@std@@@0@0ABV10@@Z 0040a5a0 f i couple.obj
 0001:000095d0       ??$_Uninit_copy@PAV?$vector@U_COUPLE_ITEM@@V?$allocator@U_COUPLE_ITEM@@@std@@@std@@PAV12@V?$allocator@V?$vector@U_COUPLE_ITEM@@V?$allocator@U_COUPLE_ITEM@@@std@@@std@@@2@@std@@YAPAV?$vector@U_COUPLE_ITEM@@V?$allocator@U_COUPLE_ITEM@@@std@@@0@PAV10@00AAV?$allocator@V?$vector@U_COUPLE_ITEM@@V?$allocator@U_COUPLE_ITEM@@@std@@@std@@@0@U_Nonscalar_ptr_iterator_tag@0@@Z 0040a5d0 f i couple.obj
 0001:00009660       ??$_Uninit_copy@PAV?$vector@HV?$allocator@H@std@@@std@@PAV12@V?$allocator@V?$vector@HV?$allocator@H@std@@@std@@@2@@std@@YAPAV?$vector@HV?$allocator@H@std@@@0@PAV10@00AAV?$allocator@V?$vector@HV?$allocator@H@std@@@std@@@0@U_Nonscalar_ptr_iterator_tag@0@@Z 0040a660 f i couple.obj
 0001:000096f0       ??1?$map@KPAVCCouple@@U?$less@K@std@@V?$allocator@U?$pair@$$CBKPAVCCouple@@@std@@@3@@std@@QAE@XZ 0040a6f0 f i couple.obj
 0001:00009720       ??1CCoupleMgr@@UAE@XZ      0040a720 f   couple.obj
 0001:000097b0       ?Decouple@CCoupleMgr@@QAEHK@Z 0040a7b0 f   couple.obj
 0001:00009940       ?LoadSkillKind@CCoupleProperty@@AAEXAAVCScript@@@Z 0040a940 f   couple.obj
 0001:000099d0       ?push_back@?$vector@U_COUPLE_ITEM@@V?$allocator@U_COUPLE_ITEM@@@std@@@std@@QAEXABU_COUPLE_ITEM@@@Z 0040a9d0 f i couple.obj
 0001:00009a60       ?erase@?$vector@V?$vector@HV?$allocator@H@std@@@std@@V?$allocator@V?$vector@HV?$allocator@H@std@@@std@@@2@@std@@QAE?AViterator@12@V312@0@Z 0040aa60 f i couple.obj
 0001:00009ab0       ??$_Uninit_fill_n@PAV?$vector@U_COUPLE_ITEM@@V?$allocator@U_COUPLE_ITEM@@@std@@@std@@IV12@V?$allocator@V?$vector@U_COUPLE_ITEM@@V?$allocator@U_COUPLE_ITEM@@@std@@@std@@@2@@std@@YAXPAV?$vector@U_COUPLE_ITEM@@V?$allocator@U_COUPLE_ITEM@@@std@@@0@IABV10@AAV?$allocator@V?$vector@U_COUPLE_ITEM@@V?$allocator@U_COUPLE_ITEM@@@std@@@std@@@0@U_Nonscalar_ptr_iterator_tag@0@@Z 0040aab0 f i couple.obj
 0001:00009b40       ??$_Uninit_fill_n@PAV?$vector@HV?$allocator@H@std@@@std@@IV12@V?$allocator@V?$vector@HV?$allocator@H@std@@@std@@@2@@std@@YAXPAV?$vector@HV?$allocator@H@std@@@0@IABV10@AAV?$allocator@V?$vector@HV?$allocator@H@std@@@std@@@0@U_Nonscalar_ptr_iterator_tag@0@@Z 0040ab40 f i couple.obj
 0001:00009bd0       ??0CCoupleMgr@@QAE@XZ      0040abd0 f   couple.obj
 0001:00009c40       ??_GCCoupleMgr@@UAEPAXI@Z  0040ac40 f i couple.obj
 0001:00009c40       ??_ECCoupleMgr@@UAEPAXI@Z  0040ac40 f i couple.obj
 0001:00009c60       ?Couple@CCoupleMgr@@QAEXPAVCCouple@@@Z 0040ac60 f   couple.obj
 0001:00009d00       ?LoadSkillLevel@CCoupleProperty@@AAEXAAVCScript@@@Z 0040ad00 f   couple.obj
 0001:00009eb0       ?_Destroy@?$vector@V?$vector@HV?$allocator@H@std@@@std@@V?$allocator@V?$vector@HV?$allocator@H@std@@@std@@@2@@std@@IAEXPAV?$vector@HV?$allocator@H@std@@@2@0@Z 0040aeb0 f i couple.obj
 0001:00009eb0       ?_Destroy@?$vector@V?$vector@U_COUPLE_ITEM@@V?$allocator@U_COUPLE_ITEM@@@std@@@std@@V?$allocator@V?$vector@U_COUPLE_ITEM@@V?$allocator@U_COUPLE_ITEM@@@std@@@std@@@2@@std@@IAEXPAV?$vector@U_COUPLE_ITEM@@V?$allocator@U_COUPLE_ITEM@@@std@@@2@0@Z 0040aeb0 f i couple.obj
 0001:00009ed0       ?Couple@CCoupleMgr@@QAEXKK@Z 0040aed0 f   couple.obj
 0001:00009f20       ?LoadItem@CCoupleProperty@@AAEXAAVCScript@@@Z 0040af20 f   couple.obj
 0001:0000a000       ?erase@?$vector@V?$vector@U_COUPLE_ITEM@@V?$allocator@U_COUPLE_ITEM@@@std@@@std@@V?$allocator@V?$vector@U_COUPLE_ITEM@@V?$allocator@U_COUPLE_ITEM@@@std@@@std@@@2@@std@@QAE?AViterator@12@V312@0@Z 0040b000 f i couple.obj
 0001:0000a050       ?_Ufill@?$vector@V?$vector@U_COUPLE_ITEM@@V?$allocator@U_COUPLE_ITEM@@@std@@@std@@V?$allocator@V?$vector@U_COUPLE_ITEM@@V?$allocator@U_COUPLE_ITEM@@@std@@@std@@@2@@std@@IAEPAV?$vector@U_COUPLE_ITEM@@V?$allocator@U_COUPLE_ITEM@@@std@@@2@PAV32@IABV32@@Z 0040b050 f i couple.obj
 0001:0000a080       ?_Ufill@?$vector@V?$vector@HV?$allocator@H@std@@@std@@V?$allocator@V?$vector@HV?$allocator@H@std@@@std@@@2@@std@@IAEPAV?$vector@HV?$allocator@H@std@@@2@PAV32@IABV32@@Z 0040b080 f i couple.obj
 0001:0000a0b0       ??1?$vector@V?$vector@U_COUPLE_ITEM@@V?$allocator@U_COUPLE_ITEM@@@std@@@std@@V?$allocator@V?$vector@U_COUPLE_ITEM@@V?$allocator@U_COUPLE_ITEM@@@std@@@std@@@2@@std@@QAE@XZ 0040b0b0 f i couple.obj
 0001:0000a0f0       ?_Insert_n@?$vector@V?$vector@U_COUPLE_ITEM@@V?$allocator@U_COUPLE_ITEM@@@std@@@std@@V?$allocator@V?$vector@U_COUPLE_ITEM@@V?$allocator@U_COUPLE_ITEM@@@std@@@std@@@2@@std@@IAEXViterator@12@IABV?$vector@U_COUPLE_ITEM@@V?$allocator@U_COUPLE_ITEM@@@std@@@2@@Z 0040b0f0 f i couple.obj
 0001:0000a390       ?_Insert_n@?$vector@V?$vector@HV?$allocator@H@std@@@std@@V?$allocator@V?$vector@HV?$allocator@H@std@@@std@@@2@@std@@IAEXViterator@12@IABV?$vector@HV?$allocator@H@std@@@2@@Z 0040b390 f i couple.obj
 0001:0000a630       ??0CCoupleProperty@@QAE@XZ 0040b630 f   couple.obj
 0001:0000a690       ??1CCoupleProperty@@UAE@XZ 0040b690 f   couple.obj
 0001:0000a7c0       ?resize@?$vector@V?$vector@U_COUPLE_ITEM@@V?$allocator@U_COUPLE_ITEM@@@std@@@std@@V?$allocator@V?$vector@U_COUPLE_ITEM@@V?$allocator@U_COUPLE_ITEM@@@std@@@std@@@2@@std@@QAEXIV?$vector@U_COUPLE_ITEM@@V?$allocator@U_COUPLE_ITEM@@@std@@@2@@Z 0040b7c0 f i couple.obj
 0001:0000a870       ?resize@?$vector@V?$vector@HV?$allocator@H@std@@@std@@V?$allocator@V?$vector@HV?$allocator@H@std@@@std@@@2@@std@@QAEXIV?$vector@HV?$allocator@H@std@@@2@@Z 0040b870 f i couple.obj
 0001:0000a920       ??_GCCoupleProperty@@UAEPAXI@Z 0040b920 f i couple.obj
 0001:0000a920       ??_ECCoupleProperty@@UAEPAXI@Z 0040b920 f i couple.obj
 0001:0000a940       ?Instance@CCoupleProperty@@SAPAV1@XZ 0040b940 f   couple.obj
 0001:0000a9a0       ?resize@?$vector@V?$vector@U_COUPLE_ITEM@@V?$allocator@U_COUPLE_ITEM@@@std@@@std@@V?$allocator@V?$vector@U_COUPLE_ITEM@@V?$allocator@U_COUPLE_ITEM@@@std@@@std@@@2@@std@@QAEXI@Z 0040b9a0 f i couple.obj
 0001:0000a9d0       ?resize@?$vector@V?$vector@HV?$allocator@H@std@@@std@@V?$allocator@V?$vector@HV?$allocator@H@std@@@std@@@2@@std@@QAEXI@Z 0040b9d0 f i couple.obj
 0001:0000aa00       ?GetLevel@CCouple@@QAEHH@Z 0040ba00 f   couple.obj
 0001:0000aa30       ?LoadLevel@CCoupleProperty@@AAEXAAVCScript@@@Z 0040ba30 f   couple.obj
 0001:0000ab10       ?AddExperience@CCouple@@QAEHH@Z 0040bb10 f   couple.obj
 0001:0000ab50       ?Serialize@CCouple@@QAEXAAVCAr@@@Z 0040bb50 f   couple.obj
 0001:0000ac30       ?Serialize@CCoupleMgr@@QAEXAAVCAr@@@Z 0040bc30 f   couple.obj
 0001:0000ad10       ?Initialize@CCoupleProperty@@QAEHXZ 0040bd10 f   couple.obj
 0001:0000ae90       ?Initialize@CCoupleHelper@@QAEHPAVCDPDatabaseClient@@PAVCDPSrvr@@@Z 0040be90 f   couplehelper.obj
 0001:0000af10       ?OnCouple@CCoupleHelper@@QAEXPAVCUser@@@Z 0040bf10 f   couplehelper.obj
 0001:0000af50       ?OnDecouple@CCoupleHelper@@QAEXPAVCUser@@@Z 0040bf50 f   couplehelper.obj
 0001:0000afa0       ?VelocityToVec@@YA?AUD3DXVECTOR3@@MM@Z 0040bfa0 f i couplehelper.obj
 0001:0000afa0       ?AngleToVectorXZ@@YAXPAUD3DXVECTOR3@@MM@Z 0040bfa0 f i InstanceDungeonBase.obj
 0001:0000afd0       ?GetDegree@@YAMABUD3DXVECTOR3@@0@Z 0040bfd0 f i couplehelper.obj
 0001:0000b070       ?SendActMsg@CMover@@QAEHW4OBJMSG@@HHHH@Z 0040c070 f i couplehelper.obj
 0001:0000b0b0       ?GetTickCount@CTickCount@@QAE_JXZ 0040c0b0 f i couplehelper.obj
 0001:0000b0e0       ?PlayProposeAnimation@CCoupleHelper@@AAEXPAVCUser@@0@Z 0040c0e0 f   couplehelper.obj
 0001:0000b230       ?OnUpdatePlayerData@CCoupleHelper@@QAEXKPAU_PlayerData@@@Z 0040c230 f   couplehelper.obj
 0001:0000b270       ?GetText@CProject@@QAEPBDK@Z 0040c270 f i couplehelper.obj
 0001:0000b2e0       ??_GCCoupleHelper@@UAEPAXI@Z 0040c2e0 f i couplehelper.obj
 0001:0000b2e0       ??_ECCoupleHelper@@UAEPAXI@Z 0040c2e0 f i couplehelper.obj
 0001:0000b320       ?Instance@CCoupleHelper@@SAPAV1@XZ 0040c320 f   couplehelper.obj
 0001:0000b360       ?OnPropose@CCoupleHelper@@QAEXPAVCUser@@PBD@Z 0040c360 f   couplehelper.obj
 0001:0000b430       ?OnProposeResult@CCoupleHelper@@QAEXAAVCAr@@@Z 0040c430 f   couplehelper.obj
 0001:0000b6f0       ?OnRefuse@CCoupleHelper@@QAEXPAVCUser@@@Z 0040c6f0 f   couplehelper.obj
 0001:0000b7a0       ?OnCoupleResult@CCoupleHelper@@QAEXAAVCAr@@@Z 0040c7a0 f   couplehelper.obj
 0001:0000b930       ?OnDecoupleResult@CCoupleHelper@@QAEXAAVCAr@@@Z 0040c930 f   couplehelper.obj
 0001:0000bac0       ?OnAddCoupleExperience@CCoupleHelper@@QAEXAAVCAr@@@Z 0040cac0 f   couplehelper.obj
 0001:0000bc10       ?ConnectToServer@CDPMng@@QAEHPBDGHW4BUFFER_TYPE@@@Z 0040cc10 f i DPCoreClient.obj
 0001:0000bc60       ??0CTimeSpan@ATL@@QAE@JHHH@Z 0040cc60 f i DPCoreClient.obj
 0001:0000bcc0       ?OnLoadConstant@CDPCoreClient@@AAEXAAVCAr@@KKK@Z 0040ccc0 f   DPCoreClient.obj
 0001:0000bce0       ?OnCWWantedList@CDPCoreClient@@QAEXAAVCAr@@KKK@Z 0040cce0 f   DPCoreClient.obj
 0001:0000bd00       ?OnInstanceDungeonAllInfo@CDPCoreClient@@AAEXAAVCAr@@KKK@Z 0040cd00 f   DPCoreClient.obj
 0001:0000bd20       ??1CMclAutoLock@@QAE@XZ    0040cd20 f i DPCoreClient.obj
 0001:0000bd30       ??_H@YGXPAXIHP6EPAX0@Z@Z   0040cd30 f i DPCoreClient.obj
 0001:0000bd60       ??6CAr@@QAEAAV0@G@Z        0040cd60 f i DPCoreClient.obj
 0001:0000bd80       ??5CAr@@QAEAAV0@AAE@Z      0040cd80 f i DPCoreClient.obj
 0001:0000bdb0       ??6@YAAAVCAr@@AAV0@UD3DXVECTOR3@@@Z 0040cdb0 f i DPCoreClient.obj
 0001:0000bdd0       ?Push@?$CStack@K@@QAEXK@Z  0040cdd0 f i DPCoreClient.obj
 0001:0000be70       ?Serialize@COOLTIME_INFO@@QAEXAAVCAr@@@Z 0040ce70 f i DPCoreClient.obj
 0001:0000bf50       ?GetTickCount@CTime@ATL@@SG?AV12@XZ 0040cf50 f i DPCoreClient.obj
 0001:0000bf70       ?OnRemovePartyMember@CDPCoreClient@@AAEXAAVCAr@@KKK@Z 0040cf70 f   DPCoreClient.obj
 0001:0000c1e0       ?OnAddPlayerParty@CDPCoreClient@@AAEXAAVCAr@@KKK@Z 0040d1e0 f   DPCoreClient.obj
 0001:0000c290       ?OnSetPartyExp@CDPCoreClient@@AAEXAAVCAr@@KKK@Z 0040d290 f   DPCoreClient.obj
 0001:0000c380       ?OnRemovePartyPoint@CDPCoreClient@@AAEXAAVCAr@@KKK@Z 0040d380 f   DPCoreClient.obj
 0001:0000c430       ?OnPartyChangeName@CDPCoreClient@@AAEXAAVCAr@@KKK@Z 0040d430 f   DPCoreClient.obj
 0001:0000c500       ?OnPartyChangeTroup@CDPCoreClient@@AAEXAAVCAr@@KKK@Z 0040d500 f   DPCoreClient.obj
 0001:0000c5d0       ?OnAddFriend@CDPCoreClient@@AAEXAAVCAr@@KKK@Z 0040d5d0 f   DPCoreClient.obj
 0001:0000c830       ?OnQueryTickCount@CDPCoreClient@@AAEXAAVCAr@@KKK@Z 0040d830 f   DPCoreClient.obj
 0001:0000c8e0       ?OnAddGuildMember@CDPCoreClient@@AAEXAAVCAr@@KKK@Z 0040d8e0 f   DPCoreClient.obj
 0001:0000ca20       ?OnGuildNickName@CDPCoreClient@@AAEXAAVCAr@@KKK@Z 0040da20 f   DPCoreClient.obj
 0001:0000cad0       ?OnChgMaster@CDPCoreClient@@AAEXAAVCAr@@KKK@Z 0040dad0 f   DPCoreClient.obj
 0001:0000cb70       ?OnGuildMemberLogOut@CDPCoreClient@@AAEXAAVCAr@@KKK@Z 0040db70 f   DPCoreClient.obj
 0001:0000cba0       ?OnGuildLogoACK@CDPCoreClient@@AAEXAAVCAr@@KKK@Z 0040dba0 f   DPCoreClient.obj
 0001:0000cc00       ?OnGuildSetName@CDPCoreClient@@AAEXAAVCAr@@KKK@Z 0040dc00 f   DPCoreClient.obj
 0001:0000cda0       ?OnGameRate@CDPCoreClient@@AAEXAAVCAr@@KKK@Z 0040dda0 f   DPCoreClient.obj
 0001:0000ce40       ?OnEvent@CDPCoreClient@@AAEXAAVCAr@@KKK@Z 0040de40 f   DPCoreClient.obj
 0001:0000cfc0       ?OnRemoveUserFromCORE@CDPCoreClient@@AAEXAAVCAr@@KKK@Z 0040dfc0 f   DPCoreClient.obj
 0001:0000d000       ?OnDestroyPlayer@CDPCoreClient@@QAEXAAVCAr@@KKK@Z 0040e000 f   DPCoreClient.obj
 0001:0000d070       ?PushIdBlock@CIdStack@@QAEXKK@Z 0040e070 f i DPCoreClient.obj
 0001:0000d0e0       ?Empty@?$CSimpleStringT@D$0A@@ATL@@QAEXXZ 0040e0e0 f i DPCoreClient.obj
 0001:0000d150       ?CloneData@?$CSimpleStringT@D$0A@@ATL@@CAPAUCStringData@2@PAU32@@Z 0040e150 f i DPCoreClient.obj
 0001:0000d1b0       ?MyRegister@CDPCoreClient@@AAEXK@Z 0040e1b0 f   DPCoreClient.obj
 0001:0000d2f0       ?Recharge@CDPCoreClient@@AAEXK@Z 0040e2f0 f   DPCoreClient.obj
 0001:0000d410       ?SendPartyLevel@CDPCoreClient@@QAEXPAVCUser@@KKK@Z 0040e410 f   DPCoreClient.obj
 0001:0000d5c0       ?SendAddPartyExp@CDPCoreClient@@QAEXKHHH@Z 0040e5c0 f   DPCoreClient.obj
 0001:0000d740       ?SendRemovePartyPoint@CDPCoreClient@@QAEXKH@Z 0040e740 f   DPCoreClient.obj
 0001:0000d890       ?SendLoadConstant@CDPCoreClient@@QAEXXZ 0040e890 f   DPCoreClient.obj
 0001:0000d990       ?SendGuildMsgControl_Bank_Penya@CDPCoreClient@@QAEXPAVCUser@@KEE@Z 0040e990 f   DPCoreClient.obj
 0001:0000db20       ?SendBlock@CDPCoreClient@@QAEXEKPADK@Z 0040eb20 f   DPCoreClient.obj
 0001:0000dc90       ?OnRecharge@CDPCoreClient@@AAEXAAVCAr@@KKK@Z 0040ec90 f   DPCoreClient.obj
 0001:0000dd00       ?SendJoin@CDPCoreClient@@QAEXKPBDH@Z 0040ed00 f   DPCoreClient.obj
 0001:0000de60       ?SendWhisper@CDPCoreClient@@QAEXKKPBD@Z 0040ee60 f   DPCoreClient.obj
 0001:0000dfc0       ?SendSay@CDPCoreClient@@QAEXKKPBD@Z 0040efc0 f   DPCoreClient.obj
 0001:0000e120       ?SendModifyMode@CDPCoreClient@@QAEXKEKK@Z 0040f120 f   DPCoreClient.obj
 0001:0000e2a0       ?SendPartyChat@CDPCoreClient@@QAEXPAVCUser@@PBD@Z 0040f2a0 f   DPCoreClient.obj
 0001:0000e410       ?SendUserPartySkill@CDPCoreClient@@QAEXKHKHH@Z 0040f410 f   DPCoreClient.obj
 0001:0000e5b0       ?SendPlayMusic@CDPCoreClient@@QAEXKK@Z 0040f5b0 f   DPCoreClient.obj
 0001:0000e720       ?SendPlaySound@CDPCoreClient@@QAEXKK@Z 0040f720 f   DPCoreClient.obj
 0001:0000e890       ?SendTeleportPlayer@CDPCoreClient@@QAEXKK@Z 0040f890 f   DPCoreClient.obj
 0001:0000e9d0       ?SendKillPlayer@CDPCoreClient@@QAEXKK@Z 0040f9d0 f   DPCoreClient.obj
 0001:0000eb10       ?SendGetPlayerAddr@CDPCoreClient@@QAEXKK@Z 0040fb10 f   DPCoreClient.obj
 0001:0000ec50       ?SendGetPlayerCount@CDPCoreClient@@QAEXK@Z 0040fc50 f   DPCoreClient.obj
 0001:0000ed70       ?SendGetCorePlayer@CDPCoreClient@@QAEXK@Z 0040fd70 f   DPCoreClient.obj
 0001:0000ee90       ?SendSystem@CDPCoreClient@@QAEXPBD@Z 0040fe90 f   DPCoreClient.obj
 0001:0000efa0       ?SendCaption@CDPCoreClient@@QAEXPBDKH@Z 0040ffa0 f   DPCoreClient.obj
 0001:0000f100       ?SendFallSnow@CDPCoreClient@@QAEXXZ 00410100 f   DPCoreClient.obj
 0001:0000f200       ?SendFallRain@CDPCoreClient@@QAEXXZ 00410200 f   DPCoreClient.obj
 0001:0000f300       ?SendStopSnow@CDPCoreClient@@QAEXXZ 00410300 f   DPCoreClient.obj
 0001:0000f400       ?SendStopRain@CDPCoreClient@@QAEXXZ 00410400 f   DPCoreClient.obj
 0001:0000f500       ?SendGuildCombatState@CDPCoreClient@@QAEXH@Z 00410500 f   DPCoreClient.obj
 0001:0000f620       ?SendGCRemoveParty@CDPCoreClient@@QAEXKK@Z 00410620 f   DPCoreClient.obj
 0001:0000f760       ?OnShout@CDPCoreClient@@AAEXAAVCAr@@KKK@Z 00410760 f   DPCoreClient.obj
 0001:0000f8e0       ?OnPlayMusic@CDPCoreClient@@AAEXAAVCAr@@KKK@Z 004108e0 f   DPCoreClient.obj
 0001:0000fa20       ?OnPlaySound@CDPCoreClient@@AAEXAAVCAr@@KKK@Z 00410a20 f   DPCoreClient.obj
 0001:0000fb70       ?OnRemovePlayerParty@CDPCoreClient@@AAEXAAVCAr@@KKK@Z 00410b70 f   DPCoreClient.obj
 0001:0000fd70       ?OnSetPartyMode@CDPCoreClient@@AAEXAAVCAr@@KKK@Z 00410d70 f   DPCoreClient.obj
 0001:0000ff20       ?OnPartyChangeItemMode@CDPCoreClient@@AAEXAAVCAr@@KKK@Z 00410f20 f   DPCoreClient.obj
 0001:0000ffc0       ?OnPartyChangeExpMode@CDPCoreClient@@AAEXAAVCAr@@KKK@Z 00410fc0 f   DPCoreClient.obj
 0001:00010060       ?SendAddFriendNameReqest@CDPCoreClient@@QAEXKJEKPBD0@Z 00411060 f   DPCoreClient.obj
 0001:00010200       ?SendCreateGuild@CDPCoreClient@@QAEXPAU_GUILD_MEMBER_INFO@@HPBD@Z 00411200 f   DPCoreClient.obj
 0001:00010350       ?SendGuildChat@CDPCoreClient@@QAEXPAVCUser@@PBD@Z 00411350 f   DPCoreClient.obj
 0001:000104b0       ?OnGuildMemberLv@CDPCoreClient@@AAEXAAVCAr@@KKK@Z 004114b0 f   DPCoreClient.obj
 0001:00010530       ?OnGuildClass@CDPCoreClient@@AAEXAAVCAr@@KKK@Z 00411530 f   DPCoreClient.obj
 0001:000105a0       ?SendWarDead@CDPCoreClient@@QAEXK@Z 004115a0 f   DPCoreClient.obj
 0001:000106c0       ?SendWarMasterAbsent@CDPCoreClient@@QAEXKH@Z 004116c0 f   DPCoreClient.obj
 0001:00010800       ?SendWarTimeout@CDPCoreClient@@QAEXK@Z 00411800 f   DPCoreClient.obj
 0001:00010920       ?OnSurrender@CDPCoreClient@@AAEXAAVCAr@@KKK@Z 00411920 f   DPCoreClient.obj
 0001:000109e0       ?OnWarDead@CDPCoreClient@@QAEXAAVCAr@@KKK@Z 004119e0 f   DPCoreClient.obj
 0001:00010a40       ?OnWarEnd@CDPCoreClient@@QAEXAAVCAr@@KKK@Z 00411a40 f   DPCoreClient.obj
 0001:00010b00       ?Contribute@CDPCoreClient@@AAEHPAVCUser@@KK@Z 00411b00 f   DPCoreClient.obj
 0001:00010d10       ?SendGuildStat@CDPCoreClient@@QAEHPAVCUser@@W4GUILD_STAT@@K@Z 00411d10 f   DPCoreClient.obj
 0001:00011040       ?SendGuildGetPay@CDPCoreClient@@QAEXKK@Z 00412040 f   DPCoreClient.obj
 0001:00011180       ?OnCWWantedReward@CDPCoreClient@@QAEXAAVCAr@@KKK@Z 00412180 f   DPCoreClient.obj
 0001:000113a0       ?SendWCWantedGold@CDPCoreClient@@QAEXPBDKH0@Z 004123a0 f   DPCoreClient.obj
 0001:00011510       ?SendSetPartyDuel@CDPCoreClient@@QAEXKKH@Z 00412510 f   DPCoreClient.obj
 0001:00011670       ?SendQuerySetGuildName@CDPCoreClient@@QAEXKKPBDE@Z 00412670 f   DPCoreClient.obj
 0001:000117e0       ?SendSetSnoop@CDPCoreClient@@QAEXKKH@Z 004127e0 f   DPCoreClient.obj
 0001:00011940       ?SendChat@CDPCoreClient@@QAEXKKPBD@Z 00412940 f   DPCoreClient.obj
 0001:00011aa0       ?OnSetSnoop@CDPCoreClient@@QAEXAAVCAr@@KKK@Z 00412aa0 f   DPCoreClient.obj
 0001:00011b10       ?SendSetSnoopGuild@CDPCoreClient@@QAEXKH@Z 00412b10 f   DPCoreClient.obj
 0001:00011c50       ?OnGuildCombatState@CDPCoreClient@@AAEXAAVCAr@@KKK@Z 00412c50 f   DPCoreClient.obj
 0001:00011c90       ?SendPing@CDPCoreClient@@QAEXXZ 00412c90 f   DPCoreClient.obj
 0001:00011dd0       ?OnInstanceDungeonCreate@CDPCoreClient@@AAEXAAVCAr@@KKK@Z 00412dd0 f   DPCoreClient.obj
 0001:00011e70       ?SendInstanceDungeonCreate@CDPCoreClient@@QAEXHKAAUINSTACNEDUNGEON_INFO@@@Z 00412e70 f   DPCoreClient.obj
 0001:00011fd0       ?OnInstanceDungeonDestroy@CDPCoreClient@@AAEXAAVCAr@@KKK@Z 00412fd0 f   DPCoreClient.obj
 0001:00012070       ?SendInstanceDungeonDestroy@CDPCoreClient@@QAEXHKAAUINSTACNEDUNGEON_INFO@@@Z 00413070 f   DPCoreClient.obj
 0001:000121d0       ?OnInstanceDungeonSetCoolTimeInfo@CDPCoreClient@@AAEXAAVCAr@@KKK@Z 004131d0 f   DPCoreClient.obj
 0001:00012270       ?SendInstanceDungeonSetCoolTimeInfo@CDPCoreClient@@QAEXHKAAUCOOLTIME_INFO@@@Z 00413270 f   DPCoreClient.obj
 0001:000123f0       ?OnInstanceDungeonDeleteCoolTimeInfo@CDPCoreClient@@AAEXAAVCAr@@KKK@Z 004133f0 f   DPCoreClient.obj
 0001:00012450       ?SendQuizSystemMessage@CDPCoreClient@@QAEXHHHH@Z 00413450 f   DPCoreClient.obj
 0001:000125d0       ?_Erase@?$_Tree@V?$_Tmap_traits@KU_Friend@@U?$less@K@std@@V?$allocator@U?$pair@$$CBKU_Friend@@@std@@@3@$0A@@std@@@std@@IAEXPAU_Node@?$_Tree_nod@V?$_Tmap_traits@KU_Friend@@U?$less@K@std@@V?$allocator@U?$pair@$$CBKU_Friend@@@std@@@3@$0A@@std@@@2@@Z 004135d0 f i DPCoreClient.obj
 0001:00012610       ?_Erase@?$_Tree@V?$_Tmap_traits@KP8CDPCoreClient@@AEXAAVCAr@@KKK@ZU?$less@K@std@@V?$allocator@U?$pair@$$CBKP8CDPCoreClient@@AEXAAVCAr@@KKK@Z@std@@@4@$0A@@std@@@std@@IAEXPAU_Node@?$_Tree_nod@V?$_Tmap_traits@KP8CDPCoreClient@@AEXAAVCAr@@KKK@ZU?$less@K@std@@V?$allocator@U?$pair@$$CBKP8CDPCoreClient@@AEXAAVCAr@@KKK@Z@std@@@4@$0A@@std@@@2@@Z 00413610 f i DPCoreClient.obj
 0001:00012650       ??0?$CSimpleStringT@D$0A@@ATL@@QAE@ABV01@@Z 00413650 f i DPCoreClient.obj
 0001:00012670       ?Run@CDPCoreClient@@QAEHPADGK@Z 00413670 f   DPCoreClient.obj
 0001:000126d0       ?CheckIdStack@CDPCoreClient@@QAEHXZ 004136d0 f   DPCoreClient.obj
 0001:00012720       ?OnLoadWorld@CDPCoreClient@@AAEXAAVCAr@@KKK@Z 00413720 f   DPCoreClient.obj
 0001:00012930       ??$_Distance@Viterator@?$_Tree@V?$_Tmap_traits@KU_Friend@@U?$less@K@std@@V?$allocator@U?$pair@$$CBKU_Friend@@@std@@@3@$0A@@std@@@std@@I@std@@YAXViterator@?$_Tree@V?$_Tmap_traits@KU_Friend@@U?$less@K@std@@V?$allocator@U?$pair@$$CBKU_Friend@@@std@@@3@$0A@@std@@@0@0AAI@Z 00413930 f i DPCoreClient.obj
 0001:00012970       ??1_Node@?$_Tree_nod@V?$_Tmap_traits@HV?$CStringT@DV?$StrTraitMFC@DV?$ChTraitsCRT@D@ATL@@@@@ATL@@U?$less@H@std@@V?$allocator@U?$pair@$$CBHV?$CStringT@DV?$StrTraitMFC@DV?$ChTraitsCRT@D@ATL@@@@@ATL@@@std@@@4@$0A@@std@@@std@@QAE@XZ 00413970 f i MiniGame.obj
 0001:00012970       ??1_Node@?$_Tree_nod@V?$_Tmap_traits@KV?$CStringT@DV?$StrTraitMFC@DV?$ChTraitsCRT@D@ATL@@@@@ATL@@U?$less@K@std@@V?$allocator@U?$pair@$$CBKV?$CStringT@DV?$StrTraitMFC@DV?$ChTraitsCRT@D@ATL@@@@@ATL@@@std@@@4@$0A@@std@@@std@@QAE@XZ 00413970 f i DPCoreClient.obj
 0001:00012980       ?SetString@?$CSimpleStringT@D$0A@@ATL@@QAEXPBDH@Z 00413980 f i DPCoreClient.obj
 0001:00012a20       ?GetHandler@CDPCoreClient@@AAEP81@AEXAAVCAr@@KKK@ZK@Z 00413a20 f i DPCoreClient.obj
 0001:00012a50       ?OnEnvironmentEffect@CDPCoreClient@@AAEXAAVCAr@@KKK@Z 00413a50 f   DPCoreClient.obj
 0001:00012bc0       ?equal_range@?$_Tree@V?$_Tmap_traits@KU_Friend@@U?$less@K@std@@V?$allocator@U?$pair@$$CBKU_Friend@@@std@@@3@$0A@@std@@@std@@QAE?AU?$pair@Viterator@?$_Tree@V?$_Tmap_traits@KU_Friend@@U?$less@K@std@@V?$allocator@U?$pair@$$CBKU_Friend@@@std@@@3@$0A@@std@@@std@@V123@@2@ABK@Z 00413bc0 f i DPCoreClient.obj
 0001:00012c30       ?SetString@?$CSimpleStringT@D$0A@@ATL@@QAEXPBD@Z 00413c30 f i DPCoreClient.obj
 0001:00012c70       ?Format@?$CStringT@DV?$StrTraitMFC@DV?$ChTraitsCRT@D@ATL@@@@@ATL@@QAAXPBDZZ 00413c70 f i DPCoreClient.obj
 0001:00012c90       ??$make_pair@KV?$CStringT@DV?$StrTraitMFC@DV?$ChTraitsCRT@D@ATL@@@@@ATL@@@std@@YA?AU?$pair@KV?$CStringT@DV?$StrTraitMFC@DV?$ChTraitsCRT@D@ATL@@@@@ATL@@@0@KV?$CStringT@DV?$StrTraitMFC@DV?$ChTraitsCRT@D@ATL@@@@@ATL@@@Z 00413c90 f i DPCoreClient.obj
 0001:00012d10       ?OnErrorParty@CDPCoreClient@@AAEXAAVCAr@@KKK@Z 00413d10 f   DPCoreClient.obj
 0001:00012d90       ?OnAddPartyMember@CDPCoreClient@@AAEXAAVCAr@@KKK@Z 00413d90 f   DPCoreClient.obj
 0001:000130e0       ?OnPartyChat@CDPCoreClient@@AAEXAAVCAr@@KKK@Z 004140e0 f   DPCoreClient.obj
 0001:00013240       ?OnCreateGuild@CDPCoreClient@@AAEXAAVCAr@@KKK@Z 00414240 f   DPCoreClient.obj
 0001:00013560       ?OnDestroyGuild@CDPCoreClient@@AAEXAAVCAr@@KKK@Z 00414560 f   DPCoreClient.obj
 0001:00013830       ?OnRemoveGuildMember@CDPCoreClient@@AAEXAAVCAr@@KKK@Z 00414830 f   DPCoreClient.obj
 0001:00013a90       ?OnAcptWar@CDPCoreClient@@AAEXAAVCAr@@KKK@Z 00414a90 f   DPCoreClient.obj
 0001:00013cd0       ?OnGuildContributionACK@CDPCoreClient@@AAEXAAVCAr@@KKK@Z 00414cd0 f   DPCoreClient.obj
 0001:00013da0       ?OnModifyVote@CDPCoreClient@@AAEXAAVCAr@@KKK@Z 00414da0 f   DPCoreClient.obj
 0001:00013ec0       ?OnAddVoteResultACk@CDPCoreClient@@AAEXAAVCAr@@KKK@Z 00414ec0 f   DPCoreClient.obj
 0001:00013ff0       ?OnGuildNoticeACk@CDPCoreClient@@AAEXAAVCAr@@KKK@Z 00414ff0 f   DPCoreClient.obj
 0001:000140d0       ?OnGuildAuthority@CDPCoreClient@@AAEXAAVCAr@@KKK@Z 004150d0 f   DPCoreClient.obj
 0001:000141a0       ?OnGuildPenya@CDPCoreClient@@AAEXAAVCAr@@KKK@Z 004151a0 f   DPCoreClient.obj
 0001:00014270       ?OnGuildRealPenya@CDPCoreClient@@AAEXAAVCAr@@KKK@Z 00415270 f   DPCoreClient.obj
 0001:00014340       ?OnGuildMsgControl@CDPCoreClient@@AAEXAAVCAr@@KKK@Z 00415340 f   DPCoreClient.obj
 0001:00014430       ?OnSetFriendState@CDPCoreClient@@AAEXAAVCAr@@KKK@Z 00415430 f   DPCoreClient.obj
 0001:000144b0       ?OnFriendInterceptState@CDPCoreClient@@AAEXAAVCAr@@KKK@Z 004154b0 f   DPCoreClient.obj
 0001:000145a0       ?OnPartyChangeLeader@CDPCoreClient@@AAEXAAVCAr@@KKK@Z 004155a0 f   DPCoreClient.obj
 0001:00014650       ?OnSetMonsterRespawn@CDPCoreClient@@AAEXAAVCAr@@KKK@Z 00415650 f   DPCoreClient.obj
 0001:00014910       ?OnSetPlayerName@CDPCoreClient@@AAEXAAVCAr@@KKK@Z 00415910 f   DPCoreClient.obj
 0001:00014b90       ?_Buynode@?$_Tree@V?$_Tmap_traits@KV?$CStringT@DV?$StrTraitMFC@DV?$ChTraitsCRT@D@ATL@@@@@ATL@@U?$less@K@std@@V?$allocator@U?$pair@$$CBKV?$CStringT@DV?$StrTraitMFC@DV?$ChTraitsCRT@D@ATL@@@@@ATL@@@std@@@4@$0A@@std@@@std@@IAEPAU_Node@?$_Tree_nod@V?$_Tmap_traits@KV?$CStringT@DV?$StrTraitMFC@DV?$ChTraitsCRT@D@ATL@@@@@ATL@@U?$less@K@std@@V?$allocator@U?$pair@$$CBKV?$CStringT@DV?$StrTraitMFC@DV?$ChTraitsCRT@D@ATL@@@@@ATL@@@std@@@4@$0A@@std@@@2@PAU342@00ABU?$pair@$$CBKV?$CStringT@DV?$StrTraitMFC@DV?$ChTraitsCRT@D@ATL@@@@@ATL@@@2@D@Z 00415b90 f i DPCoreClient.obj
 0001:00014c40       ??4?$CStringT@DV?$StrTraitMFC@DV?$ChTraitsCRT@D@ATL@@@@@ATL@@QAEAAV01@PBD@Z 00415c40 f i DPCoreClient.obj
 0001:00014c80       ?_Insert@?$_Tree@V?$_Tmap_traits@KP8CDPCoreClient@@AEXAAVCAr@@KKK@ZU?$less@K@std@@V?$allocator@U?$pair@$$CBKP8CDPCoreClient@@AEXAAVCAr@@KKK@Z@std@@@4@$0A@@std@@@std@@IAE?AViterator@12@_NPAU_Node@?$_Tree_nod@V?$_Tmap_traits@KP8CDPCoreClient@@AEXAAVCAr@@KKK@ZU?$less@K@std@@V?$allocator@U?$pair@$$CBKP8CDPCoreClient@@AEXAAVCAr@@KKK@Z@std@@@4@$0A@@std@@@2@ABU?$pair@$$CBKP8CDPCoreClient@@AEXAAVCAr@@KKK@Z@2@@Z 00415c80 f i DPCoreClient.obj
 0001:00014e30       ?_Insert@?$_Tree@V?$_Tmap_traits@KV?$CStringT@DV?$StrTraitMFC@DV?$ChTraitsCRT@D@ATL@@@@@ATL@@U?$less@K@std@@V?$allocator@U?$pair@$$CBKV?$CStringT@DV?$StrTraitMFC@DV?$ChTraitsCRT@D@ATL@@@@@ATL@@@std@@@4@$0A@@std@@@std@@IAE?AViterator@12@_NPAU_Node@?$_Tree_nod@V?$_Tmap_traits@KV?$CStringT@DV?$StrTraitMFC@DV?$ChTraitsCRT@D@ATL@@@@@ATL@@U?$less@K@std@@V?$allocator@U?$pair@$$CBKV?$CStringT@DV?$StrTraitMFC@DV?$ChTraitsCRT@D@ATL@@@@@ATL@@@std@@@4@$0A@@std@@@2@ABU?$pair@$$CBKV?$CStringT@DV?$StrTraitMFC@DV?$ChTraitsCRT@D@ATL@@@@@ATL@@@2@@Z 00415e30 f i DPCoreClient.obj
 0001:00014fe0       ?erase@?$_Tree@V?$_Tmap_traits@KU_Friend@@U?$less@K@std@@V?$allocator@U?$pair@$$CBKU_Friend@@@std@@@3@$0A@@std@@@std@@QAE?AViterator@12@V312@@Z 00415fe0 f i DPCoreClient.obj
 0001:000152a0       ?erase@?$_Tree@V?$_Tmap_traits@KP8CDPCoreClient@@AEXAAVCAr@@KKK@ZU?$less@K@std@@V?$allocator@U?$pair@$$CBKP8CDPCoreClient@@AEXAAVCAr@@KKK@Z@std@@@4@$0A@@std@@@std@@QAE?AViterator@12@V312@@Z 004162a0 f i DPCoreClient.obj
 0001:00015560       ?erase@?$_Tree@V?$_Tmap_traits@KV?$CStringT@DV?$StrTraitMFC@DV?$ChTraitsCRT@D@ATL@@@@@ATL@@U?$less@K@std@@V?$allocator@U?$pair@$$CBKV?$CStringT@DV?$StrTraitMFC@DV?$ChTraitsCRT@D@ATL@@@@@ATL@@@std@@@4@$0A@@std@@@std@@QAE?AViterator@12@V312@@Z 00416560 f i DPCoreClient.obj
 0001:00015840       ?_Erase@?$_Tree@V?$_Tmap_traits@KV?$CStringT@DV?$StrTraitMFC@DV?$ChTraitsCRT@D@ATL@@@@@ATL@@U?$less@K@std@@V?$allocator@U?$pair@$$CBKV?$CStringT@DV?$StrTraitMFC@DV?$ChTraitsCRT@D@ATL@@@@@ATL@@@std@@@4@$0A@@std@@@std@@IAEXPAU_Node@?$_Tree_nod@V?$_Tmap_traits@KV?$CStringT@DV?$StrTraitMFC@DV?$ChTraitsCRT@D@ATL@@@@@ATL@@U?$less@K@std@@V?$allocator@U?$pair@$$CBKV?$CStringT@DV?$StrTraitMFC@DV?$ChTraitsCRT@D@ATL@@@@@ATL@@@std@@@4@$0A@@std@@@2@@Z 00416840 f i DPCoreClient.obj
 0001:00015880       ??0?$CStringT@DV?$StrTraitMFC@DV?$ChTraitsCRT@D@ATL@@@@@ATL@@QAE@PBD@Z 00416880 f i DPCoreClient.obj
 0001:00015930       ?Format@CTime@ATL@@QBE?AV?$CStringT@DV?$StrTraitMFC@DV?$ChTraitsCRT@D@ATL@@@@@2@PBD@Z 00416930 f i DPCoreClient.obj
 0001:000159c0       ?OnPing@CDPCoreClient@@AAEXAAVCAr@@KKK@Z 004169c0 f   DPCoreClient.obj
 0001:00015aa0       ?insert@?$_Tree@V?$_Tmap_traits@KP8CDPCoreClient@@AEXAAVCAr@@KKK@ZU?$less@K@std@@V?$allocator@U?$pair@$$CBKP8CDPCoreClient@@AEXAAVCAr@@KKK@Z@std@@@4@$0A@@std@@@std@@QAE?AU?$pair@Viterator@?$_Tree@V?$_Tmap_traits@KP8CDPCoreClient@@AEXAAVCAr@@KKK@ZU?$less@K@std@@V?$allocator@U?$pair@$$CBKP8CDPCoreClient@@AEXAAVCAr@@KKK@Z@std@@@4@$0A@@std@@@std@@_N@2@ABU?$pair@$$CBKP8CDPCoreClient@@AEXAAVCAr@@KKK@Z@2@@Z 00416aa0 f i DPCoreClient.obj
 0001:00015b60       ?insert@?$_Tree@V?$_Tmap_traits@KV?$CStringT@DV?$StrTraitMFC@DV?$ChTraitsCRT@D@ATL@@@@@ATL@@U?$less@K@std@@V?$allocator@U?$pair@$$CBKV?$CStringT@DV?$StrTraitMFC@DV?$ChTraitsCRT@D@ATL@@@@@ATL@@@std@@@4@$0A@@std@@@std@@QAE?AU?$pair@Viterator@?$_Tree@V?$_Tmap_traits@KV?$CStringT@DV?$StrTraitMFC@DV?$ChTraitsCRT@D@ATL@@@@@ATL@@U?$less@K@std@@V?$allocator@U?$pair@$$CBKV?$CStringT@DV?$StrTraitMFC@DV?$ChTraitsCRT@D@ATL@@@@@ATL@@@std@@@4@$0A@@std@@@std@@_N@2@ABU?$pair@$$CBKV?$CStringT@DV?$StrTraitMFC@DV?$ChTraitsCRT@D@ATL@@@@@ATL@@@2@@Z 00416b60 f i DPCoreClient.obj
 0001:00015c20       ?erase@?$_Tree@V?$_Tmap_traits@KU_Friend@@U?$less@K@std@@V?$allocator@U?$pair@$$CBKU_Friend@@@std@@@3@$0A@@std@@@std@@QAE?AViterator@12@V312@0@Z 00416c20 f i DPCoreClient.obj
 0001:00015ce0       ?erase@?$_Tree@V?$_Tmap_traits@KP8CDPCoreClient@@AEXAAVCAr@@KKK@ZU?$less@K@std@@V?$allocator@U?$pair@$$CBKP8CDPCoreClient@@AEXAAVCAr@@KKK@Z@std@@@4@$0A@@std@@@std@@QAE?AViterator@12@V312@0@Z 00416ce0 f i DPCoreClient.obj
 0001:00015da0       ?erase@?$_Tree@V?$_Tmap_traits@KU_Friend@@U?$less@K@std@@V?$allocator@U?$pair@$$CBKU_Friend@@@std@@@3@$0A@@std@@@std@@QAEIABK@Z 00416da0 f i DPCoreClient.obj
 0001:00015e00       ?erase@?$_Tree@V?$_Tmap_traits@KV?$CStringT@DV?$StrTraitMFC@DV?$ChTraitsCRT@D@ATL@@@@@ATL@@U?$less@K@std@@V?$allocator@U?$pair@$$CBKV?$CStringT@DV?$StrTraitMFC@DV?$ChTraitsCRT@D@ATL@@@@@ATL@@@std@@@4@$0A@@std@@@std@@QAE?AViterator@12@V312@0@Z 00416e00 f i DPCoreClient.obj
 0001:00015ec0       ?OnRemovefriend@CDPCoreClient@@AAEXAAVCAr@@KKK@Z 00416ec0 f   DPCoreClient.obj
 0001:00015fa0       ??1?$map@KP8CDPCoreClient@@AEXAAVCAr@@KKK@ZU?$less@K@std@@V?$allocator@U?$pair@$$CBKP8CDPCoreClient@@AEXAAVCAr@@KKK@Z@std@@@4@@std@@QAE@XZ 00416fa0 f i DPCoreClient.obj
 0001:00015fd0       ??1CDPCoreClient@@UAE@XZ   00416fd0 f   DPCoreClient.obj
 0001:00016060       ??0CDPCoreClient@@QAE@XZ   00417060 f   DPCoreClient.obj
 0001:00016960       ??_GCDPCoreClient@@UAEPAXI@Z 00417960 f i DPCoreClient.obj
 0001:00016960       ??_ECDPCoreClient@@UAEPAXI@Z 00417960 f i DPCoreClient.obj
 0001:00016980       ??1?$map@KV?$CStringT@DV?$StrTraitMFC@DV?$ChTraitsCRT@D@ATL@@@@@ATL@@U?$less@K@std@@V?$allocator@U?$pair@$$CBKV?$CStringT@DV?$StrTraitMFC@DV?$ChTraitsCRT@D@ATL@@@@@ATL@@@std@@@4@@std@@QAE@XZ 00417980 f i DPCoreClient.obj
 0001:000169b0       ?UserMessageHandler@CDPCoreClient@@UAEXPAUDPMSG_GENERIC@@KK@Z 004179b0 f   DPCoreClient.obj
 0001:00016cd0       ??0__GUILDBANKLOG_ENTRY@@QAE@XZ 00417cd0 f i DPDatabaseClient.obj
 0001:00016cf0       ?IsMember@CGuild@@QAEHK@Z  00417cf0 f i DPDatabaseClient.obj
 0001:00016d10       ?IsInstanceDungeon@CInstanceDungeonHelper@@QAEHK@Z 00417d10 f i DPDatabaseClient.obj
 0001:00016d30       ?IsMember@CParty@@QAEHK@Z  00417d30 f i DPDatabaseClient.obj
 0001:00016d50       ?SetIncRestPoint@CUser@@QAEHH@Z 00417d50 f i DPDatabaseClient.obj
 0001:00016d90       ??0CTime@ATL@@QAE@HHHHHHH@Z 00417d90 f i DPDatabaseClient.obj
 0001:00016e10       ?SysMessageHandler@CDPCoreClient@@UAEXPAUDPMSG_GENERIC@@KK@Z 00417e10 f   DPCoreClient.obj
 0001:00016e10       ?SysMessageHandler@CDPDatabaseClient@@UAEXPAUDPMSG_GENERIC@@KK@Z 00417e10 f   DPDatabaseClient.obj
 0001:00016e10       ?RenderName@CItem@@UAEXPAUIDirect3DDevice9@@PAVCD3DFont@@K@Z 00417e10 f   Item.obj
 0001:00016e10       ?ChangeTexture@CModelObject@@QAEXHPBD0@Z 00417e10 f   modelobject.obj
 0001:00016e10       ?RenderName@CCommonCtrl@@UAEXPAUIDirect3DDevice9@@PAVCD3DFont@@K@Z 00417e10 f   CommonCtrl.obj
 0001:00016e10       ?RenderName@CObj@@UAEXPAUIDirect3DDevice9@@PAVCD3DFont@@K@Z 00417e10 f   Obj.obj
 0001:00016e20       ?OnContinueGC@CDPDatabaseClient@@AAEXAAVCAr@@KK@Z 00417e20 f   DPDatabaseClient.obj
 0001:00016e40       ?OnAllPlayerData@CDPDatabaseClient@@AAEXAAVCAr@@KK@Z 00417e40 f   DPDatabaseClient.obj
 0001:00016e60       ?OnEventLuaChanged@CDPDatabaseClient@@AAEXAAVCAr@@KK@Z 00417e60 f   DPDatabaseClient.obj
 0001:00016e90       ?OnGC1to1Open@CDPDatabaseClient@@AAEXAAVCAr@@KK@Z 00417e90 f   DPDatabaseClient.obj
 0001:00016ea0       ?OnElectionBeginCandidacy@CDPDatabaseClient@@AAEXAAVCAr@@KK@Z 00417ea0 f   DPDatabaseClient.obj
 0001:00016eb0       ?OnLord@CDPDatabaseClient@@AAEXAAVCAr@@KK@Z 00417eb0 f   DPDatabaseClient.obj
 0001:00016ee0       ?OnLEventInitialize@CDPDatabaseClient@@AAEXAAVCAr@@KK@Z 00417ee0 f   DPDatabaseClient.obj
 0001:00016f00       ?OnLEventTick@CDPDatabaseClient@@AAEXAAVCAr@@KK@Z 00417f00 f   DPDatabaseClient.obj
 0001:00016f40       ?OnProposeResult@CDPDatabaseClient@@QAEXAAVCAr@@KK@Z 00417f40 f   DPDatabaseClient.obj
 0001:00016f60       ?OnCoupleResult@CDPDatabaseClient@@QAEXAAVCAr@@KK@Z 00417f60 f   DPDatabaseClient.obj
 0001:00016f80       ?OnDecoupleResult@CDPDatabaseClient@@QAEXAAVCAr@@KK@Z 00417f80 f   DPDatabaseClient.obj
 0001:00016fa0       ?OnCouple@CDPDatabaseClient@@QAEXAAVCAr@@KK@Z 00417fa0 f   DPDatabaseClient.obj
 0001:00016fc0       ?OnAddCoupleExperience@CDPDatabaseClient@@QAEXAAVCAr@@KK@Z 00417fc0 f   DPDatabaseClient.obj
 0001:00016fe0       ?OnFunnyCoinAckUse@CDPDatabaseClient@@QAEXAAVCAr@@KK@Z 00417fe0 f   DPDatabaseClient.obj
 0001:00017000       ?OnQuizEventOpen@CDPDatabaseClient@@QAEXAAVCAr@@KK@Z 00418000 f   DPDatabaseClient.obj
 0001:00017010       ?OnQuizEventNotice@CDPDatabaseClient@@QAEXAAVCAr@@KK@Z 00418010 f   DPDatabaseClient.obj
 0001:00017020       ?OnQuizEventChanged@CDPDatabaseClient@@QAEXAAVCAr@@KK@Z 00418020 f   DPDatabaseClient.obj
 0001:00017050       ?OnLoadGuildHouse@CDPDatabaseClient@@QAEXAAVCAr@@KK@Z 00418050 f   DPDatabaseClient.obj
 0001:00017070       ?OnBuyGuildHouse@CDPDatabaseClient@@QAEXAAVCAr@@KK@Z 00418070 f   DPDatabaseClient.obj
 0001:00017090       ?OnRemoveGuildHouse@CDPDatabaseClient@@QAEXAAVCAr@@KK@Z 00418090 f   DPDatabaseClient.obj
 0001:000170b0       ?OnAllCampus@CDPDatabaseClient@@AAEXAAVCAr@@KK@Z 004180b0 f   DPDatabaseClient.obj
 0001:000170d0       ?OnAddCampusMember@CDPDatabaseClient@@AAEXAAVCAr@@KK@Z 004180d0 f   DPDatabaseClient.obj
 0001:000170f0       ?OnRemoveCampusMember@CDPDatabaseClient@@AAEXAAVCAr@@KK@Z 004180f0 f   DPDatabaseClient.obj
 0001:00017110       ?OnUpdateCampusPoint@CDPDatabaseClient@@AAEXAAVCAr@@KK@Z 00418110 f   DPDatabaseClient.obj
 0001:00017130       ?size@?$vector@VCRespawnInfo@@V?$allocator@VCRespawnInfo@@@std@@@std@@QBEIXZ 00418130 f i DPDatabaseClient.obj
 0001:00017150       ?size@?$vector@U__GC1TO1TENDER@CGuildCombat1to1Mng@@V?$allocator@U__GC1TO1TENDER@CGuildCombat1to1Mng@@@std@@@std@@QBEIXZ 00418150 f i DPDatabaseClient.obj
 0001:00017150       ?size@?$vector@VCGuildCombat1to1@@V?$allocator@VCGuildCombat1to1@@@std@@@std@@QBEIXZ 00418150 f i FuncTextCmd.obj
 0001:00017170       ?size@?$vector@U__SECRETROOM_TENDER@@V?$allocator@U__SECRETROOM_TENDER@@@std@@@std@@QBEIXZ 00418170 f i DPDatabaseClient.obj
 0001:00017190       ??$_Copy_opt@PAU__GCRESULTVALUEPLAYER@CGuildCombat@@PAU12@@std@@YAPAU__GCRESULTVALUEPLAYER@CGuildCombat@@PAU12@00U_Nonscalar_ptr_iterator_tag@0@@Z 00418190 f i DPDatabaseClient.obj
 0001:00017190       ??$_Copy_opt@PAU__GCRESULTVALUEGUILD@CGuildCombat@@PAU12@@std@@YAPAU__GCRESULTVALUEGUILD@CGuildCombat@@PAU12@00U_Nonscalar_ptr_iterator_tag@0@@Z 00418190 f i DPDatabaseClient.obj
 0001:000171e0       ??0_LogItemInfo@@QAE@XZ    004181e0 f i DPDatabaseClient.obj
 0001:000172d0       ?VecInWorld@CWorld@@QAEHMM@Z 004182d0 f i DPDatabaseClient.obj
 0001:00017380       ?VecInWorld@CWorld@@QAEHABUD3DXVECTOR3@@@Z 00418380 f i DPDatabaseClient.obj
 0001:000173c0       ?size@?$vector@U_COUPLE_ITEM@@V?$allocator@U_COUPLE_ITEM@@@std@@@std@@QBEIXZ 004183c0 f i couple.obj
 0001:000173c0       ?size@?$vector@U_QUIZLIST@CQuiz@@V?$allocator@U_QUIZLIST@CQuiz@@@std@@@std@@QBEIXZ 004183c0 f i Quiz.obj
 0001:000173c0       ?size@?$vector@UINSTACNEDUNGEON_INFO@@V?$allocator@UINSTACNEDUNGEON_INFO@@@std@@@std@@QBEIXZ 004183c0 f i InstanceDungeonBase.obj
 0001:000173c0       ?size@?$vector@U__SPAWNREGION@CEventLua@@V?$allocator@U__SPAWNREGION@CEventLua@@@std@@@std@@QBEIXZ 004183c0 f i DPDatabaseClient.obj
 0001:000173c0       ?size@?$vector@U__GEMABILITYKIND@CUltimateWeapon@@V?$allocator@U__GEMABILITYKIND@CUltimateWeapon@@@std@@@std@@QBEIXZ 004183c0 f i UltimateWeapon.obj
 0001:000173c0       ?size@?$vector@U_NPC_BUFF_SKILL@@V?$allocator@U_NPC_BUFF_SKILL@@@std@@@std@@QBEIXZ 004183c0 f i DPSrvr.obj
 0001:000173e0       ?GetAt@?$CFixedArray@UQuestProp@@@@QAEPAUQuestProp@@K@Z 004183e0 f i DPDatabaseClient.obj
 0001:00017400       ?GetAtId@?$CItemContainer@VCItemElem@@@@QAEPAVCItemElem@@K@Z 00418400 f i DPDatabaseClient.obj
 0001:00017430       ??$fill@PAU_COUPLE_ITEM@@U1@@std@@YAXPAU_COUPLE_ITEM@@0ABU1@@Z 00418430 f i couple.obj
 0001:00017430       ??$fill@PAU_NPC_BUFF_SKILL@@U1@@std@@YAXPAU_NPC_BUFF_SKILL@@0ABU1@@Z 00418430 f i Project.obj
 0001:00017430       ??$fill@PAUINSTACNEDUNGEON_INFO@@U1@@std@@YAXPAUINSTACNEDUNGEON_INFO@@0ABU1@@Z 00418430 f i InstanceDungeonBase.obj
 0001:00017430       ??$fill@PAU__SPAWNREGION@CEventLua@@U12@@std@@YAXPAU__SPAWNREGION@CEventLua@@0ABU12@@Z 00418430 f i DPDatabaseClient.obj
 0001:00017470       ?Serialize@CGuildRank@@QAEXAAVCAr@@@Z 00418470 f i DPDatabaseClient.obj
 0001:00017550       ?OnAddPlayerData@CDPDatabaseClient@@AAEXAAVCAr@@KK@Z 00418550 f   DPDatabaseClient.obj
 0001:000175d0       ?OnDeletePlayerData@CDPDatabaseClient@@AAEXAAVCAr@@KK@Z 004185d0 f   DPDatabaseClient.obj
 0001:00017610       ?OnUpdatePlayerData@CDPDatabaseClient@@AAEXAAVCAr@@KK@Z 00418610 f   DPDatabaseClient.obj
 0001:00017690       ?OnUpdateGuildRankingFinish@CDPDatabaseClient@@AAEXAAVCAr@@KK@Z 00418690 f   DPDatabaseClient.obj
 0001:000176b0       ?OnMailBox@CDPDatabaseClient@@QAEXAAVCAr@@KK@Z 004186b0 f   DPDatabaseClient.obj
 0001:00017730       ?OnElectionEndVote@CDPDatabaseClient@@AAEXAAVCAr@@KK@Z 00418730 f   DPDatabaseClient.obj
 0001:00017780       ?OnLordSkillTick@CDPDatabaseClient@@AAEXAAVCAr@@KK@Z 00418780 f   DPDatabaseClient.obj
 0001:000177e0       ?compare@?$basic_string@DU?$char_traits@D@std@@V?$allocator@D@2@@std@@QBEHIIPBDI@Z 004187e0 f i DPDatabaseClient.obj
 0001:00017860       ?Serialize@?$CItemContainer@VCItemElem@@@@QAEXAAVCAr@@@Z 00418860 f i DPDatabaseClient.obj
 0001:00017a30       ??$copy@PAHPAH@std@@YAPAHPAH00@Z 00418a30 f i couple.obj
 0001:00017a30       ??$copy@PAKPAK@std@@YAPAKPAK00@Z 00418a30 f i DPDatabaseClient.obj
 0001:00017a60       ??$copy@PAU__SECRETROOM_MONSTER@@PAU1@@std@@YAPAU__SECRETROOM_MONSTER@@PAU1@00@Z 00418a60 f i DPDatabaseClient.obj
 0001:00017a60       ??$copy@Viterator@?$vector@U__SECRETROOM_MONSTER@@V?$allocator@U__SECRETROOM_MONSTER@@@std@@@std@@PAU__SECRETROOM_MONSTER@@@std@@YAPAU__SECRETROOM_MONSTER@@Viterator@?$vector@U__SECRETROOM_MONSTER@@V?$allocator@U__SECRETROOM_MONSTER@@@std@@@0@0PAU1@@Z 00418a60 f i SecretRoom.obj
 0001:00017a90       ?IsTransformVisPet@CItemElem@@QAEHXZ 00418a90 f i DPDatabaseClient.obj
 0001:00017b10       ?GetPropA@CItem@@QAEPAUItemProp@@XZ 00418b10 f i DPDatabaseClient.obj
 0001:00017b50       ??5CAr@@QAEAAV0@AAF@Z      00418b50 f i DPDatabaseClient.obj
 0001:00017b90       ?Serialize@HOUSINGINFO@@QAEXAAVCAr@@@Z 00418b90 f i DPDatabaseClient.obj
 0001:00017cf0       ?SavePlayer@CDPDatabaseClient@@QAEXPAVCUser@@KAAUD3DXVECTOR3@@HH@Z 00418cf0 f   DPDatabaseClient.obj
 0001:00018050       ?SendRecommend@CDPDatabaseClient@@QAEXPAVCUser@@H@Z 00419050 f   DPDatabaseClient.obj
 0001:000181e0       ?SendITEM_TBL_Update@CDPDatabaseClient@@QAEXXZ 004191e0 f   DPDatabaseClient.obj
 0001:00018370       ?SendPreventLogin@CDPDatabaseClient@@QAEXPBDK@Z 00419370 f   DPDatabaseClient.obj
 0001:000184b0       ?SendLogConnect@CDPDatabaseClient@@QAEXPAVCUser@@@Z 004194b0 f   DPDatabaseClient.obj
 0001:000186d0       ?SendInGuildCombat@CDPDatabaseClient@@QAEXKKK@Z 004196d0 f   DPDatabaseClient.obj
 0001:00018830       ?SendOutGuildCombat@CDPDatabaseClient@@QAEXK@Z 00419830 f   DPDatabaseClient.obj
 0001:00018950       ?SendGuildCombatStart@CDPDatabaseClient@@QAEXXZ 00419950 f   DPDatabaseClient.obj
 0001:00018a50       ?SendGuildcombatContinue@CDPDatabaseClient@@QAEXHKH@Z 00419a50 f   DPDatabaseClient.obj
 0001:00018bb0       ?SendGCGetPenyaGuild@CDPDatabaseClient@@QAEXKHK@Z 00419bb0 f   DPDatabaseClient.obj
 0001:00018d10       ?SendGCGetPenyaPlayer@CDPDatabaseClient@@QAEXKHK@Z 00419d10 f   DPDatabaseClient.obj
 0001:00018e70       ?SendUpdatePlayerData@CDPDatabaseClient@@QAEXPAVCUser@@@Z 00419e70 f   DPDatabaseClient.obj
 0001:00018fd0       ?OnGMChat@CDPDatabaseClient@@AAEXAAVCAr@@KK@Z 00419fd0 f   DPDatabaseClient.obj
 0001:00019030       ?SendLogPlayDeath@CDPDatabaseClient@@QAEXPAVCMover@@0@Z 0041a030 f   DPDatabaseClient.obj
 0001:00019250       ?SendLogSkillPoint@CDPDatabaseClient@@QAEXHHPAVCMover@@PAUtagSkill@@@Z 0041a250 f   DPDatabaseClient.obj
 0001:00019470       ?SendLogExpBox@CDPDatabaseClient@@QAEXKK_JH@Z 0041a470 f   DPDatabaseClient.obj
 0001:00019600       ?SendLogLevelUp@CDPDatabaseClient@@QAEXPAVCMover@@H@Z 0041a600 f   DPDatabaseClient.obj
 0001:00019900       ?SendLogGamemaChat@CDPDatabaseClient@@QAEXPAVCUser@@PBD@Z 0041a900 f   DPDatabaseClient.obj
 0001:00019a40       ?SendLogSMItemUse@CDPDatabaseClient@@QAEXPBDPAVCUser@@PAVCItemElem@@PAUItemProp@@0@Z 0041aa40 f   DPDatabaseClient.obj
 0001:0001a150       ?SendChangeBankPass@CDPDatabaseClient@@QAEXPBD0K@Z 0041b150 f   DPDatabaseClient.obj
 0001:0001a2a0       ?SendLogGetHonorTime@CDPDatabaseClient@@QAEXPAVCMover@@H@Z 0041b2a0 f   DPDatabaseClient.obj
 0001:0001a3f0       ?SendLogUniqueItem2@CDPDatabaseClient@@QAEXPAVCMover@@PAUItemProp@@H@Z 0041b3f0 f   DPDatabaseClient.obj
 0001:0001a610       ?SendLogPkPvp@CDPDatabaseClient@@QAEXPAVCMover@@0HD@Z 0041b610 f   DPDatabaseClient.obj
 0001:0001a9a0       ?SendLogSchool@CDPDatabaseClient@@QAEXKPBD@Z 0041b9a0 f   DPDatabaseClient.obj
 0001:0001aae0       ?SendGuildGetPay@CDPDatabaseClient@@QAEXKKK@Z 0041bae0 f   DPDatabaseClient.obj
 0001:0001ac40       ?SendGuildContribution@CDPDatabaseClient@@QAEXAAUCONTRIBUTION_CHANGED_INFO@@EJ@Z 0041bc40 f   DPDatabaseClient.obj
 0001:0001ada0       ?SendQueryGuildBank@CDPDatabaseClient@@QAEXXZ 0041bda0 f   DPDatabaseClient.obj
 0001:0001aea0       ?UpdateGuildRanking@CDPDatabaseClient@@QAEXXZ 0041bea0 f   DPDatabaseClient.obj
 0001:0001afc0       ?UpdateGuildRankingUpdate@CDPDatabaseClient@@QAEXXZ 0041bfc0 f   DPDatabaseClient.obj
 0001:0001b0e0       ?OnGuildBank@CDPDatabaseClient@@AAEXAAVCAr@@KK@Z 0041c0e0 f   DPDatabaseClient.obj
 0001:0001b200       ?SendQueryGuildQuest@CDPDatabaseClient@@QAEXXZ 0041c200 f   DPDatabaseClient.obj
 0001:0001b300       ?SendInsertGuildQuest@CDPDatabaseClient@@QAEXKH@Z 0041c300 f   DPDatabaseClient.obj
 0001:0001b440       ?SendUpdateGuildQuest@CDPDatabaseClient@@QAEXKHH@Z 0041c440 f   DPDatabaseClient.obj
 0001:0001b5a0       ?OnQueryGuildQuest@CDPDatabaseClient@@AAEXAAVCAr@@KK@Z 0041c5a0 f   DPDatabaseClient.obj
 0001:0001b700       ?SendQuerySetPlayerName@CDPDatabaseClient@@QAEXKPBDK@Z 0041c700 f   DPDatabaseClient.obj
 0001:0001b860       ?SendPing@CDPDatabaseClient@@QAEXXZ 0041c860 f   DPDatabaseClient.obj
 0001:0001b9c0       ?SendQueryMailBox@CDPDatabaseClient@@QAEXK@Z 0041c9c0 f   DPDatabaseClient.obj
 0001:0001bae0       ?SendQueryMailBoxReq@CDPDatabaseClient@@QAEXK@Z 0041cae0 f   DPDatabaseClient.obj
 0001:0001bc00       ?SendQueryMailBoxCount@CDPDatabaseClient@@QAEXKH@Z 0041cc00 f   DPDatabaseClient.obj
 0001:0001bd40       ?OnMailBoxReq@CDPDatabaseClient@@QAEXAAVCAr@@KK@Z 0041cd40 f   DPDatabaseClient.obj
 0001:0001bef0       ?SendQueryPostMail@CDPDatabaseClient@@QAEXKKAAVCItemElem@@HPAD1@Z 0041cef0 f   DPDatabaseClient.obj
 0001:0001c0c0       ?SendQueryRemoveMail@CDPDatabaseClient@@QAEXKK@Z 0041d0c0 f   DPDatabaseClient.obj
 0001:0001c200       ?SendQueryGetMailItem@CDPDatabaseClient@@QAEXKK@Z 0041d200 f   DPDatabaseClient.obj
 0001:0001c370       ?SendQueryGetMailGold@CDPDatabaseClient@@QAEXKK@Z 0041d370 f   DPDatabaseClient.obj
 0001:0001c4e0       ?SendQueryReadMail@CDPDatabaseClient@@QAEXKK@Z 0041d4e0 f   DPDatabaseClient.obj
 0001:0001c620       ?OnAllMail@CDPDatabaseClient@@QAEXAAVCAr@@KK@Z 0041d620 f   DPDatabaseClient.obj
 0001:0001c660       ?SendQueryRemoveGuildBankTbl@CDPDatabaseClient@@AAEXHK@Z 0041d660 f   DPDatabaseClient.obj
 0001:0001c7a0       ?OnEventStateLua@CDPDatabaseClient@@AAEXAAVCAr@@KK@Z 0041d7a0 f   DPDatabaseClient.obj
 0001:0001c860       ?CalluspLoggingQuest@CDPDatabaseClient@@QAEXKHHPBD@Z 0041d860 f   DPDatabaseClient.obj
 0001:0001c9d0       ?CalluspXXXMultiServer@CDPDatabaseClient@@QAEXKPAVCUser@@@Z 0041d9d0 f   DPDatabaseClient.obj
 0001:0001cb40       ?CalluspPetLog@CDPDatabaseClient@@QAEXKKKHPAVCPet@@@Z 0041db40 f   DPDatabaseClient.obj
 0001:0001cce0       ?SendEventLuaChanged@CDPDatabaseClient@@QAEXXZ 0041dce0 f   DPDatabaseClient.obj
 0001:0001cde0       ?SendGC1to1StateToDBSrvr@CDPDatabaseClient@@QAEXXZ 0041dde0 f   DPDatabaseClient.obj
 0001:0001cf10       ?SendGC1to1Tender@CDPDatabaseClient@@QAEXDKHD@Z 0041df10 f   DPDatabaseClient.obj
 0001:0001d090       ?SendGC1to1WarPerson@CDPDatabaseClient@@QAEXKKD@Z 0041e090 f   DPDatabaseClient.obj
 0001:0001d1f0       ?SendGC1to1WarGuild@CDPDatabaseClient@@QAEXKKKD@Z 0041e1f0 f   DPDatabaseClient.obj
 0001:0001d370       ?SendQueryGetGuildBankLogList@CDPDatabaseClient@@QAEXKKE@Z 0041e370 f   DPDatabaseClient.obj
 0001:0001d500       ?OnGuildBankLogViewFromDB@CDPDatabaseClient@@AAEXAAVCAr@@KK@Z 0041e500 f   DPDatabaseClient.obj
 0001:0001d680       ?SendQueryGetSealChar@CDPDatabaseClient@@QAEXKPBD@Z 0041e680 f   DPDatabaseClient.obj
 0001:0001d7e0       ?SendQueryGetSealCharConm@CDPDatabaseClient@@QAEXK@Z 0041e7e0 f   DPDatabaseClient.obj
 0001:0001d930       ?OnSealCharFromDB@CDPDatabaseClient@@AAEXAAVCAr@@KK@Z 0041e930 f   DPDatabaseClient.obj
 0001:0001da70       ?SendQueryGetSealCharGet@CDPDatabaseClient@@QAEXKPBDK@Z 0041ea70 f   DPDatabaseClient.obj
 0001:0001dbf0       ?SendQueryGetSealCharSet@CDPDatabaseClient@@QAEXKPBDJK@Z 0041ebf0 f   DPDatabaseClient.obj
 0001:0001dd90       ?OnSealCharGetFromDB@CDPDatabaseClient@@AAEXAAVCAr@@KK@Z 0041ed90 f   DPDatabaseClient.obj
 0001:0001e060       ?OnElectionIncVote@CDPDatabaseClient@@AAEXAAVCAr@@KK@Z 0041f060 f   DPDatabaseClient.obj
 0001:0001e170       ?OnElectionBeginVote@CDPDatabaseClient@@AAEXAAVCAr@@KK@Z 0041f170 f   DPDatabaseClient.obj
 0001:0001e1c0       ?OnLEventCreate@CDPDatabaseClient@@AAEXAAVCAr@@KK@Z 0041f1c0 f   DPDatabaseClient.obj
 0001:0001e2a0       ?OnLordSkillUse@CDPDatabaseClient@@AAEXAAVCAr@@KK@Z 0041f2a0 f   DPDatabaseClient.obj
 0001:0001e390       ?SendElectionAddDeposit@CDPDatabaseClient@@QAEXK_J@Z 0041f390 f   DPDatabaseClient.obj
 0001:0001e4e0       ?SendElectionSetPledge@CDPDatabaseClient@@QAEXKPBD@Z 0041f4e0 f   DPDatabaseClient.obj
 0001:0001e620       ?SendElectionIncVote@CDPDatabaseClient@@QAEXKK@Z 0041f620 f   DPDatabaseClient.obj
 0001:0001e760       ?SendLEventCreate@CDPDatabaseClient@@QAEXKHH@Z 0041f760 f   DPDatabaseClient.obj
 0001:0001e8c0       ?SendLordSkillUse@CDPDatabaseClient@@QAEXKKH@Z 0041f8c0 f   DPDatabaseClient.obj
 0001:0001ea20       ?SendLEventInitialize@CDPDatabaseClient@@QAEXXZ 0041fa20 f   DPDatabaseClient.obj
 0001:0001eb20       ?SendElectionProcess@CDPDatabaseClient@@QAEXH@Z 0041fb20 f   DPDatabaseClient.obj
 0001:0001ec40       ?SendElectionBeginCandidacy@CDPDatabaseClient@@QAEXXZ 0041fc40 f   DPDatabaseClient.obj
 0001:0001ed40       ?SendElectionBeginVote@CDPDatabaseClient@@QAEXXZ 0041fd40 f   DPDatabaseClient.obj
 0001:0001ee40       ?SendElectionBeginEndVote@CDPDatabaseClient@@QAEXXZ 0041fe40 f   DPDatabaseClient.obj
 0001:0001ef40       ?SendSecretRoomWinGuild@CDPDatabaseClient@@QAEXEK@Z 0041ff40 f   DPDatabaseClient.obj
 0001:0001f080       ?SendTaxRate@CDPDatabaseClient@@QAEXEHH@Z 00420080 f   DPDatabaseClient.obj
 0001:0001f1e0       ?SendApplyTaxRateNow@CDPDatabaseClient@@QAEXXZ 004201e0 f   DPDatabaseClient.obj
 0001:0001f2e0       ?SendAddTax@CDPDatabaseClient@@QAEXEHE@Z 004202e0 f   DPDatabaseClient.obj
 0001:0001f440       ?SendSecretRoomInsertToDB@CDPDatabaseClient@@QAEXEAAU__SECRETROOM_TENDER@@@Z 00420440 f   DPDatabaseClient.obj
 0001:0001f5b0       ?SendSecretRoomUpdateToDB@CDPDatabaseClient@@QAEXEAAU__SECRETROOM_TENDER@@D@Z 004205b0 f   DPDatabaseClient.obj
 0001:0001f7a0       ?SendSecretRoomClosed@CDPDatabaseClient@@QAEXXZ 004207a0 f   DPDatabaseClient.obj
 0001:0001f8a0       ?SendRainbowRaceReqLoad@CDPDatabaseClient@@QAEXXZ 004208a0 f   DPDatabaseClient.obj
 0001:0001f9a0       ?SendRainbowRaceApplication@CDPDatabaseClient@@QAEXK@Z 004209a0 f   DPDatabaseClient.obj
 0001:0001fac0       ?SendRainbowRaceFailedUser@CDPDatabaseClient@@QAEXK@Z 00420ac0 f   DPDatabaseClient.obj
 0001:0001fbe0       ?SendRainbowRaceRanking@CDPDatabaseClient@@QAEXKH@Z 00420be0 f   DPDatabaseClient.obj
 0001:0001fd20       ?OnHousingSetFunitureList@CDPDatabaseClient@@QAEXAAVCAr@@KK@Z 00420d20 f   DPDatabaseClient.obj
 0001:0001fdc0       ?OnHousingSetupFuniture@CDPDatabaseClient@@QAEXAAVCAr@@KK@Z 00420dc0 f   DPDatabaseClient.obj
 0001:0001fe40       ?OnHousingSetVisitAllow@CDPDatabaseClient@@QAEXAAVCAr@@KK@Z 00420e40 f   DPDatabaseClient.obj
 0001:0001feb0       ?SendPropose@CDPDatabaseClient@@QAEXKK@Z 00420eb0 f   DPDatabaseClient.obj
 0001:0001fff0       ?SendCouple@CDPDatabaseClient@@QAEXKK@Z 00420ff0 f   DPDatabaseClient.obj
 0001:00020130       ?SendDecouple@CDPDatabaseClient@@QAEXK@Z 00421130 f   DPDatabaseClient.obj
 0001:00020250       ?SendClearPropose@CDPDatabaseClient@@QAEXXZ 00421250 f   DPDatabaseClient.obj
 0001:00020350       ?SendQueryAddCoupleExperience@CDPDatabaseClient@@QAEXKH@Z 00421350 f   DPDatabaseClient.obj
 0001:00020490       ?SendFunnyCoinReqUse@CDPDatabaseClient@@QAEXKPAVCItemElem@@@Z 00421490 f   DPDatabaseClient.obj
 0001:00020600       ?OnPCBangToggle@CDPDatabaseClient@@QAEXAAVCAr@@KK@Z 00421600 f   DPDatabaseClient.obj
 0001:00020640       ?SendLogInstanceDungeon@CDPDatabaseClient@@QAEXKKKHD@Z 00421640 f   DPDatabaseClient.obj
 0001:000207e0       ?SendQuizEventOpen@CDPDatabaseClient@@QAEXH@Z 004217e0 f   DPDatabaseClient.obj
 0001:00020900       ?SendQuizEventState@CDPDatabaseClient@@QAEXHHHH@Z 00421900 f   DPDatabaseClient.obj
 0001:00020a80       ?SendQuizEventEntrance@CDPDatabaseClient@@QAEXKH@Z 00421a80 f   DPDatabaseClient.obj
 0001:00020bc0       ?SendQuizEventSelect@CDPDatabaseClient@@QAEXKHHHH@Z 00421bc0 f   DPDatabaseClient.obj
 0001:00020d60       ?SendPostPrizeItem@CDPDatabaseClient@@QAEXKKH@Z 00421d60 f   DPDatabaseClient.obj
 0001:00020ec0       ?OnGuildHousePacket@CDPDatabaseClient@@QAEXAAVCAr@@KK@Z 00421ec0 f   DPDatabaseClient.obj
 0001:00020fe0       ?SendLogGuildFurniture@CDPDatabaseClient@@QAEXKAAUGuildHouse_Furniture_Info@CGuildHouseBase@@D@Z 00421fe0 f   DPDatabaseClient.obj
 0001:00021130       ?SendAddCampusMember@CDPDatabaseClient@@QAEXKHKH@Z 00422130 f   DPDatabaseClient.obj
 0001:000212b0       ?SendRemoveCampusMember@CDPDatabaseClient@@QAEXKK@Z 004222b0 f   DPDatabaseClient.obj
 0001:000213f0       ?SendUpdateCampusPoint@CDPDatabaseClient@@QAEXKHHD@Z 004223f0 f   DPDatabaseClient.obj
 0001:00021570       ?_Erase@?$_Tree@V?$_Tmap_traits@KP8CDPDatabaseClient@@AEXAAVCAr@@KK@ZU?$less@K@std@@V?$allocator@U?$pair@$$CBKP8CDPDatabaseClient@@AEXAAVCAr@@KK@Z@std@@@4@$0A@@std@@@std@@IAEXPAU_Node@?$_Tree_nod@V?$_Tmap_traits@KP8CDPDatabaseClient@@AEXAAVCAr@@KK@ZU?$less@K@std@@V?$allocator@U?$pair@$$CBKP8CDPDatabaseClient@@AEXAAVCAr@@KK@Z@std@@@4@$0A@@std@@@2@@Z 00422570 f i DPDatabaseClient.obj
 0001:000215b0       ??$_Uninit_fill_n@PAU__GCRESULTVALUEPLAYER@CGuildCombat@@IU12@V?$allocator@U__GCRESULTVALUEPLAYER@CGuildCombat@@@std@@@std@@YAXPAU__GCRESULTVALUEPLAYER@CGuildCombat@@IABU12@AAV?$allocator@U__GCRESULTVALUEPLAYER@CGuildCombat@@@0@U_Nonscalar_ptr_iterator_tag@0@@Z 004225b0 f i DPDatabaseClient.obj
 0001:000215b0       ??$_Uninit_fill_n@PAUMONSTER@DUNGEON_DATA@CInstanceDungeonBase@@IU123@V?$allocator@UMONSTER@DUNGEON_DATA@CInstanceDungeonBase@@@std@@@std@@YAXPAUMONSTER@DUNGEON_DATA@CInstanceDungeonBase@@IABU123@AAV?$allocator@UMONSTER@DUNGEON_DATA@CInstanceDungeonBase@@@0@U_Nonscalar_ptr_iterator_tag@0@@Z 004225b0 f i InstanceDungeonBase.obj
 0001:000215b0       ??$_Uninit_fill_n@PAU__GCRESULTVALUEGUILD@CGuildCombat@@IU12@V?$allocator@U__GCRESULTVALUEGUILD@CGuildCombat@@@std@@@std@@YAXPAU__GCRESULTVALUEGUILD@CGuildCombat@@IABU12@AAV?$allocator@U__GCRESULTVALUEGUILD@CGuildCombat@@@0@U_Nonscalar_ptr_iterator_tag@0@@Z 004225b0 f i DPDatabaseClient.obj
 0001:000215b0       ??$_Uninit_fill_n@PAUtagDROPITEM@@IU1@V?$allocator@UtagDROPITEM@@@std@@@std@@YAXPAUtagDROPITEM@@IABU1@AAV?$allocator@UtagDROPITEM@@@0@U_Nonscalar_ptr_iterator_tag@0@@Z 004225b0 f i Project.obj
 0001:000215b0       ??$_Uninit_fill_n@PAU__JOINPLAYER@CGuildCombat@@IU12@V?$allocator@U__JOINPLAYER@CGuildCombat@@@std@@@std@@YAXPAU__JOINPLAYER@CGuildCombat@@IABU12@AAV?$allocator@U__JOINPLAYER@CGuildCombat@@@0@U_Nonscalar_ptr_iterator_tag@0@@Z 004225b0 f i eveschool.obj
 0001:00021600       ?SendLogUniqueItem@CDPDatabaseClient@@QAEXPAVCMover@@PAVCItem@@H@Z 00422600 f   DPDatabaseClient.obj
 0001:00021670       ?OnEventGeneric@CDPDatabaseClient@@AAEXAAVCAr@@KK@Z 00422670 f   DPDatabaseClient.obj
 0001:00021750       ?OnEventFlag@CDPDatabaseClient@@AAEXAAVCAr@@KK@Z 00422750 f   DPDatabaseClient.obj
 0001:000218e0       ?SendGC1to1LineUp@CDPDatabaseClient@@QAEXKAAV?$vector@KV?$allocator@K@std@@@std@@@Z 004228e0 f   DPDatabaseClient.obj
 0001:00021a70       ?SendSecretRoomInsertLineUpToDB@CDPDatabaseClient@@QAEXEAAU__SECRETROOM_TENDER@@@Z 00422a70 f   DPDatabaseClient.obj
 0001:00021c20       ??1?$pair@HV?$CStringT@DV?$StrTraitMFC@DV?$ChTraitsCRT@D@ATL@@@@@ATL@@@std@@QAE@XZ 00422c20 f i MiniGame.obj
 0001:00021c20       ??1?$pair@$$CBHV?$CStringT@DV?$StrTraitMFC@DV?$ChTraitsCRT@D@ATL@@@@@ATL@@@std@@QAE@XZ 00422c20 f i MiniGame.obj
 0001:00021c20       ??1?$pair@KV?$CStringT@DV?$StrTraitMFC@DV?$ChTraitsCRT@D@ATL@@@@@ATL@@@std@@QAE@XZ 00422c20 f i DPCoreClient.obj
 0001:00021c20       ??1_QUIZLIST@CQuiz@@QAE@XZ 00422c20 f i DPDatabaseClient.obj
 0001:00021c20       ??1?$pair@$$CBKV?$CStringT@DV?$StrTraitMFC@DV?$ChTraitsCRT@D@ATL@@@@@ATL@@@std@@QAE@XZ 00422c20 f i DPCoreClient.obj
 0001:00021c30       ??$_Ucopy@PAU__SECRETROOM_MONSTER@@@?$vector@U__SECRETROOM_MONSTER@@V?$allocator@U__SECRETROOM_MONSTER@@@std@@@std@@IAEPAU__SECRETROOM_MONSTER@@PAU2@00@Z 00422c30 f i DPDatabaseClient.obj
 0001:00021c50       ??R?$less@V?$basic_string@DU?$char_traits@D@std@@V?$allocator@D@2@@std@@@std@@QBE_NABV?$basic_string@DU?$char_traits@D@std@@V?$allocator@D@2@@1@0@Z 00422c50 f i DPDatabaseClient.obj
 0001:00021c90       ?_Ufill@?$vector@U_NPC_BUFF_SKILL@@V?$allocator@U_NPC_BUFF_SKILL@@@std@@@std@@IAEPAU_NPC_BUFF_SKILL@@PAU3@IABU3@@Z 00422c90 f i Project.obj
 0001:00021c90       ?_Ufill@?$vector@U__SPAWNREGION@CEventLua@@V?$allocator@U__SPAWNREGION@CEventLua@@@std@@@std@@IAEPAU__SPAWNREGION@CEventLua@@PAU34@IABU34@@Z 00422c90 f i DPDatabaseClient.obj
 0001:00021c90       ?_Ufill@?$vector@UINSTACNEDUNGEON_INFO@@V?$allocator@UINSTACNEDUNGEON_INFO@@@std@@@std@@IAEPAUINSTACNEDUNGEON_INFO@@PAU3@IABU3@@Z 00422c90 f i InstanceDungeonBase.obj
 0001:00021c90       ?_Ufill@?$vector@U_COUPLE_ITEM@@V?$allocator@U_COUPLE_ITEM@@@std@@@std@@IAEPAU_COUPLE_ITEM@@PAU3@IABU3@@Z 00422c90 f i couple.obj
 0001:00021cc0       ?SendGuildCombatResult@CDPDatabaseClient@@QAEXXZ 00422cc0 f   DPDatabaseClient.obj
 0001:00022390       ??1__GC1TO1TENDER@CGuildCombat1to1Mng@@QAE@XZ 00423390 f i DPDatabaseClient.obj
 0001:000223c0       ?Replace@?$CStringT@DV?$StrTraitMFC@DV?$ChTraitsCRT@D@ATL@@@@@ATL@@QAEHPBD0@Z 004233c0 f i DPDatabaseClient.obj
 0001:000225c0       ?_Ufill@?$vector@U__GCRESULTVALUEPLAYER@CGuildCombat@@V?$allocator@U__GCRESULTVALUEPLAYER@CGuildCombat@@@std@@@std@@IAEPAU__GCRESULTVALUEPLAYER@CGuildCombat@@PAU34@IABU34@@Z 004235c0 f i DPDatabaseClient.obj
 0001:000225c0       ?_Ufill@?$vector@UMONSTER@DUNGEON_DATA@CInstanceDungeonBase@@V?$allocator@UMONSTER@DUNGEON_DATA@CInstanceDungeonBase@@@std@@@std@@IAEPAUMONSTER@DUNGEON_DATA@CInstanceDungeonBase@@PAU345@IABU345@@Z 004235c0 f i InstanceDungeonBase.obj
 0001:000225c0       ?_Ufill@?$vector@U__GCRESULTVALUEGUILD@CGuildCombat@@V?$allocator@U__GCRESULTVALUEGUILD@CGuildCombat@@@std@@@std@@IAEPAU__GCRESULTVALUEGUILD@CGuildCombat@@PAU34@IABU34@@Z 004235c0 f i DPDatabaseClient.obj
 0001:000225c0       ?_Ufill@?$vector@U__JOINPLAYER@CGuildCombat@@V?$allocator@U__JOINPLAYER@CGuildCombat@@@std@@@std@@IAEPAU__JOINPLAYER@CGuildCombat@@PAU34@IABU34@@Z 004235c0 f i eveschool.obj
 0001:000225c0       ?_Ufill@?$vector@UtagDROPITEM@@V?$allocator@UtagDROPITEM@@@std@@@std@@IAEPAUtagDROPITEM@@PAU3@IABU3@@Z 004235c0 f i Project.obj
 0001:000225f0       ?OnJoin@CDPDatabaseClient@@AAEXAAVCAr@@KK@Z 004235f0 f   DPDatabaseClient.obj
 0001:000233d0       ?OnInGuildCombat@CDPDatabaseClient@@AAEXAAVCAr@@KK@Z 004243d0 f   DPDatabaseClient.obj
 0001:00023760       ?OnOutGuildCombat@CDPDatabaseClient@@AAEXAAVCAr@@KK@Z 00424760 f   DPDatabaseClient.obj
 0001:000239b0       ?OnGetPenyaGuildGC@CDPDatabaseClient@@AAEXAAVCAr@@KK@Z 004249b0 f   DPDatabaseClient.obj
 0001:00023c10       ?OnGetPenyaPlayerGC@CDPDatabaseClient@@AAEXAAVCAr@@KK@Z 00424c10 f   DPDatabaseClient.obj
 0001:00023e50       ?OnPostMail@CDPDatabaseClient@@QAEXAAVCAr@@KK@Z 00424e50 f   DPDatabaseClient.obj
 0001:000241c0       ?OnRemoveMail@CDPDatabaseClient@@QAEXAAVCAr@@KK@Z 004251c0 f   DPDatabaseClient.obj
 0001:00024290       ?OnGetMailItem@CDPDatabaseClient@@QAEXAAVCAr@@KK@Z 00425290 f   DPDatabaseClient.obj
 0001:00024440       ?OnGetMailGold@CDPDatabaseClient@@QAEXAAVCAr@@KK@Z 00425440 f   DPDatabaseClient.obj
 0001:00024610       ?OnReadMail@CDPDatabaseClient@@QAEXAAVCAr@@KK@Z 00425610 f   DPDatabaseClient.obj
 0001:000246e0       ?OnQueryRemoveGuildBankTbl@CDPDatabaseClient@@AAEXAAVCAr@@KK@Z 004256e0 f   DPDatabaseClient.obj
 0001:00024940       ?OnElectionAddDeposit@CDPDatabaseClient@@AAEXAAVCAr@@KK@Z 00425940 f   DPDatabaseClient.obj
 0001:00024a30       ?OnElectionSetPledge@CDPDatabaseClient@@AAEXAAVCAr@@KK@Z 00425a30 f   DPDatabaseClient.obj
 0001:00024b50       ?OnHousingLoadInfo@CDPDatabaseClient@@QAEXAAVCAr@@KK@Z 00425b50 f   DPDatabaseClient.obj
 0001:00024c00       ?OnHousingDBFailed@CDPDatabaseClient@@QAEXAAVCAr@@KK@Z 00425c00 f   DPDatabaseClient.obj
 0001:00024d50       ?_Xlen@?$vector@U__GC1TO1TENDER@CGuildCombat1to1Mng@@V?$allocator@U__GC1TO1TENDER@CGuildCombat1to1Mng@@@std@@@std@@IBEXXZ 00425d50 f i DPDatabaseClient.obj
 0001:00024d50       ?_Xlen@?$vector@U__GCPLAYERPOINT@CGuildCombat@@V?$allocator@U__GCPLAYERPOINT@CGuildCombat@@@std@@@std@@IBEXXZ 00425d50 f i DPDatabaseClient.obj
 0001:00024d50       ?_Xlen@?$vector@U__GCRESULTVALUEPLAYER@CGuildCombat@@V?$allocator@U__GCRESULTVALUEPLAYER@CGuildCombat@@@std@@@std@@IBEXXZ 00425d50 f i DPDatabaseClient.obj
 0001:00024d50       ?_Xlen@?$vector@U__GCRESULTVALUEGUILD@CGuildCombat@@V?$allocator@U__GCRESULTVALUEGUILD@CGuildCombat@@@std@@@std@@IBEXXZ 00425d50 f i DPDatabaseClient.obj
 0001:00024d50       ?_Xlen@?$vector@U__SECRETROOM_TENDER@@V?$allocator@U__SECRETROOM_TENDER@@@std@@@std@@IBEXXZ 00425d50 f i DPDatabaseClient.obj
 0001:00024d50       ?_Xlen@?$vector@U__SPAWNREGION@CEventLua@@V?$allocator@U__SPAWNREGION@CEventLua@@@std@@@std@@IBEXXZ 00425d50 f i DPDatabaseClient.obj
 0001:00024d50       ?_Xlen@?$vector@U__SECRETROOM_MONSTER@@V?$allocator@U__SECRETROOM_MONSTER@@@std@@@std@@IBEXXZ 00425d50 f i DPDatabaseClient.obj
 0001:00024dc0       ?Serialize@_QUIZLIST@CQuiz@@QAEXAAVCAr@@@Z 00425dc0 f i DPDatabaseClient.obj
 0001:00024f60       ??1__SECRETROOM_TENDER@@QAE@XZ 00425f60 f i DPDatabaseClient.obj
 0001:00024fa0       ?OnQuizList@CDPDatabaseClient@@QAEXAAVCAr@@KK@Z 00425fa0 f   DPDatabaseClient.obj
 0001:00025060       ?_Insert@?$_Tree@V?$_Tmap_traits@KP8CDPDatabaseClient@@AEXAAVCAr@@KK@ZU?$less@K@std@@V?$allocator@U?$pair@$$CBKP8CDPDatabaseClient@@AEXAAVCAr@@KK@Z@std@@@4@$0A@@std@@@std@@IAE?AViterator@12@_NPAU_Node@?$_Tree_nod@V?$_Tmap_traits@KP8CDPDatabaseClient@@AEXAAVCAr@@KK@ZU?$less@K@std@@V?$allocator@U?$pair@$$CBKP8CDPDatabaseClient@@AEXAAVCAr@@KK@Z@std@@@4@$0A@@std@@@2@ABU?$pair@$$CBKP8CDPDatabaseClient@@AEXAAVCAr@@KK@Z@2@@Z 00426060 f i DPDatabaseClient.obj
 0001:00025210       ?erase@?$_Tree@V?$_Tmap_traits@KP8CDPDatabaseClient@@AEXAAVCAr@@KK@ZU?$less@K@std@@V?$allocator@U?$pair@$$CBKP8CDPDatabaseClient@@AEXAAVCAr@@KK@Z@std@@@4@$0A@@std@@@std@@QAE?AViterator@12@V312@@Z 00426210 f i DPDatabaseClient.obj
 0001:000254d0       ??$_Insert@Viterator@?$vector@KV?$allocator@K@std@@@std@@@?$vector@KV?$allocator@K@std@@@std@@QAEXViterator@01@00Uforward_iterator_tag@1@@Z 004264d0 f i DPDatabaseClient.obj
 0001:00025720       ?GetMoverProp@CProject@@QAEPAUMoverProp@@PBD@Z 00426720 f i DPDatabaseClient.obj
 0001:00025820       ?_Insert_n@?$vector@U__SPAWNREGION@CEventLua@@V?$allocator@U__SPAWNREGION@CEventLua@@@std@@@std@@IAEXViterator@12@IABU__SPAWNREGION@CEventLua@@@Z 00426820 f i DPDatabaseClient.obj
 0001:00025af0       ?OnMonsterRespawnSetting@CDPDatabaseClient@@AAEXAAVCAr@@KK@Z 00426af0 f   DPDatabaseClient.obj
 0001:00025db0       ?OnMonsterPropSetting@CDPDatabaseClient@@AAEXAAVCAr@@KK@Z 00426db0 f   DPDatabaseClient.obj
 0001:00026050       ?OnPing@CDPDatabaseClient@@AAEXAAVCAr@@KK@Z 00427050 f   DPDatabaseClient.obj
 0001:00026130       ?insert@?$_Tree@V?$_Tmap_traits@KP8CDPDatabaseClient@@AEXAAVCAr@@KK@ZU?$less@K@std@@V?$allocator@U?$pair@$$CBKP8CDPDatabaseClient@@AEXAAVCAr@@KK@Z@std@@@4@$0A@@std@@@std@@QAE?AU?$pair@Viterator@?$_Tree@V?$_Tmap_traits@KP8CDPDatabaseClient@@AEXAAVCAr@@KK@ZU?$less@K@std@@V?$allocator@U?$pair@$$CBKP8CDPDatabaseClient@@AEXAAVCAr@@KK@Z@std@@@4@$0A@@std@@@std@@_N@2@ABU?$pair@$$CBKP8CDPDatabaseClient@@AEXAAVCAr@@KK@Z@2@@Z 00427130 f i DPDatabaseClient.obj
 0001:000261f0       ?_Buy@?$vector@U__SECRETROOM_MONSTER@@V?$allocator@U__SECRETROOM_MONSTER@@@std@@@std@@IAE_NI@Z 004271f0 f i DPDatabaseClient.obj
 0001:00026240       ?_Insert_n@?$vector@U__GCPLAYERPOINT@CGuildCombat@@V?$allocator@U__GCPLAYERPOINT@CGuildCombat@@@std@@@std@@IAEXViterator@12@IABU__GCPLAYERPOINT@CGuildCombat@@@Z 00427240 f i DPDatabaseClient.obj
 0001:00026500       ?_Insert_n@?$vector@U__GCRESULTVALUEGUILD@CGuildCombat@@V?$allocator@U__GCRESULTVALUEGUILD@CGuildCombat@@@std@@@std@@IAEXViterator@12@IABU__GCRESULTVALUEGUILD@CGuildCombat@@@Z 00427500 f i DPDatabaseClient.obj
 0001:00026500       ?_Insert_n@?$vector@U__GCRESULTVALUEPLAYER@CGuildCombat@@V?$allocator@U__GCRESULTVALUEPLAYER@CGuildCombat@@@std@@@std@@IAEXViterator@12@IABU__GCRESULTVALUEPLAYER@CGuildCombat@@@Z 00427500 f i DPDatabaseClient.obj
 0001:000267d0       ?erase@?$_Tree@V?$_Tmap_traits@KP8CDPDatabaseClient@@AEXAAVCAr@@KK@ZU?$less@K@std@@V?$allocator@U?$pair@$$CBKP8CDPDatabaseClient@@AEXAAVCAr@@KK@Z@std@@@4@$0A@@std@@@std@@QAE?AViterator@12@V312@0@Z 004277d0 f i DPDatabaseClient.obj
 0001:00026890       ??0?$vector@U__SECRETROOM_MONSTER@@V?$allocator@U__SECRETROOM_MONSTER@@@std@@@std@@QAE@ABV01@@Z 00427890 f i DPDatabaseClient.obj
 0001:00026950       ??4?$vector@KV?$allocator@K@std@@@std@@QAEAAV01@ABV01@@Z 00427950 f i DPDatabaseClient.obj
 0001:00026aa0       ??4?$vector@U__SECRETROOM_MONSTER@@V?$allocator@U__SECRETROOM_MONSTER@@@std@@@std@@QAEAAV01@ABV01@@Z 00427aa0 f i DPDatabaseClient.obj
 0001:00026bf0       ?insert@?$vector@U__SPAWNREGION@CEventLua@@V?$allocator@U__SPAWNREGION@CEventLua@@@std@@@std@@QAE?AViterator@12@V312@ABU__SPAWNREGION@CEventLua@@@Z 00427bf0 f i DPDatabaseClient.obj
 0001:00026c60       ?insert@?$vector@U__GCPLAYERPOINT@CGuildCombat@@V?$allocator@U__GCPLAYERPOINT@CGuildCombat@@@std@@@std@@QAE?AViterator@12@V312@ABU__GCPLAYERPOINT@CGuildCombat@@@Z 00427c60 f i DPDatabaseClient.obj
 0001:00026cd0       ?insert@?$vector@U__GCRESULTVALUEGUILD@CGuildCombat@@V?$allocator@U__GCRESULTVALUEGUILD@CGuildCombat@@@std@@@std@@QAE?AViterator@12@V312@ABU__GCRESULTVALUEGUILD@CGuildCombat@@@Z 00427cd0 f i DPDatabaseClient.obj
 0001:00026cd0       ?insert@?$vector@U__GCRESULTVALUEPLAYER@CGuildCombat@@V?$allocator@U__GCRESULTVALUEPLAYER@CGuildCombat@@@std@@@std@@QAE?AViterator@12@V312@ABU__GCRESULTVALUEPLAYER@CGuildCombat@@@Z 00427cd0 f i DPDatabaseClient.obj
 0001:00026d40       ?_Destroy@?$vector@U__GC1TO1TENDER@CGuildCombat1to1Mng@@V?$allocator@U__GC1TO1TENDER@CGuildCombat1to1Mng@@@std@@@std@@IAEXPAU__GC1TO1TENDER@CGuildCombat1to1Mng@@0@Z 00427d40 f i DPDatabaseClient.obj
 0001:00026d70       ??0__GC1TO1TENDER@CGuildCombat1to1Mng@@QAE@ABU01@@Z 00427d70 f i DPDatabaseClient.obj
 0001:00026dc0       ??0__SECRETROOM_TENDER@@QAE@ABU0@@Z 00427dc0 f i DPDatabaseClient.obj
 0001:00026e40       ??4__GC1TO1TENDER@CGuildCombat1to1Mng@@QAEAAU01@ABU01@@Z 00427e40 f i DPDatabaseClient.obj
 0001:00026e90       ??$_Copy_backward_opt@PAU__GC1TO1TENDER@CGuildCombat1to1Mng@@PAU12@@std@@YAPAU__GC1TO1TENDER@CGuildCombat1to1Mng@@PAU12@00U_Nonscalar_ptr_iterator_tag@0@@Z 00427e90 f i DPDatabaseClient.obj
 0001:00026f00       ??$_Copy_backward_opt@PAU__SECRETROOM_TENDER@@PAU1@@std@@YAPAU__SECRETROOM_TENDER@@PAU1@00U_Nonscalar_ptr_iterator_tag@0@@Z 00427f00 f i DPDatabaseClient.obj
 0001:00026f60       ??0__GC1TO1TENDER@CGuildCombat1to1Mng@@QAE@XZ 00427f60 f i DPDatabaseClient.obj
 0001:00026f90       ?push_back@?$vector@U__SPAWNREGION@CEventLua@@V?$allocator@U__SPAWNREGION@CEventLua@@@std@@@std@@QAEXABU__SPAWNREGION@CEventLua@@@Z 00427f90 f i DPDatabaseClient.obj
 0001:00027020       ??0__SECRETROOM_TENDER@@QAE@XZ 00428020 f i DPDatabaseClient.obj
 0001:00027080       ?OnTaxInfo@CDPDatabaseClient@@AAEXAAVCAr@@KK@Z 00428080 f   DPDatabaseClient.obj
 0001:000272b0       ?OnRainbowRaceInfo@CDPDatabaseClient@@AAEXAAVCAr@@KK@Z 004282b0 f   DPDatabaseClient.obj
 0001:00027400       ?push_back@?$vector@U__GCPLAYERPOINT@CGuildCombat@@V?$allocator@U__GCPLAYERPOINT@CGuildCombat@@@std@@@std@@QAEXABU__GCPLAYERPOINT@CGuildCombat@@@Z 00428400 f i DPDatabaseClient.obj
 0001:00027480       ?push_back@?$vector@U__GCRESULTVALUEPLAYER@CGuildCombat@@V?$allocator@U__GCRESULTVALUEPLAYER@CGuildCombat@@@std@@@std@@QAEXABU__GCRESULTVALUEPLAYER@CGuildCombat@@@Z 00428480 f i DPDatabaseClient.obj
 0001:00027480       ?push_back@?$vector@U__GCRESULTVALUEGUILD@CGuildCombat@@V?$allocator@U__GCRESULTVALUEGUILD@CGuildCombat@@@std@@@std@@QAEXABU__GCRESULTVALUEGUILD@CGuildCombat@@@Z 00428480 f i DPDatabaseClient.obj
 0001:00027510       ?_Tidy@?$vector@U__GC1TO1TENDER@CGuildCombat1to1Mng@@V?$allocator@U__GC1TO1TENDER@CGuildCombat1to1Mng@@@std@@@std@@IAEXXZ 00428510 f i DPDatabaseClient.obj
 0001:00027560       ??$assign@Viterator@?$vector@KV?$allocator@K@std@@@std@@@?$vector@KV?$allocator@K@std@@@std@@QAEXViterator@01@0@Z 00428560 f i DPDatabaseClient.obj
 0001:000275b0       ??$fill@PAU__GC1TO1TENDER@CGuildCombat1to1Mng@@U12@@std@@YAXPAU__GC1TO1TENDER@CGuildCombat1to1Mng@@0ABU12@@Z 004285b0 f i DPDatabaseClient.obj
 0001:00027610       ??$fill@PAU__SECRETROOM_TENDER@@U1@@std@@YAXPAU__SECRETROOM_TENDER@@0ABU1@@Z 00428610 f i DPDatabaseClient.obj
 0001:00027670       ??$_Uninit_copy@PAU__GC1TO1TENDER@CGuildCombat1to1Mng@@PAU12@V?$allocator@U__GC1TO1TENDER@CGuildCombat1to1Mng@@@std@@@std@@YAPAU__GC1TO1TENDER@CGuildCombat1to1Mng@@PAU12@00AAV?$allocator@U__GC1TO1TENDER@CGuildCombat1to1Mng@@@0@U_Nonscalar_ptr_iterator_tag@0@@Z 00428670 f i DPDatabaseClient.obj
 0001:00027750       ??$_Uninit_copy@PAU__SECRETROOM_TENDER@@PAU1@V?$allocator@U__SECRETROOM_TENDER@@@std@@@std@@YAPAU__SECRETROOM_TENDER@@PAU1@00AAV?$allocator@U__SECRETROOM_TENDER@@@0@U_Nonscalar_ptr_iterator_tag@0@@Z 00428750 f i DPDatabaseClient.obj
 0001:00027810       ?SetAddSpawnRegion@CEventLua@@QAEXKAAVCRect@@@Z 00428810 f i DPDatabaseClient.obj
 0001:00027850       ??1?$map@KP8CDPDatabaseClient@@AEXAAVCAr@@KK@ZU?$less@K@std@@V?$allocator@U?$pair@$$CBKP8CDPDatabaseClient@@AEXAAVCAr@@KK@Z@std@@@4@@std@@QAE@XZ 00428850 f i DPDatabaseClient.obj
 0001:00027880       ??1CDPDatabaseClient@@UAE@XZ 00428880 f   DPDatabaseClient.obj
 0001:00027900       ?OnGCResultValue@CDPDatabaseClient@@AAEXAAVCAr@@@Z 00428900 f   DPDatabaseClient.obj
 0001:00027a80       ?OnGCPlayerPoint@CDPDatabaseClient@@AAEXAAVCAr@@@Z 00428a80 f   DPDatabaseClient.obj
 0001:00027b50       ?OnAllGuildCombat@CDPDatabaseClient@@AAEXAAVCAr@@KK@Z 00428b50 f   DPDatabaseClient.obj
 0001:00027cc0       ?OnResultGuildCombat@CDPDatabaseClient@@AAEXAAVCAr@@KK@Z 00428cc0 f   DPDatabaseClient.obj
 0001:00027da0       ?OnPlayerPointGuildCombat@CDPDatabaseClient@@AAEXAAVCAr@@KK@Z 00428da0 f   DPDatabaseClient.obj
 0001:00027db0       ?OnBaseGameSetting@CDPDatabaseClient@@AAEXAAVCAr@@KK@Z 00428db0 f   DPDatabaseClient.obj
 0001:00028130       ??$_Uninit_fill_n@PAU__GC1TO1TENDER@CGuildCombat1to1Mng@@IU12@V?$allocator@U__GC1TO1TENDER@CGuildCombat1to1Mng@@@std@@@std@@YAXPAU__GC1TO1TENDER@CGuildCombat1to1Mng@@IABU12@AAV?$allocator@U__GC1TO1TENDER@CGuildCombat1to1Mng@@@0@U_Nonscalar_ptr_iterator_tag@0@@Z 00429130 f i DPDatabaseClient.obj
 0001:00028210       ??$_Uninit_fill_n@PAU__SECRETROOM_TENDER@@IU1@V?$allocator@U__SECRETROOM_TENDER@@@std@@@std@@YAXPAU__SECRETROOM_TENDER@@IABU1@AAV?$allocator@U__SECRETROOM_TENDER@@@0@U_Nonscalar_ptr_iterator_tag@0@@Z 00429210 f i DPDatabaseClient.obj
 0001:000282d0       ??_ECDPDatabaseClient@@UAEPAXI@Z 004292d0 f i DPDatabaseClient.obj
 0001:000282d0       ??_GCDPDatabaseClient@@UAEPAXI@Z 004292d0 f i DPDatabaseClient.obj
 0001:000282f0       ?_Destroy@?$vector@U__SECRETROOM_TENDER@@V?$allocator@U__SECRETROOM_TENDER@@@std@@@std@@IAEXPAU__SECRETROOM_TENDER@@0@Z 004292f0 f i DPDatabaseClient.obj
 0001:00028320       ??$_Ucopy@PAU__GC1TO1TENDER@CGuildCombat1to1Mng@@@?$vector@U__GC1TO1TENDER@CGuildCombat1to1Mng@@V?$allocator@U__GC1TO1TENDER@CGuildCombat1to1Mng@@@std@@@std@@IAEPAU__GC1TO1TENDER@CGuildCombat1to1Mng@@PAU23@00@Z 00429320 f i DPDatabaseClient.obj
 0001:00028340       ?_Ufill@?$vector@U__GC1TO1TENDER@CGuildCombat1to1Mng@@V?$allocator@U__GC1TO1TENDER@CGuildCombat1to1Mng@@@std@@@std@@IAEPAU__GC1TO1TENDER@CGuildCombat1to1Mng@@PAU34@IABU34@@Z 00429340 f i DPDatabaseClient.obj
 0001:00028370       ?_Tidy@?$vector@U__SECRETROOM_TENDER@@V?$allocator@U__SECRETROOM_TENDER@@@std@@@std@@IAEXXZ 00429370 f i DPDatabaseClient.obj
 0001:000283c0       ?_Ufill@?$vector@U__SECRETROOM_TENDER@@V?$allocator@U__SECRETROOM_TENDER@@@std@@@std@@IAEPAU__SECRETROOM_TENDER@@PAU3@IABU3@@Z 004293c0 f i DPDatabaseClient.obj
 0001:000283f0       ?_Insert_n@?$vector@U__GC1TO1TENDER@CGuildCombat1to1Mng@@V?$allocator@U__GC1TO1TENDER@CGuildCombat1to1Mng@@@std@@@std@@IAEXViterator@12@IABU__GC1TO1TENDER@CGuildCombat1to1Mng@@@Z 004293f0 f i DPDatabaseClient.obj
 0001:00028720       ?_Insert_n@?$vector@U__SECRETROOM_TENDER@@V?$allocator@U__SECRETROOM_TENDER@@@std@@@std@@IAEXViterator@12@IABU__SECRETROOM_TENDER@@@Z 00429720 f i DPDatabaseClient.obj
 0001:00028a30       ?UserMessageHandler@CDPDatabaseClient@@UAEXPAUDPMSG_GENERIC@@KK@Z 00429a30 f   DPDatabaseClient.obj
 0001:00028cd0       ?insert@?$vector@U__GC1TO1TENDER@CGuildCombat1to1Mng@@V?$allocator@U__GC1TO1TENDER@CGuildCombat1to1Mng@@@std@@@std@@QAE?AViterator@12@V312@ABU__GC1TO1TENDER@CGuildCombat1to1Mng@@@Z 00429cd0 f i DPDatabaseClient.obj
 0001:00028d40       ?insert@?$vector@U__SECRETROOM_TENDER@@V?$allocator@U__SECRETROOM_TENDER@@@std@@@std@@QAE?AViterator@12@V312@ABU__SECRETROOM_TENDER@@@Z 00429d40 f i DPDatabaseClient.obj
 0001:00028db0       ?OnSecretRoomInfoClear@CDPDatabaseClient@@AAEXAAVCAr@@KK@Z 00429db0 f   DPDatabaseClient.obj
 0001:00028e30       ?push_back@?$vector@U__GC1TO1TENDER@CGuildCombat1to1Mng@@V?$allocator@U__GC1TO1TENDER@CGuildCombat1to1Mng@@@std@@@std@@QAEXABU__GC1TO1TENDER@CGuildCombat1to1Mng@@@Z 00429e30 f i DPDatabaseClient.obj
 0001:00028ec0       ?push_back@?$vector@U__SECRETROOM_TENDER@@V?$allocator@U__SECRETROOM_TENDER@@@std@@@std@@QAEXABU__SECRETROOM_TENDER@@@Z 00429ec0 f i DPDatabaseClient.obj
 0001:00028f50       ?OnGC1to1TenderGuildFromDB@CDPDatabaseClient@@AAEXAAVCAr@@KK@Z 00429f50 f   DPDatabaseClient.obj
 0001:000291e0       ?OnSecretRoomTenderInfo@CDPDatabaseClient@@AAEXAAVCAr@@KK@Z 0042a1e0 f   DPDatabaseClient.obj
 0001:000293e0       ??0CDPDatabaseClient@@QAE@XZ 0042a3e0 f   DPDatabaseClient.obj
 0001:00029ea0       ?IsGetPenya@CGuild@@QAEHK@Z 0042aea0 f i DPSrvr.obj
 0001:00029ec0       ?IsGetItem@CGuild@@QAEHK@Z 0042aec0 f i DPSrvr.obj
 0001:00029ee0       ?CanAdd@@YAHKH@Z           0042aee0 f   DPSrvr.obj
 0001:00029f00       ?OnRemoveUser@CDPSrvr@@AAEXAAVCAr@@KKPAEK@Z 0042af00 f   DPSrvr.obj
 0001:00029f20       ?OnReplace@CDPSrvr@@AAEXAAVCAr@@KKPAEK@Z 0042af20 f   DPSrvr.obj
 0001:00029f30       ?OnBuyingInfo@CDPSrvr@@AAEXAAVCAr@@KKPAEK@Z 0042af30 f   DPSrvr.obj
 0001:00029f30       ?MakeSWDForce@CModelObject@@QAEXHKHKM@Z 0042af30 f   modelobject.obj
 0001:00029f30       ?OnTeleportPlayer@CDPSrvr@@AAEXAAVCAr@@KKPAEK@Z 0042af30 f   DPSrvr.obj
 0001:00029f30       ?OnMoveBankItem@CDPSrvr@@AAEXAAVCAr@@KKPAEK@Z 0042af30 f   DPSrvr.obj
 0001:00029f30       ?OnRevivalLodelight@CDPSrvr@@AAEXAAVCAr@@KKPAEK@Z 0042af30 f   DPSrvr.obj
 0001:00029f30       ?OnUpgradeBase@CDPSrvr@@AAEXAAVCAr@@KKPAEK@Z 0042af30 f   DPSrvr.obj
 0001:00029f30       ?OnCommonPlace@CDPSrvr@@AAEXAAVCAr@@KKPAEK@Z 0042af30 f   DPSrvr.obj
 0001:00029f30       ?OnSummonPlayer@CDPSrvr@@AAEXAAVCAr@@KKPAEK@Z 0042af30 f   DPSrvr.obj
 0001:00029f30       ?OnDropGold@CDPSrvr@@AAEXAAVCAr@@KKPAEK@Z 0042af30 f   DPSrvr.obj
 0001:00029f30       ?OnChangeJob@CDPSrvr@@AAEXAAVCAr@@KKPAEK@Z 0042af30 f   DPSrvr.obj
 0001:00029f40       ??1VENDOR_SELL_RESULT@@QAE@XZ 0042af40 f i DPSrvr.obj
 0001:00029f50       ?size@?$vector@KV?$allocator@K@std@@@std@@QBEIXZ 0042af50 f i Campus.obj
 0001:00029f50       ?size@?$vector@PAU__GuildCombatMember@CGuildCombat@@V?$allocator@PAU__GuildCombatMember@CGuildCombat@@@std@@@std@@QBEIXZ 0042af50 f i DPDatabaseClient.obj
 0001:00029f50       ?size@?$vector@PAVCMail@@V?$allocator@PAVCMail@@@std@@@std@@QBEIXZ 0042af50 f i DPSrvr.obj
 0001:00029f70       ?IsInvalidObj@@YAHPAVCObj@@@Z 0042af70 f i DPSrvr.obj
 0001:00029fa0       ??0_CHAO_PROPENSITY@@QAE@XZ 0042afa0 f i DPSrvr.obj
 0001:00029fd0       ?GetCharacter@CProject@@QAEPAUtagCHARACTER@@PBD@Z 0042afd0 f i DPSrvr.obj
 0001:0002a060       ?GetMaxEnergy@CPet@@QAEGXZ 0042b060 f i DPSrvr.obj
 0001:0002a080       ??0tagMAGICATKMSG@@QAE@KHHHHH@Z 0042b080 f i DPSrvr.obj
 0001:0002a0b0       ?GetDestPos@CMover@@QAE?AUD3DXVECTOR3@@XZ 0042b0b0 f i DPSrvr.obj
 0001:0002a0e0       ?ClearDestPos@CMover@@QAEXXZ 0042b0e0 f i DPSrvr.obj
 0001:0002a120       ?ClearDest@CMover@@QAEXXZ  0042b120 f i DPSrvr.obj
 0001:0002a170       ?IsEmptyDestPos@CMover@@QAEHXZ 0042b170 f i DPSrvr.obj
 0001:0002a1b0       ?IsEmptyDest@CMover@@QAEHXZ 0042b1b0 f i DPSrvr.obj
 0001:0002a1f0       ?_Min@?$_Tree@V?$_Tset_traits@HU?$less@H@std@@V?$allocator@H@2@$0A@@std@@@std@@KAPAU_Node@?$_Tree_nod@V?$_Tset_traits@HU?$less@H@std@@V?$allocator@H@2@$0A@@std@@@2@PAU342@@Z 0042b1f0 f i ProjectCmn.obj
 0001:0002a1f0       ?_Min@?$_Tree@V?$_Tset_traits@KU?$less@K@std@@V?$allocator@K@2@$0A@@std@@@std@@KAPAU_Node@?$_Tree_nod@V?$_Tset_traits@KU?$less@K@std@@V?$allocator@K@2@$0A@@std@@@2@PAU342@@Z 0042b1f0 f i DPSrvr.obj
 0001:0002a210       ?GetOffset@CTickCount@@QAEHAB_J@Z 0042b210 f i DPSrvr.obj
 0001:0002a250       ?GetAt@?$CItemContainer@VCItemElem@@@@QAEPAVCItemElem@@K@Z 0042b250 f i DPSrvr.obj
 0001:0002a280       ?IsEquip@?$CItemContainer@VCItemElem@@@@QAEHK@Z 0042b280 f i DPSrvr.obj
 0001:0002a2c0       ?GetEquip@?$CItemContainer@VCItemElem@@@@QAEPAVCItemElem@@K@Z 0042b2c0 f i DPSrvr.obj
 0001:0002a300       ?IsFull@?$CItemContainer@VCItemElem@@@@QAEHPAVCItemElem@@PAUItemProp@@F@Z 0042b300 f i DPSrvr.obj
 0001:0002a3e0       ?GetAtItemId@?$CItemContainer@VCItemElem@@@@QAEPAVCItemElem@@K@Z 0042b3e0 f i DPSrvr.obj
 0001:0002a420       ?GetAtItemNum@?$CItemContainer@VCItemElem@@@@QAEHK@Z 0042b420 f i DPSrvr.obj
 0001:0002a450       ?RemoveAtId@?$CItemContainer@VCItemElem@@@@QAEXK@Z 0042b450 f i DPSrvr.obj
 0001:0002a4b0       ?Swap2@?$CItemContainer@VCItemElem@@@@AAEXKK@Z 0042b4b0 f i DPSrvr.obj
 0001:0002a500       ?_Min@?$_Tree@V?$_Tmap_traits@HU_CHAO_PROPENSITY@@U?$less@H@std@@V?$allocator@U?$pair@$$CBHU_CHAO_PROPENSITY@@@std@@@3@$0A@@std@@@std@@KAPAU_Node@?$_Tree_nod@V?$_Tmap_traits@HU_CHAO_PROPENSITY@@U?$less@H@std@@V?$allocator@U?$pair@$$CBHU_CHAO_PROPENSITY@@@std@@@3@$0A@@std@@@2@PAU342@@Z 0042b500 f i DPSrvr.obj
 0001:0002a520       ?OnPartyList@CDPSrvr@@AAEXAAVCAr@@KKPAEK@Z 0042b520 f   DPSrvr.obj
 0001:0002a550       ?TogglePartyAllow@CDPSrvr@@AAEXAAVCAr@@KKPAEK@Z 0042b550 f   DPSrvr.obj
 0001:0002a5c0       ?SysMessageHandler@CDPSrvr@@UAEXPAUDPMSG_GENERIC@@KK@Z 0042b5c0 f   DPSrvr.obj
 0001:0002a5f0       ?OnCtrlCoolTimeCancel@CDPSrvr@@AAEXAAVCAr@@KKPAEK@Z 0042b5f0 f   DPSrvr.obj
 0001:0002a660       ?OnSetLodelight@CDPSrvr@@AAEXAAVCAr@@KKPAEK@Z 0042b660 f   DPSrvr.obj
 0001:0002a6e0       ?OnCorrReq@CDPSrvr@@AAEXAAVCAr@@KKPAEK@Z 0042b6e0 f   DPSrvr.obj
 0001:0002a750       ?OnQueryGetDestObj@CDPSrvr@@AAEXAAVCAr@@KKPAEK@Z 0042b750 f   DPSrvr.obj
 0001:0002a7d0       ?OnGetDestObj@CDPSrvr@@AAEXAAVCAr@@KKPAEK@Z 0042b7d0 f   DPSrvr.obj
 0001:0002a830       ?OnQueryGetPos@CDPSrvr@@AAEXAAVCAr@@KKPAEK@Z 0042b830 f   DPSrvr.obj
 0001:0002a8e0       ?OnGetPos@CDPSrvr@@AAEXAAVCAr@@KKPAEK@Z 0042b8e0 f   DPSrvr.obj
 0001:0002aa60       ?OnAddFriendNameReqest@CDPSrvr@@AAEXAAVCAr@@KKPAEK@Z 0042ba60 f   DPSrvr.obj
 0001:0002ab60       ?OnAddFriendCancel@CDPSrvr@@AAEXAAVCAr@@KKPAEK@Z 0042bb60 f   DPSrvr.obj
 0001:0002abb0       ?OnRemoveQuest@CDPSrvr@@AAEXAAVCAr@@KKPAEK@Z 0042bbb0 f   DPSrvr.obj
 0001:0002aca0       ?OnIgnoreGuildInvite@CDPSrvr@@AAEXAAVCAr@@KKPAEK@Z 0042bca0 f   DPSrvr.obj
 0001:0002ad20       ?OnGuildLogo@CDPSrvr@@AAEXAAVCAr@@KKPAEK@Z 0042bd20 f   DPSrvr.obj
 0001:0002ad90       ?OnGuildNotice@CDPSrvr@@AAEXAAVCAr@@KKPAEK@Z 0042bd90 f   DPSrvr.obj
 0001:0002ae30       ?OnDuelRequest@CDPSrvr@@AAEXAAVCAr@@KKPAEK@Z 0042be30 f   DPSrvr.obj
 0001:0002af80       ?OnDuelNo@CDPSrvr@@AAEXAAVCAr@@KKPAEK@Z 0042bf80 f   DPSrvr.obj
 0001:0002aff0       ?OnDuelPartyRequest@CDPSrvr@@AAEXAAVCAr@@KKPAEK@Z 0042bff0 f   DPSrvr.obj
 0001:0002b130       ?OnDuelPartyNo@CDPSrvr@@AAEXAAVCAr@@KKPAEK@Z 0042c130 f   DPSrvr.obj
 0001:0002b1a0       ?OnMoverFocus@CDPSrvr@@AAEXAAVCAr@@KKPAEK@Z 0042c1a0 f   DPSrvr.obj
 0001:0002b210       ?OnAddAppletTaskBar@CDPSrvr@@AAEXAAVCAr@@KKPAEK@Z 0042c210 f   DPSrvr.obj
 0001:0002b380       ?OnRemoveAppletTaskBar@CDPSrvr@@AAEXAAVCAr@@KKPAEK@Z 0042c380 f   DPSrvr.obj
 0001:0002b400       ?OnAddItemTaskBar@CDPSrvr@@AAEXAAVCAr@@KKPAEK@Z 0042c400 f   DPSrvr.obj
 0001:0002b620       ?OnRemoveItemTaskBar@CDPSrvr@@AAEXAAVCAr@@KKPAEK@Z 0042c620 f   DPSrvr.obj
 0001:0002b6d0       ?OnPlayerAngle@CDPSrvr@@AAEXAAVCAr@@KKPAEK@Z 0042c6d0 f   DPSrvr.obj
 0001:0002b990       ?OnPlayerSetDestObj@CDPSrvr@@AAEXAAVCAr@@KKPAEK@Z 0042c990 f   DPSrvr.obj
 0001:0002ba50       ?OnCloseShopWnd@CDPSrvr@@AAEXAAVCAr@@KKPAEK@Z 0042ca50 f   DPSrvr.obj
 0001:0002baa0       ?OnOpenGuildBankWnd@CDPSrvr@@AAEXAAVCAr@@KKPAEK@Z 0042caa0 f   DPSrvr.obj
 0001:0002bb20       ?OnCloseBankWnd@CDPSrvr@@AAEXAAVCAr@@KKPAEK@Z 0042cb20 f   DPSrvr.obj
 0001:0002bb50       ?OnCloseGuildBankWnd@CDPSrvr@@AAEXAAVCAr@@KKPAEK@Z 0042cb50 f   DPSrvr.obj
 0001:0002bb90       ?OnChangeBankPass@CDPSrvr@@AAEXAAVCAr@@KKPAEK@Z 0042cb90 f   DPSrvr.obj
 0001:0002bd40       ?OnConfirmBank@CDPSrvr@@AAEXAAVCAr@@KKPAEK@Z 0042cd40 f   DPSrvr.obj
 0001:0002bee0       ?OnTeleSkill@CDPSrvr@@AAEXAAVCAr@@KKPAEK@Z 0042cee0 f   DPSrvr.obj
 0001:0002bff0       ?OnSetTarget@CDPSrvr@@AAEXAAVCAr@@KKPAEK@Z 0042cff0 f   DPSrvr.obj
 0001:0002c100       ?OnPlayerDestPos@CDPSrvr@@AAEXAAVCAr@@PAVCUser@@@Z 0042d100 f   DPSrvr.obj
 0001:0002c1e0       ?OnModifyMode@CDPSrvr@@AAEXAAVCAr@@KKPAEK@Z 0042d1e0 f   DPSrvr.obj
 0001:0002c280       ?OnExpUp@CDPSrvr@@AAEXAAVCAr@@KKPAEK@Z 0042d280 f   DPSrvr.obj
 0001:0002c330       ?OnMotion@CDPSrvr@@AAEXAAVCAr@@KKPAEK@Z 0042d330 f   DPSrvr.obj
 0001:0002c400       ?OnBlock@CDPSrvr@@AAEXAAVCAr@@KKPAEK@Z 0042d400 f   DPSrvr.obj
 0001:0002c4e0       ?OnPiercingSize@CDPSrvr@@AAEXAAVCAr@@KKPAEK@Z 0042d4e0 f   DPSrvr.obj
 0001:0002c570       ?OnExpBoxInfo@CDPSrvr@@AAEXAAVCAr@@KKPAEK@Z 0042d570 f   DPSrvr.obj
 0001:0002c610       ?OnPiercing@CDPSrvr@@AAEXAAVCAr@@KKPAEK@Z 0042d610 f   DPSrvr.obj
 0001:0002c680       ?OnPiercingRemove@CDPSrvr@@AAEXAAVCAr@@KKPAEK@Z 0042d680 f   DPSrvr.obj
 0001:0002c6d0       ?OnSmeltSafety@CDPSrvr@@AAEXAAVCAr@@KKPAEK@Z 0042d6d0 f   DPSrvr.obj
 0001:0002c8a0       ?OnEnchant@CDPSrvr@@AAEXAAVCAr@@KKPAEK@Z 0042d8a0 f   DPSrvr.obj
 0001:0002c9a0       ?OnRequestGuildRank@CDPSrvr@@AAEXAAVCAr@@KKPAEK@Z 0042d9a0 f   DPSrvr.obj
 0001:0002ca60       ?QueryDestroyPlayer@CDPSrvr@@QAEXKKKK@Z 0042da60 f   DPSrvr.obj
 0001:0002cb90       ?OnGameMasterWhisper@CDPSrvr@@AAEXAAVCAr@@KKPAEK@Z 0042db90 f   DPSrvr.obj
 0001:0002cc40       ?OnNWWantedList@CDPSrvr@@AAEXAAVCAr@@KKPAEK@Z 0042dc40 f   DPSrvr.obj
 0001:0002cd60       ?OnNWWantedName@CDPSrvr@@AAEXAAVCAr@@KKPAEK@Z 0042dd60 f   DPSrvr.obj
 0001:0002ceb0       ?OnNWWantedInfo@CDPSrvr@@AAEXAAVCAr@@KKPAEK@Z 0042deb0 f   DPSrvr.obj
 0001:0002d010       ?OnReqLeave@CDPSrvr@@AAEXAAVCAr@@KKPAEK@Z 0042e010 f   DPSrvr.obj
 0001:0002d050       ?OnStateMode@CDPSrvr@@AAEXAAVCAr@@KKPAEK@Z 0042e050 f   DPSrvr.obj
 0001:0002d0e0       ?OnResurrectionCancel@CDPSrvr@@AAEXAAVCAr@@KKPAEK@Z 0042e0e0 f   DPSrvr.obj
 0001:0002d120       ?OnQueryEquip@CDPSrvr@@AAEXAAVCAr@@KKPAEK@Z 0042e120 f   DPSrvr.obj
 0001:0002d1b0       ?OnEndSkillQueue@CDPSrvr@@AAEXAAVCAr@@KKPAEK@Z 0042e1b0 f   DPSrvr.obj
 0001:0002d1e0       ?OnQueryRemoveMail@CDPSrvr@@AAEXAAVCAr@@KKPAEK@Z 0042e1e0 f   DPSrvr.obj
 0001:0002d290       ?OnQueryGetMailGold@CDPSrvr@@AAEXAAVCAr@@KKPAEK@Z 0042e290 f   DPSrvr.obj
 0001:0002d340       ?OnQueryReadMail@CDPSrvr@@AAEXAAVCAr@@KKPAEK@Z 0042e340 f   DPSrvr.obj
 0001:0002d3f0       ?OnQueryMailBox@CDPSrvr@@AAEXAAVCAr@@KKPAEK@Z 0042e3f0 f   DPSrvr.obj
 0001:0002d550       ?OnGCCancel@CDPSrvr@@AAEXAAVCAr@@KKPAEK@Z 0042e550 f   DPSrvr.obj
 0001:0002d580       ?OnGCJoin@CDPSrvr@@AAEXAAVCAr@@KKPAEK@Z 0042e580 f   DPSrvr.obj
 0001:0002d5f0       ?OnGCTele@CDPSrvr@@AAEXAAVCAr@@KKPAEK@Z 0042e5f0 f   DPSrvr.obj
 0001:0002d660       ?OnGCPlayerPoint@CDPSrvr@@AAEXAAVCAr@@KKPAEK@Z 0042e660 f   DPSrvr.obj
 0001:0002d690       ?OnSummonFriendCancel@CDPSrvr@@AAEXAAVCAr@@KKPAEK@Z 0042e690 f   DPSrvr.obj
 0001:0002d760       ?OnCreateMonster@CDPSrvr@@AAEXAAVCAr@@KKPAEK@Z 0042e760 f   DPSrvr.obj
 0001:0002d7f0       ?OnFoucusObj@CDPSrvr@@AAEXAAVCAr@@KKPAEK@Z 0042e7f0 f   DPSrvr.obj
 0001:0002d840       ?OnTrade@CDPSrvr@@AAEXAAVCAr@@KKPAEK@Z 0042e840 f   DPSrvr.obj
 0001:0002d9f0       ?OnConfirmTradeCancel@CDPSrvr@@AAEXAAVCAr@@KKPAEK@Z 0042e9f0 f   DPSrvr.obj
 0001:0002da50       ?OnTradePull@CDPSrvr@@AAEXAAVCAr@@KKPAEK@Z 0042ea50 f   DPSrvr.obj
 0001:0002db40       ?OnTradePutGold@CDPSrvr@@AAEXAAVCAr@@KKPAEK@Z 0042eb40 f   DPSrvr.obj
 0001:0002dc40       ?OnTradeOk@CDPSrvr@@AAEXAAVCAr@@KKPAEK@Z 0042ec40 f   DPSrvr.obj
 0001:0002dd10       ?OnQueryPVendorItem@CDPSrvr@@AAEXAAVCAr@@KKPAEK@Z 0042ed10 f   DPSrvr.obj
 0001:0002ddd0       ?OnUnregisterPVendorItem@CDPSrvr@@AAEXAAVCAr@@KKPAEK@Z 0042edd0 f   DPSrvr.obj
 0001:0002de60       ?OnKawibawiboStart@CDPSrvr@@AAEXAAVCAr@@KKPAEK@Z 0042ee60 f   DPSrvr.obj
 0001:0002df20       ?OnKawibawiboGetItem@CDPSrvr@@AAEXAAVCAr@@KKPAEK@Z 0042ef20 f   DPSrvr.obj
 0001:0002df50       ?OnReassembleStart@CDPSrvr@@AAEXAAVCAr@@KKPAEK@Z 0042ef50 f   DPSrvr.obj
 0001:0002e020       ?OnReassembleOpenWnd@CDPSrvr@@AAEXAAVCAr@@KKPAEK@Z 0042f020 f   DPSrvr.obj
 0001:0002e050       ?OnAlphabetOpenWnd@CDPSrvr@@AAEXAAVCAr@@KKPAEK@Z 0042f050 f   DPSrvr.obj
 0001:0002e080       ?OnFiveSystemOpenWnd@CDPSrvr@@AAEXAAVCAr@@KKPAEK@Z 0042f080 f   DPSrvr.obj
 0001:0002e0b0       ?OnFiveSystemStart@CDPSrvr@@AAEXAAVCAr@@KKPAEK@Z 0042f0b0 f   DPSrvr.obj
 0001:0002e100       ?OnFiveSystemDestroyWnd@CDPSrvr@@AAEXAAVCAr@@KKPAEK@Z 0042f100 f   DPSrvr.obj
 0001:0002e130       ?OnUltimateMakeItem@CDPSrvr@@AAEXAAVCAr@@KKPAEK@Z 0042f130 f   DPSrvr.obj
 0001:0002e190       ?OnUltimateMakeGem@CDPSrvr@@AAEXAAVCAr@@KKPAEK@Z 0042f190 f   DPSrvr.obj
 0001:0002e200       ?OnUltimateTransWeapon@CDPSrvr@@AAEXAAVCAr@@KKPAEK@Z 0042f200 f   DPSrvr.obj
 0001:0002e290       ?OnUltimateSetGem@CDPSrvr@@AAEXAAVCAr@@KKPAEK@Z 0042f290 f   DPSrvr.obj
 0001:0002e310       ?OnUltimateRemoveGem@CDPSrvr@@AAEXAAVCAr@@KKPAEK@Z 0042f310 f   DPSrvr.obj
 0001:0002e4c0       ?OnUltimateEnchantWeapon@CDPSrvr@@AAEXAAVCAr@@KKPAEK@Z 0042f4c0 f   DPSrvr.obj
 0001:0002e670       ?CreateExpBox@@YAPAVCCommonCtrl@@PAVCUser@@@Z 0042f670 f   DPSrvr.obj
 0001:0002e830       ?OnPetRelease@CDPSrvr@@AAEXAAVCAr@@KKPAEK@Z 0042f830 f   DPSrvr.obj
 0001:0002e890       ?OnPetTamerMistake@CDPSrvr@@AAEXAAVCAr@@KKPAEK@Z 0042f890 f   DPSrvr.obj
 0001:0002e9e0       ?OnPetTamerMiracle@CDPSrvr@@AAEXAAVCAr@@KKPAEK@Z 0042f9e0 f   DPSrvr.obj
 0001:0002eb90       ?OnFeedPocketInactive@CDPSrvr@@AAEXAAVCAr@@KKPAEK@Z 0042fb90 f   DPSrvr.obj
 0001:0002ebe0       ?OnGC1to1TenderOpenWnd@CDPSrvr@@AAEXAAVCAr@@KKPAEK@Z 0042fbe0 f   DPSrvr.obj
 0001:0002ec10       ?OnGC1to1TenderView@CDPSrvr@@AAEXAAVCAr@@KKPAEK@Z 0042fc10 f   DPSrvr.obj
 0001:0002ec40       ?OnGC1to1CancelTender@CDPSrvr@@AAEXAAVCAr@@KKPAEK@Z 0042fc40 f   DPSrvr.obj
 0001:0002ec70       ?OnGC1to1FailedTender@CDPSrvr@@AAEXAAVCAr@@KKPAEK@Z 0042fc70 f   DPSrvr.obj
 0001:0002eca0       ?OnGC1to1MemberLineUpOpenWnd@CDPSrvr@@AAEXAAVCAr@@KKPAEK@Z 0042fca0 f   DPSrvr.obj
 0001:0002ecd0       ?OnGC1to1TeleportToNPC@CDPSrvr@@AAEXAAVCAr@@KKPAEK@Z 0042fcd0 f   DPSrvr.obj
 0001:0002ed00       ?OnGC1to1TeleportToStage@CDPSrvr@@AAEXAAVCAr@@KKPAEK@Z 0042fd00 f   DPSrvr.obj
 0001:0002ed30       ?OnQueryStartCollecting@CDPSrvr@@AAEXAAVCAr@@KKPAEK@Z 0042fd30 f   DPSrvr.obj
 0001:0002ed70       ?OnQueryStopCollecting@CDPSrvr@@AAEXAAVCAr@@KKPAEK@Z 0042fd70 f   DPSrvr.obj
 0001:0002eda0       ?OnQueryGuildBankLogList@CDPSrvr@@AAEXAAVCAr@@KKPAEK@Z 0042fda0 f   DPSrvr.obj
 0001:0002ee30       ?OnHonorListReq@CDPSrvr@@AAEXAAVCAr@@KKPAEK@Z 0042fe30 f   DPSrvr.obj
 0001:0002ee60       ?OnSealCharReq@CDPSrvr@@AAEXAAVCAr@@KKPAEK@Z 0042fe60 f   DPSrvr.obj
 0001:0002f060       ?OnSealCharGetReq@CDPSrvr@@AAEXAAVCAr@@KKPAEK@Z 00430060 f   DPSrvr.obj
 0001:0002f110       ?OnArenaEnter@CDPSrvr@@AAEXAAVCAr@@KKPAEK@Z 00430110 f   DPSrvr.obj
 0001:0002f180       ?OnArenaExit@CDPSrvr@@AAEXAAVCAr@@KKPAEK@Z 00430180 f   DPSrvr.obj
 0001:0002f1e0       ?OnSecretRoomTenderOpenWnd@CDPSrvr@@AAEXAAVCAr@@KKPAEK@Z 004301e0 f   DPSrvr.obj
 0001:0002f210       ?OnSecretRoomTenderCancelReturn@CDPSrvr@@AAEXAAVCAr@@KKPAEK@Z 00430210 f   DPSrvr.obj
 0001:0002f240       ?OnSecretRoomLineUpOpenWnd@CDPSrvr@@AAEXAAVCAr@@KKPAEK@Z 00430240 f   DPSrvr.obj
 0001:0002f270       ?OnSecretRoomEntrance@CDPSrvr@@AAEXAAVCAr@@KKPAEK@Z 00430270 f   DPSrvr.obj
 0001:0002f2a0       ?OnSecretRoomTeleportToNPC@CDPSrvr@@AAEXAAVCAr@@KKPAEK@Z 004302a0 f   DPSrvr.obj
 0001:0002f300       ?OnSecretRoomTenderView@CDPSrvr@@AAEXAAVCAr@@KKPAEK@Z 00430300 f   DPSrvr.obj
 0001:0002f330       ?OnTeleportSecretRoomDungeon@CDPSrvr@@AAEXAAVCAr@@KKPAEK@Z 00430330 f   DPSrvr.obj
 0001:0002f460       ?OnElectionIncVote@CDPSrvr@@AAEXAAVCAr@@KKPAEK@Z 00430460 f   DPSrvr.obj
 0001:0002f4e0       ?OnTransformItem@CDPSrvr@@AAEXAAVCAr@@KKPAEK@Z 004304e0 f   DPSrvr.obj
 0001:0002f580       ?OnDoUseItemInput@CDPSrvr@@AAEXAAVCAr@@KKPAEK@Z 00430580 f   DPSrvr.obj
 0001:0002f640       ?OnClearPetName@CDPSrvr@@AAEXAAVCAr@@KKPAEK@Z 00430640 f   DPSrvr.obj
 0001:0002f6a0       ?OnRainbowRacePrevRankingOpenWnd@CDPSrvr@@AAEXAAVCAr@@KKPAEK@Z 004306a0 f   DPSrvr.obj
 0001:0002f6d0       ?OnRainbowRaceApplicationOpenWnd@CDPSrvr@@AAEXAAVCAr@@KKPAEK@Z 004306d0 f   DPSrvr.obj
 0001:0002f700       ?OnRainbowRaceApplication@CDPSrvr@@AAEXAAVCAr@@KKPAEK@Z 00430700 f   DPSrvr.obj
 0001:0002f730       ?OnRainbowRaceReqFinish@CDPSrvr@@AAEXAAVCAr@@KKPAEK@Z 00430730 f   DPSrvr.obj
 0001:0002f760       ?OnHousingVisitRoom@CDPSrvr@@AAEXAAVCAr@@KKPAEK@Z 00430760 f   DPSrvr.obj
 0001:0002f7d0       ?OnHousingVisitableList@CDPSrvr@@AAEXAAVCAr@@KKPAEK@Z 004307d0 f   DPSrvr.obj
 0001:0002f800       ?OnHousingGoOut@CDPSrvr@@AAEXAAVCAr@@KKPAEK@Z 00430800 f   DPSrvr.obj
 0001:0002f830       ?OnReqQuestNPCPos@CDPSrvr@@AAEXAAVCAr@@KKPAEK@Z 00430830 f   DPSrvr.obj
 0001:0002f8f0       ?OnPropose@CDPSrvr@@AAEXAAVCAr@@KKPAEK@Z 004308f0 f   DPSrvr.obj
 0001:0002f970       ?OnRefuse@CDPSrvr@@AAEXAAVCAr@@KKPAEK@Z 00430970 f   DPSrvr.obj
 0001:0002f9a0       ?OnCouple@CDPSrvr@@AAEXAAVCAr@@KKPAEK@Z 004309a0 f   DPSrvr.obj
 0001:0002f9d0       ?OnDecouple@CDPSrvr@@AAEXAAVCAr@@KKPAEK@Z 004309d0 f   DPSrvr.obj
 0001:0002fa00       ?OnMapKey@CDPSrvr@@AAEXAAVCAr@@KKPAEK@Z 00430a00 f   DPSrvr.obj
 0001:0002fad0       ?OnQuizEventEntrance@CDPSrvr@@AAEXAAVCAr@@KKPAEK@Z 00430ad0 f   DPSrvr.obj
 0001:0002fb10       ?OnBuyGuildHouse@CDPSrvr@@AAEXAAVCAr@@KKPAEK@Z 00430b10 f   DPSrvr.obj
 0001:0002fb40       ?OnGuildHouseEnter@CDPSrvr@@AAEXAAVCAr@@KKPAEK@Z 00430b40 f   DPSrvr.obj
 0001:0002fb70       ?OnGuildHouseGoOut@CDPSrvr@@AAEXAAVCAr@@KKPAEK@Z 00430b70 f   DPSrvr.obj
 0001:0002fba0       ?OnInviteCampusMember@CDPSrvr@@AAEXAAVCAr@@KKPAEK@Z 00430ba0 f   DPSrvr.obj
 0001:0002fc10       ?OnAcceptCampusMember@CDPSrvr@@AAEXAAVCAr@@KKPAEK@Z 00430c10 f   DPSrvr.obj
 0001:0002fc80       ?OnRefuseCampusMember@CDPSrvr@@AAEXAAVCAr@@KKPAEK@Z 00430c80 f   DPSrvr.obj
 0001:0002fd00       ?OnRemoveCampusMember@CDPSrvr@@AAEXAAVCAr@@KKPAEK@Z 00430d00 f   DPSrvr.obj
 0001:0002fd60       ?OnItemSelectAwakeningValue@CDPSrvr@@AAEXAAVCAr@@KKPAEK@Z 00430d60 f   DPSrvr.obj
 0001:0002fe10       ?OnSetPetfilter@CDPSrvr@@AAEXAAVCAr@@KKPAEK@Z 00430e10 f   DPSrvr.obj
 0001:0002fe70       ?OnBaruna@CDPSrvr@@AAEXAAVCAr@@KKPAEK@Z 00430e70 f   DPSrvr.obj
 0001:000302a0       ?OnFashionCombine@CDPSrvr@@AAEXAAVCAr@@KKPAEK@Z 004312a0 f   DPSrvr.obj
 0001:00030540       ?GetEmptyCount@?$CItemContainer@VCItemElem@@@@QAEHXZ 00431540 f i DPSrvr.obj
 0001:00030570       ?GetCount@?$CItemContainer@VCItemElem@@@@QAEHXZ 00431570 f i DPSrvr.obj
 0001:000305a0       ?_Lrotate@?$_Tree@V?$_Tset_traits@KU?$less@K@std@@V?$allocator@K@2@$0A@@std@@@std@@IAEXPAU_Node@?$_Tree_nod@V?$_Tset_traits@KU?$less@K@std@@V?$allocator@K@2@$0A@@std@@@2@@Z 004315a0 f i DPSrvr.obj
 0001:000305a0       ?_Lrotate@?$_Tree@V?$_Tset_traits@HU?$less@H@std@@V?$allocator@H@2@$0A@@std@@@std@@IAEXPAU_Node@?$_Tree_nod@V?$_Tset_traits@HU?$less@H@std@@V?$allocator@H@2@$0A@@std@@@2@@Z 004315a0 f i ProjectCmn.obj
 0001:00030600       ?_Rrotate@?$_Tree@V?$_Tset_traits@HU?$less@H@std@@V?$allocator@H@2@$0A@@std@@@std@@IAEXPAU_Node@?$_Tree_nod@V?$_Tset_traits@HU?$less@H@std@@V?$allocator@H@2@$0A@@std@@@2@@Z 00431600 f i ProjectCmn.obj
 0001:00030600       ?_Rrotate@?$_Tree@V?$_Tset_traits@KU?$less@K@std@@V?$allocator@K@2@$0A@@std@@@std@@IAEXPAU_Node@?$_Tree_nod@V?$_Tset_traits@KU?$less@K@std@@V?$allocator@K@2@$0A@@std@@@2@@Z 00431600 f i DPSrvr.obj
 0001:00030660       ?_Rrotate@?$_Tree@V?$_Tmap_traits@KPAVCChatting@@U?$less@K@std@@V?$allocator@U?$pair@$$CBKPAVCChatting@@@std@@@3@$0A@@std@@@std@@IAEXPAU_Node@?$_Tree_nod@V?$_Tmap_traits@KPAVCChatting@@U?$less@K@std@@V?$allocator@U?$pair@$$CBKPAVCChatting@@@std@@@3@$0A@@std@@@2@@Z 00431660 f i Chatting.obj
 0001:00030660       ?_Rrotate@?$_Tree@V?$_Tmap_traits@HPAVCRespawner@@U?$less@H@std@@V?$allocator@U?$pair@$$CBHPAVCRespawner@@@std@@@3@$0A@@std@@@std@@IAEXPAU_Node@?$_Tree_nod@V?$_Tmap_traits@HPAVCRespawner@@U?$less@H@std@@V?$allocator@U?$pair@$$CBHPAVCRespawner@@@std@@@3@$0A@@std@@@2@@Z 00431660 f i Respawn.obj
 0001:00030660       ?_Rrotate@?$_Tree@V?$_Tmap_traits@KPAVCCampusMember@@U?$less@K@std@@V?$allocator@U?$pair@$$CBKPAVCCampusMember@@@std@@@3@$0A@@std@@@std@@IAEXPAU_Node@?$_Tree_nod@V?$_Tmap_traits@KPAVCCampusMember@@U?$less@K@std@@V?$allocator@U?$pair@$$CBKPAVCCampusMember@@@std@@@3@$0A@@std@@@2@@Z 00431660 f i Campus.obj
 0001:00030660       ?_Rrotate@?$_Tree@V?$_Tmap_traits@PAVCSetItem@@HU?$less@PAVCSetItem@@@std@@V?$allocator@U?$pair@QAVCSetItem@@H@std@@@3@$0A@@std@@@std@@IAEXPAU_Node@?$_Tree_nod@V?$_Tmap_traits@PAVCSetItem@@HU?$less@PAVCSetItem@@@std@@V?$allocator@U?$pair@QAVCSetItem@@H@std@@@3@$0A@@std@@@2@@Z 00431660 f i mover.obj
 0001:00030660       ?_Rrotate@?$_Tree@V?$_Tmap_traits@KPAVCParty@@U?$less@K@std@@V?$allocator@U?$pair@$$CBKPAVCParty@@@std@@@3@$0A@@std@@@std@@IAEXPAU_Node@?$_Tree_nod@V?$_Tmap_traits@KPAVCParty@@U?$less@K@std@@V?$allocator@U?$pair@$$CBKPAVCParty@@@std@@@3@$0A@@std@@@2@@Z 00431660 f i party.obj
 0001:00030660       ?_Rrotate@?$_Tree@V?$_Tmap_traits@KP8CDPSrvr@@AEXAAVCAr@@KKPAEK@ZU?$less@K@std@@V?$allocator@U?$pair@$$CBKP8CDPSrvr@@AEXAAVCAr@@KKPAEK@Z@std@@@4@$0A@@std@@@std@@IAEXPAU_Node@?$_Tree_nod@V?$_Tmap_traits@KP8CDPSrvr@@AEXAAVCAr@@KKPAEK@ZU?$less@K@std@@V?$allocator@U?$pair@$$CBKP8CDPSrvr@@AEXAAVCAr@@KKPAEK@Z@std@@@4@$0A@@std@@@2@@Z 00431660 f i DPSrvr.obj
 0001:00030660       ?_Rrotate@?$_Tree@V?$_Tmap_traits@EPAU__TAXDETAIL@@U?$less@E@std@@V?$allocator@U?$pair@$$CBEPAU__TAXDETAIL@@@std@@@3@$0A@@std@@@std@@IAEXPAU_Node@?$_Tree_nod@V?$_Tmap_traits@EPAU__TAXDETAIL@@U?$less@E@std@@V?$allocator@U?$pair@$$CBEPAU__TAXDETAIL@@@std@@@3@$0A@@std@@@2@@Z 00431660 f i Tax.obj
 0001:00030660       ?_Rrotate@?$_Tree@V?$_Tmap_traits@KPAVCUser@@U?$less@K@std@@V?$allocator@U?$pair@$$CBKPAVCUser@@@std@@@3@$0A@@std@@@std@@IAEXPAU_Node@?$_Tree_nod@V?$_Tmap_traits@KPAVCUser@@U?$less@K@std@@V?$allocator@U?$pair@$$CBKPAVCUser@@@std@@@3@$0A@@std@@@2@@Z 00431660 f i LinkMap.obj
 0001:00030660       ?_Rrotate@?$_Tree@V?$_Tmap_traits@HHU?$less@H@std@@V?$allocator@U?$pair@$$CBHH@std@@@2@$0A@@std@@@std@@IAEXPAU_Node@?$_Tree_nod@V?$_Tmap_traits@HHU?$less@H@std@@V?$allocator@U?$pair@$$CBHH@std@@@2@$0A@@std@@@2@@Z 00431660 f i ItemUpgrade.obj
 0001:00030660       ?_Rrotate@?$_Tree@V?$_Tmap_traits@KV?$CStringT@DV?$StrTraitMFC@DV?$ChTraitsCRT@D@ATL@@@@@ATL@@U?$less@K@std@@V?$allocator@U?$pair@$$CBKV?$CStringT@DV?$StrTraitMFC@DV?$ChTraitsCRT@D@ATL@@@@@ATL@@@std@@@4@$0A@@std@@@std@@IAEXPAU_Node@?$_Tree_nod@V?$_Tmap_traits@KV?$CStringT@DV?$StrTraitMFC@DV?$ChTraitsCRT@D@ATL@@@@@ATL@@U?$less@K@std@@V?$allocator@U?$pair@$$CBKV?$CStringT@DV?$StrTraitMFC@DV?$ChTraitsCRT@D@ATL@@@@@ATL@@@std@@@4@$0A@@std@@@2@@Z 00431660 f i DPCoreClient.obj
 0001:00030660       ?_Rrotate@?$_Tree@V?$_Tmap_traits@HV?$CStringT@DV?$StrTraitMFC@DV?$ChTraitsCRT@D@ATL@@@@@ATL@@U?$less@H@std@@V?$allocator@U?$pair@$$CBHV?$CStringT@DV?$StrTraitMFC@DV?$ChTraitsCRT@D@ATL@@@@@ATL@@@std@@@4@$0A@@std@@@std@@IAEXPAU_Node@?$_Tree_nod@V?$_Tmap_traits@HV?$CStringT@DV?$StrTraitMFC@DV?$ChTraitsCRT@D@ATL@@@@@ATL@@U?$less@H@std@@V?$allocator@U?$pair@$$CBHV?$CStringT@DV?$StrTraitMFC@DV?$ChTraitsCRT@D@ATL@@@@@ATL@@@std@@@4@$0A@@std@@@2@@Z 00431660 f i MiniGame.obj
 0001:00030660       ?_Rrotate@?$_Tree@V?$_Tmap_traits@EPAU__TAXINFO@@U?$less@E@std@@V?$allocator@U?$pair@$$CBEPAU__TAXINFO@@@std@@@3@$0A@@std@@@std@@IAEXPAU_Node@?$_Tree_nod@V?$_Tmap_traits@EPAU__TAXINFO@@U?$less@E@std@@V?$allocator@U?$pair@$$CBEPAU__TAXINFO@@@std@@@3@$0A@@std@@@2@@Z 00431660 f i Tax.obj
 0001:00030660       ?_Rrotate@?$_Tree@V?$_Tmap_traits@KPAVCClientSockE@@U?$less@K@std@@V?$allocator@U?$pair@$$CBKPAVCClientSockE@@@std@@@3@$0A@@std@@@std@@IAEXPAU_Node@?$_Tree_nod@V?$_Tmap_traits@KPAVCClientSockE@@U?$less@K@std@@V?$allocator@U?$pair@$$CBKPAVCClientSockE@@@std@@@3@$0A@@std@@@2@@Z 00431660 f i serversocke.obj
 0001:00030660       ?_Rrotate@?$_Tree@V?$_Tmap_traits@HPAVCFSMstate@@U?$less@H@std@@V?$allocator@U?$pair@$$CBHPAVCFSMstate@@@std@@@3@$0A@@std@@@std@@IAEXPAU_Node@?$_Tree_nod@V?$_Tmap_traits@HPAVCFSMstate@@U?$less@H@std@@V?$allocator@U?$pair@$$CBHPAVCFSMstate@@@std@@@3@$0A@@std@@@2@@Z 00431660 f i FSM.obj
 0001:00030660       ?_Rrotate@?$_Tree@V?$_Tmap_traits@KPAVCGuildMember@@U?$less@K@std@@V?$allocator@U?$pair@$$CBKPAVCGuildMember@@@std@@@3@$0A@@std@@@std@@IAEXPAU_Node@?$_Tree_nod@V?$_Tmap_traits@KPAVCGuildMember@@U?$less@K@std@@V?$allocator@U?$pair@$$CBKPAVCGuildMember@@@std@@@3@$0A@@std@@@2@@Z 00431660 f i guild.obj
 0001:00030660       ?_Rrotate@?$_Tree@V?$_Tmap_traits@KPAVIBuff@@U?$less@K@std@@V?$allocator@U?$pair@$$CBKPAVIBuff@@@std@@@3@$0A@@std@@@std@@IAEXPAU_Node@?$_Tree_nod@V?$_Tmap_traits@KPAVIBuff@@U?$less@K@std@@V?$allocator@U?$pair@$$CBKPAVIBuff@@@std@@@3@$0A@@std@@@2@@Z 00431660 f i buff.obj
 0001:00030660       ?_Rrotate@?$_Tree@V?$_Tmap_traits@KP8CDPDatabaseClient@@AEXAAVCAr@@KK@ZU?$less@K@std@@V?$allocator@U?$pair@$$CBKP8CDPDatabaseClient@@AEXAAVCAr@@KK@Z@std@@@4@$0A@@std@@@std@@IAEXPAU_Node@?$_Tree_nod@V?$_Tmap_traits@KP8CDPDatabaseClient@@AEXAAVCAr@@KK@ZU?$less@K@std@@V?$allocator@U?$pair@$$CBKP8CDPDatabaseClient@@AEXAAVCAr@@KK@Z@std@@@4@$0A@@std@@@2@@Z 00431660 f i DPDatabaseClient.obj
 0001:00030660       ?_Rrotate@?$_Tree@V?$_Tmap_traits@HPAVCSetItem@@U?$less@H@std@@V?$allocator@U?$pair@$$CBHPAVCSetItem@@@std@@@3@$0A@@std@@@std@@IAEXPAU_Node@?$_Tree_nod@V?$_Tmap_traits@HPAVCSetItem@@U?$less@H@std@@V?$allocator@U?$pair@$$CBHPAVCSetItem@@@std@@@3@$0A@@std@@@2@@Z 00431660 f i Project.obj
 0001:00030660       ?_Rrotate@?$_Tree@V?$_Tmap_traits@KPAVCHousing@@U?$less@K@std@@V?$allocator@U?$pair@$$CBKPAVCHousing@@@std@@@3@$0A@@std@@@std@@IAEXPAU_Node@?$_Tree_nod@V?$_Tmap_traits@KPAVCHousing@@U?$less@K@std@@V?$allocator@U?$pair@$$CBKPAVCHousing@@@std@@@3@$0A@@std@@@2@@Z 00431660 f i Housing.obj
 0001:00030660       ?_Rrotate@?$_Tree@V?$_Tmap_traits@HPAV?$list@PAVCEventItem@@V?$allocator@PAVCEventItem@@@std@@@std@@U?$less@H@2@V?$allocator@U?$pair@$$CBHPAV?$list@PAVCEventItem@@V?$allocator@PAVCEventItem@@@std@@@std@@@std@@@2@$0A@@std@@@std@@IAEXPAU_Node@?$_Tree_nod@V?$_Tmap_traits@HPAV?$list@PAVCEventItem@@V?$allocator@PAVCEventItem@@@std@@@std@@U?$less@H@2@V?$allocator@U?$pair@$$CBHPAV?$list@PAVCEventItem@@V?$allocator@PAVCEventItem@@@std@@@std@@@std@@@2@$0A@@std@@@2@@Z 00431660 f i spevent.obj
 0001:00030660       ?_Rrotate@?$_Tree@V?$_Tmap_traits@KPAVCMover@@U?$less@K@std@@V?$allocator@U?$pair@$$CBKPAVCMover@@@std@@@3@$0A@@std@@@std@@IAEXPAU_Node@?$_Tree_nod@V?$_Tmap_traits@KPAVCMover@@U?$less@K@std@@V?$allocator@U?$pair@$$CBKPAVCMover@@@std@@@3@$0A@@std@@@2@@Z 00431660 f i Project.obj
 0001:00030660       ?_Rrotate@?$_Tree@V?$_Tmap_traits@HHU?$less@H@std@@V?$allocator@U?$pair@$$CBHH@std@@@2@$00@std@@@std@@IAEXPAU_Node@?$_Tree_nod@V?$_Tmap_traits@HHU?$less@H@std@@V?$allocator@U?$pair@$$CBHH@std@@@2@$00@std@@@2@@Z 00431660 f i GuildCombat1to1.obj
 0001:00030660       ?_Rrotate@?$_Tree@V?$_Tmap_traits@KPAVCCouple@@U?$less@K@std@@V?$allocator@U?$pair@$$CBKPAVCCouple@@@std@@@3@$0A@@std@@@std@@IAEXPAU_Node@?$_Tree_nod@V?$_Tmap_traits@KPAVCCouple@@U?$less@K@std@@V?$allocator@U?$pair@$$CBKPAVCCouple@@@std@@@3@$0A@@std@@@2@@Z 00431660 f i couple.obj
 0001:00030660       ?_Rrotate@?$_Tree@V?$_Tmap_traits@KPAVCGuild@@U?$less@K@std@@V?$allocator@U?$pair@$$CBKPAVCGuild@@@std@@@3@$0A@@std@@@std@@IAEXPAU_Node@?$_Tree_nod@V?$_Tmap_traits@KPAVCGuild@@U?$less@K@std@@V?$allocator@U?$pair@$$CBKPAVCGuild@@@std@@@3@$0A@@std@@@2@@Z 00431660 f i guild.obj
 0001:00030660       ?_Rrotate@?$_Tree@V?$_Tmap_traits@KPAVCRainbowRace@@U?$less@K@std@@V?$allocator@U?$pair@$$CBKPAVCRainbowRace@@@std@@@3@$0A@@std@@@std@@IAEXPAU_Node@?$_Tree_nod@V?$_Tmap_traits@KPAVCRainbowRace@@U?$less@K@std@@V?$allocator@U?$pair@$$CBKPAVCRainbowRace@@@std@@@3@$0A@@std@@@2@@Z 00431660 f i RainbowRace.obj
 0001:00030660       ?_Rrotate@?$_Tree@V?$_Tmap_traits@EPAVCSecretRoomContinent@@U?$less@E@std@@V?$allocator@U?$pair@$$CBEPAVCSecretRoomContinent@@@std@@@3@$0A@@std@@@std@@IAEXPAU_Node@?$_Tree_nod@V?$_Tmap_traits@EPAVCSecretRoomContinent@@U?$less@E@std@@V?$allocator@U?$pair@$$CBEPAVCSecretRoomContinent@@@std@@@3@$0A@@std@@@2@@Z 00431660 f i SecretRoom.obj
 0001:00030660       ?_Rrotate@?$_Tree@V?$_Tmap_traits@KPAUAMP_STORE_INFO@@U?$less@K@std@@V?$allocator@U?$pair@$$CBKPAUAMP_STORE_INFO@@@std@@@3@$0A@@std@@@std@@IAEXPAU_Node@?$_Tree_nod@V?$_Tmap_traits@KPAUAMP_STORE_INFO@@U?$less@K@std@@V?$allocator@U?$pair@$$CBKPAUAMP_STORE_INFO@@@std@@@3@$0A@@std@@@2@@Z 00431660 f i Project.obj
 0001:00030660       ?_Rrotate@?$_Tree@V?$_Tmap_traits@KPAVCCampus@@U?$less@K@std@@V?$allocator@U?$pair@$$CBKPAVCCampus@@@std@@@3@$0A@@std@@@std@@IAEXPAU_Node@?$_Tree_nod@V?$_Tmap_traits@KPAVCCampus@@U?$less@K@std@@V?$allocator@U?$pair@$$CBKPAVCCampus@@@std@@@3@$0A@@std@@@2@@Z 00431660 f i Campus.obj
 0001:00030660       ?_Rrotate@?$_Tree@V?$_Tmap_traits@KPAVCSetItem@@U?$less@K@std@@V?$allocator@U?$pair@$$CBKPAVCSetItem@@@std@@@3@$0A@@std@@@std@@IAEXPAU_Node@?$_Tree_nod@V?$_Tmap_traits@KPAVCSetItem@@U?$less@K@std@@V?$allocator@U?$pair@$$CBKPAVCSetItem@@@std@@@3@$0A@@std@@@2@@Z 00431660 f i Project.obj
 0001:00030660       ?_Rrotate@?$_Tree@V?$_Tmap_traits@HPAVCLinkMap@@U?$less@H@std@@V?$allocator@U?$pair@$$CBHPAVCLinkMap@@@std@@@3@$0A@@std@@@std@@IAEXPAU_Node@?$_Tree_nod@V?$_Tmap_traits@HPAVCLinkMap@@U?$less@H@std@@V?$allocator@U?$pair@$$CBHPAVCLinkMap@@@std@@@3@$0A@@std@@@2@@Z 00431660 f i layeredlinkmap.obj
 0001:00030660       ?_Rrotate@?$_Tree@V?$_Tmap_traits@HPAVCTransformItemComponent@@U?$less@H@std@@V?$allocator@U?$pair@$$CBHPAVCTransformItemComponent@@@std@@@3@$0A@@std@@@std@@IAEXPAU_Node@?$_Tree_nod@V?$_Tmap_traits@HPAVCTransformItemComponent@@U?$less@H@std@@V?$allocator@U?$pair@$$CBHPAVCTransformItemComponent@@@std@@@3@$0A@@std@@@2@@Z 00431660 f i pet.obj
 0001:00030660       ?_Rrotate@?$_Tree@V?$_Tmap_traits@KHU?$less@K@std@@V?$allocator@U?$pair@$$CBKH@std@@@2@$0A@@std@@@std@@IAEXPAU_Node@?$_Tree_nod@V?$_Tmap_traits@KHU?$less@K@std@@V?$allocator@U?$pair@$$CBKH@std@@@2@$0A@@std@@@2@@Z 00431660 f i CreateMonster.obj
 0001:00030660       ?_Rrotate@?$_Tree@V?$_Tmap_traits@KPAUCREATE_MONSTER_PROP@@U?$less@K@std@@V?$allocator@U?$pair@$$CBKPAUCREATE_MONSTER_PROP@@@std@@@3@$0A@@std@@@std@@IAEXPAU_Node@?$_Tree_nod@V?$_Tmap_traits@KPAUCREATE_MONSTER_PROP@@U?$less@K@std@@V?$allocator@U?$pair@$$CBKPAUCREATE_MONSTER_PROP@@@std@@@3@$0A@@std@@@2@@Z 00431660 f i CreateMonster.obj
 0001:00030660       ?_Rrotate@?$_Tree@V?$_Tmap_traits@KPAVCGuildWar@@U?$less@K@std@@V?$allocator@U?$pair@$$CBKPAVCGuildWar@@@std@@@3@$0A@@std@@@std@@IAEXPAU_Node@?$_Tree_nod@V?$_Tmap_traits@KPAVCGuildWar@@U?$less@K@std@@V?$allocator@U?$pair@$$CBKPAVCGuildWar@@@std@@@3@$0A@@std@@@2@@Z 00431660 f i guildwar.obj
 0001:00030660       ?_Rrotate@?$_Tree@V?$_Tmap_traits@HMU?$less@H@std@@V?$allocator@U?$pair@$$CBHM@std@@@2@$0A@@std@@@std@@IAEXPAU_Node@?$_Tree_nod@V?$_Tmap_traits@HMU?$less@H@std@@V?$allocator@U?$pair@$$CBHM@std@@@2@$0A@@std@@@2@@Z 00431660 f i GuildHouse.obj
 0001:00030660       ?_Rrotate@?$_Tree@V?$_Tmap_traits@KPAVCGuildHouseBase@@U?$less@K@std@@V?$allocator@U?$pair@$$CBKPAVCGuildHouseBase@@@std@@@3@$0A@@std@@@std@@IAEXPAU_Node@?$_Tree_nod@V?$_Tmap_traits@KPAVCGuildHouseBase@@U?$less@K@std@@V?$allocator@U?$pair@$$CBKPAVCGuildHouseBase@@@std@@@3@$0A@@std@@@2@@Z 00431660 f i GuildHouse.obj
 0001:00030660       ?_Rrotate@?$_Tree@V?$_Tmap_traits@HPAVCSpawn@@U?$less@H@std@@V?$allocator@U?$pair@$$CBHPAVCSpawn@@@std@@@3@$0A@@std@@@std@@IAEXPAU_Node@?$_Tree_nod@V?$_Tmap_traits@HPAVCSpawn@@U?$less@H@std@@V?$allocator@U?$pair@$$CBHPAVCSpawn@@@std@@@3@$0A@@std@@@2@@Z 00431660 f i spevent.obj
 0001:00030660       ?_Rrotate@?$_Tree@V?$_Tmap_traits@HKU?$less@H@std@@V?$allocator@U?$pair@$$CBHK@std@@@2@$0A@@std@@@std@@IAEXPAU_Node@?$_Tree_nod@V?$_Tmap_traits@HKU?$less@H@std@@V?$allocator@U?$pair@$$CBHK@std@@@2@$0A@@std@@@2@@Z 00431660 f i CampusHelper.obj
 0001:00030660       ?_Rrotate@?$_Tree@V?$_Tmap_traits@KPAVCCtrl@@U?$less@K@std@@V?$allocator@U?$pair@$$CBKPAVCCtrl@@@std@@@3@$0A@@std@@@std@@IAEXPAU_Node@?$_Tree_nod@V?$_Tmap_traits@KPAVCCtrl@@U?$less@K@std@@V?$allocator@U?$pair@$$CBKPAVCCtrl@@@std@@@3@$0A@@std@@@2@@Z 00431660 f i LinkMap.obj
 0001:00030660       ?_Rrotate@?$_Tree@V?$_Tmap_traits@KPAV?$vector@U_SINGLE_DST@@V?$allocator@U_SINGLE_DST@@@std@@@std@@U?$less@K@2@V?$allocator@U?$pair@$$CBKPAV?$vector@U_SINGLE_DST@@V?$allocator@U_SINGLE_DST@@@std@@@std@@@std@@@2@$0A@@std@@@std@@IAEXPAU_Node@?$_Tree_nod@V?$_Tmap_traits@KPAV?$vector@U_SINGLE_DST@@V?$allocator@U_SINGLE_DST@@@std@@@std@@U?$less@K@2@V?$allocator@U?$pair@$$CBKPAV?$vector@U_SINGLE_DST@@V?$allocator@U_SINGLE_DST@@@std@@@std@@@std@@@2@$0A@@std@@@2@@Z 00431660 f i accessory.obj
 0001:00030660       ?_Rrotate@?$_Tree@V?$_Tmap_traits@KKU?$less@K@std@@V?$allocator@U?$pair@$$CBKK@std@@@2@$0A@@std@@@std@@IAEXPAU_Node@?$_Tree_nod@V?$_Tmap_traits@KKU?$less@K@std@@V?$allocator@U?$pair@$$CBKK@std@@@2@$0A@@std@@@2@@Z 00431660 f i Campus.obj
 0001:00030660       ?_Rrotate@?$_Tree@V?$_Tmap_traits@KPAVCClientSock@@U?$less@K@std@@V?$allocator@U?$pair@$$CBKPAVCClientSock@@@std@@@3@$0A@@std@@@std@@IAEXPAU_Node@?$_Tree_nod@V?$_Tmap_traits@KPAVCClientSock@@U?$less@K@std@@V?$allocator@U?$pair@$$CBKPAVCClientSock@@@std@@@3@$0A@@std@@@2@@Z 00431660 f i serversock.obj
 0001:00030660       ?_Rrotate@?$_Tree@V?$_Tmap_traits@KP8CDPCoreClient@@AEXAAVCAr@@KKK@ZU?$less@K@std@@V?$allocator@U?$pair@$$CBKP8CDPCoreClient@@AEXAAVCAr@@KKK@Z@std@@@4@$0A@@std@@@std@@IAEXPAU_Node@?$_Tree_nod@V?$_Tmap_traits@KP8CDPCoreClient@@AEXAAVCAr@@KKK@ZU?$less@K@std@@V?$allocator@U?$pair@$$CBKP8CDPCoreClient@@AEXAAVCAr@@KKK@Z@std@@@4@$0A@@std@@@2@@Z 00431660 f i DPCoreClient.obj
 0001:00030660       ?_Rrotate@?$_Tree@V?$_Tmap_traits@KEU?$less@K@std@@V?$allocator@U?$pair@$$CBKE@std@@@2@$0A@@std@@@std@@IAEXPAU_Node@?$_Tree_nod@V?$_Tmap_traits@KEU?$less@K@std@@V?$allocator@U?$pair@$$CBKE@std@@@2@$0A@@std@@@2@@Z 00431660 f i EventLua.obj
 0001:00030660       ?_Rrotate@?$_Tree@V?$_Tmap_traits@KPAVCMailBox@@U?$less@K@std@@V?$allocator@U?$pair@$$CBKPAVCMailBox@@@std@@@3@$0A@@std@@@std@@IAEXPAU_Node@?$_Tree_nod@V?$_Tmap_traits@KPAVCMailBox@@U?$less@K@std@@V?$allocator@U?$pair@$$CBKPAVCMailBox@@@std@@@3@$0A@@std@@@2@@Z 00431660 f i post.obj
 0001:00030660       ?_Rrotate@?$_Tree@V?$_Tmap_traits@KPAVCColosseumMatch@@U?$less@K@std@@V?$allocator@U?$pair@$$CBKPAVCColosseumMatch@@@std@@@3@$0A@@std@@@std@@IAEXPAU_Node@?$_Tree_nod@V?$_Tmap_traits@KPAVCColosseumMatch@@U?$less@K@std@@V?$allocator@U?$pair@$$CBKPAVCColosseumMatch@@@std@@@3@$0A@@std@@@2@@Z 00431660 f i Colosseum.obj
 0001:00030660       ?_Rrotate@?$_Tree@V?$_Tmap_traits@KPAU_PlayerData@@U?$less@K@std@@V?$allocator@U?$pair@$$CBKPAU_PlayerData@@@std@@@3@$0A@@std@@@std@@IAEXPAU_Node@?$_Tree_nod@V?$_Tmap_traits@KPAU_PlayerData@@U?$less@K@std@@V?$allocator@U?$pair@$$CBKPAU_PlayerData@@@std@@@3@$0A@@std@@@2@@Z 00431660 f i playerdata.obj
 0001:000306c0       ?GetSkillProp@CProject@@QAEPAUItemProp@@H@Z 004316c0 f i DPSrvr.obj
 0001:00030710       ?_Dec@const_iterator@?$_Tree@V?$_Tset_traits@KU?$less@K@std@@V?$allocator@K@2@$0A@@std@@@std@@QAEXXZ 00431710 f i DPSrvr.obj
 0001:00030710       ?_Dec@const_iterator@?$_Tree@V?$_Tset_traits@HU?$less@H@std@@V?$allocator@H@2@$0A@@std@@@std@@QAEXXZ 00431710 f i ProjectCmn.obj
 0001:00030770       ?Swap@?$CItemContainer@VCItemElem@@@@QAEXKK@Z 00431770 f i DPSrvr.obj
 0001:00030890       ?Add@?$CItemContainer@VCItemElem@@@@QAEHPAVCItemElem@@PAEPAF1@Z 00431890 f i DPSrvr.obj
 0001:00030b70       ?_Inc@const_iterator@?$_Tree@V?$_Tmap_traits@HU_CHAO_PROPENSITY@@U?$less@H@std@@V?$allocator@U?$pair@$$CBHU_CHAO_PROPENSITY@@@std@@@3@$0A@@std@@@std@@QAEXXZ 00431b70 f i DPSrvr.obj
 0001:00030bd0       ?Serialize@__MINIGAME_PACKET@@UAEXAAVCAr@@@Z 00431bd0 f i DPSrvr.obj
 0001:00030cf0       ?OnDoEquip@CDPSrvr@@AAEXAAVCAr@@KKPAEK@Z 00431cf0 f   DPSrvr.obj
 0001:00030e50       ?OnMoveItem@CDPSrvr@@AAEXAAVCAr@@KKPAEK@Z 00431e50 f   DPSrvr.obj
 0001:00030f50       ?OnDropItem@CDPSrvr@@AAEXAAVCAr@@KKPAEK@Z 00431f50 f   DPSrvr.obj
 0001:00031030       ?OnScriptDialogReq@CDPSrvr@@AAEXAAVCAr@@KKPAEK@Z 00432030 f   DPSrvr.obj
 0001:00031390       ?OnRevival@CDPSrvr@@AAEXAAVCAr@@KKPAEK@Z 00432390 f   DPSrvr.obj
 0001:00031590       ?OnRevivalLodestar@CDPSrvr@@AAEXAAVCAr@@KKPAEK@Z 00432590 f   DPSrvr.obj
 0001:000318d0       ?OnIncStatLevel@CDPSrvr@@AAEXAAVCAr@@KKPAEK@Z 004328d0 f   DPSrvr.obj
 0001:000319a0       ?OnPartyRequestCancle@CDPSrvr@@AAEXAAVCAr@@KKPAEK@Z 004329a0 f   DPSrvr.obj
 0001:00031a20       ?OnPartySkillUse@CDPSrvr@@AAEXAAVCAr@@KKPAEK@Z 00432a20 f   DPSrvr.obj
 0001:00031ab0       ?OnAddFriendReqest@CDPSrvr@@AAEXAAVCAr@@KKPAEK@Z 00432ab0 f   DPSrvr.obj
 0001:00031c10       ?OnActionPoint@CDPSrvr@@AAEXAAVCAr@@KKPAEK@Z 00432c10 f   DPSrvr.obj
 0001:00031c60       ?OnQueryPlayerData@CDPSrvr@@AAEXAAVCAr@@KKPAEK@Z 00432c60 f   DPSrvr.obj
 0001:00031ce0       ?OnQueryPlayerData2@CDPSrvr@@AAEXAAVCAr@@KKPAEK@Z 00432ce0 f   DPSrvr.obj
 0001:00031d90       ?OnDuelYes@CDPSrvr@@AAEXAAVCAr@@KKPAEK@Z 00432d90 f   DPSrvr.obj
 0001:00031f80       ?OnDuelPartyYes@CDPSrvr@@AAEXAAVCAr@@KKPAEK@Z 00432f80 f   DPSrvr.obj
 0001:00032100       ?OnSkillTaskBar@CDPSrvr@@AAEXAAVCAr@@KKPAEK@Z 00433100 f   DPSrvr.obj
 0001:000322b0       ?OnPlayerMoved@CDPSrvr@@AAEXAAVCAr@@KKPAEK@Z 004332b0 f   DPSrvr.obj
 0001:00032600       ?OnPlayerBehavior@CDPSrvr@@AAEXAAVCAr@@KKPAEK@Z 00433600 f   DPSrvr.obj
 0001:000327a0       ?OnPlayerMoved2@CDPSrvr@@AAEXAAVCAr@@KKPAEK@Z 004337a0 f   DPSrvr.obj
 0001:00032a60       ?OnPlayerBehavior2@CDPSrvr@@AAEXAAVCAr@@KKPAEK@Z 00433a60 f   DPSrvr.obj
 0001:00032c10       ?OnDoUseItem@CDPSrvr@@AAEXAAVCAr@@KKPAEK@Z 00433c10 f   DPSrvr.obj
 0001:00032db0       ?OnPlayerCorr@CDPSrvr@@AAEXAAVCAr@@KKPAEK@Z 00433db0 f   DPSrvr.obj
 0001:00032ff0       ?OnPlayerCorr2@CDPSrvr@@AAEXAAVCAr@@KKPAEK@Z 00433ff0 f   DPSrvr.obj
 0001:00033250       ?OnDoUseSkillPoint@CDPSrvr@@AAEXAAVCAr@@KKPAEK@Z 00434250 f   DPSrvr.obj
 0001:00033520       ?UpdateGuildBank@CDPSrvr@@QAEXPAVCGuild@@HEKPAVCItemElem@@KF@Z 00434520 f   DPSrvr.obj
 0001:000337d0       ?OnSfxHit@CDPSrvr@@AAEXAAVCAr@@KKPAEK@Z 004347d0 f   DPSrvr.obj
 0001:00033930       ?OnSfxID@CDPSrvr@@AAEXAAVCAr@@KKPAEK@Z 00434930 f   DPSrvr.obj
 0001:00033a00       ?OnSfxClear@CDPSrvr@@AAEXAAVCAr@@KKPAEK@Z 00434a00 f   DPSrvr.obj
 0001:00033a80       ?OnSnapshot@CDPSrvr@@AAEXAAVCAr@@KKPAEK@Z 00434a80 f   DPSrvr.obj
 0001:00033b00       ?OnChangeFace@CDPSrvr@@AAEXAAVCAr@@KKPAEK@Z 00434b00 f   DPSrvr.obj
 0001:00033c30       ?OnLogItem@CDPSrvr@@QAEXAAU_LogItemInfo@@PAVCItemElem@@H@Z 00434c30 f   DPSrvr.obj
 0001:00034360       ?OnRepairItem@CDPSrvr@@AAEXAAVCAr@@KKPAEK@Z 00435360 f   DPSrvr.obj
 0001:000345e0       ?OnSetHair@CDPSrvr@@AAEXAAVCAr@@KKPAEK@Z 004355e0 f   DPSrvr.obj
 0001:000347e0       ?OnItemTransy@CDPSrvr@@AAEXAAVCAr@@KKPAEK@Z 004357e0 f   DPSrvr.obj
 0001:00034890       ?OnRemoveAttribute@CDPSrvr@@AAEXAAVCAr@@KKPAEK@Z 00435890 f   DPSrvr.obj
 0001:00034b70       ?OnChangeAttribute@CDPSrvr@@AAEXAAVCAr@@KKPAEK@Z 00435b70 f   DPSrvr.obj
 0001:00034c00       ?OnCommercialElem@CDPSrvr@@AAEXAAVCAr@@KKPAEK@Z 00435c00 f   DPSrvr.obj
 0001:00035040       ?OnNWWantedGold@CDPSrvr@@AAEXAAVCAr@@KKPAEK@Z 00436040 f   DPSrvr.obj
 0001:00035150       ?OnChangeMode@CDPSrvr@@AAEXAAVCAr@@KKPAEK@Z 00436150 f   DPSrvr.obj
 0001:00035210       ?OnQuerySetPlayerName@CDPSrvr@@AAEXAAVCAr@@KKPAEK@Z 00436210 f   DPSrvr.obj
 0001:000353c0       ?OnQuerySetGuildName@CDPSrvr@@AAEXAAVCAr@@KKPAEK@Z 004363c0 f   DPSrvr.obj
 0001:00035560       ?PutCreateItemLog@CDPSrvr@@QAEXPAVCUser@@PAVCItemElem@@PBD2@Z 00436560 f   DPSrvr.obj
 0001:00035690       ?OnDoEscape@CDPSrvr@@AAEXAAVCAr@@KKPAEK@Z 00436690 f   DPSrvr.obj
 0001:00035720       ?OnCheering@CDPSrvr@@AAEXAAVCAr@@KKPAEK@Z 00436720 f   DPSrvr.obj
 0001:000359d0       ?OnQueryEquipSetting@CDPSrvr@@AAEXAAVCAr@@KKPAEK@Z 004369d0 f   DPSrvr.obj
 0001:00035a40       ?OnOptionEnableRenderMask@CDPSrvr@@AAEXAAVCAr@@KKPAEK@Z 00436a40 f   DPSrvr.obj
 0001:00035ab0       ?OnReturnScroll@CDPSrvr@@AAEXAAVCAr@@KKPAEK@Z 00436ab0 f   DPSrvr.obj
 0001:00035b40       ?OnQueryPostMail@CDPSrvr@@AAEXAAVCAr@@KKPAEK@Z 00436b40 f   DPSrvr.obj
 0001:00035fb0       ?OnQueryGetMailItem@CDPSrvr@@AAEXAAVCAr@@KKPAEK@Z 00436fb0 f   DPSrvr.obj
 0001:000361b0       ?OnGCApp@CDPSrvr@@AAEXAAVCAr@@KKPAEK@Z 004371b0 f   DPSrvr.obj
 0001:00036360       ?OnGCSelectMap@CDPSrvr@@AAEXAAVCAr@@KKPAEK@Z 00437360 f   DPSrvr.obj
 0001:000363b0       ?OnSummonParty@CDPSrvr@@AAEXAAVCAr@@KKPAEK@Z 004373b0 f   DPSrvr.obj
 0001:000367c0       ?OnConfirmTrade@CDPSrvr@@AAEXAAVCAr@@KKPAEK@Z 004377c0 f   DPSrvr.obj
 0001:00036910       ?OnTradePut@CDPSrvr@@AAEXAAVCAr@@KKPAEK@Z 00437910 f   DPSrvr.obj
 0001:00036ad0       ?OnTradeCancel@CDPSrvr@@AAEXAAVCAr@@KKPAEK@Z 00437ad0 f   DPSrvr.obj
 0001:00036ba0       ?OnTradelastConfrim@CDPSrvr@@AAEXAAVCAr@@KKPAEK@Z 00437ba0 f   DPSrvr.obj
 0001:00036d90       ?OnBuyPVendorItem@CDPSrvr@@AAEXAAVCAr@@KKPAEK@Z 00437d90 f   DPSrvr.obj
 0001:00037010       ?OnRegisterPVendorItem@CDPSrvr@@AAEXAAVCAr@@KKPAEK@Z 00438010 f   DPSrvr.obj
 0001:00037290       ?OnAngleBuff@CDPSrvr@@AAEXAAVCAr@@KKPAEK@Z 00438290 f   DPSrvr.obj
 0001:00037530       ?OnAlphabetStart@CDPSrvr@@AAEXAAVCAr@@KKPAEK@Z 00438530 f   DPSrvr.obj
 0001:00037660       ?OnFiveSystemBet@CDPSrvr@@AAEXAAVCAr@@KKPAEK@Z 00438660 f   DPSrvr.obj
 0001:00037720       ?OnExchange@CDPSrvr@@AAEXAAVCAr@@KKPAEK@Z 00438720 f   DPSrvr.obj
 0001:000377a0       ?InviteParty@CDPSrvr@@QAEXKKH@Z 004387a0 f   DPSrvr.obj
 0001:000378f0       ?OnMakePetFeed@CDPSrvr@@AAEXAAVCAr@@KKPAEK@Z 004388f0 f   DPSrvr.obj
 0001:00037ca0       ?OnModifyStatus@CDPSrvr@@AAEXAAVCAr@@KKPAEK@Z 00438ca0 f   DPSrvr.obj
 0001:00037e00       ?OnLegendSkillStart@CDPSrvr@@AAEXAAVCAr@@KKPAEK@Z 00438e00 f   DPSrvr.obj
 0001:000381a0       ?OnGC1to1Tender@CDPSrvr@@AAEXAAVCAr@@KKPAEK@Z 004391a0 f   DPSrvr.obj
 0001:00038200       ?OnHonorChangeReq@CDPSrvr@@AAEXAAVCAr@@KKPAEK@Z 00439200 f   DPSrvr.obj
 0001:000382b0       ?OnSealCharConmReq@CDPSrvr@@AAEXAAVCAr@@KKPAEK@Z 004392b0 f   DPSrvr.obj
 0001:00038720       ?OnMoveItemOnPocket@CDPSrvr@@AAEXAAVCAr@@KKPAEK@Z 00439720 f   DPSrvr.obj
 0001:00038960       ?OnAvailPocket@CDPSrvr@@AAEXAAVCAr@@KKPAEK@Z 00439960 f   DPSrvr.obj
 0001:00038ae0       ?OnBlessednessCancel@CDPSrvr@@AAEXAAVCAr@@KKPAEK@Z 00439ae0 f   DPSrvr.obj
 0001:00038c90       ?OnAwakening@CDPSrvr@@AAEXAAVCAr@@KKPAEK@Z 00439c90 f   DPSrvr.obj
 0001:00038eb0       ?OnQuePetResurrection@CDPSrvr@@AAEXAAVCAr@@KKPAEK@Z 00439eb0 f   DPSrvr.obj
 0001:00039090       ?OnSecretRoomTender@CDPSrvr@@AAEXAAVCAr@@KKPAEK@Z 0043a090 f   DPSrvr.obj
 0001:000390f0       ?PutItemLog@CDPSrvr@@QAEXPAVCUser@@PBD1PAVCItemElem@@H@Z 0043a0f0 f   DPSrvr.obj
 0001:000391b0       ?PutPenyaLog@CDPSrvr@@QAEXPAVCUser@@PBD1H@Z 0043a1b0 f   DPSrvr.obj
 0001:00039270       ?OnElectionSetPledge@CDPSrvr@@AAEXAAVCAr@@KKPAEK@Z 0043a270 f   DPSrvr.obj
 0001:00039380       ?OnLEventCreate@CDPSrvr@@AAEXAAVCAr@@KKPAEK@Z 0043a380 f   DPSrvr.obj
 0001:000394e0       ?OnLordSkillUse@CDPSrvr@@AAEXAAVCAr@@KKPAEK@Z 0043a4e0 f   DPSrvr.obj
 0001:000395c0       ?OnSetTaxRate@CDPSrvr@@AAEXAAVCAr@@KKPAEK@Z 0043a5c0 f   DPSrvr.obj
 0001:000396a0       ?DoUseItemTarget_GenRandomOption@CDPSrvr@@QAEHPAVCUser@@PAVCItemElem@@HHHHPBD2@Z 0043a6a0 f   DPSrvr.obj
 0001:00039930       ?DoUseItemTarget_InitializeRandomOption@CDPSrvr@@QAEHPAVCUser@@PAVCItemElem@@HHHPBD2@Z 0043a930 f   DPSrvr.obj
 0001:00039ae0       ?DoUseItemTarget_ItemLevelDown@CDPSrvr@@QAEHPAVCUser@@PAVCItemElem@@1@Z 0043aae0 f   DPSrvr.obj
 0001:00039c40       ?OnTutorialState@CDPSrvr@@AAEXAAVCAr@@KKPAEK@Z 0043ac40 f   DPSrvr.obj
 0001:00039d30       ?OnPickupPetAwakeningCancel@CDPSrvr@@AAEXAAVCAr@@KKPAEK@Z 0043ad30 f   DPSrvr.obj
 0001:00039e80       ?OnHousingSetupFurniture@CDPSrvr@@AAEXAAVCAr@@KKPAEK@Z 0043ae80 f   DPSrvr.obj
 0001:00039f10       ?OnHousingSetVisitAllow@CDPSrvr@@AAEXAAVCAr@@KKPAEK@Z 0043af10 f   DPSrvr.obj
 0001:00039f80       ?OnQuizEventTeleport@CDPSrvr@@AAEXAAVCAr@@KKPAEK@Z 0043af80 f   DPSrvr.obj
 0001:00039fe0       ?OnRemoveVis@CDPSrvr@@AAEXAAVCAr@@KKPAEK@Z 0043afe0 f   DPSrvr.obj
 0001:0003a040       ?OnSwapVis@CDPSrvr@@AAEXAAVCAr@@KKPAEK@Z 0043b040 f   DPSrvr.obj
 0001:0003a0b0       ?OnGuildHousePacket@CDPSrvr@@AAEXAAVCAr@@KKPAEK@Z 0043b0b0 f   DPSrvr.obj
 0001:0003a180       ?OnCheckedQuest@CDPSrvr@@AAEXAAVCAr@@KKPAEK@Z 0043b180 f   DPSrvr.obj
 0001:0003a330       ?OnColosseum@CDPSrvr@@AAEXAAVCAr@@KKPAEK@Z 0043b330 f   DPSrvr.obj
 0001:0003a4e0       ?OnUpdateJob@CDPSrvr@@AAEXAAVCAr@@KKPAEK@Z 0043b4e0 f   DPSrvr.obj
 0001:0003a610       ?GetAt@?$CSimpleStringT@D$0A@@ATL@@QBEDH@Z 0043b610 f i DPSrvr.obj
 0001:0003a630       ?_Buynode@?$_Tree@V?$_Tset_traits@KU?$less@K@std@@V?$allocator@K@2@$0A@@std@@@std@@IAEPAU_Node@?$_Tree_nod@V?$_Tset_traits@KU?$less@K@std@@V?$allocator@K@2@$0A@@std@@@2@PAU342@00ABKD@Z 0043b630 f i DPSrvr.obj
 0001:0003a630       ?_Buynode@?$_Tree@V?$_Tset_traits@HU?$less@H@std@@V?$allocator@H@2@$0A@@std@@@std@@IAEPAU_Node@?$_Tree_nod@V?$_Tset_traits@HU?$less@H@std@@V?$allocator@H@2@$0A@@std@@@2@PAU342@00ABHD@Z 0043b630 f i ProjectCmn.obj
 0001:0003a670       ?IsFeed@CItemElem@@QAEHXZ  0043b670 f i DPSrvr.obj
 0001:0003a6c0       ?_Erase@?$_Tree@V?$_Tset_traits@KU?$less@K@std@@V?$allocator@K@2@$0A@@std@@@std@@IAEXPAU_Node@?$_Tree_nod@V?$_Tset_traits@KU?$less@K@std@@V?$allocator@K@2@$0A@@std@@@2@@Z 0043b6c0 f i DPSrvr.obj
 0001:0003a700       ?_Erase@?$_Tree@V?$_Tmap_traits@KP8CDPSrvr@@AEXAAVCAr@@KKPAEK@ZU?$less@K@std@@V?$allocator@U?$pair@$$CBKP8CDPSrvr@@AEXAAVCAr@@KKPAEK@Z@std@@@4@$0A@@std@@@std@@IAEXPAU_Node@?$_Tree_nod@V?$_Tmap_traits@KP8CDPSrvr@@AEXAAVCAr@@KKPAEK@ZU?$less@K@std@@V?$allocator@U?$pair@$$CBKP8CDPSrvr@@AEXAAVCAr@@KKPAEK@Z@std@@@4@$0A@@std@@@2@@Z 0043b700 f i DPSrvr.obj
 0001:0003a740       ?JoinPartyByFinder@CDPSrvr@@AAEXAAVCAr@@KKPAEK@Z 0043b740 f   DPSrvr.obj
 0001:0003a7d0       ?OnPartyRequest@CDPSrvr@@AAEXAAVCAr@@KKPAEK@Z 0043b7d0 f   DPSrvr.obj
 0001:0003a860       ?OnGuildContribution@CDPSrvr@@AAEXAAVCAr@@KKPAEK@Z 0043b860 f   DPSrvr.obj
 0001:0003ab00       ?OnSellItem@CDPSrvr@@AAEXAAVCAr@@KKPAEK@Z 0043bb00 f   DPSrvr.obj
 0001:0003ae60       ?OnBankToBank@CDPSrvr@@AAEXAAVCAr@@KKPAEK@Z 0043be60 f   DPSrvr.obj
 0001:0003b260       ?OnPutItemBank@CDPSrvr@@AAEXAAVCAr@@KKPAEK@Z 0043c260 f   DPSrvr.obj
 0001:0003b600       ?OnPutItemGuildBank@CDPSrvr@@AAEXAAVCAr@@KKPAEK@Z 0043c600 f   DPSrvr.obj
 0001:0003b950       ?OnGuildBankMoveItem@CDPSrvr@@AAEXAAVCAr@@KKPAEK@Z 0043c950 f   DPSrvr.obj
 0001:0003ba10       ?OnGetItemBank@CDPSrvr@@AAEXAAVCAr@@KKPAEK@Z 0043ca10 f   DPSrvr.obj
 0001:0003bcd0       ?OnPutGoldBank@CDPSrvr@@AAEXAAVCAr@@KKPAEK@Z 0043ccd0 f   DPSrvr.obj
 0001:0003bee0       ?OnGetGoldBank@CDPSrvr@@AAEXAAVCAr@@KKPAEK@Z 0043cee0 f   DPSrvr.obj
 0001:0003c0f0       ?OnRemoveItemLevelDown@CDPSrvr@@AAEXAAVCAr@@KKPAEK@Z 0043d0f0 f   DPSrvr.obj
 0001:0003c1b0       ?OnDoUseItemTarget@CDPSrvr@@AAEXAAVCAr@@KKPAEK@Z 0043d1b0 f   DPSrvr.obj
 0001:0003c610       ?OnUsePetFeed@CDPSrvr@@AAEXAAVCAr@@KKPAEK@Z 0043d610 f   DPSrvr.obj
 0001:0003c790       ?OnElectionAddDeposit@CDPSrvr@@AAEXAAVCAr@@KKPAEK@Z 0043d790 f   DPSrvr.obj
 0001:0003c840       ?find@?$_Tree@V?$_Tmap_traits@HU_CHAO_PROPENSITY@@U?$less@H@std@@V?$allocator@U?$pair@$$CBHU_CHAO_PROPENSITY@@@std@@@3@$0A@@std@@@std@@QAE?AViterator@12@ABH@Z 0043d840 f i DPSrvr.obj
 0001:0003c8b0       ?UserMessageHandler@CDPSrvr@@UAEXPAUDPMSG_GENERIC@@KK@Z 0043d8b0 f   DPSrvr.obj
 0001:0003c9b0       ??1NaviPoint@@QAE@XZ       0043d9b0 f i DPSrvr.obj
 0001:0003c9e0       ?OnGCGetPenyaGuild@CDPSrvr@@AAEXAAVCAr@@KKPAEK@Z 0043d9e0 f   DPSrvr.obj
 0001:0003cb20       ?OnGCGetPenyaPlayer@CDPSrvr@@AAEXAAVCAr@@KKPAEK@Z 0043db20 f   DPSrvr.obj
 0001:0003cc30       ?OnTeleporterReq@CDPSrvr@@AAEXAAVCAr@@KKPAEK@Z 0043dc30 f   DPSrvr.obj
 0001:0003cd50       ?IsInviteAbleGuild@CDPSrvr@@AAEHPAVCUser@@@Z 0043dd50 f   DPSrvr.obj
 0001:0003ce60       ?GetPropensityPenalty@CProject@@QAE?AU_CHAO_PROPENSITY@@K@Z 0043de60 f i DPSrvr.obj
 0001:0003cf30       ?destroy@?$allocator@V?$basic_string@DU?$char_traits@D@std@@V?$allocator@D@2@@std@@@std@@QAEXPAV?$basic_string@DU?$char_traits@D@std@@V?$allocator@D@2@@2@@Z 0043df30 f i DPSrvr.obj
 0001:0003cf60       ?OnAddUser@CDPSrvr@@AAEXAAVCAr@@KKPAEK@Z 0043df60 f   DPSrvr.obj
 0001:0003d260       ?OnCreateGuildCloak@CDPSrvr@@AAEXAAVCAr@@KKPAEK@Z 0043e260 f   DPSrvr.obj
 0001:0003d510       ?OnOpenShopWnd@CDPSrvr@@AAEXAAVCAr@@KKPAEK@Z 0043e510 f   DPSrvr.obj
 0001:0003d640       ?OnOpenBankWnd@CDPSrvr@@AAEXAAVCAr@@KKPAEK@Z 0043e640 f   DPSrvr.obj
 0001:0003d760       ?OnGetItemGuildBank@CDPSrvr@@AAEXAAVCAr@@KKPAEK@Z 0043e760 f   DPSrvr.obj
 0001:0003dbf0       ?OnRandomScroll@CDPSrvr@@AAEXAAVCAr@@KKPAEK@Z 0043ebf0 f   DPSrvr.obj
 0001:0003e070       ?OnEnterChattingRoom@CDPSrvr@@AAEXAAVCAr@@KKPAEK@Z 0043f070 f   DPSrvr.obj
 0001:0003e160       ?OnChatting@CDPSrvr@@AAEXAAVCAr@@KKPAEK@Z 0043f160 f   DPSrvr.obj
 0001:0003e2a0       ?OnOpenChattingRoom@CDPSrvr@@AAEXAAVCAr@@KKPAEK@Z 0043f2a0 f   DPSrvr.obj
 0001:0003e360       ?OnCloseChattingRoom@CDPSrvr@@AAEXAAVCAr@@KKPAEK@Z 0043f360 f   DPSrvr.obj
 0001:0003e420       ?OnSetNaviPoint@CDPSrvr@@AAEXAAVCAr@@KKPAEK@Z 0043f420 f   DPSrvr.obj
 0001:0003e610       ?OnResurrectionOK@CDPSrvr@@AAEXAAVCAr@@KKPAEK@Z 0043f610 f   DPSrvr.obj
 0001:0003e740       ?OnSummonFriend@CDPSrvr@@AAEXAAVCAr@@KKPAEK@Z 0043f740 f   DPSrvr.obj
 0001:0003ebc0       ?OnSummonFriendConfirm@CDPSrvr@@AAEXAAVCAr@@KKPAEK@Z 0043fbc0 f   DPSrvr.obj
 0001:0003f080       ?OnSummonPartyConfirm@CDPSrvr@@AAEXAAVCAr@@KKPAEK@Z 00440080 f   DPSrvr.obj
 0001:0003f530       ?OnRemoveInvenItem@CDPSrvr@@AAEXAAVCAr@@KKPAEK@Z 00440530 f   DPSrvr.obj
 0001:0003f730       ?OnPVendorOpen@CDPSrvr@@AAEXAAVCAr@@KKPAEK@Z 00440730 f   DPSrvr.obj
 0001:0003f9e0       ?ClosePVendor@CDPSrvr@@QAEHPAVCUser@@K@Z 004409e0 f   DPSrvr.obj
 0001:0003fba0       ?InviteCompany@CDPSrvr@@QAEXPAVCUser@@K@Z 00440ba0 f   DPSrvr.obj
 0001:0003fd10       ?OnTeleportToHeavenTower@CDPSrvr@@AAEXAAVCAr@@KKPAEK@Z 00440d10 f   DPSrvr.obj
 0001:0003ffb0       ?OnBuyItemEx@CDPSrvr@@AAEXAAVCAr@@KKPAEK@Z 00440fb0 f   DPSrvr.obj
 0001:000408d0       ?_Xlen@?$deque@PAUtagACTMSG@@V?$allocator@PAUtagACTMSG@@@std@@@std@@IBEXXZ 004418d0 f i DPSrvr.obj
 0001:000408d0       ?_Xlen@?$deque@PAUtagMAGICATKMSG@@V?$allocator@PAUtagMAGICATKMSG@@@std@@@std@@IBEXXZ 004418d0 f i DPSrvr.obj
 0001:00040940       ??$_Destroy_range@V?$basic_string@DU?$char_traits@D@std@@V?$allocator@D@2@@std@@V?$allocator@V?$basic_string@DU?$char_traits@D@std@@V?$allocator@D@2@@std@@@2@@std@@YAXPAV?$basic_string@DU?$char_traits@D@std@@V?$allocator@D@2@@0@0AAV?$allocator@V?$basic_string@DU?$char_traits@D@std@@V?$allocator@D@2@@std@@@0@U_Nonscalar_ptr_iterator_tag@0@@Z 00441940 f i DPSrvr.obj
 0001:00040980       ?OnGuildInvite@CDPSrvr@@AAEXAAVCAr@@KKPAEK@Z 00441980 f   DPSrvr.obj
 0001:000409d0       ?OnPVendorClose@CDPSrvr@@AAEXAAVCAr@@KKPAEK@Z 004419d0 f   DPSrvr.obj
 0001:00040a20       ?_Insert@?$_Tree@V?$_Tset_traits@KU?$less@K@std@@V?$allocator@K@2@$0A@@std@@@std@@IAE?AViterator@12@_NPAU_Node@?$_Tree_nod@V?$_Tset_traits@KU?$less@K@std@@V?$allocator@K@2@$0A@@std@@@2@ABK@Z 00441a20 f i DPSrvr.obj
 0001:00040bd0       ?_Xran@?$vector@UTreasureItem@@V?$allocator@UTreasureItem@@@std@@@std@@IBEXXZ 00441bd0 f i DPSrvr.obj
 0001:00040bd0       ?_Xran@?$vector@UTreasureBox@@V?$allocator@UTreasureBox@@@std@@@std@@IBEXXZ 00441bd0 f i DPSrvr.obj
 0001:00040c40       ?_Insert@?$_Tree@V?$_Tmap_traits@KP8CDPSrvr@@AEXAAVCAr@@KKPAEK@ZU?$less@K@std@@V?$allocator@U?$pair@$$CBKP8CDPSrvr@@AEXAAVCAr@@KKPAEK@Z@std@@@4@$0A@@std@@@std@@IAE?AViterator@12@_NPAU_Node@?$_Tree_nod@V?$_Tmap_traits@KP8CDPSrvr@@AEXAAVCAr@@KKPAEK@ZU?$less@K@std@@V?$allocator@U?$pair@$$CBKP8CDPSrvr@@AEXAAVCAr@@KKPAEK@Z@std@@@4@$0A@@std@@@2@ABU?$pair@$$CBKP8CDPSrvr@@AEXAAVCAr@@KKPAEK@Z@2@@Z 00441c40 f i DPSrvr.obj
 0001:00040df0       ?_Xlen@?$vector@V?$basic_string@DU?$char_traits@D@std@@V?$allocator@D@2@@std@@V?$allocator@V?$basic_string@DU?$char_traits@D@std@@V?$allocator@D@2@@std@@@2@@std@@IBEXXZ 00441df0 f i DPSrvr.obj
 0001:00040df0       ?_Xlen@?$vector@U__REQUESTGUILD@CGuildCombat@@V?$allocator@U__REQUESTGUILD@CGuildCombat@@@std@@@std@@IBEXXZ 00441df0 f i DPSrvr.obj
 0001:00040df0       ?_Xlen@?$vector@U__JOINPLAYER@CGuildCombat@@V?$allocator@U__JOINPLAYER@CGuildCombat@@@std@@@std@@IBEXXZ 00441df0 f i DPSrvr.obj
 0001:00040df0       ?_Xlen@?$vector@U_NPC_BUFF_SKILL@@V?$allocator@U_NPC_BUFF_SKILL@@@std@@@std@@IBEXXZ 00441df0 f i DPSrvr.obj
 0001:00040e60       ?erase@?$_Tree@V?$_Tset_traits@KU?$less@K@std@@V?$allocator@K@2@$0A@@std@@@std@@QAE?AViterator@12@V312@@Z 00441e60 f i DPSrvr.obj
 0001:00041120       ?erase@?$_Tree@V?$_Tmap_traits@KP8CDPSrvr@@AEXAAVCAr@@KKPAEK@ZU?$less@K@std@@V?$allocator@U?$pair@$$CBKP8CDPSrvr@@AEXAAVCAr@@KKPAEK@Z@std@@@4@$0A@@std@@@std@@QAE?AViterator@12@V312@@Z 00442120 f i DPSrvr.obj
 0001:000413e0       ?_Growmap@?$deque@PAUtagMAGICATKMSG@@V?$allocator@PAUtagMAGICATKMSG@@@std@@@std@@IAEXI@Z 004423e0 f i DPSrvr.obj
 0001:000413e0       ?_Growmap@?$deque@PAUtagACTMSG@@V?$allocator@PAUtagACTMSG@@@std@@@std@@IAEXI@Z 004423e0 f i DPSrvr.obj
 0001:00041540       ?OnChat@CDPSrvr@@AAEXAAVCAr@@KKPAEK@Z 00442540 f   DPSrvr.obj
 0001:000416f0       ?OnCreateAngel@CDPSrvr@@AAEXAAVCAr@@KKPAEK@Z 004426f0 f   DPSrvr.obj
 0001:00041d80       ?insert@?$_Tree@V?$_Tset_traits@KU?$less@K@std@@V?$allocator@K@2@$0A@@std@@@std@@QAE?AU?$pair@Viterator@?$_Tree@V?$_Tset_traits@KU?$less@K@std@@V?$allocator@K@2@$0A@@std@@@std@@_N@2@ABK@Z 00442d80 f i DPSrvr.obj
 0001:00041e40       ?insert@?$_Tree@V?$_Tmap_traits@KP8CDPSrvr@@AEXAAVCAr@@KKPAEK@ZU?$less@K@std@@V?$allocator@U?$pair@$$CBKP8CDPSrvr@@AEXAAVCAr@@KKPAEK@Z@std@@@4@$0A@@std@@@std@@QAE?AU?$pair@Viterator@?$_Tree@V?$_Tmap_traits@KP8CDPSrvr@@AEXAAVCAr@@KKPAEK@ZU?$less@K@std@@V?$allocator@U?$pair@$$CBKP8CDPSrvr@@AEXAAVCAr@@KKPAEK@Z@std@@@4@$0A@@std@@@std@@_N@2@ABU?$pair@$$CBKP8CDPSrvr@@AEXAAVCAr@@KKPAEK@Z@2@@Z 00442e40 f i DPSrvr.obj
 0001:00041f00       ?_Buy@?$vector@U__REQUESTGUILD@CGuildCombat@@V?$allocator@U__REQUESTGUILD@CGuildCombat@@@std@@@std@@IAE_NI@Z 00442f00 f i DPSrvr.obj
 0001:00041f50       ?erase@?$_Tree@V?$_Tset_traits@KU?$less@K@std@@V?$allocator@K@2@$0A@@std@@@std@@QAE?AViterator@12@V312@0@Z 00442f50 f i DPSrvr.obj
 0001:00042010       ?erase@?$_Tree@V?$_Tmap_traits@KP8CDPSrvr@@AEXAAVCAr@@KKPAEK@ZU?$less@K@std@@V?$allocator@U?$pair@$$CBKP8CDPSrvr@@AEXAAVCAr@@KKPAEK@Z@std@@@4@$0A@@std@@@std@@QAE?AViterator@12@V312@0@Z 00443010 f i DPSrvr.obj
 0001:000420d0       ?_Destroy@?$vector@V?$basic_string@DU?$char_traits@D@std@@V?$allocator@D@2@@std@@V?$allocator@V?$basic_string@DU?$char_traits@D@std@@V?$allocator@D@2@@std@@@2@@std@@IAEXPAV?$basic_string@DU?$char_traits@D@std@@V?$allocator@D@2@@2@0@Z 004430d0 f i DPSrvr.obj
 0001:000420f0       ?push_back@?$deque@PAUtagACTMSG@@V?$allocator@PAUtagACTMSG@@@std@@@std@@QAEXABQAUtagACTMSG@@@Z 004430f0 f i DPSrvr.obj
 0001:000420f0       ?push_back@?$deque@PAUtagMAGICATKMSG@@V?$allocator@PAUtagMAGICATKMSG@@@std@@@std@@QAEXABQAUtagMAGICATKMSG@@@Z 004430f0 f i DPSrvr.obj
 0001:00042170       ?OnTreasureBoxOpen@CDPSrvr@@AAEXAAVCAr@@KKPAEK@Z 00443170 f   DPSrvr.obj
 0001:000428b0       ??0?$vector@U_NPC_BUFF_SKILL@@V?$allocator@U_NPC_BUFF_SKILL@@@std@@@std@@QAE@ABV01@@Z 004438b0 f i DPSrvr.obj
 0001:00042980       ??0?$vector@U__REQUESTGUILD@CGuildCombat@@V?$allocator@U__REQUESTGUILD@CGuildCombat@@@std@@@std@@QAE@ABV01@@Z 00443980 f i DPSrvr.obj
 0001:00042a40       ?_Tidy@?$vector@V?$basic_string@DU?$char_traits@D@std@@V?$allocator@D@2@@std@@V?$allocator@V?$basic_string@DU?$char_traits@D@std@@V?$allocator@D@2@@std@@@2@@std@@IAEXXZ 00443a40 f i DPSrvr.obj
 0001:00042a80       ?AddTail@?$CActMsgq@UtagACTMSG@@@@QAEXPAUtagACTMSG@@@Z 00443a80 f i DPSrvr.obj
 0001:00042a80       ?AddTail@?$CActMsgq@UtagMAGICATKMSG@@@@QAEXPAUtagMAGICATKMSG@@@Z 00443a80 f i DPSrvr.obj
 0001:00042ab0       ?OnMeleeAttack@CDPSrvr@@AAEXAAVCAr@@KKPAEK@Z 00443ab0 f   DPSrvr.obj
 0001:00042c60       ?OnMeleeAttack2@CDPSrvr@@AAEXAAVCAr@@KKPAEK@Z 00443c60 f   DPSrvr.obj
 0001:00042db0       ?OnMagicAttack@CDPSrvr@@AAEXAAVCAr@@KKPAEK@Z 00443db0 f   DPSrvr.obj
 0001:00042f00       ?OnRangeAttack@CDPSrvr@@AAEXAAVCAr@@KKPAEK@Z 00443f00 f   DPSrvr.obj
 0001:00043040       ?OnGCRequestStatus@CDPSrvr@@AAEXAAVCAr@@KKPAEK@Z 00444040 f   DPSrvr.obj
 0001:000430c0       ?OnGCSelectPlayer@CDPSrvr@@AAEXAAVCAr@@KKPAEK@Z 004440c0 f   DPSrvr.obj
 0001:00043560       ?OnGC1to1MemberLineUp@CDPSrvr@@AAEXAAVCAr@@KKPAEK@Z 00444560 f   DPSrvr.obj
 0001:00043690       ?OnNPCBuff@CDPSrvr@@AAEXAAVCAr@@KKPAEK@Z 00444690 f   DPSrvr.obj
 0001:000439c0       ??0__MINIGAME_EXT_PACKET@@QAE@GHHH@Z 004449c0 f i DPSrvr.obj
 0001:00043a30       ??1?$map@KP8CDPSrvr@@AEXAAVCAr@@KKPAEK@ZU?$less@K@std@@V?$allocator@U?$pair@$$CBKP8CDPSrvr@@AEXAAVCAr@@KKPAEK@Z@std@@@4@@std@@QAE@XZ 00444a30 f i DPSrvr.obj
 0001:00043a60       ??1CDPSrvr@@UAE@XZ         00444a60 f   DPSrvr.obj
 0001:00043af0       ??1?$set@KU?$less@K@std@@V?$allocator@K@2@@std@@QAE@XZ 00444af0 f i DPSrvr.obj
 0001:00043b20       ?OnRainbowRaceMiniGamePacket@CDPSrvr@@AAEXAAVCAr@@KKPAEK@Z 00444b20 f   DPSrvr.obj
 0001:00043c10       ??0?$set@KU?$less@K@std@@V?$allocator@K@2@@std@@QAE@XZ 00444c10 f i DPSrvr.obj
 0001:00043c40       ?Serialize@__MINIGAME_EXT_PACKET@@UAEXAAVCAr@@@Z 00444c40 f i DPSrvr.obj
 0001:00043e50       ?push_back@?$vector@V?$basic_string@DU?$char_traits@D@std@@V?$allocator@D@2@@std@@V?$allocator@V?$basic_string@DU?$char_traits@D@std@@V?$allocator@D@2@@std@@@2@@std@@QAEXABV?$basic_string@DU?$char_traits@D@std@@V?$allocator@D@2@@2@@Z 00444e50 f i DPSrvr.obj
 0001:00043ee0       ??$_Uninit_fill_n@PAV?$basic_string@DU?$char_traits@D@std@@V?$allocator@D@2@@std@@IV12@V?$allocator@V?$basic_string@DU?$char_traits@D@std@@V?$allocator@D@2@@std@@@2@@std@@YAXPAV?$basic_string@DU?$char_traits@D@std@@V?$allocator@D@2@@0@IABV10@AAV?$allocator@V?$basic_string@DU?$char_traits@D@std@@V?$allocator@D@2@@std@@@0@U_Nonscalar_ptr_iterator_tag@0@@Z 00444ee0 f i DPSrvr.obj
 0001:00043f70       ?insert@?$vector@V?$basic_string@DU?$char_traits@D@std@@V?$allocator@D@2@@std@@V?$allocator@V?$basic_string@DU?$char_traits@D@std@@V?$allocator@D@2@@std@@@2@@std@@QAE?AViterator@12@V312@ABV?$basic_string@DU?$char_traits@D@std@@V?$allocator@D@2@@2@@Z 00444f70 f i DPSrvr.obj
 0001:00043fe0       ?_Insert_n@?$vector@V?$basic_string@DU?$char_traits@D@std@@V?$allocator@D@2@@std@@V?$allocator@V?$basic_string@DU?$char_traits@D@std@@V?$allocator@D@2@@std@@@2@@std@@IAEXViterator@12@IABV?$basic_string@DU?$char_traits@D@std@@V?$allocator@D@2@@2@@Z 00444fe0 f i DPSrvr.obj
 0001:00044380       ??$_Uninit_copy@PAV?$basic_string@DU?$char_traits@D@std@@V?$allocator@D@2@@std@@PAV12@V?$allocator@V?$basic_string@DU?$char_traits@D@std@@V?$allocator@D@2@@std@@@2@@std@@YAPAV?$basic_string@DU?$char_traits@D@std@@V?$allocator@D@2@@0@PAV10@00AAV?$allocator@V?$basic_string@DU?$char_traits@D@std@@V?$allocator@D@2@@std@@@0@U_Nonscalar_ptr_iterator_tag@0@@Z 00445380 f i DPSrvr.obj
 0001:00044410       ??_GCDPSrvr@@UAEPAXI@Z     00445410 f i DPSrvr.obj
 0001:00044410       ??_ECDPSrvr@@UAEPAXI@Z     00445410 f i DPSrvr.obj
 0001:00044430       ?OnSecretRoomLineUpMember@CDPSrvr@@AAEXAAVCAr@@KKPAEK@Z 00445430 f   DPSrvr.obj
 0001:00044630       ??0CDPSrvr@@QAE@XZ         00445630 f   DPSrvr.obj
 0001:00046c70       ?OnLocalPosFromIA@CDPSrvr@@AAEXAAVCAr@@KKPAEK@Z 00447c70 f   DPSrvrLux.obj
 0001:00046d40       ?OnUseSkill@CDPSrvr@@AAEXAAVCAr@@KKPAEK@Z 00447d40 f   DPSrvrLux.obj
 0001:00046ea0       ?OnShipActMsg@CDPSrvr@@AAEXAAVCAr@@KKPAEK@Z 00447ea0 f   DPSrvrLux.obj
 0001:00046fc0       ??0CFlyffEvent@@QAE@XZ     00447fc0 f   flyffevent.obj
 0001:00046fe0       ?SetState@CFlyffEvent@@QAEHHE@Z 00447fe0 f   flyffevent.obj
 0001:00047010       ?GetState@CFlyffEvent@@QAEEH@Z 00448010 f   flyffevent.obj
 0001:00047030       ?Serialize@CFlyffEvent@@QAEXAAVCAr@@@Z 00448030 f   flyffevent.obj
 0001:00047060       ?SetGuildQuest@CGuildQuestProcessor@@QAEXHHHHKK@Z 00448060 f   guildquest.obj
 0001:000470e0       ?IsQuesting@CGuildQuestProcessor@@QAEHH@Z 004480e0 f   guildquest.obj
 0001:000470e0       ?IsQuesting@CPartyQuestProcessor@@QAEHH@Z 004480e0 f   partyquest.obj
 0001:00047120       ?GetQuestRect@CGuildQuestProcessor@@QAEPAVCRect@@H@Z 00448120 f   guildquest.obj
 0001:00047160       ?IsLive@CMover@@QAEHXZ     00448160 f i guildquest.obj
 0001:00047190       ?AddQuestRect@CGuildQuestProcessor@@QAEXHHHHH@Z 00448190 f   guildquest.obj
 0001:00047200       ?PtInQuestRect@CGuildQuestProcessor@@QAEHABUD3DXVECTOR3@@@Z 00448200 f   guildquest.obj
 0001:00047280       ??0CGuildQuestProcessor@@QAE@XZ 00448280 f   guildquest.obj
 0001:000472c0       ?GetInstance@CGuildQuestProcessor@@SAPAV1@XZ 004482c0 f   guildquest.obj
 0001:00047300       ?Process@CGuildQuestProcessor@@QAEXXZ 00448300 f   guildquest.obj
 0001:00047690       ?RunItemScript@@YAHPAVCMover@@KW4ITEM_OP@@PAH@Z 00448690 f   ItemScript.obj
 0001:000476b0       ?WhatEleCard@CItemUpgrade@@QAEKK@Z 004486b0 f   ItemUpgrade.obj
 0001:00047710       ?_Min@?$_Tree@V?$_Tmap_traits@KV?$vector@UINSTACNEDUNGEON_INFO@@V?$allocator@UINSTACNEDUNGEON_INFO@@@std@@@std@@U?$less@K@2@V?$allocator@U?$pair@$$CBKV?$vector@UINSTACNEDUNGEON_INFO@@V?$allocator@UINSTACNEDUNGEON_INFO@@@std@@@std@@@std@@@2@$0A@@std@@@std@@KAPAU_Node@?$_Tree_nod@V?$_Tmap_traits@KV?$vector@UINSTACNEDUNGEON_INFO@@V?$allocator@UINSTACNEDUNGEON_INFO@@@std@@@std@@U?$less@K@2@V?$allocator@U?$pair@$$CBKV?$vector@UINSTACNEDUNGEON_INFO@@V?$allocator@UINSTACNEDUNGEON_INFO@@@std@@@std@@@std@@@2@$0A@@std@@@2@PAU342@@Z 00448710 f i InstanceDungeonBase.obj
 0001:00047710       ?_Min@?$_Tree@V?$_Tmap_traits@KV?$vector@U__MONSTERSKILL@@V?$allocator@U__MONSTERSKILL@@@std@@@std@@U?$less@K@2@V?$allocator@U?$pair@$$CBKV?$vector@U__MONSTERSKILL@@V?$allocator@U__MONSTERSKILL@@@std@@@std@@@std@@@2@$0A@@std@@@std@@KAPAU_Node@?$_Tree_nod@V?$_Tmap_traits@KV?$vector@U__MONSTERSKILL@@V?$allocator@U__MONSTERSKILL@@@std@@@std@@U?$less@K@2@V?$allocator@U?$pair@$$CBKV?$vector@U__MONSTERSKILL@@V?$allocator@U__MONSTERSKILL@@@std@@@std@@@std@@@2@$0A@@std@@@2@PAU342@@Z 00448710 f i aimonster.obj
 0001:00047710       ?_Min@?$_Tree@V?$_Tmap_traits@EV?$vector@VCPoint@@V?$allocator@VCPoint@@@std@@@std@@U?$less@E@2@V?$allocator@U?$pair@$$CBEV?$vector@VCPoint@@V?$allocator@VCPoint@@@std@@@std@@@std@@@2@$0A@@std@@@std@@KAPAU_Node@?$_Tree_nod@V?$_Tmap_traits@EV?$vector@VCPoint@@V?$allocator@VCPoint@@@std@@@std@@U?$less@E@2@V?$allocator@U?$pair@$$CBEV?$vector@VCPoint@@V?$allocator@VCPoint@@@std@@@std@@@std@@@2@$0A@@std@@@2@PAU342@@Z 00448710 f i Continent.obj
 0001:00047710       ?_Min@?$_Tree@V?$_Tmap_traits@HU__ATTRIBUTE_ENCHANT@@U?$less@H@std@@V?$allocator@U?$pair@$$CBHU__ATTRIBUTE_ENCHANT@@@std@@@3@$0A@@std@@@std@@KAPAU_Node@?$_Tree_nod@V?$_Tmap_traits@HU__ATTRIBUTE_ENCHANT@@U?$less@H@std@@V?$allocator@U?$pair@$$CBHU__ATTRIBUTE_ENCHANT@@@std@@@3@$0A@@std@@@2@PAU342@@Z 00448710 f i ItemUpgrade.obj
 0001:00047710       ?_Min@?$_Tree@V?$_Tmap_traits@HU__CHAOS_GEM@@U?$less@H@std@@V?$allocator@U?$pair@$$CBHU__CHAOS_GEM@@@std@@@3@$0A@@std@@@std@@KAPAU_Node@?$_Tree_nod@V?$_Tmap_traits@HU__CHAOS_GEM@@U?$less@H@std@@V?$allocator@U?$pair@$$CBHU__CHAOS_GEM@@@std@@@3@$0A@@std@@@2@PAU342@@Z 00448710 f i ItemUpgrade.obj
 0001:00047710       ?_Min@?$_Tree@V?$_Tmap_traits@KV?$vector@UCOOLTIME_INFO@@V?$allocator@UCOOLTIME_INFO@@@std@@@std@@U?$less@K@2@V?$allocator@U?$pair@$$CBKV?$vector@UCOOLTIME_INFO@@V?$allocator@UCOOLTIME_INFO@@@std@@@std@@@std@@@2@$0A@@std@@@std@@KAPAU_Node@?$_Tree_nod@V?$_Tmap_traits@KV?$vector@UCOOLTIME_INFO@@V?$allocator@UCOOLTIME_INFO@@@std@@@std@@U?$less@K@2@V?$allocator@U?$pair@$$CBKV?$vector@UCOOLTIME_INFO@@V?$allocator@UCOOLTIME_INFO@@@std@@@std@@@std@@@2@$0A@@std@@@2@PAU342@@Z 00448710 f i InstanceDungeonBase.obj
 0001:00047710       ?_Min@?$_Tree@V?$_Tmap_traits@KV?$vector@U_VECINFO@@V?$allocator@U_VECINFO@@@std@@@std@@U?$less@K@2@V?$allocator@U?$pair@$$CBKV?$vector@U_VECINFO@@V?$allocator@U_VECINFO@@@std@@@std@@@std@@@2@$0A@@std@@@std@@KAPAU_Node@?$_Tree_nod@V?$_Tmap_traits@KV?$vector@U_VECINFO@@V?$allocator@U_VECINFO@@@std@@@std@@U?$less@K@2@V?$allocator@U?$pair@$$CBKV?$vector@U_VECINFO@@V?$allocator@U_VECINFO@@@std@@@std@@@std@@@2@$0A@@std@@@2@PAU342@@Z 00448710 f i PathObj.obj
 0001:00047710       ?_Min@?$_Tree@V?$_Tmap_traits@EV?$vector@U__SPAWNINFO@CEventLua@@V?$allocator@U__SPAWNINFO@CEventLua@@@std@@@std@@U?$less@E@2@V?$allocator@U?$pair@$$CBEV?$vector@U__SPAWNINFO@CEventLua@@V?$allocator@U__SPAWNINFO@CEventLua@@@std@@@std@@@std@@@2@$0A@@std@@@std@@KAPAU_Node@?$_Tree_nod@V?$_Tmap_traits@EV?$vector@U__SPAWNINFO@CEventLua@@V?$allocator@U__SPAWNINFO@CEventLua@@@std@@@std@@U?$less@E@2@V?$allocator@U?$pair@$$CBEV?$vector@U__SPAWNINFO@CEventLua@@V?$allocator@U__SPAWNINFO@CEventLua@@@std@@@std@@@std@@@2@$0A@@std@@@2@PAU342@@Z 00448710 f i EventLua.obj
 0001:00047710       ?_Min@?$_Tree@V?$_Tmap_traits@KV?$vector@KV?$allocator@K@std@@@std@@U?$less@K@2@V?$allocator@U?$pair@$$CBKV?$vector@KV?$allocator@K@std@@@std@@@std@@@2@$0A@@std@@@std@@KAPAU_Node@?$_Tree_nod@V?$_Tmap_traits@KV?$vector@KV?$allocator@K@std@@@std@@U?$less@K@2@V?$allocator@U?$pair@$$CBKV?$vector@KV?$allocator@K@std@@@std@@@std@@@2@$0A@@std@@@2@PAU342@@Z 00448710 f i Housing.obj
 0001:00047730       ?IsAccessory@CItemElem@@QAEHXZ 00448730 f i ItemUpgrade.obj
 0001:00047750       ?PutPetVisItemLog@CItemUpgrade@@QAEXPAVCUser@@PBD1PAVCItemElem@@H@Z 00448750 f   ItemUpgrade.obj
 0001:00047810       ?ChangeVisPetSfx@CItemUpgrade@@QAEXPAVCUser@@PAVCItemElem@@@Z 00448810 f   ItemUpgrade.obj
 0001:00047870       ?OnPiercing@CItemUpgrade@@QAEXPAVCUser@@KK@Z 00448870 f   ItemUpgrade.obj
 0001:00047b50       ?OnPiercingRemove@CItemUpgrade@@QAEXPAVCUser@@K@Z 00448b50 f   ItemUpgrade.obj
 0001:00047d40       ?SmeltSafetyAccessory@CItemUpgrade@@AAEEPAVCUser@@PAVCItemElem@@11@Z 00448d40 f   ItemUpgrade.obj
 0001:000480a0       ?RefineAccessory@CItemUpgrade@@AAEXPAVCUser@@PAVCItemElem@@1@Z 004490a0 f   ItemUpgrade.obj
 0001:00048460       ?RefineCollector@CItemUpgrade@@AAEXPAVCUser@@PAVCItemElem@@1@Z 00449460 f   ItemUpgrade.obj
 0001:00048770       ?CreateBarunaCrystal@CItemUpgrade@@QAEXPAVCUser@@PAVCItemElem@@1@Z 00449770 f   ItemUpgrade.obj
 0001:00048a90       ?CreateBarunaChaosGem@CItemUpgrade@@QAEXPAVCUser@@PAVCItemElem@@1@Z 00449a90 f   ItemUpgrade.obj
 0001:00048cc0       ?CreateStone@CItemUpgrade@@QAEXPAVCUser@@PAVCItemElem@@11@Z 00449cc0 f   ItemUpgrade.obj
 0001:00048f20       ?ChangeAttribute@CItemUpgrade@@QAEXPAVCUser@@KKW4ePropType@SAI79@@@Z 00449f20 f   ItemUpgrade.obj
 0001:000491a0       ?RunItemTransy@CItemUpgrade@@AAEHPAVCUser@@PAVCItemElem@@K@Z 0044a1a0 f   ItemUpgrade.obj
 0001:000494c0       ?SetPetVisItem@CItemUpgrade@@QAEXPAVCUser@@K@Z 0044a4c0 f   ItemUpgrade.obj
 0001:000496f0       ?RemovePetVisItem@CItemUpgrade@@QAEXPAVCUser@@HH@Z 0044a6f0 f   ItemUpgrade.obj
 0001:000497e0       ?SwapVis@CItemUpgrade@@QAEXPAVCUser@@HH@Z 0044a7e0 f   ItemUpgrade.obj
 0001:00049850       ?_Erase@?$_Tree@V?$_Tmap_traits@HU__ATTRIBUTE_ENCHANT@@U?$less@H@std@@V?$allocator@U?$pair@$$CBHU__ATTRIBUTE_ENCHANT@@@std@@@3@$0A@@std@@@std@@IAEXPAU_Node@?$_Tree_nod@V?$_Tmap_traits@HU__ATTRIBUTE_ENCHANT@@U?$less@H@std@@V?$allocator@U?$pair@$$CBHU__ATTRIBUTE_ENCHANT@@@std@@@3@$0A@@std@@@2@@Z 0044a850 f i ItemUpgrade.obj
 0001:00049890       ?_Buynode@?$_Tree@V?$_Tmap_traits@HU__ATTRIBUTE_ENCHANT@@U?$less@H@std@@V?$allocator@U?$pair@$$CBHU__ATTRIBUTE_ENCHANT@@@std@@@3@$0A@@std@@@std@@IAEPAU_Node@?$_Tree_nod@V?$_Tmap_traits@HU__ATTRIBUTE_ENCHANT@@U?$less@H@std@@V?$allocator@U?$pair@$$CBHU__ATTRIBUTE_ENCHANT@@@std@@@3@$0A@@std@@@2@PAU342@00ABU?$pair@$$CBHU__ATTRIBUTE_ENCHANT@@@2@D@Z 0044a890 f i ItemUpgrade.obj
 0001:00049890       ?_Buynode@?$_Tree@V?$_Tmap_traits@HU__CHAOS_GEM@@U?$less@H@std@@V?$allocator@U?$pair@$$CBHU__CHAOS_GEM@@@std@@@3@$0A@@std@@@std@@IAEPAU_Node@?$_Tree_nod@V?$_Tmap_traits@HU__CHAOS_GEM@@U?$less@H@std@@V?$allocator@U?$pair@$$CBHU__CHAOS_GEM@@@std@@@3@$0A@@std@@@2@PAU342@00ABU?$pair@$$CBHU__CHAOS_GEM@@@2@D@Z 0044a890 f i ItemUpgrade.obj
 0001:000498f0       ?_Erase@?$_Tree@V?$_Tmap_traits@HU__CHAOS_GEM@@U?$less@H@std@@V?$allocator@U?$pair@$$CBHU__CHAOS_GEM@@@std@@@3@$0A@@std@@@std@@IAEXPAU_Node@?$_Tree_nod@V?$_Tmap_traits@HU__CHAOS_GEM@@U?$less@H@std@@V?$allocator@U?$pair@$$CBHU__CHAOS_GEM@@@std@@@3@$0A@@std@@@2@@Z 0044a8f0 f i ItemUpgrade.obj
 0001:00049930       ?IsVisPet@CItemElem@@QAEHXZ 0044a930 f i ItemUpgrade.obj
 0001:000499c0       ?_Erase@?$_Tree@V?$_Tmap_traits@HHU?$less@H@std@@V?$allocator@U?$pair@$$CBHH@std@@@2@$0A@@std@@@std@@IAEXPAU_Node@?$_Tree_nod@V?$_Tmap_traits@HHU?$less@H@std@@V?$allocator@U?$pair@$$CBHH@std@@@2@$0A@@std@@@2@@Z 0044a9c0 f i ItemUpgrade.obj
 0001:00049a00       ?OnItemTransy@CItemUpgrade@@QAEXPAVCUser@@KKKH@Z 0044aa00 f   ItemUpgrade.obj
 0001:00049b70       ?PetVisSize@CItemUpgrade@@QAEXPAVCUser@@K@Z 0044ab70 f   ItemUpgrade.obj
 0001:00049ce0       ?TransFormVisPet@CItemUpgrade@@QAEXPAVCUser@@K@Z 0044ace0 f   ItemUpgrade.obj
 0001:00049e40       ?find@?$_Tree@V?$_Tmap_traits@HU__CHAOS_GEM@@U?$less@H@std@@V?$allocator@U?$pair@$$CBHU__CHAOS_GEM@@@std@@@3@$0A@@std@@@std@@QAE?AViterator@12@ABH@Z 0044ae40 f i ItemUpgrade.obj
 0001:00049e40       ?find@?$_Tree@V?$_Tmap_traits@HU__ATTRIBUTE_ENCHANT@@U?$less@H@std@@V?$allocator@U?$pair@$$CBHU__ATTRIBUTE_ENCHANT@@@std@@@3@$0A@@std@@@std@@QAE?AViterator@12@ABH@Z 0044ae40 f i ItemUpgrade.obj
 0001:00049eb0       ?BarunaChaosGemExtract@CItemUpgrade@@QAEXPAVCUser@@PAVCItemElem@@@Z 0044aeb0 f   ItemUpgrade.obj
 0001:0004a320       ?GetAttributeEnchantProb@CItemUpgrade@@QAEHH@Z 0044b320 f   ItemUpgrade.obj
 0001:0004a360       ?GetAttributeDamageFactor@CItemUpgrade@@QAEHH@Z 0044b360 f   ItemUpgrade.obj
 0001:0004a3a0       ?GetAttributeDefenseFactor@CItemUpgrade@@QAEHH@Z 0044b3a0 f   ItemUpgrade.obj
 0001:0004a3e0       ?GetAttributeAddAtkDmgFactor@CItemUpgrade@@QAEHH@Z 0044b3e0 f   ItemUpgrade.obj
 0001:0004a420       ?GetSizeProb@CItemUpgrade@@QAEHPAVCItemElem@@@Z 0044b420 f   ItemUpgrade.obj
 0001:0004a4b0       ?SmeltSafetyPiercingSize@CItemUpgrade@@AAEEPAVCUser@@PAVCItemElem@@11@Z 0044b4b0 f   ItemUpgrade.obj
 0001:0004a890       ?SmeltSafetyAttribute@CItemUpgrade@@AAEEPAVCUser@@PAVCItemElem@@111@Z 0044b890 f   ItemUpgrade.obj
 0001:0004ad50       ?GetGeneralEnchantProb@CItemUpgrade@@QAEHH@Z 0044bd50 f   ItemUpgrade.obj
 0001:0004adc0       ?GetBarunaEnchantProp@CItemUpgrade@@QAEHH@Z 0044bdc0 f   ItemUpgrade.obj
 0001:0004ae00       ?GetBarunaEnchantDowngradeProp@CItemUpgrade@@QAEHH@Z 0044be00 f   ItemUpgrade.obj
 0001:0004ae40       ?GetBarunaPetMultiplicator@CItemUpgrade@@QAEMH@Z 0044be40 f   ItemUpgrade.obj
 0001:0004ae90       ?GetBarunaFailForNextLevel@CItemUpgrade@@QAEHH@Z 0044be90 f   ItemUpgrade.obj
 0001:0004aed0       ?GetBarunaEnchantPiercingProp@CItemUpgrade@@QAEHH@Z 0044bed0 f   ItemUpgrade.obj
 0001:0004af10       ?EnchantAttribute@CItemUpgrade@@QAEXPAVCUser@@PAVCItemElem@@1@Z 0044bf10 f   ItemUpgrade.obj
 0001:0004b450       ?OnPiercingSize@CItemUpgrade@@QAEXPAVCUser@@KKK@Z 0044c450 f   ItemUpgrade.obj
 0001:0004b900       ?SmeltSafetyGeneral@CItemUpgrade@@AAEEPAVCUser@@PAVCItemElem@@111@Z 0044c900 f   ItemUpgrade.obj
 0001:0004bd10       ?EnchantGeneral@CItemUpgrade@@QAEXPAVCUser@@PAVCItemElem@@1@Z 0044cd10 f   ItemUpgrade.obj
 0001:0004c200       ?EnchantBaruna@CItemUpgrade@@QAEXPAVCUser@@PAVCItemElem@@111@Z 0044d200 f   ItemUpgrade.obj
 0001:0004c740       ?CreateBarunaPiercing@CItemUpgrade@@QAEXPAVCUser@@PAVCItemElem@@111@Z 0044d740 f   ItemUpgrade.obj
 0001:0004ca00       ?erase@?$_Tree@V?$_Tmap_traits@HHU?$less@H@std@@V?$allocator@U?$pair@$$CBHH@std@@@2@$0A@@std@@@std@@QAE?AViterator@12@V312@@Z 0044da00 f i ItemUpgrade.obj
 0001:0004ccc0       ?OnEnchant@CItemUpgrade@@QAEXPAVCUser@@PAVCItemElem@@1@Z 0044dcc0 f   ItemUpgrade.obj
 0001:0004cdf0       ?SmeltSafetyNormal@CItemUpgrade@@AAEEPAVCUser@@PAVCItemElem@@111@Z 0044ddf0 f   ItemUpgrade.obj
 0001:0004ce90       ?_Insert@?$_Tree@V?$_Tmap_traits@HHU?$less@H@std@@V?$allocator@U?$pair@$$CBHH@std@@@2@$0A@@std@@@std@@IAE?AViterator@12@_NPAU_Node@?$_Tree_nod@V?$_Tmap_traits@HHU?$less@H@std@@V?$allocator@U?$pair@$$CBHH@std@@@2@$0A@@std@@@2@ABU?$pair@$$CBHH@2@@Z 0044de90 f i ItemUpgrade.obj
 0001:0004d040       ?_Insert@?$_Tree@V?$_Tmap_traits@HU__CHAOS_GEM@@U?$less@H@std@@V?$allocator@U?$pair@$$CBHU__CHAOS_GEM@@@std@@@3@$0A@@std@@@std@@IAE?AViterator@12@_NPAU_Node@?$_Tree_nod@V?$_Tmap_traits@HU__CHAOS_GEM@@U?$less@H@std@@V?$allocator@U?$pair@$$CBHU__CHAOS_GEM@@@std@@@3@$0A@@std@@@2@ABU?$pair@$$CBHU__CHAOS_GEM@@@2@@Z 0044e040 f i ItemUpgrade.obj
 0001:0004d040       ?_Insert@?$_Tree@V?$_Tmap_traits@HU__ATTRIBUTE_ENCHANT@@U?$less@H@std@@V?$allocator@U?$pair@$$CBHU__ATTRIBUTE_ENCHANT@@@std@@@3@$0A@@std@@@std@@IAE?AViterator@12@_NPAU_Node@?$_Tree_nod@V?$_Tmap_traits@HU__ATTRIBUTE_ENCHANT@@U?$less@H@std@@V?$allocator@U?$pair@$$CBHU__ATTRIBUTE_ENCHANT@@@std@@@3@$0A@@std@@@2@ABU?$pair@$$CBHU__ATTRIBUTE_ENCHANT@@@2@@Z 0044e040 f i ItemUpgrade.obj
 0001:0004d1f0       ?erase@?$_Tree@V?$_Tmap_traits@HU__ATTRIBUTE_ENCHANT@@U?$less@H@std@@V?$allocator@U?$pair@$$CBHU__ATTRIBUTE_ENCHANT@@@std@@@3@$0A@@std@@@std@@QAE?AViterator@12@V312@@Z 0044e1f0 f i ItemUpgrade.obj
 0001:0004d1f0       ?erase@?$_Tree@V?$_Tmap_traits@HU__CHAOS_GEM@@U?$less@H@std@@V?$allocator@U?$pair@$$CBHU__CHAOS_GEM@@@std@@@3@$0A@@std@@@std@@QAE?AViterator@12@V312@@Z 0044e1f0 f i ItemUpgrade.obj
 0001:0004d4b0       ?erase@?$_Tree@V?$_Tmap_traits@HHU?$less@H@std@@V?$allocator@U?$pair@$$CBHH@std@@@2@$0A@@std@@@std@@QAE?AViterator@12@V312@0@Z 0044e4b0 f i ItemUpgrade.obj
 0001:0004d570       ?OnSmeltSafety@CItemUpgrade@@QAEEPAVCUser@@PAVCItemElem@@111@Z 0044e570 f   ItemUpgrade.obj
 0001:0004d6f0       ?insert@?$_Tree@V?$_Tmap_traits@HHU?$less@H@std@@V?$allocator@U?$pair@$$CBHH@std@@@2@$0A@@std@@@std@@QAE?AU?$pair@Viterator@?$_Tree@V?$_Tmap_traits@HHU?$less@H@std@@V?$allocator@U?$pair@$$CBHH@std@@@2@$0A@@std@@@std@@_N@2@ABU?$pair@$$CBHH@2@@Z 0044e6f0 f i ItemUpgrade.obj
 0001:0004d7b0       ?insert@?$_Tree@V?$_Tmap_traits@HU__CHAOS_GEM@@U?$less@H@std@@V?$allocator@U?$pair@$$CBHU__CHAOS_GEM@@@std@@@3@$0A@@std@@@std@@QAE?AU?$pair@Viterator@?$_Tree@V?$_Tmap_traits@HU__CHAOS_GEM@@U?$less@H@std@@V?$allocator@U?$pair@$$CBHU__CHAOS_GEM@@@std@@@3@$0A@@std@@@std@@_N@2@ABU?$pair@$$CBHU__CHAOS_GEM@@@2@@Z 0044e7b0 f i ItemUpgrade.obj
 0001:0004d7b0       ?insert@?$_Tree@V?$_Tmap_traits@HU__ATTRIBUTE_ENCHANT@@U?$less@H@std@@V?$allocator@U?$pair@$$CBHU__ATTRIBUTE_ENCHANT@@@std@@@3@$0A@@std@@@std@@QAE?AU?$pair@Viterator@?$_Tree@V?$_Tmap_traits@HU__ATTRIBUTE_ENCHANT@@U?$less@H@std@@V?$allocator@U?$pair@$$CBHU__ATTRIBUTE_ENCHANT@@@std@@@3@$0A@@std@@@std@@_N@2@ABU?$pair@$$CBHU__ATTRIBUTE_ENCHANT@@@2@@Z 0044e7b0 f i ItemUpgrade.obj
 0001:0004d870       ?erase@?$_Tree@V?$_Tmap_traits@HU__ATTRIBUTE_ENCHANT@@U?$less@H@std@@V?$allocator@U?$pair@$$CBHU__ATTRIBUTE_ENCHANT@@@std@@@3@$0A@@std@@@std@@QAE?AViterator@12@V312@0@Z 0044e870 f i ItemUpgrade.obj
 0001:0004d930       ?erase@?$_Tree@V?$_Tmap_traits@HU__CHAOS_GEM@@U?$less@H@std@@V?$allocator@U?$pair@$$CBHU__CHAOS_GEM@@@std@@@3@$0A@@std@@@std@@QAE?AViterator@12@V312@0@Z 0044e930 f i ItemUpgrade.obj
 0001:0004d9f0       ?LoadScript@CItemUpgrade@@QAEXXZ 0044e9f0 f   ItemUpgrade.obj
 0001:0004ddb0       ?LoadScriptBaruna@CItemUpgrade@@QAEXXZ 0044edb0 f   ItemUpgrade.obj
 0001:0004e270       ??1?$map@HHU?$less@H@std@@V?$allocator@U?$pair@$$CBHH@std@@@2@@std@@QAE@XZ 0044f270 f i ItemUpgrade.obj
 0001:0004e270       ?_Tidy@?$_Tree@V?$_Tmap_traits@HHU?$less@H@std@@V?$allocator@U?$pair@$$CBHH@std@@@2@$0A@@std@@@std@@IAEXXZ 0044f270 f i ItemUpgrade.obj
 0001:0004e2a0       ??1?$map@HU__ATTRIBUTE_ENCHANT@@U?$less@H@std@@V?$allocator@U?$pair@$$CBHU__ATTRIBUTE_ENCHANT@@@std@@@3@@std@@QAE@XZ 0044f2a0 f i ItemUpgrade.obj
 0001:0004e2d0       ??1?$map@HU__CHAOS_GEM@@U?$less@H@std@@V?$allocator@U?$pair@$$CBHU__CHAOS_GEM@@@std@@@3@@std@@QAE@XZ 0044f2d0 f i ItemUpgrade.obj
 0001:0004e300       ??1CItemUpgrade@@QAE@XZ    0044f300 f   ItemUpgrade.obj
 0001:0004e650       ??0CItemUpgrade@@QAE@XZ    0044f650 f   ItemUpgrade.obj
 0001:0004e840       ?GetInstance@CItemUpgrade@@SAPAV1@XZ 0044f840 f   ItemUpgrade.obj
 0001:0004e8a0       ?_Erase@?$_Tree@V?$_Tmap_traits@HPAVCLinkMap@@U?$less@H@std@@V?$allocator@U?$pair@$$CBHPAVCLinkMap@@@std@@@3@$0A@@std@@@std@@IAEXPAU_Node@?$_Tree_nod@V?$_Tmap_traits@HPAVCLinkMap@@U?$less@H@std@@V?$allocator@U?$pair@$$CBHPAVCLinkMap@@@std@@@3@$0A@@std@@@2@@Z 0044f8a0 f i layeredlinkmap.obj
 0001:0004e8e0       ?Process@CLayeredLinkMap@@QAEXPAVCWorld@@@Z 0044f8e0 f   layeredlinkmap.obj
 0001:0004e990       ?Release@CLayeredLinkMap@@QAEXXZ 0044f990 f   layeredlinkmap.obj
 0001:0004ea20       ?GetLinkMap@CLayeredLinkMap@@QAEPAVCLinkMap@@H@Z 0044fa20 f   layeredlinkmap.obj
 0001:0004ea50       ?Invalidate@CLayeredLinkMap@@QAEXHH@Z 0044fa50 f   layeredlinkmap.obj
 0001:0004ea90       ?GetLinkWidth@CLayeredLinkMap@@QAEHKHH@Z 0044fa90 f   layeredlinkmap.obj
 0001:0004eaf0       ?GetObj@CLayeredLinkMap@@QAEPAPAVCObj@@KKH@Z 0044faf0 f   layeredlinkmap.obj
 0001:0004eb50       ?CalcLinkLevel@CLayeredLinkMap@@QAEKPAVCObj@@MH@Z 0044fb50 f   layeredlinkmap.obj
 0001:0004ebb0       ?GetMaxLinkLevel@CLayeredLinkMap@@QAEHKH@Z 0044fbb0 f   layeredlinkmap.obj
 0001:0004ec00       ?InsertObjLink@CLayeredLinkMap@@QAEHPAVCObj@@@Z 0044fc00 f   layeredlinkmap.obj
 0001:0004ec50       ?RemoveObjLink2@CLayeredLinkMap@@QAEHPAVCObj@@@Z 0044fc50 f   layeredlinkmap.obj
 0001:0004eca0       ?RemoveObjLink@CLayeredLinkMap@@QAEHPAVCObj@@@Z 0044fca0 f   layeredlinkmap.obj
 0001:0004ecf0       ?GetObjInLinkMap@CLayeredLinkMap@@QAEPAVCObj@@ABUD3DXVECTOR3@@KHH@Z 0044fcf0 f   layeredlinkmap.obj
 0001:0004ed40       ?SetObjInLinkMap@CLayeredLinkMap@@QAEHABUD3DXVECTOR3@@KHPAVCObj@@H@Z 0044fd40 f   layeredlinkmap.obj
 0001:0004ed90       ?AddItToView@CLayeredLinkMap@@QAEXPAVCCtrl@@@Z 0044fd90 f   layeredlinkmap.obj
 0001:0004ede0       ?ModifyView@CLayeredLinkMap@@QAEXPAVCCtrl@@@Z 0044fde0 f   layeredlinkmap.obj
 0001:0004ee30       ?erase@?$_Tree@V?$_Tmap_traits@HPAVCLinkMap@@U?$less@H@std@@V?$allocator@U?$pair@$$CBHPAVCLinkMap@@@std@@@3@$0A@@std@@@std@@QAE?AViterator@12@V312@@Z 0044fe30 f i layeredlinkmap.obj
 0001:0004f0f0       ?_Insert@?$_Tree@V?$_Tmap_traits@HPAVCLinkMap@@U?$less@H@std@@V?$allocator@U?$pair@$$CBHPAVCLinkMap@@@std@@@3@$0A@@std@@@std@@IAE?AViterator@12@_NPAU_Node@?$_Tree_nod@V?$_Tmap_traits@HPAVCLinkMap@@U?$less@H@std@@V?$allocator@U?$pair@$$CBHPAVCLinkMap@@@std@@@3@$0A@@std@@@2@ABU?$pair@$$CBHPAVCLinkMap@@@2@@Z 004500f0 f i layeredlinkmap.obj
 0001:0004f2a0       ?erase@?$_Tree@V?$_Tmap_traits@HPAVCLinkMap@@U?$less@H@std@@V?$allocator@U?$pair@$$CBHPAVCLinkMap@@@std@@@3@$0A@@std@@@std@@QAE?AViterator@12@V312@0@Z 004502a0 f i layeredlinkmap.obj
 0001:0004f360       ?DeleteLinkMap@CLayeredLinkMap@@QAEXH@Z 00450360 f   layeredlinkmap.obj
 0001:0004f3b0       ?insert@?$_Tree@V?$_Tmap_traits@HPAVCLinkMap@@U?$less@H@std@@V?$allocator@U?$pair@$$CBHPAVCLinkMap@@@std@@@3@$0A@@std@@@std@@QAE?AU?$pair@Viterator@?$_Tree@V?$_Tmap_traits@HPAVCLinkMap@@U?$less@H@std@@V?$allocator@U?$pair@$$CBHPAVCLinkMap@@@std@@@3@$0A@@std@@@std@@_N@2@ABU?$pair@$$CBHPAVCLinkMap@@@2@@Z 004503b0 f i layeredlinkmap.obj
 0001:0004f470       ?CreateLinkMap@CLayeredLinkMap@@QAEHH@Z 00450470 f   layeredlinkmap.obj
 0001:0004f550       ??1?$map@HPAVCLinkMap@@U?$less@H@std@@V?$allocator@U?$pair@$$CBHPAVCLinkMap@@@std@@@3@@std@@QAE@XZ 00450550 f i layeredlinkmap.obj
 0001:0004f580       ??1CLayeredLinkMap@@UAE@XZ 00450580 f   layeredlinkmap.obj
 0001:0004f600       ?Init@CLayeredLinkMap@@QAEXHHHHH@Z 00450600 f   layeredlinkmap.obj
 0001:0004f630       ??0CLayeredLinkMap@@QAE@XZ 00450630 f   layeredlinkmap.obj
 0001:0004f670       ??_GCLayeredLinkMap@@UAEPAXI@Z 00450670 f i layeredlinkmap.obj
 0001:0004f670       ??_ECLayeredLinkMap@@UAEPAXI@Z 00450670 f i layeredlinkmap.obj
 0001:0004f690       ??0CLinkMap@@QAE@XZ        00450690 f   LinkMap.obj
 0001:0004f6c0       ?Release@CLinkMap@@QAEXXZ  004506c0 f   LinkMap.obj
 0001:0004f730       ?GetObjPtr@CLinkMap@@AAEPAPAVCObj@@ABUD3DXVECTOR3@@KH@Z 00450730 f   LinkMap.obj
 0001:0004f7c0       ?GetObjInLinkMap@CLinkMap@@QAEPAVCObj@@ABUD3DXVECTOR3@@KH@Z 004507c0 f   LinkMap.obj
 0001:0004f7f0       ?SetObjInLinkMap@CLinkMap@@QAEHABUD3DXVECTOR3@@KHPAVCObj@@@Z 004507f0 f   LinkMap.obj
 0001:0004f820       ?IsOverlapped@CLinkMap@@AAEHHHHH@Z 00450820 f   LinkMap.obj
 0001:0004f8d0       ?CalcLinkLevel@CLinkMap@@QAEKPAVCObj@@M@Z 004508d0 f   LinkMap.obj
 0001:0004f940       ?InsertObjLink@CLinkMap@@QAEHPAVCObj@@@Z 00450940 f   LinkMap.obj
 0001:0004fa50       ?RemoveObjLink2@CLinkMap@@QAEHPAVCObj@@@Z 00450a50 f   LinkMap.obj
 0001:0004fb00       ?RemoveObjLink@CLinkMap@@QAEHPAVCObj@@@Z 00450b00 f   LinkMap.obj
 0001:0004fc90       ?Init@CLinkMap@@QAEXHHHH@Z 00450c90 f   LinkMap.obj
 0001:0004fe30       ?_Erase@?$_Tree@V?$_Tmap_traits@KPAVCUser@@U?$less@K@std@@V?$allocator@U?$pair@$$CBKPAVCUser@@@std@@@3@$0A@@std@@@std@@IAEXPAU_Node@?$_Tree_nod@V?$_Tmap_traits@KPAVCUser@@U?$less@K@std@@V?$allocator@U?$pair@$$CBKPAVCUser@@@std@@@3@$0A@@std@@@2@@Z 00450e30 f i LinkMap.obj
 0001:0004fe70       ?_Erase@?$_Tree@V?$_Tmap_traits@KPAVCCtrl@@U?$less@K@std@@V?$allocator@U?$pair@$$CBKPAVCCtrl@@@std@@@3@$0A@@std@@@std@@IAEXPAU_Node@?$_Tree_nod@V?$_Tmap_traits@KPAVCCtrl@@U?$less@K@std@@V?$allocator@U?$pair@$$CBKPAVCCtrl@@@std@@@3@$0A@@std@@@2@@Z 00450e70 f i LinkMap.obj
 0001:0004feb0       ?equal_range@?$_Tree@V?$_Tmap_traits@KPAVCMover@@U?$less@K@std@@V?$allocator@U?$pair@$$CBKPAVCMover@@@std@@@3@$0A@@std@@@std@@QAE?AU?$pair@Viterator@?$_Tree@V?$_Tmap_traits@KPAVCMover@@U?$less@K@std@@V?$allocator@U?$pair@$$CBKPAVCMover@@@std@@@3@$0A@@std@@@std@@V123@@2@ABK@Z 00450eb0 f i ctrl.obj
 0001:0004feb0       ?equal_range@?$_Tree@V?$_Tmap_traits@KPAVCCampus@@U?$less@K@std@@V?$allocator@U?$pair@$$CBKPAVCCampus@@@std@@@3@$0A@@std@@@std@@QAE?AU?$pair@Viterator@?$_Tree@V?$_Tmap_traits@KPAVCCampus@@U?$less@K@std@@V?$allocator@U?$pair@$$CBKPAVCCampus@@@std@@@3@$0A@@std@@@std@@V123@@2@ABK@Z 00450eb0 f i Campus.obj
 0001:0004feb0       ?equal_range@?$_Tree@V?$_Tmap_traits@KPAVIBuff@@U?$less@K@std@@V?$allocator@U?$pair@$$CBKPAVIBuff@@@std@@@3@$0A@@std@@@std@@QAE?AU?$pair@Viterator@?$_Tree@V?$_Tmap_traits@KPAVIBuff@@U?$less@K@std@@V?$allocator@U?$pair@$$CBKPAVIBuff@@@std@@@3@$0A@@std@@@std@@V123@@2@ABK@Z 00450eb0 f i buff.obj
 0001:0004feb0       ?equal_range@?$_Tree@V?$_Tmap_traits@KPAVCCtrl@@U?$less@K@std@@V?$allocator@U?$pair@$$CBKPAVCCtrl@@@std@@@3@$0A@@std@@@std@@QAE?AU?$pair@Viterator@?$_Tree@V?$_Tmap_traits@KPAVCCtrl@@U?$less@K@std@@V?$allocator@U?$pair@$$CBKPAVCCtrl@@@std@@@3@$0A@@std@@@std@@V123@@2@ABK@Z 00450eb0 f i LinkMap.obj
 0001:0004feb0       ?equal_range@?$_Tree@V?$_Tmap_traits@KPAVCChatting@@U?$less@K@std@@V?$allocator@U?$pair@$$CBKPAVCChatting@@@std@@@3@$0A@@std@@@std@@QAE?AU?$pair@Viterator@?$_Tree@V?$_Tmap_traits@KPAVCChatting@@U?$less@K@std@@V?$allocator@U?$pair@$$CBKPAVCChatting@@@std@@@3@$0A@@std@@@std@@V123@@2@ABK@Z 00450eb0 f i Chatting.obj
 0001:0004feb0       ?equal_range@?$_Tree@V?$_Tmap_traits@KPAVCCampusMember@@U?$less@K@std@@V?$allocator@U?$pair@$$CBKPAVCCampusMember@@@std@@@3@$0A@@std@@@std@@QAE?AU?$pair@Viterator@?$_Tree@V?$_Tmap_traits@KPAVCCampusMember@@U?$less@K@std@@V?$allocator@U?$pair@$$CBKPAVCCampusMember@@@std@@@3@$0A@@std@@@std@@V123@@2@ABK@Z 00450eb0 f i Campus.obj
 0001:0004feb0       ?equal_range@?$_Tree@V?$_Tmap_traits@KPAVCGuildMember@@U?$less@K@std@@V?$allocator@U?$pair@$$CBKPAVCGuildMember@@@std@@@3@$0A@@std@@@std@@QAE?AU?$pair@Viterator@?$_Tree@V?$_Tmap_traits@KPAVCGuildMember@@U?$less@K@std@@V?$allocator@U?$pair@$$CBKPAVCGuildMember@@@std@@@3@$0A@@std@@@std@@V123@@2@ABK@Z 00450eb0 f i guild.obj
 0001:0004feb0       ?equal_range@?$_Tree@V?$_Tmap_traits@KPAVCGuildWar@@U?$less@K@std@@V?$allocator@U?$pair@$$CBKPAVCGuildWar@@@std@@@3@$0A@@std@@@std@@QAE?AU?$pair@Viterator@?$_Tree@V?$_Tmap_traits@KPAVCGuildWar@@U?$less@K@std@@V?$allocator@U?$pair@$$CBKPAVCGuildWar@@@std@@@3@$0A@@std@@@std@@V123@@2@ABK@Z 00450eb0 f i guildwar.obj
 0001:0004feb0       ?equal_range@?$_Tree@V?$_Tmap_traits@KPAVCGuild@@U?$less@K@std@@V?$allocator@U?$pair@$$CBKPAVCGuild@@@std@@@3@$0A@@std@@@std@@QAE?AU?$pair@Viterator@?$_Tree@V?$_Tmap_traits@KPAVCGuild@@U?$less@K@std@@V?$allocator@U?$pair@$$CBKPAVCGuild@@@std@@@3@$0A@@std@@@std@@V123@@2@ABK@Z 00450eb0 f i guild.obj
 0001:0004feb0       ?equal_range@?$_Tree@V?$_Tmap_traits@KPAVCUser@@U?$less@K@std@@V?$allocator@U?$pair@$$CBKPAVCUser@@@std@@@3@$0A@@std@@@std@@QAE?AU?$pair@Viterator@?$_Tree@V?$_Tmap_traits@KPAVCUser@@U?$less@K@std@@V?$allocator@U?$pair@$$CBKPAVCUser@@@std@@@3@$0A@@std@@@std@@V123@@2@ABK@Z 00450eb0 f i LinkMap.obj
 0001:0004feb0       ?equal_range@?$_Tree@V?$_Tmap_traits@KPAVCParty@@U?$less@K@std@@V?$allocator@U?$pair@$$CBKPAVCParty@@@std@@@3@$0A@@std@@@std@@QAE?AU?$pair@Viterator@?$_Tree@V?$_Tmap_traits@KPAVCParty@@U?$less@K@std@@V?$allocator@U?$pair@$$CBKPAVCParty@@@std@@@3@$0A@@std@@@std@@V123@@2@ABK@Z 00450eb0 f i party.obj
 0001:0004feb0       ?equal_range@?$_Tree@V?$_Tmap_traits@KPAVCCouple@@U?$less@K@std@@V?$allocator@U?$pair@$$CBKPAVCCouple@@@std@@@3@$0A@@std@@@std@@QAE?AU?$pair@Viterator@?$_Tree@V?$_Tmap_traits@KPAVCCouple@@U?$less@K@std@@V?$allocator@U?$pair@$$CBKPAVCCouple@@@std@@@3@$0A@@std@@@std@@V123@@2@ABK@Z 00450eb0 f i couple.obj
 0001:0004feb0       ?equal_range@?$_Tree@V?$_Tmap_traits@KKU?$less@K@std@@V?$allocator@U?$pair@$$CBKK@std@@@2@$0A@@std@@@std@@QAE?AU?$pair@Viterator@?$_Tree@V?$_Tmap_traits@KKU?$less@K@std@@V?$allocator@U?$pair@$$CBKK@std@@@2@$0A@@std@@@std@@V123@@2@ABK@Z 00450eb0 f i CampusHelper.obj
 0001:0004feb0       ?equal_range@?$_Tree@V?$_Tmap_traits@KEU?$less@K@std@@V?$allocator@U?$pair@$$CBKE@std@@@2@$0A@@std@@@std@@QAE?AU?$pair@Viterator@?$_Tree@V?$_Tmap_traits@KEU?$less@K@std@@V?$allocator@U?$pair@$$CBKE@std@@@2@$0A@@std@@@std@@V123@@2@ABK@Z 00450eb0 f i mover.obj
 0001:0004ff20       ?clear@?$_Tree@V?$_Tmap_traits@KPAVCUser@@U?$less@K@std@@V?$allocator@U?$pair@$$CBKPAVCUser@@@std@@@3@$0A@@std@@@std@@QAEXXZ 00450f20 f i LinkMap.obj
 0001:0004ff50       ?_Insert@?$_Tree@V?$_Tmap_traits@KPAVCUser@@U?$less@K@std@@V?$allocator@U?$pair@$$CBKPAVCUser@@@std@@@3@$0A@@std@@@std@@IAE?AViterator@12@_NPAU_Node@?$_Tree_nod@V?$_Tmap_traits@KPAVCUser@@U?$less@K@std@@V?$allocator@U?$pair@$$CBKPAVCUser@@@std@@@3@$0A@@std@@@2@ABU?$pair@$$CBKPAVCUser@@@2@@Z 00450f50 f i LinkMap.obj
 0001:0004ff50       ?_Insert@?$_Tree@V?$_Tmap_traits@KPAVCCtrl@@U?$less@K@std@@V?$allocator@U?$pair@$$CBKPAVCCtrl@@@std@@@3@$0A@@std@@@std@@IAE?AViterator@12@_NPAU_Node@?$_Tree_nod@V?$_Tmap_traits@KPAVCCtrl@@U?$less@K@std@@V?$allocator@U?$pair@$$CBKPAVCCtrl@@@std@@@3@$0A@@std@@@2@ABU?$pair@$$CBKPAVCCtrl@@@2@@Z 00450f50 f i LinkMap.obj
 0001:00050100       ?erase@?$_Tree@V?$_Tmap_traits@KPAVCUser@@U?$less@K@std@@V?$allocator@U?$pair@$$CBKPAVCUser@@@std@@@3@$0A@@std@@@std@@QAE?AViterator@12@V312@@Z 00451100 f i LinkMap.obj
 0001:00050100       ?erase@?$_Tree@V?$_Tmap_traits@KPAVCCtrl@@U?$less@K@std@@V?$allocator@U?$pair@$$CBKPAVCCtrl@@@std@@@3@$0A@@std@@@std@@QAE?AViterator@12@V312@@Z 00451100 f i LinkMap.obj
 0001:000503c0       ?erase@?$_Tree@V?$_Tmap_traits@KPAVCUser@@U?$less@K@std@@V?$allocator@U?$pair@$$CBKPAVCUser@@@std@@@3@$0A@@std@@@std@@QAE?AViterator@12@V312@0@Z 004513c0 f i LinkMap.obj
 0001:00050480       ?erase@?$_Tree@V?$_Tmap_traits@KPAVCCtrl@@U?$less@K@std@@V?$allocator@U?$pair@$$CBKPAVCCtrl@@@std@@@3@$0A@@std@@@std@@QAE?AViterator@12@V312@0@Z 00451480 f i LinkMap.obj
 0001:00050540       ?insert@?$_Tree@V?$_Tmap_traits@KPAVCCtrl@@U?$less@K@std@@V?$allocator@U?$pair@$$CBKPAVCCtrl@@@std@@@3@$0A@@std@@@std@@QAE?AU?$pair@Viterator@?$_Tree@V?$_Tmap_traits@KPAVCCtrl@@U?$less@K@std@@V?$allocator@U?$pair@$$CBKPAVCCtrl@@@std@@@3@$0A@@std@@@std@@_N@2@ABU?$pair@$$CBKPAVCCtrl@@@2@@Z 00451540 f i LinkMap.obj
 0001:00050540       ?insert@?$_Tree@V?$_Tmap_traits@KPAVCUser@@U?$less@K@std@@V?$allocator@U?$pair@$$CBKPAVCUser@@@std@@@3@$0A@@std@@@std@@QAE?AU?$pair@Viterator@?$_Tree@V?$_Tmap_traits@KPAVCUser@@U?$less@K@std@@V?$allocator@U?$pair@$$CBKPAVCUser@@@std@@@3@$0A@@std@@@std@@_N@2@ABU?$pair@$$CBKPAVCUser@@@2@@Z 00451540 f i LinkMap.obj
 0001:00050600       ?erase@?$_Tree@V?$_Tmap_traits@KPAVCUser@@U?$less@K@std@@V?$allocator@U?$pair@$$CBKPAVCUser@@@std@@@3@$0A@@std@@@std@@QAEIABK@Z 00451600 f i LinkMap.obj
 0001:00050660       ?erase@?$_Tree@V?$_Tmap_traits@KPAVCCtrl@@U?$less@K@std@@V?$allocator@U?$pair@$$CBKPAVCCtrl@@@std@@@3@$0A@@std@@@std@@QAEIABK@Z 00451660 f i LinkMap.obj
 0001:000506c0       ?insert@?$_Tree@V?$_Tmap_traits@KPAVCUser@@U?$less@K@std@@V?$allocator@U?$pair@$$CBKPAVCUser@@@std@@@3@$0A@@std@@@std@@QAE?AViterator@12@V312@ABU?$pair@$$CBKPAVCUser@@@2@@Z 004516c0 f i LinkMap.obj
 0001:000506c0       ?insert@?$_Tree@V?$_Tmap_traits@KPAVCCtrl@@U?$less@K@std@@V?$allocator@U?$pair@$$CBKPAVCCtrl@@@std@@@3@$0A@@std@@@std@@QAE?AViterator@12@V312@ABU?$pair@$$CBKPAVCCtrl@@@2@@Z 004516c0 f i LinkMap.obj
 0001:00050830       ??A?$map@KPAVCCtrl@@U?$less@K@std@@V?$allocator@U?$pair@$$CBKPAVCCtrl@@@std@@@3@@std@@QAEAAPAVCCtrl@@ABK@Z 00451830 f i LinkMap.obj
 0001:00050830       ??A?$map@KPAVCUser@@U?$less@K@std@@V?$allocator@U?$pair@$$CBKPAVCUser@@@std@@@3@@std@@QAEAAPAVCUser@@ABK@Z 00451830 f i LinkMap.obj
 0001:000508b0       ?AddItToView@CLinkMap@@QAEXPAVCCtrl@@@Z 004518b0 f   LinkMap.obj
 0001:00050df0       ?ModifyView@CLinkMap@@QAEXPAVCCtrl@@@Z 00451df0 f   LinkMap.obj
 0001:00051e40       ?IsExecutable@CLordSkillComponentTeleport@@UAEHPAVCUser@@PBDAAK@Z 00452e40 f   lordskillexecutable.obj
 0001:00051e40       ?IsExecutable@CLordSkillComponentSummon@@UAEHPAVCUser@@PBDAAK@Z 00452e40 f   lordskillexecutable.obj
 0001:00051e80       ?UseRequirements@lordskill@@YAHPAVCUser@@PBDHAAK@Z 00452e80 f   lordskillexecutable.obj
 0001:00051ec0       ?Execute@CLordSkillComponentSummon@@UAEXKKPAX@Z 00452ec0 f   lordskillexecutable.obj
 0001:00051f70       ?Execute@CLordSkillComponentTeleport@@UAEXKKPAX@Z 00452f70 f   lordskillexecutable.obj
 0001:00052010       ?Execute@CLordSkillComponentItemBuf@@UAEXKKPAX@Z 00453010 f   lordskillexecutable.obj
 0001:000520e0       ??1CMiniGameArithmetic@@UAE@XZ 004530e0 f   MiniGameArithmetic.obj
 0001:00052120       ??_ECMiniGameArithmetic@@UAEPAXI@Z 00453120 f i MiniGameArithmetic.obj
 0001:00052120       ??_GCMiniGameArithmetic@@UAEPAXI@Z 00453120 f i MiniGameArithmetic.obj
 0001:00052140       ??$_Copy_backward_opt@PAV?$basic_string@DU?$char_traits@D@std@@V?$allocator@D@2@@std@@PAV12@@std@@YAPAV?$basic_string@DU?$char_traits@D@std@@V?$allocator@D@2@@0@PAV10@00U_Nonscalar_ptr_iterator_tag@0@@Z 00453140 f i MiniGameArithmetic.obj
 0001:00052180       ??$_Uninit_copy@Vconst_iterator@?$vector@V?$basic_string@DU?$char_traits@D@std@@V?$allocator@D@2@@std@@V?$allocator@V?$basic_string@DU?$char_traits@D@std@@V?$allocator@D@2@@std@@@2@@std@@PAV?$basic_string@DU?$char_traits@D@std@@V?$allocator@D@2@@3@V?$allocator@V?$basic_string@DU?$char_traits@D@std@@V?$allocator@D@2@@std@@@3@@std@@YAPAV?$basic_string@DU?$char_traits@D@std@@V?$allocator@D@2@@0@Vconst_iterator@?$vector@V?$basic_string@DU?$char_traits@D@std@@V?$allocator@D@2@@std@@V?$allocator@V?$basic_string@DU?$char_traits@D@std@@V?$allocator@D@2@@std@@@2@@0@0PAV10@AAV?$allocator@V?$basic_string@DU?$char_traits@D@std@@V?$allocator@D@2@@std@@@0@U_Nonscalar_ptr_iterator_tag@0@@Z 00453180 f i MiniGameArithmetic.obj
 0001:00052220       ?InitPrimeNumber@CMiniGameArithmetic@@AAEXXZ 00453220 f   MiniGameArithmetic.obj
 0001:000522e0       ?GetDivisor@CMiniGameArithmetic@@AAEHH@Z 004532e0 f   MiniGameArithmetic.obj
 0001:000524b0       ?Calculate@CMiniGameArithmetic@@AAEHHAAHH@Z 004534b0 f   MiniGameArithmetic.obj
 0001:00052520       ??0CMiniGameArithmetic@@QAE@XZ 00453520 f   MiniGameArithmetic.obj
 0001:00052580       ??0CMiniGameArithmetic@@QAE@PAVCMiniGameBase@@@Z 00453580 f   MiniGameArithmetic.obj
 0001:00052630       ?MakeQuestion@CMiniGameArithmetic@@AAE?AV?$basic_string@DU?$char_traits@D@std@@V?$allocator@D@2@@std@@XZ 00453630 f   MiniGameArithmetic.obj
 0001:00052860       ??0?$vector@V?$basic_string@DU?$char_traits@D@std@@V?$allocator@D@2@@std@@V?$allocator@V?$basic_string@DU?$char_traits@D@std@@V?$allocator@D@2@@std@@@2@@std@@QAE@ABV01@@Z 00453860 f i MiniGameArithmetic.obj
 0001:00052930       ??1__MINIGAME_EXT_PACKET@@QAE@XZ 00453930 f i MiniGameArithmetic.obj
 0001:00052970       ??0__MINIGAME_EXT_PACKET@@QAE@ABU0@@Z 00453970 f i MiniGameArithmetic.obj
 0001:000529b0       ?Excute@CMiniGameArithmetic@@UAEHPAVCUser@@PAU__MINIGAME_PACKET@@@Z 004539b0 f   MiniGameArithmetic.obj
 0001:00052bc0       ??0CMiniGameDiceplay@@QAE@XZ 00453bc0 f   MiniGameDiceplay.obj
 0001:00052be0       ??0CMiniGameDiceplay@@QAE@PAVCMiniGameBase@@@Z 00453be0 f   MiniGameDiceplay.obj
 0001:00052c40       ??1CMiniGameDiceplay@@UAE@XZ 00453c40 f   MiniGameDiceplay.obj
 0001:00052c50       ??_GCMiniGameDiceplay@@UAEPAXI@Z 00453c50 f i MiniGameDiceplay.obj
 0001:00052c50       ??_ECMiniGameDiceplay@@UAEPAXI@Z 00453c50 f i MiniGameDiceplay.obj
 0001:00052c70       ?Excute@CMiniGameDiceplay@@UAEHPAVCUser@@PAU__MINIGAME_PACKET@@@Z 00453c70 f   MiniGameDiceplay.obj
 0001:00052d90       ??0CMiniGameGawibawibo@@QAE@XZ 00453d90 f   MiniGameGawibawibo.obj
 0001:00052dc0       ??0CMiniGameGawibawibo@@QAE@PAVCMiniGameBase@@@Z 00453dc0 f   MiniGameGawibawibo.obj
 0001:00052e00       ??1CMiniGameGawibawibo@@UAE@XZ 00453e00 f   MiniGameGawibawibo.obj
 0001:00052e10       ??_GCMiniGameGawibawibo@@UAEPAXI@Z 00453e10 f i MiniGameGawibawibo.obj
 0001:00052e10       ??_ECMiniGameGawibawibo@@UAEPAXI@Z 00453e10 f i MiniGameGawibawibo.obj
 0001:00052e30       ?Excute@CMiniGameGawibawibo@@UAEHPAVCUser@@PAU__MINIGAME_PACKET@@@Z 00453e30 f   MiniGameGawibawibo.obj
 0001:00052f10       ??0CMiniGameLadder@@QAE@XZ 00453f10 f   MiniGameLadder.obj
 0001:00052f30       ??0CMiniGameLadder@@QAE@PAVCMiniGameBase@@@Z 00453f30 f   MiniGameLadder.obj
 0001:00052f50       ??1CMiniGameLadder@@UAE@XZ 00453f50 f   MiniGameLadder.obj
 0001:00052f60       ??_GCMiniGameLadder@@UAEPAXI@Z 00453f60 f i MiniGameLadder.obj
 0001:00052f60       ??_ECMiniGameLadder@@UAEPAXI@Z 00453f60 f i MiniGameLadder.obj
 0001:00052f80       ?Excute@CMiniGameLadder@@UAEHPAVCUser@@PAU__MINIGAME_PACKET@@@Z 00453f80 f   MiniGameLadder.obj
 0001:00053030       ??A?$basic_string@DU?$char_traits@D@std@@V?$allocator@D@2@@std@@QAEAADI@Z 00454030 f i MiniGamePairgame.obj
 0001:00053050       ??$copy_backward@PAUPAIR@@PAU1@@std@@YAPAUPAIR@@PAU1@00@Z 00454050 f i MiniGamePairgame.obj
 0001:00053080       ??$_Uninit_copy@PAUPAIR@@PAU1@V?$allocator@UPAIR@@@std@@@std@@YAPAUPAIR@@PAU1@00AAV?$allocator@UPAIR@@@0@U_Nonscalar_ptr_iterator_tag@0@@Z 00454080 f i MiniGamePairgame.obj
 0001:000530b0       ??$_Uninit_fill_n@PAUPAIR@@IU1@V?$allocator@UPAIR@@@std@@@std@@YAXPAUPAIR@@IABU1@AAV?$allocator@UPAIR@@@0@U_Nonscalar_ptr_iterator_tag@0@@Z 004540b0 f i MiniGamePairgame.obj
 0001:000530e0       ??0CMiniGamePairgame@@QAE@XZ 004540e0 f   MiniGamePairgame.obj
 0001:00053110       ??0CMiniGamePairgame@@QAE@PAVCMiniGameBase@@@Z 00454110 f   MiniGamePairgame.obj
 0001:00053140       ??1CMiniGamePairgame@@UAE@XZ 00454140 f   MiniGamePairgame.obj
 0001:00053180       ?append@?$basic_string@DU?$char_traits@D@std@@V?$allocator@D@2@@std@@QAEAAV12@ID@Z 00454180 f i MiniGamePairgame.obj
 0001:00053250       ?_Ufill@?$vector@UPAIR@@V?$allocator@UPAIR@@@std@@@std@@IAEPAUPAIR@@PAU3@IABU3@@Z 00454250 f i MiniGamePairgame.obj
 0001:00053280       ??_ECMiniGamePairgame@@UAEPAXI@Z 00454280 f i MiniGamePairgame.obj
 0001:00053280       ??_GCMiniGamePairgame@@UAEPAXI@Z 00454280 f i MiniGamePairgame.obj
 0001:000532a0       ?_Xlen@?$vector@UPAIR@@V?$allocator@UPAIR@@@std@@@std@@IBEXXZ 004542a0 f i MiniGamePairgame.obj
 0001:00053310       ?_Insert_n@?$vector@UPAIR@@V?$allocator@UPAIR@@@std@@@std@@IAEXViterator@12@IABUPAIR@@@Z 00454310 f i MiniGamePairgame.obj
 0001:00053550       ?MakeGame@CMiniGamePairgame@@AAE?AV?$basic_string@DU?$char_traits@D@std@@V?$allocator@D@2@@std@@XZ 00454550 f   MiniGamePairgame.obj
 0001:000536f0       ?Excute@CMiniGamePairgame@@UAEHPAVCUser@@PAU__MINIGAME_PACKET@@@Z 004546f0 f   MiniGamePairgame.obj
 0001:00053910       ??0CMiniGameStopwatch@@QAE@XZ 00454910 f   MiniGameStopwatch.obj
 0001:00053930       ??0CMiniGameStopwatch@@QAE@PAVCMiniGameBase@@@Z 00454930 f   MiniGameStopwatch.obj
 0001:00053950       ??1CMiniGameStopwatch@@UAE@XZ 00454950 f   MiniGameStopwatch.obj
 0001:00053960       ??_GCMiniGameStopwatch@@UAEPAXI@Z 00454960 f i MiniGameStopwatch.obj
 0001:00053960       ??_ECMiniGameStopwatch@@UAEPAXI@Z 00454960 f i MiniGameStopwatch.obj
 0001:00053980       ?Excute@CMiniGameStopwatch@@UAEHPAVCUser@@PAU__MINIGAME_PACKET@@@Z 00454980 f   MiniGameStopwatch.obj
 0001:00053a60       ??$_Copy_opt@PAV?$basic_string@DU?$char_traits@D@std@@V?$allocator@D@2@@std@@PAV12@@std@@YAPAV?$basic_string@DU?$char_traits@D@std@@V?$allocator@D@2@@0@PAV10@00U_Nonscalar_ptr_iterator_tag@0@@Z 00454a60 f i MiniGameTyping.obj
 0001:00053a60       ??$_Copy_opt@Viterator@?$vector@V?$basic_string@DU?$char_traits@D@std@@V?$allocator@D@2@@std@@V?$allocator@V?$basic_string@DU?$char_traits@D@std@@V?$allocator@D@2@@std@@@2@@std@@PAV?$basic_string@DU?$char_traits@D@std@@V?$allocator@D@2@@3@@std@@YAPAV?$basic_string@DU?$char_traits@D@std@@V?$allocator@D@2@@0@Viterator@?$vector@V?$basic_string@DU?$char_traits@D@std@@V?$allocator@D@2@@std@@V?$allocator@V?$basic_string@DU?$char_traits@D@std@@V?$allocator@D@2@@std@@@2@@0@0PAV10@U_Nonscalar_ptr_iterator_tag@0@@Z 00454a60 f i MiniGameTyping.obj
 0001:00053aa0       ??$_Uninit_copy@Viterator@?$vector@V?$basic_string@DU?$char_traits@D@std@@V?$allocator@D@2@@std@@V?$allocator@V?$basic_string@DU?$char_traits@D@std@@V?$allocator@D@2@@std@@@2@@std@@PAV?$basic_string@DU?$char_traits@D@std@@V?$allocator@D@2@@3@V?$allocator@V?$basic_string@DU?$char_traits@D@std@@V?$allocator@D@2@@std@@@3@@std@@YAPAV?$basic_string@DU?$char_traits@D@std@@V?$allocator@D@2@@0@Viterator@?$vector@V?$basic_string@DU?$char_traits@D@std@@V?$allocator@D@2@@std@@V?$allocator@V?$basic_string@DU?$char_traits@D@std@@V?$allocator@D@2@@std@@@2@@0@0PAV10@AAV?$allocator@V?$basic_string@DU?$char_traits@D@std@@V?$allocator@D@2@@std@@@0@U_Nonscalar_ptr_iterator_tag@0@@Z 00454aa0 f i MiniGameTyping.obj
 0001:00053b40       ??$_Insert@Viterator@?$vector@V?$basic_string@DU?$char_traits@D@std@@V?$allocator@D@2@@std@@V?$allocator@V?$basic_string@DU?$char_traits@D@std@@V?$allocator@D@2@@std@@@2@@std@@@?$vector@V?$basic_string@DU?$char_traits@D@std@@V?$allocator@D@2@@std@@V?$allocator@V?$basic_string@DU?$char_traits@D@std@@V?$allocator@D@2@@std@@@2@@std@@QAEXViterator@01@00Uforward_iterator_tag@1@@Z 00454b40 f i MiniGameTyping.obj
 0001:00053e80       ??0CMiniGameTyping@@QAE@XZ 00454e80 f   MiniGameTyping.obj
 0001:00053ed0       ??0CMiniGameTyping@@QAE@PAVCMiniGameBase@@@Z 00454ed0 f   MiniGameTyping.obj
 0001:00053f20       ??1CMiniGameTyping@@UAE@XZ 00454f20 f   MiniGameTyping.obj
 0001:00053f80       ??_GCMiniGameTyping@@UAEPAXI@Z 00454f80 f i MiniGameTyping.obj
 0001:00053f80       ??_ECMiniGameTyping@@UAEPAXI@Z 00454f80 f i MiniGameTyping.obj
 0001:00053fa0       ?MakeQuestion@CMiniGameTyping@@AAEXXZ 00454fa0 f   MiniGameTyping.obj
 0001:00054110       ??$assign@Viterator@?$vector@V?$basic_string@DU?$char_traits@D@std@@V?$allocator@D@2@@std@@V?$allocator@V?$basic_string@DU?$char_traits@D@std@@V?$allocator@D@2@@std@@@2@@std@@@?$vector@V?$basic_string@DU?$char_traits@D@std@@V?$allocator@D@2@@std@@V?$allocator@V?$basic_string@DU?$char_traits@D@std@@V?$allocator@D@2@@std@@@2@@std@@QAEXViterator@01@0@Z 00455110 f i MiniGameTyping.obj
 0001:00054170       ?Excute@CMiniGameTyping@@UAEHPAVCUser@@PAU__MINIGAME_PACKET@@@Z 00455170 f   MiniGameTyping.obj
 0001:00054370       ?HasBuff@CMover@@QAEHGG@Z  00455370 f   moverbuff.obj
 0001:00054380       ?RemoveBuff@CMover@@QAEXGG@Z 00455380 f   moverbuff.obj
 0001:000543a0       ?HasBuffByIk3@CMover@@QAEHK@Z 004553a0 f   moverbuff.obj
 0001:000543b0       ?RemovePet@CMover@@QAEXXZ  004553b0 f   moverbuff.obj
 0001:000543c0       ?AddBuff@CMover@@QAEHGGKKK@Z 004553c0 f   moverbuff.obj
 0001:000543d0       ?RemoveCommonBuffs@CMover@@QAEXXZ 004553d0 f   moverbuff.obj
 0001:000543e0       ?RemoveChrStateBuffs@CMover@@QAEXK@Z 004553e0 f   moverbuff.obj
 0001:00054400       ?RemoveIk3Buffs@CMover@@QAEXK@Z 00455400 f   moverbuff.obj
 0001:00054420       ?RemoveAllBuff@CMover@@QAEXXZ 00455420 f   moverbuff.obj
 0001:00054440       ?ProcessBuff@CMover@@QAEXXZ 00455440 f   moverbuff.obj
 0001:00054450       ?RemoveAttackerBuffs@CMover@@QAEXK@Z 00455450 f   moverbuff.obj
 0001:00054470       ?RemoveDstParamBuffs@CMover@@QAEXK@Z 00455470 f   moverbuff.obj
 0001:00054490       ?RemoveDebufBuffs@CMover@@QAEXXZ 00455490 f   moverbuff.obj
 0001:000544a0       ?HasPet@CMover@@QAEHXZ     004554a0 f   moverbuff.obj
 0001:000544c0       ?Apply@IBuff@@MAEXPAVCMover@@@Z 004554c0 f i buff.obj
 0001:000544c0       ?Render@CCommonCtrl@@UAEXPAUIDirect3DDevice9@@@Z 004554c0 f i CommonCtrl.obj
 0001:000544c0       ?AddFrame@CModel@@UAEXM@Z  004554c0 f i Model.obj
 0001:000544c0       ?SetGroup@CModel@@UAEXH@Z  004554c0 f i Model.obj
 0001:000544c0       ?Render@CItem@@UAEXPAUIDirect3DDevice9@@@Z 004554c0 f i Item.obj
 0001:000544c0       ?Release@IBuff@@UAEXPAVCBuffMgr@@@Z 004554c0 f i buff.obj
 0001:000544c0       ?DoDataExchange@CWnd@@MAEXPAVCDataExchange@@@Z 004554c0 f i MySplashWnd.obj
 0001:000544c0       ?OnExpire@IBuff@@UAEXPAVCMover@@@Z 004554c0 f i buff.obj
 0001:000544c0       ?InitProp@CObj@@UAEXH@Z    004554c0 f i Obj.obj
 0001:000544c0       ?Render@CObj@@UAEXPAUIDirect3DDevice9@@@Z 004554c0 f i Obj.obj
 0001:000544c0       ?SetFrame@CModel@@UAEXM@Z  004554c0 f i Model.obj
 0001:000544c0       ?Serialize@CObject@@UAEXAAVCArchive@@@Z 004554c0 f i MySplashWnd.obj
 0001:000544d0       ??1CGdiObject@@UAE@XZ      004554d0 f i MySplashWnd.obj
 0001:000544e0       ?BeginModalState@CWnd@@UAEXXZ 004554e0 f i MySplashWnd.obj
 0001:000544f0       ?EndModalState@CWnd@@UAEXXZ 004554f0 f i MySplashWnd.obj
 0001:00054500       ??_GCGdiObject@@UAEPAXI@Z  00455500 f i MySplashWnd.obj
 0001:00054500       ??_ECGdiObject@@UAEPAXI@Z  00455500 f i MySplashWnd.obj
 0001:00054520       ?IsCloseNpc@CNpcChecker@@QAEHHPAVCWorld@@AAUD3DXVECTOR3@@@Z 00455520 f   npchecker.obj
 0001:000545f0       ?IsCloseNpc@CNpcChecker@@QAEHPAVCWorld@@AAUD3DXVECTOR3@@@Z 004555f0 f   npchecker.obj
 0001:00054700       ?find@?$_Tree@V?$_Tset_traits@KU?$less@K@std@@V?$allocator@K@2@$0A@@std@@@std@@QAE?AViterator@12@ABK@Z 00455700 f i npchecker.obj
 0001:00054770       ?RemoveNpc@CNpcChecker@@QAEXPAVCObj@@@Z 00455770 f   npchecker.obj
 0001:000547f0       ?AddNpc@CNpcChecker@@QAEXPAVCObj@@@Z 004557f0 f   npchecker.obj
 0001:00054870       ??1CNpcChecker@@UAE@XZ     00455870 f   npchecker.obj
 0001:00054890       ??_ECNpcChecker@@UAEPAXI@Z 00455890 f i npchecker.obj
 0001:00054890       ??_GCNpcChecker@@UAEPAXI@Z 00455890 f i npchecker.obj
 0001:000548b0       ?GetInstance@CNpcChecker@@SAPAV1@XZ 004558b0 f   npchecker.obj
 0001:00054930       ??0CPocketController@@QAE@XZ 00455930 f   pocket.obj
 0001:00054950       ?Clear@CPocketController@@QAEXXZ 00455950 f   pocket.obj
 0001:00054980       ??0?$CItemContainer@VCItemElem@@@@QAE@XZ 00455980 f i pocket.obj
 0001:000549a0       ??_ECItemElem@@UAEPAXI@Z   004559a0 f i pocket.obj
 0001:00054a00       ?Clear@?$CItemContainer@VCItemElem@@@@QAEXXZ 00455a00 f i pocket.obj
 0001:00054a60       ??_E?$CItemContainer@VCItemElem@@@@UAEPAXI@Z 00455a60 f i pocket.obj
 0001:00054a60       ??_G?$CItemContainer@VCItemElem@@@@UAEPAXI@Z 00455a60 f i pocket.obj
 0001:00054ac0       ??1CPocket@@UAE@XZ         00455ac0 f   pocket.obj
 0001:00054ac0       ??1?$CItemContainer@VCItemElem@@@@UAE@XZ 00455ac0 f   pocket.obj
 0001:00054b10       ??1CPocketController@@UAE@XZ 00455b10 f   pocket.obj
 0001:00054b20       ?GetAtId@CPocketController@@QAEPAVCItemElem@@HHH@Z 00455b20 f   pocket.obj
 0001:00054b70       ?RemoveAtId@CPocketController@@QAEHHHH@Z 00455b70 f   pocket.obj
 0001:00054c00       ?GetAvailable@CPocketController@@QAEJH@Z 00455c00 f   pocket.obj
 0001:00054c40       ?GetPocket@CPocketController@@QAEPAVCPocket@@H@Z 00455c40 f   pocket.obj
 0001:00054c50       ?SetItemContainer@?$CItemContainer@VCItemElem@@@@QAEXKKK@Z 00455c50 f i pocket.obj
 0001:00054d40       ??_GCPocket@@UAEPAXI@Z     00455d40 f i pocket.obj
 0001:00054d40       ??_ECPocket@@UAEPAXI@Z     00455d40 f i pocket.obj
 0001:00054d60       ?Serialize@CPocket@@QAEXAAVCAr@@@Z 00455d60 f   pocket.obj
 0001:00054e30       ??_GCPocketController@@UAEPAXI@Z 00455e30 f i pocket.obj
 0001:00054e30       ??_ECPocketController@@UAEPAXI@Z 00455e30 f i pocket.obj
 0001:00054e60       ?Avail@CPocketController@@QAEXHJ@Z 00455e60 f   pocket.obj
 0001:00054f00       ?IsAllClean@CPocketController@@QAEHXZ 00455f00 f   pocket.obj
 0001:00054f80       ?SetAttribute@CPocketController@@QAEXHHH@Z 00455f80 f   pocket.obj
 0001:00054fe0       ?Serialize@CPocketController@@QAEXAAVCAr@@@Z 00455fe0 f   pocket.obj
 0001:00055090       ?ProcessExpiring@CPocketController@@QAEXXZ 00456090 f   pocket.obj
 0001:000550f0       ?_Xlen@?$vector@U_PocketController_Result@@V?$allocator@U_PocketController_Result@@@std@@@std@@IBEXXZ 004560f0 f i pocket.obj
 0001:00055160       ?_Insert_n@?$vector@U_PocketController_Result@@V?$allocator@U_PocketController_Result@@@std@@@std@@IAEXViterator@12@IABU_PocketController_Result@@@Z 00456160 f i pocket.obj
 0001:00055420       ?insert@?$vector@U_PocketController_Result@@V?$allocator@U_PocketController_Result@@@std@@@std@@QAE?AViterator@12@V312@ABU_PocketController_Result@@@Z 00456420 f i pocket.obj
 0001:00055490       ?push_back@?$vector@U_PocketController_Result@@V?$allocator@U_PocketController_Result@@@std@@@std@@QAEXABU_PocketController_Result@@@Z 00456490 f i pocket.obj
 0001:00055510       ?Add@CPocketController@@QAEHHPAVCItemElem@@PAV?$vector@U_PocketController_Result@@V?$allocator@U_PocketController_Result@@@std@@@std@@@Z 00456510 f   pocket.obj
 0001:00055600       ??0CMail@@QAE@XZ           00456600 f   post.obj
 0001:00055630       ?_Min@?$_Tree@V?$_Tmap_traits@KPAV?$vector@U_SINGLE_DST@@V?$allocator@U_SINGLE_DST@@@std@@@std@@U?$less@K@2@V?$allocator@U?$pair@$$CBKPAV?$vector@U_SINGLE_DST@@V?$allocator@U_SINGLE_DST@@@std@@@std@@@std@@@2@$0A@@std@@@std@@KAPAU_Node@?$_Tree_nod@V?$_Tmap_traits@KPAV?$vector@U_SINGLE_DST@@V?$allocator@U_SINGLE_DST@@@std@@@std@@U?$less@K@2@V?$allocator@U?$pair@$$CBKPAV?$vector@U_SINGLE_DST@@V?$allocator@U_SINGLE_DST@@@std@@@std@@@std@@@2@$0A@@std@@@2@PAU342@@Z 00456630 f i accessory.obj
 0001:00055630       ?_Min@?$_Tree@V?$_Tmap_traits@HPAVCSetItem@@U?$less@H@std@@V?$allocator@U?$pair@$$CBHPAVCSetItem@@@std@@@3@$0A@@std@@@std@@KAPAU_Node@?$_Tree_nod@V?$_Tmap_traits@HPAVCSetItem@@U?$less@H@std@@V?$allocator@U?$pair@$$CBHPAVCSetItem@@@std@@@3@$0A@@std@@@2@PAU342@@Z 00456630 f i Project.obj
 0001:00055630       ?_Min@?$_Tree@V?$_Tmap_traits@KEU?$less@K@std@@V?$allocator@U?$pair@$$CBKE@std@@@2@$0A@@std@@@std@@KAPAU_Node@?$_Tree_nod@V?$_Tmap_traits@KEU?$less@K@std@@V?$allocator@U?$pair@$$CBKE@std@@@2@$0A@@std@@@2@PAU342@@Z 00456630 f i EventLua.obj
 0001:00055630       ?_Min@?$_Tree@V?$_Tmap_traits@KPAUAMP_STORE_INFO@@U?$less@K@std@@V?$allocator@U?$pair@$$CBKPAUAMP_STORE_INFO@@@std@@@3@$0A@@std@@@std@@KAPAU_Node@?$_Tree_nod@V?$_Tmap_traits@KPAUAMP_STORE_INFO@@U?$less@K@std@@V?$allocator@U?$pair@$$CBKPAUAMP_STORE_INFO@@@std@@@3@$0A@@std@@@2@PAU342@@Z 00456630 f i Project.obj
 0001:00055630       ?_Min@?$_Tree@V?$_Tmap_traits@KPAVCGuild@@U?$less@K@std@@V?$allocator@U?$pair@$$CBKPAVCGuild@@@std@@@3@$0A@@std@@@std@@KAPAU_Node@?$_Tree_nod@V?$_Tmap_traits@KPAVCGuild@@U?$less@K@std@@V?$allocator@U?$pair@$$CBKPAVCGuild@@@std@@@3@$0A@@std@@@2@PAU342@@Z 00456630 f i eveschool.obj
 0001:00055630       ?_Min@?$_Tree@V?$_Tmap_traits@HPAV?$list@PAVCEventItem@@V?$allocator@PAVCEventItem@@@std@@@std@@U?$less@H@2@V?$allocator@U?$pair@$$CBHPAV?$list@PAVCEventItem@@V?$allocator@PAVCEventItem@@@std@@@std@@@std@@@2@$0A@@std@@@std@@KAPAU_Node@?$_Tree_nod@V?$_Tmap_traits@HPAV?$list@PAVCEventItem@@V?$allocator@PAVCEventItem@@@std@@@std@@U?$less@H@2@V?$allocator@U?$pair@$$CBHPAV?$list@PAVCEventItem@@V?$allocator@PAVCEventItem@@@std@@@std@@@std@@@2@$0A@@std@@@2@PAU342@@Z 00456630 f i spevent.obj
 0001:00055630       ?_Min@?$_Tree@V?$_Tmap_traits@KHU?$less@K@std@@V?$allocator@U?$pair@$$CBKH@std@@@2@$0A@@std@@@std@@KAPAU_Node@?$_Tree_nod@V?$_Tmap_traits@KHU?$less@K@std@@V?$allocator@U?$pair@$$CBKH@std@@@2@$0A@@std@@@2@PAU342@@Z 00456630 f i CreateMonster.obj
 0001:00055630       ?_Min@?$_Tree@V?$_Tmap_traits@EPAVCSecretRoomContinent@@U?$less@E@std@@V?$allocator@U?$pair@$$CBEPAVCSecretRoomContinent@@@std@@@3@$0A@@std@@@std@@KAPAU_Node@?$_Tree_nod@V?$_Tmap_traits@EPAVCSecretRoomContinent@@U?$less@E@std@@V?$allocator@U?$pair@$$CBEPAVCSecretRoomContinent@@@std@@@3@$0A@@std@@@2@PAU342@@Z 00456630 f i DPDatabaseClient.obj
 0001:00055630       ?_Min@?$_Tree@V?$_Tmap_traits@KPAVCGuildWar@@U?$less@K@std@@V?$allocator@U?$pair@$$CBKPAVCGuildWar@@@std@@@3@$0A@@std@@@std@@KAPAU_Node@?$_Tree_nod@V?$_Tmap_traits@KPAVCGuildWar@@U?$less@K@std@@V?$allocator@U?$pair@$$CBKPAVCGuildWar@@@std@@@3@$0A@@std@@@2@PAU342@@Z 00456630 f i guildwar.obj
 0001:00055630       ?_Min@?$_Tree@V?$_Tmap_traits@KPAVCChatting@@U?$less@K@std@@V?$allocator@U?$pair@$$CBKPAVCChatting@@@std@@@3@$0A@@std@@@std@@KAPAU_Node@?$_Tree_nod@V?$_Tmap_traits@KPAVCChatting@@U?$less@K@std@@V?$allocator@U?$pair@$$CBKPAVCChatting@@@std@@@3@$0A@@std@@@2@PAU342@@Z 00456630 f i Chatting.obj
 0001:00055630       ?_Min@?$_Tree@V?$_Tmap_traits@HPAVCTransformItemComponent@@U?$less@H@std@@V?$allocator@U?$pair@$$CBHPAVCTransformItemComponent@@@std@@@3@$0A@@std@@@std@@KAPAU_Node@?$_Tree_nod@V?$_Tmap_traits@HPAVCTransformItemComponent@@U?$less@H@std@@V?$allocator@U?$pair@$$CBHPAVCTransformItemComponent@@@std@@@3@$0A@@std@@@2@PAU342@@Z 00456630 f i pet.obj
 0001:00055630       ?_Min@?$_Tree@V?$_Tmap_traits@KPAVCMailBox@@U?$less@K@std@@V?$allocator@U?$pair@$$CBKPAVCMailBox@@@std@@@3@$0A@@std@@@std@@KAPAU_Node@?$_Tree_nod@V?$_Tmap_traits@KPAVCMailBox@@U?$less@K@std@@V?$allocator@U?$pair@$$CBKPAVCMailBox@@@std@@@3@$0A@@std@@@2@PAU342@@Z 00456630 f i post.obj
 0001:00055630       ?_Min@?$_Tree@V?$_Tmap_traits@KPAVCGuildMember@@U?$less@K@std@@V?$allocator@U?$pair@$$CBKPAVCGuildMember@@@std@@@3@$0A@@std@@@std@@KAPAU_Node@?$_Tree_nod@V?$_Tmap_traits@KPAVCGuildMember@@U?$less@K@std@@V?$allocator@U?$pair@$$CBKPAVCGuildMember@@@std@@@3@$0A@@std@@@2@PAU342@@Z 00456630 f i DPCoreClient.obj
 0001:00055630       ?_Min@?$_Tree@V?$_Tmap_traits@EPAU__TAXDETAIL@@U?$less@E@std@@V?$allocator@U?$pair@$$CBEPAU__TAXDETAIL@@@std@@@3@$0A@@std@@@std@@KAPAU_Node@?$_Tree_nod@V?$_Tmap_traits@EPAU__TAXDETAIL@@U?$less@E@std@@V?$allocator@U?$pair@$$CBEPAU__TAXDETAIL@@@std@@@3@$0A@@std@@@2@PAU342@@Z 00456630 f i Tax.obj
 0001:00055630       ?_Min@?$_Tree@V?$_Tmap_traits@HHU?$less@H@std@@V?$allocator@U?$pair@$$CBHH@std@@@2@$00@std@@@std@@KAPAU_Node@?$_Tree_nod@V?$_Tmap_traits@HHU?$less@H@std@@V?$allocator@U?$pair@$$CBHH@std@@@2@$00@std@@@2@PAU342@@Z 00456630 f i GuildCombat1to1.obj
 0001:00055630       ?_Min@?$_Tree@V?$_Tmap_traits@KP8CDPCoreClient@@AEXAAVCAr@@KKK@ZU?$less@K@std@@V?$allocator@U?$pair@$$CBKP8CDPCoreClient@@AEXAAVCAr@@KKK@Z@std@@@4@$0A@@std@@@std@@KAPAU_Node@?$_Tree_nod@V?$_Tmap_traits@KP8CDPCoreClient@@AEXAAVCAr@@KKK@ZU?$less@K@std@@V?$allocator@U?$pair@$$CBKP8CDPCoreClient@@AEXAAVCAr@@KKK@Z@std@@@4@$0A@@std@@@2@PAU342@@Z 00456630 f i DPCoreClient.obj
 0001:00055630       ?_Min@?$_Tree@V?$_Tmap_traits@HPAVCSpawn@@U?$less@H@std@@V?$allocator@U?$pair@$$CBHPAVCSpawn@@@std@@@3@$0A@@std@@@std@@KAPAU_Node@?$_Tree_nod@V?$_Tmap_traits@HPAVCSpawn@@U?$less@H@std@@V?$allocator@U?$pair@$$CBHPAVCSpawn@@@std@@@3@$0A@@std@@@2@PAU342@@Z 00456630 f i spevent.obj
 0001:00055630       ?_Min@?$_Tree@V?$_Tmap_traits@PAVCSetItem@@HU?$less@PAVCSetItem@@@std@@V?$allocator@U?$pair@QAVCSetItem@@H@std@@@3@$0A@@std@@@std@@KAPAU_Node@?$_Tree_nod@V?$_Tmap_traits@PAVCSetItem@@HU?$less@PAVCSetItem@@@std@@V?$allocator@U?$pair@QAVCSetItem@@H@std@@@3@$0A@@std@@@2@PAU342@@Z 00456630 f i mover.obj
 0001:00055630       ?_Min@?$_Tree@V?$_Tmap_traits@HV?$CStringT@DV?$StrTraitMFC@DV?$ChTraitsCRT@D@ATL@@@@@ATL@@U?$less@H@std@@V?$allocator@U?$pair@$$CBHV?$CStringT@DV?$StrTraitMFC@DV?$ChTraitsCRT@D@ATL@@@@@ATL@@@std@@@4@$0A@@std@@@std@@KAPAU_Node@?$_Tree_nod@V?$_Tmap_traits@HV?$CStringT@DV?$StrTraitMFC@DV?$ChTraitsCRT@D@ATL@@@@@ATL@@U?$less@H@std@@V?$allocator@U?$pair@$$CBHV?$CStringT@DV?$StrTraitMFC@DV?$ChTraitsCRT@D@ATL@@@@@ATL@@@std@@@4@$0A@@std@@@2@PAU342@@Z 00456630 f i MiniGame.obj
 0001:00055630       ?_Min@?$_Tree@V?$_Tmap_traits@KPAU_PlayerData@@U?$less@K@std@@V?$allocator@U?$pair@$$CBKPAU_PlayerData@@@std@@@3@$0A@@std@@@std@@KAPAU_Node@?$_Tree_nod@V?$_Tmap_traits@KPAU_PlayerData@@U?$less@K@std@@V?$allocator@U?$pair@$$CBKPAU_PlayerData@@@std@@@3@$0A@@std@@@2@PAU342@@Z 00456630 f i playerdata.obj
 0001:00055630       ?_Min@?$_Tree@V?$_Tmap_traits@KPAVCParty@@U?$less@K@std@@V?$allocator@U?$pair@$$CBKPAVCParty@@@std@@@3@$0A@@std@@@std@@KAPAU_Node@?$_Tree_nod@V?$_Tmap_traits@KPAVCParty@@U?$less@K@std@@V?$allocator@U?$pair@$$CBKPAVCParty@@@std@@@3@$0A@@std@@@2@PAU342@@Z 00456630 f i User.obj
 0001:00055630       ?_Min@?$_Tree@V?$_Tmap_traits@KPAUCREATE_MONSTER_PROP@@U?$less@K@std@@V?$allocator@U?$pair@$$CBKPAUCREATE_MONSTER_PROP@@@std@@@3@$0A@@std@@@std@@KAPAU_Node@?$_Tree_nod@V?$_Tmap_traits@KPAUCREATE_MONSTER_PROP@@U?$less@K@std@@V?$allocator@U?$pair@$$CBKPAUCREATE_MONSTER_PROP@@@std@@@3@$0A@@std@@@2@PAU342@@Z 00456630 f i CreateMonster.obj
 0001:00055630       ?_Min@?$_Tree@V?$_Tmap_traits@EPAU__TAXINFO@@U?$less@E@std@@V?$allocator@U?$pair@$$CBEPAU__TAXINFO@@@std@@@3@$0A@@std@@@std@@KAPAU_Node@?$_Tree_nod@V?$_Tmap_traits@EPAU__TAXINFO@@U?$less@E@std@@V?$allocator@U?$pair@$$CBEPAU__TAXINFO@@@std@@@3@$0A@@std@@@2@PAU342@@Z 00456630 f i Tax.obj
 0001:00055630       ?_Min@?$_Tree@V?$_Tmap_traits@KP8CDPSrvr@@AEXAAVCAr@@KKPAEK@ZU?$less@K@std@@V?$allocator@U?$pair@$$CBKP8CDPSrvr@@AEXAAVCAr@@KKPAEK@Z@std@@@4@$0A@@std@@@std@@KAPAU_Node@?$_Tree_nod@V?$_Tmap_traits@KP8CDPSrvr@@AEXAAVCAr@@KKPAEK@ZU?$less@K@std@@V?$allocator@U?$pair@$$CBKP8CDPSrvr@@AEXAAVCAr@@KKPAEK@Z@std@@@4@$0A@@std@@@2@PAU342@@Z 00456630 f i DPSrvr.obj
 0001:00055630       ?_Min@?$_Tree@V?$_Tmap_traits@HPAVCRespawner@@U?$less@H@std@@V?$allocator@U?$pair@$$CBHPAVCRespawner@@@std@@@3@$0A@@std@@@std@@KAPAU_Node@?$_Tree_nod@V?$_Tmap_traits@HPAVCRespawner@@U?$less@H@std@@V?$allocator@U?$pair@$$CBHPAVCRespawner@@@std@@@3@$0A@@std@@@2@PAU342@@Z 00456630 f i Respawn.obj
 0001:00055630       ?_Min@?$_Tree@V?$_Tmap_traits@KPAVCRainbowRace@@U?$less@K@std@@V?$allocator@U?$pair@$$CBKPAVCRainbowRace@@@std@@@3@$0A@@std@@@std@@KAPAU_Node@?$_Tree_nod@V?$_Tmap_traits@KPAVCRainbowRace@@U?$less@K@std@@V?$allocator@U?$pair@$$CBKPAVCRainbowRace@@@std@@@3@$0A@@std@@@2@PAU342@@Z 00456630 f i RainbowRace.obj
 0001:00055630       ?_Min@?$_Tree@V?$_Tmap_traits@KPAVCCampusMember@@U?$less@K@std@@V?$allocator@U?$pair@$$CBKPAVCCampusMember@@@std@@@3@$0A@@std@@@std@@KAPAU_Node@?$_Tree_nod@V?$_Tmap_traits@KPAVCCampusMember@@U?$less@K@std@@V?$allocator@U?$pair@$$CBKPAVCCampusMember@@@std@@@3@$0A@@std@@@2@PAU342@@Z 00456630 f i Campus.obj
 0001:00055630       ?_Min@?$_Tree@V?$_Tmap_traits@KPAVCMover@@U?$less@K@std@@V?$allocator@U?$pair@$$CBKPAVCMover@@@std@@@3@$0A@@std@@@std@@KAPAU_Node@?$_Tree_nod@V?$_Tmap_traits@KPAVCMover@@U?$less@K@std@@V?$allocator@U?$pair@$$CBKPAVCMover@@@std@@@3@$0A@@std@@@2@PAU342@@Z 00456630 f i Project.obj
 0001:00055630       ?_Min@?$_Tree@V?$_Tmap_traits@KPAVCUser@@U?$less@K@std@@V?$allocator@U?$pair@$$CBKPAVCUser@@@std@@@3@$0A@@std@@@std@@KAPAU_Node@?$_Tree_nod@V?$_Tmap_traits@KPAVCUser@@U?$less@K@std@@V?$allocator@U?$pair@$$CBKPAVCUser@@@std@@@3@$0A@@std@@@2@PAU342@@Z 00456630 f i LinkMap.obj
 0001:00055630       ?_Min@?$_Tree@V?$_Tmap_traits@KV?$CStringT@DV?$StrTraitMFC@DV?$ChTraitsCRT@D@ATL@@@@@ATL@@U?$less@K@std@@V?$allocator@U?$pair@$$CBKV?$CStringT@DV?$StrTraitMFC@DV?$ChTraitsCRT@D@ATL@@@@@ATL@@@std@@@4@$0A@@std@@@std@@KAPAU_Node@?$_Tree_nod@V?$_Tmap_traits@KV?$CStringT@DV?$StrTraitMFC@DV?$ChTraitsCRT@D@ATL@@@@@ATL@@U?$less@K@std@@V?$allocator@U?$pair@$$CBKV?$CStringT@DV?$StrTraitMFC@DV?$ChTraitsCRT@D@ATL@@@@@ATL@@@std@@@4@$0A@@std@@@2@PAU342@@Z 00456630 f i DPCoreClient.obj
 0001:00055630       ?_Min@?$_Tree@V?$_Tmap_traits@HHU?$less@H@std@@V?$allocator@U?$pair@$$CBHH@std@@@2@$0A@@std@@@std@@KAPAU_Node@?$_Tree_nod@V?$_Tmap_traits@HHU?$less@H@std@@V?$allocator@U?$pair@$$CBHH@std@@@2@$0A@@std@@@2@PAU342@@Z 00456630 f i ItemUpgrade.obj
 0001:00055630       ?_Min@?$_Tree@V?$_Tmap_traits@KPAVCClientSock@@U?$less@K@std@@V?$allocator@U?$pair@$$CBKPAVCClientSock@@@std@@@3@$0A@@std@@@std@@KAPAU_Node@?$_Tree_nod@V?$_Tmap_traits@KPAVCClientSock@@U?$less@K@std@@V?$allocator@U?$pair@$$CBKPAVCClientSock@@@std@@@3@$0A@@std@@@2@PAU342@@Z 00456630 f i serversock.obj
 0001:00055630       ?_Min@?$_Tree@V?$_Tmap_traits@KP8CDPDatabaseClient@@AEXAAVCAr@@KK@ZU?$less@K@std@@V?$allocator@U?$pair@$$CBKP8CDPDatabaseClient@@AEXAAVCAr@@KK@Z@std@@@4@$0A@@std@@@std@@KAPAU_Node@?$_Tree_nod@V?$_Tmap_traits@KP8CDPDatabaseClient@@AEXAAVCAr@@KK@ZU?$less@K@std@@V?$allocator@U?$pair@$$CBKP8CDPDatabaseClient@@AEXAAVCAr@@KK@Z@std@@@4@$0A@@std@@@2@PAU342@@Z 00456630 f i DPDatabaseClient.obj
 0001:00055630       ?_Min@?$_Tree@V?$_Tmap_traits@KKU?$less@K@std@@V?$allocator@U?$pair@$$CBKK@std@@@2@$0A@@std@@@std@@KAPAU_Node@?$_Tree_nod@V?$_Tmap_traits@KKU?$less@K@std@@V?$allocator@U?$pair@$$CBKK@std@@@2@$0A@@std@@@2@PAU342@@Z 00456630 f i Campus.obj
 0001:00055630       ?_Min@?$_Tree@V?$_Tmap_traits@KPAVCCtrl@@U?$less@K@std@@V?$allocator@U?$pair@$$CBKPAVCCtrl@@@std@@@3@$0A@@std@@@std@@KAPAU_Node@?$_Tree_nod@V?$_Tmap_traits@KPAVCCtrl@@U?$less@K@std@@V?$allocator@U?$pair@$$CBKPAVCCtrl@@@std@@@3@$0A@@std@@@2@PAU342@@Z 00456630 f i LinkMap.obj
 0001:00055630       ?_Min@?$_Tree@V?$_Tmap_traits@KPAVCClientSockE@@U?$less@K@std@@V?$allocator@U?$pair@$$CBKPAVCClientSockE@@@std@@@3@$0A@@std@@@std@@KAPAU_Node@?$_Tree_nod@V?$_Tmap_traits@KPAVCClientSockE@@U?$less@K@std@@V?$allocator@U?$pair@$$CBKPAVCClientSockE@@@std@@@3@$0A@@std@@@2@PAU342@@Z 00456630 f i serversocke.obj
 0001:00055630       ?_Min@?$_Tree@V?$_Tmap_traits@KPAVCHousing@@U?$less@K@std@@V?$allocator@U?$pair@$$CBKPAVCHousing@@@std@@@3@$0A@@std@@@std@@KAPAU_Node@?$_Tree_nod@V?$_Tmap_traits@KPAVCHousing@@U?$less@K@std@@V?$allocator@U?$pair@$$CBKPAVCHousing@@@std@@@3@$0A@@std@@@2@PAU342@@Z 00456630 f i Housing.obj
 0001:00055630       ?_Min@?$_Tree@V?$_Tmap_traits@HMU?$less@H@std@@V?$allocator@U?$pair@$$CBHM@std@@@2@$0A@@std@@@std@@KAPAU_Node@?$_Tree_nod@V?$_Tmap_traits@HMU?$less@H@std@@V?$allocator@U?$pair@$$CBHM@std@@@2@$0A@@std@@@2@PAU342@@Z 00456630 f i GuildHouse.obj
 0001:00055630       ?_Min@?$_Tree@V?$_Tmap_traits@KPAVCSetItem@@U?$less@K@std@@V?$allocator@U?$pair@$$CBKPAVCSetItem@@@std@@@3@$0A@@std@@@std@@KAPAU_Node@?$_Tree_nod@V?$_Tmap_traits@KPAVCSetItem@@U?$less@K@std@@V?$allocator@U?$pair@$$CBKPAVCSetItem@@@std@@@3@$0A@@std@@@2@PAU342@@Z 00456630 f i Project.obj
 0001:00055630       ?_Min@?$_Tree@V?$_Tmap_traits@KPAVCColosseumMatch@@U?$less@K@std@@V?$allocator@U?$pair@$$CBKPAVCColosseumMatch@@@std@@@3@$0A@@std@@@std@@KAPAU_Node@?$_Tree_nod@V?$_Tmap_traits@KPAVCColosseumMatch@@U?$less@K@std@@V?$allocator@U?$pair@$$CBKPAVCColosseumMatch@@@std@@@3@$0A@@std@@@2@PAU342@@Z 00456630 f i Colosseum.obj
 0001:00055630       ?_Min@?$_Tree@V?$_Tmap_traits@KPAVCCouple@@U?$less@K@std@@V?$allocator@U?$pair@$$CBKPAVCCouple@@@std@@@3@$0A@@std@@@std@@KAPAU_Node@?$_Tree_nod@V?$_Tmap_traits@KPAVCCouple@@U?$less@K@std@@V?$allocator@U?$pair@$$CBKPAVCCouple@@@std@@@3@$0A@@std@@@2@PAU342@@Z 00456630 f i couple.obj
 0001:00055630       ?_Min@?$_Tree@V?$_Tmap_traits@HPAVCLinkMap@@U?$less@H@std@@V?$allocator@U?$pair@$$CBHPAVCLinkMap@@@std@@@3@$0A@@std@@@std@@KAPAU_Node@?$_Tree_nod@V?$_Tmap_traits@HPAVCLinkMap@@U?$less@H@std@@V?$allocator@U?$pair@$$CBHPAVCLinkMap@@@std@@@3@$0A@@std@@@2@PAU342@@Z 00456630 f i layeredlinkmap.obj
 0001:00055630       ?_Min@?$_Tree@V?$_Tmap_traits@HPAVCFSMstate@@U?$less@H@std@@V?$allocator@U?$pair@$$CBHPAVCFSMstate@@@std@@@3@$0A@@std@@@std@@KAPAU_Node@?$_Tree_nod@V?$_Tmap_traits@HPAVCFSMstate@@U?$less@H@std@@V?$allocator@U?$pair@$$CBHPAVCFSMstate@@@std@@@3@$0A@@std@@@2@PAU342@@Z 00456630 f i FSM.obj
 0001:00055630       ?_Min@?$_Tree@V?$_Tmap_traits@KPAVCCampus@@U?$less@K@std@@V?$allocator@U?$pair@$$CBKPAVCCampus@@@std@@@3@$0A@@std@@@std@@KAPAU_Node@?$_Tree_nod@V?$_Tmap_traits@KPAVCCampus@@U?$less@K@std@@V?$allocator@U?$pair@$$CBKPAVCCampus@@@std@@@3@$0A@@std@@@2@PAU342@@Z 00456630 f i Campus.obj
 0001:00055630       ?_Min@?$_Tree@V?$_Tmap_traits@HKU?$less@H@std@@V?$allocator@U?$pair@$$CBHK@std@@@2@$0A@@std@@@std@@KAPAU_Node@?$_Tree_nod@V?$_Tmap_traits@HKU?$less@H@std@@V?$allocator@U?$pair@$$CBHK@std@@@2@$0A@@std@@@2@PAU342@@Z 00456630 f i CampusHelper.obj
 0001:00055630       ?_Min@?$_Tree@V?$_Tmap_traits@KPAVIBuff@@U?$less@K@std@@V?$allocator@U?$pair@$$CBKPAVIBuff@@@std@@@3@$0A@@std@@@std@@KAPAU_Node@?$_Tree_nod@V?$_Tmap_traits@KPAVIBuff@@U?$less@K@std@@V?$allocator@U?$pair@$$CBKPAVIBuff@@@std@@@3@$0A@@std@@@2@PAU342@@Z 00456630 f i buff.obj
 0001:00055630       ?_Min@?$_Tree@V?$_Tmap_traits@KPAVCGuildHouseBase@@U?$less@K@std@@V?$allocator@U?$pair@$$CBKPAVCGuildHouseBase@@@std@@@3@$0A@@std@@@std@@KAPAU_Node@?$_Tree_nod@V?$_Tmap_traits@KPAVCGuildHouseBase@@U?$less@K@std@@V?$allocator@U?$pair@$$CBKPAVCGuildHouseBase@@@std@@@3@$0A@@std@@@2@PAU342@@Z 00456630 f i GuildHouse.obj
 0001:00055650       ?CheckRange@COleDateTimeSpan@ATL@@QAEXXZ 00456650 f i post.obj
 0001:00055680       ?SetDateTime@COleDateTime@ATL@@QAEHHHHHHH@Z 00456680 f i post.obj
 0001:00055770       ??1CMail@@UAE@XZ           00456770 f   post.obj
 0001:00055790       ?Serialize@CMail@@QAEXAAVCAr@@H@Z 00456790 f   post.obj
 0001:00055ac0       ?_Dec@const_iterator@?$_Tree@V?$_Tmap_traits@KPAVCChatting@@U?$less@K@std@@V?$allocator@U?$pair@$$CBKPAVCChatting@@@std@@@3@$0A@@std@@@std@@QAEXXZ 00456ac0 f i Chatting.obj
 0001:00055ac0       ?_Dec@const_iterator@?$_Tree@V?$_Tmap_traits@EPAVCSecretRoomContinent@@U?$less@E@std@@V?$allocator@U?$pair@$$CBEPAVCSecretRoomContinent@@@std@@@3@$0A@@std@@@std@@QAEXXZ 00456ac0 f i SecretRoom.obj
 0001:00055ac0       ?_Dec@const_iterator@?$_Tree@V?$_Tmap_traits@EPAU__TAXDETAIL@@U?$less@E@std@@V?$allocator@U?$pair@$$CBEPAU__TAXDETAIL@@@std@@@3@$0A@@std@@@std@@QAEXXZ 00456ac0 f i Tax.obj
 0001:00055ac0       ?_Dec@const_iterator@?$_Tree@V?$_Tmap_traits@HV?$CStringT@DV?$StrTraitMFC@DV?$ChTraitsCRT@D@ATL@@@@@ATL@@U?$less@H@std@@V?$allocator@U?$pair@$$CBHV?$CStringT@DV?$StrTraitMFC@DV?$ChTraitsCRT@D@ATL@@@@@ATL@@@std@@@4@$0A@@std@@@std@@QAEXXZ 00456ac0 f i MiniGame.obj
 0001:00055ac0       ?_Dec@const_iterator@?$_Tree@V?$_Tmap_traits@KPAVCGuildMember@@U?$less@K@std@@V?$allocator@U?$pair@$$CBKPAVCGuildMember@@@std@@@3@$0A@@std@@@std@@QAEXXZ 00456ac0 f i guild.obj
 0001:00055ac0       ?_Dec@const_iterator@?$_Tree@V?$_Tmap_traits@KPAVCCtrl@@U?$less@K@std@@V?$allocator@U?$pair@$$CBKPAVCCtrl@@@std@@@3@$0A@@std@@@std@@QAEXXZ 00456ac0 f i LinkMap.obj
 0001:00055ac0       ?_Dec@const_iterator@?$_Tree@V?$_Tmap_traits@HPAVCSetItem@@U?$less@H@std@@V?$allocator@U?$pair@$$CBHPAVCSetItem@@@std@@@3@$0A@@std@@@std@@QAEXXZ 00456ac0 f i Project.obj
 0001:00055ac0       ?_Dec@const_iterator@?$_Tree@V?$_Tmap_traits@KPAVCGuildWar@@U?$less@K@std@@V?$allocator@U?$pair@$$CBKPAVCGuildWar@@@std@@@3@$0A@@std@@@std@@QAEXXZ 00456ac0 f i guildwar.obj
 0001:00055ac0       ?_Dec@const_iterator@?$_Tree@V?$_Tmap_traits@KPAVCUser@@U?$less@K@std@@V?$allocator@U?$pair@$$CBKPAVCUser@@@std@@@3@$0A@@std@@@std@@QAEXXZ 00456ac0 f i LinkMap.obj
 0001:00055ac0       ?_Dec@const_iterator@?$_Tree@V?$_Tmap_traits@HPAV?$list@PAVCEventItem@@V?$allocator@PAVCEventItem@@@std@@@std@@U?$less@H@2@V?$allocator@U?$pair@$$CBHPAV?$list@PAVCEventItem@@V?$allocator@PAVCEventItem@@@std@@@std@@@std@@@2@$0A@@std@@@std@@QAEXXZ 00456ac0 f i spevent.obj
 0001:00055ac0       ?_Dec@const_iterator@?$_Tree@V?$_Tmap_traits@KP8CDPDatabaseClient@@AEXAAVCAr@@KK@ZU?$less@K@std@@V?$allocator@U?$pair@$$CBKP8CDPDatabaseClient@@AEXAAVCAr@@KK@Z@std@@@4@$0A@@std@@@std@@QAEXXZ 00456ac0 f i DPDatabaseClient.obj
 0001:00055ac0       ?_Dec@const_iterator@?$_Tree@V?$_Tmap_traits@KPAVCParty@@U?$less@K@std@@V?$allocator@U?$pair@$$CBKPAVCParty@@@std@@@3@$0A@@std@@@std@@QAEXXZ 00456ac0 f i party.obj
 0001:00055ac0       ?_Dec@const_iterator@?$_Tree@V?$_Tmap_traits@KP8CDPCoreClient@@AEXAAVCAr@@KKK@ZU?$less@K@std@@V?$allocator@U?$pair@$$CBKP8CDPCoreClient@@AEXAAVCAr@@KKK@Z@std@@@4@$0A@@std@@@std@@QAEXXZ 00456ac0 f i DPCoreClient.obj
 0001:00055ac0       ?_Dec@const_iterator@?$_Tree@V?$_Tmap_traits@HPAVCSpawn@@U?$less@H@std@@V?$allocator@U?$pair@$$CBHPAVCSpawn@@@std@@@3@$0A@@std@@@std@@QAEXXZ 00456ac0 f i spevent.obj
 0001:00055ac0       ?_Dec@const_iterator@?$_Tree@V?$_Tmap_traits@KPAVCHousing@@U?$less@K@std@@V?$allocator@U?$pair@$$CBKPAVCHousing@@@std@@@3@$0A@@std@@@std@@QAEXXZ 00456ac0 f i Housing.obj
 0001:00055ac0       ?_Dec@const_iterator@?$_Tree@V?$_Tmap_traits@EPAU__TAXINFO@@U?$less@E@std@@V?$allocator@U?$pair@$$CBEPAU__TAXINFO@@@std@@@3@$0A@@std@@@std@@QAEXXZ 00456ac0 f i Tax.obj
 0001:00055ac0       ?_Dec@const_iterator@?$_Tree@V?$_Tmap_traits@KPAVCRainbowRace@@U?$less@K@std@@V?$allocator@U?$pair@$$CBKPAVCRainbowRace@@@std@@@3@$0A@@std@@@std@@QAEXXZ 00456ac0 f i RainbowRace.obj
 0001:00055ac0       ?_Dec@const_iterator@?$_Tree@V?$_Tmap_traits@KPAVCMover@@U?$less@K@std@@V?$allocator@U?$pair@$$CBKPAVCMover@@@std@@@3@$0A@@std@@@std@@QAEXXZ 00456ac0 f i ctrl.obj
 0001:00055ac0       ?_Dec@const_iterator@?$_Tree@V?$_Tmap_traits@HKU?$less@H@std@@V?$allocator@U?$pair@$$CBHK@std@@@2@$0A@@std@@@std@@QAEXXZ 00456ac0 f i CampusHelper.obj
 0001:00055ac0       ?_Dec@const_iterator@?$_Tree@V?$_Tmap_traits@KPAVCCampus@@U?$less@K@std@@V?$allocator@U?$pair@$$CBKPAVCCampus@@@std@@@3@$0A@@std@@@std@@QAEXXZ 00456ac0 f i Campus.obj
 0001:00055ac0       ?_Dec@const_iterator@?$_Tree@V?$_Tmap_traits@KPAVCSetItem@@U?$less@K@std@@V?$allocator@U?$pair@$$CBKPAVCSetItem@@@std@@@3@$0A@@std@@@std@@QAEXXZ 00456ac0 f i Project.obj
 0001:00055ac0       ?_Dec@const_iterator@?$_Tree@V?$_Tmap_traits@KPAVCCouple@@U?$less@K@std@@V?$allocator@U?$pair@$$CBKPAVCCouple@@@std@@@3@$0A@@std@@@std@@QAEXXZ 00456ac0 f i couple.obj
 0001:00055ac0       ?_Dec@const_iterator@?$_Tree@V?$_Tmap_traits@KHU?$less@K@std@@V?$allocator@U?$pair@$$CBKH@std@@@2@$0A@@std@@@std@@QAEXXZ 00456ac0 f i CreateMonster.obj
 0001:00055ac0       ?_Dec@const_iterator@?$_Tree@V?$_Tmap_traits@PAVCSetItem@@HU?$less@PAVCSetItem@@@std@@V?$allocator@U?$pair@QAVCSetItem@@H@std@@@3@$0A@@std@@@std@@QAEXXZ 00456ac0 f i mover.obj
 0001:00055ac0       ?_Dec@const_iterator@?$_Tree@V?$_Tmap_traits@HPAVCLinkMap@@U?$less@H@std@@V?$allocator@U?$pair@$$CBHPAVCLinkMap@@@std@@@3@$0A@@std@@@std@@QAEXXZ 00456ac0 f i layeredlinkmap.obj
 0001:00055ac0       ?_Dec@const_iterator@?$_Tree@V?$_Tmap_traits@KEU?$less@K@std@@V?$allocator@U?$pair@$$CBKE@std@@@2@$0A@@std@@@std@@QAEXXZ 00456ac0 f i EventLua.obj
 0001:00055ac0       ?_Dec@const_iterator@?$_Tree@V?$_Tmap_traits@KPAUAMP_STORE_INFO@@U?$less@K@std@@V?$allocator@U?$pair@$$CBKPAUAMP_STORE_INFO@@@std@@@3@$0A@@std@@@std@@QAEXXZ 00456ac0 f i ProjectCmn.obj
 0001:00055ac0       ?_Dec@const_iterator@?$_Tree@V?$_Tmap_traits@KPAVCMailBox@@U?$less@K@std@@V?$allocator@U?$pair@$$CBKPAVCMailBox@@@std@@@3@$0A@@std@@@std@@QAEXXZ 00456ac0 f i post.obj
 0001:00055ac0       ?_Dec@const_iterator@?$_Tree@V?$_Tmap_traits@KPAV?$vector@U_SINGLE_DST@@V?$allocator@U_SINGLE_DST@@@std@@@std@@U?$less@K@2@V?$allocator@U?$pair@$$CBKPAV?$vector@U_SINGLE_DST@@V?$allocator@U_SINGLE_DST@@@std@@@std@@@std@@@2@$0A@@std@@@std@@QAEXXZ 00456ac0 f i accessory.obj
 0001:00055ac0       ?_Dec@const_iterator@?$_Tree@V?$_Tmap_traits@HPAVCRespawner@@U?$less@H@std@@V?$allocator@U?$pair@$$CBHPAVCRespawner@@@std@@@3@$0A@@std@@@std@@QAEXXZ 00456ac0 f i Respawn.obj
 0001:00055ac0       ?_Dec@const_iterator@?$_Tree@V?$_Tmap_traits@KPAU_PlayerData@@U?$less@K@std@@V?$allocator@U?$pair@$$CBKPAU_PlayerData@@@std@@@3@$0A@@std@@@std@@QAEXXZ 00456ac0 f i playerdata.obj
 0001:00055ac0       ?_Dec@const_iterator@?$_Tree@V?$_Tmap_traits@KPAUCREATE_MONSTER_PROP@@U?$less@K@std@@V?$allocator@U?$pair@$$CBKPAUCREATE_MONSTER_PROP@@@std@@@3@$0A@@std@@@std@@QAEXXZ 00456ac0 f i CreateMonster.obj
 0001:00055ac0       ?_Dec@const_iterator@?$_Tree@V?$_Tmap_traits@HPAVCTransformItemComponent@@U?$less@H@std@@V?$allocator@U?$pair@$$CBHPAVCTransformItemComponent@@@std@@@3@$0A@@std@@@std@@QAEXXZ 00456ac0 f i pet.obj
 0001:00055ac0       ?_Dec@const_iterator@?$_Tree@V?$_Tmap_traits@KPAVCClientSockE@@U?$less@K@std@@V?$allocator@U?$pair@$$CBKPAVCClientSockE@@@std@@@3@$0A@@std@@@std@@QAEXXZ 00456ac0 f i serversocke.obj
 0001:00055ac0       ?_Dec@const_iterator@?$_Tree@V?$_Tmap_traits@KP8CDPSrvr@@AEXAAVCAr@@KKPAEK@ZU?$less@K@std@@V?$allocator@U?$pair@$$CBKP8CDPSrvr@@AEXAAVCAr@@KKPAEK@Z@std@@@4@$0A@@std@@@std@@QAEXXZ 00456ac0 f i DPSrvr.obj
 0001:00055ac0       ?_Dec@const_iterator@?$_Tree@V?$_Tmap_traits@KKU?$less@K@std@@V?$allocator@U?$pair@$$CBKK@std@@@2@$0A@@std@@@std@@QAEXXZ 00456ac0 f i Campus.obj
 0001:00055ac0       ?_Dec@const_iterator@?$_Tree@V?$_Tmap_traits@KV?$CStringT@DV?$StrTraitMFC@DV?$ChTraitsCRT@D@ATL@@@@@ATL@@U?$less@K@std@@V?$allocator@U?$pair@$$CBKV?$CStringT@DV?$StrTraitMFC@DV?$ChTraitsCRT@D@ATL@@@@@ATL@@@std@@@4@$0A@@std@@@std@@QAEXXZ 00456ac0 f i DPCoreClient.obj
 0001:00055ac0       ?_Dec@const_iterator@?$_Tree@V?$_Tmap_traits@HMU?$less@H@std@@V?$allocator@U?$pair@$$CBHM@std@@@2@$0A@@std@@@std@@QAEXXZ 00456ac0 f i GuildHouse.obj
 0001:00055ac0       ?_Dec@const_iterator@?$_Tree@V?$_Tmap_traits@KPAVIBuff@@U?$less@K@std@@V?$allocator@U?$pair@$$CBKPAVIBuff@@@std@@@3@$0A@@std@@@std@@QAEXXZ 00456ac0 f i buff.obj
 0001:00055ac0       ?_Dec@const_iterator@?$_Tree@V?$_Tmap_traits@KPAVCColosseumMatch@@U?$less@K@std@@V?$allocator@U?$pair@$$CBKPAVCColosseumMatch@@@std@@@3@$0A@@std@@@std@@QAEXXZ 00456ac0 f i Colosseum.obj
 0001:00055ac0       ?_Dec@const_iterator@?$_Tree@V?$_Tmap_traits@HHU?$less@H@std@@V?$allocator@U?$pair@$$CBHH@std@@@2@$0A@@std@@@std@@QAEXXZ 00456ac0 f i ItemUpgrade.obj
 0001:00055ac0       ?_Dec@const_iterator@?$_Tree@V?$_Tmap_traits@KPAVCClientSock@@U?$less@K@std@@V?$allocator@U?$pair@$$CBKPAVCClientSock@@@std@@@3@$0A@@std@@@std@@QAEXXZ 00456ac0 f i serversock.obj
 0001:00055ac0       ?_Dec@const_iterator@?$_Tree@V?$_Tmap_traits@KPAVCCampusMember@@U?$less@K@std@@V?$allocator@U?$pair@$$CBKPAVCCampusMember@@@std@@@3@$0A@@std@@@std@@QAEXXZ 00456ac0 f i Campus.obj
 0001:00055ac0       ?_Dec@const_iterator@?$_Tree@V?$_Tmap_traits@KPAVCGuildHouseBase@@U?$less@K@std@@V?$allocator@U?$pair@$$CBKPAVCGuildHouseBase@@@std@@@3@$0A@@std@@@std@@QAEXXZ 00456ac0 f i GuildHouse.obj
 0001:00055ac0       ?_Dec@const_iterator@?$_Tree@V?$_Tmap_traits@KPAVCGuild@@U?$less@K@std@@V?$allocator@U?$pair@$$CBKPAVCGuild@@@std@@@3@$0A@@std@@@std@@QAEXXZ 00456ac0 f i guild.obj
 0001:00055b20       ??GCOleDateTimeSpan@ATL@@QBE?AV01@ABV01@@Z 00456b20 f i post.obj
 0001:00055bb0       ?SetDateTimeSpan@COleDateTimeSpan@ATL@@QAEXJHHH@Z 00456bb0 f i post.obj
 0001:00055c10       ??_ECMail@@UAEPAXI@Z       00456c10 f i post.obj
 0001:00055c10       ??_GCMail@@UAEPAXI@Z       00456c10 f i post.obj
 0001:00055c50       ?_Erase@?$_Tree@V?$_Tmap_traits@KPAVCMailBox@@U?$less@K@std@@V?$allocator@U?$pair@$$CBKPAVCMailBox@@@std@@@3@$0A@@std@@@std@@IAEXPAU_Node@?$_Tree_nod@V?$_Tmap_traits@KPAVCMailBox@@U?$less@K@std@@V?$allocator@U?$pair@$$CBKPAVCMailBox@@@std@@@3@$0A@@std@@@2@@Z 00456c50 f i post.obj
 0001:00055c90       ?GetMailInfo@CMail@@QAEXPAHPAK@Z 00456c90 f   post.obj
 0001:00056080       ?GetMail@CMailBox@@QAEPAVCMail@@K@Z 00457080 f   post.obj
 0001:000560b0       ?RemoveMailItem@CMailBox@@QAEHK@Z 004570b0 f   post.obj
 0001:00056100       ?RemoveMailGold@CMailBox@@QAEHK@Z 00457100 f   post.obj
 0001:00056150       ?ReadMail@CMailBox@@QAEHK@Z 00457150 f   post.obj
 0001:00056190       ?IsStampedMailExists@CMailBox@@QAEHXZ 00457190 f   post.obj
 0001:000561c0       ?Clear@CMailBox@@QAEXXZ    004571c0 f   post.obj
 0001:00056220       ?RemoveMail@CMailBox@@QAEHK@Z 00457220 f   post.obj
 0001:00056290       ?Clear@CPost@@QAEXXZ       00457290 f   post.obj
 0001:00056310       ??1CMailBox@@UAE@XZ        00457310 f   post.obj
 0001:00056370       ??_GCMailBox@@UAEPAXI@Z    00457370 f i post.obj
 0001:00056370       ??_ECMailBox@@UAEPAXI@Z    00457370 f i post.obj
 0001:00056390       ?_Insert@?$_Tree@V?$_Tmap_traits@KPAVCMailBox@@U?$less@K@std@@V?$allocator@U?$pair@$$CBKPAVCMailBox@@@std@@@3@$0A@@std@@@std@@IAE?AViterator@12@_NPAU_Node@?$_Tree_nod@V?$_Tmap_traits@KPAVCMailBox@@U?$less@K@std@@V?$allocator@U?$pair@$$CBKPAVCMailBox@@@std@@@3@$0A@@std@@@2@ABU?$pair@$$CBKPAVCMailBox@@@2@@Z 00457390 f i post.obj
 0001:00056540       ?_Xlen@?$vector@PAVCMail@@V?$allocator@PAVCMail@@@std@@@std@@IBEXXZ 00457540 f i post.obj
 0001:000565b0       ?erase@?$_Tree@V?$_Tmap_traits@KPAVCMailBox@@U?$less@K@std@@V?$allocator@U?$pair@$$CBKPAVCMailBox@@@std@@@3@$0A@@std@@@std@@QAE?AViterator@12@V312@@Z 004575b0 f i post.obj
 0001:00056870       ?insert@?$_Tree@V?$_Tmap_traits@KPAVCMailBox@@U?$less@K@std@@V?$allocator@U?$pair@$$CBKPAVCMailBox@@@std@@@3@$0A@@std@@@std@@QAE?AU?$pair@Viterator@?$_Tree@V?$_Tmap_traits@KPAVCMailBox@@U?$less@K@std@@V?$allocator@U?$pair@$$CBKPAVCMailBox@@@std@@@3@$0A@@std@@@std@@_N@2@ABU?$pair@$$CBKPAVCMailBox@@@2@@Z 00457870 f i post.obj
 0001:00056930       ?_Insert_n@?$vector@PAVCMail@@V?$allocator@PAVCMail@@@std@@@std@@IAEXViterator@12@IABQAVCMail@@@Z 00457930 f i post.obj
 0001:00056b10       ?erase@?$_Tree@V?$_Tmap_traits@KPAVCMailBox@@U?$less@K@std@@V?$allocator@U?$pair@$$CBKPAVCMailBox@@@std@@@3@$0A@@std@@@std@@QAE?AViterator@12@V312@0@Z 00457b10 f i post.obj
 0001:00056bd0       ?AddMailBox@CPost@@QAEHPAVCMailBox@@@Z 00457bd0 f   post.obj
 0001:00056c00       ??0CMailBox@@QAE@K@Z       00457c00 f   post.obj
 0001:00056c20       ?AddMail@CMailBox@@QAEKPAVCMail@@@Z 00457c20 f   post.obj
 0001:00056ca0       ?Read@CMailBox@@QAEXAAVCAr@@@Z 00457ca0 f   post.obj
 0001:00056ef0       ?ReadReq@CMailBox@@QAEXAAVCAr@@@Z 00457ef0 f   post.obj
 0001:00057120       ?Serialize@CMailBox@@QAEXAAVCAr@@H@Z 00458120 f   post.obj
 0001:00057240       ??1?$map@KPAVCMailBox@@U?$less@K@std@@V?$allocator@U?$pair@$$CBKPAVCMailBox@@@std@@@3@@std@@QAE@XZ 00458240 f i post.obj
 0001:00057270       ??1CPost@@UAE@XZ           00458270 f   post.obj
 0001:000572f0       ?AddMail@CPost@@QAEKKPAVCMail@@@Z 004582f0 f   post.obj
 0001:000573c0       ?Serialize@CPost@@QAEXAAVCAr@@H@Z 004583c0 f   post.obj
 0001:00057500       ??_GCPost@@UAEPAXI@Z       00458500 f i post.obj
 0001:00057500       ??_ECPost@@UAEPAXI@Z       00458500 f i post.obj
 0001:00057520       ?GetInstance@CPost@@SAPAV1@XZ 00458520 f   post.obj
 0001:000575b0       ??$_Uninit_copy@PAU__SPAWNINFO@CEventLua@@PAU12@V?$allocator@U__SPAWNINFO@CEventLua@@@std@@@std@@YAPAU__SPAWNINFO@CEventLua@@PAU12@00AAV?$allocator@U__SPAWNINFO@CEventLua@@@0@U_Nonscalar_ptr_iterator_tag@0@@Z 004585b0 f i EventLua.obj
 0001:000575b0       ??$_Uninit_copy@PAUWORMON@@PAU1@V?$allocator@UWORMON@@@std@@@std@@YAPAUWORMON@@PAU1@00AAV?$allocator@UWORMON@@@0@U_Nonscalar_ptr_iterator_tag@0@@Z 004585b0 f i Project.obj
 0001:000575b0       ??$_Uninit_copy@Viterator@?$vector@U__SPAWNINFO@CEventLua@@V?$allocator@U__SPAWNINFO@CEventLua@@@std@@@std@@PAU__SPAWNINFO@CEventLua@@V?$allocator@U__SPAWNINFO@CEventLua@@@3@@std@@YAPAU__SPAWNINFO@CEventLua@@Viterator@?$vector@U__SPAWNINFO@CEventLua@@V?$allocator@U__SPAWNINFO@CEventLua@@@std@@@0@0PAU12@AAV?$allocator@U__SPAWNINFO@CEventLua@@@0@U_Nonscalar_ptr_iterator_tag@0@@Z 004585b0 f i EventLua.obj
 0001:000575b0       ??$_Uninit_copy@PAU__ITEM@CExchange@@PAU12@V?$allocator@U__ITEM@CExchange@@@std@@@std@@YAPAU__ITEM@CExchange@@PAU12@00AAV?$allocator@U__ITEM@CExchange@@@0@U_Nonscalar_ptr_iterator_tag@0@@Z 004585b0 f i Exchange.obj
 0001:000575b0       ??$_Uninit_copy@PAU?$pair@M_J@std@@PAU12@V?$allocator@U?$pair@M_J@std@@@2@@std@@YAPAU?$pair@M_J@0@PAU10@00AAV?$allocator@U?$pair@M_J@std@@@0@U_Nonscalar_ptr_iterator_tag@0@@Z 004585b0 f i lord.obj
 0001:000575b0       ??$_Uninit_copy@Vconst_iterator@?$vector@U__SPAWNINFO@CEventLua@@V?$allocator@U__SPAWNINFO@CEventLua@@@std@@@std@@PAU__SPAWNINFO@CEventLua@@V?$allocator@U__SPAWNINFO@CEventLua@@@3@@std@@YAPAU__SPAWNINFO@CEventLua@@Vconst_iterator@?$vector@U__SPAWNINFO@CEventLua@@V?$allocator@U__SPAWNINFO@CEventLua@@@std@@@0@0PAU12@AAV?$allocator@U__SPAWNINFO@CEventLua@@@0@U_Nonscalar_ptr_iterator_tag@0@@Z 004585b0 f i EventLua.obj
 0001:000575b0       ??$_Uninit_copy@Vconst_iterator@?$vector@UWORMON@@V?$allocator@UWORMON@@@std@@@std@@PAUWORMON@@V?$allocator@UWORMON@@@3@@std@@YAPAUWORMON@@Vconst_iterator@?$vector@UWORMON@@V?$allocator@UWORMON@@@std@@@0@0PAU1@AAV?$allocator@UWORMON@@@0@U_Nonscalar_ptr_iterator_tag@0@@Z 004585b0 f i Project.obj
 0001:000575b0       ??$_Uninit_copy@Vconst_iterator@?$vector@U__ITEM@CExchange@@V?$allocator@U__ITEM@CExchange@@@std@@@std@@PAU__ITEM@CExchange@@V?$allocator@U__ITEM@CExchange@@@3@@std@@YAPAU__ITEM@CExchange@@Vconst_iterator@?$vector@U__ITEM@CExchange@@V?$allocator@U__ITEM@CExchange@@@std@@@0@0PAU12@AAV?$allocator@U__ITEM@CExchange@@@0@U_Nonscalar_ptr_iterator_tag@0@@Z 004585b0 f i Exchange.obj
 0001:000575b0       ??$_Uninit_copy@PAU_RANGDA_POS@@PAU1@V?$allocator@U_RANGDA_POS@@@std@@@std@@YAPAU_RANGDA_POS@@PAU1@00AAV?$allocator@U_RANGDA_POS@@@0@U_Nonscalar_ptr_iterator_tag@0@@Z 004585b0 f i rangda.obj
 0001:000575b0       ??$_Uninit_copy@PAUTreasureBox@@PAU1@V?$allocator@UTreasureBox@@@std@@@std@@YAPAUTreasureBox@@PAU1@00AAV?$allocator@UTreasureBox@@@0@U_Nonscalar_ptr_iterator_tag@0@@Z 004585b0 f i ProjectCmn.obj
 0001:000575f0       ?GetRandomPos@CRangda@@AAE?AU_RANGDA_POS@@XZ 004585f0 f   rangda.obj
 0001:00057690       ?CreateMonster@CRangda@@AAEXXZ 00458690 f   rangda.obj
 0001:000577b0       ?ProcessReplace@CRangda@@AAEXPAVCMover@@@Z 004587b0 f   rangda.obj
 0001:00057820       ??1CRangdaController@@UAE@XZ 00458820 f   rangda.obj
 0001:000578b0       ??_GCRangdaController@@UAEPAXI@Z 004588b0 f i rangda.obj
 0001:000578b0       ??_ECRangdaController@@UAEPAXI@Z 004588b0 f i rangda.obj
 0001:000578d0       ?OnTimer@CRangdaController@@QAEXXZ 004588d0 f   rangda.obj
 0001:00057950       ??1CRangda@@UAE@XZ         00458950 f   rangda.obj
 0001:00057980       ?_Xlen@?$vector@U_RANGDA_POS@@V?$allocator@U_RANGDA_POS@@@std@@@std@@IBEXXZ 00458980 f i rangda.obj
 0001:00057980       ?_Xlen@?$vector@PAVCRangda@@V?$allocator@PAVCRangda@@@std@@@std@@IBEXXZ 00458980 f i rangda.obj
 0001:000579f0       ??_GCRangda@@UAEPAXI@Z     004589f0 f i rangda.obj
 0001:000579f0       ??_ECRangda@@UAEPAXI@Z     004589f0 f i rangda.obj
 0001:00057a10       ?_Insert_n@?$vector@U_RANGDA_POS@@V?$allocator@U_RANGDA_POS@@@std@@@std@@IAEXViterator@12@IABU_RANGDA_POS@@@Z 00458a10 f i rangda.obj
 0001:00057c80       ?_Insert_n@?$vector@PAVCRangda@@V?$allocator@PAVCRangda@@@std@@@std@@IAEXViterator@12@IABQAVCRangda@@@Z 00458c80 f i rangda.obj
 0001:00057e60       ?Instance@CRangdaController@@SAPAV1@XZ 00458e60 f   rangda.obj
 0001:00057ed0       ?LoadScript@CRangdaController@@QAEHPBD@Z 00458ed0 f   rangda.obj
 0001:000581f0       ?find@?$_Tree@V?$_Tmap_traits@KUHIT_INFO@@U?$less@K@std@@V?$allocator@U?$pair@$$CBKUHIT_INFO@@@std@@@3@$0A@@std@@@std@@QAE?AViterator@12@ABK@Z 004591f0 f i mover.obj
 0001:000581f0       ?find@?$_Tree@V?$_Tmap_traits@KU_Friend@@U?$less@K@std@@V?$allocator@U?$pair@$$CBKU_Friend@@@std@@@3@$0A@@std@@@std@@QAE?AViterator@12@ABK@Z 004591f0 f i rtmessenger.obj
 0001:00058260       ?GetFriend@CRTMessenger@@QAEPAU_Friend@@K@Z 00459260 f   rtmessenger.obj
 0001:00058290       ?IsBlock@CRTMessenger@@QAEHK@Z 00459290 f   rtmessenger.obj
 0001:000582d0       ?_Insert@?$_Tree@V?$_Tmap_traits@KU_Friend@@U?$less@K@std@@V?$allocator@U?$pair@$$CBKU_Friend@@@std@@@3@$0A@@std@@@std@@IAE?AViterator@12@_NPAU_Node@?$_Tree_nod@V?$_Tmap_traits@KU_Friend@@U?$less@K@std@@V?$allocator@U?$pair@$$CBKU_Friend@@@std@@@3@$0A@@std@@@2@ABU?$pair@$$CBKU_Friend@@@2@@Z 004592d0 f i rtmessenger.obj
 0001:00058480       ?insert@?$_Tree@V?$_Tmap_traits@KU_Friend@@U?$less@K@std@@V?$allocator@U?$pair@$$CBKU_Friend@@@std@@@3@$0A@@std@@@std@@QAE?AU?$pair@Viterator@?$_Tree@V?$_Tmap_traits@KU_Friend@@U?$less@K@std@@V?$allocator@U?$pair@$$CBKU_Friend@@@std@@@3@$0A@@std@@@std@@_N@2@ABU?$pair@$$CBKU_Friend@@@2@@Z 00459480 f i rtmessenger.obj
 0001:00058540       ?SetFriend@CRTMessenger@@QAEXKPAU_Friend@@@Z 00459540 f   rtmessenger.obj
 0001:000585d0       ?Serialize@CRTMessenger@@QAEHAAVCAr@@@Z 004595d0 f   rtmessenger.obj
 0001:00058740       ??4CRTMessenger@@UAEAAV0@AAV0@@Z 00459740 f   rtmessenger.obj
 0001:000587b0       ??1?$map@KU_Friend@@U?$less@K@std@@V?$allocator@U?$pair@$$CBKU_Friend@@@std@@@3@@std@@QAE@XZ 004597b0 f i rtmessenger.obj
 0001:000587e0       ??1CRTMessenger@@UAE@XZ    004597e0 f   rtmessenger.obj
 0001:00058870       ??0CRTMessenger@@QAE@XZ    00459870 f   rtmessenger.obj
 0001:000588b0       ??_ECRTMessenger@@UAEPAXI@Z 004598b0 f i rtmessenger.obj
 0001:000588b0       ??_GCRTMessenger@@UAEPAXI@Z 004598b0 f i rtmessenger.obj
 0001:000588d0       ??0CSfxHitArray@@QAE@XZ    004598d0 f   SfxHitArray.obj
 0001:000588f0       ?Add@CSfxHitArray@@QAEHHKKKH@Z 004598f0 f   SfxHitArray.obj
 0001:00058960       ?GetSfxHit@CSfxHitArray@@QAEPAUtagSfxHit@@H@Z 00459960 f   SfxHitArray.obj
 0001:000589a0       ?RemoveSfxHit@CSfxHitArray@@QAEHHH@Z 004599a0 f   SfxHitArray.obj
 0001:00058a00       ?Execute@CLordSkillComponentExecutable@@UAEXKKPAX@Z 00459a00 f i slord.obj
 0001:00058a10       ??_ECLordSkillComponentExecutable@@UAEPAXI@Z 00459a10 f i slord.obj
 0001:00058a10       ??_ECLordSkillComponentSummon@@UAEPAXI@Z 00459a10 f i slord.obj
 0001:00058a10       ??_GCLordSkillComponentTeleport@@UAEPAXI@Z 00459a10 f i slord.obj
 0001:00058a10       ??_GCLordSkillComponentSummon@@UAEPAXI@Z 00459a10 f i slord.obj
 0001:00058a10       ??_ECLordSkillComponentItemBuf@@UAEPAXI@Z 00459a10 f i slord.obj
 0001:00058a10       ??_GCLordSkillComponentExecutable@@UAEPAXI@Z 00459a10 f i slord.obj
 0001:00058a10       ??_ECLordSkillComponentTeleport@@UAEPAXI@Z 00459a10 f i slord.obj
 0001:00058a10       ??_GCLordSkillComponentItemBuf@@UAEPAXI@Z 00459a10 f i slord.obj
 0001:00058a30       ??1CLordSkillComponentExecutable@@UAE@XZ 00459a30 f i slord.obj
 0001:00058a30       ??1CLordSkillComponentItemBuf@@UAE@XZ 00459a30 f i slord.obj
 0001:00058a30       ??1CLordSkillComponentTeleport@@UAE@XZ 00459a30 f i slord.obj
 0001:00058a30       ??1CLordSkillComponentSummon@@UAE@XZ 00459a30 f i slord.obj
 0001:00058a40       ??1CSLord@@UAE@XZ          00459a40 f   slord.obj
 0001:00058a50       ?DestroyColleagues@CSLord@@UAEXXZ 00459a50 f   slord.obj
 0001:00058aa0       ?DoTestAddDeposit@IElection@@MAEHK_JJ@Z 00459aa0 f i slord.obj
 0001:00058ab0       ??1CSElection@@UAE@XZ      00459ab0 f   slord.obj
 0001:00058ac0       ?DoTestBeginCandidacy@CSElection@@MAEHXZ 00459ac0 f   slord.obj
 0001:00058ad0       ?DoTestBeginVote@CSElection@@MAEHAAH@Z 00459ad0 f   slord.obj
 0001:00058af0       ?DoTestEndVote@CSElection@@MAEHK@Z 00459af0 f   slord.obj
 0001:00058b20       ?DoAddDepositComplete@CSElection@@MAEXK_JJ@Z 00459b20 f   slord.obj
 0001:00058b50       ?DoTestSetPledge@CSElection@@MAEHKPBD@Z 00459b50 f   slord.obj
 0001:00058b70       ?DoTestIncVote@CSElection@@MAEHKK@Z 00459b70 f   slord.obj
 0001:00058b90       ??1CLEvent@@UAE@XZ         00459b90 f   slord.obj
 0001:00058ba0       ?DoTestAddComponent@CLEvent@@MAEHPAVCLEComponent@@@Z 00459ba0 f   slord.obj
 0001:00058bc0       ?DoTestInitialize@CLEvent@@MAEHXZ 00459bc0 f   slord.obj
 0001:00058bd0       ??1CSLordSkill@@UAE@XZ     00459bd0 f   slord.obj
 0001:00058be0       ?CreateSkillComponent@CSLordSkill@@UAEPAVCLordSkillComponentExecutable@@H@Z 00459be0 f   slord.obj
 0001:00058d20       ??_ECSLord@@UAEPAXI@Z      00459d20 f i slord.obj
 0001:00058d20       ??_GCSLord@@UAEPAXI@Z      00459d20 f i slord.obj
 0001:00058d40       ?Instance@CSLord@@SAPAV1@XZ 00459d40 f   slord.obj
 0001:00058db0       ?CreateColleagues@CSLord@@UAEXXZ 00459db0 f   slord.obj
 0001:00058ea0       ??_ECSElection@@UAEPAXI@Z  00459ea0 f i slord.obj
 0001:00058ea0       ??_GCSElection@@UAEPAXI@Z  00459ea0 f i slord.obj
 0001:00058ec0       ??_ECLEvent@@UAEPAXI@Z     00459ec0 f i slord.obj
 0001:00058ec0       ??_GCLEvent@@UAEPAXI@Z     00459ec0 f i slord.obj
 0001:00058ee0       ??_ECSLordSkill@@UAEPAXI@Z 00459ee0 f i slord.obj
 0001:00058ee0       ??_GCSLordSkill@@UAEPAXI@Z 00459ee0 f i slord.obj
 0001:00058f00       ?AddDepositRequirements@election@@YAHPAVCUser@@_JAA_J@Z 00459f00 f   slord.obj
 0001:00059000       ?SetPledgeRequirements@election@@YAHPAVCUser@@AAH@Z 0045a000 f   slord.obj
 0001:00059090       ?IncVoteRequirements@election@@YAHPAVCUser@@K@Z 0045a090 f   slord.obj
 0001:00059110       ?CreateRequirements@lordevent@@YAHPAVCUser@@HH@Z 0045a110 f   slord.obj
 0001:000591c0       ??0CSnapshot@@QAE@XZ       0045a1c0 f   Snapshot.obj
 0001:000591f0       ??1CSnapshot@@UAE@XZ       0045a1f0 f   Snapshot.obj
 0001:00059250       ??_ECSnapshot@@UAEPAXI@Z   0045a250 f i Snapshot.obj
 0001:00059250       ??_GCSnapshot@@UAEPAXI@Z   0045a250 f i Snapshot.obj
 0001:00059270       ?SetSnapshot@CSnapshot@@QAEXKK@Z 0045a270 f   Snapshot.obj
 0001:00059300       ?FreeHeap@?$CTempBuffer@D$0IA@VCCRTAllocator@ATL@@@ATL@@AAEXXZ 0045a300 f i StdAfx.obj
 0001:00059310       ?AllocateHeap@?$CTempBuffer@D$0IA@VCCRTAllocator@ATL@@@ATL@@AAEXI@Z 0045a310 f i StdAfx.obj
 0001:00059340       ??1?$CTempBuffer@D$0IA@VCCRTAllocator@ATL@@@ATL@@QAE@XZ 0045a340 f i StdAfx.obj
 0001:00059350       ?AllocateBytes@?$CTempBuffer@D$0IA@VCCRTAllocator@ATL@@@ATL@@QAEPADI@Z 0045a350 f i StdAfx.obj
 0001:00059380       ?MakeUpper@?$CStringT@DV?$StrTraitMFC@DV?$ChTraitsCRT@D@ATL@@@@@ATL@@QAEAAV12@XZ 0045a380 f i StdAfx.obj
 0001:000593e0       ??1CTimeout@@UAE@XZ        0045a3e0 f i ThreadMng.obj
 0001:000593f0       ??_ECTimeout@@UAEPAXI@Z    0045a3f0 f i ThreadMng.obj
 0001:000593f0       ??_GCTimeout@@UAEPAXI@Z    0045a3f0 f i ThreadMng.obj
 0001:00059410       ?LogPerformance@@YAXK@Z    0045a410 f   ThreadMng.obj
 0001:00059770       ?Close@CRunObject@@QAEXXZ  0045a770 f   ThreadMng.obj
 0001:000597c0       ?Run@CRunObject@@QAEXXZ    0045a7c0 f   ThreadMng.obj
 0001:00059c70       ?ToggleProfiling@CRunObject@@QAEXXZ 0045ac70 f   ThreadMng.obj
 0001:00059c90       ?_Run@CRunObject@@SAIPAX@Z 0045ac90 f   ThreadMng.obj
 0001:00059ca0       ??_ECRunObject@@UAEPAXI@Z  0045aca0 f i ThreadMng.obj
 0001:00059ca0       ??_GCRunObject@@UAEPAXI@Z  0045aca0 f i ThreadMng.obj
 0001:00059d00       ?Init@CRunObject@@QAEHXZ   0045ad00 f   ThreadMng.obj
 0001:00059ee0       ?GetInstance@CRunObject@@SAPAV1@XZ 0045aee0 f   ThreadMng.obj
 0001:00059f30       ?_Min@?$_Tree@V?$_Tmap_traits@KU_TicketProp@@U?$less@K@std@@V?$allocator@U?$pair@$$CBKU_TicketProp@@@std@@@3@$0A@@std@@@std@@KAPAU_Node@?$_Tree_nod@V?$_Tmap_traits@KU_TicketProp@@U?$less@K@std@@V?$allocator@U?$pair@$$CBKU_TicketProp@@@std@@@3@$0A@@std@@@2@PAU342@@Z 0045af30 f i ticket.obj
 0001:00059f50       ?_Max@?$_Tree@V?$_Tmap_traits@KU_TicketProp@@U?$less@K@std@@V?$allocator@U?$pair@$$CBKU_TicketProp@@@std@@@3@$0A@@std@@@std@@KAPAU_Node@?$_Tree_nod@V?$_Tmap_traits@KU_TicketProp@@U?$less@K@std@@V?$allocator@U?$pair@$$CBKU_TicketProp@@@std@@@3@$0A@@std@@@2@PAU342@@Z 0045af50 f i ticket.obj
 0001:00059f70       ?_Lrotate@?$_Tree@V?$_Tmap_traits@KU_TicketProp@@U?$less@K@std@@V?$allocator@U?$pair@$$CBKU_TicketProp@@@std@@@3@$0A@@std@@@std@@IAEXPAU_Node@?$_Tree_nod@V?$_Tmap_traits@KU_TicketProp@@U?$less@K@std@@V?$allocator@U?$pair@$$CBKU_TicketProp@@@std@@@3@$0A@@std@@@2@@Z 0045af70 f i ticket.obj
 0001:00059fd0       ?_Rrotate@?$_Tree@V?$_Tmap_traits@KU_TicketProp@@U?$less@K@std@@V?$allocator@U?$pair@$$CBKU_TicketProp@@@std@@@3@$0A@@std@@@std@@IAEXPAU_Node@?$_Tree_nod@V?$_Tmap_traits@KU_TicketProp@@U?$less@K@std@@V?$allocator@U?$pair@$$CBKU_TicketProp@@@std@@@3@$0A@@std@@@2@@Z 0045afd0 f i ticket.obj
 0001:0005a030       ?_Inc@const_iterator@?$_Tree@V?$_Tmap_traits@KU_TicketProp@@U?$less@K@std@@V?$allocator@U?$pair@$$CBKU_TicketProp@@@std@@@3@$0A@@std@@@std@@QAEXXZ 0045b030 f i ticket.obj
 0001:0005a090       ?_Dec@const_iterator@?$_Tree@V?$_Tmap_traits@KU_TicketProp@@U?$less@K@std@@V?$allocator@U?$pair@$$CBKU_TicketProp@@@std@@@3@$0A@@std@@@std@@QAEXXZ 0045b090 f i ticket.obj
 0001:0005a0f0       ?_Erase@?$_Tree@V?$_Tmap_traits@KU_TicketProp@@U?$less@K@std@@V?$allocator@U?$pair@$$CBKU_TicketProp@@@std@@@3@$0A@@std@@@std@@IAEXPAU_Node@?$_Tree_nod@V?$_Tmap_traits@KU_TicketProp@@U?$less@K@std@@V?$allocator@U?$pair@$$CBKU_TicketProp@@@std@@@3@$0A@@std@@@2@@Z 0045b0f0 f i ticket.obj
 0001:0005a130       ?_Buynode@?$_Tree@V?$_Tmap_traits@KU_TicketProp@@U?$less@K@std@@V?$allocator@U?$pair@$$CBKU_TicketProp@@@std@@@3@$0A@@std@@@std@@IAEPAU_Node@?$_Tree_nod@V?$_Tmap_traits@KU_TicketProp@@U?$less@K@std@@V?$allocator@U?$pair@$$CBKU_TicketProp@@@std@@@3@$0A@@std@@@2@PAU342@00ABU?$pair@$$CBKU_TicketProp@@@2@D@Z 0045b130 f i ticket.obj
 0001:0005a180       ?_Buynode@?$_Tree@V?$_Tmap_traits@KU_TicketProp@@U?$less@K@std@@V?$allocator@U?$pair@$$CBKU_TicketProp@@@std@@@3@$0A@@std@@@std@@IAEPAU_Node@?$_Tree_nod@V?$_Tmap_traits@KU_TicketProp@@U?$less@K@std@@V?$allocator@U?$pair@$$CBKU_TicketProp@@@std@@@3@$0A@@std@@@2@XZ 0045b180 f i ticket.obj
 0001:0005a1c0       ?GetExpanedLayer@CLayerProperty@@QAEHK@Z 0045b1c0 f   ticket.obj
 0001:0005a1f0       ?find@?$_Tree@V?$_Tmap_traits@KU_TicketProp@@U?$less@K@std@@V?$allocator@U?$pair@$$CBKU_TicketProp@@@std@@@3@$0A@@std@@@std@@QAE?AViterator@12@ABK@Z 0045b1f0 f i ticket.obj
 0001:0005a260       ?IsTarget@CTicketProperty@@QAEHK@Z 0045b260 f   ticket.obj
 0001:0005a2a0       ?GetTicketProp@CTicketProperty@@QAEPAU_TicketProp@@K@Z 0045b2a0 f   ticket.obj
 0001:0005a2f0       ?_Ufill@?$vector@U_COLLECTING_ITEM@@V?$allocator@U_COLLECTING_ITEM@@@std@@@std@@IAEPAU_COLLECTING_ITEM@@PAU3@IABU3@@Z 0045b2f0 f i collecting.obj
 0001:0005a2f0       ?_Ufill@?$vector@VCPoint@@V?$allocator@VCPoint@@@std@@@std@@IAEPAVCPoint@@PAV3@IABV3@@Z 0045b2f0 f i Continent.obj
 0001:0005a2f0       ?_Ufill@?$vector@U_DIE_PENALTY@@V?$allocator@U_DIE_PENALTY@@@std@@@std@@IAEPAU_DIE_PENALTY@@PAU3@IABU3@@Z 0045b2f0 f i Project.obj
 0001:0005a2f0       ?_Ufill@?$vector@U_TransformItemElement@@V?$allocator@U_TransformItemElement@@@std@@@std@@IAEPAU_TransformItemElement@@PAU3@IABU3@@Z 0045b2f0 f i pet.obj
 0001:0005a2f0       ?_Ufill@?$vector@U_AdjData@@V?$allocator@U_AdjData@@@std@@@std@@IAEPAU_AdjData@@PAU3@IABU3@@Z 0045b2f0 f i randomoption.obj
 0001:0005a2f0       ?_Ufill@?$vector@U_LayerStruct@@V?$allocator@U_LayerStruct@@@std@@@std@@IAEPAU_LayerStruct@@PAU3@IABU3@@Z 0045b2f0 f i ticket.obj
 0001:0005a2f0       ?_Ufill@?$vector@U__POINT@CExchange@@V?$allocator@U__POINT@CExchange@@@std@@@std@@IAEPAU__POINT@CExchange@@PAU34@IABU34@@Z 0045b2f0 f i Exchange.obj
 0001:0005a2f0       ?_Ufill@?$vector@U_SINGLE_DST@@V?$allocator@U_SINGLE_DST@@@std@@@std@@IAEPAU_SINGLE_DST@@PAU3@IABU3@@Z 0045b2f0 f i accessory.obj
 0001:0005a2f0       ?_Ufill@?$vector@U_TransformStuffComponent@@V?$allocator@U_TransformStuffComponent@@@std@@@std@@IAEPAU_TransformStuffComponent@@PAU3@IABU3@@Z 0045b2f0 f i pet.obj
 0001:0005a2f0       ?_Ufill@?$vector@U__REQUESTGUILD@CGuildCombat@@V?$allocator@U__REQUESTGUILD@CGuildCombat@@@std@@@std@@IAEPAU__REQUESTGUILD@CGuildCombat@@PAU34@IABU34@@Z 0045b2f0 f i eveschool.obj
 0001:0005a320       ??1CLayerProperty@@UAE@XZ  0045b320 f   ticket.obj
 0001:0005a350       ?_Insert@?$_Tree@V?$_Tmap_traits@KU_TicketProp@@U?$less@K@std@@V?$allocator@U?$pair@$$CBKU_TicketProp@@@std@@@3@$0A@@std@@@std@@IAE?AViterator@12@_NPAU_Node@?$_Tree_nod@V?$_Tmap_traits@KU_TicketProp@@U?$less@K@std@@V?$allocator@U?$pair@$$CBKU_TicketProp@@@std@@@3@$0A@@std@@@2@ABU?$pair@$$CBKU_TicketProp@@@2@@Z 0045b350 f i ticket.obj
 0001:0005a500       ?_Xlen@?$vector@U_LayerStruct@@V?$allocator@U_LayerStruct@@@std@@@std@@IBEXXZ 0045b500 f i ticket.obj
 0001:0005a570       ?erase@?$_Tree@V?$_Tmap_traits@KU_TicketProp@@U?$less@K@std@@V?$allocator@U?$pair@$$CBKU_TicketProp@@@std@@@3@$0A@@std@@@std@@QAE?AViterator@12@V312@@Z 0045b570 f i ticket.obj
 0001:0005a830       ??_ECLayerProperty@@UAEPAXI@Z 0045b830 f i ticket.obj
 0001:0005a830       ??_GCLayerProperty@@UAEPAXI@Z 0045b830 f i ticket.obj
 0001:0005a850       ?insert@?$_Tree@V?$_Tmap_traits@KU_TicketProp@@U?$less@K@std@@V?$allocator@U?$pair@$$CBKU_TicketProp@@@std@@@3@$0A@@std@@@std@@QAE?AU?$pair@Viterator@?$_Tree@V?$_Tmap_traits@KU_TicketProp@@U?$less@K@std@@V?$allocator@U?$pair@$$CBKU_TicketProp@@@std@@@3@$0A@@std@@@std@@_N@2@ABU?$pair@$$CBKU_TicketProp@@@2@@Z 0045b850 f i ticket.obj
 0001:0005a910       ?_Insert_n@?$vector@U_LayerStruct@@V?$allocator@U_LayerStruct@@@std@@@std@@IAEXViterator@12@IABU_LayerStruct@@@Z 0045b910 f i ticket.obj
 0001:0005ab60       ?erase@?$_Tree@V?$_Tmap_traits@KU_TicketProp@@U?$less@K@std@@V?$allocator@U?$pair@$$CBKU_TicketProp@@@std@@@3@$0A@@std@@@std@@QAE?AViterator@12@V312@0@Z 0045bb60 f i ticket.obj
 0001:0005ac20       ??1?$map@KU_TicketProp@@U?$less@K@std@@V?$allocator@U?$pair@$$CBKU_TicketProp@@@std@@@3@@std@@QAE@XZ 0045bc20 f i ticket.obj
 0001:0005ac50       ??1CTicketProperty@@UAE@XZ 0045bc50 f   ticket.obj
 0001:0005ad60       ?LoadScript@CLayerProperty@@QAEHXZ 0045bd60 f   ticket.obj
 0001:0005aec0       ??0CTicketProperty@@QAE@XZ 0045bec0 f   ticket.obj
 0001:0005af60       ??_ECTicketProperty@@UAEPAXI@Z 0045bf60 f i ticket.obj
 0001:0005af60       ??_GCTicketProperty@@UAEPAXI@Z 0045bf60 f i ticket.obj
 0001:0005af80       ?GetInstance@CTicketProperty@@SAPAV1@XZ 0045bf80 f   ticket.obj
 0001:0005afe0       ?LoadScript@CTicketProperty@@QAEHXZ 0045bfe0 f   ticket.obj
 0001:0005b210       ?GetReturnPos@CUser@@QAEAAUD3DXVECTOR3@@PAK@Z 0045c210 f   User.obj
 0001:0005b230       ?CheckTransMailBox@CUser@@QAEXH@Z 0045c230 f   User.obj
 0001:0005b240       ?GetCheckTransMailBox@CUser@@QAEHXZ 0045c240 f   User.obj
 0001:0005b250       ?CheckClientReq@CUser@@QAE_NXZ 0045c250 f   User.obj
 0001:0005b280       ?ResetCheckClientReq@CUser@@QAEXXZ 0045c280 f   User.obj
 0001:0005b290       ?GetCountClientReq@CUser@@QAEHXZ 0045c290 f   User.obj
 0001:0005b2a0       ?SetEventFlagBit@CUser@@QAEHH@Z 0045c2a0 f   User.obj
 0001:0005b350       ?GetMuteText@CUser@@QAEHXZ 0045c350 f   User.obj
 0001:0005b380       ?IsGuildMaster@CUser@@QAEHXZ 0045c380 f   User.obj
 0001:0005b3b0       ?SetAddRestPoint@CUser@@AAEHH@Z 0045c3b0 f   User.obj
 0001:0005b410       ?size@?$vector@U__GCGETPOINT@CGuildCombat@@V?$allocator@U__GCGETPOINT@CGuildCombat@@@std@@@std@@QBEIXZ 0045c410 f i User.obj
 0001:0005b430       ?GetAttrOption@CItemElem@@QAEHXZ 0045c430 f i User.obj
 0001:0005b450       ?SetPKPink@CMover@@QAEXK@Z 0045c450 f i User.obj
 0001:0005b470       ?Init@CUser@@AAEXKK@Z      0045c470 f   User.obj
 0001:0005b660       ?ExpUpSetting@CUser@@QAEXXZ 0045c660 f   User.obj
 0001:0005b6e0       ?Notify@CUser@@QAEHXZ      0045c6e0 f   User.obj
 0001:0005b780       ?AddBlock@CUser@@QAEXPAEK@Z 0045c780 f   User.obj
 0001:0005b7a0       ?AddHdr@CUser@@QAEXKG@Z    0045c7a0 f   User.obj
 0001:0005b7f0       ?AddAddObj@CUser@@QAEXPAVCCtrl@@@Z 0045c7f0 f   User.obj
 0001:0005b8c0       ?AddCreateItem@CUser@@QAEXPAVCItemBase@@PAEPAFE@Z 0045c8c0 f   User.obj
 0001:0005b970       ?AddMoveItem@CUser@@QAEXEEE@Z 0045c970 f   User.obj
 0001:0005ba10       ?AddComfirmTrade@CUser@@QAEXK@Z 0045ca10 f   User.obj
 0001:0005ba60       ?AddComfirmTradeCancel@CUser@@QAEXK@Z 0045ca60 f   User.obj
 0001:0005bab0       ?AddExpBoxCoolTime@CUser@@QAEXKK@Z 0045cab0 f   User.obj
 0001:0005bb40       ?AddCommonSkill@CUser@@QAEXKK@Z 0045cb40 f   User.obj
 0001:0005bbd0       ?AddTradePutError@CUser@@QAEXXZ 0045cbd0 f   User.obj
 0001:0005bc20       ?AddTradePull@CUser@@QAEXKE@Z 0045cc20 f   User.obj
 0001:0005bc80       ?AddTradePutGold@CUser@@QAEXKK@Z 0045cc80 f   User.obj
 0001:0005bce0       ?AddUnregisterPVendorItem@CUser@@QAEXE@Z 0045cce0 f   User.obj
 0001:0005bd50       ?AddPVendorClose@CUser@@QAEXK@Z 0045cd50 f   User.obj
 0001:0005bdb0       ?AddPutItemGuildBank@CUser@@QAEXPAVCItemElem@@@Z 0045cdb0 f   User.obj
 0001:0005be20       ?AddGetItemGuildBank@CUser@@QAEXPAVCItemElem@@@Z 0045ce20 f   User.obj
 0001:0005be90       ?AddGetGoldGuildBank@CUser@@QAEXKEKE@Z 0045ce90 f   User.obj
 0001:0005bf50       ?AddPutItemBank@CUser@@QAEXEPAVCItemElem@@@Z 0045cf50 f   User.obj
 0001:0005bfc0       ?AddGetItemBank@CUser@@QAEXPAVCItemElem@@@Z 0045cfc0 f   User.obj
 0001:0005c020       ?AddPutGoldBank@CUser@@QAEXEKK@Z 0045d020 f   User.obj
 0001:0005c0d0       ?AddBankIsFull@CUser@@QAEXXZ 0045d0d0 f   User.obj
 0001:0005c120       ?AddSetFxp@CUser@@QAEXHH@Z 0045d120 f   User.obj
 0001:0005c1a0       ?AddSetGrowthLearningPoint@CUser@@QAEXJ@Z 0045d1a0 f   User.obj
 0001:0005c230       ?AddGameTimer@CUser@@QAEXN@Z 0045d230 f   User.obj
 0001:0005c2a0       ?AddTaskBar@CUser@@QAEXXZ  0045d2a0 f   User.obj
 0001:0005c300       ?AddSendErrorParty@CUser@@QAEXKK@Z 0045d300 f   User.obj
 0001:0005c390       ?AddPartyChangeName@CUser@@QAEXPBD@Z 0045d390 f   User.obj
 0001:0005c3f0       ?AddPartyChangeTroup@CUser@@QAEXPBD@Z 0045d3f0 f   User.obj
 0001:0005c450       ?AddPartyName@CUser@@QAEXXZ 0045d450 f   User.obj
 0001:0005c4c0       ?AddPartySkillCall@CUser@@QAEXABUD3DXVECTOR3@@@Z 0045d4c0 f   User.obj
 0001:0005c540       ?AddPartySkillBlitz@CUser@@QAEXK@Z 0045d540 f   User.obj
 0001:0005c5b0       ?AddFriendGameJoin@CUser@@QAEXXZ 0045d5b0 f   User.obj
 0001:0005c610       ?AddPartyChangeLeader@CUser@@QAEXK@Z 0045d610 f   User.obj
 0001:0005c680       ?ADDGameJoin@CUser@@QAEXXZ 0045d680 f   User.obj
 0001:0005c6f0       ?AddFriendReqest@CUser@@QAEXKJEPBD@Z 0045d6f0 f   User.obj
 0001:0005c7a0       ?AddFriendCancel@CUser@@QAEXXZ 0045d7a0 f   User.obj
 0001:0005c7f0       ?AddFriendError@CUser@@QAEXEPBD@Z 0045d7f0 f   User.obj
 0001:0005c860       ?AddPartyChat@CUser@@QAEXPBD0K@Z 0045d860 f   User.obj
 0001:0005c8e0       ?AddAddFriend@CUser@@QAEXKPBD@Z 0045d8e0 f   User.obj
 0001:0005c950       ?AddRemoveFriend@CUser@@QAEXK@Z 0045d950 f   User.obj
 0001:0005c9c0       ?AddDuelRequest@CUser@@QAEXKK@Z 0045d9c0 f   User.obj
 0001:0005ca50       ?AddDuelNo@CUser@@QAEXK@Z  0045da50 f   User.obj
 0001:0005cac0       ?AddDuelCancel@CUser@@QAEXK@Z 0045dac0 f   User.obj
 0001:0005cb30       ?AddDuelPartyRequest@CUser@@QAEXKK@Z 0045db30 f   User.obj
 0001:0005cbc0       ?AddDuelPartyNo@CUser@@QAEXK@Z 0045dbc0 f   User.obj
 0001:0005cc30       ?AddRemoveGuildBankItem@CUser@@QAEXKKK@Z 0045dc30 f   User.obj
 0001:0005cce0       ?AddExpBoxInfo@CUser@@QAEXKKKK@Z 0045dce0 f   User.obj
 0001:0005cda0       ?AddSetQuest@CUser@@QAEXPAUtagQuest@@@Z 0045dda0 f   User.obj
 0001:0005ce00       ?AddQueryGetDestObj@CUser@@QAEXK@Z 0045de00 f   User.obj
 0001:0005ce70       ?AddGetDestObj@CUser@@QAEXKKM@Z 0045de70 f   User.obj
 0001:0005cef0       ?AddQueryGetPos@CUser@@QAEXK@Z 0045def0 f   User.obj
 0001:0005cf60       ?AddGetPos@CUser@@QAEXKABUD3DXVECTOR3@@M@Z 0045df60 f   User.obj
 0001:0005cff0       ?AddResurrectionMessage@CUser@@QAEXXZ 0045dff0 f   User.obj
 0001:0005d040       ?AddCorrReq@CUser@@QAEXPAVCMover@@@Z 0045e040 f   User.obj
 0001:0005d0f0       ?AddSetState@CUser@@QAEXJJJJJ@Z 0045e0f0 f   User.obj
 0001:0005d1e0       ?AddSetSkill@CUser@@QAEXKK@Z 0045e1e0 f   User.obj
 0001:0005d270       ?AddMotionError@CUser@@QAEXXZ 0045e270 f   User.obj
 0001:0005d2e0       ?AddSetNaviPoint@CUser@@QAEXABUNaviPoint@@KPBD@Z 0045e2e0 f   User.obj
 0001:0005d370       ?AddSummonFriendUse@CUser@@QAEXPAVCItemElem@@@Z 0045e370 f   User.obj
 0001:0005d410       ?AddSummonFriendConfirm@CUser@@QAEXKKPBD0@Z 0045e410 f   User.obj
 0001:0005d4c0       ?AddSummonPartyConfirm@CUser@@QAEXKKPBD@Z 0045e4c0 f   User.obj
 0001:0005d560       ?SetReturnPos@CUser@@QAEXABUD3DXVECTOR3@@@Z 0045e560 f   User.obj
 0001:0005d590       ?AddPetState@CUser@@QAEXKGGK@Z 0045e590 f   User.obj
 0001:0005d650       ?AddPetSetExp@CUser@@QAEXK@Z 0045e650 f   User.obj
 0001:0005d6c0       ?AddPet@CUser@@QAEXPAVCPet@@E@Z 0045e6c0 f   User.obj
 0001:0005d730       ?AddRestartCollecting@CUser@@QAEXK@Z 0045e730 f   User.obj
 0001:0005d7a0       ?DoUseItemBattery@CUser@@QAEHXZ 0045e7a0 f   User.obj
 0001:0005d7f0       ?FindActiveTicket@CUser@@AAEPAVCItemElem@@K@Z 0045e7f0 f   User.obj
 0001:0005d8e0       ?AdjustGuildQuest@CUser@@QAEXK@Z 0045e8e0 f   User.obj
 0001:0005da10       ?AdjustMailboxState@CUser@@QAEXXZ 0045ea10 f   User.obj
 0001:0005da50       ?AddCouple@CUser@@QAEXXZ   0045ea50 f   User.obj
 0001:0005dac0       ?AddProposeResult@CUser@@QAEXKPBD@Z 0045eac0 f   User.obj
 0001:0005db30       ?AddCoupleResult@CUser@@QAEXKPBD@Z 0045eb30 f   User.obj
 0001:0005dba0       ?AddDecoupleResult@CUser@@QAEXXZ 0045eba0 f   User.obj
 0001:0005dbf0       ?AddRunScriptFunc@CUser@@QAEXABU_runscriptfunc@@@Z 0045ebf0 f   User.obj
 0001:0005dda0       ?AddEnterChatting@CUser@@QAEXPAV1@@Z 0045eda0 f   User.obj
 0001:0005de40       ?AddRemoveChatting@CUser@@QAEXK@Z 0045ee40 f   User.obj
 0001:0005ded0       ?AddDeleteChatting@CUser@@QAEXXZ 0045eed0 f   User.obj
 0001:0005df40       ?AddChatting@CUser@@QAEXKPAD@Z 0045ef40 f   User.obj
 0001:0005dfd0       ?AddGameRate@CUser@@QAEXME@Z 0045efd0 f   User.obj
 0001:0005e060       ?AddGameSetting@CUser@@QAEXXZ 0045f060 f   User.obj
 0001:0005e190       ?AddWantedInfo@CUser@@QAEXABUD3DXVECTOR3@@EKPBD@Z 0045f190 f   User.obj
 0001:0005e250       ?AddReturnScroll@CUser@@QAEXXZ 0045f250 f   User.obj
 0001:0005e2a0       ?AddPostMail@CUser@@QAEXPAVCMail@@@Z 0045f2a0 f   User.obj
 0001:0005e300       ?AddMailBox@CUser@@QAEXPAVCMailBox@@@Z 0045f300 f   User.obj
 0001:0005e360       ?AddGCWindow@CUser@@QAEX_JKK@Z 0045f360 f   User.obj
 0001:0005e430       ?AddGCBestPlayer@CUser@@QAEXXZ 0045f430 f   User.obj
 0001:0005e4b0       ?AddGCDiagMessage@CUser@@QAEXPBD@Z 0045f4b0 f   User.obj
 0001:0005e530       ?AddGCTele@CUser@@QAEXPBD@Z 0045f530 f   User.obj
 0001:0005e5b0       ?AddGuildCombatNextTime@CUser@@QAEXKK@Z 0045f5b0 f   User.obj
 0001:0005e660       ?AddGuildCombatEnterTime@CUser@@QAEXK@Z 0045f660 f   User.obj
 0001:0005e6f0       ?AddGCWarPlayerlist@CUser@@QAEXXZ 0045f6f0 f   User.obj
 0001:0005e760       ?AddCtrlCoolTimeCancel@CUser@@QAEXXZ 0045f760 f   User.obj
 0001:0005e7b0       ?AddFocusObj@CUser@@QAEXK@Z 0045f7b0 f   User.obj
 0001:0005e820       ?AddCallTheRoll@CUser@@QAEXXZ 0045f820 f   User.obj
 0001:0005e8a0       ?AddSealCharSet@CUser@@QAEXXZ 0045f8a0 f   User.obj
 0001:0005e8f0       ?IsTeleportable@CUser@@QAEHXZ 0045f8f0 f   User.obj
 0001:0005e9b0       ?AddTaxInfo@CUser@@QAEXXZ  0045f9b0 f   User.obj
 0001:0005ea10       ?AddRainbowRaceState@CUser@@QAEXPAVCRainbowRace@@@Z 0045fa10 f   User.obj
 0001:0005ea70       ?AddHousingAllInfo@CUser@@QAEXPAVCHousing@@@Z 0045fa70 f   User.obj
 0001:0005ead0       ?AddNPCPos@CUser@@QAEXABUD3DXVECTOR3@@@Z 0045fad0 f   User.obj
 0001:0005eb50       ?AddClearTarget@CUser@@QAEXXZ 0045fb50 f   User.obj
 0001:0005eba0       ?AddPCBangInfo@CUser@@QAEXPAVCPCBangInfo@@@Z 0045fba0 f   User.obj
 0001:0005ec00       ?AddSmeltSafety@CUser@@QAEXE@Z 0045fc00 f   User.obj
 0001:0005ec70       ?AddWorldReadInfo@CUser@@QAEXKUD3DXVECTOR3@@@Z 0045fc70 f   User.obj
 0001:0005ed10       ?AddActivateVisPet@CUser@@QAEXKK@Z 0045fd10 f   User.obj
 0001:0005eda0       ?AddGuildHouseRemvoe@CUser@@QAEXXZ 0045fda0 f   User.obj
 0001:0005edf0       ?GetAddExpAfterApplyRestPoint@CUser@@QAE_J_J@Z 0045fdf0 f   User.obj
 0001:0005eee0       ?AddCheckedQuest@CUser@@QAEXXZ 0045fee0 f   User.obj
 0001:0005ef70       ?AddInviteCampusMember@CUser@@QAEXPAV1@@Z 0045ff70 f   User.obj
 0001:0005f000       ?AddUpdateCampus@CUser@@QAEXPAVCCampus@@@Z 00460000 f   User.obj
 0001:0005f060       ?AddRemoveCampus@CUser@@QAEXK@Z 00460060 f   User.obj
 0001:0005f0d0       ?GetPointByType@CUser@@QAEHH@Z 004600d0 f   User.obj
 0001:0005f0f0       ?SelectAwakeningValue@CUser@@QAEXKKE@Z 004600f0 f   User.obj
 0001:0005f240       ?SendNewRandomOption@CUser@@QAEXEK_J@Z 00460240 f   User.obj
 0001:0005f2f0       ?SendColosseumEnter@CUser@@QAEXXZ 004602f0 f   User.obj
 0001:0005f340       ?AddText@CUser@@QAEXPBD@Z  00460340 f   User.obj
 0001:0005f3b0       ?AddDiagText@CUser@@QAEXPBD@Z 004603b0 f   User.obj
 0001:0005f420       ?AddAllAction@CUser@@QAEXH@Z 00460420 f   User.obj
 0001:0005f4b0       ?AddReplace@CUser@@QAEXKAAUD3DXVECTOR3@@@Z 004604b0 f   User.obj
 0001:0005f540       ?AddTrade@CUser@@QAEXPAV1@K@Z 00460540 f   User.obj
 0001:0005f5c0       ?AddTradePut@CUser@@QAEXKEEEF@Z 004605c0 f   User.obj
 0001:0005f670       ?AddTradeCancel@CUser@@QAEXKKH@Z 00460670 f   User.obj
 0001:0005f6f0       ?AddOpenShopWnd@CUser@@QAEXPAVCMover@@@Z 004606f0 f   User.obj
 0001:0005f760       ?AddRegisterPVendorItem@CUser@@QAEXEEEFH@Z 00460760 f   User.obj
 0001:0005f830       ?AddPVendorItem@CUser@@QAEXPAV1@H@Z 00460830 f   User.obj
 0001:0005f970       ?AddBankWindow@CUser@@QAEXHKK@Z 00460970 f   User.obj
 0001:0005fa20       ?AddGuildBankWindow@CUser@@QAEXH@Z 00460a20 f   User.obj
 0001:0005fac0       ?AddChangeBankPass@CUser@@QAEXHKK@Z 00460ac0 f   User.obj
 0001:0005fb70       ?AddconfirmBankPass@CUser@@QAEXHKK@Z 00460b70 f   User.obj
 0001:0005fc20       ?AddUpdateItemEx@CUser@@QAEXED_J@Z 00460c20 f   User.obj
 0001:0005fcd0       ?AddUpdateItem@CUser@@QAEXDEDKK@Z 00460cd0 f   User.obj
 0001:0005fdb0       ?AddUpdateBankItem@CUser@@QAEXEEDK@Z 00460db0 f   User.obj
 0001:0005fe70       ?AddSetExperience@CUser@@QAEX_JGHH0G@Z 00460e70 f   User.obj
 0001:0005ff70       ?AddSetChangeJob@CUser@@QAEXH@Z 00460f70 f   User.obj
 0001:00060030       ?AddReturnSay@CUser@@QAEXHPBD@Z 00461030 f   User.obj
 0001:000600a0       ?AddSetPartyMemberParam@CUser@@QAEXKEH@Z 004610a0 f   User.obj
 0001:00060150       ?AddPartyMember@CUser@@QAEXPAVCParty@@KPBD1@Z 00461150 f   User.obj
 0001:00060220       ?AddPartyExpLevel@CUser@@QAEXHHH@Z 00461220 f   User.obj
 0001:000602d0       ?AddSetPartyMode@CUser@@QAEXHHJK@Z 004612d0 f   User.obj
 0001:00060390       ?AddPartyChangeItemMode@CUser@@QAEXH@Z 00461390 f   User.obj
 0001:00060400       ?AddPartyChangeExpMode@CUser@@QAEXH@Z 00461400 f   User.obj
 0001:00060470       ?AddPartyRequest@CUser@@QAEXPAV1@0H@Z 00461470 f   User.obj
 0001:000605e0       ?AddPartyRequestCancel@CUser@@QAEXKKH@Z 004615e0 f   User.obj
 0001:00060690       ?AddCancelQuest@CUser@@QAEXK@Z 00461690 f   User.obj
 0001:00060720       ?AddRemoveQuest@CUser@@QAEXK@Z 00461720 f   User.obj
 0001:000607b0       ?AddRemoveAllQuest@CUser@@QAEXXZ 004617b0 f   User.obj
 0001:00060840       ?AddRemoveCompleteQuest@CUser@@QAEXXZ 00461840 f   User.obj
 0001:000608d0       ?AddEnvironmentSetting@CUser@@QAEXXZ 004618d0 f   User.obj
 0001:00060940       ?AddDuelStart@CUser@@QAEXKH@Z 00461940 f   User.obj
 0001:000609d0       ?AddDuelCount@CUser@@QAEXH@Z 004619d0 f   User.obj
 0001:00060a40       ?AddDuelPartyStart@CUser@@QAEXPBDHPAKKH@Z 00461a40 f   User.obj
 0001:00060b20       ?AddDuelPartyCancel@CUser@@QAEXPAVCParty@@@Z 00461b20 f   User.obj
 0001:00060bf0       ?AddDuelPartyResult@CUser@@QAEXPAVCParty@@H@Z 00461bf0 f   User.obj
 0001:00060cb0       ?AddQueryPlayerData@CUser@@QAEXKPAU_PlayerData@@@Z 00461cb0 f   User.obj
 0001:00060d30       ?AddGuildInvite@CUser@@QAEXKK@Z 00461d30 f   User.obj
 0001:00060db0       ?AddAllGuilds@CUser@@QAEXXZ 00461db0 f   User.obj
 0001:00060e10       ?AddMyGuild@CUser@@QAEXXZ  00461e10 f   User.obj
 0001:00060e90       ?AddMyGuildWar@CUser@@QAEXXZ 00461e90 f   User.obj
 0001:00060f00       ?AddContribution@CUser@@QAEXAAUCONTRIBUTION_CHANGED_INFO@@@Z 00461f00 f   User.obj
 0001:00060f60       ?AddInsertedVote@CUser@@QAEXAAUVOTE_INSERTED_INFO@@@Z 00461f60 f   User.obj
 0001:00060fc0       ?AddModifyVote@CUser@@QAEXKEE@Z 00461fc0 f   User.obj
 0001:00061060       ?AddSetNotice@CUser@@QAEXKPBD@Z 00462060 f   User.obj
 0001:000610d0       ?AddSetGuildAuthority@CUser@@QAEXQAK@Z 004620d0 f   User.obj
 0001:00061130       ?AddSetGuildPenya@CUser@@QAEXKK@Z 00462130 f   User.obj
 0001:000611b0       ?AddGuildRealPenya@CUser@@QAEXHH@Z 004621b0 f   User.obj
 0001:00061230       ?SendGuildRank@CUser@@QAEXXZ 00462230 f   User.obj
 0001:00061290       ?AddSMMode@CUser@@QAEXHK@Z 00462290 f   User.obj
 0001:00061370       ?AddSMModeAll@CUser@@QAEXXZ 00462370 f   User.obj
 0001:00061480       ?AddResistSMMode@CUser@@QAEXEEE@Z 00462480 f   User.obj
 0001:00061520       ?AddCommercialElem@CUser@@QAEXKH@Z 00462520 f   User.obj
 0001:000615a0       ?AddFlyffEvent@CUser@@QAEXXZ 004625a0 f   User.obj
 0001:00061600       ?AddDefinedText@CUser@@QAAXHPBDZZ 00462600 f   User.obj
 0001:000616d0       ?AddChatText@CUser@@QAAXHPBDZZ 004626d0 f   User.obj
 0001:000617a0       ?AddDefinedText@CUser@@QAEXH@Z 004627a0 f   User.obj
 0001:00061810       ?AddDefinedCaption@CUser@@QAAXHHPBDZZ 00462810 f   User.obj
 0001:00061910       ?AddSetGuildQuest@CUser@@QAEXHH@Z 00462910 f   User.obj
 0001:000619a0       ?AddSetFuel@CUser@@QAEXHK@Z 004629a0 f   User.obj
 0001:00061a30       ?AddTag@CUser@@QAEXFPBUTAG_ENTRY@@@Z 00462a30 f   User.obj
 0001:00061b30       ?AddPlaySound@CUser@@QAEXK@Z 00462b30 f   User.obj
 0001:00061bb0       ?AddPlaySound2@CUser@@QAEXPBD@Z 00462bb0 f   User.obj
 0001:00061c20       ?AddMoverFocus@CUser@@QAEXPAVCMover@@@Z 00462c20 f   User.obj
 0001:00061cd0       ?AddPartyMapInfo@CUser@@QAEXHUD3DXVECTOR3@@@Z 00462cd0 f   User.obj
 0001:00061d70       ?AddSetDuel@CUser@@QAEXPAVCMover@@@Z 00462d70 f   User.obj
 0001:00061e40       ?AddPKValue@CUser@@QAEXXZ  00462e40 f   User.obj
 0001:00061ec0       ?AddSnoop@CUser@@QAEXPBD@Z 00462ec0 f   User.obj
 0001:00061f20       ?AddSetCheerParam@CUser@@QAEXHKH@Z 00462f20 f   User.obj
 0001:00061fd0       ?AddQueryEquip@CUser@@QAEXPAV1@@Z 00462fd0 f   User.obj
 0001:00062120       ?DoUsePackItem@CUser@@QAEXPAVCItemElem@@PAU_PACKITEMELEM@@@Z 00463120 f   User.obj
 0001:000623b0       ?DoUseGiftbox@CUser@@QAEHPAVCItemElem@@K@Z 004633b0 f   User.obj
 0001:00062610       ?DoUseEveFBOX@CUser@@QAEXPAVCItemElem@@@Z 00463610 f   User.obj
 0001:00062850       ?IsUsableState@CUser@@QAEHK@Z 00463850 f   User.obj
 0001:000628f0       ?OnDoUseItem@CUser@@QAEXKKH@Z 004638f0 f   User.obj
 0001:00062a70       ?AddPetFoodMill@CUser@@QAEXHH@Z 00463a70 f   User.obj
 0001:00062b00       ?ProcessCollecting@CUser@@UAEXXZ 00463b00 f   User.obj
 0001:00062d20       ?DoUseItemTicket@CUser@@QAEXPAVCItemElem@@@Z 00463d20 f   User.obj
 0001:00062f90       ?AddGC1to1TenderOpenWnd@CUser@@QAEXH@Z 00463f90 f   User.obj
 0001:00063020       ?AddGC1to1WarResult@CUser@@QAEXHKHH@Z 00464020 f   User.obj
 0001:000630d0       ?AddPocketAttribute@CUser@@QAEXHHH@Z 004640d0 f   User.obj
 0001:00063170       ?AddPocketView@CUser@@QAEXXZ 00464170 f   User.obj
 0001:000633f0       ?AddPocketAddItem@CUser@@QAEXHPAVCItemElem@@@Z 004643f0 f   User.obj
 0001:00063460       ?AddPocketRemoveItem@CUser@@QAEXHHF@Z 00464460 f   User.obj
 0001:00063500       ?AddQuePetResurrectionResult@CUser@@QAEXH@Z 00464500 f   User.obj
 0001:00063560       ?ValidateItem@CUser@@QAEXXZ 00464560 f   User.obj
 0001:000636b0       ?AddAddCoupleExperience@CUser@@QAEXH@Z 004646b0 f   User.obj
 0001:00063720       ?AddNewChatting@CUser@@QAEXPAVCChatting@@@Z 00464720 f   User.obj
 0001:00063830       ?AddAngelInfo@CUser@@QAEXH@Z 00464830 f   User.obj
 0001:00063900       ?AddChttingRoomState@CUser@@QAEXH@Z 00464900 f   User.obj
 0001:00063990       ?AddMonsterProp@CUser@@QAEXXZ 00464990 f   User.obj
 0001:00063b10       ?AddInitSkill@CUser@@QAEXXZ 00464b10 f   User.obj
 0001:00063b80       ?AddDoUseSkillPoint@CUser@@QAEXQAUtagSkill@@H@Z 00464b80 f   User.obj
 0001:00063c30       ?AddRemoveMail@CUser@@QAEXKH@Z 00464c30 f   User.obj
 0001:00063cc0       ?SendCheckMailBoxReq@CUser@@QAEXH@Z 00464cc0 f   User.obj
 0001:00063d30       ?AddGCJoinWarWindow@CUser@@QAEXHH@Z 00464d30 f   User.obj
 0001:00063de0       ?AddGCWinGuild@CUser@@QAEXXZ 00464de0 f   User.obj
 0001:00063e90       ?AddGCIsRequest@CUser@@QAEXH@Z 00464e90 f   User.obj
 0001:00063f20       ?AddGCGetPenyaGuild@CUser@@QAEXH_J@Z 00464f20 f   User.obj
 0001:00063fd0       ?AddGCGetPenyaPlayer@CUser@@QAEXH_J@Z 00464fd0 f   User.obj
 0001:00064080       ?AddGuildCombatState@CUser@@QAEXXZ 00465080 f   User.obj
 0001:00064120       ?AddQuestTextTime@CUser@@QAEXHHK@Z 00465120 f   User.obj
 0001:000641d0       ?DoSMItemEquip@CUser@@QAEXPAVCItemElem@@K@Z 004651d0 f   User.obj
 0001:000643e0       ?DoSMItemUnEquip@CUser@@QAEXPAVCItemElem@@K@Z 004653e0 f   User.obj
 0001:00064540       ?AddKawibawiboResult@CUser@@QAEXHHKHKH@Z 00465540 f   User.obj
 0001:000646a0       ?AddReassembleResult@CUser@@QAEXKH@Z 004656a0 f   User.obj
 0001:00064750       ?AddAlphabetResult@CUser@@QAEXHKH@Z 00465750 f   User.obj
 0001:00064820       ?AddFiveSystemOpenWnd@CUser@@QAEXHHH@Z 00465820 f   User.obj
 0001:000648e0       ?AddFiveSystemResult@CUser@@QAEXHHH@Z 004658e0 f   User.obj
 0001:000649b0       ?AddUltimateMakeItem@CUser@@QAEXH@Z 004659b0 f   User.obj
 0001:00064a40       ?AddUltimateMakeGem@CUser@@QAEXHH@Z 00465a40 f   User.obj
 0001:00064af0       ?AddUltimateWeapon@CUser@@QAEXEH@Z 00465af0 f   User.obj
 0001:00064b80       ?AddExchangeResult@CUser@@QAEXEH@Z 00465b80 f   User.obj
 0001:00064c10       ?AddRemoveAttribute@CUser@@QAEXH@Z 00465c10 f   User.obj
 0001:00064c80       ?AddLegendSkillResult@CUser@@QAEXH@Z 00465c80 f   User.obj
 0001:00064cf0       ?AddGuildBankLogView@CUser@@QAEXEFPBU__GUILDBANKLOG_ENTRY@@@Z 00465cf0 f   User.obj
 0001:00064e10       ?AddHonorListAck@CUser@@QAEXXZ 00465e10 f   User.obj
 0001:00064e90       ?AddSealChar@CUser@@QAEXFPBU__SEALCHAR_ENTRY@@@Z 00465e90 f   User.obj
 0001:00064f60       ?AddCoupon@CUser@@QAEXH@Z  00465f60 f   User.obj
 0001:00064fd0       ?AddSecretRoomMngState@CUser@@QAEXHK@Z 00465fd0 f   User.obj
 0001:00065060       ?AddSecretRoomTenderOpenWnd@CUser@@QAEXH@Z 00466060 f   User.obj
 0001:000650f0       ?AddLord@CUser@@QAEXXZ     004660f0 f   User.obj
 0001:00065150       ?AddLordSkillTick@CUser@@QAEXPAVCLordSkill@@@Z 00466150 f   User.obj
 0001:000651b0       ?AddSetTutorialState@CUser@@QAEXXZ 004661b0 f   User.obj
 0001:00065210       ?AddTaxSetTaxRateOpenWnd@CUser@@QAEXE@Z 00466210 f   User.obj
 0001:000652b0       ?AddRainbowRaceApplicationOpenWnd@CUser@@QAEXXZ 004662b0 f   User.obj
 0001:00065320       ?AddMiniGameState@CUser@@QAEXU__MINIGAME_PACKET@@@Z 00466320 f   User.obj
 0001:00065380       ?AddHousingSetFurnitureList@CUser@@QAEXAAUHOUSINGINFO@@H@Z 00466380 f   User.obj
 0001:00065400       ?AddHousingSetupFurniture@CUser@@QAEXPAUHOUSINGINFO@@@Z 00466400 f   User.obj
 0001:00065460       ?AddHousingPaperingInfo@CUser@@QAEXKH@Z 00466460 f   User.obj
 0001:000654f0       ?AddHousingSetVisitAllow@CUser@@QAEXKH@Z 004664f0 f   User.obj
 0001:00065580       ?AddQuizEventState@CUser@@QAEXHH@Z 00466580 f   User.obj
 0001:00065610       ?AddQuizEventMessage@CUser@@QAEXPBDH@Z 00466610 f   User.obj
 0001:000656a0       ?AddQuizQuestion@CUser@@QAEXHPBDH@Z 004666a0 f   User.obj
 0001:00065750       ?AddGuildHousePakcet@CUser@@QAEXHAAUGuildHouse_Furniture_Info@CGuildHouseBase@@H@Z 00466750 f   User.obj
 0001:000657e0       ?AddGuildHouseAllInfo@CUser@@QAEXPAVCGuildHouseBase@@@Z 004667e0 f   User.obj
 0001:000658a0       ?AddRestPoint@CUser@@AAEXXZ 004668a0 f   User.obj
 0001:00065910       ?AddUpdateCampusPoint@CUser@@QAEXH@Z 00466910 f   User.obj
 0001:00065980       ?ActiveCampusBuff@CUser@@QAEXH@Z 00466980 f   User.obj
 0001:000659f0       ?SendColosseumStart@CUser@@QAEXH@Z 004669f0 f   User.obj
 0001:00065a60       ?SendColosseumReady1@CUser@@QAEXHE@Z 00466a60 f   User.obj
 0001:00065af0       ?SendColosseumReady2@CUser@@QAEXH@Z 00466af0 f   User.obj
 0001:00065b60       ?SendColosseumEndMatch@CUser@@QAEXHH@Z 00466b60 f   User.obj
 0001:00065bf0       ?AddActivateBarunaPet@CUser@@QAEXKKH@Z 00466bf0 f   User.obj
 0001:00065ca0       ?SendTreasure@CUser@@QAEXQAUTreasureItem@@QAH@Z 00466ca0 f   User.obj
 0001:00065d50       ?_Buynode@?$list@PAXV?$allocator@PAX@std@@@std@@IAEPAU_Node@?$_List_nod@PAXV?$allocator@PAX@std@@@2@XZ 00466d50 f i DPSock.obj
 0001:00065d50       ?_Buynode@?$list@PAVCUser@@V?$allocator@PAVCUser@@@std@@@std@@IAEPAU_Node@?$_List_nod@PAVCUser@@V?$allocator@PAVCUser@@@std@@@2@XZ 00466d50 f i User.obj
 0001:00065d50       ?_Buynode@?$list@PAVCJurisdiction@@V?$allocator@PAVCJurisdiction@@@std@@@std@@IAEPAU_Node@?$_List_nod@PAVCJurisdiction@@V?$allocator@PAVCJurisdiction@@@std@@@2@XZ 00466d50 f i ServerDesc.obj
 0001:00065d50       ?_Buynode@?$list@PAVCEventItem@@V?$allocator@PAVCEventItem@@@std@@@std@@IAEPAU_Node@?$_List_nod@PAVCEventItem@@V?$allocator@PAVCEventItem@@@std@@@2@XZ 00466d50 f i spevent.obj
 0001:00065d50       ?_Buynode@?$list@PAVCGuildVote@@V?$allocator@PAVCGuildVote@@@std@@@std@@IAEPAU_Node@?$_List_nod@PAVCGuildVote@@V?$allocator@PAVCGuildVote@@@std@@@2@XZ 00466d50 f i guild.obj
 0001:00065d50       ?_Buynode@?$list@PAU_EVENT_GENERIC@@V?$allocator@PAU_EVENT_GENERIC@@@std@@@std@@IAEPAU_Node@?$_List_nod@PAU_EVENT_GENERIC@@V?$allocator@PAU_EVENT_GENERIC@@@std@@@2@XZ 00466d50 f i spevent.obj
 0001:00065d50       ?_Buynode@?$list@PAU__JOINPLAYER@CGuildCombat@@V?$allocator@PAU__JOINPLAYER@CGuildCombat@@@std@@@std@@IAEPAU_Node@?$_List_nod@PAU__JOINPLAYER@CGuildCombat@@V?$allocator@PAU__JOINPLAYER@CGuildCombat@@@std@@@2@XZ 00466d50 f i User.obj
 0001:00065d70       ?_Buynode@?$list@PAVCGuildVote@@V?$allocator@PAVCGuildVote@@@std@@@std@@IAEPAU_Node@?$_List_nod@PAVCGuildVote@@V?$allocator@PAVCGuildVote@@@std@@@2@PAU342@0ABQAVCGuildVote@@@Z 00466d70 f i guild.obj
 0001:00065d70       ?_Buynode@?$list@PAXV?$allocator@PAX@std@@@std@@IAEPAU_Node@?$_List_nod@PAXV?$allocator@PAX@std@@@2@PAU342@0ABQAX@Z 00466d70 f i DPSock.obj
 0001:00065d70       ?_Buynode@?$list@PAU_EVENT_GENERIC@@V?$allocator@PAU_EVENT_GENERIC@@@std@@@std@@IAEPAU_Node@?$_List_nod@PAU_EVENT_GENERIC@@V?$allocator@PAU_EVENT_GENERIC@@@std@@@2@PAU342@0ABQAU_EVENT_GENERIC@@@Z 00466d70 f i spevent.obj
 0001:00065d70       ?_Buynode@?$list@PAVCUser@@V?$allocator@PAVCUser@@@std@@@std@@IAEPAU_Node@?$_List_nod@PAVCUser@@V?$allocator@PAVCUser@@@std@@@2@PAU342@0ABQAVCUser@@@Z 00466d70 f i User.obj
 0001:00065d70       ?_Buynode@?$list@PAVCEventItem@@V?$allocator@PAVCEventItem@@@std@@@std@@IAEPAU_Node@?$_List_nod@PAVCEventItem@@V?$allocator@PAVCEventItem@@@std@@@2@PAU342@0ABQAVCEventItem@@@Z 00466d70 f i spevent.obj
 0001:00065d70       ?_Buynode@?$list@PAVCJurisdiction@@V?$allocator@PAVCJurisdiction@@@std@@@std@@IAEPAU_Node@?$_List_nod@PAVCJurisdiction@@V?$allocator@PAVCJurisdiction@@@std@@@2@PAU342@0ABQAVCJurisdiction@@@Z 00466d70 f i ServerDesc.obj
 0001:00065d70       ?_Buynode@?$list@PAU__JOINPLAYER@CGuildCombat@@V?$allocator@PAU__JOINPLAYER@CGuildCombat@@@std@@@std@@IAEPAU_Node@?$_List_nod@PAU__JOINPLAYER@CGuildCombat@@V?$allocator@PAU__JOINPLAYER@CGuildCombat@@@std@@@2@PAU342@0ABQAU__JOINPLAYER@CGuildCombat@@@Z 00466d70 f i User.obj
 0001:00065da0       ?IsEatPet@CItemElem@@QAEHXZ 00466da0 f i User.obj
 0001:00065df0       ?AddGoldText@CUser@@QAEXH@Z 00466df0 f   User.obj
 0001:00065f10       ?AdjustPartyQuest@CUser@@QAEXK@Z 00466f10 f   User.obj
 0001:00065fa0       ?AddStartCollecting@CUserMng@@QAEXPAVCUser@@@Z 00466fa0 f   User.obj
 0001:00066100       ?AddStopCollecting@CUserMng@@QAEXPAVCUser@@@Z 00467100 f   User.obj
 0001:00066260       ?AddChat@CUserMng@@QAEXPAVCCtrl@@PBD@Z 00467260 f   User.obj
 0001:000664f0       ?AddShipActMsg@CUserMng@@QAEXPAVCMover@@PAVCShip@@KHH@Z 004674f0 f   User.obj
 0001:000666e0       ?AddMotion@CUserMng@@QAEXPAVCMover@@K@Z 004676e0 f   User.obj
 0001:00066870       ?AddRemoveAllSkillInfluence@CUserMng@@QAEXPAVCMover@@@Z 00467870 f   User.obj
 0001:000669d0       ?AddDamage@CUserMng@@QAEXPAVCMover@@KKK@Z 004679d0 f   User.obj
 0001:00066bf0       ?AddDisguise@CUserMng@@QAEXPAVCMover@@K@Z 00467bf0 f   User.obj
 0001:00066d80       ?AddNoDisguise@CUserMng@@QAEXPAVCMover@@@Z 00467d80 f   User.obj
 0001:00066ee0       ?AddSetStateLevel@CUserMng@@QAEXPAVCMover@@DJ@Z 00467ee0 f   User.obj
 0001:000670a0       ?AddMoverDeath@CUserMng@@QAEXPAVCMover@@0K@Z 004680a0 f   User.obj
 0001:00067260       ?AddUseSkill@CUserMng@@QAEXPAVCMover@@KKKHH@Z 00468260 f   User.obj
 0001:00067470       ?AddDoEquip@CUserMng@@QAEXPAVCMover@@HEABU_EQUIP_INFO@@E@Z 00468470 f   User.obj
 0001:00067660       ?AddDoEquip@CUserMng@@QAEXPAVCMover@@HPAVCItemElem@@E@Z 00468660 f   User.obj
 0001:000676c0       ?AddVendor@CUserMng@@QAEXPAVCMover@@@Z 004686c0 f   User.obj
 0001:00067850       ?AddSetDestParam@CUserMng@@QAEXPAVCMover@@HHH@Z 00468850 f   User.obj
 0001:00067a10       ?AddResetDestParam@CUserMng@@QAEXPAVCMover@@HH@Z 00468a10 f   User.obj
 0001:00067bc0       ?AddResetDestParamSync@CUserMng@@QAEXPAVCMover@@HHH@Z 00468bc0 f   User.obj
 0001:00067d80       ?AddSetPointParam@CUserMng@@QAEXPAVCMover@@HH@Z 00468d80 f   User.obj
 0001:00067f30       ?AddSetPos@CUserMng@@QAEXPAVCCtrl@@AAUD3DXVECTOR3@@@Z 00468f30 f   User.obj
 0001:000680c0       ?AddSetLevel@CUserMng@@QAEXPAVCMover@@G@Z 004690c0 f   User.obj
 0001:00068250       ?AddSetFlightLevel@CUserMng@@QAEXPAVCMover@@H@Z 00469250 f   User.obj
 0001:000683e0       ?AddSetDestPos@CUserMng@@QAEXPAVCMover@@ABUD3DXVECTOR3@@E@Z 004693e0 f   User.obj
 0001:00068590       ?AddSetMovePattern@CUserMng@@QAEXPAVCMover@@HABUD3DXVECTOR3@@MM@Z 00469590 f   User.obj
 0001:00068790       ?AddSetDestAngle@CUserMng@@QAEXPAVCMover@@ME@Z 00469790 f   User.obj
 0001:00068930       ?AddMoverSetDestObj@CUserMng@@QAEXPAVCMover@@KMH@Z 00469930 f   User.obj
 0001:00068af0       ?AddMeleeAttack@CUserMng@@QAEXPAVCMover@@KKHH@Z 00469af0 f   User.obj
 0001:00068ce0       ?AddMeleeAttack2@CUserMng@@QAEXPAVCMover@@KKHH@Z 00469ce0 f   User.obj
 0001:00068ed0       ?AddMagicAttack@CUserMng@@QAEXPAVCMover@@KKHHHH@Z 00469ed0 f   User.obj
 0001:000690f0       ?AddRangeAttack@CUserMng@@QAEXPAVCMover@@KKHHH@Z 0046a0f0 f   User.obj
 0001:00069300       ?AddAttackSP@CUserMng@@QAEXPAVCMover@@KKHH@Z 0046a300 f   User.obj
 0001:000694f0       ?AddMoverMoved@CUserMng@@QAEXPAVCMover@@AAUD3DXVECTOR3@@1MKKKHHK_J@Z 0046a4f0 f   User.obj
 0001:000697c0       ?AddMoverBehavior@CUserMng@@QAEXPAVCMover@@AAUD3DXVECTOR3@@1MKKKHHK_JH@Z 0046a7c0 f   User.obj
 0001:00069aa0       ?AddMoverMoved2@CUserMng@@QAEXPAVCMover@@AAUD3DXVECTOR3@@1MMMMKKKHHK_JE@Z 0046aaa0 f   User.obj
 0001:00069df0       ?AddMoverBehavior2@CUserMng@@QAEXPAVCMover@@AAUD3DXVECTOR3@@1MMMMKKKHHK_JH@Z 0046adf0 f   User.obj
 0001:0006a130       ?AddMoverAngle@CUserMng@@QAEXPAVCMover@@AAUD3DXVECTOR3@@1MMMM_J@Z 0046b130 f   User.obj
 0001:0006a3a0       ?AddMoverCorr@CUserMng@@QAEXPAVCMover@@AAUD3DXVECTOR3@@1MKKKHHK_J@Z 0046b3a0 f   User.obj
 0001:0006a680       ?AddMoverCorr2@CUserMng@@QAEXPAVCMover@@AAUD3DXVECTOR3@@1MMMMKKKHHK_J@Z 0046b680 f   User.obj
 0001:0006a9b0       ?AddCreateSfxObj@CUserMng@@QAEXPAVCCtrl@@KMMMH@Z 0046b9b0 f   User.obj
 0001:0006abc0       ?AddRemoveSfxObj@CUserMng@@QAEXPAVCCtrl@@KMMMH@Z 0046bbc0 f   User.obj
 0001:0006add0       ?AddMotionArrive@CUserMng@@QAEXPAVCMover@@W4OBJMSG@@@Z 0046bdd0 f   User.obj
 0001:0006af60       ?AddPKPink@CUserMng@@QAEXPAVCMover@@E@Z 0046bf60 f   User.obj
 0001:0006b100       ?AddPKPropensity@CUserMng@@QAEXPAVCMover@@@Z 0046c100 f   User.obj
 0001:0006b2a0       ?AddCreateSfxAllow@CUserMng@@QAEXPAVCMover@@KKUD3DXVECTOR3@@H@Z 0046c2a0 f   User.obj
 0001:0006b4d0       ?AddNearSetChangeJob@CUserMng@@QAEXPAVCMover@@HPAUtagSkill@@@Z 0046c4d0 f   User.obj
 0001:0006b6a0       ?AddModifyMode@CUserMng@@QAEXPAVCUser@@@Z 0046c6a0 f   User.obj
 0001:0006b830       ?AddStateMode@CUserMng@@QAEXPAVCUser@@E@Z 0046c830 f   User.obj
 0001:0006ba60       ?AddSetFame@CUserMng@@QAEXPAVCMover@@H@Z 0046ca60 f   User.obj
 0001:0006bbf0       ?AddSexChange@CUserMng@@QAEXPAVCMover@@@Z 0046cbf0 f   User.obj
 0001:0006bd80       ?AddSetGuild@CUserMng@@QAEXPAVCUser@@K@Z 0046cd80 f   User.obj
 0001:0006bf10       ?AddSetWar@CUserMng@@QAEXPAVCUser@@K@Z 0046cf10 f   User.obj
 0001:0006c0a0       ?AddGetItemElem@CUserMng@@QAEXPAVCUser@@PAVCItemElem@@@Z 0046d0a0 f   User.obj
 0001:0006c250       ?AddPutItemElem@CUserMng@@QAEXPAVCUser@@PAVCItemElem@@@Z 0046d250 f   User.obj
 0001:0006c400       ?AddPutItemElem@CUserMng@@QAEXKPAVCItemElem@@@Z 0046d400 f   User.obj
 0001:0006c570       ?AddPVendorOpen@CUserMng@@QAEXPAVCUser@@@Z 0046d570 f   User.obj
 0001:0006c6f0       ?AddPVendorClose@CUserMng@@QAEXPAVCUser@@@Z 0046d6f0 f   User.obj
 0001:0006c870       ?AddPVendorItemNum@CUserMng@@QAEXPAVCUser@@EFPBD@Z 0046d870 f   User.obj
 0001:0006ca40       ?AddSetHair@CUserMng@@QAEXPAVCUser@@EEEE@Z 0046da40 f   User.obj
 0001:0006cc20       ?AddHdr@CUserMng@@QAEXPAVCCtrl@@G@Z 0046dc20 f   User.obj
 0001:0006cd90       ?AddBlock@CUserMng@@QAEXPAEK@Z 0046dd90 f   User.obj
 0001:0006cd90       ?AddBlockNoLock@CUserMng@@QAEXPAEK@Z 0046dd90 f   User.obj
 0001:0006ce00       ?AddBlockNoLock@CUserMng@@QAEXPAEKPAVCWorld@@@Z 0046de00 f   User.obj
 0001:0006ce00       ?AddBlock@CUserMng@@QAEXPAEKPAVCWorld@@@Z 0046de00 f   User.obj
 0001:0006ce70       ?AddBlock@CUserMng@@QAEXPAVCWorld@@ABUD3DXVECTOR3@@HPAEK@Z 0046de70 f   User.obj
 0001:0006cfa0       ?AddGameSetting@CUserMng@@QAEXXZ 0046dfa0 f   User.obj
 0001:0006cfe0       ?AddShout@CUserMng@@QAEXPAVCUser@@HPAEK@Z 0046dfe0 f   User.obj
 0001:0006d130       ?AddSetScale@CUserMng@@QAEXPAVCMover@@M@Z 0046e130 f   User.obj
 0001:0006d2b0       ?AddSetSkillState@CUserMng@@QAEXPAVCMover@@0GGKK@Z 0046e2b0 f   User.obj
 0001:0006d4f0       ?AddMonsterProp@CUserMng@@QAEXXZ 0046e4f0 f   User.obj
 0001:0006d710       ?AddGMChat@CUserMng@@QAEXH@Z 0046e710 f   User.obj
 0001:0006d840       ?AddGuildCombatUserState@CUserMng@@QAEXPAVCMover@@@Z 0046e840 f   User.obj
 0001:0006d9f0       ?AddGCWinGuild@CUserMng@@QAEXXZ 0046e9f0 f   User.obj
 0001:0006db40       ?AddGCBestPlayer@CUserMng@@QAEXXZ 0046eb40 f   User.obj
 0001:0006dc50       ?AddGuildCombatState@CUserMng@@QAEXXZ 0046ec50 f   User.obj
 0001:0006dd90       ?AddGuildCombatNextTimeWorld@CUserMng@@QAEXKK@Z 0046ed90 f   User.obj
 0001:0006df10       ?AddGuildCombatEnterTime@CUserMng@@QAEXK@Z 0046ef10 f   User.obj
 0001:0006e070       ?AddGCWarPlayerlist@CUserMng@@QAEXKPAVCUser@@@Z 0046f070 f   User.obj
 0001:0006e210       ?AddGCLogRealTimeWorld@CUserMng@@QAEXU__GCGETPOINT@CGuildCombat@@@Z 0046f210 f   User.obj
 0001:0006e4c0       ?ReplaceWorld@CUserMng@@QAEXKKMMH@Z 0046f4c0 f   User.obj
 0001:0006e5c0       ?ReplaceWorldArea@CUserMng@@QAEXKKKMMMHH@Z 0046f5c0 f   User.obj
 0001:0006e740       ?AddWorldMsg@CUserMng@@QAEXKPBD@Z 0046f740 f   User.obj
 0001:0006e890       ?AddGCIsRequest@CUserMng@@QAEXKH@Z 0046f890 f   User.obj
 0001:0006ea00       ?AddCommonPlace@CUserMng@@QAEXPAVCCtrl@@E@Z 0046fa00 f   User.obj
 0001:0006eb90       ?OnMsgArrival@CUser@@QAEXK@Z 0046fb90 f   User.obj
 0001:0006f020       ?CheckFiniteItem@CUser@@QAEXXZ 00470020 f   User.obj
 0001:0006f180       ?AddAlphabetOpenWnd@CUser@@QAEXHHDV?$CStringT@DV?$StrTraitMFC@DV?$ChTraitsCRT@D@ATL@@@@@ATL@@@Z 00470180 f   User.obj
 0001:0006f290       ?AddSetPetName@CUserMng@@QAEXPAVCUser@@PBD@Z 00470290 f   User.obj
 0001:0006f410       ?AddPetCall@CUserMng@@QAEXPAVCMover@@KKEPBD@Z 00470410 f   User.obj
 0001:0006f5e0       ?AddPetRelease@CUserMng@@QAEXPAVCMover@@@Z 004705e0 f   User.obj
 0001:0006f740       ?AddPetLevelup@CUserMng@@QAEXPAVCMover@@K@Z 00470740 f   User.obj
 0001:0006f8d0       ?AddPetFeed@CUserMng@@QAEXPAVCMover@@G@Z 004708d0 f   User.obj
 0001:0006fa50       ?AddHonorTitleChange@CUserMng@@QAEXPAVCMover@@H@Z 00470a50 f   User.obj
 0001:0006fbe0       ?AddSetSpeedFactor@CUserMng@@QAEXPAVCMover@@M@Z 00470be0 f   User.obj
 0001:0006fd60       ?AddElectionBeginCandidacy@CUserMng@@QAEXXZ 00470d60 f   User.obj
 0001:0006fe40       ?AddElectionBeginVote@CUserMng@@QAEXH@Z 00470e40 f   User.obj
 0001:0006ff40       ?AddElectionEndVote@CUserMng@@QAEXK@Z 00470f40 f   User.obj
 0001:00070040       ?AddElectionAddDeposit@CUserMng@@QAEXK_JJ@Z 00471040 f   User.obj
 0001:00070190       ?AddElectionSetPledge@CUserMng@@QAEXKPBD@Z 00471190 f   User.obj
 0001:000702a0       ?AddElectionIncVote@CUserMng@@QAEXKK@Z 004712a0 f   User.obj
 0001:000703c0       ?AddLEventCreate@CUserMng@@QAEXPAVCLEComponent@@@Z 004713c0 f   User.obj
 0001:000704c0       ?AddLEventInitialize@CUserMng@@QAEXXZ 004714c0 f   User.obj
 0001:000705a0       ?AddLEventTick@CUserMng@@QAEXPAVILordEvent@@@Z 004715a0 f   User.obj
 0001:000706a0       ?AddLordSkillUse@CUserMng@@QAEXPAVCUser@@KH@Z 004716a0 f   User.obj
 0001:00070850       ?AddQueryPlayerData@CUserMng@@QAEXK@Z 00471850 f   User.obj
 0001:00070990       ?AddTaxInfo@CUserMng@@QAEXXZ 00471990 f   User.obj
 0001:00070a30       ?AddHousingPaperingInfo@CUserMng@@QAEXKHK@Z 00471a30 f   User.obj
 0001:00070aa0       ?DoUseItemPetNaming@CUser@@QAEHXZ 00471aa0 f   User.obj
 0001:00070b20       ?AddChangeMoverSfxId@CUserMng@@QAEXPAVCMover@@@Z 00471b20 f   User.obj
 0001:00070cb0       ?HasUserSameWorldnLayer@CUserMng@@QAEHPAVCUser@@@Z 00471cb0 f   User.obj
 0001:00070d30       ?ProcessCampus@CUser@@QAEXXZ 00471d30 f   User.obj
 0001:00070de0       ?_Copy@?$_Tree@V?$_Tmap_traits@HHU?$less@H@std@@V?$allocator@U?$pair@$$CBHH@std@@@2@$0A@@std@@@std@@IAEPAU_Node@?$_Tree_nod@V?$_Tmap_traits@HHU?$less@H@std@@V?$allocator@U?$pair@$$CBHH@std@@@2@$0A@@std@@@2@PAU342@0@Z 00471de0 f i User.obj
 0001:00070e90       ?LevelUpSetting@CUser@@QAEXXZ 00471e90 f   User.obj
 0001:00070ed0       ?AddEnvironment@CUser@@QAEXXZ 00471ed0 f   User.obj
 0001:00070fb0       ?SendPartyList@CUser@@QAEXXZ 00471fb0 f   User.obj
 0001:00071130       ?AddEventLuaDesc@CUser@@QAEXHV?$basic_string@DU?$char_traits@D@std@@V?$allocator@D@2@@std@@@Z 00472130 f   User.obj
 0001:00071230       ?StartCollecting@CUser@@UAEXXZ 00472230 f   User.obj
 0001:00071320       ?StopCollecting@CUser@@UAEXXZ 00472320 f   User.obj
 0001:000713b0       ?AddGC1to1TenderGuildView@CUser@@QAEXHHJAAV?$vector@U__GC1TO1TENDER@CGuildCombat1to1Mng@@V?$allocator@U__GC1TO1TENDER@CGuildCombat1to1Mng@@@std@@@std@@@Z 004723b0 f   User.obj
 0001:000714e0       ?AddGC1to1NowState@CUser@@QAEXHHH@Z 004724e0 f   User.obj
 0001:00071660       ?AddGC1to1MemberLineUpOpenWnd@CUser@@QAEXAAV?$vector@KV?$allocator@K@std@@@std@@@Z 00472660 f   User.obj
 0001:00071760       ?AddEventLuaDesc@CUser@@QAEXXZ 00472760 f   User.obj
 0001:00071800       ?ActiveCoupleBuff@CUser@@QAEXH@Z 00472800 f   User.obj
 0001:000718a0       ?GetUser@CUserMng@@QAEPAVCUser@@KK@Z 004728a0 f   User.obj
 0001:000718d0       ?AddDlgEmoticon@CUserMng@@QAEXPAVCCtrl@@H@Z 004728d0 f   User.obj
 0001:00071980       ?AddWorldShout@CUserMng@@QAEXPBD0UD3DXVECTOR3@@PAVCWorld@@@Z 00472980 f   User.obj
 0001:00071ae0       ?AddWorldCreateSfxObj@CUserMng@@QAEXKMMMHK@Z 00472ae0 f   User.obj
 0001:00071c80       ?AddSetLocalEvent@CUserMng@@QAEXFE@Z 00472c80 f   User.obj
 0001:00071da0       ?AddGameRate@CUserMng@@QAEXME@Z 00472da0 f   User.obj
 0001:00071ec0       ?AddChangeFace@CUserMng@@QAEXKK@Z 00472ec0 f   User.obj
 0001:00071fe0       ?AddCreateGuild@CUserMng@@QAEXKPBDK0@Z 00472fe0 f   User.obj
 0001:00072130       ?AddDestroyGuild@CUserMng@@QAEXPBDK@Z 00473130 f   User.obj
 0001:00072250       ?AddSetLogo@CUserMng@@QAEXKK@Z 00473250 f   User.obj
 0001:00072370       ?AddGCLogWorld@CUserMng@@QAEXXZ 00473370 f   User.obj
 0001:000726a0       ?AddGCGuildPrecedence@CUserMng@@QAEXPAVCUser@@@Z 004736a0 f   User.obj
 0001:00072910       ?AddGCPlayerPrecedence@CUserMng@@QAEXPAVCUser@@@Z 00473910 f   User.obj
 0001:00072ba0       ?AddGCSelectPlayerWindow@CUser@@QAEXAAV?$vector@U__JOINPLAYER@CGuildCombat@@V?$allocator@U__JOINPLAYER@CGuildCombat@@@std@@@std@@KHH@Z 00473ba0 f   User.obj
 0001:00072d40       ?AddGCPlayerPoint@CUser@@QAEXXZ 00473d40 f   User.obj
 0001:00072e90       ?AddReassembleOpenWnd@CUser@@QAEXV?$vector@KV?$allocator@K@std@@@std@@@Z 00473e90 f   User.obj
 0001:00072fa0       ?AddSecretRoomLineUpOpenWnd@CUser@@QAEXAAV?$vector@KV?$allocator@K@std@@@std@@@Z 00473fa0 f   User.obj
 0001:00073090       ?AddSecretRoomTenderView@CUser@@QAEXHHJAAV?$vector@U__SECRETROOM_TENDER@@V?$allocator@U__SECRETROOM_TENDER@@@std@@@std@@@Z 00474090 f   User.obj
 0001:000731c0       ?AddHousingVisitableList@CUser@@QAEXAAV?$vector@KV?$allocator@K@std@@@std@@@Z 004741c0 f   User.obj
 0001:00073280       ?DoUseItemInput@CUser@@QAEHPAUItemProp@@PAVCItemElem@@@Z 00474280 f   User.obj
 0001:000732c0       ?_Copy@?$_Tree@V?$_Tmap_traits@HHU?$less@H@std@@V?$allocator@U?$pair@$$CBHH@std@@@2@$0A@@std@@@std@@IAEXABV12@@Z 004742c0 f i User.obj
 0001:00073350       ?ProcessCouple@CUser@@QAEXXZ 00474350 f   User.obj
 0001:00073450       ?GetUserByPlayerID@CUserMng@@QAEPAVCUser@@K@Z 00474450 f   User.obj
 0001:00073490       ?DestroyPlayer@CUserMng@@QAEXPAVCUser@@@Z 00474490 f   User.obj
 0001:00073b20       ?AddGuildMsg@CUserMng@@QAEXPAVCGuild@@PBD@Z 00474b20 f   User.obj
 0001:00073ba0       ?AddEventLua@CUserMng@@QAEXEH@Z 00474ba0 f   User.obj
 0001:00073c80       ?Process@CUser@@UAEXXZ     00474c80 f   User.obj
 0001:000740f0       ?RemoveAllUsers@CUserMng@@QAEXXZ 004750f0 f   User.obj
 0001:00074180       ?RemoveUserFromCacheMsg@CUserMng@@AAEXPAVCUser@@@Z 00475180 f   User.obj
 0001:00074240       ?AddGuildMsg@CUserMng@@QAEXKPBD@Z 00475240 f   User.obj
 0001:00074270       ?AddGCRequestStatus@CUser@@QAEX_JV?$vector@U__REQUESTGUILD@CGuildCombat@@V?$allocator@U__REQUESTGUILD@CGuildCombat@@@std@@@std@@@Z 00475270 f   User.obj
 0001:00074430       ?_Incsize@?$list@PAU__JOINPLAYER@CGuildCombat@@V?$allocator@PAU__JOINPLAYER@CGuildCombat@@@std@@@std@@IAEXI@Z 00475430 f i User.obj
 0001:00074430       ?_Incsize@?$list@PAVCUser@@V?$allocator@PAVCUser@@@std@@@std@@IAEXI@Z 00475430 f i User.obj
 0001:000744d0       ?_Xlen@?$vector@U__ITEMINFO@@V?$allocator@U__ITEMINFO@@@std@@@std@@IBEXXZ 004754d0 f i User.obj
 0001:00074540       ?SetAllAction@CUser@@QAEXXZ 00475540 f   User.obj
 0001:00074690       ?RemoveUser@CUserMng@@QAEXK@Z 00475690 f   User.obj
 0001:000746f0       ?_Insert_n@?$vector@U__ITEMINFO@@V?$allocator@U__ITEMINFO@@@std@@@std@@IAEXViterator@12@IABU__ITEMINFO@@@Z 004756f0 f i User.obj
 0001:000749b0       ?AddRainbowRacePrevRankingOpenWnd@CUser@@QAEXXZ 004759b0 f   User.obj
 0001:00074ae0       ??0?$_Tree@V?$_Tmap_traits@HHU?$less@H@std@@V?$allocator@U?$pair@$$CBHH@std@@@2@$0A@@std@@@std@@QAE@ABV01@@Z 00475ae0 f i User.obj
 0001:00074b70       ?insert@?$vector@U__ITEMINFO@@V?$allocator@U__ITEMINFO@@@std@@@std@@QAE?AViterator@12@V312@ABU__ITEMINFO@@@Z 00475b70 f i User.obj
 0001:00074be0       ??1?$map@KPAVCCtrl@@U?$less@K@std@@V?$allocator@U?$pair@$$CBKPAVCCtrl@@@std@@@3@@std@@QAE@XZ 00475be0 f i User.obj
 0001:00074c10       ?RemoveItFromView2@CUser@@QAEXH@Z 00475c10 f   User.obj
 0001:00074d40       ?AddPlayerData@CUser@@QAEXXZ 00475d40 f   User.obj
 0001:00074ef0       ??1?$map@KPAVCUser@@U?$less@K@std@@V?$allocator@U?$pair@$$CBKPAVCUser@@@std@@@3@@std@@QAE@XZ 00475ef0 f i User.obj
 0001:00074f20       ??1CUserMng@@UAE@XZ        00475f20 f   User.obj
 0001:00074f60       ?AddGCGuildStatus@CUserMng@@QAEXKPAVCUser@@@Z 00475f60 f   User.obj
 0001:00075380       ?AddAddRegion@CUserMng@@QAEXKAAUREGIONELEM@@@Z 00476380 f   User.obj
 0001:00075670       ?push_back@?$vector@U__ITEMINFO@@V?$allocator@U__ITEMINFO@@@std@@@std@@QAEXABU__ITEMINFO@@@Z 00476670 f i User.obj
 0001:000756f0       ?GetName@CObj@@UAEPBDXZ    004766f0 f i User.obj
 0001:00075700       ?SetIndex@CObj@@UAEHPAUIDirect3DDevice9@@KH@Z 00476700 f i User.obj
 0001:00075720       ?SendDamage@CMover@@UAEHKKHH@Z 00476720 f i User.obj
 0001:00075750       ?SendDamageForce@CMover@@UAEHKKHH@Z 00476750 f i User.obj
 0001:00075760       ??0CUser@@QAE@KK@Z         00476760 f   User.obj
 0001:00075830       ??1CUser@@UAE@XZ           00476830 f   User.obj
 0001:00075900       ?Open@CUser@@QAEXK@Z       00476900 f   User.obj
 0001:000759f0       ??0CUserMng@@QAE@XZ        004769f0 f   User.obj
 0001:00075a30       ??_GCUserMng@@UAEPAXI@Z    00476a30 f i User.obj
 0001:00075a30       ??_ECUserMng@@UAEPAXI@Z    00476a30 f i User.obj
 0001:00075a50       ?AddUser@CUserMng@@QAEPAVCUser@@KKK@Z 00476a50 f   User.obj
 0001:00075b30       ?AddPlayer@CUserMng@@QAEHPAVCUser@@KH@Z 00476b30 f   User.obj
 0001:00075b60       ?CallTheRoll@CUserMng@@QAEXH@Z 00476b60 f   User.obj
 0001:000761a0       ?AddSecretRoomContInfo@CUser@@QAEXEEAAV?$vector@U__SECRETROOM_TENDER@@V?$allocator@U__SECRETROOM_TENDER@@@std@@@std@@H@Z 004771a0 f   User.obj
 0001:00076510       ??_GCUser@@UAEPAXI@Z       00477510 f i User.obj
 0001:00076510       ??_ECUser@@UAEPAXI@Z       00477510 f i User.obj
 0001:00076530       ?AddMiniGameExtState@CUser@@QAEXU__MINIGAME_EXT_PACKET@@@Z 00477530 f   User.obj
 0001:00076600       ?AddSetActionPoint@CUser@@QAEXH@Z 00477600 f   UserLux.obj
 0001:00076660       ?AddSetTarget@CUser@@QAEXK@Z 00477660 f   UserLux.obj
 0001:000766c0       ?AddSetStun@CUserMng@@QAEXPAVCMover@@H@Z 004776c0 f   UserLux.obj
 0001:00076830       ?AddDoApplySkill@CUserMng@@QAEXPAVCCtrl@@KKK@Z 00477830 f   UserLux.obj
 0001:000769e0       ?AddSendActMsg@CUserMng@@QAEXPAVCMover@@W4OBJMSG@@HHH@Z 004779e0 f   UserLux.obj
 0001:00076be0       ?AddPushPower@CUserMng@@QAEXPAVCMover@@UD3DXVECTOR3@@MMM@Z 00477be0 f   UserLux.obj
 0001:00076da0       ?AddRemoveSkillInfluence@CUserMng@@QAEXPAVCMover@@GG@Z 00477da0 f   UserLux.obj
 0001:00076f40       ?AddSetPosAngle@CUserMng@@QAEXPAVCCtrl@@ABUD3DXVECTOR3@@M@Z 00477f40 f   UserLux.obj
 0001:000770e0       ??$fill@PAUWANTED_ENTRY@@U1@@std@@YAXPAUWANTED_ENTRY@@0ABU1@@Z 004780e0 f i WantedListSnapshot.obj
 0001:00077110       ??$copy_backward@PAUWANTED_ENTRY@@PAU1@@std@@YAPAUWANTED_ENTRY@@PAU1@00@Z 00478110 f i WantedListSnapshot.obj
 0001:00077140       ??$_Uninit_copy@PAUWANTED_ENTRY@@PAU1@V?$allocator@UWANTED_ENTRY@@@std@@@std@@YAPAUWANTED_ENTRY@@PAU1@00AAV?$allocator@UWANTED_ENTRY@@@0@U_Nonscalar_ptr_iterator_tag@0@@Z 00478140 f i WantedListSnapshot.obj
 0001:00077170       ??$_Uninit_fill_n@PAUWANTED_ENTRY@@IU1@V?$allocator@UWANTED_ENTRY@@@std@@@std@@YAXPAUWANTED_ENTRY@@IABU1@AAV?$allocator@UWANTED_ENTRY@@@0@U_Nonscalar_ptr_iterator_tag@0@@Z 00478170 f i WantedListSnapshot.obj
 0001:000771a0       ?Write@CWantedListSnapshot@@QAEXAAVCAr@@@Z 004781a0 f   WantedListSnapshot.obj
 0001:00077260       ?GetPlayerIndex@CWantedListSnapshot@@QAEHPBD@Z 00478260 f   WantedListSnapshot.obj
 0001:000772e0       ?_Ufill@?$vector@UWANTED_ENTRY@@V?$allocator@UWANTED_ENTRY@@@std@@@std@@IAEPAUWANTED_ENTRY@@PAU3@IABU3@@Z 004782e0 f i WantedListSnapshot.obj
 0001:00077310       ??1CWantedListSnapshot@@UAE@XZ 00478310 f   WantedListSnapshot.obj
 0001:00077340       ?_Xlen@?$vector@UWANTED_ENTRY@@V?$allocator@UWANTED_ENTRY@@@std@@@std@@IBEXXZ 00478340 f i WantedListSnapshot.obj
 0001:000773b0       ??_ECWantedListSnapshot@@UAEPAXI@Z 004783b0 f i WantedListSnapshot.obj
 0001:000773b0       ??_GCWantedListSnapshot@@UAEPAXI@Z 004783b0 f i WantedListSnapshot.obj
 0001:000773d0       ?_Insert_n@?$vector@UWANTED_ENTRY@@V?$allocator@UWANTED_ENTRY@@@std@@@std@@IAEXViterator@12@IABUWANTED_ENTRY@@@Z 004783d0 f i WantedListSnapshot.obj
 0001:00077680       ?insert@?$vector@UWANTED_ENTRY@@V?$allocator@UWANTED_ENTRY@@@std@@@std@@QAE?AViterator@12@V312@ABUWANTED_ENTRY@@@Z 00478680 f i WantedListSnapshot.obj
 0001:000776f0       ?push_back@?$vector@UWANTED_ENTRY@@V?$allocator@UWANTED_ENTRY@@@std@@@std@@QAEXABUWANTED_ENTRY@@@Z 004786f0 f i WantedListSnapshot.obj
 0001:00077780       ?GetInstance@CWantedListSnapshot@@SAAAV1@XZ 00478780 f   WantedListSnapshot.obj
 0001:000777f0       ?Read@CWantedListSnapshot@@QAEXAAVCAr@@@Z 004787f0 f   WantedListSnapshot.obj
 0001:000778e0       ?Load@CWorldDialog@@AAEHXZ 004788e0 f   WorldDialog.obj
 0001:00077960       ?Init@CWorldDialog@@QAEHXZ 00478960 f   WorldDialog.obj
 0001:00077970       ?Find@CWorldDialog@@QAEHPBD0@Z 00478970 f   WorldDialog.obj
 0001:00077980       ?Run@CWorldDialog@@QAEHPBD0PAUNPCDIALOG_INFO@@@Z 00478980 f   WorldDialog.obj
 0001:00077990       ?Reload@CWorldDialog@@QAEHXZ 00478990 f   WorldDialog.obj
 0001:000779b0       ?GetInstance@CWorldDialog@@SAAAV1@XZ 004789b0 f   WorldDialog.obj
 0001:00077a00       ?InitLanguageFromResource@@YAXPAUHINSTANCE__@@@Z 00478a00 f   WorldServer.obj
 0001:00077a90       ?SetLogInfo@@YAXW4LOGTYPE@@PBDZZ 00478a90 f   WorldServer.obj
 0001:00077ad0       ?OnPaint@@YAXAAPAUHDC__@@@Z 00478ad0 f   WorldServer.obj
 0001:00077b20       ?WndProc@@YGJPAUHWND__@@IIJ@Z 00478b20 f   WorldServer.obj
 0001:00077cb0       ?ExitInstance@@YAXXZ       00478cb0 f   WorldServer.obj
 0001:00077d50       ?SetTitle@@YAXXZ           00478d50 f   WorldServer.obj
 0001:00077df0       ?MyRegisterClass@@YAGPAUHINSTANCE__@@@Z 00478df0 f   WorldServer.obj
 0001:00077e80       ?Script@@YAHPBD@Z          00478e80 f   WorldServer.obj
 0001:000782d0       ?InitInstance@@YAHPAUHINSTANCE__@@H@Z 004792d0 f   WorldServer.obj
 0001:00078560       _WinMain@16                00479560 f   WorldServer.obj
 0001:00078640       ??1CGameTimer@@QAE@XZ      00479640 f   timer.obj
 0001:00078640       ?InitAI@CAIInterface@@UAEXXZ 00479640 f   aiinterface.obj
 0001:00078640       ?Init@CShipLoop@@MAEXXZ    00479640 f   Ship.obj
 0001:00078640       ?SetTexture@CItemBase@@QAEXXZ 00479640 f   Item.obj
 0001:00078640       ?ProcessCollecting@CMover@@UAEXXZ 00479640 f   mover.obj
 0001:00078640       ??3@YAXPAX0@Z              00479640 f   Campus.obj
 0001:00078640       ?OnActLanding@CMover@@QAEXXZ 00479640 f   MoverActEvent.obj
 0001:00078640       ??1CSfxHitArray@@QAE@XZ    00479640 f   SfxHitArray.obj
 0001:00078640       ??1CGuildWar@@QAE@XZ       00479640 f   guildwar.obj
 0001:00078640       ?DoIncVoteComplete@IElection@@MAEXXZ 00479640 f   slord.obj
 0001:00078640       ?DoReturnDeposit@IElection@@MAEXXZ 00479640 f   slord.obj
 0001:00078640       ??1CCampusMember@@QAE@XZ   00479640 f   Campus.obj
 0001:00078640       ?UninitializeScriptLib@@YAXXZ 00479640 f   WScript.obj
 0001:00078640       ?ClearNormal@CModel@@UAEXXZ 00479640 f   Model.obj
 0001:00078640       ?DoEndVoteComplete@IElection@@MAEXXZ 00479640 f   slord.obj
 0001:00078640       ?Process@CObj@@UAEXXZ      00479640 f   Obj.obj
 0001:00078640       ?DoSetPlegeComplete@IElection@@MAEXXZ 00479640 f   slord.obj
 0001:00078650       ?md5@@YAXPADPBEK@Z         00479650 f   tools.obj
 0001:00078780       ?md5@@YAXPADPBD@Z          00479780 f   tools.obj
 0001:000787a0       ?MakeTutorialStateString@@YAXPADHPBD@Z 004797a0 f   tools.obj
 0001:00078820       ??0CBuffer@@QAE@K@Z        00479820 f   buffer.obj
 0001:00078890       ?GetPacketSize@CBuffer@@UAEKPAE@Z 00479890 f i buffer.obj
 0001:000788a0       ?SetHeader@CBuffer@@UAEXK@Z 004798a0 f i buffer.obj
 0001:000788d0       ?RemoveData@CBufferQueue@@QAEXK@Z 004798d0 f   buffer.obj
 0001:00078970       ?GetData@CBufferQueue@@QAEXPAU_WSABUF@@PAK@Z 00479970 f   buffer.obj
 0001:000789c0       ?GetInstance@CBufferFactory@@SAAAV1@XZ 004799c0 f   buffer.obj
 0001:000789e0       ??1CMclCritSec@@UAE@XZ     004799e0 f i buffer.obj
 0001:00078a00       ??_ECMclCritSec@@UAEPAXI@Z 00479a00 f i buffer.obj
 0001:00078a00       ??_GCMclCritSec@@UAEPAXI@Z 00479a00 f i buffer.obj
 0001:00078a30       ?GetPacketSize@CBuffer2@@UAEKPAE@Z 00479a30 f i buffer.obj
 0001:00078a50       ?SetHeader@CBuffer2@@UAEXK@Z 00479a50 f i buffer.obj
 0001:00078a80       ?AddTail@CBufferQueue@@QAEXPAVCBuffer@@@Z 00479a80 f i buffer.obj
 0001:00078ae0       ??_ECBuffer@@UAEPAXI@Z     00479ae0 f i buffer.obj
 0001:00078ae0       ??_GCBuffer@@UAEPAXI@Z     00479ae0 f i buffer.obj
 0001:00078b30       ??0CBufferQueue@@QAE@XZ    00479b30 f   buffer.obj
 0001:00078b60       ?Clear@CBufferQueue@@QAEXH@Z 00479b60 f   buffer.obj
 0001:00078c10       ?CreateBuffer@CBufferFactory@@QAEPAVCBuffer@@W4BUFFER_TYPE@@K@Z 00479c10 f   buffer.obj
 0001:00078ce0       ??_GCBuffer2@@UAEPAXI@Z    00479ce0 f i buffer.obj
 0001:00078ce0       ??_ECBuffer2@@UAEPAXI@Z    00479ce0 f i buffer.obj
 0001:00078d00       ??1CBuffer2@@UAE@XZ        00479d00 f i buffer.obj
 0001:00078d30       ??1CBufferQueue@@UAE@XZ    00479d30 f   buffer.obj
 0001:00078d90       ?AddData@CBufferQueue@@QAEXPAEKW4BUFFER_TYPE@@@Z 00479d90 f   buffer.obj
 0001:00078f00       ??_GCBufferQueue@@UAEPAXI@Z 00479f00 f i buffer.obj
 0001:00078f00       ??_ECBufferQueue@@UAEPAXI@Z 00479f00 f i buffer.obj
 0001:00078f20       ?Close@CClientSock@@UAEXXZ 00479f20 f   clientsock.obj
 0001:00078f60       ?CloseConnection@CClientSock@@UAEHI@Z 00479f60 f   clientsock.obj
 0001:00078f60       ?CloseConnection@CClientSockE@@UAEHI@Z 00479f60 f   clientsocke.obj
 0001:00078f70       ?Connect@CClientSockE@@QAEHPADG@Z 00479f70 f   clientsocke.obj
 0001:00078f70       ?Connect@CClientSock@@QAEHPADG@Z 00479f70 f   clientsock.obj
 0001:00079050       ?Recv@CClientSock@@QAEHXZ  0047a050 f   clientsock.obj
 0001:000790d0       ?Fetch@CClientSock@@QAEPAVCBuffer@@K@Z 0047a0d0 f   clientsock.obj
 0001:00079290       ?GetPeerAddr@CClientSock@@UAEJKPAXPAK@Z 0047a290 f   clientsock.obj
 0001:00079290       ?GetPeerAddr@CClientSockE@@UAEJKPAXPAK@Z 0047a290 f   clientsocke.obj
 0001:00079330       ?CreateBuffer@CClientSock@@QAEPAVCBuffer@@XZ 0047a330 f   clientsock.obj
 0001:00079350       ??0CClientSock@@QAE@W4BUFFER_TYPE@@@Z 0047a350 f   clientsock.obj
 0001:000793f0       ?Get@CSock@@UAEPAV1@I@Z    0047a3f0 f i clientsock.obj
 0001:00079410       ?GetPeerAddr@CClientSock@@UAEKK@Z 0047a410 f i clientsock.obj
 0001:00079420       ??1CClientSock@@UAE@XZ     0047a420 f   clientsock.obj
 0001:000794c0       ?Send@CClientSock@@UAEXPADKK@Z 0047a4c0 f   clientsock.obj
 0001:000795f0       ?SendRemnant@CClientSock@@QAEHK@Z 0047a5f0 f   clientsock.obj
 0001:00079700       ??_GCClientSock@@UAEPAXI@Z 0047a700 f i clientsock.obj
 0001:00079700       ??_ECClientSock@@UAEPAXI@Z 0047a700 f i clientsock.obj
 0001:00079720       ??0CClientSockE@@QAE@W4BUFFER_TYPE@@@Z 0047a720 f   clientsocke.obj
 0001:000797a0       ?Close@CClientSockE@@UAEXXZ 0047a7a0 f   clientsocke.obj
 0001:00079800       ?Create@CClientSockE@@UAEHGH@Z 0047a800 f   clientsocke.obj
 0001:00079840       ?Attach@CClientSockE@@UAEXI@Z 0047a840 f   clientsocke.obj
 0001:00079880       ?Recv@CClientSockE@@QAEHXZ 0047a880 f   clientsocke.obj
 0001:00079920       ?Fetch@CClientSockE@@QAEPAVCBuffer@@K@Z 0047a920 f   clientsocke.obj
 0001:00079a50       ?CreateBuffer@CClientSockE@@QAEPAVCBuffer@@XZ 0047aa50 f   clientsocke.obj
 0001:00079a70       ??1CClientSockE@@UAE@XZ    0047aa70 f   clientsocke.obj
 0001:00079ad0       ?Send@CClientSockE@@UAEXPADKK@Z 0047aad0 f   clientsocke.obj
 0001:00079bd0       ?SendRemnant@CClientSockE@@QAEHK@Z 0047abd0 f   clientsocke.obj
 0001:00079cf0       ??_GCClientSockE@@UAEPAXI@Z 0047acf0 f i clientsocke.obj
 0001:00079cf0       ??_ECClientSockE@@UAEPAXI@Z 0047acf0 f i clientsocke.obj
 0001:00079d10       ??0CDPMng@@QAE@XZ          0047ad10 f   DPMng.obj
 0001:00079d30       ??1CDPMng@@UAE@XZ          0047ad30 f   DPMng.obj
 0001:00079d40       ?DeleteDPObject@CDPMng@@QAEHXZ 0047ad40 f   DPMng.obj
 0001:00079db0       ?InitConnection@CDPMng@@QAEHPAXG@Z 0047adb0 f   DPMng.obj
 0001:00079dd0       ?ReceiveMessage@CDPMng@@QAEHXZ 0047add0 f   DPMng.obj
 0001:00079ee0       ?ReceiveThread@@YGIPAX@Z   0047aee0 f   DPMng.obj
 0001:00079f40       ?InitializeNetLib@@YAHXZ   0047af40 f   DPMng.obj
 0001:00079f90       ?UninitializeNetLib@@YAXXZ 0047af90 f   DPMng.obj
 0001:00079fd0       ?chWindows9x@@YAHXZ        0047afd0 f i DPMng.obj
 0001:0007a030       ??_GCDPMng@@UAEPAXI@Z      0047b030 f i DPMng.obj
 0001:0007a030       ??_ECDPMng@@UAEPAXI@Z      0047b030 f i DPMng.obj
 0001:0007a050       ?CreateDPObject@CDPMng@@QAEHH@Z 0047b050 f   DPMng.obj
 0001:0007a110       ?CreateSession@CDPMng@@QAEHPBDW4BUFFER_TYPE@@@Z 0047b110 f   DPMng.obj
 0001:0007a150       ?JoinSession@CDPMng@@QAEHPBDW4BUFFER_TYPE@@@Z 0047b150 f   DPMng.obj
 0001:0007a190       ?InitializeConnection@CDPSock@@QAEHPAXK@Z 0047b190 f   DPSock.obj
 0001:0007a1d0       ?Send@CDPSock@@QAEHPADKK@Z 0047b1d0 f   DPSock.obj
 0001:0007a200       ?Receive@CDPSock@@QAEPAVCBuffer@@XZ 0047b200 f   DPSock.obj
 0001:0007a270       ?AddCreatePlayerOrGroupMsg@CDPSock@@QAEXKPAVCBuffer@@@Z 0047b270 f   DPSock.obj
 0001:0007a300       ?AddDestroyPlayerOrGroupMsg@CDPSock@@QAEXKPAVCBuffer@@@Z 0047b300 f   DPSock.obj
 0001:0007a390       ?CloseConnection@CDPSock@@QAEXK@Z 0047b390 f   DPSock.obj
 0001:0007a3f0       ?IoWorkerThread@@YGIPAX@Z  0047b3f0 f   DPSock.obj
 0001:0007a650       ?RemoveThread@CDPSock@@QAEXPAX@Z 0047b650 f   DPSock.obj
 0001:0007a6f0       ?EventWorkerThread@@YGIPAX@Z 0047b6f0 f   DPSock.obj
 0001:0007a880       ??1?$list@PAVCJurisdiction@@V?$allocator@PAVCJurisdiction@@@std@@@std@@QAE@XZ 0047b880 f i ServerDesc.obj
 0001:0007a880       ??1?$list@PAVCGuildVote@@V?$allocator@PAVCGuildVote@@@std@@@std@@QAE@XZ 0047b880 f i guild.obj
 0001:0007a880       ??1?$list@PAXV?$allocator@PAX@std@@@std@@QAE@XZ 0047b880 f i DPSock.obj
 0001:0007a880       ??1?$list@PAU_EVENT_GENERIC@@V?$allocator@PAU_EVENT_GENERIC@@@std@@@std@@QAE@XZ 0047b880 f i spevent.obj
 0001:0007a880       ??1?$list@PAU__JOINPLAYER@CGuildCombat@@V?$allocator@PAU__JOINPLAYER@CGuildCombat@@@std@@@std@@QAE@XZ 0047b880 f i User.obj
 0001:0007a880       ??1?$list@PAVCUser@@V?$allocator@PAVCUser@@@std@@@std@@QAE@XZ 0047b880 f i User.obj
 0001:0007a8a0       ?CloseIoWorker@CDPSock@@AAEHXZ 0047b8a0 f   DPSock.obj
 0001:0007aa90       ??0CDPSock@@QAE@XZ         0047ba90 f   DPSock.obj
 0001:0007ab40       ?Close@CDPSock@@QAEHXZ     0047bb40 f   DPSock.obj
 0001:0007ab80       ?CreateServerE@CDPSock@@QAEHW4BUFFER_TYPE@@@Z 0047bb80 f   DPSock.obj
 0001:0007ac80       ??1CDPSock@@UAE@XZ         0047bc80 f   DPSock.obj
 0001:0007ad50       ??_GCDPSock@@UAEPAXI@Z     0047bd50 f i DPSock.obj
 0001:0007ad50       ??_ECDPSock@@UAEPAXI@Z     0047bd50 f i DPSock.obj
 0001:0007ad70       ?_Incsize@?$list@PAXV?$allocator@PAX@std@@@std@@IAEXI@Z 0047bd70 f i DPSock.obj
 0001:0007ae10       ?CreateIoWorker@CDPSock@@AAEHK@Z 0047be10 f   DPSock.obj
 0001:0007af20       ?CreateEventWorker@CDPSock@@QAEHPAVCSock@@@Z 0047bf20 f   DPSock.obj
 0001:0007afc0       ?CreateServer@CDPSock@@QAEHW4BUFFER_TYPE@@@Z 0047bfc0 f   DPSock.obj
 0001:0007b0d0       ?JoinToServer@CDPSock@@QAEHW4BUFFER_TYPE@@@Z 0047c0d0 f   DPSock.obj
 0001:0007b260       ?JoinToServerE@CDPSock@@QAEHW4BUFFER_TYPE@@@Z 0047c260 f   DPSock.obj
 0001:0007b3d0       ?Listen@CServerSock@@QAEHXZ 0047c3d0 f   serversock.obj
 0001:0007b410       ?ListenThread@@YGIPAX@Z    0047c410 f   serversock.obj
 0001:0007b520       ?StartServer@CServerSock@@QAEHPAPAXK@Z 0047c520 f   serversock.obj
 0001:0007b5b0       ?Shutdown@CServerSock@@UAEHI@Z 0047c5b0 f   serversock.obj
 0001:0007b640       ?GetPeerAddr@CServerSock@@UAEJKPAXPAK@Z 0047c640 f   serversock.obj
 0001:0007b740       ?GetPeerAddr@CServerSock@@UAEKK@Z 0047c740 f   serversock.obj
 0001:0007b7d0       ?_Erase@?$_Tree@V?$_Tmap_traits@KPAVCClientSock@@U?$less@K@std@@V?$allocator@U?$pair@$$CBKPAVCClientSock@@@std@@@3@$0A@@std@@@std@@IAEXPAU_Node@?$_Tree_nod@V?$_Tmap_traits@KPAVCClientSock@@U?$less@K@std@@V?$allocator@U?$pair@$$CBKPAVCClientSock@@@std@@@3@$0A@@std@@@2@@Z 0047c7d0 f i serversock.obj
 0001:0007b810       ?Send@CServerSock@@UAEXPADKK@Z 0047c810 f   serversock.obj
 0001:0007b8f0       ?CloseAllChild@CServerSock@@QAEXXZ 0047c8f0 f   serversock.obj
 0001:0007b9d0       ?Close@CServerSock@@UAEXXZ 0047c9d0 f   serversock.obj
 0001:0007ba30       ?erase@?$_Tree@V?$_Tmap_traits@KPAVCClientSock@@U?$less@K@std@@V?$allocator@U?$pair@$$CBKPAVCClientSock@@@std@@@3@$0A@@std@@@std@@QAE?AViterator@12@V312@@Z 0047ca30 f i serversock.obj
 0001:0007bcf0       ?_Insert@?$_Tree@V?$_Tmap_traits@KPAVCClientSock@@U?$less@K@std@@V?$allocator@U?$pair@$$CBKPAVCClientSock@@@std@@@3@$0A@@std@@@std@@IAE?AViterator@12@_NPAU_Node@?$_Tree_nod@V?$_Tmap_traits@KPAVCClientSock@@U?$less@K@std@@V?$allocator@U?$pair@$$CBKPAVCClientSock@@@std@@@3@$0A@@std@@@2@ABU?$pair@$$CBKPAVCClientSock@@@2@@Z 0047ccf0 f i serversock.obj
 0001:0007bea0       ?erase@?$_Tree@V?$_Tmap_traits@KPAVCClientSock@@U?$less@K@std@@V?$allocator@U?$pair@$$CBKPAVCClientSock@@@std@@@3@$0A@@std@@@std@@QAE?AViterator@12@V312@0@Z 0047cea0 f i serversock.obj
 0001:0007bf60       ?CloseChild@CServerSock@@QAEHI@Z 0047cf60 f   serversock.obj
 0001:0007c020       ?CloseConnection@CServerSock@@UAEHI@Z 0047d020 f   serversock.obj
 0001:0007c030       ?insert@?$_Tree@V?$_Tmap_traits@KPAVCClientSock@@U?$less@K@std@@V?$allocator@U?$pair@$$CBKPAVCClientSock@@@std@@@3@$0A@@std@@@std@@QAE?AU?$pair@Viterator@?$_Tree@V?$_Tmap_traits@KPAVCClientSock@@U?$less@K@std@@V?$allocator@U?$pair@$$CBKPAVCClientSock@@@std@@@3@$0A@@std@@@std@@_N@2@ABU?$pair@$$CBKPAVCClientSock@@@2@@Z 0047d030 f i serversock.obj
 0001:0007c0f0       ?AddChild@CServerSock@@QAEPAVCClientSock@@I@Z 0047d0f0 f   serversock.obj
 0001:0007c190       ?AllocAndAssoc@CServerSock@@QAEHIK@Z 0047d190 f   serversock.obj
 0001:0007c200       ??1CMapChild@@UAE@XZ       0047d200 f i serversock.obj
 0001:0007c250       ??_GCMapChild@@UAEPAXI@Z   0047d250 f i serversock.obj
 0001:0007c250       ??_ECMapChild@@UAEPAXI@Z   0047d250 f i serversock.obj
 0001:0007c270       ??0CServerSock@@QAE@W4BUFFER_TYPE@@@Z 0047d270 f   serversock.obj
 0001:0007c310       ??1CServerSock@@UAE@XZ     0047d310 f   serversock.obj
 0001:0007c3b0       ??_GCServerSock@@UAEPAXI@Z 0047d3b0 f i serversock.obj
 0001:0007c3b0       ??_ECServerSock@@UAEPAXI@Z 0047d3b0 f i serversock.obj
 0001:0007c3d0       ?Listen@CServerSockE@@QAEHXZ 0047d3d0 f   serversocke.obj
 0001:0007c410       ?GetPeerAddr@CServerSockE@@UAEJKPAXPAK@Z 0047d410 f   serversocke.obj
 0001:0007c4d0       ?_Erase@?$_Tree@V?$_Tmap_traits@KPAVCClientSockE@@U?$less@K@std@@V?$allocator@U?$pair@$$CBKPAVCClientSockE@@@std@@@3@$0A@@std@@@std@@IAEXPAU_Node@?$_Tree_nod@V?$_Tmap_traits@KPAVCClientSockE@@U?$less@K@std@@V?$allocator@U?$pair@$$CBKPAVCClientSockE@@@std@@@3@$0A@@std@@@2@@Z 0047d4d0 f i serversocke.obj
 0001:0007c510       ?Send@CServerSockE@@UAEXPADKK@Z 0047d510 f   serversocke.obj
 0001:0007c5f0       ?CloseAllChild@CServerSockE@@QAEXXZ 0047d5f0 f   serversocke.obj
 0001:0007c6c0       ?Close@CServerSockE@@UAEXXZ 0047d6c0 f   serversocke.obj
 0001:0007c720       ?erase@?$_Tree@V?$_Tmap_traits@KPAVCClientSockE@@U?$less@K@std@@V?$allocator@U?$pair@$$CBKPAVCClientSockE@@@std@@@3@$0A@@std@@@std@@QAE?AViterator@12@V312@@Z 0047d720 f i serversocke.obj
 0001:0007c9e0       ?_Insert@?$_Tree@V?$_Tmap_traits@KPAVCClientSockE@@U?$less@K@std@@V?$allocator@U?$pair@$$CBKPAVCClientSockE@@@std@@@3@$0A@@std@@@std@@IAE?AViterator@12@_NPAU_Node@?$_Tree_nod@V?$_Tmap_traits@KPAVCClientSockE@@U?$less@K@std@@V?$allocator@U?$pair@$$CBKPAVCClientSockE@@@std@@@3@$0A@@std@@@2@ABU?$pair@$$CBKPAVCClientSockE@@@2@@Z 0047d9e0 f i serversocke.obj
 0001:0007cb90       ?erase@?$_Tree@V?$_Tmap_traits@KPAVCClientSockE@@U?$less@K@std@@V?$allocator@U?$pair@$$CBKPAVCClientSockE@@@std@@@3@$0A@@std@@@std@@QAE?AViterator@12@V312@0@Z 0047db90 f i serversocke.obj
 0001:0007cc50       ?CloseChild@CServerSockE@@QAEHI@Z 0047dc50 f   serversocke.obj
 0001:0007cd10       ?CloseConnection@CServerSockE@@UAEHI@Z 0047dd10 f   serversocke.obj
 0001:0007cd20       ?insert@?$_Tree@V?$_Tmap_traits@KPAVCClientSockE@@U?$less@K@std@@V?$allocator@U?$pair@$$CBKPAVCClientSockE@@@std@@@3@$0A@@std@@@std@@QAE?AU?$pair@Viterator@?$_Tree@V?$_Tmap_traits@KPAVCClientSockE@@U?$less@K@std@@V?$allocator@U?$pair@$$CBKPAVCClientSockE@@@std@@@3@$0A@@std@@@std@@_N@2@ABU?$pair@$$CBKPAVCClientSockE@@@2@@Z 0047dd20 f i serversocke.obj
 0001:0007cde0       ?AddChild@CServerSockE@@QAEPAVCClientSockE@@I@Z 0047dde0 f   serversocke.obj
 0001:0007ce80       ?ListenThreadE@@YGIPAX@Z   0047de80 f   serversocke.obj
 0001:0007cfa0       ?StartServer@CServerSockE@@QAEHPAVCDPSock@@@Z 0047dfa0 f   serversocke.obj
 0001:0007d000       ??1CMapChildE@@UAE@XZ      0047e000 f i serversocke.obj
 0001:0007d050       ??_GCMapChildE@@UAEPAXI@Z  0047e050 f i serversocke.obj
 0001:0007d050       ??_ECMapChildE@@UAEPAXI@Z  0047e050 f i serversocke.obj
 0001:0007d070       ??0CServerSockE@@QAE@W4BUFFER_TYPE@@@Z 0047e070 f   serversocke.obj
 0001:0007d110       ?Get@CServerSock@@UAEPAVCSock@@I@Z 0047e110 f i serversock.obj
 0001:0007d110       ?Get@CServerSockE@@UAEPAVCSock@@I@Z 0047e110 f i serversocke.obj
 0001:0007d150       ??1CServerSockE@@UAE@XZ    0047e150 f   serversocke.obj
 0001:0007d1f0       ??_GCServerSockE@@UAEPAXI@Z 0047e1f0 f i serversocke.obj
 0001:0007d1f0       ??_ECServerSockE@@UAEPAXI@Z 0047e1f0 f i serversocke.obj
 0001:0007d210       ??0CSock@@QAE@XZ           0047e210 f   Sock.obj
 0001:0007d230       ?Clear@CSock@@QAEXXZ       0047e230 f   Sock.obj
 0001:0007d260       ?Attach@CSock@@UAEXI@Z     0047e260 f   Sock.obj
 0001:0007d2a0       ?Detach@CSock@@UAEXXZ      0047e2a0 f   Sock.obj
 0001:0007d2b0       ?GetHostAddr@CSock@@UAEJPAXPAK@Z 0047e2b0 f   Sock.obj
 0001:0007d360       ??1CSock@@UAE@XZ           0047e360 f   Sock.obj
 0001:0007d3a0       ?Create@CSock@@UAEHGH@Z    0047e3a0 f   Sock.obj
 0001:0007d4b0       ??_GCSock@@UAEPAXI@Z       0047e4b0 f i Sock.obj
 0001:0007d4b0       ??_ECSock@@UAEPAXI@Z       0047e4b0 f i Sock.obj
 0001:0007d500       ??0CAr@@QAE@PAXI@Z         0047e500 f   ar.obj
 0001:0007d550       ?Read@CAr@@QAEXPAXI@Z      0047e550 f   ar.obj
 0001:0007d5b0       ?CheckBuf@CAr@@QAEXI@Z     0047e5b0 f   ar.obj
 0001:0007d640       ?GetBuffer@CAr@@QAEPAEPAH@Z 0047e640 f   ar.obj
 0001:0007d660       ?Flush@CAr@@QAEXXZ         0047e660 f   ar.obj
 0001:0007d670       ?ReelIn@CAr@@QAEXI@Z       0047e670 f   ar.obj
 0001:0007d6b0       ??1CAr@@QAE@XZ             0047e6b0 f   ar.obj
 0001:0007d6e0       ?Write@CAr@@QAEXPBXI@Z     0047e6e0 f   ar.obj
 0001:0007d720       ?WriteString@CAr@@QAEXPBD@Z 0047e720 f   ar.obj
 0001:0007d780       ?ReadString@CAr@@QAEPADPAD@Z 0047e780 f   ar.obj
 0001:0007d7c0       ?ReadString@CAr@@QAEPADPADH@Z 0047e7c0 f   ar.obj
 0001:0007d830       ?Malloc@CHeapMng@@QAEPAXI@Z 0047e830 f   heapmng.obj
 0001:0007d850       ?Free@CHeapMng@@QAEXPAX@Z  0047e850 f   heapmng.obj
 0001:0007d870       ?Realloc@CHeapMng@@QAEPAXPAXI@Z 0047e870 f   heapmng.obj
 0001:0007d890       ??0CHeapMng@@QAE@XZ        0047e890 f   heapmng.obj
 0001:0007d8c0       ??_ECHeapMng@@UAEPAXI@Z    0047e8c0 f i heapmng.obj
 0001:0007d8c0       ??_GCHeapMng@@UAEPAXI@Z    0047e8c0 f i heapmng.obj
 0001:0007d8f0       ??_GCJurisdiction@@UAEPAXI@Z 0047e8f0 f i ServerDesc.obj
 0001:0007d8f0       ??_ECJurisdiction@@UAEPAXI@Z 0047e8f0 f i ServerDesc.obj
 0001:0007d910       ??0CServerDesc@@QAE@XZ     0047e910 f   ServerDesc.obj
 0001:0007d940       ??1CServerDesc@@UAE@XZ     0047e940 f   ServerDesc.obj
 0001:0007d9f0       ??_GCServerDesc@@UAEPAXI@Z 0047e9f0 f i ServerDesc.obj
 0001:0007d9f0       ??_ECServerDesc@@UAEPAXI@Z 0047e9f0 f i ServerDesc.obj
 0001:0007da10       ?_Incsize@?$list@PAVCJurisdiction@@V?$allocator@PAVCJurisdiction@@@std@@@std@@IAEXI@Z 0047ea10 f i ServerDesc.obj
 0001:0007dab0       ?Serialize@CServerDesc@@QAEXAAVCAr@@@Z 0047eab0 f   ServerDesc.obj
 0001:0007dd00       ?_Erase@?$_Tree@V?$_Tmap_traits@KPAV?$vector@U_SINGLE_DST@@V?$allocator@U_SINGLE_DST@@@std@@@std@@U?$less@K@2@V?$allocator@U?$pair@$$CBKPAV?$vector@U_SINGLE_DST@@V?$allocator@U_SINGLE_DST@@@std@@@std@@@std@@@2@$0A@@std@@@std@@IAEXPAU_Node@?$_Tree_nod@V?$_Tmap_traits@KPAV?$vector@U_SINGLE_DST@@V?$allocator@U_SINGLE_DST@@@std@@@std@@U?$less@K@2@V?$allocator@U?$pair@$$CBKPAV?$vector@U_SINGLE_DST@@V?$allocator@U_SINGLE_DST@@@std@@@std@@@std@@@2@$0A@@std@@@2@@Z 0047ed00 f i accessory.obj
 0001:0007dd40       ?IsAccessory@CAccessoryProperty@@QAEHK@Z 0047ed40 f   accessory.obj
 0001:0007dd70       ?GetDst@CAccessoryProperty@@QAEPAV?$vector@U_SINGLE_DST@@V?$allocator@U_SINGLE_DST@@@std@@@std@@KH@Z 0047ed70 f   accessory.obj
 0001:0007ddb0       ?_Insert@?$_Tree@V?$_Tmap_traits@KPAV?$vector@U_SINGLE_DST@@V?$allocator@U_SINGLE_DST@@@std@@@std@@U?$less@K@2@V?$allocator@U?$pair@$$CBKPAV?$vector@U_SINGLE_DST@@V?$allocator@U_SINGLE_DST@@@std@@@std@@@std@@@2@$0A@@std@@@std@@IAE?AViterator@12@_NPAU_Node@?$_Tree_nod@V?$_Tmap_traits@KPAV?$vector@U_SINGLE_DST@@V?$allocator@U_SINGLE_DST@@@std@@@std@@U?$less@K@2@V?$allocator@U?$pair@$$CBKPAV?$vector@U_SINGLE_DST@@V?$allocator@U_SINGLE_DST@@@std@@@std@@@std@@@2@$0A@@std@@@2@ABU?$pair@$$CBKPAV?$vector@U_SINGLE_DST@@V?$allocator@U_SINGLE_DST@@@std@@@std@@@2@@Z 0047edb0 f i accessory.obj
 0001:0007df60       ?_Xlen@?$vector@U_SINGLE_DST@@V?$allocator@U_SINGLE_DST@@@std@@@std@@IBEXXZ 0047ef60 f i accessory.obj
 0001:0007dfd0       ?erase@?$_Tree@V?$_Tmap_traits@KPAV?$vector@U_SINGLE_DST@@V?$allocator@U_SINGLE_DST@@@std@@@std@@U?$less@K@2@V?$allocator@U?$pair@$$CBKPAV?$vector@U_SINGLE_DST@@V?$allocator@U_SINGLE_DST@@@std@@@std@@@std@@@2@$0A@@std@@@std@@QAE?AViterator@12@V312@@Z 0047efd0 f i accessory.obj
 0001:0007e290       ?insert@?$_Tree@V?$_Tmap_traits@KPAV?$vector@U_SINGLE_DST@@V?$allocator@U_SINGLE_DST@@@std@@@std@@U?$less@K@2@V?$allocator@U?$pair@$$CBKPAV?$vector@U_SINGLE_DST@@V?$allocator@U_SINGLE_DST@@@std@@@std@@@std@@@2@$0A@@std@@@std@@QAE?AU?$pair@Viterator@?$_Tree@V?$_Tmap_traits@KPAV?$vector@U_SINGLE_DST@@V?$allocator@U_SINGLE_DST@@@std@@@std@@U?$less@K@2@V?$allocator@U?$pair@$$CBKPAV?$vector@U_SINGLE_DST@@V?$allocator@U_SINGLE_DST@@@std@@@std@@@std@@@2@$0A@@std@@@std@@_N@2@ABU?$pair@$$CBKPAV?$vector@U_SINGLE_DST@@V?$allocator@U_SINGLE_DST@@@std@@@std@@@2@@Z 0047f290 f i accessory.obj
 0001:0007e350       ?erase@?$_Tree@V?$_Tmap_traits@KPAV?$vector@U_SINGLE_DST@@V?$allocator@U_SINGLE_DST@@@std@@@std@@U?$less@K@2@V?$allocator@U?$pair@$$CBKPAV?$vector@U_SINGLE_DST@@V?$allocator@U_SINGLE_DST@@@std@@@std@@@std@@@2@$0A@@std@@@std@@QAE?AViterator@12@V312@0@Z 0047f350 f i accessory.obj
 0001:0007e410       ?_Insert_n@?$vector@U_SINGLE_DST@@V?$allocator@U_SINGLE_DST@@@std@@@std@@IAEXViterator@12@IABU_SINGLE_DST@@@Z 0047f410 f i accessory.obj
 0001:0007e660       ??1?$map@KPAV?$vector@U_SINGLE_DST@@V?$allocator@U_SINGLE_DST@@@std@@@std@@U?$less@K@2@V?$allocator@U?$pair@$$CBKPAV?$vector@U_SINGLE_DST@@V?$allocator@U_SINGLE_DST@@@std@@@std@@@std@@@2@@std@@QAE@XZ 0047f660 f i accessory.obj
 0001:0007e690       ??1CAccessoryProperty@@UAE@XZ 0047f690 f   accessory.obj
 0001:0007e790       ?LoadScript@CAccessoryProperty@@QAEHPBD@Z 0047f790 f   accessory.obj
 0001:0007ea90       ??_ECAccessoryProperty@@UAEPAXI@Z 0047fa90 f i accessory.obj
 0001:0007ea90       ??_GCAccessoryProperty@@UAEPAXI@Z 0047fa90 f i accessory.obj
 0001:0007eab0       ?GetInstance@CAccessoryProperty@@SAPAV1@XZ 0047fab0 f   accessory.obj
 0001:0007eb50       ??4IBuff@@UAEAAV0@ABV0@@Z  0047fb50 f   buff.obj
 0001:0007eb90       ?Expire@IBuff@@AAEHPAVCMover@@K@Z 0047fb90 f   buff.obj
 0001:0007ebd0       ?IsCommon@IBuffItemBase@@UAEHXZ 0047fbd0 f   buff.obj
 0001:0007ebf0       ?HasChrState@IBuffItemBase@@UAEHPAVCMover@@K@Z 0047fbf0 f   buff.obj
 0001:0007ec30       ?IsDebuf@IBuffItemBase@@UAEHPAVCMover@@@Z 0047fc30 f   buff.obj
 0001:0007ec50       ?IsIk1@CBuffItem@@UAEHK@Z  0047fc50 f   buff.obj
 0001:0007ec70       ?IsIk3@CBuffItem@@UAEHK@Z  0047fc70 f   buff.obj
 0001:0007ec90       ?Apply@CBuffItem@@MAEXPAVCMover@@@Z 0047fc90 f   buff.obj
 0001:0007ecb0       ?IsRemovable@CBuffItem@@UAEHPAVCMover@@@Z 0047fcb0 f   buff.obj
 0001:0007ece0       ?GetDisguise@IBuff@@UAEKXZ 0047fce0 f i buff.obj
 0001:0007ecf0       ?TextCmd_RemoveMail@@YAHAAVCScanner@@@Z 0047fcf0 f i FuncTextCmd.obj
 0001:0007ecf0       ?TextCmd_RainbowRaceReqFininsh@@YAHAAVCScanner@@@Z 0047fcf0 f i FuncTextCmd.obj
 0001:0007ecf0       ?TextCmd_SecretRoomTenderView@@YAHAAVCScanner@@@Z 0047fcf0 f i FuncTextCmd.obj
 0001:0007ecf0       ?TextCmd_SecretRoomTenderCancelReturn@@YAHAAVCScanner@@@Z 0047fcf0 f i FuncTextCmd.obj
 0001:0007ecf0       ?TextCmd_RemoveJewel@@YAHAAVCScanner@@@Z 0047fcf0 f i FuncTextCmd.obj
 0001:0007ecf0       ?TextCmd_BuyGuildHouse@@YAHAAVCScanner@@@Z 0047fcf0 f i FuncTextCmd.obj
 0001:0007ecf0       ?LoadAIScript@@YAHXZ       0047fcf0 f i AIMonster2.obj
 0001:0007ecf0       ?TextCmd_SmeltSafetyElement@@YAHAAVCScanner@@@Z 0047fcf0 f i FuncTextCmd.obj
 0001:0007ecf0       ?TextCmd_GuildHouseUpkeep@@YAHAAVCScanner@@@Z 0047fcf0 f i FuncTextCmd.obj
 0001:0007ecf0       ?TextCmd_PostMail@@YAHAAVCScanner@@@Z 0047fcf0 f i FuncTextCmd.obj
 0001:0007ecf0       ?TextCmd_RainbowRaceTyping@@YAHAAVCScanner@@@Z 0047fcf0 f i FuncTextCmd.obj
 0001:0007ecf0       ?TextCmd_RainbowRaceApp@@YAHAAVCScanner@@@Z 0047fcf0 f i FuncTextCmd.obj
 0001:0007ecf0       ?TextCmd_DestroyGuild@@YAHAAVCScanner@@@Z 0047fcf0 f i FuncTextCmd.obj
 0001:0007ecf0       ?TextCmd_QuizEventEnterance@@YAHAAVCScanner@@@Z 0047fcf0 f i FuncTextCmd.obj
 0001:0007ecf0       ?TextCmd_PropMonster@@YAHAAVCScanner@@@Z 0047fcf0 f i FuncTextCmd.obj
 0001:0007ecf0       ?TextCmd_LEventCreate@@YAHAAVCScanner@@@Z 0047fcf0 f i FuncTextCmd.obj
 0001:0007ecf0       ?TextCmd_JoinParty@@YAHAAVCScanner@@@Z 0047fcf0 f i FuncTextCmd.obj
 0001:0007ecf0       ?TextCmd_ElectionAddDeposit@@YAHAAVCScanner@@@Z 0047fcf0 f i FuncTextCmd.obj
 0001:0007ecf0       ?TextCmd_LSkill@@YAHAAVCScanner@@@Z 0047fcf0 f i FuncTextCmd.obj
 0001:0007ecf0       ?IsCommon@IBuff@@UAEHXZ    0047fcf0 f i buff.obj
 0001:0007ecf0       ?TextCmd_MoveItem_Pocket@@YAHAAVCScanner@@@Z 0047fcf0 f i FuncTextCmd.obj
 0001:0007ecf0       ?TextCmd_MakePetFeed@@YAHAAVCScanner@@@Z 0047fcf0 f i FuncTextCmd.obj
 0001:0007ecf0       ?InitializeScriptLib@@YAHXZ 0047fcf0 f i WScript.obj
 0001:0007ecf0       ?TextCmd_TransEggs@@YAHAAVCScanner@@@Z 0047fcf0 f i FuncTextCmd.obj
 0001:0007ecf0       ?TextCmd_RainbowRaceLadder@@YAHAAVCScanner@@@Z 0047fcf0 f i FuncTextCmd.obj
 0001:0007ecf0       ?TextCmd_RainbowRaceArithmetic@@YAHAAVCScanner@@@Z 0047fcf0 f i FuncTextCmd.obj
 0001:0007ecf0       ?TextCmd_SecretRoomLineUp@@YAHAAVCScanner@@@Z 0047fcf0 f i FuncTextCmd.obj
 0001:0007ecf0       ?TextCmd_GetMailItem@@YAHAAVCScanner@@@Z 0047fcf0 f i FuncTextCmd.obj
 0001:0007ecf0       ?TextCmd_RemoveAttribute@@YAHAAVCScanner@@@Z 0047fcf0 f i FuncTextCmd.obj
 0001:0007ecf0       ?TextCmd_Close@@YAHAAVCScanner@@@Z 0047fcf0 f i FuncTextCmd.obj
 0001:0007ecf0       ?TextCmd_AvailPocket@@YAHAAVCScanner@@@Z 0047fcf0 f i FuncTextCmd.obj
 0001:0007ecf0       ?TextCmd_ElectionSetPledge@@YAHAAVCScanner@@@Z 0047fcf0 f i FuncTextCmd.obj
 0001:0007ecf0       ?TextCmd_Open@@YAHAAVCScanner@@@Z 0047fcf0 f i FuncTextCmd.obj
 0001:0007ecf0       ?TextCmd_Time@@YAHAAVCScanner@@@Z 0047fcf0 f i FuncTextCmd.obj
 0001:0007ecf0       ?TextCmd_ElectionIncVote@@YAHAAVCScanner@@@Z 0047fcf0 f i FuncTextCmd.obj
 0001:0007ecf0       ?TextCmd_JobName@@YAHAAVCScanner@@@Z 0047fcf0 f i FuncTextCmd.obj
 0001:0007ecf0       ?TextCmd_RainbowRaceStopWatch@@YAHAAVCScanner@@@Z 0047fcf0 f i FuncTextCmd.obj
 0001:0007ecf0       ?TextCmd_RainbowRaceCard@@YAHAAVCScanner@@@Z 0047fcf0 f i FuncTextCmd.obj
 0001:0007ecf0       ?TextCmd_RainbowRaceKawiBawiBo@@YAHAAVCScanner@@@Z 0047fcf0 f i FuncTextCmd.obj
 0001:0007ecf0       ?TextCmd_GetMailGold@@YAHAAVCScanner@@@Z 0047fcf0 f i FuncTextCmd.obj
 0001:0007ecf0       ?TextCmd_ElectionRequirement@@YAHAAVCScanner@@@Z 0047fcf0 f i FuncTextCmd.obj
 0001:0007ecf0       ?TextCmd_PickupPetAwakeningCancel@@YAHAAVCScanner@@@Z 0047fcf0 f i FuncTextCmd.obj
 0001:0007ecf0       ?TextCmd_SecretRoomTender@@YAHAAVCScanner@@@Z 0047fcf0 f i FuncTextCmd.obj
 0001:0007ecf0       ?TextCmd_ElectionState@@YAHAAVCScanner@@@Z 0047fcf0 f i FuncTextCmd.obj
 0001:0007ecf0       ?CompileItemScript@@YAHPBD@Z 0047fcf0 f i ItemScript.obj
 0001:0007ecf0       ?TextCmd_Position@@YAHAAVCScanner@@@Z 0047fcf0 f i FuncTextCmd.obj
 0001:0007ecf0       ?TextCmd_SecretRoomEntrance@@YAHAAVCScanner@@@Z 0047fcf0 f i FuncTextCmd.obj
 0001:0007ecf0       ?TextCmd_ClearPetName@@YAHAAVCScanner@@@Z 0047fcf0 f i FuncTextCmd.obj
 0001:0007ecf0       ?TextCmd_CreatePc@@YAHAAVCScanner@@@Z 0047fcf0 f i FuncTextCmd.obj
 0001:0007ecf0       ?TextCmd_HousingVisitRoom@@YAHAAVCScanner@@@Z 0047fcf0 f i FuncTextCmd.obj
 0001:0007ecf0       ?TextCmd_RainbowRaceDice@@YAHAAVCScanner@@@Z 0047fcf0 f i FuncTextCmd.obj
 0001:0007ecf0       ?TextCmd_HeavenTower@@YAHAAVCScanner@@@Z 0047fcf0 f i FuncTextCmd.obj
 0001:0007ed00       ??_EIBuff@@UAEPAXI@Z       0047fd00 f i buff.obj
 0001:0007ed00       ??_GIBuff@@UAEPAXI@Z       0047fd00 f i buff.obj
 0001:0007ed20       ??0CBuffItem@@QAE@XZ       0047fd20 f i buff.obj
 0001:0007ed50       ??_GCBuffEquip@@UAEPAXI@Z  0047fd50 f i buff.obj
 0001:0007ed50       ??_ECBuffItem2@@UAEPAXI@Z  0047fd50 f i buff.obj
 0001:0007ed50       ??_ECBuffEquip@@UAEPAXI@Z  0047fd50 f i buff.obj
 0001:0007ed50       ??_GCBuffSkill@@UAEPAXI@Z  0047fd50 f i buff.obj
 0001:0007ed50       ??_GCBuffItem2@@UAEPAXI@Z  0047fd50 f i buff.obj
 0001:0007ed50       ??_GCBuffItem@@UAEPAXI@Z   0047fd50 f i buff.obj
 0001:0007ed50       ??_GCBuffPet@@UAEPAXI@Z    0047fd50 f i buff.obj
 0001:0007ed50       ??_ECBuffPet@@UAEPAXI@Z    0047fd50 f i buff.obj
 0001:0007ed50       ??_ECBuffSkill@@UAEPAXI@Z  0047fd50 f i buff.obj
 0001:0007ed50       ??_ECBuffItem@@UAEPAXI@Z   0047fd50 f i buff.obj
 0001:0007ed70       ??1CBuffItem2@@UAE@XZ      0047fd70 f i buff.obj
 0001:0007ed70       ??1CBuffPet@@UAE@XZ        0047fd70 f i buff.obj
 0001:0007ed70       ??1CBuffItem@@UAE@XZ       0047fd70 f i buff.obj
 0001:0007ed70       ??1CBuffSkill@@UAE@XZ      0047fd70 f i buff.obj
 0001:0007ed70       ??1CBuffEquip@@UAE@XZ      0047fd70 f i buff.obj
 0001:0007ed80       ??0CBuffSkill@@QAE@XZ      0047fd80 f i buff.obj
 0001:0007edb0       ??0CBuffPet@@QAE@XZ        0047fdb0 f i buff.obj
 0001:0007ede0       ??0CBuffItem2@@QAE@XZ      0047fde0 f i buff.obj
 0001:0007ee10       ??0CBuffEquip@@QAE@XZ      0047fe10 f i buff.obj
 0001:0007ee40       ?TextCmd_CommercialElem@@YAHAAVCScanner@@@Z 0047fe40 f i FuncTextCmd.obj
 0001:0007ee40       ?IsReturnToBegin@CAIInterface@@UAEHXZ 0047fe40 f i AIBear.obj
 0001:0007ee40       ?IsCommon@CBuffEquip@@UAEHXZ 0047fe40 f i buff.obj
 0001:0007ee40       ?TextCmd_RemoveGuildMember@@YAHAAVCScanner@@@Z 0047fe40 f i FuncTextCmd.obj
 0001:0007ee40       ?GetPropA@IBuff@@UAEPAUItemProp@@XZ 0047fe40 f i buff.obj
 0001:0007ee40       ?IsAttrHit@CModel@@UAEKXZ  0047fe40 f i Model.obj
 0001:0007ee40       ?RestoreDeviceObjects@CModel@@UAEJXZ 0047fe40 f i Model.obj
 0001:0007ee40       ?_TRACE@CLuaBase@@SAHPAUlua_State@@@Z 0047fe40 f i LuaBase.obj
 0001:0007ee40       ?InvalidateDeviceObjects@CModel@@UAEJXZ 0047fe40 f i Model.obj
 0001:0007ee40       ?IsAttrSound@CModel@@UAEPAUMOTION_ATTR@@XZ 0047fe40 f i Model.obj
 0001:0007ee40       ?IsAttrQuake@CModel@@UAEKXZ 0047fe40 f i Model.obj
 0001:0007ee40       ?DeleteDeviceObjects@CModel@@UAEJXZ 0047fe40 f i Model.obj
 0001:0007ee40       ?IsHaveCollObj@CModel@@UAEHXZ 0047fe40 f i Model.obj
 0001:0007ee40       ?IsLoadAttr@CModel@@UAEHXZ 0047fe40 f i Model.obj
 0001:0007ee40       ?TextCmd_DeclWar@@YAHAAVCScanner@@@Z 0047fe40 f i FuncTextCmd.obj
 0001:0007ee40       ?GetController@CLord@@UAEPAVCLController@@XZ 0047fe40 f i slord.obj
 0001:0007ee40       ?IsCommon@CBuffPet@@UAEHXZ 0047fe40 f i buff.obj
 0001:0007ee50       ??$fill@PAJJ@std@@YAXPAJ0ABJ@Z 0047fe50 f i buff.obj
 0001:0007ee50       ??$fill@PAMM@std@@YAXPAM0ABM@Z 0047fe50 f i lord.obj
 0001:0007ee50       ??$fill@PAHH@std@@YAXPAH0ABH@Z 0047fe50 f i CampusHelper.obj
 0001:0007ee50       ??$fill@PAPAVCObj@@PAV1@@std@@YAXPAPAVCObj@@0ABQAV1@@Z 0047fe50 f i worldfile.obj
 0001:0007ee50       ??$fill@PAPAVCMiniGameBase@@PAV1@@std@@YAXPAPAVCMiniGameBase@@0ABQAV1@@Z 0047fe50 f i RainbowRace.obj
 0001:0007ee50       ??$fill@PAPAVCRangda@@PAV1@@std@@YAXPAPAVCRangda@@0ABQAV1@@Z 0047fe50 f i rangda.obj
 0001:0007ee50       ??$fill@PAKK@std@@YAXPAK0ABK@Z 0047fe50 f i Campus.obj
 0001:0007ee50       ??$fill@PAPAU__GuildCombatMember@CGuildCombat@@PAU12@@std@@YAXPAPAU__GuildCombatMember@CGuildCombat@@0ABQAU12@@Z 0047fe50 f i eveschool.obj
 0001:0007ee50       ??$fill@PAPAVCMail@@PAV1@@std@@YAXPAPAVCMail@@0ABQAV1@@Z 0047fe50 f i post.obj
 0001:0007ee50       ??$fill@PAPAU__JOINPLAYER@CGuildCombat@@PAU12@@std@@YAXPAPAU__JOINPLAYER@CGuildCombat@@0ABQAU12@@Z 0047fe50 f i eveschool.obj
 0001:0007ee50       ??$fill@PAPAVCLEComponent@@PAV1@@std@@YAXPAPAVCLEComponent@@0ABQAV1@@Z 0047fe50 f i lord.obj
 0001:0007ee50       ??$fill@PAPAVCLordSkillComponentExecutable@@PAV1@@std@@YAXPAPAVCLordSkillComponentExecutable@@0ABQAV1@@Z 0047fe50 f i lordskill.obj
 0001:0007ee50       ??$fill@PAPAVCCouple@@PAV1@@std@@YAXPAPAVCCouple@@0ABQAV1@@Z 0047fe50 f i couple.obj
 0001:0007ee70       ??$copy_backward@PAPAU__GuildCombatMember@CGuildCombat@@PAPAU12@@std@@YAPAPAU__GuildCombatMember@CGuildCombat@@PAPAU12@00@Z 0047fe70 f i eveschool.obj
 0001:0007ee70       ??$copy_backward@PAJPAJ@std@@YAPAJPAJ00@Z 0047fe70 f i buff.obj
 0001:0007ee70       ??$copy_backward@PAPAVCRangda@@PAPAV1@@std@@YAPAPAVCRangda@@PAPAV1@00@Z 0047fe70 f i rangda.obj
 0001:0007ee70       ??$copy_backward@PAPAVCObj@@PAPAV1@@std@@YAPAPAVCObj@@PAPAV1@00@Z 0047fe70 f i worldfile.obj
 0001:0007ee70       ??$copy_backward@PAPAU__JOINPLAYER@CGuildCombat@@PAPAU12@@std@@YAPAPAU__JOINPLAYER@CGuildCombat@@PAPAU12@00@Z 0047fe70 f i eveschool.obj
 0001:0007ee70       ??$copy_backward@PAHPAH@std@@YAPAHPAH00@Z 0047fe70 f i CampusHelper.obj
 0001:0007ee70       ??$copy_backward@PAKPAK@std@@YAPAKPAK00@Z 0047fe70 f i Campus.obj
 0001:0007ee70       ??$copy_backward@PAPAVCMiniGameBase@@PAPAV1@@std@@YAPAPAVCMiniGameBase@@PAPAV1@00@Z 0047fe70 f i RainbowRace.obj
 0001:0007ee70       ??$copy_backward@PAMPAM@std@@YAPAMPAM00@Z 0047fe70 f i lord.obj
 0001:0007ee70       ??$copy_backward@PAPAVCMail@@PAPAV1@@std@@YAPAPAVCMail@@PAPAV1@00@Z 0047fe70 f i post.obj
 0001:0007ee70       ??$copy_backward@PAPAVCLordSkillComponentExecutable@@PAPAV1@@std@@YAPAPAVCLordSkillComponentExecutable@@PAPAV1@00@Z 0047fe70 f i lordskill.obj
 0001:0007ee70       ??$copy_backward@PAPAVCCouple@@PAPAV1@@std@@YAPAPAVCCouple@@PAPAV1@00@Z 0047fe70 f i couple.obj
 0001:0007ee70       ??$copy_backward@PAPAVCLEComponent@@PAPAV1@@std@@YAPAPAVCLEComponent@@PAPAV1@00@Z 0047fe70 f i lord.obj
 0001:0007eea0       ?IsAddable@IBuff@@UAEHPAVCMover@@@Z 0047fea0 f   buff.obj
 0001:0007eeb0       ?SerializeLevel@IBuff@@UAEXAAVCAr@@@Z 0047feb0 f   buff.obj
 0001:0007ef20       ?Timeover@IBuff@@MAEHPAVCMover@@K@Z 0047ff20 f   buff.obj
 0001:0007ef40       ?Process@IBuff@@UAEHPAVCMover@@K@Z 0047ff40 f   buff.obj
 0001:0007efa0       ?GetDisguise@CBuffItem@@UAEKXZ 0047ffa0 f   buff.obj
 0001:0007f010       ?OnExpire@CBuffItem@@UAEXPAVCMover@@@Z 00480010 f   buff.obj
 0001:0007f050       ?IsInvalid@CBuffSkill@@MAEHPAVCMover@@@Z 00480050 f   buff.obj
 0001:0007f300       ?Apply@CBuffSkill@@MAEXPAVCMover@@@Z 00480300 f   buff.obj
 0001:0007f350       ?Release@CBuffSkill@@UAEXPAVCBuffMgr@@@Z 00480350 f   buff.obj
 0001:0007f370       ?IsRemovable@CBuffSkill@@UAEHPAVCMover@@@Z 00480370 f   buff.obj
 0001:0007f3c0       ?IsAddable@CBuffSkill@@UAEHPAVCMover@@@Z 004803c0 f   buff.obj
 0001:0007f410       ?IsGood@CBuffSkill@@UAEHPAVCMover@@@Z 00480410 f   buff.obj
 0001:0007f460       ?HasChrState@CBuffSkill@@UAEHPAVCMover@@K@Z 00480460 f   buff.obj
 0001:0007f4c0       ?HasDstParam@CBuffSkill@@UAEHPAVCMover@@K@Z 004804c0 f   buff.obj
 0001:0007f530       ?IsDebuf@CBuffSkill@@UAEHPAVCMover@@@Z 00480530 f   buff.obj
 0001:0007f580       ?IsAttacker@CBuffSkill@@UAEHPAVCMover@@K@Z 00480580 f   buff.obj
 0001:0007f5e0       ?Apply@CBuffPet@@MAEXPAVCMover@@@Z 004805e0 f   buff.obj
 0001:0007f600       ?Release@CBuffPet@@MAEXPAVCBuffMgr@@@Z 00480600 f   buff.obj
 0001:0007f620       ?Timeover@CBuffItem2@@UAEHPAVCMover@@K@Z 00480620 f   buff.obj
 0001:0007f670       ?SerializeLevel@CBuffItem2@@UAEXAAVCAr@@@Z 00480670 f   buff.obj
 0001:0007f6e0       ?CreateBuff@CBuffMgr@@UAEPAVIBuff@@G@Z 004806e0 f   buff.obj
 0001:0007f7c0       ??$_Ucopy@PAJ@?$vector@JV?$allocator@J@std@@@std@@IAEPAJPAJ00@Z 004807c0 f i buff.obj
 0001:0007f7c0       ??$_Ucopy@PAPAVCCouple@@@?$vector@PAVCCouple@@V?$allocator@PAVCCouple@@@std@@@std@@IAEPAPAVCCouple@@PAPAV2@00@Z 004807c0 f i couple.obj
 0001:0007f7c0       ??$_Ucopy@PAK@?$vector@KV?$allocator@K@std@@@std@@IAEPAKPAK00@Z 004807c0 f i Campus.obj
 0001:0007f7c0       ??$_Ucopy@PAPAVCLEComponent@@@?$vector@PAVCLEComponent@@V?$allocator@PAVCLEComponent@@@std@@@std@@IAEPAPAVCLEComponent@@PAPAV2@00@Z 004807c0 f i lord.obj
 0001:0007f7c0       ??$_Ucopy@PAPAVCMail@@@?$vector@PAVCMail@@V?$allocator@PAVCMail@@@std@@@std@@IAEPAPAVCMail@@PAPAV2@00@Z 004807c0 f i post.obj
 0001:0007f7c0       ??$_Ucopy@PAPAVCLordSkillComponentExecutable@@@?$vector@PAVCLordSkillComponentExecutable@@V?$allocator@PAVCLordSkillComponentExecutable@@@std@@@std@@IAEPAPAVCLordSkillComponentExecutable@@PAPAV2@00@Z 004807c0 f i lordskill.obj
 0001:0007f7c0       ??$_Ucopy@PAPAVCMiniGameBase@@@?$vector@PAVCMiniGameBase@@V?$allocator@PAVCMiniGameBase@@@std@@@std@@IAEPAPAVCMiniGameBase@@PAPAV2@00@Z 004807c0 f i RainbowRace.obj
 0001:0007f7c0       ??$_Ucopy@PAPAU__JOINPLAYER@CGuildCombat@@@?$vector@PAU__JOINPLAYER@CGuildCombat@@V?$allocator@PAU__JOINPLAYER@CGuildCombat@@@std@@@std@@IAEPAPAU__JOINPLAYER@CGuildCombat@@PAPAU23@00@Z 004807c0 f i eveschool.obj
 0001:0007f7c0       ??$_Ucopy@PAPAVCObj@@@?$vector@PAVCObj@@V?$allocator@PAVCObj@@@std@@@std@@IAEPAPAVCObj@@PAPAV2@00@Z 004807c0 f i worldfile.obj
 0001:0007f7c0       ??$_Ucopy@PAPAU__GuildCombatMember@CGuildCombat@@@?$vector@PAU__GuildCombatMember@CGuildCombat@@V?$allocator@PAU__GuildCombatMember@CGuildCombat@@@std@@@std@@IAEPAPAU__GuildCombatMember@CGuildCombat@@PAPAU23@00@Z 004807c0 f i eveschool.obj
 0001:0007f7c0       ??$_Ucopy@PAM@?$vector@MV?$allocator@M@std@@@std@@IAEPAMPAM00@Z 004807c0 f i lord.obj
 0001:0007f7c0       ??$_Ucopy@PAH@?$vector@HV?$allocator@H@std@@@std@@IAEPAHPAH00@Z 004807c0 f i CampusHelper.obj
 0001:0007f7c0       ??$_Ucopy@PAPAVCRangda@@@?$vector@PAVCRangda@@V?$allocator@PAVCRangda@@@std@@@std@@IAEPAPAVCRangda@@PAPAV2@00@Z 004807c0 f i rangda.obj
 0001:0007f7f0       ?SetTotal@IBuff@@QAEXK@Z   004807f0 f   buff.obj
 0001:0007f850       ?AddTotal@IBuff@@UAEXK@Z   00480850 f   buff.obj
 0001:0007f870       ?Serialize@IBuff@@UAEXAAVCAr@@PAVCMover@@@Z 00480870 f   buff.obj
 0001:0007f970       ?GetPropA@IBuffItemBase@@UAEPAUItemProp@@XZ 00480970 f   buff.obj
 0001:0007f9b0       ?AddTotal@CBuffItem@@UAEXK@Z 004809b0 f   buff.obj
 0001:0007fa10       ?GetPropA@CBuffSkill@@UAEPAUItemProp@@XZ 00480a10 f   buff.obj
 0001:0007fa50       ?OnExpire@CBuffSkill@@UAEXPAVCMover@@@Z 00480a50 f   buff.obj
 0001:0007fae0       ?_Erase@?$_Tree@V?$_Tmap_traits@KPAVIBuff@@U?$less@K@std@@V?$allocator@U?$pair@$$CBKPAVIBuff@@@std@@@3@$0A@@std@@@std@@IAEXPAU_Node@?$_Tree_nod@V?$_Tmap_traits@KPAVIBuff@@U?$less@K@std@@V?$allocator@U?$pair@$$CBKPAVIBuff@@@std@@@3@$0A@@std@@@2@@Z 00480ae0 f i buff.obj
 0001:0007fb20       ?Replace@?$CStringT@DV?$StrTraitMFC@DV?$ChTraitsCRT@D@ATL@@@@@ATL@@QAEHDD@Z 00480b20 f i buff.obj
 0001:0007fbe0       ?Clear@CBuffMgr@@QAEXXZ    00480be0 f   buff.obj
 0001:0007fc70       ?GetBuff@CBuffMgr@@QAEPAVIBuff@@GG@Z 00480c70 f   buff.obj
 0001:0007fcb0       ?GetBuffByIk3@CBuffMgr@@QAEPAVIBuff@@K@Z 00480cb0 f   buff.obj
 0001:0007fd00       ?HasBuffByIk3@CBuffMgr@@QAEHK@Z 00480d00 f   buff.obj
 0001:0007fd20       ?IsBSFull@CBuffMgr@@AAEHXZ 00480d20 f   buff.obj
 0001:0007fd60       ?GetFirstBS@CBuffMgr@@AAEPAVIBuff@@XZ 00480d60 f   buff.obj
 0001:0007fdb0       ?GetBuffPet@CBuffMgr@@QAEPAVIBuff@@XZ 00480db0 f   buff.obj
 0001:0007fde0       ?GetRemoveBuffSize@CBuffMgr@@AAEIXZ 00480de0 f   buff.obj
 0001:0007fe20       ?HasBuff@CBuffMgr@@QAEHGG@Z 00480e20 f   buff.obj
 0001:0007fe80       ?_Insert@?$_Tree@V?$_Tmap_traits@KPAVIBuff@@U?$less@K@std@@V?$allocator@U?$pair@$$CBKPAVIBuff@@@std@@@3@$0A@@std@@@std@@IAE?AViterator@12@_NPAU_Node@?$_Tree_nod@V?$_Tmap_traits@KPAVIBuff@@U?$less@K@std@@V?$allocator@U?$pair@$$CBKPAVIBuff@@@std@@@3@$0A@@std@@@2@ABU?$pair@$$CBKPAVIBuff@@@2@@Z 00480e80 f i buff.obj
 0001:00080030       ?_Xlen@?$vector@JV?$allocator@J@std@@@std@@IBEXXZ 00481030 f i buff.obj
 0001:000800a0       ?erase@?$_Tree@V?$_Tmap_traits@KPAVIBuff@@U?$less@K@std@@V?$allocator@U?$pair@$$CBKPAVIBuff@@@std@@@3@$0A@@std@@@std@@QAE?AViterator@12@V312@@Z 004810a0 f i buff.obj
 0001:00080360       ?insert@?$_Tree@V?$_Tmap_traits@KPAVIBuff@@U?$less@K@std@@V?$allocator@U?$pair@$$CBKPAVIBuff@@@std@@@3@$0A@@std@@@std@@QAE?AU?$pair@Viterator@?$_Tree@V?$_Tmap_traits@KPAVIBuff@@U?$less@K@std@@V?$allocator@U?$pair@$$CBKPAVIBuff@@@std@@@3@$0A@@std@@@std@@_N@2@ABU?$pair@$$CBKPAVIBuff@@@2@@Z 00481360 f i buff.obj
 0001:00080420       ?_Insert_n@?$vector@JV?$allocator@J@std@@@std@@IAEXViterator@12@IABJ@Z 00481420 f i buff.obj
 0001:00080600       ?erase@?$_Tree@V?$_Tmap_traits@KPAVIBuff@@U?$less@K@std@@V?$allocator@U?$pair@$$CBKPAVIBuff@@@std@@@3@$0A@@std@@@std@@QAE?AViterator@12@V312@0@Z 00481600 f i buff.obj
 0001:000806c0       ?Add@CBuffMgr@@AAE_NPAVIBuff@@@Z 004816c0 f i buff.obj
 0001:00080700       ?erase@?$_Tree@V?$_Tmap_traits@KPAVIBuff@@U?$less@K@std@@V?$allocator@U?$pair@$$CBKPAVIBuff@@@std@@@3@$0A@@std@@@std@@QAEIABK@Z 00481700 f i buff.obj
 0001:00080760       ??1?$map@KPAVIBuff@@U?$less@K@std@@V?$allocator@U?$pair@$$CBKPAVIBuff@@@std@@@3@@std@@QAE@XZ 00481760 f i buff.obj
 0001:00080790       ??1CBuffMgr@@UAE@XZ        00481790 f   buff.obj
 0001:00080810       ?GetTickCount@CBuffMgr@@MAEKXZ 00481810 f i buff.obj
 0001:00080820       ?RemoveBuff@CBuffMgr@@QAEXPAVIBuff@@H@Z 00481820 f   buff.obj
 0001:000808c0       ?RemoveBuff@CBuffMgr@@QAEXGGH@Z 004818c0 f   buff.obj
 0001:00080910       ?Process@CBuffMgr@@QAEXXZ  00481910 f   buff.obj
 0001:00080b50       ?RemoveBuffs@CBuffMgr@@QAEXKK@Z 00481b50 f   buff.obj
 0001:00080d70       ?RemoveBuffPet@CBuffMgr@@QAEXXZ 00481d70 f   buff.obj
 0001:00080dd0       ?Serialize@CBuffMgr@@QAEXAAVCAr@@@Z 00481dd0 f   buff.obj
 0001:00080ee0       ?Release@IBuffItemBase@@UAEXPAVCBuffMgr@@@Z 00481ee0 f   buff.obj
 0001:00081180       ??0CBuffMgr@@QAE@PAVCMover@@@Z 00482180 f   buff.obj
 0001:000811d0       ??_ECBuffMgr@@UAEPAXI@Z    004821d0 f i buff.obj
 0001:000811d0       ??_GCBuffMgr@@UAEPAXI@Z    004821d0 f i buff.obj
 0001:000811f0       ?Overwrite@CBuffMgr@@AAEHPAVIBuff@@@Z 004821f0 f   buff.obj
 0001:00081260       ?AddBuff@CBuffMgr@@IAEHPAVIBuff@@@Z 00482260 f   buff.obj
 0001:00081330       ?AddBuff@CBuffMgr@@QAEHGGKKK@Z 00482330 f   buff.obj
 0001:00081390       ?FindChattingMember@CChatting@@QAEHK@Z 00482390 f   Chatting.obj
 0001:000813c0       ?AddChattingMember@CChatting@@QAEHK@Z 004823c0 f   Chatting.obj
 0001:00081410       ?RemoveChattingMember@CChatting@@QAEHK@Z 00482410 f   Chatting.obj
 0001:00081480       ?_Erase@?$_Tree@V?$_Tmap_traits@KPAVCChatting@@U?$less@K@std@@V?$allocator@U?$pair@$$CBKPAVCChatting@@@std@@@3@$0A@@std@@@std@@IAEXPAU_Node@?$_Tree_nod@V?$_Tmap_traits@KPAVCChatting@@U?$less@K@std@@V?$allocator@U?$pair@$$CBKPAVCChatting@@@std@@@3@$0A@@std@@@2@@Z 00482480 f i Chatting.obj
 0001:000814c0       ?Clear@CChattingMng@@QAEXXZ 004824c0 f   Chatting.obj
 0001:00081540       ?GetChttingRoom@CChattingMng@@QAEPAVCChatting@@K@Z 00482540 f   Chatting.obj
 0001:00081570       ?_Insert@?$_Tree@V?$_Tmap_traits@KPAVCChatting@@U?$less@K@std@@V?$allocator@U?$pair@$$CBKPAVCChatting@@@std@@@3@$0A@@std@@@std@@IAE?AViterator@12@_NPAU_Node@?$_Tree_nod@V?$_Tmap_traits@KPAVCChatting@@U?$less@K@std@@V?$allocator@U?$pair@$$CBKPAVCChatting@@@std@@@3@$0A@@std@@@2@ABU?$pair@$$CBKPAVCChatting@@@2@@Z 00482570 f i Chatting.obj
 0001:00081720       ?erase@?$_Tree@V?$_Tmap_traits@KPAVCChatting@@U?$less@K@std@@V?$allocator@U?$pair@$$CBKPAVCChatting@@@std@@@3@$0A@@std@@@std@@QAE?AViterator@12@V312@@Z 00482720 f i Chatting.obj
 0001:000819e0       ?insert@?$_Tree@V?$_Tmap_traits@KPAVCChatting@@U?$less@K@std@@V?$allocator@U?$pair@$$CBKPAVCChatting@@@std@@@3@$0A@@std@@@std@@QAE?AU?$pair@Viterator@?$_Tree@V?$_Tmap_traits@KPAVCChatting@@U?$less@K@std@@V?$allocator@U?$pair@$$CBKPAVCChatting@@@std@@@3@$0A@@std@@@std@@_N@2@ABU?$pair@$$CBKPAVCChatting@@@2@@Z 004829e0 f i Chatting.obj
 0001:00081aa0       ?erase@?$_Tree@V?$_Tmap_traits@KPAVCChatting@@U?$less@K@std@@V?$allocator@U?$pair@$$CBKPAVCChatting@@@std@@@3@$0A@@std@@@std@@QAE?AViterator@12@V312@0@Z 00482aa0 f i Chatting.obj
 0001:00081b60       ?NewChattingRoom@CChattingMng@@QAEKK@Z 00482b60 f   Chatting.obj
 0001:00081c30       ?erase@?$_Tree@V?$_Tmap_traits@KPAVCChatting@@U?$less@K@std@@V?$allocator@U?$pair@$$CBKPAVCChatting@@@std@@@3@$0A@@std@@@std@@QAEIABK@Z 00482c30 f i Chatting.obj
 0001:00081c90       ??1?$map@KPAVCChatting@@U?$less@K@std@@V?$allocator@U?$pair@$$CBKPAVCChatting@@@std@@@3@@std@@QAE@XZ 00482c90 f i Chatting.obj
 0001:00081cc0       ??1CChattingMng@@QAE@XZ    00482cc0 f   Chatting.obj
 0001:00081d30       ?DeleteChattingRoom@CChattingMng@@QAEHK@Z 00482d30 f   Chatting.obj
 0001:00081d90       ?GetCool@CCollectingProperty@@QAEHH@Z 00482d90 f   collecting.obj
 0001:00081dc0       ?GetItem@CCollectingProperty@@QAEKXZ 00482dc0 f   collecting.obj
 0001:00081e20       ?GetEnchantProbability@CCollectingProperty@@QAEHH@Z 00482e20 f   collecting.obj
 0001:00081e50       ??1CCollectingProperty@@UAE@XZ 00482e50 f   collecting.obj
 0001:00081eb0       ?_Xlen@?$vector@U_COLLECTING_ITEM@@V?$allocator@U_COLLECTING_ITEM@@@std@@@std@@IBEXXZ 00482eb0 f i collecting.obj
 0001:00081f20       ??_GCCollectingProperty@@UAEPAXI@Z 00482f20 f i collecting.obj
 0001:00081f20       ??_ECCollectingProperty@@UAEPAXI@Z 00482f20 f i collecting.obj
 0001:00081f40       ?_Insert_n@?$vector@U_COLLECTING_ITEM@@V?$allocator@U_COLLECTING_ITEM@@@std@@@std@@IAEXViterator@12@IABU_COLLECTING_ITEM@@@Z 00482f40 f i collecting.obj
 0001:00082190       ?GetInstance@CCollectingProperty@@SAPAV1@XZ 00483190 f   collecting.obj
 0001:00082220       ?LoadScript@CCollectingProperty@@QAEHPBD@Z 00483220 f   collecting.obj
 0001:00082560       ?IsValidObj@CContinent@@SAHPAVCMover@@@Z 00483560 f   Continent.obj
 0001:00082590       ?GetRevivalPos@CContinent@@QAE?AUD3DXVECTOR3@@E@Z 00483590 f   Continent.obj
 0001:00082740       ?_Inc@const_iterator@?$_Tree@V?$_Tmap_traits@EV?$vector@U__SPAWNINFO@CEventLua@@V?$allocator@U__SPAWNINFO@CEventLua@@@std@@@std@@U?$less@E@2@V?$allocator@U?$pair@$$CBEV?$vector@U__SPAWNINFO@CEventLua@@V?$allocator@U__SPAWNINFO@CEventLua@@@std@@@std@@@std@@@2@$0A@@std@@@std@@QAEXXZ 00483740 f i EventLua.obj
 0001:00082740       ?_Inc@const_iterator@?$_Tree@V?$_Tmap_traits@KV?$vector@UCOOLTIME_INFO@@V?$allocator@UCOOLTIME_INFO@@@std@@@std@@U?$less@K@2@V?$allocator@U?$pair@$$CBKV?$vector@UCOOLTIME_INFO@@V?$allocator@UCOOLTIME_INFO@@@std@@@std@@@std@@@2@$0A@@std@@@std@@QAEXXZ 00483740 f i InstanceDungeonBase.obj
 0001:00082740       ?_Inc@const_iterator@?$_Tree@V?$_Tmap_traits@KV?$vector@U__MONSTERSKILL@@V?$allocator@U__MONSTERSKILL@@@std@@@std@@U?$less@K@2@V?$allocator@U?$pair@$$CBKV?$vector@U__MONSTERSKILL@@V?$allocator@U__MONSTERSKILL@@@std@@@std@@@std@@@2@$0A@@std@@@std@@QAEXXZ 00483740 f i aimonster.obj
 0001:00082740       ?_Inc@const_iterator@?$_Tree@V?$_Tmap_traits@EV?$vector@VCPoint@@V?$allocator@VCPoint@@@std@@@std@@U?$less@E@2@V?$allocator@U?$pair@$$CBEV?$vector@VCPoint@@V?$allocator@VCPoint@@@std@@@std@@@std@@@2@$0A@@std@@@std@@QAEXXZ 00483740 f i Continent.obj
 0001:00082740       ?_Inc@const_iterator@?$_Tree@V?$_Tmap_traits@KV?$vector@U_VECINFO@@V?$allocator@U_VECINFO@@@std@@@std@@U?$less@K@2@V?$allocator@U?$pair@$$CBKV?$vector@U_VECINFO@@V?$allocator@U_VECINFO@@@std@@@std@@@std@@@2@$0A@@std@@@std@@QAEXXZ 00483740 f i PathObj.obj
 0001:00082740       ?_Inc@const_iterator@?$_Tree@V?$_Tmap_traits@KV?$vector@KV?$allocator@K@std@@@std@@U?$less@K@2@V?$allocator@U?$pair@$$CBKV?$vector@KV?$allocator@K@std@@@std@@@std@@@2@$0A@@std@@@std@@QAEXXZ 00483740 f i Housing.obj
 0001:00082740       ?_Inc@const_iterator@?$_Tree@V?$_Tmap_traits@KV?$vector@UINSTACNEDUNGEON_INFO@@V?$allocator@UINSTACNEDUNGEON_INFO@@@std@@@std@@U?$less@K@2@V?$allocator@U?$pair@$$CBKV?$vector@UINSTACNEDUNGEON_INFO@@V?$allocator@UINSTACNEDUNGEON_INFO@@@std@@@std@@@std@@@2@$0A@@std@@@std@@QAEXXZ 00483740 f i InstanceDungeonBase.obj
 0001:00082740       ?_Inc@const_iterator@?$_Tree@V?$_Tmap_traits@HU__ATTRIBUTE_ENCHANT@@U?$less@H@std@@V?$allocator@U?$pair@$$CBHU__ATTRIBUTE_ENCHANT@@@std@@@3@$0A@@std@@@std@@QAEXXZ 00483740 f i ItemUpgrade.obj
 0001:00082740       ?_Inc@const_iterator@?$_Tree@V?$_Tmap_traits@HU__CHAOS_GEM@@U?$less@H@std@@V?$allocator@U?$pair@$$CBHU__CHAOS_GEM@@@std@@@3@$0A@@std@@@std@@QAEXXZ 00483740 f i ItemUpgrade.obj
 0001:000827a0       ??$copy@PAU__REQUESTGUILD@CGuildCombat@@PAU12@@std@@YAPAU__REQUESTGUILD@CGuildCombat@@PAU12@00@Z 004837a0 f i eveschool.obj
 0001:000827a0       ??$copy@PAU__POINT@CExchange@@PAU12@@std@@YAPAU__POINT@CExchange@@PAU12@00@Z 004837a0 f i Exchange.obj
 0001:000827a0       ??$copy@Viterator@?$vector@U_AdjData@@V?$allocator@U_AdjData@@@std@@@std@@PAU_AdjData@@@std@@YAPAU_AdjData@@Viterator@?$vector@U_AdjData@@V?$allocator@U_AdjData@@@std@@@0@0PAU1@@Z 004837a0 f i randomoption.obj
 0001:000827a0       ??$copy@PAVCPoint@@PAV1@@std@@YAPAVCPoint@@PAV1@00@Z 004837a0 f i Continent.obj
 0001:000827a0       ??$copy@PAU_AdjData@@PAU1@@std@@YAPAU_AdjData@@PAU1@00@Z 004837a0 f i randomoption.obj
 0001:000827d0       ?_Buynode@?$_Tree@V?$_Tmap_traits@EV?$vector@U__SPAWNINFO@CEventLua@@V?$allocator@U__SPAWNINFO@CEventLua@@@std@@@std@@U?$less@E@2@V?$allocator@U?$pair@$$CBEV?$vector@U__SPAWNINFO@CEventLua@@V?$allocator@U__SPAWNINFO@CEventLua@@@std@@@std@@@std@@@2@$0A@@std@@@std@@IAEPAU_Node@?$_Tree_nod@V?$_Tmap_traits@EV?$vector@U__SPAWNINFO@CEventLua@@V?$allocator@U__SPAWNINFO@CEventLua@@@std@@@std@@U?$less@E@2@V?$allocator@U?$pair@$$CBEV?$vector@U__SPAWNINFO@CEventLua@@V?$allocator@U__SPAWNINFO@CEventLua@@@std@@@std@@@std@@@2@$0A@@std@@@2@XZ 004837d0 f i EventLua.obj
 0001:000827d0       ?_Buynode@?$_Tree@V?$_Tmap_traits@KV?$vector@KV?$allocator@K@std@@@std@@U?$less@K@2@V?$allocator@U?$pair@$$CBKV?$vector@KV?$allocator@K@std@@@std@@@std@@@2@$0A@@std@@@std@@IAEPAU_Node@?$_Tree_nod@V?$_Tmap_traits@KV?$vector@KV?$allocator@K@std@@@std@@U?$less@K@2@V?$allocator@U?$pair@$$CBKV?$vector@KV?$allocator@K@std@@@std@@@std@@@2@$0A@@std@@@2@XZ 004837d0 f i Housing.obj
 0001:000827d0       ?_Buynode@?$_Tree@V?$_Tmap_traits@KV?$vector@UINSTACNEDUNGEON_INFO@@V?$allocator@UINSTACNEDUNGEON_INFO@@@std@@@std@@U?$less@K@2@V?$allocator@U?$pair@$$CBKV?$vector@UINSTACNEDUNGEON_INFO@@V?$allocator@UINSTACNEDUNGEON_INFO@@@std@@@std@@@std@@@2@$0A@@std@@@std@@IAEPAU_Node@?$_Tree_nod@V?$_Tmap_traits@KV?$vector@UINSTACNEDUNGEON_INFO@@V?$allocator@UINSTACNEDUNGEON_INFO@@@std@@@std@@U?$less@K@2@V?$allocator@U?$pair@$$CBKV?$vector@UINSTACNEDUNGEON_INFO@@V?$allocator@UINSTACNEDUNGEON_INFO@@@std@@@std@@@std@@@2@$0A@@std@@@2@XZ 004837d0 f i InstanceDungeonBase.obj
 0001:000827d0       ?_Buynode@?$_Tree@V?$_Tmap_traits@HU__ATTRIBUTE_ENCHANT@@U?$less@H@std@@V?$allocator@U?$pair@$$CBHU__ATTRIBUTE_ENCHANT@@@std@@@3@$0A@@std@@@std@@IAEPAU_Node@?$_Tree_nod@V?$_Tmap_traits@HU__ATTRIBUTE_ENCHANT@@U?$less@H@std@@V?$allocator@U?$pair@$$CBHU__ATTRIBUTE_ENCHANT@@@std@@@3@$0A@@std@@@2@XZ 004837d0 f i ItemUpgrade.obj
 0001:000827d0       ?_Buynode@?$_Tree@V?$_Tmap_traits@EV?$vector@VCPoint@@V?$allocator@VCPoint@@@std@@@std@@U?$less@E@2@V?$allocator@U?$pair@$$CBEV?$vector@VCPoint@@V?$allocator@VCPoint@@@std@@@std@@@std@@@2@$0A@@std@@@std@@IAEPAU_Node@?$_Tree_nod@V?$_Tmap_traits@EV?$vector@VCPoint@@V?$allocator@VCPoint@@@std@@@std@@U?$less@E@2@V?$allocator@U?$pair@$$CBEV?$vector@VCPoint@@V?$allocator@VCPoint@@@std@@@std@@@std@@@2@$0A@@std@@@2@XZ 004837d0 f i Continent.obj
 0001:000827d0       ?_Buynode@?$_Tree@V?$_Tmap_traits@KV?$vector@UCOOLTIME_INFO@@V?$allocator@UCOOLTIME_INFO@@@std@@@std@@U?$less@K@2@V?$allocator@U?$pair@$$CBKV?$vector@UCOOLTIME_INFO@@V?$allocator@UCOOLTIME_INFO@@@std@@@std@@@std@@@2@$0A@@std@@@std@@IAEPAU_Node@?$_Tree_nod@V?$_Tmap_traits@KV?$vector@UCOOLTIME_INFO@@V?$allocator@UCOOLTIME_INFO@@@std@@@std@@U?$less@K@2@V?$allocator@U?$pair@$$CBKV?$vector@UCOOLTIME_INFO@@V?$allocator@UCOOLTIME_INFO@@@std@@@std@@@std@@@2@$0A@@std@@@2@XZ 004837d0 f i InstanceDungeonBase.obj
 0001:000827d0       ?_Buynode@?$_Tree@V?$_Tmap_traits@KV?$vector@U__MONSTERSKILL@@V?$allocator@U__MONSTERSKILL@@@std@@@std@@U?$less@K@2@V?$allocator@U?$pair@$$CBKV?$vector@U__MONSTERSKILL@@V?$allocator@U__MONSTERSKILL@@@std@@@std@@@std@@@2@$0A@@std@@@std@@IAEPAU_Node@?$_Tree_nod@V?$_Tmap_traits@KV?$vector@U__MONSTERSKILL@@V?$allocator@U__MONSTERSKILL@@@std@@@std@@U?$less@K@2@V?$allocator@U?$pair@$$CBKV?$vector@U__MONSTERSKILL@@V?$allocator@U__MONSTERSKILL@@@std@@@std@@@std@@@2@$0A@@std@@@2@XZ 004837d0 f i aimonster.obj
 0001:000827d0       ?_Buynode@?$_Tree@V?$_Tmap_traits@KV?$vector@U_VECINFO@@V?$allocator@U_VECINFO@@@std@@@std@@U?$less@K@2@V?$allocator@U?$pair@$$CBKV?$vector@U_VECINFO@@V?$allocator@U_VECINFO@@@std@@@std@@@std@@@2@$0A@@std@@@std@@IAEPAU_Node@?$_Tree_nod@V?$_Tmap_traits@KV?$vector@U_VECINFO@@V?$allocator@U_VECINFO@@@std@@@std@@U?$less@K@2@V?$allocator@U?$pair@$$CBKV?$vector@U_VECINFO@@V?$allocator@U_VECINFO@@@std@@@std@@@std@@@2@$0A@@std@@@2@XZ 004837d0 f i PathObj.obj
 0001:000827d0       ?_Buynode@?$_Tree@V?$_Tmap_traits@HU__CHAOS_GEM@@U?$less@H@std@@V?$allocator@U?$pair@$$CBHU__CHAOS_GEM@@@std@@@3@$0A@@std@@@std@@IAEPAU_Node@?$_Tree_nod@V?$_Tmap_traits@HU__CHAOS_GEM@@U?$less@H@std@@V?$allocator@U?$pair@$$CBHU__CHAOS_GEM@@@std@@@3@$0A@@std@@@2@XZ 004837d0 f i ItemUpgrade.obj
 0001:00082810       ??$_Uninit_fill_n@PAU_AdjData@@IU1@V?$allocator@U_AdjData@@@std@@@std@@YAXPAU_AdjData@@IABU1@AAV?$allocator@U_AdjData@@@0@U_Nonscalar_ptr_iterator_tag@0@@Z 00483810 f i randomoption.obj
 0001:00082810       ??$_Uninit_fill_n@PAU_TransformItemElement@@IU1@V?$allocator@U_TransformItemElement@@@std@@@std@@YAXPAU_TransformItemElement@@IABU1@AAV?$allocator@U_TransformItemElement@@@0@U_Nonscalar_ptr_iterator_tag@0@@Z 00483810 f i pet.obj
 0001:00082810       ??$_Uninit_fill_n@PAU__POINT@CExchange@@IU12@V?$allocator@U__POINT@CExchange@@@std@@@std@@YAXPAU__POINT@CExchange@@IABU12@AAV?$allocator@U__POINT@CExchange@@@0@U_Nonscalar_ptr_iterator_tag@0@@Z 00483810 f i Exchange.obj
 0001:00082810       ??$_Uninit_fill_n@PAU__REQUESTGUILD@CGuildCombat@@IU12@V?$allocator@U__REQUESTGUILD@CGuildCombat@@@std@@@std@@YAXPAU__REQUESTGUILD@CGuildCombat@@IABU12@AAV?$allocator@U__REQUESTGUILD@CGuildCombat@@@0@U_Nonscalar_ptr_iterator_tag@0@@Z 00483810 f i eveschool.obj
 0001:00082810       ??$_Uninit_fill_n@PAU_COLLECTING_ITEM@@IU1@V?$allocator@U_COLLECTING_ITEM@@@std@@@std@@YAXPAU_COLLECTING_ITEM@@IABU1@AAV?$allocator@U_COLLECTING_ITEM@@@0@U_Nonscalar_ptr_iterator_tag@0@@Z 00483810 f i collecting.obj
 0001:00082810       ??$_Uninit_fill_n@PAU_LayerStruct@@IU1@V?$allocator@U_LayerStruct@@@std@@@std@@YAXPAU_LayerStruct@@IABU1@AAV?$allocator@U_LayerStruct@@@0@U_Nonscalar_ptr_iterator_tag@0@@Z 00483810 f i ticket.obj
 0001:00082810       ??$_Uninit_fill_n@PAVCPoint@@IV1@V?$allocator@VCPoint@@@std@@@std@@YAXPAVCPoint@@IABV1@AAV?$allocator@VCPoint@@@0@U_Nonscalar_ptr_iterator_tag@0@@Z 00483810 f i Continent.obj
 0001:00082810       ??$_Uninit_fill_n@PAU_DIE_PENALTY@@IU1@V?$allocator@U_DIE_PENALTY@@@std@@@std@@YAXPAU_DIE_PENALTY@@IABU1@AAV?$allocator@U_DIE_PENALTY@@@0@U_Nonscalar_ptr_iterator_tag@0@@Z 00483810 f i Project.obj
 0001:00082810       ??$_Uninit_fill_n@PAU_SINGLE_DST@@IU1@V?$allocator@U_SINGLE_DST@@@std@@@std@@YAXPAU_SINGLE_DST@@IABU1@AAV?$allocator@U_SINGLE_DST@@@0@U_Nonscalar_ptr_iterator_tag@0@@Z 00483810 f i accessory.obj
 0001:00082810       ??$_Uninit_fill_n@PAU_TransformStuffComponent@@IU1@V?$allocator@U_TransformStuffComponent@@@std@@@std@@YAXPAU_TransformStuffComponent@@IABU1@AAV?$allocator@U_TransformStuffComponent@@@0@U_Nonscalar_ptr_iterator_tag@0@@Z 00483810 f i pet.obj
 0001:00082840       ?Concatenate@?$CSimpleStringT@D$0A@@ATL@@KAXAAV12@PBDH1H@Z 00483840 f i Continent.obj
 0001:000828d0       ??HATL@@YA?AV?$CStringT@DV?$StrTraitMFC@DV?$ChTraitsCRT@D@ATL@@@@@0@ABV10@0@Z 004838d0 f i Continent.obj
 0001:00082980       ?Point_In_Poly@CContinent@@AAEHV?$vector@VCPoint@@V?$allocator@VCPoint@@@std@@@std@@VCPoint@@@Z 00483980 f   Continent.obj
 0001:00082a80       ?GetContinentName@CContinent@@QAE?AV?$CStringT@DV?$StrTraitMFC@DV?$ChTraitsCRT@D@ATL@@@@@ATL@@E@Z 00483a80 f   Continent.obj
 0001:00082ca0       ?_Xlen@?$vector@VCPoint@@V?$allocator@VCPoint@@@std@@@std@@IBEXXZ 00483ca0 f i Continent.obj
 0001:00082d10       ?_Buy@?$vector@VCPoint@@V?$allocator@VCPoint@@@std@@@std@@IAE_NI@Z 00483d10 f i Continent.obj
 0001:00082d60       ?_Insert_n@?$vector@VCPoint@@V?$allocator@VCPoint@@@std@@@std@@IAEXViterator@12@IABVCPoint@@@Z 00483d60 f i Continent.obj
 0001:00082fb0       ??0?$vector@VCPoint@@V?$allocator@VCPoint@@@std@@@std@@QAE@ABV01@@Z 00483fb0 f i Continent.obj
 0001:00083070       ??4?$vector@VCPoint@@V?$allocator@VCPoint@@@std@@@std@@QAEAAV01@ABV01@@Z 00484070 f i Continent.obj
 0001:000831c0       ?erase@?$_Tree@V?$_Tmap_traits@EV?$vector@VCPoint@@V?$allocator@VCPoint@@@std@@@std@@U?$less@E@2@V?$allocator@U?$pair@$$CBEV?$vector@VCPoint@@V?$allocator@VCPoint@@@std@@@std@@@std@@@2@$0A@@std@@@std@@QAE?AViterator@12@V312@@Z 004841c0 f i Continent.obj
 0001:000834a0       ?GetContinent@CContinent@@QAEEABUD3DXVECTOR3@@@Z 004844a0 f   Continent.obj
 0001:00083590       ?push_back@?$vector@VCPoint@@V?$allocator@VCPoint@@@std@@@std@@QAEXABVCPoint@@@Z 00484590 f i Continent.obj
 0001:00083600       ?_Erase@?$_Tree@V?$_Tmap_traits@EV?$vector@VCPoint@@V?$allocator@VCPoint@@@std@@@std@@U?$less@E@2@V?$allocator@U?$pair@$$CBEV?$vector@VCPoint@@V?$allocator@VCPoint@@@std@@@std@@@std@@@2@$0A@@std@@@std@@IAEXPAU_Node@?$_Tree_nod@V?$_Tmap_traits@EV?$vector@VCPoint@@V?$allocator@VCPoint@@@std@@@std@@U?$less@E@2@V?$allocator@U?$pair@$$CBEV?$vector@VCPoint@@V?$allocator@VCPoint@@@std@@@std@@@std@@@2@$0A@@std@@@2@@Z 00484600 f i Continent.obj
 0001:00083640       ??$make_pair@HV?$vector@VCPoint@@V?$allocator@VCPoint@@@std@@@std@@@std@@YA?AU?$pair@HV?$vector@VCPoint@@V?$allocator@VCPoint@@@std@@@std@@@0@HV?$vector@VCPoint@@V?$allocator@VCPoint@@@std@@@0@@Z 00484640 f i Continent.obj
 0001:000836b0       ?GetContinent@CContinent@@QAEEPAVCMover@@@Z 004846b0 f   Continent.obj
 0001:00083820       ?GetArea@CContinent@@QAEEPAVCMover@@@Z 00484820 f   Continent.obj
 0001:00083860       ?erase@?$_Tree@V?$_Tmap_traits@EV?$vector@VCPoint@@V?$allocator@VCPoint@@@std@@@std@@U?$less@E@2@V?$allocator@U?$pair@$$CBEV?$vector@VCPoint@@V?$allocator@VCPoint@@@std@@@std@@@std@@@2@$0A@@std@@@std@@QAE?AViterator@12@V312@0@Z 00484860 f i Continent.obj
 0001:00083920       ?_Buynode@?$_Tree@V?$_Tmap_traits@EV?$vector@VCPoint@@V?$allocator@VCPoint@@@std@@@std@@U?$less@E@2@V?$allocator@U?$pair@$$CBEV?$vector@VCPoint@@V?$allocator@VCPoint@@@std@@@std@@@std@@@2@$0A@@std@@@std@@IAEPAU_Node@?$_Tree_nod@V?$_Tmap_traits@EV?$vector@VCPoint@@V?$allocator@VCPoint@@@std@@@std@@U?$less@E@2@V?$allocator@U?$pair@$$CBEV?$vector@VCPoint@@V?$allocator@VCPoint@@@std@@@std@@@std@@@2@$0A@@std@@@2@PAU342@00ABU?$pair@$$CBEV?$vector@VCPoint@@V?$allocator@VCPoint@@@std@@@std@@@2@D@Z 00484920 f i Continent.obj
 0001:000839c0       ?_Insert@?$_Tree@V?$_Tmap_traits@EV?$vector@VCPoint@@V?$allocator@VCPoint@@@std@@@std@@U?$less@E@2@V?$allocator@U?$pair@$$CBEV?$vector@VCPoint@@V?$allocator@VCPoint@@@std@@@std@@@std@@@2@$0A@@std@@@std@@IAE?AViterator@12@_NPAU_Node@?$_Tree_nod@V?$_Tmap_traits@EV?$vector@VCPoint@@V?$allocator@VCPoint@@@std@@@std@@U?$less@E@2@V?$allocator@U?$pair@$$CBEV?$vector@VCPoint@@V?$allocator@VCPoint@@@std@@@std@@@std@@@2@$0A@@std@@@2@ABU?$pair@$$CBEV?$vector@VCPoint@@V?$allocator@VCPoint@@@std@@@std@@@2@@Z 004849c0 f i Continent.obj
 0001:00083b70       ?insert@?$_Tree@V?$_Tmap_traits@EV?$vector@VCPoint@@V?$allocator@VCPoint@@@std@@@std@@U?$less@E@2@V?$allocator@U?$pair@$$CBEV?$vector@VCPoint@@V?$allocator@VCPoint@@@std@@@std@@@std@@@2@$0A@@std@@@std@@QAE?AU?$pair@Viterator@?$_Tree@V?$_Tmap_traits@EV?$vector@VCPoint@@V?$allocator@VCPoint@@@std@@@std@@U?$less@E@2@V?$allocator@U?$pair@$$CBEV?$vector@VCPoint@@V?$allocator@VCPoint@@@std@@@std@@@std@@@2@$0A@@std@@@std@@_N@2@ABU?$pair@$$CBEV?$vector@VCPoint@@V?$allocator@VCPoint@@@std@@@std@@@2@@Z 00484b70 f i Continent.obj
 0001:00083c30       ??1?$map@EV?$vector@VCPoint@@V?$allocator@VCPoint@@@std@@@std@@U?$less@E@2@V?$allocator@U?$pair@$$CBEV?$vector@VCPoint@@V?$allocator@VCPoint@@@std@@@std@@@std@@@2@@std@@QAE@XZ 00484c30 f i Continent.obj
 0001:00083c60       ??1CContinent@@UAE@XZ      00484c60 f   Continent.obj
 0001:00083d00       ?Init@CContinent@@AAEXXZ   00484d00 f   Continent.obj
 0001:00084350       ??0CContinent@@QAE@XZ      00485350 f   Continent.obj
 0001:000843f0       ??_GCContinent@@UAEPAXI@Z  004853f0 f i Continent.obj
 0001:000843f0       ??_ECContinent@@UAEPAXI@Z  004853f0 f i Continent.obj
 0001:00084410       ?GetInstance@CContinent@@SAPAV1@XZ 00485410 f   Continent.obj
 0001:00084470       ??0CCooltimeMgr@@QAE@XZ    00485470 f   CooltimeMgr.obj
 0001:000844a0       ??1CCooltimeMgr@@UAE@XZ    004854a0 f   CooltimeMgr.obj
 0001:000844b0       ?GetGroup@CCooltimeMgr@@SAKPAUItemProp@@@Z 004854b0 f   CooltimeMgr.obj
 0001:000844f0       ?SetTime@CCooltimeMgr@@QAEXKK@Z 004854f0 f   CooltimeMgr.obj
 0001:00084510       ??_GCCooltimeMgr@@UAEPAXI@Z 00485510 f i CooltimeMgr.obj
 0001:00084510       ??_ECCooltimeMgr@@UAEPAXI@Z 00485510 f i CooltimeMgr.obj
 0001:00084530       ?CanUse@CCooltimeMgr@@QAEHK@Z 00485530 f   CooltimeMgr.obj
 0001:00084550       ?_Max@?$_Tree@V?$_Tmap_traits@KUCREATE_MONSTER_INFO@@U?$less@K@std@@V?$allocator@U?$pair@$$CBKUCREATE_MONSTER_INFO@@@std@@@3@$0A@@std@@@std@@KAPAU_Node@?$_Tree_nod@V?$_Tmap_traits@KUCREATE_MONSTER_INFO@@U?$less@K@std@@V?$allocator@U?$pair@$$CBKUCREATE_MONSTER_INFO@@@std@@@3@$0A@@std@@@2@PAU342@@Z 00485550 f i CreateMonster.obj
 0001:00084550       ?_Max@?$_Tree@V?$_Tmap_traits@HUD3DXVECTOR3@@U?$less@H@std@@V?$allocator@U?$pair@$$CBHUD3DXVECTOR3@@@std@@@3@$0A@@std@@@std@@KAPAU_Node@?$_Tree_nod@V?$_Tmap_traits@HUD3DXVECTOR3@@U?$less@H@std@@V?$allocator@U?$pair@$$CBHUD3DXVECTOR3@@@std@@@3@$0A@@std@@@2@PAU342@@Z 00485550 f i InstanceDungeonBase.obj
 0001:00084570       ?_Dec@const_iterator@?$_Tree@V?$_Tmap_traits@KUCREATE_MONSTER_INFO@@U?$less@K@std@@V?$allocator@U?$pair@$$CBKUCREATE_MONSTER_INFO@@@std@@@3@$0A@@std@@@std@@QAEXXZ 00485570 f i CreateMonster.obj
 0001:00084570       ?_Dec@const_iterator@?$_Tree@V?$_Tmap_traits@HUD3DXVECTOR3@@U?$less@H@std@@V?$allocator@U?$pair@$$CBHUD3DXVECTOR3@@@std@@@3@$0A@@std@@@std@@QAEXXZ 00485570 f i InstanceDungeonBase.obj
 0001:000845d0       ?_Inc@const_iterator@?$_Tree@V?$_Tmap_traits@HUD3DXVECTOR3@@U?$less@H@std@@V?$allocator@U?$pair@$$CBHUD3DXVECTOR3@@@std@@@3@$0A@@std@@@std@@QAEXXZ 004855d0 f i InstanceDungeonBase.obj
 0001:000845d0       ?_Inc@const_iterator@?$_Tree@V?$_Tmap_traits@KUCREATE_MONSTER_INFO@@U?$less@K@std@@V?$allocator@U?$pair@$$CBKUCREATE_MONSTER_INFO@@@std@@@3@$0A@@std@@@std@@QAEXXZ 004855d0 f i CreateMonster.obj
 0001:00084630       ??$?0KUCREATE_MONSTER_INFO@@@?$pair@$$CBKUCREATE_MONSTER_INFO@@@std@@QAE@ABU?$pair@KUCREATE_MONSTER_INFO@@@1@@Z 00485630 f i CreateMonster.obj
 0001:00084660       ??$make_pair@KUCREATE_MONSTER_INFO@@@std@@YA?AU?$pair@KUCREATE_MONSTER_INFO@@@0@KUCREATE_MONSTER_INFO@@@Z 00485660 f i CreateMonster.obj
 0001:00084690       ?_Erase@?$_Tree@V?$_Tmap_traits@KPAUCREATE_MONSTER_PROP@@U?$less@K@std@@V?$allocator@U?$pair@$$CBKPAUCREATE_MONSTER_PROP@@@std@@@3@$0A@@std@@@std@@IAEXPAU_Node@?$_Tree_nod@V?$_Tmap_traits@KPAUCREATE_MONSTER_PROP@@U?$less@K@std@@V?$allocator@U?$pair@$$CBKPAUCREATE_MONSTER_PROP@@@std@@@3@$0A@@std@@@2@@Z 00485690 f i CreateMonster.obj
 0001:000846d0       ?_Erase@?$_Tree@V?$_Tmap_traits@KUCREATE_MONSTER_INFO@@U?$less@K@std@@V?$allocator@U?$pair@$$CBKUCREATE_MONSTER_INFO@@@std@@@3@$0A@@std@@@std@@IAEXPAU_Node@?$_Tree_nod@V?$_Tmap_traits@KUCREATE_MONSTER_INFO@@U?$less@K@std@@V?$allocator@U?$pair@$$CBKUCREATE_MONSTER_INFO@@@std@@@3@$0A@@std@@@2@@Z 004856d0 f i CreateMonster.obj
 0001:00084710       ?_Buynode@?$_Tree@V?$_Tmap_traits@HUD3DXVECTOR3@@U?$less@H@std@@V?$allocator@U?$pair@$$CBHUD3DXVECTOR3@@@std@@@3@$0A@@std@@@std@@IAEPAU_Node@?$_Tree_nod@V?$_Tmap_traits@HUD3DXVECTOR3@@U?$less@H@std@@V?$allocator@U?$pair@$$CBHUD3DXVECTOR3@@@std@@@3@$0A@@std@@@2@XZ 00485710 f i InstanceDungeonBase.obj
 0001:00084710       ?_Buynode@?$_Tree@V?$_Tmap_traits@KUCREATE_MONSTER_INFO@@U?$less@K@std@@V?$allocator@U?$pair@$$CBKUCREATE_MONSTER_INFO@@@std@@@3@$0A@@std@@@std@@IAEPAU_Node@?$_Tree_nod@V?$_Tmap_traits@KUCREATE_MONSTER_INFO@@U?$less@K@std@@V?$allocator@U?$pair@$$CBKUCREATE_MONSTER_INFO@@@std@@@3@$0A@@std@@@2@XZ 00485710 f i CreateMonster.obj
 0001:00084750       ?_Erase@?$_Tree@V?$_Tmap_traits@KHU?$less@K@std@@V?$allocator@U?$pair@$$CBKH@std@@@2@$0A@@std@@@std@@IAEXPAU_Node@?$_Tree_nod@V?$_Tmap_traits@KHU?$less@K@std@@V?$allocator@U?$pair@$$CBKH@std@@@2@$0A@@std@@@2@@Z 00485750 f i CreateMonster.obj
 0001:00084790       ?find@?$_Tree@V?$_Tmap_traits@KUCREATE_MONSTER_INFO@@U?$less@K@std@@V?$allocator@U?$pair@$$CBKUCREATE_MONSTER_INFO@@@std@@@3@$0A@@std@@@std@@QAE?AViterator@12@ABK@Z 00485790 f i CreateMonster.obj
 0001:00084800       ?clear@?$_Tree@V?$_Tmap_traits@KHU?$less@K@std@@V?$allocator@U?$pair@$$CBKH@std@@@2@$0A@@std@@@std@@QAEXXZ 00485800 f i CreateMonster.obj
 0001:00084830       ?GetRandomMonsterId@CREATE_MONSTER_PROP@@QAEKXZ 00485830 f i CreateMonster.obj
 0001:00084890       ?SetState@CCreateMonster@@QAEXKD@Z 00485890 f   CreateMonster.obj
 0001:000848c0       ?ProcessRemoveMonster@CCreateMonster@@QAEXXZ 004858c0 f   CreateMonster.obj
 0001:00084940       ?IsAttackAble@CCreateMonster@@QAEHPAVCUser@@PAVCMover@@H@Z 00485940 f   CreateMonster.obj
 0001:00084a00       ?erase@?$_Tree@V?$_Tmap_traits@KPAUCREATE_MONSTER_PROP@@U?$less@K@std@@V?$allocator@U?$pair@$$CBKPAUCREATE_MONSTER_PROP@@@std@@@3@$0A@@std@@@std@@QAE?AViterator@12@V312@@Z 00485a00 f i CreateMonster.obj
 0001:00084a00       ?erase@?$_Tree@V?$_Tmap_traits@KHU?$less@K@std@@V?$allocator@U?$pair@$$CBKH@std@@@2@$0A@@std@@@std@@QAE?AViterator@12@V312@@Z 00485a00 f i CreateMonster.obj
 0001:00084cc0       ?erase@?$_Tree@V?$_Tmap_traits@KUCREATE_MONSTER_INFO@@U?$less@K@std@@V?$allocator@U?$pair@$$CBKUCREATE_MONSTER_INFO@@@std@@@3@$0A@@std@@@std@@QAE?AViterator@12@V312@@Z 00485cc0 f i CreateMonster.obj
 0001:00084f80       ?_Insert@?$_Tree@V?$_Tmap_traits@KPAUCREATE_MONSTER_PROP@@U?$less@K@std@@V?$allocator@U?$pair@$$CBKPAUCREATE_MONSTER_PROP@@@std@@@3@$0A@@std@@@std@@IAE?AViterator@12@_NPAU_Node@?$_Tree_nod@V?$_Tmap_traits@KPAUCREATE_MONSTER_PROP@@U?$less@K@std@@V?$allocator@U?$pair@$$CBKPAUCREATE_MONSTER_PROP@@@std@@@3@$0A@@std@@@2@ABU?$pair@$$CBKPAUCREATE_MONSTER_PROP@@@2@@Z 00485f80 f i CreateMonster.obj
 0001:00084f80       ?_Insert@?$_Tree@V?$_Tmap_traits@KHU?$less@K@std@@V?$allocator@U?$pair@$$CBKH@std@@@2@$0A@@std@@@std@@IAE?AViterator@12@_NPAU_Node@?$_Tree_nod@V?$_Tmap_traits@KHU?$less@K@std@@V?$allocator@U?$pair@$$CBKH@std@@@2@$0A@@std@@@2@ABU?$pair@$$CBKH@2@@Z 00485f80 f i CreateMonster.obj
 0001:00085130       ?_Insert@?$_Tree@V?$_Tmap_traits@KUCREATE_MONSTER_INFO@@U?$less@K@std@@V?$allocator@U?$pair@$$CBKUCREATE_MONSTER_INFO@@@std@@@3@$0A@@std@@@std@@IAE?AViterator@12@_NPAU_Node@?$_Tree_nod@V?$_Tmap_traits@KUCREATE_MONSTER_INFO@@U?$less@K@std@@V?$allocator@U?$pair@$$CBKUCREATE_MONSTER_INFO@@@std@@@3@$0A@@std@@@2@ABU?$pair@$$CBKUCREATE_MONSTER_INFO@@@2@@Z 00486130 f i CreateMonster.obj
 0001:000852e0       ?erase@?$_Tree@V?$_Tmap_traits@KUCREATE_MONSTER_INFO@@U?$less@K@std@@V?$allocator@U?$pair@$$CBKUCREATE_MONSTER_INFO@@@std@@@3@$0A@@std@@@std@@QAE?AViterator@12@V312@0@Z 004862e0 f i CreateMonster.obj
 0001:000853a0       ?erase@?$_Tree@V?$_Tmap_traits@KHU?$less@K@std@@V?$allocator@U?$pair@$$CBKH@std@@@2@$0A@@std@@@std@@QAE?AViterator@12@V312@0@Z 004863a0 f i CreateMonster.obj
 0001:00085460       ?RemoveInfo@CCreateMonster@@QAEXPAVCMover@@@Z 00486460 f   CreateMonster.obj
 0001:000855a0       ?insert@?$_Tree@V?$_Tmap_traits@KPAUCREATE_MONSTER_PROP@@U?$less@K@std@@V?$allocator@U?$pair@$$CBKPAUCREATE_MONSTER_PROP@@@std@@@3@$0A@@std@@@std@@QAE?AU?$pair@Viterator@?$_Tree@V?$_Tmap_traits@KPAUCREATE_MONSTER_PROP@@U?$less@K@std@@V?$allocator@U?$pair@$$CBKPAUCREATE_MONSTER_PROP@@@std@@@3@$0A@@std@@@std@@_N@2@ABU?$pair@$$CBKPAUCREATE_MONSTER_PROP@@@2@@Z 004865a0 f i CreateMonster.obj
 0001:000855a0       ?insert@?$_Tree@V?$_Tmap_traits@KHU?$less@K@std@@V?$allocator@U?$pair@$$CBKH@std@@@2@$0A@@std@@@std@@QAE?AU?$pair@Viterator@?$_Tree@V?$_Tmap_traits@KHU?$less@K@std@@V?$allocator@U?$pair@$$CBKH@std@@@2@$0A@@std@@@std@@_N@2@ABU?$pair@$$CBKH@2@@Z 004865a0 f i CreateMonster.obj
 0001:00085660       ?insert@?$_Tree@V?$_Tmap_traits@KUCREATE_MONSTER_INFO@@U?$less@K@std@@V?$allocator@U?$pair@$$CBKUCREATE_MONSTER_INFO@@@std@@@3@$0A@@std@@@std@@QAE?AU?$pair@Viterator@?$_Tree@V?$_Tmap_traits@KUCREATE_MONSTER_INFO@@U?$less@K@std@@V?$allocator@U?$pair@$$CBKUCREATE_MONSTER_INFO@@@std@@@3@$0A@@std@@@std@@_N@2@ABU?$pair@$$CBKUCREATE_MONSTER_INFO@@@2@@Z 00486660 f i CreateMonster.obj
 0001:00085720       ?erase@?$_Tree@V?$_Tmap_traits@KPAUCREATE_MONSTER_PROP@@U?$less@K@std@@V?$allocator@U?$pair@$$CBKPAUCREATE_MONSTER_PROP@@@std@@@3@$0A@@std@@@std@@QAE?AViterator@12@V312@0@Z 00486720 f i CreateMonster.obj
 0001:000857e0       ?CreateMonster@CCreateMonster@@QAEXPAVCUser@@KUD3DXVECTOR3@@@Z 004867e0 f   CreateMonster.obj
 0001:00085b10       ??1?$map@KUCREATE_MONSTER_INFO@@U?$less@K@std@@V?$allocator@U?$pair@$$CBKUCREATE_MONSTER_INFO@@@std@@@3@@std@@QAE@XZ 00486b10 f i CreateMonster.obj
 0001:00085b40       ?_Tidy@?$_Tree@V?$_Tmap_traits@KHU?$less@K@std@@V?$allocator@U?$pair@$$CBKH@std@@@2@$0A@@std@@@std@@IAEXXZ 00486b40 f i CreateMonster.obj
 0001:00085b40       ??1?$map@KHU?$less@K@std@@V?$allocator@U?$pair@$$CBKH@std@@@2@@std@@QAE@XZ 00486b40 f i CreateMonster.obj
 0001:00085b70       ??1?$map@KPAUCREATE_MONSTER_PROP@@U?$less@K@std@@V?$allocator@U?$pair@$$CBKPAUCREATE_MONSTER_PROP@@@std@@@3@@std@@QAE@XZ 00486b70 f i CreateMonster.obj
 0001:00085ba0       ?LoadScript@CCreateMonster@@QAEXXZ 00486ba0 f   CreateMonster.obj
 0001:00085de0       ??0CCreateMonster@@QAE@XZ  00486de0 f   CreateMonster.obj
 0001:00085e80       ??1CCreateMonster@@QAE@XZ  00486e80 f   CreateMonster.obj
 0001:00086070       ?GetInstance@CCreateMonster@@SAPAV1@XZ 00487070 f   CreateMonster.obj
 0001:000860d0       ?MakeFileNameDate@@YAPBDPBD@Z 004870d0 f   debug.obj
 0001:00086330       ?DEBUGOUT2@@YAXPBD0@Z      00487330 f   debug.obj
 0001:00086390       ?FILEOUT@@YAXPBD0ZZ        00487390 f   debug.obj
 0001:000863b0       ?WriteLog@@YAXPBDZZ        004873b0 f   debug.obj
 0001:000863d0       ?WriteError@@YAXPBDZZ      004873d0 f   debug.obj
 0001:000863f0       ?LoadScript@CEnvironment@@QAEHXZ 004873f0 f   Environment.obj
 0001:00086560       ??1CTimer@@UAE@XZ          00487560 f i Environment.obj
 0001:00086570       ??_GCTimer@@UAEPAXI@Z      00487570 f i Environment.obj
 0001:00086570       ??_ECTimer@@UAEPAXI@Z      00487570 f i Environment.obj
 0001:00086590       ??0CEnvironment@@QAE@XZ    00487590 f   Environment.obj
 0001:00086600       ??1CEnvironment@@QAE@XZ    00487600 f   Environment.obj
 0001:00086610       ?GetInstance@CEnvironment@@SAPAV1@XZ 00487610 f   Environment.obj
 0001:00086670       ?GetSeason@CEnvironment@@QAEHXZ 00487670 f   Environment.obj
 0001:000866f0       ?Serialize@CEnvironment@@QAEXAAVCAr@@@Z 004876f0 f   Environment.obj
 0001:00086760       ?_Rrotate@?$_Tree@V?$_Tmap_traits@KV?$vector@U_VECINFO@@V?$allocator@U_VECINFO@@@std@@@std@@U?$less@K@2@V?$allocator@U?$pair@$$CBKV?$vector@U_VECINFO@@V?$allocator@U_VECINFO@@@std@@@std@@@std@@@2@$0A@@std@@@std@@IAEXPAU_Node@?$_Tree_nod@V?$_Tmap_traits@KV?$vector@U_VECINFO@@V?$allocator@U_VECINFO@@@std@@@std@@U?$less@K@2@V?$allocator@U?$pair@$$CBKV?$vector@U_VECINFO@@V?$allocator@U_VECINFO@@@std@@@std@@@std@@@2@$0A@@std@@@2@@Z 00487760 f i PathObj.obj
 0001:00086760       ?_Rrotate@?$_Tree@V?$_Tmap_traits@KV?$vector@U__MONSTERSKILL@@V?$allocator@U__MONSTERSKILL@@@std@@@std@@U?$less@K@2@V?$allocator@U?$pair@$$CBKV?$vector@U__MONSTERSKILL@@V?$allocator@U__MONSTERSKILL@@@std@@@std@@@std@@@2@$0A@@std@@@std@@IAEXPAU_Node@?$_Tree_nod@V?$_Tmap_traits@KV?$vector@U__MONSTERSKILL@@V?$allocator@U__MONSTERSKILL@@@std@@@std@@U?$less@K@2@V?$allocator@U?$pair@$$CBKV?$vector@U__MONSTERSKILL@@V?$allocator@U__MONSTERSKILL@@@std@@@std@@@std@@@2@$0A@@std@@@2@@Z 00487760 f i aimonster.obj
 0001:00086760       ?_Rrotate@?$_Tree@V?$_Tmap_traits@KV?$vector@KV?$allocator@K@std@@@std@@U?$less@K@2@V?$allocator@U?$pair@$$CBKV?$vector@KV?$allocator@K@std@@@std@@@std@@@2@$0A@@std@@@std@@IAEXPAU_Node@?$_Tree_nod@V?$_Tmap_traits@KV?$vector@KV?$allocator@K@std@@@std@@U?$less@K@2@V?$allocator@U?$pair@$$CBKV?$vector@KV?$allocator@K@std@@@std@@@std@@@2@$0A@@std@@@2@@Z 00487760 f i Housing.obj
 0001:00086760       ?_Rrotate@?$_Tree@V?$_Tmap_traits@EV?$vector@VCPoint@@V?$allocator@VCPoint@@@std@@@std@@U?$less@E@2@V?$allocator@U?$pair@$$CBEV?$vector@VCPoint@@V?$allocator@VCPoint@@@std@@@std@@@std@@@2@$0A@@std@@@std@@IAEXPAU_Node@?$_Tree_nod@V?$_Tmap_traits@EV?$vector@VCPoint@@V?$allocator@VCPoint@@@std@@@std@@U?$less@E@2@V?$allocator@U?$pair@$$CBEV?$vector@VCPoint@@V?$allocator@VCPoint@@@std@@@std@@@std@@@2@$0A@@std@@@2@@Z 00487760 f i Continent.obj
 0001:00086760       ?_Rrotate@?$_Tree@V?$_Tmap_traits@KV?$vector@UCOOLTIME_INFO@@V?$allocator@UCOOLTIME_INFO@@@std@@@std@@U?$less@K@2@V?$allocator@U?$pair@$$CBKV?$vector@UCOOLTIME_INFO@@V?$allocator@UCOOLTIME_INFO@@@std@@@std@@@std@@@2@$0A@@std@@@std@@IAEXPAU_Node@?$_Tree_nod@V?$_Tmap_traits@KV?$vector@UCOOLTIME_INFO@@V?$allocator@UCOOLTIME_INFO@@@std@@@std@@U?$less@K@2@V?$allocator@U?$pair@$$CBKV?$vector@UCOOLTIME_INFO@@V?$allocator@UCOOLTIME_INFO@@@std@@@std@@@std@@@2@$0A@@std@@@2@@Z 00487760 f i InstanceDungeonBase.obj
 0001:00086760       ?_Rrotate@?$_Tree@V?$_Tmap_traits@KV?$vector@UINSTACNEDUNGEON_INFO@@V?$allocator@UINSTACNEDUNGEON_INFO@@@std@@@std@@U?$less@K@2@V?$allocator@U?$pair@$$CBKV?$vector@UINSTACNEDUNGEON_INFO@@V?$allocator@UINSTACNEDUNGEON_INFO@@@std@@@std@@@std@@@2@$0A@@std@@@std@@IAEXPAU_Node@?$_Tree_nod@V?$_Tmap_traits@KV?$vector@UINSTACNEDUNGEON_INFO@@V?$allocator@UINSTACNEDUNGEON_INFO@@@std@@@std@@U?$less@K@2@V?$allocator@U?$pair@$$CBKV?$vector@UINSTACNEDUNGEON_INFO@@V?$allocator@UINSTACNEDUNGEON_INFO@@@std@@@std@@@std@@@2@$0A@@std@@@2@@Z 00487760 f i InstanceDungeonBase.obj
 0001:00086760       ?_Rrotate@?$_Tree@V?$_Tmap_traits@HU__CHAOS_GEM@@U?$less@H@std@@V?$allocator@U?$pair@$$CBHU__CHAOS_GEM@@@std@@@3@$0A@@std@@@std@@IAEXPAU_Node@?$_Tree_nod@V?$_Tmap_traits@HU__CHAOS_GEM@@U?$less@H@std@@V?$allocator@U?$pair@$$CBHU__CHAOS_GEM@@@std@@@3@$0A@@std@@@2@@Z 00487760 f i ItemUpgrade.obj
 0001:00086760       ?_Rrotate@?$_Tree@V?$_Tmap_traits@HU__ATTRIBUTE_ENCHANT@@U?$less@H@std@@V?$allocator@U?$pair@$$CBHU__ATTRIBUTE_ENCHANT@@@std@@@3@$0A@@std@@@std@@IAEXPAU_Node@?$_Tree_nod@V?$_Tmap_traits@HU__ATTRIBUTE_ENCHANT@@U?$less@H@std@@V?$allocator@U?$pair@$$CBHU__ATTRIBUTE_ENCHANT@@@std@@@3@$0A@@std@@@2@@Z 00487760 f i ItemUpgrade.obj
 0001:00086760       ?_Rrotate@?$_Tree@V?$_Tmap_traits@EV?$vector@U__SPAWNINFO@CEventLua@@V?$allocator@U__SPAWNINFO@CEventLua@@@std@@@std@@U?$less@E@2@V?$allocator@U?$pair@$$CBEV?$vector@U__SPAWNINFO@CEventLua@@V?$allocator@U__SPAWNINFO@CEventLua@@@std@@@std@@@std@@@2@$0A@@std@@@std@@IAEXPAU_Node@?$_Tree_nod@V?$_Tmap_traits@EV?$vector@U__SPAWNINFO@CEventLua@@V?$allocator@U__SPAWNINFO@CEventLua@@@std@@@std@@U?$less@E@2@V?$allocator@U?$pair@$$CBEV?$vector@U__SPAWNINFO@CEventLua@@V?$allocator@U__SPAWNINFO@CEventLua@@@std@@@std@@@std@@@2@$0A@@std@@@2@@Z 00487760 f i EventLua.obj
 0001:000867c0       ??$fill@PAEE@std@@YAXPAE0ABE@Z 004877c0 f i EventLua.obj
 0001:000867e0       ??$fill@PAUWORMON@@U1@@std@@YAXPAUWORMON@@0ABU1@@Z 004877e0 f i Project.obj
 0001:000867e0       ??$fill@PAU__ITEM@CExchange@@U12@@std@@YAXPAU__ITEM@CExchange@@0ABU12@@Z 004877e0 f i Exchange.obj
 0001:000867e0       ??$fill@PAU?$pair@M_J@std@@U12@@std@@YAXPAU?$pair@M_J@0@0ABU10@@Z 004877e0 f i lord.obj
 0001:000867e0       ??$fill@PAUTreasureBox@@U1@@std@@YAXPAUTreasureBox@@0ABU1@@Z 004877e0 f i ProjectCmn.obj
 0001:000867e0       ??$fill@PAU__SPAWNINFO@CEventLua@@U12@@std@@YAXPAU__SPAWNINFO@CEventLua@@0ABU12@@Z 004877e0 f i EventLua.obj
 0001:000867e0       ??$fill@PAU_RANGDA_POS@@U1@@std@@YAXPAU_RANGDA_POS@@0ABU1@@Z 004877e0 f i rangda.obj
 0001:00086820       ?GetPos@__SPAWNREGION@CEventLua@@QAE?AUD3DXVECTOR3@@XZ 00487820 f i EventLua.obj
 0001:00086890       ?GetExpFactor@CEventLua@@QAEMH@Z 00487890 f   EventLua.obj
 0001:00086910       ?GetItemDropRate@CEventLua@@QAEMH@Z 00487910 f   EventLua.obj
 0001:00086990       ?GetPieceItemDropRate@CEventLua@@QAEMH@Z 00487990 f   EventLua.obj
 0001:00086a10       ?GetGoldDropFactor@CEventLua@@QAEMH@Z 00487a10 f   EventLua.obj
 0001:00086a90       ?GetAttackPower@CEventLua@@QAEHH@Z 00487a90 f   EventLua.obj
 0001:00086b00       ?GetDefensePower@CEventLua@@QAEHH@Z 00487b00 f   EventLua.obj
 0001:00086b70       ?SetCoupon@CEventLua@@QAEXPAVCUser@@K@Z 00487b70 f   EventLua.obj
 0001:00086bd0       ?GetCheerExpFactor@CEventLua@@QAEMH@Z 00487bd0 f   EventLua.obj
 0001:00086c50       ?GetWeatherEventExpFactor@CEventLua@@QAEMH@Z 00487c50 f   EventLua.obj
 0001:00086cd0       ?GetShopBuyFactor@CEventLua@@QAEMH@Z 00487cd0 f   EventLua.obj
 0001:00086d50       ?GetShopSellFactor@CEventLua@@QAEMH@Z 00487d50 f   EventLua.obj
 0001:00086dd0       ?_Lrotate@?$_Tree@V?$_Tmap_traits@EV?$vector@U__SPAWNINFO@CEventLua@@V?$allocator@U__SPAWNINFO@CEventLua@@@std@@@std@@U?$less@E@2@V?$allocator@U?$pair@$$CBEV?$vector@U__SPAWNINFO@CEventLua@@V?$allocator@U__SPAWNINFO@CEventLua@@@std@@@std@@@std@@@2@$0A@@std@@@std@@IAEXPAU_Node@?$_Tree_nod@V?$_Tmap_traits@EV?$vector@U__SPAWNINFO@CEventLua@@V?$allocator@U__SPAWNINFO@CEventLua@@@std@@@std@@U?$less@E@2@V?$allocator@U?$pair@$$CBEV?$vector@U__SPAWNINFO@CEventLua@@V?$allocator@U__SPAWNINFO@CEventLua@@@std@@@std@@@std@@@2@$0A@@std@@@2@@Z 00487dd0 f i EventLua.obj
 0001:00086dd0       ?_Lrotate@?$_Tree@V?$_Tmap_traits@HU__CHAOS_GEM@@U?$less@H@std@@V?$allocator@U?$pair@$$CBHU__CHAOS_GEM@@@std@@@3@$0A@@std@@@std@@IAEXPAU_Node@?$_Tree_nod@V?$_Tmap_traits@HU__CHAOS_GEM@@U?$less@H@std@@V?$allocator@U?$pair@$$CBHU__CHAOS_GEM@@@std@@@3@$0A@@std@@@2@@Z 00487dd0 f i ItemUpgrade.obj
 0001:00086dd0       ?_Lrotate@?$_Tree@V?$_Tmap_traits@HU__ATTRIBUTE_ENCHANT@@U?$less@H@std@@V?$allocator@U?$pair@$$CBHU__ATTRIBUTE_ENCHANT@@@std@@@3@$0A@@std@@@std@@IAEXPAU_Node@?$_Tree_nod@V?$_Tmap_traits@HU__ATTRIBUTE_ENCHANT@@U?$less@H@std@@V?$allocator@U?$pair@$$CBHU__ATTRIBUTE_ENCHANT@@@std@@@3@$0A@@std@@@2@@Z 00487dd0 f i ItemUpgrade.obj
 0001:00086dd0       ?_Lrotate@?$_Tree@V?$_Tmap_traits@KV?$vector@U__MONSTERSKILL@@V?$allocator@U__MONSTERSKILL@@@std@@@std@@U?$less@K@2@V?$allocator@U?$pair@$$CBKV?$vector@U__MONSTERSKILL@@V?$allocator@U__MONSTERSKILL@@@std@@@std@@@std@@@2@$0A@@std@@@std@@IAEXPAU_Node@?$_Tree_nod@V?$_Tmap_traits@KV?$vector@U__MONSTERSKILL@@V?$allocator@U__MONSTERSKILL@@@std@@@std@@U?$less@K@2@V?$allocator@U?$pair@$$CBKV?$vector@U__MONSTERSKILL@@V?$allocator@U__MONSTERSKILL@@@std@@@std@@@std@@@2@$0A@@std@@@2@@Z 00487dd0 f i aimonster.obj
 0001:00086dd0       ?_Lrotate@?$_Tree@V?$_Tmap_traits@EV?$vector@VCPoint@@V?$allocator@VCPoint@@@std@@@std@@U?$less@E@2@V?$allocator@U?$pair@$$CBEV?$vector@VCPoint@@V?$allocator@VCPoint@@@std@@@std@@@std@@@2@$0A@@std@@@std@@IAEXPAU_Node@?$_Tree_nod@V?$_Tmap_traits@EV?$vector@VCPoint@@V?$allocator@VCPoint@@@std@@@std@@U?$less@E@2@V?$allocator@U?$pair@$$CBEV?$vector@VCPoint@@V?$allocator@VCPoint@@@std@@@std@@@std@@@2@$0A@@std@@@2@@Z 00487dd0 f i Continent.obj
 0001:00086dd0       ?_Lrotate@?$_Tree@V?$_Tmap_traits@KV?$vector@U_VECINFO@@V?$allocator@U_VECINFO@@@std@@@std@@U?$less@K@2@V?$allocator@U?$pair@$$CBKV?$vector@U_VECINFO@@V?$allocator@U_VECINFO@@@std@@@std@@@std@@@2@$0A@@std@@@std@@IAEXPAU_Node@?$_Tree_nod@V?$_Tmap_traits@KV?$vector@U_VECINFO@@V?$allocator@U_VECINFO@@@std@@@std@@U?$less@K@2@V?$allocator@U?$pair@$$CBKV?$vector@U_VECINFO@@V?$allocator@U_VECINFO@@@std@@@std@@@std@@@2@$0A@@std@@@2@@Z 00487dd0 f i PathObj.obj
 0001:00086dd0       ?_Lrotate@?$_Tree@V?$_Tmap_traits@KV?$vector@UINSTACNEDUNGEON_INFO@@V?$allocator@UINSTACNEDUNGEON_INFO@@@std@@@std@@U?$less@K@2@V?$allocator@U?$pair@$$CBKV?$vector@UINSTACNEDUNGEON_INFO@@V?$allocator@UINSTACNEDUNGEON_INFO@@@std@@@std@@@std@@@2@$0A@@std@@@std@@IAEXPAU_Node@?$_Tree_nod@V?$_Tmap_traits@KV?$vector@UINSTACNEDUNGEON_INFO@@V?$allocator@UINSTACNEDUNGEON_INFO@@@std@@@std@@U?$less@K@2@V?$allocator@U?$pair@$$CBKV?$vector@UINSTACNEDUNGEON_INFO@@V?$allocator@UINSTACNEDUNGEON_INFO@@@std@@@std@@@std@@@2@$0A@@std@@@2@@Z 00487dd0 f i InstanceDungeonBase.obj
 0001:00086dd0       ?_Lrotate@?$_Tree@V?$_Tmap_traits@KV?$vector@UCOOLTIME_INFO@@V?$allocator@UCOOLTIME_INFO@@@std@@@std@@U?$less@K@2@V?$allocator@U?$pair@$$CBKV?$vector@UCOOLTIME_INFO@@V?$allocator@UCOOLTIME_INFO@@@std@@@std@@@std@@@2@$0A@@std@@@std@@IAEXPAU_Node@?$_Tree_nod@V?$_Tmap_traits@KV?$vector@UCOOLTIME_INFO@@V?$allocator@UCOOLTIME_INFO@@@std@@@std@@U?$less@K@2@V?$allocator@U?$pair@$$CBKV?$vector@UCOOLTIME_INFO@@V?$allocator@UCOOLTIME_INFO@@@std@@@std@@@std@@@2@$0A@@std@@@2@@Z 00487dd0 f i InstanceDungeonBase.obj
 0001:00086dd0       ?_Lrotate@?$_Tree@V?$_Tmap_traits@KV?$vector@KV?$allocator@K@std@@@std@@U?$less@K@2@V?$allocator@U?$pair@$$CBKV?$vector@KV?$allocator@K@std@@@std@@@std@@@2@$0A@@std@@@std@@IAEXPAU_Node@?$_Tree_nod@V?$_Tmap_traits@KV?$vector@KV?$allocator@K@std@@@std@@U?$less@K@2@V?$allocator@U?$pair@$$CBKV?$vector@KV?$allocator@K@std@@@std@@@std@@@2@$0A@@std@@@2@@Z 00487dd0 f i Housing.obj
 0001:00086e30       ??$_Copy_opt@PAU__ITEM@CExchange@@PAU12@@std@@YAPAU__ITEM@CExchange@@PAU12@00U_Nonscalar_ptr_iterator_tag@0@@Z 00487e30 f i Exchange.obj
 0001:00086e30       ??$_Copy_opt@PAU__SPAWNINFO@CEventLua@@PAU12@@std@@YAPAU__SPAWNINFO@CEventLua@@PAU12@00U_Nonscalar_ptr_iterator_tag@0@@Z 00487e30 f i EventLua.obj
 0001:00086e30       ??$_Copy_opt@Viterator@?$vector@U__SPAWNINFO@CEventLua@@V?$allocator@U__SPAWNINFO@CEventLua@@@std@@@std@@PAU__SPAWNINFO@CEventLua@@@std@@YAPAU__SPAWNINFO@CEventLua@@Viterator@?$vector@U__SPAWNINFO@CEventLua@@V?$allocator@U__SPAWNINFO@CEventLua@@@std@@@0@0PAU12@U_Nonscalar_ptr_iterator_tag@0@@Z 00487e30 f i EventLua.obj
 0001:00086e70       ?_Lrotate@?$_Tree@V?$_Tmap_traits@KPAVCGuildHouseBase@@U?$less@K@std@@V?$allocator@U?$pair@$$CBKPAVCGuildHouseBase@@@std@@@3@$0A@@std@@@std@@IAEXPAU_Node@?$_Tree_nod@V?$_Tmap_traits@KPAVCGuildHouseBase@@U?$less@K@std@@V?$allocator@U?$pair@$$CBKPAVCGuildHouseBase@@@std@@@3@$0A@@std@@@2@@Z 00487e70 f i GuildHouse.obj
 0001:00086e70       ?_Lrotate@?$_Tree@V?$_Tmap_traits@KPAVCChatting@@U?$less@K@std@@V?$allocator@U?$pair@$$CBKPAVCChatting@@@std@@@3@$0A@@std@@@std@@IAEXPAU_Node@?$_Tree_nod@V?$_Tmap_traits@KPAVCChatting@@U?$less@K@std@@V?$allocator@U?$pair@$$CBKPAVCChatting@@@std@@@3@$0A@@std@@@2@@Z 00487e70 f i Chatting.obj
 0001:00086e70       ?_Lrotate@?$_Tree@V?$_Tmap_traits@KPAVCClientSock@@U?$less@K@std@@V?$allocator@U?$pair@$$CBKPAVCClientSock@@@std@@@3@$0A@@std@@@std@@IAEXPAU_Node@?$_Tree_nod@V?$_Tmap_traits@KPAVCClientSock@@U?$less@K@std@@V?$allocator@U?$pair@$$CBKPAVCClientSock@@@std@@@3@$0A@@std@@@2@@Z 00487e70 f i serversock.obj
 0001:00086e70       ?_Lrotate@?$_Tree@V?$_Tmap_traits@KPAVCCampusMember@@U?$less@K@std@@V?$allocator@U?$pair@$$CBKPAVCCampusMember@@@std@@@3@$0A@@std@@@std@@IAEXPAU_Node@?$_Tree_nod@V?$_Tmap_traits@KPAVCCampusMember@@U?$less@K@std@@V?$allocator@U?$pair@$$CBKPAVCCampusMember@@@std@@@3@$0A@@std@@@2@@Z 00487e70 f i Campus.obj
 0001:00086e70       ?_Lrotate@?$_Tree@V?$_Tmap_traits@HPAVCSpawn@@U?$less@H@std@@V?$allocator@U?$pair@$$CBHPAVCSpawn@@@std@@@3@$0A@@std@@@std@@IAEXPAU_Node@?$_Tree_nod@V?$_Tmap_traits@HPAVCSpawn@@U?$less@H@std@@V?$allocator@U?$pair@$$CBHPAVCSpawn@@@std@@@3@$0A@@std@@@2@@Z 00487e70 f i spevent.obj
 0001:00086e70       ?_Lrotate@?$_Tree@V?$_Tmap_traits@HPAV?$list@PAVCEventItem@@V?$allocator@PAVCEventItem@@@std@@@std@@U?$less@H@2@V?$allocator@U?$pair@$$CBHPAV?$list@PAVCEventItem@@V?$allocator@PAVCEventItem@@@std@@@std@@@std@@@2@$0A@@std@@@std@@IAEXPAU_Node@?$_Tree_nod@V?$_Tmap_traits@HPAV?$list@PAVCEventItem@@V?$allocator@PAVCEventItem@@@std@@@std@@U?$less@H@2@V?$allocator@U?$pair@$$CBHPAV?$list@PAVCEventItem@@V?$allocator@PAVCEventItem@@@std@@@std@@@std@@@2@$0A@@std@@@2@@Z 00487e70 f i spevent.obj
 0001:00086e70       ?_Lrotate@?$_Tree@V?$_Tmap_traits@KEU?$less@K@std@@V?$allocator@U?$pair@$$CBKE@std@@@2@$0A@@std@@@std@@IAEXPAU_Node@?$_Tree_nod@V?$_Tmap_traits@KEU?$less@K@std@@V?$allocator@U?$pair@$$CBKE@std@@@2@$0A@@std@@@2@@Z 00487e70 f i EventLua.obj
 0001:00086e70       ?_Lrotate@?$_Tree@V?$_Tmap_traits@KPAVCUser@@U?$less@K@std@@V?$allocator@U?$pair@$$CBKPAVCUser@@@std@@@3@$0A@@std@@@std@@IAEXPAU_Node@?$_Tree_nod@V?$_Tmap_traits@KPAVCUser@@U?$less@K@std@@V?$allocator@U?$pair@$$CBKPAVCUser@@@std@@@3@$0A@@std@@@2@@Z 00487e70 f i LinkMap.obj
 0001:00086e70       ?_Lrotate@?$_Tree@V?$_Tmap_traits@KP8CDPSrvr@@AEXAAVCAr@@KKPAEK@ZU?$less@K@std@@V?$allocator@U?$pair@$$CBKP8CDPSrvr@@AEXAAVCAr@@KKPAEK@Z@std@@@4@$0A@@std@@@std@@IAEXPAU_Node@?$_Tree_nod@V?$_Tmap_traits@KP8CDPSrvr@@AEXAAVCAr@@KKPAEK@ZU?$less@K@std@@V?$allocator@U?$pair@$$CBKP8CDPSrvr@@AEXAAVCAr@@KKPAEK@Z@std@@@4@$0A@@std@@@2@@Z 00487e70 f i DPSrvr.obj
 0001:00086e70       ?_Lrotate@?$_Tree@V?$_Tmap_traits@EPAVCSecretRoomContinent@@U?$less@E@std@@V?$allocator@U?$pair@$$CBEPAVCSecretRoomContinent@@@std@@@3@$0A@@std@@@std@@IAEXPAU_Node@?$_Tree_nod@V?$_Tmap_traits@EPAVCSecretRoomContinent@@U?$less@E@std@@V?$allocator@U?$pair@$$CBEPAVCSecretRoomContinent@@@std@@@3@$0A@@std@@@2@@Z 00487e70 f i SecretRoom.obj
 0001:00086e70       ?_Lrotate@?$_Tree@V?$_Tmap_traits@KPAVCParty@@U?$less@K@std@@V?$allocator@U?$pair@$$CBKPAVCParty@@@std@@@3@$0A@@std@@@std@@IAEXPAU_Node@?$_Tree_nod@V?$_Tmap_traits@KPAVCParty@@U?$less@K@std@@V?$allocator@U?$pair@$$CBKPAVCParty@@@std@@@3@$0A@@std@@@2@@Z 00487e70 f i party.obj
 0001:00086e70       ?_Lrotate@?$_Tree@V?$_Tmap_traits@EPAU__TAXINFO@@U?$less@E@std@@V?$allocator@U?$pair@$$CBEPAU__TAXINFO@@@std@@@3@$0A@@std@@@std@@IAEXPAU_Node@?$_Tree_nod@V?$_Tmap_traits@EPAU__TAXINFO@@U?$less@E@std@@V?$allocator@U?$pair@$$CBEPAU__TAXINFO@@@std@@@3@$0A@@std@@@2@@Z 00487e70 f i Tax.obj
 0001:00086e70       ?_Lrotate@?$_Tree@V?$_Tmap_traits@KPAUAMP_STORE_INFO@@U?$less@K@std@@V?$allocator@U?$pair@$$CBKPAUAMP_STORE_INFO@@@std@@@3@$0A@@std@@@std@@IAEXPAU_Node@?$_Tree_nod@V?$_Tmap_traits@KPAUAMP_STORE_INFO@@U?$less@K@std@@V?$allocator@U?$pair@$$CBKPAUAMP_STORE_INFO@@@std@@@3@$0A@@std@@@2@@Z 00487e70 f i Project.obj
 0001:00086e70       ?_Lrotate@?$_Tree@V?$_Tmap_traits@KPAVCGuild@@U?$less@K@std@@V?$allocator@U?$pair@$$CBKPAVCGuild@@@std@@@3@$0A@@std@@@std@@IAEXPAU_Node@?$_Tree_nod@V?$_Tmap_traits@KPAVCGuild@@U?$less@K@std@@V?$allocator@U?$pair@$$CBKPAVCGuild@@@std@@@3@$0A@@std@@@2@@Z 00487e70 f i guild.obj
 0001:00086e70       ?_Lrotate@?$_Tree@V?$_Tmap_traits@KHU?$less@K@std@@V?$allocator@U?$pair@$$CBKH@std@@@2@$0A@@std@@@std@@IAEXPAU_Node@?$_Tree_nod@V?$_Tmap_traits@KHU?$less@K@std@@V?$allocator@U?$pair@$$CBKH@std@@@2@$0A@@std@@@2@@Z 00487e70 f i CreateMonster.obj
 0001:00086e70       ?_Lrotate@?$_Tree@V?$_Tmap_traits@KPAVCCtrl@@U?$less@K@std@@V?$allocator@U?$pair@$$CBKPAVCCtrl@@@std@@@3@$0A@@std@@@std@@IAEXPAU_Node@?$_Tree_nod@V?$_Tmap_traits@KPAVCCtrl@@U?$less@K@std@@V?$allocator@U?$pair@$$CBKPAVCCtrl@@@std@@@3@$0A@@std@@@2@@Z 00487e70 f i LinkMap.obj
 0001:00086e70       ?_Lrotate@?$_Tree@V?$_Tmap_traits@KPAVCColosseumMatch@@U?$less@K@std@@V?$allocator@U?$pair@$$CBKPAVCColosseumMatch@@@std@@@3@$0A@@std@@@std@@IAEXPAU_Node@?$_Tree_nod@V?$_Tmap_traits@KPAVCColosseumMatch@@U?$less@K@std@@V?$allocator@U?$pair@$$CBKPAVCColosseumMatch@@@std@@@3@$0A@@std@@@2@@Z 00487e70 f i Colosseum.obj
 0001:00086e70       ?_Lrotate@?$_Tree@V?$_Tmap_traits@KPAV?$vector@U_SINGLE_DST@@V?$allocator@U_SINGLE_DST@@@std@@@std@@U?$less@K@2@V?$allocator@U?$pair@$$CBKPAV?$vector@U_SINGLE_DST@@V?$allocator@U_SINGLE_DST@@@std@@@std@@@std@@@2@$0A@@std@@@std@@IAEXPAU_Node@?$_Tree_nod@V?$_Tmap_traits@KPAV?$vector@U_SINGLE_DST@@V?$allocator@U_SINGLE_DST@@@std@@@std@@U?$less@K@2@V?$allocator@U?$pair@$$CBKPAV?$vector@U_SINGLE_DST@@V?$allocator@U_SINGLE_DST@@@std@@@std@@@std@@@2@$0A@@std@@@2@@Z 00487e70 f i accessory.obj
 0001:00086e70       ?_Lrotate@?$_Tree@V?$_Tmap_traits@KPAU_PlayerData@@U?$less@K@std@@V?$allocator@U?$pair@$$CBKPAU_PlayerData@@@std@@@3@$0A@@std@@@std@@IAEXPAU_Node@?$_Tree_nod@V?$_Tmap_traits@KPAU_PlayerData@@U?$less@K@std@@V?$allocator@U?$pair@$$CBKPAU_PlayerData@@@std@@@3@$0A@@std@@@2@@Z 00487e70 f i playerdata.obj
 0001:00086e70       ?_Lrotate@?$_Tree@V?$_Tmap_traits@KPAVCGuildMember@@U?$less@K@std@@V?$allocator@U?$pair@$$CBKPAVCGuildMember@@@std@@@3@$0A@@std@@@std@@IAEXPAU_Node@?$_Tree_nod@V?$_Tmap_traits@KPAVCGuildMember@@U?$less@K@std@@V?$allocator@U?$pair@$$CBKPAVCGuildMember@@@std@@@3@$0A@@std@@@2@@Z 00487e70 f i guild.obj
 0001:00086e70       ?_Lrotate@?$_Tree@V?$_Tmap_traits@HHU?$less@H@std@@V?$allocator@U?$pair@$$CBHH@std@@@2@$00@std@@@std@@IAEXPAU_Node@?$_Tree_nod@V?$_Tmap_traits@HHU?$less@H@std@@V?$allocator@U?$pair@$$CBHH@std@@@2@$00@std@@@2@@Z 00487e70 f i GuildCombat1to1.obj
 0001:00086e70       ?_Lrotate@?$_Tree@V?$_Tmap_traits@KP8CDPCoreClient@@AEXAAVCAr@@KKK@ZU?$less@K@std@@V?$allocator@U?$pair@$$CBKP8CDPCoreClient@@AEXAAVCAr@@KKK@Z@std@@@4@$0A@@std@@@std@@IAEXPAU_Node@?$_Tree_nod@V?$_Tmap_traits@KP8CDPCoreClient@@AEXAAVCAr@@KKK@ZU?$less@K@std@@V?$allocator@U?$pair@$$CBKP8CDPCoreClient@@AEXAAVCAr@@KKK@Z@std@@@4@$0A@@std@@@2@@Z 00487e70 f i DPCoreClient.obj
 0001:00086e70       ?_Lrotate@?$_Tree@V?$_Tmap_traits@KPAVCRainbowRace@@U?$less@K@std@@V?$allocator@U?$pair@$$CBKPAVCRainbowRace@@@std@@@3@$0A@@std@@@std@@IAEXPAU_Node@?$_Tree_nod@V?$_Tmap_traits@KPAVCRainbowRace@@U?$less@K@std@@V?$allocator@U?$pair@$$CBKPAVCRainbowRace@@@std@@@3@$0A@@std@@@2@@Z 00487e70 f i RainbowRace.obj
 0001:00086e70       ?_Lrotate@?$_Tree@V?$_Tmap_traits@HPAVCLinkMap@@U?$less@H@std@@V?$allocator@U?$pair@$$CBHPAVCLinkMap@@@std@@@3@$0A@@std@@@std@@IAEXPAU_Node@?$_Tree_nod@V?$_Tmap_traits@HPAVCLinkMap@@U?$less@H@std@@V?$allocator@U?$pair@$$CBHPAVCLinkMap@@@std@@@3@$0A@@std@@@2@@Z 00487e70 f i layeredlinkmap.obj
 0001:00086e70       ?_Lrotate@?$_Tree@V?$_Tmap_traits@KP8CDPDatabaseClient@@AEXAAVCAr@@KK@ZU?$less@K@std@@V?$allocator@U?$pair@$$CBKP8CDPDatabaseClient@@AEXAAVCAr@@KK@Z@std@@@4@$0A@@std@@@std@@IAEXPAU_Node@?$_Tree_nod@V?$_Tmap_traits@KP8CDPDatabaseClient@@AEXAAVCAr@@KK@ZU?$less@K@std@@V?$allocator@U?$pair@$$CBKP8CDPDatabaseClient@@AEXAAVCAr@@KK@Z@std@@@4@$0A@@std@@@2@@Z 00487e70 f i DPDatabaseClient.obj
 0001:00086e70       ?_Lrotate@?$_Tree@V?$_Tmap_traits@EPAU__TAXDETAIL@@U?$less@E@std@@V?$allocator@U?$pair@$$CBEPAU__TAXDETAIL@@@std@@@3@$0A@@std@@@std@@IAEXPAU_Node@?$_Tree_nod@V?$_Tmap_traits@EPAU__TAXDETAIL@@U?$less@E@std@@V?$allocator@U?$pair@$$CBEPAU__TAXDETAIL@@@std@@@3@$0A@@std@@@2@@Z 00487e70 f i Tax.obj
 0001:00086e70       ?_Lrotate@?$_Tree@V?$_Tmap_traits@HPAVCTransformItemComponent@@U?$less@H@std@@V?$allocator@U?$pair@$$CBHPAVCTransformItemComponent@@@std@@@3@$0A@@std@@@std@@IAEXPAU_Node@?$_Tree_nod@V?$_Tmap_traits@HPAVCTransformItemComponent@@U?$less@H@std@@V?$allocator@U?$pair@$$CBHPAVCTransformItemComponent@@@std@@@3@$0A@@std@@@2@@Z 00487e70 f i pet.obj
 0001:00086e70       ?_Lrotate@?$_Tree@V?$_Tmap_traits@KPAVCSetItem@@U?$less@K@std@@V?$allocator@U?$pair@$$CBKPAVCSetItem@@@std@@@3@$0A@@std@@@std@@IAEXPAU_Node@?$_Tree_nod@V?$_Tmap_traits@KPAVCSetItem@@U?$less@K@std@@V?$allocator@U?$pair@$$CBKPAVCSetItem@@@std@@@3@$0A@@std@@@2@@Z 00487e70 f i Project.obj
 0001:00086e70       ?_Lrotate@?$_Tree@V?$_Tmap_traits@KKU?$less@K@std@@V?$allocator@U?$pair@$$CBKK@std@@@2@$0A@@std@@@std@@IAEXPAU_Node@?$_Tree_nod@V?$_Tmap_traits@KKU?$less@K@std@@V?$allocator@U?$pair@$$CBKK@std@@@2@$0A@@std@@@2@@Z 00487e70 f i Campus.obj
 0001:00086e70       ?_Lrotate@?$_Tree@V?$_Tmap_traits@HHU?$less@H@std@@V?$allocator@U?$pair@$$CBHH@std@@@2@$0A@@std@@@std@@IAEXPAU_Node@?$_Tree_nod@V?$_Tmap_traits@HHU?$less@H@std@@V?$allocator@U?$pair@$$CBHH@std@@@2@$0A@@std@@@2@@Z 00487e70 f i ItemUpgrade.obj
 0001:00086e70       ?_Lrotate@?$_Tree@V?$_Tmap_traits@KPAVCGuildWar@@U?$less@K@std@@V?$allocator@U?$pair@$$CBKPAVCGuildWar@@@std@@@3@$0A@@std@@@std@@IAEXPAU_Node@?$_Tree_nod@V?$_Tmap_traits@KPAVCGuildWar@@U?$less@K@std@@V?$allocator@U?$pair@$$CBKPAVCGuildWar@@@std@@@3@$0A@@std@@@2@@Z 00487e70 f i guildwar.obj
 0001:00086e70       ?_Lrotate@?$_Tree@V?$_Tmap_traits@HPAVCSetItem@@U?$less@H@std@@V?$allocator@U?$pair@$$CBHPAVCSetItem@@@std@@@3@$0A@@std@@@std@@IAEXPAU_Node@?$_Tree_nod@V?$_Tmap_traits@HPAVCSetItem@@U?$less@H@std@@V?$allocator@U?$pair@$$CBHPAVCSetItem@@@std@@@3@$0A@@std@@@2@@Z 00487e70 f i Project.obj
 0001:00086e70       ?_Lrotate@?$_Tree@V?$_Tmap_traits@HPAVCFSMstate@@U?$less@H@std@@V?$allocator@U?$pair@$$CBHPAVCFSMstate@@@std@@@3@$0A@@std@@@std@@IAEXPAU_Node@?$_Tree_nod@V?$_Tmap_traits@HPAVCFSMstate@@U?$less@H@std@@V?$allocator@U?$pair@$$CBHPAVCFSMstate@@@std@@@3@$0A@@std@@@2@@Z 00487e70 f i FSM.obj
 0001:00086e70       ?_Lrotate@?$_Tree@V?$_Tmap_traits@KPAVCCampus@@U?$less@K@std@@V?$allocator@U?$pair@$$CBKPAVCCampus@@@std@@@3@$0A@@std@@@std@@IAEXPAU_Node@?$_Tree_nod@V?$_Tmap_traits@KPAVCCampus@@U?$less@K@std@@V?$allocator@U?$pair@$$CBKPAVCCampus@@@std@@@3@$0A@@std@@@2@@Z 00487e70 f i Campus.obj
 0001:00086e70       ?_Lrotate@?$_Tree@V?$_Tmap_traits@KPAVCCouple@@U?$less@K@std@@V?$allocator@U?$pair@$$CBKPAVCCouple@@@std@@@3@$0A@@std@@@std@@IAEXPAU_Node@?$_Tree_nod@V?$_Tmap_traits@KPAVCCouple@@U?$less@K@std@@V?$allocator@U?$pair@$$CBKPAVCCouple@@@std@@@3@$0A@@std@@@2@@Z 00487e70 f i couple.obj
 0001:00086e70       ?_Lrotate@?$_Tree@V?$_Tmap_traits@PAVCSetItem@@HU?$less@PAVCSetItem@@@std@@V?$allocator@U?$pair@QAVCSetItem@@H@std@@@3@$0A@@std@@@std@@IAEXPAU_Node@?$_Tree_nod@V?$_Tmap_traits@PAVCSetItem@@HU?$less@PAVCSetItem@@@std@@V?$allocator@U?$pair@QAVCSetItem@@H@std@@@3@$0A@@std@@@2@@Z 00487e70 f i mover.obj
 0001:00086e70       ?_Lrotate@?$_Tree@V?$_Tmap_traits@KPAVCClientSockE@@U?$less@K@std@@V?$allocator@U?$pair@$$CBKPAVCClientSockE@@@std@@@3@$0A@@std@@@std@@IAEXPAU_Node@?$_Tree_nod@V?$_Tmap_traits@KPAVCClientSockE@@U?$less@K@std@@V?$allocator@U?$pair@$$CBKPAVCClientSockE@@@std@@@3@$0A@@std@@@2@@Z 00487e70 f i serversocke.obj
 0001:00086e70       ?_Lrotate@?$_Tree@V?$_Tmap_traits@HMU?$less@H@std@@V?$allocator@U?$pair@$$CBHM@std@@@2@$0A@@std@@@std@@IAEXPAU_Node@?$_Tree_nod@V?$_Tmap_traits@HMU?$less@H@std@@V?$allocator@U?$pair@$$CBHM@std@@@2@$0A@@std@@@2@@Z 00487e70 f i GuildHouse.obj
 0001:00086e70       ?_Lrotate@?$_Tree@V?$_Tmap_traits@HKU?$less@H@std@@V?$allocator@U?$pair@$$CBHK@std@@@2@$0A@@std@@@std@@IAEXPAU_Node@?$_Tree_nod@V?$_Tmap_traits@HKU?$less@H@std@@V?$allocator@U?$pair@$$CBHK@std@@@2@$0A@@std@@@2@@Z 00487e70 f i CampusHelper.obj
 0001:00086e70       ?_Lrotate@?$_Tree@V?$_Tmap_traits@HPAVCRespawner@@U?$less@H@std@@V?$allocator@U?$pair@$$CBHPAVCRespawner@@@std@@@3@$0A@@std@@@std@@IAEXPAU_Node@?$_Tree_nod@V?$_Tmap_traits@HPAVCRespawner@@U?$less@H@std@@V?$allocator@U?$pair@$$CBHPAVCRespawner@@@std@@@3@$0A@@std@@@2@@Z 00487e70 f i Respawn.obj
 0001:00086e70       ?_Lrotate@?$_Tree@V?$_Tmap_traits@KPAVCHousing@@U?$less@K@std@@V?$allocator@U?$pair@$$CBKPAVCHousing@@@std@@@3@$0A@@std@@@std@@IAEXPAU_Node@?$_Tree_nod@V?$_Tmap_traits@KPAVCHousing@@U?$less@K@std@@V?$allocator@U?$pair@$$CBKPAVCHousing@@@std@@@3@$0A@@std@@@2@@Z 00487e70 f i Housing.obj
 0001:00086e70       ?_Lrotate@?$_Tree@V?$_Tmap_traits@HV?$CStringT@DV?$StrTraitMFC@DV?$ChTraitsCRT@D@ATL@@@@@ATL@@U?$less@H@std@@V?$allocator@U?$pair@$$CBHV?$CStringT@DV?$StrTraitMFC@DV?$ChTraitsCRT@D@ATL@@@@@ATL@@@std@@@4@$0A@@std@@@std@@IAEXPAU_Node@?$_Tree_nod@V?$_Tmap_traits@HV?$CStringT@DV?$StrTraitMFC@DV?$ChTraitsCRT@D@ATL@@@@@ATL@@U?$less@H@std@@V?$allocator@U?$pair@$$CBHV?$CStringT@DV?$StrTraitMFC@DV?$ChTraitsCRT@D@ATL@@@@@ATL@@@std@@@4@$0A@@std@@@2@@Z 00487e70 f i MiniGame.obj
 0001:00086e70       ?_Lrotate@?$_Tree@V?$_Tmap_traits@KV?$CStringT@DV?$StrTraitMFC@DV?$ChTraitsCRT@D@ATL@@@@@ATL@@U?$less@K@std@@V?$allocator@U?$pair@$$CBKV?$CStringT@DV?$StrTraitMFC@DV?$ChTraitsCRT@D@ATL@@@@@ATL@@@std@@@4@$0A@@std@@@std@@IAEXPAU_Node@?$_Tree_nod@V?$_Tmap_traits@KV?$CStringT@DV?$StrTraitMFC@DV?$ChTraitsCRT@D@ATL@@@@@ATL@@U?$less@K@std@@V?$allocator@U?$pair@$$CBKV?$CStringT@DV?$StrTraitMFC@DV?$ChTraitsCRT@D@ATL@@@@@ATL@@@std@@@4@$0A@@std@@@2@@Z 00487e70 f i DPCoreClient.obj
 0001:00086e70       ?_Lrotate@?$_Tree@V?$_Tmap_traits@KPAUCREATE_MONSTER_PROP@@U?$less@K@std@@V?$allocator@U?$pair@$$CBKPAUCREATE_MONSTER_PROP@@@std@@@3@$0A@@std@@@std@@IAEXPAU_Node@?$_Tree_nod@V?$_Tmap_traits@KPAUCREATE_MONSTER_PROP@@U?$less@K@std@@V?$allocator@U?$pair@$$CBKPAUCREATE_MONSTER_PROP@@@std@@@3@$0A@@std@@@2@@Z 00487e70 f i CreateMonster.obj
 0001:00086e70       ?_Lrotate@?$_Tree@V?$_Tmap_traits@KPAVCMailBox@@U?$less@K@std@@V?$allocator@U?$pair@$$CBKPAVCMailBox@@@std@@@3@$0A@@std@@@std@@IAEXPAU_Node@?$_Tree_nod@V?$_Tmap_traits@KPAVCMailBox@@U?$less@K@std@@V?$allocator@U?$pair@$$CBKPAVCMailBox@@@std@@@3@$0A@@std@@@2@@Z 00487e70 f i post.obj
 0001:00086e70       ?_Lrotate@?$_Tree@V?$_Tmap_traits@KPAVIBuff@@U?$less@K@std@@V?$allocator@U?$pair@$$CBKPAVIBuff@@@std@@@3@$0A@@std@@@std@@IAEXPAU_Node@?$_Tree_nod@V?$_Tmap_traits@KPAVIBuff@@U?$less@K@std@@V?$allocator@U?$pair@$$CBKPAVIBuff@@@std@@@3@$0A@@std@@@2@@Z 00487e70 f i buff.obj
 0001:00086e70       ?_Lrotate@?$_Tree@V?$_Tmap_traits@KPAVCMover@@U?$less@K@std@@V?$allocator@U?$pair@$$CBKPAVCMover@@@std@@@3@$0A@@std@@@std@@IAEXPAU_Node@?$_Tree_nod@V?$_Tmap_traits@KPAVCMover@@U?$less@K@std@@V?$allocator@U?$pair@$$CBKPAVCMover@@@std@@@3@$0A@@std@@@2@@Z 00487e70 f i Project.obj
 0001:00086ed0       ??$_Uninit_copy@Vconst_iterator@?$vector@EV?$allocator@E@std@@@std@@PAEV?$allocator@E@3@@std@@YAPAEVconst_iterator@?$vector@EV?$allocator@E@std@@@0@0PAEAAV?$allocator@E@0@U_Nonscalar_ptr_iterator_tag@0@@Z 00487ed0 f i EventLua.obj
 0001:00086f00       ??$copy@Vconst_iterator@?$vector@EV?$allocator@E@std@@@std@@PAE@std@@YAPAEVconst_iterator@?$vector@EV?$allocator@E@std@@@0@0PAE@Z 00487f00 f i EventLua.obj
 0001:00086f20       ?_Erase@?$_Tree@V?$_Tmap_traits@KEU?$less@K@std@@V?$allocator@U?$pair@$$CBKE@std@@@2@$0A@@std@@@std@@IAEXPAU_Node@?$_Tree_nod@V?$_Tmap_traits@KEU?$less@K@std@@V?$allocator@U?$pair@$$CBKE@std@@@2@$0A@@std@@@2@@Z 00487f20 f i EventLua.obj
 0001:00086f60       ?SetLevelUpGift@CEventLua@@QAEXPAVCUser@@H@Z 00487f60 f   EventLua.obj
 0001:00087270       ?find@?$_Tree@V?$_Tmap_traits@EV?$vector@U__SPAWNINFO@CEventLua@@V?$allocator@U__SPAWNINFO@CEventLua@@@std@@@std@@U?$less@E@2@V?$allocator@U?$pair@$$CBEV?$vector@U__SPAWNINFO@CEventLua@@V?$allocator@U__SPAWNINFO@CEventLua@@@std@@@std@@@std@@@2@$0A@@std@@@std@@QAE?AViterator@12@ABE@Z 00488270 f i EventLua.obj
 0001:000872f0       ?_Ufill@?$vector@EV?$allocator@E@std@@@std@@IAEPAEPAEIABE@Z 004882f0 f i EventLua.obj
 0001:00087320       ?_Copy@?$_Tree@V?$_Tmap_traits@KHU?$less@K@std@@V?$allocator@U?$pair@$$CBKH@std@@@2@$0A@@std@@@std@@IAEPAU_Node@?$_Tree_nod@V?$_Tmap_traits@KHU?$less@K@std@@V?$allocator@U?$pair@$$CBKH@std@@@2@$0A@@std@@@2@PAU342@0@Z 00488320 f i EventLua.obj
 0001:000873d0       ?KeepConnectEventProcess@CEventLua@@QAEXXZ 004883d0 f   EventLua.obj
 0001:00087530       ??1CEventLuaProxy@@UAE@XZ  00488530 f   EventLua.obj
 0001:00087560       ?_Copy@?$_Tree@V?$_Tmap_traits@KHU?$less@K@std@@V?$allocator@U?$pair@$$CBKH@std@@@2@$0A@@std@@@std@@IAEXABV12@@Z 00488560 f i EventLua.obj
 0001:000875f0       ??_GCEventLuaProxy@@UAEPAXI@Z 004885f0 f i EventLua.obj
 0001:000875f0       ??_ECEventLuaProxy@@UAEPAXI@Z 004885f0 f i EventLua.obj
 0001:00087610       ??4?$basic_string@DU?$char_traits@D@std@@V?$allocator@D@2@@std@@QAEAAV01@PBD@Z 00488610 f i EventLua.obj
 0001:00087640       ?erase@?$_Tree@V?$_Tmap_traits@KEU?$less@K@std@@V?$allocator@U?$pair@$$CBKE@std@@@2@$0A@@std@@@std@@QAE?AViterator@12@V312@@Z 00488640 f i EventLua.obj
 0001:00087900       ?GetDesc@CEventLua@@QAE?AV?$basic_string@DU?$char_traits@D@std@@V?$allocator@D@2@@std@@E@Z 00488900 f   EventLua.obj
 0001:00087a40       ?GetAllEventList@CEventLua@@QAEXPAVCUser@@@Z 00488a40 f   EventLua.obj
 0001:00087c30       ?DeleteEndEventProcess@CEventLua@@QAEXXZ 00488c30 f   EventLua.obj
 0001:00087ee0       ?GetWeatherEventTitle@CEventLua@@QAE?AV?$basic_string@DU?$char_traits@D@std@@V?$allocator@D@2@@std@@XZ 00488ee0 f   EventLua.obj
 0001:00088000       ?_Insert@?$_Tree@V?$_Tmap_traits@KEU?$less@K@std@@V?$allocator@U?$pair@$$CBKE@std@@@2@$0A@@std@@@std@@IAE?AViterator@12@_NPAU_Node@?$_Tree_nod@V?$_Tmap_traits@KEU?$less@K@std@@V?$allocator@U?$pair@$$CBKE@std@@@2@$0A@@std@@@2@ABU?$pair@$$CBKE@2@@Z 00489000 f i EventLua.obj
 0001:000881b0       ?_Insert_n@?$vector@EV?$allocator@E@std@@@std@@IAEXViterator@12@IABE@Z 004891b0 f i EventLua.obj
 0001:00088380       ?_Xlen@?$vector@EV?$allocator@E@std@@@std@@IBEXXZ 00489380 f i EventLua.obj
 0001:00088380       ?_Xlen@?$vector@U__SPAWNINFO@CEventLua@@V?$allocator@U__SPAWNINFO@CEventLua@@@std@@@std@@IBEXXZ 00489380 f i EventLua.obj
 0001:000883f0       ??$_Insert@Vconst_iterator@?$vector@EV?$allocator@E@std@@@std@@@?$vector@EV?$allocator@E@std@@@std@@QAEXViterator@01@Vconst_iterator@01@1Uforward_iterator_tag@1@@Z 004893f0 f i EventLua.obj
 0001:00088620       ??$_Insert@Viterator@?$vector@U__SPAWNINFO@CEventLua@@V?$allocator@U__SPAWNINFO@CEventLua@@@std@@@std@@@?$vector@U__SPAWNINFO@CEventLua@@V?$allocator@U__SPAWNINFO@CEventLua@@@std@@@std@@QAEXViterator@01@00Uforward_iterator_tag@1@@Z 00489620 f i EventLua.obj
 0001:00088870       ?erase@?$_Tree@V?$_Tmap_traits@KEU?$less@K@std@@V?$allocator@U?$pair@$$CBKE@std@@@2@$0A@@std@@@std@@QAE?AViterator@12@V312@0@Z 00489870 f i EventLua.obj
 0001:00088930       ?GetEventInfo@CEventLua@@QAEXPAVCUser@@H@Z 00489930 f   EventLua.obj
 0001:00088a50       ?insert@?$_Tree@V?$_Tmap_traits@KEU?$less@K@std@@V?$allocator@U?$pair@$$CBKE@std@@@2@$0A@@std@@@std@@QAE?AU?$pair@Viterator@?$_Tree@V?$_Tmap_traits@KEU?$less@K@std@@V?$allocator@U?$pair@$$CBKE@std@@@2@$0A@@std@@@std@@_N@2@ABU?$pair@$$CBKE@2@@Z 00489a50 f i EventLua.obj
 0001:00088b10       ?_Insert_n@?$vector@U__SPAWNINFO@CEventLua@@V?$allocator@U__SPAWNINFO@CEventLua@@@std@@@std@@IAEXViterator@12@IABU__SPAWNINFO@CEventLua@@@Z 00489b10 f i EventLua.obj
 0001:00088d80       ??0?$vector@EV?$allocator@E@std@@@std@@QAE@ABV01@@Z 00489d80 f i EventLua.obj
 0001:00088e30       ?EventSpawnProcess@CEventLua@@QAEXXZ 00489e30 f   EventLua.obj
 0001:00089260       ?GetKeepConnectItem@CEventLua@@QAEXXZ 0048a260 f   EventLua.obj
 0001:00089350       ?push_back@?$vector@EV?$allocator@E@std@@@std@@QAEXABE@Z 0048a350 f i EventLua.obj
 0001:000893a0       ??0?$_Tree@V?$_Tmap_traits@KHU?$less@K@std@@V?$allocator@U?$pair@$$CBKH@std@@@2@$0A@@std@@@std@@QAE@ABV01@@Z 0048a3a0 f i EventLua.obj
 0001:00089430       ??0?$vector@U__SPAWNINFO@CEventLua@@V?$allocator@U__SPAWNINFO@CEventLua@@@std@@@std@@QAE@ABV01@@Z 0048a430 f i EventLua.obj
 0001:000894f0       ?GetEventList@CEventLuaProxy@@QAE?AV?$vector@EV?$allocator@E@std@@@std@@XZ 0048a4f0 f i EventLua.obj
 0001:00089510       ??1?$map@KEU?$less@K@std@@V?$allocator@U?$pair@$$CBKE@std@@@2@@std@@QAE@XZ 0048a510 f i EventLua.obj
 0001:00089540       ?GetEventList@CEventLua@@QAE?AV?$vector@EV?$allocator@E@std@@@std@@H@Z 0048a540 f   EventLua.obj
 0001:000896e0       ?SetKeepConnectEvent@CEventLua@@QAEXPAVCUser@@K@Z 0048a6e0 f   EventLua.obj
 0001:00089740       ?push_back@?$vector@U__SPAWNINFO@CEventLua@@V?$allocator@U__SPAWNINFO@CEventLua@@@std@@@std@@QAEXABU__SPAWNINFO@CEventLua@@@Z 0048a740 f i EventLua.obj
 0001:000897b0       ??$make_pair@EV?$vector@U__SPAWNINFO@CEventLua@@V?$allocator@U__SPAWNINFO@CEventLua@@@std@@@std@@@std@@YA?AU?$pair@EV?$vector@U__SPAWNINFO@CEventLua@@V?$allocator@U__SPAWNINFO@CEventLua@@@std@@@std@@@0@EV?$vector@U__SPAWNINFO@CEventLua@@V?$allocator@U__SPAWNINFO@CEventLua@@@std@@@0@@Z 0048a7b0 f i EventLua.obj
 0001:00089820       ??$assign@Viterator@?$vector@U__SPAWNINFO@CEventLua@@V?$allocator@U__SPAWNINFO@CEventLua@@@std@@@std@@@?$vector@U__SPAWNINFO@CEventLua@@V?$allocator@U__SPAWNINFO@CEventLua@@@std@@@std@@QAEXViterator@01@0@Z 0048a820 f i EventLua.obj
 0001:00089860       ?GetItem@CEventLua@@QAE?AV?$map@KHU?$less@K@std@@V?$allocator@U?$pair@$$CBKH@std@@@2@@std@@K@Z 0048a860 f   EventLua.obj
 0001:00089a90       ?Initialize@CEventLuaProxy@@QAEXPAVCEventLua@@@Z 0048aa90 f   EventLua.obj
 0001:00089f60       ?erase@?$_Tree@V?$_Tmap_traits@EV?$vector@U__SPAWNINFO@CEventLua@@V?$allocator@U__SPAWNINFO@CEventLua@@@std@@@std@@U?$less@E@2@V?$allocator@U?$pair@$$CBEV?$vector@U__SPAWNINFO@CEventLua@@V?$allocator@U__SPAWNINFO@CEventLua@@@std@@@std@@@std@@@2@$0A@@std@@@std@@QAE?AViterator@12@V312@@Z 0048af60 f i EventLua.obj
 0001:0008a240       ?_Erase@?$_Tree@V?$_Tmap_traits@EV?$vector@U__SPAWNINFO@CEventLua@@V?$allocator@U__SPAWNINFO@CEventLua@@@std@@@std@@U?$less@E@2@V?$allocator@U?$pair@$$CBEV?$vector@U__SPAWNINFO@CEventLua@@V?$allocator@U__SPAWNINFO@CEventLua@@@std@@@std@@@std@@@2@$0A@@std@@@std@@IAEXPAU_Node@?$_Tree_nod@V?$_Tmap_traits@EV?$vector@U__SPAWNINFO@CEventLua@@V?$allocator@U__SPAWNINFO@CEventLua@@@std@@@std@@U?$less@E@2@V?$allocator@U?$pair@$$CBEV?$vector@U__SPAWNINFO@CEventLua@@V?$allocator@U__SPAWNINFO@CEventLua@@@std@@@std@@@std@@@2@$0A@@std@@@2@@Z 0048b240 f i EventLua.obj
 0001:0008a280       ?_Buynode@?$_Tree@V?$_Tmap_traits@EV?$vector@U__SPAWNINFO@CEventLua@@V?$allocator@U__SPAWNINFO@CEventLua@@@std@@@std@@U?$less@E@2@V?$allocator@U?$pair@$$CBEV?$vector@U__SPAWNINFO@CEventLua@@V?$allocator@U__SPAWNINFO@CEventLua@@@std@@@std@@@std@@@2@$0A@@std@@@std@@IAEPAU_Node@?$_Tree_nod@V?$_Tmap_traits@EV?$vector@U__SPAWNINFO@CEventLua@@V?$allocator@U__SPAWNINFO@CEventLua@@@std@@@std@@U?$less@E@2@V?$allocator@U?$pair@$$CBEV?$vector@U__SPAWNINFO@CEventLua@@V?$allocator@U__SPAWNINFO@CEventLua@@@std@@@std@@@std@@@2@$0A@@std@@@2@PAU342@00ABU?$pair@$$CBEV?$vector@U__SPAWNINFO@CEventLua@@V?$allocator@U__SPAWNINFO@CEventLua@@@std@@@std@@@2@D@Z 0048b280 f i EventLua.obj
 0001:0008a320       ?_Insert@?$_Tree@V?$_Tmap_traits@EV?$vector@U__SPAWNINFO@CEventLua@@V?$allocator@U__SPAWNINFO@CEventLua@@@std@@@std@@U?$less@E@2@V?$allocator@U?$pair@$$CBEV?$vector@U__SPAWNINFO@CEventLua@@V?$allocator@U__SPAWNINFO@CEventLua@@@std@@@std@@@std@@@2@$0A@@std@@@std@@IAE?AViterator@12@_NPAU_Node@?$_Tree_nod@V?$_Tmap_traits@EV?$vector@U__SPAWNINFO@CEventLua@@V?$allocator@U__SPAWNINFO@CEventLua@@@std@@@std@@U?$less@E@2@V?$allocator@U?$pair@$$CBEV?$vector@U__SPAWNINFO@CEventLua@@V?$allocator@U__SPAWNINFO@CEventLua@@@std@@@std@@@std@@@2@$0A@@std@@@2@ABU?$pair@$$CBEV?$vector@U__SPAWNINFO@CEventLua@@V?$allocator@U__SPAWNINFO@CEventLua@@@std@@@std@@@2@@Z 0048b320 f i EventLua.obj
 0001:0008a4d0       ?erase@?$_Tree@V?$_Tmap_traits@EV?$vector@U__SPAWNINFO@CEventLua@@V?$allocator@U__SPAWNINFO@CEventLua@@@std@@@std@@U?$less@E@2@V?$allocator@U?$pair@$$CBEV?$vector@U__SPAWNINFO@CEventLua@@V?$allocator@U__SPAWNINFO@CEventLua@@@std@@@std@@@std@@@2@$0A@@std@@@std@@QAE?AViterator@12@V312@0@Z 0048b4d0 f i EventLua.obj
 0001:0008a590       ?LoadScript@CEventLua@@QAEXXZ 0048b590 f   EventLua.obj
 0001:0008a660       ?insert@?$_Tree@V?$_Tmap_traits@EV?$vector@U__SPAWNINFO@CEventLua@@V?$allocator@U__SPAWNINFO@CEventLua@@@std@@@std@@U?$less@E@2@V?$allocator@U?$pair@$$CBEV?$vector@U__SPAWNINFO@CEventLua@@V?$allocator@U__SPAWNINFO@CEventLua@@@std@@@std@@@std@@@2@$0A@@std@@@std@@QAE?AU?$pair@Viterator@?$_Tree@V?$_Tmap_traits@EV?$vector@U__SPAWNINFO@CEventLua@@V?$allocator@U__SPAWNINFO@CEventLua@@@std@@@std@@U?$less@E@2@V?$allocator@U?$pair@$$CBEV?$vector@U__SPAWNINFO@CEventLua@@V?$allocator@U__SPAWNINFO@CEventLua@@@std@@@std@@@std@@@2@$0A@@std@@@std@@_N@2@ABU?$pair@$$CBEV?$vector@U__SPAWNINFO@CEventLua@@V?$allocator@U__SPAWNINFO@CEventLua@@@std@@@std@@@2@@Z 0048b660 f i EventLua.obj
 0001:0008a720       ?SetSpawnEvent@CEventLua@@AAEXEH@Z 0048b720 f   EventLua.obj
 0001:0008a9e0       ??1?$map@EV?$vector@U__SPAWNINFO@CEventLua@@V?$allocator@U__SPAWNINFO@CEventLua@@@std@@@std@@U?$less@E@2@V?$allocator@U?$pair@$$CBEV?$vector@U__SPAWNINFO@CEventLua@@V?$allocator@U__SPAWNINFO@CEventLua@@@std@@@std@@@std@@@2@@std@@QAE@XZ 0048b9e0 f i EventLua.obj
 0001:0008aa10       ??1CEventLua@@UAE@XZ       0048ba10 f   EventLua.obj
 0001:0008acc0       ?SetState@CEventLua@@QAEXEH@Z 0048bcc0 f   EventLua.obj
 0001:0008ad60       ??0CEventLua@@QAE@XZ       0048bd60 f   EventLua.obj
 0001:0008aec0       ??_GCEventLua@@UAEPAXI@Z   0048bec0 f i EventLua.obj
 0001:0008aec0       ??_ECEventLua@@UAEPAXI@Z   0048bec0 f i EventLua.obj
 0001:0008aee0       ?_Rrotate@?$_Tree@V?$_Tmap_traits@KV?$queue@USFXHIT_INFO@@V?$deque@USFXHIT_INFO@@V?$allocator@USFXHIT_INFO@@@std@@@std@@@std@@U?$less@K@2@V?$allocator@U?$pair@$$CBKV?$queue@USFXHIT_INFO@@V?$deque@USFXHIT_INFO@@V?$allocator@USFXHIT_INFO@@@std@@@std@@@std@@@std@@@2@$0A@@std@@@std@@IAEXPAU_Node@?$_Tree_nod@V?$_Tmap_traits@KV?$queue@USFXHIT_INFO@@V?$deque@USFXHIT_INFO@@V?$allocator@USFXHIT_INFO@@@std@@@std@@@std@@U?$less@K@2@V?$allocator@U?$pair@$$CBKV?$queue@USFXHIT_INFO@@V?$deque@USFXHIT_INFO@@V?$allocator@USFXHIT_INFO@@@std@@@std@@@std@@@std@@@2@$0A@@std@@@2@@Z 0048bee0 f i mover.obj
 0001:0008aee0       ?_Rrotate@?$_Tree@V?$_Tmap_traits@HU__MAKEGEMPROB@CUltimateWeapon@@U?$less@H@std@@V?$allocator@U?$pair@$$CBHU__MAKEGEMPROB@CUltimateWeapon@@@std@@@4@$0A@@std@@@std@@IAEXPAU_Node@?$_Tree_nod@V?$_Tmap_traits@HU__MAKEGEMPROB@CUltimateWeapon@@U?$less@H@std@@V?$allocator@U?$pair@$$CBHU__MAKEGEMPROB@CUltimateWeapon@@@std@@@4@$0A@@std@@@2@@Z 0048bee0 f i UltimateWeapon.obj
 0001:0008aee0       ?_Rrotate@?$_Tree@V?$_Tmap_traits@HU__KAWIBAWIBO@CMiniGame@@U?$less@H@std@@V?$allocator@U?$pair@$$CBHU__KAWIBAWIBO@CMiniGame@@@std@@@4@$0A@@std@@@std@@IAEXPAU_Node@?$_Tree_nod@V?$_Tmap_traits@HU__KAWIBAWIBO@CMiniGame@@U?$less@H@std@@V?$allocator@U?$pair@$$CBHU__KAWIBAWIBO@CMiniGame@@@std@@@4@$0A@@std@@@2@@Z 0048bee0 f i MiniGame.obj
 0001:0008aee0       ?_Rrotate@?$_Tree@V?$_Tmap_traits@KU__EVENTMONSTER@CEventMonster@@U?$less@K@std@@V?$allocator@U?$pair@$$CBKU__EVENTMONSTER@CEventMonster@@@std@@@4@$0A@@std@@@std@@IAEXPAU_Node@?$_Tree_nod@V?$_Tmap_traits@KU__EVENTMONSTER@CEventMonster@@U?$less@K@std@@V?$allocator@U?$pair@$$CBKU__EVENTMONSTER@CEventMonster@@@std@@@4@$0A@@std@@@2@@Z 0048bee0 f i EventMonster.obj
 0001:0008aee0       ?_Rrotate@?$_Tree@V?$_Tmap_traits@KV?$queue@USFXHIT_COUNT@@V?$deque@USFXHIT_COUNT@@V?$allocator@USFXHIT_COUNT@@@std@@@std@@@std@@U?$less@K@2@V?$allocator@U?$pair@$$CBKV?$queue@USFXHIT_COUNT@@V?$deque@USFXHIT_COUNT@@V?$allocator@USFXHIT_COUNT@@@std@@@std@@@std@@@std@@@2@$0A@@std@@@std@@IAEXPAU_Node@?$_Tree_nod@V?$_Tmap_traits@KV?$queue@USFXHIT_COUNT@@V?$deque@USFXHIT_COUNT@@V?$allocator@USFXHIT_COUNT@@@std@@@std@@@std@@U?$less@K@2@V?$allocator@U?$pair@$$CBKV?$queue@USFXHIT_COUNT@@V?$deque@USFXHIT_COUNT@@V?$allocator@USFXHIT_COUNT@@@std@@@std@@@std@@@std@@@2@$0A@@std@@@2@@Z 0048bee0 f i mover.obj
 0001:0008af40       ?_Dec@const_iterator@?$_Tree@V?$_Tmap_traits@KV?$queue@USFXHIT_COUNT@@V?$deque@USFXHIT_COUNT@@V?$allocator@USFXHIT_COUNT@@@std@@@std@@@std@@U?$less@K@2@V?$allocator@U?$pair@$$CBKV?$queue@USFXHIT_COUNT@@V?$deque@USFXHIT_COUNT@@V?$allocator@USFXHIT_COUNT@@@std@@@std@@@std@@@std@@@2@$0A@@std@@@std@@QAEXXZ 0048bf40 f i MoverAttack.obj
 0001:0008af40       ?_Dec@const_iterator@?$_Tree@V?$_Tmap_traits@KV?$queue@USFXHIT_INFO@@V?$deque@USFXHIT_INFO@@V?$allocator@USFXHIT_INFO@@@std@@@std@@@std@@U?$less@K@2@V?$allocator@U?$pair@$$CBKV?$queue@USFXHIT_INFO@@V?$deque@USFXHIT_INFO@@V?$allocator@USFXHIT_INFO@@@std@@@std@@@std@@@std@@@2@$0A@@std@@@std@@QAEXXZ 0048bf40 f i MoverAttack.obj
 0001:0008af40       ?_Dec@const_iterator@?$_Tree@V?$_Tmap_traits@HU__KAWIBAWIBO@CMiniGame@@U?$less@H@std@@V?$allocator@U?$pair@$$CBHU__KAWIBAWIBO@CMiniGame@@@std@@@4@$0A@@std@@@std@@QAEXXZ 0048bf40 f i MiniGame.obj
 0001:0008af40       ?_Dec@const_iterator@?$_Tree@V?$_Tmap_traits@HU__MAKEGEMPROB@CUltimateWeapon@@U?$less@H@std@@V?$allocator@U?$pair@$$CBHU__MAKEGEMPROB@CUltimateWeapon@@@std@@@4@$0A@@std@@@std@@QAEXXZ 0048bf40 f i UltimateWeapon.obj
 0001:0008af40       ?_Dec@const_iterator@?$_Tree@V?$_Tmap_traits@KU__EVENTMONSTER@CEventMonster@@U?$less@K@std@@V?$allocator@U?$pair@$$CBKU__EVENTMONSTER@CEventMonster@@@std@@@4@$0A@@std@@@std@@QAEXXZ 0048bf40 f i EventMonster.obj
 0001:0008afa0       ?_Buynode@?$_Tree@V?$_Tmap_traits@KU__EVENTMONSTER@CEventMonster@@U?$less@K@std@@V?$allocator@U?$pair@$$CBKU__EVENTMONSTER@CEventMonster@@@std@@@4@$0A@@std@@@std@@IAEPAU_Node@?$_Tree_nod@V?$_Tmap_traits@KU__EVENTMONSTER@CEventMonster@@U?$less@K@std@@V?$allocator@U?$pair@$$CBKU__EVENTMONSTER@CEventMonster@@@std@@@4@$0A@@std@@@2@XZ 0048bfa0 f i EventMonster.obj
 0001:0008afa0       ?_Buynode@?$_Tree@V?$_Tmap_traits@KV?$queue@USFXHIT_INFO@@V?$deque@USFXHIT_INFO@@V?$allocator@USFXHIT_INFO@@@std@@@std@@@std@@U?$less@K@2@V?$allocator@U?$pair@$$CBKV?$queue@USFXHIT_INFO@@V?$deque@USFXHIT_INFO@@V?$allocator@USFXHIT_INFO@@@std@@@std@@@std@@@std@@@2@$0A@@std@@@std@@IAEPAU_Node@?$_Tree_nod@V?$_Tmap_traits@KV?$queue@USFXHIT_INFO@@V?$deque@USFXHIT_INFO@@V?$allocator@USFXHIT_INFO@@@std@@@std@@@std@@U?$less@K@2@V?$allocator@U?$pair@$$CBKV?$queue@USFXHIT_INFO@@V?$deque@USFXHIT_INFO@@V?$allocator@USFXHIT_INFO@@@std@@@std@@@std@@@std@@@2@$0A@@std@@@2@XZ 0048bfa0 f i mover.obj
 0001:0008afa0       ?_Buynode@?$_Tree@V?$_Tmap_traits@HU__KAWIBAWIBO@CMiniGame@@U?$less@H@std@@V?$allocator@U?$pair@$$CBHU__KAWIBAWIBO@CMiniGame@@@std@@@4@$0A@@std@@@std@@IAEPAU_Node@?$_Tree_nod@V?$_Tmap_traits@HU__KAWIBAWIBO@CMiniGame@@U?$less@H@std@@V?$allocator@U?$pair@$$CBHU__KAWIBAWIBO@CMiniGame@@@std@@@4@$0A@@std@@@2@XZ 0048bfa0 f i MiniGame.obj
 0001:0008afa0       ?_Buynode@?$_Tree@V?$_Tmap_traits@KV?$queue@USFXHIT_COUNT@@V?$deque@USFXHIT_COUNT@@V?$allocator@USFXHIT_COUNT@@@std@@@std@@@std@@U?$less@K@2@V?$allocator@U?$pair@$$CBKV?$queue@USFXHIT_COUNT@@V?$deque@USFXHIT_COUNT@@V?$allocator@USFXHIT_COUNT@@@std@@@std@@@std@@@std@@@2@$0A@@std@@@std@@IAEPAU_Node@?$_Tree_nod@V?$_Tmap_traits@KV?$queue@USFXHIT_COUNT@@V?$deque@USFXHIT_COUNT@@V?$allocator@USFXHIT_COUNT@@@std@@@std@@@std@@U?$less@K@2@V?$allocator@U?$pair@$$CBKV?$queue@USFXHIT_COUNT@@V?$deque@USFXHIT_COUNT@@V?$allocator@USFXHIT_COUNT@@@std@@@std@@@std@@@std@@@2@$0A@@std@@@2@XZ 0048bfa0 f i mover.obj
 0001:0008afa0       ?_Buynode@?$_Tree@V?$_Tmap_traits@HU__MAKEGEMPROB@CUltimateWeapon@@U?$less@H@std@@V?$allocator@U?$pair@$$CBHU__MAKEGEMPROB@CUltimateWeapon@@@std@@@4@$0A@@std@@@std@@IAEPAU_Node@?$_Tree_nod@V?$_Tmap_traits@HU__MAKEGEMPROB@CUltimateWeapon@@U?$less@H@std@@V?$allocator@U?$pair@$$CBHU__MAKEGEMPROB@CUltimateWeapon@@@std@@@4@$0A@@std@@@2@XZ 0048bfa0 f i UltimateWeapon.obj
 0001:0008afe0       ?_Erase@?$_Tree@V?$_Tmap_traits@KU__EVENTMONSTER@CEventMonster@@U?$less@K@std@@V?$allocator@U?$pair@$$CBKU__EVENTMONSTER@CEventMonster@@@std@@@4@$0A@@std@@@std@@IAEXPAU_Node@?$_Tree_nod@V?$_Tmap_traits@KU__EVENTMONSTER@CEventMonster@@U?$less@K@std@@V?$allocator@U?$pair@$$CBKU__EVENTMONSTER@CEventMonster@@@std@@@4@$0A@@std@@@2@@Z 0048bfe0 f i EventMonster.obj
 0001:0008b020       ?IsPetAble@CEventMonster@@QAEHXZ 0048c020 f   EventMonster.obj
 0001:0008b030       ?IsGiftBoxAble@CEventMonster@@QAEHXZ 0048c030 f   EventMonster.obj
 0001:0008b040       ?GetLootTime@CEventMonster@@QAEKXZ 0048c040 f   EventMonster.obj
 0001:0008b050       ?GetLevelGap@CEventMonster@@QAEHXZ 0048c050 f   EventMonster.obj
 0001:0008b070       ?GetItemDropRange@CEventMonster@@QAEMXZ 0048c070 f   EventMonster.obj
 0001:0008b090       ?IsEventMonster@CEventMonster@@QAEHK@Z 0048c090 f   EventMonster.obj
 0001:0008b0c0       ?SetEventMonster@CEventMonster@@QAEHK@Z 0048c0c0 f   EventMonster.obj
 0001:0008b0f0       ?_Insert@?$_Tree@V?$_Tmap_traits@KU__EVENTMONSTER@CEventMonster@@U?$less@K@std@@V?$allocator@U?$pair@$$CBKU__EVENTMONSTER@CEventMonster@@@std@@@4@$0A@@std@@@std@@IAE?AViterator@12@_NPAU_Node@?$_Tree_nod@V?$_Tmap_traits@KU__EVENTMONSTER@CEventMonster@@U?$less@K@std@@V?$allocator@U?$pair@$$CBKU__EVENTMONSTER@CEventMonster@@@std@@@4@$0A@@std@@@2@ABU?$pair@$$CBKU__EVENTMONSTER@CEventMonster@@@2@@Z 0048c0f0 f i EventMonster.obj
 0001:0008b2a0       ?erase@?$_Tree@V?$_Tmap_traits@KU__EVENTMONSTER@CEventMonster@@U?$less@K@std@@V?$allocator@U?$pair@$$CBKU__EVENTMONSTER@CEventMonster@@@std@@@4@$0A@@std@@@std@@QAE?AViterator@12@V312@@Z 0048c2a0 f i EventMonster.obj
 0001:0008b560       ?insert@?$_Tree@V?$_Tmap_traits@KU__EVENTMONSTER@CEventMonster@@U?$less@K@std@@V?$allocator@U?$pair@$$CBKU__EVENTMONSTER@CEventMonster@@@std@@@4@$0A@@std@@@std@@QAE?AU?$pair@Viterator@?$_Tree@V?$_Tmap_traits@KU__EVENTMONSTER@CEventMonster@@U?$less@K@std@@V?$allocator@U?$pair@$$CBKU__EVENTMONSTER@CEventMonster@@@std@@@4@$0A@@std@@@std@@_N@2@ABU?$pair@$$CBKU__EVENTMONSTER@CEventMonster@@@2@@Z 0048c560 f i EventMonster.obj
 0001:0008b620       ?erase@?$_Tree@V?$_Tmap_traits@KU__EVENTMONSTER@CEventMonster@@U?$less@K@std@@V?$allocator@U?$pair@$$CBKU__EVENTMONSTER@CEventMonster@@@std@@@4@$0A@@std@@@std@@QAE?AViterator@12@V312@0@Z 0048c620 f i EventMonster.obj
 0001:0008b6e0       ?LoadScript@CEventMonster@@QAEXXZ 0048c6e0 f   EventMonster.obj
 0001:0008b870       ??1CEventMonster@@UAE@XZ   0048c870 f   EventMonster.obj
 0001:0008b8b0       ??_GCEventMonster@@UAEPAXI@Z 0048c8b0 f i EventMonster.obj
 0001:0008b8b0       ??_ECEventMonster@@UAEPAXI@Z 0048c8b0 f i EventMonster.obj
 0001:0008b8d0       ?GetInstance@CEventMonster@@SAPAV1@XZ 0048c8d0 f   EventMonster.obj
 0001:0008b970       ?SendGuildCombatEnterTime@CGuildCombat@@QAEXXZ 0048c970 f   eveschool.obj
 0001:0008b990       ??$fill@PAU__GCGETPOINT@CGuildCombat@@U12@@std@@YAXPAU__GCGETPOINT@CGuildCombat@@0ABU12@@Z 0048c990 f i eveschool.obj
 0001:0008b9c0       ?LoadPos@CEveSchool@@QAEHPBD@Z 0048c9c0 f   eveschool.obj
 0001:0008bb20       ?GetInstance@CEveSchool@@SAPAV1@XZ 0048cb20 f   eveschool.obj
 0001:0008bb60       ?SetNpc@CGuildCombat@@QAEXXZ 0048cb60 f   eveschool.obj
 0001:0008bc80       ?GetNextGuildCobmatTime@CGuildCombat@@QAE?AVCTime@ATL@@XZ 0048cc80 f   eveschool.obj
 0001:0008be70       ??$copy_backward@PAU__GCGETPOINT@CGuildCombat@@PAU12@@std@@YAPAU__GCGETPOINT@CGuildCombat@@PAU12@00@Z 0048ce70 f i eveschool.obj
 0001:0008bea0       ??$_Uninit_copy@PAU__GCGETPOINT@CGuildCombat@@PAU12@V?$allocator@U__GCGETPOINT@CGuildCombat@@@std@@@std@@YAPAU__GCGETPOINT@CGuildCombat@@PAU12@00AAV?$allocator@U__GCGETPOINT@CGuildCombat@@@0@U_Nonscalar_ptr_iterator_tag@0@@Z 0048cea0 f i eveschool.obj
 0001:0008bed0       ?JoinWar@CGuildCombat@@QAEXPAVCUser@@HH@Z 0048ced0 f   eveschool.obj
 0001:0008c110       ??$_Uninit_fill_n@PAU__GCGETPOINT@CGuildCombat@@IU12@V?$allocator@U__GCGETPOINT@CGuildCombat@@@std@@@std@@YAXPAU__GCGETPOINT@CGuildCombat@@IABU12@AAV?$allocator@U__GCGETPOINT@CGuildCombat@@@0@U_Nonscalar_ptr_iterator_tag@0@@Z 0048d110 f i eveschool.obj
 0001:0008c140       ?GetPrizePenya@CGuildCombat@@QAE_JH@Z 0048d140 f   eveschool.obj
 0001:0008c1f0       ?IsRequestWarGuild@CGuildCombat@@QAEHKH@Z 0048d1f0 f   eveschool.obj
 0001:0008c260       ??$_Ucopy@PAVCPoint@@@?$vector@VCPoint@@V?$allocator@VCPoint@@@std@@@std@@IAEPAVCPoint@@PAV2@00@Z 0048d260 f i Continent.obj
 0001:0008c260       ??$_Ucopy@PAU__POINT@CExchange@@@?$vector@U__POINT@CExchange@@V?$allocator@U__POINT@CExchange@@@std@@@std@@IAEPAU__POINT@CExchange@@PAU23@00@Z 0048d260 f i Exchange.obj
 0001:0008c260       ??$_Ucopy@PAU_AdjData@@@?$vector@U_AdjData@@V?$allocator@U_AdjData@@@std@@@std@@IAEPAU_AdjData@@PAU2@00@Z 0048d260 f i randomoption.obj
 0001:0008c260       ??$_Ucopy@PAU__REQUESTGUILD@CGuildCombat@@@?$vector@U__REQUESTGUILD@CGuildCombat@@V?$allocator@U__REQUESTGUILD@CGuildCombat@@@std@@@std@@IAEPAU__REQUESTGUILD@CGuildCombat@@PAU23@00@Z 0048d260 f i eveschool.obj
 0001:0008c280       ?GuildCombatCloseTeleport@CGuildCombat@@QAEXXZ 0048d280 f   eveschool.obj
 0001:0008c370       ?FindGuildCombatMember@CGuildCombat@@QAEPAU__GuildCombatMember@1@K@Z 0048d370 f   eveschool.obj
 0001:0008c3c0       ?SetSelectMap@CGuildCombat@@QAEXPAVCUser@@H@Z 0048d3c0 f   eveschool.obj
 0001:0008c420       ?IsSelectPlayer@CGuildCombat@@QAEHPAVCUser@@@Z 0048d420 f   eveschool.obj
 0001:0008c4d0       ?SerializeGCWarPlayerList@CGuildCombat@@QAEXAAVCAr@@@Z 0048d4d0 f   eveschool.obj
 0001:0008c6e0       ?_Ufill@?$vector@U__GCGETPOINT@CGuildCombat@@V?$allocator@U__GCGETPOINT@CGuildCombat@@@std@@@std@@IAEPAU__GCGETPOINT@CGuildCombat@@PAU34@IABU34@@Z 0048d6e0 f i eveschool.obj
 0001:0008c710       ??4?$CSimpleStringT@D$0A@@ATL@@QAEAAV01@ABV01@@Z 0048d710 f i eveschool.obj
 0001:0008c780       ?SelectMemberClear@__GuildCombatMember@CGuildCombat@@QAEXXZ 0048d780 f i eveschool.obj
 0001:0008c810       ??1__GuildCombatMember@CGuildCombat@@QAE@XZ 0048d810 f i eveschool.obj
 0001:0008c850       ?SelectPlayerClear@CGuildCombat@@QAEXK@Z 0048d850 f   eveschool.obj
 0001:0008c870       ?JoinObserver@CGuildCombat@@QAEXPAVCUser@@@Z 0048d870 f   eveschool.obj
 0001:0008cad0       ?GuildCombatCancel@CGuildCombat@@QAEXPAVCUser@@@Z 0048dad0 f   eveschool.obj
 0001:0008cc80       ?UserOutGuildCombatResult@CGuildCombat@@QAEXPAVCUser@@@Z 0048dc80 f   eveschool.obj
 0001:0008cdd0       ?SetDefender@CGuildCombat@@QAEXKK@Z 0048ddd0 f   eveschool.obj
 0001:0008cdf0       ?GetDefender@CGuildCombat@@QAEKK@Z 0048ddf0 f   eveschool.obj
 0001:0008ce10       ?GetRequstPenya@CGuildCombat@@QAEKK@Z 0048de10 f   eveschool.obj
 0001:0008ce30       ?GuildCombatEnter@CGuildCombat@@QAEXPAVCUser@@@Z 0048de30 f   eveschool.obj
 0001:0008cf60       ??$_Uninit_copy@PAV?$CStringT@DV?$StrTraitMFC@DV?$ChTraitsCRT@D@ATL@@@@@ATL@@PAV12@V?$allocator@V?$CStringT@DV?$StrTraitMFC@DV?$ChTraitsCRT@D@ATL@@@@@ATL@@@std@@@std@@YAPAV?$CStringT@DV?$StrTraitMFC@DV?$ChTraitsCRT@D@ATL@@@@@ATL@@PAV12@00AAV?$allocator@V?$CStringT@DV?$StrTraitMFC@DV?$ChTraitsCRT@D@ATL@@@@@ATL@@@0@U_Nonscalar_ptr_iterator_tag@0@@Z 0048df60 f i eveschool.obj
 0001:0008d070       ??4?$CStringT@DV?$StrTraitMFC@DV?$ChTraitsCRT@D@ATL@@@@@ATL@@QAEAAV01@ABV01@@Z 0048e070 f i eveschool.obj
 0001:0008d090       ?GuildCombatRequest@CGuildCombat@@QAEXPAVCUser@@K@Z 0048e090 f   eveschool.obj
 0001:0008d450       ?SetEnter@CGuildCombat@@QAEXXZ 0048e450 f   eveschool.obj
 0001:0008d650       ?SetGuildCombatStart@CGuildCombat@@QAEXXZ 0048e650 f   eveschool.obj
 0001:0008d760       ?SetGuildCombatClose@CGuildCombat@@QAEXH@Z 0048e760 f   eveschool.obj
 0001:0008da10       ?ProcessJoinWar@CGuildCombat@@QAEXXZ 0048ea10 f   eveschool.obj
 0001:0008db20       ??$fill@PAV?$CStringT@DV?$StrTraitMFC@DV?$ChTraitsCRT@D@ATL@@@@@ATL@@V12@@std@@YAXPAV?$CStringT@DV?$StrTraitMFC@DV?$ChTraitsCRT@D@ATL@@@@@ATL@@0ABV12@@Z 0048eb20 f i eveschool.obj
 0001:0008db50       ??$_Uninit_fill_n@PAV?$CStringT@DV?$StrTraitMFC@DV?$ChTraitsCRT@D@ATL@@@@@ATL@@IV12@V?$allocator@V?$CStringT@DV?$StrTraitMFC@DV?$ChTraitsCRT@D@ATL@@@@@ATL@@@std@@@std@@YAXPAV?$CStringT@DV?$StrTraitMFC@DV?$ChTraitsCRT@D@ATL@@@@@ATL@@IABV12@AAV?$allocator@V?$CStringT@DV?$StrTraitMFC@DV?$ChTraitsCRT@D@ATL@@@@@ATL@@@0@U_Nonscalar_ptr_iterator_tag@0@@Z 0048eb50 f i eveschool.obj
 0001:0008dc60       ??$_Copy_backward_opt@PAV?$CStringT@DV?$StrTraitMFC@DV?$ChTraitsCRT@D@ATL@@@@@ATL@@PAV12@@std@@YAPAV?$CStringT@DV?$StrTraitMFC@DV?$ChTraitsCRT@D@ATL@@@@@ATL@@PAV12@00U_Nonscalar_ptr_iterator_tag@0@@Z 0048ec60 f i eveschool.obj
 0001:0008dcf0       ?GuildCombatClear@CGuildCombat@@QAEXH@Z 0048ecf0 f   eveschool.obj
 0001:0008de30       ?GuildCombatGameClear@CGuildCombat@@QAEXXZ 0048ee30 f   eveschool.obj
 0001:0008de40       ?_Xlen@?$vector@PAU__GuildCombatMember@CGuildCombat@@V?$allocator@PAU__GuildCombatMember@CGuildCombat@@@std@@@std@@IBEXXZ 0048ee40 f i eveschool.obj
 0001:0008de40       ?_Xlen@?$vector@U__GCSENDITEM@CGuildCombat@@V?$allocator@U__GCSENDITEM@CGuildCombat@@@std@@@std@@IBEXXZ 0048ee40 f i eveschool.obj
 0001:0008de40       ?_Xlen@?$vector@U__GCGETPOINT@CGuildCombat@@V?$allocator@U__GCGETPOINT@CGuildCombat@@@std@@@std@@IBEXXZ 0048ee40 f i eveschool.obj
 0001:0008de40       ?_Xlen@?$vector@V?$CStringT@DV?$StrTraitMFC@DV?$ChTraitsCRT@D@ATL@@@@@ATL@@V?$allocator@V?$CStringT@DV?$StrTraitMFC@DV?$ChTraitsCRT@D@ATL@@@@@ATL@@@std@@@std@@IBEXXZ 0048ee40 f i eveschool.obj
 0001:0008de40       ?_Xlen@?$vector@PAU__JOINPLAYER@CGuildCombat@@V?$allocator@PAU__JOINPLAYER@CGuildCombat@@@std@@@std@@IBEXXZ 0048ee40 f i eveschool.obj
 0001:0008deb0       ?_Ufill@?$vector@V?$CStringT@DV?$StrTraitMFC@DV?$ChTraitsCRT@D@ATL@@@@@ATL@@V?$allocator@V?$CStringT@DV?$StrTraitMFC@DV?$ChTraitsCRT@D@ATL@@@@@ATL@@@std@@@std@@IAEPAV?$CStringT@DV?$StrTraitMFC@DV?$ChTraitsCRT@D@ATL@@@@@ATL@@PAV34@IABV34@@Z 0048eeb0 f i eveschool.obj
 0001:0008dee0       ?_Insert_n@?$vector@U__REQUESTGUILD@CGuildCombat@@V?$allocator@U__REQUESTGUILD@CGuildCombat@@@std@@@std@@IAEXViterator@12@IABU__REQUESTGUILD@CGuildCombat@@@Z 0048eee0 f i eveschool.obj
 0001:0008e130       ?_Insert_n@?$vector@PAU__JOINPLAYER@CGuildCombat@@V?$allocator@PAU__JOINPLAYER@CGuildCombat@@@std@@@std@@IAEXViterator@12@IABQAU__JOINPLAYER@CGuildCombat@@@Z 0048f130 f i eveschool.obj
 0001:0008e130       ?_Insert_n@?$vector@PAU__GuildCombatMember@CGuildCombat@@V?$allocator@PAU__GuildCombatMember@CGuildCombat@@@std@@@std@@IAEXViterator@12@IABQAU__GuildCombatMember@CGuildCombat@@@Z 0048f130 f i eveschool.obj
 0001:0008e310       ?_Insert_n@?$vector@U__GCGETPOINT@CGuildCombat@@V?$allocator@U__GCGETPOINT@CGuildCombat@@@std@@@std@@IAEXViterator@12@IABU__GCGETPOINT@CGuildCombat@@@Z 0048f310 f i eveschool.obj
 0001:0008e5c0       ?_Destroy@?$vector@V?$CStringT@DV?$StrTraitMFC@DV?$ChTraitsCRT@D@ATL@@@@@ATL@@V?$allocator@V?$CStringT@DV?$StrTraitMFC@DV?$ChTraitsCRT@D@ATL@@@@@ATL@@@std@@@std@@IAEXPAV?$CStringT@DV?$StrTraitMFC@DV?$ChTraitsCRT@D@ATL@@@@@ATL@@0@Z 0048f5c0 f i eveschool.obj
 0001:0008e5f0       ?_Insert_n@?$vector@V?$CStringT@DV?$StrTraitMFC@DV?$ChTraitsCRT@D@ATL@@@@@ATL@@V?$allocator@V?$CStringT@DV?$StrTraitMFC@DV?$ChTraitsCRT@D@ATL@@@@@ATL@@@std@@@std@@IAEXViterator@12@IABV?$CStringT@DV?$StrTraitMFC@DV?$ChTraitsCRT@D@ATL@@@@@ATL@@@Z 0048f5f0 f i eveschool.obj
 0001:0008e8a0       ?_Insert_n@?$vector@U__GCSENDITEM@CGuildCombat@@V?$allocator@U__GCSENDITEM@CGuildCombat@@@std@@@std@@IAEXViterator@12@IABU__GCSENDITEM@CGuildCombat@@@Z 0048f8a0 f i eveschool.obj
 0001:0008eb60       ?_Insert_n@?$vector@U__JOINPLAYER@CGuildCombat@@V?$allocator@U__JOINPLAYER@CGuildCombat@@@std@@@std@@IAEXViterator@12@IABU__JOINPLAYER@CGuildCombat@@@Z 0048fb60 f i eveschool.obj
 0001:0008ee30       ??4?$vector@U__REQUESTGUILD@CGuildCombat@@V?$allocator@U__REQUESTGUILD@CGuildCombat@@@std@@@std@@QAEAAV01@ABV01@@Z 0048fe30 f i eveschool.obj
 0001:0008ef80       ?insert@?$vector@U__GCGETPOINT@CGuildCombat@@V?$allocator@U__GCGETPOINT@CGuildCombat@@@std@@@std@@QAE?AViterator@12@V312@ABU__GCGETPOINT@CGuildCombat@@@Z 0048ff80 f i eveschool.obj
 0001:0008eff0       ?_Tidy@?$vector@V?$CStringT@DV?$StrTraitMFC@DV?$ChTraitsCRT@D@ATL@@@@@ATL@@V?$allocator@V?$CStringT@DV?$StrTraitMFC@DV?$ChTraitsCRT@D@ATL@@@@@ATL@@@std@@@std@@IAEXXZ 0048fff0 f i eveschool.obj
 0001:0008f040       ?insert@?$vector@U__GCSENDITEM@CGuildCombat@@V?$allocator@U__GCSENDITEM@CGuildCombat@@@std@@@std@@QAE?AViterator@12@V312@ABU__GCSENDITEM@CGuildCombat@@@Z 00490040 f i eveschool.obj
 0001:0008f0b0       ?insert@?$vector@U__JOINPLAYER@CGuildCombat@@V?$allocator@U__JOINPLAYER@CGuildCombat@@@std@@@std@@QAE?AViterator@12@V312@ABU__JOINPLAYER@CGuildCombat@@@Z 004900b0 f i eveschool.obj
 0001:0008f120       ??0__GuildCombatMember@CGuildCombat@@QAE@XZ 00490120 f i eveschool.obj
 0001:0008f180       ?GuildCombatResultRanking@CGuildCombat@@QAEXXZ 00490180 f   eveschool.obj
 0001:0008f8b0       ?SetPlayerChange@CGuildCombat@@QAEXPAVCUser@@0@Z 004908b0 f   eveschool.obj
 0001:0008fae0       ?push_back@?$vector@PAU__JOINPLAYER@CGuildCombat@@V?$allocator@PAU__JOINPLAYER@CGuildCombat@@@std@@@std@@QAEXABQAU__JOINPLAYER@CGuildCombat@@@Z 00490ae0 f i eveschool.obj
 0001:0008fae0       ?push_back@?$vector@PAU__GuildCombatMember@CGuildCombat@@V?$allocator@PAU__GuildCombatMember@CGuildCombat@@@std@@@std@@QAEXABQAU__GuildCombatMember@CGuildCombat@@@Z 00490ae0 f i eveschool.obj
 0001:0008fb30       ?push_back@?$vector@U__GCGETPOINT@CGuildCombat@@V?$allocator@U__GCGETPOINT@CGuildCombat@@@std@@@std@@QAEXABU__GCGETPOINT@CGuildCombat@@@Z 00490b30 f i eveschool.obj
 0001:0008fbc0       ??1?$vector@V?$CStringT@DV?$StrTraitMFC@DV?$ChTraitsCRT@D@ATL@@@@@ATL@@V?$allocator@V?$CStringT@DV?$StrTraitMFC@DV?$ChTraitsCRT@D@ATL@@@@@ATL@@@std@@@std@@QAE@XZ 00490bc0 f i eveschool.obj
 0001:0008fbd0       ?push_back@?$vector@U__GCSENDITEM@CGuildCombat@@V?$allocator@U__GCSENDITEM@CGuildCombat@@@std@@@std@@QAEXABU__GCSENDITEM@CGuildCombat@@@Z 00490bd0 f i eveschool.obj
 0001:0008fc50       ?push_back@?$vector@U__REQUESTGUILD@CGuildCombat@@V?$allocator@U__REQUESTGUILD@CGuildCombat@@@std@@@std@@QAEXABU__REQUESTGUILD@CGuildCombat@@@Z 00490c50 f i eveschool.obj
 0001:0008fcc0       ?push_back@?$vector@U__JOINPLAYER@CGuildCombat@@V?$allocator@U__JOINPLAYER@CGuildCombat@@@std@@@std@@QAEXABU__JOINPLAYER@CGuildCombat@@@Z 00490cc0 f i eveschool.obj
 0001:0008fd50       ??0CGuildCombat@@QAE@XZ    00490d50 f   eveschool.obj
 0001:0008ff30       ??1CGuildCombat@@UAE@XZ    00490f30 f   eveschool.obj
 0001:00090070       ?AddSelectPlayer@CGuildCombat@@QAEXKK@Z 00491070 f   eveschool.obj
 0001:000900e0       ?GetSelectPlayer@CGuildCombat@@QAEXKAAV?$vector@U__JOINPLAYER@CGuildCombat@@V?$allocator@U__JOINPLAYER@CGuildCombat@@@std@@@std@@@Z 004910e0 f   eveschool.obj
 0001:00090140       ?OutWar@CGuildCombat@@QAEXPAVCUser@@0H@Z 00491140 f   eveschool.obj
 0001:000902f0       ?GuildCombatOpen@CGuildCombat@@QAEXXZ 004912f0 f   eveschool.obj
 0001:000905d0       ?SetRequestRanking@CGuildCombat@@QAEXXZ 004915d0 f   eveschool.obj
 0001:00090760       ?GetBestPlayer@CGuildCombat@@QAEKPAKPAH@Z 00491760 f   eveschool.obj
 0001:00090b70       ?LoadScript@CGuildCombat@@QAEHPBD@Z 00491b70 f   eveschool.obj
 0001:00091230       ?GetPoint@CGuildCombat@@QAEXPAVCUser@@0@Z 00492230 f   eveschool.obj
 0001:00091610       ??_GCGuildCombat@@UAEPAXI@Z 00492610 f i eveschool.obj
 0001:00091610       ??_ECGuildCombat@@UAEPAXI@Z 00492610 f i eveschool.obj
 0001:00091630       ?JoinGuildCombat@CGuildCombat@@QAEXKKH@Z 00492630 f   eveschool.obj
 0001:000916f0       ?OutGuildCombat@CGuildCombat@@QAEXK@Z 004926f0 f   eveschool.obj
 0001:00091860       ?GuildCombatResult@CGuildCombat@@QAEXHK@Z 00492860 f   eveschool.obj
 0001:00092330       ?SetGuildCombatCloseWait@CGuildCombat@@QAEXH@Z 00493330 f   eveschool.obj
 0001:00092370       ?SetMaintenance@CGuildCombat@@QAEXXZ 00493370 f   eveschool.obj
 0001:00092860       ?ProcessCommand@CGuildCombat@@QAEXXZ 00493860 f   eveschool.obj
 0001:00092bc0       ?Process@CGuildCombat@@QAEXXZ 00493bc0 f   eveschool.obj
 0001:00092d60       ?size@?$vector@U__SET@CExchange@@V?$allocator@U__SET@CExchange@@@std@@@std@@QBEIXZ 00493d60 f i Exchange.obj
 0001:00092d60       ?size@?$vector@UWANTED_ENTRY@@V?$allocator@UWANTED_ENTRY@@@std@@@std@@QBEIXZ 00493d60 f i WantedListSnapshot.obj
 0001:00092d80       ?_Max@?$_Tree@V?$_Tmap_traits@HU__SETLIST@CExchange@@U?$less@H@std@@V?$allocator@U?$pair@$$CBHU__SETLIST@CExchange@@@std@@@4@$0A@@std@@@std@@KAPAU_Node@?$_Tree_nod@V?$_Tmap_traits@HU__SETLIST@CExchange@@U?$less@H@std@@V?$allocator@U?$pair@$$CBHU__SETLIST@CExchange@@@std@@@4@$0A@@std@@@2@PAU342@@Z 00493d80 f i Exchange.obj
 0001:00092da0       ?_Min@?$_Tree@V?$_Tmap_traits@HU__SETLIST@CExchange@@U?$less@H@std@@V?$allocator@U?$pair@$$CBHU__SETLIST@CExchange@@@std@@@4@$0A@@std@@@std@@KAPAU_Node@?$_Tree_nod@V?$_Tmap_traits@HU__SETLIST@CExchange@@U?$less@H@std@@V?$allocator@U?$pair@$$CBHU__SETLIST@CExchange@@@std@@@4@$0A@@std@@@2@PAU342@@Z 00493da0 f i Exchange.obj
 0001:00092dc0       ?_Inc@const_iterator@?$_Tree@V?$_Tmap_traits@HU__SETLIST@CExchange@@U?$less@H@std@@V?$allocator@U?$pair@$$CBHU__SETLIST@CExchange@@@std@@@4@$0A@@std@@@std@@QAEXXZ 00493dc0 f i Exchange.obj
 0001:00092e20       ?SetMark@CScanner@@UAEXXZ  00493e20 f i Exchange.obj
 0001:00092e30       ?GoMark@CScanner@@UAEXXZ   00493e30 f i Exchange.obj
 0001:00092e40       ?_Lrotate@?$_Tree@V?$_Tmap_traits@HU__SETLIST@CExchange@@U?$less@H@std@@V?$allocator@U?$pair@$$CBHU__SETLIST@CExchange@@@std@@@4@$0A@@std@@@std@@IAEXPAU_Node@?$_Tree_nod@V?$_Tmap_traits@HU__SETLIST@CExchange@@U?$less@H@std@@V?$allocator@U?$pair@$$CBHU__SETLIST@CExchange@@@std@@@4@$0A@@std@@@2@@Z 00493e40 f i Exchange.obj
 0001:00092ea0       ?_Rrotate@?$_Tree@V?$_Tmap_traits@HU__SETLIST@CExchange@@U?$less@H@std@@V?$allocator@U?$pair@$$CBHU__SETLIST@CExchange@@@std@@@4@$0A@@std@@@std@@IAEXPAU_Node@?$_Tree_nod@V?$_Tmap_traits@HU__SETLIST@CExchange@@U?$less@H@std@@V?$allocator@U?$pair@$$CBHU__SETLIST@CExchange@@@std@@@4@$0A@@std@@@2@@Z 00493ea0 f i Exchange.obj
 0001:00092f00       ?_Dec@const_iterator@?$_Tree@V?$_Tmap_traits@HU__SETLIST@CExchange@@U?$less@H@std@@V?$allocator@U?$pair@$$CBHU__SETLIST@CExchange@@@std@@@4@$0A@@std@@@std@@QAEXXZ 00493f00 f i Exchange.obj
 0001:00092f60       ?_Buynode@?$_Tree@V?$_Tmap_traits@HU__SETLIST@CExchange@@U?$less@H@std@@V?$allocator@U?$pair@$$CBHU__SETLIST@CExchange@@@std@@@4@$0A@@std@@@std@@IAEPAU_Node@?$_Tree_nod@V?$_Tmap_traits@HU__SETLIST@CExchange@@U?$less@H@std@@V?$allocator@U?$pair@$$CBHU__SETLIST@CExchange@@@std@@@4@$0A@@std@@@2@XZ 00493f60 f i Exchange.obj
 0001:00092fa0       ??$_Uninit_copy@PAU_AdjData@@PAU1@V?$allocator@U_AdjData@@@std@@@std@@YAPAU_AdjData@@PAU1@00AAV?$allocator@U_AdjData@@@0@U_Nonscalar_ptr_iterator_tag@0@@Z 00493fa0 f i randomoption.obj
 0001:00092fa0       ??$_Uninit_copy@Vconst_iterator@?$vector@VCPoint@@V?$allocator@VCPoint@@@std@@@std@@PAVCPoint@@V?$allocator@VCPoint@@@3@@std@@YAPAVCPoint@@Vconst_iterator@?$vector@VCPoint@@V?$allocator@VCPoint@@@std@@@0@0PAV1@AAV?$allocator@VCPoint@@@0@U_Nonscalar_ptr_iterator_tag@0@@Z 00493fa0 f i Continent.obj
 0001:00092fa0       ??$_Uninit_copy@PAU_DIE_PENALTY@@PAU1@V?$allocator@U_DIE_PENALTY@@@std@@@std@@YAPAU_DIE_PENALTY@@PAU1@00AAV?$allocator@U_DIE_PENALTY@@@0@U_Nonscalar_ptr_iterator_tag@0@@Z 00493fa0 f i Project.obj
 0001:00092fa0       ??$_Uninit_copy@PAU_SINGLE_DST@@PAU1@V?$allocator@U_SINGLE_DST@@@std@@@std@@YAPAU_SINGLE_DST@@PAU1@00AAV?$allocator@U_SINGLE_DST@@@0@U_Nonscalar_ptr_iterator_tag@0@@Z 00493fa0 f i accessory.obj
 0001:00092fa0       ??$_Uninit_copy@PAU_TransformItemElement@@PAU1@V?$allocator@U_TransformItemElement@@@std@@@std@@YAPAU_TransformItemElement@@PAU1@00AAV?$allocator@U_TransformItemElement@@@0@U_Nonscalar_ptr_iterator_tag@0@@Z 00493fa0 f i pet.obj
 0001:00092fa0       ??$_Uninit_copy@PAU__REQUESTGUILD@CGuildCombat@@PAU12@V?$allocator@U__REQUESTGUILD@CGuildCombat@@@std@@@std@@YAPAU__REQUESTGUILD@CGuildCombat@@PAU12@00AAV?$allocator@U__REQUESTGUILD@CGuildCombat@@@0@U_Nonscalar_ptr_iterator_tag@0@@Z 00493fa0 f i eveschool.obj
 0001:00092fa0       ??$_Uninit_copy@PAVCPoint@@PAV1@V?$allocator@VCPoint@@@std@@@std@@YAPAVCPoint@@PAV1@00AAV?$allocator@VCPoint@@@0@U_Nonscalar_ptr_iterator_tag@0@@Z 00493fa0 f i Continent.obj
 0001:00092fa0       ??$_Uninit_copy@Vconst_iterator@?$vector@U__REQUESTGUILD@CGuildCombat@@V?$allocator@U__REQUESTGUILD@CGuildCombat@@@std@@@std@@PAU__REQUESTGUILD@CGuildCombat@@V?$allocator@U__REQUESTGUILD@CGuildCombat@@@3@@std@@YAPAU__REQUESTGUILD@CGuildCombat@@Vconst_iterator@?$vector@U__REQUESTGUILD@CGuildCombat@@V?$allocator@U__REQUESTGUILD@CGuildCombat@@@std@@@0@0PAU12@AAV?$allocator@U__REQUESTGUILD@CGuildCombat@@@0@U_Nonscalar_ptr_iterator_tag@0@@Z 00493fa0 f i DPSrvr.obj
 0001:00092fa0       ??$_Uninit_copy@Vconst_iterator@?$vector@U__POINT@CExchange@@V?$allocator@U__POINT@CExchange@@@std@@@std@@PAU__POINT@CExchange@@V?$allocator@U__POINT@CExchange@@@3@@std@@YAPAU__POINT@CExchange@@Vconst_iterator@?$vector@U__POINT@CExchange@@V?$allocator@U__POINT@CExchange@@@std@@@0@0PAU12@AAV?$allocator@U__POINT@CExchange@@@0@U_Nonscalar_ptr_iterator_tag@0@@Z 00493fa0 f i Exchange.obj
 0001:00092fa0       ??$_Uninit_copy@PAU_LayerStruct@@PAU1@V?$allocator@U_LayerStruct@@@std@@@std@@YAPAU_LayerStruct@@PAU1@00AAV?$allocator@U_LayerStruct@@@0@U_Nonscalar_ptr_iterator_tag@0@@Z 00493fa0 f i ticket.obj
 0001:00092fa0       ??$_Uninit_copy@PAU_COLLECTING_ITEM@@PAU1@V?$allocator@U_COLLECTING_ITEM@@@std@@@std@@YAPAU_COLLECTING_ITEM@@PAU1@00AAV?$allocator@U_COLLECTING_ITEM@@@0@U_Nonscalar_ptr_iterator_tag@0@@Z 00493fa0 f i collecting.obj
 0001:00092fa0       ??$_Uninit_copy@Viterator@?$vector@U_AdjData@@V?$allocator@U_AdjData@@@std@@@std@@PAU_AdjData@@V?$allocator@U_AdjData@@@3@@std@@YAPAU_AdjData@@Viterator@?$vector@U_AdjData@@V?$allocator@U_AdjData@@@std@@@0@0PAU1@AAV?$allocator@U_AdjData@@@0@U_Nonscalar_ptr_iterator_tag@0@@Z 00493fa0 f i randomoption.obj
 0001:00092fa0       ??$_Uninit_copy@PAU__POINT@CExchange@@PAU12@V?$allocator@U__POINT@CExchange@@@std@@@std@@YAPAU__POINT@CExchange@@PAU12@00AAV?$allocator@U__POINT@CExchange@@@0@U_Nonscalar_ptr_iterator_tag@0@@Z 00493fa0 f i Exchange.obj
 0001:00092fa0       ??$_Uninit_copy@PAU_TransformStuffComponent@@PAU1@V?$allocator@U_TransformStuffComponent@@@std@@@std@@YAPAU_TransformStuffComponent@@PAU1@00AAV?$allocator@U_TransformStuffComponent@@@0@U_Nonscalar_ptr_iterator_tag@0@@Z 00493fa0 f i pet.obj
 0001:00092fa0       ??$_Uninit_copy@Vconst_iterator@?$vector@U_AdjData@@V?$allocator@U_AdjData@@@std@@@std@@PAU_AdjData@@V?$allocator@U_AdjData@@@3@@std@@YAPAU_AdjData@@Vconst_iterator@?$vector@U_AdjData@@V?$allocator@U_AdjData@@@std@@@0@0PAU1@AAV?$allocator@U_AdjData@@@0@U_Nonscalar_ptr_iterator_tag@0@@Z 00493fa0 f i randomoption.obj
 0001:00092fd0       ?find@?$_Tree@V?$_Tmap_traits@HU__SETLIST@CExchange@@U?$less@H@std@@V?$allocator@U?$pair@$$CBHU__SETLIST@CExchange@@@std@@@4@$0A@@std@@@std@@QAE?AViterator@12@ABH@Z 00493fd0 f i Exchange.obj
 0001:00093040       ??$_Ucopy@PAU__ITEM@CExchange@@@?$vector@U__ITEM@CExchange@@V?$allocator@U__ITEM@CExchange@@@std@@@std@@IAEPAU__ITEM@CExchange@@PAU23@00@Z 00494040 f i Exchange.obj
 0001:00093060       ??1__SET@CExchange@@QAE@XZ 00494060 f i Exchange.obj
 0001:00093100       ?IsFull@CExchange@@QAEHPAVCUser@@V?$vector@U__ITEM@CExchange@@V?$allocator@U__ITEM@CExchange@@@std@@@std@@1@Z 00494100 f   Exchange.obj
 0001:00093310       ?_Insert_n@?$vector@U__ITEM@CExchange@@V?$allocator@U__ITEM@CExchange@@@std@@@std@@IAEXViterator@12@IABU__ITEM@CExchange@@@Z 00494310 f i Exchange.obj
 0001:00093580       ?_Insert_n@?$vector@U__POINT@CExchange@@V?$allocator@U__POINT@CExchange@@@std@@@std@@IAEXViterator@12@IABU__POINT@CExchange@@@Z 00494580 f i Exchange.obj
 0001:000937d0       ?_Xlen@?$vector@U__SET@CExchange@@V?$allocator@U__SET@CExchange@@@std@@@std@@IBEXXZ 004947d0 f i Exchange.obj
 0001:000937d0       ?_Xlen@?$vector@U__POINT@CExchange@@V?$allocator@U__POINT@CExchange@@@std@@@std@@IBEXXZ 004947d0 f i Exchange.obj
 0001:000937d0       ?_Xlen@?$vector@U__ITEM@CExchange@@V?$allocator@U__ITEM@CExchange@@@std@@@std@@IBEXXZ 004947d0 f i Exchange.obj
 0001:00093840       ?_Buy@?$vector@U__ITEM@CExchange@@V?$allocator@U__ITEM@CExchange@@@std@@@std@@IAE_NI@Z 00494840 f i Exchange.obj
 0001:00093890       ?_Buy@?$vector@U__POINT@CExchange@@V?$allocator@U__POINT@CExchange@@@std@@@std@@IAE_NI@Z 00494890 f i Exchange.obj
 0001:000938e0       ??0?$vector@U__ITEM@CExchange@@V?$allocator@U__ITEM@CExchange@@@std@@@std@@QAE@ABV01@@Z 004948e0 f i Exchange.obj
 0001:000939a0       ??4?$vector@U__ITEM@CExchange@@V?$allocator@U__ITEM@CExchange@@@std@@@std@@QAEAAV01@ABV01@@Z 004949a0 f i Exchange.obj
 0001:00093b00       ??0?$vector@U__POINT@CExchange@@V?$allocator@U__POINT@CExchange@@@std@@@std@@QAE@ABV01@@Z 00494b00 f i Exchange.obj
 0001:00093bc0       ??4?$vector@U__POINT@CExchange@@V?$allocator@U__POINT@CExchange@@@std@@@std@@QAEAAV01@ABV01@@Z 00494bc0 f i Exchange.obj
 0001:00093d10       ??0__SET@CExchange@@QAE@ABU01@@Z 00494d10 f i Exchange.obj
 0001:00093dc0       ?GetResultMsg@CExchange@@QAE?AV?$vector@HV?$allocator@H@std@@@std@@HH@Z 00494dc0 f   Exchange.obj
 0001:00093e60       ?CheckCondition@CExchange@@QAEHPAVCUser@@HH@Z 00494e60 f   Exchange.obj
 0001:00094110       ?GetRemoveItemList@CExchange@@QAE?AV?$vector@U__ITEM@CExchange@@V?$allocator@U__ITEM@CExchange@@@std@@@std@@HH@Z 00495110 f   Exchange.obj
 0001:00094230       ?GetRemovePointList@CExchange@@QAE?AV?$vector@U__POINT@CExchange@@V?$allocator@U__POINT@CExchange@@@std@@@std@@HH@Z 00495230 f   Exchange.obj
 0001:00094350       ?push_back@?$vector@U__ITEM@CExchange@@V?$allocator@U__ITEM@CExchange@@@std@@@std@@QAEXABU__ITEM@CExchange@@@Z 00495350 f i Exchange.obj
 0001:000943c0       ??$_Copy_backward_opt@PAU__SET@CExchange@@PAU12@@std@@YAPAU__SET@CExchange@@PAU12@00U_Nonscalar_ptr_iterator_tag@0@@Z 004953c0 f i Exchange.obj
 0001:00094440       ??$_Uninit_copy@Vconst_iterator@?$vector@U__SET@CExchange@@V?$allocator@U__SET@CExchange@@@std@@@std@@PAU__SET@CExchange@@V?$allocator@U__SET@CExchange@@@3@@std@@YAPAU__SET@CExchange@@Vconst_iterator@?$vector@U__SET@CExchange@@V?$allocator@U__SET@CExchange@@@std@@@0@0PAU12@AAV?$allocator@U__SET@CExchange@@@0@U_Nonscalar_ptr_iterator_tag@0@@Z 00495440 f i Exchange.obj
 0001:00094440       ??$_Uninit_copy@PAU__SET@CExchange@@PAU12@V?$allocator@U__SET@CExchange@@@std@@@std@@YAPAU__SET@CExchange@@PAU12@00AAV?$allocator@U__SET@CExchange@@@0@U_Nonscalar_ptr_iterator_tag@0@@Z 00495440 f i Exchange.obj
 0001:000944d0       ?GetPayItemList@CExchange@@QAE?AV?$vector@U__ITEM@CExchange@@V?$allocator@U__ITEM@CExchange@@@std@@@std@@HH@Z 004954d0 f   Exchange.obj
 0001:000946d0       ?ResultExchange@CExchange@@QAEHPAVCUser@@HH@Z 004956d0 f   Exchange.obj
 0001:00094cd0       ??$fill@PAU__SET@CExchange@@U12@@std@@YAXPAU__SET@CExchange@@0ABU12@@Z 00495cd0 f i Exchange.obj
 0001:00094d50       ??$_Uninit_fill_n@PAU__SET@CExchange@@IU12@V?$allocator@U__SET@CExchange@@@std@@@std@@YAXPAU__SET@CExchange@@IABU12@AAV?$allocator@U__SET@CExchange@@@0@U_Nonscalar_ptr_iterator_tag@0@@Z 00495d50 f i Exchange.obj
 0001:00094de0       ?_Destroy@?$vector@U__SET@CExchange@@V?$allocator@U__SET@CExchange@@@std@@@std@@IAEXPAU__SET@CExchange@@0@Z 00495de0 f i Exchange.obj
 0001:00094e10       ?_Tidy@?$vector@U__SET@CExchange@@V?$allocator@U__SET@CExchange@@@std@@@std@@IAEXXZ 00495e10 f i Exchange.obj
 0001:00094e60       ?_Ufill@?$vector@U__SET@CExchange@@V?$allocator@U__SET@CExchange@@@std@@@std@@IAEPAU__SET@CExchange@@PAU34@IABU34@@Z 00495e60 f i Exchange.obj
 0001:00094e90       ?_Insert_n@?$vector@U__SET@CExchange@@V?$allocator@U__SET@CExchange@@@std@@@std@@IAEXViterator@12@IABU__SET@CExchange@@@Z 00495e90 f i Exchange.obj
 0001:00095180       ??0?$vector@U__SET@CExchange@@V?$allocator@U__SET@CExchange@@@std@@@std@@QAE@ABV01@@Z 00496180 f i Exchange.obj
 0001:00095250       ?insert@?$vector@U__SET@CExchange@@V?$allocator@U__SET@CExchange@@@std@@@std@@QAE?AViterator@12@V312@ABU__SET@CExchange@@@Z 00496250 f i Exchange.obj
 0001:000952c0       ??1__SETLIST@CExchange@@QAE@XZ 004962c0 f i Exchange.obj
 0001:00095300       ??1?$pair@$$CBHU__SETLIST@CExchange@@@std@@QAE@XZ 00496300 f i Exchange.obj
 0001:00095340       ?push_back@?$vector@U__SET@CExchange@@V?$allocator@U__SET@CExchange@@@std@@@std@@QAEXABU__SET@CExchange@@@Z 00496340 f i Exchange.obj
 0001:000953d0       ??0__SETLIST@CExchange@@QAE@ABU01@@Z 004963d0 f i Exchange.obj
 0001:00095430       ??1_Node@?$_Tree_nod@V?$_Tmap_traits@HU__SETLIST@CExchange@@U?$less@H@std@@V?$allocator@U?$pair@$$CBHU__SETLIST@CExchange@@@std@@@4@$0A@@std@@@std@@QAE@XZ 00496430 f i Exchange.obj
 0001:00095470       ?_Buynode@?$_Tree@V?$_Tmap_traits@HU__SETLIST@CExchange@@U?$less@H@std@@V?$allocator@U?$pair@$$CBHU__SETLIST@CExchange@@@std@@@4@$0A@@std@@@std@@IAEPAU_Node@?$_Tree_nod@V?$_Tmap_traits@HU__SETLIST@CExchange@@U?$less@H@std@@V?$allocator@U?$pair@$$CBHU__SETLIST@CExchange@@@std@@@4@$0A@@std@@@2@PAU342@00ABU?$pair@$$CBHU__SETLIST@CExchange@@@2@D@Z 00496470 f i Exchange.obj
 0001:00095510       ?_Insert@?$_Tree@V?$_Tmap_traits@HU__SETLIST@CExchange@@U?$less@H@std@@V?$allocator@U?$pair@$$CBHU__SETLIST@CExchange@@@std@@@4@$0A@@std@@@std@@IAE?AViterator@12@_NPAU_Node@?$_Tree_nod@V?$_Tmap_traits@HU__SETLIST@CExchange@@U?$less@H@std@@V?$allocator@U?$pair@$$CBHU__SETLIST@CExchange@@@std@@@4@$0A@@std@@@2@ABU?$pair@$$CBHU__SETLIST@CExchange@@@2@@Z 00496510 f i Exchange.obj
 0001:000956c0       ?insert@?$_Tree@V?$_Tmap_traits@HU__SETLIST@CExchange@@U?$less@H@std@@V?$allocator@U?$pair@$$CBHU__SETLIST@CExchange@@@std@@@4@$0A@@std@@@std@@QAE?AU?$pair@Viterator@?$_Tree@V?$_Tmap_traits@HU__SETLIST@CExchange@@U?$less@H@std@@V?$allocator@U?$pair@$$CBHU__SETLIST@CExchange@@@std@@@4@$0A@@std@@@std@@_N@2@ABU?$pair@$$CBHU__SETLIST@CExchange@@@2@@Z 004966c0 f i Exchange.obj
 0001:00095780       ?erase@?$_Tree@V?$_Tmap_traits@HU__SETLIST@CExchange@@U?$less@H@std@@V?$allocator@U?$pair@$$CBHU__SETLIST@CExchange@@@std@@@4@$0A@@std@@@std@@QAE?AViterator@12@V312@@Z 00496780 f i Exchange.obj
 0001:00095a90       ?_Erase@?$_Tree@V?$_Tmap_traits@HU__SETLIST@CExchange@@U?$less@H@std@@V?$allocator@U?$pair@$$CBHU__SETLIST@CExchange@@@std@@@4@$0A@@std@@@std@@IAEXPAU_Node@?$_Tree_nod@V?$_Tmap_traits@HU__SETLIST@CExchange@@U?$less@H@std@@V?$allocator@U?$pair@$$CBHU__SETLIST@CExchange@@@std@@@4@$0A@@std@@@2@@Z 00496a90 f i Exchange.obj
 0001:00095ad0       ?Load_Script@CExchange@@QAEHXZ 00496ad0 f   Exchange.obj
 0001:00096870       ?erase@?$_Tree@V?$_Tmap_traits@HU__SETLIST@CExchange@@U?$less@H@std@@V?$allocator@U?$pair@$$CBHU__SETLIST@CExchange@@@std@@@4@$0A@@std@@@std@@QAE?AViterator@12@V312@0@Z 00497870 f i Exchange.obj
 0001:00096930       ??1CExchange@@UAE@XZ       00497930 f   Exchange.obj
 0001:00096970       ??0CExchange@@QAE@XZ       00497970 f   Exchange.obj
 0001:000969b0       ??_ECExchange@@UAEPAXI@Z   004979b0 f i Exchange.obj
 0001:000969b0       ??_GCExchange@@UAEPAXI@Z   004979b0 f i Exchange.obj
 0001:000969d0       ?Close@CFileIO@@UAEHXZ     004979d0 f   file.obj
 0001:00096a00       ?Open@CFileIO@@UAEHPBDPAD@Z 00497a00 f   file.obj
 0001:00096a30       ?Read@CFileIO@@UAEPAXXZ    00497a30 f   file.obj
 0001:00096a90       ?TextCmd_outall@@YAHAAVCScanner@@@Z 00497a90 f   FuncTextCmd.obj
 0001:00096ab0       ?TextCmd_GameSetting@@YAHAAVCScanner@@@Z 00497ab0 f   FuncTextCmd.obj
 0001:00096ad0       ?TextCmd_PocketView@@YAHAAVCScanner@@@Z 00497ad0 f   FuncTextCmd.obj
 0001:00096af0       ?TextCmd_StartCollecting@@YAHAAVCScanner@@@Z 00497af0 f   FuncTextCmd.obj
 0001:00096b10       ?TextCmd_StopCollecting@@YAHAAVCScanner@@@Z 00497b10 f   FuncTextCmd.obj
 0001:00096b30       ?TextCmd_DoUseItemBattery@@YAHAAVCScanner@@@Z 00497b30 f   FuncTextCmd.obj
 0001:00096b50       ?TextCmd_GuildRanking@@YAHAAVCScanner@@@Z 00497b50 f   FuncTextCmd.obj
 0001:00096b60       ?TextCmd_GuildRankingDBUpdate@@YAHAAVCScanner@@@Z 00497b60 f   FuncTextCmd.obj
 0001:00096b70       ?TextCmd_InitSkillExp@@YAHAAVCScanner@@@Z 00497b70 f   FuncTextCmd.obj
 0001:00096ba0       ?TextCmd_SkillLevel@@YAHAAVCScanner@@@Z 00497ba0 f   FuncTextCmd.obj
 0001:00096bf0       ?TextCmd_SetPetName@@YAHAAVCScanner@@@Z 00497bf0 f   FuncTextCmd.obj
 0001:00096c40       ?TextCmd_CreateLayer@@YAHAAVCScanner@@@Z 00497c40 f   FuncTextCmd.obj
 0001:00096c80       ?TextCmd_DeleteLayer@@YAHAAVCScanner@@@Z 00497c80 f   FuncTextCmd.obj
 0001:00096cc0       ?TextCmd_NextCoupleLevel@@YAHAAVCScanner@@@Z 00497cc0 f   FuncTextCmd.obj
 0001:00096d60       ?TextCmd_Propose@@YAHAAVCScanner@@@Z 00497d60 f   FuncTextCmd.obj
 0001:00096d90       ?TextCmd_Refuse@@YAHAAVCScanner@@@Z 00497d90 f   FuncTextCmd.obj
 0001:00096db0       ?TextCmd_Couple@@YAHAAVCScanner@@@Z 00497db0 f   FuncTextCmd.obj
 0001:00096dd0       ?TextCmd_Decouple@@YAHAAVCScanner@@@Z 00497dd0 f   FuncTextCmd.obj
 0001:00096df0       ?TextCmd_ClearPropose@@YAHAAVCScanner@@@Z 00497df0 f   FuncTextCmd.obj
 0001:00096e00       ?TextCmd_LocalEvent@@YAHAAVCScanner@@@Z 00497e00 f   FuncTextCmd.obj
 0001:00096e50       ?TextCmd_LuaEventList@@YAHAAVCScanner@@@Z 00497e50 f   FuncTextCmd.obj
 0001:00096e70       ?TextCmd_LuaEventInfo@@YAHAAVCScanner@@@Z 00497e70 f   FuncTextCmd.obj
 0001:00096ea0       ?TextCmd_CallTheRoll@@YAHAAVCScanner@@@Z 00497ea0 f   FuncTextCmd.obj
 0001:00096ef0       ?TextCmd_Invisible@@YAHAAVCScanner@@@Z 00497ef0 f   FuncTextCmd.obj
 0001:00096f20       ?TextCmd_NoInvisible@@YAHAAVCScanner@@@Z 00497f20 f   FuncTextCmd.obj
 0001:00096f50       ?TextCmd_NoUndying@@YAHAAVCScanner@@@Z 00497f50 f   FuncTextCmd.obj
 0001:00096f80       ?TextCmd_ExpUpStop@@YAHAAVCScanner@@@Z 00497f80 f   FuncTextCmd.obj
 0001:00096fc0       ?TextCmd_Undying@@YAHAAVCScanner@@@Z 00497fc0 f   FuncTextCmd.obj
 0001:00096ff0       ?TextCmd_Undying2@@YAHAAVCScanner@@@Z 00497ff0 f   FuncTextCmd.obj
 0001:00097020       ?TextCmd_NoDisguise@@YAHAAVCScanner@@@Z 00498020 f   FuncTextCmd.obj
 0001:00097050       ?TextCmd_GetGold@@YAHAAVCScanner@@@Z 00498050 f   FuncTextCmd.obj
 0001:00097080       ?TextCmd_indirect@@YAHAAVCScanner@@@Z 00498080 f   FuncTextCmd.obj
 0001:00097130       ?TextCmd_Onekill@@YAHAAVCScanner@@@Z 00498130 f   FuncTextCmd.obj
 0001:00097160       ?TextCmd_NoOnekill@@YAHAAVCScanner@@@Z 00498160 f   FuncTextCmd.obj
 0001:00097190       ?TextCmd_userlist@@YAHAAVCScanner@@@Z 00498190 f   FuncTextCmd.obj
 0001:000971c0       ?TextCmd_count@@YAHAAVCScanner@@@Z 004981c0 f   FuncTextCmd.obj
 0001:00097250       ?TextCmd_SystemName@@YAHAAVCScanner@@@Z 00498250 f   FuncTextCmd.obj
 0001:00097340       ?TextCmd_LoadScript@@YAHAAVCScanner@@@Z 00498340 f   FuncTextCmd.obj
 0001:00097370       ?TextCmd_FallSnow@@YAHAAVCScanner@@@Z 00498370 f   FuncTextCmd.obj
 0001:00097380       ?TextCmd_FallRain@@YAHAAVCScanner@@@Z 00498380 f   FuncTextCmd.obj
 0001:00097390       ?TextCmd_StopSnow@@YAHAAVCScanner@@@Z 00498390 f   FuncTextCmd.obj
 0001:000973a0       ?TextCmd_StopRain@@YAHAAVCScanner@@@Z 004983a0 f   FuncTextCmd.obj
 0001:000973b0       ?TextCmd_QuestState@@YAHAAVCScanner@@@Z 004983b0 f   FuncTextCmd.obj
 0001:000974e0       ?TextCmd_BeginQuest@@YAHAAVCScanner@@@Z 004984e0 f   FuncTextCmd.obj
 0001:00097540       ?TextCmd_EndQuest@@YAHAAVCScanner@@@Z 00498540 f   FuncTextCmd.obj
 0001:000975a0       ?TextCmd_RemoveQuest@@YAHAAVCScanner@@@Z 004985a0 f   FuncTextCmd.obj
 0001:000976b0       ?TextCmd_RemoveAllQuest@@YAHAAVCScanner@@@Z 004986b0 f   FuncTextCmd.obj
 0001:000976e0       ?TextCmd_RemoveCompleteQuest@@YAHAAVCScanner@@@Z 004986e0 f   FuncTextCmd.obj
 0001:00097710       ?TextCmd_PvpParam@@YAHAAVCScanner@@@Z 00498710 f   FuncTextCmd.obj
 0001:00097750       ?TextCmd_PKParam@@YAHAAVCScanner@@@Z 00498750 f   FuncTextCmd.obj
 0001:000977d0       ?TextCmd_ReloadConstant@@YAHAAVCScanner@@@Z 004987d0 f   FuncTextCmd.obj
 0001:000977e0       ?TextCmd_GuildCombatRequest@@YAHAAVCScanner@@@Z 004987e0 f   FuncTextCmd.obj
 0001:00097810       ?TextCmd_GuildCombatCancel@@YAHAAVCScanner@@@Z 00498810 f   FuncTextCmd.obj
 0001:00097830       ?TextCmd_GuildCombatOpen@@YAHAAVCScanner@@@Z 00498830 f   FuncTextCmd.obj
 0001:000978c0       ?TextCmd_GuildCombatIn@@YAHAAVCScanner@@@Z 004988c0 f   FuncTextCmd.obj
 0001:000978e0       ?TextCmd_GuildCombatClose@@YAHAAVCScanner@@@Z 004988e0 f   FuncTextCmd.obj
 0001:00097980       ?TextCmd_GuildCombatNext@@YAHAAVCScanner@@@Z 00498980 f   FuncTextCmd.obj
 0001:00097a10       ?TextCmd_GC1to1Open@@YAHAAVCScanner@@@Z 00498a10 f   FuncTextCmd.obj
 0001:00097a60       ?TextCmd_Coupon@@YAHAAVCScanner@@@Z 00498a60 f   FuncTextCmd.obj
 0001:00097a80       ?TextCmd_RemoveAllBuff@@YAHAAVCScanner@@@Z 00498a80 f   FuncTextCmd.obj
 0001:00097aa0       ?TextCmd_SecretRoomOpen@@YAHAAVCScanner@@@Z 00498aa0 f   FuncTextCmd.obj
 0001:00097ae0       ?TextCmd_SecretRoomNext@@YAHAAVCScanner@@@Z 00498ae0 f   FuncTextCmd.obj
 0001:00097b00       ?TextCmd_RemoveTotalGold@@YAHAAVCScanner@@@Z 00498b00 f   FuncTextCmd.obj
 0001:00097ba0       ?TextCmd_ElectionProcess@@YAHAAVCScanner@@@Z 00498ba0 f   FuncTextCmd.obj
 0001:00097bc0       ?TextCmd_ElectionBeginCandidacy@@YAHAAVCScanner@@@Z 00498bc0 f   FuncTextCmd.obj
 0001:00097bd0       ?TextCmd_ElectionBeginVote@@YAHAAVCScanner@@@Z 00498bd0 f   FuncTextCmd.obj
 0001:00097be0       ?TextCmd_ElectionEndVote@@YAHAAVCScanner@@@Z 00498be0 f   FuncTextCmd.obj
 0001:00097bf0       ?TextCmd_LEventInitialize@@YAHAAVCScanner@@@Z 00498bf0 f   FuncTextCmd.obj
 0001:00097c00       ?TextCmd_TaxApplyNow@@YAHAAVCScanner@@@Z 00498c00 f   FuncTextCmd.obj
 0001:00097c20       ?TextCmd_RainbowRacePass@@YAHAAVCScanner@@@Z 00498c20 f   FuncTextCmd.obj
 0001:00097c60       ?TextCmd_RainbowRaceOpen@@YAHAAVCScanner@@@Z 00498c60 f   FuncTextCmd.obj
 0001:00097c80       ?TextCmd_RainbowRaceNext@@YAHAAVCScanner@@@Z 00498c80 f   FuncTextCmd.obj
 0001:00097ca0       ?TextCmd_HousingGMRemoveAll@@YAHAAVCScanner@@@Z 00498ca0 f   FuncTextCmd.obj
 0001:00097cc0       ?TextCmd_QuizEventOpen@@YAHAAVCScanner@@@Z 00498cc0 f   FuncTextCmd.obj
 0001:00097cf0       ?TextCmd_QuizEventClose@@YAHAAVCScanner@@@Z 00498cf0 f   FuncTextCmd.obj
 0001:00097d10       ?size@?$vector@U_PartyInfo@@V?$allocator@U_PartyInfo@@@std@@@std@@QBEIXZ 00498d10 f i FuncTextCmd.obj
 0001:00097d30       ??$fill@PAU_PartyInfo@@U1@@std@@YAXPAU_PartyInfo@@0ABU1@@Z 00498d30 f i FuncTextCmd.obj
 0001:00097d60       ?GetItemId@CPet@@QAEKXZ    00498d60 f i FuncTextCmd.obj
 0001:00097d90       ?SetRandomOpt@CItemElem@@QAEXH@Z 00498d90 f i FuncTextCmd.obj
 0001:00097dd0       ?TextCmd_PartyAllow@@YAHAAVCScanner@@@Z 00498dd0 f   FuncTextCmd.obj
 0001:00097e80       ?TextCmd_InvenClear@@YAHAAVCScanner@@@Z 00498e80 f   FuncTextCmd.obj
 0001:00097f00       ?TextCmd_AroundKill@@YAHAAVCScanner@@@Z 00498f00 f   FuncTextCmd.obj
 0001:00097f50       ?TextCmd_PetExp@@YAHAAVCScanner@@@Z 00498f50 f   FuncTextCmd.obj
 0001:00097f90       ?TextCmd_SetSnoop@@YAHAAVCScanner@@@Z 00498f90 f   FuncTextCmd.obj
 0001:00098040       ?TextCmd_SetSnoopGuild@@YAHAAVCScanner@@@Z 00499040 f   FuncTextCmd.obj
 0001:000980b0       ?TextCmd_CreateGuild@@YAHAAVCScanner@@@Z 004990b0 f   FuncTextCmd.obj
 0001:00098100       ?TextCmd_SetGuildQuest@@YAHAAVCScanner@@@Z 00499100 f   FuncTextCmd.obj
 0001:000981c0       ?TextCmd_PartyLevel@@YAHAAVCScanner@@@Z 004991c0 f   FuncTextCmd.obj
 0001:00098220       ?TextCmd_Piercing@@YAHAAVCScanner@@@Z 00499220 f   FuncTextCmd.obj
 0001:00098300       ?TextCmd_Music@@YAHAAVCScanner@@@Z 00499300 f   FuncTextCmd.obj
 0001:00098330       ?TextCmd_Sound@@YAHAAVCScanner@@@Z 00499330 f   FuncTextCmd.obj
 0001:00098360       ?TextCmd_Layer@@YAHAAVCScanner@@@Z 00499360 f   FuncTextCmd.obj
 0001:00098490       ?TextCmd_Out@@YAHAAVCScanner@@@Z 00499490 f   FuncTextCmd.obj
 0001:00098550       ?TextCmd_RemoveNpc@@YAHAAVCScanner@@@Z 00499550 f   FuncTextCmd.obj
 0001:00098590       ?TextCmd_Mute@@YAHAAVCScanner@@@Z 00499590 f   FuncTextCmd.obj
 0001:00098610       ?TextCmd_PartyInvite@@YAHAAVCScanner@@@Z 00499610 f   FuncTextCmd.obj
 0001:000986b0       ?TextCmd_GuildInvite@@YAHAAVCScanner@@@Z 004996b0 f   FuncTextCmd.obj
 0001:00098750       ?TextCmd_CTD@@YAHAAVCScanner@@@Z 00499750 f   FuncTextCmd.obj
 0001:000988f0       ?TextCmd_Freeze@@YAHAAVCScanner@@@Z 004998f0 f   FuncTextCmd.obj
 0001:000989c0       ?TextCmd_NoFreeze@@YAHAAVCScanner@@@Z 004999c0 f   FuncTextCmd.obj
 0001:00098a90       ?TextCmd_Talk@@YAHAAVCScanner@@@Z 00499a90 f   FuncTextCmd.obj
 0001:00098b10       ?TextCmd_NoTalk@@YAHAAVCScanner@@@Z 00499b10 f   FuncTextCmd.obj
 0001:00098b90       ?TextCmd_ItemMode@@YAHAAVCScanner@@@Z 00499b90 f   FuncTextCmd.obj
 0001:00098bc0       ?TextCmd_ItemNotMode@@YAHAAVCScanner@@@Z 00499bc0 f   FuncTextCmd.obj
 0001:00098bf0       ?TextCmd_AttackMode@@YAHAAVCScanner@@@Z 00499bf0 f   FuncTextCmd.obj
 0001:00098c20       ?TextCmd_AttackNotMode@@YAHAAVCScanner@@@Z 00499c20 f   FuncTextCmd.obj
 0001:00098c50       ?TextCmd_CommunityMode@@YAHAAVCScanner@@@Z 00499c50 f   FuncTextCmd.obj
 0001:00098c80       ?TextCmd_CommunityNotMode@@YAHAAVCScanner@@@Z 00499c80 f   FuncTextCmd.obj
 0001:00098cb0       ?TextCmd_ObserveMode@@YAHAAVCScanner@@@Z 00499cb0 f   FuncTextCmd.obj
 0001:00098ce0       ?TextCmd_ObserveNotMode@@YAHAAVCScanner@@@Z 00499ce0 f   FuncTextCmd.obj
 0001:00098d10       ?TextCmd_ip@@YAHAAVCScanner@@@Z 00499d10 f   FuncTextCmd.obj
 0001:00098d70       ?TextCmd_SetTutorialState@@YAHAAVCScanner@@@Z 00499d70 f   FuncTextCmd.obj
 0001:00098da0       ?TextCmd_HonorTitleSet@@YAHAAVCScanner@@@Z 00499da0 f   FuncTextCmd.obj
 0001:00098e30       ?TextCmd_QuizStateNext@@YAHAAVCScanner@@@Z 00499e30 f   FuncTextCmd.obj
 0001:00098e90       ?TextCmd_CampusInvite@@YAHAAVCScanner@@@Z 00499e90 f   FuncTextCmd.obj
 0001:00098f60       ?TextCmd_RemoveCampusMember@@YAHAAVCScanner@@@Z 00499f60 f   FuncTextCmd.obj
 0001:00098fd0       ?TextCmd_UpdateCampusPoint@@YAHAAVCScanner@@@Z 00499fd0 f   FuncTextCmd.obj
 0001:00099020       ??$copy_backward@PAU_PartyInfo@@PAU1@@std@@YAPAU_PartyInfo@@PAU1@00@Z 0049a020 f i FuncTextCmd.obj
 0001:00099050       ??$_Uninit_copy@PAU_PartyInfo@@PAU1@V?$allocator@U_PartyInfo@@@std@@@std@@YAPAU_PartyInfo@@PAU1@00AAV?$allocator@U_PartyInfo@@@0@U_Nonscalar_ptr_iterator_tag@0@@Z 0049a050 f i FuncTextCmd.obj
 0001:00099080       ?TextCmd_PetLevel@@YAHAAVCScanner@@@Z 0049a080 f   FuncTextCmd.obj
 0001:000990d0       ?TextCmd_RefineCollector@@YAHAAVCScanner@@@Z 0049a0d0 f   FuncTextCmd.obj
