; Listing generated by Microsoft (R) Optimizing Compiler Version 13.10.6030 

	TITLE	\Documents and Settings\test\Mes documents\Source\Virtuos_v17\Build\Program\_Common\xUtil3D.cpp
	.386P
include listing.inc
if @Version gt 510
.model FLAT
else
_TEXT	SEGMENT PARA USE32 PUBLIC 'CODE'
_TEXT	ENDS
_DATA	SEGMENT DWORD USE32 PUBLIC 'DATA'
_DATA	ENDS
CONST	SEGMENT DWORD USE32 PUBLIC 'CONST'
CONST	ENDS
_BSS	SEGMENT DWORD USE32 PUBLIC 'BSS'
_BSS	ENDS
$$SYMBOLS	SEGMENT BYTE USE32 'DEBSYM'
$$SYMBOLS	ENDS
$$TYPES	SEGMENT BYTE USE32 'DEBTYP'
$$TYPES	ENDS
_TLS	SEGMENT DWORD USE32 PUBLIC 'TLS'
_TLS	ENDS
xdata$x	SEGMENT DWORD USE32 PUBLIC 'CONST'
xdata$x	ENDS
text$AFX_COL1	SEGMENT PARA USE32 PUBLIC ''
text$AFX_COL1	ENDS
;	COMDAT ?QuaternionRotationToYPW@@YAXABUD3DXQUATERNION@@AAUD3DXVECTOR3@@@Z
_TEXT	SEGMENT PARA USE32 PUBLIC 'CODE'
_TEXT	ENDS
;	COMDAT ?SetBB@@YAXPAUD3DXVECTOR3@@ABU1@1@Z
_TEXT	SEGMENT PARA USE32 PUBLIC 'CODE'
_TEXT	ENDS
;	COMDAT ?IsTouchAABB@@YAHABUD3DXVECTOR3@@000@Z
_TEXT	SEGMENT PARA USE32 PUBLIC 'CODE'
_TEXT	ENDS
;	COMDAT ?CalcOutCode@@YAHABUD3DXVECTOR3@@00@Z
_TEXT	SEGMENT PARA USE32 PUBLIC 'CODE'
_TEXT	ENDS
;	COMDAT ?IsTouchAABB_Line@@YAHABUD3DXVECTOR3@@000PAU1@@Z
_TEXT	SEGMENT PARA USE32 PUBLIC 'CODE'
_TEXT	ENDS
;	COMDAT ?IsTouchOBB_Line@@YAHABUD3DXVECTOR3@@0ABUD3DXMATRIX@@00PAU1@@Z
_TEXT	SEGMENT PARA USE32 PUBLIC 'CODE'
_TEXT	ENDS
;	COMDAT ?IsTouchRayTri@@YAHPBUD3DXVECTOR3@@0000PAM@Z
_TEXT	SEGMENT PARA USE32 PUBLIC 'CODE'
_TEXT	ENDS
;	COMDAT ?CalcSlideVec@@YAXPAUD3DXVECTOR3@@ABU1@1@Z
_TEXT	SEGMENT PARA USE32 PUBLIC 'CODE'
_TEXT	ENDS
;	COMDAT ??0Segment3@@QAE@ABUD3DXVECTOR3@@0@Z
_TEXT	SEGMENT PARA USE32 PUBLIC 'CODE'
_TEXT	ENDS
;	COMDAT ?UpdateMartix@BBOX@@QAEXABUD3DXVECTOR3@@0ABUD3DXMATRIX@@11@Z
_TEXT	SEGMENT PARA USE32 PUBLIC 'CODE'
_TEXT	ENDS
;	COMDAT ?IntrSegment3Box3_Test@@YA_NABVSegment3@@ABVBBOX@@@Z
_TEXT	SEGMENT PARA USE32 PUBLIC 'CODE'
_TEXT	ENDS
;	COMDAT ?compare@?$basic_string@DU?$char_traits@D@std@@V?$allocator@D@2@@std@@QBEHABV12@@Z
_TEXT	SEGMENT PARA USE32 PUBLIC 'CODE'
_TEXT	ENDS
;	COMDAT ?IsFull@?$CStack@K@@QAEHXZ
_TEXT	SEGMENT PARA USE32 PUBLIC 'CODE'
_TEXT	ENDS
;	COMDAT ??0?$pair@KPAVCCtrl@@@std@@QAE@ABKABQAVCCtrl@@@Z
_TEXT	SEGMENT PARA USE32 PUBLIC 'CODE'
_TEXT	ENDS
;	COMDAT ?GetMax@?$CItemContainer@VCItemElem@@@@QAEHXZ
_TEXT	SEGMENT PARA USE32 PUBLIC 'CODE'
_TEXT	ENDS
;	COMDAT ??0?$deque@PAUtagACTMSG@@V?$allocator@PAUtagACTMSG@@@std@@@std@@QAE@XZ
_TEXT	SEGMENT PARA USE32 PUBLIC 'CODE'
_TEXT	ENDS
;	COMDAT ??1?$deque@PAUtagACTMSG@@V?$allocator@PAUtagACTMSG@@@std@@@std@@QAE@XZ
_TEXT	SEGMENT PARA USE32 PUBLIC 'CODE'
_TEXT	ENDS
;	COMDAT ?begin@?$deque@PAUtagACTMSG@@V?$allocator@PAUtagACTMSG@@@std@@@std@@QAE?AViterator@12@XZ
_TEXT	SEGMENT PARA USE32 PUBLIC 'CODE'
_TEXT	ENDS
;	COMDAT ?end@?$deque@PAUtagACTMSG@@V?$allocator@PAUtagACTMSG@@@std@@@std@@QAE?AViterator@12@XZ
_TEXT	SEGMENT PARA USE32 PUBLIC 'CODE'
_TEXT	ENDS
;	COMDAT ?empty@?$deque@PAUtagACTMSG@@V?$allocator@PAUtagACTMSG@@@std@@@std@@QBE_NXZ
_TEXT	SEGMENT PARA USE32 PUBLIC 'CODE'
_TEXT	ENDS
;	COMDAT ?clear@?$deque@PAUtagACTMSG@@V?$allocator@PAUtagACTMSG@@@std@@@std@@QAEXXZ
_TEXT	SEGMENT PARA USE32 PUBLIC 'CODE'
_TEXT	ENDS
;	COMDAT ??0?$deque@PAUtagMAGICATKMSG@@V?$allocator@PAUtagMAGICATKMSG@@@std@@@std@@QAE@XZ
_TEXT	SEGMENT PARA USE32 PUBLIC 'CODE'
_TEXT	ENDS
;	COMDAT ??1?$deque@PAUtagMAGICATKMSG@@V?$allocator@PAUtagMAGICATKMSG@@@std@@@std@@QAE@XZ
_TEXT	SEGMENT PARA USE32 PUBLIC 'CODE'
_TEXT	ENDS
;	COMDAT ?begin@?$deque@PAUtagMAGICATKMSG@@V?$allocator@PAUtagMAGICATKMSG@@@std@@@std@@QAE?AViterator@12@XZ
_TEXT	SEGMENT PARA USE32 PUBLIC 'CODE'
_TEXT	ENDS
;	COMDAT ?end@?$deque@PAUtagMAGICATKMSG@@V?$allocator@PAUtagMAGICATKMSG@@@std@@@std@@QAE?AViterator@12@XZ
_TEXT	SEGMENT PARA USE32 PUBLIC 'CODE'
_TEXT	ENDS
;	COMDAT ?empty@?$deque@PAUtagMAGICATKMSG@@V?$allocator@PAUtagMAGICATKMSG@@@std@@@std@@QBE_NXZ
_TEXT	SEGMENT PARA USE32 PUBLIC 'CODE'
_TEXT	ENDS
;	COMDAT ?clear@?$deque@PAUtagMAGICATKMSG@@V?$allocator@PAUtagMAGICATKMSG@@@std@@@std@@QAEXXZ
_TEXT	SEGMENT PARA USE32 PUBLIC 'CODE'
_TEXT	ENDS
;	COMDAT ??Diterator@?$deque@PAUtagACTMSG@@V?$allocator@PAUtagACTMSG@@@std@@@std@@QBEAAPAUtagACTMSG@@XZ
_TEXT	SEGMENT PARA USE32 PUBLIC 'CODE'
_TEXT	ENDS
;	COMDAT ??Eiterator@?$deque@PAUtagACTMSG@@V?$allocator@PAUtagACTMSG@@@std@@@std@@QAEAAV012@XZ
_TEXT	SEGMENT PARA USE32 PUBLIC 'CODE'
_TEXT	ENDS
;	COMDAT ??9const_iterator@?$deque@PAUtagACTMSG@@V?$allocator@PAUtagACTMSG@@@std@@@std@@QBE_NABV012@@Z
_TEXT	SEGMENT PARA USE32 PUBLIC 'CODE'
_TEXT	ENDS
;	COMDAT ??Diterator@?$deque@PAUtagMAGICATKMSG@@V?$allocator@PAUtagMAGICATKMSG@@@std@@@std@@QBEAAPAUtagMAGICATKMSG@@XZ
_TEXT	SEGMENT PARA USE32 PUBLIC 'CODE'
_TEXT	ENDS
;	COMDAT ??Eiterator@?$deque@PAUtagMAGICATKMSG@@V?$allocator@PAUtagMAGICATKMSG@@@std@@@std@@QAEAAV012@XZ
_TEXT	SEGMENT PARA USE32 PUBLIC 'CODE'
_TEXT	ENDS
;	COMDAT ??9const_iterator@?$deque@PAUtagMAGICATKMSG@@V?$allocator@PAUtagMAGICATKMSG@@@std@@@std@@QBE_NABV012@@Z
_TEXT	SEGMENT PARA USE32 PUBLIC 'CODE'
_TEXT	ENDS
;	COMDAT ?compare@?$basic_string@DU?$char_traits@D@std@@V?$allocator@D@2@@std@@QBEHIIPBDI@Z
_TEXT	SEGMENT PARA USE32 PUBLIC 'CODE'
_TEXT	ENDS
;	COMDAT ?_Tidy@?$deque@PAUtagACTMSG@@V?$allocator@PAUtagACTMSG@@@std@@@std@@IAEXXZ
_TEXT	SEGMENT PARA USE32 PUBLIC 'CODE'
_TEXT	ENDS
;	COMDAT ??0?$_Deque_val@PAUtagACTMSG@@V?$allocator@PAUtagACTMSG@@@std@@@std@@IAE@V?$allocator@PAUtagACTMSG@@@1@@Z
_TEXT	SEGMENT PARA USE32 PUBLIC 'CODE'
_TEXT	ENDS
;	COMDAT ??0?$allocator@PAUtagACTMSG@@@std@@QAE@XZ
_TEXT	SEGMENT PARA USE32 PUBLIC 'CODE'
_TEXT	ENDS
;	COMDAT ?_Tidy@?$deque@PAUtagMAGICATKMSG@@V?$allocator@PAUtagMAGICATKMSG@@@std@@@std@@IAEXXZ
_TEXT	SEGMENT PARA USE32 PUBLIC 'CODE'
_TEXT	ENDS
;	COMDAT ??0?$_Deque_val@PAUtagMAGICATKMSG@@V?$allocator@PAUtagMAGICATKMSG@@@std@@@std@@IAE@V?$allocator@PAUtagMAGICATKMSG@@@1@@Z
_TEXT	SEGMENT PARA USE32 PUBLIC 'CODE'
_TEXT	ENDS
;	COMDAT ??0?$allocator@PAUtagMAGICATKMSG@@@std@@QAE@XZ
_TEXT	SEGMENT PARA USE32 PUBLIC 'CODE'
_TEXT	ENDS
;	COMDAT ??0iterator@?$deque@PAUtagACTMSG@@V?$allocator@PAUtagACTMSG@@@std@@@std@@QAE@IPBV12@@Z
_TEXT	SEGMENT PARA USE32 PUBLIC 'CODE'
_TEXT	ENDS
;	COMDAT ??Dconst_iterator@?$deque@PAUtagACTMSG@@V?$allocator@PAUtagACTMSG@@@std@@@std@@QBEABQAUtagACTMSG@@XZ
_TEXT	SEGMENT PARA USE32 PUBLIC 'CODE'
_TEXT	ENDS
;	COMDAT ??8const_iterator@?$deque@PAUtagACTMSG@@V?$allocator@PAUtagACTMSG@@@std@@@std@@QBE_NABV012@@Z
_TEXT	SEGMENT PARA USE32 PUBLIC 'CODE'
_TEXT	ENDS
;	COMDAT ??0iterator@?$deque@PAUtagMAGICATKMSG@@V?$allocator@PAUtagMAGICATKMSG@@@std@@@std@@QAE@IPBV12@@Z
_TEXT	SEGMENT PARA USE32 PUBLIC 'CODE'
_TEXT	ENDS
;	COMDAT ??Dconst_iterator@?$deque@PAUtagMAGICATKMSG@@V?$allocator@PAUtagMAGICATKMSG@@@std@@@std@@QBEABQAUtagMAGICATKMSG@@XZ
_TEXT	SEGMENT PARA USE32 PUBLIC 'CODE'
_TEXT	ENDS
;	COMDAT ??8const_iterator@?$deque@PAUtagMAGICATKMSG@@V?$allocator@PAUtagMAGICATKMSG@@@std@@@std@@QBE_NABV012@@Z
_TEXT	SEGMENT PARA USE32 PUBLIC 'CODE'
_TEXT	ENDS
;	COMDAT ?pop_back@?$deque@PAUtagACTMSG@@V?$allocator@PAUtagACTMSG@@@std@@@std@@QAEXXZ
_TEXT	SEGMENT PARA USE32 PUBLIC 'CODE'
_TEXT	ENDS
;	COMDAT ??0?$_Deque_map@PAUtagACTMSG@@V?$allocator@PAUtagACTMSG@@@std@@@std@@IAE@V?$allocator@PAUtagACTMSG@@@1@@Z
_TEXT	SEGMENT PARA USE32 PUBLIC 'CODE'
_TEXT	ENDS
;	COMDAT ??0?$allocator@PAUtagACTMSG@@@std@@QAE@ABV01@@Z
_TEXT	SEGMENT PARA USE32 PUBLIC 'CODE'
_TEXT	ENDS
;	COMDAT ?deallocate@?$allocator@PAUtagACTMSG@@@std@@QAEXPAPAUtagACTMSG@@I@Z
_TEXT	SEGMENT PARA USE32 PUBLIC 'CODE'
_TEXT	ENDS
;	COMDAT ?deallocate@?$allocator@PAPAUtagACTMSG@@@std@@QAEXPAPAPAUtagACTMSG@@I@Z
_TEXT	SEGMENT PARA USE32 PUBLIC 'CODE'
_TEXT	ENDS
;	COMDAT ?destroy@?$allocator@PAPAUtagACTMSG@@@std@@QAEXPAPAPAUtagACTMSG@@@Z
_TEXT	SEGMENT PARA USE32 PUBLIC 'CODE'
_TEXT	ENDS
;	COMDAT ?pop_back@?$deque@PAUtagMAGICATKMSG@@V?$allocator@PAUtagMAGICATKMSG@@@std@@@std@@QAEXXZ
_TEXT	SEGMENT PARA USE32 PUBLIC 'CODE'
_TEXT	ENDS
;	COMDAT ??0?$_Deque_map@PAUtagMAGICATKMSG@@V?$allocator@PAUtagMAGICATKMSG@@@std@@@std@@IAE@V?$allocator@PAUtagMAGICATKMSG@@@1@@Z
_TEXT	SEGMENT PARA USE32 PUBLIC 'CODE'
_TEXT	ENDS
;	COMDAT ??0?$allocator@PAUtagMAGICATKMSG@@@std@@QAE@ABV01@@Z
_TEXT	SEGMENT PARA USE32 PUBLIC 'CODE'
_TEXT	ENDS
;	COMDAT ?deallocate@?$allocator@PAUtagMAGICATKMSG@@@std@@QAEXPAPAUtagMAGICATKMSG@@I@Z
_TEXT	SEGMENT PARA USE32 PUBLIC 'CODE'
_TEXT	ENDS
;	COMDAT ?deallocate@?$allocator@PAPAUtagMAGICATKMSG@@@std@@QAEXPAPAPAUtagMAGICATKMSG@@I@Z
_TEXT	SEGMENT PARA USE32 PUBLIC 'CODE'
_TEXT	ENDS
;	COMDAT ?destroy@?$allocator@PAPAUtagMAGICATKMSG@@@std@@QAEXPAPAPAUtagMAGICATKMSG@@@Z
_TEXT	SEGMENT PARA USE32 PUBLIC 'CODE'
_TEXT	ENDS
;	COMDAT ??0const_iterator@?$deque@PAUtagACTMSG@@V?$allocator@PAUtagACTMSG@@@std@@@std@@QAE@IPBV12@@Z
_TEXT	SEGMENT PARA USE32 PUBLIC 'CODE'
_TEXT	ENDS
;	COMDAT ??0const_iterator@?$deque@PAUtagMAGICATKMSG@@V?$allocator@PAUtagMAGICATKMSG@@@std@@@std@@QAE@IPBV12@@Z
_TEXT	SEGMENT PARA USE32 PUBLIC 'CODE'
_TEXT	ENDS
;	COMDAT ?destroy@?$allocator@PAUtagACTMSG@@@std@@QAEXPAPAUtagACTMSG@@@Z
_TEXT	SEGMENT PARA USE32 PUBLIC 'CODE'
_TEXT	ENDS
;	COMDAT ?destroy@?$allocator@PAUtagMAGICATKMSG@@@std@@QAEXPAPAUtagMAGICATKMSG@@@Z
_TEXT	SEGMENT PARA USE32 PUBLIC 'CODE'
_TEXT	ENDS
;	COMDAT ??$_Iter_cat@Vconst_iterator@?$vector@EV?$allocator@E@std@@@std@@@std@@YA?AUrandom_access_iterator_tag@0@ABVconst_iterator@?$vector@EV?$allocator@E@std@@@0@@Z
_TEXT	SEGMENT PARA USE32 PUBLIC 'CODE'
_TEXT	ENDS
;	COMDAT ??$_Assign@Vconst_iterator@?$vector@EV?$allocator@E@std@@@std@@@?$vector@EV?$allocator@E@std@@@std@@QAEXVconst_iterator@01@0Uinput_iterator_tag@1@@Z
_TEXT	SEGMENT PARA USE32 PUBLIC 'CODE'
_TEXT	ENDS
;	COMDAT ??$_Iter_cat@Viterator@?$_Tree@V?$_Tmap_traits@KPAVCUser@@U?$less@K@std@@V?$allocator@U?$pair@$$CBKPAVCUser@@@std@@@3@$0A@@std@@@std@@@std@@YA?AUbidirectional_iterator_tag@0@ABViterator@?$_Tree@V?$_Tmap_traits@KPAVCUser@@U?$less@K@std@@V?$allocator@U?$pair@$$CBKPAVCUser@@@std@@@3@$0A@@std@@@0@@Z
_TEXT	SEGMENT PARA USE32 PUBLIC 'CODE'
_TEXT	ENDS
;	COMDAT ??$_Distance2@Viterator@?$_Tree@V?$_Tmap_traits@KPAVCUser@@U?$less@K@std@@V?$allocator@U?$pair@$$CBKPAVCUser@@@std@@@3@$0A@@std@@@std@@I@std@@YAXViterator@?$_Tree@V?$_Tmap_traits@KPAVCUser@@U?$less@K@std@@V?$allocator@U?$pair@$$CBKPAVCUser@@@std@@@3@$0A@@std@@@0@0AAIUbidirectional_iterator_tag@0@@Z
_TEXT	SEGMENT PARA USE32 PUBLIC 'CODE'
_TEXT	ENDS
;	COMDAT ??$_Iter_cat@Viterator@?$_Tree@V?$_Tmap_traits@KPAVCCtrl@@U?$less@K@std@@V?$allocator@U?$pair@$$CBKPAVCCtrl@@@std@@@3@$0A@@std@@@std@@@std@@YA?AUbidirectional_iterator_tag@0@ABViterator@?$_Tree@V?$_Tmap_traits@KPAVCCtrl@@U?$less@K@std@@V?$allocator@U?$pair@$$CBKPAVCCtrl@@@std@@@3@$0A@@std@@@0@@Z
_TEXT	SEGMENT PARA USE32 PUBLIC 'CODE'
_TEXT	ENDS
;	COMDAT ??$_Distance2@Viterator@?$_Tree@V?$_Tmap_traits@KPAVCCtrl@@U?$less@K@std@@V?$allocator@U?$pair@$$CBKPAVCCtrl@@@std@@@3@$0A@@std@@@std@@I@std@@YAXViterator@?$_Tree@V?$_Tmap_traits@KPAVCCtrl@@U?$less@K@std@@V?$allocator@U?$pair@$$CBKPAVCCtrl@@@std@@@3@$0A@@std@@@0@0AAIUbidirectional_iterator_tag@0@@Z
_TEXT	SEGMENT PARA USE32 PUBLIC 'CODE'
_TEXT	ENDS
;	COMDAT ??$_Uninitialized_copy@Vconst_iterator@?$vector@EV?$allocator@E@std@@@std@@PAEV?$allocator@E@3@@std@@YAPAEVconst_iterator@?$vector@EV?$allocator@E@std@@@0@0PAEAAV?$allocator@E@0@@Z
_TEXT	SEGMENT PARA USE32 PUBLIC 'CODE'
_TEXT	ENDS
;	COMDAT ??$_Iter_cat@Viterator@?$_Tree@V?$_Tmap_traits@KEU?$less@K@std@@V?$allocator@U?$pair@$$CBKE@std@@@2@$0A@@std@@@std@@@std@@YA?AUbidirectional_iterator_tag@0@ABViterator@?$_Tree@V?$_Tmap_traits@KEU?$less@K@std@@V?$allocator@U?$pair@$$CBKE@std@@@2@$0A@@std@@@0@@Z
_TEXT	SEGMENT PARA USE32 PUBLIC 'CODE'
_TEXT	ENDS
;	COMDAT ??$_Distance2@Viterator@?$_Tree@V?$_Tmap_traits@KEU?$less@K@std@@V?$allocator@U?$pair@$$CBKE@std@@@2@$0A@@std@@@std@@I@std@@YAXViterator@?$_Tree@V?$_Tmap_traits@KEU?$less@K@std@@V?$allocator@U?$pair@$$CBKE@std@@@2@$0A@@std@@@0@0AAIUbidirectional_iterator_tag@0@@Z
_TEXT	SEGMENT PARA USE32 PUBLIC 'CODE'
_TEXT	ENDS
;	COMDAT ??$_Ptr_cat@PAU__SPAWNREGION@CEventLua@@PAU12@@std@@YA?AU_Nonscalar_ptr_iterator_tag@0@AAPAU__SPAWNREGION@CEventLua@@0@Z
_TEXT	SEGMENT PARA USE32 PUBLIC 'CODE'
_TEXT	ENDS
;	COMDAT ??$_Uninit_fill_n@PAU__SPAWNREGION@CEventLua@@IU12@V?$allocator@U__SPAWNREGION@CEventLua@@@std@@@std@@YAXPAU__SPAWNREGION@CEventLua@@IABU12@AAV?$allocator@U__SPAWNREGION@CEventLua@@@0@U_Nonscalar_ptr_iterator_tag@0@@Z
_TEXT	SEGMENT PARA USE32 PUBLIC 'CODE'
_TEXT	ENDS
;	COMDAT ??$_Copy_opt@PAJPAJ@std@@YAPAJPAJ00U_Scalar_ptr_iterator_tag@0@@Z
_TEXT	SEGMENT PARA USE32 PUBLIC 'CODE'
_TEXT	ENDS
;	COMDAT ??$_Uninitialized_copy@PAJPAJV?$allocator@J@std@@@std@@YAPAJPAJ00AAV?$allocator@J@0@@Z
_TEXT	SEGMENT PARA USE32 PUBLIC 'CODE'
_TEXT	ENDS
;	COMDAT ??$_Copy_backward_opt@PAJPAJ@std@@YAPAJPAJ00U_Scalar_ptr_iterator_tag@0@@Z
_TEXT	SEGMENT PARA USE32 PUBLIC 'CODE'
_TEXT	ENDS
;	COMDAT ??$_Ptr_cat@PAUtagDROPITEM@@PAU1@@std@@YA?AU_Nonscalar_ptr_iterator_tag@0@AAPAUtagDROPITEM@@0@Z
_TEXT	SEGMENT PARA USE32 PUBLIC 'CODE'
_TEXT	ENDS
;	COMDAT ??$_Destroy_range@UtagDROPITEM@@V?$allocator@UtagDROPITEM@@@std@@@std@@YAXPAUtagDROPITEM@@0AAV?$allocator@UtagDROPITEM@@@0@U_Nonscalar_ptr_iterator_tag@0@@Z
_TEXT	SEGMENT PARA USE32 PUBLIC 'CODE'
_TEXT	ENDS
;	COMDAT ??$_Ptr_cat@PAUWORMON@@PAU1@@std@@YA?AU_Nonscalar_ptr_iterator_tag@0@AAPAUWORMON@@0@Z
_TEXT	SEGMENT PARA USE32 PUBLIC 'CODE'
_TEXT	ENDS
;	COMDAT ??$_Destroy_range@UWORMON@@V?$allocator@UWORMON@@@std@@@std@@YAXPAUWORMON@@0AAV?$allocator@UWORMON@@@0@U_Nonscalar_ptr_iterator_tag@0@@Z
_TEXT	SEGMENT PARA USE32 PUBLIC 'CODE'
_TEXT	ENDS
;	COMDAT ??$_Ptr_cat@PAU__ITEMGAME@CMiniGame@@PAU12@@std@@YA?AU_Nonscalar_ptr_iterator_tag@0@AAPAU__ITEMGAME@CMiniGame@@0@Z
_TEXT	SEGMENT PARA USE32 PUBLIC 'CODE'
_TEXT	ENDS
;	COMDAT ??$_Destroy_range@U__ITEMGAME@CMiniGame@@V?$allocator@U__ITEMGAME@CMiniGame@@@std@@@std@@YAXPAU__ITEMGAME@CMiniGame@@0AAV?$allocator@U__ITEMGAME@CMiniGame@@@0@U_Nonscalar_ptr_iterator_tag@0@@Z
_TEXT	SEGMENT PARA USE32 PUBLIC 'CODE'
_TEXT	ENDS
;	COMDAT ??$_Destroy_range@KV?$allocator@K@std@@@std@@YAXPAK0AAV?$allocator@K@0@U_Scalar_ptr_iterator_tag@0@@Z
_TEXT	SEGMENT PARA USE32 PUBLIC 'CODE'
_TEXT	ENDS
;	COMDAT ??$_Destroy_range@HV?$allocator@H@std@@@std@@YAXPAH0AAV?$allocator@H@0@U_Scalar_ptr_iterator_tag@0@@Z
_TEXT	SEGMENT PARA USE32 PUBLIC 'CODE'
_TEXT	ENDS
;	COMDAT ??$_Ptr_cat@PAU__ITEM@CExchange@@PAU12@@std@@YA?AU_Nonscalar_ptr_iterator_tag@0@AAPAU__ITEM@CExchange@@0@Z
_TEXT	SEGMENT PARA USE32 PUBLIC 'CODE'
_TEXT	ENDS
;	COMDAT ??$_Destroy_range@U__ITEM@CExchange@@V?$allocator@U__ITEM@CExchange@@@std@@@std@@YAXPAU__ITEM@CExchange@@0AAV?$allocator@U__ITEM@CExchange@@@0@U_Nonscalar_ptr_iterator_tag@0@@Z
_TEXT	SEGMENT PARA USE32 PUBLIC 'CODE'
_TEXT	ENDS
;	COMDAT ??$_Ptr_cat@PAU__POINT@CExchange@@PAU12@@std@@YA?AU_Nonscalar_ptr_iterator_tag@0@AAPAU__POINT@CExchange@@0@Z
_TEXT	SEGMENT PARA USE32 PUBLIC 'CODE'
_TEXT	ENDS
;	COMDAT ??$_Destroy_range@U__POINT@CExchange@@V?$allocator@U__POINT@CExchange@@@std@@@std@@YAXPAU__POINT@CExchange@@0AAV?$allocator@U__POINT@CExchange@@@0@U_Nonscalar_ptr_iterator_tag@0@@Z
_TEXT	SEGMENT PARA USE32 PUBLIC 'CODE'
_TEXT	ENDS
;	COMDAT ??$_Destroy_range@EV?$allocator@E@std@@@std@@YAXPAE0AAV?$allocator@E@0@U_Scalar_ptr_iterator_tag@0@@Z
_TEXT	SEGMENT PARA USE32 PUBLIC 'CODE'
_TEXT	ENDS
;	COMDAT ??$_Uninitialized_copy@PAU__SPAWNREGION@CEventLua@@PAU12@V?$allocator@U__SPAWNREGION@CEventLua@@@std@@@std@@YAPAU__SPAWNREGION@CEventLua@@PAU12@00AAV?$allocator@U__SPAWNREGION@CEventLua@@@0@@Z
_TEXT	SEGMENT PARA USE32 PUBLIC 'CODE'
_TEXT	ENDS
;	COMDAT ??$_Copy_backward_opt@PAU__SPAWNREGION@CEventLua@@PAU12@@std@@YAPAU__SPAWNREGION@CEventLua@@PAU12@00U_Nonscalar_ptr_iterator_tag@0@@Z
_TEXT	SEGMENT PARA USE32 PUBLIC 'CODE'
_TEXT	ENDS
;	COMDAT ??$_Ptr_cat@PAUD3DXVECTOR3@@PAU1@@std@@YA?AU_Nonscalar_ptr_iterator_tag@0@AAPAUD3DXVECTOR3@@0@Z
_TEXT	SEGMENT PARA USE32 PUBLIC 'CODE'
_TEXT	ENDS
;	COMDAT ??$_Destroy_range@UD3DXVECTOR3@@V?$allocator@UD3DXVECTOR3@@@std@@@std@@YAXPAUD3DXVECTOR3@@0AAV?$allocator@UD3DXVECTOR3@@@0@U_Nonscalar_ptr_iterator_tag@0@@Z
_TEXT	SEGMENT PARA USE32 PUBLIC 'CODE'
_TEXT	ENDS
;	COMDAT ??$_Ptr_cat@PAU_GIFTBOX@@PAU1@@std@@YA?AU_Nonscalar_ptr_iterator_tag@0@AAPAU_GIFTBOX@@0@Z
_TEXT	SEGMENT PARA USE32 PUBLIC 'CODE'
_TEXT	ENDS
;	COMDAT ??$_Destroy_range@U_GIFTBOX@@V?$allocator@U_GIFTBOX@@@std@@@std@@YAXPAU_GIFTBOX@@0AAV?$allocator@U_GIFTBOX@@@0@U_Nonscalar_ptr_iterator_tag@0@@Z
_TEXT	SEGMENT PARA USE32 PUBLIC 'CODE'
_TEXT	ENDS
;	COMDAT ??$_Destroy_range@JV?$allocator@J@std@@@std@@YAXPAJ0AAV?$allocator@J@0@U_Scalar_ptr_iterator_tag@0@@Z
_TEXT	SEGMENT PARA USE32 PUBLIC 'CODE'
_TEXT	ENDS
;	COMDAT ??$_Uninit_fill_n@JIJ@std@@YAXPAJIABJAAV?$allocator@J@0@U_Scalar_ptr_iterator_tag@0@@Z
_TEXT	SEGMENT PARA USE32 PUBLIC 'CODE'
_TEXT	ENDS
;	COMDAT ??$_Destroy_range@U__SPAWNREGION@CEventLua@@V?$allocator@U__SPAWNREGION@CEventLua@@@std@@@std@@YAXPAU__SPAWNREGION@CEventLua@@0AAV?$allocator@U__SPAWNREGION@CEventLua@@@0@U_Nonscalar_ptr_iterator_tag@0@@Z
_TEXT	SEGMENT PARA USE32 PUBLIC 'CODE'
_TEXT	ENDS
;	COMDAT ??$?0PAUtagACTMSG@@@?$allocator@PAPAUtagACTMSG@@@std@@QAE@ABV?$allocator@PAUtagACTMSG@@@1@@Z
_TEXT	SEGMENT PARA USE32 PUBLIC 'CODE'
_TEXT	ENDS
;	COMDAT ??$_Destroy@PAPAUtagACTMSG@@@std@@YAXPAPAPAUtagACTMSG@@@Z
_TEXT	SEGMENT PARA USE32 PUBLIC 'CODE'
_TEXT	ENDS
;	COMDAT ??$?0PAUtagMAGICATKMSG@@@?$allocator@PAPAUtagMAGICATKMSG@@@std@@QAE@ABV?$allocator@PAUtagMAGICATKMSG@@@1@@Z
_TEXT	SEGMENT PARA USE32 PUBLIC 'CODE'
_TEXT	ENDS
;	COMDAT ??$_Destroy@PAPAUtagMAGICATKMSG@@@std@@YAXPAPAPAUtagMAGICATKMSG@@@Z
_TEXT	SEGMENT PARA USE32 PUBLIC 'CODE'
_TEXT	ENDS
;	COMDAT ??$_Destroy@PAUtagACTMSG@@@std@@YAXPAPAUtagACTMSG@@@Z
_TEXT	SEGMENT PARA USE32 PUBLIC 'CODE'
_TEXT	ENDS
;	COMDAT ??$_Destroy@PAUtagMAGICATKMSG@@@std@@YAXPAPAUtagMAGICATKMSG@@@Z
_TEXT	SEGMENT PARA USE32 PUBLIC 'CODE'
_TEXT	ENDS
;	COMDAT ?destroy@?$allocator@UtagDROPITEM@@@std@@QAEXPAUtagDROPITEM@@@Z
_TEXT	SEGMENT PARA USE32 PUBLIC 'CODE'
_TEXT	ENDS
;	COMDAT ?destroy@?$allocator@UWORMON@@@std@@QAEXPAUWORMON@@@Z
_TEXT	SEGMENT PARA USE32 PUBLIC 'CODE'
_TEXT	ENDS
;	COMDAT ?destroy@?$allocator@U__ITEMGAME@CMiniGame@@@std@@QAEXPAU__ITEMGAME@CMiniGame@@@Z
_TEXT	SEGMENT PARA USE32 PUBLIC 'CODE'
_TEXT	ENDS
;	COMDAT ?destroy@?$allocator@U__ITEM@CExchange@@@std@@QAEXPAU__ITEM@CExchange@@@Z
_TEXT	SEGMENT PARA USE32 PUBLIC 'CODE'
_TEXT	ENDS
;	COMDAT ?destroy@?$allocator@U__POINT@CExchange@@@std@@QAEXPAU__POINT@CExchange@@@Z
_TEXT	SEGMENT PARA USE32 PUBLIC 'CODE'
_TEXT	ENDS
;	COMDAT ?begin@?$vector@EV?$allocator@E@std@@@std@@QAE?AViterator@12@XZ
_TEXT	SEGMENT PARA USE32 PUBLIC 'CODE'
_TEXT	ENDS
;	COMDAT ?end@?$vector@EV?$allocator@E@std@@@std@@QAE?AViterator@12@XZ
_TEXT	SEGMENT PARA USE32 PUBLIC 'CODE'
_TEXT	ENDS
;	COMDAT ?erase@?$vector@EV?$allocator@E@std@@@std@@QAE?AViterator@12@V312@0@Z
_TEXT	SEGMENT PARA USE32 PUBLIC 'CODE'
_TEXT	ENDS
;	COMDAT ?construct@?$allocator@U__SPAWNREGION@CEventLua@@@std@@QAEXPAU__SPAWNREGION@CEventLua@@ABU34@@Z
_TEXT	SEGMENT PARA USE32 PUBLIC 'CODE'
_TEXT	ENDS
;	COMDAT ?destroy@?$allocator@U__SPAWNREGION@CEventLua@@@std@@QAEXPAU__SPAWNREGION@CEventLua@@@Z
_TEXT	SEGMENT PARA USE32 PUBLIC 'CODE'
_TEXT	ENDS
;	COMDAT ?destroy@?$allocator@UD3DXVECTOR3@@@std@@QAEXPAUD3DXVECTOR3@@@Z
_TEXT	SEGMENT PARA USE32 PUBLIC 'CODE'
_TEXT	ENDS
;	COMDAT ?destroy@?$allocator@U_GIFTBOX@@@std@@QAEXPAU_GIFTBOX@@@Z
_TEXT	SEGMENT PARA USE32 PUBLIC 'CODE'
_TEXT	ENDS
;	COMDAT ??9const_iterator@?$vector@EV?$allocator@E@std@@@std@@QBE_NABV012@@Z
_TEXT	SEGMENT PARA USE32 PUBLIC 'CODE'
_TEXT	ENDS
;	COMDAT ??0iterator@?$vector@EV?$allocator@E@std@@@std@@QAE@PAE@Z
_TEXT	SEGMENT PARA USE32 PUBLIC 'CODE'
_TEXT	ENDS
;	COMDAT ??8const_iterator@?$vector@EV?$allocator@E@std@@@std@@QBE_NABV012@@Z
_TEXT	SEGMENT PARA USE32 PUBLIC 'CODE'
_TEXT	ENDS
;	COMDAT ??$insert@Vconst_iterator@?$vector@EV?$allocator@E@std@@@std@@@?$vector@EV?$allocator@E@std@@@std@@QAEXViterator@01@Vconst_iterator@01@1@Z
_TEXT	SEGMENT PARA USE32 PUBLIC 'CODE'
_TEXT	ENDS
;	COMDAT ??$_Ptr_cat@Vconst_iterator@?$vector@EV?$allocator@E@std@@@std@@PAE@std@@YA?AU_Nonscalar_ptr_iterator_tag@0@AAVconst_iterator@?$vector@EV?$allocator@E@std@@@0@AAPAE@Z
_TEXT	SEGMENT PARA USE32 PUBLIC 'CODE'
_TEXT	ENDS
;	COMDAT ??$_Uninit_copy@Vconst_iterator@?$vector@EV?$allocator@E@std@@@std@@PAEV?$allocator@E@3@@std@@YAPAEVconst_iterator@?$vector@EV?$allocator@E@std@@@0@0PAEAAV?$allocator@E@0@U_Nonscalar_ptr_iterator_tag@0@@Z
_TEXT	SEGMENT PARA USE32 PUBLIC 'CODE'
_TEXT	ENDS
;	COMDAT ??$_Uninit_copy@JJ@std@@YAPAJPAJ00AAV?$allocator@J@0@U_Scalar_ptr_iterator_tag@0@@Z
_TEXT	SEGMENT PARA USE32 PUBLIC 'CODE'
_TEXT	ENDS
;	COMDAT ??$_Uninit_copy@PAU__SPAWNREGION@CEventLua@@PAU12@V?$allocator@U__SPAWNREGION@CEventLua@@@std@@@std@@YAPAU__SPAWNREGION@CEventLua@@PAU12@00AAV?$allocator@U__SPAWNREGION@CEventLua@@@0@U_Nonscalar_ptr_iterator_tag@0@@Z
_TEXT	SEGMENT PARA USE32 PUBLIC 'CODE'
_TEXT	ENDS
;	COMDAT ??$fill_n@PAJIJ@std@@YAXPAJIABJ@Z
_TEXT	SEGMENT PARA USE32 PUBLIC 'CODE'
_TEXT	ENDS
;	COMDAT ??$_Destroy@UtagDROPITEM@@@std@@YAXPAUtagDROPITEM@@@Z
_TEXT	SEGMENT PARA USE32 PUBLIC 'CODE'
_TEXT	ENDS
;	COMDAT ??$_Destroy@UWORMON@@@std@@YAXPAUWORMON@@@Z
_TEXT	SEGMENT PARA USE32 PUBLIC 'CODE'
_TEXT	ENDS
;	COMDAT ??$_Destroy@U__ITEMGAME@CMiniGame@@@std@@YAXPAU__ITEMGAME@CMiniGame@@@Z
_TEXT	SEGMENT PARA USE32 PUBLIC 'CODE'
_TEXT	ENDS
;	COMDAT ??$_Destroy@U__ITEM@CExchange@@@std@@YAXPAU__ITEM@CExchange@@@Z
_TEXT	SEGMENT PARA USE32 PUBLIC 'CODE'
_TEXT	ENDS
;	COMDAT ??$_Destroy@U__POINT@CExchange@@@std@@YAXPAU__POINT@CExchange@@@Z
_TEXT	SEGMENT PARA USE32 PUBLIC 'CODE'
_TEXT	ENDS
;	COMDAT ??$copy@PAEPAE@std@@YAPAEPAE00@Z
_TEXT	SEGMENT PARA USE32 PUBLIC 'CODE'
_TEXT	ENDS
;	COMDAT ??$_Construct@U__SPAWNREGION@CEventLua@@U12@@std@@YAXPAU__SPAWNREGION@CEventLua@@ABU12@@Z
_TEXT	SEGMENT PARA USE32 PUBLIC 'CODE'
_TEXT	ENDS
;	COMDAT ??$_Destroy@U__SPAWNREGION@CEventLua@@@std@@YAXPAU__SPAWNREGION@CEventLua@@@Z
_TEXT	SEGMENT PARA USE32 PUBLIC 'CODE'
_TEXT	ENDS
;	COMDAT ??$_Destroy@UD3DXVECTOR3@@@std@@YAXPAUD3DXVECTOR3@@@Z
_TEXT	SEGMENT PARA USE32 PUBLIC 'CODE'
_TEXT	ENDS
;	COMDAT ??$_Destroy@U_GIFTBOX@@@std@@YAXPAU_GIFTBOX@@@Z
_TEXT	SEGMENT PARA USE32 PUBLIC 'CODE'
_TEXT	ENDS
;	COMDAT ?construct@?$allocator@E@std@@QAEXPAEABE@Z
_TEXT	SEGMENT PARA USE32 PUBLIC 'CODE'
_TEXT	ENDS
;	COMDAT ?destroy@?$allocator@E@std@@QAEXPAE@Z
_TEXT	SEGMENT PARA USE32 PUBLIC 'CODE'
_TEXT	ENDS
;	COMDAT ??Dconst_iterator@?$vector@EV?$allocator@E@std@@@std@@QBEABEXZ
_TEXT	SEGMENT PARA USE32 PUBLIC 'CODE'
_TEXT	ENDS
;	COMDAT ??Econst_iterator@?$vector@EV?$allocator@E@std@@@std@@QAEAAV012@XZ
_TEXT	SEGMENT PARA USE32 PUBLIC 'CODE'
_TEXT	ENDS
;	COMDAT ??$_Insert@Vconst_iterator@?$vector@EV?$allocator@E@std@@@std@@@?$vector@EV?$allocator@E@std@@@std@@QAEXViterator@01@Vconst_iterator@01@1Uforward_iterator_tag@1@@Z
_TEXT	SEGMENT PARA USE32 PUBLIC 'CODE'
_TEXT	ENDS
;	COMDAT ??$_Copy_opt@PAEPAE@std@@YAPAEPAE00U_Scalar_ptr_iterator_tag@0@@Z
_TEXT	SEGMENT PARA USE32 PUBLIC 'CODE'
_TEXT	ENDS
;	COMDAT ??$_Construct@EE@std@@YAXPAEABE@Z
_TEXT	SEGMENT PARA USE32 PUBLIC 'CODE'
_TEXT	ENDS
;	COMDAT ??$_Destroy@E@std@@YAXPAE@Z
_TEXT	SEGMENT PARA USE32 PUBLIC 'CODE'
_TEXT	ENDS
;	COMDAT ?capacity@?$vector@EV?$allocator@E@std@@@std@@QBEIXZ
_TEXT	SEGMENT PARA USE32 PUBLIC 'CODE'
_TEXT	ENDS
;	COMDAT ??Giterator@?$vector@EV?$allocator@E@std@@@std@@QBEHABVconst_iterator@12@@Z
_TEXT	SEGMENT PARA USE32 PUBLIC 'CODE'
_TEXT	ENDS
;	COMDAT ??Gconst_iterator@?$vector@EV?$allocator@E@std@@@std@@QBEHABV012@@Z
_TEXT	SEGMENT PARA USE32 PUBLIC 'CODE'
_TEXT	ENDS
;	COMDAT ??$_Distance@Vconst_iterator@?$vector@EV?$allocator@E@std@@@std@@I@std@@YAXVconst_iterator@?$vector@EV?$allocator@E@std@@@0@0AAI@Z
_TEXT	SEGMENT PARA USE32 PUBLIC 'CODE'
_TEXT	ENDS
;	COMDAT ??$_Ucopy@PAE@?$vector@EV?$allocator@E@std@@@std@@IAEPAEPAE00@Z
_TEXT	SEGMENT PARA USE32 PUBLIC 'CODE'
_TEXT	ENDS
;	COMDAT ??$advance@Vconst_iterator@?$vector@EV?$allocator@E@std@@@std@@H@std@@YAXAAVconst_iterator@?$vector@EV?$allocator@E@std@@@0@H@Z
_TEXT	SEGMENT PARA USE32 PUBLIC 'CODE'
_TEXT	ENDS
;	COMDAT ??$copy@Vconst_iterator@?$vector@EV?$allocator@E@std@@@std@@PAE@std@@YAPAEVconst_iterator@?$vector@EV?$allocator@E@std@@@0@0PAE@Z
_TEXT	SEGMENT PARA USE32 PUBLIC 'CODE'
_TEXT	ENDS
;	COMDAT ??$copy_backward@PAEPAE@std@@YAPAEPAE00@Z
_TEXT	SEGMENT PARA USE32 PUBLIC 'CODE'
_TEXT	ENDS
;	COMDAT ??$_Distance2@Vconst_iterator@?$vector@EV?$allocator@E@std@@@std@@I@std@@YAXVconst_iterator@?$vector@EV?$allocator@E@std@@@0@0AAIUrandom_access_iterator_tag@0@@Z
_TEXT	SEGMENT PARA USE32 PUBLIC 'CODE'
_TEXT	ENDS
;	COMDAT ??$_Uninitialized_copy@PAEPAEV?$allocator@E@std@@@std@@YAPAEPAE00AAV?$allocator@E@0@@Z
_TEXT	SEGMENT PARA USE32 PUBLIC 'CODE'
_TEXT	ENDS
;	COMDAT ??$_Advance@Vconst_iterator@?$vector@EV?$allocator@E@std@@@std@@H@std@@YAXAAVconst_iterator@?$vector@EV?$allocator@E@std@@@0@HUrandom_access_iterator_tag@0@@Z
_TEXT	SEGMENT PARA USE32 PUBLIC 'CODE'
_TEXT	ENDS
;	COMDAT ??$_Copy_opt@Vconst_iterator@?$vector@EV?$allocator@E@std@@@std@@PAE@std@@YAPAEVconst_iterator@?$vector@EV?$allocator@E@std@@@0@0PAEU_Nonscalar_ptr_iterator_tag@0@@Z
_TEXT	SEGMENT PARA USE32 PUBLIC 'CODE'
_TEXT	ENDS
;	COMDAT ??$_Copy_backward_opt@PAEPAE@std@@YAPAEPAE00U_Scalar_ptr_iterator_tag@0@@Z
_TEXT	SEGMENT PARA USE32 PUBLIC 'CODE'
_TEXT	ENDS
;	COMDAT ??Yconst_iterator@?$vector@EV?$allocator@E@std@@@std@@QAEAAV012@H@Z
_TEXT	SEGMENT PARA USE32 PUBLIC 'CODE'
_TEXT	ENDS
;	COMDAT ??$_Uninit_copy@EE@std@@YAPAEPAE00AAV?$allocator@E@0@U_Scalar_ptr_iterator_tag@0@@Z
_TEXT	SEGMENT PARA USE32 PUBLIC 'CODE'
_TEXT	ENDS
;	COMDAT ?deallocate@?$allocator@E@std@@QAEXPAEI@Z
_TEXT	SEGMENT PARA USE32 PUBLIC 'CODE'
_TEXT	ENDS
;	COMDAT ??$_Ucopy@Vconst_iterator@?$vector@EV?$allocator@E@std@@@std@@@?$vector@EV?$allocator@E@std@@@std@@IAEPAEVconst_iterator@01@0PAE@Z
_TEXT	SEGMENT PARA USE32 PUBLIC 'CODE'
_TEXT	ENDS
;	COMDAT ?allocate@?$allocator@E@std@@QAEPAEI@Z
_TEXT	SEGMENT PARA USE32 PUBLIC 'CODE'
_TEXT	ENDS
;	COMDAT ??$_Allocate@E@std@@YAPAEIPAE@Z
_TEXT	SEGMENT PARA USE32 PUBLIC 'CODE'
_TEXT	ENDS
;	COMDAT ?_Xlen@?$vector@EV?$allocator@E@std@@@std@@IBEXXZ
_TEXT	SEGMENT PARA USE32 PUBLIC 'CODE'
_TEXT	ENDS
;	COMDAT ??0length_error@std@@QAE@ABV?$basic_string@DU?$char_traits@D@std@@V?$allocator@D@2@@1@@Z
_TEXT	SEGMENT PARA USE32 PUBLIC 'CODE'
_TEXT	ENDS
;	COMDAT ??0logic_error@std@@QAE@ABV?$basic_string@DU?$char_traits@D@std@@V?$allocator@D@2@@1@@Z
_TEXT	SEGMENT PARA USE32 PUBLIC 'CODE'
_TEXT	ENDS
;	COMDAT ??_7logic_error@std@@6B@
CONST	SEGMENT DWORD USE32 PUBLIC 'CONST'
CONST	ENDS
;	COMDAT ??_Glogic_error@std@@UAEPAXI@Z
_TEXT	SEGMENT PARA USE32 PUBLIC 'CODE'
_TEXT	ENDS
;	COMDAT ?what@logic_error@std@@UBEPBDXZ
_TEXT	SEGMENT PARA USE32 PUBLIC 'CODE'
_TEXT	ENDS
;	COMDAT ?c_str@?$basic_string@DU?$char_traits@D@std@@V?$allocator@D@2@@std@@QBEPBDXZ
_TEXT	SEGMENT PARA USE32 PUBLIC 'CODE'
_TEXT	ENDS
;	COMDAT ??0?$basic_string@DU?$char_traits@D@std@@V?$allocator@D@2@@std@@QAE@ABV01@@Z
_TEXT	SEGMENT PARA USE32 PUBLIC 'CODE'
_TEXT	ENDS
;	COMDAT ??0?$_String_val@DV?$allocator@D@std@@@std@@IAE@V?$allocator@D@1@@Z
_TEXT	SEGMENT PARA USE32 PUBLIC 'CODE'
_TEXT	ENDS
;	COMDAT ??0?$allocator@D@std@@QAE@ABV01@@Z
_TEXT	SEGMENT PARA USE32 PUBLIC 'CODE'
_TEXT	ENDS
;	COMDAT ?_Tidy@?$basic_string@DU?$char_traits@D@std@@V?$allocator@D@2@@std@@IAEX_NI@Z
_TEXT	SEGMENT PARA USE32 PUBLIC 'CODE'
_TEXT	ENDS
;	COMDAT ?copy@?$char_traits@D@std@@SAPADPADPBDI@Z
_TEXT	SEGMENT PARA USE32 PUBLIC 'CODE'
_TEXT	ENDS
;	COMDAT ?deallocate@?$allocator@D@std@@QAEXPADI@Z
_TEXT	SEGMENT PARA USE32 PUBLIC 'CODE'
_TEXT	ENDS
;	COMDAT ?_Eos@?$basic_string@DU?$char_traits@D@std@@V?$allocator@D@2@@std@@IAEXI@Z
_TEXT	SEGMENT PARA USE32 PUBLIC 'CODE'
_TEXT	ENDS
;	COMDAT ?assign@?$char_traits@D@std@@SAXAADABD@Z
_TEXT	SEGMENT PARA USE32 PUBLIC 'CODE'
_TEXT	ENDS
;	COMDAT ?_Myptr@?$basic_string@DU?$char_traits@D@std@@V?$allocator@D@2@@std@@QAEPADXZ
_TEXT	SEGMENT PARA USE32 PUBLIC 'CODE'
_TEXT	ENDS
;	COMDAT ?assign@?$basic_string@DU?$char_traits@D@std@@V?$allocator@D@2@@std@@QAEAAV12@ABV12@II@Z
_TEXT	SEGMENT PARA USE32 PUBLIC 'CODE'
_TEXT	ENDS
;	COMDAT ?erase@?$basic_string@DU?$char_traits@D@std@@V?$allocator@D@2@@std@@QAEAAV12@II@Z
_TEXT	SEGMENT PARA USE32 PUBLIC 'CODE'
_TEXT	ENDS
;	COMDAT ?move@?$char_traits@D@std@@SAPADPADPBDI@Z
_TEXT	SEGMENT PARA USE32 PUBLIC 'CODE'
_TEXT	ENDS
;	COMDAT ?_Grow@?$basic_string@DU?$char_traits@D@std@@V?$allocator@D@2@@std@@IAE_NI_N@Z
_TEXT	SEGMENT PARA USE32 PUBLIC 'CODE'
_TEXT	ENDS
;	COMDAT ?max_size@?$basic_string@DU?$char_traits@D@std@@V?$allocator@D@2@@std@@QBEIXZ
_TEXT	SEGMENT PARA USE32 PUBLIC 'CODE'
_TEXT	ENDS
;	COMDAT ?max_size@?$allocator@D@std@@QBEIXZ
_TEXT	SEGMENT PARA USE32 PUBLIC 'CODE'
_TEXT	ENDS
;	COMDAT ?_Copy@?$basic_string@DU?$char_traits@D@std@@V?$allocator@D@2@@std@@IAEXII@Z
_TEXT	SEGMENT PARA USE32 PUBLIC 'CODE'
_TEXT	ENDS
;	COMDAT ?allocate@?$allocator@D@std@@QAEPADI@Z
_TEXT	SEGMENT PARA USE32 PUBLIC 'CODE'
_TEXT	ENDS
;	COMDAT ??$_Allocate@D@std@@YAPADIPAD@Z
_TEXT	SEGMENT PARA USE32 PUBLIC 'CODE'
_TEXT	ENDS
;	COMDAT ?npos@?$basic_string@DU?$char_traits@D@std@@V?$allocator@D@2@@std@@2IB
CONST	SEGMENT DWORD USE32 PUBLIC 'CONST'
CONST	ENDS
;	COMDAT ??1logic_error@std@@UAE@XZ
_TEXT	SEGMENT PARA USE32 PUBLIC 'CODE'
_TEXT	ENDS
;	COMDAT ??_7length_error@std@@6B@
CONST	SEGMENT DWORD USE32 PUBLIC 'CONST'
CONST	ENDS
;	COMDAT ??_Glength_error@std@@UAEPAXI@Z
_TEXT	SEGMENT PARA USE32 PUBLIC 'CODE'
_TEXT	ENDS
;	COMDAT ??1length_error@std@@UAE@XZ
_TEXT	SEGMENT PARA USE32 PUBLIC 'CODE'
_TEXT	ENDS
;	COMDAT ??0?$basic_string@DU?$char_traits@D@std@@V?$allocator@D@2@@std@@QAE@PBD@Z
_TEXT	SEGMENT PARA USE32 PUBLIC 'CODE'
_TEXT	ENDS
;	COMDAT ??0?$allocator@D@std@@QAE@XZ
_TEXT	SEGMENT PARA USE32 PUBLIC 'CODE'
_TEXT	ENDS
;	COMDAT ?assign@?$basic_string@DU?$char_traits@D@std@@V?$allocator@D@2@@std@@QAEAAV12@PBD@Z
_TEXT	SEGMENT PARA USE32 PUBLIC 'CODE'
_TEXT	ENDS
;	COMDAT ?assign@?$basic_string@DU?$char_traits@D@std@@V?$allocator@D@2@@std@@QAEAAV12@PBDI@Z
_TEXT	SEGMENT PARA USE32 PUBLIC 'CODE'
_TEXT	ENDS
;	COMDAT ?_Inside@?$basic_string@DU?$char_traits@D@std@@V?$allocator@D@2@@std@@IAE_NPBD@Z
_TEXT	SEGMENT PARA USE32 PUBLIC 'CODE'
_TEXT	ENDS
;	COMDAT ?length@?$char_traits@D@std@@SAIPBD@Z
_TEXT	SEGMENT PARA USE32 PUBLIC 'CODE'
_TEXT	ENDS
;	COMDAT ??_C@_0BD@OLBABOEK@vector?$DMT?$DO?5too?5long?$AA@
CONST	SEGMENT DWORD USE32 PUBLIC 'CONST'
CONST	ENDS
;	COMDAT ??1?$basic_string@DU?$char_traits@D@std@@V?$allocator@D@2@@std@@QAE@XZ
_TEXT	SEGMENT PARA USE32 PUBLIC 'CODE'
_TEXT	ENDS
;	COMDAT __TI3?AVlength_error@std@@
xdata$x	SEGMENT DWORD USE32 PUBLIC 'CONST'
xdata$x	ENDS
;	COMDAT __CTA3?AVlength_error@std@@
xdata$x	SEGMENT DWORD USE32 PUBLIC 'CONST'
xdata$x	ENDS
;	COMDAT __CT??_R0?AVlength_error@std@@@8??0length_error@std@@QAE@ABV01@@Z40
xdata$x	SEGMENT DWORD USE32 PUBLIC 'CONST'
xdata$x	ENDS
;	COMDAT ??_R0?AVlength_error@std@@@8
_DATA	SEGMENT DWORD USE32 PUBLIC 'DATA'
_DATA	ENDS
;	COMDAT ??0length_error@std@@QAE@ABV01@@Z
_TEXT	SEGMENT PARA USE32 PUBLIC 'CODE'
_TEXT	ENDS
;	COMDAT ??0logic_error@std@@QAE@ABV01@@Z
_TEXT	SEGMENT PARA USE32 PUBLIC 'CODE'
_TEXT	ENDS
;	COMDAT __CT??_R0?AVlogic_error@std@@@8??0logic_error@std@@QAE@ABV01@@Z40
xdata$x	SEGMENT DWORD USE32 PUBLIC 'CONST'
xdata$x	ENDS
;	COMDAT ??_R0?AVlogic_error@std@@@8
_DATA	SEGMENT DWORD USE32 PUBLIC 'DATA'
_DATA	ENDS
;	COMDAT __CT??_R0?AVexception@@@8??0exception@@QAE@ABV0@@Z12
xdata$x	SEGMENT DWORD USE32 PUBLIC 'CONST'
xdata$x	ENDS
;	COMDAT ??_R0?AVexception@@@8
_DATA	SEGMENT DWORD USE32 PUBLIC 'DATA'
_DATA	ENDS
;	COMDAT ?size@?$vector@EV?$allocator@E@std@@@std@@QBEIXZ
_TEXT	SEGMENT PARA USE32 PUBLIC 'CODE'
_TEXT	ENDS
;	COMDAT ?max_size@?$vector@EV?$allocator@E@std@@@std@@QBEIXZ
_TEXT	SEGMENT PARA USE32 PUBLIC 'CODE'
_TEXT	ENDS
;	COMDAT ?max_size@?$allocator@E@std@@QBEIXZ
_TEXT	SEGMENT PARA USE32 PUBLIC 'CODE'
_TEXT	ENDS
;	COMDAT ??2@YAPAXIPAX@Z
_TEXT	SEGMENT PARA USE32 PUBLIC 'CODE'
_TEXT	ENDS
;	COMDAT ?_Ptr_cat@std@@YA?AU_Scalar_ptr_iterator_tag@1@PAE0@Z
_TEXT	SEGMENT PARA USE32 PUBLIC 'CODE'
_TEXT	ENDS
;	COMDAT ??0const_iterator@?$vector@EV?$allocator@E@std@@@std@@QAE@PAE@Z
_TEXT	SEGMENT PARA USE32 PUBLIC 'CODE'
_TEXT	ENDS
;	COMDAT ?_Destroy@?$vector@EV?$allocator@E@std@@@std@@IAEXPAE0@Z
_TEXT	SEGMENT PARA USE32 PUBLIC 'CODE'
_TEXT	ENDS
;	COMDAT ??$_Destroy_range@EV?$allocator@E@std@@@std@@YAXPAE0AAV?$allocator@E@0@@Z
_TEXT	SEGMENT PARA USE32 PUBLIC 'CODE'
_TEXT	ENDS
;	COMDAT ?_Ptr_cat@std@@YA?AU_Scalar_ptr_iterator_tag@1@PAJ0@Z
_TEXT	SEGMENT PARA USE32 PUBLIC 'CODE'
_TEXT	ENDS
;	COMDAT ??9const_iterator@?$_Tree@V?$_Tmap_traits@KEU?$less@K@std@@V?$allocator@U?$pair@$$CBKE@std@@@2@$0A@@std@@@std@@QBE_NABV012@@Z
_TEXT	SEGMENT PARA USE32 PUBLIC 'CODE'
_TEXT	ENDS
;	COMDAT ??8const_iterator@?$_Tree@V?$_Tmap_traits@KEU?$less@K@std@@V?$allocator@U?$pair@$$CBKE@std@@@2@$0A@@std@@@std@@QBE_NABV012@@Z
_TEXT	SEGMENT PARA USE32 PUBLIC 'CODE'
_TEXT	ENDS
;	COMDAT ??Eiterator@?$_Tree@V?$_Tmap_traits@KEU?$less@K@std@@V?$allocator@U?$pair@$$CBKE@std@@@2@$0A@@std@@@std@@QAEAAV012@XZ
_TEXT	SEGMENT PARA USE32 PUBLIC 'CODE'
_TEXT	ENDS
;	COMDAT ??Econst_iterator@?$_Tree@V?$_Tmap_traits@KEU?$less@K@std@@V?$allocator@U?$pair@$$CBKE@std@@@2@$0A@@std@@@std@@QAEAAV012@XZ
_TEXT	SEGMENT PARA USE32 PUBLIC 'CODE'
_TEXT	ENDS
;	COMDAT ?_Inc@const_iterator@?$_Tree@V?$_Tmap_traits@KEU?$less@K@std@@V?$allocator@U?$pair@$$CBKE@std@@@2@$0A@@std@@@std@@QAEXXZ
_TEXT	SEGMENT PARA USE32 PUBLIC 'CODE'
_TEXT	ENDS
;	COMDAT ?_Min@?$_Tree@V?$_Tmap_traits@KEU?$less@K@std@@V?$allocator@U?$pair@$$CBKE@std@@@2@$0A@@std@@@std@@KAPAU_Node@?$_Tree_nod@V?$_Tmap_traits@KEU?$less@K@std@@V?$allocator@U?$pair@$$CBKE@std@@@2@$0A@@std@@@2@PAU342@@Z
_TEXT	SEGMENT PARA USE32 PUBLIC 'CODE'
_TEXT	ENDS
;	COMDAT ?_Left@?$_Tree@V?$_Tmap_traits@KEU?$less@K@std@@V?$allocator@U?$pair@$$CBKE@std@@@2@$0A@@std@@@std@@KAAAPAU_Node@?$_Tree_nod@V?$_Tmap_traits@KEU?$less@K@std@@V?$allocator@U?$pair@$$CBKE@std@@@2@$0A@@std@@@2@PAU342@@Z
_TEXT	SEGMENT PARA USE32 PUBLIC 'CODE'
_TEXT	ENDS
;	COMDAT ?_Isnil@?$_Tree@V?$_Tmap_traits@KEU?$less@K@std@@V?$allocator@U?$pair@$$CBKE@std@@@2@$0A@@std@@@std@@KAAADPAU_Node@?$_Tree_nod@V?$_Tmap_traits@KEU?$less@K@std@@V?$allocator@U?$pair@$$CBKE@std@@@2@$0A@@std@@@2@@Z
_TEXT	SEGMENT PARA USE32 PUBLIC 'CODE'
_TEXT	ENDS
;	COMDAT ?_Parent@?$_Tree@V?$_Tmap_traits@KEU?$less@K@std@@V?$allocator@U?$pair@$$CBKE@std@@@2@$0A@@std@@@std@@KAAAPAU_Node@?$_Tree_nod@V?$_Tmap_traits@KEU?$less@K@std@@V?$allocator@U?$pair@$$CBKE@std@@@2@$0A@@std@@@2@PAU342@@Z
_TEXT	SEGMENT PARA USE32 PUBLIC 'CODE'
_TEXT	ENDS
;	COMDAT ?_Right@?$_Tree@V?$_Tmap_traits@KEU?$less@K@std@@V?$allocator@U?$pair@$$CBKE@std@@@2@$0A@@std@@@std@@KAAAPAU_Node@?$_Tree_nod@V?$_Tmap_traits@KEU?$less@K@std@@V?$allocator@U?$pair@$$CBKE@std@@@2@$0A@@std@@@2@PAU342@@Z
_TEXT	SEGMENT PARA USE32 PUBLIC 'CODE'
_TEXT	ENDS
;	COMDAT ??9const_iterator@?$_Tree@V?$_Tmap_traits@KPAVCCtrl@@U?$less@K@std@@V?$allocator@U?$pair@$$CBKPAVCCtrl@@@std@@@3@$0A@@std@@@std@@QBE_NABV012@@Z
_TEXT	SEGMENT PARA USE32 PUBLIC 'CODE'
_TEXT	ENDS
;	COMDAT ??8const_iterator@?$_Tree@V?$_Tmap_traits@KPAVCCtrl@@U?$less@K@std@@V?$allocator@U?$pair@$$CBKPAVCCtrl@@@std@@@3@$0A@@std@@@std@@QBE_NABV012@@Z
_TEXT	SEGMENT PARA USE32 PUBLIC 'CODE'
_TEXT	ENDS
;	COMDAT ??Eiterator@?$_Tree@V?$_Tmap_traits@KPAVCCtrl@@U?$less@K@std@@V?$allocator@U?$pair@$$CBKPAVCCtrl@@@std@@@3@$0A@@std@@@std@@QAEAAV012@XZ
_TEXT	SEGMENT PARA USE32 PUBLIC 'CODE'
_TEXT	ENDS
;	COMDAT ??Econst_iterator@?$_Tree@V?$_Tmap_traits@KPAVCCtrl@@U?$less@K@std@@V?$allocator@U?$pair@$$CBKPAVCCtrl@@@std@@@3@$0A@@std@@@std@@QAEAAV012@XZ
_TEXT	SEGMENT PARA USE32 PUBLIC 'CODE'
_TEXT	ENDS
;	COMDAT ?_Inc@const_iterator@?$_Tree@V?$_Tmap_traits@KPAVCCtrl@@U?$less@K@std@@V?$allocator@U?$pair@$$CBKPAVCCtrl@@@std@@@3@$0A@@std@@@std@@QAEXXZ
_TEXT	SEGMENT PARA USE32 PUBLIC 'CODE'
_TEXT	ENDS
;	COMDAT ?_Min@?$_Tree@V?$_Tmap_traits@KPAVCCtrl@@U?$less@K@std@@V?$allocator@U?$pair@$$CBKPAVCCtrl@@@std@@@3@$0A@@std@@@std@@KAPAU_Node@?$_Tree_nod@V?$_Tmap_traits@KPAVCCtrl@@U?$less@K@std@@V?$allocator@U?$pair@$$CBKPAVCCtrl@@@std@@@3@$0A@@std@@@2@PAU342@@Z
_TEXT	SEGMENT PARA USE32 PUBLIC 'CODE'
_TEXT	ENDS
;	COMDAT ?_Left@?$_Tree@V?$_Tmap_traits@KPAVCCtrl@@U?$less@K@std@@V?$allocator@U?$pair@$$CBKPAVCCtrl@@@std@@@3@$0A@@std@@@std@@KAAAPAU_Node@?$_Tree_nod@V?$_Tmap_traits@KPAVCCtrl@@U?$less@K@std@@V?$allocator@U?$pair@$$CBKPAVCCtrl@@@std@@@3@$0A@@std@@@2@PAU342@@Z
_TEXT	SEGMENT PARA USE32 PUBLIC 'CODE'
_TEXT	ENDS
;	COMDAT ?_Isnil@?$_Tree@V?$_Tmap_traits@KPAVCCtrl@@U?$less@K@std@@V?$allocator@U?$pair@$$CBKPAVCCtrl@@@std@@@3@$0A@@std@@@std@@KAAADPAU_Node@?$_Tree_nod@V?$_Tmap_traits@KPAVCCtrl@@U?$less@K@std@@V?$allocator@U?$pair@$$CBKPAVCCtrl@@@std@@@3@$0A@@std@@@2@@Z
_TEXT	SEGMENT PARA USE32 PUBLIC 'CODE'
_TEXT	ENDS
;	COMDAT ?_Parent@?$_Tree@V?$_Tmap_traits@KPAVCCtrl@@U?$less@K@std@@V?$allocator@U?$pair@$$CBKPAVCCtrl@@@std@@@3@$0A@@std@@@std@@KAAAPAU_Node@?$_Tree_nod@V?$_Tmap_traits@KPAVCCtrl@@U?$less@K@std@@V?$allocator@U?$pair@$$CBKPAVCCtrl@@@std@@@3@$0A@@std@@@2@PAU342@@Z
_TEXT	SEGMENT PARA USE32 PUBLIC 'CODE'
_TEXT	ENDS
;	COMDAT ?_Right@?$_Tree@V?$_Tmap_traits@KPAVCCtrl@@U?$less@K@std@@V?$allocator@U?$pair@$$CBKPAVCCtrl@@@std@@@3@$0A@@std@@@std@@KAAAPAU_Node@?$_Tree_nod@V?$_Tmap_traits@KPAVCCtrl@@U?$less@K@std@@V?$allocator@U?$pair@$$CBKPAVCCtrl@@@std@@@3@$0A@@std@@@2@PAU342@@Z
_TEXT	SEGMENT PARA USE32 PUBLIC 'CODE'
_TEXT	ENDS
;	COMDAT ??9const_iterator@?$_Tree@V?$_Tmap_traits@KPAVCUser@@U?$less@K@std@@V?$allocator@U?$pair@$$CBKPAVCUser@@@std@@@3@$0A@@std@@@std@@QBE_NABV012@@Z
_TEXT	SEGMENT PARA USE32 PUBLIC 'CODE'
_TEXT	ENDS
;	COMDAT ??8const_iterator@?$_Tree@V?$_Tmap_traits@KPAVCUser@@U?$less@K@std@@V?$allocator@U?$pair@$$CBKPAVCUser@@@std@@@3@$0A@@std@@@std@@QBE_NABV012@@Z
_TEXT	SEGMENT PARA USE32 PUBLIC 'CODE'
_TEXT	ENDS
;	COMDAT ??Eiterator@?$_Tree@V?$_Tmap_traits@KPAVCUser@@U?$less@K@std@@V?$allocator@U?$pair@$$CBKPAVCUser@@@std@@@3@$0A@@std@@@std@@QAEAAV012@XZ
_TEXT	SEGMENT PARA USE32 PUBLIC 'CODE'
_TEXT	ENDS
;	COMDAT ??Econst_iterator@?$_Tree@V?$_Tmap_traits@KPAVCUser@@U?$less@K@std@@V?$allocator@U?$pair@$$CBKPAVCUser@@@std@@@3@$0A@@std@@@std@@QAEAAV012@XZ
_TEXT	SEGMENT PARA USE32 PUBLIC 'CODE'
_TEXT	ENDS
;	COMDAT ?_Inc@const_iterator@?$_Tree@V?$_Tmap_traits@KPAVCUser@@U?$less@K@std@@V?$allocator@U?$pair@$$CBKPAVCUser@@@std@@@3@$0A@@std@@@std@@QAEXXZ
_TEXT	SEGMENT PARA USE32 PUBLIC 'CODE'
_TEXT	ENDS
;	COMDAT ?_Min@?$_Tree@V?$_Tmap_traits@KPAVCUser@@U?$less@K@std@@V?$allocator@U?$pair@$$CBKPAVCUser@@@std@@@3@$0A@@std@@@std@@KAPAU_Node@?$_Tree_nod@V?$_Tmap_traits@KPAVCUser@@U?$less@K@std@@V?$allocator@U?$pair@$$CBKPAVCUser@@@std@@@3@$0A@@std@@@2@PAU342@@Z
_TEXT	SEGMENT PARA USE32 PUBLIC 'CODE'
_TEXT	ENDS
;	COMDAT ?_Left@?$_Tree@V?$_Tmap_traits@KPAVCUser@@U?$less@K@std@@V?$allocator@U?$pair@$$CBKPAVCUser@@@std@@@3@$0A@@std@@@std@@KAAAPAU_Node@?$_Tree_nod@V?$_Tmap_traits@KPAVCUser@@U?$less@K@std@@V?$allocator@U?$pair@$$CBKPAVCUser@@@std@@@3@$0A@@std@@@2@PAU342@@Z
_TEXT	SEGMENT PARA USE32 PUBLIC 'CODE'
_TEXT	ENDS
;	COMDAT ?_Isnil@?$_Tree@V?$_Tmap_traits@KPAVCUser@@U?$less@K@std@@V?$allocator@U?$pair@$$CBKPAVCUser@@@std@@@3@$0A@@std@@@std@@KAAADPAU_Node@?$_Tree_nod@V?$_Tmap_traits@KPAVCUser@@U?$less@K@std@@V?$allocator@U?$pair@$$CBKPAVCUser@@@std@@@3@$0A@@std@@@2@@Z
_TEXT	SEGMENT PARA USE32 PUBLIC 'CODE'
_TEXT	ENDS
;	COMDAT ?_Parent@?$_Tree@V?$_Tmap_traits@KPAVCUser@@U?$less@K@std@@V?$allocator@U?$pair@$$CBKPAVCUser@@@std@@@3@$0A@@std@@@std@@KAAAPAU_Node@?$_Tree_nod@V?$_Tmap_traits@KPAVCUser@@U?$less@K@std@@V?$allocator@U?$pair@$$CBKPAVCUser@@@std@@@3@$0A@@std@@@2@PAU342@@Z
_TEXT	SEGMENT PARA USE32 PUBLIC 'CODE'
_TEXT	ENDS
;	COMDAT ?_Right@?$_Tree@V?$_Tmap_traits@KPAVCUser@@U?$less@K@std@@V?$allocator@U?$pair@$$CBKPAVCUser@@@std@@@3@$0A@@std@@@std@@KAAAPAU_Node@?$_Tree_nod@V?$_Tmap_traits@KPAVCUser@@U?$less@K@std@@V?$allocator@U?$pair@$$CBKPAVCUser@@@std@@@3@$0A@@std@@@2@PAU342@@Z
_TEXT	SEGMENT PARA USE32 PUBLIC 'CODE'
_TEXT	ENDS
;	COMDAT ?_Psave@?$_Facetptr@V?$ctype@G@std@@@std@@2PBVfacet@locale@2@B
_DATA	SEGMENT DWORD USE32 PUBLIC 'DATA'
_DATA	ENDS
;	COMDAT ?_Psave@?$_Facetptr@V?$ctype@D@std@@@std@@2PBVfacet@locale@2@B
_DATA	SEGMENT DWORD USE32 PUBLIC 'DATA'
_DATA	ENDS
;	COMDAT ?compare@?$char_traits@D@std@@SAHPBD0I@Z
_TEXT	SEGMENT PARA USE32 PUBLIC 'CODE'
_TEXT	ENDS
;	COMDAT ?_Myptr@?$basic_string@DU?$char_traits@D@std@@V?$allocator@D@2@@std@@QBEPBDXZ
_TEXT	SEGMENT PARA USE32 PUBLIC 'CODE'
_TEXT	ENDS
;	COMDAT ?size@?$basic_string@DU?$char_traits@D@std@@V?$allocator@D@2@@std@@QBEIXZ
_TEXT	SEGMENT PARA USE32 PUBLIC 'CODE'
_TEXT	ENDS
;	COMDAT ?fabs@@YAMM@Z
_TEXT	SEGMENT PARA USE32 PUBLIC 'CODE'
_TEXT	ENDS
;	COMDAT _fabsf
_TEXT	SEGMENT PARA USE32 PUBLIC 'CODE'
_TEXT	ENDS
;	COMDAT ?D3DXVec3Length@@YAMPBUD3DXVECTOR3@@@Z
_TEXT	SEGMENT PARA USE32 PUBLIC 'CODE'
_TEXT	ENDS
;	COMDAT _sqrtf
_TEXT	SEGMENT PARA USE32 PUBLIC 'CODE'
_TEXT	ENDS
;	COMDAT ??HD3DXVECTOR3@@QBE?AU0@ABU0@@Z
_TEXT	SEGMENT PARA USE32 PUBLIC 'CODE'
_TEXT	ENDS
;	COMDAT ??0D3DXVECTOR3@@QAE@MMM@Z
_TEXT	SEGMENT PARA USE32 PUBLIC 'CODE'
_TEXT	ENDS
;	COMDAT ??DD3DXVECTOR3@@QBE?AU0@M@Z
_TEXT	SEGMENT PARA USE32 PUBLIC 'CODE'
_TEXT	ENDS
;	COMDAT ?D3DXVec3Dot@@YAMPBUD3DXVECTOR3@@0@Z
_TEXT	SEGMENT PARA USE32 PUBLIC 'CODE'
_TEXT	ENDS
;	COMDAT ?D3DXVec3Cross@@YAPAUD3DXVECTOR3@@PAU1@PBU1@1@Z
_TEXT	SEGMENT PARA USE32 PUBLIC 'CODE'
_TEXT	ENDS
;	COMDAT ??GD3DXVECTOR3@@QBE?AU0@ABU0@@Z
_TEXT	SEGMENT PARA USE32 PUBLIC 'CODE'
_TEXT	ENDS
;	COMDAT ??0D3DXVECTOR3@@QAE@XZ
_TEXT	SEGMENT PARA USE32 PUBLIC 'CODE'
_TEXT	ENDS
;	COMDAT ??0D3DXMATRIX@@QAE@XZ
_TEXT	SEGMENT PARA USE32 PUBLIC 'CODE'
_TEXT	ENDS
;	COMDAT _atan2f
_TEXT	SEGMENT PARA USE32 PUBLIC 'CODE'
_TEXT	ENDS
;	COMDAT _asinf
_TEXT	SEGMENT PARA USE32 PUBLIC 'CODE'
_TEXT	ENDS
sxdata	SEGMENT DWORD USE32 'SXDATA'
sxdata	ENDS
FLAT	GROUP _DATA, CONST, _BSS
	ASSUME	CS: FLAT, DS: FLAT, SS: FLAT
endif

INCLUDELIB LIBCMT
INCLUDELIB OLDNAMES

PUBLIC	?SetBB@@YAXPAUD3DXVECTOR3@@ABU1@1@Z		; SetBB
EXTRN	__fltused:NEAR
; Function compile flags: /Ogty
; File c:\documents and settings\test\mes documents\source\virtuos_v17\build\program\_common\xutil3d.cpp
;	COMDAT ?SetBB@@YAXPAUD3DXVECTOR3@@ABU1@1@Z
_TEXT	SEGMENT
_pBBVList$ = 8						; size = 4
_vMin$ = 12						; size = 4
_vMax$ = 16						; size = 4
?SetBB@@YAXPAUD3DXVECTOR3@@ABU1@1@Z PROC NEAR		; SetBB, COMDAT

; 28   : 	pBBVList[0].x = vMin.x;

  00000	8b 44 24 04	 mov	 eax, DWORD PTR _pBBVList$[esp-4]
  00004	8b 4c 24 08	 mov	 ecx, DWORD PTR _vMin$[esp-4]
  00008	8b 11		 mov	 edx, DWORD PTR [ecx]
  0000a	89 10		 mov	 DWORD PTR [eax], edx

; 29   : 	pBBVList[0].y = vMax.y;

  0000c	8b 54 24 0c	 mov	 edx, DWORD PTR _vMax$[esp-4]
  00010	56		 push	 esi
  00011	8b 72 04	 mov	 esi, DWORD PTR [edx+4]
  00014	89 70 04	 mov	 DWORD PTR [eax+4], esi

; 30   : 	pBBVList[0].z = vMin.z;

  00017	8b 71 08	 mov	 esi, DWORD PTR [ecx+8]
  0001a	89 70 08	 mov	 DWORD PTR [eax+8], esi

; 31   : 
; 32   : 	pBBVList[1].x = vMax.x;

  0001d	8b 32		 mov	 esi, DWORD PTR [edx]
  0001f	89 70 0c	 mov	 DWORD PTR [eax+12], esi

; 33   : 	pBBVList[1].y = vMax.y;

  00022	8b 72 04	 mov	 esi, DWORD PTR [edx+4]
  00025	89 70 10	 mov	 DWORD PTR [eax+16], esi

; 34   : 	pBBVList[1].z = vMin.z;

  00028	8b 71 08	 mov	 esi, DWORD PTR [ecx+8]
  0002b	89 70 14	 mov	 DWORD PTR [eax+20], esi

; 35   : 
; 36   : 	pBBVList[2].x = vMax.x;

  0002e	8b 32		 mov	 esi, DWORD PTR [edx]
  00030	89 70 18	 mov	 DWORD PTR [eax+24], esi

; 37   : 	pBBVList[2].y = vMax.y;

  00033	8b 72 04	 mov	 esi, DWORD PTR [edx+4]
  00036	89 70 1c	 mov	 DWORD PTR [eax+28], esi

; 38   : 	pBBVList[2].z = vMax.z;

  00039	8b 72 08	 mov	 esi, DWORD PTR [edx+8]
  0003c	89 70 20	 mov	 DWORD PTR [eax+32], esi

; 39   : 
; 40   : 	pBBVList[3].x = vMin.x;

  0003f	8b 31		 mov	 esi, DWORD PTR [ecx]
  00041	89 70 24	 mov	 DWORD PTR [eax+36], esi

; 41   : 	pBBVList[3].y = vMax.y;

  00044	8b 72 04	 mov	 esi, DWORD PTR [edx+4]
  00047	89 70 28	 mov	 DWORD PTR [eax+40], esi

; 42   : 	pBBVList[3].z = vMax.z;

  0004a	8b 72 08	 mov	 esi, DWORD PTR [edx+8]
  0004d	89 70 2c	 mov	 DWORD PTR [eax+44], esi

; 43   : 
; 44   : 	pBBVList[4].x = vMin.x;

  00050	8b 31		 mov	 esi, DWORD PTR [ecx]
  00052	89 70 30	 mov	 DWORD PTR [eax+48], esi

; 45   : 	pBBVList[4].y = vMin.y;

  00055	8b 71 04	 mov	 esi, DWORD PTR [ecx+4]
  00058	89 70 34	 mov	 DWORD PTR [eax+52], esi

; 46   : 	pBBVList[4].z = vMin.z;

  0005b	8b 71 08	 mov	 esi, DWORD PTR [ecx+8]
  0005e	89 70 38	 mov	 DWORD PTR [eax+56], esi

; 47   : 
; 48   : 	pBBVList[5].x = vMax.x;

  00061	8b 32		 mov	 esi, DWORD PTR [edx]
  00063	89 70 3c	 mov	 DWORD PTR [eax+60], esi

; 49   : 	pBBVList[5].y = vMin.y;

  00066	8b 71 04	 mov	 esi, DWORD PTR [ecx+4]
  00069	89 70 40	 mov	 DWORD PTR [eax+64], esi

; 50   : 	pBBVList[5].z = vMin.z;

  0006c	8b 71 08	 mov	 esi, DWORD PTR [ecx+8]
  0006f	89 70 44	 mov	 DWORD PTR [eax+68], esi

; 51   : 
; 52   : 	pBBVList[6].x = vMax.x;

  00072	8b 32		 mov	 esi, DWORD PTR [edx]
  00074	89 70 48	 mov	 DWORD PTR [eax+72], esi

; 53   : 	pBBVList[6].y = vMin.y;

  00077	8b 71 04	 mov	 esi, DWORD PTR [ecx+4]
  0007a	89 70 4c	 mov	 DWORD PTR [eax+76], esi

; 54   : 	pBBVList[6].z = vMax.z;

  0007d	8b 72 08	 mov	 esi, DWORD PTR [edx+8]
  00080	89 70 50	 mov	 DWORD PTR [eax+80], esi

; 55   : 
; 56   : 	pBBVList[7].x = vMin.x;

  00083	8b 31		 mov	 esi, DWORD PTR [ecx]
  00085	89 70 54	 mov	 DWORD PTR [eax+84], esi

; 57   : 	pBBVList[7].y = vMin.y;

  00088	8b 49 04	 mov	 ecx, DWORD PTR [ecx+4]
  0008b	89 48 58	 mov	 DWORD PTR [eax+88], ecx

; 58   : 	pBBVList[7].z = vMax.z;

  0008e	8b 52 08	 mov	 edx, DWORD PTR [edx+8]
  00091	89 50 5c	 mov	 DWORD PTR [eax+92], edx
  00094	5e		 pop	 esi

; 59   : }

  00095	c3		 ret	 0
?SetBB@@YAXPAUD3DXVECTOR3@@ABU1@1@Z ENDP		; SetBB
_TEXT	ENDS
PUBLIC	?IsTouchAABB@@YAHABUD3DXVECTOR3@@000@Z		; IsTouchAABB
; Function compile flags: /Ogty
;	COMDAT ?IsTouchAABB@@YAHABUD3DXVECTOR3@@000@Z
_TEXT	SEGMENT
_vMin1$ = 8						; size = 4
_vMax1$ = 12						; size = 4
_vMin2$ = 16						; size = 4
_vMax2$ = 20						; size = 4
?IsTouchAABB@@YAHABUD3DXVECTOR3@@000@Z PROC NEAR	; IsTouchAABB, COMDAT

; 67   : {

  00000	56		 push	 esi

; 68   : 	if( vMin2.x > vMax1.x )		return 0;		// v2°¡ xÃà ¿À¸¥ÂÊÀ¸·Î ¹þ¾î³µ´Ù.

  00001	8b 74 24 10	 mov	 esi, DWORD PTR _vMin2$[esp]
  00005	d9 06		 fld	 DWORD PTR [esi]
  00007	57		 push	 edi
  00008	8b 7c 24 10	 mov	 edi, DWORD PTR _vMax1$[esp+4]
  0000c	d8 1f		 fcomp	 DWORD PTR [edi]
  0000e	df e0		 fnstsw	 ax
  00010	f6 c4 41	 test	 ah, 65			; 00000041H
  00013	74 47		 je	 SHORT $L226971

; 69   : 	if( vMax2.x < vMin1.x )		return 0;		// v2°¡ xÃà ¿ÞÂÊÀ¸·Î ¹þ¾î³µ´Ù.

  00015	8b 4c 24 18	 mov	 ecx, DWORD PTR _vMax2$[esp+4]
  00019	d9 01		 fld	 DWORD PTR [ecx]
  0001b	8b 54 24 0c	 mov	 edx, DWORD PTR _vMin1$[esp+4]
  0001f	d8 1a		 fcomp	 DWORD PTR [edx]
  00021	df e0		 fnstsw	 ax
  00023	f6 c4 05	 test	 ah, 5
  00026	7b 34		 jnp	 SHORT $L226971

; 70   : 	if( vMin2.z > vMax1.z )		return 0;		// v2°¡ zÃà ¾ÕÀ¸·Î ¹þ¾î³µ´Ù.

  00028	d9 46 08	 fld	 DWORD PTR [esi+8]
  0002b	d8 5f 08	 fcomp	 DWORD PTR [edi+8]
  0002e	df e0		 fnstsw	 ax
  00030	f6 c4 41	 test	 ah, 65			; 00000041H
  00033	74 27		 je	 SHORT $L226971

; 71   : 	if( vMax2.z < vMin1.z )		return 0;		// v2°¡ zÃà µÚ·ÎÀ¸·Î ¹þ¾î³µ´Ù.

  00035	d9 41 08	 fld	 DWORD PTR [ecx+8]
  00038	d8 5a 08	 fcomp	 DWORD PTR [edx+8]
  0003b	df e0		 fnstsw	 ax
  0003d	f6 c4 05	 test	 ah, 5
  00040	7b 1a		 jnp	 SHORT $L226971

; 72   : 	if( vMin2.y > vMax1.y )		return 0;		// v2°¡ yÃà À§·Î ¹þ¾î³µ´Ù.

  00042	d9 46 04	 fld	 DWORD PTR [esi+4]
  00045	d8 5f 04	 fcomp	 DWORD PTR [edi+4]
  00048	df e0		 fnstsw	 ax
  0004a	f6 c4 41	 test	 ah, 65			; 00000041H
  0004d	74 0d		 je	 SHORT $L226971

; 73   : 	if( vMax2.y < vMin1.y )		return 0;		// v2°¡ yÃà ¾Æ·¡·Î ¹þ¾î³µ´Ù.

  0004f	d9 41 04	 fld	 DWORD PTR [ecx+4]
  00052	d8 5a 04	 fcomp	 DWORD PTR [edx+4]
  00055	df e0		 fnstsw	 ax
  00057	f6 c4 05	 test	 ah, 5
  0005a	7a 05		 jp	 SHORT $L225622
$L226971:
  0005c	5f		 pop	 edi
  0005d	33 c0		 xor	 eax, eax
  0005f	5e		 pop	 esi

; 76   : }

  00060	c3		 ret	 0
$L225622:
  00061	5f		 pop	 edi

; 74   : 
; 75   : 	return 1;

  00062	b8 01 00 00 00	 mov	 eax, 1
  00067	5e		 pop	 esi

; 76   : }

  00068	c3		 ret	 0
?IsTouchAABB@@YAHABUD3DXVECTOR3@@000@Z ENDP		; IsTouchAABB
; Function compile flags: /Ogty
_TEXT	ENDS
;	COMDAT ?CalcOutCode@@YAHABUD3DXVECTOR3@@00@Z
_TEXT	SEGMENT
?CalcOutCode@@YAHABUD3DXVECTOR3@@00@Z PROC NEAR		; CalcOutCode, COMDAT
; _vMin$ = edi
; _vMax$ = esi
; _v$ = ecx

; 97   : 	int nOutCode = 0;
; 98   : 
; 99   : 	if( v.x > vMax.x ) {

  00000	d9 01		 fld	 DWORD PTR [ecx]
  00002	33 d2		 xor	 edx, edx
  00004	d8 1e		 fcomp	 DWORD PTR [esi]
  00006	df e0		 fnstsw	 ax
  00008	f6 c4 41	 test	 ah, 65			; 00000041H
  0000b	75 07		 jne	 SHORT $L225635

; 100  : 		nOutCode |= CLIP_RIGHT;

  0000d	ba 01 00 00 00	 mov	 edx, 1

; 101  : 	} else if( v.x < vMin.x ) {

  00012	eb 10		 jmp	 SHORT $L225637
$L225635:
  00014	d9 01		 fld	 DWORD PTR [ecx]
  00016	d8 1f		 fcomp	 DWORD PTR [edi]
  00018	df e0		 fnstsw	 ax
  0001a	f6 c4 05	 test	 ah, 5
  0001d	7a 05		 jp	 SHORT $L225637

; 102  : 		nOutCode |= CLIP_LEFT;

  0001f	ba 02 00 00 00	 mov	 edx, 2
$L225637:

; 103  : 	}
; 104  : 	if( v.y > vMax.y ) {

  00024	d9 41 04	 fld	 DWORD PTR [ecx+4]
  00027	d8 5e 04	 fcomp	 DWORD PTR [esi+4]
  0002a	df e0		 fnstsw	 ax
  0002c	f6 c4 41	 test	 ah, 65			; 00000041H
  0002f	75 05		 jne	 SHORT $L225638

; 105  : 		nOutCode |= CLIP_TOP;

  00031	83 ca 04	 or	 edx, 4

; 106  : 	} else if( v.y < vMin.y ) {

  00034	eb 10		 jmp	 SHORT $L225640
$L225638:
  00036	d9 41 04	 fld	 DWORD PTR [ecx+4]
  00039	d8 5f 04	 fcomp	 DWORD PTR [edi+4]
  0003c	df e0		 fnstsw	 ax
  0003e	f6 c4 05	 test	 ah, 5
  00041	7a 03		 jp	 SHORT $L225640

; 107  : 		nOutCode |= CLIP_BOTTOM;

  00043	83 ca 08	 or	 edx, 8
$L225640:

; 108  : 	}
; 109  : 	if( v.z > vMax.z ) {

  00046	d9 41 08	 fld	 DWORD PTR [ecx+8]
  00049	d8 5e 08	 fcomp	 DWORD PTR [esi+8]
  0004c	df e0		 fnstsw	 ax
  0004e	f6 c4 41	 test	 ah, 65			; 00000041H
  00051	75 06		 jne	 SHORT $L225641

; 110  : 		nOutCode |= CLIP_BACK;

  00053	83 ca 20	 or	 edx, 32			; 00000020H

; 113  : 	}
; 114  : 
; 115  : 	return nOutCode;

  00056	8b c2		 mov	 eax, edx

; 116  : }

  00058	c3		 ret	 0
$L225641:

; 111  : 	} else if( v.z < vMin.z ) {

  00059	d9 41 08	 fld	 DWORD PTR [ecx+8]
  0005c	d8 5f 08	 fcomp	 DWORD PTR [edi+8]
  0005f	df e0		 fnstsw	 ax
  00061	f6 c4 05	 test	 ah, 5
  00064	7a 03		 jp	 SHORT $L226975

; 112  : 		nOutCode |= CLIP_FRONT;

  00066	83 ca 10	 or	 edx, 16			; 00000010H
$L226975:

; 113  : 	}
; 114  : 
; 115  : 	return nOutCode;

  00069	8b c2		 mov	 eax, edx

; 116  : }

  0006b	c3		 ret	 0
?CalcOutCode@@YAHABUD3DXVECTOR3@@00@Z ENDP		; CalcOutCode
_TEXT	ENDS
PUBLIC	?IsTouchAABB_Line@@YAHABUD3DXVECTOR3@@000PAU1@@Z ; IsTouchAABB_Line
PUBLIC	__real@3f800000
;	COMDAT __real@3f800000
CONST	SEGMENT
__real@3f800000 DD 03f800000r			; 1
; Function compile flags: /Ogty
CONST	ENDS
;	COMDAT ?IsTouchAABB_Line@@YAHABUD3DXVECTOR3@@000PAU1@@Z
_TEXT	SEGMENT
tv396 = -4						; size = 4
tv375 = -4						; size = 4
tv335 = -4						; size = 4
_vMin$ = 8						; size = 4
_vMax$ = 12						; size = 4
_v1$ = 16						; size = 4
_v2$ = 20						; size = 4
_pvIntersect$ = 24					; size = 4
?IsTouchAABB_Line@@YAHABUD3DXVECTOR3@@000PAU1@@Z PROC NEAR ; IsTouchAABB_Line, COMDAT

; 130  : {

  00000	51		 push	 ecx
  00001	53		 push	 ebx
  00002	55		 push	 ebp

; 131  : 	int nOutCode1, nOutCode2;
; 132  : 
; 133  : 	nOutCode1 = CalcOutCode( vMin, vMax, v1 );

  00003	8b 6c 24 18	 mov	 ebp, DWORD PTR _v1$[esp+8]
  00007	56		 push	 esi
  00008	8b 74 24 18	 mov	 esi, DWORD PTR _vMax$[esp+12]
  0000c	57		 push	 edi
  0000d	8b 7c 24 18	 mov	 edi, DWORD PTR _vMin$[esp+16]
  00011	8b cd		 mov	 ecx, ebp
  00013	e8 00 00 00 00	 call	 ?CalcOutCode@@YAHABUD3DXVECTOR3@@00@Z ; CalcOutCode
  00018	8b d8		 mov	 ebx, eax

; 134  : 	if( nOutCode1 == 0 ) {

  0001a	85 db		 test	 ebx, ebx
  0001c	75 20		 jne	 SHORT $L225653

; 135  : 		// point inside bounding box
; 136  : 		*pvIntersect = v1;

  0001e	8b 4d 00	 mov	 ecx, DWORD PTR [ebp]
  00021	8b 44 24 28	 mov	 eax, DWORD PTR _pvIntersect$[esp+16]
  00025	89 08		 mov	 DWORD PTR [eax], ecx
  00027	8b 55 04	 mov	 edx, DWORD PTR [ebp+4]
  0002a	5f		 pop	 edi
  0002b	89 50 04	 mov	 DWORD PTR [eax+4], edx
  0002e	8b 4d 08	 mov	 ecx, DWORD PTR [ebp+8]
  00031	5e		 pop	 esi
  00032	5d		 pop	 ebp
  00033	89 48 08	 mov	 DWORD PTR [eax+8], ecx

; 137  : 		return TRUE;

  00036	b8 01 00 00 00	 mov	 eax, 1
  0003b	5b		 pop	 ebx

; 203  : }

  0003c	59		 pop	 ecx
  0003d	c3		 ret	 0
$L225653:

; 138  : 	}
; 139  : 
; 140  : 	nOutCode2 = CalcOutCode( vMin, vMax, v2 );

  0003e	8b 4c 24 24	 mov	 ecx, DWORD PTR _v2$[esp+16]
  00042	e8 00 00 00 00	 call	 ?CalcOutCode@@YAHABUD3DXVECTOR3@@00@Z ; CalcOutCode

; 141  : 	if( nOutCode2 == 0 ) {

  00047	85 c0		 test	 eax, eax
  00049	75 1f		 jne	 SHORT $L225654

; 142  : 		// point inside bounding box
; 143  : 		*pvIntersect = v2;

  0004b	8b 01		 mov	 eax, DWORD PTR [ecx]
  0004d	8b 54 24 28	 mov	 edx, DWORD PTR _pvIntersect$[esp+16]
  00051	89 02		 mov	 DWORD PTR [edx], eax
  00053	8b 41 04	 mov	 eax, DWORD PTR [ecx+4]
  00056	89 42 04	 mov	 DWORD PTR [edx+4], eax
  00059	8b 49 08	 mov	 ecx, DWORD PTR [ecx+8]
  0005c	89 4a 08	 mov	 DWORD PTR [edx+8], ecx
$L226984:
  0005f	5f		 pop	 edi
  00060	5e		 pop	 esi
  00061	5d		 pop	 ebp

; 144  : 		return TRUE;

  00062	b8 01 00 00 00	 mov	 eax, 1
  00067	5b		 pop	 ebx

; 203  : }

  00068	59		 pop	 ecx
  00069	c3		 ret	 0
$L225654:

; 145  : 	}
; 146  : 
; 147  : 	if( (nOutCode1 & nOutCode2) > 0 ) {

  0006a	85 c3		 test	 eax, ebx

; 148  : 		// both points on same side of box
; 149  : 		return FALSE;

  0006c	0f 8f b2 01 00
	00		 jg	 $L225673

; 150  : 	}
; 151  : 
; 152  : 	// check intersections
; 153  : 	if( nOutCode1 & (CLIP_RIGHT | CLIP_LEFT) ) {

  00072	f6 c3 03	 test	 bl, 3
  00075	8b 54 24 28	 mov	 edx, DWORD PTR _pvIntersect$[esp+16]
  00079	0f 84 87 00 00
	00		 je	 $L225661

; 154  : 		if( nOutCode1 & CLIP_RIGHT ) {

  0007f	f6 c3 01	 test	 bl, 1
  00082	74 04		 je	 SHORT $L225657

; 155  : 			pvIntersect->x = vMax.x;

  00084	8b 06		 mov	 eax, DWORD PTR [esi]

; 156  : 		} else {

  00086	eb 02		 jmp	 SHORT $L226981
$L225657:

; 157  : 			pvIntersect->x = vMin.x;

  00088	8b 07		 mov	 eax, DWORD PTR [edi]
$L226981:
  0008a	89 02		 mov	 DWORD PTR [edx], eax

; 158  : 		}
; 159  : 		float x1 = v2.x - v1.x;

  0008c	d9 01		 fld	 DWORD PTR [ecx]
  0008e	d8 65 00	 fsub	 DWORD PTR [ebp]

; 160  : 		float x2 = pvIntersect->x - v1.x;

  00091	d9 02		 fld	 DWORD PTR [edx]
  00093	d8 65 00	 fsub	 DWORD PTR [ebp]

; 161  : 		pvIntersect->y = v1.y + x2 * (v2.y - v1.y) / x1;

  00096	d9 05 00 00 00
	00		 fld	 DWORD PTR __real@3f800000
  0009c	d8 f2		 fdiv	 ST(0), ST(2)
  0009e	d9 41 04	 fld	 DWORD PTR [ecx+4]
  000a1	d8 65 04	 fsub	 DWORD PTR [ebp+4]
  000a4	d8 c9		 fmul	 ST(0), ST(1)
  000a6	d8 ca		 fmul	 ST(0), ST(2)
  000a8	d8 45 04	 fadd	 DWORD PTR [ebp+4]
  000ab	d9 5a 04	 fstp	 DWORD PTR [edx+4]

; 162  : 		pvIntersect->z = v1.z + x2 * (v2.z - v1.z) / x1;

  000ae	d9 41 08	 fld	 DWORD PTR [ecx+8]
  000b1	d8 65 08	 fsub	 DWORD PTR [ebp+8]
  000b4	d8 c9		 fmul	 ST(0), ST(1)
  000b6	d8 ca		 fmul	 ST(0), ST(2)
  000b8	d8 45 08	 fadd	 DWORD PTR [ebp+8]
  000bb	d9 5c 24 10	 fstp	 DWORD PTR tv335[esp+20]
  000bf	8b 44 24 10	 mov	 eax, DWORD PTR tv335[esp+20]
  000c3	dd d8		 fstp	 ST(0)
  000c5	89 42 08	 mov	 DWORD PTR [edx+8], eax
  000c8	dd d8		 fstp	 ST(0)
  000ca	dd d8		 fstp	 ST(0)

; 163  : 
; 164  : 		if( pvIntersect->y <= vMax.y && pvIntersect->y >= vMin.y && pvIntersect->z <= vMax.z && pvIntersect->z >= vMin.z ) {

  000cc	d9 42 04	 fld	 DWORD PTR [edx+4]
  000cf	d8 5e 04	 fcomp	 DWORD PTR [esi+4]
  000d2	df e0		 fnstsw	 ax
  000d4	f6 c4 41	 test	 ah, 65			; 00000041H
  000d7	7a 2d		 jp	 SHORT $L225661
  000d9	d9 42 04	 fld	 DWORD PTR [edx+4]
  000dc	d8 5f 04	 fcomp	 DWORD PTR [edi+4]
  000df	df e0		 fnstsw	 ax
  000e1	f6 c4 01	 test	 ah, 1
  000e4	75 20		 jne	 SHORT $L225661
  000e6	d9 44 24 10	 fld	 DWORD PTR tv335[esp+20]
  000ea	d8 5e 08	 fcomp	 DWORD PTR [esi+8]
  000ed	df e0		 fnstsw	 ax
  000ef	f6 c4 41	 test	 ah, 65			; 00000041H
  000f2	7a 12		 jp	 SHORT $L225661
  000f4	d9 44 24 10	 fld	 DWORD PTR tv335[esp+20]
  000f8	d8 5f 08	 fcomp	 DWORD PTR [edi+8]
  000fb	df e0		 fnstsw	 ax
  000fd	f6 c4 01	 test	 ah, 1

; 165  : 			return TRUE;

  00100	0f 84 59 ff ff
	ff		 je	 $L226984
$L225661:

; 166  : 		}
; 167  : 	}
; 168  : 
; 169  : 	if( nOutCode1 & (CLIP_TOP | CLIP_BOTTOM) ) {

  00106	f6 c3 0c	 test	 bl, 12			; 0000000cH
  00109	0f 84 86 00 00
	00		 je	 $L225667

; 170  : 		if( nOutCode1 & CLIP_TOP ) {

  0010f	f6 c3 04	 test	 bl, 4
  00112	74 05		 je	 SHORT $L225663

; 171  : 			pvIntersect->y = vMax.y;

  00114	8b 46 04	 mov	 eax, DWORD PTR [esi+4]

; 172  : 		} else {

  00117	eb 03		 jmp	 SHORT $L226982
$L225663:

; 173  : 			pvIntersect->y = vMin.y;

  00119	8b 47 04	 mov	 eax, DWORD PTR [edi+4]
$L226982:
  0011c	89 42 04	 mov	 DWORD PTR [edx+4], eax

; 174  : 		}
; 175  : 		float y1 = v2.y - v1.y;

  0011f	d9 41 04	 fld	 DWORD PTR [ecx+4]
  00122	d8 65 04	 fsub	 DWORD PTR [ebp+4]

; 176  : 		float y2 = pvIntersect->y - v1.y;

  00125	d9 42 04	 fld	 DWORD PTR [edx+4]
  00128	d8 65 04	 fsub	 DWORD PTR [ebp+4]

; 177  : 		pvIntersect->x = v1.x + y2 * (v2.x - v1.x) / y1;

  0012b	d9 05 00 00 00
	00		 fld	 DWORD PTR __real@3f800000
  00131	d8 f2		 fdiv	 ST(0), ST(2)
  00133	d9 01		 fld	 DWORD PTR [ecx]
  00135	d8 65 00	 fsub	 DWORD PTR [ebp]
  00138	d8 c9		 fmul	 ST(0), ST(1)
  0013a	d8 ca		 fmul	 ST(0), ST(2)
  0013c	d8 45 00	 fadd	 DWORD PTR [ebp]
  0013f	d9 1a		 fstp	 DWORD PTR [edx]

; 178  : 		pvIntersect->z = v1.z + y2 * (v2.z - v1.z) / y1;

  00141	d9 41 08	 fld	 DWORD PTR [ecx+8]
  00144	d8 65 08	 fsub	 DWORD PTR [ebp+8]
  00147	d8 c9		 fmul	 ST(0), ST(1)
  00149	d8 ca		 fmul	 ST(0), ST(2)
  0014b	d8 45 08	 fadd	 DWORD PTR [ebp+8]
  0014e	d9 5c 24 10	 fstp	 DWORD PTR tv375[esp+20]
  00152	8b 44 24 10	 mov	 eax, DWORD PTR tv375[esp+20]
  00156	dd d8		 fstp	 ST(0)
  00158	89 42 08	 mov	 DWORD PTR [edx+8], eax
  0015b	dd d8		 fstp	 ST(0)
  0015d	dd d8		 fstp	 ST(0)

; 179  : 
; 180  : 		if( pvIntersect->x <= vMax.x && pvIntersect->x >= vMin.x && pvIntersect->z <= vMax.z && pvIntersect->z >= vMin.z ) {

  0015f	d9 02		 fld	 DWORD PTR [edx]
  00161	d8 1e		 fcomp	 DWORD PTR [esi]
  00163	df e0		 fnstsw	 ax
  00165	f6 c4 41	 test	 ah, 65			; 00000041H
  00168	7a 2b		 jp	 SHORT $L225667
  0016a	d9 02		 fld	 DWORD PTR [edx]
  0016c	d8 1f		 fcomp	 DWORD PTR [edi]
  0016e	df e0		 fnstsw	 ax
  00170	f6 c4 01	 test	 ah, 1
  00173	75 20		 jne	 SHORT $L225667
  00175	d9 44 24 10	 fld	 DWORD PTR tv375[esp+20]
  00179	d8 5e 08	 fcomp	 DWORD PTR [esi+8]
  0017c	df e0		 fnstsw	 ax
  0017e	f6 c4 41	 test	 ah, 65			; 00000041H
  00181	7a 12		 jp	 SHORT $L225667
  00183	d9 44 24 10	 fld	 DWORD PTR tv375[esp+20]
  00187	d8 5f 08	 fcomp	 DWORD PTR [edi+8]
  0018a	df e0		 fnstsw	 ax
  0018c	f6 c4 01	 test	 ah, 1

; 181  : 			return TRUE;

  0018f	0f 84 ca fe ff
	ff		 je	 $L226984
$L225667:

; 182  : 		}
; 183  : 	}
; 184  : 
; 185  : 	if( nOutCode1 & (CLIP_FRONT | CLIP_BACK) ) {

  00195	f6 c3 30	 test	 bl, 48			; 00000030H
  00198	0f 84 86 00 00
	00		 je	 $L225673

; 186  : 		if( nOutCode1 & CLIP_BACK ) {

  0019e	f6 c3 20	 test	 bl, 32			; 00000020H
  001a1	74 05		 je	 SHORT $L225669

; 187  : 			pvIntersect->z = vMax.z;

  001a3	8b 46 08	 mov	 eax, DWORD PTR [esi+8]

; 188  : 		} else {

  001a6	eb 03		 jmp	 SHORT $L226983
$L225669:

; 189  : 			pvIntersect->z = vMin.z;

  001a8	8b 47 08	 mov	 eax, DWORD PTR [edi+8]
$L226983:
  001ab	89 42 08	 mov	 DWORD PTR [edx+8], eax

; 190  : 		}
; 191  : 		float z1 = v2.z - v1.z;

  001ae	d9 41 08	 fld	 DWORD PTR [ecx+8]
  001b1	d8 65 08	 fsub	 DWORD PTR [ebp+8]

; 192  : 		float z2 = pvIntersect->z - v1.z;

  001b4	d9 42 08	 fld	 DWORD PTR [edx+8]
  001b7	d8 65 08	 fsub	 DWORD PTR [ebp+8]

; 193  : 		pvIntersect->x = v1.x + z2 * (v2.x - v1.x) / z1;

  001ba	d9 05 00 00 00
	00		 fld	 DWORD PTR __real@3f800000
  001c0	d8 f2		 fdiv	 ST(0), ST(2)
  001c2	d9 01		 fld	 DWORD PTR [ecx]
  001c4	d8 65 00	 fsub	 DWORD PTR [ebp]
  001c7	d8 c9		 fmul	 ST(0), ST(1)
  001c9	d8 ca		 fmul	 ST(0), ST(2)
  001cb	d8 45 00	 fadd	 DWORD PTR [ebp]
  001ce	d9 1a		 fstp	 DWORD PTR [edx]

; 194  : 		pvIntersect->y = v1.y + z2 * (v2.y - v1.y) / z1;

  001d0	d9 41 04	 fld	 DWORD PTR [ecx+4]
  001d3	d8 65 04	 fsub	 DWORD PTR [ebp+4]
  001d6	d8 c9		 fmul	 ST(0), ST(1)
  001d8	d8 ca		 fmul	 ST(0), ST(2)
  001da	d8 45 04	 fadd	 DWORD PTR [ebp+4]
  001dd	d9 5c 24 10	 fstp	 DWORD PTR tv396[esp+20]
  001e1	8b 4c 24 10	 mov	 ecx, DWORD PTR tv396[esp+20]
  001e5	dd d8		 fstp	 ST(0)
  001e7	89 4a 04	 mov	 DWORD PTR [edx+4], ecx
  001ea	dd d8		 fstp	 ST(0)
  001ec	dd d8		 fstp	 ST(0)

; 195  : 
; 196  : 		if( pvIntersect->x <= vMax.x && pvIntersect->x >= vMin.x && pvIntersect->y <= vMax.y && pvIntersect->y >= vMin.y ) {

  001ee	d9 02		 fld	 DWORD PTR [edx]
  001f0	d8 1e		 fcomp	 DWORD PTR [esi]
  001f2	df e0		 fnstsw	 ax
  001f4	f6 c4 41	 test	 ah, 65			; 00000041H
  001f7	7a 2b		 jp	 SHORT $L225673
  001f9	d9 02		 fld	 DWORD PTR [edx]
  001fb	d8 1f		 fcomp	 DWORD PTR [edi]
  001fd	df e0		 fnstsw	 ax
  001ff	f6 c4 01	 test	 ah, 1
  00202	75 20		 jne	 SHORT $L225673
  00204	d9 44 24 10	 fld	 DWORD PTR tv396[esp+20]
  00208	d8 5e 04	 fcomp	 DWORD PTR [esi+4]
  0020b	df e0		 fnstsw	 ax
  0020d	f6 c4 41	 test	 ah, 65			; 00000041H
  00210	7a 12		 jp	 SHORT $L225673
  00212	d9 44 24 10	 fld	 DWORD PTR tv396[esp+20]
  00216	d8 5f 04	 fcomp	 DWORD PTR [edi+4]
  00219	df e0		 fnstsw	 ax
  0021b	f6 c4 01	 test	 ah, 1

; 197  : 			return TRUE;

  0021e	0f 84 3b fe ff
	ff		 je	 $L226984
$L225673:
  00224	5f		 pop	 edi
  00225	5e		 pop	 esi
  00226	5d		 pop	 ebp

; 198  : 		}
; 199  : 	}
; 200  : 
; 201  : 	// nothing found
; 202  : 	return FALSE;

  00227	33 c0		 xor	 eax, eax
  00229	5b		 pop	 ebx

; 203  : }

  0022a	59		 pop	 ecx
  0022b	c3		 ret	 0
?IsTouchAABB_Line@@YAHABUD3DXVECTOR3@@000PAU1@@Z ENDP	; IsTouchAABB_Line
_TEXT	ENDS
PUBLIC	_asinf
EXTRN	__CIasin:NEAR
; Function compile flags: /Ogty
; File c:\program files\microsoft visual studio .net 2003\vc7\include\math.h
;	COMDAT _asinf
_TEXT	SEGMENT
__X$ = 8						; size = 4
_asinf	PROC NEAR					; COMDAT

; 436  :         {return ((float)asin((double)_X)); }

  00000	d9 44 24 04	 fld	 DWORD PTR __X$[esp-4]
  00004	e8 00 00 00 00	 call	 __CIasin
  00009	c3		 ret	 0
_asinf	ENDP
_TEXT	ENDS
PUBLIC	_atan2f
; Function compile flags: /Ogty
;	COMDAT _atan2f
_TEXT	SEGMENT
__X$ = 8						; size = 4
__Y$ = 12						; size = 4
_atan2f	PROC NEAR					; COMDAT

; 440  :         {return ((float)atan2((double)_X, (double)_Y)); }

  00000	d9 44 24 04	 fld	 DWORD PTR __X$[esp-4]
  00004	d9 44 24 08	 fld	 DWORD PTR __Y$[esp-4]
  00008	d9 f3		 fpatan
  0000a	c3		 ret	 0
_atan2f	ENDP
_TEXT	ENDS
PUBLIC	_fabsf
; Function compile flags: /Ogty
;	COMDAT _fabsf
_TEXT	SEGMENT
__X$ = 8						; size = 4
_fabsf	PROC NEAR					; COMDAT

; 450  :         {return ((float)fabs((double)_X)); }

  00000	d9 44 24 04	 fld	 DWORD PTR __X$[esp-4]
  00004	d9 e1		 fabs
  00006	c3		 ret	 0
_fabsf	ENDP
_TEXT	ENDS
PUBLIC	_sqrtf
; Function compile flags: /Ogty
;	COMDAT _sqrtf
_TEXT	SEGMENT
__X$ = 8						; size = 4
_sqrtf	PROC NEAR					; COMDAT

; 470  :         {return ((float)sqrt((double)_X)); }

  00000	d9 44 24 04	 fld	 DWORD PTR __X$[esp-4]
  00004	d9 fa		 fsqrt
  00006	c3		 ret	 0
_sqrtf	ENDP
_TEXT	ENDS
PUBLIC	?fabs@@YAMM@Z					; fabs
; Function compile flags: /Ogty
;	COMDAT ?fabs@@YAMM@Z
_TEXT	SEGMENT
__X$ = 8						; size = 4
?fabs@@YAMM@Z PROC NEAR					; fabs, COMDAT

; 555  :         {return (fabsf(_X)); }

  00000	d9 44 24 04	 fld	 DWORD PTR __X$[esp-4]
  00004	d9 e1		 fabs
  00006	c3		 ret	 0
?fabs@@YAMM@Z ENDP					; fabs
_TEXT	ENDS
PUBLIC	??0D3DXVECTOR3@@QAE@XZ				; D3DXVECTOR3::D3DXVECTOR3
; Function compile flags: /Ogty
; File c:\documents and settings\test\mes documents\source\virtuos_v17\build\program\dx_sdk\d3dx9math.h
;	COMDAT ??0D3DXVECTOR3@@QAE@XZ
_TEXT	SEGMENT
??0D3DXVECTOR3@@QAE@XZ PROC NEAR			; D3DXVECTOR3::D3DXVECTOR3, COMDAT
; _this$ = ecx

; 165  :     D3DXVECTOR3() {};

  00000	8b c1		 mov	 eax, ecx
  00002	c3		 ret	 0
??0D3DXVECTOR3@@QAE@XZ ENDP				; D3DXVECTOR3::D3DXVECTOR3
_TEXT	ENDS
PUBLIC	??0D3DXMATRIX@@QAE@XZ				; D3DXMATRIX::D3DXMATRIX
; Function compile flags: /Ogty
;	COMDAT ??0D3DXMATRIX@@QAE@XZ
_TEXT	SEGMENT
??0D3DXMATRIX@@QAE@XZ PROC NEAR				; D3DXMATRIX::D3DXMATRIX, COMDAT
; _this$ = ecx

; 313  :     D3DXMATRIX() {};

  00000	8b c1		 mov	 eax, ecx
  00002	c3		 ret	 0
??0D3DXMATRIX@@QAE@XZ ENDP				; D3DXMATRIX::D3DXMATRIX
_TEXT	ENDS
PUBLIC	??0D3DXVECTOR3@@QAE@MMM@Z			; D3DXVECTOR3::D3DXVECTOR3
; Function compile flags: /Ogty
; File c:\documents and settings\test\mes documents\source\virtuos_v17\build\program\dx_sdk\d3dx9math.inl
;	COMDAT ??0D3DXVECTOR3@@QAE@MMM@Z
_TEXT	SEGMENT
_fx$ = 8						; size = 4
_fy$ = 12						; size = 4
_fz$ = 16						; size = 4
??0D3DXVECTOR3@@QAE@MMM@Z PROC NEAR			; D3DXVECTOR3::D3DXVECTOR3, COMDAT
; _this$ = ecx

; 300  :     x = fx;
; 301  :     y = fy;

  00000	8b 54 24 08	 mov	 edx, DWORD PTR _fy$[esp-4]
  00004	8b c1		 mov	 eax, ecx
  00006	8b 4c 24 04	 mov	 ecx, DWORD PTR _fx$[esp-4]
  0000a	89 08		 mov	 DWORD PTR [eax], ecx

; 302  :     z = fz;

  0000c	8b 4c 24 0c	 mov	 ecx, DWORD PTR _fz$[esp-4]
  00010	89 50 04	 mov	 DWORD PTR [eax+4], edx
  00013	89 48 08	 mov	 DWORD PTR [eax+8], ecx

; 303  : }

  00016	c2 0c 00	 ret	 12			; 0000000cH
??0D3DXVECTOR3@@QAE@MMM@Z ENDP				; D3DXVECTOR3::D3DXVECTOR3
_TEXT	ENDS
PUBLIC	??HD3DXVECTOR3@@QBE?AU0@ABU0@@Z			; D3DXVECTOR3::operator+
; Function compile flags: /Ogty
;	COMDAT ??HD3DXVECTOR3@@QBE?AU0@ABU0@@Z
_TEXT	SEGMENT
___$ReturnUdt$ = 8					; size = 4
_v$ = 12						; size = 4
??HD3DXVECTOR3@@QBE?AU0@ABU0@@Z PROC NEAR		; D3DXVECTOR3::operator+, COMDAT
; _this$ = ecx

; 377  :     return D3DXVECTOR3(x + v.x, y + v.y, z + v.z);

  00000	8b 44 24 08	 mov	 eax, DWORD PTR _v$[esp-4]
  00004	d9 40 08	 fld	 DWORD PTR [eax+8]
  00007	d8 41 08	 fadd	 DWORD PTR [ecx+8]
  0000a	d9 40 04	 fld	 DWORD PTR [eax+4]
  0000d	d8 41 04	 fadd	 DWORD PTR [ecx+4]
  00010	d9 00		 fld	 DWORD PTR [eax]
  00012	8b 44 24 04	 mov	 eax, DWORD PTR ___$ReturnUdt$[esp-4]
  00016	d8 01		 fadd	 DWORD PTR [ecx]
  00018	d9 18		 fstp	 DWORD PTR [eax]
  0001a	d9 58 04	 fstp	 DWORD PTR [eax+4]
  0001d	d9 58 08	 fstp	 DWORD PTR [eax+8]

; 378  : }

  00020	c2 08 00	 ret	 8
??HD3DXVECTOR3@@QBE?AU0@ABU0@@Z ENDP			; D3DXVECTOR3::operator+
_TEXT	ENDS
PUBLIC	??GD3DXVECTOR3@@QBE?AU0@ABU0@@Z			; D3DXVECTOR3::operator-
; Function compile flags: /Ogty
;	COMDAT ??GD3DXVECTOR3@@QBE?AU0@ABU0@@Z
_TEXT	SEGMENT
___$ReturnUdt$ = 8					; size = 4
_v$ = 12						; size = 4
??GD3DXVECTOR3@@QBE?AU0@ABU0@@Z PROC NEAR		; D3DXVECTOR3::operator-, COMDAT
; _this$ = ecx

; 383  :     return D3DXVECTOR3(x - v.x, y - v.y, z - v.z);

  00000	d9 41 08	 fld	 DWORD PTR [ecx+8]
  00003	8b 44 24 08	 mov	 eax, DWORD PTR _v$[esp-4]
  00007	d8 60 08	 fsub	 DWORD PTR [eax+8]
  0000a	d9 41 04	 fld	 DWORD PTR [ecx+4]
  0000d	d8 60 04	 fsub	 DWORD PTR [eax+4]
  00010	d9 01		 fld	 DWORD PTR [ecx]
  00012	d8 20		 fsub	 DWORD PTR [eax]
  00014	8b 44 24 04	 mov	 eax, DWORD PTR ___$ReturnUdt$[esp-4]
  00018	d9 18		 fstp	 DWORD PTR [eax]
  0001a	d9 58 04	 fstp	 DWORD PTR [eax+4]
  0001d	d9 58 08	 fstp	 DWORD PTR [eax+8]

; 384  : }

  00020	c2 08 00	 ret	 8
??GD3DXVECTOR3@@QBE?AU0@ABU0@@Z ENDP			; D3DXVECTOR3::operator-
_TEXT	ENDS
PUBLIC	??DD3DXVECTOR3@@QBE?AU0@M@Z			; D3DXVECTOR3::operator*
; Function compile flags: /Ogty
;	COMDAT ??DD3DXVECTOR3@@QBE?AU0@M@Z
_TEXT	SEGMENT
___$ReturnUdt$ = 8					; size = 4
_f$ = 12						; size = 4
??DD3DXVECTOR3@@QBE?AU0@M@Z PROC NEAR			; D3DXVECTOR3::operator*, COMDAT
; _this$ = ecx

; 389  :     return D3DXVECTOR3(x * f, y * f, z * f);

  00000	d9 44 24 08	 fld	 DWORD PTR _f$[esp-4]
  00004	8b 44 24 04	 mov	 eax, DWORD PTR ___$ReturnUdt$[esp-4]
  00008	d8 49 08	 fmul	 DWORD PTR [ecx+8]
  0000b	d9 44 24 08	 fld	 DWORD PTR _f$[esp-4]
  0000f	d8 49 04	 fmul	 DWORD PTR [ecx+4]
  00012	d9 44 24 08	 fld	 DWORD PTR _f$[esp-4]
  00016	d8 09		 fmul	 DWORD PTR [ecx]
  00018	d9 18		 fstp	 DWORD PTR [eax]
  0001a	d9 58 04	 fstp	 DWORD PTR [eax+4]
  0001d	d9 58 08	 fstp	 DWORD PTR [eax+8]

; 390  : }

  00020	c2 08 00	 ret	 8
??DD3DXVECTOR3@@QBE?AU0@M@Z ENDP			; D3DXVECTOR3::operator*
_TEXT	ENDS
PUBLIC	?D3DXVec3Length@@YAMPBUD3DXVECTOR3@@@Z		; D3DXVec3Length
; Function compile flags: /Ogty
;	COMDAT ?D3DXVec3Length@@YAMPBUD3DXVECTOR3@@@Z
_TEXT	SEGMENT
_pV$ = 8						; size = 4
?D3DXVec3Length@@YAMPBUD3DXVECTOR3@@@Z PROC NEAR	; D3DXVec3Length, COMDAT

; 1678 : #ifdef D3DX_DEBUG
; 1679 :     if(!pV)
; 1680 :         return 0.0f;
; 1681 : #endif
; 1682 : 
; 1683 : #ifdef __cplusplus
; 1684 :     return sqrtf(pV->x * pV->x + pV->y * pV->y + pV->z * pV->z);

  00000	8b 44 24 04	 mov	 eax, DWORD PTR _pV$[esp-4]
  00004	d9 40 08	 fld	 DWORD PTR [eax+8]
  00007	d9 40 04	 fld	 DWORD PTR [eax+4]
  0000a	d9 00		 fld	 DWORD PTR [eax]
  0000c	d9 c0		 fld	 ST(0)
  0000e	d8 c9		 fmul	 ST(0), ST(1)
  00010	d9 c2		 fld	 ST(2)
  00012	d8 cb		 fmul	 ST(0), ST(3)
  00014	de c1		 faddp	 ST(1), ST(0)
  00016	d9 c3		 fld	 ST(3)
  00018	d8 cc		 fmul	 ST(0), ST(4)
  0001a	de c1		 faddp	 ST(1), ST(0)
  0001c	d9 fa		 fsqrt
  0001e	dd db		 fstp	 ST(3)
  00020	dd d8		 fstp	 ST(0)
  00022	dd d8		 fstp	 ST(0)

; 1685 : #else
; 1686 :     return (FLOAT) sqrt(pV->x * pV->x + pV->y * pV->y + pV->z * pV->z);
; 1687 : #endif
; 1688 : }

  00024	c3		 ret	 0
?D3DXVec3Length@@YAMPBUD3DXVECTOR3@@@Z ENDP		; D3DXVec3Length
_TEXT	ENDS
PUBLIC	?D3DXVec3Dot@@YAMPBUD3DXVECTOR3@@0@Z		; D3DXVec3Dot
; Function compile flags: /Ogty
;	COMDAT ?D3DXVec3Dot@@YAMPBUD3DXVECTOR3@@0@Z
_TEXT	SEGMENT
_pV1$ = 8						; size = 4
_pV2$ = 12						; size = 4
?D3DXVec3Dot@@YAMPBUD3DXVECTOR3@@0@Z PROC NEAR		; D3DXVec3Dot, COMDAT

; 1704 : #ifdef D3DX_DEBUG
; 1705 :     if(!pV1 || !pV2)
; 1706 :         return 0.0f;
; 1707 : #endif
; 1708 : 
; 1709 :     return pV1->x * pV2->x + pV1->y * pV2->y + pV1->z * pV2->z;

  00000	8b 44 24 04	 mov	 eax, DWORD PTR _pV1$[esp-4]
  00004	8b 4c 24 08	 mov	 ecx, DWORD PTR _pV2$[esp-4]
  00008	d9 40 08	 fld	 DWORD PTR [eax+8]
  0000b	d8 49 08	 fmul	 DWORD PTR [ecx+8]
  0000e	d9 40 04	 fld	 DWORD PTR [eax+4]
  00011	d8 49 04	 fmul	 DWORD PTR [ecx+4]
  00014	de c1		 faddp	 ST(1), ST(0)
  00016	d9 00		 fld	 DWORD PTR [eax]
  00018	d8 09		 fmul	 DWORD PTR [ecx]
  0001a	de c1		 faddp	 ST(1), ST(0)

; 1710 : }

  0001c	c3		 ret	 0
?D3DXVec3Dot@@YAMPBUD3DXVECTOR3@@0@Z ENDP		; D3DXVec3Dot
_TEXT	ENDS
PUBLIC	?D3DXVec3Cross@@YAPAUD3DXVECTOR3@@PAU1@PBU1@1@Z	; D3DXVec3Cross
; Function compile flags: /Ogty
;	COMDAT ?D3DXVec3Cross@@YAPAUD3DXVECTOR3@@PAU1@PBU1@1@Z
_TEXT	SEGMENT
_v$ = -12						; size = 12
_pOut$ = 8						; size = 4
_pV1$ = 12						; size = 4
_pV2$ = 16						; size = 4
?D3DXVec3Cross@@YAPAUD3DXVECTOR3@@PAU1@PBU1@1@Z PROC NEAR ; D3DXVec3Cross, COMDAT

; 1714 : {

  00000	83 ec 0c	 sub	 esp, 12			; 0000000cH

; 1715 :     D3DXVECTOR3 v;
; 1716 : 
; 1717 : #ifdef D3DX_DEBUG
; 1718 :     if(!pOut || !pV1 || !pV2)
; 1719 :         return NULL;
; 1720 : #endif
; 1721 : 
; 1722 :     v.x = pV1->y * pV2->z - pV1->z * pV2->y;

  00003	8b 4c 24 18	 mov	 ecx, DWORD PTR _pV2$[esp+8]
  00007	8b 44 24 14	 mov	 eax, DWORD PTR _pV1$[esp+8]
  0000b	d9 41 08	 fld	 DWORD PTR [ecx+8]
  0000e	d8 48 04	 fmul	 DWORD PTR [eax+4]
  00011	d9 40 08	 fld	 DWORD PTR [eax+8]
  00014	d8 49 04	 fmul	 DWORD PTR [ecx+4]
  00017	de e9		 fsubp	 ST(1), ST(0)
  00019	d9 1c 24	 fstp	 DWORD PTR _v$[esp+12]

; 1723 :     v.y = pV1->z * pV2->x - pV1->x * pV2->z;
; 1724 :     v.z = pV1->x * pV2->y - pV1->y * pV2->x;
; 1725 : 
; 1726 :     *pOut = v;

  0001c	8b 14 24	 mov	 edx, DWORD PTR _v$[esp+12]
  0001f	d9 40 08	 fld	 DWORD PTR [eax+8]
  00022	d8 09		 fmul	 DWORD PTR [ecx]
  00024	d9 41 08	 fld	 DWORD PTR [ecx+8]
  00027	d8 08		 fmul	 DWORD PTR [eax]
  00029	de e9		 fsubp	 ST(1), ST(0)
  0002b	d9 5c 24 04	 fstp	 DWORD PTR _v$[esp+16]
  0002f	d9 00		 fld	 DWORD PTR [eax]
  00031	d8 49 04	 fmul	 DWORD PTR [ecx+4]
  00034	d9 01		 fld	 DWORD PTR [ecx]
  00036	d8 48 04	 fmul	 DWORD PTR [eax+4]
  00039	8b 44 24 10	 mov	 eax, DWORD PTR _pOut$[esp+8]
  0003d	8b c8		 mov	 ecx, eax
  0003f	89 11		 mov	 DWORD PTR [ecx], edx
  00041	8b 54 24 04	 mov	 edx, DWORD PTR _v$[esp+16]
  00045	de e9		 fsubp	 ST(1), ST(0)
  00047	89 51 04	 mov	 DWORD PTR [ecx+4], edx
  0004a	d9 5c 24 08	 fstp	 DWORD PTR _v$[esp+20]
  0004e	8b 54 24 08	 mov	 edx, DWORD PTR _v$[esp+20]
  00052	89 51 08	 mov	 DWORD PTR [ecx+8], edx

; 1727 :     return pOut;
; 1728 : }

  00055	83 c4 0c	 add	 esp, 12			; 0000000cH
  00058	c3		 ret	 0
?D3DXVec3Cross@@YAPAUD3DXVECTOR3@@PAU1@PBU1@1@Z ENDP	; D3DXVec3Cross
_TEXT	ENDS
PUBLIC	?QuaternionRotationToYPW@@YAXABUD3DXQUATERNION@@AAUD3DXVECTOR3@@@Z ; QuaternionRotationToYPW
; Function compile flags: /Ogty
; File c:\documents and settings\test\mes documents\source\virtuos_v17\build\program\_common\xutil3d.cpp
;	COMDAT ?QuaternionRotationToYPW@@YAXABUD3DXQUATERNION@@AAUD3DXVECTOR3@@@Z
_TEXT	SEGMENT
_sqx$ = -20						; size = 4
_sqz$ = -16						; size = 4
_sqw$ = -12						; size = 4
$T227066 = -8						; size = 4
$T227070 = -4						; size = 4
_sqy$ = 8						; size = 4
_qRot$ = 8						; size = 4
_vYPW$ = 12						; size = 4
?QuaternionRotationToYPW@@YAXABUD3DXQUATERNION@@AAUD3DXVECTOR3@@@Z PROC NEAR ; QuaternionRotationToYPW, COMDAT

; 8    : {

  00000	83 ec 14	 sub	 esp, 20			; 00000014H

; 9    : 	FLOAT pitch, yaw, roll;
; 10   : 	FLOAT sqw = qRot.w*qRot.w;

  00003	8b 44 24 18	 mov	 eax, DWORD PTR _qRot$[esp+16]
  00007	d9 40 0c	 fld	 DWORD PTR [eax+12]
  0000a	d9 c0		 fld	 ST(0)
  0000c	d8 c9		 fmul	 ST(0), ST(1)
  0000e	d9 5c 24 08	 fstp	 DWORD PTR _sqw$[esp+20]
  00012	dd d8		 fstp	 ST(0)

; 11   : 	FLOAT sqx = qRot.x*qRot.x;

  00014	d9 00		 fld	 DWORD PTR [eax]
  00016	d9 c0		 fld	 ST(0)
  00018	d8 c9		 fmul	 ST(0), ST(1)
  0001a	d9 1c 24	 fstp	 DWORD PTR _sqx$[esp+20]
  0001d	dd d8		 fstp	 ST(0)

; 12   : 	FLOAT sqy = qRot.y*qRot.y;

  0001f	d9 40 04	 fld	 DWORD PTR [eax+4]
  00022	d9 c0		 fld	 ST(0)
  00024	d8 c9		 fmul	 ST(0), ST(1)
  00026	d9 5c 24 18	 fstp	 DWORD PTR _sqy$[esp+16]
  0002a	dd d8		 fstp	 ST(0)

; 13   : 	FLOAT sqz = qRot.z*qRot.z;

  0002c	d9 40 08	 fld	 DWORD PTR [eax+8]
  0002f	d9 c0		 fld	 ST(0)
  00031	d8 c9		 fmul	 ST(0), ST(1)
  00033	d9 5c 24 04	 fstp	 DWORD PTR _sqz$[esp+20]
  00037	dd d8		 fstp	 ST(0)

; 14   : 	
; 15   : 	pitch = asinf(2.0f * (qRot.w*qRot.x - qRot.y*qRot.z)); 
; 16   : 	yaw   = atan2f(2.0f * (qRot.x*qRot.z + qRot.w*qRot.y),(-sqx - sqy + sqz + sqw)); 

  00039	d9 40 04	 fld	 DWORD PTR [eax+4]
  0003c	d8 48 0c	 fmul	 DWORD PTR [eax+12]
  0003f	d9 40 08	 fld	 DWORD PTR [eax+8]
  00042	d8 08		 fmul	 DWORD PTR [eax]
  00044	de c1		 faddp	 ST(1), ST(0)
  00046	dc c0		 fadd	 ST(0), ST(0)
  00048	d9 5c 24 0c	 fstp	 DWORD PTR $T227066[esp+20]

; 17   : 	roll  = atan2f(2.0f * (qRot.x*qRot.y + qRot.w*qRot.z),(-sqx + sqy - sqz + sqw));

  0004c	d9 40 08	 fld	 DWORD PTR [eax+8]
  0004f	d8 48 0c	 fmul	 DWORD PTR [eax+12]
  00052	d9 40 04	 fld	 DWORD PTR [eax+4]
  00055	d8 08		 fmul	 DWORD PTR [eax]
  00057	de c1		 faddp	 ST(1), ST(0)
  00059	dc c0		 fadd	 ST(0), ST(0)
  0005b	d9 5c 24 10	 fstp	 DWORD PTR $T227070[esp+20]
  0005f	d9 00		 fld	 DWORD PTR [eax]
  00061	d8 48 0c	 fmul	 DWORD PTR [eax+12]
  00064	d9 40 08	 fld	 DWORD PTR [eax+8]
  00067	d8 48 04	 fmul	 DWORD PTR [eax+4]
  0006a	de e9		 fsubp	 ST(1), ST(0)
  0006c	dc c0		 fadd	 ST(0), ST(0)
  0006e	e8 00 00 00 00	 call	 __CIasin

; 18   : 	
; 19   : 	vYPW.x = pitch;

  00073	8b 44 24 1c	 mov	 eax, DWORD PTR _vYPW$[esp+16]
  00077	d9 18		 fstp	 DWORD PTR [eax]

; 20   : 	vYPW.y = yaw;

  00079	d9 44 24 0c	 fld	 DWORD PTR $T227066[esp+20]
  0007d	d9 44 24 18	 fld	 DWORD PTR _sqy$[esp+16]
  00081	d8 04 24	 fadd	 DWORD PTR _sqx$[esp+20]
  00084	d8 6c 24 04	 fsubr	 DWORD PTR _sqz$[esp+20]
  00088	d8 44 24 08	 fadd	 DWORD PTR _sqw$[esp+20]
  0008c	d9 f3		 fpatan
  0008e	d9 58 04	 fstp	 DWORD PTR [eax+4]

; 21   : 	vYPW.z = roll;

  00091	d9 44 24 10	 fld	 DWORD PTR $T227070[esp+20]
  00095	d9 44 24 18	 fld	 DWORD PTR _sqy$[esp+16]
  00099	d8 24 24	 fsub	 DWORD PTR _sqx$[esp+20]
  0009c	d8 64 24 04	 fsub	 DWORD PTR _sqz$[esp+20]
  000a0	d8 44 24 08	 fadd	 DWORD PTR _sqw$[esp+20]
  000a4	d9 f3		 fpatan
  000a6	d9 58 08	 fstp	 DWORD PTR [eax+8]

; 22   : }

  000a9	83 c4 14	 add	 esp, 20			; 00000014H
  000ac	c3		 ret	 0
?QuaternionRotationToYPW@@YAXABUD3DXQUATERNION@@AAUD3DXVECTOR3@@@Z ENDP ; QuaternionRotationToYPW
_TEXT	ENDS
PUBLIC	?IsTouchOBB_Line@@YAHABUD3DXVECTOR3@@0ABUD3DXMATRIX@@00PAU1@@Z ; IsTouchOBB_Line
EXTRN	_D3DXVec3TransformCoord@12:NEAR
EXTRN	_D3DXMatrixInverse@12:NEAR
; Function compile flags: /Ogty
;	COMDAT ?IsTouchOBB_Line@@YAHABUD3DXVECTOR3@@0ABUD3DXMATRIX@@00PAU1@@Z
_TEXT	SEGMENT
_rv2$ = -88						; size = 12
_rv1$ = -76						; size = 12
_mInv$ = -64						; size = 64
_vMin$ = 8						; size = 4
_vMax$ = 12						; size = 4
_m$ = 16						; size = 4
_v1$ = 20						; size = 4
_v2$ = 24						; size = 4
_pvIntersect$ = 28					; size = 4
?IsTouchOBB_Line@@YAHABUD3DXVECTOR3@@0ABUD3DXMATRIX@@00PAU1@@Z PROC NEAR ; IsTouchOBB_Line, COMDAT

; 213  : {

  00000	83 ec 58	 sub	 esp, 88			; 00000058H
  00003	53		 push	 ebx

; 214  : 
; 215  : 	D3DXMATRIX	mInv;
; 216  : 	D3DXMatrixInverse( &mInv, NULL, &m );	// AABBÀÇ È¸Àü ¸ÅÆ®¸¯½ºÀÎ mÀ» ¿ªÈ¸Àü ½ÃÅ°±â À§ÇØ ¿ªÇà·ÄÀ» ¸¸µç´Ù.

  00004	8b 5c 24 68	 mov	 ebx, DWORD PTR _m$[esp+88]
  00008	56		 push	 esi
  00009	57		 push	 edi
  0000a	53		 push	 ebx
  0000b	6a 00		 push	 0
  0000d	8d 44 24 2c	 lea	 eax, DWORD PTR _mInv$[esp+108]
  00011	50		 push	 eax
  00012	e8 00 00 00 00	 call	 _D3DXMatrixInverse@12

; 217  : 
; 218  : 	D3DXVECTOR3	rv1, rv2;
; 219  : 	D3DXVec3TransformCoord( &rv1, &v1, &mInv );		// ¼±ÀÇ ¾ç ³¡Á¡À» ¿ªÈ¸Àü ½ÃÅ²´Ù.

  00017	8b 54 24 74	 mov	 edx, DWORD PTR _v1$[esp+96]
  0001b	8d 4c 24 24	 lea	 ecx, DWORD PTR _mInv$[esp+100]
  0001f	51		 push	 ecx
  00020	52		 push	 edx
  00021	8d 44 24 20	 lea	 eax, DWORD PTR _rv1$[esp+108]
  00025	50		 push	 eax
  00026	e8 00 00 00 00	 call	 _D3DXVec3TransformCoord@12

; 220  : 	D3DXVec3TransformCoord( &rv2, &v2, &mInv );

  0002b	8b 54 24 78	 mov	 edx, DWORD PTR _v2$[esp+96]
  0002f	8d 4c 24 24	 lea	 ecx, DWORD PTR _mInv$[esp+100]
  00033	51		 push	 ecx
  00034	52		 push	 edx
  00035	8d 44 24 14	 lea	 eax, DWORD PTR _rv2$[esp+108]
  00039	50		 push	 eax
  0003a	e8 00 00 00 00	 call	 _D3DXVec3TransformCoord@12

; 221  : 
; 222  : 	BOOL bResult = IsTouchAABB_Line( vMin, vMax, rv1, rv2, pvIntersect );	// AABB - Line ±³Â÷¸¦ Å×½ºÆ®

  0003f	8b 7c 24 7c	 mov	 edi, DWORD PTR _pvIntersect$[esp+96]
  00043	8b 44 24 6c	 mov	 eax, DWORD PTR _vMax$[esp+96]
  00047	57		 push	 edi
  00048	8d 4c 24 10	 lea	 ecx, DWORD PTR _rv2$[esp+104]
  0004c	51		 push	 ecx
  0004d	8b 4c 24 70	 mov	 ecx, DWORD PTR _vMin$[esp+104]
  00051	8d 54 24 20	 lea	 edx, DWORD PTR _rv1$[esp+108]
  00055	52		 push	 edx
  00056	50		 push	 eax
  00057	51		 push	 ecx
  00058	e8 00 00 00 00	 call	 ?IsTouchAABB_Line@@YAHABUD3DXVECTOR3@@000PAU1@@Z ; IsTouchAABB_Line
  0005d	8b f0		 mov	 esi, eax
  0005f	83 c4 14	 add	 esp, 20			; 00000014H

; 223  : 	if( bResult) 

  00062	85 f6		 test	 esi, esi
  00064	74 08		 je	 SHORT $L227085

; 224  : 		D3DXVec3TransformCoord( pvIntersect, pvIntersect, &m );

  00066	53		 push	 ebx
  00067	57		 push	 edi
  00068	57		 push	 edi
  00069	e8 00 00 00 00	 call	 _D3DXVec3TransformCoord@12
$L227085:
  0006e	5f		 pop	 edi

; 225  : 
; 226  : 	return bResult;

  0006f	8b c6		 mov	 eax, esi
  00071	5e		 pop	 esi
  00072	5b		 pop	 ebx

; 227  : }

  00073	83 c4 58	 add	 esp, 88			; 00000058H
  00076	c3		 ret	 0
?IsTouchOBB_Line@@YAHABUD3DXVECTOR3@@0ABUD3DXMATRIX@@00PAU1@@Z ENDP ; IsTouchOBB_Line
_TEXT	ENDS
PUBLIC	?IsTouchRayTri@@YAHPBUD3DXVECTOR3@@0000PAM@Z	; IsTouchRayTri
PUBLIC	__real@00000000
PUBLIC	__real@38d1b717
;	COMDAT __real@00000000
; File c:\documents and settings\test\mes documents\source\virtuos_v17\build\program\dx_sdk\d3dx9math.inl
CONST	SEGMENT
__real@00000000 DD 000000000r			; 0
CONST	ENDS
;	COMDAT __real@38d1b717
CONST	SEGMENT
__real@38d1b717 DD 038d1b717r			; 0.0001
; Function compile flags: /Ogty
; File c:\documents and settings\test\mes documents\source\virtuos_v17\build\program\_common\xutil3d.cpp
CONST	ENDS
;	COMDAT ?IsTouchRayTri@@YAHPBUD3DXVECTOR3@@0000PAM@Z
_TEXT	SEGMENT
_v$227123 = -60						; size = 12
_tvec$ = -60						; size = 12
_edge1$ = -48						; size = 12
_edge2$ = -36						; size = 12
_qvec$ = -24						; size = 12
_pvec$ = -24						; size = 12
_v$227155 = -12						; size = 12
$T227089 = -12						; size = 12
_u$ = 8							; size = 4
_v0$ = 8						; size = 4
_det$ = 12						; size = 4
_v1$ = 12						; size = 4
_v2$ = 16						; size = 4
_vOrig$ = 20						; size = 4
_vDir$ = 24						; size = 4
_pfDist$ = 28						; size = 4
?IsTouchRayTri@@YAHPBUD3DXVECTOR3@@0000PAM@Z PROC NEAR	; IsTouchRayTri, COMDAT

; 233  : {

  00000	83 ec 3c	 sub	 esp, 60			; 0000003cH

; 234  :     // Find vectors for two edges sharing vert0
; 235  : 	FLOAT t,u,v;
; 236  :     D3DXVECTOR3 edge1 = *v1 - *v0;

  00003	8b 44 24 44	 mov	 eax, DWORD PTR _v1$[esp+56]
  00007	d9 00		 fld	 DWORD PTR [eax]
  00009	8b 4c 24 40	 mov	 ecx, DWORD PTR _v0$[esp+56]
  0000d	d8 21		 fsub	 DWORD PTR [ecx]

; 237  :     D3DXVECTOR3 edge2 = *v2 - *v0;
; 238  : 
; 239  :     // Begin calculating determinant - also used to calculate U parameter
; 240  :     D3DXVECTOR3 pvec;
; 241  :     D3DXVec3Cross( &pvec, vDir, &edge2 );

  0000f	8b 54 24 50	 mov	 edx, DWORD PTR _vDir$[esp+56]
  00013	d9 5c 24 0c	 fstp	 DWORD PTR _edge1$[esp+60]
  00017	d9 40 04	 fld	 DWORD PTR [eax+4]
  0001a	d8 61 04	 fsub	 DWORD PTR [ecx+4]
  0001d	d9 5c 24 10	 fstp	 DWORD PTR _edge1$[esp+64]
  00021	d9 40 08	 fld	 DWORD PTR [eax+8]
  00024	8b 44 24 48	 mov	 eax, DWORD PTR _v2$[esp+56]
  00028	d8 61 08	 fsub	 DWORD PTR [ecx+8]
  0002b	d9 5c 24 14	 fstp	 DWORD PTR _edge1$[esp+68]
  0002f	d9 00		 fld	 DWORD PTR [eax]
  00031	d8 21		 fsub	 DWORD PTR [ecx]
  00033	d9 5c 24 18	 fstp	 DWORD PTR _edge2$[esp+60]
  00037	d9 40 04	 fld	 DWORD PTR [eax+4]
  0003a	d8 61 04	 fsub	 DWORD PTR [ecx+4]
  0003d	d9 5c 24 1c	 fstp	 DWORD PTR _edge2$[esp+64]
  00041	d9 40 08	 fld	 DWORD PTR [eax+8]
  00044	d8 61 08	 fsub	 DWORD PTR [ecx+8]
  00047	d9 5c 24 20	 fstp	 DWORD PTR _edge2$[esp+68]
  0004b	d9 44 24 20	 fld	 DWORD PTR _edge2$[esp+68]
  0004f	d8 4a 04	 fmul	 DWORD PTR [edx+4]
  00052	d9 44 24 1c	 fld	 DWORD PTR _edge2$[esp+64]
  00056	d8 4a 08	 fmul	 DWORD PTR [edx+8]
  00059	de e9		 fsubp	 ST(1), ST(0)
  0005b	d9 1c 24	 fstp	 DWORD PTR _v$227123[esp+60]
  0005e	8b 04 24	 mov	 eax, DWORD PTR _v$227123[esp+60]
  00061	d9 44 24 18	 fld	 DWORD PTR _edge2$[esp+60]
  00065	89 44 24 24	 mov	 DWORD PTR _pvec$[esp+60], eax
  00069	d8 4a 08	 fmul	 DWORD PTR [edx+8]
  0006c	d9 44 24 20	 fld	 DWORD PTR _edge2$[esp+68]
  00070	d8 0a		 fmul	 DWORD PTR [edx]
  00072	de e9		 fsubp	 ST(1), ST(0)
  00074	d9 5c 24 04	 fstp	 DWORD PTR _v$227123[esp+64]
  00078	8b 44 24 04	 mov	 eax, DWORD PTR _v$227123[esp+64]
  0007c	d9 44 24 1c	 fld	 DWORD PTR _edge2$[esp+64]
  00080	89 44 24 28	 mov	 DWORD PTR _pvec$[esp+64], eax
  00084	d8 0a		 fmul	 DWORD PTR [edx]
  00086	d9 44 24 18	 fld	 DWORD PTR _edge2$[esp+60]
  0008a	d8 4a 04	 fmul	 DWORD PTR [edx+4]
  0008d	de e9		 fsubp	 ST(1), ST(0)
  0008f	d9 5c 24 08	 fstp	 DWORD PTR _v$227123[esp+68]
  00093	8b 44 24 08	 mov	 eax, DWORD PTR _v$227123[esp+68]
  00097	89 44 24 2c	 mov	 DWORD PTR _pvec$[esp+68], eax

; 242  : 
; 243  :     // If determinant is near zero, ray lies in plane of triangle
; 244  :     FLOAT det = D3DXVec3Dot( &edge1, &pvec );

  0009b	d9 44 24 2c	 fld	 DWORD PTR _pvec$[esp+68]
  0009f	d8 4c 24 14	 fmul	 DWORD PTR _edge1$[esp+68]
  000a3	d9 44 24 28	 fld	 DWORD PTR _pvec$[esp+64]
  000a7	d8 4c 24 10	 fmul	 DWORD PTR _edge1$[esp+64]
  000ab	de c1		 faddp	 ST(1), ST(0)
  000ad	d9 44 24 0c	 fld	 DWORD PTR _edge1$[esp+60]
  000b1	d8 4c 24 24	 fmul	 DWORD PTR _pvec$[esp+60]
  000b5	de c1		 faddp	 ST(1), ST(0)
  000b7	d9 54 24 44	 fst	 DWORD PTR _det$[esp+56]

; 245  : 
; 246  :     D3DXVECTOR3 tvec;
; 247  :     if( det > 0 )

  000bb	d8 1d 00 00 00
	00		 fcomp	 DWORD PTR __real@00000000
  000c1	df e0		 fnstsw	 ax
  000c3	f6 c4 41	 test	 ah, 65			; 00000041H
  000c6	0f 85 58 01 00
	00		 jne	 $L225705

; 248  :         tvec = *vOrig - *v0;

  000cc	8b 44 24 4c	 mov	 eax, DWORD PTR _vOrig$[esp+56]
  000d0	d9 00		 fld	 DWORD PTR [eax]
  000d2	d8 21		 fsub	 DWORD PTR [ecx]
  000d4	d9 5c 24 30	 fstp	 DWORD PTR $T227089[esp+60]
  000d8	d9 40 04	 fld	 DWORD PTR [eax+4]
  000db	d8 61 04	 fsub	 DWORD PTR [ecx+4]
  000de	d9 5c 24 34	 fstp	 DWORD PTR $T227089[esp+64]
  000e2	d9 40 08	 fld	 DWORD PTR [eax+8]
  000e5	8b 44 24 34	 mov	 eax, DWORD PTR $T227089[esp+64]
  000e9	d8 61 08	 fsub	 DWORD PTR [ecx+8]
  000ec	8b 4c 24 30	 mov	 ecx, DWORD PTR $T227089[esp+60]
  000f0	89 44 24 04	 mov	 DWORD PTR _tvec$[esp+64], eax
  000f4	89 0c 24	 mov	 DWORD PTR _tvec$[esp+60], ecx
  000f7	d9 5c 24 38	 fstp	 DWORD PTR $T227089[esp+68]
  000fb	8b 4c 24 38	 mov	 ecx, DWORD PTR $T227089[esp+68]

; 251  : 
; 252  :     if( det < 0.0001f )

  000ff	d9 44 24 44	 fld	 DWORD PTR _det$[esp+56]
  00103	89 4c 24 08	 mov	 DWORD PTR _tvec$[esp+68], ecx
  00107	d8 1d 00 00 00
	00		 fcomp	 DWORD PTR __real@38d1b717
  0010d	df e0		 fnstsw	 ax
  0010f	f6 c4 05	 test	 ah, 5

; 253  :         return FALSE;

  00112	0f 8b 0c 01 00
	00		 jnp	 $L225705

; 254  : 
; 255  :     // Calculate U parameter and test bounds
; 256  :     u = D3DXVec3Dot( &tvec, &pvec );

  00118	d9 44 24 08	 fld	 DWORD PTR _tvec$[esp+68]
  0011c	d8 4c 24 2c	 fmul	 DWORD PTR _pvec$[esp+68]
  00120	d9 44 24 04	 fld	 DWORD PTR _tvec$[esp+64]
  00124	d8 4c 24 28	 fmul	 DWORD PTR _pvec$[esp+64]
  00128	de c1		 faddp	 ST(1), ST(0)
  0012a	d9 04 24	 fld	 DWORD PTR _tvec$[esp+60]
  0012d	d8 4c 24 24	 fmul	 DWORD PTR _pvec$[esp+60]
  00131	de c1		 faddp	 ST(1), ST(0)
  00133	d9 54 24 40	 fst	 DWORD PTR _u$[esp+56]

; 257  :     if( u < 0.0f || u > det )

  00137	d8 1d 00 00 00
	00		 fcomp	 DWORD PTR __real@00000000
  0013d	df e0		 fnstsw	 ax
  0013f	f6 c4 05	 test	 ah, 5
  00142	0f 8b dc 00 00
	00		 jnp	 $L225705
  00148	d9 44 24 40	 fld	 DWORD PTR _u$[esp+56]
  0014c	d8 5c 24 44	 fcomp	 DWORD PTR _det$[esp+56]
  00150	df e0		 fnstsw	 ax
  00152	f6 c4 41	 test	 ah, 65			; 00000041H
  00155	0f 84 c9 00 00
	00		 je	 $L225705

; 258  :         return FALSE;
; 259  : 
; 260  :     // Prepare to test V parameter
; 261  :     D3DXVECTOR3 qvec;
; 262  :     D3DXVec3Cross( &qvec, &tvec, &edge1 );

  0015b	d9 44 24 04	 fld	 DWORD PTR _tvec$[esp+64]
  0015f	d8 4c 24 14	 fmul	 DWORD PTR _edge1$[esp+68]
  00163	d9 44 24 08	 fld	 DWORD PTR _tvec$[esp+68]
  00167	d8 4c 24 10	 fmul	 DWORD PTR _edge1$[esp+64]
  0016b	de e9		 fsubp	 ST(1), ST(0)
  0016d	d9 5c 24 30	 fstp	 DWORD PTR _v$227155[esp+60]
  00171	8b 44 24 30	 mov	 eax, DWORD PTR _v$227155[esp+60]
  00175	d9 44 24 08	 fld	 DWORD PTR _tvec$[esp+68]
  00179	89 44 24 24	 mov	 DWORD PTR _qvec$[esp+60], eax
  0017d	d8 4c 24 0c	 fmul	 DWORD PTR _edge1$[esp+60]
  00181	d9 44 24 14	 fld	 DWORD PTR _edge1$[esp+68]
  00185	d8 0c 24	 fmul	 DWORD PTR _tvec$[esp+60]
  00188	de e9		 fsubp	 ST(1), ST(0)
  0018a	d9 5c 24 34	 fstp	 DWORD PTR _v$227155[esp+64]
  0018e	8b 4c 24 34	 mov	 ecx, DWORD PTR _v$227155[esp+64]
  00192	d9 04 24	 fld	 DWORD PTR _tvec$[esp+60]
  00195	89 4c 24 28	 mov	 DWORD PTR _qvec$[esp+64], ecx
  00199	d8 4c 24 10	 fmul	 DWORD PTR _edge1$[esp+64]
  0019d	d9 44 24 04	 fld	 DWORD PTR _tvec$[esp+64]
  001a1	d8 4c 24 0c	 fmul	 DWORD PTR _edge1$[esp+60]
  001a5	de e9		 fsubp	 ST(1), ST(0)
  001a7	d9 5c 24 38	 fstp	 DWORD PTR _v$227155[esp+68]
  001ab	8b 44 24 38	 mov	 eax, DWORD PTR _v$227155[esp+68]

; 263  : 
; 264  :     // Calculate V parameter and test bounds
; 265  :     v = D3DXVec3Dot( vDir, &qvec );

  001af	d9 44 24 28	 fld	 DWORD PTR _qvec$[esp+64]
  001b3	89 44 24 2c	 mov	 DWORD PTR _qvec$[esp+68], eax
  001b7	d8 4a 04	 fmul	 DWORD PTR [edx+4]
  001ba	d9 44 24 2c	 fld	 DWORD PTR _qvec$[esp+68]
  001be	d8 4a 08	 fmul	 DWORD PTR [edx+8]
  001c1	de c1		 faddp	 ST(1), ST(0)
  001c3	d9 44 24 24	 fld	 DWORD PTR _qvec$[esp+60]
  001c7	d8 0a		 fmul	 DWORD PTR [edx]
  001c9	de c1		 faddp	 ST(1), ST(0)

; 266  :     if( v < 0.0f || u + v > det )

  001cb	d8 15 00 00 00
	00		 fcom	 DWORD PTR __real@00000000
  001d1	df e0		 fnstsw	 ax
  001d3	f6 c4 05	 test	 ah, 5
  001d6	7b 4a		 jnp	 SHORT $L227166
  001d8	d9 44 24 40	 fld	 DWORD PTR _u$[esp+56]
  001dc	d8 c1		 fadd	 ST(0), ST(1)
  001de	d8 5c 24 44	 fcomp	 DWORD PTR _det$[esp+56]
  001e2	df e0		 fnstsw	 ax
  001e4	dd d8		 fstp	 ST(0)
  001e6	f6 c4 41	 test	 ah, 65			; 00000041H
  001e9	74 39		 je	 SHORT $L225705

; 267  :         return FALSE;
; 268  : 
; 269  :     // Calculate t, scale parameters, ray intersects triangle
; 270  : 	t = D3DXVec3Dot( &edge2, &qvec );

  001eb	d9 44 24 2c	 fld	 DWORD PTR _qvec$[esp+68]

; 271  : 	FLOAT fInvDet = 1.0f / det;
; 272  : 	t *= fInvDet;
; 273  : 	*pfDist = t;

  001ef	8b 4c 24 54	 mov	 ecx, DWORD PTR _pfDist$[esp+56]
  001f3	d8 4c 24 20	 fmul	 DWORD PTR _edge2$[esp+68]

; 274  : //	u *= fInvDet;
; 275  : //	v *= fInvDet;
; 276  : 
; 277  : //	*pvIntersect = vOrig + t * vDir;
; 278  :     return TRUE;

  001f7	b8 01 00 00 00	 mov	 eax, 1
  001fc	d9 44 24 28	 fld	 DWORD PTR _qvec$[esp+64]
  00200	d8 4c 24 1c	 fmul	 DWORD PTR _edge2$[esp+64]
  00204	de c1		 faddp	 ST(1), ST(0)
  00206	d9 44 24 24	 fld	 DWORD PTR _qvec$[esp+60]
  0020a	d8 4c 24 18	 fmul	 DWORD PTR _edge2$[esp+60]
  0020e	de c1		 faddp	 ST(1), ST(0)
  00210	d9 05 00 00 00
	00		 fld	 DWORD PTR __real@3f800000
  00216	d8 74 24 44	 fdiv	 DWORD PTR _det$[esp+56]
  0021a	de c9		 fmulp	 ST(1), ST(0)
  0021c	d9 19		 fstp	 DWORD PTR [ecx]

; 279  : }

  0021e	83 c4 3c	 add	 esp, 60			; 0000003cH
  00221	c3		 ret	 0
$L227166:

; 266  :     if( v < 0.0f || u + v > det )

  00222	dd d8		 fstp	 ST(0)
$L225705:

; 249  :     else
; 250  : 		return FALSE;	// ¸éÀÌ ¹Ý´ë´Ù.

  00224	33 c0		 xor	 eax, eax

; 279  : }

  00226	83 c4 3c	 add	 esp, 60			; 0000003cH
  00229	c3		 ret	 0
?IsTouchRayTri@@YAHPBUD3DXVECTOR3@@0000PAM@Z ENDP	; IsTouchRayTri
_TEXT	ENDS
PUBLIC	?CalcSlideVec@@YAXPAUD3DXVECTOR3@@ABU1@1@Z	; CalcSlideVec
; Function compile flags: /Ogty
;	COMDAT ?CalcSlideVec@@YAXPAUD3DXVECTOR3@@ABU1@1@Z
_TEXT	SEGMENT
$T227171 = -24						; size = 12
_vInvN$ = -24						; size = 12
$T227170 = -12						; size = 12
_pOut$ = 8						; size = 4
_vDir$ = 12						; size = 4
_b$ = 16						; size = 4
_vN$ = 16						; size = 4
?CalcSlideVec@@YAXPAUD3DXVECTOR3@@ABU1@1@Z PROC NEAR	; CalcSlideVec, COMDAT

; 287  : {

  00000	83 ec 18	 sub	 esp, 24			; 00000018H

; 288  : 	D3DXVECTOR3 vInvN;
; 289  : 	vInvN.x = -vN.x;	vInvN.y = -vN.y;	vInvN.z = -vN.z;	// ³ë¸»À» µÚÁýÀ½.

  00003	8b 44 24 24	 mov	 eax, DWORD PTR _vN$[esp+20]
  00007	d9 00		 fld	 DWORD PTR [eax]
  00009	d9 e0		 fchs
  0000b	d9 40 04	 fld	 DWORD PTR [eax+4]
  0000e	d9 e0		 fchs
  00010	d9 40 08	 fld	 DWORD PTR [eax+8]

; 290  : 	FLOAT	b = D3DXVec3Dot( &vDir, &vInvN );		// (V dot -N)	Á÷°¢»ï°¢ÇüÀÇ ¹Øº¯ÀÇ ±æÀÌ.

  00013	8b 44 24 20	 mov	 eax, DWORD PTR _vDir$[esp+20]
  00017	d9 e0		 fchs
  00019	d9 5c 24 08	 fstp	 DWORD PTR _vInvN$[esp+32]
  0001d	d9 44 24 08	 fld	 DWORD PTR _vInvN$[esp+32]
  00021	d8 48 08	 fmul	 DWORD PTR [eax+8]
  00024	d9 c1		 fld	 ST(1)
  00026	d8 48 04	 fmul	 DWORD PTR [eax+4]
  00029	de c1		 faddp	 ST(1), ST(0)
  0002b	d9 c2		 fld	 ST(2)
  0002d	d8 08		 fmul	 DWORD PTR [eax]
  0002f	de c1		 faddp	 ST(1), ST(0)
  00031	d9 54 24 24	 fst	 DWORD PTR _b$[esp+20]

; 291  : 	*pOut = vDir - (vInvN * b);		// slide vector

  00035	d8 ca		 fmul	 ST(0), ST(2)
  00037	d9 5c 24 0c	 fstp	 DWORD PTR $T227170[esp+24]
  0003b	d9 44 24 24	 fld	 DWORD PTR _b$[esp+20]
  0003f	d8 c9		 fmul	 ST(0), ST(1)
  00041	dd da		 fstp	 ST(2)
  00043	dd d8		 fstp	 ST(0)
  00045	d9 44 24 24	 fld	 DWORD PTR _b$[esp+20]
  00049	d8 4c 24 08	 fmul	 DWORD PTR _vInvN$[esp+32]
  0004d	d9 00		 fld	 DWORD PTR [eax]
  0004f	d8 64 24 0c	 fsub	 DWORD PTR $T227170[esp+24]
  00053	d9 1c 24	 fstp	 DWORD PTR $T227171[esp+24]
  00056	8b 0c 24	 mov	 ecx, DWORD PTR $T227171[esp+24]
  00059	d9 40 04	 fld	 DWORD PTR [eax+4]
  0005c	d8 e2		 fsub	 ST(0), ST(2)
  0005e	d9 5c 24 04	 fstp	 DWORD PTR $T227171[esp+28]
  00062	8b 54 24 04	 mov	 edx, DWORD PTR $T227171[esp+28]
  00066	d9 40 08	 fld	 DWORD PTR [eax+8]
  00069	8b 44 24 1c	 mov	 eax, DWORD PTR _pOut$[esp+20]
  0006d	d8 e1		 fsub	 ST(0), ST(1)
  0006f	89 08		 mov	 DWORD PTR [eax], ecx
  00071	89 50 04	 mov	 DWORD PTR [eax+4], edx
  00074	d9 5c 24 08	 fstp	 DWORD PTR $T227171[esp+32]
  00078	8b 4c 24 08	 mov	 ecx, DWORD PTR $T227171[esp+32]
  0007c	89 48 08	 mov	 DWORD PTR [eax+8], ecx
  0007f	dd d8		 fstp	 ST(0)
  00081	dd d8		 fstp	 ST(0)

; 292  : }

  00083	83 c4 18	 add	 esp, 24			; 00000018H
  00086	c3		 ret	 0
?CalcSlideVec@@YAXPAUD3DXVECTOR3@@ABU1@1@Z ENDP		; CalcSlideVec
_TEXT	ENDS
PUBLIC	??0Segment3@@QAE@ABUD3DXVECTOR3@@0@Z		; Segment3::Segment3
PUBLIC	__real@3f000000
EXTRN	_D3DXVec3Normalize@8:NEAR
;	COMDAT __real@3f000000
; File c:\program files\microsoft visual studio .net 2003\vc7\include\math.h
CONST	SEGMENT
__real@3f000000 DD 03f000000r			; 0.5
; Function compile flags: /Ogty
; File c:\documents and settings\test\mes documents\source\virtuos_v17\build\program\_common\xutil3d.cpp
CONST	ENDS
;	COMDAT ??0Segment3@@QAE@ABUD3DXVECTOR3@@0@Z
_TEXT	SEGMENT
$T227205 = -24						; size = 12
$T227204 = -24						; size = 12
$T227203 = -12						; size = 12
_v1$ = 8						; size = 4
_v2$ = 12						; size = 4
??0Segment3@@QAE@ABUD3DXVECTOR3@@0@Z PROC NEAR		; Segment3::Segment3, COMDAT
; _this$ = ecx

; 297  : {

  00000	83 ec 18	 sub	 esp, 24			; 00000018H

; 298  : 	Origin = (v1 + v2) * 0.5f;

  00003	8b 44 24 1c	 mov	 eax, DWORD PTR _v1$[esp+20]
  00007	d9 00		 fld	 DWORD PTR [eax]
  00009	56		 push	 esi
  0000a	8b f1		 mov	 esi, ecx
  0000c	8b 4c 24 24	 mov	 ecx, DWORD PTR _v2$[esp+24]
  00010	d8 01		 fadd	 DWORD PTR [ecx]
  00012	57		 push	 edi
  00013	d9 40 04	 fld	 DWORD PTR [eax+4]
  00016	8b d6		 mov	 edx, esi
  00018	d8 41 04	 fadd	 DWORD PTR [ecx+4]
  0001b	d9 41 08	 fld	 DWORD PTR [ecx+8]
  0001e	d8 40 08	 fadd	 DWORD PTR [eax+8]
  00021	d9 5c 24 1c	 fstp	 DWORD PTR $T227203[esp+40]
  00025	d9 c9		 fxch	 ST(1)
  00027	d8 0d 00 00 00
	00		 fmul	 DWORD PTR __real@3f000000
  0002d	d9 5c 24 08	 fstp	 DWORD PTR $T227204[esp+32]
  00031	8b 7c 24 08	 mov	 edi, DWORD PTR $T227204[esp+32]
  00035	89 3a		 mov	 DWORD PTR [edx], edi
  00037	d8 0d 00 00 00
	00		 fmul	 DWORD PTR __real@3f000000
  0003d	d9 5c 24 0c	 fstp	 DWORD PTR $T227204[esp+36]
  00041	8b 7c 24 0c	 mov	 edi, DWORD PTR $T227204[esp+36]
  00045	d9 44 24 1c	 fld	 DWORD PTR $T227203[esp+40]
  00049	89 7a 04	 mov	 DWORD PTR [edx+4], edi
  0004c	d8 0d 00 00 00
	00		 fmul	 DWORD PTR __real@3f000000
  00052	d9 5c 24 10	 fstp	 DWORD PTR $T227204[esp+40]
  00056	8b 7c 24 10	 mov	 edi, DWORD PTR $T227204[esp+40]
  0005a	89 7a 08	 mov	 DWORD PTR [edx+8], edi

; 299  : 	Direction = v2-v1;

  0005d	d9 01		 fld	 DWORD PTR [ecx]
  0005f	d8 20		 fsub	 DWORD PTR [eax]
  00061	d9 5c 24 08	 fstp	 DWORD PTR $T227205[esp+32]
  00065	8b 54 24 08	 mov	 edx, DWORD PTR $T227205[esp+32]
  00069	d9 41 04	 fld	 DWORD PTR [ecx+4]
  0006c	d8 60 04	 fsub	 DWORD PTR [eax+4]
  0006f	d9 5c 24 0c	 fstp	 DWORD PTR $T227205[esp+36]
  00073	d9 41 08	 fld	 DWORD PTR [ecx+8]
  00076	d8 60 08	 fsub	 DWORD PTR [eax+8]
  00079	8d 46 0c	 lea	 eax, DWORD PTR [esi+12]
  0007c	8b c8		 mov	 ecx, eax
  0007e	89 11		 mov	 DWORD PTR [ecx], edx
  00080	8b 54 24 0c	 mov	 edx, DWORD PTR $T227205[esp+36]
  00084	d9 5c 24 10	 fstp	 DWORD PTR $T227205[esp+40]
  00088	89 51 04	 mov	 DWORD PTR [ecx+4], edx
  0008b	8b 54 24 10	 mov	 edx, DWORD PTR $T227205[esp+40]
  0008f	89 51 08	 mov	 DWORD PTR [ecx+8], edx

; 300  : 	Extent = D3DXVec3Length( &Direction ) * 0.5f;

  00092	d9 40 08	 fld	 DWORD PTR [eax+8]
  00095	d9 40 04	 fld	 DWORD PTR [eax+4]

; 301  : 	D3DXVec3Normalize( &Direction, &Direction );

  00098	50		 push	 eax
  00099	d9 00		 fld	 DWORD PTR [eax]
  0009b	50		 push	 eax
  0009c	d9 c0		 fld	 ST(0)
  0009e	d8 c9		 fmul	 ST(0), ST(1)
  000a0	d9 c2		 fld	 ST(2)
  000a2	d8 cb		 fmul	 ST(0), ST(3)

; 302  : } 

  000a4	de c1		 faddp	 ST(1), ST(0)
  000a6	d9 c3		 fld	 ST(3)
  000a8	d8 cc		 fmul	 ST(0), ST(4)
  000aa	de c1		 faddp	 ST(1), ST(0)
  000ac	d9 fa		 fsqrt
  000ae	dd db		 fstp	 ST(3)
  000b0	dd d8		 fstp	 ST(0)
  000b2	dd d8		 fstp	 ST(0)
  000b4	d8 0d 00 00 00
	00		 fmul	 DWORD PTR __real@3f000000
  000ba	d9 5e 18	 fstp	 DWORD PTR [esi+24]
  000bd	e8 00 00 00 00	 call	 _D3DXVec3Normalize@8
  000c2	5f		 pop	 edi
  000c3	8b c6		 mov	 eax, esi
  000c5	5e		 pop	 esi
  000c6	83 c4 18	 add	 esp, 24			; 00000018H
  000c9	c2 08 00	 ret	 8
??0Segment3@@QAE@ABUD3DXVECTOR3@@0@Z ENDP		; Segment3::Segment3
_TEXT	ENDS
PUBLIC	?UpdateMartix@BBOX@@QAEXABUD3DXVECTOR3@@0ABUD3DXMATRIX@@11@Z ; BBOX::UpdateMartix
; Function compile flags: /Ogty
;	COMDAT ?UpdateMartix@BBOX@@QAEXABUD3DXVECTOR3@@0ABUD3DXMATRIX@@11@Z
_TEXT	SEGMENT
_vExtent$ = -24						; size = 12
$T227261 = -24						; size = 12
$T227262 = -12						; size = 12
$T227260 = -12						; size = 12
_vMin$ = 8						; size = 4
_vMax$ = 12						; size = 4
_matScale$ = 16						; size = 4
_matRotation$ = 20					; size = 4
_matWorld$ = 24						; size = 4
?UpdateMartix@BBOX@@QAEXABUD3DXVECTOR3@@0ABUD3DXMATRIX@@11@Z PROC NEAR ; BBOX::UpdateMartix, COMDAT
; _this$ = ecx

; 307  : {

  00000	83 ec 18	 sub	 esp, 24			; 00000018H
  00003	53		 push	 ebx

; 308  : 	//center
; 309  : 	Center = ( vMin + vMax ) * 0.5f;

  00004	8b 5c 24 24	 mov	 ebx, DWORD PTR _vMax$[esp+24]
  00008	56		 push	 esi
  00009	57		 push	 edi
  0000a	8b 7c 24 28	 mov	 edi, DWORD PTR _vMin$[esp+32]
  0000e	d9 07		 fld	 DWORD PTR [edi]
  00010	8b f1		 mov	 esi, ecx
  00012	d8 03		 fadd	 DWORD PTR [ebx]
  00014	8b c6		 mov	 eax, esi
  00016	d9 47 04	 fld	 DWORD PTR [edi+4]
  00019	d8 43 04	 fadd	 DWORD PTR [ebx+4]
  0001c	d9 43 08	 fld	 DWORD PTR [ebx+8]
  0001f	d8 47 08	 fadd	 DWORD PTR [edi+8]
  00022	d9 5c 24 20	 fstp	 DWORD PTR $T227260[esp+44]
  00026	d9 c9		 fxch	 ST(1)
  00028	d8 0d 00 00 00
	00		 fmul	 DWORD PTR __real@3f000000
  0002e	d9 5c 24 0c	 fstp	 DWORD PTR $T227261[esp+36]
  00032	8b 4c 24 0c	 mov	 ecx, DWORD PTR $T227261[esp+36]
  00036	89 08		 mov	 DWORD PTR [eax], ecx
  00038	d8 0d 00 00 00
	00		 fmul	 DWORD PTR __real@3f000000
  0003e	d9 5c 24 10	 fstp	 DWORD PTR $T227261[esp+40]
  00042	8b 54 24 10	 mov	 edx, DWORD PTR $T227261[esp+40]
  00046	d9 44 24 20	 fld	 DWORD PTR $T227260[esp+44]
  0004a	89 50 04	 mov	 DWORD PTR [eax+4], edx

; 310  : 	D3DXVec3TransformCoord( &Center, &Center, &matWorld );

  0004d	8b 54 24 38	 mov	 edx, DWORD PTR _matWorld$[esp+32]
  00051	d8 0d 00 00 00
	00		 fmul	 DWORD PTR __real@3f000000
  00057	52		 push	 edx
  00058	56		 push	 esi
  00059	d9 5c 24 1c	 fstp	 DWORD PTR $T227261[esp+52]
  0005d	8b 4c 24 1c	 mov	 ecx, DWORD PTR $T227261[esp+52]
  00061	56		 push	 esi
  00062	89 48 08	 mov	 DWORD PTR [eax+8], ecx
  00065	e8 00 00 00 00	 call	 _D3DXVec3TransformCoord@12

; 311  : 
; 312  : 	//extent
; 313  : 	D3DXVECTOR3	vExtent = ( vMax - vMin ) * 0.5f;

  0006a	d9 03		 fld	 DWORD PTR [ebx]
  0006c	d8 27		 fsub	 DWORD PTR [edi]

; 314  : 
; 315  : 	Extent[0] = vExtent.x * matScale._11;

  0006e	8b 44 24 30	 mov	 eax, DWORD PTR _matScale$[esp+32]
  00072	d9 43 04	 fld	 DWORD PTR [ebx+4]
  00075	d8 67 04	 fsub	 DWORD PTR [edi+4]
  00078	d9 43 08	 fld	 DWORD PTR [ebx+8]
  0007b	d8 67 08	 fsub	 DWORD PTR [edi+8]
  0007e	5f		 pop	 edi
  0007f	d9 5c 24 1c	 fstp	 DWORD PTR $T227262[esp+40]
  00083	d9 c9		 fxch	 ST(1)
  00085	d8 0d 00 00 00
	00		 fmul	 DWORD PTR __real@3f000000
  0008b	d9 5c 24 08	 fstp	 DWORD PTR _vExtent$[esp+32]
  0008f	d8 0d 00 00 00
	00		 fmul	 DWORD PTR __real@3f000000
  00095	d9 44 24 1c	 fld	 DWORD PTR $T227262[esp+40]
  00099	d8 0d 00 00 00
	00		 fmul	 DWORD PTR __real@3f000000
  0009f	d9 44 24 08	 fld	 DWORD PTR _vExtent$[esp+32]
  000a3	d8 08		 fmul	 DWORD PTR [eax]
  000a5	d9 5e 0c	 fstp	 DWORD PTR [esi+12]

; 316  : 	Extent[1] = vExtent.y * matScale._22;

  000a8	d9 c9		 fxch	 ST(1)
  000aa	d8 48 14	 fmul	 DWORD PTR [eax+20]
  000ad	d9 5e 10	 fstp	 DWORD PTR [esi+16]

; 317  : 	Extent[2] = vExtent.z * matScale._33;

  000b0	d8 48 28	 fmul	 DWORD PTR [eax+40]

; 318  : 	
; 319  : 	//axis
; 320  : 	Axis[0].x = matRotation._11;

  000b3	8b 44 24 30	 mov	 eax, DWORD PTR _matRotation$[esp+28]
  000b7	d9 5e 14	 fstp	 DWORD PTR [esi+20]
  000ba	8b 08		 mov	 ecx, DWORD PTR [eax]
  000bc	89 4e 18	 mov	 DWORD PTR [esi+24], ecx

; 321  : 	Axis[0].y = matRotation._12;

  000bf	8b 50 04	 mov	 edx, DWORD PTR [eax+4]
  000c2	89 56 1c	 mov	 DWORD PTR [esi+28], edx

; 322  : 	Axis[0].z = matRotation._13;

  000c5	8b 48 08	 mov	 ecx, DWORD PTR [eax+8]
  000c8	89 4e 20	 mov	 DWORD PTR [esi+32], ecx

; 323  : 
; 324  : 	Axis[1].x = matRotation._21;

  000cb	8b 50 10	 mov	 edx, DWORD PTR [eax+16]
  000ce	89 56 24	 mov	 DWORD PTR [esi+36], edx

; 325  : 	Axis[1].y = matRotation._22;

  000d1	8b 48 14	 mov	 ecx, DWORD PTR [eax+20]
  000d4	89 4e 28	 mov	 DWORD PTR [esi+40], ecx

; 326  : 	Axis[1].z = matRotation._23;

  000d7	8b 50 18	 mov	 edx, DWORD PTR [eax+24]
  000da	89 56 2c	 mov	 DWORD PTR [esi+44], edx

; 327  : 
; 328  : 	Axis[2].x = matRotation._31;

  000dd	8b 48 20	 mov	 ecx, DWORD PTR [eax+32]
  000e0	89 4e 30	 mov	 DWORD PTR [esi+48], ecx

; 329  : 	Axis[2].y = matRotation._32;

  000e3	8b 50 24	 mov	 edx, DWORD PTR [eax+36]
  000e6	89 56 34	 mov	 DWORD PTR [esi+52], edx

; 330  : 	Axis[2].z = matRotation._33;

  000e9	8b 40 28	 mov	 eax, DWORD PTR [eax+40]
  000ec	89 46 38	 mov	 DWORD PTR [esi+56], eax
  000ef	5e		 pop	 esi
  000f0	5b		 pop	 ebx

; 331  : }

  000f1	83 c4 18	 add	 esp, 24			; 00000018H
  000f4	c2 14 00	 ret	 20			; 00000014H
?UpdateMartix@BBOX@@QAEXABUD3DXVECTOR3@@0ABUD3DXMATRIX@@11@Z ENDP ; BBOX::UpdateMartix
_TEXT	ENDS
PUBLIC	?IntrSegment3Box3_Test@@YA_NABVSegment3@@ABVBBOX@@@Z ; IntrSegment3Box3_Test
; Function compile flags: /Ogty
;	COMDAT ?IntrSegment3Box3_Test@@YA_NABVSegment3@@ABVBBOX@@@Z
_TEXT	SEGMENT
tv568 = -40						; size = 4
_kWxD$ = -36						; size = 12
_afAWdU$ = -24						; size = 12
_v$227369 = -12						; size = 12
_afADdU$ = -12						; size = 12
tv557 = 8						; size = 4
_rkSegment$ = 8						; size = 4
tv603 = 12						; size = 4
_rkBox$ = 12						; size = 4
?IntrSegment3Box3_Test@@YA_NABVSegment3@@ABVBBOX@@@Z PROC NEAR ; IntrSegment3Box3_Test, COMDAT

; 335  :     float afAWdU[3], afADdU[3], afAWxDdU[3], fRhs;
; 336  : 
; 337  :     D3DXVECTOR3 kDiff = rkSegment.Origin - rkBox.Center;

  00000	8b 54 24 04	 mov	 edx, DWORD PTR _rkSegment$[esp-4]
  00004	d9 02		 fld	 DWORD PTR [edx]
  00006	83 ec 28	 sub	 esp, 40			; 00000028H
  00009	53		 push	 ebx
  0000a	55		 push	 ebp
  0000b	56		 push	 esi
  0000c	57		 push	 edi
  0000d	8b 7c 24 40	 mov	 edi, DWORD PTR _rkBox$[esp+52]
  00011	d8 27		 fsub	 DWORD PTR [edi]
  00013	8d 6f 0c	 lea	 ebp, DWORD PTR [edi+12]
  00016	d9 42 04	 fld	 DWORD PTR [edx+4]
  00019	8b dd		 mov	 ebx, ebp
  0001b	d8 67 04	 fsub	 DWORD PTR [edi+4]
  0001e	8d 4f 1c	 lea	 ecx, DWORD PTR [edi+28]
  00021	d9 42 08	 fld	 DWORD PTR [edx+8]

; 338  : 
; 339  : 	for( int i=0; i<3; ++i )

  00024	33 f6		 xor	 esi, esi
  00026	d8 67 08	 fsub	 DWORD PTR [edi+8]
  00029	8d a4 24 00 00
	00 00		 npad	 7
$L225756:

; 340  : 	{
; 341  : 		afAWdU[i] = fabs( D3DXVec3Dot(&rkSegment.Direction, &rkBox.Axis[i]) );

  00030	d9 42 14	 fld	 DWORD PTR [edx+20]
  00033	d8 49 04	 fmul	 DWORD PTR [ecx+4]
  00036	d9 42 10	 fld	 DWORD PTR [edx+16]
  00039	d8 09		 fmul	 DWORD PTR [ecx]
  0003b	de c1		 faddp	 ST(1), ST(0)
  0003d	d9 42 0c	 fld	 DWORD PTR [edx+12]
  00040	d8 49 fc	 fmul	 DWORD PTR [ecx-4]

; 353  : 		}
; 354  : 	}
; 355  : 
; 356  : 	D3DXVECTOR3 kWxD;
; 357  :     D3DXVec3Cross( &kWxD, &rkSegment.Direction, &kDiff );
; 358  : 	
; 359  :     afAWxDdU[0] = fabs( D3DXVec3Dot(&kWxD, &rkBox.Axis[0]) );
; 360  :   
; 361  : #if __VER >= 15 // __BS_BBOX_ABS_EXTENT
; 362  : 	fRhs = fabs(rkBox.Extent[1])*afAWdU[2] + fabs(rkBox.Extent[2])*afAWdU[1];
; 363  : #else
; 364  : 	fRhs = rkBox.Extent[1]*afAWdU[2] + rkBox.Extent[2]*afAWdU[1];
; 365  : #endif //__BS_BBOX_ABS_EXTENT
; 366  : 
; 367  :     if (afAWxDdU[0] > fRhs)
; 368  :     {
; 369  :         return false;
; 370  :     }
; 371  : 
; 372  :     afAWxDdU[1] = fabs( D3DXVec3Dot(&kWxD, &rkBox.Axis[1]) );
; 373  :    
; 374  : #if __VER >= 15 // __BS_BBOX_ABS_EXTENT
; 375  : 	fRhs = fabs(rkBox.Extent[0])*afAWdU[2] + fabs(rkBox.Extent[2])*afAWdU[0];
; 376  : #else
; 377  : 	fRhs = rkBox.Extent[0]*afAWdU[2] + rkBox.Extent[2]*afAWdU[0];
; 378  : #endif //__BS_BBOX_ABS_EXTENT
; 379  : 
; 380  :     if (afAWxDdU[1] > fRhs)
; 381  :     {
; 382  :         return false;
; 383  :     }
; 384  : 
; 385  :     afAWxDdU[2] = fabs( D3DXVec3Dot(&kWxD, &rkBox.Axis[2]) );
; 386  :    
; 387  : #if __VER >= 15 // __BS_BBOX_ABS_EXTENT
; 388  : 	fRhs = fabs(rkBox.Extent[0])*afAWdU[1] + fabs(rkBox.Extent[1])*afAWdU[0];
; 389  : #else
; 390  : 	fRhs = rkBox.Extent[0]*afAWdU[1] + rkBox.Extent[1]*afAWdU[0];
; 391  : #endif //__BS_BBOX_ABS_EXTENT
; 392  : 
; 393  :     if (afAWxDdU[2] > fRhs)
; 394  :     {
; 395  :         return false;
; 396  :     }
; 397  : 
; 398  :     return true;

  00043	de c1		 faddp	 ST(1), ST(0)
  00045	d9 e1		 fabs
  00047	d9 54 34 20	 fst	 DWORD PTR _afAWdU$[esp+esi+56]
  0004b	d9 c1		 fld	 ST(1)
  0004d	d8 49 04	 fmul	 DWORD PTR [ecx+4]
  00050	d9 c3		 fld	 ST(3)
  00052	d8 09		 fmul	 DWORD PTR [ecx]
  00054	de c1		 faddp	 ST(1), ST(0)
  00056	d9 c4		 fld	 ST(4)
  00058	d8 49 fc	 fmul	 DWORD PTR [ecx-4]
  0005b	de c1		 faddp	 ST(1), ST(0)
  0005d	d9 e1		 fabs
  0005f	d9 54 34 2c	 fst	 DWORD PTR _afADdU$[esp+esi+56]
  00063	d9 03		 fld	 DWORD PTR [ebx]
  00065	d9 e1		 fabs
  00067	d9 ca		 fxch	 ST(2)
  00069	d8 4a 18	 fmul	 DWORD PTR [edx+24]
  0006c	de c2		 faddp	 ST(2), ST(0)
  0006e	de d9		 fcompp
  00070	df e0		 fnstsw	 ax
  00072	f6 c4 41	 test	 ah, 65			; 00000041H
  00075	0f 84 1b 01 00
	00		 je	 $L227471
  0007b	83 c6 04	 add	 esi, 4
  0007e	83 c1 0c	 add	 ecx, 12			; 0000000cH
  00081	83 c3 04	 add	 ebx, 4
  00084	83 fe 0c	 cmp	 esi, 12			; 0000000cH
  00087	7c a7		 jl	 SHORT $L225756
  00089	d9 c0		 fld	 ST(0)
  0008b	d8 4a 10	 fmul	 DWORD PTR [edx+16]
  0008e	d9 c2		 fld	 ST(2)
  00090	d8 4a 14	 fmul	 DWORD PTR [edx+20]
  00093	de e9		 fsubp	 ST(1), ST(0)
  00095	d9 5c 24 2c	 fstp	 DWORD PTR _v$227369[esp+56]
  00099	8b 44 24 2c	 mov	 eax, DWORD PTR _v$227369[esp+56]
  0009d	d9 c2		 fld	 ST(2)
  0009f	89 44 24 14	 mov	 DWORD PTR _kWxD$[esp+56], eax
  000a3	d8 4a 14	 fmul	 DWORD PTR [edx+20]
  000a6	d9 c9		 fxch	 ST(1)
  000a8	d8 4a 0c	 fmul	 DWORD PTR [edx+12]
  000ab	de e9		 fsubp	 ST(1), ST(0)
  000ad	d9 5c 24 30	 fstp	 DWORD PTR _v$227369[esp+60]
  000b1	8b 4c 24 30	 mov	 ecx, DWORD PTR _v$227369[esp+60]
  000b5	89 4c 24 18	 mov	 DWORD PTR _kWxD$[esp+60], ecx
  000b9	d8 4a 0c	 fmul	 DWORD PTR [edx+12]
  000bc	d9 c9		 fxch	 ST(1)
  000be	d8 4a 10	 fmul	 DWORD PTR [edx+16]
  000c1	de e9		 fsubp	 ST(1), ST(0)
  000c3	d9 5c 24 34	 fstp	 DWORD PTR _v$227369[esp+64]
  000c7	8b 54 24 34	 mov	 edx, DWORD PTR _v$227369[esp+64]
  000cb	d9 44 24 18	 fld	 DWORD PTR _kWxD$[esp+60]
  000cf	89 54 24 1c	 mov	 DWORD PTR _kWxD$[esp+64], edx
  000d3	d8 4f 1c	 fmul	 DWORD PTR [edi+28]
  000d6	d9 44 24 1c	 fld	 DWORD PTR _kWxD$[esp+64]
  000da	d8 4f 20	 fmul	 DWORD PTR [edi+32]
  000dd	de c1		 faddp	 ST(1), ST(0)
  000df	d9 44 24 14	 fld	 DWORD PTR _kWxD$[esp+56]
  000e3	d8 4f 18	 fmul	 DWORD PTR [edi+24]
  000e6	de c1		 faddp	 ST(1), ST(0)
  000e8	d9 e1		 fabs
  000ea	d9 47 14	 fld	 DWORD PTR [edi+20]
  000ed	d9 e1		 fabs
  000ef	d9 5c 24 3c	 fstp	 DWORD PTR tv557[esp+52]
  000f3	d9 47 10	 fld	 DWORD PTR [edi+16]
  000f6	d9 e1		 fabs
  000f8	d9 54 24 10	 fst	 DWORD PTR tv568[esp+56]
  000fc	d8 4c 24 28	 fmul	 DWORD PTR _afAWdU$[esp+64]
  00100	d9 44 24 3c	 fld	 DWORD PTR tv557[esp+52]
  00104	d8 4c 24 24	 fmul	 DWORD PTR _afAWdU$[esp+60]
  00108	de c1		 faddp	 ST(1), ST(0)
  0010a	d9 c9		 fxch	 ST(1)
  0010c	de d9		 fcompp
  0010e	df e0		 fnstsw	 ax
  00110	f6 c4 41	 test	 ah, 65			; 00000041H
  00113	0f 84 83 00 00
	00		 je	 $L227473
  00119	d9 44 24 18	 fld	 DWORD PTR _kWxD$[esp+60]
  0011d	d8 4f 28	 fmul	 DWORD PTR [edi+40]
  00120	d9 44 24 1c	 fld	 DWORD PTR _kWxD$[esp+64]
  00124	d8 4f 2c	 fmul	 DWORD PTR [edi+44]
  00127	de c1		 faddp	 ST(1), ST(0)
  00129	d9 44 24 14	 fld	 DWORD PTR _kWxD$[esp+56]
  0012d	d8 4f 24	 fmul	 DWORD PTR [edi+36]
  00130	de c1		 faddp	 ST(1), ST(0)
  00132	d9 e1		 fabs
  00134	d9 45 00	 fld	 DWORD PTR [ebp]
  00137	d9 e1		 fabs
  00139	d9 54 24 40	 fst	 DWORD PTR tv603[esp+52]
  0013d	d8 4c 24 28	 fmul	 DWORD PTR _afAWdU$[esp+64]
  00141	d9 44 24 3c	 fld	 DWORD PTR tv557[esp+52]
  00145	d8 4c 24 20	 fmul	 DWORD PTR _afAWdU$[esp+56]
  00149	de c1		 faddp	 ST(1), ST(0)
  0014b	d9 c9		 fxch	 ST(1)
  0014d	de d9		 fcompp
  0014f	df e0		 fnstsw	 ax
  00151	f6 c4 41	 test	 ah, 65			; 00000041H
  00154	74 46		 je	 SHORT $L227473
  00156	d9 44 24 18	 fld	 DWORD PTR _kWxD$[esp+60]
  0015a	d8 4f 34	 fmul	 DWORD PTR [edi+52]
  0015d	d9 44 24 1c	 fld	 DWORD PTR _kWxD$[esp+64]
  00161	d8 4f 38	 fmul	 DWORD PTR [edi+56]
  00164	de c1		 faddp	 ST(1), ST(0)
  00166	d9 44 24 14	 fld	 DWORD PTR _kWxD$[esp+56]
  0016a	d8 4f 30	 fmul	 DWORD PTR [edi+48]
  0016d	de c1		 faddp	 ST(1), ST(0)
  0016f	d9 e1		 fabs
  00171	d9 44 24 40	 fld	 DWORD PTR tv603[esp+52]
  00175	d8 4c 24 24	 fmul	 DWORD PTR _afAWdU$[esp+60]
  00179	d9 44 24 10	 fld	 DWORD PTR tv568[esp+56]
  0017d	d8 4c 24 20	 fmul	 DWORD PTR _afAWdU$[esp+56]
  00181	de c1		 faddp	 ST(1), ST(0)
  00183	de d9		 fcompp
  00185	df e0		 fnstsw	 ax
  00187	f6 c4 05	 test	 ah, 5
  0018a	7b 10		 jnp	 SHORT $L227473
  0018c	5f		 pop	 edi
  0018d	5e		 pop	 esi
  0018e	5d		 pop	 ebp
  0018f	b0 01		 mov	 al, 1
  00191	5b		 pop	 ebx

; 399  : }

  00192	83 c4 28	 add	 esp, 40			; 00000028H
  00195	c3		 ret	 0
$L227471:

; 342  : 		afADdU[i] = fabs( D3DXVec3Dot(&kDiff, &rkBox.Axis[i]) );
; 343  : 
; 344  : #if __VER >= 15 // __BS_BBOX_ABS_EXTENT
; 345  : 		fRhs = fabs(rkBox.Extent[i]) + rkSegment.Extent*afAWdU[i];
; 346  : #else
; 347  : 		fRhs = rkBox.Extent[i] + rkSegment.Extent*afAWdU[i];
; 348  : #endif //__BS_BBOX_ABS_EXTENT
; 349  : 		
; 350  : 		if (afADdU[i] > fRhs)

  00196	dd d8		 fstp	 ST(0)
  00198	dd d8		 fstp	 ST(0)
  0019a	dd d8		 fstp	 ST(0)
$L227473:
  0019c	5f		 pop	 edi
  0019d	5e		 pop	 esi
  0019e	5d		 pop	 ebp

; 351  : 		{
; 352  : 			return false;

  0019f	32 c0		 xor	 al, al
  001a1	5b		 pop	 ebx

; 399  : }

  001a2	83 c4 28	 add	 esp, 40			; 00000028H
  001a5	c3		 ret	 0
?IntrSegment3Box3_Test@@YA_NABVSegment3@@ABVBBOX@@@Z ENDP ; IntrSegment3Box3_Test
_TEXT	ENDS
END
