 LoginServer

 Timestamp is 525db785 (Tue Oct 15 17:45:41 2013)

 Preferred load address is 00400000

 Start         Length     Name                   Class
 0001:00000000 0003cdb0H .text                   CODE
 0001:0003cdb0 00000cf8H .text$AFX_AUX           CODE
 0001:0003daa8 000001c9H .text$AFX_CMNCTL        CODE
 0001:0003dc71 00000a7aH .text$AFX_COL1          CODE
 0001:0003e6eb 000002e2H .text$AFX_COL2          CODE
 0001:0003e9cd 0000abefH .text$AFX_CORE1         CODE
 0001:000495bc 000034f6H .text$AFX_CORE2         CODE
 0001:0004cab2 00002355H .text$AFX_CORE3         CODE
 0001:0004ee07 00000751H .text$AFX_CORE4         CODE
 0001:0004f558 00003e13H .text$AFX_INIT          CODE
 0001:0005336b 000014d6H .text$AFX_OLE1          CODE
 0001:00054841 000000ecH .text$AFX_TERM          CODE
 0001:00054930 00001e67H .text$x                 CODE
 0001:000567a0 000003d7H .text$yc                CODE
 0001:00056b80 00000088H .text$yd                CODE
 0002:00000000 0000088cH .idata$5                DATA
 0002:00000890 000100c8H .rdata                  DATA
 0002:00010958 00000089H .rdata$debug            DATA
 0002:000109e4 00000298H .rdata$ilfixup          DATA
 0002:00010c7c 0000132cH .rdata$r                DATA
 0002:00011fa8 00000004H .rtc$IAA                DATA
 0002:00011fac 00000004H .rtc$IZZ                DATA
 0002:00011fb0 00000004H .rtc$TAA                DATA
 0002:00011fb4 00000004H .rtc$TZZ                DATA
 0002:00011fb8 000033b8H .xdata$x                DATA
 0002:00015370 00000004H ATL$__a                 DATA
 0002:00015374 00000004H ATL$__z                 DATA
 0002:00015378 00000154H .idata$2                DATA
 0002:000154cc 00000014H .idata$3                DATA
 0002:000154e0 0000088cH .idata$4                DATA
 0002:00015d6c 0000210eH .idata$6                DATA
 0002:00017e7a 00000000H .edata                  DATA
 0003:00000000 00000004H .CRT$XCA                DATA
 0003:00000004 00000004H .CRT$XCA0               DATA
 0003:00000008 00000004H .CRT$XCAA               DATA
 0003:0000000c 0000000cH .CRT$XCC                DATA
 0003:00000018 00000008H .CRT$XCL                DATA
 0003:00000020 00000074H .CRT$XCU                DATA
 0003:00000094 00000004H .CRT$XCZ                DATA
 0003:00000098 00000004H .CRT$XIA                DATA
 0003:0000009c 0000000cH .CRT$XIC                DATA
 0003:000000a8 00000004H .CRT$XIY                DATA
 0003:000000ac 00000004H .CRT$XIZ                DATA
 0003:000000b0 00000004H .CRT$XPA                DATA
 0003:000000b4 00000004H .CRT$XPX                DATA
 0003:000000b8 00000004H .CRT$XPZ                DATA
 0003:000000bc 00000004H .CRT$XTA                DATA
 0003:000000c0 00000004H .CRT$XTB                DATA
 0003:000000c4 00000004H .CRT$XTZ                DATA
 0003:000000d0 0000e5fcH .data                   DATA
 0003:0000e6e0 0004cba4H .bss                    DATA
 0004:00000000 000001f0H .rsrc$01                DATA
 0004:000001f0 00000670H .rsrc$02                DATA

  Address         Publics by Value              Rva+Base     Lib:Object

 0000:00000000       ___safe_se_handler_table   00000000     <absolute>
 0000:00000000       __except_list              00000000     <absolute>
 0000:00000000       ___safe_se_handler_count   00000000     <absolute>
 0000:00000000       ___ImageBase               00400000     <linker-defined>
 0001:00000000       ??2@YAPAXIPAX@Z            00401000 f i DPCoreClient.obj
 0001:00000010       ??3@YAXPAX0@Z              00401010 f i DPCoreClient.obj
 0001:00000020       ??6CAr@@QAEAAV0@K@Z        00401020 f i DPCoreClient.obj
 0001:00000040       ??5CAr@@QAEAAV0@AAE@Z      00401040 f i DPCoreClient.obj
 0001:00000070       ??5CAr@@QAEAAV0@AAK@Z      00401070 f i DPCoreClient.obj
 0001:000000b0       ??5@YAAAVCAr@@AAV0@AA_J@Z  004010b0 f i DPCoreClient.obj
 0001:000000d0       ?Send@CDPMng@@QAEHPAXKK@Z  004010d0 f i DPCoreClient.obj
 0001:000000f0       ?SysMessageHandler@CDPCoreClient@@UAEXPAUDPMSG_GENERIC@@KK@Z 004010f0 f   DPCoreClient.obj
 0001:00000100       ?QueryTickCount@CDPCoreClient@@QAEXXZ 00401100 f   DPCoreClient.obj
 0001:00000210       ?SendPreJoin@CDPCoreClient@@QAEXKPBDK0@Z 00401210 f   DPCoreClient.obj
 0001:00000340       ?SendLeave@CDPCoreClient@@QAEXK@Z 00401340 f   DPCoreClient.obj
 0001:00000420       ??0?$pair@$$CBKP8CDPCoreClient@@AEXAAVCAr@@@Z@std@@QAE@ABKABQ8CDPCoreClient@@AEXAAVCAr@@@Z@Z 00401420 f i DPCoreClient.obj
 0001:00000440       ??R?$less@K@std@@QBE_NABK0@Z 00401440 f i DPCoreClient.obj
 0001:00000460       ?_Isnil@?$_Tree@V?$_Tmap_traits@KP8CDPCoreClient@@AEXAAVCAr@@@ZU?$less@K@std@@V?$allocator@U?$pair@$$CBKP8CDPCoreClient@@AEXAAVCAr@@@Z@std@@@4@$0A@@std@@@std@@KAAADPAU_Node@?$_Tree_nod@V?$_Tmap_traits@KP8CDPCoreClient@@AEXAAVCAr@@@ZU?$less@K@std@@V?$allocator@U?$pair@$$CBKP8CDPCoreClient@@AEXAAVCAr@@@Z@std@@@4@$0A@@std@@@2@@Z 00401460 f i DPCoreClient.obj
 0001:00000470       ?_Left@?$_Tree@V?$_Tmap_traits@KP8CDPCoreClient@@AEXAAVCAr@@@ZU?$less@K@std@@V?$allocator@U?$pair@$$CBKP8CDPCoreClient@@AEXAAVCAr@@@Z@std@@@4@$0A@@std@@@std@@KAAAPAU_Node@?$_Tree_nod@V?$_Tmap_traits@KP8CDPCoreClient@@AEXAAVCAr@@@ZU?$less@K@std@@V?$allocator@U?$pair@$$CBKP8CDPCoreClient@@AEXAAVCAr@@@Z@std@@@4@$0A@@std@@@2@PAU342@@Z 00401470 f i DPCoreClient.obj
 0001:00000480       ?_Right@?$_Tree@V?$_Tmap_traits@KP8CDPCoreClient@@AEXAAVCAr@@@ZU?$less@K@std@@V?$allocator@U?$pair@$$CBKP8CDPCoreClient@@AEXAAVCAr@@@Z@std@@@4@$0A@@std@@@std@@KAAAPAU_Node@?$_Tree_nod@V?$_Tmap_traits@KP8CDPCoreClient@@AEXAAVCAr@@@ZU?$less@K@std@@V?$allocator@U?$pair@$$CBKP8CDPCoreClient@@AEXAAVCAr@@@Z@std@@@4@$0A@@std@@@2@PAU342@@Z 00401480 f i DPCoreClient.obj
 0001:00000490       ?_Kfn@?$_Tmap_traits@KP8CDPCoreClient@@AEXAAVCAr@@@ZU?$less@K@std@@V?$allocator@U?$pair@$$CBKP8CDPCoreClient@@AEXAAVCAr@@@Z@std@@@4@$0A@@std@@SAABKABU?$pair@$$CBKP8CDPCoreClient@@AEXAAVCAr@@@Z@2@@Z 00401490 f i DPCoreClient.obj
 0001:000004a0       ??0?$allocator@U?$pair@$$CBKP8CDPCoreClient@@AEXAAVCAr@@@Z@std@@@std@@QAE@XZ 004014a0 f i DPCoreClient.obj
 0001:000004b0       ??8const_iterator@?$_Tree@V?$_Tmap_traits@KP8CDPCoreClient@@AEXAAVCAr@@@ZU?$less@K@std@@V?$allocator@U?$pair@$$CBKP8CDPCoreClient@@AEXAAVCAr@@@Z@std@@@4@$0A@@std@@@std@@QBE_NABV012@@Z 004014b0 f i DPCoreClient.obj
 0001:000004c0       ?_Mynode@const_iterator@?$_Tree@V?$_Tmap_traits@KP8CDPCoreClient@@AEXAAVCAr@@@ZU?$less@K@std@@V?$allocator@U?$pair@$$CBKP8CDPCoreClient@@AEXAAVCAr@@@Z@std@@@4@$0A@@std@@@std@@QBEPAU_Node@?$_Tree_nod@V?$_Tmap_traits@KP8CDPCoreClient@@AEXAAVCAr@@@ZU?$less@K@std@@V?$allocator@U?$pair@$$CBKP8CDPCoreClient@@AEXAAVCAr@@@Z@std@@@4@$0A@@std@@@3@XZ 004014c0 f i DPCoreClient.obj
 0001:000004d0       ??0?$pair@Viterator@?$_Tree@V?$_Tmap_traits@KP8CDPCoreClient@@AEXAAVCAr@@@ZU?$less@K@std@@V?$allocator@U?$pair@$$CBKP8CDPCoreClient@@AEXAAVCAr@@@Z@std@@@4@$0A@@std@@@std@@_N@std@@QAE@ABViterator@?$_Tree@V?$_Tmap_traits@KP8CDPCoreClient@@AEXAAVCAr@@@ZU?$less@K@std@@V?$allocator@U?$pair@$$CBKP8CDPCoreClient@@AEXAAVCAr@@@Z@std@@@4@$0A@@std@@@1@AB_N@Z 004014d0 f i DPCoreClient.obj
 0001:000004f0       ?_Color@?$_Tree@V?$_Tmap_traits@KP8CDPCoreClient@@AEXAAVCAr@@@ZU?$less@K@std@@V?$allocator@U?$pair@$$CBKP8CDPCoreClient@@AEXAAVCAr@@@Z@std@@@4@$0A@@std@@@std@@KAAADPAU_Node@?$_Tree_nod@V?$_Tmap_traits@KP8CDPCoreClient@@AEXAAVCAr@@@ZU?$less@K@std@@V?$allocator@U?$pair@$$CBKP8CDPCoreClient@@AEXAAVCAr@@@Z@std@@@4@$0A@@std@@@2@@Z 004014f0 f i DPCoreClient.obj
 0001:00000500       ?_Parent@?$_Tree@V?$_Tmap_traits@KP8CDPCoreClient@@AEXAAVCAr@@@ZU?$less@K@std@@V?$allocator@U?$pair@$$CBKP8CDPCoreClient@@AEXAAVCAr@@@Z@std@@@4@$0A@@std@@@std@@KAAAPAU_Node@?$_Tree_nod@V?$_Tmap_traits@KP8CDPCoreClient@@AEXAAVCAr@@@ZU?$less@K@std@@V?$allocator@U?$pair@$$CBKP8CDPCoreClient@@AEXAAVCAr@@@Z@std@@@4@$0A@@std@@@2@PAU342@@Z 00401500 f i DPCoreClient.obj
 0001:00000510       ?_Myval@?$_Tree@V?$_Tmap_traits@KP8CDPCoreClient@@AEXAAVCAr@@@ZU?$less@K@std@@V?$allocator@U?$pair@$$CBKP8CDPCoreClient@@AEXAAVCAr@@@Z@std@@@4@$0A@@std@@@std@@KAAAU?$pair@$$CBKP8CDPCoreClient@@AEXAAVCAr@@@Z@2@PAU_Node@?$_Tree_nod@V?$_Tmap_traits@KP8CDPCoreClient@@AEXAAVCAr@@@ZU?$less@K@std@@V?$allocator@U?$pair@$$CBKP8CDPCoreClient@@AEXAAVCAr@@@Z@std@@@4@$0A@@std@@@2@@Z 00401510 f i DPCoreClient.obj
 0001:00000520       ?_Lmost@?$_Tree@V?$_Tmap_traits@KP8CDPCoreClient@@AEXAAVCAr@@@ZU?$less@K@std@@V?$allocator@U?$pair@$$CBKP8CDPCoreClient@@AEXAAVCAr@@@Z@std@@@4@$0A@@std@@@std@@IAEAAPAU_Node@?$_Tree_nod@V?$_Tmap_traits@KP8CDPCoreClient@@AEXAAVCAr@@@ZU?$less@K@std@@V?$allocator@U?$pair@$$CBKP8CDPCoreClient@@AEXAAVCAr@@@Z@std@@@4@$0A@@std@@@2@XZ 00401520 f i DPCoreClient.obj
 0001:00000530       ?_Rmost@?$_Tree@V?$_Tmap_traits@KP8CDPCoreClient@@AEXAAVCAr@@@ZU?$less@K@std@@V?$allocator@U?$pair@$$CBKP8CDPCoreClient@@AEXAAVCAr@@@Z@std@@@4@$0A@@std@@@std@@IAEAAPAU_Node@?$_Tree_nod@V?$_Tmap_traits@KP8CDPCoreClient@@AEXAAVCAr@@@ZU?$less@K@std@@V?$allocator@U?$pair@$$CBKP8CDPCoreClient@@AEXAAVCAr@@@Z@std@@@4@$0A@@std@@@2@XZ 00401530 f i DPCoreClient.obj
 0001:00000540       ??0?$allocator@U?$pair@$$CBKP8CDPCoreClient@@AEXAAVCAr@@@Z@std@@@std@@QAE@ABV01@@Z 00401540 f i DPCoreClient.obj
 0001:00000550       ?deallocate@?$allocator@U_Node@?$_Tree_nod@V?$_Tmap_traits@KP8CDPCoreClient@@AEXAAVCAr@@@ZU?$less@K@std@@V?$allocator@U?$pair@$$CBKP8CDPCoreClient@@AEXAAVCAr@@@Z@std@@@4@$0A@@std@@@std@@@std@@QAEXPAU_Node@?$_Tree_nod@V?$_Tmap_traits@KP8CDPCoreClient@@AEXAAVCAr@@@ZU?$less@K@std@@V?$allocator@U?$pair@$$CBKP8CDPCoreClient@@AEXAAVCAr@@@Z@std@@@4@$0A@@std@@@2@I@Z 00401550 f i DPCoreClient.obj
 0001:00000560       ??0const_iterator@?$_Tree@V?$_Tmap_traits@KP8CDPCoreClient@@AEXAAVCAr@@@ZU?$less@K@std@@V?$allocator@U?$pair@$$CBKP8CDPCoreClient@@AEXAAVCAr@@@Z@std@@@4@$0A@@std@@@std@@QAE@PAU_Node@?$_Tree_nod@V?$_Tmap_traits@KP8CDPCoreClient@@AEXAAVCAr@@@ZU?$less@K@std@@V?$allocator@U?$pair@$$CBKP8CDPCoreClient@@AEXAAVCAr@@@Z@std@@@4@$0A@@std@@@2@@Z 00401560 f i DPCoreClient.obj
 0001:00000570       ??Dconst_iterator@?$_Tree@V?$_Tmap_traits@KP8CDPCoreClient@@AEXAAVCAr@@@ZU?$less@K@std@@V?$allocator@U?$pair@$$CBKP8CDPCoreClient@@AEXAAVCAr@@@Z@std@@@4@$0A@@std@@@std@@QBEABU?$pair@$$CBKP8CDPCoreClient@@AEXAAVCAr@@@Z@2@XZ 00401570 f i DPCoreClient.obj
 0001:00000580       ??0?$allocator@D@std@@QAE@XZ 00401580 f i DPCoreClient.obj
 0001:00000590       ?_Root@?$_Tree@V?$_Tmap_traits@KP8CDPCoreClient@@AEXAAVCAr@@@ZU?$less@K@std@@V?$allocator@U?$pair@$$CBKP8CDPCoreClient@@AEXAAVCAr@@@Z@std@@@4@$0A@@std@@@std@@IBEAAPAU_Node@?$_Tree_nod@V?$_Tmap_traits@KP8CDPCoreClient@@AEXAAVCAr@@@ZU?$less@K@std@@V?$allocator@U?$pair@$$CBKP8CDPCoreClient@@AEXAAVCAr@@@Z@std@@@4@$0A@@std@@@2@XZ 00401590 f i DPCoreClient.obj
 0001:000005a0       ?max_size@?$allocator@U?$pair@$$CBKP8CDPCoreClient@@AEXAAVCAr@@@Z@std@@@std@@QBEIXZ 004015a0 f i DPCoreClient.obj
 0001:000005b0       ??0_Node@?$_Tree_nod@V?$_Tmap_traits@KP8CDPCoreClient@@AEXAAVCAr@@@ZU?$less@K@std@@V?$allocator@U?$pair@$$CBKP8CDPCoreClient@@AEXAAVCAr@@@Z@std@@@4@$0A@@std@@@std@@QAE@PAU012@00ABU?$pair@$$CBKP8CDPCoreClient@@AEXAAVCAr@@@Z@2@D@Z 004015b0 f i DPCoreClient.obj
 0001:000005f0       ?_Max@?$_Tree@V?$_Tmap_traits@KP8CDPCoreClient@@AEXAAVCAr@@@ZU?$less@K@std@@V?$allocator@U?$pair@$$CBKP8CDPCoreClient@@AEXAAVCAr@@@Z@std@@@4@$0A@@std@@@std@@KAPAU_Node@?$_Tree_nod@V?$_Tmap_traits@KP8CDPCoreClient@@AEXAAVCAr@@@ZU?$less@K@std@@V?$allocator@U?$pair@$$CBKP8CDPCoreClient@@AEXAAVCAr@@@Z@std@@@4@$0A@@std@@@2@PAU342@@Z 004015f0 f i DPCoreClient.obj
 0001:00000610       ?_Min@?$_Tree@V?$_Tmap_traits@KP8CDPCoreClient@@AEXAAVCAr@@@ZU?$less@K@std@@V?$allocator@U?$pair@$$CBKP8CDPCoreClient@@AEXAAVCAr@@@Z@std@@@4@$0A@@std@@@std@@KAPAU_Node@?$_Tree_nod@V?$_Tmap_traits@KP8CDPCoreClient@@AEXAAVCAr@@@ZU?$less@K@std@@V?$allocator@U?$pair@$$CBKP8CDPCoreClient@@AEXAAVCAr@@@Z@std@@@4@$0A@@std@@@2@PAU342@@Z 00401610 f i DPCoreClient.obj
 0001:00000630       ??0?$_Tmap_traits@KP8CDPCoreClient@@AEXAAVCAr@@@ZU?$less@K@std@@V?$allocator@U?$pair@$$CBKP8CDPCoreClient@@AEXAAVCAr@@@Z@std@@@4@$0A@@std@@QAE@U?$less@K@1@@Z 00401630 f i DPCoreClient.obj
 0001:00000640       ?_Inc@const_iterator@?$_Tree@V?$_Tmap_traits@KP8CDPCoreClient@@AEXAAVCAr@@@ZU?$less@K@std@@V?$allocator@U?$pair@$$CBKP8CDPCoreClient@@AEXAAVCAr@@@Z@std@@@4@$0A@@std@@@std@@QAEXXZ 00401640 f i DPCoreClient.obj
 0001:000006a0       ??$_Destroy@PAU_Node@?$_Tree_nod@V?$_Tmap_traits@KP8CDPCoreClient@@AEXAAVCAr@@@ZU?$less@K@std@@V?$allocator@U?$pair@$$CBKP8CDPCoreClient@@AEXAAVCAr@@@Z@std@@@4@$0A@@std@@@std@@@std@@YAXPAPAU_Node@?$_Tree_nod@V?$_Tmap_traits@KP8CDPCoreClient@@AEXAAVCAr@@@ZU?$less@K@std@@V?$allocator@U?$pair@$$CBKP8CDPCoreClient@@AEXAAVCAr@@@Z@std@@@4@$0A@@std@@@0@@Z 004016a0 f i DPCoreClient.obj
 0001:000006b0       ??$swap@D@std@@YAXAAD0@Z   004016b0 f i DPCoreClient.obj
 0001:000006d0       ??$?0U?$pair@$$CBKP8CDPCoreClient@@AEXAAVCAr@@@Z@std@@@?$allocator@PAU_Node@?$_Tree_nod@V?$_Tmap_traits@KP8CDPCoreClient@@AEXAAVCAr@@@ZU?$less@K@std@@V?$allocator@U?$pair@$$CBKP8CDPCoreClient@@AEXAAVCAr@@@Z@std@@@4@$0A@@std@@@std@@@std@@QAE@ABV?$allocator@U?$pair@$$CBKP8CDPCoreClient@@AEXAAVCAr@@@Z@std@@@1@@Z 004016d0 f i DPCoreClient.obj
 0001:000006e0       ??$_Allocate@U_Node@?$_Tree_nod@V?$_Tmap_traits@KP8CDPCoreClient@@AEXAAVCAr@@@ZU?$less@K@std@@V?$allocator@U?$pair@$$CBKP8CDPCoreClient@@AEXAAVCAr@@@Z@std@@@4@$0A@@std@@@std@@@std@@YAPAU_Node@?$_Tree_nod@V?$_Tmap_traits@KP8CDPCoreClient@@AEXAAVCAr@@@ZU?$less@K@std@@V?$allocator@U?$pair@$$CBKP8CDPCoreClient@@AEXAAVCAr@@@Z@std@@@4@$0A@@std@@@0@IPAU120@@Z 004016e0 f i DPCoreClient.obj
 0001:00000700       ??$?0U?$pair@$$CBKP8CDPCoreClient@@AEXAAVCAr@@@Z@std@@@?$allocator@U_Node@?$_Tree_nod@V?$_Tmap_traits@KP8CDPCoreClient@@AEXAAVCAr@@@ZU?$less@K@std@@V?$allocator@U?$pair@$$CBKP8CDPCoreClient@@AEXAAVCAr@@@Z@std@@@4@$0A@@std@@@std@@@std@@QAE@ABV?$allocator@U?$pair@$$CBKP8CDPCoreClient@@AEXAAVCAr@@@Z@std@@@1@@Z 00401700 f i DPCoreClient.obj
 0001:00000710       ??$_Destroy@U_Node@?$_Tree_nod@V?$_Tmap_traits@KP8CDPCoreClient@@AEXAAVCAr@@@ZU?$less@K@std@@V?$allocator@U?$pair@$$CBKP8CDPCoreClient@@AEXAAVCAr@@@Z@std@@@4@$0A@@std@@@std@@@std@@YAXPAU_Node@?$_Tree_nod@V?$_Tmap_traits@KP8CDPCoreClient@@AEXAAVCAr@@@ZU?$less@K@std@@V?$allocator@U?$pair@$$CBKP8CDPCoreClient@@AEXAAVCAr@@@Z@std@@@4@$0A@@std@@@0@@Z 00401710 f i DPCoreClient.obj
 0001:00000720       ??$_Construct@PAU_Node@?$_Tree_nod@V?$_Tmap_traits@KP8CDPCoreClient@@AEXAAVCAr@@@ZU?$less@K@std@@V?$allocator@U?$pair@$$CBKP8CDPCoreClient@@AEXAAVCAr@@@Z@std@@@4@$0A@@std@@@std@@PAU123@@std@@YAXPAPAU_Node@?$_Tree_nod@V?$_Tmap_traits@KP8CDPCoreClient@@AEXAAVCAr@@@ZU?$less@K@std@@V?$allocator@U?$pair@$$CBKP8CDPCoreClient@@AEXAAVCAr@@@Z@std@@@4@$0A@@std@@@0@ABQAU120@@Z 00401720 f i DPCoreClient.obj
 0001:00000740       ?assign@?$char_traits@D@std@@SAXAADABD@Z 00401740 f i DPCoreClient.obj
 0001:00000750       ?length@?$char_traits@D@std@@SAIPBD@Z 00401750 f i DPCoreClient.obj
 0001:00000770       ?copy@?$char_traits@D@std@@SAPADPADPBDI@Z 00401770 f i DPCoreClient.obj
 0001:000007a0       ?move@?$char_traits@D@std@@SAPADPADPBDI@Z 004017a0 f i DPCoreClient.obj
 0001:000007b0       ?Enter@CMclCritSec@@QAEXXZ 004017b0 f i DPCoreClient.obj
 0001:000007c0       ?Leave@CMclCritSec@@QAEXXZ 004017c0 f i DPCoreClient.obj
 0001:000007d0       ??0CMclAutoLock@@QAE@AAVCMclCritSec@@@Z 004017d0 f i DPCoreClient.obj
 0001:000007f0       ??1CMclAutoLock@@QAE@XZ    004017f0 f i DPCoreClient.obj
 0001:00000800       ?Start@CTickCount@@QAEXAB_J@Z 00401800 f i DPCoreClient.obj
 0001:00000830       ?size@?$basic_string@DU?$char_traits@D@std@@V?$allocator@D@2@@std@@QBEIXZ 00401830 f i DPCoreClient.obj
 0001:00000840       ?_Myptr@?$basic_string@DU?$char_traits@D@std@@V?$allocator@D@2@@std@@QBEPBDXZ 00401840 f i DPCoreClient.obj
 0001:00000850       ??0?$allocator@D@std@@QAE@ABV01@@Z 00401850 f i DPCoreClient.obj
 0001:00000860       ?_Myptr@?$basic_string@DU?$char_traits@D@std@@V?$allocator@D@2@@std@@QAEPADXZ 00401860 f i DPCoreClient.obj
 0001:00000870       ?deallocate@?$allocator@D@std@@QAEXPADI@Z 00401870 f i DPCoreClient.obj
 0001:00000880       ?_Inside@?$basic_string@DU?$char_traits@D@std@@V?$allocator@D@2@@std@@IAE_NPBD@Z 00401880 f i DPCoreClient.obj
 0001:000008c0       ?max_size@?$allocator@D@std@@QBEIXZ 004018c0 f i DPCoreClient.obj
 0001:000008d0       ??$_Allocate@D@std@@YAPADIPAD@Z 004018d0 f i DPCoreClient.obj
 0001:000008e0       ?OnQueryTickCount@CDPCoreClient@@QAEXAAVCAr@@@Z 004018e0 f   DPCoreClient.obj
 0001:00000960       ?OnPreJoin@CDPCoreClient@@AAEXAAVCAr@@@Z 00401960 f   DPCoreClient.obj
 0001:00000ac0       ?OnQueryRemovePlayer@CDPCoreClient@@AAEXAAVCAr@@@Z 00401ac0 f   DPCoreClient.obj
 0001:00000b90       ??9const_iterator@?$_Tree@V?$_Tmap_traits@KP8CDPCoreClient@@AEXAAVCAr@@@ZU?$less@K@std@@V?$allocator@U?$pair@$$CBKP8CDPCoreClient@@AEXAAVCAr@@@Z@std@@@4@$0A@@std@@@std@@QBE_NABV012@@Z 00401b90 f i DPCoreClient.obj
 0001:00000bb0       ?_Key@?$_Tree@V?$_Tmap_traits@KP8CDPCoreClient@@AEXAAVCAr@@@ZU?$less@K@std@@V?$allocator@U?$pair@$$CBKP8CDPCoreClient@@AEXAAVCAr@@@Z@std@@@4@$0A@@std@@@std@@KAABKPAU_Node@?$_Tree_nod@V?$_Tmap_traits@KP8CDPCoreClient@@AEXAAVCAr@@@ZU?$less@K@std@@V?$allocator@U?$pair@$$CBKP8CDPCoreClient@@AEXAAVCAr@@@Z@std@@@4@$0A@@std@@@2@@Z 00401bb0 f i DPCoreClient.obj
 0001:00000bc0       ?_Root@?$_Tree@V?$_Tmap_traits@KP8CDPCoreClient@@AEXAAVCAr@@@ZU?$less@K@std@@V?$allocator@U?$pair@$$CBKP8CDPCoreClient@@AEXAAVCAr@@@Z@std@@@4@$0A@@std@@@std@@IAEAAPAU_Node@?$_Tree_nod@V?$_Tmap_traits@KP8CDPCoreClient@@AEXAAVCAr@@@ZU?$less@K@std@@V?$allocator@U?$pair@$$CBKP8CDPCoreClient@@AEXAAVCAr@@@Z@std@@@4@$0A@@std@@@2@XZ 00401bc0 f i DPCoreClient.obj
 0001:00000bd0       ??0iterator@?$_Tree@V?$_Tmap_traits@KP8CDPCoreClient@@AEXAAVCAr@@@ZU?$less@K@std@@V?$allocator@U?$pair@$$CBKP8CDPCoreClient@@AEXAAVCAr@@@Z@std@@@4@$0A@@std@@@std@@QAE@PAU_Node@?$_Tree_nod@V?$_Tmap_traits@KP8CDPCoreClient@@AEXAAVCAr@@@ZU?$less@K@std@@V?$allocator@U?$pair@$$CBKP8CDPCoreClient@@AEXAAVCAr@@@Z@std@@@4@$0A@@std@@@2@@Z 00401bd0 f i DPCoreClient.obj
 0001:00000be0       ??Diterator@?$_Tree@V?$_Tmap_traits@KP8CDPCoreClient@@AEXAAVCAr@@@ZU?$less@K@std@@V?$allocator@U?$pair@$$CBKP8CDPCoreClient@@AEXAAVCAr@@@Z@std@@@4@$0A@@std@@@std@@QBEAAU?$pair@$$CBKP8CDPCoreClient@@AEXAAVCAr@@@Z@2@XZ 00401be0 f i DPCoreClient.obj
 0001:00000bf0       ?max_size@?$_Tree@V?$_Tmap_traits@KP8CDPCoreClient@@AEXAAVCAr@@@ZU?$less@K@std@@V?$allocator@U?$pair@$$CBKP8CDPCoreClient@@AEXAAVCAr@@@Z@std@@@4@$0A@@std@@@std@@QBEIXZ 00401bf0 f i DPCoreClient.obj
 0001:00000c00       ?_Lbound@?$_Tree@V?$_Tmap_traits@KP8CDPCoreClient@@AEXAAVCAr@@@ZU?$less@K@std@@V?$allocator@U?$pair@$$CBKP8CDPCoreClient@@AEXAAVCAr@@@Z@std@@@4@$0A@@std@@@std@@IBEPAU_Node@?$_Tree_nod@V?$_Tmap_traits@KP8CDPCoreClient@@AEXAAVCAr@@@ZU?$less@K@std@@V?$allocator@U?$pair@$$CBKP8CDPCoreClient@@AEXAAVCAr@@@Z@std@@@4@$0A@@std@@@2@ABK@Z 00401c00 f i DPCoreClient.obj
 0001:00000c30       ?_Lrotate@?$_Tree@V?$_Tmap_traits@KP8CDPCoreClient@@AEXAAVCAr@@@ZU?$less@K@std@@V?$allocator@U?$pair@$$CBKP8CDPCoreClient@@AEXAAVCAr@@@Z@std@@@4@$0A@@std@@@std@@IAEXPAU_Node@?$_Tree_nod@V?$_Tmap_traits@KP8CDPCoreClient@@AEXAAVCAr@@@ZU?$less@K@std@@V?$allocator@U?$pair@$$CBKP8CDPCoreClient@@AEXAAVCAr@@@Z@std@@@4@$0A@@std@@@2@@Z 00401c30 f i DPCoreClient.obj
 0001:00000c90       ?_Rrotate@?$_Tree@V?$_Tmap_traits@KP8CDPCoreClient@@AEXAAVCAr@@@ZU?$less@K@std@@V?$allocator@U?$pair@$$CBKP8CDPCoreClient@@AEXAAVCAr@@@Z@std@@@4@$0A@@std@@@std@@IAEXPAU_Node@?$_Tree_nod@V?$_Tmap_traits@KP8CDPCoreClient@@AEXAAVCAr@@@ZU?$less@K@std@@V?$allocator@U?$pair@$$CBKP8CDPCoreClient@@AEXAAVCAr@@@Z@std@@@4@$0A@@std@@@2@@Z 00401c90 f i DPCoreClient.obj
 0001:00000cf0       ?destroy@?$allocator@PAU_Node@?$_Tree_nod@V?$_Tmap_traits@KP8CDPCoreClient@@AEXAAVCAr@@@ZU?$less@K@std@@V?$allocator@U?$pair@$$CBKP8CDPCoreClient@@AEXAAVCAr@@@Z@std@@@4@$0A@@std@@@std@@@std@@QAEXPAPAU_Node@?$_Tree_nod@V?$_Tmap_traits@KP8CDPCoreClient@@AEXAAVCAr@@@ZU?$less@K@std@@V?$allocator@U?$pair@$$CBKP8CDPCoreClient@@AEXAAVCAr@@@Z@std@@@4@$0A@@std@@@2@@Z 00401cf0 f i DPCoreClient.obj
 0001:00000d00       ?allocate@?$allocator@U_Node@?$_Tree_nod@V?$_Tmap_traits@KP8CDPCoreClient@@AEXAAVCAr@@@ZU?$less@K@std@@V?$allocator@U?$pair@$$CBKP8CDPCoreClient@@AEXAAVCAr@@@Z@std@@@4@$0A@@std@@@std@@@std@@QAEPAU_Node@?$_Tree_nod@V?$_Tmap_traits@KP8CDPCoreClient@@AEXAAVCAr@@@ZU?$less@K@std@@V?$allocator@U?$pair@$$CBKP8CDPCoreClient@@AEXAAVCAr@@@Z@std@@@4@$0A@@std@@@2@I@Z 00401d00 f i DPCoreClient.obj
 0001:00000d20       ?_Dec@const_iterator@?$_Tree@V?$_Tmap_traits@KP8CDPCoreClient@@AEXAAVCAr@@@ZU?$less@K@std@@V?$allocator@U?$pair@$$CBKP8CDPCoreClient@@AEXAAVCAr@@@Z@std@@@4@$0A@@std@@@std@@QAEXXZ 00401d20 f i DPCoreClient.obj
 0001:00000d80       ??0?$_Tree_nod@V?$_Tmap_traits@KP8CDPCoreClient@@AEXAAVCAr@@@ZU?$less@K@std@@V?$allocator@U?$pair@$$CBKP8CDPCoreClient@@AEXAAVCAr@@@Z@std@@@4@$0A@@std@@@std@@IAE@ABU?$less@K@1@V?$allocator@U?$pair@$$CBKP8CDPCoreClient@@AEXAAVCAr@@@Z@std@@@1@@Z 00401d80 f i DPCoreClient.obj
 0001:00000d90       ?destroy@?$allocator@U_Node@?$_Tree_nod@V?$_Tmap_traits@KP8CDPCoreClient@@AEXAAVCAr@@@ZU?$less@K@std@@V?$allocator@U?$pair@$$CBKP8CDPCoreClient@@AEXAAVCAr@@@Z@std@@@4@$0A@@std@@@std@@@std@@QAEXPAU_Node@?$_Tree_nod@V?$_Tmap_traits@KP8CDPCoreClient@@AEXAAVCAr@@@ZU?$less@K@std@@V?$allocator@U?$pair@$$CBKP8CDPCoreClient@@AEXAAVCAr@@@Z@std@@@4@$0A@@std@@@2@@Z 00401d90 f i DPCoreClient.obj
 0001:00000da0       ?construct@?$allocator@PAU_Node@?$_Tree_nod@V?$_Tmap_traits@KP8CDPCoreClient@@AEXAAVCAr@@@ZU?$less@K@std@@V?$allocator@U?$pair@$$CBKP8CDPCoreClient@@AEXAAVCAr@@@Z@std@@@4@$0A@@std@@@std@@@std@@QAEXPAPAU_Node@?$_Tree_nod@V?$_Tmap_traits@KP8CDPCoreClient@@AEXAAVCAr@@@ZU?$less@K@std@@V?$allocator@U?$pair@$$CBKP8CDPCoreClient@@AEXAAVCAr@@@Z@std@@@4@$0A@@std@@@2@ABQAU342@@Z 00401da0 f i DPCoreClient.obj
 0001:00000dc0       ??Econst_iterator@?$_Tree@V?$_Tmap_traits@KP8CDPCoreClient@@AEXAAVCAr@@@ZU?$less@K@std@@V?$allocator@U?$pair@$$CBKP8CDPCoreClient@@AEXAAVCAr@@@Z@std@@@4@$0A@@std@@@std@@QAEAAV012@XZ 00401dc0 f i DPCoreClient.obj
 0001:00000dd0       ??0?$_String_val@DV?$allocator@D@std@@@std@@IAE@V?$allocator@D@1@@Z 00401dd0 f i DPCoreClient.obj
 0001:00000de0       ?_Eos@?$basic_string@DU?$char_traits@D@std@@V?$allocator@D@2@@std@@IAEXI@Z 00401de0 f i DPCoreClient.obj
 0001:00000e00       ?max_size@?$basic_string@DU?$char_traits@D@std@@V?$allocator@D@2@@std@@QBEIXZ 00401e00 f i DPCoreClient.obj
 0001:00000e10       ?allocate@?$allocator@D@std@@QAEPADI@Z 00401e10 f i DPCoreClient.obj
 0001:00000e20       ?end@?$_Tree@V?$_Tmap_traits@KP8CDPCoreClient@@AEXAAVCAr@@@ZU?$less@K@std@@V?$allocator@U?$pair@$$CBKP8CDPCoreClient@@AEXAAVCAr@@@Z@std@@@4@$0A@@std@@@std@@QAE?AViterator@12@XZ 00401e20 f i DPCoreClient.obj
 0001:00000e30       ??Citerator@?$_Tree@V?$_Tmap_traits@KP8CDPCoreClient@@AEXAAVCAr@@@ZU?$less@K@std@@V?$allocator@U?$pair@$$CBKP8CDPCoreClient@@AEXAAVCAr@@@Z@std@@@4@$0A@@std@@@std@@QBEPAU?$pair@$$CBKP8CDPCoreClient@@AEXAAVCAr@@@Z@2@XZ 00401e30 f i DPCoreClient.obj
 0001:00000e40       ?begin@?$_Tree@V?$_Tmap_traits@KP8CDPCoreClient@@AEXAAVCAr@@@ZU?$less@K@std@@V?$allocator@U?$pair@$$CBKP8CDPCoreClient@@AEXAAVCAr@@@Z@std@@@4@$0A@@std@@@std@@QAE?AViterator@12@XZ 00401e40 f i DPCoreClient.obj
 0001:00000e50       ?lower_bound@?$_Tree@V?$_Tmap_traits@KP8CDPCoreClient@@AEXAAVCAr@@@ZU?$less@K@std@@V?$allocator@U?$pair@$$CBKP8CDPCoreClient@@AEXAAVCAr@@@Z@std@@@4@$0A@@std@@@std@@QAE?AViterator@12@ABK@Z 00401e50 f i DPCoreClient.obj
 0001:00000e90       ?_Buynode@?$_Tree@V?$_Tmap_traits@KP8CDPCoreClient@@AEXAAVCAr@@@ZU?$less@K@std@@V?$allocator@U?$pair@$$CBKP8CDPCoreClient@@AEXAAVCAr@@@Z@std@@@4@$0A@@std@@@std@@IAEPAU_Node@?$_Tree_nod@V?$_Tmap_traits@KP8CDPCoreClient@@AEXAAVCAr@@@ZU?$less@K@std@@V?$allocator@U?$pair@$$CBKP8CDPCoreClient@@AEXAAVCAr@@@Z@std@@@4@$0A@@std@@@2@PAU342@00ABU?$pair@$$CBKP8CDPCoreClient@@AEXAAVCAr@@@Z@2@D@Z 00401e90 f i DPCoreClient.obj
 0001:00000ed0       ??Fconst_iterator@?$_Tree@V?$_Tmap_traits@KP8CDPCoreClient@@AEXAAVCAr@@@ZU?$less@K@std@@V?$allocator@U?$pair@$$CBKP8CDPCoreClient@@AEXAAVCAr@@@Z@std@@@4@$0A@@std@@@std@@QAEAAV012@XZ 00401ed0 f i DPCoreClient.obj
 0001:00000ee0       ?_Buynode@?$_Tree@V?$_Tmap_traits@KP8CDPCoreClient@@AEXAAVCAr@@@ZU?$less@K@std@@V?$allocator@U?$pair@$$CBKP8CDPCoreClient@@AEXAAVCAr@@@Z@std@@@4@$0A@@std@@@std@@IAEPAU_Node@?$_Tree_nod@V?$_Tmap_traits@KP8CDPCoreClient@@AEXAAVCAr@@@ZU?$less@K@std@@V?$allocator@U?$pair@$$CBKP8CDPCoreClient@@AEXAAVCAr@@@Z@std@@@4@$0A@@std@@@2@XZ 00401ee0 f i DPCoreClient.obj
 0001:00000f20       ??0?$_Tree_ptr@V?$_Tmap_traits@KP8CDPCoreClient@@AEXAAVCAr@@@ZU?$less@K@std@@V?$allocator@U?$pair@$$CBKP8CDPCoreClient@@AEXAAVCAr@@@Z@std@@@4@$0A@@std@@@std@@IAE@ABU?$less@K@1@V?$allocator@U?$pair@$$CBKP8CDPCoreClient@@AEXAAVCAr@@@Z@std@@@1@@Z 00401f20 f i DPCoreClient.obj
 0001:00000f30       ?_Erase@?$_Tree@V?$_Tmap_traits@KP8CDPCoreClient@@AEXAAVCAr@@@ZU?$less@K@std@@V?$allocator@U?$pair@$$CBKP8CDPCoreClient@@AEXAAVCAr@@@Z@std@@@4@$0A@@std@@@std@@IAEXPAU_Node@?$_Tree_nod@V?$_Tmap_traits@KP8CDPCoreClient@@AEXAAVCAr@@@ZU?$less@K@std@@V?$allocator@U?$pair@$$CBKP8CDPCoreClient@@AEXAAVCAr@@@Z@std@@@4@$0A@@std@@@2@@Z 00401f30 f i DPCoreClient.obj
 0001:00000f70       ??Eiterator@?$_Tree@V?$_Tmap_traits@KP8CDPCoreClient@@AEXAAVCAr@@@ZU?$less@K@std@@V?$allocator@U?$pair@$$CBKP8CDPCoreClient@@AEXAAVCAr@@@Z@std@@@4@$0A@@std@@@std@@QAEAAV012@XZ 00401f70 f i DPCoreClient.obj
 0001:00000f80       ?_Tidy@?$basic_string@DU?$char_traits@D@std@@V?$allocator@D@2@@std@@IAEX_NI@Z 00401f80 f i DPCoreClient.obj
 0001:00000fe0       ?erase@?$basic_string@DU?$char_traits@D@std@@V?$allocator@D@2@@std@@QAEAAV12@II@Z 00401fe0 f i DPCoreClient.obj
 0001:00001060       ?_Copy@?$basic_string@DU?$char_traits@D@std@@V?$allocator@D@2@@std@@IAEXII@Z 00402060 f i DPCoreClient.obj
 0001:000011a0       ?find@?$_Tree@V?$_Tmap_traits@KP8CDPCoreClient@@AEXAAVCAr@@@ZU?$less@K@std@@V?$allocator@U?$pair@$$CBKP8CDPCoreClient@@AEXAAVCAr@@@Z@std@@@4@$0A@@std@@@std@@QAE?AViterator@12@ABK@Z 004021a0 f i DPCoreClient.obj
 0001:00001210       ??Fiterator@?$_Tree@V?$_Tmap_traits@KP8CDPCoreClient@@AEXAAVCAr@@@ZU?$less@K@std@@V?$allocator@U?$pair@$$CBKP8CDPCoreClient@@AEXAAVCAr@@@Z@std@@@4@$0A@@std@@@std@@QAEAAV012@XZ 00402210 f i DPCoreClient.obj
 0001:00001220       ?_Init@?$_Tree@V?$_Tmap_traits@KP8CDPCoreClient@@AEXAAVCAr@@@ZU?$less@K@std@@V?$allocator@U?$pair@$$CBKP8CDPCoreClient@@AEXAAVCAr@@@Z@std@@@4@$0A@@std@@@std@@IAEXXZ 00402220 f i DPCoreClient.obj
 0001:00001250       ??0?$_Tree_val@V?$_Tmap_traits@KP8CDPCoreClient@@AEXAAVCAr@@@ZU?$less@K@std@@V?$allocator@U?$pair@$$CBKP8CDPCoreClient@@AEXAAVCAr@@@Z@std@@@4@$0A@@std@@@std@@IAE@ABU?$less@K@1@V?$allocator@U?$pair@$$CBKP8CDPCoreClient@@AEXAAVCAr@@@Z@std@@@1@@Z 00402250 f i DPCoreClient.obj
 0001:00001260       ?clear@?$_Tree@V?$_Tmap_traits@KP8CDPCoreClient@@AEXAAVCAr@@@ZU?$less@K@std@@V?$allocator@U?$pair@$$CBKP8CDPCoreClient@@AEXAAVCAr@@@Z@std@@@4@$0A@@std@@@std@@QAEXXZ 00402260 f i DPCoreClient.obj
 0001:00001290       ??Eiterator@?$_Tree@V?$_Tmap_traits@KP8CDPCoreClient@@AEXAAVCAr@@@ZU?$less@K@std@@V?$allocator@U?$pair@$$CBKP8CDPCoreClient@@AEXAAVCAr@@@Z@std@@@4@$0A@@std@@@std@@QAE?AV012@H@Z 00402290 f i DPCoreClient.obj
 0001:000012b0       ??1?$basic_string@DU?$char_traits@D@std@@V?$allocator@D@2@@std@@QAE@XZ 004022b0 f i DPCoreClient.obj
 0001:000012e0       ?_Grow@?$basic_string@DU?$char_traits@D@std@@V?$allocator@D@2@@std@@IAE_NI_N@Z 004022e0 f i DPCoreClient.obj
 0001:000013b0       ?GetHandler@CDPCoreClient@@AAEP81@AEXAAVCAr@@@ZK@Z 004023b0 f i DPCoreClient.obj
 0001:000013e0       ?UserMessageHandler@CDPCoreClient@@UAEXPAUDPMSG_GENERIC@@KK@Z 004023e0 f   DPCoreClient.obj
 0001:000014c0       ??0?$_Tree@V?$_Tmap_traits@KP8CDPCoreClient@@AEXAAVCAr@@@ZU?$less@K@std@@V?$allocator@U?$pair@$$CBKP8CDPCoreClient@@AEXAAVCAr@@@Z@std@@@4@$0A@@std@@@std@@QAE@ABU?$less@K@1@ABV?$allocator@U?$pair@$$CBKP8CDPCoreClient@@AEXAAVCAr@@@Z@std@@@1@@Z 004024c0 f i DPCoreClient.obj
 0001:000014f0       ??1logic_error@std@@UAE@XZ 004024f0 f i DPCoreClient.obj
 0001:00001530       ?what@logic_error@std@@UBEPBDXZ 00402530 f i DPCoreClient.obj
 0001:00001540       ??_Elogic_error@std@@UAEPAXI@Z 00402540 f i DPCoreClient.obj
 0001:00001540       ??_Glogic_error@std@@UAEPAXI@Z 00402540 f i DPCoreClient.obj
 0001:00001560       ?assign@?$basic_string@DU?$char_traits@D@std@@V?$allocator@D@2@@std@@QAEAAV12@ABV12@II@Z 00402560 f i DPCoreClient.obj
 0001:00001650       ?assign@?$basic_string@DU?$char_traits@D@std@@V?$allocator@D@2@@std@@QAEAAV12@PBDI@Z 00402650 f i DPCoreClient.obj
 0001:00001740       ??0?$basic_string@DU?$char_traits@D@std@@V?$allocator@D@2@@std@@QAE@ABV01@@Z 00402740 f i DPCoreClient.obj
 0001:00001770       ?assign@?$basic_string@DU?$char_traits@D@std@@V?$allocator@D@2@@std@@QAEAAV12@PBD@Z 00402770 f i DPCoreClient.obj
 0001:000017a0       ??0?$basic_string@DU?$char_traits@D@std@@V?$allocator@D@2@@std@@QAE@PBD@Z 004027a0 f i DPCoreClient.obj
 0001:000017e0       ??0logic_error@std@@QAE@ABV?$basic_string@DU?$char_traits@D@std@@V?$allocator@D@2@@1@@Z 004027e0 f i DPCoreClient.obj
 0001:00001840       ??0length_error@std@@QAE@ABV?$basic_string@DU?$char_traits@D@std@@V?$allocator@D@2@@1@@Z 00402840 f i DPCoreClient.obj
 0001:00001860       ??_Elength_error@std@@UAEPAXI@Z 00402860 f i DPCoreClient.obj
 0001:00001860       ??_Glength_error@std@@UAEPAXI@Z 00402860 f i DPCoreClient.obj
 0001:00001880       ??1length_error@std@@UAE@XZ 00402880 f i DPCoreClient.obj
 0001:000018c0       ??0out_of_range@std@@QAE@ABV?$basic_string@DU?$char_traits@D@std@@V?$allocator@D@2@@1@@Z 004028c0 f i DPCoreClient.obj
 0001:000018e0       ??_Gout_of_range@std@@UAEPAXI@Z 004028e0 f i DPCoreClient.obj
 0001:000018e0       ??_Eout_of_range@std@@UAEPAXI@Z 004028e0 f i DPCoreClient.obj
 0001:00001900       ??1out_of_range@std@@UAE@XZ 00402900 f i DPCoreClient.obj
 0001:00001940       ?_Insert@?$_Tree@V?$_Tmap_traits@KP8CDPCoreClient@@AEXAAVCAr@@@ZU?$less@K@std@@V?$allocator@U?$pair@$$CBKP8CDPCoreClient@@AEXAAVCAr@@@Z@std@@@4@$0A@@std@@@std@@IAE?AViterator@12@_NPAU_Node@?$_Tree_nod@V?$_Tmap_traits@KP8CDPCoreClient@@AEXAAVCAr@@@ZU?$less@K@std@@V?$allocator@U?$pair@$$CBKP8CDPCoreClient@@AEXAAVCAr@@@Z@std@@@4@$0A@@std@@@2@ABU?$pair@$$CBKP8CDPCoreClient@@AEXAAVCAr@@@Z@2@@Z 00402940 f i DPCoreClient.obj
 0001:00001af0       ??0logic_error@std@@QAE@ABV01@@Z 00402af0 f i DPCoreClient.obj
 0001:00001b60       ??0length_error@std@@QAE@ABV01@@Z 00402b60 f i DPCoreClient.obj
 0001:00001b80       ?erase@?$_Tree@V?$_Tmap_traits@KP8CDPCoreClient@@AEXAAVCAr@@@ZU?$less@K@std@@V?$allocator@U?$pair@$$CBKP8CDPCoreClient@@AEXAAVCAr@@@Z@std@@@4@$0A@@std@@@std@@QAE?AViterator@12@V312@@Z 00402b80 f i DPCoreClient.obj
 0001:00001e40       ??0out_of_range@std@@QAE@ABV01@@Z 00402e40 f i DPCoreClient.obj
 0001:00001e60       ?insert@?$_Tree@V?$_Tmap_traits@KP8CDPCoreClient@@AEXAAVCAr@@@ZU?$less@K@std@@V?$allocator@U?$pair@$$CBKP8CDPCoreClient@@AEXAAVCAr@@@Z@std@@@4@$0A@@std@@@std@@QAE?AU?$pair@Viterator@?$_Tree@V?$_Tmap_traits@KP8CDPCoreClient@@AEXAAVCAr@@@ZU?$less@K@std@@V?$allocator@U?$pair@$$CBKP8CDPCoreClient@@AEXAAVCAr@@@Z@std@@@4@$0A@@std@@@std@@_N@2@ABU?$pair@$$CBKP8CDPCoreClient@@AEXAAVCAr@@@Z@2@@Z 00402e60 f i DPCoreClient.obj
 0001:00001f20       ?erase@?$_Tree@V?$_Tmap_traits@KP8CDPCoreClient@@AEXAAVCAr@@@ZU?$less@K@std@@V?$allocator@U?$pair@$$CBKP8CDPCoreClient@@AEXAAVCAr@@@Z@std@@@4@$0A@@std@@@std@@QAE?AViterator@12@V312@0@Z 00402f20 f i DPCoreClient.obj
 0001:00001fe0       ?_Tidy@?$_Tree@V?$_Tmap_traits@KP8CDPCoreClient@@AEXAAVCAr@@@ZU?$less@K@std@@V?$allocator@U?$pair@$$CBKP8CDPCoreClient@@AEXAAVCAr@@@Z@std@@@4@$0A@@std@@@std@@IAEXXZ 00402fe0 f i DPCoreClient.obj
 0001:00002010       ??1?$_Tree@V?$_Tmap_traits@KP8CDPCoreClient@@AEXAAVCAr@@@ZU?$less@K@std@@V?$allocator@U?$pair@$$CBKP8CDPCoreClient@@AEXAAVCAr@@@Z@std@@@4@$0A@@std@@@std@@QAE@XZ 00403010 f i DPCoreClient.obj
 0001:00002040       ??1?$map@KP8CDPCoreClient@@AEXAAVCAr@@@ZU?$less@K@std@@V?$allocator@U?$pair@$$CBKP8CDPCoreClient@@AEXAAVCAr@@@Z@std@@@4@@std@@QAE@XZ 00403040 f i DPCoreClient.obj
 0001:00002070       ??1CDPCoreClient@@UAE@XZ   00403070 f   DPCoreClient.obj
 0001:000020f0       ??0?$map@KP8CDPCoreClient@@AEXAAVCAr@@@ZU?$less@K@std@@V?$allocator@U?$pair@$$CBKP8CDPCoreClient@@AEXAAVCAr@@@Z@std@@@4@@std@@QAE@XZ 004030f0 f i DPCoreClient.obj
 0001:00002120       ??0CDPCoreClient@@QAE@XZ   00403120 f   DPCoreClient.obj
 0001:00002200       ??_GCDPCoreClient@@UAEPAXI@Z 00403200 f i DPCoreClient.obj
 0001:00002200       ??_ECDPCoreClient@@UAEPAXI@Z 00403200 f i DPCoreClient.obj
 0001:00002220       ??6CAr@@QAEAAV0@J@Z        00403220 f i DPDatabaseClient.obj
 0001:00002240       ??5CAr@@QAEAAV0@AAJ@Z      00403240 f i DPDatabaseClient.obj
 0001:00002280       ?SysMessageHandler@CDPDatabaseClient@@UAEXPAUDPMSG_GENERIC@@KK@Z 00403280 f   DPDatabaseClient.obj
 0001:00002290       ?SendGetPlayerList@CDPDatabaseClient@@QAEXKPBD0KK@Z 00403290 f   DPDatabaseClient.obj
 0001:000023e0       ??0?$pair@$$CBKP8CDPDatabaseClient@@AEXAAVCAr@@KPAEK@Z@std@@QAE@ABKABQ8CDPDatabaseClient@@AEXAAVCAr@@KPAEK@Z@Z 004033e0 f i DPDatabaseClient.obj
 0001:00002400       ?_Isnil@?$_Tree@V?$_Tmap_traits@KP8CDPDatabaseClient@@AEXAAVCAr@@KPAEK@ZU?$less@K@std@@V?$allocator@U?$pair@$$CBKP8CDPDatabaseClient@@AEXAAVCAr@@KPAEK@Z@std@@@4@$0A@@std@@@std@@KAAADPAU_Node@?$_Tree_nod@V?$_Tmap_traits@KP8CDPDatabaseClient@@AEXAAVCAr@@KPAEK@ZU?$less@K@std@@V?$allocator@U?$pair@$$CBKP8CDPDatabaseClient@@AEXAAVCAr@@KPAEK@Z@std@@@4@$0A@@std@@@2@@Z 00403400 f i DPDatabaseClient.obj
 0001:00002410       ?_Left@?$_Tree@V?$_Tmap_traits@KP8CDPDatabaseClient@@AEXAAVCAr@@KPAEK@ZU?$less@K@std@@V?$allocator@U?$pair@$$CBKP8CDPDatabaseClient@@AEXAAVCAr@@KPAEK@Z@std@@@4@$0A@@std@@@std@@KAAAPAU_Node@?$_Tree_nod@V?$_Tmap_traits@KP8CDPDatabaseClient@@AEXAAVCAr@@KPAEK@ZU?$less@K@std@@V?$allocator@U?$pair@$$CBKP8CDPDatabaseClient@@AEXAAVCAr@@KPAEK@Z@std@@@4@$0A@@std@@@2@PAU342@@Z 00403410 f i DPDatabaseClient.obj
 0001:00002420       ?_Right@?$_Tree@V?$_Tmap_traits@KP8CDPDatabaseClient@@AEXAAVCAr@@KPAEK@ZU?$less@K@std@@V?$allocator@U?$pair@$$CBKP8CDPDatabaseClient@@AEXAAVCAr@@KPAEK@Z@std@@@4@$0A@@std@@@std@@KAAAPAU_Node@?$_Tree_nod@V?$_Tmap_traits@KP8CDPDatabaseClient@@AEXAAVCAr@@KPAEK@ZU?$less@K@std@@V?$allocator@U?$pair@$$CBKP8CDPDatabaseClient@@AEXAAVCAr@@KPAEK@Z@std@@@4@$0A@@std@@@2@PAU342@@Z 00403420 f i DPDatabaseClient.obj
 0001:00002430       ?_Kfn@?$_Tmap_traits@KP8CDPDatabaseClient@@AEXAAVCAr@@KPAEK@ZU?$less@K@std@@V?$allocator@U?$pair@$$CBKP8CDPDatabaseClient@@AEXAAVCAr@@KPAEK@Z@std@@@4@$0A@@std@@SAABKABU?$pair@$$CBKP8CDPDatabaseClient@@AEXAAVCAr@@KPAEK@Z@2@@Z 00403430 f i DPDatabaseClient.obj
 0001:00002440       ??0?$allocator@U?$pair@$$CBKP8CDPDatabaseClient@@AEXAAVCAr@@KPAEK@Z@std@@@std@@QAE@XZ 00403440 f i DPDatabaseClient.obj
 0001:00002450       ??8const_iterator@?$_Tree@V?$_Tmap_traits@KP8CDPDatabaseClient@@AEXAAVCAr@@KPAEK@ZU?$less@K@std@@V?$allocator@U?$pair@$$CBKP8CDPDatabaseClient@@AEXAAVCAr@@KPAEK@Z@std@@@4@$0A@@std@@@std@@QBE_NABV012@@Z 00403450 f i DPDatabaseClient.obj
 0001:00002460       ?_Mynode@const_iterator@?$_Tree@V?$_Tmap_traits@KP8CDPDatabaseClient@@AEXAAVCAr@@KPAEK@ZU?$less@K@std@@V?$allocator@U?$pair@$$CBKP8CDPDatabaseClient@@AEXAAVCAr@@KPAEK@Z@std@@@4@$0A@@std@@@std@@QBEPAU_Node@?$_Tree_nod@V?$_Tmap_traits@KP8CDPDatabaseClient@@AEXAAVCAr@@KPAEK@ZU?$less@K@std@@V?$allocator@U?$pair@$$CBKP8CDPDatabaseClient@@AEXAAVCAr@@KPAEK@Z@std@@@4@$0A@@std@@@3@XZ 00403460 f i DPDatabaseClient.obj
 0001:00002470       ??0?$pair@Viterator@?$_Tree@V?$_Tmap_traits@KP8CDPDatabaseClient@@AEXAAVCAr@@KPAEK@ZU?$less@K@std@@V?$allocator@U?$pair@$$CBKP8CDPDatabaseClient@@AEXAAVCAr@@KPAEK@Z@std@@@4@$0A@@std@@@std@@_N@std@@QAE@ABViterator@?$_Tree@V?$_Tmap_traits@KP8CDPDatabaseClient@@AEXAAVCAr@@KPAEK@ZU?$less@K@std@@V?$allocator@U?$pair@$$CBKP8CDPDatabaseClient@@AEXAAVCAr@@KPAEK@Z@std@@@4@$0A@@std@@@1@AB_N@Z 00403470 f i DPDatabaseClient.obj
 0001:00002490       ?_Color@?$_Tree@V?$_Tmap_traits@KP8CDPDatabaseClient@@AEXAAVCAr@@KPAEK@ZU?$less@K@std@@V?$allocator@U?$pair@$$CBKP8CDPDatabaseClient@@AEXAAVCAr@@KPAEK@Z@std@@@4@$0A@@std@@@std@@KAAADPAU_Node@?$_Tree_nod@V?$_Tmap_traits@KP8CDPDatabaseClient@@AEXAAVCAr@@KPAEK@ZU?$less@K@std@@V?$allocator@U?$pair@$$CBKP8CDPDatabaseClient@@AEXAAVCAr@@KPAEK@Z@std@@@4@$0A@@std@@@2@@Z 00403490 f i DPDatabaseClient.obj
 0001:000024a0       ?_Parent@?$_Tree@V?$_Tmap_traits@KP8CDPDatabaseClient@@AEXAAVCAr@@KPAEK@ZU?$less@K@std@@V?$allocator@U?$pair@$$CBKP8CDPDatabaseClient@@AEXAAVCAr@@KPAEK@Z@std@@@4@$0A@@std@@@std@@KAAAPAU_Node@?$_Tree_nod@V?$_Tmap_traits@KP8CDPDatabaseClient@@AEXAAVCAr@@KPAEK@ZU?$less@K@std@@V?$allocator@U?$pair@$$CBKP8CDPDatabaseClient@@AEXAAVCAr@@KPAEK@Z@std@@@4@$0A@@std@@@2@PAU342@@Z 004034a0 f i DPDatabaseClient.obj
 0001:000024b0       ?_Myval@?$_Tree@V?$_Tmap_traits@KP8CDPDatabaseClient@@AEXAAVCAr@@KPAEK@ZU?$less@K@std@@V?$allocator@U?$pair@$$CBKP8CDPDatabaseClient@@AEXAAVCAr@@KPAEK@Z@std@@@4@$0A@@std@@@std@@KAAAU?$pair@$$CBKP8CDPDatabaseClient@@AEXAAVCAr@@KPAEK@Z@2@PAU_Node@?$_Tree_nod@V?$_Tmap_traits@KP8CDPDatabaseClient@@AEXAAVCAr@@KPAEK@ZU?$less@K@std@@V?$allocator@U?$pair@$$CBKP8CDPDatabaseClient@@AEXAAVCAr@@KPAEK@Z@std@@@4@$0A@@std@@@2@@Z 004034b0 f i DPDatabaseClient.obj
 0001:000024c0       ?_Lmost@?$_Tree@V?$_Tmap_traits@KP8CDPDatabaseClient@@AEXAAVCAr@@KPAEK@ZU?$less@K@std@@V?$allocator@U?$pair@$$CBKP8CDPDatabaseClient@@AEXAAVCAr@@KPAEK@Z@std@@@4@$0A@@std@@@std@@IAEAAPAU_Node@?$_Tree_nod@V?$_Tmap_traits@KP8CDPDatabaseClient@@AEXAAVCAr@@KPAEK@ZU?$less@K@std@@V?$allocator@U?$pair@$$CBKP8CDPDatabaseClient@@AEXAAVCAr@@KPAEK@Z@std@@@4@$0A@@std@@@2@XZ 004034c0 f i DPDatabaseClient.obj
 0001:000024d0       ?_Rmost@?$_Tree@V?$_Tmap_traits@KP8CDPDatabaseClient@@AEXAAVCAr@@KPAEK@ZU?$less@K@std@@V?$allocator@U?$pair@$$CBKP8CDPDatabaseClient@@AEXAAVCAr@@KPAEK@Z@std@@@4@$0A@@std@@@std@@IAEAAPAU_Node@?$_Tree_nod@V?$_Tmap_traits@KP8CDPDatabaseClient@@AEXAAVCAr@@KPAEK@ZU?$less@K@std@@V?$allocator@U?$pair@$$CBKP8CDPDatabaseClient@@AEXAAVCAr@@KPAEK@Z@std@@@4@$0A@@std@@@2@XZ 004034d0 f i DPDatabaseClient.obj
 0001:000024e0       ??0?$allocator@U?$pair@$$CBKP8CDPDatabaseClient@@AEXAAVCAr@@KPAEK@Z@std@@@std@@QAE@ABV01@@Z 004034e0 f i DPDatabaseClient.obj
 0001:000024f0       ?deallocate@?$allocator@U_Node@?$_Tree_nod@V?$_Tmap_traits@KP8CDPDatabaseClient@@AEXAAVCAr@@KPAEK@ZU?$less@K@std@@V?$allocator@U?$pair@$$CBKP8CDPDatabaseClient@@AEXAAVCAr@@KPAEK@Z@std@@@4@$0A@@std@@@std@@@std@@QAEXPAU_Node@?$_Tree_nod@V?$_Tmap_traits@KP8CDPDatabaseClient@@AEXAAVCAr@@KPAEK@ZU?$less@K@std@@V?$allocator@U?$pair@$$CBKP8CDPDatabaseClient@@AEXAAVCAr@@KPAEK@Z@std@@@4@$0A@@std@@@2@I@Z 004034f0 f i DPDatabaseClient.obj
 0001:00002500       ??0const_iterator@?$_Tree@V?$_Tmap_traits@KP8CDPDatabaseClient@@AEXAAVCAr@@KPAEK@ZU?$less@K@std@@V?$allocator@U?$pair@$$CBKP8CDPDatabaseClient@@AEXAAVCAr@@KPAEK@Z@std@@@4@$0A@@std@@@std@@QAE@PAU_Node@?$_Tree_nod@V?$_Tmap_traits@KP8CDPDatabaseClient@@AEXAAVCAr@@KPAEK@ZU?$less@K@std@@V?$allocator@U?$pair@$$CBKP8CDPDatabaseClient@@AEXAAVCAr@@KPAEK@Z@std@@@4@$0A@@std@@@2@@Z 00403500 f i DPDatabaseClient.obj
 0001:00002510       ??Dconst_iterator@?$_Tree@V?$_Tmap_traits@KP8CDPDatabaseClient@@AEXAAVCAr@@KPAEK@ZU?$less@K@std@@V?$allocator@U?$pair@$$CBKP8CDPDatabaseClient@@AEXAAVCAr@@KPAEK@Z@std@@@4@$0A@@std@@@std@@QBEABU?$pair@$$CBKP8CDPDatabaseClient@@AEXAAVCAr@@KPAEK@Z@2@XZ 00403510 f i DPDatabaseClient.obj
 0001:00002520       ?_Root@?$_Tree@V?$_Tmap_traits@KP8CDPDatabaseClient@@AEXAAVCAr@@KPAEK@ZU?$less@K@std@@V?$allocator@U?$pair@$$CBKP8CDPDatabaseClient@@AEXAAVCAr@@KPAEK@Z@std@@@4@$0A@@std@@@std@@IBEAAPAU_Node@?$_Tree_nod@V?$_Tmap_traits@KP8CDPDatabaseClient@@AEXAAVCAr@@KPAEK@ZU?$less@K@std@@V?$allocator@U?$pair@$$CBKP8CDPDatabaseClient@@AEXAAVCAr@@KPAEK@Z@std@@@4@$0A@@std@@@2@XZ 00403520 f i DPDatabaseClient.obj
 0001:00002530       ?max_size@?$allocator@U?$pair@$$CBKP8CDPDatabaseClient@@AEXAAVCAr@@KPAEK@Z@std@@@std@@QBEIXZ 00403530 f i DPDatabaseClient.obj
 0001:00002540       ??0_Node@?$_Tree_nod@V?$_Tmap_traits@KP8CDPDatabaseClient@@AEXAAVCAr@@KPAEK@ZU?$less@K@std@@V?$allocator@U?$pair@$$CBKP8CDPDatabaseClient@@AEXAAVCAr@@KPAEK@Z@std@@@4@$0A@@std@@@std@@QAE@PAU012@00ABU?$pair@$$CBKP8CDPDatabaseClient@@AEXAAVCAr@@KPAEK@Z@2@D@Z 00403540 f i DPDatabaseClient.obj
 0001:00002580       ?_Max@?$_Tree@V?$_Tmap_traits@KP8CDPDatabaseClient@@AEXAAVCAr@@KPAEK@ZU?$less@K@std@@V?$allocator@U?$pair@$$CBKP8CDPDatabaseClient@@AEXAAVCAr@@KPAEK@Z@std@@@4@$0A@@std@@@std@@KAPAU_Node@?$_Tree_nod@V?$_Tmap_traits@KP8CDPDatabaseClient@@AEXAAVCAr@@KPAEK@ZU?$less@K@std@@V?$allocator@U?$pair@$$CBKP8CDPDatabaseClient@@AEXAAVCAr@@KPAEK@Z@std@@@4@$0A@@std@@@2@PAU342@@Z 00403580 f i DPDatabaseClient.obj
 0001:000025a0       ?_Min@?$_Tree@V?$_Tmap_traits@KP8CDPDatabaseClient@@AEXAAVCAr@@KPAEK@ZU?$less@K@std@@V?$allocator@U?$pair@$$CBKP8CDPDatabaseClient@@AEXAAVCAr@@KPAEK@Z@std@@@4@$0A@@std@@@std@@KAPAU_Node@?$_Tree_nod@V?$_Tmap_traits@KP8CDPDatabaseClient@@AEXAAVCAr@@KPAEK@ZU?$less@K@std@@V?$allocator@U?$pair@$$CBKP8CDPDatabaseClient@@AEXAAVCAr@@KPAEK@Z@std@@@4@$0A@@std@@@2@PAU342@@Z 004035a0 f i DPDatabaseClient.obj
 0001:000025c0       ??0?$_Tmap_traits@KP8CDPDatabaseClient@@AEXAAVCAr@@KPAEK@ZU?$less@K@std@@V?$allocator@U?$pair@$$CBKP8CDPDatabaseClient@@AEXAAVCAr@@KPAEK@Z@std@@@4@$0A@@std@@QAE@U?$less@K@1@@Z 004035c0 f i DPDatabaseClient.obj
 0001:000025d0       ?_Inc@const_iterator@?$_Tree@V?$_Tmap_traits@KP8CDPDatabaseClient@@AEXAAVCAr@@KPAEK@ZU?$less@K@std@@V?$allocator@U?$pair@$$CBKP8CDPDatabaseClient@@AEXAAVCAr@@KPAEK@Z@std@@@4@$0A@@std@@@std@@QAEXXZ 004035d0 f i DPDatabaseClient.obj
 0001:00002630       ??$_Destroy@PAU_Node@?$_Tree_nod@V?$_Tmap_traits@KP8CDPDatabaseClient@@AEXAAVCAr@@KPAEK@ZU?$less@K@std@@V?$allocator@U?$pair@$$CBKP8CDPDatabaseClient@@AEXAAVCAr@@KPAEK@Z@std@@@4@$0A@@std@@@std@@@std@@YAXPAPAU_Node@?$_Tree_nod@V?$_Tmap_traits@KP8CDPDatabaseClient@@AEXAAVCAr@@KPAEK@ZU?$less@K@std@@V?$allocator@U?$pair@$$CBKP8CDPDatabaseClient@@AEXAAVCAr@@KPAEK@Z@std@@@4@$0A@@std@@@0@@Z 00403630 f i DPDatabaseClient.obj
 0001:00002640       ??$?0U?$pair@$$CBKP8CDPDatabaseClient@@AEXAAVCAr@@KPAEK@Z@std@@@?$allocator@PAU_Node@?$_Tree_nod@V?$_Tmap_traits@KP8CDPDatabaseClient@@AEXAAVCAr@@KPAEK@ZU?$less@K@std@@V?$allocator@U?$pair@$$CBKP8CDPDatabaseClient@@AEXAAVCAr@@KPAEK@Z@std@@@4@$0A@@std@@@std@@@std@@QAE@ABV?$allocator@U?$pair@$$CBKP8CDPDatabaseClient@@AEXAAVCAr@@KPAEK@Z@std@@@1@@Z 00403640 f i DPDatabaseClient.obj
 0001:00002650       ??$_Allocate@U_Node@?$_Tree_nod@V?$_Tmap_traits@KP8CDPDatabaseClient@@AEXAAVCAr@@KPAEK@ZU?$less@K@std@@V?$allocator@U?$pair@$$CBKP8CDPDatabaseClient@@AEXAAVCAr@@KPAEK@Z@std@@@4@$0A@@std@@@std@@@std@@YAPAU_Node@?$_Tree_nod@V?$_Tmap_traits@KP8CDPDatabaseClient@@AEXAAVCAr@@KPAEK@ZU?$less@K@std@@V?$allocator@U?$pair@$$CBKP8CDPDatabaseClient@@AEXAAVCAr@@KPAEK@Z@std@@@4@$0A@@std@@@0@IPAU120@@Z 00403650 f i DPDatabaseClient.obj
 0001:00002670       ??$?0U?$pair@$$CBKP8CDPDatabaseClient@@AEXAAVCAr@@KPAEK@Z@std@@@?$allocator@U_Node@?$_Tree_nod@V?$_Tmap_traits@KP8CDPDatabaseClient@@AEXAAVCAr@@KPAEK@ZU?$less@K@std@@V?$allocator@U?$pair@$$CBKP8CDPDatabaseClient@@AEXAAVCAr@@KPAEK@Z@std@@@4@$0A@@std@@@std@@@std@@QAE@ABV?$allocator@U?$pair@$$CBKP8CDPDatabaseClient@@AEXAAVCAr@@KPAEK@Z@std@@@1@@Z 00403670 f i DPDatabaseClient.obj
 0001:00002680       ??$_Destroy@U_Node@?$_Tree_nod@V?$_Tmap_traits@KP8CDPDatabaseClient@@AEXAAVCAr@@KPAEK@ZU?$less@K@std@@V?$allocator@U?$pair@$$CBKP8CDPDatabaseClient@@AEXAAVCAr@@KPAEK@Z@std@@@4@$0A@@std@@@std@@@std@@YAXPAU_Node@?$_Tree_nod@V?$_Tmap_traits@KP8CDPDatabaseClient@@AEXAAVCAr@@KPAEK@ZU?$less@K@std@@V?$allocator@U?$pair@$$CBKP8CDPDatabaseClient@@AEXAAVCAr@@KPAEK@Z@std@@@4@$0A@@std@@@0@@Z 00403680 f i DPDatabaseClient.obj
 0001:00002690       ??$_Construct@PAU_Node@?$_Tree_nod@V?$_Tmap_traits@KP8CDPDatabaseClient@@AEXAAVCAr@@KPAEK@ZU?$less@K@std@@V?$allocator@U?$pair@$$CBKP8CDPDatabaseClient@@AEXAAVCAr@@KPAEK@Z@std@@@4@$0A@@std@@@std@@PAU123@@std@@YAXPAPAU_Node@?$_Tree_nod@V?$_Tmap_traits@KP8CDPDatabaseClient@@AEXAAVCAr@@KPAEK@ZU?$less@K@std@@V?$allocator@U?$pair@$$CBKP8CDPDatabaseClient@@AEXAAVCAr@@KPAEK@Z@std@@@4@$0A@@std@@@0@ABQAU120@@Z 00403690 f i DPDatabaseClient.obj
 0001:000026b0       ??6CAr@@QAEAAV0@H@Z        004036b0 f i DPDatabaseClient.obj
 0001:000026d0       ??6CAr@@QAEAAV0@I@Z        004036d0 f i DPDatabaseClient.obj
 0001:000026f0       ??5CAr@@QAEAAV0@AAH@Z      004036f0 f i DPDatabaseClient.obj
 0001:00002730       ?SendLeave@CDPDatabaseClient@@QAEXPBDKK@Z 00403730 f   DPDatabaseClient.obj
 0001:00002860       ?SendCloseError@CDPDatabaseClient@@QAEXPBD@Z 00403860 f   DPDatabaseClient.obj
 0001:00002950       ?OnCloseExistingConnection@CDPDatabaseClient@@AAEXAAVCAr@@KPAEK@Z 00403950 f   DPDatabaseClient.obj
 0001:00002a60       ?OnOneHourNotify@CDPDatabaseClient@@AAEXAAVCAr@@KPAEK@Z 00403a60 f   DPDatabaseClient.obj
 0001:00002b10       ?OnPlayerList@CDPDatabaseClient@@AAEXAAVCAr@@KPAEK@Z 00403b10 f   DPDatabaseClient.obj
 0001:00002bb0       ?OnFail@CDPDatabaseClient@@AAEXAAVCAr@@KPAEK@Z 00403bb0 f   DPDatabaseClient.obj
 0001:00002cb0       ?OnLoginProtect@CDPDatabaseClient@@AAEXAAVCAr@@KPAEK@Z 00403cb0 f   DPDatabaseClient.obj
 0001:00002e40       ?SendLoginProtect@CDPDatabaseClient@@QAEXPBD0KHK@Z 00403e40 f   DPDatabaseClient.obj
 0001:00002f90       ??9const_iterator@?$_Tree@V?$_Tmap_traits@KP8CDPDatabaseClient@@AEXAAVCAr@@KPAEK@ZU?$less@K@std@@V?$allocator@U?$pair@$$CBKP8CDPDatabaseClient@@AEXAAVCAr@@KPAEK@Z@std@@@4@$0A@@std@@@std@@QBE_NABV012@@Z 00403f90 f i DPDatabaseClient.obj
 0001:00002fb0       ?_Key@?$_Tree@V?$_Tmap_traits@KP8CDPDatabaseClient@@AEXAAVCAr@@KPAEK@ZU?$less@K@std@@V?$allocator@U?$pair@$$CBKP8CDPDatabaseClient@@AEXAAVCAr@@KPAEK@Z@std@@@4@$0A@@std@@@std@@KAABKPAU_Node@?$_Tree_nod@V?$_Tmap_traits@KP8CDPDatabaseClient@@AEXAAVCAr@@KPAEK@ZU?$less@K@std@@V?$allocator@U?$pair@$$CBKP8CDPDatabaseClient@@AEXAAVCAr@@KPAEK@Z@std@@@4@$0A@@std@@@2@@Z 00403fb0 f i DPDatabaseClient.obj
 0001:00002fc0       ?_Root@?$_Tree@V?$_Tmap_traits@KP8CDPDatabaseClient@@AEXAAVCAr@@KPAEK@ZU?$less@K@std@@V?$allocator@U?$pair@$$CBKP8CDPDatabaseClient@@AEXAAVCAr@@KPAEK@Z@std@@@4@$0A@@std@@@std@@IAEAAPAU_Node@?$_Tree_nod@V?$_Tmap_traits@KP8CDPDatabaseClient@@AEXAAVCAr@@KPAEK@ZU?$less@K@std@@V?$allocator@U?$pair@$$CBKP8CDPDatabaseClient@@AEXAAVCAr@@KPAEK@Z@std@@@4@$0A@@std@@@2@XZ 00403fc0 f i DPDatabaseClient.obj
 0001:00002fd0       ??0iterator@?$_Tree@V?$_Tmap_traits@KP8CDPDatabaseClient@@AEXAAVCAr@@KPAEK@ZU?$less@K@std@@V?$allocator@U?$pair@$$CBKP8CDPDatabaseClient@@AEXAAVCAr@@KPAEK@Z@std@@@4@$0A@@std@@@std@@QAE@PAU_Node@?$_Tree_nod@V?$_Tmap_traits@KP8CDPDatabaseClient@@AEXAAVCAr@@KPAEK@ZU?$less@K@std@@V?$allocator@U?$pair@$$CBKP8CDPDatabaseClient@@AEXAAVCAr@@KPAEK@Z@std@@@4@$0A@@std@@@2@@Z 00403fd0 f i DPDatabaseClient.obj
 0001:00002fe0       ??Diterator@?$_Tree@V?$_Tmap_traits@KP8CDPDatabaseClient@@AEXAAVCAr@@KPAEK@ZU?$less@K@std@@V?$allocator@U?$pair@$$CBKP8CDPDatabaseClient@@AEXAAVCAr@@KPAEK@Z@std@@@4@$0A@@std@@@std@@QBEAAU?$pair@$$CBKP8CDPDatabaseClient@@AEXAAVCAr@@KPAEK@Z@2@XZ 00403fe0 f i DPDatabaseClient.obj
 0001:00002ff0       ?max_size@?$_Tree@V?$_Tmap_traits@KP8CDPDatabaseClient@@AEXAAVCAr@@KPAEK@ZU?$less@K@std@@V?$allocator@U?$pair@$$CBKP8CDPDatabaseClient@@AEXAAVCAr@@KPAEK@Z@std@@@4@$0A@@std@@@std@@QBEIXZ 00403ff0 f i DPDatabaseClient.obj
 0001:00003000       ?_Lbound@?$_Tree@V?$_Tmap_traits@KP8CDPDatabaseClient@@AEXAAVCAr@@KPAEK@ZU?$less@K@std@@V?$allocator@U?$pair@$$CBKP8CDPDatabaseClient@@AEXAAVCAr@@KPAEK@Z@std@@@4@$0A@@std@@@std@@IBEPAU_Node@?$_Tree_nod@V?$_Tmap_traits@KP8CDPDatabaseClient@@AEXAAVCAr@@KPAEK@ZU?$less@K@std@@V?$allocator@U?$pair@$$CBKP8CDPDatabaseClient@@AEXAAVCAr@@KPAEK@Z@std@@@4@$0A@@std@@@2@ABK@Z 00404000 f i DPDatabaseClient.obj
 0001:00003030       ?_Lrotate@?$_Tree@V?$_Tmap_traits@KP8CDPDatabaseClient@@AEXAAVCAr@@KPAEK@ZU?$less@K@std@@V?$allocator@U?$pair@$$CBKP8CDPDatabaseClient@@AEXAAVCAr@@KPAEK@Z@std@@@4@$0A@@std@@@std@@IAEXPAU_Node@?$_Tree_nod@V?$_Tmap_traits@KP8CDPDatabaseClient@@AEXAAVCAr@@KPAEK@ZU?$less@K@std@@V?$allocator@U?$pair@$$CBKP8CDPDatabaseClient@@AEXAAVCAr@@KPAEK@Z@std@@@4@$0A@@std@@@2@@Z 00404030 f i DPDatabaseClient.obj
 0001:00003090       ?_Rrotate@?$_Tree@V?$_Tmap_traits@KP8CDPDatabaseClient@@AEXAAVCAr@@KPAEK@ZU?$less@K@std@@V?$allocator@U?$pair@$$CBKP8CDPDatabaseClient@@AEXAAVCAr@@KPAEK@Z@std@@@4@$0A@@std@@@std@@IAEXPAU_Node@?$_Tree_nod@V?$_Tmap_traits@KP8CDPDatabaseClient@@AEXAAVCAr@@KPAEK@ZU?$less@K@std@@V?$allocator@U?$pair@$$CBKP8CDPDatabaseClient@@AEXAAVCAr@@KPAEK@Z@std@@@4@$0A@@std@@@2@@Z 00404090 f i DPDatabaseClient.obj
 0001:000030f0       ?destroy@?$allocator@PAU_Node@?$_Tree_nod@V?$_Tmap_traits@KP8CDPDatabaseClient@@AEXAAVCAr@@KPAEK@ZU?$less@K@std@@V?$allocator@U?$pair@$$CBKP8CDPDatabaseClient@@AEXAAVCAr@@KPAEK@Z@std@@@4@$0A@@std@@@std@@@std@@QAEXPAPAU_Node@?$_Tree_nod@V?$_Tmap_traits@KP8CDPDatabaseClient@@AEXAAVCAr@@KPAEK@ZU?$less@K@std@@V?$allocator@U?$pair@$$CBKP8CDPDatabaseClient@@AEXAAVCAr@@KPAEK@Z@std@@@4@$0A@@std@@@2@@Z 004040f0 f i DPDatabaseClient.obj
 0001:00003100       ?allocate@?$allocator@U_Node@?$_Tree_nod@V?$_Tmap_traits@KP8CDPDatabaseClient@@AEXAAVCAr@@KPAEK@ZU?$less@K@std@@V?$allocator@U?$pair@$$CBKP8CDPDatabaseClient@@AEXAAVCAr@@KPAEK@Z@std@@@4@$0A@@std@@@std@@@std@@QAEPAU_Node@?$_Tree_nod@V?$_Tmap_traits@KP8CDPDatabaseClient@@AEXAAVCAr@@KPAEK@ZU?$less@K@std@@V?$allocator@U?$pair@$$CBKP8CDPDatabaseClient@@AEXAAVCAr@@KPAEK@Z@std@@@4@$0A@@std@@@2@I@Z 00404100 f i DPDatabaseClient.obj
 0001:00003120       ?_Dec@const_iterator@?$_Tree@V?$_Tmap_traits@KP8CDPDatabaseClient@@AEXAAVCAr@@KPAEK@ZU?$less@K@std@@V?$allocator@U?$pair@$$CBKP8CDPDatabaseClient@@AEXAAVCAr@@KPAEK@Z@std@@@4@$0A@@std@@@std@@QAEXXZ 00404120 f i DPDatabaseClient.obj
 0001:00003180       ??0?$_Tree_nod@V?$_Tmap_traits@KP8CDPDatabaseClient@@AEXAAVCAr@@KPAEK@ZU?$less@K@std@@V?$allocator@U?$pair@$$CBKP8CDPDatabaseClient@@AEXAAVCAr@@KPAEK@Z@std@@@4@$0A@@std@@@std@@IAE@ABU?$less@K@1@V?$allocator@U?$pair@$$CBKP8CDPDatabaseClient@@AEXAAVCAr@@KPAEK@Z@std@@@1@@Z 00404180 f i DPDatabaseClient.obj
 0001:00003190       ?destroy@?$allocator@U_Node@?$_Tree_nod@V?$_Tmap_traits@KP8CDPDatabaseClient@@AEXAAVCAr@@KPAEK@ZU?$less@K@std@@V?$allocator@U?$pair@$$CBKP8CDPDatabaseClient@@AEXAAVCAr@@KPAEK@Z@std@@@4@$0A@@std@@@std@@@std@@QAEXPAU_Node@?$_Tree_nod@V?$_Tmap_traits@KP8CDPDatabaseClient@@AEXAAVCAr@@KPAEK@ZU?$less@K@std@@V?$allocator@U?$pair@$$CBKP8CDPDatabaseClient@@AEXAAVCAr@@KPAEK@Z@std@@@4@$0A@@std@@@2@@Z 00404190 f i DPDatabaseClient.obj
 0001:000031a0       ?construct@?$allocator@PAU_Node@?$_Tree_nod@V?$_Tmap_traits@KP8CDPDatabaseClient@@AEXAAVCAr@@KPAEK@ZU?$less@K@std@@V?$allocator@U?$pair@$$CBKP8CDPDatabaseClient@@AEXAAVCAr@@KPAEK@Z@std@@@4@$0A@@std@@@std@@@std@@QAEXPAPAU_Node@?$_Tree_nod@V?$_Tmap_traits@KP8CDPDatabaseClient@@AEXAAVCAr@@KPAEK@ZU?$less@K@std@@V?$allocator@U?$pair@$$CBKP8CDPDatabaseClient@@AEXAAVCAr@@KPAEK@Z@std@@@4@$0A@@std@@@2@ABQAU342@@Z 004041a0 f i DPDatabaseClient.obj
 0001:000031c0       ??Econst_iterator@?$_Tree@V?$_Tmap_traits@KP8CDPDatabaseClient@@AEXAAVCAr@@KPAEK@ZU?$less@K@std@@V?$allocator@U?$pair@$$CBKP8CDPDatabaseClient@@AEXAAVCAr@@KPAEK@Z@std@@@4@$0A@@std@@@std@@QAEAAV012@XZ 004041c0 f i DPDatabaseClient.obj
 0001:000031d0       ?end@?$_Tree@V?$_Tmap_traits@KP8CDPDatabaseClient@@AEXAAVCAr@@KPAEK@ZU?$less@K@std@@V?$allocator@U?$pair@$$CBKP8CDPDatabaseClient@@AEXAAVCAr@@KPAEK@Z@std@@@4@$0A@@std@@@std@@QAE?AViterator@12@XZ 004041d0 f i DPDatabaseClient.obj
 0001:000031e0       ??Citerator@?$_Tree@V?$_Tmap_traits@KP8CDPDatabaseClient@@AEXAAVCAr@@KPAEK@ZU?$less@K@std@@V?$allocator@U?$pair@$$CBKP8CDPDatabaseClient@@AEXAAVCAr@@KPAEK@Z@std@@@4@$0A@@std@@@std@@QBEPAU?$pair@$$CBKP8CDPDatabaseClient@@AEXAAVCAr@@KPAEK@Z@2@XZ 004041e0 f i DPDatabaseClient.obj
 0001:000031f0       ?begin@?$_Tree@V?$_Tmap_traits@KP8CDPDatabaseClient@@AEXAAVCAr@@KPAEK@ZU?$less@K@std@@V?$allocator@U?$pair@$$CBKP8CDPDatabaseClient@@AEXAAVCAr@@KPAEK@Z@std@@@4@$0A@@std@@@std@@QAE?AViterator@12@XZ 004041f0 f i DPDatabaseClient.obj
 0001:00003200       ?lower_bound@?$_Tree@V?$_Tmap_traits@KP8CDPDatabaseClient@@AEXAAVCAr@@KPAEK@ZU?$less@K@std@@V?$allocator@U?$pair@$$CBKP8CDPDatabaseClient@@AEXAAVCAr@@KPAEK@Z@std@@@4@$0A@@std@@@std@@QAE?AViterator@12@ABK@Z 00404200 f i DPDatabaseClient.obj
 0001:00003240       ?_Buynode@?$_Tree@V?$_Tmap_traits@KP8CDPDatabaseClient@@AEXAAVCAr@@KPAEK@ZU?$less@K@std@@V?$allocator@U?$pair@$$CBKP8CDPDatabaseClient@@AEXAAVCAr@@KPAEK@Z@std@@@4@$0A@@std@@@std@@IAEPAU_Node@?$_Tree_nod@V?$_Tmap_traits@KP8CDPDatabaseClient@@AEXAAVCAr@@KPAEK@ZU?$less@K@std@@V?$allocator@U?$pair@$$CBKP8CDPDatabaseClient@@AEXAAVCAr@@KPAEK@Z@std@@@4@$0A@@std@@@2@PAU342@00ABU?$pair@$$CBKP8CDPDatabaseClient@@AEXAAVCAr@@KPAEK@Z@2@D@Z 00404240 f i DPDatabaseClient.obj
 0001:00003280       ??Fconst_iterator@?$_Tree@V?$_Tmap_traits@KP8CDPDatabaseClient@@AEXAAVCAr@@KPAEK@ZU?$less@K@std@@V?$allocator@U?$pair@$$CBKP8CDPDatabaseClient@@AEXAAVCAr@@KPAEK@Z@std@@@4@$0A@@std@@@std@@QAEAAV012@XZ 00404280 f i DPDatabaseClient.obj
 0001:00003290       ?_Buynode@?$_Tree@V?$_Tmap_traits@KP8CDPDatabaseClient@@AEXAAVCAr@@KPAEK@ZU?$less@K@std@@V?$allocator@U?$pair@$$CBKP8CDPDatabaseClient@@AEXAAVCAr@@KPAEK@Z@std@@@4@$0A@@std@@@std@@IAEPAU_Node@?$_Tree_nod@V?$_Tmap_traits@KP8CDPDatabaseClient@@AEXAAVCAr@@KPAEK@ZU?$less@K@std@@V?$allocator@U?$pair@$$CBKP8CDPDatabaseClient@@AEXAAVCAr@@KPAEK@Z@std@@@4@$0A@@std@@@2@XZ 00404290 f i DPDatabaseClient.obj
 0001:000032d0       ??0?$_Tree_ptr@V?$_Tmap_traits@KP8CDPDatabaseClient@@AEXAAVCAr@@KPAEK@ZU?$less@K@std@@V?$allocator@U?$pair@$$CBKP8CDPDatabaseClient@@AEXAAVCAr@@KPAEK@Z@std@@@4@$0A@@std@@@std@@IAE@ABU?$less@K@1@V?$allocator@U?$pair@$$CBKP8CDPDatabaseClient@@AEXAAVCAr@@KPAEK@Z@std@@@1@@Z 004042d0 f i DPDatabaseClient.obj
 0001:000032e0       ?_Erase@?$_Tree@V?$_Tmap_traits@KP8CDPDatabaseClient@@AEXAAVCAr@@KPAEK@ZU?$less@K@std@@V?$allocator@U?$pair@$$CBKP8CDPDatabaseClient@@AEXAAVCAr@@KPAEK@Z@std@@@4@$0A@@std@@@std@@IAEXPAU_Node@?$_Tree_nod@V?$_Tmap_traits@KP8CDPDatabaseClient@@AEXAAVCAr@@KPAEK@ZU?$less@K@std@@V?$allocator@U?$pair@$$CBKP8CDPDatabaseClient@@AEXAAVCAr@@KPAEK@Z@std@@@4@$0A@@std@@@2@@Z 004042e0 f i DPDatabaseClient.obj
 0001:00003320       ??Eiterator@?$_Tree@V?$_Tmap_traits@KP8CDPDatabaseClient@@AEXAAVCAr@@KPAEK@ZU?$less@K@std@@V?$allocator@U?$pair@$$CBKP8CDPDatabaseClient@@AEXAAVCAr@@KPAEK@Z@std@@@4@$0A@@std@@@std@@QAEAAV012@XZ 00404320 f i DPDatabaseClient.obj
 0001:00003330       ?find@?$_Tree@V?$_Tmap_traits@KP8CDPDatabaseClient@@AEXAAVCAr@@KPAEK@ZU?$less@K@std@@V?$allocator@U?$pair@$$CBKP8CDPDatabaseClient@@AEXAAVCAr@@KPAEK@Z@std@@@4@$0A@@std@@@std@@QAE?AViterator@12@ABK@Z 00404330 f i DPDatabaseClient.obj
 0001:000033a0       ??Fiterator@?$_Tree@V?$_Tmap_traits@KP8CDPDatabaseClient@@AEXAAVCAr@@KPAEK@ZU?$less@K@std@@V?$allocator@U?$pair@$$CBKP8CDPDatabaseClient@@AEXAAVCAr@@KPAEK@Z@std@@@4@$0A@@std@@@std@@QAEAAV012@XZ 004043a0 f i DPDatabaseClient.obj
 0001:000033b0       ?_Init@?$_Tree@V?$_Tmap_traits@KP8CDPDatabaseClient@@AEXAAVCAr@@KPAEK@ZU?$less@K@std@@V?$allocator@U?$pair@$$CBKP8CDPDatabaseClient@@AEXAAVCAr@@KPAEK@Z@std@@@4@$0A@@std@@@std@@IAEXXZ 004043b0 f i DPDatabaseClient.obj
 0001:000033e0       ??0?$_Tree_val@V?$_Tmap_traits@KP8CDPDatabaseClient@@AEXAAVCAr@@KPAEK@ZU?$less@K@std@@V?$allocator@U?$pair@$$CBKP8CDPDatabaseClient@@AEXAAVCAr@@KPAEK@Z@std@@@4@$0A@@std@@@std@@IAE@ABU?$less@K@1@V?$allocator@U?$pair@$$CBKP8CDPDatabaseClient@@AEXAAVCAr@@KPAEK@Z@std@@@1@@Z 004043e0 f i DPDatabaseClient.obj
 0001:000033f0       ?clear@?$_Tree@V?$_Tmap_traits@KP8CDPDatabaseClient@@AEXAAVCAr@@KPAEK@ZU?$less@K@std@@V?$allocator@U?$pair@$$CBKP8CDPDatabaseClient@@AEXAAVCAr@@KPAEK@Z@std@@@4@$0A@@std@@@std@@QAEXXZ 004043f0 f i DPDatabaseClient.obj
 0001:00003420       ??Eiterator@?$_Tree@V?$_Tmap_traits@KP8CDPDatabaseClient@@AEXAAVCAr@@KPAEK@ZU?$less@K@std@@V?$allocator@U?$pair@$$CBKP8CDPDatabaseClient@@AEXAAVCAr@@KPAEK@Z@std@@@4@$0A@@std@@@std@@QAE?AV012@H@Z 00404420 f i DPDatabaseClient.obj
 0001:00003440       ?GetHandler@CDPDatabaseClient@@AAEP81@AEXAAVCAr@@KPAEK@ZK@Z 00404440 f i DPDatabaseClient.obj
 0001:00003470       ?UserMessageHandler@CDPDatabaseClient@@UAEXPAUDPMSG_GENERIC@@KK@Z 00404470 f   DPDatabaseClient.obj
 0001:00003580       ??0?$_Tree@V?$_Tmap_traits@KP8CDPDatabaseClient@@AEXAAVCAr@@KPAEK@ZU?$less@K@std@@V?$allocator@U?$pair@$$CBKP8CDPDatabaseClient@@AEXAAVCAr@@KPAEK@Z@std@@@4@$0A@@std@@@std@@QAE@ABU?$less@K@1@ABV?$allocator@U?$pair@$$CBKP8CDPDatabaseClient@@AEXAAVCAr@@KPAEK@Z@std@@@1@@Z 00404580 f i DPDatabaseClient.obj
 0001:000035b0       ?_Insert@?$_Tree@V?$_Tmap_traits@KP8CDPDatabaseClient@@AEXAAVCAr@@KPAEK@ZU?$less@K@std@@V?$allocator@U?$pair@$$CBKP8CDPDatabaseClient@@AEXAAVCAr@@KPAEK@Z@std@@@4@$0A@@std@@@std@@IAE?AViterator@12@_NPAU_Node@?$_Tree_nod@V?$_Tmap_traits@KP8CDPDatabaseClient@@AEXAAVCAr@@KPAEK@ZU?$less@K@std@@V?$allocator@U?$pair@$$CBKP8CDPDatabaseClient@@AEXAAVCAr@@KPAEK@Z@std@@@4@$0A@@std@@@2@ABU?$pair@$$CBKP8CDPDatabaseClient@@AEXAAVCAr@@KPAEK@Z@2@@Z 004045b0 f i DPDatabaseClient.obj
 0001:00003760       ?erase@?$_Tree@V?$_Tmap_traits@KP8CDPDatabaseClient@@AEXAAVCAr@@KPAEK@ZU?$less@K@std@@V?$allocator@U?$pair@$$CBKP8CDPDatabaseClient@@AEXAAVCAr@@KPAEK@Z@std@@@4@$0A@@std@@@std@@QAE?AViterator@12@V312@@Z 00404760 f i DPDatabaseClient.obj
 0001:00003a20       ?insert@?$_Tree@V?$_Tmap_traits@KP8CDPDatabaseClient@@AEXAAVCAr@@KPAEK@ZU?$less@K@std@@V?$allocator@U?$pair@$$CBKP8CDPDatabaseClient@@AEXAAVCAr@@KPAEK@Z@std@@@4@$0A@@std@@@std@@QAE?AU?$pair@Viterator@?$_Tree@V?$_Tmap_traits@KP8CDPDatabaseClient@@AEXAAVCAr@@KPAEK@ZU?$less@K@std@@V?$allocator@U?$pair@$$CBKP8CDPDatabaseClient@@AEXAAVCAr@@KPAEK@Z@std@@@4@$0A@@std@@@std@@_N@2@ABU?$pair@$$CBKP8CDPDatabaseClient@@AEXAAVCAr@@KPAEK@Z@2@@Z 00404a20 f i DPDatabaseClient.obj
 0001:00003ae0       ?erase@?$_Tree@V?$_Tmap_traits@KP8CDPDatabaseClient@@AEXAAVCAr@@KPAEK@ZU?$less@K@std@@V?$allocator@U?$pair@$$CBKP8CDPDatabaseClient@@AEXAAVCAr@@KPAEK@Z@std@@@4@$0A@@std@@@std@@QAE?AViterator@12@V312@0@Z 00404ae0 f i DPDatabaseClient.obj
 0001:00003ba0       ?_Tidy@?$_Tree@V?$_Tmap_traits@KP8CDPDatabaseClient@@AEXAAVCAr@@KPAEK@ZU?$less@K@std@@V?$allocator@U?$pair@$$CBKP8CDPDatabaseClient@@AEXAAVCAr@@KPAEK@Z@std@@@4@$0A@@std@@@std@@IAEXXZ 00404ba0 f i DPDatabaseClient.obj
 0001:00003bd0       ??1?$_Tree@V?$_Tmap_traits@KP8CDPDatabaseClient@@AEXAAVCAr@@KPAEK@ZU?$less@K@std@@V?$allocator@U?$pair@$$CBKP8CDPDatabaseClient@@AEXAAVCAr@@KPAEK@Z@std@@@4@$0A@@std@@@std@@QAE@XZ 00404bd0 f i DPDatabaseClient.obj
 0001:00003c00       ??1?$map@KP8CDPDatabaseClient@@AEXAAVCAr@@KPAEK@ZU?$less@K@std@@V?$allocator@U?$pair@$$CBKP8CDPDatabaseClient@@AEXAAVCAr@@KPAEK@Z@std@@@4@@std@@QAE@XZ 00404c00 f i DPDatabaseClient.obj
 0001:00003c30       ??1CDPDatabaseClient@@UAE@XZ 00404c30 f   DPDatabaseClient.obj
 0001:00003cb0       ??0?$map@KP8CDPDatabaseClient@@AEXAAVCAr@@KPAEK@ZU?$less@K@std@@V?$allocator@U?$pair@$$CBKP8CDPDatabaseClient@@AEXAAVCAr@@KPAEK@Z@std@@@4@@std@@QAE@XZ 00404cb0 f i DPDatabaseClient.obj
 0001:00003ce0       ??0CDPDatabaseClient@@QAE@XZ 00404ce0 f   DPDatabaseClient.obj
 0001:00003e00       ??_ECDPDatabaseClient@@UAEPAXI@Z 00404e00 f i DPDatabaseClient.obj
 0001:00003e00       ??_GCDPDatabaseClient@@UAEPAXI@Z 00404e00 f i DPDatabaseClient.obj
 0001:00003e20       ??6@YAAAVCAr@@AAV0@_J@Z    00404e20 f i DPLoginSrvr.obj
 0001:00003e40       ?SendToServer@CDPDatabaseClient@@QAEXKPAXK@Z 00404e40 f i DPLoginSrvr.obj
 0001:00003e70       ?SetAuth@CUser@@QAEXH@Z    00404e70 f i DPLoginSrvr.obj
 0001:00003e80       ?GetAuth@CUser@@QAEHXZ     00404e80 f i DPLoginSrvr.obj
 0001:00003e90       ?AddCahce@CDPLoginSrvr@@QAEXPBD@Z 00404e90 f   DPLoginSrvr.obj
 0001:00003ec0       ?CacheIn@CDPLoginSrvr@@QAEHXZ 00404ec0 f   DPLoginSrvr.obj
 0001:00003f00       ?CacheOut@CDPLoginSrvr@@QAEXH@Z 00404f00 f   DPLoginSrvr.obj
 0001:00003f10       ?SendCacheAddr@CDPLoginSrvr@@QAEXHK@Z 00404f10 f   DPLoginSrvr.obj
 0001:00004000       ?SendError@CDPLoginSrvr@@QAEXJK@Z 00405000 f   DPLoginSrvr.obj
 0001:000040f0       ?SendHdr@CDPLoginSrvr@@QAEXKK@Z 004050f0 f   DPLoginSrvr.obj
 0001:000041c0       ?OnRemoveConnection@CDPLoginSrvr@@AAEXK@Z 004051c0 f   DPLoginSrvr.obj
 0001:000041d0       ?SendNumPadId@CDPLoginSrvr@@AAEXK@Z 004051d0 f   DPLoginSrvr.obj
 0001:000042d0       ??0?$pair@$$CBKP8CDPLoginSrvr@@AEXAAVCAr@@K@Z@std@@QAE@ABKABQ8CDPLoginSrvr@@AEXAAVCAr@@K@Z@Z 004052d0 f i DPLoginSrvr.obj
 0001:000042f0       ?Free@?$MemPooler@VCUser@@@@QAEHPAVCUser@@@Z 004052f0 f i DPLoginSrvr.obj
 0001:00004340       ?_Isnil@?$_Tree@V?$_Tmap_traits@KP8CDPLoginSrvr@@AEXAAVCAr@@K@ZU?$less@K@std@@V?$allocator@U?$pair@$$CBKP8CDPLoginSrvr@@AEXAAVCAr@@K@Z@std@@@4@$0A@@std@@@std@@KAAADPAU_Node@?$_Tree_nod@V?$_Tmap_traits@KP8CDPLoginSrvr@@AEXAAVCAr@@K@ZU?$less@K@std@@V?$allocator@U?$pair@$$CBKP8CDPLoginSrvr@@AEXAAVCAr@@K@Z@std@@@4@$0A@@std@@@2@@Z 00405340 f i DPLoginSrvr.obj
 0001:00004350       ?_Left@?$_Tree@V?$_Tmap_traits@KP8CDPLoginSrvr@@AEXAAVCAr@@K@ZU?$less@K@std@@V?$allocator@U?$pair@$$CBKP8CDPLoginSrvr@@AEXAAVCAr@@K@Z@std@@@4@$0A@@std@@@std@@KAAAPAU_Node@?$_Tree_nod@V?$_Tmap_traits@KP8CDPLoginSrvr@@AEXAAVCAr@@K@ZU?$less@K@std@@V?$allocator@U?$pair@$$CBKP8CDPLoginSrvr@@AEXAAVCAr@@K@Z@std@@@4@$0A@@std@@@2@PAU342@@Z 00405350 f i DPLoginSrvr.obj
 0001:00004360       ?_Right@?$_Tree@V?$_Tmap_traits@KP8CDPLoginSrvr@@AEXAAVCAr@@K@ZU?$less@K@std@@V?$allocator@U?$pair@$$CBKP8CDPLoginSrvr@@AEXAAVCAr@@K@Z@std@@@4@$0A@@std@@@std@@KAAAPAU_Node@?$_Tree_nod@V?$_Tmap_traits@KP8CDPLoginSrvr@@AEXAAVCAr@@K@ZU?$less@K@std@@V?$allocator@U?$pair@$$CBKP8CDPLoginSrvr@@AEXAAVCAr@@K@Z@std@@@4@$0A@@std@@@2@PAU342@@Z 00405360 f i DPLoginSrvr.obj
 0001:00004370       ?_Kfn@?$_Tmap_traits@KP8CDPLoginSrvr@@AEXAAVCAr@@K@ZU?$less@K@std@@V?$allocator@U?$pair@$$CBKP8CDPLoginSrvr@@AEXAAVCAr@@K@Z@std@@@4@$0A@@std@@SAABKABU?$pair@$$CBKP8CDPLoginSrvr@@AEXAAVCAr@@K@Z@2@@Z 00405370 f i DPLoginSrvr.obj
 0001:00004380       ??0?$allocator@U?$pair@$$CBKP8CDPLoginSrvr@@AEXAAVCAr@@K@Z@std@@@std@@QAE@XZ 00405380 f i DPLoginSrvr.obj
 0001:00004390       ??8const_iterator@?$_Tree@V?$_Tmap_traits@KP8CDPLoginSrvr@@AEXAAVCAr@@K@ZU?$less@K@std@@V?$allocator@U?$pair@$$CBKP8CDPLoginSrvr@@AEXAAVCAr@@K@Z@std@@@4@$0A@@std@@@std@@QBE_NABV012@@Z 00405390 f i DPLoginSrvr.obj
 0001:000043a0       ?_Mynode@const_iterator@?$_Tree@V?$_Tmap_traits@KP8CDPLoginSrvr@@AEXAAVCAr@@K@ZU?$less@K@std@@V?$allocator@U?$pair@$$CBKP8CDPLoginSrvr@@AEXAAVCAr@@K@Z@std@@@4@$0A@@std@@@std@@QBEPAU_Node@?$_Tree_nod@V?$_Tmap_traits@KP8CDPLoginSrvr@@AEXAAVCAr@@K@ZU?$less@K@std@@V?$allocator@U?$pair@$$CBKP8CDPLoginSrvr@@AEXAAVCAr@@K@Z@std@@@4@$0A@@std@@@3@XZ 004053a0 f i DPLoginSrvr.obj
 0001:000043b0       ??0?$pair@Viterator@?$_Tree@V?$_Tmap_traits@KP8CDPLoginSrvr@@AEXAAVCAr@@K@ZU?$less@K@std@@V?$allocator@U?$pair@$$CBKP8CDPLoginSrvr@@AEXAAVCAr@@K@Z@std@@@4@$0A@@std@@@std@@_N@std@@QAE@ABViterator@?$_Tree@V?$_Tmap_traits@KP8CDPLoginSrvr@@AEXAAVCAr@@K@ZU?$less@K@std@@V?$allocator@U?$pair@$$CBKP8CDPLoginSrvr@@AEXAAVCAr@@K@Z@std@@@4@$0A@@std@@@1@AB_N@Z 004053b0 f i DPLoginSrvr.obj
 0001:000043d0       ?_Color@?$_Tree@V?$_Tmap_traits@KP8CDPLoginSrvr@@AEXAAVCAr@@K@ZU?$less@K@std@@V?$allocator@U?$pair@$$CBKP8CDPLoginSrvr@@AEXAAVCAr@@K@Z@std@@@4@$0A@@std@@@std@@KAAADPAU_Node@?$_Tree_nod@V?$_Tmap_traits@KP8CDPLoginSrvr@@AEXAAVCAr@@K@ZU?$less@K@std@@V?$allocator@U?$pair@$$CBKP8CDPLoginSrvr@@AEXAAVCAr@@K@Z@std@@@4@$0A@@std@@@2@@Z 004053d0 f i DPLoginSrvr.obj
 0001:000043e0       ?_Parent@?$_Tree@V?$_Tmap_traits@KP8CDPLoginSrvr@@AEXAAVCAr@@K@ZU?$less@K@std@@V?$allocator@U?$pair@$$CBKP8CDPLoginSrvr@@AEXAAVCAr@@K@Z@std@@@4@$0A@@std@@@std@@KAAAPAU_Node@?$_Tree_nod@V?$_Tmap_traits@KP8CDPLoginSrvr@@AEXAAVCAr@@K@ZU?$less@K@std@@V?$allocator@U?$pair@$$CBKP8CDPLoginSrvr@@AEXAAVCAr@@K@Z@std@@@4@$0A@@std@@@2@PAU342@@Z 004053e0 f i DPLoginSrvr.obj
 0001:000043f0       ?_Myval@?$_Tree@V?$_Tmap_traits@KP8CDPLoginSrvr@@AEXAAVCAr@@K@ZU?$less@K@std@@V?$allocator@U?$pair@$$CBKP8CDPLoginSrvr@@AEXAAVCAr@@K@Z@std@@@4@$0A@@std@@@std@@KAAAU?$pair@$$CBKP8CDPLoginSrvr@@AEXAAVCAr@@K@Z@2@PAU_Node@?$_Tree_nod@V?$_Tmap_traits@KP8CDPLoginSrvr@@AEXAAVCAr@@K@ZU?$less@K@std@@V?$allocator@U?$pair@$$CBKP8CDPLoginSrvr@@AEXAAVCAr@@K@Z@std@@@4@$0A@@std@@@2@@Z 004053f0 f i DPLoginSrvr.obj
 0001:00004400       ?_Lmost@?$_Tree@V?$_Tmap_traits@KP8CDPLoginSrvr@@AEXAAVCAr@@K@ZU?$less@K@std@@V?$allocator@U?$pair@$$CBKP8CDPLoginSrvr@@AEXAAVCAr@@K@Z@std@@@4@$0A@@std@@@std@@IAEAAPAU_Node@?$_Tree_nod@V?$_Tmap_traits@KP8CDPLoginSrvr@@AEXAAVCAr@@K@ZU?$less@K@std@@V?$allocator@U?$pair@$$CBKP8CDPLoginSrvr@@AEXAAVCAr@@K@Z@std@@@4@$0A@@std@@@2@XZ 00405400 f i DPLoginSrvr.obj
 0001:00004410       ?_Rmost@?$_Tree@V?$_Tmap_traits@KP8CDPLoginSrvr@@AEXAAVCAr@@K@ZU?$less@K@std@@V?$allocator@U?$pair@$$CBKP8CDPLoginSrvr@@AEXAAVCAr@@K@Z@std@@@4@$0A@@std@@@std@@IAEAAPAU_Node@?$_Tree_nod@V?$_Tmap_traits@KP8CDPLoginSrvr@@AEXAAVCAr@@K@ZU?$less@K@std@@V?$allocator@U?$pair@$$CBKP8CDPLoginSrvr@@AEXAAVCAr@@K@Z@std@@@4@$0A@@std@@@2@XZ 00405410 f i DPLoginSrvr.obj
 0001:00004420       ??0?$allocator@U?$pair@$$CBKP8CDPLoginSrvr@@AEXAAVCAr@@K@Z@std@@@std@@QAE@ABV01@@Z 00405420 f i DPLoginSrvr.obj
 0001:00004430       ?deallocate@?$allocator@U_Node@?$_Tree_nod@V?$_Tmap_traits@KP8CDPLoginSrvr@@AEXAAVCAr@@K@ZU?$less@K@std@@V?$allocator@U?$pair@$$CBKP8CDPLoginSrvr@@AEXAAVCAr@@K@Z@std@@@4@$0A@@std@@@std@@@std@@QAEXPAU_Node@?$_Tree_nod@V?$_Tmap_traits@KP8CDPLoginSrvr@@AEXAAVCAr@@K@ZU?$less@K@std@@V?$allocator@U?$pair@$$CBKP8CDPLoginSrvr@@AEXAAVCAr@@K@Z@std@@@4@$0A@@std@@@2@I@Z 00405430 f i DPLoginSrvr.obj
 0001:00004440       ??0const_iterator@?$_Tree@V?$_Tmap_traits@KP8CDPLoginSrvr@@AEXAAVCAr@@K@ZU?$less@K@std@@V?$allocator@U?$pair@$$CBKP8CDPLoginSrvr@@AEXAAVCAr@@K@Z@std@@@4@$0A@@std@@@std@@QAE@PAU_Node@?$_Tree_nod@V?$_Tmap_traits@KP8CDPLoginSrvr@@AEXAAVCAr@@K@ZU?$less@K@std@@V?$allocator@U?$pair@$$CBKP8CDPLoginSrvr@@AEXAAVCAr@@K@Z@std@@@4@$0A@@std@@@2@@Z 00405440 f i DPLoginSrvr.obj
 0001:00004450       ??Dconst_iterator@?$_Tree@V?$_Tmap_traits@KP8CDPLoginSrvr@@AEXAAVCAr@@K@ZU?$less@K@std@@V?$allocator@U?$pair@$$CBKP8CDPLoginSrvr@@AEXAAVCAr@@K@Z@std@@@4@$0A@@std@@@std@@QBEABU?$pair@$$CBKP8CDPLoginSrvr@@AEXAAVCAr@@K@Z@2@XZ 00405450 f i DPLoginSrvr.obj
 0001:00004460       ?_Root@?$_Tree@V?$_Tmap_traits@KP8CDPLoginSrvr@@AEXAAVCAr@@K@ZU?$less@K@std@@V?$allocator@U?$pair@$$CBKP8CDPLoginSrvr@@AEXAAVCAr@@K@Z@std@@@4@$0A@@std@@@std@@IBEAAPAU_Node@?$_Tree_nod@V?$_Tmap_traits@KP8CDPLoginSrvr@@AEXAAVCAr@@K@ZU?$less@K@std@@V?$allocator@U?$pair@$$CBKP8CDPLoginSrvr@@AEXAAVCAr@@K@Z@std@@@4@$0A@@std@@@2@XZ 00405460 f i DPLoginSrvr.obj
 0001:00004470       ?max_size@?$allocator@U?$pair@$$CBKP8CDPLoginSrvr@@AEXAAVCAr@@K@Z@std@@@std@@QBEIXZ 00405470 f i DPLoginSrvr.obj
 0001:00004480       ??0_Node@?$_Tree_nod@V?$_Tmap_traits@KP8CDPLoginSrvr@@AEXAAVCAr@@K@ZU?$less@K@std@@V?$allocator@U?$pair@$$CBKP8CDPLoginSrvr@@AEXAAVCAr@@K@Z@std@@@4@$0A@@std@@@std@@QAE@PAU012@00ABU?$pair@$$CBKP8CDPLoginSrvr@@AEXAAVCAr@@K@Z@2@D@Z 00405480 f i DPLoginSrvr.obj
 0001:000044c0       ?_Nextnode@?$list@PAXV?$allocator@PAX@std@@@std@@KAAAPAU_Node@?$_List_nod@PAXV?$allocator@PAX@std@@@2@PAU342@@Z 004054c0 f i DPLoginSrvr.obj
 0001:000044d0       ?_Prevnode@?$list@PAXV?$allocator@PAX@std@@@std@@KAAAPAU_Node@?$_List_nod@PAXV?$allocator@PAX@std@@@2@PAU342@@Z 004054d0 f i DPLoginSrvr.obj
 0001:000044e0       ?_Max@?$_Tree@V?$_Tmap_traits@KP8CDPLoginSrvr@@AEXAAVCAr@@K@ZU?$less@K@std@@V?$allocator@U?$pair@$$CBKP8CDPLoginSrvr@@AEXAAVCAr@@K@Z@std@@@4@$0A@@std@@@std@@KAPAU_Node@?$_Tree_nod@V?$_Tmap_traits@KP8CDPLoginSrvr@@AEXAAVCAr@@K@ZU?$less@K@std@@V?$allocator@U?$pair@$$CBKP8CDPLoginSrvr@@AEXAAVCAr@@K@Z@std@@@4@$0A@@std@@@2@PAU342@@Z 004054e0 f i DPLoginSrvr.obj
 0001:00004500       ?_Min@?$_Tree@V?$_Tmap_traits@KP8CDPLoginSrvr@@AEXAAVCAr@@K@ZU?$less@K@std@@V?$allocator@U?$pair@$$CBKP8CDPLoginSrvr@@AEXAAVCAr@@K@Z@std@@@4@$0A@@std@@@std@@KAPAU_Node@?$_Tree_nod@V?$_Tmap_traits@KP8CDPLoginSrvr@@AEXAAVCAr@@K@ZU?$less@K@std@@V?$allocator@U?$pair@$$CBKP8CDPLoginSrvr@@AEXAAVCAr@@K@Z@std@@@4@$0A@@std@@@2@PAU342@@Z 00405500 f i DPLoginSrvr.obj
 0001:00004520       ?_Mynode@const_iterator@?$list@PAXV?$allocator@PAX@std@@@std@@QBEPAU_Node@?$_List_nod@PAXV?$allocator@PAX@std@@@3@XZ 00405520 f i DPLoginSrvr.obj
 0001:00004530       ?deallocate@?$allocator@U_Node@?$_List_nod@PAXV?$allocator@PAX@std@@@std@@@std@@QAEXPAU_Node@?$_List_nod@PAXV?$allocator@PAX@std@@@2@I@Z 00405530 f i DPLoginSrvr.obj
 0001:00004540       ??0?$_Tmap_traits@KP8CDPLoginSrvr@@AEXAAVCAr@@K@ZU?$less@K@std@@V?$allocator@U?$pair@$$CBKP8CDPLoginSrvr@@AEXAAVCAr@@K@Z@std@@@4@$0A@@std@@QAE@U?$less@K@1@@Z 00405540 f i DPLoginSrvr.obj
 0001:00004550       ??0const_iterator@?$list@PAXV?$allocator@PAX@std@@@std@@QAE@PAU_Node@?$_List_nod@PAXV?$allocator@PAX@std@@@2@@Z 00405550 f i DPLoginSrvr.obj
 0001:00004560       ??0_Node@?$_List_nod@PAXV?$allocator@PAX@std@@@std@@QAE@PAU012@0ABQAX@Z 00405560 f i DPLoginSrvr.obj
 0001:00004580       ?max_size@?$allocator@PAX@std@@QBEIXZ 00405580 f i DPLoginSrvr.obj
 0001:00004590       ?_Inc@const_iterator@?$_Tree@V?$_Tmap_traits@KP8CDPLoginSrvr@@AEXAAVCAr@@K@ZU?$less@K@std@@V?$allocator@U?$pair@$$CBKP8CDPLoginSrvr@@AEXAAVCAr@@K@Z@std@@@4@$0A@@std@@@std@@QAEXXZ 00405590 f i DPLoginSrvr.obj
 0001:000045f0       ??$_Destroy@PAU_Node@?$_Tree_nod@V?$_Tmap_traits@KP8CDPLoginSrvr@@AEXAAVCAr@@K@ZU?$less@K@std@@V?$allocator@U?$pair@$$CBKP8CDPLoginSrvr@@AEXAAVCAr@@K@Z@std@@@4@$0A@@std@@@std@@@std@@YAXPAPAU_Node@?$_Tree_nod@V?$_Tmap_traits@KP8CDPLoginSrvr@@AEXAAVCAr@@K@ZU?$less@K@std@@V?$allocator@U?$pair@$$CBKP8CDPLoginSrvr@@AEXAAVCAr@@K@Z@std@@@4@$0A@@std@@@0@@Z 004055f0 f i DPLoginSrvr.obj
 0001:00004600       ??$?0U?$pair@$$CBKP8CDPLoginSrvr@@AEXAAVCAr@@K@Z@std@@@?$allocator@PAU_Node@?$_Tree_nod@V?$_Tmap_traits@KP8CDPLoginSrvr@@AEXAAVCAr@@K@ZU?$less@K@std@@V?$allocator@U?$pair@$$CBKP8CDPLoginSrvr@@AEXAAVCAr@@K@Z@std@@@4@$0A@@std@@@std@@@std@@QAE@ABV?$allocator@U?$pair@$$CBKP8CDPLoginSrvr@@AEXAAVCAr@@K@Z@std@@@1@@Z 00405600 f i DPLoginSrvr.obj
 0001:00004610       ??$_Allocate@U_Node@?$_Tree_nod@V?$_Tmap_traits@KP8CDPLoginSrvr@@AEXAAVCAr@@K@ZU?$less@K@std@@V?$allocator@U?$pair@$$CBKP8CDPLoginSrvr@@AEXAAVCAr@@K@Z@std@@@4@$0A@@std@@@std@@@std@@YAPAU_Node@?$_Tree_nod@V?$_Tmap_traits@KP8CDPLoginSrvr@@AEXAAVCAr@@K@ZU?$less@K@std@@V?$allocator@U?$pair@$$CBKP8CDPLoginSrvr@@AEXAAVCAr@@K@Z@std@@@4@$0A@@std@@@0@IPAU120@@Z 00405610 f i DPLoginSrvr.obj
 0001:00004630       ??$?0U?$pair@$$CBKP8CDPLoginSrvr@@AEXAAVCAr@@K@Z@std@@@?$allocator@U_Node@?$_Tree_nod@V?$_Tmap_traits@KP8CDPLoginSrvr@@AEXAAVCAr@@K@ZU?$less@K@std@@V?$allocator@U?$pair@$$CBKP8CDPLoginSrvr@@AEXAAVCAr@@K@Z@std@@@4@$0A@@std@@@std@@@std@@QAE@ABV?$allocator@U?$pair@$$CBKP8CDPLoginSrvr@@AEXAAVCAr@@K@Z@std@@@1@@Z 00405630 f i DPLoginSrvr.obj
 0001:00004640       ??$_Destroy@U_Node@?$_Tree_nod@V?$_Tmap_traits@KP8CDPLoginSrvr@@AEXAAVCAr@@K@ZU?$less@K@std@@V?$allocator@U?$pair@$$CBKP8CDPLoginSrvr@@AEXAAVCAr@@K@Z@std@@@4@$0A@@std@@@std@@@std@@YAXPAU_Node@?$_Tree_nod@V?$_Tmap_traits@KP8CDPLoginSrvr@@AEXAAVCAr@@K@ZU?$less@K@std@@V?$allocator@U?$pair@$$CBKP8CDPLoginSrvr@@AEXAAVCAr@@K@Z@std@@@4@$0A@@std@@@0@@Z 00405640 f i DPLoginSrvr.obj
 0001:00004650       ??$_Construct@PAU_Node@?$_Tree_nod@V?$_Tmap_traits@KP8CDPLoginSrvr@@AEXAAVCAr@@K@ZU?$less@K@std@@V?$allocator@U?$pair@$$CBKP8CDPLoginSrvr@@AEXAAVCAr@@K@Z@std@@@4@$0A@@std@@@std@@PAU123@@std@@YAXPAPAU_Node@?$_Tree_nod@V?$_Tmap_traits@KP8CDPLoginSrvr@@AEXAAVCAr@@K@ZU?$less@K@std@@V?$allocator@U?$pair@$$CBKP8CDPLoginSrvr@@AEXAAVCAr@@K@Z@std@@@4@$0A@@std@@@0@ABQAU120@@Z 00405650 f i DPLoginSrvr.obj
 0001:00004670       ??$_Allocate@U_Node@?$_List_nod@PAXV?$allocator@PAX@std@@@std@@@std@@YAPAU_Node@?$_List_nod@PAXV?$allocator@PAX@std@@@0@IPAU120@@Z 00405670 f i DPLoginSrvr.obj
 0001:00004690       ?GetTickCount@CTickCount@@QAE_JXZ 00405690 f i DPLoginSrvr.obj
 0001:000046c0       ??3CUser@@SAXPAX@Z         004056c0 f i DPLoginSrvr.obj
 0001:00004700       ?OnAddConnection@CDPLoginSrvr@@AAEXAAVCAr@@K@Z 00405700 f   DPLoginSrvr.obj
 0001:00004930       ?OnPing@CDPLoginSrvr@@AAEXAAVCAr@@K@Z 00405930 f   DPLoginSrvr.obj
 0001:00004a80       ?OnAuthQuery@CDPLoginSrvr@@AAEXAAVCAr@@K@Z 00405a80 f   DPLoginSrvr.obj
 0001:00004b30       ?OnQueryTickCount@CDPLoginSrvr@@AAEXAAVCAr@@K@Z 00405b30 f   DPLoginSrvr.obj
 0001:00004c80       ?SendLoginProtect@CDPLoginSrvr@@QAEXHK@Z 00405c80 f   DPLoginSrvr.obj
 0001:00004da0       ??9const_iterator@?$_Tree@V?$_Tmap_traits@KP8CDPLoginSrvr@@AEXAAVCAr@@K@ZU?$less@K@std@@V?$allocator@U?$pair@$$CBKP8CDPLoginSrvr@@AEXAAVCAr@@K@Z@std@@@4@$0A@@std@@@std@@QBE_NABV012@@Z 00405da0 f i DPLoginSrvr.obj
 0001:00004dc0       ?_Key@?$_Tree@V?$_Tmap_traits@KP8CDPLoginSrvr@@AEXAAVCAr@@K@ZU?$less@K@std@@V?$allocator@U?$pair@$$CBKP8CDPLoginSrvr@@AEXAAVCAr@@K@Z@std@@@4@$0A@@std@@@std@@KAABKPAU_Node@?$_Tree_nod@V?$_Tmap_traits@KP8CDPLoginSrvr@@AEXAAVCAr@@K@ZU?$less@K@std@@V?$allocator@U?$pair@$$CBKP8CDPLoginSrvr@@AEXAAVCAr@@K@Z@std@@@4@$0A@@std@@@2@@Z 00405dc0 f i DPLoginSrvr.obj
 0001:00004dd0       ?_Root@?$_Tree@V?$_Tmap_traits@KP8CDPLoginSrvr@@AEXAAVCAr@@K@ZU?$less@K@std@@V?$allocator@U?$pair@$$CBKP8CDPLoginSrvr@@AEXAAVCAr@@K@Z@std@@@4@$0A@@std@@@std@@IAEAAPAU_Node@?$_Tree_nod@V?$_Tmap_traits@KP8CDPLoginSrvr@@AEXAAVCAr@@K@ZU?$less@K@std@@V?$allocator@U?$pair@$$CBKP8CDPLoginSrvr@@AEXAAVCAr@@K@Z@std@@@4@$0A@@std@@@2@XZ 00405dd0 f i DPLoginSrvr.obj
 0001:00004de0       ??0iterator@?$_Tree@V?$_Tmap_traits@KP8CDPLoginSrvr@@AEXAAVCAr@@K@ZU?$less@K@std@@V?$allocator@U?$pair@$$CBKP8CDPLoginSrvr@@AEXAAVCAr@@K@Z@std@@@4@$0A@@std@@@std@@QAE@PAU_Node@?$_Tree_nod@V?$_Tmap_traits@KP8CDPLoginSrvr@@AEXAAVCAr@@K@ZU?$less@K@std@@V?$allocator@U?$pair@$$CBKP8CDPLoginSrvr@@AEXAAVCAr@@K@Z@std@@@4@$0A@@std@@@2@@Z 00405de0 f i DPLoginSrvr.obj
 0001:00004df0       ??Diterator@?$_Tree@V?$_Tmap_traits@KP8CDPLoginSrvr@@AEXAAVCAr@@K@ZU?$less@K@std@@V?$allocator@U?$pair@$$CBKP8CDPLoginSrvr@@AEXAAVCAr@@K@Z@std@@@4@$0A@@std@@@std@@QBEAAU?$pair@$$CBKP8CDPLoginSrvr@@AEXAAVCAr@@K@Z@2@XZ 00405df0 f i DPLoginSrvr.obj
 0001:00004e00       ?max_size@?$_Tree@V?$_Tmap_traits@KP8CDPLoginSrvr@@AEXAAVCAr@@K@ZU?$less@K@std@@V?$allocator@U?$pair@$$CBKP8CDPLoginSrvr@@AEXAAVCAr@@K@Z@std@@@4@$0A@@std@@@std@@QBEIXZ 00405e00 f i DPLoginSrvr.obj
 0001:00004e10       ?_Lbound@?$_Tree@V?$_Tmap_traits@KP8CDPLoginSrvr@@AEXAAVCAr@@K@ZU?$less@K@std@@V?$allocator@U?$pair@$$CBKP8CDPLoginSrvr@@AEXAAVCAr@@K@Z@std@@@4@$0A@@std@@@std@@IBEPAU_Node@?$_Tree_nod@V?$_Tmap_traits@KP8CDPLoginSrvr@@AEXAAVCAr@@K@ZU?$less@K@std@@V?$allocator@U?$pair@$$CBKP8CDPLoginSrvr@@AEXAAVCAr@@K@Z@std@@@4@$0A@@std@@@2@ABK@Z 00405e10 f i DPLoginSrvr.obj
 0001:00004e40       ?_Lrotate@?$_Tree@V?$_Tmap_traits@KP8CDPLoginSrvr@@AEXAAVCAr@@K@ZU?$less@K@std@@V?$allocator@U?$pair@$$CBKP8CDPLoginSrvr@@AEXAAVCAr@@K@Z@std@@@4@$0A@@std@@@std@@IAEXPAU_Node@?$_Tree_nod@V?$_Tmap_traits@KP8CDPLoginSrvr@@AEXAAVCAr@@K@ZU?$less@K@std@@V?$allocator@U?$pair@$$CBKP8CDPLoginSrvr@@AEXAAVCAr@@K@Z@std@@@4@$0A@@std@@@2@@Z 00405e40 f i DPLoginSrvr.obj
 0001:00004ea0       ?_Rrotate@?$_Tree@V?$_Tmap_traits@KP8CDPLoginSrvr@@AEXAAVCAr@@K@ZU?$less@K@std@@V?$allocator@U?$pair@$$CBKP8CDPLoginSrvr@@AEXAAVCAr@@K@Z@std@@@4@$0A@@std@@@std@@IAEXPAU_Node@?$_Tree_nod@V?$_Tmap_traits@KP8CDPLoginSrvr@@AEXAAVCAr@@K@ZU?$less@K@std@@V?$allocator@U?$pair@$$CBKP8CDPLoginSrvr@@AEXAAVCAr@@K@Z@std@@@4@$0A@@std@@@2@@Z 00405ea0 f i DPLoginSrvr.obj
 0001:00004f00       ?destroy@?$allocator@PAU_Node@?$_Tree_nod@V?$_Tmap_traits@KP8CDPLoginSrvr@@AEXAAVCAr@@K@ZU?$less@K@std@@V?$allocator@U?$pair@$$CBKP8CDPLoginSrvr@@AEXAAVCAr@@K@Z@std@@@4@$0A@@std@@@std@@@std@@QAEXPAPAU_Node@?$_Tree_nod@V?$_Tmap_traits@KP8CDPLoginSrvr@@AEXAAVCAr@@K@ZU?$less@K@std@@V?$allocator@U?$pair@$$CBKP8CDPLoginSrvr@@AEXAAVCAr@@K@Z@std@@@4@$0A@@std@@@2@@Z 00405f00 f i DPLoginSrvr.obj
 0001:00004f10       ?allocate@?$allocator@U_Node@?$_Tree_nod@V?$_Tmap_traits@KP8CDPLoginSrvr@@AEXAAVCAr@@K@ZU?$less@K@std@@V?$allocator@U?$pair@$$CBKP8CDPLoginSrvr@@AEXAAVCAr@@K@Z@std@@@4@$0A@@std@@@std@@@std@@QAEPAU_Node@?$_Tree_nod@V?$_Tmap_traits@KP8CDPLoginSrvr@@AEXAAVCAr@@K@ZU?$less@K@std@@V?$allocator@U?$pair@$$CBKP8CDPLoginSrvr@@AEXAAVCAr@@K@Z@std@@@4@$0A@@std@@@2@I@Z 00405f10 f i DPLoginSrvr.obj
 0001:00004f30       ?_Dec@const_iterator@?$_Tree@V?$_Tmap_traits@KP8CDPLoginSrvr@@AEXAAVCAr@@K@ZU?$less@K@std@@V?$allocator@U?$pair@$$CBKP8CDPLoginSrvr@@AEXAAVCAr@@K@Z@std@@@4@$0A@@std@@@std@@QAEXXZ 00405f30 f i DPLoginSrvr.obj
 0001:00004f90       ??0?$_Tree_nod@V?$_Tmap_traits@KP8CDPLoginSrvr@@AEXAAVCAr@@K@ZU?$less@K@std@@V?$allocator@U?$pair@$$CBKP8CDPLoginSrvr@@AEXAAVCAr@@K@Z@std@@@4@$0A@@std@@@std@@IAE@ABU?$less@K@1@V?$allocator@U?$pair@$$CBKP8CDPLoginSrvr@@AEXAAVCAr@@K@Z@std@@@1@@Z 00405f90 f i DPLoginSrvr.obj
 0001:00004fa0       ?destroy@?$allocator@U_Node@?$_Tree_nod@V?$_Tmap_traits@KP8CDPLoginSrvr@@AEXAAVCAr@@K@ZU?$less@K@std@@V?$allocator@U?$pair@$$CBKP8CDPLoginSrvr@@AEXAAVCAr@@K@Z@std@@@4@$0A@@std@@@std@@@std@@QAEXPAU_Node@?$_Tree_nod@V?$_Tmap_traits@KP8CDPLoginSrvr@@AEXAAVCAr@@K@ZU?$less@K@std@@V?$allocator@U?$pair@$$CBKP8CDPLoginSrvr@@AEXAAVCAr@@K@Z@std@@@4@$0A@@std@@@2@@Z 00405fa0 f i DPLoginSrvr.obj
 0001:00004fb0       ?construct@?$allocator@PAU_Node@?$_Tree_nod@V?$_Tmap_traits@KP8CDPLoginSrvr@@AEXAAVCAr@@K@ZU?$less@K@std@@V?$allocator@U?$pair@$$CBKP8CDPLoginSrvr@@AEXAAVCAr@@K@Z@std@@@4@$0A@@std@@@std@@@std@@QAEXPAPAU_Node@?$_Tree_nod@V?$_Tmap_traits@KP8CDPLoginSrvr@@AEXAAVCAr@@K@ZU?$less@K@std@@V?$allocator@U?$pair@$$CBKP8CDPLoginSrvr@@AEXAAVCAr@@K@Z@std@@@4@$0A@@std@@@2@ABQAU342@@Z 00405fb0 f i DPLoginSrvr.obj
 0001:00004fd0       ??0iterator@?$list@PAXV?$allocator@PAX@std@@@std@@QAE@PAU_Node@?$_List_nod@PAXV?$allocator@PAX@std@@@2@@Z 00405fd0 f i DPLoginSrvr.obj
 0001:00004fe0       ?max_size@?$list@PAXV?$allocator@PAX@std@@@std@@QBEIXZ 00405fe0 f i DPLoginSrvr.obj
 0001:00004ff0       ?allocate@?$allocator@U_Node@?$_List_nod@PAXV?$allocator@PAX@std@@@std@@@std@@QAEPAU_Node@?$_List_nod@PAXV?$allocator@PAX@std@@@2@I@Z 00405ff0 f i DPLoginSrvr.obj
 0001:00005010       ??Econst_iterator@?$_Tree@V?$_Tmap_traits@KP8CDPLoginSrvr@@AEXAAVCAr@@K@ZU?$less@K@std@@V?$allocator@U?$pair@$$CBKP8CDPLoginSrvr@@AEXAAVCAr@@K@Z@std@@@4@$0A@@std@@@std@@QAEAAV012@XZ 00406010 f i DPLoginSrvr.obj
 0001:00005020       ?OnPreJoin@CDPLoginSrvr@@AAEXAAVCAr@@K@Z 00406020 f   DPLoginSrvr.obj
 0001:000051f0       ?end@?$_Tree@V?$_Tmap_traits@KP8CDPLoginSrvr@@AEXAAVCAr@@K@ZU?$less@K@std@@V?$allocator@U?$pair@$$CBKP8CDPLoginSrvr@@AEXAAVCAr@@K@Z@std@@@4@$0A@@std@@@std@@QAE?AViterator@12@XZ 004061f0 f i DPLoginSrvr.obj
 0001:00005200       ??Citerator@?$_Tree@V?$_Tmap_traits@KP8CDPLoginSrvr@@AEXAAVCAr@@K@ZU?$less@K@std@@V?$allocator@U?$pair@$$CBKP8CDPLoginSrvr@@AEXAAVCAr@@K@Z@std@@@4@$0A@@std@@@std@@QBEPAU?$pair@$$CBKP8CDPLoginSrvr@@AEXAAVCAr@@K@Z@2@XZ 00406200 f i DPLoginSrvr.obj
 0001:00005210       ?begin@?$_Tree@V?$_Tmap_traits@KP8CDPLoginSrvr@@AEXAAVCAr@@K@ZU?$less@K@std@@V?$allocator@U?$pair@$$CBKP8CDPLoginSrvr@@AEXAAVCAr@@K@Z@std@@@4@$0A@@std@@@std@@QAE?AViterator@12@XZ 00406210 f i DPLoginSrvr.obj
 0001:00005220       ?lower_bound@?$_Tree@V?$_Tmap_traits@KP8CDPLoginSrvr@@AEXAAVCAr@@K@ZU?$less@K@std@@V?$allocator@U?$pair@$$CBKP8CDPLoginSrvr@@AEXAAVCAr@@K@Z@std@@@4@$0A@@std@@@std@@QAE?AViterator@12@ABK@Z 00406220 f i DPLoginSrvr.obj
 0001:00005260       ?_Buynode@?$_Tree@V?$_Tmap_traits@KP8CDPLoginSrvr@@AEXAAVCAr@@K@ZU?$less@K@std@@V?$allocator@U?$pair@$$CBKP8CDPLoginSrvr@@AEXAAVCAr@@K@Z@std@@@4@$0A@@std@@@std@@IAEPAU_Node@?$_Tree_nod@V?$_Tmap_traits@KP8CDPLoginSrvr@@AEXAAVCAr@@K@ZU?$less@K@std@@V?$allocator@U?$pair@$$CBKP8CDPLoginSrvr@@AEXAAVCAr@@K@Z@std@@@4@$0A@@std@@@2@PAU342@00ABU?$pair@$$CBKP8CDPLoginSrvr@@AEXAAVCAr@@K@Z@2@D@Z 00406260 f i DPLoginSrvr.obj
 0001:000052a0       ??Fconst_iterator@?$_Tree@V?$_Tmap_traits@KP8CDPLoginSrvr@@AEXAAVCAr@@K@ZU?$less@K@std@@V?$allocator@U?$pair@$$CBKP8CDPLoginSrvr@@AEXAAVCAr@@K@Z@std@@@4@$0A@@std@@@std@@QAEAAV012@XZ 004062a0 f i DPLoginSrvr.obj
 0001:000052b0       ?end@?$list@PAXV?$allocator@PAX@std@@@std@@QAE?AViterator@12@XZ 004062b0 f i DPLoginSrvr.obj
 0001:000052c0       ?_Buynode@?$_Tree@V?$_Tmap_traits@KP8CDPLoginSrvr@@AEXAAVCAr@@K@ZU?$less@K@std@@V?$allocator@U?$pair@$$CBKP8CDPLoginSrvr@@AEXAAVCAr@@K@Z@std@@@4@$0A@@std@@@std@@IAEPAU_Node@?$_Tree_nod@V?$_Tmap_traits@KP8CDPLoginSrvr@@AEXAAVCAr@@K@ZU?$less@K@std@@V?$allocator@U?$pair@$$CBKP8CDPLoginSrvr@@AEXAAVCAr@@K@Z@std@@@4@$0A@@std@@@2@XZ 004062c0 f i DPLoginSrvr.obj
 0001:00005300       ??0?$_Tree_ptr@V?$_Tmap_traits@KP8CDPLoginSrvr@@AEXAAVCAr@@K@ZU?$less@K@std@@V?$allocator@U?$pair@$$CBKP8CDPLoginSrvr@@AEXAAVCAr@@K@Z@std@@@4@$0A@@std@@@std@@IAE@ABU?$less@K@1@V?$allocator@U?$pair@$$CBKP8CDPLoginSrvr@@AEXAAVCAr@@K@Z@std@@@1@@Z 00406300 f i DPLoginSrvr.obj
 0001:00005310       ?_Buynode@?$list@PAXV?$allocator@PAX@std@@@std@@IAEPAU_Node@?$_List_nod@PAXV?$allocator@PAX@std@@@2@PAU342@0ABQAX@Z 00406310 f i DPLoginSrvr.obj
 0001:00005340       ?_Erase@?$_Tree@V?$_Tmap_traits@KP8CDPLoginSrvr@@AEXAAVCAr@@K@ZU?$less@K@std@@V?$allocator@U?$pair@$$CBKP8CDPLoginSrvr@@AEXAAVCAr@@K@Z@std@@@4@$0A@@std@@@std@@IAEXPAU_Node@?$_Tree_nod@V?$_Tmap_traits@KP8CDPLoginSrvr@@AEXAAVCAr@@K@ZU?$less@K@std@@V?$allocator@U?$pair@$$CBKP8CDPLoginSrvr@@AEXAAVCAr@@K@Z@std@@@4@$0A@@std@@@2@@Z 00406340 f i DPLoginSrvr.obj
 0001:00005380       ??Eiterator@?$_Tree@V?$_Tmap_traits@KP8CDPLoginSrvr@@AEXAAVCAr@@K@ZU?$less@K@std@@V?$allocator@U?$pair@$$CBKP8CDPLoginSrvr@@AEXAAVCAr@@K@Z@std@@@4@$0A@@std@@@std@@QAEAAV012@XZ 00406380 f i DPLoginSrvr.obj
 0001:00005390       ?find@?$_Tree@V?$_Tmap_traits@KP8CDPLoginSrvr@@AEXAAVCAr@@K@ZU?$less@K@std@@V?$allocator@U?$pair@$$CBKP8CDPLoginSrvr@@AEXAAVCAr@@K@Z@std@@@4@$0A@@std@@@std@@QAE?AViterator@12@ABK@Z 00406390 f i DPLoginSrvr.obj
 0001:00005400       ??Fiterator@?$_Tree@V?$_Tmap_traits@KP8CDPLoginSrvr@@AEXAAVCAr@@K@ZU?$less@K@std@@V?$allocator@U?$pair@$$CBKP8CDPLoginSrvr@@AEXAAVCAr@@K@Z@std@@@4@$0A@@std@@@std@@QAEAAV012@XZ 00406400 f i DPLoginSrvr.obj
 0001:00005410       ?_Init@?$_Tree@V?$_Tmap_traits@KP8CDPLoginSrvr@@AEXAAVCAr@@K@ZU?$less@K@std@@V?$allocator@U?$pair@$$CBKP8CDPLoginSrvr@@AEXAAVCAr@@K@Z@std@@@4@$0A@@std@@@std@@IAEXXZ 00406410 f i DPLoginSrvr.obj
 0001:00005440       ??0?$_Tree_val@V?$_Tmap_traits@KP8CDPLoginSrvr@@AEXAAVCAr@@K@ZU?$less@K@std@@V?$allocator@U?$pair@$$CBKP8CDPLoginSrvr@@AEXAAVCAr@@K@Z@std@@@4@$0A@@std@@@std@@IAE@ABU?$less@K@1@V?$allocator@U?$pair@$$CBKP8CDPLoginSrvr@@AEXAAVCAr@@K@Z@std@@@1@@Z 00406440 f i DPLoginSrvr.obj
 0001:00005450       ?clear@?$_Tree@V?$_Tmap_traits@KP8CDPLoginSrvr@@AEXAAVCAr@@K@ZU?$less@K@std@@V?$allocator@U?$pair@$$CBKP8CDPLoginSrvr@@AEXAAVCAr@@K@Z@std@@@4@$0A@@std@@@std@@QAEXXZ 00406450 f i DPLoginSrvr.obj
 0001:00005480       ??Eiterator@?$_Tree@V?$_Tmap_traits@KP8CDPLoginSrvr@@AEXAAVCAr@@K@ZU?$less@K@std@@V?$allocator@U?$pair@$$CBKP8CDPLoginSrvr@@AEXAAVCAr@@K@Z@std@@@4@$0A@@std@@@std@@QAE?AV012@H@Z 00406480 f i DPLoginSrvr.obj
 0001:000054a0       ?GetHandler@CDPLoginSrvr@@AAEP81@AEXAAVCAr@@K@ZK@Z 004064a0 f i DPLoginSrvr.obj
 0001:000054d0       ?UserMessageHandler@CDPLoginSrvr@@UAEXPAUDPMSG_GENERIC@@KK@Z 004064d0 f   DPLoginSrvr.obj
 0001:00005600       ??0?$_Tree@V?$_Tmap_traits@KP8CDPLoginSrvr@@AEXAAVCAr@@K@ZU?$less@K@std@@V?$allocator@U?$pair@$$CBKP8CDPLoginSrvr@@AEXAAVCAr@@K@Z@std@@@4@$0A@@std@@@std@@QAE@ABU?$less@K@1@ABV?$allocator@U?$pair@$$CBKP8CDPLoginSrvr@@AEXAAVCAr@@K@Z@std@@@1@@Z 00406600 f i DPLoginSrvr.obj
 0001:00005630       ?_Insert@?$_Tree@V?$_Tmap_traits@KP8CDPLoginSrvr@@AEXAAVCAr@@K@ZU?$less@K@std@@V?$allocator@U?$pair@$$CBKP8CDPLoginSrvr@@AEXAAVCAr@@K@Z@std@@@4@$0A@@std@@@std@@IAE?AViterator@12@_NPAU_Node@?$_Tree_nod@V?$_Tmap_traits@KP8CDPLoginSrvr@@AEXAAVCAr@@K@ZU?$less@K@std@@V?$allocator@U?$pair@$$CBKP8CDPLoginSrvr@@AEXAAVCAr@@K@Z@std@@@4@$0A@@std@@@2@ABU?$pair@$$CBKP8CDPLoginSrvr@@AEXAAVCAr@@K@Z@2@@Z 00406630 f i DPLoginSrvr.obj
 0001:000057e0       ?erase@?$_Tree@V?$_Tmap_traits@KP8CDPLoginSrvr@@AEXAAVCAr@@K@ZU?$less@K@std@@V?$allocator@U?$pair@$$CBKP8CDPLoginSrvr@@AEXAAVCAr@@K@Z@std@@@4@$0A@@std@@@std@@QAE?AViterator@12@V312@@Z 004067e0 f i DPLoginSrvr.obj
 0001:00005aa0       ?_Incsize@?$list@PAXV?$allocator@PAX@std@@@std@@IAEXI@Z 00406aa0 f i DPLoginSrvr.obj
 0001:00005b40       ?insert@?$_Tree@V?$_Tmap_traits@KP8CDPLoginSrvr@@AEXAAVCAr@@K@ZU?$less@K@std@@V?$allocator@U?$pair@$$CBKP8CDPLoginSrvr@@AEXAAVCAr@@K@Z@std@@@4@$0A@@std@@@std@@QAE?AU?$pair@Viterator@?$_Tree@V?$_Tmap_traits@KP8CDPLoginSrvr@@AEXAAVCAr@@K@ZU?$less@K@std@@V?$allocator@U?$pair@$$CBKP8CDPLoginSrvr@@AEXAAVCAr@@K@Z@std@@@4@$0A@@std@@@std@@_N@2@ABU?$pair@$$CBKP8CDPLoginSrvr@@AEXAAVCAr@@K@Z@2@@Z 00406b40 f i DPLoginSrvr.obj
 0001:00005c00       ?erase@?$_Tree@V?$_Tmap_traits@KP8CDPLoginSrvr@@AEXAAVCAr@@K@ZU?$less@K@std@@V?$allocator@U?$pair@$$CBKP8CDPLoginSrvr@@AEXAAVCAr@@K@Z@std@@@4@$0A@@std@@@std@@QAE?AViterator@12@V312@0@Z 00406c00 f i DPLoginSrvr.obj
 0001:00005cc0       ?_Insert@?$list@PAXV?$allocator@PAX@std@@@std@@QAEXViterator@12@ABQAX@Z 00406cc0 f i DPLoginSrvr.obj
 0001:00005d00       ?_Tidy@?$_Tree@V?$_Tmap_traits@KP8CDPLoginSrvr@@AEXAAVCAr@@K@ZU?$less@K@std@@V?$allocator@U?$pair@$$CBKP8CDPLoginSrvr@@AEXAAVCAr@@K@Z@std@@@4@$0A@@std@@@std@@IAEXXZ 00406d00 f i DPLoginSrvr.obj
 0001:00005d30       ?push_back@?$list@PAXV?$allocator@PAX@std@@@std@@QAEXABQAX@Z 00406d30 f i DPLoginSrvr.obj
 0001:00005d70       ??1?$_Tree@V?$_Tmap_traits@KP8CDPLoginSrvr@@AEXAAVCAr@@K@ZU?$less@K@std@@V?$allocator@U?$pair@$$CBKP8CDPLoginSrvr@@AEXAAVCAr@@K@Z@std@@@4@$0A@@std@@@std@@QAE@XZ 00406d70 f i DPLoginSrvr.obj
 0001:00005da0       ?Create@?$MemPooler@VCUser@@@@IAEXXZ 00406da0 f i DPLoginSrvr.obj
 0001:00005e30       ??1?$map@KP8CDPLoginSrvr@@AEXAAVCAr@@K@ZU?$less@K@std@@V?$allocator@U?$pair@$$CBKP8CDPLoginSrvr@@AEXAAVCAr@@K@Z@std@@@4@@std@@QAE@XZ 00406e30 f i DPLoginSrvr.obj
 0001:00005e60       ??1CDPLoginSrvr@@UAE@XZ    00406e60 f   DPLoginSrvr.obj
 0001:00005ee0       ??0?$map@KP8CDPLoginSrvr@@AEXAAVCAr@@K@ZU?$less@K@std@@V?$allocator@U?$pair@$$CBKP8CDPLoginSrvr@@AEXAAVCAr@@K@Z@std@@@4@@std@@QAE@XZ 00406ee0 f i DPLoginSrvr.obj
 0001:00005f10       ?Alloc@?$MemPooler@VCUser@@@@QAEPAVCUser@@XZ 00406f10 f i DPLoginSrvr.obj
 0001:00005f50       ??2CUser@@SAPAXI@Z         00406f50 f i DPLoginSrvr.obj
 0001:00005f90       ??0CDPLoginSrvr@@QAE@XZ    00406f90 f   DPLoginSrvr.obj
 0001:000060c0       ??_ECDPLoginSrvr@@UAEPAXI@Z 004070c0 f i DPLoginSrvr.obj
 0001:000060c0       ??_GCDPLoginSrvr@@UAEPAXI@Z 004070c0 f i DPLoginSrvr.obj
 0001:000060e0       ?SysMessageHandler@CDPLoginSrvr@@UAEXPAUDPMSG_GENERIC@@KK@Z 004070e0 f   DPLoginSrvr.obj
 0001:000062c0       ??0LOGIN_CACHE@CLoginProtect@@QAE@XZ 004072c0 f i LoginProtect.obj
 0001:000062e0       ?GetNumPad2PW@CLoginProtect@@QAEHKK@Z 004072e0 f   LoginProtect.obj
 0001:00006380       ??0?$pair@$$CBKK@std@@QAE@ABK0@Z 00407380 f i LoginProtect.obj
 0001:000063a0       ??0?$pair@$$CBKULOGIN_CACHE@CLoginProtect@@@std@@QAE@ABKABULOGIN_CACHE@CLoginProtect@@@Z 004073a0 f i LoginProtect.obj
 0001:000063c0       ?_Isnil@?$_Tree@V?$_Tmap_traits@KULOGIN_CACHE@CLoginProtect@@U?$less@K@std@@V?$allocator@U?$pair@$$CBKULOGIN_CACHE@CLoginProtect@@@std@@@4@$0A@@std@@@std@@KAAADPAU_Node@?$_Tree_nod@V?$_Tmap_traits@KULOGIN_CACHE@CLoginProtect@@U?$less@K@std@@V?$allocator@U?$pair@$$CBKULOGIN_CACHE@CLoginProtect@@@std@@@4@$0A@@std@@@2@@Z 004073c0 f i LoginProtect.obj
 0001:000063d0       ?_Left@?$_Tree@V?$_Tmap_traits@KULOGIN_CACHE@CLoginProtect@@U?$less@K@std@@V?$allocator@U?$pair@$$CBKULOGIN_CACHE@CLoginProtect@@@std@@@4@$0A@@std@@@std@@KAAAPAU_Node@?$_Tree_nod@V?$_Tmap_traits@KULOGIN_CACHE@CLoginProtect@@U?$less@K@std@@V?$allocator@U?$pair@$$CBKULOGIN_CACHE@CLoginProtect@@@std@@@4@$0A@@std@@@2@PAU342@@Z 004073d0 f i LoginProtect.obj
 0001:000063e0       ?_Right@?$_Tree@V?$_Tmap_traits@KULOGIN_CACHE@CLoginProtect@@U?$less@K@std@@V?$allocator@U?$pair@$$CBKULOGIN_CACHE@CLoginProtect@@@std@@@4@$0A@@std@@@std@@KAAAPAU_Node@?$_Tree_nod@V?$_Tmap_traits@KULOGIN_CACHE@CLoginProtect@@U?$less@K@std@@V?$allocator@U?$pair@$$CBKULOGIN_CACHE@CLoginProtect@@@std@@@4@$0A@@std@@@2@PAU342@@Z 004073e0 f i LoginProtect.obj
 0001:000063f0       ?_Lmost@?$_Tree@V?$_Tmap_traits@KULOGIN_CACHE@CLoginProtect@@U?$less@K@std@@V?$allocator@U?$pair@$$CBKULOGIN_CACHE@CLoginProtect@@@std@@@4@$0A@@std@@@std@@IAEAAPAU_Node@?$_Tree_nod@V?$_Tmap_traits@KULOGIN_CACHE@CLoginProtect@@U?$less@K@std@@V?$allocator@U?$pair@$$CBKULOGIN_CACHE@CLoginProtect@@@std@@@4@$0A@@std@@@2@XZ 004073f0 f i LoginProtect.obj
 0001:00006400       ?_Rmost@?$_Tree@V?$_Tmap_traits@KULOGIN_CACHE@CLoginProtect@@U?$less@K@std@@V?$allocator@U?$pair@$$CBKULOGIN_CACHE@CLoginProtect@@@std@@@4@$0A@@std@@@std@@IAEAAPAU_Node@?$_Tree_nod@V?$_Tmap_traits@KULOGIN_CACHE@CLoginProtect@@U?$less@K@std@@V?$allocator@U?$pair@$$CBKULOGIN_CACHE@CLoginProtect@@@std@@@4@$0A@@std@@@2@XZ 00407400 f i LoginProtect.obj
 0001:00006410       ?_Kfn@?$_Tmap_traits@KULOGIN_CACHE@CLoginProtect@@U?$less@K@std@@V?$allocator@U?$pair@$$CBKULOGIN_CACHE@CLoginProtect@@@std@@@4@$0A@@std@@SAABKABU?$pair@$$CBKULOGIN_CACHE@CLoginProtect@@@2@@Z 00407410 f i LoginProtect.obj
 0001:00006420       ??0?$allocator@U?$pair@$$CBKULOGIN_CACHE@CLoginProtect@@@std@@@std@@QAE@XZ 00407420 f i LoginProtect.obj
 0001:00006430       ?_Isnil@?$_Tree@V?$_Tmap_traits@KKU?$less@K@std@@V?$allocator@U?$pair@$$CBKK@std@@@2@$0A@@std@@@std@@KAAADPAU_Node@?$_Tree_nod@V?$_Tmap_traits@KKU?$less@K@std@@V?$allocator@U?$pair@$$CBKK@std@@@2@$0A@@std@@@2@@Z 00407430 f i LoginProtect.obj
 0001:00006440       ?_Left@?$_Tree@V?$_Tmap_traits@KKU?$less@K@std@@V?$allocator@U?$pair@$$CBKK@std@@@2@$0A@@std@@@std@@KAAAPAU_Node@?$_Tree_nod@V?$_Tmap_traits@KKU?$less@K@std@@V?$allocator@U?$pair@$$CBKK@std@@@2@$0A@@std@@@2@PAU342@@Z 00407440 f i LoginProtect.obj
 0001:00006450       ?_Right@?$_Tree@V?$_Tmap_traits@KKU?$less@K@std@@V?$allocator@U?$pair@$$CBKK@std@@@2@$0A@@std@@@std@@KAAAPAU_Node@?$_Tree_nod@V?$_Tmap_traits@KKU?$less@K@std@@V?$allocator@U?$pair@$$CBKK@std@@@2@$0A@@std@@@2@PAU342@@Z 00407450 f i LoginProtect.obj
 0001:00006460       ?_Lmost@?$_Tree@V?$_Tmap_traits@KKU?$less@K@std@@V?$allocator@U?$pair@$$CBKK@std@@@2@$0A@@std@@@std@@IAEAAPAU_Node@?$_Tree_nod@V?$_Tmap_traits@KKU?$less@K@std@@V?$allocator@U?$pair@$$CBKK@std@@@2@$0A@@std@@@2@XZ 00407460 f i LoginProtect.obj
 0001:00006470       ?_Rmost@?$_Tree@V?$_Tmap_traits@KKU?$less@K@std@@V?$allocator@U?$pair@$$CBKK@std@@@2@$0A@@std@@@std@@IAEAAPAU_Node@?$_Tree_nod@V?$_Tmap_traits@KKU?$less@K@std@@V?$allocator@U?$pair@$$CBKK@std@@@2@$0A@@std@@@2@XZ 00407470 f i LoginProtect.obj
 0001:00006480       ?_Kfn@?$_Tmap_traits@KKU?$less@K@std@@V?$allocator@U?$pair@$$CBKK@std@@@2@$0A@@std@@SAABKABU?$pair@$$CBKK@2@@Z 00407480 f i LoginProtect.obj
 0001:00006490       ??0?$allocator@U?$pair@$$CBKK@std@@@std@@QAE@XZ 00407490 f i LoginProtect.obj
 0001:000064a0       ??8const_iterator@?$_Tree@V?$_Tmap_traits@KKU?$less@K@std@@V?$allocator@U?$pair@$$CBKK@std@@@2@$0A@@std@@@std@@QBE_NABV012@@Z 004074a0 f i LoginProtect.obj
 0001:000064b0       ?_Mynode@const_iterator@?$_Tree@V?$_Tmap_traits@KKU?$less@K@std@@V?$allocator@U?$pair@$$CBKK@std@@@2@$0A@@std@@@std@@QBEPAU_Node@?$_Tree_nod@V?$_Tmap_traits@KKU?$less@K@std@@V?$allocator@U?$pair@$$CBKK@std@@@2@$0A@@std@@@3@XZ 004074b0 f i LoginProtect.obj
 0001:000064c0       ??0?$pair@Viterator@?$_Tree@V?$_Tmap_traits@KKU?$less@K@std@@V?$allocator@U?$pair@$$CBKK@std@@@2@$0A@@std@@@std@@_N@std@@QAE@ABViterator@?$_Tree@V?$_Tmap_traits@KKU?$less@K@std@@V?$allocator@U?$pair@$$CBKK@std@@@2@$0A@@std@@@1@AB_N@Z 004074c0 f i LoginProtect.obj
 0001:000064e0       ??8const_iterator@?$_Tree@V?$_Tmap_traits@KULOGIN_CACHE@CLoginProtect@@U?$less@K@std@@V?$allocator@U?$pair@$$CBKULOGIN_CACHE@CLoginProtect@@@std@@@4@$0A@@std@@@std@@QBE_NABV012@@Z 004074e0 f i LoginProtect.obj
 0001:000064f0       ?_Mynode@const_iterator@?$_Tree@V?$_Tmap_traits@KULOGIN_CACHE@CLoginProtect@@U?$less@K@std@@V?$allocator@U?$pair@$$CBKULOGIN_CACHE@CLoginProtect@@@std@@@4@$0A@@std@@@std@@QBEPAU_Node@?$_Tree_nod@V?$_Tmap_traits@KULOGIN_CACHE@CLoginProtect@@U?$less@K@std@@V?$allocator@U?$pair@$$CBKULOGIN_CACHE@CLoginProtect@@@std@@@4@$0A@@std@@@3@XZ 004074f0 f i LoginProtect.obj
 0001:00006500       ??0?$pair@Viterator@?$_Tree@V?$_Tmap_traits@KULOGIN_CACHE@CLoginProtect@@U?$less@K@std@@V?$allocator@U?$pair@$$CBKULOGIN_CACHE@CLoginProtect@@@std@@@4@$0A@@std@@@std@@_N@std@@QAE@ABViterator@?$_Tree@V?$_Tmap_traits@KULOGIN_CACHE@CLoginProtect@@U?$less@K@std@@V?$allocator@U?$pair@$$CBKULOGIN_CACHE@CLoginProtect@@@std@@@4@$0A@@std@@@1@AB_N@Z 00407500 f i LoginProtect.obj
 0001:00006520       ?_Color@?$_Tree@V?$_Tmap_traits@KULOGIN_CACHE@CLoginProtect@@U?$less@K@std@@V?$allocator@U?$pair@$$CBKULOGIN_CACHE@CLoginProtect@@@std@@@4@$0A@@std@@@std@@KAAADPAU_Node@?$_Tree_nod@V?$_Tmap_traits@KULOGIN_CACHE@CLoginProtect@@U?$less@K@std@@V?$allocator@U?$pair@$$CBKULOGIN_CACHE@CLoginProtect@@@std@@@4@$0A@@std@@@2@@Z 00407520 f i LoginProtect.obj
 0001:00006530       ?_Parent@?$_Tree@V?$_Tmap_traits@KULOGIN_CACHE@CLoginProtect@@U?$less@K@std@@V?$allocator@U?$pair@$$CBKULOGIN_CACHE@CLoginProtect@@@std@@@4@$0A@@std@@@std@@KAAAPAU_Node@?$_Tree_nod@V?$_Tmap_traits@KULOGIN_CACHE@CLoginProtect@@U?$less@K@std@@V?$allocator@U?$pair@$$CBKULOGIN_CACHE@CLoginProtect@@@std@@@4@$0A@@std@@@2@PAU342@@Z 00407530 f i LoginProtect.obj
 0001:00006540       ?_Myval@?$_Tree@V?$_Tmap_traits@KULOGIN_CACHE@CLoginProtect@@U?$less@K@std@@V?$allocator@U?$pair@$$CBKULOGIN_CACHE@CLoginProtect@@@std@@@4@$0A@@std@@@std@@KAAAU?$pair@$$CBKULOGIN_CACHE@CLoginProtect@@@2@PAU_Node@?$_Tree_nod@V?$_Tmap_traits@KULOGIN_CACHE@CLoginProtect@@U?$less@K@std@@V?$allocator@U?$pair@$$CBKULOGIN_CACHE@CLoginProtect@@@std@@@4@$0A@@std@@@2@@Z 00407540 f i LoginProtect.obj
 0001:00006550       ??0?$allocator@U?$pair@$$CBKULOGIN_CACHE@CLoginProtect@@@std@@@std@@QAE@ABV01@@Z 00407550 f i LoginProtect.obj
 0001:00006560       ?deallocate@?$allocator@U_Node@?$_Tree_nod@V?$_Tmap_traits@KULOGIN_CACHE@CLoginProtect@@U?$less@K@std@@V?$allocator@U?$pair@$$CBKULOGIN_CACHE@CLoginProtect@@@std@@@4@$0A@@std@@@std@@@std@@QAEXPAU_Node@?$_Tree_nod@V?$_Tmap_traits@KULOGIN_CACHE@CLoginProtect@@U?$less@K@std@@V?$allocator@U?$pair@$$CBKULOGIN_CACHE@CLoginProtect@@@std@@@4@$0A@@std@@@2@I@Z 00407560 f i LoginProtect.obj
 0001:00006570       ?_Color@?$_Tree@V?$_Tmap_traits@KKU?$less@K@std@@V?$allocator@U?$pair@$$CBKK@std@@@2@$0A@@std@@@std@@KAAADPAU_Node@?$_Tree_nod@V?$_Tmap_traits@KKU?$less@K@std@@V?$allocator@U?$pair@$$CBKK@std@@@2@$0A@@std@@@2@@Z 00407570 f i LoginProtect.obj
 0001:00006580       ?_Parent@?$_Tree@V?$_Tmap_traits@KKU?$less@K@std@@V?$allocator@U?$pair@$$CBKK@std@@@2@$0A@@std@@@std@@KAAAPAU_Node@?$_Tree_nod@V?$_Tmap_traits@KKU?$less@K@std@@V?$allocator@U?$pair@$$CBKK@std@@@2@$0A@@std@@@2@PAU342@@Z 00407580 f i LoginProtect.obj
 0001:00006590       ?_Myval@?$_Tree@V?$_Tmap_traits@KKU?$less@K@std@@V?$allocator@U?$pair@$$CBKK@std@@@2@$0A@@std@@@std@@KAAAU?$pair@$$CBKK@2@PAU_Node@?$_Tree_nod@V?$_Tmap_traits@KKU?$less@K@std@@V?$allocator@U?$pair@$$CBKK@std@@@2@$0A@@std@@@2@@Z 00407590 f i LoginProtect.obj
 0001:000065a0       ??0?$allocator@U?$pair@$$CBKK@std@@@std@@QAE@ABV01@@Z 004075a0 f i LoginProtect.obj
 0001:000065b0       ?deallocate@?$allocator@U_Node@?$_Tree_nod@V?$_Tmap_traits@KKU?$less@K@std@@V?$allocator@U?$pair@$$CBKK@std@@@2@$0A@@std@@@std@@@std@@QAEXPAU_Node@?$_Tree_nod@V?$_Tmap_traits@KKU?$less@K@std@@V?$allocator@U?$pair@$$CBKK@std@@@2@$0A@@std@@@2@I@Z 004075b0 f i LoginProtect.obj
 0001:000065c0       ??0const_iterator@?$_Tree@V?$_Tmap_traits@KKU?$less@K@std@@V?$allocator@U?$pair@$$CBKK@std@@@2@$0A@@std@@@std@@QAE@PAU_Node@?$_Tree_nod@V?$_Tmap_traits@KKU?$less@K@std@@V?$allocator@U?$pair@$$CBKK@std@@@2@$0A@@std@@@2@@Z 004075c0 f i LoginProtect.obj
 0001:000065d0       ??Dconst_iterator@?$_Tree@V?$_Tmap_traits@KKU?$less@K@std@@V?$allocator@U?$pair@$$CBKK@std@@@2@$0A@@std@@@std@@QBEABU?$pair@$$CBKK@2@XZ 004075d0 f i LoginProtect.obj
 0001:000065e0       ??0const_iterator@?$_Tree@V?$_Tmap_traits@KULOGIN_CACHE@CLoginProtect@@U?$less@K@std@@V?$allocator@U?$pair@$$CBKULOGIN_CACHE@CLoginProtect@@@std@@@4@$0A@@std@@@std@@QAE@PAU_Node@?$_Tree_nod@V?$_Tmap_traits@KULOGIN_CACHE@CLoginProtect@@U?$less@K@std@@V?$allocator@U?$pair@$$CBKULOGIN_CACHE@CLoginProtect@@@std@@@4@$0A@@std@@@2@@Z 004075e0 f i LoginProtect.obj
 0001:000065f0       ??Dconst_iterator@?$_Tree@V?$_Tmap_traits@KULOGIN_CACHE@CLoginProtect@@U?$less@K@std@@V?$allocator@U?$pair@$$CBKULOGIN_CACHE@CLoginProtect@@@std@@@4@$0A@@std@@@std@@QBEABU?$pair@$$CBKULOGIN_CACHE@CLoginProtect@@@2@XZ 004075f0 f i LoginProtect.obj
 0001:00006600       ??0?$pair@Viterator@?$_Tree@V?$_Tmap_traits@KULOGIN_CACHE@CLoginProtect@@U?$less@K@std@@V?$allocator@U?$pair@$$CBKULOGIN_CACHE@CLoginProtect@@@std@@@4@$0A@@std@@@std@@V123@@std@@QAE@ABViterator@?$_Tree@V?$_Tmap_traits@KULOGIN_CACHE@CLoginProtect@@U?$less@K@std@@V?$allocator@U?$pair@$$CBKULOGIN_CACHE@CLoginProtect@@@std@@@4@$0A@@std@@@1@0@Z 00407600 f i LoginProtect.obj
 0001:00006620       ??0?$pair@Viterator@?$_Tree@V?$_Tmap_traits@KKU?$less@K@std@@V?$allocator@U?$pair@$$CBKK@std@@@2@$0A@@std@@@std@@V123@@std@@QAE@ABViterator@?$_Tree@V?$_Tmap_traits@KKU?$less@K@std@@V?$allocator@U?$pair@$$CBKK@std@@@2@$0A@@std@@@1@0@Z 00407620 f i LoginProtect.obj
 0001:00006640       ?_Max@?$_Tree@V?$_Tmap_traits@KULOGIN_CACHE@CLoginProtect@@U?$less@K@std@@V?$allocator@U?$pair@$$CBKULOGIN_CACHE@CLoginProtect@@@std@@@4@$0A@@std@@@std@@KAPAU_Node@?$_Tree_nod@V?$_Tmap_traits@KULOGIN_CACHE@CLoginProtect@@U?$less@K@std@@V?$allocator@U?$pair@$$CBKULOGIN_CACHE@CLoginProtect@@@std@@@4@$0A@@std@@@2@PAU342@@Z 00407640 f i LoginProtect.obj
 0001:00006660       ?_Min@?$_Tree@V?$_Tmap_traits@KULOGIN_CACHE@CLoginProtect@@U?$less@K@std@@V?$allocator@U?$pair@$$CBKULOGIN_CACHE@CLoginProtect@@@std@@@4@$0A@@std@@@std@@KAPAU_Node@?$_Tree_nod@V?$_Tmap_traits@KULOGIN_CACHE@CLoginProtect@@U?$less@K@std@@V?$allocator@U?$pair@$$CBKULOGIN_CACHE@CLoginProtect@@@std@@@4@$0A@@std@@@2@PAU342@@Z 00407660 f i LoginProtect.obj
 0001:00006680       ?_Root@?$_Tree@V?$_Tmap_traits@KULOGIN_CACHE@CLoginProtect@@U?$less@K@std@@V?$allocator@U?$pair@$$CBKULOGIN_CACHE@CLoginProtect@@@std@@@4@$0A@@std@@@std@@IBEAAPAU_Node@?$_Tree_nod@V?$_Tmap_traits@KULOGIN_CACHE@CLoginProtect@@U?$less@K@std@@V?$allocator@U?$pair@$$CBKULOGIN_CACHE@CLoginProtect@@@std@@@4@$0A@@std@@@2@XZ 00407680 f i LoginProtect.obj
 0001:00006690       ?max_size@?$allocator@U?$pair@$$CBKULOGIN_CACHE@CLoginProtect@@@std@@@std@@QBEIXZ 00407690 f i LoginProtect.obj
 0001:000066a0       ?_Max@?$_Tree@V?$_Tmap_traits@KKU?$less@K@std@@V?$allocator@U?$pair@$$CBKK@std@@@2@$0A@@std@@@std@@KAPAU_Node@?$_Tree_nod@V?$_Tmap_traits@KKU?$less@K@std@@V?$allocator@U?$pair@$$CBKK@std@@@2@$0A@@std@@@2@PAU342@@Z 004076a0 f i LoginProtect.obj
 0001:000066c0       ?_Min@?$_Tree@V?$_Tmap_traits@KKU?$less@K@std@@V?$allocator@U?$pair@$$CBKK@std@@@2@$0A@@std@@@std@@KAPAU_Node@?$_Tree_nod@V?$_Tmap_traits@KKU?$less@K@std@@V?$allocator@U?$pair@$$CBKK@std@@@2@$0A@@std@@@2@PAU342@@Z 004076c0 f i LoginProtect.obj
 0001:000066e0       ?_Root@?$_Tree@V?$_Tmap_traits@KKU?$less@K@std@@V?$allocator@U?$pair@$$CBKK@std@@@2@$0A@@std@@@std@@IBEAAPAU_Node@?$_Tree_nod@V?$_Tmap_traits@KKU?$less@K@std@@V?$allocator@U?$pair@$$CBKK@std@@@2@$0A@@std@@@2@XZ 004076e0 f i LoginProtect.obj
 0001:000066f0       ?max_size@?$allocator@U?$pair@$$CBKK@std@@@std@@QBEIXZ 004076f0 f i LoginProtect.obj
 0001:00006700       ?_Dec@const_iterator@?$_Tree@V?$_Tmap_traits@KKU?$less@K@std@@V?$allocator@U?$pair@$$CBKK@std@@@2@$0A@@std@@@std@@QAEXXZ 00407700 f i LoginProtect.obj
 0001:00006760       ?_Dec@const_iterator@?$_Tree@V?$_Tmap_traits@KULOGIN_CACHE@CLoginProtect@@U?$less@K@std@@V?$allocator@U?$pair@$$CBKULOGIN_CACHE@CLoginProtect@@@std@@@4@$0A@@std@@@std@@QAEXXZ 00407760 f i LoginProtect.obj
 0001:000067c0       ??0_Node@?$_Tree_nod@V?$_Tmap_traits@KULOGIN_CACHE@CLoginProtect@@U?$less@K@std@@V?$allocator@U?$pair@$$CBKULOGIN_CACHE@CLoginProtect@@@std@@@4@$0A@@std@@@std@@QAE@PAU012@00ABU?$pair@$$CBKULOGIN_CACHE@CLoginProtect@@@2@D@Z 004077c0 f i LoginProtect.obj
 0001:00006800       ??0_Node@?$_Tree_nod@V?$_Tmap_traits@KKU?$less@K@std@@V?$allocator@U?$pair@$$CBKK@std@@@2@$0A@@std@@@std@@QAE@PAU012@00ABU?$pair@$$CBKK@2@D@Z 00407800 f i LoginProtect.obj
 0001:00006840       ??0?$_Tmap_traits@KULOGIN_CACHE@CLoginProtect@@U?$less@K@std@@V?$allocator@U?$pair@$$CBKULOGIN_CACHE@CLoginProtect@@@std@@@4@$0A@@std@@QAE@U?$less@K@1@@Z 00407840 f i LoginProtect.obj
 0001:00006850       ??0?$_Tmap_traits@KKU?$less@K@std@@V?$allocator@U?$pair@$$CBKK@std@@@2@$0A@@std@@QAE@U?$less@K@1@@Z 00407850 f i LoginProtect.obj
 0001:00006860       ?_Inc@const_iterator@?$_Tree@V?$_Tmap_traits@KKU?$less@K@std@@V?$allocator@U?$pair@$$CBKK@std@@@2@$0A@@std@@@std@@QAEXXZ 00407860 f i LoginProtect.obj
 0001:000068c0       ?_Inc@const_iterator@?$_Tree@V?$_Tmap_traits@KULOGIN_CACHE@CLoginProtect@@U?$less@K@std@@V?$allocator@U?$pair@$$CBKULOGIN_CACHE@CLoginProtect@@@std@@@4@$0A@@std@@@std@@QAEXXZ 004078c0 f i LoginProtect.obj
 0001:00006920       ??$_Destroy@U_Node@?$_Tree_nod@V?$_Tmap_traits@KULOGIN_CACHE@CLoginProtect@@U?$less@K@std@@V?$allocator@U?$pair@$$CBKULOGIN_CACHE@CLoginProtect@@@std@@@4@$0A@@std@@@std@@@std@@YAXPAU_Node@?$_Tree_nod@V?$_Tmap_traits@KULOGIN_CACHE@CLoginProtect@@U?$less@K@std@@V?$allocator@U?$pair@$$CBKULOGIN_CACHE@CLoginProtect@@@std@@@4@$0A@@std@@@0@@Z 00407920 f i LoginProtect.obj
 0001:00006930       ??$_Destroy@PAU_Node@?$_Tree_nod@V?$_Tmap_traits@KULOGIN_CACHE@CLoginProtect@@U?$less@K@std@@V?$allocator@U?$pair@$$CBKULOGIN_CACHE@CLoginProtect@@@std@@@4@$0A@@std@@@std@@@std@@YAXPAPAU_Node@?$_Tree_nod@V?$_Tmap_traits@KULOGIN_CACHE@CLoginProtect@@U?$less@K@std@@V?$allocator@U?$pair@$$CBKULOGIN_CACHE@CLoginProtect@@@std@@@4@$0A@@std@@@0@@Z 00407930 f i LoginProtect.obj
 0001:00006940       ??$_Destroy@U_Node@?$_Tree_nod@V?$_Tmap_traits@KKU?$less@K@std@@V?$allocator@U?$pair@$$CBKK@std@@@2@$0A@@std@@@std@@@std@@YAXPAU_Node@?$_Tree_nod@V?$_Tmap_traits@KKU?$less@K@std@@V?$allocator@U?$pair@$$CBKK@std@@@2@$0A@@std@@@0@@Z 00407940 f i LoginProtect.obj
 0001:00006950       ??$_Destroy@PAU_Node@?$_Tree_nod@V?$_Tmap_traits@KKU?$less@K@std@@V?$allocator@U?$pair@$$CBKK@std@@@2@$0A@@std@@@std@@@std@@YAXPAPAU_Node@?$_Tree_nod@V?$_Tmap_traits@KKU?$less@K@std@@V?$allocator@U?$pair@$$CBKK@std@@@2@$0A@@std@@@0@@Z 00407950 f i LoginProtect.obj
 0001:00006960       ??$?0U?$pair@$$CBKULOGIN_CACHE@CLoginProtect@@@std@@@?$allocator@PAU_Node@?$_Tree_nod@V?$_Tmap_traits@KULOGIN_CACHE@CLoginProtect@@U?$less@K@std@@V?$allocator@U?$pair@$$CBKULOGIN_CACHE@CLoginProtect@@@std@@@4@$0A@@std@@@std@@@std@@QAE@ABV?$allocator@U?$pair@$$CBKULOGIN_CACHE@CLoginProtect@@@std@@@1@@Z 00407960 f i LoginProtect.obj
 0001:00006970       ??$_Allocate@U_Node@?$_Tree_nod@V?$_Tmap_traits@KULOGIN_CACHE@CLoginProtect@@U?$less@K@std@@V?$allocator@U?$pair@$$CBKULOGIN_CACHE@CLoginProtect@@@std@@@4@$0A@@std@@@std@@@std@@YAPAU_Node@?$_Tree_nod@V?$_Tmap_traits@KULOGIN_CACHE@CLoginProtect@@U?$less@K@std@@V?$allocator@U?$pair@$$CBKULOGIN_CACHE@CLoginProtect@@@std@@@4@$0A@@std@@@0@IPAU120@@Z 00407970 f i LoginProtect.obj
 0001:00006990       ??$?0U?$pair@$$CBKK@std@@@?$allocator@PAU_Node@?$_Tree_nod@V?$_Tmap_traits@KKU?$less@K@std@@V?$allocator@U?$pair@$$CBKK@std@@@2@$0A@@std@@@std@@@std@@QAE@ABV?$allocator@U?$pair@$$CBKK@std@@@1@@Z 00407990 f i LoginProtect.obj
 0001:000069a0       ??$_Allocate@U_Node@?$_Tree_nod@V?$_Tmap_traits@KKU?$less@K@std@@V?$allocator@U?$pair@$$CBKK@std@@@2@$0A@@std@@@std@@@std@@YAPAU_Node@?$_Tree_nod@V?$_Tmap_traits@KKU?$less@K@std@@V?$allocator@U?$pair@$$CBKK@std@@@2@$0A@@std@@@0@IPAU120@@Z 004079a0 f i LoginProtect.obj
 0001:000069c0       ??$?0U?$pair@$$CBKULOGIN_CACHE@CLoginProtect@@@std@@@?$allocator@U_Node@?$_Tree_nod@V?$_Tmap_traits@KULOGIN_CACHE@CLoginProtect@@U?$less@K@std@@V?$allocator@U?$pair@$$CBKULOGIN_CACHE@CLoginProtect@@@std@@@4@$0A@@std@@@std@@@std@@QAE@ABV?$allocator@U?$pair@$$CBKULOGIN_CACHE@CLoginProtect@@@std@@@1@@Z 004079c0 f i LoginProtect.obj
 0001:000069d0       ??$_Construct@PAU_Node@?$_Tree_nod@V?$_Tmap_traits@KULOGIN_CACHE@CLoginProtect@@U?$less@K@std@@V?$allocator@U?$pair@$$CBKULOGIN_CACHE@CLoginProtect@@@std@@@4@$0A@@std@@@std@@PAU123@@std@@YAXPAPAU_Node@?$_Tree_nod@V?$_Tmap_traits@KULOGIN_CACHE@CLoginProtect@@U?$less@K@std@@V?$allocator@U?$pair@$$CBKULOGIN_CACHE@CLoginProtect@@@std@@@4@$0A@@std@@@0@ABQAU120@@Z 004079d0 f i LoginProtect.obj
 0001:000069f0       ??$?0U?$pair@$$CBKK@std@@@?$allocator@U_Node@?$_Tree_nod@V?$_Tmap_traits@KKU?$less@K@std@@V?$allocator@U?$pair@$$CBKK@std@@@2@$0A@@std@@@std@@@std@@QAE@ABV?$allocator@U?$pair@$$CBKK@std@@@1@@Z 004079f0 f i LoginProtect.obj
 0001:00006a00       ??$_Construct@PAU_Node@?$_Tree_nod@V?$_Tmap_traits@KKU?$less@K@std@@V?$allocator@U?$pair@$$CBKK@std@@@2@$0A@@std@@@std@@PAU123@@std@@YAXPAPAU_Node@?$_Tree_nod@V?$_Tmap_traits@KKU?$less@K@std@@V?$allocator@U?$pair@$$CBKK@std@@@2@$0A@@std@@@0@ABQAU120@@Z 00407a00 f i LoginProtect.obj
 0001:00006a20       ??$_Iter_cat@Viterator@?$_Tree@V?$_Tmap_traits@KULOGIN_CACHE@CLoginProtect@@U?$less@K@std@@V?$allocator@U?$pair@$$CBKULOGIN_CACHE@CLoginProtect@@@std@@@4@$0A@@std@@@std@@@std@@YA?AUbidirectional_iterator_tag@0@ABViterator@?$_Tree@V?$_Tmap_traits@KULOGIN_CACHE@CLoginProtect@@U?$less@K@std@@V?$allocator@U?$pair@$$CBKULOGIN_CACHE@CLoginProtect@@@std@@@4@$0A@@std@@@0@@Z 00407a20 f i LoginProtect.obj
 0001:00006a30       ??$_Iter_cat@Viterator@?$_Tree@V?$_Tmap_traits@KKU?$less@K@std@@V?$allocator@U?$pair@$$CBKK@std@@@2@$0A@@std@@@std@@@std@@YA?AUbidirectional_iterator_tag@0@ABViterator@?$_Tree@V?$_Tmap_traits@KKU?$less@K@std@@V?$allocator@U?$pair@$$CBKK@std@@@2@$0A@@std@@@0@@Z 00407a30 f i LoginProtect.obj
 0001:00006a40       ??9const_iterator@?$_Tree@V?$_Tmap_traits@KKU?$less@K@std@@V?$allocator@U?$pair@$$CBKK@std@@@2@$0A@@std@@@std@@QBE_NABV012@@Z 00407a40 f i LoginProtect.obj
 0001:00006a60       ??9const_iterator@?$_Tree@V?$_Tmap_traits@KULOGIN_CACHE@CLoginProtect@@U?$less@K@std@@V?$allocator@U?$pair@$$CBKULOGIN_CACHE@CLoginProtect@@@std@@@4@$0A@@std@@@std@@QBE_NABV012@@Z 00407a60 f i LoginProtect.obj
 0001:00006a80       ?_Key@?$_Tree@V?$_Tmap_traits@KULOGIN_CACHE@CLoginProtect@@U?$less@K@std@@V?$allocator@U?$pair@$$CBKULOGIN_CACHE@CLoginProtect@@@std@@@4@$0A@@std@@@std@@KAABKPAU_Node@?$_Tree_nod@V?$_Tmap_traits@KULOGIN_CACHE@CLoginProtect@@U?$less@K@std@@V?$allocator@U?$pair@$$CBKULOGIN_CACHE@CLoginProtect@@@std@@@4@$0A@@std@@@2@@Z 00407a80 f i LoginProtect.obj
 0001:00006a90       ?_Root@?$_Tree@V?$_Tmap_traits@KULOGIN_CACHE@CLoginProtect@@U?$less@K@std@@V?$allocator@U?$pair@$$CBKULOGIN_CACHE@CLoginProtect@@@std@@@4@$0A@@std@@@std@@IAEAAPAU_Node@?$_Tree_nod@V?$_Tmap_traits@KULOGIN_CACHE@CLoginProtect@@U?$less@K@std@@V?$allocator@U?$pair@$$CBKULOGIN_CACHE@CLoginProtect@@@std@@@4@$0A@@std@@@2@XZ 00407a90 f i LoginProtect.obj
 0001:00006aa0       ?_Key@?$_Tree@V?$_Tmap_traits@KKU?$less@K@std@@V?$allocator@U?$pair@$$CBKK@std@@@2@$0A@@std@@@std@@KAABKPAU_Node@?$_Tree_nod@V?$_Tmap_traits@KKU?$less@K@std@@V?$allocator@U?$pair@$$CBKK@std@@@2@$0A@@std@@@2@@Z 00407aa0 f i LoginProtect.obj
 0001:00006ab0       ?_Root@?$_Tree@V?$_Tmap_traits@KKU?$less@K@std@@V?$allocator@U?$pair@$$CBKK@std@@@2@$0A@@std@@@std@@IAEAAPAU_Node@?$_Tree_nod@V?$_Tmap_traits@KKU?$less@K@std@@V?$allocator@U?$pair@$$CBKK@std@@@2@$0A@@std@@@2@XZ 00407ab0 f i LoginProtect.obj
 0001:00006ac0       ??0iterator@?$_Tree@V?$_Tmap_traits@KKU?$less@K@std@@V?$allocator@U?$pair@$$CBKK@std@@@2@$0A@@std@@@std@@QAE@PAU_Node@?$_Tree_nod@V?$_Tmap_traits@KKU?$less@K@std@@V?$allocator@U?$pair@$$CBKK@std@@@2@$0A@@std@@@2@@Z 00407ac0 f i LoginProtect.obj
 0001:00006ad0       ??Diterator@?$_Tree@V?$_Tmap_traits@KKU?$less@K@std@@V?$allocator@U?$pair@$$CBKK@std@@@2@$0A@@std@@@std@@QBEAAU?$pair@$$CBKK@2@XZ 00407ad0 f i LoginProtect.obj
 0001:00006ae0       ??0iterator@?$_Tree@V?$_Tmap_traits@KULOGIN_CACHE@CLoginProtect@@U?$less@K@std@@V?$allocator@U?$pair@$$CBKULOGIN_CACHE@CLoginProtect@@@std@@@4@$0A@@std@@@std@@QAE@PAU_Node@?$_Tree_nod@V?$_Tmap_traits@KULOGIN_CACHE@CLoginProtect@@U?$less@K@std@@V?$allocator@U?$pair@$$CBKULOGIN_CACHE@CLoginProtect@@@std@@@4@$0A@@std@@@2@@Z 00407ae0 f i LoginProtect.obj
 0001:00006af0       ??Diterator@?$_Tree@V?$_Tmap_traits@KULOGIN_CACHE@CLoginProtect@@U?$less@K@std@@V?$allocator@U?$pair@$$CBKULOGIN_CACHE@CLoginProtect@@@std@@@4@$0A@@std@@@std@@QBEAAU?$pair@$$CBKULOGIN_CACHE@CLoginProtect@@@2@XZ 00407af0 f i LoginProtect.obj
 0001:00006b00       ?max_size@?$_Tree@V?$_Tmap_traits@KULOGIN_CACHE@CLoginProtect@@U?$less@K@std@@V?$allocator@U?$pair@$$CBKULOGIN_CACHE@CLoginProtect@@@std@@@4@$0A@@std@@@std@@QBEIXZ 00407b00 f i LoginProtect.obj
 0001:00006b10       ?_Lbound@?$_Tree@V?$_Tmap_traits@KULOGIN_CACHE@CLoginProtect@@U?$less@K@std@@V?$allocator@U?$pair@$$CBKULOGIN_CACHE@CLoginProtect@@@std@@@4@$0A@@std@@@std@@IBEPAU_Node@?$_Tree_nod@V?$_Tmap_traits@KULOGIN_CACHE@CLoginProtect@@U?$less@K@std@@V?$allocator@U?$pair@$$CBKULOGIN_CACHE@CLoginProtect@@@std@@@4@$0A@@std@@@2@ABK@Z 00407b10 f i LoginProtect.obj
 0001:00006b40       ?_Lrotate@?$_Tree@V?$_Tmap_traits@KULOGIN_CACHE@CLoginProtect@@U?$less@K@std@@V?$allocator@U?$pair@$$CBKULOGIN_CACHE@CLoginProtect@@@std@@@4@$0A@@std@@@std@@IAEXPAU_Node@?$_Tree_nod@V?$_Tmap_traits@KULOGIN_CACHE@CLoginProtect@@U?$less@K@std@@V?$allocator@U?$pair@$$CBKULOGIN_CACHE@CLoginProtect@@@std@@@4@$0A@@std@@@2@@Z 00407b40 f i LoginProtect.obj
 0001:00006ba0       ?_Rrotate@?$_Tree@V?$_Tmap_traits@KULOGIN_CACHE@CLoginProtect@@U?$less@K@std@@V?$allocator@U?$pair@$$CBKULOGIN_CACHE@CLoginProtect@@@std@@@4@$0A@@std@@@std@@IAEXPAU_Node@?$_Tree_nod@V?$_Tmap_traits@KULOGIN_CACHE@CLoginProtect@@U?$less@K@std@@V?$allocator@U?$pair@$$CBKULOGIN_CACHE@CLoginProtect@@@std@@@4@$0A@@std@@@2@@Z 00407ba0 f i LoginProtect.obj
 0001:00006c00       ?destroy@?$allocator@U_Node@?$_Tree_nod@V?$_Tmap_traits@KULOGIN_CACHE@CLoginProtect@@U?$less@K@std@@V?$allocator@U?$pair@$$CBKULOGIN_CACHE@CLoginProtect@@@std@@@4@$0A@@std@@@std@@@std@@QAEXPAU_Node@?$_Tree_nod@V?$_Tmap_traits@KULOGIN_CACHE@CLoginProtect@@U?$less@K@std@@V?$allocator@U?$pair@$$CBKULOGIN_CACHE@CLoginProtect@@@std@@@4@$0A@@std@@@2@@Z 00407c00 f i LoginProtect.obj
 0001:00006c10       ?destroy@?$allocator@PAU_Node@?$_Tree_nod@V?$_Tmap_traits@KULOGIN_CACHE@CLoginProtect@@U?$less@K@std@@V?$allocator@U?$pair@$$CBKULOGIN_CACHE@CLoginProtect@@@std@@@4@$0A@@std@@@std@@@std@@QAEXPAPAU_Node@?$_Tree_nod@V?$_Tmap_traits@KULOGIN_CACHE@CLoginProtect@@U?$less@K@std@@V?$allocator@U?$pair@$$CBKULOGIN_CACHE@CLoginProtect@@@std@@@4@$0A@@std@@@2@@Z 00407c10 f i LoginProtect.obj
 0001:00006c20       ?max_size@?$_Tree@V?$_Tmap_traits@KKU?$less@K@std@@V?$allocator@U?$pair@$$CBKK@std@@@2@$0A@@std@@@std@@QBEIXZ 00407c20 f i LoginProtect.obj
 0001:00006c30       ?_Lbound@?$_Tree@V?$_Tmap_traits@KKU?$less@K@std@@V?$allocator@U?$pair@$$CBKK@std@@@2@$0A@@std@@@std@@IBEPAU_Node@?$_Tree_nod@V?$_Tmap_traits@KKU?$less@K@std@@V?$allocator@U?$pair@$$CBKK@std@@@2@$0A@@std@@@2@ABK@Z 00407c30 f i LoginProtect.obj
 0001:00006c60       ?_Lrotate@?$_Tree@V?$_Tmap_traits@KKU?$less@K@std@@V?$allocator@U?$pair@$$CBKK@std@@@2@$0A@@std@@@std@@IAEXPAU_Node@?$_Tree_nod@V?$_Tmap_traits@KKU?$less@K@std@@V?$allocator@U?$pair@$$CBKK@std@@@2@$0A@@std@@@2@@Z 00407c60 f i LoginProtect.obj
 0001:00006cc0       ?_Rrotate@?$_Tree@V?$_Tmap_traits@KKU?$less@K@std@@V?$allocator@U?$pair@$$CBKK@std@@@2@$0A@@std@@@std@@IAEXPAU_Node@?$_Tree_nod@V?$_Tmap_traits@KKU?$less@K@std@@V?$allocator@U?$pair@$$CBKK@std@@@2@$0A@@std@@@2@@Z 00407cc0 f i LoginProtect.obj
 0001:00006d20       ?destroy@?$allocator@U_Node@?$_Tree_nod@V?$_Tmap_traits@KKU?$less@K@std@@V?$allocator@U?$pair@$$CBKK@std@@@2@$0A@@std@@@std@@@std@@QAEXPAU_Node@?$_Tree_nod@V?$_Tmap_traits@KKU?$less@K@std@@V?$allocator@U?$pair@$$CBKK@std@@@2@$0A@@std@@@2@@Z 00407d20 f i LoginProtect.obj
 0001:00006d30       ?destroy@?$allocator@PAU_Node@?$_Tree_nod@V?$_Tmap_traits@KKU?$less@K@std@@V?$allocator@U?$pair@$$CBKK@std@@@2@$0A@@std@@@std@@@std@@QAEXPAPAU_Node@?$_Tree_nod@V?$_Tmap_traits@KKU?$less@K@std@@V?$allocator@U?$pair@$$CBKK@std@@@2@$0A@@std@@@2@@Z 00407d30 f i LoginProtect.obj
 0001:00006d40       ??Fconst_iterator@?$_Tree@V?$_Tmap_traits@KKU?$less@K@std@@V?$allocator@U?$pair@$$CBKK@std@@@2@$0A@@std@@@std@@QAEAAV012@XZ 00407d40 f i LoginProtect.obj
 0001:00006d50       ??Fconst_iterator@?$_Tree@V?$_Tmap_traits@KULOGIN_CACHE@CLoginProtect@@U?$less@K@std@@V?$allocator@U?$pair@$$CBKULOGIN_CACHE@CLoginProtect@@@std@@@4@$0A@@std@@@std@@QAEAAV012@XZ 00407d50 f i LoginProtect.obj
 0001:00006d60       ?_Ubound@?$_Tree@V?$_Tmap_traits@KULOGIN_CACHE@CLoginProtect@@U?$less@K@std@@V?$allocator@U?$pair@$$CBKULOGIN_CACHE@CLoginProtect@@@std@@@4@$0A@@std@@@std@@IBEPAU_Node@?$_Tree_nod@V?$_Tmap_traits@KULOGIN_CACHE@CLoginProtect@@U?$less@K@std@@V?$allocator@U?$pair@$$CBKULOGIN_CACHE@CLoginProtect@@@std@@@4@$0A@@std@@@2@ABK@Z 00407d60 f i LoginProtect.obj
 0001:00006d90       ?allocate@?$allocator@U_Node@?$_Tree_nod@V?$_Tmap_traits@KULOGIN_CACHE@CLoginProtect@@U?$less@K@std@@V?$allocator@U?$pair@$$CBKULOGIN_CACHE@CLoginProtect@@@std@@@4@$0A@@std@@@std@@@std@@QAEPAU_Node@?$_Tree_nod@V?$_Tmap_traits@KULOGIN_CACHE@CLoginProtect@@U?$less@K@std@@V?$allocator@U?$pair@$$CBKULOGIN_CACHE@CLoginProtect@@@std@@@4@$0A@@std@@@2@I@Z 00407d90 f i LoginProtect.obj
 0001:00006db0       ?_Ubound@?$_Tree@V?$_Tmap_traits@KKU?$less@K@std@@V?$allocator@U?$pair@$$CBKK@std@@@2@$0A@@std@@@std@@IBEPAU_Node@?$_Tree_nod@V?$_Tmap_traits@KKU?$less@K@std@@V?$allocator@U?$pair@$$CBKK@std@@@2@$0A@@std@@@2@ABK@Z 00407db0 f i LoginProtect.obj
 0001:00006de0       ?allocate@?$allocator@U_Node@?$_Tree_nod@V?$_Tmap_traits@KKU?$less@K@std@@V?$allocator@U?$pair@$$CBKK@std@@@2@$0A@@std@@@std@@@std@@QAEPAU_Node@?$_Tree_nod@V?$_Tmap_traits@KKU?$less@K@std@@V?$allocator@U?$pair@$$CBKK@std@@@2@$0A@@std@@@2@I@Z 00407de0 f i LoginProtect.obj
 0001:00006e00       ??0?$_Tree_nod@V?$_Tmap_traits@KULOGIN_CACHE@CLoginProtect@@U?$less@K@std@@V?$allocator@U?$pair@$$CBKULOGIN_CACHE@CLoginProtect@@@std@@@4@$0A@@std@@@std@@IAE@ABU?$less@K@1@V?$allocator@U?$pair@$$CBKULOGIN_CACHE@CLoginProtect@@@std@@@1@@Z 00407e00 f i LoginProtect.obj
 0001:00006e10       ?construct@?$allocator@PAU_Node@?$_Tree_nod@V?$_Tmap_traits@KULOGIN_CACHE@CLoginProtect@@U?$less@K@std@@V?$allocator@U?$pair@$$CBKULOGIN_CACHE@CLoginProtect@@@std@@@4@$0A@@std@@@std@@@std@@QAEXPAPAU_Node@?$_Tree_nod@V?$_Tmap_traits@KULOGIN_CACHE@CLoginProtect@@U?$less@K@std@@V?$allocator@U?$pair@$$CBKULOGIN_CACHE@CLoginProtect@@@std@@@4@$0A@@std@@@2@ABQAU342@@Z 00407e10 f i LoginProtect.obj
 0001:00006e30       ??0?$_Tree_nod@V?$_Tmap_traits@KKU?$less@K@std@@V?$allocator@U?$pair@$$CBKK@std@@@2@$0A@@std@@@std@@IAE@ABU?$less@K@1@V?$allocator@U?$pair@$$CBKK@std@@@1@@Z 00407e30 f i LoginProtect.obj
 0001:00006e40       ?construct@?$allocator@PAU_Node@?$_Tree_nod@V?$_Tmap_traits@KKU?$less@K@std@@V?$allocator@U?$pair@$$CBKK@std@@@2@$0A@@std@@@std@@@std@@QAEXPAPAU_Node@?$_Tree_nod@V?$_Tmap_traits@KKU?$less@K@std@@V?$allocator@U?$pair@$$CBKK@std@@@2@$0A@@std@@@2@ABQAU342@@Z 00407e40 f i LoginProtect.obj
 0001:00006e60       ??Econst_iterator@?$_Tree@V?$_Tmap_traits@KKU?$less@K@std@@V?$allocator@U?$pair@$$CBKK@std@@@2@$0A@@std@@@std@@QAEAAV012@XZ 00407e60 f i LoginProtect.obj
 0001:00006e70       ??Econst_iterator@?$_Tree@V?$_Tmap_traits@KULOGIN_CACHE@CLoginProtect@@U?$less@K@std@@V?$allocator@U?$pair@$$CBKULOGIN_CACHE@CLoginProtect@@@std@@@4@$0A@@std@@@std@@QAEAAV012@XZ 00407e70 f i LoginProtect.obj
 0001:00006e80       ?end@?$_Tree@V?$_Tmap_traits@KULOGIN_CACHE@CLoginProtect@@U?$less@K@std@@V?$allocator@U?$pair@$$CBKULOGIN_CACHE@CLoginProtect@@@std@@@4@$0A@@std@@@std@@QAE?AViterator@12@XZ 00407e80 f i LoginProtect.obj
 0001:00006e90       ?end@?$_Tree@V?$_Tmap_traits@KKU?$less@K@std@@V?$allocator@U?$pair@$$CBKK@std@@@2@$0A@@std@@@std@@QAE?AViterator@12@XZ 00407e90 f i LoginProtect.obj
 0001:00006ea0       ??Citerator@?$_Tree@V?$_Tmap_traits@KKU?$less@K@std@@V?$allocator@U?$pair@$$CBKK@std@@@2@$0A@@std@@@std@@QBEPAU?$pair@$$CBKK@2@XZ 00407ea0 f i LoginProtect.obj
 0001:00006eb0       ??Citerator@?$_Tree@V?$_Tmap_traits@KULOGIN_CACHE@CLoginProtect@@U?$less@K@std@@V?$allocator@U?$pair@$$CBKULOGIN_CACHE@CLoginProtect@@@std@@@4@$0A@@std@@@std@@QBEPAU?$pair@$$CBKULOGIN_CACHE@CLoginProtect@@@2@XZ 00407eb0 f i LoginProtect.obj
 0001:00006ec0       ?begin@?$_Tree@V?$_Tmap_traits@KULOGIN_CACHE@CLoginProtect@@U?$less@K@std@@V?$allocator@U?$pair@$$CBKULOGIN_CACHE@CLoginProtect@@@std@@@4@$0A@@std@@@std@@QAE?AViterator@12@XZ 00407ec0 f i LoginProtect.obj
 0001:00006ed0       ?lower_bound@?$_Tree@V?$_Tmap_traits@KULOGIN_CACHE@CLoginProtect@@U?$less@K@std@@V?$allocator@U?$pair@$$CBKULOGIN_CACHE@CLoginProtect@@@std@@@4@$0A@@std@@@std@@QAE?AViterator@12@ABK@Z 00407ed0 f i LoginProtect.obj
 0001:00006f10       ?_Erase@?$_Tree@V?$_Tmap_traits@KULOGIN_CACHE@CLoginProtect@@U?$less@K@std@@V?$allocator@U?$pair@$$CBKULOGIN_CACHE@CLoginProtect@@@std@@@4@$0A@@std@@@std@@IAEXPAU_Node@?$_Tree_nod@V?$_Tmap_traits@KULOGIN_CACHE@CLoginProtect@@U?$less@K@std@@V?$allocator@U?$pair@$$CBKULOGIN_CACHE@CLoginProtect@@@std@@@4@$0A@@std@@@2@@Z 00407f10 f i LoginProtect.obj
 0001:00006f50       ?begin@?$_Tree@V?$_Tmap_traits@KKU?$less@K@std@@V?$allocator@U?$pair@$$CBKK@std@@@2@$0A@@std@@@std@@QAE?AViterator@12@XZ 00407f50 f i LoginProtect.obj
 0001:00006f60       ?lower_bound@?$_Tree@V?$_Tmap_traits@KKU?$less@K@std@@V?$allocator@U?$pair@$$CBKK@std@@@2@$0A@@std@@@std@@QAE?AViterator@12@ABK@Z 00407f60 f i LoginProtect.obj
 0001:00006fa0       ?_Erase@?$_Tree@V?$_Tmap_traits@KKU?$less@K@std@@V?$allocator@U?$pair@$$CBKK@std@@@2@$0A@@std@@@std@@IAEXPAU_Node@?$_Tree_nod@V?$_Tmap_traits@KKU?$less@K@std@@V?$allocator@U?$pair@$$CBKK@std@@@2@$0A@@std@@@2@@Z 00407fa0 f i LoginProtect.obj
 0001:00006fe0       ??Fiterator@?$_Tree@V?$_Tmap_traits@KKU?$less@K@std@@V?$allocator@U?$pair@$$CBKK@std@@@2@$0A@@std@@@std@@QAEAAV012@XZ 00407fe0 f i LoginProtect.obj
 0001:00006ff0       ??Fiterator@?$_Tree@V?$_Tmap_traits@KULOGIN_CACHE@CLoginProtect@@U?$less@K@std@@V?$allocator@U?$pair@$$CBKULOGIN_CACHE@CLoginProtect@@@std@@@4@$0A@@std@@@std@@QAEAAV012@XZ 00407ff0 f i LoginProtect.obj
 0001:00007000       ?upper_bound@?$_Tree@V?$_Tmap_traits@KULOGIN_CACHE@CLoginProtect@@U?$less@K@std@@V?$allocator@U?$pair@$$CBKULOGIN_CACHE@CLoginProtect@@@std@@@4@$0A@@std@@@std@@QAE?AViterator@12@ABK@Z 00408000 f i LoginProtect.obj
 0001:00007040       ?_Buynode@?$_Tree@V?$_Tmap_traits@KULOGIN_CACHE@CLoginProtect@@U?$less@K@std@@V?$allocator@U?$pair@$$CBKULOGIN_CACHE@CLoginProtect@@@std@@@4@$0A@@std@@@std@@IAEPAU_Node@?$_Tree_nod@V?$_Tmap_traits@KULOGIN_CACHE@CLoginProtect@@U?$less@K@std@@V?$allocator@U?$pair@$$CBKULOGIN_CACHE@CLoginProtect@@@std@@@4@$0A@@std@@@2@PAU342@00ABU?$pair@$$CBKULOGIN_CACHE@CLoginProtect@@@2@D@Z 00408040 f i LoginProtect.obj
 0001:00007090       ?upper_bound@?$_Tree@V?$_Tmap_traits@KKU?$less@K@std@@V?$allocator@U?$pair@$$CBKK@std@@@2@$0A@@std@@@std@@QAE?AViterator@12@ABK@Z 00408090 f i LoginProtect.obj
 0001:000070d0       ?_Buynode@?$_Tree@V?$_Tmap_traits@KKU?$less@K@std@@V?$allocator@U?$pair@$$CBKK@std@@@2@$0A@@std@@@std@@IAEPAU_Node@?$_Tree_nod@V?$_Tmap_traits@KKU?$less@K@std@@V?$allocator@U?$pair@$$CBKK@std@@@2@$0A@@std@@@2@PAU342@00ABU?$pair@$$CBKK@2@D@Z 004080d0 f i LoginProtect.obj
 0001:00007110       ?_Buynode@?$_Tree@V?$_Tmap_traits@KULOGIN_CACHE@CLoginProtect@@U?$less@K@std@@V?$allocator@U?$pair@$$CBKULOGIN_CACHE@CLoginProtect@@@std@@@4@$0A@@std@@@std@@IAEPAU_Node@?$_Tree_nod@V?$_Tmap_traits@KULOGIN_CACHE@CLoginProtect@@U?$less@K@std@@V?$allocator@U?$pair@$$CBKULOGIN_CACHE@CLoginProtect@@@std@@@4@$0A@@std@@@2@XZ 00408110 f i LoginProtect.obj
 0001:00007150       ??0?$_Tree_ptr@V?$_Tmap_traits@KULOGIN_CACHE@CLoginProtect@@U?$less@K@std@@V?$allocator@U?$pair@$$CBKULOGIN_CACHE@CLoginProtect@@@std@@@4@$0A@@std@@@std@@IAE@ABU?$less@K@1@V?$allocator@U?$pair@$$CBKULOGIN_CACHE@CLoginProtect@@@std@@@1@@Z 00408150 f i LoginProtect.obj
 0001:00007160       ?_Buynode@?$_Tree@V?$_Tmap_traits@KKU?$less@K@std@@V?$allocator@U?$pair@$$CBKK@std@@@2@$0A@@std@@@std@@IAEPAU_Node@?$_Tree_nod@V?$_Tmap_traits@KKU?$less@K@std@@V?$allocator@U?$pair@$$CBKK@std@@@2@$0A@@std@@@2@XZ 00408160 f i LoginProtect.obj
 0001:000071a0       ??0?$_Tree_ptr@V?$_Tmap_traits@KKU?$less@K@std@@V?$allocator@U?$pair@$$CBKK@std@@@2@$0A@@std@@@std@@IAE@ABU?$less@K@1@V?$allocator@U?$pair@$$CBKK@std@@@1@@Z 004081a0 f i LoginProtect.obj
 0001:000071b0       ??Eiterator@?$_Tree@V?$_Tmap_traits@KKU?$less@K@std@@V?$allocator@U?$pair@$$CBKK@std@@@2@$0A@@std@@@std@@QAEAAV012@XZ 004081b0 f i LoginProtect.obj
 0001:000071c0       ??Eiterator@?$_Tree@V?$_Tmap_traits@KULOGIN_CACHE@CLoginProtect@@U?$less@K@std@@V?$allocator@U?$pair@$$CBKULOGIN_CACHE@CLoginProtect@@@std@@@4@$0A@@std@@@std@@QAEAAV012@XZ 004081c0 f i LoginProtect.obj
 0001:000071d0       ??$_Distance2@Viterator@?$_Tree@V?$_Tmap_traits@KULOGIN_CACHE@CLoginProtect@@U?$less@K@std@@V?$allocator@U?$pair@$$CBKULOGIN_CACHE@CLoginProtect@@@std@@@4@$0A@@std@@@std@@I@std@@YAXViterator@?$_Tree@V?$_Tmap_traits@KULOGIN_CACHE@CLoginProtect@@U?$less@K@std@@V?$allocator@U?$pair@$$CBKULOGIN_CACHE@CLoginProtect@@@std@@@4@$0A@@std@@@0@0AAIUbidirectional_iterator_tag@0@@Z 004081d0 f i LoginProtect.obj
 0001:00007200       ??$_Distance2@Viterator@?$_Tree@V?$_Tmap_traits@KKU?$less@K@std@@V?$allocator@U?$pair@$$CBKK@std@@@2@$0A@@std@@@std@@I@std@@YAXViterator@?$_Tree@V?$_Tmap_traits@KKU?$less@K@std@@V?$allocator@U?$pair@$$CBKK@std@@@2@$0A@@std@@@0@0AAIUbidirectional_iterator_tag@0@@Z 00408200 f i LoginProtect.obj
 0001:00007230       ?clear@?$_Tree@V?$_Tmap_traits@KULOGIN_CACHE@CLoginProtect@@U?$less@K@std@@V?$allocator@U?$pair@$$CBKULOGIN_CACHE@CLoginProtect@@@std@@@4@$0A@@std@@@std@@QAEXXZ 00408230 f i LoginProtect.obj
 0001:00007260       ?find@?$_Tree@V?$_Tmap_traits@KULOGIN_CACHE@CLoginProtect@@U?$less@K@std@@V?$allocator@U?$pair@$$CBKULOGIN_CACHE@CLoginProtect@@@std@@@4@$0A@@std@@@std@@QAE?AViterator@12@ABK@Z 00408260 f i LoginProtect.obj
 0001:000072d0       ?clear@?$_Tree@V?$_Tmap_traits@KKU?$less@K@std@@V?$allocator@U?$pair@$$CBKK@std@@@2@$0A@@std@@@std@@QAEXXZ 004082d0 f i LoginProtect.obj
 0001:00007300       ?find@?$_Tree@V?$_Tmap_traits@KKU?$less@K@std@@V?$allocator@U?$pair@$$CBKK@std@@@2@$0A@@std@@@std@@QAE?AViterator@12@ABK@Z 00408300 f i LoginProtect.obj
 0001:00007370       ?equal_range@?$_Tree@V?$_Tmap_traits@KULOGIN_CACHE@CLoginProtect@@U?$less@K@std@@V?$allocator@U?$pair@$$CBKULOGIN_CACHE@CLoginProtect@@@std@@@4@$0A@@std@@@std@@QAE?AU?$pair@Viterator@?$_Tree@V?$_Tmap_traits@KULOGIN_CACHE@CLoginProtect@@U?$less@K@std@@V?$allocator@U?$pair@$$CBKULOGIN_CACHE@CLoginProtect@@@std@@@4@$0A@@std@@@std@@V123@@2@ABK@Z 00408370 f i LoginProtect.obj
 0001:000073e0       ?equal_range@?$_Tree@V?$_Tmap_traits@KKU?$less@K@std@@V?$allocator@U?$pair@$$CBKK@std@@@2@$0A@@std@@@std@@QAE?AU?$pair@Viterator@?$_Tree@V?$_Tmap_traits@KKU?$less@K@std@@V?$allocator@U?$pair@$$CBKK@std@@@2@$0A@@std@@@std@@V123@@2@ABK@Z 004083e0 f i LoginProtect.obj
 0001:00007450       ?_Init@?$_Tree@V?$_Tmap_traits@KULOGIN_CACHE@CLoginProtect@@U?$less@K@std@@V?$allocator@U?$pair@$$CBKULOGIN_CACHE@CLoginProtect@@@std@@@4@$0A@@std@@@std@@IAEXXZ 00408450 f i LoginProtect.obj
 0001:00007480       ??0?$_Tree_val@V?$_Tmap_traits@KULOGIN_CACHE@CLoginProtect@@U?$less@K@std@@V?$allocator@U?$pair@$$CBKULOGIN_CACHE@CLoginProtect@@@std@@@4@$0A@@std@@@std@@IAE@ABU?$less@K@1@V?$allocator@U?$pair@$$CBKULOGIN_CACHE@CLoginProtect@@@std@@@1@@Z 00408480 f i LoginProtect.obj
 0001:00007490       ?_Init@?$_Tree@V?$_Tmap_traits@KKU?$less@K@std@@V?$allocator@U?$pair@$$CBKK@std@@@2@$0A@@std@@@std@@IAEXXZ 00408490 f i LoginProtect.obj
 0001:000074c0       ??0?$_Tree_val@V?$_Tmap_traits@KKU?$less@K@std@@V?$allocator@U?$pair@$$CBKK@std@@@2@$0A@@std@@@std@@IAE@ABU?$less@K@1@V?$allocator@U?$pair@$$CBKK@std@@@1@@Z 004084c0 f i LoginProtect.obj
 0001:000074d0       ??Eiterator@?$_Tree@V?$_Tmap_traits@KKU?$less@K@std@@V?$allocator@U?$pair@$$CBKK@std@@@2@$0A@@std@@@std@@QAE?AV012@H@Z 004084d0 f i LoginProtect.obj
 0001:000074f0       ??Eiterator@?$_Tree@V?$_Tmap_traits@KULOGIN_CACHE@CLoginProtect@@U?$less@K@std@@V?$allocator@U?$pair@$$CBKULOGIN_CACHE@CLoginProtect@@@std@@@4@$0A@@std@@@std@@QAE?AV012@H@Z 004084f0 f i LoginProtect.obj
 0001:00007510       ??$_Distance@Viterator@?$_Tree@V?$_Tmap_traits@KULOGIN_CACHE@CLoginProtect@@U?$less@K@std@@V?$allocator@U?$pair@$$CBKULOGIN_CACHE@CLoginProtect@@@std@@@4@$0A@@std@@@std@@I@std@@YAXViterator@?$_Tree@V?$_Tmap_traits@KULOGIN_CACHE@CLoginProtect@@U?$less@K@std@@V?$allocator@U?$pair@$$CBKULOGIN_CACHE@CLoginProtect@@@std@@@4@$0A@@std@@@0@0AAI@Z 00408510 f i LoginProtect.obj
 0001:00007550       ??$_Distance@Viterator@?$_Tree@V?$_Tmap_traits@KKU?$less@K@std@@V?$allocator@U?$pair@$$CBKK@std@@@2@$0A@@std@@@std@@I@std@@YAXViterator@?$_Tree@V?$_Tmap_traits@KKU?$less@K@std@@V?$allocator@U?$pair@$$CBKK@std@@@2@$0A@@std@@@0@0AAI@Z 00408550 f i LoginProtect.obj
 0001:00007590       ?Clear@CLoginProtect@@QAEXXZ 00408590 f   LoginProtect.obj
 0001:000075f0       ?GetNumPadId@CLoginProtect@@QAEKK@Z 004085f0 f   LoginProtect.obj
 0001:00007630       ?Check@CLoginProtect@@QAE?AW4LOGIN_CHECK@@K@Z 00408630 f   LoginProtect.obj
 0001:00007680       ??0?$_Tree@V?$_Tmap_traits@KULOGIN_CACHE@CLoginProtect@@U?$less@K@std@@V?$allocator@U?$pair@$$CBKULOGIN_CACHE@CLoginProtect@@@std@@@4@$0A@@std@@@std@@QAE@ABU?$less@K@1@ABV?$allocator@U?$pair@$$CBKULOGIN_CACHE@CLoginProtect@@@std@@@1@@Z 00408680 f i LoginProtect.obj
 0001:000076b0       ??0?$_Tree@V?$_Tmap_traits@KKU?$less@K@std@@V?$allocator@U?$pair@$$CBKK@std@@@2@$0A@@std@@@std@@QAE@ABU?$less@K@1@ABV?$allocator@U?$pair@$$CBKK@std@@@1@@Z 004086b0 f i LoginProtect.obj
 0001:000076e0       ?_Insert@?$_Tree@V?$_Tmap_traits@KULOGIN_CACHE@CLoginProtect@@U?$less@K@std@@V?$allocator@U?$pair@$$CBKULOGIN_CACHE@CLoginProtect@@@std@@@4@$0A@@std@@@std@@IAE?AViterator@12@_NPAU_Node@?$_Tree_nod@V?$_Tmap_traits@KULOGIN_CACHE@CLoginProtect@@U?$less@K@std@@V?$allocator@U?$pair@$$CBKULOGIN_CACHE@CLoginProtect@@@std@@@4@$0A@@std@@@2@ABU?$pair@$$CBKULOGIN_CACHE@CLoginProtect@@@2@@Z 004086e0 f i LoginProtect.obj
 0001:00007890       ?_Insert@?$_Tree@V?$_Tmap_traits@KKU?$less@K@std@@V?$allocator@U?$pair@$$CBKK@std@@@2@$0A@@std@@@std@@IAE?AViterator@12@_NPAU_Node@?$_Tree_nod@V?$_Tmap_traits@KKU?$less@K@std@@V?$allocator@U?$pair@$$CBKK@std@@@2@$0A@@std@@@2@ABU?$pair@$$CBKK@2@@Z 00408890 f i LoginProtect.obj
 0001:00007a40       ?erase@?$_Tree@V?$_Tmap_traits@KULOGIN_CACHE@CLoginProtect@@U?$less@K@std@@V?$allocator@U?$pair@$$CBKULOGIN_CACHE@CLoginProtect@@@std@@@4@$0A@@std@@@std@@QAE?AViterator@12@V312@@Z 00408a40 f i LoginProtect.obj
 0001:00007d00       ?erase@?$_Tree@V?$_Tmap_traits@KKU?$less@K@std@@V?$allocator@U?$pair@$$CBKK@std@@@2@$0A@@std@@@std@@QAE?AViterator@12@V312@@Z 00408d00 f i LoginProtect.obj
 0001:00007fc0       ?insert@?$_Tree@V?$_Tmap_traits@KULOGIN_CACHE@CLoginProtect@@U?$less@K@std@@V?$allocator@U?$pair@$$CBKULOGIN_CACHE@CLoginProtect@@@std@@@4@$0A@@std@@@std@@QAE?AU?$pair@Viterator@?$_Tree@V?$_Tmap_traits@KULOGIN_CACHE@CLoginProtect@@U?$less@K@std@@V?$allocator@U?$pair@$$CBKULOGIN_CACHE@CLoginProtect@@@std@@@4@$0A@@std@@@std@@_N@2@ABU?$pair@$$CBKULOGIN_CACHE@CLoginProtect@@@2@@Z 00408fc0 f i LoginProtect.obj
 0001:00008080       ?insert@?$_Tree@V?$_Tmap_traits@KKU?$less@K@std@@V?$allocator@U?$pair@$$CBKK@std@@@2@$0A@@std@@@std@@QAE?AU?$pair@Viterator@?$_Tree@V?$_Tmap_traits@KKU?$less@K@std@@V?$allocator@U?$pair@$$CBKK@std@@@2@$0A@@std@@@std@@_N@2@ABU?$pair@$$CBKK@2@@Z 00409080 f i LoginProtect.obj
 0001:00008140       ?erase@?$_Tree@V?$_Tmap_traits@KULOGIN_CACHE@CLoginProtect@@U?$less@K@std@@V?$allocator@U?$pair@$$CBKULOGIN_CACHE@CLoginProtect@@@std@@@4@$0A@@std@@@std@@QAE?AViterator@12@V312@0@Z 00409140 f i LoginProtect.obj
 0001:00008200       ?_Tidy@?$_Tree@V?$_Tmap_traits@KULOGIN_CACHE@CLoginProtect@@U?$less@K@std@@V?$allocator@U?$pair@$$CBKULOGIN_CACHE@CLoginProtect@@@std@@@4@$0A@@std@@@std@@IAEXXZ 00409200 f i LoginProtect.obj
 0001:00008230       ?erase@?$_Tree@V?$_Tmap_traits@KKU?$less@K@std@@V?$allocator@U?$pair@$$CBKK@std@@@2@$0A@@std@@@std@@QAE?AViterator@12@V312@0@Z 00409230 f i LoginProtect.obj
 0001:000082f0       ?_Tidy@?$_Tree@V?$_Tmap_traits@KKU?$less@K@std@@V?$allocator@U?$pair@$$CBKK@std@@@2@$0A@@std@@@std@@IAEXXZ 004092f0 f i LoginProtect.obj
 0001:00008320       ??1?$_Tree@V?$_Tmap_traits@KULOGIN_CACHE@CLoginProtect@@U?$less@K@std@@V?$allocator@U?$pair@$$CBKULOGIN_CACHE@CLoginProtect@@@std@@@4@$0A@@std@@@std@@QAE@XZ 00409320 f i LoginProtect.obj
 0001:00008350       ?erase@?$_Tree@V?$_Tmap_traits@KULOGIN_CACHE@CLoginProtect@@U?$less@K@std@@V?$allocator@U?$pair@$$CBKULOGIN_CACHE@CLoginProtect@@@std@@@4@$0A@@std@@@std@@QAEIABK@Z 00409350 f i LoginProtect.obj
 0001:000083b0       ??1?$_Tree@V?$_Tmap_traits@KKU?$less@K@std@@V?$allocator@U?$pair@$$CBKK@std@@@2@$0A@@std@@@std@@QAE@XZ 004093b0 f i LoginProtect.obj
 0001:000083e0       ?erase@?$_Tree@V?$_Tmap_traits@KKU?$less@K@std@@V?$allocator@U?$pair@$$CBKK@std@@@2@$0A@@std@@@std@@QAEIABK@Z 004093e0 f i LoginProtect.obj
 0001:00008440       ??1?$map@KULOGIN_CACHE@CLoginProtect@@U?$less@K@std@@V?$allocator@U?$pair@$$CBKULOGIN_CACHE@CLoginProtect@@@std@@@4@@std@@QAE@XZ 00409440 f i LoginProtect.obj
 0001:00008470       ??1?$map@KKU?$less@K@std@@V?$allocator@U?$pair@$$CBKK@std@@@2@@std@@QAE@XZ 00409470 f i LoginProtect.obj
 0001:000084a0       ??1CLoginProtect@@QAE@XZ   004094a0 f   LoginProtect.obj
 0001:00008540       ?SetNumPadId@CLoginProtect@@QAEKKH@Z 00409540 f   LoginProtect.obj
 0001:00008600       ?SetError@CLoginProtect@@QAEXKH@Z 00409600 f   LoginProtect.obj
 0001:000086a0       ??0?$map@KULOGIN_CACHE@CLoginProtect@@U?$less@K@std@@V?$allocator@U?$pair@$$CBKULOGIN_CACHE@CLoginProtect@@@std@@@4@@std@@QAE@XZ 004096a0 f i LoginProtect.obj
 0001:000086d0       ??0?$map@KKU?$less@K@std@@V?$allocator@U?$pair@$$CBKK@std@@@2@@std@@QAE@XZ 004096d0 f i LoginProtect.obj
 0001:00008700       ??0CLoginProtect@@QAE@XZ   00409700 f   LoginProtect.obj
 0001:00008790       ?GetInstance@CLoginProtect@@SAPAV1@XZ 00409790 f   LoginProtect.obj
 0001:000087f0       ?InterlockedExchangePointer@@YGPAXPAPAXPAX@Z 004097f0 f i LoginServer.obj
 0001:00008800       ?_AtlGetThreadACPFake@ATL@@YGIXZ 00409800 f i LoginServer.obj
 0001:00008880       ?_AtlGetThreadACPReal@ATL@@YGIXZ 00409880 f i LoginServer.obj
 0001:00008890       ?_AtlGetThreadACPThunk@ATL@@YGIXZ 00409890 f i LoginServer.obj
 0001:00008900       ?_AtlGetConversionACP@ATL@@YGIXZ 00409900 f i LoginServer.obj
 0001:00008910       ?StartServer@CDPMng@@QAEHGHK@Z 00409910 f i LoginServer.obj
 0001:00008960       ?ConnectToServer@CDPMng@@QAEHPBDGHKK@Z 00409960 f i LoginServer.obj
 0001:000089b0       ?Initialize@CMyTrace@@QAEXPAUHWND__@@PBDKK@Z 004099b0 f i LoginServer.obj
 0001:00008a00       ?AtlThrow@ATL@@YGXJ@Z      00409a00 f i LoginServer.obj
 0001:00008a20       _NpLog                     00409a20 f   LoginServer.obj
 0001:00008a40       _GGAuthUpdateCallback      00409a40 f   LoginServer.obj
 0001:00008a70       ?InitLanguageFromResource@@YAXPAUHINSTANCE__@@@Z 00409a70 f   LoginServer.obj
 0001:00008b20       ?_AtlGetStringResourceImage@ATL@@YAPBUATLSTRINGRESOURCEIMAGE@1@PAUHINSTANCE__@@PAUHRSRC__@@I@Z 00409b20 f i LoginServer.obj
 0001:00008b80       ?AtlGetStringResourceImage@ATL@@YAPBUATLSTRINGRESOURCEIMAGE@1@PAUHINSTANCE__@@I@Z 00409b80 f i LoginServer.obj
 0001:00008bc0       ?WndProc@@YGJPAUHWND__@@IIJ@Z 00409bc0 f   LoginServer.obj
 0001:00008d90       ?data@CStringData@ATL@@QAEPAXXZ 00409d90 f i LoginServer.obj
 0001:00008da0       ?IsLocked@CStringData@ATL@@QBE_NXZ 00409da0 f i LoginServer.obj
 0001:00008db0       ?IsShared@CStringData@ATL@@QBE_NXZ 00409db0 f i LoginServer.obj
 0001:00008dc0       ?Release@CStringData@ATL@@QAEXXZ 00409dc0 f i LoginServer.obj
 0001:00008de0       ??0CTime@ATL@@QAE@_J@Z     00409de0 f i LoginServer.obj
 0001:00008e00       ?StringCompare@?$ChTraitsCRT@D@ATL@@SAHPBD0@Z 00409e00 f i LoginServer.obj
 0001:00008e10       ??Econst_iterator@?$list@PAXV?$allocator@PAX@std@@@std@@QAEAAV012@XZ 00409e10 f i LoginServer.obj
 0001:00008e20       ??8const_iterator@?$list@PAXV?$allocator@PAX@std@@@std@@QBE_NABV012@@Z 00409e20 f i LoginServer.obj
 0001:00008e30       ?_Myval@?$list@PAXV?$allocator@PAX@std@@@std@@KAAAPAXPAU_Node@?$_List_nod@PAXV?$allocator@PAX@std@@@2@@Z 00409e30 f i LoginServer.obj
 0001:00008e40       ??$_Destroy@U_Node@?$_List_nod@PAXV?$allocator@PAX@std@@@std@@@std@@YAXPAU_Node@?$_List_nod@PAXV?$allocator@PAX@std@@@0@@Z 00409e40 f i LoginServer.obj
 0001:00008e50       ??$_Destroy@PAU_Node@?$_List_nod@PAXV?$allocator@PAX@std@@@std@@@std@@YAXPAPAU_Node@?$_List_nod@PAXV?$allocator@PAX@std@@@0@@Z 00409e50 f i LoginServer.obj
 0001:00008e60       ??B?$CSimpleStringT@D$0A@@ATL@@QBEPBDXZ 00409e60 f i LoginServer.obj
 0001:00008e70       ?GetString@?$CSimpleStringT@D$0A@@ATL@@QBEPBDXZ 00409e70 f i LoginServer.obj
 0001:00008e80       ?StringLength@?$CSimpleStringT@D$0A@@ATL@@SAHPBD@Z 00409e80 f i LoginServer.obj
 0001:00008ea0       ?GetData@?$CSimpleStringT@D$0A@@ATL@@ABEPAUCStringData@2@XZ 00409ea0 f i LoginServer.obj
 0001:00008eb0       ?SetLength@?$CSimpleStringT@D$0A@@ATL@@AAEXH@Z 00409eb0 f i LoginServer.obj
 0001:00008ee0       ?FindStringResourceInstance@?$StrTraitMFC@DV?$ChTraitsCRT@D@ATL@@@@SAPAUHINSTANCE__@@I@Z 00409ee0 f i LoginServer.obj
 0001:00008ef0       ?GetDefaultManager@?$StrTraitMFC@DV?$ChTraitsCRT@D@ATL@@@@SAPAUIAtlStringMgr@ATL@@XZ 00409ef0 f i LoginServer.obj
 0001:00008f00       ?Attach@?$CSimpleStringT@D$0A@@ATL@@AAEXPAUCStringData@2@@Z 00409f00 f i LoginServer.obj
 0001:00008f10       ?GetBaseTypeLength@?$ChTraitsCRT@D@ATL@@SAHPBGH@Z 00409f10 f i LoginServer.obj
 0001:00008f40       ?ConvertToBaseType@?$ChTraitsCRT@D@ATL@@SAXPADHPBGH@Z 00409f40 f i LoginServer.obj
 0001:00008f70       ?CopyChars@?$CSimpleStringT@D$0A@@ATL@@SAXPADPBDH@Z 00409f70 f i LoginServer.obj
 0001:00008f90       ?CopyCharsOverlapped@?$CSimpleStringT@D$0A@@ATL@@SAXPADPBDH@Z 00409f90 f i LoginServer.obj
 0001:00008fa0       ?ThrowMemoryException@?$CSimpleStringT@D$0A@@ATL@@KAXXZ 00409fa0 f i LoginServer.obj
 0001:00008fb0       ?Fork@?$CSimpleStringT@D$0A@@ATL@@AAEXH@Z 00409fb0 f i LoginServer.obj
 0001:00009030       ?Reallocate@?$CSimpleStringT@D$0A@@ATL@@AAEXH@Z 0040a030 f i LoginServer.obj
 0001:00009060       ?MyRegisterClass@@YAGPAUHINSTANCE__@@@Z 0040a060 f   LoginServer.obj
 0001:000090f0       ?Compare@?$CStringT@DV?$StrTraitMFC@DV?$ChTraitsCRT@D@ATL@@@@@ATL@@QBEHPBD@Z 0040a0f0 f i LoginServer.obj
 0001:00009110       ?GetTickCount@CTime@ATL@@SG?AV12@XZ 0040a110 f i LoginServer.obj
 0001:00009130       ??Eiterator@?$list@PAXV?$allocator@PAX@std@@@std@@QAEAAV012@XZ 0040a130 f i LoginServer.obj
 0001:00009140       ??9const_iterator@?$list@PAXV?$allocator@PAX@std@@@std@@QBE_NABV012@@Z 0040a140 f i LoginServer.obj
 0001:00009160       ?destroy@?$allocator@U_Node@?$_List_nod@PAXV?$allocator@PAX@std@@@std@@@std@@QAEXPAU_Node@?$_List_nod@PAXV?$allocator@PAX@std@@@2@@Z 0040a160 f i LoginServer.obj
 0001:00009170       ?destroy@?$allocator@PAU_Node@?$_List_nod@PAXV?$allocator@PAX@std@@@std@@@std@@QAEXPAPAU_Node@?$_List_nod@PAXV?$allocator@PAX@std@@@2@@Z 0040a170 f i LoginServer.obj
 0001:00009180       ??Dconst_iterator@?$list@PAXV?$allocator@PAX@std@@@std@@QBEABQAXXZ 0040a180 f i LoginServer.obj
 0001:00009190       ?GetLength@?$CSimpleStringT@D$0A@@ATL@@QBEHXZ 0040a190 f i LoginServer.obj
 0001:000091a0       ??0?$CSimpleStringT@D$0A@@ATL@@QAE@PAUIAtlStringMgr@1@@Z 0040a1a0 f i LoginServer.obj
 0001:000091c0       ??1?$CSimpleStringT@D$0A@@ATL@@QAE@XZ 0040a1c0 f i LoginServer.obj
 0001:000091e0       ?ReleaseBufferSetLength@?$CSimpleStringT@D$0A@@ATL@@QAEXH@Z 0040a1e0 f i LoginServer.obj
 0001:00009210       ?Empty@?$CSimpleStringT@D$0A@@ATL@@QAEXXZ 0040a210 f i LoginServer.obj
 0001:00009280       ?PrepareWrite2@?$CSimpleStringT@D$0A@@ATL@@AAEXH@Z 0040a280 f i LoginServer.obj
 0001:000092d0       ??8ATL@@YA_NABV?$CStringT@DV?$StrTraitMFC@DV?$ChTraitsCRT@D@ATL@@@@@0@PBD@Z 0040a2d0 f i LoginServer.obj
 0001:000092f0       ?begin@?$list@PAXV?$allocator@PAX@std@@@std@@QAE?AViterator@12@XZ 0040a2f0 f i LoginServer.obj
 0001:00009300       ?clear@?$list@PAXV?$allocator@PAX@std@@@std@@QAEXXZ 0040a300 f i LoginServer.obj
 0001:00009340       ?_Tidy@?$list@PAXV?$allocator@PAX@std@@@std@@IAEXXZ 0040a340 f i LoginServer.obj
 0001:00009360       ??Diterator@?$list@PAXV?$allocator@PAX@std@@@std@@QBEAAPAXXZ 0040a360 f i LoginServer.obj
 0001:00009370       ??1?$CStringT@DV?$StrTraitMFC@DV?$ChTraitsCRT@D@ATL@@@@@ATL@@QAE@XZ 0040a370 f i LoginServer.obj
 0001:00009390       ?PrepareWrite@?$CSimpleStringT@D$0A@@ATL@@AAEPADH@Z 0040a390 f i LoginServer.obj
 0001:000093c0       ?Script@@YAHPBD@Z          0040a3c0 f   LoginServer.obj
 0001:00009620       ??1?$list@PAXV?$allocator@PAX@std@@@std@@QAE@XZ 0040a620 f i LoginServer.obj
 0001:00009640       ?Destroy@?$MemPooler@VCUser@@@@IAEXXZ 0040a640 f i LoginServer.obj
 0001:000096b0       ?GetBuffer@?$CSimpleStringT@D$0A@@ATL@@QAEPADH@Z 0040a6b0 f i LoginServer.obj
 0001:000096e0       ?LoadStringA@?$CStringT@DV?$StrTraitMFC@DV?$ChTraitsCRT@D@ATL@@@@@ATL@@QAEHPAUHINSTANCE__@@I@Z 0040a6e0 f i LoginServer.obj
 0001:000097b0       ?SetString@?$CSimpleStringT@D$0A@@ATL@@QAEXPBDH@Z 0040a7b0 f i LoginServer.obj
 0001:00009850       ??1?$MemPooler@VCUser@@@@QAE@XZ 0040a850 f i LoginServer.obj
 0001:00009880       ?LoadStringA@?$CStringT@DV?$StrTraitMFC@DV?$ChTraitsCRT@D@ATL@@@@@ATL@@QAEHI@Z 0040a880 f i LoginServer.obj
 0001:000098b0       ?CheckImplicitLoad@?$CStringT@DV?$StrTraitMFC@DV?$ChTraitsCRT@D@ATL@@@@@ATL@@AAE_NPBX@Z 0040a8b0 f i LoginServer.obj
 0001:000098f0       ?SetString@?$CSimpleStringT@D$0A@@ATL@@QAEXPBD@Z 0040a8f0 f i LoginServer.obj
 0001:00009930       ??_G?$MemPooler@VCUser@@@@QAEPAXI@Z 0040a930 f i LoginServer.obj
 0001:00009950       ??4?$CSimpleStringT@D$0A@@ATL@@QAEAAV01@PBD@Z 0040a950 f i LoginServer.obj
 0001:00009990       ?ExitInstance@@YAXXZ       0040a990 f   LoginServer.obj
 0001:00009a00       ??4?$CStringT@DV?$StrTraitMFC@DV?$ChTraitsCRT@D@ATL@@@@@ATL@@QAEAAV01@PBD@Z 0040aa00 f i LoginServer.obj
 0001:00009a40       ??0?$CStringT@DV?$StrTraitMFC@DV?$ChTraitsCRT@D@ATL@@@@@ATL@@QAE@PBD@Z 0040aa40 f i LoginServer.obj
 0001:00009af0       ?Format@CTime@ATL@@QBE?AV?$CStringT@DV?$StrTraitMFC@DV?$ChTraitsCRT@D@ATL@@@@@2@PBD@Z 0040aaf0 f i LoginServer.obj
 0001:00009b80       ?InitInstance@@YAHPAUHINSTANCE__@@H@Z 0040ab80 f   LoginServer.obj
 0001:00009df0       _WinMain@16                0040adf0 f   LoginServer.obj
 0001:00009eb0       ?Allocate@CCRTAllocator@ATL@@SAPAXI@Z 0040aeb0 f i StdAfx.obj
 0001:00009ec0       ?Free@CCRTAllocator@ATL@@SAXPAX@Z 0040aec0 f i StdAfx.obj
 0001:00009ed0       ?_AtlVerifyStackAvailable@_ATL_SAFE_ALLOCA_IMPL@ATL@@YA_NK@Z 0040aed0 f i StdAfx.obj
 0001:00009f60       ?AtlA2WHelper@@YGPAGPAGPBDHI@Z 0040af60 f i StdAfx.obj
 0001:00009fa0       ?AtlW2AHelper@@YGPADPADPBGHI@Z 0040afa0 f i StdAfx.obj
 0001:00009fe0       ?AtlThrowLastWin32@ATL@@YGXXZ 0040afe0 f i StdAfx.obj
 0001:0000a000       ?_AtlInstallStringThunk@ATL@@YAXPAPAXPAX1@Z 0040b000 f i StdAfx.obj
 0001:0000a040       ?lstrcmpiWFake@ATL@@YGHPBG0@Z 0040b040 f i StdAfx.obj
 0001:0000a110       ?lstrcmpiWThunk@ATL@@YGHPBG0@Z 0040b110 f i StdAfx.obj
 0001:0000a160       ?CharLowerWFake@ATL@@YGPAGPAG@Z 0040b160 f i StdAfx.obj
 0001:0000a220       ?CharLowerWThunk@ATL@@YGPAGPAG@Z 0040b220 f i StdAfx.obj
 0001:0000a270       ?CharUpperWFake@ATL@@YGPAGPAG@Z 0040b270 f i StdAfx.obj
 0001:0000a330       ?CharUpperWThunk@ATL@@YGPAGPAG@Z 0040b330 f i StdAfx.obj
 0001:0000a380       ??1CTickCount@@QAE@XZ      0040b380 f i StdAfx.obj
 0001:0000a390       ??0CTickCount@@QAE@XZ      0040b390 f i StdAfx.obj
 0001:0000a3a0       ??0?$CAtlSafeAllocBufferManager@VCCRTAllocator@ATL@@@_ATL_SAFE_ALLOCA_IMPL@ATL@@QAE@XZ 0040b3a0 f i StdAfx.obj
 0001:0000a3b0       ??1?$CAtlSafeAllocBufferManager@VCCRTAllocator@ATL@@@_ATL_SAFE_ALLOCA_IMPL@ATL@@QAE@XZ 0040b3b0 f i StdAfx.obj
 0001:0000a3d0       ??0?$CTempBuffer@D$0IA@VCCRTAllocator@ATL@@@ATL@@QAE@XZ 0040b3d0 f i StdAfx.obj
 0001:0000a3e0       ??B?$CTempBuffer@D$0IA@VCCRTAllocator@ATL@@@ATL@@QBEPADXZ 0040b3e0 f i StdAfx.obj
 0001:0000a3f0       ??1?$CW2AEX@$0IA@@ATL@@QAE@XZ 0040b3f0 f i StdAfx.obj
 0001:0000a410       ??B?$CW2AEX@$0IA@@ATL@@QBEPADXZ 0040b410 f i StdAfx.obj
 0001:0000a420       ?FreeHeap@?$CTempBuffer@D$0IA@VCCRTAllocator@ATL@@@ATL@@AAEXXZ 0040b420 f i StdAfx.obj
 0001:0000a430       ?Init@?$CW2AEX@$0IA@@ATL@@AAEXPBGI@Z 0040b430 f i StdAfx.obj
 0001:0000a4a0       ?StringFindString@?$ChTraitsCRT@D@ATL@@SAPBDPBD0@Z 0040b4a0 f i StdAfx.obj
 0001:0000a4b0       ?StringUppercase@?$ChTraitsCRT@D@ATL@@SAPADPAD@Z 0040b4b0 f i StdAfx.obj
 0001:0000a4c0       ?GetData@CAtlSafeAllocBufferNode@?$CAtlSafeAllocBufferManager@VCCRTAllocator@ATL@@@_ATL_SAFE_ALLOCA_IMPL@ATL@@QAEPAXXZ 0040b4c0 f i StdAfx.obj
 0001:0000a4d0       ?AllocateHeap@?$CTempBuffer@D$0IA@VCCRTAllocator@ATL@@@ATL@@AAEXI@Z 0040b4d0 f i StdAfx.obj
 0001:0000a500       ?Allocate@?$CAtlSafeAllocBufferManager@VCCRTAllocator@ATL@@@_ATL_SAFE_ALLOCA_IMPL@ATL@@QAEPAXK@Z 0040b500 f i StdAfx.obj
 0001:0000a530       ??1?$CTempBuffer@D$0IA@VCCRTAllocator@ATL@@@ATL@@QAE@XZ 0040b530 f i StdAfx.obj
 0001:0000a540       ??0?$CW2AEX@$0IA@@ATL@@QAE@PBG@Z 0040b540 f i StdAfx.obj
 0001:0000a570       ?AllocateBytes@?$CTempBuffer@D$0IA@VCCRTAllocator@ATL@@@ATL@@QAEPADI@Z 0040b570 f i StdAfx.obj
 0001:0000a5a0       ?CompareStringWFake@ATL@@YGHKKPBGH0H@Z 0040b5a0 f i StdAfx.obj
 0001:0000a700       ?CompareStringWThunk@ATL@@YGHKKPBGH0H@Z 0040b700 f i StdAfx.obj
 0001:0000a750       ?Allocate@?$CTempBuffer@D$0IA@VCCRTAllocator@ATL@@@ATL@@QAEPADI@Z 0040b750 f i StdAfx.obj
 0001:0000a780       ??0?$CStringT@DV?$StrTraitMFC@DV?$ChTraitsCRT@D@ATL@@@@@ATL@@QAE@XZ 0040b780 f i StdAfx.obj
 0001:0000a7a0       ?Find@?$CStringT@DV?$StrTraitMFC@DV?$ChTraitsCRT@D@ATL@@@@@ATL@@QBEHPBDH@Z 0040b7a0 f i StdAfx.obj
 0001:0000a7e0       ?GetEnvironmentVariableWFake@ATL@@YGKPBGPAGK@Z 0040b7e0 f i StdAfx.obj
 0001:0000a970       ?GetEnvironmentVariableWThunk@ATL@@YGKPBGPAGK@Z 0040b970 f i StdAfx.obj
 0001:0000a9c0       ?GetStringTypeExWFake@ATL@@YGHKKPBGHPAG@Z 0040b9c0 f i StdAfx.obj
 0001:0000aad0       ?GetStringTypeExWThunk@ATL@@YGHKKPBGHPAG@Z 0040bad0 f i StdAfx.obj
 0001:0000ab20       ?MakeUpper@?$CStringT@DV?$StrTraitMFC@DV?$ChTraitsCRT@D@ATL@@@@@ATL@@QAEAAV12@XZ 0040bb20 f i StdAfx.obj
 0001:0000ab80       ?KillProcess@@YAHV?$CStringT@DV?$StrTraitMFC@DV?$ChTraitsCRT@D@ATL@@@@@ATL@@@Z 0040bb80 f   StdAfx.obj
 0001:0000ae20       ??0CUser@@QAE@K@Z          0040be20 f   User.obj
 0001:0000aea0       ??1CUser@@UAE@XZ           0040bea0 f   User.obj
 0001:0000aeb0       ?SetExtra@CUser@@QAEXPBDK@Z 0040beb0 f   User.obj
 0001:0000aee0       ??0?$pair@$$CBKPAVCUser@@@std@@QAE@ABKABQAVCUser@@@Z 0040bee0 f i User.obj
 0001:0000af00       ?_Color@?$_Tree@V?$_Tmap_traits@KPAVCUser@@U?$less@K@std@@V?$allocator@U?$pair@$$CBKPAVCUser@@@std@@@3@$0A@@std@@@std@@KAAADPAU_Node@?$_Tree_nod@V?$_Tmap_traits@KPAVCUser@@U?$less@K@std@@V?$allocator@U?$pair@$$CBKPAVCUser@@@std@@@3@$0A@@std@@@2@@Z 0040bf00 f i User.obj
 0001:0000af10       ?_Isnil@?$_Tree@V?$_Tmap_traits@KPAVCUser@@U?$less@K@std@@V?$allocator@U?$pair@$$CBKPAVCUser@@@std@@@3@$0A@@std@@@std@@KAAADPAU_Node@?$_Tree_nod@V?$_Tmap_traits@KPAVCUser@@U?$less@K@std@@V?$allocator@U?$pair@$$CBKPAVCUser@@@std@@@3@$0A@@std@@@2@@Z 0040bf10 f i User.obj
 0001:0000af20       ?_Left@?$_Tree@V?$_Tmap_traits@KPAVCUser@@U?$less@K@std@@V?$allocator@U?$pair@$$CBKPAVCUser@@@std@@@3@$0A@@std@@@std@@KAAAPAU_Node@?$_Tree_nod@V?$_Tmap_traits@KPAVCUser@@U?$less@K@std@@V?$allocator@U?$pair@$$CBKPAVCUser@@@std@@@3@$0A@@std@@@2@PAU342@@Z 0040bf20 f i User.obj
 0001:0000af30       ?_Parent@?$_Tree@V?$_Tmap_traits@KPAVCUser@@U?$less@K@std@@V?$allocator@U?$pair@$$CBKPAVCUser@@@std@@@3@$0A@@std@@@std@@KAAAPAU_Node@?$_Tree_nod@V?$_Tmap_traits@KPAVCUser@@U?$less@K@std@@V?$allocator@U?$pair@$$CBKPAVCUser@@@std@@@3@$0A@@std@@@2@PAU342@@Z 0040bf30 f i User.obj
 0001:0000af40       ?_Right@?$_Tree@V?$_Tmap_traits@KPAVCUser@@U?$less@K@std@@V?$allocator@U?$pair@$$CBKPAVCUser@@@std@@@3@$0A@@std@@@std@@KAAAPAU_Node@?$_Tree_nod@V?$_Tmap_traits@KPAVCUser@@U?$less@K@std@@V?$allocator@U?$pair@$$CBKPAVCUser@@@std@@@3@$0A@@std@@@2@PAU342@@Z 0040bf40 f i User.obj
 0001:0000af50       ?_Lmost@?$_Tree@V?$_Tmap_traits@KPAVCUser@@U?$less@K@std@@V?$allocator@U?$pair@$$CBKPAVCUser@@@std@@@3@$0A@@std@@@std@@IAEAAPAU_Node@?$_Tree_nod@V?$_Tmap_traits@KPAVCUser@@U?$less@K@std@@V?$allocator@U?$pair@$$CBKPAVCUser@@@std@@@3@$0A@@std@@@2@XZ 0040bf50 f i User.obj
 0001:0000af60       ?_Max@?$_Tree@V?$_Tmap_traits@KPAVCUser@@U?$less@K@std@@V?$allocator@U?$pair@$$CBKPAVCUser@@@std@@@3@$0A@@std@@@std@@KAPAU_Node@?$_Tree_nod@V?$_Tmap_traits@KPAVCUser@@U?$less@K@std@@V?$allocator@U?$pair@$$CBKPAVCUser@@@std@@@3@$0A@@std@@@2@PAU342@@Z 0040bf60 f i User.obj
 0001:0000af80       ?_Min@?$_Tree@V?$_Tmap_traits@KPAVCUser@@U?$less@K@std@@V?$allocator@U?$pair@$$CBKPAVCUser@@@std@@@3@$0A@@std@@@std@@KAPAU_Node@?$_Tree_nod@V?$_Tmap_traits@KPAVCUser@@U?$less@K@std@@V?$allocator@U?$pair@$$CBKPAVCUser@@@std@@@3@$0A@@std@@@2@PAU342@@Z 0040bf80 f i User.obj
 0001:0000afa0       ?_Rmost@?$_Tree@V?$_Tmap_traits@KPAVCUser@@U?$less@K@std@@V?$allocator@U?$pair@$$CBKPAVCUser@@@std@@@3@$0A@@std@@@std@@IAEAAPAU_Node@?$_Tree_nod@V?$_Tmap_traits@KPAVCUser@@U?$less@K@std@@V?$allocator@U?$pair@$$CBKPAVCUser@@@std@@@3@$0A@@std@@@2@XZ 0040bfa0 f i User.obj
 0001:0000afb0       ?_Root@?$_Tree@V?$_Tmap_traits@KPAVCUser@@U?$less@K@std@@V?$allocator@U?$pair@$$CBKPAVCUser@@@std@@@3@$0A@@std@@@std@@IAEAAPAU_Node@?$_Tree_nod@V?$_Tmap_traits@KPAVCUser@@U?$less@K@std@@V?$allocator@U?$pair@$$CBKPAVCUser@@@std@@@3@$0A@@std@@@2@XZ 0040bfb0 f i User.obj
 0001:0000afc0       ?_Rrotate@?$_Tree@V?$_Tmap_traits@KPAVCUser@@U?$less@K@std@@V?$allocator@U?$pair@$$CBKPAVCUser@@@std@@@3@$0A@@std@@@std@@IAEXPAU_Node@?$_Tree_nod@V?$_Tmap_traits@KPAVCUser@@U?$less@K@std@@V?$allocator@U?$pair@$$CBKPAVCUser@@@std@@@3@$0A@@std@@@2@@Z 0040bfc0 f i User.obj
 0001:0000b020       ?_Kfn@?$_Tmap_traits@KPAVCUser@@U?$less@K@std@@V?$allocator@U?$pair@$$CBKPAVCUser@@@std@@@3@$0A@@std@@SAABKABU?$pair@$$CBKPAVCUser@@@2@@Z 0040c020 f i User.obj
 0001:0000b030       ??0?$allocator@U?$pair@$$CBKPAVCUser@@@std@@@std@@QAE@XZ 0040c030 f i User.obj
 0001:0000b040       ?deallocate@?$allocator@U_Node@?$_Tree_nod@V?$_Tmap_traits@KPAVCUser@@U?$less@K@std@@V?$allocator@U?$pair@$$CBKPAVCUser@@@std@@@3@$0A@@std@@@std@@@std@@QAEXPAU_Node@?$_Tree_nod@V?$_Tmap_traits@KPAVCUser@@U?$less@K@std@@V?$allocator@U?$pair@$$CBKPAVCUser@@@std@@@3@$0A@@std@@@2@I@Z 0040c040 f i User.obj
 0001:0000b050       ?_Isnil@?$_Tree@V?$_Tmap_traits@V?$basic_string@DU?$char_traits@D@std@@V?$allocator@D@2@@std@@PAVCUser@@U?$less@V?$basic_string@DU?$char_traits@D@std@@V?$allocator@D@2@@std@@@2@V?$allocator@U?$pair@$$CBV?$basic_string@DU?$char_traits@D@std@@V?$allocator@D@2@@std@@PAVCUser@@@std@@@2@$0A@@std@@@std@@KAAADPAU_Node@?$_Tree_nod@V?$_Tmap_traits@V?$basic_string@DU?$char_traits@D@std@@V?$allocator@D@2@@std@@PAVCUser@@U?$less@V?$basic_string@DU?$char_traits@D@std@@V?$allocator@D@2@@std@@@2@V?$allocator@U?$pair@$$CBV?$basic_string@DU?$char_traits@D@std@@V?$allocator@D@2@@std@@PAVCUser@@@std@@@2@$0A@@std@@@2@@Z 0040c050 f i User.obj
 0001:0000b060       ?_Left@?$_Tree@V?$_Tmap_traits@V?$basic_string@DU?$char_traits@D@std@@V?$allocator@D@2@@std@@PAVCUser@@U?$less@V?$basic_string@DU?$char_traits@D@std@@V?$allocator@D@2@@std@@@2@V?$allocator@U?$pair@$$CBV?$basic_string@DU?$char_traits@D@std@@V?$allocator@D@2@@std@@PAVCUser@@@std@@@2@$0A@@std@@@std@@KAAAPAU_Node@?$_Tree_nod@V?$_Tmap_traits@V?$basic_string@DU?$char_traits@D@std@@V?$allocator@D@2@@std@@PAVCUser@@U?$less@V?$basic_string@DU?$char_traits@D@std@@V?$allocator@D@2@@std@@@2@V?$allocator@U?$pair@$$CBV?$basic_string@DU?$char_traits@D@std@@V?$allocator@D@2@@std@@PAVCUser@@@std@@@2@$0A@@std@@@2@PAU342@@Z 0040c060 f i User.obj
 0001:0000b070       ?_Right@?$_Tree@V?$_Tmap_traits@V?$basic_string@DU?$char_traits@D@std@@V?$allocator@D@2@@std@@PAVCUser@@U?$less@V?$basic_string@DU?$char_traits@D@std@@V?$allocator@D@2@@std@@@2@V?$allocator@U?$pair@$$CBV?$basic_string@DU?$char_traits@D@std@@V?$allocator@D@2@@std@@PAVCUser@@@std@@@2@$0A@@std@@@std@@KAAAPAU_Node@?$_Tree_nod@V?$_Tmap_traits@V?$basic_string@DU?$char_traits@D@std@@V?$allocator@D@2@@std@@PAVCUser@@U?$less@V?$basic_string@DU?$char_traits@D@std@@V?$allocator@D@2@@std@@@2@V?$allocator@U?$pair@$$CBV?$basic_string@DU?$char_traits@D@std@@V?$allocator@D@2@@std@@PAVCUser@@@std@@@2@$0A@@std@@@2@PAU342@@Z 0040c070 f i User.obj
 0001:0000b080       ?_Lmost@?$_Tree@V?$_Tmap_traits@V?$basic_string@DU?$char_traits@D@std@@V?$allocator@D@2@@std@@PAVCUser@@U?$less@V?$basic_string@DU?$char_traits@D@std@@V?$allocator@D@2@@std@@@2@V?$allocator@U?$pair@$$CBV?$basic_string@DU?$char_traits@D@std@@V?$allocator@D@2@@std@@PAVCUser@@@std@@@2@$0A@@std@@@std@@IAEAAPAU_Node@?$_Tree_nod@V?$_Tmap_traits@V?$basic_string@DU?$char_traits@D@std@@V?$allocator@D@2@@std@@PAVCUser@@U?$less@V?$basic_string@DU?$char_traits@D@std@@V?$allocator@D@2@@std@@@2@V?$allocator@U?$pair@$$CBV?$basic_string@DU?$char_traits@D@std@@V?$allocator@D@2@@std@@PAVCUser@@@std@@@2@$0A@@std@@@2@XZ 0040c080 f i User.obj
 0001:0000b090       ?_Rmost@?$_Tree@V?$_Tmap_traits@V?$basic_string@DU?$char_traits@D@std@@V?$allocator@D@2@@std@@PAVCUser@@U?$less@V?$basic_string@DU?$char_traits@D@std@@V?$allocator@D@2@@std@@@2@V?$allocator@U?$pair@$$CBV?$basic_string@DU?$char_traits@D@std@@V?$allocator@D@2@@std@@PAVCUser@@@std@@@2@$0A@@std@@@std@@IAEAAPAU_Node@?$_Tree_nod@V?$_Tmap_traits@V?$basic_string@DU?$char_traits@D@std@@V?$allocator@D@2@@std@@PAVCUser@@U?$less@V?$basic_string@DU?$char_traits@D@std@@V?$allocator@D@2@@std@@@2@V?$allocator@U?$pair@$$CBV?$basic_string@DU?$char_traits@D@std@@V?$allocator@D@2@@std@@PAVCUser@@@std@@@2@$0A@@std@@@2@XZ 0040c090 f i User.obj
 0001:0000b0a0       ?_Kfn@?$_Tmap_traits@V?$basic_string@DU?$char_traits@D@std@@V?$allocator@D@2@@std@@PAVCUser@@U?$less@V?$basic_string@DU?$char_traits@D@std@@V?$allocator@D@2@@std@@@2@V?$allocator@U?$pair@$$CBV?$basic_string@DU?$char_traits@D@std@@V?$allocator@D@2@@std@@PAVCUser@@@std@@@2@$0A@@std@@SAABV?$basic_string@DU?$char_traits@D@std@@V?$allocator@D@2@@2@ABU?$pair@$$CBV?$basic_string@DU?$char_traits@D@std@@V?$allocator@D@2@@std@@PAVCUser@@@2@@Z 0040c0a0 f i User.obj
 0001:0000b0b0       ??0?$allocator@U?$pair@$$CBV?$basic_string@DU?$char_traits@D@std@@V?$allocator@D@2@@std@@PAVCUser@@@std@@@std@@QAE@XZ 0040c0b0 f i User.obj
 0001:0000b0c0       ??8const_iterator@?$_Tree@V?$_Tmap_traits@KPAVCUser@@U?$less@K@std@@V?$allocator@U?$pair@$$CBKPAVCUser@@@std@@@3@$0A@@std@@@std@@QBE_NABV012@@Z 0040c0c0 f i User.obj
 0001:0000b0d0       ?_Mynode@const_iterator@?$_Tree@V?$_Tmap_traits@KPAVCUser@@U?$less@K@std@@V?$allocator@U?$pair@$$CBKPAVCUser@@@std@@@3@$0A@@std@@@std@@QBEPAU_Node@?$_Tree_nod@V?$_Tmap_traits@KPAVCUser@@U?$less@K@std@@V?$allocator@U?$pair@$$CBKPAVCUser@@@std@@@3@$0A@@std@@@3@XZ 0040c0d0 f i User.obj
 0001:0000b0e0       ??0?$pair@Viterator@?$_Tree@V?$_Tmap_traits@KPAVCUser@@U?$less@K@std@@V?$allocator@U?$pair@$$CBKPAVCUser@@@std@@@3@$0A@@std@@@std@@_N@std@@QAE@ABViterator@?$_Tree@V?$_Tmap_traits@KPAVCUser@@U?$less@K@std@@V?$allocator@U?$pair@$$CBKPAVCUser@@@std@@@3@$0A@@std@@@1@AB_N@Z 0040c0e0 f i User.obj
 0001:0000b100       ??0?$pair@Viterator@?$_Tree@V?$_Tmap_traits@V?$basic_string@DU?$char_traits@D@std@@V?$allocator@D@2@@std@@PAVCUser@@U?$less@V?$basic_string@DU?$char_traits@D@std@@V?$allocator@D@2@@std@@@2@V?$allocator@U?$pair@$$CBV?$basic_string@DU?$char_traits@D@std@@V?$allocator@D@2@@std@@PAVCUser@@@std@@@2@$0A@@std@@@std@@_N@std@@QAE@ABViterator@?$_Tree@V?$_Tmap_traits@V?$basic_string@DU?$char_traits@D@std@@V?$allocator@D@2@@std@@PAVCUser@@U?$less@V?$basic_string@DU?$char_traits@D@std@@V?$allocator@D@2@@std@@@2@V?$allocator@U?$pair@$$CBV?$basic_string@DU?$char_traits@D@std@@V?$allocator@D@2@@std@@PAVCUser@@@std@@@2@$0A@@std@@@1@AB_N@Z 0040c100 f i User.obj
 0001:0000b120       ??8const_iterator@?$_Tree@V?$_Tmap_traits@V?$basic_string@DU?$char_traits@D@std@@V?$allocator@D@2@@std@@PAVCUser@@U?$less@V?$basic_string@DU?$char_traits@D@std@@V?$allocator@D@2@@std@@@2@V?$allocator@U?$pair@$$CBV?$basic_string@DU?$char_traits@D@std@@V?$allocator@D@2@@std@@PAVCUser@@@std@@@2@$0A@@std@@@std@@QBE_NABV012@@Z 0040c120 f i User.obj
 0001:0000b130       ?_Mynode@const_iterator@?$_Tree@V?$_Tmap_traits@V?$basic_string@DU?$char_traits@D@std@@V?$allocator@D@2@@std@@PAVCUser@@U?$less@V?$basic_string@DU?$char_traits@D@std@@V?$allocator@D@2@@std@@@2@V?$allocator@U?$pair@$$CBV?$basic_string@DU?$char_traits@D@std@@V?$allocator@D@2@@std@@PAVCUser@@@std@@@2@$0A@@std@@@std@@QBEPAU_Node@?$_Tree_nod@V?$_Tmap_traits@V?$basic_string@DU?$char_traits@D@std@@V?$allocator@D@2@@std@@PAVCUser@@U?$less@V?$basic_string@DU?$char_traits@D@std@@V?$allocator@D@2@@std@@@2@V?$allocator@U?$pair@$$CBV?$basic_string@DU?$char_traits@D@std@@V?$allocator@D@2@@std@@PAVCUser@@@std@@@2@$0A@@std@@@3@XZ 0040c130 f i User.obj
 0001:0000b140       ??0?$allocator@PAX@std@@QAE@XZ 0040c140 f i User.obj
 0001:0000b150       ?_Myval@?$_Tree@V?$_Tmap_traits@KPAVCUser@@U?$less@K@std@@V?$allocator@U?$pair@$$CBKPAVCUser@@@std@@@3@$0A@@std@@@std@@KAAAU?$pair@$$CBKPAVCUser@@@2@PAU_Node@?$_Tree_nod@V?$_Tmap_traits@KPAVCUser@@U?$less@K@std@@V?$allocator@U?$pair@$$CBKPAVCUser@@@std@@@3@$0A@@std@@@2@@Z 0040c150 f i User.obj
 0001:0000b160       ??0?$allocator@U?$pair@$$CBKPAVCUser@@@std@@@std@@QAE@ABV01@@Z 0040c160 f i User.obj
 0001:0000b170       ?_Color@?$_Tree@V?$_Tmap_traits@V?$basic_string@DU?$char_traits@D@std@@V?$allocator@D@2@@std@@PAVCUser@@U?$less@V?$basic_string@DU?$char_traits@D@std@@V?$allocator@D@2@@std@@@2@V?$allocator@U?$pair@$$CBV?$basic_string@DU?$char_traits@D@std@@V?$allocator@D@2@@std@@PAVCUser@@@std@@@2@$0A@@std@@@std@@KAAADPAU_Node@?$_Tree_nod@V?$_Tmap_traits@V?$basic_string@DU?$char_traits@D@std@@V?$allocator@D@2@@std@@PAVCUser@@U?$less@V?$basic_string@DU?$char_traits@D@std@@V?$allocator@D@2@@std@@@2@V?$allocator@U?$pair@$$CBV?$basic_string@DU?$char_traits@D@std@@V?$allocator@D@2@@std@@PAVCUser@@@std@@@2@$0A@@std@@@2@@Z 0040c170 f i User.obj
 0001:0000b180       ?_Parent@?$_Tree@V?$_Tmap_traits@V?$basic_string@DU?$char_traits@D@std@@V?$allocator@D@2@@std@@PAVCUser@@U?$less@V?$basic_string@DU?$char_traits@D@std@@V?$allocator@D@2@@std@@@2@V?$allocator@U?$pair@$$CBV?$basic_string@DU?$char_traits@D@std@@V?$allocator@D@2@@std@@PAVCUser@@@std@@@2@$0A@@std@@@std@@KAAAPAU_Node@?$_Tree_nod@V?$_Tmap_traits@V?$basic_string@DU?$char_traits@D@std@@V?$allocator@D@2@@std@@PAVCUser@@U?$less@V?$basic_string@DU?$char_traits@D@std@@V?$allocator@D@2@@std@@@2@V?$allocator@U?$pair@$$CBV?$basic_string@DU?$char_traits@D@std@@V?$allocator@D@2@@std@@PAVCUser@@@std@@@2@$0A@@std@@@2@PAU342@@Z 0040c180 f i User.obj
 0001:0000b190       ?_Myval@?$_Tree@V?$_Tmap_traits@V?$basic_string@DU?$char_traits@D@std@@V?$allocator@D@2@@std@@PAVCUser@@U?$less@V?$basic_string@DU?$char_traits@D@std@@V?$allocator@D@2@@std@@@2@V?$allocator@U?$pair@$$CBV?$basic_string@DU?$char_traits@D@std@@V?$allocator@D@2@@std@@PAVCUser@@@std@@@2@$0A@@std@@@std@@KAAAU?$pair@$$CBV?$basic_string@DU?$char_traits@D@std@@V?$allocator@D@2@@std@@PAVCUser@@@2@PAU_Node@?$_Tree_nod@V?$_Tmap_traits@V?$basic_string@DU?$char_traits@D@std@@V?$allocator@D@2@@std@@PAVCUser@@U?$less@V?$basic_string@DU?$char_traits@D@std@@V?$allocator@D@2@@std@@@2@V?$allocator@U?$pair@$$CBV?$basic_string@DU?$char_traits@D@std@@V?$allocator@D@2@@std@@PAVCUser@@@std@@@2@$0A@@std@@@2@@Z 0040c190 f i User.obj
 0001:0000b1a0       ??0?$allocator@U?$pair@$$CBV?$basic_string@DU?$char_traits@D@std@@V?$allocator@D@2@@std@@PAVCUser@@@std@@@std@@QAE@ABV01@@Z 0040c1a0 f i User.obj
 0001:0000b1b0       ?deallocate@?$allocator@U_Node@?$_Tree_nod@V?$_Tmap_traits@V?$basic_string@DU?$char_traits@D@std@@V?$allocator@D@2@@std@@PAVCUser@@U?$less@V?$basic_string@DU?$char_traits@D@std@@V?$allocator@D@2@@std@@@2@V?$allocator@U?$pair@$$CBV?$basic_string@DU?$char_traits@D@std@@V?$allocator@D@2@@std@@PAVCUser@@@std@@@2@$0A@@std@@@std@@@std@@QAEXPAU_Node@?$_Tree_nod@V?$_Tmap_traits@V?$basic_string@DU?$char_traits@D@std@@V?$allocator@D@2@@std@@PAVCUser@@U?$less@V?$basic_string@DU?$char_traits@D@std@@V?$allocator@D@2@@std@@@2@V?$allocator@U?$pair@$$CBV?$basic_string@DU?$char_traits@D@std@@V?$allocator@D@2@@std@@PAVCUser@@@std@@@2@$0A@@std@@@2@I@Z 0040c1b0 f i User.obj
 0001:0000b1c0       ??0const_iterator@?$_Tree@V?$_Tmap_traits@KPAVCUser@@U?$less@K@std@@V?$allocator@U?$pair@$$CBKPAVCUser@@@std@@@3@$0A@@std@@@std@@QAE@PAU_Node@?$_Tree_nod@V?$_Tmap_traits@KPAVCUser@@U?$less@K@std@@V?$allocator@U?$pair@$$CBKPAVCUser@@@std@@@3@$0A@@std@@@2@@Z 0040c1c0 f i User.obj
 0001:0000b1d0       ??Dconst_iterator@?$_Tree@V?$_Tmap_traits@KPAVCUser@@U?$less@K@std@@V?$allocator@U?$pair@$$CBKPAVCUser@@@std@@@3@$0A@@std@@@std@@QBEABU?$pair@$$CBKPAVCUser@@@2@XZ 0040c1d0 f i User.obj
 0001:0000b1e0       ?_Inc@const_iterator@?$_Tree@V?$_Tmap_traits@KPAVCUser@@U?$less@K@std@@V?$allocator@U?$pair@$$CBKPAVCUser@@@std@@@3@$0A@@std@@@std@@QAEXXZ 0040c1e0 f i User.obj
 0001:0000b240       ??0const_iterator@?$_Tree@V?$_Tmap_traits@V?$basic_string@DU?$char_traits@D@std@@V?$allocator@D@2@@std@@PAVCUser@@U?$less@V?$basic_string@DU?$char_traits@D@std@@V?$allocator@D@2@@std@@@2@V?$allocator@U?$pair@$$CBV?$basic_string@DU?$char_traits@D@std@@V?$allocator@D@2@@std@@PAVCUser@@@std@@@2@$0A@@std@@@std@@QAE@PAU_Node@?$_Tree_nod@V?$_Tmap_traits@V?$basic_string@DU?$char_traits@D@std@@V?$allocator@D@2@@std@@PAVCUser@@U?$less@V?$basic_string@DU?$char_traits@D@std@@V?$allocator@D@2@@std@@@2@V?$allocator@U?$pair@$$CBV?$basic_string@DU?$char_traits@D@std@@V?$allocator@D@2@@std@@PAVCUser@@@std@@@2@$0A@@std@@@2@@Z 0040c240 f i User.obj
 0001:0000b250       ??Dconst_iterator@?$_Tree@V?$_Tmap_traits@V?$basic_string@DU?$char_traits@D@std@@V?$allocator@D@2@@std@@PAVCUser@@U?$less@V?$basic_string@DU?$char_traits@D@std@@V?$allocator@D@2@@std@@@2@V?$allocator@U?$pair@$$CBV?$basic_string@DU?$char_traits@D@std@@V?$allocator@D@2@@std@@PAVCUser@@@std@@@2@$0A@@std@@@std@@QBEABU?$pair@$$CBV?$basic_string@DU?$char_traits@D@std@@V?$allocator@D@2@@std@@PAVCUser@@@2@XZ 0040c250 f i User.obj
 0001:0000b260       ??0?$pair@Viterator@?$_Tree@V?$_Tmap_traits@V?$basic_string@DU?$char_traits@D@std@@V?$allocator@D@2@@std@@PAVCUser@@U?$less@V?$basic_string@DU?$char_traits@D@std@@V?$allocator@D@2@@std@@@2@V?$allocator@U?$pair@$$CBV?$basic_string@DU?$char_traits@D@std@@V?$allocator@D@2@@std@@PAVCUser@@@std@@@2@$0A@@std@@@std@@V123@@std@@QAE@ABViterator@?$_Tree@V?$_Tmap_traits@V?$basic_string@DU?$char_traits@D@std@@V?$allocator@D@2@@std@@PAVCUser@@U?$less@V?$basic_string@DU?$char_traits@D@std@@V?$allocator@D@2@@std@@@2@V?$allocator@U?$pair@$$CBV?$basic_string@DU?$char_traits@D@std@@V?$allocator@D@2@@std@@PAVCUser@@@std@@@2@$0A@@std@@@1@0@Z 0040c260 f i User.obj
 0001:0000b280       ??0?$allocator@PAX@std@@QAE@ABV01@@Z 0040c280 f i User.obj
 0001:0000b290       ?_Root@?$_Tree@V?$_Tmap_traits@KPAVCUser@@U?$less@K@std@@V?$allocator@U?$pair@$$CBKPAVCUser@@@std@@@3@$0A@@std@@@std@@IBEAAPAU_Node@?$_Tree_nod@V?$_Tmap_traits@KPAVCUser@@U?$less@K@std@@V?$allocator@U?$pair@$$CBKPAVCUser@@@std@@@3@$0A@@std@@@2@XZ 0040c290 f i User.obj
 0001:0000b2a0       ?max_size@?$allocator@U?$pair@$$CBKPAVCUser@@@std@@@std@@QBEIXZ 0040c2a0 f i User.obj
 0001:0000b2b0       ?_Max@?$_Tree@V?$_Tmap_traits@V?$basic_string@DU?$char_traits@D@std@@V?$allocator@D@2@@std@@PAVCUser@@U?$less@V?$basic_string@DU?$char_traits@D@std@@V?$allocator@D@2@@std@@@2@V?$allocator@U?$pair@$$CBV?$basic_string@DU?$char_traits@D@std@@V?$allocator@D@2@@std@@PAVCUser@@@std@@@2@$0A@@std@@@std@@KAPAU_Node@?$_Tree_nod@V?$_Tmap_traits@V?$basic_string@DU?$char_traits@D@std@@V?$allocator@D@2@@std@@PAVCUser@@U?$less@V?$basic_string@DU?$char_traits@D@std@@V?$allocator@D@2@@std@@@2@V?$allocator@U?$pair@$$CBV?$basic_string@DU?$char_traits@D@std@@V?$allocator@D@2@@std@@PAVCUser@@@std@@@2@$0A@@std@@@2@PAU342@@Z 0040c2b0 f i User.obj
 0001:0000b2d0       ?_Min@?$_Tree@V?$_Tmap_traits@V?$basic_string@DU?$char_traits@D@std@@V?$allocator@D@2@@std@@PAVCUser@@U?$less@V?$basic_string@DU?$char_traits@D@std@@V?$allocator@D@2@@std@@@2@V?$allocator@U?$pair@$$CBV?$basic_string@DU?$char_traits@D@std@@V?$allocator@D@2@@std@@PAVCUser@@@std@@@2@$0A@@std@@@std@@KAPAU_Node@?$_Tree_nod@V?$_Tmap_traits@V?$basic_string@DU?$char_traits@D@std@@V?$allocator@D@2@@std@@PAVCUser@@U?$less@V?$basic_string@DU?$char_traits@D@std@@V?$allocator@D@2@@std@@@2@V?$allocator@U?$pair@$$CBV?$basic_string@DU?$char_traits@D@std@@V?$allocator@D@2@@std@@PAVCUser@@@std@@@2@$0A@@std@@@2@PAU342@@Z 0040c2d0 f i User.obj
 0001:0000b2f0       ?_Root@?$_Tree@V?$_Tmap_traits@V?$basic_string@DU?$char_traits@D@std@@V?$allocator@D@2@@std@@PAVCUser@@U?$less@V?$basic_string@DU?$char_traits@D@std@@V?$allocator@D@2@@std@@@2@V?$allocator@U?$pair@$$CBV?$basic_string@DU?$char_traits@D@std@@V?$allocator@D@2@@std@@PAVCUser@@@std@@@2@$0A@@std@@@std@@IBEAAPAU_Node@?$_Tree_nod@V?$_Tmap_traits@V?$basic_string@DU?$char_traits@D@std@@V?$allocator@D@2@@std@@PAVCUser@@U?$less@V?$basic_string@DU?$char_traits@D@std@@V?$allocator@D@2@@std@@@2@V?$allocator@U?$pair@$$CBV?$basic_string@DU?$char_traits@D@std@@V?$allocator@D@2@@std@@PAVCUser@@@std@@@2@$0A@@std@@@2@XZ 0040c2f0 f i User.obj
 0001:0000b300       ?max_size@?$allocator@U?$pair@$$CBV?$basic_string@DU?$char_traits@D@std@@V?$allocator@D@2@@std@@PAVCUser@@@std@@@std@@QBEIXZ 0040c300 f i User.obj
 0001:0000b310       ?_Dec@const_iterator@?$_Tree@V?$_Tmap_traits@KPAVCUser@@U?$less@K@std@@V?$allocator@U?$pair@$$CBKPAVCUser@@@std@@@3@$0A@@std@@@std@@QAEXXZ 0040c310 f i User.obj
 0001:0000b370       ?_Dec@const_iterator@?$_Tree@V?$_Tmap_traits@V?$basic_string@DU?$char_traits@D@std@@V?$allocator@D@2@@std@@PAVCUser@@U?$less@V?$basic_string@DU?$char_traits@D@std@@V?$allocator@D@2@@std@@@2@V?$allocator@U?$pair@$$CBV?$basic_string@DU?$char_traits@D@std@@V?$allocator@D@2@@std@@PAVCUser@@@std@@@2@$0A@@std@@@std@@QAEXXZ 0040c370 f i User.obj
 0001:0000b3d0       ??0_Node@?$_Tree_nod@V?$_Tmap_traits@KPAVCUser@@U?$less@K@std@@V?$allocator@U?$pair@$$CBKPAVCUser@@@std@@@3@$0A@@std@@@std@@QAE@PAU012@00ABU?$pair@$$CBKPAVCUser@@@2@D@Z 0040c3d0 f i User.obj
 0001:0000b410       ??0?$_Tmap_traits@KPAVCUser@@U?$less@K@std@@V?$allocator@U?$pair@$$CBKPAVCUser@@@std@@@3@$0A@@std@@QAE@U?$less@K@1@@Z 0040c410 f i User.obj
 0001:0000b420       ??0?$_Tmap_traits@V?$basic_string@DU?$char_traits@D@std@@V?$allocator@D@2@@std@@PAVCUser@@U?$less@V?$basic_string@DU?$char_traits@D@std@@V?$allocator@D@2@@std@@@2@V?$allocator@U?$pair@$$CBV?$basic_string@DU?$char_traits@D@std@@V?$allocator@D@2@@std@@PAVCUser@@@std@@@2@$0A@@std@@QAE@U?$less@V?$basic_string@DU?$char_traits@D@std@@V?$allocator@D@2@@std@@@1@@Z 0040c420 f i User.obj
 0001:0000b430       ?_Inc@const_iterator@?$_Tree@V?$_Tmap_traits@V?$basic_string@DU?$char_traits@D@std@@V?$allocator@D@2@@std@@PAVCUser@@U?$less@V?$basic_string@DU?$char_traits@D@std@@V?$allocator@D@2@@std@@@2@V?$allocator@U?$pair@$$CBV?$basic_string@DU?$char_traits@D@std@@V?$allocator@D@2@@std@@PAVCUser@@@std@@@2@$0A@@std@@@std@@QAEXXZ 0040c430 f i User.obj
 0001:0000b490       ??$_Destroy@U_Node@?$_Tree_nod@V?$_Tmap_traits@KPAVCUser@@U?$less@K@std@@V?$allocator@U?$pair@$$CBKPAVCUser@@@std@@@3@$0A@@std@@@std@@@std@@YAXPAU_Node@?$_Tree_nod@V?$_Tmap_traits@KPAVCUser@@U?$less@K@std@@V?$allocator@U?$pair@$$CBKPAVCUser@@@std@@@3@$0A@@std@@@0@@Z 0040c490 f i User.obj
 0001:0000b4a0       ??$_Destroy@PAU_Node@?$_Tree_nod@V?$_Tmap_traits@KPAVCUser@@U?$less@K@std@@V?$allocator@U?$pair@$$CBKPAVCUser@@@std@@@3@$0A@@std@@@std@@@std@@YAXPAPAU_Node@?$_Tree_nod@V?$_Tmap_traits@KPAVCUser@@U?$less@K@std@@V?$allocator@U?$pair@$$CBKPAVCUser@@@std@@@3@$0A@@std@@@0@@Z 0040c4a0 f i User.obj
 0001:0000b4b0       ??$_Destroy@PAU_Node@?$_Tree_nod@V?$_Tmap_traits@V?$basic_string@DU?$char_traits@D@std@@V?$allocator@D@2@@std@@PAVCUser@@U?$less@V?$basic_string@DU?$char_traits@D@std@@V?$allocator@D@2@@std@@@2@V?$allocator@U?$pair@$$CBV?$basic_string@DU?$char_traits@D@std@@V?$allocator@D@2@@std@@PAVCUser@@@std@@@2@$0A@@std@@@std@@@std@@YAXPAPAU_Node@?$_Tree_nod@V?$_Tmap_traits@V?$basic_string@DU?$char_traits@D@std@@V?$allocator@D@2@@std@@PAVCUser@@U?$less@V?$basic_string@DU?$char_traits@D@std@@V?$allocator@D@2@@std@@@2@V?$allocator@U?$pair@$$CBV?$basic_string@DU?$char_traits@D@std@@V?$allocator@D@2@@std@@PAVCUser@@@std@@@2@$0A@@std@@@0@@Z 0040c4b0 f i User.obj
 0001:0000b4c0       ??$?0PAX@?$allocator@PAU_Node@?$_List_nod@PAXV?$allocator@PAX@std@@@std@@@std@@QAE@ABV?$allocator@PAX@1@@Z 0040c4c0 f i User.obj
 0001:0000b4d0       ??$_Construct@PAU_Node@?$_List_nod@PAXV?$allocator@PAX@std@@@std@@PAU123@@std@@YAXPAPAU_Node@?$_List_nod@PAXV?$allocator@PAX@std@@@0@ABQAU120@@Z 0040c4d0 f i User.obj
 0001:0000b4f0       ??$?0U?$pair@$$CBKPAVCUser@@@std@@@?$allocator@PAU_Node@?$_Tree_nod@V?$_Tmap_traits@KPAVCUser@@U?$less@K@std@@V?$allocator@U?$pair@$$CBKPAVCUser@@@std@@@3@$0A@@std@@@std@@@std@@QAE@ABV?$allocator@U?$pair@$$CBKPAVCUser@@@std@@@1@@Z 0040c4f0 f i User.obj
 0001:0000b500       ??$_Allocate@U_Node@?$_Tree_nod@V?$_Tmap_traits@KPAVCUser@@U?$less@K@std@@V?$allocator@U?$pair@$$CBKPAVCUser@@@std@@@3@$0A@@std@@@std@@@std@@YAPAU_Node@?$_Tree_nod@V?$_Tmap_traits@KPAVCUser@@U?$less@K@std@@V?$allocator@U?$pair@$$CBKPAVCUser@@@std@@@3@$0A@@std@@@0@IPAU120@@Z 0040c500 f i User.obj
 0001:0000b520       ??$?0U?$pair@$$CBV?$basic_string@DU?$char_traits@D@std@@V?$allocator@D@2@@std@@PAVCUser@@@std@@@?$allocator@PAU_Node@?$_Tree_nod@V?$_Tmap_traits@V?$basic_string@DU?$char_traits@D@std@@V?$allocator@D@2@@std@@PAVCUser@@U?$less@V?$basic_string@DU?$char_traits@D@std@@V?$allocator@D@2@@std@@@2@V?$allocator@U?$pair@$$CBV?$basic_string@DU?$char_traits@D@std@@V?$allocator@D@2@@std@@PAVCUser@@@std@@@2@$0A@@std@@@std@@@std@@QAE@ABV?$allocator@U?$pair@$$CBV?$basic_string@DU?$char_traits@D@std@@V?$allocator@D@2@@std@@PAVCUser@@@std@@@1@@Z 0040c520 f i User.obj
 0001:0000b530       ??$_Allocate@U_Node@?$_Tree_nod@V?$_Tmap_traits@V?$basic_string@DU?$char_traits@D@std@@V?$allocator@D@2@@std@@PAVCUser@@U?$less@V?$basic_string@DU?$char_traits@D@std@@V?$allocator@D@2@@std@@@2@V?$allocator@U?$pair@$$CBV?$basic_string@DU?$char_traits@D@std@@V?$allocator@D@2@@std@@PAVCUser@@@std@@@2@$0A@@std@@@std@@@std@@YAPAU_Node@?$_Tree_nod@V?$_Tmap_traits@V?$basic_string@DU?$char_traits@D@std@@V?$allocator@D@2@@std@@PAVCUser@@U?$less@V?$basic_string@DU?$char_traits@D@std@@V?$allocator@D@2@@std@@@2@V?$allocator@U?$pair@$$CBV?$basic_string@DU?$char_traits@D@std@@V?$allocator@D@2@@std@@PAVCUser@@@std@@@2@$0A@@std@@@0@IPAU120@@Z 0040c530 f i User.obj
 0001:0000b550       ??$?0PAX@?$allocator@U_Node@?$_List_nod@PAXV?$allocator@PAX@std@@@std@@@std@@QAE@ABV?$allocator@PAX@1@@Z 0040c550 f i User.obj
 0001:0000b560       ??$?0U?$pair@$$CBKPAVCUser@@@std@@@?$allocator@U_Node@?$_Tree_nod@V?$_Tmap_traits@KPAVCUser@@U?$less@K@std@@V?$allocator@U?$pair@$$CBKPAVCUser@@@std@@@3@$0A@@std@@@std@@@std@@QAE@ABV?$allocator@U?$pair@$$CBKPAVCUser@@@std@@@1@@Z 0040c560 f i User.obj
 0001:0000b570       ??$_Construct@PAU_Node@?$_Tree_nod@V?$_Tmap_traits@KPAVCUser@@U?$less@K@std@@V?$allocator@U?$pair@$$CBKPAVCUser@@@std@@@3@$0A@@std@@@std@@PAU123@@std@@YAXPAPAU_Node@?$_Tree_nod@V?$_Tmap_traits@KPAVCUser@@U?$less@K@std@@V?$allocator@U?$pair@$$CBKPAVCUser@@@std@@@3@$0A@@std@@@0@ABQAU120@@Z 0040c570 f i User.obj
 0001:0000b590       ??$?0U?$pair@$$CBV?$basic_string@DU?$char_traits@D@std@@V?$allocator@D@2@@std@@PAVCUser@@@std@@@?$allocator@U_Node@?$_Tree_nod@V?$_Tmap_traits@V?$basic_string@DU?$char_traits@D@std@@V?$allocator@D@2@@std@@PAVCUser@@U?$less@V?$basic_string@DU?$char_traits@D@std@@V?$allocator@D@2@@std@@@2@V?$allocator@U?$pair@$$CBV?$basic_string@DU?$char_traits@D@std@@V?$allocator@D@2@@std@@PAVCUser@@@std@@@2@$0A@@std@@@std@@@std@@QAE@ABV?$allocator@U?$pair@$$CBV?$basic_string@DU?$char_traits@D@std@@V?$allocator@D@2@@std@@PAVCUser@@@std@@@1@@Z 0040c590 f i User.obj
 0001:0000b5a0       ??$_Construct@PAU_Node@?$_Tree_nod@V?$_Tmap_traits@V?$basic_string@DU?$char_traits@D@std@@V?$allocator@D@2@@std@@PAVCUser@@U?$less@V?$basic_string@DU?$char_traits@D@std@@V?$allocator@D@2@@std@@@2@V?$allocator@U?$pair@$$CBV?$basic_string@DU?$char_traits@D@std@@V?$allocator@D@2@@std@@PAVCUser@@@std@@@2@$0A@@std@@@std@@PAU123@@std@@YAXPAPAU_Node@?$_Tree_nod@V?$_Tmap_traits@V?$basic_string@DU?$char_traits@D@std@@V?$allocator@D@2@@std@@PAVCUser@@U?$less@V?$basic_string@DU?$char_traits@D@std@@V?$allocator@D@2@@std@@@2@V?$allocator@U?$pair@$$CBV?$basic_string@DU?$char_traits@D@std@@V?$allocator@D@2@@std@@PAVCUser@@@std@@@2@$0A@@std@@@0@ABQAU120@@Z 0040c5a0 f i User.obj
 0001:0000b5c0       ??$_Iter_cat@Viterator@?$_Tree@V?$_Tmap_traits@V?$basic_string@DU?$char_traits@D@std@@V?$allocator@D@2@@std@@PAVCUser@@U?$less@V?$basic_string@DU?$char_traits@D@std@@V?$allocator@D@2@@std@@@2@V?$allocator@U?$pair@$$CBV?$basic_string@DU?$char_traits@D@std@@V?$allocator@D@2@@std@@PAVCUser@@@std@@@2@$0A@@std@@@std@@@std@@YA?AUbidirectional_iterator_tag@0@ABViterator@?$_Tree@V?$_Tmap_traits@V?$basic_string@DU?$char_traits@D@std@@V?$allocator@D@2@@std@@PAVCUser@@U?$less@V?$basic_string@DU?$char_traits@D@std@@V?$allocator@D@2@@std@@@2@V?$allocator@U?$pair@$$CBV?$basic_string@DU?$char_traits@D@std@@V?$allocator@D@2@@std@@PAVCUser@@@std@@@2@$0A@@std@@@0@@Z 0040c5c0 f i User.obj
 0001:0000b5d0       ?compare@?$char_traits@D@std@@SAHPBD0I@Z 0040c5d0 f i User.obj
 0001:0000b5f0       ??0CMclCritSec@@QAE@XZ     0040c5f0 f i User.obj
 0001:0000b610       ??1CMclCritSec@@UAE@XZ     0040c610 f i User.obj
 0001:0000b630       ??_ECMclCritSec@@UAEPAXI@Z 0040c630 f i User.obj
 0001:0000b630       ??_GCMclCritSec@@UAEPAXI@Z 0040c630 f i User.obj
 0001:0000b660       ??_GCUser@@UAEPAXI@Z       0040c660 f i User.obj
 0001:0000b660       ??_ECUser@@UAEPAXI@Z       0040c660 f i User.obj
 0001:0000b690       ??9const_iterator@?$_Tree@V?$_Tmap_traits@KPAVCUser@@U?$less@K@std@@V?$allocator@U?$pair@$$CBKPAVCUser@@@std@@@3@$0A@@std@@@std@@QBE_NABV012@@Z 0040c690 f i User.obj
 0001:0000b6b0       ??9const_iterator@?$_Tree@V?$_Tmap_traits@V?$basic_string@DU?$char_traits@D@std@@V?$allocator@D@2@@std@@PAVCUser@@U?$less@V?$basic_string@DU?$char_traits@D@std@@V?$allocator@D@2@@std@@@2@V?$allocator@U?$pair@$$CBV?$basic_string@DU?$char_traits@D@std@@V?$allocator@D@2@@std@@PAVCUser@@@std@@@2@$0A@@std@@@std@@QBE_NABV012@@Z 0040c6b0 f i User.obj
 0001:0000b6d0       ?_Key@?$_Tree@V?$_Tmap_traits@KPAVCUser@@U?$less@K@std@@V?$allocator@U?$pair@$$CBKPAVCUser@@@std@@@3@$0A@@std@@@std@@KAABKPAU_Node@?$_Tree_nod@V?$_Tmap_traits@KPAVCUser@@U?$less@K@std@@V?$allocator@U?$pair@$$CBKPAVCUser@@@std@@@3@$0A@@std@@@2@@Z 0040c6d0 f i User.obj
 0001:0000b6e0       ?_Lrotate@?$_Tree@V?$_Tmap_traits@KPAVCUser@@U?$less@K@std@@V?$allocator@U?$pair@$$CBKPAVCUser@@@std@@@3@$0A@@std@@@std@@IAEXPAU_Node@?$_Tree_nod@V?$_Tmap_traits@KPAVCUser@@U?$less@K@std@@V?$allocator@U?$pair@$$CBKPAVCUser@@@std@@@3@$0A@@std@@@2@@Z 0040c6e0 f i User.obj
 0001:0000b740       ?destroy@?$allocator@U_Node@?$_Tree_nod@V?$_Tmap_traits@KPAVCUser@@U?$less@K@std@@V?$allocator@U?$pair@$$CBKPAVCUser@@@std@@@3@$0A@@std@@@std@@@std@@QAEXPAU_Node@?$_Tree_nod@V?$_Tmap_traits@KPAVCUser@@U?$less@K@std@@V?$allocator@U?$pair@$$CBKPAVCUser@@@std@@@3@$0A@@std@@@2@@Z 0040c740 f i User.obj
 0001:0000b750       ?_Key@?$_Tree@V?$_Tmap_traits@V?$basic_string@DU?$char_traits@D@std@@V?$allocator@D@2@@std@@PAVCUser@@U?$less@V?$basic_string@DU?$char_traits@D@std@@V?$allocator@D@2@@std@@@2@V?$allocator@U?$pair@$$CBV?$basic_string@DU?$char_traits@D@std@@V?$allocator@D@2@@std@@PAVCUser@@@std@@@2@$0A@@std@@@std@@KAABV?$basic_string@DU?$char_traits@D@std@@V?$allocator@D@2@@2@PAU_Node@?$_Tree_nod@V?$_Tmap_traits@V?$basic_string@DU?$char_traits@D@std@@V?$allocator@D@2@@std@@PAVCUser@@U?$less@V?$basic_string@DU?$char_traits@D@std@@V?$allocator@D@2@@std@@@2@V?$allocator@U?$pair@$$CBV?$basic_string@DU?$char_traits@D@std@@V?$allocator@D@2@@std@@PAVCUser@@@std@@@2@$0A@@std@@@2@@Z 0040c750 f i User.obj
 0001:0000b760       ?_Root@?$_Tree@V?$_Tmap_traits@V?$basic_string@DU?$char_traits@D@std@@V?$allocator@D@2@@std@@PAVCUser@@U?$less@V?$basic_string@DU?$char_traits@D@std@@V?$allocator@D@2@@std@@@2@V?$allocator@U?$pair@$$CBV?$basic_string@DU?$char_traits@D@std@@V?$allocator@D@2@@std@@PAVCUser@@@std@@@2@$0A@@std@@@std@@IAEAAPAU_Node@?$_Tree_nod@V?$_Tmap_traits@V?$basic_string@DU?$char_traits@D@std@@V?$allocator@D@2@@std@@PAVCUser@@U?$less@V?$basic_string@DU?$char_traits@D@std@@V?$allocator@D@2@@std@@@2@V?$allocator@U?$pair@$$CBV?$basic_string@DU?$char_traits@D@std@@V?$allocator@D@2@@std@@PAVCUser@@@std@@@2@$0A@@std@@@2@XZ 0040c760 f i User.obj
 0001:0000b770       ??0iterator@?$_Tree@V?$_Tmap_traits@KPAVCUser@@U?$less@K@std@@V?$allocator@U?$pair@$$CBKPAVCUser@@@std@@@3@$0A@@std@@@std@@QAE@PAU_Node@?$_Tree_nod@V?$_Tmap_traits@KPAVCUser@@U?$less@K@std@@V?$allocator@U?$pair@$$CBKPAVCUser@@@std@@@3@$0A@@std@@@2@@Z 0040c770 f i User.obj
 0001:0000b780       ??Diterator@?$_Tree@V?$_Tmap_traits@KPAVCUser@@U?$less@K@std@@V?$allocator@U?$pair@$$CBKPAVCUser@@@std@@@3@$0A@@std@@@std@@QBEAAU?$pair@$$CBKPAVCUser@@@2@XZ 0040c780 f i User.obj
 0001:0000b790       ??Econst_iterator@?$_Tree@V?$_Tmap_traits@KPAVCUser@@U?$less@K@std@@V?$allocator@U?$pair@$$CBKPAVCUser@@@std@@@3@$0A@@std@@@std@@QAEAAV012@XZ 0040c790 f i User.obj
 0001:0000b7a0       ??0iterator@?$_Tree@V?$_Tmap_traits@V?$basic_string@DU?$char_traits@D@std@@V?$allocator@D@2@@std@@PAVCUser@@U?$less@V?$basic_string@DU?$char_traits@D@std@@V?$allocator@D@2@@std@@@2@V?$allocator@U?$pair@$$CBV?$basic_string@DU?$char_traits@D@std@@V?$allocator@D@2@@std@@PAVCUser@@@std@@@2@$0A@@std@@@std@@QAE@PAU_Node@?$_Tree_nod@V?$_Tmap_traits@V?$basic_string@DU?$char_traits@D@std@@V?$allocator@D@2@@std@@PAVCUser@@U?$less@V?$basic_string@DU?$char_traits@D@std@@V?$allocator@D@2@@std@@@2@V?$allocator@U?$pair@$$CBV?$basic_string@DU?$char_traits@D@std@@V?$allocator@D@2@@std@@PAVCUser@@@std@@@2@$0A@@std@@@2@@Z 0040c7a0 f i User.obj
 0001:0000b7b0       ??Diterator@?$_Tree@V?$_Tmap_traits@V?$basic_string@DU?$char_traits@D@std@@V?$allocator@D@2@@std@@PAVCUser@@U?$less@V?$basic_string@DU?$char_traits@D@std@@V?$allocator@D@2@@std@@@2@V?$allocator@U?$pair@$$CBV?$basic_string@DU?$char_traits@D@std@@V?$allocator@D@2@@std@@PAVCUser@@@std@@@2@$0A@@std@@@std@@QBEAAU?$pair@$$CBV?$basic_string@DU?$char_traits@D@std@@V?$allocator@D@2@@std@@PAVCUser@@@2@XZ 0040c7b0 f i User.obj
 0001:0000b7c0       ?max_size@?$_Tree@V?$_Tmap_traits@KPAVCUser@@U?$less@K@std@@V?$allocator@U?$pair@$$CBKPAVCUser@@@std@@@3@$0A@@std@@@std@@QBEIXZ 0040c7c0 f i User.obj
 0001:0000b7d0       ?_Lbound@?$_Tree@V?$_Tmap_traits@KPAVCUser@@U?$less@K@std@@V?$allocator@U?$pair@$$CBKPAVCUser@@@std@@@3@$0A@@std@@@std@@IBEPAU_Node@?$_Tree_nod@V?$_Tmap_traits@KPAVCUser@@U?$less@K@std@@V?$allocator@U?$pair@$$CBKPAVCUser@@@std@@@3@$0A@@std@@@2@ABK@Z 0040c7d0 f i User.obj
 0001:0000b800       ?destroy@?$allocator@PAU_Node@?$_Tree_nod@V?$_Tmap_traits@KPAVCUser@@U?$less@K@std@@V?$allocator@U?$pair@$$CBKPAVCUser@@@std@@@3@$0A@@std@@@std@@@std@@QAEXPAPAU_Node@?$_Tree_nod@V?$_Tmap_traits@KPAVCUser@@U?$less@K@std@@V?$allocator@U?$pair@$$CBKPAVCUser@@@std@@@3@$0A@@std@@@2@@Z 0040c800 f i User.obj
 0001:0000b810       ?max_size@?$_Tree@V?$_Tmap_traits@V?$basic_string@DU?$char_traits@D@std@@V?$allocator@D@2@@std@@PAVCUser@@U?$less@V?$basic_string@DU?$char_traits@D@std@@V?$allocator@D@2@@std@@@2@V?$allocator@U?$pair@$$CBV?$basic_string@DU?$char_traits@D@std@@V?$allocator@D@2@@std@@PAVCUser@@@std@@@2@$0A@@std@@@std@@QBEIXZ 0040c810 f i User.obj
 0001:0000b820       ?_Lrotate@?$_Tree@V?$_Tmap_traits@V?$basic_string@DU?$char_traits@D@std@@V?$allocator@D@2@@std@@PAVCUser@@U?$less@V?$basic_string@DU?$char_traits@D@std@@V?$allocator@D@2@@std@@@2@V?$allocator@U?$pair@$$CBV?$basic_string@DU?$char_traits@D@std@@V?$allocator@D@2@@std@@PAVCUser@@@std@@@2@$0A@@std@@@std@@IAEXPAU_Node@?$_Tree_nod@V?$_Tmap_traits@V?$basic_string@DU?$char_traits@D@std@@V?$allocator@D@2@@std@@PAVCUser@@U?$less@V?$basic_string@DU?$char_traits@D@std@@V?$allocator@D@2@@std@@@2@V?$allocator@U?$pair@$$CBV?$basic_string@DU?$char_traits@D@std@@V?$allocator@D@2@@std@@PAVCUser@@@std@@@2@$0A@@std@@@2@@Z 0040c820 f i User.obj
 0001:0000b880       ?_Rrotate@?$_Tree@V?$_Tmap_traits@V?$basic_string@DU?$char_traits@D@std@@V?$allocator@D@2@@std@@PAVCUser@@U?$less@V?$basic_string@DU?$char_traits@D@std@@V?$allocator@D@2@@std@@@2@V?$allocator@U?$pair@$$CBV?$basic_string@DU?$char_traits@D@std@@V?$allocator@D@2@@std@@PAVCUser@@@std@@@2@$0A@@std@@@std@@IAEXPAU_Node@?$_Tree_nod@V?$_Tmap_traits@V?$basic_string@DU?$char_traits@D@std@@V?$allocator@D@2@@std@@PAVCUser@@U?$less@V?$basic_string@DU?$char_traits@D@std@@V?$allocator@D@2@@std@@@2@V?$allocator@U?$pair@$$CBV?$basic_string@DU?$char_traits@D@std@@V?$allocator@D@2@@std@@PAVCUser@@@std@@@2@$0A@@std@@@2@@Z 0040c880 f i User.obj
 0001:0000b8e0       ?destroy@?$allocator@PAU_Node@?$_Tree_nod@V?$_Tmap_traits@V?$basic_string@DU?$char_traits@D@std@@V?$allocator@D@2@@std@@PAVCUser@@U?$less@V?$basic_string@DU?$char_traits@D@std@@V?$allocator@D@2@@std@@@2@V?$allocator@U?$pair@$$CBV?$basic_string@DU?$char_traits@D@std@@V?$allocator@D@2@@std@@PAVCUser@@@std@@@2@$0A@@std@@@std@@@std@@QAEXPAPAU_Node@?$_Tree_nod@V?$_Tmap_traits@V?$basic_string@DU?$char_traits@D@std@@V?$allocator@D@2@@std@@PAVCUser@@U?$less@V?$basic_string@DU?$char_traits@D@std@@V?$allocator@D@2@@std@@@2@V?$allocator@U?$pair@$$CBV?$basic_string@DU?$char_traits@D@std@@V?$allocator@D@2@@std@@PAVCUser@@@std@@@2@$0A@@std@@@2@@Z 0040c8e0 f i User.obj
 0001:0000b8f0       ??Fconst_iterator@?$_Tree@V?$_Tmap_traits@KPAVCUser@@U?$less@K@std@@V?$allocator@U?$pair@$$CBKPAVCUser@@@std@@@3@$0A@@std@@@std@@QAEAAV012@XZ 0040c8f0 f i User.obj
 0001:0000b900       ??Fconst_iterator@?$_Tree@V?$_Tmap_traits@V?$basic_string@DU?$char_traits@D@std@@V?$allocator@D@2@@std@@PAVCUser@@U?$less@V?$basic_string@DU?$char_traits@D@std@@V?$allocator@D@2@@std@@@2@V?$allocator@U?$pair@$$CBV?$basic_string@DU?$char_traits@D@std@@V?$allocator@D@2@@std@@PAVCUser@@@std@@@2@$0A@@std@@@std@@QAEAAV012@XZ 0040c900 f i User.obj
 0001:0000b910       ?construct@?$allocator@PAU_Node@?$_List_nod@PAXV?$allocator@PAX@std@@@std@@@std@@QAEXPAPAU_Node@?$_List_nod@PAXV?$allocator@PAX@std@@@2@ABQAU342@@Z 0040c910 f i User.obj
 0001:0000b930       ?allocate@?$allocator@U_Node@?$_Tree_nod@V?$_Tmap_traits@KPAVCUser@@U?$less@K@std@@V?$allocator@U?$pair@$$CBKPAVCUser@@@std@@@3@$0A@@std@@@std@@@std@@QAEPAU_Node@?$_Tree_nod@V?$_Tmap_traits@KPAVCUser@@U?$less@K@std@@V?$allocator@U?$pair@$$CBKPAVCUser@@@std@@@3@$0A@@std@@@2@I@Z 0040c930 f i User.obj
 0001:0000b950       ?allocate@?$allocator@U_Node@?$_Tree_nod@V?$_Tmap_traits@V?$basic_string@DU?$char_traits@D@std@@V?$allocator@D@2@@std@@PAVCUser@@U?$less@V?$basic_string@DU?$char_traits@D@std@@V?$allocator@D@2@@std@@@2@V?$allocator@U?$pair@$$CBV?$basic_string@DU?$char_traits@D@std@@V?$allocator@D@2@@std@@PAVCUser@@@std@@@2@$0A@@std@@@std@@@std@@QAEPAU_Node@?$_Tree_nod@V?$_Tmap_traits@V?$basic_string@DU?$char_traits@D@std@@V?$allocator@D@2@@std@@PAVCUser@@U?$less@V?$basic_string@DU?$char_traits@D@std@@V?$allocator@D@2@@std@@@2@V?$allocator@U?$pair@$$CBV?$basic_string@DU?$char_traits@D@std@@V?$allocator@D@2@@std@@PAVCUser@@@std@@@2@$0A@@std@@@2@I@Z 0040c950 f i User.obj
 0001:0000b970       ??0?$_List_nod@PAXV?$allocator@PAX@std@@@std@@IAE@V?$allocator@PAX@1@@Z 0040c970 f i User.obj
 0001:0000b980       ??0?$_Tree_nod@V?$_Tmap_traits@KPAVCUser@@U?$less@K@std@@V?$allocator@U?$pair@$$CBKPAVCUser@@@std@@@3@$0A@@std@@@std@@IAE@ABU?$less@K@1@V?$allocator@U?$pair@$$CBKPAVCUser@@@std@@@1@@Z 0040c980 f i User.obj
 0001:0000b990       ?construct@?$allocator@PAU_Node@?$_Tree_nod@V?$_Tmap_traits@KPAVCUser@@U?$less@K@std@@V?$allocator@U?$pair@$$CBKPAVCUser@@@std@@@3@$0A@@std@@@std@@@std@@QAEXPAPAU_Node@?$_Tree_nod@V?$_Tmap_traits@KPAVCUser@@U?$less@K@std@@V?$allocator@U?$pair@$$CBKPAVCUser@@@std@@@3@$0A@@std@@@2@ABQAU342@@Z 0040c990 f i User.obj
 0001:0000b9b0       ??0?$_Tree_nod@V?$_Tmap_traits@V?$basic_string@DU?$char_traits@D@std@@V?$allocator@D@2@@std@@PAVCUser@@U?$less@V?$basic_string@DU?$char_traits@D@std@@V?$allocator@D@2@@std@@@2@V?$allocator@U?$pair@$$CBV?$basic_string@DU?$char_traits@D@std@@V?$allocator@D@2@@std@@PAVCUser@@@std@@@2@$0A@@std@@@std@@IAE@ABU?$less@V?$basic_string@DU?$char_traits@D@std@@V?$allocator@D@2@@std@@@1@V?$allocator@U?$pair@$$CBV?$basic_string@DU?$char_traits@D@std@@V?$allocator@D@2@@std@@PAVCUser@@@std@@@1@@Z 0040c9b0 f i User.obj
 0001:0000b9c0       ?construct@?$allocator@PAU_Node@?$_Tree_nod@V?$_Tmap_traits@V?$basic_string@DU?$char_traits@D@std@@V?$allocator@D@2@@std@@PAVCUser@@U?$less@V?$basic_string@DU?$char_traits@D@std@@V?$allocator@D@2@@std@@@2@V?$allocator@U?$pair@$$CBV?$basic_string@DU?$char_traits@D@std@@V?$allocator@D@2@@std@@PAVCUser@@@std@@@2@$0A@@std@@@std@@@std@@QAEXPAPAU_Node@?$_Tree_nod@V?$_Tmap_traits@V?$basic_string@DU?$char_traits@D@std@@V?$allocator@D@2@@std@@PAVCUser@@U?$less@V?$basic_string@DU?$char_traits@D@std@@V?$allocator@D@2@@std@@@2@V?$allocator@U?$pair@$$CBV?$basic_string@DU?$char_traits@D@std@@V?$allocator@D@2@@std@@PAVCUser@@@std@@@2@$0A@@std@@@2@ABQAU342@@Z 0040c9c0 f i User.obj
 0001:0000b9e0       ??Econst_iterator@?$_Tree@V?$_Tmap_traits@V?$basic_string@DU?$char_traits@D@std@@V?$allocator@D@2@@std@@PAVCUser@@U?$less@V?$basic_string@DU?$char_traits@D@std@@V?$allocator@D@2@@std@@@2@V?$allocator@U?$pair@$$CBV?$basic_string@DU?$char_traits@D@std@@V?$allocator@D@2@@std@@PAVCUser@@@std@@@2@$0A@@std@@@std@@QAEAAV012@XZ 0040c9e0 f i User.obj
 0001:0000b9f0       ?compare@?$basic_string@DU?$char_traits@D@std@@V?$allocator@D@2@@std@@QBEHIIPBDI@Z 0040c9f0 f i User.obj
 0001:0000ba70       ?begin@?$_Tree@V?$_Tmap_traits@KPAVCUser@@U?$less@K@std@@V?$allocator@U?$pair@$$CBKPAVCUser@@@std@@@3@$0A@@std@@@std@@QAE?AViterator@12@XZ 0040ca70 f i User.obj
 0001:0000ba80       ?end@?$_Tree@V?$_Tmap_traits@KPAVCUser@@U?$less@K@std@@V?$allocator@U?$pair@$$CBKPAVCUser@@@std@@@3@$0A@@std@@@std@@QAE?AViterator@12@XZ 0040ca80 f i User.obj
 0001:0000ba90       ?end@?$_Tree@V?$_Tmap_traits@V?$basic_string@DU?$char_traits@D@std@@V?$allocator@D@2@@std@@PAVCUser@@U?$less@V?$basic_string@DU?$char_traits@D@std@@V?$allocator@D@2@@std@@@2@V?$allocator@U?$pair@$$CBV?$basic_string@DU?$char_traits@D@std@@V?$allocator@D@2@@std@@PAVCUser@@@std@@@2@$0A@@std@@@std@@QAE?AViterator@12@XZ 0040ca90 f i User.obj
 0001:0000baa0       ??Citerator@?$_Tree@V?$_Tmap_traits@KPAVCUser@@U?$less@K@std@@V?$allocator@U?$pair@$$CBKPAVCUser@@@std@@@3@$0A@@std@@@std@@QBEPAU?$pair@$$CBKPAVCUser@@@2@XZ 0040caa0 f i User.obj
 0001:0000bab0       ??Eiterator@?$_Tree@V?$_Tmap_traits@KPAVCUser@@U?$less@K@std@@V?$allocator@U?$pair@$$CBKPAVCUser@@@std@@@3@$0A@@std@@@std@@QAEAAV012@XZ 0040cab0 f i User.obj
 0001:0000bac0       ??Citerator@?$_Tree@V?$_Tmap_traits@V?$basic_string@DU?$char_traits@D@std@@V?$allocator@D@2@@std@@PAVCUser@@U?$less@V?$basic_string@DU?$char_traits@D@std@@V?$allocator@D@2@@std@@@2@V?$allocator@U?$pair@$$CBV?$basic_string@DU?$char_traits@D@std@@V?$allocator@D@2@@std@@PAVCUser@@@std@@@2@$0A@@std@@@std@@QBEPAU?$pair@$$CBV?$basic_string@DU?$char_traits@D@std@@V?$allocator@D@2@@std@@PAVCUser@@@2@XZ 0040cac0 f i User.obj
 0001:0000bad0       ?lower_bound@?$_Tree@V?$_Tmap_traits@KPAVCUser@@U?$less@K@std@@V?$allocator@U?$pair@$$CBKPAVCUser@@@std@@@3@$0A@@std@@@std@@QAE?AViterator@12@ABK@Z 0040cad0 f i User.obj
 0001:0000bb10       ?_Erase@?$_Tree@V?$_Tmap_traits@KPAVCUser@@U?$less@K@std@@V?$allocator@U?$pair@$$CBKPAVCUser@@@std@@@3@$0A@@std@@@std@@IAEXPAU_Node@?$_Tree_nod@V?$_Tmap_traits@KPAVCUser@@U?$less@K@std@@V?$allocator@U?$pair@$$CBKPAVCUser@@@std@@@3@$0A@@std@@@2@@Z 0040cb10 f i User.obj
 0001:0000bb50       ?begin@?$_Tree@V?$_Tmap_traits@V?$basic_string@DU?$char_traits@D@std@@V?$allocator@D@2@@std@@PAVCUser@@U?$less@V?$basic_string@DU?$char_traits@D@std@@V?$allocator@D@2@@std@@@2@V?$allocator@U?$pair@$$CBV?$basic_string@DU?$char_traits@D@std@@V?$allocator@D@2@@std@@PAVCUser@@@std@@@2@$0A@@std@@@std@@QAE?AViterator@12@XZ 0040cb50 f i User.obj
 0001:0000bb60       ??Fiterator@?$_Tree@V?$_Tmap_traits@KPAVCUser@@U?$less@K@std@@V?$allocator@U?$pair@$$CBKPAVCUser@@@std@@@3@$0A@@std@@@std@@QAEAAV012@XZ 0040cb60 f i User.obj
 0001:0000bb70       ??Fiterator@?$_Tree@V?$_Tmap_traits@V?$basic_string@DU?$char_traits@D@std@@V?$allocator@D@2@@std@@PAVCUser@@U?$less@V?$basic_string@DU?$char_traits@D@std@@V?$allocator@D@2@@std@@@2@V?$allocator@U?$pair@$$CBV?$basic_string@DU?$char_traits@D@std@@V?$allocator@D@2@@std@@PAVCUser@@@std@@@2@$0A@@std@@@std@@QAEAAV012@XZ 0040cb70 f i User.obj
 0001:0000bb80       ?_Buynode@?$list@PAXV?$allocator@PAX@std@@@std@@IAEPAU_Node@?$_List_nod@PAXV?$allocator@PAX@std@@@2@XZ 0040cb80 f i User.obj
 0001:0000bba0       ?_Buynode@?$_Tree@V?$_Tmap_traits@KPAVCUser@@U?$less@K@std@@V?$allocator@U?$pair@$$CBKPAVCUser@@@std@@@3@$0A@@std@@@std@@IAEPAU_Node@?$_Tree_nod@V?$_Tmap_traits@KPAVCUser@@U?$less@K@std@@V?$allocator@U?$pair@$$CBKPAVCUser@@@std@@@3@$0A@@std@@@2@PAU342@00ABU?$pair@$$CBKPAVCUser@@@2@D@Z 0040cba0 f i User.obj
 0001:0000bbe0       ??0?$_List_ptr@PAXV?$allocator@PAX@std@@@std@@IAE@V?$allocator@PAX@1@@Z 0040cbe0 f i User.obj
 0001:0000bbf0       ?_Buynode@?$_Tree@V?$_Tmap_traits@KPAVCUser@@U?$less@K@std@@V?$allocator@U?$pair@$$CBKPAVCUser@@@std@@@3@$0A@@std@@@std@@IAEPAU_Node@?$_Tree_nod@V?$_Tmap_traits@KPAVCUser@@U?$less@K@std@@V?$allocator@U?$pair@$$CBKPAVCUser@@@std@@@3@$0A@@std@@@2@XZ 0040cbf0 f i User.obj
 0001:0000bc30       ??0?$_Tree_ptr@V?$_Tmap_traits@KPAVCUser@@U?$less@K@std@@V?$allocator@U?$pair@$$CBKPAVCUser@@@std@@@3@$0A@@std@@@std@@IAE@ABU?$less@K@1@V?$allocator@U?$pair@$$CBKPAVCUser@@@std@@@1@@Z 0040cc30 f i User.obj
 0001:0000bc40       ?_Buynode@?$_Tree@V?$_Tmap_traits@V?$basic_string@DU?$char_traits@D@std@@V?$allocator@D@2@@std@@PAVCUser@@U?$less@V?$basic_string@DU?$char_traits@D@std@@V?$allocator@D@2@@std@@@2@V?$allocator@U?$pair@$$CBV?$basic_string@DU?$char_traits@D@std@@V?$allocator@D@2@@std@@PAVCUser@@@std@@@2@$0A@@std@@@std@@IAEPAU_Node@?$_Tree_nod@V?$_Tmap_traits@V?$basic_string@DU?$char_traits@D@std@@V?$allocator@D@2@@std@@PAVCUser@@U?$less@V?$basic_string@DU?$char_traits@D@std@@V?$allocator@D@2@@std@@@2@V?$allocator@U?$pair@$$CBV?$basic_string@DU?$char_traits@D@std@@V?$allocator@D@2@@std@@PAVCUser@@@std@@@2@$0A@@std@@@2@XZ 0040cc40 f i User.obj
 0001:0000bc80       ??0?$_Tree_ptr@V?$_Tmap_traits@V?$basic_string@DU?$char_traits@D@std@@V?$allocator@D@2@@std@@PAVCUser@@U?$less@V?$basic_string@DU?$char_traits@D@std@@V?$allocator@D@2@@std@@@2@V?$allocator@U?$pair@$$CBV?$basic_string@DU?$char_traits@D@std@@V?$allocator@D@2@@std@@PAVCUser@@@std@@@2@$0A@@std@@@std@@IAE@ABU?$less@V?$basic_string@DU?$char_traits@D@std@@V?$allocator@D@2@@std@@@1@V?$allocator@U?$pair@$$CBV?$basic_string@DU?$char_traits@D@std@@V?$allocator@D@2@@std@@PAVCUser@@@std@@@1@@Z 0040cc80 f i User.obj
 0001:0000bc90       ??Eiterator@?$_Tree@V?$_Tmap_traits@KPAVCUser@@U?$less@K@std@@V?$allocator@U?$pair@$$CBKPAVCUser@@@std@@@3@$0A@@std@@@std@@QAE?AV012@H@Z 0040cc90 f i User.obj
 0001:0000bcb0       ??Eiterator@?$_Tree@V?$_Tmap_traits@V?$basic_string@DU?$char_traits@D@std@@V?$allocator@D@2@@std@@PAVCUser@@U?$less@V?$basic_string@DU?$char_traits@D@std@@V?$allocator@D@2@@std@@@2@V?$allocator@U?$pair@$$CBV?$basic_string@DU?$char_traits@D@std@@V?$allocator@D@2@@std@@PAVCUser@@@std@@@2@$0A@@std@@@std@@QAEAAV012@XZ 0040ccb0 f i User.obj
 0001:0000bcc0       ?compare@?$basic_string@DU?$char_traits@D@std@@V?$allocator@D@2@@std@@QBEHABV12@@Z 0040ccc0 f i User.obj
 0001:0000bd00       ??$_Distance2@Viterator@?$_Tree@V?$_Tmap_traits@V?$basic_string@DU?$char_traits@D@std@@V?$allocator@D@2@@std@@PAVCUser@@U?$less@V?$basic_string@DU?$char_traits@D@std@@V?$allocator@D@2@@std@@@2@V?$allocator@U?$pair@$$CBV?$basic_string@DU?$char_traits@D@std@@V?$allocator@D@2@@std@@PAVCUser@@@std@@@2@$0A@@std@@@std@@I@std@@YAXViterator@?$_Tree@V?$_Tmap_traits@V?$basic_string@DU?$char_traits@D@std@@V?$allocator@D@2@@std@@PAVCUser@@U?$less@V?$basic_string@DU?$char_traits@D@std@@V?$allocator@D@2@@std@@@2@V?$allocator@U?$pair@$$CBV?$basic_string@DU?$char_traits@D@std@@V?$allocator@D@2@@std@@PAVCUser@@@std@@@2@$0A@@std@@@0@0AAIUbidirectional_iterator_tag@0@@Z 0040cd00 f i User.obj
 0001:0000bd30       ?DestroyAbnormalPlayer@CUserMng@@QAEXXZ 0040cd30 f   User.obj
 0001:0000bdd0       ?CheckAll@CUserMng@@QAEXXZ 0040cdd0 f   User.obj
 0001:0000bf80       ?clear@?$_Tree@V?$_Tmap_traits@KPAVCUser@@U?$less@K@std@@V?$allocator@U?$pair@$$CBKPAVCUser@@@std@@@3@$0A@@std@@@std@@QAEXXZ 0040cf80 f i User.obj
 0001:0000bfb0       ?find@?$_Tree@V?$_Tmap_traits@KPAVCUser@@U?$less@K@std@@V?$allocator@U?$pair@$$CBKPAVCUser@@@std@@@3@$0A@@std@@@std@@QAE?AViterator@12@ABK@Z 0040cfb0 f i User.obj
 0001:0000c020       ??0?$_List_val@PAXV?$allocator@PAX@std@@@std@@IAE@V?$allocator@PAX@1@@Z 0040d020 f i User.obj
 0001:0000c030       ?_Init@?$_Tree@V?$_Tmap_traits@KPAVCUser@@U?$less@K@std@@V?$allocator@U?$pair@$$CBKPAVCUser@@@std@@@3@$0A@@std@@@std@@IAEXXZ 0040d030 f i User.obj
 0001:0000c060       ??0?$_Tree_val@V?$_Tmap_traits@KPAVCUser@@U?$less@K@std@@V?$allocator@U?$pair@$$CBKPAVCUser@@@std@@@3@$0A@@std@@@std@@IAE@ABU?$less@K@1@V?$allocator@U?$pair@$$CBKPAVCUser@@@std@@@1@@Z 0040d060 f i User.obj
 0001:0000c070       ?_Init@?$_Tree@V?$_Tmap_traits@V?$basic_string@DU?$char_traits@D@std@@V?$allocator@D@2@@std@@PAVCUser@@U?$less@V?$basic_string@DU?$char_traits@D@std@@V?$allocator@D@2@@std@@@2@V?$allocator@U?$pair@$$CBV?$basic_string@DU?$char_traits@D@std@@V?$allocator@D@2@@std@@PAVCUser@@@std@@@2@$0A@@std@@@std@@IAEXXZ 0040d070 f i User.obj
 0001:0000c0a0       ??0?$_Tree_val@V?$_Tmap_traits@V?$basic_string@DU?$char_traits@D@std@@V?$allocator@D@2@@std@@PAVCUser@@U?$less@V?$basic_string@DU?$char_traits@D@std@@V?$allocator@D@2@@std@@@2@V?$allocator@U?$pair@$$CBV?$basic_string@DU?$char_traits@D@std@@V?$allocator@D@2@@std@@PAVCUser@@@std@@@2@$0A@@std@@@std@@IAE@ABU?$less@V?$basic_string@DU?$char_traits@D@std@@V?$allocator@D@2@@std@@@1@V?$allocator@U?$pair@$$CBV?$basic_string@DU?$char_traits@D@std@@V?$allocator@D@2@@std@@PAVCUser@@@std@@@1@@Z 0040d0a0 f i User.obj
 0001:0000c0b0       ??Eiterator@?$_Tree@V?$_Tmap_traits@V?$basic_string@DU?$char_traits@D@std@@V?$allocator@D@2@@std@@PAVCUser@@U?$less@V?$basic_string@DU?$char_traits@D@std@@V?$allocator@D@2@@std@@@2@V?$allocator@U?$pair@$$CBV?$basic_string@DU?$char_traits@D@std@@V?$allocator@D@2@@std@@PAVCUser@@@std@@@2@$0A@@std@@@std@@QAE?AV012@H@Z 0040d0b0 f i User.obj
 0001:0000c0d0       ??$_Distance@Viterator@?$_Tree@V?$_Tmap_traits@V?$basic_string@DU?$char_traits@D@std@@V?$allocator@D@2@@std@@PAVCUser@@U?$less@V?$basic_string@DU?$char_traits@D@std@@V?$allocator@D@2@@std@@@2@V?$allocator@U?$pair@$$CBV?$basic_string@DU?$char_traits@D@std@@V?$allocator@D@2@@std@@PAVCUser@@@std@@@2@$0A@@std@@@std@@I@std@@YAXViterator@?$_Tree@V?$_Tmap_traits@V?$basic_string@DU?$char_traits@D@std@@V?$allocator@D@2@@std@@PAVCUser@@U?$less@V?$basic_string@DU?$char_traits@D@std@@V?$allocator@D@2@@std@@@2@V?$allocator@U?$pair@$$CBV?$basic_string@DU?$char_traits@D@std@@V?$allocator@D@2@@std@@PAVCUser@@@std@@@2@$0A@@std@@@0@0AAI@Z 0040d0d0 f i User.obj
 0001:0000c110       ??$?MDU?$char_traits@D@std@@V?$allocator@D@1@@std@@YA_NABV?$basic_string@DU?$char_traits@D@std@@V?$allocator@D@2@@0@0@Z 0040d110 f i User.obj
 0001:0000c140       ??1?$pair@$$CBV?$basic_string@DU?$char_traits@D@std@@V?$allocator@D@2@@std@@PAVCUser@@@std@@QAE@XZ 0040d140 f i User.obj
 0001:0000c170       ?GetUser@CUserMng@@QAEPAVCUser@@K@Z 0040d170 f   User.obj
 0001:0000c1a0       ??R?$less@V?$basic_string@DU?$char_traits@D@std@@V?$allocator@D@2@@std@@@std@@QBE_NABV?$basic_string@DU?$char_traits@D@std@@V?$allocator@D@2@@1@0@Z 0040d1a0 f i User.obj
 0001:0000c1e0       ??0?$list@PAXV?$allocator@PAX@std@@@std@@QAE@XZ 0040d1e0 f i User.obj
 0001:0000c200       ??0?$_Tree@V?$_Tmap_traits@KPAVCUser@@U?$less@K@std@@V?$allocator@U?$pair@$$CBKPAVCUser@@@std@@@3@$0A@@std@@@std@@QAE@ABU?$less@K@1@ABV?$allocator@U?$pair@$$CBKPAVCUser@@@std@@@1@@Z 0040d200 f i User.obj
 0001:0000c230       ??0?$_Tree@V?$_Tmap_traits@V?$basic_string@DU?$char_traits@D@std@@V?$allocator@D@2@@std@@PAVCUser@@U?$less@V?$basic_string@DU?$char_traits@D@std@@V?$allocator@D@2@@std@@@2@V?$allocator@U?$pair@$$CBV?$basic_string@DU?$char_traits@D@std@@V?$allocator@D@2@@std@@PAVCUser@@@std@@@2@$0A@@std@@@std@@QAE@ABU?$less@V?$basic_string@DU?$char_traits@D@std@@V?$allocator@D@2@@std@@@1@ABV?$allocator@U?$pair@$$CBV?$basic_string@DU?$char_traits@D@std@@V?$allocator@D@2@@std@@PAVCUser@@@std@@@1@@Z 0040d230 f i User.obj
 0001:0000c260       ?_Lbound@?$_Tree@V?$_Tmap_traits@V?$basic_string@DU?$char_traits@D@std@@V?$allocator@D@2@@std@@PAVCUser@@U?$less@V?$basic_string@DU?$char_traits@D@std@@V?$allocator@D@2@@std@@@2@V?$allocator@U?$pair@$$CBV?$basic_string@DU?$char_traits@D@std@@V?$allocator@D@2@@std@@PAVCUser@@@std@@@2@$0A@@std@@@std@@IBEPAU_Node@?$_Tree_nod@V?$_Tmap_traits@V?$basic_string@DU?$char_traits@D@std@@V?$allocator@D@2@@std@@PAVCUser@@U?$less@V?$basic_string@DU?$char_traits@D@std@@V?$allocator@D@2@@std@@@2@V?$allocator@U?$pair@$$CBV?$basic_string@DU?$char_traits@D@std@@V?$allocator@D@2@@std@@PAVCUser@@@std@@@2@$0A@@std@@@2@ABV?$basic_string@DU?$char_traits@D@std@@V?$allocator@D@2@@2@@Z 0040d260 f i User.obj
 0001:0000c320       ?_Ubound@?$_Tree@V?$_Tmap_traits@V?$basic_string@DU?$char_traits@D@std@@V?$allocator@D@2@@std@@PAVCUser@@U?$less@V?$basic_string@DU?$char_traits@D@std@@V?$allocator@D@2@@std@@@2@V?$allocator@U?$pair@$$CBV?$basic_string@DU?$char_traits@D@std@@V?$allocator@D@2@@std@@PAVCUser@@@std@@@2@$0A@@std@@@std@@IBEPAU_Node@?$_Tree_nod@V?$_Tmap_traits@V?$basic_string@DU?$char_traits@D@std@@V?$allocator@D@2@@std@@PAVCUser@@U?$less@V?$basic_string@DU?$char_traits@D@std@@V?$allocator@D@2@@std@@@2@V?$allocator@U?$pair@$$CBV?$basic_string@DU?$char_traits@D@std@@V?$allocator@D@2@@std@@PAVCUser@@@std@@@2@$0A@@std@@@2@ABV?$basic_string@DU?$char_traits@D@std@@V?$allocator@D@2@@2@@Z 0040d320 f i User.obj
 0001:0000c3d0       ??1_Node@?$_Tree_nod@V?$_Tmap_traits@V?$basic_string@DU?$char_traits@D@std@@V?$allocator@D@2@@std@@PAVCUser@@U?$less@V?$basic_string@DU?$char_traits@D@std@@V?$allocator@D@2@@std@@@2@V?$allocator@U?$pair@$$CBV?$basic_string@DU?$char_traits@D@std@@V?$allocator@D@2@@std@@PAVCUser@@@std@@@2@$0A@@std@@@std@@QAE@XZ 0040d3d0 f i User.obj
 0001:0000c400       ?lower_bound@?$_Tree@V?$_Tmap_traits@V?$basic_string@DU?$char_traits@D@std@@V?$allocator@D@2@@std@@PAVCUser@@U?$less@V?$basic_string@DU?$char_traits@D@std@@V?$allocator@D@2@@std@@@2@V?$allocator@U?$pair@$$CBV?$basic_string@DU?$char_traits@D@std@@V?$allocator@D@2@@std@@PAVCUser@@@std@@@2@$0A@@std@@@std@@QAE?AViterator@12@ABV?$basic_string@DU?$char_traits@D@std@@V?$allocator@D@2@@2@@Z 0040d400 f i User.obj
 0001:0000c420       ?upper_bound@?$_Tree@V?$_Tmap_traits@V?$basic_string@DU?$char_traits@D@std@@V?$allocator@D@2@@std@@PAVCUser@@U?$less@V?$basic_string@DU?$char_traits@D@std@@V?$allocator@D@2@@std@@@2@V?$allocator@U?$pair@$$CBV?$basic_string@DU?$char_traits@D@std@@V?$allocator@D@2@@std@@PAVCUser@@@std@@@2@$0A@@std@@@std@@QAE?AViterator@12@ABV?$basic_string@DU?$char_traits@D@std@@V?$allocator@D@2@@2@@Z 0040d420 f i User.obj
 0001:0000c440       ??_G_Node@?$_Tree_nod@V?$_Tmap_traits@V?$basic_string@DU?$char_traits@D@std@@V?$allocator@D@2@@std@@PAVCUser@@U?$less@V?$basic_string@DU?$char_traits@D@std@@V?$allocator@D@2@@std@@@2@V?$allocator@U?$pair@$$CBV?$basic_string@DU?$char_traits@D@std@@V?$allocator@D@2@@std@@PAVCUser@@@std@@@2@$0A@@std@@@std@@QAEPAXI@Z 0040d440 f i User.obj
 0001:0000c460       ?find@?$_Tree@V?$_Tmap_traits@V?$basic_string@DU?$char_traits@D@std@@V?$allocator@D@2@@std@@PAVCUser@@U?$less@V?$basic_string@DU?$char_traits@D@std@@V?$allocator@D@2@@std@@@2@V?$allocator@U?$pair@$$CBV?$basic_string@DU?$char_traits@D@std@@V?$allocator@D@2@@std@@PAVCUser@@@std@@@2@$0A@@std@@@std@@QAE?AViterator@12@ABV?$basic_string@DU?$char_traits@D@std@@V?$allocator@D@2@@2@@Z 0040d460 f i User.obj
 0001:0000c4d0       ??0?$pair@$$CBV?$basic_string@DU?$char_traits@D@std@@V?$allocator@D@2@@std@@PAVCUser@@@std@@QAE@ABV?$basic_string@DU?$char_traits@D@std@@V?$allocator@D@2@@1@ABQAVCUser@@@Z 0040d4d0 f i User.obj
 0001:0000c500       ?equal_range@?$_Tree@V?$_Tmap_traits@V?$basic_string@DU?$char_traits@D@std@@V?$allocator@D@2@@std@@PAVCUser@@U?$less@V?$basic_string@DU?$char_traits@D@std@@V?$allocator@D@2@@std@@@2@V?$allocator@U?$pair@$$CBV?$basic_string@DU?$char_traits@D@std@@V?$allocator@D@2@@std@@PAVCUser@@@std@@@2@$0A@@std@@@std@@QAE?AU?$pair@Viterator@?$_Tree@V?$_Tmap_traits@V?$basic_string@DU?$char_traits@D@std@@V?$allocator@D@2@@std@@PAVCUser@@U?$less@V?$basic_string@DU?$char_traits@D@std@@V?$allocator@D@2@@std@@@2@V?$allocator@U?$pair@$$CBV?$basic_string@DU?$char_traits@D@std@@V?$allocator@D@2@@std@@PAVCUser@@@std@@@2@$0A@@std@@@std@@V123@@2@ABV?$basic_string@DU?$char_traits@D@std@@V?$allocator@D@2@@2@@Z 0040d500 f i User.obj
 0001:0000c530       ??0?$pair@$$CBV?$basic_string@DU?$char_traits@D@std@@V?$allocator@D@2@@std@@PAVCUser@@@std@@QAE@ABU01@@Z 0040d530 f i User.obj
 0001:0000c560       ??$_Destroy@U_Node@?$_Tree_nod@V?$_Tmap_traits@V?$basic_string@DU?$char_traits@D@std@@V?$allocator@D@2@@std@@PAVCUser@@U?$less@V?$basic_string@DU?$char_traits@D@std@@V?$allocator@D@2@@std@@@2@V?$allocator@U?$pair@$$CBV?$basic_string@DU?$char_traits@D@std@@V?$allocator@D@2@@std@@PAVCUser@@@std@@@2@$0A@@std@@@std@@@std@@YAXPAU_Node@?$_Tree_nod@V?$_Tmap_traits@V?$basic_string@DU?$char_traits@D@std@@V?$allocator@D@2@@std@@PAVCUser@@U?$less@V?$basic_string@DU?$char_traits@D@std@@V?$allocator@D@2@@std@@@2@V?$allocator@U?$pair@$$CBV?$basic_string@DU?$char_traits@D@std@@V?$allocator@D@2@@std@@PAVCUser@@@std@@@2@$0A@@std@@@0@@Z 0040d560 f i User.obj
 0001:0000c570       ?GetUser@CUserMng@@QAEPAVCUser@@PBD@Z 0040d570 f   User.obj
 0001:0000c630       ?erase@?$_Tree@V?$_Tmap_traits@KPAVCUser@@U?$less@K@std@@V?$allocator@U?$pair@$$CBKPAVCUser@@@std@@@3@$0A@@std@@@std@@QAE?AViterator@12@V312@@Z 0040d630 f i User.obj
 0001:0000c8f0       ?_Insert@?$_Tree@V?$_Tmap_traits@KPAVCUser@@U?$less@K@std@@V?$allocator@U?$pair@$$CBKPAVCUser@@@std@@@3@$0A@@std@@@std@@IAE?AViterator@12@_NPAU_Node@?$_Tree_nod@V?$_Tmap_traits@KPAVCUser@@U?$less@K@std@@V?$allocator@U?$pair@$$CBKPAVCUser@@@std@@@3@$0A@@std@@@2@ABU?$pair@$$CBKPAVCUser@@@2@@Z 0040d8f0 f i User.obj
 0001:0000caa0       ?erase@?$_Tree@V?$_Tmap_traits@KPAVCUser@@U?$less@K@std@@V?$allocator@U?$pair@$$CBKPAVCUser@@@std@@@3@$0A@@std@@@std@@QAE?AViterator@12@V312@0@Z 0040daa0 f i User.obj
 0001:0000cb60       ?destroy@?$allocator@U_Node@?$_Tree_nod@V?$_Tmap_traits@V?$basic_string@DU?$char_traits@D@std@@V?$allocator@D@2@@std@@PAVCUser@@U?$less@V?$basic_string@DU?$char_traits@D@std@@V?$allocator@D@2@@std@@@2@V?$allocator@U?$pair@$$CBV?$basic_string@DU?$char_traits@D@std@@V?$allocator@D@2@@std@@PAVCUser@@@std@@@2@$0A@@std@@@std@@@std@@QAEXPAU_Node@?$_Tree_nod@V?$_Tmap_traits@V?$basic_string@DU?$char_traits@D@std@@V?$allocator@D@2@@std@@PAVCUser@@U?$less@V?$basic_string@DU?$char_traits@D@std@@V?$allocator@D@2@@std@@@2@V?$allocator@U?$pair@$$CBV?$basic_string@DU?$char_traits@D@std@@V?$allocator@D@2@@std@@PAVCUser@@@std@@@2@$0A@@std@@@2@@Z 0040db60 f i User.obj
 0001:0000cb70       ??0_Node@?$_Tree_nod@V?$_Tmap_traits@V?$basic_string@DU?$char_traits@D@std@@V?$allocator@D@2@@std@@PAVCUser@@U?$less@V?$basic_string@DU?$char_traits@D@std@@V?$allocator@D@2@@std@@@2@V?$allocator@U?$pair@$$CBV?$basic_string@DU?$char_traits@D@std@@V?$allocator@D@2@@std@@PAVCUser@@@std@@@2@$0A@@std@@@std@@QAE@PAU012@00ABU?$pair@$$CBV?$basic_string@DU?$char_traits@D@std@@V?$allocator@D@2@@std@@PAVCUser@@@2@D@Z 0040db70 f i User.obj
 0001:0000cbd0       ?insert@?$_Tree@V?$_Tmap_traits@KPAVCUser@@U?$less@K@std@@V?$allocator@U?$pair@$$CBKPAVCUser@@@std@@@3@$0A@@std@@@std@@QAE?AU?$pair@Viterator@?$_Tree@V?$_Tmap_traits@KPAVCUser@@U?$less@K@std@@V?$allocator@U?$pair@$$CBKPAVCUser@@@std@@@3@$0A@@std@@@std@@_N@2@ABU?$pair@$$CBKPAVCUser@@@2@@Z 0040dbd0 f i User.obj
 0001:0000cc90       ?_Tidy@?$_Tree@V?$_Tmap_traits@KPAVCUser@@U?$less@K@std@@V?$allocator@U?$pair@$$CBKPAVCUser@@@std@@@3@$0A@@std@@@std@@IAEXXZ 0040dc90 f i User.obj
 0001:0000ccc0       ?_Erase@?$_Tree@V?$_Tmap_traits@V?$basic_string@DU?$char_traits@D@std@@V?$allocator@D@2@@std@@PAVCUser@@U?$less@V?$basic_string@DU?$char_traits@D@std@@V?$allocator@D@2@@std@@@2@V?$allocator@U?$pair@$$CBV?$basic_string@DU?$char_traits@D@std@@V?$allocator@D@2@@std@@PAVCUser@@@std@@@2@$0A@@std@@@std@@IAEXPAU_Node@?$_Tree_nod@V?$_Tmap_traits@V?$basic_string@DU?$char_traits@D@std@@V?$allocator@D@2@@std@@PAVCUser@@U?$less@V?$basic_string@DU?$char_traits@D@std@@V?$allocator@D@2@@std@@@2@V?$allocator@U?$pair@$$CBV?$basic_string@DU?$char_traits@D@std@@V?$allocator@D@2@@std@@PAVCUser@@@std@@@2@$0A@@std@@@2@@Z 0040dcc0 f i User.obj
 0001:0000cd00       ?erase@?$_Tree@V?$_Tmap_traits@V?$basic_string@DU?$char_traits@D@std@@V?$allocator@D@2@@std@@PAVCUser@@U?$less@V?$basic_string@DU?$char_traits@D@std@@V?$allocator@D@2@@std@@@2@V?$allocator@U?$pair@$$CBV?$basic_string@DU?$char_traits@D@std@@V?$allocator@D@2@@std@@PAVCUser@@@std@@@2@$0A@@std@@@std@@QAE?AViterator@12@V312@@Z 0040dd00 f i User.obj
 0001:0000cfe0       ?_Buynode@?$_Tree@V?$_Tmap_traits@V?$basic_string@DU?$char_traits@D@std@@V?$allocator@D@2@@std@@PAVCUser@@U?$less@V?$basic_string@DU?$char_traits@D@std@@V?$allocator@D@2@@std@@@2@V?$allocator@U?$pair@$$CBV?$basic_string@DU?$char_traits@D@std@@V?$allocator@D@2@@std@@PAVCUser@@@std@@@2@$0A@@std@@@std@@IAEPAU_Node@?$_Tree_nod@V?$_Tmap_traits@V?$basic_string@DU?$char_traits@D@std@@V?$allocator@D@2@@std@@PAVCUser@@U?$less@V?$basic_string@DU?$char_traits@D@std@@V?$allocator@D@2@@std@@@2@V?$allocator@U?$pair@$$CBV?$basic_string@DU?$char_traits@D@std@@V?$allocator@D@2@@std@@PAVCUser@@@std@@@2@$0A@@std@@@2@PAU342@00ABU?$pair@$$CBV?$basic_string@DU?$char_traits@D@std@@V?$allocator@D@2@@std@@PAVCUser@@@2@D@Z 0040dfe0 f i User.obj
 0001:0000d070       ?AddUser@CUserMng@@QAEHKPAVCUser@@@Z 0040e070 f   User.obj
 0001:0000d140       ??1?$_Tree@V?$_Tmap_traits@KPAVCUser@@U?$less@K@std@@V?$allocator@U?$pair@$$CBKPAVCUser@@@std@@@3@$0A@@std@@@std@@QAE@XZ 0040e140 f i User.obj
 0001:0000d170       ?clear@?$_Tree@V?$_Tmap_traits@V?$basic_string@DU?$char_traits@D@std@@V?$allocator@D@2@@std@@PAVCUser@@U?$less@V?$basic_string@DU?$char_traits@D@std@@V?$allocator@D@2@@std@@@2@V?$allocator@U?$pair@$$CBV?$basic_string@DU?$char_traits@D@std@@V?$allocator@D@2@@std@@PAVCUser@@@std@@@2@$0A@@std@@@std@@QAEXXZ 0040e170 f i User.obj
 0001:0000d1a0       ?erase@?$_Tree@V?$_Tmap_traits@V?$basic_string@DU?$char_traits@D@std@@V?$allocator@D@2@@std@@PAVCUser@@U?$less@V?$basic_string@DU?$char_traits@D@std@@V?$allocator@D@2@@std@@@2@V?$allocator@U?$pair@$$CBV?$basic_string@DU?$char_traits@D@std@@V?$allocator@D@2@@std@@PAVCUser@@@std@@@2@$0A@@std@@@std@@QAE?AViterator@12@V312@0@Z 0040e1a0 f i User.obj
 0001:0000d260       ?_Insert@?$_Tree@V?$_Tmap_traits@V?$basic_string@DU?$char_traits@D@std@@V?$allocator@D@2@@std@@PAVCUser@@U?$less@V?$basic_string@DU?$char_traits@D@std@@V?$allocator@D@2@@std@@@2@V?$allocator@U?$pair@$$CBV?$basic_string@DU?$char_traits@D@std@@V?$allocator@D@2@@std@@PAVCUser@@@std@@@2@$0A@@std@@@std@@IAE?AViterator@12@_NPAU_Node@?$_Tree_nod@V?$_Tmap_traits@V?$basic_string@DU?$char_traits@D@std@@V?$allocator@D@2@@std@@PAVCUser@@U?$less@V?$basic_string@DU?$char_traits@D@std@@V?$allocator@D@2@@std@@@2@V?$allocator@U?$pair@$$CBV?$basic_string@DU?$char_traits@D@std@@V?$allocator@D@2@@std@@PAVCUser@@@std@@@2@$0A@@std@@@2@ABU?$pair@$$CBV?$basic_string@DU?$char_traits@D@std@@V?$allocator@D@2@@std@@PAVCUser@@@2@@Z 0040e260 f i User.obj
 0001:0000d410       ?_Tidy@?$_Tree@V?$_Tmap_traits@V?$basic_string@DU?$char_traits@D@std@@V?$allocator@D@2@@std@@PAVCUser@@U?$less@V?$basic_string@DU?$char_traits@D@std@@V?$allocator@D@2@@std@@@2@V?$allocator@U?$pair@$$CBV?$basic_string@DU?$char_traits@D@std@@V?$allocator@D@2@@std@@PAVCUser@@@std@@@2@$0A@@std@@@std@@IAEXXZ 0040e410 f i User.obj
 0001:0000d440       ??1?$map@KPAVCUser@@U?$less@K@std@@V?$allocator@U?$pair@$$CBKPAVCUser@@@std@@@3@@std@@QAE@XZ 0040e440 f i User.obj
 0001:0000d470       ?Free@CUserMng@@QAEXXZ     0040e470 f   User.obj
 0001:0000d570       ??0?$map@KPAVCUser@@U?$less@K@std@@V?$allocator@U?$pair@$$CBKPAVCUser@@@std@@@3@@std@@QAE@XZ 0040e570 f i User.obj
 0001:0000d5a0       ??1?$_Tree@V?$_Tmap_traits@V?$basic_string@DU?$char_traits@D@std@@V?$allocator@D@2@@std@@PAVCUser@@U?$less@V?$basic_string@DU?$char_traits@D@std@@V?$allocator@D@2@@std@@@2@V?$allocator@U?$pair@$$CBV?$basic_string@DU?$char_traits@D@std@@V?$allocator@D@2@@std@@PAVCUser@@@std@@@2@$0A@@std@@@std@@QAE@XZ 0040e5a0 f i User.obj
 0001:0000d5d0       ?insert@?$_Tree@V?$_Tmap_traits@V?$basic_string@DU?$char_traits@D@std@@V?$allocator@D@2@@std@@PAVCUser@@U?$less@V?$basic_string@DU?$char_traits@D@std@@V?$allocator@D@2@@std@@@2@V?$allocator@U?$pair@$$CBV?$basic_string@DU?$char_traits@D@std@@V?$allocator@D@2@@std@@PAVCUser@@@std@@@2@$0A@@std@@@std@@QAE?AU?$pair@Viterator@?$_Tree@V?$_Tmap_traits@V?$basic_string@DU?$char_traits@D@std@@V?$allocator@D@2@@std@@PAVCUser@@U?$less@V?$basic_string@DU?$char_traits@D@std@@V?$allocator@D@2@@std@@@2@V?$allocator@U?$pair@$$CBV?$basic_string@DU?$char_traits@D@std@@V?$allocator@D@2@@std@@PAVCUser@@@std@@@2@$0A@@std@@@std@@_N@2@ABU?$pair@$$CBV?$basic_string@DU?$char_traits@D@std@@V?$allocator@D@2@@std@@PAVCUser@@@2@@Z 0040e5d0 f i User.obj
 0001:0000d750       ?erase@?$_Tree@V?$_Tmap_traits@V?$basic_string@DU?$char_traits@D@std@@V?$allocator@D@2@@std@@PAVCUser@@U?$less@V?$basic_string@DU?$char_traits@D@std@@V?$allocator@D@2@@std@@@2@V?$allocator@U?$pair@$$CBV?$basic_string@DU?$char_traits@D@std@@V?$allocator@D@2@@std@@PAVCUser@@@std@@@2@$0A@@std@@@std@@QAEIABV?$basic_string@DU?$char_traits@D@std@@V?$allocator@D@2@@2@@Z 0040e750 f i User.obj
 0001:0000d7a0       ??1?$map@V?$basic_string@DU?$char_traits@D@std@@V?$allocator@D@2@@std@@PAVCUser@@U?$less@V?$basic_string@DU?$char_traits@D@std@@V?$allocator@D@2@@std@@@2@V?$allocator@U?$pair@$$CBV?$basic_string@DU?$char_traits@D@std@@V?$allocator@D@2@@std@@PAVCUser@@@std@@@2@@std@@QAE@XZ 0040e7a0 f i User.obj
 0001:0000d7d0       ??1CUserMng@@UAE@XZ        0040e7d0 f   User.obj
 0001:0000d890       ?AddUser@CUserMng@@QAEHPBDPAVCUser@@@Z 0040e890 f   User.obj
 0001:0000d990       ?RemoveUser@CUserMng@@QAEHK@Z 0040e990 f   User.obj
 0001:0000db20       ??0?$MemPooler@VCUser@@@@QAE@H@Z 0040eb20 f i User.obj
 0001:0000dba0       ??0?$map@V?$basic_string@DU?$char_traits@D@std@@V?$allocator@D@2@@std@@PAVCUser@@U?$less@V?$basic_string@DU?$char_traits@D@std@@V?$allocator@D@2@@std@@@2@V?$allocator@U?$pair@$$CBV?$basic_string@DU?$char_traits@D@std@@V?$allocator@D@2@@std@@PAVCUser@@@std@@@2@@std@@QAE@XZ 0040eba0 f i User.obj
 0001:0000dbd0       ??0CUserMng@@QAE@XZ        0040ebd0 f   User.obj
 0001:0000dc70       ??_ECUserMng@@UAEPAXI@Z    0040ec70 f i User.obj
 0001:0000dc70       ??_GCUserMng@@UAEPAXI@Z    0040ec70 f i User.obj
 0001:0000dc90       ?IsStoring@CAr@@QBEHXZ     0040ec90 f i ar.obj
 0001:0000dca0       ??0CAr@@QAE@PAXI@Z         0040eca0 f   ar.obj
 0001:0000dcf0       ??1CAr@@QAE@XZ             0040ecf0 f   ar.obj
 0001:0000dd20       ?Read@CAr@@QAEXPAXI@Z      0040ed20 f   ar.obj
 0001:0000dd80       ?Reserve@CAr@@QAEXI@Z      0040ed80 f   ar.obj
 0001:0000ddb0       ?CheckBuf@CAr@@QAEXI@Z     0040edb0 f   ar.obj
 0001:0000de40       ?GetBuffer@CAr@@QAEPAEPAH@Z 0040ee40 f   ar.obj
 0001:0000de60       ?Flush@CAr@@QAEXXZ         0040ee60 f   ar.obj
 0001:0000de70       ?ReelIn@CAr@@QAEXI@Z       0040ee70 f   ar.obj
 0001:0000deb0       ?Write@CAr@@QAEXPBXI@Z     0040eeb0 f   ar.obj
 0001:0000def0       ?ReadString@CAr@@QAEPADPAD@Z 0040eef0 f   ar.obj
 0001:0000df30       ?ReadString@CAr@@QAEPADPADH@Z 0040ef30 f   ar.obj
 0001:0000dfa0       ?WriteString@CAr@@QAEXPBD@Z 0040efa0 f   ar.obj
 0001:0000e000       ?Free@?$MemPooler@U_CONNECTIONREQUEST2@@@@QAEHPAU_CONNECTIONREQUEST2@@@Z 0040f000 f i dos2.obj
 0001:0000e050       ??0?$pair@$$CBKPAU_CONNECTIONREQUEST2@@@std@@QAE@ABKABQAU_CONNECTIONREQUEST2@@@Z 0040f050 f i dos2.obj
 0001:0000e070       ?_Isnil@?$_Tree@V?$_Tmap_traits@KPAU_CONNECTIONREQUEST2@@U?$less@K@std@@V?$allocator@U?$pair@$$CBKPAU_CONNECTIONREQUEST2@@@std@@@3@$0A@@std@@@std@@KAAADPAU_Node@?$_Tree_nod@V?$_Tmap_traits@KPAU_CONNECTIONREQUEST2@@U?$less@K@std@@V?$allocator@U?$pair@$$CBKPAU_CONNECTIONREQUEST2@@@std@@@3@$0A@@std@@@2@@Z 0040f070 f i dos2.obj
 0001:0000e080       ?_Left@?$_Tree@V?$_Tmap_traits@KPAU_CONNECTIONREQUEST2@@U?$less@K@std@@V?$allocator@U?$pair@$$CBKPAU_CONNECTIONREQUEST2@@@std@@@3@$0A@@std@@@std@@KAAAPAU_Node@?$_Tree_nod@V?$_Tmap_traits@KPAU_CONNECTIONREQUEST2@@U?$less@K@std@@V?$allocator@U?$pair@$$CBKPAU_CONNECTIONREQUEST2@@@std@@@3@$0A@@std@@@2@PAU342@@Z 0040f080 f i dos2.obj
 0001:0000e090       ?_Right@?$_Tree@V?$_Tmap_traits@KPAU_CONNECTIONREQUEST2@@U?$less@K@std@@V?$allocator@U?$pair@$$CBKPAU_CONNECTIONREQUEST2@@@std@@@3@$0A@@std@@@std@@KAAAPAU_Node@?$_Tree_nod@V?$_Tmap_traits@KPAU_CONNECTIONREQUEST2@@U?$less@K@std@@V?$allocator@U?$pair@$$CBKPAU_CONNECTIONREQUEST2@@@std@@@3@$0A@@std@@@2@PAU342@@Z 0040f090 f i dos2.obj
 0001:0000e0a0       ?_Lmost@?$_Tree@V?$_Tmap_traits@KPAU_CONNECTIONREQUEST2@@U?$less@K@std@@V?$allocator@U?$pair@$$CBKPAU_CONNECTIONREQUEST2@@@std@@@3@$0A@@std@@@std@@IAEAAPAU_Node@?$_Tree_nod@V?$_Tmap_traits@KPAU_CONNECTIONREQUEST2@@U?$less@K@std@@V?$allocator@U?$pair@$$CBKPAU_CONNECTIONREQUEST2@@@std@@@3@$0A@@std@@@2@XZ 0040f0a0 f i dos2.obj
 0001:0000e0b0       ?_Rmost@?$_Tree@V?$_Tmap_traits@KPAU_CONNECTIONREQUEST2@@U?$less@K@std@@V?$allocator@U?$pair@$$CBKPAU_CONNECTIONREQUEST2@@@std@@@3@$0A@@std@@@std@@IAEAAPAU_Node@?$_Tree_nod@V?$_Tmap_traits@KPAU_CONNECTIONREQUEST2@@U?$less@K@std@@V?$allocator@U?$pair@$$CBKPAU_CONNECTIONREQUEST2@@@std@@@3@$0A@@std@@@2@XZ 0040f0b0 f i dos2.obj
 0001:0000e0c0       ?_Kfn@?$_Tmap_traits@KPAU_CONNECTIONREQUEST2@@U?$less@K@std@@V?$allocator@U?$pair@$$CBKPAU_CONNECTIONREQUEST2@@@std@@@3@$0A@@std@@SAABKABU?$pair@$$CBKPAU_CONNECTIONREQUEST2@@@2@@Z 0040f0c0 f i dos2.obj
 0001:0000e0d0       ??0?$allocator@U?$pair@$$CBKPAU_CONNECTIONREQUEST2@@@std@@@std@@QAE@XZ 0040f0d0 f i dos2.obj
 0001:0000e0e0       ??8const_iterator@?$_Tree@V?$_Tmap_traits@KPAU_CONNECTIONREQUEST2@@U?$less@K@std@@V?$allocator@U?$pair@$$CBKPAU_CONNECTIONREQUEST2@@@std@@@3@$0A@@std@@@std@@QBE_NABV012@@Z 0040f0e0 f i dos2.obj
 0001:0000e0f0       ?_Mynode@const_iterator@?$_Tree@V?$_Tmap_traits@KPAU_CONNECTIONREQUEST2@@U?$less@K@std@@V?$allocator@U?$pair@$$CBKPAU_CONNECTIONREQUEST2@@@std@@@3@$0A@@std@@@std@@QBEPAU_Node@?$_Tree_nod@V?$_Tmap_traits@KPAU_CONNECTIONREQUEST2@@U?$less@K@std@@V?$allocator@U?$pair@$$CBKPAU_CONNECTIONREQUEST2@@@std@@@3@$0A@@std@@@3@XZ 0040f0f0 f i dos2.obj
 0001:0000e100       ??0?$pair@Viterator@?$_Tree@V?$_Tmap_traits@KPAU_CONNECTIONREQUEST2@@U?$less@K@std@@V?$allocator@U?$pair@$$CBKPAU_CONNECTIONREQUEST2@@@std@@@3@$0A@@std@@@std@@_N@std@@QAE@ABViterator@?$_Tree@V?$_Tmap_traits@KPAU_CONNECTIONREQUEST2@@U?$less@K@std@@V?$allocator@U?$pair@$$CBKPAU_CONNECTIONREQUEST2@@@std@@@3@$0A@@std@@@1@AB_N@Z 0040f100 f i dos2.obj
 0001:0000e120       ?_Color@?$_Tree@V?$_Tmap_traits@KPAU_CONNECTIONREQUEST2@@U?$less@K@std@@V?$allocator@U?$pair@$$CBKPAU_CONNECTIONREQUEST2@@@std@@@3@$0A@@std@@@std@@KAAADPAU_Node@?$_Tree_nod@V?$_Tmap_traits@KPAU_CONNECTIONREQUEST2@@U?$less@K@std@@V?$allocator@U?$pair@$$CBKPAU_CONNECTIONREQUEST2@@@std@@@3@$0A@@std@@@2@@Z 0040f120 f i dos2.obj
 0001:0000e130       ?_Parent@?$_Tree@V?$_Tmap_traits@KPAU_CONNECTIONREQUEST2@@U?$less@K@std@@V?$allocator@U?$pair@$$CBKPAU_CONNECTIONREQUEST2@@@std@@@3@$0A@@std@@@std@@KAAAPAU_Node@?$_Tree_nod@V?$_Tmap_traits@KPAU_CONNECTIONREQUEST2@@U?$less@K@std@@V?$allocator@U?$pair@$$CBKPAU_CONNECTIONREQUEST2@@@std@@@3@$0A@@std@@@2@PAU342@@Z 0040f130 f i dos2.obj
 0001:0000e140       ?_Myval@?$_Tree@V?$_Tmap_traits@KPAU_CONNECTIONREQUEST2@@U?$less@K@std@@V?$allocator@U?$pair@$$CBKPAU_CONNECTIONREQUEST2@@@std@@@3@$0A@@std@@@std@@KAAAU?$pair@$$CBKPAU_CONNECTIONREQUEST2@@@2@PAU_Node@?$_Tree_nod@V?$_Tmap_traits@KPAU_CONNECTIONREQUEST2@@U?$less@K@std@@V?$allocator@U?$pair@$$CBKPAU_CONNECTIONREQUEST2@@@std@@@3@$0A@@std@@@2@@Z 0040f140 f i dos2.obj
 0001:0000e150       ??0?$allocator@U?$pair@$$CBKPAU_CONNECTIONREQUEST2@@@std@@@std@@QAE@ABV01@@Z 0040f150 f i dos2.obj
 0001:0000e160       ?deallocate@?$allocator@U_Node@?$_Tree_nod@V?$_Tmap_traits@KPAU_CONNECTIONREQUEST2@@U?$less@K@std@@V?$allocator@U?$pair@$$CBKPAU_CONNECTIONREQUEST2@@@std@@@3@$0A@@std@@@std@@@std@@QAEXPAU_Node@?$_Tree_nod@V?$_Tmap_traits@KPAU_CONNECTIONREQUEST2@@U?$less@K@std@@V?$allocator@U?$pair@$$CBKPAU_CONNECTIONREQUEST2@@@std@@@3@$0A@@std@@@2@I@Z 0040f160 f i dos2.obj
 0001:0000e170       ??0const_iterator@?$_Tree@V?$_Tmap_traits@KPAU_CONNECTIONREQUEST2@@U?$less@K@std@@V?$allocator@U?$pair@$$CBKPAU_CONNECTIONREQUEST2@@@std@@@3@$0A@@std@@@std@@QAE@PAU_Node@?$_Tree_nod@V?$_Tmap_traits@KPAU_CONNECTIONREQUEST2@@U?$less@K@std@@V?$allocator@U?$pair@$$CBKPAU_CONNECTIONREQUEST2@@@std@@@3@$0A@@std@@@2@@Z 0040f170 f i dos2.obj
 0001:0000e180       ??Dconst_iterator@?$_Tree@V?$_Tmap_traits@KPAU_CONNECTIONREQUEST2@@U?$less@K@std@@V?$allocator@U?$pair@$$CBKPAU_CONNECTIONREQUEST2@@@std@@@3@$0A@@std@@@std@@QBEABU?$pair@$$CBKPAU_CONNECTIONREQUEST2@@@2@XZ 0040f180 f i dos2.obj
 0001:0000e190       ?_Min@?$_Tree@V?$_Tmap_traits@KPAU_CONNECTIONREQUEST2@@U?$less@K@std@@V?$allocator@U?$pair@$$CBKPAU_CONNECTIONREQUEST2@@@std@@@3@$0A@@std@@@std@@KAPAU_Node@?$_Tree_nod@V?$_Tmap_traits@KPAU_CONNECTIONREQUEST2@@U?$less@K@std@@V?$allocator@U?$pair@$$CBKPAU_CONNECTIONREQUEST2@@@std@@@3@$0A@@std@@@2@PAU342@@Z 0040f190 f i dos2.obj
 0001:0000e1b0       ?_Root@?$_Tree@V?$_Tmap_traits@KPAU_CONNECTIONREQUEST2@@U?$less@K@std@@V?$allocator@U?$pair@$$CBKPAU_CONNECTIONREQUEST2@@@std@@@3@$0A@@std@@@std@@IBEAAPAU_Node@?$_Tree_nod@V?$_Tmap_traits@KPAU_CONNECTIONREQUEST2@@U?$less@K@std@@V?$allocator@U?$pair@$$CBKPAU_CONNECTIONREQUEST2@@@std@@@3@$0A@@std@@@2@XZ 0040f1b0 f i dos2.obj
 0001:0000e1c0       ?max_size@?$allocator@U?$pair@$$CBKPAU_CONNECTIONREQUEST2@@@std@@@std@@QBEIXZ 0040f1c0 f i dos2.obj
 0001:0000e1d0       ??0_Node@?$_Tree_nod@V?$_Tmap_traits@KPAU_CONNECTIONREQUEST2@@U?$less@K@std@@V?$allocator@U?$pair@$$CBKPAU_CONNECTIONREQUEST2@@@std@@@3@$0A@@std@@@std@@QAE@PAU012@00ABU?$pair@$$CBKPAU_CONNECTIONREQUEST2@@@2@D@Z 0040f1d0 f i dos2.obj
 0001:0000e210       ?_Max@?$_Tree@V?$_Tmap_traits@KPAU_CONNECTIONREQUEST2@@U?$less@K@std@@V?$allocator@U?$pair@$$CBKPAU_CONNECTIONREQUEST2@@@std@@@3@$0A@@std@@@std@@KAPAU_Node@?$_Tree_nod@V?$_Tmap_traits@KPAU_CONNECTIONREQUEST2@@U?$less@K@std@@V?$allocator@U?$pair@$$CBKPAU_CONNECTIONREQUEST2@@@std@@@3@$0A@@std@@@2@PAU342@@Z 0040f210 f i dos2.obj
 0001:0000e230       ??0?$_Tmap_traits@KPAU_CONNECTIONREQUEST2@@U?$less@K@std@@V?$allocator@U?$pair@$$CBKPAU_CONNECTIONREQUEST2@@@std@@@3@$0A@@std@@QAE@U?$less@K@1@@Z 0040f230 f i dos2.obj
 0001:0000e240       ??$_Destroy@U_Node@?$_Tree_nod@V?$_Tmap_traits@KPAU_CONNECTIONREQUEST2@@U?$less@K@std@@V?$allocator@U?$pair@$$CBKPAU_CONNECTIONREQUEST2@@@std@@@3@$0A@@std@@@std@@@std@@YAXPAU_Node@?$_Tree_nod@V?$_Tmap_traits@KPAU_CONNECTIONREQUEST2@@U?$less@K@std@@V?$allocator@U?$pair@$$CBKPAU_CONNECTIONREQUEST2@@@std@@@3@$0A@@std@@@0@@Z 0040f240 f i dos2.obj
 0001:0000e250       ??$_Destroy@PAU_Node@?$_Tree_nod@V?$_Tmap_traits@KPAU_CONNECTIONREQUEST2@@U?$less@K@std@@V?$allocator@U?$pair@$$CBKPAU_CONNECTIONREQUEST2@@@std@@@3@$0A@@std@@@std@@@std@@YAXPAPAU_Node@?$_Tree_nod@V?$_Tmap_traits@KPAU_CONNECTIONREQUEST2@@U?$less@K@std@@V?$allocator@U?$pair@$$CBKPAU_CONNECTIONREQUEST2@@@std@@@3@$0A@@std@@@0@@Z 0040f250 f i dos2.obj
 0001:0000e260       ??$?0U?$pair@$$CBKPAU_CONNECTIONREQUEST2@@@std@@@?$allocator@PAU_Node@?$_Tree_nod@V?$_Tmap_traits@KPAU_CONNECTIONREQUEST2@@U?$less@K@std@@V?$allocator@U?$pair@$$CBKPAU_CONNECTIONREQUEST2@@@std@@@3@$0A@@std@@@std@@@std@@QAE@ABV?$allocator@U?$pair@$$CBKPAU_CONNECTIONREQUEST2@@@std@@@1@@Z 0040f260 f i dos2.obj
 0001:0000e270       ??$_Allocate@U_Node@?$_Tree_nod@V?$_Tmap_traits@KPAU_CONNECTIONREQUEST2@@U?$less@K@std@@V?$allocator@U?$pair@$$CBKPAU_CONNECTIONREQUEST2@@@std@@@3@$0A@@std@@@std@@@std@@YAPAU_Node@?$_Tree_nod@V?$_Tmap_traits@KPAU_CONNECTIONREQUEST2@@U?$less@K@std@@V?$allocator@U?$pair@$$CBKPAU_CONNECTIONREQUEST2@@@std@@@3@$0A@@std@@@0@IPAU120@@Z 0040f270 f i dos2.obj
 0001:0000e290       ??$?0U?$pair@$$CBKPAU_CONNECTIONREQUEST2@@@std@@@?$allocator@U_Node@?$_Tree_nod@V?$_Tmap_traits@KPAU_CONNECTIONREQUEST2@@U?$less@K@std@@V?$allocator@U?$pair@$$CBKPAU_CONNECTIONREQUEST2@@@std@@@3@$0A@@std@@@std@@@std@@QAE@ABV?$allocator@U?$pair@$$CBKPAU_CONNECTIONREQUEST2@@@std@@@1@@Z 0040f290 f i dos2.obj
 0001:0000e2a0       ??$_Construct@PAU_Node@?$_Tree_nod@V?$_Tmap_traits@KPAU_CONNECTIONREQUEST2@@U?$less@K@std@@V?$allocator@U?$pair@$$CBKPAU_CONNECTIONREQUEST2@@@std@@@3@$0A@@std@@@std@@PAU123@@std@@YAXPAPAU_Node@?$_Tree_nod@V?$_Tmap_traits@KPAU_CONNECTIONREQUEST2@@U?$less@K@std@@V?$allocator@U?$pair@$$CBKPAU_CONNECTIONREQUEST2@@@std@@@3@$0A@@std@@@0@ABQAU120@@Z 0040f2a0 f i dos2.obj
 0001:0000e2c0       ??1CTimer@@UAE@XZ          0040f2c0 f i dos2.obj
 0001:0000e2d0       ?IsTimeOut@CTimer@@QAEHXZ  0040f2d0 f i dos2.obj
 0001:0000e2e0       ??_ECTimer@@UAEPAXI@Z      0040f2e0 f i dos2.obj
 0001:0000e2e0       ??_GCTimer@@UAEPAXI@Z      0040f2e0 f i dos2.obj
 0001:0000e300       ??9const_iterator@?$_Tree@V?$_Tmap_traits@KPAU_CONNECTIONREQUEST2@@U?$less@K@std@@V?$allocator@U?$pair@$$CBKPAU_CONNECTIONREQUEST2@@@std@@@3@$0A@@std@@@std@@QBE_NABV012@@Z 0040f300 f i dos2.obj
 0001:0000e320       ?_Key@?$_Tree@V?$_Tmap_traits@KPAU_CONNECTIONREQUEST2@@U?$less@K@std@@V?$allocator@U?$pair@$$CBKPAU_CONNECTIONREQUEST2@@@std@@@3@$0A@@std@@@std@@KAABKPAU_Node@?$_Tree_nod@V?$_Tmap_traits@KPAU_CONNECTIONREQUEST2@@U?$less@K@std@@V?$allocator@U?$pair@$$CBKPAU_CONNECTIONREQUEST2@@@std@@@3@$0A@@std@@@2@@Z 0040f320 f i dos2.obj
 0001:0000e330       ?_Root@?$_Tree@V?$_Tmap_traits@KPAU_CONNECTIONREQUEST2@@U?$less@K@std@@V?$allocator@U?$pair@$$CBKPAU_CONNECTIONREQUEST2@@@std@@@3@$0A@@std@@@std@@IAEAAPAU_Node@?$_Tree_nod@V?$_Tmap_traits@KPAU_CONNECTIONREQUEST2@@U?$less@K@std@@V?$allocator@U?$pair@$$CBKPAU_CONNECTIONREQUEST2@@@std@@@3@$0A@@std@@@2@XZ 0040f330 f i dos2.obj
 0001:0000e340       ??0iterator@?$_Tree@V?$_Tmap_traits@KPAU_CONNECTIONREQUEST2@@U?$less@K@std@@V?$allocator@U?$pair@$$CBKPAU_CONNECTIONREQUEST2@@@std@@@3@$0A@@std@@@std@@QAE@PAU_Node@?$_Tree_nod@V?$_Tmap_traits@KPAU_CONNECTIONREQUEST2@@U?$less@K@std@@V?$allocator@U?$pair@$$CBKPAU_CONNECTIONREQUEST2@@@std@@@3@$0A@@std@@@2@@Z 0040f340 f i dos2.obj
 0001:0000e350       ??Diterator@?$_Tree@V?$_Tmap_traits@KPAU_CONNECTIONREQUEST2@@U?$less@K@std@@V?$allocator@U?$pair@$$CBKPAU_CONNECTIONREQUEST2@@@std@@@3@$0A@@std@@@std@@QBEAAU?$pair@$$CBKPAU_CONNECTIONREQUEST2@@@2@XZ 0040f350 f i dos2.obj
 0001:0000e360       ?max_size@?$_Tree@V?$_Tmap_traits@KPAU_CONNECTIONREQUEST2@@U?$less@K@std@@V?$allocator@U?$pair@$$CBKPAU_CONNECTIONREQUEST2@@@std@@@3@$0A@@std@@@std@@QBEIXZ 0040f360 f i dos2.obj
 0001:0000e370       ?_Lbound@?$_Tree@V?$_Tmap_traits@KPAU_CONNECTIONREQUEST2@@U?$less@K@std@@V?$allocator@U?$pair@$$CBKPAU_CONNECTIONREQUEST2@@@std@@@3@$0A@@std@@@std@@IBEPAU_Node@?$_Tree_nod@V?$_Tmap_traits@KPAU_CONNECTIONREQUEST2@@U?$less@K@std@@V?$allocator@U?$pair@$$CBKPAU_CONNECTIONREQUEST2@@@std@@@3@$0A@@std@@@2@ABK@Z 0040f370 f i dos2.obj
 0001:0000e3a0       ?_Lrotate@?$_Tree@V?$_Tmap_traits@KPAU_CONNECTIONREQUEST2@@U?$less@K@std@@V?$allocator@U?$pair@$$CBKPAU_CONNECTIONREQUEST2@@@std@@@3@$0A@@std@@@std@@IAEXPAU_Node@?$_Tree_nod@V?$_Tmap_traits@KPAU_CONNECTIONREQUEST2@@U?$less@K@std@@V?$allocator@U?$pair@$$CBKPAU_CONNECTIONREQUEST2@@@std@@@3@$0A@@std@@@2@@Z 0040f3a0 f i dos2.obj
 0001:0000e400       ?_Rrotate@?$_Tree@V?$_Tmap_traits@KPAU_CONNECTIONREQUEST2@@U?$less@K@std@@V?$allocator@U?$pair@$$CBKPAU_CONNECTIONREQUEST2@@@std@@@3@$0A@@std@@@std@@IAEXPAU_Node@?$_Tree_nod@V?$_Tmap_traits@KPAU_CONNECTIONREQUEST2@@U?$less@K@std@@V?$allocator@U?$pair@$$CBKPAU_CONNECTIONREQUEST2@@@std@@@3@$0A@@std@@@2@@Z 0040f400 f i dos2.obj
 0001:0000e460       ?destroy@?$allocator@U_Node@?$_Tree_nod@V?$_Tmap_traits@KPAU_CONNECTIONREQUEST2@@U?$less@K@std@@V?$allocator@U?$pair@$$CBKPAU_CONNECTIONREQUEST2@@@std@@@3@$0A@@std@@@std@@@std@@QAEXPAU_Node@?$_Tree_nod@V?$_Tmap_traits@KPAU_CONNECTIONREQUEST2@@U?$less@K@std@@V?$allocator@U?$pair@$$CBKPAU_CONNECTIONREQUEST2@@@std@@@3@$0A@@std@@@2@@Z 0040f460 f i dos2.obj
 0001:0000e470       ?destroy@?$allocator@PAU_Node@?$_Tree_nod@V?$_Tmap_traits@KPAU_CONNECTIONREQUEST2@@U?$less@K@std@@V?$allocator@U?$pair@$$CBKPAU_CONNECTIONREQUEST2@@@std@@@3@$0A@@std@@@std@@@std@@QAEXPAPAU_Node@?$_Tree_nod@V?$_Tmap_traits@KPAU_CONNECTIONREQUEST2@@U?$less@K@std@@V?$allocator@U?$pair@$$CBKPAU_CONNECTIONREQUEST2@@@std@@@3@$0A@@std@@@2@@Z 0040f470 f i dos2.obj
 0001:0000e480       ?_Inc@const_iterator@?$_Tree@V?$_Tmap_traits@KPAU_CONNECTIONREQUEST2@@U?$less@K@std@@V?$allocator@U?$pair@$$CBKPAU_CONNECTIONREQUEST2@@@std@@@3@$0A@@std@@@std@@QAEXXZ 0040f480 f i dos2.obj
 0001:0000e4e0       ?allocate@?$allocator@U_Node@?$_Tree_nod@V?$_Tmap_traits@KPAU_CONNECTIONREQUEST2@@U?$less@K@std@@V?$allocator@U?$pair@$$CBKPAU_CONNECTIONREQUEST2@@@std@@@3@$0A@@std@@@std@@@std@@QAEPAU_Node@?$_Tree_nod@V?$_Tmap_traits@KPAU_CONNECTIONREQUEST2@@U?$less@K@std@@V?$allocator@U?$pair@$$CBKPAU_CONNECTIONREQUEST2@@@std@@@3@$0A@@std@@@2@I@Z 0040f4e0 f i dos2.obj
 0001:0000e500       ?_Dec@const_iterator@?$_Tree@V?$_Tmap_traits@KPAU_CONNECTIONREQUEST2@@U?$less@K@std@@V?$allocator@U?$pair@$$CBKPAU_CONNECTIONREQUEST2@@@std@@@3@$0A@@std@@@std@@QAEXXZ 0040f500 f i dos2.obj
 0001:0000e560       ??0?$_Tree_nod@V?$_Tmap_traits@KPAU_CONNECTIONREQUEST2@@U?$less@K@std@@V?$allocator@U?$pair@$$CBKPAU_CONNECTIONREQUEST2@@@std@@@3@$0A@@std@@@std@@IAE@ABU?$less@K@1@V?$allocator@U?$pair@$$CBKPAU_CONNECTIONREQUEST2@@@std@@@1@@Z 0040f560 f i dos2.obj
 0001:0000e570       ?construct@?$allocator@PAU_Node@?$_Tree_nod@V?$_Tmap_traits@KPAU_CONNECTIONREQUEST2@@U?$less@K@std@@V?$allocator@U?$pair@$$CBKPAU_CONNECTIONREQUEST2@@@std@@@3@$0A@@std@@@std@@@std@@QAEXPAPAU_Node@?$_Tree_nod@V?$_Tmap_traits@KPAU_CONNECTIONREQUEST2@@U?$less@K@std@@V?$allocator@U?$pair@$$CBKPAU_CONNECTIONREQUEST2@@@std@@@3@$0A@@std@@@2@ABQAU342@@Z 0040f570 f i dos2.obj
 0001:0000e590       ?begin@?$_Tree@V?$_Tmap_traits@KPAU_CONNECTIONREQUEST2@@U?$less@K@std@@V?$allocator@U?$pair@$$CBKPAU_CONNECTIONREQUEST2@@@std@@@3@$0A@@std@@@std@@QAE?AViterator@12@XZ 0040f590 f i dos2.obj
 0001:0000e5a0       ?end@?$_Tree@V?$_Tmap_traits@KPAU_CONNECTIONREQUEST2@@U?$less@K@std@@V?$allocator@U?$pair@$$CBKPAU_CONNECTIONREQUEST2@@@std@@@3@$0A@@std@@@std@@QAE?AViterator@12@XZ 0040f5a0 f i dos2.obj
 0001:0000e5b0       ??Citerator@?$_Tree@V?$_Tmap_traits@KPAU_CONNECTIONREQUEST2@@U?$less@K@std@@V?$allocator@U?$pair@$$CBKPAU_CONNECTIONREQUEST2@@@std@@@3@$0A@@std@@@std@@QBEPAU?$pair@$$CBKPAU_CONNECTIONREQUEST2@@@2@XZ 0040f5b0 f i dos2.obj
 0001:0000e5c0       ?lower_bound@?$_Tree@V?$_Tmap_traits@KPAU_CONNECTIONREQUEST2@@U?$less@K@std@@V?$allocator@U?$pair@$$CBKPAU_CONNECTIONREQUEST2@@@std@@@3@$0A@@std@@@std@@QAE?AViterator@12@ABK@Z 0040f5c0 f i dos2.obj
 0001:0000e600       ?_Erase@?$_Tree@V?$_Tmap_traits@KPAU_CONNECTIONREQUEST2@@U?$less@K@std@@V?$allocator@U?$pair@$$CBKPAU_CONNECTIONREQUEST2@@@std@@@3@$0A@@std@@@std@@IAEXPAU_Node@?$_Tree_nod@V?$_Tmap_traits@KPAU_CONNECTIONREQUEST2@@U?$less@K@std@@V?$allocator@U?$pair@$$CBKPAU_CONNECTIONREQUEST2@@@std@@@3@$0A@@std@@@2@@Z 0040f600 f i dos2.obj
 0001:0000e640       ??Econst_iterator@?$_Tree@V?$_Tmap_traits@KPAU_CONNECTIONREQUEST2@@U?$less@K@std@@V?$allocator@U?$pair@$$CBKPAU_CONNECTIONREQUEST2@@@std@@@3@$0A@@std@@@std@@QAEAAV012@XZ 0040f640 f i dos2.obj
 0001:0000e650       ?_Buynode@?$_Tree@V?$_Tmap_traits@KPAU_CONNECTIONREQUEST2@@U?$less@K@std@@V?$allocator@U?$pair@$$CBKPAU_CONNECTIONREQUEST2@@@std@@@3@$0A@@std@@@std@@IAEPAU_Node@?$_Tree_nod@V?$_Tmap_traits@KPAU_CONNECTIONREQUEST2@@U?$less@K@std@@V?$allocator@U?$pair@$$CBKPAU_CONNECTIONREQUEST2@@@std@@@3@$0A@@std@@@2@PAU342@00ABU?$pair@$$CBKPAU_CONNECTIONREQUEST2@@@2@D@Z 0040f650 f i dos2.obj
 0001:0000e690       ??Fconst_iterator@?$_Tree@V?$_Tmap_traits@KPAU_CONNECTIONREQUEST2@@U?$less@K@std@@V?$allocator@U?$pair@$$CBKPAU_CONNECTIONREQUEST2@@@std@@@3@$0A@@std@@@std@@QAEAAV012@XZ 0040f690 f i dos2.obj
 0001:0000e6a0       ?_Buynode@?$_Tree@V?$_Tmap_traits@KPAU_CONNECTIONREQUEST2@@U?$less@K@std@@V?$allocator@U?$pair@$$CBKPAU_CONNECTIONREQUEST2@@@std@@@3@$0A@@std@@@std@@IAEPAU_Node@?$_Tree_nod@V?$_Tmap_traits@KPAU_CONNECTIONREQUEST2@@U?$less@K@std@@V?$allocator@U?$pair@$$CBKPAU_CONNECTIONREQUEST2@@@std@@@3@$0A@@std@@@2@XZ 0040f6a0 f i dos2.obj
 0001:0000e6e0       ??0?$_Tree_ptr@V?$_Tmap_traits@KPAU_CONNECTIONREQUEST2@@U?$less@K@std@@V?$allocator@U?$pair@$$CBKPAU_CONNECTIONREQUEST2@@@std@@@3@$0A@@std@@@std@@IAE@ABU?$less@K@1@V?$allocator@U?$pair@$$CBKPAU_CONNECTIONREQUEST2@@@std@@@1@@Z 0040f6e0 f i dos2.obj
 0001:0000e6f0       ?clear@?$_Tree@V?$_Tmap_traits@KPAU_CONNECTIONREQUEST2@@U?$less@K@std@@V?$allocator@U?$pair@$$CBKPAU_CONNECTIONREQUEST2@@@std@@@3@$0A@@std@@@std@@QAEXXZ 0040f6f0 f i dos2.obj
 0001:0000e720       ?find@?$_Tree@V?$_Tmap_traits@KPAU_CONNECTIONREQUEST2@@U?$less@K@std@@V?$allocator@U?$pair@$$CBKPAU_CONNECTIONREQUEST2@@@std@@@3@$0A@@std@@@std@@QAE?AViterator@12@ABK@Z 0040f720 f i dos2.obj
 0001:0000e790       ??Eiterator@?$_Tree@V?$_Tmap_traits@KPAU_CONNECTIONREQUEST2@@U?$less@K@std@@V?$allocator@U?$pair@$$CBKPAU_CONNECTIONREQUEST2@@@std@@@3@$0A@@std@@@std@@QAEAAV012@XZ 0040f790 f i dos2.obj
 0001:0000e7a0       ?Destroy@?$MemPooler@U_CONNECTIONREQUEST2@@@@IAEXXZ 0040f7a0 f i dos2.obj
 0001:0000e810       ??Fiterator@?$_Tree@V?$_Tmap_traits@KPAU_CONNECTIONREQUEST2@@U?$less@K@std@@V?$allocator@U?$pair@$$CBKPAU_CONNECTIONREQUEST2@@@std@@@3@$0A@@std@@@std@@QAEAAV012@XZ 0040f810 f i dos2.obj
 0001:0000e820       ?_Init@?$_Tree@V?$_Tmap_traits@KPAU_CONNECTIONREQUEST2@@U?$less@K@std@@V?$allocator@U?$pair@$$CBKPAU_CONNECTIONREQUEST2@@@std@@@3@$0A@@std@@@std@@IAEXXZ 0040f820 f i dos2.obj
 0001:0000e850       ??0?$_Tree_val@V?$_Tmap_traits@KPAU_CONNECTIONREQUEST2@@U?$less@K@std@@V?$allocator@U?$pair@$$CBKPAU_CONNECTIONREQUEST2@@@std@@@3@$0A@@std@@@std@@IAE@ABU?$less@K@1@V?$allocator@U?$pair@$$CBKPAU_CONNECTIONREQUEST2@@@std@@@1@@Z 0040f850 f i dos2.obj
 0001:0000e860       ??Eiterator@?$_Tree@V?$_Tmap_traits@KPAU_CONNECTIONREQUEST2@@U?$less@K@std@@V?$allocator@U?$pair@$$CBKPAU_CONNECTIONREQUEST2@@@std@@@3@$0A@@std@@@std@@QAE?AV012@H@Z 0040f860 f i dos2.obj
 0001:0000e880       ?Get@CDos2@@AAEPAU_CONNECTIONREQUEST2@@K@Z 0040f880 f   dos2.obj
 0001:0000e8b0       ?Release@CDos2@@AAEXXZ     0040f8b0 f   dos2.obj
 0001:0000e930       ??1?$MemPooler@U_CONNECTIONREQUEST2@@@@QAE@XZ 0040f930 f i dos2.obj
 0001:0000e960       ??0?$_Tree@V?$_Tmap_traits@KPAU_CONNECTIONREQUEST2@@U?$less@K@std@@V?$allocator@U?$pair@$$CBKPAU_CONNECTIONREQUEST2@@@std@@@3@$0A@@std@@@std@@QAE@ABU?$less@K@1@ABV?$allocator@U?$pair@$$CBKPAU_CONNECTIONREQUEST2@@@std@@@1@@Z 0040f960 f i dos2.obj
 0001:0000e990       ??_G?$MemPooler@U_CONNECTIONREQUEST2@@@@QAEPAXI@Z 0040f990 f i dos2.obj
 0001:0000e9b0       ?_Insert@?$_Tree@V?$_Tmap_traits@KPAU_CONNECTIONREQUEST2@@U?$less@K@std@@V?$allocator@U?$pair@$$CBKPAU_CONNECTIONREQUEST2@@@std@@@3@$0A@@std@@@std@@IAE?AViterator@12@_NPAU_Node@?$_Tree_nod@V?$_Tmap_traits@KPAU_CONNECTIONREQUEST2@@U?$less@K@std@@V?$allocator@U?$pair@$$CBKPAU_CONNECTIONREQUEST2@@@std@@@3@$0A@@std@@@2@ABU?$pair@$$CBKPAU_CONNECTIONREQUEST2@@@2@@Z 0040f9b0 f i dos2.obj
 0001:0000eb60       ?erase@?$_Tree@V?$_Tmap_traits@KPAU_CONNECTIONREQUEST2@@U?$less@K@std@@V?$allocator@U?$pair@$$CBKPAU_CONNECTIONREQUEST2@@@std@@@3@$0A@@std@@@std@@QAE?AViterator@12@V312@@Z 0040fb60 f i dos2.obj
 0001:0000ee20       ?insert@?$_Tree@V?$_Tmap_traits@KPAU_CONNECTIONREQUEST2@@U?$less@K@std@@V?$allocator@U?$pair@$$CBKPAU_CONNECTIONREQUEST2@@@std@@@3@$0A@@std@@@std@@QAE?AU?$pair@Viterator@?$_Tree@V?$_Tmap_traits@KPAU_CONNECTIONREQUEST2@@U?$less@K@std@@V?$allocator@U?$pair@$$CBKPAU_CONNECTIONREQUEST2@@@std@@@3@$0A@@std@@@std@@_N@2@ABU?$pair@$$CBKPAU_CONNECTIONREQUEST2@@@2@@Z 0040fe20 f i dos2.obj
 0001:0000eee0       ?erase@?$_Tree@V?$_Tmap_traits@KPAU_CONNECTIONREQUEST2@@U?$less@K@std@@V?$allocator@U?$pair@$$CBKPAU_CONNECTIONREQUEST2@@@std@@@3@$0A@@std@@@std@@QAE?AViterator@12@V312@0@Z 0040fee0 f i dos2.obj
 0001:0000efa0       ?_Tidy@?$_Tree@V?$_Tmap_traits@KPAU_CONNECTIONREQUEST2@@U?$less@K@std@@V?$allocator@U?$pair@$$CBKPAU_CONNECTIONREQUEST2@@@std@@@3@$0A@@std@@@std@@IAEXXZ 0040ffa0 f i dos2.obj
 0001:0000efd0       ??1?$_Tree@V?$_Tmap_traits@KPAU_CONNECTIONREQUEST2@@U?$less@K@std@@V?$allocator@U?$pair@$$CBKPAU_CONNECTIONREQUEST2@@@std@@@3@$0A@@std@@@std@@QAE@XZ 0040ffd0 f i dos2.obj
 0001:0000f000       ?Create@?$MemPooler@U_CONNECTIONREQUEST2@@@@IAEXXZ 00410000 f i dos2.obj
 0001:0000f090       ??1?$map@KPAU_CONNECTIONREQUEST2@@U?$less@K@std@@V?$allocator@U?$pair@$$CBKPAU_CONNECTIONREQUEST2@@@std@@@3@@std@@QAE@XZ 00410090 f i dos2.obj
 0001:0000f0c0       ??1CDos2@@UAE@XZ           004100c0 f   dos2.obj
 0001:0000f240       ??0?$map@KPAU_CONNECTIONREQUEST2@@U?$less@K@std@@V?$allocator@U?$pair@$$CBKPAU_CONNECTIONREQUEST2@@@std@@@3@@std@@QAE@XZ 00410240 f i dos2.obj
 0001:0000f270       ??0?$MemPooler@U_CONNECTIONREQUEST2@@@@QAE@H@Z 00410270 f i dos2.obj
 0001:0000f2f0       ?Alloc@?$MemPooler@U_CONNECTIONREQUEST2@@@@QAEPAU_CONNECTIONREQUEST2@@XZ 004102f0 f i dos2.obj
 0001:0000f330       ??0CDos2@@QAE@XZ           00410330 f   dos2.obj
 0001:0000f400       ??_GCDos2@@UAEPAXI@Z       00410400 f i dos2.obj
 0001:0000f400       ??_ECDos2@@UAEPAXI@Z       00410400 f i dos2.obj
 0001:0000f420       ?Add@CDos2@@AAEXK@Z        00410420 f   dos2.obj
 0001:0000f4a0       ?IsOver@CDos2@@QAEHK@Z     004104a0 f   dos2.obj
 0001:0000f550       ??1CHeapMng@@UAE@XZ        00410550 f   heapmng.obj
 0001:0000f570       ?Malloc@CHeapMng@@QAEPAXI@Z 00410570 f   heapmng.obj
 0001:0000f590       ?Free@CHeapMng@@QAEXPAX@Z  00410590 f   heapmng.obj
 0001:0000f5b0       ?Realloc@CHeapMng@@QAEPAXPAXI@Z 004105b0 f   heapmng.obj
 0001:0000f5d0       ??0CSystemInfo@@QAE@XZ     004105d0 f i heapmng.obj
 0001:0000f5e0       ??0CHeapMng@@QAE@XZ        004105e0 f   heapmng.obj
 0001:0000f610       ??_ECHeapMng@@UAEPAXI@Z    00410610 f i heapmng.obj
 0001:0000f610       ??_GCHeapMng@@UAEPAXI@Z    00410610 f i heapmng.obj
 0001:0000f640       ?FindKey@CMyTrace@@AAEHK@Z 00410640 f   MyTrace.obj
 0001:0000f6e0       ?Key@CMyTrace@@SAKPBD@Z    004106e0 f   MyTrace.obj
 0001:0000f760       ?TextOutA@CMyTrace@@AAEXPAUHDC__@@HHPBDH@Z 00410760 f   MyTrace.obj
 0001:0000f7d0       ?GetText@CMyTrace@@QAEXKPAD@Z 004107d0 f   MyTrace.obj
 0001:0000f800       ??0CMyTrace@@QAE@XZ        00410800 f   MyTrace.obj
 0001:0000f850       ??1CMyTrace@@UAE@XZ        00410850 f   MyTrace.obj
 0001:0000f890       ?Add@CMyTrace@@QAAXKHPBDZZ 00410890 f   MyTrace.obj
 0001:0000fa60       ?AddLine@CMyTrace@@QAEXD@Z 00410a60 f   MyTrace.obj
 0001:0000fad0       ?Paint@CMyTrace@@QAEXPAUHDC__@@@Z 00410ad0 f   MyTrace.obj
 0001:0000fd60       ??_GCMyTrace@@UAEPAXI@Z    00410d60 f i MyTrace.obj
 0001:0000fd60       ??_ECMyTrace@@UAEPAXI@Z    00410d60 f i MyTrace.obj
 0001:0000fd80       ?Restart@CRC32@@QAEXXZ     00410d80 f i buffer.obj
 0001:0000fd90       ?DigestSize@CRC32@@QBEIXZ  00410d90 f i buffer.obj
 0001:0000fda0       ?GetWritableBuffer@CBuffer@@QAEPAEPAH@Z 00410da0 f i buffer.obj
 0001:0000fdc0       ?GetWritableBufferSize@CBuffer@@QAEHXZ 00410dc0 f i buffer.obj
 0001:0000fdd0       ?GetReadableBuffer@CBuffer@@QAEPAEPAH@Z 00410dd0 f i buffer.obj
 0001:0000fdf0       ?GetReadableBufferSize@CBuffer@@QAEHXZ 00410df0 f i buffer.obj
 0001:0000fe00       ?GetHead@CBufferQueue@@QAEPAVCBuffer@@XZ 00410e00 f i buffer.obj
 0001:0000fe10       ?GetTail@CBufferQueue@@QAEPAVCBuffer@@XZ 00410e10 f i buffer.obj
 0001:0000fe20       ?IsEmpty@CBufferQueue@@QAEHXZ 00410e20 f i buffer.obj
 0001:0000fe30       ?RemoveHead@CBufferQueue@@QAEXXZ 00410e30 f i buffer.obj
 0001:0000fe70       ??0CBuffer@@QAE@K@Z        00410e70 f   buffer.obj
 0001:0000fee0       ?GetPacketSize@CBuffer@@UAEKPAE@Z 00410ee0 f i buffer.obj
 0001:0000fef0       ?SetHeader@CBuffer@@UAEXK@Z 00410ef0 f i buffer.obj
 0001:0000ff20       ??1CBuffer@@UAE@XZ         00410f20 f   buffer.obj
 0001:0000ff50       ?RemoveData@CBufferQueue@@QAEXK@Z 00410f50 f   buffer.obj
 0001:0000ffd0       ?GetData@CBufferQueue@@QAEXPAU_WSABUF@@PAK@Z 00410fd0 f   buffer.obj
 0001:00010020       ??0CBufferFactory@@AAE@XZ  00411020 f   buffer.obj
 0001:00010030       ?GetInstance@CBufferFactory@@SAAAV1@XZ 00411030 f   buffer.obj
 0001:00010050       ?Free@?$MemPooler@VCBuffer@@@@QAEHPAVCBuffer@@@Z 00411050 f i buffer.obj
 0001:000100a0       ?Free@?$MemPooler@VCBuffer2@@@@QAEHPAVCBuffer2@@@Z 004110a0 f i buffer.obj
 0001:000100f0       ?Final@CRC32@@QAEXPAE@Z    004110f0 f i buffer.obj
 0001:00010100       ??3CBuffer@@SAXPAX@Z       00411100 f i buffer.obj
 0001:00010140       ??0CBuffer2@@QAE@K@Z       00411140 f i buffer.obj
 0001:00010170       ?GetPacketSize@CBuffer2@@UAEKPAE@Z 00411170 f i buffer.obj
 0001:00010190       ?SetHeader@CBuffer2@@UAEXK@Z 00411190 f i buffer.obj
 0001:000101c0       ??3CBuffer2@@SAXPAX@Z      004111c0 f i buffer.obj
 0001:00010200       ?AddTail@CBufferQueue@@QAEXPAVCBuffer@@@Z 00411200 f i buffer.obj
 0001:00010260       ??_GCBuffer@@UAEPAXI@Z     00411260 f i buffer.obj
 0001:00010260       ??_ECBuffer@@UAEPAXI@Z     00411260 f i buffer.obj
 0001:000102e0       ??0CBufferQueue@@QAE@XZ    004112e0 f   buffer.obj
 0001:00010320       ?Clear@CBufferQueue@@QAEXH@Z 00411320 f   buffer.obj
 0001:000103a0       ??_GCBuffer2@@UAEPAXI@Z    004113a0 f i buffer.obj
 0001:000103a0       ??_ECBuffer2@@UAEPAXI@Z    004113a0 f i buffer.obj
 0001:000103f0       ??1CBuffer2@@UAE@XZ        004113f0 f i buffer.obj
 0001:00010420       ??1CBufferQueue@@UAE@XZ    00411420 f   buffer.obj
 0001:00010480       ??_GCBufferQueue@@UAEPAXI@Z 00411480 f i buffer.obj
 0001:00010480       ??_ECBufferQueue@@UAEPAXI@Z 00411480 f i buffer.obj
 0001:000104a0       ?Create@?$MemPooler@VCBuffer@@@@IAEXXZ 004114a0 f i buffer.obj
 0001:00010530       ?Create@?$MemPooler@VCBuffer2@@@@IAEXXZ 00411530 f i buffer.obj
 0001:000105c0       ??0?$MemPooler@VCBuffer@@@@QAE@H@Z 004115c0 f i buffer.obj
 0001:00010640       ?Alloc@?$MemPooler@VCBuffer@@@@QAEPAVCBuffer@@XZ 00411640 f i buffer.obj
 0001:00010680       ??0?$MemPooler@VCBuffer2@@@@QAE@H@Z 00411680 f i buffer.obj
 0001:00010700       ?Alloc@?$MemPooler@VCBuffer2@@@@QAEPAVCBuffer2@@XZ 00411700 f i buffer.obj
 0001:00010740       ??2CBuffer@@SAPAXI@Z       00411740 f i buffer.obj
 0001:00010780       ??2CBuffer2@@SAPAXI@Z      00411780 f i buffer.obj
 0001:000107c0       ?CreateBuffer@CBufferFactory@@QAEPAVCBuffer@@W4BUFFER_TYPE@@K@Z 004117c0 f   buffer.obj
 0001:000108e0       ?AddData@CBufferQueue@@QAEXPAEKW4BUFFER_TYPE@@@Z 004118e0 f   buffer.obj
 0001:00010a90       ?GetHandle@CSock@@QAEIXZ   00411a90 f i clientsock.obj
 0001:00010aa0       ?GetSize@CBuffer@@QAEHXZ   00411aa0 f i clientsock.obj
 0001:00010ab0       ?crc@CBufferQueue@@QAEXPAVCRC32@@PAK@Z 00411ab0 f i clientsock.obj
 0001:00010ad0       ?Close@CClientSock@@UAEXXZ 00411ad0 f   clientsock.obj
 0001:00010b10       ?CloseConnection@CClientSock@@UAEHI@Z 00411b10 f   clientsock.obj
 0001:00010b20       ?Shutdown@CClientSock@@UAEHI@Z 00411b20 f   clientsock.obj
 0001:00010b30       ?Connect@CClientSock@@QAEHPADG@Z 00411b30 f   clientsock.obj
 0001:00010c10       ?Recv@CClientSock@@QAEHXZ  00411c10 f   clientsock.obj
 0001:00010c90       ?GetPeerAddr@CClientSock@@UAEJKPAXPAK@Z 00411c90 f   clientsock.obj
 0001:00010d30       ?CreateBuffer@CClientSock@@QAEPAVCBuffer@@XZ 00411d30 f   clientsock.obj
 0001:00010d50       ?SendProtocolId@CClientSock@@QAEXXZ 00411d50 f   clientsock.obj
 0001:00010dc0       ??0CClientSock@@QAE@K@Z    00411dc0 f   clientsock.obj
 0001:00010ea0       ?Get@CSock@@UAEPAV1@I@Z    00411ea0 f i clientsock.obj
 0001:00010ec0       ?SetProtocolId@CClientSock@@UAEXK@Z 00411ec0 f i clientsock.obj
 0001:00010ed0       ?GetPeerAddr@CClientSock@@UAEKK@Z 00411ed0 f i clientsock.obj
 0001:00010ee0       ??1CClientSock@@UAE@XZ     00411ee0 f   clientsock.obj
 0001:00010f80       ?Send@CClientSock@@UAEXPADKK@Z 00411f80 f   clientsock.obj
 0001:000110b0       ?SendRemnant@CClientSock@@QAEHK@Z 004120b0 f   clientsock.obj
 0001:000111c0       ?Fetch@CClientSock@@QAEPAVCBuffer@@K@Z 004121c0 f   clientsock.obj
 0001:00011500       ??_ECClientSock@@UAEPAXI@Z 00412500 f i clientsock.obj
 0001:00011500       ??_GCClientSock@@UAEPAXI@Z 00412500 f i clientsock.obj
 0001:00011530       ?Free@?$MemPooler@VCClientSock@@@@QAEHPAVCClientSock@@@Z 00412530 f i clientsock.obj
 0001:00011580       ?Create@?$MemPooler@VCClientSock@@@@IAEXXZ 00412580 f i clientsock.obj
 0001:00011610       ??0?$MemPooler@VCClientSock@@@@QAE@H@Z 00412610 f i clientsock.obj
 0001:00011690       ??0CClientSockE@@QAE@K@Z   00412690 f   clientsocke.obj
 0001:00011750       ?GetPeerAddr@CSock@@UAEKK@Z 00412750 f i clientsocke.obj
 0001:00011760       ?SetProtocolId@CClientSockE@@UAEXK@Z 00412760 f i clientsocke.obj
 0001:00011770       ?Close@CClientSockE@@UAEXXZ 00412770 f   clientsocke.obj
 0001:000117d0       ?CloseConnection@CClientSockE@@UAEHI@Z 004127d0 f   clientsocke.obj
 0001:000117e0       ?Shutdown@CClientSockE@@UAEHI@Z 004127e0 f   clientsocke.obj
 0001:000117f0       ?Create@CClientSockE@@UAEHGH@Z 004127f0 f   clientsocke.obj
 0001:00011830       ?Attach@CClientSockE@@UAEXI@Z 00412830 f   clientsocke.obj
 0001:00011870       ?Connect@CClientSockE@@QAEHPADG@Z 00412870 f   clientsocke.obj
 0001:00011950       ?Recv@CClientSockE@@QAEHXZ 00412950 f   clientsocke.obj
 0001:000119f0       ?GetPeerAddr@CClientSockE@@UAEJKPAXPAK@Z 004129f0 f   clientsocke.obj
 0001:00011a90       ?CreateBuffer@CClientSockE@@QAEPAVCBuffer@@XZ 00412a90 f   clientsocke.obj
 0001:00011ab0       ?SendProtocolId@CClientSockE@@QAEXXZ 00412ab0 f   clientsocke.obj
 0001:00011b00       ??1CClientSockE@@UAE@XZ    00412b00 f   clientsocke.obj
 0001:00011b60       ?Send@CClientSockE@@UAEXPADKK@Z 00412b60 f   clientsocke.obj
 0001:00011c60       ?SendRemnant@CClientSockE@@QAEHK@Z 00412c60 f   clientsocke.obj
 0001:00011d80       ?Fetch@CClientSockE@@QAEPAVCBuffer@@K@Z 00412d80 f   clientsocke.obj
 0001:00011f90       ??_ECClientSockE@@UAEPAXI@Z 00412f90 f i clientsocke.obj
 0001:00011f90       ??_GCClientSockE@@UAEPAXI@Z 00412f90 f i clientsocke.obj
 0001:00011fc0       ?Free@?$MemPooler@VCClientSockE@@@@QAEHPAVCClientSockE@@@Z 00412fc0 f i clientsocke.obj
 0001:00012010       ?Create@?$MemPooler@VCClientSockE@@@@IAEXXZ 00413010 f i clientsocke.obj
 0001:000120a0       ??0?$MemPooler@VCClientSockE@@@@QAE@H@Z 004130a0 f i clientsocke.obj
 0001:00012120       ?GetCrcByte@CRC32@@QBEEI@Z 00413120 f i crc.obj
 0001:00012130       ?Reset@CRC32@@AAEXXZ       00413130 f i crc.obj
 0001:00012140       ??0CRC32@@QAE@XZ           00413140 f   crc.obj
 0001:00012150       ?ThrowIfInvalidTruncatedSize@CRC32@@ABEXI@Z 00413150 f   crc.obj
 0001:00012160       ?TruncatedFinal@CRC32@@QAEXPAEI@Z 00413160 f   crc.obj
 0001:000121a0       ??$IsPowerOf2@I@@YA_NI@Z   004131a0 f i crc.obj
 0001:000121c0       ??$ModPowerOf2@II@@YAIII@Z 004131c0 f i crc.obj
 0001:000121d0       ??$GetAlignment@I@@YAIPAI@Z 004131d0 f i crc.obj
 0001:000121e0       ?IsAlignedOn@@YA_NPBXI@Z   004131e0 f i crc.obj
 0001:00012210       ??$IsAligned@I@@YA_NPBXPAI@Z 00413210 f i crc.obj
 0001:00012220       ?Update@CRC32@@QAEXPBEI@Z  00413220 f   crc.obj
 0001:00012330       ?GetRecvHandle@CDPSock@@QAEPAXXZ 00413330 f i dpmng.obj
 0001:00012340       ?GetHostAddr@CDPSock@@QAEJPAXPAK@Z 00413340 f i dpmng.obj
 0001:00012360       ?GetPlayerAddr@CDPSock@@QAEJKPAXPAK@Z 00413360 f i dpmng.obj
 0001:00012370       ?GetPlayerAddr@CDPSock@@QAEKK@Z 00413370 f i dpmng.obj
 0001:00012380       ?GetRecvHandle@CDPMng@@QAEPAXXZ 00413380 f i dpmng.obj
 0001:00012390       ?GetCloseHandle@CDPMng@@QAEPAXXZ 00413390 f i dpmng.obj
 0001:000123a0       ??0CDPMng@@QAE@XZ          004133a0 f   dpmng.obj
 0001:000123c0       ??1CDPMng@@UAE@XZ          004133c0 f   dpmng.obj
 0001:000123d0       ?DeleteDPObject@CDPMng@@QAEHXZ 004133d0 f   dpmng.obj
 0001:00012440       ?InitConnection@CDPMng@@QAEHPAXG@Z 00413440 f   dpmng.obj
 0001:00012460       ?GetHostAddr@CDPMng@@QAEXPAD@Z 00413460 f   dpmng.obj
 0001:00012490       ?GetPlayerAddr@CDPMng@@QAEXKPAD@Z 00413490 f   dpmng.obj
 0001:000124c0       ?GetPlayerAddr@CDPMng@@QAEKK@Z 004134c0 f   dpmng.obj
 0001:000124e0       ?ReceiveMessage@CDPMng@@QAEHXZ 004134e0 f   dpmng.obj
 0001:00012580       ?DestroyPlayer@CDPMng@@QAEHK@Z 00413580 f   dpmng.obj
 0001:000125a0       ?ReceiveThread@@YGIPAX@Z   004135a0 f   dpmng.obj
 0001:00012600       ?InitializeNetLib@@YAHXZ   00413600 f   dpmng.obj
 0001:00012650       ?TestNetLib@@YAXPBDG@Z     00413650 f   dpmng.obj
 0001:000126f0       ?chWindows9x@@YAHXZ        004136f0 f i dpmng.obj
 0001:00012750       ??_ECDPMng@@UAEPAXI@Z      00413750 f i dpmng.obj
 0001:00012750       ??_GCDPMng@@UAEPAXI@Z      00413750 f i dpmng.obj
 0001:00012770       ?CreateDPObject@CDPMng@@QAEHH@Z 00413770 f   dpmng.obj
 0001:00012830       ?CreateSession@CDPMng@@QAEHPBDK@Z 00413830 f   dpmng.obj
 0001:00012870       ?JoinSession@CDPMng@@QAEHPBDKK@Z 00413870 f   dpmng.obj
 0001:000128c0       ?Destroy@?$MemPooler@VCBuffer@@@@IAEXXZ 004138c0 f i dpmng.obj
 0001:00012930       ?Destroy@?$MemPooler@VCBuffer2@@@@IAEXXZ 00413930 f i dpmng.obj
 0001:000129a0       ?Destroy@?$MemPooler@VCClientSock@@@@IAEXXZ 004139a0 f i dpmng.obj
 0001:00012a10       ?Destroy@?$MemPooler@VCClientSockE@@@@IAEXXZ 00413a10 f i dpmng.obj
 0001:00012a80       ??1?$MemPooler@VCBuffer@@@@QAE@XZ 00413a80 f i dpmng.obj
 0001:00012ab0       ??1?$MemPooler@VCBuffer2@@@@QAE@XZ 00413ab0 f i dpmng.obj
 0001:00012ae0       ??1?$MemPooler@VCClientSock@@@@QAE@XZ 00413ae0 f i dpmng.obj
 0001:00012b10       ??1?$MemPooler@VCClientSockE@@@@QAE@XZ 00413b10 f i dpmng.obj
 0001:00012b40       ??_G?$MemPooler@VCClientSock@@@@QAEPAXI@Z 00413b40 f i dpmng.obj
 0001:00012b60       ??_G?$MemPooler@VCClientSockE@@@@QAEPAXI@Z 00413b60 f i dpmng.obj
 0001:00012b80       ??_G?$MemPooler@VCBuffer@@@@QAEPAXI@Z 00413b80 f i dpmng.obj
 0001:00012ba0       ??_G?$MemPooler@VCBuffer2@@@@QAEPAXI@Z 00413ba0 f i dpmng.obj
 0001:00012bc0       ?UninitializeNetLib@@YAXXZ 00413bc0 f   dpmng.obj
 0001:00012c80       ?SetID@CSock@@QAEXK@Z      00413c80 f i dpsock.obj
 0001:00012c90       ?GetID@CSock@@QAEKXZ       00413c90 f i dpsock.obj
 0001:00012ca0       ?SetPeerID@CSock@@QAEXK@Z  00413ca0 f i dpsock.obj
 0001:00012cb0       ?IsCrcWrite@CClientSock@@QAEHXZ 00413cb0 f i dpsock.obj
 0001:00012cc0       ?IsCrcWrite@CClientSockE@@QAEHXZ 00413cc0 f i dpsock.obj
 0001:00012cd0       ?GetRecvEvent@CClientSockE@@QAEPAXXZ 00413cd0 f i dpsock.obj
 0001:00012ce0       ?GetSendEvent@CClientSockE@@QAEPAXXZ 00413ce0 f i dpsock.obj
 0001:00012cf0       ?GetServerSock@CDPSock@@QAEPAVCSock@@XZ 00413cf0 f i dpsock.obj
 0001:00012d10       ?GetCompletionPort@CDPSock@@QAEPAXH@Z 00413d10 f i dpsock.obj
 0001:00012d20       ?GetCloseHandle@CDPSock@@QAEPAXXZ 00413d20 f i dpsock.obj
 0001:00012d30       ?GetIoWorkerCount@CDPSock@@QAEHXZ 00413d30 f i dpsock.obj
 0001:00012d40       ?GetSockThreaded@CDPSock@@QAEPAVCSock@@XZ 00413d40 f i dpsock.obj
 0001:00012d50       ?Get@CDPSock@@QAEPAVCClientSock@@I@Z 00413d50 f i dpsock.obj
 0001:00012d70       ?InitializeConnection@CDPSock@@QAEHPAXK@Z 00413d70 f   dpsock.obj
 0001:00012db0       ?Send@CDPSock@@QAEHPADKK@Z 00413db0 f   dpsock.obj
 0001:00012de0       ?Shutdown@CDPSock@@QAEHK@Z 00413de0 f   dpsock.obj
 0001:00012e00       ?SetProtocolId@CDPSock@@QAEXK@Z 00413e00 f   dpsock.obj
 0001:00012e30       ?size@?$list@PAXV?$allocator@PAX@std@@@std@@QBEIXZ 00413e30 f i dpsock.obj
 0001:00012e40       ??3CClientSock@@SAXPAX@Z   00413e40 f i dpsock.obj
 0001:00012e80       ??3CClientSockE@@SAXPAX@Z  00413e80 f i dpsock.obj
 0001:00012ec0       ?Receive@CDPSock@@QAEPAVCBuffer@@XZ 00413ec0 f   dpsock.obj
 0001:00012f30       ?AddCreatePlayerOrGroupMsg@CDPSock@@QAEXKPAVCBuffer@@@Z 00413f30 f   dpsock.obj
 0001:00013010       ?AddDestroyPlayerOrGroupMsg@CDPSock@@QAEXKPAVCBuffer@@@Z 00414010 f   dpsock.obj
 0001:000130f0       ??Eiterator@?$list@PAXV?$allocator@PAX@std@@@std@@QAE?AV012@H@Z 004140f0 f i dpsock.obj
 0001:00013100       ?CloseConnection@CDPSock@@QAEXK@Z 00414100 f   dpsock.obj
 0001:00013160       ?IoWorkerThread@@YGIPAX@Z  00414160 f   dpsock.obj
 0001:000134e0       ?erase@?$list@PAXV?$allocator@PAX@std@@@std@@QAE?AViterator@12@V312@@Z 004144e0 f i dpsock.obj
 0001:00013520       ?RemoveThread@CDPSock@@QAEXPAX@Z 00414520 f   dpsock.obj
 0001:00013590       ?EventWorkerThread@@YGIPAX@Z 00414590 f   dpsock.obj
 0001:00013760       ?front@?$list@PAXV?$allocator@PAX@std@@@std@@QAEAAPAXXZ 00414760 f i dpsock.obj
 0001:00013770       ?pop_front@?$list@PAXV?$allocator@PAX@std@@@std@@QAEXXZ 00414770 f i dpsock.obj
 0001:000137a0       ?CloseIoWorker@CDPSock@@AAEHXZ 004147a0 f   dpsock.obj
 0001:00013970       ??0CDPSock@@QAE@XZ         00414970 f   dpsock.obj
 0001:00013a30       ?Close@CDPSock@@QAEHXZ     00414a30 f   dpsock.obj
 0001:00013a90       ?CreateServerE@CDPSock@@QAEHK@Z 00414a90 f   dpsock.obj
 0001:00013ba0       ??1CDPSock@@UAE@XZ         00414ba0 f   dpsock.obj
 0001:00013c50       ??_ECDPSock@@UAEPAXI@Z     00414c50 f i dpsock.obj
 0001:00013c50       ??_GCDPSock@@UAEPAXI@Z     00414c50 f i dpsock.obj
 0001:00013c70       ?CreateIoWorker@CDPSock@@AAEHK@Z 00414c70 f   dpsock.obj
 0001:00013d50       ?CreateEventWorker@CDPSock@@QAEHPAVCSock@@@Z 00414d50 f   dpsock.obj
 0001:00013df0       ?CreateServer@CDPSock@@QAEHK@Z 00414df0 f   dpsock.obj
 0001:00013f10       ?Alloc@?$MemPooler@VCClientSock@@@@QAEPAVCClientSock@@XZ 00414f10 f i dpsock.obj
 0001:00013f50       ?Alloc@?$MemPooler@VCClientSockE@@@@QAEPAVCClientSockE@@XZ 00414f50 f i dpsock.obj
 0001:00013f90       ??2CClientSock@@SAPAXI@Z   00414f90 f i dpsock.obj
 0001:00013fd0       ??2CClientSockE@@SAPAXI@Z  00414fd0 f i dpsock.obj
 0001:00014010       ?JoinToServer@CDPSock@@QAEHKK@Z 00415010 f   dpsock.obj
 0001:00014230       ?JoinToServerE@CDPSock@@QAEHKK@Z 00415230 f   dpsock.obj
 0001:00014440       ?GetListenHandle@CServerSock@@QAEPAXXZ 00415440 f i serversock.obj
 0001:00014450       ?GetCloseHandle@CServerSock@@QAEPAXXZ 00415450 f i serversock.obj
 0001:00014460       ?GetCompletionPort@CServerSock@@QAEPAXH@Z 00415460 f i serversock.obj
 0001:00014470       ?GetIoWorkerCount@CServerSock@@QAEHXZ 00415470 f i serversock.obj
 0001:00014480       ?Listen@CServerSock@@QAEHXZ 00415480 f   serversock.obj
 0001:000144c0       ?GetPeerAddr@CServerSock@@QAEJIPAK@Z 004154c0 f   serversock.obj
 0001:00014540       ??0?$pair@$$CBKPAVCClientSock@@@std@@QAE@ABKABQAVCClientSock@@@Z 00415540 f i serversock.obj
 0001:00014560       ?_Color@?$_Tree@V?$_Tmap_traits@KPAVCClientSock@@U?$less@K@std@@V?$allocator@U?$pair@$$CBKPAVCClientSock@@@std@@@3@$0A@@std@@@std@@KAAADPAU_Node@?$_Tree_nod@V?$_Tmap_traits@KPAVCClientSock@@U?$less@K@std@@V?$allocator@U?$pair@$$CBKPAVCClientSock@@@std@@@3@$0A@@std@@@2@@Z 00415560 f i serversock.obj
 0001:00014570       ?_Isnil@?$_Tree@V?$_Tmap_traits@KPAVCClientSock@@U?$less@K@std@@V?$allocator@U?$pair@$$CBKPAVCClientSock@@@std@@@3@$0A@@std@@@std@@KAAADPAU_Node@?$_Tree_nod@V?$_Tmap_traits@KPAVCClientSock@@U?$less@K@std@@V?$allocator@U?$pair@$$CBKPAVCClientSock@@@std@@@3@$0A@@std@@@2@@Z 00415570 f i serversock.obj
 0001:00014580       ?_Left@?$_Tree@V?$_Tmap_traits@KPAVCClientSock@@U?$less@K@std@@V?$allocator@U?$pair@$$CBKPAVCClientSock@@@std@@@3@$0A@@std@@@std@@KAAAPAU_Node@?$_Tree_nod@V?$_Tmap_traits@KPAVCClientSock@@U?$less@K@std@@V?$allocator@U?$pair@$$CBKPAVCClientSock@@@std@@@3@$0A@@std@@@2@PAU342@@Z 00415580 f i serversock.obj
 0001:00014590       ?_Parent@?$_Tree@V?$_Tmap_traits@KPAVCClientSock@@U?$less@K@std@@V?$allocator@U?$pair@$$CBKPAVCClientSock@@@std@@@3@$0A@@std@@@std@@KAAAPAU_Node@?$_Tree_nod@V?$_Tmap_traits@KPAVCClientSock@@U?$less@K@std@@V?$allocator@U?$pair@$$CBKPAVCClientSock@@@std@@@3@$0A@@std@@@2@PAU342@@Z 00415590 f i serversock.obj
 0001:000145a0       ?_Right@?$_Tree@V?$_Tmap_traits@KPAVCClientSock@@U?$less@K@std@@V?$allocator@U?$pair@$$CBKPAVCClientSock@@@std@@@3@$0A@@std@@@std@@KAAAPAU_Node@?$_Tree_nod@V?$_Tmap_traits@KPAVCClientSock@@U?$less@K@std@@V?$allocator@U?$pair@$$CBKPAVCClientSock@@@std@@@3@$0A@@std@@@2@PAU342@@Z 004155a0 f i serversock.obj
 0001:000145b0       ?_Lmost@?$_Tree@V?$_Tmap_traits@KPAVCClientSock@@U?$less@K@std@@V?$allocator@U?$pair@$$CBKPAVCClientSock@@@std@@@3@$0A@@std@@@std@@IAEAAPAU_Node@?$_Tree_nod@V?$_Tmap_traits@KPAVCClientSock@@U?$less@K@std@@V?$allocator@U?$pair@$$CBKPAVCClientSock@@@std@@@3@$0A@@std@@@2@XZ 004155b0 f i serversock.obj
 0001:000145c0       ?_Max@?$_Tree@V?$_Tmap_traits@KPAVCClientSock@@U?$less@K@std@@V?$allocator@U?$pair@$$CBKPAVCClientSock@@@std@@@3@$0A@@std@@@std@@KAPAU_Node@?$_Tree_nod@V?$_Tmap_traits@KPAVCClientSock@@U?$less@K@std@@V?$allocator@U?$pair@$$CBKPAVCClientSock@@@std@@@3@$0A@@std@@@2@PAU342@@Z 004155c0 f i serversock.obj
 0001:000145e0       ?_Min@?$_Tree@V?$_Tmap_traits@KPAVCClientSock@@U?$less@K@std@@V?$allocator@U?$pair@$$CBKPAVCClientSock@@@std@@@3@$0A@@std@@@std@@KAPAU_Node@?$_Tree_nod@V?$_Tmap_traits@KPAVCClientSock@@U?$less@K@std@@V?$allocator@U?$pair@$$CBKPAVCClientSock@@@std@@@3@$0A@@std@@@2@PAU342@@Z 004155e0 f i serversock.obj
 0001:00014600       ?_Rmost@?$_Tree@V?$_Tmap_traits@KPAVCClientSock@@U?$less@K@std@@V?$allocator@U?$pair@$$CBKPAVCClientSock@@@std@@@3@$0A@@std@@@std@@IAEAAPAU_Node@?$_Tree_nod@V?$_Tmap_traits@KPAVCClientSock@@U?$less@K@std@@V?$allocator@U?$pair@$$CBKPAVCClientSock@@@std@@@3@$0A@@std@@@2@XZ 00415600 f i serversock.obj
 0001:00014610       ?_Root@?$_Tree@V?$_Tmap_traits@KPAVCClientSock@@U?$less@K@std@@V?$allocator@U?$pair@$$CBKPAVCClientSock@@@std@@@3@$0A@@std@@@std@@IAEAAPAU_Node@?$_Tree_nod@V?$_Tmap_traits@KPAVCClientSock@@U?$less@K@std@@V?$allocator@U?$pair@$$CBKPAVCClientSock@@@std@@@3@$0A@@std@@@2@XZ 00415610 f i serversock.obj
 0001:00014620       ?_Rrotate@?$_Tree@V?$_Tmap_traits@KPAVCClientSock@@U?$less@K@std@@V?$allocator@U?$pair@$$CBKPAVCClientSock@@@std@@@3@$0A@@std@@@std@@IAEXPAU_Node@?$_Tree_nod@V?$_Tmap_traits@KPAVCClientSock@@U?$less@K@std@@V?$allocator@U?$pair@$$CBKPAVCClientSock@@@std@@@3@$0A@@std@@@2@@Z 00415620 f i serversock.obj
 0001:00014680       ?_Kfn@?$_Tmap_traits@KPAVCClientSock@@U?$less@K@std@@V?$allocator@U?$pair@$$CBKPAVCClientSock@@@std@@@3@$0A@@std@@SAABKABU?$pair@$$CBKPAVCClientSock@@@2@@Z 00415680 f i serversock.obj
 0001:00014690       ??0?$allocator@U?$pair@$$CBKPAVCClientSock@@@std@@@std@@QAE@XZ 00415690 f i serversock.obj
 0001:000146a0       ?deallocate@?$allocator@U_Node@?$_Tree_nod@V?$_Tmap_traits@KPAVCClientSock@@U?$less@K@std@@V?$allocator@U?$pair@$$CBKPAVCClientSock@@@std@@@3@$0A@@std@@@std@@@std@@QAEXPAU_Node@?$_Tree_nod@V?$_Tmap_traits@KPAVCClientSock@@U?$less@K@std@@V?$allocator@U?$pair@$$CBKPAVCClientSock@@@std@@@3@$0A@@std@@@2@I@Z 004156a0 f i serversock.obj
 0001:000146b0       ??8const_iterator@?$_Tree@V?$_Tmap_traits@KPAVCClientSock@@U?$less@K@std@@V?$allocator@U?$pair@$$CBKPAVCClientSock@@@std@@@3@$0A@@std@@@std@@QBE_NABV012@@Z 004156b0 f i serversock.obj
 0001:000146c0       ?_Mynode@const_iterator@?$_Tree@V?$_Tmap_traits@KPAVCClientSock@@U?$less@K@std@@V?$allocator@U?$pair@$$CBKPAVCClientSock@@@std@@@3@$0A@@std@@@std@@QBEPAU_Node@?$_Tree_nod@V?$_Tmap_traits@KPAVCClientSock@@U?$less@K@std@@V?$allocator@U?$pair@$$CBKPAVCClientSock@@@std@@@3@$0A@@std@@@3@XZ 004156c0 f i serversock.obj
 0001:000146d0       ??0?$pair@Viterator@?$_Tree@V?$_Tmap_traits@KPAVCClientSock@@U?$less@K@std@@V?$allocator@U?$pair@$$CBKPAVCClientSock@@@std@@@3@$0A@@std@@@std@@_N@std@@QAE@ABViterator@?$_Tree@V?$_Tmap_traits@KPAVCClientSock@@U?$less@K@std@@V?$allocator@U?$pair@$$CBKPAVCClientSock@@@std@@@3@$0A@@std@@@1@AB_N@Z 004156d0 f i serversock.obj
 0001:000146f0       ?_Myval@?$_Tree@V?$_Tmap_traits@KPAVCClientSock@@U?$less@K@std@@V?$allocator@U?$pair@$$CBKPAVCClientSock@@@std@@@3@$0A@@std@@@std@@KAAAU?$pair@$$CBKPAVCClientSock@@@2@PAU_Node@?$_Tree_nod@V?$_Tmap_traits@KPAVCClientSock@@U?$less@K@std@@V?$allocator@U?$pair@$$CBKPAVCClientSock@@@std@@@3@$0A@@std@@@2@@Z 004156f0 f i serversock.obj
 0001:00014700       ??0?$allocator@U?$pair@$$CBKPAVCClientSock@@@std@@@std@@QAE@ABV01@@Z 00415700 f i serversock.obj
 0001:00014710       ??0const_iterator@?$_Tree@V?$_Tmap_traits@KPAVCClientSock@@U?$less@K@std@@V?$allocator@U?$pair@$$CBKPAVCClientSock@@@std@@@3@$0A@@std@@@std@@QAE@PAU_Node@?$_Tree_nod@V?$_Tmap_traits@KPAVCClientSock@@U?$less@K@std@@V?$allocator@U?$pair@$$CBKPAVCClientSock@@@std@@@3@$0A@@std@@@2@@Z 00415710 f i serversock.obj
 0001:00014720       ??Dconst_iterator@?$_Tree@V?$_Tmap_traits@KPAVCClientSock@@U?$less@K@std@@V?$allocator@U?$pair@$$CBKPAVCClientSock@@@std@@@3@$0A@@std@@@std@@QBEABU?$pair@$$CBKPAVCClientSock@@@2@XZ 00415720 f i serversock.obj
 0001:00014730       ?_Inc@const_iterator@?$_Tree@V?$_Tmap_traits@KPAVCClientSock@@U?$less@K@std@@V?$allocator@U?$pair@$$CBKPAVCClientSock@@@std@@@3@$0A@@std@@@std@@QAEXXZ 00415730 f i serversock.obj
 0001:00014790       ?_Root@?$_Tree@V?$_Tmap_traits@KPAVCClientSock@@U?$less@K@std@@V?$allocator@U?$pair@$$CBKPAVCClientSock@@@std@@@3@$0A@@std@@@std@@IBEAAPAU_Node@?$_Tree_nod@V?$_Tmap_traits@KPAVCClientSock@@U?$less@K@std@@V?$allocator@U?$pair@$$CBKPAVCClientSock@@@std@@@3@$0A@@std@@@2@XZ 00415790 f i serversock.obj
 0001:000147a0       ?max_size@?$allocator@U?$pair@$$CBKPAVCClientSock@@@std@@@std@@QBEIXZ 004157a0 f i serversock.obj
 0001:000147b0       ?_Dec@const_iterator@?$_Tree@V?$_Tmap_traits@KPAVCClientSock@@U?$less@K@std@@V?$allocator@U?$pair@$$CBKPAVCClientSock@@@std@@@3@$0A@@std@@@std@@QAEXXZ 004157b0 f i serversock.obj
 0001:00014810       ??0_Node@?$_Tree_nod@V?$_Tmap_traits@KPAVCClientSock@@U?$less@K@std@@V?$allocator@U?$pair@$$CBKPAVCClientSock@@@std@@@3@$0A@@std@@@std@@QAE@PAU012@00ABU?$pair@$$CBKPAVCClientSock@@@2@D@Z 00415810 f i serversock.obj
 0001:00014850       ??0?$_Tmap_traits@KPAVCClientSock@@U?$less@K@std@@V?$allocator@U?$pair@$$CBKPAVCClientSock@@@std@@@3@$0A@@std@@QAE@U?$less@K@1@@Z 00415850 f i serversock.obj
 0001:00014860       ??$_Destroy@U_Node@?$_Tree_nod@V?$_Tmap_traits@KPAVCClientSock@@U?$less@K@std@@V?$allocator@U?$pair@$$CBKPAVCClientSock@@@std@@@3@$0A@@std@@@std@@@std@@YAXPAU_Node@?$_Tree_nod@V?$_Tmap_traits@KPAVCClientSock@@U?$less@K@std@@V?$allocator@U?$pair@$$CBKPAVCClientSock@@@std@@@3@$0A@@std@@@0@@Z 00415860 f i serversock.obj
 0001:00014870       ??$_Destroy@PAU_Node@?$_Tree_nod@V?$_Tmap_traits@KPAVCClientSock@@U?$less@K@std@@V?$allocator@U?$pair@$$CBKPAVCClientSock@@@std@@@3@$0A@@std@@@std@@@std@@YAXPAPAU_Node@?$_Tree_nod@V?$_Tmap_traits@KPAVCClientSock@@U?$less@K@std@@V?$allocator@U?$pair@$$CBKPAVCClientSock@@@std@@@3@$0A@@std@@@0@@Z 00415870 f i serversock.obj
 0001:00014880       ??$?0U?$pair@$$CBKPAVCClientSock@@@std@@@?$allocator@PAU_Node@?$_Tree_nod@V?$_Tmap_traits@KPAVCClientSock@@U?$less@K@std@@V?$allocator@U?$pair@$$CBKPAVCClientSock@@@std@@@3@$0A@@std@@@std@@@std@@QAE@ABV?$allocator@U?$pair@$$CBKPAVCClientSock@@@std@@@1@@Z 00415880 f i serversock.obj
 0001:00014890       ??$_Allocate@U_Node@?$_Tree_nod@V?$_Tmap_traits@KPAVCClientSock@@U?$less@K@std@@V?$allocator@U?$pair@$$CBKPAVCClientSock@@@std@@@3@$0A@@std@@@std@@@std@@YAPAU_Node@?$_Tree_nod@V?$_Tmap_traits@KPAVCClientSock@@U?$less@K@std@@V?$allocator@U?$pair@$$CBKPAVCClientSock@@@std@@@3@$0A@@std@@@0@IPAU120@@Z 00415890 f i serversock.obj
 0001:000148b0       ??$?0U?$pair@$$CBKPAVCClientSock@@@std@@@?$allocator@U_Node@?$_Tree_nod@V?$_Tmap_traits@KPAVCClientSock@@U?$less@K@std@@V?$allocator@U?$pair@$$CBKPAVCClientSock@@@std@@@3@$0A@@std@@@std@@@std@@QAE@ABV?$allocator@U?$pair@$$CBKPAVCClientSock@@@std@@@1@@Z 004158b0 f i serversock.obj
 0001:000148c0       ??$_Construct@PAU_Node@?$_Tree_nod@V?$_Tmap_traits@KPAVCClientSock@@U?$less@K@std@@V?$allocator@U?$pair@$$CBKPAVCClientSock@@@std@@@3@$0A@@std@@@std@@PAU123@@std@@YAXPAPAU_Node@?$_Tree_nod@V?$_Tmap_traits@KPAVCClientSock@@U?$less@K@std@@V?$allocator@U?$pair@$$CBKPAVCClientSock@@@std@@@3@$0A@@std@@@0@ABQAU120@@Z 004158c0 f i serversock.obj
 0001:000148e0       ?Lock@CMapChild@@QAEXXZ    004158e0 f i serversock.obj
 0001:000148f0       ?Unlock@CMapChild@@QAEXXZ  004158f0 f i serversock.obj
 0001:00014900       ?Shutdown@CServerSock@@UAEHI@Z 00415900 f   serversock.obj
 0001:00014990       ?GetPeerAddr@CServerSock@@UAEJKPAXPAK@Z 00415990 f   serversock.obj
 0001:00014a90       ?GetPeerAddr@CServerSock@@UAEKK@Z 00415a90 f   serversock.obj
 0001:00014b20       ??9const_iterator@?$_Tree@V?$_Tmap_traits@KPAVCClientSock@@U?$less@K@std@@V?$allocator@U?$pair@$$CBKPAVCClientSock@@@std@@@3@$0A@@std@@@std@@QBE_NABV012@@Z 00415b20 f i serversock.obj
 0001:00014b40       ?_Key@?$_Tree@V?$_Tmap_traits@KPAVCClientSock@@U?$less@K@std@@V?$allocator@U?$pair@$$CBKPAVCClientSock@@@std@@@3@$0A@@std@@@std@@KAABKPAU_Node@?$_Tree_nod@V?$_Tmap_traits@KPAVCClientSock@@U?$less@K@std@@V?$allocator@U?$pair@$$CBKPAVCClientSock@@@std@@@3@$0A@@std@@@2@@Z 00415b40 f i serversock.obj
 0001:00014b50       ?_Lrotate@?$_Tree@V?$_Tmap_traits@KPAVCClientSock@@U?$less@K@std@@V?$allocator@U?$pair@$$CBKPAVCClientSock@@@std@@@3@$0A@@std@@@std@@IAEXPAU_Node@?$_Tree_nod@V?$_Tmap_traits@KPAVCClientSock@@U?$less@K@std@@V?$allocator@U?$pair@$$CBKPAVCClientSock@@@std@@@3@$0A@@std@@@2@@Z 00415b50 f i serversock.obj
 0001:00014bb0       ?destroy@?$allocator@U_Node@?$_Tree_nod@V?$_Tmap_traits@KPAVCClientSock@@U?$less@K@std@@V?$allocator@U?$pair@$$CBKPAVCClientSock@@@std@@@3@$0A@@std@@@std@@@std@@QAEXPAU_Node@?$_Tree_nod@V?$_Tmap_traits@KPAVCClientSock@@U?$less@K@std@@V?$allocator@U?$pair@$$CBKPAVCClientSock@@@std@@@3@$0A@@std@@@2@@Z 00415bb0 f i serversock.obj
 0001:00014bc0       ??0iterator@?$_Tree@V?$_Tmap_traits@KPAVCClientSock@@U?$less@K@std@@V?$allocator@U?$pair@$$CBKPAVCClientSock@@@std@@@3@$0A@@std@@@std@@QAE@PAU_Node@?$_Tree_nod@V?$_Tmap_traits@KPAVCClientSock@@U?$less@K@std@@V?$allocator@U?$pair@$$CBKPAVCClientSock@@@std@@@3@$0A@@std@@@2@@Z 00415bc0 f i serversock.obj
 0001:00014bd0       ??Diterator@?$_Tree@V?$_Tmap_traits@KPAVCClientSock@@U?$less@K@std@@V?$allocator@U?$pair@$$CBKPAVCClientSock@@@std@@@3@$0A@@std@@@std@@QBEAAU?$pair@$$CBKPAVCClientSock@@@2@XZ 00415bd0 f i serversock.obj
 0001:00014be0       ??Econst_iterator@?$_Tree@V?$_Tmap_traits@KPAVCClientSock@@U?$less@K@std@@V?$allocator@U?$pair@$$CBKPAVCClientSock@@@std@@@3@$0A@@std@@@std@@QAEAAV012@XZ 00415be0 f i serversock.obj
 0001:00014bf0       ?max_size@?$_Tree@V?$_Tmap_traits@KPAVCClientSock@@U?$less@K@std@@V?$allocator@U?$pair@$$CBKPAVCClientSock@@@std@@@3@$0A@@std@@@std@@QBEIXZ 00415bf0 f i serversock.obj
 0001:00014c00       ?_Lbound@?$_Tree@V?$_Tmap_traits@KPAVCClientSock@@U?$less@K@std@@V?$allocator@U?$pair@$$CBKPAVCClientSock@@@std@@@3@$0A@@std@@@std@@IBEPAU_Node@?$_Tree_nod@V?$_Tmap_traits@KPAVCClientSock@@U?$less@K@std@@V?$allocator@U?$pair@$$CBKPAVCClientSock@@@std@@@3@$0A@@std@@@2@ABK@Z 00415c00 f i serversock.obj
 0001:00014c30       ?destroy@?$allocator@PAU_Node@?$_Tree_nod@V?$_Tmap_traits@KPAVCClientSock@@U?$less@K@std@@V?$allocator@U?$pair@$$CBKPAVCClientSock@@@std@@@3@$0A@@std@@@std@@@std@@QAEXPAPAU_Node@?$_Tree_nod@V?$_Tmap_traits@KPAVCClientSock@@U?$less@K@std@@V?$allocator@U?$pair@$$CBKPAVCClientSock@@@std@@@3@$0A@@std@@@2@@Z 00415c30 f i serversock.obj
 0001:00014c40       ??Fconst_iterator@?$_Tree@V?$_Tmap_traits@KPAVCClientSock@@U?$less@K@std@@V?$allocator@U?$pair@$$CBKPAVCClientSock@@@std@@@3@$0A@@std@@@std@@QAEAAV012@XZ 00415c40 f i serversock.obj
 0001:00014c50       ?allocate@?$allocator@U_Node@?$_Tree_nod@V?$_Tmap_traits@KPAVCClientSock@@U?$less@K@std@@V?$allocator@U?$pair@$$CBKPAVCClientSock@@@std@@@3@$0A@@std@@@std@@@std@@QAEPAU_Node@?$_Tree_nod@V?$_Tmap_traits@KPAVCClientSock@@U?$less@K@std@@V?$allocator@U?$pair@$$CBKPAVCClientSock@@@std@@@3@$0A@@std@@@2@I@Z 00415c50 f i serversock.obj
 0001:00014c70       ??0?$_Tree_nod@V?$_Tmap_traits@KPAVCClientSock@@U?$less@K@std@@V?$allocator@U?$pair@$$CBKPAVCClientSock@@@std@@@3@$0A@@std@@@std@@IAE@ABU?$less@K@1@V?$allocator@U?$pair@$$CBKPAVCClientSock@@@std@@@1@@Z 00415c70 f i serversock.obj
 0001:00014c80       ?construct@?$allocator@PAU_Node@?$_Tree_nod@V?$_Tmap_traits@KPAVCClientSock@@U?$less@K@std@@V?$allocator@U?$pair@$$CBKPAVCClientSock@@@std@@@3@$0A@@std@@@std@@@std@@QAEXPAPAU_Node@?$_Tree_nod@V?$_Tmap_traits@KPAVCClientSock@@U?$less@K@std@@V?$allocator@U?$pair@$$CBKPAVCClientSock@@@std@@@3@$0A@@std@@@2@ABQAU342@@Z 00415c80 f i serversock.obj
 0001:00014ca0       ?begin@?$_Tree@V?$_Tmap_traits@KPAVCClientSock@@U?$less@K@std@@V?$allocator@U?$pair@$$CBKPAVCClientSock@@@std@@@3@$0A@@std@@@std@@QAE?AViterator@12@XZ 00415ca0 f i serversock.obj
 0001:00014cb0       ?end@?$_Tree@V?$_Tmap_traits@KPAVCClientSock@@U?$less@K@std@@V?$allocator@U?$pair@$$CBKPAVCClientSock@@@std@@@3@$0A@@std@@@std@@QAE?AViterator@12@XZ 00415cb0 f i serversock.obj
 0001:00014cc0       ??Citerator@?$_Tree@V?$_Tmap_traits@KPAVCClientSock@@U?$less@K@std@@V?$allocator@U?$pair@$$CBKPAVCClientSock@@@std@@@3@$0A@@std@@@std@@QBEPAU?$pair@$$CBKPAVCClientSock@@@2@XZ 00415cc0 f i serversock.obj
 0001:00014cd0       ??Eiterator@?$_Tree@V?$_Tmap_traits@KPAVCClientSock@@U?$less@K@std@@V?$allocator@U?$pair@$$CBKPAVCClientSock@@@std@@@3@$0A@@std@@@std@@QAEAAV012@XZ 00415cd0 f i serversock.obj
 0001:00014ce0       ?lower_bound@?$_Tree@V?$_Tmap_traits@KPAVCClientSock@@U?$less@K@std@@V?$allocator@U?$pair@$$CBKPAVCClientSock@@@std@@@3@$0A@@std@@@std@@QAE?AViterator@12@ABK@Z 00415ce0 f i serversock.obj
 0001:00014d20       ?_Erase@?$_Tree@V?$_Tmap_traits@KPAVCClientSock@@U?$less@K@std@@V?$allocator@U?$pair@$$CBKPAVCClientSock@@@std@@@3@$0A@@std@@@std@@IAEXPAU_Node@?$_Tree_nod@V?$_Tmap_traits@KPAVCClientSock@@U?$less@K@std@@V?$allocator@U?$pair@$$CBKPAVCClientSock@@@std@@@3@$0A@@std@@@2@@Z 00415d20 f i serversock.obj
 0001:00014d60       ??Fiterator@?$_Tree@V?$_Tmap_traits@KPAVCClientSock@@U?$less@K@std@@V?$allocator@U?$pair@$$CBKPAVCClientSock@@@std@@@3@$0A@@std@@@std@@QAEAAV012@XZ 00415d60 f i serversock.obj
 0001:00014d70       ?_Buynode@?$_Tree@V?$_Tmap_traits@KPAVCClientSock@@U?$less@K@std@@V?$allocator@U?$pair@$$CBKPAVCClientSock@@@std@@@3@$0A@@std@@@std@@IAEPAU_Node@?$_Tree_nod@V?$_Tmap_traits@KPAVCClientSock@@U?$less@K@std@@V?$allocator@U?$pair@$$CBKPAVCClientSock@@@std@@@3@$0A@@std@@@2@PAU342@00ABU?$pair@$$CBKPAVCClientSock@@@2@D@Z 00415d70 f i serversock.obj
 0001:00014db0       ?_Buynode@?$_Tree@V?$_Tmap_traits@KPAVCClientSock@@U?$less@K@std@@V?$allocator@U?$pair@$$CBKPAVCClientSock@@@std@@@3@$0A@@std@@@std@@IAEPAU_Node@?$_Tree_nod@V?$_Tmap_traits@KPAVCClientSock@@U?$less@K@std@@V?$allocator@U?$pair@$$CBKPAVCClientSock@@@std@@@3@$0A@@std@@@2@XZ 00415db0 f i serversock.obj
 0001:00014df0       ??0?$_Tree_ptr@V?$_Tmap_traits@KPAVCClientSock@@U?$less@K@std@@V?$allocator@U?$pair@$$CBKPAVCClientSock@@@std@@@3@$0A@@std@@@std@@IAE@ABU?$less@K@1@V?$allocator@U?$pair@$$CBKPAVCClientSock@@@std@@@1@@Z 00415df0 f i serversock.obj
 0001:00014e00       ??Eiterator@?$_Tree@V?$_Tmap_traits@KPAVCClientSock@@U?$less@K@std@@V?$allocator@U?$pair@$$CBKPAVCClientSock@@@std@@@3@$0A@@std@@@std@@QAE?AV012@H@Z 00415e00 f i serversock.obj
 0001:00014e20       ?ShutdownAddr@CServerSock@@QAEXK@Z 00415e20 f   serversock.obj
 0001:00014e90       ?Send@CServerSock@@UAEXPADKK@Z 00415e90 f   serversock.obj
 0001:00014f70       ?ListenThread@@YGIPAX@Z    00415f70 f   serversock.obj
 0001:00015140       ?clear@?$_Tree@V?$_Tmap_traits@KPAVCClientSock@@U?$less@K@std@@V?$allocator@U?$pair@$$CBKPAVCClientSock@@@std@@@3@$0A@@std@@@std@@QAEXXZ 00416140 f i serversock.obj
 0001:00015170       ?find@?$_Tree@V?$_Tmap_traits@KPAVCClientSock@@U?$less@K@std@@V?$allocator@U?$pair@$$CBKPAVCClientSock@@@std@@@3@$0A@@std@@@std@@QAE?AViterator@12@ABK@Z 00416170 f i serversock.obj
 0001:000151e0       ?_Init@?$_Tree@V?$_Tmap_traits@KPAVCClientSock@@U?$less@K@std@@V?$allocator@U?$pair@$$CBKPAVCClientSock@@@std@@@3@$0A@@std@@@std@@IAEXXZ 004161e0 f i serversock.obj
 0001:00015210       ??0?$_Tree_val@V?$_Tmap_traits@KPAVCClientSock@@U?$less@K@std@@V?$allocator@U?$pair@$$CBKPAVCClientSock@@@std@@@3@$0A@@std@@@std@@IAE@ABU?$less@K@1@V?$allocator@U?$pair@$$CBKPAVCClientSock@@@std@@@1@@Z 00416210 f i serversock.obj
 0001:00015220       ?StartServer@CServerSock@@QAEHPAPAXK@Z 00416220 f   serversock.obj
 0001:000152b0       ?CloseAllChild@CServerSock@@QAEXXZ 004162b0 f   serversock.obj
 0001:00015390       ??0?$_Tree@V?$_Tmap_traits@KPAVCClientSock@@U?$less@K@std@@V?$allocator@U?$pair@$$CBKPAVCClientSock@@@std@@@3@$0A@@std@@@std@@QAE@ABU?$less@K@1@ABV?$allocator@U?$pair@$$CBKPAVCClientSock@@@std@@@1@@Z 00416390 f i serversock.obj
 0001:000153c0       ?Close@CServerSock@@UAEXXZ 004163c0 f   serversock.obj
 0001:00015420       ?erase@?$_Tree@V?$_Tmap_traits@KPAVCClientSock@@U?$less@K@std@@V?$allocator@U?$pair@$$CBKPAVCClientSock@@@std@@@3@$0A@@std@@@std@@QAE?AViterator@12@V312@@Z 00416420 f i serversock.obj
 0001:000156e0       ?_Insert@?$_Tree@V?$_Tmap_traits@KPAVCClientSock@@U?$less@K@std@@V?$allocator@U?$pair@$$CBKPAVCClientSock@@@std@@@3@$0A@@std@@@std@@IAE?AViterator@12@_NPAU_Node@?$_Tree_nod@V?$_Tmap_traits@KPAVCClientSock@@U?$less@K@std@@V?$allocator@U?$pair@$$CBKPAVCClientSock@@@std@@@3@$0A@@std@@@2@ABU?$pair@$$CBKPAVCClientSock@@@2@@Z 004166e0 f i serversock.obj
 0001:00015890       ?erase@?$_Tree@V?$_Tmap_traits@KPAVCClientSock@@U?$less@K@std@@V?$allocator@U?$pair@$$CBKPAVCClientSock@@@std@@@3@$0A@@std@@@std@@QAE?AViterator@12@V312@0@Z 00416890 f i serversock.obj
 0001:00015950       ?CloseChild@CServerSock@@QAEHI@Z 00416950 f   serversock.obj
 0001:00015a10       ?CloseConnection@CServerSock@@UAEHI@Z 00416a10 f   serversock.obj
 0001:00015a20       ?insert@?$_Tree@V?$_Tmap_traits@KPAVCClientSock@@U?$less@K@std@@V?$allocator@U?$pair@$$CBKPAVCClientSock@@@std@@@3@$0A@@std@@@std@@QAE?AU?$pair@Viterator@?$_Tree@V?$_Tmap_traits@KPAVCClientSock@@U?$less@K@std@@V?$allocator@U?$pair@$$CBKPAVCClientSock@@@std@@@3@$0A@@std@@@std@@_N@2@ABU?$pair@$$CBKPAVCClientSock@@@2@@Z 00416a20 f i serversock.obj
 0001:00015ae0       ?_Tidy@?$_Tree@V?$_Tmap_traits@KPAVCClientSock@@U?$less@K@std@@V?$allocator@U?$pair@$$CBKPAVCClientSock@@@std@@@3@$0A@@std@@@std@@IAEXXZ 00416ae0 f i serversock.obj
 0001:00015b10       ??1?$_Tree@V?$_Tmap_traits@KPAVCClientSock@@U?$less@K@std@@V?$allocator@U?$pair@$$CBKPAVCClientSock@@@std@@@3@$0A@@std@@@std@@QAE@XZ 00416b10 f i serversock.obj
 0001:00015b40       ??1?$map@KPAVCClientSock@@U?$less@K@std@@V?$allocator@U?$pair@$$CBKPAVCClientSock@@@std@@@3@@std@@QAE@XZ 00416b40 f i serversock.obj
 0001:00015b70       ??0?$map@KPAVCClientSock@@U?$less@K@std@@V?$allocator@U?$pair@$$CBKPAVCClientSock@@@std@@@3@@std@@QAE@XZ 00416b70 f i serversock.obj
 0001:00015ba0       ??0CMapChild@@QAE@XZ       00416ba0 f i serversock.obj
 0001:00015bf0       ??1CMapChild@@UAE@XZ       00416bf0 f i serversock.obj
 0001:00015c40       ??_GCMapChild@@UAEPAXI@Z   00416c40 f i serversock.obj
 0001:00015c40       ??_ECMapChild@@UAEPAXI@Z   00416c40 f i serversock.obj
 0001:00015c60       ??0CServerSock@@QAE@K@Z    00416c60 f   serversock.obj
 0001:00015d00       ?SetProtocolId@CSock@@UAEXK@Z 00416d00 f i serversock.obj
 0001:00015d10       ?Get@CServerSock@@UAEPAVCSock@@I@Z 00416d10 f i serversock.obj
 0001:00015d50       ??1CServerSock@@UAE@XZ     00416d50 f   serversock.obj
 0001:00015df0       ??_ECServerSock@@UAEPAXI@Z 00416df0 f i serversock.obj
 0001:00015df0       ??_GCServerSock@@UAEPAXI@Z 00416df0 f i serversock.obj
 0001:00015e10       ?AddChild@CServerSock@@QAEPAVCClientSock@@I@Z 00416e10 f   serversock.obj
 0001:00015ee0       ?AllocAndAssoc@CServerSock@@QAEHIK@Z 00416ee0 f   serversock.obj
 0001:00015f50       ?GetListenHandle@CServerSockE@@QAEPAXXZ 00416f50 f i serversocke.obj
 0001:00015f60       ?GetCloseHandle@CServerSockE@@QAEPAXXZ 00416f60 f i serversocke.obj
 0001:00015f70       ?Listen@CServerSockE@@QAEHXZ 00416f70 f   serversocke.obj
 0001:00015fb0       ?Shutdown@CServerSockE@@UAEHI@Z 00416fb0 f   serversocke.obj
 0001:00015fc0       ?GetPeerAddr@CServerSockE@@UAEJKPAXPAK@Z 00416fc0 f   serversocke.obj
 0001:00016080       ??0?$pair@$$CBKPAVCClientSockE@@@std@@QAE@ABKABQAVCClientSockE@@@Z 00417080 f i serversocke.obj
 0001:000160a0       ?_Color@?$_Tree@V?$_Tmap_traits@KPAVCClientSockE@@U?$less@K@std@@V?$allocator@U?$pair@$$CBKPAVCClientSockE@@@std@@@3@$0A@@std@@@std@@KAAADPAU_Node@?$_Tree_nod@V?$_Tmap_traits@KPAVCClientSockE@@U?$less@K@std@@V?$allocator@U?$pair@$$CBKPAVCClientSockE@@@std@@@3@$0A@@std@@@2@@Z 004170a0 f i serversocke.obj
 0001:000160b0       ?_Isnil@?$_Tree@V?$_Tmap_traits@KPAVCClientSockE@@U?$less@K@std@@V?$allocator@U?$pair@$$CBKPAVCClientSockE@@@std@@@3@$0A@@std@@@std@@KAAADPAU_Node@?$_Tree_nod@V?$_Tmap_traits@KPAVCClientSockE@@U?$less@K@std@@V?$allocator@U?$pair@$$CBKPAVCClientSockE@@@std@@@3@$0A@@std@@@2@@Z 004170b0 f i serversocke.obj
 0001:000160c0       ?_Left@?$_Tree@V?$_Tmap_traits@KPAVCClientSockE@@U?$less@K@std@@V?$allocator@U?$pair@$$CBKPAVCClientSockE@@@std@@@3@$0A@@std@@@std@@KAAAPAU_Node@?$_Tree_nod@V?$_Tmap_traits@KPAVCClientSockE@@U?$less@K@std@@V?$allocator@U?$pair@$$CBKPAVCClientSockE@@@std@@@3@$0A@@std@@@2@PAU342@@Z 004170c0 f i serversocke.obj
 0001:000160d0       ?_Parent@?$_Tree@V?$_Tmap_traits@KPAVCClientSockE@@U?$less@K@std@@V?$allocator@U?$pair@$$CBKPAVCClientSockE@@@std@@@3@$0A@@std@@@std@@KAAAPAU_Node@?$_Tree_nod@V?$_Tmap_traits@KPAVCClientSockE@@U?$less@K@std@@V?$allocator@U?$pair@$$CBKPAVCClientSockE@@@std@@@3@$0A@@std@@@2@PAU342@@Z 004170d0 f i serversocke.obj
 0001:000160e0       ?_Right@?$_Tree@V?$_Tmap_traits@KPAVCClientSockE@@U?$less@K@std@@V?$allocator@U?$pair@$$CBKPAVCClientSockE@@@std@@@3@$0A@@std@@@std@@KAAAPAU_Node@?$_Tree_nod@V?$_Tmap_traits@KPAVCClientSockE@@U?$less@K@std@@V?$allocator@U?$pair@$$CBKPAVCClientSockE@@@std@@@3@$0A@@std@@@2@PAU342@@Z 004170e0 f i serversocke.obj
 0001:000160f0       ?_Lmost@?$_Tree@V?$_Tmap_traits@KPAVCClientSockE@@U?$less@K@std@@V?$allocator@U?$pair@$$CBKPAVCClientSockE@@@std@@@3@$0A@@std@@@std@@IAEAAPAU_Node@?$_Tree_nod@V?$_Tmap_traits@KPAVCClientSockE@@U?$less@K@std@@V?$allocator@U?$pair@$$CBKPAVCClientSockE@@@std@@@3@$0A@@std@@@2@XZ 004170f0 f i serversocke.obj
 0001:00016100       ?_Max@?$_Tree@V?$_Tmap_traits@KPAVCClientSockE@@U?$less@K@std@@V?$allocator@U?$pair@$$CBKPAVCClientSockE@@@std@@@3@$0A@@std@@@std@@KAPAU_Node@?$_Tree_nod@V?$_Tmap_traits@KPAVCClientSockE@@U?$less@K@std@@V?$allocator@U?$pair@$$CBKPAVCClientSockE@@@std@@@3@$0A@@std@@@2@PAU342@@Z 00417100 f i serversocke.obj
 0001:00016120       ?_Min@?$_Tree@V?$_Tmap_traits@KPAVCClientSockE@@U?$less@K@std@@V?$allocator@U?$pair@$$CBKPAVCClientSockE@@@std@@@3@$0A@@std@@@std@@KAPAU_Node@?$_Tree_nod@V?$_Tmap_traits@KPAVCClientSockE@@U?$less@K@std@@V?$allocator@U?$pair@$$CBKPAVCClientSockE@@@std@@@3@$0A@@std@@@2@PAU342@@Z 00417120 f i serversocke.obj
 0001:00016140       ?_Rmost@?$_Tree@V?$_Tmap_traits@KPAVCClientSockE@@U?$less@K@std@@V?$allocator@U?$pair@$$CBKPAVCClientSockE@@@std@@@3@$0A@@std@@@std@@IAEAAPAU_Node@?$_Tree_nod@V?$_Tmap_traits@KPAVCClientSockE@@U?$less@K@std@@V?$allocator@U?$pair@$$CBKPAVCClientSockE@@@std@@@3@$0A@@std@@@2@XZ 00417140 f i serversocke.obj
 0001:00016150       ?_Root@?$_Tree@V?$_Tmap_traits@KPAVCClientSockE@@U?$less@K@std@@V?$allocator@U?$pair@$$CBKPAVCClientSockE@@@std@@@3@$0A@@std@@@std@@IAEAAPAU_Node@?$_Tree_nod@V?$_Tmap_traits@KPAVCClientSockE@@U?$less@K@std@@V?$allocator@U?$pair@$$CBKPAVCClientSockE@@@std@@@3@$0A@@std@@@2@XZ 00417150 f i serversocke.obj
 0001:00016160       ?_Rrotate@?$_Tree@V?$_Tmap_traits@KPAVCClientSockE@@U?$less@K@std@@V?$allocator@U?$pair@$$CBKPAVCClientSockE@@@std@@@3@$0A@@std@@@std@@IAEXPAU_Node@?$_Tree_nod@V?$_Tmap_traits@KPAVCClientSockE@@U?$less@K@std@@V?$allocator@U?$pair@$$CBKPAVCClientSockE@@@std@@@3@$0A@@std@@@2@@Z 00417160 f i serversocke.obj
 0001:000161c0       ?_Kfn@?$_Tmap_traits@KPAVCClientSockE@@U?$less@K@std@@V?$allocator@U?$pair@$$CBKPAVCClientSockE@@@std@@@3@$0A@@std@@SAABKABU?$pair@$$CBKPAVCClientSockE@@@2@@Z 004171c0 f i serversocke.obj
 0001:000161d0       ??0?$allocator@U?$pair@$$CBKPAVCClientSockE@@@std@@@std@@QAE@XZ 004171d0 f i serversocke.obj
 0001:000161e0       ?deallocate@?$allocator@U_Node@?$_Tree_nod@V?$_Tmap_traits@KPAVCClientSockE@@U?$less@K@std@@V?$allocator@U?$pair@$$CBKPAVCClientSockE@@@std@@@3@$0A@@std@@@std@@@std@@QAEXPAU_Node@?$_Tree_nod@V?$_Tmap_traits@KPAVCClientSockE@@U?$less@K@std@@V?$allocator@U?$pair@$$CBKPAVCClientSockE@@@std@@@3@$0A@@std@@@2@I@Z 004171e0 f i serversocke.obj
 0001:000161f0       ??8const_iterator@?$_Tree@V?$_Tmap_traits@KPAVCClientSockE@@U?$less@K@std@@V?$allocator@U?$pair@$$CBKPAVCClientSockE@@@std@@@3@$0A@@std@@@std@@QBE_NABV012@@Z 004171f0 f i serversocke.obj
 0001:00016200       ?_Mynode@const_iterator@?$_Tree@V?$_Tmap_traits@KPAVCClientSockE@@U?$less@K@std@@V?$allocator@U?$pair@$$CBKPAVCClientSockE@@@std@@@3@$0A@@std@@@std@@QBEPAU_Node@?$_Tree_nod@V?$_Tmap_traits@KPAVCClientSockE@@U?$less@K@std@@V?$allocator@U?$pair@$$CBKPAVCClientSockE@@@std@@@3@$0A@@std@@@3@XZ 00417200 f i serversocke.obj
 0001:00016210       ??0?$pair@Viterator@?$_Tree@V?$_Tmap_traits@KPAVCClientSockE@@U?$less@K@std@@V?$allocator@U?$pair@$$CBKPAVCClientSockE@@@std@@@3@$0A@@std@@@std@@_N@std@@QAE@ABViterator@?$_Tree@V?$_Tmap_traits@KPAVCClientSockE@@U?$less@K@std@@V?$allocator@U?$pair@$$CBKPAVCClientSockE@@@std@@@3@$0A@@std@@@1@AB_N@Z 00417210 f i serversocke.obj
 0001:00016230       ?_Myval@?$_Tree@V?$_Tmap_traits@KPAVCClientSockE@@U?$less@K@std@@V?$allocator@U?$pair@$$CBKPAVCClientSockE@@@std@@@3@$0A@@std@@@std@@KAAAU?$pair@$$CBKPAVCClientSockE@@@2@PAU_Node@?$_Tree_nod@V?$_Tmap_traits@KPAVCClientSockE@@U?$less@K@std@@V?$allocator@U?$pair@$$CBKPAVCClientSockE@@@std@@@3@$0A@@std@@@2@@Z 00417230 f i serversocke.obj
 0001:00016240       ??0?$allocator@U?$pair@$$CBKPAVCClientSockE@@@std@@@std@@QAE@ABV01@@Z 00417240 f i serversocke.obj
 0001:00016250       ??0const_iterator@?$_Tree@V?$_Tmap_traits@KPAVCClientSockE@@U?$less@K@std@@V?$allocator@U?$pair@$$CBKPAVCClientSockE@@@std@@@3@$0A@@std@@@std@@QAE@PAU_Node@?$_Tree_nod@V?$_Tmap_traits@KPAVCClientSockE@@U?$less@K@std@@V?$allocator@U?$pair@$$CBKPAVCClientSockE@@@std@@@3@$0A@@std@@@2@@Z 00417250 f i serversocke.obj
 0001:00016260       ??Dconst_iterator@?$_Tree@V?$_Tmap_traits@KPAVCClientSockE@@U?$less@K@std@@V?$allocator@U?$pair@$$CBKPAVCClientSockE@@@std@@@3@$0A@@std@@@std@@QBEABU?$pair@$$CBKPAVCClientSockE@@@2@XZ 00417260 f i serversocke.obj
 0001:00016270       ?_Inc@const_iterator@?$_Tree@V?$_Tmap_traits@KPAVCClientSockE@@U?$less@K@std@@V?$allocator@U?$pair@$$CBKPAVCClientSockE@@@std@@@3@$0A@@std@@@std@@QAEXXZ 00417270 f i serversocke.obj
 0001:000162d0       ?_Root@?$_Tree@V?$_Tmap_traits@KPAVCClientSockE@@U?$less@K@std@@V?$allocator@U?$pair@$$CBKPAVCClientSockE@@@std@@@3@$0A@@std@@@std@@IBEAAPAU_Node@?$_Tree_nod@V?$_Tmap_traits@KPAVCClientSockE@@U?$less@K@std@@V?$allocator@U?$pair@$$CBKPAVCClientSockE@@@std@@@3@$0A@@std@@@2@XZ 004172d0 f i serversocke.obj
 0001:000162e0       ?max_size@?$allocator@U?$pair@$$CBKPAVCClientSockE@@@std@@@std@@QBEIXZ 004172e0 f i serversocke.obj
 0001:000162f0       ?_Dec@const_iterator@?$_Tree@V?$_Tmap_traits@KPAVCClientSockE@@U?$less@K@std@@V?$allocator@U?$pair@$$CBKPAVCClientSockE@@@std@@@3@$0A@@std@@@std@@QAEXXZ 004172f0 f i serversocke.obj
 0001:00016350       ??0_Node@?$_Tree_nod@V?$_Tmap_traits@KPAVCClientSockE@@U?$less@K@std@@V?$allocator@U?$pair@$$CBKPAVCClientSockE@@@std@@@3@$0A@@std@@@std@@QAE@PAU012@00ABU?$pair@$$CBKPAVCClientSockE@@@2@D@Z 00417350 f i serversocke.obj
 0001:00016390       ??0?$_Tmap_traits@KPAVCClientSockE@@U?$less@K@std@@V?$allocator@U?$pair@$$CBKPAVCClientSockE@@@std@@@3@$0A@@std@@QAE@U?$less@K@1@@Z 00417390 f i serversocke.obj
 0001:000163a0       ??$_Destroy@U_Node@?$_Tree_nod@V?$_Tmap_traits@KPAVCClientSockE@@U?$less@K@std@@V?$allocator@U?$pair@$$CBKPAVCClientSockE@@@std@@@3@$0A@@std@@@std@@@std@@YAXPAU_Node@?$_Tree_nod@V?$_Tmap_traits@KPAVCClientSockE@@U?$less@K@std@@V?$allocator@U?$pair@$$CBKPAVCClientSockE@@@std@@@3@$0A@@std@@@0@@Z 004173a0 f i serversocke.obj
 0001:000163b0       ??$_Destroy@PAU_Node@?$_Tree_nod@V?$_Tmap_traits@KPAVCClientSockE@@U?$less@K@std@@V?$allocator@U?$pair@$$CBKPAVCClientSockE@@@std@@@3@$0A@@std@@@std@@@std@@YAXPAPAU_Node@?$_Tree_nod@V?$_Tmap_traits@KPAVCClientSockE@@U?$less@K@std@@V?$allocator@U?$pair@$$CBKPAVCClientSockE@@@std@@@3@$0A@@std@@@0@@Z 004173b0 f i serversocke.obj
 0001:000163c0       ??$?0U?$pair@$$CBKPAVCClientSockE@@@std@@@?$allocator@PAU_Node@?$_Tree_nod@V?$_Tmap_traits@KPAVCClientSockE@@U?$less@K@std@@V?$allocator@U?$pair@$$CBKPAVCClientSockE@@@std@@@3@$0A@@std@@@std@@@std@@QAE@ABV?$allocator@U?$pair@$$CBKPAVCClientSockE@@@std@@@1@@Z 004173c0 f i serversocke.obj
 0001:000163d0       ??$_Allocate@U_Node@?$_Tree_nod@V?$_Tmap_traits@KPAVCClientSockE@@U?$less@K@std@@V?$allocator@U?$pair@$$CBKPAVCClientSockE@@@std@@@3@$0A@@std@@@std@@@std@@YAPAU_Node@?$_Tree_nod@V?$_Tmap_traits@KPAVCClientSockE@@U?$less@K@std@@V?$allocator@U?$pair@$$CBKPAVCClientSockE@@@std@@@3@$0A@@std@@@0@IPAU120@@Z 004173d0 f i serversocke.obj
 0001:000163f0       ??$?0U?$pair@$$CBKPAVCClientSockE@@@std@@@?$allocator@U_Node@?$_Tree_nod@V?$_Tmap_traits@KPAVCClientSockE@@U?$less@K@std@@V?$allocator@U?$pair@$$CBKPAVCClientSockE@@@std@@@3@$0A@@std@@@std@@@std@@QAE@ABV?$allocator@U?$pair@$$CBKPAVCClientSockE@@@std@@@1@@Z 004173f0 f i serversocke.obj
 0001:00016400       ??$_Construct@PAU_Node@?$_Tree_nod@V?$_Tmap_traits@KPAVCClientSockE@@U?$less@K@std@@V?$allocator@U?$pair@$$CBKPAVCClientSockE@@@std@@@3@$0A@@std@@@std@@PAU123@@std@@YAXPAPAU_Node@?$_Tree_nod@V?$_Tmap_traits@KPAVCClientSockE@@U?$less@K@std@@V?$allocator@U?$pair@$$CBKPAVCClientSockE@@@std@@@3@$0A@@std@@@0@ABQAU120@@Z 00417400 f i serversocke.obj
 0001:00016420       ?Lock@CMapChildE@@QAEXXZ   00417420 f i serversocke.obj
 0001:00016430       ?Unlock@CMapChildE@@QAEXXZ 00417430 f i serversocke.obj
 0001:00016440       ??9const_iterator@?$_Tree@V?$_Tmap_traits@KPAVCClientSockE@@U?$less@K@std@@V?$allocator@U?$pair@$$CBKPAVCClientSockE@@@std@@@3@$0A@@std@@@std@@QBE_NABV012@@Z 00417440 f i serversocke.obj
 0001:00016460       ?_Key@?$_Tree@V?$_Tmap_traits@KPAVCClientSockE@@U?$less@K@std@@V?$allocator@U?$pair@$$CBKPAVCClientSockE@@@std@@@3@$0A@@std@@@std@@KAABKPAU_Node@?$_Tree_nod@V?$_Tmap_traits@KPAVCClientSockE@@U?$less@K@std@@V?$allocator@U?$pair@$$CBKPAVCClientSockE@@@std@@@3@$0A@@std@@@2@@Z 00417460 f i serversocke.obj
 0001:00016470       ?_Lrotate@?$_Tree@V?$_Tmap_traits@KPAVCClientSockE@@U?$less@K@std@@V?$allocator@U?$pair@$$CBKPAVCClientSockE@@@std@@@3@$0A@@std@@@std@@IAEXPAU_Node@?$_Tree_nod@V?$_Tmap_traits@KPAVCClientSockE@@U?$less@K@std@@V?$allocator@U?$pair@$$CBKPAVCClientSockE@@@std@@@3@$0A@@std@@@2@@Z 00417470 f i serversocke.obj
 0001:000164d0       ?destroy@?$allocator@U_Node@?$_Tree_nod@V?$_Tmap_traits@KPAVCClientSockE@@U?$less@K@std@@V?$allocator@U?$pair@$$CBKPAVCClientSockE@@@std@@@3@$0A@@std@@@std@@@std@@QAEXPAU_Node@?$_Tree_nod@V?$_Tmap_traits@KPAVCClientSockE@@U?$less@K@std@@V?$allocator@U?$pair@$$CBKPAVCClientSockE@@@std@@@3@$0A@@std@@@2@@Z 004174d0 f i serversocke.obj
 0001:000164e0       ??0iterator@?$_Tree@V?$_Tmap_traits@KPAVCClientSockE@@U?$less@K@std@@V?$allocator@U?$pair@$$CBKPAVCClientSockE@@@std@@@3@$0A@@std@@@std@@QAE@PAU_Node@?$_Tree_nod@V?$_Tmap_traits@KPAVCClientSockE@@U?$less@K@std@@V?$allocator@U?$pair@$$CBKPAVCClientSockE@@@std@@@3@$0A@@std@@@2@@Z 004174e0 f i serversocke.obj
 0001:000164f0       ??Diterator@?$_Tree@V?$_Tmap_traits@KPAVCClientSockE@@U?$less@K@std@@V?$allocator@U?$pair@$$CBKPAVCClientSockE@@@std@@@3@$0A@@std@@@std@@QBEAAU?$pair@$$CBKPAVCClientSockE@@@2@XZ 004174f0 f i serversocke.obj
 0001:00016500       ??Econst_iterator@?$_Tree@V?$_Tmap_traits@KPAVCClientSockE@@U?$less@K@std@@V?$allocator@U?$pair@$$CBKPAVCClientSockE@@@std@@@3@$0A@@std@@@std@@QAEAAV012@XZ 00417500 f i serversocke.obj
 0001:00016510       ?max_size@?$_Tree@V?$_Tmap_traits@KPAVCClientSockE@@U?$less@K@std@@V?$allocator@U?$pair@$$CBKPAVCClientSockE@@@std@@@3@$0A@@std@@@std@@QBEIXZ 00417510 f i serversocke.obj
 0001:00016520       ?_Lbound@?$_Tree@V?$_Tmap_traits@KPAVCClientSockE@@U?$less@K@std@@V?$allocator@U?$pair@$$CBKPAVCClientSockE@@@std@@@3@$0A@@std@@@std@@IBEPAU_Node@?$_Tree_nod@V?$_Tmap_traits@KPAVCClientSockE@@U?$less@K@std@@V?$allocator@U?$pair@$$CBKPAVCClientSockE@@@std@@@3@$0A@@std@@@2@ABK@Z 00417520 f i serversocke.obj
 0001:00016550       ?destroy@?$allocator@PAU_Node@?$_Tree_nod@V?$_Tmap_traits@KPAVCClientSockE@@U?$less@K@std@@V?$allocator@U?$pair@$$CBKPAVCClientSockE@@@std@@@3@$0A@@std@@@std@@@std@@QAEXPAPAU_Node@?$_Tree_nod@V?$_Tmap_traits@KPAVCClientSockE@@U?$less@K@std@@V?$allocator@U?$pair@$$CBKPAVCClientSockE@@@std@@@3@$0A@@std@@@2@@Z 00417550 f i serversocke.obj
 0001:00016560       ??Fconst_iterator@?$_Tree@V?$_Tmap_traits@KPAVCClientSockE@@U?$less@K@std@@V?$allocator@U?$pair@$$CBKPAVCClientSockE@@@std@@@3@$0A@@std@@@std@@QAEAAV012@XZ 00417560 f i serversocke.obj
 0001:00016570       ?allocate@?$allocator@U_Node@?$_Tree_nod@V?$_Tmap_traits@KPAVCClientSockE@@U?$less@K@std@@V?$allocator@U?$pair@$$CBKPAVCClientSockE@@@std@@@3@$0A@@std@@@std@@@std@@QAEPAU_Node@?$_Tree_nod@V?$_Tmap_traits@KPAVCClientSockE@@U?$less@K@std@@V?$allocator@U?$pair@$$CBKPAVCClientSockE@@@std@@@3@$0A@@std@@@2@I@Z 00417570 f i serversocke.obj
 0001:00016590       ??0?$_Tree_nod@V?$_Tmap_traits@KPAVCClientSockE@@U?$less@K@std@@V?$allocator@U?$pair@$$CBKPAVCClientSockE@@@std@@@3@$0A@@std@@@std@@IAE@ABU?$less@K@1@V?$allocator@U?$pair@$$CBKPAVCClientSockE@@@std@@@1@@Z 00417590 f i serversocke.obj
 0001:000165a0       ?construct@?$allocator@PAU_Node@?$_Tree_nod@V?$_Tmap_traits@KPAVCClientSockE@@U?$less@K@std@@V?$allocator@U?$pair@$$CBKPAVCClientSockE@@@std@@@3@$0A@@std@@@std@@@std@@QAEXPAPAU_Node@?$_Tree_nod@V?$_Tmap_traits@KPAVCClientSockE@@U?$less@K@std@@V?$allocator@U?$pair@$$CBKPAVCClientSockE@@@std@@@3@$0A@@std@@@2@ABQAU342@@Z 004175a0 f i serversocke.obj
 0001:000165c0       ?begin@?$_Tree@V?$_Tmap_traits@KPAVCClientSockE@@U?$less@K@std@@V?$allocator@U?$pair@$$CBKPAVCClientSockE@@@std@@@3@$0A@@std@@@std@@QAE?AViterator@12@XZ 004175c0 f i serversocke.obj
 0001:000165d0       ?end@?$_Tree@V?$_Tmap_traits@KPAVCClientSockE@@U?$less@K@std@@V?$allocator@U?$pair@$$CBKPAVCClientSockE@@@std@@@3@$0A@@std@@@std@@QAE?AViterator@12@XZ 004175d0 f i serversocke.obj
 0001:000165e0       ??Citerator@?$_Tree@V?$_Tmap_traits@KPAVCClientSockE@@U?$less@K@std@@V?$allocator@U?$pair@$$CBKPAVCClientSockE@@@std@@@3@$0A@@std@@@std@@QBEPAU?$pair@$$CBKPAVCClientSockE@@@2@XZ 004175e0 f i serversocke.obj
 0001:000165f0       ??Eiterator@?$_Tree@V?$_Tmap_traits@KPAVCClientSockE@@U?$less@K@std@@V?$allocator@U?$pair@$$CBKPAVCClientSockE@@@std@@@3@$0A@@std@@@std@@QAEAAV012@XZ 004175f0 f i serversocke.obj
 0001:00016600       ?lower_bound@?$_Tree@V?$_Tmap_traits@KPAVCClientSockE@@U?$less@K@std@@V?$allocator@U?$pair@$$CBKPAVCClientSockE@@@std@@@3@$0A@@std@@@std@@QAE?AViterator@12@ABK@Z 00417600 f i serversocke.obj
 0001:00016640       ?_Erase@?$_Tree@V?$_Tmap_traits@KPAVCClientSockE@@U?$less@K@std@@V?$allocator@U?$pair@$$CBKPAVCClientSockE@@@std@@@3@$0A@@std@@@std@@IAEXPAU_Node@?$_Tree_nod@V?$_Tmap_traits@KPAVCClientSockE@@U?$less@K@std@@V?$allocator@U?$pair@$$CBKPAVCClientSockE@@@std@@@3@$0A@@std@@@2@@Z 00417640 f i serversocke.obj
 0001:00016680       ??Fiterator@?$_Tree@V?$_Tmap_traits@KPAVCClientSockE@@U?$less@K@std@@V?$allocator@U?$pair@$$CBKPAVCClientSockE@@@std@@@3@$0A@@std@@@std@@QAEAAV012@XZ 00417680 f i serversocke.obj
 0001:00016690       ?_Buynode@?$_Tree@V?$_Tmap_traits@KPAVCClientSockE@@U?$less@K@std@@V?$allocator@U?$pair@$$CBKPAVCClientSockE@@@std@@@3@$0A@@std@@@std@@IAEPAU_Node@?$_Tree_nod@V?$_Tmap_traits@KPAVCClientSockE@@U?$less@K@std@@V?$allocator@U?$pair@$$CBKPAVCClientSockE@@@std@@@3@$0A@@std@@@2@PAU342@00ABU?$pair@$$CBKPAVCClientSockE@@@2@D@Z 00417690 f i serversocke.obj
 0001:000166d0       ?_Buynode@?$_Tree@V?$_Tmap_traits@KPAVCClientSockE@@U?$less@K@std@@V?$allocator@U?$pair@$$CBKPAVCClientSockE@@@std@@@3@$0A@@std@@@std@@IAEPAU_Node@?$_Tree_nod@V?$_Tmap_traits@KPAVCClientSockE@@U?$less@K@std@@V?$allocator@U?$pair@$$CBKPAVCClientSockE@@@std@@@3@$0A@@std@@@2@XZ 004176d0 f i serversocke.obj
 0001:00016710       ??0?$_Tree_ptr@V?$_Tmap_traits@KPAVCClientSockE@@U?$less@K@std@@V?$allocator@U?$pair@$$CBKPAVCClientSockE@@@std@@@3@$0A@@std@@@std@@IAE@ABU?$less@K@1@V?$allocator@U?$pair@$$CBKPAVCClientSockE@@@std@@@1@@Z 00417710 f i serversocke.obj
 0001:00016720       ??Eiterator@?$_Tree@V?$_Tmap_traits@KPAVCClientSockE@@U?$less@K@std@@V?$allocator@U?$pair@$$CBKPAVCClientSockE@@@std@@@3@$0A@@std@@@std@@QAE?AV012@H@Z 00417720 f i serversocke.obj
 0001:00016740       ?Send@CServerSockE@@UAEXPADKK@Z 00417740 f   serversocke.obj
 0001:00016820       ?clear@?$_Tree@V?$_Tmap_traits@KPAVCClientSockE@@U?$less@K@std@@V?$allocator@U?$pair@$$CBKPAVCClientSockE@@@std@@@3@$0A@@std@@@std@@QAEXXZ 00417820 f i serversocke.obj
 0001:00016850       ?find@?$_Tree@V?$_Tmap_traits@KPAVCClientSockE@@U?$less@K@std@@V?$allocator@U?$pair@$$CBKPAVCClientSockE@@@std@@@3@$0A@@std@@@std@@QAE?AViterator@12@ABK@Z 00417850 f i serversocke.obj
 0001:000168c0       ?_Init@?$_Tree@V?$_Tmap_traits@KPAVCClientSockE@@U?$less@K@std@@V?$allocator@U?$pair@$$CBKPAVCClientSockE@@@std@@@3@$0A@@std@@@std@@IAEXXZ 004178c0 f i serversocke.obj
 0001:000168f0       ??0?$_Tree_val@V?$_Tmap_traits@KPAVCClientSockE@@U?$less@K@std@@V?$allocator@U?$pair@$$CBKPAVCClientSockE@@@std@@@3@$0A@@std@@@std@@IAE@ABU?$less@K@1@V?$allocator@U?$pair@$$CBKPAVCClientSockE@@@std@@@1@@Z 004178f0 f i serversocke.obj
 0001:00016900       ?CloseAllChild@CServerSockE@@QAEXXZ 00417900 f   serversocke.obj
 0001:000169d0       ??0?$_Tree@V?$_Tmap_traits@KPAVCClientSockE@@U?$less@K@std@@V?$allocator@U?$pair@$$CBKPAVCClientSockE@@@std@@@3@$0A@@std@@@std@@QAE@ABU?$less@K@1@ABV?$allocator@U?$pair@$$CBKPAVCClientSockE@@@std@@@1@@Z 004179d0 f i serversocke.obj
 0001:00016a00       ?Close@CServerSockE@@UAEXXZ 00417a00 f   serversocke.obj
 0001:00016a60       ?erase@?$_Tree@V?$_Tmap_traits@KPAVCClientSockE@@U?$less@K@std@@V?$allocator@U?$pair@$$CBKPAVCClientSockE@@@std@@@3@$0A@@std@@@std@@QAE?AViterator@12@V312@@Z 00417a60 f i serversocke.obj
 0001:00016d20       ?_Insert@?$_Tree@V?$_Tmap_traits@KPAVCClientSockE@@U?$less@K@std@@V?$allocator@U?$pair@$$CBKPAVCClientSockE@@@std@@@3@$0A@@std@@@std@@IAE?AViterator@12@_NPAU_Node@?$_Tree_nod@V?$_Tmap_traits@KPAVCClientSockE@@U?$less@K@std@@V?$allocator@U?$pair@$$CBKPAVCClientSockE@@@std@@@3@$0A@@std@@@2@ABU?$pair@$$CBKPAVCClientSockE@@@2@@Z 00417d20 f i serversocke.obj
 0001:00016ed0       ?erase@?$_Tree@V?$_Tmap_traits@KPAVCClientSockE@@U?$less@K@std@@V?$allocator@U?$pair@$$CBKPAVCClientSockE@@@std@@@3@$0A@@std@@@std@@QAE?AViterator@12@V312@0@Z 00417ed0 f i serversocke.obj
 0001:00016f90       ?CloseChild@CServerSockE@@QAEHI@Z 00417f90 f   serversocke.obj
 0001:00017050       ?CloseConnection@CServerSockE@@UAEHI@Z 00418050 f   serversocke.obj
 0001:00017060       ?insert@?$_Tree@V?$_Tmap_traits@KPAVCClientSockE@@U?$less@K@std@@V?$allocator@U?$pair@$$CBKPAVCClientSockE@@@std@@@3@$0A@@std@@@std@@QAE?AU?$pair@Viterator@?$_Tree@V?$_Tmap_traits@KPAVCClientSockE@@U?$less@K@std@@V?$allocator@U?$pair@$$CBKPAVCClientSockE@@@std@@@3@$0A@@std@@@std@@_N@2@ABU?$pair@$$CBKPAVCClientSockE@@@2@@Z 00418060 f i serversocke.obj
 0001:00017120       ?_Tidy@?$_Tree@V?$_Tmap_traits@KPAVCClientSockE@@U?$less@K@std@@V?$allocator@U?$pair@$$CBKPAVCClientSockE@@@std@@@3@$0A@@std@@@std@@IAEXXZ 00418120 f i serversocke.obj
 0001:00017150       ??1?$_Tree@V?$_Tmap_traits@KPAVCClientSockE@@U?$less@K@std@@V?$allocator@U?$pair@$$CBKPAVCClientSockE@@@std@@@3@$0A@@std@@@std@@QAE@XZ 00418150 f i serversocke.obj
 0001:00017180       ??1?$map@KPAVCClientSockE@@U?$less@K@std@@V?$allocator@U?$pair@$$CBKPAVCClientSockE@@@std@@@3@@std@@QAE@XZ 00418180 f i serversocke.obj
 0001:000171b0       ??0?$map@KPAVCClientSockE@@U?$less@K@std@@V?$allocator@U?$pair@$$CBKPAVCClientSockE@@@std@@@3@@std@@QAE@XZ 004181b0 f i serversocke.obj
 0001:000171e0       ??0CMapChildE@@QAE@XZ      004181e0 f i serversocke.obj
 0001:00017230       ??1CMapChildE@@UAE@XZ      00418230 f i serversocke.obj
 0001:00017280       ??_GCMapChildE@@UAEPAXI@Z  00418280 f i serversocke.obj
 0001:00017280       ??_ECMapChildE@@UAEPAXI@Z  00418280 f i serversocke.obj
 0001:000172a0       ??0CServerSockE@@QAE@K@Z   004182a0 f   serversocke.obj
 0001:00017340       ?Get@CServerSockE@@UAEPAVCSock@@I@Z 00418340 f i serversocke.obj
 0001:00017380       ??1CServerSockE@@UAE@XZ    00418380 f   serversocke.obj
 0001:00017420       ??_ECServerSockE@@UAEPAXI@Z 00418420 f i serversocke.obj
 0001:00017420       ??_GCServerSockE@@UAEPAXI@Z 00418420 f i serversocke.obj
 0001:00017440       ?AddChild@CServerSockE@@QAEPAVCClientSockE@@I@Z 00418440 f   serversocke.obj
 0001:00017510       ?ListenThreadE@@YGIPAX@Z   00418510 f   serversocke.obj
 0001:00017640       ?StartServer@CServerSockE@@QAEHPAVCDPSock@@@Z 00418640 f   serversocke.obj
 0001:000176a0       ??0CSock@@QAE@XZ           004186a0 f   sock.obj
 0001:000176c0       ?Clear@CSock@@QAEXXZ       004186c0 f   sock.obj
 0001:000176f0       ?Attach@CSock@@UAEXI@Z     004186f0 f   sock.obj
 0001:00017730       ?Detach@CSock@@UAEXXZ      00418730 f   sock.obj
 0001:00017740       ?GetHostAddr@CSock@@UAEJPAXPAK@Z 00418740 f   sock.obj
 0001:000177f0       ??1CSock@@UAE@XZ           004187f0 f   sock.obj
 0001:00017830       ?Create@CSock@@UAEHGH@Z    00418830 f   sock.obj
 0001:00017940       ??_ECSock@@UAEPAXI@Z       00418940 f i sock.obj
 0001:00017940       ??_GCSock@@UAEPAXI@Z       00418940 f i sock.obj
 0001:00017990       ?_AddErrorMsg@@YAXPBD0@Z   00418990 f   exceptionhandler.obj
 0001:00017a40       ?CrashHandlerExceptionFilter@@YGJPAU_EXCEPTION_POINTERS@@@Z 00418a40 f   exceptionhandler.obj
 0001:00017ca0       ?InitEH@@YAXXZ             00418ca0 f   exceptionhandler.obj
 0001:00017ce0       ?DXUtil_GetDXSDKMediaPathCch@@YAJPADH@Z 00418ce0 f   dxutil.obj
 0001:00017dd0       ?DXUtil_WriteStringRegKey@@YAJPAUHKEY__@@PAD1@Z 00418dd0 f   dxutil.obj
 0001:00017e10       ?DXUtil_ReadIntRegKey@@YAJPAUHKEY__@@PADPAKK@Z 00418e10 f   dxutil.obj
 0001:00017e70       ?DXUtil_WriteIntRegKey@@YAJPAUHKEY__@@PADK@Z 00418e70 f   dxutil.obj
 0001:00017ea0       ?DXUtil_ReadBoolRegKey@@YAJPAUHKEY__@@PADPAHH@Z 00418ea0 f   dxutil.obj
 0001:00017f00       ?DXUtil_WriteBoolRegKey@@YAJPAUHKEY__@@PADH@Z 00418f00 f   dxutil.obj
 0001:00017f30       ?DXUtil_ReadGuidRegKey@@YAJPAUHKEY__@@PADPAU_GUID@@AAU2@@Z 00418f30 f   dxutil.obj
 0001:00017fa0       ?DXUtil_WriteGuidRegKey@@YAJPAUHKEY__@@PADU_GUID@@@Z 00418fa0 f   dxutil.obj
 0001:00018000       ?DXUtil_Timer@@YGMW4TIMER_COMMAND@@@Z 00419000 f   dxutil.obj
 0001:000183d0       __tcsncpy                  004193d0 f i dxutil.obj
 0001:000183e0       __tcsrchr                  004193e0 f i dxutil.obj
 0001:000183f0       ?DXUtil_ConvertAnsiStringToWideCch@@YAJPAGPBDH@Z 004193f0 f   dxutil.obj
 0001:00018440       ?DXUtil_ConvertWideStringToAnsiCch@@YAJPADPBGH@Z 00419440 f   dxutil.obj
 0001:00018490       ?DXUtil_ConvertGenericStringToAnsiCch@@YAJPADPBDH@Z 00419490 f   dxutil.obj
 0001:000184d0       ?DXUtil_ConvertGenericStringToWideCch@@YAJPAGPBDH@Z 004194d0 f   dxutil.obj
 0001:00018500       ?DXUtil_ConvertAnsiStringToGenericCch@@YAJPADPBDH@Z 00419500 f   dxutil.obj
 0001:00018540       ?DXUtil_ConvertWideStringToGenericCch@@YAJPADPBGH@Z 00419540 f   dxutil.obj
 0001:00018570       ?DXUtil_LaunchReadme@@YAXPAUHWND__@@PAD@Z 00419570 f   dxutil.obj
 0001:000188f0       ?DXUtil_Trace@@YAXPADZZ    004198f0 f   dxutil.obj
 0001:00018900       ?DXUtil_ConvertStringToGUID@@YAJPBDPAU_GUID@@@Z 00419900 f   dxutil.obj
 0001:000189c0       ?DXUtil_ConvertGUIDToStringCch@@YAJPBU_GUID@@PADH@Z 004199c0 f   dxutil.obj
 0001:00018a30       ??0CArrayList@@QAE@W4ArrayListType@@I@Z 00419a30 f   dxutil.obj
 0001:00018a60       ??1CArrayList@@QAE@XZ      00419a60 f   dxutil.obj
 0001:00018a70       ?Add@CArrayList@@QAEJPAX@Z 00419a70 f   dxutil.obj
 0001:00018b60       ?Remove@CArrayList@@QAEXI@Z 00419b60 f   dxutil.obj
 0001:00018ba0       ?GetPtr@CArrayList@@QAEPAXI@Z 00419ba0 f   dxutil.obj
 0001:00018bc0       ?Contains@CArrayList@@QAE_NPAX@Z 00419bc0 f   dxutil.obj
 0001:00018c10       ?DXUtil_ConvertAnsiStringToWideCb@@YAJPAGPBDH@Z 00419c10 f   dxutil.obj
 0001:00018c60       ?DXUtil_ConvertWideStringToAnsiCb@@YAJPADPBGH@Z 00419c60 f   dxutil.obj
 0001:00018cb0       ?DXUtil_ConvertGenericStringToAnsiCb@@YAJPADPBDH@Z 00419cb0 f   dxutil.obj
 0001:00018cf0       ?DXUtil_ConvertGenericStringToWideCb@@YAJPAGPBDH@Z 00419cf0 f   dxutil.obj
 0001:00018d30       ?DXUtil_ConvertAnsiStringToGenericCb@@YAJPADPBDH@Z 00419d30 f   dxutil.obj
 0001:00018d70       ?DXUtil_ConvertWideStringToGenericCb@@YAJPADPBGH@Z 00419d70 f   dxutil.obj
 0001:00018da0       ?DXUtil_ConvertGUIDToStringCb@@YAJPBU_GUID@@PADH@Z 00419da0 f   dxutil.obj
 0001:00018db0       ?DXUtil_GetDXSDKMediaPathCb@@YAJPADH@Z 00419db0 f   dxutil.obj
 0001:00018dc0       ?DXUtil_FindMediaFileCch@@YAJPADH0@Z 00419dc0 f   dxutil.obj
 0001:00018f80       ?DXUtil_ReadStringRegKeyCch@@YAJPAUHKEY__@@PAD1K1@Z 00419f80 f   dxutil.obj
 0001:00018fe0       ?DXUtil_ReadStringRegKeyCb@@YAJPAUHKEY__@@PAD1K1@Z 00419fe0 f   dxutil.obj
 0001:00018ff0       ?DXUtil_FindMediaFileCb@@YAJPADH0@Z 00419ff0 f   dxutil.obj
 0001:00019000       ?OUTPUTDEBUGSTRING@@YAXPBDZZ 0041a000 f   debug.obj
 0001:00019070       ?MakeFileNameDate@@YAPBDPBD@Z 0041a070 f   debug.obj
 0001:000192d0       ?DEBUGOUT2@@YAXPBD0@Z      0041a2d0 f   debug.obj
 0001:00019330       ?FILEOUT@@YAXPBD0ZZ        0041a330 f   debug.obj
 0001:00019350       ?WriteLog@@YAXPBDZZ        0041a350 f   debug.obj
 0001:00019370       ?WriteError@@YAXPBDZZ      0041a370 f   debug.obj
 0001:00019390       ?Close@CFileIO@@UAEHXZ     0041a390 f   file.obj
 0001:000193c0       ?Open@CFileIO@@UAEHPBDPAD@Z 0041a3c0 f   file.obj
 0001:000193f0       ?Read@CFileIO@@UAEPAXXZ    0041a3f0 f   file.obj
 0001:00019450       ??0CFileFinder@@QAE@XZ     0041a450 f   file.obj
 0001:00019460       ??1CFileFinder@@QAE@XZ     0041a460 f   file.obj
 0001:00019470       ?WildCmp@CFileFinder@@QAEHPBD0@Z 0041a470 f   file.obj
 0001:00019510       ?FindFirst@CFileFinder@@QAEHPBDPAU_finddata_t@@@Z 0041a510 f   file.obj
 0001:00019540       ?FindNext@CFileFinder@@QAEHPAU_finddata_t@@@Z 0041a540 f   file.obj
 0001:00019560       ?FindClose@CFileFinder@@QAEXXZ 0041a560 f   file.obj
 0001:00019580       ?_mbstowcsz@ATL@@YAHPAGPBDK@Z 0041a580 f i file.obj
 0001:000195d0       ?Write@CFileIO@@QAEIPAXII@Z 0041a5d0 f i file.obj
 0001:000195f0       ?PutWideString@CFileIO@@QAEHPBD@Z 0041a5f0 f   file.obj
 0001:00019690       ?GetTime@CTimer@@QAENXZ    0041a690 f   timer.obj
 0001:000196b0       ?Set@CTimer@@QAEXMH@Z      0041a6b0 f   timer.obj
 0001:000196f0       ?Reset@CTimer@@UAEXXZ      0041a6f0 f   timer.obj
 0001:00019730       ?Over@CTimer@@UAEHXZ       0041a730 f   timer.obj
 0001:00019790       ?GetLeftTime@CTimer@@QAENXZ 0041a790 f   timer.obj
 0001:000197c0       ?GetInterval@CTimer@@QAEMXZ 0041a7c0 f   timer.obj
 0001:000197d0       ??RCTimer@@QAEXXZ          0041a7d0 f   timer.obj
 0001:000197e0       ??RCTimer@@QAEXN@Z         0041a7e0 f   timer.obj
 0001:00019830       ?GetSunPercent@CGameTimer@@QAEHXZ 0041a830 f   timer.obj
 0001:000198b0       ?GetMoonPercent@CGameTimer@@QAEHXZ 0041a8b0 f   timer.obj
 0001:000198c0       ??1CGameTimer@@QAE@XZ      0041a8c0 f   timer.obj
 0001:000198d0       ?SetCurrentTime@CGameTimer@@QAEXN@Z 0041a8d0 f   timer.obj
 0001:00019900       ?GetTickCount@CGameTimer@@QAENXZ 0041a900 f   timer.obj
 0001:00019930       ?SetCurrentTime@CGameTimer@@QAEXHH@Z 0041a930 f   timer.obj
 0001:00019970       ?Compute@CGameTimer@@QAEXXZ 0041a970 f   timer.obj
 0001:000199e0       ?SetTime@CGameTimer@@QAEXHHHH@Z 0041a9e0 f   timer.obj
 0001:00019a00       ?Set@CSkipTimer@@QAEXM@Z   0041aa00 f   timer.obj
 0001:00019a40       ?Over@CSkipTimer@@UAEHXZ   0041aa40 f   timer.obj
 0001:00019ab0       ?IsNeedSkip@CSkipTimer@@QAEHXZ 0041aab0 f   timer.obj
 0001:00019af0       ?Skip@CSkipTimer@@QAEXXZ   0041aaf0 f   timer.obj
 0001:00019b00       ?IsMaxSkip@CSkipTimer@@QAEHXZ 0041ab00 f   timer.obj
 0001:00019b60       ?IsNight@CDate@@QAEHXZ     0041ab60 f   timer.obj
 0001:00019b80       ?GetDay@CDate@@QAEHXZ      0041ab80 f   timer.obj
 0001:00019ba0       ?ComputeShade@CDate@@QAEHH@Z 0041aba0 f   timer.obj
 0001:00019c00       ?GetTimeColor@CDate@@QAEXPAUtagTIMECOLOR@@@Z 0041ac00 f   timer.obj
 0001:00019cb0       ?Process@CDate@@QAEXXZ     0041acb0 f   timer.obj
 0001:00019d30       ?InitFST@@YAXXZ            0041ad30 f   timer.obj
 0001:00019d50       ?SetFrameSkip@@YAXH@Z      0041ad50 f   timer.obj
 0001:00019d80       ?GetFrameSkip@@YAHXZ       0041ad80 f   timer.obj
 0001:00019dd0       ?IsDrawTiming@@YAHXZ       0041add0 f   timer.obj
 0001:00019e30       ?SetFST@@YAXXZ             0041ae30 f   timer.obj
 0001:00019ec0       ??1CSkipTimer@@UAE@XZ      0041aec0 f i timer.obj
 0001:00019ed0       ??0CTimer@@QAE@XZ          0041aed0 f   timer.obj
 0001:00019f10       ??0CTimer@@QAE@M@Z         0041af10 f   timer.obj
 0001:00019f50       ??0CTimer@@QAE@MH@Z        0041af50 f   timer.obj
 0001:00019fa0       ??0CGameTimer@@QAE@XZ      0041afa0 f   timer.obj
 0001:00019ff0       ??0CGameTimer@@QAE@N@Z     0041aff0 f   timer.obj
 0001:0001a040       ??1CDate@@QAE@XZ           0041b040 f   timer.obj
 0001:0001a050       ??0CSkipTimer@@QAE@XZ      0041b050 f i timer.obj
 0001:0001a090       ??_GCSkipTimer@@UAEPAXI@Z  0041b090 f i timer.obj
 0001:0001a090       ??_ECSkipTimer@@UAEPAXI@Z  0041b090 f i timer.obj
 0001:0001a0b0       ??0CDate@@QAE@XZ           0041b0b0 f   timer.obj
 0001:0001a110       ??0CDate@@QAE@HHHHHHH@Z    0041b110 f   timer.obj
 0001:0001a1b0       ?GetCharLen@@YAHPBD@Z      0041b1b0 f   vUtil.obj
 0001:0001a1c0       ?GetStrCut@@YAHPBDPADH@Z   0041b1c0 f   vUtil.obj
 0001:0001a210       ?GetStrLen@@YAHPBD@Z       0041b210 f   vUtil.obj
 0001:0001a250       ?CopyChar@@YAHPBDPAD@Z     0041b250 f   vUtil.obj
 0001:0001a290       ?IsMultiByte@@YAHPBD@Z     0041b290 f   vUtil.obj
 0001:0001a2c0       ?IsHangul@@YAHG@Z          0041b2c0 f   vUtil.obj
 0001:0001a310       ?SetStrNull@@YAXPADH@Z     0041b310 f   vUtil.obj
 0001:0001a370       ?AddRef@CStringData@ATL@@QAEXXZ 0041b370 f i vUtil.obj
 0001:0001a380       ?isdigit2@@YAHD@Z          0041b380 f i vUtil.obj
 0001:0001a3a0       ?IsNative@@YAHPBD@Z        0041b3a0 f   vUtil.obj
 0001:0001a460       ?GetManager@?$CSimpleStringT@D$0A@@ATL@@QBEPAUIAtlStringMgr@2@XZ 0041b460 f i vUtil.obj
 0001:0001a470       ??0?$CSimpleStringT@D$0A@@ATL@@QAE@PBDHPAUIAtlStringMgr@1@@Z 0041b470 f i vUtil.obj
 0001:0001a4e0       ?CloneData@?$CSimpleStringT@D$0A@@ATL@@CAPAUCStringData@2@PAU32@@Z 0041b4e0 f i vUtil.obj
 0001:0001a540       ??A?$CSimpleStringT@D$0A@@ATL@@QBEDH@Z 0041b540 f i vUtil.obj
 0001:0001a560       ??0?$CStringT@DV?$StrTraitMFC@DV?$ChTraitsCRT@D@ATL@@@@@ATL@@QAE@PBDHPAUIAtlStringMgr@1@@Z 0041b560 f i vUtil.obj
 0001:0001a580       ??0?$CSimpleStringT@D$0A@@ATL@@QAE@ABV01@@Z 0041b580 f i vUtil.obj
 0001:0001a5a0       ??0?$CStringT@DV?$StrTraitMFC@DV?$ChTraitsCRT@D@ATL@@@@@ATL@@QAE@ABV01@@Z 0041b5a0 f i vUtil.obj
 0001:0001a5c0       ?Left@?$CStringT@DV?$StrTraitMFC@DV?$ChTraitsCRT@D@ATL@@@@@ATL@@QBE?AV12@H@Z 0041b5c0 f i vUtil.obj
 0001:0001a620       ??4?$CSimpleStringT@D$0A@@ATL@@QAEAAV01@ABV01@@Z 0041b620 f i vUtil.obj
 0001:0001a690       ??4?$CStringT@DV?$StrTraitMFC@DV?$ChTraitsCRT@D@ATL@@@@@ATL@@QAEAAV01@ABV01@@Z 0041b690 f i vUtil.obj
 0001:0001a6b0       ?SetStrNull@@YAXAAV?$CStringT@DV?$StrTraitMFC@DV?$ChTraitsCRT@D@ATL@@@@@ATL@@H@Z 0041b6b0 f   vUtil.obj
 0001:0001a7a0       ?xRandomF@@YAMM@Z          0041b7a0 f   xutil.obj
 0001:0001a7c0       ?xSRand@@YAXK@Z            0041b7c0 f   xutil.obj
 0001:0001a7d0       ?Error@@YAPBDPBDZZ         0041b7d0 f   xutil.obj
 0001:0001a890       ?GetFileName@@YAXPBDPAD@Z  0041b890 f   xutil.obj
 0001:0001a8e0       ?GetFileTitle@@YAXPBDPAD@Z 0041b8e0 f   xutil.obj
 0001:0001a920       ?GetFileExt@@YAXPBDPAD@Z   0041b920 f   xutil.obj
 0001:0001a960       ?GetFilePath@@YAXPBDPAD@Z  0041b960 f   xutil.obj
 0001:0001a9b0       ?StringFind@@YAHPBDH@Z     0041b9b0 f   xutil.obj
 0001:0001a9d0       ?MakeEven@@YAXAAJ@Z        0041b9d0 f   xutil.obj
 0001:0001a9e0       ?SetLanguageInfo@@YAXHH@Z  0041b9e0 f   xutil.obj
 0001:0001aa00       ?GetLanguage@@YAHXZ        0041ba00 f   xutil.obj
 0001:0001aa10       ?GetSubLanguage@@YAHXZ     0041ba10 f   xutil.obj
 0001:0001aa20       ?SetUse2ndPassWord@@YAXH@Z 0041ba20 f   xutil.obj
 0001:0001aa30       ?IsUse2ndPassWord@@YAHXZ   0041ba30 f   xutil.obj
 0001:0001aa40       __tcsinc                   0041ba40 f i xutil.obj
 0001:0001aa50       ?xRand@@YAKXZ              0041ba50 f i xutil.obj
 0001:0001aa70       ?xRandom@@YAKK@Z           0041ba70 f i xutil.obj
 0001:0001aa90       ?xRandom@@YAKKK@Z          0041ba90 f   xutil.obj
 0001:0001aad0       ?StringTrimRight@@YAXPAD@Z 0041bad0 f   xutil.obj
 0001:0001ab20       ?Insert@?$CStringT@DV?$StrTraitMFC@DV?$ChTraitsCRT@D@ATL@@@@@ATL@@QAEHHD@Z 0041bb20 f i xutil.obj
 0001:0001aba0       ?GetNumberFormatEx@@YA?AV?$CStringT@DV?$StrTraitMFC@DV?$ChTraitsCRT@D@ATL@@@@@ATL@@PBD@Z 0041bba0 f   xutil.obj
 0001:0001ada0       ?iswhite@@YAHG@Z           0041bda0 f i scanner.obj
 0001:0001adc0       ?isdelim@@YAHG@Z           0041bdc0 f i scanner.obj
 0001:0001ae00       ?IsComposibleTh@@YA_NEEH@Z 0041be00 f   scanner.obj
 0001:0001ae40       ?CharNextTh@@YAPBDPBD@Z    0041be40 f   scanner.obj
 0001:0001aeb0       ?CharNextVt@@YAPBDPBD@Z    0041beb0 f   scanner.obj
 0001:0001af10       ?CharNextEx@@YAPBDPBDG@Z   0041bf10 f   scanner.obj
 0001:0001af60       ?IsTone@@YAHG@Z            0041bf60 f   scanner.obj
 0001:0001af90       ?ComposeTone@@YAGGH@Z      0041bf90 f   scanner.obj
 0001:0001afd0       ?GetTone@@YA_NGPAH0@Z      0041bfd0 f   scanner.obj
 0001:0001b030       ?ComposeString@@YAXPAG0H@Z 0041c030 f   scanner.obj
 0001:0001b0b0       ?DecomposeString@@YAXPAG0H@Z 0041c0b0 f   scanner.obj
 0001:0001b130       ?IsCyrillic@@YAHD@Z        0041c130 f   scanner.obj
 0001:0001b150       ?WideCharToMultiByteEx@@YAHIKPBGHPADHPBDPAH@Z 0041c150 f   scanner.obj
 0001:0001b250       ?MultiByteToWideCharEx@@YAHIKPBDHPAGH@Z 0041c250 f   scanner.obj
 0001:0001b2f0       ?Free@CScanner@@QAEXXZ     0041c2f0 f   scanner.obj
 0001:0001b320       ?Read@CScanner@@IAEHPAVCFileIO@@H@Z 0041c320 f   scanner.obj
 0001:0001b3e0       ?SetProg@CScanner@@QAEXPAX@Z 0041c3e0 f   scanner.obj
 0001:0001b400       ?GetLineNum@CScanner@@UAEHPAX@Z 0041c400 f   scanner.obj
 0001:0001b430       ?PutBack@CScanner@@UAEXXZ  0041c430 f   scanner.obj
 0001:0001b460       ?StringLowercase@?$ChTraitsCRT@D@ATL@@SAPADPAD@Z 0041c460 f i scanner.obj
 0001:0001b470       ??0CFileIO@@QAE@XZ         0041c470 f i scanner.obj
 0001:0001b480       ??1CFileIO@@UAE@XZ         0041c480 f i scanner.obj
 0001:0001b490       ?Flush@CFileIO@@UAEHXZ     0041c490 f i scanner.obj
 0001:0001b4a0       ?GetC@CFileIO@@UAEDXZ      0041c4a0 f i scanner.obj
 0001:0001b4b0       ?GetW@CFileIO@@UAEGXZ      0041c4b0 f i scanner.obj
 0001:0001b4c0       ?GetDW@CFileIO@@UAEKXZ     0041c4c0 f i scanner.obj
 0001:0001b4e0       ?Tell@CFileIO@@UAEJXZ      0041c4e0 f i scanner.obj
 0001:0001b4f0       ?Seek@CFileIO@@UAEHJH@Z    0041c4f0 f i scanner.obj
 0001:0001b510       ?Read@CFileIO@@UAEIPAXII@Z 0041c510 f i scanner.obj
 0001:0001b530       ??_ECFileIO@@UAEPAXI@Z     0041c530 f i scanner.obj
 0001:0001b530       ??_GCFileIO@@UAEPAXI@Z     0041c530 f i scanner.obj
 0001:0001b560       ?GetFormattedLength@?$ChTraitsCRT@D@ATL@@SAHPBDPAD@Z 0041c560 f i scanner.obj
 0001:0001b570       ?Format@?$ChTraitsCRT@D@ATL@@SAHPADPBD0@Z 0041c570 f i scanner.obj
 0001:0001b580       ?GetLength@CFileIO@@UAEJXZ 0041c580 f i scanner.obj
 0001:0001b5a0       ?IsEmpty@?$CSimpleStringT@D$0A@@ATL@@QBE_NXZ 0041c5a0 f i scanner.obj
 0001:0001b5b0       ??0CScanner@@QAE@H@Z       0041c5b0 f   scanner.obj
 0001:0001b620       ?SetMark@CScanner@@UAEXXZ  0041c620 f i scanner.obj
 0001:0001b630       ?GoMark@CScanner@@UAEXXZ   0041c630 f i scanner.obj
 0001:0001b640       ??0CScanner@@QAE@PAXH@Z    0041c640 f   scanner.obj
 0001:0001b6b0       ??1CScanner@@UAE@XZ        0041c6b0 f   scanner.obj
 0001:0001b720       ?GetInt64@CScanner@@QAE_JH@Z 0041c720 f   scanner.obj
 0001:0001b7f0       ?GetFloat@CScanner@@QAEMH@Z 0041c7f0 f   scanner.obj
 0001:0001b890       ??_GCScanner@@UAEPAXI@Z    0041c890 f i scanner.obj
 0001:0001b890       ??_ECScanner@@UAEPAXI@Z    0041c890 f i scanner.obj
 0001:0001b8b0       ?MakeLower@?$CStringT@DV?$StrTraitMFC@DV?$ChTraitsCRT@D@ATL@@@@@ATL@@QAEAAV12@XZ 0041c8b0 f i scanner.obj
 0001:0001b910       ?FormatV@?$CStringT@DV?$StrTraitMFC@DV?$ChTraitsCRT@D@ATL@@@@@ATL@@QAEXPBDPAD@Z 0041c910 f i scanner.obj
 0001:0001b990       ?GetNumber@CScanner@@QAEHH@Z 0041c990 f   scanner.obj
 0001:0001bae0       ?GetHex@CScanner@@QAEKH@Z  0041cae0 f   scanner.obj
 0001:0001bb90       ?GetSerialNumber@CScanner@@QAEKH@Z 0041cb90 f   scanner.obj
 0001:0001bba0       ?Format@?$CStringT@DV?$StrTraitMFC@DV?$ChTraitsCRT@D@ATL@@@@@ATL@@QAAXPBDZZ 0041cba0 f i scanner.obj
 0001:0001bbc0       ?GetLastFull@CScanner@@QAEXXZ 0041cbc0 f   scanner.obj
 0001:0001bc70       ?GetToken@CScanner@@UAEHH@Z 0041cc70 f   scanner.obj
 0001:0001c370       ?Load@CScanner@@QAEHPBDH@Z 0041d370 f   scanner.obj
 0001:0001c4b0       ?Load_FileIO@CScanner@@QAEHPBDH@Z 0041d4b0 f   scanner.obj
 0001:0001c5e8       _ntohs@4                   0041d5e8 f   ws2_32:WS2_32.dll
 0001:0001c5ee       _htons@4                   0041d5ee f   ws2_32:WS2_32.dll
 0001:0001c5f4       _closesocket@4             0041d5f4 f   ws2_32:WS2_32.dll
 0001:0001c5fa       _shutdown@8                0041d5fa f   ws2_32:WS2_32.dll
 0001:0001c600       _WSASetLastError@4         0041d600 f   ws2_32:WS2_32.dll
 0001:0001c606       _WSAGetLastError@0         0041d606 f   ws2_32:WS2_32.dll
 0001:0001c60c       _connect@12                0041d60c f   ws2_32:WS2_32.dll
 0001:0001c612       _gethostbyname@4           0041d612 f   ws2_32:WS2_32.dll
 0001:0001c618       _inet_addr@4               0041d618 f   ws2_32:WS2_32.dll
 0001:0001c61e       _WSARecv@28                0041d61e f   ws2_32:WS2_32.dll
 0001:0001c624       _getpeername@12            0041d624 f   ws2_32:WS2_32.dll
 0001:0001c62a       _WSASend@28                0041d62a f   ws2_32:WS2_32.dll
 0001:0001c630       _WSACloseEvent@4           0041d630 f   ws2_32:WS2_32.dll
 0001:0001c636       _WSACreateEvent@0          0041d636 f   ws2_32:WS2_32.dll
 0001:0001c63c       _WSAStartup@8              0041d63c f   ws2_32:WS2_32.dll
 0001:0001c642       _socket@12                 0041d642 f   ws2_32:WS2_32.dll
 0001:0001c648       _WSACleanup@0              0041d648 f   ws2_32:WS2_32.dll
 0001:0001c64e       _WSAResetEvent@4           0041d64e f   ws2_32:WS2_32.dll
 0001:0001c654       _WSAWaitForMultipleEvents@20 0041d654 f   ws2_32:WS2_32.dll
 0001:0001c65a       _WSASetEvent@4             0041d65a f   ws2_32:WS2_32.dll
 0001:0001c660       _setsockopt@20             0041d660 f   ws2_32:WS2_32.dll
 0001:0001c666       _listen@8                  0041d666 f   ws2_32:WS2_32.dll
 0001:0001c66c       _WSAEventSelect@12         0041d66c f   ws2_32:WS2_32.dll
 0001:0001c672       _WSAAccept@20              0041d672 f   ws2_32:WS2_32.dll
 0001:0001c678       _WSAEnumNetworkEvents@12   0041d678 f   ws2_32:WS2_32.dll
 0001:0001c67e       _gethostname@8             0041d67e f   ws2_32:WS2_32.dll
 0001:0001c684       _bind@12                   0041d684 f   ws2_32:WS2_32.dll
 0001:0001c68a       _htonl@4                   0041d68a f   ws2_32:WS2_32.dll
 0001:0001c690       _WSASocketA@24             0041d690 f   ws2_32:WS2_32.dll
 0001:0001c696       _timeGetTime@0             0041d696 f   winmm:WINMM.dll
 0001:0001c6d0       _InitGameguardAuth         0041d6d0 f   ggsrvlib26_MT:ggsrv.obj
 0001:0001cbf0       _CleanupGameguardAuth      0041dbf0 f   ggsrvlib26_MT:ggsrv.obj
 0001:0001cca0       _GGAuthUpdateTimer         0041dca0 f   ggsrvlib26_MT:ggsrv.obj
 0001:0001cd20       _AddAuthProtocol           0041dd20 f   ggsrvlib26_MT:ggsrv.obj
 0001:0001cd90       _SetGGVerLimit             0041dd90 f   ggsrvlib26_MT:ggsrv.obj
 0001:0001ced0       _SetUpdateCondition        0041ded0 f   ggsrvlib26_MT:ggsrv.obj
 0001:0001cf00       _CheckCSAuth               0041df00 f   ggsrvlib26_MT:ggsrv.obj
 0001:0001cf30       ?LoadAuthProtocol@@YAIPADH@Z 0041df30 f   ggsrvlib26_MT:ggsrv.obj
 0001:0001d350       ?UnloadAuthProtocol@@YAIPAU_GG_AUTH_PROTOCOL@@@Z 0041e350 f   ggsrvlib26_MT:ggsrv.obj
 0001:0001d400       ?IsValidGGVer@@YA_NPAU_GG_VERSION@@@Z 0041e400 f   ggsrvlib26_MT:ggsrv.obj
 0001:0001d460       ?IsValidGGVer2@@YA_NK@Z    0041e460 f   ggsrvlib26_MT:ggsrv.obj
 0001:0001d4d0       ?UpdateUniqValHashTable@@YA_N_NKKK@Z 0041e4d0 f   ggsrvlib26_MT:ggsrv.obj
 0001:0001d620       ?UpdateGGVersion@@YAII@Z   0041e620 f   ggsrvlib26_MT:ggsrv.obj
 0001:0001dd90       ?UpdateProtocol@@YAIPAU_GG_AUTH_PROTOCOL@@@Z 0041ed90 f   ggsrvlib26_MT:ggsrv.obj
 0001:0001e5a0       ??0CCSAuth2@@QAE@XZ        0041f5a0 f   ggsrvlib26_MT:ggsrv.obj
 0001:0001e5b0       ??1CCSAuth2@@QAE@XZ        0041f5b0 f   ggsrvlib26_MT:ggsrv.obj
 0001:0001e5c0       ?Init@CCSAuth2@@QAEXXZ     0041f5c0 f   ggsrvlib26_MT:ggsrv.obj
 0001:0001e6b0       ?AllowOldVersion@CCSAuth2@@QAEXXZ 0041f6b0 f   ggsrvlib26_MT:ggsrv.obj
 0001:0001e6c0       ?Close@CCSAuth2@@QAEXXZ    0041f6c0 f   ggsrvlib26_MT:ggsrv.obj
 0001:0001e780       ?GetAuthQuery@CCSAuth2@@QAEIXZ 0041f780 f   ggsrvlib26_MT:ggsrv.obj
 0001:0001e930       ?CheckAuthAnswer@CCSAuth2@@QAEIXZ 0041f930 f   ggsrvlib26_MT:ggsrv.obj
 0001:0001f040       ?CheckUserCSAuth@CCSAuth2@@QAEI_N@Z 00420040 f   ggsrvlib26_MT:ggsrv.obj
 0001:0001f070       ?GetCSAuthState@CCSAuth2@@QAEIPAU_GG_CSAUTH_STATE@@@Z 00420070 f   ggsrvlib26_MT:ggsrv.obj
 0001:0001f0a0       ?SetCSAuthState@CCSAuth2@@QAEIPAU_GG_CSAUTH_STATE@@@Z 004200a0 f   ggsrvlib26_MT:ggsrv.obj
 0001:0001f170       ?Info@CCSAuth2@@QAEHPADH@Z 00420170 f   ggsrvlib26_MT:ggsrv.obj
 0001:0001f200       ?CheckUpdated@CCSAuth2@@QAEHXZ 00420200 f   ggsrvlib26_MT:ggsrv.obj
 0001:0001f250       _ModuleInfo                00420250 f   ggsrvlib26_MT:ggsrv.obj
 0001:0001f370       ?GGAuthCreateUser@@YAPAXXZ 00420370 f   ggsrvlib26_MT:ggsrv.obj
 0001:0001f3d0       ?GGAuthDeleteUser@@YAIPAX@Z 004203d0 f   ggsrvlib26_MT:ggsrv.obj
 0001:0001f3f0       ?GGAuthInitUser@@YAIPAX@Z  004203f0 f   ggsrvlib26_MT:ggsrv.obj
 0001:0001f410       ?GGAuthCloseUser@@YAIPAX@Z 00420410 f   ggsrvlib26_MT:ggsrv.obj
 0001:0001f430       ?GGAuthGetQuery@@YAIPAXPAU_GG_AUTH_DATA@@@Z 00420430 f   ggsrvlib26_MT:ggsrv.obj
 0001:0001f470       ?GGAuthCheckAnswer@@YAIPAXPAU_GG_AUTH_DATA@@@Z 00420470 f   ggsrvlib26_MT:ggsrv.obj
 0001:0001f4b0       ?GGAuthCheckUserCSAuth@@YAIPAX_N@Z 004204b0 f   ggsrvlib26_MT:ggsrv.obj
 0001:0001f4d0       _GGAuthCheckUpdated        004204d0 f   ggsrvlib26_MT:ggsrv.obj
 0001:0001f4f0       _GGAuthUserInfo            004204f0 f   ggsrvlib26_MT:ggsrv.obj
 0001:0001f520       _GGAuthGetUserValue        00420520 f   ggsrvlib26_MT:ggsrv.obj
 0001:0001f570       _GGAuthGetState            00420570 f   ggsrvlib26_MT:ggsrv.obj
 0001:0001f590       _GGAuthSetState            00420590 f   ggsrvlib26_MT:ggsrv.obj
 0001:0001f5b0       _GGAuthAllowOldVersion     004205b0 f   ggsrvlib26_MT:ggsrv.obj
 0001:0001f5d0       _GGGetCurrentGGVer         004205d0 f   ggsrvlib26_MT:ggsrv.obj
 0001:0001f5e0       ?GGEncryptPacket1@@YAXPAU_GG_AUTH_DATA@@@Z 004205e0 f   ggsrvlib26_MT:ggsrv.obj
 0001:0001f640       ?GGDecryptPacket2@@YAXPAU_GG_AUTH_DATA@@@Z 00420640 f   ggsrvlib26_MT:ggsrv.obj
 0001:0001f6a0       ?Blowfish_Encrypt@@YAXPAUBLOWFISH_CTX@@PAI1@Z 004206a0 f   ggsrvlib26_MT:ggutil.obj
 0001:0001f770       ?Blowfish_Decrypt@@YAXPAUBLOWFISH_CTX@@PAI1@Z 00420770 f   ggsrvlib26_MT:ggutil.obj
 0001:0001f7d0       ?Blowfish_Init@@YAXPAUBLOWFISH_CTX@@PAEH@Z 004207d0 f   ggsrvlib26_MT:ggutil.obj
 0001:0001f8d0       ?GetRandomDword@@YAKXZ     004208d0 f   ggsrvlib26_MT:ggutil.obj
 0001:0001f900       _CloseHandle@4             00420900 f   kernel32:KERNEL32.dll
 0001:0001f906       _WaitForSingleObject@8     00420906 f   kernel32:KERNEL32.dll
 0001:0001f90c       _CreateEventA@16           0042090c f   kernel32:KERNEL32.dll
 0001:0001f912       _EnterCriticalSection@4    00420912 f   kernel32:KERNEL32.dll
 0001:0001f918       _LeaveCriticalSection@4    00420918 f   kernel32:KERNEL32.dll
 0001:0001f91e       _SetEvent@4                0042091e f   kernel32:KERNEL32.dll
 0001:0001f924       _lstrcmpA@8                00420924 f   kernel32:KERNEL32.dll
 0001:0001f92a       _VirtualAlloc@16           0042092a f   kernel32:KERNEL32.dll
 0001:0001f930       _InterlockedExchange@8     00420930 f   kernel32:KERNEL32.dll
 0001:0001f936       _GetACP@0                  00420936 f   kernel32:KERNEL32.dll
 0001:0001f93c       _GetLocaleInfoA@16         0042093c f   kernel32:KERNEL32.dll
 0001:0001f942       _GetThreadLocale@0         00420942 f   kernel32:KERNEL32.dll
 0001:0001f948       _GetVersionExA@4           00420948 f   kernel32:KERNEL32.dll
 0001:0001f94e       _SizeofResource@8          0042094e f   kernel32:KERNEL32.dll
 0001:0001f954       _LockResource@4            00420954 f   kernel32:KERNEL32.dll
 0001:0001f95a       _LoadResource@8            0042095a f   kernel32:KERNEL32.dll
 0001:0001f960       _FindResourceA@12          00420960 f   kernel32:KERNEL32.dll
 0001:0001f966       _WideCharToMultiByte@32    00420966 f   kernel32:KERNEL32.dll
 0001:0001f96c       _DeleteCriticalSection@4   0042096c f   kernel32:KERNEL32.dll
 0001:0001f972       _VirtualFree@12            00420972 f   kernel32:KERNEL32.dll
 0001:0001f978       _MultiByteToWideChar@24    00420978 f   kernel32:KERNEL32.dll
 0001:0001f97e       _GetLastError@0            0042097e f   kernel32:KERNEL32.dll
 0001:0001f984       _GetVersion@0              00420984 f   kernel32:KERNEL32.dll
 0001:0001f98a       _lstrcmpiA@8               0042098a f   kernel32:KERNEL32.dll
 0001:0001f990       _lstrlenW@4                00420990 f   kernel32:KERNEL32.dll
 0001:0001f996       _lstrcmpiW@8               00420996 f   kernel32:KERNEL32.dll
 0001:0001f99c       _lstrlenA@4                0042099c f   kernel32:KERNEL32.dll
 0001:0001f9a2       _CompareStringA@24         004209a2 f   kernel32:KERNEL32.dll
 0001:0001f9a8       _CompareStringW@24         004209a8 f   kernel32:KERNEL32.dll
 0001:0001f9ae       _GetEnvironmentVariableA@12 004209ae f   kernel32:KERNEL32.dll
 0001:0001f9b4       _GetEnvironmentVariableW@12 004209b4 f   kernel32:KERNEL32.dll
 0001:0001f9ba       _GetStringTypeExA@20       004209ba f   kernel32:KERNEL32.dll
 0001:0001f9c0       _GetStringTypeExW@20       004209c0 f   kernel32:KERNEL32.dll
 0001:0001f9c6       _TerminateProcess@8        004209c6 f   kernel32:KERNEL32.dll
 0001:0001f9cc       _GetExitCodeProcess@8      004209cc f   kernel32:KERNEL32.dll
 0001:0001f9d2       _OpenProcess@12            004209d2 f   kernel32:KERNEL32.dll
 0001:0001f9d8       _Process32Next@8           004209d8 f   kernel32:KERNEL32.dll
 0001:0001f9de       _Process32First@8          004209de f   kernel32:KERNEL32.dll
 0001:0001f9e4       _CreateToolhelp32Snapshot@8 004209e4 f   kernel32:KERNEL32.dll
 0001:0001f9ea       _InitializeCriticalSection@4 004209ea f   kernel32:KERNEL32.dll
 0001:0001f9f0       _InitializeCriticalSectionAndSpinCount@8 004209f0 f   kernel32:KERNEL32.dll
 0001:0001f9f6       _GetTickCount@0            004209f6 f   kernel32:KERNEL32.dll
 0001:0001f9fc       _HeapDestroy@4             004209fc f   kernel32:KERNEL32.dll
 0001:0001fa02       _HeapAlloc@12              00420a02 f   kernel32:KERNEL32.dll
 0001:0001fa08       _HeapFree@12               00420a08 f   kernel32:KERNEL32.dll
 0001:0001fa0e       _HeapReAlloc@16            00420a0e f   kernel32:KERNEL32.dll
 0001:0001fa14       _GetSystemInfo@4           00420a14 f   kernel32:KERNEL32.dll
 0001:0001fa1a       _HeapCreate@12             00420a1a f   kernel32:KERNEL32.dll
 0001:0001fa20       _InterlockedDecrement@4    00420a20 f   kernel32:KERNEL32.dll
 0001:0001fa26       _InterlockedIncrement@4    00420a26 f   kernel32:KERNEL32.dll
 0001:0001fa2c       _WaitForMultipleObjects@16 00420a2c f   kernel32:KERNEL32.dll
 0001:0001fa32       _SetThreadPriority@8       00420a32 f   kernel32:KERNEL32.dll
 0001:0001fa38       _GetQueuedCompletionStatus@20 00420a38 f   kernel32:KERNEL32.dll
 0001:0001fa3e       _GetOverlappedResult@16    00420a3e f   kernel32:KERNEL32.dll
 0001:0001fa44       _PostQueuedCompletionStatus@16 00420a44 f   kernel32:KERNEL32.dll
 0001:0001fa4a       _CreateIoCompletionPort@16 00420a4a f   kernel32:KERNEL32.dll
 0001:0001fa50       _SetUnhandledExceptionFilter@4 00420a50 f   kernel32:KERNEL32.dll
 0001:0001fa56       _SetErrorMode@4            00420a56 f   kernel32:KERNEL32.dll
 0001:0001fa5c       _lstrcpyA@8                00420a5c f   kernel32:KERNEL32.dll
 0001:0001fa62       _QueryPerformanceCounter@4 00420a62 f   kernel32:KERNEL32.dll
 0001:0001fa68       _QueryPerformanceFrequency@4 00420a68 f   kernel32:KERNEL32.dll
 0001:0001fa6e       _FreeLibrary@4             00420a6e f   kernel32:KERNEL32.dll
 0001:0001fa74       _GetProcAddress@8          00420a74 f   kernel32:KERNEL32.dll
 0001:0001fa7a       _LoadLibraryA@4            00420a7a f   kernel32:KERNEL32.dll
 0001:0001fa80       _lstrcatA@8                00420a80 f   kernel32:KERNEL32.dll
 0001:0001fa86       _GetModuleFileNameA@12     00420a86 f   kernel32:KERNEL32.dll
 0001:0001fa8c       _GetFileAttributesA@4      00420a8c f   kernel32:KERNEL32.dll
 0001:0001fa92       _CreateFileA@28            00420a92 f   kernel32:KERNEL32.dll
 0001:0001fa98       _lstrcpynA@12              00420a98 f   kernel32:KERNEL32.dll
 0001:0001fa9e       _GetFullPathNameA@16       00420a9e f   kernel32:KERNEL32.dll
 0001:0001faa4       _OutputDebugStringA@4      00420aa4 f   kernel32:KERNEL32.dll
 0001:0001faaa       _GetLocalTime@4            00420aaa f   kernel32:KERNEL32.dll
 0001:0001fab0       _IsDBCSLeadByte@4          00420ab0 f   kernel32:KERNEL32.dll
 0001:0001fab6       _LoadStringA@16            00420ab6 f   user32:USER32.dll
 0001:0001fabc       _DestroyWindow@4           00420abc f   user32:USER32.dll
 0001:0001fac2       _DefWindowProcA@16         00420ac2 f   user32:USER32.dll
 0001:0001fac8       _PostQuitMessage@4         00420ac8 f   user32:USER32.dll
 0001:0001face       _KillTimer@8               00420ace f   user32:USER32.dll
 0001:0001fad4       _EndPaint@8                00420ad4 f   user32:USER32.dll
 0001:0001fada       _BeginPaint@8              00420ada f   user32:USER32.dll
 0001:0001fae0       _RegisterClassExA@4        00420ae0 f   user32:USER32.dll
 0001:0001fae6       _LoadCursorA@8             00420ae6 f   user32:USER32.dll
 0001:0001faec       _LoadIconA@8               00420aec f   user32:USER32.dll
 0001:0001faf2       _MessageBoxA@16            00420af2 f   user32:USER32.dll
 0001:0001faf8       _UpdateWindow@4            00420af8 f   user32:USER32.dll
 0001:0001fafe       _ShowWindow@8              00420afe f   user32:USER32.dll
 0001:0001fb04       _SetWindowPos@28           00420b04 f   user32:USER32.dll
 0001:0001fb0a       _SetTimer@16               00420b0a f   user32:USER32.dll
 0001:0001fb10       _CreateWindowExA@48        00420b10 f   user32:USER32.dll
 0001:0001fb16       _DispatchMessageA@4        00420b16 f   user32:USER32.dll
 0001:0001fb1c       _TranslateMessage@4        00420b1c f   user32:USER32.dll
 0001:0001fb22       _GetMessageA@16            00420b22 f   user32:USER32.dll
 0001:0001fb28       _CharLowerA@4              00420b28 f   user32:USER32.dll
 0001:0001fb2e       _CharLowerW@4              00420b2e f   user32:USER32.dll
 0001:0001fb34       _CharUpperA@4              00420b34 f   user32:USER32.dll
 0001:0001fb3a       _CharUpperW@4              00420b3a f   user32:USER32.dll
 0001:0001fb40       _InvalidateRect@12         00420b40 f   user32:USER32.dll
 0001:0001fb46       _CharNextA@4               00420b46 f   user32:USER32.dll
 0001:0001fb4c       _CharNextExA@12            00420b4c f   user32:USER32.dll
 0001:0001fb52       _CreateFontA@56            00420b52 f   gdi32:GDI32.dll
 0001:0001fb58       _TextOutA@20               00420b58 f   gdi32:GDI32.dll
 0001:0001fb5e       _SetTextColor@8            00420b5e f   gdi32:GDI32.dll
 0001:0001fb64       _SetBkMode@8               00420b64 f   gdi32:GDI32.dll
 0001:0001fb6a       _DeleteObject@4            00420b6a f   gdi32:GDI32.dll
 0001:0001fb70       _SetBkColor@8              00420b70 f   gdi32:GDI32.dll
 0001:0001fb76       _SelectObject@8            00420b76 f   gdi32:GDI32.dll
 0001:0001fb7c       _RegCloseKey@4             00420b7c f   advapi32:ADVAPI32.dll
 0001:0001fb82       _RegQueryValueExA@24       00420b82 f   advapi32:ADVAPI32.dll
 0001:0001fb88       _RegOpenKeyExA@20          00420b88 f   advapi32:ADVAPI32.dll
 0001:0001fb8e       _RegSetValueExA@24         00420b8e f   advapi32:ADVAPI32.dll
 0001:0001fb94       _GetNextStackTraceString@8 00420b94 f   neuzd:NeuzD.dll
 0001:0001fb9a       _GetFirstStackTraceString@8 00420b9a f   neuzd:NeuzD.dll
 0001:0001fba0       _GetRegisterString@4       00420ba0 f   neuzd:NeuzD.dll
 0001:0001fba6       _GetFaultReason@4          00420ba6 f   neuzd:NeuzD.dll
 0001:0001fbac       ?AtlA2WHelper@@YGPA_WPA_WPBDHI@Z 00420bac f i nafxcw:olemisc.obj
 0001:0001fbe3       ?AtlW2AHelper@@YGPADPADPB_WHI@Z 00420be3 f i nafxcw:olemisc.obj
 0001:0001fc1b       ?ocslen@@YAHPB_W@Z         00420c1b f i nafxcw:olemisc.obj
 0001:0001fc26       ?ocscpy@@YAPA_WPA_WPB_W@Z  00420c26 f i nafxcw:olemisc.obj
 0001:0001fc46       ??1CObject@@UAE@XZ         00420c46 f i nafxcw:olemisc.obj
 0001:0001fc47       ??3CObject@@SGXPAX@Z       00420c47 f i nafxcw:olemisc.obj
 0001:0001fc54       ??2CObject@@SGPAXI@Z       00420c54 f i nafxcw:olemisc.obj
 0001:0001fc61       ??1CException@@UAE@XZ      00420c61 f i nafxcw:olemisc.obj
 0001:0001fc62       ?AfxGetAppName@@YGPBDXZ    00420c62 f i nafxcw:olemisc.obj
 0001:0001fc6b       ??0COleException@@QAE@XZ   00420c6b f i nafxcw:olemisc.obj
 0001:0001fc81       ?Serialize@CObject@@UAEXAAVCArchive@@@Z 00420c81 f i nafxcw:olemisc.obj
 0001:0001fc84       ?GetBaseTypeLength@?$ChTraitsCRT@D@ATL@@SAHPB_WH@Z 00420c84 f i nafxcw:olemisc.obj
 0001:0001fca1       ?ConvertToBaseType@?$ChTraitsCRT@D@ATL@@SAXPADHPB_WH@Z 00420ca1 f i nafxcw:olemisc.obj
 0001:0001fcc4       ?AtlDevModeA2W@@YAPAU_devicemodeW@@PAU1@PBU_devicemodeA@@@Z 00420cc4 f i nafxcw:olemisc.obj
 0001:0001fd62       ?AtlDevModeW2A@@YGPAU_devicemodeA@@PAU1@PBU_devicemodeW@@@Z 00420d62 f i nafxcw:olemisc.obj
 0001:0001fe02       ??_GCOleException@@UAEPAXI@Z 00420e02 f i nafxcw:olemisc.obj
 0001:0001fe02       ??_ECOleException@@UAEPAXI@Z 00420e02 f i nafxcw:olemisc.obj
 0001:0001fe1e       ??1COleException@@UAE@XZ   00420e1e f i nafxcw:olemisc.obj
 0001:0001fe25       ?AppendChar@?$CSimpleStringT@D$0A@@ATL@@QAEXD@Z 00420e25 f i nafxcw:olemisc.obj
 0001:0001fe4d       ?Append@?$CSimpleStringT@D$0A@@ATL@@QAEXPBDH@Z 00420e4d f i nafxcw:olemisc.obj
 0001:0001fe99       ??Y?$CSimpleStringT@D$0A@@ATL@@QAEAAV01@D@Z 00420e99 f i nafxcw:olemisc.obj
 0001:0001feab       ??Y?$CStringT@DV?$StrTraitMFC@DV?$ChTraitsCRT@D@ATL@@@@@ATL@@QAEAAV01@D@Z 00420eab f i nafxcw:olemisc.obj
 0001:0001febd       ??0CObject@@IAE@XZ         00420ebd f i nafxcw:except.obj
 0001:0001fec0       ??1CSimpleException@@UAE@XZ 00420ec0 f i nafxcw:except.obj
 0001:0001fec1       ??1CMemoryException@@UAE@XZ 00420ec1 f i nafxcw:except.obj
 0001:0001fec8       ??1CNotSupportedException@@UAE@XZ 00420ec8 f i nafxcw:except.obj
 0001:0001fecf       ??1CInvalidArgException@@UAE@XZ 00420ecf f i nafxcw:except.obj
 0001:0001fed6       ??0CSimpleException@@QAE@H@Z 00420ed6 f i nafxcw:except.obj
 0001:0001feee       ??_ECMemoryException@@UAEPAXI@Z 00420eee f i nafxcw:except.obj
 0001:0001feee       ??_GCMemoryException@@UAEPAXI@Z 00420eee f i nafxcw:except.obj
 0001:0001ff0a       ??0CMemoryException@@QAE@HI@Z 00420f0a f i nafxcw:except.obj
 0001:0001ff2c       ??_GCNotSupportedException@@UAEPAXI@Z 00420f2c f i nafxcw:except.obj
 0001:0001ff2c       ??_ECNotSupportedException@@UAEPAXI@Z 00420f2c f i nafxcw:except.obj
 0001:0001ff48       ??0CNotSupportedException@@QAE@HI@Z 00420f48 f i nafxcw:except.obj
 0001:0001ff6a       ??_ECInvalidArgException@@UAEPAXI@Z 00420f6a f i nafxcw:except.obj
 0001:0001ff6a       ??_GCInvalidArgException@@UAEPAXI@Z 00420f6a f i nafxcw:except.obj
 0001:0001ff86       ??0CInvalidArgException@@QAE@HI@Z 00420f86 f i nafxcw:except.obj
 0001:0001ffa8       __tcschr                   00420fa8 f i nafxcw:winstr.obj
 0001:0001ffad       ?AfxGetResourceHandle@@YGPAUHINSTANCE__@@XZ 00420fad f i nafxcw:winstr.obj
 0001:0001ffb6       ?ReleaseBuffer@?$CSimpleStringT@D$0A@@ATL@@QAEXH@Z 00420fb6 f i nafxcw:winstr.obj
 0001:0001ffdb       ?GetBufferSetLength@?$CSimpleStringT@D$0A@@ATL@@QAEPADH@Z 00420fdb f i nafxcw:winstr.obj
 0001:0001fffc       ??0CNilStringData@ATL@@QAE@XZ 00420ffc f i nafxcw:strcore.obj
 0001:00020018       ?SetManager@CNilStringData@ATL@@QAEXPAUIAtlStringMgr@2@@Z 00421018 f i nafxcw:strcore.obj
 0001:00020021       ?GetBaseTypeLength@?$ChTraitsCRT@_W@ATL@@SAHPBD@Z 00421021 f i nafxcw:strcore.obj
 0001:0002003b       ?ConvertToBaseType@?$ChTraitsCRT@_W@ATL@@SAXPA_WHPBDH@Z 0042103b f i nafxcw:strcore.obj
 0001:0002005b       ?IsStoring@CArchive@@QBEHXZ 0042105b f i nafxcw:strcore.obj
 0001:00020064       ??1CComBSTR@ATL@@QAE@XZ    00421064 f i nafxcw:strcore.obj
 0001:0002006d       ?Length@CComBSTR@ATL@@QBEIXZ 0042106d f i nafxcw:strcore.obj
 0001:0002007c       ?Copy@CComBSTR@ATL@@QBEPA_WXZ 0042107c f i nafxcw:strcore.obj
 0001:00020099       ??7CComBSTR@ATL@@QBE_NXZ   00421099 f i nafxcw:strcore.obj
 0001:000200a1       ??B?$CTempBuffer@_W$0IA@VCCRTAllocator@ATL@@@ATL@@QBEPA_WXZ 004210a1 f i nafxcw:strcore.obj
 0001:000200a4       ?GetBaseTypeLength@?$ChTraitsCRT@D@ATL@@SAHPB_W@Z 004210a4 f i nafxcw:strcore.obj
 0001:000200c0       ?FreeHeap@?$CTempBuffer@_W$0IA@VCCRTAllocator@ATL@@@ATL@@AAEXXZ 004210c0 f i nafxcw:strcore.obj
 0001:000200c9       ?AllocateHeap@?$CTempBuffer@_W$0IA@VCCRTAllocator@ATL@@@ATL@@AAEXI@Z 004210c9 f i nafxcw:strcore.obj
 0001:000200ea       ??0CComBSTR@ATL@@QAE@ABV01@@Z 004210ea f i nafxcw:strcore.obj
 0001:00020115       ??1?$CTempBuffer@_W$0IA@VCCRTAllocator@ATL@@@ATL@@QAE@XZ 00421115 f i nafxcw:strcore.obj
 0001:00020122       ?AllocateBytes@?$CTempBuffer@_W$0IA@VCCRTAllocator@ATL@@@ATL@@QAEPA_WI@Z 00421122 f i nafxcw:strcore.obj
 0001:00020145       ?Allocate@?$CTempBuffer@_W$0IA@VCCRTAllocator@ATL@@@ATL@@QAEPA_WI@Z 00421145 f i nafxcw:strcore.obj
 0001:00020154       ??4?$CStringT@DV?$StrTraitMFC@DV?$ChTraitsCRT@D@ATL@@@@@ATL@@QAEAAV01@PB_W@Z 00421154 f i nafxcw:strcore.obj
 0001:0002019e       ?_AtlRaiseException@ATL@@YAXKK@Z 0042119e f i nafxcw:objcore.obj
 0001:000201b1       ??0CComCriticalSection@ATL@@QAE@XZ 004211b1 f i nafxcw:objcore.obj
 0001:000201c5       ?Init@CComCriticalSection@ATL@@QAEJXZ 004211c5 f i nafxcw:objcore.obj
 0001:00020215       ?Term@CComCriticalSection@ATL@@QAEJXZ 00421215 f i nafxcw:objcore.obj
 0001:0002021f       ?GetModuleInstance@CAtlBaseModule@ATL@@QAEPAUHINSTANCE__@@XZ 0042121f f i nafxcw:objcore.obj
 0001:00020223       ?lstrcmpiWFake@ATL@@YGHPB_W0@Z 00421223 f i nafxcw:objcore.obj
 0001:0002029f       ?lstrcmpiWThunk@ATL@@YGHPB_W0@Z 0042129f f i nafxcw:objcore.obj
 0001:000202bd       ?CharLowerWFake@ATL@@YGPA_WPA_W@Z 004212bd f i nafxcw:objcore.obj
 0001:00020345       ?CharLowerWThunk@ATL@@YGPA_WPA_W@Z 00421345 f i nafxcw:objcore.obj
 0001:00020363       ?CharUpperWFake@ATL@@YGPA_WPA_W@Z 00421363 f i nafxcw:objcore.obj
 0001:000203eb       ?CharUpperWThunk@ATL@@YGPA_WPA_W@Z 004213eb f i nafxcw:objcore.obj
 0001:00020409       ?AtlWinModuleInit@ATL@@YGJPAU_ATL_WIN_MODULE70@1@@Z 00421409 f i nafxcw:objcore.obj
 0001:0002042c       ??1stringdispid@CComTypeInfoHolder@ATL@@QAE@XZ 0042142c f i nafxcw:objcore.obj
 0001:00020435       ??0?$CSimpleArray@GV?$CSimpleArrayEqualHelper@G@ATL@@@ATL@@QAE@XZ 00421435 f i nafxcw:objcore.obj
 0001:00020442       ?GetSize@?$CSimpleArray@GV?$CSimpleArrayEqualHelper@G@ATL@@@ATL@@QBEHXZ 00421442 f i nafxcw:objcore.obj
 0001:00020446       ?RemoveAll@?$CSimpleArray@GV?$CSimpleArrayEqualHelper@G@ATL@@@ATL@@QAEXXZ 00421446 f i nafxcw:objcore.obj
 0001:00020463       ??A?$CSimpleArray@GV?$CSimpleArrayEqualHelper@G@ATL@@@ATL@@QAEAAGH@Z 00421463 f i nafxcw:objcore.obj
 0001:0002048a       ?Init@?$CW2AEX@$0IA@@ATL@@AAEXPB_WI@Z 0042148a f i nafxcw:objcore.obj
 0001:000204f0       ?AtlWinModuleTerm@ATL@@YGJPAU_ATL_WIN_MODULE70@1@PAUHINSTANCE__@@@Z 004214f0 f i nafxcw:objcore.obj
 0001:00020550       ??_Estringdispid@CComTypeInfoHolder@ATL@@QAEPAXI@Z 00421550 f i nafxcw:objcore.obj
 0001:0002059b       ??0?$CW2AEX@$0IA@@ATL@@QAE@PB_W@Z 0042159b f i nafxcw:objcore.obj
 0001:000205bb       ??1?$CSimpleArray@GV?$CSimpleArrayEqualHelper@G@ATL@@@ATL@@QAE@XZ 004215bb f i nafxcw:objcore.obj
 0001:000205c0       ?CompareStringWFake@ATL@@YGHKKPB_WH0H@Z 004215c0 f i nafxcw:objcore.obj
 0001:000206c4       ?CompareStringWThunk@ATL@@YGHKKPB_WH0H@Z 004216c4 f i nafxcw:objcore.obj
 0001:000206e6       ?Term@CAtlWinModule@ATL@@QAEXXZ 004216e6 f i nafxcw:objcore.obj
 0001:000206f3       ??0_ATL_WIN_MODULE70@ATL@@QAE@XZ 004216f3 f i nafxcw:objcore.obj
 0001:0002070d       ??1_ATL_WIN_MODULE70@ATL@@QAE@XZ 0042170d f i nafxcw:objcore.obj
 0001:00020715       ?GetEnvironmentVariableWFake@ATL@@YGKPB_WPA_WK@Z 00421715 f i nafxcw:objcore.obj
 0001:00020851       ?GetEnvironmentVariableWThunk@ATL@@YGKPB_WPA_WK@Z 00421851 f i nafxcw:objcore.obj
 0001:0002086f       ?GetStringTypeExWFake@ATL@@YGHKKPB_WHPAG@Z 0042186f f i nafxcw:objcore.obj
 0001:0002094c       ?GetStringTypeExWThunk@ATL@@YGHKKPB_WHPAG@Z 0042194c f i nafxcw:objcore.obj
 0001:0002096e       ??0CAtlWinModule@ATL@@QAE@XZ 0042196e f i nafxcw:objcore.obj
 0001:00020991       ??1CAtlWinModule@ATL@@QAE@XZ 00421991 f i nafxcw:objcore.obj
 0001:000209a9       ?AtlAllocTaskWideString@ATL@@YAPA_WPBD@Z 004219a9 f i nafxcw:olecnvrt.obj
 0001:000209f4       ?AtlAllocTaskAnsiString@ATL@@YAPADPB_W@Z 004219f4 f i nafxcw:olecnvrt.obj
 0001:00020a41       _IsEqualGUID               00421a41 f i nafxcw:oleunk.obj
 0001:00020a59       _==                        00421a59 f i nafxcw:oleunk.obj
 0001:00020a5e       ??0IUnknown@@QAE@XZ        00421a5e f i nafxcw:oleunk.obj
 0001:00020a61       ?InternalAddRef@CCmdTarget@@QAEKXZ 00421a61 f i nafxcw:oleunk.obj
 0001:00020a6c       ??0CPoint@@QAE@XZ          00421a6c f i nafxcw:afxstate.obj
 0001:00020a6f       ??0CPoint@@QAE@HH@Z        00421a6f f i nafxcw:afxstate.obj
 0001:00020a81       ??0CSimpleList@@QAE@H@Z    00421a81 f i nafxcw:afxstate.obj
 0001:00020a90       ?Construct@CSimpleList@@QAEXH@Z 00421a90 f i nafxcw:afxstate.obj
 0001:00020a9a       ??1CNoTrackObject@@UAE@XZ  00421a9a f i nafxcw:afxstate.obj
 0001:00020a9b       ??0CTypeLibCache@@QAE@XZ   00421a9b f i nafxcw:afxstate.obj
 0001:00020aad       ?IsEmpty@CPtrList@@QBEHXZ  00421aad f i nafxcw:afxstate.obj
 0001:00020ab6       ?GetStartPosition@CMapPtrToPtr@@QBEPAU__POSITION@@XZ 00421ab6 f i nafxcw:afxstate.obj
 0001:00020abe       ?AfxGetApp@@YGPAVCWinApp@@XZ 00421abe f i nafxcw:appui1.obj
 0001:00020ac7       ?AfxGetMainWnd@@YGPAVCWnd@@XZ 00421ac7 f i nafxcw:appui1.obj
 0001:00020ada       ?GetSafeHwnd@CWnd@@QBEPAUHWND__@@XZ 00421ada f i nafxcw:appui1.obj
 0001:00020ae5       ?GetNextPtr@CSimpleList@@QBEPAPAXPAX@Z 00421ae5 f i nafxcw:afxtls.obj
 0001:00020aef       ?GetHead@CSimpleList@@QBEPAXXZ 00421aef f i nafxcw:afxtls.obj
 0001:00020af2       ??2CThreadSlotData@@SGPAXIPAX@Z 00421af2 f i nafxcw:afxtls.obj
 0001:00020af9       ?AfxCheckError@@YGXJ@Z     00421af9 f   nafxcw:olevar.obj
 0001:00020b16       ?_AfxCompareSafeArrays@@YGHPAUtagSAFEARRAY@@0@Z 00421b16 f   nafxcw:olevar.obj
 0001:00020d82       ?_AfxCreateOneDimArray@@YGXAAUtagVARIANT@@K@Z 00421d82 f   nafxcw:olevar.obj
 0001:00020e2d       ?_AfxCopyBinaryData@@YGXPAUtagSAFEARRAY@@PBXK@Z 00421e2d f   nafxcw:olevar.obj
 0001:00020e68       ??0COleVariant@@QAE@FG@Z   00421e68 f   nafxcw:olevar.obj
 0001:00020e8f       ??0COleVariant@@QAE@JG@Z   00421e8f f   nafxcw:olevar.obj
 0001:00020ef4       ?ChangeType@COleVariant@@QAEXGPAUtagVARIANT@@@Z 00421ef4 f   nafxcw:olevar.obj
 0001:00020f1f       ?Detach@COleVariant@@QAE?AUtagVARIANT@@XZ 00421f1f f   nafxcw:olevar.obj
 0001:00020f46       ??8COleVariant@@QBEHABUtagVARIANT@@@Z 00421f46 f   nafxcw:olevar.obj
 0001:0002108a       ??4COleVariant@@QAEABV0@ABUtagVARIANT@@@Z 0042208a f   nafxcw:olevar.obj
 0001:000210a4       ??4COleVariant@@QAEABV0@PBUtagVARIANT@@@Z 004220a4 f   nafxcw:olevar.obj
 0001:000210be       ??4COleVariant@@QAEABV0@ABV0@@Z 004220be f   nafxcw:olevar.obj
 0001:000210d8       ??4COleVariant@@QAEABV0@ABVCLongBinary@@@Z 004220d8 f   nafxcw:olevar.obj
 0001:0002111b       ?AfxVariantInit@@YGXPAUtagVARIANT@@@Z 0042211b f   nafxcw:olevar.obj
 0001:0002112e       ??$CopyElements@VCOleVariant@@@@YGXPAVCOleVariant@@PBV0@H@Z 0042212e f   nafxcw:olevar.obj
 0001:00021154       ??4COleCurrency@@QAEABV0@ABV0@@Z 00422154 f   nafxcw:olevar.obj
 0001:0002116d       ??MCOleCurrency@@QBEHABV0@@Z 0042216d f   nafxcw:olevar.obj
 0001:0002118b       ??OCOleCurrency@@QBEHABV0@@Z 0042218b f   nafxcw:olevar.obj
 0001:000211a9       ??NCOleCurrency@@QBEHABV0@@Z 004221a9 f   nafxcw:olevar.obj
 0001:000211c7       ??PCOleCurrency@@QBEHABV0@@Z 004221c7 f   nafxcw:olevar.obj
 0001:000211e5       ?Detach@COleSafeArray@@QAE?AUtagVARIANT@@XZ 004221e5 f   nafxcw:olevar.obj
 0001:0002120c       ??4COleSafeArray@@QAEAAV0@ABV0@@Z 0042220c f   nafxcw:olevar.obj
 0001:00021232       ??4COleSafeArray@@QAEAAV0@ABUtagVARIANT@@@Z 00422232 f   nafxcw:olevar.obj
 0001:00021258       ??4COleSafeArray@@QAEAAV0@PBUtagVARIANT@@@Z 00422258 f   nafxcw:olevar.obj
 0001:0002127e       ??4COleSafeArray@@QAEAAV0@ABVCOleVariant@@@Z 0042227e f   nafxcw:olevar.obj
 0001:000212a4       ??8COleSafeArray@@QBEHABUtagSAFEARRAY@@@Z 004222a4 f   nafxcw:olevar.obj
 0001:000212b3       ??8COleSafeArray@@QBEHPBUtagSAFEARRAY@@@Z 004222b3 f   nafxcw:olevar.obj
 0001:000212c2       ??8COleSafeArray@@QBEHABV0@@Z 004222c2 f   nafxcw:olevar.obj
 0001:000212e0       ??8COleSafeArray@@QBEHABUtagVARIANT@@@Z 004222e0 f   nafxcw:olevar.obj
 0001:000212fe       ??8COleSafeArray@@QBEHPBUtagVARIANT@@@Z 004222fe f   nafxcw:olevar.obj
 0001:0002131c       ??8COleSafeArray@@QBEHABVCOleVariant@@@Z 0042231c f   nafxcw:olevar.obj
 0001:0002133a       ?AccessData@COleSafeArray@@QAEXPAPAX@Z 0042233a f   nafxcw:olevar.obj
 0001:00021350       ?UnaccessData@COleSafeArray@@QAEXXZ 00422350 f   nafxcw:olevar.obj
 0001:00021360       ?AllocData@COleSafeArray@@QAEXXZ 00422360 f   nafxcw:olevar.obj
 0001:00021370       ?AllocDescriptor@COleSafeArray@@QAEXK@Z 00422370 f   nafxcw:olevar.obj
 0001:00021387       ?Copy@COleSafeArray@@QAEXPAPAUtagSAFEARRAY@@@Z 00422387 f   nafxcw:olevar.obj
 0001:0002139d       ?GetLBound@COleSafeArray@@QAEXKPAJ@Z 0042239d f   nafxcw:olevar.obj
 0001:000213b7       ?GetUBound@COleSafeArray@@QAEXKPAJ@Z 004223b7 f   nafxcw:olevar.obj
 0001:000213d1       ?GetElement@COleSafeArray@@QAEXPAJPAX@Z 004223d1 f   nafxcw:olevar.obj
 0001:000213eb       ?PtrOfIndex@COleSafeArray@@QAEXPAJPAPAX@Z 004223eb f   nafxcw:olevar.obj
 0001:00021405       ?PutElement@COleSafeArray@@QAEXPAJPAX@Z 00422405 f   nafxcw:olevar.obj
 0001:0002141f       ?Redim@COleSafeArray@@QAEXPAUtagSAFEARRAYBOUND@@@Z 0042241f f   nafxcw:olevar.obj
 0001:00021435       ?Lock@COleSafeArray@@QAEXXZ 00422435 f   nafxcw:olevar.obj
 0001:00021445       ?Unlock@COleSafeArray@@QAEXXZ 00422445 f   nafxcw:olevar.obj
 0001:00021455       ?Destroy@COleSafeArray@@QAEXXZ 00422455 f   nafxcw:olevar.obj
 0001:00021465       ?DestroyData@COleSafeArray@@QAEXXZ 00422465 f   nafxcw:olevar.obj
 0001:00021475       ?DestroyDescriptor@COleSafeArray@@QAEXXZ 00422475 f   nafxcw:olevar.obj
 0001:00021485       ?AfxSafeArrayInit@@YGXPAVCOleSafeArray@@@Z 00422485 f   nafxcw:olevar.obj
 0001:0002149f       ?AllocSysString@?$ChTraitsCRT@D@ATL@@SAPA_WPBDH@Z 0042249f f i nafxcw:olevar.obj
 0001:000214ea       ??$HashKey@K@@YGIK@Z       004224ea f i nafxcw:olevar.obj
 0001:000214f4       ?GetSize@CByteArray@@QBEHXZ 004224f4 f i nafxcw:olevar.obj
 0001:000214f8       ?GetData@CByteArray@@QBEPBEXZ 004224f8 f i nafxcw:olevar.obj
 0001:000214fc       ?GetData@CByteArray@@QAEPAEXZ 004224fc f i nafxcw:olevar.obj
 0001:00021500       ?IsLoading@CArchive@@QBEHXZ 00422500 f i nafxcw:olevar.obj
 0001:00021507       ??0CComBSTR@ATL@@QAE@XZ    00422507 f i nafxcw:olevar.obj
 0001:0002150d       ??BCComBSTR@ATL@@QBEPA_WXZ 0042250d f i nafxcw:olevar.obj
 0001:00021510       ??ICComBSTR@ATL@@QAEPAPA_WXZ 00422510 f i nafxcw:olevar.obj
 0001:00021513       ?Attach@CComBSTR@ATL@@QAEXPA_W@Z 00422513 f i nafxcw:olevar.obj
 0001:0002152f       ?Detach@CComBSTR@ATL@@QAEPA_WXZ 0042252f f i nafxcw:olevar.obj
 0001:00021535       ?Empty@CComBSTR@ATL@@QAEXXZ 00422535 f i nafxcw:olevar.obj
 0001:00021545       ??0COleDateTime@ATL@@QAE@XZ 00422545 f i nafxcw:olevar.obj
 0001:00021550       ?GetStatus@COleDateTime@ATL@@QBE?AW4DateTimeStatus@12@XZ 00422550 f i nafxcw:olevar.obj
 0001:00021554       ?GetAsSystemTime@COleDateTime@ATL@@QBE_NAAU_SYSTEMTIME@@@Z 00422554 f i nafxcw:olevar.obj
 0001:00021579       ??BCOleDateTime@ATL@@QBENXZ 00422579 f i nafxcw:olevar.obj
 0001:0002157c       ?SetDateTime@COleDateTime@ATL@@QAEHHHHHHH@Z 0042257c f i nafxcw:olevar.obj
 0001:0002163d       ??0COleVariant@@QAE@XZ     0042263d f i nafxcw:olevar.obj
 0001:0002164a       ??1COleVariant@@QAE@XZ     0042264a f i nafxcw:olevar.obj
 0001:00021652       ?Clear@COleVariant@@QAEXXZ 00422652 f i nafxcw:olevar.obj
 0001:0002165a       ??BCOleVariant@@QAEPAUtagVARIANT@@XZ 0042265a f i nafxcw:olevar.obj
 0001:0002165d       ??0COleCurrency@@QAE@ABV0@@Z 0042265d f i nafxcw:olevar.obj
 0001:00021676       ?GetStatus@COleCurrency@@QBE?AW4CurrencyStatus@1@XZ 00422676 f i nafxcw:olevar.obj
 0001:0002167a       ?SetStatus@COleCurrency@@QAEXW4CurrencyStatus@1@@Z 0042267a f i nafxcw:olevar.obj
 0001:00021684       ?Clear@COleSafeArray@@QAEXXZ 00422684 f i nafxcw:olevar.obj
 0001:0002168c       ?GetDim@COleSafeArray@@QAEKXZ 0042268c f i nafxcw:olevar.obj
 0001:00021696       ?GetElemSize@COleSafeArray@@QAEKXZ 00422696 f i nafxcw:olevar.obj
 0001:000216a0       ??0COleVariant@@QAE@ABUtagVARIANT@@@Z 004226a0 f   nafxcw:olevar.obj
 0001:000216c0       ??0COleVariant@@QAE@PBUtagVARIANT@@@Z 004226c0 f   nafxcw:olevar.obj
 0001:000216e0       ??0COleVariant@@QAE@ABV0@@Z 004226e0 f   nafxcw:olevar.obj
 0001:00021700       ??0COleVariant@@QAE@PBDG@Z 00422700 f   nafxcw:olevar.obj
 0001:00021777       ?SetString@COleVariant@@QAEXPBDG@Z 00422777 f   nafxcw:olevar.obj
 0001:000217f3       ?Attach@COleVariant@@QAEXAAUtagVARIANT@@@Z 004227f3 f   nafxcw:olevar.obj
 0001:00021817       ?GetByteArrayFromVariantArray@COleVariant@@QAEXAAVCByteArray@@@Z 00422817 f   nafxcw:olevar.obj
 0001:000218b0       ??4COleVariant@@QAEABV0@QBD@Z 004228b0 f   nafxcw:olevar.obj
 0001:0002191d       ??4COleVariant@@QAEABV0@ABV?$CStringT@DV?$StrTraitMFC@DV?$ChTraitsCRT@D@ATL@@@@@ATL@@@Z 0042291d f   nafxcw:olevar.obj
 0001:0002198c       ??4COleVariant@@QAEABV0@E@Z 0042298c f   nafxcw:olevar.obj
 0001:000219ae       ??4COleVariant@@QAEABV0@F@Z 004229ae f   nafxcw:olevar.obj
 0001:000219e7       ??4COleVariant@@QAEABV0@J@Z 004229e7 f   nafxcw:olevar.obj
 0001:00021a26       ??4COleVariant@@QAEABV0@ABVCOleCurrency@@@Z 00422a26 f   nafxcw:olevar.obj
 0001:00021a50       ??4COleVariant@@QAEABV0@M@Z 00422a50 f   nafxcw:olevar.obj
 0001:00021a72       ??4COleVariant@@QAEABV0@N@Z 00422a72 f   nafxcw:olevar.obj
 0001:00021a94       ??4COleVariant@@QAEABV0@ABVCOleDateTime@ATL@@@Z 00422a94 f   nafxcw:olevar.obj
 0001:00021ab8       ??4COleVariant@@QAEABV0@ABVCByteArray@@@Z 00422ab8 f   nafxcw:olevar.obj
 0001:00021aec       ??$HashKey@ABUtagVARIANT@@@@YGIABUtagVARIANT@@@Z 00422aec f   nafxcw:olevar.obj
 0001:00021b74       ??4COleCurrency@@QAEABV0@TtagCY@@@Z 00422b74 f   nafxcw:olevar.obj
 0001:00021b8a       ??4COleCurrency@@QAEABV0@ABUtagVARIANT@@@Z 00422b8a f   nafxcw:olevar.obj
 0001:00021c28       ??0COleSafeArray@@QAE@ABUtagSAFEARRAY@@G@Z 00422c28 f   nafxcw:olevar.obj
 0001:00021c6e       ??0COleSafeArray@@QAE@PBUtagSAFEARRAY@@G@Z 00422c6e f   nafxcw:olevar.obj
 0001:00021cb4       ??0COleSafeArray@@QAE@ABV0@@Z 00422cb4 f   nafxcw:olevar.obj
 0001:00021ce6       ??0COleSafeArray@@QAE@ABUtagVARIANT@@@Z 00422ce6 f   nafxcw:olevar.obj
 0001:00021d18       ??0COleSafeArray@@QAE@ABVCOleVariant@@@Z 00422d18 f   nafxcw:olevar.obj
 0001:00021d4a       ??0COleSafeArray@@QAE@PBUtagVARIANT@@@Z 00422d4a f   nafxcw:olevar.obj
 0001:00021d7c       ?Attach@COleSafeArray@@QAEXAAUtagVARIANT@@@Z 00422d7c f   nafxcw:olevar.obj
 0001:00021dab       ?GetByteArray@COleSafeArray@@QAEXAAVCByteArray@@@Z 00422dab f   nafxcw:olevar.obj
 0001:00021e44       ?GetOneDimSize@COleSafeArray@@QAEKXZ 00422e44 f   nafxcw:olevar.obj
 0001:00021e6e       ?ResizeOneDim@COleSafeArray@@QAEXK@Z 00422e6e f   nafxcw:olevar.obj
 0001:00021ea3       ?Create@COleSafeArray@@QAEXGKPAUtagSAFEARRAYBOUND@@@Z 00422ea3 f   nafxcw:olevar.obj
 0001:00021f0d       ??6CArchive@@QAEAAV0@E@Z   00422f0d f i nafxcw:olevar.obj
 0001:00021f45       ??6CArchive@@QAEAAV0@_J@Z  00422f45 f i nafxcw:olevar.obj
 0001:00021f87       ??6CArchive@@QAEAAV0@_K@Z  00422f87 f i nafxcw:olevar.obj
 0001:00021fc9       ??6CArchive@@QAEAAV0@G@Z   00422fc9 f i nafxcw:olevar.obj
 0001:00022005       ??6CArchive@@QAEAAV0@J@Z   00423005 f i nafxcw:olevar.obj
 0001:00022040       ??6CArchive@@QAEAAV0@K@Z   00423040 f i nafxcw:olevar.obj
 0001:0002207b       ??6CArchive@@QAEAAV0@M@Z   0042307b f i nafxcw:olevar.obj
 0001:000220b6       ??6CArchive@@QAEAAV0@N@Z   004230b6 f i nafxcw:olevar.obj
 0001:000220f1       ??5CArchive@@QAEAAV0@AAE@Z 004230f1 f i nafxcw:olevar.obj
 0001:00022130       ??5CArchive@@QAEAAV0@AA_J@Z 00423130 f i nafxcw:olevar.obj
 0001:00022178       ??5CArchive@@QAEAAV0@AA_K@Z 00423178 f i nafxcw:olevar.obj
 0001:000221c0       ??5CArchive@@QAEAAV0@AAG@Z 004231c0 f i nafxcw:olevar.obj
 0001:00022203       ??5CArchive@@QAEAAV0@AAK@Z 00423203 f i nafxcw:olevar.obj
 0001:00022245       ??5CArchive@@QAEAAV0@AAM@Z 00423245 f i nafxcw:olevar.obj
 0001:00022287       ??5CArchive@@QAEAAV0@AAN@Z 00423287 f i nafxcw:olevar.obj
 0001:000222c9       ??5CArchive@@QAEAAV0@AAJ@Z 004232c9 f i nafxcw:olevar.obj
 0001:0002230b       ??0COleCurrency@@QAE@XZ    0042330b f i nafxcw:olevar.obj
 0001:00022318       ??0COleCurrency@@QAE@TtagCY@@@Z 00423318 f i nafxcw:olevar.obj
 0001:0002232e       ??6@YGAAVCArchive@@AAV0@VCComBSTR@ATL@@@Z 0042332e f   nafxcw:olevar.obj
 0001:0002238f       ??5@YGAAVCArchive@@AAV0@AAVCComBSTR@ATL@@@Z 0042338f f   nafxcw:olevar.obj
 0001:000223ef       ??HCOleCurrency@@QBE?AV0@ABV0@@Z 004233ef f   nafxcw:olevar.obj
 0001:00022474       ??GCOleCurrency@@QBE?AV0@ABV0@@Z 00423474 f   nafxcw:olevar.obj
 0001:000224f9       ??GCOleCurrency@@QBE?AV0@XZ 004234f9 f   nafxcw:olevar.obj
 0001:0002253f       ??DCOleCurrency@@QBE?AV0@J@Z 0042353f f   nafxcw:olevar.obj
 0001:0002265d       ??KCOleCurrency@@QBE?AV0@J@Z 0042365d f   nafxcw:olevar.obj
 0001:000226d9       ?SetCurrency@COleCurrency@@QAEXJJ@Z 004236d9 f   nafxcw:olevar.obj
 0001:00022791       ??6@YGAAVCArchive@@AAV0@VCOleCurrency@@@Z 00423791 f   nafxcw:olevar.obj
 0001:000227b9       ??5@YGAAVCArchive@@AAV0@AAVCOleCurrency@@@Z 004237b9 f   nafxcw:olevar.obj
 0001:000227e6       ??6@YGAAVCArchive@@AAV0@VCOleDateTime@ATL@@@Z 004237e6 f   nafxcw:olevar.obj
 0001:00022808       ??5@YGAAVCArchive@@AAV0@AAVCOleDateTime@ATL@@@Z 00423808 f   nafxcw:olevar.obj
 0001:00022828       ??6@YGAAVCArchive@@AAV0@VCOleDateTimeSpan@ATL@@@Z 00423828 f   nafxcw:olevar.obj
 0001:0002284a       ??5@YGAAVCArchive@@AAV0@AAVCOleDateTimeSpan@ATL@@@Z 0042384a f   nafxcw:olevar.obj
 0001:0002286a       ?CreateOneDim@COleSafeArray@@QAEXGKPBXJ@Z 0042386a f   nafxcw:olevar.obj
 0001:000228d1       ?Create@COleSafeArray@@QAEXGKPAK@Z 004238d1 f   nafxcw:olevar.obj
 0001:0002295d       ?AllocSysString@?$CStringT@DV?$StrTraitMFC@DV?$ChTraitsCRT@D@ATL@@@@@ATL@@QBEPA_WXZ 0042395d f i nafxcw:olevar.obj
 0001:00022974       ??6CArchive@@QAEAAV0@F@Z   00423974 f i nafxcw:olevar.obj
 0001:00022979       ??6CArchive@@QAEAAV0@D@Z   00423979 f i nafxcw:olevar.obj
 0001:0002297e       ??5CArchive@@QAEAAV0@AAF@Z 0042397e f i nafxcw:olevar.obj
 0001:00022983       ??5CArchive@@QAEAAV0@AAD@Z 00423983 f i nafxcw:olevar.obj
 0001:00022988       ?ParseDateTime@COleDateTime@ATL@@QAE_NPBDKK@Z 00423988 f i nafxcw:olevar.obj
 0001:00022a52       ??6@YGAAVCArchive@@AAV0@VCOleVariant@@@Z 00423a52 f   nafxcw:olevar.obj
 0001:00022c76       ??5@YGAAVCArchive@@AAV0@AAVCOleVariant@@@Z 00423c76 f   nafxcw:olevar.obj
 0001:00022f02       ??$SerializeElements@VCOleVariant@@@@YGXAAVCArchive@@PAVCOleVariant@@H@Z 00423f02 f   nafxcw:olevar.obj
 0001:00022f53       ??0COleCurrency@@QAE@JJ@Z  00423f53 f   nafxcw:olevar.obj
 0001:00022f6d       ?DDX_Text@@YGXPAVCDataExchange@@HAAUtagDEC@@@Z 00423f6d f   nafxcw:olevar.obj
 0001:000230a5       ?DDX_Text@@YGXPAVCDataExchange@@HAAU_GUID@@@Z 004240a5 f   nafxcw:olevar.obj
 0001:00023227       ??0?$CStringT@DV?$StrTraitMFC@DV?$ChTraitsCRT@D@ATL@@@@@ATL@@QAE@PB_W@Z 00424227 f i nafxcw:olevar.obj
 0001:00023272       ?ParseCurrency@COleCurrency@@QAEHPBDKK@Z 00424272 f   nafxcw:olevar.obj
 0001:0002334a       ?Format@COleCurrency@@QBE?AV?$CStringT@DV?$StrTraitMFC@DV?$ChTraitsCRT@D@ATL@@@@@ATL@@KK@Z 0042434a f   nafxcw:olevar.obj
 0001:0002344e       ?DDX_Text@@YGXPAVCDataExchange@@HAAVCOleCurrency@@@Z 0042444e f   nafxcw:olevar.obj
 0001:00023532       ?Format@COleDateTime@ATL@@QBE?AV?$CStringT@DV?$StrTraitMFC@DV?$ChTraitsCRT@D@ATL@@@@@2@KK@Z 00424532 f i nafxcw:olevar.obj
 0001:00023657       ?DDX_Text@@YGXPAVCDataExchange@@HAAVCOleDateTime@ATL@@@Z 00424657 f   nafxcw:olevar.obj
 0001:0002373b       ?DDX_Text@@YGXPAVCDataExchange@@HAAU_FILETIME@@@Z 0042473b f   nafxcw:olevar.obj
 0001:0002387a       ??0CArchiveException@@QAE@HPBD@Z 0042487a f i nafxcw:arcex.obj
 0001:000238c7       ??_ECArchiveException@@UAEPAXI@Z 004248c7 f i nafxcw:arcex.obj
 0001:000238c7       ??_GCArchiveException@@UAEPAXI@Z 004248c7 f i nafxcw:arcex.obj
 0001:000238e3       ??1CArchiveException@@UAE@XZ 004248e3 f i nafxcw:arcex.obj
 0001:000238f4       ??0CRect@@QAE@XZ           004248f4 f i nafxcw:winutil.obj
 0001:000238f7       ??BCRect@@QAEPAUtagRECT@@XZ 004248f7 f i nafxcw:winutil.obj
 0001:000238fa       ?PtInRect@CRect@@QBEHUtagPOINT@@@Z 004248fa f i nafxcw:winutil.obj
 0001:0002390c       ?GetHeadPosition@CPtrList@@QBEPAU__POSITION@@XZ 0042490c f i nafxcw:list_p.obj
 0001:00023910       ?GetTailPosition@CPtrList@@QBEPAU__POSITION@@XZ 00424910 f i nafxcw:list_p.obj
 0001:00023914       ?GetNext@CPtrList@@QAEAAPAXAAPAU__POSITION@@@Z 00424914 f i nafxcw:list_p.obj
 0001:0002392d       ?GetPrev@CPtrList@@QAEAAPAXAAPAU__POSITION@@@Z 0042492d f i nafxcw:list_p.obj
 0001:00023947       ??0CPoint@@QAE@UtagPOINT@@@Z 00424947 f i nafxcw:thrdcore.obj
 0001:00023959       ??8CPoint@@QBEHUtagPOINT@@@Z 00424959 f i nafxcw:thrdcore.obj
 0001:00023974       ?SendMessageA@CWnd@@QAEJIIJ@Z 00424974 f i nafxcw:thrdcore.obj
 0001:0002398c       ?IsWindowVisible@CWnd@@QBEHXZ 0042498c f i nafxcw:thrdcore.obj
 0001:00023996       ?SendMessageToDescendants@CWnd@@QAEXIIJHH@Z 00424996 f i nafxcw:thrdcore.obj
 0001:000239b4       ?GetActiveWindow@CWnd@@SGPAV1@XZ 004249b4 f i nafxcw:thrdcore.obj
 0001:000239c1       ?SetThreadPriority@CWinThread@@QAEHH@Z 004249c1 f i nafxcw:thrdcore.obj
 0001:000239d1       ?ResumeThread@CWinThread@@QAEKXZ 004249d1 f i nafxcw:thrdcore.obj
 0001:000239db       ??0AFX_CLASSINIT@@QAE@PAUCRuntimeClass@@@Z 004249db f i nafxcw:array_b.obj
 0001:000239ed       ?GetAt@CByteArray@@QBEEH@Z 004249ed f i nafxcw:array_b.obj
 0001:00023a09       ?SetAt@CByteArray@@QAEXHE@Z 00424a09 f i nafxcw:array_b.obj
 0001:00023a29       ?GetFile@CArchive@@QBEPAVCFile@@XZ 00424a29 f i nafxcw:arcstrm.obj
 0001:00023a2d       ??0ISequentialStream@@QAE@XZ 00424a2d f i nafxcw:arcstrm.obj
 0001:00023a30       ??0IStream@@QAE@XZ         00424a30 f i nafxcw:arcstrm.obj
 0001:00023a33       ?GetNextWindow@@YAPAUHWND__@@PAU1@I@Z 00424a33 f i nafxcw:winocc.obj
 0001:00023a42       ?GetNext@CPtrList@@QBEAAPBXAAPAU__POSITION@@@Z 00424a42 f i nafxcw:winocc.obj
 0001:00023a5b       ?GetPrev@CPtrList@@QBEAAPBXAAPAU__POSITION@@@Z 00424a5b f i nafxcw:winocc.obj
 0001:00023a75       ?GetAt@CPtrList@@QBEAAPBXPAU__POSITION@@@Z 00424a75 f i nafxcw:winocc.obj
 0001:00023a88       ?GetSafeHandle@CGdiObject@@QBEPAXXZ 00424a88 f i nafxcw:winocc.obj
 0001:00023a93       ?GetNextWindow@CWnd@@QBEPAV1@I@Z 00424a93 f i nafxcw:winocc.obj
 0001:00023aaa       ?GetWindow@CWnd@@QBEPAV1@I@Z 00424aaa f i nafxcw:winocc.obj
 0001:00023ac0       ?LookupPermanent@CHandleMap@@QAEPAVCObject@@PAX@Z 00424ac0 f i nafxcw:winocc.obj
 0001:00023ac8       ??0CSize@@QAE@K@Z          00424ac8 f i nafxcw:cmdtarg.obj
 0001:00023adf       ?CheckMenuItem@CMenu@@QAEIII@Z 00424adf f i nafxcw:cmdtarg.obj
 0001:00023af3       ?EnableMenuItem@CMenu@@QAEIII@Z 00424af3 f i nafxcw:cmdtarg.obj
 0001:00023b07       ?GetMenuState@CMenu@@QBEIII@Z 00424b07 f i nafxcw:cmdtarg.obj
 0001:00023b1b       ?ModifyMenuA@CMenu@@QAEHIIIPBD@Z 00424b1b f i nafxcw:cmdtarg.obj
 0001:00023b37       ?GetParent@CWnd@@QBEPAV1@XZ 00424b37 f i nafxcw:cmdtarg.obj
 0001:00023b47       ?SetAt@CMapPtrToPtr@@QAEXPAX0@Z 00424b47 f i nafxcw:winhand.obj
 0001:00023b59       ?LookupTemporary@CHandleMap@@QAEPAVCObject@@PAX@Z 00424b59 f i nafxcw:winhand.obj
 0001:00023b61       ??_ECHandleMap@@UAEPAXI@Z  00424b61 f i nafxcw:winhand.obj
 0001:00023b61       ??_GCHandleMap@@UAEPAXI@Z  00424b61 f i nafxcw:winhand.obj
 0001:00023b7d       ??1CHandleMap@@UAE@XZ      00424b7d f i nafxcw:winhand.obj
 0001:00023bd1       __tcscmp                   00424bd1 f i nafxcw:wincore.obj
 0001:00023bd6       ?UnlockResource@@YGHPAX@Z  00424bd6 f i nafxcw:wincore.obj
 0001:00023bdb       ?A2T@@YAPADPAD@Z           00424bdb f i nafxcw:wincore.obj
 0001:00023be0       ??0CPoint@@QAE@J@Z         00424be0 f i nafxcw:wincore.obj
 0001:00023bf7       ?Width@CRect@@QBEHXZ       00424bf7 f i nafxcw:wincore.obj
 0001:00023bfd       ?Height@CRect@@QBEHXZ      00424bfd f i nafxcw:wincore.obj
 0001:00023c04       ?TopLeft@CRect@@QAEAAVCPoint@@XZ 00424c04 f i nafxcw:wincore.obj
 0001:00023c07       ?BottomRight@CRect@@QAEAAVCPoint@@XZ 00424c07 f i nafxcw:wincore.obj
 0001:00023c0b       ??4CRect@@QAEXABUtagRECT@@@Z 00424c0b f i nafxcw:wincore.obj
 0001:00023c19       ??2CObject@@SGPAXIPAX@Z    00424c19 f i nafxcw:wincore.obj
 0001:00023c20       ??3CObject@@SGXPAX0@Z      00424c20 f i nafxcw:wincore.obj
 0001:00023c2d       _IsPlatformNT              00424c2d f   nafxcw:wincore.obj
 0001:00023c7e       _InitMultipleMonitorStubs  00424c7e f   nafxcw:wincore.obj
 0001:00023d78       _xGetSystemMetrics@4       00424d78 f   nafxcw:wincore.obj
 0001:00023dc0       _xMonitorFromPoint@12      00424dc0 f   nafxcw:wincore.obj
 0001:00023e16       _xMonitorFromRect@8        00424e16 f   nafxcw:wincore.obj
 0001:00023e62       _xMonitorFromWindow@8      00424e62 f   nafxcw:wincore.obj
 0001:00023ecd       _xGetMonitorInfo@8         00424ecd f   nafxcw:wincore.obj
 0001:00023f62       _xEnumDisplayMonitors@16   00424f62 f   nafxcw:wincore.obj
 0001:0002404d       _xEnumDisplayDevices@16    0042504d f   nafxcw:wincore.obj
 0001:000240ba       ??1CAccessibleProxy@ATL@@UAE@XZ 004250ba f i nafxcw:wincore.obj
 0001:000240bb       ?AtlIAccessibleInvokeHelper@ATL@@YGJPAUIAccessible@@JABU_GUID@@KGPAUtagDISPPARAMS@@PAUtagVARIANT@@PAUtagEXCEPINFO@@PAI@Z 004250bb f   nafxcw:wincore.obj
 0001:000246a3       ?AtlIAccessibleGetIDsOfNamesHelper@ATL@@YGJABU_GUID@@PAPA_WIKPAJ@Z 004256a3 f   nafxcw:wincore.obj
 0001:00024703       ?AfxGetInstanceHandle@@YGPAUHINSTANCE__@@XZ 00425703 f i nafxcw:wincore.obj
 0001:0002470c       ?GetMenuItemCount@CMenu@@QBEIXZ 0042570c f i nafxcw:wincore.obj
 0001:00024716       ?GetMenuItemID@CMenu@@QBEIH@Z 00425716 f i nafxcw:wincore.obj
 0001:00024726       ?GetSubMenu@CMenu@@QBEPAV1@H@Z 00425726 f i nafxcw:wincore.obj
 0001:0002473c       ?PostMessageA@CWnd@@QAEHIIJ@Z 0042573c f i nafxcw:wincore.obj
 0001:00024754       ?GetMenu@CWnd@@QBEPAVCMenu@@XZ 00425754 f i nafxcw:wincore.obj
 0001:00024764       ?GetWindowRect@CWnd@@QBEXPAUtagRECT@@@Z 00425764 f i nafxcw:wincore.obj
 0001:00024774       ?GetClientRect@CWnd@@QBEXPAUtagRECT@@@Z 00425774 f i nafxcw:wincore.obj
 0001:00024784       ?ScreenToClient@CWnd@@QBEXPAUtagPOINT@@@Z 00425784 f i nafxcw:wincore.obj
 0001:00024794       ?UpdateWindow@CWnd@@QAEXXZ 00425794 f i nafxcw:wincore.obj
 0001:0002479e       ?ShowScrollBar@CWnd@@QAEXIH@Z 0042579e f i nafxcw:wincore.obj
 0001:000247b2       ?SetForegroundWindow@CWnd@@QAEHXZ 004257b2 f i nafxcw:wincore.obj
 0001:000247bc       ?DoDataExchange@CWnd@@MAEXPAVCDataExchange@@@Z 004257bc f i nafxcw:wincore.obj
 0001:000247bf       ?BeginModalState@CWnd@@UAEXXZ 004257bf f i nafxcw:wincore.obj
 0001:000247cb       ?EndModalState@CWnd@@UAEXXZ 004257cb f i nafxcw:wincore.obj
 0001:000247d7       ?GetScrollPos@CScrollBar@@QBEHXZ 004257d7 f i nafxcw:wincore.obj
 0001:000247e3       ?SetScrollPos@CScrollBar@@QAEHHH@Z 004257e3 f i nafxcw:wincore.obj
 0001:000247f9       ?GetScrollRange@CScrollBar@@QBEXPAH0@Z 004257f9 f i nafxcw:wincore.obj
 0001:0002480f       ?SetScrollRange@CScrollBar@@QAEXHHH@Z 0042580f f i nafxcw:wincore.obj
 0001:00024829       ??0CWaitCursor@@QAE@XZ     00425829 f i nafxcw:wincore.obj
 0001:0002483d       ??1CWaitCursor@@QAE@XZ     0042583d f i nafxcw:wincore.obj
 0001:0002484a       ?SetWindowLongPtrA@@YAJPAUHWND__@@HJ@Z 0042584a f i nafxcw:wincore.obj
 0001:0002485d       ?GetWindowLongPtrA@@YAJPAUHWND__@@H@Z 0042585d f i nafxcw:wincore.obj
 0001:0002486c       ?SetPermanent@CHandleMap@@QAEXPAXPAVCObject@@@Z 0042586c f i nafxcw:wincore.obj
 0001:00024881       ?RemoveHandle@CHandleMap@@QAEXPAX@Z 00425881 f i nafxcw:wincore.obj
 0001:00024889       ??0CComObjectRootBase@ATL@@QAE@XZ 00425889 f i nafxcw:wincore.obj
 0001:0002488f       ?FinalConstruct@CComObjectRootBase@ATL@@QAEJXZ 0042588f f i nafxcw:wincore.obj
 0001:00024892       ?_AtlFinalConstruct@CComObjectRootBase@ATL@@QAEJXZ 00425892 f i nafxcw:wincore.obj
 0001:00024895       ?SetVoid@CComObjectRootBase@ATL@@QAEXPAX@Z 00425895 f i nafxcw:wincore.obj
 0001:00024898       ?InternalFinalConstructAddRef@CComObjectRootBase@ATL@@QAEXXZ 00425898 f i nafxcw:wincore.obj
 0001:00024899       ?InternalFinalConstructRelease@CComObjectRootBase@ATL@@QAEXXZ 00425899 f i nafxcw:wincore.obj
 0001:0002489a       ??0?$CComObjectRootEx@VCComSingleThreadModel@ATL@@@ATL@@QAE@XZ 0042589a f i nafxcw:wincore.obj
 0001:000248a0       ??0IOleWindow@@QAE@XZ      004258a0 f i nafxcw:wincore.obj
 0001:000248a3       ?GetDescendantWindow@CWnd@@QBEPAV1@HH@Z 004258a3 f i nafxcw:wincore.obj
 0001:000248b6       ?SetActiveWindow@CWnd@@QAEPAV1@XZ 004258b6 f i nafxcw:wincore.obj
 0001:000248c6       ?GetLastActivePopup@CWnd@@QBEPAV1@XZ 004258c6 f i nafxcw:wincore.obj
 0001:000248d6       ?GetForegroundWindow@CWnd@@SGPAV1@XZ 004258d6 f i nafxcw:wincore.obj
 0001:000248e3       ??0CAccessibleProxy@ATL@@QAE@XZ 004258e3 f i nafxcw:wincore.obj
 0001:000248fe       ?GetWindow@CAccessibleProxy@ATL@@UAGJPAPAUHWND__@@@Z 004258fe f i nafxcw:wincore.obj
 0001:00024903       ?ContextSensitiveHelp@CAccessibleProxy@ATL@@UAGJH@Z 00425903 f i nafxcw:wincore.obj
 0001:0002490b       ?FinalRelease@CAccessibleProxy@ATL@@QAEJXZ 0042590b f i nafxcw:wincore.obj
 0001:00024920       ?AtlInternalQueryInterface@ATL@@YGJPAXPBU_ATL_INTMAP_ENTRY@1@ABU_GUID@@PAPAX@Z 00425920 f i nafxcw:wincore.obj
 0001:000249ee       ?GetOwner@CWnd@@QBEPAV1@XZ 004259ee f i nafxcw:wincore.obj
 0001:00024a05       ?GetUpperBound@CPtrArray@@QBEHXZ 00425a05 f i nafxcw:arcobj.obj
 0001:00024a0a       ?GetAt@CPtrArray@@QBEPAXH@Z 00425a0a f i nafxcw:arcobj.obj
 0001:00024a26       ?SetAt@CPtrArray@@QAEXHPAX@Z 00425a26 f i nafxcw:arcobj.obj
 0001:00024a46       ??0CSize@@QAE@XZ           00425a46 f i nafxcw:wingdi.obj
 0001:00024a49       ??0CSize@@QAE@UtagSIZE@@@Z 00425a49 f i nafxcw:wingdi.obj
 0001:00024a5b       ??0CRect@@QAE@HHHH@Z       00425a5b f i nafxcw:wingdi.obj
 0001:00024a7b       ?SwapLeftRight@CRect@@SGXPAUtagRECT@@@Z 00425a7b f i nafxcw:wingdi.obj
 0001:00024a8c       ??0CResourceException@@QAE@HI@Z 00425a8c f i nafxcw:wingdi.obj
 0001:00024aae       ??1CResourceException@@UAE@XZ 00425aae f i nafxcw:wingdi.obj
 0001:00024ab5       ??0CUserException@@QAE@HI@Z 00425ab5 f i nafxcw:wingdi.obj
 0001:00024ad7       ??1CUserException@@UAE@XZ  00425ad7 f i nafxcw:wingdi.obj
 0001:00024ade       ??0CGdiObject@@QAE@XZ      00425ade f i nafxcw:wingdi.obj
 0001:00024aeb       ?GetBitmap@CBitmap@@QAEHPAUtagBITMAP@@@Z 00425aeb f i nafxcw:wingdi.obj
 0001:00024afd       ?GetSafeHdc@CDC@@QBEPAUHDC__@@XZ 00425afd f i nafxcw:wingdi.obj
 0001:00024b08       ?GetViewportExt@CDC@@QBE?AVCSize@@XZ 00425b08 f i nafxcw:wingdi.obj
 0001:00024b2c       ?GetWindowExt@CDC@@QBE?AVCSize@@XZ 00425b2c f i nafxcw:wingdi.obj
 0001:00024b50       ?FillRect@CDC@@QAEXPBUtagRECT@@PAVCBrush@@@Z 00425b50 f i nafxcw:wingdi.obj
 0001:00024b6c       ?BitBlt@CDC@@QAEHHHHHPAV1@HHK@Z 00425b6c f i nafxcw:wingdi.obj
 0001:00024b9c       ?GetPixel@CDC@@QBEKHH@Z    00425b9c f i nafxcw:wingdi.obj
 0001:00024bb0       ?StartDocA@CDC@@QAEHPAU_DOCINFOA@@@Z 00425bb0 f i nafxcw:wingdi.obj
 0001:00024bc0       ?abs@@YAJJ@Z               00425bc0 f i nafxcw:wingdi.obj
 0001:00024bc5       ?PtVisible@CDC@@UBEHHH@Z   00425bc5 f i nafxcw:wingdi.obj
 0001:00024bd9       ?RectVisible@CDC@@UBEHPBUtagRECT@@@Z 00425bd9 f i nafxcw:wingdi.obj
 0001:00024be9       ?TextOutA@CDC@@UAEHHHPBDH@Z 00425be9 f i nafxcw:wingdi.obj
 0001:00024c05       ?ExtTextOutA@CDC@@UAEHHHIPBUtagRECT@@PBDIPAH@Z 00425c05 f i nafxcw:wingdi.obj
 0001:00024c2a       ?TabbedTextOutA@CDC@@UAE?AVCSize@@HHPBDHHPAHH@Z 00425c2a f i nafxcw:wingdi.obj
 0001:00024c62       ?DrawTextA@CDC@@UAEHPBDHPAUtagRECT@@I@Z 00425c62 f i nafxcw:wingdi.obj
 0001:00024c7e       ?DrawTextExA@CDC@@UAEHPADHPAUtagRECT@@IPAUtagDRAWTEXTPARAMS@@@Z 00425c7e f i nafxcw:wingdi.obj
 0001:00024c9d       ?GrayStringA@CDC@@UAEHPAVCBrush@@P6GHPAUHDC__@@JH@ZJHHHHH@Z 00425c9d f i nafxcw:wingdi.obj
 0001:00024ccd       ?Escape@CDC@@UAEHHHPBDPAX@Z 00425ccd f i nafxcw:wingdi.obj
 0001:00024ce9       ??_ECResourceException@@UAEPAXI@Z 00425ce9 f i nafxcw:wingdi.obj
 0001:00024ce9       ??_GCResourceException@@UAEPAXI@Z 00425ce9 f i nafxcw:wingdi.obj
 0001:00024d05       ??_GCUserException@@UAEPAXI@Z 00425d05 f i nafxcw:wingdi.obj
 0001:00024d05       ??_ECUserException@@UAEPAXI@Z 00425d05 f i nafxcw:wingdi.obj
 0001:00024d21       ??1CGdiObject@@UAE@XZ      00425d21 f i nafxcw:wingdi.obj
 0001:00024d2c       ??0CBrush@@QAE@XZ          00425d2c f i nafxcw:wingdi.obj
 0001:00024d39       ??1CBrush@@UAE@XZ          00425d39 f i nafxcw:wingdi.obj
 0001:00024d44       ?CreatePatternBrush@CBrush@@QAEHPAVCBitmap@@@Z 00425d44 f i nafxcw:wingdi.obj
 0001:00024d65       ?FromHandle@CFont@@SGPAV1@PAUHFONT__@@@Z 00425d65 f i nafxcw:wingdi.obj
 0001:00024d6a       ??0CBitmap@@QAE@XZ         00425d6a f i nafxcw:wingdi.obj
 0001:00024d77       ??1CBitmap@@UAE@XZ         00425d77 f i nafxcw:wingdi.obj
 0001:00024d82       ?CreateBitmap@CBitmap@@QAEHHHIIPBX@Z 00425d82 f i nafxcw:wingdi.obj
 0001:00024daa       ?CreateCompatibleDC@CDC@@QAEHPAV1@@Z 00425daa f i nafxcw:wingdi.obj
 0001:00024dcb       ??_ECGdiObject@@UAEPAXI@Z  00425dcb f i nafxcw:wingdi.obj
 0001:00024dcb       ??_GCGdiObject@@UAEPAXI@Z  00425dcb f i nafxcw:wingdi.obj
 0001:00024de7       ??_GCPen@@UAEPAXI@Z        00425de7 f i nafxcw:wingdi.obj
 0001:00024de7       ??_ECPen@@UAEPAXI@Z        00425de7 f i nafxcw:wingdi.obj
 0001:00024e03       ??1CPen@@UAE@XZ            00425e03 f i nafxcw:wingdi.obj
 0001:00024e0e       ??_GCBrush@@UAEPAXI@Z      00425e0e f i nafxcw:wingdi.obj
 0001:00024e0e       ??_ECBrush@@UAEPAXI@Z      00425e0e f i nafxcw:wingdi.obj
 0001:00024e2a       ??_GCBitmap@@UAEPAXI@Z     00425e2a f i nafxcw:wingdi.obj
 0001:00024e2a       ??_ECBitmap@@UAEPAXI@Z     00425e2a f i nafxcw:wingdi.obj
 0001:00024e46       ?SelectObject@CDC@@QAEPAVCBitmap@@PAV2@@Z 00425e46 f i nafxcw:wingdi.obj
 0001:00024e5d       ??0CFixedAllocNoSync@@QAE@II@Z 00425e5d f   nafxcw:fixalloc.obj
 0001:00024e87       ?FreeAll@CFixedAllocNoSync@@QAEXXZ 00425e87 f   nafxcw:fixalloc.obj
 0001:00024e9c       ?Free@CFixedAllocNoSync@@QAEXPAX@Z 00425e9c f   nafxcw:fixalloc.obj
 0001:00024eaf       ??1CFixedAllocNoSync@@QAE@XZ 00425eaf f   nafxcw:fixalloc.obj
 0001:00024eb4       ?Alloc@CFixedAllocNoSync@@QAEPAXXZ 00425eb4 f   nafxcw:fixalloc.obj
 0001:00024ef5       ??0CFixedAlloc@@QAE@II@Z   00425ef5 f   nafxcw:fixalloc.obj
 0001:00024f15       ??1CFixedAlloc@@QAE@XZ     00425f15 f   nafxcw:fixalloc.obj
 0001:00024f2a       ?FreeAll@CFixedAlloc@@QAEXXZ 00425f2a f   nafxcw:fixalloc.obj
 0001:00024f97       ?Alloc@CFixedAlloc@@QAEPAXXZ 00425f97 f   nafxcw:fixalloc.obj
 0001:00024ff5       ?Free@CFixedAlloc@@QAEXPAX@Z 00425ff5 f   nafxcw:fixalloc.obj
 0001:0002506c       ??0CRect@@QAE@ABUtagRECT@@@Z 0042606c f i nafxcw:winmenu.obj
 0001:00025080       ?InflateRect@CRect@@QAEXHH@Z 00426080 f i nafxcw:winmenu.obj
 0001:00025092       ?GetObjectA@CGdiObject@@QBEHHPAX@Z 00426092 f i nafxcw:winmenu.obj
 0001:000250a6       ??0CFont@@QAE@XZ           004260a6 f i nafxcw:winmenu.obj
 0001:000250b3       ??1CFont@@UAE@XZ           004260b3 f i nafxcw:winmenu.obj
 0001:000250be       ?CreateFontIndirectA@CFont@@QAEHPBUtagLOGFONTA@@@Z 004260be f i nafxcw:winmenu.obj
 0001:000250d7       ??0CMenu@@QAE@XZ           004260d7 f i nafxcw:winmenu.obj
 0001:000250e4       ?GetMenuItemInfoA@CMenu@@QAEHIPAUtagMENUITEMINFOA@@H@Z 004260e4 f i nafxcw:winmenu.obj
 0001:000250fc       ??_GCFont@@UAEPAXI@Z       004260fc f i nafxcw:winmenu.obj
 0001:000250fc       ??_ECFont@@UAEPAXI@Z       004260fc f i nafxcw:winmenu.obj
 0001:00025118       ?ExtTextOutA@CDC@@QAEHHHIPBUtagRECT@@ABV?$CStringT@DV?$StrTraitMFC@DV?$ChTraitsCRT@D@ATL@@@@@ATL@@PAH@Z 00426118 f i nafxcw:winmenu.obj
 0001:00025141       ?GetTextExtent@CDC@@QBE?AVCSize@@ABV?$CStringT@DV?$StrTraitMFC@DV?$ChTraitsCRT@D@ATL@@@@@ATL@@@Z 00426141 f i nafxcw:winmenu.obj
 0001:0002516e       ??1CMenu@@UAE@XZ           0042616e f i nafxcw:winmenu.obj
 0001:00025179       ??_ECMenu@@UAEPAXI@Z       00426179 f i nafxcw:winmenu.obj
 0001:00025179       ??_GCMenu@@UAEPAXI@Z       00426179 f i nafxcw:winmenu.obj
 0001:00025195       ?T2CA@@YAPBDPBD@Z          00426195 f i nafxcw:appcore.obj
 0001:0002519a       ?SetResourceInstance@CAtlBaseModule@ATL@@QAEPAUHINSTANCE__@@PAU3@@Z 0042619a f i nafxcw:appcore.obj
 0001:000251ab       ?AfxSetResourceHandle@@YGXPAUHINSTANCE__@@@Z 004261ab f i nafxcw:appcore.obj
 0001:000251ba       ?GetSize@CPtrArray@@QBEHXZ 004261ba f i nafxcw:array_p.obj
 0001:000251be       ?IntersectRect@CRect@@QAEHPBUtagRECT@@0@Z 004261be f i nafxcw:wingdix.obj
 0001:000251d0       ?FromHandle@CBrush@@SGPAV1@PAUHBRUSH__@@@Z 004261d0 f i nafxcw:wingdix.obj
 0001:000251d5       ??0CRgn@@QAE@XZ            004261d5 f i nafxcw:wingdix.obj
 0001:000251e2       ??1CRgn@@UAE@XZ            004261e2 f i nafxcw:wingdix.obj
 0001:000251ed       ?CreateRectRgn@CRgn@@QAEHHHHH@Z 004261ed f i nafxcw:wingdix.obj
 0001:00025212       ?CreateRectRgnIndirect@CRgn@@QAEHPBUtagRECT@@@Z 00426212 f i nafxcw:wingdix.obj
 0001:0002522b       ?SetRectRgn@CRgn@@QAEXPBUtagRECT@@@Z 0042622b f i nafxcw:wingdix.obj
 0001:00025246       ?CombineRgn@CRgn@@QAEHPAV1@0H@Z 00426246 f i nafxcw:wingdix.obj
 0001:00025272       ?GetDeviceCaps@CDC@@QBEHH@Z 00426272 f i nafxcw:wingdix.obj
 0001:00025282       ?GetMapMode@CDC@@QBEHXZ    00426282 f i nafxcw:wingdix.obj
 0001:0002528c       ?PatBlt@CDC@@QAEHHHHHK@Z   0042628c f i nafxcw:wingdix.obj
 0001:000252ab       ??_ECRgn@@UAEPAXI@Z        004262ab f i nafxcw:wingdix.obj
 0001:000252ab       ??_GCRgn@@UAEPAXI@Z        004262ab f i nafxcw:wingdix.obj
 0001:000252c7       ?ShowOwnedPopups@CWnd@@QAEXH@Z 004262c7 f i nafxcw:appui.obj
 0001:000252d7       ??ACRecentFileList@@QAEAAV?$CStringT@DV?$StrTraitMFC@DV?$ChTraitsCRT@D@ATL@@@@@ATL@@H@Z 004262d7 f i nafxcw:appui.obj
 0001:000252e4       ?DeleteMenu@CMenu@@QAEHII@Z 004262e4 f i nafxcw:filelist.obj
 0001:000252f8       ?InsertMenuA@CMenu@@QAEHIIIPBD@Z 004262f8 f i nafxcw:filelist.obj
 0001:00025314       ?GetBuffer@?$CSimpleStringT@D$0A@@ATL@@QAEPADXZ 00426314 f i nafxcw:appui2.obj
 0001:0002532e       ?GetFileTitle@@YGFPBDPADG@Z 0042632e f i nafxcw:filecore.obj
 0001:00025334       ??1CFileException@@UAE@XZ  00426334 f i nafxcw:filecore.obj
 0001:00025345       ??_ECFileException@@UAEPAXI@Z 00426345 f i nafxcw:filecore.obj
 0001:00025345       ??_GCFileException@@UAEPAXI@Z 00426345 f i nafxcw:filecore.obj
 0001:00025361       ??0CFileException@@QAE@HJPBD@Z 00426361 f i nafxcw:filecore.obj
 0001:000253b4       ?SetFilePath@CFile@@UAEXPBD@Z 004263b4 f i nafxcw:filecore.obj
 0001:000253c9       __tcsdec                   004263c9 f i nafxcw:docmgr.obj
 0001:000253ce       ??_9@$BBEM@AE              004263ce f i nafxcw:docmgr.obj
 0001:000253d6       ?GetCount@CPtrList@@QBEHXZ 004263d6 f i nafxcw:docmgr.obj
 0001:000253da       ?GetHead@CPtrList@@QAEAAPAXXZ 004263da f i nafxcw:docmgr.obj
 0001:000253e1       ?IsIconic@CWnd@@QBEHXZ     004263e1 f i nafxcw:docmgr.obj
 0001:000253eb       ?Create@CDialog@@UAEHIPAVCWnd@@@Z 004263eb f i nafxcw:docmgr.obj
 0001:00025400       ?GetCount@CListBox@@QBEHXZ 00426400 f i nafxcw:docmgr.obj
 0001:00025413       ?GetCurSel@CListBox@@QBEHXZ 00426413 f i nafxcw:docmgr.obj
 0001:00025426       ?SetCurSel@CListBox@@QAEHH@Z 00426426 f i nafxcw:docmgr.obj
 0001:0002543d       ?SetItemData@CListBox@@QAEHHK@Z 0042643d f i nafxcw:docmgr.obj
 0001:00025456       ?GetItemDataPtr@CListBox@@QBEPAXH@Z 00426456 f i nafxcw:docmgr.obj
 0001:0002546d       ?SetItemDataPtr@CListBox@@QAEHHPAX@Z 0042646d f i nafxcw:docmgr.obj
 0001:00025472       ?AddString@CListBox@@QAEHPBD@Z 00426472 f i nafxcw:docmgr.obj
 0001:00025489       ?ResetContent@CListBox@@QAEXXZ 00426489 f i nafxcw:docmgr.obj
 0001:0002549c       ?Append@?$CSimpleStringT@D$0A@@ATL@@QAEXABV12@@Z 0042649c f i nafxcw:docmgr.obj
 0001:000254ae       ?IsValidFILETIME@CTime@ATL@@SGHABU_FILETIME@@@Z 004264ae f i nafxcw:filest.obj
 0001:000254dd       ??0CTime@ATL@@QAE@XZ       004264dd f i nafxcw:filest.obj
 0001:000254e7       ??0CTime@ATL@@QAE@HHHHHHH@Z 004264e7 f i nafxcw:filest.obj
 0001:00025547       ??0CTime@ATL@@QAE@ABU_SYSTEMTIME@@H@Z 00426547 f i nafxcw:filest.obj
 0001:0002559f       ??0CTime@ATL@@QAE@ABU_FILETIME@@H@Z 0042659f f i nafxcw:filest.obj
 0001:000255fd       ??4CTime@ATL@@QAEAAV01@_J@Z 004265fd f i nafxcw:filest.obj
 0001:0002560f       ?GetLocalTm@CTime@ATL@@QBEPAUtm@@PAU3@@Z 0042660f f i nafxcw:filest.obj
 0001:00025636       ?GetTime@CTime@ATL@@QBE_JXZ 00426636 f i nafxcw:filest.obj
 0001:0002563c       ?GetYear@CTime@ATL@@QBEHXZ 0042663c f i nafxcw:filest.obj
 0001:00025653       ?GetMonth@CTime@ATL@@QBEHXZ 00426653 f i nafxcw:filest.obj
 0001:00025666       ?GetDay@CTime@ATL@@QBEHXZ  00426666 f i nafxcw:filest.obj
 0001:00025678       ?GetHour@CTime@ATL@@QBEHXZ 00426678 f i nafxcw:filest.obj
 0001:0002568b       ?GetMinute@CTime@ATL@@QBEHXZ 0042668b f i nafxcw:filest.obj
 0001:0002569e       ?GetSecond@CTime@ATL@@QBEHXZ 0042669e f i nafxcw:filest.obj
 0001:000256b0       ??_9@$BBFA@AE              004266b0 f i nafxcw:dlgcore.obj
 0001:000256b8       ?GetNextDlgTabItem@CWnd@@QBEPAV1@PAV1@H@Z 004266b8 f i nafxcw:dlgcore.obj
 0001:000256da       ??1CCommonDialog@@UAE@XZ   004266da f i nafxcw:dlgfile.obj
 0001:000256df       ??0CCommonDialog@@QAE@PAVCWnd@@@Z 004266df f i nafxcw:dlgfile.obj
 0001:000256f3       ?_JumpToContinuation@@YGXPAXPAUEHRegistrationNode@@@Z 004266f3 f   libcmt:trnsctrl.obj
 0001:00025723       ?_CallMemberFunction0@@YGXPAX0@Z 00426723 f   libcmt:trnsctrl.obj
 0001:0002572a       ?_CallMemberFunction1@@YGXPAX00@Z 0042672a f   libcmt:trnsctrl.obj
 0001:00025731       ?_CallMemberFunction2@@YGXPAX00H@Z 00426731 f   libcmt:trnsctrl.obj
 0001:00025738       ?_UnwindNestedFrames@@YGXPAUEHRegistrationNode@@PAUEHExceptionRecord@@@Z 00426738 f   libcmt:trnsctrl.obj
 0001:0002578a       ___CxxFrameHandler         0042678a f   libcmt:trnsctrl.obj
 0001:000257c0       ___CxxLongjmpUnwind@4      004267c0 f   libcmt:trnsctrl.obj
 0001:00025815       ?_CallSETranslator@@YAHPAUEHExceptionRecord@@PAUEHRegistrationNode@@PAX2PBU_s_FuncInfo@@H1@Z 00426815 f   libcmt:trnsctrl.obj
 0001:0002598e       ?_GetRangeOfTrysToCheck@@YAPBU_s_TryBlockMapEntry@@PBU_s_FuncInfo@@HHPAI1@Z 0042698e f   libcmt:trnsctrl.obj
 0001:00025a08       ?_CreateFrameInfo@@YAPAUFrameInfo@@PAU1@PAX@Z 00426a08 f   libcmt:trnsctrl.obj
 0001:00025a30       ?IsExceptionObjectToBeDestroyed@@YAHPAX@Z 00426a30 f   libcmt:trnsctrl.obj
 0001:00025a51       ?_FindAndUnlinkFrame@@YAXPAUFrameInfo@@@Z 00426a51 f   libcmt:trnsctrl.obj
 0001:00025a9d       ?_CallCatchBlock2@@YAPAXPAUEHRegistrationNode@@PBU_s_FuncInfo@@PAXHK@Z 00426a9d f   libcmt:trnsctrl.obj
 0001:00025b27       @__security_check_cookie@4 00426b27 f   libcmt:secchk.obj
 0001:00025b40       __chkstk                   00426b40 f   libcmt:chkstk.obj
 0001:00025b40       __alloca_probe             00426b40     libcmt:chkstk.obj
 0001:00025b80       __global_unwind2           00426b80 f   libcmt:exsup.obj
 0001:00025bc2       __local_unwind2            00426bc2 f   libcmt:exsup.obj
 0001:00025c1a       __NLG_Return2              00426c1a     libcmt:exsup.obj
 0001:00025c2a       __abnormal_termination     00426c2a f   libcmt:exsup.obj
 0001:00025c4d       __NLG_Notify1              00426c4d f   libcmt:exsup.obj
 0001:00025c56       __NLG_Notify               00426c56 f   libcmt:exsup.obj
 0001:00025c69       __NLG_Dispatch             00426c69     libcmt:exsup.obj
 0001:00025c70       _memmove                   00426c70 f   libcmt:memmove.obj
 0001:00025fad       __CxxThrowException@8      00426fad f   libcmt:throw.obj
 0001:00025fe7       ??0exception@@QAE@XZ       00426fe7 f   libcmt:stdexcpt.obj
 0001:00025ff8       ??0exception@@QAE@ABQBD@Z  00426ff8 f   libcmt:stdexcpt.obj
 0001:00026040       ??0exception@@QAE@ABV0@@Z  00427040 f   libcmt:stdexcpt.obj
 0001:00026092       ??1exception@@UAE@XZ       00427092 f   libcmt:stdexcpt.obj
 0001:000260a8       ?what@exception@@UBEPBDXZ  004270a8 f   libcmt:stdexcpt.obj
 0001:000260b5       ??0bad_cast@@QAE@PBD@Z     004270b5 f   libcmt:stdexcpt.obj
 0001:000260ce       ??0bad_cast@@QAE@ABV0@@Z   004270ce f   libcmt:stdexcpt.obj
 0001:000260e6       ??1bad_cast@@UAE@XZ        004270e6 f   libcmt:stdexcpt.obj
 0001:000260f1       ??0bad_typeid@@QAE@PBD@Z   004270f1 f   libcmt:stdexcpt.obj
 0001:0002610a       ??0bad_typeid@@QAE@ABV0@@Z 0042710a f   libcmt:stdexcpt.obj
 0001:00026122       ??1bad_typeid@@UAE@XZ      00427122 f   libcmt:stdexcpt.obj
 0001:0002612d       ??0__non_rtti_object@@QAE@PBD@Z 0042712d f   libcmt:stdexcpt.obj
 0001:00026145       ??0__non_rtti_object@@QAE@ABV0@@Z 00427145 f   libcmt:stdexcpt.obj
 0001:0002615d       ??1__non_rtti_object@@UAE@XZ 0042715d f   libcmt:stdexcpt.obj
 0001:00026168       ??_Eexception@@UAEPAXI@Z   00427168 f i libcmt:stdexcpt.obj
 0001:00026168       ??_Gexception@@UAEPAXI@Z   00427168 f i libcmt:stdexcpt.obj
 0001:00026184       ??4exception@@QAEAAV0@ABV0@@Z 00427184 f   libcmt:stdexcpt.obj
 0001:000261a3       ??_Gbad_cast@@UAEPAXI@Z    004271a3 f i libcmt:stdexcpt.obj
 0001:000261a3       ??_Ebad_cast@@UAEPAXI@Z    004271a3 f i libcmt:stdexcpt.obj
 0001:000261bf       ??_Gbad_typeid@@UAEPAXI@Z  004271bf f i libcmt:stdexcpt.obj
 0001:000261bf       ??_Ebad_typeid@@UAEPAXI@Z  004271bf f i libcmt:stdexcpt.obj
 0001:000261db       ??_E__non_rtti_object@@UAEPAXI@Z 004271db f i libcmt:stdexcpt.obj
 0001:000261db       ??_G__non_rtti_object@@UAEPAXI@Z 004271db f i libcmt:stdexcpt.obj
 0001:000261f7       ??1type_info@@UAE@XZ       004271f7 f   libcmt:typinfo.obj
 0001:0002623d       ??_Etype_info@@UAEPAXI@Z   0042723d f i libcmt:typinfo.obj
 0001:0002623d       ??_Gtype_info@@UAEPAXI@Z   0042723d f i libcmt:typinfo.obj
 0001:00026259       ??8type_info@@QBEHABV0@@Z  00427259 f   libcmt:typinfo.obj
 0001:00026274       ??9type_info@@QBEHABV0@@Z  00427274 f   libcmt:typinfo.obj
 0001:00026290       ?before@type_info@@QBEHABV1@@Z 00427290 f   libcmt:typinfo.obj
 0001:000262af       ?raw_name@type_info@@QBEPBDXZ 004272af f   libcmt:typinfo.obj
 0001:000262b3       ??0type_info@@AAE@ABV0@@Z  004272b3 f   libcmt:typinfo.obj
 0001:000262be       ??4type_info@@AAEAAV0@ABV0@@Z 004272be f   libcmt:typinfo.obj
 0001:00026343       ___onexitinit              00427343 f   libcmt:onexit.obj
 0001:0002636b       __onexit                   0042736b f   libcmt:onexit.obj
 0001:000263a3       _atexit                    004273a3 f   libcmt:onexit.obj
 0001:000263b5       _time                      004273b5 f   libcmt:time.obj
 0001:000263ee       _srand                     004273ee f   libcmt:rand.obj
 0001:000263fb       _rand                      004273fb f   libcmt:rand.obj
 0001:0002641d       _atol                      0042741d f   libcmt:atox.obj
 0001:000264a5       _atoi                      004274a5 f   libcmt:atox.obj
 0001:000264aa       __atoi64                   004274aa f   libcmt:atox.obj
 0001:00026551       __mbscmp                   00427551 f   libcmt:mbscmp.obj
 0001:000265e5       __time64                   004275e5 f   libcmt:time64.obj
 0001:00026621       __Getdays                  00427621 f   libcmt:strftime.obj
 0001:000266a0       __Getmonths                004276a0 f   libcmt:strftime.obj
 0001:00026735       __Gettnames                00427735 f   libcmt:strftime.obj
 0001:00027127       __Strftime_mt              00428127 f   libcmt:strftime.obj
 0001:000271ea       __Strftime                 004281ea f   libcmt:strftime.obj
 0001:0002721c       _strftime                  0042821c f   libcmt:strftime.obj
 0001:00027237       __localtime64              00428237 f   libcmt:loctim64.obj
 0001:00027445       _sprintf                   00428445 f   libcmt:sprintf.obj
 0001:0002749d       __scprintf                 0042849d f   libcmt:sprintf.obj
 0001:000274ce       __heap_alloc               004284ce f   libcmt:malloc.obj
 0001:00027549       __nh_malloc                00428549 f   libcmt:malloc.obj
 0001:00027575       _malloc                    00428575 f   libcmt:malloc.obj
 0001:00027587       _free                      00428587 f   libcmt:free.obj
 0001:000275f8       __resetstkoflw             004285f8 f   libcmt:resetstk.obj
 0001:000276e4       __except_handler3          004286e4 f   libcmt:exsup3.obj
 0001:000277ca       __seh_longjmp_unwind@4     004287ca f   libcmt:exsup3.obj
 0001:000277e5       _wcscat                    004287e5 f   libcmt:wcscat.obj
 0001:0002780f       _wcscpy                    0042880f f   libcmt:wcscat.obj
 0001:0002782b       __mbsstr                   0042882b f   libcmt:mbsstr.obj
 0001:000278dd       __mbsupr                   004288dd f   libcmt:mbsupr.obj
 0001:00027962       __fpclear                  00428962 f   libcmt:fpinit.obj
 0001:00027963       __cfltcvt_init             00428963 f   libcmt:fpinit.obj
 0001:0002799b       ___setfflag                0042899b f   libcmt:fpinit.obj
 0001:000279ab       __fpmath                   004289ab f   libcmt:fpinit.obj
 0001:000279c9       __vsnprintf                004289c9 f   libcmt:vsnprint.obj
 0001:00027a1f       __purecall                 00428a1f f   libcmt:purevirt.obj
 0001:00027a33       __set_purecall_handler     00428a33 f   libcmt:purevirt.obj
 0001:00027a43       __endthreadex              00428a43 f   libcmt:threadex.obj
 0001:00027b09       __beginthreadex            00428b09 f   libcmt:threadex.obj
 0001:00027ba0       __alldiv                   00428ba0 f   libcmt:lldiv.obj
 0001:00027c4a       __mbsnbcpy                 00428c4a f   libcmt:mbsnbcpy.obj
 0001:00027cdd       __mbsrchr                  00428cdd f   libcmt:mbsrchr.obj
 0001:00027d50       _strncpy                   00428d50 f   libcmt:strncpy.obj
 0001:00027e74       __snprintf                 00428e74 f   libcmt:snprintf.obj
 0001:00027ecb       _sscanf                    00428ecb f   libcmt:sscanf.obj
 0001:00027eff       __fclose_lk                00428eff f   libcmt:fclose.obj
 0001:00027f4b       _fclose                    00428f4b f   libcmt:fclose.obj
 0001:00027f9c       _fprintf                   00428f9c f   libcmt:fprintf.obj
 0001:00027ffa       __fsopen                   00428ffa f   libcmt:fopen.obj
 0001:00028056       _fopen                     00429056 f   libcmt:fopen.obj
 0001:00028069       __fread_lk                 00429069 f   libcmt:fread.obj
 0001:00028152       _fread                     00429152 f   libcmt:fread.obj
 0001:0002819e       __fseek_lk                 0042919e f   libcmt:fseek.obj
 0001:0002822d       _fseek                     0042922d f   libcmt:fseek.obj
 0001:00028276       __findclose                00429276 f   libcmt:findfile.obj
 0001:00028296       ___timet_from_ft           00429296 f   libcmt:findfile.obj
 0001:000282fa       __findfirst                004292fa f   libcmt:findfile.obj
 0001:000283dc       __findnext                 004293dc f   libcmt:findfile.obj
 0001:000284b9       __fwrite_lk                004294b9 f   libcmt:fwrite.obj
 0001:000285c0       _fwrite                    004295c0 f   libcmt:fwrite.obj
 0001:0002860c       _wcslen                    0042960c f   libcmt:wcslen.obj
 0001:00028624       __ftol2                    00429624 f   libcmt:ftol2.obj
 0001:000286b0       _strchr                    004296b0 f   libcmt:strchr.obj
 0001:000286b6       ___from_strstr_to_strchr   004296b6     libcmt:strchr.obj
 0001:0002876e       __mbsinc                   0042976e f   libcmt:mbsinc.obj
 0001:0002878a       __ismbcspace               0042978a f   libcmt:ismbspc.obj
 0001:0002880e       __mbslwr                   0042980e f   libcmt:mbslwr.obj
 0001:00028893       __flush                    00429893 f   libcmt:fflush.obj
 0001:000288f0       __fflush_lk                004298f0 f   libcmt:fflush.obj
 0001:000289f3       _fflush                    004299f3 f   libcmt:fflush.obj
 0001:00028a43       __flushall                 00429a43 f   libcmt:fflush.obj
 0001:00028a4c       _fgetc                     00429a4c f   libcmt:fgetc.obj
 0001:00028a9c       _getc                      00429a9c f   libcmt:fgetc.obj
 0001:00028aec       __getwc_lk                 00429aec f   libcmt:fgetwc.obj
 0001:00028be0       _fgetwc                    00429be0 f   libcmt:fgetwc.obj
 0001:00028c22       _getwc                     00429c22 f   libcmt:fgetwc.obj
 0001:00028c27       __ftell_lk                 00429c27 f   libcmt:ftell.obj
 0001:00028d89       _ftell                     00429d89 f   libcmt:ftell.obj
 0001:00028dca       _vsprintf                  00429dca f   libcmt:vsprintf.obj
 0001:00028e21       __vscprintf                00429e21 f   libcmt:vsprintf.obj
 0001:00028e51       __filelength               00429e51 f   libcmt:flength.obj
 0001:00028f25       _atof                      00429f25 f   libcmt:atof.obj
 0001:00028f60       __allshl                   00429f60 f   libcmt:llshl.obj
 0001:00028f7f       _isleadbyte                00429f7f f   libcmt:_wctype.obj
 0001:00028f94       _iswalpha                  00429f94 f   libcmt:_wctype.obj
 0001:00028fa5       _iswupper                  00429fa5 f   libcmt:_wctype.obj
 0001:00028fb3       _iswlower                  00429fb3 f   libcmt:_wctype.obj
 0001:00028fc1       _iswdigit                  00429fc1 f   libcmt:_wctype.obj
 0001:00028fcf       _iswxdigit                 00429fcf f   libcmt:_wctype.obj
 0001:00028fe0       _iswspace                  00429fe0 f   libcmt:_wctype.obj
 0001:00028fee       _iswpunct                  00429fee f   libcmt:_wctype.obj
 0001:00028ffc       _iswalnum                  00429ffc f   libcmt:_wctype.obj
 0001:0002900d       _iswprint                  0042a00d f   libcmt:_wctype.obj
 0001:0002901e       _iswgraph                  0042a01e f   libcmt:_wctype.obj
 0001:0002902f       _iswcntrl                  0042a02f f   libcmt:_wctype.obj
 0001:0002903d       _iswascii                  0042a03d f   libcmt:_wctype.obj
 0001:00029049       __amsg_exit                0042a049 f   libcmt:wincrt0.obj
 0001:000290e8       _WinMainCRTStartup         0042a0e8 f   libcmt:wincrt0.obj
 0001:000292bd       _fscanf                    0042a2bd f   libcmt:fscanf.obj
 0001:00029307       _localtime                 0042a307 f   libcmt:localtim.obj
 0001:00029487       _difftime                  0042a487 f   libcmt:difftime.obj
 0001:00029498       __ftol                     0042a498 f   libcmt:ftol.obj
 0001:000294c0       _memcpy                    0042a4c0 f   libcmt:memcpy.obj
 0001:00029800       _strlen                    0042a800 f   libcmt:strlen.obj
 0001:0002988c       __EH_prolog                0042a88c f   libcmt:ehprolog.obj
 0001:000298ab       _swprintf                  0042a8ab f   libcmt:swprintf.obj
 0001:0002991a       __scwprintf                0042a91a f   libcmt:swprintf.obj
 0001:0002994b       __mbschr                   0042a94b f   libcmt:mbschr.obj
 0001:000299c6       _realloc                   0042a9c6 f   libcmt:realloc.obj
 0001:00029b78       __SEH_prolog               0042ab78 f   libcmt:sehprolg.obj
 0001:00029bb3       __SEH_epilog               0042abb3 f   libcmt:sehprolg.obj
 0001:00029bd0       _memset                    0042abd0 f   libcmt:memset.obj
 0001:00029c42       ?__ArrayUnwind@@YGXPAXIHP6EX0@Z@Z 0042ac42 f   libcmt:ehvecdtr.obj
 0001:00029ca0       ??_M@YGXPAXIHP6EX0@Z@Z     0042aca0 f   libcmt:ehvecdtr.obj
 0001:00029d00       _memcmp                    0042ad00 f   libcmt:memcmp.obj
 0001:00029db8       _labs                      0042adb8 f   libcmt:labs.obj
 0001:00029dd0       __allmul                   0042add0 f   libcmt:llmul.obj
 0001:00029e04       __expand                   0042ae04 f   libcmt:expand.obj
 0001:00029eae       __msize                    0042aeae f   libcmt:msize.obj
 0001:0002a15d       ___updatetmbcinfo          0042b15d f   libcmt:mbctype.obj
 0001:0002a360       __getmbcp                  0042b360 f   libcmt:mbctype.obj
 0001:0002a370       __setmbcp                  0042b370 f   libcmt:mbctype.obj
 0001:0002a4c0       ___initmbctable            0042b4c0 f   libcmt:mbctype.obj
 0001:0002a4de       ___crtExitProcess          0042b4de f   libcmt:crt0dat.obj
 0001:0002a50e       __lockexit                 0042b50e f   libcmt:crt0dat.obj
 0001:0002a517       __unlockexit               0042b517 f   libcmt:crt0dat.obj
 0001:0002a556       __cinit                    0042b556 f   libcmt:crt0dat.obj
 0001:0002a683       _exit                      0042b683 f   libcmt:crt0dat.obj
 0001:0002a694       __exit                     0042b694 f   libcmt:crt0dat.obj
 0001:0002a6a5       __cexit                    0042b6a5 f   libcmt:crt0dat.obj
 0001:0002a6b4       __c_exit                   0042b6b4 f   libcmt:crt0dat.obj
 0001:0002a6c3       __strdup                   0042b6c3 f   libcmt:strdup.obj
 0001:0002a6ee       ??_L@YGXPAXIHP6EX0@Z1@Z    0042b6ee f   libcmt:ehvecctr.obj
 0001:0002a750       __errno                    0042b750 f   libcmt:dosmap.obj
 0001:0002a759       ___doserrno                0042b759 f   libcmt:dosmap.obj
 0001:0002a762       __dosmaperr                0042b762 f   libcmt:dosmap.obj
 0001:0002a7d5       __mbsdec                   0042b7d5 f   libcmt:mbsdec.obj
 0001:0002a824       ___mbsspn_mt               0042b824 f   libcmt:mbsspn.obj
 0001:0002a89b       __mbsspn                   0042b89b f   libcmt:mbsspn.obj
 0001:0002a8c2       ___mbscspn_mt              0042b8c2 f   libcmt:mbscspn.obj
 0001:0002a939       __mbscspn                  0042b939 f   libcmt:mbscspn.obj
 0001:0002abb0       __mktime64                 0042bbb0 f   libcmt:mktime64.obj
 0001:0002abbd       __mkgmtime64               0042bbbd f   libcmt:mktime64.obj
 0001:0002ac37       ___FrameUnwindToState      0042bc37 f   libcmt:frame.obj
 0001:0002ad35       ___DestructExceptionObject 0042bd35 f   libcmt:frame.obj
 0001:0002ad99       ?__uncaught_exception@@YA_NXZ 0042bd99 f   libcmt:frame.obj
 0001:0002adac       ___CxxRegisterExceptionObject 0042bdac f   libcmt:frame.obj
 0001:0002ae4f       ___CxxDetectRethrow        0042be4f f   libcmt:frame.obj
 0001:0002ae87       ___CxxUnregisterExceptionObject 0042be87 f   libcmt:frame.obj
 0001:0002af25       ___CxxQueryExceptionSize   0042bf25 f   libcmt:frame.obj
 0001:0002af29       ___CxxCallUnwindDtor       0042bf29 f   libcmt:frame.obj
 0001:0002af57       ___CxxCallUnwindVecDtor    0042bf57 f   libcmt:frame.obj
 0001:0002b2ce       ___CxxExceptionFilter      0042c2ce f   libcmt:frame.obj
 0001:0002b71c       ___InternalCxxFrameHandler 0042c71c f   libcmt:frame.obj
 0001:0002b7be       ___crtTlsAlloc@4           0042c7be f   libcmt:tidtable.obj
 0001:0002b7c7       __mtterm                   0042c7c7 f   libcmt:tidtable.obj
 0001:0002b7e4       __initptd                  0042c7e4 f   libcmt:tidtable.obj
 0001:0002b7f7       __getptd                   0042c7f7 f   libcmt:tidtable.obj
 0001:0002b868       __freefls@4                0042c868 f   libcmt:tidtable.obj
 0001:0002b9af       __freeptd                  0042c9af f   libcmt:tidtable.obj
 0001:0002b9de       ___threadid                0042c9de f   libcmt:tidtable.obj
 0001:0002b9e4       ___threadhandle            0042c9e4 f   libcmt:tidtable.obj
 0001:0002b9ea       __mtinit                   0042c9ea f   libcmt:tidtable.obj
 0001:0002bad9       ?terminate@@YAXXZ          0042cad9 f   libcmt:hooks.obj
 0001:0002bb0e       ?unexpected@@YAXXZ         0042cb0e f   libcmt:hooks.obj
 0001:0002bb26       ?_inconsistency@@YAXXZ     0042cb26 f   libcmt:hooks.obj
 0001:0002bb60       __CallSettingFrame@12      0042cb60 f   libcmt:lowhelpr.obj
 0001:0002bb87       __NLG_Return               0042cb87     libcmt:lowhelpr.obj
 0001:0002bbac       ___security_init_cookie    0042cbac f   libcmt:seccinit.obj
 0001:0002bc12       ___security_error_handler  0042cc12 f   libcmt:secfail.obj
 0001:0002bd5d       __set_security_error_handler 0042cd5d f   libcmt:secfail.obj
 0001:0002bd6d       ___buffer_overrun          0042cd6d f   libcmt:secfail.obj
 0001:0002bd79       ___set_buffer_overrun_handler 0042cd79 f   libcmt:secfail.obj
 0001:0002bd89       ?__CxxUnhandledExceptionFilter@@YGJPAU_EXCEPTION_POINTERS@@@Z 0042cd89 f   libcmt:unhandld.obj
 0001:0002bdd7       ?__CxxSetUnhandledExceptionFilter@@YAHXZ 0042cdd7 f   libcmt:unhandld.obj
 0001:0002bdea       ?__CxxRestoreUnhandledExceptionFilter@@YAXXZ 0042cdea f   libcmt:unhandld.obj
 0001:0002be00       _strcpy                    0042ce00 f   libcmt:strcat.obj
 0001:0002be10       _strcat                    0042ce10 f   libcmt:strcat.obj
 0001:0002bef8       __mtinitlocks              0042cef8 f   libcmt:mlock.obj
 0001:0002bf41       __mtdeletelocks            0042cf41 f   libcmt:mlock.obj
 0001:0002bf96       __unlock                   0042cf96 f   libcmt:mlock.obj
 0001:0002bfab       __lockerr_exit             0042cfab f   libcmt:mlock.obj
 0001:0002bfc3       __mtinitlocknum            0042cfc3 f   libcmt:mlock.obj
 0001:0002c063       __lock                     0042d063 f   libcmt:mlock.obj
 0001:0002c0a0       _strcmp                    0042d0a0 f   libcmt:strcmp.obj
 0001:0002c130       __aulldiv                  0042d130 f   libcmt:ulldiv.obj
 0001:0002c198       ___isctype_mt              0042d198 f   libcmt:isctype.obj
 0001:0002c20f       __isctype                  0042d20f f   libcmt:isctype.obj
 0001:0002c236       ____setlc_active_func      0042d236 f   libcmt:setlocal.obj
 0001:0002c23c       ____unguarded_readlc_active_add_func 0042d23c f   libcmt:setlocal.obj
 0001:0002c242       ___freetlocinfo            0042d242 f   libcmt:setlocal.obj
 0001:0002c3d3       ___init_dummy              0042d3d3 f   libcmt:setlocal.obj
 0001:0002c3d6       __strcats                  0042d3d6 f   libcmt:setlocal.obj
 0001:0002c3fa       ___lc_strtolc              0042d3fa f   libcmt:setlocal.obj
 0001:0002c4d6       ___lc_lctostr              0042d4d6 f   libcmt:setlocal.obj
 0001:0002c524       ___updatetlocinfo          0042d524 f   libcmt:setlocal.obj
 0001:0002c639       __expandlocale             0042d639 f   libcmt:setlocal.obj
 0001:0002cc0a       _setlocale                 0042dc0a f   libcmt:setlocal.obj
 0001:0002d34b       ___tzset                   0042e34b f   libcmt:tzset.obj
 0001:0002d397       __tzset                    0042e397 f   libcmt:tzset.obj
 0001:0002d3cc       __isindst                  0042e3cc f   libcmt:tzset.obj
 0001:0002d410       ___ascii_stricmp           0042e410 f   libcmt:_stricmp.obj
 0001:0002d45e       __gmtime64                 0042e45e f   libcmt:gmtime64.obj
 0001:0002d690       __allrem                   0042e690 f   libcmt:llrem.obj
 0001:0002d742       __flsbuf                   0042e742 f   libcmt:_flsbuf.obj
 0001:0002d908       __output                   0042e908 f   libcmt:output.obj
 0001:0002e0c4       ___heap_select             0042f0c4 f   libcmt:heapinit.obj
 0001:0002e0de       __heap_init                0042f0de f   libcmt:heapinit.obj
 0001:0002e12f       __heap_term                0042f12f f   libcmt:heapinit.obj
 0001:0002e1ae       __get_heap_handle          0042f1ae f   libcmt:heapinit.obj
 0001:0002e1b4       __get_sbh_threshold        0042f1b4 f   libcmt:sbheap.obj
 0001:0002e1c9       ___sbh_heap_init           0042f1c9 f   libcmt:sbheap.obj
 0001:0002e211       ___sbh_find_block          0042f211 f   libcmt:sbheap.obj
 0001:0002e23c       ___sbh_free_block          0042f23c f   libcmt:sbheap.obj
 0001:0002e554       ___sbh_alloc_new_region    0042f554 f   libcmt:sbheap.obj
 0001:0002e60b       ___sbh_alloc_new_group     0042f60b f   libcmt:sbheap.obj
 0001:0002e711       ___sbh_resize_block        0042f711 f   libcmt:sbheap.obj
 0001:0002e9f0       ___sbh_heapmin             0042f9f0 f   libcmt:sbheap.obj
 0001:0002eac1       ___sbh_heap_check          0042fac1 f   libcmt:sbheap.obj
 0001:0002edda       __set_sbh_threshold        0042fdda f   libcmt:sbheap.obj
 0001:0002ee35       ___sbh_alloc_block         0042fe35 f   libcmt:sbheap.obj
 0001:0002f131       ?_set_new_handler@@YAP6AHI@ZP6AHI@Z@Z 00430131 f   libcmt:handler.obj
 0001:0002f155       ?_query_new_handler@@YAP6AHI@ZXZ 00430155 f   libcmt:handler.obj
 0001:0002f15b       __callnewh                 0043015b f   libcmt:handler.obj
 0001:0002f176       __ValidateEH3RN            00430176 f   libcmt:eh3valid.obj
 0001:0002f3a0       _strstr                    004303a0 f   libcmt:strstr.obj
 0001:0002f442       ___crtLCMapStringA         00430442 f   libcmt:a_map.obj
 0001:0002f818       __forcdecpt                00430818 f   libcmt:cvt.obj
 0001:0002f854       __cropzeros                00430854 f   libcmt:cvt.obj
 0001:0002f89f       __positive                 0043089f f   libcmt:cvt.obj
 0001:0002f8b9       __fassign                  004308b9 f   libcmt:cvt.obj
 0001:0002f9c2       __cftoe                    004309c2 f   libcmt:cvt.obj
 0001:0002face       __cftof                    00430ace f   libcmt:cvt.obj
 0001:0002fb35       __cftog                    00430b35 f   libcmt:cvt.obj
 0001:0002fbd4       __cfltcvt                  00430bd4 f   libcmt:cvt.obj
 0001:0002fc25       __setdefaultprecision      00430c25 f   libcmt:fp8.obj
 0001:0002fc37       __ms_p5_test_fdiv          00430c37 f   libcmt:testfdiv.obj
 0001:0002fc77       __ms_p5_mp_test_fdiv       00430c77 f   libcmt:testfdiv.obj
 0001:0002fccc       __XcptFilter               00430ccc f   libcmt:winxfltr.obj
 0001:0002fe30       ___CppXcptFilter           00430e30 f   libcmt:winxfltr.obj
 0001:0002fe4b       _calloc                    00430e4b f   libcmt:calloc.obj
 0001:0002ff30       _strrchr                   00430f30 f   libcmt:strrchr.obj
 0001:0002ffb5       __input                    00430fb5 f   libcmt:input.obj
 0001:00030de0       __close_lk                 00431de0 f   libcmt:close.obj
 0001:00030e63       __close                    00431e63 f   libcmt:close.obj
 0001:00030efe       __freebuf                  00431efe f   libcmt:_freebuf.obj
 0001:00030f29       ___iob_func                00431f29 f   libcmt:_file.obj
 0001:00030f2f       ___initstdio               00431f2f f   libcmt:_file.obj
 0001:00030fd8       ___endstdio                00431fd8 f   libcmt:_file.obj
 0001:00030fec       __lock_file                00431fec f   libcmt:_file.obj
 0001:0003101b       __lock_file2               0043201b f   libcmt:_file.obj
 0001:0003103e       __unlock_file              0043203e f   libcmt:_file.obj
 0001:0003106d       __unlock_file2             0043206d f   libcmt:_file.obj
 0001:00031090       __stbuf                    00432090 f   libcmt:_sftbuf.obj
 0001:00031118       __ftbuf                    00432118 f   libcmt:_sftbuf.obj
 0001:00031142       __openfile                 00432142 f   libcmt:_open.obj
 0001:000312aa       __getstream                004322aa f   libcmt:stream.obj
 0001:000313cc       __filbuf                   004323cc f   libcmt:_filbuf.obj
 0001:000314ad       __read_lk                  004324ad f   libcmt:read.obj
 0001:0003168a       __read                     0043268a f   libcmt:read.obj
 0001:00031735       __lseek_lk                 00432735 f   libcmt:lseek.obj
 0001:000317a9       __lseek                    004327a9 f   libcmt:lseek.obj
 0001:00031854       ___loctotime_t             00432854 f   libcmt:dtoxtime.obj
 0001:00031962       __write_lk                 00432962 f   libcmt:write.obj
 0001:00031b1e       __write                    00432b1e f   libcmt:write.obj
 0001:00031bc9       _isalpha                   00432bc9 f   libcmt:_ctype.obj
 0001:00031c08       _isupper                   00432c08 f   libcmt:_ctype.obj
 0001:00031c42       _islower                   00432c42 f   libcmt:_ctype.obj
 0001:00031c7c       _isdigit                   00432c7c f   libcmt:_ctype.obj
 0001:00031cb6       _isxdigit                  00432cb6 f   libcmt:_ctype.obj
 0001:00031cf5       _isspace                   00432cf5 f   libcmt:_ctype.obj
 0001:00031d2f       _ispunct                   00432d2f f   libcmt:_ctype.obj
 0001:00031d69       _isalnum                   00432d69 f   libcmt:_ctype.obj
 0001:00031da8       _isprint                   00432da8 f   libcmt:_ctype.obj
 0001:00031de7       _isgraph                   00432de7 f   libcmt:_ctype.obj
 0001:00031e26       _iscntrl                   00432e26 f   libcmt:_ctype.obj
 0001:00031e60       ___isascii                 00432e60 f   libcmt:_ctype.obj
 0001:00031e6d       ___toascii                 00432e6d f   libcmt:_ctype.obj
 0001:00031e75       ___iscsymf                 00432e75 f   libcmt:_ctype.obj
 0001:00031e8f       ___iscsym                  00432e8f f   libcmt:_ctype.obj
 0001:00031ea9       ___crtGetStringTypeA       00432ea9 f   libcmt:a_str.obj
 0001:00032063       __commit                   00433063 f   libcmt:commit.obj
 0001:0003211f       __filwbuf                  0043311f f   libcmt:_filwbuf.obj
 0001:0003220b       ___mbtowc_mt               0043320b f   libcmt:mbtowc.obj
 0001:000322cb       _mbtowc                    004332cb f   libcmt:mbtowc.obj
 0001:000322f6       __ungetc_lk                004332f6 f   libcmt:ungetc.obj
 0001:00032362       _ungetc                    00433362 f   libcmt:ungetc.obj
 0001:000323a7       ___pwctype_func            004333a7 f   libcmt:ctype.obj
 0001:000323ad       ___pctype_func             004333ad f   libcmt:ctype.obj
 0001:000323b3       __ioinit                   004333b3 f   libcmt:ioinit.obj
 0001:000325b1       __ioterm                   004335b1 f   libcmt:ioinit.obj
 0001:000325fd       __set_osfhnd               004335fd f   libcmt:osfinfo.obj
 0001:00032679       __free_osfhnd              00433679 f   libcmt:osfinfo.obj
 0001:000326f8       __get_osfhandle            004336f8 f   libcmt:osfinfo.obj
 0001:00032739       __lock_fhandle             00433739 f   libcmt:osfinfo.obj
 0001:000327d9       __unlock_fhandle           004337d9 f   libcmt:osfinfo.obj
 0001:000327fb       __alloc_osfhnd             004337fb f   libcmt:osfinfo.obj
 0001:00032977       __open_osfhandle           00433977 f   libcmt:osfinfo.obj
 0001:00032a3e       __fltin2                   00433a3e f   libcmt:cfin.obj
 0001:00032adf       ___iswctype_mt             00433adf f   libcmt:iswctype.obj
 0001:00032b36       _iswctype                  00433b36 f   libcmt:iswctype.obj
 0001:00032b88       _is_wctype                 00433b88 f   libcmt:iswctype.obj
 0001:00032b8d       __NMSG_WRITE               00433b8d f   libcmt:crt0msg.obj
 0001:00032d05       __GET_RTERRMSG             00433d05 f   libcmt:crt0msg.obj
 0001:00032d2f       __FF_MSGBANNER             00433d2f f   libcmt:crt0msg.obj
 0001:00032d68       __wincmdln                 00433d68 f   libcmt:wincmdln.obj
 0001:00032dc5       __setenvp                  00433dc5 f   libcmt:stdenvp.obj
 0001:00032ff8       __setargv                  00433ff8 f   libcmt:stdargv.obj
 0001:0003309a       ___crtGetEnvironmentStringsA 0043409a f   libcmt:a_env.obj
 0001:000331bc       __RTC_Initialize           004341bc f   libcmt:initsect.obj
 0001:00033200       __RTC_Terminate            00434200 f   libcmt:initsect.obj
 0001:00033244       _gmtime                    00434244 f   libcmt:gmtime.obj
 0001:000333e7       __woutput                  004343e7 f   libcmt:woutput.obj
 0001:00033be0       _strspn                    00434be0 f   libcmt:strspn.obj
 0001:00033c30       _strcspn                   00434c30 f   libcmt:strcspn.obj
 0001:00033c76       ?_ValidateRead@@YAHPBXI@Z  00434c76 f   libcmt:validate.obj
 0001:00033c92       ?_ValidateWrite@@YAHPAXI@Z 00434c92 f   libcmt:validate.obj
 0001:00033cae       ?_ValidateExecute@@YAHP6GHXZ@Z 00434cae f   libcmt:validate.obj
 0001:00033cc6       _abort                     00434cc6 f   libcmt:abort.obj
 0001:00033cde       ___crtMessageBoxA          00434cde f   libcmt:crtmbox.obj
 0001:00033de7       ___crtInitCritSecAndSpinCount 00434de7 f   libcmt:initcrit.obj
 0001:00033e72       _localeconv                00434e72 f   libcmt:lconv.obj
 0001:000341df       ___free_lc_time            004351df f   libcmt:inittime.obj
 0001:0003436f       ___init_time               0043536f f   libcmt:inittime.obj
 0001:00034401       ___free_lconv_num          00435401 f   libcmt:initnum.obj
 0001:00034460       ___init_numeric            00435460 f   libcmt:initnum.obj
 0001:00034660       ___free_lconv_mon          00435660 f   libcmt:initmon.obj
 0001:00034739       ___init_monetary           00435739 f   libcmt:initmon.obj
 0001:00034978       ___init_ctype              00435978 f   libcmt:initctyp.obj
 0001:00034b66       ____mb_cur_max_func        00435b66 f   libcmt:initctyp.obj
 0001:00034b6c       ____lc_codepage_func       00435b6c f   libcmt:initctyp.obj
 0001:00034b85       ____lc_collate_cp_func     00435b85 f   libcmt:initctyp.obj
 0001:00034b9e       ____lc_handle_func         00435b9e f   libcmt:initctyp.obj
 0001:00034bb7       ___init_collate            00435bb7 f   libcmt:initcoll.obj
 0001:0003530d       ___get_qualified_locale    0043630d f   libcmt:getqloc.obj
 0001:000354d0       _strncmp                   004364d0 f   libcmt:strncmp.obj
 0001:00035510       _strpbrk                   00436510 f   libcmt:strpbrk.obj
 0001:00035550       __getenv_lk                00436550 f   libcmt:getenv.obj
 0001:000355d1       _getenv                    004365d1 f   libcmt:getenv.obj
 0001:00035610       __getbuf                   00436610 f   libcmt:_getbuf.obj
 0001:00035654       __isatty                   00436654 f   libcmt:isatty.obj
 0001:0003567e       ___wctomb_mt               0043667e f   libcmt:wctomb.obj
 0001:000356de       _wctomb                    004366de f   libcmt:wctomb.obj
 0001:00035710       __aulldvrm                 00436710 f   libcmt:ulldvrm.obj
 0001:000357a5       ___ansicp                  004367a5 f   libcmt:convrtcp.obj
 0001:000357ec       ___convertcp               004367ec f   libcmt:convrtcp.obj
 0001:000359c6       __tolower                  004369c6 f   libcmt:tolower.obj
 0001:000359ce       ___tolower_mt              004369ce f   libcmt:tolower.obj
 0001:00035a96       _tolower                   00436a96 f   libcmt:tolower.obj
 0001:00035ab8       __ZeroTail                 00436ab8 f   libcmt:intrncvt.obj
 0001:00035aea       __IncMan                   00436aea f   libcmt:intrncvt.obj
 0001:00035b37       __RoundMan                 00436b37 f   libcmt:intrncvt.obj
 0001:00035ba9       __CopyMan                  00436ba9 f   libcmt:intrncvt.obj
 0001:00035bc4       __FillZeroMan              00436bc4 f   libcmt:intrncvt.obj
 0001:00035bd0       __IsZeroMan                00436bd0 f   libcmt:intrncvt.obj
 0001:00035be9       __ShrMan                   00436be9 f   libcmt:intrncvt.obj
 0001:00035c64       __ld12cvt                  00436c64 f   libcmt:intrncvt.obj
 0001:00035dbc       __ld12tod                  00436dbc f   libcmt:intrncvt.obj
 0001:00035dd2       __ld12tof                  00436dd2 f   libcmt:intrncvt.obj
 0001:00035de8       __ld12told                 00436de8 f   libcmt:intrncvt.obj
 0001:00035e64       __atodbl                   00436e64 f   libcmt:intrncvt.obj
 0001:00035ea9       __atoldbl                  00436ea9 f   libcmt:intrncvt.obj
 0001:00035eef       __atoflt                   00436eef f   libcmt:intrncvt.obj
 0001:00035f34       __fptostr                  00436f34 f   libcmt:_fptostr.obj
 0001:00035fab       ___dtold                   00436fab f   libcmt:cfout.obj
 0001:00036065       __fltout2                  00437065 f   libcmt:cfout.obj
 0001:000360dd       __fptrap                   004370dd f   libcmt:crt0fp.obj
 0001:000360e6       __fpreset                  004370e6 f   libcmt:ieee87.obj
 0001:0003626a       __statusfp                 0043726a f   libcmt:ieee87.obj
 0001:0003627a       __clearfp                  0043727a f   libcmt:ieee87.obj
 0001:0003628b       __control87                0043728b f   libcmt:ieee87.obj
 0001:000362bd       __controlfp                004372bd f   libcmt:ieee87.obj
 0001:000362d3       __fcloseall                004372d3 f   libcmt:closeall.obj
 0001:00036655       __open                     00437655 f   libcmt:open.obj
 0001:000366aa       __sopen                    004376aa f   libcmt:open.obj
 0001:000366ff       __lseeki64_lk              004376ff f   libcmt:lseeki64.obj
 0001:00036782       __lseeki64                 00437782 f   libcmt:lseeki64.obj
 0001:00036840       ___strgtold12              00437840 f   libcmt:strgtold.obj
 0001:00036c80       ___STRINGTOLD              00437c80 f   libcmt:strgtold.obj
 0001:00036cd5       ___crtGetStringTypeW       00437cd5 f   libcmt:w_str.obj
 0001:00036f2d       __ismbbkalnum              00437f2d f   libcmt:ismbbyte.obj
 0001:00036f3e       __ismbbkprint              00437f3e f   libcmt:ismbbyte.obj
 0001:00036f4f       __ismbbkpunct              00437f4f f   libcmt:ismbbyte.obj
 0001:00036f60       __ismbbalnum               00437f60 f   libcmt:ismbbyte.obj
 0001:00036f74       __ismbbalpha               00437f74 f   libcmt:ismbbyte.obj
 0001:00036f88       __ismbbgraph               00437f88 f   libcmt:ismbbyte.obj
 0001:00036f9c       __ismbbprint               00437f9c f   libcmt:ismbbyte.obj
 0001:00036fb0       __ismbbpunct               00437fb0 f   libcmt:ismbbyte.obj
 0001:00036fc1       __ismbblead                00437fc1 f   libcmt:ismbbyte.obj
 0001:00036fd2       __ismbbtrail               00437fd2 f   libcmt:ismbbyte.obj
 0001:00036fe3       __ismbbkana                00437fe3 f   libcmt:ismbbyte.obj
 0001:0003700a       __putwc_lk                 0043800a f   libcmt:fputwc.obj
 0001:000370e4       _fputwc                    004380e4 f   libcmt:fputwc.obj
 0001:0003712c       _putwc                     0043812c f   libcmt:fputwc.obj
 0001:000371ee       ___fpecode                 004381ee f   libcmt:winsig.obj
 0001:000371f7       ___pxcptinfoptrs           004381f7 f   libcmt:winsig.obj
 0001:00037200       _signal                    00438200 f   libcmt:winsig.obj
 0001:000373a1       _raise                     004383a1 f   libcmt:winsig.obj
 0001:0003751a       ___getlocaleinfo           0043851a f   libcmt:inithelp.obj
 0001:0003764a       __stricmp                  0043864a f   libcmt:stricmp.obj
 0001:000376b3       __strnicmp                 004386b3 f   libcmt:strnicmp.obj
 0001:00037770       __itoa                     00438770 f   libcmt:xtoa.obj
 0001:0003779a       __ltoa                     0043879a f   libcmt:xtoa.obj
 0001:000377c1       __ultoa                    004387c1 f   libcmt:xtoa.obj
 0001:00037848       __i64toa                   00438848 f   libcmt:xtoa.obj
 0001:00037879       __ui64toa                  00438879 f   libcmt:xtoa.obj
 0001:00037894       __mbsnbicoll               00438894 f   libcmt:mbsnbico.obj
 0001:000378e2       ___wtomb_environ           004388e2 f   libcmt:wtombenv.obj
 0001:00037972       ___addl                    00438972 f   libcmt:mantold.obj
 0001:00037993       ___add_12                  00438993 f   libcmt:mantold.obj
 0001:000379f1       ___shl_12                  004389f1 f   libcmt:mantold.obj
 0001:00037a1f       ___shr_12                  00438a1f f   libcmt:mantold.obj
 0001:00037a4c       ___mtold12                 00438a4c f   libcmt:mantold.obj
 0001:00037b34       _$I10_OUTPUT               00438b34 f   libcmt:x10fout.obj
 0001:00037dd0       __chsize_lk                00438dd0 f   libcmt:chsize.obj
 0001:00037f15       __chsize                   00438f15 f   libcmt:chsize.obj
 0001:00037fac       ___ld12mul                 00438fac f   libcmt:tenpow.obj
 0001:000381e2       ___multtenpow12            004391e2 f   libcmt:tenpow.obj
 0001:00038270       __flswbuf                  00439270 f   libcmt:_flswbuf.obj
 0001:00038398       ___crtGetLocaleInfoW       00439398 f   libcmt:w_loc.obj
 0001:000384c8       ___crtGetLocaleInfoA       004394c8 f   libcmt:a_loc.obj
 0001:00038610       ___ascii_strnicmp          00439610 f   libcmt:_strnicm.obj
 0001:0003868d       ___crtCompareStringA       0043968d f   libcmt:a_cmp.obj
 0001:00038ac5       ___crtsetenv               00439ac5 f   libcmt:setenv.obj
 0001:00038c9b       __setmode_lk               00439c9b f   libcmt:setmode.obj
 0001:00038d07       __setmode                  00439d07 f   libcmt:setmode.obj
 0001:00038d9e       _InitCommonControls@0      00439d9e f   comctl32:COMCTL32.dll
 0001:00038da4       _PathFindExtensionA@4      00439da4 f   shlwapi:SHLWAPI.dll
 0001:00038daa       _PathRemoveExtensionA@4    00439daa f   shlwapi:SHLWAPI.dll
 0001:00038db0       _PathFindFileNameA@4       00439db0 f   shlwapi:SHLWAPI.dll
 0001:00038db6       _PathStripToRootA@4        00439db6 f   shlwapi:SHLWAPI.dll
 0001:00038dbc       _PathIsUNCA@4              00439dbc f   shlwapi:SHLWAPI.dll
 0001:00038dc2       ?_Xran@_String_base@std@@QBEXXZ 00439dc2 f   libcpmt:string.obj
 0001:00038e02       ?_Xlen@_String_base@std@@QBEXXZ 00439e02 f   libcpmt:string.obj
 0001:00038e44       ?ffl_purecall_handler@?A0x3463d5ea@@$$FYAXXZ 00439e44 f   ffl_dumpr:ffl_dump_unexception_filter.obj
 0001:00038e60       ?ffl_purecall_handler@?A0x3463d5ea@@YAXXZ 00439e60 f   ffl_dumpr:ffl_dump_unexception_filter.obj
 0001:00038e68       ?make_file_name@?A0x3463d5ea@@$$FYAXPADIPBD1@Z 00439e68 f   ffl_dumpr:ffl_dump_unexception_filter.obj
 0001:00039010       ?make_file_name@?A0x3463d5ea@@YAXPADIPBD1@Z 0043a010 f   ffl_dumpr:ffl_dump_unexception_filter.obj
 0001:00039018       ?record@?A0x3463d5ea@@$$FYAXPAUffl_dump_param_t@@PBD@Z 0043a018 f   ffl_dumpr:ffl_dump_unexception_filter.obj
 0001:000390d0       ?record@?A0x3463d5ea@@YAXPAUffl_dump_param_t@@PBD@Z 0043a0d0 f   ffl_dumpr:ffl_dump_unexception_filter.obj
 0001:000390d8       ?ffl_dump_recod_function@?A0x3463d5ea@@$$FYGIPAX@Z 0043a0d8 f   ffl_dumpr:ffl_dump_unexception_filter.obj
 0001:00039100       ?ffl_dump_recod_function@?A0x3463d5ea@@YGIPAX@Z 0043a100 f   ffl_dumpr:ffl_dump_unexception_filter.obj
 0001:00039108       ??1ffl_dump_unexception_filter@@$$FQAE@XZ 0043a108 f   ffl_dumpr:ffl_dump_unexception_filter.obj
 0001:00039120       ??1ffl_dump_unexception_filter@@QAE@XZ 0043a120 f   ffl_dumpr:ffl_dump_unexception_filter.obj
 0001:00039128       ?top_level_filter@ffl_dump_unexception_filter@@$$FCGJPAU_EXCEPTION_POINTERS@@@Z 0043a128 f   ffl_dumpr:ffl_dump_unexception_filter.obj
 0001:000391b0       ?top_level_filter@ffl_dump_unexception_filter@@CGJPAU_EXCEPTION_POINTERS@@@Z 0043a1b0 f   ffl_dumpr:ffl_dump_unexception_filter.obj
 0001:000391b8       ?do_snapping@ffl_dump_unexception_filter@@$$FCAXHPAU_EXCEPTION_POINTERS@@@Z 0043a1b8 f   ffl_dumpr:ffl_dump_unexception_filter.obj
 0001:00039200       ?do_snapping@ffl_dump_unexception_filter@@CAXHPAU_EXCEPTION_POINTERS@@@Z 0043a200 f   ffl_dumpr:ffl_dump_unexception_filter.obj
 0001:00039208       ?install@ffl_dump_unexception_filter@@$$FSAXH@Z 0043a208 f   ffl_dumpr:ffl_dump_unexception_filter.obj
 0001:00039240       ?install@ffl_dump_unexception_filter@@SAXH@Z 0043a240 f   ffl_dumpr:ffl_dump_unexception_filter.obj
 0001:00039248       ?snapping@ffl_dump_unexception_filter@@$$FSAXH@Z 0043a248 f   ffl_dumpr:ffl_dump_unexception_filter.obj
 0001:000392a0       ?snapping@ffl_dump_unexception_filter@@SAXH@Z 0043a2a0 f   ffl_dumpr:ffl_dump_unexception_filter.obj
 0001:000392a8       ??0ffl_dump_unexception_filter@@$$FQAE@H@Z 0043a2a8 f   ffl_dumpr:ffl_dump_unexception_filter.obj
 0001:000392e0       ??0ffl_dump_unexception_filter@@QAE@H@Z 0043a2e0 f   ffl_dumpr:ffl_dump_unexception_filter.obj
 0001:000392e8       ??1ffl_date_time@@$$FQAE@XZ 0043a2e8 f   ffl_dumpr:ffl_date_time.obj
 0001:00039320       ??1ffl_date_time@@QAE@XZ   0043a320 f   ffl_dumpr:ffl_date_time.obj
 0001:00039328       ?update@ffl_date_time@@$$FQAEXXZ 0043a328 f   ffl_dumpr:ffl_date_time.obj
 0001:00039390       ?update@ffl_date_time@@QAEXXZ 0043a390 f   ffl_dumpr:ffl_date_time.obj
 0001:00039398       ?year@ffl_date_time@@$$FQBEHXZ 0043a398 f   ffl_dumpr:ffl_date_time.obj
 0001:000393b0       ?year@ffl_date_time@@QBEHXZ 0043a3b0 f   ffl_dumpr:ffl_date_time.obj
 0001:000393b8       ?month@ffl_date_time@@$$FQBEHXZ 0043a3b8 f   ffl_dumpr:ffl_date_time.obj
 0001:000393d0       ?month@ffl_date_time@@QBEHXZ 0043a3d0 f   ffl_dumpr:ffl_date_time.obj
 0001:000393d8       ?day@ffl_date_time@@$$FQBEHXZ 0043a3d8 f   ffl_dumpr:ffl_date_time.obj
 0001:000393f0       ?day@ffl_date_time@@QBEHXZ 0043a3f0 f   ffl_dumpr:ffl_date_time.obj
 0001:000393f8       ?hour@ffl_date_time@@$$FQBEHXZ 0043a3f8 f   ffl_dumpr:ffl_date_time.obj
 0001:00039410       ?hour@ffl_date_time@@QBEHXZ 0043a410 f   ffl_dumpr:ffl_date_time.obj
 0001:00039418       ?minute@ffl_date_time@@$$FQBEHXZ 0043a418 f   ffl_dumpr:ffl_date_time.obj
 0001:00039430       ?minute@ffl_date_time@@QBEHXZ 0043a430 f   ffl_dumpr:ffl_date_time.obj
 0001:00039438       ?second@ffl_date_time@@$$FQBEHXZ 0043a438 f   ffl_dumpr:ffl_date_time.obj
 0001:00039450       ?second@ffl_date_time@@QBEHXZ 0043a450 f   ffl_dumpr:ffl_date_time.obj
 0001:00039458       ?millisecond@ffl_date_time@@$$FQBEHXZ 0043a458 f   ffl_dumpr:ffl_date_time.obj
 0001:00039470       ?millisecond@ffl_date_time@@QBEHXZ 0043a470 f   ffl_dumpr:ffl_date_time.obj
 0001:00039478       ?day_of_week@ffl_date_time@@$$FQBEHXZ 0043a478 f   ffl_dumpr:ffl_date_time.obj
 0001:00039490       ?day_of_week@ffl_date_time@@QBEHXZ 0043a490 f   ffl_dumpr:ffl_date_time.obj
 0001:00039498       ??0ffl_date_time@@$$FQAE@XZ 0043a498 f   ffl_dumpr:ffl_date_time.obj
 0001:000394e0       ??0ffl_date_time@@QAE@XZ   0043a4e0 f   ffl_dumpr:ffl_date_time.obj
 0001:000394e8       ?ffl_vsnprintf_a@@$$FYAHPADIPBD0@Z 0043a4e8 f   ffl_dumpr:ffl_c_string.obj
 0001:00039510       ?ffl_vsnprintf_a@@YAHPADIPBD0@Z 0043a510 f   ffl_dumpr:ffl_c_string.obj
 0001:00039520       ?ffl_snprintf_a@@YAHPADIPBDZZ 0043a520 f   ffl_dumpr:ffl_c_string.obj
 0001:00039568       ?ffl_strncpy_a@@$$FYAHPADIPBDI@Z 0043a568 f   ffl_dumpr:ffl_c_string.obj
 0001:00039590       ?ffl_strncpy_a@@YAHPADIPBDI@Z 0043a590 f   ffl_dumpr:ffl_c_string.obj
 0001:00039598       ?ffl_splitpath_a@@$$FYAHPBDPADI1I1I1I@Z 0043a598 f   ffl_dumpr:ffl_c_string.obj
 0001:000395c0       ?ffl_splitpath_a@@YAHPBDPADI1I1I1I@Z 0043a5c0 f   ffl_dumpr:ffl_c_string.obj
 0001:000395c8       ?ffl_makepath_a@@$$FYAHPADIPBD111@Z 0043a5c8 f   ffl_dumpr:ffl_c_string.obj
 0001:000395f0       ?ffl_makepath_a@@YAHPADIPBD111@Z 0043a5f0 f   ffl_dumpr:ffl_c_string.obj
 0001:000395f8       ?ffl_vsnprintf_w@@$$FYAHPAGIPBGPAD@Z 0043a5f8 f   ffl_dumpr:ffl_c_string.obj
 0001:00039620       ?ffl_vsnprintf_w@@YAHPAGIPBGPAD@Z 0043a620 f   ffl_dumpr:ffl_c_string.obj
 0001:00039630       ?ffl_snprintf_w@@YAHPAGIPBGZZ 0043a630 f   ffl_dumpr:ffl_c_string.obj
 0001:00039678       ?ffl_strncpy_w@@$$FYAHPAGIPBGI@Z 0043a678 f   ffl_dumpr:ffl_c_string.obj
 0001:000396a0       ?ffl_strncpy_w@@YAHPAGIPBGI@Z 0043a6a0 f   ffl_dumpr:ffl_c_string.obj
 0001:000396a8       ?ffl_splitpath_w@@$$FYAHPBGPAGI1I1I1I@Z 0043a6a8 f   ffl_dumpr:ffl_c_string.obj
 0001:000396d0       ?ffl_splitpath_w@@YAHPBGPAGI1I1I1I@Z 0043a6d0 f   ffl_dumpr:ffl_c_string.obj
 0001:000396d8       ?ffl_makepath_w@@$$FYAHPAGIPBG111@Z 0043a6d8 f   ffl_dumpr:ffl_c_string.obj
 0001:00039700       ?ffl_makepath_w@@YAHPAGIPBG111@Z 0043a700 f   ffl_dumpr:ffl_c_string.obj
 0001:00039708       ??0ffl_dump_report@@$$FQAE@XZ 0043a708 f   ffl_dumpr:ffl_dump_report.obj
 0001:00039740       ??0ffl_dump_report@@QAE@XZ 0043a740 f   ffl_dumpr:ffl_dump_report.obj
 0001:00039748       ??1ffl_dump_report@@$$FQAE@XZ 0043a748 f   ffl_dumpr:ffl_dump_report.obj
 0001:00039760       ??1ffl_dump_report@@QAE@XZ 0043a760 f   ffl_dumpr:ffl_dump_report.obj
 0001:00039768       ?get_logical_address@ffl_dump_report@@$$FAAE_NPAXPADKPAK2@Z 0043a768 f   ffl_dumpr:ffl_dump_report.obj
 0001:00039820       ?get_logical_address@ffl_dump_report@@AAE_NPAXPADKPAK2@Z 0043a820 f   ffl_dumpr:ffl_dump_report.obj
 0001:00039828       ?inti_imagehlp_func@ffl_dump_report@@$$FAAE_NPAUHINSTANCE__@@@Z 0043a828 f   ffl_dumpr:ffl_dump_report.obj
 0001:000398e0       ?inti_imagehlp_func@ffl_dump_report@@AAE_NPAUHINSTANCE__@@@Z 0043a8e0 f   ffl_dumpr:ffl_dump_report.obj
 0001:000398e8       ?intel_stack_walk@ffl_dump_report@@$$FAAEXPAVffl_text_file@@PAU_CONTEXT@@@Z 0043a8e8 f   ffl_dumpr:ffl_dump_report.obj
 0001:000399d0       ?intel_stack_walk@ffl_dump_report@@AAEXPAVffl_text_file@@PAU_CONTEXT@@@Z 0043a9d0 f   ffl_dumpr:ffl_dump_report.obj
 0001:000399d8       ?imagehlp_stack_walk@ffl_dump_report@@$$FAAEXPAVffl_text_file@@PAU_CONTEXT@@PAX@Z 0043a9d8 f   ffl_dumpr:ffl_dump_report.obj
 0001:00039b40       ?imagehlp_stack_walk@ffl_dump_report@@AAEXPAVffl_text_file@@PAU_CONTEXT@@PAX@Z 0043ab40 f   ffl_dumpr:ffl_dump_report.obj
 0001:00039b48       ?generate_exception@ffl_dump_report@@$$FAAEXPAVffl_text_file@@PAUffl_dump_param_t@@@Z 0043ab48 f   ffl_dumpr:ffl_dump_report.obj
 0001:00039ce0       ?generate_exception@ffl_dump_report@@AAEXPAVffl_text_file@@PAUffl_dump_param_t@@@Z 0043ace0 f   ffl_dumpr:ffl_dump_report.obj
 0001:00039ce8       ?report@ffl_dump_report@@$$FAAEXPAVffl_text_file@@PAUffl_dump_param_t@@@Z 0043ace8 f   ffl_dumpr:ffl_dump_report.obj
 0001:00039d40       ?report@ffl_dump_report@@AAEXPAVffl_text_file@@PAUffl_dump_param_t@@@Z 0043ad40 f   ffl_dumpr:ffl_dump_report.obj
 0001:00039d48       ?dump@ffl_dump_report@@$$FQAEXPBDPAUffl_dump_param_t@@@Z 0043ad48 f   ffl_dumpr:ffl_dump_report.obj
 0001:00039dc0       ?dump@ffl_dump_report@@QAEXPBDPAUffl_dump_param_t@@@Z 0043adc0 f   ffl_dumpr:ffl_dump_report.obj
 0001:00039dc8       ?system_information_log@ffl_dump_log@@$$FAAEXPAVffl_text_file@@@Z 0043adc8 f   ffl_dumpr:ffl_dump_log.obj
 0001:00039fa0       ?system_information_log@ffl_dump_log@@AAEXPAVffl_text_file@@@Z 0043afa0 f   ffl_dumpr:ffl_dump_log.obj
 0001:00039fa8       ?register_log@ffl_dump_log@@$$FAAEXPAVffl_text_file@@PAU_CONTEXT@@@Z 0043afa8 f   ffl_dumpr:ffl_dump_log.obj
 0001:0003a070       ?register_log@ffl_dump_log@@AAEXPAVffl_text_file@@PAU_CONTEXT@@@Z 0043b070 f   ffl_dumpr:ffl_dump_log.obj
 0001:0003a080       ?stack_log@ffl_dump_log@@AAEXPAVffl_text_file@@PAK@Z 0043b080 f   ffl_dumpr:ffl_dump_log.obj
 0001:0003a250       ?print_module_info@ffl_dump_log@@$$FAAEXPAVffl_text_file@@PBD@Z 0043b250 f   ffl_dumpr:ffl_dump_log.obj
 0001:0003a310       ?print_module_info@ffl_dump_log@@AAEXPAVffl_text_file@@PBD@Z 0043b310 f   ffl_dumpr:ffl_dump_log.obj
 0001:0003a318       ?module_info_log@ffl_dump_log@@$$FAAE_NPAVffl_text_file@@PAUHINSTANCE__@@H@Z 0043b318 f   ffl_dumpr:ffl_dump_log.obj
 0001:0003a450       ?module_info_log@ffl_dump_log@@AAE_NPAVffl_text_file@@PAUHINSTANCE__@@H@Z 0043b450 f   ffl_dumpr:ffl_dump_log.obj
 0001:0003a458       ?module_list_log@ffl_dump_log@@$$FAAEXPAVffl_text_file@@@Z 0043b458 f   ffl_dumpr:ffl_dump_log.obj
 0001:0003a500       ?module_list_log@ffl_dump_log@@AAEXPAVffl_text_file@@@Z 0043b500 f   ffl_dumpr:ffl_dump_log.obj
 0001:0003a508       ?log@ffl_dump_log@@$$FAAEXPAVffl_text_file@@PAUffl_dump_param_t@@@Z 0043b508 f   ffl_dumpr:ffl_dump_log.obj
 0001:0003a6b0       ?log@ffl_dump_log@@AAEXPAVffl_text_file@@PAUffl_dump_param_t@@@Z 0043b6b0 f   ffl_dumpr:ffl_dump_log.obj
 0001:0003a6b8       ?dump@ffl_dump_log@@$$FQAEXPBDPAUffl_dump_param_t@@@Z 0043b6b8 f   ffl_dumpr:ffl_dump_log.obj
 0001:0003a730       ?dump@ffl_dump_log@@QAEXPBDPAUffl_dump_param_t@@@Z 0043b730 f   ffl_dumpr:ffl_dump_log.obj
 0001:0003a738       ?_tcsrchr@@$$J0YAPADPBDI@Z 0043b738 f i ffl_dumpr:ffl_dump_mini.obj
 0001:0003a74c       ?find_dll@ffl_dump_mini@@$$FAAEPAUHINSTANCE__@@XZ 0043b74c f   ffl_dumpr:ffl_dump_mini.obj
 0001:0003a7c0       ?find_dll@ffl_dump_mini@@AAEPAUHINSTANCE__@@XZ 0043b7c0 f   ffl_dumpr:ffl_dump_mini.obj
 0001:0003a7c8       ?write@ffl_dump_mini@@$$FAAEXPAXPAUffl_dump_param_t@@@Z 0043b7c8 f   ffl_dumpr:ffl_dump_mini.obj
 0001:0003a850       ?write@ffl_dump_mini@@AAEXPAXPAUffl_dump_param_t@@@Z 0043b850 f   ffl_dumpr:ffl_dump_mini.obj
 0001:0003a858       ?dump@ffl_dump_mini@@$$FQAEXPBDPAUffl_dump_param_t@@@Z 0043b858 f   ffl_dumpr:ffl_dump_mini.obj
 0001:0003a8a0       ?dump@ffl_dump_mini@@QAEXPBDPAUffl_dump_param_t@@@Z 0043b8a0 f   ffl_dumpr:ffl_dump_mini.obj
 0001:0003a8a8       ?ffl_get_win_version@@$$FYAXPADI0I@Z 0043b8a8 f   ffl_dumpr:ffl_dump_common.obj
 0001:0003ab50       ?ffl_get_win_version@@YAXPADI0I@Z 0043bb50 f   ffl_dumpr:ffl_dump_common.obj
 0001:0003ab58       ?ffl_formating_time@@$$FYAXPADIPAU_FILETIME@@@Z 0043bb58 f   ffl_dumpr:ffl_dump_common.obj
 0001:0003abc0       ?ffl_formating_time@@YAXPADIPAU_FILETIME@@@Z 0043bbc0 f   ffl_dumpr:ffl_dump_common.obj
 0001:0003abc8       ?ffl_get_exception_string@@$$FYAPBDK@Z 0043bbc8 f   ffl_dumpr:ffl_dump_common.obj
 0001:0003b0e0       ?ffl_get_exception_string@@YAPBDK@Z 0043c0e0 f   ffl_dumpr:ffl_dump_common.obj
 0001:0003b0f0       ?ffl_dump_print@@YAXPAVffl_text_file@@PBDZZ 0043c0f0 f   ffl_dumpr:ffl_dump_common.obj
 0001:0003b1a0       ??0ffl_text_file@@$$FQAE@XZ 0043c1a0 f   ffl_dumpr:ffl_text_file.obj
 0001:0003b1c0       ??0ffl_text_file@@QAE@XZ   0043c1c0 f   ffl_dumpr:ffl_text_file.obj
 0001:0003b1c8       ?create@ffl_text_file@@$$FQAE_NPBDII@Z 0043c1c8 f   ffl_dumpr:ffl_text_file.obj
 0001:0003b1f0       ?create@ffl_text_file@@QAE_NPBDII@Z 0043c1f0 f   ffl_dumpr:ffl_text_file.obj
 0001:0003b1f8       ?open@ffl_text_file@@$$FQAE_NPBDII@Z 0043c1f8 f   ffl_dumpr:ffl_text_file.obj
 0001:0003b220       ?open@ffl_text_file@@QAE_NPBDII@Z 0043c220 f   ffl_dumpr:ffl_text_file.obj
 0001:0003b228       ?close@ffl_text_file@@$$FQAEXXZ 0043c228 f   ffl_dumpr:ffl_text_file.obj
 0001:0003b240       ?close@ffl_text_file@@QAEXXZ 0043c240 f   ffl_dumpr:ffl_text_file.obj
 0001:0003b248       ?opened@ffl_text_file@@$$FQAE_NXZ 0043c248 f   ffl_dumpr:ffl_text_file.obj
 0001:0003b260       ?opened@ffl_text_file@@QAE_NXZ 0043c260 f   ffl_dumpr:ffl_text_file.obj
 0001:0003b268       ?write_text@ffl_text_file@@$$FQAEIPBDI@Z 0043c268 f   ffl_dumpr:ffl_text_file.obj
 0001:0003b2a0       ?write_text@ffl_text_file@@QAEIPBDI@Z 0043c2a0 f   ffl_dumpr:ffl_text_file.obj
 0001:0003b2a8       ?read_text@ffl_text_file@@$$FQAEIPADI@Z 0043c2a8 f   ffl_dumpr:ffl_text_file.obj
 0001:0003b2e0       ?read_text@ffl_text_file@@QAEIPADI@Z 0043c2e0 f   ffl_dumpr:ffl_text_file.obj
 0001:0003b2e8       ?read_line@ffl_text_file@@$$FQAEIPADI@Z 0043c2e8 f   ffl_dumpr:ffl_text_file.obj
 0001:0003b370       ?read_line@ffl_text_file@@QAEIPADI@Z 0043c370 f   ffl_dumpr:ffl_text_file.obj
 0001:0003b378       ?flush@ffl_text_file@@$$FQAE_NXZ 0043c378 f   ffl_dumpr:ffl_text_file.obj
 0001:0003b390       ?flush@ffl_text_file@@QAE_NXZ 0043c390 f   ffl_dumpr:ffl_text_file.obj
 0001:0003b398       ?size@ffl_text_file@@$$FQAE_KXZ 0043c398 f   ffl_dumpr:ffl_text_file.obj
 0001:0003b3b0       ?size@ffl_text_file@@QAE_KXZ 0043c3b0 f   ffl_dumpr:ffl_text_file.obj
 0001:0003b3b8       ??1ffl_text_file@@$$FQAE@XZ 0043c3b8 f   ffl_dumpr:ffl_text_file.obj
 0001:0003b400       ??1ffl_text_file@@QAE@XZ   0043c400 f   ffl_dumpr:ffl_text_file.obj
 0001:0003b408       ??0ffl_module_info@@$$FQAE@XZ 0043c408 f   ffl_dumpr:ffl_module_info.obj
 0001:0003b450       ??0ffl_module_info@@QAE@XZ 0043c450 f   ffl_dumpr:ffl_module_info.obj
 0001:0003b458       ?company_name@ffl_module_info@@$$FQBEPBDXZ 0043c458 f   ffl_dumpr:ffl_module_info.obj
 0001:0003b470       ?company_name@ffl_module_info@@QBEPBDXZ 0043c470 f   ffl_dumpr:ffl_module_info.obj
 0001:0003b478       ?product_name@ffl_module_info@@$$FQBEPBDXZ 0043c478 f   ffl_dumpr:ffl_module_info.obj
 0001:0003b490       ?product_name@ffl_module_info@@QBEPBDXZ 0043c490 f   ffl_dumpr:ffl_module_info.obj
 0001:0003b498       ?file_description@ffl_module_info@@$$FQBEPBDXZ 0043c498 f   ffl_dumpr:ffl_module_info.obj
 0001:0003b4b0       ?file_description@ffl_module_info@@QBEPBDXZ 0043c4b0 f   ffl_dumpr:ffl_module_info.obj
 0001:0003b4b8       ?file_version@ffl_module_info@@$$FQBEPBGXZ 0043c4b8 f   ffl_dumpr:ffl_module_info.obj
 0001:0003b4d0       ?file_version@ffl_module_info@@QBEPBGXZ 0043c4d0 f   ffl_dumpr:ffl_module_info.obj
 0001:0003b4d8       ?product_version@ffl_module_info@@$$FQBEPBGXZ 0043c4d8 f   ffl_dumpr:ffl_module_info.obj
 0001:0003b4f0       ?product_version@ffl_module_info@@QBEPBGXZ 0043c4f0 f   ffl_dumpr:ffl_module_info.obj
 0001:0003b4f8       ?query_fixed_info@ffl_module_info@@$$FAAE_NPAXPAUtagVS_FIXEDFILEINFO@@@Z 0043c4f8 f   ffl_dumpr:ffl_module_info.obj
 0001:0003b530       ?query_fixed_info@ffl_module_info@@AAE_NPAXPAUtagVS_FIXEDFILEINFO@@@Z 0043c530 f   ffl_dumpr:ffl_module_info.obj
 0001:0003b538       ?query_string_info@ffl_module_info@@$$FAAE_NPAXPBDPADI@Z 0043c538 f   ffl_dumpr:ffl_module_info.obj
 0001:0003b5d0       ?query_string_info@ffl_module_info@@AAE_NPAXPBDPADI@Z 0043c5d0 f   ffl_dumpr:ffl_module_info.obj
 0001:0003b5d8       ?load_info@ffl_module_info@@$$FQAE_NPBD@Z 0043c5d8 f   ffl_dumpr:ffl_module_info.obj
 0001:0003b6f0       ?load_info@ffl_module_info@@QAE_NPBD@Z 0043c6f0 f   ffl_dumpr:ffl_module_info.obj
 0001:0003b6f8       ??0ffl_file@@$$FQAE@XZ     0043c6f8 f   ffl_dumpr:ffl_file.obj
 0001:0003b710       ??0ffl_file@@QAE@XZ        0043c710 f   ffl_dumpr:ffl_file.obj
 0001:0003b718       ?create@ffl_file@@$$FQAE_NPBDII@Z 0043c718 f   ffl_dumpr:ffl_file.obj
 0001:0003b750       ?create@ffl_file@@QAE_NPBDII@Z 0043c750 f   ffl_dumpr:ffl_file.obj
 0001:0003b758       ?open@ffl_file@@$$FQAE_NPBDII@Z 0043c758 f   ffl_dumpr:ffl_file.obj
 0001:0003b790       ?open@ffl_file@@QAE_NPBDII@Z 0043c790 f   ffl_dumpr:ffl_file.obj
 0001:0003b798       ?close@ffl_file@@$$FQAEXXZ 0043c798 f   ffl_dumpr:ffl_file.obj
 0001:0003b7c0       ?close@ffl_file@@QAEXXZ    0043c7c0 f   ffl_dumpr:ffl_file.obj
 0001:0003b7c8       ?opened@ffl_file@@$$FQAE_NXZ 0043c7c8 f   ffl_dumpr:ffl_file.obj
 0001:0003b7e0       ?opened@ffl_file@@QAE_NXZ  0043c7e0 f   ffl_dumpr:ffl_file.obj
 0001:0003b7e8       ?read@ffl_file@@$$FQAEIPAXI@Z 0043c7e8 f   ffl_dumpr:ffl_file.obj
 0001:0003b820       ?read@ffl_file@@QAEIPAXI@Z 0043c820 f   ffl_dumpr:ffl_file.obj
 0001:0003b828       ?write@ffl_file@@$$FQAEIPBXI@Z 0043c828 f   ffl_dumpr:ffl_file.obj
 0001:0003b850       ?write@ffl_file@@QAEIPBXI@Z 0043c850 f   ffl_dumpr:ffl_file.obj
 0001:0003b858       ?seek@ffl_file@@$$FQAE_J_JH@Z 0043c858 f   ffl_dumpr:ffl_file.obj
 0001:0003b8b0       ?seek@ffl_file@@QAE_J_JH@Z 0043c8b0 f   ffl_dumpr:ffl_file.obj
 0001:0003b8b8       ?flush@ffl_file@@$$FQAE_NXZ 0043c8b8 f   ffl_dumpr:ffl_file.obj
 0001:0003b8e0       ?flush@ffl_file@@QAE_NXZ   0043c8e0 f   ffl_dumpr:ffl_file.obj
 0001:0003b8e8       ?size@ffl_file@@$$FQAE_KXZ 0043c8e8 f   ffl_dumpr:ffl_file.obj
 0001:0003b930       ?size@ffl_file@@QAE_KXZ    0043c930 f   ffl_dumpr:ffl_file.obj
 0001:0003b938       ??1ffl_file@@$$FQAE@XZ     0043c938 f   ffl_dumpr:ffl_file.obj
 0001:0003b960       ??1ffl_file@@QAE@XZ        0043c960 f   ffl_dumpr:ffl_file.obj
 0001:0003b966       ??0?$CSimpleArray@PAUHINSTANCE__@@V?$CSimpleArrayEqualHelper@PAUHINSTANCE__@@@ATL@@@ATL@@QAE@XZ 0043c966 f i atls:atlbase.obj
 0001:0003b973       ?GetSize@?$CSimpleArray@PAUHINSTANCE__@@V?$CSimpleArrayEqualHelper@PAUHINSTANCE__@@@ATL@@@ATL@@QBEHXZ 0043c973 f i atls:atlbase.obj
 0001:0003b977       ?RemoveAt@?$CSimpleArray@PAUHINSTANCE__@@V?$CSimpleArrayEqualHelper@PAUHINSTANCE__@@@ATL@@@ATL@@QAEHH@Z 0043c977 f i atls:atlbase.obj
 0001:0003b9ba       ?RemoveAll@?$CSimpleArray@PAUHINSTANCE__@@V?$CSimpleArrayEqualHelper@PAUHINSTANCE__@@@ATL@@@ATL@@QAEXXZ 0043c9ba f i atls:atlbase.obj
 0001:0003b9d7       ??0Wrapper@?$CSimpleArray@PAUHINSTANCE__@@V?$CSimpleArrayEqualHelper@PAUHINSTANCE__@@@ATL@@@ATL@@QAE@ABQAUHINSTANCE__@@@Z 0043c9d7 f i atls:atlbase.obj
 0001:0003b9e4       ??$?2PAUHINSTANCE__@@@Wrapper@?$CSimpleArray@PAUHINSTANCE__@@V?$CSimpleArrayEqualHelper@PAUHINSTANCE__@@@ATL@@@ATL@@SAPAXIPAPAUHINSTANCE__@@@Z 0043c9e4 f i atls:atlbase.obj
 0001:0003b9e9       ?Lock@CComCriticalSection@ATL@@QAEJXZ 0043c9e9 f i atls:atlbase.obj
 0001:0003b9f3       ?Unlock@CComCriticalSection@ATL@@QAEJXZ 0043c9f3 f i atls:atlbase.obj
 0001:0003b9fd       ?Lock@?$CComCritSecLock@VCComCriticalSection@ATL@@@ATL@@QAEJXZ 0043c9fd f i atls:atlbase.obj
 0001:0003ba10       ??1?$CSimpleArray@PAUHINSTANCE__@@V?$CSimpleArrayEqualHelper@PAUHINSTANCE__@@@ATL@@@ATL@@QAE@XZ 0043ca10 f i atls:atlbase.obj
 0001:0003ba15       ??A?$CSimpleArray@PAUHINSTANCE__@@V?$CSimpleArrayEqualHelper@PAUHINSTANCE__@@@ATL@@@ATL@@QAEAAPAUHINSTANCE__@@H@Z 0043ca15 f i atls:atlbase.obj
 0001:0003ba3c       ?InternalSetAtIndex@?$CSimpleArray@PAUHINSTANCE__@@V?$CSimpleArrayEqualHelper@PAUHINSTANCE__@@@ATL@@@ATL@@QAEXHABQAUHINSTANCE__@@@Z 0043ca3c f i atls:atlbase.obj
 0001:0003ba54       ?Unlock@?$CComCritSecLock@VCComCriticalSection@ATL@@@ATL@@QAEXXZ 0043ca54 f i atls:atlbase.obj
 0001:0003ba65       ??0?$CComCritSecLock@VCComCriticalSection@ATL@@@ATL@@QAE@AAVCComCriticalSection@1@_N@Z 0043ca65 f i atls:atlbase.obj
 0001:0003ba8e       ??1?$CComCritSecLock@VCComCriticalSection@ATL@@@ATL@@QAE@XZ 0043ca8e f i atls:atlbase.obj
 0001:0003baa5       ??0_ATL_BASE_MODULE70@ATL@@QAE@XZ 0043caa5 f i atls:atlbase.obj
 0001:0003babf       ??1_ATL_BASE_MODULE70@ATL@@QAE@XZ 0043cabf f i atls:atlbase.obj
 0001:0003bac7       ??1CAtlBaseModule@ATL@@QAE@XZ 0043cac7 f   atls:atlbase.obj
 0001:0003badd       ?RemoveResourceInstance@CAtlBaseModule@ATL@@QAE_NPAUHINSTANCE__@@@Z 0043cadd f   atls:atlbase.obj
 0001:0003bb36       ?GetHInstanceAt@CAtlBaseModule@ATL@@QAEPAUHINSTANCE__@@H@Z 0043cb36 f   atls:atlbase.obj
 0001:0003bb84       ?Add@?$CSimpleArray@PAUHINSTANCE__@@V?$CSimpleArrayEqualHelper@PAUHINSTANCE__@@@ATL@@@ATL@@QAEHABQAUHINSTANCE__@@@Z 0043cb84 f i atls:atlbase.obj
 0001:0003bbcf       ??0CAtlBaseModule@ATL@@QAE@XZ 0043cbcf f   atls:atlbase.obj
 0001:0003bc7e       ?AddResourceInstance@CAtlBaseModule@ATL@@QAE_NPAUHINSTANCE__@@@Z 0043cc7e f   atls:atlbase.obj
 0001:0003bcba       _CreateStdAccessibleObject@16 0043ccba f   oleacc:OLEACC.dll
 0001:0003bcc0       _AccessibleObjectFromWindow@16 0043ccc0 f   oleacc:OLEACC.dll
 0001:0003bcc6       _LresultFromObject@12      0043ccc6 f   oleacc:OLEACC.dll
 0001:0003bccc       _LocalFree@4               0043cccc f   kernel32:KERNEL32.dll
 0001:0003bcd2       _FormatMessageA@28         0043ccd2 f   kernel32:KERNEL32.dll
 0001:0003bcd8       _GlobalUnlock@4            0043ccd8 f   kernel32:KERNEL32.dll
 0001:0003bcde       _GlobalLock@4              0043ccde f   kernel32:KERNEL32.dll
 0001:0003bce4       _GlobalAlloc@8             0043cce4 f   kernel32:KERNEL32.dll
 0001:0003bcea       _GlobalSize@4              0043ccea f   kernel32:KERNEL32.dll
 0001:0003bcf0       _MulDiv@12                 0043ccf0 f   kernel32:KERNEL32.dll
 0001:0003bcf6       _CopyFileA@12              0043ccf6 f   kernel32:KERNEL32.dll
 0001:0003bcfc       _GlobalFree@4              0043ccfc f   kernel32:KERNEL32.dll
 0001:0003bd02       _SetLastError@4            0043cd02 f   kernel32:KERNEL32.dll
 0001:0003bd08       _RaiseException@16         0043cd08 f   kernel32:KERNEL32.dll
 0001:0003bd0e       _LocalAlloc@8              0043cd0e f   kernel32:KERNEL32.dll
 0001:0003bd14       _GlobalReAlloc@12          0043cd14 f   kernel32:KERNEL32.dll
 0001:0003bd1a       _GlobalHandle@4            0043cd1a f   kernel32:KERNEL32.dll
 0001:0003bd20       _TlsGetValue@4             0043cd20 f   kernel32:KERNEL32.dll
 0001:0003bd26       _TlsAlloc@0                0043cd26 f   kernel32:KERNEL32.dll
 0001:0003bd2c       _TlsSetValue@8             0043cd2c f   kernel32:KERNEL32.dll
 0001:0003bd32       _LocalReAlloc@12           0043cd32 f   kernel32:KERNEL32.dll
 0001:0003bd38       _TlsFree@4                 0043cd38 f   kernel32:KERNEL32.dll
 0001:0003bd3e       _FileTimeToSystemTime@8    0043cd3e f   kernel32:KERNEL32.dll
 0001:0003bd44       _SystemTimeToFileTime@8    0043cd44 f   kernel32:KERNEL32.dll
 0001:0003bd4a       _GlobalFlags@4             0043cd4a f   kernel32:KERNEL32.dll
 0001:0003bd50       _ResumeThread@4            0043cd50 f   kernel32:KERNEL32.dll
 0001:0003bd56       _GetCurrentThreadId@0      0043cd56 f   kernel32:KERNEL32.dll
 0001:0003bd5c       _SuspendThread@4           0043cd5c f   kernel32:KERNEL32.dll
 0001:0003bd62       _GetModuleHandleA@4        0043cd62 f   kernel32:KERNEL32.dll
 0001:0003bd68       _lstrcmpW@8                0043cd68 f   kernel32:KERNEL32.dll
 0001:0003bd6e       _GlobalDeleteAtom@4        0043cd6e f   kernel32:KERNEL32.dll
 0001:0003bd74       _GlobalFindAtomA@4         0043cd74 f   kernel32:KERNEL32.dll
 0001:0003bd7a       _GlobalAddAtomA@4          0043cd7a f   kernel32:KERNEL32.dll
 0001:0003bd80       _GlobalGetAtomNameA@12     0043cd80 f   kernel32:KERNEL32.dll
 0001:0003bd86       _FreeResource@4            0043cd86 f   kernel32:KERNEL32.dll
 0001:0003bd8c       _EnumResourceLanguagesA@20 0043cd8c f   kernel32:KERNEL32.dll
 0001:0003bd92       _ConvertDefaultLocale@4    0043cd92 f   kernel32:KERNEL32.dll
 0001:0003bd98       _GetCurrentThread@0        0043cd98 f   kernel32:KERNEL32.dll
 0001:0003bd9e       _GetCPInfo@8               0043cd9e f   kernel32:KERNEL32.dll
 0001:0003bda4       _GetOEMCP@0                0043cda4 f   kernel32:KERNEL32.dll
 0001:0003bdaa       _GetPrivateProfileIntA@16  0043cdaa f   kernel32:KERNEL32.dll
 0001:0003bdb0       _WritePrivateProfileStringA@16 0043cdb0 f   kernel32:KERNEL32.dll
 0001:0003bdb6       _GetPrivateProfileStringA@24 0043cdb6 f   kernel32:KERNEL32.dll
 0001:0003bdbc       _GetCurrentDirectoryA@8    0043cdbc f   kernel32:KERNEL32.dll
 0001:0003bdc2       _MoveFileA@8               0043cdc2 f   kernel32:KERNEL32.dll
 0001:0003bdc8       _DeleteFileA@4             0043cdc8 f   kernel32:KERNEL32.dll
 0001:0003bdce       _ReadFile@20               0043cdce f   kernel32:KERNEL32.dll
 0001:0003bdd4       _WriteFile@20              0043cdd4 f   kernel32:KERNEL32.dll
 0001:0003bdda       _SetFilePointer@16         0043cdda f   kernel32:KERNEL32.dll
 0001:0003bde0       _FlushFileBuffers@4        0043cde0 f   kernel32:KERNEL32.dll
 0001:0003bde6       _LockFile@20               0043cde6 f   kernel32:KERNEL32.dll
 0001:0003bdec       _UnlockFile@20             0043cdec f   kernel32:KERNEL32.dll
 0001:0003bdf2       _SetEndOfFile@4            0043cdf2 f   kernel32:KERNEL32.dll
 0001:0003bdf8       _GetFileSize@8             0043cdf8 f   kernel32:KERNEL32.dll
 0001:0003bdfe       _DuplicateHandle@28        0043cdfe f   kernel32:KERNEL32.dll
 0001:0003be04       _GetCurrentProcess@0       0043ce04 f   kernel32:KERNEL32.dll
 0001:0003be0a       _FindClose@4               0043ce0a f   kernel32:KERNEL32.dll
 0001:0003be10       _FindFirstFileA@8          0043ce10 f   kernel32:KERNEL32.dll
 0001:0003be16       _GetVolumeInformationA@32  0043ce16 f   kernel32:KERNEL32.dll
 0001:0003be1c       _GetShortPathNameA@12      0043ce1c f   kernel32:KERNEL32.dll
 0001:0003be22       _FileTimeToLocalFileTime@8 0043ce22 f   kernel32:KERNEL32.dll
 0001:0003be28       _LocalFileTimeToFileTime@8 0043ce28 f   kernel32:KERNEL32.dll
 0001:0003be2e       _SetFileTime@16            0043ce2e f   kernel32:KERNEL32.dll
 0001:0003be34       _SetFileAttributesA@8      0043ce34 f   kernel32:KERNEL32.dll
 0001:0003be3a       _GetFileTime@16            0043ce3a f   kernel32:KERNEL32.dll
 0001:0003be40       _RtlUnwind@16              0043ce40 f   kernel32:KERNEL32.dll
 0001:0003be46       _ExitProcess@4             0043ce46 f   kernel32:KERNEL32.dll
 0001:0003be4c       _GetSystemTimeAsFileTime@4 0043ce4c f   kernel32:KERNEL32.dll
 0001:0003be52       _GetTimeFormatA@24         0043ce52 f   kernel32:KERNEL32.dll
 0001:0003be58       _GetDateFormatA@24         0043ce58 f   kernel32:KERNEL32.dll
 0001:0003be5e       _VirtualProtect@16         0043ce5e f   kernel32:KERNEL32.dll
 0001:0003be64       _VirtualQuery@12           0043ce64 f   kernel32:KERNEL32.dll
 0001:0003be6a       _ExitThread@4              0043ce6a f   kernel32:KERNEL32.dll
 0001:0003be70       _CreateThread@24           0043ce70 f   kernel32:KERNEL32.dll
 0001:0003be76       _FindNextFileA@8           0043ce76 f   kernel32:KERNEL32.dll
 0001:0003be7c       _GetStartupInfoA@4         0043ce7c f   kernel32:KERNEL32.dll
 0001:0003be82       _GetCommandLineA@0         0043ce82 f   kernel32:KERNEL32.dll
 0001:0003be88       _HeapSize@12               0043ce88 f   kernel32:KERNEL32.dll
 0001:0003be8e       _GetCurrentProcessId@0     0043ce8e f   kernel32:KERNEL32.dll
 0001:0003be94       _FatalAppExitA@8           0043ce94 f   kernel32:KERNEL32.dll
 0001:0003be9a       _GetTimeZoneInformation@4  0043ce9a f   kernel32:KERNEL32.dll
 0001:0003bea0       _IsBadWritePtr@8           0043cea0 f   kernel32:KERNEL32.dll
 0001:0003bea6       _LCMapStringA@24           0043cea6 f   kernel32:KERNEL32.dll
 0001:0003beac       _LCMapStringW@24           0043ceac f   kernel32:KERNEL32.dll
 0001:0003beb2       _UnhandledExceptionFilter@4 0043ceb2 f   kernel32:KERNEL32.dll
 0001:0003beb8       _GetStringTypeA@20         0043ceb8 f   kernel32:KERNEL32.dll
 0001:0003bebe       _GetStringTypeW@16         0043cebe f   kernel32:KERNEL32.dll
 0001:0003bec4       _SetHandleCount@4          0043cec4 f   kernel32:KERNEL32.dll
 0001:0003beca       _GetStdHandle@4            0043ceca f   kernel32:KERNEL32.dll
 0001:0003bed0       _GetFileType@4             0043ced0 f   kernel32:KERNEL32.dll
 0001:0003bed6       _SetStdHandle@8            0043ced6 f   kernel32:KERNEL32.dll
 0001:0003bedc       _FreeEnvironmentStringsA@4 0043cedc f   kernel32:KERNEL32.dll
 0001:0003bee2       _GetEnvironmentStrings@0   0043cee2 f   kernel32:KERNEL32.dll
 0001:0003bee8       _FreeEnvironmentStringsW@4 0043cee8 f   kernel32:KERNEL32.dll
 0001:0003beee       _GetEnvironmentStringsW@0  0043ceee f   kernel32:KERNEL32.dll
 0001:0003bef4       _IsBadReadPtr@8            0043cef4 f   kernel32:KERNEL32.dll
 0001:0003befa       _IsBadCodePtr@4            0043cefa f   kernel32:KERNEL32.dll
 0001:0003bf00       _GetUserDefaultLCID@0      0043cf00 f   kernel32:KERNEL32.dll
 0001:0003bf06       _EnumSystemLocalesA@8      0043cf06 f   kernel32:KERNEL32.dll
 0001:0003bf0c       _IsValidLocale@8           0043cf0c f   kernel32:KERNEL32.dll
 0001:0003bf12       _IsValidCodePage@4         0043cf12 f   kernel32:KERNEL32.dll
 0001:0003bf18       _SetConsoleCtrlHandler@8   0043cf18 f   kernel32:KERNEL32.dll
 0001:0003bf1e       _GetLocaleInfoW@16         0043cf1e f   kernel32:KERNEL32.dll
 0001:0003bf24       _SetEnvironmentVariableA@8 0043cf24 f   kernel32:KERNEL32.dll
 0001:0003bf2a       _RemoveMenu@12             0043cf2a f   user32:USER32.dll
 0001:0003bf30       _GetSubMenu@8              0043cf30 f   user32:USER32.dll
 0001:0003bf36       _GetMenuItemCount@4        0043cf36 f   user32:USER32.dll
 0001:0003bf3c       _InsertMenuA@20            0043cf3c f   user32:USER32.dll
 0001:0003bf42       _GetMenuItemID@8           0043cf42 f   user32:USER32.dll
 0001:0003bf48       _AppendMenuA@16            0043cf48 f   user32:USER32.dll
 0001:0003bf4e       _GetMenuStringA@20         0043cf4e f   user32:USER32.dll
 0001:0003bf54       _GetMenuState@12           0043cf54 f   user32:USER32.dll
 0001:0003bf5a       _UnregisterClassA@8        0043cf5a f   user32:USER32.dll
 0001:0003bf60       _GetSysColorBrush@4        0043cf60 f   user32:USER32.dll
 0001:0003bf66       _GetSysColor@4             0043cf66 f   user32:USER32.dll
 0001:0003bf6c       _ReleaseDC@8               0043cf6c f   user32:USER32.dll
 0001:0003bf72       _GetDC@4                   0043cf72 f   user32:USER32.dll
 0001:0003bf78       _GetSystemMetrics@4        0043cf78 f   user32:USER32.dll
 0001:0003bf7e       _UnhookWindowsHookEx@4     0043cf7e f   user32:USER32.dll
 0001:0003bf84       _EnableWindow@8            0043cf84 f   user32:USER32.dll
 0001:0003bf8a       _IsWindowEnabled@4         0043cf8a f   user32:USER32.dll
 0001:0003bf90       _GetLastActivePopup@4      0043cf90 f   user32:USER32.dll
 0001:0003bf96       _GetWindowLongA@8          0043cf96 f   user32:USER32.dll
 0001:0003bf9c       _GetParent@4               0043cf9c f   user32:USER32.dll
 0001:0003bfa2       _SendMessageA@16           0043cfa2 f   user32:USER32.dll
 0001:0003bfa8       _GetWindowTextA@12         0043cfa8 f   user32:USER32.dll
 0001:0003bfae       _GetWindowTextLengthA@4    0043cfae f   user32:USER32.dll
 0001:0003bfb4       _GetClassNameA@12          0043cfb4 f   user32:USER32.dll
 0001:0003bfba       _SetWindowTextA@8          0043cfba f   user32:USER32.dll
 0001:0003bfc0       _GetDesktopWindow@0        0043cfc0 f   user32:USER32.dll
 0001:0003bfc6       _GetFocus@0                0043cfc6 f   user32:USER32.dll
 0001:0003bfcc       _PtInRect@12               0043cfcc f   user32:USER32.dll
 0001:0003bfd2       _GetWindowRect@8           0043cfd2 f   user32:USER32.dll
 0001:0003bfd8       _GetDlgCtrlID@4            0043cfd8 f   user32:USER32.dll
 0001:0003bfde       _GetWindow@8               0043cfde f   user32:USER32.dll
 0001:0003bfe4       _ClientToScreen@8          0043cfe4 f   user32:USER32.dll
 0001:0003bfea       _ValidateRect@8            0043cfea f   user32:USER32.dll
 0001:0003bff0       _GetCursorPos@4            0043cff0 f   user32:USER32.dll
 0001:0003bff6       _PeekMessageA@20           0043cff6 f   user32:USER32.dll
 0001:0003bffc       _GetKeyState@4             0043cffc f   user32:USER32.dll
 0001:0003c002       _IsWindowVisible@4         0043d002 f   user32:USER32.dll
 0001:0003c008       _GetActiveWindow@0         0043d008 f   user32:USER32.dll
 0001:0003c00e       _CallNextHookEx@16         0043d00e f   user32:USER32.dll
 0001:0003c014       _SetWindowsHookExA@16      0043d014 f   user32:USER32.dll
 0001:0003c01a       _SetFocus@4                0043d01a f   user32:USER32.dll
 0001:0003c020       _SetScrollPos@16           0043d020 f   user32:USER32.dll
 0001:0003c026       _GetScrollPos@8            0043d026 f   user32:USER32.dll
 0001:0003c02c       _wsprintfA                 0043d02c f   user32:USER32.dll
 0001:0003c032       _CheckDlgButton@12         0043d032 f   user32:USER32.dll
 0001:0003c038       _CheckRadioButton@16       0043d038 f   user32:USER32.dll
 0001:0003c03e       _GetDlgItem@8              0043d03e f   user32:USER32.dll
 0001:0003c044       _GetDlgItemInt@16          0043d044 f   user32:USER32.dll
 0001:0003c04a       _GetDlgItemTextA@16        0043d04a f   user32:USER32.dll
 0001:0003c050       _SendDlgItemMessageA@20    0043d050 f   user32:USER32.dll
 0001:0003c056       _SetDlgItemInt@16          0043d056 f   user32:USER32.dll
 0001:0003c05c       _SetDlgItemTextA@12        0043d05c f   user32:USER32.dll
 0001:0003c062       _IsDlgButtonChecked@8      0043d062 f   user32:USER32.dll
 0001:0003c068       _IsDialogMessageA@8        0043d068 f   user32:USER32.dll
 0001:0003c06e       _SetWindowLongA@12         0043d06e f   user32:USER32.dll
 0001:0003c074       _MoveWindow@24             0043d074 f   user32:USER32.dll
 0001:0003c07a       _ScrollWindowEx@32         0043d07a f   user32:USER32.dll
 0001:0003c080       _LoadBitmapA@8             0043d080 f   user32:USER32.dll
 0001:0003c086       _GetMenuCheckMarkDimensions@0 0043d086 f   user32:USER32.dll
 0001:0003c08c       _CheckMenuItem@12          0043d08c f   user32:USER32.dll
 0001:0003c092       _EnableMenuItem@12         0043d092 f   user32:USER32.dll
 0001:0003c098       _ModifyMenuA@20            0043d098 f   user32:USER32.dll
 0001:0003c09e       _SetMenuItemBitmaps@20     0043d09e f   user32:USER32.dll
 0001:0003c0a4       _CopyRect@8                0043d0a4 f   user32:USER32.dll
 0001:0003c0aa       _GetWindowPlacement@8      0043d0aa f   user32:USER32.dll
 0001:0003c0b0       _IsIconic@4                0043d0b0 f   user32:USER32.dll
 0001:0003c0b6       _SystemParametersInfoA@16  0043d0b6 f   user32:USER32.dll
 0001:0003c0bc       _IntersectRect@12          0043d0bc f   user32:USER32.dll
 0001:0003c0c2       _OffsetRect@12             0043d0c2 f   user32:USER32.dll
 0001:0003c0c8       _CallWindowProcA@20        0043d0c8 f   user32:USER32.dll
 0001:0003c0ce       _SetWindowPlacement@8      0043d0ce f   user32:USER32.dll
 0001:0003c0d4       _RegisterClassA@4          0043d0d4 f   user32:USER32.dll
 0001:0003c0da       _GetClassInfoA@12          0043d0da f   user32:USER32.dll
 0001:0003c0e0       _SetScrollInfo@16          0043d0e0 f   user32:USER32.dll
 0001:0003c0e6       _GetScrollInfo@12          0043d0e6 f   user32:USER32.dll
 0001:0003c0ec       _DeferWindowPos@32         0043d0ec f   user32:USER32.dll
 0001:0003c0f2       _EqualRect@8               0043d0f2 f   user32:USER32.dll
 0001:0003c0f8       _ScreenToClient@8          0043d0f8 f   user32:USER32.dll
 0001:0003c0fe       _AdjustWindowRectEx@16     0043d0fe f   user32:USER32.dll
 0001:0003c104       _PostMessageA@16           0043d104 f   user32:USER32.dll
 0001:0003c10a       _GetMenu@4                 0043d10a f   user32:USER32.dll
 0001:0003c110       _GetClientRect@8           0043d110 f   user32:USER32.dll
 0001:0003c116       _ShowScrollBar@12          0043d116 f   user32:USER32.dll
 0001:0003c11c       _SetForegroundWindow@4     0043d11c f   user32:USER32.dll
 0001:0003c122       _GetScrollRange@16         0043d122 f   user32:USER32.dll
 0001:0003c128       _SetScrollRange@20         0043d128 f   user32:USER32.dll
 0001:0003c12e       _TrackPopupMenu@28         0043d12e f   user32:USER32.dll
 0001:0003c134       _TrackPopupMenuEx@24       0043d134 f   user32:USER32.dll
 0001:0003c13a       _ScrollWindow@20           0043d13a f   user32:USER32.dll
 0001:0003c140       _MapWindowPoints@16        0043d140 f   user32:USER32.dll
 0001:0003c146       _GetMessagePos@0           0043d146 f   user32:USER32.dll
 0001:0003c14c       _GetMessageTime@0          0043d14c f   user32:USER32.dll
 0001:0003c152       _GetTopWindow@4            0043d152 f   user32:USER32.dll
 0001:0003c158       _EndDeferWindowPos@4       0043d158 f   user32:USER32.dll
 0001:0003c15e       _BeginDeferWindowPos@4     0043d15e f   user32:USER32.dll
 0001:0003c164       _SetActiveWindow@4         0043d164 f   user32:USER32.dll
 0001:0003c16a       _GetForegroundWindow@0     0043d16a f   user32:USER32.dll
 0001:0003c170       _IsChild@8                 0043d170 f   user32:USER32.dll
 0001:0003c176       _IsWindow@4                0043d176 f   user32:USER32.dll
 0001:0003c17c       _RemovePropA@8             0043d17c f   user32:USER32.dll
 0001:0003c182       _GetPropA@8                0043d182 f   user32:USER32.dll
 0001:0003c188       _SetPropA@12               0043d188 f   user32:USER32.dll
 0001:0003c18e       _GetClassInfoExA@12        0043d18e f   user32:USER32.dll
 0001:0003c194       _GetClassLongA@8           0043d194 f   user32:USER32.dll
 0001:0003c19a       _GetCapture@0              0043d19a f   user32:USER32.dll
 0001:0003c1a0       _WinHelpA@16               0043d1a0 f   user32:USER32.dll
 0001:0003c1a6       _RegisterWindowMessageA@4  0043d1a6 f   user32:USER32.dll
 0001:0003c1ac       _FillRect@12               0043d1ac f   user32:USER32.dll
 0001:0003c1b2       _TabbedTextOutA@32         0043d1b2 f   user32:USER32.dll
 0001:0003c1b8       _DrawTextA@20              0043d1b8 f   user32:USER32.dll
 0001:0003c1be       _DrawTextExA@24            0043d1be f   user32:USER32.dll
 0001:0003c1c4       _GrayStringA@36            0043d1c4 f   user32:USER32.dll
 0001:0003c1ca       _GetWindowDC@4             0043d1ca f   user32:USER32.dll
 0001:0003c1d0       _InflateRect@12            0043d1d0 f   user32:USER32.dll
 0001:0003c1d6       _GetMenuItemInfoA@16       0043d1d6 f   user32:USER32.dll
 0001:0003c1dc       _DestroyMenu@4             0043d1dc f   user32:USER32.dll
 0001:0003c1e2       _SetCursor@4               0043d1e2 f   user32:USER32.dll
 0001:0003c1e8       _ShowOwnedPopups@8         0043d1e8 f   user32:USER32.dll
 0001:0003c1ee       _DeleteMenu@12             0043d1ee f   user32:USER32.dll
 0001:0003c1f4       _DestroyIcon@4             0043d1f4 f   user32:USER32.dll
 0001:0003c1fa       _EndDialog@8               0043d1fa f   user32:USER32.dll
 0001:0003c200       _GetNextDlgTabItem@12      0043d200 f   user32:USER32.dll
 0001:0003c206       _CreateDialogIndirectParamA@20 0043d206 f   user32:USER32.dll
 0001:0003c20c       _GetDialogBaseUnits@0      0043d20c f   user32:USER32.dll
 0001:0003c212       _GetDeviceCaps@8           0043d212 f   gdi32:GDI32.dll
 0001:0003c218       _CopyMetaFileA@8           0043d218 f   gdi32:GDI32.dll
 0001:0003c21e       _CreateDCA@16              0043d21e f   gdi32:GDI32.dll
 0001:0003c224       _CreateBitmap@20           0043d224 f   gdi32:GDI32.dll
 0001:0003c22a       _GetDCOrgEx@8              0043d22a f   gdi32:GDI32.dll
 0001:0003c230       _GetClipBox@8              0043d230 f   gdi32:GDI32.dll
 0001:0003c236       _GetObjectA@12             0043d236 f   gdi32:GDI32.dll
 0001:0003c23c       _SaveDC@4                  0043d23c f   gdi32:GDI32.dll
 0001:0003c242       _RestoreDC@8               0043d242 f   gdi32:GDI32.dll
 0001:0003c248       _SetPolyFillMode@8         0043d248 f   gdi32:GDI32.dll
 0001:0003c24e       _SetROP2@8                 0043d24e f   gdi32:GDI32.dll
 0001:0003c254       _SetStretchBltMode@8       0043d254 f   gdi32:GDI32.dll
 0001:0003c25a       _SetMapMode@8              0043d25a f   gdi32:GDI32.dll
 0001:0003c260       _ExcludeClipRect@20        0043d260 f   gdi32:GDI32.dll
 0001:0003c266       _IntersectClipRect@20      0043d266 f   gdi32:GDI32.dll
 0001:0003c26c       _OffsetClipRgn@12          0043d26c f   gdi32:GDI32.dll
 0001:0003c272       _LineTo@12                 0043d272 f   gdi32:GDI32.dll
 0001:0003c278       _MoveToEx@16               0043d278 f   gdi32:GDI32.dll
 0001:0003c27e       _SetTextAlign@8            0043d27e f   gdi32:GDI32.dll
 0001:0003c284       _SetTextJustification@12   0043d284 f   gdi32:GDI32.dll
 0001:0003c28a       _SetTextCharacterExtra@8   0043d28a f   gdi32:GDI32.dll
 0001:0003c290       _SetMapperFlags@8          0043d290 f   gdi32:GDI32.dll
 0001:0003c296       _SetArcDirection@8         0043d296 f   gdi32:GDI32.dll
 0001:0003c29c       _SetColorAdjustment@8      0043d29c f   gdi32:GDI32.dll
 0001:0003c2a2       _SelectClipRgn@8           0043d2a2 f   gdi32:GDI32.dll
 0001:0003c2a8       _GetClipRgn@8              0043d2a8 f   gdi32:GDI32.dll
 0001:0003c2ae       _CreateRectRgn@16          0043d2ae f   gdi32:GDI32.dll
 0001:0003c2b4       _SelectClipPath@8          0043d2b4 f   gdi32:GDI32.dll
 0001:0003c2ba       _GetViewportExtEx@8        0043d2ba f   gdi32:GDI32.dll
 0001:0003c2c0       _GetWindowExtEx@8          0043d2c0 f   gdi32:GDI32.dll
 0001:0003c2c6       _BitBlt@36                 0043d2c6 f   gdi32:GDI32.dll
 0001:0003c2cc       _GetPixel@12               0043d2cc f   gdi32:GDI32.dll
 0001:0003c2d2       _StartDocA@8               0043d2d2 f   gdi32:GDI32.dll
 0001:0003c2d8       _PtVisible@12              0043d2d8 f   gdi32:GDI32.dll
 0001:0003c2de       _RectVisible@8             0043d2de f   gdi32:GDI32.dll
 0001:0003c2e4       _ExtTextOutA@32            0043d2e4 f   gdi32:GDI32.dll
 0001:0003c2ea       _Escape@20                 0043d2ea f   gdi32:GDI32.dll
 0001:0003c2f0       _SetViewportOrgEx@16       0043d2f0 f   gdi32:GDI32.dll
 0001:0003c2f6       _OffsetViewportOrgEx@16    0043d2f6 f   gdi32:GDI32.dll
 0001:0003c2fc       _SetViewportExtEx@16       0043d2fc f   gdi32:GDI32.dll
 0001:0003c302       _ScaleViewportExtEx@24     0043d302 f   gdi32:GDI32.dll
 0001:0003c308       _SetWindowOrgEx@16         0043d308 f   gdi32:GDI32.dll
 0001:0003c30e       _OffsetWindowOrgEx@16      0043d30e f   gdi32:GDI32.dll
 0001:0003c314       _SetWindowExtEx@16         0043d314 f   gdi32:GDI32.dll
 0001:0003c31a       _ScaleWindowExtEx@24       0043d31a f   gdi32:GDI32.dll
 0001:0003c320       _GetCurrentPositionEx@8    0043d320 f   gdi32:GDI32.dll
 0001:0003c326       _ArcTo@36                  0043d326 f   gdi32:GDI32.dll
 0001:0003c32c       _PolyDraw@16               0043d32c f   gdi32:GDI32.dll
 0001:0003c332       _PolylineTo@12             0043d332 f   gdi32:GDI32.dll
 0001:0003c338       _PolyBezierTo@12           0043d338 f   gdi32:GDI32.dll
 0001:0003c33e       _ExtSelectClipRgn@12       0043d33e f   gdi32:GDI32.dll
 0001:0003c344       _DeleteDC@4                0043d344 f   gdi32:GDI32.dll
 0001:0003c34a       _CreateDIBPatternBrushPt@8 0043d34a f   gdi32:GDI32.dll
 0001:0003c350       _CreatePatternBrush@4      0043d350 f   gdi32:GDI32.dll
 0001:0003c356       _CreateCompatibleDC@4      0043d356 f   gdi32:GDI32.dll
 0001:0003c35c       _GetStockObject@4          0043d35c f   gdi32:GDI32.dll
 0001:0003c362       _SelectPalette@12          0043d362 f   gdi32:GDI32.dll
 0001:0003c368       _PlayMetaFileRecord@16     0043d368 f   gdi32:GDI32.dll
 0001:0003c36e       _GetObjectType@4           0043d36e f   gdi32:GDI32.dll
 0001:0003c374       _EnumMetaFile@16           0043d374 f   gdi32:GDI32.dll
 0001:0003c37a       _PlayMetaFile@8            0043d37a f   gdi32:GDI32.dll
 0001:0003c380       _CreatePen@12              0043d380 f   gdi32:GDI32.dll
 0001:0003c386       _ExtCreatePen@20           0043d386 f   gdi32:GDI32.dll
 0001:0003c38c       _CreateSolidBrush@4        0043d38c f   gdi32:GDI32.dll
 0001:0003c392       _CreateHatchBrush@8        0043d392 f   gdi32:GDI32.dll
 0001:0003c398       _CreateFontIndirectA@4     0043d398 f   gdi32:GDI32.dll
 0001:0003c39e       _GetTextExtentPoint32A@16  0043d39e f   gdi32:GDI32.dll
 0001:0003c3a4       _CreateRectRgnIndirect@4   0043d3a4 f   gdi32:GDI32.dll
 0001:0003c3aa       _SetRectRgn@20             0043d3aa f   gdi32:GDI32.dll
 0001:0003c3b0       _CombineRgn@16             0043d3b0 f   gdi32:GDI32.dll
 0001:0003c3b6       _GetMapMode@4              0043d3b6 f   gdi32:GDI32.dll
 0001:0003c3bc       _PatBlt@24                 0043d3bc f   gdi32:GDI32.dll
 0001:0003c3c2       _DPtoLP@12                 0043d3c2 f   gdi32:GDI32.dll
 0001:0003c3c8       _GetTextMetricsA@8         0043d3c8 f   gdi32:GDI32.dll
 0001:0003c3ce       _ClosePrinter@4            0043d3ce f   winspool:WINSPOOL.DRV
 0001:0003c3d4       _DocumentPropertiesA@24    0043d3d4 f   winspool:WINSPOOL.DRV
 0001:0003c3da       _OpenPrinterA@12           0043d3da f   winspool:WINSPOOL.DRV
 0001:0003c3e0       _GetFileTitleA@12          0043d3e0 f   comdlg32:comdlg32.dll
 0001:0003c3e6       _GetSaveFileNameA@4        0043d3e6 f   comdlg32:comdlg32.dll
 0001:0003c3ec       _GetOpenFileNameA@4        0043d3ec f   comdlg32:comdlg32.dll
 0001:0003c3f2       _RegSetValueA@20           0043d3f2 f   advapi32:ADVAPI32.dll
 0001:0003c3f8       _RegOpenKeyA@12            0043d3f8 f   advapi32:ADVAPI32.dll
 0001:0003c3fe       _RegCreateKeyExA@36        0043d3fe f   advapi32:ADVAPI32.dll
 0001:0003c404       _RegDeleteValueA@8         0043d404 f   advapi32:ADVAPI32.dll
 0001:0003c40a       _RegDeleteKeyA@8           0043d40a f   advapi32:ADVAPI32.dll
 0001:0003c410       _RegEnumKeyA@16            0043d410 f   advapi32:ADVAPI32.dll
 0001:0003c416       _RegQueryValueA@16         0043d416 f   advapi32:ADVAPI32.dll
 0001:0003c41c       _RegCreateKeyA@12          0043d41c f   advapi32:ADVAPI32.dll
 0001:0003c422       _SHGetFileInfoA@20         0043d422 f   shell32:SHELL32.dll
 0001:0003c428       _ExtractIconA@12           0043d428 f   shell32:SHELL32.dll
 0001:0003c42e       _CoTaskMemFree@4           0043d42e f   ole32:ole32.dll
 0001:0003c434       _SetConvertStg@8           0043d434 f   ole32:ole32.dll
 0001:0003c43a       _WriteFmtUserTypeStg@12    0043d43a f   ole32:ole32.dll
 0001:0003c440       _WriteClassStg@8           0043d440 f   ole32:ole32.dll
 0001:0003c446       _OleRegGetUserType@12      0043d446 f   ole32:ole32.dll
 0001:0003c44c       _ReadFmtUserTypeStg@12     0043d44c f   ole32:ole32.dll
 0001:0003c452       _ReadClassStg@8            0043d452 f   ole32:ole32.dll
 0001:0003c458       _StringFromCLSID@8         0043d458 f   ole32:ole32.dll
 0001:0003c45e       _CoTreatAsClass@8          0043d45e f   ole32:ole32.dll
 0001:0003c464       _CreateBindCtx@8           0043d464 f   ole32:ole32.dll
 0001:0003c46a       _CoTaskMemAlloc@4          0043d46a f   ole32:ole32.dll
 0001:0003c470       _ReleaseStgMedium@4        0043d470 f   ole32:ole32.dll
 0001:0003c476       _OleDuplicateData@12       0043d476 f   ole32:ole32.dll
 0001:0003c47c       _CoDisconnectObject@8      0043d47c f   ole32:ole32.dll
 0001:0003c482       _CoCreateInstance@20       0043d482 f   ole32:ole32.dll
 0001:0003c488       _StringFromGUID2@12        0043d488 f   ole32:ole32.dll
 0001:0003c48e       _CLSIDFromString@8         0043d48e f   ole32:ole32.dll
 0001:0003c494       _SysFreeString@4           0043d494 f   oleaut32:OLEAUT32.dll
 0001:0003c49a       _SysStringLen@4            0043d49a f   oleaut32:OLEAUT32.dll
 0001:0003c4a0       _SysAllocStringByteLen@8   0043d4a0 f   oleaut32:OLEAUT32.dll
 0001:0003c4a6       _SysStringByteLen@4        0043d4a6 f   oleaut32:OLEAUT32.dll
 0001:0003c4ac       _SafeArrayUnaccessData@4   0043d4ac f   oleaut32:OLEAUT32.dll
 0001:0003c4b2       _SafeArrayAccessData@8     0043d4b2 f   oleaut32:OLEAUT32.dll
 0001:0003c4b8       _SafeArrayGetUBound@12     0043d4b8 f   oleaut32:OLEAUT32.dll
 0001:0003c4be       _SafeArrayGetLBound@12     0043d4be f   oleaut32:OLEAUT32.dll
 0001:0003c4c4       _SafeArrayGetElemsize@4    0043d4c4 f   oleaut32:OLEAUT32.dll
 0001:0003c4ca       _SafeArrayGetDim@4         0043d4ca f   oleaut32:OLEAUT32.dll
 0001:0003c4d0       _SafeArrayCreate@12        0043d4d0 f   oleaut32:OLEAUT32.dll
 0001:0003c4d6       _VariantClear@4            0043d4d6 f   oleaut32:OLEAUT32.dll
 0001:0003c4dc       _SafeArrayRedim@8          0043d4dc f   oleaut32:OLEAUT32.dll
 0001:0003c4e2       _VariantChangeType@16      0043d4e2 f   oleaut32:OLEAUT32.dll
 0001:0003c4e8       _VariantCopy@8             0043d4e8 f   oleaut32:OLEAUT32.dll
 0001:0003c4ee       _SafeArrayAllocData@4      0043d4ee f   oleaut32:OLEAUT32.dll
 0001:0003c4f4       _SafeArrayAllocDescriptor@8 0043d4f4 f   oleaut32:OLEAUT32.dll
 0001:0003c4fa       _SafeArrayCopy@8           0043d4fa f   oleaut32:OLEAUT32.dll
 0001:0003c500       _SafeArrayGetElement@12    0043d500 f   oleaut32:OLEAUT32.dll
 0001:0003c506       _SafeArrayPtrOfIndex@12    0043d506 f   oleaut32:OLEAUT32.dll
 0001:0003c50c       _SafeArrayPutElement@12    0043d50c f   oleaut32:OLEAUT32.dll
 0001:0003c512       _SafeArrayLock@4           0043d512 f   oleaut32:OLEAUT32.dll
 0001:0003c518       _SafeArrayUnlock@4         0043d518 f   oleaut32:OLEAUT32.dll
 0001:0003c51e       _SafeArrayDestroy@4        0043d51e f   oleaut32:OLEAUT32.dll
 0001:0003c524       _SafeArrayDestroyData@4    0043d524 f   oleaut32:OLEAUT32.dll
 0001:0003c52a       _SafeArrayDestroyDescriptor@4 0043d52a f   oleaut32:OLEAUT32.dll
 0001:0003c530       _SysAllocStringLen@8       0043d530 f   oleaut32:OLEAUT32.dll
 0001:0003c536       _VariantTimeToSystemTime@12 0043d536 f   oleaut32:OLEAUT32.dll
 0001:0003c53c       _SystemTimeToVariantTime@8 0043d53c f   oleaut32:OLEAUT32.dll
 0001:0003c542       _SysAllocString@4          0043d542 f   oleaut32:OLEAUT32.dll
 0001:0003c548       _SysReAllocStringLen@12    0043d548 f   oleaut32:OLEAUT32.dll
 0001:0003c54e       _VarDateFromStr@16         0043d54e f   oleaut32:OLEAUT32.dll
 0001:0003c554       _VarBstrFromDec@16         0043d554 f   oleaut32:OLEAUT32.dll
 0001:0003c55a       _VarDecFromStr@16          0043d55a f   oleaut32:OLEAUT32.dll
 0001:0003c560       _VarCyFromStr@16           0043d560 f   oleaut32:OLEAUT32.dll
 0001:0003c566       _VarBstrFromCy@20          0043d566 f   oleaut32:OLEAUT32.dll
 0001:0003c56c       _VarBstrFromDate@20        0043d56c f   oleaut32:OLEAUT32.dll
 0001:0003c572       _VariantInit@4             0043d572 f   oleaut32:OLEAUT32.dll
 0001:0003c578       _strlwr                    0043d578 f   libcmt:strlwr.obj
 0001:0003c578       __strlwr                   0043d578 f   libcmt:strlwr.obj
 0001:0003c68c       __fileno                   0043d68c f   libcmt:fileno.obj
 0001:0003c68c       _fileno                    0043d68c f   libcmt:fileno.obj
 0001:0003c694       __check_commonlanguageruntime_version 0043d694 f   libcmt:checkclr.obj
 0001:0003c8f6       __CorExeMain@0             0043d8f6 f   MSCOREE:mscoree.dll
 0001:0003c8fc       _GlobalMemoryStatus@4      0043d8fc f   kernel32:KERNEL32.dll
 0001:0003c902       _FileTimeToDosDateTime@12  0043d902 f   kernel32:KERNEL32.dll
 0001:0003c908       _GetUserNameA@8            0043d908 f   advapi32:ADVAPI32.dll
 0001:0003c90e       __splitpath                0043d90e f   libcmt:splitpat.obj
 0001:0003ca56       __makepath                 0043da56 f   libcmt:makepath.obj
 0001:0003cae6       __vsnwprintf               0043dae6 f   libcmt:vsnwprnt.obj
 0001:0003cb55       _wcsncpy                   0043db55 f   libcmt:wcsncpy.obj
 0001:0003cb92       __wsplitpath               0043db92 f   libcmt:wsplitpa.obj
 0001:0003cced       __wmakepath                0043dced f   libcmt:wmakepat.obj
 0001:0003cd9e       _VerQueryValueA@16         0043dd9e f   Version:VERSION.dll
 0001:0003cda4       _GetFileVersionInfoA@16    0043dda4 f   Version:VERSION.dll
 0001:0003cdaa       _GetFileVersionInfoSizeA@8 0043ddaa f   Version:VERSION.dll
 0001:0003cdb0       ?InitString@CSimpleException@@QAEXXZ 0043ddb0 f   nafxcw:except.obj
 0001:0003cdd9       ?GetErrorMessage@CSimpleException@@UAEHPADIPAI@Z 0043ddd9 f   nafxcw:except.obj
 0001:0003ce29       ?AfxThrowMemoryException@@YGXXZ 0043de29 f   nafxcw:except.obj
 0001:0003ce43       ?AfxThrowNotSupportedException@@YGXXZ 0043de43 f   nafxcw:except.obj
 0001:0003ce5d       ?AfxThrowInvalidArgException@@YGXXZ 0043de5d f   nafxcw:except.obj
 0001:0003ce77       ?GetOFN@CFileDialog@@QBEABUtagOFNA@@XZ 0043de77 f   nafxcw:dlgfile.obj
 0001:0003ce7b       ?GetOFN@CFileDialog@@QAEAAUtagOFNA@@XZ 0043de7b f   nafxcw:dlgfile.obj
 0001:0003ce7f       ?DoModal@CFileDialog@@UAEHXZ 0043de7f f   nafxcw:dlgfile.obj
 0001:0003cf69       ?SetTemplate@CFileDialog@@QAEXPBD0@Z 0043df69 f   nafxcw:dlgfile.obj
 0001:0003cf87       ?OnShareViolation@CFileDialog@@MAEIPBD@Z 0043df87 f   nafxcw:dlgfile.obj
 0001:0003cf8c       ?OnFileNameOK@CFileDialog@@MAEHXZ 0043df8c f   nafxcw:dlgfile.obj
 0001:0003cf8f       ?OnLBSelChangedNotify@CFileDialog@@MAEXIII@Z 0043df8f f   nafxcw:dlgfile.obj
 0001:0003cf92       ?OnFileNameChange@CFileDialog@@MAEXXZ 0043df92 f   nafxcw:dlgfile.obj
 0001:0003cf93       ?OnFolderChange@CFileDialog@@MAEXXZ 0043df93 f   nafxcw:dlgfile.obj
 0001:0003cf94       ?OnTypeChange@CFileDialog@@MAEXXZ 0043df94 f   nafxcw:dlgfile.obj
 0001:0003cf95       ?SetControlText@CFileDialog@@QAEXHPBD@Z 0043df95 f   nafxcw:dlgfile.obj
 0001:0003cfbd       ?HideControl@CFileDialog@@QAEXH@Z 0043dfbd f   nafxcw:dlgfile.obj
 0001:0003cfe3       ?SetDefExt@CFileDialog@@QAEXPBD@Z 0043dfe3 f   nafxcw:dlgfile.obj
 0001:0003d009       ?OnInitDone@CFileDialog@@MAEXXZ 0043e009 f   nafxcw:dlgfile.obj
 0001:0003d022       ?OnNotify@CFileDialog@@MAEHIJPAJ@Z 0043e022 f   nafxcw:dlgfile.obj
 0001:0003d100       ??1CFileDialog@@UAE@XZ     0043e100 f   nafxcw:dlgfile.obj
 0001:0003d125       ??_GCFileDialog@@UAEPAXI@Z 0043e125 f i nafxcw:dlgfile.obj
 0001:0003d125       ??_ECFileDialog@@UAEPAXI@Z 0043e125 f i nafxcw:dlgfile.obj
 0001:0003d141       ?GetFolderPath@CFileDialog@@QBE?AV?$CStringT@DV?$StrTraitMFC@DV?$ChTraitsCRT@D@ATL@@@@@ATL@@XZ 0043e141 f   nafxcw:dlgfile.obj
 0001:0003d1da       ??0CFileDialog@@QAE@HPBD0K0PAVCWnd@@K@Z 0043e1da f   nafxcw:dlgfile.obj
 0001:0003d39d       ?GetPathName@CFileDialog@@QBE?AV?$CStringT@DV?$StrTraitMFC@DV?$ChTraitsCRT@D@ATL@@@@@ATL@@XZ 0043e39d f   nafxcw:dlgfile.obj
 0001:0003d4b6       ?GetFileName@CFileDialog@@QBE?AV?$CStringT@DV?$StrTraitMFC@DV?$ChTraitsCRT@D@ATL@@@@@ATL@@XZ 0043e4b6 f   nafxcw:dlgfile.obj
 0001:0003d57a       ?GetFileExt@CFileDialog@@QBE?AV?$CStringT@DV?$StrTraitMFC@DV?$ChTraitsCRT@D@ATL@@@@@ATL@@XZ 0043e57a f   nafxcw:dlgfile.obj
 0001:0003d68a       ?GetFileTitle@CFileDialog@@QBE?AV?$CStringT@DV?$StrTraitMFC@DV?$ChTraitsCRT@D@ATL@@@@@ATL@@XZ 0043e68a f   nafxcw:dlgfile.obj
 0001:0003d6e7       ?GetNextPathName@CFileDialog@@QBE?AV?$CStringT@DV?$StrTraitMFC@DV?$ChTraitsCRT@D@ATL@@@@@ATL@@AAPAU__POSITION@@@Z 0043e6e7 f   nafxcw:dlgfile.obj
 0001:0003d8d7       ?GetMessageMap@CCommonDialog@@MBEPBUAFX_MSGMAP@@XZ 0043e8d7 f   nafxcw:dlgcomm.obj
 0001:0003d8dd       ?OnOK@CCommonDialog@@MAEXXZ 0043e8dd f   nafxcw:dlgcomm.obj
 0001:0003d8f5       ?OnCancel@CCommonDialog@@MAEXXZ 0043e8f5 f   nafxcw:dlgcomm.obj
 0001:0003d8fa       ?OnHelpInfo@CCommonDialog@@IAEHPAUtagHELPINFO@@@Z 0043e8fa f   nafxcw:dlgcomm.obj
 0001:0003d908       ?OnPaint@CCommonDialog@@IAEXXZ 0043e908 f   nafxcw:dlgcomm.obj
 0001:0003d90d       ?_AfxCommDlgProc@@YGIPAUHWND__@@IIJ@Z 0043e90d f   nafxcw:dlgcomm.obj
 0001:0003daa8       ?AddRef@CArchiveStream@@UAGKXZ 0043eaa8 f   nafxcw:arcstrm.obj
 0001:0003daae       ?Release@CArchiveStream@@UAGKXZ 0043eaae f   nafxcw:arcstrm.obj
 0001:0003dab3       ?Read@CArchiveStream@@UAGJPAXKPAK@Z 0043eab3 f   nafxcw:arcstrm.obj
 0001:0003db0b       ?Write@CArchiveStream@@UAGJPBXKPAK@Z 0043eb0b f   nafxcw:arcstrm.obj
 0001:0003db64       ?SetSize@CArchiveStream@@UAGJT_ULARGE_INTEGER@@@Z 0043eb64 f   nafxcw:arcstrm.obj
 0001:0003db6c       ?CopyTo@CArchiveStream@@UAGJPAUIStream@@T_ULARGE_INTEGER@@PAT3@2@Z 0043eb6c f   nafxcw:arcstrm.obj
 0001:0003db74       ?Commit@CArchiveStream@@UAGJK@Z 0043eb74 f   nafxcw:arcstrm.obj
 0001:0003db7c       ?Revert@CArchiveStream@@UAGJXZ 0043eb7c f   nafxcw:arcstrm.obj
 0001:0003db84       ?LockRegion@CArchiveStream@@UAGJT_ULARGE_INTEGER@@0K@Z 0043eb84 f   nafxcw:arcstrm.obj
 0001:0003db8c       ?UnlockRegion@CArchiveStream@@UAGJT_ULARGE_INTEGER@@0K@Z 0043eb8c f   nafxcw:arcstrm.obj
 0001:0003db94       ?Stat@CArchiveStream@@UAGJPAUtagSTATSTG@@K@Z 0043eb94 f   nafxcw:arcstrm.obj
 0001:0003db9c       ?Clone@CArchiveStream@@UAGJPAPAUIStream@@@Z 0043eb9c f   nafxcw:arcstrm.obj
 0001:0003dba4       ?QueryInterface@CArchiveStream@@UAGJABU_GUID@@PAPAX@Z 0043eba4 f   nafxcw:arcstrm.obj
 0001:0003dbed       ?Seek@CArchiveStream@@UAGJT_LARGE_INTEGER@@KPAT_ULARGE_INTEGER@@@Z 0043ebed f   nafxcw:arcstrm.obj
 0001:0003dc5f       ??0CArchiveStream@@QAE@PAVCArchive@@@Z 0043ec5f f   nafxcw:arcstrm.obj
 0001:0003dc71       ?data@CPlex@@QAEPAXXZ      0043ec71 f i nafxcw:map_pp.obj
 0001:0003dc75       ?RemoveAll@CPtrList@@QAEXXZ 0043ec75 f   nafxcw:list_p.obj
 0001:0003dc95       ?FreeNode@CPtrList@@IAEXPAUCNode@1@@Z 0043ec95 f   nafxcw:list_p.obj
 0001:0003dcb7       ?RemoveHead@CPtrList@@QAEPAXXZ 0043ecb7 f   nafxcw:list_p.obj
 0001:0003dcdb       ?RemoveTail@CPtrList@@QAEPAXXZ 0043ecdb f   nafxcw:list_p.obj
 0001:0003dcff       ?RemoveAt@CPtrList@@QAEXPAU__POSITION@@@Z 0043ecff f   nafxcw:list_p.obj
 0001:0003dd3f       ?FindIndex@CPtrList@@QBEPAU__POSITION@@H@Z 0043ed3f f   nafxcw:list_p.obj
 0001:0003dd5d       ?Find@CPtrList@@QBEPAU__POSITION@@PAXPAU2@@Z 0043ed5d f   nafxcw:list_p.obj
 0001:0003dd7c       ??0CPtrList@@QAE@H@Z       0043ed7c f   nafxcw:list_p.obj
 0001:0003dd9f       ??1CPtrList@@UAE@XZ        0043ed9f f   nafxcw:list_p.obj
 0001:0003ddaa       ?NewNode@CPtrList@@IAEPAUCNode@1@PAU21@0@Z 0043edaa f   nafxcw:list_p.obj
 0001:0003de00       ?AddHead@CPtrList@@QAEPAU__POSITION@@PAX@Z 0043ee00 f   nafxcw:list_p.obj
 0001:0003de2a       ?AddTail@CPtrList@@QAEPAU__POSITION@@PAX@Z 0043ee2a f   nafxcw:list_p.obj
 0001:0003de53       ?AddHead@CPtrList@@QAEXPAV1@@Z 0043ee53 f   nafxcw:list_p.obj
 0001:0003de90       ?AddTail@CPtrList@@QAEXPAV1@@Z 0043ee90 f   nafxcw:list_p.obj
 0001:0003decd       ?InsertBefore@CPtrList@@QAEPAU__POSITION@@PAU2@PAX@Z 0043eecd f   nafxcw:list_p.obj
 0001:0003df0a       ?InsertAfter@CPtrList@@QAEPAU__POSITION@@PAU2@PAX@Z 0043ef0a f   nafxcw:list_p.obj
 0001:0003df45       ??_ECPtrList@@UAEPAXI@Z    0043ef45 f i nafxcw:list_p.obj
 0001:0003df45       ??_GCPtrList@@UAEPAXI@Z    0043ef45 f i nafxcw:list_p.obj
 0001:0003df61       ?SetSize@CByteArray@@QAEXHH@Z 0043ef61 f   nafxcw:array_b.obj
 0001:0003e066       ?Append@CByteArray@@QAEHABV1@@Z 0043f066 f   nafxcw:array_b.obj
 0001:0003e0a6       ?Copy@CByteArray@@QAEXABV1@@Z 0043f0a6 f   nafxcw:array_b.obj
 0001:0003e0d2       ?FreeExtra@CByteArray@@QAEXXZ 0043f0d2 f   nafxcw:array_b.obj
 0001:0003e110       ?SetAtGrow@CByteArray@@QAEXHE@Z 0043f110 f   nafxcw:array_b.obj
 0001:0003e142       ?InsertAt@CByteArray@@QAEXHEH@Z 0043f142 f   nafxcw:array_b.obj
 0001:0003e1bb       ?RemoveAt@CByteArray@@QAEXHH@Z 0043f1bb f   nafxcw:array_b.obj
 0001:0003e200       ??0CByteArray@@QAE@XZ      0043f200 f   nafxcw:array_b.obj
 0001:0003e217       ??1CByteArray@@UAE@XZ      0043f217 f   nafxcw:array_b.obj
 0001:0003e227       ?InsertAt@CByteArray@@QAEXHPAV1@@Z 0043f227 f   nafxcw:array_b.obj
 0001:0003e288       ?Serialize@CByteArray@@UAEXAAVCArchive@@@Z 0043f288 f   nafxcw:array_b.obj
 0001:0003e305       ??_GCByteArray@@UAEPAXI@Z  0043f305 f i nafxcw:array_b.obj
 0001:0003e305       ??_ECByteArray@@UAEPAXI@Z  0043f305 f i nafxcw:array_b.obj
 0001:0003e321       ?Create@CPlex@@SGPAU1@AAPAU1@II@Z 0043f321 f   nafxcw:plex.obj
 0001:0003e352       ?FreeDataChain@CPlex@@QAEXXZ 0043f352 f   nafxcw:plex.obj
 0001:0003e368       ?SetSize@CPtrArray@@QAEXHH@Z 0043f368 f   nafxcw:array_p.obj
 0001:0003e482       ?Append@CPtrArray@@QAEHABV1@@Z 0043f482 f   nafxcw:array_p.obj
 0001:0003e4c7       ?Copy@CPtrArray@@QAEXABV1@@Z 0043f4c7 f   nafxcw:array_p.obj
 0001:0003e4f7       ?FreeExtra@CPtrArray@@QAEXXZ 0043f4f7 f   nafxcw:array_p.obj
 0001:0003e53c       ?SetAtGrow@CPtrArray@@QAEXHPAX@Z 0043f53c f   nafxcw:array_p.obj
 0001:0003e56e       ?InsertAt@CPtrArray@@QAEXHPAXH@Z 0043f56e f   nafxcw:array_p.obj
 0001:0003e5fe       ?RemoveAt@CPtrArray@@QAEXHH@Z 0043f5fe f   nafxcw:array_p.obj
 0001:0003e649       ??0CPtrArray@@QAE@XZ       0043f649 f   nafxcw:array_p.obj
 0001:0003e660       ??1CPtrArray@@UAE@XZ       0043f660 f   nafxcw:array_p.obj
 0001:0003e670       ?InsertAt@CPtrArray@@QAEXHPAV1@@Z 0043f670 f   nafxcw:array_p.obj
 0001:0003e6cf       ??_ECPtrArray@@UAEPAXI@Z   0043f6cf f i nafxcw:array_p.obj
 0001:0003e6cf       ??_GCPtrArray@@UAEPAXI@Z   0043f6cf f i nafxcw:array_p.obj
 0001:0003e6eb       ?HashKey@CMapPtrToPtr@@QBEIPAX@Z 0043f6eb f i nafxcw:map_pp.obj
 0001:0003e6f5       ?InitHashTable@CMapPtrToPtr@@QAEXIH@Z 0043f6f5 f   nafxcw:map_pp.obj
 0001:0003e741       ?RemoveAll@CMapPtrToPtr@@QAEXXZ 0043f741 f   nafxcw:map_pp.obj
 0001:0003e76c       ?FreeAssoc@CMapPtrToPtr@@IAEXPAUCAssoc@1@@Z 0043f76c f   nafxcw:map_pp.obj
 0001:0003e785       ?GetAssocAt@CMapPtrToPtr@@IBEPAUCAssoc@1@PAXAAI1@Z 0043f785 f   nafxcw:map_pp.obj
 0001:0003e7bd       ?GetValueAt@CMapPtrToPtr@@QBEPAXPAX@Z 0043f7bd f   nafxcw:map_pp.obj
 0001:0003e7f4       ?Lookup@CMapPtrToPtr@@QBEHPAXAAPAX@Z 0043f7f4 f   nafxcw:map_pp.obj
 0001:0003e81b       ?RemoveKey@CMapPtrToPtr@@QAEHPAX@Z 0043f81b f   nafxcw:map_pp.obj
 0001:0003e85e       ?GetNextAssoc@CMapPtrToPtr@@QBEXAAPAU__POSITION@@AAPAX1@Z 0043f85e f   nafxcw:map_pp.obj
 0001:0003e8d8       ??0CMapPtrToPtr@@QAE@H@Z   0043f8d8 f   nafxcw:map_pp.obj
 0001:0003e906       ??1CMapPtrToPtr@@UAE@XZ    0043f906 f   nafxcw:map_pp.obj
 0001:0003e911       ?NewAssoc@CMapPtrToPtr@@IAEPAUCAssoc@1@XZ 0043f911 f   nafxcw:map_pp.obj
 0001:0003e95c       ??ACMapPtrToPtr@@QAEAAPAXPAX@Z 0043f95c f   nafxcw:map_pp.obj
 0001:0003e9b1       ??_ECMapPtrToPtr@@UAEPAXI@Z 0043f9b1 f i nafxcw:map_pp.obj
 0001:0003e9b1       ??_GCMapPtrToPtr@@UAEPAXI@Z 0043f9b1 f i nafxcw:map_pp.obj
 0001:0003e9cd       ?AfxNewHandler@@YAHI@Z     0043f9cd f   nafxcw:afxmem.obj
 0001:0003e9d2       ?AfxGetNewHandler@@YGP6AHI@ZXZ 0043f9d2 f   nafxcw:afxmem.obj
 0001:0003e9d8       ?AfxSetNewHandler@@YGP6AHI@ZP6AHI@Z@Z 0043f9d8 f   nafxcw:afxmem.obj
 0001:0003e9ea       ??2@YAPAXI@Z               0043f9ea f   nafxcw:afxmem.obj
 0001:0003ea15       ??3@YAXPAX@Z               0043fa15 f   nafxcw:afxmem.obj
 0001:0003ea1a       ??_U@YAPAXI@Z              0043fa1a f   nafxcw:afxmem.obj
 0001:0003ea1f       ??_V@YAXPAX@Z              0043fa1f f   nafxcw:afxmem.obj
 0001:0003ea24       ?Delete@CException@@QAEXXZ 0043fa24 f   nafxcw:except.obj
 0001:0003ea32       ?GetErrorMessage@CException@@UAEHPADIPAI@Z 0043fa32 f   nafxcw:except.obj
 0001:0003ea53       ?ReportError@CException@@UAEHII@Z 0043fa53 f   nafxcw:except.obj
 0001:0003eac5       ??0CException@@QAE@XZ      0043fac5 f   nafxcw:except.obj
 0001:0003eacf       ??0CException@@QAE@H@Z     0043facf f   nafxcw:except.obj
 0001:0003eadb       ?AfxGetExceptionContext@@YAPAUAFX_EXCEPTION_CONTEXT@@XZ 0043fadb f i nafxcw:except.obj
 0001:0003eb03       ??0AFX_EXCEPTION_LINK@@QAE@XZ 0043fb03 f   nafxcw:except.obj
 0001:0003eb19       ?AfxTryCleanup@@YGXXZ      0043fb19 f   nafxcw:except.obj
 0001:0003eb37       ?AfxThrowLastCleanup@@YGXXZ 0043fb37 f   nafxcw:except.obj
 0001:0003eb47       ?AfxLoadString@@YGHIPADI@Z 0043fb47 f   nafxcw:winstr.obj
 0001:0003eb92       ?AfxLoadString@@YGHIPA_WI@Z 0043fb92 f   nafxcw:winstr.obj
 0001:0003ebe8       ?AfxFindStringResourceHandle@@YGPAUHINSTANCE__@@I@Z 0043fbe8 f   nafxcw:winstr.obj
 0001:0003ebf3       ?AfxExtractSubString@@YGHAAV?$CStringT@DV?$StrTraitMFC@DV?$ChTraitsCRT@D@ATL@@@@@ATL@@PBDHD@Z 0043fbf3 f   nafxcw:winstr.obj
 0001:0003ec75       ??$HashKey@PB_W@@YGIPB_W@Z 0043fc75 f   nafxcw:strcore.obj
 0001:0003ec94       ??$HashKey@PBD@@YGIPBD@Z   0043fc94 f   nafxcw:strcore.obj
 0001:0003ecae       ?AfxGetStringManager@@YGPAUIAtlStringMgr@ATL@@XZ 0043fcae f   nafxcw:strcore.obj
 0001:0003ecb4       ?Allocate@CAfxStringMgr@@UAEPAUCStringData@ATL@@HH@Z 0043fcb4 f   nafxcw:strcore.obj
 0001:0003ecef       ?Free@CAfxStringMgr@@UAEXPAUCStringData@ATL@@@Z 0043fcef f   nafxcw:strcore.obj
 0001:0003ecfc       ?Reallocate@CAfxStringMgr@@UAEPAUCStringData@ATL@@PAU23@HH@Z 0043fcfc f   nafxcw:strcore.obj
 0001:0003ed2b       ?Clone@CAfxStringMgr@@UAEPAUIAtlStringMgr@ATL@@XZ 0043fd2b f   nafxcw:strcore.obj
 0001:0003ed2e       ??B?$CSimpleStringT@_W$0A@@ATL@@QBEPB_WXZ 0043fd2e f i nafxcw:strcore.obj
 0001:0003ed31       ?GetData@?$CSimpleStringT@_W$0A@@ATL@@ABEPAUCStringData@2@XZ 0043fd31 f i nafxcw:strcore.obj
 0001:0003ed37       ?StringLength@?$CSimpleStringT@_W$0A@@ATL@@SAHPB_W@Z 0043fd37 f i nafxcw:strcore.obj
 0001:0003ed46       ?GetString@?$CSimpleStringT@_W$0A@@ATL@@QBEPB_WXZ 0043fd46 f i nafxcw:strcore.obj
 0001:0003ed49       ?CopyChars@?$CSimpleStringT@_W$0A@@ATL@@SAXPA_WPB_WH@Z 0043fd49 f i nafxcw:strcore.obj
 0001:0003ed61       ?CopyCharsOverlapped@?$CSimpleStringT@_W$0A@@ATL@@SAXPA_WPB_WH@Z 0043fd61 f i nafxcw:strcore.obj
 0001:0003ed79       ?AfxA2WHelper@@YGPA_WPA_WPBDH@Z 0043fd79 f   nafxcw:strcore.obj
 0001:0003ed8f       ?AfxW2AHelper@@YGPADPADPB_WH@Z 0043fd8f f   nafxcw:strcore.obj
 0001:0003eda5       ??$HashKey@VCComBSTR@ATL@@@@YGIVCComBSTR@ATL@@@Z 0043fda5 f   nafxcw:strcore.obj
 0001:0003eddd       ??0CAfxStringMgr@@QAE@XZ   0043fddd f i nafxcw:strcore.obj
 0001:0003ee03       ?GetNilString@CAfxStringMgr@@UAEPAUCStringData@ATL@@XZ 0043fe03 f   nafxcw:strcore.obj
 0001:0003ee11       ?GetLength@?$CSimpleStringT@_W$0A@@ATL@@QBEHXZ 0043fe11 f i nafxcw:strcore.obj
 0001:0003ee17       ?Attach@?$CSimpleStringT@_W$0A@@ATL@@AAEXPAUCStringData@2@@Z 0043fe17 f i nafxcw:strcore.obj
 0001:0003ee23       ?SetLength@?$CSimpleStringT@_W$0A@@ATL@@AAEXH@Z 0043fe23 f i nafxcw:strcore.obj
 0001:0003ee4a       ?ThrowMemoryException@?$CSimpleStringT@_W$0A@@ATL@@KAXXZ 0043fe4a f i nafxcw:strcore.obj
 0001:0003ee55       ??$SerializeElementsInsertExtract@VCComBSTR@ATL@@@@YGXAAVCArchive@@PAVCComBSTR@ATL@@H@Z 0043fe55 f i nafxcw:strcore.obj
 0001:0003eea3       ??$?6DV?$StrTraitMFC@DV?$ChTraitsCRT@D@ATL@@@@@@YGAAVCArchive@@AAV0@ABV?$CStringT@DV?$StrTraitMFC@DV?$ChTraitsCRT@D@ATL@@@@@ATL@@@Z 0043fea3 f i nafxcw:strcore.obj
 0001:0003eecf       ??$?6_WV?$StrTraitMFC@_WV?$ChTraitsCRT@_W@ATL@@@@@@YGAAVCArchive@@AAV0@ABV?$CStringT@_WV?$StrTraitMFC@_WV?$ChTraitsCRT@_W@ATL@@@@@ATL@@@Z 0043fecf f i nafxcw:strcore.obj
 0001:0003eefe       ?Empty@?$CSimpleStringT@_W$0A@@ATL@@QAEXXZ 0043fefe f i nafxcw:strcore.obj
 0001:0003ef42       ?ReleaseBufferSetLength@?$CSimpleStringT@_W$0A@@ATL@@QAEXH@Z 0043ff42 f i nafxcw:strcore.obj
 0001:0003ef47       ?Fork@?$CSimpleStringT@_W$0A@@ATL@@AAEXH@Z 0043ff47 f i nafxcw:strcore.obj
 0001:0003efae       ?Reallocate@?$CSimpleStringT@_W$0A@@ATL@@AAEXH@Z 0043ffae f i nafxcw:strcore.obj
 0001:0003efd6       ??$SerializeElements@VCComBSTR@ATL@@@@YGXAAVCArchive@@PAVCComBSTR@ATL@@H@Z 0043ffd6 f   nafxcw:strcore.obj
 0001:0003efdb       ??0?$CTempBuffer@D$0IA@VCCRTAllocator@ATL@@@ATL@@QAE@I@Z 0043ffdb f i nafxcw:strcore.obj
 0001:0003eff0       ??0?$CTempBuffer@_W$0IA@VCCRTAllocator@ATL@@@ATL@@QAE@I@Z 0043fff0 f i nafxcw:strcore.obj
 0001:0003f008       ?PrepareWrite2@?$CSimpleStringT@_W$0A@@ATL@@AAEXH@Z 00440008 f i nafxcw:strcore.obj
 0001:0003f04f       ?PrepareWrite@?$CSimpleStringT@_W$0A@@ATL@@AAEPA_WH@Z 0044004f f i nafxcw:strcore.obj
 0001:0003f079       ?GetBuffer@?$CSimpleStringT@_W$0A@@ATL@@QAEPA_WH@Z 00440079 f i nafxcw:strcore.obj
 0001:0003f07e       ?SetString@?$CSimpleStringT@_W$0A@@ATL@@QAEXPB_WH@Z 0044007e f i nafxcw:strcore.obj
 0001:0003f0e7       ??4?$CStringT@_WV?$StrTraitMFC@_WV?$ChTraitsCRT@_W@ATL@@@@@ATL@@QAEAAV01@PBD@Z 004400e7 f i nafxcw:strcore.obj
 0001:0003f131       ?SetString@?$CSimpleStringT@_W$0A@@ATL@@QAEXPB_W@Z 00440131 f i nafxcw:strcore.obj
 0001:0003f156       ??$?5DV?$StrTraitMFC@DV?$ChTraitsCRT@D@ATL@@@@@@YGAAVCArchive@@AAV0@AAV?$CStringT@DV?$StrTraitMFC@DV?$ChTraitsCRT@D@ATL@@@@@ATL@@@Z 00440156 f i nafxcw:strcore.obj
 0001:0003f277       ??4?$CSimpleStringT@_W$0A@@ATL@@QAEAAV01@PB_W@Z 00440277 f i nafxcw:strcore.obj
 0001:0003f289       ??$SerializeElementsInsertExtract@V?$CStringT@DV?$StrTraitMFC@DV?$ChTraitsCRT@D@ATL@@@@@ATL@@@@YGXAAVCArchive@@PAV?$CStringT@DV?$StrTraitMFC@DV?$ChTraitsCRT@D@ATL@@@@@ATL@@H@Z 00440289 f i nafxcw:strcore.obj
 0001:0003f2cb       ??4?$CStringT@_WV?$StrTraitMFC@_WV?$ChTraitsCRT@_W@ATL@@@@@ATL@@QAEAAV01@PB_W@Z 004402cb f i nafxcw:strcore.obj
 0001:0003f2dd       ??$SerializeElements@V?$CStringT@DV?$StrTraitMFC@DV?$ChTraitsCRT@D@ATL@@@@@ATL@@@@YGXAAVCArchive@@PAV?$CStringT@DV?$StrTraitMFC@DV?$ChTraitsCRT@D@ATL@@@@@ATL@@H@Z 004402dd f   nafxcw:strcore.obj
 0001:0003f2e2       ??$?5_WV?$StrTraitMFC@_WV?$ChTraitsCRT@_W@ATL@@@@@@YGAAVCArchive@@AAV0@AAV?$CStringT@_WV?$StrTraitMFC@_WV?$ChTraitsCRT@_W@ATL@@@@@ATL@@@Z 004402e2 f i nafxcw:strcore.obj
 0001:0003f403       ??$SerializeElementsInsertExtract@V?$CStringT@_WV?$StrTraitMFC@_WV?$ChTraitsCRT@_W@ATL@@@@@ATL@@@@YGXAAVCArchive@@PAV?$CStringT@_WV?$StrTraitMFC@_WV?$ChTraitsCRT@_W@ATL@@@@@ATL@@H@Z 00440403 f i nafxcw:strcore.obj
 0001:0003f445       ??$SerializeElements@V?$CStringT@_WV?$StrTraitMFC@_WV?$ChTraitsCRT@_W@ATL@@@@@ATL@@@@YGXAAVCArchive@@PAV?$CStringT@_WV?$StrTraitMFC@_WV?$ChTraitsCRT@_W@ATL@@@@@ATL@@H@Z 00440445 f   nafxcw:strcore.obj
 0001:0003f454       ?GetRuntimeClass@CObject@@UBEPAUCRuntimeClass@@XZ 00440454 f   nafxcw:objcore.obj
 0001:0003f45a       ?CreateObject@CRuntimeClass@@QAEPAVCObject@@XZ 0044045a f   nafxcw:objcore.obj
 0001:0003f4a0       ?IsSerializable@CObject@@QBEHXZ 004404a0 f   nafxcw:objcore.obj
 0001:0003f4b3       ?IsDerivedFrom@CRuntimeClass@@QBEHPBU1@@Z 004404b3 f   nafxcw:objcore.obj
 0001:0003f4d5       ?AddHead@?$CTypedSimpleList@PAUCRuntimeClass@@@@QAEXPAUCRuntimeClass@@@Z 004404d5 f i nafxcw:objcore.obj
 0001:0003f4da       ?IsKindOf@CObject@@QBEHPBUCRuntimeClass@@@Z 004404da f   nafxcw:objcore.obj
 0001:0003f4e5       ?AfxDynamicDownCast@@YAPAVCObject@@PAUCRuntimeClass@@PAV1@@Z 004404e5 f   nafxcw:objcore.obj
 0001:0003f50b       ?AfxClassInit@@YGXPAUCRuntimeClass@@@Z 0044050b f   nafxcw:objcore.obj
 0001:0003f531       ?UpdateSysColors@AUX_DATA@@QAEXXZ 00440531 f   nafxcw:auxdata.obj
 0001:0003f575       ?UpdateSysMetrics@AUX_DATA@@QAEXXZ 00440575 f   nafxcw:auxdata.obj
 0001:0003f5cf       ?AfxGetThread@@YGPAVCWinThread@@XZ 004405cf f   nafxcw:thrdcore.obj
 0001:0003f5d8       ?AfxGetCurrentMessage@@YGPAUtagMSG@@XZ 004405d8 f   nafxcw:thrdcore.obj
 0001:0003f5e1       ?AfxInternalProcessWndProcException@@YGJPAVCException@@PBUtagMSG@@@Z 004405e1 f   nafxcw:thrdcore.obj
 0001:0003f606       ?AfxProcessWndProcException@@YGJPAVCException@@PBUtagMSG@@@Z 00440606 f   nafxcw:thrdcore.obj
 0001:0003f61c       ?AfxTermThread@@YGXPAUHINSTANCE__@@@Z 0044061c f   nafxcw:thrdcore.obj
 0001:0003f6ca       ?Delete@CWinThread@@UAEXXZ 004406ca f   nafxcw:thrdcore.obj
 0001:0003f6d8       ?InitInstance@CWinThread@@UAEHXZ 004406d8 f   nafxcw:thrdcore.obj
 0001:0003f6db       ?Run@CWinThread@@UAEHXZ    004406db f   nafxcw:thrdcore.obj
 0001:0003f768       ?ExitInstance@CWinThread@@UAEHXZ 00440768 f   nafxcw:thrdcore.obj
 0001:0003f771       ?DispatchThreadMessageEx@CWinThread@@IAEHPAUtagMSG@@@Z 00440771 f   nafxcw:thrdcore.obj
 0001:0003f7e7       ?ProcessWndProcException@CWinThread@@UAEJPAVCException@@PBUtagMSG@@@Z 004407e7 f   nafxcw:thrdcore.obj
 0001:0003f7ec       ?IsHelpKey@@YGHPAUtagMSG@@@Z 004407ec f   nafxcw:thrdcore.obj
 0001:0003f832       ?IsEnterKey@@YAHPAUtagMSG@@@Z 00440832 f i nafxcw:thrdcore.obj
 0001:0003f84c       ?IsButtonUp@@YAHPAUtagMSG@@@Z 0044084c f i nafxcw:thrdcore.obj
 0001:0003f85d       ?AfxInternalPreTranslateMessage@@YAHPAUtagMSG@@@Z 0044085d f   nafxcw:thrdcore.obj
 0001:0003f8c9       ?AfxPreTranslateMessage@@YAHPAUtagMSG@@@Z 004408c9 f   nafxcw:thrdcore.obj
 0001:0003f8e4       ?AfxInternalIsIdleMessage@@YAHPAUtagMSG@@@Z 004408e4 f   nafxcw:thrdcore.obj
 0001:0003f950       ?AfxIsIdleMessage@@YAHPAUtagMSG@@@Z 00440950 f   nafxcw:thrdcore.obj
 0001:0003f96b       ?AfxEndThread@@YGXIH@Z     0044096b f   nafxcw:thrdcore.obj
 0001:0003f9b0       ?IsIdleMessage@CWinThread@@UAEHPAUtagMSG@@@Z 004409b0 f   nafxcw:thrdcore.obj
 0001:0003f9bd       ?DispatchThreadMessage@CWinThread@@IAEXPAUtagMSG@@@Z 004409bd f   nafxcw:thrdcore.obj
 0001:0003f9c2       ?PreTranslateMessage@CWinThread@@UAEHPAUtagMSG@@@Z 004409c2 f   nafxcw:thrdcore.obj
 0001:0003f9cf       ?GetMainWnd@CWinThread@@UAEPAVCWnd@@XZ 004409cf f   nafxcw:thrdcore.obj
 0001:0003f9ea       ?AfxInternalPumpMessage@@YGHXZ 004409ea f   nafxcw:thrdcore.obj
 0001:0003fa2e       ?AfxPumpMessage@@YGHXZ     00440a2e f   nafxcw:thrdcore.obj
 0001:0003fa44       ?_AfxMsgFilterHook@@YGJHIJ@Z 00440a44 f   nafxcw:thrdcore.obj
 0001:0003fa9d       ?ProcessMessageFilter@CWinThread@@UAEHHPAUtagMSG@@@Z 00440a9d f   nafxcw:thrdcore.obj
 0001:0003fbbd       ?PumpMessage@CWinThread@@UAEHXZ 00440bbd f   nafxcw:thrdcore.obj
 0001:0003fbc2       ?AfxInitThread@@YGXXZ      00440bc2 f   nafxcw:thrdcore.obj
 0001:0003fbf0       ?OnIdle@CWinThread@@UAEHJ@Z 00440bf0 f   nafxcw:thrdcore.obj
 0001:0003fcf9       ?_AfxThreadEntry@@YGIPAX@Z 00440cf9 f   nafxcw:thrdcore.obj
 0001:0003fe27       ?CreateThread@CWinThread@@QAEHKIPAU_SECURITY_ATTRIBUTES@@@Z 00440e27 f   nafxcw:thrdcore.obj
 0001:0003ff0a       ?AfxBeginThread@@YGPAVCWinThread@@P6AIPAX@Z0HIKPAU_SECURITY_ATTRIBUTES@@@Z 00440f0a f   nafxcw:thrdcore.obj
 0001:0003ff8c       ?AfxBeginThread@@YGPAVCWinThread@@PAUCRuntimeClass@@HIKPAU_SECURITY_ATTRIBUTES@@@Z 00440f8c f   nafxcw:thrdcore.obj
 0001:0003ffec       ?OnAmbientProperty@CWnd@@UAEHPAVCOleControlSite@@JPAUtagVARIANT@@@Z 00440fec f   nafxcw:winocc.obj
 0001:0003fff4       ?GetControlUnknown@CWnd@@QAEPAUIUnknown@@XZ 00440ff4 f   nafxcw:winocc.obj
 0001:00040000       ?PaintWindowlessControls@CWnd@@QAEHPAVCDC@@@Z 00441000 f   nafxcw:winocc.obj
 0001:00040016       ?GetOleControlSite@CWnd@@QBEPAVCOleControlSite@@I@Z 00441016 f   nafxcw:winocc.obj
 0001:00040029       ?CheckDlgButton@CWnd@@QAEXHI@Z 00441029 f   nafxcw:winocc.obj
 0001:0004004b       ?CheckRadioButton@CWnd@@QAEXHHH@Z 0044104b f   nafxcw:winocc.obj
 0001:00040073       ?GetDlgItem@CWnd@@QBEPAV1@H@Z 00441073 f   nafxcw:winocc.obj
 0001:00040097       ?GetDlgItem@CWnd@@QBEXHPAPAUHWND__@@@Z 00441097 f   nafxcw:winocc.obj
 0001:000400bb       ?GetDlgItemInt@CWnd@@QBEIHPAHH@Z 004410bb f   nafxcw:winocc.obj
 0001:000400e3       ?GetDlgItemTextA@CWnd@@QBEHHPADH@Z 004410e3 f   nafxcw:winocc.obj
 0001:0004010b       ?SendDlgItemMessageA@CWnd@@QAEJHIIJ@Z 0044110b f   nafxcw:winocc.obj
 0001:00040139       ?SetDlgItemInt@CWnd@@QAEXHIH@Z 00441139 f   nafxcw:winocc.obj
 0001:00040164       ?SetDlgItemTextA@CWnd@@QAEXHPBD@Z 00441164 f   nafxcw:winocc.obj
 0001:00040189       ?IsDlgButtonChecked@CWnd@@QBEIH@Z 00441189 f   nafxcw:winocc.obj
 0001:000401aa       ?IsDialogMessageA@CWnd@@QAEHPAUtagMSG@@@Z 004411aa f   nafxcw:winocc.obj
 0001:000401dd       ?GetStyle@CWnd@@QBEKXZ     004411dd f   nafxcw:winocc.obj
 0001:000401f7       ?GetExStyle@CWnd@@QBEKXZ   004411f7 f   nafxcw:winocc.obj
 0001:00040211       ?ModifyStyle@CWnd@@QAEHKKI@Z 00441211 f   nafxcw:winocc.obj
 0001:0004023b       ?ModifyStyleEx@CWnd@@QAEHKKI@Z 0044123b f   nafxcw:winocc.obj
 0001:00040265       ?SetWindowTextA@CWnd@@QAEXPBD@Z 00441265 f   nafxcw:winocc.obj
 0001:00040286       ?GetDlgCtrlID@CWnd@@QBEHXZ 00441286 f   nafxcw:winocc.obj
 0001:000402a1       ?SetDlgCtrlID@CWnd@@QAEHH@Z 004412a1 f   nafxcw:winocc.obj
 0001:000402c4       ?MoveWindow@CWnd@@QAEXHHHHH@Z 004412c4 f   nafxcw:winocc.obj
 0001:00040302       ?ShowWindow@CWnd@@QAEHH@Z  00441302 f   nafxcw:winocc.obj
 0001:00040323       ?IsWindowEnabled@CWnd@@QBEHXZ 00441323 f   nafxcw:winocc.obj
 0001:0004033e       ?EnableWindow@CWnd@@QAEHH@Z 0044133e f   nafxcw:winocc.obj
 0001:0004035f       ?SetFocus@CWnd@@QAEPAV1@XZ 0044135f f   nafxcw:winocc.obj
 0001:00040380       ?InvokeHelper@CWnd@@QAAXJGGPAXPBEZZ 00441380 f   nafxcw:winocc.obj
 0001:000403a9       ?GetProperty@CWnd@@QBEXJGPAX@Z 004413a9 f   nafxcw:winocc.obj
 0001:000403cb       ?SetProperty@CWnd@@QAAXJGZZ 004413cb f   nafxcw:winocc.obj
 0001:000403eb       ?GetDSCCursor@CWnd@@QAEPAUIUnknown@@XZ 004413eb f   nafxcw:winocc.obj
 0001:00040411       ?BindDefaultProperty@CWnd@@QAEXJGPBDPAV1@@Z 00441411 f   nafxcw:winocc.obj
 0001:0004041c       ?BindProperty@CWnd@@QAEXJPAV1@@Z 0044141c f   nafxcw:winocc.obj
 0001:00040427       ?AttachControlSite@CWnd@@QAEXPAV1@I@Z 00441427 f   nafxcw:winocc.obj
 0001:0004044c       ?GetStyle@COleControlSiteOrWnd@@QBEKXZ 0044144c f   nafxcw:winocc.obj
 0001:00040465       ?IsDisabled@CDlgGroupRadioButtonIterator@@SA_NPBUCOleControlSiteOrWnd@@@Z 00441465 f i nafxcw:winocc.obj
 0001:000404a7       ?IsGroup@CDlgGroupRadioButtonIterator@@SA_NPBUCOleControlSiteOrWnd@@@Z 004414a7 f i nafxcw:winocc.obj
 0001:000404b7       ?AttachControlSite@COleControlContainer@@UAEXPAVCWnd@@I@Z 004414b7 f   nafxcw:winocc.obj
 0001:000404f7       ?GetNext@?$_CTypedPtrList@VCPtrList@@PAUCOleControlSiteOrWnd@@@@QAEAAPAUCOleControlSiteOrWnd@@AAPAU__POSITION@@@Z 004414f7 f i nafxcw:winocc.obj
 0001:000404fc       ?GetPrev@?$_CTypedPtrList@VCPtrList@@PAUCOleControlSiteOrWnd@@@@QAEAAPAUCOleControlSiteOrWnd@@AAPAU__POSITION@@@Z 004414fc f i nafxcw:winocc.obj
 0001:00040501       ??0?$CTypedPtrListIterator@VCPtrList@@PAUCOleControlSiteOrWnd@@@@QAE@ABV?$CTypedPtrList@VCPtrList@@PAUCOleControlSiteOrWnd@@@@@Z 00441501 f i nafxcw:winocc.obj
 0001:00040512       ??0?$CTypedPtrListIterator@VCPtrList@@PAUCOleControlSiteOrWnd@@@@QAE@ABV?$CTypedPtrList@VCPtrList@@PAUCOleControlSiteOrWnd@@@@PAU__POSITION@@@Z 00441512 f i nafxcw:winocc.obj
 0001:00040524       ??0?$CTypedPtrListIterator@VCPtrList@@PAUCOleControlSiteOrWnd@@@@QAE@ABV0@@Z 00441524 f i nafxcw:winocc.obj
 0001:00040537       ??4?$CTypedPtrListIterator@VCPtrList@@PAUCOleControlSiteOrWnd@@@@QAEAAV0@ABV0@@Z 00441537 f i nafxcw:winocc.obj
 0001:00040546       ?GetPosition@?$CTypedPtrListIterator@VCPtrList@@PAUCOleControlSiteOrWnd@@@@QBEPAU__POSITION@@XZ 00441546 f i nafxcw:winocc.obj
 0001:0004054a       ?IsEnd@?$CTypedPtrListIterator@VCPtrList@@PAUCOleControlSiteOrWnd@@@@QBE_NXZ 0044154a f i nafxcw:winocc.obj
 0001:00040553       ??7?$CTypedPtrListIterator@VCPtrList@@PAUCOleControlSiteOrWnd@@@@QBE_NXZ 00441553 f i nafxcw:winocc.obj
 0001:0004055c       ?GetNext@?$_CTypedPtrList@VCPtrList@@PAUCOleControlSiteOrWnd@@@@QBEPAUCOleControlSiteOrWnd@@AAPAU__POSITION@@@Z 0044155c f i nafxcw:winocc.obj
 0001:0004056a       ?GetPrev@?$_CTypedPtrList@VCPtrList@@PAUCOleControlSiteOrWnd@@@@QBEPAUCOleControlSiteOrWnd@@AAPAU__POSITION@@@Z 0044156a f i nafxcw:winocc.obj
 0001:00040578       ?GetAt@?$_CTypedPtrList@VCPtrList@@PAUCOleControlSiteOrWnd@@@@QBEPAUCOleControlSiteOrWnd@@PAU__POSITION@@@Z 00441578 f i nafxcw:winocc.obj
 0001:0004058b       ?ScrollWindowEx@CWnd@@QAEHHHPBUtagRECT@@0PAVCRgn@@PAU2@I@Z 0044158b f   nafxcw:winocc.obj
 0001:000405dc       ?SetWindowPos@CWnd@@QAEHPBV1@HHHHI@Z 004415dc f   nafxcw:winocc.obj
 0001:00040618       ?AttachControlSite@CWnd@@IAEXPAVCHandleMap@@@Z 00441618 f   nafxcw:winocc.obj
 0001:00040659       ?GetNextDlgTabItem@CWnd@@QBEPAUCOleControlSiteOrWnd@@PAU2@H@Z 00441659 f   nafxcw:winocc.obj
 0001:00040781       ??0CDlgControlIterator@@QAE@ABVCOleControlContainer@@@Z 00441781 f i nafxcw:winocc.obj
 0001:00040795       ??0CDlgControlIterator@@QAE@ABVCOleControlContainer@@PAU__POSITION@@@Z 00441795 f i nafxcw:winocc.obj
 0001:000407aa       ??0CDlgControlIterator@@QAE@ABV0@@Z 004417aa f i nafxcw:winocc.obj
 0001:000407bd       ??0CDlgControlIterator@@IAE@ABV?$CTypedPtrListIterator@VCPtrList@@PAUCOleControlSiteOrWnd@@@@@Z 004417bd f i nafxcw:winocc.obj
 0001:000407d0       ??0CDlgGroupRadioButtonIterator@@QAE@AAVCOleControlContainer@@PAU__POSITION@@@Z 004417d0 f i nafxcw:winocc.obj
 0001:000407e5       ?IsEnd@CDlgGroupRadioButtonIterator@@QBE_NXZ 004417e5 f i nafxcw:winocc.obj
 0001:000407ee       ??4CDlgControlIterator@@QAEAAV0@ABV0@@Z 004417ee f i nafxcw:winocc.obj
 0001:000407fd       ?RemoveRadioCheckFromGroup@CWnd@@QBEXPBUCOleControlSiteOrWnd@@@Z 004417fd f   nafxcw:winocc.obj
 0001:0004090d       ?MoveNext@?$CTypedPtrListIterator@VCPtrList@@PAUCOleControlSiteOrWnd@@@@QAEXXZ 0044190d f i nafxcw:winocc.obj
 0001:0004091e       ?MovePrev@?$CTypedPtrListIterator@VCPtrList@@PAUCOleControlSiteOrWnd@@@@QAEXXZ 0044191e f i nafxcw:winocc.obj
 0001:0004092f       ?Skip@?$CTypedPtrListIterator@VCPtrList@@PAUCOleControlSiteOrWnd@@@@QBE?AV1@H@Z 0044192f f i nafxcw:winocc.obj
 0001:00040974       ??D?$CTypedPtrListIterator@VCPtrList@@PAUCOleControlSiteOrWnd@@@@QAEPAUCOleControlSiteOrWnd@@XZ 00441974 f i nafxcw:winocc.obj
 0001:00040984       ??D?$CTypedPtrListIterator@VCPtrList@@PAUCOleControlSiteOrWnd@@@@QBEQAUCOleControlSiteOrWnd@@XZ 00441984 f i nafxcw:winocc.obj
 0001:00040994       ?Skip@CDlgControlIterator@@QBE?AV1@H@Z 00441994 f i nafxcw:winocc.obj
 0001:000409b8       ??BCDlgGroupRadioButtonIterator@@QBEPAUCOleControlSiteOrWnd@@XZ 004419b8 f i nafxcw:winocc.obj
 0001:000409c8       ?GetFirstButton@CDlgGroupRadioButtonIterator@@QBE?AVCDlgControlIterator@@XZ 004419c8 f i nafxcw:winocc.obj
 0001:00040a32       ?GetLastButton@CDlgGroupRadioButtonIterator@@QBE?AVCDlgControlIterator@@XZ 00441a32 f i nafxcw:winocc.obj
 0001:00040b4a       ?GetWindowTextA@CWnd@@QBEHPADH@Z 00441b4a f   nafxcw:winocc.obj
 0001:00040bca       ?GetWindowTextLengthA@CWnd@@QBEHXZ 00441bca f   nafxcw:winocc.obj
 0001:00040c2b       ?MoveNext@CDlgGroupRadioButtonIterator@@QAEXXZ 00441c2b f i nafxcw:winocc.obj
 0001:00040c98       ?MovePrev@CDlgGroupRadioButtonIterator@@QAEXXZ 00441c98 f i nafxcw:winocc.obj
 0001:00040d07       ?GetPrevDlgGroupItem@CWnd@@QBEPAUCOleControlSiteOrWnd@@PAU2@@Z 00441d07 f   nafxcw:winocc.obj
 0001:00040d58       ?GetNextDlgGroupItem@CWnd@@QBEPAUCOleControlSiteOrWnd@@PAU2@@Z 00441d58 f   nafxcw:winocc.obj
 0001:00040da9       ??0CCmdTarget@@QAE@XZ      00441da9 f   nafxcw:cmdtarg.obj
 0001:00040dc3       ??1CCmdTarget@@UAE@XZ      00441dc3 f   nafxcw:cmdtarg.obj
 0001:00040dd0       ?_AfxDispatchCmdMsg@@YGHPAVCCmdTarget@@IHP81@AEXXZPAXIPAUAFX_CMDHANDLERINFO@@@Z 00441dd0 f   nafxcw:cmdtarg.obj
 0001:00040ee8       ?OnCmdMsg@CCmdTarget@@UAEHIHPAXPAUAFX_CMDHANDLERINFO@@@Z 00441ee8 f   nafxcw:cmdtarg.obj
 0001:00040ff4       ?IsInvokeAllowed@CCmdTarget@@UAEHJ@Z 00441ff4 f   nafxcw:cmdtarg.obj
 0001:00040ffa       ?GetDispatchIID@CCmdTarget@@UAEHPAU_GUID@@@Z 00441ffa f   nafxcw:cmdtarg.obj
 0001:00040fff       ?GetTypeInfoCount@CCmdTarget@@UAEIXZ 00441fff f   nafxcw:cmdtarg.obj
 0001:00041002       ?GetTypeLibCache@CCmdTarget@@UAEPAVCTypeLibCache@@XZ 00442002 f   nafxcw:cmdtarg.obj
 0001:00041005       ?GetTypeLib@CCmdTarget@@UAEJKPAPAUITypeLib@@@Z 00442005 f   nafxcw:cmdtarg.obj
 0001:0004100d       ?GetMessageMap@CCmdTarget@@MBEPBUAFX_MSGMAP@@XZ 0044200d f   nafxcw:cmdtarg.obj
 0001:00041013       ?GetDispatchMap@CCmdTarget@@MBEPBUAFX_DISPMAP@@XZ 00442013 f   nafxcw:cmdtarg.obj
 0001:00041019       ?GetEventSinkMap@CCmdTarget@@MBEPBUAFX_EVENTSINKMAP@@XZ 00442019 f   nafxcw:cmdtarg.obj
 0001:0004101f       ?GetInterfaceMap@CCmdTarget@@MBEPBUAFX_INTERFACEMAP@@XZ 0044201f f   nafxcw:cmdtarg.obj
 0001:00041025       ?OnFinalRelease@CCmdTarget@@UAEXXZ 00442025 f   nafxcw:cmdtarg.obj
 0001:00041053       ?OnCreateAggregates@CCmdTarget@@UAEHXZ 00442053 f   nafxcw:cmdtarg.obj
 0001:00041057       ?GetInterfaceHook@CCmdTarget@@UAEPAUIUnknown@@PBX@Z 00442057 f   nafxcw:cmdtarg.obj
 0001:0004105c       ?GetConnectionMap@CCmdTarget@@MBEPBUAFX_CONNECTIONMAP@@XZ 0044205c f   nafxcw:cmdtarg.obj
 0001:00041062       ?GetConnectionHook@CCmdTarget@@MAEPAUIConnectionPoint@@ABU_GUID@@@Z 00442062 f   nafxcw:cmdtarg.obj
 0001:00041067       ?GetExtraConnectionPoints@CCmdTarget@@MAEHPAVCPtrArray@@@Z 00442067 f   nafxcw:cmdtarg.obj
 0001:0004106c       ?GetCommandMap@CCmdTarget@@MBEPBUAFX_OLECMDMAP@@XZ 0044206c f   nafxcw:cmdtarg.obj
 0001:00041072       ?GetRoutingView@CCmdTarget@@IAEPAVCView@@XZ 00442072 f   nafxcw:cmdtarg.obj
 0001:00041077       ?GetRoutingFrame@CCmdTarget@@IAEPAVCFrameWnd@@XZ 00442077 f   nafxcw:cmdtarg.obj
 0001:0004107c       ??0CCmdUI@@QAE@XZ          0044207c f   nafxcw:cmdtarg.obj
 0001:000410a2       ?DoUpdate@CCmdUI@@QAEHPAVCCmdTarget@@H@Z 004420a2 f   nafxcw:cmdtarg.obj
 0001:00041103       ?BeginWaitCursor@CCmdTarget@@QAEXXZ 00442103 f   nafxcw:cmdtarg.obj
 0001:00041118       ?EndWaitCursor@CCmdTarget@@QAEXXZ 00442118 f   nafxcw:cmdtarg.obj
 0001:0004112d       ?RestoreWaitCursor@CCmdTarget@@QAEXXZ 0044212d f   nafxcw:cmdtarg.obj
 0001:00041142       ?Enable@CCmdUI@@UAEXH@Z    00442142 f   nafxcw:cmdtarg.obj
 0001:000411c1       ?SetCheck@CCmdUI@@UAEXH@Z  004421c1 f   nafxcw:cmdtarg.obj
 0001:00041226       ?SetRadio@CCmdUI@@UAEXH@Z  00442226 f   nafxcw:cmdtarg.obj
 0001:0004127c       ?SetText@CCmdUI@@UAEXPBD@Z 0044227c f   nafxcw:cmdtarg.obj
 0001:000412d0       ?AfxLockTempMaps@@YGXXZ    004422d0 f   nafxcw:winhand.obj
 0001:000412d9       ??0CHandleMap@@QAE@PAUCRuntimeClass@@P6GXPAVCObject@@@Z2IH@Z 004422d9 f   nafxcw:winhand.obj
 0001:0004135d       ?GetDataNA@?$CThreadLocal@V_AFX_THREAD_STATE@@@@QAEPAV_AFX_THREAD_STATE@@XZ 0044235d f i nafxcw:winhand.obj
 0001:00041362       ?FromHandle@CHandleMap@@QAEPAVCObject@@PAX@Z 00442362 f   nafxcw:winhand.obj
 0001:00041424       ?DeleteTemp@CHandleMap@@QAEXXZ 00442424 f   nafxcw:winhand.obj
 0001:00041487       ?DeleteTempMap@CWnd@@SGXXZ 00442487 f   nafxcw:winhand.obj
 0001:00041494       ?DeleteTempMap@CImageList@@SGXXZ 00442494 f   nafxcw:winhand.obj
 0001:000414a1       ?DeleteTempMap@CDC@@SGXXZ  004424a1 f   nafxcw:winhand.obj
 0001:000414ae       ?DeleteTempMap@CGdiObject@@SGXXZ 004424ae f   nafxcw:winhand.obj
 0001:000414bb       ?DeleteTempMap@CMenu@@SGXXZ 004424bb f   nafxcw:winhand.obj
 0001:000414c8       ?AfxUnlockTempMaps@@YGHH@Z 004424c8 f   nafxcw:winhand.obj
 0001:000415c1       ??1?$CProcessLocal@V_AFX_HTMLHELP_STATE@@@@QAE@XZ 004425c1 f i nafxcw:wincore.obj
 0001:000415c6       ??0XAccessible@CWnd@@QAE@XZ 004425c6 f i nafxcw:wincore.obj
 0001:000415cf       ??0XAccessibleServer@CWnd@@QAE@XZ 004425cf f i nafxcw:wincore.obj
 0001:000415d8       ??0CWnd@@AAE@PAUHWND__@@@Z 004425d8 f   nafxcw:wincore.obj
 0001:0004161e       ?_AfxModifyStyle@@YGHPAUHWND__@@HKKI@Z 0044261e f   nafxcw:wincore.obj
 0001:0004166e       ?ModifyStyle@CWnd@@SGHPAUHWND__@@KKI@Z 0044266e f   nafxcw:wincore.obj
 0001:00041688       ?ModifyStyleEx@CWnd@@SGHPAUHWND__@@KKI@Z 00442688 f   nafxcw:wincore.obj
 0001:000416a2       ?PreSubclassWindow@CWnd@@UAEXXZ 004426a2 f   nafxcw:wincore.obj
 0001:000416a3       ?PostNcDestroy@CWnd@@MAEXXZ 004426a3 f   nafxcw:wincore.obj
 0001:000416a4       ?OnFinalRelease@CWnd@@UAEXXZ 004426a4 f   nafxcw:wincore.obj
 0001:000416b5       ?DefWindowProcA@CWnd@@MAEJIIJ@Z 004426b5 f   nafxcw:wincore.obj
 0001:000416fc       ?GetSuperWndProcAddr@CWnd@@MAEPAP6GJPAUHWND__@@IIJ@ZXZ 004426fc f   nafxcw:wincore.obj
 0001:00041700       ?PreTranslateMessage@CWnd@@UAEHPAUtagMSG@@@Z 00442700 f   nafxcw:wincore.obj
 0001:0004171f       ?OnToolHitTest@CWnd@@UBEHVCPoint@@PAUtagTOOLINFOA@@@Z 0044271f f   nafxcw:wincore.obj
 0001:00041790       ?GetWindowPlacement@CWnd@@QBEHPAUtagWINDOWPLACEMENT@@@Z 00442790 f   nafxcw:wincore.obj
 0001:000417a7       ?SetWindowPlacement@CWnd@@QAEHPBUtagWINDOWPLACEMENT@@@Z 004427a7 f   nafxcw:wincore.obj
 0001:000417be       ?AfxRegisterClass@@YGHPAUtagWNDCLASSA@@@Z 004427be f   nafxcw:wincore.obj
 0001:000418c0       ??1_AFX_HTMLHELP_STATE@@UAE@XZ 004428c0 f   nafxcw:wincore.obj
 0001:000418d5       ??_G_AFX_HTMLHELP_STATE@@UAEPAXI@Z 004428d5 f i nafxcw:wincore.obj
 0001:000418d5       ??_E_AFX_HTMLHELP_STATE@@UAEPAXI@Z 004428d5 f i nafxcw:wincore.obj
 0001:000418f0       ?GetMessageMap@CWnd@@MBEPBUAFX_MSGMAP@@XZ 004428f0 f   nafxcw:wincore.obj
 0001:000418f6       ?AfxFindMessageEntry@@YGPBUAFX_MSGMAP_ENTRY@@PBU1@III@Z 004428f6 f   nafxcw:wincore.obj
 0001:00041936       ?AfxResetMsgCache@@YGXXZ   00442936 f   nafxcw:wincore.obj
 0001:0004194b       ?WindowProc@CWnd@@MAEJIIJ@Z 0044294b f   nafxcw:wincore.obj
 0001:0004198f       ??0CTestCmdUI@@QAE@XZ      0044298f f   nafxcw:wincore.obj
 0001:000419a8       ?Enable@CTestCmdUI@@UAEXH@Z 004429a8 f   nafxcw:wincore.obj
 0001:000419b9       ?SetCheck@CTestCmdUI@@UAEXH@Z 004429b9 f   nafxcw:wincore.obj
 0001:000419bc       ?SetRadio@CTestCmdUI@@UAEXH@Z 004429bc f   nafxcw:wincore.obj
 0001:000419bf       ?SetText@CTestCmdUI@@UAEXPBD@Z 004429bf f   nafxcw:wincore.obj
 0001:000419c2       ?GetScrollBarCtrl@CWnd@@UBEPAVCScrollBar@@H@Z 004429c2 f   nafxcw:wincore.obj
 0001:000419c7       ?SetScrollInfo@CWnd@@QAEHHPAUtagSCROLLINFO@@H@Z 004429c7 f   nafxcw:wincore.obj
 0001:00041a04       ?GetScrollInfo@CWnd@@QAEHHPAUtagSCROLLINFO@@I@Z 00442a04 f   nafxcw:wincore.obj
 0001:00041a41       ?AfxRepositionWindow@@YGXPAUAFX_SIZEPARENTPARAMS@@PAUHWND__@@PBUtagRECT@@@Z 00442a41 f   nafxcw:wincore.obj
 0001:00041acd       ?CalcWindowRect@CWnd@@UAEXPAUtagRECT@@I@Z 00442acd f   nafxcw:wincore.obj
 0001:00041afa       ?GetInterfaceMap@CWnd@@MBEPBUAFX_INTERFACEMAP@@XZ 00442afa f   nafxcw:wincore.obj
 0001:00041b00       ?AddRef@XAccessible@CWnd@@UAGKXZ 00442b00 f   nafxcw:wincore.obj
 0001:00041b0f       ?Release@XAccessible@CWnd@@UAGKXZ 00442b0f f   nafxcw:wincore.obj
 0001:00041b1e       ?QueryInterface@XAccessible@CWnd@@UAGJABU_GUID@@PAPAX@Z 00442b1e f   nafxcw:wincore.obj
 0001:00041b35       ?Invoke@XAccessible@CWnd@@UAGJJABU_GUID@@KGPAUtagDISPPARAMS@@PAUtagVARIANT@@PAUtagEXCEPINFO@@PAI@Z 00442b35 f   nafxcw:wincore.obj
 0001:00041b3e       ?GetIDsOfNames@XAccessible@CWnd@@UAGJABU_GUID@@PAPA_WIKPAJ@Z 00442b3e f   nafxcw:wincore.obj
 0001:00041b59       ?GetTypeInfoCount@XAccessible@CWnd@@UAGJPAI@Z 00442b59 f   nafxcw:wincore.obj
 0001:00041b73       ?GetTypeInfo@XAccessible@CWnd@@UAGJIKPAPAUITypeInfo@@@Z 00442b73 f   nafxcw:wincore.obj
 0001:00041b7b       ?get_accParent@XAccessible@CWnd@@UAGJPAPAUIDispatch@@@Z 00442b7b f   nafxcw:wincore.obj
 0001:00041b91       ?get_accChildCount@XAccessible@CWnd@@UAGJPAJ@Z 00442b91 f   nafxcw:wincore.obj
 0001:00041ba7       ?get_accChild@XAccessible@CWnd@@UAGJUtagVARIANT@@PAPAUIDispatch@@@Z 00442ba7 f   nafxcw:wincore.obj
 0001:00041bce       ?get_accName@XAccessible@CWnd@@UAGJUtagVARIANT@@PAPA_W@Z 00442bce f   nafxcw:wincore.obj
 0001:00041bf5       ?get_accValue@XAccessible@CWnd@@UAGJUtagVARIANT@@PAPA_W@Z 00442bf5 f   nafxcw:wincore.obj
 0001:00041c1c       ?get_accDescription@XAccessible@CWnd@@UAGJUtagVARIANT@@PAPA_W@Z 00442c1c f   nafxcw:wincore.obj
 0001:00041c43       ?get_accRole@XAccessible@CWnd@@UAGJUtagVARIANT@@PAU3@@Z 00442c43 f   nafxcw:wincore.obj
 0001:00041c6a       ?get_accState@XAccessible@CWnd@@UAGJUtagVARIANT@@PAU3@@Z 00442c6a f   nafxcw:wincore.obj
 0001:00041c91       ?get_accHelp@XAccessible@CWnd@@UAGJUtagVARIANT@@PAPA_W@Z 00442c91 f   nafxcw:wincore.obj
 0001:00041cb8       ?get_accHelpTopic@XAccessible@CWnd@@UAGJPAPA_WUtagVARIANT@@PAJ@Z 00442cb8 f   nafxcw:wincore.obj
 0001:00041ce3       ?get_accKeyboardShortcut@XAccessible@CWnd@@UAGJUtagVARIANT@@PAPA_W@Z 00442ce3 f   nafxcw:wincore.obj
 0001:00041d0a       ?get_accFocus@XAccessible@CWnd@@UAGJPAUtagVARIANT@@@Z 00442d0a f   nafxcw:wincore.obj
 0001:00041d20       ?get_accSelection@XAccessible@CWnd@@UAGJPAUtagVARIANT@@@Z 00442d20 f   nafxcw:wincore.obj
 0001:00041d36       ?get_accDefaultAction@XAccessible@CWnd@@UAGJUtagVARIANT@@PAPA_W@Z 00442d36 f   nafxcw:wincore.obj
 0001:00041d5d       ?accSelect@XAccessible@CWnd@@UAGJJUtagVARIANT@@@Z 00442d5d f   nafxcw:wincore.obj
 0001:00041d84       ?accLocation@XAccessible@CWnd@@UAGJPAJ000UtagVARIANT@@@Z 00442d84 f   nafxcw:wincore.obj
 0001:00041db5       ?accNavigate@XAccessible@CWnd@@UAGJJUtagVARIANT@@PAU3@@Z 00442db5 f   nafxcw:wincore.obj
 0001:00041de0       ?accHitTest@XAccessible@CWnd@@UAGJJJPAUtagVARIANT@@@Z 00442de0 f   nafxcw:wincore.obj
 0001:00041dfe       ?accDoDefaultAction@XAccessible@CWnd@@UAGJUtagVARIANT@@@Z 00442dfe f   nafxcw:wincore.obj
 0001:00041e21       ?put_accName@XAccessible@CWnd@@UAGJUtagVARIANT@@PA_W@Z 00442e21 f   nafxcw:wincore.obj
 0001:00041e48       ?put_accValue@XAccessible@CWnd@@UAGJUtagVARIANT@@PA_W@Z 00442e48 f   nafxcw:wincore.obj
 0001:00041e6f       ?AddRef@XAccessibleServer@CWnd@@UAGKXZ 00442e6f f   nafxcw:wincore.obj
 0001:00041e7e       ?Release@XAccessibleServer@CWnd@@UAGKXZ 00442e7e f   nafxcw:wincore.obj
 0001:00041e8d       ?QueryInterface@XAccessibleServer@CWnd@@UAGJABU_GUID@@PAPAX@Z 00442e8d f   nafxcw:wincore.obj
 0001:00041ea4       ?SetProxy@XAccessibleServer@CWnd@@UAGJPAUIAccessibleProxy@@@Z 00442ea4 f   nafxcw:wincore.obj
 0001:00041eba       ?GetHWND@XAccessibleServer@CWnd@@UAGJPAPAUHWND__@@@Z 00442eba f   nafxcw:wincore.obj
 0001:00041ed7       ?GetEnumVariant@XAccessibleServer@CWnd@@UAGJPAPAUIEnumVARIANT@@@Z 00442ed7 f   nafxcw:wincore.obj
 0001:00041ef1       ?EnsureStdObj@CWnd@@UAEJXZ 00442ef1 f   nafxcw:wincore.obj
 0001:00041f10       ?get_accParent@CWnd@@UAEJPAPAUIDispatch@@@Z 00442f10 f   nafxcw:wincore.obj
 0001:00041f20       ?get_accChildCount@CWnd@@UAEJPAJ@Z 00442f20 f   nafxcw:wincore.obj
 0001:00041f30       ?get_accChild@CWnd@@UAEJUtagVARIANT@@PAPAUIDispatch@@@Z 00442f30 f   nafxcw:wincore.obj
 0001:00041f51       ?get_accName@CWnd@@UAEJUtagVARIANT@@PAPA_W@Z 00442f51 f   nafxcw:wincore.obj
 0001:00041f72       ?get_accValue@CWnd@@UAEJUtagVARIANT@@PAPA_W@Z 00442f72 f   nafxcw:wincore.obj
 0001:00041f93       ?get_accDescription@CWnd@@UAEJUtagVARIANT@@PAPA_W@Z 00442f93 f   nafxcw:wincore.obj
 0001:00041fb4       ?get_accRole@CWnd@@UAEJUtagVARIANT@@PAU2@@Z 00442fb4 f   nafxcw:wincore.obj
 0001:00041fd5       ?get_accState@CWnd@@UAEJUtagVARIANT@@PAU2@@Z 00442fd5 f   nafxcw:wincore.obj
 0001:00041ff6       ?get_accHelp@CWnd@@UAEJUtagVARIANT@@PAPA_W@Z 00442ff6 f   nafxcw:wincore.obj
 0001:00042017       ?get_accHelpTopic@CWnd@@UAEJPAPA_WUtagVARIANT@@PAJ@Z 00443017 f   nafxcw:wincore.obj
 0001:0004203c       ?get_accKeyboardShortcut@CWnd@@UAEJUtagVARIANT@@PAPA_W@Z 0044303c f   nafxcw:wincore.obj
 0001:0004205d       ?get_accFocus@CWnd@@UAEJPAUtagVARIANT@@@Z 0044305d f   nafxcw:wincore.obj
 0001:0004206d       ?get_accSelection@CWnd@@UAEJPAUtagVARIANT@@@Z 0044306d f   nafxcw:wincore.obj
 0001:0004207d       ?get_accDefaultAction@CWnd@@UAEJUtagVARIANT@@PAPA_W@Z 0044307d f   nafxcw:wincore.obj
 0001:0004209e       ?accSelect@CWnd@@UAEJJUtagVARIANT@@@Z 0044309e f   nafxcw:wincore.obj
 0001:000420bf       ?accLocation@CWnd@@UAEJPAJ000UtagVARIANT@@@Z 004430bf f   nafxcw:wincore.obj
 0001:000420eb       ?accNavigate@CWnd@@UAEJJUtagVARIANT@@PAU2@@Z 004430eb f   nafxcw:wincore.obj
 0001:00042110       ?accHitTest@CWnd@@UAEJJJPAUtagVARIANT@@@Z 00443110 f   nafxcw:wincore.obj
 0001:00042128       ?accDoDefaultAction@CWnd@@UAEJUtagVARIANT@@@Z 00443128 f   nafxcw:wincore.obj
 0001:00042145       ?put_accName@CWnd@@UAEJUtagVARIANT@@PA_W@Z 00443145 f   nafxcw:wincore.obj
 0001:00042166       ?put_accValue@CWnd@@UAEJUtagVARIANT@@PA_W@Z 00443166 f   nafxcw:wincore.obj
 0001:00042187       ?SetProxy@CWnd@@UAEJPAUIAccessibleProxy@@@Z 00443187 f   nafxcw:wincore.obj
 0001:00042193       ?GrayCtlColor@CWnd@@SGHPAUHDC__@@PAUHWND__@@IPAUHBRUSH__@@K@Z 00443193 f   nafxcw:wincore.obj
 0001:00042208       ??0CDataExchange@@QAE@PAVCWnd@@H@Z 00443208 f   nafxcw:wincore.obj
 0001:0004221e       ?CheckAutoCenter@CWnd@@UAEHXZ 0044321e f   nafxcw:wincore.obj
 0001:00042222       ?PreTranslateInput@CWnd@@QAEHPAUtagMSG@@@Z 00443222 f   nafxcw:wincore.obj
 0001:00042252       ?ContinueModal@CWnd@@UAEHXZ 00443252 f   nafxcw:wincore.obj
 0001:00042259       ?SetOccDialogInfo@CWnd@@MAEHPAU_AFX_OCC_DIALOG_INFO@@@Z 00443259 f   nafxcw:wincore.obj
 0001:0004225e       ?_AfxInitCommonControls@@YGJPAUtagINITCOMMONCONTROLSEX@@J@Z 0044325e f   nafxcw:wincore.obj
 0001:000422d6       ?IsFrameWnd@CWnd@@UBEHXZ   004432d6 f   nafxcw:wincore.obj
 0001:000422d9       ?IsFrameWnd@CFrameWnd@@UBEHXZ 004432d9 f   nafxcw:wincore.obj
 0001:000422dd       ?IsTracking@CFrameWnd@@QBEHXZ 004432dd f   nafxcw:wincore.obj
 0001:000422fc       ?CreateControlContainer@CWnd@@MAEHPAPAVCOleControlContainer@@@Z 004432fc f   nafxcw:wincore.obj
 0001:00042309       ?CreateControlSite@CWnd@@MAEHPAVCOleControlContainer@@PAPAVCOleControlSite@@IABU_GUID@@@Z 00443309 f   nafxcw:wincore.obj
 0001:00042316       ?GetControlContainer@CWnd@@QAEPAVCOleControlContainer@@XZ 00443316 f   nafxcw:wincore.obj
 0001:0004231a       ??0CWnd@@QAE@XZ            0044331a f   nafxcw:wincore.obj
 0001:0004235d       ?_AfxPreInitDialog@@YGXPAVCWnd@@PAUtagRECT@@PAK@Z 0044335d f   nafxcw:wincore.obj
 0001:00042380       ?CreateEx@CWnd@@UAEHKPBD0KABUtagRECT@@PAV1@IPAX@Z 00443380 f   nafxcw:wincore.obj
 0001:000423c9       ?Create@CWnd@@UAEHPBD0KABUtagRECT@@PAV1@IPAUCCreateContext@@@Z 004433c9 f   nafxcw:wincore.obj
 0001:00042417       ?CancelToolTips@CWnd@@SGXH@Z 00443417 f   nafxcw:wincore.obj
 0001:00042468       ?TrackPopupMenu@CMenu@@QAEHIHHPAVCWnd@@PBUtagRECT@@@Z 00443468 f   nafxcw:wincore.obj
 0001:000424bc       ?TrackPopupMenuEx@CMenu@@QAEHIHHPAVCWnd@@PAUtagTPMPARAMS@@@Z 004434bc f   nafxcw:wincore.obj
 0001:0004250e       ?_AfxFindPopupMenuFromID@@YGPAVCMenu@@PAV1@I@Z 0044350e f   nafxcw:wincore.obj
 0001:00042569       ?AfxRegisterWndClass@@YGPBDIPAUHICON__@@PAUHBRUSH__@@0@Z 00443569 f   nafxcw:wincore.obj
 0001:0004261b       ?WinHelpInternal@CWnd@@UAEXKI@Z 0044361b f   nafxcw:wincore.obj
 0001:0004266c       ?MessageBoxA@CWnd@@QAEHPBD0I@Z 0044366c f   nafxcw:wincore.obj
 0001:0004269e       ?SetScrollPos@CWnd@@QAEHHHH@Z 0044369e f   nafxcw:wincore.obj
 0001:000426ce       ?GetScrollPos@CWnd@@QBEHH@Z 004436ce f   nafxcw:wincore.obj
 0001:000426f6       ?SetScrollRange@CWnd@@QAEXHHHH@Z 004436f6 f   nafxcw:wincore.obj
 0001:0004272b       ?GetScrollRange@CWnd@@QBEXHPAH0@Z 0044372b f   nafxcw:wincore.obj
 0001:0004275b       ?EnableScrollBarCtrl@CWnd@@QAEXHH@Z 0044375b f   nafxcw:wincore.obj
 0001:0004279e       ?GetScrollLimit@CWnd@@QAEHH@Z 0044379e f   nafxcw:wincore.obj
 0001:000427e5       ?ScrollWindow@CWnd@@QAEXHHPBUtagRECT@@0@Z 004437e5 f   nafxcw:wincore.obj
 0001:0004288f       ?OnActivateTopLevel@CWnd@@IAEJIJ@Z 0044388f f   nafxcw:wincore.obj
 0001:000428ae       ??1?$CComPtr@UIAccessibleProxy@@@ATL@@QAE@XZ 004438ae f i nafxcw:wincore.obj
 0001:000428bb       ?GetWindowLessChildCount@CWnd@@QAEJXZ 004438bb f   nafxcw:wincore.obj
 0001:00042901       ?GetAccessibilityLocation@CWnd@@QAEJUtagVARIANT@@PAJ111@Z 00443901 f   nafxcw:wincore.obj
 0001:000429d4       ?UpdateData@CWnd@@QAEHH@Z  004439d4 f   nafxcw:wincore.obj
 0001:00042a72       ?CenterWindow@CWnd@@QAEXPAV1@@Z 00443a72 f   nafxcw:wincore.obj
 0001:00042c27       ?RunModalLoop@CWnd@@QAEHK@Z 00443c27 f   nafxcw:wincore.obj
 0001:00042d76       ?EndModalLoop@CWnd@@UAEXH@Z 00443d76 f   nafxcw:wincore.obj
 0001:00042d9b       ?_AfxRegisterWithIcon@@YGHPAUtagWNDCLASSA@@PBDI@Z 00443d9b f   nafxcw:wincore.obj
 0001:00042ddc       ?AfxEndDeferRegisterClass@@YGHJ@Z 00443ddc f   nafxcw:wincore.obj
 0001:000430ab       ?GetCurrentMessage@CWnd@@KGPBUtagMSG@@XZ 004440ab f   nafxcw:wincore.obj
 0001:000430e0       ?Default@CWnd@@IAEJXZ      004440e0 f   nafxcw:wincore.obj
 0001:00043107       ?afxMapHWND@@YGPAVCHandleMap@@H@Z 00444107 f   nafxcw:wincore.obj
 0001:00043183       ?FromHandle@CWnd@@SGPAV1@PAUHWND__@@@Z 00444183 f   nafxcw:wincore.obj
 0001:000431aa       ?FromHandlePermanent@CWnd@@SGPAV1@PAUHWND__@@@Z 004441aa f   nafxcw:wincore.obj
 0001:000431c4       ?Attach@CWnd@@QAEHPAUHWND__@@@Z 004441c4 f   nafxcw:wincore.obj
 0001:000431fd       ?Detach@CWnd@@QAEPAUHWND__@@XZ 004441fd f   nafxcw:wincore.obj
 0001:0004322b       ?AfxUnhookWindowCreate@@YGHXZ 0044422b f   nafxcw:wincore.obj
 0001:0004326d       ?PreCreateWindow@CWnd@@UAEHAAUtagCREATESTRUCTA@@@Z 0044426d f   nafxcw:wincore.obj
 0001:0004328d       ?OnDestroy@CWnd@@IAEXXZ    0044428d f   nafxcw:wincore.obj
 0001:000432c8       ?OnNcDestroy@CWnd@@IAEXXZ  004442c8 f   nafxcw:wincore.obj
 0001:000433d9       ?DestroyWindow@CWnd@@UAEHXZ 004443d9 f   nafxcw:wincore.obj
 0001:0004342d       ?OnNTCtlColor@CWnd@@IAEJIJ@Z 0044442d f   nafxcw:wincore.obj
 0001:00043473       ?GetTopLevelOwner@CWnd@@QBEPAV1@XZ 00444473 f   nafxcw:wincore.obj
 0001:000434a3       ?GetParentOwner@CWnd@@QBEPAV1@XZ 004444a3 f   nafxcw:wincore.obj
 0001:000434e7       ?GetSafeOwner@CWnd@@SGPAV1@PAV1@PAPAUHWND__@@@Z 004444e7 f   nafxcw:wincore.obj
 0001:00043505       ?GetDescendantWindow@CWnd@@SGPAV1@PAUHWND__@@HH@Z 00444505 f   nafxcw:wincore.obj
 0001:0004357c       ?RepositionBars@CWnd@@QAEXIIIIPAUtagRECT@@PBU2@H@Z 0044457c f   nafxcw:wincore.obj
 0001:000436c4       ?WalkPreTranslateTree@CWnd@@SGHPAUHWND__@@PAUtagMSG@@@Z 004446c4 f   nafxcw:wincore.obj
 0001:00043706       ?SendChildNotifyLastMsg@CWnd@@QAEHPAJ@Z 00444706 f   nafxcw:wincore.obj
 0001:00043733       ?OnSetFocus@CWnd@@IAEXPAV1@@Z 00444733 f   nafxcw:wincore.obj
 0001:00043756       ?OnHelpInfo@CWnd@@IAEHPAUtagHELPINFO@@@Z 00444756 f   nafxcw:wincore.obj
 0001:000437c0       ?OnGetObject@CWnd@@IAEJIJ@Z 004447c0 f   nafxcw:wincore.obj
 0001:000437fa       ?OnHScroll@CWnd@@IAEXIIPAVCScrollBar@@@Z 004447fa f   nafxcw:wincore.obj
 0001:0004381b       ?OnVScroll@CWnd@@IAEXIIPAVCScrollBar@@@Z 0044481b f   nafxcw:wincore.obj
 0001:0004383c       ?OnPaint@CWnd@@IAEXXZ      0044483c f   nafxcw:wincore.obj
 0001:000438a2       ?OnEnterIdle@CWnd@@IAEXIPAV1@@Z 004448a2 f   nafxcw:wincore.obj
 0001:000438e2       ?OnCtlColor@CWnd@@IAEPAUHBRUSH__@@PAVCDC@@PAV1@I@Z 004448e2 f   nafxcw:wincore.obj
 0001:00043909       ?UnsubclassWindow@CWnd@@QAEPAUHWND__@@XZ 00444909 f   nafxcw:wincore.obj
 0001:00043930       ?_AfxPostInitDialog@@YGXPAVCWnd@@ABUtagRECT@@K@Z 00444930 f   nafxcw:wincore.obj
 0001:000439a9       ?AfxCallWndProc@@YGJPAVCWnd@@PAUHWND__@@IIJ@Z 004449a9 f   nafxcw:wincore.obj
 0001:00043a96       ?AfxWndProc@@YGJPAUHWND__@@IIJ@Z 00444a96 f   nafxcw:wincore.obj
 0001:00043ae1       ?AfxGetAfxWndProc@@YGP6GJPAUHWND__@@IIJ@ZXZ 00444ae1 f   nafxcw:wincore.obj
 0001:00043ae7       ??1CWnd@@UAE@XZ            00444ae7 f   nafxcw:wincore.obj
 0001:00043b63       ?OnCharToItem@CWnd@@IAEHIPAVCListBox@@I@Z 00444b63 f   nafxcw:wincore.obj
 0001:00043b8e       ?OnVKeyToItem@CWnd@@IAEHIPAVCListBox@@I@Z 00444b8e f   nafxcw:wincore.obj
 0001:00043bb9       ?OnMeasureItem@CWnd@@IAEXHPAUtagMEASUREITEMSTRUCT@@@Z 00444bb9 f   nafxcw:wincore.obj
 0001:00043c31       ?GetParentFrame@CWnd@@QBEPAVCFrameWnd@@XZ 00444c31 f   nafxcw:wincore.obj
 0001:00043c70       ?GetTopLevelFrame@CWnd@@QBEPAVCFrameWnd@@XZ 00444c70 f   nafxcw:wincore.obj
 0001:00043cb1       ?SendMessageToDescendants@CWnd@@SGXPAUHWND__@@IIJHH@Z 00444cb1 f   nafxcw:wincore.obj
 0001:00043d2e       ?ReflectLastMsg@CWnd@@KGHPAUHWND__@@PAJ@Z 00444d2e f   nafxcw:wincore.obj
 0001:00043ddd       ?OnParentNotify@CWnd@@IAEXIJ@Z 00444ddd f   nafxcw:wincore.obj
 0001:00043e0a       ?OnDragList@CWnd@@IAEJIJ@Z 00444e0a f   nafxcw:wincore.obj
 0001:00043e34       ?GetWindowedChildCount@CWnd@@QAEJXZ 00444e34 f   nafxcw:wincore.obj
 0001:00043e64       ?GetAccessibleChildCount@CWnd@@QAEJXZ 00444e64 f   nafxcw:wincore.obj
 0001:00043e7b       ?GetAccessibleChild@CWnd@@QAEJUtagVARIANT@@PAPAUIDispatch@@@Z 00444e7b f   nafxcw:wincore.obj
 0001:00043eea       ?GetAccessibilityHitTest@CWnd@@QAEJJJPAUtagVARIANT@@@Z 00444eea f   nafxcw:wincore.obj
 0001:00043f8e       ?UpdateDialogControls@CWnd@@QAEXPAVCCmdTarget@@H@Z 00444f8e f   nafxcw:wincore.obj
 0001:0004409f       ?SubclassWindow@CWnd@@QAEHPAUHWND__@@@Z 0044509f f   nafxcw:wincore.obj
 0001:000440e1       ?SubclassDlgItem@CWnd@@QAEHIPAV1@@Z 004450e1 f   nafxcw:wincore.obj
 0001:0004414c       ??_GCWnd@@UAEPAXI@Z        0044514c f i nafxcw:wincore.obj
 0001:0004414c       ??_ECWnd@@UAEPAXI@Z        0044514c f i nafxcw:wincore.obj
 0001:00044168       ?GetWindowTextA@CWnd@@QBEXAAV?$CStringT@DV?$StrTraitMFC@DV?$ChTraitsCRT@D@ATL@@@@@ATL@@@Z 00445168 f   nafxcw:wincore.obj
 0001:000441ad       ?OnDrawItem@CWnd@@IAEXHPAUtagDRAWITEMSTRUCT@@@Z 004451ad f   nafxcw:wincore.obj
 0001:000441ea       ?OnCompareItem@CWnd@@IAEHHPAUtagCOMPAREITEMSTRUCT@@@Z 004451ea f   nafxcw:wincore.obj
 0001:00044214       ?OnDeleteItem@CWnd@@IAEXHPAUtagDELETEITEMSTRUCT@@@Z 00445214 f   nafxcw:wincore.obj
 0001:00044234       ?AfxHtmlHelp@@YGPAUHWND__@@PAU1@PBDIK@Z 00445234 f   nafxcw:wincore.obj
 0001:000442a7       ?OnCommand@CWnd@@MAEHIJ@Z  004452a7 f   nafxcw:wincore.obj
 0001:00044333       ?OnNotify@CWnd@@MAEHIJPAJ@Z 00445333 f   nafxcw:wincore.obj
 0001:000443ad       ?AfxGetParentOwner@@YGPAUHWND__@@PAU1@@Z 004453ad f   nafxcw:wincore.obj
 0001:000443f2       ?GetTopLevelParent@CWnd@@QBEPAV1@XZ 004453f2 f   nafxcw:wincore.obj
 0001:0004441a       ?IsTopParentActive@CWnd@@QBEHXZ 0044541a f   nafxcw:wincore.obj
 0001:0004444e       ?ActivateTopParent@CWnd@@QAEXXZ 0044544e f   nafxcw:wincore.obj
 0001:0004448b       ?HandleFloatingSysCommand@CWnd@@QAEHIJ@Z 0044548b f   nafxcw:wincore.obj
 0001:0004454d       ?OnSysColorChange@CWnd@@IAEXXZ 0044554d f   nafxcw:wincore.obj
 0001:00044593       ?OnDevModeChange@CWnd@@IAEXPAD@Z 00445593 f   nafxcw:wincore.obj
 0001:000445de       ?OnDisplayChange@CWnd@@IAEJIJ@Z 004455de f   nafxcw:wincore.obj
 0001:00044627       ?GetAccessibleName@CWnd@@QAEJUtagVARIANT@@PAPA_W@Z 00445627 f   nafxcw:wincore.obj
 0001:00044722       ?ExecuteDlgInit@CWnd@@QAEHPAX@Z 00445722 f   nafxcw:wincore.obj
 0001:00044803       ?_AfxHandleActivate@@YGXPAVCWnd@@I0@Z 00445803 f   nafxcw:wincore.obj
 0001:00044864       ?_AfxHandleSetCursor@@YGHPAVCWnd@@II@Z 00445864 f   nafxcw:wincore.obj
 0001:000448da       ?_AfxActivationWndProc@@YGJPAUHWND__@@IIJ@Z 004458da f   nafxcw:wincore.obj
 0001:00044a32       ?_AfxCbtFilterHook@@YGJHIJ@Z 00445a32 f   nafxcw:wincore.obj
 0001:00044c5a       ?AfxHookWindowCreate@@YGXPAVCWnd@@@Z 00445c5a f   nafxcw:wincore.obj
 0001:00044ca6       ?CreateEx@CWnd@@UAEHKPBD0KHHHHPAUHWND__@@PAUHMENU__@@PAX@Z 00445ca6 f   nafxcw:wincore.obj
 0001:00044d6c       ?PrepareForHelp@CWnd@@QAEXXZ 00445d6c f   nafxcw:wincore.obj
 0001:00044ddf       ?OnWndMsg@CWnd@@MAEHIIJPAJ@Z 00445ddf f   nafxcw:wincore.obj
 0001:000453eb       ?ReflectChildNotify@CWnd@@IAEHIIJPAJ@Z 004463eb f   nafxcw:wincore.obj
 0001:000454d3       ?OnSettingChange@CWnd@@IAEXIPBD@Z 004464d3 f   nafxcw:wincore.obj
 0001:000454ff       ?CreateAccessibleProxy@CWnd@@UAEJIJPAJ@Z 004464ff f   nafxcw:wincore.obj
 0001:000455c7       ?ExecuteDlgInit@CWnd@@QAEHPBD@Z 004465c7 f   nafxcw:wincore.obj
 0001:0004562c       ?WinHelpA@CWnd@@UAEXKI@Z   0044662c f   nafxcw:wincore.obj
 0001:000456a6       ?HtmlHelpA@CWnd@@UAEXKI@Z  004466a6 f   nafxcw:wincore.obj
 0001:0004571f       ?OnChildNotify@CWnd@@MAEHIIJPAJ@Z 0044671f f   nafxcw:wincore.obj
 0001:00045770       ?GetDlgItemTextA@CWnd@@QBEHHAAV?$CStringT@DV?$StrTraitMFC@DV?$ChTraitsCRT@D@ATL@@@@@ATL@@@Z 00446770 f   nafxcw:wincore.obj
 0001:0004588f       ?DrawItem@CMenu@@UAEXPAUtagDRAWITEMSTRUCT@@@Z 0044688f f   nafxcw:winmenu.obj
 0001:00045892       ?MeasureItem@CMenu@@UAEXPAUtagMEASUREITEMSTRUCT@@@Z 00446892 f   nafxcw:winmenu.obj
 0001:00045895       ?afxMapHMENU@@YGPAVCHandleMap@@H@Z 00446895 f   nafxcw:winmenu.obj
 0001:00045911       ?FromHandle@CMenu@@SGPAV1@PAUHMENU__@@@Z 00446911 f   nafxcw:winmenu.obj
 0001:0004591f       ?FromHandlePermanent@CMenu@@SGPAV1@PAUHMENU__@@@Z 0044691f f   nafxcw:winmenu.obj
 0001:00045939       ?Attach@CMenu@@QAEHPAUHMENU__@@@Z 00446939 f   nafxcw:winmenu.obj
 0001:00045966       ?Detach@CMenu@@QAEPAUHMENU__@@XZ 00446966 f   nafxcw:winmenu.obj
 0001:00045990       ?DestroyMenu@CMenu@@QAEHXZ 00446990 f   nafxcw:winmenu.obj
 0001:000459a6       ??0CChevronOwnerDrawMenu@@QAE@XZ 004469a6 f   nafxcw:winmenu.obj
 0001:00045a2c       ?GetMenuStringA@CMenu@@QBEHIAAV?$CStringT@DV?$StrTraitMFC@DV?$ChTraitsCRT@D@ATL@@@@@ATL@@I@Z 00446a2c f   nafxcw:winmenu.obj
 0001:00045a85       ??_GCChevronOwnerDrawMenu@@UAEPAXI@Z 00446a85 f i nafxcw:winmenu.obj
 0001:00045a85       ??_ECChevronOwnerDrawMenu@@UAEPAXI@Z 00446a85 f i nafxcw:winmenu.obj
 0001:00045aa1       ??1CChevronOwnerDrawMenu@@UAE@XZ 00446aa1 f i nafxcw:winmenu.obj
 0001:00045ae2       ?DrawItem@CChevronOwnerDrawMenu@@UAEXPAUtagDRAWITEMSTRUCT@@@Z 00446ae2 f   nafxcw:winmenu.obj
 0001:00045f28       ?MeasureItem@CChevronOwnerDrawMenu@@UAEXPAUtagMEASUREITEMSTRUCT@@@Z 00446f28 f   nafxcw:winmenu.obj
 0001:00046060       ?GetMessageMap@CWinApp@@MBEPBUAFX_MSGMAP@@XZ 00447060 f   nafxcw:appcore.obj
 0001:00046066       ?ProcessWndProcException@CWinApp@@UAEJPAVCException@@PBUtagMSG@@@Z 00447066 f   nafxcw:appcore.obj
 0001:000460db       ?OnIdle@CWinApp@@UAEHJ@Z   004470db f   nafxcw:appcore.obj
 0001:00046141       ?DevModeChange@CWinApp@@QAEXPAD@Z 00447141 f   nafxcw:appcore.obj
 0001:000461df       ?Run@CWinApp@@UAEHXZ       004471df f   nafxcw:appcore.obj
 0001:00046200       ?WinHelpA@CWinApp@@UAEXKI@Z 00447200 f   nafxcw:appcore.obj
 0001:00046234       ?HtmlHelpA@CWinApp@@UAEXKI@Z 00447234 f   nafxcw:appcore.obj
 0001:00046268       ?WinHelpInternal@CWinApp@@UAEXKI@Z 00447268 f   nafxcw:appcore.obj
 0001:0004629c       ?_AfxAbbreviateName@@YGXPADHH@Z 0044729c f   nafxcw:filelist.obj
 0001:0004636b       ??0?$CStringT@DV?$StrTraitMFC@DV?$ChTraitsCRT@D@ATL@@@@@ATL@@QAE@PAUIAtlStringMgr@1@@Z 0044736b f i nafxcw:filelist.obj
 0001:0004637d       ??_E?$CStringT@DV?$StrTraitMFC@DV?$ChTraitsCRT@D@ATL@@@@@ATL@@QAEPAXI@Z 0044737d f i nafxcw:filelist.obj
 0001:000463c8       ??1CRecentFileList@@UAE@XZ 004473c8 f   nafxcw:filelist.obj
 0001:00046401       ?WriteList@CRecentFileList@@UAEXXZ 00447401 f   nafxcw:filelist.obj
 0001:0004647f       ??_GCRecentFileList@@UAEPAXI@Z 0044747f f i nafxcw:filelist.obj
 0001:0004647f       ??_ECRecentFileList@@UAEPAXI@Z 0044747f f i nafxcw:filelist.obj
 0001:0004649b       ?GetDisplayName@CRecentFileList@@UBEHAAV?$CStringT@DV?$StrTraitMFC@DV?$ChTraitsCRT@D@ATL@@@@@ATL@@HPBDHH@Z 0044749b f   nafxcw:filelist.obj
 0001:000465f0       ?Concatenate@?$CSimpleStringT@D$0A@@ATL@@KAXAAV12@PBDH1H@Z 004475f0 f i nafxcw:filelist.obj
 0001:00046633       ??HATL@@YA?AV?$CStringT@DV?$StrTraitMFC@DV?$ChTraitsCRT@D@ATL@@@@@0@ABV10@0@Z 00447633 f i nafxcw:filelist.obj
 0001:000466a3       ?Remove@CRecentFileList@@UAEXH@Z 004476a3 f   nafxcw:filelist.obj
 0001:000466da       ?ReadList@CRecentFileList@@UAEXXZ 004476da f   nafxcw:filelist.obj
 0001:0004677b       ??0CRecentFileList@@QAE@IPBD0HH@Z 0044777b f   nafxcw:filelist.obj
 0001:00046827       ?Add@CRecentFileList@@UAEXPBD@Z 00447827 f   nafxcw:filelist.obj
 0001:000468cf       ?UpdateMenu@CRecentFileList@@UAEXPAVCCmdUI@@@Z 004478cf f   nafxcw:filelist.obj
 0001:00046b8d       ?IsDirSep@@YAHD@Z          00447b8d f i nafxcw:filecore.obj
 0001:00046ba2       ?GetBufferPtr@CFile@@UAEIIIPAPAX0@Z 00447ba2 f   nafxcw:filecore.obj
 0001:00046ba7       ?Rename@CFile@@SGXPBD0@Z   00447ba7 f   nafxcw:filecore.obj
 0001:00046bcc       ?Remove@CFile@@SGXPBD@Z    00447bcc f   nafxcw:filecore.obj
 0001:00046bed       ?AfxComparePath@@YGHPBD0@Z 00447bed f   nafxcw:filecore.obj
 0001:00046cd9       ?Read@CFile@@UAEIPAXI@Z    00447cd9 f   nafxcw:filecore.obj
 0001:00046d19       ?Write@CFile@@UAEXPBXI@Z   00447d19 f   nafxcw:filecore.obj
 0001:00046d64       ?Seek@CFile@@UAE_K_JI@Z    00447d64 f   nafxcw:filecore.obj
 0001:00046db5       ?GetPosition@CFile@@UBE_KXZ 00447db5 f   nafxcw:filecore.obj
 0001:00046dff       ?Flush@CFile@@UAEXXZ       00447dff f   nafxcw:filecore.obj
 0001:00046e26       ?LockRange@CFile@@UAEX_K0@Z 00447e26 f   nafxcw:filecore.obj
 0001:00046e59       ?UnlockRange@CFile@@UAEX_K0@Z 00447e59 f   nafxcw:filecore.obj
 0001:00046e8c       ?SetLength@CFile@@UAEX_K@Z 00447e8c f   nafxcw:filecore.obj
 0001:00046ebe       ?GetLength@CFile@@UBE_KXZ  00447ebe f   nafxcw:filecore.obj
 0001:00046efd       ?AfxGetFileTitle@@YGIPBDPADI@Z 00447efd f   nafxcw:filecore.obj
 0001:00046f69       ?Close@CFile@@UAEXXZ       00447f69 f   nafxcw:filecore.obj
 0001:00046fac       ?Abort@CFile@@UAEXXZ       00447fac f   nafxcw:filecore.obj
 0001:00046fcb       ??0CFile@@QAE@XZ           00447fcb f   nafxcw:filecore.obj
 0001:00046fe8       ??0CFile@@QAE@PAX@Z        00447fe8 f   nafxcw:filecore.obj
 0001:0004700a       ??1CFile@@UAE@XZ           0044800a f   nafxcw:filecore.obj
 0001:0004704e       ?Duplicate@CFile@@UBEPAV1@XZ 0044804e f   nafxcw:filecore.obj
 0001:000470c4       ??_GCFile@@UAEPAXI@Z       004480c4 f i nafxcw:filecore.obj
 0001:000470c4       ??_ECFile@@UAEPAXI@Z       004480c4 f i nafxcw:filecore.obj
 0001:000470e0       ?AfxGetInProcServer@@YGHPBDAAV?$CStringT@DV?$StrTraitMFC@DV?$ChTraitsCRT@D@ATL@@@@@ATL@@@Z 004480e0 f   nafxcw:filecore.obj
 0001:00047190       ?AfxGetRoot@@YGXPBDAAV?$CStringT@DV?$StrTraitMFC@DV?$ChTraitsCRT@D@ATL@@@@@ATL@@@Z 00448190 f   nafxcw:filecore.obj
 0001:000471d2       ?AfxFullPath@@YGHPADPBD@Z  004481d2 f   nafxcw:filecore.obj
 0001:00047323       ?Open@CFile@@UAEHPBDIPAVCFileException@@@Z 00448323 f   nafxcw:filecore.obj
 0001:000474ce       ?AfxGetModuleShortFileName@@YGXPAUHINSTANCE__@@AAV?$CStringT@DV?$StrTraitMFC@DV?$ChTraitsCRT@D@ATL@@@@@ATL@@@Z 004484ce f   nafxcw:filecore.obj
 0001:0004753f       ??0CFile@@QAE@PBDI@Z       0044853f f   nafxcw:filecore.obj
 0001:000475bf       ?AfxStringFromCLSID@@YG?AV?$CStringT@DV?$StrTraitMFC@DV?$ChTraitsCRT@D@ATL@@@@@ATL@@ABU_GUID@@@Z 004485bf f   nafxcw:filecore.obj
 0001:00047648       ?GetClassObject@AFX_COM@@QAEJABU_GUID@@0PAPAX@Z 00448648 f   nafxcw:filecore.obj
 0001:000476ed       ?CreateInstance@AFX_COM@@QAEJABU_GUID@@PAUIUnknown@@0PAPAX@Z 004486ed f   nafxcw:filecore.obj
 0001:00047749       ?AfxResolveShortcut@@YGHPAVCWnd@@PBDPADH@Z 00448749 f   nafxcw:filecore.obj
 0001:000478bd       ?ErrnoToException@CFileException@@SGHH@Z 004488bd f   nafxcw:filex.obj
 0001:00047912       ?OsErrorToException@CFileException@@SGHJ@Z 00448912 f   nafxcw:filex.obj
 0001:00047b7a       ?GetErrorMessage@CFileException@@UAEHPADIPAI@Z 00448b7a f   nafxcw:filex.obj
 0001:00047c39       ?AfxThrowFileException@@YGXHJPBD@Z 00448c39 f   nafxcw:filex.obj
 0001:00047c7f       ?ThrowOsError@CFileException@@SGXJPBD@Z 00448c7f f   nafxcw:filex.obj
 0001:00047ca0       ?ThrowErrno@CFileException@@SGXHPBD@Z 00448ca0 f   nafxcw:filex.obj
 0001:00047cc4       ??0CFileStatus@@QAE@XZ     00448cc4 f i nafxcw:filest.obj
 0001:00047cda       ?GetStatus@CFile@@SGHPBDAAUCFileStatus@@@Z 00448cda f   nafxcw:filest.obj
 0001:00047e31       ?AfxTimeToFileTime@@YAXABVCTime@ATL@@PAU_FILETIME@@@Z 00448e31 f   nafxcw:filest.obj
 0001:00047eea       ?SetStatus@CFile@@SGXPBDABUCFileStatus@@@Z 00448eea f   nafxcw:filest.obj
 0001:00048027       ?GetStatus@CMemFile@@QBEHAAUCFileStatus@@@Z 00449027 f   nafxcw:filest.obj
 0001:00048053       ?GetStatus@CFile@@QBEHAAUCFileStatus@@@Z 00449053 f   nafxcw:filest.obj
 0001:000481ab       ?GetFileName@CFile@@UBE?AV?$CStringT@DV?$StrTraitMFC@DV?$ChTraitsCRT@D@ATL@@@@@ATL@@XZ 004491ab f   nafxcw:filest.obj
 0001:0004827e       ?GetFileTitle@CFile@@UBE?AV?$CStringT@DV?$StrTraitMFC@DV?$ChTraitsCRT@D@ATL@@@@@ATL@@XZ 0044927e f   nafxcw:filest.obj
 0001:00048351       ?GetFilePath@CFile@@UBE?AV?$CStringT@DV?$StrTraitMFC@DV?$ChTraitsCRT@D@ATL@@@@@ATL@@XZ 00449351 f   nafxcw:filest.obj
 0001:000483b8       ?AfxDlgProc@@YGHPAUHWND__@@IIJ@Z 004493b8 f   nafxcw:dlgcore.obj
 0001:000483f2       ?GetMessageMap@CDialog@@MBEPBUAFX_MSGMAP@@XZ 004493f2 f   nafxcw:dlgcore.obj
 0001:000483f8       ??0CDialog@@QAE@XZ         004493f8 f   nafxcw:dlgcore.obj
 0001:0004841a       ??1CDialog@@UAE@XZ         0044941a f   nafxcw:dlgcore.obj
 0001:00048458       ?OnPaint@CDialog@@IAEXXZ   00449458 f   nafxcw:dlgcore.obj
 0001:000484b8       ?SetOccDialogInfo@CDialog@@MAEHPAU_AFX_OCC_DIALOG_INFO@@@Z 004494b8 f   nafxcw:dlgcore.obj
 0001:000484c5       ??0CDialog@@QAE@PBDPAVCWnd@@@Z 004494c5 f   nafxcw:dlgcore.obj
 0001:00048505       ??0CDialog@@QAE@IPAVCWnd@@@Z 00449505 f   nafxcw:dlgcore.obj
 0001:0004853e       ?InitModalIndirect@CDialog@@QAEHPAXPAVCWnd@@@Z 0044953e f   nafxcw:dlgcore.obj
 0001:00048558       ?InitModalIndirect@CDialog@@QAEHPBUDLGTEMPLATE@@PAVCWnd@@PAX@Z 00449558 f   nafxcw:dlgcore.obj
 0001:00048579       ?EndDialog@CDialog@@QAEXH@Z 00449579 f   nafxcw:dlgcore.obj
 0001:0004859f       ?PreInitDialog@CDialog@@MAEXXZ 0044959f f   nafxcw:dlgcore.obj
 0001:000485a0       ?OnSetFont@CDialog@@UAEXPAVCFont@@@Z 004495a0 f   nafxcw:dlgcore.obj
 0001:000485a3       ?OnOK@CDialog@@MAEXXZ      004495a3 f   nafxcw:dlgcore.obj
 0001:000485bc       ?OnCancel@CDialog@@MAEXXZ  004495bc f   nafxcw:dlgcore.obj
 0001:000485c4       ?OnHelpHitTest@CDialog@@IAEJIJ@Z 004495c4 f   nafxcw:dlgcore.obj
 0001:000485d7       ?PreTranslateMessage@CDialog@@UAEHPAUtagMSG@@@Z 004495d7 f   nafxcw:dlgcore.obj
 0001:00048670       ?OnCmdMsg@CDialog@@UAEHIHPAXPAUAFX_CMDHANDLERINFO@@@Z 00449670 f   nafxcw:dlgcore.obj
 0001:000486f4       ??_GCDialog@@UAEPAXI@Z     004496f4 f i nafxcw:dlgcore.obj
 0001:000486f4       ??_ECDialog@@UAEPAXI@Z     004496f4 f i nafxcw:dlgcore.obj
 0001:00048710       ?PreModal@CDialog@@IAEPAUHWND__@@XZ 00449710 f   nafxcw:dlgcore.obj
 0001:0004874a       ?PostModal@CDialog@@IAEXXZ 0044974a f   nafxcw:dlgcore.obj
 0001:0004878c       ?HandleSetFont@CDialog@@IAEJIJ@Z 0044978c f   nafxcw:dlgcore.obj
 0001:000487ae       ?HandleInitDialog@CDialog@@IAEJIJ@Z 004497ae f   nafxcw:dlgcore.obj
 0001:00048835       ?AfxHelpEnabled@@YGHXZ     00449835 f   nafxcw:dlgcore.obj
 0001:0004888b       ?OnInitDialog@CDialog@@UAEHXZ 0044988b f   nafxcw:dlgcore.obj
 0001:000488ec       ?CheckAutoCenter@CDialog@@UAEHXZ 004498ec f   nafxcw:dlgcore.obj
 0001:00048983       ?OnCommandHelp@CDialog@@IAEJIJ@Z 00449983 f   nafxcw:dlgcore.obj
 0001:000489c1       ?CreateDlgIndirect@CWnd@@IAEHPBUDLGTEMPLATE@@PAV1@PAUHINSTANCE__@@@Z 004499c1 f   nafxcw:dlgcore.obj
 0001:00048bce       ?DoModal@CDialog@@UAEHXZ   00449bce f   nafxcw:dlgcore.obj
 0001:00048d4b       ?CreateIndirect@CDialog@@IAEHPBUDLGTEMPLATE@@PAVCWnd@@PAXPAUHINSTANCE__@@@Z 00449d4b f   nafxcw:dlgcore.obj
 0001:00048d76       ?CreateDlg@CWnd@@IAEHPBDPAV1@@Z 00449d76 f   nafxcw:dlgcore.obj
 0001:00048dcc       ?CreateIndirect@CDialog@@IAEHPAXPAVCWnd@@PAUHINSTANCE__@@@Z 00449dcc f   nafxcw:dlgcore.obj
 0001:00048def       ?CreateIndirect@CDialog@@UAEHPBUDLGTEMPLATE@@PAVCWnd@@PAX@Z 00449def f   nafxcw:dlgcore.obj
 0001:00048e05       ?Create@CDialog@@UAEHPBDPAVCWnd@@@Z 00449e05 f   nafxcw:dlgcore.obj
 0001:00048e5f       ?CreateIndirect@CDialog@@UAEHPAXPAVCWnd@@@Z 00449e5f f   nafxcw:dlgcore.obj
 0001:00048e71       ?_AfxConvertDialogUnitsToPixels@@YGXPBDGHHPAUtagSIZE@@@Z 00449e71 f   nafxcw:dlgtempl.obj
 0001:00048fa4       ?IsDialogEx@@YAHPBUDLGTEMPLATE@@@Z 00449fa4 f i nafxcw:dlgtempl.obj
 0001:00048fb4       ?HasFont@@YAHPBUDLGTEMPLATE@@@Z 00449fb4 f i nafxcw:dlgtempl.obj
 0001:00048fcb       ?FontAttrSize@@YAHH@Z      00449fcb f i nafxcw:dlgtempl.obj
 0001:00048fdb       ?SetTemplate@CDialogTemplate@@IAEHPBUDLGTEMPLATE@@I@Z 00449fdb f   nafxcw:dlgtempl.obj
 0001:0004902f       ??1CDialogTemplate@@QAE@XZ 0044a02f f   nafxcw:dlgtempl.obj
 0001:0004903d       ?Detach@CDialogTemplate@@QAEPAXXZ 0044a03d f   nafxcw:dlgtempl.obj
 0001:00049043       ?HasFont@CDialogTemplate@@QBEHXZ 0044a043 f   nafxcw:dlgtempl.obj
 0001:00049065       ?_SkipString@@YAPA_WPA_W@Z 0044a065 f i nafxcw:dlgtempl.obj
 0001:00049074       ?GetFontSizeField@CDialogTemplate@@KAPAEPBUDLGTEMPLATE@@@Z 0044a074 f   nafxcw:dlgtempl.obj
 0001:000490bf       ?GetTemplateSize@CDialogTemplate@@KAIPBUDLGTEMPLATE@@@Z 0044a0bf f   nafxcw:dlgtempl.obj
 0001:00049182       ?SetFont@CDialogTemplate@@QAEHPBDG@Z 0044a182 f   nafxcw:dlgtempl.obj
 0001:000492ca       ?SetSystemFont@CDialogTemplate@@QAEHG@Z 0044a2ca f   nafxcw:dlgtempl.obj
 0001:0004936c       ?GetSizeInDialogUnits@CDialogTemplate@@QBEXPAUtagSIZE@@@Z 0044a36c f   nafxcw:dlgtempl.obj
 0001:000493a8       ??0CDialogTemplate@@QAE@PBUDLGTEMPLATE@@@Z 0044a3a8 f   nafxcw:dlgtempl.obj
 0001:000493d7       ??0CDialogTemplate@@QAE@PAX@Z 0044a3d7 f   nafxcw:dlgtempl.obj
 0001:00049418       ?Load@CDialogTemplate@@QAEHPBD@Z 0044a418 f   nafxcw:dlgtempl.obj
 0001:0004947c       ?GetFont@CDialogTemplate@@SAHPBUDLGTEMPLATE@@AAV?$CStringT@DV?$StrTraitMFC@DV?$ChTraitsCRT@D@ATL@@@@@ATL@@AAG@Z 0044a47c f   nafxcw:dlgtempl.obj
 0001:000494e0       ?GetFont@CDialogTemplate@@QBEHAAV?$CStringT@DV?$StrTraitMFC@DV?$ChTraitsCRT@D@ATL@@@@@ATL@@AAG@Z 0044a4e0 f   nafxcw:dlgtempl.obj
 0001:0004950e       ?GetSizeInPixels@CDialogTemplate@@QBEXPAUtagSIZE@@@Z 0044a50e f   nafxcw:dlgtempl.obj
 0001:000495bc       ?Abort@CArchive@@QAEXXZ    0044a5bc f   nafxcw:arccore.obj
 0001:000495fe       ?Read@CArchive@@QAEIPAXI@Z 0044a5fe f   nafxcw:arccore.obj
 0001:0004972b       ?Flush@CArchive@@QAEXXZ    0044a72b f   nafxcw:arccore.obj
 0001:000497a2       ?FillBuffer@CArchive@@QAEXI@Z 0044a7a2 f   nafxcw:arccore.obj
 0001:0004988a       ??B?$CTypedSimpleList@PAUCRuntimeClass@@@@QAEPAUCRuntimeClass@@XZ 0044a88a f i nafxcw:arccore.obj
 0001:0004988d       ?AfxReadStringLength@@YGIAAVCArchive@@AAH@Z 0044a88d f   nafxcw:arccore.obj
 0001:00049936       ?AfxWriteStringLength@@YGXAAVCArchive@@IH@Z 0044a936 f   nafxcw:arccore.obj
 0001:000499b7       ?FromName@CRuntimeClass@@SGPAU1@PBD@Z 0044a9b7 f   nafxcw:arccore.obj
 0001:000499ef       ?FromName@CRuntimeClass@@SGPAU1@PB_W@Z 0044a9ef f   nafxcw:arccore.obj
 0001:00049a84       ?Load@CRuntimeClass@@SGPAU1@AAVCArchive@@PAI@Z 0044aa84 f   nafxcw:arccore.obj
 0001:00049af9       ?Close@CArchive@@QAEXXZ    0044aaf9 f   nafxcw:arccore.obj
 0001:00049b07       ?Write@CArchive@@QAEXPBXI@Z 0044ab07 f   nafxcw:arccore.obj
 0001:00049bb8       ?WriteCount@CArchive@@QAEXK@Z 0044abb8 f   nafxcw:arccore.obj
 0001:00049be4       ?ReadCount@CArchive@@QAEKXZ 0044abe4 f   nafxcw:arccore.obj
 0001:00049c13       ?WriteString@CArchive@@QAEXPBD@Z 0044ac13 f   nafxcw:arccore.obj
 0001:00049c30       ?ReadString@CArchive@@QAEPADPADI@Z 0044ac30 f   nafxcw:arccore.obj
 0001:00049ce3       ?CreateObject@CRuntimeClass@@SGPAVCObject@@PBD@Z 0044ace3 f   nafxcw:arccore.obj
 0001:00049cfa       ?CreateObject@CRuntimeClass@@SGPAVCObject@@PB_W@Z 0044acfa f   nafxcw:arccore.obj
 0001:00049d44       ?Store@CRuntimeClass@@QBEXAAVCArchive@@@Z 0044ad44 f   nafxcw:arccore.obj
 0001:00049d7e       ??1CArchive@@QAE@XZ        0044ad7e f   nafxcw:arccore.obj
 0001:00049dc3       ??0CArchive@@QAE@PAVCFile@@IHPAX@Z 0044adc3 f   nafxcw:arccore.obj
 0001:00049ed4       ?ReadString@CArchive@@QAEHAAV?$CStringT@DV?$StrTraitMFC@DV?$ChTraitsCRT@D@ATL@@@@@ATL@@@Z 0044aed4 f   nafxcw:arccore.obj
 0001:00049f6f       ?GetErrorMessage@CArchiveException@@UAEHPADIPAI@Z 0044af6f f   nafxcw:arcex.obj
 0001:0004a036       ?AfxThrowArchiveException@@YGXHPBD@Z 0044b036 f   nafxcw:arcex.obj
 0001:0004a079       ?_AfxIsComboBoxControl@@YGHPAUHWND__@@I@Z 0044b079 f   nafxcw:winutil.obj
 0001:0004a0d6       ?_AfxCompareClassName@@YGHPAUHWND__@@PBD@Z 0044b0d6 f   nafxcw:winutil.obj
 0001:0004a119       ?AfxSetWindowText@@YGXPAUHWND__@@PBD@Z 0044b119 f   nafxcw:winutil.obj
 0001:0004a185       ?AfxDeleteObject@@YGXPAPAX@Z 0044b185 f   nafxcw:winutil.obj
 0001:0004a19e       ?AfxCancelModes@@YGXPAUHWND__@@@Z 0044b19e f   nafxcw:winutil.obj
 0001:0004a215       ?AfxGlobalFree@@YGXPAX@Z   0044b215 f   nafxcw:winutil.obj
 0001:0004a245       ?AfxCriticalNewHandler@@YAHI@Z 0044b245 f   nafxcw:winutil.obj
 0001:0004a292       ?AfxCustomLogFont@@YGHIPAUtagLOGFONTA@@@Z 0044b292 f   nafxcw:winutil.obj
 0001:0004a31e       ?_AfxChildWindowFromPoint@@YGPAUHWND__@@PAU1@UtagPOINT@@@Z 0044b31e f   nafxcw:winutil.obj
 0001:0004a390       ?GetObjectSchema@CArchive@@QAEIXZ 0044b390 f   nafxcw:arcobj.obj
 0001:0004a398       ?CheckCount@CArchive@@QAEXXZ 0044b398 f   nafxcw:arcobj.obj
 0001:0004a3ac       ?MapObject@CArchive@@QAEXPBVCObject@@@Z 0044b3ac f   nafxcw:arcobj.obj
 0001:0004a4b0       ?WriteClass@CArchive@@QAEXPBUCRuntimeClass@@@Z 0044b4b0 f   nafxcw:arcobj.obj
 0001:0004a55b       ?ReadClass@CArchive@@QAEPAUCRuntimeClass@@PBU2@PAIPAK@Z 0044b55b f   nafxcw:arcobj.obj
 0001:0004a729       ?SerializeClass@CArchive@@QAEXPBUCRuntimeClass@@@Z 0044b729 f   nafxcw:arcobj.obj
 0001:0004a747       ?WriteObject@CArchive@@QAEXPBVCObject@@@Z 0044b747 f   nafxcw:arcobj.obj
 0001:0004a7e0       ?ReadObject@CArchive@@QAEPAVCObject@@PBUCRuntimeClass@@@Z 0044b7e0 f   nafxcw:arcobj.obj
 0001:0004a897       ?SetAttribDC@CDC@@UAEXPAUHDC__@@@Z 0044b897 f   nafxcw:wingdi.obj
 0001:0004a8a1       ?SetOutputDC@CDC@@UAEXPAUHDC__@@@Z 0044b8a1 f   nafxcw:wingdi.obj
 0001:0004a8ab       ?ReleaseAttribDC@CDC@@UAEXXZ 0044b8ab f   nafxcw:wingdi.obj
 0001:0004a8b0       ?ReleaseOutputDC@CDC@@UAEXXZ 0044b8b0 f   nafxcw:wingdi.obj
 0001:0004a8b5       ?SaveDC@CDC@@UAEHXZ        0044b8b5 f   nafxcw:wingdi.obj
 0001:0004a8e6       ?RestoreDC@CDC@@UAEHH@Z    0044b8e6 f   nafxcw:wingdi.obj
 0001:0004a924       ?SetBkColor@CDC@@UAEKK@Z   0044b924 f   nafxcw:wingdi.obj
 0001:0004a953       ?SetBkMode@CDC@@QAEHH@Z    0044b953 f   nafxcw:wingdi.obj
 0001:0004a981       ?SetPolyFillMode@CDC@@QAEHH@Z 0044b981 f   nafxcw:wingdi.obj
 0001:0004a9af       ?SetROP2@CDC@@QAEHH@Z      0044b9af f   nafxcw:wingdi.obj
 0001:0004a9dd       ?SetStretchBltMode@CDC@@QAEHH@Z 0044b9dd f   nafxcw:wingdi.obj
 0001:0004aa0b       ?SetTextColor@CDC@@UAEKK@Z 0044ba0b f   nafxcw:wingdi.obj
 0001:0004aa3a       ?SetMapMode@CDC@@UAEHH@Z   0044ba3a f   nafxcw:wingdi.obj
 0001:0004aa68       ?GetClipBox@CDC@@UBEHPAUtagRECT@@@Z 0044ba68 f   nafxcw:wingdi.obj
 0001:0004aa78       ?ExcludeClipRect@CDC@@QAEHHHHH@Z 0044ba78 f   nafxcw:wingdi.obj
 0001:0004aaba       ?ExcludeClipRect@CDC@@QAEHPBUtagRECT@@@Z 0044baba f   nafxcw:wingdi.obj
 0001:0004aafc       ?IntersectClipRect@CDC@@QAEHHHHH@Z 0044bafc f   nafxcw:wingdi.obj
 0001:0004ab3e       ?IntersectClipRect@CDC@@QAEHPBUtagRECT@@@Z 0044bb3e f   nafxcw:wingdi.obj
 0001:0004ab80       ?OffsetClipRgn@CDC@@QAEHHH@Z 0044bb80 f   nafxcw:wingdi.obj
 0001:0004abb6       ?OffsetClipRgn@CDC@@QAEHUtagSIZE@@@Z 0044bbb6 f   nafxcw:wingdi.obj
 0001:0004abec       ?LineTo@CDC@@QAEHHH@Z      0044bbec f   nafxcw:wingdi.obj
 0001:0004ac21       ?SetTextAlign@CDC@@QAEII@Z 0044bc21 f   nafxcw:wingdi.obj
 0001:0004ac56       ?SetTextJustification@CDC@@QAEHHH@Z 0044bc56 f   nafxcw:wingdi.obj
 0001:0004ac8c       ?SetTextCharacterExtra@CDC@@QAEHH@Z 0044bc8c f   nafxcw:wingdi.obj
 0001:0004acbd       ?SetMapperFlags@CDC@@QAEKK@Z 0044bcbd f   nafxcw:wingdi.obj
 0001:0004acec       ?GetLayout@CDC@@QBEKXZ     0044bcec f   nafxcw:wingdi.obj
 0001:0004ad22       ?SetLayout@CDC@@QAEKK@Z    0044bd22 f   nafxcw:wingdi.obj
 0001:0004ad68       ?SetArcDirection@CDC@@QAEHH@Z 0044bd68 f   nafxcw:wingdi.obj
 0001:0004ad96       ?SetColorAdjustment@CDC@@QAEHPBUtagCOLORADJUSTMENT@@@Z 0044bd96 f   nafxcw:wingdi.obj
 0001:0004adc4       ?SelectClipPath@CDC@@QAEHH@Z 0044bdc4 f   nafxcw:wingdi.obj
 0001:0004ae22       ?AfxThrowResourceException@@YGXXZ 0044be22 f   nafxcw:wingdi.obj
 0001:0004ae3c       ?AfxThrowUserException@@YGXXZ 0044be3c f   nafxcw:wingdi.obj
 0001:0004ae56       ??0CDC@@QAE@XZ             0044be56 f   nafxcw:wingdi.obj
 0001:0004ae6a       ?StartDocA@CDC@@QAEHPBD@Z  0044be6a f   nafxcw:wingdi.obj
 0001:0004aea2       ?SelectObject@CDC@@QAEHPAVCRgn@@@Z 0044bea2 f   nafxcw:wingdi.obj
 0001:0004aee7       ?SetViewportOrg@CDC@@UAE?AVCPoint@@HH@Z 0044bee7 f   nafxcw:wingdi.obj
 0001:0004af33       ?OffsetViewportOrg@CDC@@UAE?AVCPoint@@HH@Z 0044bf33 f   nafxcw:wingdi.obj
 0001:0004af7f       ?SetViewportExt@CDC@@UAE?AVCSize@@HH@Z 0044bf7f f   nafxcw:wingdi.obj
 0001:0004afcb       ?ScaleViewportExt@CDC@@UAE?AVCSize@@HHHH@Z 0044bfcb f   nafxcw:wingdi.obj
 0001:0004b023       ?SetWindowOrg@CDC@@QAE?AVCPoint@@HH@Z 0044c023 f   nafxcw:wingdi.obj
 0001:0004b06f       ?OffsetWindowOrg@CDC@@QAE?AVCPoint@@HH@Z 0044c06f f   nafxcw:wingdi.obj
 0001:0004b0bb       ?SetWindowExt@CDC@@UAE?AVCSize@@HH@Z 0044c0bb f   nafxcw:wingdi.obj
 0001:0004b107       ?ScaleWindowExt@CDC@@UAE?AVCSize@@HHHH@Z 0044c107 f   nafxcw:wingdi.obj
 0001:0004b15f       ?SelectClipRgn@CDC@@QAEHPAVCRgn@@@Z 0044c15f f   nafxcw:wingdi.obj
 0001:0004b19f       ?MoveTo@CDC@@QAE?AVCPoint@@HH@Z 0044c19f f   nafxcw:wingdi.obj
 0001:0004b1eb       ?ScreenToClient@CWnd@@QBEXPAUtagRECT@@@Z 0044c1eb f   nafxcw:wingdi.obj
 0001:0004b227       ?ClientToScreen@CWnd@@QBEXPAUtagRECT@@@Z 0044c227 f   nafxcw:wingdi.obj
 0001:0004b263       ?ArcTo@CDC@@QAEHHHHHHHHH@Z 0044c263 f   nafxcw:wingdi.obj
 0001:0004b2bb       ?PolyDraw@CDC@@QAEHPBUtagPOINT@@PBEH@Z 0044c2bb f   nafxcw:wingdi.obj
 0001:0004b304       ?PolylineTo@CDC@@QAEHPBUtagPOINT@@H@Z 0044c304 f   nafxcw:wingdi.obj
 0001:0004b34a       ?PolyBezierTo@CDC@@QAEHPBUtagPOINT@@H@Z 0044c34a f   nafxcw:wingdi.obj
 0001:0004b390       ?SelectClipRgn@CDC@@QAEHPAVCRgn@@H@Z 0044c390 f   nafxcw:wingdi.obj
 0001:0004b3d8       ?LPtoDP@CDC@@QBEXPAUtagSIZE@@@Z 0044c3d8 f   nafxcw:wingdi.obj
 0001:0004b441       ?DPtoLP@CDC@@QBEXPAUtagSIZE@@@Z 0044c441 f   nafxcw:wingdi.obj
 0001:0004b4aa       ?afxMapHDC@@YGPAVCHandleMap@@H@Z 0044c4aa f   nafxcw:wingdi.obj
 0001:0004b526       ?FromHandle@CDC@@SGPAV1@PAUHDC__@@@Z 0044c526 f   nafxcw:wingdi.obj
 0001:0004b534       ?Attach@CDC@@QAEHPAUHDC__@@@Z 0044c534 f   nafxcw:wingdi.obj
 0001:0004b56b       ?Detach@CDC@@QAEPAUHDC__@@XZ 0044c56b f   nafxcw:wingdi.obj
 0001:0004b59c       ?DeleteDC@CDC@@QAEHXZ      0044c59c f   nafxcw:wingdi.obj
 0001:0004b5b2       ??1CDC@@UAE@XZ             0044c5b2 f   nafxcw:wingdi.obj
 0001:0004b5cb       ??0CClientDC@@QAE@PAVCWnd@@@Z 0044c5cb f   nafxcw:wingdi.obj
 0001:0004b626       ??1CClientDC@@UAE@XZ       0044c626 f   nafxcw:wingdi.obj
 0001:0004b668       ??0CWindowDC@@QAE@PAVCWnd@@@Z 0044c668 f   nafxcw:wingdi.obj
 0001:0004b6c3       ??1CWindowDC@@UAE@XZ       0044c6c3 f   nafxcw:wingdi.obj
 0001:0004b705       ??0CPaintDC@@QAE@PAVCWnd@@@Z 0044c705 f   nafxcw:wingdi.obj
 0001:0004b760       ??1CPaintDC@@UAE@XZ        0044c760 f   nafxcw:wingdi.obj
 0001:0004b7a7       ?afxMapHGDIOBJ@@YGPAVCHandleMap@@H@Z 0044c7a7 f   nafxcw:wingdi.obj
 0001:0004b823       ?FromHandle@CGdiObject@@SGPAV1@PAX@Z 0044c823 f   nafxcw:wingdi.obj
 0001:0004b831       ?Attach@CGdiObject@@QAEHPAX@Z 0044c831 f   nafxcw:wingdi.obj
 0001:0004b85e       ?Detach@CGdiObject@@QAEPAXXZ 0044c85e f   nafxcw:wingdi.obj
 0001:0004b888       ?DeleteObject@CGdiObject@@QAEHXZ 0044c888 f   nafxcw:wingdi.obj
 0001:0004b89e       ?CreateDIBPatternBrush@CBrush@@QAEHPAXI@Z 0044c89e f   nafxcw:wingdi.obj
 0001:0004b8d0       ??_ECDC@@UAEPAXI@Z         0044c8d0 f i nafxcw:wingdi.obj
 0001:0004b8d0       ??_GCDC@@UAEPAXI@Z         0044c8d0 f i nafxcw:wingdi.obj
 0001:0004b8ec       ?SelectGdiObject@CDC@@KGPAVCGdiObject@@PAUHDC__@@PAX@Z 0044c8ec f   nafxcw:wingdi.obj
 0001:0004b903       ?SelectStockObject@CDC@@UAEPAVCGdiObject@@H@Z 0044c903 f   nafxcw:wingdi.obj
 0001:0004b93f       ?SelectObject@CDC@@QAEPAVCPen@@PAV2@@Z 0044c93f f   nafxcw:wingdi.obj
 0001:0004b985       ?SelectObject@CDC@@QAEPAVCBrush@@PAV2@@Z 0044c985 f   nafxcw:wingdi.obj
 0001:0004b9cb       ?SelectObject@CDC@@UAEPAVCFont@@PAV2@@Z 0044c9cb f   nafxcw:wingdi.obj
 0001:0004ba11       ?SelectPalette@CDC@@QAEPAVCPalette@@PAV2@H@Z 0044ca11 f   nafxcw:wingdi.obj
 0001:0004ba33       ?AfxEnumMetaFileProc@@YGHPAUHDC__@@PAUtagHANDLETABLE@@PAUtagMETARECORD@@HJ@Z 0044ca33 f   nafxcw:wingdi.obj
 0001:0004bc6a       ?PlayMetaFile@CDC@@QAEHPAUHMETAFILE__@@@Z 0044cc6a f   nafxcw:wingdi.obj
 0001:0004bca3       ??_ECClientDC@@UAEPAXI@Z   0044cca3 f i nafxcw:wingdi.obj
 0001:0004bca3       ??_GCClientDC@@UAEPAXI@Z   0044cca3 f i nafxcw:wingdi.obj
 0001:0004bcbf       ??_GCWindowDC@@UAEPAXI@Z   0044ccbf f i nafxcw:wingdi.obj
 0001:0004bcbf       ??_ECWindowDC@@UAEPAXI@Z   0044ccbf f i nafxcw:wingdi.obj
 0001:0004bcdb       ??_ECPaintDC@@UAEPAXI@Z    0044ccdb f i nafxcw:wingdi.obj
 0001:0004bcdb       ??_GCPaintDC@@UAEPAXI@Z    0044ccdb f i nafxcw:wingdi.obj
 0001:0004bcf7       ??0CPen@@QAE@HHK@Z         0044ccf7 f   nafxcw:wingdi.obj
 0001:0004bd47       ??0CPen@@QAE@HHPBUtagLOGBRUSH@@HPBK@Z 0044cd47 f   nafxcw:wingdi.obj
 0001:0004bd9d       ??0CBrush@@QAE@K@Z         0044cd9d f   nafxcw:wingdi.obj
 0001:0004bde7       ??0CBrush@@QAE@HK@Z        0044cde7 f   nafxcw:wingdi.obj
 0001:0004be34       ??0CBrush@@QAE@PAVCBitmap@@@Z 0044ce34 f   nafxcw:wingdi.obj
 0001:0004be81       ?AfxGetGrayBitmap@@YGXABVCBitmap@@PAV1@K@Z 0044ce81 f   nafxcw:wingdi.obj
 0001:0004c105       ?AfxDrawGrayBitmap@@YGXPAVCDC@@HHABVCBitmap@@K@Z 0044d105 f   nafxcw:wingdi.obj
 0001:0004c345       ?AfxGetDitheredBitmap@@YGXABVCBitmap@@PAV1@KK@Z 0044d345 f   nafxcw:wingdi.obj
 0001:0004c632       ?AfxDrawDitheredBitmap@@YGXPAVCDC@@HHABVCBitmap@@KK@Z 0044d632 f   nafxcw:wingdi.obj
 0001:0004c8ab       ?OnAppExit@CWinApp@@IAEXXZ 0044d8ab f   nafxcw:appui.obj
 0001:0004c8be       ?GetOpenDocumentCount@CWinApp@@QAEHXZ 0044d8be f   nafxcw:appui2.obj
 0001:0004c8c6       ?OpenDocumentFile@CDocManager@@UAEPAVCDocument@@PBD@Z 0044d8c6 f   nafxcw:docmgr.obj
 0001:0004ca5d       ?GetOpenDocumentCount@CDocManager@@UAEHXZ 0044da5d f   nafxcw:docmgr.obj
 0001:0004cab2       ?GetRoutingView_@CCmdTarget@@KGPAVCView@@XZ 0044dab2 f   nafxcw:appui1.obj
 0001:0004cabe       ?GetRoutingFrame_@CCmdTarget@@KGPAVCFrameWnd@@XZ 0044dabe f   nafxcw:appui1.obj
 0001:0004caca       ?EnableModeless@CWinApp@@QAEXH@Z 0044daca f   nafxcw:appui1.obj
 0001:0004caf7       ?GetSafeOwner_@CWnd@@SGPAUHWND__@@PAU2@PAPAU2@@Z 0044daf7 f   nafxcw:appui1.obj
 0001:0004cb95       ?DoMessageBox@CWinApp@@UAEHPBDII@Z 0044db95 f   nafxcw:appui1.obj
 0001:0004ccd2       ?AfxMessageBox@@YGHPBDII@Z 0044dcd2 f   nafxcw:appui1.obj
 0001:0004ccf4       ?AfxMessageBox@@YGHIII@Z   0044dcf4 f   nafxcw:appui1.obj
 0001:0004cd56       ?PrepareCtrl@CDataExchange@@QAEPAUHWND__@@H@Z 0044dd56 f   nafxcw:dlgdata.obj
 0001:0004cd95       ?Fail@CDataExchange@@QAEXXZ 0044dd95 f   nafxcw:dlgdata.obj
 0001:0004cde4       ?DDX_Check@@YGXPAVCDataExchange@@HAAH@Z 0044dde4 f   nafxcw:dlgdata.obj
 0001:0004ce47       ?DDX_Radio@@YGXPAVCDataExchange@@HAAH@Z 0044de47 f   nafxcw:dlgdata.obj
 0001:0004cef0       ?DDX_LBIndex@@YGXPAVCDataExchange@@HAAH@Z 0044def0 f   nafxcw:dlgdata.obj
 0001:0004cf45       ?DDX_CBIndex@@YGXPAVCDataExchange@@HAAH@Z 0044df45 f   nafxcw:dlgdata.obj
 0001:0004cf9a       ?DDX_Scroll@@YGXPAVCDataExchange@@HAAH@Z 0044df9a f   nafxcw:dlgdata.obj
 0001:0004cfe8       ?DDX_Slider@@YGXPAVCDataExchange@@HAAH@Z 0044dfe8 f   nafxcw:dlgdata.obj
 0001:0004d03f       ?DDX_IPAddress@@YGXPAVCDataExchange@@HAAK@Z 0044e03f f   nafxcw:dlgdata.obj
 0001:0004d089       ?DDV_MinMaxSlider@@YGXPAVCDataExchange@@KKK@Z 0044e089 f   nafxcw:dlgdata.obj
 0001:0004d0da       ?DDX_Control@@YGXPAVCDataExchange@@HAAVCWnd@@@Z 0044e0da f   nafxcw:dlgdata.obj
 0001:0004d163       ?PrepareEditCtrl@CDataExchange@@QAEPAUHWND__@@H@Z 0044e163 f   nafxcw:dlgdata.obj
 0001:0004d17a       ?_Afx_DDX_TextWithFormat@@YAXPAVCDataExchange@@HPBDIZZ 0044e17a f   nafxcw:dlgdata.obj
 0001:0004d207       ?DDX_Text@@YGXPAVCDataExchange@@HAAE@Z 0044e207 f   nafxcw:dlgdata.obj
 0001:0004d278       ?DDX_Text@@YGXPAVCDataExchange@@HAAF@Z 0044e278 f   nafxcw:dlgdata.obj
 0001:0004d2a9       ?DDX_Text@@YGXPAVCDataExchange@@HAAH@Z 0044e2a9 f   nafxcw:dlgdata.obj
 0001:0004d2d8       ?DDX_Text@@YGXPAVCDataExchange@@HAAI@Z 0044e2d8 f   nafxcw:dlgdata.obj
 0001:0004d307       ?DDX_Text@@YGXPAVCDataExchange@@HAAJ@Z 0044e307 f   nafxcw:dlgdata.obj
 0001:0004d336       ?DDX_Text@@YGXPAVCDataExchange@@HAAK@Z 0044e336 f   nafxcw:dlgdata.obj
 0001:0004d365       ?DDX_Text@@YGXPAVCDataExchange@@HAA_J@Z 0044e365 f   nafxcw:dlgdata.obj
 0001:0004d3ad       ?DDX_Text@@YGXPAVCDataExchange@@HAA_K@Z 0044e3ad f   nafxcw:dlgdata.obj
 0001:0004d3f5       ?DDX_Text@@YGXPAVCDataExchange@@HPADH@Z 0044e3f5 f   nafxcw:dlgdata.obj
 0001:0004d433       ?_AfxFailMinMaxWithFormat@@YGXPAVCDataExchange@@_J1PBDI@Z 0044e433 f   nafxcw:dlgdata.obj
 0001:0004d501       ?DDV_MinMaxByte@@YGXPAVCDataExchange@@EEE@Z 0044e501 f   nafxcw:dlgdata.obj
 0001:0004d535       ?DDV_MinMaxShort@@YGXPAVCDataExchange@@FFF@Z 0044e535 f   nafxcw:dlgdata.obj
 0001:0004d56c       ?DDV_MinMaxInt@@YGXPAVCDataExchange@@HHH@Z 0044e56c f   nafxcw:dlgdata.obj
 0001:0004d59d       ?DDV_MinMaxLong@@YGXPAVCDataExchange@@JJJ@Z 0044e59d f   nafxcw:dlgdata.obj
 0001:0004d5ce       ?DDV_MinMaxUInt@@YGXPAVCDataExchange@@III@Z 0044e5ce f   nafxcw:dlgdata.obj
 0001:0004d5fe       ?DDV_MinMaxDWord@@YGXPAVCDataExchange@@KKK@Z 0044e5fe f   nafxcw:dlgdata.obj
 0001:0004d62e       ?DDV_MinMaxLongLong@@YGXPAVCDataExchange@@_J11@Z 0044e62e f   nafxcw:dlgdata.obj
 0001:0004d671       ?DDV_MinMaxULongLong@@YGXPAVCDataExchange@@_K11@Z 0044e671 f   nafxcw:dlgdata.obj
 0001:0004d6b4       ?DDV_MaxChars@@YGXPAVCDataExchange@@ABV?$CStringT@DV?$StrTraitMFC@DV?$ChTraitsCRT@D@ATL@@@@@ATL@@H@Z 0044e6b4 f   nafxcw:dlgdata.obj
 0001:0004d78c       ?AfxFailMaxChars@@YGXPAVCDataExchange@@H@Z 0044e78c f   nafxcw:dlgdata.obj
 0001:0004d825       ?AfxFailRadio@@YGXPAVCDataExchange@@@Z 0044e825 f   nafxcw:dlgdata.obj
 0001:0004d88e       ?DDX_Text@@YGXPAVCDataExchange@@HAAV?$CStringT@DV?$StrTraitMFC@DV?$ChTraitsCRT@D@ATL@@@@@ATL@@@Z 0044e88e f   nafxcw:dlgdata.obj
 0001:0004d8e0       ?DDX_LBString@@YGXPAVCDataExchange@@HAAV?$CStringT@DV?$StrTraitMFC@DV?$ChTraitsCRT@D@ATL@@@@@ATL@@@Z 0044e8e0 f   nafxcw:dlgdata.obj
 0001:0004d974       ?DDX_LBStringExact@@YGXPAVCDataExchange@@HAAV?$CStringT@DV?$StrTraitMFC@DV?$ChTraitsCRT@D@ATL@@@@@ATL@@@Z 0044e974 f   nafxcw:dlgdata.obj
 0001:0004d9d4       ?DDX_CBString@@YGXPAVCDataExchange@@HAAV?$CStringT@DV?$StrTraitMFC@DV?$ChTraitsCRT@D@ATL@@@@@ATL@@@Z 0044e9d4 f   nafxcw:dlgdata.obj
 0001:0004da66       ?DDX_CBStringExact@@YGXPAVCDataExchange@@HAAV?$CStringT@DV?$StrTraitMFC@DV?$ChTraitsCRT@D@ATL@@@@@ATL@@@Z 0044ea66 f   nafxcw:dlgdata.obj
 0001:0004dad4       ?AfxFormatStrings@@YGXAAV?$CStringT@DV?$StrTraitMFC@DV?$ChTraitsCRT@D@ATL@@@@@ATL@@PBDPBQBDH@Z 0044ead4 f   nafxcw:apphelp.obj
 0001:0004dbd3       ?AfxFormatStrings@@YGXAAV?$CStringT@DV?$StrTraitMFC@DV?$ChTraitsCRT@D@ATL@@@@@ATL@@IPBQBDH@Z 0044ebd3 f   nafxcw:apphelp.obj
 0001:0004dc3a       ?AfxFormatString1@@YGXAAV?$CStringT@DV?$StrTraitMFC@DV?$ChTraitsCRT@D@ATL@@@@@ATL@@IPBD@Z 0044ec3a f   nafxcw:apphelp.obj
 0001:0004dc51       ?AfxFormatString2@@YGXAAV?$CStringT@DV?$StrTraitMFC@DV?$ChTraitsCRT@D@ATL@@@@@ATL@@IPBD1@Z 0044ec51 f   nafxcw:apphelp.obj
 0001:0004dc77       ?DoWaitCursor@CWinApp@@UAEXH@Z 0044ec77 f   nafxcw:appui.obj
 0001:0004dcca       ?SaveAllModified@CWinApp@@UAEHXZ 0044ecca f   nafxcw:appui.obj
 0001:0004dcdc       ?AddToRecentFileList@CWinApp@@UAEXPBD@Z 0044ecdc f   nafxcw:appui.obj
 0001:0004dcf3       ?OpenDocumentFile@CWinApp@@UAEPAVCDocument@@PBD@Z 0044ecf3 f   nafxcw:appui.obj
 0001:0004dcfb       ?CloseAllDocuments@CWinApp@@QAEXH@Z 0044ecfb f   nafxcw:appui.obj
 0001:0004dd0c       ?OnUpdateRecentFileMenu@CWinApp@@IAEXPAVCCmdUI@@@Z 0044ed0c f   nafxcw:appui.obj
 0001:0004dd2d       ?OnDDECommand@CWinApp@@UAEHPAD@Z 0044ed2d f   nafxcw:appui.obj
 0001:0004dd40       ?HideApplication@CWinApp@@QAEXXZ 0044ed40 f   nafxcw:appui.obj
 0001:0004dd72       ?OnOpenRecentFile@CWinApp@@IAEHI@Z 0044ed72 f   nafxcw:appui.obj
 0001:0004dda8       ?WriteProfileInt@CWinApp@@QAEHPBD0H@Z 0044eda8 f   nafxcw:appui3.obj
 0001:0004de2e       ?WriteProfileStringA@CWinApp@@QAEHPBD00@Z 0044ee2e f   nafxcw:appui3.obj
 0001:0004dec4       ?WriteProfileBinary@CWinApp@@QAEHPBD0PAEI@Z 0044eec4 f   nafxcw:appui3.obj
 0001:0004df61       ?GetFirstDocTemplatePosition@CWinApp@@QBEPAU__POSITION@@XZ 0044ef61 f   nafxcw:appui2.obj
 0001:0004df72       ?GetNextDocTemplate@CWinApp@@QBEPAVCDocTemplate@@AAPAU__POSITION@@@Z 0044ef72 f   nafxcw:appui2.obj
 0001:0004df7a       ?AddDocTemplate@CWinApp@@QAEXPAVCDocTemplate@@@Z 0044ef7a f   nafxcw:appui2.obj
 0001:0004dfcd       ??HATL@@YA?AV?$CStringT@DV?$StrTraitMFC@DV?$ChTraitsCRT@D@ATL@@@@@0@ABV10@PBD@Z 0044efcd f i nafxcw:appui2.obj
 0001:0004e04b       ??0CNewTypeDlg@@QAE@PAVCPtrList@@@Z 0044f04b f i nafxcw:docmgr.obj
 0001:0004e071       ??1CNewTypeDlg@@UAE@XZ     0044f071 f i nafxcw:docmgr.obj
 0001:0004e07c       ?GetMessageMap@CNewTypeDlg@@MBEPBUAFX_MSGMAP@@XZ 0044f07c f   nafxcw:docmgr.obj
 0001:0004e082       ??_ECNewTypeDlg@@UAEPAXI@Z 0044f082 f i nafxcw:docmgr.obj
 0001:0004e082       ??_GCNewTypeDlg@@UAEPAXI@Z 0044f082 f i nafxcw:docmgr.obj
 0001:0004e09e       ?OnOK@CNewTypeDlg@@MAEXXZ  0044f09e f   nafxcw:docmgr.obj
 0001:0004e0d1       ?AddDocTemplate@CDocManager@@UAEXPAVCDocTemplate@@@Z 0044f0d1 f   nafxcw:docmgr.obj
 0001:0004e143       ?GetFirstDocTemplatePosition@CDocManager@@UBEPAU__POSITION@@XZ 0044f143 f   nafxcw:docmgr.obj
 0001:0004e147       ?GetNextDocTemplate@CDocManager@@UBEPAVCDocTemplate@@AAPAU__POSITION@@@Z 0044f147 f   nafxcw:docmgr.obj
 0001:0004e158       ?SaveAllModified@CDocManager@@UAEHXZ 0044f158 f   nafxcw:docmgr.obj
 0001:0004e190       ?CloseAllDocuments@CDocManager@@UAEXH@Z 0044f190 f   nafxcw:docmgr.obj
 0001:0004e1c2       ?GetDocumentCount@CDocManager@@IAEHXZ 0044f1c2 f   nafxcw:docmgr.obj
 0001:0004e213       ?OnFileNew@CDocManager@@UAEXXZ 0044f213 f   nafxcw:docmgr.obj
 0001:0004e2a3       ?OnInitDialog@CNewTypeDlg@@MAEHXZ 0044f2a3 f   nafxcw:docmgr.obj
 0001:0004e3aa       ?OnFileOpen@CDocManager@@UAEXXZ 0044f3aa f   nafxcw:docmgr.obj
 0001:0004e418       ?_AfxAppendFilterSuffix@@YGXAAV?$CStringT@DV?$StrTraitMFC@DV?$ChTraitsCRT@D@ATL@@@@@ATL@@AAUtagOFNA@@PAVCDocTemplate@@PAV12@@Z 0044f418 f   nafxcw:docmgr.obj
 0001:0004e595       ?DoPromptFileName@CDocManager@@UAEHAAV?$CStringT@DV?$StrTraitMFC@DV?$ChTraitsCRT@D@ATL@@@@@ATL@@IKHPAVCDocTemplate@@@Z 0044f595 f   nafxcw:docmgr.obj
 0001:0004e80d       ?OnDDECommand@CDocManager@@UAEHPAD@Z 0044f80d f   nafxcw:docmgr.obj
 0001:0004ede4       ?OnFileNew@CWinApp@@IAEXXZ 0044fde4 f   nafxcw:appdlg.obj
 0001:0004edf3       ?OnFileOpen@CWinApp@@IAEXXZ 0044fdf3 f   nafxcw:appdlg.obj
 0001:0004edfb       ?DoPromptFileName@CWinApp@@QAEHAAV?$CStringT@DV?$StrTraitMFC@DV?$ChTraitsCRT@D@ATL@@@@@ATL@@IKHPAVCDocTemplate@@@Z 0044fdfb f   nafxcw:appdlg.obj
 0001:0004ee07       ?AfxOleCanExitApp@@YGHXZ   0044fe07 f   nafxcw:olelock.obj
 0001:0004ee17       ?AfxOleLockApp@@YGXXZ      0044fe17 f   nafxcw:olelock.obj
 0001:0004ee27       ?AfxOleSetUserCtrl@@YGXH@Z 0044fe27 f   nafxcw:olelock.obj
 0001:0004ee36       ?AfxOleGetUserCtrl@@YGHXZ  0044fe36 f   nafxcw:olelock.obj
 0001:0004ee3f       ?AfxOleOnReleaseAllObjects@@YGXXZ 0044fe3f f   nafxcw:olelock.obj
 0001:0004ee8b       ?AfxOleUnlockApp@@YGXXZ    0044fe8b f   nafxcw:olelock.obj
 0001:0004eea4       ?AfxWingdixTerm@@YAXXZ     0044fea4 f   nafxcw:wingdix.obj
 0001:0004eeaf       ?FillSolidRect@CDC@@QAEXPBUtagRECT@@K@Z 0044feaf f   nafxcw:wingdix.obj
 0001:0004eed9       ?DPtoHIMETRIC@CDC@@QBEXPAUtagSIZE@@@Z 0044fed9 f   nafxcw:wingdix.obj
 0001:0004ef67       ?HIMETRICtoDP@CDC@@QBEXPAUtagSIZE@@@Z 0044ff67 f   nafxcw:wingdix.obj
 0001:0004eff5       ?LPtoHIMETRIC@CDC@@QBEXPAUtagSIZE@@@Z 0044fff5 f   nafxcw:wingdix.obj
 0001:0004f010       ?HIMETRICtoLP@CDC@@QBEXPAUtagSIZE@@@Z 00450010 f   nafxcw:wingdix.obj
 0001:0004f02b       ?GetHalftoneBrush@CDC@@SGPAVCBrush@@XZ 0045002b f   nafxcw:wingdix.obj
 0001:0004f0ce       ?DrawDragRect@CDC@@QAEXPBUtagRECT@@UtagSIZE@@01PAVCBrush@@2@Z 004500ce f   nafxcw:wingdix.obj
 0001:0004f367       ?FillSolidRect@CDC@@QAEXHHHHK@Z 00450367 f   nafxcw:wingdix.obj
 0001:0004f3b3       ?Draw3dRect@CDC@@QAEXHHHHKK@Z 004503b3 f   nafxcw:wingdix.obj
 0001:0004f41d       ?CreatePointFontIndirect@CFont@@QAEHPBUtagLOGFONTA@@PAVCDC@@@Z 0045041d f   nafxcw:wingdix.obj
 0001:0004f4ce       ?Draw3dRect@CDC@@QAEXPBUtagRECT@@KK@Z 004504ce f   nafxcw:wingdix.obj
 0001:0004f4f9       ?CreatePointFont@CFont@@QAEHHPBDPAVCDC@@@Z 004504f9 f   nafxcw:wingdix.obj
 0001:0004f558       ?GetRuntimeClass@COleException@@UBEPAUCRuntimeClass@@XZ 00450558 f   nafxcw:olemisc.obj
 0001:0004f55e       ?Append@?$CSimpleStringT@D$0A@@ATL@@QAEXPBD@Z 0045055e f i nafxcw:olemisc.obj
 0001:0004f583       ??Y?$CSimpleStringT@D$0A@@ATL@@QAEAAV01@PBD@Z 00450583 f i nafxcw:olemisc.obj
 0001:0004f595       ??Y?$CStringT@DV?$StrTraitMFC@DV?$ChTraitsCRT@D@ATL@@@@@ATL@@QAEAAV01@PBD@Z 00450595 f i nafxcw:olemisc.obj
 0001:0004f5a7       ?GetRuntimeClass@CException@@UBEPAUCRuntimeClass@@XZ 004505a7 f   nafxcw:except.obj
 0001:0004f5ad       ?GetRuntimeClass@CMemoryException@@UBEPAUCRuntimeClass@@XZ 004505ad f   nafxcw:except.obj
 0001:0004f5b3       ?GetRuntimeClass@CNotSupportedException@@UBEPAUCRuntimeClass@@XZ 004505b3 f   nafxcw:except.obj
 0001:0004f5b9       ?GetRuntimeClass@CInvalidArgException@@UBEPAUCRuntimeClass@@XZ 004505b9 f   nafxcw:except.obj
 0001:0004f5bf       ?CreateObject@?$CThreadLocal@V_AFX_THREAD_STATE@@@@SGPAVCNoTrackObject@@XZ 004505bf f i nafxcw:except.obj
 0001:0004f5f3       ?GetData@?$CThreadLocal@V_AFX_THREAD_STATE@@@@QAEPAV_AFX_THREAD_STATE@@XZ 004505f3 f i nafxcw:except.obj
 0001:0004f5fe       ??C?$CThreadLocal@V_AFX_THREAD_STATE@@@@QAEPAV_AFX_THREAD_STATE@@XZ 004505fe f i nafxcw:except.obj
 0001:0004f67e       ?AfxBSTR2ABSTR@@YGPA_WPA_W@Z 0045067e f   nafxcw:olecnvrt.obj
 0001:0004f6d3       ?AfxDevModeA2W@@YGPAU_devicemodeW@@PAU1@PAU_devicemodeA@@@Z 004506d3 f   nafxcw:olecnvrt.obj
 0001:0004f754       ?AfxDevModeW2A@@YGPAU_devicemodeA@@PAU1@PAU_devicemodeW@@@Z 00450754 f   nafxcw:olecnvrt.obj
 0001:0004f7d5       ?AfxTextMetricA2W@@YGPAUtagTEXTMETRICW@@PAU1@PAUtagTEXTMETRICA@@@Z 004507d5 f   nafxcw:olecnvrt.obj
 0001:0004f856       ?AfxTextMetricW2A@@YGPAUtagTEXTMETRICA@@PAU1@PAUtagTEXTMETRICW@@@Z 00450856 f   nafxcw:olecnvrt.obj
 0001:0004f8de       ?AfxTaskStringA2W@@YGPA_WPBD@Z 004508de f   nafxcw:olecnvrt.obj
 0001:0004f8fb       ?AfxTaskStringW2A@@YGPADPB_W@Z 004508fb f   nafxcw:olecnvrt.obj
 0001:0004f918       ?AfxBSTR2CString@@YGXPAV?$CStringT@DV?$StrTraitMFC@DV?$ChTraitsCRT@D@ATL@@@@@ATL@@PA_W@Z 00450918 f   nafxcw:olecnvrt.obj
 0001:0004f95d       ??0AUX_DATA@@QAE@XZ        0045095d f   nafxcw:auxdata.obj
 0001:0004f9d3       ??0CNoTrackObject@@QAE@XZ  004509d3 f i nafxcw:afxstate.obj
 0001:0004f9d6       ??1?$CThreadLocal@V_AFX_THREAD_STATE@@@@QAE@XZ 004509d6 f i nafxcw:afxstate.obj
 0001:0004f9db       ??1?$CThreadLocal@VAFX_MODULE_THREAD_STATE@@@@QAE@XZ 004509db f i nafxcw:afxstate.obj
 0001:0004f9e0       ??1?$CProcessLocal@V_AFX_BASE_MODULE_STATE@@@@QAE@XZ 004509e0 f i nafxcw:afxstate.obj
 0001:0004f9e5       ?Unlock@CTypeLibCache@@QAEXXZ 004509e5 f   nafxcw:afxstate.obj
 0001:0004fa1a       ??0_AFX_THREAD_STATE@@QAE@XZ 00450a1a f   nafxcw:afxstate.obj
 0001:0004fa33       ??1_AFX_THREAD_STATE@@UAE@XZ 00450a33 f   nafxcw:afxstate.obj
 0001:0004fa68       ??1AFX_MODULE_STATE@@UAE@XZ 00450a68 f   nafxcw:afxstate.obj
 0001:0004fad6       ?RemoveAll@CTypeLibCacheMap@@UAEXPAX@Z 00450ad6 f   nafxcw:afxstate.obj
 0001:0004fb18       ??1AFX_MODULE_THREAD_STATE@@UAE@XZ 00450b18 f   nafxcw:afxstate.obj
 0001:0004fbbb       ??0?$CTypedSimpleList@PAVCFrameWnd@@@@QAE@H@Z 00450bbb f i nafxcw:afxstate.obj
 0001:0004fbca       ??0?$CTypedSimpleList@PAUCRuntimeClass@@@@QAE@H@Z 00450bca f i nafxcw:afxstate.obj
 0001:0004fbd9       ??0?$CTypedSimpleList@PAVCOleObjectFactory@@@@QAE@H@Z 00450bd9 f i nafxcw:afxstate.obj
 0001:0004fbe8       ??0?$CTypedSimpleList@PAVCOleControlLock@@@@QAE@H@Z 00450be8 f i nafxcw:afxstate.obj
 0001:0004fbf7       ??_E_AFX_THREAD_STATE@@UAEPAXI@Z 00450bf7 f i nafxcw:afxstate.obj
 0001:0004fbf7       ??_G_AFX_THREAD_STATE@@UAEPAXI@Z 00450bf7 f i nafxcw:afxstate.obj
 0001:0004fc12       ??0AFX_MODULE_STATE@@QAE@H@Z 00450c12 f   nafxcw:afxstate.obj
 0001:0004fc72       ??_GAFX_MODULE_STATE@@UAEPAXI@Z 00450c72 f i nafxcw:afxstate.obj
 0001:0004fc72       ??_EAFX_MODULE_STATE@@UAEPAXI@Z 00450c72 f i nafxcw:afxstate.obj
 0001:0004fc8d       ??0AFX_MODULE_THREAD_STATE@@QAE@XZ 00450c8d f   nafxcw:afxstate.obj
 0001:0004fcb4       ??_EAFX_MODULE_THREAD_STATE@@UAEPAXI@Z 00450cb4 f i nafxcw:afxstate.obj
 0001:0004fcb4       ??_GAFX_MODULE_THREAD_STATE@@UAEPAXI@Z 00450cb4 f i nafxcw:afxstate.obj
 0001:0004fccf       ??0_AFX_BASE_MODULE_STATE@@QAE@XZ 00450ccf f i nafxcw:afxstate.obj
 0001:0004fce3       ??_G_AFX_BASE_MODULE_STATE@@UAEPAXI@Z 00450ce3 f i nafxcw:afxstate.obj
 0001:0004fce3       ??_E_AFX_BASE_MODULE_STATE@@UAEPAXI@Z 00450ce3 f i nafxcw:afxstate.obj
 0001:0004fcfe       ??1_AFX_BASE_MODULE_STATE@@UAE@XZ 00450cfe f i nafxcw:afxstate.obj
 0001:0004fd03       ??B?$CThreadLocal@V_AFX_THREAD_STATE@@@@QAEPAV_AFX_THREAD_STATE@@XZ 00450d03 f i nafxcw:afxstate.obj
 0001:0004fd0e       ?CreateObject@?$CThreadLocal@VAFX_MODULE_THREAD_STATE@@@@SGPAVCNoTrackObject@@XZ 00450d0e f i nafxcw:afxstate.obj
 0001:0004fd26       ?CreateObject@?$CProcessLocal@V_AFX_BASE_MODULE_STATE@@@@SGPAVCNoTrackObject@@XZ 00450d26 f i nafxcw:afxstate.obj
 0001:0004fd3e       ?AfxGetThreadState@@YGPAV_AFX_THREAD_STATE@@XZ 00450d3e f   nafxcw:afxstate.obj
 0001:0004fd4e       ?GetData@?$CThreadLocal@VAFX_MODULE_THREAD_STATE@@@@QAEPAVAFX_MODULE_THREAD_STATE@@XZ 00450d4e f i nafxcw:afxstate.obj
 0001:0004fd59       ?GetData@?$CProcessLocal@V_AFX_BASE_MODULE_STATE@@@@QAEPAV_AFX_BASE_MODULE_STATE@@XZ 00450d59 f i nafxcw:afxstate.obj
 0001:0004fd64       ?AfxGetAppModuleState@@YGPAVAFX_MODULE_STATE@@XZ 00450d64 f   nafxcw:afxstate.obj
 0001:0004fd74       ?AfxGetModuleState@@YGPAVAFX_MODULE_STATE@@XZ 00450d74 f   nafxcw:afxstate.obj
 0001:0004fd9a       ?AfxGetModuleThreadState@@YGPAVAFX_MODULE_THREAD_STATE@@XZ 00450d9a f   nafxcw:afxstate.obj
 0001:0004fddd       ??2CNoTrackObject@@SGPAXI@Z 00450ddd f   nafxcw:afxtls.obj
 0001:0004fdf5       ??3CNoTrackObject@@SGXPAX@Z 00450df5 f   nafxcw:afxtls.obj
 0001:0004fe05       ?AllocSlot@CThreadSlotData@@QAEHXZ 00450e05 f   nafxcw:afxtls.obj
 0001:0004ff11       ?GetThreadValue@CThreadSlotData@@QAEPAXH@Z 00450f11 f i nafxcw:afxtls.obj
 0001:0004ff57       ?AssignInstance@CThreadSlotData@@QAEXPAUHINSTANCE__@@@Z 00450f57 f   nafxcw:afxtls.obj
 0001:0004ff97       ?GetDataNA@CThreadLocalObject@@QAEPAVCNoTrackObject@@XZ 00450f97 f   nafxcw:afxtls.obj
 0001:0004ffb1       ?GetData@CProcessLocalObject@@QAEPAVCNoTrackObject@@P6GPAV2@XZ@Z 00450fb1 f   nafxcw:afxtls.obj
 0001:0005000d       ??1CProcessLocalObject@@QAE@XZ 0045100d f   nafxcw:afxtls.obj
 0001:00050032       ?AfxInitLocalData@@YGXPAUHINSTANCE__@@@Z 00451032 f   nafxcw:afxtls.obj
 0001:00050044       ?AfxTlsAddRef@@YGXXZ       00451044 f   nafxcw:afxtls.obj
 0001:0005004b       ?AddHead@CSimpleList@@QAEXPAX@Z 0045104b f   nafxcw:afxtls.obj
 0001:0005005e       ?Remove@CSimpleList@@QAEHPAX@Z 0045105e f   nafxcw:afxtls.obj
 0001:0005009c       ??0CThreadData@@QAE@XZ     0045109c f i nafxcw:afxtls.obj
 0001:000500a5       ??0?$CTypedSimpleList@PAUCThreadData@@@@QAE@H@Z 004510a5 f i nafxcw:afxtls.obj
 0001:000500b4       ?AddHead@?$CTypedSimpleList@PAUCThreadData@@@@QAEXPAUCThreadData@@@Z 004510b4 f i nafxcw:afxtls.obj
 0001:000500c7       ?Remove@?$CTypedSimpleList@PAUCThreadData@@@@QAEHPAUCThreadData@@@Z 004510c7 f i nafxcw:afxtls.obj
 0001:000500cc       ??B?$CTypedSimpleList@PAUCThreadData@@@@QAEPAUCThreadData@@XZ 004510cc f i nafxcw:afxtls.obj
 0001:000500cf       ??0CThreadSlotData@@QAE@XZ 004510cf f   nafxcw:afxtls.obj
 0001:00050111       ?FreeSlot@CThreadSlotData@@QAEXH@Z 00451111 f   nafxcw:afxtls.obj
 0001:00050174       ?SetValue@CThreadSlotData@@QAEXHPAX@Z 00451174 f   nafxcw:afxtls.obj
 0001:0005027b       ??_GCThreadData@@UAEPAXI@Z 0045127b f i nafxcw:afxtls.obj
 0001:0005027b       ??_ECThreadData@@UAEPAXI@Z 0045127b f i nafxcw:afxtls.obj
 0001:00050296       ??1CThreadData@@UAE@XZ     00451296 f i nafxcw:afxtls.obj
 0001:00050297       ?DeleteValues@CThreadSlotData@@QAEXPAUCThreadData@@PAUHINSTANCE__@@@Z 00451297 f   nafxcw:afxtls.obj
 0001:0005032c       ?DeleteValues@CThreadSlotData@@QAEXPAUHINSTANCE__@@H@Z 0045132c f   nafxcw:afxtls.obj
 0001:00050385       ?GetData@CThreadLocalObject@@QAEPAVCNoTrackObject@@P6GPAV2@XZ@Z 00451385 f   nafxcw:afxtls.obj
 0001:000503ff       ??1CThreadLocalObject@@QAE@XZ 004513ff f   nafxcw:afxtls.obj
 0001:0005041d       ?AfxTermLocalData@@YGXPAUHINSTANCE__@@H@Z 0045141d f   nafxcw:afxtls.obj
 0001:0005042f       ??1CThreadSlotData@@QAE@XZ 0045142f f   nafxcw:afxtls.obj
 0001:00050486       ??_GCThreadSlotData@@QAEPAXI@Z 00451486 f i nafxcw:afxtls.obj
 0001:000504a2       ?AfxTlsRelease@@YGXXZ      004514a2 f   nafxcw:afxtls.obj
 0001:000504ca       ?GetRuntimeClass@CArchiveException@@UBEPAUCRuntimeClass@@XZ 004514ca f   nafxcw:arcex.obj
 0001:000504d0       ?AfxCriticalInit@@YGHXZ    004514d0 f   nafxcw:afxcrit.obj
 0001:000504f4       ?AfxCriticalTerm@@YGXXZ    004514f4 f   nafxcw:afxcrit.obj
 0001:00050539       ?AfxLockGlobals@@YGXH@Z    00451539 f   nafxcw:afxcrit.obj
 0001:0005059c       ?AfxUnlockGlobals@@YGXH@Z  0045159c f   nafxcw:afxcrit.obj
 0001:000505b4       ?GetRuntimeClass@CMapPtrToPtr@@UBEPAUCRuntimeClass@@XZ 004515b4 f   nafxcw:map_pp.obj
 0001:000505ba       ?GetRuntimeClass@CPtrList@@UBEPAUCRuntimeClass@@XZ 004515ba f   nafxcw:list_p.obj
 0001:000505c0       ?CommonConstruct@CWinThread@@QAEXXZ 004515c0 f   nafxcw:thrdcore.obj
 0001:000505f7       ?GetRuntimeClass@CWinThread@@UBEPAUCRuntimeClass@@XZ 004515f7 f   nafxcw:thrdcore.obj
 0001:000505fd       ??0CWinThread@@QAE@P6AIPAX@Z0@Z 004515fd f   nafxcw:thrdcore.obj
 0001:00050641       ??_GCWinThread@@UAEPAXI@Z  00451641 f i nafxcw:thrdcore.obj
 0001:00050641       ??_ECWinThread@@UAEPAXI@Z  00451641 f i nafxcw:thrdcore.obj
 0001:0005065d       ??0CWinThread@@QAE@XZ      0045165d f   nafxcw:thrdcore.obj
 0001:0005069a       ??B?$CTypedSimpleList@PAVCFrameWnd@@@@QAEPAVCFrameWnd@@XZ 0045169a f i nafxcw:thrdcore.obj
 0001:0005069d       ??B?$CThreadLocal@VAFX_MODULE_THREAD_STATE@@@@QAEPAVAFX_MODULE_THREAD_STATE@@XZ 0045169d f i nafxcw:thrdcore.obj
 0001:000506a8       ?GetRuntimeClass@CByteArray@@UBEPAUCRuntimeClass@@XZ 004516a8 f   nafxcw:array_b.obj
 0001:000506ae       ??5@YGAAVCArchive@@AAV0@AAPAVCByteArray@@@Z 004516ae f   nafxcw:array_b.obj
 0001:000506c9       ?CreateObject@CByteArray@@SGPAVCObject@@XZ 004516c9 f   nafxcw:array_b.obj
 0001:000506ea       ?_AfxLoadDotBitmap@@YGXXZ  004516ea f   nafxcw:cmdtarg.obj
 0001:000507d6       ?GetRuntimeClass@CCmdTarget@@UBEPAUCRuntimeClass@@XZ 004517d6 f   nafxcw:cmdtarg.obj
 0001:000507dc       ?GetRuntimeClass@CWnd@@UBEPAUCRuntimeClass@@XZ 004517dc f   nafxcw:wincore.obj
 0001:000507e2       ?Destruct@?$ConstructDestruct@VCWnd@@@@SGXPAVCObject@@@Z 004517e2 f i nafxcw:wincore.obj
 0001:000507f0       ??1?$CComPtrBase@UIAccessibleProxy@@@ATL@@QAE@XZ 004517f0 f i nafxcw:wincore.obj
 0001:000507fd       ??B?$CComPtrBase@UIAccessibleProxy@@@ATL@@QBEPAUIAccessibleProxy@@XZ 004517fd f i nafxcw:wincore.obj
 0001:00050800       ??I?$CComPtrBase@UIAccessibleProxy@@@ATL@@QAEPAPAUIAccessibleProxy@@XZ 00451800 f i nafxcw:wincore.obj
 0001:00050803       ??C?$CComPtrBase@UIAccessibleProxy@@@ATL@@QBEPAV?$_NoAddRefReleaseOnCComPtr@UIAccessibleProxy@@@1@XZ 00451803 f i nafxcw:wincore.obj
 0001:00050806       ??0IAccessibleProxy@@QAE@XZ 00451806 f i nafxcw:wincore.obj
 0001:00050809       ??0IDispatch@@QAE@XZ       00451809 f i nafxcw:wincore.obj
 0001:0005080c       ??0?$CComPtrBase@UIAccessibleProxy@@@ATL@@IAE@XZ 0045180c f i nafxcw:wincore.obj
 0001:00050812       ??$QueryInterface@UIAccessibleProxy@@@?$CMFCComObject@VCAccessibleProxy@ATL@@@@QAGJPAPAUIAccessibleProxy@@@Z 00451812 f i nafxcw:wincore.obj
 0001:00050827       ?CreateObject@CWnd@@SGPAVCObject@@XZ 00451827 f   nafxcw:wincore.obj
 0001:00050859       ?Construct@?$ConstructDestruct@VCWnd@@@@SGXPAVCObject@@@Z 00451859 f i nafxcw:wincore.obj
 0001:00050885       ??0?$CComPtr@UIAccessibleProxy@@@ATL@@QAE@XZ 00451885 f i nafxcw:wincore.obj
 0001:0005088b       ??0IAccessible@@QAE@XZ     0045188b f i nafxcw:wincore.obj
 0001:0005088e       ??0_AFX_HTMLHELP_STATE@@QAE@XZ 0045188e f i nafxcw:wincore.obj
 0001:00050897       ??0?$IAccessibleProxyImpl@VCAccessibleProxy@ATL@@@ATL@@QAE@XZ 00451897 f i nafxcw:wincore.obj
 0001:000508af       ?get_accParent@?$IAccessibleProxyImpl@VCAccessibleProxy@ATL@@@ATL@@UAGJPAPAUIDispatch@@@Z 004518af f i nafxcw:wincore.obj
 0001:000508de       ?get_accChildCount@?$IAccessibleProxyImpl@VCAccessibleProxy@ATL@@@ATL@@UAGJPAJ@Z 004518de f i nafxcw:wincore.obj
 0001:0005090d       ?get_accChild@?$IAccessibleProxyImpl@VCAccessibleProxy@ATL@@@ATL@@UAGJUtagVARIANT@@PAPAUIDispatch@@@Z 0045190d f i nafxcw:wincore.obj
 0001:0005094d       ?get_accName@?$IAccessibleProxyImpl@VCAccessibleProxy@ATL@@@ATL@@UAGJUtagVARIANT@@PAPA_W@Z 0045194d f i nafxcw:wincore.obj
 0001:0005098d       ?get_accValue@?$IAccessibleProxyImpl@VCAccessibleProxy@ATL@@@ATL@@UAGJUtagVARIANT@@PAPA_W@Z 0045198d f i nafxcw:wincore.obj
 0001:000509cd       ?get_accDescription@?$IAccessibleProxyImpl@VCAccessibleProxy@ATL@@@ATL@@UAGJUtagVARIANT@@PAPA_W@Z 004519cd f i nafxcw:wincore.obj
 0001:00050a0d       ?get_accRole@?$IAccessibleProxyImpl@VCAccessibleProxy@ATL@@@ATL@@UAGJUtagVARIANT@@PAU3@@Z 00451a0d f i nafxcw:wincore.obj
 0001:00050a4d       ?get_accState@?$IAccessibleProxyImpl@VCAccessibleProxy@ATL@@@ATL@@UAGJUtagVARIANT@@PAU3@@Z 00451a4d f i nafxcw:wincore.obj
 0001:00050a8d       ?get_accHelp@?$IAccessibleProxyImpl@VCAccessibleProxy@ATL@@@ATL@@UAGJUtagVARIANT@@PAPA_W@Z 00451a8d f i nafxcw:wincore.obj
 0001:00050acd       ?get_accHelpTopic@?$IAccessibleProxyImpl@VCAccessibleProxy@ATL@@@ATL@@UAGJPAPA_WUtagVARIANT@@PAJ@Z 00451acd f i nafxcw:wincore.obj
 0001:00050b15       ?get_accKeyboardShortcut@?$IAccessibleProxyImpl@VCAccessibleProxy@ATL@@@ATL@@UAGJUtagVARIANT@@PAPA_W@Z 00451b15 f i nafxcw:wincore.obj
 0001:00050b55       ?get_accFocus@?$IAccessibleProxyImpl@VCAccessibleProxy@ATL@@@ATL@@UAGJPAUtagVARIANT@@@Z 00451b55 f i nafxcw:wincore.obj
 0001:00050b84       ?get_accSelection@?$IAccessibleProxyImpl@VCAccessibleProxy@ATL@@@ATL@@UAGJPAUtagVARIANT@@@Z 00451b84 f i nafxcw:wincore.obj
 0001:00050bb3       ?get_accDefaultAction@?$IAccessibleProxyImpl@VCAccessibleProxy@ATL@@@ATL@@UAGJUtagVARIANT@@PAPA_W@Z 00451bb3 f i nafxcw:wincore.obj
 0001:00050bf3       ?accSelect@?$IAccessibleProxyImpl@VCAccessibleProxy@ATL@@@ATL@@UAGJJUtagVARIANT@@@Z 00451bf3 f i nafxcw:wincore.obj
 0001:00050c25       ?accLocation@?$IAccessibleProxyImpl@VCAccessibleProxy@ATL@@@ATL@@UAGJPAJ000UtagVARIANT@@@Z 00451c25 f i nafxcw:wincore.obj
 0001:00050c7d       ?accNavigate@?$IAccessibleProxyImpl@VCAccessibleProxy@ATL@@@ATL@@UAGJJUtagVARIANT@@PAU3@@Z 00451c7d f i nafxcw:wincore.obj
 0001:00050cc0       ?accHitTest@?$IAccessibleProxyImpl@VCAccessibleProxy@ATL@@@ATL@@UAGJJJPAUtagVARIANT@@@Z 00451cc0 f i nafxcw:wincore.obj
 0001:00050cf6       ?accDoDefaultAction@?$IAccessibleProxyImpl@VCAccessibleProxy@ATL@@@ATL@@UAGJUtagVARIANT@@@Z 00451cf6 f i nafxcw:wincore.obj
 0001:00050d24       ?put_accName@?$IAccessibleProxyImpl@VCAccessibleProxy@ATL@@@ATL@@UAGJUtagVARIANT@@PA_W@Z 00451d24 f i nafxcw:wincore.obj
 0001:00050d3c       ?put_accValue@?$IAccessibleProxyImpl@VCAccessibleProxy@ATL@@@ATL@@UAGJUtagVARIANT@@PA_W@Z 00451d3c f i nafxcw:wincore.obj
 0001:00050d54       ?SetServer@?$IAccessibleProxyImpl@VCAccessibleProxy@ATL@@@ATL@@UAGJPAUIAccessible@@PAUIAccessibleServer@@@Z 00451d54 f i nafxcw:wincore.obj
 0001:00050d6b       ?Invoke@?$IAccessibleProxyImpl@VCAccessibleProxy@ATL@@@ATL@@UAGJJABU_GUID@@KGPAUtagDISPPARAMS@@PAUtagVARIANT@@PAUtagEXCEPINFO@@PAI@Z 00451d6b f i nafxcw:wincore.obj
 0001:00050da3       ?GetIDsOfNames@?$IAccessibleProxyImpl@VCAccessibleProxy@ATL@@@ATL@@UAGJABU_GUID@@PAPA_WIKPAJ@Z 00451da3 f i nafxcw:wincore.obj
 0001:00050dd2       ?GetTypeInfoCount@?$IAccessibleProxyImpl@VCAccessibleProxy@ATL@@@ATL@@UAGJPAI@Z 00451dd2 f i nafxcw:wincore.obj
 0001:00050df3       ?GetTypeInfo@?$IAccessibleProxyImpl@VCAccessibleProxy@ATL@@@ATL@@UAGJIKPAPAUITypeInfo@@@Z 00451df3 f i nafxcw:wincore.obj
 0001:00050e1c       ?CreateObject@?$CProcessLocal@V_AFX_HTMLHELP_STATE@@@@SGPAVCNoTrackObject@@XZ 00451e1c f i nafxcw:wincore.obj
 0001:00050e31       ?GetData@?$CProcessLocal@V_AFX_HTMLHELP_STATE@@@@QAEPAV_AFX_HTMLHELP_STATE@@XZ 00451e31 f i nafxcw:wincore.obj
 0001:00050e3c       ??0?$CMFCComObject@VCAccessibleProxy@ATL@@@@QAE@PAX@Z 00451e3c f i nafxcw:wincore.obj
 0001:00050e69       ??_E?$CMFCComObject@VCAccessibleProxy@ATL@@@@UAEPAXI@Z 00451e69 f i nafxcw:wincore.obj
 0001:00050e69       ??_G?$CMFCComObject@VCAccessibleProxy@ATL@@@@UAEPAXI@Z 00451e69 f i nafxcw:wincore.obj
 0001:00050e85       ??1?$CMFCComObject@VCAccessibleProxy@ATL@@@@UAE@XZ 00451e85 f i nafxcw:wincore.obj
 0001:00050eaa       ?AddRef@?$CMFCComObject@VCAccessibleProxy@ATL@@@@UAGKXZ 00451eaa f i nafxcw:wincore.obj
 0001:00050eb7       ?Release@?$CMFCComObject@VCAccessibleProxy@ATL@@@@UAGKXZ 00451eb7 f i nafxcw:wincore.obj
 0001:00050ed5       ?QueryInterface@?$CMFCComObject@VCAccessibleProxy@ATL@@@@UAGJABU_GUID@@PAPAX@Z 00451ed5 f i nafxcw:wincore.obj
 0001:00050eee       ?QueryInterface@?$CMFCComObject@VCAccessibleProxy@ATL@@@@W3AGJABU_GUID@@PAPAX@Z 00451eee f i nafxcw:wincore.obj
 0001:00050ef8       ?AddRef@?$CMFCComObject@VCAccessibleProxy@ATL@@@@W3AGKXZ 00451ef8 f i nafxcw:wincore.obj
 0001:00050f02       ?Release@?$CMFCComObject@VCAccessibleProxy@ATL@@@@W3AGKXZ 00451f02 f i nafxcw:wincore.obj
 0001:00050f0c       ?QueryInterface@?$CMFCComObject@VCAccessibleProxy@ATL@@@@WBA@AGJABU_GUID@@PAPAX@Z 00451f0c f i nafxcw:wincore.obj
 0001:00050f16       ?AddRef@?$CMFCComObject@VCAccessibleProxy@ATL@@@@WBA@AGKXZ 00451f16 f i nafxcw:wincore.obj
 0001:00050f20       ?Release@?$CMFCComObject@VCAccessibleProxy@ATL@@@@WBA@AGKXZ 00451f20 f i nafxcw:wincore.obj
 0001:00050f2a       ?CreateInstance@?$CMFCComObject@VCAccessibleProxy@ATL@@@@SGJPAPAV1@@Z 00451f2a f i nafxcw:wincore.obj
 0001:00050fb0       ?GetRuntimeClass@CResourceException@@UBEPAUCRuntimeClass@@XZ 00451fb0 f   nafxcw:wingdi.obj
 0001:00050fb6       ?GetRuntimeClass@CUserException@@UBEPAUCRuntimeClass@@XZ 00451fb6 f   nafxcw:wingdi.obj
 0001:00050fbc       ?GetRuntimeClass@CDC@@UBEPAUCRuntimeClass@@XZ 00451fbc f   nafxcw:wingdi.obj
 0001:00050fc2       ?GetRuntimeClass@CClientDC@@UBEPAUCRuntimeClass@@XZ 00451fc2 f   nafxcw:wingdi.obj
 0001:00050fc8       ?GetRuntimeClass@CWindowDC@@UBEPAUCRuntimeClass@@XZ 00451fc8 f   nafxcw:wingdi.obj
 0001:00050fce       ?GetRuntimeClass@CPaintDC@@UBEPAUCRuntimeClass@@XZ 00451fce f   nafxcw:wingdi.obj
 0001:00050fd4       ?GetRuntimeClass@CGdiObject@@UBEPAUCRuntimeClass@@XZ 00451fd4 f   nafxcw:wingdi.obj
 0001:00050fda       ?GetRuntimeClass@CPen@@UBEPAUCRuntimeClass@@XZ 00451fda f   nafxcw:wingdi.obj
 0001:00050fe0       ?GetRuntimeClass@CBrush@@UBEPAUCRuntimeClass@@XZ 00451fe0 f   nafxcw:wingdi.obj
 0001:00050fe6       ?GetRuntimeClass@CFont@@UBEPAUCRuntimeClass@@XZ 00451fe6 f   nafxcw:wingdi.obj
 0001:00050fec       ?GetRuntimeClass@CBitmap@@UBEPAUCRuntimeClass@@XZ 00451fec f   nafxcw:wingdi.obj
 0001:00050ff2       ?GetRuntimeClass@CPalette@@UBEPAUCRuntimeClass@@XZ 00451ff2 f   nafxcw:wingdi.obj
 0001:00050ff8       ?GetRuntimeClass@CRgn@@UBEPAUCRuntimeClass@@XZ 00451ff8 f   nafxcw:wingdi.obj
 0001:00050ffe       ?Destruct@?$ConstructDestruct@VCDC@@@@SGXPAVCObject@@@Z 00451ffe f i nafxcw:wingdi.obj
 0001:0005100c       ?Destruct@?$ConstructDestruct@VCGdiObject@@@@SGXPAVCObject@@@Z 0045200c f i nafxcw:wingdi.obj
 0001:0005101a       ?CreateObject@CDC@@SGPAVCObject@@XZ 0045201a f   nafxcw:wingdi.obj
 0001:0005103b       ?CreateObject@CGdiObject@@SGPAVCObject@@XZ 0045203b f   nafxcw:wingdi.obj
 0001:00051055       ?Construct@?$ConstructDestruct@VCDC@@@@SGXPAVCObject@@@Z 00452055 f i nafxcw:wingdi.obj
 0001:00051071       ?Construct@?$ConstructDestruct@VCGdiObject@@@@SGXPAVCObject@@@Z 00452071 f i nafxcw:wingdi.obj
 0001:000510d4       ?GetRuntimeClass@CMenu@@UBEPAUCRuntimeClass@@XZ 004520d4 f   nafxcw:winmenu.obj
 0001:000510da       ?Destruct@?$ConstructDestruct@VCMenu@@@@SGXPAVCObject@@@Z 004520da f i nafxcw:winmenu.obj
 0001:000510e8       ?CreateObject@CMenu@@SGPAVCObject@@XZ 004520e8 f   nafxcw:winmenu.obj
 0001:00051102       ?Construct@?$ConstructDestruct@VCMenu@@@@SGXPAVCObject@@@Z 00452102 f i nafxcw:winmenu.obj
 0001:000511b6       ?AfxLoadLangResourceDLL@@YGPAUHINSTANCE__@@PBD@Z 004521b6 f   nafxcw:appcore.obj
 0001:0005139b       ?LoadSysPolicies@CWinApp@@UAEHXZ 0045239b f   nafxcw:appcore.obj
 0001:00051465       ?GetSysPolicyValue@CWinApp@@QAEHKPAH@Z 00452465 f   nafxcw:appcore.obj
 0001:00051485       ?InitApplication@CWinApp@@UAEHXZ 00452485 f   nafxcw:appcore.obj
 0001:000514c5       ?LoadAppLangResourceDLL@CWinApp@@UAEPAUHINSTANCE__@@XZ 004524c5 f   nafxcw:appcore.obj
 0001:0005154f       ?LoadStdProfileSettings@CWinApp@@IAEXI@Z 0045254f f   nafxcw:appcore.obj
 0001:000515de       ?ParseCommandLine@CWinApp@@QAEXAAVCCommandLineInfo@@@Z 004525de f   nafxcw:appcore.obj
 0001:00051631       ?ParseParamFlag@CCommandLineInfo@@IAEXPBD@Z 00452631 f   nafxcw:appcore.obj
 0001:00051717       ??1CWinApp@@UAE@XZ         00452717 f   nafxcw:appcore.obj
 0001:0005183f       ?SaveStdProfileSettings@CWinApp@@IAEXXZ 0045283f f   nafxcw:appcore.obj
 0001:00051874       ?ExitInstance@CWinApp@@UAEHXZ 00452874 f   nafxcw:appcore.obj
 0001:000518c8       ?GetRuntimeClass@CWinApp@@UBEPAUCRuntimeClass@@XZ 004528c8 f   nafxcw:appcore.obj
 0001:000518ce       ??1?$CProcessLocal@V_AFX_WIN_STATE@@@@QAE@XZ 004528ce f i nafxcw:appcore.obj
 0001:000518d3       ??_GCWinApp@@UAEPAXI@Z     004528d3 f i nafxcw:appcore.obj
 0001:000518d3       ??_ECWinApp@@UAEPAXI@Z     004528d3 f i nafxcw:appcore.obj
 0001:000518ef       ?InitInstance@CWinApp@@UAEHXZ 004528ef f   nafxcw:appcore.obj
 0001:00051927       ??0CWinApp@@QAE@PBD@Z      00452927 f   nafxcw:appcore.obj
 0001:000519ff       ??0CCommandLineInfo@@QAE@XZ 004529ff f   nafxcw:appcore.obj
 0001:00051a3e       ??1CCommandLineInfo@@UAE@XZ 00452a3e f   nafxcw:appcore.obj
 0001:00051a74       ?ParseLast@CCommandLineInfo@@IAEXH@Z 00452a74 f   nafxcw:appcore.obj
 0001:00051aa3       ??_ECCommandLineInfo@@UAEPAXI@Z 00452aa3 f i nafxcw:appcore.obj
 0001:00051aa3       ??_GCCommandLineInfo@@UAEPAXI@Z 00452aa3 f i nafxcw:appcore.obj
 0001:00051abf       ?ParseParamNotFlag@CCommandLineInfo@@IAEXPBD@Z 00452abf f   nafxcw:appcore.obj
 0001:00051b08       ?ParseParam@CCommandLineInfo@@UAEXPBDHH@Z 00452b08 f   nafxcw:appcore.obj
 0001:00051b55       ?_AfxInitDBCS@@YGHXZ       00452b55 f   nafxcw:afxdbcs.obj
 0001:00051b97       ?GetRuntimeClass@CPtrArray@@UBEPAUCRuntimeClass@@XZ 00452b97 f   nafxcw:array_p.obj
 0001:00051b9d       ?SetRegistryKey@CWinApp@@IAEXPBD@Z 00452b9d f   nafxcw:appui3.obj
 0001:00051bce       ?SetRegistryKey@CWinApp@@IAEXI@Z 00452bce f   nafxcw:appui3.obj
 0001:00051c15       ?GetAppRegistryKey@CWinApp@@QAEPAUHKEY__@@XZ 00452c15 f   nafxcw:appui3.obj
 0001:00051ca6       ?GetSectionKey@CWinApp@@QAEPAUHKEY__@@PBD@Z 00452ca6 f   nafxcw:appui3.obj
 0001:00051cec       ?GetProfileIntA@CWinApp@@QAEIPBD0H@Z 00452cec f   nafxcw:appui3.obj
 0001:00051d55       ?GetProfileStringA@CWinApp@@QAE?AV?$CStringT@DV?$StrTraitMFC@DV?$ChTraitsCRT@D@ATL@@@@@ATL@@PBD00@Z 00452d55 f   nafxcw:appui3.obj
 0001:00051ee2       ?GetProfileBinary@CWinApp@@QAEHPBD0PAPAEPAI@Z 00452ee2 f   nafxcw:appui3.obj
 0001:0005200a       ?InitLibId@CWinApp@@UAEXXZ 0045300a f   nafxcw:appui2.obj
 0001:0005200b       ?Register@CWinApp@@UAEHXZ  0045300b f   nafxcw:appui2.obj
 0001:0005200f       ?RegisterShellFileTypes@CWinApp@@IAEXH@Z 0045300f f   nafxcw:appui2.obj
 0001:00052017       ?UnregisterShellFileTypes@CWinApp@@IAEXXZ 00453017 f   nafxcw:appui2.obj
 0001:0005201f       ?ProcessShellCommand@CWinApp@@QAEHAAVCCommandLineInfo@@@Z 0045301f f   nafxcw:appui2.obj
 0001:0005219f       ?AfxDelRegTreeHelper@@YGJPAUHKEY__@@ABV?$CStringT@DV?$StrTraitMFC@DV?$ChTraitsCRT@D@ATL@@@@@ATL@@@Z 0045319f f   nafxcw:appui2.obj
 0001:000522ca       ?EnableShellOpen@CWinApp@@IAEXXZ 004532ca f   nafxcw:appui2.obj
 0001:00052375       ?DelRegTree@CWinApp@@QAEJPAUHKEY__@@ABV?$CStringT@DV?$StrTraitMFC@DV?$ChTraitsCRT@D@ATL@@@@@ATL@@@Z 00453375 f   nafxcw:appui2.obj
 0001:0005237a       ?Unregister@CWinApp@@UAEHXZ 0045337a f   nafxcw:appui2.obj
 0001:000524f1       ?AfxGetFileName@@YGIPBDPADI@Z 004534f1 f   nafxcw:appinit.obj
 0001:00052520       ?SetCurrentHandles@CWinApp@@QAEXXZ 00453520 f   nafxcw:appinit.obj
 0001:00052672       ?AfxWinInit@@YGHPAUHINSTANCE__@@0PADH@Z 00453672 f   nafxcw:appinit.obj
 0001:000526ef       ?GetRuntimeClass@CFile@@UBEPAUCRuntimeClass@@XZ 004536ef f   nafxcw:filecore.obj
 0001:000526f5       ?GetRuntimeClass@CFileException@@UBEPAUCRuntimeClass@@XZ 004536f5 f   nafxcw:filex.obj
 0001:000526fb       ?_AfxSetRegKey@@YGHPBD00@Z 004536fb f   nafxcw:docmgr.obj
 0001:0005277a       ?GetRuntimeClass@CDocManager@@UBEPAUCRuntimeClass@@XZ 0045377a f   nafxcw:docmgr.obj
 0001:00052780       ?StringFindChar@?$ChTraitsCRT@D@ATL@@SAPBDPBDD@Z 00453780 f i nafxcw:docmgr.obj
 0001:00052792       ?StringSpanIncluding@?$ChTraitsCRT@D@ATL@@SAHPBD0@Z 00453792 f i nafxcw:docmgr.obj
 0001:00052797       ?StringSpanExcluding@?$ChTraitsCRT@D@ATL@@SAHPBD0@Z 00453797 f i nafxcw:docmgr.obj
 0001:0005279c       ?_AfxDeleteRegKey@@YGHPBD@Z 0045379c f   nafxcw:docmgr.obj
 0001:00052856       ??0CDocManager@@QAE@XZ     00453856 f   nafxcw:docmgr.obj
 0001:0005286d       ??_GCDocManager@@UAEPAXI@Z 0045386d f i nafxcw:docmgr.obj
 0001:0005286d       ??_ECDocManager@@UAEPAXI@Z 0045386d f i nafxcw:docmgr.obj
 0001:00052889       ?Find@?$CStringT@DV?$StrTraitMFC@DV?$ChTraitsCRT@D@ATL@@@@@ATL@@QBEHDH@Z 00453889 f i nafxcw:docmgr.obj
 0001:000528ba       ??8ATL@@YA_NABV?$CStringT@DV?$StrTraitMFC@DV?$ChTraitsCRT@D@ATL@@@@@0@0@Z 004538ba f i nafxcw:docmgr.obj
 0001:000528d5       ??9ATL@@YA_NABV?$CStringT@DV?$StrTraitMFC@DV?$ChTraitsCRT@D@ATL@@@@@0@PBD@Z 004538d5 f i nafxcw:docmgr.obj
 0001:000528ee       ?Right@?$CStringT@DV?$StrTraitMFC@DV?$ChTraitsCRT@D@ATL@@@@@ATL@@QBE?AV12@H@Z 004538ee f i nafxcw:docmgr.obj
 0001:0005293b       ?SetAt@?$CSimpleStringT@D$0A@@ATL@@QAEXHD@Z 0045393b f i nafxcw:docmgr.obj
 0001:00052976       ?Mid@?$CStringT@DV?$StrTraitMFC@DV?$ChTraitsCRT@D@ATL@@@@@ATL@@QBE?AV12@HH@Z 00453976 f i nafxcw:docmgr.obj
 0001:000529df       ?Tokenize@?$CStringT@DV?$StrTraitMFC@DV?$ChTraitsCRT@D@ATL@@@@@ATL@@QBE?AV12@PBDAAH@Z 004539df f i nafxcw:docmgr.obj
 0001:00052a7c       ?Mid@?$CStringT@DV?$StrTraitMFC@DV?$ChTraitsCRT@D@ATL@@@@@ATL@@QBE?AV12@H@Z 00453a7c f i nafxcw:docmgr.obj
 0001:00052a9f       ??Y?$CSimpleStringT@D$0A@@ATL@@QAEAAV01@ABV01@@Z 00453a9f f i nafxcw:docmgr.obj
 0001:00052ab7       ?UnregisterShellFileTypes@CDocManager@@QAEXXZ 00453ab7 f   nafxcw:docmgr.obj
 0001:00052d79       ??Y?$CStringT@DV?$StrTraitMFC@DV?$ChTraitsCRT@D@ATL@@@@@ATL@@QAEAAV01@ABV?$CSimpleStringT@D$0A@@1@@Z 00453d79 f i nafxcw:docmgr.obj
 0001:00052d8b       ?RegisterShellFileTypes@CDocManager@@UAEXH@Z 00453d8b f   nafxcw:docmgr.obj
 0001:000532ec       ?GetRuntimeClass@CDialog@@UBEPAUCRuntimeClass@@XZ 004542ec f   nafxcw:dlgcore.obj
 0001:000532f2       ?GetRuntimeClass@CFileDialog@@UBEPAUCRuntimeClass@@XZ 004542f2 f   nafxcw:dlgfile.obj
 0001:000532f8       ??HATL@@YA?AV?$CStringT@DV?$StrTraitMFC@DV?$ChTraitsCRT@D@ATL@@@@@0@ABV10@D@Z 004542f8 f i nafxcw:dlgfile.obj
 0001:0005336b       ?GetErrorMessage@COleException@@UAEHPADIPAI@Z 0045436b f   nafxcw:olemisc.obj
 0001:000533c1       ?Process@COleException@@SGJPBVCException@@@Z 004543c1 f   nafxcw:olemisc.obj
 0001:00053410       ?AfxUnmergeMenus@@YGXPAUHMENU__@@00@Z 00454410 f   nafxcw:olemisc.obj
 0001:000534bc       ?_AfxFillFormatEtc@@YGPAUtagFORMATETC@@PAU1@G0@Z 004544bc f   nafxcw:olemisc.obj
 0001:000534eb       ?_AfxCopyGlobalMemory@@YGPAXPAX0@Z 004544eb f   nafxcw:olemisc.obj
 0001:00053557       ?_AfxOleDoConvert@@YGJPAUIStorage@@ABU_GUID@@@Z 00454557 f   nafxcw:olemisc.obj
 0001:00053627       ?_AfxOleDoTreatAsClass@@YGJPBDABU_GUID@@1@Z 00454627 f   nafxcw:olemisc.obj
 0001:000536b2       ?_AfxOleGetFirstMoniker@@YGPAUIMoniker@@PAU1@@Z 004546b2 f   nafxcw:olemisc.obj
 0001:0005371a       ?_AfxOleGetLenFilePrefixOfMoniker@@YGKPAUIMoniker@@@Z 0045471a f   nafxcw:olemisc.obj
 0001:000537fc       ?_AfxOleCopyTargetDevice@@YGPAUtagDVTARGETDEVICE@@PAU1@@Z 004547fc f   nafxcw:olemisc.obj
 0001:0005382b       ?_AfxOleCopyFormatEtc@@YGXPAUtagFORMATETC@@0@Z 0045482b f   nafxcw:olemisc.obj
 0001:0005385d       ?_AfxDeleteMetafilePict@@YGXPAX@Z 0045485d f   nafxcw:olemisc.obj
 0001:00053886       ?_AfxXformSizeInPixelsToHimetric@@YGXPAUHDC__@@PAUtagSIZE@@1@Z 00454886 f   nafxcw:olemisc.obj
 0001:000538ed       ?_AfxXformSizeInHimetricToPixels@@YGXPAUHDC__@@PAUtagSIZE@@1@Z 004548ed f   nafxcw:olemisc.obj
 0001:0005395a       ?AfxThrowOleException@@YGXJ@Z 0045495a f   nafxcw:olemisc.obj
 0001:0005399c       ?_AfxCopyStgMedium@@YGHGPAUtagSTGMEDIUM@@0@Z 0045499c f   nafxcw:olemisc.obj
 0001:00053c57       ?_AfxOleGetObjectDescriptorData@@YGPAXU_GUID@@KUtagSIZE@@U_POINTL@@KPB_W3@Z 00454c57 f   nafxcw:olemisc.obj
 0001:00053d5c       ?_AfxOleGetObjectDescriptorData@@YGPAXPAUIOleObject@@PB_WKU_POINTL@@PAUtagSIZE@@@Z 00454d5c f   nafxcw:olemisc.obj
 0001:00053f94       ?_AfxOleCreateTargetDevice@@YGPAUtagDVTARGETDEVICE@@PAUtagDEVNAMES@@PAU_devicemodeA@@@Z 00454f94 f   nafxcw:olemisc.obj
 0001:00054198       ?_AfxOleCreateTargetDevice@@YGPAUtagDVTARGETDEVICE@@PAUtagPDA@@@Z 00455198 f   nafxcw:olemisc.obj
 0001:000541e7       ?_AfxOleCreateDC@@YGPAUHDC__@@PAUtagDVTARGETDEVICE@@@Z 004551e7 f   nafxcw:olemisc.obj
 0001:000542fe       ?AfxMergeMenus@@YGPAUHMENU__@@PAU1@0PAJHH@Z 004552fe f   nafxcw:olemisc.obj
 0001:00054589       ?_AfxQueryInterface@@YGPAUIUnknown@@PAU1@ABU_GUID@@@Z 00455589 f   nafxcw:oleunk.obj
 0001:000545ad       ?_AfxRelease@@YGKPAPAUIUnknown@@@Z 004555ad f   nafxcw:oleunk.obj
 0001:000545c9       ?InternalRelease@CCmdTarget@@QAEKXZ 004555c9 f   nafxcw:oleunk.obj
 0001:000545f2       ?ExternalRelease@CCmdTarget@@QAEKXZ 004555f2 f   nafxcw:oleunk.obj
 0001:00054607       ?GetInterface@CCmdTarget@@QAEPAUIUnknown@@PBX@Z 00455607 f   nafxcw:oleunk.obj
 0001:000546b5       ?QueryAggregates@CCmdTarget@@QAEPAUIUnknown@@PBX@Z 004556b5 f   nafxcw:oleunk.obj
 0001:00054715       ?Release@CInnerUnknown@@UAGKXZ 00455715 f   nafxcw:oleunk.obj
 0001:00054724       ?ExternalDisconnect@CCmdTarget@@QAEXXZ 00455724 f   nafxcw:oleunk.obj
 0001:00054750       ?GetControllingUnknown@CCmdTarget@@QAEPAUIUnknown@@XZ 00455750 f   nafxcw:oleunk.obj
 0001:00054762       ??0CInnerUnknown@@QAE@XZ   00455762 f i nafxcw:oleunk.obj
 0001:0005476b       ?ExternalAddRef@CCmdTarget@@QAEKXZ 0045576b f   nafxcw:oleunk.obj
 0001:00054786       ?InternalQueryInterface@CCmdTarget@@QAEKPBXPAPAX@Z 00455786 f   nafxcw:oleunk.obj
 0001:000547c6       ?ExternalQueryInterface@CCmdTarget@@QAEKPBXPAPAX@Z 004557c6 f   nafxcw:oleunk.obj
 0001:000547e4       ?AddRef@CInnerUnknown@@UAGKXZ 004557e4 f   nafxcw:oleunk.obj
 0001:000547f5       ?QueryInterface@CInnerUnknown@@UAGJABU_GUID@@PAPAX@Z 004557f5 f   nafxcw:oleunk.obj
 0001:00054839       ?EnableAggregation@CCmdTarget@@QAEXXZ 00455839 f   nafxcw:oleunk.obj
 0001:00054841       ??1AUX_DATA@@QAE@XZ        00455841 f   nafxcw:auxdata.obj
 0001:0005484b       ??1CWinThread@@UAE@XZ      0045584b f   nafxcw:thrdcore.obj
 0001:0005489a       ?AfxPostQuitMessage@@YGXH@Z 0045589a f   nafxcw:appcore.obj
 0001:000548b6       ??1CDocManager@@UAE@XZ     004558b6 f   nafxcw:docmgr.obj
 0002:00000000       __imp__RegCreateKeyA@12    00458000     advapi32:ADVAPI32.dll
 0002:00000004       __imp__RegEnumKeyA@16      00458004     advapi32:ADVAPI32.dll
 0002:00000008       __imp__RegDeleteKeyA@8     00458008     advapi32:ADVAPI32.dll
 0002:0000000c       __imp__RegDeleteValueA@8   0045800c     advapi32:ADVAPI32.dll
 0002:00000010       __imp__GetUserNameA@8      00458010     advapi32:ADVAPI32.dll
 0002:00000014       __imp__RegCreateKeyExA@36  00458014     advapi32:ADVAPI32.dll
 0002:00000018       __imp__RegOpenKeyA@12      00458018     advapi32:ADVAPI32.dll
 0002:0000001c       __imp__RegSetValueA@20     0045801c     advapi32:ADVAPI32.dll
 0002:00000020       __imp__RegCloseKey@4       00458020     advapi32:ADVAPI32.dll
 0002:00000024       __imp__RegQueryValueExA@24 00458024     advapi32:ADVAPI32.dll
 0002:00000028       __imp__RegOpenKeyExA@20    00458028     advapi32:ADVAPI32.dll
 0002:0000002c       __imp__RegSetValueExA@24   0045802c     advapi32:ADVAPI32.dll
 0002:00000030       __imp__RegQueryValueA@16   00458030     advapi32:ADVAPI32.dll
 0002:00000034       \177ADVAPI32_NULL_THUNK_DATA 00458034     advapi32:ADVAPI32.dll
 0002:00000038       __imp__InitCommonControls@0 00458038     comctl32:COMCTL32.dll
 0002:0000003c       \177COMCTL32_NULL_THUNK_DATA 0045803c     comctl32:COMCTL32.dll
 0002:00000040       __imp__ExcludeClipRect@20  00458040     gdi32:GDI32.dll
 0002:00000044       __imp__IntersectClipRect@20 00458044     gdi32:GDI32.dll
 0002:00000048       __imp__OffsetClipRgn@12    00458048     gdi32:GDI32.dll
 0002:0000004c       __imp__LineTo@12           0045804c     gdi32:GDI32.dll
 0002:00000050       __imp__MoveToEx@16         00458050     gdi32:GDI32.dll
 0002:00000054       __imp__SetTextAlign@8      00458054     gdi32:GDI32.dll
 0002:00000058       __imp__SetTextJustification@12 00458058     gdi32:GDI32.dll
 0002:0000005c       __imp__SetTextCharacterExtra@8 0045805c     gdi32:GDI32.dll
 0002:00000060       __imp__SetMapperFlags@8    00458060     gdi32:GDI32.dll
 0002:00000064       __imp__SetArcDirection@8   00458064     gdi32:GDI32.dll
 0002:00000068       __imp__SetColorAdjustment@8 00458068     gdi32:GDI32.dll
 0002:0000006c       __imp__SelectClipRgn@8     0045806c     gdi32:GDI32.dll
 0002:00000070       __imp__GetClipRgn@8        00458070     gdi32:GDI32.dll
 0002:00000074       __imp__CreateRectRgn@16    00458074     gdi32:GDI32.dll
 0002:00000078       __imp__SelectClipPath@8    00458078     gdi32:GDI32.dll
 0002:0000007c       __imp__GetViewportExtEx@8  0045807c     gdi32:GDI32.dll
 0002:00000080       __imp__SetMapMode@8        00458080     gdi32:GDI32.dll
 0002:00000084       __imp__CreateDIBPatternBrushPt@8 00458084     gdi32:GDI32.dll
 0002:00000088       __imp__CreatePatternBrush@4 00458088     gdi32:GDI32.dll
 0002:0000008c       __imp__CreateCompatibleDC@4 0045808c     gdi32:GDI32.dll
 0002:00000090       __imp__GetStockObject@4    00458090     gdi32:GDI32.dll
 0002:00000094       __imp__SelectPalette@12    00458094     gdi32:GDI32.dll
 0002:00000098       __imp__PlayMetaFileRecord@16 00458098     gdi32:GDI32.dll
 0002:0000009c       __imp__GetObjectType@4     0045809c     gdi32:GDI32.dll
 0002:000000a0       __imp__PolyDraw@16         004580a0     gdi32:GDI32.dll
 0002:000000a4       __imp__ArcTo@36            004580a4     gdi32:GDI32.dll
 0002:000000a8       __imp__GetCurrentPositionEx@8 004580a8     gdi32:GDI32.dll
 0002:000000ac       __imp__ScaleWindowExtEx@24 004580ac     gdi32:GDI32.dll
 0002:000000b0       __imp__EnumMetaFile@16     004580b0     gdi32:GDI32.dll
 0002:000000b4       __imp__PlayMetaFile@8      004580b4     gdi32:GDI32.dll
 0002:000000b8       __imp__CreatePen@12        004580b8     gdi32:GDI32.dll
 0002:000000bc       __imp__SetROP2@8           004580bc     gdi32:GDI32.dll
 0002:000000c0       __imp__CreateSolidBrush@4  004580c0     gdi32:GDI32.dll
 0002:000000c4       __imp__CreateHatchBrush@8  004580c4     gdi32:GDI32.dll
 0002:000000c8       __imp__DeleteDC@4          004580c8     gdi32:GDI32.dll
 0002:000000cc       __imp__SetStretchBltMode@8 004580cc     gdi32:GDI32.dll
 0002:000000d0       __imp__SetWindowExtEx@16   004580d0     gdi32:GDI32.dll
 0002:000000d4       __imp__OffsetWindowOrgEx@16 004580d4     gdi32:GDI32.dll
 0002:000000d8       __imp__SetWindowOrgEx@16   004580d8     gdi32:GDI32.dll
 0002:000000dc       __imp__ScaleViewportExtEx@24 004580dc     gdi32:GDI32.dll
 0002:000000e0       __imp__SetViewportExtEx@16 004580e0     gdi32:GDI32.dll
 0002:000000e4       __imp__SetPolyFillMode@8   004580e4     gdi32:GDI32.dll
 0002:000000e8       __imp__RestoreDC@8         004580e8     gdi32:GDI32.dll
 0002:000000ec       __imp__SaveDC@4            004580ec     gdi32:GDI32.dll
 0002:000000f0       __imp__GetObjectA@12       004580f0     gdi32:GDI32.dll
 0002:000000f4       __imp__GetClipBox@8        004580f4     gdi32:GDI32.dll
 0002:000000f8       __imp__SelectObject@8      004580f8     gdi32:GDI32.dll
 0002:000000fc       __imp__SetBkColor@8        004580fc     gdi32:GDI32.dll
 0002:00000100       __imp__DeleteObject@4      00458100     gdi32:GDI32.dll
 0002:00000104       __imp__SetBkMode@8         00458104     gdi32:GDI32.dll
 0002:00000108       __imp__SetTextColor@8      00458108     gdi32:GDI32.dll
 0002:0000010c       __imp__TextOutA@20         0045810c     gdi32:GDI32.dll
 0002:00000110       __imp__CreateFontA@56      00458110     gdi32:GDI32.dll
 0002:00000114       __imp__CreateFontIndirectA@4 00458114     gdi32:GDI32.dll
 0002:00000118       __imp__GetTextExtentPoint32A@16 00458118     gdi32:GDI32.dll
 0002:0000011c       __imp__CreateRectRgnIndirect@4 0045811c     gdi32:GDI32.dll
 0002:00000120       __imp__SetRectRgn@20       00458120     gdi32:GDI32.dll
 0002:00000124       __imp__CombineRgn@16       00458124     gdi32:GDI32.dll
 0002:00000128       __imp__GetMapMode@4        00458128     gdi32:GDI32.dll
 0002:0000012c       __imp__PatBlt@24           0045812c     gdi32:GDI32.dll
 0002:00000130       __imp__DPtoLP@12           00458130     gdi32:GDI32.dll
 0002:00000134       __imp__GetTextMetricsA@8   00458134     gdi32:GDI32.dll
 0002:00000138       __imp__OffsetViewportOrgEx@16 00458138     gdi32:GDI32.dll
 0002:0000013c       __imp__SetViewportOrgEx@16 0045813c     gdi32:GDI32.dll
 0002:00000140       __imp__Escape@20           00458140     gdi32:GDI32.dll
 0002:00000144       __imp__ExtTextOutA@32      00458144     gdi32:GDI32.dll
 0002:00000148       __imp__RectVisible@8       00458148     gdi32:GDI32.dll
 0002:0000014c       __imp__PtVisible@12        0045814c     gdi32:GDI32.dll
 0002:00000150       __imp__StartDocA@8         00458150     gdi32:GDI32.dll
 0002:00000154       __imp__GetPixel@12         00458154     gdi32:GDI32.dll
 0002:00000158       __imp__GetDCOrgEx@8        00458158     gdi32:GDI32.dll
 0002:0000015c       __imp__ExtSelectClipRgn@12 0045815c     gdi32:GDI32.dll
 0002:00000160       __imp__PolyBezierTo@12     00458160     gdi32:GDI32.dll
 0002:00000164       __imp__CreateBitmap@20     00458164     gdi32:GDI32.dll
 0002:00000168       __imp__CreateDCA@16        00458168     gdi32:GDI32.dll
 0002:0000016c       __imp__CopyMetaFileA@8     0045816c     gdi32:GDI32.dll
 0002:00000170       __imp__ExtCreatePen@20     00458170     gdi32:GDI32.dll
 0002:00000174       __imp__GetDeviceCaps@8     00458174     gdi32:GDI32.dll
 0002:00000178       __imp__BitBlt@36           00458178     gdi32:GDI32.dll
 0002:0000017c       __imp__GetWindowExtEx@8    0045817c     gdi32:GDI32.dll
 0002:00000180       __imp__PolylineTo@12       00458180     gdi32:GDI32.dll
 0002:00000184       \177GDI32_NULL_THUNK_DATA  00458184     gdi32:GDI32.dll
 0002:00000188       __imp__GetFileAttributesA@4 00458188     kernel32:KERNEL32.dll
 0002:0000018c       __imp__CreateFileA@28      0045818c     kernel32:KERNEL32.dll
 0002:00000190       __imp__lstrcpynA@12        00458190     kernel32:KERNEL32.dll
 0002:00000194       __imp__GetFullPathNameA@16 00458194     kernel32:KERNEL32.dll
 0002:00000198       __imp__OutputDebugStringA@4 00458198     kernel32:KERNEL32.dll
 0002:0000019c       __imp__GetLocalTime@4      0045819c     kernel32:KERNEL32.dll
 0002:000001a0       __imp__IsDBCSLeadByte@4    004581a0     kernel32:KERNEL32.dll
 0002:000001a4       __imp__lstrcatA@8          004581a4     kernel32:KERNEL32.dll
 0002:000001a8       __imp__LoadLibraryA@4      004581a8     kernel32:KERNEL32.dll
 0002:000001ac       __imp__GetProcAddress@8    004581ac     kernel32:KERNEL32.dll
 0002:000001b0       __imp__FreeLibrary@4       004581b0     kernel32:KERNEL32.dll
 0002:000001b4       __imp__QueryPerformanceFrequency@4 004581b4     kernel32:KERNEL32.dll
 0002:000001b8       __imp__QueryPerformanceCounter@4 004581b8     kernel32:KERNEL32.dll
 0002:000001bc       __imp__lstrcpyA@8          004581bc     kernel32:KERNEL32.dll
 0002:000001c0       __imp__SetErrorMode@4      004581c0     kernel32:KERNEL32.dll
 0002:000001c4       __imp__SetUnhandledExceptionFilter@4 004581c4     kernel32:KERNEL32.dll
 0002:000001c8       __imp__CreateIoCompletionPort@16 004581c8     kernel32:KERNEL32.dll
 0002:000001cc       __imp__PostQueuedCompletionStatus@16 004581cc     kernel32:KERNEL32.dll
 0002:000001d0       __imp__GetOverlappedResult@16 004581d0     kernel32:KERNEL32.dll
 0002:000001d4       __imp__GetQueuedCompletionStatus@20 004581d4     kernel32:KERNEL32.dll
 0002:000001d8       __imp__SetThreadPriority@8 004581d8     kernel32:KERNEL32.dll
 0002:000001dc       __imp__WaitForMultipleObjects@16 004581dc     kernel32:KERNEL32.dll
 0002:000001e0       __imp__InterlockedIncrement@4 004581e0     kernel32:KERNEL32.dll
 0002:000001e4       __imp__InterlockedDecrement@4 004581e4     kernel32:KERNEL32.dll
 0002:000001e8       __imp__HeapCreate@12       004581e8     kernel32:KERNEL32.dll
 0002:000001ec       __imp__GetSystemInfo@4     004581ec     kernel32:KERNEL32.dll
 0002:000001f0       __imp__HeapReAlloc@16      004581f0     kernel32:KERNEL32.dll
 0002:000001f4       __imp__HeapFree@12         004581f4     kernel32:KERNEL32.dll
 0002:000001f8       __imp__HeapAlloc@12        004581f8     kernel32:KERNEL32.dll
 0002:000001fc       __imp__HeapDestroy@4       004581fc     kernel32:KERNEL32.dll
 0002:00000200       __imp__GetTickCount@0      00458200     kernel32:KERNEL32.dll
 0002:00000204       __imp__InitializeCriticalSectionAndSpinCount@8 00458204     kernel32:KERNEL32.dll
 0002:00000208       __imp__InitializeCriticalSection@4 00458208     kernel32:KERNEL32.dll
 0002:0000020c       __imp__CreateToolhelp32Snapshot@8 0045820c     kernel32:KERNEL32.dll
 0002:00000210       __imp__Process32First@8    00458210     kernel32:KERNEL32.dll
 0002:00000214       __imp__Process32Next@8     00458214     kernel32:KERNEL32.dll
 0002:00000218       __imp__OpenProcess@12      00458218     kernel32:KERNEL32.dll
 0002:0000021c       __imp__GetExitCodeProcess@8 0045821c     kernel32:KERNEL32.dll
 0002:00000220       __imp__TerminateProcess@8  00458220     kernel32:KERNEL32.dll
 0002:00000224       __imp__GetStringTypeExW@20 00458224     kernel32:KERNEL32.dll
 0002:00000228       __imp__GetStringTypeExA@20 00458228     kernel32:KERNEL32.dll
 0002:0000022c       __imp__GetEnvironmentVariableW@12 0045822c     kernel32:KERNEL32.dll
 0002:00000230       __imp__GetEnvironmentVariableA@12 00458230     kernel32:KERNEL32.dll
 0002:00000234       __imp__CompareStringW@24   00458234     kernel32:KERNEL32.dll
 0002:00000238       __imp__CompareStringA@24   00458238     kernel32:KERNEL32.dll
 0002:0000023c       __imp__lstrlenA@4          0045823c     kernel32:KERNEL32.dll
 0002:00000240       __imp__lstrcmpiW@8         00458240     kernel32:KERNEL32.dll
 0002:00000244       __imp__lstrlenW@4          00458244     kernel32:KERNEL32.dll
 0002:00000248       __imp__lstrcmpiA@8         00458248     kernel32:KERNEL32.dll
 0002:0000024c       __imp__GetVersion@0        0045824c     kernel32:KERNEL32.dll
 0002:00000250       __imp__GetLastError@0      00458250     kernel32:KERNEL32.dll
 0002:00000254       __imp__MultiByteToWideChar@24 00458254     kernel32:KERNEL32.dll
 0002:00000258       __imp__VirtualFree@12      00458258     kernel32:KERNEL32.dll
 0002:0000025c       __imp__DeleteCriticalSection@4 0045825c     kernel32:KERNEL32.dll
 0002:00000260       __imp__WideCharToMultiByte@32 00458260     kernel32:KERNEL32.dll
 0002:00000264       __imp__FindResourceA@12    00458264     kernel32:KERNEL32.dll
 0002:00000268       __imp__LoadResource@8      00458268     kernel32:KERNEL32.dll
 0002:0000026c       __imp__LockResource@4      0045826c     kernel32:KERNEL32.dll
 0002:00000270       __imp__SizeofResource@8    00458270     kernel32:KERNEL32.dll
 0002:00000274       __imp__GetVersionExA@4     00458274     kernel32:KERNEL32.dll
 0002:00000278       __imp__GetThreadLocale@0   00458278     kernel32:KERNEL32.dll
 0002:0000027c       __imp__GetLocaleInfoA@16   0045827c     kernel32:KERNEL32.dll
 0002:00000280       __imp__LCMapStringW@24     00458280     kernel32:KERNEL32.dll
 0002:00000284       __imp__GetACP@0            00458284     kernel32:KERNEL32.dll
 0002:00000288       __imp__LocalFree@4         00458288     kernel32:KERNEL32.dll
 0002:0000028c       __imp__FormatMessageA@28   0045828c     kernel32:KERNEL32.dll
 0002:00000290       __imp__GlobalUnlock@4      00458290     kernel32:KERNEL32.dll
 0002:00000294       __imp__GlobalLock@4        00458294     kernel32:KERNEL32.dll
 0002:00000298       __imp__GlobalAlloc@8       00458298     kernel32:KERNEL32.dll
 0002:0000029c       __imp__GlobalSize@4        0045829c     kernel32:KERNEL32.dll
 0002:000002a0       __imp__MulDiv@12           004582a0     kernel32:KERNEL32.dll
 0002:000002a4       __imp__CopyFileA@12        004582a4     kernel32:KERNEL32.dll
 0002:000002a8       __imp__GlobalFree@4        004582a8     kernel32:KERNEL32.dll
 0002:000002ac       __imp__SetLastError@4      004582ac     kernel32:KERNEL32.dll
 0002:000002b0       __imp__RaiseException@16   004582b0     kernel32:KERNEL32.dll
 0002:000002b4       __imp__LocalAlloc@8        004582b4     kernel32:KERNEL32.dll
 0002:000002b8       __imp__GlobalReAlloc@12    004582b8     kernel32:KERNEL32.dll
 0002:000002bc       __imp__GlobalHandle@4      004582bc     kernel32:KERNEL32.dll
 0002:000002c0       __imp__TlsGetValue@4       004582c0     kernel32:KERNEL32.dll
 0002:000002c4       __imp__TlsAlloc@0          004582c4     kernel32:KERNEL32.dll
 0002:000002c8       __imp__TlsSetValue@8       004582c8     kernel32:KERNEL32.dll
 0002:000002cc       __imp__LocalReAlloc@12     004582cc     kernel32:KERNEL32.dll
 0002:000002d0       __imp__TlsFree@4           004582d0     kernel32:KERNEL32.dll
 0002:000002d4       __imp__FileTimeToSystemTime@8 004582d4     kernel32:KERNEL32.dll
 0002:000002d8       __imp__SystemTimeToFileTime@8 004582d8     kernel32:KERNEL32.dll
 0002:000002dc       __imp__GlobalFlags@4       004582dc     kernel32:KERNEL32.dll
 0002:000002e0       __imp__ResumeThread@4      004582e0     kernel32:KERNEL32.dll
 0002:000002e4       __imp__GetCurrentThreadId@0 004582e4     kernel32:KERNEL32.dll
 0002:000002e8       __imp__SuspendThread@4     004582e8     kernel32:KERNEL32.dll
 0002:000002ec       __imp__GetModuleHandleA@4  004582ec     kernel32:KERNEL32.dll
 0002:000002f0       __imp__lstrcmpW@8          004582f0     kernel32:KERNEL32.dll
 0002:000002f4       __imp__GlobalDeleteAtom@4  004582f4     kernel32:KERNEL32.dll
 0002:000002f8       __imp__GlobalFindAtomA@4   004582f8     kernel32:KERNEL32.dll
 0002:000002fc       __imp__GlobalAddAtomA@4    004582fc     kernel32:KERNEL32.dll
 0002:00000300       __imp__GlobalGetAtomNameA@12 00458300     kernel32:KERNEL32.dll
 0002:00000304       __imp__FreeResource@4      00458304     kernel32:KERNEL32.dll
 0002:00000308       __imp__EnumResourceLanguagesA@20 00458308     kernel32:KERNEL32.dll
 0002:0000030c       __imp__ConvertDefaultLocale@4 0045830c     kernel32:KERNEL32.dll
 0002:00000310       __imp__GetCurrentThread@0  00458310     kernel32:KERNEL32.dll
 0002:00000314       __imp__GetCPInfo@8         00458314     kernel32:KERNEL32.dll
 0002:00000318       __imp__GetOEMCP@0          00458318     kernel32:KERNEL32.dll
 0002:0000031c       __imp__GetPrivateProfileIntA@16 0045831c     kernel32:KERNEL32.dll
 0002:00000320       __imp__WritePrivateProfileStringA@16 00458320     kernel32:KERNEL32.dll
 0002:00000324       __imp__GetPrivateProfileStringA@24 00458324     kernel32:KERNEL32.dll
 0002:00000328       __imp__GetCurrentDirectoryA@8 00458328     kernel32:KERNEL32.dll
 0002:0000032c       __imp__MoveFileA@8         0045832c     kernel32:KERNEL32.dll
 0002:00000330       __imp__DeleteFileA@4       00458330     kernel32:KERNEL32.dll
 0002:00000334       __imp__ReadFile@20         00458334     kernel32:KERNEL32.dll
 0002:00000338       __imp__WriteFile@20        00458338     kernel32:KERNEL32.dll
 0002:0000033c       __imp__SetFilePointer@16   0045833c     kernel32:KERNEL32.dll
 0002:00000340       __imp__FlushFileBuffers@4  00458340     kernel32:KERNEL32.dll
 0002:00000344       __imp__LockFile@20         00458344     kernel32:KERNEL32.dll
 0002:00000348       __imp__UnlockFile@20       00458348     kernel32:KERNEL32.dll
 0002:0000034c       __imp__SetEndOfFile@4      0045834c     kernel32:KERNEL32.dll
 0002:00000350       __imp__GetFileSize@8       00458350     kernel32:KERNEL32.dll
 0002:00000354       __imp__DuplicateHandle@28  00458354     kernel32:KERNEL32.dll
 0002:00000358       __imp__GetCurrentProcess@0 00458358     kernel32:KERNEL32.dll
 0002:0000035c       __imp__FindClose@4         0045835c     kernel32:KERNEL32.dll
 0002:00000360       __imp__FindFirstFileA@8    00458360     kernel32:KERNEL32.dll
 0002:00000364       __imp__GetVolumeInformationA@32 00458364     kernel32:KERNEL32.dll
 0002:00000368       __imp__GetShortPathNameA@12 00458368     kernel32:KERNEL32.dll
 0002:0000036c       __imp__FileTimeToLocalFileTime@8 0045836c     kernel32:KERNEL32.dll
 0002:00000370       __imp__LocalFileTimeToFileTime@8 00458370     kernel32:KERNEL32.dll
 0002:00000374       __imp__SetFileTime@16      00458374     kernel32:KERNEL32.dll
 0002:00000378       __imp__SetFileAttributesA@8 00458378     kernel32:KERNEL32.dll
 0002:0000037c       __imp__GetFileTime@16      0045837c     kernel32:KERNEL32.dll
 0002:00000380       __imp__RtlUnwind@16        00458380     kernel32:KERNEL32.dll
 0002:00000384       __imp__ExitProcess@4       00458384     kernel32:KERNEL32.dll
 0002:00000388       __imp__GetSystemTimeAsFileTime@4 00458388     kernel32:KERNEL32.dll
 0002:0000038c       __imp__GetTimeFormatA@24   0045838c     kernel32:KERNEL32.dll
 0002:00000390       __imp__GetDateFormatA@24   00458390     kernel32:KERNEL32.dll
 0002:00000394       __imp__VirtualProtect@16   00458394     kernel32:KERNEL32.dll
 0002:00000398       __imp__VirtualQuery@12     00458398     kernel32:KERNEL32.dll
 0002:0000039c       __imp__ExitThread@4        0045839c     kernel32:KERNEL32.dll
 0002:000003a0       __imp__CreateThread@24     004583a0     kernel32:KERNEL32.dll
 0002:000003a4       __imp__FindNextFileA@8     004583a4     kernel32:KERNEL32.dll
 0002:000003a8       __imp__GetStartupInfoA@4   004583a8     kernel32:KERNEL32.dll
 0002:000003ac       __imp__GetCommandLineA@0   004583ac     kernel32:KERNEL32.dll
 0002:000003b0       __imp__HeapSize@12         004583b0     kernel32:KERNEL32.dll
 0002:000003b4       __imp__GetCurrentProcessId@0 004583b4     kernel32:KERNEL32.dll
 0002:000003b8       __imp__FatalAppExitA@8     004583b8     kernel32:KERNEL32.dll
 0002:000003bc       __imp__GetTimeZoneInformation@4 004583bc     kernel32:KERNEL32.dll
 0002:000003c0       __imp__IsBadWritePtr@8     004583c0     kernel32:KERNEL32.dll
 0002:000003c4       __imp__LCMapStringA@24     004583c4     kernel32:KERNEL32.dll
 0002:000003c8       __imp__InterlockedExchange@8 004583c8     kernel32:KERNEL32.dll
 0002:000003cc       __imp__UnhandledExceptionFilter@4 004583cc     kernel32:KERNEL32.dll
 0002:000003d0       __imp__GetStringTypeA@20   004583d0     kernel32:KERNEL32.dll
 0002:000003d4       __imp__GetStringTypeW@16   004583d4     kernel32:KERNEL32.dll
 0002:000003d8       __imp__SetHandleCount@4    004583d8     kernel32:KERNEL32.dll
 0002:000003dc       __imp__GetStdHandle@4      004583dc     kernel32:KERNEL32.dll
 0002:000003e0       __imp__GetFileType@4       004583e0     kernel32:KERNEL32.dll
 0002:000003e4       __imp__SetStdHandle@8      004583e4     kernel32:KERNEL32.dll
 0002:000003e8       __imp__FreeEnvironmentStringsA@4 004583e8     kernel32:KERNEL32.dll
 0002:000003ec       __imp__GetEnvironmentStrings@0 004583ec     kernel32:KERNEL32.dll
 0002:000003f0       __imp__FreeEnvironmentStringsW@4 004583f0     kernel32:KERNEL32.dll
 0002:000003f4       __imp__GetEnvironmentStringsW@0 004583f4     kernel32:KERNEL32.dll
 0002:000003f8       __imp__IsBadReadPtr@8      004583f8     kernel32:KERNEL32.dll
 0002:000003fc       __imp__IsBadCodePtr@4      004583fc     kernel32:KERNEL32.dll
 0002:00000400       __imp__GetUserDefaultLCID@0 00458400     kernel32:KERNEL32.dll
 0002:00000404       __imp__EnumSystemLocalesA@8 00458404     kernel32:KERNEL32.dll
 0002:00000408       __imp__IsValidLocale@8     00458408     kernel32:KERNEL32.dll
 0002:0000040c       __imp__IsValidCodePage@4   0045840c     kernel32:KERNEL32.dll
 0002:00000410       __imp__SetConsoleCtrlHandler@8 00458410     kernel32:KERNEL32.dll
 0002:00000414       __imp__GetLocaleInfoW@16   00458414     kernel32:KERNEL32.dll
 0002:00000418       __imp__SetEnvironmentVariableA@8 00458418     kernel32:KERNEL32.dll
 0002:0000041c       __imp__VirtualAlloc@16     0045841c     kernel32:KERNEL32.dll
 0002:00000420       __imp__lstrcmpA@8          00458420     kernel32:KERNEL32.dll
 0002:00000424       __imp__SetEvent@4          00458424     kernel32:KERNEL32.dll
 0002:00000428       __imp__LeaveCriticalSection@4 00458428     kernel32:KERNEL32.dll
 0002:0000042c       __imp__EnterCriticalSection@4 0045842c     kernel32:KERNEL32.dll
 0002:00000430       __imp__CreateEventA@16     00458430     kernel32:KERNEL32.dll
 0002:00000434       __imp__WaitForSingleObject@8 00458434     kernel32:KERNEL32.dll
 0002:00000438       __imp__CloseHandle@4       00458438     kernel32:KERNEL32.dll
 0002:0000043c       __imp__GlobalMemoryStatus@4 0045843c     kernel32:KERNEL32.dll
 0002:00000440       __imp__FileTimeToDosDateTime@12 00458440     kernel32:KERNEL32.dll
 0002:00000444       __imp__GetModuleFileNameA@12 00458444     kernel32:KERNEL32.dll
 0002:00000448       \177KERNEL32_NULL_THUNK_DATA 00458448     kernel32:KERNEL32.dll
 0002:0000044c       __imp__GetFirstStackTraceString@8 0045844c     neuzd:NeuzD.dll
 0002:00000450       __imp__GetRegisterString@4 00458450     neuzd:NeuzD.dll
 0002:00000454       __imp__GetFaultReason@4    00458454     neuzd:NeuzD.dll
 0002:00000458       __imp__GetNextStackTraceString@8 00458458     neuzd:NeuzD.dll
 0002:0000045c       \177NeuzD_NULL_THUNK_DATA  0045845c     neuzd:NeuzD.dll
 0002:00000460       __imp__AccessibleObjectFromWindow@16 00458460     oleacc:OLEACC.dll
 0002:00000464       __imp__LresultFromObject@12 00458464     oleacc:OLEACC.dll
 0002:00000468       __imp__CreateStdAccessibleObject@16 00458468     oleacc:OLEACC.dll
 0002:0000046c       \177OLEACC_NULL_THUNK_DATA 0045846c     oleacc:OLEACC.dll
 0002:00000470       __imp__VariantChangeType@16 00458470     oleaut32:OLEAUT32.dll
 0002:00000474       __imp__SafeArrayRedim@8    00458474     oleaut32:OLEAUT32.dll
 0002:00000478       __imp__VariantClear@4      00458478     oleaut32:OLEAUT32.dll
 0002:0000047c       __imp__SafeArrayCreate@12  0045847c     oleaut32:OLEAUT32.dll
 0002:00000480       __imp__SafeArrayGetDim@4   00458480     oleaut32:OLEAUT32.dll
 0002:00000484       __imp__SafeArrayGetElemsize@4 00458484     oleaut32:OLEAUT32.dll
 0002:00000488       __imp__SafeArrayGetLBound@12 00458488     oleaut32:OLEAUT32.dll
 0002:0000048c       __imp__SafeArrayGetUBound@12 0045848c     oleaut32:OLEAUT32.dll
 0002:00000490       __imp__SafeArrayAccessData@8 00458490     oleaut32:OLEAUT32.dll
 0002:00000494       __imp__SafeArrayUnaccessData@4 00458494     oleaut32:OLEAUT32.dll
 0002:00000498       __imp__VariantCopy@8       00458498     oleaut32:OLEAUT32.dll
 0002:0000049c       __imp__SafeArrayAllocData@4 0045849c     oleaut32:OLEAUT32.dll
 0002:000004a0       __imp__SafeArrayAllocDescriptor@8 004584a0     oleaut32:OLEAUT32.dll
 0002:000004a4       __imp__SafeArrayCopy@8     004584a4     oleaut32:OLEAUT32.dll
 0002:000004a8       __imp__SafeArrayGetElement@12 004584a8     oleaut32:OLEAUT32.dll
 0002:000004ac       __imp__SafeArrayPtrOfIndex@12 004584ac     oleaut32:OLEAUT32.dll
 0002:000004b0       __imp__SafeArrayPutElement@12 004584b0     oleaut32:OLEAUT32.dll
 0002:000004b4       __imp__SafeArrayLock@4     004584b4     oleaut32:OLEAUT32.dll
 0002:000004b8       __imp__SafeArrayUnlock@4   004584b8     oleaut32:OLEAUT32.dll
 0002:000004bc       __imp__SafeArrayDestroy@4  004584bc     oleaut32:OLEAUT32.dll
 0002:000004c0       __imp__SafeArrayDestroyData@4 004584c0     oleaut32:OLEAUT32.dll
 0002:000004c4       __imp__SafeArrayDestroyDescriptor@4 004584c4     oleaut32:OLEAUT32.dll
 0002:000004c8       __imp__SysAllocStringLen@8 004584c8     oleaut32:OLEAUT32.dll
 0002:000004cc       __imp__VariantTimeToSystemTime@12 004584cc     oleaut32:OLEAUT32.dll
 0002:000004d0       __imp__SystemTimeToVariantTime@8 004584d0     oleaut32:OLEAUT32.dll
 0002:000004d4       __imp__SysAllocString@4    004584d4     oleaut32:OLEAUT32.dll
 0002:000004d8       __imp__SysReAllocStringLen@12 004584d8     oleaut32:OLEAUT32.dll
 0002:000004dc       __imp__VarDateFromStr@16   004584dc     oleaut32:OLEAUT32.dll
 0002:000004e0       __imp__VarBstrFromDec@16   004584e0     oleaut32:OLEAUT32.dll
 0002:000004e4       __imp__VarDecFromStr@16    004584e4     oleaut32:OLEAUT32.dll
 0002:000004e8       __imp__VarCyFromStr@16     004584e8     oleaut32:OLEAUT32.dll
 0002:000004ec       __imp__VarBstrFromCy@20    004584ec     oleaut32:OLEAUT32.dll
 0002:000004f0       __imp__VarBstrFromDate@20  004584f0     oleaut32:OLEAUT32.dll
 0002:000004f4       __imp__VariantInit@4       004584f4     oleaut32:OLEAUT32.dll
 0002:000004f8       __imp__SysStringByteLen@4  004584f8     oleaut32:OLEAUT32.dll
 0002:000004fc       __imp__SysAllocStringByteLen@8 004584fc     oleaut32:OLEAUT32.dll
 0002:00000500       __imp__SysStringLen@4      00458500     oleaut32:OLEAUT32.dll
 0002:00000504       __imp__SysFreeString@4     00458504     oleaut32:OLEAUT32.dll
 0002:00000508       \177OLEAUT32_NULL_THUNK_DATA 00458508     oleaut32:OLEAUT32.dll
 0002:0000050c       __imp__SHGetFileInfoA@20   0045850c     shell32:SHELL32.dll
 0002:00000510       __imp__ExtractIconA@12     00458510     shell32:SHELL32.dll
 0002:00000514       \177SHELL32_NULL_THUNK_DATA 00458514     shell32:SHELL32.dll
 0002:00000518       __imp__PathFindExtensionA@4 00458518     shlwapi:SHLWAPI.dll
 0002:0000051c       __imp__PathFindFileNameA@4 0045851c     shlwapi:SHLWAPI.dll
 0002:00000520       __imp__PathStripToRootA@4  00458520     shlwapi:SHLWAPI.dll
 0002:00000524       __imp__PathIsUNCA@4        00458524     shlwapi:SHLWAPI.dll
 0002:00000528       __imp__PathRemoveExtensionA@4 00458528     shlwapi:SHLWAPI.dll
 0002:0000052c       \177SHLWAPI_NULL_THUNK_DATA 0045852c     shlwapi:SHLWAPI.dll
 0002:00000530       __imp__OffsetRect@12       00458530     user32:USER32.dll
 0002:00000534       __imp__CallWindowProcA@20  00458534     user32:USER32.dll
 0002:00000538       __imp__SetWindowPlacement@8 00458538     user32:USER32.dll
 0002:0000053c       __imp__RegisterClassA@4    0045853c     user32:USER32.dll
 0002:00000540       __imp__GetClassInfoA@12    00458540     user32:USER32.dll
 0002:00000544       __imp__SetScrollInfo@16    00458544     user32:USER32.dll
 0002:00000548       __imp__GetScrollInfo@12    00458548     user32:USER32.dll
 0002:0000054c       __imp__DeferWindowPos@32   0045854c     user32:USER32.dll
 0002:00000550       __imp__EqualRect@8         00458550     user32:USER32.dll
 0002:00000554       __imp__ScreenToClient@8    00458554     user32:USER32.dll
 0002:00000558       __imp__AdjustWindowRectEx@16 00458558     user32:USER32.dll
 0002:0000055c       __imp__PostMessageA@16     0045855c     user32:USER32.dll
 0002:00000560       __imp__GetMenu@4           00458560     user32:USER32.dll
 0002:00000564       __imp__GetClientRect@8     00458564     user32:USER32.dll
 0002:00000568       __imp__ShowScrollBar@12    00458568     user32:USER32.dll
 0002:0000056c       __imp__SetForegroundWindow@4 0045856c     user32:USER32.dll
 0002:00000570       __imp__GetScrollRange@16   00458570     user32:USER32.dll
 0002:00000574       __imp__SetScrollRange@20   00458574     user32:USER32.dll
 0002:00000578       __imp__TrackPopupMenu@28   00458578     user32:USER32.dll
 0002:0000057c       __imp__TrackPopupMenuEx@24 0045857c     user32:USER32.dll
 0002:00000580       __imp__ScrollWindow@20     00458580     user32:USER32.dll
 0002:00000584       __imp__MapWindowPoints@16  00458584     user32:USER32.dll
 0002:00000588       __imp__GetMessagePos@0     00458588     user32:USER32.dll
 0002:0000058c       __imp__GetMessageTime@0    0045858c     user32:USER32.dll
 0002:00000590       __imp__GetTopWindow@4      00458590     user32:USER32.dll
 0002:00000594       __imp__EndDeferWindowPos@4 00458594     user32:USER32.dll
 0002:00000598       __imp__BeginDeferWindowPos@4 00458598     user32:USER32.dll
 0002:0000059c       __imp__SetActiveWindow@4   0045859c     user32:USER32.dll
 0002:000005a0       __imp__GetForegroundWindow@0 004585a0     user32:USER32.dll
 0002:000005a4       __imp__IsChild@8           004585a4     user32:USER32.dll
 0002:000005a8       __imp__IsWindow@4          004585a8     user32:USER32.dll
 0002:000005ac       __imp__RemovePropA@8       004585ac     user32:USER32.dll
 0002:000005b0       __imp__GetPropA@8          004585b0     user32:USER32.dll
 0002:000005b4       __imp__SetPropA@12         004585b4     user32:USER32.dll
 0002:000005b8       __imp__GetClassInfoExA@12  004585b8     user32:USER32.dll
 0002:000005bc       __imp__GetClassLongA@8     004585bc     user32:USER32.dll
 0002:000005c0       __imp__GetCapture@0        004585c0     user32:USER32.dll
 0002:000005c4       __imp__WinHelpA@16         004585c4     user32:USER32.dll
 0002:000005c8       __imp__RegisterWindowMessageA@4 004585c8     user32:USER32.dll
 0002:000005cc       __imp__FillRect@12         004585cc     user32:USER32.dll
 0002:000005d0       __imp__TabbedTextOutA@32   004585d0     user32:USER32.dll
 0002:000005d4       __imp__DrawTextA@20        004585d4     user32:USER32.dll
 0002:000005d8       __imp__DrawTextExA@24      004585d8     user32:USER32.dll
 0002:000005dc       __imp__GrayStringA@36      004585dc     user32:USER32.dll
 0002:000005e0       __imp__GetWindowDC@4       004585e0     user32:USER32.dll
 0002:000005e4       __imp__InflateRect@12      004585e4     user32:USER32.dll
 0002:000005e8       __imp__GetMenuItemInfoA@16 004585e8     user32:USER32.dll
 0002:000005ec       __imp__DestroyMenu@4       004585ec     user32:USER32.dll
 0002:000005f0       __imp__SetCursor@4         004585f0     user32:USER32.dll
 0002:000005f4       __imp__ShowOwnedPopups@8   004585f4     user32:USER32.dll
 0002:000005f8       __imp__DeleteMenu@12       004585f8     user32:USER32.dll
 0002:000005fc       __imp__DestroyIcon@4       004585fc     user32:USER32.dll
 0002:00000600       __imp__EndDialog@8         00458600     user32:USER32.dll
 0002:00000604       __imp__GetNextDlgTabItem@12 00458604     user32:USER32.dll
 0002:00000608       __imp__CreateDialogIndirectParamA@20 00458608     user32:USER32.dll
 0002:0000060c       __imp__GetDialogBaseUnits@0 0045860c     user32:USER32.dll
 0002:00000610       __imp__GetMenuCheckMarkDimensions@0 00458610     user32:USER32.dll
 0002:00000614       __imp__IntersectRect@12    00458614     user32:USER32.dll
 0002:00000618       __imp__ScrollWindowEx@32   00458618     user32:USER32.dll
 0002:0000061c       __imp__MoveWindow@24       0045861c     user32:USER32.dll
 0002:00000620       __imp__SetWindowLongA@12   00458620     user32:USER32.dll
 0002:00000624       __imp__IsDialogMessageA@8  00458624     user32:USER32.dll
 0002:00000628       __imp__IsDlgButtonChecked@8 00458628     user32:USER32.dll
 0002:0000062c       __imp__SetDlgItemTextA@12  0045862c     user32:USER32.dll
 0002:00000630       __imp__SetDlgItemInt@16    00458630     user32:USER32.dll
 0002:00000634       __imp__SendDlgItemMessageA@20 00458634     user32:USER32.dll
 0002:00000638       __imp__GetDlgItemTextA@16  00458638     user32:USER32.dll
 0002:0000063c       __imp__GetDlgItemInt@16    0045863c     user32:USER32.dll
 0002:00000640       __imp__GetDlgItem@8        00458640     user32:USER32.dll
 0002:00000644       __imp__ModifyMenuA@20      00458644     user32:USER32.dll
 0002:00000648       __imp__CheckDlgButton@12   00458648     user32:USER32.dll
 0002:0000064c       __imp__wsprintfA           0045864c     user32:USER32.dll
 0002:00000650       __imp__GetScrollPos@8      00458650     user32:USER32.dll
 0002:00000654       __imp__SetScrollPos@16     00458654     user32:USER32.dll
 0002:00000658       __imp__SetFocus@4          00458658     user32:USER32.dll
 0002:0000065c       __imp__SetWindowsHookExA@16 0045865c     user32:USER32.dll
 0002:00000660       __imp__CallNextHookEx@16   00458660     user32:USER32.dll
 0002:00000664       __imp__GetActiveWindow@0   00458664     user32:USER32.dll
 0002:00000668       __imp__IsWindowVisible@4   00458668     user32:USER32.dll
 0002:0000066c       __imp__GetKeyState@4       0045866c     user32:USER32.dll
 0002:00000670       __imp__PeekMessageA@20     00458670     user32:USER32.dll
 0002:00000674       __imp__GetCursorPos@4      00458674     user32:USER32.dll
 0002:00000678       __imp__ValidateRect@8      00458678     user32:USER32.dll
 0002:0000067c       __imp__ClientToScreen@8    0045867c     user32:USER32.dll
 0002:00000680       __imp__GetWindow@8         00458680     user32:USER32.dll
 0002:00000684       __imp__GetDlgCtrlID@4      00458684     user32:USER32.dll
 0002:00000688       __imp__GetWindowRect@8     00458688     user32:USER32.dll
 0002:0000068c       __imp__PtInRect@12         0045868c     user32:USER32.dll
 0002:00000690       __imp__GetFocus@0          00458690     user32:USER32.dll
 0002:00000694       __imp__GetDesktopWindow@0  00458694     user32:USER32.dll
 0002:00000698       __imp__SetWindowTextA@8    00458698     user32:USER32.dll
 0002:0000069c       __imp__GetClassNameA@12    0045869c     user32:USER32.dll
 0002:000006a0       __imp__GetWindowTextLengthA@4 004586a0     user32:USER32.dll
 0002:000006a4       __imp__GetWindowTextA@12   004586a4     user32:USER32.dll
 0002:000006a8       __imp__SendMessageA@16     004586a8     user32:USER32.dll
 0002:000006ac       __imp__GetParent@4         004586ac     user32:USER32.dll
 0002:000006b0       __imp__GetWindowLongA@8    004586b0     user32:USER32.dll
 0002:000006b4       __imp__GetLastActivePopup@4 004586b4     user32:USER32.dll
 0002:000006b8       __imp__IsWindowEnabled@4   004586b8     user32:USER32.dll
 0002:000006bc       __imp__EnableWindow@8      004586bc     user32:USER32.dll
 0002:000006c0       __imp__UnhookWindowsHookEx@4 004586c0     user32:USER32.dll
 0002:000006c4       __imp__GetSystemMetrics@4  004586c4     user32:USER32.dll
 0002:000006c8       __imp__GetDC@4             004586c8     user32:USER32.dll
 0002:000006cc       __imp__ReleaseDC@8         004586cc     user32:USER32.dll
 0002:000006d0       __imp__GetSysColor@4       004586d0     user32:USER32.dll
 0002:000006d4       __imp__LoadStringA@16      004586d4     user32:USER32.dll
 0002:000006d8       __imp__UnregisterClassA@8  004586d8     user32:USER32.dll
 0002:000006dc       __imp__GetMenuState@12     004586dc     user32:USER32.dll
 0002:000006e0       __imp__GetMenuStringA@20   004586e0     user32:USER32.dll
 0002:000006e4       __imp__AppendMenuA@16      004586e4     user32:USER32.dll
 0002:000006e8       __imp__GetMenuItemID@8     004586e8     user32:USER32.dll
 0002:000006ec       __imp__InsertMenuA@20      004586ec     user32:USER32.dll
 0002:000006f0       __imp__GetMenuItemCount@4  004586f0     user32:USER32.dll
 0002:000006f4       __imp__GetSubMenu@8        004586f4     user32:USER32.dll
 0002:000006f8       __imp__RemoveMenu@12       004586f8     user32:USER32.dll
 0002:000006fc       __imp__SystemParametersInfoA@16 004586fc     user32:USER32.dll
 0002:00000700       __imp__IsIconic@4          00458700     user32:USER32.dll
 0002:00000704       __imp__GetWindowPlacement@8 00458704     user32:USER32.dll
 0002:00000708       __imp__CopyRect@8          00458708     user32:USER32.dll
 0002:0000070c       __imp__LoadBitmapA@8       0045870c     user32:USER32.dll
 0002:00000710       __imp__SetMenuItemBitmaps@20 00458710     user32:USER32.dll
 0002:00000714       __imp__CharNextExA@12      00458714     user32:USER32.dll
 0002:00000718       __imp__CharNextA@4         00458718     user32:USER32.dll
 0002:0000071c       __imp__InvalidateRect@12   0045871c     user32:USER32.dll
 0002:00000720       __imp__CharUpperW@4        00458720     user32:USER32.dll
 0002:00000724       __imp__CharUpperA@4        00458724     user32:USER32.dll
 0002:00000728       __imp__CharLowerW@4        00458728     user32:USER32.dll
 0002:0000072c       __imp__CharLowerA@4        0045872c     user32:USER32.dll
 0002:00000730       __imp__GetMessageA@16      00458730     user32:USER32.dll
 0002:00000734       __imp__TranslateMessage@4  00458734     user32:USER32.dll
 0002:00000738       __imp__DispatchMessageA@4  00458738     user32:USER32.dll
 0002:0000073c       __imp__CreateWindowExA@48  0045873c     user32:USER32.dll
 0002:00000740       __imp__SetTimer@16         00458740     user32:USER32.dll
 0002:00000744       __imp__SetWindowPos@28     00458744     user32:USER32.dll
 0002:00000748       __imp__ShowWindow@8        00458748     user32:USER32.dll
 0002:0000074c       __imp__UpdateWindow@4      0045874c     user32:USER32.dll
 0002:00000750       __imp__MessageBoxA@16      00458750     user32:USER32.dll
 0002:00000754       __imp__LoadIconA@8         00458754     user32:USER32.dll
 0002:00000758       __imp__LoadCursorA@8       00458758     user32:USER32.dll
 0002:0000075c       __imp__RegisterClassExA@4  0045875c     user32:USER32.dll
 0002:00000760       __imp__BeginPaint@8        00458760     user32:USER32.dll
 0002:00000764       __imp__EndPaint@8          00458764     user32:USER32.dll
 0002:00000768       __imp__KillTimer@8         00458768     user32:USER32.dll
 0002:0000076c       __imp__PostQuitMessage@4   0045876c     user32:USER32.dll
 0002:00000770       __imp__DefWindowProcA@16   00458770     user32:USER32.dll
 0002:00000774       __imp__EnableMenuItem@12   00458774     user32:USER32.dll
 0002:00000778       __imp__CheckRadioButton@16 00458778     user32:USER32.dll
 0002:0000077c       __imp__CheckMenuItem@12    0045877c     user32:USER32.dll
 0002:00000780       __imp__DestroyWindow@4     00458780     user32:USER32.dll
 0002:00000784       __imp__GetSysColorBrush@4  00458784     user32:USER32.dll
 0002:00000788       \177USER32_NULL_THUNK_DATA 00458788     user32:USER32.dll
 0002:0000078c       __imp__GetFileVersionInfoA@16 0045878c     Version:VERSION.dll
 0002:00000790       __imp__GetFileVersionInfoSizeA@8 00458790     Version:VERSION.dll
 0002:00000794       __imp__VerQueryValueA@16   00458794     Version:VERSION.dll
 0002:00000798       \177VERSION_NULL_THUNK_DATA 00458798     Version:VERSION.dll
 0002:0000079c       __imp__timeGetTime@0       0045879c     winmm:WINMM.dll
 0002:000007a0       \177WINMM_NULL_THUNK_DATA  004587a0     winmm:WINMM.dll
 0002:000007a4       __imp__ClosePrinter@4      004587a4     winspool:WINSPOOL.DRV
 0002:000007a8       __imp__OpenPrinterA@12     004587a8     winspool:WINSPOOL.DRV
 0002:000007ac       __imp__DocumentPropertiesA@24 004587ac     winspool:WINSPOOL.DRV
 0002:000007b0       \177WINSPOOL_NULL_THUNK_DATA 004587b0     winspool:WINSPOOL.DRV
 0002:000007b4       __imp__connect@12          004587b4     ws2_32:WS2_32.dll
 0002:000007b8       __imp__gethostbyname@4     004587b8     ws2_32:WS2_32.dll
 0002:000007bc       __imp__inet_addr@4         004587bc     ws2_32:WS2_32.dll
 0002:000007c0       __imp__WSARecv@28          004587c0     ws2_32:WS2_32.dll
 0002:000007c4       __imp__getpeername@12      004587c4     ws2_32:WS2_32.dll
 0002:000007c8       __imp__WSASend@28          004587c8     ws2_32:WS2_32.dll
 0002:000007cc       __imp__WSACloseEvent@4     004587cc     ws2_32:WS2_32.dll
 0002:000007d0       __imp__WSAGetLastError@0   004587d0     ws2_32:WS2_32.dll
 0002:000007d4       __imp__WSAStartup@8        004587d4     ws2_32:WS2_32.dll
 0002:000007d8       __imp__socket@12           004587d8     ws2_32:WS2_32.dll
 0002:000007dc       __imp__WSACleanup@0        004587dc     ws2_32:WS2_32.dll
 0002:000007e0       __imp__WSAResetEvent@4     004587e0     ws2_32:WS2_32.dll
 0002:000007e4       __imp__WSAWaitForMultipleEvents@20 004587e4     ws2_32:WS2_32.dll
 0002:000007e8       __imp__WSASetEvent@4       004587e8     ws2_32:WS2_32.dll
 0002:000007ec       __imp__setsockopt@20       004587ec     ws2_32:WS2_32.dll
 0002:000007f0       __imp__listen@8            004587f0     ws2_32:WS2_32.dll
 0002:000007f4       __imp__WSASetLastError@4   004587f4     ws2_32:WS2_32.dll
 0002:000007f8       __imp__shutdown@8          004587f8     ws2_32:WS2_32.dll
 0002:000007fc       __imp__htons@4             004587fc     ws2_32:WS2_32.dll
 0002:00000800       __imp__closesocket@4       00458800     ws2_32:WS2_32.dll
 0002:00000804       __imp__WSACreateEvent@0    00458804     ws2_32:WS2_32.dll
 0002:00000808       __imp__htonl@4             00458808     ws2_32:WS2_32.dll
 0002:0000080c       __imp__WSASocketA@24       0045880c     ws2_32:WS2_32.dll
 0002:00000810       __imp__ntohs@4             00458810     ws2_32:WS2_32.dll
 0002:00000814       __imp__bind@12             00458814     ws2_32:WS2_32.dll
 0002:00000818       __imp__gethostname@8       00458818     ws2_32:WS2_32.dll
 0002:0000081c       __imp__WSAEnumNetworkEvents@12 0045881c     ws2_32:WS2_32.dll
 0002:00000820       __imp__WSAAccept@20        00458820     ws2_32:WS2_32.dll
 0002:00000824       __imp__WSAEventSelect@12   00458824     ws2_32:WS2_32.dll
 0002:00000828       \177WS2_32_NULL_THUNK_DATA 00458828     ws2_32:WS2_32.dll
 0002:0000082c       __imp__GetSaveFileNameA@4  0045882c     comdlg32:comdlg32.dll
 0002:00000830       __imp__GetOpenFileNameA@4  00458830     comdlg32:comdlg32.dll
 0002:00000834       __imp__GetFileTitleA@12    00458834     comdlg32:comdlg32.dll
 0002:00000838       \177comdlg32_NULL_THUNK_DATA 00458838     comdlg32:comdlg32.dll
 0002:0000083c       __imp___CorExeMain@0       0045883c     MSCOREE:mscoree.dll
 0002:00000840       \177mscoree_NULL_THUNK_DATA 00458840     MSCOREE:mscoree.dll
 0002:00000844       __imp__WriteFmtUserTypeStg@12 00458844     ole32:ole32.dll
 0002:00000848       __imp__WriteClassStg@8     00458848     ole32:ole32.dll
 0002:0000084c       __imp__SetConvertStg@8     0045884c     ole32:ole32.dll
 0002:00000850       __imp__ReadFmtUserTypeStg@12 00458850     ole32:ole32.dll
 0002:00000854       __imp__CLSIDFromString@8   00458854     ole32:ole32.dll
 0002:00000858       __imp__StringFromGUID2@12  00458858     ole32:ole32.dll
 0002:0000085c       __imp__CoCreateInstance@20 0045885c     ole32:ole32.dll
 0002:00000860       __imp__CoDisconnectObject@8 00458860     ole32:ole32.dll
 0002:00000864       __imp__CoTaskMemFree@4     00458864     ole32:ole32.dll
 0002:00000868       __imp__OleRegGetUserType@12 00458868     ole32:ole32.dll
 0002:0000086c       __imp__OleDuplicateData@12 0045886c     ole32:ole32.dll
 0002:00000870       __imp__ReleaseStgMedium@4  00458870     ole32:ole32.dll
 0002:00000874       __imp__CoTaskMemAlloc@4    00458874     ole32:ole32.dll
 0002:00000878       __imp__CreateBindCtx@8     00458878     ole32:ole32.dll
 0002:0000087c       __imp__CoTreatAsClass@8    0045887c     ole32:ole32.dll
 0002:00000880       __imp__StringFromCLSID@8   00458880     ole32:ole32.dll
 0002:00000884       __imp__ReadClassStg@8      00458884     ole32:ole32.dll
 0002:00000888       \177ole32_NULL_THUNK_DATA  00458888     ole32:ole32.dll
 0002:000008ac       ??_C@_0CD@NGNCLFOM@OnPreJoin?$CI?$CJ?3?5Account?5not?5found?0?5@ 004588ac     DPCoreClient.obj
 0002:000008d0       ??_C@_0CB@EPDCDME@OnPreJoin?$CI?$CJ?3?5Different?5dwAuthKey@ 004588d0     DPCoreClient.obj
 0002:000008f4       ??_C@_0CC@LGEPHNDG@OnPreJoin?$CI?$CJ?3?5recv?50?5from?5CORE?0?5?$CF@ 004588f4     DPCoreClient.obj
 0002:00000918       ??_C@_0DB@GAJMHFJD@OnQueryRemovePlayer?$CI?$CJ?3?5lpszAccou@ 00458918     DPCoreClient.obj
 0002:0000094c       ??_C@_0BE@JONHPENG@map?1set?$DMT?$DO?5too?5long?$AA@ 0045894c     DPCoreClient.obj
 0002:00000960       ??_C@_0BM@PAPJHAGI@invalid?5map?1set?$DMT?$DO?5iterator?$AA@ 00458960     DPCoreClient.obj
 0002:0000097c       ??_7CDPCoreClient@@6B@     0045897c     DPCoreClient.obj
 0002:00000988       ??_C@_0CP@EJPIBADA@OnCloseExistingConnection?$CI?$CJ?3?5pUs@ 00458988     DPDatabaseClient.obj
 0002:000009b8       ??_C@_0BM@IONLNHFK@OnFail?$CI?$CJ?3?5pUser?5is?5NULL?0?5?$CFs?$AA@ 004589b8     DPDatabaseClient.obj
 0002:000009d4       ??_C@_0CC@HNIFMDNJ@OnFail?$CI?$CJ?3?5ERROR_FLYFF_ACCOUNT?0?5?$CF@ 004589d4     DPDatabaseClient.obj
 0002:000009f8       ??_C@_0CF@IFDDFIDD@OnLoginProtect?$CI?$CJ?3?5dpid?5not?5found@ 004589f8     DPDatabaseClient.obj
 0002:00000a20       ??_C@_0CM@CAPDIDJI@OnLoginProtect?$CI?$CJ?3?5Different?5lpsz@ 00458a20     DPDatabaseClient.obj
 0002:00000a4c       ??_7CDPDatabaseClient@@6B@ 00458a4c     DPDatabaseClient.obj
 0002:00000a58       ??_C@_0BP@ILIDNLNE@OnAddUser?$CI?$CJ?3?5pUser?5is?5NULL?0?5?$CFs?$AA@ 00458a58     DPLoginSrvr.obj
 0002:00000a78       ??_C@_0CE@HEPPKJPB@OnAddUser?$CI?$CJ?3?5AddUser?$CI?$CJ?5return?50?0@ 00458a78     DPLoginSrvr.obj
 0002:00000a9c       ??_C@_0O@ICBEMCOL@CSAUTH?1?11?1?1?$CFd?$AA@ 00458a9c     DPLoginSrvr.obj
 0002:00000aac       ??_C@_0CA@LLEPEIMK@OnPreJoin?$CI?$CJ?3?5dpid?5not?5found?0?5?$CFs?$AA@ 00458aac     DPLoginSrvr.obj
 0002:00000acc       ??_C@_0CH@POBFHMFF@OnPreJoin?$CI?$CJ?3?5Different?5lpszAccou@ 00458acc     DPLoginSrvr.obj
 0002:00000af4       ??_C@_09LJGJIJK@PACKET?1?10?$AA@ 00458af4     DPLoginSrvr.obj
 0002:00000b00       ??_C@_0BB@MOGOBHAF@list?$DMT?$DO?5too?5long?$AA@ 00458b00     DPLoginSrvr.obj
 0002:00000b14       ??_C@_09PKKCPLIP@bad?5alloc?$AA@ 00458b14     DPLoginSrvr.obj
 0002:00000b20       ??_7CDPLoginSrvr@@6B@      00458b20     DPLoginSrvr.obj
 0002:00000b2c       ??_C@_0CG@MOHAIPPD@CSAUTH?1?1?$CD?1?1?$CFd?0?5?$CFd?0?5?$CFd?1?1?$CFd?0?5?$CFd?0?5?$CF@ 00458b2c     DPLoginSrvr.obj
 0002:00000b54       ??_C@_0CO@LCLDNBIF@GGAuth?5version?5update?5?$FL?$CFs?$FN?5?3?5?$FL?$CFl@ 00458b54     LoginServer.obj
 0002:00000b84       ??_C@_0N@OKOLHDCA@Protocol?5Num?$AA@ 00458b84     LoginServer.obj
 0002:00000b94       ??_C@_0O@BIFEKD@GameGuard?5Ver?$AA@ 00458b94     LoginServer.obj
 0002:00000ba4       ??_C@_0P@PDCOPHCL@?4?1ggauth01?4dll?$AA@ 00458ba4     LoginServer.obj
 0002:00000bb4       ??_C@_0BG@LLHCBFOL@Can?8t?5open?5file?0?5?$CFs?4?6?$AA@ 00458bb4     LoginServer.obj
 0002:00000bcc       ??_C@_08MKNOLMOK@20040706?$AA@ 00458bcc     LoginServer.obj
 0002:00000bd8       ??_C@_08NNJGOKOI@NPROTECT?$AA@ 00458bd8     LoginServer.obj
 0002:00000be4       ??_C@_07ICNMEGMN@MSG_VER?$AA@ 00458be4     LoginServer.obj
 0002:00000bec       ??_C@_08KBAEEBAK@AddCache?$AA@ 00458bec     LoginServer.obj
 0002:00000bf8       ??_C@_04KDEOOPC@Core?$AA@  00458bf8     LoginServer.obj
 0002:00000c00       ??_C@_02LFGCCOHG@DB?$AA@   00458c00     LoginServer.obj
 0002:00000c04       ??_C@_01ICJEACDI@?$DL?$AA@ 00458c04     LoginServer.obj
 0002:00000c06       ??_C@_00CNPNBAHC@?$AA@     00458c06     LoginServer.obj
 0002:00000c08       ??_C@_0CK@DFNECKMO@InitGameguardAuth?1?1?$CFd?5?9?5check?5gg@ 00458c08     LoginServer.obj
 0002:00000c34       ??_C@_02DKCKIIND@?$CFs?$AA@ 00458c34     LoginServer.obj
 0002:00000c38       ??_C@_0BC@FBAMFINP@?$CFY?1?$CFm?1?$CFd?5?$CFH?3?$CFM?3?$CFS?$AA@ 00458c38     LoginServer.obj
 0002:00000c4c       ??_C@_07NPJJGNLP@SquireD?$AA@ 00458c4c     LoginServer.obj
 0002:00000c54       ??_C@_0BA@BOIOIKFK@LoginServer?4ini?$AA@ 00458c54     LoginServer.obj
 0002:00000c68       ?OLE_DATETIME_HALFSECOND@COleDateTimeSpan@ATL@@0NB 00458c68     StdAfx.obj
 0002:00000c70       ?pmField@?$CVarTypeInfo@PATtagCY@@@ATL@@2QQtagVARIANT@@PATtagCY@@Q3@ 00458c70     StdAfx.obj
 0002:00000c74       ?VT@?$CVarTypeInfo@PATtagCY@@@ATL@@2GB 00458c74     StdAfx.obj
 0002:00000c78       ?pmField@?$CVarTypeInfo@TtagCY@@@ATL@@2QQtagVARIANT@@TtagCY@@Q3@ 00458c78     StdAfx.obj
 0002:00000c7c       ?VT@?$CVarTypeInfo@TtagCY@@@ATL@@2GB 00458c7c     StdAfx.obj
 0002:00000c80       ?pmField@?$CVarTypeInfo@PAPAUIDispatch@@@ATL@@2QQtagVARIANT@@PAPAUIDispatch@@Q3@ 00458c80     StdAfx.obj
 0002:00000c84       ?VT@?$CVarTypeInfo@PAPAUIDispatch@@@ATL@@2GB 00458c84     StdAfx.obj
 0002:00000c88       ?pmField@?$CVarTypeInfo@PAUIDispatch@@@ATL@@2QQtagVARIANT@@PAUIDispatch@@Q3@ 00458c88     StdAfx.obj
 0002:00000c8c       ?VT@?$CVarTypeInfo@PAUIDispatch@@@ATL@@2GB 00458c8c     StdAfx.obj
 0002:00000c90       ?pmField@?$CVarTypeInfo@PAPAUIUnknown@@@ATL@@2QQtagVARIANT@@PAPAUIUnknown@@Q3@ 00458c90     StdAfx.obj
 0002:00000c94       ?VT@?$CVarTypeInfo@PAPAUIUnknown@@@ATL@@2GB 00458c94     StdAfx.obj
 0002:00000c98       ?pmField@?$CVarTypeInfo@PAUIUnknown@@@ATL@@2QQtagVARIANT@@PAUIUnknown@@Q3@ 00458c98     StdAfx.obj
 0002:00000c9c       ?VT@?$CVarTypeInfo@PAUIUnknown@@@ATL@@2GB 00458c9c     StdAfx.obj
 0002:00000ca0       ?pmField@?$CVarTypeInfo@PAPAG@ATL@@2QQtagVARIANT@@PAPAGQ3@ 00458ca0     StdAfx.obj
 0002:00000ca4       ?VT@?$CVarTypeInfo@PAPAG@ATL@@2GB 00458ca4     StdAfx.obj
 0002:00000ca8       ?pmField@?$CVarTypeInfo@PAG@ATL@@2QQtagVARIANT@@PAGQ3@ 00458ca8     StdAfx.obj
 0002:00000cac       ?VT@?$CVarTypeInfo@PAG@ATL@@2GB 00458cac     StdAfx.obj
 0002:00000cb0       ?VT@?$CVarTypeInfo@UtagVARIANT@@@ATL@@2GB 00458cb0     StdAfx.obj
 0002:00000cb4       ?pmField@?$CVarTypeInfo@PAN@ATL@@2QQtagVARIANT@@PANQ3@ 00458cb4     StdAfx.obj
 0002:00000cb8       ?VT@?$CVarTypeInfo@PAN@ATL@@2GB 00458cb8     StdAfx.obj
 0002:00000cbc       ?pmField@?$CVarTypeInfo@N@ATL@@2QQtagVARIANT@@NQ3@ 00458cbc     StdAfx.obj
 0002:00000cc0       ?VT@?$CVarTypeInfo@N@ATL@@2GB 00458cc0     StdAfx.obj
 0002:00000cc4       ?pmField@?$CVarTypeInfo@PAM@ATL@@2QQtagVARIANT@@PAMQ3@ 00458cc4     StdAfx.obj
 0002:00000cc8       ?VT@?$CVarTypeInfo@PAM@ATL@@2GB 00458cc8     StdAfx.obj
 0002:00000ccc       ?pmField@?$CVarTypeInfo@M@ATL@@2QQtagVARIANT@@MQ3@ 00458ccc     StdAfx.obj
 0002:00000cd0       ?VT@?$CVarTypeInfo@M@ATL@@2GB 00458cd0     StdAfx.obj
 0002:00000cd4       ?pmField@?$CVarTypeInfo@PA_K@ATL@@2QQtagVARIANT@@PA_KQ3@ 00458cd4     StdAfx.obj
 0002:00000cd8       ?VT@?$CVarTypeInfo@PA_K@ATL@@2GB 00458cd8     StdAfx.obj
 0002:00000cdc       ?pmField@?$CVarTypeInfo@_K@ATL@@2QQtagVARIANT@@_KQ3@ 00458cdc     StdAfx.obj
 0002:00000ce0       ?VT@?$CVarTypeInfo@_K@ATL@@2GB 00458ce0     StdAfx.obj
 0002:00000ce4       ?pmField@?$CVarTypeInfo@PA_J@ATL@@2QQtagVARIANT@@PA_JQ3@ 00458ce4     StdAfx.obj
 0002:00000ce8       ?VT@?$CVarTypeInfo@PA_J@ATL@@2GB 00458ce8     StdAfx.obj
 0002:00000cec       ?pmField@?$CVarTypeInfo@_J@ATL@@2QQtagVARIANT@@_JQ3@ 00458cec     StdAfx.obj
 0002:00000cf0       ?VT@?$CVarTypeInfo@_J@ATL@@2GB 00458cf0     StdAfx.obj
 0002:00000cf4       ?pmField@?$CVarTypeInfo@PAK@ATL@@2QQtagVARIANT@@PAKQ3@ 00458cf4     StdAfx.obj
 0002:00000cf8       ?VT@?$CVarTypeInfo@PAK@ATL@@2GB 00458cf8     StdAfx.obj
 0002:00000cfc       ?pmField@?$CVarTypeInfo@K@ATL@@2QQtagVARIANT@@KQ3@ 00458cfc     StdAfx.obj
 0002:00000d00       ?VT@?$CVarTypeInfo@K@ATL@@2GB 00458d00     StdAfx.obj
 0002:00000d04       ?pmField@?$CVarTypeInfo@PAJ@ATL@@2QQtagVARIANT@@PAJQ3@ 00458d04     StdAfx.obj
 0002:00000d08       ?VT@?$CVarTypeInfo@PAJ@ATL@@2GB 00458d08     StdAfx.obj
 0002:00000d0c       ?pmField@?$CVarTypeInfo@J@ATL@@2QQtagVARIANT@@JQ3@ 00458d0c     StdAfx.obj
 0002:00000d10       ?VT@?$CVarTypeInfo@J@ATL@@2GB 00458d10     StdAfx.obj
 0002:00000d14       ?pmField@?$CVarTypeInfo@PAI@ATL@@2QQtagVARIANT@@PAIQ3@ 00458d14     StdAfx.obj
 0002:00000d18       ?VT@?$CVarTypeInfo@PAI@ATL@@2GB 00458d18     StdAfx.obj
 0002:00000d1c       ?pmField@?$CVarTypeInfo@I@ATL@@2QQtagVARIANT@@IQ3@ 00458d1c     StdAfx.obj
 0002:00000d20       ?VT@?$CVarTypeInfo@I@ATL@@2GB 00458d20     StdAfx.obj
 0002:00000d24       ?pmField@?$CVarTypeInfo@PAH@ATL@@2QQtagVARIANT@@PAHQ3@ 00458d24     StdAfx.obj
 0002:00000d28       ?VT@?$CVarTypeInfo@PAH@ATL@@2GB 00458d28     StdAfx.obj
 0002:00000d2c       ?pmField@?$CVarTypeInfo@H@ATL@@2QQtagVARIANT@@HQ3@ 00458d2c     StdAfx.obj
 0002:00000d30       ?VT@?$CVarTypeInfo@H@ATL@@2GB 00458d30     StdAfx.obj
 0002:00000d34       ?pmField@?$CVarTypeInfo@G@ATL@@2QQtagVARIANT@@GQ3@ 00458d34     StdAfx.obj
 0002:00000d38       ?VT@?$CVarTypeInfo@G@ATL@@2GB 00458d38     StdAfx.obj
 0002:00000d3c       ?pmField@?$CVarTypeInfo@PAF@ATL@@2QQtagVARIANT@@PAFQ3@ 00458d3c     StdAfx.obj
 0002:00000d40       ?VT@?$CVarTypeInfo@PAF@ATL@@2GB 00458d40     StdAfx.obj
 0002:00000d44       ?pmField@?$CVarTypeInfo@F@ATL@@2QQtagVARIANT@@FQ3@ 00458d44     StdAfx.obj
 0002:00000d48       ?VT@?$CVarTypeInfo@F@ATL@@2GB 00458d48     StdAfx.obj
 0002:00000d4c       ?pmField@?$CVarTypeInfo@PAE@ATL@@2QQtagVARIANT@@PAEQ3@ 00458d4c     StdAfx.obj
 0002:00000d50       ?VT@?$CVarTypeInfo@PAE@ATL@@2GB 00458d50     StdAfx.obj
 0002:00000d54       ?pmField@?$CVarTypeInfo@PAD@ATL@@2QQtagVARIANT@@PADQ3@ 00458d54     StdAfx.obj
 0002:00000d58       ?VT@?$CVarTypeInfo@PAD@ATL@@2GB 00458d58     StdAfx.obj
 0002:00000d5c       ?pmField@?$CVarTypeInfo@E@ATL@@2QQtagVARIANT@@EQ3@ 00458d5c     StdAfx.obj
 0002:00000d60       ?VT@?$CVarTypeInfo@E@ATL@@2GB 00458d60     StdAfx.obj
 0002:00000d64       ?pmField@?$CVarTypeInfo@D@ATL@@2QQtagVARIANT@@DQ3@ 00458d64     StdAfx.obj
 0002:00000d68       ?VT@?$CVarTypeInfo@D@ATL@@2GB 00458d68     StdAfx.obj
 0002:00000d6c       ?end@?$_Iosb@H@std@@2W4_Seekdir@12@B 00458d6c     StdAfx.obj
 0002:00000d70       ?cur@?$_Iosb@H@std@@2W4_Seekdir@12@B 00458d70     StdAfx.obj
 0002:00000d74       ?beg@?$_Iosb@H@std@@2W4_Seekdir@12@B 00458d74     StdAfx.obj
 0002:00000d78       ?binary@?$_Iosb@H@std@@2W4_Openmode@12@B 00458d78     StdAfx.obj
 0002:00000d7c       ?_Noreplace@?$_Iosb@H@std@@2W4_Openmode@12@B 00458d7c     StdAfx.obj
 0002:00000d80       ?_Nocreate@?$_Iosb@H@std@@2W4_Openmode@12@B 00458d80     StdAfx.obj
 0002:00000d84       ?trunc@?$_Iosb@H@std@@2W4_Openmode@12@B 00458d84     StdAfx.obj
 0002:00000d88       ?app@?$_Iosb@H@std@@2W4_Openmode@12@B 00458d88     StdAfx.obj
 0002:00000d8c       ?ate@?$_Iosb@H@std@@2W4_Openmode@12@B 00458d8c     StdAfx.obj
 0002:00000d90       ?out@?$_Iosb@H@std@@2W4_Openmode@12@B 00458d90     StdAfx.obj
 0002:00000d94       ?in@?$_Iosb@H@std@@2W4_Openmode@12@B 00458d94     StdAfx.obj
 0002:00000d98       ?_Hardfail@?$_Iosb@H@std@@2W4_Iostate@12@B 00458d98     StdAfx.obj
 0002:00000d9c       ?badbit@?$_Iosb@H@std@@2W4_Iostate@12@B 00458d9c     StdAfx.obj
 0002:00000da0       ?failbit@?$_Iosb@H@std@@2W4_Iostate@12@B 00458da0     StdAfx.obj
 0002:00000da4       ?eofbit@?$_Iosb@H@std@@2W4_Iostate@12@B 00458da4     StdAfx.obj
 0002:00000da8       ?goodbit@?$_Iosb@H@std@@2W4_Iostate@12@B 00458da8     StdAfx.obj
 0002:00000dac       ?floatfield@?$_Iosb@H@std@@2W4_Fmtflags@12@B 00458dac     StdAfx.obj
 0002:00000db0       ?basefield@?$_Iosb@H@std@@2W4_Fmtflags@12@B 00458db0     StdAfx.obj
 0002:00000db4       ?adjustfield@?$_Iosb@H@std@@2W4_Fmtflags@12@B 00458db4     StdAfx.obj
 0002:00000db8       ?_Stdio@?$_Iosb@H@std@@2W4_Fmtflags@12@B 00458db8     StdAfx.obj
 0002:00000dbc       ?boolalpha@?$_Iosb@H@std@@2W4_Fmtflags@12@B 00458dbc     StdAfx.obj
 0002:00000dc0       ?fixed@?$_Iosb@H@std@@2W4_Fmtflags@12@B 00458dc0     StdAfx.obj
 0002:00000dc4       ?scientific@?$_Iosb@H@std@@2W4_Fmtflags@12@B 00458dc4     StdAfx.obj
 0002:00000dc8       ?hex@?$_Iosb@H@std@@2W4_Fmtflags@12@B 00458dc8     StdAfx.obj
 0002:00000dcc       ?oct@?$_Iosb@H@std@@2W4_Fmtflags@12@B 00458dcc     StdAfx.obj
 0002:00000dd0       ?dec@?$_Iosb@H@std@@2W4_Fmtflags@12@B 00458dd0     StdAfx.obj
 0002:00000dd4       ?internal@?$_Iosb@H@std@@2W4_Fmtflags@12@B 00458dd4     StdAfx.obj
 0002:00000dd8       ?right@?$_Iosb@H@std@@2W4_Fmtflags@12@B 00458dd8     StdAfx.obj
 0002:00000ddc       ?left@?$_Iosb@H@std@@2W4_Fmtflags@12@B 00458ddc     StdAfx.obj
 0002:00000de0       ?showpos@?$_Iosb@H@std@@2W4_Fmtflags@12@B 00458de0     StdAfx.obj
 0002:00000de4       ?showpoint@?$_Iosb@H@std@@2W4_Fmtflags@12@B 00458de4     StdAfx.obj
 0002:00000de8       ?showbase@?$_Iosb@H@std@@2W4_Fmtflags@12@B 00458de8     StdAfx.obj
 0002:00000dec       ?uppercase@?$_Iosb@H@std@@2W4_Fmtflags@12@B 00458dec     StdAfx.obj
 0002:00000df0       ?unitbuf@?$_Iosb@H@std@@2W4_Fmtflags@12@B 00458df0     StdAfx.obj
 0002:00000df4       ?skipws@?$_Iosb@H@std@@2W4_Fmtflags@12@B 00458df4     StdAfx.obj
 0002:00000df8       ?none@?$_Locbase@H@std@@2HB 00458df8     StdAfx.obj
 0002:00000dfc       ?all@?$_Locbase@H@std@@2HB 00458dfc     StdAfx.obj
 0002:00000e00       ?messages@?$_Locbase@H@std@@2HB 00458e00     StdAfx.obj
 0002:00000e04       ?time@?$_Locbase@H@std@@2HB 00458e04     StdAfx.obj
 0002:00000e08       ?numeric@?$_Locbase@H@std@@2HB 00458e08     StdAfx.obj
 0002:00000e0c       ?monetary@?$_Locbase@H@std@@2HB 00458e0c     StdAfx.obj
 0002:00000e10       ?ctype@?$_Locbase@H@std@@2HB 00458e10     StdAfx.obj
 0002:00000e14       ?collate@?$_Locbase@H@std@@2HB 00458e14     StdAfx.obj
 0002:00000e18       ?szInvalidDateTimeSpan@ATL@@3QBDB 00458e18     StdAfx.obj
 0002:00000e1c       ??_C@_0BF@GPPHKJFN@Invalid?5DateTimeSpan?$AA@ 00458e1c     StdAfx.obj
 0002:00000e34       ?szInvalidDateTime@ATL@@3QBDB 00458e34     StdAfx.obj
 0002:00000e38       ??_C@_0BB@KEKMKJPM@Invalid?5DateTime?$AA@ 00458e38     StdAfx.obj
 0002:00000e50       ?Week@CFileTime@ATL@@2_KB  00458e50     StdAfx.obj
 0002:00000e58       ?Day@CFileTime@ATL@@2_KB   00458e58     StdAfx.obj
 0002:00000e60       ?Hour@CFileTime@ATL@@2_KB  00458e60     StdAfx.obj
 0002:00000e68       ?Minute@CFileTime@ATL@@2_KB 00458e68     StdAfx.obj
 0002:00000e70       ?Second@CFileTime@ATL@@2_KB 00458e70     StdAfx.obj
 0002:00000e78       ?Millisecond@CFileTime@ATL@@2_KB 00458e78     StdAfx.obj
 0002:00000e80       ?c_bIsMFCDLLTraits@?$_MFCDLLTraitsCheck@DV?$StrTraitMFC@DV?$ChTraitsCRT@D@ATL@@@@@_CSTRING_IMPL_@ATL@@2_NB 00458e80     StdAfx.obj
 0002:00000e94       ??_7CUser@@6B@             00458e94     User.obj
 0002:00000e98       ??_7CMclCritSec@@6B@       00458e98     User.obj
 0002:00000e9c       ??_C@_0CG@PKDNJGOJ@CSAUTH?1?10?1?1?$CFd?0?5?$CFd?0?5?$CFd?1?1?$CFd?0?5?$CFd?0?5?$CF@ 00458e9c     User.obj
 0002:00000ec4       ??_7CUserMng@@6B@          00458ec4     User.obj
 0002:00000ec8       ??_C@_0BN@MEBBLKKP@RemoveUser?$CI?$CJ?3?5dpid?5not?5found?$AA@ 00458ec8     User.obj
 0002:00000ee8       ??_C@_0BG@BOJLOLHP@RemoveUser?$CI?$CJ?3?5Illegal?$AA@ 00458ee8     User.obj
 0002:00000f00       ??_C@_0CE@JMNKHKKP@RemoveUser?$CI?$CJ?3?5?$CKpUser?9?$DOm_pKey?5is?5@ 00458f00     User.obj
 0002:00000f24       ??_7CTimer@@6B@            00458f24     dos2.obj
 0002:00000f30       ??_7CDos2@@6B@             00458f30     dos2.obj
 0002:00000f34       ??_7CHeapMng@@6B@          00458f34     heapmng.obj
 0002:00000f38       ??_7CMyTrace@@6B@          00458f38     MyTrace.obj
 0002:00000f3c       ??_C@_06DJIHEMFI@status?$AA@ 00458f3c     MyTrace.obj
 0002:00000f48       ??_C@_0KB@FMFNHDFD@________________________________@ 00458f48     MyTrace.obj
 0002:00000fec       ??_7CBuffer@@6B@           00458fec     buffer.obj
 0002:00000ff8       ??_7CBuffer2@@6B@          00458ff8     buffer.obj
 0002:00001004       ??_7CBufferQueue@@6B@      00459004     buffer.obj
 0002:00001008       ??_C@_0M@PCENNPGA@?$CFd?4?$CFd?4?$CFd?4?$CFd?$AA@ 00459008     clientsock.obj
 0002:00001014       ??_C@_0BC@JDKBPDDI@INVALID_SOCKET?1?10?$AA@ 00459014     clientsock.obj
 0002:00001028       ??_7CClientSock@@6B@       00459028     clientsock.obj
 0002:0000105c       ??_C@_0BO@KKMDMHBH@CClientSock?4Fetch?3?5replay?3?5?$CFs?$AA@ 0045905c     clientsock.obj
 0002:0000107c       ??_C@_08MFOGBBHP@FETCH?1?12?$AA@ 0045907c     clientsock.obj
 0002:00001088       ??_C@_0CI@ODKLMECE@CClientSocket?4Fetch?3?5ip?5?$DN?5?$CFs?0?5si@ 00459088     clientsock.obj
 0002:000010b0       ??_C@_08PHNAHDPN@FETCH?1?10?$AA@ 004590b0     clientsock.obj
 0002:000010bc       ??_7CClientSockE@@6B@      004590bc     clientsocke.obj
 0002:000010f0       ?m_tab@CRC32@@0QBIB        004590f0     crc.obj
 0002:000014f0       ??_7CDPMng@@6B@            004594f0     dpmng.obj
 0002:000014fc       ??_C@_0O@DBHAFALM@NEWSOCKETMSG2?$AA@ 004594fc     dpsock.obj
 0002:0000150c       ??_C@_0N@NGAJACCO@NEWSOCKETMSG?$AA@ 0045950c     dpsock.obj
 0002:0000151c       ??_7CDPSock@@6B@           0045951c     dpsock.obj
 0002:00001520       ??_7CMapChild@@6B@         00459520     serversock.obj
 0002:00001524       ??_7CServerSock@@6B@       00459524     serversock.obj
 0002:00001558       ??_7CMapChildE@@6B@        00459558     serversocke.obj
 0002:0000155c       ??_7CServerSockE@@6B@      0045955c     serversocke.obj
 0002:00001590       ??_7CSock@@6B@             00459590     sock.obj
 0002:000015c4       ??_C@_01EEMJAFIK@?6?$AA@   004595c4     exceptionhandler.obj
 0002:000015c8       ??_C@_06OJHGLDPL@?$CInull?$CJ?$AA@ 004595c8     exceptionhandler.obj
 0002:000015d0       ??_C@_02PHMGELLB@?6?6?$AA@ 004595d0     exceptionhandler.obj
 0002:000015d4       ??_C@_0BB@OMLDONOD@?6?6?5?9?5Registers?6?6?$AA@ 004595d4     exceptionhandler.obj
 0002:000015e8       ??_C@_0N@CLNKCBPC@rCnt?$DN?$CFd?5?$AN?6?$CFs?$AA@ 004595e8     exceptionhandler.obj
 0002:000015f8       ??_C@_07JADGJGAE@?2Media?2?$AA@ 004595f8     dxutil.obj
 0002:00001600       ??_C@_0BE@LKAAOJGK@DX9SDK?5Samples?5Path?$AA@ 00459600     dxutil.obj
 0002:00001614       ??_C@_0BP@HEGLIIKH@Software?2Microsoft?2DirectX?5SDK?$AA@ 00459614     dxutil.obj
 0002:00001638       __real@3fb99999a0000000    00459638     dxutil.obj
 0002:00001640       __real@3f50624dd2f1a9fc    00459640     dxutil.obj
 0002:00001648       __real@41f0000000000000    00459648     dxutil.obj
 0002:00001650       __real@0000000000000000    00459650     dxutil.obj
 0002:00001658       __real@bf800000            00459658     dxutil.obj
 0002:0000165c       __real@00000000            0045965c     dxutil.obj
 0002:00001660       ??_C@_0BK@MEKHEPPF@Could?5not?5find?5readme?4txt?$AA@ 00459660     dxutil.obj
 0002:0000167c       ??_C@_0BD@NHAEFHIC@DirectX?5SDK?5Sample?$AA@ 0045967c     dxutil.obj
 0002:00001690       ??_C@_04PMOCAHAA@open?$AA@ 00459690     dxutil.obj
 0002:00001698       ??_C@_0O@MOHFGHHE@ShellExecuteA?$AA@ 00459698     dxutil.obj
 0002:000016a8       ??_C@_0M@KFDNOLCO@shell32?4dll?$AA@ 004596a8     dxutil.obj
 0002:000016b4       ??_C@_0M@KCHKBMF@?2readme?4txt?$AA@ 004596b4     dxutil.obj
 0002:000016c0       ??_C@_01KICIPPFI@?2?$AA@   004596c0     dxutil.obj
 0002:000016c4       ??_C@_0BF@PHKGEBGA@?$CFs?2C?$CL?$CL?2?$CFs?2readme?4txt?$AA@ 004596c4     dxutil.obj
 0002:000016dc       ??_C@_0CI@FDANOHPD@?$HL?$CF8X?9?$CF4X?9?$CF4X?9?$CF2X?$CF2X?9?$CF2X?$CF2X?$CF2X?$CF2X@ 004596dc     dxutil.obj
 0002:00001704       ??_C@_0DO@OBIAHMKG@?$HL?$CF0?48X?9?$CF0?44X?9?$CF0?44X?9?$CF0?42X?$CF0?42X?9?$CF0@ 00459704     dxutil.obj
 0002:00001758       ??_C@_0M@NLEENBFM@_?$CFd?$CF02d?$CF02d?$AA@ 00459758     debug.obj
 0002:00001764       ??_C@_03OFAPEBGM@?$CFs?6?$AA@ 00459764     debug.obj
 0002:00001768       ??_C@_0BL@OPOBLKAC@?$CFd?1?$CF2d?1?$CF2d?5?$CF02d?3?$CF02d?3?$CF02d?6?$AA@ 00459768     debug.obj
 0002:00001784       ??_C@_01MCMALHOG@a?$AA@    00459784     debug.obj
 0002:00001788       __real@41bfffffff000000    00459788     timer.obj
 0002:00001790       __real@41ebffffffa00000    00459790     timer.obj
 0002:00001798       __real@3fc5555555555555    00459798     timer.obj
 0002:000017a0       __real@4147e53000000000    004597a0     timer.obj
 0002:000017a8       ??_7CSkipTimer@@6B@        004597a8     timer.obj
 0002:000017b4       __real@38000100            004597b4     xutil.obj
 0002:000017b8       ??_C@_09KLJCJGHB@error?4txt?$AA@ 004597b8     xutil.obj
 0002:000017c4       ??_C@_0CC@DAGMFPKN@?$CFd?1?$CF2d?1?$CF2d?5?5?5?$CF02d?3?$CF02d?3?$CF02d?5?5?5?$CFs@ 004597c4     xutil.obj
 0002:000017e8       ??_C@_0BH@PMNGKJFP@?5?$CB?3?$DL?0?$CL?9?$DM?$DO?8?1?$CK?$CF?$FO?$DN?$CI?$CJ?$CG?$HM?$CC?$HL?$HN?$AA@ 004597e8     scanner.obj
 0002:00001800       ??_7CFileIO@@6B@           00459800     scanner.obj
 0002:00001830       ??_7CScanner@@6B@          00459830     scanner.obj
 0002:00001848       ??_C@_0DJ@HNOCKBIP@line?$CI?$CFd?$CJ?5?F?D?$MA?O?5?$CFs?$LP?$KB?$LM?$KN?5?$CC?$CFs?$CC?5?$LN?$LK?F?$KO?$LI?$LF@ 00459848     scanner.obj
 0002:00001884       ??_C@_0DN@LFHNMKPA@line?$CI?$CFd?$CJ?5?F?D?$MA?O?5?$CFs?$LP?$KB?$LM?$KN?5?$CC?$CFs?$CC?5?$LN?$LK?F?$KO?$LI?$LF@ 00459884     scanner.obj
 0002:000018c4       ??_C@_0BB@BKECMLNK@?$CL?9?$CK?$FO?1?$CF?$DN?$DL?$CI?$CJ?0?8?3?$HL?$HN?4?$AA@ 004598c4     scanner.obj
 0002:000018d8       ??_C@_02JDPG@rb?$AA@       004598d8     scanner.obj
 0002:00002924       ?_pfnUninitialized@@3Q6AHI@ZA 0045a924     nafxcw:afxmem.obj
 0002:00002928       ?classCOleException@COleException@@2UCRuntimeClass@@B 0045a928     nafxcw:olemisc.obj
 0002:00002944       ??_C@_0O@MIBDFLDP@COleException?$AA@ 0045a944     nafxcw:olemisc.obj
 0002:00002954       ??_C@_05GIBEAPNE@CLSID?$AA@ 0045a954     nafxcw:olemisc.obj
 0002:00002960       ??_7COleException@@6B@     0045a960     nafxcw:olemisc.obj
 0002:00002974       ??_C@_07JPHDIPNG@DISPLAY?$AA@ 0045a974     nafxcw:olemisc.obj
 0002:0000297c       ?classCInvalidArgException@CInvalidArgException@@2UCRuntimeClass@@B 0045a97c     nafxcw:except.obj
 0002:00002998       ??_C@_0BF@JDJEAIOB@CInvalidArgException?$AA@ 0045a998     nafxcw:except.obj
 0002:000029b0       ?classCNotSupportedException@CNotSupportedException@@2UCRuntimeClass@@B 0045a9b0     nafxcw:except.obj
 0002:000029cc       ??_C@_0BH@EAGMGDLP@CNotSupportedException?$AA@ 0045a9cc     nafxcw:except.obj
 0002:000029e4       ?classCMemoryException@CMemoryException@@2UCRuntimeClass@@B 0045a9e4     nafxcw:except.obj
 0002:00002a00       ??_C@_0BB@HMFCKMLN@CMemoryException?$AA@ 0045aa00     nafxcw:except.obj
 0002:00002a14       ?classCException@CException@@2UCRuntimeClass@@B 0045aa14     nafxcw:except.obj
 0002:00002a30       ??_C@_0L@JGHLGBLN@CException?$AA@ 0045aa30     nafxcw:except.obj
 0002:00002a40       ??_7CMemoryException@@6B@  0045aa40     nafxcw:except.obj
 0002:00002a58       ??_7CNotSupportedException@@6B@ 0045aa58     nafxcw:except.obj
 0002:00002a70       ??_7CInvalidArgException@@6B@ 0045aa70     nafxcw:except.obj
 0002:00002a84       ?c_bIsMFCDLLTraits@?$_MFCDLLTraitsCheck@_WV?$StrTraitMFC@_WV?$ChTraitsCRT@_W@ATL@@@@@_CSTRING_IMPL_@ATL@@2_NB 0045aa84     nafxcw:strcore.obj
 0002:00002a8c       ??_7CAfxStringMgr@@6B@     0045aa8c     nafxcw:strcore.obj
 0002:00002ac0       ?classCObject@CObject@@2UCRuntimeClass@@B 0045aac0     nafxcw:objcore.obj
 0002:00002adc       ??_C@_07BEAIOPAP@CObject?$AA@ 0045aadc     nafxcw:objcore.obj
 0002:00002ae4       ?cbNeverDelete@CRegParser@ATL@@1HB 0045aae4     nafxcw:objcore.obj
 0002:00002ae8       ?rgszNeverDelete@CRegParser@ATL@@1QBQBDB 0045aae8     nafxcw:objcore.obj
 0002:00002b18       ??_C@_07KJLOKDKB@TypeLib?$AA@ 0045ab18     nafxcw:objcore.obj
 0002:00002b20       ??_C@_08KEKAJNJI@Software?$AA@ 0045ab20     nafxcw:objcore.obj
 0002:00002b2c       ??_C@_06FDHFNJBJ@SYSTEM?$AA@ 0045ab2c     nafxcw:objcore.obj
 0002:00002b34       ??_C@_08LOPHEHKG@SECURITY?$AA@ 0045ab34     nafxcw:objcore.obj
 0002:00002b40       ??_C@_03DDIMFGBA@SAM?$AA@  0045ab40     nafxcw:objcore.obj
 0002:00002b44       ??_C@_04IHBFOLAC@Mime?$AA@ 0045ab44     nafxcw:objcore.obj
 0002:00002b4c       ??_C@_08PPIOJEA@Hardware?$AA@ 0045ab4c     nafxcw:objcore.obj
 0002:00002b58       ??_C@_09JKPGEJCH@Interface?$AA@ 0045ab58     nafxcw:objcore.obj
 0002:00002b64       ??_C@_08PICKODJL@FileType?$AA@ 0045ab64     nafxcw:objcore.obj
 0002:00002b70       ??_C@_0BF@HDDNNDFH@Component?5Categories?$AA@ 0045ab70     nafxcw:objcore.obj
 0002:00002b88       ??_C@_05PDIKPLII@AppID?$AA@ 0045ab88     nafxcw:objcore.obj
 0002:00002b90       ?MAX_TYPE@CRegParser@ATL@@1HB 0045ab90     nafxcw:objcore.obj
 0002:00002b94       ?MAX_VALUE@CRegParser@ATL@@1HB 0045ab94     nafxcw:objcore.obj
 0002:00002b98       ??_C@_06JBKGCNBB@Delete?$AA@ 0045ab98     nafxcw:objcore.obj
 0002:00002ba0       ??_C@_08KAAPDIAN@NoRemove?$AA@ 0045aba0     nafxcw:objcore.obj
 0002:00002bac       ??_C@_0M@DBGDLGLL@ForceRemove?$AA@ 0045abac     nafxcw:objcore.obj
 0002:00002bb8       ??_C@_03LAIAPFCB@Val?$AA@  0045abb8     nafxcw:objcore.obj
 0002:00002bbc       ??_C@_01HMGJMAIH@B?$AA@    0045abbc     nafxcw:objcore.obj
 0002:00002bc0       ??_C@_01CKDDGHAB@D?$AA@    0045abc0     nafxcw:objcore.obj
 0002:00002bc4       ??_C@_01PLPBNMEI@M?$AA@    0045abc4     nafxcw:objcore.obj
 0002:00002bc8       ??_C@_01CPLAODJH@S?$AA@    0045abc8     nafxcw:objcore.obj
 0002:00002bcc       _CLSID_StdGlobalInterfaceTable 0045abcc     nafxcw:objcore.obj
 0002:00002bdc       _IID_IAxWinAmbientDispatchEx 0045abdc     nafxcw:objcore.obj
 0002:00002bec       _IID_IAxWinHostWindowLic   0045abec     nafxcw:objcore.obj
 0002:00002bfc       _IID_IDocHostUIHandlerDispatch 0045abfc     nafxcw:objcore.obj
 0002:00002c0c       _IID_IInternalConnection   0045ac0c     nafxcw:objcore.obj
 0002:00002c1c       _IID_IAxWinAmbientDispatch 0045ac1c     nafxcw:objcore.obj
 0002:00002c2c       _IID_IAxWinHostWindow      0045ac2c     nafxcw:objcore.obj
 0002:00002c3c       _IID_IRegistrar            0045ac3c     nafxcw:objcore.obj
 0002:00002c4c       _CLSID_Registrar           0045ac4c     nafxcw:objcore.obj
 0002:00002c5c       _LIBID_ATLLib              0045ac5c     nafxcw:objcore.obj
 0002:00002c6c       ?pmField@?$CVarTypeInfo@PAPA_W@ATL@@2QQtagVARIANT@@PAPA_WQ3@ 0045ac6c     nafxcw:objcore.obj
 0002:00002c70       ?VT@?$CVarTypeInfo@PAPA_W@ATL@@2GB 0045ac70     nafxcw:objcore.obj
 0002:00002c74       ?pmField@?$CVarTypeInfo@PA_W@ATL@@2QQtagVARIANT@@PA_WQ3@ 0045ac74     nafxcw:objcore.obj
 0002:00002c78       ?VT@?$CVarTypeInfo@PA_W@ATL@@2GB 0045ac78     nafxcw:objcore.obj
 0002:00002c90       ??_7CInnerUnknown@@6B@     0045ac90     nafxcw:oleunk.obj
 0002:00002ca0       ??_7_AFX_THREAD_STATE@@6B@ 0045aca0     nafxcw:afxstate.obj
 0002:00002ca8       ??_7AFX_MODULE_STATE@@6B@  0045aca8     nafxcw:afxstate.obj
 0002:00002cb0       ??_7AFX_MODULE_THREAD_STATE@@6B@ 0045acb0     nafxcw:afxstate.obj
 0002:00002cb8       ??_7_AFX_BASE_MODULE_STATE@@6B@ 0045acb8     nafxcw:afxstate.obj
 0002:00002cc0       ??_7CThreadData@@6B@       0045acc0     nafxcw:afxtls.obj
 0002:00002cc8       __real@3fb0000000000000    0045acc8     nafxcw:olevar.obj
 0002:00002cd0       __real@3d800000            0045acd0     nafxcw:olevar.obj
 0002:00002cd8       __real@bff0000000000000    0045acd8     nafxcw:olevar.obj
 0002:00002ce0       ?classCArchiveException@CArchiveException@@2UCRuntimeClass@@B 0045ace0     nafxcw:arcex.obj
 0002:00002cfc       ??_C@_0BC@IIDFIFGA@CArchiveException?$AA@ 0045acfc     nafxcw:arcex.obj
 0002:00002d14       ??_7CArchiveException@@6B@ 0045ad14     nafxcw:arcex.obj
 0002:00002d28       ??_C@_08PEKOMHKE@combobox?$AA@ 0045ad28     nafxcw:winutil.obj
 0002:00002d34       ?classCMapPtrToPtr@CMapPtrToPtr@@2UCRuntimeClass@@B 0045ad34     nafxcw:map_pp.obj
 0002:00002d50       ??_C@_0N@BBCNFPFP@CMapPtrToPtr?$AA@ 0045ad50     nafxcw:map_pp.obj
 0002:00002d64       ??_7CMapPtrToPtr@@6B@      0045ad64     nafxcw:map_pp.obj
 0002:00002d70       ?classCPtrList@CPtrList@@2UCRuntimeClass@@B 0045ad70     nafxcw:list_p.obj
 0002:00002d8c       ??_C@_08DDMLBIJN@CPtrList?$AA@ 0045ad8c     nafxcw:list_p.obj
 0002:00002d9c       ??_7CPtrList@@6B@          0045ad9c     nafxcw:list_p.obj
 0002:00002da8       ?classCWinThread@CWinThread@@2UCRuntimeClass@@B 0045ada8     nafxcw:thrdcore.obj
 0002:00002dc4       ??_C@_0L@EBOINCAD@CWinThread?$AA@ 0045adc4     nafxcw:thrdcore.obj
 0002:00002dd4       ??_7CWinThread@@6B@        0045add4     nafxcw:thrdcore.obj
 0002:00002e50       ??_C@_0L@NNMBAOBP@CByteArray?$AA@ 0045ae50     nafxcw:array_b.obj
 0002:00002e60       ??_7CByteArray@@6B@        0045ae60     nafxcw:array_b.obj
 0002:00002e70       ??_7CArchiveStream@@6B@    0045ae70     nafxcw:arcstrm.obj
 0002:00002ea8       ??_C@_02GMHACPFF@?$CFu?$AA@ 0045aea8     nafxcw:dlgdata.obj
 0002:00002eac       ??_C@_03OACELNE@?$CFhd?$AA@ 0045aeac     nafxcw:dlgdata.obj
 0002:00002eb0       ??_C@_02DPKJAMEF@?$CFd?$AA@ 0045aeb0     nafxcw:dlgdata.obj
 0002:00002eb4       ??_C@_03JALODAI@?$CFld?$AA@ 0045aeb4     nafxcw:dlgdata.obj
 0002:00002eb8       ??_C@_03FKNCMABI@?$CFlu?$AA@ 0045aeb8     nafxcw:dlgdata.obj
 0002:00002ebc       ??_C@_05LLAMLEHD@?$CFI64d?$AA@ 0045aebc     nafxcw:dlgdata.obj
 0002:00002ec4       ??_C@_05OINFJHGD@?$CFI64u?$AA@ 0045aec4     nafxcw:dlgdata.obj
 0002:00002ecc       ?classCCmdTarget@CCmdTarget@@2UCRuntimeClass@@B 0045aecc     nafxcw:cmdtarg.obj
 0002:00002ee8       ??_C@_0L@GDEMJNJL@CCmdTarget?$AA@ 0045aee8     nafxcw:cmdtarg.obj
 0002:00002ef4       ?_afxDot@@3QBEB            0045aef4     nafxcw:cmdtarg.obj
 0002:00002efc       ?_messageEntries@CCmdTarget@@0QBUAFX_MSGMAP_ENTRY@@B 0045aefc     nafxcw:cmdtarg.obj
 0002:00002f14       ?messageMap@CCmdTarget@@1UAFX_MSGMAP@@B 0045af14     nafxcw:cmdtarg.obj
 0002:00002f1c       ?_dispatchEntries@CCmdTarget@@0QBUAFX_DISPMAP_ENTRY@@B 0045af1c     nafxcw:cmdtarg.obj
 0002:00002f3c       ?dispatchMap@CCmdTarget@@1UAFX_DISPMAP@@B 0045af3c     nafxcw:cmdtarg.obj
 0002:00002f4c       ?_eventsinkEntries@CCmdTarget@@0QBUAFX_EVENTSINKMAP_ENTRY@@B 0045af4c     nafxcw:cmdtarg.obj
 0002:00002f74       ?eventsinkMap@CCmdTarget@@1UAFX_EVENTSINKMAP@@B 0045af74     nafxcw:cmdtarg.obj
 0002:00002f80       ?_interfaceEntries@CCmdTarget@@0QBUAFX_INTERFACEMAP_ENTRY@@B 0045af80     nafxcw:cmdtarg.obj
 0002:00002f90       ?interfaceMap@CCmdTarget@@1UAFX_INTERFACEMAP@@B 0045af90     nafxcw:cmdtarg.obj
 0002:00002f98       ?_connectionEntries@CCmdTarget@@0QBUAFX_CONNECTIONMAP_ENTRY@@B 0045af98     nafxcw:cmdtarg.obj
 0002:00002fa0       ?connectionMap@CCmdTarget@@1UAFX_CONNECTIONMAP@@B 0045afa0     nafxcw:cmdtarg.obj
 0002:00002fa8       ?_commandEntries@CCmdTarget@@0QBUAFX_OLECMDMAP_ENTRY@@B 0045afa8     nafxcw:cmdtarg.obj
 0002:00002fb4       ?commandMap@CCmdTarget@@1UAFX_OLECMDMAP@@B 0045afb4     nafxcw:cmdtarg.obj
 0002:00002fc0       ??_7CCmdUI@@6B@            0045afc0     nafxcw:cmdtarg.obj
 0002:00002fd4       ??_7CHandleMap@@6B@        0045afd4     nafxcw:winhand.obj
 0002:00002fd8       ?classCWnd@CWnd@@2UCRuntimeClass@@B 0045afd8     nafxcw:wincore.obj
 0002:00002ff4       ??_C@_04DDIMFFOJ@CWnd?$AA@ 0045aff4     nafxcw:wincore.obj
 0002:00002ffc       ?interfaceMap@CWnd@@1UAFX_INTERFACEMAP@@B 0045affc     nafxcw:wincore.obj
 0002:00003004       ?_interfaceEntries@CWnd@@0QBUAFX_INTERFACEMAP_ENTRY@@B 0045b004     nafxcw:wincore.obj
 0002:0000300c       ?messageMap@CWnd@@1UAFX_MSGMAP@@B 0045b00c     nafxcw:wincore.obj
 0002:00003018       ?_messageEntries@CWnd@@0QBUAFX_MSGMAP_ENTRY@@B 0045b018     nafxcw:wincore.obj
 0002:000032e8       ?_afxOldWndProc@@3QBDB     0045b2e8     nafxcw:wincore.obj
 0002:000032fc       ?_afxWnd@@3QBDB            0045b2fc     nafxcw:wincore.obj
 0002:00003308       ?_afxWndControlBar@@3QBDB  0045b308     nafxcw:wincore.obj
 0002:0000331c       ?_afxWndMDIFrame@@3QBDB    0045b31c     nafxcw:wincore.obj
 0002:0000332c       ?_afxWndFrameOrView@@3QBDB 0045b32c     nafxcw:wincore.obj
 0002:00003340       ?_afxWndOleControl@@3QBDB  0045b340     nafxcw:wincore.obj
 0002:00003354       ??_C@_0BE@NPEOLIBM@EnumDisplayDevicesA?$AA@ 0045b354     nafxcw:wincore.obj
 0002:00003368       ??_C@_0BA@KIAMMEPJ@GetMonitorInfoA?$AA@ 0045b368     nafxcw:wincore.obj
 0002:00003378       ??_C@_0BE@OHNDFFJG@EnumDisplayMonitors?$AA@ 0045b378     nafxcw:wincore.obj
 0002:0000338c       ??_C@_0BB@DDMDAIAD@MonitorFromPoint?$AA@ 0045b38c     nafxcw:wincore.obj
 0002:000033a0       ??_C@_0BA@DPLKJPEB@MonitorFromRect?$AA@ 0045b3a0     nafxcw:wincore.obj
 0002:000033b0       ??_C@_0BC@CHFENAPF@MonitorFromWindow?$AA@ 0045b3b0     nafxcw:wincore.obj
 0002:000033c4       ??_C@_0BB@BFCABEPI@GetSystemMetrics?$AA@ 0045b3c4     nafxcw:wincore.obj
 0002:000033d8       ??_C@_06KDCOIDGA@USER32?$AA@ 0045b3d8     nafxcw:wincore.obj
 0002:000033e0       ??_C@_1CG@DKEMKFDI@?$AAa?$AAc?$AAc?$AAD?$AAo?$AAD?$AAe?$AAf?$AAa?$AAu?$AAl?$AAt?$AAA?$AAc?$AAt?$AAi?$AAo?$AAn?$AA?$AA@ 0045b3e0     nafxcw:wincore.obj
 0002:00003408       ??_C@_1BG@JGHKFACA@?$AAa?$AAc?$AAc?$AAH?$AAi?$AAt?$AAT?$AAe?$AAs?$AAt?$AA?$AA@ 0045b408     nafxcw:wincore.obj
 0002:00003420       ??_C@_1BI@NOPLNCPL@?$AAa?$AAc?$AAc?$AAN?$AAa?$AAv?$AAi?$AAg?$AAa?$AAt?$AAe?$AA?$AA@ 0045b420     nafxcw:wincore.obj
 0002:00003438       ??_C@_1BI@LONMDPCL@?$AAa?$AAc?$AAc?$AAL?$AAo?$AAc?$AAa?$AAt?$AAi?$AAo?$AAn?$AA?$AA@ 0045b438     nafxcw:wincore.obj
 0002:00003450       ??_C@_1BE@HFPLHGCO@?$AAa?$AAc?$AAc?$AAS?$AAe?$AAl?$AAe?$AAc?$AAt?$AA?$AA@ 0045b450     nafxcw:wincore.obj
 0002:00003464       ??_C@_1CC@CJCCELFA@?$AAa?$AAc?$AAc?$AAD?$AAe?$AAf?$AAa?$AAu?$AAl?$AAt?$AAA?$AAc?$AAt?$AAi?$AAo?$AAn?$AA?$AA@ 0045b464     nafxcw:wincore.obj
 0002:00003488       ??_C@_1BK@KFJGMMBL@?$AAa?$AAc?$AAc?$AAS?$AAe?$AAl?$AAe?$AAc?$AAt?$AAi?$AAo?$AAn?$AA?$AA@ 0045b488     nafxcw:wincore.obj
 0002:000034a4       ??_C@_1BC@PDPLKEDB@?$AAa?$AAc?$AAc?$AAF?$AAo?$AAc?$AAu?$AAs?$AA?$AA@ 0045b4a4     nafxcw:wincore.obj
 0002:000034b8       ??_C@_1CI@PLNHFMPJ@?$AAa?$AAc?$AAc?$AAK?$AAe?$AAy?$AAb?$AAo?$AAa?$AAr?$AAd?$AAS?$AAh?$AAo?$AAr?$AAt?$AAc?$AAu?$AAt?$AA?$AA@ 0045b4b8     nafxcw:wincore.obj
 0002:000034e0       ??_C@_1BK@GNALBKBD@?$AAa?$AAc?$AAc?$AAH?$AAe?$AAl?$AAp?$AAT?$AAo?$AAp?$AAi?$AAc?$AA?$AA@ 0045b4e0     nafxcw:wincore.obj
 0002:000034fc       ??_C@_1BA@CKHCDKIA@?$AAa?$AAc?$AAc?$AAH?$AAe?$AAl?$AAp?$AA?$AA@ 0045b4fc     nafxcw:wincore.obj
 0002:0000350c       ??_C@_1BC@EEAFJIFJ@?$AAa?$AAc?$AAc?$AAS?$AAt?$AAa?$AAt?$AAe?$AA?$AA@ 0045b50c     nafxcw:wincore.obj
 0002:00003520       ??_C@_1BA@OMPJJAME@?$AAa?$AAc?$AAc?$AAR?$AAo?$AAl?$AAe?$AA?$AA@ 0045b520     nafxcw:wincore.obj
 0002:00003530       ??_C@_1BO@LNDKJAGG@?$AAa?$AAc?$AAc?$AAD?$AAe?$AAs?$AAc?$AAr?$AAi?$AAp?$AAt?$AAi?$AAo?$AAn?$AA?$AA@ 0045b530     nafxcw:wincore.obj
 0002:00003550       ??_C@_1BC@ENHIGDJB@?$AAa?$AAc?$AAc?$AAV?$AAa?$AAl?$AAu?$AAe?$AA?$AA@ 0045b550     nafxcw:wincore.obj
 0002:00003564       ??_C@_1BA@PLNDADF@?$AAa?$AAc?$AAc?$AAN?$AAa?$AAm?$AAe?$AA?$AA@ 0045b564     nafxcw:wincore.obj
 0002:00003574       ??_C@_1BC@PBFDOIOF@?$AAa?$AAc?$AAc?$AAC?$AAh?$AAi?$AAl?$AAd?$AA?$AA@ 0045b574     nafxcw:wincore.obj
 0002:00003588       ??_C@_1BM@BMIHNMGG@?$AAa?$AAc?$AAc?$AAC?$AAh?$AAi?$AAl?$AAd?$AAC?$AAo?$AAu?$AAn?$AAt?$AA?$AA@ 0045b588     nafxcw:wincore.obj
 0002:000035a4       ??_C@_1BE@IPGFMKAP@?$AAa?$AAc?$AAc?$AAP?$AAa?$AAr?$AAe?$AAn?$AAt?$AA?$AA@ 0045b5a4     nafxcw:wincore.obj
 0002:000035bc       ??_7XAccessible@CWnd@@6B@  0045b5bc     nafxcw:wincore.obj
 0002:00003630       ??_7XAccessibleServer@CWnd@@6B@ 0045b630     nafxcw:wincore.obj
 0002:0000364c       ??_7CWnd@@6B@              0045b64c     nafxcw:wincore.obj
 0002:00003780       ??_7_AFX_HTMLHELP_STATE@@6B@ 0045b780     nafxcw:wincore.obj
 0002:00003788       ??_7CTestCmdUI@@6B@        0045b788     nafxcw:wincore.obj
 0002:00003798       __GUID_618736e0_3c3d_11cf_810c_00aa00389b71 0045b798     nafxcw:wincore.obj
 0002:000037a8       ??_C@_0BF@IABGBOLM@InitCommonControlsEx?$AA@ 0045b7a8     nafxcw:wincore.obj
 0002:000037c0       ??_C@_0N@BEBEHAMB@COMCTL32?4DLL?$AA@ 0045b7c0     nafxcw:wincore.obj
 0002:000037d0       __GUID_7a7d9dcf_b7a1_4019_9031_258268846980 0045b7d0     nafxcw:wincore.obj
 0002:000037e0       ??_C@_0BD@EOLFNIPD@Afx?3?$CFp?3?$CFx?3?$CFp?3?$CFp?3?$CFp?$AA@ 0045b7e0     nafxcw:wincore.obj
 0002:000037f4       ??_C@_09NJJHGIHK@Afx?3?$CFp?3?$CFx?$AA@ 0045b7f4     nafxcw:wincore.obj
 0002:00003804       ??_7?$IAccessibleProxyImpl@VCAccessibleProxy@ATL@@@ATL@@6BIAccessibleProxy@@@ 0045b804     nafxcw:wincore.obj
 0002:0000381c       ??_7?$IAccessibleProxyImpl@VCAccessibleProxy@ATL@@@ATL@@6BIAccessible@@@ 0045b81c     nafxcw:wincore.obj
 0002:00003890       ??_7?$CMFCComObject@VCAccessibleProxy@ATL@@@@6B@ 0045b890     nafxcw:wincore.obj
 0002:000038a8       ??_7?$CMFCComObject@VCAccessibleProxy@ATL@@@@6BIAccessibleProxy@@@ 0045b8a8     nafxcw:wincore.obj
 0002:000038bc       ??_7?$CMFCComObject@VCAccessibleProxy@ATL@@@@6BIAccessible@@@ 0045b8bc     nafxcw:wincore.obj
 0002:00003930       __GUID_00000114_0000_0000_c000_000000000046 0045b930     nafxcw:wincore.obj
 0002:00003940       __GUID_00020400_0000_0000_c000_000000000046 0045b940     nafxcw:wincore.obj
 0002:00003950       ?_entries@?1??_GetEntries@CAccessibleProxy@ATL@@SGPBU_ATL_INTMAP_ENTRY@3@XZ@4QBU43@B 0045b950     nafxcw:wincore.obj
 0002:0000398c       ??_C@_09EFBFPPGM@HtmlHelpA?$AA@ 0045b98c     nafxcw:wincore.obj
 0002:00003998       ??_C@_0L@EFKJKBHF@hhctrl?4ocx?$AA@ 0045b998     nafxcw:wincore.obj
 0002:000039a4       ??_C@_06JPEMHIKE@?$CD32768?$AA@ 0045b9a4     nafxcw:wincore.obj
 0002:000039ac       ??_C@_03MABAFPPL@ime?$AA@  0045b9ac     nafxcw:wincore.obj
 0002:000039b0       ??_C@_0BF@NHDBJBLA@commctrl_DragListMsg?$AA@ 0045b9b0     nafxcw:wincore.obj
 0002:000039c8       ?classCRgn@CRgn@@2UCRuntimeClass@@B 0045b9c8     nafxcw:wingdi.obj
 0002:000039e4       ??_C@_04PBGMHGNO@CRgn?$AA@ 0045b9e4     nafxcw:wingdi.obj
 0002:000039ec       ?classCPalette@CPalette@@2UCRuntimeClass@@B 0045b9ec     nafxcw:wingdi.obj
 0002:00003a08       ??_C@_08HMFDPLN@CPalette?$AA@ 0045ba08     nafxcw:wingdi.obj
 0002:00003a14       ?classCBitmap@CBitmap@@2UCRuntimeClass@@B 0045ba14     nafxcw:wingdi.obj
 0002:00003a30       ??_C@_07GCJEGOGK@CBitmap?$AA@ 0045ba30     nafxcw:wingdi.obj
 0002:00003a38       ?classCFont@CFont@@2UCRuntimeClass@@B 0045ba38     nafxcw:wingdi.obj
 0002:00003a54       ??_C@_05HKBNDGPK@CFont?$AA@ 0045ba54     nafxcw:wingdi.obj
 0002:00003a5c       ?classCBrush@CBrush@@2UCRuntimeClass@@B 0045ba5c     nafxcw:wingdi.obj
 0002:00003a78       ??_C@_06HBIADAKF@CBrush?$AA@ 0045ba78     nafxcw:wingdi.obj
 0002:00003a80       ?classCPen@CPen@@2UCRuntimeClass@@B 0045ba80     nafxcw:wingdi.obj
 0002:00003a9c       ??_C@_04FIOBGKDL@CPen?$AA@ 0045ba9c     nafxcw:wingdi.obj
 0002:00003aa4       ?classCGdiObject@CGdiObject@@2UCRuntimeClass@@B 0045baa4     nafxcw:wingdi.obj
 0002:00003ac0       ??_C@_0L@EAFIEMIL@CGdiObject?$AA@ 0045bac0     nafxcw:wingdi.obj
 0002:00003acc       ?classCPaintDC@CPaintDC@@2UCRuntimeClass@@B 0045bacc     nafxcw:wingdi.obj
 0002:00003ae8       ??_C@_08MHGNPJKL@CPaintDC?$AA@ 0045bae8     nafxcw:wingdi.obj
 0002:00003af4       ?classCWindowDC@CWindowDC@@2UCRuntimeClass@@B 0045baf4     nafxcw:wingdi.obj
 0002:00003b10       ??_C@_09LJMOIHJC@CWindowDC?$AA@ 0045bb10     nafxcw:wingdi.obj
 0002:00003b1c       ?classCClientDC@CClientDC@@2UCRuntimeClass@@B 0045bb1c     nafxcw:wingdi.obj
 0002:00003b38       ??_C@_09CBCMPBPO@CClientDC?$AA@ 0045bb38     nafxcw:wingdi.obj
 0002:00003b44       ?classCDC@CDC@@2UCRuntimeClass@@B 0045bb44     nafxcw:wingdi.obj
 0002:00003b60       ??_C@_03PLNNOOOK@CDC?$AA@  0045bb60     nafxcw:wingdi.obj
 0002:00003b64       ?classCUserException@CUserException@@2UCRuntimeClass@@B 0045bb64     nafxcw:wingdi.obj
 0002:00003b80       ??_C@_0P@MCKPIMM@CUserException?$AA@ 0045bb80     nafxcw:wingdi.obj
 0002:00003b90       ?classCResourceException@CResourceException@@2UCRuntimeClass@@B 0045bb90     nafxcw:wingdi.obj
 0002:00003bac       ??_C@_0BD@LKICOBNI@CResourceException?$AA@ 0045bbac     nafxcw:wingdi.obj
 0002:00003bc0       ??_C@_09JABAGAIB@GetLayout?$AA@ 0045bbc0     nafxcw:wingdi.obj
 0002:00003bcc       ??_C@_09EKENDDFG@GDI32?4DLL?$AA@ 0045bbcc     nafxcw:wingdi.obj
 0002:00003bd8       ??_C@_09LOFFEBBD@SetLayout?$AA@ 0045bbd8     nafxcw:wingdi.obj
 0002:00003be8       ??_7CResourceException@@6B@ 0045bbe8     nafxcw:wingdi.obj
 0002:00003c00       ??_7CUserException@@6B@    0045bc00     nafxcw:wingdi.obj
 0002:00003c18       ??_7CGdiObject@@6B@        0045bc18     nafxcw:wingdi.obj
 0002:00003c2c       ??_7CDC@@6B@               0045bc2c     nafxcw:wingdi.obj
 0002:00003cac       ??_7CClientDC@@6B@         0045bcac     nafxcw:wingdi.obj
 0002:00003d2c       ??_7CWindowDC@@6B@         0045bd2c     nafxcw:wingdi.obj
 0002:00003dac       ??_7CPaintDC@@6B@          0045bdac     nafxcw:wingdi.obj
 0002:00003e28       ??_7CBrush@@6B@            0045be28     nafxcw:wingdi.obj
 0002:00003e38       ??_7CBitmap@@6B@           0045be38     nafxcw:wingdi.obj
 0002:00003e48       ??_7CPen@@6B@              0045be48     nafxcw:wingdi.obj
 0002:00003e94       ?classCMenu@CMenu@@2UCRuntimeClass@@B 0045be94     nafxcw:winmenu.obj
 0002:00003eb0       ??_C@_05HLGLNGMO@CMenu?$AA@ 0045beb0     nafxcw:winmenu.obj
 0002:00003ebc       ??_7CFont@@6B@             0045bebc     nafxcw:winmenu.obj
 0002:00003ecc       ??_7CMenu@@6B@             0045becc     nafxcw:winmenu.obj
 0002:00003ee4       ??_7CChevronOwnerDrawMenu@@6B@ 0045bee4     nafxcw:winmenu.obj
 0002:00003ef8       ?classCWinApp@CWinApp@@2UCRuntimeClass@@B 0045bef8     nafxcw:appcore.obj
 0002:00003f14       ??_C@_07IKCCILOB@CWinApp?$AA@ 0045bf14     nafxcw:appcore.obj
 0002:00003f1c       ?messageMap@CWinApp@@1UAFX_MSGMAP@@B 0045bf1c     nafxcw:appcore.obj
 0002:00003f28       ?_messageEntries@CWinApp@@0QBUAFX_MSGMAP_ENTRY@@B 0045bf28     nafxcw:appcore.obj
 0002:00003f88       ?_afxPreviewEntry@@3QBDB   0045bf88     nafxcw:appcore.obj
 0002:00003f98       ?_afxPreviewSection@@3QBDB 0045bf98     nafxcw:appcore.obj
 0002:00003fa4       ?_afxFileEntry@@3QBDB      0045bfa4     nafxcw:appcore.obj
 0002:00003fac       ?_afxFileSection@@3QBDB    0045bfac     nafxcw:appcore.obj
 0002:00003fc0       ??_C@_03KPOLBBFN@LOC?$AA@  0045bfc0     nafxcw:appcore.obj
 0002:00003fc4       ??_C@_09FLKFJBLM@ntdll?4dll?$AA@ 0045bfc4     nafxcw:appcore.obj
 0002:00003fd0       ??_C@_02NJNOFBBI@?$CFx?$AA@ 0045bfd0     nafxcw:appcore.obj
 0002:00003fd4       ??_C@_0CF@EJNEJPGJ@Control?5Panel?2Desktop?2ResourceLo@ 0045bfd4     nafxcw:appcore.obj
 0002:00003ffc       ??_C@_0BL@ILHANBAM@GetSystemDefaultUILanguage?$AA@ 0045bffc     nafxcw:appcore.obj
 0002:00004018       ??_C@_0BJ@DKKDGADA@GetUserDefaultUILanguage?$AA@ 0045c018     nafxcw:appcore.obj
 0002:00004034       ??_C@_0N@MDJJJHMB@kernel32?4dll?$AA@ 0045c034     nafxcw:appcore.obj
 0002:00004044       ??_C@_09KMKHKKMC@NoFileMru?$AA@ 0045c044     nafxcw:appcore.obj
 0002:00004050       ??_C@_0N@GNMJFKCB@NoBackButton?$AA@ 0045c050     nafxcw:appcore.obj
 0002:00004060       ??_C@_0M@LIECBDAG@NoPlacesBar?$AA@ 0045c060     nafxcw:appcore.obj
 0002:0000406c       ??_C@_0DM@DBCEKDOL@Software?2Microsoft?2Windows?2Curre@ 0045c06c     nafxcw:appcore.obj
 0002:000040a8       ??_C@_0BA@FOHNNHBN@NoEntireNetwork?$AA@ 0045c0a8     nafxcw:appcore.obj
 0002:000040b8       ??_C@_0DL@MECMLIJJ@Software?2Microsoft?2Windows?2Curre@ 0045c0b8     nafxcw:appcore.obj
 0002:000040f4       ??_C@_07CDECIAHF@NoClose?$AA@ 0045c0f4     nafxcw:appcore.obj
 0002:000040fc       ??_C@_0BE@BCHLKPOG@NoRecentDocsHistory?$AA@ 0045c0fc     nafxcw:appcore.obj
 0002:00004110       ??_C@_0BH@DOFDNNBH@NoNetConnectDisconnect?$AA@ 0045c110     nafxcw:appcore.obj
 0002:00004128       ??_C@_0M@HPPBOEKA@RestrictRun?$AA@ 0045c128     nafxcw:appcore.obj
 0002:00004134       ??_C@_08GALLLFPB@NoDrives?$AA@ 0045c134     nafxcw:appcore.obj
 0002:00004140       ??_C@_05KIENPOGH@NoRun?$AA@ 0045c140     nafxcw:appcore.obj
 0002:00004148       ??_C@_0DM@GGDFFNEK@Software?2Microsoft?2Windows?2Curre@ 0045c148     nafxcw:appcore.obj
 0002:00004184       ??_C@_06DAJAKOAL@?$CFs?4dll?$AA@ 0045c184     nafxcw:appcore.obj
 0002:0000418c       ??_C@_0L@OMBKCDEG@Automation?$AA@ 0045c18c     nafxcw:appcore.obj
 0002:00004198       ??_C@_09FDIGMGBI@Embedding?$AA@ 0045c198     nafxcw:appcore.obj
 0002:000041a4       ??_C@_03DNKLLMKJ@dde?$AA@  0045c1a4     nafxcw:appcore.obj
 0002:000041a8       ??_C@_0M@HNMJLFB@Unregserver?$AA@ 0045c1a8     nafxcw:appcore.obj
 0002:000041b4       ??_C@_0L@HMDBNNKI@Unregister?$AA@ 0045c1b4     nafxcw:appcore.obj
 0002:000041c0       ??_C@_09HGKEKGLK@Regserver?$AA@ 0045c1c0     nafxcw:appcore.obj
 0002:000041cc       ??_C@_08LFIJLPOM@Register?$AA@ 0045c1cc     nafxcw:appcore.obj
 0002:000041d8       ??_C@_01JBBJJEPG@p?$AA@    0045c1d8     nafxcw:appcore.obj
 0002:000041dc       ??_C@_02BPBMPCEP@pt?$AA@   0045c1dc     nafxcw:appcore.obj
 0002:000041e4       ??_7CWinApp@@6B@           0045c1e4     nafxcw:appcore.obj
 0002:000042a0       ??_7CCommandLineInfo@@6B@  0045c2a0     nafxcw:appcore.obj
 0002:000042b0       ?classCPtrArray@CPtrArray@@2UCRuntimeClass@@B 0045c2b0     nafxcw:array_p.obj
 0002:000042cc       ??_C@_09HJIPFFON@CPtrArray?$AA@ 0045c2cc     nafxcw:array_p.obj
 0002:000042dc       ??_7CPtrArray@@6B@         0045c2dc     nafxcw:array_p.obj
 0002:000042ec       ??_7CRgn@@6B@              0045c2ec     nafxcw:wingdix.obj
 0002:000042f8       ??_C@_08CGFBBPDL@software?$AA@ 0045c2f8     nafxcw:appui3.obj
 0002:00004304       ??_C@_04LNAHJAOD@?2?4?4?4?$AA@ 0045c304     nafxcw:filelist.obj
 0002:00004310       ??_7CRecentFileList@@6B@   0045c310     nafxcw:filelist.obj
 0002:0000432c       ??_C@_04DKOKMKBE@?$CG?$CFd?5?$AA@ 0045c32c     nafxcw:filelist.obj
 0002:00004334       ??_C@_04JBCKKIAE@1?$CG0?5?$AA@ 0045c334     nafxcw:filelist.obj
 0002:0000433c       ??_C@_03JDANDILB@?$CFd?5?$AA@ 0045c33c     nafxcw:filelist.obj
 0002:00004340       ??_C@_06FHFOAHML@system?$AA@ 0045c340     nafxcw:appui2.obj
 0002:00004348       ??_C@_09OIHOKJLD@Software?2?$AA@ 0045c348     nafxcw:appui2.obj
 0002:00004354       ??_C@_04PKIPNKLG@?4INI?$AA@ 0045c354     nafxcw:appinit.obj
 0002:0000435c       ??_C@_04NKLHMAKF@?4HLP?$AA@ 0045c35c     nafxcw:appinit.obj
 0002:00004364       ??_C@_04PFNDIDGE@?4CHM?$AA@ 0045c364     nafxcw:appinit.obj
 0002:0000436c       ??_C@_0P@IGJNGFKD@NotifyWinEvent?$AA@ 0045c36c     nafxcw:appinit.obj
 0002:0000437c       ??_C@_0L@GMPLCCII@user32?4dll?$AA@ 0045c37c     nafxcw:appinit.obj
 0002:00004388       ?classCFile@CFile@@2UCRuntimeClass@@B 0045c388     nafxcw:filecore.obj
 0002:000043a4       ??_C@_05PCLJOFI@CFile?$AA@ 0045c3a4     nafxcw:filecore.obj
 0002:000043ac       ?hFileNull@CFile@@2QAXA    0045c3ac     nafxcw:filecore.obj
 0002:000043b0       _afxIID_IShellLinkA        0045c3b0     nafxcw:filecore.obj
 0002:000043c0       _afxCLSID_ShellLink        0045c3c0     nafxcw:filecore.obj
 0002:000043d4       ??_7CFile@@6B@             0045c3d4     nafxcw:filecore.obj
 0002:0000442c       ??_7CFileException@@6B@    0045c42c     nafxcw:filecore.obj
 0002:00004440       ??_C@_0P@MFAFNMBE@InProcServer32?$AA@ 0045c440     nafxcw:filecore.obj
 0002:00004450       ??_C@_0DD@KLACBBLO@?$HL?$CF08X?9?$CF04X?9?$CF04X?9?$CF02X?$CF02X?9?$CF02X?$CF02@ 0045c450     nafxcw:filecore.obj
 0002:00004484       ??_C@_0BC@JDLGBILA@DllGetClassObject?$AA@ 0045c484     nafxcw:filecore.obj
 0002:00004498       ?classCFileException@CFileException@@2UCRuntimeClass@@B 0045c498     nafxcw:filex.obj
 0002:000044b4       ??_C@_0P@ICMFMKFO@CFileException?$AA@ 0045c4b4     nafxcw:filex.obj
 0002:000044c4       ?classCDocManager@CDocManager@@2UCRuntimeClass@@B 0045c4c4     nafxcw:docmgr.obj
 0002:000044e0       ??_C@_0M@BMFFKJNO@CDocManager?$AA@ 0045c4e0     nafxcw:docmgr.obj
 0002:000044ec       ?messageMap@CNewTypeDlg@@1UAFX_MSGMAP@@B 0045c4ec     nafxcw:docmgr.obj
 0002:000044f4       ?_messageEntries@CNewTypeDlg@@0QBUAFX_MSGMAP_ENTRY@@B 0045c4f4     nafxcw:docmgr.obj
 0002:00004524       ?_afxShellNewValue@@3QBDB  0045c524     nafxcw:docmgr.obj
 0002:00004528       ?_afxShellNewValueName@@3QBDB 0045c528     nafxcw:docmgr.obj
 0002:00004534       ?_afxDDEPrintTo@@3QBDB     0045c534     nafxcw:docmgr.obj
 0002:00004554       ?_afxDDEPrint@@3QBDB       0045c554     nafxcw:docmgr.obj
 0002:00004564       ?_afxDDEOpen@@3QBDB        0045c564     nafxcw:docmgr.obj
 0002:00004574       ?_afxDDEExec@@3QBDB        0045c574     nafxcw:docmgr.obj
 0002:0000457c       ?_afxDDEArg@@3QBDB         0045c57c     nafxcw:docmgr.obj
 0002:00004584       ?_afxPrintToArg@@3QBDB     0045c584     nafxcw:docmgr.obj
 0002:000045a0       ?_afxPrintArg@@3QBDB       0045c5a0     nafxcw:docmgr.obj
 0002:000045ac       ?_afxOpenArg@@3QBDB        0045c5ac     nafxcw:docmgr.obj
 0002:000045b4       ?_afxCommand@@3QBDB        0045c5b4     nafxcw:docmgr.obj
 0002:000045bc       ?_afxIconIndexFmt@@3QBDB   0045c5bc     nafxcw:docmgr.obj
 0002:000045c0       ?_afxShellNewFmt@@3QBDB    0045c5c0     nafxcw:docmgr.obj
 0002:000045cc       ?_afxDefaultIconFmt@@3QBDB 0045c5cc     nafxcw:docmgr.obj
 0002:000045dc       ?_afxShellPrintToFmt@@3QBDB 0045c5dc     nafxcw:docmgr.obj
 0002:000045f0       ?_afxShellPrintFmt@@3QBDB  0045c5f0     nafxcw:docmgr.obj
 0002:00004604       ?_afxShellOpenFmt@@3QBDB   0045c604     nafxcw:docmgr.obj
 0002:0000461c       ??_7CNewTypeDlg@@6B@       0045c61c     nafxcw:docmgr.obj
 0002:0000477c       ??_7CDocManager@@6B@       0045c77c     nafxcw:docmgr.obj
 0002:000047b8       ??_C@_03EMIMMIHL@?$CK?4?$CK?$AA@ 0045c7b8     nafxcw:docmgr.obj
 0002:000047bc       ??_C@_03ECGFLOPC@?$CC?0?$CC?$AA@ 0045c7bc     nafxcw:docmgr.obj
 0002:000047c0       ??_C@_0L@JNJOEJGF@?$FLprintto?$CI?$CC?$AA@ 0045c7c0     nafxcw:docmgr.obj
 0002:000047cc       ??_C@_08ECBOJFGF@?$FLprint?$CI?$CC?$AA@ 0045c7cc     nafxcw:docmgr.obj
 0002:000047d8       ??_C@_07PPIKNHLO@?$FLopen?$CI?$CC?$AA@ 0045c7d8     nafxcw:docmgr.obj
 0002:000047e0       ?classCDialog@CDialog@@2UCRuntimeClass@@B 0045c7e0     nafxcw:dlgcore.obj
 0002:000047fc       ??_C@_07BOOFINFL@CDialog?$AA@ 0045c7fc     nafxcw:dlgcore.obj
 0002:00004804       ?messageMap@CDialog@@1UAFX_MSGMAP@@B 0045c804     nafxcw:dlgcore.obj
 0002:00004810       ?_messageEntries@CDialog@@0QBUAFX_MSGMAP_ENTRY@@B 0045c810     nafxcw:dlgcore.obj
 0002:000048d4       ??_7CDialog@@6B@           0045c8d4     nafxcw:dlgcore.obj
 0002:00004a2c       ??_C@_04BBNPPDNC@Edit?$AA@ 0045ca2c     nafxcw:dlgcore.obj
 0002:00004a34       ??_C@_0N@GHCGDJFB@MS?5Shell?5Dlg?$AA@ 0045ca34     nafxcw:dlgcore.obj
 0002:00004a44       ?classCFileDialog@CFileDialog@@2UCRuntimeClass@@B 0045ca44     nafxcw:dlgfile.obj
 0002:00004a60       ??_C@_0M@NBKOBECK@CFileDialog?$AA@ 0045ca60     nafxcw:dlgfile.obj
 0002:00004a74       ??_7CFileDialog@@6B@       0045ca74     nafxcw:dlgfile.obj
 0002:00004be8       ??_C@_0DF@EEPGJILL@ABCDEFGHIJKLMNOPQRSTUVWXYZabcdef@ 0045cbe8     nafxcw:dlgtempl.obj
 0002:00004c20       ??_C@_06JIODDOFH@System?$AA@ 0045cc20     nafxcw:dlgtempl.obj
 0002:00004c28       ?messageMap@CCommonDialog@@1UAFX_MSGMAP@@B 0045cc28     nafxcw:dlgcomm.obj
 0002:00004c30       ?_messageEntries@CCommonDialog@@0QBUAFX_MSGMAP_ENTRY@@B 0045cc30     nafxcw:dlgcomm.obj
 0002:00004c78       ??_C@_0BE@IEIONKOG@commdlg_SetRGBColor?$AA@ 0045cc78     nafxcw:dlgcomm.obj
 0002:00004c8c       ??_C@_0N@FIGHHFHB@commdlg_help?$AA@ 0045cc8c     nafxcw:dlgcomm.obj
 0002:00004c9c       ??_C@_0BA@JPAMGOEO@commdlg_ColorOK?$AA@ 0045cc9c     nafxcw:dlgcomm.obj
 0002:00004cac       ??_C@_0BD@BNBCEAFM@commdlg_FileNameOK?$AA@ 0045ccac     nafxcw:dlgcomm.obj
 0002:00004cc0       ??_C@_0BH@HGKAGIJK@commdlg_ShareViolation?$AA@ 0045ccc0     nafxcw:dlgcomm.obj
 0002:00004cd8       ??_C@_0BL@OFBDHBNO@commdlg_LBSelChangedNotify?$AA@ 0045ccd8     nafxcw:dlgcomm.obj
 0002:00004d28       ??_7exception@@6B@         0045cd28     libcmt:stdexcpt.obj
 0002:00004d30       ??_C@_0BC@EOODALEL@Unknown?5exception?$AA@ 0045cd30     libcmt:stdexcpt.obj
 0002:00004d48       ??_7bad_cast@@6B@          0045cd48     libcmt:stdexcpt.obj
 0002:00004d54       ??_7bad_typeid@@6B@        0045cd54     libcmt:stdexcpt.obj
 0002:00004d60       ??_7__non_rtti_object@@6B@ 0045cd60     libcmt:stdexcpt.obj
 0002:00004d6c       ??_7type_info@@6B@         0045cd6c     libcmt:typinfo.obj
 0002:00004d8c       ??_C@_08JCCMCCIL@HH?3mm?3ss?$AA@ 0045cd8c     libcmt:strftime.obj
 0002:00004d98       ??_C@_0BE@CKGJFCPC@dddd?0?5MMMM?5dd?0?5yyyy?$AA@ 0045cd98     libcmt:strftime.obj
 0002:00004dac       ??_C@_08BPBNCDIB@MM?1dd?1yy?$AA@ 0045cdac     libcmt:strftime.obj
 0002:00004db8       ??_C@_02CJNFDJBF@PM?$AA@   0045cdb8     libcmt:strftime.obj
 0002:00004dbc       ??_C@_02DEDBPAFC@AM?$AA@   0045cdbc     libcmt:strftime.obj
 0002:00004dc0       ??_C@_08EDHMEBNP@December?$AA@ 0045cdc0     libcmt:strftime.obj
 0002:00004dcc       ??_C@_08HCHEGEOA@November?$AA@ 0045cdcc     libcmt:strftime.obj
 0002:00004dd8       ??_C@_07JJNFCEND@October?$AA@ 0045cdd8     libcmt:strftime.obj
 0002:00004de0       ??_C@_09BHHEALKD@September?$AA@ 0045cde0     libcmt:strftime.obj
 0002:00004dec       ??_C@_06LBBHFDDG@August?$AA@ 0045cdec     libcmt:strftime.obj
 0002:00004df4       ??_C@_04MIEPOIFP@July?$AA@ 0045cdf4     libcmt:strftime.obj
 0002:00004dfc       ??_C@_04CNLMGBGM@June?$AA@ 0045cdfc     libcmt:strftime.obj
 0002:00004e04       ??_C@_05DMJDNLEJ@April?$AA@ 0045ce04     libcmt:strftime.obj
 0002:00004e0c       ??_C@_05HPCKOFNC@March?$AA@ 0045ce0c     libcmt:strftime.obj
 0002:00004e14       ??_C@_08GNJGEPFN@February?$AA@ 0045ce14     libcmt:strftime.obj
 0002:00004e20       ??_C@_07CGJPFGJA@January?$AA@ 0045ce20     libcmt:strftime.obj
 0002:00004e28       ??_C@_03MKABNOCG@Dec?$AA@  0045ce28     libcmt:strftime.obj
 0002:00004e2c       ??_C@_03JPJOFNIA@Nov?$AA@  0045ce2c     libcmt:strftime.obj
 0002:00004e30       ??_C@_03BMAOKBAD@Oct?$AA@  0045ce30     libcmt:strftime.obj
 0002:00004e34       ??_C@_03GGCAPAJC@Sep?$AA@  0045ce34     libcmt:strftime.obj
 0002:00004e38       ??_C@_03IFJFEIGA@Aug?$AA@  0045ce38     libcmt:strftime.obj
 0002:00004e3c       ??_C@_03LBGABGKK@Jul?$AA@  0045ce3c     libcmt:strftime.obj
 0002:00004e40       ??_C@_03IDFGHECI@Jun?$AA@  0045ce40     libcmt:strftime.obj
 0002:00004e44       ??_C@_03CNMDKL@May?$AA@    0045ce44     libcmt:strftime.obj
 0002:00004e48       ??_C@_03LEOLGMJP@Apr?$AA@  0045ce48     libcmt:strftime.obj
 0002:00004e4c       ??_C@_03ODNJBKGA@Mar?$AA@  0045ce4c     libcmt:strftime.obj
 0002:00004e50       ??_C@_03HJBDCHOM@Feb?$AA@  0045ce50     libcmt:strftime.obj
 0002:00004e54       ??_C@_03JIHJHPIE@Jan?$AA@  0045ce54     libcmt:strftime.obj
 0002:00004e58       ??_C@_08INBOOONO@Saturday?$AA@ 0045ce58     libcmt:strftime.obj
 0002:00004e64       ??_C@_06JECMNKMI@Friday?$AA@ 0045ce64     libcmt:strftime.obj
 0002:00004e6c       ??_C@_08HACCIKIA@Thursday?$AA@ 0045ce6c     libcmt:strftime.obj
 0002:00004e78       ??_C@_09DLIGFAKA@Wednesday?$AA@ 0045ce78     libcmt:strftime.obj
 0002:00004e84       ??_C@_07BAAGCFCM@Tuesday?$AA@ 0045ce84     libcmt:strftime.obj
 0002:00004e8c       ??_C@_06JLEDEDGH@Monday?$AA@ 0045ce8c     libcmt:strftime.obj
 0002:00004e94       ??_C@_06OOPIFAJ@Sunday?$AA@ 0045ce94     libcmt:strftime.obj
 0002:00004e9c       ??_C@_03FEFJNEK@Sat?$AA@   0045ce9c     libcmt:strftime.obj
 0002:00004ea0       ??_C@_03IDIOELNC@Fri?$AA@  0045cea0     libcmt:strftime.obj
 0002:00004ea4       ??_C@_03IOFIKPDN@Thu?$AA@  0045cea4     libcmt:strftime.obj
 0002:00004ea8       ??_C@_03MHOMLAJA@Wed?$AA@  0045cea8     libcmt:strftime.obj
 0002:00004eac       ??_C@_03NAGEINEP@Tue?$AA@  0045ceac     libcmt:strftime.obj
 0002:00004eb0       ??_C@_03PDAGKDH@Mon?$AA@   0045ceb0     libcmt:strftime.obj
 0002:00004eb4       ??_C@_03KOEHGMDN@Sun?$AA@  0045ceb4     libcmt:strftime.obj
 0002:00004eb8       ??_C@_03EBAPMIKO@a?1p?$AA@ 0045ceb8     libcmt:strftime.obj
 0002:00004ebc       ??_C@_05JAMEPDIN@am?1pm?$AA@ 0045cebc     libcmt:strftime.obj
 0002:0000506c       ??_C@_0P@MIGLKIOC@CorExitProcess?$AA@ 0045d06c     libcmt:crt0dat.obj
 0002:0000507c       ??_C@_0M@MBOPBNBK@mscoree?4dll?$AA@ 0045d07c     libcmt:crt0dat.obj
 0002:00005130       ??_C@_07PEJMOBNF@FlsFree?$AA@ 0045d130     libcmt:tidtable.obj
 0002:00005138       ??_C@_0M@JCPCPOEF@FlsSetValue?$AA@ 0045d138     libcmt:tidtable.obj
 0002:00005144       ??_C@_0M@GDNOONDI@FlsGetValue?$AA@ 0045d144     libcmt:tidtable.obj
 0002:00005150       ??_C@_08KNHFBNJ@FlsAlloc?$AA@ 0045d150     libcmt:tidtable.obj
 0002:0000517c       ??_C@_0CF@GOGNBNAK@Microsoft?5Visual?5C?$CL?$CL?5Runtime?5Lib@ 0045d17c     libcmt:secfail.obj
 0002:000051a4       ??_C@_09KLGCKDOD@Program?3?5?$AA@ 0045d1a4     libcmt:secfail.obj
 0002:000051b0       ??_C@_03KHICJKCI@?4?4?4?$AA@ 0045d1b0     libcmt:secfail.obj
 0002:000051b4       ??_C@_0BH@DNAGHKFM@?$DMprogram?5name?5unknown?$DO?$AA@ 0045d1b4     libcmt:secfail.obj
 0002:000051d0       ??_C@_0KA@JEHFIFGP@A?5buffer?5overrun?5has?5been?5detect@ 0045d1d0     libcmt:secfail.obj
 0002:00005270       ??_C@_0BJ@MDEKIEOJ@Buffer?5overrun?5detected?$CB?$AA@ 0045d270     libcmt:secfail.obj
 0002:00005290       ??_C@_0LB@BPLHHLFD@A?5security?5error?5of?5unknown?5caus@ 0045d290     libcmt:secfail.obj
 0002:00005344       ??_C@_0CD@GMKACBEK@Unknown?5security?5failure?5detecte@ 0045d344     libcmt:secfail.obj
 0002:00005508       ??_C@_07LCBHPJJN@LC_TIME?$AA@ 0045d508     libcmt:setlocal.obj
 0002:00005510       ??_C@_0L@DLHIECNL@LC_NUMERIC?$AA@ 0045d510     libcmt:setlocal.obj
 0002:0000551c       ??_C@_0M@MIENIKLA@LC_MONETARY?$AA@ 0045d51c     libcmt:setlocal.obj
 0002:00005528       ??_C@_08EADHIDAD@LC_CTYPE?$AA@ 0045d528     libcmt:setlocal.obj
 0002:00005534       ??_C@_0L@KFJHEKIK@LC_COLLATE?$AA@ 0045d534     libcmt:setlocal.obj
 0002:00005540       ??_C@_06NEFDFEKB@LC_ALL?$AA@ 0045d540     libcmt:setlocal.obj
 0002:00005548       ??_C@_03EGDHDPFD@_?4?0?$AA@ 0045d548     libcmt:setlocal.obj
 0002:0000554c       ??_C@_01LFCBOECM@?4?$AA@   0045d54c     libcmt:setlocal.obj
 0002:00005550       ??_C@_01IDAFKMJL@_?$AA@    0045d550     libcmt:setlocal.obj
 0002:00005564       ??_C@_01NEMOKFLO@?$DN?$AA@ 0045d564     libcmt:setlocal.obj
 0002:00005568       ??_C@_02BALPLPBG@?$DN?$DL?$AA@ 0045d568     libcmt:setlocal.obj
 0002:0000557c       ___dnames                  0045d57c     libcmt:timeset.obj
 0002:00005594       ___mnames                  0045d594     libcmt:timeset.obj
 0002:000055bc       ??_C@_02CLFPBFFP@TZ?$AA@   0045d5bc     libcmt:tzset.obj
 0002:00005600       ___lookuptable             0045d600     libcmt:output.obj
 0002:0000565c       ??_C@_1O@CEDCILHN@?$AA?$CI?$AAn?$AAu?$AAl?$AAl?$AA?$CJ?$AA?$AA@ 0045d65c     libcmt:output.obj
 0002:0000566c       ??_C@_13NOLLCAOD@?$AA?$AA?$AA?$AA@ 0045d66c     libcmt:a_map.obj
 0002:00005694       ??_C@_05KLBDPFGC@e?$CL000?$AA@ 0045d694     libcmt:cvt.obj
 0002:000056a0       __real@3ff0000000000000    0045d6a0     libcmt:testfdiv.obj
 0002:000056a8       __real@4150017ec0000000    0045d6a8     libcmt:testfdiv.obj
 0002:000056b0       __real@4147ffff80000000    0045d6b0     libcmt:testfdiv.obj
 0002:000056b8       ??_C@_0BK@NHEOCAHP@IsProcessorFeaturePresent?$AA@ 0045d6b8     libcmt:testfdiv.obj
 0002:000056d4       ??_C@_08CPNIBGIE@KERNEL32?$AA@ 0045d6d4     libcmt:testfdiv.obj
 0002:00005780       ___newctype                0045d780     libcmt:ctype.obj
 0002:00005a80       __wctype                   0045da80     libcmt:ctype.obj
 0002:00005cbc       ??_C@_0P@GGKDKEEG@runtime?5error?5?$AA@ 0045dcbc     libcmt:crt0msg.obj
 0002:00005ccc       ??_C@_02PCIJFNDE@?$AN?6?$AA@ 0045dccc     libcmt:crt0msg.obj
 0002:00005cd0       ??_C@_0O@MJNIPGOH@TLOSS?5error?$AN?6?$AA@ 0045dcd0     libcmt:crt0msg.obj
 0002:00005ce0       ??_C@_0N@BONNPDHF@SING?5error?$AN?6?$AA@ 0045dce0     libcmt:crt0msg.obj
 0002:00005cf0       ??_C@_0P@MBDAJNE@DOMAIN?5error?$AN?6?$AA@ 0045dcf0     libcmt:crt0msg.obj
 0002:00005d00       ??_C@_0KC@BDDGGBEJ@R6029?$AN?6?9?5This?5application?5cannot@ 0045dd00     libcmt:crt0msg.obj
 0002:00005da4       ??_C@_0CF@KJDAIALP@R6028?$AN?6?9?5unable?5to?5initialize?5he@ 0045dda4     libcmt:crt0msg.obj
 0002:00005dcc       ??_C@_0DF@GAKBPDFP@R6027?$AN?6?9?5not?5enough?5space?5for?5lo@ 0045ddcc     libcmt:crt0msg.obj
 0002:00005e04       ??_C@_0DF@IBLNNAIG@R6026?$AN?6?9?5not?5enough?5space?5for?5st@ 0045de04     libcmt:crt0msg.obj
 0002:00005e3c       ??_C@_0CG@IOHKGFNJ@R6025?$AN?6?9?5pure?5virtual?5function?5c@ 0045de3c     libcmt:crt0msg.obj
 0002:00005e64       ??_C@_0DF@JIJJFJDC@R6024?$AN?6?9?5not?5enough?5space?5for?5_o@ 0045de64     libcmt:crt0msg.obj
 0002:00005e9c       ??_C@_0CJ@EGEJHFME@R6019?$AN?6?9?5unable?5to?5open?5console?5@ 0045de9c     libcmt:crt0msg.obj
 0002:00005ec8       ??_C@_0CB@GNHNIELH@R6018?$AN?6?9?5unexpected?5heap?5error?$AN?6@ 0045dec8     libcmt:crt0msg.obj
 0002:00005eec       ??_C@_0CN@FOLDKNG@R6017?$AN?6?9?5unexpected?5multithread?5@ 0045deec     libcmt:crt0msg.obj
 0002:00005f1c       ??_C@_0CM@FAHFJNHO@R6016?$AN?6?9?5not?5enough?5space?5for?5th@ 0045df1c     libcmt:crt0msg.obj
 0002:00005f48       ??_C@_0JG@LBKMGKLD@?$AN?6This?5application?5has?5requested@ 0045df48     libcmt:crt0msg.obj
 0002:00005fe0       ??_C@_0CM@FLCNIPKK@R6009?$AN?6?9?5not?5enough?5space?5for?5en@ 0045dfe0     libcmt:crt0msg.obj
 0002:0000600c       ??_C@_0CK@KMMJOAPP@R6008?$AN?6?9?5not?5enough?5space?5for?5ar@ 0045e00c     libcmt:crt0msg.obj
 0002:00006038       ??_C@_0CF@HOHMHDEK@R6002?$AN?6?9?5floating?5point?5not?5load@ 0045e038     libcmt:crt0msg.obj
 0002:00006060       ??_C@_0BK@OFGJDLJJ@Runtime?5Error?$CB?6?6Program?3?5?$AA@ 0045e060     libcmt:crt0msg.obj
 0002:0000609c       ??_C@_0BI@DFKBFLJE@GetProcessWindowStation?$AA@ 0045e09c     libcmt:crtmbox.obj
 0002:000060b4       ??_C@_0BK@CIDNPOGP@GetUserObjectInformationA?$AA@ 0045e0b4     libcmt:crtmbox.obj
 0002:000060d0       ??_C@_0BD@HHGDFDBJ@GetLastActivePopup?$AA@ 0045e0d0     libcmt:crtmbox.obj
 0002:000060e4       ??_C@_0BA@HNOPNCHB@GetActiveWindow?$AA@ 0045e0e4     libcmt:crtmbox.obj
 0002:000060f4       ??_C@_0M@CHKKJDAI@MessageBoxA?$AA@ 0045e0f4     libcmt:crtmbox.obj
 0002:00006100       ??_C@_0CG@PKBDLMEO@InitializeCriticalSectionAndSpin@ 0045e100     libcmt:initcrit.obj
 0002:00006138       ___rgLocInfo               0045e138     libcmt:getqloc.obj
 0002:000065dc       ??_C@_08PKBIPKE@Paraguay?$AA@ 0045e5dc     libcmt:getqloc.obj
 0002:000065e8       ??_C@_07GHBIBIBP@Uruguay?$AA@ 0045e5e8     libcmt:getqloc.obj
 0002:000065f0       ??_C@_05HBNKAPDN@Chile?$AA@ 0045e5f0     libcmt:getqloc.obj
 0002:000065f8       ??_C@_07FEIFIPNF@Ecuador?$AA@ 0045e5f8     libcmt:getqloc.obj
 0002:00006600       ??_C@_09PGNFPGME@Argentina?$AA@ 0045e600     libcmt:getqloc.obj
 0002:0000660c       ??_C@_04IALPBJF@Peru?$AA@  0045e60c     libcmt:getqloc.obj
 0002:00006614       ??_C@_08IJPLNLKH@Colombia?$AA@ 0045e614     libcmt:getqloc.obj
 0002:00006620       ??_C@_09IDMFKCN@Venezuela?$AA@ 0045e620     libcmt:getqloc.obj
 0002:0000662c       ??_C@_0BD@DNEJOGOK@Dominican?5Republic?$AA@ 0045e62c     libcmt:getqloc.obj
 0002:00006640       ??_C@_0N@LPINDNDB@South?5Africa?$AA@ 0045e640     libcmt:getqloc.obj
 0002:00006650       ??_C@_06BLJPEOBG@Panama?$AA@ 0045e650     libcmt:getqloc.obj
 0002:00006658       ??_C@_0L@BOCNDGON@Luxembourg?$AA@ 0045e658     libcmt:getqloc.obj
 0002:00006664       ??_C@_0L@CONEHKA@Costa?5Rica?$AA@ 0045e664     libcmt:getqloc.obj
 0002:00006670       ??_C@_0M@KGBPELAM@Switzerland?$AA@ 0045e670     libcmt:getqloc.obj
 0002:0000667c       ??_C@_09FJGLIMAG@Guatemala?$AA@ 0045e67c     libcmt:getqloc.obj
 0002:00006688       ??_C@_06ECHIPDMK@Canada?$AA@ 0045e688     libcmt:getqloc.obj
 0002:00006690       ??_C@_0BG@CCEBNPGH@Spanish?5?9?5Modern?5Sort?$AA@ 0045e690     libcmt:getqloc.obj
 0002:000066a8       ??_C@_09EFGJAPAD@Australia?$AA@ 0045e6a8     libcmt:getqloc.obj
 0002:000066b4       ??_C@_07NEKHPBCG@English?$AA@ 0045e6b4     libcmt:getqloc.obj
 0002:000066bc       ??_C@_07LKIIOGFH@Austria?$AA@ 0045e6bc     libcmt:getqloc.obj
 0002:000066c4       ??_C@_06EDDDIONA@German?$AA@ 0045e6c4     libcmt:getqloc.obj
 0002:000066cc       ??_C@_07LIIIOFOA@Belgium?$AA@ 0045e6cc     libcmt:getqloc.obj
 0002:000066d4       ??_C@_06DIAOLLEH@Mexico?$AA@ 0045e6d4     libcmt:getqloc.obj
 0002:000066dc       ??_C@_07PFALJOGE@Spanish?$AA@ 0045e6dc     libcmt:getqloc.obj
 0002:000066e4       ??_C@_06FFOOPAJB@Basque?$AA@ 0045e6e4     libcmt:getqloc.obj
 0002:000066ec       ??_C@_06DGHNDJFJ@Sweden?$AA@ 0045e6ec     libcmt:getqloc.obj
 0002:000066f4       ??_C@_07OBINPKFN@Swedish?$AA@ 0045e6f4     libcmt:getqloc.obj
 0002:000066fc       ??_C@_07NCOIHDGC@Iceland?$AA@ 0045e6fc     libcmt:getqloc.obj
 0002:00006704       ??_C@_09JHBBDDIA@Icelandic?$AA@ 0045e704     libcmt:getqloc.obj
 0002:00006710       ??_C@_06COBCPIFO@France?$AA@ 0045e710     libcmt:getqloc.obj
 0002:00006718       ??_C@_06GODMCAND@French?$AA@ 0045e718     libcmt:getqloc.obj
 0002:00006720       ??_C@_07MFHPMOED@Finland?$AA@ 0045e720     libcmt:getqloc.obj
 0002:00006728       ??_C@_07MCEAMKOD@Finnish?$AA@ 0045e728     libcmt:getqloc.obj
 0002:00006730       ??_C@_05CBHOCCK@Spain?$AA@ 0045e730     libcmt:getqloc.obj
 0002:00006738       ??_C@_0BL@GIOEGDHB@Spanish?5?9?5Traditional?5Sort?$AA@ 0045e738     libcmt:getqloc.obj
 0002:00006754       ___rglangidNotDefault      0045e754     libcmt:getqloc.obj
 0002:00006768       ___rg_country              0045e768     libcmt:getqloc.obj
 0002:00006820       ??_C@_0O@FMJNFNKE@united?9states?$AA@ 0045e820     libcmt:getqloc.obj
 0002:00006830       ??_C@_0P@NDHFFKCA@united?9kingdom?$AA@ 0045e830     libcmt:getqloc.obj
 0002:00006840       ??_C@_0BC@HHDADLGF@trinidad?5?$CG?5tobago?$AA@ 0045e840     libcmt:getqloc.obj
 0002:00006854       ??_C@_0M@IOAEBDAC@south?9korea?$AA@ 0045e854     libcmt:getqloc.obj
 0002:00006860       ??_C@_0N@FIELFKIJ@south?9africa?$AA@ 0045e860     libcmt:getqloc.obj
 0002:00006870       ??_C@_0M@OPNDHCMC@south?5korea?$AA@ 0045e870     libcmt:getqloc.obj
 0002:0000687c       ??_C@_0N@MDEOEPFI@south?5africa?$AA@ 0045e87c     libcmt:getqloc.obj
 0002:0000688c       ??_C@_06FKAPCJLB@slovak?$AA@ 0045e88c     libcmt:getqloc.obj
 0002:00006894       ??_C@_0M@EFJANOAL@puerto?9rico?$AA@ 0045e894     libcmt:getqloc.obj
 0002:000068a0       ??_C@_08PGOJKDAI@pr?9china?$AA@ 0045e8a0     libcmt:getqloc.obj
 0002:000068ac       ??_C@_08JHDOMCMI@pr?5china?$AA@ 0045e8ac     libcmt:getqloc.obj
 0002:000068b8       ??_C@_02JHCHFBLL@nz?$AA@   0045e8b8     libcmt:getqloc.obj
 0002:000068bc       ??_C@_0M@LINHDHKP@new?9zealand?$AA@ 0045e8bc     libcmt:getqloc.obj
 0002:000068c8       ??_C@_09IIIPPBDB@hong?9kong?$AA@ 0045e8c8     libcmt:getqloc.obj
 0002:000068d4       ??_C@_07HJLCKBG@holland?$AA@ 0045e8d4     libcmt:getqloc.obj
 0002:000068dc       ??_C@_0O@LEHGMHAG@great?5britain?$AA@ 0045e8dc     libcmt:getqloc.obj
 0002:000068ec       ??_C@_07FACOMELA@england?$AA@ 0045e8ec     libcmt:getqloc.obj
 0002:000068f4       ??_C@_05JIHCEICB@czech?$AA@ 0045e8f4     libcmt:getqloc.obj
 0002:000068fc       ??_C@_05BBJOBLGB@china?$AA@ 0045e8fc     libcmt:getqloc.obj
 0002:00006904       ??_C@_07GPKPHICP@britain?$AA@ 0045e904     libcmt:getqloc.obj
 0002:0000690c       ??_C@_07MHIPBHMG@america?$AA@ 0045e90c     libcmt:getqloc.obj
 0002:00006918       ___rg_language             0045e918     libcmt:getqloc.obj
 0002:00006b20       ??_C@_03KIALPMKC@usa?$AA@  0045eb20     libcmt:getqloc.obj
 0002:00006b24       ??_C@_02FGJGKGGD@us?$AA@   0045eb24     libcmt:getqloc.obj
 0002:00006b28       ??_C@_02NEINDODK@uk?$AA@   0045eb28     libcmt:getqloc.obj
 0002:00006b2c       ??_C@_05JMPCFJFJ@swiss?$AA@ 0045eb2c     libcmt:getqloc.obj
 0002:00006b34       ??_C@_0BA@HLOCPIOD@swedish?9finland?$AA@ 0045eb34     libcmt:getqloc.obj
 0002:00006b44       ??_C@_0BC@PKCNIABK@spanish?9venezuela?$AA@ 0045eb44     libcmt:getqloc.obj
 0002:00006b58       ??_C@_0BA@GBHHMIJI@spanish?9uruguay?$AA@ 0045eb58     libcmt:getqloc.obj
 0002:00006b68       ??_C@_0BE@BHDOHPMC@spanish?9puerto?5rico?$AA@ 0045eb68     libcmt:getqloc.obj
 0002:00006b7c       ??_C@_0N@KMOIDGGN@spanish?9peru?$AA@ 0045eb7c     libcmt:getqloc.obj
 0002:00006b8c       ??_C@_0BB@HMHLPGPH@spanish?9paraguay?$AA@ 0045eb8c     libcmt:getqloc.obj
 0002:00006ba0       ??_C@_0P@MCPKNGFD@spanish?9panama?$AA@ 0045eba0     libcmt:getqloc.obj
 0002:00006bb0       ??_C@_0BC@IHOHGAIL@spanish?9nicaragua?$AA@ 0045ebb0     libcmt:getqloc.obj
 0002:00006bc4       ??_C@_0P@KLMJDNFJ@spanish?9modern?$AA@ 0045ebc4     libcmt:getqloc.obj
 0002:00006bd4       ??_C@_0BA@BPAPGBCM@spanish?9mexican?$AA@ 0045ebd4     libcmt:getqloc.obj
 0002:00006be4       ??_C@_0BB@PDECHHHE@spanish?9honduras?$AA@ 0045ebe4     libcmt:getqloc.obj
 0002:00006bf8       ??_C@_0BC@KLHKFGDB@spanish?9guatemala?$AA@ 0045ebf8     libcmt:getqloc.obj
 0002:00006c0c       ??_C@_0BE@MFOOKJAI@spanish?9el?5salvador?$AA@ 0045ec0c     libcmt:getqloc.obj
 0002:00006c20       ??_C@_0BA@FCOKFPFC@spanish?9ecuador?$AA@ 0045ec20     libcmt:getqloc.obj
 0002:00006c30       ??_C@_0BL@PLMGIMOO@spanish?9dominican?5republic?$AA@ 0045ec30     libcmt:getqloc.obj
 0002:00006c4c       ??_C@_0BD@HLGDNMHB@spanish?9costa?5rica?$AA@ 0045ec4c     libcmt:getqloc.obj
 0002:00006c60       ??_C@_0BB@PKCBKCPE@spanish?9colombia?$AA@ 0045ec60     libcmt:getqloc.obj
 0002:00006c74       ??_C@_0O@MCBIJGNE@spanish?9chile?$AA@ 0045ec74     libcmt:getqloc.obj
 0002:00006c84       ??_C@_0BA@BEFEIGJJ@spanish?9bolivia?$AA@ 0045ec84     libcmt:getqloc.obj
 0002:00006c94       ??_C@_0BC@EMECMPD@spanish?9argentina?$AA@ 0045ec94     libcmt:getqloc.obj
 0002:00006ca8       ??_C@_0BF@EALFLENP@portuguese?9brazilian?$AA@ 0045eca8     libcmt:getqloc.obj
 0002:00006cc0       ??_C@_0BC@HBLEBLNN@norwegian?9nynorsk?$AA@ 0045ecc0     libcmt:getqloc.obj
 0002:00006cd4       ??_C@_0BB@HMACDDCK@norwegian?9bokmal?$AA@ 0045ecd4     libcmt:getqloc.obj
 0002:00006ce8       ??_C@_09BAFFPPHE@norwegian?$AA@ 0045ece8     libcmt:getqloc.obj
 0002:00006cf4       ??_C@_0O@EAJFJDFG@italian?9swiss?$AA@ 0045ecf4     libcmt:getqloc.obj
 0002:00006d04       ??_C@_0O@CNOMPGD@irish?9english?$AA@ 0045ed04     libcmt:getqloc.obj
 0002:00006d14       ??_C@_0N@EDHBGCKG@german?9swiss?$AA@ 0045ed14     libcmt:getqloc.obj
 0002:00006d24       ??_C@_0BC@JACMHNBP@german?9luxembourg?$AA@ 0045ed24     libcmt:getqloc.obj
 0002:00006d38       ??_C@_0BE@HBGMGFEG@german?9lichtenstein?$AA@ 0045ed38     libcmt:getqloc.obj
 0002:00006d4c       ??_C@_0BA@HKKBIBKL@german?9austrian?$AA@ 0045ed4c     libcmt:getqloc.obj
 0002:00006d5c       ??_C@_0N@GCAEPEBK@french?9swiss?$AA@ 0045ed5c     libcmt:getqloc.obj
 0002:00006d6c       ??_C@_0BC@DJFJJCK@french?9luxembourg?$AA@ 0045ed6c     libcmt:getqloc.obj
 0002:00006d80       ??_C@_0BA@NNCEDFIC@french?9canadian?$AA@ 0045ed80     libcmt:getqloc.obj
 0002:00006d90       ??_C@_0P@CMPOCLM@french?9belgian?$AA@ 0045ed90     libcmt:getqloc.obj
 0002:00006da0       ??_C@_0M@GHHDJOK@english?9usa?$AA@ 0045eda0     libcmt:getqloc.obj
 0002:00006dac       ??_C@_0L@PLDJKEIL@english?9us?$AA@ 0045edac     libcmt:getqloc.obj
 0002:00006db8       ??_C@_0L@HJCCDMNC@english?9uk?$AA@ 0045edb8     libcmt:getqloc.obj
 0002:00006dc4       ??_C@_0BK@CKLIAGJB@english?9trinidad?5y?5tobago?$AA@ 0045edc4     libcmt:getqloc.obj
 0002:00006de0       ??_C@_0BF@JMJMGNNF@english?9south?5africa?$AA@ 0045ede0     libcmt:getqloc.obj
 0002:00006df8       ??_C@_0L@DKIIFDFD@english?9nz?$AA@ 0045edf8     libcmt:getqloc.obj
 0002:00006e04       ??_C@_0BA@ONHGJCLH@english?9jamaica?$AA@ 0045ee04     libcmt:getqloc.obj
 0002:00006e14       ??_C@_0M@HJBGHOPO@english?9ire?$AA@ 0045ee14     libcmt:getqloc.obj
 0002:00006e20       ??_C@_0BC@LFEKMIFB@english?9caribbean?$AA@ 0045ee20     libcmt:getqloc.obj
 0002:00006e34       ??_C@_0M@OLDPFKHI@english?9can?$AA@ 0045ee34     libcmt:getqloc.obj
 0002:00006e40       ??_C@_0P@OMDEHBMP@english?9belize?$AA@ 0045ee40     libcmt:getqloc.obj
 0002:00006e50       ??_C@_0M@KFHFPFED@english?9aus?$AA@ 0045ee50     libcmt:getqloc.obj
 0002:00006e5c       ??_C@_0BB@MNMBKDFE@english?9american?$AA@ 0045ee5c     libcmt:getqloc.obj
 0002:00006e70       ??_C@_0O@KIDLNNBA@dutch?9belgian?$AA@ 0045ee70     libcmt:getqloc.obj
 0002:00006e80       ??_C@_0BE@JBKABBMH@chinese?9traditional?$AA@ 0045ee80     libcmt:getqloc.obj
 0002:00006e94       ??_C@_0BC@MJJMPKCG@chinese?9singapore?$AA@ 0045ee94     libcmt:getqloc.obj
 0002:00006ea8       ??_C@_0BD@FDKADDCP@chinese?9simplified?$AA@ 0045eea8     libcmt:getqloc.obj
 0002:00006ebc       ??_C@_0BB@DBEFDDME@chinese?9hongkong?$AA@ 0045eebc     libcmt:getqloc.obj
 0002:00006ed0       ??_C@_07DHNMFMCI@chinese?$AA@ 0045eed0     libcmt:getqloc.obj
 0002:00006ed8       ??_C@_03FNDDCHI@chi?$AA@   0045eed8     libcmt:getqloc.obj
 0002:00006edc       ??_C@_03BMMIADDJ@chh?$AA@  0045eedc     libcmt:getqloc.obj
 0002:00006ee0       ??_C@_08OAIPJDGI@canadian?$AA@ 0045eee0     libcmt:getqloc.obj
 0002:00006eec       ??_C@_07HBPMNPNJ@belgian?$AA@ 0045eeec     libcmt:getqloc.obj
 0002:00006ef4       ??_C@_0L@OEKOPBEL@australian?$AA@ 0045eef4     libcmt:getqloc.obj
 0002:00006f00       ??_C@_0BB@MEIMBEDG@american?9english?$AA@ 0045ef00     libcmt:getqloc.obj
 0002:00006f14       ??_C@_0BB@DFMDPDGB@american?5english?$AA@ 0045ef14     libcmt:getqloc.obj
 0002:00006f28       ??_C@_08IJLOKOLL@american?$AA@ 0045ef28     libcmt:getqloc.obj
 0002:00006f34       ??_C@_03NFKLAGEF@OCP?$AA@  0045ef34     libcmt:getqloc.obj
 0002:00006f38       ??_C@_03DFHEHBHG@ACP?$AA@  0045ef38     libcmt:getqloc.obj
 0002:00006f3c       ??_C@_0BC@NFIEMBLL@Norwegian?9Nynorsk?$AA@ 0045ef3c     libcmt:getqloc.obj
 0002:00007004       ??_C@_06IMKFLFPG@1?$CDQNAN?$AA@ 0045f004     libcmt:x10fout.obj
 0002:0000700c       ??_C@_05DNEBIAHO@1?$CDINF?$AA@ 0045f00c     libcmt:x10fout.obj
 0002:00007014       ??_C@_05PHHOCPM@1?$CDIND?$AA@ 0045f014     libcmt:x10fout.obj
 0002:0000701c       ??_C@_06PGGFOGJG@1?$CDSNAN?$AA@ 0045f01c     libcmt:x10fout.obj
 0002:00007080       ??_7logic_error@std@@6B@   0045f080     libcpmt:string.obj
 0002:0000708c       ??_7length_error@std@@6B@  0045f08c     libcpmt:string.obj
 0002:00007098       ??_7out_of_range@std@@6B@  0045f098     libcpmt:string.obj
 0002:000070a0       ??_C@_0BI@CFPLBAOH@invalid?5string?5position?$AA@ 0045f0a0     libcpmt:string.obj
 0002:000070b8       ??_C@_0BA@JFNIOLAK@string?5too?5long?$AA@ 0045f0b8     libcpmt:string.obj
 0002:00007124       __unep@?ffl_dump_recod_function@?A0x3463d5ea@@$$FYGIPAX@Z 0045f124     ffl_dumpr:ffl_dump_unexception_filter.obj
 0002:00007130       __unep@?top_level_filter@ffl_dump_unexception_filter@@$$FCGJPAU_EXCEPTION_POINTERS@@@Z 0045f130     ffl_dumpr:ffl_dump_unexception_filter.obj
 0002:00007134       __unep@?ffl_purecall_handler@?A0x3463d5ea@@$$FYAXXZ 0045f134     ffl_dumpr:ffl_dump_unexception_filter.obj
 0002:00007180       ??_C@_0BC@BDHGAJGO@SymGetSymFromAddr?$AA@ 0045f180     ffl_dumpr:ffl_dump_report.obj
 0002:00007194       ??_C@_0BB@KAOAIDAF@SymGetModuleBase?$AA@ 0045f194     ffl_dumpr:ffl_dump_report.obj
 0002:000071a8       ??_C@_0BH@PMEMHADK@SymFunctionTableAccess?$AA@ 0045f1a8     ffl_dumpr:ffl_dump_report.obj
 0002:000071c0       ??_C@_09OJFIDCEK@StackWalk?$AA@ 0045f1c0     ffl_dumpr:ffl_dump_report.obj
 0002:000071cc       ??_C@_0L@GDMHENGB@SymCleanup?$AA@ 0045f1cc     ffl_dumpr:ffl_dump_report.obj
 0002:000071d8       ??_C@_0O@MCMFENKA@SymInitialize?$AA@ 0045f1d8     ffl_dumpr:ffl_dump_report.obj
 0002:000071e8       ??_C@_0BL@LDAADFDN@?$CF08X?5?5?$CF08X?5?5?$CF04X?3?$CF08X?5?$CFs?$AN?6?$AA@ 0045f1e8     ffl_dumpr:ffl_dump_report.obj
 0002:00007204       ??_C@_0CL@KBDFDBI@Address?5?5?5Frame?5?5?5?5?5Logical?5addr@ 0045f204     ffl_dumpr:ffl_dump_report.obj
 0002:00007230       ??_C@_0BA@GKKBADCN@?$AN?6Call?5stack?3?$AN?6?$AA@ 0045f230     ffl_dumpr:ffl_dump_report.obj
 0002:00007240       ??_C@_0P@ELKNLGNN@?$CF04X?3?$CF08X?5?$CFs?$AN?6?$AA@ 0045f240     ffl_dumpr:ffl_dump_report.obj
 0002:00007250       ??_C@_08JHNKFEBA@?$CFhs?$CL?$CFX?$AN?6?$AA@ 0045f250     ffl_dumpr:ffl_dump_report.obj
 0002:0000725c       ??_C@_0N@KCMAFMFB@?$CF08X?5?5?$CF08X?5?5?$AA@ 0045f25c     ffl_dumpr:ffl_dump_report.obj
 0002:0000726c       ??_C@_0BC@FBBIJJOC@Address?5?5?5Frame?$AN?6?$AA@ 0045f26c     ffl_dumpr:ffl_dump_report.obj
 0002:00007290       ??_C@_0N@ELNJIOJD@Flags?3?$CF08X?$AN?6?$AA@ 0045f290     ffl_dumpr:ffl_dump_report.obj
 0002:000072a0       ??_C@_0CF@KHDFOJHN@DS?3?$CF04X?5?5ES?3?$CF04X?5?5FS?3?$CF04X?5?5GS?3?$CF0@ 0045f2a0     ffl_dumpr:ffl_dump_report.obj
 0002:000072c8       ??_C@_0BN@OFMHGEIJ@SS?3ESP?3?$CF04X?3?$CF08X?5?5EBP?3?$CF08X?$AN?6?$AA@ 0045f2c8     ffl_dumpr:ffl_dump_report.obj
 0002:000072e8       ??_C@_0BD@KMBLAJJH@CS?3EIP?3?$CF04X?3?$CF08X?$AN?6?$AA@ 0045f2e8     ffl_dumpr:ffl_dump_report.obj
 0002:000072fc       ??_C@_0DN@CAIGBFFM@EAX?3?$CF08X?$AN?6EBX?3?$CF08X?$AN?6ECX?3?$CF08X?$AN?6ED@ 0045f2fc     ffl_dumpr:ffl_dump_report.obj
 0002:0000733c       ??_C@_0P@CGKMDHFN@?$AN?6Registers?3?$AN?6?$AA@ 0045f33c     ffl_dumpr:ffl_dump_report.obj
 0002:0000734c       ??_C@_0CD@JDCJCBD@Fault?5address?5?3?$CF08X?5?$CF02X?3?$CF08X?5?$CFs@ 0045f34c     ffl_dumpr:ffl_dump_report.obj
 0002:00007370       ??_C@_0BL@LDNMONAP@Exception?5code?5?3?5?$CF08X?5?$CFs?$AN?6?$AA@ 0045f370     ffl_dumpr:ffl_dump_report.obj
 0002:0000738c       ??_C@_0BO@LOFFIFPK@?$AN?6?$DN?$DN?$DN?$DN?$DN?5?$FLend?5of?5file?$FN?5?$DN?$DN?$DN?$DN?$DN?$AN?6?$AA@ 0045f38c     ffl_dumpr:ffl_dump_report.obj
 0002:000073b0       ??_C@_0EI@MENDDGGP@?$AN?6?$AN?6?$DN?$DN?$DN?$DN?$DN?$DN?$DN?$DN?$DN?$DN?$DN?$DN?$DN?$DN?$DN?$DN?$DN?$DN?5?5?5logged?5@ 0045f3b0     ffl_dumpr:ffl_dump_report.obj
 0002:000073fc       ??_C@_0CF@EAEEKMJG@?$CFd?5MBytes?5user?5address?5space?5fre@ 0045f3fc     ffl_dumpr:ffl_dump_log.obj
 0002:00007424       ??_C@_0CA@LCHOPJEK@?$CFd?5MBytes?5user?5address?5space?4?$AN?6?$AA@ 0045f424     ffl_dumpr:ffl_dump_log.obj
 0002:00007444       ??_C@_0BO@CJIFIDML@?$CFd?5MBytes?5paging?5file?5free?4?$AN?6?$AA@ 0045f444     ffl_dumpr:ffl_dump_log.obj
 0002:00007464       ??_C@_0BJ@BAJBDKMF@?$CFd?5MBytes?5paging?5file?4?$AN?6?$AA@ 0045f464     ffl_dumpr:ffl_dump_log.obj
 0002:00007480       ??_C@_0CC@CEGIFPJL@?$CFd?5MBytes?5physical?5memory?5free?4?$AN@ 0045f480     ffl_dumpr:ffl_dump_log.obj
 0002:000074a4       ??_C@_0BN@PBHEHCOH@?$CFd?5MBytes?5physical?5memory?4?$AN?6?$AA@ 0045f4a4     ffl_dumpr:ffl_dump_log.obj
 0002:000074c4       ??_C@_0BG@KCAIBNBE@?$CFd?$CF?$CF?5memory?5in?5use?4?$AN?6?$AA@ 0045f4c4     ffl_dumpr:ffl_dump_log.obj
 0002:000074dc       ??_C@_0BM@CGPALIEL@?$CFd?5processor?$CIs?$CJ?0?5type?5?$CFd?4?$AN?6?$AA@ 0045f4dc     ffl_dumpr:ffl_dump_log.obj
 0002:000074f8       ??_C@_0BO@KGGOLELO@Operation?5system?5?3?5?$CFs?5?$CI?$CFs?$CJ?4?$AN?6?$AA@ 0045f4f8     ffl_dumpr:ffl_dump_log.obj
 0002:00007518       ??_C@_0BB@GEKHAOPD@?$CFs?0?5run?5by?5?$CFs?4?$AN?6?$AA@ 0045f518     ffl_dumpr:ffl_dump_log.obj
 0002:00007534       ??_C@_0BI@JNCPBKJH@Error?5occurred?5at?5?$CFs?4?$AN?6?$AA@ 0045f534     ffl_dumpr:ffl_dump_log.obj
 0002:0000754c       ??_C@_0CN@DPHIKGID@EFlags?3?50x?$CF08x?5?5ESP?3?50x?$CF08x?5?5Seg@ 0045f54c     ffl_dumpr:ffl_dump_log.obj
 0002:0000757c       ??_C@_0CN@FNEAJLBC@EIP?3?5?5?5?50x?$CF08x?5?5EBP?3?50x?$CF08x?5?5Seg@ 0045f57c     ffl_dumpr:ffl_dump_log.obj
 0002:000075ac       ??_C@_0CN@HMCEKAPI@EBX?3?5?5?5?50x?$CF08x?5?5ECX?3?50x?$CF08x?5?5EDX@ 0045f5ac     ffl_dumpr:ffl_dump_log.obj
 0002:000075dc       ??_C@_0CN@HFPOGCDG@EDI?3?5?5?5?50x?$CF08x?5?5ESI?3?50x?$CF08x?5?5EAX@ 0045f5dc     ffl_dumpr:ffl_dump_log.obj
 0002:0000760c       ??_C@_0L@BIIJGCKB@Context?3?$AN?6?$AA@ 0045f60c     ffl_dumpr:ffl_dump_log.obj
 0002:00007618       ??_C@_0CL@OMKINDCC@Exception?5encountered?5during?5sta@ 0045f618     ffl_dumpr:ffl_dump_log.obj
 0002:00007644       ??_C@_02HAOIJKIC@?$CFc?$AA@ 0045f644     ffl_dumpr:ffl_dump_log.obj
 0002:00007648       ??_C@_09CMIEKKHO@?5?5?5?5?5?5?5?5?5?$AA@ 0045f648     ffl_dumpr:ffl_dump_log.obj
 0002:00007654       ??_C@_05ECIELPFL@?$CF08x?5?$AA@ 0045f654     ffl_dumpr:ffl_dump_log.obj
 0002:0000765c       ??_C@_08FCCPIPOA@0x?$CF08x?3?5?$AA@ 0045f65c     ffl_dumpr:ffl_dump_log.obj
 0002:00007668       ??_C@_0N@MCABBBJA@?$AN?6?$AN?6Stack?3?$AN?6?$AA@ 0045f668     ffl_dumpr:ffl_dump_log.obj
 0002:00007684       ??_C@_0BN@MIOLEDFL@?5?5?5ProdVer?3?5?5?5?5?$CFd?4?$CFd?4?$CFd?4?$CFd?$AN?6?$AA@ 0045f684     ffl_dumpr:ffl_dump_log.obj
 0002:000076a4       ??_C@_0BN@NPPLIEOE@?5?5?5FileVer?3?5?5?5?5?$CFd?4?$CFd?4?$CFd?4?$CFd?$AN?6?$AA@ 0045f6a4     ffl_dumpr:ffl_dump_log.obj
 0002:000076c4       ??_C@_0BE@BINIANHA@?5?5?5FileDesc?3?5?5?5?$CFs?$AN?6?$AA@ 0045f6c4     ffl_dumpr:ffl_dump_log.obj
 0002:000076d8       ??_C@_0BE@PIDFFMIN@?5?5?5Product?3?5?5?5?5?$CFs?$AN?6?$AA@ 0045f6d8     ffl_dumpr:ffl_dump_log.obj
 0002:000076ec       ??_C@_0BE@KFIOGAPA@?5?5?5Company?3?5?5?5?5?$CFs?$AN?6?$AA@ 0045f6ec     ffl_dumpr:ffl_dump_log.obj
 0002:00007700       ??_C@_0BH@CPHJCLI@Version?5Information?3?$AN?6?$AA@ 0045f700     ffl_dumpr:ffl_dump_log.obj
 0002:00007718       ??_C@_0CE@LFDKMBCN@File?5Size?3?5?5?$CF?910d?5?5File?5Time?3?5?5?$CF@ 0045f718     ffl_dumpr:ffl_dump_log.obj
 0002:0000773c       ??_C@_0CJ@LAGLKJMB@Checksum?3?5?5?50x?$CF08x?5?5Time?5Stamp?3?5@ 0045f73c     ffl_dumpr:ffl_dump_log.obj
 0002:00007768       ??_C@_0CJ@KDNBAJGK@Image?5Base?3?50x?$CF08x?5?5Image?5Size?3?5@ 0045f768     ffl_dumpr:ffl_dump_log.obj
 0002:00007794       ??_C@_04LLEBNMDN@?$CFs?$AN?6?$AA@ 0045f794     ffl_dumpr:ffl_dump_log.obj
 0002:0000779c       ??_C@_0M@JNMGKHJJ@Module?5?$CFd?$AN?6?$AA@ 0045f79c     ffl_dumpr:ffl_dump_log.obj
 0002:000077a8       ??_C@_0CA@FBGMDAKE@?$AN?6?$DN?$DN?$DN?$DN?$DN?5?$FL?5end?5of?5file?5?$FN?5?$DN?$DN?$DN?$DN?$DN?$AN?6?$AA@ 0045f7a8     ffl_dumpr:ffl_dump_log.obj
 0002:000077c8       ??_C@_03MMEAEOBL@?$DP?$DP?5?$AA@ 0045f7c8     ffl_dumpr:ffl_dump_log.obj
 0002:000077cc       ??_C@_05CNDJFPDP@?$CF02x?5?$AA@ 0045f7cc     ffl_dumpr:ffl_dump_log.obj
 0002:000077d4       ??_C@_0BF@PEDFBGMK@?$AN?6Bytes?5at?5CS?3EIP?3?$AN?6?$AA@ 0045f7d4     ffl_dumpr:ffl_dump_log.obj
 0002:000077ec       ??_C@_0CP@PADPOHII@?$CFs?5location?5?$CF08x?5caused?5an?5acces@ 0045f7ec     ffl_dumpr:ffl_dump_log.obj
 0002:0000781c       ??_C@_08CPFAPHAF@Write?5to?$AA@ 0045f81c     ffl_dumpr:ffl_dump_log.obj
 0002:00007828       ??_C@_09JHOILLPP@Read?5from?$AA@ 0045f828     ffl_dumpr:ffl_dump_log.obj
 0002:00007834       ??_C@_0DH@EDPCCDDF@?$CFs?5caused?5?$CFs?5?$CI0x?$CF08x?$CJ?5?$AN?6in?5modul@ 0045f834     ffl_dumpr:ffl_dump_log.obj
 0002:00007884       ??_C@_0BC@MNIKNFKD@MiniDumpWriteDump?$AA@ 0045f884     ffl_dumpr:ffl_dump_mini.obj
 0002:000079ac       ??_C@_08OANCNLAH@?$CFu?4?$CFu?4?$CFu?$AA@ 0045f9ac     ffl_dumpr:ffl_dump_common.obj
 0002:000079d0       ??_C@_0BI@HKCLIKLE@?$CFd?1?$CFd?1?$CFd?5?$CF02d?3?$CF02d?3?$CF02d?$AA@ 0045f9d0     ffl_dumpr:ffl_dump_common.obj
 0002:000079e8       ??_C@_0P@FOKFNGCC@STACK_OVERFLOW?$AA@ 0045f9e8     ffl_dumpr:ffl_dump_common.obj
 0002:000079f8       ??_C@_0BB@PLLMBPKL@PRIV_INSTRUCTION?$AA@ 0045f9f8     ffl_dumpr:ffl_dump_common.obj
 0002:00007a0c       ??_C@_0N@NOODLLAE@INT_OVERFLOW?$AA@ 0045fa0c     ffl_dumpr:ffl_dump_common.obj
 0002:00007a1c       ??_C@_0BD@JEAJAPHP@INT_DIVIDE_BY_ZERO?$AA@ 0045fa1c     ffl_dumpr:ffl_dump_common.obj
 0002:00007a30       ??_C@_0O@FPLBLLBA@FLT_UNDERFLOW?$AA@ 0045fa30     ffl_dumpr:ffl_dump_common.obj
 0002:00007a40       ??_C@_0BA@GJKDALBO@FLT_STACK_CHECK?$AA@ 0045fa40     ffl_dumpr:ffl_dump_common.obj
 0002:00007a50       ??_C@_0N@BFKIPAKO@FLT_OVERFLOW?$AA@ 0045fa50     ffl_dumpr:ffl_dump_common.obj
 0002:00007a60       ??_C@_0BG@KHLFFMKF@FLT_INVALID_OPERATION?$AA@ 0045fa60     ffl_dumpr:ffl_dump_common.obj
 0002:00007a78       ??_C@_0BD@IOJOCCFC@FLT_INEXACT_RESULT?$AA@ 0045fa78     ffl_dumpr:ffl_dump_common.obj
 0002:00007a8c       ??_C@_0BD@NCECPCDC@FLT_DIVIDE_BY_ZERO?$AA@ 0045fa8c     ffl_dumpr:ffl_dump_common.obj
 0002:00007aa0       ??_C@_0BF@DPHAEECF@FLT_DENORMAL_OPERAND?$AA@ 0045faa0     ffl_dumpr:ffl_dump_common.obj
 0002:00007ab8       ??_C@_0P@BJHADBBK@INVALID_HANDLE?$AA@ 0045fab8     ffl_dumpr:ffl_dump_common.obj
 0002:00007ac8       ??_C@_0BE@KNOGEHDH@INVALID_DISPOSITION?$AA@ 0045fac8     ffl_dumpr:ffl_dump_common.obj
 0002:00007adc       ??_C@_0BJ@HONCONAA@NONCONTINUABLE_EXCEPTION?$AA@ 0045fadc     ffl_dumpr:ffl_dump_common.obj
 0002:00007af8       ??_C@_0BE@PPPKHBFF@ILLEGAL_INSTRUCTION?$AA@ 0045faf8     ffl_dumpr:ffl_dump_common.obj
 0002:00007b0c       ??_C@_0BG@KDAKIDPK@ARRAY_BOUNDS_EXCEEDED?$AA@ 0045fb0c     ffl_dumpr:ffl_dump_common.obj
 0002:00007b24       ??_C@_0O@EAPDGJDK@IN_PAGE_ERROR?$AA@ 0045fb24     ffl_dumpr:ffl_dump_common.obj
 0002:00007b34       ??_C@_0M@DKKFMHBE@SINGLE_STEP?$AA@ 0045fb34     ffl_dumpr:ffl_dump_common.obj
 0002:00007b40       ??_C@_0BB@KOKDBDNI@ACCESS_VIOLATION?$AA@ 0045fb40     ffl_dumpr:ffl_dump_common.obj
 0002:00007b54       ??_C@_0L@EGBPFLC@BREAKPOINT?$AA@ 0045fb54     ffl_dumpr:ffl_dump_common.obj
 0002:00007b60       ??_C@_0L@EECANHFC@GUARD_PAGE?$AA@ 0045fb60     ffl_dumpr:ffl_dump_common.obj
 0002:00007b6c       ??_C@_0BG@IKBJODCC@DATATYPE_MISALIGNMENT?$AA@ 0045fb6c     ffl_dumpr:ffl_dump_common.obj
 0002:00007b88       ??_C@_0BM@CEKPECKE@?2StringFileInfo?2?$CF04x?$CF04x?2?$CFs?$AA@ 0045fb88     ffl_dumpr:ffl_module_info.obj
 0002:00007ba4       ??_C@_0BJ@KPNNKBCP@?2VarFileInfo?2Translation?$AA@ 0045fba4     ffl_dumpr:ffl_module_info.obj
 0002:00007bc0       ??_C@_0M@MNPNDAHP@ProductName?$AA@ 0045fbc0     ffl_dumpr:ffl_module_info.obj
 0002:00007bcc       ??_C@_0BA@IMJFJNNG@FileDescription?$AA@ 0045fbcc     ffl_dumpr:ffl_module_info.obj
 0002:00007bdc       ??_C@_0M@DHIAIDA@CompanyName?$AA@ 0045fbdc     ffl_dumpr:ffl_module_info.obj
 0002:00007be8       _GUID_ATLVer30             0045fbe8     atls:atlbase.obj
 0002:00007bf8       _GUID_ATLVer70             0045fbf8     atls:atlbase.obj
 0002:00007c08       _GUID_DEVINTERFACE_SERENUM_BUS_ENUMERATOR 0045fc08     uuid:cguid_i.obj
 0002:00007c18       _GUID_DEVINTERFACE_COMPORT 0045fc18     uuid:cguid_i.obj
 0002:00007c28       _GUID_DEVINTERFACE_STORAGEPORT 0045fc28     uuid:cguid_i.obj
 0002:00007c38       _GUID_DEVINTERFACE_CDCHANGER 0045fc38     uuid:cguid_i.obj
 0002:00007c48       _GUID_DEVINTERFACE_FLOPPY  0045fc48     uuid:cguid_i.obj
 0002:00007c58       _GUID_DEVINTERFACE_MEDIUMCHANGER 0045fc58     uuid:cguid_i.obj
 0002:00007c68       _GUID_DEVINTERFACE_VOLUME  0045fc68     uuid:cguid_i.obj
 0002:00007c78       _GUID_DEVINTERFACE_WRITEONCEDISK 0045fc78     uuid:cguid_i.obj
 0002:00007c88       _GUID_DEVINTERFACE_TAPE    0045fc88     uuid:cguid_i.obj
 0002:00007c98       _GUID_DEVINTERFACE_PARTITION 0045fc98     uuid:cguid_i.obj
 0002:00007ca8       _GUID_DEVINTERFACE_CDROM   0045fca8     uuid:cguid_i.obj
 0002:00007cb8       _GUID_DEVINTERFACE_DISK    0045fcb8     uuid:cguid_i.obj
 0002:00007cc8       _GUID_DEVCLASS_FSFILTER_INFRASTRUCTURE 0045fcc8     uuid:cguid_i.obj
 0002:00007cd8       _GUID_DEVCLASS_FSFILTER_SYSTEM 0045fcd8     uuid:cguid_i.obj
 0002:00007ce8       _GUID_DEVCLASS_FSFILTER_COPYPROTECTION 0045fce8     uuid:cguid_i.obj
 0002:00007cf8       _GUID_DEVCLASS_FSFILTER_SECURITYENHANCER 0045fcf8     uuid:cguid_i.obj
 0002:00007d08       _GUID_DEVCLASS_FSFILTER_OPENFILEBACKUP 0045fd08     uuid:cguid_i.obj
 0002:00007d18       _GUID_DEVCLASS_FSFILTER_PHYSICALQUOTAMANAGEMENT 0045fd18     uuid:cguid_i.obj
 0002:00007d28       _GUID_DEVCLASS_FSFILTER_ENCRYPTION 0045fd28     uuid:cguid_i.obj
 0002:00007d38       _GUID_DEVCLASS_FSFILTER_COMPRESSION 0045fd38     uuid:cguid_i.obj
 0002:00007d48       _GUID_DEVCLASS_FSFILTER_HSM 0045fd48     uuid:cguid_i.obj
 0002:00007d58       _GUID_DEVCLASS_FSFILTER_CFSMETADATASERVER 0045fd58     uuid:cguid_i.obj
 0002:00007d68       _GUID_DEVCLASS_FSFILTER_SYSTEMRECOVERY 0045fd68     uuid:cguid_i.obj
 0002:00007d78       _GUID_DEVCLASS_FSFILTER_QUOTAMANAGEMENT 0045fd78     uuid:cguid_i.obj
 0002:00007d88       _GUID_DEVCLASS_FSFILTER_CONTENTSCREENER 0045fd88     uuid:cguid_i.obj
 0002:00007d98       _GUID_DEVCLASS_FSFILTER_CONTINUOUSBACKUP 0045fd98     uuid:cguid_i.obj
 0002:00007da8       _GUID_DEVCLASS_FSFILTER_REPLICATION 0045fda8     uuid:cguid_i.obj
 0002:00007db8       _GUID_DEVCLASS_FSFILTER_ANTIVIRUS 0045fdb8     uuid:cguid_i.obj
 0002:00007dc8       _GUID_DEVCLASS_FSFILTER_UNDELETE 0045fdc8     uuid:cguid_i.obj
 0002:00007dd8       _GUID_DEVCLASS_FSFILTER_ACTIVITYMONITOR 0045fdd8     uuid:cguid_i.obj
 0002:00007de8       _GUID_DEVCLASS_BTRANS      0045fde8     uuid:cguid_i.obj
 0002:00007df8       _GUID_DEVCLASS_WCEUSBS     0045fdf8     uuid:cguid_i.obj
 0002:00007e08       _GUID_DEVCLASS_VOLUMESNAPSHOT 0045fe08     uuid:cguid_i.obj
 0002:00007e18       _GUID_DEVCLASS_VOLUME      0045fe18     uuid:cguid_i.obj
 0002:00007e28       _GUID_DEVCLASS_USB         0045fe28     uuid:cguid_i.obj
 0002:00007e38       _GUID_DEVCLASS_UNKNOWN     0045fe38     uuid:cguid_i.obj
 0002:00007e48       _GUID_DEVCLASS_TAPEDRIVE   0045fe48     uuid:cguid_i.obj
 0002:00007e58       _GUID_DEVCLASS_SYSTEM      0045fe58     uuid:cguid_i.obj
 0002:00007e68       _GUID_DEVCLASS_SOUND       0045fe68     uuid:cguid_i.obj
 0002:00007e78       _GUID_DEVCLASS_SMARTCARDREADER 0045fe78     uuid:cguid_i.obj
 0002:00007e88       _GUID_DEVCLASS_SECURITYACCELERATOR 0045fe88     uuid:cguid_i.obj
 0002:00007e98       _GUID_DEVCLASS_SCSIADAPTER 0045fe98     uuid:cguid_i.obj
 0002:00007ea8       _GUID_DEVCLASS_SBP2        0045fea8     uuid:cguid_i.obj
 0002:00007eb8       _GUID_DEVCLASS_PROCESSOR   0045feb8     uuid:cguid_i.obj
 0002:00007ec8       _GUID_DEVCLASS_PRINTERUPGRADE 0045fec8     uuid:cguid_i.obj
 0002:00007ed8       _GUID_DEVCLASS_PRINTER     0045fed8     uuid:cguid_i.obj
 0002:00007ee8       _GUID_DEVCLASS_PORTS       0045fee8     uuid:cguid_i.obj
 0002:00007ef8       _GUID_DEVCLASS_PNPPRINTERS 0045fef8     uuid:cguid_i.obj
 0002:00007f08       _GUID_DEVCLASS_PCMCIA      0045ff08     uuid:cguid_i.obj
 0002:00007f18       _GUID_DEVCLASS_NODRIVER    0045ff18     uuid:cguid_i.obj
 0002:00007f28       _GUID_DEVCLASS_NETTRANS    0045ff28     uuid:cguid_i.obj
 0002:00007f38       _GUID_DEVCLASS_NETSERVICE  0045ff38     uuid:cguid_i.obj
 0002:00007f48       _GUID_DEVCLASS_NETCLIENT   0045ff48     uuid:cguid_i.obj
 0002:00007f58       _GUID_DEVCLASS_NET         0045ff58     uuid:cguid_i.obj
 0002:00007f68       _GUID_DEVCLASS_MULTIPORTSERIAL 0045ff68     uuid:cguid_i.obj
 0002:00007f78       _GUID_DEVCLASS_MULTIFUNCTION 0045ff78     uuid:cguid_i.obj
 0002:00007f88       _GUID_DEVCLASS_MTD         0045ff88     uuid:cguid_i.obj
 0002:00007f98       _GUID_DEVCLASS_MOUSE       0045ff98     uuid:cguid_i.obj
 0002:00007fa8       _GUID_DEVCLASS_MONITOR     0045ffa8     uuid:cguid_i.obj
 0002:00007fb8       _GUID_DEVCLASS_MODEM       0045ffb8     uuid:cguid_i.obj
 0002:00007fc8       _GUID_DEVCLASS_MEDIUM_CHANGER 0045ffc8     uuid:cguid_i.obj
 0002:00007fd8       _GUID_DEVCLASS_MEDIA       0045ffd8     uuid:cguid_i.obj
 0002:00007fe8       _GUID_DEVCLASS_LEGACYDRIVER 0045ffe8     uuid:cguid_i.obj
 0002:00007ff8       _GUID_DEVCLASS_KEYBOARD    0045fff8     uuid:cguid_i.obj
 0002:00008008       _GUID_DEVCLASS_INFRARED    00460008     uuid:cguid_i.obj
 0002:00008018       _GUID_DEVCLASS_INFINIBAND  00460018     uuid:cguid_i.obj
 0002:00008028       _GUID_DEVCLASS_IMAGE       00460028     uuid:cguid_i.obj
 0002:00008038       _GUID_DEVCLASS_HIDCLASS    00460038     uuid:cguid_i.obj
 0002:00008048       _GUID_DEVCLASS_HDC         00460048     uuid:cguid_i.obj
 0002:00008058       _GUID_DEVCLASS_GPS         00460058     uuid:cguid_i.obj
 0002:00008068       _GUID_DEVCLASS_FLOPPYDISK  00460068     uuid:cguid_i.obj
 0002:00008078       _GUID_DEVCLASS_FDC         00460078     uuid:cguid_i.obj
 0002:00008088       _GUID_DEVCLASS_ENUM1394    00460088     uuid:cguid_i.obj
 0002:00008098       _GUID_DEVCLASS_DOT4PRINT   00460098     uuid:cguid_i.obj
 0002:000080a8       _GUID_DEVCLASS_DOT4        004600a8     uuid:cguid_i.obj
 0002:000080b8       _GUID_DEVCLASS_DISPLAY     004600b8     uuid:cguid_i.obj
 0002:000080c8       _GUID_DEVCLASS_DISKDRIVE   004600c8     uuid:cguid_i.obj
 0002:000080d8       _GUID_DEVCLASS_DECODER     004600d8     uuid:cguid_i.obj
 0002:000080e8       _GUID_DEVCLASS_COMPUTER    004600e8     uuid:cguid_i.obj
 0002:000080f8       _GUID_DEVCLASS_CDROM       004600f8     uuid:cguid_i.obj
 0002:00008108       _GUID_DEVCLASS_BLUETOOTH   00460108     uuid:cguid_i.obj
 0002:00008118       _GUID_DEVCLASS_BATTERY     00460118     uuid:cguid_i.obj
 0002:00008128       _GUID_DEVCLASS_AVC         00460128     uuid:cguid_i.obj
 0002:00008138       _GUID_DEVCLASS_APMSUPPORT  00460138     uuid:cguid_i.obj
 0002:00008148       _GUID_DEVCLASS_ADAPTER     00460148     uuid:cguid_i.obj
 0002:00008158       _GUID_DEVCLASS_61883       00460158     uuid:cguid_i.obj
 0002:00008168       _GUID_DEVCLASS_1394DEBUG   00460168     uuid:cguid_i.obj
 0002:00008178       _GUID_DEVCLASS_1394        00460178     uuid:cguid_i.obj
 0002:00008188       _CLSID_ThumbnailUpdater    00460188     uuid:cguid_i.obj
 0002:00008198       _CLSID_ThumbnailFCNHandler 00460198     uuid:cguid_i.obj
 0002:000081a8       _CLSID_GblComponentCategoriesMgr 004601a8     uuid:cguid_i.obj
 0002:000081b8       _IID_IBoundObjectSite      004601b8     uuid:cguid_i.obj
 0002:000081c8       _IID_IBoundObject          004601c8     uuid:cguid_i.obj
 0002:000081d8       __DBCIDGUID                004601d8     uuid:cguid_i.obj
 0002:000081e8       __DBBMKGUID                004601e8     uuid:cguid_i.obj
 0002:000081f8       __GUID_NAMEONLY            004601f8     uuid:cguid_i.obj
 0002:00008208       _IID_IEntryID              00460208     uuid:cguid_i.obj
 0002:00008218       _IID_ICursorFind           00460218     uuid:cguid_i.obj
 0002:00008228       _IID_INotifyDBEvents       00460228     uuid:cguid_i.obj
 0002:00008238       _IID_ICursorUpdateARow     00460238     uuid:cguid_i.obj
 0002:00008248       _IID_ICursorScroll         00460248     uuid:cguid_i.obj
 0002:00008258       _IID_ICursorMove           00460258     uuid:cguid_i.obj
 0002:00008268       _IID_ICursor               00460268     uuid:cguid_i.obj
 0002:00008278       _IID_StdOle                00460278     uuid:cguid_i.obj
 0002:00008288       _GUID_HANDLE               00460288     uuid:cguid_i.obj
 0002:00008298       _GUID_FONTSTRIKETHROUGH    00460298     uuid:cguid_i.obj
 0002:000082a8       _GUID_FONTUNDERSCORE       004602a8     uuid:cguid_i.obj
 0002:000082b8       _GUID_FONTITALIC           004602b8     uuid:cguid_i.obj
 0002:000082c8       _GUID_FONTBOLD             004602c8     uuid:cguid_i.obj
 0002:000082d8       _GUID_FONTSIZE             004602d8     uuid:cguid_i.obj
 0002:000082e8       _GUID_FONTNAME             004602e8     uuid:cguid_i.obj
 0002:000082f8       _GUID_CHECKVALUEEXCLUSIVE  004602f8     uuid:cguid_i.obj
 0002:00008308       _GUID_OPTIONVALUEEXCLUSIVE 00460308     uuid:cguid_i.obj
 0002:00008318       _GUID_TRISTATE             00460318     uuid:cguid_i.obj
 0002:00008328       _GUID_YSIZE                00460328     uuid:cguid_i.obj
 0002:00008338       _GUID_XSIZE                00460338     uuid:cguid_i.obj
 0002:00008348       _GUID_YPOS                 00460348     uuid:cguid_i.obj
 0002:00008358       _GUID_XPOS                 00460358     uuid:cguid_i.obj
 0002:00008368       _GUID_YSIZEPIXEL           00460368     uuid:cguid_i.obj
 0002:00008378       _GUID_XSIZEPIXEL           00460378     uuid:cguid_i.obj
 0002:00008388       _GUID_YPOSPIXEL            00460388     uuid:cguid_i.obj
 0002:00008398       _GUID_XPOSPIXEL            00460398     uuid:cguid_i.obj
 0002:000083a8       _GUID_COLOR                004603a8     uuid:cguid_i.obj
 0002:000083b8       _GUID_HIMETRIC             004603b8     uuid:cguid_i.obj
 0002:000083c8       _CLSID_StdPicture          004603c8     uuid:cguid_i.obj
 0002:000083d8       _CLSID_StdFont             004603d8     uuid:cguid_i.obj
 0002:000083e8       _CLSID_ConvertVBX          004603e8     uuid:cguid_i.obj
 0002:000083f8       _CLSID_PersistPropset      004603f8     uuid:cguid_i.obj
 0002:00008408       _CLSID_StockPicturePage    00460408     uuid:cguid_i.obj
 0002:00008418       _CLSID_StockColorPage      00460418     uuid:cguid_i.obj
 0002:00008428       _CLSID_StockFontPage       00460428     uuid:cguid_i.obj
 0002:00008438       _CLSID_CPicturePropPage    00460438     uuid:cguid_i.obj
 0002:00008448       _CLSID_CColorPropPage      00460448     uuid:cguid_i.obj
 0002:00008458       _CLSID_CFontPropPage       00460458     uuid:cguid_i.obj
 0002:00008468       _IID_IPropertyFrame        00460468     uuid:cguid_i.obj
 0002:00008478       _CLSID_AddrControl         00460478     uuid:cguid_i.obj
 0002:00008488       _CLSID_CurrentUserClasses  00460488     uuid:cguid_i.obj
 0002:00008498       _CLSID_LocalMachineClasses 00460498     uuid:cguid_i.obj
 0002:000084a8       _CLSID_AllClasses          004604a8     uuid:cguid_i.obj
 0002:000084b8       _IID_IRichEditOleCallback  004604b8     uuid:cguid_i.obj
 0002:000084c8       _IID_IRichEditOle          004604c8     uuid:cguid_i.obj
 0002:000084d8       _CLSID_RemoteUnknownPSFactory 004604d8     uuid:cguid_i.obj
 0002:000084e8       _CLSID_InProcFreeMarshaler 004604e8     uuid:cguid_i.obj
 0002:000084f8       _CLSID_StdAsyncActManager  004604f8     uuid:cguid_i.obj
 0002:00008508       _CLSID_ComBinding          00460508     uuid:cguid_i.obj
 0002:00008518       _CLSID_SynchronizeContainer 00460518     uuid:cguid_i.obj
 0002:00008528       _CLSID_StdEvent            00460528     uuid:cguid_i.obj
 0002:00008538       _CLSID_ManualResetEvent    00460538     uuid:cguid_i.obj
 0002:00008548       _CLSID_DCOMAccessControl   00460548     uuid:cguid_i.obj
 0002:00008558       _CLSID_Picture_Dib         00460558     uuid:cguid_i.obj
 0002:00008568       _CLSID_Picture_EnhMetafile 00460568     uuid:cguid_i.obj
 0002:00008578       _CLSID_Picture_Metafile    00460578     uuid:cguid_i.obj
 0002:00008588       _CLSID_StaticDib           00460588     uuid:cguid_i.obj
 0002:00008598       _CLSID_StaticMetafile      00460598     uuid:cguid_i.obj
 0002:000085a8       _CLSID_PSEnumerators       004605a8     uuid:cguid_i.obj
 0002:000085b8       _CLSID_PSBindCtx           004605b8     uuid:cguid_i.obj
 0002:000085c8       _CLSID_PSDragDrop          004605c8     uuid:cguid_i.obj
 0002:000085d8       _CLSID_PSInPlaceFrame      004605d8     uuid:cguid_i.obj
 0002:000085e8       _CLSID_PSInPlaceActive     004605e8     uuid:cguid_i.obj
 0002:000085f8       _CLSID_PSClassObject       004605f8     uuid:cguid_i.obj
 0002:00008608       _CLSID_PSClientSite        00460608     uuid:cguid_i.obj
 0002:00008618       _CLSID_PSGenObject         00460618     uuid:cguid_i.obj
 0002:00008628       _IID_IDebugStream          00460628     uuid:cguid_i.obj
 0002:00008638       _IID_IDebug                00460638     uuid:cguid_i.obj
 0002:00008648       _IID_IOlePresObj           00460648     uuid:cguid_i.obj
 0002:00008658       _IID_IOleManager           00460658     uuid:cguid_i.obj
 0002:00008668       _IID_IEnumCallback         00460668     uuid:cguid_i.obj
 0002:00008678       _IID_IEnumHolder           00460678     uuid:cguid_i.obj
 0002:00008688       _IID_IEnumGeneric          00460688     uuid:cguid_i.obj
 0002:00008698       _IID_IProxy                00460698     uuid:cguid_i.obj
 0002:000086a8       _IID_IStub                 004606a8     uuid:cguid_i.obj
 0002:000086b8       _CLSID_StdMarshal          004606b8     uuid:cguid_i.obj
 0002:000086c8       _IID_IDfReserved3          004606c8     uuid:cguid_i.obj
 0002:000086d8       _IID_IDfReserved2          004606d8     uuid:cguid_i.obj
 0002:000086e8       _IID_IDfReserved1          004606e8     uuid:cguid_i.obj
 0002:000086f8       _IID_IInternalMoniker      004606f8     uuid:cguid_i.obj
 0002:00008708       _IID_IPSFactory            00460708     uuid:cguid_i.obj
 0002:00008718       _IID_IProxyManager         00460718     uuid:cguid_i.obj
 0002:00008728       _IID_IRpcProxy             00460728     uuid:cguid_i.obj
 0002:00008738       _IID_IStubManager          00460738     uuid:cguid_i.obj
 0002:00008748       _IID_IRpcStub              00460748     uuid:cguid_i.obj
 0002:00008758       _IID_IRpcChannel           00460758     uuid:cguid_i.obj
 0002:00008768       _CATID_MARSHALER           00460768     uuid:cguid_i.obj
 0002:00008778       _GUID_NULL                 00460778     uuid:cguid_i.obj
 0002:00008788       _IID_IEnumOLEVERB          00460788     uuid:oleidl_i.obj
 0002:00008798       _IID_IDropTarget           00460798     uuid:oleidl_i.obj
 0002:000087a8       _IID_IDropSource           004607a8     uuid:oleidl_i.obj
 0002:000087b8       _IID_IViewObject2          004607b8     uuid:oleidl_i.obj
 0002:000087c8       _IID_IViewObject           004607c8     uuid:oleidl_i.obj
 0002:000087d8       _IID_IContinue             004607d8     uuid:oleidl_i.obj
 0002:000087e8       _IID_IOleInPlaceSite       004607e8     uuid:oleidl_i.obj
 0002:000087f8       _IID_IOleInPlaceObject     004607f8     uuid:oleidl_i.obj
 0002:00008808       _IID_IOleInPlaceFrame      00460808     uuid:oleidl_i.obj
 0002:00008818       _IID_IOleInPlaceActiveObject 00460818     uuid:oleidl_i.obj
 0002:00008828       _IID_IOleInPlaceUIWindow   00460828     uuid:oleidl_i.obj
 0002:00008838       _IID_IOleItemContainer     00460838     uuid:oleidl_i.obj
 0002:00008848       _IID_IOleLink              00460848     uuid:oleidl_i.obj
 0002:00008858       _IID_IOleWindow            00460858     uuid:oleidl_i.obj
 0002:00008868       _IID_IOleObject            00460868     uuid:oleidl_i.obj
 0002:00008878       _IID_IOleClientSite        00460878     uuid:oleidl_i.obj
 0002:00008888       _IID_IOleContainer         00460888     uuid:oleidl_i.obj
 0002:00008898       _IID_IParseDisplayName     00460898     uuid:oleidl_i.obj
 0002:000088a8       _IID_IOleCacheControl      004608a8     uuid:oleidl_i.obj
 0002:000088b8       _IID_IOleCache2            004608b8     uuid:oleidl_i.obj
 0002:000088c8       _IID_IOleCache             004608c8     uuid:oleidl_i.obj
 0002:000088d8       _IID_IOleAdviseHolder      004608d8     uuid:oleidl_i.obj
 0002:000088e8       _IID_IClassFactory         004608e8     uuid:unknwn_i.obj
 0002:000088f8       _IID_AsyncIUnknown         004608f8     uuid:unknwn_i.obj
 0002:00008908       _IID_IUnknown              00460908     uuid:unknwn_i.obj
 0002:00008918       _IID_IQuickActivate        00460918     uuid:ocidl_i.obj
 0002:00008928       _IID_IAdviseSinkEx         00460928     uuid:ocidl_i.obj
 0002:00008938       _IID_IPersistPropertyBag2  00460938     uuid:ocidl_i.obj
 0002:00008948       _IID_IPropertyBag2         00460948     uuid:ocidl_i.obj
 0002:00008958       _IID_IPerPropertyBrowsing  00460958     uuid:ocidl_i.obj
 0002:00008968       _IID_IObjectWithSite       00460968     uuid:ocidl_i.obj
 0002:00008978       _IID_IPointerInactive      00460978     uuid:ocidl_i.obj
 0002:00008988       _IID_IOleUndoManager       00460988     uuid:ocidl_i.obj
 0002:00008998       _IID_IEnumOleUndoUnits     00460998     uuid:ocidl_i.obj
 0002:000089a8       _IID_IOleParentUndoUnit    004609a8     uuid:ocidl_i.obj
 0002:000089b8       _IID_IOleUndoUnit          004609b8     uuid:ocidl_i.obj
 0002:000089c8       _IID_IViewObjectEx         004609c8     uuid:ocidl_i.obj
 0002:000089d8       _IID_IOleInPlaceSiteWindowless 004609d8     uuid:ocidl_i.obj
 0002:000089e8       _IID_IOleInPlaceSiteEx     004609e8     uuid:ocidl_i.obj
 0002:000089f8       _IID_IOleInPlaceObjectWindowless 004609f8     uuid:ocidl_i.obj
 0002:00008a08       _IID_IPictureDisp          00460a08     uuid:ocidl_i.obj
 0002:00008a18       _IID_IFontDisp             00460a18     uuid:ocidl_i.obj
 0002:00008a28       _IID_IFontEventsDisp       00460a28     uuid:ocidl_i.obj
 0002:00008a38       _IID_IPicture              00460a38     uuid:ocidl_i.obj
 0002:00008a48       _IID_IFont                 00460a48     uuid:ocidl_i.obj
 0002:00008a58       _IID_ISimpleFrameSite      00460a58     uuid:ocidl_i.obj
 0002:00008a68       _IID_IPersistPropertyBag   00460a68     uuid:ocidl_i.obj
 0002:00008a78       _IID_IPersistStreamInit    00460a78     uuid:ocidl_i.obj
 0002:00008a88       _IID_IPersistMemory        00460a88     uuid:ocidl_i.obj
 0002:00008a98       _IID_ISpecifyPropertyPages 00460a98     uuid:ocidl_i.obj
 0002:00008aa8       _IID_IPropertyNotifySink   00460aa8     uuid:ocidl_i.obj
 0002:00008ab8       _IID_IPropertyPageSite     00460ab8     uuid:ocidl_i.obj
 0002:00008ac8       _IID_IPropertyPage2        00460ac8     uuid:ocidl_i.obj
 0002:00008ad8       _IID_IPropertyPage         00460ad8     uuid:ocidl_i.obj
 0002:00008ae8       _IID_IOleControlSite       00460ae8     uuid:ocidl_i.obj
 0002:00008af8       _IID_IOleControl           00460af8     uuid:ocidl_i.obj
 0002:00008b08       _IID_IProvideMultipleClassInfo 00460b08     uuid:ocidl_i.obj
 0002:00008b18       _IID_IProvideClassInfo2    00460b18     uuid:ocidl_i.obj
 0002:00008b28       _IID_IProvideClassInfo     00460b28     uuid:ocidl_i.obj
 0002:00008b38       _IID_IClassFactory2        00460b38     uuid:ocidl_i.obj
 0002:00008b48       _IID_IConnectionPointContainer 00460b48     uuid:ocidl_i.obj
 0002:00008b58       _IID_IEnumConnectionPoints 00460b58     uuid:ocidl_i.obj
 0002:00008b68       _IID_IConnectionPoint      00460b68     uuid:ocidl_i.obj
 0002:00008b78       _IID_IEnumConnections      00460b78     uuid:ocidl_i.obj
 0002:00008b88       _IID_IInitializeSpy        00460b88     uuid:objidl_i.obj
 0002:00008b98       _IID_IProcessInitControl   00460b98     uuid:objidl_i.obj
 0002:00008ba8       _IID_IComThreadingInfo     00460ba8     uuid:objidl_i.obj
 0002:00008bb8       _IID_ISurrogateService     00460bb8     uuid:objidl_i.obj
 0002:00008bc8       _IID_IProcessLock          00460bc8     uuid:objidl_i.obj
 0002:00008bd8       _IID_IObjContext           00460bd8     uuid:objidl_i.obj
 0002:00008be8       _IID_IContext              00460be8     uuid:objidl_i.obj
 0002:00008bf8       _IID_IEnumContextProps     00460bf8     uuid:objidl_i.obj
 0002:00008c08       _IID_IDummyHICONIncluder   00460c08     uuid:objidl_i.obj
 0002:00008c18       _IID_IThumbnailExtractor   00460c18     uuid:objidl_i.obj
 0002:00008c28       _IID_AsyncIPipeDouble      00460c28     uuid:objidl_i.obj
 0002:00008c38       _IID_IPipeDouble           00460c38     uuid:objidl_i.obj
 0002:00008c48       _IID_AsyncIPipeLong        00460c48     uuid:objidl_i.obj
 0002:00008c58       _IID_IPipeLong             00460c58     uuid:objidl_i.obj
 0002:00008c68       _IID_AsyncIPipeByte        00460c68     uuid:objidl_i.obj
 0002:00008c78       _IID_IPipeByte             00460c78     uuid:objidl_i.obj
 0002:00008c88       _IID_IAddrExclusionControl 00460c88     uuid:objidl_i.obj
 0002:00008c98       _IID_IAddrTrackingControl  00460c98     uuid:objidl_i.obj
 0002:00008ca8       _IID_IForegroundTransfer   00460ca8     uuid:objidl_i.obj
 0002:00008cb8       _IID_IUrlMon               00460cb8     uuid:objidl_i.obj
 0002:00008cc8       _IID_IWaitMultiple         00460cc8     uuid:objidl_i.obj
 0002:00008cd8       _IID_IReleaseMarshalBuffers 00460cd8     uuid:objidl_i.obj
 0002:00008ce8       _IID_IRpcHelper            00460ce8     uuid:objidl_i.obj
 0002:00008cf8       _IID_ICallFactory          00460cf8     uuid:objidl_i.obj
 0002:00008d08       _IID_IAsyncManager         00460d08     uuid:objidl_i.obj
 0002:00008d18       _IID_ICancelMethodCalls    00460d18     uuid:objidl_i.obj
 0002:00008d28       _IID_ISynchronizeMutex     00460d28     uuid:objidl_i.obj
 0002:00008d38       _IID_ISynchronizeContainer 00460d38     uuid:objidl_i.obj
 0002:00008d48       _IID_ISynchronizeEvent     00460d48     uuid:objidl_i.obj
 0002:00008d58       _IID_ISynchronizeHandle    00460d58     uuid:objidl_i.obj
 0002:00008d68       _IID_ISynchronize          00460d68     uuid:objidl_i.obj
 0002:00008d78       _IID_IDirectWriterLock     00460d78     uuid:objidl_i.obj
 0002:00008d88       _IID_IGlobalInterfaceTable 00460d88     uuid:objidl_i.obj
 0002:00008d98       _IID_ISurrogate            00460d98     uuid:objidl_i.obj
 0002:00008da8       _IID_IOplockStorage        00460da8     uuid:objidl_i.obj
 0002:00008db8       _IID_ITimeAndNoticeControl 00460db8     uuid:objidl_i.obj
 0002:00008dc8       _IID_IBlockingLock         00460dc8     uuid:objidl_i.obj
 0002:00008dd8       _IID_ILayoutStorage        00460dd8     uuid:objidl_i.obj
 0002:00008de8       _IID_IProgressNotify       00460de8     uuid:objidl_i.obj
 0002:00008df8       _IID_IFillLockBytes        00460df8     uuid:objidl_i.obj
 0002:00008e08       _IID_IRpcOptions           00460e08     uuid:objidl_i.obj
 0002:00008e18       _IID_IClassActivator       00460e18     uuid:objidl_i.obj
 0002:00008e28       _IID_IServerSecurity       00460e28     uuid:objidl_i.obj
 0002:00008e38       _IID_IClientSecurity       00460e38     uuid:objidl_i.obj
 0002:00008e48       _IID_IChannelHook          00460e48     uuid:objidl_i.obj
 0002:00008e58       _IID_IPSFactoryBuffer      00460e58     uuid:objidl_i.obj
 0002:00008e68       _IID_IRpcStubBuffer        00460e68     uuid:objidl_i.obj
 0002:00008e78       _IID_IRpcProxyBuffer       00460e78     uuid:objidl_i.obj
 0002:00008e88       _IID_IRpcSyntaxNegotiate   00460e88     uuid:objidl_i.obj
 0002:00008e98       _IID_IRpcChannelBuffer3    00460e98     uuid:objidl_i.obj
 0002:00008ea8       _IID_IAsyncRpcChannelBuffer 00460ea8     uuid:objidl_i.obj
 0002:00008eb8       _IID_IRpcChannelBuffer2    00460eb8     uuid:objidl_i.obj
 0002:00008ec8       _IID_IRpcChannelBuffer     00460ec8     uuid:objidl_i.obj
 0002:00008ed8       _IID_IMessageFilter        00460ed8     uuid:objidl_i.obj
 0002:00008ee8       _IID_IDataAdviseHolder     00460ee8     uuid:objidl_i.obj
 0002:00008ef8       _IID_IDataObject           00460ef8     uuid:objidl_i.obj
 0002:00008f08       _IID_AsyncIAdviseSink2     00460f08     uuid:objidl_i.obj
 0002:00008f18       _IID_IAdviseSink2          00460f18     uuid:objidl_i.obj
 0002:00008f28       _IID_AsyncIAdviseSink      00460f28     uuid:objidl_i.obj
 0002:00008f38       _IID_IAdviseSink           00460f38     uuid:objidl_i.obj
 0002:00008f48       _IID_IRootStorage          00460f48     uuid:objidl_i.obj
 0002:00008f58       _IID_IEnumSTATDATA         00460f58     uuid:objidl_i.obj
 0002:00008f68       _IID_IEnumFORMATETC        00460f68     uuid:objidl_i.obj
 0002:00008f78       _IID_ILockBytes            00460f78     uuid:objidl_i.obj
 0002:00008f88       _IID_IPersistStorage       00460f88     uuid:objidl_i.obj
 0002:00008f98       _IID_IPersistFile          00460f98     uuid:objidl_i.obj
 0002:00008fa8       _IID_IStorage              00460fa8     uuid:objidl_i.obj
 0002:00008fb8       _IID_IEnumSTATSTG          00460fb8     uuid:objidl_i.obj
 0002:00008fc8       _IID_IStream               00460fc8     uuid:objidl_i.obj
 0002:00008fd8       _IID_ISequentialStream     00460fd8     uuid:objidl_i.obj
 0002:00008fe8       _IID_IEnumString           00460fe8     uuid:objidl_i.obj
 0002:00008ff8       _IID_IROTData              00460ff8     uuid:objidl_i.obj
 0002:00009008       _IID_IMoniker              00461008     uuid:objidl_i.obj
 0002:00009018       _IID_IPersistStream        00461018     uuid:objidl_i.obj
 0002:00009028       _IID_IPersist              00461028     uuid:objidl_i.obj
 0002:00009038       _IID_IRunningObjectTable   00461038     uuid:objidl_i.obj
 0002:00009048       _IID_IRunnableObject       00461048     uuid:objidl_i.obj
 0002:00009058       _IID_IEnumMoniker          00461058     uuid:objidl_i.obj
 0002:00009068       _IID_IBindCtx              00461068     uuid:objidl_i.obj
 0002:00009078       _IID_IEnumUnknown          00461078     uuid:objidl_i.obj
 0002:00009088       _IID_IInternalUnknown      00461088     uuid:objidl_i.obj
 0002:00009098       _IID_AsyncIMultiQI         00461098     uuid:objidl_i.obj
 0002:000090a8       _IID_IMultiQI              004610a8     uuid:objidl_i.obj
 0002:000090b8       _IID_IExternalConnection   004610b8     uuid:objidl_i.obj
 0002:000090c8       _IID_IStdMarshalInfo       004610c8     uuid:objidl_i.obj
 0002:000090d8       _IID_IMallocSpy            004610d8     uuid:objidl_i.obj
 0002:000090e8       _IID_IMalloc               004610e8     uuid:objidl_i.obj
 0002:000090f8       _IID_IMarshal2             004610f8     uuid:objidl_i.obj
 0002:00009108       _IID_IMarshal              00461108     uuid:objidl_i.obj
 0002:00009118       _IID_IPropertyBag          00461118     uuid:oaidl_i.obj
 0002:00009128       _IID_IErrorLog             00461128     uuid:oaidl_i.obj
 0002:00009138       _IID_IRecordInfo           00461138     uuid:oaidl_i.obj
 0002:00009148       _IID_ITypeMarshal          00461148     uuid:oaidl_i.obj
 0002:00009158       _IID_ITypeFactory          00461158     uuid:oaidl_i.obj
 0002:00009168       _IID_ISupportErrorInfo     00461168     uuid:oaidl_i.obj
 0002:00009178       _IID_ICreateErrorInfo      00461178     uuid:oaidl_i.obj
 0002:00009188       _IID_IErrorInfo            00461188     uuid:oaidl_i.obj
 0002:00009198       _IID_ITypeChangeEvents     00461198     uuid:oaidl_i.obj
 0002:000091a8       _IID_ITypeLib2             004611a8     uuid:oaidl_i.obj
 0002:000091b8       _IID_ITypeLib              004611b8     uuid:oaidl_i.obj
 0002:000091c8       _IID_ITypeInfo2            004611c8     uuid:oaidl_i.obj
 0002:000091d8       _IID_ITypeInfo             004611d8     uuid:oaidl_i.obj
 0002:000091e8       _IID_ITypeComp             004611e8     uuid:oaidl_i.obj
 0002:000091f8       _IID_IEnumVARIANT          004611f8     uuid:oaidl_i.obj
 0002:00009208       _IID_IDispatch             00461208     uuid:oaidl_i.obj
 0002:00009218       _IID_ICreateTypeLib2       00461218     uuid:oaidl_i.obj
 0002:00009228       _IID_ICreateTypeLib        00461228     uuid:oaidl_i.obj
 0002:00009238       _IID_ICreateTypeInfo2      00461238     uuid:oaidl_i.obj
 0002:00009248       _IID_ICreateTypeInfo       00461248     uuid:oaidl_i.obj
 0002:00009258       _SID_SVersionHost          00461258     uuid:ieguids.obj
 0002:00009268       _CGID_InternetExplorer     00461268     uuid:ieguids.obj
 0002:00009278       _CGID_DownloadHost         00461278     uuid:ieguids.obj
 0002:00009288       _CLSID_SubscriptionThrottler 00461288     uuid:ieguids.obj
 0002:00009298       _CLSID_HTMLLoadOptions     00461298     uuid:ieguids.obj
 0002:000092a8       _CLSID_InternetZoneManager 004612a8     uuid:ieguids.obj
 0002:000092b8       _CLSID_InternetSecurityManager 004612b8     uuid:ieguids.obj
 0002:000092c8       _CLSID_IActiveXSafetyProvider 004612c8     uuid:ieguids.obj
 0002:000092d8       _CLSID_SoftDistExt         004612d8     uuid:ieguids.obj
 0002:000092e8       _NAMEDTIMER_DRAW           004612e8     uuid:ieguids.obj
 0002:000092f8       _IID_IIntDitherer          004612f8     uuid:ieguids.obj
 0002:00009308       _CLSID_IntDitherer         00461308     uuid:ieguids.obj
 0002:00009318       _BFID_GRAY_16              00461318     uuid:ieguids.obj
 0002:00009328       _BFID_GRAY_8               00461328     uuid:ieguids.obj
 0002:00009338       _BFID_RGBA_32              00461338     uuid:ieguids.obj
 0002:00009348       _BFID_RGB_32               00461348     uuid:ieguids.obj
 0002:00009358       _BFID_RGB_24               00461358     uuid:ieguids.obj
 0002:00009368       _BFID_RGB_565              00461368     uuid:ieguids.obj
 0002:00009378       _BFID_RGB_555              00461378     uuid:ieguids.obj
 0002:00009388       _BFID_RGB_8                00461388     uuid:ieguids.obj
 0002:00009398       _BFID_RGB_4                00461398     uuid:ieguids.obj
 0002:000093a8       _BFID_MONOCHROME           004613a8     uuid:ieguids.obj
 0002:000093b8       _SID_SHTMLEditServices     004613b8     uuid:ieguids.obj
 0002:000093c8       _CGID_DocHostCommandHandler 004613c8     uuid:ieguids.obj
 0002:000093d8       _CLSID_HTMLPluginDocument  004613d8     uuid:ieguids.obj
 0002:000093e8       _CLSID_HTMLApplication     004613e8     uuid:ieguids.obj
 0002:000093f8       _CLSID_HTADocument         004613f8     uuid:ieguids.obj
 0002:00009408       _CLSID_MHTMLDocument       00461408     uuid:ieguids.obj
 0002:00009418       _CGID_MSHTML               00461418     uuid:ieguids.obj
 0002:00009428       _CLSID_IImageDecodeFilter  00461428     uuid:ieguids.obj
 0002:00009438       _IID_IImgCtx               00461438     uuid:ieguids.obj
 0002:00009448       _CLSID_IImgCtx             00461448     uuid:ieguids.obj
 0002:00009458       _CATID_DesignTimeUIActivatableControl 00461458     uuid:ieguids.obj
 0002:00009468       _CATID_SafeForInitializing 00461468     uuid:ieguids.obj
 0002:00009478       _CATID_SafeForScripting    00461478     uuid:ieguids.obj
 0002:00009488       _CATID_InternetAware       00461488     uuid:ieguids.obj
 0002:00009498       _CATID_PersistsToPropertyBag 00461498     uuid:ieguids.obj
 0002:000094a8       _CATID_PersistsToFile      004614a8     uuid:ieguids.obj
 0002:000094b8       _CATID_PersistsToMemory    004614b8     uuid:ieguids.obj
 0002:000094c8       _CATID_PersistsToStream    004614c8     uuid:ieguids.obj
 0002:000094d8       _CATID_PersistsToStreamInit 004614d8     uuid:ieguids.obj
 0002:000094e8       _CATID_PersistsToStorage   004614e8     uuid:ieguids.obj
 0002:000094f8       _CATID_PersistsToMoniker   004614f8     uuid:ieguids.obj
 0002:00009508       _CATID_RequiresDataPathHost 00461508     uuid:ieguids.obj
 0002:00009518       _CATID_Printable           00461518     uuid:ieguids.obj
 0002:00009528       _CATID_DocObject           00461528     uuid:ieguids.obj
 0002:00009538       _CATID_NeverShowExt        00461538     uuid:ieguids.obj
 0002:00009548       _CATID_IsShortcut          00461548     uuid:ieguids.obj
 0002:00009558       _CATID_Programmable        00461558     uuid:ieguids.obj
 0002:00009568       _CATID_Control             00461568     uuid:ieguids.obj
 0002:00009578       _CATID_Insertable          00461578     uuid:ieguids.obj
 0002:00009588       _CLSID_StdComponentCategoriesMgr 00461588     uuid:ieguids.obj
 0002:00009598       _ARRAYID_PathProperties    00461598     uuid:ieguids.obj
 0002:000095a8       _FLAGID_Internet           004615a8     uuid:ieguids.obj
 0002:000095b8       _OLE_DATAPATH_PENDATA      004615b8     uuid:ieguids.obj
 0002:000095c8       _OLE_DATAPATH_PALETTE      004615c8     uuid:ieguids.obj
 0002:000095d8       _OLE_DATAPATH_BIFF         004615d8     uuid:ieguids.obj
 0002:000095e8       _OLE_DATAPATH_SYLK         004615e8     uuid:ieguids.obj
 0002:000095f8       _OLE_DATAPATH_DIF          004615f8     uuid:ieguids.obj
 0002:00009608       _OLE_DATAPATH_ALLTEXT      00461608     uuid:ieguids.obj
 0002:00009618       _OLE_DATAPATH_POSTSCRIPT   00461618     uuid:ieguids.obj
 0002:00009628       _OLE_DATAPATH_HTML         00461628     uuid:ieguids.obj
 0002:00009638       _OLE_DATAPATH_RTF          00461638     uuid:ieguids.obj
 0002:00009648       _OLE_DATAPATH_UNICODE      00461648     uuid:ieguids.obj
 0002:00009658       _OLE_DATAPATH_ANSITEXT     00461658     uuid:ieguids.obj
 0002:00009668       _OLE_DATAPATH_ALLMM        00461668     uuid:ieguids.obj
 0002:00009678       _OLE_DATAPATH_VIDEO        00461678     uuid:ieguids.obj
 0002:00009688       _OLE_DATAPATH_SOUND        00461688     uuid:ieguids.obj
 0002:00009698       _OLE_DATAPATH_RIFF         00461698     uuid:ieguids.obj
 0002:000096a8       _OLE_DATAPATH_WAV          004616a8     uuid:ieguids.obj
 0002:000096b8       _OLE_DATAPATH_MIDI         004616b8     uuid:ieguids.obj
 0002:000096c8       _OLE_DATAPATH_BASICAUDIO   004616c8     uuid:ieguids.obj
 0002:000096d8       _OLE_DATAPATH_QUICKTIME    004616d8     uuid:ieguids.obj
 0002:000096e8       _OLE_DATAPATH_MPEG         004616e8     uuid:ieguids.obj
 0002:000096f8       _OLE_DATAPATH_AVI          004616f8     uuid:ieguids.obj
 0002:00009708       _OLE_DATAPATH_ALLIMAGE     00461708     uuid:ieguids.obj
 0002:00009718       _OLE_DATAPATH_COMMONIMAGE  00461718     uuid:ieguids.obj
 0002:00009728       _OLE_DATAPATH_EPS          00461728     uuid:ieguids.obj
 0002:00009738       _OLE_DATAPATH_CGM          00461738     uuid:ieguids.obj
 0002:00009748       _OLE_DATAPATH_PICT         00461748     uuid:ieguids.obj
 0002:00009758       _OLE_DATAPATH_PCX          00461758     uuid:ieguids.obj
 0002:00009768       _OLE_DATAPATH_XBM          00461768     uuid:ieguids.obj
 0002:00009778       _OLE_DATAPATH_TIFF         00461778     uuid:ieguids.obj
 0002:00009788       _OLE_DATAPATH_JPEG         00461788     uuid:ieguids.obj
 0002:00009798       _OLE_DATAPATH_GIF          00461798     uuid:ieguids.obj
 0002:000097a8       _OLE_DATAPATH_ENHMF        004617a8     uuid:ieguids.obj
 0002:000097b8       _OLE_DATAPATH_WMF          004617b8     uuid:ieguids.obj
 0002:000097c8       _OLE_DATAPATH_DIB          004617c8     uuid:ieguids.obj
 0002:000097d8       _OLE_DATAPATH_BMP          004617d8     uuid:ieguids.obj
 0002:000097e8       _CLSID_StdHlinkBrowseContext 004617e8     uuid:ieguids.obj
 0002:000097f8       _CLSID_StdHlink            004617f8     uuid:ieguids.obj
 0002:00009808       _GUID_HasPathProperties    00461808     uuid:ieguids.obj
 0002:00009818       _GUID_PathProperty         00461818     uuid:ieguids.obj
 0002:00009828       _SID_SDataPathBrowser      00461828     uuid:ieguids.obj
 0002:00009838       _SID_SContainerDispatch    00461838     uuid:ieguids.obj
 0002:00009848       _IID_IAccessible           00461848     uuid:ieguids.obj
 0002:00009858       _LIBID_Accessibility       00461858     uuid:ieguids.obj
 0002:00009868       _CLSID_ClassInstallFilter  00461868     uuid:ieguids.obj
 0002:00009878       _CLSID_CdlProtocol         00461878     uuid:ieguids.obj
 0002:00009888       _CLSID_DeCompMimeFilter    00461888     uuid:ieguids.obj
 0002:00009898       _CLSID_StdEncodingFilterFac 00461898     uuid:ieguids.obj
 0002:000098a8       _CLSID_NotificaitonTest4   004618a8     uuid:ieguids.obj
 0002:000098b8       _CLSID_NotificaitonTest3   004618b8     uuid:ieguids.obj
 0002:000098c8       _CLSID_NotificaitonTest2   004618c8     uuid:ieguids.obj
 0002:000098d8       _CLSID_NotificaitonTest1   004618d8     uuid:ieguids.obj
 0002:000098e8       _NOTIFICATIONTYPE_START_F  004618e8     uuid:ieguids.obj
 0002:000098f8       _NOTIFICATIONTYPE_START_E  004618f8     uuid:ieguids.obj
 0002:00009908       _NOTIFICATIONTYPE_START_D  00461908     uuid:ieguids.obj
 0002:00009918       _NOTIFICATIONTYPE_START_C  00461918     uuid:ieguids.obj
 0002:00009928       _NOTIFICATIONTYPE_START_B  00461928     uuid:ieguids.obj
 0002:00009938       _NOTIFICATIONTYPE_START_A  00461938     uuid:ieguids.obj
 0002:00009948       _NOTIFICATIONTYPE_START_9  00461948     uuid:ieguids.obj
 0002:00009958       _NOTIFICATIONTYPE_START_8  00461958     uuid:ieguids.obj
 0002:00009968       _NOTIFICATIONTYPE_START_7  00461968     uuid:ieguids.obj
 0002:00009978       _NOTIFICATIONTYPE_START_6  00461978     uuid:ieguids.obj
 0002:00009988       _NOTIFICATIONTYPE_START_5  00461988     uuid:ieguids.obj
 0002:00009998       _NOTIFICATIONTYPE_START_4  00461998     uuid:ieguids.obj
 0002:000099a8       _NOTIFICATIONTYPE_START_3  004619a8     uuid:ieguids.obj
 0002:000099b8       _NOTIFICATIONTYPE_START_2  004619b8     uuid:ieguids.obj
 0002:000099c8       _NOTIFICATIONTYPE_START_1  004619c8     uuid:ieguids.obj
 0002:000099d8       _NOTIFICATIONTYPE_START_0  004619d8     uuid:ieguids.obj
 0002:000099e8       _NOTIFICATIONTYPE_15       004619e8     uuid:ieguids.obj
 0002:000099f8       _NOTIFICATIONTYPE_14       004619f8     uuid:ieguids.obj
 0002:00009a08       _NOTIFICATIONTYPE_13       00461a08     uuid:ieguids.obj
 0002:00009a18       _NOTIFICATIONTYPE_12       00461a18     uuid:ieguids.obj
 0002:00009a28       _NOTIFICATIONTYPE_11       00461a28     uuid:ieguids.obj
 0002:00009a38       _NOTIFICATIONTYPE_f        00461a38     uuid:ieguids.obj
 0002:00009a48       _NOTIFICATIONTYPE_e        00461a48     uuid:ieguids.obj
 0002:00009a58       _NOTIFICATIONTYPE_d        00461a58     uuid:ieguids.obj
 0002:00009a68       _NOTIFICATIONTYPE_TASKS_ERROR 00461a68     uuid:ieguids.obj
 0002:00009a78       _NOTIFICATIONTYPE_TASKS_STARTED 00461a78     uuid:ieguids.obj
 0002:00009a88       _NOTIFICATIONTYPE_USER_IDLE_END 00461a88     uuid:ieguids.obj
 0002:00009a98       _NOTIFICATIONTYPE_USER_IDLE_BEGIN 00461a98     uuid:ieguids.obj
 0002:00009aa8       _NOTIFICATIONTYPE_PROGRESS_REPORT 00461aa8     uuid:ieguids.obj
 0002:00009ab8       _NOTIFICATIONTYPE_CONFIG_CHANGED 00461ab8     uuid:ieguids.obj
 0002:00009ac8       _NOTIFICATIONTYPE_DISCONNECT_FROM_INTERNET 00461ac8     uuid:ieguids.obj
 0002:00009ad8       _NOTIFICATIONTYPE_CONNECT_TO_INTERNET 00461ad8     uuid:ieguids.obj
 0002:00009ae8       _NOTIFICATIONTYPE_AGENT_INIT 00461ae8     uuid:ieguids.obj
 0002:00009af8       _NOTIFICATIONTYPE_END_REPORT 00461af8     uuid:ieguids.obj
 0002:00009b08       _NOTIFICATIONTYPE_BEGIN_REPORT 00461b08     uuid:ieguids.obj
 0002:00009b18       _NOTIFICATIONTYPE_AGENT_START 00461b18     uuid:ieguids.obj
 0002:00009b28       _NOTIFICATIONTYPE_TASKS_PROGRESS 00461b28     uuid:ieguids.obj
 0002:00009b38       _NOTIFICATIONTYPE_TASKS_COMPLETED 00461b38     uuid:ieguids.obj
 0002:00009b48       _NOTIFICATIONTYPE_TASKS_ABORT 00461b48     uuid:ieguids.obj
 0002:00009b58       _NOTIFICATIONTYPE_TASKS_RESUME 00461b58     uuid:ieguids.obj
 0002:00009b68       _NOTIFICATIONTYPE_TASKS_SUSPEND 00461b68     uuid:ieguids.obj
 0002:00009b78       _NOTIFICATIONTYPE_INET_ONLINE 00461b78     uuid:ieguids.obj
 0002:00009b88       _NOTIFICATIONTYPE_INET_OFFLINE 00461b88     uuid:ieguids.obj
 0002:00009b98       _NOTIFICATIONTYPE_INET_IDLE 00461b98     uuid:ieguids.obj
 0002:00009ba8       _NOTIFICATIONTYPE_ALERT    00461ba8     uuid:ieguids.obj
 0002:00009bb8       _NOTIFICATIONTYPE_TASK     00461bb8     uuid:ieguids.obj
 0002:00009bc8       _NOTIFICATIONTYPE_ANOUNCMENT 00461bc8     uuid:ieguids.obj
 0002:00009bd8       _NOTIFICATIONTYPE_NULL     00461bd8     uuid:ieguids.obj
 0002:00009be8       _NOTFCOOKIE_SCHEDULE_GROUP_MANUAL 00461be8     uuid:ieguids.obj
 0002:00009bf8       _NOTFCOOKIE_SCHEDULE_GROUP_MONTHLY 00461bf8     uuid:ieguids.obj
 0002:00009c08       _NOTFCOOKIE_SCHEDULE_GROUP_WEEKLY 00461c08     uuid:ieguids.obj
 0002:00009c18       _NOTFCOOKIE_SCHEDULE_GROUP_DAILY 00461c18     uuid:ieguids.obj
 0002:00009c28       _NOTIFICATIONTYPE_iF       00461c28     uuid:ieguids.obj
 0002:00009c38       _NOTIFICATIONTYPE_iE       00461c38     uuid:ieguids.obj
 0002:00009c48       _NOTIFICATIONTYPE_iD       00461c48     uuid:ieguids.obj
 0002:00009c58       _NOTIFICATIONTYPE_iC       00461c58     uuid:ieguids.obj
 0002:00009c68       _NOTIFICATIONTYPE_iB       00461c68     uuid:ieguids.obj
 0002:00009c78       _NOTIFICATIONTYPE_iA       00461c78     uuid:ieguids.obj
 0002:00009c88       _NOTIFICATIONTYPE_i9       00461c88     uuid:ieguids.obj
 0002:00009c98       _NOTIFICATIONTYPE_i8       00461c98     uuid:ieguids.obj
 0002:00009ca8       _NOTIFICATIONTYPE_i7       00461ca8     uuid:ieguids.obj
 0002:00009cb8       _NOTIFICATIONTYPE_i6       00461cb8     uuid:ieguids.obj
 0002:00009cc8       _NOTIFICATIONTYPE_GROUP_DONE 00461cc8     uuid:ieguids.obj
 0002:00009cd8       _NOTIFICATIONTYPE_GROUP_RESTART 00461cd8     uuid:ieguids.obj
 0002:00009ce8       _NOTIFICATIONTYPE_GROUP_START 00461ce8     uuid:ieguids.obj
 0002:00009cf8       _NOTIFICATIONTYPE_ITEM_DONE 00461cf8     uuid:ieguids.obj
 0002:00009d08       _NOTIFICATIONTYPE_ITEM_RESTART 00461d08     uuid:ieguids.obj
 0002:00009d18       _NOTIFICATIONTYPE_ITEM_START 00461d18     uuid:ieguids.obj
 0002:00009d28       _CLSID_d                   00461d28     uuid:ieguids.obj
 0002:00009d38       _CLSID_c                   00461d38     uuid:ieguids.obj
 0002:00009d48       _CLSID_b                   00461d48     uuid:ieguids.obj
 0002:00009d58       _CLSID_a                   00461d58     uuid:ieguids.obj
 0002:00009d68       _CLSID_9                   00461d68     uuid:ieguids.obj
 0002:00009d78       _CLSID_8                   00461d78     uuid:ieguids.obj
 0002:00009d88       _CLSID_7                   00461d88     uuid:ieguids.obj
 0002:00009d98       _CLSID_6                   00461d98     uuid:ieguids.obj
 0002:00009da8       _CLSID_5                   00461da8     uuid:ieguids.obj
 0002:00009db8       _CLSID_4                   00461db8     uuid:ieguids.obj
 0002:00009dc8       _CLSID_3                   00461dc8     uuid:ieguids.obj
 0002:00009dd8       _CLSID_2                   00461dd8     uuid:ieguids.obj
 0002:00009de8       _CLSID_1                   00461de8     uuid:ieguids.obj
 0002:00009df8       _CLSID_THREAD_BROADCAST    00461df8     uuid:ieguids.obj
 0002:00009e08       _CLSID_PROCESS_BROADCAST   00461e08     uuid:ieguids.obj
 0002:00009e18       _CLSID_GLOBAL_BROADCAST    00461e18     uuid:ieguids.obj
 0002:00009e28       _IID_IOInetProtocolInfo    00461e28     uuid:ieguids.obj
 0002:00009e38       _IID_IOInetPriority        00461e38     uuid:ieguids.obj
 0002:00009e48       _IID_IOInetCache           00461e48     uuid:ieguids.obj
 0002:00009e58       _IID_IOInetThreadSwitch    00461e58     uuid:ieguids.obj
 0002:00009e68       _IID_IOInetSession         00461e68     uuid:ieguids.obj
 0002:00009e78       _IID_IOInetProtocolSink    00461e78     uuid:ieguids.obj
 0002:00009e88       _IID_IOInetProtocol        00461e88     uuid:ieguids.obj
 0002:00009e98       _IID_IOInetProtocolRoot    00461e98     uuid:ieguids.obj
 0002:00009ea8       _IID_IOInetBindClient      00461ea8     uuid:ieguids.obj
 0002:00009eb8       _IID_IOInetBindInfo        00461eb8     uuid:ieguids.obj
 0002:00009ec8       _IID_IOInet                00461ec8     uuid:ieguids.obj
 0002:00009ed8       _IID_INotificationProcessMgr0 00461ed8     uuid:ieguids.obj
 0002:00009ee8       _IID_INotificationRunning  00461ee8     uuid:ieguids.obj
 0002:00009ef8       _IID_INotificationPing     00461ef8     uuid:ieguids.obj
 0002:00009f08       _IID_INotificationHelper   00461f08     uuid:ieguids.obj
 0002:00009f18       _IID_IEnumNotificationSinkItem 00461f18     uuid:ieguids.obj
 0002:00009f28       _IID_IEnumScheduleGroup    00461f28     uuid:ieguids.obj
 0002:00009f38       _IID_IEnumNotification     00461f38     uuid:ieguids.obj
 0002:00009f48       _IID_INotificationReport   00461f48     uuid:ieguids.obj
 0002:00009f58       _IID_IScheduleGroup        00461f58     uuid:ieguids.obj
 0002:00009f68       _IID_INotificationSink     00461f68     uuid:ieguids.obj
 0002:00009f78       _IID_INotificationMgr      00461f78     uuid:ieguids.obj
 0002:00009f88       _IID_INotification         00461f88     uuid:ieguids.obj
 0002:00009f98       _IID_IPropertyMap          00461f98     uuid:ieguids.obj
 0002:00009fa8       _IID_IEnumPropertyMap      00461fa8     uuid:ieguids.obj
 0002:00009fb8       _CLSID_WebCheckDefaultProcess 00461fb8     uuid:ieguids.obj
 0002:00009fc8       _CLSID_StdNotificationMgr  00461fc8     uuid:ieguids.obj
 0002:00009fd8       _IID_IDebugOut             00461fd8     uuid:ieguids.obj
 0002:00009fe8       _IID_IDebugRegister        00461fe8     uuid:ieguids.obj
 0002:00009ff8       _IID_IBindStatusCallbackMsg 00461ff8     uuid:ieguids.obj
 0002:0000a008       _IID_IAsyncBindCtx         00462008     uuid:ieguids.obj
 0002:0000a018       _IID_IBindStatusCallbackHolder 00462018     uuid:ieguids.obj
 0002:0000a028       _IID_IAsyncMoniker         00462028     uuid:ieguids.obj
 0002:0000a038       _CLSID_AboutProtocol       00462038     uuid:ieguids.obj
 0002:0000a048       _CLSID_ResProtocol         00462048     uuid:ieguids.obj
 0002:0000a058       _CLSID_UrlMkBindCtx        00462058     uuid:ieguids.obj
 0002:0000a068       _CLSID_PSUrlMonProxy       00462068     uuid:ieguids.obj
 0002:0000a078       _CLSID_FileProtocol        00462078     uuid:ieguids.obj
 0002:0000a088       _CLSID_MkProtocol          00462088     uuid:ieguids.obj
 0002:0000a098       _CLSID_HttpSProtocol       00462098     uuid:ieguids.obj
 0002:0000a0a8       _CLSID_GopherProtocol      004620a8     uuid:ieguids.obj
 0002:0000a0b8       _CLSID_FtpProtocol         004620b8     uuid:ieguids.obj
 0002:0000a0c8       _CLSID_HttpProtocol        004620c8     uuid:ieguids.obj
 0002:0000a0d8       _CLSID_StdURLProtocol      004620d8     uuid:ieguids.obj
 0002:0000a0e8       _CLSID_StdURLMoniker       004620e8     uuid:ieguids.obj
 0002:0000a120       ??_C@_0DF@FKILAAGL@Load?5failed?5due?5to?5incompatible?5@ 00462120     libcmt:checkclr.obj
 0002:0000a158       ??_C@_0P@GOIJDIPK@GetFileVersion?$AA@ 00462158     libcmt:checkclr.obj
 0002:0000a168       ??_C@_0BG@OFDLOIGJ@GetCORSystemDirectory?$AA@ 00462168     libcmt:checkclr.obj
 0002:00010c7c       ??_R1A@?0A@A@CObject@@8    00468c7c     nafxcw:olemisc.obj
 0002:00010c94       ??_R1A@?0A@A@CException@@8 00468c94     nafxcw:olemisc.obj
 0002:00010cac       ??_R1A@?0A@A@COleException@@8 00468cac     nafxcw:olemisc.obj
 0002:00010cc4       ??_R2COleException@@8      00468cc4     nafxcw:olemisc.obj
 0002:00010cd4       ??_R3COleException@@8      00468cd4     nafxcw:olemisc.obj
 0002:00010ce4       ??_R4COleException@@6B@    00468ce4     nafxcw:olemisc.obj
 0002:00010cf8       ??_R1A@?0A@A@CSimpleException@@8 00468cf8     nafxcw:except.obj
 0002:00010d10       ??_R1A@?0A@A@CMemoryException@@8 00468d10     nafxcw:except.obj
 0002:00010d28       ??_R2CMemoryException@@8   00468d28     nafxcw:except.obj
 0002:00010d3c       ??_R3CMemoryException@@8   00468d3c     nafxcw:except.obj
 0002:00010d4c       ??_R4CMemoryException@@6B@ 00468d4c     nafxcw:except.obj
 0002:00010d60       ??_R1A@?0A@A@CNotSupportedException@@8 00468d60     nafxcw:except.obj
 0002:00010d78       ??_R2CNotSupportedException@@8 00468d78     nafxcw:except.obj
 0002:00010d8c       ??_R3CNotSupportedException@@8 00468d8c     nafxcw:except.obj
 0002:00010d9c       ??_R4CNotSupportedException@@6B@ 00468d9c     nafxcw:except.obj
 0002:00010db0       ??_R1A@?0A@A@CInvalidArgException@@8 00468db0     nafxcw:except.obj
 0002:00010dc8       ??_R2CInvalidArgException@@8 00468dc8     nafxcw:except.obj
 0002:00010ddc       ??_R3CInvalidArgException@@8 00468ddc     nafxcw:except.obj
 0002:00010dec       ??_R4CInvalidArgException@@6B@ 00468dec     nafxcw:except.obj
 0002:00010e00       ??_R1A@?0A@A@IAtlStringMgr@ATL@@8 00468e00     nafxcw:strcore.obj
 0002:00010e18       ??_R1A@?0A@A@CAfxStringMgr@@8 00468e18     nafxcw:strcore.obj
 0002:00010e30       ??_R2CAfxStringMgr@@8      00468e30     nafxcw:strcore.obj
 0002:00010e3c       ??_R3CAfxStringMgr@@8      00468e3c     nafxcw:strcore.obj
 0002:00010e4c       ??_R4CAfxStringMgr@@6B@    00468e4c     nafxcw:strcore.obj
 0002:00010e60       ??_R1A@?0A@A@IUnknown@@8   00468e60     nafxcw:oleunk.obj
 0002:00010e78       ??_R1A@?0A@A@CInnerUnknown@@8 00468e78     nafxcw:oleunk.obj
 0002:00010e90       ??_R2CInnerUnknown@@8      00468e90     nafxcw:oleunk.obj
 0002:00010e9c       ??_R3CInnerUnknown@@8      00468e9c     nafxcw:oleunk.obj
 0002:00010eac       ??_R4CInnerUnknown@@6B@    00468eac     nafxcw:oleunk.obj
 0002:00010ec0       ??_R1A@?0A@A@CNoTrackObject@@8 00468ec0     nafxcw:afxstate.obj
 0002:00010ed8       ??_R1A@?0A@A@_AFX_THREAD_STATE@@8 00468ed8     nafxcw:afxstate.obj
 0002:00010ef0       ??_R2_AFX_THREAD_STATE@@8  00468ef0     nafxcw:afxstate.obj
 0002:00010efc       ??_R3_AFX_THREAD_STATE@@8  00468efc     nafxcw:afxstate.obj
 0002:00010f0c       ??_R4_AFX_THREAD_STATE@@6B@ 00468f0c     nafxcw:afxstate.obj
 0002:00010f20       ??_R1A@?0A@A@AFX_MODULE_STATE@@8 00468f20     nafxcw:afxstate.obj
 0002:00010f38       ??_R2AFX_MODULE_STATE@@8   00468f38     nafxcw:afxstate.obj
 0002:00010f44       ??_R3AFX_MODULE_STATE@@8   00468f44     nafxcw:afxstate.obj
 0002:00010f54       ??_R4AFX_MODULE_STATE@@6B@ 00468f54     nafxcw:afxstate.obj
 0002:00010f68       ??_R1A@?0A@A@AFX_MODULE_THREAD_STATE@@8 00468f68     nafxcw:afxstate.obj
 0002:00010f80       ??_R2AFX_MODULE_THREAD_STATE@@8 00468f80     nafxcw:afxstate.obj
 0002:00010f8c       ??_R3AFX_MODULE_THREAD_STATE@@8 00468f8c     nafxcw:afxstate.obj
 0002:00010f9c       ??_R4AFX_MODULE_THREAD_STATE@@6B@ 00468f9c     nafxcw:afxstate.obj
 0002:00010fb0       ??_R1A@?0A@A@_AFX_BASE_MODULE_STATE@@8 00468fb0     nafxcw:afxstate.obj
 0002:00010fc8       ??_R2_AFX_BASE_MODULE_STATE@@8 00468fc8     nafxcw:afxstate.obj
 0002:00010fd8       ??_R3_AFX_BASE_MODULE_STATE@@8 00468fd8     nafxcw:afxstate.obj
 0002:00010fe8       ??_R4_AFX_BASE_MODULE_STATE@@6B@ 00468fe8     nafxcw:afxstate.obj
 0002:00010ffc       ??_R1A@?0A@A@CThreadData@@8 00468ffc     nafxcw:afxtls.obj
 0002:00011014       ??_R2CThreadData@@8        00469014     nafxcw:afxtls.obj
 0002:00011020       ??_R3CThreadData@@8        00469020     nafxcw:afxtls.obj
 0002:00011030       ??_R4CThreadData@@6B@      00469030     nafxcw:afxtls.obj
 0002:00011044       ??_R1A@?0A@A@CArchiveException@@8 00469044     nafxcw:arcex.obj
 0002:0001105c       ??_R2CArchiveException@@8  0046905c     nafxcw:arcex.obj
 0002:0001106c       ??_R3CArchiveException@@8  0046906c     nafxcw:arcex.obj
 0002:0001107c       ??_R4CArchiveException@@6B@ 0046907c     nafxcw:arcex.obj
 0002:00011090       ??_R1A@?0A@A@CMapPtrToPtr@@8 00469090     nafxcw:map_pp.obj
 0002:000110a8       ??_R2CMapPtrToPtr@@8       004690a8     nafxcw:map_pp.obj
 0002:000110b4       ??_R3CMapPtrToPtr@@8       004690b4     nafxcw:map_pp.obj
 0002:000110c4       ??_R4CMapPtrToPtr@@6B@     004690c4     nafxcw:map_pp.obj
 0002:000110d8       ??_R1A@?0A@A@CPtrList@@8   004690d8     nafxcw:list_p.obj
 0002:000110f0       ??_R2CPtrList@@8           004690f0     nafxcw:list_p.obj
 0002:000110fc       ??_R3CPtrList@@8           004690fc     nafxcw:list_p.obj
 0002:0001110c       ??_R4CPtrList@@6B@         0046910c     nafxcw:list_p.obj
 0002:00011120       ??_R1A@?0A@A@CCmdTarget@@8 00469120     nafxcw:thrdcore.obj
 0002:00011138       ??_R1A@?0A@A@CWinThread@@8 00469138     nafxcw:thrdcore.obj
 0002:00011150       ??_R2CWinThread@@8         00469150     nafxcw:thrdcore.obj
 0002:00011160       ??_R3CWinThread@@8         00469160     nafxcw:thrdcore.obj
 0002:00011170       ??_R4CWinThread@@6B@       00469170     nafxcw:thrdcore.obj
 0002:00011184       ??_R1A@?0A@A@CByteArray@@8 00469184     nafxcw:array_b.obj
 0002:0001119c       ??_R2CByteArray@@8         0046919c     nafxcw:array_b.obj
 0002:000111a8       ??_R3CByteArray@@8         004691a8     nafxcw:array_b.obj
 0002:000111b8       ??_R4CByteArray@@6B@       004691b8     nafxcw:array_b.obj
 0002:000111cc       ??_R1A@?0A@A@ISequentialStream@@8 004691cc     nafxcw:arcstrm.obj
 0002:000111e4       ??_R1A@?0A@A@IStream@@8    004691e4     nafxcw:arcstrm.obj
 0002:000111fc       ??_R1A@?0A@A@CArchiveStream@@8 004691fc     nafxcw:arcstrm.obj
 0002:00011214       ??_R2CArchiveStream@@8     00469214     nafxcw:arcstrm.obj
 0002:00011228       ??_R3CArchiveStream@@8     00469228     nafxcw:arcstrm.obj
 0002:00011238       ??_R4CArchiveStream@@6B@   00469238     nafxcw:arcstrm.obj
 0002:0001124c       ??_R1A@?0A@A@CCmdUI@@8     0046924c     nafxcw:cmdtarg.obj
 0002:00011264       ??_R2CCmdUI@@8             00469264     nafxcw:cmdtarg.obj
 0002:0001126c       ??_R3CCmdUI@@8             0046926c     nafxcw:cmdtarg.obj
 0002:0001127c       ??_R4CCmdUI@@6B@           0046927c     nafxcw:cmdtarg.obj
 0002:00011290       ??_R1A@?0A@A@CHandleMap@@8 00469290     nafxcw:winhand.obj
 0002:000112a8       ??_R2CHandleMap@@8         004692a8     nafxcw:winhand.obj
 0002:000112b0       ??_R3CHandleMap@@8         004692b0     nafxcw:winhand.obj
 0002:000112c0       ??_R4CHandleMap@@6B@       004692c0     nafxcw:winhand.obj
 0002:000112d4       ??_R1A@?0A@A@XAccessible@CWnd@@8 004692d4     nafxcw:wincore.obj
 0002:000112ec       ??_R2XAccessible@CWnd@@8   004692ec     nafxcw:wincore.obj
 0002:000112f4       ??_R3XAccessible@CWnd@@8   004692f4     nafxcw:wincore.obj
 0002:00011304       ??_R4XAccessible@CWnd@@6B@ 00469304     nafxcw:wincore.obj
 0002:00011318       ??_R1A@?0A@A@XAccessibleServer@CWnd@@8 00469318     nafxcw:wincore.obj
 0002:00011330       ??_R2XAccessibleServer@CWnd@@8 00469330     nafxcw:wincore.obj
 0002:00011338       ??_R3XAccessibleServer@CWnd@@8 00469338     nafxcw:wincore.obj
 0002:00011348       ??_R4XAccessibleServer@CWnd@@6B@ 00469348     nafxcw:wincore.obj
 0002:0001135c       ??_R1A@?0A@A@CWnd@@8       0046935c     nafxcw:wincore.obj
 0002:00011374       ??_R2CWnd@@8               00469374     nafxcw:wincore.obj
 0002:00011384       ??_R3CWnd@@8               00469384     nafxcw:wincore.obj
 0002:00011394       ??_R4CWnd@@6B@             00469394     nafxcw:wincore.obj
 0002:000113a8       ??_R1A@?0A@A@_AFX_HTMLHELP_STATE@@8 004693a8     nafxcw:wincore.obj
 0002:000113c0       ??_R2_AFX_HTMLHELP_STATE@@8 004693c0     nafxcw:wincore.obj
 0002:000113cc       ??_R3_AFX_HTMLHELP_STATE@@8 004693cc     nafxcw:wincore.obj
 0002:000113dc       ??_R4_AFX_HTMLHELP_STATE@@6B@ 004693dc     nafxcw:wincore.obj
 0002:000113f0       ??_R1A@?0A@A@CTestCmdUI@@8 004693f0     nafxcw:wincore.obj
 0002:00011408       ??_R2CTestCmdUI@@8         00469408     nafxcw:wincore.obj
 0002:00011414       ??_R3CTestCmdUI@@8         00469414     nafxcw:wincore.obj
 0002:00011424       ??_R4CTestCmdUI@@6B@       00469424     nafxcw:wincore.obj
 0002:00011438       ??_R4?$IAccessibleProxyImpl@VCAccessibleProxy@ATL@@@ATL@@6BIAccessibleProxy@@@ 00469438     nafxcw:wincore.obj
 0002:0001144c       ??_R13?0A@1IUnknown@@8     0046944c     nafxcw:wincore.obj
 0002:00011464       ??_R13?0A@A@IAccessibleProxy@@8 00469464     nafxcw:wincore.obj
 0002:0001147c       ??_R1A@?0A@1IUnknown@@8    0046947c     nafxcw:wincore.obj
 0002:00011494       ??_R1A@?0A@A@IDispatch@@8  00469494     nafxcw:wincore.obj
 0002:000114ac       ??_R1A@?0A@A@IAccessible@@8 004694ac     nafxcw:wincore.obj
 0002:000114c4       ??_R1A@?0A@A@?$IAccessibleProxyImpl@VCAccessibleProxy@ATL@@@ATL@@8 004694c4     nafxcw:wincore.obj
 0002:000114dc       ??_R2?$IAccessibleProxyImpl@VCAccessibleProxy@ATL@@@ATL@@8 004694dc     nafxcw:wincore.obj
 0002:000114f8       ??_R3?$IAccessibleProxyImpl@VCAccessibleProxy@ATL@@@ATL@@8 004694f8     nafxcw:wincore.obj
 0002:00011508       ??_R4?$IAccessibleProxyImpl@VCAccessibleProxy@ATL@@@ATL@@6BIAccessible@@@ 00469508     nafxcw:wincore.obj
 0002:0001151c       ??_R4?$CMFCComObject@VCAccessibleProxy@ATL@@@@6B@ 0046951c     nafxcw:wincore.obj
 0002:00011530       ??_R4?$CMFCComObject@VCAccessibleProxy@ATL@@@@6BIAccessibleProxy@@@ 00469530     nafxcw:wincore.obj
 0002:00011544       ??_R1BA@?0A@1IUnknown@@8   00469544     nafxcw:wincore.obj
 0002:0001155c       ??_R1BA@?0A@A@IOleWindow@@8 0046955c     nafxcw:wincore.obj
 0002:00011574       ??_R1BE@?0A@A@CComObjectRootBase@ATL@@8 00469574     nafxcw:wincore.obj
 0002:0001158c       ??_R1BE@?0A@A@?$CComObjectRootEx@VCComSingleThreadModel@ATL@@@ATL@@8 0046958c     nafxcw:wincore.obj
 0002:000115a4       ??_R1A@?0A@A@CAccessibleProxy@ATL@@8 004695a4     nafxcw:wincore.obj
 0002:000115bc       ??_R1A@?0A@A@?$CMFCComObject@VCAccessibleProxy@ATL@@@@8 004695bc     nafxcw:wincore.obj
 0002:000115d4       ??_R2?$CMFCComObject@VCAccessibleProxy@ATL@@@@8 004695d4     nafxcw:wincore.obj
 0002:00011608       ??_R3?$CMFCComObject@VCAccessibleProxy@ATL@@@@8 00469608     nafxcw:wincore.obj
 0002:00011618       ??_R4?$CMFCComObject@VCAccessibleProxy@ATL@@@@6BIAccessible@@@ 00469618     nafxcw:wincore.obj
 0002:0001162c       ??_R1A@?0A@A@CResourceException@@8 0046962c     nafxcw:wingdi.obj
 0002:00011644       ??_R2CResourceException@@8 00469644     nafxcw:wingdi.obj
 0002:00011658       ??_R3CResourceException@@8 00469658     nafxcw:wingdi.obj
 0002:00011668       ??_R4CResourceException@@6B@ 00469668     nafxcw:wingdi.obj
 0002:0001167c       ??_R1A@?0A@A@CUserException@@8 0046967c     nafxcw:wingdi.obj
 0002:00011694       ??_R2CUserException@@8     00469694     nafxcw:wingdi.obj
 0002:000116a8       ??_R3CUserException@@8     004696a8     nafxcw:wingdi.obj
 0002:000116b8       ??_R4CUserException@@6B@   004696b8     nafxcw:wingdi.obj
 0002:000116cc       ??_R1A@?0A@A@CGdiObject@@8 004696cc     nafxcw:wingdi.obj
 0002:000116e4       ??_R2CGdiObject@@8         004696e4     nafxcw:wingdi.obj
 0002:000116f0       ??_R3CGdiObject@@8         004696f0     nafxcw:wingdi.obj
 0002:00011700       ??_R4CGdiObject@@6B@       00469700     nafxcw:wingdi.obj
 0002:00011714       ??_R1A@?0A@A@CDC@@8        00469714     nafxcw:wingdi.obj
 0002:0001172c       ??_R2CDC@@8                0046972c     nafxcw:wingdi.obj
 0002:00011738       ??_R3CDC@@8                00469738     nafxcw:wingdi.obj
 0002:00011748       ??_R4CDC@@6B@              00469748     nafxcw:wingdi.obj
 0002:0001175c       ??_R1A@?0A@A@CClientDC@@8  0046975c     nafxcw:wingdi.obj
 0002:00011774       ??_R2CClientDC@@8          00469774     nafxcw:wingdi.obj
 0002:00011784       ??_R3CClientDC@@8          00469784     nafxcw:wingdi.obj
 0002:00011794       ??_R4CClientDC@@6B@        00469794     nafxcw:wingdi.obj
 0002:000117a8       ??_R1A@?0A@A@CWindowDC@@8  004697a8     nafxcw:wingdi.obj
 0002:000117c0       ??_R2CWindowDC@@8          004697c0     nafxcw:wingdi.obj
 0002:000117d0       ??_R3CWindowDC@@8          004697d0     nafxcw:wingdi.obj
 0002:000117e0       ??_R4CWindowDC@@6B@        004697e0     nafxcw:wingdi.obj
 0002:000117f4       ??_R1A@?0A@A@CPaintDC@@8   004697f4     nafxcw:wingdi.obj
 0002:0001180c       ??_R2CPaintDC@@8           0046980c     nafxcw:wingdi.obj
 0002:0001181c       ??_R3CPaintDC@@8           0046981c     nafxcw:wingdi.obj
 0002:0001182c       ??_R4CPaintDC@@6B@         0046982c     nafxcw:wingdi.obj
 0002:00011840       ??_R1A@?0A@A@CBrush@@8     00469840     nafxcw:wingdi.obj
 0002:00011858       ??_R2CBrush@@8             00469858     nafxcw:wingdi.obj
 0002:00011868       ??_R3CBrush@@8             00469868     nafxcw:wingdi.obj
 0002:00011878       ??_R4CBrush@@6B@           00469878     nafxcw:wingdi.obj
 0002:0001188c       ??_R1A@?0A@A@CBitmap@@8    0046988c     nafxcw:wingdi.obj
 0002:000118a4       ??_R2CBitmap@@8            004698a4     nafxcw:wingdi.obj
 0002:000118b4       ??_R3CBitmap@@8            004698b4     nafxcw:wingdi.obj
 0002:000118c4       ??_R4CBitmap@@6B@          004698c4     nafxcw:wingdi.obj
 0002:000118d8       ??_R1A@?0A@A@CPen@@8       004698d8     nafxcw:wingdi.obj
 0002:000118f0       ??_R2CPen@@8               004698f0     nafxcw:wingdi.obj
 0002:00011900       ??_R3CPen@@8               00469900     nafxcw:wingdi.obj
 0002:00011910       ??_R4CPen@@6B@             00469910     nafxcw:wingdi.obj
 0002:00011924       ??_R1A@?0A@A@CFont@@8      00469924     nafxcw:winmenu.obj
 0002:0001193c       ??_R2CFont@@8              0046993c     nafxcw:winmenu.obj
 0002:0001194c       ??_R3CFont@@8              0046994c     nafxcw:winmenu.obj
 0002:0001195c       ??_R4CFont@@6B@            0046995c     nafxcw:winmenu.obj
 0002:00011970       ??_R1A@?0A@A@CMenu@@8      00469970     nafxcw:winmenu.obj
 0002:00011988       ??_R2CMenu@@8              00469988     nafxcw:winmenu.obj
 0002:00011994       ??_R3CMenu@@8              00469994     nafxcw:winmenu.obj
 0002:000119a4       ??_R4CMenu@@6B@            004699a4     nafxcw:winmenu.obj
 0002:000119b8       ??_R1A@?0A@A@CChevronOwnerDrawMenu@@8 004699b8     nafxcw:winmenu.obj
 0002:000119d0       ??_R2CChevronOwnerDrawMenu@@8 004699d0     nafxcw:winmenu.obj
 0002:000119e0       ??_R3CChevronOwnerDrawMenu@@8 004699e0     nafxcw:winmenu.obj
 0002:000119f0       ??_R4CChevronOwnerDrawMenu@@6B@ 004699f0     nafxcw:winmenu.obj
 0002:00011a04       ??_R1A@?0A@A@CWinApp@@8    00469a04     nafxcw:appcore.obj
 0002:00011a1c       ??_R2CWinApp@@8            00469a1c     nafxcw:appcore.obj
 0002:00011a30       ??_R3CWinApp@@8            00469a30     nafxcw:appcore.obj
 0002:00011a40       ??_R4CWinApp@@6B@          00469a40     nafxcw:appcore.obj
 0002:00011a54       ??_R1A@?0A@A@CCommandLineInfo@@8 00469a54     nafxcw:appcore.obj
 0002:00011a6c       ??_R2CCommandLineInfo@@8   00469a6c     nafxcw:appcore.obj
 0002:00011a78       ??_R3CCommandLineInfo@@8   00469a78     nafxcw:appcore.obj
 0002:00011a88       ??_R4CCommandLineInfo@@6B@ 00469a88     nafxcw:appcore.obj
 0002:00011a9c       ??_R1A@?0A@A@CPtrArray@@8  00469a9c     nafxcw:array_p.obj
 0002:00011ab4       ??_R2CPtrArray@@8          00469ab4     nafxcw:array_p.obj
 0002:00011ac0       ??_R3CPtrArray@@8          00469ac0     nafxcw:array_p.obj
 0002:00011ad0       ??_R4CPtrArray@@6B@        00469ad0     nafxcw:array_p.obj
 0002:00011ae4       ??_R1A@?0A@A@CRgn@@8       00469ae4     nafxcw:wingdix.obj
 0002:00011afc       ??_R2CRgn@@8               00469afc     nafxcw:wingdix.obj
 0002:00011b0c       ??_R3CRgn@@8               00469b0c     nafxcw:wingdix.obj
 0002:00011b1c       ??_R4CRgn@@6B@             00469b1c     nafxcw:wingdix.obj
 0002:00011b30       ??_R1A@?0A@A@CRecentFileList@@8 00469b30     nafxcw:filelist.obj
 0002:00011b48       ??_R2CRecentFileList@@8    00469b48     nafxcw:filelist.obj
 0002:00011b50       ??_R3CRecentFileList@@8    00469b50     nafxcw:filelist.obj
 0002:00011b60       ??_R4CRecentFileList@@6B@  00469b60     nafxcw:filelist.obj
 0002:00011b74       ??_R1A@?0A@A@CFile@@8      00469b74     nafxcw:filecore.obj
 0002:00011b8c       ??_R2CFile@@8              00469b8c     nafxcw:filecore.obj
 0002:00011b98       ??_R3CFile@@8              00469b98     nafxcw:filecore.obj
 0002:00011ba8       ??_R4CFile@@6B@            00469ba8     nafxcw:filecore.obj
 0002:00011bbc       ??_R1A@?0A@A@CFileException@@8 00469bbc     nafxcw:filecore.obj
 0002:00011bd4       ??_R2CFileException@@8     00469bd4     nafxcw:filecore.obj
 0002:00011be4       ??_R3CFileException@@8     00469be4     nafxcw:filecore.obj
 0002:00011bf4       ??_R4CFileException@@6B@   00469bf4     nafxcw:filecore.obj
 0002:00011c08       ??_R1A@?0A@A@CDialog@@8    00469c08     nafxcw:docmgr.obj
 0002:00011c20       ??_R1A@?0A@A@CNewTypeDlg@@8 00469c20     nafxcw:docmgr.obj
 0002:00011c38       ??_R2CNewTypeDlg@@8        00469c38     nafxcw:docmgr.obj
 0002:00011c50       ??_R3CNewTypeDlg@@8        00469c50     nafxcw:docmgr.obj
 0002:00011c60       ??_R4CNewTypeDlg@@6B@      00469c60     nafxcw:docmgr.obj
 0002:00011c74       ??_R1A@?0A@A@CDocManager@@8 00469c74     nafxcw:docmgr.obj
 0002:00011c8c       ??_R2CDocManager@@8        00469c8c     nafxcw:docmgr.obj
 0002:00011c98       ??_R3CDocManager@@8        00469c98     nafxcw:docmgr.obj
 0002:00011ca8       ??_R4CDocManager@@6B@      00469ca8     nafxcw:docmgr.obj
 0002:00011cbc       ??_R2CDialog@@8            00469cbc     nafxcw:dlgcore.obj
 0002:00011cd0       ??_R3CDialog@@8            00469cd0     nafxcw:dlgcore.obj
 0002:00011ce0       ??_R4CDialog@@6B@          00469ce0     nafxcw:dlgcore.obj
 0002:00011cf4       ??_R1A@?0A@A@CCommonDialog@@8 00469cf4     nafxcw:dlgfile.obj
 0002:00011d0c       ??_R1A@?0A@A@CFileDialog@@8 00469d0c     nafxcw:dlgfile.obj
 0002:00011d24       ??_R2CFileDialog@@8        00469d24     nafxcw:dlgfile.obj
 0002:00011d40       ??_R3CFileDialog@@8        00469d40     nafxcw:dlgfile.obj
 0002:00011d50       ??_R4CFileDialog@@6B@      00469d50     nafxcw:dlgfile.obj
 0002:00011d64       ??_R1A@?0A@A@exception@@8  00469d64     libcmt:stdexcpt.obj
 0002:00011d7c       ??_R2exception@@8          00469d7c     libcmt:stdexcpt.obj
 0002:00011d84       ??_R3exception@@8          00469d84     libcmt:stdexcpt.obj
 0002:00011d94       ??_R4exception@@6B@        00469d94     libcmt:stdexcpt.obj
 0002:00011da8       ??_R1A@?0A@A@bad_cast@@8   00469da8     libcmt:stdexcpt.obj
 0002:00011dc0       ??_R2bad_cast@@8           00469dc0     libcmt:stdexcpt.obj
 0002:00011dcc       ??_R3bad_cast@@8           00469dcc     libcmt:stdexcpt.obj
 0002:00011ddc       ??_R4bad_cast@@6B@         00469ddc     libcmt:stdexcpt.obj
 0002:00011df0       ??_R1A@?0A@A@bad_typeid@@8 00469df0     libcmt:stdexcpt.obj
 0002:00011e08       ??_R2bad_typeid@@8         00469e08     libcmt:stdexcpt.obj
 0002:00011e14       ??_R3bad_typeid@@8         00469e14     libcmt:stdexcpt.obj
 0002:00011e24       ??_R4bad_typeid@@6B@       00469e24     libcmt:stdexcpt.obj
 0002:00011e38       ??_R1A@?0A@A@__non_rtti_object@@8 00469e38     libcmt:stdexcpt.obj
 0002:00011e50       ??_R2__non_rtti_object@@8  00469e50     libcmt:stdexcpt.obj
 0002:00011e60       ??_R3__non_rtti_object@@8  00469e60     libcmt:stdexcpt.obj
 0002:00011e70       ??_R4__non_rtti_object@@6B@ 00469e70     libcmt:stdexcpt.obj
 0002:00011e84       ??_R1A@?0A@A@type_info@@8  00469e84     libcmt:typinfo.obj
 0002:00011e9c       ??_R2type_info@@8          00469e9c     libcmt:typinfo.obj
 0002:00011ea4       ??_R3type_info@@8          00469ea4     libcmt:typinfo.obj
 0002:00011eb4       ??_R4type_info@@6B@        00469eb4     libcmt:typinfo.obj
 0002:00011ec8       ??_R1A@?0A@A@logic_error@std@@8 00469ec8     libcpmt:string.obj
 0002:00011ee0       ??_R2logic_error@std@@8    00469ee0     libcpmt:string.obj
 0002:00011eec       ??_R3logic_error@std@@8    00469eec     libcpmt:string.obj
 0002:00011efc       ??_R4logic_error@std@@6B@  00469efc     libcpmt:string.obj
 0002:00011f10       ??_R1A@?0A@A@length_error@std@@8 00469f10     libcpmt:string.obj
 0002:00011f28       ??_R2length_error@std@@8   00469f28     libcpmt:string.obj
 0002:00011f38       ??_R3length_error@std@@8   00469f38     libcpmt:string.obj
 0002:00011f48       ??_R4length_error@std@@6B@ 00469f48     libcpmt:string.obj
 0002:00011f5c       ??_R1A@?0A@A@out_of_range@std@@8 00469f5c     libcpmt:string.obj
 0002:00011f74       ??_R2out_of_range@std@@8   00469f74     libcpmt:string.obj
 0002:00011f84       ??_R3out_of_range@std@@8   00469f84     libcpmt:string.obj
 0002:00011f94       ??_R4out_of_range@std@@6B@ 00469f94     libcpmt:string.obj
 0002:00011fa8       ___rtc_iaa                 00469fa8     libcmt:initsect.obj
 0002:00011fac       ___rtc_izz                 00469fac     libcmt:initsect.obj
 0002:00011fb0       ___rtc_taa                 00469fb0     libcmt:initsect.obj
 0002:00011fb4       ___rtc_tzz                 00469fb4     libcmt:initsect.obj
 0002:00012138       __CT??_R0?AVexception@@@8??0exception@@QAE@ABV0@@Z12 0046a138     DPCoreClient.obj
 0002:00012154       __CT??_R0?AVlogic_error@std@@@8??0logic_error@std@@QAE@ABV01@@Z40 0046a154     DPCoreClient.obj
 0002:00012170       __CT??_R0?AVlength_error@std@@@8??0length_error@std@@QAE@ABV01@@Z40 0046a170     DPCoreClient.obj
 0002:0001218c       __CTA3?AVlength_error@std@@ 0046a18c     DPCoreClient.obj
 0002:0001219c       __TI3?AVlength_error@std@@ 0046a19c     DPCoreClient.obj
 0002:000121f4       __CT??_R0?AVout_of_range@std@@@8??0out_of_range@std@@QAE@ABV01@@Z40 0046a1f4     DPCoreClient.obj
 0002:00012210       __CTA3?AVout_of_range@std@@ 0046a210     DPCoreClient.obj
 0002:00012220       __TI3?AVout_of_range@std@@ 0046a220     DPCoreClient.obj
 0002:000134b8       __CT??_R0PAX@84            0046b4b8     nafxcw:olemisc.obj
 0002:000134d4       __CT??_R0PAVCObject@@@84   0046b4d4     nafxcw:olemisc.obj
 0002:000134f0       __CT??_R0PAVCException@@@84 0046b4f0     nafxcw:olemisc.obj
 0002:0001350c       __CT??_R0PAVCOleException@@@84 0046b50c     nafxcw:olemisc.obj
 0002:00013528       __CTA4PAVCOleException@@   0046b528     nafxcw:olemisc.obj
 0002:0001353c       __TI4PAVCOleException@@    0046b53c     nafxcw:olemisc.obj
 0002:00013594       __CT??_R0PAVCSimpleException@@@84 0046b594     nafxcw:except.obj
 0002:000135b0       __CT??_R0PAVCMemoryException@@@84 0046b5b0     nafxcw:except.obj
 0002:000135cc       __CTA5PAVCMemoryException@@ 0046b5cc     nafxcw:except.obj
 0002:000135e4       __TI5PAVCMemoryException@@ 0046b5e4     nafxcw:except.obj
 0002:000135f4       __CT??_R0PAVCNotSupportedException@@@84 0046b5f4     nafxcw:except.obj
 0002:00013610       __CTA5PAVCNotSupportedException@@ 0046b610     nafxcw:except.obj
 0002:00013628       __TI5PAVCNotSupportedException@@ 0046b628     nafxcw:except.obj
 0002:00013638       __CT??_R0PAVCInvalidArgException@@@84 0046b638     nafxcw:except.obj
 0002:00013654       __CTA5PAVCInvalidArgException@@ 0046b654     nafxcw:except.obj
 0002:0001366c       __TI5PAVCInvalidArgException@@ 0046b66c     nafxcw:except.obj
 0002:00013d00       __CT??_R0PAVCArchiveException@@@84 0046bd00     nafxcw:arcex.obj
 0002:00013d1c       __CTA4PAVCArchiveException@@ 0046bd1c     nafxcw:arcex.obj
 0002:00013d30       __TI4PAVCArchiveException@@ 0046bd30     nafxcw:arcex.obj
 0002:00014568       __CT??_R0PAVCResourceException@@@84 0046c568     nafxcw:wingdi.obj
 0002:00014584       __CTA5PAVCResourceException@@ 0046c584     nafxcw:wingdi.obj
 0002:0001459c       __TI5PAVCResourceException@@ 0046c59c     nafxcw:wingdi.obj
 0002:000145ac       __CT??_R0PAVCUserException@@@84 0046c5ac     nafxcw:wingdi.obj
 0002:000145c8       __CTA5PAVCUserException@@  0046c5c8     nafxcw:wingdi.obj
 0002:000145e0       __TI5PAVCUserException@@   0046c5e0     nafxcw:wingdi.obj
 0002:00014dbc       __CT??_R0PAVCFileException@@@84 0046cdbc     nafxcw:filex.obj
 0002:00014dd8       __CTA4PAVCFileException@@  0046cdd8     nafxcw:filex.obj
 0002:00014dec       __TI4PAVCFileException@@   0046cdec     nafxcw:filex.obj
 0002:00015370       ___pobjMapEntryFirst       0046d370     nafxcw:objcore.obj
 0002:00015374       ___pobjMapEntryLast        0046d374     nafxcw:objcore.obj
 0002:00015378       __IMPORT_DESCRIPTOR_WS2_32 0046d378     ws2_32:WS2_32.dll
 0002:0001538c       __IMPORT_DESCRIPTOR_WINMM  0046d38c     winmm:WINMM.dll
 0002:000153a0       __IMPORT_DESCRIPTOR_KERNEL32 0046d3a0     kernel32:KERNEL32.dll
 0002:000153b4       __IMPORT_DESCRIPTOR_USER32 0046d3b4     user32:USER32.dll
 0002:000153c8       __IMPORT_DESCRIPTOR_GDI32  0046d3c8     gdi32:GDI32.dll
 0002:000153dc       __IMPORT_DESCRIPTOR_ADVAPI32 0046d3dc     advapi32:ADVAPI32.dll
 0002:000153f0       __IMPORT_DESCRIPTOR_NeuzD  0046d3f0     neuzd:NeuzD.dll
 0002:00015404       __IMPORT_DESCRIPTOR_COMCTL32 0046d404     comctl32:COMCTL32.dll
 0002:00015418       __IMPORT_DESCRIPTOR_SHLWAPI 0046d418     shlwapi:SHLWAPI.dll
 0002:0001542c       __IMPORT_DESCRIPTOR_OLEACC 0046d42c     oleacc:OLEACC.dll
 0002:00015440       __IMPORT_DESCRIPTOR_WINSPOOL 0046d440     winspool:WINSPOOL.DRV
 0002:00015454       __IMPORT_DESCRIPTOR_comdlg32 0046d454     comdlg32:comdlg32.dll
 0002:00015468       __IMPORT_DESCRIPTOR_SHELL32 0046d468     shell32:SHELL32.dll
 0002:0001547c       __IMPORT_DESCRIPTOR_ole32  0046d47c     ole32:ole32.dll
 0002:00015490       __IMPORT_DESCRIPTOR_OLEAUT32 0046d490     oleaut32:OLEAUT32.dll
 0002:000154a4       __IMPORT_DESCRIPTOR_mscoree 0046d4a4     MSCOREE:mscoree.dll
 0002:000154b8       __IMPORT_DESCRIPTOR_VERSION 0046d4b8     Version:VERSION.dll
 0002:000154cc       __NULL_IMPORT_DESCRIPTOR   0046d4cc     ws2_32:WS2_32.dll
 0003:00000000       ___xc_a                    00470000     libcmt:crt0init.obj
 0003:00000004       __pfn_check_commonlanguageruntime_version 00470004     libcmt:checkclr.obj
 0003:00000094       ___xc_z                    00470094     libcmt:crt0init.obj
 0003:00000098       ___xi_a                    00470098     libcmt:crt0init.obj
 0003:000000ac       ___xi_z                    004700ac     libcmt:crt0init.obj
 0003:000000b0       ___xp_a                    004700b0     libcmt:crt0init.obj
 0003:000000b8       ___xp_z                    004700b8     libcmt:crt0init.obj
 0003:000000bc       ___xt_a                    004700bc     libcmt:crt0init.obj
 0003:000000c4       ___xt_z                    004700c4     libcmt:crt0init.obj
 0003:000000d0       ??_R0?AVexception@@@8      004700d0     DPCoreClient.obj
 0003:000000e8       ??_R0?AVlogic_error@std@@@8 004700e8     DPCoreClient.obj
 0003:00000108       ??_R0?AVlength_error@std@@@8 00470108     DPCoreClient.obj
 0003:00000128       ??_R0?AVout_of_range@std@@@8 00470128     DPCoreClient.obj
 0003:00000150       ?uNumPad@NUMPAD@@3PAY09KA  00470150     LoginProtect.obj
 0003:00009d90       ?g_pfnGetThreadACP@ATL@@3P6GIXZA 00479d90     LoginServer.obj
 0003:00009d98       ?g_szMSG_VER@@3PADA        00479d98     StdAfx.obj
 0003:00009e98       ?_strthunks@ATL@@3U_AtlStringThunks@1@A 00479e98     StdAfx.obj
 0003:00009ec8       ?CLASS_TABLE@THAI@@3PAW4CLASS@1@A 00479ec8     scanner.obj
 0003:0000a2c8       ?COMPOSIBLE@INPUT@THAI@@3PAY04_NA 0047a2c8     scanner.obj
 0003:0000a2d8       ?STATE_CHECK@INPUT@THAI@@3PAY0BB@W4TYPE@12@A 0047a2d8     scanner.obj
 0003:0000a760       ?STATE_CHECK@OUTPUT@THAI@@3PAY0BB@W4TYPE@12@A 0047a760     scanner.obj
 0003:0000abe8       ?wVTNToneChar@VTN@@3PAY05GA 0047abe8     scanner.obj
 0003:0000ad08       ?wVTNCombiningDia@VTN@@3PAGA 0047ad08     scanner.obj
 0003:0000b118       ??_C@_0CM@HPPK@?$FLS?5lib?$FN?5InitGameguardAuth?$CI?$CJ?5?9?5Su@ 0047b118     ggsrvlib26_MT:ggsrv.obj
 0003:0000b144       ??_C@_0M@FJFL@y?$FN?4ZdaXlMls?$AA@ 0047b144     ggsrvlib26_MT:ggsrv.obj
 0003:0000b150       ??_C@_0EL@HPJL@?$FLS?5lib?$FN?5InitGameguardAuth?$CI?$CJ?5?9?5cs@ 0047b150     ggsrvlib26_MT:ggsrv.obj
 0003:0000b19c       ??_C@_0EF@NAPC@?$FLS?5lib?$FN?$FLerr?$FN?5InitGameguardAuth?$CI?$CJ@ 0047b19c     ggsrvlib26_MT:ggsrv.obj
 0003:0000b1e4       ??_C@_0DP@BJNF@?$FLS?5lib?$FN?5InitGameguardAuth?$CI?$CJ?5?9?5cs@ 0047b1e4     ggsrvlib26_MT:ggsrv.obj
 0003:0000b224       ??_C@_0DN@NACJ@?$FLS?5lib?$FN?5InitGameguardAuth?$CI?$CJ?5?9?5Su@ 0047b224     ggsrvlib26_MT:ggsrv.obj
 0003:0000b264       ??_C@_09CELL@csver?4cfg?$AA@ 0047b264     ggsrvlib26_MT:ggsrv.obj
 0003:0000b270       ??_C@_0DM@EACJ@?$FLS?5lib?$FN?5InitGameguardAuth?$CI?$CJ?5?9?5Lo@ 0047b270     ggsrvlib26_MT:ggsrv.obj
 0003:0000b2ac       ??_C@_0DC@EOP@?$FLS?5lib?$FN?5InitGameguardAuth?$CI?$CJ?5?9?5Lo@ 0047b2ac     ggsrvlib26_MT:ggsrv.obj
 0003:0000b2e0       ??_C@_0P@LGGH@?$CFsggauth?$CFd?4dll?$AA@ 0047b2e0     ggsrvlib26_MT:ggsrv.obj
 0003:0000b2f0       ??_C@_0DH@CEKO@?$FLS?5lib?$FN?5InitGameguardAuth?$CI?$CJ?5?9?5Pr@ 0047b2f0     ggsrvlib26_MT:ggsrv.obj
 0003:0000b328       ??_C@_0EE@LOHB@?$FLS?5lib?$FN?$FLerr?3?$CFd?$FN?5InitGameguardAut@ 0047b328     ggsrvlib26_MT:ggsrv.obj
 0003:0000b36c       ??_C@_0DN@HEIE@?$FLS?5lib?$FN?5InitGameguardAuth?$CI?$CJ?5?9?5Be@ 0047b36c     ggsrvlib26_MT:ggsrv.obj
 0003:0000b3ac       ??_C@_02MECO@?$CFd?$AA@    0047b3ac     ggsrvlib26_MT:ggsrv.obj
 0003:0000b3b0       ??_C@_0DP@NICJ@?$FLS?5lib?$FN?5InitGameguardAuth?$CI?$CJ?5?9?5Su@ 0047b3b0     ggsrvlib26_MT:ggsrv.obj
 0003:0000b3f0       ??_C@_0EG@CFDJ@?$FLS?5lib?$FN?$FLerr?3?$CFd?$FN?5InitGameguardAut@ 0047b3f0     ggsrvlib26_MT:ggsrv.obj
 0003:0000b438       ??_C@_01LHO@r?$AA@         0047b438     ggsrvlib26_MT:ggsrv.obj
 0003:0000b43c       ??_C@_04DCMN@?$CFs?$CFs?$AA@ 0047b43c     ggsrvlib26_MT:ggsrv.obj
 0003:0000b444       ??_C@_0M@IDLD@csauth2?4cfg?$AA@ 0047b444     ggsrvlib26_MT:ggsrv.obj
 0003:0000b450       ??_C@_04JLLN@?$CFs?$CFc?$AA@ 0047b450     ggsrvlib26_MT:ggsrv.obj
 0003:0000b458       ??_C@_0BP@MLM@?$FLS?5lib?$FN?5CleanupGameguardAuth?$CI?$CJ?$AA@ 0047b458     ggsrvlib26_MT:ggsrv.obj
 0003:0000b478       ??_C@_0GD@DDMF@?$FLS?5lib?$FN?5CleanupGameguardAuth?$CI?$CJ?5?9@ 0047b478     ggsrvlib26_MT:ggsrv.obj
 0003:0000b4dc       ??_C@_0DG@DOHJ@?$FLS?5lib?$FN?5GGAuthUpdateTimero?$CI?$CJ?5?9?5?$FL@ 0047b4dc     ggsrvlib26_MT:ggsrv.obj
 0003:0000b514       ??_C@_0CJ@JOJB@?$FLS?5lib?$FN?5AddAuthProtocol?$CI?$CJ?5?9?5Succ@ 0047b514     ggsrvlib26_MT:ggsrv.obj
 0003:0000b540       ??_C@_0DA@KGMA@?$FLS?5lib?$FN?$FLerr?3?$CFd?$FN?5AddAuthProtocol?$CI@ 0047b540     ggsrvlib26_MT:ggsrv.obj
 0003:0000b570       ??_C@_0DF@PECO@?$FLS?5lib?$FN?$FLerr?3?$CFd?$FN?5SetGGVerLimit?$CI?$CJ?5@ 0047b570     ggsrvlib26_MT:ggsrv.obj
 0003:0000b5a8       ??_C@_0DG@HEIB@?$FLS?5lib?$FN?$FLerr?3?$CFd?$FN?5SetGGVerLimit?$CI?$CJ?5@ 0047b5a8     ggsrvlib26_MT:ggsrv.obj
 0003:0000b5e0       ??_C@_01LLF@w?$AA@         0047b5e0     ggsrvlib26_MT:ggsrv.obj
 0003:0000b5e4       ??_C@_0DL@FDJO@?$FLS?5lib?$FN?$FLerr?3?$CFd?$FN?5SetGGVerLimit?$CI?$CJ?5@ 0047b5e4     ggsrvlib26_MT:ggsrv.obj
 0003:0000b620       ??_C@_0FK@DOHI@?$FLS?5lib?$FN?$FLerr?3?$CFd?$FN?5LoadAuthProtocol@ 0047b620     ggsrvlib26_MT:ggsrv.obj
 0003:0000b67c       ??_C@_0CJ@BFNK@?$FLS?5lib?$FN?5?9?9?9?9?9?9?9?9?9?9?9?9?9?9?9?9?9?9?9?9?9?9?9?9@ 0047b67c     ggsrvlib26_MT:ggsrv.obj
 0003:0000b6a8       ??_C@_0CK@HLPH@?$FLS?5lib?$FN?5?$CD?$CD?5TOTAL?5LOADED?5PROTOCOL@ 0047b6a8     ggsrvlib26_MT:ggsrv.obj
 0003:0000b6d4       ??_C@_0M@HPGN@?$FLS?5lib?$FN?5?$DN?$DN?$DO?$AA@ 0047b6d4     ggsrvlib26_MT:ggsrv.obj
 0003:0000b6e0       ??_C@_0DE@INCG@?$FLS?5lib?$FN?5?$CD?$CD?5?$FLver?5?$CFd?$FN?$FLptr?50x?$CFp?$FN?5?3?5@ 0047b6e0     ggsrvlib26_MT:ggsrv.obj
 0003:0000b714       ??_C@_0CG@NJIH@?$FLS?5lib?$FN?5?$CD?$CD?5LoadAuthProtocol?5PATH@ 0047b714     ggsrvlib26_MT:ggsrv.obj
 0003:0000b73c       ??_C@_0CJ@BGBN@?$FLS?5lib?$FN?5?9?9?9?9?9?9?9?9?9PROTOCOL?5STATE?9@ 0047b73c     ggsrvlib26_MT:ggsrv.obj
 0003:0000b768       ??_C@_0FA@CDIH@?$FLS?5lib?$FN?5LoadAuthProtocol?$CI?$CJ?5?9?5Add@ 0047b768     ggsrvlib26_MT:ggsrv.obj
 0003:0000b7b8       ??_C@_0DJ@OPDK@?$FLS?5lib?$FN?5LoadAuthProtocol?$CI?$CJ?5?9?5ggG@ 0047b7b8     ggsrvlib26_MT:ggsrv.obj
 0003:0000b7f4       ??_C@_0BF@PCCM@PrtcCheckValidAnswer?$AA@ 0047b7f4     ggsrvlib26_MT:ggsrv.obj
 0003:0000b80c       ??_C@_0BD@GPHK@PrtcGetInformation?$AA@ 0047b80c     ggsrvlib26_MT:ggsrv.obj
 0003:0000b820       ??_C@_0N@CKBH@PrtcLoopAuth?$AA@ 0047b820     ggsrvlib26_MT:ggsrv.obj
 0003:0000b830       ??_C@_0BA@JCOH@PrtcUpdateTimer?$AA@ 0047b830     ggsrvlib26_MT:ggsrv.obj
 0003:0000b840       ??_C@_0BC@EIDI@PrtcDecryptAnswer?$AA@ 0047b840     ggsrvlib26_MT:ggsrv.obj
 0003:0000b854       ??_C@_0BB@IEOL@PrtcEncryptQuery?$AA@ 0047b854     ggsrvlib26_MT:ggsrv.obj
 0003:0000b868       ??_C@_0BE@OPPN@PrtcCheckAuthAnswer?$AA@ 0047b868     ggsrvlib26_MT:ggsrv.obj
 0003:0000b87c       ??_C@_0BB@DGPP@PrtcGetAuthQuery?$AA@ 0047b87c     ggsrvlib26_MT:ggsrv.obj
 0003:0000b890       ??_C@_0P@JOCL@PrtcGetVersion?$AA@ 0047b890     ggsrvlib26_MT:ggsrv.obj
 0003:0000b8a0       ??_C@_0DN@FJDG@?$FLS?5lib?$FN?$FLerr?3?$CFd?$FN?5LoadAuthProtocol@ 0047b8a0     ggsrvlib26_MT:ggsrv.obj
 0003:0000b8e0       ??_C@_02DILL@?$CFs?$AA@    0047b8e0     ggsrvlib26_MT:ggsrv.obj
 0003:0000b8e4       ??_C@_0CB@DBEB@?$FLS?5lib?$FN?5UnloadAuthProtocol?$CI0x?$CFp?$CJ@ 0047b8e4     ggsrvlib26_MT:ggsrv.obj
 0003:0000b908       ??_C@_0CO@FBPJ@?$FLS?5lib?$FN?5UpdateGGVersion?$CI?$CJ?5?9?5Inva@ 0047b908     ggsrvlib26_MT:ggsrv.obj
 0003:0000b938       ??_C@_0CL@HKJO@?$FLS?5lib?$FN?5UpdateGGVersion?$CI?$CJ?5error?5@ 0047b938     ggsrvlib26_MT:ggsrv.obj
 0003:0000b964       ??_C@_0CA@CDJC@?$FLS?5lib?$FN?5?$FL?$CFd?$FN?3?$FL?$CFd?$FN?$FL?$CFd?$FN?$FL?$CFd?$FN?$FL?$CFd?$FN?0?5?$AA@ 0047b964     ggsrvlib26_MT:ggsrv.obj
 0003:0000b984       ??_C@_0GB@IFLG@?$FLS?5lib?$FN?5UpdateGGVersion?$CI?$CJ?5?3?5inse@ 0047b984     ggsrvlib26_MT:ggsrv.obj
 0003:0000b9e8       ??_C@_0DI@JFGH@?$FLS?5lib?$FN?5?5?5?5?5?5?5?5?5?5?5?5?5?5?5?5?5?5?5?5?5?5?9?$DO?5@ 0047b9e8     ggsrvlib26_MT:ggsrv.obj
 0003:0000ba20       ??_C@_0IE@HACI@?$FLS?5lib?$FN?5UpdateGGVersion?$CI?$CJ?5?9?5add?5@ 0047ba20     ggsrvlib26_MT:ggsrv.obj
 0003:0000baa4       ??_C@_0HF@ILGN@?$FLS?5lib?$FN?5UpdateGGVersion?$CI?$CJ?5?9?5add?5@ 0047baa4     ggsrvlib26_MT:ggsrv.obj
 0003:0000bb1c       ??_C@_0FP@JGDN@?$FLS?5lib?$FN?5UpdateGGVersion?$CI?$CJ?5?9?5GGVe@ 0047bb1c     ggsrvlib26_MT:ggsrv.obj
 0003:0000bb7c       ??_C@_0GK@HPJL@?$FLS?5lib?$FN?5UpdateGGVersion?$CI?$CJ?5?9?5New?5@ 0047bb7c     ggsrvlib26_MT:ggsrv.obj
 0003:0000bbe8       ??_C@_0EI@NMHP@?$FLS?5lib?$FN?5UpdateGGVersion?$CI?$CJ?5?9?5New?5@ 0047bbe8     ggsrvlib26_MT:ggsrv.obj
 0003:0000bc30       ??_C@_0DJ@NFHJ@?$FLS?5lib?$FN?5UpdateGGVersion?$CI?$CJ?5?9?9?9?9?9?9@ 0047bc30     ggsrvlib26_MT:ggsrv.obj
 0003:0000bc6c       ??_C@_0BJ@EEKI@?$FLS?5lib?$FN?5CURRENT?5VER?5?3?5?$CFd?$AA@ 0047bc6c     ggsrvlib26_MT:ggsrv.obj
 0003:0000bc88       ??_C@_0CG@PAFK@?$FLS?5lib?$FN?5?$FL?$CFd?$FN?3?$FL?$CFd?$FN?$FL?$CFd?$FN?$FL?$CFd?$FN?$FL?$CFd?$FN?3?5?$CF@ 0047bc88     ggsrvlib26_MT:ggsrv.obj
 0003:0000bcb0       ??_C@_0DJ@DPBL@?$FLS?5lib?$FN?5UpdateGGVersion?$CI?$CJ?5?9?9?9?9?9G@ 0047bcb0     ggsrvlib26_MT:ggsrv.obj
 0003:0000bcec       ??_C@_0GC@GNPL@?$FLS?5lib?$FN?5UpdateGGVersion?$CI?$CJ?5?9?5New?5@ 0047bcec     ggsrvlib26_MT:ggsrv.obj
 0003:0000bd50       ??_C@_0EB@KBMJ@?$FLS?5lib?$FN?5UpdateGGVersion?$CI?$CJ?5?9?5New?5@ 0047bd50     ggsrvlib26_MT:ggsrv.obj
 0003:0000bd94       ??_C@_0DD@ILKG@?$FLS?5lib?$FN?5UpdateGGVersion?$CI?$CJ?5?9?5Limi@ 0047bd94     ggsrvlib26_MT:ggsrv.obj
 0003:0000bdc8       ??_C@_0CN@BJJO@?$FLS?5lib?$FN?5UpdateGGVersion?$CI?$CJ?5?9?5Inva@ 0047bdc8     ggsrvlib26_MT:ggsrv.obj
 0003:0000bdf8       ??_C@_0DK@PILN@?$FLS?5lib?$FN?5UpdateProtocol?$CI?$CJ?5?9?5Inval@ 0047bdf8     ggsrvlib26_MT:ggsrv.obj
 0003:0000be34       ??_C@_0CK@LICM@?$FLS?5lib?$FN?5UpdateProtocol?$CI?$CJ?5error?5?$CD@ 0047be34     ggsrvlib26_MT:ggsrv.obj
 0003:0000be60       ??_C@_0DO@DELG@?$FLS?5lib?$FN?5UpdateProtocol?$CI?$CJ?5?9?9?9?9?9?9?9@ 0047be60     ggsrvlib26_MT:ggsrv.obj
 0003:0000bea0       ??_C@_0BJ@BDDM@?$FLS?5lib?$FN?5CURRENT?5VER?5?3?5?$CFx?$AA@ 0047bea0     ggsrvlib26_MT:ggsrv.obj
 0003:0000bebc       ??_C@_0CA@LGKH@?$FLS?5lib?$FN?5?$FL?$CFd?$FN?3?$FL?$CFx?$FN?$FL?$CFd?$FN?$FL?$CFd?$FN?$FL?$CFd?$FN?0?5?$AA@ 0047bebc     ggsrvlib26_MT:ggsrv.obj
 0003:0000bedc       ??_C@_0DO@POOP@?$FLS?5lib?$FN?5UpdateProtocol?$CI?$CJ?5?9?9?9?9?9Pr@ 0047bedc     ggsrvlib26_MT:ggsrv.obj
 0003:0000bf1c       ??_C@_0GO@NENP@?$FLS?5lib?$FN?5UpdateProtocol?$CI?$CJ?5?3?5inser@ 0047bf1c     ggsrvlib26_MT:ggsrv.obj
 0003:0000bf8c       ??_C@_0DI@FC@?$FLS?5lib?$FN?5?5?5?5?5?5?5?5?5?5?5?5?5?5?5?5?5?5?5?5?5?5?9?$DO?5@ 0047bf8c     ggsrvlib26_MT:ggsrv.obj
 0003:0000bfc4       ??_C@_0JA@FHFH@?$FLS?5lib?$FN?5UpdateProtocol?$CI?$CJ?5?3?5add?5a@ 0047bfc4     ggsrvlib26_MT:ggsrv.obj
 0003:0000c054       ??_C@_0IA@BANI@?$FLS?5lib?$FN?5UpdateProtocol?$CI?$CJ?5?3?5add?5a@ 0047c054     ggsrvlib26_MT:ggsrv.obj
 0003:0000c0d4       ??_C@_0GA@NFDL@?$FLS?5lib?$FN?5UpdateProtocol?$CI?$CJ?5?3?5PrtcV@ 0047c0d4     ggsrvlib26_MT:ggsrv.obj
 0003:0000c134       ??_C@_0HE@MBLL@?$FLS?5lib?$FN?5UpdateProtocol?$CI?$CJ?5?3?5New?5P@ 0047c134     ggsrvlib26_MT:ggsrv.obj
 0003:0000c1a8       ??_C@_0EI@HAEH@?$FLS?5lib?$FN?5UpdateProtocol?$CI?$CJ?5?3?5NEW?5P@ 0047c1a8     ggsrvlib26_MT:ggsrv.obj
 0003:0000c1f0       ??_C@_0CP@JFFL@?$FLS?5lib?$FN?5UpdateProtocol?$CI?$CJ?5error?5?$CD@ 0047c1f0     ggsrvlib26_MT:ggsrv.obj
 0003:0000c220       ??_C@_0DI@OLCH@?$FLS?5lib?$FN?5UpdateProtocol?$CI?$CJ?5?9?9?9?9?9?9?9@ 0047c220     ggsrvlib26_MT:ggsrv.obj
 0003:0000c258       ??_C@_0BK@ELMP@?$FLS?5lib?$FN?5CURRENT?5PRTC?5?3?5?$CFx?$AA@ 0047c258     ggsrvlib26_MT:ggsrv.obj
 0003:0000c274       ??_C@_0CG@OHJN@?$FLS?5lib?$FN?5?$FL?$CFd?$FN?3?$FL?$CFx?$FN?$FL?$CFd?$FN?$FL?$CFd?$FN?$FL?$CFd?$FN?3?5?$CF@ 0047c274     ggsrvlib26_MT:ggsrv.obj
 0003:0000c29c       ??_C@_0DI@BEF@?$FLS?5lib?$FN?5UpdateProtocol?$CI?$CJ?5?9?9?9?9?9GG@ 0047c29c     ggsrvlib26_MT:ggsrv.obj
 0003:0000c2d4       ??_C@_0GG@POBB@?$FLS?5lib?$FN?5UpdateProtocol?$CI?$CJ?5?3?5New?5P@ 0047c2d4     ggsrvlib26_MT:ggsrv.obj
 0003:0000c33c       ??_C@_0EG@JJAF@?$FLS?5lib?$FN?5UpdateProtocol?$CI?$CJ?5?3?5New?5P@ 0047c33c     ggsrvlib26_MT:ggsrv.obj
 0003:0000c384       ??_C@_0DL@OMAG@?$FLS?5lib?$FN?5UpdateProtocol?$CI?$CJ?5?9?5Inval@ 0047c384     ggsrvlib26_MT:ggsrv.obj
 0003:0000c3c0       ??_C@_0FK@LLDM@?$FLS?5lib?$FN?5Close?$CI?$CJ?5?9?5dwReferCount?5d@ 0047c3c0     ggsrvlib26_MT:ggsrv.obj
 0003:0000c41c       ??_C@_0CG@KGKA@?$FLS?5lib?$FN?5Close?$CI?$CJ?5called?5without?5I@ 0047c41c     ggsrvlib26_MT:ggsrv.obj
 0003:0000c444       ??_C@_0DD@DIFF@?$FLS?5lib?$FN?$FLerr?3?$CFd?$FN?5PrtcGetAuthQuery@ 0047c444     ggsrvlib26_MT:ggsrv.obj
 0003:0000c478       ??_C@_0EI@CEOC@?$FLS?5lib?$FN?$FLerr?3?$CFd?$FN?5PrtcGetAuthQuery@ 0047c478     ggsrvlib26_MT:ggsrv.obj
 0003:0000c4c0       ??_C@_0DI@KAJO@?$FLS?5lib?$FN?$FLerr?3?$CFd?$FN?5PrtcGetAuthQuery@ 0047c4c0     ggsrvlib26_MT:ggsrv.obj
 0003:0000c4f8       ??_C@_0DI@JNPA@?$FLS?5lib?$FN?$FLerr?3?$CFd?$FN?5GetAuthQuery?$CI?$CJ?5?9@ 0047c4f8     ggsrvlib26_MT:ggsrv.obj
 0003:0000c530       ??_C@_0DE@GLOE@?$FLS?5lib?$FN?$FLerr?3?$CFd?$FN?5GetAuthQuery?$CI?$CJ?5c@ 0047c530     ggsrvlib26_MT:ggsrv.obj
 0003:0000c564       ??_C@_0DF@MFFD@?$FLS?5lib?$FN?5CheckAuthAnswer?$CI?$CJ?5?3?5New?5@ 0047c564     ggsrvlib26_MT:ggsrv.obj
 0003:0000c59c       ??_C@_0DJ@POAJ@?$FLS?5lib?$FN?5?$CFd?9?$DO?$CFd?0?5?$CFd?9?$DO?$CFd?0?5uv?5?3?5?$CFx?0@ 0047c59c     ggsrvlib26_MT:ggsrv.obj
 0003:0000c5d8       ??_C@_0DK@NNL@?$FLS?5lib?$FN?$FLerr?3?$CFd?$FN?5Client?5threads?5a@ 0047c5d8     ggsrvlib26_MT:ggsrv.obj
 0003:0000c614       ??_C@_0CK@FEDI@?$FLS?5lib?$FN?$FLerr?3?$CFd?$FN?5Client?5threads?5a@ 0047c614     ggsrvlib26_MT:ggsrv.obj
 0003:0000c640       ??_C@_0CG@NGIL@?$FLS?5lib?$FN?$FLerr?3?$CFd?$FN?5Same?5client?5dete@ 0047c640     ggsrvlib26_MT:ggsrv.obj
 0003:0000c668       ??_C@_0CM@HOKF@?$FLS?5lib?$FN?$FLerr?3?$CFd?$FN?5Client?5threads?5w@ 0047c668     ggsrvlib26_MT:ggsrv.obj
 0003:0000c694       ??_C@_0DC@HAEJ@?$FLS?5lib?$FN?$FLerr?3?$CFd?$FN?5PrtcCheckAuthAns@ 0047c694     ggsrvlib26_MT:ggsrv.obj
 0003:0000c6c8       ??_C@_0EG@NFCL@?$FLS?5lib?$FN?$FLerr?3?$CFd?$FN?5CheckAuthAnswer?$CI@ 0047c6c8     ggsrvlib26_MT:ggsrv.obj
 0003:0000c710       ??_C@_0EG@LMPI@?$FLS?5lib?$FN?$FLerr?3?$CFd?$FN?5CheckAuthAnswer?$CI@ 0047c710     ggsrvlib26_MT:ggsrv.obj
 0003:0000c758       ??_C@_0DH@KDJP@?$FLS?5lib?$FN?$FLerr?3?$CFd?$FN?5CheckAuthAnswer?$CI@ 0047c758     ggsrvlib26_MT:ggsrv.obj
 0003:0000c790       ??_C@_0EF@HGGC@?$FLS?5lib?$FN?$FLerr?3?$CFd?$FN?5CheckAuthAnswer?$CI@ 0047c790     ggsrvlib26_MT:ggsrv.obj
 0003:0000c7d8       ??_C@_0DN@BNCL@?$FLS?5lib?$FN?$FLerr?3?$CFd?$FN?5CheckAuthAnswer?$CI@ 0047c7d8     ggsrvlib26_MT:ggsrv.obj
 0003:0000c818       ??_C@_0EO@HFIJ@?$FLS?5lib?$FN?$FLerr?3?$CFd?$FN?5CheckAuthAnswer?$CI@ 0047c818     ggsrvlib26_MT:ggsrv.obj
 0003:0000c868       ??_C@_0FD@MLCM@?$FLS?5lib?$FN?$FLerr?3?$CFd?$FN?5CheckAuthAnswer?$CI@ 0047c868     ggsrvlib26_MT:ggsrv.obj
 0003:0000c8bc       ??_C@_0EH@JCMP@?$FLS?5lib?$FN?5CheckAuthAnswer?$CI?$CJ?5?3?5PROT@ 0047c8bc     ggsrvlib26_MT:ggsrv.obj
 0003:0000c904       ??_C@_0EO@LKHB@?$FLS?5lib?$FN?5CheckAuthAnswer?$CI?$CJ?5?3?5PROT@ 0047c904     ggsrvlib26_MT:ggsrv.obj
 0003:0000c954       ??_C@_0DG@IOHN@?$FLS?5lib?$FN?5CheckAuthAnswer?$CI?$CJ?5?$CF08x?5?$CF@ 0047c954     ggsrvlib26_MT:ggsrv.obj
 0003:0000c98c       ??_C@_0DH@MFLH@?$FLS?5lib?$FN?$FLerr?3?$CFd?$FN?5PrtcCheckAuthAns@ 0047c98c     ggsrvlib26_MT:ggsrv.obj
 0003:0000c9c4       ??_C@_0EH@GEFA@?$FLS?5lib?$FN?$FLerr?3?$CFd?$FN?5PrtcCheckAuthAns@ 0047c9c4     ggsrvlib26_MT:ggsrv.obj
 0003:0000ca0c       ??_C@_0DL@HIFL@?$FLS?5lib?$FN?$FLerr?3?$CFd?$FN?5CheckAuthAnswer?$CI@ 0047ca0c     ggsrvlib26_MT:ggsrv.obj
 0003:0000ca48       ??_C@_0DH@IKNJ@?$FLS?5lib?$FN?$FLerr?3?$CFd?$FN?5CheckAuthAnswer?$CI@ 0047ca48     ggsrvlib26_MT:ggsrv.obj
 0003:0000ca80       ??_C@_0DD@BOK@?$FLS?5lib?$FN?5SetCSAuthState?$CI?$CJ?5?3?5?8m_Pr@ 0047ca80     ggsrvlib26_MT:ggsrv.obj
 0003:0000cab4       ??_C@_0DG@FBGI@?$FLS?5lib?$FN?5SetCSAuthState?$CI?$CJ?5?3?5?8m_CS@ 0047cab4     ggsrvlib26_MT:ggsrv.obj
 0003:0000caec       ??_C@_0DP@LHGA@PRTC?$FL0x?$CFd?$FNC?$FL0x?$CFp?$FNG?$FL0x?$CFp?$FNE?$FL0x?$CFp?$FND@ 0047caec     ggsrvlib26_MT:ggsrv.obj
 0003:0000cb2c       ??_C@_06BIPE@DISUSE?$AA@   0047cb2c     ggsrvlib26_MT:ggsrv.obj
 0003:0000cb34       ??_C@_07OLBA@STANDBY?$AA@  0047cb34     ggsrvlib26_MT:ggsrv.obj
 0003:0000cb3c       ??_C@_06NFIP@ACTIVE?$AA@   0047cb3c     ggsrvlib26_MT:ggsrv.obj
 0003:0000cb44       ??_C@_0DN@EAKI@PRTC?$FL?$CFd?$FNC?$FL0x?$CFp?$FNG?$FL0x?$CFp?$FNE?$FL0x?$CFp?$FND?$FL0@ 0047cb44     ggsrvlib26_MT:ggsrv.obj
 0003:0000cb84       ?_afxNewHandler@@3P6AHI@ZA 0047cb84     nafxcw:afxmem.obj
 0003:0000cb88       ??_R0?AVCObject@@@8        0047cb88     nafxcw:olemisc.obj
 0003:0000cba0       ??_R0?AVCException@@@8     0047cba0     nafxcw:olemisc.obj
 0003:0000cbbc       ??_R0?AVCOleException@@@8  0047cbbc     nafxcw:olemisc.obj
 0003:0000cbd8       ??_R0PAX@8                 0047cbd8     nafxcw:olemisc.obj
 0003:0000cbe8       ??_R0PAVCObject@@@8        0047cbe8     nafxcw:olemisc.obj
 0003:0000cc00       ??_R0PAVCException@@@8     0047cc00     nafxcw:olemisc.obj
 0003:0000cc1c       ??_R0PAVCOleException@@@8  0047cc1c     nafxcw:olemisc.obj
 0003:0000cc38       ??_R0PAVCSimpleException@@@8 0047cc38     nafxcw:except.obj
 0003:0000cc58       ??_R0PAVCMemoryException@@@8 0047cc58     nafxcw:except.obj
 0003:0000cc78       ??_R0PAVCNotSupportedException@@@8 0047cc78     nafxcw:except.obj
 0003:0000cca0       ??_R0PAVCInvalidArgException@@@8 0047cca0     nafxcw:except.obj
 0003:0000ccc4       ??_R0?AVCSimpleException@@@8 0047ccc4     nafxcw:except.obj
 0003:0000cce4       ??_R0?AVCMemoryException@@@8 0047cce4     nafxcw:except.obj
 0003:0000cd04       ??_R0?AVCNotSupportedException@@@8 0047cd04     nafxcw:except.obj
 0003:0000cd2c       ??_R0?AVCInvalidArgException@@@8 0047cd2c     nafxcw:except.obj
 0003:0000cd50       ??_R0?AUIAtlStringMgr@ATL@@@8 0047cd50     nafxcw:strcore.obj
 0003:0000cd70       ??_R0?AVCAfxStringMgr@@@8  0047cd70     nafxcw:strcore.obj
 0003:0000cd8c       ??_R0?AUIUnknown@@@8       0047cd8c     nafxcw:oleunk.obj
 0003:0000cda4       ??_R0?AVCInnerUnknown@@@8  0047cda4     nafxcw:oleunk.obj
 0003:0000cdc0       ??_R0?AVCNoTrackObject@@@8 0047cdc0     nafxcw:afxstate.obj
 0003:0000cde0       ??_R0?AV_AFX_THREAD_STATE@@@8 0047cde0     nafxcw:afxstate.obj
 0003:0000ce00       ??_R0?AVAFX_MODULE_STATE@@@8 0047ce00     nafxcw:afxstate.obj
 0003:0000ce20       ??_R0?AVAFX_MODULE_THREAD_STATE@@@8 0047ce20     nafxcw:afxstate.obj
 0003:0000ce48       ??_R0?AV_AFX_BASE_MODULE_STATE@@@8 0047ce48     nafxcw:afxstate.obj
 0003:0000ce70       ??_R0?AUCThreadData@@@8    0047ce70     nafxcw:afxtls.obj
 0003:0000ce8c       ??_R0PAVCArchiveException@@@8 0047ce8c     nafxcw:arccore.obj
 0003:0000ceac       ??_R0?AVCArchiveException@@@8 0047ceac     nafxcw:arcex.obj
 0003:0000cecc       ??_R0?AVCMapPtrToPtr@@@8   0047cecc     nafxcw:map_pp.obj
 0003:0000cee8       ??_R0?AVCPtrList@@@8       0047cee8     nafxcw:list_p.obj
 0003:0000cf00       ??_R0?AVCCmdTarget@@@8     0047cf00     nafxcw:thrdcore.obj
 0003:0000cf1c       ??_R0?AVCWinThread@@@8     0047cf1c     nafxcw:thrdcore.obj
 0003:0000cf38       ?classCByteArray@CByteArray@@2UCRuntimeClass@@A 0047cf38     nafxcw:array_b.obj
 0003:0000cf54       ??_R0?AVCByteArray@@@8     0047cf54     nafxcw:array_b.obj
 0003:0000cf70       ??_R0?AUISequentialStream@@@8 0047cf70     nafxcw:arcstrm.obj
 0003:0000cf90       ??_R0?AUIStream@@@8        0047cf90     nafxcw:arcstrm.obj
 0003:0000cfa8       ??_R0?AVCArchiveStream@@@8 0047cfa8     nafxcw:arcstrm.obj
 0003:0000cfc8       ?_dispatchEntryCount@CCmdTarget@@0IA 0047cfc8     nafxcw:cmdtarg.obj
 0003:0000cfcc       ?_dwStockPropMask@CCmdTarget@@0KA 0047cfcc     nafxcw:cmdtarg.obj
 0003:0000cfd0       ?_eventsinkEntryCount@CCmdTarget@@0IA 0047cfd0     nafxcw:cmdtarg.obj
 0003:0000cfd4       ??_R0?AVCCmdUI@@@8         0047cfd4     nafxcw:cmdtarg.obj
 0003:0000cfec       ??_R0?AVCHandleMap@@@8     0047cfec     nafxcw:winhand.obj
 0003:0000d0a4       ??_R0?AVXAccessible@CWnd@@@8 0047d0a4     nafxcw:wincore.obj
 0003:0000d0c4       ??_R0?AVXAccessibleServer@CWnd@@@8 0047d0c4     nafxcw:wincore.obj
 0003:0000d0ec       ??_R0?AVCWnd@@@8           0047d0ec     nafxcw:wincore.obj
 0003:0000d100       ??_R0?AV_AFX_HTMLHELP_STATE@@@8 0047d100     nafxcw:wincore.obj
 0003:0000d124       ??_R0?AVCTestCmdUI@@@8     0047d124     nafxcw:wincore.obj
 0003:0000d140       ??_R0PAVCUserException@@@8 0047d140     nafxcw:wincore.obj
 0003:0000d160       ??_R0?AUIAccessibleProxy@@@8 0047d160     nafxcw:wincore.obj
 0003:0000d180       ??_R0?AUIDispatch@@@8      0047d180     nafxcw:wincore.obj
 0003:0000d198       ??_R0?AUIAccessible@@@8    0047d198     nafxcw:wincore.obj
 0003:0000d1b8       ??_R0?AV?$IAccessibleProxyImpl@VCAccessibleProxy@ATL@@@ATL@@@8 0047d1b8     nafxcw:wincore.obj
 0003:0000d1fc       ??_R0?AUIOleWindow@@@8     0047d1fc     nafxcw:wincore.obj
 0003:0000d218       ??_R0?AVCComObjectRootBase@ATL@@@8 0047d218     nafxcw:wincore.obj
 0003:0000d240       ??_R0?AV?$CComObjectRootEx@VCComSingleThreadModel@ATL@@@ATL@@@8 0047d240     nafxcw:wincore.obj
 0003:0000d284       ??_R0?AVCAccessibleProxy@ATL@@@8 0047d284     nafxcw:wincore.obj
 0003:0000d2a8       ??_R0?AV?$CMFCComObject@VCAccessibleProxy@ATL@@@@@8 0047d2a8     nafxcw:wincore.obj
 0003:0000d2e0       ??_R0PAVCResourceException@@@8 0047d2e0     nafxcw:wingdi.obj
 0003:0000d304       ??_R0?AVCResourceException@@@8 0047d304     nafxcw:wingdi.obj
 0003:0000d328       ??_R0?AVCUserException@@@8 0047d328     nafxcw:wingdi.obj
 0003:0000d348       ??_R0?AVCGdiObject@@@8     0047d348     nafxcw:wingdi.obj
 0003:0000d364       ??_R0?AVCDC@@@8            0047d364     nafxcw:wingdi.obj
 0003:0000d378       ??_R0?AVCClientDC@@@8      0047d378     nafxcw:wingdi.obj
 0003:0000d390       ??_R0?AVCWindowDC@@@8      0047d390     nafxcw:wingdi.obj
 0003:0000d3a8       ??_R0?AVCPaintDC@@@8       0047d3a8     nafxcw:wingdi.obj
 0003:0000d3c0       ??_R0?AVCBrush@@@8         0047d3c0     nafxcw:wingdi.obj
 0003:0000d3d8       ??_R0?AVCBitmap@@@8        0047d3d8     nafxcw:wingdi.obj
 0003:0000d3f0       ??_R0?AVCPen@@@8           0047d3f0     nafxcw:wingdi.obj
 0003:0000d404       ??_R0?AVCFont@@@8          0047d404     nafxcw:winmenu.obj
 0003:0000d418       ??_R0?AVCMenu@@@8          0047d418     nafxcw:winmenu.obj
 0003:0000d42c       ??_R0?AVCChevronOwnerDrawMenu@@@8 0047d42c     nafxcw:winmenu.obj
 0003:0000d450       ?bStaticInit@CDocManager@@2HA 0047d450     nafxcw:appcore.obj
 0003:0000d4dc       ??_R0?AVCWinApp@@@8        0047d4dc     nafxcw:appcore.obj
 0003:0000d4f4       ??_R0?AVCCommandLineInfo@@@8 0047d4f4     nafxcw:appcore.obj
 0003:0000d514       ??_R0?AVCPtrArray@@@8      0047d514     nafxcw:array_p.obj
 0003:0000d52c       ??_R0?AVCRgn@@@8           0047d52c     nafxcw:wingdix.obj
 0003:0000d540       ??_R0?AVCRecentFileList@@@8 0047d540     nafxcw:filelist.obj
 0003:0000d560       ??_R0?AVCFile@@@8          0047d560     nafxcw:filecore.obj
 0003:0000d574       ??_R0?AVCFileException@@@8 0047d574     nafxcw:filecore.obj
 0003:0000d594       ??_R0PAVCFileException@@@8 0047d594     nafxcw:filex.obj
 0003:0000d5b4       ??_R0?AVCDialog@@@8        0047d5b4     nafxcw:docmgr.obj
 0003:0000d5cc       ??_R0?AVCNewTypeDlg@@@8    0047d5cc     nafxcw:docmgr.obj
 0003:0000d5e8       ??_R0?AVCDocManager@@@8    0047d5e8     nafxcw:docmgr.obj
 0003:0000d604       ??_R0?AVCCommonDialog@@@8  0047d604     nafxcw:dlgfile.obj
 0003:0000d620       ??_R0?AVCFileDialog@@@8    0047d620     nafxcw:dlgfile.obj
 0003:0000d63c       ___security_cookie         0047d63c     libcmt:seccook.obj
 0003:0000d640       __NLG_Destination          0047d640     libcmt:exsup.obj
 0003:0000d650       ?__pMyUnhandledExceptionFilter@@3PAXA 0047d650     libcmt:throw.obj
 0003:0000d654       ??_R0?AVbad_cast@@@8       0047d654     libcmt:stdexcpt.obj
 0003:0000d66c       ??_R0?AVbad_typeid@@@8     0047d66c     libcmt:stdexcpt.obj
 0003:0000d688       ??_R0?AV__non_rtti_object@@@8 0047d688     libcmt:stdexcpt.obj
 0003:0000d6a8       ??_R0?AVtype_info@@@8      0047d6a8     libcmt:typinfo.obj
 0003:0000d6c0       ___lc_time_curr            0047d6c0     libcmt:strftime.obj
 0003:0000d6c8       ___lc_time_c               0047d6c8     libcmt:strftime.obj
 0003:0000d780       __fltused                  0047d780     libcmt:fpinit.obj
 0003:0000d784       __ldused                   0047d784     libcmt:fpinit.obj
 0003:0000d788       __FPinit                   0047d788     libcmt:fpinit.obj
 0003:0000d78c       __FPmtinit                 0047d78c     libcmt:fpinit.obj
 0003:0000d790       __FPmtterm                 0047d790     libcmt:fpinit.obj
 0003:0000d7a0       __aexit_rtn                0047d7a0     libcmt:wincrt0.obj
 0003:0000d7a4       ___app_type                0047d7a4     libcmt:wincrt0.obj
 0003:0000da14       ___tlsindex                0047da14     libcmt:tidtable.obj
 0003:0000da18       ?__pInconsistency@@3P6AXXZA 0047da18     libcmt:hooks.obj
 0003:0000db48       ___initiallocinfo          0047db48     libcmt:setlocal.obj
 0003:0000db9c       ___ptlocinfo               0047db9c     libcmt:setlocal.obj
 0003:0000dcd8       ___lc_category             0047dcd8     libcmt:setlocal.obj
 0003:0000dd20       __timezone                 0047dd20     libcmt:timeset.obj
 0003:0000dd24       __daylight                 0047dd24     libcmt:timeset.obj
 0003:0000dd28       __dstbias                  0047dd28     libcmt:timeset.obj
 0003:0000ddb0       __tzname                   0047ddb0     libcmt:timeset.obj
 0003:0000ddd0       ___nullstring              0047ddd0     libcmt:output.obj
 0003:0000ddd4       ___wnullstring             0047ddd4     libcmt:output.obj
 0003:0000ddd8       __amblksiz                 0047ddd8     libcmt:heapinit.obj
 0003:0000dde0       __cfltcvt_tab              0047dde0     libcmt:cmiscdat.obj
 0003:0000ddf8       __XcptActTab               0047ddf8     libcmt:winxfltr.obj
 0003:0000de70       __First_FPE_Indx           0047de70     libcmt:winxfltr.obj
 0003:0000de74       __Num_FPE                  0047de74     libcmt:winxfltr.obj
 0003:0000de78       __XcptActTabSize           0047de78     libcmt:winxfltr.obj
 0003:0000de7c       __XcptActTabCount          0047de7c     libcmt:winxfltr.obj
 0003:0000de80       __iob                      0047de80     libcmt:_file.obj
 0003:0000e100       __pctype                   0047e100     libcmt:ctype.obj
 0003:0000e104       __pwctype                  0047e104     libcmt:ctype.obj
 0003:0000e108       ___badioinfo               0047e108     libcmt:ioinit.obj
 0003:0000e1c8       ___lc_clike                0047e1c8     libcmt:nlsdata2.obj
 0003:0000e1d0       __lpdays                   0047e1d0     libcmt:days.obj
 0003:0000e204       __days                     0047e204     libcmt:days.obj
 0003:0000e238       ___lconv_static_decimal    0047e238     libcmt:lconv.obj
 0003:0000e23c       ___lconv_c                 0047e23c     libcmt:lconv.obj
 0003:0000e26c       ___lconv                   0047e26c     libcmt:lconv.obj
 0003:0000e270       ___mb_cur_max              0047e270     libcmt:nlsdata1.obj
 0003:0000e274       ___decimal_point           0047e274     libcmt:nlsdata1.obj
 0003:0000e278       ___decimal_point_length    0047e278     libcmt:nlsdata1.obj
 0003:0000e2b0       __pow10pos                 0047e2b0     libcmt:constpow.obj
 0003:0000e410       __pow10neg                 0047e410     libcmt:constpow.obj
 0003:0000e56c       ?dump_level_@ffl_dump_unexception_filter@@0HA 0047e56c     ffl_dumpr:ffl_dump_unexception_filter.obj
 0003:0000e570       __mep@?ffl_purecall_handler@?A0x3463d5ea@@$$FYAXXZ 0047e570     ffl_dumpr:ffl_dump_unexception_filter.obj
 0003:0000e574       __mep@?make_file_name@?A0x3463d5ea@@$$FYAXPADIPBD1@Z 0047e574     ffl_dumpr:ffl_dump_unexception_filter.obj
 0003:0000e578       __mep@?record@?A0x3463d5ea@@$$FYAXPAUffl_dump_param_t@@PBD@Z 0047e578     ffl_dumpr:ffl_dump_unexception_filter.obj
 0003:0000e57c       __mep@?ffl_dump_recod_function@?A0x3463d5ea@@$$FYGIPAX@Z 0047e57c     ffl_dumpr:ffl_dump_unexception_filter.obj
 0003:0000e580       __mep@??1ffl_dump_unexception_filter@@$$FQAE@XZ 0047e580     ffl_dumpr:ffl_dump_unexception_filter.obj
 0003:0000e584       __mep@?top_level_filter@ffl_dump_unexception_filter@@$$FCGJPAU_EXCEPTION_POINTERS@@@Z 0047e584     ffl_dumpr:ffl_dump_unexception_filter.obj
 0003:0000e588       __mep@?do_snapping@ffl_dump_unexception_filter@@$$FCAXHPAU_EXCEPTION_POINTERS@@@Z 0047e588     ffl_dumpr:ffl_dump_unexception_filter.obj
 0003:0000e58c       __mep@?install@ffl_dump_unexception_filter@@$$FSAXH@Z 0047e58c     ffl_dumpr:ffl_dump_unexception_filter.obj
 0003:0000e590       __mep@?snapping@ffl_dump_unexception_filter@@$$FSAXH@Z 0047e590     ffl_dumpr:ffl_dump_unexception_filter.obj
 0003:0000e594       __mep@??0ffl_dump_unexception_filter@@$$FQAE@H@Z 0047e594     ffl_dumpr:ffl_dump_unexception_filter.obj
 0003:0000e598       __mep@??1ffl_date_time@@$$FQAE@XZ 0047e598     ffl_dumpr:ffl_date_time.obj
 0003:0000e59c       __mep@?update@ffl_date_time@@$$FQAEXXZ 0047e59c     ffl_dumpr:ffl_date_time.obj
 0003:0000e5a0       __mep@?year@ffl_date_time@@$$FQBEHXZ 0047e5a0     ffl_dumpr:ffl_date_time.obj
 0003:0000e5a4       __mep@?month@ffl_date_time@@$$FQBEHXZ 0047e5a4     ffl_dumpr:ffl_date_time.obj
 0003:0000e5a8       __mep@?day@ffl_date_time@@$$FQBEHXZ 0047e5a8     ffl_dumpr:ffl_date_time.obj
 0003:0000e5ac       __mep@?hour@ffl_date_time@@$$FQBEHXZ 0047e5ac     ffl_dumpr:ffl_date_time.obj
 0003:0000e5b0       __mep@?minute@ffl_date_time@@$$FQBEHXZ 0047e5b0     ffl_dumpr:ffl_date_time.obj
 0003:0000e5b4       __mep@?second@ffl_date_time@@$$FQBEHXZ 0047e5b4     ffl_dumpr:ffl_date_time.obj
 0003:0000e5b8       __mep@?millisecond@ffl_date_time@@$$FQBEHXZ 0047e5b8     ffl_dumpr:ffl_date_time.obj
 0003:0000e5bc       __mep@?day_of_week@ffl_date_time@@$$FQBEHXZ 0047e5bc     ffl_dumpr:ffl_date_time.obj
 0003:0000e5c0       __mep@??0ffl_date_time@@$$FQAE@XZ 0047e5c0     ffl_dumpr:ffl_date_time.obj
 0003:0000e5c4       __mep@?ffl_vsnprintf_a@@$$FYAHPADIPBD0@Z 0047e5c4     ffl_dumpr:ffl_c_string.obj
 0003:0000e5c8       __mep@?ffl_strncpy_a@@$$FYAHPADIPBDI@Z 0047e5c8     ffl_dumpr:ffl_c_string.obj
 0003:0000e5cc       __mep@?ffl_splitpath_a@@$$FYAHPBDPADI1I1I1I@Z 0047e5cc     ffl_dumpr:ffl_c_string.obj
 0003:0000e5d0       __mep@?ffl_makepath_a@@$$FYAHPADIPBD111@Z 0047e5d0     ffl_dumpr:ffl_c_string.obj
 0003:0000e5d4       __mep@?ffl_vsnprintf_w@@$$FYAHPAGIPBGPAD@Z 0047e5d4     ffl_dumpr:ffl_c_string.obj
 0003:0000e5d8       __mep@?ffl_strncpy_w@@$$FYAHPAGIPBGI@Z 0047e5d8     ffl_dumpr:ffl_c_string.obj
 0003:0000e5dc       __mep@?ffl_splitpath_w@@$$FYAHPBGPAGI1I1I1I@Z 0047e5dc     ffl_dumpr:ffl_c_string.obj
 0003:0000e5e0       __mep@?ffl_makepath_w@@$$FYAHPAGIPBG111@Z 0047e5e0     ffl_dumpr:ffl_c_string.obj
 0003:0000e5e4       __mep@??0ffl_dump_report@@$$FQAE@XZ 0047e5e4     ffl_dumpr:ffl_dump_report.obj
 0003:0000e5e8       __mep@??1ffl_dump_report@@$$FQAE@XZ 0047e5e8     ffl_dumpr:ffl_dump_report.obj
 0003:0000e5ec       __mep@?get_logical_address@ffl_dump_report@@$$FAAE_NPAXPADKPAK2@Z 0047e5ec     ffl_dumpr:ffl_dump_report.obj
 0003:0000e5f0       __mep@?inti_imagehlp_func@ffl_dump_report@@$$FAAE_NPAUHINSTANCE__@@@Z 0047e5f0     ffl_dumpr:ffl_dump_report.obj
 0003:0000e5f4       __mep@?intel_stack_walk@ffl_dump_report@@$$FAAEXPAVffl_text_file@@PAU_CONTEXT@@@Z 0047e5f4     ffl_dumpr:ffl_dump_report.obj
 0003:0000e5f8       __mep@?imagehlp_stack_walk@ffl_dump_report@@$$FAAEXPAVffl_text_file@@PAU_CONTEXT@@PAX@Z 0047e5f8     ffl_dumpr:ffl_dump_report.obj
 0003:0000e5fc       __mep@?generate_exception@ffl_dump_report@@$$FAAEXPAVffl_text_file@@PAUffl_dump_param_t@@@Z 0047e5fc     ffl_dumpr:ffl_dump_report.obj
 0003:0000e600       __mep@?report@ffl_dump_report@@$$FAAEXPAVffl_text_file@@PAUffl_dump_param_t@@@Z 0047e600     ffl_dumpr:ffl_dump_report.obj
 0003:0000e604       __mep@?dump@ffl_dump_report@@$$FQAEXPBDPAUffl_dump_param_t@@@Z 0047e604     ffl_dumpr:ffl_dump_report.obj
 0003:0000e608       __mep@?system_information_log@ffl_dump_log@@$$FAAEXPAVffl_text_file@@@Z 0047e608     ffl_dumpr:ffl_dump_log.obj
 0003:0000e60c       __mep@?register_log@ffl_dump_log@@$$FAAEXPAVffl_text_file@@PAU_CONTEXT@@@Z 0047e60c     ffl_dumpr:ffl_dump_log.obj
 0003:0000e610       __mep@?print_module_info@ffl_dump_log@@$$FAAEXPAVffl_text_file@@PBD@Z 0047e610     ffl_dumpr:ffl_dump_log.obj
 0003:0000e614       __mep@?module_info_log@ffl_dump_log@@$$FAAE_NPAVffl_text_file@@PAUHINSTANCE__@@H@Z 0047e614     ffl_dumpr:ffl_dump_log.obj
 0003:0000e618       __mep@?module_list_log@ffl_dump_log@@$$FAAEXPAVffl_text_file@@@Z 0047e618     ffl_dumpr:ffl_dump_log.obj
 0003:0000e61c       __mep@?log@ffl_dump_log@@$$FAAEXPAVffl_text_file@@PAUffl_dump_param_t@@@Z 0047e61c     ffl_dumpr:ffl_dump_log.obj
 0003:0000e620       __mep@?dump@ffl_dump_log@@$$FQAEXPBDPAUffl_dump_param_t@@@Z 0047e620     ffl_dumpr:ffl_dump_log.obj
 0003:0000e624       __mep@?_tcsrchr@@$$J0YAPADPBDI@Z 0047e624     ffl_dumpr:ffl_dump_mini.obj
 0003:0000e628       __mep@?find_dll@ffl_dump_mini@@$$FAAEPAUHINSTANCE__@@XZ 0047e628     ffl_dumpr:ffl_dump_mini.obj
 0003:0000e62c       __mep@?write@ffl_dump_mini@@$$FAAEXPAXPAUffl_dump_param_t@@@Z 0047e62c     ffl_dumpr:ffl_dump_mini.obj
 0003:0000e630       __mep@?dump@ffl_dump_mini@@$$FQAEXPBDPAUffl_dump_param_t@@@Z 0047e630     ffl_dumpr:ffl_dump_mini.obj
 0003:0000e634       __mep@?ffl_get_win_version@@$$FYAXPADI0I@Z 0047e634     ffl_dumpr:ffl_dump_common.obj
 0003:0000e638       __mep@?ffl_formating_time@@$$FYAXPADIPAU_FILETIME@@@Z 0047e638     ffl_dumpr:ffl_dump_common.obj
 0003:0000e63c       __mep@?ffl_get_exception_string@@$$FYAPBDK@Z 0047e63c     ffl_dumpr:ffl_dump_common.obj
 0003:0000e640       __mep@??0ffl_text_file@@$$FQAE@XZ 0047e640     ffl_dumpr:ffl_text_file.obj
 0003:0000e644       __mep@?create@ffl_text_file@@$$FQAE_NPBDII@Z 0047e644     ffl_dumpr:ffl_text_file.obj
 0003:0000e648       __mep@?open@ffl_text_file@@$$FQAE_NPBDII@Z 0047e648     ffl_dumpr:ffl_text_file.obj
 0003:0000e64c       __mep@?close@ffl_text_file@@$$FQAEXXZ 0047e64c     ffl_dumpr:ffl_text_file.obj
 0003:0000e650       __mep@?opened@ffl_text_file@@$$FQAE_NXZ 0047e650     ffl_dumpr:ffl_text_file.obj
 0003:0000e654       __mep@?write_text@ffl_text_file@@$$FQAEIPBDI@Z 0047e654     ffl_dumpr:ffl_text_file.obj
 0003:0000e658       __mep@?read_text@ffl_text_file@@$$FQAEIPADI@Z 0047e658     ffl_dumpr:ffl_text_file.obj
 0003:0000e65c       __mep@?read_line@ffl_text_file@@$$FQAEIPADI@Z 0047e65c     ffl_dumpr:ffl_text_file.obj
 0003:0000e660       __mep@?flush@ffl_text_file@@$$FQAE_NXZ 0047e660     ffl_dumpr:ffl_text_file.obj
 0003:0000e664       __mep@?size@ffl_text_file@@$$FQAE_KXZ 0047e664     ffl_dumpr:ffl_text_file.obj
 0003:0000e668       __mep@??1ffl_text_file@@$$FQAE@XZ 0047e668     ffl_dumpr:ffl_text_file.obj
 0003:0000e66c       __mep@??0ffl_module_info@@$$FQAE@XZ 0047e66c     ffl_dumpr:ffl_module_info.obj
 0003:0000e670       __mep@?company_name@ffl_module_info@@$$FQBEPBDXZ 0047e670     ffl_dumpr:ffl_module_info.obj
 0003:0000e674       __mep@?product_name@ffl_module_info@@$$FQBEPBDXZ 0047e674     ffl_dumpr:ffl_module_info.obj
 0003:0000e678       __mep@?file_description@ffl_module_info@@$$FQBEPBDXZ 0047e678     ffl_dumpr:ffl_module_info.obj
 0003:0000e67c       __mep@?file_version@ffl_module_info@@$$FQBEPBGXZ 0047e67c     ffl_dumpr:ffl_module_info.obj
 0003:0000e680       __mep@?product_version@ffl_module_info@@$$FQBEPBGXZ 0047e680     ffl_dumpr:ffl_module_info.obj
 0003:0000e684       __mep@?query_fixed_info@ffl_module_info@@$$FAAE_NPAXPAUtagVS_FIXEDFILEINFO@@@Z 0047e684     ffl_dumpr:ffl_module_info.obj
 0003:0000e688       __mep@?query_string_info@ffl_module_info@@$$FAAE_NPAXPBDPADI@Z 0047e688     ffl_dumpr:ffl_module_info.obj
 0003:0000e68c       __mep@?load_info@ffl_module_info@@$$FQAE_NPBD@Z 0047e68c     ffl_dumpr:ffl_module_info.obj
 0003:0000e690       __mep@??0ffl_file@@$$FQAE@XZ 0047e690     ffl_dumpr:ffl_file.obj
 0003:0000e694       __mep@?create@ffl_file@@$$FQAE_NPBDII@Z 0047e694     ffl_dumpr:ffl_file.obj
 0003:0000e698       __mep@?open@ffl_file@@$$FQAE_NPBDII@Z 0047e698     ffl_dumpr:ffl_file.obj
 0003:0000e69c       __mep@?close@ffl_file@@$$FQAEXXZ 0047e69c     ffl_dumpr:ffl_file.obj
 0003:0000e6a0       __mep@?opened@ffl_file@@$$FQAE_NXZ 0047e6a0     ffl_dumpr:ffl_file.obj
 0003:0000e6a4       __mep@?read@ffl_file@@$$FQAEIPAXI@Z 0047e6a4     ffl_dumpr:ffl_file.obj
 0003:0000e6a8       __mep@?write@ffl_file@@$$FQAEIPBXI@Z 0047e6a8     ffl_dumpr:ffl_file.obj
 0003:0000e6ac       __mep@?seek@ffl_file@@$$FQAE_J_JH@Z 0047e6ac     ffl_dumpr:ffl_file.obj
 0003:0000e6b0       __mep@?flush@ffl_file@@$$FQAE_NXZ 0047e6b0     ffl_dumpr:ffl_file.obj
 0003:0000e6b4       __mep@?size@ffl_file@@$$FQAE_KXZ 0047e6b4     ffl_dumpr:ffl_file.obj
 0003:0000e6b8       __mep@??1ffl_file@@$$FQAE@XZ 0047e6b8     ffl_dumpr:ffl_file.obj
 0003:0000e6bc       ?rcDefault@CWindow@ATL@@2UtagRECT@@A 0047e6bc     atls:atlbase.obj
 0003:0000e6e0       ?hWait@@3PAXA              0047e6e0     DPCoreClient.obj
 0003:0000e6e4       ?g_dpCoreClient@@3VCDPCoreClient@@A 0047e6e4     DPCoreClient.obj
 0003:0000e700       ?g_dpDBClient@@3VCDPDatabaseClient@@A 0047e700     DPDatabaseClient.obj
 0003:0000e720       ?g_dpLoginSrvr@@3VCDPLoginSrvr@@A 0047e720     DPLoginSrvr.obj
 0003:0000e7b0       ?hMainWnd@@3PAUHWND__@@A   0047e7b0     LoginServer.obj
 0003:0000e7b8       ?szWindowClass@@3PADA      0047e7b8     LoginServer.obj
 0003:0000e820       ?szTitle@@3PADA            0047e820     LoginServer.obj
 0003:0000e884       ?hInst@@3PAUHINSTANCE__@@A 0047e884     LoginServer.obj
 0003:0000e888       ?g_lpDBAddr@@3PADA         0047e888     StdAfx.obj
 0003:0000e898       ?g_lpCoreAddr@@3PADA       0047e898     StdAfx.obj
 0003:0000e8a8       ?g_bNProtectAuth@@3HA      0047e8a8     StdAfx.obj
 0003:0000e8b0       ?g_TickCount@@3VCTickCount@@A 0047e8b0     StdAfx.obj
 0003:0000e8c0       ?s_pLog@CFixedStringMgr@ATL@@2PAVIFixedStringLog@2@A 0047e8c0     StdAfx.obj
 0003:0000e8c4       ?m_bInitFailed@CAtlBaseModule@ATL@@2_NA 0047e8c4     StdAfx.obj
 0003:0000e8c5       ?s_bWin9x@?1??_AtlInstallStringThunk@ATL@@YAXPAPAXPAX1@Z@4_NA 0047e8c5     StdAfx.obj
 0003:0000e8c8       ??_B?1??_AtlInstallStringThunk@ATL@@YAXPAPAXPAX1@Z@51 0047e8c8     StdAfx.obj
 0003:0000e8cc       ?m_pPool@CUser@@2PAV?$MemPooler@VCUser@@@@A 0047e8cc     User.obj
 0003:0000e8d0       ?g_UserMng@@3VCUserMng@@A  0047e8d0     User.obj
 0003:0000e90c       ?m_pHeapMng@CAr@@2PAVCHeapMng@@A 0047e90c     ar.obj
 0003:0000e918       ?g_MyTrace@@3VCMyTrace@@A  0047e918     MyTrace.obj
 0003:0000fb08       ?m_pPool2@CBuffer2@@2PAV?$MemPooler@VCBuffer2@@@@A 0047fb08     buffer.obj
 0003:0000fb0c       ?m_pPool@CBuffer@@2PAV?$MemPooler@VCBuffer@@@@A 0047fb0c     buffer.obj
 0003:0000fb10       ?m_pHeapMng@CBuffer@@2PAVCHeapMng@@A 0047fb10     buffer.obj
 0003:0000fb14       ?m_pPool@CClientSock@@2PAV?$MemPooler@VCClientSock@@@@A 0047fb14     clientsock.obj
 0003:0000fb18       ?m_pPool@CClientSockE@@2PAV?$MemPooler@VCClientSockE@@@@A 0047fb18     clientsocke.obj
 0003:00017d6c       ?m_dwOldTime@@3KA          00487d6c     timer.obj
 0003:00017d70       ?m_lTime@@3KA              00487d70     timer.obj
 0003:00017d78       ?g_szExeDir@@3PADA         00487d78     xutil.obj
 0003:00017e78       ?g_szWorkDir@@3PADA        00487e78     xutil.obj
 0003:00017f78       ?g_next@@3KA               00487f78     xutil.obj
 0003:00017f80       ?g_llFreq@@3T_LARGE_INTEGER@@A 00487f80     xutil.obj
 0003:00017f88       ?g_nMaxTri@@3HA            00487f88     xutil.obj
 0003:00017f8c       ?g_osVersion@@3W4OSTYPE@@A 00487f8c     xutil.obj
 0003:00017f98       ?g_codePage@@3GA           00487f98     scanner.obj
 0003:00017fa0       ?g_UniqValHashTable@@3PAY0MI@U_UNIQ_VAL@@A 00487fa0     ggsrvlib26_MT:ggsrv.obj
 0003:00052920       ?ctx@@3UBLOWFISH_CTX@@A    004c2920     ggsrvlib26_MT:ggsrv.obj
 0003:00053968       ?ggauth_UNIQVAL@@3U_RTL_CRITICAL_SECTION@@A 004c3968     ggsrvlib26_MT:ggsrv.obj
 0003:00053980       ?ggauth_PROTOCOL@@3U_RTL_CRITICAL_SECTION@@A 004c3980     ggsrvlib26_MT:ggsrv.obj
 0003:00053998       ?ggauth_GGVER@@3U_RTL_CRITICAL_SECTION@@A 004c3998     ggsrvlib26_MT:ggsrv.obj
 0003:000539b0       ?msgBuf@@3PADA             004c39b0     ggsrvlib26_MT:ggsrv.obj
 0003:00053bb0       ?ggGlobal@@3U_GLOBAL_VALUES@@A 004c3bb0     ggsrvlib26_MT:ggsrv.obj
 0003:00053d8c       __afxForceEXCLUDE          004c3d8c     nafxcw:nolib.obj
 0003:00053d90       ?_simpleMemoryException@@3VCMemoryException@@A 004c3d90     nafxcw:except.obj
 0003:00053e28       ?_simpleNotSupportedException@@3VCNotSupportedException@@A 004c3e28     nafxcw:except.obj
 0003:00053ec0       ?_simpleInvalidArgException@@3VCInvalidArgException@@A 004c3ec0     nafxcw:except.obj
 0003:00053f58       ?afxStringManager@@3VCAfxStringMgr@@A 004c3f58     nafxcw:strcore.obj
 0003:00053f70       ?WM_DESTROYMODELESS@CDHtmlDialog@@1IA 004c3f70     nafxcw:objcore.obj
 0003:00053f74       ?ATL_CREATE_OBJECT@CComApartment@ATL@@2IA 004c3f74     nafxcw:objcore.obj
 0003:00053f78       ?_pModule@ATL@@3PAVCComModule@1@A 004c3f78     nafxcw:objcore.obj
 0003:00053f7c       ?m_libid@CAtlModule@ATL@@2U_GUID@@A 004c3f7c     nafxcw:objcore.obj
 0003:00053f8c       ?_pAtlModule@ATL@@3PAVCAtlModule@1@A 004c3f8c     nafxcw:objcore.obj
 0003:00053f90       ?_pPerfUnRegFunc@ATL@@3P6AJXZA 004c3f90     nafxcw:objcore.obj
 0003:00053f94       ?_pPerfRegFunc@ATL@@3P6AJPAUHINSTANCE__@@@ZA 004c3f94     nafxcw:objcore.obj
 0003:00053f98       ?_pAtlAutoThreadModule@ATL@@3PAUIAtlAutoThreadModule@1@A 004c3f98     nafxcw:objcore.obj
 0003:00053f9c       ?_AtlWinModule@ATL@@3VCAtlWinModule@1@A 004c3f9c     nafxcw:objcore.obj
 0003:00053fc8       ?afxData@@3UAUX_DATA@@A    004c3fc8     nafxcw:auxdata.obj
 0003:00054020       ?_afxThreadState@@3V?$CThreadLocal@V_AFX_THREAD_STATE@@@@A 004c4020     nafxcw:afxstate.obj
 0003:00054024       ?_afxBaseModuleState@@3V?$CProcessLocal@V_AFX_BASE_MODULE_STATE@@@@A 004c4024     nafxcw:afxstate.obj
 0003:00054028       ?_afxTlsRef@@3JA           004c4028     nafxcw:afxtls.obj
 0003:0005402c       ?_afxThreadData@@3PAVCThreadSlotData@@A 004c402c     nafxcw:afxtls.obj
 0003:00054030       ?__afxThreadData@@3PAEA    004c4030     nafxcw:afxtls.obj
 0003:00054068       ?_afxLockInit@@3PAHA       004c4068     nafxcw:afxcrit.obj
 0003:000540ac       ?_afxLockInitLock@@3U_RTL_CRITICAL_SECTION@@A 004c40ac     nafxcw:afxcrit.obj
 0003:000540c8       ?_afxResourceLock@@3PAU_RTL_CRITICAL_SECTION@@A 004c40c8     nafxcw:afxcrit.obj
 0003:00054260       ?_afxCriticalInit@@3HA     004c4260     nafxcw:afxcrit.obj
 0003:00054264       ?_init_CByteArray@@3UAFX_CLASSINIT@@A 004c4264     nafxcw:array_b.obj
 0003:00054268       ?_afxGotScrollLines@@3HA   004c4268     nafxcw:wincore.obj
 0003:00054270       ?_afxMsgCache@@3PAUAFX_MSG_CACHE@@A 004c4270     nafxcw:wincore.obj
 0003:00055a70       _g_pfnGetSystemMetrics     004c5a70     nafxcw:wincore.obj
 0003:00055a74       _g_pfnMonitorFromWindow    004c5a74     nafxcw:wincore.obj
 0003:00055a78       _g_pfnMonitorFromRect      004c5a78     nafxcw:wincore.obj
 0003:00055a7c       _g_pfnMonitorFromPoint     004c5a7c     nafxcw:wincore.obj
 0003:00055a80       _g_pfnGetMonitorInfo       004c5a80     nafxcw:wincore.obj
 0003:00055a84       _g_pfnEnumDisplayMonitors  004c5a84     nafxcw:wincore.obj
 0003:00055a88       _g_pfnEnumDisplayDevices   004c5a88     nafxcw:wincore.obj
 0003:00055a8c       _g_fMultiMonInitDone       004c5a8c     nafxcw:wincore.obj
 0003:00055a90       _g_fMultimonPlatformNT     004c5a90     nafxcw:wincore.obj
 0003:00055a94       ?m_pfnNotifyWinEvent@CWnd@@1P6GXKPAUHWND__@@JJ@ZA 004c5a94     nafxcw:wincore.obj
 0003:00055a98       ?m_nMsgDragList@CWnd@@1IB  004c5a98     nafxcw:wincore.obj
 0003:00055aa0       ?wndTop@CWnd@@2V1@B        004c5aa0     nafxcw:wincore.obj
 0003:00055af0       ?wndBottom@CWnd@@2V1@B     004c5af0     nafxcw:wincore.obj
 0003:00055b40       ?wndTopMost@CWnd@@2V1@B    004c5b40     nafxcw:wincore.obj
 0003:00055b90       ?wndNoTopMost@CWnd@@2V1@B  004c5b90     nafxcw:wincore.obj
 0003:00055be4       ?_afxHtmlHelpState@@3V?$CProcessLocal@V_AFX_HTMLHELP_STATE@@@@A 004c5be4     nafxcw:wincore.obj
 0003:00055be8       ?_simpleResourceException@@3VCResourceException@@A 004c5be8     nafxcw:wingdi.obj
 0003:00055c80       ?_simpleUserException@@3VCUserException@@A 004c5c80     nafxcw:wingdi.obj
 0003:00055d18       ?pStaticDocManager@CDocManager@@2PAV1@A 004c5d18     nafxcw:appcore.obj
 0003:00055d1c       ?pStaticList@CDocManager@@2PAVCPtrList@@A 004c5d1c     nafxcw:appcore.obj
 0003:00055d20       ?_afxWinState@@3V?$CProcessLocal@V_AFX_WIN_STATE@@@@A 004c5d20     nafxcw:appcore.obj
 0003:00055d24       ?_afxDBCS@@3HB             004c5d24     nafxcw:afxdbcs.obj
 0003:00055d28       ?_afxWingdixTerm@@3DA      004c5d28     nafxcw:wingdix.obj
 0003:00055d2c       ?_afxHalftoneBrush@@3PAUHBRUSH__@@A 004c5d2c     nafxcw:wingdix.obj
 0003:00055d30       ?_afxMsgLBSELCHANGE@@3IA   004c5d30     nafxcw:dlgcomm.obj
 0003:00055d34       ?_afxMsgSHAREVI@@3IA       004c5d34     nafxcw:dlgcomm.obj
 0003:00055d38       ?_afxMsgFILEOK@@3IA        004c5d38     nafxcw:dlgcomm.obj
 0003:00055d3c       ?_afxMsgCOLOROK@@3IA       004c5d3c     nafxcw:dlgcomm.obj
 0003:00055d40       ?_afxMsgHELP@@3IA          004c5d40     nafxcw:dlgcomm.obj
 0003:00055d44       ?_afxMsgSETRGB@@3IA        004c5d44     nafxcw:dlgcomm.obj
 0003:00055d48       ___fastflag                004c5d48     libcmt:fpinit.obj
 0003:00055d4c       __adjust_fdiv              004c5d4c     libcmt:fpinit.obj
 0003:00055d50       ___pPurecall               004c5d50     libcmt:purevirt.obj
 0003:00055d54       __aenvptr                  004c5d54     libcmt:wincrt0.obj
 0003:00055d58       __wenvptr                  004c5d58     libcmt:wincrt0.obj
 0003:00055d5c       ___error_mode              004c5d5c     libcmt:wincrt0.obj
 0003:00055d64       __umaskval                 004c5d64     libcmt:crt0dat.obj
 0003:00055d68       __osplatform               004c5d68     libcmt:crt0dat.obj
 0003:00055d6c       __osver                    004c5d6c     libcmt:crt0dat.obj
 0003:00055d70       __winver                   004c5d70     libcmt:crt0dat.obj
 0003:00055d74       __winmajor                 004c5d74     libcmt:crt0dat.obj
 0003:00055d78       __winminor                 004c5d78     libcmt:crt0dat.obj
 0003:00055d7c       ___argc                    004c5d7c     libcmt:crt0dat.obj
 0003:00055d80       ___argv                    004c5d80     libcmt:crt0dat.obj
 0003:00055d84       ___wargv                   004c5d84     libcmt:crt0dat.obj
 0003:00055d88       __environ                  004c5d88     libcmt:crt0dat.obj
 0003:00055d8c       ___initenv                 004c5d8c     libcmt:crt0dat.obj
 0003:00055d90       __wenviron                 004c5d90     libcmt:crt0dat.obj
 0003:00055d94       ___winitenv                004c5d94     libcmt:crt0dat.obj
 0003:00055d98       __pgmptr                   004c5d98     libcmt:crt0dat.obj
 0003:00055d9c       __wpgmptr                  004c5d9c     libcmt:crt0dat.obj
 0003:00055da0       __exitflag                 004c5da0     libcmt:crt0dat.obj
 0003:00055da4       __C_Termination_Done       004c5da4     libcmt:crt0dat.obj
 0003:00055da8       __C_Exit_Done              004c5da8     libcmt:crt0dat.obj
 0003:00055dac       _gpFlsAlloc                004c5dac     libcmt:tidtable.obj
 0003:00055db0       _gpFlsGetValue             004c5db0     libcmt:tidtable.obj
 0003:00055db4       _gpFlsSetValue             004c5db4     libcmt:tidtable.obj
 0003:00055db8       _gpFlsFree                 004c5db8     libcmt:tidtable.obj
 0003:00056004       ?_pnhHeap@@3P6AHI@ZA       004c6004     libcmt:handler.obj
 0003:00056008       __newmode                  004c6008     libcmt:_newmode.obj
 0003:00056060       __cflush                   004c6060     libcmt:_file.obj
 0003:00056064       __stdbuf                   004c6064     libcmt:_sftbuf.obj
 0003:00056070       __adbgmsg                  004c6070     libcmt:crt0msg.obj
 0003:000561a8       ___lc_handle               004c61a8     libcmt:nlsdata2.obj
 0003:000561c0       ___lc_codepage             004c61c0     libcmt:nlsdata2.obj
 0003:000561c4       ___lc_collate_cp           004c61c4     libcmt:nlsdata2.obj
 0003:000561e0       ___lconv_static_null       004c61e0     libcmt:lconv.obj
 0003:000561e4       ___lc_time_intl            004c61e4     libcmt:inittime.obj
 0003:000561e8       ___lconv_intl              004c61e8     libcmt:initmon.obj
 0003:00056210       ___lc_id                   004c6210     libcmt:nlsdata3.obj
 0003:00056234       __commode                  004c6234     libcmt:ncommode.obj
 0003:00056258       __fmode                    004c6258     libcmt:txtmode.obj
 0003:00059e8c       ?_AtlBaseModule@ATL@@3VCAtlBaseModule@1@A 004c9e8c     atls:atlbase.obj
 0003:00059ec8       ___ctype1                  004c9ec8     <common>
 0003:00059ecc       ___ctype1_refcount         004c9ecc     <common>
 0003:00059ed0       ___lconv_mon_refcount      004c9ed0     <common>
 0003:00059ed4       ___lconv_intl_refcount     004c9ed4     <common>
 0003:00059ed8       ___lconv_num_refcount      004c9ed8     <common>
 0003:00059edc       __nhandle                  004c9edc     <common>
 0003:00059ee0       ___pioinfo                 004c9ee0     <common>
 0003:00059fe0       ___piob                    004c9fe0     <common>
 0003:0005a000       __bufin                    004ca000     <common>
 0003:0005b000       __nstream                  004cb000     <common>
 0003:0005b004       ___sbh_initialized         004cb004     <common>
 0003:0005b008       ___sbh_pHeaderDefer        004cb008     <common>
 0003:0005b00c       ___sbh_cntHeaderList       004cb00c     <common>
 0003:0005b010       ___sbh_pHeaderList         004cb010     <common>
 0003:0005b014       ___sbh_threshold           004cb014     <common>
 0003:0005b018       ___sbh_pHeaderScan         004cb018     <common>
 0003:0005b01c       ___sbh_sizeHeaderList      004cb01c     <common>
 0003:0005b020       ___sbh_indGroupDefer       004cb020     <common>
 0003:0005b024       __crtheap                  004cb024     <common>
 0003:0005b028       ___active_heap             004cb028     <common>
 0003:0005b02c       ___setlc_active            004cb02c     <common>
 0003:0005b030       ___unguarded_readlc_active 004cb030     <common>
 0003:0005b034       ___env_initialized         004cb034     <common>
 0003:0005b038       ___onexitend               004cb038     <common>
 0003:0005b03c       ___onexitbegin             004cb03c     <common>
 0003:0005b040       ___mbctype_initialized     004cb040     <common>
 0003:0005b044       ___mblcid                  004cb044     <common>
 0003:0005b048       ___ptmbcinfo               004cb048     <common>
 0003:0005b04c       ___ismbcodepage            004cb04c     <common>
 0003:0005b060       __mbctype                  004cb060     <common>
 0003:0005b164       ___mbcodepage              004cb164     <common>
 0003:0005b170       ___mbulinfo                004cb170     <common>
 0003:0005b180       __mbcasemap                004cb180     <common>
 0003:0005b280       __acmdln                   004cb280     <common>

 entry point at        0001:0003c8f6

 Static symbols

 0001:fffff000       $L120373                   00400000 f   clientsock.obj
 0001:fffff000       $L184819                   00400000 f   nafxcw:appui3.obj
 0001:fffff000       $L120076                   00400000 f   scanner.obj
 0001:fffff000       $L132595                   00400000 f   User.obj
 0001:fffff000       $L11745                    00400000 f   libcpmt:string.obj
 0001:fffff000       $L124630                   00400000 f   dpsock.obj
 0001:fffff000       $L11601                    00400000 f   libcpmt:string.obj
 0001:fffff000       __ehhandler$?_Copy@?$basic_string@DU?$char_traits@D@std@@V?$allocator@D@2@@std@@IAEXII@Z 00400000 f   libcpmt:string.obj
 0001:fffff000       __ehhandler$?_Copy@?$basic_string@DU?$char_traits@D@std@@V?$allocator@D@2@@std@@IAEXII@Z 00400000 f   dos2.obj
 0001:fffff000       $L120609                   00400000 f   dos2.obj
 0001:fffff000       $L185334                   00400000 f   nafxcw:dlgfile.obj
 0001:fffff000       $L124494                   00400000 f   dpsock.obj
 0001:fffff000       $L185618                   00400000 f   nafxcw:dlgfile.obj
 0001:fffff000       $L124273                   00400000 f   dpsock.obj
 0001:fffff000       $L184235                   00400000 f   nafxcw:dlgcomm.obj
 0001:fffff000       $L129485                   00400000 f   DPDatabaseClient.obj
 0001:fffff000       $L121313                   00400000 f   dos2.obj
 0001:fffff000       __ehhandler$?_Copy@?$basic_string@DU?$char_traits@D@std@@V?$allocator@D@2@@std@@IAEXII@Z 00400000 f   DPDatabaseClient.obj
 0001:fffff000       $L133571                   00400000 f   User.obj
 0001:fffff000       $L120164                   00400000 f   buffer.obj
 0001:fffff000       __ehhandler$?_Copy@?$basic_string@DU?$char_traits@D@std@@V?$allocator@D@2@@std@@IAEXII@Z 00400000 f   serversocke.obj
 0001:fffff000       $L185293                   00400000 f   nafxcw:filelist.obj
 0001:fffff000       $L198288                   00400000 f   nafxcw:wincore.obj
 0001:fffff000       $L120028                   00400000 f   buffer.obj
 0001:fffff000       $L131532                   00400000 f   User.obj
 0001:fffff000       $L187058                   00400000 f   nafxcw:docmgr.obj
 0001:fffff000       $L123992                   00400000 f   serversocke.obj
 0001:fffff000       __ehhandler$?_Copy@?$basic_string@DU?$char_traits@D@std@@V?$allocator@D@2@@std@@IAEXII@Z 00400000 f   dpsock.obj
 0001:fffff000       __ehhandler$?_Copy@?$basic_string@DU?$char_traits@D@std@@V?$allocator@D@2@@std@@IAEXII@Z 00400000 f   clientsocke.obj
 0001:fffff000       $L119810                   00400000 f   buffer.obj
 0001:fffff000       $L124816                   00400000 f   serversocke.obj
 0001:fffff000       $L120098                   00400000 f   clientsocke.obj
 0001:fffff000       $L185600                   00400000 f   nafxcw:filest.obj
 0001:fffff000       $L184990                   00400000 f   nafxcw:appui2.obj
 0001:fffff000       $L125649                   00400000 f   serversocke.obj
 0001:fffff000       $L120316                   00400000 f   clientsocke.obj
 0001:fffff000       $L184867                   00400000 f   nafxcw:filex.obj
 0001:fffff000       __ehhandler$?_Copy@?$basic_string@DU?$char_traits@D@std@@V?$allocator@D@2@@std@@IAEXII@Z 00400000 f   buffer.obj
 0001:fffff000       $L185518                   00400000 f   nafxcw:filecore.obj
 0001:fffff000       $L120452                   00400000 f   clientsocke.obj
 0001:fffff000       $L121923                   00400000 f   dos2.obj
 0001:fffff000       $L187419                   00400000 f   nafxcw:olevar.obj
 0001:fffff000       $L130341                   00400000 f   DPLoginSrvr.obj
 0001:fffff000       $L129637                   00400000 f   DPLoginSrvr.obj
 0001:fffff000       $L126564                   00400000 f   serversock.obj
 0001:fffff000       $L185139                   00400000 f   nafxcw:thrdcore.obj
 0001:fffff000       __ehhandler$?_Copy@?$basic_string@DU?$char_traits@D@std@@V?$allocator@D@2@@std@@IAEXII@Z 00400000 f   User.obj
 0001:fffff000       $L185126                   00400000 f   nafxcw:thrdcore.obj
 0001:fffff000       $L120509                   00400000 f   clientsock.obj
 0001:fffff000       __ehhandler$?_Copy@?$basic_string@DU?$char_traits@D@std@@V?$allocator@D@2@@std@@IAEXII@Z 00400000 f   LoginProtect.obj
 0001:fffff000       __ehhandler$?_Copy@?$basic_string@DU?$char_traits@D@std@@V?$allocator@D@2@@std@@IAEXII@Z 00400000 f   DPLoginSrvr.obj
 0001:fffff000       $L130189                   00400000 f   DPDatabaseClient.obj
 0001:fffff000       __ehhandler$?_Copy@?$basic_string@DU?$char_traits@D@std@@V?$allocator@D@2@@std@@IAEXII@Z 00400000 f   serversock.obj
 0001:fffff000       $L123839                   00400000 f   LoginProtect.obj
 0001:fffff000       $L125731                   00400000 f   serversock.obj
 0001:fffff000       $L185487                   00400000 f   nafxcw:olemisc.obj
 0001:fffff000       $L184974                   00400000 f   nafxcw:appcore.obj
 0001:fffff000       $L124543                   00400000 f   LoginProtect.obj
 0001:fffff000       __ehhandler$?_Copy@?$basic_string@DU?$char_traits@D@std@@V?$allocator@D@2@@std@@IAEXII@Z 00400000 f   clientsock.obj
 0001:fffff000       $L120155                   00400000 f   clientsock.obj
 0001:fffff000       $L124907                   00400000 f   serversock.obj
 0001:fffff008       __ehhandler$??0logic_error@std@@QAE@ABV?$basic_string@DU?$char_traits@D@std@@V?$allocator@D@2@@1@@Z 00400008 f   serversock.obj
 0001:fffff008       __ehhandler$??0logic_error@std@@QAE@ABV01@@Z 00400008 f   LoginProtect.obj
 0001:fffff008       __ehhandler$??0logic_error@std@@QAE@ABV?$basic_string@DU?$char_traits@D@std@@V?$allocator@D@2@@1@@Z 00400008 f   clientsock.obj
 0001:fffff008       __ehhandler$??0logic_error@std@@QAE@ABV?$basic_string@DU?$char_traits@D@std@@V?$allocator@D@2@@1@@Z 00400008 f   LoginProtect.obj
 0001:fffff008       __ehhandler$??0logic_error@std@@QAE@ABV01@@Z 00400008 f   serversock.obj
 0001:fffff008       __ehhandler$?_Incsize@?$list@PAXV?$allocator@PAX@std@@@std@@IAEXI@Z 00400008 f   clientsock.obj
 0001:fffff008       __ehhandler$??0logic_error@std@@QAE@ABV01@@Z 00400008 f   clientsock.obj
 0001:fffff008       __ehhandler$??0?$CStringT@DV?$StrTraitMFC@DV?$ChTraitsCRT@D@ATL@@@@@ATL@@QAE@PBD@Z 00400008 f   nafxcw:olemisc.obj
 0001:fffff008       __ehhandler$?_Incsize@?$list@PAXV?$allocator@PAX@std@@@std@@IAEXI@Z 00400008 f   serversock.obj
 0001:fffff008       __ehhandler$?_Incsize@?$list@PAXV?$allocator@PAX@std@@@std@@IAEXI@Z 00400008 f   dos2.obj
 0001:fffff008       __ehhandler$??0logic_error@std@@QAE@ABV?$basic_string@DU?$char_traits@D@std@@V?$allocator@D@2@@1@@Z 00400008 f   DPLoginSrvr.obj
 0001:fffff008       __ehhandler$??0?$CStringT@DV?$StrTraitMFC@DV?$ChTraitsCRT@D@ATL@@@@@ATL@@QAE@PBD@Z 00400008 f   nafxcw:olevar.obj
 0001:fffff008       __ehhandler$??0logic_error@std@@QAE@ABV01@@Z 00400008 f   clientsocke.obj
 0001:fffff008       __ehhandler$??0?$CStringT@DV?$StrTraitMFC@DV?$ChTraitsCRT@D@ATL@@@@@ATL@@QAE@PBD@Z 00400008 f   nafxcw:filecore.obj
 0001:fffff008       __ehhandler$?_Incsize@?$list@PAXV?$allocator@PAX@std@@@std@@IAEXI@Z 00400008 f   clientsocke.obj
 0001:fffff008       __ehhandler$?_Incsize@?$list@PAXV?$allocator@PAX@std@@@std@@IAEXI@Z 00400008 f   serversocke.obj
 0001:fffff008       __ehhandler$??0logic_error@std@@QAE@ABV?$basic_string@DU?$char_traits@D@std@@V?$allocator@D@2@@1@@Z 00400008 f   clientsocke.obj
 0001:fffff008       __ehhandler$??0?$CStringT@DV?$StrTraitMFC@DV?$ChTraitsCRT@D@ATL@@@@@ATL@@QAE@PBD@Z 00400008 f   nafxcw:filest.obj
 0001:fffff008       __ehhandler$??0logic_error@std@@QAE@ABV01@@Z 00400008 f   serversocke.obj
 0001:fffff008       __ehhandler$??0logic_error@std@@QAE@ABV?$basic_string@DU?$char_traits@D@std@@V?$allocator@D@2@@1@@Z 00400008 f   buffer.obj
 0001:fffff008       __ehhandler$??0logic_error@std@@QAE@ABV?$basic_string@DU?$char_traits@D@std@@V?$allocator@D@2@@1@@Z 00400008 f   serversocke.obj
 0001:fffff008       __ehhandler$??0?$CStringT@DV?$StrTraitMFC@DV?$ChTraitsCRT@D@ATL@@@@@ATL@@QAE@PBD@Z 00400008 f   nafxcw:docmgr.obj
 0001:fffff008       __ehhandler$??0logic_error@std@@QAE@ABV01@@Z 00400008 f   DPLoginSrvr.obj
 0001:fffff008       __ehhandler$?_Incsize@?$list@PAXV?$allocator@PAX@std@@@std@@IAEXI@Z 00400008 f   buffer.obj
 0001:fffff008       __ehhandler$??0?$CStringT@DV?$StrTraitMFC@DV?$ChTraitsCRT@D@ATL@@@@@ATL@@QAE@PBD@Z 00400008 f   nafxcw:filelist.obj
 0001:fffff008       __ehhandler$??0logic_error@std@@QAE@ABV?$basic_string@DU?$char_traits@D@std@@V?$allocator@D@2@@1@@Z 00400008 f   User.obj
 0001:fffff008       __ehhandler$?_Incsize@?$list@PAXV?$allocator@PAX@std@@@std@@IAEXI@Z 00400008 f   User.obj
 0001:fffff008       __ehhandler$??0logic_error@std@@QAE@ABV01@@Z 00400008 f   buffer.obj
 0001:fffff008       __ehhandler$??0logic_error@std@@QAE@ABV01@@Z 00400008 f   dos2.obj
 0001:fffff008       __ehhandler$??0logic_error@std@@QAE@ABV?$basic_string@DU?$char_traits@D@std@@V?$allocator@D@2@@1@@Z 00400008 f   dos2.obj
 0001:fffff008       __ehhandler$??0?$CStringT@DV?$StrTraitMFC@DV?$ChTraitsCRT@D@ATL@@@@@ATL@@QAE@PBD@Z 00400008 f   nafxcw:dlgfile.obj
 0001:fffff008       __ehhandler$??0logic_error@std@@QAE@ABV?$basic_string@DU?$char_traits@D@std@@V?$allocator@D@2@@1@@Z 00400008 f   dpsock.obj
 0001:fffff008       __ehhandler$??HATL@@YA?AV?$CStringT@DV?$StrTraitMFC@DV?$ChTraitsCRT@D@ATL@@@@@0@ABV10@0@Z 00400008 f   nafxcw:dlgfile.obj
 0001:fffff008       __ehhandler$?_Incsize@?$list@PAXV?$allocator@PAX@std@@@std@@IAEXI@Z 00400008 f   dpsock.obj
 0001:fffff008       __ehhandler$??0logic_error@std@@QAE@ABV?$basic_string@DU?$char_traits@D@std@@V?$allocator@D@2@@1@@Z 00400008 f   libcpmt:string.obj
 0001:fffff008       __ehhandler$??0logic_error@std@@QAE@ABV01@@Z 00400008 f   dpsock.obj
 0001:fffff008       __ehhandler$??0logic_error@std@@QAE@ABV01@@Z 00400008 f   User.obj
 0001:fffff008       __ehhandler$??0?$CStringT@DV?$StrTraitMFC@DV?$ChTraitsCRT@D@ATL@@@@@ATL@@QAE@PBD@Z 00400008 f   scanner.obj
 0001:fffff008       __ehhandler$??0?$CStringT@DV?$StrTraitMFC@DV?$ChTraitsCRT@D@ATL@@@@@ATL@@QAE@PBD@Z 00400008 f   nafxcw:appui3.obj
 0001:fffff008       __ehhandler$??0logic_error@std@@QAE@ABV01@@Z 00400008 f   libcpmt:string.obj
 0001:fffff008       __ehhandler$??0logic_error@std@@QAE@ABV?$basic_string@DU?$char_traits@D@std@@V?$allocator@D@2@@1@@Z 00400008 f   DPDatabaseClient.obj
 0001:fffff008       __ehhandler$??0?$CStringT@DV?$StrTraitMFC@DV?$ChTraitsCRT@D@ATL@@@@@ATL@@QAE@PBD@Z 00400008 f   nafxcw:appui2.obj
 0001:fffff008       __ehhandler$??0logic_error@std@@QAE@ABV01@@Z 00400008 f   DPDatabaseClient.obj
 0001:fffff009       __ehhandler$?CreateObject@?$CThreadLocal@V_AFX_THREAD_STATE@@@@SGPAVCNoTrackObject@@XZ 00400009 f   nafxcw:wincore.obj
 0001:fffff009       __ehhandler$?CreateObject@?$CThreadLocal@V_AFX_THREAD_STATE@@@@SGPAVCNoTrackObject@@XZ 00400009 f   nafxcw:thrdcore.obj
 0001:fffff009       __ehhandler$?CreateObject@?$CThreadLocal@VAFX_MODULE_THREAD_STATE@@@@SGPAVCNoTrackObject@@XZ 00400009 f   nafxcw:thrdcore.obj
 0001:fffff009       __ehhandler$?CreateObject@?$CThreadLocal@V_AFX_THREAD_STATE@@@@SGPAVCNoTrackObject@@XZ 00400009 f   nafxcw:dlgcomm.obj
 0001:fffff009       __ehhandler$?CreateObject@?$CThreadLocal@VAFX_MODULE_THREAD_STATE@@@@SGPAVCNoTrackObject@@XZ 00400009 f   nafxcw:appcore.obj
 0001:fffff00b       __ehhandler$??0CFileException@@QAE@HJPBD@Z 0040000b f   nafxcw:filex.obj
 0001:fffff05f       $L11471                    0040005f f   libcpmt:string.obj
 0001:fffff073       $L118763                   00400073 f   dos2.obj
 0001:fffff073       $L119001                   00400073 f   clientsock.obj
 0001:fffff073       $L127914                   00400073 f   DPDatabaseClient.obj
 0001:fffff073       $L118653                   00400073 f   buffer.obj
 0001:fffff073       $L118944                   00400073 f   clientsocke.obj
 0001:fffff073       $L122337                   00400073 f   dpsock.obj
 0001:fffff073       $L128061                   00400073 f   DPLoginSrvr.obj
 0001:fffff073       $L122977                   00400073 f   serversock.obj
 0001:fffff073       $L121278                   00400073 f   LoginProtect.obj
 0001:fffff073       $L128443                   00400073 f   User.obj
 0001:fffff073       $L122226                   00400073 f   serversocke.obj
 0001:fffff0d3       $L11473                    004000d3 f   libcpmt:string.obj
 0001:fffff10b       $L122228                   0040010b f   serversocke.obj
 0001:fffff10b       $L127916                   0040010b f   DPDatabaseClient.obj
 0001:fffff10b       $L119003                   0040010b f   clientsock.obj
 0001:fffff10b       $L121280                   0040010b f   LoginProtect.obj
 0001:fffff10b       $L118765                   0040010b f   dos2.obj
 0001:fffff10b       $L118655                   0040010b f   buffer.obj
 0001:fffff10b       $L128445                   0040010b f   User.obj
 0001:fffff10b       $L122339                   0040010b f   dpsock.obj
 0001:fffff10b       $L118946                   0040010b f   clientsocke.obj
 0001:fffff10b       $L122979                   0040010b f   serversock.obj
 0001:fffff10b       $L128063                   0040010b f   DPLoginSrvr.obj
 0001:000010d3       $L125769                   004020d3 f i DPCoreClient.obj
 0001:0000116b       $L125771                   0040216b f i DPCoreClient.obj
 0001:0000d052       $L134665                   0040e052 f i User.obj
 0001:000191b0       ?LogFile@@YAXPBD0W4LOG_TYPE@@@Z 0041a1b0 f   debug.obj
 0001:00019260       ?FileOutV@@YAXW4LOG_TYPE@@PBD1PAD@Z 0041a260 f   debug.obj
 0001:00019d90       ?UpdateTime@@YAXXZ         0041ad90 f   timer.obj
 0001:0001c6a0       _$E2                       0041d6a0 f   ggsrvlib26_MT:ggsrv.obj
 0001:0001c6b0       _$E1                       0041d6b0 f   ggsrvlib26_MT:ggsrv.obj
 0001:0001f700       ?F@@YAIPAUBLOWFISH_CTX@@I@Z 00420700 f   ggsrvlib26_MT:ggutil.obj
 0001:00020d13       $L185494                   00421d13 f   nafxcw:olevar.obj
 0001:00021be2       $L186171                   00422be2 f   nafxcw:olevar.obj
 0001:0002294a       $L186917                   0042394a f   nafxcw:olevar.obj
 0001:00022c0a       $L187039                   00423c0a f   nafxcw:olevar.obj
 0001:00022e85       $L187141                   00423e85 f   nafxcw:olevar.obj
 0001:00024fde       $L184244                   00425fde f   nafxcw:fixalloc.obj
 0001:000257da       ?CatchGuardHandler@@YA?AW4_EXCEPTION_DISPOSITION@@PAUEHExceptionRecord@@PAUCatchGuardRN@@PAX2@Z 004267da f   libcmt:trnsctrl.obj
 0001:000258dc       ?TranslatorGuardHandler@@YA?AW4_EXCEPTION_DISPOSITION@@PAUEHExceptionRecord@@PAUTranslatorGuardRN@@PAX2@Z 004268dc f   libcmt:trnsctrl.obj
 0001:00025af6       _report_failure            00426af6 f   libcmt:secchk.obj
 0001:00025b80       $$$00001                   00426b80 f   libcmt:exsup.obj
 0001:00025ba0       __unwind_handler           00426ba0 f   libcmt:exsup.obj
 0001:00025ba0       $$$00003                   00426ba0 f   libcmt:exsup.obj
 0001:00025bc2       $$$00005                   00426bc2 f   libcmt:exsup.obj
 0001:00025c2a       $$$00007                   00426c2a f   libcmt:exsup.obj
 0001:00025c6e       $$$00011                   00426c6e f   libcmt:exsup.obj
 0001:000262c3       __onexit_lk                004272c3 f   libcmt:onexit.obj
 0001:00026968       __store_str                00427968 f   libcmt:strftime.obj
 0001:00026988       __store_number             00427988 f   libcmt:strftime.obj
 0001:000269be       __store_num                004279be f   libcmt:strftime.obj
 0001:00026a37       __expandtime               00427a37 f   libcmt:strftime.obj
 0001:00026c9d       __store_winword            00427c9d f   libcmt:strftime.obj
 0001:000277e5       $$$00003                   004287e5 f   libcmt:exsup3.obj
 0001:00027a74       __threadstartex@4          00428a74 f   libcmt:threadex.obj
 0001:000286a0       _$$$00001                  004296a0 f   libcmt:strchr.obj
 0001:0002891e       _flsall                    0042991e f   libcmt:fflush.obj
 0001:0002906e       _fast_error_exit           0042a06e f   libcmt:wincrt0.obj
 0001:00029092       _check_managed_app         0042a092 f   libcmt:wincrt0.obj
 0001:00029c30       ?ArrayUnwindFilter@@YAHPAU_EXCEPTION_POINTERS@@@Z 0042ac30 f   libcmt:ehvecdtr.obj
 0001:00029f24       _getSystemCP               0042af24 f   libcmt:mbctype.obj
 0001:00029f6a       _CPtoLCID                  0042af6a f   libcmt:mbctype.obj
 0001:00029f99       _setSBCS                   0042af99 f   libcmt:mbctype.obj
 0001:00029fc2       _setSBUpLow                0042afc2 f   libcmt:mbctype.obj
 0001:0002a1cc       __setmbcp_lk               0042b1cc f   libcmt:mbctype.obj
 0001:0002a520       __initterm                 0042b520 f   libcmt:crt0dat.obj
 0001:0002a538       __initterm_e               0042b538 f   libcmt:crt0dat.obj
 0001:0002a5c0       _doexit                    0042b5c0 f   libcmt:crt0dat.obj
 0001:0002a960       __make__time64_t           0042b960 f   libcmt:mktime64.obj
 0001:0002abca       ?TypeMatch@@YAHPBU_s_HandlerType@@PBU_s_CatchableType@@PBU_s_ThrowInfo@@@Z 0042bbca f   libcmt:frame.obj
 0001:0002ac19       ?FrameUnwindFilter@@YAHPAU_EXCEPTION_POINTERS@@@Z 0042bc19 f   libcmt:frame.obj
 0001:0002ad05       ?ExFilterRethrow@@YAHPAU_EXCEPTION_POINTERS@@@Z 0042bd05 f   libcmt:frame.obj
 0001:0002ad7a       ?AdjustPointer@@YAPAXPAXABUPMD@@@Z 0042bd7a f   libcmt:frame.obj
 0001:0002af8e       ?CallCatchBlock@@YAPAXPAUEHExceptionRecord@@PAUEHRegistrationNode@@PAU_CONTEXT@@PBU_s_FuncInfo@@PAXHK@Z 0042bf8e f   libcmt:frame.obj
 0001:0002b152       ?BuildCatchObject@@YAXPAUEHExceptionRecord@@PAXPBU_s_HandlerType@@PBU_s_CatchableType@@@Z 0042c152 f   libcmt:frame.obj
 0001:0002b3f3       ?CatchIt@@YAXPAUEHExceptionRecord@@PAUEHRegistrationNode@@PAU_CONTEXT@@PAXPBU_s_FuncInfo@@PBU_s_HandlerType@@PBU_s_CatchableType@@PBU_s_TryBlockMapEntry@@H1E@Z 0042c3f3 f   libcmt:frame.obj
 0001:0002b45a       ?FindHandlerForForeignException@@YAXPAUEHExceptionRecord@@PAUEHRegistrationNode@@PAU_CONTEXT@@PAXPBU_s_FuncInfo@@HH1@Z 0042c45a f   libcmt:frame.obj
 0001:0002b518       ?FindHandler@@YAXPAUEHExceptionRecord@@PAUEHRegistrationNode@@PAU_CONTEXT@@PAXPBU_s_FuncInfo@@EH1@Z 0042c518 f   libcmt:frame.obj
 0001:0002c312       ___updatetlocinfo_lk       0042d312 f   libcmt:setlocal.obj
 0001:0002c55f       __setlocale_get_all        0042d55f f   libcmt:setlocal.obj
 0001:0002c799       __setlocale_set_cat        0042d799 f   libcmt:setlocal.obj
 0001:0002ca2d       __setlocale_lk             0042da2d f   libcmt:setlocal.obj
 0001:0002cd64       __tzset_lk                 0042dd64 f   libcmt:tzset.obj
 0001:0002d00c       _cvtdate                   0042e00c f   libcmt:tzset.obj
 0001:0002d1c4       __isindst_lk               0042e1c4 f   libcmt:tzset.obj
 0001:0002d85b       _write_char                0042e85b f   libcmt:output.obj
 0001:0002d88e       _write_multi_char          0042e88e f   libcmt:output.obj
 0001:0002d8b2       _write_string              0042e8b2 f   libcmt:output.obj
 0001:0002d8e9       _get_int_arg               0042e8e9 f   libcmt:output.obj
 0001:0002d8f2       _get_int64_arg             0042e8f2 f   libcmt:output.obj
 0001:0002d8fe       _get_short_arg             0042e8fe f   libcmt:output.obj
 0001:0002f426       _strncnt                   00430426 f   libcmt:a_map.obj
 0001:0002f8f7       __shift                    004308f7 f   libcmt:cvt.obj
 0001:0002f914       __cftoe2                   00430914 f   libcmt:cvt.obj
 0001:0002fa32       __cftof2                   00430a32 f   libcmt:cvt.obj
 0001:0002fca0       _xcptlookup                00430ca0 f   libcmt:winxfltr.obj
 0001:0002ff5d       __hextodec                 00430f5d f   libcmt:input.obj
 0001:0002ff75       __inc                      00430f75 f   libcmt:input.obj
 0001:0002ff8b       __un_inc                   00430f8b f   libcmt:input.obj
 0001:0002ff98       __whiteout                 00430f98 f   libcmt:input.obj
 0001:00032e8c       _parse_cmdline             00433e8c f   libcmt:stdargv.obj
 0001:0003334b       _write_char                0043434b f   libcmt:woutput.obj
 0001:00033370       _write_multi_char          00434370 f   libcmt:woutput.obj
 0001:00033395       _write_string              00434395 f   libcmt:woutput.obj
 0001:000333d2       _get_int_arg               004343d2 f   libcmt:woutput.obj
 0001:000333db       _get_int64_arg             004343db f   libcmt:woutput.obj
 0001:00033dd7       ___crtInitCritSecNoSpinCount@8 00434dd7 f   libcmt:initcrit.obj
 0001:00033e78       __get_lc_time              00434e78 f   libcmt:inittime.obj
 0001:000343ce       _fix_grouping              004353ce f   libcmt:initnum.obj
 0001:0003462d       _fix_grouping              0043562d f   libcmt:initmon.obj
 0001:00034bba       _TranslateName             00435bba f   libcmt:getqloc.obj
 0001:00034c1a       _GetLcidFromDefault        00435c1a f   libcmt:getqloc.obj
 0001:00034c34       _ProcessCodePage           00435c34 f   libcmt:getqloc.obj
 0001:00034cae       _TestDefaultCountry        00435cae f   libcmt:getqloc.obj
 0001:00034ccc       _crtGetLocaleInfoA@16      00435ccc f   libcmt:getqloc.obj
 0001:00034daf       _LcidFromHexString         00435daf f   libcmt:getqloc.obj
 0001:00034de4       _GetPrimaryLen             00435de4 f   libcmt:getqloc.obj
 0001:00034e01       _CountryEnumProc@4         00435e01 f   libcmt:getqloc.obj
 0001:00034e99       _TestDefaultLanguage       00435e99 f   libcmt:getqloc.obj
 0001:00034f0e       _LangCountryEnumProc@4     00435f0e f   libcmt:getqloc.obj
 0001:0003512c       _LanguageEnumProc@4        0043612c f   libcmt:getqloc.obj
 0001:000351fb       _GetLcidFromCountry        004361fb f   libcmt:getqloc.obj
 0001:00035232       _GetLcidFromLangCountry    00436232 f   libcmt:getqloc.obj
 0001:000352b8       _GetLcidFromLanguage       004362b8 f   libcmt:getqloc.obj
 0001:00036111       __abstract_cw              00437111 f   libcmt:ieee87.obj
 0001:000361a3       __hw_cw                    004371a3 f   libcmt:ieee87.obj
 0001:00036231       __abstract_sw              00437231 f   libcmt:ieee87.obj
 0001:0003636e       __tsopen_lk                0043736e f   libcmt:open.obj
 0001:00036efa       _x_ismbbtype               00437efa f   libcmt:ismbbyte.obj
 0001:00037131       _ctrlevent_capture@4       00438131 f   libcmt:winsig.obj
 0001:000371c0       _siglookup                 004381c0 f   libcmt:winsig.obj
 0001:00037732       _xtoa                      00438732 f   libcmt:xtoa.obj
 0001:000377db       _x64toa@20                 004387db f   libcmt:xtoa.obj
 0001:00038671       _strncnt                   00439671 f   libcmt:a_cmp.obj
 0001:00038a17       _findenv                   00439a17 f   libcmt:setenv.obj
 0001:00038a64       _copy_environ              00439a64 f   libcmt:setenv.obj
 0001:0003dae7       $L184269                   0043eae7 f   nafxcw:arcstrm.obj
 0001:0003db40       $L184289                   0043eb40 f   nafxcw:arcstrm.obj
 0001:0003dc3b       $L184356                   0043ec3b f   nafxcw:arcstrm.obj
 0001:0003f44a       _$E5                       0044044a f   nafxcw:strcore.obj
 0001:0003f492       $L186468                   00440492 f   nafxcw:objcore.obj
 0001:0003f6a0       $L185025                   004406a0 f   nafxcw:thrdcore.obj
 0001:0003f6ae       $L185027                   004406ae f   nafxcw:thrdcore.obj
 0001:0003f6bc       $L185029                   004406bc f   nafxcw:thrdcore.obj
 0001:0003fd80       $L185420                   00440d80 f   nafxcw:thrdcore.obj
 0001:00040a9c       ?FindSiteOrWnd@@YAPAU__POSITION@@PBVCOleControlContainer@@PBUCOleControlSiteOrWnd@@@Z 00441a9c f   nafxcw:winocc.obj
 0001:00040adf       ?FindSiteOrWndWithFocus@@YAPAU__POSITION@@PBVCOleControlContainer@@@Z 00441adf f   nafxcw:winocc.obj
 0001:00041412       $L184273                   00442412 f   nafxcw:winhand.obj
 0001:000418af       $L197942                   004428af f   nafxcw:wincore.obj
 0001:00042a2e       $L198706                   00443a2e f   nafxcw:wincore.obj
 0001:00042a34       $L198707                   00443a34 f   nafxcw:wincore.obj
 0001:00043a54       $L199484                   00444a54 f   nafxcw:wincore.obj
 0001:000449fd       $L200290                   004459fd f   nafxcw:wincore.obj
 0001:000457e0       _$E5                       004467e0 f   nafxcw:wincore.obj
 0001:000457ec       _$E8                       004467ec f   nafxcw:wincore.obj
 0001:000457fd       _$E10                      004467fd f   nafxcw:wincore.obj
 0001:00045815       _$E13                      00446815 f   nafxcw:wincore.obj
 0001:0004582d       _$E16                      0044682d f   nafxcw:wincore.obj
 0001:00045845       _$E19                      00446845 f   nafxcw:wincore.obj
 0001:0004585d       _$E6                       0044685d f   nafxcw:wincore.obj
 0001:00045867       _$E11                      00446867 f   nafxcw:wincore.obj
 0001:00045871       _$E14                      00446871 f   nafxcw:wincore.obj
 0001:0004587b       _$E17                      0044687b f   nafxcw:wincore.obj
 0001:00045885       _$E20                      00446885 f   nafxcw:wincore.obj
 0001:00048b39       $L193708                   00449b39 f   nafxcw:dlgcore.obj
 0001:00048cd6       $L193808                   00449cd6 f   nafxcw:dlgcore.obj
 0001:00049c99       $L185098                   0044ac99 f   nafxcw:arccore.obj
 0001:0004a01d       $L184613                   0044b01d f   nafxcw:arcex.obj
 0001:0004f609       _$E5                       00450609 f   nafxcw:except.obj
 0001:0004f626       _$E8                       00450626 f   nafxcw:except.obj
 0001:0004f643       _$E11                      00450643 f   nafxcw:except.obj
 0001:0004f660       _$E6                       00450660 f   nafxcw:except.obj
 0001:0004f66a       _$E9                       0045066a f   nafxcw:except.obj
 0001:0004f674       _$E12                      00450674 f   nafxcw:except.obj
 0001:0004f9b2       _$E5                       004509b2 f   nafxcw:auxdata.obj
 0001:0004f9c8       _$E6                       004509c8 f   nafxcw:auxdata.obj
 0001:0004fdb1       _$E5                       00450db1 f   nafxcw:afxstate.obj
 0001:0004fdbd       _$E8                       00450dbd f   nafxcw:afxstate.obj
 0001:0004fdc9       _$E6                       00450dc9 f   nafxcw:afxstate.obj
 0001:0004fdd3       _$E9                       00450dd3 f   nafxcw:afxstate.obj
 0001:0004fffc       $L184498                   00450ffc f   nafxcw:afxtls.obj
 0001:000506df       _$E5                       004516df f   nafxcw:array_b.obj
 0001:00050f7d       $L200227                   00451f7d f i nafxcw:wincore.obj
 0001:00051086       _$E5                       00452086 f   nafxcw:wingdi.obj
 0001:000510a3       _$E8                       004520a3 f   nafxcw:wingdi.obj
 0001:000510c0       _$E6                       004520c0 f   nafxcw:wingdi.obj
 0001:000510ca       _$E9                       004520ca f   nafxcw:wingdi.obj
 0001:00051117       ?_AfxLoadLangDLL@@YAPAUHINSTANCE__@@PBDK@Z 00452117 f   nafxcw:appcore.obj
 0001:000511a0       ?_AfxEnumResLangProc@@YGHPAUHINSTANCE__@@PBD1GJ@Z 004521a0 f   nafxcw:appcore.obj
 0001:00051b3f       _$E5                       00452b3f f   nafxcw:appcore.obj
 0001:00051b4b       _$E6                       00452b4b f   nafxcw:appcore.obj
 0001:00051b8c       _$E5                       00452b8c f   nafxcw:afxdbcs.obj
 0001:0005225a       $L185015                   0045325a f   nafxcw:appui2.obj
 0001:00054930       $L124636                   00455930 f   DPCoreClient.obj
 0001:0005493b       __ehhandler$?QueryTickCount@CDPCoreClient@@QAEXXZ 0045593b f   DPCoreClient.obj
 0001:00054950       $L124667                   00455950 f   DPCoreClient.obj
 0001:0005495b       __ehhandler$?SendPreJoin@CDPCoreClient@@QAEXKPBDK0@Z 0045595b f   DPCoreClient.obj
 0001:00054970       $L124695                   00455970 f   DPCoreClient.obj
 0001:0005497b       __ehhandler$?SendLeave@CDPCoreClient@@QAEXK@Z 0045597b f   DPCoreClient.obj
 0001:00054990       $L124955                   00455990 f   DPCoreClient.obj
 0001:00054998       __ehhandler$?OnPreJoin@CDPCoreClient@@AAEXAAVCAr@@@Z 00455998 f   DPCoreClient.obj
 0001:000549b0       $L125000                   004559b0 f   DPCoreClient.obj
 0001:000549b8       __ehhandler$?OnQueryRemovePlayer@CDPCoreClient@@AAEXAAVCAr@@@Z 004559b8 f   DPCoreClient.obj
 0001:000549d0       __ehhandler$?_Copy@?$basic_string@DU?$char_traits@D@std@@V?$allocator@D@2@@std@@IAEXII@Z 004559d0 f   DPCoreClient.obj
 0001:000549e0       $L126466                   004559e0 f   DPCoreClient.obj
 0001:000549eb       __ehhandler$?UserMessageHandler@CDPCoreClient@@UAEXPAUDPMSG_GENERIC@@KK@Z 004559eb f   DPCoreClient.obj
 0001:00054a00       $L127335                   00455a00 f   DPCoreClient.obj
 0001:00054a08       __ehhandler$??0logic_error@std@@QAE@ABV?$basic_string@DU?$char_traits@D@std@@V?$allocator@D@2@@1@@Z 00455a08 f   DPCoreClient.obj
 0001:00054a20       $L127664                   00455a20 f   DPCoreClient.obj
 0001:00054a28       __ehhandler$?_Insert@?$_Tree@V?$_Tmap_traits@KP8CDPCoreClient@@AEXAAVCAr@@@ZU?$less@K@std@@V?$allocator@U?$pair@$$CBKP8CDPCoreClient@@AEXAAVCAr@@@Z@std@@@4@$0A@@std@@@std@@IAE?AViterator@12@_NPAU_Node@?$_Tree_nod@V?$_Tmap_traits@KP8CDPCoreClient@@AEXAAVCAr@@@ZU?$less@K@std@@V?$allocator@U?$pair@$$CBKP8CDPCoreClient@@AEXAAVCAr@@@Z@std@@@4@$0A@@std@@@2@ABU?$pair@$$CBKP8CDPCoreClient@@AEXAAVCAr@@@Z@2@@Z 00455a28 f   DPCoreClient.obj
 0001:00054a40       $L128039                   00455a40 f   DPCoreClient.obj
 0001:00054a48       __ehhandler$??0logic_error@std@@QAE@ABV01@@Z 00455a48 f   DPCoreClient.obj
 0001:00054a60       $L128153                   00455a60 f   DPCoreClient.obj
 0001:00054a68       __ehhandler$?erase@?$_Tree@V?$_Tmap_traits@KP8CDPCoreClient@@AEXAAVCAr@@@ZU?$less@K@std@@V?$allocator@U?$pair@$$CBKP8CDPCoreClient@@AEXAAVCAr@@@Z@std@@@4@$0A@@std@@@std@@QAE?AViterator@12@V312@@Z 00455a68 f   DPCoreClient.obj
 0001:00054a80       $L129411                   00455a80 f   DPCoreClient.obj
 0001:00054a88       __ehhandler$??1CDPCoreClient@@UAE@XZ 00455a88 f   DPCoreClient.obj
 0001:00054aa0       $L129757                   00455aa0 f   DPCoreClient.obj
 0001:00054aa8       $L129758                   00455aa8 f   DPCoreClient.obj
 0001:00054ab3       __ehhandler$??0CDPCoreClient@@QAE@XZ 00455ab3 f   DPCoreClient.obj
 0001:00054ac0       $L126610                   00455ac0 f   DPDatabaseClient.obj
 0001:00054acb       __ehhandler$?SendGetPlayerList@CDPDatabaseClient@@QAEXKPBD0KK@Z 00455acb f   DPDatabaseClient.obj
 0001:00054ae0       $L126887                   00455ae0 f   DPDatabaseClient.obj
 0001:00054aeb       __ehhandler$?SendLeave@CDPDatabaseClient@@QAEXPBDKK@Z 00455aeb f   DPDatabaseClient.obj
 0001:00054b00       $L126923                   00455b00 f   DPDatabaseClient.obj
 0001:00054b0b       __ehhandler$?SendCloseError@CDPDatabaseClient@@QAEXPBD@Z 00455b0b f   DPDatabaseClient.obj
 0001:00054b20       $L126953                   00455b20 f   DPDatabaseClient.obj
 0001:00054b28       __ehhandler$?OnCloseExistingConnection@CDPDatabaseClient@@AAEXAAVCAr@@KPAEK@Z 00455b28 f   DPDatabaseClient.obj
 0001:00054b40       $L126989                   00455b40 f   DPDatabaseClient.obj
 0001:00054b48       __ehhandler$?OnOneHourNotify@CDPDatabaseClient@@AAEXAAVCAr@@KPAEK@Z 00455b48 f   DPDatabaseClient.obj
 0001:00054b60       $L127018                   00455b60 f   DPDatabaseClient.obj
 0001:00054b68       __ehhandler$?OnPlayerList@CDPDatabaseClient@@AAEXAAVCAr@@KPAEK@Z 00455b68 f   DPDatabaseClient.obj
 0001:00054b80       $L127055                   00455b80 f   DPDatabaseClient.obj
 0001:00054b88       __ehhandler$?OnFail@CDPDatabaseClient@@AAEXAAVCAr@@KPAEK@Z 00455b88 f   DPDatabaseClient.obj
 0001:00054ba0       $L127091                   00455ba0 f   DPDatabaseClient.obj
 0001:00054ba8       __ehhandler$?OnLoginProtect@CDPDatabaseClient@@AAEXAAVCAr@@KPAEK@Z 00455ba8 f   DPDatabaseClient.obj
 0001:00054bc0       $L127139                   00455bc0 f   DPDatabaseClient.obj
 0001:00054bcb       __ehhandler$?SendLoginProtect@CDPDatabaseClient@@QAEXPBD0KHK@Z 00455bcb f   DPDatabaseClient.obj
 0001:00054be0       $L128611                   00455be0 f   DPDatabaseClient.obj
 0001:00054beb       __ehhandler$?UserMessageHandler@CDPDatabaseClient@@UAEXPAUDPMSG_GENERIC@@KK@Z 00455beb f   DPDatabaseClient.obj
 0001:00054c00       $L129814                   00455c00 f   DPDatabaseClient.obj
 0001:00054c08       __ehhandler$?_Insert@?$_Tree@V?$_Tmap_traits@KP8CDPDatabaseClient@@AEXAAVCAr@@KPAEK@ZU?$less@K@std@@V?$allocator@U?$pair@$$CBKP8CDPDatabaseClient@@AEXAAVCAr@@KPAEK@Z@std@@@4@$0A@@std@@@std@@IAE?AViterator@12@_NPAU_Node@?$_Tree_nod@V?$_Tmap_traits@KP8CDPDatabaseClient@@AEXAAVCAr@@KPAEK@ZU?$less@K@std@@V?$allocator@U?$pair@$$CBKP8CDPDatabaseClient@@AEXAAVCAr@@KPAEK@Z@std@@@4@$0A@@std@@@2@ABU?$pair@$$CBKP8CDPDatabaseClient@@AEXAAVCAr@@KPAEK@Z@2@@Z 00455c08 f   DPDatabaseClient.obj
 0001:00054c20       $L130303                   00455c20 f   DPDatabaseClient.obj
 0001:00054c28       __ehhandler$?erase@?$_Tree@V?$_Tmap_traits@KP8CDPDatabaseClient@@AEXAAVCAr@@KPAEK@ZU?$less@K@std@@V?$allocator@U?$pair@$$CBKP8CDPDatabaseClient@@AEXAAVCAr@@KPAEK@Z@std@@@4@$0A@@std@@@std@@QAE?AViterator@12@V312@@Z 00455c28 f   DPDatabaseClient.obj
 0001:00054c40       $L131561                   00455c40 f   DPDatabaseClient.obj
 0001:00054c48       __ehhandler$??1CDPDatabaseClient@@UAE@XZ 00455c48 f   DPDatabaseClient.obj
 0001:00054c60       $L131913                   00455c60 f   DPDatabaseClient.obj
 0001:00054c68       $L131914                   00455c68 f   DPDatabaseClient.obj
 0001:00054c73       __ehhandler$??0CDPDatabaseClient@@QAE@XZ 00455c73 f   DPDatabaseClient.obj
 0001:00054c80       $L126629                   00455c80 f   DPLoginSrvr.obj
 0001:00054c8b       __ehhandler$?SendCacheAddr@CDPLoginSrvr@@QAEXHK@Z 00455c8b f   DPLoginSrvr.obj
 0001:00054ca0       $L126656                   00455ca0 f   DPLoginSrvr.obj
 0001:00054cab       __ehhandler$?SendError@CDPLoginSrvr@@QAEXJK@Z 00455cab f   DPLoginSrvr.obj
 0001:00054cc0       $L126679                   00455cc0 f   DPLoginSrvr.obj
 0001:00054ccb       __ehhandler$?SendHdr@CDPLoginSrvr@@QAEXKK@Z 00455ccb f   DPLoginSrvr.obj
 0001:00054ce0       $L126701                   00455ce0 f   DPLoginSrvr.obj
 0001:00054ceb       __ehhandler$?SendNumPadId@CDPLoginSrvr@@AAEXK@Z 00455ceb f   DPLoginSrvr.obj
 0001:00054d00       $L126988                   00455d00 f   DPLoginSrvr.obj
 0001:00054d0b       __ehhandler$?OnAddConnection@CDPLoginSrvr@@AAEXAAVCAr@@K@Z 00455d0b f   DPLoginSrvr.obj
 0001:00054d20       $L127055                   00455d20 f   DPLoginSrvr.obj
 0001:00054d2b       $L127056                   00455d2b f   DPLoginSrvr.obj
 0001:00054d36       __ehhandler$?OnPing@CDPLoginSrvr@@AAEXAAVCAr@@K@Z 00455d36 f   DPLoginSrvr.obj
 0001:00054d40       $L127103                   00455d40 f   DPLoginSrvr.obj
 0001:00054d48       __ehhandler$?OnAuthQuery@CDPLoginSrvr@@AAEXAAVCAr@@K@Z 00455d48 f   DPLoginSrvr.obj
 0001:00054d60       $L127134                   00455d60 f   DPLoginSrvr.obj
 0001:00054d6b       __ehhandler$?OnQueryTickCount@CDPLoginSrvr@@AAEXAAVCAr@@K@Z 00455d6b f   DPLoginSrvr.obj
 0001:00054d80       $L127172                   00455d80 f   DPLoginSrvr.obj
 0001:00054d8b       __ehhandler$?SendLoginProtect@CDPLoginSrvr@@QAEXHK@Z 00455d8b f   DPLoginSrvr.obj
 0001:00054da0       $L127580                   00455da0 f   DPLoginSrvr.obj
 0001:00054da8       __ehhandler$?OnPreJoin@CDPLoginSrvr@@AAEXAAVCAr@@K@Z 00455da8 f   DPLoginSrvr.obj
 0001:00054dc0       $L128758                   00455dc0 f   DPLoginSrvr.obj
 0001:00054dcb       __ehhandler$?UserMessageHandler@CDPLoginSrvr@@UAEXPAUDPMSG_GENERIC@@KK@Z 00455dcb f   DPLoginSrvr.obj
 0001:00054de0       $L129966                   00455de0 f   DPLoginSrvr.obj
 0001:00054de8       __ehhandler$?_Insert@?$_Tree@V?$_Tmap_traits@KP8CDPLoginSrvr@@AEXAAVCAr@@K@ZU?$less@K@std@@V?$allocator@U?$pair@$$CBKP8CDPLoginSrvr@@AEXAAVCAr@@K@Z@std@@@4@$0A@@std@@@std@@IAE?AViterator@12@_NPAU_Node@?$_Tree_nod@V?$_Tmap_traits@KP8CDPLoginSrvr@@AEXAAVCAr@@K@ZU?$less@K@std@@V?$allocator@U?$pair@$$CBKP8CDPLoginSrvr@@AEXAAVCAr@@K@Z@std@@@4@$0A@@std@@@2@ABU?$pair@$$CBKP8CDPLoginSrvr@@AEXAAVCAr@@K@Z@2@@Z 00455de8 f   DPLoginSrvr.obj
 0001:00054e00       $L130455                   00455e00 f   DPLoginSrvr.obj
 0001:00054e08       __ehhandler$?erase@?$_Tree@V?$_Tmap_traits@KP8CDPLoginSrvr@@AEXAAVCAr@@K@ZU?$less@K@std@@V?$allocator@U?$pair@$$CBKP8CDPLoginSrvr@@AEXAAVCAr@@K@Z@std@@@4@$0A@@std@@@std@@QAE?AViterator@12@V312@@Z 00455e08 f   DPLoginSrvr.obj
 0001:00054e20       $L130951                   00455e20 f   DPLoginSrvr.obj
 0001:00054e28       __ehhandler$?_Incsize@?$list@PAXV?$allocator@PAX@std@@@std@@IAEXI@Z 00455e28 f   DPLoginSrvr.obj
 0001:00054e40       $L131998                   00455e40 f   DPLoginSrvr.obj
 0001:00054e48       __ehhandler$??1CDPLoginSrvr@@UAE@XZ 00455e48 f   DPLoginSrvr.obj
 0001:00054e60       $L132361                   00455e60 f   DPLoginSrvr.obj
 0001:00054e68       $L132362                   00455e68 f   DPLoginSrvr.obj
 0001:00054e73       __ehhandler$??0CDPLoginSrvr@@QAE@XZ 00455e73 f   DPLoginSrvr.obj
 0001:00054e80       $L132612                   00455e80 f   DPLoginSrvr.obj
 0001:00054e8e       $L132613                   00455e8e f   DPLoginSrvr.obj
 0001:00054e99       __ehhandler$?SysMessageHandler@CDPLoginSrvr@@UAEXPAUDPMSG_GENERIC@@KK@Z 00455e99 f   DPLoginSrvr.obj
 0001:00054eb0       $L124168                   00455eb0 f   LoginProtect.obj
 0001:00054eb8       __ehhandler$?_Insert@?$_Tree@V?$_Tmap_traits@KULOGIN_CACHE@CLoginProtect@@U?$less@K@std@@V?$allocator@U?$pair@$$CBKULOGIN_CACHE@CLoginProtect@@@std@@@4@$0A@@std@@@std@@IAE?AViterator@12@_NPAU_Node@?$_Tree_nod@V?$_Tmap_traits@KULOGIN_CACHE@CLoginProtect@@U?$less@K@std@@V?$allocator@U?$pair@$$CBKULOGIN_CACHE@CLoginProtect@@@std@@@4@$0A@@std@@@2@ABU?$pair@$$CBKULOGIN_CACHE@CLoginProtect@@@2@@Z 00455eb8 f   LoginProtect.obj
 0001:00054ed0       $L124650                   00455ed0 f   LoginProtect.obj
 0001:00054ed8       __ehhandler$?_Insert@?$_Tree@V?$_Tmap_traits@KKU?$less@K@std@@V?$allocator@U?$pair@$$CBKK@std@@@2@$0A@@std@@@std@@IAE?AViterator@12@_NPAU_Node@?$_Tree_nod@V?$_Tmap_traits@KKU?$less@K@std@@V?$allocator@U?$pair@$$CBKK@std@@@2@$0A@@std@@@2@ABU?$pair@$$CBKK@2@@Z 00455ed8 f   LoginProtect.obj
 0001:00054ef0       $L125034                   00455ef0 f   LoginProtect.obj
 0001:00054ef8       __ehhandler$?erase@?$_Tree@V?$_Tmap_traits@KULOGIN_CACHE@CLoginProtect@@U?$less@K@std@@V?$allocator@U?$pair@$$CBKULOGIN_CACHE@CLoginProtect@@@std@@@4@$0A@@std@@@std@@QAE?AViterator@12@V312@@Z 00455ef8 f   LoginProtect.obj
 0001:00054f10       $L125534                   00455f10 f   LoginProtect.obj
 0001:00054f18       __ehhandler$?erase@?$_Tree@V?$_Tmap_traits@KKU?$less@K@std@@V?$allocator@U?$pair@$$CBKK@std@@@2@$0A@@std@@@std@@QAE?AViterator@12@V312@@Z 00455f18 f   LoginProtect.obj
 0001:00054f30       $L127559                   00455f30 f   LoginProtect.obj
 0001:00054f38       $L127560                   00455f38 f   LoginProtect.obj
 0001:00054f43       __ehhandler$??1CLoginProtect@@QAE@XZ 00455f43 f   LoginProtect.obj
 0001:00054f50       $L128369                   00455f50 f   LoginProtect.obj
 0001:00054f58       __ehhandler$??0CLoginProtect@@QAE@XZ 00455f58 f   LoginProtect.obj
 0001:00054f70       $L128806                   00455f70 f   LoginProtect.obj
 0001:00054f7e       __ehhandler$?GetInstance@CLoginProtect@@SAPAV1@XZ 00455f7e f   LoginProtect.obj
 0001:00054f90       $L127687                   00455f90 f   LoginServer.obj
 0001:00054f9b       __ehhandler$?Script@@YAHPBD@Z 00455f9b f   LoginServer.obj
 0001:00054fb0       $L128280                   00455fb0 f   LoginServer.obj
 0001:00054fb8       __ehhandler$??0?$CStringT@DV?$StrTraitMFC@DV?$ChTraitsCRT@D@ATL@@@@@ATL@@QAE@PBD@Z 00455fb8 f   LoginServer.obj
 0001:00054fd0       $L128379                   00455fd0 f   LoginServer.obj
 0001:00054fdb       __ehhandler$?InitInstance@@YAHPAUHINSTANCE__@@H@Z 00455fdb f   LoginServer.obj
 0001:00054ff0       $L117194                   00455ff0 f   StdAfx.obj
 0001:00054ff8       __ehhandler$?CompareStringWFake@ATL@@YGHKKPBGH0H@Z 00455ff8 f   StdAfx.obj
 0001:00055010       $L117357                   00456010 f   StdAfx.obj
 0001:0005501b       $L117358                   0045601b f   StdAfx.obj
 0001:00055026       __ehhandler$?GetEnvironmentVariableWFake@ATL@@YGKPBGPAGK@Z 00456026 f   StdAfx.obj
 0001:00055030       $L117465                   00456030 f   StdAfx.obj
 0001:0005503b       __ehhandler$?GetStringTypeExWFake@ATL@@YGHKKPBGHPAG@Z 0045603b f   StdAfx.obj
 0001:00055050       $L117732                   00456050 f   StdAfx.obj
 0001:00055058       $L117733                   00456058 f   StdAfx.obj
 0001:00055063       __ehhandler$?KillProcess@@YAHV?$CStringT@DV?$StrTraitMFC@DV?$ChTraitsCRT@D@ATL@@@@@ATL@@@Z 00456063 f   StdAfx.obj
 0001:00055070       $L128652                   00456070 f   User.obj
 0001:00055078       __ehhandler$?DestroyAbnormalPlayer@CUserMng@@QAEXXZ 00456078 f   User.obj
 0001:00055090       $L128776                   00456090 f   User.obj
 0001:0005509b       $L128777                   0045609b f   User.obj
 0001:000550a6       __ehhandler$?CheckAll@CUserMng@@QAEXXZ 004560a6 f   User.obj
 0001:000550b0       $L131861                   004560b0 f   User.obj
 0001:000550b8       __ehhandler$?GetUser@CUserMng@@QAEPAVCUser@@PBD@Z 004560b8 f   User.obj
 0001:000550d0       $L132104                   004560d0 f   User.obj
 0001:000550d8       __ehhandler$?erase@?$_Tree@V?$_Tmap_traits@KPAVCUser@@U?$less@K@std@@V?$allocator@U?$pair@$$CBKPAVCUser@@@std@@@3@$0A@@std@@@std@@QAE?AViterator@12@V312@@Z 004560d8 f   User.obj
 0001:000550f0       $L132705                   004560f0 f   User.obj
 0001:000550f8       __ehhandler$?_Insert@?$_Tree@V?$_Tmap_traits@KPAVCUser@@U?$less@K@std@@V?$allocator@U?$pair@$$CBKPAVCUser@@@std@@@3@$0A@@std@@@std@@IAE?AViterator@12@_NPAU_Node@?$_Tree_nod@V?$_Tmap_traits@KPAVCUser@@U?$less@K@std@@V?$allocator@U?$pair@$$CBKPAVCUser@@@std@@@3@$0A@@std@@@2@ABU?$pair@$$CBKPAVCUser@@@2@@Z 004560f8 f   User.obj
 0001:00055110       $L133947                   00456110 f   User.obj
 0001:00055118       __ehhandler$?erase@?$_Tree@V?$_Tmap_traits@V?$basic_string@DU?$char_traits@D@std@@V?$allocator@D@2@@std@@PAVCUser@@U?$less@V?$basic_string@DU?$char_traits@D@std@@V?$allocator@D@2@@std@@@2@V?$allocator@U?$pair@$$CBV?$basic_string@DU?$char_traits@D@std@@V?$allocator@D@2@@std@@PAVCUser@@@std@@@2@$0A@@std@@@std@@QAE?AViterator@12@V312@@Z 00456118 f   User.obj
 0001:00055130       $L134666                   00456130 f   User.obj
 0001:00055141       __ehhandler$?_Buynode@?$_Tree@V?$_Tmap_traits@V?$basic_string@DU?$char_traits@D@std@@V?$allocator@D@2@@std@@PAVCUser@@U?$less@V?$basic_string@DU?$char_traits@D@std@@V?$allocator@D@2@@std@@@2@V?$allocator@U?$pair@$$CBV?$basic_string@DU?$char_traits@D@std@@V?$allocator@D@2@@std@@PAVCUser@@@std@@@2@$0A@@std@@@std@@IAEPAU_Node@?$_Tree_nod@V?$_Tmap_traits@V?$basic_string@DU?$char_traits@D@std@@V?$allocator@D@2@@std@@PAVCUser@@U?$less@V?$basic_string@DU?$char_traits@D@std@@V?$allocator@D@2@@std@@@2@V?$allocator@U?$pair@$$CBV?$basic_string@DU?$char_traits@D@std@@V?$allocator@D@2@@std@@PAVCUser@@@std@@@2@$0A@@std@@@2@PAU342@00ABU?$pair@$$CBV?$basic_string@DU?$char_traits@D@std@@V?$allocator@D@2@@std@@PAVCUser@@@2@D@Z 00456141 f   User.obj
 0001:00055150       $L134713                   00456150 f   User.obj
 0001:00055158       __ehhandler$?AddUser@CUserMng@@QAEHKPAVCUser@@@Z 00456158 f   User.obj
 0001:00055170       $L135311                   00456170 f   User.obj
 0001:00055178       __ehhandler$?_Insert@?$_Tree@V?$_Tmap_traits@V?$basic_string@DU?$char_traits@D@std@@V?$allocator@D@2@@std@@PAVCUser@@U?$less@V?$basic_string@DU?$char_traits@D@std@@V?$allocator@D@2@@std@@@2@V?$allocator@U?$pair@$$CBV?$basic_string@DU?$char_traits@D@std@@V?$allocator@D@2@@std@@PAVCUser@@@std@@@2@$0A@@std@@@std@@IAE?AViterator@12@_NPAU_Node@?$_Tree_nod@V?$_Tmap_traits@V?$basic_string@DU?$char_traits@D@std@@V?$allocator@D@2@@std@@PAVCUser@@U?$less@V?$basic_string@DU?$char_traits@D@std@@V?$allocator@D@2@@std@@@2@V?$allocator@U?$pair@$$CBV?$basic_string@DU?$char_traits@D@std@@V?$allocator@D@2@@std@@PAVCUser@@@std@@@2@$0A@@std@@@2@ABU?$pair@$$CBV?$basic_string@DU?$char_traits@D@std@@V?$allocator@D@2@@std@@PAVCUser@@@2@@Z 00456178 f   User.obj
 0001:00055190       $L135933                   00456190 f   User.obj
 0001:00055198       __ehhandler$?Free@CUserMng@@QAEXXZ 00456198 f   User.obj
 0001:000551b0       $L137047                   004561b0 f   User.obj
 0001:000551bb       $L137048                   004561bb f   User.obj
 0001:000551c6       $L137049                   004561c6 f   User.obj
 0001:000551d1       __ehhandler$??1CUserMng@@UAE@XZ 004561d1 f   User.obj
 0001:000551e0       $L137385                   004561e0 f   User.obj
 0001:000551e8       $L137386                   004561e8 f   User.obj
 0001:000551f0       __ehhandler$?AddUser@CUserMng@@QAEHPBDPAVCUser@@@Z 004561f0 f   User.obj
 0001:00055200       $L137809                   00456200 f   User.obj
 0001:00055208       $L137810                   00456208 f   User.obj
 0001:00055210       __ehhandler$?RemoveUser@CUserMng@@QAEHK@Z 00456210 f   User.obj
 0001:00055220       $L138075                   00456220 f   User.obj
 0001:0005522b       __ehhandler$??0?$MemPooler@VCUser@@@@QAE@H@Z 0045622b f   User.obj
 0001:00055240       $L138339                   00456240 f   User.obj
 0001:0005524b       __ehhandler$??0CUserMng@@QAE@XZ 0045624b f   User.obj
 0001:00055260       $L138789                   00456260 f   User.obj
 0001:0005526b       __ehhandler$_$E1           0045626b f   User.obj
 0001:00055280       $L115868                   00456280 f   ar.obj
 0001:0005528b       __ehhandler$_$E1           0045628b f   ar.obj
 0001:000552a0       $L120938                   004562a0 f   dos2.obj
 0001:000552a8       __ehhandler$?_Insert@?$_Tree@V?$_Tmap_traits@KPAU_CONNECTIONREQUEST2@@U?$less@K@std@@V?$allocator@U?$pair@$$CBKPAU_CONNECTIONREQUEST2@@@std@@@3@$0A@@std@@@std@@IAE?AViterator@12@_NPAU_Node@?$_Tree_nod@V?$_Tmap_traits@KPAU_CONNECTIONREQUEST2@@U?$less@K@std@@V?$allocator@U?$pair@$$CBKPAU_CONNECTIONREQUEST2@@@std@@@3@$0A@@std@@@2@ABU?$pair@$$CBKPAU_CONNECTIONREQUEST2@@@2@@Z 004562a8 f   dos2.obj
 0001:000552c0       $L121427                   004562c0 f   dos2.obj
 0001:000552c8       __ehhandler$?erase@?$_Tree@V?$_Tmap_traits@KPAU_CONNECTIONREQUEST2@@U?$less@K@std@@V?$allocator@U?$pair@$$CBKPAU_CONNECTIONREQUEST2@@@std@@@3@$0A@@std@@@std@@QAE?AViterator@12@V312@@Z 004562c8 f   dos2.obj
 0001:000552e0       $L122979                   004562e0 f   dos2.obj
 0001:00055307       $L122980                   00456307 f   dos2.obj
 0001:00055312       __ehhandler$??1CDos2@@UAE@XZ 00456312 f   dos2.obj
 0001:00055320       $L123675                   00456320 f   dos2.obj
 0001:0005532b       __ehhandler$??0?$MemPooler@U_CONNECTIONREQUEST2@@@@QAE@H@Z 0045632b f   dos2.obj
 0001:00055340       $L123778                   00456340 f   dos2.obj
 0001:0005534b       $L123779                   0045634b f   dos2.obj
 0001:00055356       $L123780                   00456356 f   dos2.obj
 0001:00055361       __ehhandler$??0CDos2@@QAE@XZ 00456361 f   dos2.obj
 0001:00055370       $L118262                   00456370 f   buffer.obj
 0001:00055378       __ehhandler$?Clear@CBufferQueue@@QAEXH@Z 00456378 f   buffer.obj
 0001:00055390       $L118438                   00456390 f   buffer.obj
 0001:0005539b       __ehhandler$??1CBufferQueue@@UAE@XZ 0045639b f   buffer.obj
 0001:000553b0       $L120497                   004563b0 f   buffer.obj
 0001:000553bb       __ehhandler$??0?$MemPooler@VCBuffer@@@@QAE@H@Z 004563bb f   buffer.obj
 0001:000553d0       $L120596                   004563d0 f   buffer.obj
 0001:000553db       __ehhandler$??0?$MemPooler@VCBuffer2@@@@QAE@H@Z 004563db f   buffer.obj
 0001:000553f0       $L120722                   004563f0 f   buffer.obj
 0001:000553fb       $L120721                   004563fb f   buffer.obj
 0001:00055406       __ehhandler$?CreateBuffer@CBufferFactory@@QAEPAVCBuffer@@W4BUFFER_TYPE@@K@Z 00456406 f   buffer.obj
 0001:00055410       $L120820                   00456410 f   buffer.obj
 0001:0005541b       __ehhandler$_$E1           0045641b f   buffer.obj
 0001:00055430       $L120834                   00456430 f   buffer.obj
 0001:0005543b       __ehhandler$_$E3           0045643b f   buffer.obj
 0001:00055450       $L120848                   00456450 f   buffer.obj
 0001:0005545b       __ehhandler$_$E5           0045645b f   buffer.obj
 0001:00055470       $L118449                   00456470 f   clientsock.obj
 0001:00055478       $L118450                   00456478 f   clientsock.obj
 0001:00055483       $L118451                   00456483 f   clientsock.obj
 0001:0005548e       __ehhandler$??0CClientSock@@QAE@K@Z 0045648e f   clientsock.obj
 0001:000554a0       $L118478                   004564a0 f   clientsock.obj
 0001:000554a8       $L118479                   004564a8 f   clientsock.obj
 0001:000554b3       $L118480                   004564b3 f   clientsock.obj
 0001:000554be       __ehhandler$??1CClientSock@@UAE@XZ 004564be f   clientsock.obj
 0001:000554d0       $L118506                   004564d0 f   clientsock.obj
 0001:000554d8       $L118507                   004564d8 f   clientsock.obj
 0001:000554e0       __ehhandler$?Send@CClientSock@@UAEXPADKK@Z 004564e0 f   clientsock.obj
 0001:000554f0       $L118574                   004564f0 f   clientsock.obj
 0001:000554f8       __ehhandler$?SendRemnant@CClientSock@@QAEHK@Z 004564f8 f   clientsock.obj
 0001:00055510       $L120764                   00456510 f   clientsock.obj
 0001:0005551b       __ehhandler$??0?$MemPooler@VCClientSock@@@@QAE@H@Z 0045651b f   clientsock.obj
 0001:00055530       $L120865                   00456530 f   clientsock.obj
 0001:0005553b       __ehhandler$_$E1           0045653b f   clientsock.obj
 0001:00055550       $L118299                   00456550 f   clientsocke.obj
 0001:00055558       $L118300                   00456558 f   clientsocke.obj
 0001:00055563       __ehhandler$??0CClientSockE@@QAE@K@Z 00456563 f   clientsocke.obj
 0001:00055570       $L118474                   00456570 f   clientsocke.obj
 0001:00055578       __ehhandler$??1CClientSockE@@UAE@XZ 00456578 f   clientsocke.obj
 0001:00055590       $L118484                   00456590 f   clientsocke.obj
 0001:00055598       __ehhandler$?Send@CClientSockE@@UAEXPADKK@Z 00456598 f   clientsocke.obj
 0001:000555b0       $L118522                   004565b0 f   clientsocke.obj
 0001:000555b8       __ehhandler$?SendRemnant@CClientSockE@@QAEHK@Z 004565b8 f   clientsocke.obj
 0001:000555d0       $L120707                   004565d0 f   clientsocke.obj
 0001:000555db       __ehhandler$??0?$MemPooler@VCClientSockE@@@@QAE@H@Z 004565db f   clientsocke.obj
 0001:000555f0       $L120808                   004565f0 f   clientsocke.obj
 0001:000555fb       __ehhandler$_$E1           004565fb f   clientsocke.obj
 0001:00055610       $L121642                   00456610 f   dpmng.obj
 0001:0005561b       __ehhandler$?CreateDPObject@CDPMng@@QAEHH@Z 0045661b f   dpmng.obj
 0001:00055630       $L123946                   00456630 f   dpsock.obj
 0001:0005563b       $L123947                   0045663b f   dpsock.obj
 0001:00055646       __ehhandler$??0CDPSock@@QAE@XZ 00456646 f   dpsock.obj
 0001:00055650       $L124067                   00456650 f   dpsock.obj
 0001:0005565b       __ehhandler$?CreateServerE@CDPSock@@QAEHK@Z 0045665b f   dpsock.obj
 0001:00055670       $L124151                   00456670 f   dpsock.obj
 0001:0005567b       $L124152                   0045667b f   dpsock.obj
 0001:00055686       $L124153                   00456686 f   dpsock.obj
 0001:00055691       __ehhandler$??1CDPSock@@UAE@XZ 00456691 f   dpsock.obj
 0001:000556a0       $L125145                   004566a0 f   dpsock.obj
 0001:000556ab       __ehhandler$?CreateServer@CDPSock@@QAEHK@Z 004566ab f   dpsock.obj
 0001:000556c0       $L125195                   004566c0 f   dpsock.obj
 0001:000556cb       __ehhandler$?JoinToServer@CDPSock@@QAEHKK@Z 004566cb f   dpsock.obj
 0001:000556e0       $L125270                   004566e0 f   dpsock.obj
 0001:000556eb       __ehhandler$?JoinToServerE@CDPSock@@QAEHKK@Z 004566eb f   dpsock.obj
 0001:00055700       $L122162                   00456700 f   serversock.obj
 0001:00055708       __ehhandler$?Shutdown@CServerSock@@UAEHI@Z 00456708 f   serversock.obj
 0001:00055720       $L122210                   00456720 f   serversock.obj
 0001:00055728       __ehhandler$?GetPeerAddr@CServerSock@@UAEJKPAXPAK@Z 00456728 f   serversock.obj
 0001:00055740       $L122260                   00456740 f   serversock.obj
 0001:00055748       __ehhandler$?GetPeerAddr@CServerSock@@UAEKK@Z 00456748 f   serversock.obj
 0001:00055760       $L123296                   00456760 f   serversock.obj
 0001:00055768       $L123297                   00456768 f   serversock.obj
 0001:00055770       __ehhandler$?Send@CServerSock@@UAEXPADKK@Z 00456770 f   serversock.obj
 0001:00055780       $L123435                   00456780 f   serversock.obj
 0001:0005578b       __ehhandler$?ListenThread@@YGIPAX@Z 0045678b f   serversock.obj
 0001:000557a0       $L123916                   004567a0 f   serversock.obj
 0001:000557a8       __ehhandler$?CloseAllChild@CServerSock@@QAEXXZ 004567a8 f   serversock.obj
 0001:000557c0       $L125240                   004567c0 f   serversock.obj
 0001:000557c8       __ehhandler$?erase@?$_Tree@V?$_Tmap_traits@KPAVCClientSock@@U?$less@K@std@@V?$allocator@U?$pair@$$CBKPAVCClientSock@@@std@@@3@$0A@@std@@@std@@QAE?AViterator@12@V312@@Z 004567c8 f   serversock.obj
 0001:000557e0       $L125841                   004567e0 f   serversock.obj
 0001:000557e8       __ehhandler$?_Insert@?$_Tree@V?$_Tmap_traits@KPAVCClientSock@@U?$less@K@std@@V?$allocator@U?$pair@$$CBKPAVCClientSock@@@std@@@3@$0A@@std@@@std@@IAE?AViterator@12@_NPAU_Node@?$_Tree_nod@V?$_Tmap_traits@KPAVCClientSock@@U?$less@K@std@@V?$allocator@U?$pair@$$CBKPAVCClientSock@@@std@@@3@$0A@@std@@@2@ABU?$pair@$$CBKPAVCClientSock@@@2@@Z 004567e8 f   serversock.obj
 0001:00055800       $L126709                   00456800 f   serversock.obj
 0001:00055808       __ehhandler$?CloseChild@CServerSock@@QAEHI@Z 00456808 f   serversock.obj
 0001:00055820       $L127928                   00456820 f   serversock.obj
 0001:00055828       __ehhandler$??0CServerSock@@QAE@K@Z 00456828 f   serversock.obj
 0001:00055840       $L128265                   00456840 f   serversock.obj
 0001:00055848       $L128266                   00456848 f   serversock.obj
 0001:00055853       __ehhandler$??1CServerSock@@UAE@XZ 00456853 f   serversock.obj
 0001:00055860       $L128507                   00456860 f   serversock.obj
 0001:0005586b       __ehhandler$?AddChild@CServerSock@@QAEPAVCClientSock@@I@Z 0045686b f   serversock.obj
 0001:00055880       $L122435                   00456880 f   serversocke.obj
 0001:00055888       $L122436                   00456888 f   serversocke.obj
 0001:00055890       __ehhandler$?Send@CServerSockE@@UAEXPADKK@Z 00456890 f   serversocke.obj
 0001:000558a0       $L123000                   004568a0 f   serversocke.obj
 0001:000558a8       __ehhandler$?CloseAllChild@CServerSockE@@QAEXXZ 004568a8 f   serversocke.obj
 0001:000558c0       $L124325                   004568c0 f   serversocke.obj
 0001:000558c8       __ehhandler$?erase@?$_Tree@V?$_Tmap_traits@KPAVCClientSockE@@U?$less@K@std@@V?$allocator@U?$pair@$$CBKPAVCClientSockE@@@std@@@3@$0A@@std@@@std@@QAE?AViterator@12@V312@@Z 004568c8 f   serversocke.obj
 0001:000558e0       $L124926                   004568e0 f   serversocke.obj
 0001:000558e8       __ehhandler$?_Insert@?$_Tree@V?$_Tmap_traits@KPAVCClientSockE@@U?$less@K@std@@V?$allocator@U?$pair@$$CBKPAVCClientSockE@@@std@@@3@$0A@@std@@@std@@IAE?AViterator@12@_NPAU_Node@?$_Tree_nod@V?$_Tmap_traits@KPAVCClientSockE@@U?$less@K@std@@V?$allocator@U?$pair@$$CBKPAVCClientSockE@@@std@@@3@$0A@@std@@@2@ABU?$pair@$$CBKPAVCClientSockE@@@2@@Z 004568e8 f   serversocke.obj
 0001:00055900       $L125794                   00456900 f   serversocke.obj
 0001:00055908       __ehhandler$?CloseChild@CServerSockE@@QAEHI@Z 00456908 f   serversocke.obj
 0001:00055920       $L127013                   00456920 f   serversocke.obj
 0001:00055928       __ehhandler$??0CServerSockE@@QAE@K@Z 00456928 f   serversocke.obj
 0001:00055940       $L127352                   00456940 f   serversocke.obj
 0001:00055948       __ehhandler$??1CServerSockE@@UAE@XZ 00456948 f   serversocke.obj
 0001:00055960       $L127594                   00456960 f   serversocke.obj
 0001:0005596b       __ehhandler$?AddChild@CServerSockE@@QAEPAVCClientSockE@@I@Z 0045696b f   serversocke.obj
 0001:00055980       $L116035                   00456980 f   vUtil.obj
 0001:00055988       $L116036                   00456988 f   vUtil.obj
 0001:00055990       __ehhandler$?SetStrNull@@YAXAAV?$CStringT@DV?$StrTraitMFC@DV?$ChTraitsCRT@D@ATL@@@@@ATL@@H@Z 00456990 f   vUtil.obj
 0001:000559a0       $L115971                   004569a0 f   xutil.obj
 0001:000559a8       __ehhandler$?GetNumberFormatEx@@YA?AV?$CStringT@DV?$StrTraitMFC@DV?$ChTraitsCRT@D@ATL@@@@@ATL@@PBD@Z 004569a8 f   xutil.obj
 0001:000559c0       $L119960                   004569c0 f   scanner.obj
 0001:000559c8       __ehhandler$?GetToken@CScanner@@UAEHH@Z 004569c8 f   scanner.obj
 0001:000559e0       $L120164                   004569e0 f   scanner.obj
 0001:000559e8       $L120165                   004569e8 f   scanner.obj
 0001:000559f0       __ehhandler$?Load@CScanner@@QAEHPBDH@Z 004569f0 f   scanner.obj
 0001:00055a00       $L120270                   00456a00 f   scanner.obj
 0001:00055a08       $L120271                   00456a08 f   scanner.obj
 0001:00055a10       __ehhandler$?Load_FileIO@CScanner@@QAEHPBDH@Z 00456a10 f   scanner.obj
 0001:00055a35       $L185028                   00456a35 f   nafxcw:olemisc.obj
 0001:00055a3e       __ehhandler$?AfxThrowOleException@@YGXJ@Z 00456a3e f   nafxcw:olemisc.obj
 0001:00055a48       $L185509                   00456a48 f   nafxcw:olemisc.obj
 0001:00055a53       __ehhandler$?AfxMergeMenus@@YGPAUHMENU__@@PAU1@0PAJHH@Z 00456a53 f   nafxcw:olemisc.obj
 0001:00055a5d       $L184402                   00456a5d f   nafxcw:except.obj
 0001:00055a66       __ehhandler$?CreateObject@?$CThreadLocal@V_AFX_THREAD_STATE@@@@SGPAVCNoTrackObject@@XZ 00456a66 f   nafxcw:except.obj
 0001:00055a70       $L185932                   00456a70 f   nafxcw:strcore.obj
 0001:00055a7b       $L185933                   00456a7b f   nafxcw:strcore.obj
 0001:00055a86       __ehhandler$??$?5DV?$StrTraitMFC@DV?$ChTraitsCRT@D@ATL@@@@@@YGAAVCArchive@@AAV0@AAV?$CStringT@DV?$StrTraitMFC@DV?$ChTraitsCRT@D@ATL@@@@@ATL@@@Z 00456a86 f   nafxcw:strcore.obj
 0001:00055a90       $L186024                   00456a90 f   nafxcw:strcore.obj
 0001:00055a9b       $L186025                   00456a9b f   nafxcw:strcore.obj
 0001:00055aa6       __ehhandler$??$?5_WV?$StrTraitMFC@_WV?$ChTraitsCRT@_W@ATL@@@@@@YGAAVCArchive@@AAV0@AAV?$CStringT@_WV?$StrTraitMFC@_WV?$ChTraitsCRT@_W@ATL@@@@@ATL@@@Z 00456aa6 f   nafxcw:strcore.obj
 0001:00055ab0       __ehhandler$?CreateObject@CRuntimeClass@@QAEPAVCObject@@XZ 00456ab0 f   nafxcw:objcore.obj
 0001:00055aba       $L186790                   00456aba f   nafxcw:objcore.obj
 0001:00055ac2       __ehhandler$?CompareStringWFake@ATL@@YGHKKPB_WH0H@Z 00456ac2 f   nafxcw:objcore.obj
 0001:00055acc       $L186843                   00456acc f   nafxcw:objcore.obj
 0001:00055ad7       $L186844                   00456ad7 f   nafxcw:objcore.obj
 0001:00055ae2       __ehhandler$?GetEnvironmentVariableWFake@ATL@@YGKPB_WPA_WK@Z 00456ae2 f   nafxcw:objcore.obj
 0001:00055aec       $L186918                   00456aec f   nafxcw:objcore.obj
 0001:00055af7       __ehhandler$?GetStringTypeExWFake@ATL@@YGHKKPB_WHPAG@Z 00456af7 f   nafxcw:objcore.obj
 0001:00055b01       $L184471                   00456b01 f   nafxcw:afxstate.obj
 0001:00055b0f       __ehhandler$??1AFX_MODULE_STATE@@UAE@XZ 00456b0f f   nafxcw:afxstate.obj
 0001:00055b19       $L184546                   00456b19 f   nafxcw:appui1.obj
 0001:00055b21       __ehhandler$?AfxMessageBox@@YGHIII@Z 00456b21 f   nafxcw:appui1.obj
 0001:00055b2b       __ehhandler$?GetData@CProcessLocalObject@@QAEPAVCNoTrackObject@@P6GPAV2@XZ@Z 00456b2b f   nafxcw:afxtls.obj
 0001:00055b35       $L184710                   00456b35 f   nafxcw:afxtls.obj
 0001:00055b45       __ehhandler$?GetData@CThreadLocalObject@@QAEPAVCNoTrackObject@@P6GPAV2@XZ@Z 00456b45 f   nafxcw:afxtls.obj
 0001:00055b4f       __ehhandler$?_AfxCompareSafeArrays@@YGHPAUtagSAFEARRAY@@0@Z 00456b4f f   nafxcw:olevar.obj
 0001:00055b59       $L186172                   00456b59 f   nafxcw:olevar.obj
 0001:00055b61       __ehhandler$??4COleCurrency@@QAEABV0@ABUtagVARIANT@@@Z 00456b61 f   nafxcw:olevar.obj
 0001:00055b6b       $L186616                   00456b6b f   nafxcw:olevar.obj
 0001:00055b73       __ehhandler$??6@YGAAVCArchive@@AAV0@VCComBSTR@ATL@@@Z 00456b73 f   nafxcw:olevar.obj
 0001:00055b7d       __ehhandler$?Create@COleSafeArray@@QAEXGKPAK@Z 00456b7d f   nafxcw:olevar.obj
 0001:00055b87       $L187040                   00456b87 f   nafxcw:olevar.obj
 0001:00055b8f       __ehhandler$??6@YGAAVCArchive@@AAV0@VCOleVariant@@@Z 00456b8f f   nafxcw:olevar.obj
 0001:00055b99       __ehhandler$??5@YGAAVCArchive@@AAV0@AAVCOleVariant@@@Z 00456b99 f   nafxcw:olevar.obj
 0001:00055ba3       $L187236                   00456ba3 f   nafxcw:olevar.obj
 0001:00055bab       __ehhandler$?DDX_Text@@YGXPAVCDataExchange@@HAAUtagDEC@@@Z 00456bab f   nafxcw:olevar.obj
 0001:00055bb5       $L187302                   00456bb5 f   nafxcw:olevar.obj
 0001:00055bc0       __ehhandler$?DDX_Text@@YGXPAVCDataExchange@@HAAU_GUID@@@Z 00456bc0 f   nafxcw:olevar.obj
 0001:00055bca       $L187397                   00456bca f   nafxcw:olevar.obj
 0001:00055bd2       __ehhandler$??0?$CStringT@DV?$StrTraitMFC@DV?$ChTraitsCRT@D@ATL@@@@@ATL@@QAE@PB_W@Z 00456bd2 f   nafxcw:olevar.obj
 0001:00055bdc       $L187445                   00456bdc f   nafxcw:olevar.obj
 0001:00055be4       __ehhandler$?ParseCurrency@COleCurrency@@QAEHPBDKK@Z 00456be4 f   nafxcw:olevar.obj
 0001:00055bee       $L187527                   00456bee f   nafxcw:olevar.obj
 0001:00055bf6       $L187531                   00456bf6 f   nafxcw:olevar.obj
 0001:00055bfe       __ehhandler$?Format@COleCurrency@@QBE?AV?$CStringT@DV?$StrTraitMFC@DV?$ChTraitsCRT@D@ATL@@@@@ATL@@KK@Z 00456bfe f   nafxcw:olevar.obj
 0001:00055c08       $L187650                   00456c08 f   nafxcw:olevar.obj
 0001:00055c10       $L187651                   00456c10 f   nafxcw:olevar.obj
 0001:00055c18       __ehhandler$?DDX_Text@@YGXPAVCDataExchange@@HAAVCOleCurrency@@@Z 00456c18 f   nafxcw:olevar.obj
 0001:00055c22       $L187735                   00456c22 f   nafxcw:olevar.obj
 0001:00055c2a       $L187736                   00456c2a f   nafxcw:olevar.obj
 0001:00055c32       $L187737                   00456c32 f   nafxcw:olevar.obj
 0001:00055c3a       $L187738                   00456c3a f   nafxcw:olevar.obj
 0001:00055c42       __ehhandler$?Format@COleDateTime@ATL@@QBE?AV?$CStringT@DV?$StrTraitMFC@DV?$ChTraitsCRT@D@ATL@@@@@2@KK@Z 00456c42 f   nafxcw:olevar.obj
 0001:00055c4c       $L187938                   00456c4c f   nafxcw:olevar.obj
 0001:00055c54       $L187939                   00456c54 f   nafxcw:olevar.obj
 0001:00055c5c       __ehhandler$?DDX_Text@@YGXPAVCDataExchange@@HAAVCOleDateTime@ATL@@@Z 00456c5c f   nafxcw:olevar.obj
 0001:00055c66       $L188020                   00456c66 f   nafxcw:olevar.obj
 0001:00055c6e       $L188021                   00456c6e f   nafxcw:olevar.obj
 0001:00055c76       __ehhandler$?DDX_Text@@YGXPAVCDataExchange@@HAAU_FILETIME@@@Z 00456c76 f   nafxcw:olevar.obj
 0001:00055c80       $L185040                   00456c80 f   nafxcw:arccore.obj
 0001:00055c88       __ehhandler$?FromName@CRuntimeClass@@SGPAU1@PB_W@Z 00456c88 f   nafxcw:arccore.obj
 0001:00055c92       __ehhandler$?ReadString@CArchive@@QAEPADPADI@Z 00456c92 f   nafxcw:arccore.obj
 0001:00055c9c       $L185154                   00456c9c f   nafxcw:arccore.obj
 0001:00055ca7       __ehhandler$??1CArchive@@QAE@XZ 00456ca7 f   nafxcw:arccore.obj
 0001:00055cb1       $L185271                   00456cb1 f   nafxcw:arccore.obj
 0001:00055cbc       $L185272                   00456cbc f   nafxcw:arccore.obj
 0001:00055cc4       __ehhandler$??0CArchive@@QAE@PAVCFile@@IHPAX@Z 00456cc4 f   nafxcw:arccore.obj
 0001:00055cce       $L184614                   00456cce f   nafxcw:arcex.obj
 0001:00055cd6       $L184615                   00456cd6 f   nafxcw:arcex.obj
 0001:00055cde       __ehhandler$?GetErrorMessage@CArchiveException@@UAEHPADIPAI@Z 00456cde f   nafxcw:arcex.obj
 0001:00055ce8       $L184735                   00456ce8 f   nafxcw:arcex.obj
 0001:00055cf3       __ehhandler$??0CArchiveException@@QAE@HPBD@Z 00456cf3 f   nafxcw:arcex.obj
 0001:00055cfd       $L184797                   00456cfd f   nafxcw:arcex.obj
 0001:00055d06       __ehhandler$?AfxThrowArchiveException@@YGXHPBD@Z 00456d06 f   nafxcw:arcex.obj
 0001:00055d10       __ehhandler$?AfxTermThread@@YGXPAUHINSTANCE__@@@Z 00456d10 f   nafxcw:thrdcore.obj
 0001:00055d1a       $L185052                   00456d1a f   nafxcw:thrdcore.obj
 0001:00055d22       __ehhandler$??1CWinThread@@UAE@XZ 00456d22 f   nafxcw:thrdcore.obj
 0001:00055d2c       $L185251                   00456d2c f   nafxcw:thrdcore.obj
 0001:00055d34       __ehhandler$??0CWinThread@@QAE@P6AIPAX@Z0@Z 00456d34 f   nafxcw:thrdcore.obj
 0001:00055d3e       $L185266                   00456d3e f   nafxcw:thrdcore.obj
 0001:00055d46       __ehhandler$??0CWinThread@@QAE@XZ 00456d46 f   nafxcw:thrdcore.obj
 0001:00055d50       $L185421                   00456d50 f   nafxcw:thrdcore.obj
 0001:00055d58       __ehhandler$?_AfxThreadEntry@@YGIPAX@Z 00456d58 f   nafxcw:thrdcore.obj
 0001:00055d62       $L185465                   00456d62 f   nafxcw:thrdcore.obj
 0001:00055d6b       __ehhandler$?AfxBeginThread@@YGPAVCWinThread@@P6AIPAX@Z0HIKPAU_SECURITY_ATTRIBUTES@@@Z 00456d6b f   nafxcw:thrdcore.obj
 0001:00055d75       __ehhandler$?Read@CArchiveStream@@UAGJPAXKPAK@Z 00456d75 f   nafxcw:arcstrm.obj
 0001:00055d7f       __ehhandler$?Write@CArchiveStream@@UAGJPBXKPAK@Z 00456d7f f   nafxcw:arcstrm.obj
 0001:00055d89       __ehhandler$?Seek@CArchiveStream@@UAGJT_LARGE_INTEGER@@KPAT_ULARGE_INTEGER@@@Z 00456d89 f   nafxcw:arcstrm.obj
 0001:00055d93       $L193615                   00456d93 f   nafxcw:dlgdata.obj
 0001:00055d9e       __ehhandler$?_AfxFailMinMaxWithFormat@@YGXPAVCDataExchange@@_J1PBDI@Z 00456d9e f   nafxcw:dlgdata.obj
 0001:00055da8       $L193705                   00456da8 f   nafxcw:dlgdata.obj
 0001:00055db0       __ehhandler$?DDV_MaxChars@@YGXPAVCDataExchange@@ABV?$CStringT@DV?$StrTraitMFC@DV?$ChTraitsCRT@D@ATL@@@@@ATL@@H@Z 00456db0 f   nafxcw:dlgdata.obj
 0001:00055dba       $L193778                   00456dba f   nafxcw:dlgdata.obj
 0001:00055dc2       __ehhandler$?AfxFailMaxChars@@YGXPAVCDataExchange@@H@Z 00456dc2 f   nafxcw:dlgdata.obj
 0001:00055dcc       $L193841                   00456dcc f   nafxcw:dlgdata.obj
 0001:00055dd4       __ehhandler$?AfxFailRadio@@YGXPAVCDataExchange@@@Z 00456dd4 f   nafxcw:dlgdata.obj
 0001:00055dde       $L194586                   00456dde f   nafxcw:winocc.obj
 0001:00055de6       __ehhandler$?GetWindowTextA@CWnd@@QBEHPADH@Z 00456de6 f   nafxcw:winocc.obj
 0001:00055df0       $L194653                   00456df0 f   nafxcw:winocc.obj
 0001:00055df8       __ehhandler$?GetWindowTextLengthA@CWnd@@QBEHXZ 00456df8 f   nafxcw:winocc.obj
 0001:00055e02       $L184453                   00456e02 f   nafxcw:apphelp.obj
 0001:00055e0a       __ehhandler$?AfxFormatStrings@@YGXAAV?$CStringT@DV?$StrTraitMFC@DV?$ChTraitsCRT@D@ATL@@@@@ATL@@IPBQBDH@Z 00456e0a f   nafxcw:apphelp.obj
 0001:00055e14       $L184234                   00456e14 f   nafxcw:winhand.obj
 0001:00055e1f       $L184235                   00456e1f f   nafxcw:winhand.obj
 0001:00055e2a       $L184236                   00456e2a f   nafxcw:winhand.obj
 0001:00055e35       __ehhandler$??0CHandleMap@@QAE@PAUCRuntimeClass@@P6GXPAVCObject@@@Z2IH@Z 00456e35 f   nafxcw:winhand.obj
 0001:00055e3f       __ehhandler$?FromHandle@CHandleMap@@QAEPAVCObject@@PAX@Z 00456e3f f   nafxcw:winhand.obj
 0001:00055e49       $L184321                   00456e49 f   nafxcw:winhand.obj
 0001:00055e54       $L184322                   00456e54 f   nafxcw:winhand.obj
 0001:00055e5f       $L184323                   00456e5f f   nafxcw:winhand.obj
 0001:00055e6a       __ehhandler$??1CHandleMap@@UAE@XZ 00456e6a f   nafxcw:winhand.obj
 0001:00055e74       __ehhandler$?AfxRegisterClass@@YGHPAUtagWNDCLASSA@@@Z 00456e74 f   nafxcw:wincore.obj
 0001:00055e7e       __ehhandler$?UpdateData@CWnd@@QAEHH@Z 00456e7e f   nafxcw:wincore.obj
 0001:00055e88       $L198839                   00456e88 f   nafxcw:wincore.obj
 0001:00055e91       __ehhandler$?CreateObject@CWnd@@SGPAVCObject@@XZ 00456e91 f   nafxcw:wincore.obj
 0001:00055e9b       $L198865                   00456e9b f   nafxcw:wincore.obj
 0001:00055ea7       __ehhandler$?Construct@?$ConstructDestruct@VCWnd@@@@SGXPAVCObject@@@Z 00456ea7 f   nafxcw:wincore.obj
 0001:00055eb1       $L199024                   00456eb1 f   nafxcw:wincore.obj
 0001:00055ebb       __ehhandler$?afxMapHWND@@YGPAVCHandleMap@@H@Z 00456ebb f   nafxcw:wincore.obj
 0001:00055ec5       $L199218                   00456ec5 f   nafxcw:wincore.obj
 0001:00055ecd       __ehhandler$?OnPaint@CWnd@@IAEXXZ 00456ecd f   nafxcw:wincore.obj
 0001:00055ed7       __ehhandler$?AfxCallWndProc@@YGJPAVCWnd@@PAUHWND__@@IIJ@Z 00456ed7 f   nafxcw:wincore.obj
 0001:00055ee1       $L199515                   00456ee1 f   nafxcw:wincore.obj
 0001:00055ee9       __ehhandler$??1CWnd@@UAE@XZ 00456ee9 f   nafxcw:wincore.obj
 0001:00055ef3       $L199592                   00456ef3 f   nafxcw:wincore.obj
 0001:00055efb       __ehhandler$?ReflectLastMsg@CWnd@@KGHPAUHWND__@@PAJ@Z 00456efb f   nafxcw:wincore.obj
 0001:00055f05       $L199667                   00456f05 f   nafxcw:wincore.obj
 0001:00055f10       __ehhandler$?UpdateDialogControls@CWnd@@QAEXPAVCCmdTarget@@H@Z 00456f10 f   nafxcw:wincore.obj
 0001:00055f1a       $L200078                   00456f1a f   nafxcw:wincore.obj
 0001:00055f22       $L200079                   00456f22 f   nafxcw:wincore.obj
 0001:00055f2a       __ehhandler$?GetAccessibleName@CWnd@@QAEJUtagVARIANT@@PAPA_W@Z 00456f2a f   nafxcw:wincore.obj
 0001:00055f34       $L200228                   00456f34 f   nafxcw:wincore.obj
 0001:00055f3e       __ehhandler$?CreateInstance@?$CMFCComObject@VCAccessibleProxy@ATL@@@@SGJPAPAV1@@Z 00456f3e f   nafxcw:wincore.obj
 0001:00055f48       __ehhandler$?_AfxActivationWndProc@@YGJPAUHWND__@@IIJ@Z 00456f48 f   nafxcw:wincore.obj
 0001:00055f52       $L200372                   00456f52 f   nafxcw:wincore.obj
 0001:00055f5a       $L200373                   00456f5a f   nafxcw:wincore.obj
 0001:00055f62       $L200374                   00456f62 f   nafxcw:wincore.obj
 0001:00055f6a       __ehhandler$?OnWndMsg@CWnd@@MAEHIIJPAJ@Z 00456f6a f   nafxcw:wincore.obj
 0001:00055f74       $L200435                   00456f74 f   nafxcw:wincore.obj
 0001:00055f7c       __ehhandler$?CreateAccessibleProxy@CWnd@@UAEJIJPAJ@Z 00456f7c f   nafxcw:wincore.obj
 0001:00055f86       $L200488                   00456f86 f   nafxcw:wincore.obj
 0001:00055f8e       __ehhandler$?WinHelpA@CWnd@@UAEXKI@Z 00456f8e f   nafxcw:wincore.obj
 0001:00055f98       $L200518                   00456f98 f   nafxcw:wincore.obj
 0001:00055fa0       __ehhandler$?HtmlHelpA@CWnd@@UAEXKI@Z 00456fa0 f   nafxcw:wincore.obj
 0001:00055faa       $L184344                   00456faa f   nafxcw:arcobj.obj
 0001:00055fb3       $L184345                   00456fb3 f   nafxcw:arcobj.obj
 0001:00055fbc       __ehhandler$?MapObject@CArchive@@QAEXPBVCObject@@@Z 00456fbc f   nafxcw:arcobj.obj
 0001:00055fc6       $L184453                   00456fc6 f   nafxcw:arcobj.obj
 0001:00055fcf       __ehhandler$?ReadClass@CArchive@@QAEPAUCRuntimeClass@@PBU2@PAIPAK@Z 00456fcf f   nafxcw:arcobj.obj
 0001:00055fd9       $L186206                   00456fd9 f   nafxcw:wingdi.obj
 0001:00055fe3       __ehhandler$?afxMapHDC@@YGPAVCHandleMap@@H@Z 00456fe3 f   nafxcw:wingdi.obj
 0001:00055fed       $L186246                   00456fed f   nafxcw:wingdi.obj
 0001:00055ff5       __ehhandler$??0CClientDC@@QAE@PAVCWnd@@@Z 00456ff5 f   nafxcw:wingdi.obj
 0001:00055fff       $L186267                   00456fff f   nafxcw:wingdi.obj
 0001:00056007       __ehhandler$??1CClientDC@@UAE@XZ 00457007 f   nafxcw:wingdi.obj
 0001:00056011       $L186276                   00457011 f   nafxcw:wingdi.obj
 0001:00056019       __ehhandler$??0CWindowDC@@QAE@PAVCWnd@@@Z 00457019 f   nafxcw:wingdi.obj
 0001:00056023       $L186297                   00457023 f   nafxcw:wingdi.obj
 0001:0005602b       __ehhandler$??1CWindowDC@@UAE@XZ 0045702b f   nafxcw:wingdi.obj
 0001:00056035       $L186306                   00457035 f   nafxcw:wingdi.obj
 0001:0005603d       __ehhandler$??0CPaintDC@@QAE@PAVCWnd@@@Z 0045703d f   nafxcw:wingdi.obj
 0001:00056047       $L186320                   00457047 f   nafxcw:wingdi.obj
 0001:0005604f       __ehhandler$??1CPaintDC@@UAE@XZ 0045704f f   nafxcw:wingdi.obj
 0001:00056059       $L186333                   00457059 f   nafxcw:wingdi.obj
 0001:00056063       __ehhandler$?afxMapHGDIOBJ@@YGPAVCHandleMap@@H@Z 00457063 f   nafxcw:wingdi.obj
 0001:0005606d       $L186550                   0045706d f   nafxcw:wingdi.obj
 0001:00056075       __ehhandler$??0CPen@@QAE@HHK@Z 00457075 f   nafxcw:wingdi.obj
 0001:0005607f       $L186564                   0045707f f   nafxcw:wingdi.obj
 0001:00056087       __ehhandler$??0CPen@@QAE@HHPBUtagLOGBRUSH@@HPBK@Z 00457087 f   nafxcw:wingdi.obj
 0001:00056091       $L186578                   00457091 f   nafxcw:wingdi.obj
 0001:00056099       __ehhandler$??0CBrush@@QAE@K@Z 00457099 f   nafxcw:wingdi.obj
 0001:000560a3       $L186592                   004570a3 f   nafxcw:wingdi.obj
 0001:000560ab       __ehhandler$??0CBrush@@QAE@HK@Z 004570ab f   nafxcw:wingdi.obj
 0001:000560b5       $L186606                   004570b5 f   nafxcw:wingdi.obj
 0001:000560bd       __ehhandler$??0CBrush@@QAE@PAVCBitmap@@@Z 004570bd f   nafxcw:wingdi.obj
 0001:000560c7       $L186666                   004570c7 f   nafxcw:wingdi.obj
 0001:000560cf       $L186667                   004570cf f   nafxcw:wingdi.obj
 0001:000560d7       $L186668                   004570d7 f   nafxcw:wingdi.obj
 0001:000560df       $L186669                   004570df f   nafxcw:wingdi.obj
 0001:000560e7       $L186670                   004570e7 f   nafxcw:wingdi.obj
 0001:000560ef       __ehhandler$?AfxGetGrayBitmap@@YGXABVCBitmap@@PAV1@K@Z 004570ef f   nafxcw:wingdi.obj
 0001:000560f9       $L186965                   004570f9 f   nafxcw:wingdi.obj
 0001:00056101       $L186966                   00457101 f   nafxcw:wingdi.obj
 0001:00056109       $L186967                   00457109 f   nafxcw:wingdi.obj
 0001:00056111       $L186968                   00457111 f   nafxcw:wingdi.obj
 0001:00056119       $L186969                   00457119 f   nafxcw:wingdi.obj
 0001:00056121       __ehhandler$?AfxDrawGrayBitmap@@YGXPAVCDC@@HHABVCBitmap@@K@Z 00457121 f   nafxcw:wingdi.obj
 0001:0005612b       $L187175                   0045712b f   nafxcw:wingdi.obj
 0001:00056133       $L187176                   00457133 f   nafxcw:wingdi.obj
 0001:0005613b       $L187177                   0045713b f   nafxcw:wingdi.obj
 0001:00056143       $L187178                   00457143 f   nafxcw:wingdi.obj
 0001:0005614b       $L187179                   0045714b f   nafxcw:wingdi.obj
 0001:00056153       __ehhandler$?AfxGetDitheredBitmap@@YGXABVCBitmap@@PAV1@KK@Z 00457153 f   nafxcw:wingdi.obj
 0001:0005615d       $L187525                   0045715d f   nafxcw:wingdi.obj
 0001:00056165       $L187526                   00457165 f   nafxcw:wingdi.obj
 0001:0005616d       $L187527                   0045716d f   nafxcw:wingdi.obj
 0001:00056175       $L187528                   00457175 f   nafxcw:wingdi.obj
 0001:0005617d       __ehhandler$?AfxDrawDitheredBitmap@@YGXPAVCDC@@HHABVCBitmap@@KK@Z 0045717d f   nafxcw:wingdi.obj
 0001:00056187       __ehhandler$?Alloc@CFixedAlloc@@QAEPAXXZ 00457187 f   nafxcw:fixalloc.obj
 0001:00056191       $L184810                   00457191 f   nafxcw:winmenu.obj
 0001:0005619b       __ehhandler$?afxMapHMENU@@YGPAVCHandleMap@@H@Z 0045719b f   nafxcw:winmenu.obj
 0001:000561a5       $L184916                   004571a5 f   nafxcw:winmenu.obj
 0001:000561b0       $L184917                   004571b0 f   nafxcw:winmenu.obj
 0001:000561be       __ehhandler$??0CChevronOwnerDrawMenu@@QAE@XZ 004571be f   nafxcw:winmenu.obj
 0001:000561c8       $L184966                   004571c8 f   nafxcw:winmenu.obj
 0001:000561d0       __ehhandler$??1CChevronOwnerDrawMenu@@UAE@XZ 004571d0 f   nafxcw:winmenu.obj
 0001:000561da       $L185004                   004571da f   nafxcw:winmenu.obj
 0001:000561e2       $L185005                   004571e2 f   nafxcw:winmenu.obj
 0001:000561ea       $L185006                   004571ea f   nafxcw:winmenu.obj
 0001:000561f2       __ehhandler$?DrawItem@CChevronOwnerDrawMenu@@UAEXPAUtagDRAWITEMSTRUCT@@@Z 004571f2 f   nafxcw:winmenu.obj
 0001:000561fc       $L185279                   004571fc f   nafxcw:winmenu.obj
 0001:00056204       $L185280                   00457204 f   nafxcw:winmenu.obj
 0001:0005620c       __ehhandler$?MeasureItem@CChevronOwnerDrawMenu@@UAEXPAUtagMEASUREITEMSTRUCT@@@Z 0045720c f   nafxcw:winmenu.obj
 0001:00056216       $L184858                   00457216 f   nafxcw:appcore.obj
 0001:00056220       __ehhandler$?LoadStdProfileSettings@CWinApp@@IAEXI@Z 00457220 f   nafxcw:appcore.obj
 0001:0005622a       $L184902                   0045722a f   nafxcw:appcore.obj
 0001:00056232       __ehhandler$??1CWinApp@@UAE@XZ 00457232 f   nafxcw:appcore.obj
 0001:0005623c       $L185271                   0045723c f   nafxcw:appcore.obj
 0001:00056244       __ehhandler$??0CWinApp@@QAE@PBD@Z 00457244 f   nafxcw:appcore.obj
 0001:0005624e       $L184482                   0045724e f   nafxcw:wingdix.obj
 0001:00056256       $L184483                   00457256 f   nafxcw:wingdix.obj
 0001:0005625e       $L184484                   0045725e f   nafxcw:wingdix.obj
 0001:00056266       $L184485                   00457266 f   nafxcw:wingdix.obj
 0001:0005626e       $L184486                   0045726e f   nafxcw:wingdix.obj
 0001:00056276       __ehhandler$?DrawDragRect@CDC@@QAEXPBUtagRECT@@UtagSIZE@@01PAVCBrush@@2@Z 00457276 f   nafxcw:wingdix.obj
 0001:00056280       $L184849                   00457280 f   nafxcw:appui3.obj
 0001:0005628b       __ehhandler$?GetProfileStringA@CWinApp@@QAE?AV?$CStringT@DV?$StrTraitMFC@DV?$ChTraitsCRT@D@ATL@@@@@ATL@@PBD00@Z 0045728b f   nafxcw:appui3.obj
 0001:00056295       $L184947                   00457295 f   nafxcw:appui3.obj
 0001:0005629d       __ehhandler$?GetProfileBinary@CWinApp@@QAEHPBD0PAPAEPAI@Z 0045729d f   nafxcw:appui3.obj
 0001:000562a7       $L185049                   004572a7 f   nafxcw:filelist.obj
 0001:000562af       __ehhandler$??HATL@@YA?AV?$CStringT@DV?$StrTraitMFC@DV?$ChTraitsCRT@D@ATL@@@@@0@ABV10@0@Z 004572af f   nafxcw:filelist.obj
 0001:000562b9       $L185169                   004572b9 f   nafxcw:filelist.obj
 0001:000562c1       __ehhandler$?ReadList@CRecentFileList@@UAEXXZ 004572c1 f   nafxcw:filelist.obj
 0001:000562cb       $L185232                   004572cb f   nafxcw:filelist.obj
 0001:000562d6       $L185233                   004572d6 f   nafxcw:filelist.obj
 0001:000562e1       $L185234                   004572e1 f   nafxcw:filelist.obj
 0001:000562ec       __ehhandler$??0CRecentFileList@@QAE@IPBD0HH@Z 004572ec f   nafxcw:filelist.obj
 0001:000562f6       $L185317                   004572f6 f   nafxcw:filelist.obj
 0001:00056301       $L185318                   00457301 f   nafxcw:filelist.obj
 0001:0005630c       $L185319                   0045730c f   nafxcw:filelist.obj
 0001:00056317       __ehhandler$?UpdateMenu@CRecentFileList@@UAEXPAVCCmdUI@@@Z 00457317 f   nafxcw:filelist.obj
 0001:00056321       $L184559                   00457321 f   nafxcw:appui2.obj
 0001:0005632a       $L184558                   0045732a f   nafxcw:appui2.obj
 0001:00056333       __ehhandler$?ProcessShellCommand@CWinApp@@QAEHAAVCCommandLineInfo@@@Z 00457333 f   nafxcw:appui2.obj
 0001:0005633d       $L184603                   0045733d f   nafxcw:appui2.obj
 0001:00056346       __ehhandler$?AddDocTemplate@CWinApp@@QAEXPAVCDocTemplate@@@Z 00457346 f   nafxcw:appui2.obj
 0001:00056350       $L184878                   00457350 f   nafxcw:appui2.obj
 0001:00056358       __ehhandler$??HATL@@YA?AV?$CStringT@DV?$StrTraitMFC@DV?$ChTraitsCRT@D@ATL@@@@@0@ABV10@PBD@Z 00457358 f   nafxcw:appui2.obj
 0001:00056362       $L185016                   00457362 f   nafxcw:appui2.obj
 0001:0005636d       __ehhandler$?AfxDelRegTreeHelper@@YGJPAUHKEY__@@ABV?$CStringT@DV?$StrTraitMFC@DV?$ChTraitsCRT@D@ATL@@@@@ATL@@@Z 0045736d f   nafxcw:appui2.obj
 0001:00056377       $L185058                   00457377 f   nafxcw:appui2.obj
 0001:0005637f       $L185059                   0045737f f   nafxcw:appui2.obj
 0001:00056387       __ehhandler$?EnableShellOpen@CWinApp@@IAEXXZ 00457387 f   nafxcw:appui2.obj
 0001:00056391       $L185150                   00457391 f   nafxcw:appui2.obj
 0001:0005639c       $L185151                   0045739c f   nafxcw:appui2.obj
 0001:000563a7       $L185152                   004573a7 f   nafxcw:appui2.obj
 0001:000563b2       __ehhandler$?Unregister@CWinApp@@UAEHXZ 004573b2 f   nafxcw:appui2.obj
 0001:000563bc       $L185142                   004573bc f   nafxcw:filecore.obj
 0001:000563c7       __ehhandler$??1CFile@@UAE@XZ 004573c7 f   nafxcw:filecore.obj
 0001:000563d1       $L185311                   004573d1 f   nafxcw:filecore.obj
 0001:000563dc       __ehhandler$?AfxFullPath@@YGHPADPBD@Z 004573dc f   nafxcw:filecore.obj
 0001:000563e6       $L185486                   004573e6 f   nafxcw:filecore.obj
 0001:000563f1       __ehhandler$??0CFileException@@QAE@HJPBD@Z 004573f1 f   nafxcw:filecore.obj
 0001:000563fb       $L185539                   004573fb f   nafxcw:filecore.obj
 0001:00056406       $L185540                   00457406 f   nafxcw:filecore.obj
 0001:0005640e       __ehhandler$??0CFile@@QAE@PBDI@Z 0045740e f   nafxcw:filecore.obj
 0001:00056418       $L185606                   00457418 f   nafxcw:filecore.obj
 0001:00056420       $L185607                   00457420 f   nafxcw:filecore.obj
 0001:00056428       __ehhandler$?GetClassObject@AFX_COM@@QAEJABU_GUID@@0PAPAX@Z 00457428 f   nafxcw:filecore.obj
 0001:00056432       $L184751                   00457432 f   nafxcw:filex.obj
 0001:0005643a       $L184752                   0045743a f   nafxcw:filex.obj
 0001:00056442       __ehhandler$?GetErrorMessage@CFileException@@UAEHPADIPAI@Z 00457442 f   nafxcw:filex.obj
 0001:0005644c       $L184929                   0045744c f   nafxcw:filex.obj
 0001:00056455       __ehhandler$?AfxThrowFileException@@YGXHJPBD@Z 00457455 f   nafxcw:filex.obj
 0001:0005645f       $L185393                   0045745f f   nafxcw:docmgr.obj
 0001:0005646a       __ehhandler$?OnFileNew@CDocManager@@UAEXXZ 0045746a f   nafxcw:docmgr.obj
 0001:00056474       $L185466                   00457474 f   nafxcw:docmgr.obj
 0001:0005647f       __ehhandler$??1CDocManager@@UAE@XZ 0045747f f   nafxcw:docmgr.obj
 0001:00056489       $L185778                   00457489 f   nafxcw:docmgr.obj
 0001:00056491       __ehhandler$?OnInitDialog@CNewTypeDlg@@MAEHXZ 00457491 f   nafxcw:docmgr.obj
 0001:0005649b       $L185891                   0045749b f   nafxcw:docmgr.obj
 0001:000564a3       __ehhandler$?OnFileOpen@CDocManager@@UAEXXZ 004574a3 f   nafxcw:docmgr.obj
 0001:000564ad       $L186403                   004574ad f   nafxcw:docmgr.obj
 0001:000564b5       $L186404                   004574b5 f   nafxcw:docmgr.obj
 0001:000564bd       $L186405                   004574bd f   nafxcw:docmgr.obj
 0001:000564c5       $L186406                   004574c5 f   nafxcw:docmgr.obj
 0001:000564cd       $L186407                   004574cd f   nafxcw:docmgr.obj
 0001:000564d5       __ehhandler$?UnregisterShellFileTypes@CDocManager@@QAEXXZ 004574d5 f   nafxcw:docmgr.obj
 0001:000564df       $L186811                   004574df f   nafxcw:docmgr.obj
 0001:000564e7       $L186812                   004574e7 f   nafxcw:docmgr.obj
 0001:000564ef       $L186813                   004574ef f   nafxcw:docmgr.obj
 0001:000564f7       $L186814                   004574f7 f   nafxcw:docmgr.obj
 0001:000564ff       __ehhandler$?_AfxAppendFilterSuffix@@YGXAAV?$CStringT@DV?$StrTraitMFC@DV?$ChTraitsCRT@D@ATL@@@@@ATL@@AAUtagOFNA@@PAVCDocTemplate@@PAV12@@Z 004574ff f   nafxcw:docmgr.obj
 0001:00056509       $L187079                   00457509 f   nafxcw:docmgr.obj
 0001:00056511       $L187080                   00457511 f   nafxcw:docmgr.obj
 0001:00056519       $L187081                   00457519 f   nafxcw:docmgr.obj
 0001:00056521       $L187082                   00457521 f   nafxcw:docmgr.obj
 0001:00056529       $L187083                   00457529 f   nafxcw:docmgr.obj
 0001:00056531       $L187084                   00457531 f   nafxcw:docmgr.obj
 0001:00056539       $L187085                   00457539 f   nafxcw:docmgr.obj
 0001:00056541       $L187086                   00457541 f   nafxcw:docmgr.obj
 0001:00056549       $L187087                   00457549 f   nafxcw:docmgr.obj
 0001:00056551       $L187088                   00457551 f   nafxcw:docmgr.obj
 0001:00056559       __ehhandler$?RegisterShellFileTypes@CDocManager@@UAEXH@Z 00457559 f   nafxcw:docmgr.obj
 0001:00056563       $L188823                   00457563 f   nafxcw:docmgr.obj
 0001:0005656e       $L188824                   0045756e f   nafxcw:docmgr.obj
 0001:00056579       $L188825                   00457579 f   nafxcw:docmgr.obj
 0001:00056584       $L188826                   00457584 f   nafxcw:docmgr.obj
 0001:0005658f       $L188827                   0045758f f   nafxcw:docmgr.obj
 0001:0005659a       __ehhandler$?DoPromptFileName@CDocManager@@UAEHAAV?$CStringT@DV?$StrTraitMFC@DV?$ChTraitsCRT@D@ATL@@@@@ATL@@IKHPAVCDocTemplate@@@Z 0045759a f   nafxcw:docmgr.obj
 0001:000565a4       $L189152                   004575a4 f   nafxcw:docmgr.obj
 0001:000565ac       $L189153                   004575ac f   nafxcw:docmgr.obj
 0001:000565b4       $L189155                   004575b4 f   nafxcw:docmgr.obj
 0001:000565bc       $L189157                   004575bc f   nafxcw:docmgr.obj
 0001:000565c4       $L189159                   004575c4 f   nafxcw:docmgr.obj
 0001:000565cc       $L189160                   004575cc f   nafxcw:docmgr.obj
 0001:000565d4       $L189161                   004575d4 f   nafxcw:docmgr.obj
 0001:000565dc       $L189163                   004575dc f   nafxcw:docmgr.obj
 0001:000565e4       $L189164                   004575e4 f   nafxcw:docmgr.obj
 0001:000565ec       $L189165                   004575ec f   nafxcw:docmgr.obj
 0001:000565f4       $L189167                   004575f4 f   nafxcw:docmgr.obj
 0001:000565fc       $L189168                   004575fc f   nafxcw:docmgr.obj
 0001:00056604       $L189169                   00457604 f   nafxcw:docmgr.obj
 0001:0005660c       $L189171                   0045760c f   nafxcw:docmgr.obj
 0001:00056614       $L189172                   00457614 f   nafxcw:docmgr.obj
 0001:0005661c       $L189173                   0045761c f   nafxcw:docmgr.obj
 0001:00056624       __ehhandler$?OnDDECommand@CDocManager@@UAEHPAD@Z 00457624 f   nafxcw:docmgr.obj
 0001:0005662e       $L185386                   0045762e f   nafxcw:filest.obj
 0001:00056639       __ehhandler$?GetFileName@CFile@@UBE?AV?$CStringT@DV?$StrTraitMFC@DV?$ChTraitsCRT@D@ATL@@@@@ATL@@XZ 00457639 f   nafxcw:filest.obj
 0001:00056643       $L185483                   00457643 f   nafxcw:filest.obj
 0001:0005664e       __ehhandler$?GetFileTitle@CFile@@UBE?AV?$CStringT@DV?$StrTraitMFC@DV?$ChTraitsCRT@D@ATL@@@@@ATL@@XZ 0045764e f   nafxcw:filest.obj
 0001:00056658       $L193410                   00457658 f   nafxcw:dlgcore.obj
 0001:00056660       __ehhandler$??1CDialog@@UAE@XZ 00457660 f   nafxcw:dlgcore.obj
 0001:0005666a       $L193425                   0045766a f   nafxcw:dlgcore.obj
 0001:00056672       __ehhandler$?OnPaint@CDialog@@IAEXXZ 00457672 f   nafxcw:dlgcore.obj
 0001:0005667c       $L193709                   0045767c f   nafxcw:dlgcore.obj
 0001:00056684       $L193710                   00457684 f   nafxcw:dlgcore.obj
 0001:0005668c       __ehhandler$?CreateDlgIndirect@CWnd@@IAEHPBUDLGTEMPLATE@@PAV1@PAUHINSTANCE__@@@Z 0045768c f   nafxcw:dlgcore.obj
 0001:00056696       __ehhandler$?DoModal@CDialog@@UAEHXZ 00457696 f   nafxcw:dlgcore.obj
 0001:000566a0       $L185189                   004576a0 f   nafxcw:dlgfile.obj
 0001:000566a8       __ehhandler$?GetFolderPath@CFileDialog@@QBE?AV?$CStringT@DV?$StrTraitMFC@DV?$ChTraitsCRT@D@ATL@@@@@ATL@@XZ 004576a8 f   nafxcw:dlgfile.obj
 0001:000566b2       $L185428                   004576b2 f   nafxcw:dlgfile.obj
 0001:000566ba       __ehhandler$??HATL@@YA?AV?$CStringT@DV?$StrTraitMFC@DV?$ChTraitsCRT@D@ATL@@@@@0@ABV10@D@Z 004576ba f   nafxcw:dlgfile.obj
 0001:000566c4       $L185522                   004576c4 f   nafxcw:dlgfile.obj
 0001:000566cf       $L185523                   004576cf f   nafxcw:dlgfile.obj
 0001:000566dd       __ehhandler$??0CFileDialog@@QAE@HPBD0K0PAVCWnd@@K@Z 004576dd f   nafxcw:dlgfile.obj
 0001:000566e7       $L185639                   004576e7 f   nafxcw:dlgfile.obj
 0001:000566ef       __ehhandler$?GetPathName@CFileDialog@@QBE?AV?$CStringT@DV?$StrTraitMFC@DV?$ChTraitsCRT@D@ATL@@@@@ATL@@XZ 004576ef f   nafxcw:dlgfile.obj
 0001:000566f9       $L185768                   004576f9 f   nafxcw:dlgfile.obj
 0001:00056701       __ehhandler$?GetFileName@CFileDialog@@QBE?AV?$CStringT@DV?$StrTraitMFC@DV?$ChTraitsCRT@D@ATL@@@@@ATL@@XZ 00457701 f   nafxcw:dlgfile.obj
 0001:0005670b       $L185870                   0045770b f   nafxcw:dlgfile.obj
 0001:00056713       __ehhandler$?GetFileExt@CFileDialog@@QBE?AV?$CStringT@DV?$StrTraitMFC@DV?$ChTraitsCRT@D@ATL@@@@@ATL@@XZ 00457713 f   nafxcw:dlgfile.obj
 0001:0005671d       $L185986                   0045771d f   nafxcw:dlgfile.obj
 0001:00056725       __ehhandler$?GetFileTitle@CFileDialog@@QBE?AV?$CStringT@DV?$StrTraitMFC@DV?$ChTraitsCRT@D@ATL@@@@@ATL@@XZ 00457725 f   nafxcw:dlgfile.obj
 0001:0005672f       $L186025                   0045772f f   nafxcw:dlgfile.obj
 0001:00056737       $L186026                   00457737 f   nafxcw:dlgfile.obj
 0001:0005673f       $L186027                   0045773f f   nafxcw:dlgfile.obj
 0001:00056747       $L186028                   00457747 f   nafxcw:dlgfile.obj
 0001:0005674f       $L186029                   0045774f f   nafxcw:dlgfile.obj
 0001:00056757       __ehhandler$?GetNextPathName@CFileDialog@@QBE?AV?$CStringT@DV?$StrTraitMFC@DV?$ChTraitsCRT@D@ATL@@@@@ATL@@AAPAU__POSITION@@@Z 00457757 f   nafxcw:dlgfile.obj
 0001:00056761       $L184740                   00457761 f   nafxcw:dlgtempl.obj
 0001:00056769       __ehhandler$?GetSizeInPixels@CDialogTemplate@@QBEXPAUtagSIZE@@@Z 00457769 f   nafxcw:dlgtempl.obj
 0001:00056773       $L11665                    00457773 f   libcpmt:string.obj
 0001:0005677b       __ehhandler$?_Xran@_String_base@std@@QBEXXZ 0045777b f   libcpmt:string.obj
 0001:00056785       $L11876                    00457785 f   libcpmt:string.obj
 0001:0005678d       __ehhandler$?_Xlen@_String_base@std@@QBEXXZ 0045778d f   libcpmt:string.obj
 0001:000567a0       _$E1                       004577a0 f   DPCoreClient.obj
 0001:000567c0       _$E1                       004577c0 f   DPDatabaseClient.obj
 0001:000567e0       _$E1                       004577e0 f   DPLoginSrvr.obj
 0001:00056800       _$E1                       00457800 f   StdAfx.obj
 0001:00056810       _$E1                       00457810 f   User.obj
 0001:00056880       _$E3                       00457880 f   User.obj
 0001:000568a0       _$E1                       004578a0 f   ar.obj
 0001:00056900       _$E2                       00457900 f   MyTrace.obj
 0001:00056920       _$E1                       00457920 f   buffer.obj
 0001:00056990       _$E3                       00457990 f   buffer.obj
 0001:00056a00       _$E5                       00457a00 f   buffer.obj
 0001:00056a60       _$E1                       00457a60 f   clientsock.obj
 0001:00056ad0       _$E1                       00457ad0 f   clientsocke.obj
 0001:00056b35       _$E1                       00457b35 f   nafxcw:objcore.obj
 0001:00056b4b       _$E5                       00457b4b f   atls:atlbase.obj
 0001:00056b61       _$E1                       00457b61 f   atls:atlbase.obj
 0001:00056b80       _$E2                       00457b80 f   DPCoreClient.obj
 0001:00056b90       _$E2                       00457b90 f   DPDatabaseClient.obj
 0001:00056ba0       _$E2                       00457ba0 f   DPLoginSrvr.obj
 0001:00056bb0       _$E2                       00457bb0 f   LoginProtect.obj
 0001:00056bc0       _$E2                       00457bc0 f   StdAfx.obj
 0001:00056bd0       _$E4                       00457bd0 f   User.obj
 0001:00056be0       _$E3                       00457be0 f   MyTrace.obj
 0001:00056bea       _$E2                       00457bea f   nafxcw:objcore.obj
 0001:00056bf4       _$E6                       00457bf4 f   atls:atlbase.obj
 0001:00056bfe       _$E2                       00457bfe f   atls:atlbase.obj
