 LoginServer

 Timestamp is 525db785 (Tue Oct 15 17:45:41 2013)

 Preferred load address is 00400000

 Start         Length     Name                   Class
 0001:00000000 0003cdb0H .text                   CODE
 0001:0003cdb0 00000cf8H .text$AFX_AUX           CODE
 0001:0003daa8 000001c9H .text$AFX_CMNCTL        CODE
 0001:0003dc71 00000a7aH .text$AFX_COL1          CODE
 0001:0003e6eb 000002e2H .text$AFX_COL2          CODE
 0001:0003e9cd 0000abefH .text$AFX_CORE1         CODE
 0001:000495bc 000034f6H .text$AFX_CORE2         CODE
 0001:0004cab2 00002355H .text$AFX_CORE3         CODE
 0001:0004ee07 00000751H .text$AFX_CORE4         CODE
 0001:0004f558 00003e13H .text$AFX_INIT          CODE
 0001:0005336b 000014d6H .text$AFX_OLE1          CODE
 0001:00054841 000000ecH .text$AFX_TERM          CODE
 0001:00054930 00001e67H .text$x                 CODE
 0001:000567a0 000003d7H .text$yc                CODE
 0001:00056b80 00000088H .text$yd                CODE
 0002:00000000 0000088cH .idata$5                DATA
 0002:00000890 000100c8H .rdata                  DATA
 0002:00010958 00000089H .rdata$debug            DATA
 0002:000109e4 00000298H .rdata$ilfixup          DATA
 0002:00010c7c 0000132cH .rdata$r                DATA
 0002:00011fa8 00000004H .rtc$IAA                DATA
 0002:00011fac 00000004H .rtc$IZZ                DATA
 0002:00011fb0 00000004H .rtc$TAA                DATA
 0002:00011fb4 00000004H .rtc$TZZ                DATA
 0002:00011fb8 000033b8H .xdata$x                DATA
 0002:00015370 00000004H ATL$__a                 DATA
 0002:00015374 00000004H ATL$__z                 DATA
 0002:00015378 00000154H .idata$2                DATA
 0002:000154cc 00000014H .idata$3                DATA
 0002:000154e0 0000088cH .idata$4                DATA
 0002:00015d6c 0000210eH .idata$6                DATA
 0002:00017e7a 00000000H .edata                  DATA
 0003:00000000 00000004H .CRT$XCA                DATA
 0003:00000004 00000004H .CRT$XCA0               DATA
 0003:00000008 00000004H .CRT$XCAA               DATA
 0003:0000000c 0000000cH .CRT$XCC                DATA
 0003:00000018 00000008H .CRT$XCL                DATA
 0003:00000020 00000074H .CRT$XCU                DATA
 0003:00000094 00000004H .CRT$XCZ                DATA
 0003:00000098 00000004H .CRT$XIA                DATA
 0003:0000009c 0000000cH .CRT$XIC                DATA
 0003:000000a8 00000004H .CRT$XIY                DATA
 0003:000000ac 00000004H .CRT$XIZ                DATA
 0003:000000b0 00000004H .CRT$XPA                DATA
 0003:000000b4 00000004H .CRT$XPX                DATA
 0003:000000b8 00000004H .CRT$XPZ                DATA
 0003:000000bc 00000004H .CRT$XTA                DATA
 0003:000000c0 00000004H .CRT$XTB                DATA
 0003:000000c4 00000004H .CRT$XTZ                DATA
 0003:000000d0 0000e5fcH .data                   DATA
 0003:0000e6e0 0004cba4H .bss                    DATA
 0004:00000000 000001f0H .rsrc$01                DATA
 0004:000001f0 00000670H .rsrc$02                DATA

  Address         Publics by Value              Rva+Base     Lib:Object

 0000:00000000       ___safe_se_handler_table   00000000     <absolute>
 0000:00000000       __except_list              00000000     <absolute>
 0000:00000000       ___safe_se_handler_count   00000000     <absolute>
 0000:00000000       ___ImageBase               00400000     <linker-defined>
 0001:00000000       ??2@YAPAXIPAX@Z            00401000 f i DPCoreClient.obj
 0001:00000010       ??3@YAXPAX0@Z              00401010 f i DPCoreClient.obj
 0001:00000020       ??6CAr@@QAEAAV0@K@Z        00401020 f i DPCoreClient.obj
 0001:00000040       ??5CAr@@QAEAAV0@AAE@Z      00401040 f i DPCoreClient.obj
 0001:00000070       ??5CAr@@QAEAAV0@AAK@Z      00401070 f i DPCoreClient.obj
 0001:000000b0       ??5@YAAAVCAr@@AAV0@AA_J@Z  004010b0 f i DPCoreClient.obj
 0001:000000d0       ?Send@CDPMng@@QAEHPAXKK@Z  004010d0 f i DPCoreClient.obj
 0001:000000f0       ?SysMessageHandler@CDPCoreClient@@UAEXPAUDPMSG_GENERIC@@KK@Z 004010f0 f   DPCoreClient.obj
 0001:00000100       ?QueryTickCount@CDPCoreClient@@QAEXXZ 00401100 f   DPCoreClient.obj
 0001:00000210       ?SendPreJoin@CDPCoreClient@@QAEXKPBDK0@Z 00401210 f   DPCoreClient.obj
 0001:00000340       ?SendLeave@CDPCoreClient@@QAEXK@Z 00401340 f   DPCoreClient.obj
 0001:00000420       ??0?$pair@$$CBKP8CDPCoreClient@@AEXAAVCAr@@@Z@std@@QAE@ABKABQ8CDPCoreClient@@AEXAAVCAr@@@Z@Z 00401420 f i DPCoreClient.obj
 0001:00000440       ??R?$less@K@std@@QBE_NABK0@Z 00401440 f i DPCoreClient.obj
 0001:00000460       ?_Isnil@?$_Tree@V?$_Tmap_traits@KP8CDPCoreClient@@AEXAAVCAr@@@ZU?$less@K@std@@V?$allocator@U?$pair@$$CBKP8CDPCoreClient@@AEXAAVCAr@@@Z@std@@@4@$0A@@std@@@std@@KAAADPAU_Node@?$_Tree_nod@V?$_Tmap_traits@KP8CDPCoreClient@@AEXAAVCAr@@@ZU?$less@K@std@@V?$allocator@U?$pair@$$CBKP8CDPCoreClient@@AEXAAVCAr@@@Z@std@@@4@$0A@@std@@@2@@Z 00401460 f i DPCoreClient.obj
 0001:00000470       ?_Left@?$_Tree@V?$_Tmap_traits@KP8CDPCoreClient@@AEXAAVCAr@@@ZU?$less@K@std@@V?$allocator@U?$pair@$$CBKP8CDPCoreClient@@AEXAAVCAr@@@Z@std@@@4@$0A@@std@@@std@@KAAAPAU_Node@?$_Tree_nod@V?$_Tmap_traits@KP8CDPCoreClient@@AEXAAVCAr@@@ZU?$less@K@std@@V?$allocator@U?$pair@$$CBKP8CDPCoreClient@@AEXAAVCAr@@@Z@std@@@4@$0A@@std@@@2@PAU342@@Z 00401470 f i DPCoreClient.obj
 0001:00000480       ?_Right@?$_Tree@V?$_Tmap_traits@KP8CDPCoreClient@@AEXAAVCAr@@@ZU?$less@K@std@@V?$allocator@U?$pair@$$CBKP8CDPCoreClient@@AEXAAVCAr@@@Z@std@@@4@$0A@@std@@@std@@KAAAPAU_Node@?$_Tree_nod@V?$_Tmap_traits@KP8CDPCoreClient@@AEXAAVCAr@@@ZU?$less@K@std@@V?$allocator@U?$pair@$$CBKP8CDPCoreClient@@AEXAAVCAr@@@Z@std@@@4@$0A@@std@@@2@PAU342@@Z 00401480 f i DPCoreClient.obj
 0001:00000490       ?_Kfn@?$_Tmap_traits@KP8CDPCoreClient@@AEXAAVCAr@@@ZU?$less@K@std@@V?$allocator@U?$pair@$$CBKP8CDPCoreClient@@AEXAAVCAr@@@Z@std@@@4@$0A@@std@@SAABKABU?$pair@$$CBKP8CDPCoreClient@@AEXAAVCAr@@@Z@2@@Z 00401490 f i DPCoreClient.obj
 0001:000004a0       ??0?$allocator@U?$pair@$$CBKP8CDPCoreClient@@AEXAAVCAr@@@Z@std@@@std@@QAE@XZ 004014a0 f i DPCoreClient.obj
 0001:000004b0       ??8const_iterator@?$_Tree@V?$_Tmap_traits@KP8CDPCoreClient@@AEXAAVCAr@@@ZU?$less@K@std@@V?$allocator@U?$pair@$$CBKP8CDPCoreClient@@AEXAAVCAr@@@Z@std@@@4@$0A@@std@@@std@@QBE_NABV012@@Z 004014b0 f i DPCoreClient.obj
 0001:000004c0       ?_Mynode@const_iterator@?$_Tree@V?$_Tmap_traits@KP8CDPCoreClient@@AEXAAVCAr@@@ZU?$less@K@std@@V?$allocator@U?$pair@$$CBKP8CDPCoreClient@@AEXAAVCAr@@@Z@std@@@4@$0A@@std@@@std@@QBEPAU_Node@?$_Tree_nod@V?$_Tmap_traits@KP8CDPCoreClient@@AEXAAVCAr@@@ZU?$less@K@std@@V?$allocator@U?$pair@$$CBKP8CDPCoreClient@@AEXAAVCAr@@@Z@std@@@4@$0A@@std@@@3@XZ 004014c0 f i DPCoreClient.obj
 0001:000004d0       ??0?$pair@Viterator@?$_Tree@V?$_Tmap_traits@KP8CDPCoreClient@@AEXAAVCAr@@@ZU?$less@K@std@@V?$allocator@U?$pair@$$CBKP8CDPCoreClient@@AEXAAVCAr@@@Z@std@@@4@$0A@@std@@@std@@_N@std@@QAE@ABViterator@?$_Tree@V?$_Tmap_traits@KP8CDPCoreClient@@AEXAAVCAr@@@ZU?$less@K@std@@V?$allocator@U?$pair@$$CBKP8CDPCoreClient@@AEXAAVCAr@@@Z@std@@@4@$0A@@std@@@1@AB_N@Z 004014d0 f i DPCoreClient.obj
 0001:000004f0       ?_Color@?$_Tree@V?$_Tmap_traits@KP8CDPCoreClient@@AEXAAVCAr@@@ZU?$less@K@std@@V?$allocator@U?$pair@$$CBKP8CDPCoreClient@@AEXAAVCAr@@@Z@std@@@4@$0A@@std@@@std@@KAAADPAU_Node@?$_Tree_nod@V?$_Tmap_traits@KP8CDPCoreClient@@AEXAAVCAr@@@ZU?$less@K@std@@V?$allocator@U?$pair@$$CBKP8CDPCoreClient@@AEXAAVCAr@@@Z@std@@@4@$0A@@std@@@2@@Z 004014f0 f i DPCoreClient.obj
 0001:00000500       ?_Parent@?$_Tree@V?$_Tmap_traits@KP8CDPCoreClient@@AEXAAVCAr@@@ZU?$less@K@std@@V?$allocator@U?$pair@$$CBKP8CDPCoreClient@@AEXAAVCAr@@@Z@std@@@4@$0A@@std@@@std@@KAAAPAU_Node@?$_Tree_nod@V?$_Tmap_traits@KP8CDPCoreClient@@AEXAAVCAr@@@ZU?$less@K@std@@V?$allocator@U?$pair@$$CBKP8CDPCoreClient@@AEXAAVCAr@@@Z@std@@@4@$0A@@std@@@2@PAU342@@Z 00401500 f i DPCoreClient.obj
 0001:00000510       ?_Myval@?$_Tree@V?$_Tmap_traits@KP8CDPCoreClient@@AEXAAVCAr@@@ZU?$less@K@std@@V?$allocator@U?$pair@$$CBKP8CDPCoreClient@@AEXAAVCAr@@@Z@std@@@4@$0A@@std@@@std@@KAAAU?$pair@$$CBKP8CDPCoreClient@@AEXAAVCAr@@@Z@2@PAU_Node@?$_Tree_nod@V?$_Tmap_traits@KP8CDPCoreClient@@AEXAAVCAr@@@ZU?$less@K@std@@V?$allocator@U?$pair@$$CBKP8CDPCoreClient@@AEXAAVCAr@@@Z@std@@@4@$0A@@std@@@2@@Z 00401510 f i DPCoreClient.obj
 0001:00000520       ?_Lmost@?$_Tree@V?$_Tmap_traits@KP8CDPCoreClient@@AEXAAVCAr@@@ZU?$less@K@std@@V?$allocator@U?$pair@$$CBKP8CDPCoreClient@@AEXAAVCAr@@@Z@std@@@4@$0A@@std@@@std@@IAEAAPAU_Node@?$_Tree_nod@V?$_Tmap_traits@KP8CDPCoreClient@@AEXAAVCAr@@@ZU?$less@K@std@@V?$allocator@U?$pair@$$CBKP8CDPCoreClient@@AEXAAVCAr@@@Z@std@@@4@$0A@@std@@@2@XZ 00401520 f i DPCoreClient.obj
 0001:00000530       ?_Rmost@?$_Tree@V?$_Tmap_traits@KP8CDPCoreClient@@AEXAAVCAr@@@ZU?$less@K@std@@V?$allocator@U?$pair@$$CBKP8CDPCoreClient@@AEXAAVCAr@@@Z@std@@@4@$0A@@std@@@std@@IAEAAPAU_Node@?$_Tree_nod@V?$_Tmap_traits@KP8CDPCoreClient@@AEXAAVCAr@@@ZU?$less@K@std@@V?$allocator@U?$pair@$$CBKP8CDPCoreClient@@AEXAAVCAr@@@Z@std@@@4@$0A@@std@@@2@XZ 00401530 f i DPCoreClient.obj
 0001:00000540       ??0?$allocator@U?$pair@$$CBKP8CDPCoreClient@@AEXAAVCAr@@@Z@std@@@std@@QAE@ABV01@@Z 00401540 f i DPCoreClient.obj
 0001:00000550       ?deallocate@?$allocator@U_Node@?$_Tree_nod@V?$_Tmap_traits@KP8CDPCoreClient@@AEXAAVCAr@@@ZU?$less@K@std@@V?$allocator@U?$pair@$$CBKP8CDPCoreClient@@AEXAAVCAr@@@Z@std@@@4@$0A@@std@@@std@@@std@@QAEXPAU_Node@?$_Tree_nod@V?$_Tmap_traits@KP8CDPCoreClient@@AEXAAVCAr@@@ZU?$less@K@std@@V?$allocator@U?$pair@$$CBKP8CDPCoreClient@@AEXAAVCAr@@@Z@std@@@4@$0A@@std@@@2@I@Z 00401550 f i DPCoreClient.obj
 0001:00000560       ??0const_iterator@?$_Tree@V?$_Tmap_traits@KP8CDPCoreClient@@AEXAAVCAr@@@ZU?$less@K@std@@V?$allocator@U?$pair@$$CBKP8CDPCoreClient@@AEXAAVCAr@@@Z@std@@@4@$0A@@std@@@std@@QAE@PAU_Node@?$_Tree_nod@V?$_Tmap_traits@KP8CDPCoreClient@@AEXAAVCAr@@@ZU?$less@K@std@@V?$allocator@U?$pair@$$CBKP8CDPCoreClient@@AEXAAVCAr@@@Z@std@@@4@$0A@@std@@@2@@Z 00401560 f i DPCoreClient.obj
 0001:00000570       ??Dconst_iterator@?$_Tree@V?$_Tmap_traits@KP8CDPCoreClient@@AEXAAVCAr@@@ZU?$less@K@std@@V?$allocator@U?$pair@$$CBKP8CDPCoreClient@@AEXAAVCAr@@@Z@std@@@4@$0A@@std@@@std@@QBEABU?$pair@$$CBKP8CDPCoreClient@@AEXAAVCAr@@@Z@2@XZ 00401570 f i DPCoreClient.obj
 0001:00000580       ??0?$allocator@D@std@@QAE@XZ 00401580 f i DPCoreClient.obj
 0001:00000590       ?_Root@?$_Tree@V?$_Tmap_traits@KP8CDPCoreClient@@AEXAAVCAr@@@ZU?$less@K@std@@V?$allocator@U?$pair@$$CBKP8CDPCoreClient@@AEXAAVCAr@@@Z@std@@@4@$0A@@std@@@std@@IBEAAPAU_Node@?$_Tree_nod@V?$_Tmap_traits@KP8CDPCoreClient@@AEXAAVCAr@@@ZU?$less@K@std@@V?$allocator@U?$pair@$$CBKP8CDPCoreClient@@AEXAAVCAr@@@Z@std@@@4@$0A@@std@@@2@XZ 00401590 f i DPCoreClient.obj
 0001:000005a0       ?max_size@?$allocator@U?$pair@$$CBKP8CDPCoreClient@@AEXAAVCAr@@@Z@std@@@std@@QBEIXZ 004015a0 f i DPCoreClient.obj
 0001:000005b0       ??0_Node@?$_Tree_nod@V?$_Tmap_traits@KP8CDPCoreClient@@AEXAAVCAr@@@ZU?$less@K@std@@V?$allocator@U?$pair@$$CBKP8CDPCoreClient@@AEXAAVCAr@@@Z@std@@@4@$0A@@std@@@std@@QAE@PAU012@00ABU?$pair@$$CBKP8CDPCoreClient@@AEXAAVCAr@@@Z@2@D@Z 004015b0 f i DPCoreClient.obj
 0001:000005f0       ?_Max@?$_Tree@V?$_Tmap_traits@KP8CDPCoreClient@@AEXAAVCAr@@@ZU?$less@K@std@@V?$allocator@U?$pair@$$CBKP8CDPCoreClient@@AEXAAVCAr@@@Z@std@@@4@$0A@@std@@@std@@KAPAU_Node@?$_Tree_nod@V?$_Tmap_traits@KP8CDPCoreClient@@AEXAAVCAr@@@ZU?$less@K@std@@V?$allocator@U?$pair@$$CBKP8CDPCoreClient@@AEXAAVCAr@@@Z@std@@@4@$0A@@std@@@2@PAU342@@Z 004015f0 f i DPCoreClient.obj
 0001:00000610       ?_Min@?$_Tree@V?$_Tmap_traits@KP8CDPCoreClient@@AEXAAVCAr@@@ZU?$less@K@std@@V?$allocator@U?$pair@$$CBKP8CDPCoreClient@@AEXAAVCAr@@@Z@std@@@4@$0A@@std@@@std@@KAPAU_Node@?$_Tree_nod@V?$_Tmap_traits@KP8CDPCoreClient@@AEXAAVCAr@@@ZU?$less@K@std@@V?$allocator@U?$pair@$$CBKP8CDPCoreClient@@AEXAAVCAr@@@Z@std@@@4@$0A@@std@@@2@PAU342@@Z 00401610 f i DPCoreClient.obj
 0001:00000630       ??0?$_Tmap_traits@KP8CDPCoreClient@@AEXAAVCAr@@@ZU?$less@K@std@@V?$allocator@U?$pair@$$CBKP8CDPCoreClient@@AEXAAVCAr@@@Z@std@@@4@$0A@@std@@QAE@U?$less@K@1@@Z 00401630 f i DPCoreClient.obj
 0001:00000640       ?_Inc@const_iterator@?$_Tree@V?$_Tmap_traits@KP8CDPCoreClient@@AEXAAVCAr@@@ZU?$less@K@std@@V?$allocator@U?$pair@$$CBKP8CDPCoreClient@@AEXAAVCAr@@@Z@std@@@4@$0A@@std@@@std@@QAEXXZ 00401640 f i DPCoreClient.obj
 0001:000006a0       ??$_Destroy@PAU_Node@?$_Tree_nod@V?$_Tmap_traits@KP8CDPCoreClient@@AEXAAVCAr@@@ZU?$less@K@std@@V?$allocator@U?$pair@$$CBKP8CDPCoreClient@@AEXAAVCAr@@@Z@std@@@4@$0A@@std@@@std@@@std@@YAXPAPAU_Node@?$_Tree_nod@V?$_Tmap_traits@KP8CDPCoreClient@@AEXAAVCAr@@@ZU?$less@K@std@@V?$allocator@U?$pair@$$CBKP8CDPCoreClient@@AEXAAVCAr@@@Z@std@@@4@$0A@@std@@@0@@Z 004016a0 f i DPCoreClient.obj
 0001:000006b0       ??$swap@D@std@@YAXAAD0@Z   004016b0 f i DPCoreClient.obj
 0001:000006d0       ??$?0U?$pair@$$CBKP8CDPCoreClient@@AEXAAVCAr@@@Z@std@@@?$allocator@PAU_Node@?$_Tree_nod@V?$_Tmap_traits@KP8CDPCoreClient@@AEXAAVCAr@@@ZU?$less@K@std@@V?$allocator@U?$pair@$$CBKP8CDPCoreClient@@AEXAAVCAr@@@Z@std@@@4@$0A@@std@@@std@@@std@@QAE@ABV?$allocator@U?$pair@$$CBKP8CDPCoreClient@@AEXAAVCAr@@@Z@std@@@1@@Z 004016d0 f i DPCoreClient.obj
 0001:000006e0       ??$_Allocate@U_Node@?$_Tree_nod@V?$_Tmap_traits@KP8CDPCoreClient@@AEXAAVCAr@@@ZU?$less@K@std@@V?$allocator@U?$pair@$$CBKP8CDPCoreClient@@AEXAAVCAr@@@Z@std@@@4@$0A@@std@@@std@@@std@@YAPAU_Node@?$_Tree_nod@V?$_Tmap_traits@KP8CDPCoreClient@@AEXAAVCAr@@@ZU?$less@K@std@@V?$allocator@U?$pair@$$CBKP8CDPCoreClient@@AEXAAVCAr@@@Z@std@@@4@$0A@@std@@@0@IPAU120@@Z 004016e0 f i DPCoreClient.obj
 0001:00000700       ??$?0U?$pair@$$CBKP8CDPCoreClient@@AEXAAVCAr@@@Z@std@@@?$allocator@U_Node@?$_Tree_nod@V?$_Tmap_traits@KP8CDPCoreClient@@AEXAAVCAr@@@ZU?$less@K@std@@V?$allocator@U?$pair@$$CBKP8CDPCoreClient@@AEXAAVCAr@@@Z@std@@@4@$0A@@std@@@std@@@std@@QAE@ABV?$allocator@U?$pair@$$CBKP8CDPCoreClient@@AEXAAVCAr@@@Z@std@@@1@@Z 00401700 f i DPCoreClient.obj
 0001:00000710       ??$_Destroy@U_Node@?$_Tree_nod@V?$_Tmap_traits@KP8CDPCoreClient@@AEXAAVCAr@@@ZU?$less@K@std@@V?$allocator@U?$pair@$$CBKP8CDPCoreClient@@AEXAAVCAr@@@Z@std@@@4@$0A@@std@@@std@@@std@@YAXPAU_Node@?$_Tree_nod@V?$_Tmap_traits@KP8CDPCoreClient@@AEXAAVCAr@@@ZU?$less@K@std@@V?$allocator@U?$pair@$$CBKP8CDPCoreClient@@AEXAAVCAr@@@Z@std@@@4@$0A@@std@@@0@@Z 00401710 f i DPCoreClient.obj
 0001:00000720       ??$_Construct@PAU_Node@?$_Tree_nod@V?$_Tmap_traits@KP8CDPCoreClient@@AEXAAVCAr@@@ZU?$less@K@std@@V?$allocator@U?$pair@$$CBKP8CDPCoreClient@@AEXAAVCAr@@@Z@std@@@4@$0A@@std@@@std@@PAU123@@std@@YAXPAPAU_Node@?$_Tree_nod@V?$_Tmap_traits@KP8CDPCoreClient@@AEXAAVCAr@@@ZU?$less@K@std@@V?$allocator@U?$pair@$$CBKP8CDPCoreClient@@AEXAAVCAr@@@Z@std@@@4@$0A@@std@@@0@ABQAU120@@Z 00401720 f i DPCoreClient.obj
 0001:00000740       ?assign@?$char_traits@D@std@@SAXAADABD@Z 00401740 f i DPCoreClient.obj
 0001:00000750       ?length@?$char_traits@D@std@@SAIPBD@Z 00401750 f i DPCoreClient.obj
 0001:00000770       ?copy@?$char_traits@D@std@@SAPADPADPBDI@Z 00401770 f i DPCoreClient.obj
 0001:000007a0       ?move@?$char_traits@D@std@@SAPADPADPBDI@Z 004017a0 f i DPCoreClient.obj
 0001:000007b0       ?Enter@CMclCritSec@@QAEXXZ 004017b0 f i DPCoreClient.obj
 0001:000007c0       ?Leave@CMclCritSec@@QAEXXZ 004017c0 f i DPCoreClient.obj
 0001:000007d0       ??0CMclAutoLock@@QAE@AAVCMclCritSec@@@Z 004017d0 f i DPCoreClient.obj
 0001:000007f0       ??1CMclAutoLock@@QAE@XZ    004017f0 f i DPCoreClient.obj
 0001:00000800       ?Start@CTickCount@@QAEXAB_J@Z 00401800 f i DPCoreClient.obj
 0001:00000830       ?size@?$basic_string@DU?$char_traits@D@std@@V?$allocator@D@2@@std@@QBEIXZ 00401830 f i DPCoreClient.obj
 0001:00000840       ?_Myptr@?$basic_string@DU?$char_traits@D@std@@V?$allocator@D@2@@std@@QBEPBDXZ 00401840 f i DPCoreClient.obj
 0001:00000850       ??0?$allocator@D@std@@QAE@ABV01@@Z 00401850 f i DPCoreClient.obj
 0001:00000860       ?_Myptr@?$basic_string@DU?$char_traits@D@std@@V?$allocator@D@2@@std@@QAEPADXZ 00401860 f i DPCoreClient.obj
 0001:00000870       ?deallocate@?$allocator@D@std@@QAEXPADI@Z 00401870 f i DPCoreClient.obj
 0001:00000880       ?_Inside@?$basic_string@DU?$char_traits@D@std@@V?$allocator@D@2@@std@@IAE_NPBD@Z 00401880 f i DPCoreClient.obj
 0001:000008c0       ?max_size@?$allocator@D@std@@QBEIXZ 004018c0 f i DPCoreClient.obj
 0001:000008d0       ??$_Allocate@D@std@@YAPADIPAD@Z 004018d0 f i DPCoreClient.obj
 0001:000008e0       ?OnQueryTickCount@CDPCoreClient@@QAEXAAVCAr@@@Z 004018e0 f   DPCoreClient.obj
 0001:00000960       ?OnPreJoin@CDPCoreClient@@AAEXAAVCAr@@@Z 00401960 f   DPCoreClient.obj
 0001:00000ac0       ?OnQueryRemovePlayer@CDPCoreClient@@AAEXAAVCAr@@@Z 00401ac0 f   DPCoreClient.obj
 0001:00000b90       ??9const_iterator@?$_Tree@V?$_Tmap_traits@KP8CDPCoreClient@@AEXAAVCAr@@@ZU?$less@K@std@@V?$allocator@U?$pair@$$CBKP8CDPCoreClient@@AEXAAVCAr@@@Z@std@@@4@$0A@@std@@@std@@QBE_NABV012@@Z 00401b90 f i DPCoreClient.obj
 0001:00000bb0       ?_Key@?$_Tree@V?$_Tmap_traits@KP8CDPCoreClient@@AEXAAVCAr@@@ZU?$less@K@std@@V?$allocator@U?$pair@$$CBKP8CDPCoreClient@@AEXAAVCAr@@@Z@std@@@4@$0A@@std@@@std@@KAABKPAU_Node@?$_Tree_nod@V?$_Tmap_traits@KP8CDPCoreClient@@AEXAAVCAr@@@ZU?$less@K@std@@V?$allocator@U?$pair@$$CBKP8CDPCoreClient@@AEXAAVCAr@@@Z@std@@@4@$0A@@std@@@2@@Z 00401bb0 f i DPCoreClient.obj
 0001:00000bc0       ?_Root@?$_Tree@V?$_Tmap_traits@KP8CDPCoreClient@@AEXAAVCAr@@@ZU?$less@K@std@@V?$allocator@U?$pair@$$CBKP8CDPCoreClient@@AEXAAVCAr@@@Z@std@@@4@$0A@@std@@@std@@IAEAAPAU_Node@?$_Tree_nod@V?$_Tmap_traits@KP8CDPCoreClient@@AEXAAVCAr@@@ZU?$less@K@std@@V?$allocator@U?$pair@$$CBKP8CDPCoreClient@@AEXAAVCAr@@@Z@std@@@4@$0A@@std@@@2@XZ 00401bc0 f i DPCoreClient.obj
 0001:00000bd0       ??0iterator@?$_Tree@V?$_Tmap_traits@KP8CDPCoreClient@@AEXAAVCAr@@@ZU?$less@K@std@@V?$allocator@U?$pair@$$CBKP8CDPCoreClient@@AEXAAVCAr@@@Z@std@@@4@$0A@@std@@@std@@QAE@PAU_Node@?$_Tree_nod@V?$_Tmap_traits@KP8CDPCoreClient@@AEXAAVCAr@@@ZU?$less@K@std@@V?$allocator@U?$pair@$$CBKP8CDPCoreClient@@AEXAAVCAr@@@Z@std@@@4@$0A@@std@@@2@@Z 00401bd0 f i DPCoreClient.obj
 0001:00000be0       ??Diterator@?$_Tree@V?$_Tmap_traits@KP8CDPCoreClient@@AEXAAVCAr@@@ZU?$less@K@std@@V?$allocator@U?$pair@$$CBKP8CDPCoreClient@@AEXAAVCAr@@@Z@std@@@4@$0A@@std@@@std@@QBEAAU?$pair@$$CBKP8CDPCoreClient@@AEXAAVCAr@@@Z@2@XZ 00401be0 f i DPCoreClient.obj
 0001:00000bf0       ?max_size@?$_Tree@V?$_Tmap_traits@KP8CDPCoreClient@@AEXAAVCAr@@@ZU?$less@K@std@@V?$allocator@U?$pair@$$CBKP8CDPCoreClient@@AEXAAVCAr@@@Z@std@@@4@$0A@@std@@@std@@QBEIXZ 00401bf0 f i DPCoreClient.obj
 0001:00000c00       ?_Lbound@?$_Tree@V?$_Tmap_traits@KP8CDPCoreClient@@AEXAAVCAr@@@ZU?$less@K@std@@V?$allocator@U?$pair@$$CBKP8CDPCoreClient@@AEXAAVCAr@@@Z@std@@@4@$0A@@std@@@std@@IBEPAU_Node@?$_Tree_nod@V?$_Tmap_traits@KP8CDPCoreClient@@AEXAAVCAr@@@ZU?$less@K@std@@V?$allocator@U?$pair@$$CBKP8CDPCoreClient@@AEXAAVCAr@@@Z@std@@@4@$0A@@std@@@2@ABK@Z 00401c00 f i DPCoreClient.obj
 0001:00000c30       ?_Lrotate@?$_Tree@V?$_Tmap_traits@KP8CDPCoreClient@@AEXAAVCAr@@@ZU?$less@K@std@@V?$allocator@U?$pair@$$CBKP8CDPCoreClient@@AEXAAVCAr@@@Z@std@@@4@$0A@@std@@@std@@IAEXPAU_Node@?$_Tree_nod@V?$_Tmap_traits@KP8CDPCoreClient@@AEXAAVCAr@@@ZU?$less@K@std@@V?$allocator@U?$pair@$$CBKP8CDPCoreClient@@AEXAAVCAr@@@Z@std@@@4@$0A@@std@@@2@@Z 00401c30 f i DPCoreClient.obj
 0001:00000c90       ?_Rrotate@?$_Tree@V?$_Tmap_traits@KP8CDPCoreClient@@AEXAAVCAr@@@ZU?$less@K@std@@V?$allocator@U?$pair@$$CBKP8CDPCoreClient@@AEXAAVCAr@@@Z@std@@@4@$0A@@std@@@std@@IAEXPAU_Node@?$_Tree_nod@V?$_Tmap_traits@KP8CDPCoreClient@@AEXAAVCAr@@@ZU?$less@K@std@@V?$allocator@U?$pair@$$CBKP8CDPCoreClient@@AEXAAVCAr@@@Z@std@@@4@$0A@@std@@@2@@Z 00401c90 f i DPCoreClient.obj
 0001:00000cf0       ?destroy@?$allocator@PAU_Node@?$_Tree_nod@V?$_Tmap_traits@KP8CDPCoreClient@@AEXAAVCAr@@@ZU?$less@K@std@@V?$allocator@U?$pair@$$CBKP8CDPCoreClient@@AEXAAVCAr@@@Z@std@@@4@$0A@@std@@@std@@@std@@QAEXPAPAU_Node@?$_Tree_nod@V?$_Tmap_traits@KP8CDPCoreClient@@AEXAAVCAr@@@ZU?$less@K@std@@V?$allocator@U?$pair@$$CBKP8CDPCoreClient@@AEXAAVCAr@@@Z@std@@@4@$0A@@std@@@2@@Z 00401cf0 f i DPCoreClient.obj
 0001:00000d00       ?allocate@?$allocator@U_Node@?$_Tree_nod@V?$_Tmap_traits@KP8CDPCoreClient@@AEXAAVCAr@@@ZU?$less@K@std@@V?$allocator@U?$pair@$$CBKP8CDPCoreClient@@AEXAAVCAr@@@Z@std@@@4@$0A@@std@@@std@@@std@@QAEPAU_Node@?$_Tree_nod@V?$_Tmap_traits@KP8CDPCoreClient@@AEXAAVCAr@@@ZU?$less@K@std@@V?$allocator@U?$pair@$$CBKP8CDPCoreClient@@AEXAAVCAr@@@Z@std@@@4@$0A@@std@@@2@I@Z 00401d00 f i DPCoreClient.obj
 0001:00000d20       ?_Dec@const_iterator@?$_Tree@V?$_Tmap_traits@KP8CDPCoreClient@@AEXAAVCAr@@@ZU?$less@K@std@@V?$allocator@U?$pair@$$CBKP8CDPCoreClient@@AEXAAVCAr@@@Z@std@@@4@$0A@@std@@@std@@QAEXXZ 00401d20 f i DPCoreClient.obj
 0001:00000d80       ??0?$_Tree_nod@V?$_Tmap_traits@KP8CDPCoreClient@@AEXAAVCAr@@@ZU?$less@K@std@@V?$allocator@U?$pair@$$CBKP8CDPCoreClient@@AEXAAVCAr@@@Z@std@@@4@$0A@@std@@@std@@IAE@ABU?$less@K@1@V?$allocator@U?$pair@$$CBKP8CDPCoreClient@@AEXAAVCAr@@@Z@std@@@1@@Z 00401d80 f i DPCoreClient.obj
 0001:00000d90       ?destroy@?$allocator@U_Node@?$_Tree_nod@V?$_Tmap_traits@KP8CDPCoreClient@@AEXAAVCAr@@@ZU?$less@K@std@@V?$allocator@U?$pair@$$CBKP8CDPCoreClient@@AEXAAVCAr@@@Z@std@@@4@$0A@@std@@@std@@@std@@QAEXPAU_Node@?$_Tree_nod@V?$_Tmap_traits@KP8CDPCoreClient@@AEXAAVCAr@@@ZU?$less@K@std@@V?$allocator@U?$pair@$$CBKP8CDPCoreClient@@AEXAAVCAr@@@Z@std@@@4@$0A@@std@@@2@@Z 00401d90 f i DPCoreClient.obj
 0001:00000da0       ?construct@?$allocator@PAU_Node@?$_Tree_nod@V?$_Tmap_traits@KP8CDPCoreClient@@AEXAAVCAr@@@ZU?$less@K@std@@V?$allocator@U?$pair@$$CBKP8CDPCoreClient@@AEXAAVCAr@@@Z@std@@@4@$0A@@std@@@std@@@std@@QAEXPAPAU_Node@?$_Tree_nod@V?$_Tmap_traits@KP8CDPCoreClient@@AEXAAVCAr@@@ZU?$less@K@std@@V?$allocator@U?$pair@$$CBKP8CDPCoreClient@@AEXAAVCAr@@@Z@std@@@4@$0A@@std@@@2@ABQAU342@@Z 00401da0 f i DPCoreClient.obj
 0001:00000dc0       ??Econst_iterator@?$_Tree@V?$_Tmap_traits@KP8CDPCoreClient@@AEXAAVCAr@@@ZU?$less@K@std@@V?$allocator@U?$pair@$$CBKP8CDPCoreClient@@AEXAAVCAr@@@Z@std@@@4@$0A@@std@@@std@@QAEAAV012@XZ 00401dc0 f i DPCoreClient.obj
 0001:00000dd0       ??0?$_String_val@DV?$allocator@D@std@@@std@@IAE@V?$allocator@D@1@@Z 00401dd0 f i DPCoreClient.obj
 0001:00000de0       ?_Eos@?$basic_string@DU?$char_traits@D@std@@V?$allocator@D@2@@std@@IAEXI@Z 00401de0 f i DPCoreClient.obj
 0001:00000e00       ?max_size@?$basic_string@DU?$char_traits@D@std@@V?$allocator@D@2@@std@@QBEIXZ 00401e00 f i DPCoreClient.obj
 0001:00000e10       ?allocate@?$allocator@D@std@@QAEPADI@Z 00401e10 f i DPCoreClient.obj
 0001:00000e20       ?end@?$_Tree@V?$_Tmap_traits@KP8CDPCoreClient@@AEXAAVCAr@@@ZU?$less@K@std@@V?$allocator@U?$pair@$$CBKP8CDPCoreClient@@AEXAAVCAr@@@Z@std@@@4@$0A@@std@@@std@@QAE?AViterator@12@XZ 00401e20 f i DPCoreClient.obj
 0001:00000e30       ??Citerator@?$_Tree@V?$_Tmap_traits@KP8CDPCoreClient@@AEXAAVCAr@@@ZU?$less@K@std@@V?$allocator@U?$pair@$$CBKP8CDPCoreClient@@AEXAAVCAr@@@Z@std@@@4@$0A@@std@@@std@@QBEPAU?$pair@$$CBKP8CDPCoreClient@@AEXAAVCAr@@@Z@2@XZ 00401e30 f i DPCoreClient.obj
 0001:00000e40       ?begin@?$_Tree@V?$_Tmap_traits@KP8CDPCoreClient@@AEXAAVCAr@@@ZU?$less@K@std@@V?$allocator@U?$pair@$$CBKP8CDPCoreClient@@AEXAAVCAr@@@Z@std@@@4@$0A@@std@@@std@@QAE?AViterator@12@XZ 00401e40 f i DPCoreClient.obj
 0001:00000e50       ?lower_bound@?$_Tree@V?$_Tmap_traits@KP8CDPCoreClient@@AEXAAVCAr@@@ZU?$less@K@std@@V?$allocator@U?$pair@$$CBKP8CDPCoreClient@@AEXAAVCAr@@@Z@std@@@4@$0A@@std@@@std@@QAE?AViterator@12@ABK@Z 00401e50 f i DPCoreClient.obj
 0001:00000e90       ?_Buynode@?$_Tree@V?$_Tmap_traits@KP8CDPCoreClient@@AEXAAVCAr@@@ZU?$less@K@std@@V?$allocator@U?$pair@$$CBKP8CDPCoreClient@@AEXAAVCAr@@@Z@std@@@4@$0A@@std@@@std@@IAEPAU_Node@?$_Tree_nod@V?$_Tmap_traits@KP8CDPCoreClient@@AEXAAVCAr@@@ZU?$less@K@std@@V?$allocator@U?$pair@$$CBKP8CDPCoreClient@@AEXAAVCAr@@@Z@std@@@4@$0A@@std@@@2@PAU342@00ABU?$pair@$$CBKP8CDPCoreClient@@AEXAAVCAr@@@Z@2@D@Z 00401e90 f i DPCoreClient.obj
 0001:00000ed0       ??Fconst_iterator@?$_Tree@V?$_Tmap_traits@KP8CDPCoreClient@@AEXAAVCAr@@@ZU?$less@K@std@@V?$allocator@U?$pair@$$CBKP8CDPCoreClient@@AEXAAVCAr@@@Z@std@@@4@$0A@@std@@@std@@QAEAAV012@XZ 00401ed0 f i DPCoreClient.obj
 0001:00000ee0       ?_Buynode@?$_Tree@V?$_Tmap_traits@KP8CDPCoreClient@@AEXAAVCAr@@@ZU?$less@K@std@@V?$allocator@U?$pair@$$CBKP8CDPCoreClient@@AEXAAVCAr@@@Z@std@@@4@$0A@@std@@@std@@IAEPAU_Node@?$_Tree_nod@V?$_Tmap_traits@KP8CDPCoreClient@@AEXAAVCAr@@@ZU?$less@K@std@@V?$allocator@U?$pair@$$CBKP8CDPCoreClient@@AEXAAVCAr@@@Z@std@@@4@$0A@@std@@@2@XZ 00401ee0 f i DPCoreClient.obj
 0001:00000f20       ??0?$_Tree_ptr@V?$_Tmap_traits@KP8CDPCoreClient@@AEXAAVCAr@@@ZU?$less@K@std@@V?$allocator@U?$pair@$$CBKP8CDPCoreClient@@AEXAAVCAr@@@Z@std@@@4@$0A@@std@@@std@@IAE@ABU?$less@K@1@V?$allocator@U?$pair@$$CBKP8CDPCoreClient@@AEXAAVCAr@@@Z@std@@@1@@Z 00401f20 f i DPCoreClient.obj
 0001:00000f30       ?_Erase@?$_Tree@V?$_Tmap_traits@KP8CDPCoreClient@@AEXAAVCAr@@@ZU?$less@K@std@@V?$allocator@U?$pair@$$CBKP8CDPCoreClient@@AEXAAVCAr@@@Z@std@@@4@$0A@@std@@@std@@IAEXPAU_Node@?$_Tree_nod@V?$_Tmap_traits@KP8CDPCoreClient@@AEXAAVCAr@@@ZU?$less@K@std@@V?$allocator@U?$pair@$$CBKP8CDPCoreClient@@AEXAAVCAr@@@Z@std@@@4@$0A@@std@@@2@@Z 00401f30 f i DPCoreClient.obj
 0001:00000f70       ??Eiterator@?$_Tree@V?$_Tmap_traits@KP8CDPCoreClient@@AEXAAVCAr@@@ZU?$less@K@std@@V?$allocator@U?$pair@$$CBKP8CDPCoreClient@@AEXAAVCAr@@@Z@std@@@4@$0A@@std@@@std@@QAEAAV012@XZ 00401f70 f i DPCoreClient.obj
 0001:00000f80       ?_Tidy@?$basic_string@DU?$char_traits@D@std@@V?$allocator@D@2@@std@@IAEX_NI@Z 00401f80 f i DPCoreClient.obj
 0001:00000fe0       ?erase@?$basic_string@DU?$char_traits@D@std@@V?$allocator@D@2@@std@@QAEAAV12@II@Z 00401fe0 f i DPCoreClient.obj
 0001:00001060       ?_Copy@?$basic_string@DU?$char_traits@D@std@@V?$allocator@D@2@@std@@IAEXII@Z 00402060 f i DPCoreClient.obj
 0001:000011a0       ?find@?$_Tree@V?$_Tmap_traits@KP8CDPCoreClient@@AEXAAVCAr@@@ZU?$less@K@std@@V?$allocator@U?$pair@$$CBKP8CDPCoreClient@@AEXAAVCAr@@@Z@std@@@4@$0A@@std@@@std@@QAE?AViterator@12@ABK@Z 004021a0 f i DPCoreClient.obj
 0001:00001210       ??Fiterator@?$_Tree@V?$_Tmap_traits@KP8CDPCoreClient@@AEXAAVCAr@@@ZU?$less@K@std@@V?$allocator@U?$pair@$$CBKP8CDPCoreClient@@AEXAAVCAr@@@Z@std@@@4@$0A@@std@@@std@@QAEAAV012@XZ 00402210 f i DPCoreClient.obj
 0001:00001220       ?_Init@?$_Tree@V?$_Tmap_traits@KP8CDPCoreClient@@AEXAAVCAr@@@ZU?$less@K@std@@V?$allocator@U?$pair@$$CBKP8CDPCoreClient@@AEXAAVCAr@@@Z@std@@@4@$0A@@std@@@std@@IAEXXZ 00402220 f i DPCoreClient.obj
 0001:00001250       ??0?$_Tree_val@V?$_Tmap_traits@KP8CDPCoreClient@@AEXAAVCAr@@@ZU?$less@K@std@@V?$allocator@U?$pair@$$CBKP8CDPCoreClient@@AEXAAVCAr@@@Z@std@@@4@$0A@@std@@@std@@IAE@ABU?$less@K@1@V?$allocator@U?$pair@$$CBKP8CDPCoreClient@@AEXAAVCAr@@@Z@std@@@1@@Z 00402250 f i DPCoreClient.obj
 0001:00001260       ?clear@?$_Tree@V?$_Tmap_traits@KP8CDPCoreClient@@AEXAAVCAr@@@ZU?$less@K@std@@V?$allocator@U?$pair@$$CBKP8CDPCoreClient@@AEXAAVCAr@@@Z@std@@@4@$0A@@std@@@std@@QAEXXZ 00402260 f i DPCoreClient.obj
 0001:00001290       ??Eiterator@?$_Tree@V?$_Tmap_traits@KP8CDPCoreClient@@AEXAAVCAr@@@ZU?$less@K@std@@V?$allocator@U?$pair@$$CBKP8CDPCoreClient@@AEXAAVCAr@@@Z@std@@@4@$0A@@std@@@std@@QAE?AV012@H@Z 00402290 f i DPCoreClient.obj
 0001:000012b0       ??1?$basic_string@DU?$char_traits@D@std@@V?$allocator@D@2@@std@@QAE@XZ 004022b0 f i DPCoreClient.obj
 0001:000012e0       ?_Grow@?$basic_string@DU?$char_traits@D@std@@V?$allocator@D@2@@std@@IAE_NI_N@Z 004022e0 f i DPCoreClient.obj
 0001:000013b0       ?GetHandler@CDPCoreClient@@AAEP81@AEXAAVCAr@@@ZK@Z 004023b0 f i DPCoreClient.obj
 0001:000013e0       ?UserMessageHandler@CDPCoreClient@@UAEXPAUDPMSG_GENERIC@@KK@Z 004023e0 f   DPCoreClient.obj
 0001:000014c0       ??0?$_Tree@V?$_Tmap_traits@KP8CDPCoreClient@@AEXAAVCAr@@@ZU?$less@K@std@@V?$allocator@U?$pair@$$CBKP8CDPCoreClient@@AEXAAVCAr@@@Z@std@@@4@$0A@@std@@@std@@QAE@ABU?$less@K@1@ABV?$allocator@U?$pair@$$CBKP8CDPCoreClient@@AEXAAVCAr@@@Z@std@@@1@@Z 004024c0 f i DPCoreClient.obj
 0001:000014f0       ??1logic_error@std@@UAE@XZ 004024f0 f i DPCoreClient.obj
 0001:00001530       ?what@logic_error@std@@UBEPBDXZ 00402530 f i DPCoreClient.obj
 0001:00001540       ??_Elogic_error@std@@UAEPAXI@Z 00402540 f i DPCoreClient.obj
 0001:00001540       ??_Glogic_error@std@@UAEPAXI@Z 00402540 f i DPCoreClient.obj
 0001:00001560       ?assign@?$basic_string@DU?$char_traits@D@std@@V?$allocator@D@2@@std@@QAEAAV12@ABV12@II@Z 00402560 f i DPCoreClient.obj
 0001:00001650       ?assign@?$basic_string@DU?$char_traits@D@std@@V?$allocator@D@2@@std@@QAEAAV12@PBDI@Z 00402650 f i DPCoreClient.obj
 0001:00001740       ??0?$basic_string@DU?$char_traits@D@std@@V?$allocator@D@2@@std@@QAE@ABV01@@Z 00402740 f i DPCoreClient.obj
 0001:00001770       ?assign@?$basic_string@DU?$char_traits@D@std@@V?$allocator@D@2@@std@@QAEAAV12@PBD@Z 00402770 f i DPCoreClient.obj
 0001:000017a0       ??0?$basic_string@DU?$char_traits@D@std@@V?$allocator@D@2@@std@@QAE@PBD@Z 004027a0 f i DPCoreClient.obj
 0001:000017e0       ??0logic_error@std@@QAE@ABV?$basic_string@DU?$char_traits@D@std@@V?$allocator@D@2@@1@@Z 004027e0 f i DPCoreClient.obj
 0001:00001840       ??0length_error@std@@QAE@ABV?$basic_string@DU?$char_traits@D@std@@V?$allocator@D@2@@1@@Z 00402840 f i DPCoreClient.obj
 0001:00001860       ??_Elength_error@std@@UAEPAXI@Z 00402860 f i DPCoreClient.obj
 0001:00001860       ??_Glength_error@std@@UAEPAXI@Z 00402860 f i DPCoreClient.obj
 0001:00001880       ??1length_error@std@@UAE@XZ 00402880 f i DPCoreClient.obj
 0001:000018c0       ??0out_of_range@std@@QAE@ABV?$basic_string@DU?$char_traits@D@std@@V?$allocator@D@2@@1@@Z 004028c0 f i DPCoreClient.obj
 0001:000018e0       ??_Gout_of_range@std@@UAEPAXI@Z 004028e0 f i DPCoreClient.obj
 0001:000018e0       ??_Eout_of_range@std@@UAEPAXI@Z 004028e0 f i DPCoreClient.obj
 0001:00001900       ??1out_of_range@std@@UAE@XZ 00402900 f i DPCoreClient.obj
 0001:00001940       ?_Insert@?$_Tree@V?$_Tmap_traits@KP8CDPCoreClient@@AEXAAVCAr@@@ZU?$less@K@std@@V?$allocator@U?$pair@$$CBKP8CDPCoreClient@@AEXAAVCAr@@@Z@std@@@4@$0A@@std@@@std@@IAE?AViterator@12@_NPAU_Node@?$_Tree_nod@V?$_Tmap_traits@KP8CDPCoreClient@@AEXAAVCAr@@@ZU?$less@K@std@@V?$allocator@U?$pair@$$CBKP8CDPCoreClient@@AEXAAVCAr@@@Z@std@@@4@$0A@@std@@@2@ABU?$pair@$$CBKP8CDPCoreClient@@AEXAAVCAr@@@Z@2@@Z 00402940 f i DPCoreClient.obj
 0001:00001af0       ??0logic_error@std@@QAE@ABV01@@Z 00402af0 f i DPCoreClient.obj
 0001:00001b60       ??0length_error@std@@QAE@ABV01@@Z 00402b60 f i DPCoreClient.obj
 0001:00001b80       ?erase@?$_Tree@V?$_Tmap_traits@KP8CDPCoreClient@@AEXAAVCAr@@@ZU?$less@K@std@@V?$allocator@U?$pair@$$CBKP8CDPCoreClient@@AEXAAVCAr@@@Z@std@@@4@$0A@@std@@@std@@QAE?AViterator@12@V312@@Z 00402b80 f i DPCoreClient.obj
 0001:00001e40       ??0out_of_range@std@@QAE@ABV01@@Z 00402e40 f i DPCoreClient.obj
 0001:00001e60       ?insert@?$_Tree@V?$_Tmap_traits@KP8CDPCoreClient@@AEXAAVCAr@@@ZU?$less@K@std@@V?$allocator@U?$pair@$$CBKP8CDPCoreClient@@AEXAAVCAr@@@Z@std@@@4@$0A@@std@@@std@@QAE?AU?$pair@Viterator@?$_Tree@V?$_Tmap_traits@KP8CDPCoreClient@@AEXAAVCAr@@@ZU?$less@K@std@@V?$allocator@U?$pair@$$CBKP8CDPCoreClient@@AEXAAVCAr@@@Z@std@@@4@$0A@@std@@@std@@_N@2@ABU?$pair@$$CBKP8CDPCoreClient@@AEXAAVCAr@@@Z@2@@Z 00402e60 f i DPCoreClient.obj
 0001:00001f20       ?erase@?$_Tree@V?$_Tmap_traits@KP8CDPCoreClient@@AEXAAVCAr@@@ZU?$less@K@std@@V?$allocator@U?$pair@$$CBKP8CDPCoreClient@@AEXAAVCAr@@@Z@std@@@4@$0A@@std@@@std@@QAE?AViterator@12@V312@0@Z 00402f20 f i DPCoreClient.obj
 0001:00001fe0       ?_Tidy@?$_Tree@V?$_Tmap_traits@KP8CDPCoreClient@@AEXAAVCAr@@@ZU?$less@K@std@@V?$allocator@U?$pair@$$CBKP8CDPCoreClient@@AEXAAVCAr@@@Z@std@@@4@$0A@@std@@@std@@IAEXXZ 00402fe0 f i DPCoreClient.obj
 0001:00002010       ??1?$_Tree@V?$_Tmap_traits@KP8CDPCoreClient@@AEXAAVCAr@@@ZU?$less@K@std@@V?$allocator@U?$pair@$$CBKP8CDPCoreClient@@AEXAAVCAr@@@Z@std@@@4@$0A@@std@@@std@@QAE@XZ 00403010 f i DPCoreClient.obj
 0001:00002040       ??1?$map@KP8CDPCoreClient@@AEXAAVCAr@@@ZU?$less@K@std@@V?$allocator@U?$pair@$$CBKP8CDPCoreClient@@AEXAAVCAr@@@Z@std@@@4@@std@@QAE@XZ 00403040 f i DPCoreClient.obj
 0001:00002070       ??1CDPCoreClient@@UAE@XZ   00403070 f   DPCoreClient.obj
 0001:000020f0       ??0?$map@KP8CDPCoreClient@@AEXAAVCAr@@@ZU?$less@K@std@@V?$allocator@U?$pair@$$CBKP8CDPCoreClient@@AEXAAVCAr@@@Z@std@@@4@@std@@QAE@XZ 004030f0 f i DPCoreClient.obj
 0001:00002120       ??0CDPCoreClient@@QAE@XZ   00403120 f   DPCoreClient.obj
 0001:00002200       ??_GCDPCoreClient@@UAEPAXI@Z 00403200 f i DPCoreClient.obj
 0001:00002200       ??_ECDPCoreClient@@UAEPAXI@Z 00403200 f i DPCoreClient.obj
 0001:00002220       ??6CAr@@QAEAAV0@J@Z        00403220 f i DPDatabaseClient.obj
 0001:00002240       ??5CAr@@QAEAAV0@AAJ@Z      00403240 f i DPDatabaseClient.obj
 0001:00002280       ?SysMessageHandler@CDPDatabaseClient@@UAEXPAUDPMSG_GENERIC@@KK@Z 00403280 f   DPDatabaseClient.obj
 0001:00002290       ?SendGetPlayerList@CDPDatabaseClient@@QAEXKPBD0KK@Z 00403290 f   DPDatabaseClient.obj
 0001:000023e0       ??0?$pair@$$CBKP8CDPDatabaseClient@@AEXAAVCAr@@KPAEK@Z@std@@QAE@ABKABQ8CDPDatabaseClient@@AEXAAVCAr@@KPAEK@Z@Z 004033e0 f i DPDatabaseClient.obj
 0001:00002400       ?_Isnil@?$_Tree@V?$_Tmap_traits@KP8CDPDatabaseClient@@AEXAAVCAr@@KPAEK@ZU?$less@K@std@@V?$allocator@U?$pair@$$CBKP8CDPDatabaseClient@@AEXAAVCAr@@KPAEK@Z@std@@@4@$0A@@std@@@std@@KAAADPAU_Node@?$_Tree_nod@V?$_Tmap_traits@KP8CDPDatabaseClient@@AEXAAVCAr@@KPAEK@ZU?$less@K@std@@V?$allocator@U?$pair@$$CBKP8CDPDatabaseClient@@AEXAAVCAr@@KPAEK@Z@std@@@4@$0A@@std@@@2@@Z 00403400 f i DPDatabaseClient.obj
 0001:00002410       ?_Left@?$_Tree@V?$_Tmap_traits@KP8CDPDatabaseClient@@AEXAAVCAr@@KPAEK@ZU?$less@K@std@@V?$allocator@U?$pair@$$CBKP8CDPDatabaseClient@@AEXAAVCAr@@KPAEK@Z@std@@@4@$0A@@std@@@std@@KAAAPAU_Node@?$_Tree_nod@V?$_Tmap_traits@KP8CDPDatabaseClient@@AEXAAVCAr@@KPAEK@ZU?$less@K@std@@V?$allocator@U?$pair@$$CBKP8CDPDatabaseClient@@AEXAAVCAr@@KPAEK@Z@std@@@4@$0A@@std@@@2@PAU342@@Z 00403410 f i DPDatabaseClient.obj
 0001:00002420       ?_Right@?$_Tree@V?$_Tmap_traits@KP8CDPDatabaseClient@@AEXAAVCAr@@KPAEK@ZU?$less@K@std@@V?$allocator@U?$pair@$$CBKP8CDPDatabaseClient@@AEXAAVCAr@@KPAEK@Z@std@@@4@$0A@@std@@@std@@KAAAPAU_Node@?$_Tree_nod@V?$_Tmap_traits@KP8CDPDatabaseClient@@AEXAAVCAr@@KPAEK@ZU?$less@K@std@@V?$allocator@U?$pair@$$CBKP8CDPDatabaseClient@@AEXAAVCAr@@KPAEK@Z@std@@@4@$0A@@std@@@2@PAU342@@Z 00403420 f i DPDatabaseClient.obj
 0001:00002430       ?_Kfn@?$_Tmap_traits@KP8CDPDatabaseClient@@AEXAAVCAr@@KPAEK@ZU?$less@K@std@@V?$allocator@U?$pair@$$CBKP8CDPDatabaseClient@@AEXAAVCAr@@KPAEK@Z@std@@@4@$0A@@std@@SAABKABU?$pair@$$CBKP8CDPDatabaseClient@@AEXAAVCAr@@KPAEK@Z@2@@Z 00403430 f i DPDatabaseClient.obj
 0001:00002440       ??0?$allocator@U?$pair@$$CBKP8CDPDatabaseClient@@AEXAAVCAr@@KPAEK@Z@std@@@std@@QAE@XZ 00403440 f i DPDatabaseClient.obj
 0001:00002450       ??8const_iterator@?$_Tree@V?$_Tmap_traits@KP8CDPDatabaseClient@@AEXAAVCAr@@KPAEK@ZU?$less@K@std@@V?$allocator@U?$pair@$$CBKP8CDPDatabaseClient@@AEXAAVCAr@@KPAEK@Z@std@@@4@$0A@@std@@@std@@QBE_NABV012@@Z 00403450 f i DPDatabaseClient.obj
 0001:00002460       ?_Mynode@const_iterator@?$_Tree@V?$_Tmap_traits@KP8CDPDatabaseClient@@AEXAAVCAr@@KPAEK@ZU?$less@K@std@@V?$allocator@U?$pair@$$CBKP8CDPDatabaseClient@@AEXAAVCAr@@KPAEK@Z@std@@@4@$0A@@std@@@std@@QBEPAU_Node@?$_Tree_nod@V?$_Tmap_traits@KP8CDPDatabaseClient@@AEXAAVCAr@@KPAEK@ZU?$less@K@std@@V?$allocator@U?$pair@$$CBKP8CDPDatabaseClient@@AEXAAVCAr@@KPAEK@Z@std@@@4@$0A@@std@@@3@XZ 00403460 f i DPDatabaseClient.obj
 0001:00002470       ??0?$pair@Viterator@?$_Tree@V?$_Tmap_traits@KP8CDPDatabaseClient@@AEXAAVCAr@@KPAEK@ZU?$less@K@std@@V?$allocator@U?$pair@$$CBKP8CDPDatabaseClient@@AEXAAVCAr@@KPAEK@Z@std@@@4@$0A@@std@@@std@@_N@std@@QAE@ABViterator@?$_Tree@V?$_Tmap_traits@KP8CDPDatabaseClient@@AEXAAVCAr@@KPAEK@ZU?$less@K@std@@V?$allocator@U?$pair@$$CBKP8CDPDatabaseClient@@AEXAAVCAr@@KPAEK@Z@std@@@4@$0A@@std@@@1@AB_N@Z 00403470 f i DPDatabaseClient.obj
 0001:00002490       ?_Color@?$_Tree@V?$_Tmap_traits@KP8CDPDatabaseClient@@AEXAAVCAr@@KPAEK@ZU?$less@K@std@@V?$allocator@U?$pair@$$CBKP8CDPDatabaseClient@@AEXAAVCAr@@KPAEK@Z@std@@@4@$0A@@std@@@std@@KAAADPAU_Node@?$_Tree_nod@V?$_Tmap_traits@KP8CDPDatabaseClient@@AEXAAVCAr@@KPAEK@ZU?$less@K@std@@V?$allocator@U?$pair@$$CBKP8CDPDatabaseClient@@AEXAAVCAr@@KPAEK@Z@std@@@4@$0A@@std@@@2@@Z 00403490 f i DPDatabaseClient.obj
 0001:000024a0       ?_Parent@?$_Tree@V?$_Tmap_traits@KP8CDPDatabaseClient@@AEXAAVCAr@@KPAEK@ZU?$less@K@std@@V?$allocator@U?$pair@$$CBKP8CDPDatabaseClient@@AEXAAVCAr@@KPAEK@Z@std@@@4@$0A@@std@@@std@@KAAAPAU_Node@?$_Tree_nod@V?$_Tmap_traits@KP8CDPDatabaseClient@@AEXAAVCAr@@KPAEK@ZU?$less@K@std@@V?$allocator@U?$pair@$$CBKP8CDPDatabaseClient@@AEXAAVCAr@@KPAEK@Z@std@@@4@$0A@@std@@@2@PAU342@@Z 004034a0 f i DPDatabaseClient.obj
 0001:000024b0       ?_Myval@?$_Tree@V?$_Tmap_traits@KP8CDPDatabaseClient@@AEXAAVCAr@@KPAEK@ZU?$less@K@std@@V?$allocator@U?$pair@$$CBKP8CDPDatabaseClient@@AEXAAVCAr@@KPAEK@Z@std@@@4@$0A@@std@@@std@@KAAAU?$pair@$$CBKP8CDPDatabaseClient@@AEXAAVCAr@@KPAEK@Z@2@PAU_Node@?$_Tree_nod@V?$_Tmap_traits@KP8CDPDatabaseClient@@AEXAAVCAr@@KPAEK@ZU?$less@K@std@@V?$allocator@U?$pair@$$CBKP8CDPDatabaseClient@@AEXAAVCAr@@KPAEK@Z@std@@@4@$0A@@std@@@2@@Z 004034b0 f i DPDatabaseClient.obj
 0001:000024c0       ?_Lmost@?$_Tree@V?$_Tmap_traits@KP8CDPDatabaseClient@@AEXAAVCAr@@KPAEK@ZU?$less@K@std@@V?$allocator@U?$pair@$$CBKP8CDPDatabaseClient@@AEXAAVCAr@@KPAEK@Z@std@@@4@$0A@@std@@@std@@IAEAAPAU_Node@?$_Tree_nod@V?$_Tmap_traits@KP8CDPDatabaseClient@@AEXAAVCAr@@KPAEK@ZU?$less@K@std@@V?$allocator@U?$pair@$$CBKP8CDPDatabaseClient@@AEXAAVCAr@@KPAEK@Z@std@@@4@$0A@@std@@@2@XZ 004034c0 f i DPDatabaseClient.obj
 0001:000024d0       ?_Rmost@?$_Tree@V?$_Tmap_traits@KP8CDPDatabaseClient@@AEXAAVCAr@@KPAEK@ZU?$less@K@std@@V?$allocator@U?$pair@$$CBKP8CDPDatabaseClient@@AEXAAVCAr@@KPAEK@Z@std@@@4@$0A@@std@@@std@@IAEAAPAU_Node@?$_Tree_nod@V?$_Tmap_traits@KP8CDPDatabaseClient@@AEXAAVCAr@@KPAEK@ZU?$less@K@std@@V?$allocator@U?$pair@$$CBKP8CDPDatabaseClient@@AEXAAVCAr@@KPAEK@Z@std@@@4@$0A@@std@@@2@XZ 004034d0 f i DPDatabaseClient.obj
 0001:000024e0       ??0?$allocator@U?$pair@$$CBKP8CDPDatabaseClient@@AEXAAVCAr@@KPAEK@Z@std@@@std@@QAE@ABV01@@Z 004034e0 f i DPDatabaseClient.obj
 0001:000024f0       ?deallocate@?$allocator@U_Node@?$_Tree_nod@V?$_Tmap_traits@KP8CDPDatabaseClient@@AEXAAVCAr@@KPAEK@ZU?$less@K@std@@V?$allocator@U?$pair@$$CBKP8CDPDatabaseClient@@AEXAAVCAr@@KPAEK@Z@std@@@4@$0A@@std@@@std@@@std@@QAEXPAU_Node@?$_Tree_nod@V?$_Tmap_traits@KP8CDPDatabaseClient@@AEXAAVCAr@@KPAEK@ZU?$less@K@std@@V?$allocator@U?$pair@$$CBKP8CDPDatabaseClient@@AEXAAVCAr@@KPAEK@Z@std@@@4@$0A@@std@@@2@I@Z 004034f0 f i DPDatabaseClient.obj
 0001:00002500       ??0const_iterator@?$_Tree@V?$_Tmap_traits@KP8CDPDatabaseClient@@AEXAAVCAr@@KPAEK@ZU?$less@K@std@@V?$allocator@U?$pair@$$CBKP8CDPDatabaseClient@@AEXAAVCAr@@KPAEK@Z@std@@@4@$0A@@std@@@std@@QAE@PAU_Node@?$_Tree_nod@V?$_Tmap_traits@KP8CDPDatabaseClient@@AEXAAVCAr@@KPAEK@ZU?$less@K@std@@V?$allocator@U?$pair@$$CBKP8CDPDatabaseClient@@AEXAAVCAr@@KPAEK@Z@std@@@4@$0A@@std@@@2@@Z 00403500 f i DPDatabaseClient.obj
 0001:00002510       ??Dconst_iterator@?$_Tree@V?$_Tmap_traits@KP8CDPDatabaseClient@@AEXAAVCAr@@KPAEK@ZU?$less@K@std@@V?$allocator@U?$pair@$$CBKP8CDPDatabaseClient@@AEXAAVCAr@@KPAEK@Z@std@@@4@$0A@@std@@@std@@QBEABU?$pair@$$CBKP8CDPDatabaseClient@@AEXAAVCAr@@KPAEK@Z@2@XZ 00403510 f i DPDatabaseClient.obj
 0001:00002520       ?_Root@?$_Tree@V?$_Tmap_traits@KP8CDPDatabaseClient@@AEXAAVCAr@@KPAEK@ZU?$less@K@std@@V?$allocator@U?$pair@$$CBKP8CDPDatabaseClient@@AEXAAVCAr@@KPAEK@Z@std@@@4@$0A@@std@@@std@@IBEAAPAU_Node@?$_Tree_nod@V?$_Tmap_traits@KP8CDPDatabaseClient@@AEXAAVCAr@@KPAEK@ZU?$less@K@std@@V?$allocator@U?$pair@$$CBKP8CDPDatabaseClient@@AEXAAVCAr@@KPAEK@Z@std@@@4@$0A@@std@@@2@XZ 00403520 f i DPDatabaseClient.obj
 0001:00002530       ?max_size@?$allocator@U?$pair@$$CBKP8CDPDatabaseClient@@AEXAAVCAr@@KPAEK@Z@std@@@std@@QBEIXZ 00403530 f i DPDatabaseClient.obj
 0001:00002540       ??0_Node@?$_Tree_nod@V?$_Tmap_traits@KP8CDPDatabaseClient@@AEXAAVCAr@@KPAEK@ZU?$less@K@std@@V?$allocator@U?$pair@$$CBKP8CDPDatabaseClient@@AEXAAVCAr@@KPAEK@Z@std@@@4@$0A@@std@@@std@@QAE@PAU012@00ABU?$pair@$$CBKP8CDPDatabaseClient@@AEXAAVCAr@@KPAEK@Z@2@D@Z 00403540 f i DPDatabaseClient.obj
 0001:00002580       ?_Max@?$_Tree@V?$_Tmap_traits@KP8CDPDatabaseClient@@AEXAAVCAr@@KPAEK@ZU?$less@K@std@@V?$allocator@U?$pair@$$CBKP8CDPDatabaseClient@@AEXAAVCAr@@KPAEK@Z@std@@@4@$0A@@std@@@std@@KAPAU_Node@?$_Tree_nod@V?$_Tmap_traits@KP8CDPDatabaseClient@@AEXAAVCAr@@KPAEK@ZU?$less@K@std@@V?$allocator@U?$pair@$$CBKP8CDPDatabaseClient@@AEXAAVCAr@@KPAEK@Z@std@@@4@$0A@@std@@@2@PAU342@@Z 00403580 f i DPDatabaseClient.obj
 0001:000025a0       ?_Min@?$_Tree@V?$_Tmap_traits@KP8CDPDatabaseClient@@AEXAAVCAr@@KPAEK@ZU?$less@K@std@@V?$allocator@U?$pair@$$CBKP8CDPDatabaseClient@@AEXAAVCAr@@KPAEK@Z@std@@@4@$0A@@std@@@std@@KAPAU_Node@?$_Tree_nod@V?$_Tmap_traits@KP8CDPDatabaseClient@@AEXAAVCAr@@KPAEK@ZU?$less@K@std@@V?$allocator@U?$pair@$$CBKP8CDPDatabaseClient@@AEXAAVCAr@@KPAEK@Z@std@@@4@$0A@@std@@@2@PAU342@@Z 004035a0 f i DPDatabaseClient.obj
 0001:000025c0       ??0?$_Tmap_traits@KP8CDPDatabaseClient@@AEXAAVCAr@@KPAEK@ZU?$less@K@std@@V?$allocator@U?$pair@$$CBKP8CDPDatabaseClient@@AEXAAVCAr@@KPAEK@Z@std@@@4@$0A@@std@@QAE@U?$less@K@1@@Z 004035c0 f i DPDatabaseClient.obj
 0001:000025d0       ?_Inc@const_iterator@?$_Tree@V?$_Tmap_traits@KP8CDPDatabaseClient@@AEXAAVCAr@@KPAEK@ZU?$less@K@std@@V?$allocator@U?$pair@$$CBKP8CDPDatabaseClient@@AEXAAVCAr@@KPAEK@Z@std@@@4@$0A@@std@@@std@@QAEXXZ 004035d0 f i DPDatabaseClient.obj
 0001:00002630       ??$_Destroy@PAU_Node@?$_Tree_nod@V?$_Tmap_traits@KP8CDPDatabaseClient@@AEXAAVCAr@@KPAEK@ZU?$less@K@std@@V?$allocator@U?$pair@$$CBKP8CDPDatabaseClient@@AEXAAVCAr@@KPAEK@Z@std@@@4@$0A@@std@@@std@@@std@@YAXPAPAU_Node@?$_Tree_nod@V?$_Tmap_traits@KP8CDPDatabaseClient@@AEXAAVCAr@@KPAEK@ZU?$less@K@std@@V?$allocator@U?$pair@$$CBKP8CDPDatabaseClient@@AEXAAVCAr@@KPAEK@Z@std@@@4@$0A@@std@@@0@@Z 00403630 f i DPDatabaseClient.obj
 0001:00002640       ??$?0U?$pair@$$CBKP8CDPDatabaseClient@@AEXAAVCAr@@KPAEK@Z@std@@@?$allocator@PAU_Node@?$_Tree_nod@V?$_Tmap_traits@KP8CDPDatabaseClient@@AEXAAVCAr@@KPAEK@ZU?$less@K@std@@V?$allocator@U?$pair@$$CBKP8CDPDatabaseClient@@AEXAAVCAr@@KPAEK@Z@std@@@4@$0A@@std@@@std@@@std@@QAE@ABV?$allocator@U?$pair@$$CBKP8CDPDatabaseClient@@AEXAAVCAr@@KPAEK@Z@std@@@1@@Z 00403640 f i DPDatabaseClient.obj
 0001:00002650       ??$_Allocate@U_Node@?$_Tree_nod@V?$_Tmap_traits@KP8CDPDatabaseClient@@AEXAAVCAr@@KPAEK@ZU?$less@K@std@@V?$allocator@U?$pair@$$CBKP8CDPDatabaseClient@@AEXAAVCAr@@KPAEK@Z@std@@@4@$0A@@std@@@std@@@std@@YAPAU_Node@?$_Tree_nod@V?$_Tmap_traits@KP8CDPDatabaseClient@@AEXAAVCAr@@KPAEK@ZU?$less@K@std@@V?$allocator@U?$pair@$$CBKP8CDPDatabaseClient@@AEXAAVCAr@@KPAEK@Z@std@@@4@$0A@@std@@@0@IPAU120@@Z 00403650 f i DPDatabaseClient.obj
 0001:00002670       ??$?0U?$pair@$$CBKP8CDPDatabaseClient@@AEXAAVCAr@@KPAEK@Z@std@@@?$allocator@U_Node@?$_Tree_nod@V?$_Tmap_traits@KP8CDPDatabaseClient@@AEXAAVCAr@@KPAEK@ZU?$less@K@std@@V?$allocator@U?$pair@$$CBKP8CDPDatabaseClient@@AEXAAVCAr@@KPAEK@Z@std@@@4@$0A@@std@@@std@@@std@@QAE@ABV?$allocator@U?$pair@$$CBKP8CDPDatabaseClient@@AEXAAVCAr@@KPAEK@Z@std@@@1@@Z 00403670 f i DPDatabaseClient.obj
 0001:00002680       ??$_Destroy@U_Node@?$_Tree_nod@V?$_Tmap_traits@KP8CDPDatabaseClient@@AEXAAVCAr@@KPAEK@ZU?$less@K@std@@V?$allocator@U?$pair@$$CBKP8CDPDatabaseClient@@AEXAAVCAr@@KPAEK@Z@std@@@4@$0A@@std@@@std@@@std@@YAXPAU_Node@?$_Tree_nod@V?$_Tmap_traits@KP8CDPDatabaseClient@@AEXAAVCAr@@KPAEK@ZU?$less@K@std@@V?$allocator@U?$pair@$$CBKP8CDPDatabaseClient@@AEXAAVCAr@@KPAEK@Z@std@@@4@$0A@@std@@@0@@Z 00403680 f i DPDatabaseClient.obj
 0001:00002690       ??$_Construct@PAU_Node@?$_Tree_nod@V?$_Tmap_traits@KP8CDPDatabaseClient@@AEXAAVCAr@@KPAEK@ZU?$less@K@std@@V?$allocator@U?$pair@$$CBKP8CDPDatabaseClient@@AEXAAVCAr@@KPAEK@Z@std@@@4@$0A@@std@@@std@@PAU123@@std@@YAXPAPAU_Node@?$_Tree_nod@V?$_Tmap_traits@KP8CDPDatabaseClient@@AEXAAVCAr@@KPAEK@ZU?$less@K@std@@V?$allocator@U?$pair@$$CBKP8CDPDatabaseClient@@AEXAAVCAr@@KPAEK@Z@std@@@4@$0A@@std@@@0@ABQAU120@@Z 00403690 f i DPDatabaseClient.obj
 0001:000026b0       ??6CAr@@QAEAAV0@H@Z        004036b0 f i DPDatabaseClient.obj
 0001:000026d0       ??6CAr@@QAEAAV0@I@Z        004036d0 f i DPDatabaseClient.obj
 0001:000026f0       ??5CAr@@QAEAAV0@AAH@Z      004036f0 f i DPDatabaseClient.obj
 0001:00002730       ?SendLeave@CDPDatabaseClient@@QAEXPBDKK@Z 00403730 f   DPDatabaseClient.obj
 0001:00002860       ?SendCloseError@CDPDatabaseClient@@QAEXPBD@Z 00403860 f   DPDatabaseClient.obj
 0001:00002950       ?OnCloseExistingConnection@CDPDatabaseClient@@AAEXAAVCAr@@KPAEK@Z 00403950 f   DPDatabaseClient.obj
 0001:00002a60       ?OnOneHourNotify@CDPDatabaseClient@@AAEXAAVCAr@@KPAEK@Z 00403a60 f   DPDatabaseClient.obj
 0001:00002b10       ?OnPlayerList@CDPDatabaseClient@@AAEXAAVCAr@@KPAEK@Z 00403b10 f   DPDatabaseClient.obj
 0001:00002bb0       ?OnFail@CDPDatabaseClient@@AAEXAAVCAr@@KPAEK@Z 00403bb0 f   DPDatabaseClient.obj
 0001:00002cb0       ?OnLoginProtect@CDPDatabaseClient@@AAEXAAVCAr@@KPAEK@Z 00403cb0 f   DPDatabaseClient.obj
 0001:00002e40       ?SendLoginProtect@CDPDatabaseClient@@QAEXPBD0KHK@Z 00403e40 f   DPDatabaseClient.obj
 0001:00002f90       ??9const_iterator@?$_Tree@V?$_Tmap_traits@KP8CDPDatabaseClient@@AEXAAVCAr@@KPAEK@ZU?$less@K@std@@V?$allocator@U?$pair@$$CBKP8CDPDatabaseClient@@AEXAAVCAr@@KPAEK@Z@std@@@4@$0A@@std@@@std@@QBE_NABV012@@Z 00403f90 f i DPDatabaseClient.obj
 0001:00002fb0       ?_Key@?$_Tree@V?$_Tmap_traits@KP8CDPDatabaseClient@@AEXAAVCAr@@KPAEK@ZU?$less@K@std@@V?$allocator@U?$pair@$$CBKP8CDPDatabaseClient@@AEXAAVCAr@@KPAEK@Z@std@@@4@$0A@@std@@@std@@KAABKPAU_Node@?$_Tree_nod@V?$_Tmap_traits@KP8CDPDatabaseClient@@AEXAAVCAr@@KPAEK@ZU?$less@K@std@@V?$allocator@U?$pair@$$CBKP8CDPDatabaseClient@@AEXAAVCAr@@KPAEK@Z@std@@@4@$0A@@std@@@2@@Z 00403fb0 f i DPDatabaseClient.obj
 0001:00002fc0       ?_Root@?$_Tree@V?$_Tmap_traits@KP8CDPDatabaseClient@@AEXAAVCAr@@KPAEK@ZU?$less@K@std@@V?$allocator@U?$pair@$$CBKP8CDPDatabaseClient@@AEXAAVCAr@@KPAEK@Z@std@@@4@$0A@@std@@@std@@IAEAAPAU_Node@?$_Tree_nod@V?$_Tmap_traits@KP8CDPDatabaseClient@@AEXAAVCAr@@KPAEK@ZU?$less@K@std@@V?$allocator@U?$pair@$$CBKP8CDPDatabaseClient@@AEXAAVCAr@@KPAEK@Z@std@@@4@$0A@@std@@@2@XZ 00403fc0 f i DPDatabaseClient.obj
 0001:00002fd0       ??0iterator@?$_Tree@V?$_Tmap_traits@KP8CDPDatabaseClient@@AEXAAVCAr@@KPAEK@ZU?$less@K@std@@V?$allocator@U?$pair@$$CBKP8CDPDatabaseClient@@AEXAAVCAr@@KPAEK@Z@std@@@4@$0A@@std@@@std@@QAE@PAU_Node@?$_Tree_nod@V?$_Tmap_traits@KP8CDPDatabaseClient@@AEXAAVCAr@@KPAEK@ZU?$less@K@std@@V?$allocator@U?$pair@$$CBKP8CDPDatabaseClient@@AEXAAVCAr@@KPAEK@Z@std@@@4@$0A@@std@@@2@@Z 00403fd0 f i DPDatabaseClient.obj
 0001:00002fe0       ??Diterator@?$_Tree@V?$_Tmap_traits@KP8CDPDatabaseClient@@AEXAAVCAr@@KPAEK@ZU?$less@K@std@@V?$allocator@U?$pair@$$CBKP8CDPDatabaseClient@@AEXAAVCAr@@KPAEK@Z@std@@@4@$0A@@std@@@std@@QBEAAU?$pair@$$CBKP8CDPDatabaseClient@@AEXAAVCAr@@KPAEK@Z@2@XZ 00403fe0 f i DPDatabaseClient.obj
 0001:00002ff0       ?max_size@?$_Tree@V?$_Tmap_traits@KP8CDPDatabaseClient@@AEXAAVCAr@@KPAEK@ZU?$less@K@std@@V?$allocator@U?$pair@$$CBKP8CDPDatabaseClient@@AEXAAVCAr@@KPAEK@Z@std@@@4@$0A@@std@@@std@@QBEIXZ 00403ff0 f i DPDatabaseClient.obj
 0001:00003000       ?_Lbound@?$_Tree@V?$_Tmap_traits@KP8CDPDatabaseClient@@AEXAAVCAr@@KPAEK@ZU?$less@K@std@@V?$allocator@U?$pair@$$CBKP8CDPDatabaseClient@@AEXAAVCAr@@KPAEK@Z@std@@@4@$0A@@std@@@std@@IBEPAU_Node@?$_Tree_nod@V?$_Tmap_traits@KP8CDPDatabaseClient@@AEXAAVCAr@@KPAEK@ZU?$less@K@std@@V?$allocator@U?$pair@$$CBKP8CDPDatabaseClient@@AEXAAVCAr@@KPAEK@Z@std@@@4@$0A@@std@@@2@ABK@Z 00404000 f i DPDatabaseClient.obj
 0001:00003030       ?_Lrotate@?$_Tree@V?$_Tmap_traits@KP8CDPDatabaseClient@@AEXAAVCAr@@KPAEK@ZU?$less@K@std@@V?$allocator@U?$pair@$$CBKP8CDPDatabaseClient@@AEXAAVCAr@@KPAEK@Z@std@@@4@$0A@@std@@@std@@IAEXPAU_Node@?$_Tree_nod@V?$_Tmap_traits@KP8CDPDatabaseClient@@AEXAAVCAr@@KPAEK@ZU?$less@K@std@@V?$allocator@U?$pair@$$CBKP8CDPDatabaseClient@@AEXAAVCAr@@KPAEK@Z@std@@@4@$0A@@std@@@2@@Z 00404030 f i DPDatabaseClient.obj
 0001:00003090       ?_Rrotate@?$_Tree@V?$_Tmap_traits@KP8CDPDatabaseClient@@AEXAAVCAr@@KPAEK@ZU?$less@K@std@@V?$allocator@U?$pair@$$CBKP8CDPDatabaseClient@@AEXAAVCAr@@KPAEK@Z@std@@@4@$0A@@std@@@std@@IAEXPAU_Node@?$_Tree_nod@V?$_Tmap_traits@KP8CDPDatabaseClient@@AEXAAVCAr@@KPAEK@ZU?$less@K@std@@V?$allocator@U?$pair@$$CBKP8CDPDatabaseClient@@AEXAAVCAr@@KPAEK@Z@std@@@4@$0A@@std@@@2@@Z 00404090 f i DPDatabaseClient.obj
 0001:000030f0       ?destroy@?$allocator@PAU_Node@?$_Tree_nod@V?$_Tmap_traits@KP8CDPDatabaseClient@@AEXAAVCAr@@KPAEK@ZU?$less@K@std@@V?$allocator@U?$pair@$$CBKP8CDPDatabaseClient@@AEXAAVCAr@@KPAEK@Z@std@@@4@$0A@@std@@@std@@@std@@QAEXPAPAU_Node@?$_Tree_nod@V?$_Tmap_traits@KP8CDPDatabaseClient@@AEXAAVCAr@@KPAEK@ZU?$less@K@std@@V?$allocator@U?$pair@$$CBKP8CDPDatabaseClient@@AEXAAVCAr@@KPAEK@Z@std@@@4@$0A@@std@@@2@@Z 004040f0 f i DPDatabaseClient.obj
 0001:00003100       ?allocate@?$allocator@U_Node@?$_Tree_nod@V?$_Tmap_traits@KP8CDPDatabaseClient@@AEXAAVCAr@@KPAEK@ZU?$less@K@std@@V?$allocator@U?$pair@$$CBKP8CDPDatabaseClient@@AEXAAVCAr@@KPAEK@Z@std@@@4@$0A@@std@@@std@@@std@@QAEPAU_Node@?$_Tree_nod@V?$_Tmap_traits@KP8CDPDatabaseClient@@AEXAAVCAr@@KPAEK@ZU?$less@K@std@@V?$allocator@U?$pair@$$CBKP8CDPDatabaseClient@@AEXAAVCAr@@KPAEK@Z@std@@@4@$0A@@std@@@2@I@Z 00404100 f i DPDatabaseClient.obj
 0001:00003120       ?_Dec@const_iterator@?$_Tree@V?$_Tmap_traits@KP8CDPDatabaseClient@@AEXAAVCAr@@KPAEK@ZU?$less@K@std@@V?$allocator@U?$pair@$$CBKP8CDPDatabaseClient@@AEXAAVCAr@@KPAEK@Z@std@@@4@$0A@@std@@@std@@QAEXXZ 00404120 f i DPDatabaseClient.obj
 0001:00003180       ??0?$_Tree_nod@V?$_Tmap_traits@KP8CDPDatabaseClient@@AEXAAVCAr@@KPAEK@ZU?$less@K@std@@V?$allocator@U?$pair@$$CBKP8CDPDatabaseClient@@AEXAAVCAr@@KPAEK@Z@std@@@4@$0A@@std@@@std@@IAE@ABU?$less@K@1@V?$allocator@U?$pair@$$CBKP8CDPDatabaseClient@@AEXAAVCAr@@KPAEK@Z@std@@@1@@Z 00404180 f i DPDatabaseClient.obj
 0001:00003190       ?destroy@?$allocator@U_Node@?$_Tree_nod@V?$_Tmap_traits@KP8CDPDatabaseClient@@AEXAAVCAr@@KPAEK@ZU?$less@K@std@@V?$allocator@U?$pair@$$CBKP8CDPDatabaseClient@@AEXAAVCAr@@KPAEK@Z@std@@@4@$0A@@std@@@std@@@std@@QAEXPAU_Node@?$_Tree_nod@V?$_Tmap_traits@KP8CDPDatabaseClient@@AEXAAVCAr@@KPAEK@ZU?$less@K@std@@V?$allocator@U?$pair@$$CBKP8CDPDatabaseClient@@AEXAAVCAr@@KPAEK@Z@std@@@4@$0A@@std@@@2@@Z 00404190 f i DPDatabaseClient.obj
 0001:000031a0       ?construct@?$allocator@PAU_Node@?$_Tree_nod@V?$_Tmap_traits@KP8CDPDatabaseClient@@AEXAAVCAr@@KPAEK@ZU?$less@K@std@@V?$allocator@U?$pair@$$CBKP8CDPDatabaseClient@@AEXAAVCAr@@KPAEK@Z@std@@@4@$0A@@std@@@std@@@std@@QAEXPAPAU_Node@?$_Tree_nod@V?$_Tmap_traits@KP8CDPDatabaseClient@@AEXAAVCAr@@KPAEK@ZU?$less@K@std@@V?$allocator@U?$pair@$$CBKP8CDPDatabaseClient@@AEXAAVCAr@@KPAEK@Z@std@@@4@$0A@@std@@@2@ABQAU342@@Z 004041a0 f i DPDatabaseClient.obj
 0001:000031c0       ??Econst_iterator@?$_Tree@V?$_Tmap_traits@KP8CDPDatabaseClient@@AEXAAVCAr@@KPAEK@ZU?$less@K@std@@V?$allocator@U?$pair@$$CBKP8CDPDatabaseClient@@AEXAAVCAr@@KPAEK@Z@std@@@4@$0A@@std@@@std@@QAEAAV012@XZ 004041c0 f i DPDatabaseClient.obj
 0001:000031d0       ?end@?$_Tree@V?$_Tmap_traits@KP8CDPDatabaseClient@@AEXAAVCAr@@KPAEK@ZU?$less@K@std@@V?$allocator@U?$pair@$$CBKP8CDPDatabaseClient@@AEXAAVCAr@@KPAEK@Z@std@@@4@$0A@@std@@@std@@QAE?AViterator@12@XZ 004041d0 f i DPDatabaseClient.obj
 0001:000031e0       ??Citerator@?$_Tree@V?$_Tmap_traits@KP8CDPDatabaseClient@@AEXAAVCAr@@KPAEK@ZU?$less@K@std@@V?$allocator@U?$pair@$$CBKP8CDPDatabaseClient@@AEXAAVCAr@@KPAEK@Z@std@@@4@$0A@@std@@@std@@QBEPAU?$pair@$$CBKP8CDPDatabaseClient@@AEXAAVCAr@@KPAEK@Z@2@XZ 004041e0 f i DPDatabaseClient.obj
 0001:000031f0       ?begin@?$_Tree@V?$_Tmap_traits@KP8CDPDatabaseClient@@AEXAAVCAr@@KPAEK@ZU?$less@K@std@@V?$allocator@U?$pair@$$CBKP8CDPDatabaseClient@@AEXAAVCAr@@KPAEK@Z@std@@@4@$0A@@std@@@std@@QAE?AViterator@12@XZ 004041f0 f i DPDatabaseClient.obj
 0001:00003200       ?lower_bound@?$_Tree@V?$_Tmap_traits@KP8CDPDatabaseClient@@AEXAAVCAr@@KPAEK@ZU?$less@K@std@@V?$allocator@U?$pair@$$CBKP8CDPDatabaseClient@@AEXAAVCAr@@KPAEK@Z@std@@@4@$0A@@std@@@std@@QAE?AViterator@12@ABK@Z 00404200 f i DPDatabaseClient.obj
 0001:00003240       ?_Buynode@?$_Tree@V?$_Tmap_traits@KP8CDPDatabaseClient@@AEXAAVCAr@@KPAEK@ZU?$less@K@std@@V?$allocator@U?$pair@$$CBKP8CDPDatabaseClient@@AEXAAVCAr@@KPAEK@Z@std@@@4@$0A@@std@@@std@@IAEPAU_Node@?$_Tree_nod@V?$_Tmap_traits@KP8CDPDatabaseClient@@AEXAAVCAr@@KPAEK@ZU?$less@K@std@@V?$allocator@U?$pair@$$CBKP8CDPDatabaseClient@@AEXAAVCAr@@KPAEK@Z@std@@@4@$0A@@std@@@2@PAU342@00ABU?$pair@$$CBKP8CDPDatabaseClient@@AEXAAVCAr@@KPAEK@Z@2@D@Z 00404240 f i DPDatabaseClient.obj
 0001:00003280       ??Fconst_iterator@?$_Tree@V?$_Tmap_traits@KP8CDPDatabaseClient@@AEXAAVCAr@@KPAEK@ZU?$less@K@std@@V?$allocator@U?$pair@$$CBKP8CDPDatabaseClient@@AEXAAVCAr@@KPAEK@Z@std@@@4@$0A@@std@@@std@@QAEAAV012@XZ 00404280 f i DPDatabaseClient.obj
 0001:00003290       ?_Buynode@?$_Tree@V?$_Tmap_traits@KP8CDPDatabaseClient@@AEXAAVCAr@@KPAEK@ZU?$less@K@std@@V?$allocator@U?$pair@$$CBKP8CDPDatabaseClient@@AEXAAVCAr@@KPAEK@Z@std@@@4@$0A@@std@@@std@@IAEPAU_Node@?$_Tree_nod@V?$_Tmap_traits@KP8CDPDatabaseClient@@AEXAAVCAr@@KPAEK@ZU?$less@K@std@@V?$allocator@U?$pair@$$CBKP8CDPDatabaseClient@@AEXAAVCAr@@KPAEK@Z@std@@@4@$0A@@std@@@2@XZ 00404290 f i DPDatabaseClient.obj
 0001:000032d0       ??0?$_Tree_ptr@V?$_Tmap_traits@KP8CDPDatabaseClient@@AEXAAVCAr@@KPAEK@ZU?$less@K@std@@V?$allocator@U?$pair@$$CBKP8CDPDatabaseClient@@AEXAAVCAr@@KPAEK@Z@std@@@4@$0A@@std@@@std@@IAE@ABU?$less@K@1@V?$allocator@U?$pair@$$CBKP8CDPDatabaseClient@@AEXAAVCAr@@KPAEK@Z@std@@@1@@Z 004042d0 f i DPDatabaseClient.obj
 0001:000032e0       ?_Erase@?$_Tree@V?$_Tmap_traits@KP8CDPDatabaseClient@@AEXAAVCAr@@KPAEK@ZU?$less@K@std@@V?$allocator@U?$pair@$$CBKP8CDPDatabaseClient@@AEXAAVCAr@@KPAEK@Z@std@@@4@$0A@@std@@@std@@IAEXPAU_Node@?$_Tree_nod@V?$_Tmap_traits@KP8CDPDatabaseClient@@AEXAAVCAr@@KPAEK@ZU?$less@K@std@@V?$allocator@U?$pair@$$CBKP8CDPDatabaseClient@@AEXAAVCAr@@KPAEK@Z@std@@@4@$0A@@std@@@2@@Z 004042e0 f i DPDatabaseClient.obj
 0001:00003320       ??Eiterator@?$_Tree@V?$_Tmap_traits@KP8CDPDatabaseClient@@AEXAAVCAr@@KPAEK@ZU?$less@K@std@@V?$allocator@U?$pair@$$CBKP8CDPDatabaseClient@@AEXAAVCAr@@KPAEK@Z@std@@@4@$0A@@std@@@std@@QAEAAV012@XZ 00404320 f i DPDatabaseClient.obj
 0001:00003330       ?find@?$_Tree@V?$_Tmap_traits@KP8CDPDatabaseClient@@AEXAAVCAr@@KPAEK@ZU?$less@K@std@@V?$allocator@U?$pair@$$CBKP8CDPDatabaseClient@@AEXAAVCAr@@KPAEK@Z@std@@@4@$0A@@std@@@std@@QAE?AViterator@12@ABK@Z 00404330 f i DPDatabaseClient.obj
 0001:000033a0       ??Fiterator@?$_Tree@V?$_Tmap_traits@KP8CDPDatabaseClient@@AEXAAVCAr@@KPAEK@ZU?$less@K@std@@V?$allocator@U?$pair@$$CBKP8CDPDatabaseClient@@AEXAAVCAr@@KPAEK@Z@std@@@4@$0A@@std@@@std@@QAEAAV012@XZ 004043a0 f i DPDatabaseClient.obj
 0001:000033b0       ?_Init@?$_Tree@V?$_Tmap_traits@KP8CDPDatabaseClient@@AEXAAVCAr@@KPAEK@ZU?$less@K@std@@V?$allocator@U?$pair@$$CBKP8CDPDatabaseClient@@AEXAAVCAr@@KPAEK@Z@std@@@4@$0A@@std@@@std@@IAEXXZ 004043b0 f i DPDatabaseClient.obj
 0001:000033e0       ??0?$_Tree_val@V?$_Tmap_traits@KP8CDPDatabaseClient@@AEXAAVCAr@@KPAEK@ZU?$less@K@std@@V?$allocator@U?$pair@$$CBKP8CDPDatabaseClient@@AEXAAVCAr@@KPAEK@Z@std@@@4@$0A@@std@@@std@@IAE@ABU?$less@K@1@V?$allocator@U?$pair@$$CBKP8CDPDatabaseClient@@AEXAAVCAr@@KPAEK@Z@std@@@1@@Z 004043e0 f i DPDatabaseClient.obj
 0001:000033f0       ?clear@?$_Tree@V?$_Tmap_traits@KP8CDPDatabaseClient@@AEXAAVCAr@@KPAEK@ZU?$less@K@std@@V?$allocator@U?$pair@$$CBKP8CDPDatabaseClient@@AEXAAVCAr@@KPAEK@Z@std@@@4@$0A@@std@@@std@@QAEXXZ 004043f0 f i DPDatabaseClient.obj
 0001:00003420       ??Eiterator@?$_Tree@V?$_Tmap_traits@KP8CDPDatabaseClient@@AEXAAVCAr@@KPAEK@ZU?$less@K@std@@V?$allocator@U?$pair@$$CBKP8CDPDatabaseClient@@AEXAAVCAr@@KPAEK@Z@std@@@4@$0A@@std@@@std@@QAE?AV012@H@Z 00404420 f i DPDatabaseClient.obj
 0001:00003440       ?GetHandler@CDPDatabaseClient@@AAEP81@AEXAAVCAr@@KPAEK@ZK@Z 00404440 f i DPDatabaseClient.obj
 0001:00003470       ?UserMessageHandler@CDPDatabaseClient@@UAEXPAUDPMSG_GENERIC@@KK@Z 00404470 f   DPDatabaseClient.obj
 0001:00003580       ??0?$_Tree@V?$_Tmap_traits@KP8CDPDatabaseClient@@AEXAAVCAr@@KPAEK@ZU?$less@K@std@@V?$allocator@U?$pair@$$CBKP8CDPDatabaseClient@@AEXAAVCAr@@KPAEK@Z@std@@@4@$0A@@std@@@std@@QAE@ABU?$less@K@1@ABV?$allocator@U?$pair@$$CBKP8CDPDatabaseClient@@AEXAAVCAr@@KPAEK@Z@std@@@1@@Z 00404580 f i DPDatabaseClient.obj
 0001:000035b0       ?_Insert@?$_Tree@V?$_Tmap_traits@KP8CDPDatabaseClient@@AEXAAVCAr@@KPAEK@ZU?$less@K@std@@V?$allocator@U?$pair@$$CBKP8CDPDatabaseClient@@AEXAAVCAr@@KPAEK@Z@std@@@4@$0A@@std@@@std@@IAE?AViterator@12@_NPAU_Node@?$_Tree_nod@V?$_Tmap_traits@KP8CDPDatabaseClient@@AEXAAVCAr@@KPAEK@ZU?$less@K@std@@V?$allocator@U?$pair@$$CBKP8CDPDatabaseClient@@AEXAAVCAr@@KPAEK@Z@std@@@4@$0A@@std@@@2@ABU?$pair@$$CBKP8CDPDatabaseClient@@AEXAAVCAr@@KPAEK@Z@2@@Z 004045b0 f i DPDatabaseClient.obj
 0001:00003760       ?erase@?$_Tree@V?$_Tmap_traits@KP8CDPDatabaseClient@@AEXAAVCAr@@KPAEK@ZU?$less@K@std@@V?$allocator@U?$pair@$$CBKP8CDPDatabaseClient@@AEXAAVCAr@@KPAEK@Z@std@@@4@$0A@@std@@@std@@QAE?AViterator@12@V312@@Z 00404760 f i DPDatabaseClient.obj
 0001:00003a20       ?insert@?$_Tree@V?$_Tmap_traits@KP8CDPDatabaseClient@@AEXAAVCAr@@KPAEK@ZU?$less@K@std@@V?$allocator@U?$pair@$$CBKP8CDPDatabaseClient@@AEXAAVCAr@@KPAEK@Z@std@@@4@$0A@@std@@@std@@QAE?AU?$pair@Viterator@?$_Tree@V?$_Tmap_traits@KP8CDPDatabaseClient@@AEXAAVCAr@@KPAEK@ZU?$less@K@std@@V?$allocator@U?$pair@$$CBKP8CDPDatabaseClient@@AEXAAVCAr@@KPAEK@Z@std@@@4@$0A@@std@@@std@@_N@2@ABU?$pair@$$CBKP8CDPDatabaseClient@@AEXAAVCAr@@KPAEK@Z@2@@Z 00404a20 f i DPDatabaseClient.obj
 0001:00003ae0       ?erase@?$_Tree@V?$_Tmap_traits@KP8CDPDatabaseClient@@AEXAAVCAr@@KPAEK@ZU?$less@K@std@@V?$allocator@U?$pair@$$CBKP8CDPDatabaseClient@@AEXAAVCAr@@KPAEK@Z@std@@@4@$0A@@std@@@std@@QAE?AViterator@12@V312@0@Z 00404ae0 f i DPDatabaseClient.obj
 0001:00003ba0       ?_Tidy@?$_Tree@V?$_Tmap_traits@KP8CDPDatabaseClient@@AEXAAVCAr@@KPAEK@ZU?$less@K@std@@V?$allocator@U?$pair@$$CBKP8CDPDatabaseClient@@AEXAAVCAr@@KPAEK@Z@std@@@4@$0A@@std@@@std@@IAEXXZ 00404ba0 f i DPDatabaseClient.obj
 0001:00003bd0       ??1?$_Tree@V?$_Tmap_traits@KP8CDPDatabaseClient@@AEXAAVCAr@@KPAEK@ZU?$less@K@std@@V?$allocator@U?$pair@$$CBKP8CDPDatabaseClient@@AEXAAVCAr@@KPAEK@Z@std@@@4@$0A@@std@@@std@@QAE@XZ 00404bd0 f i DPDatabaseClient.obj
 0001:00003c00       ??1?$map@KP8CDPDatabaseClient@@AEXAAVCAr@@KPAEK@ZU?$less@K@std@@V?$allocator@U?$pair@$$CBKP8CDPDatabaseClient@@AEXAAVCAr@@KPAEK@Z@std@@@4@@std@@QAE@XZ 00404c00 f i DPDatabaseClient.obj
 0001:00003c30       ??1CDPDatabaseClient@@UAE@XZ 00404c30 f   DPDatabaseClient.obj
 0001:00003cb0       ??0?$map@KP8CDPDatabaseClient@@AEXAAVCAr@@KPAEK@ZU?$less@K@std@@V?$allocator@U?$pair@$$CBKP8CDPDatabaseClient@@AEXAAVCAr@@KPAEK@Z@std@@@4@@std@@QAE@XZ 00404cb0 f i DPDatabaseClient.obj
 0001:00003ce0       ??0CDPDatabaseClient@@QAE@XZ 00404ce0 f   DPDatabaseClient.obj
 0001:00003e00       ??_ECDPDatabaseClient@@UAEPAXI@Z 00404e00 f i DPDatabaseClient.obj
 0001:00003e00       ??_GCDPDatabaseClient@@UAEPAXI@Z 00404e00 f i DPDatabaseClient.obj
 0001:00003e20       ??6@YAAAVCAr@@AAV0@_J@Z    00404e20 f i DPLoginSrvr.obj
 0001:00003e40       ?SendToServer@CDPDatabaseClient@@QAEXKPAXK@Z 00404e40 f i DPLoginSrvr.obj
 0001:00003e70       ?SetAuth@CUser@@QAEXH@Z    00404e70 f i DPLoginSrvr.obj
 0001:00003e80       ?GetAuth@CUser@@QAEHXZ     00404e80 f i DPLoginSrvr.obj
 0001:00003e90       ?AddCahce@CDPLoginSrvr@@QAEXPBD@Z 00404e90 f   DPLoginSrvr.obj
 0001:00003ec0       ?CacheIn@CDPLoginSrvr@@QAEHXZ 00404ec0 f   DPLoginSrvr.obj
 0001:00003f00       ?CacheOut@CDPLoginSrvr@@QAEXH@Z 00404f00 f   DPLoginSrvr.obj
 0001:00003f10       ?SendCacheAddr@CDPLoginSrvr@@QAEXHK@Z 00404f10 f   DPLoginSrvr.obj
 0001:00004000       ?SendError@CDPLoginSrvr@@QAEXJK@Z 00405000 f   DPLoginSrvr.obj
 0001:000040f0       ?SendHdr@CDPLoginSrvr@@QAEXKK@Z 004050f0 f   DPLoginSrvr.obj
 0001:000041c0       ?OnRemoveConnection@CDPLoginSrvr@@AAEXK@Z 004051c0 f   DPLoginSrvr.obj
 0001:000041d0       ?SendNumPadId@CDPLoginSrvr@@AAEXK@Z 004051d0 f   DPLoginSrvr.obj
 0001:000042d0       ??0?$pair@$$CBKP8CDPLoginSrvr@@AEXAAVCAr@@K@Z@std@@QAE@ABKABQ8CDPLoginSrvr@@AEXAAVCAr@@K@Z@Z 004052d0 f i DPLoginSrvr.obj
 0001:000042f0       ?Free@?$MemPooler@VCUser@@@@QAEHPAVCUser@@@Z 004052f0 f i DPLoginSrvr.obj
 0001:00004340       ?_Isnil@?$_Tree@V?$_Tmap_traits@KP8CDPLoginSrvr@@AEXAAVCAr@@K@ZU?$less@K@std@@V?$allocator@U?$pair@$$CBKP8CDPLoginSrvr@@AEXAAVCAr@@K@Z@std@@@4@$0A@@std@@@std@@KAAADPAU_Node@?$_Tree_nod@V?$_Tmap_traits@KP8CDPLoginSrvr@@AEXAAVCAr@@K@ZU?$less@K@std@@V?$allocator@U?$pair@$$CBKP8CDPLoginSrvr@@AEXAAVCAr@@K@Z@std@@@4@$0A@@std@@@2@@Z 00405340 f i DPLoginSrvr.obj
 0001:00004350       ?_Left@?$_Tree@V?$_Tmap_traits@KP8CDPLoginSrvr@@AEXAAVCAr@@K@ZU?$less@K@std@@V?$allocator@U?$pair@$$CBKP8CDPLoginSrvr@@AEXAAVCAr@@K@Z@std@@@4@$0A@@std@@@std@@KAAAPAU_Node@?$_Tree_nod@V?$_Tmap_traits@KP8CDPLoginSrvr@@AEXAAVCAr@@K@ZU?$less@K@std@@V?$allocator@U?$pair@$$CBKP8CDPLoginSrvr@@AEXAAVCAr@@K@Z@std@@@4@$0A@@std@@@2@PAU342@@Z 00405350 f i DPLoginSrvr.obj
 0001:00004360       ?_Right@?$_Tree@V?$_Tmap_traits@KP8CDPLoginSrvr@@AEXAAVCAr@@K@ZU?$less@K@std@@V?$allocator@U?$pair@$$CBKP8CDPLoginSrvr@@AEXAAVCAr@@K@Z@std@@@4@$0A@@std@@@std@@KAAAPAU_Node@?$_Tree_nod@V?$_Tmap_traits@KP8CDPLoginSrvr@@AEXAAVCAr@@K@ZU?$less@K@std@@V?$allocator@U?$pair@$$CBKP8CDPLoginSrvr@@AEXAAVCAr@@K@Z@std@@@4@$0A@@std@@@2@PAU342@@Z 00405360 f i DPLoginSrvr.obj
 0001:00004370       ?_Kfn@?$_Tmap_traits@KP8CDPLoginSrvr@@AEXAAVCAr@@K@ZU?$less@K@std@@V?$allocator@U?$pair@$$CBKP8CDPLoginSrvr@@AEXAAVCAr@@K@Z@std@@@4@$0A@@std@@SAABKABU?$pair@$$CBKP8CDPLoginSrvr@@AEXAAVCAr@@K@Z@2@@Z 00405370 f i DPLoginSrvr.obj
 0001:00004380       ??0?$allocator@U?$pair@$$CBKP8CDPLoginSrvr@@AEXAAVCAr@@K@Z@std@@@std@@QAE@XZ 00405380 f i DPLoginSrvr.obj
 0001:00004390       ??8const_iterator@?$_Tree@V?$_Tmap_traits@KP8CDPLoginSrvr@@AEXAAVCAr@@K@ZU?$less@K@std@@V?$allocator@U?$pair@$$CBKP8CDPLoginSrvr@@AEXAAVCAr@@K@Z@std@@@4@$0A@@std@@@std@@QBE_NABV012@@Z 00405390 f i DPLoginSrvr.obj
 0001:000043a0       ?_Mynode@const_iterator@?$_Tree@V?$_Tmap_traits@KP8CDPLoginSrvr@@AEXAAVCAr@@K@ZU?$less@K@std@@V?$allocator@U?$pair@$$CBKP8CDPLoginSrvr@@AEXAAVCAr@@K@Z@std@@@4@$0A@@std@@@std@@QBEPAU_Node@?$_Tree_nod@V?$_Tmap_traits@KP8CDPLoginSrvr@@AEXAAVCAr@@K@ZU?$less@K@std@@V?$allocator@U?$pair@$$CBKP8CDPLoginSrvr@@AEXAAVCAr@@K@Z@std@@@4@$0A@@std@@@3@XZ 004053a0 f i DPLoginSrvr.obj
 0001:000043b0       ??0?$pair@Viterator@?$_Tree@V?$_Tmap_traits@KP8CDPLoginSrvr@@AEXAAVCAr@@K@ZU?$less@K@std@@V?$allocator@U?$pair@$$CBKP8CDPLoginSrvr@@AEXAAVCAr@@K@Z@std@@@4@$0A@@std@@@std@@_N@std@@QAE@ABViterator@?$_Tree@V?$_Tmap_traits@KP8CDPLoginSrvr@@AEXAAVCAr@@K@ZU?$less@K@std@@V?$allocator@U?$pair@$$CBKP8CDPLoginSrvr@@AEXAAVCAr@@K@Z@std@@@4@$0A@@std@@@1@AB_N@Z 004053b0 f i DPLoginSrvr.obj
 0001:000043d0       ?_Color@?$_Tree@V?$_Tmap_traits@KP8CDPLoginSrvr@@AEXAAVCAr@@K@ZU?$less@K@std@@V?$allocator@U?$pair@$$CBKP8CDPLoginSrvr@@AEXAAVCAr@@K@Z@std@@@4@$0A@@std@@@std@@KAAADPAU_Node@?$_Tree_nod@V?$_Tmap_traits@KP8CDPLoginSrvr@@AEXAAVCAr@@K@ZU?$less@K@std@@V?$allocator@U?$pair@$$CBKP8CDPLoginSrvr@@AEXAAVCAr@@K@Z@std@@@4@$0A@@std@@@2@@Z 004053d0 f i DPLoginSrvr.obj
 0001:000043e0       ?_Parent@?$_Tree@V?$_Tmap_traits@KP8CDPLoginSrvr@@AEXAAVCAr@@K@ZU?$less@K@std@@V?$allocator@U?$pair@$$CBKP8CDPLoginSrvr@@AEXAAVCAr@@K@Z@std@@@4@$0A@@std@@@std@@KAAAPAU_Node@?$_Tree_nod@V?$_Tmap_traits@KP8CDPLoginSrvr@@AEXAAVCAr@@K@ZU?$less@K@std@@V?$allocator@U?$pair@$$CBKP8CDPLoginSrvr@@AEXAAVCAr@@K@Z@std@@@4@$0A@@std@@@2@PAU342@@Z 004053e0 f i DPLoginSrvr.obj
 0001:000043f0       ?_Myval@?$_Tree@V?$_Tmap_traits@KP8CDPLoginSrvr@@AEXAAVCAr@@K@ZU?$less@K@std@@V?$allocator@U?$pair@$$CBKP8CDPLoginSrvr@@AEXAAVCAr@@K@Z@std@@@4@$0A@@std@@@std@@KAAAU?$pair@$$CBKP8CDPLoginSrvr@@AEXAAVCAr@@K@Z@2@PAU_Node@?$_Tree_nod@V?$_Tmap_traits@KP8CDPLoginSrvr@@AEXAAVCAr@@K@ZU?$less@K@std@@V?$allocator@U?$pair@$$CBKP8CDPLoginSrvr@@AEXAAVCAr@@K@Z@std@@@4@$0A@@std@@@2@@Z 004053f0 f i DPLoginSrvr.obj
 0001:00004400       ?_Lmost@?$_Tree@V?$_Tmap_traits@KP8CDPLoginSrvr@@AEXAAVCAr@@K@ZU?$less@K@std@@V?$allocator@U?$pair@$$CBKP8CDPLoginSrvr@@AEXAAVCAr@@K@Z@std@@@4@$0A@@std@@@std@@IAEAAPAU_Node@?$_Tree_nod@V?$_Tmap_traits@KP8CDPLoginSrvr@@AEXAAVCAr@@K@ZU?$less@K@std@@V?$allocator@U?$pair@$$CBKP8CDPLoginSrvr@@AEXAAVCAr@@K@Z@std@@@4@$0A@@std@@@2@XZ 00405400 f i DPLoginSrvr.obj
 0001:00004410       ?_Rmost@?$_Tree@V?$_Tmap_traits@KP8CDPLoginSrvr@@AEXAAVCAr@@K@ZU?$less@K@std@@V?$allocator@U?$pair@$$CBKP8CDPLoginSrvr@@AEXAAVCAr@@K@Z@std@@@4@$0A@@std@@@std@@IAEAAPAU_Node@?$_Tree_nod@V?$_Tmap_traits@KP8CDPLoginSrvr@@AEXAAVCAr@@K@ZU?$less@K@std@@V?$allocator@U?$pair@$$CBKP8CDPLoginSrvr@@AEXAAVCAr@@K@Z@std@@@4@$0A@@std@@@2@XZ 00405410 f i DPLoginSrvr.obj
 0001:00004420       ??0?$allocator@U?$pair@$$CBKP8CDPLoginSrvr@@AEXAAVCAr@@K@Z@std@@@std@@QAE@ABV01@@Z 00405420 f i DPLoginSrvr.obj
 0001:00004430       ?deallocate@?$allocator@U_Node@?$_Tree_nod@V?$_Tmap_traits@KP8CDPLoginSrvr@@AEXAAVCAr@@K@ZU?$less@K@std@@V?$allocator@U?$pair@$$CBKP8CDPLoginSrvr@@AEXAAVCAr@@K@Z@std@@@4@$0A@@std@@@std@@@std@@QAEXPAU_Node@?$_Tree_nod@V?$_Tmap_traits@KP8CDPLoginSrvr@@AEXAAVCAr@@K@ZU?$less@K@std@@V?$allocator@U?$pair@$$CBKP8CDPLoginSrvr@@AEXAAVCAr@@K@Z@std@@@4@$0A@@std@@@2@I@Z 00405430 f i DPLoginSrvr.obj
 0001:00004440       ??0const_iterator@?$_Tree@V?$_Tmap_traits@KP8CDPLoginSrvr@@AEXAAVCAr@@K@ZU?$less@K@std@@V?$allocator@U?$pair@$$CBKP8CDPLoginSrvr@@AEXAAVCAr@@K@Z@std@@@4@$0A@@std@@@std@@QAE@PAU_Node@?$_Tree_nod@V?$_Tmap_traits@KP8CDPLoginSrvr@@AEXAAVCAr@@K@ZU?$less@K@std@@V?$allocator@U?$pair@$$CBKP8CDPLoginSrvr@@AEXAAVCAr@@K@Z@std@@@4@$0A@@std@@@2@@Z 00405440 f i DPLoginSrvr.obj
 0001:00004450       ??Dconst_iterator@?$_Tree@V?$_Tmap_traits@KP8CDPLoginSrvr@@AEXAAVCAr@@K@ZU?$less@K@std@@V?$allocator@U?$pair@$$CBKP8CDPLoginSrvr@@AEXAAVCAr@@K@Z@std@@@4@$0A@@std@@@std@@QBEABU?$pair@$$CBKP8CDPLoginSrvr@@AEXAAVCAr@@K@Z@2@XZ 00405450 f i DPLoginSrvr.obj
 0001:00004460       ?_Root@?$_Tree@V?$_Tmap_traits@KP8CDPLoginSrvr@@AEXAAVCAr@@K@ZU?$less@K@std@@V?$allocator@U?$pair@$$CBKP8CDPLoginSrvr@@AEXAAVCAr@@K@Z@std@@@4@$0A@@std@@@std@@IBEAAPAU_Node@?$_Tree_nod@V?$_Tmap_traits@KP8CDPLoginSrvr@@AEXAAVCAr@@K@ZU?$less@K@std@@V?$allocator@U?$pair@$$CBKP8CDPLoginSrvr@@AEXAAVCAr@@K@Z@std@@@4@$0A@@std@@@2@XZ 00405460 f i DPLoginSrvr.obj
 0001:00004470       ?max_size@?$allocator@U?$pair@$$CBKP8CDPLoginSrvr@@AEXAAVCAr@@K@Z@std@@@std@@QBEIXZ 00405470 f i DPLoginSrvr.obj
 0001:00004480       ??0_Node@?$_Tree_nod@V?$_Tmap_traits@KP8CDPLoginSrvr@@AEXAAVCAr@@K@ZU?$less@K@std@@V?$allocator@U?$pair@$$CBKP8CDPLoginSrvr@@AEXAAVCAr@@K@Z@std@@@4@$0A@@std@@@std@@QAE@PAU012@00ABU?$pair@$$CBKP8CDPLoginSrvr@@AEXAAVCAr@@K@Z@2@D@Z 00405480 f i DPLoginSrvr.obj
 0001:000044c0       ?_Nextnode@?$list@PAXV?$allocator@PAX@std@@@std@@KAAAPAU_Node@?$_List_nod@PAXV?$allocator@PAX@std@@@2@PAU342@@Z 004054c0 f i DPLoginSrvr.obj
 0001:000044d0       ?_Prevnode@?$list@PAXV?$allocator@PAX@std@@@std@@KAAAPAU_Node@?$_List_nod@PAXV?$allocator@PAX@std@@@2@PAU342@@Z 004054d0 f i DPLoginSrvr.obj
 0001:000044e0       ?_Max@?$_Tree@V?$_Tmap_traits@KP8CDPLoginSrvr@@AEXAAVCAr@@K@ZU?$less@K@std@@V?$allocator@U?$pair@$$CBKP8CDPLoginSrvr@@AEXAAVCAr@@K@Z@std@@@4@$0A@@std@@@std@@KAPAU_Node@?$_Tree_nod@V?$_Tmap_traits@KP8CDPLoginSrvr@@AEXAAVCAr@@K@ZU?$less@K@std@@V?$allocator@U?$pair@$$CBKP8CDPLoginSrvr@@AEXAAVCAr@@K@Z@std@@@4@$0A@@std@@@2@PAU342@@Z 004054e0 f i DPLoginSrvr.obj
 0001:00004500       ?_Min@?$_Tree@V?$_Tmap_traits@KP8CDPLoginSrvr@@AEXAAVCAr@@K@ZU?$less@K@std@@V?$allocator@U?$pair@$$CBKP8CDPLoginSrvr@@AEXAAVCAr@@K@Z@std@@@4@$0A@@std@@@std@@KAPAU_Node@?$_Tree_nod@V?$_Tmap_traits@KP8CDPLoginSrvr@@AEXAAVCAr@@K@ZU?$less@K@std@@V?$allocator@U?$pair@$$CBKP8CDPLoginSrvr@@AEXAAVCAr@@K@Z@std@@@4@$0A@@std@@@2@PAU342@@Z 00405500 f i DPLoginSrvr.obj
 0001:00004520       ?_Mynode@const_iterator@?$list@PAXV?$allocator@PAX@std@@@std@@QBEPAU_Node@?$_List_nod@PAXV?$allocator@PAX@std@@@3@XZ 00405520 f i DPLoginSrvr.obj
 0001:00004530       ?deallocate@?$allocator@U_Node@?$_List_nod@PAXV?$allocator@PAX@std@@@std@@@std@@QAEXPAU_Node@?$_List_nod@PAXV?$allocator@PAX@std@@@2@I@Z 00405530 f i DPLoginSrvr.obj
 0001:00004540       ??0?$_Tmap_traits@KP8CDPLoginSrvr@@AEXAAVCAr@@K@ZU?$less@K@std@@V?$allocator@U?$pair@$$CBKP8CDPLoginSrvr@@AEXAAVCAr@@K@Z@std@@@4@$0A@@std@@QAE@U?$less@K@1@@Z 00405540 f i DPLoginSrvr.obj
 0001:00004550       ??0const_iterator@?$list@PAXV?$allocator@PAX@std@@@std@@QAE@PAU_Node@?$_List_nod@PAXV?$allocator@PAX@std@@@2@@Z 00405550 f i DPLoginSrvr.obj
 0001:00004560       ??0_Node@?$_List_nod@PAXV?$allocator@PAX@std@@@std@@QAE@PAU012@0ABQAX@Z 00405560 f i DPLoginSrvr.obj
 0001:00004580       ?max_size@?$allocator@PAX@std@@QBEIXZ 00405580 f i DPLoginSrvr.obj
 0001:00004590       ?_Inc@const_iterator@?$_Tree@V?$_Tmap_traits@KP8CDPLoginSrvr@@AEXAAVCAr@@K@ZU?$less@K@std@@V?$allocator@U?$pair@$$CBKP8CDPLoginSrvr@@AEXAAVCAr@@K@Z@std@@@4@$0A@@std@@@std@@QAEXXZ 00405590 f i DPLoginSrvr.obj
 0001:000045f0       ??$_Destroy@PAU_Node@?$_Tree_nod@V?$_Tmap_traits@KP8CDPLoginSrvr@@AEXAAVCAr@@K@ZU?$less@K@std@@V?$allocator@U?$pair@$$CBKP8CDPLoginSrvr@@AEXAAVCAr@@K@Z@std@@@4@$0A@@std@@@std@@@std@@YAXPAPAU_Node@?$_Tree_nod@V?$_Tmap_traits@KP8CDPLoginSrvr@@AEXAAVCAr@@K@ZU?$less@K@std@@V?$allocator@U?$pair@$$CBKP8CDPLoginSrvr@@AEXAAVCAr@@K@Z@std@@@4@$0A@@std@@@0@@Z 004055f0 f i DPLoginSrvr.obj
 0001:00004600       ??$?0U?$pair@$$CBKP8CDPLoginSrvr@@AEXAAVCAr@@K@Z@std@@@?$allocator@PAU_Node@?$_Tree_nod@V?$_Tmap_traits@KP8CDPLoginSrvr@@AEXAAVCAr@@K@ZU?$less@K@std@@V?$allocator@U?$pair@$$CBKP8CDPLoginSrvr@@AEXAAVCAr@@K@Z@std@@@4@$0A@@std@@@std@@@std@@QAE@ABV?$allocator@U?$pair@$$CBKP8CDPLoginSrvr@@AEXAAVCAr@@K@Z@std@@@1@@Z 00405600 f i DPLoginSrvr.obj
 0001:00004610       ??$_Allocate@U_Node@?$_Tree_nod@V?$_Tmap_traits@KP8CDPLoginSrvr@@AEXAAVCAr@@K@ZU?$less@K@std@@V?$allocator@U?$pair@$$CBKP8CDPLoginSrvr@@AEXAAVCAr@@K@Z@std@@@4@$0A@@std@@@std@@@std@@YAPAU_Node@?$_Tree_nod@V?$_Tmap_traits@KP8CDPLoginSrvr@@AEXAAVCAr@@K@ZU?$less@K@std@@V?$allocator@U?$pair@$$CBKP8CDPLoginSrvr@@AEXAAVCAr@@K@Z@std@@@4@$0A@@std@@@0@IPAU120@@Z 00405610 f i DPLoginSrvr.obj
 0001:00004630       ??$?0U?$pair@$$CBKP8CDPLoginSrvr@@AEXAAVCAr@@K@Z@std@@@?$allocator@U_Node@?$_Tree_nod@V?$_Tmap_traits@KP8CDPLoginSrvr@@AEXAAVCAr@@K@ZU?$less@K@std@@V?$allocator@U?$pair@$$CBKP8CDPLoginSrvr@@AEXAAVCAr@@K@Z@std@@@4@$0A@@std@@@std@@@std@@QAE@ABV?$allocator@U?$pair@$$CBKP8CDPLoginSrvr@@AEXAAVCAr@@K@Z@std@@@1@@Z 00405630 f i DPLoginSrvr.obj
 0001:00004640       ??$_Destroy@U_Node@?$_Tree_nod@V?$_Tmap_traits@KP8CDPLoginSrvr@@AEXAAVCAr@@K@ZU?$less@K@std@@V?$allocator@U?$pair@$$CBKP8CDPLoginSrvr@@AEXAAVCAr@@K@Z@std@@@4@$0A@@std@@@std@@@std@@YAXPAU_Node@?$_Tree_nod@V?$_Tmap_traits@KP8CDPLoginSrvr@@AEXAAVCAr@@K@ZU?$less@K@std@@V?$allocator@U?$pair@$$CBKP8CDPLoginSrvr@@AEXAAVCAr@@K@Z@std@@@4@$0A@@std@@@0@@Z 00405640 f i DPLoginSrvr.obj
 0001:00004650       ??$_Construct@PAU_Node@?$_Tree_nod@V?$_Tmap_traits@KP8CDPLoginSrvr@@AEXAAVCAr@@K@ZU?$less@K@std@@V?$allocator@U?$pair@$$CBKP8CDPLoginSrvr@@AEXAAVCAr@@K@Z@std@@@4@$0A@@std@@@std@@PAU123@@std@@YAXPAPAU_Node@?$_Tree_nod@V?$_Tmap_traits@KP8CDPLoginSrvr@@AEXAAVCAr@@K@ZU?$less@K@std@@V?$allocator@U?$pair@$$CBKP8CDPLoginSrvr@@AEXAAVCAr@@K@Z@std@@@4@$0A@@std@@@0@ABQAU120@@Z 00405650 f i DPLoginSrvr.obj
 0001:00004670       ??$_Allocate@U_Node@?$_List_nod@PAXV?$allocator@PAX@std@@@std@@@std@@YAPAU_Node@?$_List_nod@PAXV?$allocator@PAX@std@@@0@IPAU120@@Z 00405670 f i DPLoginSrvr.obj
 0001:00004690       ?GetTickCount@CTickCount@@QAE_JXZ 00405690 f i DPLoginSrvr.obj
 0001:000046c0       ??3CUser@@SAXPAX@Z         004056c0 f i DPLoginSrvr.obj
 0001:00004700       ?OnAddConnection@CDPLoginSrvr@@AAEXAAVCAr@@K@Z 00405700 f   DPLoginSrvr.obj
 0001:00004930       ?OnPing@CDPLoginSrvr@@AAEXAAVCAr@@K@Z 00405930 f   DPLoginSrvr.obj
 0001:00004a80       ?OnAuthQuery@CDPLoginSrvr@@AAEXAAVCAr@@K@Z 00405a80 f   DPLoginSrvr.obj
 0001:00004b30       ?OnQueryTickCount@CDPLoginSrvr@@AAEXAAVCAr@@K@Z 00405b30 f   DPLoginSrvr.obj
 0001:00004c80       ?SendLoginProtect@CDPLoginSrvr@@QAEXHK@Z 00405c80 f   DPLoginSrvr.obj
 0001:00004da0       ??9const_iterator@?$_Tree@V?$_Tmap_traits@KP8CDPLoginSrvr@@AEXAAVCAr@@K@ZU?$less@K@std@@V?$allocator@U?$pair@$$CBKP8CDPLoginSrvr@@AEXAAVCAr@@K@Z@std@@@4@$0A@@std@@@std@@QBE_NABV012@@Z 00405da0 f i DPLoginSrvr.obj
 0001:00004dc0       ?_Key@?$_Tree@V?$_Tmap_traits@KP8CDPLoginSrvr@@AEXAAVCAr@@K@ZU?$less@K@std@@V?$allocator@U?$pair@$$CBKP8CDPLoginSrvr@@AEXAAVCAr@@K@Z@std@@@4@$0A@@std@@@std@@KAABKPAU_Node@?$_Tree_nod@V?$_Tmap_traits@KP8CDPLoginSrvr@@AEXAAVCAr@@K@ZU?$less@K@std@@V?$allocator@U?$pair@$$CBKP8CDPLoginSrvr@@AEXAAVCAr@@K@Z@std@@@4@$0A@@std@@@2@@Z 00405dc0 f i DPLoginSrvr.obj
 0001:00004dd0       ?_Root@?$_Tree@V?$_Tmap_traits@KP8CDPLoginSrvr@@AEXAAVCAr@@K@ZU?$less@K@std@@V?$allocator@U?$pair@$$CBKP8CDPLoginSrvr@@AEXAAVCAr@@K@Z@std@@@4@$0A@@std@@@std@@IAEAAPAU_Node@?$_Tree_nod@V?$_Tmap_traits@KP8CDPLoginSrvr@@AEXAAVCAr@@K@ZU?$less@K@std@@V?$allocator@U?$pair@$$CBKP8CDPLoginSrvr@@AEXAAVCAr@@K@Z@std@@@4@$0A@@std@@@2@XZ 00405dd0 f i DPLoginSrvr.obj
 0001:00004de0       ??0iterator@?$_Tree@V?$_Tmap_traits@KP8CDPLoginSrvr@@AEXAAVCAr@@K@ZU?$less@K@std@@V?$allocator@U?$pair@$$CBKP8CDPLoginSrvr@@AEXAAVCAr@@K@Z@std@@@4@$0A@@std@@@std@@QAE@PAU_Node@?$_Tree_nod@V?$_Tmap_traits@KP8CDPLoginSrvr@@AEXAAVCAr@@K@ZU?$less@K@std@@V?$allocator@U?$pair@$$CBKP8CDPLoginSrvr@@AEXAAVCAr@@K@Z@std@@@4@$0A@@std@@@2@@Z 00405de0 f i DPLoginSrvr.obj
 0001:00004df0       ??Diterator@?$_Tree@V?$_Tmap_traits@KP8CDPLoginSrvr@@AEXAAVCAr@@K@ZU?$less@K@std@@V?$allocator@U?$pair@$$CBKP8CDPLoginSrvr@@AEXAAVCAr@@K@Z@std@@@4@$0A@@std@@@std@@QBEAAU?$pair@$$CBKP8CDPLoginSrvr@@AEXAAVCAr@@K@Z@2@XZ 00405df0 f i DPLoginSrvr.obj
 0001:00004e00       ?max_size@?$_Tree@V?$_Tmap_traits@KP8CDPLoginSrvr@@AEXAAVCAr@@K@ZU?$less@K@std@@V?$allocator@U?$pair@$$CBKP8CDPLoginSrvr@@AEXAAVCAr@@K@Z@std@@@4@$0A@@std@@@std@@QBEIXZ 00405e00 f i DPLoginSrvr.obj
 0001:00004e10       ?_Lbound@?$_Tree@V?$_Tmap_traits@KP8CDPLoginSrvr@@AEXAAVCAr@@K@ZU?$less@K@std@@V?$allocator@U?$pair@$$CBKP8CDPLoginSrvr@@AEXAAVCAr@@K@Z@std@@@4@$0A@@std@@@std@@IBEPAU_Node@?$_Tree_nod@V?$_Tmap_traits@KP8CDPLoginSrvr@@AEXAAVCAr@@K@ZU?$less@K@std@@V?$allocator@U?$pair@$$CBKP8CDPLoginSrvr@@AEXAAVCAr@@K@Z@std@@@4@$0A@@std@@@2@ABK@Z 00405e10 f i DPLoginSrvr.obj
 0001:00004e40       ?_Lrotate@?$_Tree@V?$_Tmap_traits@KP8CDPLoginSrvr@@AEXAAVCAr@@K@ZU?$less@K@std@@V?$allocator@U?$pair@$$CBKP8CDPLoginSrvr@@AEXAAVCAr@@K@Z@std@@@4@$0A@@std@@@std@@IAEXPAU_Node@?$_Tree_nod@V?$_Tmap_traits@KP8CDPLoginSrvr@@AEXAAVCAr@@K@ZU?$less@K@std@@V?$allocator@U?$pair@$$CBKP8CDPLoginSrvr@@AEXAAVCAr@@K@Z@std@@@4@$0A@@std@@@2@@Z 00405e40 f i DPLoginSrvr.obj
 0001:00004ea0       ?_Rrotate@?$_Tree@V?$_Tmap_traits@KP8CDPLoginSrvr@@AEXAAVCAr@@K@ZU?$less@K@std@@V?$allocator@U?$pair@$$CBKP8CDPLoginSrvr@@AEXAAVCAr@@K@Z@std@@@4@$0A@@std@@@std@@IAEXPAU_Node@?$_Tree_nod@V?$_Tmap_traits@KP8CDPLoginSrvr@@AEXAAVCAr@@K@ZU?$less@K@std@@V?$allocator@U?$pair@$$CBKP8CDPLoginSrvr@@AEXAAVCAr@@K@Z@std@@@4@$0A@@std@@@2@@Z 00405ea0 f i DPLoginSrvr.obj
 0001:00004f00       ?destroy@?$allocator@PAU_Node@?$_Tree_nod@V?$_Tmap_traits@KP8CDPLoginSrvr@@AEXAAVCAr@@K@ZU?$less@K@std@@V?$allocator@U?$pair@$$CBKP8CDPLoginSrvr@@AEXAAVCAr@@K@Z@std@@@4@$0A@@std@@@std@@@std@@QAEXPAPAU_Node@?$_Tree_nod@V?$_Tmap_traits@KP8CDPLoginSrvr@@AEXAAVCAr@@K@ZU?$less@K@std@@V?$allocator@U?$pair@$$CBKP8CDPLoginSrvr@@AEXAAVCAr@@K@Z@std@@@4@$0A@@std@@@2@@Z 00405f00 f i DPLoginSrvr.obj
 0001:00004f10       ?allocate@?$allocator@U_Node@?$_Tree_nod@V?$_Tmap_traits@KP8CDPLoginSrvr@@AEXAAVCAr@@K@ZU?$less@K@std@@V?$allocator@U?$pair@$$CBKP8CDPLoginSrvr@@AEXAAVCAr@@K@Z@std@@@4@$0A@@std@@@std@@@std@@QAEPAU_Node@?$_Tree_nod@V?$_Tmap_traits@KP8CDPLoginSrvr@@AEXAAVCAr@@K@ZU?$less@K@std@@V?$allocator@U?$pair@$$CBKP8CDPLoginSrvr@@AEXAAVCAr@@K@Z@std@@@4@$0A@@std@@@2@I@Z 00405f10 f i DPLoginSrvr.obj
 0001:00004f30       ?_Dec@const_iterator@?$_Tree@V?$_Tmap_traits@KP8CDPLoginSrvr@@AEXAAVCAr@@K@ZU?$less@K@std@@V?$allocator@U?$pair@$$CBKP8CDPLoginSrvr@@AEXAAVCAr@@K@Z@std@@@4@$0A@@std@@@std@@QAEXXZ 00405f30 f i DPLoginSrvr.obj
 0001:00004f90       ??0?$_Tree_nod@V?$_Tmap_traits@KP8CDPLoginSrvr@@AEXAAVCAr@@K@ZU?$less@K@std@@V?$allocator@U?$pair@$$CBKP8CDPLoginSrvr@@AEXAAVCAr@@K@Z@std@@@4@$0A@@std@@@std@@IAE@ABU?$less@K@1@V?$allocator@U?$pair@$$CBKP8CDPLoginSrvr@@AEXAAVCAr@@K@Z@std@@@1@@Z 00405f90 f i DPLoginSrvr.obj
 0001:00004fa0       ?destroy@?$allocator@U_Node@?$_Tree_nod@V?$_Tmap_traits@KP8CDPLoginSrvr@@AEXAAVCAr@@K@ZU?$less@K@std@@V?$allocator@U?$pair@$$CBKP8CDPLoginSrvr@@AEXAAVCAr@@K@Z@std@@@4@$0A@@std@@@std@@@std@@QAEXPAU_Node@?$_Tree_nod@V?$_Tmap_traits@KP8CDPLoginSrvr@@AEXAAVCAr@@K@ZU?$less@K@std@@V?$allocator@U?$pair@$$CBKP8CDPLoginSrvr@@AEXAAVCAr@@K@Z@std@@@4@$0A@@std@@@2@@Z 00405fa0 f i DPLoginSrvr.obj
 0001:00004fb0       ?construct@?$allocator@PAU_Node@?$_Tree_nod@V?$_Tmap_traits@KP8CDPLoginSrvr@@AEXAAVCAr@@K@ZU?$less@K@std@@V?$allocator@U?$pair@$$CBKP8CDPLoginSrvr@@AEXAAVCAr@@K@Z@std@@@4@$0A@@std@@@std@@@std@@QAEXPAPAU_Node@?$_Tree_nod@V?$_Tmap_traits@KP8CDPLoginSrvr@@AEXAAVCAr@@K@ZU?$less@K@std@@V?$allocator@U?$pair@$$CBKP8CDPLoginSrvr@@AEXAAVCAr@@K@Z@std@@@4@$0A@@std@@@2@ABQAU342@@Z 00405fb0 f i DPLoginSrvr.obj
 0001:00004fd0       ??0iterator@?$list@PAXV?$allocator@PAX@std@@@std@@QAE@PAU_Node@?$_List_nod@PAXV?$allocator@PAX@std@@@2@@Z 00405fd0 f i DPLoginSrvr.obj
 0001:00004fe0       ?max_size@?$list@PAXV?$allocator@PAX@std@@@std@@QBEIXZ 00405fe0 f i DPLoginSrvr.obj
 0001:00004ff0       ?allocate@?$allocator@U_Node@?$_List_nod@PAXV?$allocator@PAX@std@@@std@@@std@@QAEPAU_Node@?$_List_nod@PAXV?$allocator@PAX@std@@@2@I@Z 00405ff0 f i DPLoginSrvr.obj
 0001:00005010       ??Econst_iterator@?$_Tree@V?$_Tmap_traits@KP8CDPLoginSrvr@@AEXAAVCAr@@K@ZU?$less@K@std@@V?$allocator@U?$pair@$$CBKP8CDPLoginSrvr@@AEXAAVCAr@@K@Z@std@@@4@$0A@@std@@@std@@QAEAAV012@XZ 00406010 f i DPLoginSrvr.obj
 0001:00005020       ?OnPreJoin@CDPLoginSrvr@@AAEXAAVCAr@@K@Z 00406020 f   DPLoginSrvr.obj
 0001:000051f0       ?end@?$_Tree@V?$_Tmap_traits@KP8CDPLoginSrvr@@AEXAAVCAr@@K@ZU?$less@K@std@@V?$allocator@U?$pair@$$CBKP8CDPLoginSrvr@@AEXAAVCAr@@K@Z@std@@@4@$0A@@std@@@std@@QAE?AViterator@12@XZ 004061f0 f i DPLoginSrvr.obj
 0001:00005200       ??Citerator@?$_Tree@V?$_Tmap_traits@KP8CDPLoginSrvr@@AEXAAVCAr@@K@ZU?$less@K@std@@V?$allocator@U?$pair@$$CBKP8CDPLoginSrvr@@AEXAAVCAr@@K@Z@std@@@4@$0A@@std@@@std@@QBEPAU?$pair@$$CBKP8CDPLoginSrvr@@AEXAAVCAr@@K@Z@2@XZ 00406200 f i DPLoginSrvr.obj
 0001:00005210       ?begin@?$_Tree@V?$_Tmap_traits@KP8CDPLoginSrvr@@AEXAAVCAr@@K@ZU?$less@K@std@@V?$allocator@U?$pair@$$CBKP8CDPLoginSrvr@@AEXAAVCAr@@K@Z@std@@@4@$0A@@std@@@std@@QAE?AViterator@12@XZ 00406210 f i DPLoginSrvr.obj
 0001:00005220       ?lower_bound@?$_Tree@V?$_Tmap_traits@KP8CDPLoginSrvr@@AEXAAVCAr@@K@ZU?$less@K@std@@V?$allocator@U?$pair@$$CBKP8CDPLoginSrvr@@AEXAAVCAr@@K@Z@std@@@4@$0A@@std@@@std@@QAE?AViterator@12@ABK@Z 00406220 f i DPLoginSrvr.obj
 0001:00005260       ?_Buynode@?$_Tree@V?$_Tmap_traits@KP8CDPLoginSrvr@@AEXAAVCAr@@K@ZU?$less@K@std@@V?$allocator@U?$pair@$$CBKP8CDPLoginSrvr@@AEXAAVCAr@@K@Z@std@@@4@$0A@@std@@@std@@IAEPAU_Node@?$_Tree_nod@V?$_Tmap_traits@KP8CDPLoginSrvr@@AEXAAVCAr@@K@ZU?$less@K@std@@V?$allocator@U?$pair@$$CBKP8CDPLoginSrvr@@AEXAAVCAr@@K@Z@std@@@4@$0A@@std@@@2@PAU342@00ABU?$pair@$$CBKP8CDPLoginSrvr@@AEXAAVCAr@@K@Z@2@D@Z 00406260 f i DPLoginSrvr.obj
 0001:000052a0       ??Fconst_iterator@?$_Tree@V?$_Tmap_traits@KP8CDPLoginSrvr@@AEXAAVCAr@@K@ZU?$less@K@std@@V?$allocator@U?$pair@$$CBKP8CDPLoginSrvr@@AEXAAVCAr@@K@Z@std@@@4@$0A@@std@@@std@@QAEAAV012@XZ 004062a0 f i DPLoginSrvr.obj
 0001:000052b0       ?end@?$list@PAXV?$allocator@PAX@std@@@std@@QAE?AViterator@12@XZ 004062b0 f i DPLoginSrvr.obj
 0001:000052c0       ?_Buynode@?$_Tree@V?$_Tmap_traits@KP8CDPLoginSrvr@@AEXAAVCAr@@K@ZU?$less@K@std@@V?$allocator@U?$pair@$$CBKP8CDPLoginSrvr@@AEXAAVCAr@@K@Z@std@@@4@$0A@@std@@@std@@IAEPAU_Node@?$_Tree_nod@V?$_Tmap_traits@KP8CDPLoginSrvr@@AEXAAVCAr@@K@ZU?$less@K@std@@V?$allocator@U?$pair@$$CBKP8CDPLoginSrvr@@AEXAAVCAr@@K@Z@std@@@4@$0A@@std@@@2@XZ 004062c0 f i DPLoginSrvr.obj
 0001:00005300       ??0?$_Tree_ptr@V?$_Tmap_traits@KP8CDPLoginSrvr@@AEXAAVCAr@@K@ZU?$less@K@std@@V?$allocator@U?$pair@$$CBKP8CDPLoginSrvr@@AEXAAVCAr@@K@Z@std@@@4@$0A@@std@@@std@@IAE@ABU?$less@K@1@V?$allocator@U?$pair@$$CBKP8CDPLoginSrvr@@AEXAAVCAr@@K@Z@std@@@1@@Z 00406300 f i DPLoginSrvr.obj
 0001:00005310       ?_Buynode@?$list@PAXV?$allocator@PAX@std@@@std@@IAEPAU_Node@?$_List_nod@PAXV?$allocator@PAX@std@@@2@PAU342@0ABQAX@Z 00406310 f i DPLoginSrvr.obj
 0001:00005340       ?_Erase@?$_Tree@V?$_Tmap_traits@KP8CDPLoginSrvr@@AEXAAVCAr@@K@ZU?$less@K@std@@V?$allocator@U?$pair@$$CBKP8CDPLoginSrvr@@AEXAAVCAr@@K@Z@std@@@4@$0A@@std@@@std@@IAEXPAU_Node@?$_Tree_nod@V?$_Tmap_traits@KP8CDPLoginSrvr@@AEXAAVCAr@@K@ZU?$less@K@std@@V?$allocator@U?$pair@$$CBKP8CDPLoginSrvr@@AEXAAVCAr@@K@Z@std@@@4@$0A@@std@@@2@@Z 00406340 f i DPLoginSrvr.obj
 0001:00005380       ??Eiterator@?$_Tree@V?$_Tmap_traits@KP8CDPLoginSrvr@@AEXAAVCAr@@K@ZU?$less@K@std@@V?$allocator@U?$pair@$$CBKP8CDPLoginSrvr@@AEXAAVCAr@@K@Z@std@@@4@$0A@@std@@@std@@QAEAAV012@XZ 00406380 f i DPLoginSrvr.obj
 0001:00005390       ?find@?$_Tree@V?$_Tmap_traits@KP8CDPLoginSrvr@@AEXAAVCAr@@K@ZU?$less@K@std@@V?$allocator@U?$pair@$$CBKP8CDPLoginSrvr@@AEXAAVCAr@@K@Z@std@@@4@$0A@@std@@@std@@QAE?AViterator@12@ABK@Z 00406390 f i DPLoginSrvr.obj
 0001:00005400       ??Fiterator@?$_Tree@V?$_Tmap_traits@KP8CDPLoginSrvr@@AEXAAVCAr@@K@ZU?$less@K@std@@V?$allocator@U?$pair@$$CBKP8CDPLoginSrvr@@AEXAAVCAr@@K@Z@std@@@4@$0A@@std@@@std@@QAEAAV012@XZ 00406400 f i DPLoginSrvr.obj
 0001:00005410       ?_Init@?$_Tree@V?$_Tmap_traits@KP8CDPLoginSrvr@@AEXAAVCAr@@K@ZU?$less@K@std@@V?$allocator@U?$pair@$$CBKP8CDPLoginSrvr@@AEXAAVCAr@@K@Z@std@@@4@$0A@@std@@@std@@IAEXXZ 00406410 f i DPLoginSrvr.obj
 0001:00005440       ??0?$_Tree_val@V?$_Tmap_traits@KP8CDPLoginSrvr@@AEXAAVCAr@@K@ZU?$less@K@std@@V?$allocator@U?$pair@$$CBKP8CDPLoginSrvr@@AEXAAVCAr@@K@Z@std@@@4@$0A@@std@@@std@@IAE@ABU?$less@K@1@V?$allocator@U?$pair@$$CBKP8CDPLoginSrvr@@AEXAAVCAr@@K@Z@std@@@1@@Z 00406440 f i DPLoginSrvr.obj
 0001:00005450       ?clear@?$_Tree@V?$_Tmap_traits@KP8CDPLoginSrvr@@AEXAAVCAr@@K@ZU?$less@K@std@@V?$allocator@U?$pair@$$CBKP8CDPLoginSrvr@@AEXAAVCAr@@K@Z@std@@@4@$0A@@std@@@std@@QAEXXZ 00406450 f i DPLoginSrvr.obj
 0001:00005480       ??Eiterator@?$_Tree@V?$_Tmap_traits@KP8CDPLoginSrvr@@AEXAAVCAr@@K@ZU?$less@K@std@@V?$allocator@U?$pair@$$CBKP8CDPLoginSrvr@@AEXAAVCAr@@K@Z@std@@@4@$0A@@std@@@std@@QAE?AV012@H@Z 00406480 f i DPLoginSrvr.obj
 0001:000054a0       ?GetHandler@CDPLoginSrvr@@AAEP81@AEXAAVCAr@@K@ZK@Z 004064a0 f i DPLoginSrvr.obj
 0001:000054d0       ?UserMessageHandler@CDPLoginSrvr@@UAEXPAUDPMSG_GENERIC@@KK@Z 004064d0 f   DPLoginSrvr.obj
 0001:00005600       ??0?$_Tree@V?$_Tmap_traits@KP8CDPLoginSrvr@@AEXAAVCAr@@K@ZU?$less@K@std@@V?$allocator@U?$pair@$$CBKP8CDPLoginSrvr@@AEXAAVCAr@@K@Z@std@@@4@$0A@@std@@@std@@QAE@ABU?$less@K@1@ABV?$allocator@U?$pair@$$CBKP8CDPLoginSrvr@@AEXAAVCAr@@K@Z@std@@@1@@Z 00406600 f i DPLoginSrvr.obj
 0001:00005630       ?_Insert@?$_Tree@V?$_Tmap_traits@KP8CDPLoginSrvr@@AEXAAVCAr@@K@ZU?$less@K@std@@V?$allocator@U?$pair@$$CBKP8CDPLoginSrvr@@AEXAAVCAr@@K@Z@std@@@4@$0A@@std@@@std@@IAE?AViterator@12@_NPAU_Node@?$_Tree_nod@V?$_Tmap_traits@KP8CDPLoginSrvr@@AEXAAVCAr@@K@ZU?$less@K@std@@V?$allocator@U?$pair@$$CBKP8CDPLoginSrvr@@AEXAAVCAr@@K@Z@std@@@4@$0A@@std@@@2@ABU?$pair@$$CBKP8CDPLoginSrvr@@AEXAAVCAr@@K@Z@2@@Z 00406630 f i DPLoginSrvr.obj
 0001:000057e0       ?erase@?$_Tree@V?$_Tmap_traits@KP8CDPLoginSrvr@@AEXAAVCAr@@K@ZU?$less@K@std@@V?$allocator@U?$pair@$$CBKP8CDPLoginSrvr@@AEXAAVCAr@@K@Z@std@@@4@$0A@@std@@@std@@QAE?AViterator@12@V312@@Z 004067e0 f i DPLoginSrvr.obj
 0001:00005aa0       ?_Incsize@?$list@PAXV?$allocator@PAX@std@@@std@@IAEXI@Z 00406aa0 f i DPLoginSrvr.obj
 0001:00005b40       ?insert@?$_Tree@V?$_Tmap_traits@KP8CDPLoginSrvr@@AEXAAVCAr@@K@ZU?$less@K@std@@V?$allocator@U?$pair@$$CBKP8CDPLoginSrvr@@AEXAAVCAr@@K@Z@std@@@4@$0A@@std@@@std@@QAE?AU?$pair@Viterator@?$_Tree@V?$_Tmap_traits@KP8CDPLoginSrvr@@AEXAAVCAr@@K@ZU?$less@K@std@@V?$allocator@U?$pair@$$CBKP8CDPLoginSrvr@@AEXAAVCAr@@K@Z@std@@@4@$0A@@std@@@std@@_N@2@ABU?$pair@$$CBKP8CDPLoginSrvr@@AEXAAVCAr@@K@Z@2@@Z 00406b40 f i DPLoginSrvr.obj
 0001:00005c00       ?erase@?$_Tree@V?$_Tmap_traits@KP8CDPLoginSrvr@@AEXAAVCAr@@K@ZU?$less@K@std@@V?$allocator@U?$pair@$$CBKP8CDPLoginSrvr@@AEXAAVCAr@@K@Z@std@@@4@$0A@@std@@@std@@QAE?AViterator@12@V312@0@Z 00406c00 f i DPLoginSrvr.obj
 0001:00005cc0       ?_Insert@?$list@PAXV?$allocator@PAX@std@@@std@@QAEXViterator@12@ABQAX@Z 00406cc0 f i DPLoginSrvr.obj
 0001:00005d00       ?_Tidy@?$_Tree@V?$_Tmap_traits@KP8CDPLoginSrvr@@AEXAAVCAr@@K@ZU?$less@K@std@@V?$allocator@U?$pair@$$CBKP8CDPLoginSrvr@@AEXAAVCAr@@K@Z@std@@@4@$0A@@std@@@std@@IAEXXZ 00406d00 f i DPLoginSrvr.obj
 0001:00005d30       ?push_back@?$list@PAXV?$allocator@PAX@std@@@std@@QAEXABQAX@Z 00406d30 f i DPLoginSrvr.obj
 0001:00005d70       ??1?$_Tree@V?$_Tmap_traits@KP8CDPLoginSrvr@@AEXAAVCAr@@K@ZU?$less@K@std@@V?$allocator@U?$pair@$$CBKP8CDPLoginSrvr@@AEXAAVCAr@@K@Z@std@@@4@$0A@@std@@@std@@QAE@XZ 00406d70 f i DPLoginSrvr.obj
 0001:00005da0       ?Create@?$MemPooler@VCUser@@@@IAEXXZ 00406da0 f i DPLoginSrvr.obj
 0001:00005e30       ??1?$map@KP8CDPLoginSrvr@@AEXAAVCAr@@K@ZU?$less@K@std@@V?$allocator@U?$pair@$$CBKP8CDPLoginSrvr@@AEXAAVCAr@@K@Z@std@@@4@@std@@QAE@XZ 00406e30 f i DPLoginSrvr.obj
 0001:00005e60       ??1CDPLoginSrvr@@UAE@XZ    00406e60 f   DPLoginSrvr.obj
 0001:00005ee0       ??0?$map@KP8CDPLoginSrvr@@AEXAAVCAr@@K@ZU?$less@K@std@@V?$allocator@U?$pair@$$CBKP8CDPLoginSrvr@@AEXAAVCAr@@K@Z@std@@@4@@std@@QAE@XZ 00406ee0 f i DPLoginSrvr.obj
 0001:00005f10       ?Alloc@?$MemPooler@VCUser@@@@QAEPAVCUser@@XZ 00406f10 f i DPLoginSrvr.obj
 0001:00005f50       ??2CUser@@SAPAXI@Z         00406f50 f i DPLoginSrvr.obj
 0001:00005f90       ??0CDPLoginSrvr@@QAE@XZ    00406f90 f   DPLoginSrvr.obj
 0001:000060c0       ??_ECDPLoginSrvr@@UAEPAXI@Z 004070c0 f i DPLoginSrvr.obj
 0001:000060c0       ??_GCDPLoginSrvr@@UAEPAXI@Z 004070c0 f i DPLoginSrvr.obj
 0001:000060e0       ?SysMessageHandler@CDPLoginSrvr@@UAEXPAUDPMSG_GENERIC@@KK@Z 004070e0 f   DPLoginSrvr.obj
 0001:000062c0       ??0LOGIN_CACHE@CLoginProtect@@QAE@XZ 004072c0 f i LoginProtect.obj
 0001:000062e0       ?GetNumPad2PW@CLoginProtect@@QAEHKK@Z 004072e0 f   LoginProtect.obj
 0001:00006380       ??0?$pair@$$CBKK@std@@QAE@ABK0@Z 00407380 f i LoginProtect.obj
 0001:000063a0       ??0?$pair@$$CBKULOGIN_CACHE@CLoginProtect@@@std@@QAE@ABKABULOGIN_CACHE@CLoginProtect@@@Z 004073a0 f i LoginProtect.obj
 0001:000063c0       ?_Isnil@?$_Tree@V?$_Tmap_traits@KULOGIN_CACHE@CLoginProtect@@U?$less@K@std@@V?$allocator@U?$pair@$$CBKULOGIN_CACHE@CLoginProtect@@@std@@@4@$0A@@std@@@std@@KAAADPAU_Node@?$_Tree_nod@V?$_Tmap_traits@KULOGIN_CACHE@CLoginProtect@@U?$less@K@std@@V?$allocator@U?$pair@$$CBKULOGIN_CACHE@CLoginProtect@@@std@@@4@$0A@@std@@@2@@Z 004073c0 f i LoginProtect.obj
 0001:000063d0       ?_Left@?$_Tree@V?$_Tmap_traits@KULOGIN_CACHE@CLoginProtect@@U?$less@K@std@@V?$allocator@U?$pair@$$CBKULOGIN_CACHE@CLoginProtect@@@std@@@4@$0A@@std@@@std@@KAAAPAU_Node@?$_Tree_nod@V?$_Tmap_traits@KULOGIN_CACHE@CLoginProtect@@U?$less@K@std@@V?$allocator@U?$pair@$$CBKULOGIN_CACHE@CLoginProtect@@@std@@@4@$0A@@std@@@2@PAU342@@Z 004073d0 f i LoginProtect.obj
 0001:000063e0       ?_Right@?$_Tree@V?$_Tmap_traits@KULOGIN_CACHE@CLoginProtect@@U?$less@K@std@@V?$allocator@U?$pair@$$CBKULOGIN_CACHE@CLoginProtect@@@std@@@4@$0A@@std@@@std@@KAAAPAU_Node@?$_Tree_nod@V?$_Tmap_traits@KULOGIN_CACHE@CLoginProtect@@U?$less@K@std@@V?$allocator@U?$pair@$$CBKULOGIN_CACHE@CLoginProtect@@@std@@@4@$0A@@std@@@2@PAU342@@Z 004073e0 f i LoginProtect.obj
 0001:000063f0       ?_Lmost@?$_Tree@V?$_Tmap_traits@KULOGIN_CACHE@CLoginProtect@@U?$less@K@std@@V?$allocator@U?$pair@$$CBKULOGIN_CACHE@CLoginProtect@@@std@@@4@$0A@@std@@@std@@IAEAAPAU_Node@?$_Tree_nod@V?$_Tmap_traits@KULOGIN_CACHE@CLoginProtect@@U?$less@K@std@@V?$allocator@U?$pair@$$CBKULOGIN_CACHE@CLoginProtect@@@std@@@4@$0A@@std@@@2@XZ 004073f0 f i LoginProtect.obj
 0001:00006400       ?_Rmost@?$_Tree@V?$_Tmap_traits@KULOGIN_CACHE@CLoginProtect@@U?$less@K@std@@V?$allocator@U?$pair@$$CBKULOGIN_CACHE@CLoginProtect@@@std@@@4@$0A@@std@@@std@@IAEAAPAU_Node@?$_Tree_nod@V?$_Tmap_traits@KULOGIN_CACHE@CLoginProtect@@U?$less@K@std@@V?$allocator@U?$pair@$$CBKULOGIN_CACHE@CLoginProtect@@@std@@@4@$0A@@std@@@2@XZ 00407400 f i LoginProtect.obj
 0001:00006410       ?_Kfn@?$_Tmap_traits@KULOGIN_CACHE@CLoginProtect@@U?$less@K@std@@V?$allocator@U?$pair@$$CBKULOGIN_CACHE@CLoginProtect@@@std@@@4@$0A@@std@@SAABKABU?$pair@$$CBKULOGIN_CACHE@CLoginProtect@@@2@@Z 00407410 f i LoginProtect.obj
 0001:00006420       ??0?$allocator@U?$pair@$$CBKULOGIN_CACHE@CLoginProtect@@@std@@@std@@QAE@XZ 00407420 f i LoginProtect.obj
 0001:00006430       ?_Isnil@?$_Tree@V?$_Tmap_traits@KKU?$less@K@std@@V?$allocator@U?$pair@$$CBKK@std@@@2@$0A@@std@@@std@@KAAADPAU_Node@?$_Tree_nod@V?$_Tmap_traits@KKU?$less@K@std@@V?$allocator@U?$pair@$$CBKK@std@@@2@$0A@@std@@@2@@Z 00407430 f i LoginProtect.obj
 0001:00006440       ?_Left@?$_Tree@V?$_Tmap_traits@KKU?$less@K@std@@V?$allocator@U?$pair@$$CBKK@std@@@2@$0A@@std@@@std@@KAAAPAU_Node@?$_Tree_nod@V?$_Tmap_traits@KKU?$less@K@std@@V?$allocator@U?$pair@$$CBKK@std@@@2@$0A@@std@@@2@PAU342@@Z 00407440 f i LoginProtect.obj
 0001:00006450       ?_Right@?$_Tree@V?$_Tmap_traits@KKU?$less@K@std@@V?$allocator@U?$pair@$$CBKK@std@@@2@$0A@@std@@@std@@KAAAPAU_Node@?$_Tree_nod@V?$_Tmap_traits@KKU?$less@K@std@@V?$allocator@U?$pair@$$CBKK@std@@@2@$0A@@std@@@2@PAU342@@Z 00407450 f i LoginProtect.obj
 0001:00006460       ?_Lmost@?$_Tree@V?$_Tmap_traits@KKU?$less@K@std@@V?$allocator@U?$pair@$$CBKK@std@@@2@$0A@@std@@@std@@IAEAAPAU_Node@?$_Tree_nod@V?$_Tmap_traits@KKU?$less@K@std@@V?$allocator@U?$pair@$$CBKK@std@@@2@$0A@@std@@@2@XZ 00407460 f i LoginProtect.obj
 0001:00006470       ?_Rmost@?$_Tree@V?$_Tmap_traits@KKU?$less@K@std@@V?$allocator@U?$pair@$$CBKK@std@@@2@$0A@@std@@@std@@IAEAAPAU_Node@?$_Tree_nod@V?$_Tmap_traits@KKU?$less@K@std@@V?$allocator@U?$pair@$$CBKK@std@@@2@$0A@@std@@@2@XZ 00407470 f i LoginProtect.obj
 0001:00006480       ?_Kfn@?$_Tmap_traits@KKU?$less@K@std@@V?$allocator@U?$pair@$$CBKK@std@@@2@$0A@@std@@SAABKABU?$pair@$$CBKK@2@@Z 00407480 f i LoginProtect.obj
 0001:00006490       ??0?$allocator@U?$pair@$$CBKK@std@@@std@@QAE@XZ 00407490 f i LoginProtect.obj
 0001:000064a0       ??8const_iterator@?$_Tree@V?$_Tmap_traits@KKU?$less@K@std@@V?$allocator@U?$pair@$$CBKK@std@@@2@$0A@@std@@@std@@QBE_NABV012@@Z 004074a0 f i LoginProtect.obj
 0001:000064b0       ?_Mynode@const_iterator@?$_Tree@V?$_Tmap_traits@KKU?$less@K@std@@V?$allocator@U?$pair@$$CBKK@std@@@2@$0A@@std@@@std@@QBEPAU_Node@?$_Tree_nod@V?$_Tmap_traits@KKU?$less@K@std@@V?$allocator@U?$pair@$$CBKK@std@@@2@$0A@@std@@@3@XZ 004074b0 f i LoginProtect.obj
 0001:000064c0       ??0?$pair@Viterator@?$_Tree@V?$_Tmap_traits@KKU?$less@K@std@@V?$allocator@U?$pair@$$CBKK@std@@@2@$0A@@std@@@std@@_N@std@@QAE@ABViterator@?$_Tree@V?$_Tmap_traits@KKU?$less@K@std@@V?$allocator@U?$pair@$$CBKK@std@@@2@$0A@@std@@@1@AB_N@Z 004074c0 f i LoginProtect.obj
 0001:000064e0       ??8const_iterator@?$_Tree@V?$_Tmap_traits@KULOGIN_CACHE@CLoginProtect@@U?$less@K@std@@V?$allocator@U?$pair@$$CBKULOGIN_CACHE@CLoginProtect@@@std@@@4@$0A@@std@@@std@@QBE_NABV012@@Z 004074e0 f i LoginProtect.obj
 0001:000064f0       ?_Mynode@const_iterator@?$_Tree@V?$_Tmap_traits@KULOGIN_CACHE@CLoginProtect@@U?$less@K@std@@V?$allocator@U?$pair@$$CBKULOGIN_CACHE@CLoginProtect@@@std@@@4@$0A@@std@@@std@@QBEPAU_Node@?$_Tree_nod@V?$_Tmap_traits@KULOGIN_CACHE@CLoginProtect@@U?$less@K@std@@V?$allocator@U?$pair@$$CBKULOGIN_CACHE@CLoginProtect@@@std@@@4@$0A@@std@@@3@XZ 004074f0 f i LoginProtect.obj
 0001:00006500       ??0?$pair@Viterator@?$_Tree@V?$_Tmap_traits@KULOGIN_CACHE@CLoginProtect@@U?$less@K@std@@V?$allocator@U?$pair@$$CBKULOGIN_CACHE@CLoginProtect@@@std@@@4@$0A@@std@@@std@@_N@std@@QAE@ABViterator@?$_Tree@V?$_Tmap_traits@KULOGIN_CACHE@CLoginProtect@@U?$less@K@std@@V?$allocator@U?$pair@$$CBKULOGIN_CACHE@CLoginProtect@@@std@@@4@$0A@@std@@@1@AB_N@Z 00407500 f i LoginProtect.obj
 0001:00006520       ?_Color@?$_Tree@V?$_Tmap_traits@KULOGIN_CACHE@CLoginProtect@@U?$less@K@std@@V?$allocator@U?$pair@$$CBKULOGIN_CACHE@CLoginProtect@@@std@@@4@$0A@@std@@@std@@KAAADPAU_Node@?$_Tree_nod@V?$_Tmap_traits@KULOGIN_CACHE@CLoginProtect@@U?$less@K@std@@V?$allocator@U?$pair@$$CBKULOGIN_CACHE@CLoginProtect@@@std@@@4@$0A@@std@@@2@@Z 00407520 f i LoginProtect.obj
 0001:00006530       ?_Parent@?$_Tree@V?$_Tmap_traits@KULOGIN_CACHE@CLoginProtect@@U?$less@K@std@@V?$allocator@U?$pair@$$CBKULOGIN_CACHE@CLoginProtect@@@std@@@4@$0A@@std@@@std@@KAAAPAU_Node@?$_Tree_nod@V?$_Tmap_traits@KULOGIN_CACHE@CLoginProtect@@U?$less@K@std@@V?$allocator@U?$pair@$$CBKULOGIN_CACHE@CLoginProtect@@@std@@@4@$0A@@std@@@2@PAU342@@Z 00407530 f i LoginProtect.obj
 0001:00006540       ?_Myval@?$_Tree@V?$_Tmap_traits@KULOGIN_CACHE@CLoginProtect@@U?$less@K@std@@V?$allocator@U?$pair@$$CBKULOGIN_CACHE@CLoginProtect@@@std@@@4@$0A@@std@@@std@@KAAAU?$pair@$$CBKULOGIN_CACHE@CLoginProtect@@@2@PAU_Node@?$_Tree_nod@V?$_Tmap_traits@KULOGIN_CACHE@CLoginProtect@@U?$less@K@std@@V?$allocator@U?$pair@$$CBKULOGIN_CACHE@CLoginProtect@@@std@@@4@$0A@@std@@@2@@Z 00407540 f i LoginProtect.obj
 0001:00006550       ??0?$allocator@U?$pair@$$CBKULOGIN_CACHE@CLoginProtect@@@std@@@std@@QAE@ABV01@@Z 00407550 f i LoginProtect.obj
 0001:00006560       ?deallocate@?$allocator@U_Node@?$_Tree_nod@V?$_Tmap_traits@KULOGIN_CACHE@CLoginProtect@@U?$less@K@std@@V?$allocator@U?$pair@$$CBKULOGIN_CACHE@CLoginProtect@@@std@@@4@$0A@@std@@@std@@@std@@QAEXPAU_Node@?$_Tree_nod@V?$_Tmap_traits@KULOGIN_CACHE@CLoginProtect@@U?$less@K@std@@V?$allocator@U?$pair@$$CBKULOGIN_CACHE@CLoginProtect@@@std@@@4@$0A@@std@@@2@I@Z 00407560 f i LoginProtect.obj
 0001:00006570       ?_Color@?$_Tree@V?$_Tmap_traits@KKU?$less@K@std@@V?$allocator@U?$pair@$$CBKK@std@@@2@$0A@@std@@@std@@KAAADPAU_Node@?$_Tree_nod@V?$_Tmap_traits@KKU?$less@K@std@@V?$allocator@U?$pair@$$CBKK@std@@@2@$0A@@std@@@2@@Z 00407570 f i LoginProtect.obj
 0001:00006580       ?_Parent@?$_Tree@V?$_Tmap_traits@KKU?$less@K@std@@V?$allocator@U?$pair@$$CBKK@std@@@2@$0A@@std@@@std@@KAAAPAU_Node@?$_Tree_nod@V?$_Tmap_traits@KKU?$less@K@std@@V?$allocator@U?$pair@$$CBKK@std@@@2@$0A@@std@@@2@PAU342@@Z 00407580 f i LoginProtect.obj
 0001:00006590       ?_Myval@?$_Tree@V?$_Tmap_traits@KKU?$less@K@std@@V?$allocator@U?$pair@$$CBKK@std@@@2@$0A@@std@@@std@@KAAAU?$pair@$$CBKK@2@PAU_Node@?$_Tree_nod@V?$_Tmap_traits@KKU?$less@K@std@@V?$allocator@U?$pair@$$CBKK@std@@@2@$0A@@std@@@2@@Z 00407590 f i LoginProtect.obj
 0001:000065a0       ??0?$allocator@U?$pair@$$CBKK@std@@@std@@QAE@ABV01@@Z 004075a0 f i LoginProtect.obj
 0001:000065b0       ?deallocate@?$allocator@U_Node@?$_Tree_nod@V?$_Tmap_traits@KKU?$less@K@std@@V?$allocator@U?$pair@$$CBKK@std@@@2@$0A@@std@@@std@@@std@@QAEXPAU_Node@?$_Tree_nod@V?$_Tmap_traits@KKU?$less@K@std@@V?$allocator@U?$pair@$$CBKK@std@@@2@$0A@@std@@@2@I@Z 004075b0 f i LoginProtect.obj
 0001:000065c0       ??0const_iterator@?$_Tree@V?$_Tmap_traits@KKU?$less@K@std@@V?$allocator@U?$pair@$$CBKK@std@@@2@$0A@@std@@@std@@QAE@PAU_Node@?$_Tree_nod@V?$_Tmap_traits@KKU?$less@K@std@@V?$allocator@U?$pair@$$CBKK@std@@@2@$0A@@std@@@2@@Z 004075c0 f i LoginProtect.obj
 0001:000065d0       ??Dconst_iterator@?$_Tree@V?$_Tmap_traits@KKU?$less@K@std@@V?$allocator@U?$pair@$$CBKK@std@@@2@$0A@@std@@@std@@QBEABU?$pair@$$CBKK@2@XZ 004075d0 f i LoginProtect.obj
 0001:000065e0       ??0const_iterator@?$_Tree@V?$_Tmap_traits@KULOGIN_CACHE@CLoginProtect@@U?$less@K@std@@V?$allocator@U?$pair@$$CBKULOGIN_CACHE@CLoginProtect@@@std@@@4@$0A@@std@@@std@@QAE@PAU_Node@?$_Tree_nod@V?$_Tmap_traits@KULOGIN_CACHE@CLoginProtect@@U?$less@K@std@@V?$allocator@U?$pair@$$CBKULOGIN_CACHE@CLoginProtect@@@std@@@4@$0A@@std@@@2@@Z 004075e0 f i LoginProtect.obj
 0001:000065f0       ??Dconst_iterator@?$_Tree@V?$_Tmap_traits@KULOGIN_CACHE@CLoginProtect@@U?$less@K@std@@V?$allocator@U?$pair@$$CBKULOGIN_CACHE@CLoginProtect@@@std@@@4@$0A@@std@@@std@@QBEABU?$pair@$$CBKULOGIN_CACHE@CLoginProtect@@@2@XZ 004075f0 f i LoginProtect.obj
 0001:00006600       ??0?$pair@Viterator@?$_Tree@V?$_Tmap_traits@KULOGIN_CACHE@CLoginProtect@@U?$less@K@std@@V?$allocator@U?$pair@$$CBKULOGIN_CACHE@CLoginProtect@@@std@@@4@$0A@@std@@@std@@V123@@std@@QAE@ABViterator@?$_Tree@V?$_Tmap_traits@KULOGIN_CACHE@CLoginProtect@@U?$less@K@std@@V?$allocator@U?$pair@$$CBKULOGIN_CACHE@CLoginProtect@@@std@@@4@$0A@@std@@@1@0@Z 00407600 f i LoginProtect.obj
 0001:00006620       ??0?$pair@Viterator@?$_Tree@V?$_Tmap_traits@KKU?$less@K@std@@V?$allocator@U?$pair@$$CBKK@std@@@2@$0A@@std@@@std@@V123@@std@@QAE@ABViterator@?$_Tree@V?$_Tmap_traits@KKU?$less@K@std@@V?$allocator@U?$pair@$$CBKK@std@@@2@$0A@@std@@@1@0@Z 00407620 f i LoginProtect.obj
 0001:00006640       ?_Max@?$_Tree@V?$_Tmap_traits@KULOGIN_CACHE@CLoginProtect@@U?$less@K@std@@V?$allocator@U?$pair@$$CBKULOGIN_CACHE@CLoginProtect@@@std@@@4@$0A@@std@@@std@@KAPAU_Node@?$_Tree_nod@V?$_Tmap_traits@KULOGIN_CACHE@CLoginProtect@@U?$less@K@std@@V?$allocator@U?$pair@$$CBKULOGIN_CACHE@CLoginProtect@@@std@@@4@$0A@@std@@@2@PAU342@@Z 00407640 f i LoginProtect.obj
 0001:00006660       ?_Min@?$_Tree@V?$_Tmap_traits@KULOGIN_CACHE@CLoginProtect@@U?$less@K@std@@V?$allocator@U?$pair@$$CBKULOGIN_CACHE@CLoginProtect@@@std@@@4@$0A@@std@@@std@@KAPAU_Node@?$_Tree_nod@V?$_Tmap_traits@KULOGIN_CACHE@CLoginProtect@@U?$less@K@std@@V?$allocator@U?$pair@$$CBKULOGIN_CACHE@CLoginProtect@@@std@@@4@$0A@@std@@@2@PAU342@@Z 00407660 f i LoginProtect.obj
 0001:00006680       ?_Root@?$_Tree@V?$_Tmap_traits@KULOGIN_CACHE@CLoginProtect@@U?$less@K@std@@V?$allocator@U?$pair@$$CBKULOGIN_CACHE@CLoginProtect@@@std@@@4@$0A@@std@@@std@@IBEAAPAU_Node@?$_Tree_nod@V?$_Tmap_traits@KULOGIN_CACHE@CLoginProtect@@U?$less@K@std@@V?$allocator@U?$pair@$$CBKULOGIN_CACHE@CLoginProtect@@@std@@@4@$0A@@std@@@2@XZ 00407680 f i LoginProtect.obj
 0001:00006690       ?max_size@?$allocator@U?$pair@$$CBKULOGIN_CACHE@CLoginProtect@@@std@@@std@@QBEIXZ 00407690 f i LoginProtect.obj
 0001:000066a0       ?_Max@?$_Tree@V?$_Tmap_traits@KKU?$less@K@std@@V?$allocator@U?$pair@$$CBKK@std@@@2@$0A@@std@@@std@@KAPAU_Node@?$_Tree_nod@V?$_Tmap_traits@KKU?$less@K@std@@V?$allocator@U?$pair@$$CBKK@std@@@2@$0A@@std@@@2@PAU342@@Z 004076a0 f i LoginProtect.obj
 0001:000066c0       ?_Min@?$_Tree@V?$_Tmap_traits@KKU?$less@K@std@@V?$allocator@U?$pair@$$CBKK@std@@@2@$0A@@std@@@std@@KAPAU_Node@?$_Tree_nod@V?$_Tmap_traits@KKU?$less@K@std@@V?$allocator@U?$pair@$$CBKK@std@@@2@$0A@@std@@@2@PAU342@@Z 004076c0 f i LoginProtect.obj
 0001:000066e0       ?_Root@?$_Tree@V?$_Tmap_traits@KKU?$less@K@std@@V?$allocator@U?$pair@$$CBKK@std@@@2@$0A@@std@@@std@@IBEAAPAU_Node@?$_Tree_nod@V?$_Tmap_traits@KKU?$less@K@std@@V?$allocator@U?$pair@$$CBKK@std@@@2@$0A@@std@@@2@XZ 004076e0 f i LoginProtect.obj
 0001:000066f0       ?max_size@?$allocator@U?$pair@$$CBKK@std@@@std@@QBEIXZ 004076f0 f i LoginProtect.obj
 0001:00006700       ?_Dec@const_iterator@?$_Tree@V?$_Tmap_traits@KKU?$less@K@std@@V?$allocator@U?$pair@$$CBKK@std@@@2@$0A@@std@@@std@@QAEXXZ 00407700 f i LoginProtect.obj
 0001:00006760       ?_Dec@const_iterator@?$_Tree@V?$_Tmap_traits@KULOGIN_CACHE@CLoginProtect@@U?$less@K@std@@V?$allocator@U?$pair@$$CBKULOGIN_CACHE@CLoginProtect@@@std@@@4@$0A@@std@@@std@@QAEXXZ 00407760 f i LoginProtect.obj
 0001:000067c0       ??0_Node@?$_Tree_nod@V?$_Tmap_traits@KULOGIN_CACHE@CLoginProtect@@U?$less@K@std@@V?$allocator@U?$pair@$$CBKULOGIN_CACHE@CLoginProtect@@@std@@@4@$0A@@std@@@std@@QAE@PAU012@00ABU?$pair@$$CBKULOGIN_CACHE@CLoginProtect@@@2@D@Z 004077c0 f i LoginProtect.obj
 0001:00006800       ??0_Node@?$_Tree_nod@V?$_Tmap_traits@KKU?$less@K@std@@V?$allocator@U?$pair@$$CBKK@std@@@2@$0A@@std@@@std@@QAE@PAU012@00ABU?$pair@$$CBKK@2@D@Z 00407800 f i LoginProtect.obj
 0001:00006840       ??0?$_Tmap_traits@KULOGIN_CACHE@CLoginProtect@@U?$less@K@std@@V?$allocator@U?$pair@$$CBKULOGIN_CACHE@CLoginProtect@@@std@@@4@$0A@@std@@QAE@U?$less@K@1@@Z 00407840 f i LoginProtect.obj
 0001:00006850       ??0?$_Tmap_traits@KKU?$less@K@std@@V?$allocator@U?$pair@$$CBKK@std@@@2@$0A@@std@@QAE@U?$less@K@1@@Z 00407850 f i LoginProtect.obj
 0001:00006860       ?_Inc@const_iterator@?$_Tree@V?$_Tmap_traits@KKU?$less@K@std@@V?$allocator@U?$pair@$$CBKK@std@@@2@$0A@@std@@@std@@QAEXXZ 00407860 f i LoginProtect.obj
 0001:000068c0       ?_Inc@const_iterator@?$_Tree@V?$_Tmap_traits@KULOGIN_CACHE@CLoginProtect@@U?$less@K@std@@V?$allocator@U?$pair@$$CBKULOGIN_CACHE@CLoginProtect@@@std@@@4@$0A@@std@@@std@@QAEXXZ 004078c0 f i LoginProtect.obj
 0001:00006920       ??$_Destroy@U_Node@?$_Tree_nod@V?$_Tmap_traits@KULOGIN_CACHE@CLoginProtect@@U?$less@K@std@@V?$allocator@U?$pair@$$CBKULOGIN_CACHE@CLoginProtect@@@std@@@4@$0A@@std@@@std@@@std@@YAXPAU_Node@?$_Tree_nod@V?$_Tmap_traits@KULOGIN_CACHE@CLoginProtect@@U?$less@K@std@@V?$allocator@U?$pair@$$CBKULOGIN_CACHE@CLoginProtect@@@std@@@4@$0A@@std@@@0@@Z 00407920 f i LoginProtect.obj
 0001:00006930       ??$_Destroy@PAU_Node@?$_Tree_nod@V?$_Tmap_traits@KULOGIN_CACHE@CLoginProtect@@U?$less@K@std@@V?$allocator@U?$pair@$$CBKULOGIN_CACHE@CLoginProtect@@@std@@@4@$0A@@std@@@std@@@std@@YAXPAPAU_Node@?$_Tree_nod@V?$_Tmap_traits@KULOGIN_CACHE@CLoginProtect@@U?$less@K@std@@V?$allocator@U?$pair@$$CBKULOGIN_CACHE@CLoginProtect@@@std@@@4@$0A@@std@@@0@@Z 00407930 f i LoginProtect.obj
 0001:00006940       ??$_Destroy@U_Node@?$_Tree_nod@V?$_Tmap_traits@KKU?$less@K@std@@V?$allocator@U?$pair@$$CBKK@std@@@2@$0A@@std@@@std@@@std@@YAXPAU_Node@?$_Tree_nod@V?$_Tmap_traits@KKU?$less@K@std@@V?$allocator@U?$pair@$$CBKK@std@@@2@$0A@@std@@@0@@Z 00407940 f i LoginProtect.obj
 0001:00006950       ??$_Destroy@PAU_Node@?$_Tree_nod@V?$_Tmap_traits@KKU?$less@K@std@@V?$allocator@U?$pair@$$CBKK@std@@@2@$0A@@std@@@std@@@std@@YAXPAPAU_Node@?$_Tree_nod@V?$_Tmap_traits@KKU?$less@K@std@@V?$allocator@U?$pair@$$CBKK@std@@@2@$0A@@std@@@0@@Z 00407950 f i LoginProtect.obj
 0001:00006960       ??$?0U?$pair@$$CBKULOGIN_CACHE@CLoginProtect@@@std@@@?$allocator@PAU_Node@?$_Tree_nod@V?$_Tmap_traits@KULOGIN_CACHE@CLoginProtect@@U?$less@K@std@@V?$allocator@U?$pair@$$CBKULOGIN_CACHE@CLoginProtect@@@std@@@4@$0A@@std@@@std@@@std@@QAE@ABV?$allocator@U?$pair@$$CBKULOGIN_CACHE@CLoginProtect@@@std@@@1@@Z 00407960 f i LoginProtect.obj
 0001:00006970       ??$_Allocate@U_Node@?$_Tree_nod@V?$_Tmap_traits@KULOGIN_CACHE@CLoginProtect@@U?$less@K@std@@V?$allocator@U?$pair@$$CBKULOGIN_CACHE@CLoginProtect@@@std@@@4@$0A@@std@@@std@@@std@@YAPAU_Node@?$_Tree_nod@V?$_Tmap_traits@KULOGIN_CACHE@CLoginProtect@@U?$less@K@std@@V?$allocator@U?$pair@$$CBKULOGIN_CACHE@CLoginProtect@@@std@@@4@$0A@@std@@@0@IPAU120@@Z 00407970 f i LoginProtect.obj
 0001:00006990       ??$?0U?$pair@$$CBKK@std@@@?$allocator@PAU_Node@?$_Tree_nod@V?$_Tmap_traits@KKU?$less@K@std@@V?$allocator@U?$pair@$$CBKK@std@@@2@$0A@@std@@@std@@@std@@QAE@ABV?$allocator@U?$pair@$$CBKK@std@@@1@@Z 00407990 f i LoginProtect.obj
 0001:000069a0       ??$_Allocate@U_Node@?$_Tree_nod@V?$_Tmap_traits@KKU?$less@K@std@@V?$allocator@U?$pair@$$CBKK@std@@@2@$0A@@std@@@std@@@std@@YAPAU_Node@?$_Tree_nod@V?$_Tmap_traits@KKU?$less@K@std@@V?$allocator@U?$pair@$$CBKK@std@@@2@$0A@@std@@@0@IPAU120@@Z 004079a0 f i LoginProtect.obj
 0001:000069c0       ??$?0U?$pair@$$CBKULOGIN_CACHE@CLoginProtect@@@std@@@?$allocator@U_Node@?$_Tree_nod@V?$_Tmap_traits@KULOGIN_CACHE@CLoginProtect@@U?$less@K@std@@V?$allocator@U?$pair@$$CBKULOGIN_CACHE@CLoginProtect@@@std@@@4@$0A@@std@@@std@@@std@@QAE@ABV?$allocator@U?$pair@$$CBKULOGIN_CACHE@CLoginProtect@@@std@@@1@@Z 004079c0 f i LoginProtect.obj
 0001:000069d0       ??$_Construct@PAU_Node@?$_Tree_nod@V?$_Tmap_traits@KULOGIN_CACHE@CLoginProtect@@U?$less@K@std@@V?$allocator@U?$pair@$$CBKULOGIN_CACHE@CLoginProtect@@@std@@@4@$0A@@std@@@std@@PAU123@@std@@YAXPAPAU_Node@?$_Tree_nod@V?$_Tmap_traits@KULOGIN_CACHE@CLoginProtect@@U?$less@K@std@@V?$allocator@U?$pair@$$CBKULOGIN_CACHE@CLoginProtect@@@std@@@4@$0A@@std@@@0@ABQAU120@@Z 004079d0 f i LoginProtect.obj
 0001:000069f0       ??$?0U?$pair@$$CBKK@std@@@?$allocator@U_Node@?$_Tree_nod@V?$_Tmap_traits@KKU?$less@K@std@@V?$allocator@U?$pair@$$CBKK@std@@@2@$0A@@std@@@std@@@std@@QAE@ABV?$allocator@U?$pair@$$CBKK@std@@@1@@Z 004079f0 f i LoginProtect.obj
 0001:00006a00       ??$_Construct@PAU_Node@?$_Tree_nod@V?$_Tmap_traits@KKU?$less@K@std@@V?$allocator@U?$pair@$$CBKK@std@@@2@$0A@@std@@@std@@PAU123@@std@@YAXPAPAU_Node@?$_Tree_nod@V?$_Tmap_traits@KKU?$less@K@std@@V?$allocator@U?$pair@$$CBKK@std@@@2@$0A@@std@@@0@ABQAU120@@Z 00407a00 f i LoginProtect.obj
 0001:00006a20       ??$_Iter_cat@Viterator@?$_Tree@V?$_Tmap_traits@KULOGIN_CACHE@CLoginProtect@@U?$less@K@std@@V?$allocator@U?$pair@$$CBKULOGIN_CACHE@CLoginProtect@@@std@@@4@$0A@@std@@@std@@@std@@YA?AUbidirectional_iterator_tag@0@ABViterator@?$_Tree@V?$_Tmap_traits@KULOGIN_CACHE@CLoginProtect@@U?$less@K@std@@V?$allocator@U?$pair@$$CBKULOGIN_CACHE@CLoginProtect@@@std@@@4@$0A@@std@@@0@@Z 00407a20 f i LoginProtect.obj
 0001:00006a30       ??$_Iter_cat@Viterator@?$_Tree@V?$_Tmap_traits@KKU?$less@K@std@@V?$allocator@U?$pair@$$CBKK@std@@@2@$0A@@std@@@std@@@std@@YA?AUbidirectional_iterator_tag@0@ABViterator@?$_Tree@V?$_Tmap_traits@KKU?$less@K@std@@V?$allocator@U?$pair@$$CBKK@std@@@2@$0A@@std@@@0@@Z 00407a30 f i LoginProtect.obj
 0001:00006a40       ??9const_iterator@?$_Tree@V?$_Tmap_traits@KKU?$less@K@std@@V?$allocator@U?$pair@$$CBKK@std@@@2@$0A@@std@@@std@@QBE_NABV012@@Z 00407a40 f i LoginProtect.obj
 0001:00006a60       ??9const_iterator@?$_Tree@V?$_Tmap_traits@KULOGIN_CACHE@CLoginProtect@@U?$less@K@std@@V?$allocator@U?$pair@$$CBKULOGIN_CACHE@CLoginProtect@@@std@@@4@$0A@@std@@@std@@QBE_NABV012@@Z 00407a60 f i LoginProtect.obj
 0001:00006a80       ?_Key@?$_Tree@V?$_Tmap_traits@KULOGIN_CACHE@CLoginProtect@@U?$less@K@std@@V?$allocator@U?$pair@$$CBKULOGIN_CACHE@CLoginProtect@@@std@@@4@$0A@@std@@@std@@KAABKPAU_Node@?$_Tree_nod@V?$_Tmap_traits@KULOGIN_CACHE@CLoginProtect@@U?$less@K@std@@V?$allocator@U?$pair@$$CBKULOGIN_CACHE@CLoginProtect@@@std@@@4@$0A@@std@@@2@@Z 00407a80 f i LoginProtect.obj
 0001:00006a90       ?_Root@?$_Tree@V?$_Tmap_traits@KULOGIN_CACHE@CLoginProtect@@U?$less@K@std@@V?$allocator@U?$pair@$$CBKULOGIN_CACHE@CLoginProtect@@@std@@@4@$0A@@std@@@std@@IAEAAPAU_Node@?$_Tree_nod@V?$_Tmap_traits@KULOGIN_CACHE@CLoginProtect@@U?$less@K@std@@V?$allocator@U?$pair@$$CBKULOGIN_CACHE@CLoginProtect@@@std@@@4@$0A@@std@@@2@XZ 00407a90 f i LoginProtect.obj
 0001:00006aa0       ?_Key@?$_Tree@V?$_Tmap_traits@KKU?$less@K@std@@V?$allocator@U?$pair@$$CBKK@std@@@2@$0A@@std@@@std@@KAABKPAU_Node@?$_Tree_nod@V?$_Tmap_traits@KKU?$less@K@std@@V?$allocator@U?$pair@$$CBKK@std@@@2@$0A@@std@@@2@@Z 00407aa0 f i LoginProtect.obj
 0001:00006ab0       ?_Root@?$_Tree@V?$_Tmap_traits@KKU?$less@K@std@@V?$allocator@U?$pair@$$CBKK@std@@@2@$0A@@std@@@std@@IAEAAPAU_Node@?$_Tree_nod@V?$_Tmap_traits@KKU?$less@K@std@@V?$allocator@U?$pair@$$CBKK@std@@@2@$0A@@std@@@2@XZ 00407ab0 f i LoginProtect.obj
 0001:00006ac0       ??0iterator@?$_Tree@V?$_Tmap_traits@KKU?$less@K@std@@V?$allocator@U?$pair@$$CBKK@std@@@2@$0A@@std@@@std@@QAE@PAU_Node@?$_Tree_nod@V?$_Tmap_traits@KKU?$less@K@std@@V?$allocator@U?$pair@$$CBKK@std@@@2@$0A@@std@@@2@@Z 00407ac0 f i LoginProtect.obj
 0001:00006ad0       ??Diterator@?$_Tree@V?$_Tmap_traits@KKU?$less@K@std@@V?$allocator@U?$pair@$$CBKK@std@@@2@$0A@@std@@@std@@QBEAAU?$pair@$$CBKK@2@XZ 00407ad0 f i LoginProtect.obj
 0001:00006ae0       ??0iterator@?$_Tree@V?$_Tmap_traits@KULOGIN_CACHE@CLoginProtect@@U?$less@K@std@@V?$allocator@U?$pair@$$CBKULOGIN_CACHE@CLoginProtect@@@std@@@4@$0A@@std@@@std@@QAE@PAU_Node@?$_Tree_nod@V?$_Tmap_traits@KULOGIN_CACHE@CLoginProtect@@U?$less@K@std@@V?$allocator@U?$pair@$$CBKULOGIN_CACHE@CLoginProtect@@@std@@@4@$0A@@std@@@2@@Z 00407ae0 f i LoginProtect.obj
 0001:00006af0       ??Diterator@?$_Tree@V?$_Tmap_traits@KULOGIN_CACHE@CLoginProtect@@U?$less@K@std@@V?$allocator@U?$pair@$$CBKULOGIN_CACHE@CLoginProtect@@@std@@@4@$0A@@std@@@std@@QBEAAU?$pair@$$CBKULOGIN_CACHE@CLoginProtect@@@2@XZ 00407af0 f i LoginProtect.obj
 0001:00006b00       ?max_size@?$_Tree@V?$_Tmap_traits@KULOGIN_CACHE@CLoginProtect@@U?$less@K@std@@V?$allocator@U?$pair@$$CBKULOGIN_CACHE@CLoginProtect@@@std@@@4@$0A@@std@@@std@@QBEIXZ 00407b00 f i LoginProtect.obj
 0001:00006b10       ?_Lbound@?$_Tree@V?$_Tmap_traits@KULOGIN_CACHE@CLoginProtect@@U?$less@K@std@@V?$allocator@U?$pair@$$CBKULOGIN_CACHE@CLoginProtect@@@std@@@4@$0A@@std@@@std@@IBEPAU_Node@?$_Tree_nod@V?$_Tmap_traits@KULOGIN_CACHE@CLoginProtect@@U?$less@K@std@@V?$allocator@U?$pair@$$CBKULOGIN_CACHE@CLoginProtect@@@std@@@4@$0A@@std@@@2@ABK@Z 00407b10 f i LoginProtect.obj
 0001:00006b40       ?_Lrotate@?$_Tree@V?$_Tmap_traits@KULOGIN_CACHE@CLoginProtect@@U?$less@K@std@@V?$allocator@U?$pair@$$CBKULOGIN_CACHE@CLoginProtect@@@std@@@4@$0A@@std@@@std@@IAEXPAU_Node@?$_Tree_nod@V?$_Tmap_traits@KULOGIN_CACHE@CLoginProtect@@U?$less@K@std@@V?$allocator@U?$pair@$$CBKULOGIN_CACHE@CLoginProtect@@@std@@@4@$0A@@std@@@2@@Z 00407b40 f i LoginProtect.obj
 0001:00006ba0       ?_Rrotate@?$_Tree@V?$_Tmap_traits@KULOGIN_CACHE@CLoginProtect@@U?$less@K@std@@V?$allocator@U?$pair@$$CBKULOGIN_CACHE@CLoginProtect@@@std@@@4@$0A@@std@@@std@@IAEXPAU_Node@?$_Tree_nod@V?$_Tmap_traits@KULOGIN_CACHE@CLoginProtect@@U?$less@K@std@@V?$allocator@U?$pair@$$CBKULOGIN_CACHE@CLoginProtect@@@std@@@4@$0A@@std@@@2@@Z 00407ba0 f i LoginProtect.obj
 0001:00006c00       ?destroy@?$allocator@U_Node@?$_Tree_nod@V?$_Tmap_traits@KULOGIN_CACHE@CLoginProtect@@U?$less@K@std@@V?$allocator@U?$pair@$$CBKULOGIN_CACHE@CLoginProtect@@@std@@@4@$0A@@std@@@std@@@std@@QAEXPAU_Node@?$_Tree_nod@V?$_Tmap_traits@KULOGIN_CACHE@CLoginProtect@@U?$less@K@std@@V?$allocator@U?$pair@$$CBKULOGIN_CACHE@CLoginProtect@@@std@@@4@$0A@@std@@@2@@Z 00407c00 f i LoginProtect.obj
 0001:00006c10       ?destroy@?$allocator@PAU_Node@?$_Tree_nod@V?$_Tmap_traits@KULOGIN_CACHE@CLoginProtect@@U?$less@K@std@@V?$allocator@U?$pair@$$CBKULOGIN_CACHE@CLoginProtect@@@std@@@4@$0A@@std@@@std@@@std@@QAEXPAPAU_Node@?$_Tree_nod@V?$_Tmap_traits@KULOGIN_CACHE@CLoginProtect@@U?$less@K@std@@V?$allocator@U?$pair@$$CBKULOGIN_CACHE@CLoginProtect@@@std@@@4@$0A@@std@@@2@@Z 00407c10 f i LoginProtect.obj
 0001:00006c20       ?max_size@?$_Tree@V?$_Tmap_traits@KKU?$less@K@std@@V?$allocator@U?$pair@$$CBKK@std@@@2@$0A@@std@@@std@@QBEIXZ 00407c20 f i LoginProtect.obj
 0001:00006c30       ?_Lbound@?$_Tree@V?$_Tmap_traits@KKU?$less@K@std@@V?$allocator@U?$pair@$$CBKK@std@@@2@$0A@@std@@@std@@IBEPAU_Node@?$_Tree_nod@V?$_Tmap_traits@KKU?$less@K@std@@V?$allocator@U?$pair@$$CBKK@std@@@2@$0A@@std@@@2@ABK@Z 00407c30 f i LoginProtect.obj
 0001:00006c60       ?_Lrotate@?$_Tree@V?$_Tmap_traits@KKU?$less@K@std@@V?$allocator@U?$pair@$$CBKK@std@@@2@$0A@@std@@@std@@IAEXPAU_Node@?$_Tree_nod@V?$_Tmap_traits@KKU?$less@K@std@@V?$allocator@U?$pair@$$CBKK@std@@@2@$0A@@std@@@2@@Z 00407c60 f i LoginProtect.obj
 0001:00006cc0       ?_Rrotate@?$_Tree@V?$_Tmap_traits@KKU?$less@K@std@@V?$allocator@U?$pair@$$CBKK@std@@@2@$0A@@std@@@std@@IAEXPAU_Node@?$_Tree_nod@V?$_Tmap_traits@KKU?$less@K@std@@V?$allocator@U?$pair@$$CBKK@std@@@2@$0A@@std@@@2@@Z 00407cc0 f i LoginProtect.obj
 0001:00006d20       ?destroy@?$allocator@U_Node@?$_Tree_nod@V?$_Tmap_traits@KKU?$less@K@std@@V?$allocator@U?$pair@$$CBKK@std@@@2@$0A@@std@@@std@@@std@@QAEXPAU_Node@?$_Tree_nod@V?$_Tmap_traits@KKU?$less@K@std@@V?$allocator@U?$pair@$$CBKK@std@@@2@$0A@@std@@@2@@Z 00407d20 f i LoginProtect.obj
 0001:00006d30       ?destroy@?$allocator@PAU_Node@?$_Tree_nod@V?$_Tmap_traits@KKU?$less@K@std@@V?$allocator@U?$pair@$$CBKK@std@@@2@$0A@@std@@@std@@@std@@QAEXPAPAU_Node@?$_Tree_nod@V?$_Tmap_traits@KKU?$less@K@std@@V?$allocator@U?$pair@$$CBKK@std@@@2@$0A@@std@@@2@@Z 00407d30 f i LoginProtect.obj
 0001:00006d40       ??Fconst_iterator@?$_Tree@V?$_Tmap_traits@KKU?$less@K@std@@V?$allocator@U?$pair@$$CBKK@std@@@2@$0A@@std@@@std@@QAEAAV012@XZ 00407d40 f i LoginProtect.obj
 0001:00006d50       ??Fconst_iterator@?$_Tree@V?$_Tmap_traits@KULOGIN_CACHE@CLoginProtect@@U?$less@K@std@@V?$allocator@U?$pair@$$CBKULOGIN_CACHE@CLoginProtect@@@std@@@4@$0A@@std@@@std@@QAEAAV012@XZ 00407d50 f i LoginProtect.obj
 0001:00006d60       ?_Ubound@?$_Tree@V?$_Tmap_traits@KULOGIN_CACHE@CLoginProtect@@U?$less@K@std@@V?$allocator@U?$pair@$$CBKULOGIN_CACHE@CLoginProtect@@@std@@@4@$0A@@std@@@std@@IBEPAU_Node@?$_Tree_nod@V?$_Tmap_traits@KULOGIN_CACHE@CLoginProtect@@U?$less@K@std@@V?$allocator@U?$pair@$$CBKULOGIN_CACHE@CLoginProtect@@@std@@@4@$0A@@std@@@2@ABK@Z 00407d60 f i LoginProtect.obj
 0001:00006d90       ?allocate@?$allocator@U_Node@?$_Tree_nod@V?$_Tmap_traits@KULOGIN_CACHE@CLoginProtect@@U?$less@K@std@@V?$allocator@U?$pair@$$CBKULOGIN_CACHE@CLoginProtect@@@std@@@4@$0A@@std@@@std@@@std@@QAEPAU_Node@?$_Tree_nod@V?$_Tmap_traits@KULOGIN_CACHE@CLoginProtect@@U?$less@K@std@@V?$allocator@U?$pair@$$CBKULOGIN_CACHE@CLoginProtect@@@std@@@4@$0A@@std@@@2@I@Z 00407d90 f i LoginProtect.obj
 0001:00006db0       ?_Ubound@?$_Tree@V?$_Tmap_traits@KKU?$less@K@std@@V?$allocator@U?$pair@$$CBKK@std@@@2@$0A@@std@@@std@@IBEPAU_Node@?$_Tree_nod@V?$_Tmap_traits@KKU?$less@K@std@@V?$allocator@U?$pair@$$CBKK@std@@@2@$0A@@std@@@2@ABK@Z 00407db0 f i LoginProtect.obj
 0001:00006de0       ?allocate@?$allocator@U_Node@?$_Tree_nod@V?$_Tmap_traits@KKU?$less@K@std@@V?$allocator@U?$pair@$$CBKK@std@@@2@$0A@@std@@@std@@@std@@QAEPAU_Node@?$_Tree_nod@V?$_Tmap_traits@KKU?$less@K@std@@V?$allocator@U?$pair@$$CBKK@std@@@2@$0A@@std@@@2@I@Z 00407de0 f i LoginProtect.obj
 0001:00006e00       ??0?$_Tree_nod@V?$_Tmap_traits@KULOGIN_CACHE@CLoginProtect@@U?$less@K@std@@V?$allocator@U?$pair@$$CBKULOGIN_CACHE@CLoginProtect@@@std@@@4@$0A@@std@@@std@@IAE@ABU?$less@K@1@V?$allocator@U?$pair@$$CBKULOGIN_CACHE@CLoginProtect@@@std@@@1@@Z 00407e00 f i LoginProtect.obj
 0001:00006e10       ?construct@?$allocator@PAU_Node@?$_Tree_nod@V?$_Tmap_traits@KULOGIN_CACHE@CLoginProtect@@U?$less@K@std@@V?$allocator@U?$pair@$$CBKULOGIN_CACHE@CLoginProtect@@@std@@@4@$0A@@std@@@std@@@std@@QAEXPAPAU_Node@?$_Tree_nod@V?$_Tmap_traits@KULOGIN_CACHE@CLoginProtect@@U?$less@K@std@@V?$allocator@U?$pair@$$CBKULOGIN_CACHE@CLoginProtect@@@std@@@4@$0A@@std@@@2@ABQAU342@@Z 00407e10 f i LoginProtect.obj
 0001:00006e30       ??0?$_Tree_nod@V?$_Tmap_traits@KKU?$less@K@std@@V?$allocator@U?$pair@$$CBKK@std@@@2@$0A@@std@@@std@@IAE@ABU?$less@K@1@V?$allocator@U?$pair@$$CBKK@std@@@1@@Z 00407e30 f i LoginProtect.obj
 0001:00006e40       ?construct@?$allocator@PAU_Node@?$_Tree_nod@V?$_Tmap_traits@KKU?$less@K@std@@V?$allocator@U?$pair@$$CBKK@std@@@2@$0A@@std@@@std@@@std@@QAEXPAPAU_Node@?$_Tree_nod@V?$_Tmap_traits@KKU?$less@K@std@@V?$allocator@U?$pair@$$CBKK@std@@@2@$0A@@std@@@2@ABQAU342@@Z 00407e40 f i LoginProtect.obj
 0001:00006e60       ??Econst_iterator@?$_Tree@V?$_Tmap_traits@KKU?$less@K@std@@V?$allocator@U?$pair@$$CBKK@std@@@2@$0A@@std@@@std@@QAEAAV012@XZ 00407e60 f i LoginProtect.obj
 0001:00006e70       ??Econst_iterator@?$_Tree@V?$_Tmap_traits@KULOGIN_CACHE@CLoginProtect@@U?$less@K@std@@V?$allocator@U?$pair@$$CBKULOGIN_CACHE@CLoginProtect@@@std@@@4@$0A@@std@@@std@@QAEAAV012@XZ 00407e70 f i LoginProtect.obj
 0001:00006e80       ?end@?$_Tree@V?$_Tmap_traits@KULOGIN_CACHE@CLoginProtect@@U?$less@K@std@@V?$allocator@U?$pair@$$CBKULOGIN_CACHE@CLoginProtect@@@std@@@4@$0A@@std@@@std@@QAE?AViterator@12@XZ 00407e80 f i LoginProtect.obj
 0001:00006e90       ?end@?$_Tree@V?$_Tmap_traits@KKU?$less@K@std@@V?$allocator@U?$pair@$$CBKK@std@@@2@$0A@@std@@@std@@QAE?AViterator@12@XZ 00407e90 f i LoginProtect.obj
 0001:00006ea0       ??Citerator@?$_Tree@V?$_Tmap_traits@KKU?$less@K@std@@V?$allocator@U?$pair@$$CBKK@std@@@2@$0A@@std@@@std@@QBEPAU?$pair@$$CBKK@2@XZ 00407ea0 f i LoginProtect.obj
 0001:00006eb0       ??Citerator@?$_Tree@V?$_Tmap_traits@KULOGIN_CACHE@CLoginProtect@@U?$less@K@std@@V?$allocator@U?$pair@$$CBKULOGIN_CACHE@CLoginProtect@@@std@@@4@$0A@@std@@@std@@QBEPAU?$pair@$$CBKULOGIN_CACHE@CLoginProtect@@@2@XZ 00407eb0 f i LoginProtect.obj
 0001:00006ec0       ?begin@?$_Tree@V?$_Tmap_traits@KULOGIN_CACHE@CLoginProtect@@U?$less@K@std@@V?$allocator@U?$pair@$$CBKULOGIN_CACHE@CLoginProtect@@@std@@@4@$0A@@std@@@std@@QAE?AViterator@12@XZ 00407ec0 f i LoginProtect.obj
 0001:00006ed0       ?lower_bound@?$_Tree@V?$_Tmap_traits@KULOGIN_CACHE@CLoginProtect@@U?$less@K@std@@V?$allocator@U?$pair@$$CBKULOGIN_CACHE@CLoginProtect@@@std@@@4@$0A@@std@@@std@@QAE?AViterator@12@ABK@Z 00407ed0 f i LoginProtect.obj
 0001:00006f10       ?_Erase@?$_Tree@V?$_Tmap_traits@KULOGIN_CACHE@CLoginProtect@@U?$less@K@std@@V?$allocator@U?$pair@$$CBKULOGIN_CACHE@CLoginProtect@@@std@@@4@$0A@@std@@@std@@IAEXPAU_Node@?$_Tree_nod@V?$_Tmap_traits@KULOGIN_CACHE@CLoginProtect@@U?$less@K@std@@V?$allocator@U?$pair@$$CBKULOGIN_CACHE@CLoginProtect@@@std@@@4@$0A@@std@@@2@@Z 00407f10 f i LoginProtect.obj
 0001:00006f50       ?begin@?$_Tree@V?$_Tmap_traits@KKU?$less@K@std@@V?$allocator@U?$pair@$$CBKK@std@@@2@$0A@@std@@@std@@QAE?AViterator@12@XZ 00407f50 f i LoginProtect.obj
 0001:00006f60       ?lower_bound@?$_Tree@V?$_Tmap_traits@KKU?$less@K@std@@V?$allocator@U?$pair@$$CBKK@std@@@2@$0A@@std@@@std@@QAE?AViterator@12@ABK@Z 00407f60 f i LoginProtect.obj
 0001:00006fa0       ?_Erase@?$_Tree@V?$_Tmap_traits@KKU?$less@K@std@@V?$allocator@U?$pair@$$CBKK@std@@@2@$0A@@std@@@std@@IAEXPAU_Node@?$_Tree_nod@V?$_Tmap_traits@KKU?$less@K@std@@V?$allocator@U?$pair@$$CBKK@std@@@2@$0A@@std@@@2@@Z 00407fa0 f i LoginProtect.obj
 0001:00006fe0       ??Fiterator@?$_Tree@V?$_Tmap_traits@KKU?$less@K@std@@V?$allocator@U?$pair@$$CBKK@std@@@2@$0A@@std@@@std@@QAEAAV012@XZ 00407fe0 f i LoginProtect.obj
 0001:00006ff0       ??Fiterator@?$_Tree@V?$_Tmap_traits@KULOGIN_CACHE@CLoginProtect@@U?$less@K@std@@V?$allocator@U?$pair@$$CBKULOGIN_CACHE@CLoginProtect@@@std@@@4@$0A@@std@@@std@@QAEAAV012@XZ 00407ff0 f i LoginProtect.obj
 0001:00007000       ?upper_bound@?$_Tree@V?$_Tmap_traits@KULOGIN_CACHE@CLoginProtect@@U?$less@K@std@@V?$allocator@U?$pair@$$CBKULOGIN_CACHE@CLoginProtect@@@std@@@4@$0A@@std@@@std@@QAE?AViterator@12@ABK@Z 00408000 f i LoginProtect.obj
 0001:00007040       ?_Buynode@?$_Tree@V?$_Tmap_traits@KULOGIN_CACHE@CLoginProtect@@U?$less@K@std@@V?$allocator@U?$pair@$$CBKULOGIN_CACHE@CLoginProtect@@@std@@@4@$0A@@std@@@std@@IAEPAU_Node@?$_Tree_nod@V?$_Tmap_traits@KULOGIN_CACHE@CLoginProtect@@U?$less@K@std@@V?$allocator@U?$pair@$$CBKULOGIN_CACHE@CLoginProtect@@@std@@@4@$0A@@std@@@2@PAU342@00ABU?$pair@$$CBKULOGIN_CACHE@CLoginProtect@@@2@D@Z 00408040 f i LoginProtect.obj
 0001:00007090       ?upper_bound@?$_Tree@V?$_Tmap_traits@KKU?$less@K@std@@V?$allocator@U?$pair@$$CBKK@std@@@2@$0A@@std@@@std@@QAE?AViterator@12@ABK@Z 00408090 f i LoginProtect.obj
 0001:000070d0       ?_Buynode@?$_Tree@V?$_Tmap_traits@KKU?$less@K@std@@V?$allocator@U?$pair@$$CBKK@std@@@2@$0A@@std@@@std@@IAEPAU_Node@?$_Tree_nod@V?$_Tmap_traits@KKU?$less@K@std@@V?$allocator@U?$pair@$$CBKK@std@@@2@$0A@@std@@@2@PAU342@00ABU?$pair@$$CBKK@2@D@Z 004080d0 f i LoginProtect.obj
 0001:00007110       ?_Buynode@?$_Tree@V?$_Tmap_traits@KULOGIN_CACHE@CLoginProtect@@U?$less@K@std@@V?$allocator@U?$pair@$$CBKULOGIN_CACHE@CLoginProtect@@@std@@@4@$0A@@std@@@std@@IAEPAU_Node@?$_Tree_nod@V?$_Tmap_traits@KULOGIN_CACHE@CLoginProtect@@U?$less@K@std@@V?$allocator@U?$pair@$$CBKULOGIN_CACHE@CLoginProtect@@@std@@@4@$0A@@std@@@2@XZ 00408110 f i LoginProtect.obj
 0001:00007150       ??0?$_Tree_ptr@V?$_Tmap_traits@KULOGIN_CACHE@CLoginProtect@@U?$less@K@std@@V?$allocator@U?$pair@$$CBKULOGIN_CACHE@CLoginProtect@@@std@@@4@$0A@@std@@@std@@IAE@ABU?$less@K@1@V?$allocator@U?$pair@$$CBKULOGIN_CACHE@CLoginProtect@@@std@@@1@@Z 00408150 f i LoginProtect.obj
 0001:00007160       ?_Buynode@?$_Tree@V?$_Tmap_traits@KKU?$less@K@std@@V?$allocator@U?$pair@$$CBKK@std@@@2@$0A@@std@@@std@@IAEPAU_Node@?$_Tree_nod@V?$_Tmap_traits@KKU?$less@K@std@@V?$allocator@U?$pair@$$CBKK@std@@@2@$0A@@std@@@2@XZ 00408160 f i LoginProtect.obj
 0001:000071a0       ??0?$_Tree_ptr@V?$_Tmap_traits@KKU?$less@K@std@@V?$allocator@U?$pair@$$CBKK@std@@@2@$0A@@std@@@std@@IAE@ABU?$less@K@1@V?$allocator@U?$pair@$$CBKK@std@@@1@@Z 004081a0 f i LoginProtect.obj
 0001:000071b0       ??Eiterator@?$_Tree@V?$_Tmap_traits@KKU?$less@K@std@@V?$allocator@U?$pair@$$CBKK@std@@@2@$0A@@std@@@std@@QAEAAV012@XZ 004081b0 f i LoginProtect.obj
 0001:000071c0       ??Eiterator@?$_Tree@V?$_Tmap_traits@KULOGIN_CACHE@CLoginProtect@@U?$less@K@std@@V?$allocator@U?$pair@$$CBKULOGIN_CACHE@CLoginProtect@@@std@@@4@$0A@@std@@@std@@QAEAAV012@XZ 004081c0 f i LoginProtect.obj
 0001:000071d0       ??$_Distance2@Viterator@?$_Tree@V?$_Tmap_traits@KULOGIN_CACHE@CLoginProtect@@U?$less@K@std@@V?$allocator@U?$pair@$$CBKULOGIN_CACHE@CLoginProtect@@@std@@@4@$0A@@std@@@std@@I@std@@YAXViterator@?$_Tree@V?$_Tmap_traits@KULOGIN_CACHE@CLoginProtect@@U?$less@K@std@@V?$allocator@U?$pair@$$CBKULOGIN_CACHE@CLoginProtect@@@std@@@4@$0A@@std@@@0@0AAIUbidirectional_iterator_tag@0@@Z 004081d0 f i LoginProtect.obj
 0001:00007200       ??$_Distance2@Viterator@?$_Tree@V?$_Tmap_traits@KKU?$less@K@std@@V?$allocator@U?$pair@$$CBKK@std@@@2@$0A@@std@@@std@@I@std@@YAXViterator@?$_Tree@V?$_Tmap_traits@KKU?$less@K@std@@V?$allocator@U?$pair@$$CBKK@std@@@2@$0A@@std@@@0@0AAIUbidirectional_iterator_tag@0@@Z 00408200 f i LoginProtect.obj
 0001:00007230       ?clear@?$_Tree@V?$_Tmap_traits@KULOGIN_CACHE@CLoginProtect@@U?$less@K@std@@V?$allocator@U?$pair@$$CBKULOGIN_CACHE@CLoginProtect@@@std@@@4@$0A@@std@@@std@@QAEXXZ 00408230 f i LoginProtect.obj
 0001:00007260       ?find@?$_Tree@V?$_Tmap_traits@KULOGIN_CACHE@CLoginProtect@@U?$less@K@std@@V?$allocator@U?$pair@$$CBKULOGIN_CACHE@CLoginProtect@@@std@@@4@$0A@@std@@@std@@QAE?AViterator@12@ABK@Z 00408260 f i LoginProtect.obj
 0001:000072d0       ?clear@?$_Tree@V?$_Tmap_traits@KKU?$less@K@std@@V?$allocator@U?$pair@$$CBKK@std@@@2@$0A@@std@@@std@@QAEXXZ 004082d0 f i LoginProtect.obj
 0001:00007300       ?find@?$_Tree@V?$_Tmap_traits@KKU?$less@K@std@@V?$allocator@U?$pair@$$CBKK@std@@@2@$0A@@std@@@std@@QAE?AViterator@12@ABK@Z 00408300 f i LoginProtect.obj
 0001:00007370       ?equal_range@?$_Tree@V?$_Tmap_traits@KULOGIN_CACHE@CLoginProtect@@U?$less@K@std@@V?$allocator@U?$pair@$$CBKULOGIN_CACHE@CLoginProtect@@@std@@@4@$0A@@std@@@std@@QAE?AU?$pair@Viterator@?$_Tree@V?$_Tmap_traits@KULOGIN_CACHE@CLoginProtect@@U?$less@K@std@@V?$allocator@U?$pair@$$CBKULOGIN_CACHE@CLoginProtect@@@std@@@4@$0A@@std@@@std@@V123@@2@ABK@Z 00408370 f i LoginProtect.obj
 0001:000073e0       ?equal_range@?$_Tree@V?$_Tmap_traits@KKU?$less@K@std@@V?$allocator@U?$pair@$$CBKK@std@@@2@$0A@@std@@@std@@QAE?AU?$pair@Viterator@?$_Tree@V?$_Tmap_traits@KKU?$less@K@std@@V?$allocator@U?$pair@$$CBKK@std@@@2@$0A@@std@@@std@@V123@@2@ABK@Z 004083e0 f i LoginProtect.obj
 0001:00007450       ?_Init@?$_Tree@V?$_Tmap_traits@KULOGIN_CACHE@CLoginProtect@@U?$less@K@std@@V?$allocator@U?$pair@$$CBKULOGIN_CACHE@CLoginProtect@@@std@@@4@$0A@@std@@@std@@IAEXXZ 00408450 f i LoginProtect.obj
 0001:00007480       ??0?$_Tree_val@V?$_Tmap_traits@KULOGIN_CACHE@CLoginProtect@@U?$less@K@std@@V?$allocator@U?$pair@$$CBKULOGIN_CACHE@CLoginProtect@@@std@@@4@$0A@@std@@@std@@IAE@ABU?$less@K@1@V?$allocator@U?$pair@$$CBKULOGIN_CACHE@CLoginProtect@@@std@@@1@@Z 00408480 f i LoginProtect.obj
 0001:00007490       ?_Init@?$_Tree@V?$_Tmap_traits@KKU?$less@K@std@@V?$allocator@U?$pair@$$CBKK@std@@@2@$0A@@std@@@std@@IAEXXZ 00408490 f i LoginProtect.obj
 0001:000074c0       ??0?$_Tree_val@V?$_Tmap_traits@KKU?$less@K@std@@V?$allocator@U?$pair@$$CBKK@std@@@2@$0A@@std@@@std@@IAE@ABU?$less@K@1@V?$allocator@U?$pair@$$CBKK@std@@@1@@Z 004084c0 f i LoginProtect.obj
 0001:000074d0       ??Eiterator@?$_Tree@V?$_Tmap_traits@KKU?$less@K@std@@V?$allocator@U?$pair@$$CBKK@std@@@2@$0A@@std@@@std@@QAE?AV012@H@Z 004084d0 f i LoginProtect.obj
 0001:000074f0       ??Eiterator@?$_Tree@V?$_Tmap_traits@KULOGIN_CACHE@CLoginProtect@@U?$less@K@std@@V?$allocator@U?$pair@$$CBKULOGIN_CACHE@CLoginProtect@@@std@@@4@$0A@@std@@@std@@QAE?AV012@H@Z 004084f0 f i LoginProtect.obj
 0001:00007510       ??$_Distance@Viterator@?$_Tree@V?$_Tmap_traits@KULOGIN_CACHE@CLoginProtect@@U?$less@K@std@@V?$allocator@U?$pair@$$CBKULOGIN_CACHE@CLoginProtect@@@std@@@4@$0A@@std@@@std@@I@std@@YAXViterator@?$_Tree@V?$_Tmap_traits@KULOGIN_CACHE@CLoginProtect@@U?$less@K@std@@V?$allocator@U?$pair@$$CBKULOGIN_CACHE@CLoginProtect@@@std@@@4@$0A@@std@@@0@0AAI@Z 00408510 f i LoginProtect.obj
 0001:00007550       ??$_Distance@Viterator@?$_Tree@V?$_Tmap_traits@KKU?$less@K@std@@V?$allocator@U?$pair@$$CBKK@std@@@2@$0A@@std@@@std@@I@std@@YAXViterator@?$_Tree@V?$_Tmap_traits@KKU?$less@K@std@@V?$allocator@U?$pair@$$CBKK@std@@@2@$0A@@std@@@0@0AAI@Z 00408550 f i LoginProtect.obj
 0001:00007590       ?Clear@CLoginProtect@@QAEXXZ 00408590 f   LoginProtect.obj
 0001:000075f0       ?GetNumPadId@CLoginProtect@@QAEKK@Z 004085f0 f   LoginProtect.obj
 0001:00007630       ?Check@CLoginProtect@@QAE?AW4LOGIN_CHECK@@K@Z 00408630 f   LoginProtect.obj
 0001:00007680       ??0?$_Tree@V?$_Tmap_traits@KULOGIN_CACHE@CLoginProtect@@U?$less@K@std@@V?$allocator@U?$pair@$$CBKULOGIN_CACHE@CLoginProtect@@@std@@@4@$0A@@std@@@std@@QAE@ABU?$less@K@1@ABV?$allocator@U?$pair@$$CBKULOGIN_CACHE@CLoginProtect@@@std@@@1@@Z 00408680 f i LoginProtect.obj
 0001:000076b0       ??0?$_Tree@V?$_Tmap_traits@KKU?$less@K@std@@V?$allocator@U?$pair@$$CBKK@std@@@2@$0A@@std@@@std@@QAE@ABU?$less@K@1@ABV?$allocator@U?$pair@$$CBKK@std@@@1@@Z 004086b0 f i LoginProtect.obj
 0001:000076e0       ?_Insert@?$_Tree@V?$_Tmap_traits@KULOGIN_CACHE@CLoginProtect@@U?$less@K@std@@V?$allocator@U?$pair@$$CBKULOGIN_CACHE@CLoginProtect@@@std@@@4@$0A@@std@@@std@@IAE?AViterator@12@_NPAU_Node@?$_Tree_nod@V?$_Tmap_traits@KULOGIN_CACHE@CLoginProtect@@U?$less@K@std@@V?$allocator@U?$pair@$$CBKULOGIN_CACHE@CLoginProtect@@@std@@@4@$0A@@std@@@2@ABU?$pair@$$CBKULOGIN_CACHE@CLoginProtect@@@2@@Z 004086e0 f i LoginProtect.obj
 0001:00007890       ?_Insert@?$_Tree@V?$_Tmap_traits@KKU?$less@K@std@@V?$allocator@U?$pair@$$CBKK@std@@@2@$0A@@std@@@std@@IAE?AViterator@12@_NPAU_Node@?$_Tree_nod@V?$_Tmap_traits@KKU?$less@K@std@@V?$allocator@U?$pair@$$CBKK@std@@@2@$0A@@std@@@2@ABU?$pair@$$CBKK@2@@Z 00408890 f i LoginProtect.obj
 0001:00007a40       ?erase@?$_Tree@V?$_Tmap_traits@KULOGIN_CACHE@CLoginProtect@@U?$less@K@std@@V?$allocator@U?$pair@$$CBKULOGIN_CACHE@CLoginProtect@@@std@@@4@$0A@@std@@@std@@QAE?AViterator@12@V312@@Z 00408a40 f i LoginProtect.obj
 0001:00007d00       ?erase@?$_Tree@V?$_Tmap_traits@KKU?$less@K@std@@V?$allocator@U?$pair@$$CBKK@std@@@2@$0A@@std@@@std@@QAE?AViterator@12@V312@@Z 00408d00 f i LoginProtect.obj
 0001:00007fc0       ?insert@?$_Tree@V?$_Tmap_traits@KULOGIN_CACHE@CLoginProtect@@U?$less@K@std@@V?$allocator@U?$pair@$$CBKULOGIN_CACHE@CLoginProtect@@@std@@@4@$0A@@std@@@std@@QAE?AU?$pair@Viterator@?$_Tree@V?$_Tmap_traits@KULOGIN_CACHE@CLoginProtect@@U?$less@K@std@@V?$allocator@U?$pair@$$CBKULOGIN_CACHE@CLoginProtect@@@std@@@4@$0A@@std@@@std@@_N@2@ABU?$pair@$$CBKULOGIN_CACHE@CLoginProtect@@@2@@Z 00408fc0 f i LoginProtect.obj
 0001:00008080       ?insert@?$_Tree@V?$_Tmap_traits@KKU?$less@K@std@@V?$allocator@U?$pair@$$CBKK@std@@@2@$0A@@std@@@std@@QAE?AU?$pair@Viterator@?$_Tree@V?$_Tmap_traits@KKU?$less@K@std@@V?$allocator@U?$pair@$$CBKK@std@@@2@$0A@@std@@@std@@_N@2@ABU?$pair@$$CBKK@2@@Z 00409080 f i LoginProtect.obj
 0001:00008140       ?erase@?$_Tree@V?$_Tmap_traits@KULOGIN_CACHE@CLoginProtect@@U?$less@K@std@@V?$allocator@U?$pair@$$CBKULOGIN_CACHE@CLoginProtect@@@std@@@4@$0A@@std@@@std@@QAE?AViterator@12@V312@0@Z 00409140 f i LoginProtect.obj
 0001:00008200       ?_Tidy@?$_Tree@V?$_Tmap_traits@KULOGIN_CACHE@CLoginProtect@@U?$less@K@std@@V?$allocator@U?$pair@$$CBKULOGIN_CACHE@CLoginProtect@@@std@@@4@$0A@@std@@@std@@IAEXXZ 00409200 f i LoginProtect.obj
 0001:00008230       ?erase@?$_Tree@V?$_Tmap_traits@KKU?$less@K@std@@V?$allocator@U?$pair@$$CBKK@std@@@2@$0A@@std@@@std@@QAE?AViterator@12@V312@0@Z 00409230 f i LoginProtect.obj
 0001:000082f0       ?_Tidy@?$_Tree@V?$_Tmap_traits@KKU?$less@K@std@@V?$allocator@U?$pair@$$CBKK@std@@@2@$0A@@std@@@std@@IAEXXZ 004092f0 f i LoginProtect.obj
 0001:00008320       ??1?$_Tree@V?$_Tmap_traits@KULOGIN_CACHE@CLoginProtect@@U?$less@K@std@@V?$allocator@U?$pair@$$CBKULOGIN_CACHE@CLoginProtect@@@std@@@4@$0A@@std@@@std@@QAE@XZ 00409320 f i LoginProtect.obj
 0001:00008350       ?erase@?$_Tree@V?$_Tmap_traits@KULOGIN_CACHE@CLoginProtect@@U?$less@K@std@@V?$allocator@U?$pair@$$CBKULOGIN_CACHE@CLoginProtect@@@std@@@4@$0A@@std@@@std@@QAEIABK@Z 00409350 f i LoginProtect.obj
 0001:000083b0       ??1?$_Tree@V?$_Tmap_traits@KKU?$less@K@std@@V?$allocator@U?$pair@$$CBKK@std@@@2@$0A@@std@@@std@@QAE@XZ 004093b0 f i LoginProtect.obj
 0001:000083e0       ?erase@?$_Tree@V?$_Tmap_traits@KKU?$less@K@std@@V?$allocator@U?$pair@$$CBKK@std@@@2@$0A@@std@@@std@@QAEIABK@Z 004093e0 f i LoginProtect.obj
 0001:00008440       ??1?$map@KULOGIN_CACHE@CLoginProtect@@U?$less@K@std@@V?$allocator@U?$pair@$$CBKULOGIN_CACHE@CLoginProtect@@@std@@@4@@std@@QAE@XZ 00409440 f i LoginProtect.obj
 0001:00008470       ??1?$map@KKU?$less@K@std@@V?$allocator@U?$pair@$$CBKK@std@@@2@@std@@QAE@XZ 00409470 f i LoginProtect.obj
 0001:000084a0       ??1CLoginProtect@@QAE@XZ   004094a0 f   LoginProtect.obj
 0001:00008540       ?SetNumPadId@CLoginProtect@@QAEKKH@Z 00409540 f   LoginProtect.obj
 0001:00008600       ?SetError@CLoginProtect@@QAEXKH@Z 00409600 f   LoginProtect.obj
 0001:000086a0       ??0?$map@KULOGIN_CACHE@CLoginProtect@@U?$less@K@std@@V?$allocator@U?$pair@$$CBKULOGIN_CACHE@CLoginProtect@@@std@@@4@@std@@QAE@XZ 004096a0 f i LoginProtect.obj
 0001:000086d0       ??0?$map@KKU?$less@K@std@@V?$allocator@U?$pair@$$CBKK@std@@@2@@std@@QAE@XZ 004096d0 f i LoginProtect.obj
 0001:00008700       ??0CLoginProtect@@QAE@XZ   00409700 f   LoginProtect.obj
 0001:00008790       ?GetInstance@CLoginProtect@@SAPAV1@XZ 00409790 f   LoginProtect.obj
 0001:000087f0       ?InterlockedExchangePointer@@YGPAXPAPAXPAX@Z 004097f0 f i LoginServer.obj
 0001:00008800       ?_AtlGetThreadACPFake@ATL@@YGIXZ 00409800 f i LoginServer.obj
 0001:00008880       ?_AtlGetThreadACPReal@ATL@@YGIXZ 00409880 f i LoginServer.obj
 0001:00008890       ?_AtlGetThreadACPThunk@ATL@@YGIXZ 00409890 f i LoginServer.obj
 0001:00008900       ?_AtlGetConversionACP@ATL@@YGIXZ 00409900 f i LoginServer.obj
 0001:00008910       ?StartServer@CDPMng@@QAEHGHK@Z 00409910 f i LoginServer.obj
 0001:00008960       ?ConnectToServer@CDPMng@@QAEHPBDGHKK@Z 00409960 f i LoginServer.obj
 0001:000089b0       ?Initialize@CMyTrace@@QAEXPAUHWND__@@PBDKK@Z 004099b0 f i LoginServer.obj
 0001:00008a00       ?AtlThrow@ATL@@YGXJ@Z      00409a00 f i LoginServer.obj
 0001:00008a20       _NpLog                     00409a20 f   LoginServer.obj
 0001:00008a40       _GGAuthUpdateCallback      00409a40 f   LoginServer.obj
 0001:00008a70       ?InitLanguageFromResource@@YAXPAUHINSTANCE__@@@Z 00409a70 f   LoginServer.obj
 0001:00008b20       ?_AtlGetStringResourceImage@ATL@@YAPBUATLSTRINGRESOURCEIMAGE@1@PAUHINSTANCE__@@PAUHRSRC__@@I@Z 00409b20 f i LoginServer.obj
 0001:00008b80       ?AtlGetStringResourceImage@ATL@@YAPBUATLSTRINGRESOURCEIMAGE@1@PAUHINSTANCE__@@I@Z 00409b80 f i LoginServer.obj
 0001:00008bc0       ?WndProc@@YGJPAUHWND__@@IIJ@Z 00409bc0 f   LoginServer.obj
 0001:00008d90       ?data@CStringData@ATL@@QAEPAXXZ 00409d90 f i LoginServer.obj
 0001:00008da0       ?IsLocked@CStringData@ATL@@QBE_NXZ 00409da0 f i LoginServer.obj
 0001:00008db0       ?IsShared@CStringData@ATL@@QBE_NXZ 00409db0 f i LoginServer.obj
 0001:00008dc0       ?Release@CStringData@ATL@@QAEXXZ 00409dc0 f i LoginServer.obj
 0001:00008de0       ??0CTime@ATL@@QAE@_J@Z     00409de0 f i LoginServer.obj
 0001:00008e00       ?StringCompare@?$ChTraitsCRT@D@ATL@@SAHPBD0@Z 00409e00 f i LoginServer.obj
 0001:00008e10       ??Econst_iterator@?$list@PAXV?$allocator@PAX@std@@@std@@QAEAAV012@XZ 00409e10 f i LoginServer.obj
 0001:00008e20       ??8const_iterator@?$list@PAXV?$allocator@PAX@std@@@std@@QBE_NABV012@@Z 00409e20 f i LoginServer.obj
 0001:00008e30       ?_Myval@?$list@PAXV?$allocator@PAX@std@@@std@@KAAAPAXPAU_Node@?$_List_nod@PAXV?$allocator@PAX@std@@@2@@Z 00409e30 f i LoginServer.obj
 0001:00008e40       ??$_Destroy@U_Node@?$_List_nod@PAXV?$allocator@PAX@std@@@std@@@std@@YAXPAU_Node@?$_List_nod@PAXV?$allocator@PAX@std@@@0@@Z 00409e40 f i LoginServer.obj
 0001:00008e50       ??$_Destroy@PAU_Node@?$_List_nod@PAXV?$allocator@PAX@std@@@std@@@std@@YAXPAPAU_Node@?$_List_nod@PAXV?$allocator@PAX@std@@@0@@Z 00409e50 f i LoginServer.obj
 0001:00008e60       ??B?$CSimpleStringT@D$0A@@ATL@@QBEPBDXZ 00409e60 f i LoginServer.obj
 0001:00008e70       ?GetString@?$CSimpleStringT@D$0A@@ATL@@QBEPBDXZ 00409e70 f i LoginServer.obj
 0001:00008e80       ?StringLength@?$CSimpleStringT@D$0A@@ATL@@SAHPBD@Z 00409e80 f i LoginServer.obj
 0001:00008ea0       ?GetData@?$CSimpleStringT@D$0A@@ATL@@ABEPAUCStringData@2@XZ 00409ea0 f i LoginServer.obj
 0001:00008eb0       ?SetLength@?$CSimpleStringT@D$0A@@ATL@@AAEXH@Z 00409eb0 f i LoginServer.obj
 0001:00008ee0       ?FindStringResourceInstance@?$StrTraitMFC@DV?$ChTraitsCRT@D@ATL@@@@SAPAUHINSTANCE__@@I@Z 00409ee0 f i LoginServer.obj
 0001:00008ef0       ?GetDefaultManager@?$StrTraitMFC@DV?$ChTraitsCRT@D@ATL@@@@SAPAUIAtlStringMgr@ATL@@XZ 00409ef0 f i LoginServer.obj
 0001:00008f00       ?Attach@?$CSimpleStringT@D$0A@@ATL@@AAEXPAUCStringData@2@@Z 00409f00 f i LoginServer.obj
 0001:00008f10       ?GetBaseTypeLength@?$ChTraitsCRT@D@ATL@@SAHPBGH@Z 00409f10 f i LoginServer.obj
 0001:00008f40       ?ConvertToBaseType@?$ChTraitsCRT@D@ATL@@SAXPADHPBGH@Z 00409f40 f i LoginServer.obj
 0001:00008f70       ?CopyChars@?$CSimpleStringT@D$0A@@ATL@@SAXPADPBDH@Z 00409f70 f i LoginServer.obj
 0001:00008f90       ?CopyCharsOverlapped@?$CSimpleStringT@D$0A@@ATL@@SAXPADPBDH@Z 00409f90 f i LoginServer.obj
 0001:00008fa0       ?ThrowMemoryException@?$CSimpleStringT@D$0A@@ATL@@KAXXZ 00409fa0 f i LoginServer.obj
 0001:00008fb0       ?Fork@?$CSimpleStringT@D$0A@@ATL@@AAEXH@Z 00409fb0 f i LoginServer.obj
 0001:00009030       ?Reallocate@?$CSimpleStringT@D$0A@@ATL@@AAEXH@Z 0040a030 f i LoginServer.obj
 0001:00009060       ?MyRegisterClass@@YAGPAUHINSTANCE__@@@Z 0040a060 f   LoginServer.obj
 0001:000090f0       ?Compare@?$CStringT@DV?$StrTraitMFC@DV?$ChTraitsCRT@D@ATL@@@@@ATL@@QBEHPBD@Z 0040a0f0 f i LoginServer.obj
 0001:00009110       ?GetTickCount@CTime@ATL@@SG?AV12@XZ 0040a110 f i LoginServer.obj
 0001:00009130       ??Eiterator@?$list@PAXV?$allocator@PAX@std@@@std@@QAEAAV012@XZ 0040a130 f i LoginServer.obj
 0001:00009140       ??9const_iterator@?$list@PAXV?$allocator@PAX@std@@@std@@QBE_NABV012@@Z 0040a140 f i LoginServer.obj
 0001:00009160       ?destroy@?$allocator@U_Node@?$_List_nod@PAXV?$allocator@PAX@std@@@std@@@std@@QAEXPAU_Node@?$_List_nod@PAXV?$allocator@PAX@std@@@2@@Z 0040a160 f i LoginServer.obj
 0001:00009170       ?destroy@?$allocator@PAU_Node@?$_List_nod@PAXV?$allocator@PAX@std@@@std@@@std@@QAEXPAPAU_Node@?$_List_nod@PAXV?$allocator@PAX@std@@@2@@Z 0040a170 f i LoginServer.obj
 0001:00009180       ??Dconst_iterator@?$list@PAXV?$allocator@PAX@std@@@std@@QBEABQAXXZ 0040a180 f i LoginServer.obj
 0001:00009190       ?GetLength@?$CSimpleStringT@D$0A@@ATL@@QBEHXZ 0040a190 f i LoginServer.obj
 0001:000091a0       ??0?$CSimpleStringT@D$0A@@ATL@@QAE@PAUIAtlStringMgr@1@@Z 0040a1a0 f i LoginServer.obj
 0001:000091c0       ??1?$CSimpleStringT@D$0A@@ATL@@QAE@XZ 0040a1c0 f i LoginServer.obj
 0001:000091e0       ?ReleaseBufferSetLength@?$CSimpleStringT@D$0A@@ATL@@QAEXH@Z 0040a1e0 f i LoginServer.obj
 0001:00009210       ?Empty@?$CSimpleStringT@D$0A@@ATL@@QAEXXZ 0040a210 f i LoginServer.obj
 0001:00009280       ?PrepareWrite2@?$CSimpleStringT@D$0A@@ATL@@AAEXH@Z 0040a280 f i LoginServer.obj
 0001:000092d0       ??8ATL@@YA_NABV?$CStringT@DV?$StrTraitMFC@DV?$ChTraitsCRT@D@ATL@@@@@0@PBD@Z 0040a2d0 f i LoginServer.obj
 0001:000092f0       ?begin@?$list@PAXV?$allocator@PAX@std@@@std@@QAE?AViterator@12@XZ 0040a2f0 f i LoginServer.obj
 0001:00009300       ?clear@?$list@PAXV?$allocator@PAX@std@@@std@@QAEXXZ 0040a300 f i LoginServer.obj
 0001:00009340       ?_Tidy@?$list@PAXV?$allocator@PAX@std@@@std@@IAEXXZ 0040a340 f i LoginServer.obj
 0001:00009360       ??Diterator@?$list@PAXV?$allocator@PAX@std@@@std@@QBEAAPAXXZ 0040a360 f i LoginServer.obj
 0001:00009370       ??1?$CStringT@DV?$StrTraitMFC@DV?$ChTraitsCRT@D@ATL@@@@@ATL@@QAE@XZ 0040a370 f i LoginServer.obj
 0001:00009390       ?PrepareWrite@?$CSimpleStringT@D$0A@@ATL@@AAEPADH@Z 0040a390 f i LoginServer.obj
 0001:000093c0       ?Script@@YAHPBD@Z          0040a3c0 f   LoginServer.obj
 0001:00009620       ??1?$list@PAXV?$allocator@PAX@std@@@std@@QAE@XZ 0040a620 f i LoginServer.obj
 0001:00009640       ?Destroy@?$MemPooler@VCUser@@@@IAEXXZ 0040a640 f i LoginServer.obj
 0001:000096b0       ?GetBuffer@?$CSimpleStringT@D$0A@@ATL@@QAEPADH@Z 0040a6b0 f i LoginServer.obj
 0001:000096e0       ?LoadStringA@?$CStringT@DV?$StrTraitMFC@DV?$ChTraitsCRT@D@ATL@@@@@ATL@@QAEHPAUHINSTANCE__@@I@Z 0040a6e0 f i LoginServer.obj
 0001:000097b0       ?SetString@?$CSimpleStringT@D$0A@@ATL@@QAEXPBDH@Z 0040a7b0 f i LoginServer.obj
 0001:00009850       ??1?$MemPooler@VCUser@@@@QAE@XZ 0040a850 f i LoginServer.obj
 0001:00009880       ?LoadStringA@?$CStringT@DV?$StrTraitMFC@DV?$ChTraitsCRT@D@ATL@@@@@ATL@@QAEHI@Z 0040a880 f i LoginServer.obj
 0001:000098b0       ?CheckImplicitLoad@?$CStringT@DV?$StrTraitMFC@DV?$ChTraitsCRT@D@ATL@@@@@ATL@@AAE_NPBX@Z 0040a8b0 f i LoginServer.obj
 0001:000098f0       ?SetString@?$CSimpleStringT@D$0A@@ATL@@QAEXPBD@Z 0040a8f0 f i LoginServer.obj
 0001:00009930       ??_G?$MemPooler@VCUser@@@@QAEPAXI@Z 0040a930 f i LoginServer.obj
 0001:00009950       ??4?$CSimpleStringT@D$0A@@ATL@@QAEAAV01@PBD@Z 0040a950 f i LoginServer.obj
 0001:00009990       ?ExitInstance@@YAXXZ       0040a990 f   LoginServer.obj
 0001:00009a00       ??4?$CStringT@DV?$StrTraitMFC@DV?$ChTraitsCRT@D@ATL@@@@@ATL@@QAEAAV01@PBD@Z 0040aa00 f i LoginServer.obj
 0001:00009a40       ??0?$CStringT@DV?$StrTraitMFC@DV?$ChTraitsCRT@D@ATL@@@@@ATL@@QAE@PBD@Z 0040aa40 f i LoginServer.obj
 0001:00009af0       ?Format@CTime@ATL@@QBE?AV?$CStringT@DV?$StrTraitMFC@DV?$ChTraitsCRT@D@ATL@@@@@2@PBD@Z 0040aaf0 f i LoginServer.obj
 0001:00009b80       ?InitInstance@@YAHPAUHINSTANCE__@@H@Z 0040ab80 f   LoginServer.obj
 0001:00009df0       _WinMain@16                0040adf0 f   LoginServer.obj
 0001:00009eb0       ?Allocate@CCRTAllocator@ATL@@SAPAXI@Z 0040aeb0 f i StdAfx.obj
 0001:00009ec0       ?Free@CCRTAllocator@ATL@@SAXPAX@Z 0040aec0 f i StdAfx.obj
 0001:00009ed0       ?_AtlVerifyStackAvailable@_ATL_SAFE_ALLOCA_IMPL@ATL@@YA_NK@Z 0040aed0 f i StdAfx.obj
 0001:00009f60       ?AtlA2WHelper@@YGPAGPAGPBDHI@Z 0040af60 f i StdAfx.obj
 0001:00009fa0       ?AtlW2AHelper@@YGPADPADPBGHI@Z 0040afa0 f i StdAfx.obj
 0001:00009fe0       ?AtlThrowLastWin32@ATL@@YGXXZ 0040afe0 f i StdAfx.obj
 0001:0000a000       ?_AtlInstallStringThunk@ATL@@YAXPAPAXPAX1@Z 0040b000 f i StdAfx.obj
 0001:0000a040       ?lstrcmpiWFake@ATL@@YGHPBG0@Z 0040b040 f i StdAfx.obj
 0001:0000a110       ?lstrcmpiWThunk@ATL@@YGHPBG0@Z 0040b110 f i StdAfx.obj
 0001:0000a160       ?CharLowerWFake@ATL@@YGPAGPAG@Z 0040b160 f i StdAfx.obj
 0001:0000a220       ?CharLowerWThunk@ATL@@YGPAGPAG@Z 0040b220 f i StdAfx.obj
 0001:0000a270       ?CharUpperWFake@ATL@@YGPAGPAG@Z 0040b270 f i StdAfx.obj
 0001:0000a330       ?CharUpperWThunk@ATL@@YGPAGPAG@Z 0040b330 f i StdAfx.obj
 0001:0000a380       ??1CTickCount@@QAE@XZ      0040b380 f i StdAfx.obj
 0001:0000a390       ??0CTickCount@@QAE@XZ      0040b390 f i StdAfx.obj
 0001:0000a3a0       ??0?$CAtlSafeAllocBufferManager@VCCRTAllocator@ATL@@@_ATL_SAFE_ALLOCA_IMPL@ATL@@QAE@XZ 0040b3a0 f i StdAfx.obj
 0001:0000a3b0       ??1?$CAtlSafeAllocBufferManager@VCCRTAllocator@ATL@@@_ATL_SAFE_ALLOCA_IMPL@ATL@@QAE@XZ 0040b3b0 f i StdAfx.obj
 0001:0000a3d0       ??0?$CTempBuffer@D$0IA@VCCRTAllocator@ATL@@@ATL@@QAE@XZ 0040b3d0 f i StdAfx.obj
 0001:0000a3e0       ??B?$CTempBuffer@D$0IA@VCCRTAllocator@ATL@@@ATL@@QBEPADXZ 0040b3e0 f i StdAfx.obj
 0001:0000a3f0       ??1?$CW2AEX@$0IA@@ATL@@QAE@XZ 0040b3f0 f i StdAfx.obj
 0001:0000a410       ??B?$CW2AEX@$0IA@@ATL@@QBEPADXZ 0040b410 f i StdAfx.obj
 0001:0000a420       ?FreeHeap@?$CTempBuffer@D$0IA@VCCRTAllocator@ATL@@@ATL@@AAEXXZ 0040b420 f i StdAfx.obj
 0001:0000a430       ?Init@?$CW2AEX@$0IA@@ATL@@AAEXPBGI@Z 0040b430 f i StdAfx.obj
 0001:0000a4a0       ?StringFindString@?$ChTraitsCRT@D@ATL@@SAPBDPBD0@Z 0040b4a0 f i StdAfx.obj
 0001:0000a4b0       ?StringUppercase@?$ChTraitsCRT@D@ATL@@SAPADPAD@Z 0040b4b0 f i StdAfx.obj
 0001:0000a4c0       ?GetData@CAtlSafeAllocBufferNode@?$CAtlSafeAllocBufferManager@VCCRTAllocator@ATL@@@_ATL_SAFE_ALLOCA_IMPL@ATL@@QAEPAXXZ 0040b4c0 f i StdAfx.obj
 0001:0000a4d0       ?AllocateHeap@?$CTempBuffer@D$0IA@VCCRTAllocator@ATL@@@ATL@@AAEXI@Z 0040b4d0 f i StdAfx.obj
 0001:0000a500       ?Allocate@?$CAtlSafeAllocBufferManager@VCCRTAllocator@ATL@@@_ATL_SAFE_ALLOCA_IMPL@ATL@@QAEPAXK@Z 0040b500 f i StdAfx.obj
 0001:0000a530       ??1?$CTempBuffer@D$0IA@VCCRTAllocator@ATL@@@ATL@@QAE@XZ 0040b530 f i StdAfx.obj
 0001:0000a540       ??0?$CW2AEX@$0IA@@ATL@@QAE@PBG@Z 0040b540 f i StdAfx.obj
 0001:0000a570       ?AllocateBytes@?$CTempBuffer@D$0IA@VCCRTAllocator@ATL@@@ATL@@QAEPADI@Z 0040b570 f i StdAfx.obj
 0001:0000a5a0       ?CompareStringWFake@ATL@@YGHKKPBGH0H@Z 0040b5a0 f i StdAfx.obj
 0001:0000a700       ?CompareStringWThunk@ATL@@YGHKKPBGH0H@Z 0040b700 f i StdAfx.obj
 0001:0000a750       ?Allocate@?$CTempBuffer@D$0IA@VCCRTAllocator@ATL@@@ATL@@QAEPADI@Z 0040b750 f i StdAfx.obj
 0001:0000a780       ??0?$CStringT@DV?$StrTraitMFC@DV?$ChTraitsCRT@D@ATL@@@@@ATL@@QAE@XZ 0040b780 f i StdAfx.obj
 0001:0000a7a0       ?Find@?$CStringT@DV?$StrTraitMFC@DV?$ChTraitsCRT@D@ATL@@@@@ATL@@QBEHPBDH@Z 0040b7a0 f i StdAfx.obj
 0001:0000a7e0       ?GetEnvironmentVariableWFake@ATL@@YGKPBGPAGK@Z 0040b7e0 f i StdAfx.obj
 0001:0000a970       ?GetEnvironmentVariableWThunk@ATL@@YGKPBGPAGK@Z 0040b970 f i StdAfx.obj
 0001:0000a9c0       ?GetStringTypeExWFake@ATL@@YGHKKPBGHPAG@Z 0040b9c0 f i StdAfx.obj
 0001:0000aad0       ?GetStringTypeExWThunk@ATL@@YGHKKPBGHPAG@Z 0040bad0 f i StdAfx.obj
 0001:0000ab20       ?MakeUpper@?$CStringT@DV?$StrTraitMFC@DV?$ChTraitsCRT@D@ATL@@@@@ATL@@QAEAAV12@XZ 0040bb20 f i StdAfx.obj
 0001:0000ab80       ?KillProcess@@YAHV?$CStringT@DV?$StrTraitMFC@DV?$ChTraitsCRT@D@ATL@@@@@ATL@@@Z 0040bb80 f   StdAfx.obj
 0001:0000ae20       ??0CUser@@QAE@K@Z          0040be20 f   User.obj
 0001:0000aea0       ??1CUser@@UAE@XZ           0040bea0 f   User.obj
 0001:0000aeb0       ?SetExtra@CUser@@QAEXPBDK@Z 0040beb0 f   User.obj
 0001:0000aee0       ??0?$pair@$$CBKPAVCUser@@@std@@QAE@ABKABQAVCUser@@@Z 0040bee0 f i User.obj
 0001:0000af00       ?_Color@?$_Tree@V?$_Tmap_traits@KPAVCUser@@U?$less@K@std@@V?$allocator@U?$pair@$$CBKPAVCUser@@@std@@@3@$0A@@std@@@std@@KAAADPAU_Node@?$_Tree_nod@V?$_Tmap_traits@KPAVCUser@@U?$less@K@std@@V?$allocator@U?$pair@$$CBKPAVCUser@@@std@@@3@$0A@@std@@@2@@Z 0040bf00 f i User.obj
 0001:0000af10       ?_Isnil@?$_Tree@V?$_Tmap_traits@KPAVCUser@@U?$less@K@std@@V?$allocator@U?$pair@$$CBKPAVCUser@@@std@@@3@$0A@@std@@@std@@KAAADPAU_Node@?$_Tree_nod@V?$_Tmap_traits@KPAVCUser@@U?$less@K@std@@V?$allocator@U?$pair@$$CBKPAVCUser@@@std@@@3@$0A@@std@@@2@@Z 0040bf10 f i User.obj
 0001:0000af20       ?_Left@?$_Tree@V?$_Tmap_traits@KPAVCUser@@U?$less@K@std@@V?$allocator@U?$pair@$$CBKPAVCUser@@@std@@@3@$0A@@std@@@std@@KAAAPAU_Node@?$_Tree_nod@V?$_Tmap_traits@KPAVCUser@@U?$less@K@std@@V?$allocator@U?$pair@$$CBKPAVCUser@@@std@@@3@$0A@@std@@@2@PAU342@@Z 0040bf20 f i User.obj
 0001:0000af30       ?_Parent@?$_Tree@V?$_Tmap_traits@KPAVCUser@@U?$less@K@std@@V?$allocator@U?$pair@$$CBKPAVCUser@@@std@@@3@$0A@@std@@@std@@KAAAPAU_Node@?$_Tree_nod@V?$_Tmap_traits@KPAVCUser@@U?$less@K@std@@V?$allocator@U?$pair@$$CBKPAVCUser@@@std@@@3@$0A@@std@@@2@PAU342@@Z 0040bf30 f i User.obj
 0001:0000af40       ?_Right@?$_Tree@V?$_Tmap_traits@KPAVCUser@@U?$less@K@std@@V?$allocator@U?$pair@$$CBKPAVCUser@@@std@@@3@$0A@@std@@@std@@KAAAPAU_Node@?$_Tree_nod@V?$_Tmap_traits@KPAVCUser@@U?$less@K@std@@V?$allocator@U?$pair@$$CBKPAVCUser@@@std@@@3@$0A@@std@@@2@PAU342@@Z 0040bf40 f i User.obj
 0001:0000af50       ?_Lmost@?$_Tree@V?$_Tmap_traits@KPAVCUser@@U?$less@K@std@@V?$allocator@U?$pair@$$CBKPAVCUser@@@std@@@3@$0A@@std@@@std@@IAEAAPAU_Node@?$_Tree_nod@V?$_Tmap_traits@KPAVCUser@@U?$less@K@std@@V?$allocator@U?$pair@$$CBKPAVCUser@@@std@@@3@$0A@@std@@@2@XZ 0040bf50 f i User.obj
 0001:0000af60       ?_Max@?$_Tree@V?$_Tmap_traits@KPAVCUser@@U?$less@K@std@@V?$allocator@U?$pair@$$CBKPAVCUser@@@std@@@3@$0A@@std@@@std@@KAPAU_Node@?$_Tree_nod@V?$_Tmap_traits@KPAVCUser@@U?$less@K@std@@V?$allocator@U?$pair@$$CBKPAVCUser@@@std@@@3@$0A@@std@@@2@PAU342@@Z 0040bf60 f i User.obj
 0001:0000af80       ?_Min@?$_Tree@V?$_Tmap_traits@KPAVCUser@@U?$less@K@std@@V?$allocator@U?$pair@$$CBKPAVCUser@@@std@@@3@$0A@@std@@@std@@KAPAU_Node@?$_Tree_nod@V?$_Tmap_traits@KPAVCUser@@U?$less@K@std@@V?$allocator@U?$pair@$$CBKPAVCUser@@@std@@@3@$0A@@std@@@2@PAU342@@Z 0040bf80 f i User.obj
 0001:0000afa0       ?_Rmost@?$_Tree@V?$_Tmap_traits@KPAVCUser@@U?$less@K@std@@V?$allocator@U?$pair@$$CBKPAVCUser@@@std@@@3@$0A@@std@@@std@@IAEAAPAU_Node@?$_Tree_nod@V?$_Tmap_traits@KPAVCUser@@U?$less@K@std@@V?$allocator@U?$pair@$$CBKPAVCUser@@@std@@@3@$0A@@std@@@2@XZ 0040bfa0 f i User.obj
 0001:0000afb0       ?_Root@?$_Tree@V?$_Tmap_traits@KPAVCUser@@U?$less@K@std@@V?$allocator@U?$pair@$$CBKPAVCUser@@@std@@@3@$0A@@std@@@std@@IAEAAPAU_Node@?$_Tree_nod@V?$_Tmap_traits@KPAVCUser@@U?$less@K@std@@V?$allocator@U?$pair@$$CBKPAVCUser@@@std@@@3@$0A@@std@@@2@XZ 0040bfb0 f i User.obj
 0001:0000afc0       ?_Rrotate@?$_Tree@V?$_Tmap_traits@KPAVCUser@@U?$less@K@std@@V?$allocator@U?$pair@$$CBKPAVCUser@@@std@@@3@$0A@@std@@@std@@IAEXPAU_Node@?$_Tree_nod@V?$_Tmap_traits@KPAVCUser@@U?$less@K@std@@V?$allocator@U?$pair@$$CBKPAVCUser@@@std@@@3@$0A@@std@@@2@@Z 0040bfc0 f i User.obj
 0001:0000b020       ?_Kfn@?$_Tmap_traits@KPAVCUser@@U?$less@K@std@@V?$allocator@U?$pair@$$CBKPAVCUser@@@std@@@3@$0A@@std@@SAABKABU?$pair@$$CBKPAVCUser@@@2@@Z 0040c020 f i User.obj
 0001:0000b030       ??0?$allocator@U?$pair@$$CBKPAVCUser@@@std@@@std@@QAE@XZ 0040c030 f i User.obj
 0001:0000b040       ?deallocate@?$allocator@U_Node@?$_Tree_nod@V?$_Tmap_traits@KPAVCUser@@U?$less@K@std@@V?$allocator@U?$pair@$$CBKPAVCUser@@@std@@@3@$0A@@std@@@std@@@std@@QAEXPAU_Node@?$_Tree_nod@V?$_Tmap_traits@KPAVCUser@@U?$less@K@std@@V?$allocator@U?$pair@$$CBKPAVCUser@@@std@@@3@$0A@@std@@@2@I@Z 0040c040 f i User.obj
 0001:0000b050       ?_Isnil@?$_Tree@V?$_Tmap_traits@V?$basic_string@DU?$char_traits@D@std@@V?$allocator@D@2@@std@@PAVCUser@@U?$less@V?$basic_string@DU?$char_traits@D@std@@V?$allocator@D@2@@std@@@2@V?$allocator@U?$pair@$$CBV?$basic_string@DU?$char_traits@D@std@@V?$allocator@D@2@@std@@PAVCUser@@@std@@@2@$0A@@std@@@std@@KAAADPAU_Node@?$_Tree_nod@V?$_Tmap_traits@V?$basic_string@DU?$char_traits@D@std@@V?$allocator@D@2@@std@@PAVCUser@@U?$less@V?$basic_string@DU?$char_traits@D@std@@V?$allocator@D@2@@std@@@2@V?$allocator@U?$pair@$$CBV?$basic_string@DU?$char_traits@D@std@@V?$allocator@D@2@@std@@PAVCUser@@@std@@@2@$0A@@std@@@2@@Z 0040c050 f i User.obj
 0001:0000b060       ?_Left@?$_Tree@V?$_Tmap_traits@V?$basic_string@DU?$char_traits@D@std@@V?$allocator@D@2@@std@@PAVCUser@@U?$less@V?$basic_string@DU?$char_traits@D@std@@V?$allocator@D@2@@std@@@2@V?$allocator@U?$pair@$$CBV?$basic_string@DU?$char_traits@D@std@@V?$allocator@D@2@@std@@PAVCUser@@@std@@@2@$0A@@std@@@std@@KAAAPAU_Node@?$_Tree_nod@V?$_Tmap_traits@V?$basic_string@DU?$char_traits@D@std@@V?$allocator@D@2@@std@@PAVCUser@@U?$less@V?$basic_string@DU?$char_traits@D@std@@V?$allocator@D@2@@std@@@2@V?$allocator@U?$pair@$$CBV?$basic_string@DU?$char_traits@D@std@@V?$allocator@D@2@@std@@PAVCUser@@@std@@@2@$0A@@std@@@2@PAU342@@Z 0040c060 f i User.obj
 0001:0000b070       ?_Right@?$_Tree@V?$_Tmap_traits@V?$basic_string@DU?$char_traits@D@std@@V?$allocator@D@2@@std@@PAVCUser@@U?$less@V?$basic_string@DU?$char_traits@D@std@@V?$allocator@D@2@@std@@@2@V?$allocator@U?$pair@$$CBV?$basic_string@DU?$char_traits@D@std@@V?$allocator@D@2@@std@@PAVCUser@@@std@@@2@$0A@@std@@@std@@KAAAPAU_Node@?$_Tree_nod@V?$_Tmap_traits@V?$basic_string@DU?$char_traits@D@std@@V?$allocator@D@2@@std@@PAVCUser@@U?$less@V?$basic_string@DU?$char_traits@D@std@@V?$allocator@D@2@@std@@@2@V?$allocator@U?$pair@$$CBV?$basic_string@DU?$char_traits@D@std@@V?$allocator@D@2@@std@@PAVCUser@@@std@@@2@$0A@@std@@@2@PAU342@@Z 0040c070 f i User.obj
 0001:0000b080       ?_Lmost@?$_Tree@V?$_Tmap_traits@V?$basic_string@DU?$char_traits@D@std@@V?$allocator@D@2@@std@@PAVCUser@@U?$less@V?$basic_string@DU?$char_traits@D@std@@V?$allocator@D@2@@std@@@2@V?$allocator@U?$pair@$$CBV?$basic_string@DU?$char_traits@D@std@@V?$allocator@D@2@@std@@PAVCUser@@@std@@@2@$0A@@std@@@std@@IAEAAPAU_Node@?$_Tree_nod@V?$_Tmap_traits@V?$basic_string@DU?$char_traits@D@std@@V?$allocator@D@2@@std@@PAVCUser@@U?$less@V?$basic_string@DU?$char_traits@D@std@@V?$allocator@D@2@@std@@@2@V?$allocator@U?$pair@$$CBV?$basic_string@DU?$char_traits@D@std@@V?$allocator@D@2@@std@@PAVCUser@@@std@@@2@$0A@@std@@@2@XZ 0040c080 f i User.obj
 0001:0000b090       ?_Rmost@?$_Tree@V?$_Tmap_traits@V?$basic_string@DU?$char_traits@D@std@@V?$allocator@D@2@@std@@PAVCUser@@U?$less@V?$basic_string@DU?$char_traits@D@std@@V?$allocator@D@2@@std@@@2@V?$allocator@U?$pair@$$CBV?$basic_string@DU?$char_traits@D@std@@V?$allocator@D@2@@std@@PAVCUser@@@std@@@2@$0A@@std@@@std@@IAEAAPAU_Node@?$_Tree_nod@V?$_Tmap_traits@V?$basic_string@DU?$char_traits@D@std@@V?$allocator@D@2@@std@@PAVCUser@@U?$less@V?$basic_string@DU?$char_traits@D@std@@V?$allocator@D@2@@std@@@2@V?$allocator@U?$pair@$$CBV?$basic_string@DU?$char_traits@D@std@@V?$allocator@D@2@@std@@PAVCUser@@@std@@@2@$0A@@std@@@2@XZ 0040c090 f i User.obj
 0001:0000b0a0       ?_Kfn@?$_Tmap_traits@V?$basic_string@DU?$char_traits@D@std@@V?$allocator@D@2@@std@@PAVCUser@@U?$less@V?$basic_string@DU?$char_traits@D@std@@V?$allocator@D@2@@std@@@2@V?$allocator@U?$pair@$$CBV?$basic_string@DU?$char_traits@D@std@@V?$allocator@D@2@@std@@PAVCUser@@@std@@@2@$0A@@std@@SAABV?$basic_string@DU?$char_traits@D@std@@V?$allocator@D@2@@2@ABU?$pair@$$CBV?$basic_string@DU?$char_traits@D@std@@V?$allocator@D@2@@std@@PAVCUser@@@2@@Z 0040c0a0 f i User.obj
 0001:0000b0b0       ??0?$allocator@U?$pair@$$CBV?$basic_string@DU?$char_traits@D@std@@V?$allocator@D@2@@std@@PAVCUser@@@std@@@std@@QAE@XZ 0040c0b0 f i User.obj
 0001:0000b0c0       ??8const_iterator@?$_Tree@V?$_Tmap_traits@KPAVCUser@@U?$less@K@std@@V?$allocator@U?$pair@$$CBKPAVCUser@@@std@@@3@$0A@@std@@@std@@QBE_NABV012@@Z 0040c0c0 f i User.obj
 0001:0000b0d0       ?_Mynode@const_iterator@?$_Tree@V?$_Tmap_traits@KPAVCUser@@U?$less@K@std@@V?$allocator@U?$pair@$$CBKPAVCUser@@@std@@@3@$0A@@std@@@std@@QBEPAU_Node@?$_Tree_nod@V?$_Tmap_traits@KPAVCUser@@U?$less@K@std@@V?$allocator@U?$pair@$$CBKPAVCUser@@@std@@@3@$0A@@std@@@3@XZ 0040c0d0 f i User.obj
 0001:0000b0e0       ??0?$pair@Viterator@?$_Tree@V?$_Tmap_traits@KPAVCUser@@U?$less@K@std@@V?$allocator@U?$pair@$$CBKPAVCUser@@@std@@@3@$0A@@std@@@std@@_N@std@@QAE@ABViterator@?$_Tree@V?$_Tmap_traits@KPAVCUser@@U?$less@K@std@@V?$allocator@U?$pair@$$CBKPAVCUser@@@std@@@3@$0A@@std@@@1@AB_N@Z 0040c0e0 f i User.obj
 0001:0000b100       ??0?$pair@Viterator@?$_Tree@V?$_Tmap_traits@V?$basic_string@DU?$char_traits@D@std@@V?$allocator@D@2@@std@@PAVCUser@@U?$less@V?$basic_string@DU?$char_traits@D@std@@V?$allocator@D@2@@std@@@2@V?$allocator@U?$pair@$$CBV?$basic_string@DU?$char_traits@D@std@@V?$allocator@D@2@@std@@PAVCUser@@@std@@@2@$0A@@std@@@std@@_N@std@@QAE@ABViterator@?$_Tree@V?$_Tmap_traits@V?$basic_string@DU?$char_traits@D@std@@V?$allocator@D@2@@std@@PAVCUser@@U?$less@V?$basic_string@DU?$char_traits@D@std@@V?$allocator@D@2@@std@@@2@V?$allocator@U?$pair@$$CBV?$basic_string@DU?$char_traits@D@std@@V?$allocator@D@2@@std@@PAVCUser@@@std@@@2@$0A@@std@@@1@AB_N@Z 0040c100 f i User.obj
 0001:0000b120       ??8const_iterator@?$_Tree@V?$_Tmap_traits@V?$basic_string@DU?$char_traits@D@std@@V?$allocator@D@2@@std@@PAVCUser@@U?$less@V?$basic_string@DU?$char_traits@D@std@@V?$allocator@D@2@@std@@@2@V?$allocator@U?$pair@$$CBV?$basic_string@DU?$char_traits@D@std@@V?$allocator@D@2@@std@@PAVCUser@@@std@@@2@$0A@@std@@@std@@QBE_NABV012@@Z 0040c120 f i User.obj
 0001:0000b130       ?_Mynode@const_iterator@?$_Tree@V?$_Tmap_traits@V?$basic_string@DU?$char_traits@D@std@@V?$allocator@D@2@@std@@PAVCUser@@U?$less@V?$basic_string@DU?$char_traits@D@std@@V?$allocator@D@2@@std@@@2@V?$allocator@U?$pair@$$CBV?$basic_string@DU?$char_traits@D@std@@V?$allocator@D@2@@std@@PAVCUser@@@std@@@2@$0A@@std@@@std@@QBEPAU_Node@?$_Tree_nod@V?$_Tmap_traits@V?$basic_string@DU?$char_traits@D@std@@V?$allocator@D@2@@std@@PAVCUser@@U?$less@V?$basic_string@DU?$char_traits@D@std@@V?$allocator@D@2@@std@@@2@V?$allocator@U?$pair@$$CBV?$basic_string@DU?$char_traits@D@std@@V?$allocator@D@2@@std@@PAVCUser@@@std@@@2@$0A@@std@@@3@XZ 0040c130 f i User.obj
 0001:0000b140       ??0?$allocator@PAX@std@@QAE@XZ 0040c140 f i User.obj
 0001:0000b150       ?_Myval@?$_Tree@V?$_Tmap_traits@KPAVCUser@@U?$less@K@std@@V?$allocator@U?$pair@$$CBKPAVCUser@@@std@@@3@$0A@@std@@@std@@KAAAU?$pair@$$CBKPAVCUser@@@2@PAU_Node@?$_Tree_nod@V?$_Tmap_traits@KPAVCUser@@U?$less@K@std@@V?$allocator@U?$pair@$$CBKPAVCUser@@@std@@@3@$0A@@std@@@2@@Z 0040c150 f i User.obj
 0001:0000b160       ??0?$allocator@U?$pair@$$CBKPAVCUser@@@std@@@std@@QAE@ABV01@@Z 0040c160 f i User.obj
 0001:0000b170       ?_Color@?$_Tree@V?$_Tmap_traits@V?$basic_string@DU?$char_traits@D@std@@V?$allocator@D@2@@std@@PAVCUser@@U?$less@V?$basic_string@DU?$char_traits@D@std@@V?$allocator@D@2@@std@@@2@V?$allocator@U?$pair@$$CBV?$basic_string@DU?$char_traits@D@std@@V?$allocator@D@2@@std@@PAVCUser@@@std@@@2@$0A@@std@@@std@@KAAADPAU_Node@?$_Tree_nod@V?$_Tmap_traits@V?$basic_string@DU?$char_traits@D@std@@V?$allocator@D@2@@std@@PAVCUser@@U?$less@V?$basic_string@DU?$char_traits@D@std@@V?$allocator@D@2@@std@@@2@V?$allocator@U?$pair@$$CBV?$basic_string@DU?$char_traits@D@std@@V?$allocator@D@2@@std@@PAVCUser@@@std@@@2@$0A@@std@@@2@@Z 0040c170 f i User.obj
 0001:0000b180       ?_Parent@?$_Tree@V?$_Tmap_traits@V?$basic_string@DU?$char_traits@D@std@@V?$allocator@D@2@@std@@PAVCUser@@U?$less@V?$basic_string@DU?$char_traits@D@std@@V?$allocator@D@2@@std@@@2@V?$allocator@U?$pair@$$CBV?$basic_string@DU?$char_traits@D@std@@V?$allocator@D@2@@std@@PAVCUser@@@std@@@2@$0A@@std@@@std@@KAAAPAU_Node@?$_Tree_nod@V?$_Tmap_traits@V?$basic_string@DU?$char_traits@D@std@@V?$allocator@D@2@@std@@PAVCUser@@U?$less@V?$basic_string@DU?$char_traits@D@std@@V?$allocator@D@2@@std@@@2@V?$allocator@U?$pair@$$CBV?$basic_string@DU?$char_traits@D@std@@V?$allocator@D@2@@std@@PAVCUser@@@std@@@2@$0A@@std@@@2@PAU342@@Z 0040c180 f i User.obj
 0001:0000b190       ?_Myval@?$_Tree@V?$_Tmap_traits@V?$basic_string@DU?$char_traits@D@std@@V?$allocator@D@2@@std@@PAVCUser@@U?$less@V?$basic_string@DU?$char_traits@D@std@@V?$allocator@D@2@@std@@@2@V?$allocator@U?$pair@$$CBV?$basic_string@DU?$char_traits@D@std@@V?$allocator@D@2@@std@@PAVCUser@@@std@@@2@$0A@@std@@@std@@KAAAU?$pair@$$CBV?$basic_string@DU?$char_traits@D@std@@V?$allocator@D@2@@std@@PAVCUser@@@2@PAU_Node@?$_Tree_nod@V?$_Tmap_traits@V?$basic_string@DU?$char_traits@D@std@@V?$allocator@D@2@@std@@PAVCUser@@U?$less@V?$basic_string@DU?$char_traits@D@std@@V?$allocator@D@2@@std@@@2@V?$allocator@U?$pair@$$CBV?$basic_string@DU?$char_traits@D@std@@V?$allocator@D@2@@std@@PAVCUser@@@std@@@2@$0A@@std@@@2@@Z 0040c190 f i User.obj
 0001:0000b1a0       ??0?$allocator@U?$pair@$$CBV?$basic_string@DU?$char_traits@D@std@@V?$allocator@D@2@@std@@PAVCUser@@@std@@@std@@QAE@ABV01@@Z 0040c1a0 f i User.obj
 0001:0000b1b0       ?deallocate@?$allocator@U_Node@?$_Tree_nod@V?$_Tmap_traits@V?$basic_string@DU?$char_traits@D@std@@V?$allocator@D@2@@std@@PAVCUser@@U?$less@V?$basic_string@DU?$char_traits@D@std@@V?$allocator@D@2@@std@@@2@V?$allocator@U?$pair@$$CBV?$basic_string@DU?$char_traits@D@std@@V?$allocator@D@2@@std@@PAVCUser@@@std@@@2@$0A@@std@@@std@@@std@@QAEXPAU_Node@?$_Tree_nod@V?$_Tmap_traits@V?$basic_string@DU?$char_traits@D@std@@V?$allocator@D@2@@std@@PAVCUser@@U?$less@V?$basic_string@DU?$char_traits@D@std@@V?$allocator@D@2@@std@@@2@V?$allocator@U?$pair@$$CBV?$basic_string@DU?$char_traits@D@std@@V?$allocator@D@2@@std@@PAVCUser@@@std@@@2@$0A@@std@@@2@I@Z 0040c1b0 f i User.obj
 0001:0000b1c0       ??0const_iterator@?$_Tree@V?$_Tmap_traits@KPAVCUser@@U?$less@K@std@@V?$allocator@U?$pair@$$CBKPAVCUser@@@std@@@3@$0A@@std@@@std@@QAE@PAU_Node@?$_Tree_nod@V?$_Tmap_traits@KPAVCUser@@U?$less@K@std@@V?$allocator@U?$pair@$$CBKPAVCUser@@@std@@@3@$0A@@std@@@2@@Z 0040c1c0 f i User.obj
 0001:0000b1d0       ??Dconst_iterator@?$_Tree@V?$_Tmap_traits@KPAVCUser@@U?$less@K@std@@V?$allocator@U?$pair@$$CBKPAVCUser@@@std@@@3@$0A@@std@@@std@@QBEABU?$pair@$$CBKPAVCUser@@@2@XZ 0040c1d0 f i User.obj
 0001:0000b1e0       ?_Inc@const_iterator@?$_Tree@V?$_Tmap_traits@KPAVCUser@@U?$less@K@std@@V?$allocator@U?$pair@$$CBKPAVCUser@@@std@@@3@$0A@@std@@@std@@QAEXXZ 0040c1e0 f i User.obj
 0001:0000b240       ??0const_iterator@?$_Tree@V?$_Tmap_traits@V?$basic_string@DU?$char_traits@D@std@@V?$allocator@D@2@@std@@PAVCUser@@U?$less@V?$basic_string@DU?$char_traits@D@std@@V?$allocator@D@2@@std@@@2@V?$allocator@U?$pair@$$CBV?$basic_string@DU?$char_traits@D@std@@V?$allocator@D@2@@std@@PAVCUser@@@std@@@2@$0A@@std@@@std@@QAE@PAU_Node@?$_Tree_nod@V?$_Tmap_traits@V?$basic_string@DU?$char_traits@D@std@@V?$allocator@D@2@@std@@PAVCUser@@U?$less@V?$basic_string@DU?$char_traits@D@std@@V?$allocator@D@2@@std@@@2@V?$allocator@U?$pair@$$CBV?$basic_string@DU?$char_traits@D@std@@V?$allocator@D@2@@std@@PAVCUser@@@std@@@2@$0A@@std@@@2@@Z 0040c240 f i User.obj
 0001:0000b250       ??Dconst_iterator@?$_Tree@V?$_Tmap_traits@V?$basic_string@DU?$char_traits@D@std@@V?$allocator@D@2@@std@@PAVCUser@@U?$less@V?$basic_string@DU?$char_traits@D@std@@V?$allocator@D@2@@std@@@2@V?$allocator@U?$pair@$$CBV?$basic_string@DU?$char_traits@D@std@@V?$allocator@D@2@@std@@PAVCUser@@@std@@@2@$0A@@std@@@std@@QBEABU?$pair@$$CBV?$basic_string@DU?$char_traits@D@std@@V?$allocator@D@2@@std@@PAVCUser@@@2@XZ 0040c250 f i User.obj
 0001:0000b260       ??0?$pair@Viterator@?$_Tree@V?$_Tmap_traits@V?$basic_string@DU?$char_traits@D@std@@V?$allocator@D@2@@std@@PAVCUser@@U?$less@V?$basic_string@DU?$char_traits@D@std@@V?$allocator@D@2@@std@@@2@V?$allocator@U?$pair@$$CBV?$basic_string@DU?$char_traits@D@std@@V?$allocator@D@2@@std@@PAVCUser@@@std@@@2@$0A@@std@@@std@@V123@@std@@QAE@ABViterator@?$_Tree@V?$_Tmap_traits@V?$basic_string@DU?$char_traits@D@std@@V?$allocator@D@2@@std@@PAVCUser@@U?$less@V?$basic_string@DU?$char_traits@D@std@@V?$allocator@D@2@@std@@@2@V?$allocator@U?$pair@$$CBV?$basic_string@DU?$char_traits@D@std@@V?$allocator@D@2@@std@@PAVCUser@@@std@@@2@$0A@@std@@@1@0@Z 0040c260 f i User.obj
 0001:0000b280       ??0?$allocator@PAX@std@@QAE@ABV01@@Z 0040c280 f i User.obj
 0001:0000b290       ?_Root@?$_Tree@V?$_Tmap_traits@KPAVCUser@@U?$less@K@std@@V?$allocator@U?$pair@$$CBKPAVCUser@@@std@@@3@$0A@@std@@@std@@IBEAAPAU_Node@?$_Tree_nod@V?$_Tmap_traits@KPAVCUser@@U?$less@K@std@@V?$allocator@U?$pair@$$CBKPAVCUser@@@std@@@3@$0A@@std@@@2@XZ 0040c290 f i User.obj
 0001:0000b2a0       ?max_size@?$allocator@U?$pair@$$CBKPAVCUser@@@std@@@std@@QBEIXZ 0040c2a0 f i User.obj
 0001:0000b2b0       ?_Max@?$_Tree@V?$_Tmap_traits@V?$basic_string@DU?$char_traits@D@std@@V?$allocator@D@2@@std@@PAVCUser@@U?$less@V?$basic_string@DU?$char_traits@D@std@@V?$allocator@D@2@@std@@@2@V?$allocator@U?$pair@$$CBV?$basic_string@DU?$char_traits@D@std@@V?$allocator@D@2@@std@@PAVCUser@@@std@@@2@$0A@@std@@@std@@KAPAU_Node@?$_Tree_nod@V?$_Tmap_traits@V?$basic_string@DU?$char_traits@D@std@@V?$allocator@D@2@@std@@PAVCUser@@U?$less@V?$basic_string@DU?$char_traits@D@std@@V?$allocator@D@2@@std@@@2@V?$allocator@U?$pair@$$CBV?$basic_string@DU?$char_traits@D@std@@V?$allocator@D@2@@std@@PAVCUser@@@std@@@2@$0A@@std@@@2@PAU342@@Z 0040c2b0 f i User.obj
 0001:0000b2d0       ?_Min@?$_Tree@V?$_Tmap_traits@V?$basic_string@DU?$char_traits@D@std@@V?$allocator@D@2@@std@@PAVCUser@@U?$less@V?$basic_string@DU?$char_traits@D@std@@V?$allocator@D@2@@std@@@2@V?$allocator@U?$pair@$$CBV?$basic_string@DU?$char_traits@D@std@@V?$allocator@D@2@@std@@PAVCUser@@@std@@@2@$0A@@std@@@std@@KAPAU_Node@?$_Tree_nod@V?$_Tmap_traits@V?$basic_string@DU?$char_traits@D@std@@V?$allocator@D@2@@std@@PAVCUser@@U?$less@V?$basic_string@DU?$char_traits@D@std@@V?$allocator@D@2@@std@@@2@V?$allocator@U?$pair@$$CBV?$basic_string@DU?$char_traits@D@std@@V?$allocator@D@2@@std@@PAVCUser@@@std@@@2@$0A@@std@@@2@PAU342@@Z 0040c2d0 f i User.obj
 0001:0000b2f0       ?_Root@?$_Tree@V?$_Tmap_traits@V?$basic_string@DU?$char_traits@D@std@@V?$allocator@D@2@@std@@PAVCUser@@U?$less@V?$basic_string@DU?$char_traits@D@std@@V?$allocator@D@2@@std@@@2@V?$allocator@U?$pair@$$CBV?$basic_string@DU?$char_traits@D@std@@V?$allocator@D@2@@std@@PAVCUser@@@std@@@2@$0A@@std@@@std@@IBEAAPAU_Node@?$_Tree_nod@V?$_Tmap_traits@V?$basic_string@DU?$char_traits@D@std@@V?$allocator@D@2@@std@@PAVCUser@@U?$less@V?$basic_string@DU?$char_traits@D@std@@V?$allocator@D@2@@std@@@2@V?$allocator@U?$pair@$$CBV?$basic_string@DU?$char_traits@D@std@@V?$allocator@D@2@@std@@PAVCUser@@@std@@@2@$0A@@std@@@2@XZ 0040c2f0 f i User.obj
 0001:0000b300       ?max_size@?$allocator@U?$pair@$$CBV?$basic_string@DU?$char_traits@D@std@@V?$allocator@D@2@@std@@PAVCUser@@@std@@@std@@QBEIXZ 0040c300 f i User.obj
 0001:0000b310       ?_Dec@const_iterator@?$_Tree@V?$_Tmap_traits@KPAVCUser@@U?$less@K@std@@V?$allocator@U?$pair@$$CBKPAVCUser@@@std@@@3@$0A@@std@@@std@@QAEXXZ 0040c310 f i User.obj
 0001:0000b370       ?_Dec@const_iterator@?$_Tree@V?$_Tmap_traits@V?$basic_string@DU?$char_traits@D@std@@V?$allocator@D@2@@std@@PAVCUser@@U?$less@V?$basic_string@DU?$char_traits@D@std@@V?$allocator@D@2@@std@@@2@V?$allocator@U?$pair@$$CBV?$basic_string@DU?$char_traits@D@std@@V?$allocator@D@2@@std@@PAVCUser@@@std@@@2@$0A@@std@@@std@@QAEXXZ 0040c370 f i User.obj
 0001:0000b3d0       ??0_Node@?$_Tree_nod@V?$_Tmap_traits@KPAVCUser@@U?$less@K@std@@V?$allocator@U?$pair@$$CBKPAVCUser@@@std@@@3@$0A@@std@@@std@@QAE@PAU012@00ABU?$pair@$$CBKPAVCUser@@@2@D@Z 0040c3d0 f i User.obj
 0001:0000b410       ??0?$_Tmap_traits@KPAVCUser@@U?$less@K@std@@V?$allocator@U?$pair@$$CBKPAVCUser@@@std@@@3@$0A@@std@@QAE@U?$less@K@1@@Z 0040c410 f i User.obj
 0001:0000b420       ??0?$_Tmap_traits@V?$basic_string@DU?$char_traits@D@std@@V?$allocator@D@2@@std@@PAVCUser@@U?$less@V?$basic_string@DU?$char_traits@D@std@@V?$allocator@D@2@@std@@@2@V?$allocator@U?$pair@$$CBV?$basic_string@DU?$char_traits@D@std@@V?$allocator@D@2@@std@@PAVCUser@@@std@@@2@$0A@@std@@QAE@U?$less@V?$basic_string@DU?$char_traits@D@std@@V?$allocator@D@2@@std@@@1@@Z 0040c420 f i User.obj
 0001:0000b430       ?_Inc@const_iterator@?$_Tree@V?$_Tmap_traits@V?$basic_string@DU?$char_traits@D@std@@V?$allocator@D@2@@std@@PAVCUser@@U?$less@V?$basic_string@DU?$char_traits@D@std@@V?$allocator@D@2@@std@@@2@V?$allocator@U?$pair@$$CBV?$basic_string@DU?$char_traits@D@std@@V?$allocator@D@2@@std@@PAVCUser@@@std@@@2@$0A@@std@@@std@@QAEXXZ 0040c430 f i User.obj
 0001:0000b490       ??$_Destroy@U_Node@?$_Tree_nod@V?$_Tmap_traits@KPAVCUser@@U?$less@K@std@@V?$allocator@U?$pair@$$CBKPAVCUser@@@std@@@3@$0A@@std@@@std@@@std@@YAXPAU_Node@?$_Tree_nod@V?$_Tmap_traits@KPAVCUser@@U?$less@K@std@@V?$allocator@U?$pair@$$CBKPAVCUser@@@std@@@3@$0A@@std@@@0@@Z 0040c490 f i User.obj
 0001:0000b4a0       ??$_Destroy@PAU_Node@?$_Tree_nod@V?$_Tmap_traits@KPAVCUser@@U?$less@K@std@@V?$allocator@U?$pair@$$CBKPAVCUser@@@std@@@3@$0A@@std@@@std@@@std@@YAXPAPAU_Node@?$_Tree_nod@V?$_Tmap_traits@KPAVCUser@@U?$less@K@std@@V?$allocator@U?$pair@$$CBKPAVCUser@@@std@@@3@$0A@@std@@@0@@Z 0040c4a0 f i User.obj
 0001:0000b4b0       ??$_Destroy@PAU_Node@?$_Tree_nod@V?$_Tmap_traits@V?$basic_string@DU?$char_traits@D@std@@V?$allocator@D@2@@std@@PAVCUser@@U?$less@V?$basic_string@DU?$char_traits@D@std@@V?$allocator@D@2@@std@@@2@V?$allocator@U?$pair@$$CBV?$basic_string@DU?$char_traits@D@std@@V?$allocator@D@2@@std@@PAVCUser@@@std@@@2@$0A@@std@@@std@@@std@@YAXPAPAU_Node@?$_Tree_nod@V?$_Tmap_traits@V?$basic_string@DU?$char_traits@D@std@@V?$allocator@D@2@@std@@PAVCUser@@U?$less@V?$basic_string@DU?$char_traits@D@std@@V?$allocator@D@2@@std@@@2@V?$allocator@U?$pair@$$CBV?$basic_string@DU?$char_traits@D@std@@V?$allocator@D@2@@std@@PAVCUser@@@std@@@2@$0A@@std@@@0@@Z 0040c4b0 f i User.obj
 0001:0000b4c0       ??$?0PAX@?$allocator@PAU_Node@?$_List_nod@PAXV?$allocator@PAX@std@@@std@@@std@@QAE@ABV?$allocator@PAX@1@@Z 0040c4c0 f i User.obj
 0001:0000b4d0       ??$_Construct@PAU_Node@?$_List_nod@PAXV?$allocator@PAX@std@@@std@@PAU123@@std@@YAXPAPAU_Node@?$_List_nod@PAXV?$allocator@PAX@std@@@0@ABQAU120@@Z 0040c4d0 f i User.obj
 0001:0000b4f0       ??$?0U?$pair@$$CBKPAVCUser@@@std@@@?$allocator@PAU_Node@?$_Tree_nod@V?$_Tmap_traits@KPAVCUser@@U?$less@K@std@@V?$allocator@U?$pair@$$CBKPAVCUser@@@std@@@3@$0A@@std@@@std@@@std@@QAE@ABV?$allocator@U?$pair@$$CBKPAVCUser@@@std@@@1@@Z 0040c4f0 f i User.obj
 0001:0000b500       ??$_Allocate@U_Node@?$_Tree_nod@V?$_Tmap_traits@KPAVCUser@@U?$less@K@std@@V?$allocator@U?$pair@$$CBKPAVCUser@@@std@@@3@$0A@@std@@@std@@@std@@YAPAU_Node@?$_Tree_nod@V?$_Tmap_traits@KPAVCUser@@U?$less@K@std@@V?$allocator@U?$pair@$$CBKPAVCUser@@@std@@@3@$0A@@std@@@0@IPAU120@@Z 0040c500 f i User.obj
 0001:0000b520       ??$?0U?$pair@$$CBV?$basic_string@DU?$char_traits@D@std@@V?$allocator@D@2@@std@@PAVCUser@@@std@@@?$allocator@PAU_Node@?$_Tree_nod@V?$_Tmap_traits@V?$basic_string@DU?$char_traits@D@std@@V?$allocator@D@2@@std@@PAVCUser@@U?$less@V?$basic_string@DU?$char_traits@D@std@@V?$allocator@D@2@@std@@@2@V?$allocator@U?$pair@$$CBV?$basic_string@DU?$char_traits@D@std@@V?$allocator@D@2@@std@@PAVCUser@@@std@@@2@$0A@@std@@@std@@@std@@QAE@ABV?$allocator@U?$pair@$$CBV?$basic_string@DU?$char_traits@D@std@@V?$allocator@D@2@@std@@PAVCUser@@@std@@@1@@Z 0040c520 f i User.obj
 0001:0000b530       ??$_Allocate@U_Node@?$_Tree_nod@V?$_Tmap_traits@V?$basic_string@DU?$char_traits@D@std@@V?$allocator@D@2@@std@@PAVCUser@@U?$less@V?$basic_string@DU?$char_traits@D@std@@V?$allocator@D@2@@std@@@2@V?$allocator@U?$pair@$$CBV?$basic_string@DU?$char_traits@D@std@@V?$allocator@D@2@@std@@PAVCUser@@@std@@@2@$0A@@std@@@std@@@std@@YAPAU_Node@?$_Tree_nod@V?$_Tmap_traits@V?$basic_string@DU?$char_traits@D@std@@V?$allocator@D@2@@std@@PAVCUser@@U?$less@V?$basic_string@DU?$char_traits@D@std@@V?$allocator@D@2@@std@@@2@V?$allocator@U?$pair@$$CBV?$basic_string@DU?$char_traits@D@std@@V?$allocator@D@2@@std@@PAVCUser@@@std@@@2@$0A@@std@@@0@IPAU120@@Z 0040c530 f i User.obj
 0001:0000b550       ??$?0PAX@?$allocator@U_Node@?$_List_nod@PAXV?$allocator@PAX@std@@@std@@@std@@QAE@ABV?$allocator@PAX@1@@Z 0040c550 f i User.obj
 0001:0000b560       ??$?0U?$pair@$$CBKPAVCUser@@@std@@@?$allocator@U_Node@?$_Tree_nod@V?$_Tmap_traits@KPAVCUser@@U?$less@K@std@@V?$allocator@U?$pair@$$CBKPAVCUser@@@std@@@3@$0A@@std@@@std@@@std@@QAE@ABV?$allocator@U?$pair@$$CBKPAVCUser@@@std@@@1@@Z 0040c560 f i User.obj
 0001:0000b570       ??$_Construct@PAU_Node@?$_Tree_nod@V?$_Tmap_traits@KPAVCUser@@U?$less@K@std@@V?$allocator@U?$pair@$$CBKPAVCUser@@@std@@@3@$0A@@std@@@std@@PAU123@@std@@YAXPAPAU_Node@?$_Tree_nod@V?$_Tmap_traits@KPAVCUser@@U?$less@K@std@@V?$allocator@U?$pair@$$CBKPAVCUser@@@std@@@3@$0A@@std@@@0@ABQAU120@@Z 0040c570 f i User.obj
 0001:0000b590       ??$?0U?$pair@$$CBV?$basic_string@DU?$char_traits@D@std@@V?$allocator@D@2@@std@@PAVCUser@@@std@@@?$allocator@U_Node@?$_Tree_nod@V?$_Tmap_traits@V?$basic_string@DU?$char_traits@D@std@@V?$allocator@D@2@@std@@PAVCUser@@U?$less@V?$basic_string@DU?$char_traits@D@std@@V?$allocator@D@2@@std@@@2@V?$allocator@U?$pair@$$CBV?$basic_string@DU?$char_traits@D@std@@V?$allocator@D@2@@std@@PAVCUser@@@std@@@2@$0A@@std@@@std@@@std@@QAE@ABV?$allocator@U?$pair@$$CBV?$basic_string@DU?$char_traits@D@std@@V?$allocator@D@2@@std@@PAVCUser@@@std@@@1@@Z 0040c590 f i User.obj
 0001:0000b5a0       ??$_Construct@PAU_Node@?$_Tree_nod@V?$_Tmap_traits@V?$basic_string@DU?$char_traits@D@std@@V?$allocator@D@2@@std@@PAVCUser@@U?$less@V?$basic_string@DU?$char_traits@D@std@@V?$allocator@D@2@@std@@@2@V?$allocator@U?$pair@$$CBV?$basic_string@DU?$char_traits@D@std@@V?$allocator@D@2@@std@@PAVCUser@@@std@@@2@$0A@@std@@@std@@PAU123@@std@@YAXPAPAU_Node@?$_Tree_nod@V?$_Tmap_traits@V?$basic_string@DU?$char_traits@D@std@@V?$allocator@D@2@@std@@PAVCUser@@U?$less@V?$basic_string@DU?$char_traits@D@std@@V?$allocator@D@2@@std@@@2@V?$allocator@U?$pair@$$CBV?$basic_string@DU?$char_traits@D@std@@V?$allocator@D@2@@std@@PAVCUser@@@std@@@2@$0A@@std@@@0@ABQAU120@@Z 0040c5a0 f i User.obj
 0001:0000b5c0       ??$_Iter_cat@Viterator@?$_Tree@V?$_Tmap_traits@V?$basic_string@DU?$char_traits@D@std@@V?$allocator@D@2@@std@@PAVCUser@@U?$less@V?$basic_string@DU?$char_traits@D@std@@V?$allocator@D@2@@std@@@2@V?$allocator@U?$pair@$$CBV?$basic_string@DU?$char_traits@D@std@@V?$allocator@D@2@@std@@PAVCUser@@@std@@@2@$0A@@std@@@std@@@std@@YA?AUbidirectional_iterator_tag@0@ABViterator@?$_Tree@V?$_Tmap_traits@V?$basic_string@DU?$char_traits@D@std@@V?$allocator@D@2@@std@@PAVCUser@@U?$less@V?$basic_string@DU?$char_traits@D@std@@V?$allocator@D@2@@std@@@2@V?$allocator@U?$pair@$$CBV?$basic_string@DU?$char_traits@D@std@@V?$allocator@D@2@@std@@PAVCUser@@@std@@@2@$0A@@std@@@0@@Z 0040c5c0 f i User.obj
 0001:0000b5d0       ?compare@?$char_traits@D@std@@SAHPBD0I@Z 0040c5d0 f i User.obj
 0001:0000b5f0       ??0CMclCritSec@@QAE@XZ     0040c5f0 f i User.obj
 0001:0000b610       ??1CMclCritSec@@UAE@XZ     0040c610 f i User.obj
 0001:0000b630       ??_ECMclCritSec@@UAEPAXI@Z 0040c630 f i User.obj
 0001:0000b630       ??_GCMclCritSec@@UAEPAXI@Z 0040c630 f i User.obj
 0001:0000b660       ??_GCUser@@UAEPAXI@Z       0040c660 f i User.obj
 0001:0000b660       ??_ECUser@@UAEPAXI@Z       0040c660 f i User.obj
 0001:0000b690       ??9const_iterator@?$_Tree@V?$_Tmap_traits@KPAVCUser@@U?$less@K@std@@V?$allocator@U?$pair@$$CBKPAVCUser@@@std@@@3@$0A@@std@@@std@@QBE_NABV012@@Z 0040c690 f i User.obj
 0001:0000b6b0       ??9const_iterator@?$_Tree@V?$_Tmap_traits@V?$basic_string@DU?$char_traits@D@std@@V?$allocator@D@2@@std@@PAVCUser@@U?$less@V?$basic_string@DU?$char_traits@D@std@@V?$allocator@D@2@@std@@@2@V?$allocator@U?$pair@$$CBV?$basic_string@DU?$char_traits@D@std@@V?$allocator@D@2@@std@@PAVCUser@@@std@@@2@$0A@@std@@@std@@QBE_NABV012@@Z 0040c6b0 f i User.obj
 0001:0000b6d0       ?_Key@?$_Tree@V?$_Tmap_traits@KPAVCUser@@U?$less@K@std@@V?$allocator@U?$pair@$$CBKPAVCUser@@@std@@@3@$0A@@std@@@std@@KAABKPAU_Node@?$_Tree_nod@V?$_Tmap_traits@KPAVCUser@@U?$less@K@std@@V?$allocator@U?$pair@$$CBKPAVCUser@@@std@@@3@$0A@@std@@@2@@Z 0040c6d0 f i User.obj
 0001:0000b6e0       ?_Lrotate@?$_Tree@V?$_Tmap_traits@KPAVCUser@@U?$less@K@std@@V?$allocator@U?$pair@$$CBKPAVCUser@@@std@@@3@$0A@@std@@@std@@IAEXPAU_Node@?$_Tree_nod@V?$_Tmap_traits@KPAVCUser@@U?$less@K@std@@V?$allocator@U?$pair@$$CBKPAVCUser@@@std@@@3@$0A@@std@@@2@@Z 0040c6e0 f i User.obj
 0001:0000b740       ?destroy@?$allocator@U_Node@?$_Tree_nod@V?$_Tmap_traits@KPAVCUser@@U?$less@K@std@@V?$allocator@U?$pair@$$CBKPAVCUser@@@std@@@3@$0A@@std@@@std@@@std@@QAEXPAU_Node@?$_Tree_nod@V?$_Tmap_traits@KPAVCUser@@U?$less@K@std@@V?$allocator@U?$pair@$$CBKPAVCUser@@@std@@@3@$0A@@std@@@2@@Z 0040c740 f i User.obj
 0001:0000b750       ?_Key@?$_Tree@V?$_Tmap_traits@V?$basic_string@DU?$char_traits@D@std@@V?$allocator@D@2@@std@@PAVCUser@@U?$less@V?$basic_string@DU?$char_traits@D@std@@V?$allocator@D@2@@std@@@2@V?$allocator@U?$pair@$$CBV?$basic_string@DU?$char_traits@D@std@@V?$allocator@D@2@@std@@PAVCUser@@@std@@@2@$0A@@std@@@std@@KAABV?$basic_string@DU?$char_traits@D@std@@V?$allocator@D@2@@2@PAU_Node@?$_Tree_nod@V?$_Tmap_traits@V?$basic_string@DU?$char_traits@D@std@@V?$allocator@D@2@@std@@PAVCUser@@U?$less@V?$basic_string@DU?$char_traits@D@std@@V?$allocator@D@2@@std@@@2@V?$allocator@U?$pair@$$CBV?$basic_string@DU?$char_traits@D@std@@V?$allocator@D@2@@std@@PAVCUser@@@std@@@2@$0A@@std@@@2@@Z 0040c750 f i User.obj
 0001:0000b760       ?_Root@?$_Tree@V?$_Tmap_traits@V?$basic_string@DU?$char_traits@D@std@@V?$allocator@D@2@@std@@PAVCUser@@U?$less@V?$basic_string@DU?$char_traits@D@std@@V?$allocator@D@2@@std@@@2@V?$allocator@U?$pair@$$CBV?$basic_string@DU?$char_traits@D@std@@V?$allocator@D@2@@std@@PAVCUser@@@std@@@2@$0A@@std@@@std@@IAEAAPAU_Node@?$_Tree_nod@V?$_Tmap_traits@V?$basic_string@DU?$char_traits@D@std@@V?$allocator@D@2@@std@@PAVCUser@@U?$less@V?$basic_string@DU?$char_traits@D@std@@V?$allocator@D@2@@std@@@2@V?$allocator@U?$pair@$$CBV?$basic_string@DU?$char_traits@D@std@@V?$allocator@D@2@@std@@PAVCUser@@@std@@@2@$0A@@std@@@2@XZ 0040c760 f i User.obj
 0001:0000b770       ??0iterator@?$_Tree@V?$_Tmap_traits@KPAVCUser@@U?$less@K@std@@V?$allocator@U?$pair@$$CBKPAVCUser@@@std@@@3@$0A@@std@@@std@@QAE@PAU_Node@?$_Tree_nod@V?$_Tmap_traits@KPAVCUser@@U?$less@K@std@@V?$allocator@U?$pair@$$CBKPAVCUser@@@std@@@3@$0A@@std@@@2@@Z 0040c770 f i User.obj
 0001:0000b780       ??Diterator@?$_Tree@V?$_Tmap_traits@KPAVCUser@@U?$less@K@std@@V?$allocator@U?$pair@$$CBKPAVCUser@@@std@@@3@$0A@@std@@@std@@QBEAAU?$pair@$$CBKPAVCUser@@@2@XZ 0040c780 f i User.obj
 0001:0000b790       ??Econst_iterator@?$_Tree@V?$_Tmap_traits@KPAVCUser@@U?$less@K@std@@V?$allocator@U?$pair@$$CBKPAVCUser@@@std@@@3@$0A@@std@@@std@@QAEAAV012@XZ 0040c790 f i User.obj
 0001:0000b7a0       ??0iterator@?$_Tree@V?$_Tmap_traits@V?$basic_string@DU?$char_traits@D@std@@V?$allocator@D@2@@std@@PAVCUser@@U?$less@V?$basic_string@DU?$char_traits@D@std@@V?$allocator@D@2@@std@@@2@V?$allocator@U?$pair@$$CBV?$basic_string@DU?$char_traits@D@std@@V?$allocator@D@2@@std@@PAVCUser@@@std@@@2@$0A@@std@@@std@@QAE@PAU_Node@?$_Tree_nod@V?$_Tmap_traits@V?$basic_string@DU?$char_traits@D@std@@V?$allocator@D@2@@std@@PAVCUser@@U?$less@V?$basic_string@DU?$char_traits@D@std@@V?$allocator@D@2@@std@@@2@V?$allocator@U?$pair@$$CBV?$basic_string@DU?$char_traits@D@std@@V?$allocator@D@2@@std@@PAVCUser@@@std@@@2@$0A@@std@@@2@@Z 0040c7a0 f i User.obj
 0001:0000b7b0       ??Diterator@?$_Tree@V?$_Tmap_traits@V?$basic_string@DU?$char_traits@D@std@@V?$allocator@D@2@@std@@PAVCUser@@U?$less@V?$basic_string@DU?$char_traits@D@std@@V?$allocator@D@2@@std@@@2@V?$allocator@U?$pair@$$CBV?$basic_string@DU?$char_traits@D@std@@V?$allocator@D@2@@std@@PAVCUser@@@std@@@2@$0A@@std@@@std@@QBEAAU?$pair@$$CBV?$basic_string@DU?$char_traits@D@std@@V?$allocator@D@2@@std@@PAVCUser@@@2@XZ 0040c7b0 f i User.obj
 0001:0000b7c0       ?max_size@?$_Tree@V?$_Tmap_traits@KPAVCUser@@U?$less@K@std@@V?$allocator@U?$pair@$$CBKPAVCUser@@@std@@@3@$0A@@std@@@std@@QBEIXZ 0040c7c0 f i User.obj
 0001:0000b7d0       ?_Lbound@?$_Tree@V?$_Tmap_traits@KPAVCUser@@U?$less@K@std@@V?$allocator@U?$pair@$$CBKPAVCUser@@@std@@@3@$0A@@std@@@std@@IBEPAU_Node@?$_Tree_nod@V?$_Tmap_traits@KPAVCUser@@U?$less@K@std@@V?$allocator@U?$pair@$$CBKPAVCUser@@@std@@@3@$0A@@std@@@2@ABK@Z 0040c7d0 f i User.obj
 0001:0000b800       ?destroy@?$allocator@PAU_Node@?$_Tree_nod@V?$_Tmap_traits@KPAVCUser@@U?$less@K@std@@V?$allocator@U?$pair@$$CBKPAVCUser@@@std@@@3@$0A@@std@@@std@@@std@@QAEXPAPAU_Node@?$_Tree_nod@V?$_Tmap_traits@KPAVCUser@@U?$less@K@std@@V?$allocator@U?$pair@$$CBKPAVCUser@@@std@@@3@$0A@@std@@@2@@Z 0040c800 f i User.obj
 0001:0000b810       ?max_size@?$_Tree@V?$_Tmap_traits@V?$basic_string@DU?$char_traits@D@std@@V?$allocator@D@2@@std@@PAVCUser@@U?$less@V?$basic_string@DU?$char_traits@D@std@@V?$allocator@D@2@@std@@@2@V?$allocator@U?$pair@$$CBV?$basic_string@DU?$char_traits@D@std@@V?$allocator@D@2@@std@@PAVCUser@@@std@@@2@$0A@@std@@@std@@QBEIXZ 0040c810 f i User.obj
 0001:0000b820       ?_Lrotate@?$_Tree@V?$_Tmap_traits@V?$basic_string@DU?$char_traits@D@std@@V?$allocator@D@2@@std@@PAVCUser@@U?$less@V?$basic_string@DU?$char_traits@D@std@@V?$allocator@D@2@@std@@@2@V?$allocator@U?$pair@$$CBV?$basic_string@DU?$char_traits@D@std@@V?$allocator@D@2@@std@@PAVCUser@@@std@@@2@$0A@@std@@@std@@IAEXPAU_Node@?$_Tree_nod@V?$_Tmap_traits@V?$basic_string@DU?$char_traits@D@std@@V?$allocator@D@2@@std@@PAVCUser@@U?$less@V?$basic_string@DU?$char_traits@D@std@@V?$allocator@D@2@@std@@@2@V?$allocator@U?$pair@$$CBV?$basic_string@DU?$char_traits@D@std@@V?$allocator@D@2@@std@@PAVCUser@@@std@@@2@$0A@@std@@@2@@Z 0040c820 f i User.obj
 0001:0000b880       ?_Rrotate@?$_Tree@V?$_Tmap_traits@V?$basic_string@DU?$char_traits@D@std@@V?$allocator@D@2@@std@@PAVCUser@@U?$less@V?$basic_string@DU?$char_traits@D@std@@V?$allocator@D@2@@std@@@2@V?$allocator@U?$pair@$$CBV?$basic_string@DU?$char_traits@D@std@@V?$allocator@D@2@@std@@PAVCUser@@@std@@@2@$0A@@std@@@std@@IAEXPAU_Node@?$_Tree_nod@V?$_Tmap_traits@V?$basic_string@DU?$char_traits@D@std@@V?$allocator@D@2@@std@@PAVCUser@@U?$less@V?$basic_string@DU?$char_traits@D@std@@V?$allocator@D@2@@std@@@2@V?$allocator@U?$pair@$$CBV?$basic_string@DU?$char_traits@D@std@@V?$allocator@D@2@@std@@PAVCUser@@@std@@@2@$0A@@std@@@2@@Z 0040c880 f i User.obj
 0001:0000b8e0       ?destroy@?$allocator@PAU_Node@?$_Tree_nod@V?$_Tmap_traits@V?$basic_string@DU?$char_traits@D@std@@V?$allocator@D@2@@std@@PAVCUser@@U?$less@V?$basic_string@DU?$char_traits@D@std@@V?$allocator@D@2@@std@@@2@V?$allocator@U?$pair@$$CBV?$basic_string@DU?$char_traits@D@std@@V?$allocator@D@2@@std@@PAVCUser@@@std@@@2@$0A@@std@@@std@@@std@@QAEXPAPAU_Node@?$_Tree_nod@V?$_Tmap_traits@V?$basic_string@DU?$char_traits@D@std@@V?$allocator@D@2@@std@@PAVCUser@@U?$less@V?$basic_string@DU?$char_traits@D@std@@V?$allocator@D@2@@std@@@2@V?$allocator@U?$pair@$$CBV?$basic_string@DU?$char_traits@D@std@@V?$allocator@D@2@@std@@PAVCUser@@@std@@@2@$0A@@std@@@2@@Z 0040c8e0 f i User.obj
 0001:0000b8f0       ??Fconst_iterator@?$_Tree@V?$_Tmap_traits@KPAVCUser@@U?$less@K@std@@V?$allocator@U?$pair@$$CBKPAVCUser@@@std@@@3@$0A@@std@@@std@@QAEAAV012@XZ 0040c8f0 f i User.obj
 0001:0000b900       ??Fconst_iterator@?$_Tree@V?$_Tmap_traits@V?$basic_string@DU?$char_traits@D@std@@V?$allocator@D@2@@std@@PAVCUser@@U?$less@V?$basic_string@DU?$char_traits@D@std@@V?$allocator@D@2@@std@@@2@V?$allocator@U?$pair@$$CBV?$basic_string@DU?$char_traits@D@std@@V?$allocator@D@2@@std@@PAVCUser@@@std@@@2@$0A@@std@@@std@@QAEAAV012@XZ 0040c900 f i User.obj
 0001:0000b910       ?construct@?$allocator@PAU_Node@?$_List_nod@PAXV?$allocator@PAX@std@@@std@@@std@@QAEXPAPAU_Node@?$_List_nod@PAXV?$allocator@PAX@std@@@2@ABQAU342@@Z 0040c910 f i User.obj
 0001:0000b930       ?allocate@?$allocator@U_Node@?$_Tree_nod@V?$_Tmap_traits@KPAVCUser@@U?$less@K@std@@V?$allocator@U?$pair@$$CBKPAVCUser@@@std@@@3@$0A@@std@@@std@@@std@@QAEPAU_Node@?$_Tree_nod@V?$_Tmap_traits@KPAVCUser@@U?$less@K@std@@V?$allocator@U?$pair@$$CBKPAVCUser@@@std@@@3@$0A@@std@@@2@I@Z 0040c930 f i User.obj
 0001:0000b950       ?allocate@?$allocator@U_Node@?$_Tree_nod@V?$_Tmap_traits@V?$basic_string@DU?$char_traits@D@std@@V?$allocator@D@2@@std@@PAVCUser@@U?$less@V?$basic_string@DU?$char_traits@D@std@@V?$allocator@D@2@@std@@@2@V?$allocator@U?$pair@$$CBV?$basic_string@DU?$char_traits@D@std@@V?$allocator@D@2@@std@@PAVCUser@@@std@@@2@$0A@@std@@@std@@@std@@QAEPAU_Node@?$_Tree_nod@V?$_Tmap_traits@V?$basic_string@DU?$char_traits@D@std@@V?$allocator@D@2@@std@@PAVCUser@@U?$less@V?$basic_string@DU?$char_traits@D@std@@V?$allocator@D@2@@std@@@2@V?$allocator@U?$pair@$$CBV?$basic_string@DU?$char_traits@D@std@@V?$allocator@D@2@@std@@PAVCUser@@@std@@@2@$0A@@std@@@2@I@Z 0040c950 f i User.obj
 0001:0000b970       ??0?$_List_nod@PAXV?$allocator@PAX@std@@@std@@IAE@V?$allocator@PAX@1@@Z 0040c970 f i User.obj
 0001:0000b980       ??0?$_Tree_nod@V?$_Tmap_traits@KPAVCUser@@U?$less@K@std@@V?$allocator@U?$pair@$$CBKPAVCUser@@@std@@@3@$0A@@std@@@std@@IAE@ABU?$less@K@1@V?$allocator@U?$pair@$$CBKPAVCUser@@@std@@@1@@Z 0040c980 f i User.obj
 0001:0000b990       ?construct@?$allocator@PAU_Node@?$_Tree_nod@V?$_Tmap_traits@KPAVCUser@@U?$less@K@std@@V?$allocator@U?$pair@$$CBKPAVCUser@@@std@@@3@$0A@@std@@@std@@@std@@QAEXPAPAU_Node@?$_Tree_nod@V?$_Tmap_traits@KPAVCUser@@U?$less@K@std@@V?$allocator@U?$pair@$$CBKPAVCUser@@@std@@@3@$0A@@std@@@2@ABQAU342@@Z 0040c990 f i User.obj
 0001:0000b9b0       ??0?$_Tree_nod@V?$_Tmap_traits@V?$basic_string@DU?$char_traits@D@std@@V?$allocator@D@2@@std@@PAVCUser@@U?$less@V?$basic_string@DU?$char_traits@D@std@@V?$allocator@D@2@@std@@@2@V?$allocator@U?$pair@$$CBV?$basic_string@DU?$char_traits@D@std@@V?$allocator@D@2@@std@@PAVCUser@@@std@@@2@$0A@@std@@@std@@IAE@ABU?$less@V?$basic_string@DU?$char_traits@D@std@@V?$allocator@D@2@@std@@@1@V?$allocator@U?$pair@$$CBV?$basic_string@DU?$char_traits@D@std@@V?$allocator@D@2@@std@@PAVCUser@@@std@@@1@@Z 0040c9b0 f i User.obj
 0001:0000b9c0       ?construct@?$allocator@PAU_Node@?$_Tree_nod@V?$_Tmap_traits@V?$basic_string@DU?$char_traits@D@std@@V?$allocator@D@2@@std@@PAVCUser@@U?$less@V?$basic_string@DU?$char_traits@D@std@@V?$allocator@D@2@@std@@@2@V?$allocator@U?$pair@$$CBV?$basic_string@DU?$char_traits@D@std@@V?$allocator@D@2@@std@@PAVCUser@@@std@@@2@$0A@@std@@@std@@@std@@QAEXPAPAU_Node@?$_Tree_nod@V?$_Tmap_traits@V?$basic_string@DU?$char_traits@D@std@@V?$allocator@D@2@@std@@PAVCUser@@U?$less@V?$basic_string@DU?$char_traits@D@std@@V?$allocator@D@2@@std@@@2@V?$allocator@U?$pair@$$CBV?$basic_string@DU?$char_traits@D@std@@V?$allocator@D@2@@std@@PAVCUser@@@std@@@2@$0A@@std@@@2@ABQAU342@@Z 0040c9c0 f i User.obj
 0001:0000b9e0       ??Econst_iterator@?$_Tree@V?$_Tmap_traits@V?$basic_string@DU?$char_traits@D@std@@V?$allocator@D@2@@std@@PAVCUser@@U?$less@V?$basic_string@DU?$char_traits@D@std@@V?$allocator@D@2@@std@@@2@V?$allocator@U?$pair@$$CBV?$basic_string@DU?$char_traits@D@std@@V?$allocator@D@2@@std@@PAVCUser@@@std@@@2@$0A@@std@@@std@@QAEAAV012@XZ 0040c9e0 f i User.obj
 0001:0000b9f0       ?compare@?$basic_string@DU?$char_traits@D@std@@V?$allocator@D@2@@std@@QBEHIIPBDI@Z 0040c9f0 f i User.obj
 0001:0000ba70       ?begin@?$_Tree@V?$_Tmap_traits@KPAVCUser@@U?$less@K@std@@V?$allocator@U?$pair@$$CBKPAVCUser@@@std@@@3@$0A@@std@@@std@@QAE?AViterator@12@XZ 0040ca70 f i User.obj
 0001:0000ba80       ?end@?$_Tree@V?$_Tmap_traits@KPAVCUser@@U?$less@K@std@@V?$allocator@U?$pair@$$CBKPAVCUser@@@std@@@3@$0A@@std@@@std@@QAE?AViterator@12@XZ 0040ca80 f i User.obj
 0001:0000ba90       ?end@?$_Tree@V?$_Tmap_traits@V?$basic_string@DU?$char_traits@D@std@@V?$allocator@D@2@@std@@PAVCUser@@U?$less@V?$basic_string@DU?$char_traits@D@std@@V?$allocator@D@2@@std@@@2@V?$allocator@U?$pair@$$CBV?$basic_string@DU?$char_traits@D@std@@V?$allocator@D@2@@std@@PAVCUser@@@std@@@2@$0A@@std@@@std@@QAE?AViterator@12@XZ 0040ca90 f i User.obj
 0001:0000baa0       ??Citerator@?$_Tree@V?$_Tmap_traits@KPAVCUser@@U?$less@K@std@@V?$allocator@U?$pair@$$CBKPAVCUser@@@std@@@3@$0A@@std@@@std@@QBEPAU?$pair@$$CBKPAVCUser@@@2@XZ 0040caa0 f i User.obj
 0001:0000bab0       ??Eiterator@?$_Tree@V?$_Tmap_traits@KPAVCUser@@U?$less@K@std@@V?$allocator@U?$pair@$$CBKPAVCUser@@@std@@@3@$0A@@std@@@std@@QAEAAV012@XZ 0040cab0 f i User.obj
 0001:0000bac0       ??Citerator@?$_Tree@V?$_Tmap_traits@V?$basic_string@DU?$char_traits@D@std@@V?$allocator@D@2@@std@@PAVCUser@@U?$less@V?$basic_string@DU?$char_traits@D@std@@V?$allocator@D@2@@std@@@2@V?$allocator@U?$pair@$$CBV?$basic_string@DU?$char_traits@D@std@@V?$allocator@D@2@@std@@PAVCUser@@@std@@@2@$0A@@std@@@std@@QBEPAU?$pair@$$CBV?$basic_string@DU?$char_traits@D@std@@V?$allocator@D@2@@std@@PAVCUser@@@2@XZ 0040cac0 f i User.obj
 0001:0000bad0       ?lower_bound@?$_Tree@V?$_Tmap_traits@KPAVCUser@@U?$less@K@std@@V?$allocator@U?$pair@$$CBKPAVCUser@@@std@@@3@$0A@@std@@@std@@QAE?AViterator@12@ABK@Z 0040cad0 f i User.obj
 0001:0000bb10       ?_Erase@?$_Tree@V?$_Tmap_traits@KPAVCUser@@U?$less@K@std@@V?$allocator@U?$pair@$$CBKPAVCUser@@@std@@@3@$0A@@std@@@std@@IAEXPAU_Node@?$_Tree_nod@V?$_Tmap_traits@KPAVCUser@@U?$less@K@std@@V?$allocator@U?$pair@$$CBKPAVCUser@@@std@@@3@$0A@@std@@@2@@Z 0040cb10 f i User.obj
 0001:0000bb50       ?begin@?$_Tree@V?$_Tmap_traits@V?$basic_string@DU?$char_traits@D@std@@V?$allocator@D@2@@std@@PAVCUser@@U?$less@V?$basic_string@DU?$char_traits@D@std@@V?$allocator@D@2@@std@@@2@V?$allocator@U?$pair@$$CBV?$basic_string@DU?$char_traits@D@std@@V?$allocator@D@2@@std@@PAVCUser@@@std@@@2@$0A@@std@@@std@@QAE?AViterator@12@XZ 0040cb50 f i User.obj
 0001:0000bb60       ??Fiterator@?$_Tree@V?$_Tmap_traits@KPAVCUser@@U?$less@K@std@@V?$allocator@U?$pair@$$CBKPAVCUser@@@std@@@3@$0A@@std@@@std@@QAEAAV012@XZ 0040cb60 f i User.obj
 0001:0000bb70       ??Fiterator@?$_Tree@V?$_Tmap_traits@V?$basic_string@DU?$char_traits@D@std@@V?$allocator@D@2@@std@@PAVCUser@@U?$less@V?$basic_string@DU?$char_traits@D@std@@V?$allocator@D@2@@std@@@2@V?$allocator@U?$pair@$$CBV?$basic_string@DU?$char_traits@D@std@@V?$allocator@D@2@@std@@PAVCUser@@@std@@@2@$0A@@std@@@std@@QAEAAV012@XZ 0040cb70 f i User.obj
 0001:0000bb80       ?_Buynode@?$list@PAXV?$allocator@PAX@std@@@std@@IAEPAU_Node@?$_List_nod@PAXV?$allocator@PAX@std@@@2@XZ 0040cb80 f i User.obj
 0001:0000bba0       ?_Buynode@?$_Tree@V?$_Tmap_traits@KPAVCUser@@U?$less@K@std@@V?$allocator@U?$pair@$$CBKPAVCUser@@@std@@@3@$0A@@std@@@std@@IAEPAU_Node@?$_Tree_nod@V?$_Tmap_traits@KPAVCUser@@U?$less@K@std@@V?$allocator@U?$pair@$$CBKPAVCUser@@@std@@@3@$0A@@std@@@2@PAU342@00ABU?$pair@$$CBKPAVCUser@@@2@D@Z 0040cba0 f i User.obj
 0001:0000bbe0       ??0?$_List_ptr@PAXV?$allocator@PAX@std@@@std@@IAE@V?$allocator@PAX@1@@Z 0040cbe0 f i User.obj
 0001:0000bbf0       ?_Buynode@?$_Tree@V?$_Tmap_traits@KPAVCUser@@U?$less@K@std@@V?$allocator@U?$pair@$$CBKPAVCUser@@@std@@@3@$0A@@std@@@std@@IAEPAU_Node@?$_Tree_nod@V?$_Tmap_traits@KPAVCUser@@U?$less@K@std@@V?$allocator@U?$pair@$$CBKPAVCUser@@@std@@@3@$0A@@std@@@2@XZ 0040cbf0 f i User.obj
 0001:0000bc30       ??0?$_Tree_ptr@V?$_Tmap_traits@KPAVCUser@@U?$less@K@std@@V?$allocator@U?$pair@$$CBKPAVCUser@@@std@@@3@$0A@@std@@@std@@IAE@ABU?$less@K@1@V?$allocator@U?$pair@$$CBKPAVCUser@@@std@@@1@@Z 0040cc30 f i User.obj
 0001:0000bc40       ?_Buynode@?$_Tree@V?$_Tmap_traits@V?$basic_string@DU?$char_traits@D@std@@V?$allocator@D@2@@std@@PAVCUser@@U?$less@V?$basic_string@DU?$char_traits@D@std@@V?$allocator@D@2@@std@@@2@V?$allocator@U?$pair@$$CBV?$basic_string@DU?$char_traits@D@std@@V?$allocator@D@2@@std@@PAVCUser@@@std@@@2@$0A@@std@@@std@@IAEPAU_Node@?$_Tree_nod@V?$_Tmap_traits@V?$basic_string@DU?$char_traits@D@std@@V?$allocator@D@2@@std@@PAVCUser@@U?$less@V?$basic_string@DU?$char_traits@D@std@@V?$allocator@D@2@@std@@@2@V?$allocator@U?$pair@$$CBV?$basic_string@DU?$char_traits@D@std@@V?$allocator@D@2@@std@@PAVCUser@@@std@@@2@$0A@@std@@@2@XZ 0040cc40 f i User.obj
 0001:0000bc80       ??0?$_Tree_ptr@V?$_Tmap_traits@V?$basic_string@DU?$char_traits@D@std@@V?$allocator@D@2@@std@@PAVCUser@@U?$less@V?$basic_string@DU?$char_traits@D@std@@V?$allocator@D@2@@std@@@2@V?$allocator@U?$pair@$$CBV?$basic_string@DU?$char_traits@D@std@@V?$allocator@D@2@@std@@PAVCUser@@@std@@@2@$0A@@std@@@std@@IAE@ABU?$less@V?$basic_string@DU?$char_traits@D@std@@V?$allocator@D@2@@std@@@1@V?$allocator@U?$pair@$$CBV?$basic_string@DU?$char_traits@D@std@@V?$allocator@D@2@@std@@PAVCUser@@@std@@@1@@Z 0040cc80 f i User.obj
 0001:0000bc90       ??Eiterator@?$_Tree@V?$_Tmap_traits@KPAVCUser@@U?$less@K@std@@V?$allocator@U?$pair@$$CBKPAVCUser@@@std@@@3@$0A@@std@@@std@@QAE?AV012@H@Z 0040cc90 f i User.obj
 0001:0000bcb0       ??Eiterator@?$_Tree@V?$_Tmap_traits@V?$basic_string@DU?$char_traits@D@std@@V?$allocator@D@2@@std@@PAVCUser@@U?$less@V?$basic_string@DU?$char_traits@D@std@@V?$allocator@D@2@@std@@@2@V?$allocator@U?$pair@$$CBV?$basic_string@DU?$char_traits@D@std@@V?$allocator@D@2@@std@@PAVCUser@@@std@@@2@$0A@@std@@@std@@QAEAAV012@XZ 0040ccb0 f i User.obj
 0001:0000bcc0       ?compare@?$basic_string@DU?$char_traits@D@std@@V?$allocator@D@2@@std@@QBEHABV12@@Z 0040ccc0 f i User.obj
 0001:0000bd00       ??$_Distance2@Viterator@?$_Tree@V?$_Tmap_traits@V?$basic_string@DU?$char_traits@D@std@@V?$allocator@D@2@@std@@PAVCUser@@U?$less@V?$basic_string@DU?$char_traits@D@std@@V?$allocator@D@2@@std@@@2@V?$allocator@U?$pair@$$CBV?$basic_string@DU?$char_traits@D@std@@V?$allocator@D@2@@std@@PAVCUser@@@std@@@2@$0A@@std@@@std@@I@std@@YAXViterator@?$_Tree@V?$_Tmap_traits@V?$basic_string@DU?$char_traits@D@std@@V?$allocator@D@2@@std@@PAVCUser@@U?$less@V?$basic_string@DU?$char_traits@D@std@@V?$allocator@D@2@@std@@@2@V?$allocator@U?$pair@$$CBV?$basic_string@DU?$char_traits@D@std@@V?$allocator@D@2@@std@@PAVCUser@@@std@@@2@$0A@@std@@@0@0AAIUbidirectional_iterator_tag@0@@Z 0040cd00 f i User.obj
 0001:0000bd30       ?DestroyAbnormalPlayer@CUserMng@@QAEXXZ 0040cd30 f   User.obj
 0001:0000bdd0       ?CheckAll@CUserMng@@QAEXXZ 0040cdd0 f   User.obj
 0001:0000bf80       ?clear@?$_Tree@V?$_Tmap_traits@KPAVCUser@@U?$less@K@std@@V?$allocator@U?$pair@$$CBKPAVCUser@@@std@@@3@$0A@@std@@@std@@QAEXXZ 0040cf80 f i User.obj
 0001:0000bfb0       ?find@?$_Tree@V?$_Tmap_traits@KPAVCUser@@U?$less@K@std@@V?$allocator@U?$pair@$$CBKPAVCUser@@@std@@@3@$0A@@std@@@std@@QAE?AViterator@12@ABK@Z 0040cfb0 f i User.obj
 0001:0000c020       ??0?$_List_val@PAXV?$allocator@PAX@std@@@std@@IAE@V?$allocator@PAX@1@@Z 0040d020 f i User.obj
 0001:0000c030       ?_Init@?$_Tree@V?$_Tmap_traits@KPAVCUser@@U?$less@K@std@@V?$allocator@U?$pair@$$CBKPAVCUser@@@std@@@3@$0A@@std@@@std@@IAEXXZ 0040d030 f i User.obj
 0001:0000c060       ??0?$_Tree_val@V?$_Tmap_traits@KPAVCUser@@U?$less@K@std@@V?$allocator@U?$pair@$$CBKPAVCUser@@@std@@@3@$0A@@std@@@std@@IAE@ABU?$less@K@1@V?$allocator@U?$pair@$$CBKPAVCUser@@@std@@@1@@Z 0040d060 f i User.obj
 0001:0000c070       ?_Init@?$_Tree@V?$_Tmap_traits@V?$basic_string@DU?$char_traits@D@std@@V?$allocator@D@2@@std@@PAVCUser@@U?$less@V?$basic_string@DU?$char_traits@D@std@@V?$allocator@D@2@@std@@@2@V?$allocator@U?$pair@$$CBV?$basic_string@DU?$char_traits@D@std@@V?$allocator@D@2@@std@@PAVCUser@@@std@@@2@$0A@@std@@@std@@IAEXXZ 0040d070 f i User.obj
 0001:0000c0a0       ??0?$_Tree_val@V?$_Tmap_traits@V?$basic_string@DU?$char_traits@D@std@@V?$allocator@D@2@@std@@PAVCUser@@U?$less@V?$basic_string@DU?$char_traits@D@std@@V?$allocator@D@2@@std@@@2@V?$allocator@U?$pair@$$CBV?$basic_string@DU?$char_traits@D@std@@V?$allocator@D@2@@std@@PAVCUser@@@std@@@2@$0A@@std@@@std@@IAE@ABU?$less@V?$basic_string@DU?$char_traits@D@std@@V?$allocator@D@2@@std@@@1@V?$allocator@U?$pair@$$CBV?$basic_string@DU?$char_traits@D@std@@V?$allocator@D@2@@std@@PAVCUser@@@std@@@1@@Z 0040d0a0 f i User.obj
 0001:0000c0b0       ??Eiterator@?$_Tree@V?$_Tmap_traits@V?$basic_string@DU?$char_traits@D@std@@V?$allocator@D@2@@std@@PAVCUser@@U?$less@V?$basic_string@DU?$char_traits@D@std@@V?$allocator@D@2@@std@@@2@V?$allocator@U?$pair@$$CBV?$basic_string@DU?$char_traits@D@std@@V?$allocator@D@2@@std@@PAVCUser@@@std@@@2@$0A@@std@@@std@@QAE?AV012@H@Z 0040d0b0 f i User.obj
 0001:0000c0d0       ??$_Distance@Viterator@?$_Tree@V?$_Tmap_traits@V?$basic_string@DU?$char_traits@D@std@@V?$allocator@D@2@@std@@PAVCUser@@U?$less@V?$basic_string@DU?$char_traits@D@std@@V?$allocator@D@2@@std@@@2@V?$allocator@U?$pair@$$CBV?$basic_string@DU?$char_traits@D@std@@V?$allocator@D@2@@std@@PAVCUser@@@std@@@2@$0A@@std@@@std@@I@std@@YAXViterator@?$_Tree@V?$_Tmap_traits@V?$basic_string@DU?$char_traits@D@std@@V?$allocator@D@2@@std@@PAVCUser@@U?$less@V?$basic_string@DU?$char_traits@D@std@@V?$allocator@D@2@@std@@@2@V?$allocator@U?$pair@$$CBV?$basic_string@DU?$char_traits@D@std@@V?$allocator@D@2@@std@@PAVCUser@@@std@@@2@$0A@@std@@@0@0AAI@Z 0040d0d0 f i User.obj
 0001:0000c110       ??$?MDU?$char_traits@D@std@@V?$allocator@D@1@@std@@YA_NABV?$basic_string@DU?$char_traits@D@std@@V?$allocator@D@2@@0@0@Z 0040d110 f i User.obj
 0001:0000c140       ??1?$pair@$$CBV?$basic_string@DU?$char_traits@D@std@@V?$allocator@D@2@@std@@PAVCUser@@@std@@QAE@XZ 0040d140 f i User.obj
 0001:0000c170       ?GetUser@CUserMng@@QAEPAVCUser@@K@Z 0040d170 f   User.obj
 0001:0000c1a0       ??R?$less@V?$basic_string@DU?$char_traits@D@std@@V?$allocator@D@2@@std@@@std@@QBE_NABV?$basic_string@DU?$char_traits@D@std@@V?$allocator@D@2@@1@0@Z 0040d1a0 f i User.obj
 0001:0000c1e0       ??0?$list@PAXV?$allocator@PAX@std@@@std@@QAE@XZ 0040d1e0 f i User.obj
 0001:0000c200       ??0?$_Tree@V?$_Tmap_traits@KPAVCUser@@U?$less@K@std@@V?$allocator@U?$pair@$$CBKPAVCUser@@@std@@@3@$0A@@std@@@std@@QAE@ABU?$less@K@1@ABV?$allocator@U?$pair@$$CBKPAVCUser@@@std@@@1@@Z 0040d200 f i User.obj
 0001:0000c230       ??0?$_Tree@V?$_Tmap_traits@V?$basic_string@DU?$char_traits@D@std@@V?$allocator@D@2@@std@@PAVCUser@@U?$less@V?$basic_string@DU?$char_traits@D@std@@V?$allocator@D@2@@std@@@2@V?$allocator@U?$pair@$$CBV?$basic_string@DU?$char_traits@D@std@@V?$allocator@D@2@@std@@PAVCUser@@@std@@@2@$0A@@std@@@std@@QAE@ABU?$less@V?$basic_string@DU?$char_traits@D@std@@V?$allocator@D@2@@std@@@1@ABV?$allocator@U?$pair@$$CBV?$basic_string@DU?$char_traits@D@std@@V?$allocator@D@2@@std@@PAVCUser@@@std@@@1@@Z 0040d230 f i User.obj
 0001:0000c260       ?_Lbound@?$_Tree@V?$_Tmap_traits@V?$basic_string@DU?$char_traits@D@std@@V?$allocator@D@2@@std@@PAVCUser@@U?$less@V?$basic_string@DU?$char_traits@D@std@@V?$allocator@D@2@@std@@@2@V?$allocator@U?$pair@$$CBV?$basic_string@DU?$char_traits@D@std@@V?$allocator@D@2@@std@@PAVCUser@@@std@@@2@$0A@@std@@@std@@IBEPAU_Node@?$_Tree_nod@V?$_Tmap_traits@V?$basic_string@DU?$char_traits@D@std@@V?$allocator@D@2@@std@@PAVCUser@@U?$less@V?$basic_string@DU?$char_traits@D@std@@V?$allocator@D@2@@std@@@2@V?$allocator@U?$pair@$$CBV?$basic_string@DU?$char_traits@D@std@@V?$allocator@D@2@@std@@PAVCUser@@@std@@@2@$0A@@std@@@2@ABV?$basic_string@DU?$char_traits@D@std@@V?$allocator@D@2@@2@@Z 0040d260 f i User.obj
 0001:0000c320       ?_Ubound@?$_Tree@V?$_Tmap_traits@V?$basic_string@DU?$char_traits@D@std@@V?$allocator@D@2@@std@@PAVCUser@@U?$less@V?$basic_string@DU?$char_traits@D@std@@V?$allocator@D@2@@std@@@2@V?$allocator@U?$pair@$$CBV?$basic_string@DU?$char_traits@D@std@@V?$allocator@D@2@@std@@PAVCUser@@@std@@@2@$0A@@std@@@std@@IBEPAU_Node@?$_Tree_nod@V?$_Tmap_traits@V?$basic_string@DU?$char_traits@D@std@@V?$allocator@D@2@@std@@PAVCUser@@U?$less@V?$basic_string@DU?$char_traits@D@std@@V?$allocator@D@2@@std@@@2@V?$allocator@U?$pair@$$CBV?$basic_string@DU?$char_traits@D@std@@V?$allocator@D@2@@std@@PAVCUser@@@std@@@2@$0A@@std@@@2@ABV?$basic_string@DU?$char_traits@D@std@@V?$allocator@D@2@@2@@Z 0040d320 f i User.obj
 0001:0000c3d0       ??1_Node@?$_Tree_nod@V?$_Tmap_traits@V?$basic_string@DU?$char_traits@D@std@@V?$allocator@D@2@@std@@PAVCUser@@U?$less@V?$basic_string@DU?$char_traits@D@std@@V?$allocator@D@2@@std@@@2@V?$allocator@U?$pair@$$CBV?$basic_string@DU?$char_traits@D@std@@V?$allocator@D@2@@std@@PAVCUser@@@std@@@2@$0A@@std@@@std@@QAE@XZ 0040d3d0 f i User.obj
 0001:0000c400       ?lower_bound@?$_Tree@V?$_Tmap_traits@V?$basic_string@DU?$char_traits@D@std@@V?$allocator@D@2@@std@@PAVCUser@@U?$less@V?$basic_string@DU?$char_traits@D@std@@V?$allocator@D@2@@std@@@2@V?$allocator@U?$pair@$$CBV?$basic_string@DU?$char_traits@D@std@@V?$allocator@D@2@@std@@PAVCUser@@@std@@@2@$0A@@std@@@std@@QAE?AViterator@12@ABV?$basic_string@DU?$char_traits@D@std@@V?$allocator@D@2@@2@@Z 0040d400 f i User.obj
 0001:0000c420       ?upper_bound@?$_Tree@V?$_Tmap_traits@V?$basic_string@DU?$char_traits@D@std@@V?$allocator@D@2@@std@@PAVCUser@@U?$less@V?$basic_string@DU?$char_traits@D@std@@V?$allocator@D@2@@std@@@2@V?$allocator@U?$pair@$$CBV?$basic_string@DU?$char_traits@D@std@@V?$allocator@D@2@@std@@PAVCUser@@@std@@@2@$0A@@std@@@std@@QAE?AViterator@12@ABV?$basic_string@DU?$char_traits@D@std@@V?$allocator@D@2@@2@@Z 0040d420 f i User.obj
 0001:0000c440       ??_G_Node@?$_Tree_nod@V?$_Tmap_traits@V?$basic_string@DU?$char_traits@D@std@@V?$allocator@D@2@@std@@PAVCUser@@U?$less@V?$basic_string@DU?$char_traits@D@std@@V?$allocator@D@2@@std@@@2@V?$allocator@U?$pair@$$CBV?$basic_string@DU?$char_traits@D@std@@V?$allocator@D@2@@std@@PAVCUser@@@std@@@2@$0A@@std@@@std@@QAEPAXI@Z 0040d440 f i User.obj
 0001:0000c460       ?find@?$_Tree@V?$_Tmap_traits@V?$basic_string@DU?$char_traits@D@std@@V?$allocator@D@2@@std@@PAVCUser@@U?$less@V?$basic_string@DU?$char_traits@D@std@@V?$allocator@D@2@@std@@@2@V?$allocator@U?$pair@$$CBV?$basic_string@DU?$char_traits@D@std@@V?$allocator@D@2@@std@@PAVCUser@@@std@@@2@$0A@@std@@@std@@QAE?AViterator@12@ABV?$basic_string@DU?$char_traits@D@std@@V?$allocator@D@2@@2@@Z 0040d460 f i User.obj
 0001:0000c4d0       ??0?$pair@$$CBV?$basic_string@DU?$char_traits@D@std@@V?$allocator@D@2@@std@@PAVCUser@@@std@@QAE@ABV?$basic_string@DU?$char_traits@D@std@@V?$allocator@D@2@@1@ABQAVCUser@@@Z 0040d4d0 f i User.obj
 0001:0000c500       ?equal_range@?$_Tree@V?$_Tmap_traits@V?$basic_string@DU?$char_traits@D@std@@V?$allocator@D@2@@std@@PAVCUser@@U?$less@V?$basic_string@DU?$char_traits@D@std@@V?$allocator@D@2@@std@@@2@V?$allocator@U?$pair@$$CBV?$basic_string@DU?$char_traits@D@std@@V?$allocator@D@2@@std@@PAVCUser@@@std@@@2@$0A@@std@@@std@@QAE?AU?$pair@Viterator@?$_Tree@V?$_Tmap_traits@V?$basic_string@DU?$char_traits@D@std@@V?$allocator@D@2@@std@@PAVCUser@@U?$less@V?$basic_string@DU?$char_traits@D@std@@V?$allocator@D@2@@std@@@2@V?$allocator@U?$pair@$$CBV?$basic_string@DU?$char_traits@D@std@@V?$allocator@D@2@@std@@PAVCUser@@@std@@@2@$0A@@std@@@std@@V123@@2@ABV?$basic_string@DU?$char_traits@D@std@@V?$allocator@D@2@@2@@Z 0040d500 f i User.obj
 0001:0000c530       ??0?$pair@$$CBV?$basic_string@DU?$char_traits@D@std@@V?$allocator@D@2@@std@@PAVCUser@@@std@@QAE@ABU01@@Z 0040d530 f i User.obj
 0001:0000c560       ??$_Destroy@U_Node@?$_Tree_nod@V?$_Tmap_traits@V?$basic_string@DU?$char_traits@D@std@@V?$allocator@D@2@@std@@PAVCUser@@U?$less@V?$basic_string@DU?$char_traits@D@std@@V?$allocator@D@2@@std@@@2@V?$allocator@U?$pair@$$CBV?$basic_string@DU?$char_traits@D@std@@V?$allocator@D@2@@std@@PAVCUser@@@std@@@2@$0A@@std@@@std@@@std@@YAXPAU_Node@?$_Tree_nod@V?$_Tmap_traits@V?$basic_string@DU?$char_traits@D@std@@V?$allocator@D@2@@std@@PAVCUser@@U?$less@V?$basic_string@DU?$char_traits@D@std@@V?$allocator@D@2@@std@@@2@V?$allocator@U?$pair@$$CBV?$basic_string@DU?$char_traits@D@std@@V?$allocator@D@2@@std@@PAVCUser@@@std@@@2@$0A@@std@@@0@@Z 0040d560 f i User.obj
 0001:0000c570       ?GetUser@CUserMng@@QAEPAVCUser@@PBD@Z 0040d570 f   User.obj
 0001:0000c630       ?erase@?$_Tree@V?$_Tmap_traits@KPAVCUser@@U?$less@K@std@@V?$allocator@U?$pair@$$CBKPAVCUser@@@std@@@3@$0A@@std@@@std@@QAE?AViterator@12@V312@@Z 0040d630 f i User.obj
 0001:0000c8f0       ?_Insert@?$_Tree@V?$_Tmap_traits@KPAVCUser@@U?$less@K@std@@V?$allocator@U?$pair@$$CBKPAVCUser@@@std@@@3@$0A@@std@@@std@@IAE?AViterator@12@_NPAU_Node@?$_Tree_nod@V?$_Tmap_traits@KPAVCUser@@U?$less@K@std@@V?$allocator@U?$pair@$$CBKPAVCUser@@@std@@@3@$0A@@std@@@2@ABU?$pair@$$CBKPAVCUser@@@2@@Z 0040d8f0 f i User.obj
 0001:0000caa0       ?erase@?$_Tree@V?$_Tmap_traits@KPAVCUser@@U?$less@K@std@@V?$allocator@U?$pair@$$CBKPAVCUser@@@std@@@3@$0A@@std@@@std@@QAE?AViterator@12@V312@0@Z 0040daa0 f i User.obj
 0001:0000cb60       ?destroy@?$allocator@U_Node@?$_Tree_nod@V?$_Tmap_traits@V?$basic_string@DU?$char_traits@D@std@@V?$allocator@D@2@@std@@PAVCUser@@U?$less@V?$basic_string@DU?$char_traits@D@std@@V?$allocator@D@2@@std@@@2@V?$allocator@U?$pair@$$CBV?$basic_string@DU?$char_traits@D@std@@V?$allocator@D@2@@std@@PAVCUser@@@std@@@2@$0A@@std@@@std@@@std@@QAEXPAU_Node@?$_Tree_nod@V?$_Tmap_traits@V?$basic_string@DU?$char_traits@D@std@@V?$allocator@D@2@@std@@PAVCUser@@U?$less@V?$basic_string@DU?$char_traits@D@std@@V?$allocator@D@2@@std@@@2@V?$allocator@U?$pair@$$CBV?$basic_string@DU?$char_traits@D@std@@V?$allocator@D@2@@std@@PAVCUser@@@std@@@2@$0A@@std@@@2@@Z 0040db60 f i User.obj
 0001:0000cb70       ??0_Node@?$_Tree_nod@V?$_Tmap_traits@V?$basic_string@DU?$char_traits@D@std@@V?$allocator@D@2@@std@@PAVCUser@@U?$less@V?$basic_string@DU?$char_traits@D@std@@V?$allocator@D@2@@std@@@2@V?$allocator@U?$pair@$$CBV?$basic_string@DU?$char_traits@D@std@@V?$allocator@D@2@@std@@PAVCUser@@@std@@@2@$0A@@std@@@std@@QAE@PAU012@00ABU?$pair@$$CBV?$basic_string@DU?$char_traits@D@std@@V?$allocator@D@2@@std@@PAVCUser@@@2@D@Z 0040db70 f i User.obj
 0001:0000cbd0       ?insert@?$_Tree@V?$_Tmap_traits@KPAVCUser@@U?$less@K@std@@V?$allocator@U?$pair@$$CBKPAVCUser@@@std@@@3@$0A@@std@@@std@@QAE?AU?$pair@Viterator@?$_Tree@V?$_Tmap_traits@KPAVCUser@@U?$less@K@std@@V?$allocator@U?$pair@$$CBKPAVCUser@@@std@@@3@$0A@@std@@@std@@_N@2@ABU?$pair@$$CBKPAVCUser@@@2@@Z 0040dbd0 f i User.obj
 0001:0000cc90       ?_Tidy@?$_Tree@V?$_Tmap_traits@KPAVCUser@@U?$less@K@std@@V?$allocator@U?$pair@$$CBKPAVCUser@@@std@@@3@$0A@@std@@@std@@IAEXXZ 0040dc90 f i User.obj
 0001:0000ccc0       ?_Erase@?$_Tree@V?$_Tmap_traits@V?$basic_string@DU?$char_traits@D@std@@V?$allocator@D@2@@std@@PAVCUser@@U?$less@V?$basic_string@DU?$char_traits@D@std@@V?$allocator@D@2@@std@@@2@V?$allocator@U?$pair@$$CBV?$basic_string@DU?$char_traits@D@std@@V?$allocator@D@2@@std@@PAVCUser@@@std@@@2@$0A@@std@@@std@@IAEXPAU_Node@?$_Tree_nod@V?$_Tmap_traits@V?$basic_string@DU?$char_traits@D@std@@V?$allocator@D@2@@std@@PAVCUser@@U?$less@V?$basic_string@DU?$char_traits@D@std@@V?$allocator@D@2@@std@@@2@V?$allocator@U?$pair@$$CBV?$basic_string@DU?$char_traits@D@std@@V?$allocator@D@2@@std@@PAVCUser@@@std@@@2@$0A@@std@@@2@@Z 0040dcc0 f i User.obj
 0001:0000cd00       ?erase@?$_Tree@V?$_Tmap_traits@V?$basic_string@DU?$char_traits@D@std@@V?$allocator@D@2@@std@@PAVCUser@@U?$less@V?$basic_string@DU?$char_traits@D@std@@V?$allocator@D@2@@std@@@2@V?$allocator@U?$pair@$$CBV?$basic_string@DU?$char_traits@D@std@@V?$allocator@D@2@@std@@PAVCUser@@@std@@@2@$0A@@std@@@std@@QAE?AViterator@12@V312@@Z 0040dd00 f i User.obj
 0001:0000cfe0       ?_Buynode@?$_Tree@V?$_Tmap_traits@V?$basic_string@DU?$char_traits@D@std@@V?$allocator@D@2@@std@@PAVCUser@@U?$less@V?$basic_string@DU?$char_traits@D@std@@V?$allocator@D@2@@std@@@2@V?$allocator@U?$pair@$$CBV?$basic_string@DU?$char_traits@D@std@@V?$allocator@D@2@@std@@PAVCUser@@@std@@@2@$0A@@std@@@std@@IAEPAU_Node@?$_Tree_nod@V?$_Tmap_traits@V?$basic_string@DU?$char_traits@D@std@@V?$allocator@D@2@@std@@PAVCUser@@U?$less@V?$basic_string@DU?$char_traits@D@std@@V?$allocator@D@2@@std@@@2@V?$allocator@U?$pair@$$CBV?$basic_string@DU?$char_traits@D@std@@V?$allocator@D@2@@std@@PAVCUser@@@std@@@2@$0A@@std@@@2@PAU342@00ABU?$pair@$$CBV?$basic_string@DU?$char_traits@D@std@@V?$allocator@D@2@@std@@PAVCUser@@@2@D@Z 0040dfe0 f i User.obj
 0001:0000d070       ?AddUser@CUserMng@@QAEHKPAVCUser@@@Z 0040e070 f   User.obj
 0001:0000d140       ??1?$_Tree@V?$_Tmap_traits@KPAVCUser@@U?$less@K@std@@V?$allocator@U?$pair@$$CBKPAVCUser@@@std@@@3@$0A@@std@@@std@@QAE@XZ 0040e140 f i User.obj
 0001:0000d170       ?clear@?$_Tree@V?$_Tmap_traits@V?$basic_string@DU?$char_traits@D@std@@V?$allocator@D@2@@std@@PAVCUser@@U?$less@V?$basic_string@DU?$char_traits@D@std@@V?$allocator@D@2@@std@@@2@V?$allocator@U?$pair@$$CBV?$basic_string@DU?$char_traits@D@std@@V?$allocator@D@2@@std@@PAVCUser@@@std@@@2@$0A@@std@@@std@@QAEXXZ 0040e170 f i User.obj
 0001:0000d1a0       ?erase@?$_Tree@V?$_Tmap_traits@V?$basic_string@DU?$char_traits@D@std@@V?$allocator@D@2@@std@@PAVCUser@@U?$less@V?$basic_string@DU?$char_traits@D@std@@V?$allocator@D@2@@std@@@2@V?$allocator@U?$pair@$$CBV?$basic_string@DU?$char_traits@D@std@@V?$allocator@D@2@@std@@PAVCUser@@@std@@@2@$0A@@std@@@std@@QAE?AViterator@12@V312@0@Z 0040e1a0 f i User.obj
 0001:0000d260       ?_Insert@?$_Tree@V?$_Tmap_traits@V?$basic_string@DU?$char_traits@D@std@@V?$allocator@D@2@@std@@PAVCUser@@U?$less@V?$basic_string@DU?$char_traits@D@std@@V?$allocator@D@2@@std@@@2@V?$allocator@U?$pair@$$CBV?$basic_string@DU?$char_traits@D@std@@V?$allocator@D@2@@std@@PAVCUser@@@std@@@2@$0A@@std@@@std@@IAE?AViterator@12@_NPAU_Node@?$_Tree_nod@V?$_Tmap_traits@V?$basic_string@DU?$char_traits@D@std@@V?$allocator@D@2@@std@@PAVCUser@@U?$less@V?$basic_string@DU?$char_traits@D@std@@V?$allocator@D@2@@std@@@2@V?$allocator@U?$pair@$$CBV?$basic_string@DU?$char_traits@D@std@@V?$allocator@D@2@@std@@PAVCUser@@@std@@@2@$0A@@std@@@2@ABU?$pair@$$CBV?$basic_string@DU?$char_traits@D@std@@V?$allocator@D@2@@std@@PAVCUser@@@2@@Z 0040e260 f i User.obj
 0001:0000d410       ?_Tidy@?$_Tree@V?$_Tmap_traits@V?$basic_string@DU?$char_traits@D@std@@V?$allocator@D@2@@std@@PAVCUser@@U?$less@V?$basic_string@DU?$char_traits@D@std@@V?$allocator@D@2@@std@@@2@V?$allocator@U?$pair@$$CBV?$basic_string@DU?$char_traits@D@std@@V?$allocator@D@2@@std@@PAVCUser@@@std@@@2@$0A@@std@@@std@@IAEXXZ 0040e410 f i User.obj
 0001:0000d440       ??1?$map@KPAVCUser@@U?$less@K@std@@V?$allocator@U?$pair@$$CBKPAVCUser@@@std@@@3@@std@@QAE@XZ 0040e440 f i User.obj
 0001:0000d470       ?Free@CUserMng@@QAEXXZ     0040e470 f   User.obj
 0001:0000d570       ??0?$map@KPAVCUser@@U?$less@K@std@@V?$allocator@U?$pair@$$CBKPAVCUser@@@std@@@3@@std@@QAE@XZ 0040e570 f i User.obj
 0001:0000d5a0       ??1?$_Tree@V?$_Tmap_traits@V?$basic_string@DU?$char_traits@D@std@@V?$allocator@D@2@@std@@PAVCUser@@U?$less@V?$basic_string@DU?$char_traits@D@std@@V?$allocator@D@2@@std@@@2@V?$allocator@U?$pair@$$CBV?$basic_string@DU?$char_traits@D@std@@V?$allocator@D@2@@std@@PAVCUser@@@std@@@2@$0A@@std@@@std@@QAE@XZ 0040e5a0 f i User.obj
 0001:0000d5d0       ?insert@?$_Tree@V?$_Tmap_traits@V?$basic_string@DU?$char_traits@D@std@@V?$allocator@D@2@@std@@PAVCUser@@U?$less@V?$basic_string@DU?$char_traits@D@std@@V?$allocator@D@2@@std@@@2@V?$allocator@U?$pair@$$CBV?$basic_string@DU?$char_traits@D@std@@V?$allocator@D@2@@std@@PAVCUser@@@std@@@2@$0A@@std@@@std@@QAE?AU?$pair@Viterator@?$_Tree@V?$_Tmap_traits@V?$basic_string@DU?$char_traits@D@std@@V?$allocator@D@2@@std@@PAVCUser@@U?$less@V?$basic_string@DU?$char_traits@D@std@@V?$allocator@D@2@@std@@@2@V?$allocator@U?$pair@$$CBV?$basic_string@DU?$char_traits@D@std@@V?$allocator@D@2@@std@@PAVCUser@@@std@@@2@$0A@@std@@@std@@_N@2@ABU?$pair@$$CBV?$basic_string@DU?$char_traits@D@std@@V?$allocator@D@2@@std@@PAVCUser@@@2@@Z 0040e5d0 f i User.obj
 0001:0000d750       ?erase@?$_Tree@V?$_Tmap_traits@V?$basic_string@DU?$char_traits@D@std@@V?$allocator@D@2@@std@@PAVCUser@@U?$less@V?$basic_string@DU?$char_traits@D@std@@V?$allocator@D@2@@std@@@2@V?$allocator@U?$pair@$$CBV?$basic_string@DU?$char_traits@D@std@@V?$allocator@D@2@@std@@PAVCUser@@@std@@@2@$0A@@std@@@std@@QAEIABV?$basic_string@DU?$char_traits@D@std@@V?$allocator@D@2@@2@@Z 0040e750 f i User.obj
 0001:0000d7a0       ??1?$map@V?$basic_string@DU?$char_traits@D@std@@V?$allocator@D@2@@std@@PAVCUser@@U?$less@V?$basic_string@DU?$char_traits@D@std@@V?$allocator@D@2@@std@@@2@V?$allocator@U?$pair@$$CBV?$basic_string@DU?$char_traits@D@std@@V?$allocator@D@2@@std@@PAVCUser@@@std@@@2@@std@@QAE@XZ 0040e7a0 f i User.obj
 0001:0000d7d0       ??1CUserMng@@UAE@XZ        0040e7d0 f   User.obj
 0001:0000d890       ?AddUser@CUserMng@@QAEHPBDPAVCUser@@@Z 0040e890 f   User.obj
 0001:0000d990       ?RemoveUser@CUserMng@@QAEHK@Z 0040e990 f   User.obj
 0001:0000db20       ??0?$MemPooler@VCUser@@@@QAE@H@Z 0040eb20 f i User.obj
 0001:0000dba0       ??0?$map@V?$basic_string@DU?$char_traits@D@std@@V?$allocator@D@2@@std@@PAVCUser@@U?$less@V?$basic_string@DU?$char_traits@D@std@@V?$allocator@D@2@@std@@@2@V?$allocator@U?$pair@$$CBV?$basic_string@DU?$char_traits@D@std@@V?$allocator@D@2@@std@@PAVCUser@@@std@@@2@@std@@QAE@XZ 0040eba0 f i User.obj
 0001:0000dbd0       ??0CUserMng@@QAE@XZ        0040ebd0 f   User.obj
 0001:0000dc70       ??_ECUserMng@@UAEPAXI@Z    0040ec70 f i User.obj
 0001:0000dc70       ??_GCUserMng@@UAEPAXI@Z    0040ec70 f i User.obj
 0001:0000dc90       ?IsStoring@CAr@@QBEHXZ     0040ec90 f i ar.obj
 0001:0000dca0       ??0CAr@@QAE@PAXI@Z         0040eca0 f   ar.obj
 0001:0000dcf0       ??1CAr@@QAE@XZ             0040ecf0 f   ar.obj
 0001:0000dd20       ?Read@CAr@@QAEXPAXI@Z      0040ed20 f   ar.obj
 0001:0000dd80       ?Reserve@CAr@@QAEXI@Z      0040ed80 f   ar.obj
 0001:0000ddb0       ?CheckBuf@CAr@@QAEXI@Z     0040edb0 f   ar.obj
 0001:0000de40       ?GetBuffer@CAr@@QAEPAEPAH@Z 0040ee40 f   ar.obj
 0001:0000de60       ?Flush@CAr@@QAEXXZ         0040ee60 f   ar.obj
 0001:0000de70       ?ReelIn@CAr@@QAEXI@Z       0040ee70 f   ar.obj
 0001:0000deb0       ?Write@CAr@@QAEXPBXI@Z     0040eeb0 f   ar.obj
 0001:0000def0       ?ReadString@CAr@@QAEPADPAD@Z 0040eef0 f   ar.obj
 0001:0000df30       ?ReadString@CAr@@QAEPADPADH@Z 0040ef30 f   ar.obj
 0001:0000dfa0       ?WriteString@CAr@@QAEXPBD@Z 0040efa0 f   ar.obj
 0001:0000e000       ?Free@?$MemPooler@U_CONNECTIONREQUEST2@@@@QAEHPAU_CONNECTIONREQUEST2@@@Z 0040f000 f i dos2.obj
 0001:0000e050       ??0?$pair@$$CBKPAU_CONNECTIONREQUEST2@@@std@@QAE@ABKABQAU_CONNECTIONREQUEST2@@@Z 0040f050 f i dos2.obj
 0001:0000e070       ?_Isnil@?$_Tree@V?$_Tmap_traits@KPAU_CONNECTIONREQUEST2@@U?$less@K@std@@V?$allocator@U?$pair@$$CBKPAU_CONNECTIONREQUEST2@@@std@@@3@$0A@@std@@@std@@KAAADPAU_Node@?$_Tree_nod@V?$_Tmap_traits@KPAU_CONNECTIONREQUEST2@@U?$less@K@std@@V?$allocator@U?$pair@$$CBKPAU_CONNECTIONREQUEST2@@@std@@@3@$0A@@std@@@2@@Z 0040f070 f i dos2.obj
 0001:0000e080       ?_Left@?$_Tree@V?$_Tmap_traits@KPAU_CONNECTIONREQUEST2@@U?$less@K@std@@V?$allocator@U?$pair@$$CBKPAU_CONNECTIONREQUEST2@@@std@@@3@$0A@@std@@@std@@KAAAPAU_Node@?$_Tree_nod@V?$_Tmap_traits@KPAU_CONNECTIONREQUEST2@@U?$less@K@std@@V?$allocator@U?$pair@$$CBKPAU_CONNECTIONREQUEST2@@@std@@@3@$0A@@std@@@2@PAU342@@Z 0040f080 f i dos2.obj
 0001:0000e090       ?_Right@?$_Tree@V?$_Tmap_traits@KPAU_CONNECTIONREQUEST2@@U?$less@K@std@@V?$allocator@U?$pair@$$CBKPAU_CONNECTIONREQUEST2@@@std@@@3@$0A@@std@@@std@@KAAAPAU_Node@?$_Tree_nod@V?$_Tmap_traits@KPAU_CONNECTIONREQUEST2@@U?$less@K@std@@V?$allocator@U?$pair@$$CBKPAU_CONNECTIONREQUEST2@@@std@@@3@$0A@@std@@@2@PAU342@@Z 0040f090 f i dos2.obj
 0001:0000e0a0       ?_Lmost@?$_Tree@V?$_Tmap_traits@KPAU_CONNECTIONREQUEST2@@U?$less@K@std@@V?$allocator@U?$pair@$$CBKPAU_CONNECTIONREQUEST2@@@std@@@3@$0A@@std@@@std@@IAEAAPAU_Node@?$_Tree_nod@V?$_Tmap_traits@KPAU_CONNECTIONREQUEST2@@U?$less@K@std@@V?$allocator@U?$pair@$$CBKPAU_CONNECTIONREQUEST2@@@std@@@3@$0A@@std@@@2@XZ 0040f0a0 f i dos2.obj
 0001:0000e0b0       ?_Rmost@?$_Tree@V?$_Tmap_traits@KPAU_CONNECTIONREQUEST2@@U?$less@K@std@@V?$allocator@U?$pair@$$CBKPAU_CONNECTIONREQUEST2@@@std@@@3@$0A@@std@@@std@@IAEAAPAU_Node@?$_Tree_nod@V?$_Tmap_traits@KPAU_CONNECTIONREQUEST2@@U?$less@K@std@@V?$allocator@U?$pair@$$CBKPAU_CONNECTIONREQUEST2@@@std@@@3@$0A@@std@@@2@XZ 0040f0b0 f i dos2.obj
 0001:0000e0c0       ?_Kfn@?$_Tmap_traits@KPAU_CONNECTIONREQUEST2@@U?$less@K@std@@V?$allocator@U?$pair@$$CBKPAU_CONNECTIONREQUEST2@@@std@@@3@$0A@@std@@SAABKABU?$pair@$$CBKPAU_CONNECTIONREQUEST2@@@2@@Z 0040f0c0 f i dos2.obj
 0001:0000e0d0       ??0?$allocator@U?$pair@$$CBKPAU_CONNECTIONREQUEST2@@@std@@@std@@QAE@XZ 0040f0d0 f i dos2.obj
 0001:0000e0e0       ??8const_iterator@?$_Tree@V?$_Tmap_traits@KPAU_CONNECTIONREQUEST2@@U?$less@K@std@@V?$allocator@U?$pair@$$CBKPAU_CONNECTIONREQUEST2@@@std@@@3@$0A@@std@@@std@@QBE_NABV012@@Z 0040f0e0 f i dos2.obj
 0001:0000e0f0       ?_Mynode@const_iterator@?$_Tree@V?$_Tmap_traits@KPAU_CONNECTIONREQUEST2@@U?$less@K@std@@V?$allocator@U?$pair@$$CBKPAU_CONNECTIONREQUEST2@@@std@@@3@$0A@@std@@@std@@QBEPAU_Node@?$_Tree_nod@V?$_Tmap_traits@KPAU_CONNECTIONREQUEST2@@U?$less@K@std@@V?$allocator@U?$pair@$$CBKPAU_CONNECTIONREQUEST2@@@std@@@3@$0A@@std@@@3@XZ 0040f0f0 f i dos2.obj
 0001:0000e100       ??0?$pair@Viterator@?$_Tree@V?$_Tmap_traits@KPAU_CONNECTIONREQUEST2@@U?$less@K@std@@V?$allocator@U?$pair@$$CBKPAU_CONNECTIONREQUEST2@@@std@@@3@$0A@@std@@@std@@_N@std@@QAE@ABViterator@?$_Tree@V?$_Tmap_traits@KPAU_CONNECTIONREQUEST2@@U?$less@K@std@@V?$allocator@U?$pair@$$CBKPAU_CONNECTIONREQUEST2@@@std@@@3@$0A@@std@@@1@AB_N@Z 0040f100 f i dos2.obj
 0001:0000e120       ?_Color@?$_Tree@V?$_Tmap_traits@KPAU_CONNECTIONREQUEST2@@U?$less@K@std@@V?$allocator@U?$pair@$$CBKPAU_CONNECTIONREQUEST2@@@std@@@3@$0A@@std@@@std@@KAAADPAU_Node@?$_Tree_nod@V?$_Tmap_traits@KPAU_CONNECTIONREQUEST2@@U?$less@K@std@@V?$allocator@U?$pair@$$CBKPAU_CONNECTIONREQUEST2@@@std@@@3@$0A@@std@@@2@@Z 0040f120 f i dos2.obj
 0001:0000e130       ?_Parent@?$_Tree@V?$_Tmap_traits@KPAU_CONNECTIONREQUEST2@@U?$less@K@std@@V?$allocator@U?$pair@$$CBKPAU_CONNECTIONREQUEST2@@@std@@@3@$0A@@std@@@std@@KAAAPAU_Node@?$_Tree_nod@V?$_Tmap_traits@KPAU_CONNECTIONREQUEST2@@U?$less@K@std@@V?$allocator@U?$pair@$$CBKPAU_CONNECTIONREQUEST2@@@std@@@3@$0A@@std@@@2@PAU342@@Z 0040f130 f i dos2.obj
 0001:0000e140       ?_Myval@?$_Tree@V?$_Tmap_traits@KPAU_CONNECTIONREQUEST2@@U?$less@K@std@@V?$allocator@U?$pair@$$CBKPAU_CONNECTIONREQUEST2@@@std@@@3@$0A@@std@@@std@@KAAAU?$pair@$$CBKPAU_CONNECTIONREQUEST2@@@2@PAU_Node@?$_Tree_nod@V?$_Tmap_traits@KPAU_CONNECTIONREQUEST2@@U?$less@K@std@@V?$allocator@U?$pair@$$CBKPAU_CONNECTIONREQUEST2@@@std@@@3@$0A@@std@@@2@@Z 0040f140 f i dos2.obj
 0001:0000e150       ??0?$allocator@U?$pair@$$CBKPAU_CONNECTIONREQUEST2@@@std@@@std@@QAE@ABV01@@Z 0040f150 f i dos2.obj
 0001:0000e160       ?deallocate@?$allocator@U_Node@?$_Tree_nod@V?$_Tmap_traits@KPAU_CONNECTIONREQUEST2@@U?$less@K@std@@V?$allocator@U?$pair@$$CBKPAU_CONNECTIONREQUEST2@@@std@@@3@$0A@@std@@@std@@@std@@QAEXPAU_Node@?$_Tree_nod@V?$_Tmap_traits@KPAU_CONNECTIONREQUEST2@@U?$less@K@std@@V?$allocator@U?$pair@$$CBKPAU_CONNECTIONREQUEST2@@@std@@@3@$0A@@std@@@2@I@Z 0040f160 f i dos2.obj
 0001:0000e170       ??0const_iterator@?$_Tree@V?$_Tmap_traits@KPAU_CONNECTIONREQUEST2@@U?$less@K@std@@V?$allocator@U?$pair@$$CBKPAU_CONNECTIONREQUEST2@@@std@@@3@$0A@@std@@@std@@QAE@PAU_Node@?$_Tree_nod@V?$_Tmap_traits@KPAU_CONNECTIONREQUEST2@@U?$less@K@std@@V?$allocator@U?$pair@$$CBKPAU_CONNECTIONREQUEST2@@@std@@@3@$0A@@std@@@2@@Z 0040f170 f i dos2.obj
 0001:0000e180       ??Dconst_iterator@?$_Tree@V?$_Tmap_traits@KPAU_CONNECTIONREQUEST2@@U?$less@K@std@@V?$allocator@U?$pair@$$CBKPAU_CONNECTIONREQUEST2@@@std@@@3@$0A@@std@@@std@@QBEABU?$pair@$$CBKPAU_CONNECTIONREQUEST2@@@2@XZ 0040f180 f i dos2.obj
 0001:0000e190       ?_Min@?$_Tree@V?$_Tmap_traits@KPAU_CONNECTIONREQUEST2@@U?$less@K@std@@V?$allocator@U?$pair@$$CBKPAU_CONNECTIONREQUEST2@@@std@@@3@$0A@@std@@@std@@KAPAU_Node@?$_Tree_nod@V?$_Tmap_traits@KPAU_CONNECTIONREQUEST2@@U?$less@K@std@@V?$allocator@U?$pair@$$CBKPAU_CONNECTIONREQUEST2@@@std@@@3@$0A@@std@@@2@PAU342@@Z 0040f190 f i dos2.obj
 0001:0000e1b0       ?_Root@?$_Tree@V?$_Tmap_traits@KPAU_CONNECTIONREQUEST2@@U?$less@K@std@@V?$allocator@U?$pair@$$CBKPAU_CONNECTIONREQUEST2@@@std@@@3@$0A@@std@@@std@@IBEAAPAU_Node@?$_Tree_nod@V?$_Tmap_traits@KPAU_CONNECTIONREQUEST2@@U?$less@K@std@@V?$allocator@U?$pair@$$CBKPAU_CONNECTIONREQUEST2@@@std@@@3@$0A@@std@@@2@XZ 0040f1b0 f i dos2.obj
 0001:0000e1c0       ?max_size@?$allocator@U?$pair@$$CBKPAU_CONNECTIONREQUEST2@@@std@@@std@@QBEIXZ 0040f1c0 f i dos2.obj
 0001:0000e1d0       ??0_Node@?$_Tree_nod@V?$_Tmap_traits@KPAU_CONNECTIONREQUEST2@@U?$less@K@std@@V?$allocator@U?$pair@$$CBKPAU_CONNECTIONREQUEST2@@@std@@@3@$0A@@std@@@std@@QAE@PAU012@00ABU?$pair@$$CBKPAU_CONNECTIONREQUEST2@@@2@D@Z 0040f1d0 f i dos2.obj
 0001:0000e210       ?_Max@?$_Tree@V?$_Tmap_traits@KPAU_CONNECTIONREQUEST2@@U?$less@K@std@@V?$allocator@U?$pair@$$CBKPAU_CONNECTIONREQUEST2@@@std@@@3@$0A@@std@@@std@@KAPAU_Node@?$_Tree_nod@V?$_Tmap_traits@KPAU_CONNECTIONREQUEST2@@U?$less@K@std@@V?$allocator@U?$pair@$$CBKPAU_CONNECTIONREQUEST2@@@std@@@3@$0A@@std@@@2@PAU342@@Z 0040f210 f i dos2.obj
 0001:0000e230       ??0?$_Tmap_traits@KPAU_CONNECTIONREQUEST2@@U?$less@K@std@@V?$allocator@U?$pair@$$CBKPAU_CONNECTIONREQUEST2@@@std@@@3@$0A@@std@@QAE@U?$less@K@1@@Z 0040f230 f i dos2.obj
 0001:0000e240       ??$_Destroy@U_Node@?$_Tree_nod@V?$_Tmap_traits@KPAU_CONNECTIONREQUEST2@@U?$less@K@std@@V?$allocator@U?$pair@$$CBKPAU_CONNECTIONREQUEST2@@@std@@@3@$0A@@std@@@std@@@std@@YAXPAU_Node@?$_Tree_nod@V?$_Tmap_traits@KPAU_CONNECTIONREQUEST2@@U?$less@K@std@@V?$allocator@U?$pair@$$CBKPAU_CONNECTIONREQUEST2@@@std@@@3@$0A@@std@@@0@@Z 0040f240 f i dos2.obj
 0001:0000e250       ??$_Destroy@PAU_Node@?$_Tree_nod@V?$_Tmap_traits@KPAU_CONNECTIONREQUEST2@@U?$less@K@std@@V?$allocator@U?$pair@$$CBKPAU_CONNECTIONREQUEST2@@@std@@@3@$0A@@std@@@std@@@std@@YAXPAPAU_Node@?$_Tree_nod@V?$_Tmap_traits@KPAU_CONNECTIONREQUEST2@@U?$less@K@std@@V?$allocator@U?$pair@$$CBKPAU_CONNECTIONREQUEST2@@@std@@@3@$0A@@std@@@0@@Z 0040f250 f i dos2.obj
 0001:0000e260       ??$?0U?$pair@$$CBKPAU_CONNECTIONREQUEST2@@@std@@@?$allocator@PAU_Node@?$_Tree_nod@V?$_Tmap_traits@KPAU_CONNECTIONREQUEST2@@U?$less@K@std@@V?$allocator@U?$pair@$$CBKPAU_CONNECTIONREQUEST2@@@std@@@3@$0A@@std@@@std@@@std@@QAE@ABV?$allocator@U?$pair@$$CBKPAU_CONNECTIONREQUEST2@@@std@@@1@@Z 0040f260 f i dos2.obj
 0001:0000e270       ??$_Allocate@U_Node@?$_Tree_nod@V?$_Tmap_traits@KPAU_CONNECTIONREQUEST2@@U?$less@K@std@@V?$allocator@U?$pair@$$CBKPAU_CONNECTIONREQUEST2@@@std@@@3@$0A@@std@@@std@@@std@@YAPAU_Node@?$_Tree_nod@V?$_Tmap_traits@KPAU_CONNECTIONREQUEST2@@U?$less@K@std@@V?$allocator@U?$pair@$$CBKPAU_CONNECTIONREQUEST2@@@std@@@3@$0A@@std@@@0@IPAU120@@Z 0040f270 f i dos2.obj
 0001:0000e290       ??$?0U?$pair@$$CBKPAU_CONNECTIONREQUEST2@@@std@@@?$allocator@U_Node@?$_Tree_nod@V?$_Tmap_traits@KPAU_CONNECTIONREQUEST2@@U?$less@K@std@@V?$allocator@U?$pair@$$CBKPAU_CONNECTIONREQUEST2@@@std@@@3@$0A@@std@@@std@@@std@@QAE@ABV?$allocator@U?$pair@$$CBKPAU_CONNECTIONREQUEST2@@@std@@@1@@Z 0040f290 f i dos2.obj
 0001:0000e2a0       ??$_Construct@PAU_Node@?$_Tree_nod@V?$_Tmap_traits@KPAU_CONNECTIONREQUEST2@@U?$less@K@std@@V?$allocator@U?$pair@$$CBKPAU_CONNECTIONREQUEST2@@@std@@@3@$0A@@std@@@std@@PAU123@@std@@YAXPAPAU_Node@?$_Tree_nod@V?$_Tmap_traits@KPAU_CONNECTIONREQUEST2@@U?$less@K@std@@V?$allocator@U?$pair@$$CBKPAU_CONNECTIONREQUEST2@@@std@@@3@$0A@@std@@@0@ABQAU120@@Z 0040f2a0 f i dos2.obj
 0001:0000e2c0       ??1CTimer@@UAE@XZ          0040f2c0 f i dos2.obj
 0001:0000e2d0       ?IsTimeOut@CTimer@@QAEHXZ  0040f2d0 f i dos2.obj
 0001:0000e2e0       ??_ECTimer@@UAEPAXI@Z      0040f2e0 f i dos2.obj
 0001:0000e2e0       ??_GCTimer@@UAEPAXI@Z      0040f2e0 f i dos2.obj
 0001:0000e300       ??9const_iterator@?$_Tree@V?$_Tmap_traits@KPAU_CONNECTIONREQUEST2@@U?$less@K@std@@V?$allocator@U?$pair@$$CBKPAU_CONNECTIONREQUEST2@@@std@@@3@$0A@@std@@@std@@QBE_NABV012@@Z 0040f300 f i dos2.obj
 0001:0000e320       ?_Key@?$_Tree@V?$_Tmap_traits@KPAU_CONNECTIONREQUEST2@@U?$less@K@std@@V?$allocator@U?$pair@$$CBKPAU_CONNECTIONREQUEST2@@@std@@@3@$0A@@std@@@std@@KAABKPAU_Node@?$_Tree_nod@V?$_Tmap_traits@KPAU_CONNECTIONREQUEST2@@U?$less@K@std@@V?$allocator@U?$pair@$$CBKPAU_CONNECTIONREQUEST2@@@std@@@3@$0A@@std@@@2@@Z 0040f320 f i dos2.obj
 0001:0000e330       ?_Root@?$_Tree@V?$_Tmap_traits@KPAU_CONNECTIONREQUEST2@@U?$less@K@std@@V?$allocator@U?$pair@$$CBKPAU_CONNECTIONREQUEST2@@@std@@@3@$0A@@std@@@std@@IAEAAPAU_Node@?$_Tree_nod@V?$_Tmap_traits@KPAU_CONNECTIONREQUEST2@@U?$less@K@std@@V?$allocator@U?$pair@$$CBKPAU_CONNECTIONREQUEST2@@@std@@@3@$0A@@std@@@2@XZ 0040f330 f i dos2.obj
 0001:0000e340       ??0iterator@?$_Tree@V?$_Tmap_traits@KPAU_CONNECTIONREQUEST2@@U?$less@K@std@@V?$allocator@U?$pair@$$CBKPAU_CONNECTIONREQUEST2@@@std@@@3@$0A@@std@@@std@@QAE@PAU_Node@?$_Tree_nod@V?$_Tmap_traits@KPAU_CONNECTIONREQUEST2@@U?$less@K@std@@V?$allocator@U?$pair@$$CBKPAU_CONNECTIONREQUEST2@@@std@@@3@$0A@@std@@@2@@Z 0040f340 f i dos2.obj
 0001:0000e350       ??Diterator@?$_Tree@V?$_Tmap_traits@KPAU_CONNECTIONREQUEST2@@U?$less@K@std@@V?$allocator@U?$pair@$$CBKPAU_CONNECTIONREQUEST2@@@std@@@3@$0A@@std@@@std@@QBEAAU?$pair@$$CBKPAU_CONNECTIONREQUEST2@@@2@XZ 0040f350 f i dos2.obj
 0001:0000e360       ?max_size@?$_Tree@V?$_Tmap_traits@KPAU_CONNECTIONREQUEST2@@U?$less@K@std@@V?$allocator@U?$pair@$$CBKPAU_CONNECTIONREQUEST2@@@std@@@3@$0A@@std@@@std@@QBEIXZ 0040f360 f i dos2.obj
 0001:0000e370       ?_Lbound@?$_Tree@V?$_Tmap_traits@KPAU_CONNECTIONREQUEST2@@U?$less@K@std@@V?$allocator@U?$pair@$$CBKPAU_CONNECTIONREQUEST2@@@std@@@3@$0A@@std@@@std@@IBEPAU_Node@?$_Tree_nod@V?$_Tmap_traits@KPAU_CONNECTIONREQUEST2@@U?$less@K@std@@V?$allocator@U?$pair@$$CBKPAU_CONNECTIONREQUEST2@@@std@@@3@$0A@@std@@@2@ABK@Z 0040f370 f i dos2.obj
 0001:0000e3a0       ?_Lrotate@?$_Tree@V?$_Tmap_traits@KPAU_CONNECTIONREQUEST2@@U?$less@K@std@@V?$allocator@U?$pair@$$CBKPAU_CONNECTIONREQUEST2@@@std@@@3@$0A@@std@@@std@@IAEXPAU_Node@?$_Tree_nod@V?$_Tmap_traits@KPAU_CONNECTIONREQUEST2@@U?$less@K@std@@V?$allocator@U?$pair@$$CBKPAU_CONNECTIONREQUEST2@@@std@@@3@$0A@@std@@@2@@Z 0040f3a0 f i dos2.obj
 0001:0000e400       ?_Rrotate@?$_Tree@V?$_Tmap_traits@KPAU_CONNECTIONREQUEST2@@U?$less@K@std@@V?$allocator@U?$pair@$$CBKPAU_CONNECTIONREQUEST2@@@std@@@3@$0A@@std@@@std@@IAEXPAU_Node@?$_Tree_nod@V?$_Tmap_traits@KPAU_CONNECTIONREQUEST2@@U?$less@K@std@@V?$allocator@U?$pair@$$CBKPAU_CONNECTIONREQUEST2@@@std@@@3@$0A@@std@@@2@@Z 0040f400 f i dos2.obj
 0001:0000e460       ?destroy@?$allocator@U_Node@?$_Tree_nod@V?$_Tmap_traits@KPAU_CONNECTIONREQUEST2@@U?$less@K@std@@V?$allocator@U?$pair@$$CBKPAU_CONNECTIONREQUEST2@@@std@@@3@$0A@@std@@@std@@@std@@QAEXPAU_Node@?$_Tree_nod@V?$_Tmap_traits@KPAU_CONNECTIONREQUEST2@@U?$less@K@std@@V?$allocator@U?$pair@$$CBKPAU_CONNECTIONREQUEST2@@@std@@@3@$0A@@std@@@2@@Z 0040f460 f i dos2.obj
 0001:0000e470       ?destroy@?$allocator@PAU_Node@?$_Tree_nod@V?$_Tmap_traits@KPAU_CONNECTIONREQUEST2@@U?$less@K@std@@V?$allocator@U?$pair@$$CBKPAU_CONNECTIONREQUEST2@@@std@@@3@$0A@@std@@@std@@@std@@QAEXPAPAU_Node@?$_Tree_nod@V?$_Tmap_traits@KPAU_CONNECTIONREQUEST2@@U?$less@K@std@@V?$allocator@U?$pair@$$CBKPAU_CONNECTIONREQUEST2@@@std@@@3@$0A@@std@@@2@@Z 0040f470 f i dos2.obj
 0001:0000e480       ?_Inc@const_iterator@?$_Tree@V?$_Tmap_traits@KPAU_CONNECTIONREQUEST2@@U?$less@K@std@@V?$allocator@U?$pair@$$CBKPAU_CONNECTIONREQUEST2@@@std@@@3@$0A@@std@@@std@@QAEXXZ 0040f480 f i dos2.obj
 0001:0000e4e0       ?allocate@?$allocator@U_Node@?$_Tree_nod@V?$_Tmap_traits@KPAU_CONNECTIONREQUEST2@@U?$less@K@std@@V?$allocator@U?$pair@$$CBKPAU_CONNECTIONREQUEST2@@@std@@@3@$0A@@std@@@std@@@std@@QAEPAU_Node@?$_Tree_nod@V?$_Tmap_traits@KPAU_CONNECTIONREQUEST2@@U?$less@K@std@@V?$allocator@U?$pair@$$CBKPAU_CONNECTIONREQUEST2@@@std@@@3@$0A@@std@@@2@I@Z 0040f4e0 f i dos2.obj
 0001:0000e500       ?_Dec@const_iterator@?$_Tree@V?$_Tmap_traits@KPAU_CONNECTIONREQUEST2@@U?$less@K@std@@V?$allocator@U?$pair@$$CBKPAU_CONNECTIONREQUEST2@@@std@@@3@$0A@@std@@@std@@QAEXXZ 0040f500 f i dos2.obj
 0001:0000e560       ??0?$_Tree_nod@V?$_Tmap_traits@KPAU_CONNECTIONREQUEST2@@U?$less@K@std@@V?$allocator@U?$pair@$$CBKPAU_CONNECTIONREQUEST2@@@std@@@3@$0A@@std@@@std@@IAE@ABU?$less@K@1@V?$allocator@U?$pair@$$CBKPAU_CONNECTIONREQUEST2@@@std@@@1@@Z 0040f560 f i dos2.obj
 0001:0000e570       ?construct@?$allocator@PAU_Node@?$_Tree_nod@V?$_Tmap_traits@KPAU_CONNECTIONREQUEST2@@U?$less@K@std@@V?$allocator@U?$pair@$$CBKPAU_CONNECTIONREQUEST2@@@std@@@3@$0A@@std@@@std@@@std@@QAEXPAPAU_Node@?$_Tree_nod@V?$_Tmap_traits@KPAU_CONNECTIONREQUEST2@@U?$less@K@std@@V?$allocator@U?$pair@$$CBKPAU_CONNECTIONREQUEST2@@@std@@@3@$0A@@std@@@2@ABQAU342@@Z 0040f570 f i dos2.obj
 0001:0000e590       ?begin@?$_Tree@V?$_Tmap_traits@KPAU_CONNECTIONREQUEST2@@U?$less@K@std@@V?$allocator@U?$pair@$$CBKPAU_CONNECTIONREQUEST2@@@std@@@3@$0A@@std@@@std@@QAE?AViterator@12@XZ 0040f590 f i dos2.obj
 0001:0000e5a0       ?end@?$_Tree@V?$_Tmap_traits@KPAU_CONNECTIONREQUEST2@@U?$less@K@std@@V?$allocator@U?$pair@$$CBKPAU_CONNECTIONREQUEST2@@@std@@@3@$0A@@std@@@std@@QAE?AViterator@12@XZ 0040f5a0 f i dos2.obj
 0001:0000e5b0       ??Citerator@?$_Tree@V?$_Tmap_traits@KPAU_CONNECTIONREQUEST2@@U?$less@K@std@@V?$allocator@U?$pair@$$CBKPAU_CONNECTIONREQUEST2@@@std@@@3@$0A@@std@@@std@@QBEPAU?$pair@$$CBKPAU_CONNECTIONREQUEST2@@@2@XZ 0040f5b0 f i dos2.obj
 0001:0000e5c0       ?lower_bound@?$_Tree@V?$_Tmap_traits@KPAU_CONNECTIONREQUEST2@@U?$less@K@std@@V?$allocator@U?$pair@$$CBKPAU_CONNECTIONREQUEST2@@@std@@@3@$0A@@std@@@std@@QAE?AViterator@12@ABK@Z 0040f5c0 f i dos2.obj
 0001:0000e600       ?_Erase@?$_Tree@V?$_Tmap_traits@KPAU_CONNECTIONREQUEST2@@U?$less@K@std@@V?$allocator@U?$pair@$$CBKPAU_CONNECTIONREQUEST2@@@std@@@3@$0A@@std@@@std@@IAEXPAU_Node@?$_Tree_nod@V?$_Tmap_traits@KPAU_CONNECTIONREQUEST2@@U?$less@K@std@@V?$allocator@U?$pair@$$CBKPAU_CONNECTIONREQUEST2@@@std@@@3@$0A@@std@@@2@@Z 0040f600 f i dos2.obj
 0001:0000e640       ??Econst_iterator@?$_Tree@V?$_Tmap_traits@KPAU_CONNECTIONREQUEST2@@U?$less@K@std@@V?$allocator@U?$pair@$$CBKPAU_CONNECTIONREQUEST2@@@std@@@3@$0A@@std@@@std@@QAEAAV012@XZ 0040f640 f i dos2.obj
 0001:0000e650       ?_Buynode@?$_Tree@V?$_Tmap_traits@KPAU_CONNECTIONREQUEST2@@U?$less@K@std@@V?$allocator@U?$pair@$$CBKPAU_CONNECTIONREQUEST2@@@std@@@3@$0A@@std@@@std@@IAEPAU_Node@?$_Tree_nod@V?$_Tmap_traits@KPAU_CONNECTIONREQUEST2@@U?$less@K@std@@V?$allocator@U?$pair@$$CBKPAU_CONNECTIONREQUEST2@@@std@@@3@$0A@@std@@@2@PAU342@00ABU?$pair@$$CBKPAU_CONNECTIONREQUEST2@@@2@D@Z 0040f650 f i dos2.obj
 0001:0000e690       ??Fconst_iterator@?$_Tree@V?$_Tmap_traits@KPAU_CONNECTIONREQUEST2@@U?$less@K@std@@V?$allocator@U?$pair@$$CBKPAU_CONNECTIONREQUEST2@@@std@@@3@$0A@@std@@@std@@QAEAAV012@XZ 0040f690 f i dos2.obj
 0001:0000e6a0       ?_Buynode@?$_Tree@V?$_Tmap_traits@KPAU_CONNECTIONREQUEST2@@U?$less@K@std@@V?$allocator@U?$pair@$$CBKPAU_CONNECTIONREQUEST2@@@std@@@3@$0A@@std@@@std@@IAEPAU_Node@?$_Tree_nod@V?$_Tmap_traits@KPAU_CONNECTIONREQUEST2@@U?$less@K@std@@V?$allocator@U?$pair@$$CBKPAU_CONNECTIONREQUEST2@@@std@@@3@$0A@@std@@@2@XZ 0040f6a0 f i dos2.obj
 0001:0000e6e0       ??0?$_Tree_ptr@V?$_Tmap_traits@KPAU_CONNECTIONREQUEST2@@U?$less@K@std@@V?$allocator@U?$pair@$$CBKPAU_CONNECTIONREQUEST2@@@std@@@3@$0A@@std@@@std@@IAE@ABU?$less@K@1@V?$allocator@U?$pair@$$CBKPAU_CONNECTIONREQUEST2@@@std@@@1@@Z 0040f6e0 f i dos2.obj
 0001:0000e6f0       ?clear@?$_Tree@V?$_Tmap_traits@KPAU_CONNECTIONREQUEST2@@U?$less@K@std@@V?$allocator@U?$pair@$$CBKPAU_CONNECTIONREQUEST2@@@std@@@3@$0A@@std@@@std@@QAEXXZ 0040f6f0 f i dos2.obj
 0001:0000e720       ?find@?$_Tree@V?$_Tmap_traits@KPAU_CONNECTIONREQUEST2@@U?$less@K@std@@V?$allocator@U?$pair@$$CBKPAU_CONNECTIONREQUEST2@@@std@@@3@$0A@@std@@@std@@QAE?AViterator@12@ABK@Z 0040f720 f i dos2.obj
 0001:0000e790       ??Eiterator@?$_Tree@V?$_Tmap_traits@KPAU_CONNECTIONREQUEST2@@U?$less@K@std@@V?$allocator@U?$pair@$$CBKPAU_CONNECTIONREQUEST2@@@std@@@3@$0A@@std@@@std@@QAEAAV012@XZ 0040f790 f i dos2.obj
 0001:0000e7a0       ?Destroy@?$MemPooler@U_CONNECTIONREQUEST2@@@@IAEXXZ 0040f7a0 f i dos2.obj
 0001:0000e810       ??Fiterator@?$_Tree@V?$_Tmap_traits@KPAU_CONNECTIONREQUEST2@@U?$less@K@std@@V?$allocator@U?$pair@$$CBKPAU_CONNECTIONREQUEST2@@@std@@@3@$0A@@std@@@std@@QAEAAV012@XZ 0040f810 f i dos2.obj
 0001:0000e820       ?_Init@?$_Tree@V?$_Tmap_traits@KPAU_CONNECTIONREQUEST2@@U?$less@K@std@@V?$allocator@U?$pair@$$CBKPAU_CONNECTIONREQUEST2@@@std@@@3@$0A@@std@@@std@@IAEXXZ 0040f820 f i dos2.obj
 0001:0000e850       ??0?$_Tree_val@V?$_Tmap_traits@KPAU_CONNECTIONREQUEST2@@U?$less@K@std@@V?$allocator@U?$pair@$$CBKPAU_CONNECTIONREQUEST2@@@std@@@3@$0A@@std@@@std@@IAE@ABU?$less@K@1@V?$allocator@U?$pair@$$CBKPAU_CONNECTIONREQUEST2@@@std@@@1@@Z 0040f850 f i dos2.obj
 0001:0000e860       ??Eiterator@?$_Tree@V?$_Tmap_traits@KPAU_CONNECTIONREQUEST2@@U?$less@K@std@@V?$allocator@U?$pair@$$CBKPAU_CONNECTIONREQUEST2@@@std@@@3@$0A@@std@@@std@@QAE?AV012@H@Z 0040f860 f i dos2.obj
 0001:0000e880       ?Get@CDos2@@AAEPAU_CONNECTIONREQUEST2@@K@Z 0040f880 f   dos2.obj
 0001:0000e8b0       ?Release@CDos2@@AAEXXZ     0040f8b0 f   dos2.obj
 0001:0000e930       ??1?$MemPooler@U_CONNECTIONREQUEST2@@@@QAE@XZ 0040f930 f i dos2.obj
 0001:0000e960       ??0?$_Tree@V?$_Tmap_traits@KPAU_CONNECTIONREQUEST2@@U?$less@K@std@@V?$allocator@U?$pair@$$CBKPAU_CONNECTIONREQUEST2@@@std@@@3@$0A@@std@@@std@@QAE@ABU?$less@K@1@ABV?$allocator@U?$pair@$$CBKPAU_CONNECTIONREQUEST2@@@std@@@1@@Z 0040f960 f i dos2.obj
 0001:0000e990       ??_G?$MemPooler@U_CONNECTIONREQUEST2@@@@QAEPAXI@Z 0040f990 f i dos2.obj
 0001:0000e9b0       ?_Insert@?$_Tree@V?$_Tmap_traits@KPAU_CONNECTIONREQUEST2@@U?$less@K@std@@V?$allocator@U?$pair@$$CBKPAU_CONNECTIONREQUEST2@@@std@@@3@$0A@@std@@@std@@IAE?AViterator@12@_NPAU_Node@?$_Tree_nod@V?$_Tmap_traits@KPAU_CONNECTIONREQUEST2@@U?$less@K@std@@V?$allocator@U?$pair@$$CBKPAU_CONNECTIONREQUEST2@@@std@@@3@$0A@@std@@@2@ABU?$pair@$$CBKPAU_CONNECTIONREQUEST2@@@2@@Z 0040f9b0 f i dos2.obj
 0001:0000eb60       ?erase@?$_Tree@V?$_Tmap_traits@KPAU_CONNECTIONREQUEST2@@U?$less@K@std@@V?$allocator@U?$pair@$$CBKPAU_CONNECTIONREQUEST2@@@std@@@3@$0A@@std@@@std@@QAE?AViterator@12@V312@@Z 0040fb60 f i dos2.obj
 0001:0000ee20       ?insert@?$_Tree@V?$_Tmap_traits@KPAU_CONNECTIONREQUEST2@@U?$less@K@std@@V?$allocator@U?$pair@$$CBKPAU_CONNECTIONREQUEST2@@@std@@@3@$0A@@std@@@std@@QAE?AU?$pair@Viterator@?$_Tree@V?$_Tmap_traits@KPAU_CONNECTIONREQUEST2@@U?$less@K@std@@V?$allocator@U?$pair@$$CBKPAU_CONNECTIONREQUEST2@@@std@@@3@$0A@@std@@@std@@_N@2@ABU?$pair@$$CBKPAU_CONNECTIONREQUEST2@@@2@@Z 0040fe20 f i dos2.obj
 0001:0000eee0       ?erase@?$_Tree@V?$_Tmap_traits@KPAU_CONNECTIONREQUEST2@@U?$less@K@std@@V?$allocator@U?$pair@$$CBKPAU_CONNECTIONREQUEST2@@@std@@@3@$0A@@std@@@std@@QAE?AViterator@12@V312@0@Z 0040fee0 f i dos2.obj
 0001:0000efa0       ?_Tidy@?$_Tree@V?$_Tmap_traits@KPAU_CONNECTIONREQUEST2@@U?$less@K@std@@V?$allocator@U?$pair@$$CBKPAU_CONNECTIONREQUEST2@@@std@@@3@$0A@@std@@@std@@IAEXXZ 0040ffa0 f i dos2.obj
 0001:0000efd0       ??1?$_Tree@V?$_Tmap_traits@KPAU_CONNECTIONREQUEST2@@U?$less@K@std@@V?$allocator@U?$pair@$$CBKPAU_CONNECTIONREQUEST2@@@std@@@3@$0A@@std@@@std@@QAE@XZ 0040ffd0 f i dos2.obj
 0001:0000f000       ?Create@?$MemPooler@U_CONNECTIONREQUEST2@@@@IAEXXZ 00410000 f i dos2.obj
 0001:0000f090       ??1?$map@KPAU_CONNECTIONREQUEST2@@U?$less@K@std@@V?$allocator@U?$pair@$$CBKPAU_CONNECTIONREQUEST2@@@std@@@3@@std@@QAE@XZ 00410090 f i dos2.obj
 0001:0000f0c0       ??1CDos2@@UAE@XZ           004100c0 f   dos2.obj
 0001:0000f240       ??0?$map@KPAU_CONNECTIONREQUEST2@@U?$less@K@std@@V?$allocator@U?$pair@$$CBKPAU_CONNECTIONREQUEST2@@@std@@@3@@std@@QAE@XZ 00410240 f i dos2.obj
 0001:0000f270       ??0?$MemPooler@U_CONNECTIONREQUEST2@@@@QAE@H@Z 00410270 f i dos2.obj
 0001:0000f2f0       ?Alloc@?$MemPooler@U_CONNECTIONREQUEST2@@@@QAEPAU_CONNECTIONREQUEST2@@XZ 004102f0 f i dos2.obj
 0001:0000f330       ??0CDos2@@QAE@XZ           00410330 f   dos2.obj
 0001:0000f400       ??_GCDos2@@UAEPAXI@Z       00410400 f i dos2.obj
 0001:0000f400       ??_ECDos2@@UAEPAXI@Z       00410400 f i dos2.obj
 0001:0000f420       ?Add@CDos2@@AAEXK@Z        00410420 f   dos2.obj
 0001:0000f4a0       ?IsOver@CDos2@@QAEHK@Z     004104a0 f   dos2.obj
 0001:0000f550       ??1CHeapMng@@UAE@XZ        00410550 f   heapmng.obj
 0001:0000f570       ?Malloc@CHeapMng@@QAEPAXI@Z 00410570 f   heapmng.obj
 0001:0000f590       ?Free@CHeapMng@@QAEXPAX@Z  00410590 f   heapmng.obj
 0001:0000f5b0       ?Realloc@CHeapMng@@QAEPAXPAXI@Z 004105b0 f   heapmng.obj
 0001:0000f5d0       ??0CSystemInfo@@QAE@XZ     004105d0 f i heapmng.obj
 0001:0000f5e0       ??0CHeapMng@@QAE@XZ        004105e0 f   heapmng.obj
 0001:0000f610       ??_ECHeapMng@@UAEPAXI@Z    00410610 f i heapmng.obj
 0001:0000f610       ??_GCHeapMng@@UAEPAXI@Z    00410610 f i heapmng.obj
 0001:0000f640       ?FindKey@CMyTrace@@AAEHK@Z 00410640 f   MyTrace.obj
 0001:0000f6e0       ?Key@CMyTrace@@SAKPBD@Z    004106e0 f   MyTrace.obj
 0001:0000f760       ?TextOutA@CMyTrace@@AAEXPAUHDC__@@HHPBDH@Z 00410760 f   MyTrace.obj
 0001:0000f7d0       ?GetText@CMyTrace@@QAEXKPAD@Z 004107d0 f   MyTrace.obj
 0001:0000f800       ??0CMyTrace@@QAE@XZ        00410800 f   MyTrace.obj
 0001:0000f850       ??1CMyTrace@@UAE@XZ        00410850 f   MyTrace.obj
 0001:0000f890       ?Add@CMyTrace@@QAAXKHPBDZZ 00410890 f   MyTrace.obj
 0001:0000fa60       ?AddLine@CMyTrace@@QAEXD@Z 00410a60 f   MyTrace.obj
 0001:0000fad0       ?Paint@CMyTrace@@QAEXPAUHDC__@@@Z 00410ad0 f   MyTrace.obj
 0001:0000fd60       ??_GCMyTrace@@UAEPAXI@Z    00410d60 f i MyTrace.obj
 0001:0000fd60       ??_ECMyTrace@@UAEPAXI@Z    00410d60 f i MyTrace.obj
 0001:0000fd80       ?Restart@CRC32@@QAEXXZ     00410d80 f i buffer.obj
 0001:0000fd90       ?DigestSize@CRC32@@QBEIXZ  00410d90 f i buffer.obj
 0001:0000fda0       ?GetWritableBuffer@CBuffer@@QAEPAEPAH@Z 00410da0 f i buffer.obj
 0001:0000fdc0       ?GetWritableBufferSize@CBuffer@@QAEHXZ 00410dc0 f i buffer.obj
 0001:0000fdd0       ?GetReadableBuffer@CBuffer@@QAEPAEPAH@Z 00410dd0 f i buffer.obj
 0001:0000fdf0       ?GetReadableBufferSize@CBuffer@@QAEHXZ 00410df0 f i buffer.obj
 0001:0000fe00       ?GetHead@CBufferQueue@@QAEPAVCBuffer@@XZ 00410e00 f i buffer.obj
 0001:0000fe10       ?GetTail@CBufferQueue@@QAEPAVCBuffer@@XZ 00410e10 f i buffer.obj
 0001:0000fe20       ?IsEmpty@CBufferQueue@@QAEHXZ 00410e20 f i buffer.obj
 0001:0000fe30       ?RemoveHead@CBufferQueue@@QAEXXZ 00410e30 f i buffer.obj
 0001:0000fe70       ??0CBuffer@@QAE@K@Z        00410e70 f   buffer.obj
 0001:0000fee0       ?GetPacketSize@CBuffer@@UAEKPAE@Z 00410ee0 f i buffer.obj
 0001:0000fef0       ?SetHeader@CBuffer@@UAEXK@Z 00410ef0 f i buffer.obj
 0001:0000ff20       ??1CBuffer@@UAE@XZ         00410f20 f   buffer.obj
 0001:0000ff50       ?RemoveData@CBufferQueue@@QAEXK@Z 00410f50 f   buffer.obj
 0001:0000ffd0       ?GetData@CBufferQueue@@QAEXPAU_WSABUF@@PAK@Z 00410fd0 f   buffer.obj
 0001:00010020       ??0CBufferFactory@@AAE@XZ  00411020 f   buffer.obj
 0001:00010030       ?GetInstance@CBufferFactory@@SAAAV1@XZ 00411030 f   buffer.obj
 0001:00010050       ?Free@?$MemPooler@VCBuffer@@@@QAEHPAVCBuffer@@@Z 00411050 f i buffer.obj
 0001:000100a0       ?Free@?$MemPooler@VCBuffer2@@@@QAEHPAVCBuffer2@@@Z 004110a0 f i buffer.obj
 0001:000100f0       ?Final@CRC32@@QAEXPAE@Z    004110f0 f i buffer.obj
 0001:00010100       ??3CBuffer@@SAXPAX@Z       00411100 f i buffer.obj
 0001:00010140       ??0CBuffer2@@QAE@K@Z       00411140 f i buffer.obj
 0001:00010170       ?GetPacketSize@CBuffer2@@UAEKPAE@Z 00411170 f i buffer.obj
 0001:00010190       ?SetHeader@CBuffer2@@UAEXK@Z 00411190 f i buffer.obj
 0001:000101c0       ??3CBuffer2@@SAXPAX@Z      004111c0 f i buffer.obj
 0001:00010200       ?AddTail@CBufferQueue@@QAEXPAVCBuffer@@@Z 00411200 f i buffer.obj
 0001:00010260       ??_GCBuffer@@UAEPAXI@Z     00411260 f i buffer.obj
 0001:00010260       ??_ECBuffer@@UAEPAXI@Z     00411260 f i buffer.obj
 0001:000102e0       ??0CBufferQueue@@QAE@XZ    004112e0 f   buffer.obj
 0001:00010320       ?Clear@CBufferQueue@@QAEXH@Z 00411320 f   buffer.obj
 0001:000103a0       ??_GCBuffer2@@UAEPAXI@Z    004113a0 f i buffer.obj
 0001:000103a0       ??_ECBuffer2@@UAEPAXI@Z    004113a0 f i buffer.obj
 0001:000103f0       ??1CBuffer2@@UAE@XZ        004113f0 f i buffer.obj
 0001:00010420       ??1CBufferQueue@@UAE@XZ    00411420 f   buffer.obj
 0001:00010480       ??_GCBufferQueue@@UAEPAXI@Z 00411480 f i buffer.obj
 0001:00010480       ??_ECBufferQueue@@UAEPAXI@Z 00411480 f i buffer.obj
 0001:000104a0       ?Create@?$MemPooler@VCBuffer@@@@IAEXXZ 004114a0 f i buffer.obj
 0001:00010530       ?Create@?$MemPooler@VCBuffer2@@@@IAEXXZ 00411530 f i buffer.obj
 0001:000105c0       ??0?$MemPooler@VCBuffer@@@@QAE@H@Z 004115c0 f i buffer.obj
 0001:00010640       ?Alloc@?$MemPooler@VCBuffer@@@@QAEPAVCBuffer@@XZ 00411640 f i buffer.obj
 0001:00010680       ??0?$MemPooler@VCBuffer2@@@@QAE@H@Z 00411680 f i buffer.obj
 0001:00010700       ?Alloc@?$MemPooler@VCBuffer2@@@@QAEPAVCBuffer2@@XZ 00411700 f i buffer.obj
 0001:00010740       ??2CBuffer@@SAPAXI@Z       00411740 f i buffer.obj
 0001:00010780       ??2CBuffer2@@SAPAXI@Z      00411780 f i buffer.obj
 0001:000107c0       ?CreateBuffer@CBufferFactory@@QAEPAVCBuffer@@W4BUFFER_TYPE@@K@Z 004117c0 f   buffer.obj
 0001:000108e0       ?AddData@CBufferQueue@@QAEXPAEKW4BUFFER_TYPE@@@Z 004118e0 f   buffer.obj
 0001:00010a90       ?GetHandle@CSock@@QAEIXZ   00411a90 f i clientsock.obj
 0001:00010aa0       ?GetSize@CBuffer@@QAEHXZ   00411aa0 f i clientsock.obj
 0001:00010ab0       ?crc@CBufferQueue@@QAEXPAVCRC32@@PAK@Z 00411ab0 f i clientsock.obj
 0001:00010ad0       ?Close@CClientSock@@UAEXXZ 00411ad0 f   clientsock.obj
 0001:00010b10       ?CloseConnection@CClientSock@@UAEHI@Z 00411b10 f   clientsock.obj
 0001:00010b20       ?Shutdown@CClientSock@@UAEHI@Z 00411b20 f   clientsock.obj
 0001:00010b30       ?Connect@CClientSock@@QAEHPADG@Z 00411b30 f   clientsock.obj
 0001:00010c10       ?Recv@CClientSock@@QAEHXZ  00411c10 f   clientsock.obj
 0001:00010c90       ?GetPeerAddr@CClientSock@@UAEJKPAXPAK@Z 00411c90 f   clientsock.obj
 0001:00010d30       ?CreateBuffer@CClientSock@@QAEPAVCBuffer@@XZ 00411d30 f   clientsock.obj
 0001:00010d50       ?SendProtocolId@CClientSock@@QAEXXZ 00411d50 f   clientsock.obj
 0001:00010dc0       ??0CClientSock@@QAE@K@Z    00411dc0 f   clientsock.obj
 0001:00010ea0       ?Get@CSock@@UAEPAV1@I@Z    00411ea0 f i clientsock.obj
 0001:00010ec0       ?SetProtocolId@CClientSock@@UAEXK@Z 00411ec0 f i clientsock.obj
 0001:00010ed0       ?GetPeerAddr@CClientSock@@UAEKK@Z 00411ed0 f i clientsock.obj
 0001:00010ee0       ??1CClientSock@@UAE@XZ     00411ee0 f   clientsock.obj
 0001:00010f80       ?Send@CClientSock@@UAEXPADKK@Z 00411f80 f   clientsock.obj
 0001:000110b0       ?SendRemnant@CClientSock@@QAEHK@Z 004120b0 f   clientsock.obj
 0001:000111c0       ?Fetch@CClientSock@@QAEPAVCBuffer@@K@Z 004121c0 f   clientsock.obj
 0001:00011500       ??_ECClientSock@@UAEPAXI@Z 00412500 f i clientsock.obj
 0001:00011500       ??_GCClientSock@@UAEPAXI@Z 00412500 f i clientsock.obj
 0001:00011530       ?Free@?$MemPooler@VCClientSock@@@@QAEHPAVCClientSock@@@Z 00412530 f i clientsock.obj
 0001:00011580       ?Create@?$MemPooler@VCClientSock@@@@IAEXXZ 00412580 f i clientsock.obj
 0001:00011610       ??0?$MemPooler@VCClientSock@@@@QAE@H@Z 00412610 f i clientsock.obj
 0001:00011690       ??0CClientSockE@@QAE@K@Z   00412690 f   clientsocke.obj
 0001:00011750       ?GetPeerAddr@CSock@@UAEKK@Z 00412750 f i clientsocke.obj
 0001:00011760       ?SetProtocolId@CClientSockE@@UAEXK@Z 00412760 f i clientsocke.obj
 0001:00011770       ?Close@CClientSockE@@UAEXXZ 00412770 f   clientsocke.obj
 0001:000117d0       ?CloseConnection@CClientSockE@@UAEHI@Z 004127d0 f   clientsocke.obj
 0001:000117e0       ?Shutdown@CClientSockE@@UAEHI@Z 004127e0 f   clientsocke.obj
 0001:000117f0       ?Create@CClientSockE@@UAEHGH@Z 004127f0 f   clientsocke.obj
 0001:00011830       ?Attach@CClientSockE@@UAEXI@Z 00412830 f   clientsocke.obj
 0001:00011870       ?Connect@CClientSockE@@QAEHPADG@Z 00412870 f   clientsocke.obj
 0001:00011950       ?Recv@CClientSockE@@QAEHXZ 00412950 f   clientsocke.obj
 0001:000119f0       ?GetPeerAddr@CClientSockE@@UAEJKPAXPAK@Z 004129f0 f   clientsocke.obj
 0001:00011a90       ?CreateBuffer@CClientSockE@@QAEPAVCBuffer@@XZ 00412a90 f   clientsocke.obj
 0001:00011ab0       ?SendProtocolId@CClientSockE@@QAEXXZ 00412ab0 f   clientsocke.obj
 0001:00011b00       ??1CClientSockE@@UAE@XZ    00412b00 f   clientsocke.obj
 0001:00011b60       ?Send@CClientSockE@@UAEXPADKK@Z 00412b60 f   clientsocke.obj
 0001:00011c60       ?SendRemnant@CClientSockE@@QAEHK@Z 00412c60 f   clientsocke.obj
 0001:00011d80       ?Fetch@CClientSockE@@QAEPAVCBuffer@@K@Z 00412d80 f   clientsocke.obj
 0001:00011f90       ??_ECClientSockE@@UAEPAXI@Z 00412f90 f i clientsocke.obj
 0001:00011f90       ??_GCClientSockE@@UAEPAXI@Z 00412f90 f i clientsocke.obj
 0001:00011fc0       ?Free@?$MemPooler@VCClientSockE@@@@QAEHPAVCClientSockE@@@Z 00412fc0 f i clientsocke.obj
 0001:00012010       ?Create@?$MemPooler@VCClientSockE@@@@IAEXXZ 00413010 f i clientsocke.obj
 0001:000120a0       ??0?$MemPooler@VCClientSockE@@@@QAE@H@Z 004130a0 f i clientsocke.obj
 0001:00012120       ?GetCrcByte@CRC32@@QBEEI@Z 00413120 f i crc.obj
 0001:00012130       ?Reset@CRC32@@AAEXXZ       00413130 f i crc.obj
 0001:00012140       ??0CRC32@@QAE@XZ           00413140 f   crc.obj
 0001:00012150       ?ThrowIfInvalidTruncatedSize@CRC32@@ABEXI@Z 00413150 f   crc.obj
 0001:00012160       ?TruncatedFinal@CRC32@@QAEXPAEI@Z 00413160 f   crc.obj
 0001:000121a0       ??$IsPowerOf2@I@@YA_NI@Z   004131a0 f i crc.obj
 0001:000121c0       ??$ModPowerOf2@II@@YAIII@Z 004131c0 f i crc.obj
 0001:000121d0       ??$GetAlignment@I@@YAIPAI@Z 004131d0 f i crc.obj
 0001:000121e0       ?IsAlignedOn@@YA_NPBXI@Z   004131e0 f i crc.obj
 0001:00012210       ??$IsAligned@I@@YA_NPBXPAI@Z 00413210 f i crc.obj
 0001:00012220       ?Update@CRC32@@QAEXPBEI@Z  00413220 f   crc.obj
 0001:00012330       ?GetRecvHandle@CDPSock@@QAEPAXXZ 00413330 f i dpmng.obj
 0001:00012340       ?GetHostAddr@CDPSock@@QAEJPAXPAK@Z 00413340 f i dpmng.obj
 0001:00012360       ?GetPlayerAddr@CDPSock@@QAEJKPAXPAK@Z 00413360 f i dpmng.obj
 0001:00012370       ?GetPlayerAddr@CDPSock@@QAEKK@Z 00413370 f i dpmng.obj
 0001:00012380       ?GetRecvHandle@CDPMng@@QAEPAXXZ 00413380 f i dpmng.obj
 0001:00012390       ?GetCloseHandle@CDPMng@@QAEPAXXZ 00413390 f i dpmng.obj
 0001:000123a0       ??0CDPMng@@QAE@XZ          004133a0 f   dpmng.obj
 0001:000123c0       ??1CDPMng@@UAE@XZ          004133c0 f   dpmng.obj
 0001:000123d0       ?DeleteDPObject@CDPMng@@QAEHXZ 004133d0 f   dpmng.obj
 0001:00012440       ?InitConnection@CDPMng@@QAEHPAXG@Z 00413440 f   dpmng.obj
 0001:00012460       ?GetHostAddr@CDPMng@@QAEXPAD@Z 00413460 f   dpmng.obj
 0001:00012490       ?GetPlayerAddr@CDPMng@@QAEXKPAD@Z 00413490 f   dpmng.obj
 0001:000124c0       ?GetPlayerAddr@CDPMng@@QAEKK@Z 004134c0 f   dpmng.obj
 0001:000124e0       ?ReceiveMessage@CDPMng@@QAEHXZ 004134e0 f   dpmng.obj
 0001:00012580       ?DestroyPlayer@CDPMng@@QAEHK@Z 00413580 f   dpmng.obj
 0001:000125a0       ?ReceiveThread@@YGIPAX@Z   004135a0 f   dpmng.obj
 0001:00012600       ?InitializeNetLib@@YAHXZ   00413600 f   dpmng.obj
 0001:00012650       ?TestNetLib@@YAXPBDG@Z     00413650 f   dpmng.obj
 0001:000126f0       ?chWindows9x@@YAHXZ        004136f0 f i dpmng.obj
 0001:00012750       ??_ECDPMng@@UAEPAXI@Z      00413750 f i dpmng.obj
 0001:00012750       ??_GCDPMng@@UAEPAXI@Z      00413750 f i dpmng.obj
 0001:00012770       ?CreateDPObject@CDPMng@@QAEHH@Z 00413770 f   dpmng.obj
 0001:00012830       ?CreateSession@CDPMng@@QAEHPBDK@Z 00413830 f   dpmng.obj
 0001:00012870       ?JoinSession@CDPMng@@QAEHPBDKK@Z 00413870 f   dpmng.obj
 0001:000128c0       ?Destroy@?$MemPooler@VCBuffer@@@@IAEXXZ 004138c0 f i dpmng.obj
 0001:00012930       ?Destroy@?$MemPooler@VCBuffer2@@@@IAEXXZ 00413930 f i dpmng.obj
 0001:000129a0       ?Destroy@?$MemPooler@VCClientSock@@@@IAEXXZ 004139a0 f i dpmng.obj
 0001:00012a10       ?Destroy@?$MemPooler@VCClientSockE@@@@IAEXXZ 00413a10 f i dpmng.obj
 0001:00012a80       ??1?$MemPooler@VCBuffer@@@@QAE@XZ 00413a80 f i dpmng.obj
 0001:00012ab0       ??1?$MemPooler@VCBuffer2@@@@QAE@XZ 00413ab0 f i dpmng.obj
 0001:00012ae0       ??1?$MemPooler@VCClientSock@@@@QAE@XZ 00413ae0 f i dpmng.obj
 0001:00012b10       ??1?$MemPooler@VCClientSockE@@@@QAE@XZ 00413b10 f i dpmng.obj
 0001:00012b40       ??_G?$MemPooler@VCClientSock@@@@QAEPAXI@Z 00413b40 f i dpmng.obj
 0001:00012b60       ??_G?$MemPooler@VCClientSockE@@@@QAEPAXI@Z 00413b60 f i dpmng.obj
 0001:00012b80       ??_G?$MemPooler@VCBuffer@@@@QAEPAXI@Z 00413b80 f i dpmng.obj
 0001:00012ba0       ??_G?$MemPooler@VCBuffer2@@@@QAEPAXI@Z 00413ba0 f i dpmng.obj
 0001:00012bc0       ?UninitializeNetLib@@YAXXZ 00413bc0 f   dpmng.obj
 0001:00012c80       ?SetID@CSock@@QAEXK@Z      00413c80 f i dpsock.obj
 0001:00012c90       ?GetID@CSock@@QAEKXZ       00413c90 f i dpsock.obj
 0001:00012ca0       ?SetPeerID@CSock@@QAEXK@Z  00413ca0 f i dpsock.obj
 0001:00012cb0       ?IsCrcWrite@CClientSock@@QAEHXZ 00413cb0 f i dpsock.obj
 0001:00012cc0       ?IsCrcWrite@CClientSockE@@QAEHXZ 00413cc0 f i dpsock.obj
 0001:00012cd0       ?GetRecvEvent@CClientSockE@@QAEPAXXZ 00413cd0 f i dpsock.obj
 0001:00012ce0       ?GetSendEvent@CClientSockE@@QAEPAXXZ 00413ce0 f i dpsock.obj
 0001:00012cf0       ?GetServerSock@CDPSock@@QAEPAVCSock@@XZ 00413cf0 f i dpsock.obj
 0001:00012d10       ?GetCompletionPort@CDPSock@@QAEPAXH@Z 00413d10 f i dpsock.obj
 0001:00012d20       ?GetCloseHandle@CDPSock@@QAEPAXXZ 00413d20 f i dpsock.obj
 0001:00012d30       ?GetIoWorkerCount@CDPSock@@QAEHXZ 00413d30 f i dpsock.obj
 0001:00012d40       ?GetSockThreaded@CDPSock@@QAEPAVCSock@@XZ 00413d40 f i dpsock.obj
 0001:00012d50       ?Get@CDPSock@@QAEPAVCClientSock@@I@Z 00413d50 f i dpsock.obj
 0001:00012d70       ?InitializeConnection@CDPSock@@QAEHPAXK@Z 00413d70 f   dpsock.obj
 0001:00012db0       ?Send@CDPSock@@QAEHPADKK@Z 00413db0 f   dpsock.obj
 0001:00012de0       ?Shutdown@CDPSock@@QAEHK@Z 00413de0 f   dpsock.obj
 0001:00012e00       ?SetProtocolId@CDPSock@@QAEXK@Z 00413e00 f   dpsock.obj
 0001:00012e30       ?size@?$list@PAXV?$allocator@PAX@std@@@std@@QBEIXZ 00413e30 f i dpsock.obj
 0001:00012e40       ??3CClientSock@@SAXPAX@Z   00413e40 f i dpsock.obj
 0001:00012e80       ??3CClientSockE@@SAXPAX@Z  00413e80 f i dpsock.obj
 0001:00012ec0       ?Receive@CDPSock@@QAEPAVCBuffer@@XZ 00413ec0 f   dpsock.obj
 0001:00012f30       ?AddCreatePlayerOrGroupMsg@CDPSock@@QAEXKPAVCBuffer@@@Z 00413f30 f   dpsock.obj
 0001:00013010       ?AddDestroyPlayerOrGroupMsg@CDPSock@@QAEXKPAVCBuffer@@@Z 00414010 f   dpsock.obj
 0001:000130f0       ??Eiterator@?$list@PAXV?$allocator@PAX@std@@@std@@QAE?AV012@H@Z 004140f0 f i dpsock.obj
 0001:00013100       ?CloseConnection@CDPSock@@QAEXK@Z 00414100 f   dpsock.obj
 0001:00013160       ?IoWorkerThread@@YGIPAX@Z  00414160 f   dpsock.obj
 0001:000134e0       ?erase@?$list@PAXV?$allocator@PAX@std@@@std@@QAE?AViterator@12@V312@@Z 004144e0 f i dpsock.obj
 0001:00013520       ?RemoveThread@CDPSock@@QAEXPAX@Z 00414520 f   dpsock.obj
 0001:00013590       ?EventWorkerThread@@YGIPAX@Z 00414590 f   dpsock.obj
 0001:00013760       ?front@?$list@PAXV?$allocator@PAX@std@@@std@@QAEAAPAXXZ 00414760 f i dpsock.obj
 0001:00013770       ?pop_front@?$list@PAXV?$allocator@PAX@std@@@std@@QAEXXZ 00414770 f i dpsock.obj
 0001:000137a0       ?CloseIoWorker@CDPSock@@AAEHXZ 004147a0 f   dpsock.obj
 0001:00013970       ??0CDPSock@@QAE@XZ         00414970 f   dpsock.obj
 0001:00013a30       ?Close@CDPSock@@QAEHXZ     00414a30 f   dpsock.obj
 0001:00013a90       ?CreateServerE@CDPSock@@QAEHK@Z 00414a90 f   dpsock.obj
 0001:00013ba0       ??1CDPSock@@UAE@XZ         00414ba0 f   dpsock.obj
 0001:00013c50       ??_ECDPSock@@UAEPAXI@Z     00414c50 f i dpsock.obj
 0001:00013c50       ??_GCDPSock@@UAEPAXI@Z     00414c50 f i dpsock.obj
 0001:00013c70       ?CreateIoWorker@CDPSock@@AAEHK@Z 00414c70 f   dpsock.obj
 0001:00013d50       ?CreateEventWorker@CDPSock@@QAEHPAVCSock@@@Z 00414d50 f   dpsock.obj
 0001:00013df0       ?CreateServer@CDPSock@@QAEHK@Z 00414df0 f   dpsock.obj
 0001:00013f10       ?Alloc@?$MemPooler@VCClientSock@@@@QAEPAVCClientSock@@XZ 00414f10 f i dpsock.obj
 0001:00013f50       ?Alloc@?$MemPooler@VCClientSockE@@@@QAEPAVCClientSockE@@XZ 00414f50 f i dpsock.obj
 0001:00013f90       ??2CClientSock@@SAPAXI@Z   00414f90 f i dpsock.obj
 0001:00013fd0       ??2CClientSockE@@SAPAXI@Z  00414fd0 f i dpsock.obj
 0001:00014010       ?JoinToServer@CDPSock@@QAEHKK@Z 00415010 f   dpsock.obj
 0001:00014230       ?JoinToServerE@CDPSock@@QAEHKK@Z 00415230 f   dpsock.obj
 0001:00014440       ?GetListenHandle@CServerSock@@QAEPAXXZ 00415440 f i serversock.obj
 0001:00014450       ?GetCloseHandle@CServerSock@@QAEPAXXZ 00415450 f i serversock.obj
 0001:00014460       ?GetCompletionPort@CServerSock@@QAEPAXH@Z 00415460 f i serversock.obj
 0001:00014470       ?GetIoWorkerCount@CServerSock@@QAEHXZ 00415470 f i serversock.obj
 0001:00014480       ?Listen@CServerSock@@QAEHXZ 00415480 f   serversock.obj
 0001:000144c0       ?GetPeerAddr@CServerSock@@QAEJIPAK@Z 004154c0 f   serversock.obj
 0001:00014540       ??0?$pair@$$CBKPAVCClientSock@@@std@@QAE@ABKABQAVCClientSock@@@Z 00415540 f i serversock.obj
 0001:00014560       ?_Color@?$_Tree@V?$_Tmap_traits@KPAVCClientSock@@U?$less@K@std@@V?$allocator@U?$pair@$$CBKPAVCClientSock@@@std@@@3@$0A@@std@@@std@@KAAADPAU_Node@?$_Tree_nod@V?$_Tmap_traits@KPAVCClientSock@@U?$less@K@std@@V?$allocator@U?$pair@$$CBKPAVCClientSock@@@std@@@3@$0A@@std@@@2@@Z 00415560 f i serversock.obj
 0001:00014570       ?_Isnil@?$_Tree@V?$_Tmap_traits@KPAVCClientSock@@U?$less@K@std@@V?$allocator@U?$pair@$$CBKPAVCClientSock@@@std@@@3@$0A@@std@@@std@@KAAADPAU_Node@?$_Tree_nod@V?$_Tmap_traits@KPAVCClientSock@@U?$less@K@std@@V?$allocator@U?$pair@$$CBKPAVCClientSock@@@std@@@3@$0A@@std@@@2@@Z 00415570 f i serversock.obj
 0001:00014580       ?_Left@?$_Tree@V?$_Tmap_traits@KPAVCClientSock@@U?$less@K@std@@V?$allocator@U?$pair@$$CBKPAVCClientSock@@@std@@@3@$0A@@std@@@std@@KAAAPAU_Node@?$_Tree_nod@V?$_Tmap_traits@KPAVCClientSock@@U?$less@K@std@@V?$allocator@U?$pair@$$CBKPAVCClientSock@@@std@@@3@$0A@@std@@@2@PAU342@@Z 00415580 f i serversock.obj
 0001:00014590       ?_Parent@?$_Tree@V?$_Tmap_traits@KPAVCClientSock@@U?$less@K@std@@V?$allocator@U?$pair@$$CBKPAVCClientSock@@@std@@@3@$0A@@std@@@std@@KAAAPAU_Node@?$_Tree_nod@V?$_Tmap_traits@KPAVCClientSock@@U?$less@K@std@@V?$allocator@U?$pair@$$CBKPAVCClientSock@@@std@@@3@$0A@@std@@@2@PAU342@@Z 00415590 f i serversock.obj
 0001:000145a0       ?_Right@?$_Tree@V?$_Tmap_traits@KPAVCClientSock@@U?$less@K@std@@V?$allocator@U?$pair@$$CBKPAVCClientSock@@@std@@@3@$0A@@std@@@std@@KAAAPAU_Node@?$_Tree_nod@V?$_Tmap_traits@KPAVCClientSock@@U?$less@K@std@@V?$allocator@U?$pair@$$CBKPAVCClientSock@@@std@@@3@$0A@@std@@@2@PAU342@@Z 004155a0 f i serversock.obj
 0001:000145b0       ?_Lmost@?$_Tree@V?$_Tmap_traits@KPAVCClientSock@@U?$less@K@std@@V?$allocator@U?$pair@$$CBKPAVCClientSock@@@std@@@3@$0A@@std@@@std@@IAEAAPAU_Node@?$_Tree_nod@V?$_Tmap_traits@KPAVCClientSock@@U?$less@K@std@@V?$allocator@U?$pair@$$CBKPAVCClientSock@@@std@@@3@$0A@@std@@@2@XZ 004155b0 f i serversock.obj
 0001:000145c0       ?_Max@?$_Tree@V?$_Tmap_traits@KPAVCClientSock@@U?$less@K@std@@V?$allocator@U?$pair@$$CBKPAVCClientSock@@@std@@@3@$0A@@std@@@std@@KAPAU_Node@?$_Tree_nod@V?$_Tmap_traits@KPAVCClientSock@@U?$less@K@std@@V?$allocator@U?$pair@$$CBKPAVCClientSock@@@std@@@3@$0A@@std@@@2@PAU342@@Z 004155c0 f i serversock.obj
 0001:000145e0       ?_Min@?$_Tree@V?$_Tmap_traits@KPAVCClientSock@@U?$less@K@std@@V?$allocator@U?$pair@$$CBKPAVCClientSock@@@std@@@3@$0A@@std@@@std@@KAPAU_Node@?$_Tree_nod@V?$_Tmap_traits@KPAVCClientSock@@U?$less@K@std@@V?$allocator@U?$pair@$$CBKPAVCClientSock@@@std@@@3@$0A@@std@@@2@PAU342@@Z 004155e0 f i serversock.obj
 0001:00014600       ?_Rmost@?$_Tree@V?$_Tmap_traits@KPAVCClientSock@@U?$less@K@std@@V?$allocator@U?$pair@$$CBKPAVCClientSock@@@std@@@3@$0A@@std@@@std@@IAEAAPAU_Node@?$_Tree_nod@V?$_Tmap_traits@KPAVCClientSock@@U?$less@K@std@@V?$allocator@U?$pair@$$CBKPAVCClientSock@@@std@@@3@$0A@@std@@@2@XZ 00415600 f i serversock.obj
 0001:00014610       ?_Root@?$_Tree@V?$_Tmap_traits@KPAVCClientSock@@U?$less@K@std@@V?$allocator@U?$pair@$$CBKPAVCClientSock@@@std@@@3@$0A@@std@@@std@@IAEAAPAU_Node@?$_Tree_nod@V?$_Tmap_traits@KPAVCClientSock@@U?$less@K@std@@V?$allocator@U?$pair@$$CBKPAVCClientSock@@@std@@@3@$0A@@std@@@2@XZ 00415610 f i serversock.obj
 0001:00014620       ?_Rrotate@?$_Tree@V?$_Tmap_traits@KPAVCClientSock@@U?$less@K@std@@V?$allocator@U?$pair@$$CBKPAVCClientSock@@@std@@@3@$0A@@std@@@std@@IAEXPAU_Node@?$_Tree_nod@V?$_Tmap_traits@KPAVCClientSock@@U?$less@K@std@@V?$allocator@U?$pair@$$CBKPAVCClientSock@@@std@@@3@$0A@@std@@@2@@Z 00415620 f i serversock.obj
 0001:00014680       ?_Kfn@?$_Tmap_traits@KPAVCClientSock@@U?$less@K@std@@V?$allocator@U?$pair@$$CBKPAVCClientSock@@@std@@@3@$0A@@std@@SAABKABU?$pair@$$CBKPAVCClientSock@@@2@@Z 00415680 f i serversock.obj
 0001:00014690       ??0?$allocator@U?$pair@$$CBKPAVCClientSock@@@std@@@std@@QAE@XZ 00415690 f i serversock.obj
 0001:000146a0       ?deallocate@?$allocator@U_Node@?$_Tree_nod@V?$_Tmap_traits@KPAVCClientSock@@U?$less@K@std@@V?$allocator@U?$pair@$$CBKPAVCClientSock@@@std@@@3@$0A@@std@@@std@@@std@@QAEXPAU_Node@?$_Tree_nod@V?$_Tmap_traits@KPAVCClientSock@@U?$less@K@std@@V?$allocator@U?$pair@$$CBKPAVCClientSock@@@std@@@3@$0A@@std@@@2@I@Z 004156a0 f i serversock.obj
 0001:000146b0       ??8const_iterator@?$_Tree@V?$_Tmap_traits@KPAVCClientSock@@U?$less@K@std@@V?$allocator@U?$pair@$$CBKPAVCClientSock@@@std@@@3@$0A@@std@@@std@@QBE_NABV012@@Z 004156b0 f i serversock.obj
 0001:000146c0       ?_Mynode@const_iterator@?$_Tree@V?$_Tmap_traits@KPAVCClientSock@@U?$less@K@std@@V?$allocator@U?$pair@$$CBKPAVCClientSock@@@std@@@3@$0A@@std@@@std@@QBEPAU_Node@?$_Tree_nod@V?$_Tmap_traits@KPAVCClientSock@@U?$less@K@std@@V?$allocator@U?$pair@$$CBKPAVCClientSock@@@std@@@3@$0A@@std@@@3@XZ 004156c0 f i serversock.obj
 0001:000146d0       ??0?$pair@Viterator@?$_Tree@V?$_Tmap_traits@KPAVCClientSock@@U?$less@K@std@@V?$allocator@U?$pair@$$CBKPAVCClientSock@@@std@@@3@$0A@@std@@@std@@_N@std@@QAE@ABViterator@?$_Tree@V?$_Tmap_traits@KPAVCClientSock@@U?$less@K@std@@V?$allocator@U?$pair@$$CBKPAVCClientSock@@@std@@@3@$0A@@std@@@1@AB_N@Z 004156d0 f i serversock.obj
 0001:000146f0       ?_Myval@?$_Tree@V?$_Tmap_traits@KPAVCClientSock@@U?$less@K@std@@V?$allocator@U?$pair@$$CBKPAVCClientSock@@@std@@@3@$0A@@std@@@std@@KAAAU?$pair@$$CBKPAVCClientSock@@@2@PAU_Node@?$_Tree_nod@V?$_Tmap_traits@KPAVCClientSock@@U?$less@K@std@@V?$allocator@U?$pair@$$CBKPAVCClientSock@@@std@@@3@$0A@@std@@@2@@Z 004156f0 f i serversock.obj
 0001:00014700       ??0?$allocator@U?$pair@$$CBKPAVCClientSock@@@std@@@std@@QAE@ABV01@@Z 00415700 f i serversock.obj
 0001:00014710       ??0const_iterator@?$_Tree@V?$_Tmap_traits@KPAVCClientSock@@U?$less@K@std@@V?$allocator@U?$pair@$$CBKPAVCClientSock@@@std@@@3@$0A@@std@@@std@@QAE@PAU_Node@?$_Tree_nod@V?$_Tmap_traits@KPAVCClientSock@@U?$less@K@std@@V?$allocator@U?$pair@$$CBKPAVCClientSock@@@std@@@3@$0A@@std@@@2@@Z 00415710 f i serversock.obj
 0001:00014720       ??Dconst_iterator@?$_Tree@V?$_Tmap_traits@KPAVCClientSock@@U?$less@K@std@@V?$allocator@U?$pair@$$CBKPAVCClientSock@@@std@@@3@$0A@@std@@@std@@QBEABU?$pair@$$CBKPAVCClientSock@@@2@XZ 00415720 f i serversock.obj
 0001:00014730       ?_Inc@const_iterator@?$_Tree@V?$_Tmap_traits@KPAVCClientSock@@U?$less@K@std@@V?$allocator@U?$pair@$$CBKPAVCClientSock@@@std@@@3@$0A@@std@@@std@@QAEXXZ 00415730 f i serversock.obj
 0001:00014790       ?_Root@?$_Tree@V?$_Tmap_traits@KPAVCClientSock@@U?$less@K@std@@V?$allocator@U?$pair@$$CBKPAVCClientSock@@@std@@@3@$0A@@std@@@std@@IBEAAPAU_Node@?$_Tree_nod@V?$_Tmap_traits@KPAVCClientSock@@U?$less@K@std@@V?$allocator@U?$pair@$$CBKPAVCClientSock@@@std@@@3@$0A@@std@@@2@XZ 00415790 f i serversock.obj
 0001:000147a0       ?max_size@?$allocator@U?$pair@$$CBKPAVCClientSock@@@std@@@std@@QBEIXZ 004157a0 f i serversock.obj
 0001:000147b0       ?_Dec@const_iterator@?$_Tree@V?$_Tmap_traits@KPAVCClientSock@@U?$less@K@std@@V?$allocator@U?$pair@$$CBKPAVCClientSock@@@std@@@3@$0A@@std@@@std@@QAEXXZ 004157b0 f i serversock.obj
 0001:00014810       ??0_Node@?$_Tree_nod@V?$_Tmap_traits@KPAVCClientSock@@U?$less@K@std@@V?$allocator@U?$pair@$$CBKPAVCClientSock@@@std@@@3@$0A@@std@@@std@@QAE@PAU012@00ABU?$pair@$$CBKPAVCClientSock@@@2@D@Z 00415810 f i serversock.obj
 0001:00014850       ??0?$_Tmap_traits@KPAVCClientSock@@U?$less@K@std@@V?$allocator@U?$pair@$$CBKPAVCClientSock@@@std@@@3@$0A@@std@@QAE@U?$less@K@1@@Z 00415850 f i serversock.obj
 0001:00014860       ??$_Destroy@U_Node@?$_Tree_nod@V?$_Tmap_traits@KPAVCClientSock@@U?$less@K@std@@V?$allocator@U?$pair@$$CBKPAVCClientSock@@@std@@@3@$0A@@std@@@std@@@std@@YAXPAU_Node@?$_Tree_nod@V?$_Tmap_traits@KPAVCClientSock@@U?$less@K@std@@V?$allocator@U?$pair@$$CBKPAVCClientSock@@@std@@@3@$0A@@std@@@0@@Z 00415860 f i serversock.obj
 0001:00014870       ??$_Destroy@PAU_Node@?$_Tree_nod@V?$_Tmap_traits@KPAVCClientSock@@U?$less@K@std@@V?$allocator@U?$pair@$$CBKPAVCClientSock@@@std@@@3@$0A@@std@@@std@@@std@@YAXPAPAU_Node@?$_Tree_nod@V?$_Tmap_traits@KPAVCClientSock@@U?$less@K@std@@V?$allocator@U?$pair@$$CBKPAVCClientSock@@@std@@@3@$0A@@std@@@0@@Z 00415870 f i serversock.obj
 0001:00014880       ??$?0U?$pair@$$CBKPAVCClientSock@@@std@@@?$allocator@PAU_Node@?$_Tree_nod@V?$_Tmap_traits@KPAVCClientSock@@U?$less@K@std@@V?$allocator@U?$pair@$$CBKPAVCClientSock@@@std@@@3@$0A@@std@@@std@@@std@@QAE@ABV?$allocator@U?$pair@$$CBKPAVCClientSock@@@std@@@1@@Z 00415880 f i serversock.obj
 0001:00014890       ??$_Allocate@U_Node@?$_Tree_nod@V?$_Tmap_traits@KPAVCClientSock@@U?$less@K@std@@V?$allocator@U?$pair@$$CBKPAVCClientSock@@@std@@@3@$0A@@std@@@std@@@std@@YAPAU_Node@?$_Tree_nod@V?$_Tmap_traits@KPAVCClientSock@@U?$less@K@std@@V?$allocator@U?$pair@$$CBKPAVCClientSock@@@std@@@3@$0A@@std@@@0@IPAU120@@Z 00415890 f i serversock.obj
 0001:000148b0       ??$?0U?$pair@$$CBKPAVCClientSock@@@std@@@?$allocator@U_Node@?$_Tree_nod@V?$_Tmap_traits@KPAVCClientSock@@U?$less@K@std@@V?$allocator@U?$pair@$$CBKPAVCClientSock@@@std@@@3@$0A@@std@@@std@@@std@@QAE@ABV?$allocator@U?$pair@$$CBKPAVCClientSock@@@std@@@1@@Z 004158b0 f i serversock.obj
 0001:000148c0       ??$_Construct@PAU_Node@?$_Tree_nod@V?$_Tmap_traits@KPAVCClientSock@@U?$less@K@std@@V?$allocator@U?$pair@$$CBKPAVCClientSock@@@std@@@3@$0A@@std@@@std@@PAU123@@std@@YAXPAPAU_Node@?$_Tree_nod@V?$_Tmap_traits@KPAVCClientSock@@U?$less@K@std@@V?$allocator@U?$pair@$$CBKPAVCClientSock@@@std@@@3@$0A@@std@@@0@ABQAU120@@Z 004158c0 f i serversock.obj
 0001:000148e0       ?Lock@CMapChild@@QAEXXZ    004158e0 f i serversock.obj
 0001:000148f0       ?Unlock@CMapChild@@QAEXXZ  004158f0 f i serversock.obj
 0001:00014900       ?Shutdown@CServerSock@@UAEHI@Z 00415900 f   serversock.obj
 0001:00014990       ?GetPeerAddr@CServerSock@@UAEJKPAXPAK@Z 00415990 f   serversock.obj
 0001:00014a90       ?GetPeerAddr@CServerSock@@UAEKK@Z 00415a90 f   serversock.obj
 0001:00014b20       ??9const_iterator@?$_Tree@V?$_Tmap_traits@KPAVCClientSock@@U?$less@K@std@@V?$allocator@U?$pair@$$CBKPAVCClientSock@@@std@@@3@$0A@@std@@@std@@QBE_NABV012@@Z 00415b20 f i serversock.obj
 0001:00014b40       ?_Key@?$_Tree@V?$_Tmap_traits@KPAVCClientSock@@U?$less@K@std@@V?$allocator@U?$pair@$$CBKPAVCClientSock@@@std@@@3@$0A@@std@@@std@@KAABKPAU_Node@?$_Tree_nod@V?$_Tmap_traits@KPAVCClientSock@@U?$less@K@std@@V?$allocator@U?$pair@$$CBKPAVCClientSock@@@std@@@3@$0A@@std@@@2@@Z 00415b40 f i serversock.obj
 0001:00014b50       ?_Lrotate@?$_Tree@V?$_Tmap_traits@KPAVCClientSock@@U?$less@K@std@@V?$allocator@U?$pair@$$CBKPAVCClientSock@@@std@@@3@$0A@@std@@@std@@IAEXPAU_Node@?$_Tree_nod@V?$_Tmap_traits@KPAVCClientSock@@U?$less@K@std@@V?$allocator@U?$pair@$$CBKPAVCClientSock@@@std@@@3@$0A@@std@@@2@@Z 00415b50 f i serversock.obj
 0001:00014bb0       ?destroy@?$allocator@U_Node@?$_Tree_nod@V?$_Tmap_traits@KPAVCClientSock@@U?$less@K@std@@V?$allocator@U?$pair@$$CBKPAVCClientSock@@@std@@@3@$0A@@std@@@std@@@std@@QAEXPAU_Node@?$_Tree_nod@V?$_Tmap_traits@KPAVCClientSock@@U?$less@K@std@@V?$allocator@U?$pair@$$CBKPAVCClientSock@@@std@@@3@$0A@@std@@@2@@Z 00415bb0 f i serversock.obj
 0001:00014bc0       ??0iterator@?$_Tree@V?$_Tmap_traits@KPAVCClientSock@@U?$less@K@std@@V?$allocator@U?$pair@$$CBKPAVCClientSock@@@std@@@3@$0A@@std@@@std@@QAE@PAU_Node@?$_Tree_nod@V?$_Tmap_traits@KPAVCClientSock@@U?$less@K@std@@V?$allocator@U?$pair@$$CBKPAVCClientSock@@@std@@@3@$0A@@std@@@2@@Z 00415bc0 f i serversock.obj
 0001:00014bd0       ??Diterator@?$_Tree@V?$_Tmap_traits@KPAVCClientSock@@U?$less@K@std@@V?$allocator@U?$pair@$$CBKPAVCClientSock@@@std@@@3@$0A@@std@@@std@@QBEAAU?$pair@$$CBKPAVCClientSock@@@2@XZ 00415bd0 f i serversock.obj
 0001:00014be0       ??Econst_iterator@?$_Tree@V?$_Tmap_traits@KPAVCClientSock@@U?$less@K@std@@V?$allocator@U?$pair@$$CBKPAVCClientSock@@@std@@@3@$0A@@std@@@std@@QAEAAV012@XZ 00415be0 f i serversock.obj
 0001:00014bf0       ?max_size@?$_Tree@V?$_Tmap_traits@KPAVCClientSock@@U?$less@K@std@@V?$allocator@U?$pair@$$CBKPAVCClientSock@@@std@@@3@$0A@@std@@@std@@QBEIXZ 00415bf0 f i serversock.obj
 0001:00014c00       ?_Lbound@?$_Tree@V?$_Tmap_traits@KPAVCClientSock@@U?$less@K@std@@V?$allocator@U?$pair@$$CBKPAVCClientSock@@@std@@@3@$0A@@std@@@std@@IBEPAU_Node@?$_Tree_nod@V?$_Tmap_traits@KPAVCClientSock@@U?$less@K@std@@V?$allocator@U?$pair@$$CBKPAVCClientSock@@@std@@@3@$0A@@std@@@2@ABK@Z 00415c00 f i serversock.obj
 0001:00014c30       ?destroy@?$allocator@PAU_Node@?$_Tree_nod@V?$_Tmap_traits@KPAVCClientSock@@U?$less@K@std@@V?$allocator@U?$pair@$$CBKPAVCClientSock@@@std@@@3@$0A@@std@@@std@@@std@@QAEXPAPAU_Node@?$_Tree_nod@V?$_Tmap_traits@KPAVCClientSock@@U?$less@K@std@@V?$allocator@U?$pair@$$CBKPAVCClientSock@@@std@@@3@$0A@@std@@@2@@Z 00415c30 f i serversock.obj
 0001:00014c40       ??Fconst_iterator@?$_Tree@V?$_Tmap_traits@KPAVCClientSock@@U?$less@K@std@@V?$allocator@U?$pair@$$CBKPAVCClientSock@@@std@@@3@$0A@@std@@@std@@QAEAAV012@XZ 00415c40 f i serversock.obj
 0001:00014c50       ?allocate@?$allocator@U_Node@?$_Tree_nod@V?$_Tmap_traits@KPAVCClientSock@@U?$less@K@std@@V?$allocator@U?$pair@$$CBKPAVCClientSock@@@std@@@3@$0A@@std@@@std@@@std@@QAEPAU_Node@?$_Tree_nod@V?$_Tmap_traits@KPAVCClientSock@@U?$less@K@std@@V?$allocator@U?$pair@$$CBKPAVCClientSock@@@std@@@3@$0A@@std@@@2@I@Z 00415c50 f i serversock.obj
 0001:00014c70       ??0?$_Tree_nod@V?$_Tmap_traits@KPAVCClientSock@@U?$less@K@std@@V?$allocator@U?$pair@$$CBKPAVCClientSock@@@std@@@3@$0A@@std@@@std@@IAE@ABU?$less@K@1@V?$allocator@U?$pair@$$CBKPAVCClientSock@@@std@@@1@@Z 00415c70 f i serversock.obj
 0001:00014c80       ?construct@?$allocator@PAU_Node@?$_Tree_nod@V?$_Tmap_traits@KPAVCClientSock@@U?$less@K@std@@V?$allocator@U?$pair@$$CBKPAVCClientSock@@@std@@@3@$0A@@std@@@std@@@std@@QAEXPAPAU_Node@?$_Tree_nod@V?$_Tmap_traits@KPAVCClientSock@@U?$less@K@std@@V?$allocator@U?$pair@$$CBKPAVCClientSock@@@std@@@3@$0A@@std@@@2@ABQAU342@@Z 00415c80 f i serversock.obj
 0001:00014ca0       ?begin@?$_Tree@V?$_Tmap_traits@KPAVCClientSock@@U?$less@K@std@@V?$allocator@U?$pair@$$CBKPAVCClientSock@@@std@@@3@$0A@@std@@@std@@QAE?AViterator@12@XZ 00415ca0 f i serversock.obj
 0001:00014cb0       ?end@?$_Tree@V?$_Tmap_traits@KPAVCClientSock@@U?$less@K@std@@V?$allocator@U?$pair@$$CBKPAVCClientSock@@@std@@@3@$0A@@std@@@std@@QAE?AViterator@12@XZ 00415cb0 f i serversock.obj
 0001:00014cc0       ??Citerator@?$_Tree@V?$_Tmap_traits@KPAVCClientSock@@U?$less@K@std@@V?$allocator@U?$pair@$$CBKPAVCClientSock@@@std@@@3@$0A@@std@@@std@@QBEPAU?$pair@$$CBKPAVCClientSock@@@2@XZ 00415cc0 f i serversock.obj
 0001:00014cd0       ??Eiterator@?$_Tree@V?$_Tmap_traits@KPAVCClientSock@@U?$less@K@std@@V?$allocator@U?$pair@$$CBKPAVCClientSock@@@std@@@3@$0A@@std@@@std@@QAEAAV012@XZ 00415cd0 f i serversock.obj
 0001:00014ce0       ?lower_bound@?$_Tree@V?$_Tmap_traits@KPAVCClientSock@@U?$less@K@std@@V?$allocator@U?$pair@$$CBKPAVCClientSock@@@std@@@3@$0A@@std@@@std@@QAE?AViterator@12@ABK@Z 00415ce0 f i serversock.obj
 0001:00014d20       ?_Erase@?$_Tree@V?$_Tmap_traits@KPAVCClientSock@@U?$less@K@std@@V?$allocator@U?$pair@$$CBKPAVCClientSock@@@std@@@3@$0A@@std@@@std@@IAEXPAU_Node@?$_Tree_nod@V?$_Tmap_traits@KPAVCClientSock@@U?$less@K@std@@V?$allocator@U?$pair@$$CBKPAVCClientSock@@@std@@@3@$0A@@std@@@2@@Z 00415d20 f i serversock.obj
 0001:00014d60       ??Fiterator@?$_Tree@V?$_Tmap_traits@KPAVCClientSock@@U?$less@K@std@@V?$allocator@U?$pair@$$CBKPAVCClientSock@@@std@@@3@$0A@@std@@@std@@QAEAAV012@XZ 00415d60 f i serversock.obj
 0001:00014d70       ?_Buynode@?$_Tree@V?$_Tmap_traits@KPAVCClientSock@@U?$less@K@std@@V?$allocator@U?$pair@$$CBKPAVCClientSock@@@std@@@3@$0A@@std@@@std@@IAEPAU_Node@?$_Tree_nod@V?$_Tmap_traits@KPAVCClientSock@@U?$less@K@std@@V?$allocator@U?$pair@$$CBKPAVCClientSock@@@std@@@3@$0A@@std@@@2@PAU342@00ABU?$pair@$$CBKPAVCClientSock@@@2@D@Z 00415d70 f i serversock.obj
 0001:00014db0       ?_Buynode@?$_Tree@V?$_Tmap_traits@KPAVCClientSock@@U?$less@K@std@@V?$allocator@U?$pair@$$CBKPAVCClientSock@@@std@@@3@$0A@@std@@@std@@IAEPAU_Node@?$_Tree_nod@V?$_Tmap_traits@KPAVCClientSock@@U?$less@K@std@@V?$allocator@U?$pair@$$CBKPAVCClientSock@@@std@@@3@$0A@@std@@@2@XZ 00415db0 f i serversock.obj
 0001:00014df0       ??0?$_Tree_ptr@V?$_Tmap_traits@KPAVCClientSock@@U?$less@K@std@@V?$allocator@U?$pair@$$CBKPAVCClientSock@@@std@@@3@$0A@@std@@@std@@IAE@ABU?$less@K@1@V?$allocator@U?$pair@$$CBKPAVCClientSock@@@std@@@1@@Z 00415df0 f i serversock.obj
 0001:00014e00       ??Eiterator@?$_Tree@V?$_Tmap_traits@KPAVCClientSock@@U?$less@K@std@@V?$allocator@U?$pair@$$CBKPAVCClientSock@@@std@@@3@$0A@@std@@@std@@QAE?AV012@H@Z 00415e00 f i serversock.obj
 0001:00014e20       ?ShutdownAddr@CServerSock@@QAEXK@Z 00415e20 f   serversock.obj
 0001:00014e90       ?Send@CServerSock@@UAEXPADKK@Z 00415e90 f   serversock.obj
 0001:00014f70       ?ListenThread@@YGIPAX@Z    00415f70 f   serversock.obj
 0001:00015140       ?clear@?$_Tree@V?$_Tmap_traits@KPAVCClientSock@@U?$less@K@std@@V?$allocator@U?$pair@$$CBKPAVCClientSock@@@std@@@3@$0A@@std@@@std@@QAEXXZ 00416140 f i serversock.obj
 0001:00015170       ?find@?$_Tree@V?$_Tmap_traits@KPAVCClientSock@@U?$less@K@std@@V?$allocator@U?$pair@$$CBKPAVCClientSock@@@std@@@3@$0A@@std@@@std@@QAE?AViterator@12@ABK@Z 00416170 f i serversock.obj
 0001:000151e0       ?_Init@?$_Tree@V?$_Tmap_traits@KPAVCClientSock@@U?$less@K@std@@V?$allocator@U?$pair@$$CBKPAVCClientSock@@@std@@@3@$0A@@std@@@std@@IAEXXZ 004161e0 f i serversock.obj
 0001:00015210       ??0?$_Tree_val@V?$_Tmap_traits@KPAVCClientSock@@U?$less@K@std@@V?$allocator@U?$pair@$$CBKPAVCClientSock@@@std@@@3@$0A@@std@@@std@@IAE@ABU?$less@K@1@V?$allocator@U?$pair@$$CBKPAVCClientSock@@@std@@@1@@Z 00416210 f i serversock.obj
 0001:00015220       ?StartServer@CServerSock@@QAEHPAPAXK@Z 00416220 f   serversock.obj
 0001:000152b0       ?CloseAllChild@CServerSock@@QAEXXZ 004162b0 f   serversock.obj
 0001:00015390       ??0?$_Tree@V?$_Tmap_traits@KPAVCClientSock@@U?$less@K@std@@V?$allocator@U?$pair@$$CBKPAVCClientSock@@@std@@@3@$0A@@std@@@std@@QAE@ABU?$less@K@1@ABV?$allocator@U?$pair@$$CBKPAVCClientSock@@@std@@@1@@Z 00416390 f i serversock.obj
 0001:000153c0       ?Close@CServerSock@@UAEXXZ 004163c0 f   serversock.obj
 0001:00015420       ?erase@?$_Tree@V?$_Tmap_traits@KPAVCClientSock@@U?$less@K@std@@V?$allocator@U?$pair@$$CBKPAVCClientSock@@@std@@@3@$0A@@std@@@std@@QAE?AViterator@12@V312@@Z 00416420 f i serversock.obj
 0001:000156e0       ?_Insert@?$_Tree@V?$_Tmap_traits@KPAVCClientSock@@U?$less@K@std@@V?$allocator@U?$pair@$$CBKPAVCClientSock@@@std@@@3@$0A@@std@@@std@@IAE?AViterator@12@_NPAU_Node@?$_Tree_nod@V?$_Tmap_traits@KPAVCClientSock@@U?$less@K@std@@V?$allocator@U?$pair@$$CBKPAVCClientSock@@@std@@@3@$0A@@std@@@2@ABU?$pair@$$CBKPAVCClientSock@@@2@@Z 004166e0 f i serversock.obj
 0001:00015890       ?erase@?$_Tree@V?$_Tmap_traits@KPAVCClientSock@@U?$less@K@std@@V?$allocator@U?$pair@$$CBKPAVCClientSock@@@std@@@3@$0A@@std@@@std@@QAE?AViterator@12@V312@0@Z 00416890 f i serversock.obj
 0001:00015950       ?CloseChild@CServerSock@@QAEHI@Z 00416950 f   serversock.obj
 0001:00015a10       ?CloseConnection@CServerSock@@UAEHI@Z 00416a10 f   serversock.obj
 0001:00015a20       ?insert@?$_Tree@V?$_Tmap_traits@KPAVCClientSock@@U?$less@K@std@@V?$allocator@U?$pair@$$CBKPAVCClientSock@@@std@@@3@$0A@@std@@@std@@QAE?AU?$pair@Viterator@?$_Tree@V?$_Tmap_traits@KPAVCClientSock@@U?$less@K@std@@V?$allocator@U?$pair@$$CBKPAVCClientSock@@@std@@@3@$0A@@std@@@std@@_N@2@ABU?$pair@$$CBKPAVCClientSock@@@2@@Z 00416a20 f i serversock.obj
 0001:00015ae0       ?_Tidy@?$_Tree@V?$_Tmap_traits@KPAVCClientSock@@U?$less@K@std@@V?$allocator@U?$pair@$$CBKPAVCClientSock@@@std@@@3@$0A@@std@@@std@@IAEXXZ 00416ae0 f i serversock.obj
 0001:00015b10       ??1?$_Tree@V?$_Tmap_traits@KPAVCClientSock@@U?$less@K@std@@V?$allocator@U?$pair@$$CBKPAVCClientSock@@@std@@@3@$0A@@std@@@std@@QAE@XZ 00416b10 f i serversock.obj
 0001:00015b40       ??1?$map@KPAVCClientSock@@U?$less@K@std@@V?$allocator@U?$pair@$$CBKPAVCClientSock@@@std@@@3@@std@@QAE@XZ 00416b40 f i serversock.obj
 0001:00015b70       ??0?$map@KPAVCClientSock@@U?$less@K@std@@V?$allocator@U?$pair@$$CBKPAVCClientSock@@@std@@@3@@std@@QAE@XZ 00416b70 f i serversock.obj
 0001:00015ba0       ??0CMapChild@@QAE@XZ       00416ba0 f i serversock.obj
 0001:00015bf0       ??1CMapChild@@UAE@XZ       00416bf0 f i serversock.obj
 0001:00015c40       ??_GCMapChild@@UAEPAXI@Z   00416c40 f i serversock.obj
 0001:00015c40       ??_ECMapChild@@UAEPAXI@Z   00416c40 f i serversock.obj
 0001:00015c60       ??0CServerSock@@QAE@K@Z    00416c60 f   serversock.obj
 0001:00015d00       ?SetProtocolId@CSock@@UAEXK@Z 00416d00 f i serversock.obj
 0001:00015d10       ?Get@CServerSock@@UAEPAVCSock@@I@Z 00416d10 f i serversock.obj
 0001:00015d50       ??1CServerSock@@UAE@XZ     00416d50 f   serversock.obj
 0001:00015df0       ??_ECServerSock@@UAEPAXI@Z 00416df0 f i serversock.obj
 0001:00015df0       ??_GCServerSock@@UAEPAXI@Z 00416df0 f i serversock.obj
 0001:00015e10       ?AddChild@CServerSock@@QAEPAVCClientSock@@I@Z 00416e10 f   serversock.obj
 0001:00015ee0       ?AllocAndAssoc@CServerSock@@QAEHIK@Z 00416ee0 f   serversock.obj
 0001:00015f50       ?GetListenHandle@CServerSockE@@QAEPAXXZ 00416f50 f i serversocke.obj
 0001:00015f60       ?GetCloseHandle@CServerSockE@@QAEPAXXZ 00416f60 f i serversocke.obj
 0001:00015f70       ?Listen@CServerSockE@@QAEHXZ 00416f70 f   serversocke.obj
 0001:00015fb0       ?Shutdown@CServerSockE@@UAEHI@Z 00416fb0 f   serversocke.obj
 0001:00015fc0       ?GetPeerAddr@CServerSockE@@UAEJKPAXPAK@Z 00416fc0 f   serversocke.obj
 0001:00016080       ??0?$pair@$$CBKPAVCClientSockE@@@std@@QAE@ABKABQAVCClientSockE@@@Z 00417080 f i serversocke.obj
 0001:000160a0       ?_Color@?$_Tree@V?$_Tmap_traits@KPAVCClientSockE@@U?$less@K@std@@V?$allocator@U?$pair@$$CBKPAVCClientSockE@@@std@@@3@$0A@@std@@@std@@KAAADPAU_Node@?$_Tree_nod@V?$_Tmap_traits@KPAVCClientSockE@@U?$less@K@std@@V?$allocator@U?$pair@$$CBKPAVCClientSockE@@@std@@@3@$0A@@std@@@2@@Z 004170a0 f i serversocke.obj
 0001:000160b0       ?_Isnil@?$_Tree@V?$_Tmap_traits@KPAVCClientSockE@@U?$less@K@std@@V?$allocator@U?$pair@$$CBKPAVCClientSockE@@@std@@@3@$0A@@std@@@std@@KAAADPAU_Node@?$_Tree_nod@V?$_Tmap_traits@KPAVCClientSockE@@U?$less@K@std@@V?$allocator@U?$pair@$$CBKPAVCClientSockE@@@std@@@3@$0A@@std@@@2@@Z 004170b0 f i serversocke.obj
 0001:000160c0       ?_Left@?$_Tree@V?$_Tmap_traits@KPAVCClientSockE@@U?$less@K@std@@V?$allocator@U?$pair@$$CBKPAVCClientSockE@@@std@@@3@$0A@@std@@@std@@KAAAPAU_Node@?$_Tree_nod@V?$_Tmap_traits@KPAVCClientSockE@@U?$less@K@std@@V?$allocator@U?$pair@$$CBKPAVCClientSockE@@@std@@@3@$0A@@std@@@2@PAU342@@Z 004170c0 f i serversocke.obj
 0001:000160d0       ?_Parent@?$_Tree@V?$_Tmap_traits@KPAVCClientSockE@@U?$less@K@std@@V?$allocator@U?$pair@$$CBKPAVCClientSockE@@@std@@@3@$0A@@std@@@std@@KAAAPAU_Node@?$_Tree_nod@V?$_Tmap_traits@KPAVCClientSockE@@U?$less@K@std@@V?$allocator@U?$pair@$$CBKPAVCClientSockE@@@std@@@3@$0A@@std@@@2@PAU342@@Z 004170d0 f i serversocke.obj
 0001:000160e0       ?_Right@?$_Tree@V?$_Tmap_traits@KPAVCClientSockE@@U?$less@K@std@@V?$allocator@U?$pair@$$CBKPAVCClientSockE@@@std@@@3@$0A@@std@@@std@@KAAAPAU_Node@?$_Tree_nod@V?$_Tmap_traits@KPAVCClientSockE@@U?$less@K@std@@V?$allocator@U?$pair@$$CBKPAVCClientSockE@@@std@@@3@$0A@@std@@@2@PAU342@@Z 004170e0 f i serversocke.obj
 0001:000160f0       ?_Lmost@?$_Tree@V?$_Tmap_traits@KPAVCClientSockE@@U?$less@K@std@@V?$allocator@U?$pair@$$CBKPAVCClientSockE@@@std@@@3@$0A@@std@@@std@@IAEAAPAU_Node@?$_Tree_nod@V?$_Tmap_traits@KPAVCClientSockE@@U?$less@K@std@@V?$allocator@U?$pair@$$CBKPAVCClientSockE@@@std@@@3@$0A@@std@@@2@XZ 004170f0 f i serversocke.obj
 0001:00016100       ?_Max@?$_Tree@V?$_Tmap_traits@KPAVCClientSockE@@U?$less@K@std@@V?$allocator@U?$pair@$$CBKPAVCClientSockE@@@std@@@3@$0A@@std@@@std@@KAPAU_Node@?$_Tree_nod@V?$_Tmap_traits@KPAVCClientSockE@@U?$less@K@std@@V?$allocator@U?$pair@$$CBKPAVCClientSockE@@@std@@@3@$0A@@std@@@2@PAU342@@Z 00417100 f i serversocke.obj
 0001:00016120       ?_Min@?$_Tree@V?$_Tmap_traits@KPAVCClientSockE@@U?$less@K@std@@V?$allocator@U?$pair@$$CBKPAVCClientSockE@@@std@@@3@$0A@@std@@@std@@KAPAU_Node@?$_Tree_nod@V?$_Tmap_traits@KPAVCClientSockE@@U?$less@K@std@@V?$allocator@U?$pair@$$CBKPAVCClientSockE@@@std@@@3@$0A@@std@@@2@PAU342@@Z 00417120 f i serversocke.obj
 0001:00016140       ?_Rmost@?$_Tree@V?$_Tmap_traits@KPAVCClientSockE@@U?$less@K@std@@V?$allocator@U?$pair@$$CBKPAVCClientSockE@@@std@@@3@$0A@@std@@@std@@IAEAAPAU_Node@?$_Tree_nod@V?$_Tmap_traits@KPAVCClientSockE@@U?$less@K@std@@V?$allocator@U?$pair@$$CBKPAVCClientSockE@@@std@@@3@$0A@@std@@@2@XZ 00417140 f i serversocke.obj
 0001:00016150       ?_Root@?$_Tree@V?$_Tmap_traits@KPAVCClientSockE@@U?$less@K@std@@V?$allocator@U?$pair@$$CBKPAVCClientSockE@@@std@@@3@$0A@@std@@@std@@IAEAAPAU_Node@?$_Tree_nod@V?$_Tmap_traits@KPAVCClientSockE@@U?$less@K@std@@V?$allocator@U?$pair@$$CBKPAVCClientSockE@@@std@@@3@$0A@@std@@@2@XZ 00417150 f i serversocke.obj
 0001:00016160       ?_Rrotate@?$_Tree@V?$_Tmap_traits@KPAVCClientSockE@@U?$less@K@std@@V?$allocator@U?$pair@$$CBKPAVCClientSockE@@@std@@@3@$0A@@std@@@std@@IAEXPAU_Node@?$_Tree_nod@V?$_Tmap_traits@KPAVCClientSockE@@U?$less@K@std@@V?$allocator@U?$pair@$$CBKPAVCClientSockE@@@std@@@3@$0A@@std@@@2@@Z 00417160 f i serversocke.obj
 0001:000161c0       ?_Kfn@?$_Tmap_traits@KPAVCClientSockE@@U?$less@K@std@@V?$allocator@U?$pair@$$CBKPAVCClientSockE@@@std@@@3@$0A@@std@@SAABKABU?$pair@$$CBKPAVCClientSockE@@@2@@Z 004171c0 f i serversocke.obj
 0001:000161d0       ??0?$allocator@U?$pair@$$CBKPAVCClientSockE@@@std@@@std@@QAE@XZ 004171d0 f i serversocke.obj
 0001:000161e0       ?deallocate@?$allocator@U_Node@?$_Tree_nod@V?$_Tmap_traits@KPAVCClientSockE@@U?$less@K@std@@V?$allocator@U?$pair@$$CBKPAVCClientSockE@@@std@@@3@$0A@@std@@@std@@@std@@QAEXPAU_Node@?$_Tree_nod@V?$_Tmap_traits@KPAVCClientSockE@@U?$less@K@std@@V?$allocator@U?$pair@$$CBKPAVCClientSockE@@@std@@@3@$0A@@std@@@2@I@Z 004171e0 f i serversocke.obj
 0001:000161f0       ??8const_iterator@?$_Tree@V?$_Tmap_traits@KPAVCClientSockE@@U?$less@K@std@@V?$allocator@U?$pair@$$CBKPAVCClientSockE@@@std@@@3@$0A@@std@@@std@@QBE_NABV012@@Z 004171f0 f i serversocke.obj
 0001:00016200       ?_Mynode@const_iterator@?$_Tree@V?$_Tmap_traits@KPAVCClientSockE@@U?$less@K@std@@V?$allocator@U?$pair@$$CBKPAVCClientSockE@@@std@@@3@$0A@@std@@@std@@QBEPAU_Node@?$_Tree_nod@V?$_Tmap_traits@KPAVCClientSockE@@U?$less@K@std@@V?$allocator@U?$pair@$$CBKPAVCClientSockE@@@std@@@3@$0A@@std@@@3@XZ 00417200 f i serversocke.obj
 0001:00016210       ??0?$pair@Viterator@?$_Tree@V?$_Tmap_traits@KPAVCClientSockE@@U?$less@K@std@@V?$allocator@U?$pair@$$CBKPAVCClientSockE@@@std@@@3@$0A@@std@@@std@@_N@std@@QAE@ABViterator@?$_Tree@V?$_Tmap_traits@KPAVCClientSockE@@U?$less@K@std@@V?$allocator@U?$pair@$$CBKPAVCClientSockE@@@std@@@3@$0A@@std@@@1@AB_N@Z 00417210 f i serversocke.obj
 0001:00016230       ?_Myval@?$_Tree@V?$_Tmap_traits@KPAVCClientSockE@@U?$less@K@std@@V?$allocator@U?$pair@$$CBKPAVCClientSockE@@@std@@@3@$0A@@std@@@std@@KAAAU?$pair@$$CBKPAVCClientSockE@@@2@PAU_Node@?$_Tree_nod@V?$_Tmap_traits@KPAVCClientSockE@@U?$less@K@std@@V?$allocator@U?$pair@$$CBKPAVCClientSockE@@@std@@@3@$0A@@std@@@2@@Z 00417230 f i serversocke.obj
 0001:00016240       ??0?$allocator@U?$pair@$$CBKPAVCClientSockE@@@std@@@std@@QAE@ABV01@@Z 00417240 f i serversocke.obj
 0001:00016250       ??0const_iterator@?$_Tree@V?$_Tmap_traits@KPAVCClientSockE@@U?$less@K@std@@V?$allocator@U?$pair@$$CBKPAVCClientSockE@@@std@@@3@$0A@@std@@@std@@QAE@PAU_Node@?$_Tree_nod@V?$_Tmap_traits@KPAVCClientSockE@@U?$less@K@std@@V?$allocator@U?$pair@$$CBKPAVCClientSockE@@@std@@@3@$0A@@std@@@2@@Z 00417250 f i serversocke.obj
 0001:00016260       ??Dconst_iterator@?$_Tree@V?$_Tmap_traits@KPAVCClientSockE@@U?$less@K@std@@V?$allocator@U?$pair@$$CBKPAVCClientSockE@@@std@@@3@$0A@@std@@@std@@QBEABU?$pair@$$CBKPAVCClientSockE@@@2@XZ 00417260 f i serversocke.obj
 0001:00016270       ?_Inc@const_iterator@?$_Tree@V?$_Tmap_traits@KPAVCClientSockE@@U?$less@K@std@@V?$allocator@U?$pair@$$CBKPAVCClientSockE@@@std@@@3@$0A@@std@@@std@@QAEXXZ 00417270 f i serversocke.obj
 0001:000162d0       ?_Root@?$_Tree@V?$_Tmap_traits@KPAVCClientSockE@@U?$less@K@std@@V?$allocator@U?$pair@$$CBKPAVCClientSockE@@@std@@@3@$0A@@std@@@std@@IBEAAPAU_Node@?$_Tree_nod@V?$_Tmap_traits@KPAVCClientSockE@@U?$less@K@std@@V?$allocator@U?$pair@$$CBKPAVCClientSockE@@@std@@@3@$0A@@std@@@2@XZ 004172d0 f i serversocke.obj
 0001:000162e0       ?max_size@?$allocator@U?$pair@$$CBKPAVCClientSockE@@@std@@@std@@QBEIXZ 004172e0 f i serversocke.obj
 0001:000162f0       ?_Dec@const_iterator@?$_Tree@V?$_Tmap_traits@KPAVCClientSockE@@U?$less@K@std@@V?$allocator@U?$pair@$$CBKPAVCClientSockE@@@std@@@3@$0A@@std@@@std@@QAEXXZ 004172f0 f i serversocke.obj
 0001:00016350       ??0_Node@?$_Tree_nod@V?$_Tmap_traits@KPAVCClientSockE@@U?$less@K@std@@V?$allocator@U?$pair@$$CBKPAVCClientSockE@@@std@@@3@$0A@@std@@@std@@QAE@PAU012@00ABU?$pair@$$CBKPAVCClientSockE@@@2@D@Z 00417350 f i serversocke.obj
 0001:00016390       ??0?$_Tmap_traits@KPAVCClientSockE@@U?$less@K@std@@V?$allocator@U?$pair@$$CBKPAVCClientSockE@@@std@@@3@$0A@@std@@QAE@U?$less@K@1@@Z 00417390 f i serversocke.obj
 0001:000163a0       ??$_Destroy@U_Node@?$_Tree_nod@V?$_Tmap_traits@KPAVCClientSockE@@U?$less@K@std@@V?$allocator@U?$pair@$$CBKPAVCClientSockE@@@std@@@3@$0A@@std@@@std@@@std@@YAXPAU_Node@?$_Tree_nod@V?$_Tmap_traits@KPAVCClientSockE@@U?$less@K@std@@V?$allocator@U?$pair@$$CBKPAVCClientSockE@@@std@@@3@$0A@@std@@@0@@Z 004173a0 f i serversocke.obj
 0001:000163b0       ??$_Destroy@PAU_Node@?$_Tree_nod@V?$_Tmap_traits@KPAVCClientSockE@@U?$less@K@std@@V?$allocator@U?$pair@$$CBKPAVCClientSockE@@@std@@@3@$0A@@std@@@std@@@std@@YAXPAPAU_Node@?$_Tree_nod@V?$_Tmap_traits@KPAVCClientSockE@@U?$less@K@std@@V?$allocator@U?$pair@$$CBKPAVCClientSockE@@@std@@@3@$0A@@std@@@0@@Z 004173b0 f i serversocke.obj
 0001:000163c0       ??$?0U?$pair@$$CBKPAVCClientSockE@@@std@@@?$allocator@PAU_Node@?$_Tree_nod@V?$_Tmap_traits@KPAVCClientSockE@@U?$less@K@std@@V?$allocator@U?$pair@$$CBKPAVCClientSockE@@@std@@@3@$0A@@std@@@std@@@std@@QAE@ABV?$allocator@U?$pair@$$CBKPAVCClientSockE@@@std@@@1@@Z 004173c0 f i serversocke.obj
 0001:000163d0       ??$_Allocate@U_Node@?$_Tree_nod@V?$_Tmap_traits@KPAVCClientSockE@@U?$less@K@std@@V?$allocator@U?$pair@$$CBKPAVCClientSockE@@@std@@@3@$0A@@std@@@std@@@std@@YAPAU_Node@?$_Tree_nod@V?$_Tmap_traits@KPAVCClientSockE@@U?$less@K@std@@V?$allocator@U?$pair@$$CBKPAVCClientSockE@@@std@@@3@$0A@@std@@@0@IPAU120@@Z 004173d0 f i serversocke.obj
 0001:000163f0       ??$?0U?$pair@$$CBKPAVCClientSockE@@@std@@@?$allocator@U_Node@?$_Tree_nod@V?$_Tmap_traits@KPAVCClientSockE@@U?$less@K@std@@V?$allocator@U?$pair@$$CBKPAVCClientSockE@@@std@@@3@$0A@@std@@@std@@@std@@QAE@ABV?$allocator@U?$pair@$$CBKPAVCClientSockE@@@std@@@1@@Z 004173f0 f i serversocke.obj
 0001:00016400       ??$_Construct@PAU_Node@?$_Tree_nod@V?$_Tmap_traits@KPAVCClientSockE@@U?$less@K@std@@V?$allocator@U?$pair@$$CBKPAVCClientSockE@@@std@@@3@$0A@@std@@@std@@PAU123@@std@@YAXPAPAU_Node@?$_Tree_nod@V?$_Tmap_traits@KPAVCClientSockE@@U?$less@K@std@@V?$allocator@U?$pair@$$CBKPAVCClientSockE@@@std@@@3@$0A@@std@@@0@ABQAU120@@Z 00417400 f i serversocke.obj
 0001:00016420       ?Lock@CMapChildE@@QAEXXZ   00417420 f i serversocke.obj
 0001:00016430       ?Unlock@CMapChildE@@QAEXXZ 00417430 f i serversocke.obj
 0001:00016440       ??9const_iterator@?$_Tree@V?$_Tmap_traits@KPAVCClientSockE@@U?$less@K@std@@V?$allocator@U?$pair@$$CBKPAVCClientSockE@@@std@@@3@$0A@@std@@@std@@QBE_NABV012@@Z 00417440 f i serversocke.obj
 0001:00016460       ?_Key@?$_Tree@V?$_Tmap_traits@KPAVCClientSockE@@U?$less@K@std@@V?$allocator@U?$pair@$$CBKPAVCClientSockE@@@std@@@3@$0A@@std@@@std@@KAABKPAU_Node@?$_Tree_nod@V?$_Tmap_traits@KPAVCClientSockE@@U?$less@K@std@@V?$allocator@U?$pair@$$CBKPAVCClientSockE@@@std@@@3@$0A@@std@@@2@@Z 00417460 f i serversocke.obj
 0001:00016470       ?_Lrotate@?$_Tree@V?$_Tmap_traits@KPAVCClientSockE@@U?$less@K@std@@V?$allocator@U?$pair@$$CBKPAVCClientSockE@@@std@@@3@$0A@@std@@@std@@IAEXPAU_Node@?$_Tree_nod@V?$_Tmap_traits@KPAVCClientSockE@@U?$less@K@std@@V?$allocator@U?$pair@$$CBKPAVCClientSockE@@@std@@@3@$0A@@std@@@2@@Z 00417470 f i serversocke.obj
 0001:000164d0       ?destroy@?$allocator@U_Node@?$_Tree_nod@V?$_Tmap_traits@KPAVCClientSockE@@U?$less@K@std@@V?$allocator@U?$pair@$$CBKPAVCClientSockE@@@std@@@3@$0A@@std@@@std@@@std@@QAEXPAU_Node@?$_Tree_nod@V?$_Tmap_traits@KPAVCClientSockE@@U?$less@K@std@@V?$allocator@U?$pair@$$CBKPAVCClientSockE@@@std@@@3@$0A@@std@@@2@@Z 004174d0 f i serversocke.obj
 0001:000164e0       ??0iterator@?$_Tree@V?$_Tmap_traits@KPAVCClientSockE@@U?$less@K@std@@V?$allocator@U?$pair@$$CBKPAVCClientSockE@@@std@@@3@$0A@@std@@@std@@QAE@PAU_Node@?$_Tree_nod@V?$_Tmap_traits@KPAVCClientSockE@@U?$less@K@std@@V?$allocator@U?$pair@$$CBKPAVCClientSockE@@@std@@@3@$0A@@std@@@2@@Z 004174e0 f i serversocke.obj
 0001:000164f0       ??Diterator@?$_Tree@V?$_Tmap_traits@KPAVCClientSockE@@U?$less@K@std@@V?$allocator@U?$pair@$$CBKPAVCClientSockE@@@std@@@3@$0A@@std@@@std@@QBEAAU?$pair@$$CBKPAVCClientSockE@@@2@XZ 004174f0 f i serversocke.obj
 0001:00016500       ??Econst_iterator@?$_Tree@V?$_Tmap_traits@KPAVCClientSockE@@U?$less@K@std@@V?$allocator@U?$pair@$$CBKPAVCClientSockE@@@std@@@3@$0A@@std@@@std@@QAEAAV012@XZ 00417500 f i serversocke.obj
 0001:00016510       ?max_size@?$_Tree@V?$_Tmap_traits@KPAVCClientSockE@@U?$less@K@std@@V?$allocator@U?$pair@$$CBKPAVCClientSockE@@@std@@@3@$0A@@std@@@std@@QBEIXZ 00417510 f i serversocke.obj
 0001:00016520       ?_Lbound@?$_Tree@V?$_Tmap_traits@KPAVCClientSockE@@U?$less@K@std@@V?$allocator@U?$pair@$$CBKPAVCClientSockE@@@std@@@3@$0A@@std@@@std@@IBEPAU_Node@?$_Tree_nod@V?$_Tmap_traits@KPAVCClientSockE@@U?$less@K@std@@V?$allocator@U?$pair@$$CBKPAVCClientSockE@@@std@@@3@$0A@@std@@@2@ABK@Z 00417520 f i serversocke.obj
 0001:00016550       ?destroy@?$allocator@PAU_Node@?$_Tree_nod@V?$_Tmap_traits@KPAVCClientSockE@@U?$less@K@std@@V?$allocator@U?$pair@$$CBKPAVCClientSockE@@@std@@@3@$0A@@std@@@std@@@std@@QAEXPAPAU_Node@?$_Tree_nod@V?$_Tmap_traits@KPAVCClientSockE@@U?$less@K@std@@V?$allocator@U?$pair@$$CBKPAVCClientSockE@@@std@@@3@$0A@@std@@@2@@Z 00417550 f i serversocke.obj
 0001:00016560       ??Fconst_iterator@?$_Tree@V?$_Tmap_traits@KPAVCClientSockE@@U?$less@K@std@@V?$allocator@U?$pair@$$CBKPAVCClientSockE@@@std@@@3@$0A@@std@@@std@@QAEAAV012@XZ 00417560 f i serversocke.obj
 0001:00016570       ?allocate@?$allocator@U_Node@?$_Tree_nod@V?$_Tmap_traits@KPAVCClientSockE@@U?$less@K@std@@V?$allocator@U?$pair@$$CBKPAVCClientSockE@@@std@@@3@$0A@@std@@@std@@@std@@QAEPAU_Node@?$_Tree_nod@V?$_Tmap_traits@KPAVCClientSockE@@U?$less@K@std@@V?$allocator@U?$pair@$$CBKPAVCClientSockE@@@std@@@3@$0A@@std@@@2@I@Z 00417570 f i serversocke.obj
 0001:00016590       ??0?$_Tree_nod@V?$_Tmap_traits@KPAVCClientSockE@@U?$less@K@std@@V?$allocator@U?$pair@$$CBKPAVCClientSockE@@@std@@@3@$0A@@std@@@std@@IAE@ABU?$less@K@1@V?$allocator@U?$pair@$$CBKPAVCClientSockE@@@std@@@1@@Z 00417590 f i serversocke.obj
 0001:000165a0       ?construct@?$allocator@PAU_Node@?$_Tree_nod@V?$_Tmap_traits@KPAVCClientSockE@@U?$less@K@std@@V?$allocator@U?$pair@$$CBKPAVCClientSockE@@@std@@@3@$0A@@std@@@std@@@std@@QAEXPAPAU_Node@?$_Tree_nod@V?$_Tmap_traits@KPAVCClientSockE@@U?$less@K@std@@V?$allocator@U?$pair@$$CBKPAVCClientSockE@@@std@@@3@$0A@@std@@@2@ABQAU342@@Z 004175a0 f i serversocke.obj
 0001:000165c0       ?begin@?$_Tree@V?$_Tmap_traits@KPAVCClientSockE@@U?$less@K@std@@V?$allocator@U?$pair@$$CBKPAVCClientSockE@@@std@@@3@$0A@@std@@@std@@QAE?AViterator@12@XZ 004175c0 f i serversocke.obj
 0001:000165d0       ?end@?$_Tree@V?$_Tmap_traits@KPAVCClientSockE@@U?$less@K@std@@V?$allocator@U?$pair@$$CBKPAVCClientSockE@@@std@@@3@$0A@@std@@@std@@QAE?AViterator@12@XZ 004175d0 f i serversocke.obj
 0001:000165e0       ??Citerator@?$_Tree@V?$_Tmap_traits@KPAVCClientSockE@@U?$less@K@std@@V?$allocator@U?$pair@$$CBKPAVCClientSockE@@@std@@@3@$0A@@std@@@std@@QBEPAU?$pair@$$CBKPAVCClientSockE@@@2@XZ 004175e0 f i serversocke.obj
 0001:000165f0       ??Eiterator@?$_Tree@V?$_Tmap_traits@KPAVCClientSockE@@U?$less@K@std@@V?$allocator@U?$pair@$$CBKPAVCClientSockE@@@std@@@3@$0A@@std@@@std@@QAEAAV012@XZ 004175f0 f i serversocke.obj
 0001:00016600       ?lower_bound@?$_Tree@V?$_Tmap_traits@KPAVCClientSockE@@U?$less@K@std@@V?$allocator@U?$pair@$$CBKPAVCClientSockE@@@std@@@3@$0A@@std@@@std@@QAE?AViterator@12@ABK@Z 00417600 f i serversocke.obj
 0001:00016640       ?_Erase@?$_Tree@V?$_Tmap_traits@KPAVCClientSockE@@U?$less@K@std@@V?$allocator@U?$pair@$$CBKPAVCClientSockE@@@std@@@3@$0A@@std@@@std@@IAEXPAU_Node@?$_Tree_nod@V?$_Tmap_traits@KPAVCClientSockE@@U?$less@K@std@@V?$allocator@U?$pair@$$CBKPAVCClientSockE@@@std@@@3@$0A@@std@@@2@@Z 00417640 f i serversocke.obj
 0001:00016680       ??Fiterator@?$_Tree@V?$_Tmap_traits@KPAVCClientSockE@@U?$less@K@std@@V?$allocator@U?$pair@$$CBKPAVCClientSockE@@@std@@@3@$0A@@std@@@std@@QAEAAV012@XZ 00417680 f i serversocke.obj
 0001:00016690       ?_Buynode@?$_Tree@V?$_Tmap_traits@KPAVCClientSockE@@U?$less@K@std@@V?$allocator@U?$pair@$$CBKPAVCClientSockE@@@std@@@3@$0A@@std@@@std@@IAEPAU_Node@?$_Tree_nod@V?$_Tmap_traits@KPAVCClientSockE@@U?$less@K@std@@V?$allocator@U?$pair@$$CBKPAVCClientSockE@@@std@@@3@$0A@@std@@@2@PAU342@00ABU?$pair@$$CBKPAVCClientSockE@@@2@D@Z 00417690 f i serversocke.obj
 0001:000166d0       ?_Buynode@?$_Tree@V?$_Tmap_traits@KPAVCClientSockE@@U?$less@K@std@@V?$allocator@U?$pair@$$CBKPAVCClientSockE@@@std@@@3@$0A@@std@@@std@@IAEPAU_Node@?$_Tree_nod@V?$_Tmap_traits@KPAVCClientSockE@@U?$less@K@std@@V?$allocator@U?$pair@$$CBKPAVCClientSockE@@@std@@@3@$0A@@std@@@2@XZ 004176d0 f i serversocke.obj
 0001:00016710       ??0?$_Tree_ptr@V?$_Tmap_traits@KPAVCClientSockE@@U?$less@K@std@@V?$allocator@U?$pair@$$CBKPAVCClientSockE@@@std@@@3@$0A@@std@@@std@@IAE@ABU?$less@K@1@V?$allocator@U?$pair@$$CBKPAVCClientSockE@@@std@@@1@@Z 00417710 f i serversocke.obj
 0001:00016720       ??Eiterator@?$_Tree@V?$_Tmap_traits@KPAVCClientSockE@@U?$less@K@std@@V?$allocator@U?$pair@$$CBKPAVCClientSockE@@@std@@@3@$0A@@std@@@std@@QAE?AV012@H@Z 00417720 f i serversocke.obj
 0001:00016740       ?Send@CServerSockE@@UAEXPADKK@Z 00417740 f   serversocke.obj
 0001:00016820       ?clear@?$_Tree@V?$_Tmap_traits@KPAVCClientSockE@@U?$less@K@std@@V?$allocator@U?$pair@$$CBKPAVCClientSockE@@@std@@@3@$0A@@std@@@std@@QAEXXZ 00417820 f i serversocke.obj
 0001:00016850       ?find@?$_Tree@V?$_Tmap_traits@KPAVCClientSockE@@U?$less@K@std@@V?$allocator@U?$pair@$$CBKPAVCClientSockE@@@std@@@3@$0A@@std@@@std@@QAE?AViterator@12@ABK@Z 00417850 f i serversocke.obj
 0001:000168c0       ?_Init@?$_Tree@V?$_Tmap_traits@KPAVCClientSockE@@U?$less@K@std@@V?$allocator@U?$pair@$$CBKPAVCClientSockE@@@std@@@3@$0A@@std@@@std@@IAEXXZ 004178c0 f i serversocke.obj
 0001:000168f0       ??0?$_Tree_val@V?$_Tmap_traits@KPAVCClientSockE@@U?$less@K@std@@V?$allocator@U?$pair@$$CBKPAVCClientSockE@@@std@@@3@$0A@@std@@@std@@IAE@ABU?$less@K@1@V?$allocator@U?$pair@$$CBKPAVCClientSockE@@@std@@@1@@Z 004178f0 f i serversocke.obj
 0001:00016900       ?CloseAllChild@CServerSockE@@QAEXXZ 00417900 f   serversocke.obj
 0001:000169d0       ??0?$_Tree@V?$_Tmap_traits@KPAVCClientSockE@@U?$less@K@std@@V?$allocator@U?$pair@$$CBKPAVCClientSockE@@@std@@@3@$0A@@std@@@std@@QAE@ABU?$less@K@1@ABV?$allocator@U?$pair@$$CBKPAVCClientSockE@@@std@@@1@@Z 004179d0 f i serversocke.obj
 0001:00016a00       ?Close@CServerSockE@@UAEXXZ 00417a00 f   serversocke.obj
 0001:00016a60       ?erase@?$_Tree@V?$_Tmap_traits@KPAVCClientSockE@@U?$less@K@std@@V?$allocator@U?$pair@$$CBKPAVCClientSockE@@@std@@@3@$0A@@std@@@std@@QAE?AViterator@12@V312@@Z 00417a60 f i serversocke.obj
 0001:00016d20       ?_Insert@?$_Tree@V?$_Tmap_traits@KPAVCClientSockE@@U?$less@K@std@@V?$allocator@U?$pair@$$CBKPAVCClientSockE@@@std@@@3@$0A@@std@@@std@@IAE?AViterator@12@_NPAU_Node@?$_Tree_nod@V?$_Tmap_traits@KPAVCClientSockE@@U?$less@K@std@@V?$allocator@U?$pair@$$CBKPAVCClientSockE@@@std@@@3@$0A@@std@@@2@ABU?$pair@$$CBKPAVCClientSockE@@@2@@Z 00417d20 f i serversocke.obj
 0001:00016ed0       ?erase@?$_Tree@V?$_Tmap_traits@KPAVCClientSockE@@U?$less@K@std@@V?$allocator@U?$pair@$$CBKPAVCClientSockE@@@std@@@3@$0A@@std@@@std@@QAE?AViterator@12@V312@0@Z 00417ed0 f i serversocke.obj
 0001:00016f90       ?CloseChild@CServerSockE@@QAEHI@Z 00417f90 f   serversocke.obj
 0001:00017050       ?CloseConnection@CServerSockE@@UAEHI@Z 00418050 f   serversocke.obj
 0001:00017060       ?insert@?$_Tree@V?$_Tmap_traits@KPAVCClientSockE@@U?$less@K@std@@V?$allocator@U?$pair@$$CBKPAVCClientSockE@@@std@@@3@$0A@@std@@@std@@QAE?AU?$pair@Viterator@?$_Tree@V?$_Tmap_traits@KPAVCClientSockE@@U?$less@K@std@@V?$allocator@U?$pair@$$CBKPAVCClientSockE@@@std@@@3@$0A@@std@@@std@@_N@2@ABU?$pair@$$CBKPAVCClientSockE@@@2@@Z 00418060 f i serversocke.obj
 0001:00017120       ?_Tidy@?$_Tree@V?$_Tmap_traits@KPAVCClientSockE@@U?$less@K@std@@V?$allocator@U?$pair@$$CBKPAVCClientSockE@@@std@@@3@$0A@@std@@@std@@IAEXXZ 00418120 f i serversocke.obj
 0001:00017150       ??1?$_Tree@V?$_Tmap_traits@KPAVCClientSockE@@U?$less@K@std@@V?$allocator@U?$pair@$$CBKPAVCClientSockE@@@std@@@3@$0A@@std@@@std@@QAE@XZ 00418150 f i serversocke.obj
 0001:00017180       ??1?$map@KPAVCClientSockE@@U?$less@K@std@@V?$allocator@U?$pair@$$CBKPAVCClientSockE@@@std@@@3@@std@@QAE@XZ 00418180 f i serversocke.obj
 0001:000171b0       ??0?$map@KPAVCClientSockE@@U?$less@K@std@@V?$allocator@U?$pair@$$CBKPAVCClientSockE@@@std@@@3@@std@@QAE@XZ 004181b0 f i serversocke.obj
 0001:000171e0       ??0CMapChildE@@QAE@XZ      004181e0 f i serversocke.obj
 0001:00017230       ??1CMapChildE@@UAE@XZ      00418230 f i serversocke.obj
 0001:00017280       ??_GCMapChildE@@UAEPAXI@Z  00418280 f i serversocke.obj
 0001:00017280       ??_ECMapChildE@@UAEPAXI@Z  00418280 f i serversocke.obj
 0001:000172a0       ??0CServerSockE@@QAE@K@Z   004182a0 f   serversocke.obj
 0001:00017340       ?Get@CServerSockE@@UAEPAVCSock@@I@Z 00418340 f i serversocke.obj
 0001:00017380       ??1CServerSockE@@UAE@XZ    00418380 f   serversocke.obj
 0001:00017420       ??_ECServerSockE@@UAEPAXI@Z 00418420 f i serversocke.obj
 0001:00017420       ??_GCServerSockE@@UAEPAXI@Z 00418420 f i serversocke.obj
 0001:00017440       ?AddChild@CServerSockE@@QAEPAVCClientSockE@@I@Z 00418440 f   serversocke.obj
 0001:00017510       ?ListenThreadE@@YGIPAX@Z   00418510 f   serversocke.obj
 0001:00017640       ?StartServer@CServerSockE@@QAEHPAVCDPSock@@@Z 00418640 f   serversocke.obj
 0001:000176a0       ??0CSock@@QAE@XZ           004186a0 f   sock.obj
 0001:000176c0       ?Clear@CSock@@QAEXXZ       004186c0 f   sock.obj
 0001:000176f0       ?Attach@CSock@@UAEXI@Z     004186f0 f   sock.obj
 0001:00017730       ?Detach@CSock@@UAEXXZ      00418730 f   sock.obj
 0001:00017740       ?GetHostAddr@CSock@@UAEJPAXPAK@Z 00418740 f   sock.obj
 0001:000177f0       ??1CSock@@UAE@XZ           004187f0 f   sock.obj
 0001:00017830       ?Create@CSock@@UAEHGH@Z    00418830 f   sock.obj
 0001:00017940       ??_ECSock@@UAEPAXI@Z       00418940 f i sock.obj
 0001:00017940       ??_GCSock@@UAEPAXI@Z       00418940 f i sock.obj
 0001:00017990       ?_AddErrorMsg@@YAXPBD0@Z   00418990 f   exceptionhandler.obj
 0001:00017a40       ?CrashHandlerExceptionFilter@@YGJPAU_EXCEPTION_POINTERS@@@Z 00418a40 f   exceptionhandler.obj
 0001:00017ca0       ?InitEH@@YAXXZ             00418ca0 f   exceptionhandler.obj
 0001:00017ce0       ?DXUtil_GetDXSDKMediaPathCch@@YAJPADH@Z 00418ce0 f   dxutil.obj
 0001:00017dd0       ?DXUtil_WriteStringRegKey@@YAJPAUHKEY__@@PAD1@Z 00418dd0 f   dxutil.obj
 0001:00017e10       ?DXUtil_ReadIntRegKey@@YAJPAUHKEY__@@PADPAKK@Z 00418e10 f   dxutil.obj
 0001:00017e70       ?DXUtil_WriteIntRegKey@@YAJPAUHKEY__@@PADK@Z 00418e70 f   dxutil.obj
 0001:00017ea0       ?DXUtil_ReadBoolRegKey@@YAJPAUHKEY__@@PADPAHH@Z 00418ea0 f   dxutil.obj
 0001:00017f00       ?DXUtil_WriteBoolRegKey@@YAJPAUHKEY__@@PADH@Z 00418f00 f   dxutil.obj
 0001:00017f30       ?DXUtil_ReadGuidRegKey@@YAJPAUHKEY__@@PADPAU_GUID@@AAU2@@Z 00418f30 f   dxutil.obj
 0001:00017fa0       ?DXUtil_WriteGuidRegKey@@YAJPAUHKEY__@@PADU_GUID@@@Z 00418fa0 f   dxutil.obj
 0001:00018000       ?DXUtil_Timer@@YGMW4TIMER_COMMAND@@@Z 00419000 f   dxutil.obj
 0001:000183d0       __tcsncpy                  004193d0 f i dxutil.obj
 0001:000183e0       __tcsrchr                  004193e0 f i dxutil.obj
 0001:000183f0       ?DXUtil_ConvertAnsiStringToWideCch@@YAJPAGPBDH@Z 004193f0 f   dxutil.obj
 0001:00018440       ?DXUtil_ConvertWideStringToAnsiCch@@YAJPADPBGH@Z 00419440 f   dxutil.obj
 0001:00018490       ?DXUtil_ConvertGenericStringToAnsiCch@@YAJPADPBDH@Z 00419490 f   dxutil.obj
 0001:000184d0       ?DXUtil_ConvertGenericStringToWideCch@@YAJPAGPBDH@Z 004194d0 f   dxutil.obj
 0001:00018500       ?DXUtil_ConvertAnsiStringToGenericCch@@YAJPADPBDH@Z 00419500 f   dxutil.obj
 0001:00018540       ?DXUtil_ConvertWideStringToGenericCch@@YAJPADPBGH@Z 00419540 f   dxutil.obj
 0001:00018570       ?DXUtil_LaunchReadme@@YAXPAUHWND__@@PAD@Z 00419570 f   dxutil.obj
 0001:000188f0       ?DXUtil_Trace@@YAXPADZZ    004198f0 f   dxutil.obj
 0001:00018900       ?DXUtil_ConvertStringToGUID@@YAJPBDPAU_GUID@@@Z 00419900 f   dxutil.obj
 0001:000189c0       ?DXUtil_ConvertGUIDToStringCch@@YAJPBU_GUID@@PADH@Z 004199c0 f   dxutil.obj
 0001:00018a30       ??0CArrayList@@QAE@W4ArrayListType@@I@Z 00419a30 f   dxutil.obj
 0001:00018a60       ??1CArrayList@@QAE@XZ      00419a60 f   dxutil.obj
 0001:00018a70       ?Add@CArrayList@@QAEJPAX@Z 00419a70 f   dxutil.obj
 0001:00018b60       ?Remove@CArrayList@@QAEXI@Z 00419b60 f   dxutil.obj
 0001:00018ba0       ?GetPtr@CArrayList@@QAEPAXI@Z 00419ba0 f   dxutil.obj
 0001:00018bc0       ?Contains@CArrayList@@QAE_NPAX@Z 00419bc0 f   dxutil.obj
 0001:00018c10       ?DXUtil_ConvertAnsiStringToWideCb@@YAJPAGPBDH@Z 00419c10 f   dxutil.obj
 0001:00018c60       ?DXUtil_ConvertWideStringToAnsiCb@@YAJPADPBGH@Z 00419c60 f   dxutil.obj
 0001:00018cb0       ?DXUtil_ConvertGenericStringToAnsiCb@@YAJPADPBDH@Z 00419cb0 f   dxutil.obj
 0001:00018cf0       ?DXUtil_ConvertGenericStringToWideCb@@YAJPAGPBDH@Z 00419cf0 f   dxutil.obj
 0001:00018d30       ?DXUtil_ConvertAnsiStringToGenericCb@@YAJPADPBDH@Z 00419d30 f   dxutil.obj
 0001:00018d70       ?DXUtil_ConvertWideStringToGenericCb@@YAJPADPBGH@Z 00419d70 f   dxutil.obj
 0001:00018da0       ?DXUtil_ConvertGUIDToStringCb@@YAJPBU_GUID@@PADH@Z 00419da0 f   dxutil.obj
 0001:00018db0       ?DXUtil_GetDXSDKMediaPathCb@@YAJPADH@Z 00419db0 f   dxutil.obj
 0001:00018dc0       ?DXUtil_FindMediaFileCch@@YAJPADH0@Z 00419dc0 f   dxutil.obj
 0001:00018f80       ?DXUtil_ReadStringRegKeyCch@@YAJPAUHKEY__@@PAD1K1@Z 00419f80 f   dxutil.obj
 0001:00018fe0       ?DXUtil_ReadStringRegKeyCb@@YAJPAUHKEY__@@PAD1K1@Z 00419fe0 f   dxutil.obj
 0001:00018ff0       ?DXUtil_FindMediaFileCb@@YAJPADH0@Z 00419ff0 f   dxutil.obj
 0001:00019000       ?OUTPUTDEBUGSTRING@@YAXPBDZZ 0041a000 f   debug.obj
 0001:00019070       ?MakeFileNameDate@@YAPBDPBD@Z 0041a070 f   debug.obj
 0001:000192d0       ?DEBUGOUT2@@YAXPBD0@Z      0041a2d0 f   debug.obj
 0001:00019330       ?FILEOUT@@YAXPBD0ZZ        0041a330 f   debug.obj
 0001:00019350       ?WriteLog@@YAXPBDZZ        0041a350 f   debug.obj
 0001:00019370       ?WriteError@@YAXPBDZZ      0041a370 f   debug.obj
 0001:00019390       ?Close@CFileIO@@UAEHXZ     0041a390 f   file.obj
 0001:000193c0       ?Open@CFileIO@@UAEHPBDPAD@Z 0041a3c0 f   file.obj
 0001:000193f0       ?Read@CFileIO@@UAEPAXXZ    0041a3f0 f   file.obj
 0001:00019450       ??0CFileFinder@@QAE@XZ     0041a450 f   file.obj
 0001:00019460       ??1CFileFinder@@QAE@XZ     0041a460 f   file.obj
 0001:00019470       ?WildCmp@CFileFinder@@QAEHPBD0@Z 0041a470 f   file.obj
 0001:00019510       ?FindFirst@CFileFinder@@QAEHPBDPAU_finddata_t@@@Z 0041a510 f   file.obj
 0001:00019540       ?FindNext@CFileFinder@@QAEHPAU_finddata_t@@@Z 0041a540 f   file.obj
 0001:00019560       ?FindClose@CFileFinder@@QAEXXZ 0041a560 f   file.obj
 0001:00019580       ?_mbstowcsz@ATL@@YAHPAGPBDK@Z 0041a580 f i file.obj
 0001:000195d0       ?Write@CFileIO@@QAEIPAXII@Z 0041a5d0 f i file.obj
 0001:000195f0       ?PutWideString@CFileIO@@QAEHPBD@Z 0041a5f0 f   file.obj
 0001:00019690       ?GetTime@CTimer@@QAENXZ    0041a690 f   timer.obj
 0001:000196b0       ?Set@CTimer@@QAEXMH@Z      0041a6b0 f   timer.obj
 0001:000196f0       ?Reset@CTimer@@UAEXXZ      0041a6f0 f   timer.obj
 0001:00019730       ?Over@CTimer@@UAEHXZ       0041a730 f   timer.obj
 0001:00019790       ?GetLeftTime@CTimer@@QAENXZ 0041a790 f   timer.obj
 0001:000197c0       ?GetInterval@CTimer@@QAEMXZ 0041a7c0 f   timer.obj
 0001:000197d0       ??RCTimer@@QAEXXZ          0041a7d0 f   timer.obj
 0001:000197e0       ??RCTimer@@QAEXN@Z         0041a7e0 f   timer.obj
 0001:00019830       ?GetSunPercent@CGameTimer@@QAEHXZ 0041a830 f   timer.obj
 0001:000198b0       ?GetMoonPercent@CGameTimer@@QAEHXZ 0041a8b0 f   timer.obj
 0001:000198c0       ??1CGameTimer@@QAE@XZ      0041a8c0 f   timer.obj
 0001:000198d0       ?SetCurrentTime@CGameTimer@@QAEXN@Z 0041a8d0 f   timer.obj
 0001:00019900       ?GetTickCount@CGameTimer@@QAENXZ 0041a900 f   timer.obj
 0001:00019930       ?SetCurrentTime@CGameTimer@@QAEXHH@Z 0041a930 f   timer.obj
 0001:00019970       ?Compute@CGameTimer@@QAEXXZ 0041a970 f   timer.obj
 0001:000199e0       ?SetTime@CGameTimer@@QAEXHHHH@Z 0041a9e0 f   timer.obj
 0001:00019a00       ?Set@CSkipTimer@@QAEXM@Z   0041aa00 f   timer.obj
 0001:00019a40       ?Over@CSkipTimer@@UAEHXZ   0041aa40 f   timer.obj
 0001:00019ab0       ?IsNeedSkip@CSkipTimer@@QAEHXZ 0041aab0 f   timer.obj
 0001:00019af0       ?Skip@CSkipTimer@@QAEXXZ   0041aaf0 f   timer.obj
 0001:00019b00       ?IsMaxSkip@CSkipTimer@@QAEHXZ 0041ab00 f   timer.obj
 0001:00019b60       ?IsNight@CDate@@QAEHXZ     0041ab60 f   timer.obj
 0001:00019b80       ?GetDay@CDate@@QAEHXZ      0041ab80 f   timer.obj
 0001:00019ba0       ?ComputeShade@CDate@@QAEHH@Z 0041aba0 f   timer.obj
 0001:00019c00       ?GetTimeColor@CDate@@QAEXPAUtagTIMECOLOR@@@Z 0041ac00 f   timer.obj
 0001:00019cb0       ?Process@CDate@@QAEXXZ     0041acb0 f   timer.obj
 0001:00019d30       ?InitFST@@YAXXZ            0041ad30 f   timer.obj
 0001:00019d50       ?SetFrameSkip@@YAXH@Z      0041ad50 f   timer.obj
 0001:00019d80       ?GetFrameSkip@@YAHXZ       0041ad80 f   timer.obj
 0001:00019dd0       ?IsDrawTiming@@YAHXZ       0041add0 f   timer.obj
 0001:00019e30       ?SetFST@@YAXXZ             0041ae30 f   timer.obj
 0001:00019ec0       ??1CSkipTimer@@UAE@XZ      0041aec0 f i timer.obj
 0001:00019ed0       ??0CTimer@@QAE@XZ          0041aed0 f   timer.obj
 0001:00019f10       ??0CTimer@@QAE@M@Z         0041af10 f   timer.obj
 0001:00019f50       ??0CTimer@@QAE@MH@Z        0041af50 f   timer.obj
 0001:00019fa0       ??0CGameTimer@@QAE@XZ      0041afa0 f   timer.obj
 0001:00019ff0       ??0CGameTimer@@QAE@N@Z     0041aff0 f   timer.obj
 0001:0001a040       ??1CDate@@QAE@XZ           0041b040 f   timer.obj
 0001:0001a050       ??0CSkipTimer@@QAE@XZ      0041b050 f i timer.obj
 0001:0001a090       ??_GCSkipTimer@@UAEPAXI@Z  0041b090 f i timer.obj
 0001:0001a090       ??_ECSkipTimer@@UAEPAXI@Z  0041b090 f i timer.obj
 0001:0001a0b0       ??0CDate@@QAE@XZ           0041b0b0 f   timer.obj
 0001:0001a110       ??0CDate@@QAE@HHHHHHH@Z    0041b110 f   timer.obj
 0001:0001a1b0       ?GetCharLen@@YAHPBD@Z      0041b1b0 f   vUtil.obj
 0001:0001a1c0       ?GetStrCut@@YAHPBDPADH@Z   0041b1c0 f   vUtil.obj
 0001:0001a210       ?GetStrLen@@YAHPBD@Z       0041b210 f   vUtil.obj
 0001:0001a250       ?CopyChar@@YAHPBDPAD@Z     0041b250 f   vUtil.obj
 0001:0001a290       ?IsMultiByte@@YAHPBD@Z     0041b290 f   vUtil.obj
 0001:0001a2c0       ?IsHangul@@YAHG@Z          0041b2c0 f   vUtil.obj
 0001:0001a310       ?SetStrNull@@YAXPADH@Z     0041b310 f   vUtil.obj
 0001:0001a370       ?AddRef@CStringData@ATL@@QAEXXZ 0041b370 f i vUtil.obj
 0001:0001a380       ?isdigit2@@YAHD@Z          0041b380 f i vUtil.obj
 0001:0001a3a0       ?IsNative@@YAHPBD@Z        0041b3a0 f   vUtil.obj
 0001:0001a460       ?GetManager@?$CSimpleStringT@D$0A@@ATL@@QBEPAUIAtlStringMgr@2@XZ 0041b460 f i vUtil.obj
 0001:0001a470       ??0?$CSimpleStringT@D$0A@@ATL@@QAE@PBDHPAUIAtlStringMgr@1@@Z 0041b470 f i vUtil.obj
 0001:0001a4e0       ?CloneData@?$CSimpleStringT@D$0A@@ATL@@CAPAUCStringData@2@PAU32@@Z 0041b4e0 f i vUtil.obj
 0001:0001a540       ??A?$CSimpleStringT@D$0A@@ATL@@QBEDH@Z 0041b540 f i vUtil.obj
 0001:0001a560       ??0?$CStringT@DV?$StrTraitMFC@DV?$ChTraitsCRT@D@ATL@@@@@ATL@@QAE@PBDHPAUIAtlStringMgr@1@@Z 0041b560 f i vUtil.obj
 0001:0001a580       ??0?$CSimpleStringT@D$0A@@ATL@@QAE@ABV01@@Z 0041b580 f i vUtil.obj
 0001:0001a5a0       ??0?$CStringT@DV?$StrTraitMFC@DV?$ChTraitsCRT@D@ATL@@@@@ATL@@QAE@ABV01@@Z 0041b5a0 f i vUtil.obj
 0001:0001a5c0       ?Left@?$CStringT@DV?$StrTraitMFC@DV?$ChTraitsCRT@D@ATL@@@@@ATL@@QBE?AV12@H@Z 0041b5c0 f i vUtil.obj
 0001:0001a620       ??4?$CSimpleStringT@D$0A@@ATL@@QAEAAV01@ABV01@@Z 0041b620 f i vUtil.obj
 0001:0001a690       ??4?$CStringT@DV?$StrTraitMFC@DV?$ChTraitsCRT@D@ATL@@@@@ATL@@QAEAAV01@ABV01@@Z 0041b690 f i vUtil.obj
 0001:0001a6b0       ?SetStrNull@@YAXAAV?$CStringT@DV?$StrTraitMFC@DV?$ChTraitsCRT@D@ATL@@@@@ATL@@H@Z 0041b6b0 f   vUtil.obj
 0001:0001a7a0       ?xRandomF@@YAMM@Z          0041b7a0 f   xutil.obj
 0001:0001a7c0       ?xSRand@@YAXK@Z            0041b7c0 f   xutil.obj
 0001:0001a7d0       ?Error@@YAPBDPBDZZ         0041b7d0 f   xutil.obj
 0001:0001a890       ?GetFileName@@YAXPBDPAD@Z  0041b890 f   xutil.obj
 0001:0001a8e0       ?GetFileTitle@@YAXPBDPAD@Z 0041b8e0 f   xutil.obj
 0001:0001a920       ?GetFileExt@@YAXPBDPAD@Z   0041b920 f   xutil.obj
 0001:0001a960       ?GetFilePath@@YAXPBDPAD@Z  0041b960 f   xutil.obj
 0001:0001a9b0       ?StringFind@@YAHPBDH@Z     0041b9b0 f   xutil.obj
 0001:0001a9d0       ?MakeEven@@YAXAAJ@Z        0041b9d0 f   xutil.obj
 0001:0001a9e0       ?SetLanguageInfo@@YAXHH@Z  0041b9e0 f   xutil.obj
 0001:0001aa00       ?GetLanguage@@YAHXZ        0041ba00 f   xutil.obj
 0001:0001aa10       ?GetSubLanguage@@YAHXZ     0041ba10 f   xutil.obj
 0001:0001aa20       ?SetUse2ndPassWord@@YAXH@Z 0041ba20 f   xutil.obj
 0001:0001aa30       ?IsUse2ndPassWord@@YAHXZ   0041ba30 f   xutil.obj
 0001:0001aa40       __tcsinc                   0041ba40 f i xutil.obj
 0001:0001aa50       ?xRand@@YAKXZ              0041ba50 f i xutil.obj
 0001:0001aa70       ?xRandom@@YAKK@Z           0041ba70 f i xutil.obj
 0001:0001aa90       ?xRandom@@YAKKK@Z          0041ba90 f   xutil.obj
 0001:0001aad0       ?StringTrimRight@@YAXPAD@Z 0041bad0 f   xutil.obj
 0001:0001ab20       ?Insert@?$CStringT@DV?$StrTraitMFC@DV?$ChTraitsCRT@D@ATL@@@@@ATL@@QAEHHD@Z 0041bb20 f i xutil.obj
 0001:0001aba0       ?GetNumberFormatEx@@YA?AV?$CStringT@DV?$StrTraitMFC@DV?$ChTraitsCRT@D@ATL@@@@@ATL@@PBD@Z 0041bba0 f   xutil.obj
 0001:0001ada0       ?iswhite@@YAHG@Z           0041bda0 f i scanner.obj
 0001:0001adc0       ?isdelim@@YAHG@Z           0041bdc0 f i scanner.obj
 0001:0001ae00       ?IsComposibleTh@@YA_NEEH@Z 0041be00 f   scanner.obj
 0001:0001ae40       ?CharNextTh@@YAPBDPBD@Z    0041be40 f   scanner.obj
 0001:0001aeb0       ?CharNextVt@@YAPBDPBD@Z    0041beb0 f   scanner.obj
 0001:0001af10       ?CharNextEx@@YAPBDPBDG@Z   0041bf10 f   scanner.obj
 0001:0001af60       ?IsTone@@YAHG@Z            0041bf60 f   scanner.obj
 0001:0001af90       ?ComposeTone@@YAGGH@Z      0041bf90 f   scanner.obj
 0001:0001afd0       ?GetTone@@YA_NGPAH0@Z      0041bfd0 f   scanner.obj
 0001:0001b030       ?ComposeString@@YAXPAG0H@Z 0041c030 f   scanner.obj
 0001:0001b0b0       ?DecomposeString@@YAXPAG0H@Z 0041c0b0 f   scanner.obj
 0001:0001b130       ?IsCyrillic@@YAHD@Z        0041c130 f   scanner.obj
 0001:0001b150       ?WideCharToMultiByteEx@@YAHIKPBGHPADHPBDPAH@Z 0041c150 f   scanner.obj
 0001:0001b250       ?MultiByteToWideCharEx@@YAHIKPBDHPAGH@Z 0041c250 f   scanner.obj
 0001:0001b2f0       ?Free@CScanner@@QAEXXZ     0041c2f0 f   scanner.obj
 0001:0001b320       ?Read@CScanner@@IAEHPAVCFileIO@@H@Z 0041c320 f   scanner.obj
 0001:0001b3e0       ?SetProg@CScanner@@QAEXPAX@Z 0041c3e0 f   scanner.obj
 0001:0001b400       ?GetLineNum@CScanner@@UAEHPAX@Z 0041c400 f   scanner.obj
 0001:0001b430       ?PutBack@CScanner@@UAEXXZ  0041c430 f   scanner.obj
 0001:0001b460       ?StringLowercase@?$ChTraitsCRT@D@ATL@@SAPADPAD@Z 0041c460 f i scanner.obj
 0001:0001b470       ??0CFileIO@@QAE@XZ         0041c470 f i scanner.obj
 0001:0001b480       ??1CFileIO@@UAE@XZ         0041c480 f i scanner.obj
 0001:0001b490       ?Flush@CFileIO@@UAEHXZ     0041c490 f i scanner.obj
 0001:0001b4a0       ?GetC@CFileIO@@UAEDXZ      0041c4a0 f i scanner.obj
 0001:0001b4b0       ?GetW@CFileIO@@UAEGXZ      0041c4b0 f i scanner.obj
 0001:0001b4c0       ?GetDW@CFileIO@@UAEKXZ     0041c4c0 f i scanner.obj
 0001:0001b4e0       ?Tell@CFileIO@@UAEJXZ      0041c4e0 f i scanner.obj
 0001:0001b4f0       ?Seek@CFileIO@@UAEHJH@Z    0041c4f0 f i scanner.obj
 0001:0001b510       ?Read@CFileIO@@UAEIPAXII@Z 0041c510 f i scanner.obj
 0001:0001b530       ??_ECFileIO@@UAEPAXI@Z     0041c530 f i scanner.obj
 0001:0001b530       ??_GCFileIO@@UAEPAXI@Z     0041c530 f i scanner.obj
 0001:0001b560       ?GetFormattedLength@?$ChTraitsCRT@D@ATL@@SAHPBDPAD@Z 0041c560 f i scanner.obj
 0001:0001b570       ?Format@?$ChTraitsCRT@D@ATL@@SAHPADPBD0@Z 0041c570 f i scanner.obj
 0001:0001b580       ?GetLength@CFileIO@@UAEJXZ 0041c580 f i scanner.obj
 0001:0001b5a0       ?IsEmpty@?$CSimpleStringT@D$0A@@ATL@@QBE_NXZ 0041c5a0 f i scanner.obj
 0001:0001b5b0       ??0CScanner@@QAE@H@Z       0041c5b0 f   scanner.obj
 0001:0001b620       ?SetMark@CScanner@@UAEXXZ  0041c620 f i scanner.obj
 0001:0001b630       ?GoMark@CScanner@@UAEXXZ   0041c630 f i scanner.obj
 0001:0001b640       ??0CScanner@@QAE@PAXH@Z    0041c640 f   scanner.obj
 0001:0001b6b0       ??1CScanner@@UAE@XZ        0041c6b0 f   scanner.obj
 0001:0001b720       ?GetInt64@CScanner@@QAE_JH@Z 0041c720 f   scanner.obj
 0001:0001b7f0       ?GetFloat@CScanner@@QAEMH@Z 0041c7f0 f   scanner.obj
 0001:0001b890       ??_GCScanner@@UAEPAXI@Z    0041c890 f i scanner.obj
 0001:0001b890       ??_ECScanner@@UAEPAXI@Z    0041c890 f i scanner.obj
 0001:0001b8b0       ?MakeLower@?$CStringT@DV?$StrTraitMFC@DV?$ChTraitsCRT@D@ATL@@@@@ATL@@QAEAAV12@XZ 0041c8b0 f i scanner.obj
 0001:0001b910       ?FormatV@?$CStringT@DV?$StrTraitMFC@DV?$ChTraitsCRT@D@ATL@@@@@ATL@@QAEXPBDPAD@Z 0041c910 f i scanner.obj
 0001:0001b990       ?GetNumber@CScanner@@QAEHH@Z 0041c990 f   scanner.obj
 0001:0001bae0       ?GetHex@CScanner@@QAEKH@Z  0041cae0 f   scanner.obj
 0001:0001bb90       ?GetSerialNumber@CScanner@@QAEKH@Z 0041cb90 f   scanner.obj
 0001:0001bba0       ?Format@?$CStringT@DV?$StrTraitMFC@DV?$ChTraitsCRT@D@ATL@@@@@ATL@@QAAXPBDZZ 0041cba0 f i scanner.obj
 0001:0001bbc0       ?GetLastFull@CScanner@@QAEXXZ 0041cbc0 f   scanner.obj
 0001:0001bc70       ?GetToken@CScanner@@UAEHH@Z 0041cc70 f   scanner.obj
 0001:0001c370       ?Load@CScanner@@QAEHPBDH@Z 0041d370 f   scanner.obj
 0001:0001c4b0       ?Load_FileIO@CScanner@@QAEHPBDH@Z 0041d4b0 f   scanner.obj
 0001:0001c5e8       _ntohs@4                   0041d5e8 f   ws2_32:WS2_32.dll
 0001:0001c5ee       _htons@4                   0041d5ee f   ws2_32:WS2_32.dll
 0001:0001c5f4       _closesocket@4             0041d5f4 f   ws2_32:WS2_32.dll
 0001:0001c5fa       _shutdown@8                0041d5fa f   ws2_32:WS2_32.dll
 0001:0001c600       _WSASetLastError@4         0041d600 f   ws2_32:WS2_32.dll
 0001:0001c606       _WSAGetLastError@0         0041d606 f   ws2_32:WS2_32.dll
 0001:0001c60c       _connect@12                0041d60c f   ws2_32:WS2_32.dll
 0001:0001c612       _gethostbyname@4           0041d612 f   ws2_32:WS2_32.dll
 0001:0001c618       _inet_addr@4               0041d618 f   ws2_32:WS2_32.dll
 0001:0001c61e       _WSARecv@28                0041d61e f   ws2_32:WS2_32.dll
 0001:0001c624       _getpeername@12            0041d624 f   ws2_32:WS2_32.dll
 0001:0001c62a       _WSASend@28                0041d62a f   ws2_32:WS2_32.dll
 0001:0001c630       _WSACloseEvent@4           0041d630 f   ws2_32:WS2_32.dll
 0001:0001c636       _WSACreateEvent@0          0041d636 f   ws2_32:WS2_32.dll
 0001:0001c63c       _WSAStartup@8              0041d63c f   ws2_32:WS2_32.dll
 0001:0001c642       _socket@12                 0041d642 f   ws2_32:WS2_32.dll
 0001:0001c648       _WSACleanup@0              0041d648 f   ws2_32:WS2_32.dll
 0001:0001c64e       _WSAResetEvent@4           0041d64e f   ws2_32:WS2_32.dll
 0001:0001c654       _WSAWaitForMultipleEvents@20 0041d654 f   ws2_32:WS2_32.dll
 0001:0001c65a       _WSASetEvent@4             0041d65a f   ws2_32:WS2_32.dll
 0001:0001c660       _setsockopt@20             0041d660 f   ws2_32:WS2_32.dll
 0001:0001c666       _listen@8                  0041d666 f   ws2_32:WS2_32.dll
 0001:0001c66c       _WSAEventSelect@12         0041d66c f   ws2_32:WS2_32.dll
 0001:0001c672       _WSAAccept@20              0041d672 f   ws2_32:WS2_32.dll
 0001:0001c678       _WSAEnumNetworkEvents@12   0041d678 f   ws2_32:WS2_32.dll
 0001:0001c67e       _gethostname@8             0041d67e f   ws2_32:WS2_32.dll
 0001:0001c684       _bind@12                   0041d684 f   ws2_32:WS2_32.dll
 0001:0001c68a       _htonl@4                   0041d68a f   ws2_32:WS2_32.dll
 0001:0001c690       _WSASocketA@24             0041d690 f   ws2_32:WS2_32.dll
 0001:0001c696       _timeGetTime@0             0041d696 f   winmm:WINMM.dll
 0001:0001c6d0       _InitGameguardAuth         0041d6d0 f   ggsrvlib26_MT:ggsrv.obj
 0001:0001cbf0       _CleanupGameguardAuth      0041dbf0 f   ggsrvlib26_MT:ggsrv.obj
 0001:0001cca0       _GGAuthUpdateTimer         0041dca0 f   ggsrvlib26_MT:ggsrv.obj
 0001:0001cd20       _AddAuthProtocol           0041dd20 f   ggsrvlib26_MT:ggsrv.obj
 0001:0001cd90       _SetGGVerLimit             0041dd90 f   ggsrvlib26_MT:ggsrv.obj
 0001:0001ced0       _SetUpdateCondition        0041ded0 f   ggsrvlib26_MT:ggsrv.obj
 0001:0001cf00       _CheckCSAuth               0041df00 f   ggsrvlib26_MT:ggsrv.obj
 0001:0001cf30       ?LoadAuthProtocol@@YAIPADH@Z 0041df30 f   ggsrvlib26_MT:ggsrv.obj
 0001:0001d350       ?UnloadAuthProtocol@@YAIPAU_GG_AUTH_PROTOCOL@@@Z 0041e350 f   ggsrvlib26_MT:ggsrv.obj
 0001:0001d400       ?IsValidGGVer@@YA_NPAU_GG_VERSION@@@Z 0041e400 f   ggsrvlib26_MT:ggsrv.obj
 0001:0001d460       ?IsValidGGVer2@@YA_NK@Z    0041e460 f   ggsrvlib26_MT:ggsrv.obj
 0001:0001d4d0       ?UpdateUniqValHashTable@@YA_N_NKKK@Z 0041e4d0 f   ggsrvlib26_MT:ggsrv.obj
 0001:0001d620       ?UpdateGGVersion@@YAII@Z   0041e620 f   ggsrvlib26_MT:ggsrv.obj
 0001:0001dd90       ?UpdateProtocol@@YAIPAU_GG_AUTH_PROTOCOL@@@Z 0041ed90 f   ggsrvlib26_MT:ggsrv.obj
 0001:0001e5a0       ??0CCSAuth2@@QAE@XZ        0041f5a0 f   ggsrvlib26_MT:ggsrv.obj
 0001:0001e5b0       ??1CCSAuth2@@QAE@XZ        0041f5b0 f   ggsrvlib26_MT:ggsrv.obj
 0001:0001e5c0       ?Init@CCSAuth2@@QAEXXZ     0041f5c0 f   ggsrvlib26_MT:ggsrv.obj
 0001:0001e6b0       ?AllowOldVersion@CCSAuth2@@QAEXXZ 0041f6b0 f   ggsrvlib26_MT:ggsrv.obj
 0001:0001e6c0       ?Close@CCSAuth2@@QAEXXZ    0041f6c0 f   ggsrvlib26_MT:ggsrv.obj
 0001:0001e780       ?GetAuthQuery@CCSAuth2@@QAEIXZ 0041f780 f   ggsrvlib26_MT:ggsrv.obj
 0001:0001e930       ?CheckAuthAnswer@CCSAuth2@@QAEIXZ 0041f930 f   ggsrvlib26_MT:ggsrv.obj
 0001:0001f040       ?CheckUserCSAuth@CCSAuth2@@QAEI_N@Z 00420040 f   ggsrvlib26_MT:ggsrv.obj
 0001:0001f070       ?GetCSAuthState@CCSAuth2@@QAEIPAU_GG_CSAUTH_STATE@@@Z 00420070 f   ggsrvlib26_MT:ggsrv.obj
 0001:0001f0a0       ?SetCSAuthState@CCSAuth2@@QAEIPAU_GG_CSAUTH_STATE@@@Z 004200a0 f   ggsrvlib26_MT:ggsrv.obj
 0001:0001f170       ?Info@CCSAuth2@@QAEHPADH@Z 00420170 f   ggsrvlib26_MT:ggsrv.obj
 0001:0001f200       ?CheckUpdated@CCSAuth2@@QAEHXZ 00420200 f   ggsrvlib26_MT:ggsrv.obj
 0001:0001f250       _ModuleInfo                00420250 f   ggsrvlib26_MT:ggsrv.obj
 0001:0001f370       ?GGAuthCreateUser@@YAPAXXZ 00420370 f   ggsrvlib26_MT:ggsrv.obj
 0001:0001f3d0       ?GGAuthDeleteUser@@YAIPAX@Z 004203d0 f   ggsrvlib26_MT:ggsrv.obj
 0001:0001f3f0       ?GGAuthInitUser@@YAIPAX@Z  004203f0 f   ggsrvlib26_MT:ggsrv.obj
 0001:0001f410       ?GGAuthCloseUser@@YAIPAX@Z 00420410 f   ggsrvlib26_MT:ggsrv.obj
 0001:0001f430       ?GGAuthGetQuery@@YAIPAXPAU_GG_AUTH_DATA@@@Z 00420430 f   ggsrvlib26_MT:ggsrv.obj
 0001:0001f470       ?GGAuthCheckAnswer@@YAIPAXPAU_GG_AUTH_DATA@@@Z 00420470 f   ggsrvlib26_MT:ggsrv.obj
 0001:0001f4b0       ?GGAuthCheckUserCSAuth@@YAIPAX_N@Z 004204b0 f   ggsrvlib26_MT:ggsrv.obj
 0001:0001f4d0       _GGAuthCheckUpdated        004204d0 f   ggsrvlib26_MT:ggsrv.obj
 0001:0001f4f0       _GGAuthUserInfo            004204f0 f   ggsrvlib26_MT:ggsrv.obj
 0001:0001f520       _GGAuthGetUserValue        00420520 f   ggsrvlib26_MT:ggsrv.obj
 0001:0001f570       _GGAuthGetState            00420570 f   ggsrvlib26_MT:ggsrv.obj
 0001:0001f590       _GGAuthSetState            00420590 f   ggsrvlib26_MT:ggsrv.obj
 0001:0001f5b0       _GGAuthAllowOldVersion     004205b0 f   ggsrvlib26_MT:ggsrv.obj
 0001:0001f5d0       _GGGetCurrentGGVer         004205d0 f   ggsrvlib26_MT:ggsrv.obj
 0001:0001f5e0       ?GGEncryptPacket1@@YAXPAU_GG_AUTH_DATA@@@Z 004205e0 f   ggsrvlib26_MT:ggsrv.obj
 0001:0001f640       ?GGDecryptPacket2@@YAXPAU_GG_AUTH_DATA@@@Z 00420640 f   ggsrvlib26_MT:ggsrv.obj
 0001:0001f6a0       ?Blowfish_Encrypt@@YAXPAUBLOWFISH_CTX@@PAI1@Z 004206a0 f   ggsrvlib26_MT:ggutil.obj
 0001:0001f770       ?Blowfish_Decrypt@@YAXPAUBLOWFISH_CTX@@PAI1@Z 00420770 f   ggsrvlib26_MT:ggutil.obj
 0001:0001f7d0       ?Blowfish_Init@@YAXPAUBLOWFISH_CTX@@PAEH@Z 004207d0 f   ggsrvlib26_MT:ggutil.obj
 0001:0001f8d0       ?GetRandomDword@@YAKXZ     004208d0 f   ggsrvlib26_MT:ggutil.obj
 0001:0001f900       _CloseHandle@4             00420900 f   kernel32:KERNEL32.dll
 0001:0001f906       _WaitForSingleObject@8     00420906 f   kernel32:KERNEL32.dll
 0001:0001f90c       _CreateEventA@16           0042090c f   kernel32:KERNEL32.dll
 0001:0001f912       _EnterCriticalSection@4    00420912 f   kernel32:KERNEL32.dll
 0001:0001f918       _LeaveCriticalSection@4    00420918 f   kernel32:KERNEL32.dll
 0001:0001f91e       _SetEvent@4                0042091e f   kernel32:KERNEL32.dll
 0001:0001f924       _lstrcmpA@8                00420924 f   kernel32:KERNEL32.dll
 0001:0001f92a       _VirtualAlloc@16           0042092a f   kernel32:KERNEL32.dll
 0001:0001f930       _InterlockedExchange@8     00420930 f   kernel32:KERNEL32.dll
 0001:0001f936       _GetACP@0                  00420936 f   kernel32:KERNEL32.dll
 0001:0001f93c       _GetLocaleInfoA@16         0042093c f   kernel32:KERNEL32.dll
 0001:0001f942       _GetThreadLocale@0         00420942 f   kernel32:KERNEL32.dll
 0001:0001f948       _GetVersionExA@4           00420948 f   kernel32:KERNEL32.dll
 0001:0001f94e       _SizeofResource@8          0042094e f   kernel32:KERNEL32.dll
 0001:0001f954       _LockResource@4            00420954 f   kernel32:KERNEL32.dll
 0001:0001f95a       _LoadResource@8            0042095a f   kernel32:KERNEL32.dll
 0001:0001f960       _FindResourceA@12          00420960 f   kernel32:KERNEL32.dll
 0001:0001f966       _WideCharToMultiByte@32    00420966 f   kernel32:KERNEL32.dll
 0001:0001f96c       _DeleteCriticalSection@4   0042096c f   kernel32:KERNEL32.dll
 0001:0001f972       _VirtualFree@12            00420972 f   kernel32:KERNEL32.dll
 0001:0001f978       _MultiByteToWideChar@24    00420978 f   kernel32:KERNEL32.dll
 0001:0001f97e       _GetLastError@0            0042097e f   kernel32:KERNEL32.dll
 0001:0001f984       _GetVersion@0              00420984 f   kernel32:KERNEL32.dll
 0001:0001f98a       _lstrcmpiA@8               0042098a f   kernel32:KERNEL32.dll
 0001:0001f990       _lstrlenW@4                00420990 f   kernel32:KERNEL32.dll
 0001:0001f996       _lstrcmpiW@8               00420996 f   kernel32:KERNEL32.dll
 0001:0001f99c       _lstrlenA@4                0042099c f   kernel32:KERNEL32.dll
 0001:0001f9a2       _CompareStringA@24         004209a2 f   kernel32:KERNEL32.dll
 0001:0001f9a8       _CompareStringW@24         004209a8 f   kernel32:KERNEL32.dll
 0001:0001f9ae       _GetEnvironmentVariableA@12 004209ae f   kernel32:KERNEL32.dll
 0001:0001f9b4       _GetEnvironmentVariableW@12 004209b4 f   kernel32:KERNEL32.dll
 0001:0001f9ba       _GetStringTypeExA@20       004209ba f   kernel32:KERNEL32.dll
 0001:0001f9c0       _GetStringTypeExW@20       004209c0 f   kernel32:KERNEL32.dll
 0001:0001f9c6       _TerminateProcess@8        004209c6 f   kernel32:KERNEL32.dll
 0001:0001f9cc       _GetExitCodeProcess@8      004209cc f   kernel32:KERNEL32.dll
 0001:0001f9d2       _OpenProcess@12            004209d2 f   kernel32:KERNEL32.dll
 0001:0001f9d8       _Process32Next@8           004209d8 f   kernel32:KERNEL32.dll
 0001:0001f9de       _Process32First@8          004209de f   kernel32:KERNEL32.dll
 0001:0001f9e4       _CreateToolhelp32Snapshot@8 004209e4 f   kernel32:KERNEL32.dll
 0001:0001f9ea       _InitializeCriticalSection@4 004209ea f   kernel32:KERNEL32.dll
 0001:0001f9f0       _InitializeCriticalSectionAndSpinCount@8 004209f0 f   kernel32:KERNEL32.dll
 0001:0001f9f6       _GetTickCount@0            004209f6 f   kernel32:KERNEL32.dll
 0001:0001f9fc       _HeapDestroy@4             004209fc f   kernel32:KERNEL32.dll
 0001:0001fa02       _HeapAlloc@12              00420a02 f   kernel32:KERNEL32.dll
 0001:0001fa08       _HeapFree@12               00420a08 f   kernel32:KERNEL32.dll
 0001:0001fa0e       _HeapReAlloc@16            00420a0e f   kernel32:KERNEL32.dll
 0001:0001fa14       _GetSystemInfo@4           00420a14 f   kernel32:KERNEL32.dll
 0001:0001fa1a       _HeapCreate@12             00420a1a f   kernel32:KERNEL32.dll
 0001:0001fa20       _InterlockedDecrement@4    00420a20 f   kernel32:KERNEL32.dll
 0001:0001fa26       _InterlockedIncrement@4    00420a26 f   kernel32:KERNEL32.dll
 0001:0001fa2c       _WaitForMultipleObjects@16 00420a2c f   kernel32:KERNEL32.dll
 0001:0001fa32       _SetThreadPriority@8       00420a32 f   kernel32:KERNEL32.dll
 0001:0001fa38       _GetQueuedCompletionStatus@20 00420a38 f   kernel32:KERNEL32.dll
 0001:0001fa3e       _GetOverlappedResult@16    00420a3e f   kernel32:KERNEL32.dll
 0001:0001fa44       _PostQueuedCompletionStatus@16 00420a44 f   kernel32:KERNEL32.dll
 0001:0001fa4a       _CreateIoCompletionPort@16 00420a4a f   kernel32:KERNEL32.dll
 0001:0001fa50       _SetUnhandledExceptionFilter@4 00420a50 f   kernel32:KERNEL32.dll
 0001:0001fa56       _SetErrorMode@4            00420a56 f   kernel32:KERNEL32.dll
 0001:0001fa5c       _lstrcpyA@8                00420a5c f   kernel32:KERNEL32.dll
 0001:0001fa62       _QueryPerformanceCounter@4 00420a62 f   kernel32:KERNEL32.dll
 0001:0001fa68       _QueryPerformanceFrequency@4 00420a68 f   kernel32:KERNEL32.dll
 0001:0001fa6e       _FreeLibrary@4             00420a6e f   kernel32:KERNEL32.dll
 0001:0001fa74       _GetProcAddress@8          00420a74 f   kernel32:KERNEL32.dll
 0001:0001fa7a       _LoadLibraryA@4            00420a7a f   kernel32:KERNEL32.dll
 0001:0001fa80       _lstrcatA@8                00420a80 f   kernel32:KERNEL32.dll
 0001:0001fa86       _GetModuleFileNameA@12     00420a86 f   kernel32:KERNEL32.dll
 0001:0001fa8c       _GetFileAttributesA@4      00420a8c f   kernel32:KERNEL32.dll
 0001:0001fa92       _CreateFileA@28            00420a92 f   kernel32:KERNEL32.dll
 0001:0001fa98       _lstrcpynA@12              00420a98 f   kernel32:KERNEL32.dll
 0001:0001fa9e       _GetFullPathNameA@16       00420a9e f   kernel32:KERNEL32.dll
 0001:0001faa4       _OutputDebugStringA@4      00420aa4 f   kernel32:KERNEL32.dll
 0001:0001faaa       _GetLocalTime@4            00420aaa f   kernel32:KERNEL32.dll
 0001:0001fab0       _IsDBCSLeadByte@4          00420ab0 f   kernel32:KERNEL32.dll
 0001:0001fab6       _LoadStringA@16            00420ab6 f   user32:USER32.dll
 0001:0001fabc       _DestroyWindow@4           00420abc f   user32:USER32.dll
 0001:0001fac2       _DefWindowProcA@16         00420ac2 f   user32:USER32.dll
 0001:0001fac8       _PostQuitMessage@4         00420ac8 f   user32:USER32.dll
 0001:0001face       _KillTimer@8               00420ace f   user32:USER32.dll
 0001:0001fad4       _EndPaint@8                00420ad4 f   user32:USER32.dll
 0001:0001fada       _BeginPaint@8              00420ada f   user32:USER32.dll
 0001:0001fae0       _RegisterClassExA@4        00420ae0 f   user32:USER32.dll
 0001:0001fae6       _LoadCursorA@8             00420ae6 f   user32:USER32.dll
 0001:0001faec       _LoadIconA@8               00420aec f   user32:USER32.dll
 0001:0001faf2       _MessageBoxA@16            00420af2 f   user32:USER32.dll
 0001:0001faf8       _UpdateWindow@4            00420af8 f   user32:USER32.dll
 0001:0001fafe       _ShowWindow@8              00420afe f   user32:USER32.dll
 0001:0001fb04       _SetWindowPos@28           00420b04 f   user32:USER32.dll
 0001:0001fb0a       _SetTimer@16               00420b0a f   user32:USER32.dll
 0001:0001fb10       _CreateWindowExA@48        00420b10 f   user32:USER32.dll
 0001:0001fb16       _DispatchMessageA@4        00420b16 f   user32:USER32.dll
 0001:0001fb1c       _TranslateMessage@4        00420b1c f   user32:USER32.dll
 0001:0001fb22       _GetMessageA@16            00420b22 f   user32:USER32.dll
 0001:0001fb28       _CharLowerA@4              00420b28 f   user32:USER32.dll
 0001:0001fb2e       _CharLowerW@4              00420b2e f   user32:USER32.dll
 0001:0001fb34       _CharUpperA@4              00420b34 f   user32:USER32.dll
 0001:0001fb3a       _CharUpperW@4              00420b3a f   user32:USER32.dll
 0001:0001fb40       _InvalidateRect@12         00420b40 f   user32:USER32.dll
 0001:0001fb46       _CharNextA@4               00420b46 f   user32:USER32.dll
 0001:0001fb4c       _CharNextExA@12            00420b4c f   user32:USER32.dll
 0001:0001fb52       _CreateFontA@56            00420b52 f   gdi32:GDI32.dll
 0001:0001fb58       _TextOutA@20               00420b58 f   gdi32:GDI32.dll
 0001:0001fb5e       _SetTextColor@8            00420b5e f   gdi32:GDI32.dll
 0001:0001fb64       _SetBkMode@8               00420b64 f   gdi32:GDI32.dll
 0001:0001fb6a       _DeleteObject@4            00420b6a f   gdi32:GDI32.dll
 0001:0001fb70       _SetBkColor@8              00420b70 f   gdi32:GDI32.dll
 0001:0001fb76       _SelectObject@8            00420b76 f   gdi32:GDI32.dll
 0001:0001fb7c       _RegCloseKey@4             00420b7c f   advapi32:ADVAPI32.dll
 0001:0001fb82       _RegQueryValueExA@24       00420b82 f   advapi32:ADVAPI32.dll
 0001:0001fb88       _RegOpenKeyExA@20          00420b88 f   advapi32:ADVAPI32.dll
 0001:0001fb8e       _RegSetValueExA@24         00420b8e f   advapi32:ADVAPI32.dll
 0001:0001fb94       _GetNextStackTraceString@8 00420b94 f   neuzd:NeuzD.dll
 0001:0001fb9a       _GetFirstStackTraceString@8 00420b9a f   neuzd:NeuzD.dll
 0001:0001fba0       _GetRegisterString@4       00420ba0 f   neuzd:NeuzD.dll
 0001:0001fba6       _GetFaultReason@4          00420ba6 f   neuzd:NeuzD.dll
 0001:0001fbac       ?AtlA2WHelper@@YGPA_WPA_WPBDHI@Z 00420bac f i nafxcw:olemisc.obj
 0001:0001fbe3       ?AtlW2AHelper@@YGPADPADPB_WHI@Z 00420be3 f i nafxcw:olemisc.obj
 0001:0001fc1b       ?ocslen@@YAHPB_W@Z         00420c1b f i nafxcw:olemisc.obj
 0001:0001fc26       ?ocscpy@@YAPA_WPA_WPB_W@Z  00420c26 f i nafxcw:olemisc.obj
 0001:0001fc46       ??1CObject@@UAE@XZ         00420c46 f i nafxcw:olemisc.obj
 0001:0001fc47       ??3CObject@@SGXPAX@Z       00420c47 f i nafxcw:olemisc.obj
 0001:0001fc54       ??2CObject@@SGPAXI@Z       00420c54 f i nafxcw:olemisc.obj
 0001:0001fc61       ??1CException@@UAE@XZ      00420c61 f i nafxcw:olemisc.obj
 0001:0001fc62       ?AfxGetAppName@@YGPBDXZ    00420c62 f i nafxcw:olemisc.obj
 0001:0001fc6b       ??0COleException@@QAE@XZ   00420c6b f i nafxcw:olemisc.obj
 0001:0001fc81       ?Serialize@CObject@@UAEXAAVCArchive@@@Z 00420c81 f i nafxcw:olemisc.obj
 0001:0001fc84       ?GetBaseTypeLength@?$ChTraitsCRT@D@ATL@@SAHPB_WH@Z 00420c84 f i nafxcw:olemisc.obj
 0001:0001fca1       ?ConvertToBaseType@?$ChTraitsCRT@D@ATL@@SAXPADHPB_WH@Z 00420ca1 f i nafxcw:olemisc.obj
 0001:0001fcc4       ?AtlDevModeA2W@@YAPAU_devicemodeW@@PAU1@PBU_devicemodeA@@@Z 00420cc4 f i nafxcw:olemisc.obj
 0001:0001fd62       ?AtlDevModeW2A@@YGPAU_devicemodeA@@PAU1@PBU_devicemodeW@@@Z 00420d62 f i nafxcw:olemisc.obj
 0001:0001fe02       ??_GCOleException@@UAEPAXI@Z 00420e02 f i nafxcw:olemisc.obj
 0001:0001fe02       ??_ECOleException@@UAEPAXI@Z 00420e02 f i nafxcw:olemisc.obj
 0001:0001fe1e       ??1COleException@@UAE@XZ   00420e1e f i nafxcw:olemisc.obj
 0001:0001fe25       ?AppendChar@?$CSimpleStringT@D$0A@@ATL@@QAEXD@Z 00420e25 f i nafxcw:olemisc.obj
 0001:0001fe4d       ?Append@?$CSimpleStringT@D$0A@@ATL@@QAEXPBDH@Z 00420e4d f i nafxcw:olemisc.obj
 0001:0001fe99       ??Y?$CSimpleStringT@D$0A@@ATL@@QAEAAV01@D@Z 00420e99 f i nafxcw:olemisc.obj
 0001:0001feab       ??Y?$CStringT@DV?$StrTraitMFC@DV?$ChTraitsCRT@D@ATL@@@@@ATL@@QAEAAV01@D@Z 00420eab f i nafxcw:olemisc.obj
 0001:0001febd       ??0CObject@@IAE@XZ         00420ebd f i nafxcw:except.obj
 0001:0001fec0       ??1CSimpleException@@UAE@XZ 00420ec0 f i nafxcw:except.obj
 0001:0001fec1       ??1CMemoryException@@UAE@XZ 00420ec1 f i nafxcw:except.obj
 0001:0001fec8       ??1CNotSupportedException@@UAE@XZ 00420ec8 f i nafxcw:except.obj
 0001:0001fecf       ??1CInvalidArgException@@UAE@XZ 00420ecf f i nafxcw:except.obj
 0001:0001fed6       ??0CSimpleException@@QAE@H@Z 00420ed6 f i nafxcw:except.obj
 0001:0001feee       ??_ECMemoryException@@UAEPAXI@Z 00420eee f i nafxcw:except.obj
 0001:0001feee       ??_GCMemoryException@@UAEPAXI@Z 00420eee f i nafxcw:except.obj
 0001:0001ff0a       ??0CMemoryException@@QAE@HI@Z 00420f0a f i nafxcw:except.obj
 0001:0001ff2c       ??_GCNotSupportedException@@UAEPAXI@Z 00420f2c f i nafxcw:except.obj
 0001:0001ff2c       ??_ECNotSupportedException@@UAEPAXI@Z 00420f2c f i nafxcw:except.obj
 0001:0001ff48       ??0CNotSupportedException@@QAE@HI@Z 00420f48 f i nafxcw:except.obj
 0001:0001ff6a       ??_ECInvalidArgException@@UAEPAXI@Z 00420f6a f i nafxcw:except.obj
 0001:0001ff6a       ??_GCInvalidArgException@@UAEPAXI@Z 00420f6a f i nafxcw:except.obj
 0001:0001ff86       ??0CInvalidArgException@@QAE@HI@Z 00420f86 f i nafxcw:except.obj
 0001:0001ffa8       __tcschr                   00420fa8 f i nafxcw:winstr.obj
 0001:0001ffad       ?AfxGetResourceHandle@@YGPAUHINSTANCE__@@XZ 00420fad f i nafxcw:winstr.obj
 0001:0001ffb6       ?ReleaseBuffer@?$CSimpleStringT@D$0A@@ATL@@QAEXH@Z 00420fb6 f i nafxcw:winstr.obj
 0001:0001ffdb       ?GetBufferSetLength@?$CSimpleStringT@D$0A@@ATL@@QAEPADH@Z 00420fdb f i nafxcw:winstr.obj
 0001:0001fffc       ??0CNilStringData@ATL@@QAE@XZ 00420ffc f i nafxcw:strcore.obj
 0001:00020018       ?SetManager@CNilStringData@ATL@@QAEXPAUIAtlStringMgr@2@@Z 00421018 f i nafxcw:strcore.obj
 0001:00020021       ?GetBaseTypeLength@?$ChTraitsCRT@_W@ATL@@SAHPBD@Z 00421021 f i nafxcw:strcore.obj
 0001:0002003b       ?ConvertToBaseType@?$ChTraitsCRT@_W@ATL@@SAXPA_WHPBDH@Z 0042103b f i nafxcw:strcore.obj
 0001:0002005b       ?IsStoring@CArchive@@QBEHXZ 0042105b f i nafxcw:strcore.obj
 0001:00020064       ??1CComBSTR@ATL@@QAE@XZ    00421064 f i nafxcw:strcore.obj
 0001:0002006d       ?Length@CComBSTR@ATL@@QBEIXZ 0042106d f i nafxcw:strcore.obj
 0001:0002007c       ?Copy@CComBSTR@ATL@@QBEPA_WXZ 0042107c f i nafxcw:strcore.obj
 0001:00020099       ??7CComBSTR@ATL@@QBE_NXZ   00421099 f i nafxcw:strcore.obj
 0001:000200a1       ??B?$CTempBuffer@_W$0IA@VCCRTAllocator@ATL@@@ATL@@QBEPA_WXZ 004210a1 f i nafxcw:strcore.obj
 0001:000200a4       ?GetBaseTypeLength@?$ChTraitsCRT@D@ATL@@SAHPB_W@Z 004210a4 f i nafxcw:strcore.obj
 0001:000200c0       ?FreeHeap@?$CTempBuffer@_W$0IA@VCCRTAllocator@ATL@@@ATL@@AAEXXZ 004210c0 f i nafxcw:strcore.obj
 0001:000200c9       ?AllocateHeap@?$CTempBuffer@_W$0IA@VCCRTAllocator@ATL@@@ATL@@AAEXI@Z 004210c9 f i nafxcw:strcore.obj
 0001:000200ea       ??0CComBSTR@ATL@@QAE@ABV01@@Z 004210ea f i nafxcw:strcore.obj
 0001:00020115       ??1?$CTempBuffer@_W$0IA@VCCRTAllocator@ATL@@@ATL@@QAE@XZ 00421115 f i nafxcw:strcore.obj
 0001:00020122       ?AllocateBytes@?$CTempBuffer@_W$0IA@VCCRTAllocator@ATL@@@ATL@@QAEPA_WI@Z 00421122 f i nafxcw:strcore.obj
 0001:00020145       ?Allocate@?$CTempBuffer@_W$0IA@VCCRTAllocator@ATL@@@ATL@@QAEPA_WI@Z 00421145 f i nafxcw:strcore.obj
 0001:00020154       ??4?$CStringT@DV?$StrTraitMFC@DV?$ChTraitsCRT@D@ATL@@@@@ATL@@QAEAAV01@PB_W@Z 00421154 f i nafxcw:strcore.obj
 0001:0002019e       ?_AtlRaiseException@ATL@@YAXKK@Z 0042119e f i nafxcw:objcore.obj
 0001:000201b1       ??0CComCriticalSection@ATL@@QAE@XZ 004211b1 f i nafxcw:objcore.obj
 0001:000201c5       ?Init@CComCriticalSection@ATL@@QAEJXZ 004211c5 f i nafxcw:objcore.obj
 0001:00020215       ?Term@CComCriticalSection@ATL@@QAEJXZ 00421215 f i nafxcw:objcore.obj
 0001:0002021f       ?GetModuleInstance@CAtlBaseModule@ATL@@QAEPAUHINSTANCE__@@XZ 0042121f f i nafxcw:objcore.obj
 0001:00020223       ?lstrcmpiWFake@ATL@@YGHPB_W0@Z 00421223 f i nafxcw:objcore.obj
 0001:0002029f       ?lstrcmpiWThunk@ATL@@YGHPB_W0@Z 0042129f f i nafxcw:objcore.obj
 0001:000202bd       ?CharLowerWFake@ATL@@YGPA_WPA_W@Z 004212bd f i nafxcw:objcore.obj
 0001:00020345       ?CharLowerWThunk@ATL@@YGPA_WPA_W@Z 00421345 f i nafxcw:objcore.obj
 0001:00020363       ?CharUpperWFake@ATL@@YGPA_WPA_W@Z 00421363 f i nafxcw:objcore.obj
 0001:000203eb       ?CharUpperWThunk@ATL@@YGPA_WPA_W@Z 004213eb f i nafxcw:objcore.obj
 0001:00020409       ?AtlWinModuleInit@ATL@@YGJPAU_ATL_WIN_MODULE70@1@@Z 00421409 f i nafxcw:objcore.obj
 0001:0002042c       ??1stringdispid@CComTypeInfoHolder@ATL@@QAE@XZ 0042142c f i nafxcw:objcore.obj
 0001:00020435       ??0?$CSimpleArray@GV?$CSimpleArrayEqualHelper@G@ATL@@@ATL@@QAE@XZ 00421435 f i nafxcw:objcore.obj
 0001:00020442       ?GetSize@?$CSimpleArray@GV?$CSimpleArrayEqualHelper@G@ATL@@@ATL@@QBEHXZ 00421442 f i nafxcw:objcore.obj
 0001:00020446       ?RemoveAll@?$CSimpleArray@GV?$CSimpleArrayEqualHelper@G@ATL@@@ATL@@QAEXXZ 00421446 f i nafxcw:objcore.obj
 0001:00020463       ??A?$CSimpleArray@GV?$CSimpleArrayEqualHelper@G@ATL@@@ATL@@QAEAAGH@Z 00421463 f i nafxcw:objcore.obj
 0001:0002048a       ?Init@?$CW2AEX@$0IA@@ATL@@AAEXPB_WI@Z 0042148a f i nafxcw:objcore.obj
 0001:000204f0       ?AtlWinModuleTerm@ATL@@YGJPAU_ATL_WIN_MODULE70@1@PAUHINSTANCE__@@@Z 004214f0 f i nafxcw:objcore.obj
 0001:00020550       ??_Estringdispid@CComTypeInfoHolder@ATL@@QAEPAXI@Z 00421550 f i nafxcw:objcore.obj
 0001:0002059b       ??0?$CW2AEX@$0IA@@ATL@@QAE@PB_W@Z 0042159b f i nafxcw:objcore.obj
 0001:000205bb       ??1?$CSimpleArray@GV?$CSimpleArrayEqualHelper@G@ATL@@@ATL@@QAE@XZ 004215bb f i nafxcw:objcore.obj
 0001:000205c0       ?CompareStringWFake@ATL@@YGHKKPB_WH0H@Z 004215c0 f i nafxcw:objcore.obj
 0001:000206c4       ?CompareStringWThunk@ATL@@YGHKKPB_WH0H@Z 004216c4 f i nafxcw:objcore.obj
 0001:000206e6       ?Term@CAtlWinModule@ATL@@QAEXXZ 004216e6 f i nafxcw:objcore.obj
 0001:000206f3       ??0_ATL_WIN_MODULE70@ATL@@QAE@XZ 004216f3 f i nafxcw:objcore.obj
 0001:0002070d       ??1_ATL_WIN_MODULE70@ATL@@QAE@XZ 0042170d f i nafxcw:objcore.obj
 0001:00020715       ?GetEnvironmentVariableWFake@ATL@@YGKPB_WPA_WK@Z 00421715 f i nafxcw:objcore.obj
 0001:00020851       ?GetEnvironmentVariableWThunk@ATL@@YGKPB_WPA_WK@Z 00421851 f i nafxcw:objcore.obj
 0001:0002086f       ?GetStringTypeExWFake@ATL@@YGHKKPB_WHPAG@Z 0042186f f i nafxcw:objcore.obj
 0001:0002094c       ?GetStringTypeExWThunk@ATL@@YGHKKPB_WHPAG@Z 0042194c f i nafxcw:objcore.obj
 0001:0002096e       ??0CAtlWinModule@ATL@@QAE@XZ 0042196e f i nafxcw:objcore.obj
 0001:00020991       ??1CAtlWinModule@ATL@@QAE@XZ 00421991 f i nafxcw:objcore.obj
 0001:000209a9       ?AtlAllocTaskWideString@ATL@@YAPA_WPBD@Z 004219a9 f i nafxcw:olecnvrt.obj
 0001:000209f4       ?AtlAllocTaskAnsiString@ATL@@YAPADPB_W@Z 004219f4 f i nafxcw:olecnvrt.obj
 0001:00020a41       _IsEqualGUID               00421a41 f i nafxcw:oleunk.obj
 0001:00020a59       _==                        00421a59 f i nafxcw:oleunk.obj
 0001:00020a5e       ??0IUnknown@@QAE@XZ        00421a5e f i nafxcw:oleunk.obj
 0001:00020a61       ?InternalAddRef@CCmdTarget@@QAEKXZ 00421a61 f i nafxcw:oleunk.obj
 0001:00020a6c       ??0CPoint@@QAE@XZ          00421a6c f i nafxcw:afxstate.obj
 0001:00020a6f       ??0CPoint@@QAE@HH@Z        00421a6f f i nafxcw:afxstate.obj
 0001:00020a81       ??0CSimpleList@@QAE@H@Z    00421a81 f i nafxcw:afxstate.obj
 0001:00020a90       ?Construct@CSimpleList@@QAEXH@Z 00421a90 f i nafxcw:afxstate.obj
 0001:00020a9a       ??1CNoTrackObject@@UAE@XZ  00421a9a f i nafxcw:afxstate.obj
 0001:00020a9b       ??0CTypeLibCache@@QAE@XZ   00421a9b f i nafxcw:afxstate.obj
 0001:00020aad       ?IsEmpty@CPtrList@@QBEHXZ  00421aad f i nafxcw:afxstate.obj
 0001:00020ab6       ?GetStartPosition@CMapPtrToPtr@@QBEPAU__POSITION@@XZ 00421ab6 f i nafxcw:afxstate.obj
 0001:00020abe       ?AfxGetApp@@YGPAVCWinApp@@XZ 00421abe f i nafxcw:appui1.obj
 0001:00020ac7       ?AfxGetMainWnd@@YGPAVCWnd@@XZ 00421ac7 f i nafxcw:appui1.obj
 0001:00020ada       ?GetSafeHwnd@CWnd@@QBEPAUHWND__@@XZ 00421ada f i nafxcw:appui1.obj
 0001:00020ae5       ?GetNextPtr@CSimpleList@@QBEPAPAXPAX@Z 00421ae5 f i nafxcw:afxtls.obj
 0001:00020aef       ?GetHead@CSimpleList@@QBEPAXXZ 00421aef f i nafxcw:afxtls.obj
 0001:00020af2       ??2CThreadSlotData@@SGPAXIPAX@Z 00421af2 f i nafxcw:afxtls.obj
 0001:00020af9       ?AfxCheckError@@YGXJ@Z     00421af9 f   nafxcw:olevar.obj
 0001:00020b16       ?_AfxCompareSafeArrays@@YGHPAUtagSAFEARRAY@@0@Z 00421b16 f   nafxcw:olevar.obj
 0001:00020d82       ?_AfxCreateOneDimArray@@YGXAAUtagVARIANT@@K@Z 00421d82 f   nafxcw:olevar.obj
 0001:00020e2d       ?_AfxCopyBinaryData@@YGXPAUtagSAFEARRAY@@PBXK@Z 00421e2d f   nafxcw:olevar.obj
 0001:00020e68       ??0COleVariant@@QAE@FG@Z   00421e68 f   nafxcw:olevar.obj
 0001:00020e8f       ??0COleVariant@@QAE@JG@Z   00421e8f f   nafxcw:olevar.obj
 0001:00020ef4       ?ChangeType@COleVariant@@QAEXGPAUtagVARIANT@@@Z 00421ef4 f   nafxcw:olevar.obj
 0001:00020f1f       ?Detach@COleVariant@@QAE?AUtagVARIANT@@XZ 00421f1f f   nafxcw:olevar.obj
 0001:00020f46       ??8COleVariant@@QBEHABUtagVARIANT@@@Z 00421f46 f   nafxcw:olevar.obj
 0001:0002108a       ??4COleVariant@@QAEABV0@ABUtagVARIANT@@@Z 0042208a f   nafxcw:olevar.obj
 0001:000210a4       ??4COleVariant@@QAEABV0@PBUtagVARIANT@@@Z 004220a4 f   nafxcw:olevar.obj
 0001:000210be       ??4COleVariant@@QAEABV0@ABV0@@Z 004220be f   nafxcw:olevar.obj
 0001:000210d8       ??4COleVariant@@QAEABV0@ABVCLongBinary@@@Z 004220d8 f   nafxcw:olevar.obj
 0001:0002111b       ?AfxVariantInit@@YGXPAUtagVARIANT@@@Z 0042211b f   nafxcw:olevar.obj
 0001:0002112e       ??$CopyElements@VCOleVariant@@@@YGXPAVCOleVariant@@PBV0@H@Z 0042212e f   nafxcw:olevar.obj
 0001:00021154       ??4COleCurrency@@QAEABV0@ABV0@@Z 00422154 f   nafxcw:olevar.obj
 0001:0002116d       ??MCOleCurrency@@QBEHABV0@@Z 0042216d f   nafxcw:olevar.obj
 0001:0002118b       ??OCOleCurrency@@QBEHABV0@@Z 0042218b f   nafxcw:olevar.obj
 0001:000211a9       ??NCOleCurrency@@QBEHABV0@@Z 004221a9 f   nafxcw:olevar.obj
 0001:000211c7       ??PCOleCurrency@@QBEHABV0@@Z 004221c7 f   nafxcw:olevar.obj
 0001:000211e5       ?Detach@COleSafeArray@@QAE?AUtagVARIANT@@XZ 004221e5 f   nafxcw:olevar.obj
 0001:0002120c       ??4COleSafeArray@@QAEAAV0@ABV0@@Z 0042220c f   nafxcw:olevar.obj
 0001:00021232       ??4COleSafeArray@@QAEAAV0@ABUtagVARIANT@@@Z 00422232 f   nafxcw:olevar.obj
 0001:00021258       ??4COleSafeArray@@QAEAAV0@PBUtagVARIANT@@@Z 00422258 f   nafxcw:olevar.obj
 0001:0002127e       ??4COleSafeArray@@QAEAAV0@ABVCOleVariant@@@Z 0042227e f   nafxcw:olevar.obj
 0001:000212a4       ??8COleSafeArray@@QBEHABUtagSAFEARRAY@@@Z 004222a4 f   nafxcw:olevar.obj
 0001:000212b3       ??8COleSafeArray@@QBEHPBUtagSAFEARRAY@@@Z 004222b3 f   nafxcw:olevar.obj
 0001:000212c2       ??8COleSafeArray@@QBEHABV0@@Z 004222c2 f   nafxcw:olevar.obj
 0001:000212e0       ??8COleSafeArray@@QBEHABUtagVARIANT@@@Z 004222e0 f   nafxcw:olevar.obj
 0001:000212fe       ??8COleSafeArray@@QBEHPBUtagVARIANT@@@Z 004222fe f   nafxcw:olevar.obj
 0001:0002131c       ??8COleSafeArray@@QBEHABVCOleVariant@@@Z 0042231c f   nafxcw:olevar.obj
 0001:0002133a       ?AccessData@COleSafeArray@@QAEXPAPAX@Z 0042233a f   nafxcw:olevar.obj
 0001:00021350       ?UnaccessData@COleSafeArray@@QAEXXZ 00422350 f   nafxcw:olevar.obj
 0001:00021360       ?AllocData@COleSafeArray@@QAEXXZ 00422360 f   nafxcw:olevar.obj
 0001:00021370       ?AllocDescriptor@COleSafeArray@@QAEXK@Z 00422370 f   nafxcw:olevar.obj
 0001:00021387       ?Copy@COleSafeArray@@QAEXPAPAUtagSAFEARRAY@@@Z 00422387 f   nafxcw:olevar.obj
 0001:0002139d       ?GetLBound@COleSafeArray@@QAEXKPAJ@Z 0042239d f   nafxcw:olevar.obj
 0001:000213b7       ?GetUBound@COleSafeArray@@QAEXKPAJ@Z 004223b7 f   nafxcw:olevar.obj
 0001:000213d1       ?GetElement@COleSafeArray@@QAEXPAJPAX@Z 004223d1 f   nafxcw:olevar.obj
 0001:000213eb       ?PtrOfIndex@COleSafeArray@@QAEXPAJPAPAX@Z 004223eb f   nafxcw:olevar.obj
 0001:00021405       ?PutElement@COleSafeArray@@QAEXPAJPAX@Z 00422405 f   nafxcw:olevar.obj
 0001:0002141f       ?Redim@COleSafeArray@@QAEXPAUtagSAFEARRAYBOUND@@@Z 0042241f f   nafxcw:olevar.obj
 0001:00021435       ?Lock@COleSafeArray@@QAEXXZ 00422435 f   nafxcw:olevar.obj
 0001:00021445       ?Unlock@COleSafeArray@@QAEXXZ 00422445 f   nafxcw:olevar.obj
 0001:00021455       ?Destroy@COleSafeArray@@QAEXXZ 00422455 f   nafxcw:olevar.obj
 0001:00021465       ?DestroyData@COleSafeArray@@QAEXXZ 00422465 f   nafxcw:olevar.obj
 0001:00021475       ?DestroyDescriptor@COleSafeArray@@QAEXXZ 00422475 f   nafxcw:olevar.obj
 0001:00021485       ?AfxSafeArrayInit@@YGXPAVCOleSafeArray@@@Z 00422485 f   nafxcw:olevar.obj
 0001:0002149f       ?AllocSysString@?$ChTraitsCRT@D@ATL@@SAPA_WPBDH@Z 0042249f f i nafxcw:olevar.obj
 0001:000214ea       ??$HashKey@K@@YGIK@Z       004224ea f i nafxcw:olevar.obj
 0001:000214f4       ?GetSize@CByteArray@@QBEHXZ 004224f4 f i nafxcw:olevar.obj
 0001:000214f8       ?GetData@CByteArray@@QBEPBEXZ 004224f8 f i nafxcw:olevar.obj
 0001:000214fc       ?GetData@CByteArray@@QAEPAEXZ 004224fc f i nafxcw:olevar.obj
 0001:00021500       ?IsLoading@CArchive@@QBEHXZ 00422500 f i nafxcw:olevar.obj
 0001:00021507       ??0CComBSTR@ATL@@QAE@XZ    00422507 f i nafxcw:olevar.obj
 0001:0002150d       ??BCComBSTR@ATL@@QBEPA_WXZ 0042250d f i nafxcw:olevar.obj
 0001:00021510       ??ICComBSTR@ATL@@QAEPAPA_WXZ 00422510 f i nafxcw:olevar.obj
 0001:00021513       ?Attach@CComBSTR@ATL@@QAEXPA_W@Z 00422513 f i nafxcw:olevar.obj
 0001:0002152f       ?Detach@CComBSTR@ATL@@QAEPA_WXZ 0042252f f i nafxcw:olevar.obj
 0001:00021535       ?Empty@CComBSTR@ATL@@QAEXXZ 00422535 f i nafxcw:olevar.obj
 0001:00021545       ??0COleDateTime@ATL@@QAE@XZ 00422545 f i nafxcw:olevar.obj
 0001:00021550       ?GetStatus@COleDateTime@ATL@@QBE?AW4DateTimeStatus@12@XZ 00422550 f i nafxcw:olevar.obj
 0001:00021554       ?GetAsSystemTime@COleDateTime@ATL@@QBE_NAAU_SYSTEMTIME@@@Z 00422554 f i nafxcw:olevar.obj
 0001:00021579       ??BCOleDateTime@ATL@@QBENXZ 00422579 f i nafxcw:olevar.obj
 0001:0002157c       ?SetDateTime@COleDateTime@ATL@@QAEHHHHHHH@Z 0042257c f i nafxcw:olevar.obj
 0001:0002163d       ??0COleVariant@@QAE@XZ     0042263d f i nafxcw:olevar.obj
 0001:0002164a       ??1COleVariant@@QAE@XZ     0042264a f i nafxcw:olevar.obj
 0001:00021652       ?Clear@COleVariant@@QAEXXZ 00422652 f i nafxcw:olevar.obj
 0001:0002165a       ??BCOleVariant@@QAEPAUtagVARIANT@@XZ 0042265a f i nafxcw:olevar.obj
 0001:0002165d       ??0COleCurrency@@QAE@ABV0@@Z 0042265d f i nafxcw:olevar.obj
 0001:00021676       ?GetStatus@COleCurrency@@QBE?AW4CurrencyStatus@1@XZ 00422676 f i nafxcw:olevar.obj
 0001:0002167a       ?SetStatus@COleCurrency@@QAEXW4CurrencyStatus@1@@Z 0042267a f i nafxcw:olevar.obj
 0001:00021684       ?Clear@COleSafeArray@@QAEXXZ 00422684 f i nafxcw:olevar.obj
 0001:0002168c       ?GetDim@COleSafeArray@@QAEKXZ 0042268c f i nafxcw:olevar.obj
 0001:00021696       ?GetElemSize@COleSafeArray@@QAEKXZ 00422696 f i nafxcw:olevar.obj
 0001:000216a0       ??0COleVariant@@QAE@ABUtagVARIANT@@@Z 004226a0 f   nafxcw:olevar.obj
 0001:000216c0       ??0COleVariant@@QAE@PBUtagVARIANT@@@Z 004226c0 f   nafxcw:olevar.obj
 0001:000216e0       ??0COleVariant@@QAE@ABV0@@Z 004226e0 f   nafxcw:olevar.obj
 0001:00021700       ??0COleVariant@@QAE@PBDG@Z 00422700 f   nafxcw:olevar.obj
 0001:00021777       ?SetString@COleVariant@@QAEXPBDG@Z 00422777 f   nafxcw:olevar.obj
 0001:000217f3       ?Attach@COleVariant@@QAEXAAUtagVARIANT@@@Z 004227f3 f   nafxcw:olevar.obj
 0001:00021817       ?GetByteArrayFromVariantArray@COleVariant@@QAEXAAVCByteArray@@@Z 00422817 f   nafxcw:olevar.obj
 0001:000218b0       ??4COleVariant@@QAEABV0@QBD@Z 004228b0 f   nafxcw:olevar.obj
 0001:0002191d       ??4COleVariant@@QAEABV0@ABV?$CStringT@DV?$StrTraitMFC@DV?$ChTraitsCRT@D@ATL@@@@@ATL@@@Z 0042291d f   nafxcw:olevar.obj
 0001:0002198c       ??4COleVariant@@QAEABV0@E@Z 0042298c f   nafxcw:olevar.obj
 0001:000219ae       ??4COleVariant@@QAEABV0@F@Z 004229ae f   nafxcw:olevar.obj
 0001:000219e7       ??4COleVariant@@QAEABV0@J@Z 004229e7 f   nafxcw:olevar.obj
 0001:00021a26       ??4COleVariant@@QAEABV0@ABVCOleCurrency@@@Z 00422a26 f   nafxcw:olevar.obj
 0001:00021a50       ??4COleVariant@@QAEABV0@M@Z 00422a50 f   nafxcw:olevar.obj
 0001:00021a72       ??4COleVariant@@QAEABV0@N@Z 00422a72 f   nafxcw:olevar.obj
 0001:00021a94       ??4COleVariant@@QAEABV0@ABVCOleDateTime@ATL@@@Z 00422a94 f   nafxcw:olevar.obj
 0001:00021ab8       ??4COleVariant@@QAEABV0@ABVCByteArray@@@Z 00422ab8 f   nafxcw:olevar.obj
 0001:00021aec       ??$HashKey@ABUtagVARIANT@@@@YGIABUtagVARIANT@@@Z 00422aec f   nafxcw:olevar.obj
 0001:00021b74       ??4COleCurrency@@QAEABV0@TtagCY@@@Z 00422b74 f   nafxcw:olevar.obj
 0001:00021b8a       ??4COleCurrency@@QAEABV0@ABUtagVARIANT@@@Z 00422b8a f   nafxcw:olevar.obj
 0001:00021c28       ??0COleSafeArray@@QAE@ABUtagSAFEARRAY@@G@Z 00422c28 f   nafxcw:olevar.obj
 0001:00021c6e       ??0COleSafeArray@@QAE@PBUtagSAFEARRAY@@G@Z 00422c6e f   nafxcw:olevar.obj
 0001:00021cb4       ??0COleSafeArray@@QAE@ABV0@@Z 00422cb4 f   nafxcw:olevar.obj
 0001:00021ce6       ??0COleSafeArray@@QAE@ABUtagVARIANT@@@Z 00422ce6 f   nafxcw:olevar.obj
 0001:00021d18       ??0COleSafeArray@@QAE@ABVCOleVariant@@@Z 00422d18 f   nafxcw:olevar.obj
 0001:00021d4a       ??0COleSafeArray@@QAE@PBUtagVARIANT@@@Z 00422d4a f   nafxcw:olevar.obj
 0001:00021d7c       ?Attach@COleSafeArray@@QAEXAAUtagVARIANT@@@Z 00422d7c f   nafxcw:olevar.obj
 0001:00021dab       ?GetByteArray@COleSafeArray@@QAEXAAVCByteArray@@@Z 00422dab f   nafxcw:olevar.obj
 0001:00021e44       ?GetOneDimSize@COleSafeArray@@QAEKXZ 00422e44 f   nafxcw:olevar.obj
 0001:00021e6e       ?ResizeOneDim@COleSafeArray@@QAEXK@Z 00422e6e f   nafxcw:olevar.obj
 0001:00021ea3       ?Create@COleSafeArray@@QAEXGKPAUtagSAFEARRAYBOUND@@@Z 00422ea3 f   nafxcw:olevar.obj
 0001:00021f0d       ??6CArchive@@QAEAAV0@E@Z   00422f0d f i nafxcw:olevar.obj
 0001:00021f45       ??6CArchive@@QAEAAV0@_J@Z  00422f45 f i nafxcw:olevar.obj
 0001:00021f87       ??6CArchive@@QAEAAV0@_K@Z  00422f87 f i nafxcw:olevar.obj
 0001:00021fc9       ??6CArchive@@QAEAAV0@G@Z   00422fc9 f i nafxcw:olevar.obj
 0001:00022005       ??6CArchive@@QAEAAV0@J@Z   00423005 f i nafxcw:olevar.obj
 0001:00022040       ??6CArchive@@QAEAAV0@K@Z   00423040 f i nafxcw:olevar.obj
 0001:0002207b       ??6CArchive@@QAEAAV0@M@Z   0042307b f i nafxcw:olevar.obj
 0001:000220b6       ??6CArchive@@QAEAAV0@N@Z   004230b6 f i nafxcw:olevar.obj
 0001:000220f1       ??5CArchive@@QAEAAV0@AAE@Z 004230f1 f i nafxcw:olevar.obj
 0001:00022130       ??5CArchive@@QAEAAV0@AA_J@Z 00423130 f i nafxcw:olevar.obj
 0001:00022178       ??5CArchive@@QAEAAV0@AA_K@Z 00423178 f i nafxcw:olevar.obj
 0001:000221c0       ??5CArchive@@QAEAAV0@AAG@Z 004231c0 f i nafxcw:olevar.obj
 0001:00022203       ??5CArchive@@QAEAAV0@AAK@Z 00423203 f i nafxcw:olevar.obj
 0001:00022245       ??5CArchive@@QAEAAV0@AAM@Z 00423245 f i nafxcw:olevar.obj
 0001:00022287       ??5CArchive@@QAEAAV0@AAN@Z 00423287 f i nafxcw:olevar.obj
 0001:000222c9       ??5CArchive@@QAEAAV0@AAJ@Z 004232c9 f i nafxcw:olevar.obj
 0001:0002230b       ??0COleCurrency@@QAE@XZ    0042330b f i nafxcw:olevar.obj
 0001:00022318       ??0COleCurrency@@QAE@TtagCY@@@Z 00423318 f i nafxcw:olevar.obj
 0001:0002232e       ??6@YGAAVCArchive@@AAV0@VCComBSTR@ATL@@@Z 0042332e f   nafxcw:olevar.obj
 0001:0002238f       ??5@YGAAVCArchive@@AAV0@AAVCComBSTR@ATL@@@Z 0042338f f   nafxcw:olevar.obj
 0001:000223ef       ??HCOleCurrency@@QBE?AV0@ABV0@@Z 004233ef f   nafxcw:olevar.obj
 0001:00022474       ??GCOleCurrency@@QBE?AV0@ABV0@@Z 00423474 f   nafxcw:olevar.obj
 0001:000224f9       ??GCOleCurrency@@QBE?AV0@XZ 004234f9 f   nafxcw:olevar.obj
 0001:0002253f       ??DCOleCurrency@@QBE?AV0@J@Z 0042353f f   nafxcw:olevar.obj
 0001:0002265d       ??KCOleCurrency@@QBE?AV0@J@Z 0042365d f   nafxcw:olevar.obj
 0001:000226d9       ?SetCurrency@COleCurrency@@QAEXJJ@Z 004236d9 f   nafxcw:olevar.obj
 0001:00022791       ??6@YGAAVCArchive@@AAV0@VCOleCurrency@@@Z 00423791 f   nafxcw:olevar.obj
 0001:000227b9       ??5@YGAAVCArchive@@AAV0@AAVCOleCurrency@@@Z 004237b9 f   nafxcw:olevar.obj
 0001:000227e6       ??6@YGAAVCArchive@@AAV0@VCOleDateTime@ATL@@@Z 004237e6 f   nafxcw:olevar.obj
 0001:00022808       ??5@YGAAVCArchive@@AAV0@AAVCOleDateTime@ATL@@@Z 00423808 f   nafxcw:olevar.obj
 0001:00022828       ??6@YGAAVCArchive@@AAV0@VCOleDateTimeSpan@ATL@@@Z 00423828 f   nafxcw:olevar.obj
 0001:0002284a       ??5@YGAAVCArchive@@AAV0@AAVCOleDateTimeSpan@ATL@@@Z 0042384a f   nafxcw:olevar.obj
 0001:0002286a       ?CreateOneDim@COleSafeArray@@QAEXGKPBXJ@Z 0042386a f   nafxcw:olevar.obj
 0001:000228d1       ?Create@COleSafeArray@@QAEXGKPAK@Z 004238d1 f   nafxcw:olevar.obj
 0001:0002295d       ?AllocSysString@?$CStringT@DV?$StrTraitMFC@DV?$ChTraitsCRT@D@ATL@@@@@ATL@@QBEPA_WXZ 0042395d f i nafxcw:olevar.obj
 0001:00022974       ??6CArchive@@QAEAAV0@F@Z   00423974 f i nafxcw:olevar.obj
 0001:00022979       ??6CArchive@@QAEAAV0@D@Z   00423979 f i nafxcw:olevar.obj
 0001:0002297e       ??5CArchive@@QAEAAV0@AAF@Z 0042397e f i nafxcw:olevar.obj
 0001:00022983       ??5CArchive@@QAEAAV0@AAD@Z 00423983 f i nafxcw:olevar.obj
 0001:00022988       ?ParseDateTime@COleDateTime@ATL@@QAE_NPBDKK@Z 00423988 f i nafxcw:olevar.obj
 0001:00022a52       ??6@YGAAVCArchive@@AAV0@VCOleVariant@@@Z 00423a52 f   nafxcw:olevar.obj
 0001:00022c76       ??5@YGAAVCArchive@@AAV0@AAVCOleVariant@@@Z 00423c76 f   nafxcw:olevar.obj
 0001:00022f02       ??$SerializeElements@VCOleVariant@@@@YGXAAVCArchive@@PAVCOleVariant@@H@Z 00423f02 f   nafxcw:olevar.obj
 0001:00022f53       ??0COleCurrency@@QAE@JJ@Z  00423f53 f   nafxcw:olevar.obj
 0001:00022f6d       ?DDX_Text@@YGXPAVCDataExchange@@HAAUtagDEC@@@Z 00423f6d f   nafxcw:olevar.obj
 0001:000230a5       ?DDX_Text@@YGXPAVCDataExchange@@HAAU_GUID@@@Z 004240a5 f   nafxcw:olevar.obj
 0001:00023227       ??0?$CStringT@DV?$StrTraitMFC@DV?$ChTraitsCRT@D@ATL@@@@@ATL@@QAE@PB_W@Z 00424227 f i nafxcw:olevar.obj
 0001:00023272       ?ParseCurrency@COleCurrency@@QAEHPBDKK@Z 00424272 f   nafxcw:olevar.obj
 0001:0002334a       ?Format@COleCurrency@@QBE?AV?$CStringT@DV?$StrTraitMFC@DV?$ChTraitsCRT@D@ATL@@@@@ATL@@KK@Z 0042434a f   nafxcw:olevar.obj
 0001:0002344e       ?DDX_Text@@YGXPAVCDataExchange@@HAAVCOleCurrency@@@Z 0042444e f   nafxcw:olevar.obj
 0001:00023532       ?Format@COleDateTime@ATL@@QBE?AV?$CStringT@DV?$StrTraitMFC@DV?$ChTraitsCRT@D@ATL@@@@@2@KK@Z 00424532 f i nafxcw:olevar.obj
 0001:00023657       ?DDX_Text@@YGXPAVCDataExchange@@HAAVCOleDateTime@ATL@@@Z 00424657 f   nafxcw:olevar.obj
 0001:0002373b       ?DDX_Text@@YGXPAVCDataExchange@@HAAU_FILETIME@@@Z 0042473b f   nafxcw:olevar.obj
 0001:0002387a       ??0CArchiveException@@QAE@HPBD@Z 0042487a f i nafxcw:arcex.obj
 0001:000238c7       ??_ECArchiveException@@UAEPAXI@Z 004248c7 f i nafxcw:arcex.obj
 0001:000238c7       ??_GCArchiveException@@UAEPAXI@Z 004248c7 f i nafxcw:arcex.obj
 0001:000238e3       ??1CArchiveException@@UAE@XZ 004248e3 f i nafxcw:arcex.obj
 0001:000238f4       ??0CRect@@QAE@XZ           004248f4 f i nafxcw:winutil.obj
 0001:000238f7       ??BCRect@@QAEPAUtagRECT@@XZ 004248f7 f i nafxcw:winutil.obj
 0001:000238fa       ?PtInRect@CRect@@QBEHUtagPOINT@@@Z 004248fa f i nafxcw:winutil.obj
 0001:0002390c       ?GetHeadPosition@CPtrList@@QBEPAU__POSITION@@XZ 0042490c f i nafxcw:list_p.obj
 0001:00023910       ?GetTailPosition@CPtrList@@QBEPAU__POSITION@@XZ 00424910 f i nafxcw:list_p.obj
 0001:00023914       ?GetNext@CPtrList@@QAEAAPAXAAPAU__POSITION@@@Z 00424914 f i nafxcw:list_p.obj
 0001:0002392d       ?GetPrev@CPtrList@@QAEAAPAXAAPAU__POSITION@@@Z 0042492d f i nafxcw:list_p.obj
 0001:00023947       ??0CPoint@@QAE@UtagPOINT@@@Z 00424947 f i nafxcw:thrdcore.obj
 0001:00023959       ??8CPoint@@QBEHUtagPOINT@@@Z 00424959 f i nafxcw:thrdcore.obj
 0001:00023974       ?SendMessageA@CWnd@@QAEJIIJ@Z 00424974 f i nafxcw:thrdcore.obj
 0001:0002398c       ?IsWindowVisible@CWnd@@QBEHXZ 0042498c f i nafxcw:thrdcore.obj
 0001:00023996       ?SendMessageToDescendants@CWnd@@QAEXIIJHH@Z 00424996 f i nafxcw:thrdcore.obj
 0001:000239b4       ?GetActiveWindow@CWnd@@SGPAV1@XZ 004249b4 f i nafxcw:thrdcore.obj
 0001:000239c1       ?SetThreadPriority@CWinThread@@QAEHH@Z 004249c1 f i nafxcw:thrdcore.obj
 0001:000239d1       ?ResumeThread@CWinThread@@QAEKXZ 004249d1 f i nafxcw:thrdcore.obj
 0001:000239db       ??0AFX_CLASSINIT@@QAE@PAUCRuntimeClass@@@Z 004249db f i nafxcw:array_b.obj
 0001:000239ed       ?GetAt@CByteArray@@QBEEH@Z 004249ed f i nafxcw:array_b.obj
 0001:00023a09       ?SetAt@CByteArray@@QAEXHE@Z 00424a09 f i nafxcw:array_b.obj
 0001:00023a29       ?GetFile@CArchive@@QBEPAVCFile@@XZ 00424a29 f i nafxcw:arcstrm.obj
 0001:00023a2d       ??0ISequentialStream@@QAE@XZ 00424a2d f i nafxcw:arcstrm.obj
 0001:00023a30       ??0IStream@@QAE@XZ         00424a30 f i nafxcw:arcstrm.obj
 0001:00023a33       ?GetNextWindow@@YAPAUHWND__@@PAU1@I@Z 00424a33 f i nafxcw:winocc.obj
 0001:00023a42       ?GetNext@CPtrList@@QBEAAPBXAAPAU__POSITION@@@Z 00424a42 f i nafxcw:winocc.obj
 0001:00023a5b       ?GetPrev@CPtrList@@QBEAAPBXAAPAU__POSITION@@@Z 00424a5b f i nafxcw:winocc.obj
 0001:00023a75       ?GetAt@CPtrList@@QBEAAPBXPAU__POSITION@@@Z 00424a75 f i nafxcw:winocc.obj
 0001:00023a88       ?GetSafeHandle@CGdiObject@@QBEPAXXZ 00424a88 f i nafxcw:winocc.obj
 0001:00023a93       ?GetNextWindow@CWnd@@QBEPAV1@I@Z 00424a93 f i nafxcw:winocc.obj
 0001:00023aaa       ?GetWindow@CWnd@@QBEPAV1@I@Z 00424aaa f i nafxcw:winocc.obj
 0001:00023ac0       ?LookupPermanent@CHandleMap@@QAEPAVCObject@@PAX@Z 00424ac0 f i nafxcw:winocc.obj
 0001:00023ac8       ??0CSize@@QAE@K@Z          00424ac8 f i nafxcw:cmdtarg.obj
 0001:00023adf       ?CheckMenuItem@CMenu@@QAEIII@Z 00424adf f i nafxcw:cmdtarg.obj
 0001:00023af3       ?EnableMenuItem@CMenu@@QAEIII@Z 00424af3 f i nafxcw:cmdtarg.obj
 0001:00023b07       ?GetMenuState@CMenu@@QBEIII@Z 00424b07 f i nafxcw:cmdtarg.obj
 0001:00023b1b       ?ModifyMenuA@CMenu@@QAEHIIIPBD@Z 00424b1b f i nafxcw:cmdtarg.obj
 0001:00023b37       ?GetParent@CWnd@@QBEPAV1@XZ 00424b37 f i nafxcw:cmdtarg.obj
 0001:00023b47       ?SetAt@CMapPtrToPtr@@QAEXPAX0@Z 00424b47 f i nafxcw:winhand.obj
 0001:00023b59       ?LookupTemporary@CHandleMap@@QAEPAVCObject@@PAX@Z 00424b59 f i nafxcw:winhand.obj
 0001:00023b61       ??_ECHandleMap@@UAEPAXI@Z  00424b61 f i nafxcw:winhand.obj
 0001:00023b61       ??_GCHandleMap@@UAEPAXI@Z  00424b61 f i nafxcw:winhand.obj
 0001:00023b7d       ??1CHandleMap@@UAE@XZ      00424b7d f i nafxcw:winhand.obj
 0001:00023bd1       __tcscmp                   00424bd1 f i nafxcw:wincore.obj
 0001:00023bd6       ?UnlockResource@@YGHPAX@Z  00424bd6 f i nafxcw:wincore.obj
 0001:00023bdb       ?A2T@@YAPADPAD@Z           00424bdb f i nafxcw:wincore.obj
 0001:00023be0       ??0CPoint@@QAE@J@Z         00424be0 f i nafxcw:wincore.obj
 0001:00023bf7       ?Width@CRect@@QBEHXZ       00424bf7 f i nafxcw:wincore.obj
 0001:00023bfd       ?Height@CRect@@QBEHXZ      00424bfd f i nafxcw:wincore.obj
 0001:00023c04       ?TopLeft@CRect@@QAEAAVCPoint@@XZ 00424c04 f i nafxcw:wincore.obj
 0001:00023c07       ?BottomRight@CRect@@QAEAAVCPoint@@XZ 00424c07 f i nafxcw:wincore.obj
 0001:00023c0b       ??4CRect@@QAEXABUtagRECT@@@Z 00424c0b f i nafxcw:wincore.obj
 0001:00023c19       ??2CObject@@SGPAXIPAX@Z    00424c19 f i nafxcw:wincore.obj
 0001:00023c20       ??3CObject@@SGXPAX0@Z      00424c20 f i nafxcw:wincore.obj
 0001:00023c2d       _IsPlatformNT              00424c2d f   nafxcw:wincore.obj
 0001:00023c7e       _InitMultipleMonitorStubs  00424c7e f   nafxcw:wincore.obj
 0001:00023d78       _xGetSystemMetrics@4       00424d78 f   nafxcw:wincore.obj
 0001:00023dc0       _xMonitorFromPoint@12      00424dc0 f   nafxcw:wincore.obj
 0001:00023e16       _xMonitorFromRect@8        00424e16 f   nafxcw:wincore.obj
 0001:00023e62       _xMonitorFromWindow@8      00424e62 f   nafxcw:wincore.obj
 0001:00023ecd       _xGetMonitorInfo@8         00424ecd f   nafxcw:wincore.obj
 0001:00023f62       _xEnumDisplayMonitors@16   00424f62 f   nafxcw:wincore.obj
 0001:0002404d       _xEnumDisplayDevices@16    0042504d f   nafxcw:wincore.obj
 0001:000240ba       ??1CAccessibleProxy@ATL@@UAE@XZ 004250ba f i nafxcw:wincore.obj
 0001:000240bb       ?AtlIAccessibleInvokeHelper@ATL@@YGJPAUIAccessible@@JABU_GUID@@KGPAUtagDISPPARAMS@@PAUtagVARIANT@@PAUtagEXCEPINFO@@PAI@Z 004250bb f   nafxcw:wincore.obj
 0001:000246a3       ?AtlIAccessibleGetIDsOfNamesHelper@ATL@@YGJABU_GUID@@PAPA_WIKPAJ@Z 004256a3 f   nafxcw:wincore.obj
 0001:00024703       ?AfxGetInstanceHandle@@YGPAUHINSTANCE__@@XZ 00425703 f i nafxcw:wincore.obj
 0001:0002470c       ?GetMenuItemCount@CMenu@@QBEIXZ 0042570c f i nafxcw:wincore.obj
 0001:00024716       ?GetMenuItemID@CMenu@@QBEIH@Z 00425716 f i nafxcw:wincore.obj
 0001:00024726       ?GetSubMenu@CMenu@@QBEPAV1@H@Z 00425726 f i nafxcw:wincore.obj
 0001:0002473c       ?PostMessageA@CWnd@@QAEHIIJ@Z 0042573c f i nafxcw:wincore.obj
 0001:00024754       ?GetMenu@CWnd@@QBEPAVCMenu@@XZ 00425754 f i nafxcw:wincore.obj
 0001:00024764       ?GetWindowRect@CWnd@@QBEXPAUtagRECT@@@Z 00425764 f i nafxcw:wincore.obj
 0001:00024774       ?GetClientRect@CWnd@@QBEXPAUtagRECT@@@Z 00425774 f i nafxcw:wincore.obj
 0001:00024784       ?ScreenToClient@CWnd@@QBEXPAUtagPOINT@@@Z 00425784 f i nafxcw:wincore.obj
 0001:00024794       ?UpdateWindow@CWnd@@QAEXXZ 00425794 f i nafxcw:wincore.obj
 0001:0002479e       ?ShowScrollBar@CWnd@@QAEXIH@Z 0042579e f i nafxcw:wincore.obj
 0001:000247b2       ?SetForegroundWindow@CWnd@@QAEHXZ 004257b2 f i nafxcw:wincore.obj
 0001:000247bc       ?DoDataExchange@CWnd@@MAEXPAVCDataExchange@@@Z 004257bc f i nafxcw:wincore.obj
 0001:000247bf       ?BeginModalState@CWnd@@UAEXXZ 004257bf f i nafxcw:wincore.obj
 0001:000247cb       ?EndModalState@CWnd@@UAEXXZ 004257cb f i nafxcw:wincore.obj
 0001:000247d7       ?GetScrollPos@CScrollBar@@QBEHXZ 004257d7 f i nafxcw:wincore.obj
 0001:000247e3       ?SetScrollPos@CScrollBar@@QAEHHH@Z 004257e3 f i nafxcw:wincore.obj
 0001:000247f9       ?GetScrollRange@CScrollBar@@QBEXPAH0@Z 004257f9 f i nafxcw:wincore.obj
 0001:0002480f       ?SetScrollRange@CScrollBar@@QAEXHHH@Z 0042580f f i nafxcw:wincore.obj
 0001:00024829       ??0CWaitCursor@@QAE@XZ     00425829 f i nafxcw:wincore.obj
 0001:0002483d       ??1CWaitCursor@@QAE@XZ     0042583d f i nafxcw:wincore.obj
 0001:0002484a       ?SetWindowLongPtrA@@YAJPAUHWND__@@HJ@Z 0042584a f i nafxcw:wincore.obj
 0001:0002485d       ?GetWindowLongPtrA@@YAJPAUHWND__@@H@Z 0042585d f i nafxcw:wincore.obj
 0001:0002486c       ?SetPermanent@CHandleMap@@QAEXPAXPAVCObject@@@Z 0042586c f i nafxcw:wincore.obj
 0001:00024881       ?RemoveHandle@CHandleMap@@QAEXPAX@Z 00425881 f i nafxcw:wincore.obj
 0001:00024889       ??0CComObjectRootBase@ATL@@QAE@XZ 00425889 f i nafxcw:wincore.obj
 0001:0002488f       ?FinalConstruct@CComObjectRootBase@ATL@@QAEJXZ 0042588f f i nafxcw:wincore.obj
 0001:00024892       ?_AtlFinalConstruct@CComObjectRootBase@ATL@@QAEJXZ 00425892 f i nafxcw:wincore.obj
 0001:00024895       ?SetVoid@CComObjectRootBase@ATL@@QAEXPAX@Z 00425895 f i nafxcw:wincore.obj
 0001:00024898       ?InternalFinalConstructAddRef@CComObjectRootBase@ATL@@QAEXXZ 00425898 f i nafxcw:wincore.obj
 0001:00024899       ?InternalFinalConstructRelease@CComObjectRootBase@ATL@@QAEXXZ 00425899 f i nafxcw:wincore.obj
 0001:0002489a       ??0?$CComObjectRootEx@VCComSingleThreadModel@ATL@@@ATL@@QAE@XZ 0042589a f i nafxcw:wincore.obj
 0001:000248a0       ??0IOleWindow@@QAE@XZ      004258a0 f i nafxcw:wincore.obj
 0001:000248a3       ?GetDescendantWindow@CWnd@@QBEPAV1@HH@Z 004258a3 f i nafxcw:wincore.obj
 0001:000248b6       ?SetActiveWindow@CWnd@@QAEPAV1@XZ 004258b6 f i nafxcw:wincore.obj
 0001:000248c6       ?GetLastActivePopup@CWnd@@QBEPAV1@XZ 004258c6 f i nafxcw:wincore.obj
 0001:000248d6       ?GetForegroundWindow@CWnd@@SGPAV1@XZ 004258d6 f i nafxcw:wincore.obj
 0001:000248e3       ??0CAccessibleProxy@ATL@@QAE@XZ 004258e3 f i nafxcw:wincore.obj
 0001:000248fe       ?GetWindow@CAccessibleProxy@ATL@@UAGJPAPAUHWND__@@@Z 004258fe f i nafxcw:wincore.obj
 0001:00024903       ?ContextSensitiveHelp@CAccessibleProxy@ATL@@UAGJH@Z 00425903 f i nafxcw:wincore.obj
 0001:0002490b       ?FinalRelease@CAccessibleProxy@ATL@@QAEJXZ 0042590b f i nafxcw:wincore.obj
 0001:00024920       ?AtlInternalQueryInterface@ATL@@YGJPAXPBU_ATL_INTMAP_ENTRY@1@ABU_GUID@@PAPAX@Z 00425920 f i nafxcw:wincore.obj
 0001:000249ee       ?GetOwner@CWnd@@QBEPAV1@XZ 004259ee f i nafxcw:wincore.obj
 0001:00024a05       ?GetUpperBound@CPtrArray@@QBEHXZ 00425a05 f i nafxcw:arcobj.obj
 0001:00024a0a       ?GetAt@CPtrArray@@QBEPAXH@Z 00425a0a f i nafxcw:arcobj.obj
 0001:00024a26       ?SetAt@CPtrArray@@QAEXHPAX@Z 00425a26 f i nafxcw:arcobj.obj
 0001:00024a46       ??0CSize@@QAE@XZ           00425a46 f i nafxcw:wingdi.obj
 0001:00024a49       ??0CSize@@QAE@UtagSIZE@@@Z 00425a49 f i nafxcw:wingdi.obj
 0001:00024a5b       ??0CRect@@QAE@HHHH@Z       00425a5b f i nafxcw:wingdi.obj
 0001:00024a7b       ?SwapLeftRight@CRect@@SGXPAUtagRECT@@@Z 00425a7b f i nafxcw:wingdi.obj
 0001:00024a8c       ??0CResourceException@@QAE@HI@Z 00425a8c f i nafxcw:wingdi.obj
 0001:00024aae       ??1CResourceException@@UAE@XZ 00425aae f i nafxcw:wingdi.obj
 0001:00024ab5       ??0CUserException@@QAE@HI@Z 00425ab5 f i nafxcw:wingdi.obj
 0001:00024ad7       ??1CUserException@@UAE@XZ  00425ad7 f i nafxcw:wingdi.obj
 0001:00024ade       ??0CGdiObject@@QAE@XZ      00425ade f i nafxcw:wingdi.obj
 0001:00024aeb       ?GetBitmap@CBitmap@@QAEHPAUtagBITMAP@@@Z 00425aeb f i nafxcw:wingdi.obj
 0001:00024afd       ?GetSafeHdc@CDC@@QBEPAUHDC__@@XZ 00425afd f i nafxcw:wingdi.obj
 0001:00024b08       ?GetViewportExt@CDC@@QBE?AVCSize@@XZ 00425b08 f i nafxcw:wingdi.obj
 0001:00024b2c       ?GetWindowExt@CDC@@QBE?AVCSize@@XZ 00425b2c f i nafxcw:wingdi.obj
 0001:00024b50       ?FillRect@CDC@@QAEXPBUtagRECT@@PAVCBrush@@@Z 00425b50 f i nafxcw:wingdi.obj
 0001:00024b6c       ?BitBlt@CDC@@QAEHHHHHPAV1@HHK@Z 00425b6c f i nafxcw:wingdi.obj
 0001:00024b9c       ?GetPixel@CDC@@QBEKHH@Z    00425b9c f i nafxcw:wingdi.obj
 0001:00024bb0       ?StartDocA@CDC@@QAEHPAU_DOCINFOA@@@Z 00425bb0 f i nafxcw:wingdi.obj
 0001:00024bc0       ?abs@@YAJJ@Z               00425bc0 f i nafxcw:wingdi.obj
 0001:00024bc5       ?PtVisible@CDC@@UBEHHH@Z   00425bc5 f i nafxcw:wingdi.obj
 0001:00024bd9       ?RectVisible@CDC@@UBEHPBUtagRECT@@@Z 00425bd9 f i nafxcw:wingdi.obj
 0001:00024be9       ?TextOutA@CDC@@UAEHHHPBDH@Z 00425be9 f i nafxcw:wingdi.obj
 0001:00024c05       ?ExtTextOutA@CDC@@UAEHHHIPBUtagRECT@@PBDIPAH@Z 00425c05 f i nafxcw:wingdi.obj
 0001:00024c2a       ?TabbedTextOutA@CDC@@UAE?AVCSize@@HHPBDHHPAHH@Z 00425c2a f i nafxcw:wingdi.obj
 0001:00024c62       ?DrawTextA@CDC@@UAEHPBDHPAUtagRECT@@I@Z 00425c62 f i nafxcw:wingdi.obj
 0001:00024c7e       ?DrawTextExA@CDC@@UAEHPADHPAUtagRECT@@IPAUtagDRAWTEXTPARAMS@@@Z 00425c7e f i nafxcw:wingdi.obj
 0001:00024c9d       ?GrayStringA@CDC@@UAEHPAVCBrush@@P6GHPAUHDC__@@JH@ZJHHHHH@Z 00425c9d f i nafxcw:wingdi.obj
 0001:00024ccd       ?Escape@CDC@@UAEHHHPBDPAX@Z 00425ccd f i nafxcw:wingdi.obj
 0001:00024ce9       ??_ECResourceException@@UAEPAXI@Z 00425ce9 f i nafxcw:wingdi.obj
 0001:00024ce9       ??_GCResourceException@@UAEPAXI@Z 00425ce9 f i nafxcw:wingdi.obj
 0001:00024d05       ??_GCUserException@@UAEPAXI@Z 00425d05 f i nafxcw:wingdi.obj
 0001:00024d05       ??_ECUserException@@UAEPAXI@Z 00425d05 f i nafxcw:wingdi.obj
 0001:00024d21       ??1CGdiObject@@UAE@XZ      00425d21 f i nafxcw:wingdi.obj
 0001:00024d2c       ??0CBrush@@QAE@XZ          00425d2c f i nafxcw:wingdi.obj
 0001:00024d39       ??1CBrush@@UAE@XZ          00425d39 f i nafxcw:wingdi.obj
 0001:00024d44       ?CreatePatternBrush@CBrush@@QAEHPAVCBitmap@@@Z 00425d44 f i nafxcw:wingdi.obj
 0001:00024d65       ?FromHandle@CFont@@SGPAV1@PAUHFONT__@@@Z 00425d65 f i nafxcw:wingdi.obj
 0001:00024d6a       ??0CBitmap@@QAE@XZ         00425d6a f i nafxcw:wingdi.obj
 0001:00024d77       ??1CBitmap@@UAE@XZ         00425d77 f i nafxcw:wingdi.obj
 0001:00024d82       ?CreateBitmap@CBitmap@@QAEHHHIIPBX@Z 00425d82 f i nafxcw:wingdi.obj
 0001:00024daa       ?CreateCompatibleDC@CDC@@QAEHPAV1@@Z 00425daa f i nafxcw:wingdi.obj
 0001:00024dcb       ??_ECGdiObject@@UAEPAXI@Z  00425dcb f i nafxcw:wingdi.obj
 0001:00024dcb       ??_GCGdiObject@@UAEPAXI@Z  00425dcb f i nafxcw:wingdi.obj
 0001:00024de7       ??_GCPen@@UAEPAXI@Z        00425de7 f i nafxcw:wingdi.obj
 0001:00024de7       ??_ECPen@@UAEPAXI@Z        00425de7 f i nafxcw:wingdi.obj
 0001:00024e03       ??1CPen@@UAE@XZ            00425e03 f i nafxcw:wingdi.obj
 0001:00024e0e       ??_GCBrush@@UAEPAXI@Z      00425e0e f i nafxcw:wingdi.obj
 0001:00024e0e       ??_ECBrush@@UAEPAXI@Z      00425e0e f i nafxcw:wingdi.obj
 0001:00024e2a       ??_GCBitmap@@UAEPAXI@Z     00425e2a f i nafxcw:wingdi.obj
 0001:00024e2a       ??_ECBitmap@@UAEPAXI@Z     00425e2a f i nafxcw:wingdi.obj
 0001:00024e46       ?SelectObject@CDC@@QAEPAVCBitmap@@PAV2@@Z 00425e46 f i nafxcw:wingdi.obj
 0001:00024e5d       ??0CFixedAllocNoSync@@QAE@II@Z 00425e5d f   nafxcw:fixalloc.obj
 0001:00024e87       ?FreeAll@CFixedAllocNoSync@@QAEXXZ 00425e87 f   nafxcw:fixalloc.obj
 0001:00024e9c       ?Free@CFixedAllocNoSync@@QAEXPAX@Z 00425e9c f   nafxcw:fixalloc.obj
 0001:00024eaf       ??1CFixedAllocNoSync@@QAE@XZ 00425eaf f   nafxcw:fixalloc.obj
 0001:00024eb4       ?Alloc@CFixedAllocNoSync@@QAEPAXXZ 00425eb4 f   nafxcw:fixalloc.obj
 0001:00024ef5       ??0CFixedAlloc@@QAE@II@Z   00425ef5 f   nafxcw:fixalloc.obj
 0001:00024f15       ??1CFixedAlloc@@QAE@XZ     00425f15 f   nafxcw:fixalloc.obj
 0001:00024f2a       ?FreeAll@CFixedAlloc@@QAEXXZ 00425f2a f   nafxcw:fixalloc.obj
 0001:00024f97       ?Alloc@CFixedAlloc@@QAEPAXXZ 00425f97 f   nafxcw:fixalloc.obj
 0001:00024ff5       ?Free@CFixedAlloc@@QAEXPAX@Z 00425ff5 f   nafxcw:fixalloc.obj
 0001:0002506c       ??0CRect@@QAE@ABUtagRECT@@@Z 0042606c f i nafxcw:winmenu.obj
 0001:00025080       ?InflateRect@CRect@@QAEXHH@Z 00426080 f i nafxcw:winmenu.obj
 0001:00025092       ?GetObjectA@CGdiObject@@QBEHHPAX@Z 00426092 f i nafxcw:winmenu.obj
 0001:000250a6       ??0CFont@@QAE@XZ           004260a6 f i nafxcw:winmenu.obj
 0001:000250b3       ??1CFont@@UAE@XZ           004260b3 f i nafxcw:winmenu.obj
 0001:000250be       ?CreateFontIndirectA@CFont@@QAEHPBUtagLOGFONTA@@@Z 004260be f i nafxcw:winmenu.obj
 0001:000250d7       ??0CMenu@@QAE@XZ           004260d7 f i nafxcw:winmenu.obj
 0001:000250e4       ?GetMenuItemInfoA@CMenu@@QAEHIPAUtagMENUITEMINFOA@@H@Z 004260e4 f i nafxcw:winmenu.obj
 0001:000250fc       ??_GCFont@@UAEPAXI@Z       004260fc f i nafxcw:winmenu.obj
 0001:000250fc       ??_ECFont@@UAEPAXI@Z       004260fc f i nafxcw:winmenu.obj
 0001:00025118       ?ExtTextOutA@CDC@@QAEHHHIPBUtagRECT@@ABV?$CStringT@DV?$StrTraitMFC@DV?$ChTraitsCRT@D@ATL@@@@@ATL@@PAH@Z 00426118 f i nafxcw:winmenu.obj
 0001:00025141       ?GetTextExtent@CDC@@QBE?AVCSize@@ABV?$CStringT@DV?$StrTraitMFC@DV?$ChTraitsCRT@D@ATL@@@@@ATL@@@Z 00426141 f i nafxcw:winmenu.obj
 0001:0002516e       ??1CMenu@@UAE@XZ           0042616e f i nafxcw:winmenu.obj
 0001:00025179       ??_ECMenu@@UAEPAXI@Z       00426179 f i nafxcw:winmenu.obj
 0001:00025179       ??_GCMenu@@UAEPAXI@Z       00426179 f i nafxcw:winmenu.obj
 0001:00025195       ?T2CA@@YAPBDPBD@Z          00426195 f i nafxcw:appcore.obj
 0001:0002519a       ?SetResourceInstance@CAtlBaseModule@ATL@@QAEPAUHINSTANCE__@@PAU3@@Z 0042619a f i nafxcw:appcore.obj
 0001:000251ab       ?AfxSetResourceHandle@@YGXPAUHINSTANCE__@@@Z 004261ab f i nafxcw:appcore.obj
 0001:000251ba       ?GetSize@CPtrArray@@QBEHXZ 004261ba f i nafxcw:array_p.obj
 0001:000251be       ?IntersectRect@CRect@@QAEHPBUtagRECT@@0@Z 004261be f i nafxcw:wingdix.obj
 0001:000251d0       ?FromHandle@CBrush@@SGPAV1@PAUHBRUSH__@@@Z 004261d0 f i nafxcw:wingdix.obj
 0001:000251d5       ??0CRgn@@QAE@XZ            004261d5 f i nafxcw:wingdix.obj
 0001:000251e2       ??1CRgn@@UAE@XZ            004261e2 f i nafxcw:wingdix.obj
 0001:000251ed       ?CreateRectRgn@CRgn@@QAEHHHHH@Z 004261ed f i nafxcw:wingdix.obj
 0001:00025212       ?CreateRectRgnIndirect@CRgn@@QAEHPBUtagRECT@@@Z 00426212 f i nafxcw:wingdix.obj
 0001:0002522b       ?SetRectRgn@CRgn@@QAEXPBUtagRECT@@@Z 0042622b f i nafxcw:wingdix.obj
 0001:00025246       ?CombineRgn@CRgn@@QAEHPAV1@0H@Z 00426246 f i nafxcw:wingdix.obj
 0001:00025272       ?GetDeviceCaps@CDC@@QBEHH@Z 00426272 f i nafxcw:wingdix.obj
 0001:00025282       ?GetMapMode@CDC@@QBEHXZ    00426282 f i nafxcw:wingdix.obj
 0001:0002528c       ?PatBlt@CDC@@QAEHHHHHK@Z   0042628c f i nafxcw:wingdix.obj
 0001:000252ab       ??_ECRgn@@UAEPAXI@Z        004262ab f i nafxcw:wingdix.obj
 0001:000252ab       ??_GCRgn@@UAEPAXI@Z        004262ab f i nafxcw:wingdix.obj
 0001:000252c7       ?ShowOwnedPopups@CWnd@@QAEXH@Z 004262c7 f i nafxcw:appui.obj
 0001:000252d7       ??ACRecentFileList@@QAEAAV?$CStringT@DV?$StrTraitMFC@DV?$ChTraitsCRT@D@ATL@@@@@ATL@@H@Z 004262d7 f i nafxcw:appui.obj
 0001:000252e4       ?DeleteMenu@CMenu@@QAEHII@Z 004262e4 f i nafxcw:filelist.obj
 0001:000252f8       ?InsertMenuA@CMenu@@QAEHIIIPBD@Z 004262f8 f i nafxcw:filelist.obj
 0001:00025314       ?GetBuffer@?$CSimpleStringT@D$0A@@ATL@@QAEPADXZ 00426314 f i nafxcw:appui2.obj
 0001:0002532e       ?GetFileTitle@@YGFPBDPADG@Z 0042632e f i nafxcw:filecore.obj
 0001:00025334       ??1CFileException@@UAE@XZ  00426334 f i nafxcw:filecore.obj
 0001:00025345       ??_ECFileException@@UAEPAXI@Z 00426345 f i nafxcw:filecore.obj
 0001:00025345       ??_GCFileException@@UAEPAXI@Z 00426345 f i nafxcw:filecore.obj
 0001:00025361       ??0CFileException@@QAE@HJPBD@Z 00426361 f i nafxcw:filecore.obj
 0001:000253b4       ?SetFilePath@CFile@@UAEXPBD@Z 004263b4 f i nafxcw:filecore.obj
 0001:000253c9       __tcsdec                   004263c9 f i nafxcw:docmgr.obj
 0001:000253ce       ??_9@$BBEM@AE              004263ce f i nafxcw:docmgr.obj
 0001:000253d6       ?GetCount@CPtrList@@QBEHXZ 004263d6 f i nafxcw:docmgr.obj
 0001:000253da       ?GetHead@CPtrList@@QAEAAPAXXZ 004263da f i nafxcw:docmgr.obj
 0001:000253e1       ?IsIconic@CWnd@@QBEHXZ     004263e1 f i nafxcw:docmgr.obj
 0001:000253eb       ?Create@CDialog@@UAEHIPAVCWnd@@@Z 004263eb f i nafxcw:docmgr.obj
 0001:00025400       ?GetCount@CListBox@@QBEHXZ 00426400 f i nafxcw:docmgr.obj
 0001:00025413       ?GetCurSel@CListBox@@QBEHXZ 00426413 f i nafxcw:docmgr.obj
 0001:00025426       ?SetCurSel@CListBox@@QAEHH@Z 00426426 f i nafxcw:docmgr.obj
 0001:0002543d       ?SetItemData@CListBox@@QAEHHK@Z 0042643d f i nafxcw:docmgr.obj
 0001:00025456       ?GetItemDataPtr@CListBox@@QBEPAXH@Z 00426456 f i nafxcw:docmgr.obj
 0001:0002546d       ?SetItemDataPtr@CListBox@@QAEHHPAX@Z 0042646d f i nafxcw:docmgr.obj
 0001:00025472       ?AddString@CListBox@@QAEHPBD@Z 00426472 f i nafxcw:docmgr.obj
 0001:00025489       ?ResetContent@CListBox@@QAEXXZ 00426489 f i nafxcw:docmgr.obj
 0001:0002549c       ?Append@?$CSimpleStringT@D$0A@@ATL@@QAEXABV12@@Z 0042649c f i nafxcw:docmgr.obj
 0001:000254ae       ?IsValidFILETIME@CTime@ATL@@SGHABU_FILETIME@@@Z 004264ae f i nafxcw:filest.obj
 0001:000254dd       ??0CTime@ATL@@QAE@XZ       004264dd f i nafxcw:filest.obj
 0001:000254e7       ??0CTime@ATL@@QAE@HHHHHHH@Z 004264e7 f i nafxcw:filest.obj
 0001:00025547       ??0CTime@ATL@@QAE@ABU_SYSTEMTIME@@H@Z 00426547 f i nafxcw:filest.obj
 0001:0002559f       ??0CTime@ATL@@QAE@ABU_FILETIME@@H@Z 0042659f f i nafxcw:filest.obj
 0001:000255fd       ??4CTime@ATL@@QAEAAV01@_J@Z 004265fd f i nafxcw:filest.obj
 0001:0002560f       ?GetLocalTm@CTime@ATL@@QBEPAUtm@@PAU3@@Z 0042660f f i nafxcw:filest.obj
 0001:00025636       ?GetTime@CTime@ATL@@QBE_JXZ 00426636 f i nafxcw:filest.obj
 0001:0002563c       ?GetYear@CTime@ATL@@QBEHXZ 0042663c f i nafxcw:filest.obj
 0001:00025653       ?GetMonth@CTime@ATL@@QBEHXZ 00426653 f i nafxcw:filest.obj
 0001:00025666       ?GetDay@CTime@ATL@@QBEHXZ  00426666 f i nafxcw:filest.obj
 0001:00025678       ?GetHour@CTime@ATL@@QBEHXZ 00426678 f i nafxcw:filest.obj
 0001:0002568b       ?GetMinute@CTime@ATL@@QBEHXZ 0042668b f i nafxcw:filest.obj
 0001:0002569e       ?GetSecond@CTime@ATL@@QBEHXZ 0042669e f i nafxcw:filest.obj
 0001:000256b0       ??_9@$BBFA@AE              004266b0 f i nafxcw:dlgcore.obj
 0001:000256b8       ?GetNextDlgTabItem@CWnd@@QBEPAV1@PAV1@H@Z 004266b8 f i nafxcw:dlgcore.obj
 0001:000256da       ??1CCommonDialog@@UAE@XZ   004266da f i nafxcw:dlgfile.obj
 0001:000256df       ??0CCommonDialog@@QAE@PAVCWnd@@@Z 004266df f i nafxcw:dlgfile.obj
 0001:000256f3       ?_JumpToContinuation@@YGXPAXPAUEHRegistrationNode@@@Z 004266f3 f   libcmt:trnsctrl.obj
 0001:00025723       ?_CallMemberFunction0@@YGXPAX0@Z 00426723 f   libcmt:trnsctrl.obj
 0001:0002572a       ?_CallMemberFunction1@@YGXPAX00@Z 0042672a f   libcmt:trnsctrl.obj
 0001:00025731       ?_CallMemberFunction2@@YGXPAX00H@Z 00426731 f   libcmt:trnsctrl.obj
 0001:00025738       ?_UnwindNestedFrames@@YGXPAUEHRegistrationNode@@PAUEHExceptionRecord@@@Z 00426738 f   libcmt:trnsctrl.obj
 0001:0002578a       ___CxxFrameHandler         0042678a f   libcmt:trnsctrl.obj
 0001:000257c0       ___CxxLongjmpUnwind@4      004267c0 f   libcmt:trnsctrl.obj
 0001:00025815       ?_CallSETranslator@@YAHPAUEHExceptionRecord@@PAUEHRegistrationNode@@PAX2PBU_s_FuncInfo@@H1@Z 00426815 f   libcmt:trnsctrl.obj
 0001:0002598e       ?_GetRangeOfTrysToCheck@@YAPBU_s_TryBlockMapEntry@@PBU_s_FuncInfo@@HHPAI1@Z 0042698e f   libcmt:trnsctrl.obj
 0001:00025a08       ?_CreateFrameInfo@@YAPAUFrameInfo@@PAU1@PAX@Z 00426a08 f   libcmt:trnsctrl.obj
 0001:00025a30       ?IsExceptionObjectToBeDestroyed@@YAHPAX@Z 00426a30 f   libcmt:trnsctrl.obj
 0001:00025a51       ?_FindAndUnlinkFrame@@YAXPAUFrameInfo@@@Z 00426a51 f   libcmt:trnsctrl.obj
 0001:00025a9d       ?_CallCatchBlock2@@YAPAXPAUEHRegistrationNode@@PBU_s_FuncInfo@@PAXHK@Z 00426a9d f   libcmt:trnsctrl.obj
 0001:00025b27       @__security_check_cookie@4 00426b27 f   libcmt:secchk.obj
 0001:00025b40       __chkstk                   00426b40 f   libcmt:chkstk.obj
 0001:00025b40       __alloca_probe             00426b40     libcmt:chkstk.obj
 0001:00025b80       __global_unwind2           00426b80 f   libcmt:exsup.obj
 0001:00025bc2       __local_unwind2            00426bc2 f   libcmt:exsup.obj
 0001:00025c1a       __NLG_Return2              00426c1a     libcmt:exsup.obj
 0001:00025c2a       __abnormal_termination     00426c2a f   libcmt:exsup.obj
 0001:00025c4d       __NLG_Notify1              00426c4d f   libcmt:exsup.obj
 0001:00025c56       __NLG_Notify               00426c56 f   libcmt:exsup.obj
 0001:00025c69       __NLG_Dispatch             00426c69     libcmt:exsup.obj
 0001:00025c70       _memmove                   00426c70 f   libcmt:memmove.obj
 0001:00025fad       __CxxThrowException@8      00426fad f   libcmt:throw.obj
 0001:00025fe7       ??0exception@@QAE@XZ       00426fe7 f   libcmt:stdexcpt.obj
 0001:00025ff8       ??0exception@@QAE@ABQBD@Z  00426ff8 f   libcmt:stdexcpt.obj
 0001:00026040       ??0exception@@QAE@ABV0@@Z  00427040 f   libcmt:stdexcpt.obj
 0001:00026092       ??1exception@@UAE@XZ       00427092 f   libcmt:stdexcpt.obj
 0001:000260a8       ?what@exception@@UBEPBDXZ  004270a8 f   libcmt:stdexcpt.obj
 0001:000260b5       ??0bad_cast@@QAE@PBD@Z     004270b5 f   libcmt:stdexcpt.obj
 0001:000260ce       ??0bad_cast@@QAE@ABV0@@Z   004270ce f   libcmt:stdexcpt.obj
 0001:000260e6       ??1bad_cast@@UAE@XZ        004270e6 f   libcmt:stdexcpt.obj
 0001:000260f1       ??0bad_typeid@@QAE@PBD@Z   004270f1 f   libcmt:stdexcpt.obj
 0001:0002610a       ??0bad_typeid@@QAE@ABV0@@Z 0042710a f   libcmt:stdexcpt.obj
 0001:00026122       ??1bad_typeid@@UAE@XZ      00427122 f   libcmt:stdexcpt.obj
 0001:0002612d       ??0__non_rtti_object@@QAE@PBD@Z 0042712d f   libcmt:stdexcpt.obj
 0001:00026145       ??0__non_rtti_object@@QAE@ABV0@@Z 00427145 f   libcmt:stdexcpt.obj
 0001:0002615d       ??1__non_rtti_object@@UAE@XZ 0042715d f   libcmt:stdexcpt.obj
 0001:00026168       ??_Eexception@@UAEPAXI@Z   00427168 f i libcmt:stdexcpt.obj
 0001:00026168       ??_Gexception@@UAEPAXI@Z   00427168 f i libcmt:stdexcpt.obj
 0001:00026184       ??4exception@@QAEAAV0@ABV0@@Z 00427184 f   libcmt:stdexcpt.obj
 0001:000261a3       ??_Gbad_cast@@UAEPAXI@Z    004271a3 f i libcmt:stdexcpt.obj
 0001:000261a3       ??_Ebad_cast@@UAEPAXI@Z    004271a3 f i libcmt:stdexcpt.obj
 0001:000261bf       ??_Gbad_typeid@@UAEPAXI@Z  004271bf f i libcmt:stdexcpt.obj
 0001:000261bf       ??_Ebad_typeid@@UAEPAXI@Z  004271bf f i libcmt:stdexcpt.obj
 0001:000261db       ??_E__non_rtti_object@@UAEPAXI@Z 004271db f i libcmt:stdexcpt.obj
 0001:000261db       ??_G__non_rtti_object@@UAEPAXI@Z 004271db f i libcmt:stdexcpt.obj
 0001:000261f7       ??1type_info@@UAE@XZ       004271f7 f   libcmt:typinfo.obj
 0001:0002623d       ??_Etype_info@@UAEPAXI@Z   0042723d f i libcmt:typinfo.obj
 0001:0002623d       ??_Gtype_info@@UAEPAXI@Z   0042723d f i libcmt:typinfo.obj
 0001:00026259       ??8type_info@@QBEHABV0@@Z  00427259 f   libcmt:typinfo.obj
 0001:00026274       ??9type_info@@QBEHABV0@@Z  00427274 f   libcmt:typinfo.obj
 0001:00026290       ?before@type_info@@QBEHABV1@@Z 00427290 f   libcmt:typinfo.obj
 0001:000262af       ?raw_name@type_info@@QBEPBDXZ 004272af f   libcmt:typinfo.obj
 0001:000262b3       ??0type_info@@AAE@ABV0@@Z  004272b3 f   libcmt:typinfo.obj
 0001:000262be       ??4type_info@@AAEAAV0@ABV0@@Z 004272be f   libcmt:typinfo.obj
 0001:00026343       ___onexitinit              00427343 f   libcmt:onexit.obj
 0001:0002636b       __onexit                   0042736b f   libcmt:onexit.obj
 0001:000263a3       _atexit                    004273a3 f   libcmt:onexit.obj
 0001:000263b5       _time                      004273b5 f   libcmt:time.obj
 0001:000263ee       _srand                     004273ee f   libcmt:rand.obj
 0001:000263fb       _rand                      004273fb f   libcmt:rand.obj
 0001:0002641d       _atol                      0042741d f   libcmt:atox.obj
 0001:000264a5       _atoi                      004274a5 f   libcmt:atox.obj
 0001:000264aa       __atoi64                   004274aa f   libcmt:atox.obj
 0001:00026551       __mbscmp                   00427551 f   libcmt:mbscmp.obj
 0001:000265e5       __time64                   004275e5 f   libcmt:time64.obj
 0001:00026621       __Getdays                  00427621 f   libcmt:strftime.obj
 0001:000266a0       __Getmonths                004276a0 f   libcmt:strftime.obj
 0001:00026735       __Gettnames                00427735 f   libcmt:strftime.obj
 0001:00027127       __Strftime_mt              00428127 f   libcmt:strftime.obj
 0001:000271ea       __Strftime                 004281ea f   libcmt:strftime.obj
 0001:0002721c       _strftime                  0042821c f   libcmt:strftime.obj
 0001:00027237       __localtime64              00428237 f   libcmt:loctim64.obj
 0001:00027445       _sprintf                   00428445 f   libcmt:sprintf.obj
 0001:0002749d       __scprintf                 0042849d f   libcmt:sprintf.obj
 0001:000274ce       __heap_alloc               004284ce f   libcmt:malloc.obj
 0001:00027549       __nh_malloc                00428549 f   libcmt:malloc.obj
 0001:00027575       _malloc                    00428575 f   libcmt:malloc.obj
 0001:00027587       _free                      00428587 f   libcmt:free.obj
 0001:000275f8       __resetstkoflw             004285f8 f   libcmt:resetstk.obj
 0001:000276e4       __except_handler3          004286e4 f   libcmt:exsup3.obj
 0001:000277ca       __seh_longjmp_unwind@4     004287ca f   libcmt:exsup3.obj
 0001:000277e5       _wcscat                    004287e5 f   libcmt:wcscat.obj
 0001:0002780f       _wcscpy                    0042880f f   libcmt:wcscat.obj
 0001:0002782b       __mbsstr                   0042882b f   libcmt:mbsstr.obj
 0001:000278dd       __mbsupr                   004288dd f   libcmt:mbsupr.obj
 0001:00027962       __fpclear                  00428962 f   libcmt:fpinit.obj
 0001:00027963       __cfltcvt_init             00428963 f   libcmt:fpinit.obj
 0001:0002799b       ___setfflag                0042899b f   libcmt:fpinit.obj
 0001:000279ab       __fpmath                   004289ab f   libcmt:fpinit.obj
 0001:000279c9       __vsnprintf                004289c9 f   libcmt:vsnprint.obj
 0001:00027a1f       __purecall                 00428a1f f   libcmt:purevirt.obj
 0001:00027a33       __set_purecall_handler     00428a33 f   libcmt:purevirt.obj
 0001:00027a43       __endthreadex              00428a43 f   libcmt:threadex.obj
 0001:00027b09       __beginthreadex            00428b09 f   libcmt:threadex.obj
 0001:00027ba0       __alldiv                   00428ba0 f   libcmt:lldiv.obj
 0001:00027c4a       __mbsnbcpy                 00428c4a f   libcmt:mbsnbcpy.obj
 0001:00027cdd       __mbsrchr                  00428cdd f   libcmt:mbsrchr.obj
 0001:00027d50       _strncpy                   00428d50 f   libcmt:strncpy.obj
 0001:00027e74       __snprintf                 00428e74 f   libcmt:snprintf.obj
 0001:00027ecb       _sscanf                    00428ecb f   libcmt:sscanf.obj
 0001:00027eff       __fclose_lk                00428eff f   libcmt:fclose.obj
 0001:00027f4b       _fclose                    00428f4b f   libcmt:fclose.obj
 0001:00027f9c       _fprintf                   00428f9c f   libcmt:fprintf.obj
 0001:00027ffa       __fsopen                   00428ffa f   libcmt:fopen.obj
 0001:00028056       _fopen                     00429056 f   libcmt:fopen.obj
 0001:00028069       __fread_lk                 00429069 f   libcmt:fread.obj
 0001:00028152       _fread                     00429152 f   libcmt:fread.obj
 0001:0002819e       __fseek_lk                 0042919e f   libcmt:fseek.obj
 0001:0002822d       _fseek                     0042922d f   libcmt:fseek.obj
 0001:00028276       __findclose                00429276 f   libcmt:findfile.obj
 0001:00028296       ___timet_from_ft           00429296 f   libcmt:findfile.obj
 0001:000282fa       __findfirst                004292fa f   libcmt:findfile.obj
 0001:000283dc       __findnext                 004293dc f   libcmt:findfile.obj
 0001:000284b9       __fwrite_lk                004294b9 f   libcmt:fwrite.obj
 0001:000285c0       _fwrite                    004295c0 f   libcmt:fwrite.obj
 0001:0002860c       _wcslen                    0042960c f   libcmt:wcslen.obj
 0001:00028624       __ftol2                    00429624 f   libcmt:ftol2.obj
 0001:000286b0       _strchr                    004296b0 f   libcmt:strchr.obj
 0001:000286b6       ___from_strstr_to_strchr   004296b6     libcmt:strchr.obj
 0001:0002876e       __mbsinc                   0042976e f   libcmt:mbsinc.obj
 0001:0002878a       __ismbcspace               0042978a f   libcmt:ismbspc.obj
 0001:0002880e       __mbslwr                   0042980e f   libcmt:mbslwr.obj
 0001:00028893       __flush                    00429893 f   libcmt:fflush.obj
 0001:000288f0       __fflush_lk                004298f0 f   libcmt:fflush.obj
 0001:000289f3       _fflush                    004299f3 f   libcmt:fflush.obj
 0001:00028a43       __flushall                 00429a43 f   libcmt:fflush.obj
 0001:00028a4c       _fgetc                     00429a4c f   libcmt:fgetc.obj
 0001:00028a9c       _getc                      00429a9c f   libcmt:fgetc.obj
 0001:00028aec       __getwc_lk                 00429aec f   libcmt:fgetwc.obj
 0001:00028be0       _fgetwc                    00429be0 f   libcmt:fgetwc.obj
 0001:00028c22       _getwc                     00429c22 f   libcmt:fgetwc.obj
 0001:00028c27       __ftell_lk                 00429c27 f   libcmt:ftell.obj
 0001:00028d89       _ftell                     00429d89 f   libcmt:ftell.obj
 0001:00028dca       _vsprintf                  00429dca f   libcmt:vsprintf.obj
 0001:00028e21       __vscprintf                00429e21 f   libcmt:vsprintf.obj
 0001:00028e51       __filelength               00429e51 f   libcmt:flength.obj
 0001:00028f25       _atof                      00429f25 f   libcmt:atof.obj
 0001:00028f60       __allshl                   00429f60 f   libcmt:llshl.obj
 0001:00028f7f       _isleadbyte                00429f7f f   libcmt:_wctype.obj
 0001:00028f94       _iswalpha                  00429f94 f   libcmt:_wctype.obj
 0001:00028fa5       _iswupper                  00429fa5 f   libcmt:_wctype.obj
 0001:00028fb3       _iswlower                  00429fb3 f   libcmt:_wctype.obj
 0001:00028fc1       _iswdigit                  00429fc1 f   libcmt:_wctype.obj
 0001:00028fcf       _iswxdigit                 00429fcf f   libcmt:_wctype.obj
 0001:00028fe0       _iswspace                  00429fe0 f   libcmt:_wctype.obj
 0001:00028fee       _iswpunct                  00429fee f   libcmt:_wctype.obj
 0001:00028ffc       _iswalnum                  00429ffc f   libcmt:_wctype.obj
 0001:0002900d       _iswprint                  0042a00d f   libcmt:_wctype.obj
 0001:0002901e       _iswgraph                  0042a01e f   libcmt:_wctype.obj
 0001:0002902f       _iswcntrl                  0042a02f f   libcmt:_wctype.obj
 0001:0002903d       _iswascii                  0042a03d f   libcmt:_wctype.obj
 0001:00029049       __amsg_exit                0042a049 f   libcmt:wincrt0.obj
 0001:000290e8       _WinMainCRTStartup         0042a0e8 f   libcmt:wincrt0.obj
 0001:000292bd       _fscanf                    0042a2bd f   libcmt:fscanf.obj
 0001:00029307       _localtime                 0042a307 f   libcmt:localtim.obj
 0001:00029487       _difftime                  0042a487 f   libcmt:difftime.obj
 0001:00029498       __ftol                     0042a498 f   libcmt:ftol.obj
 0001:000294c0       _memcpy                    0042a4c0 f   libcmt:memcpy.obj
 0001:00029800       _strlen                    0042a800 f   libcmt:strlen.obj
 0001:0002988c       __EH_prolog                0042a88c f   libcmt:ehprolog.obj
 0001:000298ab       _swprintf                  0042a8ab f   libcmt:swprintf.obj
 0001:0002991a       __scwprintf                0042a91a f   libcmt:swprintf.obj
 0001:0002994b       __mbschr                   0042a94b f   libcmt:mbschr.obj
 0001:000299c6       _realloc                   0042a9c6 f   libcmt:realloc.obj
 0001:00029b78       __SEH_prolog               0042ab78 f   libcmt:sehprolg.obj
 0001:00029bb3       __SEH_epilog               0042abb3 f   libcmt:sehprolg.obj
 0001:00029bd0       _memset                    0042abd0 f   libcmt:memset.obj
 0001:00029c42       ?__ArrayUnwind@@YGXPAXIHP6EX0@Z@Z 0042ac42 f   libcmt:ehvecdtr.obj
 0001:00029ca0       ??_M@YGXPAXIHP6EX0@Z@Z     0042aca0 f   libcmt:ehvecdtr.obj
 0001:00029d00       _memcmp                    0042ad00 f   libcmt:memcmp.obj
 0001:00029db8       _labs                      0042adb8 f   libcmt:labs.obj
 0001:00029dd0       __allmul                   0042add0 f   libcmt:llmul.obj
 0001:00029e04       __expand                   0042ae04 f   libcmt:expand.obj
 0001:00029eae       __msize                    0042aeae f   libcmt:msize.obj
 0001:0002a15d       ___updatetmbcinfo          0042b15d f   libcmt:mbctype.obj
 0001:0002a360       __getmbcp                  0042b360 f   libcmt:mbctype.obj
 0001:0002a370       __setmbcp                  0042b370 f   libcmt:mbctype.obj
 0001:0002a4c0       ___initmbctable            0042b4c0 f   libcmt:mbctype.obj
 0001:0002a4de       ___crtExitProcess          0042b4de f   libcmt:crt0dat.obj
 0001:0002a50e       __lockexit                 0042b50e f   libcmt:crt0dat.obj
 0001:0002a517       __unlockexit               0042b517 f   libcmt:crt0dat.obj
 0001:0002a556       __cinit                    0042b556 f   libcmt:crt0dat.obj
 0001:0002a683       _exit                      0042b683 f   libcmt:crt0dat.obj
 0001:0002a694       __exit                     0042b694 f   libcmt:crt0dat.obj
 0001:0002a6a5       __cexit                    0042b6a5 f   libcmt:crt0dat.obj
 0001:0002a6b4       __c_exit                   0042b6b4 f   libcmt:crt0dat.obj
 0001:0002a6c3       __strdup                   0042b6c3 f   libcmt:strdup.obj
 0001:0002a6ee       ??_L@YGXPAXIHP6EX0@Z1@Z    0042b6ee f   libcmt:ehvecctr.obj
 0001:0002a750       __errno                    0042b750 f   libcmt:dosmap.obj
 0001:0002a759       ___doserrno                0042b759 f   libcmt:dosmap.obj
 0001:0002a762       __dosmaperr                0042b762 f   libcmt:dosmap.obj
 0001:0002a7d5       __mbsdec                   0042b7d5 f   libcmt:mbsdec.obj
 0001:0002a824       ___mbsspn_mt               0042b824 f   libcmt:mbsspn.obj
 0001:0002a89b       __mbsspn                   0042b89b f   libcmt:mbsspn.obj
 0001:0002a8c2       ___mbscspn_mt              0042b8c2 f   libcmt:mbscspn.obj
 0001:0002a939       __mbscspn                  0042b939 f   libcmt:mbscspn.obj
 0001:0002abb0       __mktime64                 0042bbb0 f   libcmt:mktime64.obj
 0001:0002abbd       __mkgmtime64               0042bbbd f   libcmt:mktime64.obj
 0001:0002ac37       ___FrameUnwindToState      0042bc37 f   libcmt:frame.obj
 0001:0002ad35       ___DestructExceptionObject 0042bd35 f   libcmt:frame.obj
 0001:0002ad99       ?__uncaught_exception@@YA_NXZ 0042bd99 f   libcmt:frame.obj
 0001:0002adac       ___CxxRegisterExceptionObject 0042bdac f   libcmt:frame.obj
 0001:0002ae4f       ___CxxDetectRethrow        0042be4f f   libcmt:frame.obj
 0001:0002ae87       ___CxxUnregisterExceptionObject 0042be87 f   libcmt:frame.obj
 0001:0002af25       ___CxxQueryExceptionSize   0042bf25 f   libcmt:frame.obj
 0001:0002af29       ___CxxCallUnwindDtor       0042bf29 f   libcmt:frame.obj
 0001:0002af57       ___CxxCallUnwindVecDtor    0042bf57 f   libcmt:frame.obj
 0001:0002b2ce       ___CxxExceptionFilter      0042c2ce f   libcmt:frame.obj
 0001:0002b71c       ___InternalCxxFrameHandler 0042c71c f   libcmt:frame.obj
 0001:0002b7be       ___crtTlsAlloc@4           0042c7be f   libcmt:tidtable.obj
 0001:0002b7c7       __mtterm                   0042c7c7 f   libcmt:tidtable.obj
 0001:0002b7e4       __initptd                  0042c7e4 f   libcmt:tidtable.obj
 0001:0002b7f7       __getptd                   0042c7f7 f   libcmt:tidtable.obj
 0001:0002b868       __freefls@4                0042c868 f   libcmt:tidtable.obj
 0001:0002b9af       __freeptd                  0042c9af f   libcmt:tidtable.obj
 0001:0002b9de       ___threadid                0042c9de f   libcmt:tidtable.obj
 0001:0002b9e4       ___threadhandle            0042c9e4 f   libcmt:tidtable.obj
 0001:0002b9ea       __mtinit                   0042c9ea f   libcmt:tidtable.obj
 0001:0002bad9       ?terminate@@YAXXZ          0042cad9 f   libcmt:hooks.obj
 0001:0002bb0e       ?unexpected@@YAXXZ         0042cb0e f   libcmt:hooks.obj
 0001:0002bb26       ?_inconsistency@@YAXXZ     0042cb26 f   libcmt:hooks.obj
 0001:0002bb60       __CallSettingFrame@12      0042cb60 f   libcmt:lowhelpr.obj
 0001:0002bb87       __NLG_Return               0042cb87     libcmt:lowhelpr.obj
 0001:0002bbac       ___security_init_cookie    0042cbac f   libcmt:seccinit.obj
 0001:0002bc12       ___security_error_handler  0042cc12 f   libcmt:secfail.obj
 0001:0002bd5d       __set_security_error_handler 0042cd5d f   libcmt:secfail.obj
 0001:0002bd6d       ___buffer_overrun          0042cd6d f   libcmt:secfail.obj
 0001:0002bd79       ___set_buffer_overrun_handler 0042cd79 f   libcmt:secfail.obj
 0001:0002bd89       ?__CxxUnhandledExceptionFilter@@YGJPAU_EXCEPTION_POINTERS@@@Z 0042cd89 f   libcmt:unhandld.obj
 0001:0002bdd7       ?__CxxSetUnhandledExceptionFilter@@YAHXZ 0042cdd7 f   libcmt:unhandld.obj
 0001:0002bdea       ?__CxxRestoreUnhandledExceptionFilter@@YAXXZ 0042cdea f   libcmt:unhandld.obj
 0001:0002be00       _strcpy                    0042ce00 f   libcmt:strcat.obj
 0001:0002be10       _strcat                    0042ce10 f   libcmt:strcat.obj
 0001:0002bef8       __mtinitlocks              0042cef8 f   libcmt:mlock.obj
 0001:0002bf41       __mtdeletelocks            0042cf41 f   libcmt:mlock.obj
 0001:0002bf96       __unlock                   0042cf96 f   libcmt:mlock.obj
 0001:0002bfab       __lockerr_exit             0042cfab f   libcmt:mlock.obj
 0001:0002bfc3       __mtinitlocknum            0042cfc3 f   libcmt:mlock.obj
 0001:0002c063       __lock                     0042d063 f   libcmt:mlock.obj
 0001:0002c0a0       _strcmp                    0042d0a0 f   libcmt:strcmp.obj
 0001:0002c130       __aulldiv                  0042d130 f   libcmt:ulldiv.obj
 0001:0002c198       ___isctype_mt              0042d198 f   libcmt:isctype.obj
 0001:0002c20f       __isctype                  0042d20f f   libcmt:isctype.obj
 0001:0002c236       ____setlc_active_func      0042d236 f   libcmt:setlocal.obj
 0001:0002c23c       ____unguarded_readlc_active_add_func 0042d23c f   libcmt:setlocal.obj
 0001:0002c242       ___freetlocinfo            0042d242 f   libcmt:setlocal.obj
 0001:0002c3d3       ___init_dummy              0042d3d3 f   libcmt:setlocal.obj
 0001:0002c3d6       __strcats                  0042d3d6 f   libcmt:setlocal.obj
 0001:0002c3fa       ___lc_strtolc              0042d3fa f   libcmt:setlocal.obj
 0001:0002c4d6       ___lc_lctostr              0042d4d6 f   libcmt:setlocal.obj
 0001:0002c524       ___updatetlocinfo          0042d524 f   libcmt:setlocal.obj
 0001:0002c639       __expandlocale             0042d639 f   libcmt:setlocal.obj
 0001:0002cc0a       _setlocale                 0042dc0a f   libcmt:setlocal.obj
 0001:0002d34b       ___tzset                   0042e34b f   libcmt:tzset.obj
 0001:0002d397       __tzset                    0042e397 f   libcmt:tzset.obj
 0001:0002d3cc       __isindst                  0042e3cc f   libcmt:tzset.obj
 0001:0002d410       ___ascii_stricmp           0042e410 f   libcmt:_stricmp.obj
 0001:0002d45e       __gmtime64                 0042e45e f   libcmt:gmtime64.obj
 0001:0002d690       __allrem                   0042e690 f   libcmt:llrem.obj
 0001:0002d742       __flsbuf                   0042e742 f   libcmt:_flsbuf.obj
 0001:0002d908       __output                   0042e908 f   libcmt:output.obj
 0001:0002e0c4       ___heap_select             0042f0c4 f   libcmt:heapinit.obj
 0001:0002e0de       __heap_init                0042f0de f   libcmt:heapinit.obj
 0001:0002e12f       __heap_term                0042f12f f   libcmt:heapinit.obj
 0001:0002e1ae       __get_heap_handle          0042f1ae f   libcmt:heapinit.obj
 0001:0002e1b4       __get_sbh_threshold        0042f1b4 f   libcmt:sbheap.obj
 0001:0002e1c9       ___sbh_heap_init           0042f1c9 f   libcmt:sbheap.obj
 0001:0002e211       ___sbh_find_block          0042f211 f   libcmt:sbheap.obj
 0001:0002e23c       ___sbh_free_block          0042f23c f   libcmt:sbheap.obj
 0001:0002e554       ___sbh_alloc_new_region    0042f554 f   libcmt:sbheap.obj
 0001:0002e60b       ___sbh_alloc_new_group     0042f60b f   libcmt:sbheap.obj
 0001:0002e711       ___sbh_resize_block        0042f711 f   libcmt:sbheap.obj
 0001:0002e9f0       ___sbh_heapmin             0042f9f0 f   libcmt:sbheap.obj
 0001:0002eac1       ___sbh_heap_check          0042fac1 f   libcmt:sbheap.obj
 0001:0002edda       __set_sbh_threshold        0042fdda f   libcmt:sbheap.obj
 0001:0002ee35       ___sbh_alloc_block         0042fe35 f   libcmt:sbheap.obj
 0001:0002f131       ?_set_new_handler@@YAP6AHI@ZP6AHI@Z@Z 00430131 f   libcmt:handler.obj
 0001:0002f155       ?_query_new_handler@@YAP6AHI@ZXZ 00430155 f   libcmt:handler.obj
 0001:0002f15b       __callnewh                 0043015b f   libcmt:handler.obj
 0001:0002f176       __ValidateEH3RN            00430176 f   libcmt:eh3valid.obj
 0001:0002f3a0       _strstr                    004303a0 f   libcmt:strstr.obj
 0001:0002f442       ___crtLCMapStringA         00430442 f   libcmt:a_map.obj
 0001:0002f818       __forcdecpt                00430818 f   libcmt:cvt.obj
 0001:0002f854       __cropzeros                00430854 f   libcmt:cvt.obj
 0001:0002f89f       __positive                 0043089f f   libcmt:cvt.obj
 0001:0002f8b9       __fassign                  004308b9 f   libcmt:cvt.obj
 0001:0002f9c2       __cftoe                    004309c2 f   libcmt:cvt.obj
 0001:0002face       __cftof                    00430ace f   libcmt:cvt.obj
 0001:0002fb35       __cftog                    00430b35 f   libcmt:cvt.obj
 0001:0002fbd4       __cfltcvt                  00430bd4 f   libcmt:cvt.obj
 0001:0002fc25       __setdefaultprecision      00430c25 f   libcmt:fp8.obj
 0001:0002fc37       __ms_p5_test_fdiv          00430c37 f   libcmt:testfdiv.obj
 0001:0002fc77       __ms_p5_mp_test_fdiv       00430c77 f   libcmt:testfdiv.obj
 0001:0002fccc       __XcptFilter               00430ccc f   libcmt:winxfltr.obj
 0001:0002fe30       ___CppXcptFilter           00430e30 f   libcmt:winxfltr.obj
 0001:0002fe4b       _calloc                    00430e4b f   libcmt:calloc.obj
 0001:0002ff30       _strrchr                   00430f30 f   libcmt:strrchr.obj
 0001:0002ffb5       __input                    00430fb5 f   libcmt:input.obj
 0001:00030de0       __close_lk                 00431de0 f   libcmt:close.obj
 0001:00030e63       __close                    00431e63 f   libcmt:close.obj
 0001:00030efe       __freebuf                  00431efe f   libcmt:_freebuf.obj
 0001:00030f29       ___iob_func                00431f29 f   libcmt:_file.obj
 0001:00030f2f       ___initstdio               00431f2f f   libcmt:_file.obj
 0001:00030fd8       ___endstdio                00431fd8 f   libcmt:_file.obj
 0001:00030fec       __lock_file                00431fec f   libcmt:_file.obj
 0001:0003101b       __lock_file2               0043201b f   libcmt:_file.obj
 0001:0003103e       __unlock_file              0043203e f   libcmt:_file.obj
 0001:0003106d       __unlock_file2             0043206d f   libcmt:_file.obj
 0001:00031090       __stbuf                    00432090 f   libcmt:_sftbuf.obj
 0001:00031118       __ftbuf                    00432118 f   libcmt:_sftbuf.obj
 0001:00031142       __openfile                 00432142 f   libcmt:_open.obj
 0001:000312aa       __getstream                004322aa f   libcmt:stream.obj
 0001:000313cc       __filbuf                   004323cc f   libcmt:_filbuf.obj
 0001:000314ad       __read_lk                  004324ad f   libcmt:read.obj
 0001:0003168a       __read                     0043268a f   libcmt:read.obj
 0001:00031735       __lseek_lk                 00432735 f   libcmt:lseek.obj
 0001:000317a9       __lseek                    004327a9 f   libcmt:lseek.obj
 0001:00031854       ___loctotime_t             00432854 f   libcmt:dtoxtime.obj
 0001:00031962       __write_lk                 00432962 f   libcmt:write.obj
 0001:00031b1e       __write                    00432b1e f   libcmt:write.obj
 0001:00031bc9       _isalpha                   00432bc9 f   libcmt:_ctype.obj
 0001:00031c08       _isupper                   00432c08 f   libcmt:_ctype.obj
 0001:00031c42       _islower                   00432c42 f   libcmt:_ctype.obj
 0001:00031c7c       _isdigit                   00432c7c f   libcmt:_ctype.obj
 0001:00031cb6       _isxdigit                  00432cb6 f   libcmt:_ctype.obj
 0001:00031cf5       _isspace                   00432cf5 f   libcmt:_ctype.obj
 0001:00031d2f       _ispunct                   00432d2f f   libcmt:_ctype.obj
 0001:00031d69       _isalnum                   00432d69 f   libcmt:_ctype.obj
 0001:00031da8       _isprint                   00432da8 f   libcmt:_ctype.obj
 0001:00031de7       _isgraph                   00432de7 f   libcmt:_ctype.obj
 0001:00031e26       _iscntrl                   00432e26 f   libcmt:_ctype.obj
 0001:00031e60       ___isascii                 00432e60 f   libcmt:_ctype.obj
 0001:00031e6d       ___toascii                 00432e6d f   libcmt:_ctype.obj
 0001:00031e75       ___iscsymf                 00432e75 f   libcmt:_ctype.obj
 0001:00031e8f       ___iscsym                  00432e8f f   libcmt:_ctype.obj
 0001:00031ea9       ___crtGetStringTypeA       00432ea9 f   libcmt:a_str.obj
 0001:00032063       __commit                   00433063 f   libcmt:commit.obj
 0001:0003211f       __filwbuf                  0043311f f   libcmt:_filwbuf.obj
 0001:0003220b       ___mbtowc_mt               0043320b f   libcmt:mbtowc.obj
 0001:000322cb       _mbtowc                    004332cb f   libcmt:mbtowc.obj
 0001:000322f6       __ungetc_lk                004332f6 f   libcmt:ungetc.obj
 0001:00032362       _ungetc                    00433362 f   libcmt:ungetc.obj
 0001:000323a7       ___pwctype_func            004333a7 f   libcmt:ctype.obj
 0001:000323ad       ___pctype_func             004333ad f   libcmt:ctype.obj
 0001:000323b3       __ioinit                   004333b3 f   libcmt:ioinit.obj
 0001:000325b1       __ioterm                   004335b1 f   libcmt:ioinit.obj
 0001:000325fd       __set_osfhnd               004335fd f   libcmt:osfinfo.obj
 0001:00032679       __free_osfhnd              00433679 f   libcmt:osfinfo.obj
 0001:000326f8       __get_osfhandle            004336f8 f   libcmt:osfinfo.obj
 0001:00032739       __lock_fhandle             00433739 f   libcmt:osfinfo.obj
 0001:000327d9       __unlock_fhandle           004337d9 f   libcmt:osfinfo.obj
 0001:000327fb       __alloc_osfhnd             004337fb f   libcmt:osfinfo.obj
 0001:00032977       __open_osfhandle           00433977 f   libcmt:osfinfo.obj
 0001:00032a3e       __fltin2                   00433a3e f   libcmt:cfin.obj
 0001:00032adf       ___iswctype_mt             00433adf f   libcmt:iswctype.obj
 0001:00032b36       _iswctype                  00433b36 f   libcmt:iswctype.obj
 0001:00032b88       _is_wctype                 00433b88 f   libcmt:iswctype.obj
 0001:00032b8d       __NMSG_WRITE               00433b8d f   libcmt:crt0msg.obj
 0001:00032d05       __GET_RTERRMSG             00433d05 f   libcmt:crt0msg.obj
 0001:00032d2f       __FF_MSGBANNER             00433d2f f   libcmt:crt0msg.obj
 0001:00032d68       __wincmdln                 00433d68 f   libcmt:wincmdln.obj
 0001:00032dc5       __setenvp                  00433dc5 f   libcmt:stdenvp.obj
 0001:00032ff8       __setargv                  00433ff8 f   libcmt:stdargv.obj
 0001:0003309a       ___crtGetEnvironmentStringsA 0043409a f   libcmt:a_env.obj
 0001:000331bc       __RTC_Initialize           004341bc f   libcmt:initsect.obj
 0001:00033200       __RTC_Terminate            00434200 f   libcmt:initsect.obj
 0001:00033244       _gmtime                    00434244 f   libcmt:gmtime.obj
 0001:000333e7       __woutput                  004343e7 f   libcmt:woutput.obj
 0001:00033be0       _strspn                    00434be0 f   libcmt:strspn.obj
 0001:00033c30       _strcspn                   00434c30 f   libcmt:strcspn.obj
 0001:00033c76       ?_ValidateRead@@YAHPBXI@Z  00434c76 f   libcmt:validate.obj
 0001:00033c92       ?_ValidateWrite@@YAHPAXI@Z 00434c92 f   libcmt:validate.obj
 0001:00033cae       ?_ValidateExecute@@YAHP6GHXZ@Z 00434cae f   libcmt:validate.obj
 0001:00033cc6       _abort                     00434cc6 f   libcmt:abort.obj
 0001:00033cde       ___crtMessageBoxA          00434cde f   libcmt:crtmbox.obj
 0001:00033de7       ___crtInitCritSecAndSpinCount 00434de7 f   libcmt:initcrit.obj
 0001:00033e72       _localeconv                00434e72 f   libcmt:lconv.obj
 0001:000341df       ___free_lc_time            004351df f   libcmt:inittime.obj
 0001:0003436f       ___init_time               0043536f f   libcmt:inittime.obj
 0001:00034401       ___free_lconv_num          00435401 f   libcmt:initnum.obj
 0001:00034460       ___init_numeric            00435460 f   libcmt:initnum.obj
 0001:00034660       ___free_lconv_mon          00435660 f   libcmt:initmon.obj
 0001:00034739       ___init_monetary           00435739 f   libcmt:initmon.obj
 0001:00034978       ___init_ctype              00435978 f   libcmt:initctyp.obj
 0001:00034b66       ____mb_cur_max_func        00435b66 f   libcmt:initctyp.obj
 0001:00034b6c       ____lc_codepage_func       00435b6c f   libcmt:initctyp.obj
 0001:00034b85       ____lc_collate_cp_func     00435b85 f   libcmt:initctyp.obj
 0001:00034b9e       ____lc_handle_func         00435b9e f   libcmt:initctyp.obj
 0001:00034bb7       ___init_collate            00435bb7 f   libcmt:initcoll.obj
 0001:0003530d       ___get_qualified_locale    0043630d f   libcmt:getqloc.obj
 0001:000354d0       _strncmp                   004364d0 f   libcmt:strncmp.obj
 0001:00035510       _strpbrk                   00436510 f   libcmt:strpbrk.obj
 0001:00035550       __getenv_lk                00436550 f   libcmt:getenv.obj
 0001:000355d1       _getenv                    004365d1 f   libcmt:getenv.obj
 0001:00035610       __getbuf                   00436610 f   libcmt:_getbuf.obj
 0001:00035654       __isatty                   00436654 f   libcmt:isatty.obj
 0001:0003567e       ___wctomb_mt               0043667e f   libcmt:wctomb.obj
 0001:000356de       _wctomb                    004366de f   libcmt:wctomb.obj
 0001:00035710       __aulldvrm                 00436710 f   libcmt:ulldvrm.obj
 0001:000357a5       ___ansicp                  004367a5 f   libcmt:convrtcp.obj
 0001:000357ec       ___convertcp               004367ec f   libcmt:convrtcp.obj
 0001:000359c6       __tolower                  004369c6 f   libcmt:tolower.obj
 0001:000359ce       ___tolower_mt              004369ce f   libcmt:tolower.obj
 0001:00035a96       _tolower                   00436a96 f   libcmt:tolower.obj
 0001:00035ab8       __ZeroTail                 00436ab8 f   libcmt:intrncvt.obj
 0001:00035aea       __IncMan                   00436aea f   libcmt:intrncvt.obj
 0001:00035b37       __RoundMan                 00436b37 f   libcmt:intrncvt.obj
 0001:00035ba9       __CopyMan                  00436ba9 f   libcmt:intrncvt.obj
 0001:00035bc4       __FillZeroMan              00436bc4 f   libcmt:intrncvt.obj
 0001:00035bd0       __IsZeroMan                00436bd0 f   libcmt:intrncvt.obj
 0001:00035be9       __ShrMan                   00436be9 f   libcmt:intrncvt.obj
 0001:00035c64       __ld12cvt                  00436c64 f   libcmt:intrncvt.obj
 0001:00035dbc       __ld12tod                  00436dbc f   libcmt:intrncvt.obj
 0001:00035dd2       __ld12tof                  00436dd2 f   libcmt:intrncvt.obj
 0001:00035de8       __ld12told                 00436de8 f   libcmt:intrncvt.obj
 0001:00035e64       __atodbl                   00436e64 f   libcmt:intrncvt.obj
 0001:00035ea9       __atoldbl                  00436ea9 f   libcmt:intrncvt.obj
 0001:00035eef       __atoflt                   00436eef f   libcmt:intrncvt.obj
 0001:00035f34       __fptostr                  00436f34 f   libcmt:_fptostr.obj
 0001:00035fab       ___dtold                   00436fab f   libcmt:cfout.obj
 0001:00036065       __fltout2                  00437065 f   libcmt:cfout.obj
 0001:000360dd       __fptrap                   004370dd f   libcmt:crt0fp.obj
 0001:000360e6       __fpreset                  004370e6 f   libcmt:ieee87.obj
 0001:0003626a       __statusfp                 0043726a f   libcmt:ieee87.obj
 0001:0003627a       __clearfp                  0043727a f   libcmt:ieee87.obj
 0001:0003628b       __control87                0043728b f   libcmt:ieee87.obj
 0001:000362bd       __controlfp                004372bd f   libcmt:ieee87.obj
 0001:000362d3       __fcloseall                004372d3 f   libcmt:closeall.obj
 0001:00036655       __open                     00437655 f   libcmt:open.obj
 0001:000366aa       __sopen                    004376aa f   libcmt:open.obj
 0001:000366ff       __lseeki64_lk              004376ff f   libcmt:lseeki64.obj
 0001:00036782       __lseeki64                 00437782 f   libcmt:lseeki64.obj
 0001:00036840       ___strgtold12              00437840 f   libcmt:strgtold.obj
 0001:00036c80       ___STRINGTOLD              00437c80 f   libcmt:strgtold.obj
 0001:00036cd5       ___crtGetStringTypeW       00437cd5 f   libcmt:w_str.obj
 0001:00036f2d       __ismbbkalnum              00437f2d f   libcmt:ismbbyte.obj
 0001:00036f3e       __ismbbkprint              00437f3e f   libcmt:ismbbyte.obj
 0001:00036f4f       __ismbbkpunct              00437f4f f   libcmt:ismbbyte.obj
 0001:00036f60       __ismbbalnum               00437f60 f   libcmt:ismbbyte.obj
 0001:00036f74       __ismbbalpha               00437f74 f   libcmt:ismbbyte.obj
 0001:00036f88       __ismbbgraph               00437f88 f   libcmt:ismbbyte.obj
 0001:00036f9c       __ismbbprint               00437f9c f   libcmt:ismbbyte.obj
 0001:00036fb0       __ismbbpunct               00437fb0 f   libcmt:ismbbyte.obj
 0001:00036fc1       __ismbblead                00437fc1 f   libcmt:ismbbyte.obj
 0001:00036fd2       __ismbbtrail               00437fd2 f   libcmt:ismbbyte.obj
 0001:00036fe3       __ismbbkana                00437fe3 f   libcmt:ismbbyte.obj
 0001:0003700a       __putwc_lk                 0043800a f   libcmt:fputwc.obj
 0001:000370e4       _fputwc                    004380e4 f   libcmt:fputwc.obj
 0001:0003712c       _putwc                     0043812c f   libcmt:fputwc.obj
 0001:000371ee       ___fpecode                 004381ee f   libcmt:winsig.obj
 0001:000371f7       ___pxcptinfoptrs           004381f7 f   libcmt:winsig.obj
 0001:00037200       _signal                    00438200 f   libcmt:winsig.obj
 0001:000373a1       _raise                     004383a1 f   libcmt:winsig.obj
 0001:0003751a       ___getlocaleinfo           0043851a f   libcmt:inithelp.obj
 0001:0003764a       __stricmp                  0043864a f   libcmt:stricmp.obj
 0001:000376b3       __strnicmp                 004386b3 f   libcmt:strnicmp.obj
 0001:00037770       __itoa                     00438770 f   libcmt:xtoa.obj
 0001:0003779a       __ltoa                     0043879a f   libcmt:xtoa.obj
 0001:000377c1       __ultoa                    004387c1 f   libcmt:xtoa.obj
 0001:00037848       __i64toa                   00438848 f   libcmt:xtoa.obj
 0001:00037879       __ui64toa                  00438879 f   libcmt:xtoa.obj
 0001:00037894       __mbsnbicoll               00438894 f   libcmt:mbsnbico.obj
 0001:000378e2       ___wtomb_environ           004388e2 f   libcmt:wtombenv.obj
 0001:00037972       ___addl                    00438972 f   libcmt:mantold.obj
 0001:00037993       ___add_12                  00438993 f   libcmt:mantold.obj
 0001:000379f1       ___shl_12                  004389f1 f   libcmt:mantold.obj
 0001:00037a1f       ___shr_12                  00438a1f f   libcmt:mantold.obj
 0001:00037a4c       ___mtold12                 00438a4c f   libcmt:mantold.obj
 0001:00037b34       _$I10_OUTPUT               00438b34 f   libcmt:x10fout.obj
 0001:00037dd0       __chsize_lk                00438dd0 f   libcmt:chsize.obj
 0001:00037f15       __chsize                   00438f15 f   libcmt:chsize.obj
 0001:00037fac       ___ld12mul                 00438fac f   libcmt:tenpow.obj
 0001:000381e2       ___multtenpow12            004391e2 f   libcmt:tenpow.obj
 0001:00038270       __flswbuf                  00439270 f   libcmt:_flswbuf.obj
 0001:00038398       ___crtGetLocaleInfoW       00439398 f   libcmt:w_loc.obj
 0001:000384c8       ___crtGetLocaleInfoA       004394c8 f   libcmt:a_loc.obj
 0001:00038610       ___ascii_strnicmp          00439610 f   libcmt:_strnicm.obj
 0001:0003868d       ___crtCompareStringA       0043968d f   libcmt:a_cmp.obj
 0001:00038ac5       ___crtsetenv               00439ac5 f   libcmt:setenv.obj
 0001:00038c9b       __setmode_lk               00439c9b f   libcmt:setmode.obj
 0001:00038d07       __setmode                  00439d07 f   libcmt:setmode.obj
 0001:00038d9e       _InitCommonControls@0      00439d9e f   comctl32:COMCTL32.dll
 0001:00038da4       _PathFindExtensionA@4      00439da4 f   shlwapi:SHLWAPI.dll
 0001:00038daa       _PathRemoveExtensionA@4    00439daa f   shlwapi:SHLWAPI.dll
 0001:00038db0       _PathFindFileNameA@4       00439db0 f   shlwapi:SHLWAPI.dll
 0001:00038db6       _PathStripToRootA@4        00439db6 f   shlwapi:SHLWAPI.dll
 0001:00038dbc       _PathIsUNCA@4              00439dbc f   shlwapi:SHLWAPI.dll
 0001:00038dc2       ?_Xran@_String_base@std@@QBEXXZ 00439dc2 f   libcpmt:string.obj
 0001:00038e02       ?_Xlen@_String_base@std@@QBEXXZ 00439e02 f   libcpmt:string.obj
 0001:00038e44       ?ffl_purecall_handler@?A0x3463d5ea@@$$FYAXXZ 00439e44 f   ffl_dumpr:ffl_dump_unexception_filter.obj
 0001:00038e60       ?ffl_purecall_handler@?A0x3463d5ea@@YAXXZ 00439e60 f   ffl_dumpr:ffl_dump_unexception_filter.obj
 0001:00038e68       ?make_file_name@?A0x3463d5ea@@$$FYAXPADIPBD1@Z 00439e68 f   ffl_dumpr:ffl_dump_unexception_filter.obj
 0001:00039010       ?make_file_name@?A0x3463d5ea@@YAXPADIPBD1@Z 0043a010 f   ffl_dumpr:ffl_dump_unexception_filter.obj
 0001:00039018       ?record@?A0x3463d5ea@@$$FYAXPAUffl_dump_param_t@@PBD@Z 0043a018 f   ffl_dumpr:ffl_dump_unexception_filter.obj
 0001:000390d0       ?record@?A0x3463d5ea@@YAXPAUffl_dump_param_t@@PBD@Z 0043a0d0 f   ffl_dumpr:ffl_dump_unexception_filter.obj
 0001:000390d8       ?ffl_dump_recod_function@?A0x3463d5ea@@$$FYGIPAX@Z 0043a0d8 f   ffl_dumpr:ffl_dump_unexception_filter.obj
 0001:00039100       ?ffl_dump_recod_function@?A0x3463d5ea@@YGIPAX@Z 0043a100 f   ffl_dumpr:ffl_dump_unexception_filter.obj
 0001:00039108       ??1ffl_dump_unexception_filter@@$$FQAE@XZ 0043a108 f   ffl_dumpr:ffl_dump_unexception_filter.obj
 0001:00039120       ??1ffl_dump_unexception_filter@@QAE@XZ 0043a120 f   ffl_dumpr:ffl_dump_unexception_filter.obj
 0001:00039128       ?top_level_filter@ffl_dump_unexception_filter@@$$FCGJPAU_EXCEPTION_POINTERS@@@Z 0043a128 f   ffl_dumpr:ffl_dump_unexception_filter.obj
 0001:000391b0       ?top_level_filter@ffl_dump_unexception_filter@@CGJPAU_EXCEPTION_POINTERS@@@Z 0043a1b0 f   ffl_dumpr:ffl_dump_unexception_filter.obj
 0001:000391b8       ?do_snapping@ffl_dump_unexception_filter@@$$FCAXHPAU_EXCEPTION_POINTERS@@@Z 0043a1b8 f   ffl_dumpr:ffl_dump_unexception_filter.obj
 0001:00039200       ?do_snapping@ffl_dump_unexception_filter@@CAXHPAU_EXCEPTION_POINTERS@@@Z 0043a200 f   ffl_dumpr:ffl_dump_unexception_filter.obj
 0001:00039208       ?install@ffl_dump_unexception_filter@@$$FSAXH@Z 0043a208 f   ffl_dumpr:ffl_dump_unexception_filter.obj
 0001:00039240       ?install@ffl_dump_unexception_filter@@SAXH@Z 0043a240 f   ffl_dumpr:ffl_dump_unexception_filter.obj
 0001:00039248       ?snapping@ffl_dump_unexception_filter@@$$FSAXH@Z 0043a248 f   ffl_dumpr:ffl_dump_unexception_filter.obj
 0001:000392a0       ?snapping@ffl_dump_unexception_filter@@SAXH@Z 0043a2a0 f   ffl_dumpr:ffl_dump_unexception_filter.obj
 0001:000392a8       ??0ffl_dump_unexception_filter@@$$FQAE@H@Z 0043a2a8 f   ffl_dumpr:ffl_dump_unexception_filter.obj
 0001:000392e0       ??0ffl_dump_unexception_filter@@QAE@H@Z 0043a2e0 f   ffl_dumpr:ffl_dump_unexception_filter.obj
 0001:000392e8       ??1ffl_date_time@@$$FQAE@XZ 0043a2e8 f   ffl_dumpr:ffl_date_time.obj
 0001:00039320       ??1ffl_date_time@@QAE@XZ   0043a320 f   ffl_dumpr:ffl_date_time.obj
 0001:00039328       ?update@ffl_date_time@@$$FQAEXXZ 0043a328 f   ffl_dumpr:ffl_date_time.obj
 0001:00039390       ?update@ffl_date_time@@QAEXXZ 0043a390 f   ffl_dumpr:ffl_date_time.obj
 0001:00039398       ?year@ffl_date_time@@$$FQBEHXZ 0043a398 f   ffl_dumpr:ffl_date_time.obj
 0001:000393b0       ?year@ffl_date_time@@QBEHXZ 0043a3b0 f   ffl_dumpr:ffl_date_time.obj
 0001:000393b8       ?month@ffl_date_time@@$$FQBEHXZ 0043a3b8 f   ffl_dumpr:ffl_date_time.obj
 0001:000393d0       ?month@ffl_date_time@@QBEHXZ 0043a3d0 f   ffl_dumpr:ffl_date_time.obj
 0001:000393d8       ?day@ffl_date_time@@$$FQBEHXZ 0043a3d8 f   ffl_dumpr:ffl_date_time.obj
 0001:000393f0       ?day@ffl_date_time@@QBEHXZ 0043a3f0 f   ffl_dumpr:ffl_date_time.obj
 0001:000393f8       ?hour@ffl_date_time@@$$FQBEHXZ 0043a3f8 f   ffl_dumpr:ffl_date_time.obj
 0001:00039410       ?hour@ffl_date_time@@QBEHXZ 0043a410 f   ffl_dumpr:ffl_date_time.obj
 0001:00039418       ?minute@ffl_date_time@@$$FQBEHXZ 0043a418 f   ffl_dumpr:ffl_date_time.obj
 0001:00039430       ?minute@ffl_date_time@@QBEHXZ 0043a430 f   ffl_dumpr:ffl_date_time.obj
 0001:00039438       ?second@ffl_date_time@@$$FQBEHXZ 0043a438 f   ffl_dumpr:ffl_date_time.obj
 0001:00039450       ?second@ffl_date_time@@QBEHXZ 0043a450 f   ffl_dumpr:ffl_date_time.obj
 0001:00039458       ?millisecond@ffl_date_time@@$$FQBEHXZ 0043a458 f   ffl_dumpr:ffl_date_time.obj
 0001:00039470       ?millisecond@ffl_date_time@@QBEHXZ 0043a470 f   ffl_dumpr:ffl_date_time.obj
 0001:00039478       ?day_of_week@ffl_date_time@@$$FQBEHXZ 0043a478 f   ffl_dumpr:ffl_date_time.obj
 0001:00039490       ?day_of_week@ffl_date_time@@QBEHXZ 0043a490 f   ffl_dumpr:ffl_date_time.obj
 0001:00039498       ??0ffl_date_time@@$$FQAE@XZ 0043a498 f   ffl_dumpr:ffl_date_time.obj
 0001:000394e0       ??0ffl_date_time@@QAE@XZ   0043a4e0 f   ffl_dumpr:ffl_date_time.obj
 0001:000394e8       ?ffl_vsnprintf_a@@$$FYAHPADIPBD0@Z 0043a4e8 f   ffl_dumpr:ffl_c_string.obj
 0001:00039510       ?ffl_vsnprintf_a@@YAHPADIPBD0@Z 0043a510 f   ffl_dumpr:ffl_c_string.obj
 0001:00039520       ?ffl_snprintf_a@@YAHPADIPBDZZ 0043a520 f   ffl_dumpr:ffl_c_string.obj
 0001:00039568       ?ffl_strncpy_a@@$$FYAHPADIPBDI@Z 0043a568 f   ffl_dumpr:ffl_c_string.obj
 0001:00039590       ?ffl_strncpy_a@@YAHPADIPBDI@Z 0043a590 f   ffl_dumpr:ffl_c_string.obj
 0001:00039598       ?ffl_splitpath_a@@$$FYAHPBDPADI1I1I1I@Z 0043a598 f   ffl_dumpr:ffl_c_string.obj
 0001:000395c0       ?ffl_splitpath_a@@YAHPBDPADI1I1I1I@Z 0043a5c0 f   ffl_dumpr:ffl_c_string.obj
 0001:000395c8       ?ffl_makepath_a@@$$FYAHPADIPBD111@Z 0043a5c8 f   ffl_dumpr:ffl_c_string.obj
 0001:000395f0       ?ffl_makepath_a@@YAHPADIPBD111@Z 0043a5f0 f   ffl_dumpr:ffl_c_string.obj
 0001:000395f8       ?ffl_vsnprintf_w@@$$FYAHPAGIPBGPAD@Z 0043a5f8 f   ffl_dumpr:ffl_c_string.obj
 0001:00039620       ?ffl_vsnprintf_w@@YAHPAGIPBGPAD@Z 0043a620 f   ffl_dumpr:ffl_c_string.obj
 0001:00039630       ?ffl_snprintf_w@@YAHPAGIPBGZZ 0043a630 f   ffl_dumpr:ffl_c_string.obj
 0001:00039678       ?ffl_strncpy_w@@$$FYAHPAGIPBGI@Z 0043a678 f   ffl_dumpr:ffl_c_string.obj
 0001:000396a0       ?ffl_strncpy_w@@YAHPAGIPBGI@Z 0043a6a0 f   ffl_dumpr:ffl_c_string.obj
 0001:000396a8       ?ffl_splitpath_w@@$$FYAHPBGPAGI1I1I1I@Z 0043a6a8 f   ffl_dumpr:ffl_c_string.obj
 0001:000396d0       ?ffl_splitpath_w@@YAHPBGPAGI1I1I1I@Z 0043a6d0 f   ffl_dumpr:ffl_c_string.obj
 0001:000396d8       ?ffl_makepath_w@@$$FYAHPAGIPBG111@Z 0043a6d8 f   ffl_dumpr:ffl_c_string.obj
 0001:00039700       ?ffl_makepath_w@@YAHPAGIPBG111@Z 0043a700 f   ffl_dumpr:ffl_c_string.obj
 0001:00039708       ??0ffl_dump_report@@$$FQAE@XZ 0043a708 f   ffl_dumpr:ffl_dump_report.obj
 0001:00039740       ??0ffl_dump_report@@QAE@XZ 0043a740 f   ffl_dumpr:ffl_dump_report.obj
 0001:00039748       ??1ffl_dump_report@@$$FQAE@XZ 0043a748 f   ffl_dumpr:ffl_dump_report.obj
 0001:00039760       ??1ffl_dump_report@@QAE@XZ 0043a760 f   ffl_dumpr:ffl_dump_report.obj
 0001:00039768       ?get_logical_address@ffl_dump_report@@$$FAAE_NPAXPADKPAK2@Z 0043a768 f   ffl_dumpr:ffl_dump_report.obj
 0001:00039820       ?get_logical_address@ffl_dump_report@@AAE_NPAXPADKPAK2@Z 0043a820 f   ffl_dumpr:ffl_dump_report.obj
 0001:00039828       ?inti_imagehlp_func@ffl_dump_report@@$$FAAE_NPAUHINSTANCE__@@@Z 0043a828 f   ffl_dumpr:ffl_dump_report.obj
 0001:000398e0       ?inti_imagehlp_func@ffl_dump_report@@AAE_NPAUHINSTANCE__@@@Z 0043a8e0 f   ffl_dumpr:ffl_dump_report.obj
 0001:000398e8       ?intel_stack_walk@ffl_dump_report@@$$FAAEXPAVffl_text_file@@PAU_CONTEXT@@@Z 0043a8e8 f   ffl_dumpr:ffl_dump_report.obj
 0001:000399d0       ?intel_stack_walk@ffl_dump_report@@AAEXPAVffl_text_file@@PAU_CONTEXT@@@Z 0043a9d0 f   ffl_dumpr:ffl_dump_report.obj
 0001:000399d8       ?imagehlp_stack_walk@ffl_dump_report@@$$FAAEXPAVffl_text_file@@PAU_CONTEXT@@PAX@Z 0043a9d8 f   ffl_dumpr:ffl_dump_report.obj
 0001:00039b40       ?imagehlp_stack_walk@ffl_dump_report@@AAEXPAVffl_text_file@@PAU_CONTEXT@@PAX@Z 0043ab40 f   ffl_dumpr:ffl_dump_report.obj
 0001:00039b48       ?generate_exception@ffl_dump_report@@$$FAAEXPAVffl_text_file@@PAUffl_dump_param_t@@@Z 0043ab48 f   ffl_dumpr:ffl_dump_report.obj
 0001:00039ce0       ?generate_exception@ffl_dump_report@@AAEXPAVffl_text_file@@PAUffl_dump_param_t@@@Z 0043ace0 f   ffl_dumpr:ffl_dump_report.obj
 0001:00039ce8       ?report@ffl_dump_report@@$$FAAEXPAVffl_text_file@@PAUffl_dump_param_t@@@Z 0043ace8 f   ffl_dumpr:ffl_dump_report.obj
 0001:00039d40       ?report@ffl_dump_report@@AAEXPAVffl_text_file@@PAUffl_dump_param_t@@@Z 0043ad40 f   ffl_dumpr:ffl_dump_report.obj
 0001:00039d48       ?dump@ffl_dump_report@@$$FQAEXPBDPAUffl_dump_param_t@@@Z 0043ad48 f   ffl_dumpr:ffl_dump_report.obj
 0001:00039dc0       ?dump@ffl_dump_report@@QAEXPBDPAUffl_dump_param_t@@@Z 0043adc0 f   ffl_dumpr:ffl_dump_report.obj
 0001:00039dc8       ?system_information_log@ffl_dump_log@@$$FAAEXPAVffl_text_file@@@Z 0043adc8 f   ffl_dumpr:ffl_dump_log.obj
 0001:00039fa0       ?system_information_log@ffl_dump_log@@AAEXPAVffl_text_file@@@Z 0043afa0 f   ffl_dumpr:ffl_dump_log.obj
 0001:00039fa8       ?register_log@ffl_dump_log@@$$FAAEXPAVffl_text_file@@PAU_CONTEXT@@@Z 0043afa8 f   ffl_dumpr:ffl_dump_log.obj
 0001:0003a070       ?register_log@ffl_dump_log@@AAEXPAVffl_text_file@@PAU_CONTEXT@@@Z 0043b070 f   ffl_dumpr:ffl_dump_log.obj
 0001:0003a080       ?stack_log@ffl_dump_log@@AAEXPAVffl_text_file@@PAK@Z 0043b080 f   ffl_dumpr:ffl_dump_log.obj
 0001:0003a250       ?print_module_info@ffl_dump_log@@$$FAAEXPAVffl_text_file@@PBD@Z 0043b250 f   ffl_dumpr:ffl_dump_log.obj
 0001:0003a310       ?print_module_info@ffl_dump_log@@AAEXPAVffl_text_file@@PBD@Z 0043b310 f   ffl_dumpr:ffl_dump_log.obj
 0001:0003a318       ?module_info_log@ffl_dump_log@@$$FAAE_NPAVffl_text_file@@PAUHINSTANCE__@@H@Z 0043b318 f   ffl_dumpr:ffl_dump_log.obj
 0001:0003a450       ?module_info_log@ffl_dump_log@@AAE_NPAVffl_text_file@@PAUHINSTANCE__@@H@Z 0043b450 f   ffl_dumpr:ffl_dump_log.obj
 0001:0003a458       ?module_list_log@ffl_dump_log@@$$FAAEXPAVffl_text_file@@@Z 0043b458 f   ffl_dumpr:ffl_dump_log.obj
 0001:0003a500       ?module_list_log@ffl_dump_log@@AAEXPAVffl_text_file@@@Z 0043b500 f   ffl_dumpr:ffl_dump_log.obj
 0001:0003a508       ?log@ffl_dump_log@@$$FAAEXPAVffl_text_file@@PAUffl_dump_param_t@@@Z 0043b508 f   ffl_dumpr:ffl_dump_log.obj
 0001:0003a6b0       ?log@ffl_dump_log@@AAEXPAVffl_text_file@@PAUffl_dump_param_t@@@Z 0043b6b0 f   ffl_dumpr:ffl_dump_log.obj
 0001:0003a6b8       ?dump@ffl_dump_log@@$$FQAEXPBDPAUffl_dump_param_t@@@Z 0043b6b8 f   ffl_dumpr:ffl_dump_log.obj
 0001:0003a730       ?dump@ffl_dump_log@@QAEXPBDPAUffl_dump_param_t@@@Z 0043b730 f   ffl_dumpr:ffl_dump_log.obj
 0001:0003a738       ?_tcsrchr@@$$J0YAPADPBDI@Z 0043b738 f i ffl_dumpr:ffl_dump_mini.obj
 0001:0003a74c       ?find_dll@ffl_dump_mini@@$$FAAEPAUHINSTANCE__@@XZ 0043b74c f   ffl_dumpr:ffl_dump_mini.obj
 0001:0003a7c0       ?find_dll@ffl_dump_mini@@AAEPAUHINSTANCE__@@XZ 0043b7c0 f   ffl_dumpr:ffl_dump_mini.obj
 0001:0003a7c8       ?write@ffl_dump_mini@@$$FAAEXPAXPAUffl_dump_param_t@@@Z 0043b7c8 f   ffl_dumpr:ffl_dump_mini.obj
 0001:0003a850       ?write@ffl_dump_mini@@AAEXPAXPAUffl_dump_param_t@@@Z 0043b850 f   ffl_dumpr:ffl_dump_mini.obj
 0001:0003a858       ?dump@ffl_dump_mini@@$$FQAEXPBDPAUffl_dump_param_t@@@Z 0043b858 f   ffl_dumpr:ffl_dump_mini.obj
 0001:0003a8a0       ?dump@ffl_dump_mini@@QAEXPBDPAUffl_dump_param_t@@@Z 0043b8a0 f   ffl_dumpr:ffl_dump_mini.obj
 0001:0003a8a8       ?ffl_get_win_version@@$$FYAXPADI0I@Z 0043b8a8 f   ffl_dumpr:ffl_dump_common.obj
 0001:0003ab50       ?ffl_get_win_version@@YAXPADI0I@Z 0043bb50 f   ffl_dumpr:ffl_dump_common.obj
 0001:0003ab58       ?ffl_formating_time@@$$FYAXPADIPAU_FILETIME@@@Z 0043bb58 f   ffl_dumpr:ffl_dump_common.obj
 0001:0003abc0       ?ffl_formating_time@@YAXPADIPAU_FILETIME@@@Z 0043bbc0 f   ffl_dumpr:ffl_dump_common.obj
 0001:0003abc8       ?ffl_get_exception_string@@$$FYAPBDK@Z 0043bbc8 f   ffl_dumpr:ffl_dump_common.obj
 0001:0003b0e0       ?ffl_get_exception_string@@YAPBDK@Z 0043c0e0 f   ffl_dumpr:ffl_dump_common.obj
 0001:0003b0f0       ?ffl_dump_print@@YAXPAVffl_text_file@@PBDZZ 0043c0f0 f   ffl_dumpr:ffl_dump_common.obj
 0001:0003b1a0       ??0ffl_text_file@@$$FQAE@XZ 0043c1a0 f   ffl_dumpr:ffl_text_file.obj
 0001:0003b1c0       ??0ffl_text_file@@QAE@XZ   0043c1c0 f   ffl_dumpr:ffl_text_file.obj
 0001:0003b1c8       ?create@ffl_text_file@@$$FQAE_NPBDII@Z 0043c1c8 f   ffl_dumpr:ffl_text_file.obj
 0001:0003b1f0       ?create@ffl_text_file@@QAE_NPBDII@Z 0043c1f0 f   ffl_dumpr:ffl_text_file.obj
 0001:0003b1f8       ?open@ffl_text_file@@$$FQAE_NPBDII@Z 0043c1f8 f   ffl_dumpr:ffl_text_file.obj
 0001:0003b220       ?open@ffl_text_file@@QAE_NPBDII@Z 0043c220 f   ffl_dumpr:ffl_text_file.obj
 0001:0003b228       ?close@ffl_text_file@@$$FQAEXXZ 0043c228 f   ffl_dumpr:ffl_text_file.obj
 0001:0003b240       ?close@ffl_text_file@@QAEXXZ 0043c240 f   ffl_dumpr:ffl_text_file.obj
 0001:0003b248       ?opened@ffl_text_file@@$$FQAE_NXZ 0043c248 f   ffl_dumpr:ffl_text_file.obj
 0001:0003b260       ?opened@ffl_text_file@@QAE_NXZ 0043c260 f   ffl_dumpr:ffl_text_file.obj
 0001:0003b268       ?write_text@ffl_text_file@@$$FQAEIPBDI@Z 0043c268 f   ffl_dumpr:ffl_text_file.obj
 0001:0003b2a0       ?write_text@ffl_text_file@@QAEIPBDI@Z 0043c2a0 f   ffl_dumpr:ffl_text_file.obj
 0001:0003b2a8       ?read_text@ffl_text_file@@$$FQAEIPADI@Z 0043c2a8 f   ffl_dumpr:ffl_text_file.obj
 0001:0003b2e0       ?read_text@ffl_text_file@@QAEIPADI@Z 0043c2e0 f   ffl_dumpr:ffl_text_file.obj
 0001:0003b2e8       ?read_line@ffl_text_file@@$$FQAEIPADI@Z 0043c2e8 f   ffl_dumpr:ffl_text_file.obj
 0001:0003b370       ?read_line@ffl_text_file@@QAEIPADI@Z 0043c370 f   ffl_dumpr:ffl_text_file.obj
 0001:0003b378       ?flush@ffl_text_file@@$$FQAE_NXZ 0043c378 f   ffl_dumpr:ffl_text_file.obj
 0001:0003b390       ?flush@ffl_text_file@@QAE_NXZ 0043c390 f   ffl_dumpr:ffl_text_file.obj
 0001:0003b398       ?size@ffl_text_file@@$$FQAE_KXZ 0043c398 f   ffl_dumpr:ffl_text_file.obj
 0001:0003b3b0       ?size@ffl_text_file@@QAE_KXZ 0043c3b0 f   ffl_dumpr:ffl_text_file.obj
 0001:0003b3b8       ??1ffl_text_file@@$$FQAE@XZ 0043c3b8 f   ffl_dumpr:ffl_text_file.obj
 0001:0003b400       ??1ffl_text_file@@QAE@XZ   0043c400 f   ffl_dumpr:ffl_text_file.obj
 0001:0003b408       ??0ffl_module_info@@$$FQAE@XZ 0043c408 f   ffl_dumpr:ffl_module_info.obj
 0001:0003b450       ??0ffl_module_info@@QAE@XZ 0043c450 f   ffl_dumpr:ffl_module_info.obj
 0001:0003b458       ?company_name@ffl_module_info@@$$FQBEPBDXZ 0043c458 f   ffl_dumpr:ffl_module_info.obj
 0001:0003b470       ?company_name@ffl_module_info@@QBEPBDXZ 0043c470 f   ffl_dumpr:ffl_module_info.obj
 0001:0003b478       ?product_name@ffl_module_info@@$$FQBEPBDXZ 0043c478 f   ffl_dumpr:ffl_module_info.obj
 0001:0003b490       ?product_name@ffl_module_info@@QBEPBDXZ 0043c490 f   ffl_dumpr:ffl_module_info.obj
 0001:0003b498       ?file_description@ffl_module_info@@$$FQBEPBDXZ 0043c498 f   ffl_dumpr:ffl_module_info.obj
 0001:0003b4b0       ?file_description@ffl_module_info@@QBEPBDXZ 0043c4b0 f   ffl_dumpr:ffl_module_info.obj
 0001:0003b4b8       ?file_version@ffl_module_info@@$$FQBEPBGXZ 0043c4b8 f   ffl_dumpr:ffl_module_info.obj
 0001:0003b4d0       ?file_version@ffl_module_info@@QBEPBGXZ 0043c4d0 f   ffl_dumpr:ffl_module_info.obj
 0001:0003b4d8       ?product_version@ffl_module_info@@$$FQBEPBGXZ 0043c4d8 f   ffl_dumpr:ffl_module_info.obj
 0001:0003b4f0       ?product_version@ffl_module_info@@QBEPBGXZ 0043c4f0 f   ffl_dumpr:ffl_module_info.obj
 0001:0003b4f8       ?query_fixed_info@ffl_module_info@@$$FAAE_NPAXPAUtagVS_FIXEDFILEINFO@@@Z 0043c4f8 f   ffl_dumpr:ffl_module_info.obj
 0001:0003b530       ?query_fixed_info@ffl_module_info@@AAE_NPAXPAUtagVS_FIXEDFILEINFO@@@Z 0043c530 f   ffl_dumpr:ffl_module_info.obj
 0001:0003b538       ?query_string_info@ffl_module_info@@$$FAAE_NPAXPBDPADI@Z 0043c538 f   ffl_dumpr:ffl_module_info.obj
 0001:0003b5d0       ?query_string_info@ffl_module_info@@AAE_NPAXPBDPADI@Z 0043c5d0 f   ffl_dumpr:ffl_module_info.obj
 0001:0003b5d8       ?load_info@ffl_module_info@@$$FQAE_NPBD@Z 0043c5d8 f   ffl_dumpr:ffl_module_info.obj
 0001:0003b6f0       ?load_info@ffl_module_info@@QAE_NPBD@Z 0043c6f0 f   ffl_dumpr:ffl_module_info.obj
 0001:0003b6f8       ??0ffl_file@@$$FQAE@XZ     0043c6f8 f   ffl_dumpr:ffl_file.obj
 0001:0003b710       ??0ffl_file@@QAE@XZ        0043c710 f   ffl_dumpr:ffl_file.obj
 0001:0003b718       ?create@ffl_file@@$$FQAE_NPBDII@Z 0043c718 f   ffl_dumpr:ffl_file.obj
 0001:0003b750       ?create@ffl_file@@QAE_NPBDII@Z 0043c750 f   ffl_dumpr:ffl_file.obj
 0001:0003b758       ?open@ffl_file@@$$FQAE_NPBDII@Z 0043c758 f   ffl_dumpr:ffl_file.obj
 0001:0003b790       ?open@ffl_file@@QAE_NPBDII@Z 0043c790 f   ffl_dumpr:ffl_file.obj
 0001:0003b798       ?close@ffl_file@@$$FQAEXXZ 0043c798 f   ffl_dumpr:ffl_file.obj
 0001:0003b7c0       ?close@ffl_file@@QAEXXZ    0043c7c0 f   ffl_dumpr:ffl_file.obj
 0001:0003b7c8       ?opened@ffl_file@@$$FQAE_NXZ 0043c7c8 f   ffl_dumpr:ffl_file.obj
 0001:0003b7e0       ?opened@ffl_file@@QAE_NXZ  0043c7e0 f   ffl_dumpr:ffl_file.obj
 0001:0003b7e8       ?read@ffl_file@@$$FQAEIPAXI@Z 0043c7e8 f   ffl_dumpr:ffl_file.obj
 0001:0003b820       ?read@ffl_file@@QAEIPAXI@Z 0043c820 f   ffl_dumpr:ffl_file.obj
 0001:0003b828       ?write@ffl_file@@$$FQAEIPBXI@Z 0043c828 f   ffl_dumpr:ffl_file.obj
 0001:0003b850       ?write@ffl_file@@QAEIPBXI@Z 0043c850 f   ffl_dumpr:ffl_file.obj
 0001:0003b858       ?seek@ffl_file@@$$FQAE_J_JH@Z 0043c858 f   ffl_dumpr:ffl_file.obj
 0001:0003b8b0       ?seek@ffl_file@@QAE_J_JH@Z 0043c8b0 f   ffl_dumpr:ffl_file.obj
 0001:0003b8b8       ?flush@ffl_file@@$$FQAE_NXZ 0043c8b8 f   ffl_dumpr:ffl_file.obj
 0001:0003b8e0       ?flush@ffl_file@@QAE_NXZ   0043c8e0 f   ffl_dumpr:ffl_file.obj
 0001:0003b8e8       ?size@ffl_file@@$$FQAE_KXZ 0043c8e8 f   ffl_dumpr:ffl_file.obj
 0001:0003b930       ?size@ffl_file@@QAE_KXZ    0043c930 f   ffl_dumpr:ffl_file.obj
 0001:0003b938       ??1ffl_file@@$$FQAE@XZ     0043c938 f   ffl_dumpr:ffl_file.obj
 0001:0003b960       ??1ffl_file@@QAE@XZ        0043c960 f   ffl_dumpr:ffl_file.obj
 0001:0003b966       ??0?$CSimpleArray@PAUHINSTANCE__@@V?$CSimpleArrayEqualHelper@PAUHINSTANCE__@@@ATL@@@ATL@@QAE@XZ 0043c966 f i atls:atlbase.obj
 0001:0003b973       ?GetSize@?$CSimpleArray@PAUHINSTANCE__@@V?$CSimpleArrayEqualHelper@PAUHINSTANCE__@@@ATL@@@ATL@@QBEHXZ 0043c973 f i atls:atlbase.obj
 0001:0003b977       ?RemoveAt@?$CSimpleArray@PAUHINSTANCE__@@V?$CSimpleArrayEqualHelper@PAUHINSTANCE__@@@ATL@@@ATL@@QAEHH@Z 0043c977 f i atls:atlbase.obj
 0001:0003b9ba       ?RemoveAll@?$CSimpleArray@PAUHINSTANCE__@@V?$CSimpleArrayEqualHelper@PAUHINSTANCE__@@@ATL@@@ATL@@QAEXXZ 0043c9ba f i atls:atlbase.obj
 0001:0003b9d7       ??0Wrapper@?$CSimpleArray@PAUHINSTANCE__@@V?$CSimpleArrayEqualHelper@PAUHINSTANCE__@@@ATL@@@ATL@@QAE@ABQAUHINSTANCE__@@@Z 0043c9d7 f i atls:atlbase.obj
 0001:0003b9e4       ??$?2PAUHINSTANCE__@@@Wrapper@?$CSimpleArray@PAUHINSTANCE__@@V?$CSimpleArrayEqualHelper@PAUHINSTANCE__@@@ATL@@@ATL@@SAPAXIPAPAUHINSTANCE__@@@Z 0043c9e4 f i atls:atlbase.obj
 0001:0003b9e9       ?Lock@CComCriticalSection@ATL@@QAEJXZ 0043c9e9 f i atls:atlbase.obj
 0001:0003b9f3       ?Unlock@CComCriticalSection@ATL@@QAEJXZ 0043c9f3 f i atls:atlbase.obj
 0001:0003b9fd       ?Lock@?$CComCritSecLock@VCComCriticalSection@ATL@@@ATL@@QAEJXZ 0043c9fd f i atls:atlbase.obj
 0001:0003ba10       ??1?$CSimpleArray@PAUHINSTANCE__@@V?$CSimpleArrayEqualHelper@PAUHINSTANCE__@@@ATL@@@ATL@@QAE@XZ 0043ca10 f i atls:atlbase.obj
 0001:0003ba15       ??A?$CSimpleArray@PAUHINSTANCE__@@V?$CSimpleArrayEqualHelper@PAUHINSTANCE__@@@ATL@@@ATL@@QAEAAPAUHINSTANCE__@@H@Z 0043ca15 f i atls:atlbase.obj
 0001:0003ba3c       ?InternalSetAtIndex@?$CSimpleArray@PAUHINSTANCE__@@V?$CSimpleArrayEqualHelper@PAUHINSTANCE__@@@ATL@@@ATL@@QAEXHABQAUHINSTANCE__@@@Z 0043ca3c f i atls:atlbase.obj
 0001:0003ba54       ?Unlock@?$CComCritSecLock@VCComCriticalSection@ATL@@@ATL@@QAEXXZ 0043ca54 f i atls:atlbase.obj
 0001:0003ba65       ??0?$CComCritSecLock@VCComCriticalSection@ATL@@@ATL@@QAE@AAVCComCriticalSection@1@_N@Z 0043ca65 f i atls:atlbase.obj
 0001:0003ba8e       ??1?$CComCritSecLock@VCComCriticalSection@ATL@@@ATL@@QAE@XZ 0043ca8e f i atls:atlbase.obj
 0001:0003baa5       ??0_ATL_BASE_MODULE70@ATL@@QAE@XZ 0043caa5 f i atls:atlbase.obj
 0001:0003babf       ??1_ATL_BASE_MODULE70@ATL@@QAE@XZ 0043cabf f i atls:atlbase.obj
 0001:0003bac7       ??1CAtlBaseModule@ATL@@QAE@XZ 0043cac7 f   atls:atlbase.obj
 0001:0003badd       ?RemoveResourceInstance@CAtlBaseModule@ATL@@QAE_NPAUHINSTANCE__@@@Z 0043cadd f   atls:atlbase.obj
 0001:0003bb36       ?GetHInstanceAt@CAtlBaseModule@ATL@@QAEPAUHINSTANCE__@@H@Z 0043cb36 f   atls:atlbase.obj
 0001:0003bb84       ?Add@?$CSimpleArray@PAUHINSTANCE__@@V?$CSimpleArrayEqualHelper@PAUHINSTANCE__@@@ATL@@@ATL@@QAEHABQAUHINSTANCE__@@@Z 0043cb84 f i atls:atlbase.obj
 0001:0003bbcf       ??0CAtlBaseModule@ATL@@QAE@XZ 0043cbcf f   atls:atlbase.obj
 0001:0003bc7e       ?AddResourceInstance@CAtlBaseModule@ATL@@QAE_NPAUHINSTANCE__@@@Z 0043cc7e f   atls:atlbase.obj
 0001:0003bcba       _CreateStdAccessibleObject@16 0043ccba f   oleacc:OLEACC.dll
 0001:0003bcc0       _AccessibleObjectFromWindow@16 0043ccc0 f   oleacc:OLEACC.dll
 0001:0003bcc6       _LresultFromObject@12      0043ccc6 f   oleacc:OLEACC.dll
 0001:0003bccc       _LocalFree@4               0043cccc f   kernel32:KERNEL32.dll
 0001:0003bcd2       _FormatMessageA@28         0043ccd2 f   kernel32:KERNEL32.dll
 0001:0003bcd8       _GlobalUnlock@4            0043ccd8 f   kernel32:KERNEL32.dll
 0001:0003bcde       _GlobalLock@4              0043ccde f   kernel32:KERNEL32.dll
 0001:0003bce4       _GlobalAlloc@8             0043cce4 f   kernel32:KERNEL32.dll
 0001:0003bcea       _GlobalSize@4              0043ccea f   kernel32:KERNEL32.dll
 0001:0003bcf0       _MulDiv@12                 0043ccf0 f   kernel32:KERNEL32.dll
 0001:0003bcf6       _CopyFileA@12              0043ccf6 f   kernel32:KERNEL32.dll
 0001:0003bcfc       _GlobalFree@4              0043ccfc f   kernel32:KERNEL32.dll
 0001:0003bd02       _SetLastError@4            0043cd02 f   kernel32:KERNEL32.dll
 0001:0003bd08       _RaiseException@16         0043cd08 f   kernel32:KERNEL32.dll
 0001:0003bd0e       _LocalAlloc@8              0043cd0e f   kernel32:KERNEL32.dll
 0001:0003bd14       _GlobalReAlloc@12          0043cd14 f   kernel32:KERNEL32.dll
 0001:0003bd1a       _GlobalHandle@4            0043cd1a f   kernel32:KERNEL32.dll
 0001:0003bd20       _TlsGetValue@4             0043cd20 f   kernel32:KERNEL32.dll
 0001:0003bd26       _TlsAlloc@0                0043cd26 f   kernel32:KERNEL32.dll
 0001:0003bd2c       _TlsSetValue@8             0043cd2c f   kernel32:KERNEL32.dll
 0001:0003bd32       _LocalReAlloc@12           0043cd32 f   kernel32:KERNEL32.dll
 0001:0003bd38       _TlsFree@4                 0043cd38 f   kernel32:KERNEL32.dll
 0001:0003bd3e       _FileTimeToSystemTime@8    0043cd3e f   kernel32:KERNEL32.dll
 0001:0003bd44       _SystemTimeToFileTime@8    0043cd44 f   kernel32:KERNEL32.dll
 0001:0003bd4a       _GlobalFlags@4             0043cd4a f   kernel32:KERNEL32.dll
 0001:0003bd50       _ResumeThread@4            0043cd50 f   kernel32:KERNEL32.dll
 0001:0003bd56       _GetCurrentThreadId@0      0043cd56 f   kernel32:KERNEL32.dll
 0001:0003bd5c       _SuspendThread@4           0043cd5c f   kernel32:KERNEL32.dll
 0001:0003bd62       _GetModuleHandleA@4        0043cd62 f   kernel32:KERNEL32.dll
 0001:0003bd68       _lstrcmpW@8                0043cd68 f   kernel32:KERNEL32.dll
 0001:0003bd6e       _GlobalDeleteAtom@4        0043cd6e f   kernel32:KERNEL32.dll
 0001:0003bd74       _GlobalFindAtomA@4         0043cd74 f   kernel32:KERNEL32.dll
 0001:0003bd7a       _GlobalAddAtomA@4          0043cd7a f   kernel32:KERNEL32.dll
 0001:0003bd80       _GlobalGetAtomNameA@12     0043cd80 f   kernel32:KERNEL32.dll
 0001:0003bd86       _FreeResource@4            0043cd86 f   kernel32:KERNEL32.dll
 0001:0003bd8c       _EnumResourceLanguagesA@20 0043cd8c f   kernel32:KERNEL32.dll
 0001:0003bd92       _ConvertDefaultLocale@4    0043cd92 f   kernel32:KERNEL32.dll
 0001:0003bd98       _GetCurrentThread@0        0043cd98 f   kernel32:KERNEL32.dll
 0001:0003bd9e       _GetCPInfo@8               0043cd9e f   kernel32:KERNEL32.dll
 0001:0003bda4       _GetOEMCP@0                0043cda4 f   kernel32:KERNEL32.dll
 0001:0003bdaa       _GetPrivateProfileIntA@16  0043cdaa f   kernel32:KERNEL32.dll
 0001:0003bdb0       _WritePrivateProfileStringA@16 0043cdb0 f   kernel32:KERNEL32.dll
 0001:0003bdb6       _GetPrivateProfileStringA@24 0043cdb6 f   kernel32:KERNEL32.dll
 0001:0003bdbc       _GetCurrentDirectoryA@8    0043cdbc f   kernel32:KERNEL32.dll
 0001:0003bdc2       _MoveFileA@8               0043cdc2 f   kernel32:KERNEL32.dll
 0001:0003bdc8       _DeleteFileA@4             0043cdc8 f   kernel32:KERNEL32.dll
 0001:0003bdce       _ReadFile@20               0043cdce f   kernel32:KERNEL32.dll
 0001:0003bdd4       _WriteFile@20              0043cdd4 f   kernel32:KERNEL32.dll
 0001:0003bdda       _SetFilePointer@16         0043cdda f   kernel32:KERNEL32.dll
 0001:0003bde0       _FlushFileBuffers@4        0043cde0 f   kernel32:KERNEL32.dll
 0001:0003bde6       _LockFile@20               0043cde6 f   kernel32:KERNEL32.dll
 0001:0003bdec       _UnlockFile@20             0043cdec f   kernel32:KERNEL32.dll
 0001:0003bdf2       _SetEndOfFile@4            0043cdf2 f   kernel32:KERNEL32.dll
 0001:0003bdf8       _GetFileSize@8             0043cdf8 f   kernel32:KERNEL32.dll
 0001:0003bdfe       _DuplicateHandle@28        0043cdfe f   kernel32:KERNEL32.dll
 0001:0003be04       _GetCurrentProcess@0       0043ce04 f   kernel32:KERNEL32.dll
 0001:0003be0a       _FindClose@4               0043ce0a f   kernel32:KERNEL32.dll
 0001:0003be10       _FindFirstFileA@8          0043ce10 f   kernel32:KERNEL32.dll
 0001:0003be16       _GetVolumeInformationA@32  0043ce16 f   kernel32:KERNEL32.dll
 0001:0003be1c       _GetShortPathNameA@12      0043ce1c f   kernel32:KERNEL32.dll
 0001:0003be22       _FileTimeToLocalFileTime@8 0043ce22 f   kernel32:KERNEL32.dll
 0001:0003be28       _LocalFileTimeToFileTime@8 0043ce28 f   kernel32:KERNEL32.dll
 0001:0003be2e       _SetFileTime@16            0043ce2e f   kernel32:KERNEL32.dll
 0001:0003be34       _SetFileAttributesA@8      0043ce34 f   kernel32:KERNEL32.dll
 0001:0003be3a       _GetFileTime@16            0043ce3a f   kernel32:KERNEL32.dll
 0001:0003be40       _RtlUnwind@16              0043ce40 f   kernel32:KERNEL32.dll
 0001:0003be46       _ExitProcess@4             0043ce46 f   kernel32:KERNEL32.dll
 0001:0003be4c       _GetSystemTimeAsFileTime@4 0043ce4c f   kernel32:KERNEL32.dll
 0001:0003be52       _GetTimeFormatA@24         0043ce52 f   kernel32:KERNEL32.dll
 0001:0003be58       _GetDateFormatA@24         0043ce58 f   kernel32:KERNEL32.dll
 0001:0003be5e       _VirtualProtect@16         0043ce5e f   kernel32:KERNEL32.dll
 0001:0003be64       _VirtualQuery@12           0043ce64 f   kernel32:KERNEL32.dll
 0001:0003be6a       _ExitThread@4              0043ce6a f   kernel32:KERNEL32.dll
 0001:0003be70       _CreateThread@24           0043ce70 f   kernel32:KERNEL32.dll
 0001:0003be76       _FindNextFileA@8           0043ce76 f   kernel32:KERNEL32.dll
 0001:0003be7c       _GetStartupInfoA@4         0043ce7c f   kernel32:KERNEL32.dll
 0001:0003be82       _GetCommandLineA@0         0043ce82 f   kernel32:KERNEL32.dll
 0001:0003be88       _HeapSize@12               0043ce88 f   kernel32:KERNEL32.dll
 0001:0003be8e       _GetCurrentProcessId@0     0043ce8e f   kernel32:KERNEL32.dll
 0001:0003be94       _FatalAppExitA@8           0043ce94 f   kernel32:KERNEL32.dll
 0001:0003be9a       _GetTimeZoneInformation@4  0043ce9a f   kernel32:KERNEL32.dll
 0001:0003bea0       _IsBadWritePtr@8           0043cea0 f   kernel32:KERNEL32.dll
 0001:0003bea6       _LCMapStringA@24           0043cea6 f   kernel32:KERNEL32.dll
 0001:0003beac       _LCMapStringW@24           0043ceac f   kernel32:KERNEL32.dll
 0001:0003beb2       _UnhandledExceptionFilter@4 0043ceb2 f   kernel32:KERNEL32.dll
 0001:0003beb8       _GetStringTypeA@20         0043ceb8 f   kernel32:KERNEL32.dll
 0001:0003bebe       _GetStringTypeW@16         0043cebe f   kernel32:KERNEL32.dll
 0001:0003bec4       _SetHandleCount@4          0043cec4 f   kernel32:KERNEL32.dll
 0001:0003beca       _GetStdHandle@4            0043ceca f   kernel32:KERNEL32.dll
 0001:0003bed0       _GetFileType@4             0043ced0 f   kernel32:KERNEL32.dll
 0001:0003bed6       _SetStdHandle@8            0043ced6 f   kernel32:KERNEL32.dll
 0001:0003bedc       _FreeEnvironmentStringsA@4 0043cedc f   kernel32:KERNEL32.dll
 0001:0003bee2       _GetEnvironmentStrings@0   0043cee2 f   kernel32:KERNEL32.dll
 0001:0003bee8       _FreeEnvironmentStringsW@4 0043cee8 f   kernel32:KERNEL32.dll
 0001:0003beee       _GetEnvironmentStringsW@0  0043ceee f   kernel32:KERNEL32.dll
 0001:0003bef4       _IsBadReadPtr@8            0043cef4 f   kernel32:KERNEL32.dll
 0001:0003befa       _IsBadCodePtr@4            0043cefa f   kernel32:KERNEL32.dll
 0001:0003bf00       _GetUserDefaultLCID@0      0043cf00 f   kernel32:KERNEL32.dll
 0001:0003bf06       _EnumSystemLocalesA@8      0043cf06 f   kernel32:KERNEL32.dll
 0001:0003bf0c       _IsValidLocale@8           0043cf0c f   kernel32:KERNEL32.dll
 0001:0003bf12       _IsValidCodePage@4         0043cf12 f   kernel32:KERNEL32.dll
 0001:0003bf18       _SetConsoleCtrlHandler@8   0043cf18 f   kernel32:KERNEL32.dll
 0001:0003bf1e       _GetLocaleInfoW@16         0043cf1e f   kernel32:KERNEL32.dll
 0001:0003bf24       _SetEnvironmentVariableA@8 0043cf24 f   kernel32:KERNEL32.dll
 0001:0003bf2a       _RemoveMenu@12             0043cf2a f   user32:USER32.dll
 0001:0003bf30       _GetSubMenu@8              0043cf30 f   user32:USER32.dll
 0001:0003bf36       _GetMenuItemCount@4        0043cf36 f   user32:USER32.dll
 0001:0003bf3c       _InsertMenuA@20            0043cf3c f   user32:USER32.dll
 0001:0003bf42       _GetMenuItemID@8           0043cf42 f   user32:USER32.dll
 0001:0003bf48       _AppendMenuA@16            0043cf48 f   user32:USER32.dll
 0001:0003bf4e       _GetMenuStringA@20         0043cf4e f   user32:USER32.dll
 0001:0003bf54       _GetMenuState@12           0043cf54 f   user32:USER32.dll
 0001:0003bf5a       _UnregisterClassA@8        0043cf5a f   user32:USER32.dll
 0001:0003bf60       _GetSysColorBrush@4        0043cf60 f   user32:USER32.dll
 0001:0003bf66       _GetSysColor@4             0043cf66 f   user32:USER32.dll
 0001:0003bf6c       _ReleaseDC@8               0043cf6c f   user32:USER32.dll
 0001:0003bf72       _GetDC@4                   0043cf72 f   user32:USER32.dll
 0001:0003bf78       _GetSystemMetrics@4        0043cf78 f   user32:USER32.dll
 0001:0003bf7e       _UnhookWindowsHookEx@4     0043cf7e f   user32:USER32.dll
 0001:0003bf84       _EnableWindow@8            0043cf84 f   user32:USER32.dll
 0001:0003bf8a       _IsWindowEnabled@4         0043cf8a f   user32:USER32.dll
 0001:0003bf90       _GetLastActivePopup@4      0043cf90 f   user32:USER32.dll
 0001:0003bf96       _GetWindowLongA@8          0043cf96 f   user32:USER32.dll
 0001:0003bf9c       _GetParent@4               0043cf9c f   user32:USER32.dll
 0001:0003bfa2       _SendMessageA@16           0043cfa2 f   user32:USER32.dll
 0001:0003bfa8       _GetWindowTextA@12         0043cfa8 f   user32:USER32.dll
 0001:0003bfae       _GetWindowTextLengthA@4    0043cfae f   user32:USER32.dll
 0001:0003bfb4       _GetClassNameA@12          0043cfb4 f   user32:USER32.dll
 0001:0003bfba       _SetWindowTextA@8          0043cfba f   user32:USER32.dll
 0001:0003bfc0       _GetDesktopWindow@0        0043cfc0 f   user32:USER32.dll
 0001:0003bfc6       _GetFocus@0                0043cfc6 f   user32:USER32.dll
 0001:0003bfcc       _PtInRect@12               0043cfcc f   user32:USER32.dll
 0001:0003bfd2       _GetWindowRect@8           0043cfd2 f   user32:USER32.dll
 0001:0003bfd8       _GetDlgCtrlID@4            0043cfd8 f   user32:USER32.dll
 0001:0003bfde       _GetWindow@8               0043cfde f   user32:USER32.dll
 0001:0003bfe4       _ClientToScreen@8          0043cfe4 f   user32:USER32.dll
 0001:0003bfea       _ValidateRect@8            0043cfea f   user32:USER32.dll
 0001:0003bff0       _GetCursorPos@4            0043cff0 f   user32:USER32.dll
 0001:0003bff6       _PeekMessageA@20           0043cff6 f   user32:USER32.dll
 0001:0003bffc       _GetKeyState@4             0043cffc f   user32:USER32.dll
 0001:0003c002       _IsWindowVisible@4         0043d002 f   user32:USER32.dll
 0001:0003c008       _GetActiveWindow@0         0043d008 f   user32:USER32.dll
 0001:0003c00e       _CallNextHookEx@16         0043d00e f   user32:USER32.dll
 0001:0003c014       _SetWindowsHookExA@16      0043d014 f   user32:USER32.dll
 0001:0003c01a       _SetFocus@4                0043d01a f   user32:USER32.dll
 0001:0003c020       _SetScrollPos@16           0043d020 f   user32:USER32.dll
 0001:0003c026       _GetScrollPos@8            0043d026 f   user32:USER32.dll
 0001:0003c02c       _wsprintfA                 0043d02c f   user32:USER32.dll
 0001:0003c032       _CheckDlgButton@12         0043d032 f   user32:USER32.dll
 0001:0003c038       _CheckRadioButton@16       0043d038 f   user32:USER32.dll
 0001:0003c03e       _GetDlgItem@8              0043d03e f   user32:USER32.dll
 0001:0003c044       _GetDlgItemInt@16          0043d044 f   user32:USER32.dll
 0001:0003c04a       _GetDlgItemTextA@16        0043d04a f   user32:USER32.dll
 0001:0003c050       _SendDlgItemMessageA@20    0043d050 f   user32:USER32.dll
 0001:0003c056       _SetDlgItemInt@16          0043d056 f   user32:USER32.dll
 0001:0003c05c       _SetDlgItemTextA@12        0043d05c f   user32:USER32.dll
 0001:0003c062       _IsDlgButtonChecked@8      0043d062 f   user32:USER32.dll
 0001:0003c068       _IsDialogMessageA@8        0043d068 f   user32:USER32.dll
 0001:0003c06e       _SetWindowLongA@12         0043d06e f   user32:USER32.dll
 0001:0003c074       _MoveWindow@24             0043d074 f   user32:USER32.dll
 0001:0003c07a       _ScrollWindowEx@32         0043d07a f   user32:USER32.dll
 0001:0003c080       _LoadBitmapA@8             0043d080 f   user32:USER32.dll
 0001:0003c086       _GetMenuCheckMarkDimensions@0 0043d086 f   user32:USER32.dll
 0001:0003c08c       _CheckMenuItem@12          0043d08c f   user32:USER32.dll
 0001:0003c092       _EnableMenuItem@12         0043d092 f   user32:USER32.dll
 0001:0003c098       _ModifyMenuA@20            0043d098 f   user32:USER32.dll
 0001:0003c09e       _SetMenuItemBitmaps@20     0043d09e f   user32:USER32.dll
 0001:0003c0a4       _CopyRect@8                0043d0a4 f   user32:USER32.dll
 0001:0003c0aa       _GetWindowPlacement@8      0043d0aa f   user32:USER32.dll
 0001:0003c0b0       _IsIconic@4                0043d0b0 f   user32:USER32.dll
 0001:0003c0b6       _SystemParametersInfoA@16  0043d0b6 f   user32:USER32.dll
 0001:0003c0bc       _IntersectRect@12          0043d0bc f   user32:USER32.dll
 0001:0003c0c2       _OffsetRect@12             0043d0c2 f   user32:USER32.dll
 0001:0003c0c8       _CallWindowProcA@20        0043d0c8 f   user32:USER32.dll
 0001:0003c0ce       _SetWindowPlacement@8      0043d0ce f   user32:USER32.dll
 0001:0003c0d4       _RegisterClassA@4          0043d0d4 f   user32:USER32.dll
 0001:0003c0da       _GetClassInfoA@12          0043d0da f   user32:USER32.dll
 0001:0003c0e0       _SetScrollInfo@16          0043d0e0 f   user32:USER32.dll
 0001:0003c0e6       _GetScrollInfo@12          0043d0e6 f   user32:USER32.dll
 0001:0003c0ec       _DeferWindowPos@32         0043d0ec f   user32:USER32.dll
 0001:0003c0f2       _EqualRect@8               0043d0f2 f   user32:USER32.dll
 0001:0003c0f8       _ScreenToClient@8          0043d0f8 f   user32:USER32.dll
 0001:0003c0fe       _AdjustWindowRectEx@16     0043d0fe f   user32:USER32.dll
 0001:0003c104       _PostMessageA@16           0043d104 f   user32:USER32.dll
 0001:0003c10a       _GetMenu@4                 0043d10a f   user32:USER32.dll
 0001:0003c110       _GetClientRect@8           0043d110 f   user32:USER32.dll
 0001:0003c116       _ShowScrollBar@12          0043d116 f   user32:USER32.dll
 0001:0003c11c       _SetForegroundWindow@4     0043d11c f   user32:USER32.dll
 0001:0003c122       _GetScrollRange@16         0043d122 f   user32:USER32.dll
 0001:0003c128       _SetScrollRange@20         0043d128 f   user32:USER32.dll
 0001:0003c12e       _TrackPopupMenu@28         0043d12e f   user32:USER32.dll
 0001:0003c134       _TrackPopupMenuEx@24       0043d134 f   user32:USER32.dll
 0001:0003c13a       _ScrollWindow@20           0043d13a f   user32:USER32.dll
 0001:0003c140       _MapWindowPoints@16        0043d140 f   user32:USER32.dll
 0001:0003c146       _GetMessagePos@0           0043d146 f   user32:USER32.dll
 0001:0003c14c       _GetMessageTime@0          0043d14c f   user32:USER32.dll
 0001:0003c152       _GetTopWindow@4            0043d152 f   user32:USER32.dll
 0001:0003c158       _EndDeferWindowPos@4       0043d158 f   user32:USER32.dll
 0001:0003c15e       _BeginDeferWindowPos@4     0043d15e f   user32:USER32.dll
 0001:0003c164       _SetActiveWindow@4         0043d164 f   user32:USER32.dll
 0001:0003c16a       _GetForegroundWindow@0     0043d16a f   user32:USER32.dll
 0001:0003c170       _IsChild@8                 0043d170 f   user32:USER32.dll
 0001:0003c176       _IsWindow@4                0043d176 f   user32:USER32.dll
 0001:0003c17c       _RemovePropA@8             0043d17c f   user32:USER32.dll
 0001:0003c182       _GetPropA@8                0043d182 f   user32:USER32.dll
 0001:0003c188       _SetPropA@12               0043d188 f   user32:USER32.dll
 0001:0003c18e       _GetClassInfoExA@12        0043d18e f   user32:USER32.dll
 0001:0003c194       _GetClassLongA@8           0043d194 f   user32:USER32.dll
 0001:0003c19a       _GetCapture@0              0043d19a f   user32:USER32.dll
 0001:0003c1a0       _WinHelpA@16               0043d1a0 f   user32:USER32.dll
 0001:0003c1a6       _RegisterWindowMessageA@4  0043d1a6 f   user32:USER32.dll
 0001:0003c1ac       _FillRect@12               0043d1ac f   user32:USER32.dll
 0001:0003c1b2       _TabbedTextOutA@32         0043d1b2 f   user32:USER32.dll
 0001:0003c1b8       _DrawTextA@20              0043d1b8 f   user32:USER32.dll
 0001:0003c1be       _DrawTextExA@24            0043d1be f   user32:USER32.dll
 0001:0003c1c4       _GrayStringA@36            0043d1c4 f   user32:USER32.dll
 0001:0003c1ca       _GetWindowDC@4             0043d1ca f   user32:USER32.dll
 0001:0003c1d0       _InflateRect@12            0043d1d0 f   user32:USER32.dll
 0001:0003c1d6       _GetMenuItemInfoA@16       0043d1d6 f   user32:USER32.dll
 0001:0003c1dc       _DestroyMenu@4             0043d1dc f   user32:USER32.dll
 0001:0003c1e2       _SetCursor@4               0043d1e2 f   user32:USER32.dll
 0001:0003c1e8       _ShowOwnedPopups@8         0043d1e8 f   user32:USER32.dll
 0001:0003c1ee       _DeleteMenu@12             0043d1ee f   user32:USER32.dll
 0001:0003c1f4       _DestroyIcon@4             0043d1f4 f   user32:USER32.dll
 0001:0003c1fa       _EndDialog@8               0043d1fa f   user32:USER32.dll
 0001:0003c200       _GetNextDlgTabItem@12      0043d200 f   user32:USER32.dll
 0001:0003c206       _CreateDialogIndirectParamA@20 0043d206 f   user32:USER32.dll
 0001:0003c20c       _GetDialogBaseUnits@0      0043d20c f   user32:USER32.dll
 0001:0003c212       _GetDeviceCaps@8           0043d212 f   gdi32:GDI32.dll
 0001:0003c218       _CopyMetaFileA@8           0043d218 f   gdi32:GDI32.dll
 0001:0003c21e       _CreateDCA@16              0043d21e f   gdi32:GDI32.dll
 0001:0003c224       _CreateBitmap@20           0043d224 f   gdi32:GDI32.dll
 0001:0003c22a       _GetDCOrgEx@8              0043d22a f   gdi32:GDI32.dll
 0001:0003c230       _GetClipBox@8              0043d230 f   gdi32:GDI32.dll
 0001:0003c236       _GetObjectA@12             0043d236 f   gdi32:GDI32.dll
 0001:0003c23c       _SaveDC@4                  0043d23c f   gdi32:GDI32.dll
 0001:0003c242       _RestoreDC@8               0043d242 f   gdi32:GDI32.dll
 0001:0003c248       _SetPolyFillMode@8         0043d248 f   gdi32:GDI32.dll
 0001:0003c24e       _SetROP2@8                 0043d24e f   gdi32:GDI32.dll
 0001:0003c254       _SetStretchBltMode@8       0043d254 f   gdi32:GDI32.dll
 0001:0003c25a       _SetMapMode@8              0043d25a f   gdi32:GDI32.dll
 0001:0003c260       _ExcludeClipRect@20        0043d260 f   gdi32:GDI32.dll
 0001:0003c266       _IntersectClipRect@20      0043d266 f   gdi32:GDI32.dll
 0001:0003c26c       _OffsetClipRgn@12          0043d26c f   gdi32:GDI32.dll
 0001:0003c272       _LineTo@12                 0043d272 f   gdi32:GDI32.dll
 0001:0003c278       _MoveToEx@16               0043d278 f   gdi32:GDI32.dll
 0001:0003c27e       _SetTextAlign@8            0043d27e f   gdi32:GDI32.dll
 0001:0003c284       _SetTextJustification@12   0043d284 f   gdi32:GDI32.dll
 0001:0003c28a       _SetTextCharacterExtra@8   0043d28a f   gdi32:GDI32.dll
 0001:0003c290       _SetMapperFlags@8          0043d290 f   gdi32:GDI32.dll
 0001:0003c296       _SetArcDirection@8         0043d296 f   gdi32:GDI32.dll
 0001:0003c29c       _SetColorAdjustment@8      0043d29c f   gdi32:GDI32.dll
 0001:0003c2a2       _SelectClipRgn@8           0043d2a2 f   gdi32:GDI32.dll
 0001:0003c2a8       _GetClipRgn@8              0043d2a8 f   gdi32:GDI32.dll
 0001:0003c2ae       _CreateRectRgn@16          0043d2ae f   gdi32:GDI32.dll
 0001:0003c2b4       _SelectClipPath@8          0043d2b4 f   gdi32:GDI32.dll
 0001:0003c2ba       _GetViewportExtEx@8        0043d2ba f   gdi32:GDI32.dll
 0001:0003c2c0       _GetWindowExtEx@8          0043d2c0 f   gdi32:GDI32.dll
 0001:0003c2c6       _BitBlt@36                 0043d2c6 f   gdi32:GDI32.dll
 0001:0003c2cc       _GetPixel@12               0043d2cc f   gdi32:GDI32.dll
 0001:0003c2d2       _StartDocA@8               0043d2d2 f   gdi32:GDI32.dll
 0001:0003c2d8       _PtVisible@12              0043d2d8 f   gdi32:GDI32.dll
 0001:0003c2de       _RectVisible@8             0043d2de f   gdi32:GDI32.dll
 0001:0003c2e4       _ExtTextOutA@32            0043d2e4 f   gdi32:GDI32.dll
 0001:0003c2ea       _Escape@20                 0043d2ea f   gdi32:GDI32.dll
 0001:0003c2f0       _SetViewportOrgEx@16       0043d2f0 f   gdi32:GDI32.dll
 0001:0003c2f6       _OffsetViewportOrgEx@16    0043d2f6 f   gdi32:GDI32.dll
 0001:0003c2fc       _SetViewportExtEx@16       0043d2fc f   gdi32:GDI32.dll
 0001:0003c302       _ScaleViewportExtEx@24     0043d302 f   gdi32:GDI32.dll
 0001:0003c308       _SetWindowOrgEx@16         0043d308 f   gdi32:GDI32.dll
 0001:0003c30e       _OffsetWindowOrgEx@16      0043d30e f   gdi32:GDI32.dll
 0001:0003c314       _SetWindowExtEx@16         0043d314 f   gdi32:GDI32.dll
 0001:0003c31a       _ScaleWindowExtEx@24       0043d31a f   gdi32:GDI32.dll
 0001:0003c320       _GetCurrentPositionEx@8    0043d320 f   gdi32:GDI32.dll
 0001:0003c326       _ArcTo@36                  0043d326 f   gdi32:GDI32.dll
 0001:0003c32c       _PolyDraw@16               0043d32c f   gdi32:GDI32.dll
 0001:0003c332       _PolylineTo@12             0043d332 f   gdi32:GDI32.dll
 0001:0003c338       _PolyBezierTo@12           0043d338 f   gdi32:GDI32.dll
 0001:0003c33e       _ExtSelectClipRgn@12       0043d33e f   gdi32:GDI32.dll
 0001:0003c344       _DeleteDC@4                0043d344 f   gdi32:GDI32.dll
 0001:0003c34a       _CreateDIBPatternBrushPt@8 0043d34a f   gdi32:GDI32.dll
 0001:0003c350       _CreatePatternBrush@4      0043d350 f   gdi32:GDI32.dll
 0001:0003c356       _CreateCompatibleDC@4      0043d356 f   gdi32:GDI32.dll
 0001:0003c35c       _GetStockObject@4          0043d35c f   gdi32:GDI32.dll
 0001:0003c362       _SelectPalette@12          0043d362 f   gdi32:GDI32.dll
 0001:0003c368       _PlayMetaFileRecord@16     0043d368 f   gdi32:GDI32.dll
 0001:0003c36e       _GetObjectType@4           0043d36e f   gdi32:GDI32.dll
 0001:0003c374       _EnumMetaFile@16           0043d374 f   gdi32:GDI32.dll
 0001:0003c37a       _PlayMetaFile@8            0043d37a f   gdi32:GDI32.dll
 0001:0003c380       _CreatePen@12              0043d380 f   gdi32:GDI32.dll
 0001:0003c386       _ExtCreatePen@20           0043d386 f   gdi32:GDI32.dll
 0001:0003c38c       _CreateSolidBrush@4        0043d38c f   gdi32:GDI32.dll
 0001:0003c392       _CreateHatchBrush@8        0043d392 f   gdi32:GDI32.dll
 0001:0003c398       _CreateFontIndirectA@4     0043d398 f   gdi32:GDI32.dll
 0001:0003c39e       _GetTextExtentPoint32A@16  0043d39e f   gdi32:GDI32.dll
 0001:0003c3a4       _CreateRectRgnIndirect@4   0043d3a4 f   gdi32:GDI32.dll
 0001:0003c3aa       _SetRectRgn@20             0043d3aa f   gdi32:GDI32.dll
 0001:0003c3b0       _CombineRgn@16             0043d3b0 f   gdi32:GDI32.dll
 0001:0003c3b6       _GetMapMode@4              0043d3b6 f   gdi32:GDI32.dll
 0001:0003c3bc       _PatBlt@24                 0043d3bc f   gdi32:GDI32.dll
 0001:0003c3c2       _DPtoLP@12                 0043d3c2 f   gdi32:GDI32.dll
 0001:0003c3c8       _GetTextMetricsA@8         0043d3c8 f   gdi32:GDI32.dll
 0001:0003c3ce       _ClosePrinter@4            0043d3ce f   winspool:WINSPOOL.DRV
 0001:0003c3d4       _DocumentPropertiesA@24    0043d3d4 f   winspool:WINSPOOL.DRV
 0001:0003c3da       _OpenPrinterA@12           0043d3da f   winspool:WINSPOOL.DRV
 0001:0003c3e0       _GetFileTitleA@12          0043d3e0 f   comdlg32:comdlg32.dll
 0001:0003c3e6       _GetSaveFileNameA@4        0043d3e6 f   comdlg32:comdlg32.dll
 0001:0003c3ec       _GetOpenFileNameA@4        0043d3ec f   comdlg32:comdlg32.dll
 0001:0003c3f2       _RegSetValueA@20           0043d3f2 f   advapi32:ADVAPI32.dll
 0001:0003c3f8       _RegOpenKeyA@12            0043d3f8 f   advapi32:ADVAPI32.dll
 0001:0003c3fe       _RegCreateKeyExA@36        0043d3fe f   advapi32:ADVAPI32.dll
 0001:0003c404       _RegDeleteValueA@8         0043d404 f   advapi32:ADVAPI32.dll
 0001:0003c40a       _RegDeleteKeyA@8           0043d40a f   advapi32:ADVAPI32.dll
 0001:0003c410       _RegEnumKeyA@16            0043d410 f   advapi32:ADVAPI32.dll
 0001:0003c416       _RegQueryValueA@16         0043d416 f   advapi32:ADVAPI32.dll
 0001:0003c41c       _RegCreateKeyA@12          0043d41c f   advapi32:ADVAPI32.dll
 0001:0003c422       _SHGetFileInfoA@20         0043d422 f   shell32:SHELL32.dll
 0001:0003c428       _ExtractIconA@12           0043d428 f   shell32:SHELL32.dll
 0001:0003c42e       _CoTaskMemFree@4           0043d42e f   ole32:ole32.dll
 0001:0003c434       _SetConvertStg@8           0043d434 f   ole32:ole32.dll
 0001:0003c43a       _WriteFmtUserTypeStg@12    0043d43a f   ole32:ole32.dll
 0001:0003c440       _WriteClassStg@8           0043d440 f   ole32:ole32.dll
 0001:0003c446       _OleRegGetUserType@12      0043d446 f   ole32:ole32.dll
 0001:0003c44c       _ReadFmtUserTypeStg@12     0043d44c f   ole32:ole32.dll
 0001:0003c452       _ReadClassStg@8            0043d452 f   ole32:ole32.dll
 0001:0003c458       _StringFromCLSID@8         0043d458 f   ole32:ole32.dll
 0001:0003c45e       _CoTreatAsClass@8          0043d45e f   ole32:ole32.dll
 0001:0003c464       _CreateBindCtx@8           0043d464 f   ole32:ole32.dll
 0001:0003c46a       _CoTaskMemAlloc@4          0043d46a f   ole32:ole32.dll
 0001:0003c470       _ReleaseStgMedium@4        0043d470 f   ole32:ole32.dll
 0001:0003c476       _OleDuplicateData@12       0043d476 f   ole32:ole32.dll
 0001:0003c47c       _CoDisconnectObject@8      0043d47c f   ole32:ole32.dll
 0001:0003c482       _CoCreateInstance@20       0043d482 f   ole32:ole32.dll
 0001:0003c488       _StringFromGUID2@12        0043d488 f   ole32:ole32.dll
 0001:0003c48e       _CLSIDFromString@8         0043d48e f   ole32:ole32.dll
 0001:0003c494       _SysFreeString@4           0043d494 f   oleaut32:OLEAUT32.dll
 0001:0003c49a       _SysStringLen@4            0043d49a f   oleaut32:OLEAUT32.dll
 0001:0003c4a0       _SysAllocStringByteLen@8   0043d4a0 f   oleaut32:OLEAUT32.dll
 0001:0003c4a6       _SysStringByteLen@4        0043d4a6 f   oleaut32:OLEAUT32.dll
 0001:0003c4ac       _SafeArrayUnaccessData@4   0043d4ac f   oleaut32:OLEAUT32.dll
 0001:0003c4b2       _SafeArrayAccessData@8     0043d4b2 f   oleaut32:OLEAUT32.dll
 0001:0003c4b8       _SafeArrayGetUBound@12     0043d4b8 f   oleaut32:OLEAUT32.dll
 0001:0003c4be       _SafeArrayGetLBound@12     0043d4be f   oleaut32:OLEAUT32.dll
 0001:0003c4c4       _SafeArrayGetElemsize@4    0043d4c4 f   oleaut32:OLEAUT32.dll
 0001:0003c4ca       _SafeArrayGetDim@4         0043d4ca f   oleaut32:OLEAUT32.dll
 0001:0003c4d0       _SafeArrayCreate@12        0043d4d0 f   oleaut32:OLEAUT32.dll
 0001:0003c4d6       _VariantClear@4            0043d4d6 f   oleaut32:OLEAUT32.dll
 0001:0003c4dc       _SafeArrayRedim@8          0043d4dc f   oleaut32:OLEAUT32.dll
 0001:0003c4e2       _VariantChangeType@16      0043d4e2 f   oleaut32:OLEAUT32.dll
 0001:0003c4e8       _VariantCopy@8             0043d4e8 f   oleaut32:OLEAUT32.dll
 0001:0003c4ee       _SafeArrayAllocData@4      0043d4ee f   oleaut32:OLEAUT32.dll
 0001:0003c4f4       _SafeArrayAllocDescriptor@8 0043d4f4 f   oleaut32:OLEAUT32.dll
 0001:0003c4fa       _SafeArrayCopy@8           0043d4fa f   oleaut32:OLEAUT32.dll
 0001:0003c500       _SafeArrayGetElement@12    0043d500 f   oleaut32:OLEAUT32.dll
 0001:0003c506       _SafeArrayPtrOfIndex@12    0043d506 f   oleaut32:OLEAUT32.dll
 0001:0003c50c       _SafeArrayPutElement@12    0043d50c f   oleaut32:OLEAUT32.dll
 0001:0003c512       _SafeArrayLock@4           0043d512 f   oleaut32:OLEAUT32.dll
 0001:0003c518       _SafeArrayUnlock@4         0043d518 f   oleaut32:OLEAUT32.dll
 0001:0003c51e       _SafeArrayDestroy@4        0043d51e f   oleaut32:OLEAUT32.dll
 0001:0003c524       _SafeArrayDestroyData@4    0043d524 f   oleaut32:OLEAUT32.dll
 0001:0003c52a       _SafeArrayDestroyDescriptor@4 0043d52a f   oleaut32:OLEAUT32.dll
 0001:0003c530       _SysAllocStringLen@8       0043d530 f   oleaut32:OLEAUT32.dll
 0001:0003c536       _VariantTimeToSystemTime@12 0043d536 f   oleaut32:OLEAUT32.dll
 0001:0003c53c       _SystemTimeToVariantTime@8 0043d53c f   oleaut32:OLEAUT32.dll
 0001:0003c542       _SysAllocString@4          0043d542 f   oleaut32:OLEAUT32.dll
 0001:0003c548       _SysReAllocStringLen@12    0043d548 f   oleaut32:OLEAUT32.dll
 0001:0003c54e       _VarDateFromStr@16         0043d54e f   oleaut32:OLEAUT32.dll
 0001:0003c554       _VarBstrFromDec@16         0043d554 f   oleaut32:OLEAUT32.dll
 0001:0003c55a       _VarDecFromStr@16          0043d55a f   oleaut32:OLEAUT32.dll
 0001:0003c560       _VarCyFromStr@16           0043d560 f   oleaut32:OLEAUT32.dll
 0001:0003c566       _VarBstrFromCy@20          0043d566 f   oleaut32:OLEAUT32.dll
 0001:0003c56c       _VarBstrFromDate@20        0043d56c f   oleaut32:OLEAUT32.dll
 0001:0003c572       _VariantInit@4             0043d572 f   oleaut32:OLEAUT32.dll
 0001:0003c578       _strlwr                    0043d578 f   libcmt:strlwr.obj
 0001:0003c578       __strlwr                   0043d578 f   libcmt:strlwr.obj
 0001:0003c68c       __fileno                   0043d68c f   libcmt:fileno.obj
 0001:0003c68c       _fileno                    0043d68c f   libcmt:fileno.obj
 0001:0003c694       __check_commonlanguageruntime_version 0043d694 f   libcmt:checkclr.obj
 0001:0003c8f6       __CorExeMain@0             0043d8f6 f   MSCOREE:mscoree.dll
 0001:0003c8fc       _GlobalMemoryStatus@4      0043d8fc f   kernel32:KERNEL32.dll
 0001:0003c902       _FileTimeToDosDateTime@12  0043d902 f   kernel32:KERNEL32.dll
 0001:0003c908       _GetUserNameA@8            0043d908 f   advapi32:ADVAPI32.dll
 0001:0003c90e       __splitpath                0043d90e f   libcmt:splitpat.obj
 0001:0003ca56       __makepath                 0043da56 f   libcmt:makepath.obj
 0001:0003cae6       __vsnwprintf               0043dae6 f   libcmt:vsnwprnt.obj
 0001:0003cb55       _wcsncpy                   0043db55 f   libcmt:wcsncpy.obj
 0001:0003cb92       __wsplitpath               0043db92 f   libcmt:wsplitpa.obj
 0001:0003cced       __wmakepath                0043dced f   libcmt:wmakepat.obj
 0001:0003cd9e       _VerQueryValueA@16         0043dd9e f   Version:VERSION.dll
 0001:0003cda4       _GetFileVersionInfoA@16    0043dda4 f   Version:VERSION.dll
 0001:0003cdaa       _GetFileVersionInfoSizeA@8 0043ddaa f   Version:VERSION.dll
 0001:0003cdb0       ?InitString@CSimpleException@@QAEXXZ 0043ddb0 f   nafxcw:except.obj
 0001:0003cdd9       ?GetErrorMessage@CSimpleException@@UAEHPADIPAI@Z 0043ddd9 f   nafxcw:except.obj
 0001:0003ce29       ?AfxThrowMemoryException@@YGXXZ 0043de29 f   nafxcw:except.obj
 0001:0003ce43       ?AfxThrowNotSupportedException@@YGXXZ 0043de43 f   nafxcw:except.obj
 0001:0003ce5d       ?AfxThrowInvalidArgException@@YGXXZ 0043de5d f   nafxcw:except.obj
 0001:0003ce77       ?GetOFN@CFileDialog@@QBEABUtagOFNA@@XZ 0043de77 f   nafxcw:dlgfile.obj
 0001:0003ce7b       ?GetOFN@CFileDialog@@QAEAAUtagOFNA@@XZ 0043de7b f   nafxcw:dlgfile.obj
 0001:0003ce7f       ?DoModal@CFileDialog@@UAEHXZ 0043de7f f   nafxcw:dlgfile.obj
 0001:0003cf69       ?SetTemplate@CFileDialog@@QAEXPBD0@Z 0043df69 f   nafxcw:dlgfile.obj
 0001:0003cf87       ?OnShareViolation@CFileDialog@@MAEIPBD@Z 0043df87 f   nafxcw:dlgfile.obj
 0001:0003cf8c       ?OnFileNameOK@CFileDialog@@MAEHXZ 0043df8c f   nafxcw:dlgfile.obj
 0001:0003cf8f       ?OnLBSelChangedNotify@CFileDialog@@MAEXIII@Z 0043df8f f   nafxcw:dlgfile.obj
 0001:0003cf92       ?OnFileNameChange@CFileDialog@@MAEXXZ 0043df92 f   nafxcw:dlgfile.obj
 0001:0003cf93       ?OnFolderChange@CFileDialog@@MAEXXZ 0043df93 f   nafxcw:dlgfile.obj
 0001:0003cf94       ?OnTypeChange@CFileDialog@@MAEXXZ 0043df94 f   nafxcw:dlgfile.obj
 0001:0003cf95       ?SetControlText@CFileDialog@@QAEXHPBD@Z 0043df95 f   nafxcw:dlgfile.obj
 0001:0003cfbd       ?HideControl@CFileDialog@@QAEXH@Z 0043dfbd f   nafxcw:dlgfile.obj
 0001:0003cfe3       ?SetDefExt@CFileDialog@@QAEXPBD@Z 0043dfe3 f   nafxcw:dlgfile.obj
 0001:0003d009       ?OnInitDone@CFileDialog@@MAEXXZ 0043e009 f   nafxcw:dlgfile.obj
 0001:0003d022       ?OnNotify@CFileDialog@@MAEHIJPAJ@Z 0043e022 f   nafxcw:dlgfile.obj
 0001:0003d100       ??1CFileDialog@@UAE@XZ     0043e100 f   nafxcw:dlgfile.obj
 0001:0003d125       ??_GCFileDialog@@UAEPAXI@Z 0043e125 f i nafxcw:dlgfile.obj
 0001:0003d125       ??_ECFileDialog@@UAEPAXI@Z 0043e125 f i nafxcw:dlgfile.obj
 0001:0003d141       ?GetFolderPath@CFileDialog@@QBE?AV?$CStringT@DV?$StrTraitMFC@DV?$ChTraitsCRT@D@ATL@@@@@ATL@@XZ 0043e141 f   nafxcw:dlgfile.obj
 0001:0003d1da       ??0CFileDialog@@QAE@HPBD0K0PAVCWnd@@K@Z 0043e1da f   nafxcw:dlgfile.obj
 0001:0003d39d       ?GetPathName@CFileDialog@@QBE?AV?$CStringT@DV?$StrTraitMFC@DV?$ChTraitsCRT@D@ATL@@@@@ATL@@XZ 0043e39d f   nafxcw:dlgfile.obj
 0001:0003d4b6       ?GetFileName@CFileDialog@@QBE?AV?$CStringT@DV?$StrTraitMFC@DV?$ChTraitsCRT@D@ATL@@@@@ATL@@XZ 0043e4b6 f   nafxcw:dlgfile.obj
 0001:0003d57a       ?GetFileExt@CFileDialog@@QBE?AV?$CStringT@DV?$StrTraitMFC@DV?$ChTraitsCRT@D@ATL@@@@@ATL@@XZ 0043e57a f   nafxcw:dlgfile.obj
 0001:0003d68a       ?GetFileTitle@CFileDialog@@QBE?AV?$CStringT@DV?$StrTraitMFC@DV?$ChTraitsCRT@D@ATL@@@@@ATL@@XZ 0043e68a f   nafxcw:dlgfile.obj
 0001:0003d6e7       ?GetNextPathName@CFileDialog@@QBE?AV?$CStringT@DV?$StrTraitMFC@DV?$ChTraitsCRT@D@ATL@@@@@ATL@@AAPAU__POSITION@@@Z 0043e6e7 f   nafxcw:dlgfile.obj
 0001:0003d8d7       ?GetMessageMap@CCommonDialog@@MBEPBUAFX_MSGMAP@@XZ 0043e8d7 f   nafxcw:dlgcomm.obj
 0001:0003d8dd       ?OnOK@CCommonDialog@@MAEXXZ 0043e8dd f   nafxcw:dlgcomm.obj
 0001:0003d8f5       ?OnCancel@CCommonDialog@@MAEXXZ 0043e8f5 f   nafxcw:dlgcomm.obj
 0001:0003d8fa       ?OnHelpInfo@CCommonDialog@@IAEHPAUtagHELPINFO@@@Z 0043e8fa f   nafxcw:dlgcomm.obj
 0001:0003d908       ?OnPaint@CCommonDialog@@IAEXXZ 0043e908 f   nafxcw:dlgcomm.obj
 0001:0003d90d       ?_AfxCommDlgProc@@YGIPAUHWND__@@IIJ@Z 0043e90d f   nafxcw:dlgcomm.obj
 0001:0003daa8       ?AddRef@CArchiveStream@@UAGKXZ 0043eaa8 f   nafxcw:arcstrm.obj
 0001:0003daae       ?Release@CArchiveStream@@UAGKXZ 0043eaae f   nafxcw:arcstrm.obj
 0001:0003dab3       ?Read@CArchiveStream@@UAGJPAXKPAK@Z 0043eab3 f   nafxcw:arcstrm.obj
 0001:0003db0b       ?Write@CArchiveStream@@UAGJPBXKPAK@Z 0043eb0b f   nafxcw:arcstrm.obj
 0001:0003db64       ?SetSize@CArchiveStream@@UAGJT_ULARGE_INTEGER@@@Z 0043eb64 f   nafxcw:arcstrm.obj
 0001:0003db6c       ?CopyTo@CArchiveStream@@UAGJPAUIStream@@T_ULARGE_INTEGER@@PAT3@2@Z 0043eb6c f   nafxcw:arcstrm.obj
 0001:0003db74       ?Commit@CArchiveStream@@UAGJK@Z 0043eb74 f   nafxcw:arcstrm.obj
 0001:0003db7c       ?Revert@CArchiveStream@@UAGJXZ 0043eb7c f   nafxcw:arcstrm.obj
 0001:0003db84       ?LockRegion@CArchiveStream@@UAGJT_ULARGE_INTEGER@@0K@Z 0043eb84 f   nafxcw:arcstrm.obj
 0001:0003db8c       ?UnlockRegion@CArchiveStream@@UAGJT_ULARGE_INTEGER@@0K@Z 0043eb8c f   nafxcw:arcstrm.obj
 0001:0003db94       ?Stat@CArchiveStream@@UAGJPAUtagSTATSTG@@K@Z 0043eb94 f   nafxcw:arcstrm.obj
 0001:0003db9c       ?Clone@CArchiveStream@@UAGJPAPAUIStream@@@Z 0043eb9c f   nafxcw:arcstrm.obj
 0001:0003dba4       ?QueryInterface@CArchiveStream@@UAGJABU_GUID@@PAPAX@Z 0043eba4 f   nafxcw:arcstrm.obj
 0001:0003dbed       ?Seek@CArchiveStream@@UAGJT_LARGE_INTEGER@@KPAT_ULARGE_INTEGER@@@Z 0043ebed f   nafxcw:arcstrm.obj
 0001:0003dc5f       ??0CArchiveStream@@QAE@PAVCArchive@@@Z 0043ec5f f   nafxcw:arcstrm.obj
 0001:0003dc71       ?data@CPlex@@QAEPAXXZ      0043ec71 f i nafxcw:map_pp.obj
 0001:0003dc75       ?RemoveAll@CPtrList@@QAEXXZ 0043ec75 f   nafxcw:list_p.obj
 0001:0003dc95       ?FreeNode@CPtrList@@IAEXPAUCNode@1@@Z 0043ec95 f   nafxcw:list_p.obj
 0001:0003dcb7       ?RemoveHead@CPtrList@@QAEPAXXZ 0043ecb7 f   nafxcw:list_p.obj
 0001:0003dcdb       ?RemoveTail@CPtrList@@QAEPAXXZ 0043ecdb f   nafxcw:list_p.obj
 0001:0003dcff       ?RemoveAt@CPtrList@@QAEXPAU__POSITION@@@Z 0043ecff f   nafxcw:list_p.obj
 0001:0003dd3f       ?FindIndex@CPtrList@@QBEPAU__POSITION@@H@Z 0043ed3f f   nafxcw:list_p.obj
 0001:0003dd5d       ?Find@CPtrList@@QBEPAU__POSITION@@PAXPAU2@@Z 0043ed5d f   nafxcw:list_p.obj
 0001:0003dd7c       ??0CPtrList@@QAE@H@Z       0043ed7c f   nafxcw:list_p.obj
 0001:0003dd9f       ??1CPtrList@@UAE@XZ        0043ed9f f   nafxcw:list_p.obj
 0001:0003ddaa       ?NewNode@CPtrList@@IAEPAUCNode@1@PAU21@0@Z 0043edaa f   nafxcw:list_p.obj
 0001:0003de00       ?AddHead@CPtrList@@QAEPAU__POSITION@@PAX@Z 0043ee00 f   nafxcw:list_p.obj
 0001:0003de2a       ?AddTail@CPtrList@@QAEPAU__POSITION@@PAX@Z 0043ee2a f   nafxcw:list_p.obj
 0001:0003de53       ?AddHead@CPtrList@@QAEXPAV1@@Z 0043ee53 f   nafxcw:list_p.obj
 0001:0003de90       ?AddTail@CPtrList@@QAEXPAV1@@Z 0043ee90 f   nafxcw:list_p.obj
 0001:0003decd       ?InsertBefore@CPtrList@@QAEPAU__POSITION@@PAU2@PAX@Z 0043eecd f   nafxcw:list_p.obj
 0001:0003df0a       ?InsertAfter@CPtrList@@QAEPAU__POSITION@@PAU2@PAX@Z 0043ef0a f   nafxcw:list_p.obj
 0001:0003df45       ??_ECPtrList@@UAEPAXI@Z    0043ef45 f i nafxcw:list_p.obj
 0001:0003df45       ??_GCPtrList@@UAEPAXI@Z    0043ef45 f i nafxcw:list_p.obj
 0001:0003df61       ?SetSize@CByteArray@@QAEXHH@Z 0043ef61 f   nafxcw:array_b.obj
 0001:0003e066       ?Append@CByteArray@@QAEHABV1@@Z 0043f066 f   nafxcw:array_b.obj
 0001:0003e0a6       ?Copy@CByteArray@@QAEXABV1@@Z 0043f0a6 f   nafxcw:array_b.obj
 0001:0003e0d2       ?FreeExtra@CByteArray@@QAEXXZ 0043f0d2 f   nafxcw:array_b.obj
 0001:0003e110       ?SetAtGrow@CByteArray@@QAEXHE@Z 0043f110 f   nafxcw:array_b.obj
 0001:0003e142       ?InsertAt@CByteArray@@QAEXHEH@Z 0043f142 f   nafxcw:array_b.obj
 0001:0003e1bb       ?RemoveAt@CByteArray@@QAEXHH@Z 0043f1bb f   nafxcw:array_b.obj
 0001:0003e200       ??0CByteArray@@QAE@XZ      0043f200 f   nafxcw:array_b.obj
 0001:0003e217       ??1CByteArray@@UAE@XZ      0043f217 f   nafxcw:array_b.obj
 0001:0003e227       ?InsertAt@CByteArray@@QAEXHPAV1@@Z 0043f227 f   nafxcw:array_b.obj
 0001:0003e288       ?Serialize@CByteArray@@UAEXAAVCArchive@@@Z 0043f288 f   nafxcw:array_b.obj
 0001:0003e305       ??_GCByteArray@@UAEPAXI@Z  0043f305 f i nafxcw:array_b.obj
 0001:0003e305       ??_ECByteArray@@UAEPAXI@Z  0043f305 f i nafxcw:array_b.obj
 0001:0003e321       ?Create@CPlex@@SGPAU1@AAPAU1@II@Z 0043f321 f   nafxcw:plex.obj
 0001:0003e352       ?FreeDataChain@CPlex@@QAEXXZ 0043f352 f   nafxcw:plex.obj
 0001:0003e368       ?SetSize@CPtrArray@@QAEXHH@Z 0043f368 f   nafxcw:array_p.obj
 0001:0003e482       ?Append@CPtrArray@@QAEHABV1@@Z 0043f482 f   nafxcw:array_p.obj
 0001:0003e4c7       ?Copy@CPtrArray@@QAEXABV1@@Z 0043f4c7 f   nafxcw:array_p.obj
 0001:0003e4f7       ?FreeExtra@CPtrArray@@QAEXXZ 0043f4f7 f   nafxcw:array_p.obj
 0001:0003e53c       ?SetAtGrow@CPtrArray@@QAEXHPAX@Z 0043f53c f   nafxcw:array_p.obj
 0001:0003e56e       ?InsertAt@CPtrArray@@QAEXHPAXH@Z 0043f56e f   nafxcw:array_p.obj
 0001:0003e5fe       ?RemoveAt@CPtrArray@@QAEXHH@Z 0043f5fe f   nafxcw:array_p.obj
 0001:0003e649       ??0CPtrArray@@QAE@XZ       0043f649 f   nafxcw:array_p.obj
 0001:0003e660       ??1CPtrArray@@UAE@XZ       0043f660 f   nafxcw:array_p.obj
 0001:0003e670       ?InsertAt@CPtrArray@@QAEXHPAV1@@Z 0043f670 f   nafxcw:array_p.obj
 0001:0003e6cf       ??_ECPtrArray@@UAEPAXI@Z   0043f6cf f i nafxcw:array_p.obj
 0001:0003e6cf       ??_GCPtrArray@@UAEPAXI@Z   0043f6cf f i nafxcw:array_p.obj
 0001:0003e6eb       ?HashKey@CMapPtrToPtr@@QBEIPAX@Z 0043f6eb f i nafxcw:map_pp.obj
 0001:0003e6f5       ?InitHashTable@CMapPtrToPtr@@QAEXIH@Z 0043f6f5 f   nafxcw:map_pp.obj
 0001:0003e741       ?RemoveAll@CMapPtrToPtr@@QAEXXZ 0043f741 f   nafxcw:map_pp.obj
 0001:0003e76c       ?FreeAssoc@CMapPtrToPtr@@IAEXPAUCAssoc@1@@Z 0043f76c f   nafxcw:map_pp.obj
 0001:0003e785       ?GetAssocAt@CMapPtrToPtr@@IBEPAUCAssoc@1@PAXAAI1@Z 0043f785 f   nafxcw:map_pp.obj
 0001:0003e7bd       ?GetValueAt@CMapPtrToPtr@@QBEPAXPAX@Z 0043f7bd f   nafxcw:map_pp.obj
 0001:0003e7f4       ?Lookup@CMapPtrToPtr@@QBEHPAXAAPAX@Z 0043f7f4 f   nafxcw:map_pp.obj
 0001:0003e81b       ?RemoveKey@CMapPtrToPtr@@QAEHPAX@Z 0043f81b f   nafxcw:map_pp.obj
 0001:0003e85e       ?GetNextAssoc@CMapPtrToPtr@@QBEXAAPAU__POSITION@@AAPAX1@Z 0043f85e f   nafxcw:map_pp.obj
 0001:0003e8d8       ??0CMapPtrToPtr@@QAE@H@Z   0043f8d8 f   nafxcw:map_pp.obj
 0001:0003e906       ??1CMapPtrToPtr@@UAE@XZ    0043f906 f   nafxcw:map_pp.obj
 0001:0003e911       ?NewAssoc@CMapPtrToPtr@@IAEPAUCAssoc@1@XZ 0043f911 f   nafxcw:map_pp.obj
 0001:0003e95c       ??ACMapPtrToPtr@@QAEAAPAXPAX@Z 0043f95c f   nafxcw:map_pp.obj
 0001:0003e9b1       ??_ECMapPtrToPtr@@UAEPAXI@Z 0043f9b1 f i nafxcw:map_pp.obj
 0001:0003e9b1       ??_GCMapPtrToPtr@@UAEPAXI@Z 0043f9b1 f i nafxcw:map_pp.obj
 0001:0003e9cd       ?AfxNewHandler@@YAHI@Z     0043f9cd f   nafxcw:afxmem.obj
 0001:0003e9d2       ?AfxGetNewHandler@@YGP6AHI@ZXZ 0043f9d2 f   nafxcw:afxmem.obj
 0001:0003e9d8       ?AfxSetNewHandler@@YGP6AHI@ZP6AHI@Z@Z 0043f9d8 f   nafxcw:afxmem.obj
 0001:0003e9ea       ??2@YAPAXI@Z               0043f9ea f   nafxcw:afxmem.obj
 0001:0003ea15       ??3@YAXPAX@Z               0043fa15 f   nafxcw:afxmem.obj
 0001:0003ea1a       ??_U@YAPAXI@Z              0043fa1a f   nafxcw:afxmem.obj
 0001:0003ea1f       ??_V@YAXPAX@Z              0043fa1f f   nafxcw:afxmem.obj
 0001:0003ea24       ?Delete@CException@@QAEXXZ 0043fa24 f   nafxcw:except.obj
 0001:0003ea32       ?GetErrorMessage@CException@@UAEHPADIPAI@Z 0043fa32 f   nafxcw:except.obj
 0001:0003ea53       ?ReportError@CException@@UAEHII@Z 0043fa53 f   nafxcw:except.obj
 0001:0003eac5       ??0CException@@QAE@XZ      0043fac5 f   nafxcw:except.obj
 0001:0003eacf       ??0CException@@QAE@H@Z     0043facf f   nafxcw:except.obj
 0001:0003eadb       ?AfxGetExceptionContext@@YAPAUAFX_EXCEPTION_CONTEXT@@XZ 0043fadb f i nafxcw:except.obj
 0001:0003eb03       ??0AFX_EXCEPTION_LINK@@QAE@XZ 0043fb03 f   nafxcw:except.obj
 0001:0003eb19       ?AfxTryCleanup@@YGXXZ      0043fb19 f   nafxcw:except.obj
 0001:0003eb37       ?AfxThrowLastCleanup@@YGXXZ 0043fb37 f   nafxcw:except.obj
 0001:0003eb47       ?AfxLoadString@@YGHIPADI@Z 0043fb47 f   nafxcw:winstr.obj
 0001:0003eb92       ?AfxLoadString@@YGHIPA_WI@Z 0043fb92 f   nafxcw:winstr.obj
 0001:0003ebe8       ?AfxFindStringResourceHandle@@YGPAUHINSTANCE__@@I@Z 0043fbe8 f   nafxcw:winstr.obj
 0001:0003ebf3       ?AfxExtractSubString@@YGHAAV?$CStringT@DV?$StrTraitMFC@DV?$ChTraitsCRT@D@ATL@@@@@ATL@@PBDHD@Z 0043fbf3 f   nafxcw:winstr.obj
 0001:0003ec75       ??$HashKey@PB_W@@YGIPB_W@Z 0043fc75 f   nafxcw:strcore.obj
 0001:0003ec94       ??$HashKey@PBD@@YGIPBD@Z   0043fc94 f   nafxcw:strcore.obj
 0001:0003ecae       ?AfxGetStringManager@@YGPAUIAtlStringMgr@ATL@@XZ 0043fcae f   nafxcw:strcore.obj
 0001:0003ecb4       ?Allocate@CAfxStringMgr@@UAEPAUCStringData@ATL@@HH@Z 0043fcb4 f   nafxcw:strcore.obj
 0001:0003ecef       ?Free@CAfxStringMgr@@UAEXPAUCStringData@ATL@@@Z 0043fcef f   nafxcw:strcore.obj
 0001:0003ecfc       ?Reallocate@CAfxStringMgr@@UAEPAUCStringData@ATL@@PAU23@HH@Z 0043fcfc f   nafxcw:strcore.obj
 0001:0003ed2b       ?Clone@CAfxStringMgr@@UAEPAUIAtlStringMgr@ATL@@XZ 0043fd2b f   nafxcw:strcore.obj
 0001:0003ed2e       ??B?$CSimpleStringT@_W$0A@@ATL@@QBEPB_WXZ 0043fd2e f i nafxcw:strcore.obj
 0001:0003ed31       ?GetData@?$CSimpleStringT@_W$0A@@ATL@@ABEPAUCStringData@2@XZ 0043fd31 f i nafxcw:strcore.obj
 0001:0003ed37       ?StringLength@?$CSimpleStringT@_W$0A@@ATL@@SAHPB_W@Z 0043fd37 f i nafxcw:strcore.obj
 0001:0003ed46       ?GetString@?$CSimpleStringT@_W$0A@@ATL@@QBEPB_WXZ 0043fd46 f i nafxcw:strcore.obj
 0001:0003ed49       ?CopyChars@?$CSimpleStringT@_W$0A@@ATL@@SAXPA_WPB_WH@Z 0043fd49 f i nafxcw:strcore.obj
 0001:0003ed61       ?CopyCharsOverlapped@?$CSimpleStringT@_W$0A@@ATL@@SAXPA_WPB_WH@Z 0043fd61 f i nafxcw:strcore.obj
 0001:0003ed79       ?AfxA2WHelper@@YGPA_WPA_WPBDH@Z 0043fd79 f   nafxcw:strcore.obj
 0001:0003ed8f       ?AfxW2AHelper@@YGPADPADPB_WH@Z 0043fd8f f   nafxcw:strcore.obj
 0001:0003eda5       ??$HashKey@VCComBSTR@ATL@@@@YGIVCComBSTR@ATL@@@Z 0043fda5 f   nafxcw:strcore.obj
 0001:0003eddd       ??0CAfxStringMgr@@QAE@XZ   0043fddd f i nafxcw:strcore.obj
 0001:0003ee03       ?GetNilString@CAfxStringMgr@@UAEPAUCStringData@ATL@@XZ 0043fe03 f   nafxcw:strcore.obj
 0001:0003ee11       ?GetLength@?$CSimpleStringT@_W$0A@@ATL@@QBEHXZ 0043fe11 f i nafxcw:strcore.obj
 0001:0003ee17       ?Attach@?$CSimpleStringT@_W$0A@@ATL@@AAEXPAUCStringData@2@@Z 0043fe17 f i nafxcw:strcore.obj
 0001:0003ee23       ?SetLength@?$CSimpleStringT@_W$0A@@ATL@@AAEXH@Z 0043fe23 f i nafxcw:strcore.obj
 0001:0003ee4a       ?ThrowMemoryException@?$CSimpleStringT@_W$0A@@ATL@@KAXXZ 0043fe4a f i nafxcw:strcore.obj
 0001:0003ee55       ??$SerializeElementsInsertExtract@VCComBSTR@ATL@@@@YGXAAVCArchive@@PAVCComBSTR@ATL@@H@Z 0043fe55 f i nafxcw:strcore.obj
 0001:0003eea3       ??$?6DV?$StrTraitMFC@DV?$ChTraitsCRT@D@ATL@@@@@@YGAAVCArchive@@AAV0@ABV?$CStringT@DV?$StrTraitMFC@DV?$ChTraitsCRT@D@ATL@@@@@ATL@@@Z 0043fea3 f i nafxcw:strcore.obj
 0001:0003eecf       ??$?6_WV?$StrTraitMFC@_WV?$ChTraitsCRT@_W@ATL@@@@@@YGAAVCArchive@@AAV0@ABV?$CStringT@_WV?$StrTraitMFC@_WV?$ChTraitsCRT@_W@ATL@@@@@ATL@@@Z 0043fecf f i nafxcw:strcore.obj
 0001:0003eefe       ?Empty@?$CSimpleStringT@_W$0A@@ATL@@QAEXXZ 0043fefe f i nafxcw:strcore.obj
 0001:0003ef42       ?ReleaseBufferSetLength@?$CSimpleStringT@_W$0A@@ATL@@QAEXH@Z 0043ff42 f i nafxcw:strcore.obj
 0001:0003ef47       ?Fork@?$CSimpleStringT@_W$0A@@ATL@@AAEXH@Z 0043ff47 f i nafxcw:strcore.obj
 0001:0003efae       ?Reallocate@?$CSimpleStringT@_W$0A@@ATL@@AAEXH@Z 0043ffae f i nafxcw:strcore.obj
 0001:0003efd6       ??$SerializeElements@VCComBSTR@ATL@@@@YGXAAVCArchive@@PAVCComBSTR@ATL@@H@Z 0043ffd6 f   nafxcw:strcore.obj
 0001:0003efdb       ??0?$CTempBuffer@D$0IA@VCCRTAllocator@ATL@@@ATL@@QAE@I@Z 0043ffdb f i nafxcw:strcore.obj
 0001:0003eff0       ??0?$CTempBuffer@_W$0IA@VCCRTAllocator@ATL@@@ATL@@QAE@I@Z 0043fff0 f i nafxcw:strcore.obj
 0001:0003f008       ?PrepareWrite2@?$CSimpleStringT@_W$0A@@ATL@@AAEXH@Z 00440008 f i nafxcw:strcore.obj
 0001:0003f04f       ?PrepareWrite@?$CSimpleStringT@_W$0A@@ATL@@AAEPA_WH@Z 0044004f f i nafxcw:strcore.obj
 0001:0003f079       ?GetBuffer@?$CSimpleStringT@_W$0A@@ATL@@QAEPA_WH@Z 00440079 f i nafxcw:strcore.obj
 0001:0003f07e       ?SetString@?$CSimpleStringT@_W$0A@@ATL@@QAEXPB_WH@Z 0044007e f i nafxcw:strcore.obj
 0001:0003f0e7       ??4?$CStringT@_WV?$StrTraitMFC@_WV?$ChTraitsCRT@_W@ATL@@@@@ATL@@QAEAAV01@PBD@Z 004400e7 f i nafxcw:strcore.obj
 0001:0003f131       ?SetString@?$CSimpleStringT@_W$0A@@ATL@@QAEXPB_W@Z 00440131 f i nafxcw:strcore.obj
 0001:0003f156       ??$?5DV?$StrTraitMFC@DV?$ChTraitsCRT@D@ATL@@@@@@YGAAVCArchive@@AAV0@AAV?$CStringT@DV?$StrTraitMFC@DV?$ChTraitsCRT@D@ATL@@@@@ATL@@@Z 00440156 f i nafxcw:strcore.obj
 0001:0003f277       ??4?$CSimpleStringT@_W$0A@@ATL@@QAEAAV01@PB_W@Z 00440277 f i nafxcw:strcore.obj
 0001:0003f289       ??$SerializeElementsInsertExtract@V?$CStringT@DV?$StrTraitMFC@DV?$ChTraitsCRT@D@ATL@@@@@ATL@@@@YGXAAVCArchive@@PAV?$CStringT@DV?$StrTraitMFC@DV?$ChTraitsCRT@D@ATL@@@@@ATL@@H@Z 00440289 f i nafxcw:strcore.obj
 0001:0003f2cb       ??4?$CStringT@_WV?$StrTraitMFC@_WV?$ChTraitsCRT@_W@ATL@@@@@ATL@@QAEAAV01@PB_W@Z 004402cb f i nafxcw:strcore.obj
 0001:0003f2dd       ??$SerializeElements@V?$CStringT@DV?$StrTraitMFC@DV?$ChTraitsCRT@D@ATL@@@@@ATL@@@@YGXAAVCArchive@@PAV?$CStringT@DV?$StrTraitMFC@DV?$ChTraitsCRT@D@ATL@@@@@ATL@@H@Z 004402dd f   nafxcw:strcore.obj
 0001:0003f2e2       ??$?5_WV?$StrTraitMFC@_WV?$ChTraitsCRT@_W@ATL@@@@@@YGAAVCArchive@@AAV0@AAV?$CStringT@_WV?$StrTraitMFC@_WV?$ChTraitsCRT@_W@ATL@@@@@ATL@@@Z 004402e2 f i nafxcw:strcore.obj
 0001:0003f403       ??$SerializeElementsInsertExtract@V?$CStringT@_WV?$StrTraitMFC@_WV?$ChTraitsCRT@_W@ATL@@@@@ATL@@@@YGXAAVCArchive@@PAV?$CStringT@_WV?$StrTraitMFC@_WV?$ChTraitsCRT@_W@ATL@@@@@ATL@@H@Z 00440403 f i nafxcw:strcore.obj
 0001:0003f445       ??$SerializeElements@V?$CStringT@_WV?$StrTraitMFC@_WV?$ChTraitsCRT@_W@ATL@@@@@ATL@@@@YGXAAVCArchive@@PAV?$CStringT@_WV?$StrTraitMFC@_WV?$ChTraitsCRT@_W@ATL@@@@@ATL@@H@Z 00440445 f   nafxcw:strcore.obj
 0001:0003f454       ?GetRuntimeClass@CObject@@UBEPAUCRuntimeClass@@XZ 00440454 f   nafxcw:objcore.obj
 0001:0003f45a       ?CreateObject@CRuntimeClass@@QAEPAVCObject@@XZ 0044045a f   nafxcw:objcore.obj
 0001:0003f4a0       ?IsSerializable@CObject@@QBEHXZ 004404a0 f   nafxcw:objcore.obj
 0001:0003f4b3       ?IsDerivedFrom@CRuntimeClass@@QBEHPBU1@@Z 004404b3 f   nafxcw:objcore.obj
 0001:0003f4d5       ?AddHead@?$CTypedSimpleList@PAUCRuntimeClass@@@@QAEXPAUCRuntimeClass@@@Z 004404d5 f i nafxcw:objcore.obj
 0001:0003f4da       ?IsKindOf@CObject@@QBEHPBUCRuntimeClass@@@Z 004404da f   nafxcw:objcore.obj
 0001:0003f4e5       ?AfxDynamicDownCast@@YAPAVCObject@@PAUCRuntimeClass@@PAV1@@Z 004404e5 f   nafxcw:objcore.obj
 0001:0003f50b       ?AfxClassInit@@YGXPAUCRuntimeClass@@@Z 0044050b f   nafxcw:objcore.obj
 0001:0003f531       ?UpdateSysColors@AUX_DATA@@QAEXXZ 00440531 f   nafxcw:auxdata.obj
 0001:0003f575       ?UpdateSysMetrics@AUX_DATA@@QAEXXZ 00440575 f   nafxcw:auxdata.obj
 0001:0003f5cf       ?AfxGetThread@@YGPAVCWinThread@@XZ 004405cf f   nafxcw:thrdcore.obj
 0001:0003f5d8       ?AfxGetCurrentMessage@@YGPAUtagMSG@@XZ 004405d8 f   nafxcw:thrdcore.obj
 0001:0003f5e1       ?AfxInternalProcessWndProcException@@YGJPAVCException@@PBUtagMSG@@@Z 004405e1 f   nafxcw:thrdcore.obj
 0001:0003f606       ?AfxProcessWndProcException@@YGJPAVCException@@PBUtagMSG@@@Z 00440606 f   nafxcw:thrdcore.obj
 0001:0003f61c       ?AfxTermThread@@YGXPAUHINSTANCE__@@@Z 0044061c f   nafxcw:thrdcore.obj
 0001:0003f6ca       ?Delete@CWinThread@@UAEXXZ 004406ca f   nafxcw:thrdcore.obj
 0001:0003f6d8       ?InitInstance@CWinThread@@UAEHXZ 004406d8 f   nafxcw:thrdcore.obj
 0001:0003f6db       ?Run@CWinThread@@UAEHXZ    004406db f   nafxcw:thrdcore.obj
 0001:0003f768       ?ExitInstance@CWinThread@@UAEHXZ 00440768 f   nafxcw:thrdcore.obj
 0001:0003f771       ?DispatchThreadMessageEx@CWinThread@@IAEHPAUtagMSG@@@Z 00440771 f   nafxcw:thrdcore.obj
 0001:0003f7e7       ?ProcessWndProcException@CWinThread@@UAEJPAVCException@@PBUtagMSG@@@Z 004407e7 f   nafxcw:thrdcore.obj
 0001:0003f7ec       ?IsHelpKey@@YGHPAUtagMSG@@@Z 004407ec f   nafxcw:thrdcore.obj
 0001:0003f832       ?IsEnterKey@@YAHPAUtagMSG@@@Z 00440832 f i nafxcw:thrdcore.obj
 0001:0003f84c       ?IsButtonUp@@YAHPAUtagMSG@@@Z 0044084c f i nafxcw:thrdcore.obj
 0001:0003f85d       ?AfxInternalPreTranslateMessage@@YAHPAUtagMSG@@@Z 0044085d f   nafxcw:thrdcore.obj
 0001:0003f8c9       ?AfxPreTranslateMessage@@YAHPAUtagMSG@@@Z 004408c9 f   nafxcw:thrdcore.obj
 0001:0003f8e4       ?AfxInternalIsIdleMessage@@YAHPAUtagMSG@@@Z 004408e4 f   nafxcw:thrdcore.obj
 0001:0003f950       ?AfxIsIdleMessage@@YAHPAUtagMSG@@@Z 00440950 f   nafxcw:thrdcore.obj
 0001:0003f96b       ?AfxEndThread@@YGXIH@Z     0044096b f   nafxcw:thrdcore.obj
 0001:0003f9b0       ?IsIdleMessage@CWinThread@@UAEHPAUtagMSG@@@Z 004409b0 f   nafxcw:thrdcore.obj
 0001:0003f9bd       ?DispatchThreadMessage@CWinThread@@IAEXPAUtagMSG@@@Z 004409bd f   nafxcw:thrdcore.obj
 0001:0003f9c2       ?PreTranslateMessage@CWinThread@@UAEHPAUtagMSG@@@Z 004409c2 f   nafxcw:thrdcore.obj
 0001:0003f9cf       ?GetMainWnd@CWinThread@@UAEPAVCWnd@@XZ 004409cf f   nafxcw:thrdcore.obj
 0001:0003f9ea       ?AfxInternalPumpMessage@@YGHXZ 004409ea f   nafxcw:thrdcore.obj
 0001:0003fa2e       ?AfxPumpMessage@@YGHXZ     00440a2e f   nafxcw:thrdcore.obj
 0001:0003fa44       ?_AfxMsgFilterHook@@YGJHIJ@Z 00440a44 f   nafxcw:thrdcore.obj
 0001:0003fa9d       ?ProcessMessageFilter@CWinThread@@UAEHHPAUtagMSG@@@Z 00440a9d f   nafxcw:thrdcore.obj
 0001:0003fbbd       ?PumpMessage@CWinThread@@UAEHXZ 00440bbd f   nafxcw:thrdcore.obj
 0001:0003fbc2       ?AfxInitThread@@YGXXZ      00440bc2 f   nafxcw:thrdcore.obj
 0001:0003fbf0       ?OnIdle@CWinThread@@UAEHJ@Z 00440bf0 f   nafxcw:thrdcore.obj
 0001:0003fcf9       ?_AfxThreadEntry@@YGIPAX@Z 00440cf9 f   nafxcw:thrdcore.obj
 0001:0003fe27       ?CreateThread@CWinThread@@QAEHKIPAU_SECURITY_ATTRIBUTES@@@Z 00440e27 f   nafxcw:thrdcore.obj
 0001:0003ff0a       ?AfxBeginThread@@YGPAVCWinThread@@P6AIPAX@Z0HIKPAU_SECURITY_ATTRIBUTES@@@Z 00440f0a f   nafxcw:thrdcore.obj
 0001:0003ff8c       ?AfxBeginThread@@YGPAVCWinThread@@PAUCRuntimeClass@@HIKPAU_SECURITY_ATTRIBUTES@@@Z 00440f8c f   nafxcw:thrdcore.obj
 0001:0003ffec       ?OnAmbientProperty@CWnd@@UAEHPAVCOleControlSite@@JPAUtagVARIANT@@@Z 00440fec f   nafxcw:winocc.obj
 0001:0003fff4       ?GetControlUnknown@CWnd@@QAEPAUIUnknown@@XZ 00440ff4 f   nafxcw:winocc.obj
 0001:00040000       ?PaintWindowlessControls@CWnd@@QAEHPAVCDC@@@Z 00441000 f   nafxcw:winocc.obj
 0001:00040016       ?GetOleControlSite@CWnd@@QBEPAVCOleControlSite@@I@Z 00441016 f   nafxcw:winocc.obj
 0001:00040029       ?CheckDlgButton@CWnd@@QAEXHI@Z 00441029 f   nafxcw:winocc.obj
 0001:0004004b       ?CheckRadioButton@CWnd@@QAEXHHH@Z 0044104b f   nafxcw:winocc.obj
 0001:00040073       ?GetDlgItem@CWnd@@QBEPAV1@H@Z 00441073 f   nafxcw:winocc.obj
 0001:00040097       ?GetDlgItem@CWnd@@QBEXHPAPAUHWND__@@@Z 00441097 f   nafxcw:winocc.obj
 0001:000400bb       ?GetDlgItemInt@CWnd@@QBEIHPAHH@Z 004410bb f   nafxcw:winocc.obj
 0001:000400e3       ?GetDlgItemTextA@CWnd@@QBEHHPADH@Z 004410e3 f   nafxcw:winocc.obj
 0001:0004010b       ?SendDlgItemMessageA@CWnd@@QAEJHIIJ@Z 0044110b f   nafxcw:winocc.obj
 0001:00040139       ?SetDlgItemInt@CWnd@@QAEXHIH@Z 00441139 f   nafxcw:winocc.obj
 0001:00040164       ?SetDlgItemTextA@CWnd@@QAEXHPBD@Z 00441164 f   nafxcw:winocc.obj
 0001:00040189       ?IsDlgButtonChecked@CWnd@@QBEIH@Z 00441189 f   nafxcw:winocc.obj
 0001:000401aa       ?IsDialogMessageA@CWnd@@QAEHPAUtagMSG@@@Z 004411aa f   nafxcw:winocc.obj
 0001:000401dd       ?GetStyle@CWnd@@QBEKXZ     004411dd f   nafxcw:winocc.obj
 0001:000401f7       ?GetExStyle@CWnd@@QBEKXZ   004411f7 f   nafxcw:winocc.obj
 0001:00040211       ?ModifyStyle@CWnd@@QAEHKKI@Z 00441211 f   nafxcw:winocc.obj
 0001:0004023b       ?ModifyStyleEx@CWnd@@QAEHKKI@Z 0044123b f   nafxcw:winocc.obj
 0001:00040265       ?SetWindowTextA@CWnd@@QAEXPBD@Z 00441265 f   nafxcw:winocc.obj
 0001:00040286       ?GetDlgCtrlID@CWnd@@QBEHXZ 00441286 f   nafxcw:winocc.obj
 0001:000402a1       ?SetDlgCtrlID@CWnd@@QAEHH@Z 004412a1 f   nafxcw:winocc.obj
 0001:000402c4       ?MoveWindow@CWnd@@QAEXHHHHH@Z 004412c4 f   nafxcw:winocc.obj
 0001:00040302       ?ShowWindow@CWnd@@QAEHH@Z  00441302 f   nafxcw:winocc.obj
 0001:00040323       ?IsWindowEnabled@CWnd@@QBEHXZ 00441323 f   nafxcw:winocc.obj
 0001:0004033e       ?EnableWindow@CWnd@@QAEHH@Z 0044133e f   nafxcw:winocc.obj
 0001:0004035f       ?SetFocus@CWnd@@QAEPAV1@XZ 0044135f f   nafxcw:winocc.obj
 0001:00040380       ?InvokeHelper@CWnd@@QAAXJGGPAXPBEZZ 00441380 f   nafxcw:winocc.obj
 0001:000403a9       ?GetProperty@CWnd@@QBEXJGPAX@Z 004413a9 f   nafxcw:winocc.obj
 0001:000403cb       ?SetProperty@CWnd@@QAAXJGZZ 004413cb f   nafxcw:winocc.obj
 0001:000403eb       ?GetDSCCursor@CWnd@@QAEPAUIUnknown@@XZ 004413eb f   nafxcw:winocc.obj
 0001:00040411       ?BindDefaultProperty@CWnd@@QAEXJGPBDPAV1@@Z 00441411 f   nafxcw:winocc.obj
 0001:0004041c       ?BindProperty@CWnd@@QAEXJPAV1@@Z 0044141c f   nafxcw:winocc.obj
 0001:00040427       ?AttachControlSite@CWnd@@QAEXPAV1@I@Z 00441427 f   nafxcw:winocc.obj
 0001:0004044c       ?GetStyle@COleControlSiteOrWnd@@QBEKXZ 0044144c f   nafxcw:winocc.obj
 0001:00040465       ?IsDisabled@CDlgGroupRadioButtonIterator@@SA_NPBUCOleControlSiteOrWnd@@@Z 00441465 f i nafxcw:winocc.obj
 0001:000404a7       ?IsGroup@CDlgGroupRadioButtonIterator@@SA_NPBUCOleControlSiteOrWnd@@@Z 004414a7 f i nafxcw:winocc.obj
 0001:000404b7       ?AttachControlSite@COleControlContainer@@UAEXPAVCWnd@@I@Z 004414b7 f   nafxcw:winocc.obj
 0001:000404f7       ?GetNext@?$_CTypedPtrList@VCPtrList@@PAUCOleControlSiteOrWnd@@@@QAEAAPAUCOleControlSiteOrWnd@@AAPAU__POSITION@@@Z 004414f7 f i nafxcw:winocc.obj
 0001:000404fc       ?GetPrev@?$_CTypedPtrList@VCPtrList@@PAUCOleControlSiteOrWnd@@@@QAEAAPAUCOleControlSiteOrWnd@@AAPAU__POSITION@@@Z 004414fc f i nafxcw:winocc.obj
 0001:00040501       ??0?$CTypedPtrListIterator@VCPtrList@@PAUCOleControlSiteOrWnd@@@@QAE@ABV?$CTypedPtrList@VCPtrList@@PAUCOleControlSiteOrWnd@@@@@Z 00441501 f i nafxcw:winocc.obj
 0001:00040512       ??0?$CTypedPtrListIterator@VCPtrList@@PAUCOleControlSiteOrWnd@@@@QAE@ABV?$CTypedPtrList@VCPtrList@@PAUCOleControlSiteOrWnd@@@@PAU__POSITION@@@Z 00441512 f i nafxcw:winocc.obj
 0001:00040524       ??0?$CTypedPtrListIterator@VCPtrList@@PAUCOleControlSiteOrWnd@@@@QAE@ABV0@@Z 00441524 f i nafxcw:winocc.obj
 0001:00040537       ??4?$CTypedPtrListIterator@VCPtrList@@PAUCOleControlSiteOrWnd@@@@QAEAAV0@ABV0@@Z 00441537 f i nafxcw:winocc.obj
 0001:00040546       ?GetPosition@?$CTypedPtrListIterator@VCPtrList@@PAUCOleControlSiteOrWnd@@@@QBEPAU__POSITION@@XZ 00441546 f i nafxcw:winocc.obj
 0001:0004054a       ?IsEnd@?$CTypedPtrListIterator@VCPtrList@@PAUCOleControlSiteOrWnd@@@@QBE_NXZ 0044154a f i nafxcw:winocc.obj
 0001:00040553       ??7?$CTypedPtrListIterator@VCPtrList@@PAUCOleControlSiteOrWnd@@@@QBE_NXZ 00441553 f i nafxcw:winocc.obj
 0001:0004055c       ?GetNext@?$_CTypedPtrList@VCPtrList@@PAUCOleControlSiteOrWnd@@@@QBEPAUCOleControlSiteOrWnd@@AAPAU__POSITION@@@Z 0044155c f i nafxcw:winocc.obj
 0001:0004056a       ?GetPrev@?$_CTypedPtrList@VCPtrList@@PAUCOleControlSiteOrWnd@@@@QBEPAUCOleControlSiteOrWnd@@AAPAU__POSITION@@@Z 0044156a f i nafxcw:winocc.obj
 0001:00040578       ?GetAt@?$_CTypedPtrList@VCPtrList@@PAUCOleControlSiteOrWnd@@@@QBEPAUCOleControlSiteOrWnd@@PAU__POSITION@@@Z 00441578 f i nafxcw:winocc.obj
 0001:0004058b       ?ScrollWindowEx@CWnd@@QAEHHHPBUtagRECT@@0PAVCRgn@@PAU2@I@Z 0044158b f   nafxcw:winocc.obj
 0001:000405dc       ?SetWindowPos@CWnd@@QAEHPBV1@HHHHI@Z 004415dc f   nafxcw:winocc.obj
 0001:00040618       ?AttachControlSite@CWnd@@IAEXPAVCHandleMap@@@Z 00441618 f   nafxcw:winocc.obj
 0001:00040659       ?GetNextDlgTabItem@CWnd@@QBEPAUCOleControlSiteOrWnd@@PAU2@H@Z 00441659 f   nafxcw:winocc.obj
 0001:00040781       ??0CDlgControlIterator@@QAE@ABVCOleControlContainer@@@Z 00441781 f i nafxcw:winocc.obj
 0001:00040795       ??0CDlgControlIterator@@QAE@ABVCOleControlContainer@@PAU__POSITION@@@Z 00441795 f i nafxcw:winocc.obj
 0001:000407aa       ??0CDlgControlIterator@@QAE@ABV0@@Z 004417aa f i nafxcw:winocc.obj
 0001:000407bd       ??0CDlgControlIterator@@IAE@ABV?$CTypedPtrListIterator@VCPtrList@@PAUCOleControlSiteOrWnd@@@@@Z 004417bd f i nafxcw:winocc.obj
 0001:000407d0       ??0CDlgGroupRadioButtonIterator@@QAE@AAVCOleControlContainer@@PAU__POSITION@@@Z 004417d0 f i nafxcw:winocc.obj
 0001:000407e5       ?IsEnd@CDlgGroupRadioButtonIterator@@QBE_NXZ 004417e5 f i nafxcw:winocc.obj
 0001:000407ee       ??4CDlgControlIterator@@QAEAAV0@ABV0@@Z 004417ee f i nafxcw:winocc.obj
 0001:000407fd       ?RemoveRadioCheckFromGroup@CWnd@@QBEXPBUCOleControlSiteOrWnd@@@Z 004417fd f   nafxcw:winocc.obj
 0001:0004090d       ?MoveNext@?$CTypedPtrListIterator@VCPtrList@@PAUCOleControlSiteOrWnd@@@@QAEXXZ 0044190d f i nafxcw:winocc.obj
 0001:0004091e       ?MovePrev@?$CTypedPtrListIterator@VCPtrList@@PAUCOleControlSiteOrWnd@@@@QAEXXZ 0044191e f i nafxcw:winocc.obj
 0001:0004092f       ?Skip@?$CTypedPtrListIterator@VCPtrList@@PAUCOleControlSiteOrWnd@@@@QBE?AV1@H@Z 0044192f f i nafxcw:winocc.obj
 0001:00040974       ??D?$CTypedPtrListIterator@VCPtrList@@PAUCOleControlSiteOrWnd@@@@QAEPAUCOleControlSiteOrWnd@@XZ 00441974 f i nafxcw:winocc.obj
 0001:00040984       ??D?$CTypedPtrListIterator@VCPtrList@@PAUCOleControlSiteOrWnd@@@@QBEQAUCOleControlSiteOrWnd@@XZ 00441984 f i nafxcw:winocc.obj
 0001:00040994       ?Skip@CDlgControlIterator@@QBE?AV1@H@Z 00441994 f i nafxcw:winocc.obj
 0001:000409b8       ??BCDlgGroupRadioButtonIterator@@QBEPAUCOleControlSiteOrWnd@@XZ 004419b8 f i nafxcw:winocc.obj
 0001:000409c8       ?GetFirstButton@CDlgGroupRadioButtonIterator@@QBE?AVCDlgControlIterator@@XZ 004419c8 f i nafxcw:winocc.obj
 0001:00040a32       ?GetLastButton@CDlgGroupRadioButtonIterator@@QBE?AVCDlgControlIterator@@XZ 00441a32 f i nafxcw:winocc.obj
 0001:00040b4a       ?GetWindowTextA@CWnd@@QBEHPADH@Z 00441b4a f   nafxcw:winocc.obj
 0001:00040bca       ?GetWindowTextLengthA@CWnd@@QBEHXZ 00441bca f   nafxcw:winocc.obj
 0001:00040c2b       ?MoveNext@CDlgGroupRadioButtonIterator@@QAEXXZ 00441c2b f i nafxcw:winocc.obj
 0001:00040c98       ?MovePrev@CDlgGroupRadioButtonIterator@@QAEXXZ 00441c98 f i nafxcw:winocc.obj
 0001:00040d07       ?GetPrevDlgGroupItem@CWnd@@QBEPAUCOleControlSiteOrWnd@@PAU2@@Z 00441d07 f   nafxcw:winocc.obj
 0001:00040d58       ?GetNextDlgGroupItem@CWnd@@QBEPAUCOleControlSiteOrWnd@@PAU2@@Z 00441d58 f   nafxcw:winocc.obj
 0001:00040da9       ??0CCmdTarget@@QAE@XZ      00441da9 f   nafxcw:cmdtarg.obj
 0001:00040dc3       ??1CCmdTarget@@UAE@XZ      00441dc3 f   nafxcw:cmdtarg.obj
 0001:00040dd0       ?_AfxDispatchCmdMsg@@YGHPAVCCmdTarget@@IHP81@AEXXZPAXIPAUAFX_CMDHANDLERINFO@@@Z 00441dd0 f   nafxcw:cmdtarg.obj
 0001:00040ee8       ?OnCmdMsg@CCmdTarget@@UAEHIHPAXPAUAFX_CMDHANDLERINFO@@@Z 00441ee8 f   nafxcw:cmdtarg.obj
 0001:00040ff4       ?IsInvokeAllowed@CCmdTarget@@UAEHJ@Z 00441ff4 f   nafxcw:cmdtarg.obj
 0001:00040ffa       ?GetDispatchIID@CCmdTarget@@UAEHPAU_GUID@@@Z 00441ffa f   nafxcw:cmdtarg.obj
 0001:00040fff       ?GetTypeInfoCount@CCmdTarget@@UAEIXZ 00441fff f   nafxcw:cmdtarg.obj
 0001:00041002       ?GetTypeLibCache@CCmdTarget@@UAEPAVCTypeLibCache@@XZ 00442002 f   nafxcw:cmdtarg.obj
 0001:00041005       ?GetTypeLib@CCmdTarget@@UAEJKPAPAUITypeLib@@@Z 00442005 f   nafxcw:cmdtarg.obj
 0001:0004100d       ?GetMessageMap@CCmdTarget@@MBEPBUAFX_MSGMAP@@XZ 0044200d f   nafxcw:cmdtarg.obj
 0001:00041013       ?GetDispatchMap@CCmdTarget@@MBEPBUAFX_DISPMAP@@XZ 00442013 f   nafxcw:cmdtarg.obj
 0001:00041019       ?GetEventSinkMap@CCmdTarget@@MBEPBUAFX_EVENTSINKMAP@@XZ 00442019 f   nafxcw:cmdtarg.obj
 0001:0004101f       ?GetInterfaceMap@CCmdTarget@@MBEPBUAFX_INTERFACEMAP@@XZ 0044201f f   nafxcw:cmdtarg.obj
 0001:00041025       ?OnFinalRelease@CCmdTarget@@UAEXXZ 00442025 f   nafxcw:cmdtarg.obj
 0001:00041053       ?OnCreateAggregates@CCmdTarget@@UAEHXZ 00442053 f   nafxcw:cmdtarg.obj
 0001:00041057       ?GetInterfaceHook@CCmdTarget@@UAEPAUIUnknown@@PBX@Z 00442057 f   nafxcw:cmdtarg.obj
 0001:0004105c       ?GetConnectionMap@CCmdTarget@@MBEPBUAFX_CONNECTIONMAP@@XZ 0044205c f   nafxcw:cmdtarg.obj
 0001:00041062       ?GetConnectionHook@CCmdTarget@@MAEPAUIConnectionPoint@@ABU_GUID@@@Z 00442062 f   nafxcw:cmdtarg.obj
 0001:00041067       ?GetExtraConnectionPoints@CCmdTarget@@MAEHPAVCPtrArray@@@Z 00442067 f   nafxcw:cmdtarg.obj
 0001:0004106c       ?GetCommandMap@CCmdTarget@@MBEPBUAFX_OLECMDMAP@@XZ 0044206c f   nafxcw:cmdtarg.obj
 0001:00041072       ?GetRoutingView@CCmdTarget@@IAEPAVCView@@XZ 00442072 f   nafxcw:cmdtarg.obj
 0001:00041077       ?GetRoutingFrame@CCmdTarget@@IAEPAVCFrameWnd@@XZ 00442077 f   nafxcw:cmdtarg.obj
 0001:0004107c       ??0CCmdUI@@QAE@XZ          0044207c f   nafxcw:cmdtarg.obj
 0001:000410a2       ?DoUpdate@CCmdUI@@QAEHPAVCCmdTarget@@H@Z 004420a2 f   nafxcw:cmdtarg.obj
 0001:00041103       ?BeginWaitCursor@CCmdTarget@@QAEXXZ 00442103 f   nafxcw:cmdtarg.obj
 0001:00041118       ?EndWaitCursor@CCmdTarget@@QAEXXZ 00442118 f   nafxcw:cmdtarg.obj
 0001:0004112d       ?RestoreWaitCursor@CCmdTarget@@QAEXXZ 0044212d f   nafxcw:cmdtarg.obj
 0001:00041142       ?Enable@CCmdUI@@UAEXH@Z    00442142 f   nafxcw:cmdtarg.obj
 0001:000411c1       ?SetCheck@CCmdUI@@UAEXH@Z  004421c1 f   nafxcw:cmdtarg.obj
 0001:00041226       ?SetRadio@CCmdUI@@UAEXH@Z  00442226 f   nafxcw:cmdtarg.obj
 0001:0004127c       ?SetText@CCmdUI@@UAEXPBD@Z 0044227c f   nafxcw:cmdtarg.obj
 0001:000412d0       ?AfxLockTempMaps@@YGXXZ    004422d0 f   nafxcw:winhand.obj
 0001:000412d9       ??0CHandleMap@@QAE@PAUCRuntimeClass@@P6GXPAVCObject@@@Z2IH@Z 004422d9 f   nafxcw:winhand.obj
 0001:0004135d       ?GetDataNA@?$CThreadLocal@V_AFX_THREAD_STATE@@@@QAEPAV_AFX_THREAD_STATE@@XZ 0044235d f i nafxcw:winhand.obj
 0001:00041362       ?FromHandle@CHandleMap@@QAEPAVCObject@@PAX@Z 00442362 f   nafxcw:winhand.obj
 0001:00041424       ?DeleteTemp@CHandleMap@@QAEXXZ 00442424 f   nafxcw:winhand.obj
 0001:00041487       ?DeleteTempMap@CWnd@@SGXXZ 00442487 f   nafxcw:winhand.obj
 0001:00041494       ?DeleteTempMap@CImageList@@SGXXZ 00442494 f   nafxcw:winhand.obj
 0001:000414a1       ?DeleteTempMap@CDC@@SGXXZ  004424a1 f   nafxcw:winhand.obj
 0001:000414ae       ?DeleteTempMap@CGdiObject@@SGXXZ 004424ae f   nafxcw:winhand.obj
 0001:000414bb       ?DeleteTempMap@CMenu@@SGXXZ 004424bb f   nafxcw:winhand.obj
 0001:000414c8       ?AfxUnlockTempMaps@@YGHH@Z 004424c8 f   nafxcw:winhand.obj
 0001:000415c1       ??1?$CProcessLocal@V_AFX_HTMLHELP_STATE@@@@QAE@XZ 004425c1 f i nafxcw:wincore.obj
 0001:000415c6       ??0XAccessible@CWnd@@QAE@XZ 004425c6 f i nafxcw:wincore.obj
 0001:000415cf       ??0XAccessibleServer@CWnd@@QAE@XZ 004425cf f i nafxcw:wincore.obj
 0001:000415d8       ??0CWnd@@AAE@PAUHWND__@@@Z 004425d8 f   nafxcw:wincore.obj
 0001:0004161e       ?_AfxModifyStyle@@YGHPAUHWND__@@HKKI@Z 0044261e f   nafxcw:wincore.obj
 0001:0004166e       ?ModifyStyle@CWnd@@SGHPAUHWND__@@KKI@Z 0044266e f   nafxcw:wincore.obj
 0001:00041688       ?ModifyStyleEx@CWnd@@SGHPAUHWND__@@KKI@Z 00442688 f   nafxcw:wincore.obj
 0001:000416a2       ?PreSubclassWindow@CWnd@@UAEXXZ 004426a2 f   nafxcw:wincore.obj
 0001:000416a3       ?PostNcDestroy@CWnd@@MAEXXZ 004426a3 f   nafxcw:wincore.obj
 0001:000416a4       ?OnFinalRelease@CWnd@@UAEXXZ 004426a4 f   nafxcw:wincore.obj
 0001:000416b5       ?DefWindowProcA@CWnd@@MAEJIIJ@Z 004426b5 f   nafxcw:wincore.obj
 0001:000416fc       ?GetSuperWndProcAddr@CWnd@@MAEPAP6GJPAUHWND__@@IIJ@ZXZ 004426fc f   nafxcw:wincore.obj
 0001:00041700       ?PreTranslateMessage@CWnd@@UAEHPAUtagMSG@@@Z 00442700 f   nafxcw:wincore.obj
 0001:0004171f       ?OnToolHitTest@CWnd@@UBEHVCPoint@@PAUtagTOOLINFOA@@@Z 0044271f f   nafxcw:wincore.obj
 0001:00041790       ?GetWindowPlacement@CWnd@@QBEHPAUtagWINDOWPLACEMENT@@@Z 00442790 f   nafxcw:wincore.obj
 0001:000417a7       ?SetWindowPlacement@CWnd@@QAEHPBUtagWINDOWPLACEMENT@@@Z 004427a7 f   nafxcw:wincore.obj
 0001:000417be       ?AfxRegisterClass@@YGHPAUtagWNDCLASSA@@@Z 004427be f   nafxcw:wincore.obj
 0001:000418c0       ??1_AFX_HTMLHELP_STATE@@UAE@XZ 004428c0 f   nafxcw:wincore.obj
 0001:000418d5       ??_G_AFX_HTMLHELP_STATE@@UAEPAXI@Z 004428d5 f i nafxcw:wincore.obj
 0001:000418d5       ??_E_AFX_HTMLHELP_STATE@@UAEPAXI@Z 004428d5 f i nafxcw:wincore.obj
 0001:000418f0       ?GetMessageMap@CWnd@@MBEPBUAFX_MSGMAP@@XZ 004428f0 f   nafxcw:wincore.obj
 0001:000418f6       ?AfxFindMessageEntry@@YGPBUAFX_MSGMAP_ENTRY@@PBU1@III@Z 004428f6 f   nafxcw:wincore.obj
 0001:00041936       ?AfxResetMsgCache@@YGXXZ   00442936 f   nafxcw:wincore.obj
 0001:0004194b       ?WindowProc@CWnd@@MAEJIIJ@Z 0044294b f   nafxcw:wincore.obj
 0001:0004198f       ??0CTestCmdUI@@QAE@XZ      0044298f f   nafxcw:wincore.obj
 0001:000419a8       ?Enable@CTestCmdUI@@UAEXH@Z 004429a8 f   nafxcw:wincore.obj
 0001:000419b9       ?SetCheck@CTestCmdUI@@UAEXH@Z 004429b9 f   nafxcw:wincore.obj
 0001:000419bc       ?SetRadio@CTestCmdUI@@UAEXH@Z 004429bc f   nafxcw:wincore.obj
 0001:000419bf       ?SetText@CTestCmdUI@@UAEXPBD@Z 004429bf f   nafxcw:wincore.obj
 0001:000419c2       ?GetScrollBarCtrl@CWnd@@UBEPAVCScrollBar@@H@Z 004429c2 f   nafxcw:wincore.obj
 0001:000419c7       ?SetScrollInfo@CWnd@@QAEHHPAUtagSCROLLINFO@@H@Z 004429c7 f   nafxcw:wincore.obj
 0001:00041a04       ?GetScrollInfo@CWnd@@QAEHHPAUtagSCROLLINFO@@I@Z 00442a04 f   nafxcw:wincore.obj
 0001:00041a41       ?AfxRepositionWindow@@YGXPAUAFX_SIZEPARENTPARAMS@@PAUHWND__@@PBUtagRECT@@@Z 00442a41 f   nafxcw:wincore.obj
 0001:00041acd       ?CalcWindowRect@CWnd@@UAEXPAUtagRECT@@I@Z 00442acd f   nafxcw:wincore.obj
 0001:00041afa       ?GetInterfaceMap@CWnd@@MBEPBUAFX_INTERFACEMAP@@XZ 00442afa f   nafxcw:wincore.obj
 0001:00041b00       ?AddRef@XAccessible@CWnd@@UAGKXZ 00442b00 f   nafxcw:wincore.obj
 0001:00041b0f       ?Release@XAccessible@CWnd@@UAGKXZ 00442b0f f   nafxcw:wincore.obj
 0001:00041b1e       ?QueryInterface@XAccessible@CWnd@@UAGJABU_GUID@@PAPAX@Z 00442b1e f   nafxcw:wincore.obj
 0001:00041b35       ?Invoke@XAccessible@CWnd@@UAGJJABU_GUID@@KGPAUtagDISPPARAMS@@PAUtagVARIANT@@PAUtagEXCEPINFO@@PAI@Z 00442b35 f   nafxcw:wincore.obj
 0001:00041b3e       ?GetIDsOfNames@XAccessible@CWnd@@UAGJABU_GUID@@PAPA_WIKPAJ@Z 00442b3e f   nafxcw:wincore.obj
 0001:00041b59       ?GetTypeInfoCount@XAccessible@CWnd@@UAGJPAI@Z 00442b59 f   nafxcw:wincore.obj
 0001:00041b73       ?GetTypeInfo@XAccessible@CWnd@@UAGJIKPAPAUITypeInfo@@@Z 00442b73 f   nafxcw:wincore.obj
 0001:00041b7b       ?get_accParent@XAccessible@CWnd@@UAGJPAPAUIDispatch@@@Z 00442b7b f   nafxcw:wincore.obj
 0001:00041b91       ?get_accChildCount@XAccessible@CWnd@@UAGJPAJ@Z 00442b91 f   nafxcw:wincore.obj
 0001:00041ba7       ?get_accChild@XAccessible@CWnd@@UAGJUtagVARIANT@@PAPAUIDispatch@@@Z 00442ba7 f   nafxcw:wincore.obj
 0001:00041bce       ?get_accName@XAccessible@CWnd@@UAGJUtagVARIANT@@PAPA_W@Z 00442bce f   nafxcw:wincore.obj
 0001:00041bf5       ?get_accValue@XAccessible@CWnd@@UAGJUtagVARIANT@@PAPA_W@Z 00442bf5 f   nafxcw:wincore.obj
 0001:00041c1c       ?get_accDescription@XAccessible@CWnd@@UAGJUtagVARIANT@@PAPA_W@Z 00442c1c f   nafxcw:wincore.obj
 0001:00041c43       ?get_accRole@XAccessible@CWnd@@UAGJUtagVARIANT@@PAU3@@Z 00442c43 f   nafxcw:wincore.obj
