; Listing generated by Microsoft (R) Optimizing Compiler Version 13.10.6030 

	TITLE	\Documents and Settings\test\Mes documents\Source\Virtuos_v17\Build\Program\_Network\Misc\Src\ar.cpp
	.386P
include listing.inc
if @Version gt 510
.model FLAT
else
_TEXT	SEGMENT PARA USE32 PUBLIC 'CODE'
_TEXT	ENDS
_DATA	SEGMENT DWORD USE32 PUBLIC 'DATA'
_DATA	ENDS
CONST	SEGMENT DWORD USE32 PUBLIC 'CONST'
CONST	ENDS
_BSS	SEGMENT DWORD USE32 PUBLIC 'BSS'
_BSS	ENDS
$$SYMBOLS	SEGMENT BYTE USE32 'DEBSYM'
$$SYMBOLS	ENDS
_TLS	SEGMENT DWORD USE32 PUBLIC 'TLS'
_TLS	ENDS
text$yc	SEGMENT PARA USE32 PUBLIC 'CODE'
text$yc	ENDS
CRT$XCA	SEGMENT DWORD USE32 PUBLIC 'DATA'
CRT$XCA	ENDS
CRT$XCU	SEGMENT DWORD USE32 PUBLIC 'DATA'
CRT$XCU	ENDS
CRT$XCL	SEGMENT DWORD USE32 PUBLIC 'DATA'
CRT$XCL	ENDS
CRT$XCC	SEGMENT DWORD USE32 PUBLIC 'DATA'
CRT$XCC	ENDS
CRT$XCZ	SEGMENT DWORD USE32 PUBLIC 'DATA'
CRT$XCZ	ENDS
xdata$x	SEGMENT DWORD USE32 PUBLIC 'CONST'
xdata$x	ENDS
;	COMDAT _$E1
text$yc	SEGMENT PARA USE32 PUBLIC 'CODE'
text$yc	ENDS
;	COMDAT ??0CAr@@QAE@PAXI@Z
_TEXT	SEGMENT PARA USE32 PUBLIC 'CODE'
_TEXT	ENDS
;	COMDAT ??1CAr@@QAE@XZ
_TEXT	SEGMENT PARA USE32 PUBLIC 'CODE'
_TEXT	ENDS
;	COMDAT ?Read@CAr@@QAEXPAXI@Z
_TEXT	SEGMENT PARA USE32 PUBLIC 'CODE'
_TEXT	ENDS
;	COMDAT ?Write@CAr@@QAEXPBXI@Z
_TEXT	SEGMENT PARA USE32 PUBLIC 'CODE'
_TEXT	ENDS
;	COMDAT ?WriteString@CAr@@QAEXPBD@Z
_TEXT	SEGMENT PARA USE32 PUBLIC 'CODE'
_TEXT	ENDS
;	COMDAT ?ReadString@CAr@@QAEPADPAD@Z
_TEXT	SEGMENT PARA USE32 PUBLIC 'CODE'
_TEXT	ENDS
;	COMDAT ?ReadString@CAr@@QAEPADPADH@Z
_TEXT	SEGMENT PARA USE32 PUBLIC 'CODE'
_TEXT	ENDS
;	COMDAT ?Reserve@CAr@@QAEXI@Z
_TEXT	SEGMENT PARA USE32 PUBLIC 'CODE'
_TEXT	ENDS
;	COMDAT ?CheckBuf@CAr@@QAEXI@Z
_TEXT	SEGMENT PARA USE32 PUBLIC 'CODE'
_TEXT	ENDS
;	COMDAT ?GetBuffer@CAr@@QAEPAEPAH@Z
_TEXT	SEGMENT PARA USE32 PUBLIC 'CODE'
_TEXT	ENDS
;	COMDAT ?Flush@CAr@@QAEXXZ
_TEXT	SEGMENT PARA USE32 PUBLIC 'CODE'
_TEXT	ENDS
;	COMDAT ?ReelIn@CAr@@QAEXI@Z
_TEXT	SEGMENT PARA USE32 PUBLIC 'CODE'
_TEXT	ENDS
;	COMDAT ?compare@?$basic_string@DU?$char_traits@D@std@@V?$allocator@D@2@@std@@QBEHABV12@@Z
_TEXT	SEGMENT PARA USE32 PUBLIC 'CODE'
_TEXT	ENDS
;	COMDAT ?compare@?$basic_string@DU?$char_traits@D@std@@V?$allocator@D@2@@std@@QBEHIIPBDI@Z
_TEXT	SEGMENT PARA USE32 PUBLIC 'CODE'
_TEXT	ENDS
;	COMDAT ??$_Iter_cat@Viterator@?$_Tree@V?$_Tmap_traits@KU_Friend@@U?$less@K@std@@V?$allocator@U?$pair@$$CBKU_Friend@@@std@@@3@$0A@@std@@@std@@@std@@YA?AUbidirectional_iterator_tag@0@ABViterator@?$_Tree@V?$_Tmap_traits@KU_Friend@@U?$less@K@std@@V?$allocator@U?$pair@$$CBKU_Friend@@@std@@@3@$0A@@std@@@0@@Z
_TEXT	SEGMENT PARA USE32 PUBLIC 'CODE'
_TEXT	ENDS
;	COMDAT ??$_Distance2@Viterator@?$_Tree@V?$_Tmap_traits@KU_Friend@@U?$less@K@std@@V?$allocator@U?$pair@$$CBKU_Friend@@@std@@@3@$0A@@std@@@std@@I@std@@YAXViterator@?$_Tree@V?$_Tmap_traits@KU_Friend@@U?$less@K@std@@V?$allocator@U?$pair@$$CBKU_Friend@@@std@@@3@$0A@@std@@@0@0AAIUbidirectional_iterator_tag@0@@Z
_TEXT	SEGMENT PARA USE32 PUBLIC 'CODE'
_TEXT	ENDS
;	COMDAT ??$_Copy_opt@PAJPAJ@std@@YAPAJPAJ00U_Scalar_ptr_iterator_tag@0@@Z
_TEXT	SEGMENT PARA USE32 PUBLIC 'CODE'
_TEXT	ENDS
;	COMDAT ??$_Uninitialized_copy@PAJPAJV?$allocator@J@std@@@std@@YAPAJPAJ00AAV?$allocator@J@0@@Z
_TEXT	SEGMENT PARA USE32 PUBLIC 'CODE'
_TEXT	ENDS
;	COMDAT ??$_Copy_backward_opt@PAJPAJ@std@@YAPAJPAJ00U_Scalar_ptr_iterator_tag@0@@Z
_TEXT	SEGMENT PARA USE32 PUBLIC 'CODE'
_TEXT	ENDS
;	COMDAT ??$_Ptr_cat@PAUtagDROPITEM@@PAU1@@std@@YA?AU_Nonscalar_ptr_iterator_tag@0@AAPAUtagDROPITEM@@0@Z
_TEXT	SEGMENT PARA USE32 PUBLIC 'CODE'
_TEXT	ENDS
;	COMDAT ??$_Destroy_range@UtagDROPITEM@@V?$allocator@UtagDROPITEM@@@std@@@std@@YAXPAUtagDROPITEM@@0AAV?$allocator@UtagDROPITEM@@@0@U_Nonscalar_ptr_iterator_tag@0@@Z
_TEXT	SEGMENT PARA USE32 PUBLIC 'CODE'
_TEXT	ENDS
;	COMDAT ??$_Destroy_range@KV?$allocator@K@std@@@std@@YAXPAK0AAV?$allocator@K@0@U_Scalar_ptr_iterator_tag@0@@Z
_TEXT	SEGMENT PARA USE32 PUBLIC 'CODE'
_TEXT	ENDS
;	COMDAT ??$_Destroy_range@JV?$allocator@J@std@@@std@@YAXPAJ0AAV?$allocator@J@0@U_Scalar_ptr_iterator_tag@0@@Z
_TEXT	SEGMENT PARA USE32 PUBLIC 'CODE'
_TEXT	ENDS
;	COMDAT ??$_Uninit_fill_n@JIJ@std@@YAXPAJIABJAAV?$allocator@J@0@U_Scalar_ptr_iterator_tag@0@@Z
_TEXT	SEGMENT PARA USE32 PUBLIC 'CODE'
_TEXT	ENDS
;	COMDAT ?destroy@?$allocator@UtagDROPITEM@@@std@@QAEXPAUtagDROPITEM@@@Z
_TEXT	SEGMENT PARA USE32 PUBLIC 'CODE'
_TEXT	ENDS
;	COMDAT ??$_Uninit_copy@JJ@std@@YAPAJPAJ00AAV?$allocator@J@0@U_Scalar_ptr_iterator_tag@0@@Z
_TEXT	SEGMENT PARA USE32 PUBLIC 'CODE'
_TEXT	ENDS
;	COMDAT ??$fill_n@PAJIJ@std@@YAXPAJIABJ@Z
_TEXT	SEGMENT PARA USE32 PUBLIC 'CODE'
_TEXT	ENDS
;	COMDAT ??$_Destroy@UtagDROPITEM@@@std@@YAXPAUtagDROPITEM@@@Z
_TEXT	SEGMENT PARA USE32 PUBLIC 'CODE'
_TEXT	ENDS
;	COMDAT ?_Ptr_cat@std@@YA?AU_Scalar_ptr_iterator_tag@1@PAJ0@Z
_TEXT	SEGMENT PARA USE32 PUBLIC 'CODE'
_TEXT	ENDS
;	COMDAT ??9const_iterator@?$_Tree@V?$_Tmap_traits@KU_Friend@@U?$less@K@std@@V?$allocator@U?$pair@$$CBKU_Friend@@@std@@@3@$0A@@std@@@std@@QBE_NABV012@@Z
_TEXT	SEGMENT PARA USE32 PUBLIC 'CODE'
_TEXT	ENDS
;	COMDAT ??8const_iterator@?$_Tree@V?$_Tmap_traits@KU_Friend@@U?$less@K@std@@V?$allocator@U?$pair@$$CBKU_Friend@@@std@@@3@$0A@@std@@@std@@QBE_NABV012@@Z
_TEXT	SEGMENT PARA USE32 PUBLIC 'CODE'
_TEXT	ENDS
;	COMDAT ??Eiterator@?$_Tree@V?$_Tmap_traits@KU_Friend@@U?$less@K@std@@V?$allocator@U?$pair@$$CBKU_Friend@@@std@@@3@$0A@@std@@@std@@QAEAAV012@XZ
_TEXT	SEGMENT PARA USE32 PUBLIC 'CODE'
_TEXT	ENDS
;	COMDAT ??Econst_iterator@?$_Tree@V?$_Tmap_traits@KU_Friend@@U?$less@K@std@@V?$allocator@U?$pair@$$CBKU_Friend@@@std@@@3@$0A@@std@@@std@@QAEAAV012@XZ
_TEXT	SEGMENT PARA USE32 PUBLIC 'CODE'
_TEXT	ENDS
;	COMDAT ?_Inc@const_iterator@?$_Tree@V?$_Tmap_traits@KU_Friend@@U?$less@K@std@@V?$allocator@U?$pair@$$CBKU_Friend@@@std@@@3@$0A@@std@@@std@@QAEXXZ
_TEXT	SEGMENT PARA USE32 PUBLIC 'CODE'
_TEXT	ENDS
;	COMDAT ?_Min@?$_Tree@V?$_Tmap_traits@KU_Friend@@U?$less@K@std@@V?$allocator@U?$pair@$$CBKU_Friend@@@std@@@3@$0A@@std@@@std@@KAPAU_Node@?$_Tree_nod@V?$_Tmap_traits@KU_Friend@@U?$less@K@std@@V?$allocator@U?$pair@$$CBKU_Friend@@@std@@@3@$0A@@std@@@2@PAU342@@Z
_TEXT	SEGMENT PARA USE32 PUBLIC 'CODE'
_TEXT	ENDS
;	COMDAT ?_Left@?$_Tree@V?$_Tmap_traits@KU_Friend@@U?$less@K@std@@V?$allocator@U?$pair@$$CBKU_Friend@@@std@@@3@$0A@@std@@@std@@KAAAPAU_Node@?$_Tree_nod@V?$_Tmap_traits@KU_Friend@@U?$less@K@std@@V?$allocator@U?$pair@$$CBKU_Friend@@@std@@@3@$0A@@std@@@2@PAU342@@Z
_TEXT	SEGMENT PARA USE32 PUBLIC 'CODE'
_TEXT	ENDS
;	COMDAT ?_Isnil@?$_Tree@V?$_Tmap_traits@KU_Friend@@U?$less@K@std@@V?$allocator@U?$pair@$$CBKU_Friend@@@std@@@3@$0A@@std@@@std@@KAAADPAU_Node@?$_Tree_nod@V?$_Tmap_traits@KU_Friend@@U?$less@K@std@@V?$allocator@U?$pair@$$CBKU_Friend@@@std@@@3@$0A@@std@@@2@@Z
_TEXT	SEGMENT PARA USE32 PUBLIC 'CODE'
_TEXT	ENDS
;	COMDAT ?_Parent@?$_Tree@V?$_Tmap_traits@KU_Friend@@U?$less@K@std@@V?$allocator@U?$pair@$$CBKU_Friend@@@std@@@3@$0A@@std@@@std@@KAAAPAU_Node@?$_Tree_nod@V?$_Tmap_traits@KU_Friend@@U?$less@K@std@@V?$allocator@U?$pair@$$CBKU_Friend@@@std@@@3@$0A@@std@@@2@PAU342@@Z
_TEXT	SEGMENT PARA USE32 PUBLIC 'CODE'
_TEXT	ENDS
;	COMDAT ?_Right@?$_Tree@V?$_Tmap_traits@KU_Friend@@U?$less@K@std@@V?$allocator@U?$pair@$$CBKU_Friend@@@std@@@3@$0A@@std@@@std@@KAAAPAU_Node@?$_Tree_nod@V?$_Tmap_traits@KU_Friend@@U?$less@K@std@@V?$allocator@U?$pair@$$CBKU_Friend@@@std@@@3@$0A@@std@@@2@PAU342@@Z
_TEXT	SEGMENT PARA USE32 PUBLIC 'CODE'
_TEXT	ENDS
;	COMDAT ?_Psave@?$_Facetptr@V?$ctype@G@std@@@std@@2PBVfacet@locale@2@B
_DATA	SEGMENT DWORD USE32 PUBLIC 'DATA'
_DATA	ENDS
;	COMDAT ?_Psave@?$_Facetptr@V?$ctype@D@std@@@std@@2PBVfacet@locale@2@B
_DATA	SEGMENT DWORD USE32 PUBLIC 'DATA'
_DATA	ENDS
;	COMDAT ?compare@?$char_traits@D@std@@SAHPBD0I@Z
_TEXT	SEGMENT PARA USE32 PUBLIC 'CODE'
_TEXT	ENDS
;	COMDAT ?_Myptr@?$basic_string@DU?$char_traits@D@std@@V?$allocator@D@2@@std@@QBEPBDXZ
_TEXT	SEGMENT PARA USE32 PUBLIC 'CODE'
_TEXT	ENDS
;	COMDAT ?size@?$basic_string@DU?$char_traits@D@std@@V?$allocator@D@2@@std@@QBEIXZ
_TEXT	SEGMENT PARA USE32 PUBLIC 'CODE'
_TEXT	ENDS
;	COMDAT ??5CAr@@QAEAAV0@AAH@Z
_TEXT	SEGMENT PARA USE32 PUBLIC 'CODE'
_TEXT	ENDS
;	COMDAT ??5CAr@@QAEAAV0@AAJ@Z
_TEXT	SEGMENT PARA USE32 PUBLIC 'CODE'
_TEXT	ENDS
;	COMDAT ??6CAr@@QAEAAV0@H@Z
_TEXT	SEGMENT PARA USE32 PUBLIC 'CODE'
_TEXT	ENDS
;	COMDAT ??6CAr@@QAEAAV0@J@Z
_TEXT	SEGMENT PARA USE32 PUBLIC 'CODE'
_TEXT	ENDS
;	COMDAT ?IsStoring@CAr@@QBEHXZ
_TEXT	SEGMENT PARA USE32 PUBLIC 'CODE'
_TEXT	ENDS
sxdata	SEGMENT DWORD USE32 'SXDATA'
sxdata	ENDS
FLAT	GROUP _DATA, CONST, _BSS
	ASSUME	CS: FLAT, DS: FLAT, SS: FLAT
endif

INCLUDELIB LIBCMT
INCLUDELIB OLDNAMES

PUBLIC	??0CAr@@QAE@PAXI@Z				; CAr::CAr
; Function compile flags: /Ogty
; File c:\documents and settings\test\mes documents\source\virtuos_v17\build\program\_network\misc\src\ar.cpp
;	COMDAT ??0CAr@@QAE@PAXI@Z
_TEXT	SEGMENT
_lpBuf$ = 8						; size = 4
_nBufSize$ = 12						; size = 4
??0CAr@@QAE@PAXI@Z PROC NEAR				; CAr::CAr, COMDAT
; _this$ = ecx

; 17   : {

  00000	8b c1		 mov	 eax, ecx

; 18   : 	if( lpBuf )

  00002	8b 4c 24 04	 mov	 ecx, DWORD PTR _lpBuf$[esp-4]
  00006	85 c9		 test	 ecx, ecx
  00008	74 1e		 je	 SHORT $L186716

; 19   : 	{
; 20   : 		m_nMode		= load;
; 21   : 		m_lpBufStart	= (LPBYTE)lpBuf;

  0000a	89 48 10	 mov	 DWORD PTR [eax+16], ecx

; 22   : 		m_nBufSize	= nBufSize;

  0000d	8b 4c 24 08	 mov	 ecx, DWORD PTR _nBufSize$[esp-4]
  00011	89 48 04	 mov	 DWORD PTR [eax+4], ecx

; 28   : 		m_nBufSize	= nGrowSize;
; 29   : 	}
; 30   : 	m_lpBufMax	= m_lpBufStart + m_nBufSize;

  00014	8b 48 10	 mov	 ecx, DWORD PTR [eax+16]
  00017	8b 50 04	 mov	 edx, DWORD PTR [eax+4]
  0001a	03 d1		 add	 edx, ecx
  0001c	c6 00 01	 mov	 BYTE PTR [eax], 1
  0001f	89 50 0c	 mov	 DWORD PTR [eax+12], edx

; 31   : 	m_lpBufCur	= m_lpBufStart;

  00022	89 48 08	 mov	 DWORD PTR [eax+8], ecx

; 32   : }

  00025	c2 08 00	 ret	 8
$L186716:

; 23   : 	}
; 24   : 	else
; 25   : 	{
; 26   : 		m_nMode		= store;
; 27   : 		m_lpBufStart	= m_lpBuf;

  00028	8d 50 14	 lea	 edx, DWORD PTR [eax+20]

; 28   : 		m_nBufSize	= nGrowSize;
; 29   : 	}
; 30   : 	m_lpBufMax	= m_lpBufStart + m_nBufSize;

  0002b	8b ca		 mov	 ecx, edx
  0002d	89 50 10	 mov	 DWORD PTR [eax+16], edx
  00030	c7 40 04 00 40
	00 00		 mov	 DWORD PTR [eax+4], 16384 ; 00004000H
  00037	8b 50 04	 mov	 edx, DWORD PTR [eax+4]
  0003a	03 d1		 add	 edx, ecx
  0003c	c6 00 00	 mov	 BYTE PTR [eax], 0
  0003f	89 50 0c	 mov	 DWORD PTR [eax+12], edx

; 31   : 	m_lpBufCur	= m_lpBufStart;

  00042	89 48 08	 mov	 DWORD PTR [eax+8], ecx

; 32   : }

  00045	c2 08 00	 ret	 8
??0CAr@@QAE@PAXI@Z ENDP					; CAr::CAr
_TEXT	ENDS
PUBLIC	?Read@CAr@@QAEXPAXI@Z				; CAr::Read
; Function compile flags: /Ogty
;	COMDAT ?Read@CAr@@QAEXPAXI@Z
_TEXT	SEGMENT
_lpBuf$ = 8						; size = 4
_nSize$ = 12						; size = 4
?Read@CAr@@QAEXPAXI@Z PROC NEAR				; CAr::Read, COMDAT
; _this$ = ecx

; 48   : 	if( nSize == 0 )

  00000	8b 44 24 08	 mov	 eax, DWORD PTR _nSize$[esp-4]
  00004	85 c0		 test	 eax, eax
  00006	8b d1		 mov	 edx, ecx
  00008	74 4a		 je	 SHORT $L186732
  0000a	56		 push	 esi

; 49   : 		return;
; 50   : 
; 51   : 	ASSERT( IsLoading() );
; 52   : 	ASSERT( lpBuf );
; 53   : 
; 54   : 	if( m_lpBufCur + nSize <= m_lpBufMax )

  0000b	8b 72 08	 mov	 esi, DWORD PTR [edx+8]
  0000e	57		 push	 edi
  0000f	8b 7a 0c	 mov	 edi, DWORD PTR [edx+12]
  00012	8d 0c 06	 lea	 ecx, DWORD PTR [esi+eax]
  00015	3b cf		 cmp	 ecx, edi

; 55   : 	{
; 56   : 		memcpy( lpBuf, m_lpBufCur, nSize );

  00017	8b 7c 24 0c	 mov	 edi, DWORD PTR _lpBuf$[esp+4]
  0001b	8b c8		 mov	 ecx, eax
  0001d	77 1d		 ja	 SHORT $L186731
  0001f	53		 push	 ebx
  00020	8b d9		 mov	 ebx, ecx
  00022	c1 e9 02	 shr	 ecx, 2
  00025	f3 a5		 rep movsd
  00027	8b cb		 mov	 ecx, ebx
  00029	83 e1 03	 and	 ecx, 3
  0002c	f3 a4		 rep movsb

; 57   : 		m_lpBufCur	+= nSize;

  0002e	8b 4a 08	 mov	 ecx, DWORD PTR [edx+8]
  00031	5b		 pop	 ebx
  00032	03 c8		 add	 ecx, eax
  00034	5f		 pop	 edi
  00035	89 4a 08	 mov	 DWORD PTR [edx+8], ecx
  00038	5e		 pop	 esi

; 63   : 	}
; 64   : }

  00039	c2 08 00	 ret	 8
$L186731:

; 58   : 	}
; 59   : 	else	// overflow
; 60   : 	{
; 61   : 		memset( lpBuf, 0, nSize );

  0003c	8b f1		 mov	 esi, ecx
  0003e	c1 e9 02	 shr	 ecx, 2
  00041	33 c0		 xor	 eax, eax
  00043	f3 ab		 rep stosd
  00045	8b ce		 mov	 ecx, esi
  00047	83 e1 03	 and	 ecx, 3
  0004a	f3 aa		 rep stosb

; 62   : 		m_lpBufCur	= m_lpBufMax;

  0004c	8b 42 0c	 mov	 eax, DWORD PTR [edx+12]
  0004f	5f		 pop	 edi
  00050	89 42 08	 mov	 DWORD PTR [edx+8], eax
  00053	5e		 pop	 esi
$L186732:

; 63   : 	}
; 64   : }

  00054	c2 08 00	 ret	 8
?Read@CAr@@QAEXPAXI@Z ENDP				; CAr::Read
_TEXT	ENDS
PUBLIC	?Reserve@CAr@@QAEXI@Z				; CAr::Reserve
EXTRN	?Malloc@CHeapMng@@QAEPAXI@Z:NEAR		; CHeapMng::Malloc
; Function compile flags: /Ogty
;	COMDAT ?Reserve@CAr@@QAEXI@Z
_TEXT	SEGMENT
_nSize$ = 8						; size = 4
?Reserve@CAr@@QAEXI@Z PROC NEAR				; CAr::Reserve, COMDAT
; _this$ = ecx

; 122  : {

  00000	56		 push	 esi
  00001	57		 push	 edi

; 123  : 	ASSERT( IsStoring() );
; 124  : 	ASSERT( m_lpBufCur == m_lpBufStart );
; 125  : 	if( nSize <= nGrowSize )

  00002	8b 7c 24 0c	 mov	 edi, DWORD PTR _nSize$[esp+4]
  00006	81 ff 00 40 00
	00		 cmp	 edi, 16384		; 00004000H
  0000c	8b f1		 mov	 esi, ecx
  0000e	76 1a		 jbe	 SHORT $L186768

; 126  : 		return;
; 127  : //	LPBYTE lpBuf	= (LPBYTE) heapAlloc( nSize );
; 128  : 	LPBYTE lpBuf	= (LPBYTE)CAr::m_pHeapMng->Malloc( nSize );

  00010	8b 0d 00 00 00
	00		 mov	 ecx, DWORD PTR ?m_pHeapMng@CAr@@2PAVCHeapMng@@A ; CAr::m_pHeapMng
  00016	57		 push	 edi
  00017	e8 00 00 00 00	 call	 ?Malloc@CHeapMng@@QAEPAXI@Z ; CHeapMng::Malloc

; 129  : 	m_lpBufStart	= lpBuf;

  0001c	89 46 10	 mov	 DWORD PTR [esi+16], eax

; 130  : 
; 131  : 	ASSERT( m_lpBufStart );
; 132  : 	m_nBufSize	= nSize;
; 133  : 	m_lpBufCur	= m_lpBufStart;

  0001f	89 46 08	 mov	 DWORD PTR [esi+8], eax

; 134  : 	m_lpBufMax	= m_lpBufStart + m_nBufSize;

  00022	03 c7		 add	 eax, edi
  00024	89 7e 04	 mov	 DWORD PTR [esi+4], edi
  00027	89 46 0c	 mov	 DWORD PTR [esi+12], eax
$L186768:
  0002a	5f		 pop	 edi
  0002b	5e		 pop	 esi

; 135  : }

  0002c	c2 04 00	 ret	 4
?Reserve@CAr@@QAEXI@Z ENDP				; CAr::Reserve
_TEXT	ENDS
PUBLIC	?CheckBuf@CAr@@QAEXI@Z				; CAr::CheckBuf
EXTRN	?Realloc@CHeapMng@@QAEPAXPAXI@Z:NEAR		; CHeapMng::Realloc
; Function compile flags: /Ogty
;	COMDAT ?CheckBuf@CAr@@QAEXI@Z
_TEXT	SEGMENT
_uOffset$186780 = 8					; size = 4
_nSize$ = 8						; size = 4
?CheckBuf@CAr@@QAEXI@Z PROC NEAR			; CAr::CheckBuf, COMDAT
; _this$ = ecx

; 138  : {

  00000	53		 push	 ebx
  00001	8b d9		 mov	 ebx, ecx

; 139  : 	if( m_lpBufCur + nSize > m_lpBufMax )

  00003	8b 4c 24 08	 mov	 ecx, DWORD PTR _nSize$[esp]
  00007	8b 43 08	 mov	 eax, DWORD PTR [ebx+8]
  0000a	8d 14 08	 lea	 edx, DWORD PTR [eax+ecx]
  0000d	3b 53 0c	 cmp	 edx, DWORD PTR [ebx+12]
  00010	76 71		 jbe	 SHORT $L186779

; 140  : 	{
; 141  : 		u_int uOffset	= m_lpBufCur - m_lpBufStart;

  00012	8b 4b 10	 mov	 ecx, DWORD PTR [ebx+16]
  00015	2b c1		 sub	 eax, ecx
  00017	55		 push	 ebp

; 142  : 
; 143  : //		u_int nExtension	= nGrowSize * ( nSize / nGrowSize + 1 );
; 144  : 		u_int nExtension	= m_nBufSize * 2;

  00018	8b 6b 04	 mov	 ebp, DWORD PTR [ebx+4]
  0001b	89 44 24 0c	 mov	 DWORD PTR _uOffset$186780[esp+4], eax

; 145  : 		
; 146  : 		if( m_nBufSize > nGrowSize )

  0001f	8b 43 04	 mov	 eax, DWORD PTR [ebx+4]
  00022	d1 e5		 shl	 ebp, 1
  00024	3d 00 40 00 00	 cmp	 eax, 16384		; 00004000H
  00029	76 11		 jbe	 SHORT $L186782

; 147  : 		{
; 148  : #ifdef __VM_0819
; 149  : 			m_lpBufStart	= (LPBYTE)CAr::m_pHeapMng->Realloc( m_lpBufStart, m_nBufSize + nExtension, m_nBufSize );
; 150  : #else	// __VM_0819
; 151  : 			m_lpBufStart	= (LPBYTE)CAr::m_pHeapMng->Realloc( m_lpBufStart, m_nBufSize + nExtension );

  0002b	03 c5		 add	 eax, ebp
  0002d	50		 push	 eax
  0002e	51		 push	 ecx
  0002f	8b 0d 00 00 00
	00		 mov	 ecx, DWORD PTR ?m_pHeapMng@CAr@@2PAVCHeapMng@@A ; CAr::m_pHeapMng
  00035	e8 00 00 00 00	 call	 ?Realloc@CHeapMng@@QAEPAXPAXI@Z ; CHeapMng::Realloc

; 152  : #endif	// __VM_0819
; 153  : 
; 154  : // 			//	BEGINTEST
; 155  : // 			Error( "m_nBufSize : %d, Realloc Size : %d", m_nBufSize, m_nBufSize + nExtension );
; 156  : 		}
; 157  : 		else

  0003a	eb 28		 jmp	 SHORT $L186968
$L186782:

; 158  : 		{
; 159  : 			LPBYTE lpBuf	= (LPBYTE)CAr::m_pHeapMng->Malloc( m_nBufSize + nExtension );

  0003c	8b 0d 00 00 00
	00		 mov	 ecx, DWORD PTR ?m_pHeapMng@CAr@@2PAVCHeapMng@@A ; CAr::m_pHeapMng
  00042	56		 push	 esi
  00043	57		 push	 edi
  00044	03 c5		 add	 eax, ebp
  00046	50		 push	 eax
  00047	e8 00 00 00 00	 call	 ?Malloc@CHeapMng@@QAEPAXI@Z ; CHeapMng::Malloc

; 160  : 			memcpy( lpBuf, m_lpBufStart, m_nBufSize );

  0004c	8b 4b 04	 mov	 ecx, DWORD PTR [ebx+4]
  0004f	8b 73 10	 mov	 esi, DWORD PTR [ebx+16]
  00052	8b d1		 mov	 edx, ecx
  00054	c1 e9 02	 shr	 ecx, 2
  00057	8b f8		 mov	 edi, eax
  00059	f3 a5		 rep movsd
  0005b	8b ca		 mov	 ecx, edx
  0005d	83 e1 03	 and	 ecx, 3
  00060	f3 a4		 rep movsb
  00062	5f		 pop	 edi
  00063	5e		 pop	 esi
$L186968:

; 161  : 			m_lpBufStart	= lpBuf;
; 162  : 		}
; 163  : 
; 164  : 		ASSERT( m_lpBufStart );
; 165  : 
; 166  : 		m_nBufSize	+= nExtension;
; 167  : 		m_lpBufCur	= m_lpBufStart + uOffset;

  00064	8b 54 24 0c	 mov	 edx, DWORD PTR _uOffset$186780[esp+4]
  00068	89 43 10	 mov	 DWORD PTR [ebx+16], eax
  0006b	8b 43 04	 mov	 eax, DWORD PTR [ebx+4]
  0006e	03 c5		 add	 eax, ebp
  00070	8b c8		 mov	 ecx, eax
  00072	89 43 04	 mov	 DWORD PTR [ebx+4], eax
  00075	8b 43 10	 mov	 eax, DWORD PTR [ebx+16]
  00078	03 d0		 add	 edx, eax

; 168  : 		m_lpBufMax	= m_lpBufStart + m_nBufSize;

  0007a	03 c8		 add	 ecx, eax
  0007c	89 53 08	 mov	 DWORD PTR [ebx+8], edx
  0007f	89 4b 0c	 mov	 DWORD PTR [ebx+12], ecx
  00082	5d		 pop	 ebp
$L186779:
  00083	5b		 pop	 ebx

; 169  : 	}
; 170  : }

  00084	c2 04 00	 ret	 4
?CheckBuf@CAr@@QAEXI@Z ENDP				; CAr::CheckBuf
_TEXT	ENDS
PUBLIC	?GetBuffer@CAr@@QAEPAEPAH@Z			; CAr::GetBuffer
; Function compile flags: /Ogty
;	COMDAT ?GetBuffer@CAr@@QAEPAEPAH@Z
_TEXT	SEGMENT
_pnBufSize$ = 8						; size = 4
?GetBuffer@CAr@@QAEPAEPAH@Z PROC NEAR			; CAr::GetBuffer, COMDAT
; _this$ = ecx

; 174  : 	ASSERT( IsStoring() );
; 175  : 	ASSERT( pnBufSize );
; 176  : 
; 177  : 	*pnBufSize	= m_lpBufCur - m_lpBufStart;

  00000	8b 51 10	 mov	 edx, DWORD PTR [ecx+16]
  00003	8b 41 08	 mov	 eax, DWORD PTR [ecx+8]
  00006	2b c2		 sub	 eax, edx
  00008	8b 54 24 04	 mov	 edx, DWORD PTR _pnBufSize$[esp-4]
  0000c	89 02		 mov	 DWORD PTR [edx], eax

; 178  : 	return m_lpBufStart;

  0000e	8b 41 10	 mov	 eax, DWORD PTR [ecx+16]

; 179  : }

  00011	c2 04 00	 ret	 4
?GetBuffer@CAr@@QAEPAEPAH@Z ENDP			; CAr::GetBuffer
_TEXT	ENDS
PUBLIC	?Flush@CAr@@QAEXXZ				; CAr::Flush
; Function compile flags: /Ogty
;	COMDAT ?Flush@CAr@@QAEXXZ
_TEXT	SEGMENT
?Flush@CAr@@QAEXXZ PROC NEAR				; CAr::Flush, COMDAT
; _this$ = ecx

; 183  : 	ASSERT( IsStoring() );
; 184  : 	m_lpBufCur	= m_lpBufStart;

  00000	8b 41 10	 mov	 eax, DWORD PTR [ecx+16]
  00003	89 41 08	 mov	 DWORD PTR [ecx+8], eax

; 185  : }

  00006	c3		 ret	 0
?Flush@CAr@@QAEXXZ ENDP					; CAr::Flush
_TEXT	ENDS
PUBLIC	?ReelIn@CAr@@QAEXI@Z				; CAr::ReelIn
EXTRN	?Free@CHeapMng@@QAEXPAX@Z:NEAR			; CHeapMng::Free
; Function compile flags: /Ogty
;	COMDAT ?ReelIn@CAr@@QAEXI@Z
_TEXT	SEGMENT
_uOffset$ = 8						; size = 4
?ReelIn@CAr@@QAEXI@Z PROC NEAR				; CAr::ReelIn, COMDAT
; _this$ = ecx

; 188  : {

  00000	56		 push	 esi
  00001	8b f1		 mov	 esi, ecx

; 189  : 	ASSERT( IsStoring() );
; 190  : 	ASSERT( m_lpBufStart + uOffset <= m_lpBufCur );
; 191  : #if 1
; 192  : 	if( m_nBufSize > nGrowSize )

  00003	81 7e 04 00 40
	00 00		 cmp	 DWORD PTR [esi+4], 16384 ; 00004000H
  0000a	76 24		 jbe	 SHORT $L186805

; 193  : 	{
; 194  : #ifdef __VM_0819
; 195  : 		CAr::m_pHeapMng->Free( m_lpBufStart, m_nBufSize );
; 196  : #else	// __VM_0819
; 197  : 		CAr::m_pHeapMng->Free( m_lpBufStart );

  0000c	8b 46 10	 mov	 eax, DWORD PTR [esi+16]
  0000f	8b 0d 00 00 00
	00		 mov	 ecx, DWORD PTR ?m_pHeapMng@CAr@@2PAVCHeapMng@@A ; CAr::m_pHeapMng
  00015	50		 push	 eax
  00016	e8 00 00 00 00	 call	 ?Free@CHeapMng@@QAEXPAX@Z ; CHeapMng::Free

; 198  : #endif	// __VM_0819
; 199  : 		m_lpBufStart	= m_lpBuf;

  0001b	8d 46 14	 lea	 eax, DWORD PTR [esi+20]
  0001e	89 46 10	 mov	 DWORD PTR [esi+16], eax

; 200  : 		m_nBufSize	= nGrowSize;
; 201  : 		m_lpBufMax	= m_lpBufStart + m_nBufSize;

  00021	05 00 40 00 00	 add	 eax, 16384		; 00004000H
  00026	c7 46 04 00 40
	00 00		 mov	 DWORD PTR [esi+4], 16384 ; 00004000H
  0002d	89 46 0c	 mov	 DWORD PTR [esi+12], eax
$L186805:

; 202  : 	}
; 203  : #endif	// 1
; 204  : 	m_lpBufCur	= m_lpBufStart + uOffset;

  00030	8b 4e 10	 mov	 ecx, DWORD PTR [esi+16]
  00033	03 4c 24 08	 add	 ecx, DWORD PTR _uOffset$[esp]
  00037	89 4e 08	 mov	 DWORD PTR [esi+8], ecx
  0003a	5e		 pop	 esi

; 205  : }

  0003b	c2 04 00	 ret	 4
?ReelIn@CAr@@QAEXI@Z ENDP				; CAr::ReelIn
_TEXT	ENDS
PUBLIC	?IsStoring@CAr@@QBEHXZ				; CAr::IsStoring
; Function compile flags: /Ogty
; File c:\documents and settings\test\mes documents\source\virtuos_v17\build\program\_network\misc\include\ar.h
;	COMDAT ?IsStoring@CAr@@QBEHXZ
_TEXT	SEGMENT
?IsStoring@CAr@@QBEHXZ PROC NEAR			; CAr::IsStoring, COMDAT
; _this$ = ecx

; 96   : 	{ return (m_nMode & CAr::load) == 0; }

  00000	33 c0		 xor	 eax, eax
  00002	8a 01		 mov	 al, BYTE PTR [ecx]
  00004	f7 d0		 not	 eax
  00006	83 e0 01	 and	 eax, 1
  00009	c3		 ret	 0
?IsStoring@CAr@@QBEHXZ ENDP				; CAr::IsStoring
_TEXT	ENDS
PUBLIC	??6CAr@@QAEAAV0@J@Z				; CAr::operator<<
; Function compile flags: /Ogty
;	COMDAT ??6CAr@@QAEAAV0@J@Z
_TEXT	SEGMENT
_l$ = 8							; size = 4
??6CAr@@QAEAAV0@J@Z PROC NEAR				; CAr::operator<<, COMDAT
; _this$ = ecx

; 113  : 	{ CheckBuf( sizeof(LONG) );

  00000	56		 push	 esi
  00001	6a 04		 push	 4
  00003	8b f1		 mov	 esi, ecx
  00005	e8 00 00 00 00	 call	 ?CheckBuf@CAr@@QAEXI@Z	; CAr::CheckBuf

; 114  : 		*(UNALIGNED LONG*)m_lpBufCur = l; m_lpBufCur += sizeof(LONG); return *this; }

  0000a	8b 46 08	 mov	 eax, DWORD PTR [esi+8]
  0000d	8b 4c 24 08	 mov	 ecx, DWORD PTR _l$[esp]
  00011	89 08		 mov	 DWORD PTR [eax], ecx
  00013	83 46 08 04	 add	 DWORD PTR [esi+8], 4
  00017	8b c6		 mov	 eax, esi
  00019	5e		 pop	 esi
  0001a	c2 04 00	 ret	 4
??6CAr@@QAEAAV0@J@Z ENDP				; CAr::operator<<
_TEXT	ENDS
PUBLIC	??5CAr@@QAEAAV0@AAJ@Z				; CAr::operator>>
; Function compile flags: /Ogty
;	COMDAT ??5CAr@@QAEAAV0@AAJ@Z
_TEXT	SEGMENT
_l$ = 8							; size = 4
??5CAr@@QAEAAV0@AAJ@Z PROC NEAR				; CAr::operator>>, COMDAT
; _this$ = ecx

; 152  : 	{	CAR_SAFE_READ( LONG, l );	}

  00000	8b c1		 mov	 eax, ecx
  00002	8b 48 08	 mov	 ecx, DWORD PTR [eax+8]
  00005	56		 push	 esi
  00006	8b 70 0c	 mov	 esi, DWORD PTR [eax+12]
  00009	8d 51 04	 lea	 edx, DWORD PTR [ecx+4]
  0000c	3b d6		 cmp	 edx, esi
  0000e	5e		 pop	 esi
  0000f	77 0f		 ja	 SHORT $L162898
  00011	8b 09		 mov	 ecx, DWORD PTR [ecx]
  00013	8b 54 24 04	 mov	 edx, DWORD PTR _l$[esp-4]
  00017	89 0a		 mov	 DWORD PTR [edx], ecx
  00019	83 40 08 04	 add	 DWORD PTR [eax+8], 4
  0001d	c2 04 00	 ret	 4
$L162898:
  00020	8b 4c 24 04	 mov	 ecx, DWORD PTR _l$[esp-4]
  00024	c7 01 00 00 00
	00		 mov	 DWORD PTR [ecx], 0
  0002a	8b 50 0c	 mov	 edx, DWORD PTR [eax+12]
  0002d	89 50 08	 mov	 DWORD PTR [eax+8], edx
  00030	c2 04 00	 ret	 4
??5CAr@@QAEAAV0@AAJ@Z ENDP				; CAr::operator>>
_TEXT	ENDS
PUBLIC	??1CAr@@QAE@XZ					; CAr::~CAr
; Function compile flags: /Ogty
; File c:\documents and settings\test\mes documents\source\virtuos_v17\build\program\_network\misc\src\ar.cpp
;	COMDAT ??1CAr@@QAE@XZ
_TEXT	SEGMENT
??1CAr@@QAE@XZ PROC NEAR				; CAr::~CAr, COMDAT
; _this$ = ecx

; 36   : 	if( IsStoring() && ( m_nBufSize > nGrowSize ) )

  00000	33 c0		 xor	 eax, eax
  00002	8a 01		 mov	 al, BYTE PTR [ecx]
  00004	f7 d0		 not	 eax
  00006	a8 01		 test	 al, 1
  00008	74 18		 je	 SHORT $L186722
  0000a	81 79 04 00 40
	00 00		 cmp	 DWORD PTR [ecx+4], 16384 ; 00004000H
  00011	76 0f		 jbe	 SHORT $L186722

; 37   : 	{
; 38   : #ifdef __VM_0819
; 39   : 		CAr::m_pHeapMng->Free( m_lpBufStart, m_nBufSize );
; 40   : #else	// __VM_0819
; 41   : 		CAr::m_pHeapMng->Free( m_lpBufStart );

  00013	8b 49 10	 mov	 ecx, DWORD PTR [ecx+16]
  00016	51		 push	 ecx
  00017	8b 0d 00 00 00
	00		 mov	 ecx, DWORD PTR ?m_pHeapMng@CAr@@2PAVCHeapMng@@A ; CAr::m_pHeapMng
  0001d	e8 00 00 00 00	 call	 ?Free@CHeapMng@@QAEXPAX@Z ; CHeapMng::Free
$L186722:

; 42   : #endif	// __VM_0819
; 43   : 	}
; 44   : }

  00022	c3		 ret	 0
??1CAr@@QAE@XZ ENDP					; CAr::~CAr
_TEXT	ENDS
PUBLIC	?Write@CAr@@QAEXPBXI@Z				; CAr::Write
; Function compile flags: /Ogty
;	COMDAT ?Write@CAr@@QAEXPBXI@Z
_TEXT	SEGMENT
_lpBuf$ = 8						; size = 4
_nSize$ = 12						; size = 4
?Write@CAr@@QAEXPBXI@Z PROC NEAR			; CAr::Write, COMDAT
; _this$ = ecx

; 67   : {

  00000	53		 push	 ebx
  00001	55		 push	 ebp

; 68   : 	if( nSize == 0 )

  00002	8b 6c 24 10	 mov	 ebp, DWORD PTR _nSize$[esp+4]
  00006	85 ed		 test	 ebp, ebp
  00008	8b d9		 mov	 ebx, ecx
  0000a	74 29		 je	 SHORT $L186737
  0000c	56		 push	 esi
  0000d	57		 push	 edi

; 69   : 		return;
; 70   : 	
; 71   : 	ASSERT( IsStoring() );
; 72   : 	ASSERT( lpBuf );
; 73   : 	
; 74   : 	CheckBuf( nSize );

  0000e	55		 push	 ebp
  0000f	e8 00 00 00 00	 call	 ?CheckBuf@CAr@@QAEXI@Z	; CAr::CheckBuf

; 75   : 
; 76   : 	memcpy( m_lpBufCur, lpBuf, nSize );

  00014	8b 7b 08	 mov	 edi, DWORD PTR [ebx+8]
  00017	8b 74 24 14	 mov	 esi, DWORD PTR _lpBuf$[esp+12]
  0001b	8b cd		 mov	 ecx, ebp
  0001d	8b c1		 mov	 eax, ecx
  0001f	c1 e9 02	 shr	 ecx, 2
  00022	f3 a5		 rep movsd
  00024	8b c8		 mov	 ecx, eax
  00026	83 e1 03	 and	 ecx, 3
  00029	f3 a4		 rep movsb

; 77   : 	m_lpBufCur	+= nSize;

  0002b	8b 43 08	 mov	 eax, DWORD PTR [ebx+8]
  0002e	03 c5		 add	 eax, ebp
  00030	5f		 pop	 edi
  00031	89 43 08	 mov	 DWORD PTR [ebx+8], eax
  00034	5e		 pop	 esi
$L186737:
  00035	5d		 pop	 ebp
  00036	5b		 pop	 ebx

; 78   : }

  00037	c2 08 00	 ret	 8
?Write@CAr@@QAEXPBXI@Z ENDP				; CAr::Write
_TEXT	ENDS
PUBLIC	??6CAr@@QAEAAV0@H@Z				; CAr::operator<<
; Function compile flags: /Ogty
; File c:\documents and settings\test\mes documents\source\virtuos_v17\build\program\_network\misc\include\ar.h
;	COMDAT ??6CAr@@QAEAAV0@H@Z
_TEXT	SEGMENT
_i$ = 8							; size = 4
??6CAr@@QAEAAV0@H@Z PROC NEAR				; CAr::operator<<, COMDAT
; _this$ = ecx

; 99   : 	{ return CAr::operator<<((LONG)i); }

  00000	56		 push	 esi
  00001	6a 04		 push	 4
  00003	8b f1		 mov	 esi, ecx
  00005	e8 00 00 00 00	 call	 ?CheckBuf@CAr@@QAEXI@Z	; CAr::CheckBuf
  0000a	8b 46 08	 mov	 eax, DWORD PTR [esi+8]
  0000d	8b 4c 24 08	 mov	 ecx, DWORD PTR _i$[esp]
  00011	89 08		 mov	 DWORD PTR [eax], ecx
  00013	83 46 08 04	 add	 DWORD PTR [esi+8], 4
  00017	8b c6		 mov	 eax, esi
  00019	5e		 pop	 esi
  0001a	c2 04 00	 ret	 4
??6CAr@@QAEAAV0@H@Z ENDP				; CAr::operator<<
_TEXT	ENDS
PUBLIC	??5CAr@@QAEAAV0@AAH@Z				; CAr::operator>>
; Function compile flags: /Ogty
;	COMDAT ??5CAr@@QAEAAV0@AAH@Z
_TEXT	SEGMENT
_i$ = 8							; size = 4
??5CAr@@QAEAAV0@AAH@Z PROC NEAR				; CAr::operator>>, COMDAT
; _this$ = ecx

; 126  : 	{ return CAr::operator>>((LONG&)i); }

  00000	8b c1		 mov	 eax, ecx
  00002	8b 48 08	 mov	 ecx, DWORD PTR [eax+8]
  00005	56		 push	 esi
  00006	8b 70 0c	 mov	 esi, DWORD PTR [eax+12]
  00009	8d 51 04	 lea	 edx, DWORD PTR [ecx+4]
  0000c	3b d6		 cmp	 edx, esi
  0000e	5e		 pop	 esi
  0000f	77 0f		 ja	 SHORT $L186997
  00011	8b 09		 mov	 ecx, DWORD PTR [ecx]
  00013	8b 54 24 04	 mov	 edx, DWORD PTR _i$[esp-4]
  00017	89 0a		 mov	 DWORD PTR [edx], ecx
  00019	83 40 08 04	 add	 DWORD PTR [eax+8], 4
  0001d	c2 04 00	 ret	 4
$L186997:
  00020	8b 4c 24 04	 mov	 ecx, DWORD PTR _i$[esp-4]
  00024	c7 01 00 00 00
	00		 mov	 DWORD PTR [ecx], 0
  0002a	8b 50 0c	 mov	 edx, DWORD PTR [eax+12]
  0002d	89 50 08	 mov	 DWORD PTR [eax+8], edx
  00030	c2 04 00	 ret	 4
??5CAr@@QAEAAV0@AAH@Z ENDP				; CAr::operator>>
_TEXT	ENDS
PUBLIC	?WriteString@CAr@@QAEXPBD@Z			; CAr::WriteString
; Function compile flags: /Ogty
; File c:\documents and settings\test\mes documents\source\virtuos_v17\build\program\_network\misc\src\ar.cpp
;	COMDAT ?WriteString@CAr@@QAEXPBD@Z
_TEXT	SEGMENT
_lpsz$ = 8						; size = 4
?WriteString@CAr@@QAEXPBD@Z PROC NEAR			; CAr::WriteString, COMDAT
; _this$ = ecx

; 82   : {

  00000	53		 push	 ebx
  00001	55		 push	 ebp
  00002	56		 push	 esi

; 83   : 	int nLen	= _tcslen( lpsz );

  00003	8b 74 24 10	 mov	 esi, DWORD PTR _lpsz$[esp+8]
  00007	8b c6		 mov	 eax, esi
  00009	8b d9		 mov	 ebx, ecx
  0000b	8d 50 01	 lea	 edx, DWORD PTR [eax+1]
  0000e	8b ff		 npad	 2
$L187014:
  00010	8a 08		 mov	 cl, BYTE PTR [eax]
  00012	40		 inc	 eax
  00013	84 c9		 test	 cl, cl
  00015	75 f9		 jne	 SHORT $L187014
  00017	2b c2		 sub	 eax, edx

; 84   : 	*this << nLen;

  00019	6a 04		 push	 4
  0001b	8b cb		 mov	 ecx, ebx
  0001d	8b e8		 mov	 ebp, eax
  0001f	e8 00 00 00 00	 call	 ?CheckBuf@CAr@@QAEXI@Z	; CAr::CheckBuf
  00024	8b 43 08	 mov	 eax, DWORD PTR [ebx+8]
  00027	89 28		 mov	 DWORD PTR [eax], ebp
  00029	8b 4b 08	 mov	 ecx, DWORD PTR [ebx+8]
  0002c	83 c1 04	 add	 ecx, 4

; 85   : 	Write( lpsz, sizeof(TCHAR) * nLen );

  0002f	85 ed		 test	 ebp, ebp
  00031	89 4b 08	 mov	 DWORD PTR [ebx+8], ecx
  00034	74 20		 je	 SHORT $L187011
  00036	57		 push	 edi
  00037	55		 push	 ebp
  00038	8b cb		 mov	 ecx, ebx
  0003a	e8 00 00 00 00	 call	 ?CheckBuf@CAr@@QAEXI@Z	; CAr::CheckBuf
  0003f	8b 7b 08	 mov	 edi, DWORD PTR [ebx+8]
  00042	8b cd		 mov	 ecx, ebp
  00044	8b d1		 mov	 edx, ecx
  00046	c1 e9 02	 shr	 ecx, 2
  00049	f3 a5		 rep movsd
  0004b	8b ca		 mov	 ecx, edx
  0004d	83 e1 03	 and	 ecx, 3
  00050	f3 a4		 rep movsb
  00052	01 6b 08	 add	 DWORD PTR [ebx+8], ebp
  00055	5f		 pop	 edi
$L187011:
  00056	5e		 pop	 esi
  00057	5d		 pop	 ebp
  00058	5b		 pop	 ebx

; 86   : }

  00059	c2 04 00	 ret	 4
?WriteString@CAr@@QAEXPBD@Z ENDP			; CAr::WriteString
_TEXT	ENDS
PUBLIC	?ReadString@CAr@@QAEPADPAD@Z			; CAr::ReadString
; Function compile flags: /Ogty
;	COMDAT ?ReadString@CAr@@QAEPADPAD@Z
_TEXT	SEGMENT
_lpsz$ = 8						; size = 4
?ReadString@CAr@@QAEPADPAD@Z PROC NEAR			; CAr::ReadString, COMDAT
; _this$ = ecx

; 90   : 	// if nMax is negative (such a large number doesn't make sense given today's
; 91   : 	// 2gb address space), then assume it to mean "keep the newline".
; 92   : 	int nLen;
; 93   : 	*this >> nLen;

  00000	8b 41 08	 mov	 eax, DWORD PTR [ecx+8]
  00003	56		 push	 esi
  00004	57		 push	 edi
  00005	8b 79 0c	 mov	 edi, DWORD PTR [ecx+12]
  00008	8d 50 04	 lea	 edx, DWORD PTR [eax+4]
  0000b	3b d7		 cmp	 edx, edi
  0000d	77 07		 ja	 SHORT $L187026
  0000f	8b 30		 mov	 esi, DWORD PTR [eax]
  00011	89 51 08	 mov	 DWORD PTR [ecx+8], edx
  00014	eb 05		 jmp	 SHORT $L187027
$L187026:
  00016	33 f6		 xor	 esi, esi
  00018	89 79 08	 mov	 DWORD PTR [ecx+8], edi
$L187027:

; 94   : 	Read( lpsz, sizeof(TCHAR) * nLen );

  0001b	8b 7c 24 0c	 mov	 edi, DWORD PTR _lpsz$[esp+4]
  0001f	56		 push	 esi
  00020	57		 push	 edi
  00021	e8 00 00 00 00	 call	 ?Read@CAr@@QAEXPAXI@Z	; CAr::Read

; 95   : 	lpsz[nLen] = '\0';

  00026	c6 04 3e 00	 mov	 BYTE PTR [esi+edi], 0

; 96   : 	return lpsz;

  0002a	8b c7		 mov	 eax, edi
  0002c	5f		 pop	 edi
  0002d	5e		 pop	 esi

; 97   : }

  0002e	c2 04 00	 ret	 4
?ReadString@CAr@@QAEPADPAD@Z ENDP			; CAr::ReadString
_TEXT	ENDS
PUBLIC	?ReadString@CAr@@QAEPADPADH@Z			; CAr::ReadString
; Function compile flags: /Ogty
;	COMDAT ?ReadString@CAr@@QAEPADPADH@Z
_TEXT	SEGMENT
_lpsz$ = 8						; size = 4
_nBufSize$ = 12						; size = 4
?ReadString@CAr@@QAEPADPADH@Z PROC NEAR			; CAr::ReadString, COMDAT
; _this$ = ecx

; 100  : {

  00000	8b d1		 mov	 edx, ecx

; 101  : 	// if nMax is negative (such a large number doesn't make sense given today's
; 102  : 	// 2gb address space), then assume it to mean "keep the newline".
; 103  : 	int nLen;
; 104  : 	*this >> nLen;

  00002	8b 42 08	 mov	 eax, DWORD PTR [edx+8]
  00005	56		 push	 esi
  00006	57		 push	 edi
  00007	8b 7a 0c	 mov	 edi, DWORD PTR [edx+12]
  0000a	8d 48 04	 lea	 ecx, DWORD PTR [eax+4]
  0000d	3b cf		 cmp	 ecx, edi
  0000f	77 07		 ja	 SHORT $L187040
  00011	8b 30		 mov	 esi, DWORD PTR [eax]
  00013	89 4a 08	 mov	 DWORD PTR [edx+8], ecx
  00016	eb 05		 jmp	 SHORT $L187041
$L187040:
  00018	33 f6		 xor	 esi, esi
  0001a	89 7a 08	 mov	 DWORD PTR [edx+8], edi
$L187041:

; 105  : 
; 106  : 	int nReadable	= nBufSize - 1;

  0001d	8b 4c 24 10	 mov	 ecx, DWORD PTR _nBufSize$[esp+4]
  00021	8d 41 ff	 lea	 eax, DWORD PTR [ecx-1]

; 107  : 	if( nLen > nReadable || nLen < 0 )

  00024	3b f0		 cmp	 esi, eax
  00026	7f 1c		 jg	 SHORT $L186761
  00028	85 f6		 test	 esi, esi
  0002a	7c 18		 jl	 SHORT $L186761

; 112  : 	}
; 113  : 	else
; 114  : 	{
; 115  : 		Read( lpsz, sizeof(TCHAR) * nLen );

  0002c	8b 7c 24 0c	 mov	 edi, DWORD PTR _lpsz$[esp+4]
  00030	56		 push	 esi
  00031	57		 push	 edi
  00032	8b ca		 mov	 ecx, edx
  00034	e8 00 00 00 00	 call	 ?Read@CAr@@QAEXPAXI@Z	; CAr::Read

; 116  : 		lpsz[nLen] = '\0';

  00039	c6 04 3e 00	 mov	 BYTE PTR [esi+edi], 0

; 117  : 		return lpsz;

  0003d	8b c7		 mov	 eax, edi
  0003f	5f		 pop	 edi
  00040	5e		 pop	 esi

; 118  : 	}
; 119  : }

  00041	c2 08 00	 ret	 8
$L186761:

; 108  : 	{
; 109  : 		memset( (void*)lpsz, 0, nBufSize );

  00044	8b 74 24 0c	 mov	 esi, DWORD PTR _lpsz$[esp+4]
  00048	53		 push	 ebx
  00049	8b d9		 mov	 ebx, ecx
  0004b	c1 e9 02	 shr	 ecx, 2
  0004e	33 c0		 xor	 eax, eax
  00050	8b fe		 mov	 edi, esi
  00052	f3 ab		 rep stosd
  00054	8b cb		 mov	 ecx, ebx
  00056	83 e1 03	 and	 ecx, 3
  00059	f3 aa		 rep stosb

; 110  : 		m_lpBufCur	= m_lpBufMax;

  0005b	8b 4a 0c	 mov	 ecx, DWORD PTR [edx+12]
  0005e	5b		 pop	 ebx
  0005f	5f		 pop	 edi

; 111  : 		return lpsz;

  00060	8b c6		 mov	 eax, esi
  00062	89 4a 08	 mov	 DWORD PTR [edx+8], ecx
  00065	5e		 pop	 esi

; 118  : 	}
; 119  : }

  00066	c2 08 00	 ret	 8
?ReadString@CAr@@QAEPADPADH@Z ENDP			; CAr::ReadString
_TEXT	ENDS
EXTRN	??2@YAPAXI@Z:NEAR				; operator new
EXTRN	??3@YAXPAX@Z:NEAR				; operator delete
EXTRN	__except_list:DWORD
EXTRN	___CxxFrameHandler:NEAR
EXTRN	??0CHeapMng@@QAE@XZ:NEAR			; CHeapMng::CHeapMng
CRT$XCU	SEGMENT
_$S2	DD	FLAT:_$E1
CRT$XCU	ENDS
;	COMDAT xdata$x
xdata$x	SEGMENT
$T187057 DD	0ffffffffH
	DD	FLAT:$L187049
$T187053 DD	019930520H
	DD	01H
	DD	FLAT:$T187057
	DD	2 DUP(00H)
	DD	2 DUP(00H)
; Function compile flags: /Ogty
xdata$x	ENDS
;	COMDAT _$E1
text$yc	SEGMENT
$T187046 = -16						; size = 4
__$EHRec$ = -12						; size = 12
_$E1	PROC NEAR					; COMDAT

; 13   : CHeapMng*	CAr::m_pHeapMng		= new CHeapMng;

  00000	6a ff		 push	 -1
  00002	68 00 00 00 00	 push	 __ehhandler$_$E1
  00007	64 a1 00 00 00
	00		 mov	 eax, DWORD PTR fs:__except_list
  0000d	50		 push	 eax
  0000e	64 89 25 00 00
	00 00		 mov	 DWORD PTR fs:__except_list, esp
  00015	51		 push	 ecx
  00016	6a 08		 push	 8
  00018	e8 00 00 00 00	 call	 ??2@YAPAXI@Z		; operator new
  0001d	83 c4 04	 add	 esp, 4
  00020	89 04 24	 mov	 DWORD PTR $T187046[esp+16], eax
  00023	85 c0		 test	 eax, eax
  00025	c7 44 24 0c 00
	00 00 00	 mov	 DWORD PTR __$EHRec$[esp+24], 0
  0002d	74 1b		 je	 SHORT $L187047
  0002f	8b c8		 mov	 ecx, eax
  00031	e8 00 00 00 00	 call	 ??0CHeapMng@@QAE@XZ	; CHeapMng::CHeapMng
  00036	a3 00 00 00 00	 mov	 DWORD PTR ?m_pHeapMng@CAr@@2PAVCHeapMng@@A, eax ; CAr::m_pHeapMng
  0003b	8b 4c 24 04	 mov	 ecx, DWORD PTR __$EHRec$[esp+16]
  0003f	64 89 0d 00 00
	00 00		 mov	 DWORD PTR fs:__except_list, ecx
  00046	83 c4 10	 add	 esp, 16			; 00000010H
  00049	c3		 ret	 0
$L187047:
  0004a	8b 4c 24 04	 mov	 ecx, DWORD PTR __$EHRec$[esp+16]
  0004e	33 c0		 xor	 eax, eax
  00050	a3 00 00 00 00	 mov	 DWORD PTR ?m_pHeapMng@CAr@@2PAVCHeapMng@@A, eax ; CAr::m_pHeapMng
  00055	64 89 0d 00 00
	00 00		 mov	 DWORD PTR fs:__except_list, ecx
  0005c	83 c4 10	 add	 esp, 16			; 00000010H
  0005f	c3		 ret	 0
text$yc	ENDS
;	COMDAT text$x
text$x	SEGMENT
$L187049:
  00000	8b 45 f0	 mov	 eax, DWORD PTR $T187046[ebp]
  00003	50		 push	 eax
  00004	e8 00 00 00 00	 call	 ??3@YAXPAX@Z		; operator delete
  00009	59		 pop	 ecx
  0000a	c3		 ret	 0
__ehhandler$_$E1:
  0000b	b8 00 00 00 00	 mov	 eax, OFFSET FLAT:$T187053
  00010	e9 00 00 00 00	 jmp	 ___CxxFrameHandler
text$x	ENDS
_$E1	ENDP
PUBLIC	?m_pHeapMng@CAr@@2PAVCHeapMng@@A		; CAr::m_pHeapMng
_BSS	SEGMENT
?m_pHeapMng@CAr@@2PAVCHeapMng@@A DD 01H DUP (?)		; CAr::m_pHeapMng
_BSS	ENDS
END
