; Listing generated by Microsoft (R) Optimizing Compiler Version 13.10.6030 

	TITLE	\Documents and Settings\test\Mes documents\Source\Virtuos_v17\Build\Program\_Network\Net\Src\buffer.cpp
	.386P
include listing.inc
if @Version gt 510
.model FLAT
else
_TEXT	SEGMENT PARA USE32 PUBLIC 'CODE'
_TEXT	ENDS
_DATA	SEGMENT DWORD USE32 PUBLIC 'DATA'
_DATA	ENDS
CONST	SEGMENT DWORD USE32 PUBLIC 'CONST'
CONST	ENDS
_BSS	SEGMENT DWORD USE32 PUBLIC 'BSS'
_BSS	ENDS
$$SYMBOLS	SEGMENT BYTE USE32 'DEBSYM'
$$SYMBOLS	ENDS
_TLS	SEGMENT DWORD USE32 PUBLIC 'TLS'
_TLS	ENDS
text$yc	SEGMENT PARA USE32 PUBLIC 'CODE'
text$yc	ENDS
CRT$XCA	SEGMENT DWORD USE32 PUBLIC 'DATA'
CRT$XCA	ENDS
CRT$XCU	SEGMENT DWORD USE32 PUBLIC 'DATA'
CRT$XCU	ENDS
CRT$XCL	SEGMENT DWORD USE32 PUBLIC 'DATA'
CRT$XCL	ENDS
CRT$XCC	SEGMENT DWORD USE32 PUBLIC 'DATA'
CRT$XCC	ENDS
CRT$XCZ	SEGMENT DWORD USE32 PUBLIC 'DATA'
CRT$XCZ	ENDS
xdata$x	SEGMENT DWORD USE32 PUBLIC 'CONST'
xdata$x	ENDS
;	COMDAT _$E1
text$yc	SEGMENT PARA USE32 PUBLIC 'CODE'
text$yc	ENDS
;	COMDAT _$E3
text$yc	SEGMENT PARA USE32 PUBLIC 'CODE'
text$yc	ENDS
;	COMDAT _$E5
text$yc	SEGMENT PARA USE32 PUBLIC 'CODE'
text$yc	ENDS
;	COMDAT ??0CBuffer@@QAE@K@Z
_TEXT	SEGMENT PARA USE32 PUBLIC 'CODE'
_TEXT	ENDS
;	COMDAT ??_GCBuffer@@UAEPAXI@Z
_TEXT	SEGMENT PARA USE32 PUBLIC 'CODE'
_TEXT	ENDS
;	COMDAT ??1CBuffer@@UAE@XZ
_TEXT	SEGMENT PARA USE32 PUBLIC 'CODE'
_TEXT	ENDS
;	COMDAT ??0CBufferQueue@@QAE@XZ
_TEXT	SEGMENT PARA USE32 PUBLIC 'CODE'
_TEXT	ENDS
;	COMDAT ??_GCBufferQueue@@UAEPAXI@Z
_TEXT	SEGMENT PARA USE32 PUBLIC 'CODE'
_TEXT	ENDS
;	COMDAT ??1CBufferQueue@@UAE@XZ
_TEXT	SEGMENT PARA USE32 PUBLIC 'CODE'
_TEXT	ENDS
;	COMDAT ?Clear@CBufferQueue@@QAEXH@Z
_TEXT	SEGMENT PARA USE32 PUBLIC 'CODE'
_TEXT	ENDS
;	COMDAT ?AddData@CBufferQueue@@QAEXPAEKW4BUFFER_TYPE@@@Z
_TEXT	SEGMENT PARA USE32 PUBLIC 'CODE'
_TEXT	ENDS
;	COMDAT ?RemoveData@CBufferQueue@@QAEXK@Z
_TEXT	SEGMENT PARA USE32 PUBLIC 'CODE'
_TEXT	ENDS
;	COMDAT ?GetData@CBufferQueue@@QAEXPAU_WSABUF@@PAK@Z
_TEXT	SEGMENT PARA USE32 PUBLIC 'CODE'
_TEXT	ENDS
;	COMDAT ??0CBufferFactory@@AAE@XZ
_TEXT	SEGMENT PARA USE32 PUBLIC 'CODE'
_TEXT	ENDS
;	COMDAT ?GetInstance@CBufferFactory@@SAAAV1@XZ
_TEXT	SEGMENT PARA USE32 PUBLIC 'CODE'
_TEXT	ENDS
;	COMDAT ?CreateBuffer@CBufferFactory@@QAEPAVCBuffer@@W4BUFFER_TYPE@@K@Z
_TEXT	SEGMENT PARA USE32 PUBLIC 'CODE'
_TEXT	ENDS
;	COMDAT ?compare@?$basic_string@DU?$char_traits@D@std@@V?$allocator@D@2@@std@@QBEHABV12@@Z
_TEXT	SEGMENT PARA USE32 PUBLIC 'CODE'
_TEXT	ENDS
;	COMDAT ??0?$MemPooler@VCBuffer@@@@QAE@H@Z
_TEXT	SEGMENT PARA USE32 PUBLIC 'CODE'
_TEXT	ENDS
;	COMDAT ??0?$MemPooler@VCBuffer2@@@@QAE@H@Z
_TEXT	SEGMENT PARA USE32 PUBLIC 'CODE'
_TEXT	ENDS
;	COMDAT ?compare@?$basic_string@DU?$char_traits@D@std@@V?$allocator@D@2@@std@@QBEHIIPBDI@Z
_TEXT	SEGMENT PARA USE32 PUBLIC 'CODE'
_TEXT	ENDS
;	COMDAT ??0?$list@PAXV?$allocator@PAX@std@@@std@@QAE@XZ
_TEXT	SEGMENT PARA USE32 PUBLIC 'CODE'
_TEXT	ENDS
;	COMDAT ??1?$list@PAXV?$allocator@PAX@std@@@std@@QAE@XZ
_TEXT	SEGMENT PARA USE32 PUBLIC 'CODE'
_TEXT	ENDS
;	COMDAT ??0?$allocator@PAX@std@@QAE@XZ
_TEXT	SEGMENT PARA USE32 PUBLIC 'CODE'
_TEXT	ENDS
;	COMDAT ?_Buynode@?$list@PAXV?$allocator@PAX@std@@@std@@IAEPAU_Node@?$_List_nod@PAXV?$allocator@PAX@std@@@2@XZ
_TEXT	SEGMENT PARA USE32 PUBLIC 'CODE'
_TEXT	ENDS
;	COMDAT ?_Tidy@?$list@PAXV?$allocator@PAX@std@@@std@@IAEXXZ
_TEXT	SEGMENT PARA USE32 PUBLIC 'CODE'
_TEXT	ENDS
;	COMDAT ??0?$_List_val@PAXV?$allocator@PAX@std@@@std@@IAE@V?$allocator@PAX@1@@Z
_TEXT	SEGMENT PARA USE32 PUBLIC 'CODE'
_TEXT	ENDS
;	COMDAT ??0?$allocator@PAX@std@@QAE@ABV01@@Z
_TEXT	SEGMENT PARA USE32 PUBLIC 'CODE'
_TEXT	ENDS
;	COMDAT ?clear@?$list@PAXV?$allocator@PAX@std@@@std@@QAEXXZ
_TEXT	SEGMENT PARA USE32 PUBLIC 'CODE'
_TEXT	ENDS
;	COMDAT ??0?$_List_ptr@PAXV?$allocator@PAX@std@@@std@@IAE@V?$allocator@PAX@1@@Z
_TEXT	SEGMENT PARA USE32 PUBLIC 'CODE'
_TEXT	ENDS
;	COMDAT ?construct@?$allocator@PAU_Node@?$_List_nod@PAXV?$allocator@PAX@std@@@std@@@std@@QAEXPAPAU_Node@?$_List_nod@PAXV?$allocator@PAX@std@@@2@ABQAU342@@Z
_TEXT	SEGMENT PARA USE32 PUBLIC 'CODE'
_TEXT	ENDS
;	COMDAT ?destroy@?$allocator@PAU_Node@?$_List_nod@PAXV?$allocator@PAX@std@@@std@@@std@@QAEXPAPAU_Node@?$_List_nod@PAXV?$allocator@PAX@std@@@2@@Z
_TEXT	SEGMENT PARA USE32 PUBLIC 'CODE'
_TEXT	ENDS
;	COMDAT ??0?$_List_nod@PAXV?$allocator@PAX@std@@@std@@IAE@V?$allocator@PAX@1@@Z
_TEXT	SEGMENT PARA USE32 PUBLIC 'CODE'
_TEXT	ENDS
;	COMDAT ?destroy@?$allocator@U_Node@?$_List_nod@PAXV?$allocator@PAX@std@@@std@@@std@@QAEXPAU_Node@?$_List_nod@PAXV?$allocator@PAX@std@@@2@@Z
_TEXT	SEGMENT PARA USE32 PUBLIC 'CODE'
_TEXT	ENDS
;	COMDAT ??$_Iter_cat@Viterator@?$_Tree@V?$_Tmap_traits@KU_Friend@@U?$less@K@std@@V?$allocator@U?$pair@$$CBKU_Friend@@@std@@@3@$0A@@std@@@std@@@std@@YA?AUbidirectional_iterator_tag@0@ABViterator@?$_Tree@V?$_Tmap_traits@KU_Friend@@U?$less@K@std@@V?$allocator@U?$pair@$$CBKU_Friend@@@std@@@3@$0A@@std@@@0@@Z
_TEXT	SEGMENT PARA USE32 PUBLIC 'CODE'
_TEXT	ENDS
;	COMDAT ??$_Distance2@Viterator@?$_Tree@V?$_Tmap_traits@KU_Friend@@U?$less@K@std@@V?$allocator@U?$pair@$$CBKU_Friend@@@std@@@3@$0A@@std@@@std@@I@std@@YAXViterator@?$_Tree@V?$_Tmap_traits@KU_Friend@@U?$less@K@std@@V?$allocator@U?$pair@$$CBKU_Friend@@@std@@@3@$0A@@std@@@0@0AAIUbidirectional_iterator_tag@0@@Z
_TEXT	SEGMENT PARA USE32 PUBLIC 'CODE'
_TEXT	ENDS
;	COMDAT ??$_Copy_opt@PAJPAJ@std@@YAPAJPAJ00U_Scalar_ptr_iterator_tag@0@@Z
_TEXT	SEGMENT PARA USE32 PUBLIC 'CODE'
_TEXT	ENDS
;	COMDAT ??$_Uninitialized_copy@PAJPAJV?$allocator@J@std@@@std@@YAPAJPAJ00AAV?$allocator@J@0@@Z
_TEXT	SEGMENT PARA USE32 PUBLIC 'CODE'
_TEXT	ENDS
;	COMDAT ??$_Copy_backward_opt@PAJPAJ@std@@YAPAJPAJ00U_Scalar_ptr_iterator_tag@0@@Z
_TEXT	SEGMENT PARA USE32 PUBLIC 'CODE'
_TEXT	ENDS
;	COMDAT ??$_Ptr_cat@PAUtagDROPITEM@@PAU1@@std@@YA?AU_Nonscalar_ptr_iterator_tag@0@AAPAUtagDROPITEM@@0@Z
_TEXT	SEGMENT PARA USE32 PUBLIC 'CODE'
_TEXT	ENDS
;	COMDAT ??$_Destroy_range@UtagDROPITEM@@V?$allocator@UtagDROPITEM@@@std@@@std@@YAXPAUtagDROPITEM@@0AAV?$allocator@UtagDROPITEM@@@0@U_Nonscalar_ptr_iterator_tag@0@@Z
_TEXT	SEGMENT PARA USE32 PUBLIC 'CODE'
_TEXT	ENDS
;	COMDAT ??$_Destroy_range@KV?$allocator@K@std@@@std@@YAXPAK0AAV?$allocator@K@0@U_Scalar_ptr_iterator_tag@0@@Z
_TEXT	SEGMENT PARA USE32 PUBLIC 'CODE'
_TEXT	ENDS
;	COMDAT ??$_Destroy_range@JV?$allocator@J@std@@@std@@YAXPAJ0AAV?$allocator@J@0@U_Scalar_ptr_iterator_tag@0@@Z
_TEXT	SEGMENT PARA USE32 PUBLIC 'CODE'
_TEXT	ENDS
;	COMDAT ??$_Uninit_fill_n@JIJ@std@@YAXPAJIABJAAV?$allocator@J@0@U_Scalar_ptr_iterator_tag@0@@Z
_TEXT	SEGMENT PARA USE32 PUBLIC 'CODE'
_TEXT	ENDS
;	COMDAT ??$?0PAX@?$allocator@PAU_Node@?$_List_nod@PAXV?$allocator@PAX@std@@@std@@@std@@QAE@ABV?$allocator@PAX@1@@Z
_TEXT	SEGMENT PARA USE32 PUBLIC 'CODE'
_TEXT	ENDS
;	COMDAT ??$_Construct@PAU_Node@?$_List_nod@PAXV?$allocator@PAX@std@@@std@@PAU123@@std@@YAXPAPAU_Node@?$_List_nod@PAXV?$allocator@PAX@std@@@0@ABQAU120@@Z
_TEXT	SEGMENT PARA USE32 PUBLIC 'CODE'
_TEXT	ENDS
;	COMDAT ??$_Destroy@PAU_Node@?$_List_nod@PAXV?$allocator@PAX@std@@@std@@@std@@YAXPAPAU_Node@?$_List_nod@PAXV?$allocator@PAX@std@@@0@@Z
_TEXT	SEGMENT PARA USE32 PUBLIC 'CODE'
_TEXT	ENDS
;	COMDAT ??$?0PAX@?$allocator@U_Node@?$_List_nod@PAXV?$allocator@PAX@std@@@std@@@std@@QAE@ABV?$allocator@PAX@1@@Z
_TEXT	SEGMENT PARA USE32 PUBLIC 'CODE'
_TEXT	ENDS
;	COMDAT ??$_Destroy@U_Node@?$_List_nod@PAXV?$allocator@PAX@std@@@std@@@std@@YAXPAU_Node@?$_List_nod@PAXV?$allocator@PAX@std@@@0@@Z
_TEXT	SEGMENT PARA USE32 PUBLIC 'CODE'
_TEXT	ENDS
;	COMDAT ?destroy@?$allocator@UtagDROPITEM@@@std@@QAEXPAUtagDROPITEM@@@Z
_TEXT	SEGMENT PARA USE32 PUBLIC 'CODE'
_TEXT	ENDS
;	COMDAT ??$_Uninit_copy@JJ@std@@YAPAJPAJ00AAV?$allocator@J@0@U_Scalar_ptr_iterator_tag@0@@Z
_TEXT	SEGMENT PARA USE32 PUBLIC 'CODE'
_TEXT	ENDS
;	COMDAT ??$fill_n@PAJIJ@std@@YAXPAJIABJ@Z
_TEXT	SEGMENT PARA USE32 PUBLIC 'CODE'
_TEXT	ENDS
;	COMDAT ??$_Destroy@UtagDROPITEM@@@std@@YAXPAUtagDROPITEM@@@Z
_TEXT	SEGMENT PARA USE32 PUBLIC 'CODE'
_TEXT	ENDS
;	COMDAT ?SetHeader@CBuffer@@UAEXK@Z
_TEXT	SEGMENT PARA USE32 PUBLIC 'CODE'
_TEXT	ENDS
;	COMDAT ?GetPacketSize@CBuffer@@UAEKPAE@Z
_TEXT	SEGMENT PARA USE32 PUBLIC 'CODE'
_TEXT	ENDS
;	COMDAT ??2@YAPAXIPAX@Z
_TEXT	SEGMENT PARA USE32 PUBLIC 'CODE'
_TEXT	ENDS
;	COMDAT ?_Ptr_cat@std@@YA?AU_Scalar_ptr_iterator_tag@1@PAJ0@Z
_TEXT	SEGMENT PARA USE32 PUBLIC 'CODE'
_TEXT	ENDS
;	COMDAT ??9const_iterator@?$_Tree@V?$_Tmap_traits@KU_Friend@@U?$less@K@std@@V?$allocator@U?$pair@$$CBKU_Friend@@@std@@@3@$0A@@std@@@std@@QBE_NABV012@@Z
_TEXT	SEGMENT PARA USE32 PUBLIC 'CODE'
_TEXT	ENDS
;	COMDAT ??8const_iterator@?$_Tree@V?$_Tmap_traits@KU_Friend@@U?$less@K@std@@V?$allocator@U?$pair@$$CBKU_Friend@@@std@@@3@$0A@@std@@@std@@QBE_NABV012@@Z
_TEXT	SEGMENT PARA USE32 PUBLIC 'CODE'
_TEXT	ENDS
;	COMDAT ??Eiterator@?$_Tree@V?$_Tmap_traits@KU_Friend@@U?$less@K@std@@V?$allocator@U?$pair@$$CBKU_Friend@@@std@@@3@$0A@@std@@@std@@QAEAAV012@XZ
_TEXT	SEGMENT PARA USE32 PUBLIC 'CODE'
_TEXT	ENDS
;	COMDAT ??Econst_iterator@?$_Tree@V?$_Tmap_traits@KU_Friend@@U?$less@K@std@@V?$allocator@U?$pair@$$CBKU_Friend@@@std@@@3@$0A@@std@@@std@@QAEAAV012@XZ
_TEXT	SEGMENT PARA USE32 PUBLIC 'CODE'
_TEXT	ENDS
;	COMDAT ?_Inc@const_iterator@?$_Tree@V?$_Tmap_traits@KU_Friend@@U?$less@K@std@@V?$allocator@U?$pair@$$CBKU_Friend@@@std@@@3@$0A@@std@@@std@@QAEXXZ
_TEXT	SEGMENT PARA USE32 PUBLIC 'CODE'
_TEXT	ENDS
;	COMDAT ?_Min@?$_Tree@V?$_Tmap_traits@KU_Friend@@U?$less@K@std@@V?$allocator@U?$pair@$$CBKU_Friend@@@std@@@3@$0A@@std@@@std@@KAPAU_Node@?$_Tree_nod@V?$_Tmap_traits@KU_Friend@@U?$less@K@std@@V?$allocator@U?$pair@$$CBKU_Friend@@@std@@@3@$0A@@std@@@2@PAU342@@Z
_TEXT	SEGMENT PARA USE32 PUBLIC 'CODE'
_TEXT	ENDS
;	COMDAT ?_Left@?$_Tree@V?$_Tmap_traits@KU_Friend@@U?$less@K@std@@V?$allocator@U?$pair@$$CBKU_Friend@@@std@@@3@$0A@@std@@@std@@KAAAPAU_Node@?$_Tree_nod@V?$_Tmap_traits@KU_Friend@@U?$less@K@std@@V?$allocator@U?$pair@$$CBKU_Friend@@@std@@@3@$0A@@std@@@2@PAU342@@Z
_TEXT	SEGMENT PARA USE32 PUBLIC 'CODE'
_TEXT	ENDS
;	COMDAT ?_Isnil@?$_Tree@V?$_Tmap_traits@KU_Friend@@U?$less@K@std@@V?$allocator@U?$pair@$$CBKU_Friend@@@std@@@3@$0A@@std@@@std@@KAAADPAU_Node@?$_Tree_nod@V?$_Tmap_traits@KU_Friend@@U?$less@K@std@@V?$allocator@U?$pair@$$CBKU_Friend@@@std@@@3@$0A@@std@@@2@@Z
_TEXT	SEGMENT PARA USE32 PUBLIC 'CODE'
_TEXT	ENDS
;	COMDAT ?_Parent@?$_Tree@V?$_Tmap_traits@KU_Friend@@U?$less@K@std@@V?$allocator@U?$pair@$$CBKU_Friend@@@std@@@3@$0A@@std@@@std@@KAAAPAU_Node@?$_Tree_nod@V?$_Tmap_traits@KU_Friend@@U?$less@K@std@@V?$allocator@U?$pair@$$CBKU_Friend@@@std@@@3@$0A@@std@@@2@PAU342@@Z
_TEXT	SEGMENT PARA USE32 PUBLIC 'CODE'
_TEXT	ENDS
;	COMDAT ?_Right@?$_Tree@V?$_Tmap_traits@KU_Friend@@U?$less@K@std@@V?$allocator@U?$pair@$$CBKU_Friend@@@std@@@3@$0A@@std@@@std@@KAAAPAU_Node@?$_Tree_nod@V?$_Tmap_traits@KU_Friend@@U?$less@K@std@@V?$allocator@U?$pair@$$CBKU_Friend@@@std@@@3@$0A@@std@@@2@PAU342@@Z
_TEXT	SEGMENT PARA USE32 PUBLIC 'CODE'
_TEXT	ENDS
;	COMDAT ?_Psave@?$_Facetptr@V?$ctype@G@std@@@std@@2PBVfacet@locale@2@B
_DATA	SEGMENT DWORD USE32 PUBLIC 'DATA'
_DATA	ENDS
;	COMDAT ?_Psave@?$_Facetptr@V?$ctype@D@std@@@std@@2PBVfacet@locale@2@B
_DATA	SEGMENT DWORD USE32 PUBLIC 'DATA'
_DATA	ENDS
;	COMDAT ?deallocate@?$allocator@U_Node@?$_List_nod@PAXV?$allocator@PAX@std@@@std@@@std@@QAEXPAU_Node@?$_List_nod@PAXV?$allocator@PAX@std@@@2@I@Z
_TEXT	SEGMENT PARA USE32 PUBLIC 'CODE'
_TEXT	ENDS
;	COMDAT ?_Prevnode@?$list@PAXV?$allocator@PAX@std@@@std@@KAAAPAU_Node@?$_List_nod@PAXV?$allocator@PAX@std@@@2@PAU342@@Z
_TEXT	SEGMENT PARA USE32 PUBLIC 'CODE'
_TEXT	ENDS
;	COMDAT ?_Nextnode@?$list@PAXV?$allocator@PAX@std@@@std@@KAAAPAU_Node@?$_List_nod@PAXV?$allocator@PAX@std@@@2@PAU342@@Z
_TEXT	SEGMENT PARA USE32 PUBLIC 'CODE'
_TEXT	ENDS
;	COMDAT ?allocate@?$allocator@U_Node@?$_List_nod@PAXV?$allocator@PAX@std@@@std@@@std@@QAEPAU_Node@?$_List_nod@PAXV?$allocator@PAX@std@@@2@I@Z
_TEXT	SEGMENT PARA USE32 PUBLIC 'CODE'
_TEXT	ENDS
;	COMDAT ??$_Allocate@U_Node@?$_List_nod@PAXV?$allocator@PAX@std@@@std@@@std@@YAPAU_Node@?$_List_nod@PAXV?$allocator@PAX@std@@@0@IPAU120@@Z
_TEXT	SEGMENT PARA USE32 PUBLIC 'CODE'
_TEXT	ENDS
;	COMDAT ?compare@?$char_traits@D@std@@SAHPBD0I@Z
_TEXT	SEGMENT PARA USE32 PUBLIC 'CODE'
_TEXT	ENDS
;	COMDAT ?Create@?$MemPooler@VCBuffer2@@@@IAEXXZ
_TEXT	SEGMENT PARA USE32 PUBLIC 'CODE'
_TEXT	ENDS
;	COMDAT ??_C@_09PKKCPLIP@bad?5alloc?$AA@
CONST	SEGMENT DWORD USE32 PUBLIC 'CONST'
CONST	ENDS
;	COMDAT ?push_back@?$list@PAXV?$allocator@PAX@std@@@std@@QAEXABQAX@Z
_TEXT	SEGMENT PARA USE32 PUBLIC 'CODE'
_TEXT	ENDS
;	COMDAT ?_Insert@?$list@PAXV?$allocator@PAX@std@@@std@@QAEXViterator@12@ABQAX@Z
_TEXT	SEGMENT PARA USE32 PUBLIC 'CODE'
_TEXT	ENDS
;	COMDAT ?_Mynode@const_iterator@?$list@PAXV?$allocator@PAX@std@@@std@@QBEPAU_Node@?$_List_nod@PAXV?$allocator@PAX@std@@@3@XZ
_TEXT	SEGMENT PARA USE32 PUBLIC 'CODE'
_TEXT	ENDS
;	COMDAT ?_Buynode@?$list@PAXV?$allocator@PAX@std@@@std@@IAEPAU_Node@?$_List_nod@PAXV?$allocator@PAX@std@@@2@PAU342@0ABQAX@Z
_TEXT	SEGMENT PARA USE32 PUBLIC 'CODE'
_TEXT	ENDS
;	COMDAT ??3@YAXPAX0@Z
_TEXT	SEGMENT PARA USE32 PUBLIC 'CODE'
_TEXT	ENDS
;	COMDAT ??0_Node@?$_List_nod@PAXV?$allocator@PAX@std@@@std@@QAE@PAU012@0ABQAX@Z
_TEXT	SEGMENT PARA USE32 PUBLIC 'CODE'
_TEXT	ENDS
;	COMDAT ?_Incsize@?$list@PAXV?$allocator@PAX@std@@@std@@IAEXI@Z
_TEXT	SEGMENT PARA USE32 PUBLIC 'CODE'
_TEXT	ENDS
;	COMDAT ?max_size@?$list@PAXV?$allocator@PAX@std@@@std@@QBEIXZ
_TEXT	SEGMENT PARA USE32 PUBLIC 'CODE'
_TEXT	ENDS
;	COMDAT ?max_size@?$allocator@PAX@std@@QBEIXZ
_TEXT	SEGMENT PARA USE32 PUBLIC 'CODE'
_TEXT	ENDS
;	COMDAT ??0length_error@std@@QAE@ABV?$basic_string@DU?$char_traits@D@std@@V?$allocator@D@2@@1@@Z
_TEXT	SEGMENT PARA USE32 PUBLIC 'CODE'
_TEXT	ENDS
;	COMDAT ??0logic_error@std@@QAE@ABV?$basic_string@DU?$char_traits@D@std@@V?$allocator@D@2@@1@@Z
_TEXT	SEGMENT PARA USE32 PUBLIC 'CODE'
_TEXT	ENDS
;	COMDAT ??_7logic_error@std@@6B@
CONST	SEGMENT DWORD USE32 PUBLIC 'CONST'
CONST	ENDS
;	COMDAT ??_Glogic_error@std@@UAEPAXI@Z
_TEXT	SEGMENT PARA USE32 PUBLIC 'CODE'
_TEXT	ENDS
;	COMDAT ?what@logic_error@std@@UBEPBDXZ
_TEXT	SEGMENT PARA USE32 PUBLIC 'CODE'
_TEXT	ENDS
;	COMDAT ?c_str@?$basic_string@DU?$char_traits@D@std@@V?$allocator@D@2@@std@@QBEPBDXZ
_TEXT	SEGMENT PARA USE32 PUBLIC 'CODE'
_TEXT	ENDS
;	COMDAT ??0?$basic_string@DU?$char_traits@D@std@@V?$allocator@D@2@@std@@QAE@ABV01@@Z
_TEXT	SEGMENT PARA USE32 PUBLIC 'CODE'
_TEXT	ENDS
;	COMDAT ??0?$_String_val@DV?$allocator@D@std@@@std@@IAE@V?$allocator@D@1@@Z
_TEXT	SEGMENT PARA USE32 PUBLIC 'CODE'
_TEXT	ENDS
;	COMDAT ??0?$allocator@D@std@@QAE@ABV01@@Z
_TEXT	SEGMENT PARA USE32 PUBLIC 'CODE'
_TEXT	ENDS
;	COMDAT ?_Tidy@?$basic_string@DU?$char_traits@D@std@@V?$allocator@D@2@@std@@IAEX_NI@Z
_TEXT	SEGMENT PARA USE32 PUBLIC 'CODE'
_TEXT	ENDS
;	COMDAT ?copy@?$char_traits@D@std@@SAPADPADPBDI@Z
_TEXT	SEGMENT PARA USE32 PUBLIC 'CODE'
_TEXT	ENDS
;	COMDAT ?deallocate@?$allocator@D@std@@QAEXPADI@Z
_TEXT	SEGMENT PARA USE32 PUBLIC 'CODE'
_TEXT	ENDS
;	COMDAT ?_Eos@?$basic_string@DU?$char_traits@D@std@@V?$allocator@D@2@@std@@IAEXI@Z
_TEXT	SEGMENT PARA USE32 PUBLIC 'CODE'
_TEXT	ENDS
;	COMDAT ?assign@?$char_traits@D@std@@SAXAADABD@Z
_TEXT	SEGMENT PARA USE32 PUBLIC 'CODE'
_TEXT	ENDS
;	COMDAT ?_Myptr@?$basic_string@DU?$char_traits@D@std@@V?$allocator@D@2@@std@@QAEPADXZ
_TEXT	SEGMENT PARA USE32 PUBLIC 'CODE'
_TEXT	ENDS
;	COMDAT ?assign@?$basic_string@DU?$char_traits@D@std@@V?$allocator@D@2@@std@@QAEAAV12@ABV12@II@Z
_TEXT	SEGMENT PARA USE32 PUBLIC 'CODE'
_TEXT	ENDS
;	COMDAT ?erase@?$basic_string@DU?$char_traits@D@std@@V?$allocator@D@2@@std@@QAEAAV12@II@Z
_TEXT	SEGMENT PARA USE32 PUBLIC 'CODE'
_TEXT	ENDS
;	COMDAT ?move@?$char_traits@D@std@@SAPADPADPBDI@Z
_TEXT	SEGMENT PARA USE32 PUBLIC 'CODE'
_TEXT	ENDS
;	COMDAT ?_Grow@?$basic_string@DU?$char_traits@D@std@@V?$allocator@D@2@@std@@IAE_NI_N@Z
_TEXT	SEGMENT PARA USE32 PUBLIC 'CODE'
_TEXT	ENDS
;	COMDAT ?max_size@?$basic_string@DU?$char_traits@D@std@@V?$allocator@D@2@@std@@QBEIXZ
_TEXT	SEGMENT PARA USE32 PUBLIC 'CODE'
_TEXT	ENDS
;	COMDAT ?max_size@?$allocator@D@std@@QBEIXZ
_TEXT	SEGMENT PARA USE32 PUBLIC 'CODE'
_TEXT	ENDS
;	COMDAT ?_Copy@?$basic_string@DU?$char_traits@D@std@@V?$allocator@D@2@@std@@IAEXII@Z
_TEXT	SEGMENT PARA USE32 PUBLIC 'CODE'
_TEXT	ENDS
;	COMDAT ?allocate@?$allocator@D@std@@QAEPADI@Z
_TEXT	SEGMENT PARA USE32 PUBLIC 'CODE'
_TEXT	ENDS
;	COMDAT ??$_Allocate@D@std@@YAPADIPAD@Z
_TEXT	SEGMENT PARA USE32 PUBLIC 'CODE'
_TEXT	ENDS
;	COMDAT ?npos@?$basic_string@DU?$char_traits@D@std@@V?$allocator@D@2@@std@@2IB
CONST	SEGMENT DWORD USE32 PUBLIC 'CONST'
CONST	ENDS
;	COMDAT ??1logic_error@std@@UAE@XZ
_TEXT	SEGMENT PARA USE32 PUBLIC 'CODE'
_TEXT	ENDS
;	COMDAT ??_7length_error@std@@6B@
CONST	SEGMENT DWORD USE32 PUBLIC 'CONST'
CONST	ENDS
;	COMDAT ??_Glength_error@std@@UAEPAXI@Z
_TEXT	SEGMENT PARA USE32 PUBLIC 'CODE'
_TEXT	ENDS
;	COMDAT ??1length_error@std@@UAE@XZ
_TEXT	SEGMENT PARA USE32 PUBLIC 'CODE'
_TEXT	ENDS
;	COMDAT ??0?$basic_string@DU?$char_traits@D@std@@V?$allocator@D@2@@std@@QAE@PBD@Z
_TEXT	SEGMENT PARA USE32 PUBLIC 'CODE'
_TEXT	ENDS
;	COMDAT ??0?$allocator@D@std@@QAE@XZ
_TEXT	SEGMENT PARA USE32 PUBLIC 'CODE'
_TEXT	ENDS
;	COMDAT ?assign@?$basic_string@DU?$char_traits@D@std@@V?$allocator@D@2@@std@@QAEAAV12@PBD@Z
_TEXT	SEGMENT PARA USE32 PUBLIC 'CODE'
_TEXT	ENDS
;	COMDAT ?assign@?$basic_string@DU?$char_traits@D@std@@V?$allocator@D@2@@std@@QAEAAV12@PBDI@Z
_TEXT	SEGMENT PARA USE32 PUBLIC 'CODE'
_TEXT	ENDS
;	COMDAT ?_Inside@?$basic_string@DU?$char_traits@D@std@@V?$allocator@D@2@@std@@IAE_NPBD@Z
_TEXT	SEGMENT PARA USE32 PUBLIC 'CODE'
_TEXT	ENDS
;	COMDAT ?length@?$char_traits@D@std@@SAIPBD@Z
_TEXT	SEGMENT PARA USE32 PUBLIC 'CODE'
_TEXT	ENDS
;	COMDAT ??_C@_0BB@MOGOBHAF@list?$DMT?$DO?5too?5long?$AA@
CONST	SEGMENT DWORD USE32 PUBLIC 'CONST'
CONST	ENDS
;	COMDAT ??1?$basic_string@DU?$char_traits@D@std@@V?$allocator@D@2@@std@@QAE@XZ
_TEXT	SEGMENT PARA USE32 PUBLIC 'CODE'
_TEXT	ENDS
;	COMDAT __TI3?AVlength_error@std@@
xdata$x	SEGMENT DWORD USE32 PUBLIC 'CONST'
xdata$x	ENDS
;	COMDAT __CTA3?AVlength_error@std@@
xdata$x	SEGMENT DWORD USE32 PUBLIC 'CONST'
xdata$x	ENDS
;	COMDAT __CT??_R0?AVlength_error@std@@@8??0length_error@std@@QAE@ABV01@@Z40
xdata$x	SEGMENT DWORD USE32 PUBLIC 'CONST'
xdata$x	ENDS
;	COMDAT ??_R0?AVlength_error@std@@@8
_DATA	SEGMENT DWORD USE32 PUBLIC 'DATA'
_DATA	ENDS
;	COMDAT ??0length_error@std@@QAE@ABV01@@Z
_TEXT	SEGMENT PARA USE32 PUBLIC 'CODE'
_TEXT	ENDS
;	COMDAT ??0logic_error@std@@QAE@ABV01@@Z
_TEXT	SEGMENT PARA USE32 PUBLIC 'CODE'
_TEXT	ENDS
;	COMDAT __CT??_R0?AVlogic_error@std@@@8??0logic_error@std@@QAE@ABV01@@Z40
xdata$x	SEGMENT DWORD USE32 PUBLIC 'CONST'
xdata$x	ENDS
;	COMDAT ??_R0?AVlogic_error@std@@@8
_DATA	SEGMENT DWORD USE32 PUBLIC 'DATA'
_DATA	ENDS
;	COMDAT __CT??_R0?AVexception@@@8??0exception@@QAE@ABV0@@Z12
xdata$x	SEGMENT DWORD USE32 PUBLIC 'CONST'
xdata$x	ENDS
;	COMDAT ??_R0?AVexception@@@8
_DATA	SEGMENT DWORD USE32 PUBLIC 'DATA'
_DATA	ENDS
;	COMDAT ?end@?$list@PAXV?$allocator@PAX@std@@@std@@QAE?AViterator@12@XZ
_TEXT	SEGMENT PARA USE32 PUBLIC 'CODE'
_TEXT	ENDS
;	COMDAT ??0iterator@?$list@PAXV?$allocator@PAX@std@@@std@@QAE@PAU_Node@?$_List_nod@PAXV?$allocator@PAX@std@@@2@@Z
_TEXT	SEGMENT PARA USE32 PUBLIC 'CODE'
_TEXT	ENDS
;	COMDAT ??0const_iterator@?$list@PAXV?$allocator@PAX@std@@@std@@QAE@PAU_Node@?$_List_nod@PAXV?$allocator@PAX@std@@@2@@Z
_TEXT	SEGMENT PARA USE32 PUBLIC 'CODE'
_TEXT	ENDS
;	COMDAT ?Create@?$MemPooler@VCBuffer@@@@IAEXXZ
_TEXT	SEGMENT PARA USE32 PUBLIC 'CODE'
_TEXT	ENDS
;	COMDAT ?_Myptr@?$basic_string@DU?$char_traits@D@std@@V?$allocator@D@2@@std@@QBEPBDXZ
_TEXT	SEGMENT PARA USE32 PUBLIC 'CODE'
_TEXT	ENDS
;	COMDAT ?size@?$basic_string@DU?$char_traits@D@std@@V?$allocator@D@2@@std@@QBEIXZ
_TEXT	SEGMENT PARA USE32 PUBLIC 'CODE'
_TEXT	ENDS
;	COMDAT ??0CBuffer2@@QAE@K@Z
_TEXT	SEGMENT PARA USE32 PUBLIC 'CODE'
_TEXT	ENDS
;	COMDAT ??_7CBuffer2@@6B@
CONST	SEGMENT DWORD USE32 PUBLIC 'CONST'
CONST	ENDS
;	COMDAT ??_GCBuffer2@@UAEPAXI@Z
_TEXT	SEGMENT PARA USE32 PUBLIC 'CODE'
_TEXT	ENDS
;	COMDAT ??1CBuffer2@@UAE@XZ
_TEXT	SEGMENT PARA USE32 PUBLIC 'CODE'
_TEXT	ENDS
;	COMDAT ?GetPacketSize@CBuffer2@@UAEKPAE@Z
_TEXT	SEGMENT PARA USE32 PUBLIC 'CODE'
_TEXT	ENDS
;	COMDAT ?SetHeader@CBuffer2@@UAEXK@Z
_TEXT	SEGMENT PARA USE32 PUBLIC 'CODE'
_TEXT	ENDS
;	COMDAT ??3CBuffer2@@SAXPAX@Z
_TEXT	SEGMENT PARA USE32 PUBLIC 'CODE'
_TEXT	ENDS
;	COMDAT ?Free@?$MemPooler@VCBuffer2@@@@QAEHPAVCBuffer2@@@Z
_TEXT	SEGMENT PARA USE32 PUBLIC 'CODE'
_TEXT	ENDS
;	COMDAT ??2CBuffer2@@SAPAXI@Z
_TEXT	SEGMENT PARA USE32 PUBLIC 'CODE'
_TEXT	ENDS
;	COMDAT ?Alloc@?$MemPooler@VCBuffer2@@@@QAEPAVCBuffer2@@XZ
_TEXT	SEGMENT PARA USE32 PUBLIC 'CODE'
_TEXT	ENDS
;	COMDAT ??2CBuffer@@SAPAXI@Z
_TEXT	SEGMENT PARA USE32 PUBLIC 'CODE'
_TEXT	ENDS
;	COMDAT ?Alloc@?$MemPooler@VCBuffer@@@@QAEPAVCBuffer@@XZ
_TEXT	SEGMENT PARA USE32 PUBLIC 'CODE'
_TEXT	ENDS
;	COMDAT ?g_factory@?1??GetInstance@CBufferFactory@@SAAAV2@XZ@4V2@A
_BSS	SEGMENT DWORD USE32 PUBLIC 'BSS'
_BSS	ENDS
;	COMDAT ?$S7@?1??GetInstance@CBufferFactory@@SAAAV2@XZ@4IA
_BSS	SEGMENT DWORD USE32 PUBLIC 'BSS'
_BSS	ENDS
;	COMDAT ?GetReadableBuffer@CBuffer@@QAEPAEPAH@Z
_TEXT	SEGMENT PARA USE32 PUBLIC 'CODE'
_TEXT	ENDS
;	COMDAT ?RemoveHead@CBufferQueue@@QAEXXZ
_TEXT	SEGMENT PARA USE32 PUBLIC 'CODE'
_TEXT	ENDS
;	COMDAT ?IsEmpty@CBufferQueue@@QAEHXZ
_TEXT	SEGMENT PARA USE32 PUBLIC 'CODE'
_TEXT	ENDS
;	COMDAT ?GetReadableBufferSize@CBuffer@@QAEHXZ
_TEXT	SEGMENT PARA USE32 PUBLIC 'CODE'
_TEXT	ENDS
;	COMDAT ?GetWritableBuffer@CBuffer@@QAEPAEPAH@Z
_TEXT	SEGMENT PARA USE32 PUBLIC 'CODE'
_TEXT	ENDS
;	COMDAT ?AddTail@CBufferQueue@@QAEXPAVCBuffer@@@Z
_TEXT	SEGMENT PARA USE32 PUBLIC 'CODE'
_TEXT	ENDS
;	COMDAT ?GetHeaderLength@CBuffer@@QAEKXZ
_TEXT	SEGMENT PARA USE32 PUBLIC 'CODE'
_TEXT	ENDS
;	COMDAT ?GetWritableBufferSize@CBuffer@@QAEHXZ
_TEXT	SEGMENT PARA USE32 PUBLIC 'CODE'
_TEXT	ENDS
;	COMDAT ?GetTail@CBufferQueue@@QAEPAVCBuffer@@XZ
_TEXT	SEGMENT PARA USE32 PUBLIC 'CODE'
_TEXT	ENDS
;	COMDAT ?GetHead@CBufferQueue@@QAEPAVCBuffer@@XZ
_TEXT	SEGMENT PARA USE32 PUBLIC 'CODE'
_TEXT	ENDS
;	COMDAT ??1CMclAutoLock@@QAE@XZ
_TEXT	SEGMENT PARA USE32 PUBLIC 'CODE'
_TEXT	ENDS
;	COMDAT ?Leave@CMclCritSec@@QAEXXZ
_TEXT	SEGMENT PARA USE32 PUBLIC 'CODE'
_TEXT	ENDS
;	COMDAT ??0CMclAutoLock@@QAE@AAVCMclCritSec@@@Z
_TEXT	SEGMENT PARA USE32 PUBLIC 'CODE'
_TEXT	ENDS
;	COMDAT ?Enter@CMclCritSec@@QAEXXZ
_TEXT	SEGMENT PARA USE32 PUBLIC 'CODE'
_TEXT	ENDS
;	COMDAT ??1CMclCritSec@@UAE@XZ
_TEXT	SEGMENT PARA USE32 PUBLIC 'CODE'
_TEXT	ENDS
;	COMDAT ??_7CMclCritSec@@6B@
CONST	SEGMENT DWORD USE32 PUBLIC 'CONST'
CONST	ENDS
;	COMDAT ??_GCMclCritSec@@UAEPAXI@Z
_TEXT	SEGMENT PARA USE32 PUBLIC 'CODE'
_TEXT	ENDS
;	COMDAT ??0CMclCritSec@@QAE@XZ
_TEXT	SEGMENT PARA USE32 PUBLIC 'CODE'
_TEXT	ENDS
;	COMDAT ??_7CBufferQueue@@6B@
CONST	SEGMENT DWORD USE32 PUBLIC 'CONST'
CONST	ENDS
;	COMDAT ??3CBuffer@@SAXPAX@Z
_TEXT	SEGMENT PARA USE32 PUBLIC 'CODE'
_TEXT	ENDS
;	COMDAT ?Free@?$MemPooler@VCBuffer@@@@QAEHPAVCBuffer@@@Z
_TEXT	SEGMENT PARA USE32 PUBLIC 'CODE'
_TEXT	ENDS
;	COMDAT ??_7CBuffer@@6B@
CONST	SEGMENT DWORD USE32 PUBLIC 'CONST'
CONST	ENDS
sxdata	SEGMENT DWORD USE32 'SXDATA'
sxdata	ENDS
FLAT	GROUP _DATA, CONST, _BSS
	ASSUME	CS: FLAT, DS: FLAT, SS: FLAT
endif

INCLUDELIB LIBCMT
INCLUDELIB OLDNAMES

PUBLIC	??0CBuffer@@QAE@K@Z				; CBuffer::CBuffer
PUBLIC	?GetPacketSize@CBuffer@@UAEKPAE@Z		; CBuffer::GetPacketSize
PUBLIC	?SetHeader@CBuffer@@UAEXK@Z			; CBuffer::SetHeader
PUBLIC	??_7CBuffer@@6B@				; CBuffer::`vftable'
PUBLIC	??_GCBuffer@@UAEPAXI@Z				; CBuffer::`scalar deleting destructor'
EXTRN	??_ECBuffer@@UAEPAXI@Z:NEAR			; CBuffer::`vector deleting destructor'
EXTRN	?Malloc@CHeapMng@@QAEPAXI@Z:NEAR		; CHeapMng::Malloc
;	COMDAT ??_7CBuffer@@6B@
; File c:\documents and settings\test\mes documents\source\virtuos_v17\build\program\_network\net\src\buffer.cpp
CONST	SEGMENT
??_7CBuffer@@6B@ DD FLAT:??_ECBuffer@@UAEPAXI@Z		; CBuffer::`vftable'
	DD	FLAT:?GetPacketSize@CBuffer@@UAEKPAE@Z
	DD	FLAT:?SetHeader@CBuffer@@UAEXK@Z
; Function compile flags: /Ogty
CONST	ENDS
;	COMDAT ??0CBuffer@@QAE@K@Z
_TEXT	SEGMENT
_uBufSize$ = 8						; size = 4
??0CBuffer@@QAE@K@Z PROC NEAR				; CBuffer::CBuffer, COMDAT
; _this$ = ecx

; 38   : {

  00000	56		 push	 esi
  00001	57		 push	 edi

; 39   : 	if( uBufSize > MAX_BUFFER ) {

  00002	8b 7c 24 0c	 mov	 edi, DWORD PTR _uBufSize$[esp+4]
  00006	81 ff 00 20 00
	00		 cmp	 edi, 8192		; 00002000H
  0000c	8b f1		 mov	 esi, ecx
  0000e	c7 06 00 00 00
	00		 mov	 DWORD PTR [esi], OFFSET FLAT:??_7CBuffer@@6B@
  00014	76 0e		 jbe	 SHORT $L186731

; 40   : 		m_lpBufStart	= (LPBYTE)CBuffer::m_pHeapMng->Malloc( uBufSize );

  00016	8b 0d 00 00 00
	00		 mov	 ecx, DWORD PTR ?m_pHeapMng@CBuffer@@2PAVCHeapMng@@A ; CBuffer::m_pHeapMng
  0001c	57		 push	 edi
  0001d	e8 00 00 00 00	 call	 ?Malloc@CHeapMng@@QAEPAXI@Z ; CHeapMng::Malloc

; 41   : //		ASSERT( m_lpBufStart );
; 42   : 	}
; 43   : 	else {

  00022	eb 08		 jmp	 SHORT $L187223
$L186731:

; 44   : 		m_lpBufStart	= m_lpBuf;

  00024	8d 46 0c	 lea	 eax, DWORD PTR [esi+12]

; 45   : 		uBufSize	= MAX_BUFFER;

  00027	bf 00 20 00 00	 mov	 edi, 8192		; 00002000H
$L187223:
  0002c	89 86 0c 20 00
	00		 mov	 DWORD PTR [esi+8204], eax

; 46   : 	}
; 47   : 	m_pHead		= m_pTail	= m_lpBufStart;

  00032	89 86 18 20 00
	00		 mov	 DWORD PTR [esi+8216], eax
  00038	89 86 14 20 00
	00		 mov	 DWORD PTR [esi+8212], eax

; 48   : 	m_lpBufMax	= m_lpBufStart + uBufSize;

  0003e	03 c7		 add	 eax, edi
  00040	89 86 10 20 00
	00		 mov	 DWORD PTR [esi+8208], eax

; 49   : 	cb	= 0;

  00046	33 c0		 xor	 eax, eax
  00048	89 46 08	 mov	 DWORD PTR [esi+8], eax

; 50   : 	dpid	= DPID_UNKNOWN;
; 51   : 	pPrevious	= pNext		= NULL;

  0004b	89 86 1c 20 00
	00		 mov	 DWORD PTR [esi+8220], eax
  00051	89 86 20 20 00
	00		 mov	 DWORD PTR [esi+8224], eax
  00057	5f		 pop	 edi
  00058	c7 46 04 ff ff
	ff ff		 mov	 DWORD PTR [esi+4], -1

; 52   : 	m_dwHeaderSize = sizeof(DWORD) + 1;

  0005f	c7 86 24 20 00
	00 05 00 00 00	 mov	 DWORD PTR [esi+8228], 5

; 53   : }

  00069	8b c6		 mov	 eax, esi
  0006b	5e		 pop	 esi
  0006c	c2 04 00	 ret	 4
??0CBuffer@@QAE@K@Z ENDP				; CBuffer::CBuffer
_TEXT	ENDS
PUBLIC	??2@YAPAXIPAX@Z					; operator new
; Function compile flags: /Ogty
; File c:\program files\microsoft visual studio .net 2003\vc7\include\new.h
;	COMDAT ??2@YAPAXIPAX@Z
_TEXT	SEGMENT
___formal$ = 8						; size = 4
__P$ = 12						; size = 4
??2@YAPAXIPAX@Z PROC NEAR				; operator new, COMDAT

; 109  :         {return (_P); }

  00000	8b 44 24 08	 mov	 eax, DWORD PTR __P$[esp-4]
  00004	c3		 ret	 0
??2@YAPAXIPAX@Z ENDP					; operator new
_TEXT	ENDS
PUBLIC	??3@YAXPAX0@Z					; operator delete
; Function compile flags: /Ogty
;	COMDAT ??3@YAXPAX0@Z
_TEXT	SEGMENT
___formal$ = 8						; size = 4
___formal$ = 12						; size = 4
??3@YAXPAX0@Z PROC NEAR					; operator delete, COMDAT

; 112  :         {return; }

  00000	c3		 ret	 0
??3@YAXPAX0@Z ENDP					; operator delete
_TEXT	ENDS
PUBLIC	??1CBuffer@@UAE@XZ				; CBuffer::~CBuffer
EXTRN	?Free@CHeapMng@@QAEXPAX@Z:NEAR			; CHeapMng::Free
; Function compile flags: /Ogty
; File c:\documents and settings\test\mes documents\source\virtuos_v17\build\program\_network\net\src\buffer.cpp
;	COMDAT ??1CBuffer@@UAE@XZ
_TEXT	SEGMENT
??1CBuffer@@UAE@XZ PROC NEAR				; CBuffer::~CBuffer, COMDAT
; _this$ = ecx

; 57   : 	if( m_lpBufMax - m_lpBufStart > MAX_BUFFER )

  00000	8b 81 0c 20 00
	00		 mov	 eax, DWORD PTR [ecx+8204]
  00006	c7 01 00 00 00
	00		 mov	 DWORD PTR [ecx], OFFSET FLAT:??_7CBuffer@@6B@
  0000c	8b 89 10 20 00
	00		 mov	 ecx, DWORD PTR [ecx+8208]
  00012	2b c8		 sub	 ecx, eax
  00014	81 f9 00 20 00
	00		 cmp	 ecx, 8192		; 00002000H
  0001a	7e 0c		 jle	 SHORT $L186742

; 58   : 	{
; 59   : #ifdef __SO1014
; 60   : 		if( m_lpBufStart )
; 61   : #endif	// __SO1014
; 62   : #ifdef __VM_0819
; 63   : 			CBuffer::m_pHeapMng->Free( m_lpBufStart, GetSize() );
; 64   : #else	// __VM_0819
; 65   : 			CBuffer::m_pHeapMng->Free( m_lpBufStart );

  0001c	8b 0d 00 00 00
	00		 mov	 ecx, DWORD PTR ?m_pHeapMng@CBuffer@@2PAVCHeapMng@@A ; CBuffer::m_pHeapMng
  00022	50		 push	 eax
  00023	e8 00 00 00 00	 call	 ?Free@CHeapMng@@QAEXPAX@Z ; CHeapMng::Free
$L186742:

; 66   : #endif	// __VM_0819
; 67   : 	}
; 68   : }

  00028	c3		 ret	 0
??1CBuffer@@UAE@XZ ENDP					; CBuffer::~CBuffer
_TEXT	ENDS
PUBLIC	??0CBufferFactory@@AAE@XZ			; CBufferFactory::CBufferFactory
; Function compile flags: /Ogty
;	COMDAT ??0CBufferFactory@@AAE@XZ
_TEXT	SEGMENT
??0CBufferFactory@@AAE@XZ PROC NEAR			; CBufferFactory::CBufferFactory, COMDAT
; _this$ = ecx

; 270  : {

  00000	8b c1		 mov	 eax, ecx

; 271  : }

  00002	c3		 ret	 0
??0CBufferFactory@@AAE@XZ ENDP				; CBufferFactory::CBufferFactory
_TEXT	ENDS
PUBLIC	?GetInstance@CBufferFactory@@SAAAV1@XZ		; CBufferFactory::GetInstance
;	COMDAT ?g_factory@?1??GetInstance@CBufferFactory@@SAAAV2@XZ@4V2@A
_BSS	SEGMENT
?g_factory@?1??GetInstance@CBufferFactory@@SAAAV2@XZ@4V2@A DB 01H DUP (?) ; `CBufferFactory::GetInstance'::`2'::g_factory
_BSS	ENDS
;	COMDAT ?$S7@?1??GetInstance@CBufferFactory@@SAAAV2@XZ@4IA
_BSS	SEGMENT
?$S7@?1??GetInstance@CBufferFactory@@SAAAV2@XZ@4IA DD 01H DUP (?) ; `CBufferFactory::GetInstance'::`2'::$S7
; Function compile flags: /Ogty
_BSS	ENDS
;	COMDAT ?GetInstance@CBufferFactory@@SAAAV1@XZ
_TEXT	SEGMENT
?GetInstance@CBufferFactory@@SAAAV1@XZ PROC NEAR	; CBufferFactory::GetInstance, COMDAT

; 275  : 	static CBufferFactory g_factory;

  00000	8a 0d 00 00 00
	00		 mov	 cl, BYTE PTR ?$S7@?1??GetInstance@CBufferFactory@@SAAAV2@XZ@4IA
  00006	b8 01 00 00 00	 mov	 eax, 1
  0000b	84 c8		 test	 cl, al
  0000d	75 06		 jne	 SHORT $L187238
  0000f	09 05 00 00 00
	00		 or	 DWORD PTR ?$S7@?1??GetInstance@CBufferFactory@@SAAAV2@XZ@4IA, eax
$L187238:

; 276  : 	return g_factory;

  00015	b8 00 00 00 00	 mov	 eax, OFFSET FLAT:?g_factory@?1??GetInstance@CBufferFactory@@SAAAV2@XZ@4V2@A

; 277  : }

  0001a	c3		 ret	 0
?GetInstance@CBufferFactory@@SAAAV1@XZ ENDP		; CBufferFactory::GetInstance
_TEXT	ENDS
PUBLIC	??0?$allocator@PAX@std@@QAE@XZ			; std::allocator<void *>::allocator<void *>
; Function compile flags: /Ogty
; File c:\program files\microsoft visual studio .net 2003\vc7\include\xmemory
;	COMDAT ??0?$allocator@PAX@std@@QAE@XZ
_TEXT	SEGMENT
??0?$allocator@PAX@std@@QAE@XZ PROC NEAR		; std::allocator<void *>::allocator<void *>, COMDAT
; _this$ = ecx

; 111  : 	allocator()

  00000	8b c1		 mov	 eax, ecx

; 112  : 		{	// construct default allocator (do nothing)
; 113  : 		}

  00002	c3		 ret	 0
??0?$allocator@PAX@std@@QAE@XZ ENDP			; std::allocator<void *>::allocator<void *>
_TEXT	ENDS
PUBLIC	??0?$allocator@PAX@std@@QAE@ABV01@@Z		; std::allocator<void *>::allocator<void *>
; Function compile flags: /Ogty
;	COMDAT ??0?$allocator@PAX@std@@QAE@ABV01@@Z
_TEXT	SEGMENT
___formal$ = 8						; size = 4
??0?$allocator@PAX@std@@QAE@ABV01@@Z PROC NEAR		; std::allocator<void *>::allocator<void *>, COMDAT
; _this$ = ecx

; 115  : 	allocator(const allocator<_Ty>&)

  00000	8b c1		 mov	 eax, ecx

; 116  : 		{	// construct by copying (do nothing)
; 117  : 		}

  00002	c2 04 00	 ret	 4
??0?$allocator@PAX@std@@QAE@ABV01@@Z ENDP		; std::allocator<void *>::allocator<void *>
_TEXT	ENDS
PUBLIC	??$?0PAX@?$allocator@PAU_Node@?$_List_nod@PAXV?$allocator@PAX@std@@@std@@@std@@QAE@ABV?$allocator@PAX@1@@Z ; std::allocator<std::_List_nod<void *,std::allocator<void *> >::_Node *>::allocator<std::_List_nod<void *,std::allocator<void *> >::_Node *><void *>
; Function compile flags: /Ogty
;	COMDAT ??$?0PAX@?$allocator@PAU_Node@?$_List_nod@PAXV?$allocator@PAX@std@@@std@@@std@@QAE@ABV?$allocator@PAX@1@@Z
_TEXT	SEGMENT
___formal$ = 8						; size = 4
??$?0PAX@?$allocator@PAU_Node@?$_List_nod@PAXV?$allocator@PAX@std@@@std@@@std@@QAE@ABV?$allocator@PAX@1@@Z PROC NEAR ; std::allocator<std::_List_nod<void *,std::allocator<void *> >::_Node *>::allocator<std::_List_nod<void *,std::allocator<void *> >::_Node *><void *>, COMDAT
; _this$ = ecx

; 120  : 		allocator(const allocator<_Other>&)

  00000	8b c1		 mov	 eax, ecx

; 121  : 		{	// construct from a related allocator (do nothing)
; 122  : 		}

  00002	c2 04 00	 ret	 4
??$?0PAX@?$allocator@PAU_Node@?$_List_nod@PAXV?$allocator@PAX@std@@@std@@@std@@QAE@ABV?$allocator@PAX@1@@Z ENDP ; std::allocator<std::_List_nod<void *,std::allocator<void *> >::_Node *>::allocator<std::_List_nod<void *,std::allocator<void *> >::_Node *><void *>
_TEXT	ENDS
PUBLIC	??$_Construct@PAU_Node@?$_List_nod@PAXV?$allocator@PAX@std@@@std@@PAU123@@std@@YAXPAPAU_Node@?$_List_nod@PAXV?$allocator@PAX@std@@@0@ABQAU120@@Z ; std::_Construct<std::_List_nod<void *,std::allocator<void *> >::_Node *,std::_List_nod<void *,std::allocator<void *> >::_Node *>
; Function compile flags: /Ogty
;	COMDAT ??$_Construct@PAU_Node@?$_List_nod@PAXV?$allocator@PAX@std@@@std@@PAU123@@std@@YAXPAPAU_Node@?$_List_nod@PAXV?$allocator@PAX@std@@@0@ABQAU120@@Z
_TEXT	SEGMENT
__Ptr$ = 8						; size = 4
__Val$ = 12						; size = 4
??$_Construct@PAU_Node@?$_List_nod@PAXV?$allocator@PAX@std@@@std@@PAU123@@std@@YAXPAPAU_Node@?$_List_nod@PAXV?$allocator@PAX@std@@@0@ABQAU120@@Z PROC NEAR ; std::_Construct<std::_List_nod<void *,std::allocator<void *> >::_Node *,std::_List_nod<void *,std::allocator<void *> >::_Node *>, COMDAT

; 42   : 	new ((void _FARQ *)_Ptr) _T1(_Val);

  00000	8b 44 24 04	 mov	 eax, DWORD PTR __Ptr$[esp-4]
  00004	85 c0		 test	 eax, eax
  00006	74 08		 je	 SHORT $L187248
  00008	8b 4c 24 08	 mov	 ecx, DWORD PTR __Val$[esp-4]
  0000c	8b 11		 mov	 edx, DWORD PTR [ecx]
  0000e	89 10		 mov	 DWORD PTR [eax], edx
$L187248:

; 43   : 	}

  00010	c3		 ret	 0
??$_Construct@PAU_Node@?$_List_nod@PAXV?$allocator@PAX@std@@@std@@PAU123@@std@@YAXPAPAU_Node@?$_List_nod@PAXV?$allocator@PAX@std@@@0@ABQAU120@@Z ENDP ; std::_Construct<std::_List_nod<void *,std::allocator<void *> >::_Node *,std::_List_nod<void *,std::allocator<void *> >::_Node *>
_TEXT	ENDS
PUBLIC	??$_Destroy@PAU_Node@?$_List_nod@PAXV?$allocator@PAX@std@@@std@@@std@@YAXPAPAU_Node@?$_List_nod@PAXV?$allocator@PAX@std@@@0@@Z ; std::_Destroy<std::_List_nod<void *,std::allocator<void *> >::_Node *>
; Function compile flags: /Ogty
;	COMDAT ??$_Destroy@PAU_Node@?$_List_nod@PAXV?$allocator@PAX@std@@@std@@@std@@YAXPAPAU_Node@?$_List_nod@PAXV?$allocator@PAX@std@@@0@@Z
_TEXT	SEGMENT
__Ptr$ = 8						; size = 4
??$_Destroy@PAU_Node@?$_List_nod@PAXV?$allocator@PAX@std@@@std@@@std@@YAXPAPAU_Node@?$_List_nod@PAXV?$allocator@PAX@std@@@0@@Z PROC NEAR ; std::_Destroy<std::_List_nod<void *,std::allocator<void *> >::_Node *>, COMDAT

; 49   : 	_DESTRUCTOR(_Ty, _Ptr);
; 50   : 	}

  00000	c3		 ret	 0
??$_Destroy@PAU_Node@?$_List_nod@PAXV?$allocator@PAX@std@@@std@@@std@@YAXPAPAU_Node@?$_List_nod@PAXV?$allocator@PAX@std@@@0@@Z ENDP ; std::_Destroy<std::_List_nod<void *,std::allocator<void *> >::_Node *>
_TEXT	ENDS
PUBLIC	??$?0PAX@?$allocator@U_Node@?$_List_nod@PAXV?$allocator@PAX@std@@@std@@@std@@QAE@ABV?$allocator@PAX@1@@Z ; std::allocator<std::_List_nod<void *,std::allocator<void *> >::_Node>::allocator<std::_List_nod<void *,std::allocator<void *> >::_Node><void *>
; Function compile flags: /Ogty
;	COMDAT ??$?0PAX@?$allocator@U_Node@?$_List_nod@PAXV?$allocator@PAX@std@@@std@@@std@@QAE@ABV?$allocator@PAX@1@@Z
_TEXT	SEGMENT
___formal$ = 8						; size = 4
??$?0PAX@?$allocator@U_Node@?$_List_nod@PAXV?$allocator@PAX@std@@@std@@@std@@QAE@ABV?$allocator@PAX@1@@Z PROC NEAR ; std::allocator<std::_List_nod<void *,std::allocator<void *> >::_Node>::allocator<std::_List_nod<void *,std::allocator<void *> >::_Node><void *>, COMDAT
; _this$ = ecx

; 120  : 		allocator(const allocator<_Other>&)

  00000	8b c1		 mov	 eax, ecx

; 121  : 		{	// construct from a related allocator (do nothing)
; 122  : 		}

  00002	c2 04 00	 ret	 4
??$?0PAX@?$allocator@U_Node@?$_List_nod@PAXV?$allocator@PAX@std@@@std@@@std@@QAE@ABV?$allocator@PAX@1@@Z ENDP ; std::allocator<std::_List_nod<void *,std::allocator<void *> >::_Node>::allocator<std::_List_nod<void *,std::allocator<void *> >::_Node><void *>
_TEXT	ENDS
PUBLIC	??$_Destroy@U_Node@?$_List_nod@PAXV?$allocator@PAX@std@@@std@@@std@@YAXPAU_Node@?$_List_nod@PAXV?$allocator@PAX@std@@@0@@Z ; std::_Destroy<std::_List_nod<void *,std::allocator<void *> >::_Node>
; Function compile flags: /Ogty
;	COMDAT ??$_Destroy@U_Node@?$_List_nod@PAXV?$allocator@PAX@std@@@std@@@std@@YAXPAU_Node@?$_List_nod@PAXV?$allocator@PAX@std@@@0@@Z
_TEXT	SEGMENT
__Ptr$ = 8						; size = 4
??$_Destroy@U_Node@?$_List_nod@PAXV?$allocator@PAX@std@@@std@@@std@@YAXPAU_Node@?$_List_nod@PAXV?$allocator@PAX@std@@@0@@Z PROC NEAR ; std::_Destroy<std::_List_nod<void *,std::allocator<void *> >::_Node>, COMDAT

; 49   : 	_DESTRUCTOR(_Ty, _Ptr);
; 50   : 	}

  00000	c3		 ret	 0
??$_Destroy@U_Node@?$_List_nod@PAXV?$allocator@PAX@std@@@std@@@std@@YAXPAU_Node@?$_List_nod@PAXV?$allocator@PAX@std@@@0@@Z ENDP ; std::_Destroy<std::_List_nod<void *,std::allocator<void *> >::_Node>
_TEXT	ENDS
PUBLIC	?assign@?$char_traits@D@std@@SAXAADABD@Z	; std::char_traits<char>::assign
; Function compile flags: /Ogty
; File c:\program files\microsoft visual studio .net 2003\vc7\include\iosfwd
;	COMDAT ?assign@?$char_traits@D@std@@SAXAADABD@Z
_TEXT	SEGMENT
__Left$ = 8						; size = 4
__Right$ = 12						; size = 4
?assign@?$char_traits@D@std@@SAXAADABD@Z PROC NEAR	; std::char_traits<char>::assign, COMDAT

; 331  : 		_Left = _Right;

  00000	8b 44 24 08	 mov	 eax, DWORD PTR __Right$[esp-4]
  00004	8a 08		 mov	 cl, BYTE PTR [eax]
  00006	8b 54 24 04	 mov	 edx, DWORD PTR __Left$[esp-4]
  0000a	88 0a		 mov	 BYTE PTR [edx], cl

; 332  : 		}

  0000c	c3		 ret	 0
?assign@?$char_traits@D@std@@SAXAADABD@Z ENDP		; std::char_traits<char>::assign
_TEXT	ENDS
PUBLIC	?length@?$char_traits@D@std@@SAIPBD@Z		; std::char_traits<char>::length
; Function compile flags: /Ogty
;	COMDAT ?length@?$char_traits@D@std@@SAIPBD@Z
_TEXT	SEGMENT
__First$ = 8						; size = 4
?length@?$char_traits@D@std@@SAIPBD@Z PROC NEAR		; std::char_traits<char>::length, COMDAT

; 352  : 		return (::strlen(_First));

  00000	8b 44 24 04	 mov	 eax, DWORD PTR __First$[esp-4]
  00004	8d 50 01	 lea	 edx, DWORD PTR [eax+1]
$L187263:
  00007	8a 08		 mov	 cl, BYTE PTR [eax]
  00009	40		 inc	 eax
  0000a	84 c9		 test	 cl, cl
  0000c	75 f9		 jne	 SHORT $L187263
  0000e	2b c2		 sub	 eax, edx

; 353  : 		}

  00010	c3		 ret	 0
?length@?$char_traits@D@std@@SAIPBD@Z ENDP		; std::char_traits<char>::length
_TEXT	ENDS
PUBLIC	?copy@?$char_traits@D@std@@SAPADPADPBDI@Z	; std::char_traits<char>::copy
; Function compile flags: /Ogty
;	COMDAT ?copy@?$char_traits@D@std@@SAPADPADPBDI@Z
_TEXT	SEGMENT
__First1$ = 8						; size = 4
__First2$ = 12						; size = 4
__Count$ = 16						; size = 4
?copy@?$char_traits@D@std@@SAPADPADPBDI@Z PROC NEAR	; std::char_traits<char>::copy, COMDAT

; 358  : 		return ((_Elem *)::memcpy(_First1, _First2, _Count));

  00000	8b 4c 24 0c	 mov	 ecx, DWORD PTR __Count$[esp-4]
  00004	56		 push	 esi
  00005	8b 74 24 0c	 mov	 esi, DWORD PTR __First2$[esp]
  00009	57		 push	 edi
  0000a	8b 7c 24 0c	 mov	 edi, DWORD PTR __First1$[esp+4]
  0000e	8b c1		 mov	 eax, ecx
  00010	8b d7		 mov	 edx, edi
  00012	c1 e9 02	 shr	 ecx, 2
  00015	f3 a5		 rep movsd
  00017	8b c8		 mov	 ecx, eax
  00019	83 e1 03	 and	 ecx, 3
  0001c	f3 a4		 rep movsb
  0001e	5f		 pop	 edi
  0001f	8b c2		 mov	 eax, edx
  00021	5e		 pop	 esi

; 359  : 		}

  00022	c3		 ret	 0
?copy@?$char_traits@D@std@@SAPADPADPBDI@Z ENDP		; std::char_traits<char>::copy
_TEXT	ENDS
PUBLIC	?move@?$char_traits@D@std@@SAPADPADPBDI@Z	; std::char_traits<char>::move
EXTRN	_memmove:NEAR
; Function compile flags: /Ogty
;	COMDAT ?move@?$char_traits@D@std@@SAPADPADPBDI@Z
_TEXT	SEGMENT
__First1$ = 8						; size = 4
__First2$ = 12						; size = 4
__Count$ = 16						; size = 4
?move@?$char_traits@D@std@@SAPADPADPBDI@Z PROC NEAR	; std::char_traits<char>::move, COMDAT

; 370  : 		return ((_Elem *)::memmove(_First1, _First2, _Count));

  00000	e9 00 00 00 00	 jmp	 _memmove
?move@?$char_traits@D@std@@SAPADPADPBDI@Z ENDP		; std::char_traits<char>::move
_TEXT	ENDS
PUBLIC	??0CMclCritSec@@QAE@XZ				; CMclCritSec::CMclCritSec
PUBLIC	??_7CMclCritSec@@6B@				; CMclCritSec::`vftable'
PUBLIC	??_GCMclCritSec@@UAEPAXI@Z			; CMclCritSec::`scalar deleting destructor'
EXTRN	??_ECMclCritSec@@UAEPAXI@Z:NEAR			; CMclCritSec::`vector deleting destructor'
EXTRN	__imp__InitializeCriticalSection@4:NEAR
;	COMDAT ??_7CMclCritSec@@6B@
; File c:\documents and settings\test\mes documents\source\virtuos_v17\build\program\_network\mcl\include\cmclcritsec.h
CONST	SEGMENT
??_7CMclCritSec@@6B@ DD FLAT:??_ECMclCritSec@@UAEPAXI@Z	; CMclCritSec::`vftable'
; Function compile flags: /Ogty
CONST	ENDS
;	COMDAT ??0CMclCritSec@@QAE@XZ
_TEXT	SEGMENT
??0CMclCritSec@@QAE@XZ PROC NEAR			; CMclCritSec::CMclCritSec, COMDAT
; _this$ = ecx

; 19   :     CMclCritSec(void)

  00000	56		 push	 esi
  00001	8b f1		 mov	 esi, ecx

; 20   :     {
; 21   : 		::InitializeCriticalSection( &m_CritSec );

  00003	8d 46 04	 lea	 eax, DWORD PTR [esi+4]
  00006	50		 push	 eax
  00007	c7 06 00 00 00
	00		 mov	 DWORD PTR [esi], OFFSET FLAT:??_7CMclCritSec@@6B@
  0000d	ff 15 00 00 00
	00		 call	 DWORD PTR __imp__InitializeCriticalSection@4

; 22   : 	}

  00013	8b c6		 mov	 eax, esi
  00015	5e		 pop	 esi
  00016	c3		 ret	 0
??0CMclCritSec@@QAE@XZ ENDP				; CMclCritSec::CMclCritSec
_TEXT	ENDS
PUBLIC	??1CMclCritSec@@UAE@XZ				; CMclCritSec::~CMclCritSec
EXTRN	__imp__DeleteCriticalSection@4:NEAR
; Function compile flags: /Ogty
;	COMDAT ??1CMclCritSec@@UAE@XZ
_TEXT	SEGMENT
??1CMclCritSec@@UAE@XZ PROC NEAR			; CMclCritSec::~CMclCritSec, COMDAT
; _this$ = ecx

; 26   : 	{

  00000	c7 01 00 00 00
	00		 mov	 DWORD PTR [ecx], OFFSET FLAT:??_7CMclCritSec@@6B@

; 27   : 		::DeleteCriticalSection( &m_CritSec );

  00006	83 c1 04	 add	 ecx, 4
  00009	51		 push	 ecx
  0000a	ff 15 00 00 00
	00		 call	 DWORD PTR __imp__DeleteCriticalSection@4

; 28   : 	}

  00010	c3		 ret	 0
??1CMclCritSec@@UAE@XZ ENDP				; CMclCritSec::~CMclCritSec
_TEXT	ENDS
PUBLIC	?Enter@CMclCritSec@@QAEXXZ			; CMclCritSec::Enter
EXTRN	__imp__EnterCriticalSection@4:NEAR
; Function compile flags: /Ogty
;	COMDAT ?Enter@CMclCritSec@@QAEXXZ
_TEXT	SEGMENT
?Enter@CMclCritSec@@QAEXXZ PROC NEAR			; CMclCritSec::Enter, COMDAT
; _this$ = ecx

; 33   : 		::EnterCriticalSection( &m_CritSec );

  00000	83 c1 04	 add	 ecx, 4
  00003	51		 push	 ecx
  00004	ff 15 00 00 00
	00		 call	 DWORD PTR __imp__EnterCriticalSection@4

; 34   : 	}

  0000a	c3		 ret	 0
?Enter@CMclCritSec@@QAEXXZ ENDP				; CMclCritSec::Enter
_TEXT	ENDS
PUBLIC	?Leave@CMclCritSec@@QAEXXZ			; CMclCritSec::Leave
EXTRN	__imp__LeaveCriticalSection@4:NEAR
; Function compile flags: /Ogty
;	COMDAT ?Leave@CMclCritSec@@QAEXXZ
_TEXT	SEGMENT
?Leave@CMclCritSec@@QAEXXZ PROC NEAR			; CMclCritSec::Leave, COMDAT
; _this$ = ecx

; 39   : 		::LeaveCriticalSection( &m_CritSec );

  00000	83 c1 04	 add	 ecx, 4
  00003	51		 push	 ecx
  00004	ff 15 00 00 00
	00		 call	 DWORD PTR __imp__LeaveCriticalSection@4

; 40   : 	}

  0000a	c3		 ret	 0
?Leave@CMclCritSec@@QAEXXZ ENDP				; CMclCritSec::Leave
_TEXT	ENDS
EXTRN	??3@YAXPAX@Z:NEAR				; operator delete
; Function compile flags: /Ogty
;	COMDAT ??_GCMclCritSec@@UAEPAXI@Z
_TEXT	SEGMENT
___flags$ = 8						; size = 4
??_GCMclCritSec@@UAEPAXI@Z PROC NEAR			; CMclCritSec::`scalar deleting destructor', COMDAT
; _this$ = ecx
  00000	56		 push	 esi
  00001	8b f1		 mov	 esi, ecx
  00003	8d 46 04	 lea	 eax, DWORD PTR [esi+4]
  00006	50		 push	 eax
  00007	c7 06 00 00 00
	00		 mov	 DWORD PTR [esi], OFFSET FLAT:??_7CMclCritSec@@6B@
  0000d	ff 15 00 00 00
	00		 call	 DWORD PTR __imp__DeleteCriticalSection@4
  00013	f6 44 24 08 01	 test	 BYTE PTR ___flags$[esp], 1
  00018	74 09		 je	 SHORT $L187282
  0001a	56		 push	 esi
  0001b	e8 00 00 00 00	 call	 ??3@YAXPAX@Z		; operator delete
  00020	83 c4 04	 add	 esp, 4
$L187282:
  00023	8b c6		 mov	 eax, esi
  00025	5e		 pop	 esi
  00026	c2 04 00	 ret	 4
??_GCMclCritSec@@UAEPAXI@Z ENDP				; CMclCritSec::`scalar deleting destructor'
_TEXT	ENDS
PUBLIC	??0CMclAutoLock@@QAE@AAVCMclCritSec@@@Z		; CMclAutoLock::CMclAutoLock
; Function compile flags: /Ogty
; File c:\documents and settings\test\mes documents\source\virtuos_v17\build\program\_network\mcl\include\cmclautolock.h
;	COMDAT ??0CMclAutoLock@@QAE@AAVCMclCritSec@@@Z
_TEXT	SEGMENT
_rCMclCritSec$ = 8					; size = 4
??0CMclAutoLock@@QAE@AAVCMclCritSec@@@Z PROC NEAR	; CMclAutoLock::CMclAutoLock, COMDAT
; _this$ = ecx

; 20   : 	{
; 21   : 		m_pcCritSec = &rCMclCritSec;

  00000	8b 44 24 04	 mov	 eax, DWORD PTR _rCMclCritSec$[esp-4]
  00004	56		 push	 esi
  00005	8b f1		 mov	 esi, ecx
  00007	89 06		 mov	 DWORD PTR [esi], eax

; 22   : 		m_pcCritSec->Enter();

  00009	83 c0 04	 add	 eax, 4
  0000c	50		 push	 eax
  0000d	ff 15 00 00 00
	00		 call	 DWORD PTR __imp__EnterCriticalSection@4

; 23   : 	}

  00013	8b c6		 mov	 eax, esi
  00015	5e		 pop	 esi
  00016	c2 04 00	 ret	 4
??0CMclAutoLock@@QAE@AAVCMclCritSec@@@Z ENDP		; CMclAutoLock::CMclAutoLock
_TEXT	ENDS
PUBLIC	??1CMclAutoLock@@QAE@XZ				; CMclAutoLock::~CMclAutoLock
; Function compile flags: /Ogty
;	COMDAT ??1CMclAutoLock@@QAE@XZ
_TEXT	SEGMENT
??1CMclAutoLock@@QAE@XZ PROC NEAR			; CMclAutoLock::~CMclAutoLock, COMDAT
; _this$ = ecx

; 28   : 		m_pcCritSec->Leave();

  00000	8b 01		 mov	 eax, DWORD PTR [ecx]
  00002	83 c0 04	 add	 eax, 4
  00005	50		 push	 eax
  00006	ff 15 00 00 00
	00		 call	 DWORD PTR __imp__LeaveCriticalSection@4

; 29   : 	}

  0000c	c3		 ret	 0
??1CMclAutoLock@@QAE@XZ ENDP				; CMclAutoLock::~CMclAutoLock
_TEXT	ENDS
PUBLIC	?GetHeaderLength@CBuffer@@QAEKXZ		; CBuffer::GetHeaderLength
; Function compile flags: /Ogty
; File c:\documents and settings\test\mes documents\source\virtuos_v17\build\program\_network\net\include\buffer.h
;	COMDAT ?GetHeaderLength@CBuffer@@QAEKXZ
_TEXT	SEGMENT
?GetHeaderLength@CBuffer@@QAEKXZ PROC NEAR		; CBuffer::GetHeaderLength, COMDAT
; _this$ = ecx

; 66   : 		return m_dwHeaderSize;

  00000	8b 81 24 20 00
	00		 mov	 eax, DWORD PTR [ecx+8228]

; 67   : 	}

  00006	c3		 ret	 0
?GetHeaderLength@CBuffer@@QAEKXZ ENDP			; CBuffer::GetHeaderLength
; Function compile flags: /Ogty
_TEXT	ENDS
;	COMDAT ?GetPacketSize@CBuffer@@UAEKPAE@Z
_TEXT	SEGMENT
_ptr$ = 8						; size = 4
?GetPacketSize@CBuffer@@UAEKPAE@Z PROC NEAR		; CBuffer::GetPacketSize, COMDAT
; _this$ = ecx

; 71   : 		return *(UNALIGNED LPDWORD)(ptr + 1);

  00000	8b 44 24 04	 mov	 eax, DWORD PTR _ptr$[esp-4]
  00004	8b 40 01	 mov	 eax, DWORD PTR [eax+1]

; 72   : 	}

  00007	c2 04 00	 ret	 4
?GetPacketSize@CBuffer@@UAEKPAE@Z ENDP			; CBuffer::GetPacketSize
; Function compile flags: /Ogty
_TEXT	ENDS
;	COMDAT ?SetHeader@CBuffer@@UAEXK@Z
_TEXT	SEGMENT
_uDataSize$ = 8						; size = 4
?SetHeader@CBuffer@@UAEXK@Z PROC NEAR			; CBuffer::SetHeader, COMDAT
; _this$ = ecx

; 76   : 		*m_pTail					= HEADERMARK;

  00000	8b 81 18 20 00
	00		 mov	 eax, DWORD PTR [ecx+8216]
  00006	c6 00 31	 mov	 BYTE PTR [eax], 49	; 00000031H

; 77   : 		m_pTail++;

  00009	8b 91 18 20 00
	00		 mov	 edx, DWORD PTR [ecx+8216]
  0000f	42		 inc	 edx
  00010	89 91 18 20 00
	00		 mov	 DWORD PTR [ecx+8216], edx
  00016	8b c2		 mov	 eax, edx

; 78   : 
; 79   : 		*(UNALIGNED DWORD*)m_pTail	= (DWORD)uDataSize;

  00018	8b 54 24 04	 mov	 edx, DWORD PTR _uDataSize$[esp-4]
  0001c	89 10		 mov	 DWORD PTR [eax], edx

; 80   : 		m_pTail += sizeof(DWORD);

  0001e	83 81 18 20 00
	00 04		 add	 DWORD PTR [ecx+8216], 4

; 81   : 	}

  00025	c2 04 00	 ret	 4
?SetHeader@CBuffer@@UAEXK@Z ENDP			; CBuffer::SetHeader
_TEXT	ENDS
PUBLIC	?GetWritableBuffer@CBuffer@@QAEPAEPAH@Z		; CBuffer::GetWritableBuffer
; Function compile flags: /Ogty
;	COMDAT ?GetWritableBuffer@CBuffer@@QAEPAEPAH@Z
_TEXT	SEGMENT
_pnBufSize$ = 8						; size = 4
?GetWritableBuffer@CBuffer@@QAEPAEPAH@Z PROC NEAR	; CBuffer::GetWritableBuffer, COMDAT
; _this$ = ecx

; 104  : 	*pnBufSize	= (int)( m_lpBufMax - m_pTail );	

  00000	8b 91 18 20 00
	00		 mov	 edx, DWORD PTR [ecx+8216]
  00006	8b 81 10 20 00
	00		 mov	 eax, DWORD PTR [ecx+8208]
  0000c	2b c2		 sub	 eax, edx
  0000e	8b 54 24 04	 mov	 edx, DWORD PTR _pnBufSize$[esp-4]
  00012	89 02		 mov	 DWORD PTR [edx], eax

; 105  : 	return m_pTail;	

  00014	8b 81 18 20 00
	00		 mov	 eax, DWORD PTR [ecx+8216]

; 106  : }

  0001a	c2 04 00	 ret	 4
?GetWritableBuffer@CBuffer@@QAEPAEPAH@Z ENDP		; CBuffer::GetWritableBuffer
_TEXT	ENDS
PUBLIC	?GetWritableBufferSize@CBuffer@@QAEHXZ		; CBuffer::GetWritableBufferSize
; Function compile flags: /Ogty
;	COMDAT ?GetWritableBufferSize@CBuffer@@QAEHXZ
_TEXT	SEGMENT
?GetWritableBufferSize@CBuffer@@QAEHXZ PROC NEAR	; CBuffer::GetWritableBufferSize, COMDAT
; _this$ = ecx

; 110  : 	return (int)( m_lpBufMax - m_pTail );	

  00000	8b 81 10 20 00
	00		 mov	 eax, DWORD PTR [ecx+8208]
  00006	2b 81 18 20 00
	00		 sub	 eax, DWORD PTR [ecx+8216]

; 111  : }

  0000c	c3		 ret	 0
?GetWritableBufferSize@CBuffer@@QAEHXZ ENDP		; CBuffer::GetWritableBufferSize
_TEXT	ENDS
PUBLIC	?GetReadableBuffer@CBuffer@@QAEPAEPAH@Z		; CBuffer::GetReadableBuffer
; Function compile flags: /Ogty
;	COMDAT ?GetReadableBuffer@CBuffer@@QAEPAEPAH@Z
_TEXT	SEGMENT
_pnBufSize$ = 8						; size = 4
?GetReadableBuffer@CBuffer@@QAEPAEPAH@Z PROC NEAR	; CBuffer::GetReadableBuffer, COMDAT
; _this$ = ecx

; 115  : 	*pnBufSize	= (int)( m_pTail - m_pHead );	

  00000	8b 91 14 20 00
	00		 mov	 edx, DWORD PTR [ecx+8212]
  00006	8b 81 18 20 00
	00		 mov	 eax, DWORD PTR [ecx+8216]
  0000c	2b c2		 sub	 eax, edx
  0000e	8b 54 24 04	 mov	 edx, DWORD PTR _pnBufSize$[esp-4]
  00012	89 02		 mov	 DWORD PTR [edx], eax

; 116  : 	return m_pHead;	

  00014	8b 81 14 20 00
	00		 mov	 eax, DWORD PTR [ecx+8212]

; 117  : }

  0001a	c2 04 00	 ret	 4
?GetReadableBuffer@CBuffer@@QAEPAEPAH@Z ENDP		; CBuffer::GetReadableBuffer
_TEXT	ENDS
PUBLIC	?GetReadableBufferSize@CBuffer@@QAEHXZ		; CBuffer::GetReadableBufferSize
; Function compile flags: /Ogty
;	COMDAT ?GetReadableBufferSize@CBuffer@@QAEHXZ
_TEXT	SEGMENT
?GetReadableBufferSize@CBuffer@@QAEHXZ PROC NEAR	; CBuffer::GetReadableBufferSize, COMDAT
; _this$ = ecx

; 121  : 	return (int)( m_pTail - m_pHead );	

  00000	8b 81 18 20 00
	00		 mov	 eax, DWORD PTR [ecx+8216]
  00006	2b 81 14 20 00
	00		 sub	 eax, DWORD PTR [ecx+8212]

; 122  : }

  0000c	c3		 ret	 0
?GetReadableBufferSize@CBuffer@@QAEHXZ ENDP		; CBuffer::GetReadableBufferSize
_TEXT	ENDS
PUBLIC	??0CBuffer2@@QAE@K@Z				; CBuffer2::CBuffer2
PUBLIC	?GetPacketSize@CBuffer2@@UAEKPAE@Z		; CBuffer2::GetPacketSize
PUBLIC	?SetHeader@CBuffer2@@UAEXK@Z			; CBuffer2::SetHeader
PUBLIC	??_7CBuffer2@@6B@				; CBuffer2::`vftable'
PUBLIC	??_GCBuffer2@@UAEPAXI@Z				; CBuffer2::`scalar deleting destructor'
EXTRN	??_ECBuffer2@@UAEPAXI@Z:NEAR			; CBuffer2::`vector deleting destructor'
;	COMDAT ??_7CBuffer2@@6B@
CONST	SEGMENT
??_7CBuffer2@@6B@ DD FLAT:??_ECBuffer2@@UAEPAXI@Z	; CBuffer2::`vftable'
	DD	FLAT:?GetPacketSize@CBuffer2@@UAEKPAE@Z
	DD	FLAT:?SetHeader@CBuffer2@@UAEXK@Z
; Function compile flags: /Ogty
CONST	ENDS
;	COMDAT ??0CBuffer2@@QAE@K@Z
_TEXT	SEGMENT
_uBufSize$ = 8						; size = 4
??0CBuffer2@@QAE@K@Z PROC NEAR				; CBuffer2::CBuffer2, COMDAT
; _this$ = ecx

; 132  : 	{

  00000	8b 44 24 04	 mov	 eax, DWORD PTR _uBufSize$[esp-4]
  00004	56		 push	 esi
  00005	50		 push	 eax
  00006	8b f1		 mov	 esi, ecx
  00008	e8 00 00 00 00	 call	 ??0CBuffer@@QAE@K@Z	; CBuffer::CBuffer
  0000d	c7 06 00 00 00
	00		 mov	 DWORD PTR [esi], OFFSET FLAT:??_7CBuffer2@@6B@

; 133  : 		m_dwHeaderSize = 2;

  00013	c7 86 24 20 00
	00 02 00 00 00	 mov	 DWORD PTR [esi+8228], 2

; 134  : 	}

  0001d	8b c6		 mov	 eax, esi
  0001f	5e		 pop	 esi
  00020	c2 04 00	 ret	 4
??0CBuffer2@@QAE@K@Z ENDP				; CBuffer2::CBuffer2
_TEXT	ENDS
EXTRN	__imp__ntohs@4:NEAR
; Function compile flags: /Ogty
;	COMDAT ?GetPacketSize@CBuffer2@@UAEKPAE@Z
_TEXT	SEGMENT
_ptr$ = 8						; size = 4
?GetPacketSize@CBuffer2@@UAEKPAE@Z PROC NEAR		; CBuffer2::GetPacketSize, COMDAT
; _this$ = ecx

; 138  : //		DWORD dwSize = *(WORD *)ptr;
; 139  : //		dwSize -= 2;
; 140  : //		return dwSize;
; 141  : 		DWORD dwSize = ntohs( *(WORD *)ptr );

  00000	8b 44 24 04	 mov	 eax, DWORD PTR _ptr$[esp-4]
  00004	33 c9		 xor	 ecx, ecx
  00006	66 8b 08	 mov	 cx, WORD PTR [eax]
  00009	51		 push	 ecx
  0000a	ff 15 00 00 00
	00		 call	 DWORD PTR __imp__ntohs@4

; 142  : 		dwSize -= 2;
; 143  : 		return dwSize;

  00010	0f b7 c0	 movzx	 eax, ax
  00013	83 e8 02	 sub	 eax, 2

; 144  : 	}

  00016	c2 04 00	 ret	 4
?GetPacketSize@CBuffer2@@UAEKPAE@Z ENDP			; CBuffer2::GetPacketSize
_TEXT	ENDS
EXTRN	__imp__htons@4:NEAR
; Function compile flags: /Ogty
;	COMDAT ?SetHeader@CBuffer2@@UAEXK@Z
_TEXT	SEGMENT
_uDataSize$ = 8						; size = 4
?SetHeader@CBuffer2@@UAEXK@Z PROC NEAR			; CBuffer2::SetHeader, COMDAT
; _this$ = ecx

; 148  : //		*(UNALIGNED WORD*)m_pTail	= (WORD)(uDataSize + 2);
; 149  : //		m_pTail += sizeof(WORD);
; 150  : 		*(UNALIGNED WORD*)m_pTail	= htons( (WORD)(uDataSize + 2) );

  00000	8b 44 24 04	 mov	 eax, DWORD PTR _uDataSize$[esp-4]
  00004	56		 push	 esi
  00005	83 c0 02	 add	 eax, 2
  00008	50		 push	 eax
  00009	8b f1		 mov	 esi, ecx
  0000b	ff 15 00 00 00
	00		 call	 DWORD PTR __imp__htons@4
  00011	8b 8e 18 20 00
	00		 mov	 ecx, DWORD PTR [esi+8216]
  00017	66 89 01	 mov	 WORD PTR [ecx], ax

; 151  : 		m_pTail += sizeof(WORD);

  0001a	83 86 18 20 00
	00 02		 add	 DWORD PTR [esi+8216], 2
  00021	5e		 pop	 esi

; 152  : 	}

  00022	c2 04 00	 ret	 4
?SetHeader@CBuffer2@@UAEXK@Z ENDP			; CBuffer2::SetHeader
_TEXT	ENDS
PUBLIC	?GetHead@CBufferQueue@@QAEPAVCBuffer@@XZ	; CBufferQueue::GetHead
; Function compile flags: /Ogty
;	COMDAT ?GetHead@CBufferQueue@@QAEPAVCBuffer@@XZ
_TEXT	SEGMENT
?GetHead@CBufferQueue@@QAEPAVCBuffer@@XZ PROC NEAR	; CBufferQueue::GetHead, COMDAT
; _this$ = ecx

; 216  : 	{	return m_pHead;	}

  00000	8b 41 04	 mov	 eax, DWORD PTR [ecx+4]
  00003	c3		 ret	 0
?GetHead@CBufferQueue@@QAEPAVCBuffer@@XZ ENDP		; CBufferQueue::GetHead
_TEXT	ENDS
PUBLIC	?GetTail@CBufferQueue@@QAEPAVCBuffer@@XZ	; CBufferQueue::GetTail
; Function compile flags: /Ogty
;	COMDAT ?GetTail@CBufferQueue@@QAEPAVCBuffer@@XZ
_TEXT	SEGMENT
?GetTail@CBufferQueue@@QAEPAVCBuffer@@XZ PROC NEAR	; CBufferQueue::GetTail, COMDAT
; _this$ = ecx

; 218  : 	{	return m_pTail;	}

  00000	8b 41 08	 mov	 eax, DWORD PTR [ecx+8]
  00003	c3		 ret	 0
?GetTail@CBufferQueue@@QAEPAVCBuffer@@XZ ENDP		; CBufferQueue::GetTail
_TEXT	ENDS
PUBLIC	?IsEmpty@CBufferQueue@@QAEHXZ			; CBufferQueue::IsEmpty
; Function compile flags: /Ogty
;	COMDAT ?IsEmpty@CBufferQueue@@QAEHXZ
_TEXT	SEGMENT
?IsEmpty@CBufferQueue@@QAEHXZ PROC NEAR			; CBufferQueue::IsEmpty, COMDAT
; _this$ = ecx

; 222  : 	{	return( m_uCount == 0 );	}

  00000	8b 51 0c	 mov	 edx, DWORD PTR [ecx+12]
  00003	33 c0		 xor	 eax, eax
  00005	85 d2		 test	 edx, edx
  00007	0f 94 c0	 sete	 al
  0000a	c3		 ret	 0
?IsEmpty@CBufferQueue@@QAEHXZ ENDP			; CBufferQueue::IsEmpty
_TEXT	ENDS
PUBLIC	?AddTail@CBufferQueue@@QAEXPAVCBuffer@@@Z	; CBufferQueue::AddTail
; Function compile flags: /Ogty
;	COMDAT ?AddTail@CBufferQueue@@QAEXPAVCBuffer@@@Z
_TEXT	SEGMENT
_pBuffer$ = 8						; size = 4
?AddTail@CBufferQueue@@QAEXPAVCBuffer@@@Z PROC NEAR	; CBufferQueue::AddTail, COMDAT
; _this$ = ecx

; 224  : {	

  00000	56		 push	 esi
  00001	57		 push	 edi
  00002	8b f1		 mov	 esi, ecx

; 225  : 	CMclAutoLock	Lock( m_cs );

  00004	8d 7e 14	 lea	 edi, DWORD PTR [esi+20]
  00007	57		 push	 edi
  00008	ff 15 00 00 00
	00		 call	 DWORD PTR __imp__EnterCriticalSection@4

; 226  : //	Add it to the active list	
; 227  : 	if( !m_pHead )

  0000e	8b 46 04	 mov	 eax, DWORD PTR [esi+4]
  00011	85 c0		 test	 eax, eax
  00013	8b 44 24 0c	 mov	 eax, DWORD PTR _pBuffer$[esp+4]
  00017	75 03		 jne	 SHORT $L163751

; 228  : 		m_pHead		= pBuffer;

  00019	89 46 04	 mov	 DWORD PTR [esi+4], eax
$L163751:

; 229  : 	if( m_pTail )

  0001c	8b 4e 08	 mov	 ecx, DWORD PTR [esi+8]
  0001f	85 c9		 test	 ecx, ecx
  00021	74 06		 je	 SHORT $L163752

; 230  : 		m_pTail->pNext	= pBuffer;

  00023	89 81 1c 20 00
	00		 mov	 DWORD PTR [ecx+8220], eax
$L163752:

; 231  : 	pBuffer->pPrevious	= m_pTail;

  00029	8b 4e 08	 mov	 ecx, DWORD PTR [esi+8]
  0002c	89 88 20 20 00
	00		 mov	 DWORD PTR [eax+8224], ecx

; 232  : 	pBuffer->pNext	= NULL;

  00032	c7 80 1c 20 00
	00 00 00 00 00	 mov	 DWORD PTR [eax+8220], 0

; 233  : 	m_pTail		= pBuffer;
; 234  : 	m_uCount++;

  0003c	8b 4e 0c	 mov	 ecx, DWORD PTR [esi+12]
  0003f	41		 inc	 ecx

; 235  : }

  00040	57		 push	 edi
  00041	89 46 08	 mov	 DWORD PTR [esi+8], eax
  00044	89 4e 0c	 mov	 DWORD PTR [esi+12], ecx
  00047	ff 15 00 00 00
	00		 call	 DWORD PTR __imp__LeaveCriticalSection@4
  0004d	5f		 pop	 edi
  0004e	5e		 pop	 esi
  0004f	c2 04 00	 ret	 4
?AddTail@CBufferQueue@@QAEXPAVCBuffer@@@Z ENDP		; CBufferQueue::AddTail
_TEXT	ENDS
PUBLIC	?RemoveHead@CBufferQueue@@QAEXXZ		; CBufferQueue::RemoveHead
; Function compile flags: /Ogty
;	COMDAT ?RemoveHead@CBufferQueue@@QAEXXZ
_TEXT	SEGMENT
?RemoveHead@CBufferQueue@@QAEXXZ PROC NEAR		; CBufferQueue::RemoveHead, COMDAT
; _this$ = ecx

; 238  : //	CMclAutoLock	Lock( m_cs );
; 239  : //	Remove it from active list
; 240  : 	if( !IsEmpty() )

  00000	8b 41 0c	 mov	 eax, DWORD PTR [ecx+12]
  00003	33 d2		 xor	 edx, edx
  00005	3b c2		 cmp	 eax, edx
  00007	74 27		 je	 SHORT $L187348

; 241  : 	{
; 242  : 		if( m_pTail == m_pHead )

  00009	8b 41 04	 mov	 eax, DWORD PTR [ecx+4]
  0000c	39 41 08	 cmp	 DWORD PTR [ecx+8], eax
  0000f	75 03		 jne	 SHORT $L163758

; 243  : 			m_pTail	= NULL;

  00011	89 51 08	 mov	 DWORD PTR [ecx+8], edx
$L163758:

; 244  : 		if( m_pHead->pNext )

  00014	8b 80 1c 20 00
	00		 mov	 eax, DWORD PTR [eax+8220]
  0001a	3b c2		 cmp	 eax, edx
  0001c	74 06		 je	 SHORT $L163759

; 245  : 			m_pHead->pNext->pPrevious	= NULL;

  0001e	89 90 20 20 00
	00		 mov	 DWORD PTR [eax+8224], edx
$L163759:

; 246  : 		m_pHead		= m_pHead->pNext;

  00024	8b 41 04	 mov	 eax, DWORD PTR [ecx+4]
  00027	8b 90 1c 20 00
	00		 mov	 edx, DWORD PTR [eax+8220]
  0002d	89 51 04	 mov	 DWORD PTR [ecx+4], edx
$L187348:

; 247  : 	}
; 248  : 	m_uCount--;

  00030	ff 49 0c	 dec	 DWORD PTR [ecx+12]

; 249  : }

  00033	c3		 ret	 0
?RemoveHead@CBufferQueue@@QAEXXZ ENDP			; CBufferQueue::RemoveHead
_TEXT	ENDS
PUBLIC	?size@?$basic_string@DU?$char_traits@D@std@@V?$allocator@D@2@@std@@QBEIXZ ; std::basic_string<char,std::char_traits<char>,std::allocator<char> >::size
; Function compile flags: /Ogty
; File c:\program files\microsoft visual studio .net 2003\vc7\include\xstring
;	COMDAT ?size@?$basic_string@DU?$char_traits@D@std@@V?$allocator@D@2@@std@@QBEIXZ
_TEXT	SEGMENT
?size@?$basic_string@DU?$char_traits@D@std@@V?$allocator@D@2@@std@@QBEIXZ PROC NEAR ; std::basic_string<char,std::char_traits<char>,std::allocator<char> >::size, COMDAT
; _this$ = ecx

; 1109 : 		return (_Mysize);

  00000	8b 41 14	 mov	 eax, DWORD PTR [ecx+20]

; 1110 : 		}

  00003	c3		 ret	 0
?size@?$basic_string@DU?$char_traits@D@std@@V?$allocator@D@2@@std@@QBEIXZ ENDP ; std::basic_string<char,std::char_traits<char>,std::allocator<char> >::size
_TEXT	ENDS
PUBLIC	?Free@?$MemPooler@VCBuffer@@@@QAEHPAVCBuffer@@@Z ; MemPooler<CBuffer>::Free
; Function compile flags: /Ogty
; File c:\documents and settings\test\mes documents\source\virtuos_v17\build\program\_network\misc\include\mempooler.h
;	COMDAT ?Free@?$MemPooler@VCBuffer@@@@QAEHPAVCBuffer@@@Z
_TEXT	SEGMENT
_lpMem$ = 8						; size = 4
?Free@?$MemPooler@VCBuffer@@@@QAEHPAVCBuffer@@@Z PROC NEAR ; MemPooler<CBuffer>::Free, COMDAT
; _this$ = ecx

; 80   : 		{

  00000	53		 push	 ebx
  00001	56		 push	 esi
  00002	8b f1		 mov	 esi, ecx
  00004	57		 push	 edi

; 81   : #ifdef __VERIFY_MEMPOOL
; 82   : 			::operator delete(lpMem);
; 83   : 			return TRUE;
; 84   : #endif
; 85   : 
; 86   : 			BlockNode* pNode	= NULL;
; 87   : 
; 88   : 			EnterCriticalSection( &m_cs );

  00005	8d 5e 1c	 lea	 ebx, DWORD PTR [esi+28]
  00008	53		 push	 ebx
  00009	ff 15 00 00 00
	00		 call	 DWORD PTR __imp__EnterCriticalSection@4

; 89   : 
; 90   : 			pNode	= ( reinterpret_cast<BlockNode*>( lpMem ) ) - 1;
; 91   : 			if( m_nAllocCount > 0 )

  0000f	8b 4e 18	 mov	 ecx, DWORD PTR [esi+24]
  00012	85 c9		 test	 ecx, ecx
  00014	8b 7c 24 10	 mov	 edi, DWORD PTR _lpMem$[esp+8]
  00018	8d 47 fc	 lea	 eax, DWORD PTR [edi-4]
  0001b	7e 09		 jle	 SHORT $L183658

; 92   : 			{
; 93   : 				pNode->pNext	= m_pFreeList;

  0001d	8b 0e		 mov	 ecx, DWORD PTR [esi]
  0001f	89 08		 mov	 DWORD PTR [eax], ecx

; 94   : 				m_pFreeList		= pNode;

  00021	89 06		 mov	 DWORD PTR [esi], eax

; 95   : 				m_nAllocCount--;

  00023	ff 4e 18	 dec	 DWORD PTR [esi+24]
$L183658:

; 96   : 			}
; 97   : 
; 98   : 			//	mulcom	BEGIN100422	 
; 99   : 			::memset( lpMem, 0, sizeof(T) );

  00026	33 c0		 xor	 eax, eax
  00028	b9 0a 08 00 00	 mov	 ecx, 2058		; 0000080aH

; 100  : 			//	mulcom	END100422	 
; 101  : 
; 102  : 			LeaveCriticalSection( &m_cs );

  0002d	53		 push	 ebx
  0002e	f3 ab		 rep stosd
  00030	ff 15 00 00 00
	00		 call	 DWORD PTR __imp__LeaveCriticalSection@4
  00036	5f		 pop	 edi
  00037	5e		 pop	 esi

; 103  : 
; 104  : 			return TRUE;

  00038	b8 01 00 00 00	 mov	 eax, 1
  0003d	5b		 pop	 ebx

; 105  : 		}

  0003e	c2 04 00	 ret	 4
?Free@?$MemPooler@VCBuffer@@@@QAEHPAVCBuffer@@@Z ENDP	; MemPooler<CBuffer>::Free
_TEXT	ENDS
PUBLIC	?Free@?$MemPooler@VCBuffer2@@@@QAEHPAVCBuffer2@@@Z ; MemPooler<CBuffer2>::Free
; Function compile flags: /Ogty
;	COMDAT ?Free@?$MemPooler@VCBuffer2@@@@QAEHPAVCBuffer2@@@Z
_TEXT	SEGMENT
_lpMem$ = 8						; size = 4
?Free@?$MemPooler@VCBuffer2@@@@QAEHPAVCBuffer2@@@Z PROC NEAR ; MemPooler<CBuffer2>::Free, COMDAT
; _this$ = ecx

; 80   : 		{

  00000	53		 push	 ebx
  00001	56		 push	 esi
  00002	8b f1		 mov	 esi, ecx
  00004	57		 push	 edi

; 81   : #ifdef __VERIFY_MEMPOOL
; 82   : 			::operator delete(lpMem);
; 83   : 			return TRUE;
; 84   : #endif
; 85   : 
; 86   : 			BlockNode* pNode	= NULL;
; 87   : 
; 88   : 			EnterCriticalSection( &m_cs );

  00005	8d 5e 1c	 lea	 ebx, DWORD PTR [esi+28]
  00008	53		 push	 ebx
  00009	ff 15 00 00 00
	00		 call	 DWORD PTR __imp__EnterCriticalSection@4

; 89   : 
; 90   : 			pNode	= ( reinterpret_cast<BlockNode*>( lpMem ) ) - 1;
; 91   : 			if( m_nAllocCount > 0 )

  0000f	8b 4e 18	 mov	 ecx, DWORD PTR [esi+24]
  00012	85 c9		 test	 ecx, ecx
  00014	8b 7c 24 10	 mov	 edi, DWORD PTR _lpMem$[esp+8]
  00018	8d 47 fc	 lea	 eax, DWORD PTR [edi-4]
  0001b	7e 09		 jle	 SHORT $L183677

; 92   : 			{
; 93   : 				pNode->pNext	= m_pFreeList;

  0001d	8b 0e		 mov	 ecx, DWORD PTR [esi]
  0001f	89 08		 mov	 DWORD PTR [eax], ecx

; 94   : 				m_pFreeList		= pNode;

  00021	89 06		 mov	 DWORD PTR [esi], eax

; 95   : 				m_nAllocCount--;

  00023	ff 4e 18	 dec	 DWORD PTR [esi+24]
$L183677:

; 96   : 			}
; 97   : 
; 98   : 			//	mulcom	BEGIN100422	 
; 99   : 			::memset( lpMem, 0, sizeof(T) );

  00026	33 c0		 xor	 eax, eax
  00028	b9 0a 08 00 00	 mov	 ecx, 2058		; 0000080aH

; 100  : 			//	mulcom	END100422	 
; 101  : 
; 102  : 			LeaveCriticalSection( &m_cs );

  0002d	53		 push	 ebx
  0002e	f3 ab		 rep stosd
  00030	ff 15 00 00 00
	00		 call	 DWORD PTR __imp__LeaveCriticalSection@4
  00036	5f		 pop	 edi
  00037	5e		 pop	 esi

; 103  : 
; 104  : 			return TRUE;

  00038	b8 01 00 00 00	 mov	 eax, 1
  0003d	5b		 pop	 ebx

; 105  : 		}

  0003e	c2 04 00	 ret	 4
?Free@?$MemPooler@VCBuffer2@@@@QAEHPAVCBuffer2@@@Z ENDP	; MemPooler<CBuffer2>::Free
_TEXT	ENDS
PUBLIC	?_Myptr@?$basic_string@DU?$char_traits@D@std@@V?$allocator@D@2@@std@@QBEPBDXZ ; std::basic_string<char,std::char_traits<char>,std::allocator<char> >::_Myptr
; Function compile flags: /Ogty
; File c:\program files\microsoft visual studio .net 2003\vc7\include\xstring
;	COMDAT ?_Myptr@?$basic_string@DU?$char_traits@D@std@@V?$allocator@D@2@@std@@QBEPBDXZ
_TEXT	SEGMENT
?_Myptr@?$basic_string@DU?$char_traits@D@std@@V?$allocator@D@2@@std@@QBEPBDXZ PROC NEAR ; std::basic_string<char,std::char_traits<char>,std::allocator<char> >::_Myptr, COMDAT
; _this$ = ecx

; 1537 : 		return (_BUF_SIZE <= _Myres ? _Bx._Ptr : _Bx._Buf);

  00000	83 79 18 10	 cmp	 DWORD PTR [ecx+24], 16	; 00000010H
  00004	72 04		 jb	 SHORT $L187357
  00006	8b 41 04	 mov	 eax, DWORD PTR [ecx+4]

; 1538 : 		}

  00009	c3		 ret	 0
$L187357:

; 1537 : 		return (_BUF_SIZE <= _Myres ? _Bx._Ptr : _Bx._Buf);

  0000a	8d 41 04	 lea	 eax, DWORD PTR [ecx+4]

; 1538 : 		}

  0000d	c3		 ret	 0
?_Myptr@?$basic_string@DU?$char_traits@D@std@@V?$allocator@D@2@@std@@QBEPBDXZ ENDP ; std::basic_string<char,std::char_traits<char>,std::allocator<char> >::_Myptr
_TEXT	ENDS
PUBLIC	??0?$allocator@D@std@@QAE@XZ			; std::allocator<char>::allocator<char>
; Function compile flags: /Ogty
; File c:\program files\microsoft visual studio .net 2003\vc7\include\xmemory
;	COMDAT ??0?$allocator@D@std@@QAE@XZ
_TEXT	SEGMENT
??0?$allocator@D@std@@QAE@XZ PROC NEAR			; std::allocator<char>::allocator<char>, COMDAT
; _this$ = ecx

; 111  : 	allocator()

  00000	8b c1		 mov	 eax, ecx

; 112  : 		{	// construct default allocator (do nothing)
; 113  : 		}

  00002	c3		 ret	 0
??0?$allocator@D@std@@QAE@XZ ENDP			; std::allocator<char>::allocator<char>
_TEXT	ENDS
PUBLIC	??0?$allocator@D@std@@QAE@ABV01@@Z		; std::allocator<char>::allocator<char>
; Function compile flags: /Ogty
;	COMDAT ??0?$allocator@D@std@@QAE@ABV01@@Z
_TEXT	SEGMENT
___formal$ = 8						; size = 4
??0?$allocator@D@std@@QAE@ABV01@@Z PROC NEAR		; std::allocator<char>::allocator<char>, COMDAT
; _this$ = ecx

; 115  : 	allocator(const allocator<_Ty>&)

  00000	8b c1		 mov	 eax, ecx

; 116  : 		{	// construct by copying (do nothing)
; 117  : 		}

  00002	c2 04 00	 ret	 4
??0?$allocator@D@std@@QAE@ABV01@@Z ENDP			; std::allocator<char>::allocator<char>
_TEXT	ENDS
PUBLIC	?_Myptr@?$basic_string@DU?$char_traits@D@std@@V?$allocator@D@2@@std@@QAEPADXZ ; std::basic_string<char,std::char_traits<char>,std::allocator<char> >::_Myptr
; Function compile flags: /Ogty
; File c:\program files\microsoft visual studio .net 2003\vc7\include\xstring
;	COMDAT ?_Myptr@?$basic_string@DU?$char_traits@D@std@@V?$allocator@D@2@@std@@QAEPADXZ
_TEXT	SEGMENT
?_Myptr@?$basic_string@DU?$char_traits@D@std@@V?$allocator@D@2@@std@@QAEPADXZ PROC NEAR ; std::basic_string<char,std::char_traits<char>,std::allocator<char> >::_Myptr, COMDAT
; _this$ = ecx

; 1532 : 		return (_BUF_SIZE <= _Myres ? _Bx._Ptr : _Bx._Buf);

  00000	83 79 18 10	 cmp	 DWORD PTR [ecx+24], 16	; 00000010H
  00004	72 04		 jb	 SHORT $L187365
  00006	8b 41 04	 mov	 eax, DWORD PTR [ecx+4]

; 1533 : 		}

  00009	c3		 ret	 0
$L187365:

; 1532 : 		return (_BUF_SIZE <= _Myres ? _Bx._Ptr : _Bx._Buf);

  0000a	8d 41 04	 lea	 eax, DWORD PTR [ecx+4]

; 1533 : 		}

  0000d	c3		 ret	 0
?_Myptr@?$basic_string@DU?$char_traits@D@std@@V?$allocator@D@2@@std@@QAEPADXZ ENDP ; std::basic_string<char,std::char_traits<char>,std::allocator<char> >::_Myptr
_TEXT	ENDS
PUBLIC	?deallocate@?$allocator@D@std@@QAEXPADI@Z	; std::allocator<char>::deallocate
; Function compile flags: /Ogty
; File c:\program files\microsoft visual studio .net 2003\vc7\include\xmemory
;	COMDAT ?deallocate@?$allocator@D@std@@QAEXPADI@Z
_TEXT	SEGMENT
__Ptr$ = 8						; size = 4
___formal$ = 12						; size = 4
?deallocate@?$allocator@D@std@@QAEXPADI@Z PROC NEAR	; std::allocator<char>::deallocate, COMDAT
; _this$ = ecx

; 132  : 		operator delete(_Ptr);

  00000	8b 44 24 04	 mov	 eax, DWORD PTR __Ptr$[esp-4]
  00004	50		 push	 eax
  00005	e8 00 00 00 00	 call	 ??3@YAXPAX@Z		; operator delete
  0000a	59		 pop	 ecx

; 133  : 		}

  0000b	c2 08 00	 ret	 8
?deallocate@?$allocator@D@std@@QAEXPADI@Z ENDP		; std::allocator<char>::deallocate
_TEXT	ENDS
PUBLIC	?_Inside@?$basic_string@DU?$char_traits@D@std@@V?$allocator@D@2@@std@@IAE_NPBD@Z ; std::basic_string<char,std::char_traits<char>,std::allocator<char> >::_Inside
; Function compile flags: /Ogty
; File c:\program files\microsoft visual studio .net 2003\vc7\include\xstring
;	COMDAT ?_Inside@?$basic_string@DU?$char_traits@D@std@@V?$allocator@D@2@@std@@IAE_NPBD@Z
_TEXT	SEGMENT
__Ptr$ = 8						; size = 4
?_Inside@?$basic_string@DU?$char_traits@D@std@@V?$allocator@D@2@@std@@IAE_NPBD@Z PROC NEAR ; std::basic_string<char,std::char_traits<char>,std::allocator<char> >::_Inside, COMDAT
; _this$ = ecx

; 1494 : 		{	// test if _Ptr points inside string

  00000	56		 push	 esi

; 1495 : 		if (_Ptr < _Myptr() || _Myptr() + _Mysize <= _Ptr)

  00001	8b 71 18	 mov	 esi, DWORD PTR [ecx+24]
  00004	83 fe 10	 cmp	 esi, 16			; 00000010H
  00007	57		 push	 edi
  00008	8d 41 04	 lea	 eax, DWORD PTR [ecx+4]
  0000b	72 04		 jb	 SHORT $L187376
  0000d	8b 10		 mov	 edx, DWORD PTR [eax]
  0000f	eb 02		 jmp	 SHORT $L187377
$L187376:
  00011	8b d0		 mov	 edx, eax
$L187377:
  00013	8b 7c 24 0c	 mov	 edi, DWORD PTR __Ptr$[esp+4]
  00017	3b fa		 cmp	 edi, edx
  00019	72 17		 jb	 SHORT $L185560
  0001b	83 fe 10	 cmp	 esi, 16			; 00000010H
  0001e	72 02		 jb	 SHORT $L187384
  00020	8b 00		 mov	 eax, DWORD PTR [eax]
$L187384:
  00022	8b 49 14	 mov	 ecx, DWORD PTR [ecx+20]
  00025	03 c8		 add	 ecx, eax
  00027	3b cf		 cmp	 ecx, edi
  00029	76 07		 jbe	 SHORT $L185560
  0002b	5f		 pop	 edi

; 1497 : 		else
; 1498 : 			return (true);

  0002c	b0 01		 mov	 al, 1
  0002e	5e		 pop	 esi

; 1499 : 		}

  0002f	c2 04 00	 ret	 4
$L185560:
  00032	5f		 pop	 edi

; 1496 : 			return (false);	// don't ask

  00033	32 c0		 xor	 al, al
  00035	5e		 pop	 esi

; 1499 : 		}

  00036	c2 04 00	 ret	 4
?_Inside@?$basic_string@DU?$char_traits@D@std@@V?$allocator@D@2@@std@@IAE_NPBD@Z ENDP ; std::basic_string<char,std::char_traits<char>,std::allocator<char> >::_Inside
_TEXT	ENDS
PUBLIC	?max_size@?$allocator@D@std@@QBEIXZ		; std::allocator<char>::max_size
; Function compile flags: /Ogty
; File c:\program files\microsoft visual studio .net 2003\vc7\include\xmemory
;	COMDAT ?max_size@?$allocator@D@std@@QBEIXZ
_TEXT	SEGMENT
?max_size@?$allocator@D@std@@QBEIXZ PROC NEAR		; std::allocator<char>::max_size, COMDAT
; _this$ = ecx

; 157  : 		_SIZT _Count = (_SIZT)(-1) / sizeof (_Ty);
; 158  : 		return (0 < _Count ? _Count : 1);

  00000	83 c8 ff	 or	 eax, -1

; 159  : 		}

  00003	c3		 ret	 0
?max_size@?$allocator@D@std@@QBEIXZ ENDP		; std::allocator<char>::max_size
_TEXT	ENDS
PUBLIC	?_Nextnode@?$list@PAXV?$allocator@PAX@std@@@std@@KAAAPAU_Node@?$_List_nod@PAXV?$allocator@PAX@std@@@2@PAU342@@Z ; std::list<void *,std::allocator<void *> >::_Nextnode
; Function compile flags: /Ogty
; File c:\program files\microsoft visual studio .net 2003\vc7\include\list
;	COMDAT ?_Nextnode@?$list@PAXV?$allocator@PAX@std@@@std@@KAAAPAU_Node@?$_List_nod@PAXV?$allocator@PAX@std@@@2@PAU342@@Z
_TEXT	SEGMENT
__Pnode$ = 8						; size = 4
?_Nextnode@?$list@PAXV?$allocator@PAX@std@@@std@@KAAAPAU_Node@?$_List_nod@PAXV?$allocator@PAX@std@@@2@PAU342@@Z PROC NEAR ; std::list<void *,std::allocator<void *> >::_Nextnode, COMDAT

; 108  : 		return ((_Nodepref)(*_Pnode)._Next);

  00000	8b 44 24 04	 mov	 eax, DWORD PTR __Pnode$[esp-4]

; 109  : 		}

  00004	c3		 ret	 0
?_Nextnode@?$list@PAXV?$allocator@PAX@std@@@std@@KAAAPAU_Node@?$_List_nod@PAXV?$allocator@PAX@std@@@2@PAU342@@Z ENDP ; std::list<void *,std::allocator<void *> >::_Nextnode
_TEXT	ENDS
PUBLIC	?_Prevnode@?$list@PAXV?$allocator@PAX@std@@@std@@KAAAPAU_Node@?$_List_nod@PAXV?$allocator@PAX@std@@@2@PAU342@@Z ; std::list<void *,std::allocator<void *> >::_Prevnode
; Function compile flags: /Ogty
;	COMDAT ?_Prevnode@?$list@PAXV?$allocator@PAX@std@@@std@@KAAAPAU_Node@?$_List_nod@PAXV?$allocator@PAX@std@@@2@PAU342@@Z
_TEXT	SEGMENT
__Pnode$ = 8						; size = 4
?_Prevnode@?$list@PAXV?$allocator@PAX@std@@@std@@KAAAPAU_Node@?$_List_nod@PAXV?$allocator@PAX@std@@@2@PAU342@@Z PROC NEAR ; std::list<void *,std::allocator<void *> >::_Prevnode, COMDAT

; 113  : 		return ((_Nodepref)(*_Pnode)._Prev);

  00000	8b 44 24 04	 mov	 eax, DWORD PTR __Pnode$[esp-4]
  00004	83 c0 04	 add	 eax, 4

; 114  : 		}

  00007	c3		 ret	 0
?_Prevnode@?$list@PAXV?$allocator@PAX@std@@@std@@KAAAPAU_Node@?$_List_nod@PAXV?$allocator@PAX@std@@@2@PAU342@@Z ENDP ; std::list<void *,std::allocator<void *> >::_Prevnode
_TEXT	ENDS
PUBLIC	?_Mynode@const_iterator@?$list@PAXV?$allocator@PAX@std@@@std@@QBEPAU_Node@?$_List_nod@PAXV?$allocator@PAX@std@@@3@XZ ; std::list<void *,std::allocator<void *> >::const_iterator::_Mynode
; Function compile flags: /Ogty
;	COMDAT ?_Mynode@const_iterator@?$list@PAXV?$allocator@PAX@std@@@std@@QBEPAU_Node@?$_List_nod@PAXV?$allocator@PAX@std@@@3@XZ
_TEXT	SEGMENT
?_Mynode@const_iterator@?$list@PAXV?$allocator@PAX@std@@@std@@QBEPAU_Node@?$_List_nod@PAXV?$allocator@PAX@std@@@3@XZ PROC NEAR ; std::list<void *,std::allocator<void *> >::const_iterator::_Mynode, COMDAT
; _this$ = ecx

; 207  : 			return (_Ptr);

  00000	8b 01		 mov	 eax, DWORD PTR [ecx]

; 208  : 			}

  00002	c3		 ret	 0
?_Mynode@const_iterator@?$list@PAXV?$allocator@PAX@std@@@std@@QBEPAU_Node@?$_List_nod@PAXV?$allocator@PAX@std@@@3@XZ ENDP ; std::list<void *,std::allocator<void *> >::const_iterator::_Mynode
_TEXT	ENDS
PUBLIC	?deallocate@?$allocator@U_Node@?$_List_nod@PAXV?$allocator@PAX@std@@@std@@@std@@QAEXPAU_Node@?$_List_nod@PAXV?$allocator@PAX@std@@@2@I@Z ; std::allocator<std::_List_nod<void *,std::allocator<void *> >::_Node>::deallocate
; Function compile flags: /Ogty
; File c:\program files\microsoft visual studio .net 2003\vc7\include\xmemory
;	COMDAT ?deallocate@?$allocator@U_Node@?$_List_nod@PAXV?$allocator@PAX@std@@@std@@@std@@QAEXPAU_Node@?$_List_nod@PAXV?$allocator@PAX@std@@@2@I@Z
_TEXT	SEGMENT
__Ptr$ = 8						; size = 4
___formal$ = 12						; size = 4
?deallocate@?$allocator@U_Node@?$_List_nod@PAXV?$allocator@PAX@std@@@std@@@std@@QAEXPAU_Node@?$_List_nod@PAXV?$allocator@PAX@std@@@2@I@Z PROC NEAR ; std::allocator<std::_List_nod<void *,std::allocator<void *> >::_Node>::deallocate, COMDAT
; _this$ = ecx

; 132  : 		operator delete(_Ptr);

  00000	8b 44 24 04	 mov	 eax, DWORD PTR __Ptr$[esp-4]
  00004	50		 push	 eax
  00005	e8 00 00 00 00	 call	 ??3@YAXPAX@Z		; operator delete
  0000a	59		 pop	 ecx

; 133  : 		}

  0000b	c2 08 00	 ret	 8
?deallocate@?$allocator@U_Node@?$_List_nod@PAXV?$allocator@PAX@std@@@std@@@std@@QAEXPAU_Node@?$_List_nod@PAXV?$allocator@PAX@std@@@2@I@Z ENDP ; std::allocator<std::_List_nod<void *,std::allocator<void *> >::_Node>::deallocate
_TEXT	ENDS
PUBLIC	??0const_iterator@?$list@PAXV?$allocator@PAX@std@@@std@@QAE@PAU_Node@?$_List_nod@PAXV?$allocator@PAX@std@@@2@@Z ; std::list<void *,std::allocator<void *> >::const_iterator::const_iterator
; Function compile flags: /Ogty
; File c:\program files\microsoft visual studio .net 2003\vc7\include\list
;	COMDAT ??0const_iterator@?$list@PAXV?$allocator@PAX@std@@@std@@QAE@PAU_Node@?$_List_nod@PAXV?$allocator@PAX@std@@@2@@Z
_TEXT	SEGMENT
__Pnode$ = 8						; size = 4
??0const_iterator@?$list@PAXV?$allocator@PAX@std@@@std@@QAE@PAU_Node@?$_List_nod@PAXV?$allocator@PAX@std@@@2@@Z PROC NEAR ; std::list<void *,std::allocator<void *> >::const_iterator::const_iterator, COMDAT
; _this$ = ecx

; 156  : 			{	// construct with node pointer _Pnode

  00000	8b c1		 mov	 eax, ecx
  00002	8b 4c 24 04	 mov	 ecx, DWORD PTR __Pnode$[esp-4]
  00006	89 08		 mov	 DWORD PTR [eax], ecx

; 157  : 			}

  00008	c2 04 00	 ret	 4
??0const_iterator@?$list@PAXV?$allocator@PAX@std@@@std@@QAE@PAU_Node@?$_List_nod@PAXV?$allocator@PAX@std@@@2@@Z ENDP ; std::list<void *,std::allocator<void *> >::const_iterator::const_iterator
_TEXT	ENDS
PUBLIC	??0_Node@?$_List_nod@PAXV?$allocator@PAX@std@@@std@@QAE@PAU012@0ABQAX@Z ; std::_List_nod<void *,std::allocator<void *> >::_Node::_Node
; Function compile flags: /Ogty
;	COMDAT ??0_Node@?$_List_nod@PAXV?$allocator@PAX@std@@@std@@QAE@PAU012@0ABQAX@Z
_TEXT	SEGMENT
__Nextarg$ = 8						; size = 4
__Prevarg$ = 12						; size = 4
__Myvalarg$ = 16					; size = 4
??0_Node@?$_List_nod@PAXV?$allocator@PAX@std@@@std@@QAE@PAU012@0ABQAX@Z PROC NEAR ; std::_List_nod<void *,std::allocator<void *> >::_Node::_Node, COMDAT
; _this$ = ecx

; 34   : 			{	// construct a node with value

  00000	8b 54 24 08	 mov	 edx, DWORD PTR __Prevarg$[esp-4]
  00004	8b c1		 mov	 eax, ecx
  00006	8b 4c 24 04	 mov	 ecx, DWORD PTR __Nextarg$[esp-4]
  0000a	89 08		 mov	 DWORD PTR [eax], ecx
  0000c	8b 4c 24 0c	 mov	 ecx, DWORD PTR __Myvalarg$[esp-4]
  00010	89 50 04	 mov	 DWORD PTR [eax+4], edx
  00013	8b 11		 mov	 edx, DWORD PTR [ecx]
  00015	89 50 08	 mov	 DWORD PTR [eax+8], edx

; 35   : 			}

  00018	c2 0c 00	 ret	 12			; 0000000cH
??0_Node@?$_List_nod@PAXV?$allocator@PAX@std@@@std@@QAE@PAU012@0ABQAX@Z ENDP ; std::_List_nod<void *,std::allocator<void *> >::_Node::_Node
_TEXT	ENDS
PUBLIC	?max_size@?$allocator@PAX@std@@QBEIXZ		; std::allocator<void *>::max_size
; Function compile flags: /Ogty
; File c:\program files\microsoft visual studio .net 2003\vc7\include\xmemory
;	COMDAT ?max_size@?$allocator@PAX@std@@QBEIXZ
_TEXT	SEGMENT
?max_size@?$allocator@PAX@std@@QBEIXZ PROC NEAR		; std::allocator<void *>::max_size, COMDAT
; _this$ = ecx

; 157  : 		_SIZT _Count = (_SIZT)(-1) / sizeof (_Ty);
; 158  : 		return (0 < _Count ? _Count : 1);

  00000	b8 ff ff ff 3f	 mov	 eax, 1073741823		; 3fffffffH

; 159  : 		}

  00005	c3		 ret	 0
?max_size@?$allocator@PAX@std@@QBEIXZ ENDP		; std::allocator<void *>::max_size
_TEXT	ENDS
PUBLIC	??$_Allocate@D@std@@YAPADIPAD@Z			; std::_Allocate<char>
EXTRN	??2@YAPAXI@Z:NEAR				; operator new
; Function compile flags: /Ogty
;	COMDAT ??$_Allocate@D@std@@YAPADIPAD@Z
_TEXT	SEGMENT
__Count$ = 8						; size = 4
___formal$ = 12						; size = 4
??$_Allocate@D@std@@YAPADIPAD@Z PROC NEAR		; std::_Allocate<char>, COMDAT

; 34   : 	return ((_Ty _FARQ *)operator new(_Count * sizeof (_Ty)));

  00000	8b 44 24 04	 mov	 eax, DWORD PTR __Count$[esp-4]
  00004	50		 push	 eax
  00005	e8 00 00 00 00	 call	 ??2@YAPAXI@Z		; operator new
  0000a	83 c4 04	 add	 esp, 4

; 35   : 	}

  0000d	c3		 ret	 0
??$_Allocate@D@std@@YAPADIPAD@Z ENDP			; std::_Allocate<char>
_TEXT	ENDS
PUBLIC	??$_Allocate@U_Node@?$_List_nod@PAXV?$allocator@PAX@std@@@std@@@std@@YAPAU_Node@?$_List_nod@PAXV?$allocator@PAX@std@@@0@IPAU120@@Z ; std::_Allocate<std::_List_nod<void *,std::allocator<void *> >::_Node>
; Function compile flags: /Ogty
;	COMDAT ??$_Allocate@U_Node@?$_List_nod@PAXV?$allocator@PAX@std@@@std@@@std@@YAPAU_Node@?$_List_nod@PAXV?$allocator@PAX@std@@@0@IPAU120@@Z
_TEXT	SEGMENT
__Count$ = 8						; size = 4
___formal$ = 12						; size = 4
??$_Allocate@U_Node@?$_List_nod@PAXV?$allocator@PAX@std@@@std@@@std@@YAPAU_Node@?$_List_nod@PAXV?$allocator@PAX@std@@@0@IPAU120@@Z PROC NEAR ; std::_Allocate<std::_List_nod<void *,std::allocator<void *> >::_Node>, COMDAT

; 34   : 	return ((_Ty _FARQ *)operator new(_Count * sizeof (_Ty)));

  00000	8b 44 24 04	 mov	 eax, DWORD PTR __Count$[esp-4]
  00004	8d 04 40	 lea	 eax, DWORD PTR [eax+eax*2]
  00007	c1 e0 02	 shl	 eax, 2
  0000a	50		 push	 eax
  0000b	e8 00 00 00 00	 call	 ??2@YAPAXI@Z		; operator new
  00010	83 c4 04	 add	 esp, 4

; 35   : 	}

  00013	c3		 ret	 0
??$_Allocate@U_Node@?$_List_nod@PAXV?$allocator@PAX@std@@@std@@@std@@YAPAU_Node@?$_List_nod@PAXV?$allocator@PAX@std@@@0@IPAU120@@Z ENDP ; std::_Allocate<std::_List_nod<void *,std::allocator<void *> >::_Node>
_TEXT	ENDS
PUBLIC	??0CBufferQueue@@QAE@XZ				; CBufferQueue::CBufferQueue
PUBLIC	??_7CBufferQueue@@6B@				; CBufferQueue::`vftable'
PUBLIC	??_GCBufferQueue@@UAEPAXI@Z			; CBufferQueue::`scalar deleting destructor'
EXTRN	??_ECBufferQueue@@UAEPAXI@Z:NEAR		; CBufferQueue::`vector deleting destructor'
;	COMDAT ??_7CBufferQueue@@6B@
; File c:\documents and settings\test\mes documents\source\virtuos_v17\build\program\_network\mcl\include\cmclcritsec.h
CONST	SEGMENT
??_7CBufferQueue@@6B@ DD FLAT:??_ECBufferQueue@@UAEPAXI@Z ; CBufferQueue::`vftable'
; Function compile flags: /Ogty
; File c:\documents and settings\test\mes documents\source\virtuos_v17\build\program\_network\net\src\buffer.cpp
CONST	ENDS
;	COMDAT ??0CBufferQueue@@QAE@XZ
_TEXT	SEGMENT
??0CBufferQueue@@QAE@XZ PROC NEAR			; CBufferQueue::CBufferQueue, COMDAT
; _this$ = ecx

; 72   : {

  00000	56		 push	 esi
  00001	8b f1		 mov	 esi, ecx
  00003	8d 46 14	 lea	 eax, DWORD PTR [esi+20]
  00006	c7 06 00 00 00
	00		 mov	 DWORD PTR [esi], OFFSET FLAT:??_7CBufferQueue@@6B@
  0000c	50		 push	 eax
  0000d	c7 46 10 00 00
	00 00		 mov	 DWORD PTR [esi+16], OFFSET FLAT:??_7CMclCritSec@@6B@
  00014	ff 15 00 00 00
	00		 call	 DWORD PTR __imp__InitializeCriticalSection@4

; 73   : 	m_uCount	= 0;

  0001a	33 c0		 xor	 eax, eax
  0001c	89 46 0c	 mov	 DWORD PTR [esi+12], eax

; 74   : 	m_pHead		= m_pTail	= NULL;

  0001f	89 46 08	 mov	 DWORD PTR [esi+8], eax
  00022	89 46 04	 mov	 DWORD PTR [esi+4], eax

; 75   : #ifdef __CRC
; 76   : 	m_pcrc	= NULL;
; 77   : 	m_dwWriteHeaderSize		= HEADERSIZE5;
; 78   : #endif	// __CRC
; 79   : 
; 80   : #ifdef __PROTOCOL0910
; 81   : 	m_pdwProtocolId		= NULL;
; 82   : #endif	// __PROTOCOL0910
; 83   : 
; 84   : #ifdef __PACKET_REPLAY_W
; 85   : 	m_nPacket	= 0;
; 86   : #endif	// __PACKET_REPLAY_W
; 87   : }

  00025	8b c6		 mov	 eax, esi
  00027	5e		 pop	 esi
  00028	c3		 ret	 0
??0CBufferQueue@@QAE@XZ ENDP				; CBufferQueue::CBufferQueue
_TEXT	ENDS
PUBLIC	?Clear@CBufferQueue@@QAEXH@Z			; CBufferQueue::Clear
EXTRN	__except_list:DWORD
EXTRN	___CxxFrameHandler:NEAR
;	COMDAT xdata$x
; File c:\documents and settings\test\mes documents\source\virtuos_v17\build\program\_network\mcl\include\cmclcritsec.h
xdata$x	SEGMENT
$T187452 DD	0ffffffffH
	DD	FLAT:$L187422
$T187447 DD	019930520H
	DD	01H
	DD	FLAT:$T187452
	DD	2 DUP(00H)
	DD	2 DUP(00H)
; Function compile flags: /Ogty
; File c:\documents and settings\test\mes documents\source\virtuos_v17\build\program\_network\net\src\buffer.cpp
xdata$x	ENDS
;	COMDAT ?Clear@CBufferQueue@@QAEXH@Z
_TEXT	SEGMENT
_Lock$ = -16						; size = 4
__$EHRec$ = -12						; size = 12
_bDelete$ = 8						; size = 4
?Clear@CBufferQueue@@QAEXH@Z PROC NEAR			; CBufferQueue::Clear, COMDAT
; _this$ = ecx

; 95   : {

  00000	6a ff		 push	 -1
  00002	68 00 00 00 00	 push	 __ehhandler$?Clear@CBufferQueue@@QAEXH@Z
  00007	64 a1 00 00 00
	00		 mov	 eax, DWORD PTR fs:__except_list
  0000d	50		 push	 eax
  0000e	64 89 25 00 00
	00 00		 mov	 DWORD PTR fs:__except_list, esp
  00015	51		 push	 ecx
  00016	53		 push	 ebx
  00017	55		 push	 ebp
  00018	57		 push	 edi
  00019	8b f9		 mov	 edi, ecx

; 96   : 	CMclAutoLock	Lock( m_cs );

  0001b	8d 47 10	 lea	 eax, DWORD PTR [edi+16]
  0001e	8d 68 04	 lea	 ebp, DWORD PTR [eax+4]
  00021	55		 push	 ebp
  00022	89 44 24 10	 mov	 DWORD PTR _Lock$[esp+32], eax
  00026	ff 15 00 00 00
	00		 call	 DWORD PTR __imp__EnterCriticalSection@4

; 97   : 
; 98   : 	if( bDelete )

  0002c	8b 44 24 20	 mov	 eax, DWORD PTR _bDelete$[esp+24]
  00030	33 db		 xor	 ebx, ebx
  00032	3b c3		 cmp	 eax, ebx
  00034	89 5c 24 18	 mov	 DWORD PTR __$EHRec$[esp+36], ebx
  00038	74 1b		 je	 SHORT $L186764

; 99   : 	{
; 100  : 		CBuffer* pBuffer	= GetHead(), *ptrtmp;

  0003a	8b 4f 04	 mov	 ecx, DWORD PTR [edi+4]

; 101  : 
; 102  : 		INIT_LOOP;
; 103  : 		while( pBuffer )

  0003d	3b cb		 cmp	 ecx, ebx
  0003f	74 14		 je	 SHORT $L186764
  00041	56		 push	 esi
$L186763:

; 104  : 		{
; 105  : 			VERIFY_LOOP( __FILE__, __LINE__ );
; 106  : 
; 107  : 			ptrtmp	= pBuffer->pNext;
; 108  : 			SAFE_DELETE( pBuffer );

  00042	8b 01		 mov	 eax, DWORD PTR [ecx]
  00044	8b b1 1c 20 00
	00		 mov	 esi, DWORD PTR [ecx+8220]
  0004a	6a 01		 push	 1
  0004c	ff 10		 call	 DWORD PTR [eax]
  0004e	3b f3		 cmp	 esi, ebx

; 109  : 			pBuffer	= ptrtmp;

  00050	8b ce		 mov	 ecx, esi
  00052	75 ee		 jne	 SHORT $L186763
  00054	5e		 pop	 esi
$L186764:

; 110  : 		}
; 111  : 	}
; 112  : 	m_uCount	= 0;
; 113  : 	m_pHead	= m_pTail	= NULL;
; 114  : }

  00055	55		 push	 ebp
  00056	89 5f 0c	 mov	 DWORD PTR [edi+12], ebx
  00059	89 5f 08	 mov	 DWORD PTR [edi+8], ebx
  0005c	89 5f 04	 mov	 DWORD PTR [edi+4], ebx
  0005f	ff 15 00 00 00
	00		 call	 DWORD PTR __imp__LeaveCriticalSection@4
  00065	8b 4c 24 10	 mov	 ecx, DWORD PTR __$EHRec$[esp+28]
  00069	5f		 pop	 edi
  0006a	5d		 pop	 ebp
  0006b	5b		 pop	 ebx
  0006c	64 89 0d 00 00
	00 00		 mov	 DWORD PTR fs:__except_list, ecx
  00073	83 c4 10	 add	 esp, 16			; 00000010H
  00076	c2 04 00	 ret	 4
_TEXT	ENDS
;	COMDAT text$x
text$x	SEGMENT
$L187422:
  00000	8d 4d f0	 lea	 ecx, DWORD PTR _Lock$[ebp]
  00003	e9 00 00 00 00	 jmp	 ??1CMclAutoLock@@QAE@XZ	; CMclAutoLock::~CMclAutoLock
__ehhandler$?Clear@CBufferQueue@@QAEXH@Z:
  00008	b8 00 00 00 00	 mov	 eax, OFFSET FLAT:$T187447
  0000d	e9 00 00 00 00	 jmp	 ___CxxFrameHandler
text$x	ENDS
?Clear@CBufferQueue@@QAEXH@Z ENDP			; CBufferQueue::Clear
PUBLIC	?RemoveData@CBufferQueue@@QAEXK@Z		; CBufferQueue::RemoveData
; Function compile flags: /Ogty
;	COMDAT ?RemoveData@CBufferQueue@@QAEXK@Z
_TEXT	SEGMENT
_uDataSize$ = 8						; size = 4
?RemoveData@CBufferQueue@@QAEXK@Z PROC NEAR		; CBufferQueue::RemoveData, COMDAT
; _this$ = ecx

; 219  : {

  00000	53		 push	 ebx

; 220  : 	CBuffer* pBuffer;
; 221  : 	
; 222  : //	CMclAutoLock	Lock( m_cs );
; 223  : 	u_long uRemnant;
; 224  : 
; 225  : 	INIT_LOOP;
; 226  : 	while( uDataSize > 0 )

  00001	8b 5c 24 08	 mov	 ebx, DWORD PTR _uDataSize$[esp]
  00005	55		 push	 ebp
  00006	33 ed		 xor	 ebp, ebp
  00008	3b dd		 cmp	 ebx, ebp
  0000a	56		 push	 esi
  0000b	8b f1		 mov	 esi, ecx
  0000d	76 5c		 jbe	 SHORT $L187480
  0000f	57		 push	 edi
$L186801:

; 227  : 	{
; 228  : 		VERIFY_LOOP( __FILE__, __LINE__ );
; 229  : 
; 230  : 		pBuffer	= GetHead();

  00010	8b 4e 04	 mov	 ecx, DWORD PTR [esi+4]

; 231  : //		ASSERT( pBuffer );
; 232  : 		if( NULL == pBuffer )

  00013	3b cd		 cmp	 ecx, ebp
  00015	74 53		 je	 SHORT $L187482

; 233  : 			return;
; 234  : 
; 235  : 		uRemnant	= pBuffer->GetReadableBufferSize();

  00017	8b b9 18 20 00
	00		 mov	 edi, DWORD PTR [ecx+8216]
  0001d	2b b9 14 20 00
	00		 sub	 edi, DWORD PTR [ecx+8212]

; 236  : 		if( uRemnant > uDataSize )

  00023	3b fb		 cmp	 edi, ebx
  00025	77 3d		 ja	 SHORT $L187481

; 239  : 			uDataSize	= 0;
; 240  : 		}
; 241  : 		else
; 242  : 		{
; 243  : 			RemoveHead();

  00027	39 6e 0c	 cmp	 DWORD PTR [esi+12], ebp
  0002a	74 24		 je	 SHORT $L187476
  0002c	39 4e 08	 cmp	 DWORD PTR [esi+8], ecx
  0002f	75 03		 jne	 SHORT $L187477
  00031	89 6e 08	 mov	 DWORD PTR [esi+8], ebp
$L187477:
  00034	8b 81 1c 20 00
	00		 mov	 eax, DWORD PTR [ecx+8220]
  0003a	3b c5		 cmp	 eax, ebp
  0003c	74 06		 je	 SHORT $L187478
  0003e	89 a8 20 20 00
	00		 mov	 DWORD PTR [eax+8224], ebp
$L187478:
  00044	8b 46 04	 mov	 eax, DWORD PTR [esi+4]
  00047	8b 90 1c 20 00
	00		 mov	 edx, DWORD PTR [eax+8220]
  0004d	89 56 04	 mov	 DWORD PTR [esi+4], edx
$L187476:
  00050	ff 4e 0c	 dec	 DWORD PTR [esi+12]

; 244  : //			SAFE_DELETE( pBuffer );
; 245  : 			safe_delete( pBuffer );

  00053	8b 01		 mov	 eax, DWORD PTR [ecx]
  00055	6a 01		 push	 1
  00057	ff 10		 call	 DWORD PTR [eax]

; 246  : 			uDataSize	-= uRemnant;

  00059	2b df		 sub	 ebx, edi
  0005b	75 b3		 jne	 SHORT $L186801
  0005d	5f		 pop	 edi
  0005e	5e		 pop	 esi
  0005f	5d		 pop	 ebp
  00060	5b		 pop	 ebx

; 247  : 		}
; 248  : 	}
; 249  : }

  00061	c2 04 00	 ret	 4
$L187481:

; 237  : 		{
; 238  : 			pBuffer->m_pHead	+= uDataSize;

  00064	01 99 14 20 00
	00		 add	 DWORD PTR [ecx+8212], ebx
$L187482:
  0006a	5f		 pop	 edi
$L187480:
  0006b	5e		 pop	 esi
  0006c	5d		 pop	 ebp
  0006d	5b		 pop	 ebx

; 247  : 		}
; 248  : 	}
; 249  : }

  0006e	c2 04 00	 ret	 4
?RemoveData@CBufferQueue@@QAEXK@Z ENDP			; CBufferQueue::RemoveData
_TEXT	ENDS
PUBLIC	?GetData@CBufferQueue@@QAEXPAU_WSABUF@@PAK@Z	; CBufferQueue::GetData
; Function compile flags: /Ogty
;	COMDAT ?GetData@CBufferQueue@@QAEXPAU_WSABUF@@PAK@Z
_TEXT	SEGMENT
_lpBuffers$ = 8						; size = 4
_lpdwBufferCount$ = 12					; size = 4
?GetData@CBufferQueue@@QAEXPAU_WSABUF@@PAK@Z PROC NEAR	; CBufferQueue::GetData, COMDAT
; _this$ = ecx

; 253  : 	CBuffer* pBuffer;
; 254  : 	int	i	= 0;
; 255  : //	*lpdwBufferCount	= 0;
; 256  : //	CMclAutoLock	Lock( m_cs );	
; 257  : 	pBuffer	= GetHead();

  00000	8b 41 04	 mov	 eax, DWORD PTR [ecx+4]
  00003	33 d2		 xor	 edx, edx

; 258  : 
; 259  : 	while( pBuffer && i < MAX_WSABUF )

  00005	85 c0		 test	 eax, eax
  00007	74 3d		 je	 SHORT $L187494
  00009	8b 4c 24 04	 mov	 ecx, DWORD PTR _lpBuffers$[esp-4]
  0000d	56		 push	 esi
  0000e	8b ff		 npad	 2
$L186818:
  00010	81 fa 80 00 00
	00		 cmp	 edx, 128		; 00000080H
  00016	7d 24		 jge	 SHORT $L187495

; 260  : 	{
; 261  : 		lpBuffers[i].buf	= (char*)pBuffer->GetReadableBuffer( (int*)&lpBuffers[i].len );

  00018	8b b0 18 20 00
	00		 mov	 esi, DWORD PTR [eax+8216]
  0001e	2b b0 14 20 00
	00		 sub	 esi, DWORD PTR [eax+8212]
  00024	89 34 d1	 mov	 DWORD PTR [ecx+edx*8], esi
  00027	8b b0 14 20 00
	00		 mov	 esi, DWORD PTR [eax+8212]
  0002d	89 74 d1 04	 mov	 DWORD PTR [ecx+edx*8+4], esi

; 262  : 		i++;
; 263  : 		pBuffer	= pBuffer->pNext;

  00031	8b 80 1c 20 00
	00		 mov	 eax, DWORD PTR [eax+8220]
  00037	42		 inc	 edx
  00038	85 c0		 test	 eax, eax
  0003a	75 d4		 jne	 SHORT $L186818
$L187495:

; 264  : 	}
; 265  : 	*lpdwBufferCount	= i;

  0003c	8b 44 24 0c	 mov	 eax, DWORD PTR _lpdwBufferCount$[esp]
  00040	89 10		 mov	 DWORD PTR [eax], edx
  00042	5e		 pop	 esi

; 266  : }

  00043	c2 08 00	 ret	 8
$L187494:

; 264  : 	}
; 265  : 	*lpdwBufferCount	= i;

  00046	8b 4c 24 08	 mov	 ecx, DWORD PTR _lpdwBufferCount$[esp-4]
  0004a	89 11		 mov	 DWORD PTR [ecx], edx

; 266  : }

  0004c	c2 08 00	 ret	 8
?GetData@CBufferQueue@@QAEXPAU_WSABUF@@PAK@Z ENDP	; CBufferQueue::GetData
_TEXT	ENDS
PUBLIC	?construct@?$allocator@PAU_Node@?$_List_nod@PAXV?$allocator@PAX@std@@@std@@@std@@QAEXPAPAU_Node@?$_List_nod@PAXV?$allocator@PAX@std@@@2@ABQAU342@@Z ; std::allocator<std::_List_nod<void *,std::allocator<void *> >::_Node *>::construct
; Function compile flags: /Ogty
; File c:\program files\microsoft visual studio .net 2003\vc7\include\xmemory
;	COMDAT ?construct@?$allocator@PAU_Node@?$_List_nod@PAXV?$allocator@PAX@std@@@std@@@std@@QAEXPAPAU_Node@?$_List_nod@PAXV?$allocator@PAX@std@@@2@ABQAU342@@Z
_TEXT	SEGMENT
__Ptr$ = 8						; size = 4
__Val$ = 12						; size = 4
?construct@?$allocator@PAU_Node@?$_List_nod@PAXV?$allocator@PAX@std@@@std@@@std@@QAEXPAPAU_Node@?$_List_nod@PAXV?$allocator@PAX@std@@@2@ABQAU342@@Z PROC NEAR ; std::allocator<std::_List_nod<void *,std::allocator<void *> >::_Node *>::construct, COMDAT
; _this$ = ecx

; 147  : 		_Construct(_Ptr, _Val);

  00000	8b 44 24 04	 mov	 eax, DWORD PTR __Ptr$[esp-4]
  00004	85 c0		 test	 eax, eax
  00006	74 08		 je	 SHORT $L187509
  00008	8b 4c 24 08	 mov	 ecx, DWORD PTR __Val$[esp-4]
  0000c	8b 11		 mov	 edx, DWORD PTR [ecx]
  0000e	89 10		 mov	 DWORD PTR [eax], edx
$L187509:

; 148  : 		}

  00010	c2 08 00	 ret	 8
?construct@?$allocator@PAU_Node@?$_List_nod@PAXV?$allocator@PAX@std@@@std@@@std@@QAEXPAPAU_Node@?$_List_nod@PAXV?$allocator@PAX@std@@@2@ABQAU342@@Z ENDP ; std::allocator<std::_List_nod<void *,std::allocator<void *> >::_Node *>::construct
_TEXT	ENDS
PUBLIC	?destroy@?$allocator@PAU_Node@?$_List_nod@PAXV?$allocator@PAX@std@@@std@@@std@@QAEXPAPAU_Node@?$_List_nod@PAXV?$allocator@PAX@std@@@2@@Z ; std::allocator<std::_List_nod<void *,std::allocator<void *> >::_Node *>::destroy
; Function compile flags: /Ogty
;	COMDAT ?destroy@?$allocator@PAU_Node@?$_List_nod@PAXV?$allocator@PAX@std@@@std@@@std@@QAEXPAPAU_Node@?$_List_nod@PAXV?$allocator@PAX@std@@@2@@Z
_TEXT	SEGMENT
__Ptr$ = 8						; size = 4
?destroy@?$allocator@PAU_Node@?$_List_nod@PAXV?$allocator@PAX@std@@@std@@@std@@QAEXPAPAU_Node@?$_List_nod@PAXV?$allocator@PAX@std@@@2@@Z PROC NEAR ; std::allocator<std::_List_nod<void *,std::allocator<void *> >::_Node *>::destroy, COMDAT
; _this$ = ecx

; 152  : 		_Destroy(_Ptr);
; 153  : 		}

  00000	c2 04 00	 ret	 4
?destroy@?$allocator@PAU_Node@?$_List_nod@PAXV?$allocator@PAX@std@@@std@@@std@@QAEXPAPAU_Node@?$_List_nod@PAXV?$allocator@PAX@std@@@2@@Z ENDP ; std::allocator<std::_List_nod<void *,std::allocator<void *> >::_Node *>::destroy
_TEXT	ENDS
PUBLIC	??0?$_List_nod@PAXV?$allocator@PAX@std@@@std@@IAE@V?$allocator@PAX@1@@Z ; std::_List_nod<void *,std::allocator<void *> >::_List_nod<void *,std::allocator<void *> >
; Function compile flags: /Ogty
; File c:\program files\microsoft visual studio .net 2003\vc7\include\list
;	COMDAT ??0?$_List_nod@PAXV?$allocator@PAX@std@@@std@@IAE@V?$allocator@PAX@1@@Z
_TEXT	SEGMENT
__Al$ = 8						; size = 1
??0?$_List_nod@PAXV?$allocator@PAX@std@@@std@@IAE@V?$allocator@PAX@1@@Z PROC NEAR ; std::_List_nod<void *,std::allocator<void *> >::_List_nod<void *,std::allocator<void *> >, COMDAT
; _this$ = ecx

; 44   : 		{	// construct allocator from _Al

  00000	8b c1		 mov	 eax, ecx

; 45   : 		}

  00002	c2 04 00	 ret	 4
??0?$_List_nod@PAXV?$allocator@PAX@std@@@std@@IAE@V?$allocator@PAX@1@@Z ENDP ; std::_List_nod<void *,std::allocator<void *> >::_List_nod<void *,std::allocator<void *> >
_TEXT	ENDS
PUBLIC	?destroy@?$allocator@U_Node@?$_List_nod@PAXV?$allocator@PAX@std@@@std@@@std@@QAEXPAU_Node@?$_List_nod@PAXV?$allocator@PAX@std@@@2@@Z ; std::allocator<std::_List_nod<void *,std::allocator<void *> >::_Node>::destroy
; Function compile flags: /Ogty
; File c:\program files\microsoft visual studio .net 2003\vc7\include\xmemory
;	COMDAT ?destroy@?$allocator@U_Node@?$_List_nod@PAXV?$allocator@PAX@std@@@std@@@std@@QAEXPAU_Node@?$_List_nod@PAXV?$allocator@PAX@std@@@2@@Z
_TEXT	SEGMENT
__Ptr$ = 8						; size = 4
?destroy@?$allocator@U_Node@?$_List_nod@PAXV?$allocator@PAX@std@@@std@@@std@@QAEXPAU_Node@?$_List_nod@PAXV?$allocator@PAX@std@@@2@@Z PROC NEAR ; std::allocator<std::_List_nod<void *,std::allocator<void *> >::_Node>::destroy, COMDAT
; _this$ = ecx

; 152  : 		_Destroy(_Ptr);
; 153  : 		}

  00000	c2 04 00	 ret	 4
?destroy@?$allocator@U_Node@?$_List_nod@PAXV?$allocator@PAX@std@@@std@@@std@@QAEXPAU_Node@?$_List_nod@PAXV?$allocator@PAX@std@@@2@@Z ENDP ; std::allocator<std::_List_nod<void *,std::allocator<void *> >::_Node>::destroy
_TEXT	ENDS
PUBLIC	??3CBuffer@@SAXPAX@Z				; CBuffer::operator delete
; Function compile flags: /Ogty
; File c:\documents and settings\test\mes documents\source\virtuos_v17\build\program\_network\net\include\buffer.h
;	COMDAT ??3CBuffer@@SAXPAX@Z
_TEXT	SEGMENT
_lpMem$ = 8						; size = 4
??3CBuffer@@SAXPAX@Z PROC NEAR				; CBuffer::operator delete, COMDAT

; 90   : 	void	operator delete( void* lpMem )	{	CBuffer::m_pPool->Free( (CBuffer*)lpMem );	}

  00000	53		 push	 ebx
  00001	56		 push	 esi
  00002	8b 35 00 00 00
	00		 mov	 esi, DWORD PTR ?m_pPool@CBuffer@@2PAV?$MemPooler@VCBuffer@@@@A ; CBuffer::m_pPool
  00008	57		 push	 edi
  00009	8d 5e 1c	 lea	 ebx, DWORD PTR [esi+28]
  0000c	53		 push	 ebx
  0000d	ff 15 00 00 00
	00		 call	 DWORD PTR __imp__EnterCriticalSection@4
  00013	8b 4e 18	 mov	 ecx, DWORD PTR [esi+24]
  00016	85 c9		 test	 ecx, ecx
  00018	8b 7c 24 10	 mov	 edi, DWORD PTR _lpMem$[esp+8]
  0001c	8d 47 fc	 lea	 eax, DWORD PTR [edi-4]
  0001f	7e 09		 jle	 SHORT $L187535
  00021	8b 0e		 mov	 ecx, DWORD PTR [esi]
  00023	89 08		 mov	 DWORD PTR [eax], ecx
  00025	89 06		 mov	 DWORD PTR [esi], eax
  00027	ff 4e 18	 dec	 DWORD PTR [esi+24]
$L187535:
  0002a	33 c0		 xor	 eax, eax
  0002c	b9 0a 08 00 00	 mov	 ecx, 2058		; 0000080aH
  00031	53		 push	 ebx
  00032	f3 ab		 rep stosd
  00034	ff 15 00 00 00
	00		 call	 DWORD PTR __imp__LeaveCriticalSection@4
  0003a	5f		 pop	 edi
  0003b	5e		 pop	 esi
  0003c	5b		 pop	 ebx
  0003d	c3		 ret	 0
??3CBuffer@@SAXPAX@Z ENDP				; CBuffer::operator delete
_TEXT	ENDS
PUBLIC	??3CBuffer2@@SAXPAX@Z				; CBuffer2::operator delete
; Function compile flags: /Ogty
;	COMDAT ??3CBuffer2@@SAXPAX@Z
_TEXT	SEGMENT
_lpMem$ = 8						; size = 4
??3CBuffer2@@SAXPAX@Z PROC NEAR				; CBuffer2::operator delete, COMDAT

; 159  : 	void	operator delete( void* lpMem )	{	CBuffer2::m_pPool2->Free( (CBuffer2*)lpMem );	}

  00000	53		 push	 ebx
  00001	56		 push	 esi
  00002	8b 35 00 00 00
	00		 mov	 esi, DWORD PTR ?m_pPool2@CBuffer2@@2PAV?$MemPooler@VCBuffer2@@@@A ; CBuffer2::m_pPool2
  00008	57		 push	 edi
  00009	8d 5e 1c	 lea	 ebx, DWORD PTR [esi+28]
  0000c	53		 push	 ebx
  0000d	ff 15 00 00 00
	00		 call	 DWORD PTR __imp__EnterCriticalSection@4
  00013	8b 4e 18	 mov	 ecx, DWORD PTR [esi+24]
  00016	85 c9		 test	 ecx, ecx
  00018	8b 7c 24 10	 mov	 edi, DWORD PTR _lpMem$[esp+8]
  0001c	8d 47 fc	 lea	 eax, DWORD PTR [edi-4]
  0001f	7e 09		 jle	 SHORT $L187543
  00021	8b 0e		 mov	 ecx, DWORD PTR [esi]
  00023	89 08		 mov	 DWORD PTR [eax], ecx
  00025	89 06		 mov	 DWORD PTR [esi], eax
  00027	ff 4e 18	 dec	 DWORD PTR [esi+24]
$L187543:
  0002a	33 c0		 xor	 eax, eax
  0002c	b9 0a 08 00 00	 mov	 ecx, 2058		; 0000080aH
  00031	53		 push	 ebx
  00032	f3 ab		 rep stosd
  00034	ff 15 00 00 00
	00		 call	 DWORD PTR __imp__LeaveCriticalSection@4
  0003a	5f		 pop	 edi
  0003b	5e		 pop	 esi
  0003c	5b		 pop	 ebx
  0003d	c3		 ret	 0
??3CBuffer2@@SAXPAX@Z ENDP				; CBuffer2::operator delete
_TEXT	ENDS
PUBLIC	??1CBuffer2@@UAE@XZ				; CBuffer2::~CBuffer2
; Function compile flags: /Ogty
;	COMDAT ??_GCBuffer2@@UAEPAXI@Z
_TEXT	SEGMENT
___flags$ = 8						; size = 4
??_GCBuffer2@@UAEPAXI@Z PROC NEAR			; CBuffer2::`scalar deleting destructor', COMDAT
; _this$ = ecx
  00000	55		 push	 ebp
  00001	8b e9		 mov	 ebp, ecx
  00003	e8 00 00 00 00	 call	 ??1CBuffer2@@UAE@XZ
  00008	f6 44 24 08 01	 test	 BYTE PTR ___flags$[esp], 1
  0000d	74 3b		 je	 SHORT $L187560
  0000f	53		 push	 ebx
  00010	56		 push	 esi
  00011	8b 35 00 00 00
	00		 mov	 esi, DWORD PTR ?m_pPool2@CBuffer2@@2PAV?$MemPooler@VCBuffer2@@@@A ; CBuffer2::m_pPool2
  00017	57		 push	 edi
  00018	8d 5e 1c	 lea	 ebx, DWORD PTR [esi+28]
  0001b	53		 push	 ebx
  0001c	ff 15 00 00 00
	00		 call	 DWORD PTR __imp__EnterCriticalSection@4
  00022	8b 4e 18	 mov	 ecx, DWORD PTR [esi+24]
  00025	85 c9		 test	 ecx, ecx
  00027	8d 45 fc	 lea	 eax, DWORD PTR [ebp-4]
  0002a	7e 09		 jle	 SHORT $L187558
  0002c	8b 0e		 mov	 ecx, DWORD PTR [esi]
  0002e	89 08		 mov	 DWORD PTR [eax], ecx
  00030	89 06		 mov	 DWORD PTR [esi], eax
  00032	ff 4e 18	 dec	 DWORD PTR [esi+24]
$L187558:
  00035	33 c0		 xor	 eax, eax
  00037	b9 0a 08 00 00	 mov	 ecx, 2058		; 0000080aH
  0003c	8b fd		 mov	 edi, ebp
  0003e	53		 push	 ebx
  0003f	f3 ab		 rep stosd
  00041	ff 15 00 00 00
	00		 call	 DWORD PTR __imp__LeaveCriticalSection@4
  00047	5f		 pop	 edi
  00048	5e		 pop	 esi
  00049	5b		 pop	 ebx
$L187560:
  0004a	8b c5		 mov	 eax, ebp
  0004c	5d		 pop	 ebp
  0004d	c2 04 00	 ret	 4
??_GCBuffer2@@UAEPAXI@Z ENDP				; CBuffer2::`scalar deleting destructor'
; Function compile flags: /Ogty
_TEXT	ENDS
;	COMDAT ??1CBuffer2@@UAE@XZ
_TEXT	SEGMENT
??1CBuffer2@@UAE@XZ PROC NEAR				; CBuffer2::~CBuffer2, COMDAT
; _this$ = ecx
  00000	8b 81 0c 20 00
	00		 mov	 eax, DWORD PTR [ecx+8204]
  00006	c7 01 00 00 00
	00		 mov	 DWORD PTR [ecx], OFFSET FLAT:??_7CBuffer@@6B@
  0000c	8b 89 10 20 00
	00		 mov	 ecx, DWORD PTR [ecx+8208]
  00012	2b c8		 sub	 ecx, eax
  00014	81 f9 00 20 00
	00		 cmp	 ecx, 8192		; 00002000H
  0001a	7e 0c		 jle	 SHORT $L187567
  0001c	8b 0d 00 00 00
	00		 mov	 ecx, DWORD PTR ?m_pHeapMng@CBuffer@@2PAVCHeapMng@@A ; CBuffer::m_pHeapMng
  00022	50		 push	 eax
  00023	e8 00 00 00 00	 call	 ?Free@CHeapMng@@QAEXPAX@Z ; CHeapMng::Free
$L187567:
  00028	c3		 ret	 0
??1CBuffer2@@UAE@XZ ENDP				; CBuffer2::~CBuffer2
_TEXT	ENDS
PUBLIC	??0?$_String_val@DV?$allocator@D@std@@@std@@IAE@V?$allocator@D@1@@Z ; std::_String_val<char,std::allocator<char> >::_String_val<char,std::allocator<char> >
; Function compile flags: /Ogty
; File c:\program files\microsoft visual studio .net 2003\vc7\include\xstring
;	COMDAT ??0?$_String_val@DV?$allocator@D@std@@@std@@IAE@V?$allocator@D@1@@Z
_TEXT	SEGMENT
__Al$ = 8						; size = 1
??0?$_String_val@DV?$allocator@D@std@@@std@@IAE@V?$allocator@D@1@@Z PROC NEAR ; std::_String_val<char,std::allocator<char> >::_String_val<char,std::allocator<char> >, COMDAT
; _this$ = ecx

; 34   : 		{	// construct allocator from _Al

  00000	8b c1		 mov	 eax, ecx

; 35   : 		}

  00002	c2 04 00	 ret	 4
??0?$_String_val@DV?$allocator@D@std@@@std@@IAE@V?$allocator@D@1@@Z ENDP ; std::_String_val<char,std::allocator<char> >::_String_val<char,std::allocator<char> >
_TEXT	ENDS
PUBLIC	?_Eos@?$basic_string@DU?$char_traits@D@std@@V?$allocator@D@2@@std@@IAEXI@Z ; std::basic_string<char,std::char_traits<char>,std::allocator<char> >::_Eos
; Function compile flags: /Ogty
;	COMDAT ?_Eos@?$basic_string@DU?$char_traits@D@std@@V?$allocator@D@2@@std@@IAEXI@Z
_TEXT	SEGMENT
__Newsize$ = 8						; size = 4
?_Eos@?$basic_string@DU?$char_traits@D@std@@V?$allocator@D@2@@std@@IAEXI@Z PROC NEAR ; std::basic_string<char,std::char_traits<char>,std::allocator<char> >::_Eos, COMDAT
; _this$ = ecx

; 1475 : 		_Traits::assign(_Myptr()[_Mysize = _Newsize], _Elem());

  00000	83 79 18 10	 cmp	 DWORD PTR [ecx+24], 16	; 00000010H
  00004	8b 44 24 04	 mov	 eax, DWORD PTR __Newsize$[esp-4]
  00008	89 41 14	 mov	 DWORD PTR [ecx+20], eax
  0000b	72 0a		 jb	 SHORT $L187580
  0000d	8b 49 04	 mov	 ecx, DWORD PTR [ecx+4]
  00010	c6 04 01 00	 mov	 BYTE PTR [ecx+eax], 0

; 1476 : 		}

  00014	c2 04 00	 ret	 4

; 1475 : 		_Traits::assign(_Myptr()[_Mysize = _Newsize], _Elem());

$L187580:
  00017	c6 44 01 04 00	 mov	 BYTE PTR [ecx+eax+4], 0

; 1476 : 		}

  0001c	c2 04 00	 ret	 4
?_Eos@?$basic_string@DU?$char_traits@D@std@@V?$allocator@D@2@@std@@IAEXI@Z ENDP ; std::basic_string<char,std::char_traits<char>,std::allocator<char> >::_Eos
_TEXT	ENDS
PUBLIC	?max_size@?$basic_string@DU?$char_traits@D@std@@V?$allocator@D@2@@std@@QBEIXZ ; std::basic_string<char,std::char_traits<char>,std::allocator<char> >::max_size
; Function compile flags: /Ogty
;	COMDAT ?max_size@?$basic_string@DU?$char_traits@D@std@@V?$allocator@D@2@@std@@QBEIXZ
_TEXT	SEGMENT
?max_size@?$basic_string@DU?$char_traits@D@std@@V?$allocator@D@2@@std@@QBEIXZ PROC NEAR ; std::basic_string<char,std::char_traits<char>,std::allocator<char> >::max_size, COMDAT
; _this$ = ecx

; 1114 : 		size_type _Num = _Mybase::_Alval.max_size();
; 1115 : 		return (_Num <= 1 ? 1 : _Num - 1);

  00000	b8 fe ff ff ff	 mov	 eax, -2			; fffffffeH

; 1116 : 		}

  00005	c3		 ret	 0
?max_size@?$basic_string@DU?$char_traits@D@std@@V?$allocator@D@2@@std@@QBEIXZ ENDP ; std::basic_string<char,std::char_traits<char>,std::allocator<char> >::max_size
_TEXT	ENDS
PUBLIC	?allocate@?$allocator@D@std@@QAEPADI@Z		; std::allocator<char>::allocate
; Function compile flags: /Ogty
; File c:\program files\microsoft visual studio .net 2003\vc7\include\xmemory
;	COMDAT ?allocate@?$allocator@D@std@@QAEPADI@Z
_TEXT	SEGMENT
__Count$ = 8						; size = 4
?allocate@?$allocator@D@std@@QAEPADI@Z PROC NEAR	; std::allocator<char>::allocate, COMDAT
; _this$ = ecx

; 137  : 		return (_Allocate(_Count, (pointer)0));

  00000	8b 44 24 04	 mov	 eax, DWORD PTR __Count$[esp-4]
  00004	50		 push	 eax
  00005	e8 00 00 00 00	 call	 ??2@YAPAXI@Z		; operator new
  0000a	83 c4 04	 add	 esp, 4

; 138  : 		}

  0000d	c2 04 00	 ret	 4
?allocate@?$allocator@D@std@@QAEPADI@Z ENDP		; std::allocator<char>::allocate
_TEXT	ENDS
PUBLIC	??0iterator@?$list@PAXV?$allocator@PAX@std@@@std@@QAE@PAU_Node@?$_List_nod@PAXV?$allocator@PAX@std@@@2@@Z ; std::list<void *,std::allocator<void *> >::iterator::iterator
; Function compile flags: /Ogty
; File c:\program files\microsoft visual studio .net 2003\vc7\include\list
;	COMDAT ??0iterator@?$list@PAXV?$allocator@PAX@std@@@std@@QAE@PAU_Node@?$_List_nod@PAXV?$allocator@PAX@std@@@2@@Z
_TEXT	SEGMENT
__Pnode$ = 8						; size = 4
??0iterator@?$list@PAXV?$allocator@PAX@std@@@std@@QAE@PAU_Node@?$_List_nod@PAXV?$allocator@PAX@std@@@2@@Z PROC NEAR ; std::list<void *,std::allocator<void *> >::iterator::iterator, COMDAT
; _this$ = ecx

; 235  : 			{	// construct with node pointer _Pnode

  00000	8b c1		 mov	 eax, ecx
  00002	8b 4c 24 04	 mov	 ecx, DWORD PTR __Pnode$[esp-4]
  00006	89 08		 mov	 DWORD PTR [eax], ecx

; 236  : 			}

  00008	c2 04 00	 ret	 4
??0iterator@?$list@PAXV?$allocator@PAX@std@@@std@@QAE@PAU_Node@?$_List_nod@PAXV?$allocator@PAX@std@@@2@@Z ENDP ; std::list<void *,std::allocator<void *> >::iterator::iterator
_TEXT	ENDS
PUBLIC	?max_size@?$list@PAXV?$allocator@PAX@std@@@std@@QBEIXZ ; std::list<void *,std::allocator<void *> >::max_size
; Function compile flags: /Ogty
;	COMDAT ?max_size@?$list@PAXV?$allocator@PAX@std@@@std@@QBEIXZ
_TEXT	SEGMENT
?max_size@?$list@PAXV?$allocator@PAX@std@@@std@@QBEIXZ PROC NEAR ; std::list<void *,std::allocator<void *> >::max_size, COMDAT
; _this$ = ecx

; 436  : 		return (this->_Alval.max_size());

  00000	b8 ff ff ff 3f	 mov	 eax, 1073741823		; 3fffffffH

; 437  : 		}

  00005	c3		 ret	 0
?max_size@?$list@PAXV?$allocator@PAX@std@@@std@@QBEIXZ ENDP ; std::list<void *,std::allocator<void *> >::max_size
_TEXT	ENDS
PUBLIC	?allocate@?$allocator@U_Node@?$_List_nod@PAXV?$allocator@PAX@std@@@std@@@std@@QAEPAU_Node@?$_List_nod@PAXV?$allocator@PAX@std@@@2@I@Z ; std::allocator<std::_List_nod<void *,std::allocator<void *> >::_Node>::allocate
; Function compile flags: /Ogty
; File c:\program files\microsoft visual studio .net 2003\vc7\include\xmemory
;	COMDAT ?allocate@?$allocator@U_Node@?$_List_nod@PAXV?$allocator@PAX@std@@@std@@@std@@QAEPAU_Node@?$_List_nod@PAXV?$allocator@PAX@std@@@2@I@Z
_TEXT	SEGMENT
__Count$ = 8						; size = 4
?allocate@?$allocator@U_Node@?$_List_nod@PAXV?$allocator@PAX@std@@@std@@@std@@QAEPAU_Node@?$_List_nod@PAXV?$allocator@PAX@std@@@2@I@Z PROC NEAR ; std::allocator<std::_List_nod<void *,std::allocator<void *> >::_Node>::allocate, COMDAT
; _this$ = ecx

; 137  : 		return (_Allocate(_Count, (pointer)0));

  00000	8b 44 24 04	 mov	 eax, DWORD PTR __Count$[esp-4]
  00004	8d 04 40	 lea	 eax, DWORD PTR [eax+eax*2]
  00007	c1 e0 02	 shl	 eax, 2
  0000a	50		 push	 eax
  0000b	e8 00 00 00 00	 call	 ??2@YAPAXI@Z		; operator new
  00010	83 c4 04	 add	 esp, 4

; 138  : 		}

  00013	c2 04 00	 ret	 4
?allocate@?$allocator@U_Node@?$_List_nod@PAXV?$allocator@PAX@std@@@std@@@std@@QAEPAU_Node@?$_List_nod@PAXV?$allocator@PAX@std@@@2@I@Z ENDP ; std::allocator<std::_List_nod<void *,std::allocator<void *> >::_Node>::allocate
; Function compile flags: /Ogty
_TEXT	ENDS
;	COMDAT ??_GCBuffer@@UAEPAXI@Z
_TEXT	SEGMENT
___flags$ = 8						; size = 4
??_GCBuffer@@UAEPAXI@Z PROC NEAR			; CBuffer::`scalar deleting destructor', COMDAT
; _this$ = ecx
  00000	53		 push	 ebx
  00001	8b d9		 mov	 ebx, ecx
  00003	8b 83 0c 20 00
	00		 mov	 eax, DWORD PTR [ebx+8204]
  00009	8b 8b 10 20 00
	00		 mov	 ecx, DWORD PTR [ebx+8208]
  0000f	2b c8		 sub	 ecx, eax
  00011	81 f9 00 20 00
	00		 cmp	 ecx, 8192		; 00002000H
  00017	c7 03 00 00 00
	00		 mov	 DWORD PTR [ebx], OFFSET FLAT:??_7CBuffer@@6B@
  0001d	7e 0c		 jle	 SHORT $L187628
  0001f	8b 0d 00 00 00
	00		 mov	 ecx, DWORD PTR ?m_pHeapMng@CBuffer@@2PAVCHeapMng@@A ; CBuffer::m_pHeapMng
  00025	50		 push	 eax
  00026	e8 00 00 00 00	 call	 ?Free@CHeapMng@@QAEXPAX@Z ; CHeapMng::Free
$L187628:
  0002b	f6 44 24 08 01	 test	 BYTE PTR ___flags$[esp], 1
  00030	74 3b		 je	 SHORT $L187642
  00032	55		 push	 ebp
  00033	56		 push	 esi
  00034	8b 35 00 00 00
	00		 mov	 esi, DWORD PTR ?m_pPool@CBuffer@@2PAV?$MemPooler@VCBuffer@@@@A ; CBuffer::m_pPool
  0003a	57		 push	 edi
  0003b	8d 6e 1c	 lea	 ebp, DWORD PTR [esi+28]
  0003e	55		 push	 ebp
  0003f	ff 15 00 00 00
	00		 call	 DWORD PTR __imp__EnterCriticalSection@4
  00045	8b 4e 18	 mov	 ecx, DWORD PTR [esi+24]
  00048	85 c9		 test	 ecx, ecx
  0004a	8d 43 fc	 lea	 eax, DWORD PTR [ebx-4]
  0004d	7e 09		 jle	 SHORT $L187640
  0004f	8b 16		 mov	 edx, DWORD PTR [esi]
  00051	89 10		 mov	 DWORD PTR [eax], edx
  00053	89 06		 mov	 DWORD PTR [esi], eax
  00055	ff 4e 18	 dec	 DWORD PTR [esi+24]
$L187640:
  00058	33 c0		 xor	 eax, eax
  0005a	b9 0a 08 00 00	 mov	 ecx, 2058		; 0000080aH
  0005f	8b fb		 mov	 edi, ebx
  00061	55		 push	 ebp
  00062	f3 ab		 rep stosd
  00064	ff 15 00 00 00
	00		 call	 DWORD PTR __imp__LeaveCriticalSection@4
  0006a	5f		 pop	 edi
  0006b	5e		 pop	 esi
  0006c	5d		 pop	 ebp
$L187642:
  0006d	8b c3		 mov	 eax, ebx
  0006f	5b		 pop	 ebx
  00070	c2 04 00	 ret	 4
??_GCBuffer@@UAEPAXI@Z ENDP				; CBuffer::`scalar deleting destructor'
_TEXT	ENDS
PUBLIC	??1CBufferQueue@@UAE@XZ				; CBufferQueue::~CBufferQueue
;	COMDAT xdata$x
; File c:\documents and settings\test\mes documents\source\virtuos_v17\build\program\_network\mcl\include\cmclcritsec.h
xdata$x	SEGMENT
$T187653 DD	0ffffffffH
	DD	FLAT:$L187645
$T187651 DD	019930520H
	DD	01H
	DD	FLAT:$T187653
	DD	2 DUP(00H)
	DD	2 DUP(00H)
; Function compile flags: /Ogty
; File c:\documents and settings\test\mes documents\source\virtuos_v17\build\program\_network\net\src\buffer.cpp
xdata$x	ENDS
;	COMDAT ??1CBufferQueue@@UAE@XZ
_TEXT	SEGMENT
_this$ = -16						; size = 4
__$EHRec$ = -12						; size = 12
??1CBufferQueue@@UAE@XZ PROC NEAR			; CBufferQueue::~CBufferQueue, COMDAT
; _this$ = ecx

; 90   : {

  00000	6a ff		 push	 -1
  00002	68 00 00 00 00	 push	 __ehhandler$??1CBufferQueue@@UAE@XZ
  00007	64 a1 00 00 00
	00		 mov	 eax, DWORD PTR fs:__except_list
  0000d	50		 push	 eax
  0000e	64 89 25 00 00
	00 00		 mov	 DWORD PTR fs:__except_list, esp
  00015	51		 push	 ecx
  00016	56		 push	 esi
  00017	8b f1		 mov	 esi, ecx
  00019	89 74 24 04	 mov	 DWORD PTR _this$[esp+20], esi
  0001d	c7 06 00 00 00
	00		 mov	 DWORD PTR [esi], OFFSET FLAT:??_7CBufferQueue@@6B@

; 91   : 	Clear( TRUE );	// 2004/01/19

  00023	6a 01		 push	 1
  00025	c7 44 24 14 00
	00 00 00	 mov	 DWORD PTR __$EHRec$[esp+32], 0
  0002d	e8 00 00 00 00	 call	 ?Clear@CBufferQueue@@QAEXH@Z ; CBufferQueue::Clear

; 92   : }

  00032	c7 46 10 00 00
	00 00		 mov	 DWORD PTR [esi+16], OFFSET FLAT:??_7CMclCritSec@@6B@
  00039	83 c6 14	 add	 esi, 20			; 00000014H
  0003c	56		 push	 esi
  0003d	ff 15 00 00 00
	00		 call	 DWORD PTR __imp__DeleteCriticalSection@4
  00043	8b 4c 24 08	 mov	 ecx, DWORD PTR __$EHRec$[esp+20]
  00047	5e		 pop	 esi
  00048	64 89 0d 00 00
	00 00		 mov	 DWORD PTR fs:__except_list, ecx
  0004f	83 c4 10	 add	 esp, 16			; 00000010H
  00052	c3		 ret	 0
_TEXT	ENDS
;	COMDAT text$x
text$x	SEGMENT
$L187645:
  00000	8b 4d f0	 mov	 ecx, DWORD PTR _this$[ebp]
  00003	83 c1 10	 add	 ecx, 16			; 00000010H
  00006	e9 00 00 00 00	 jmp	 ??1CMclCritSec@@UAE@XZ	; CMclCritSec::~CMclCritSec
__ehhandler$??1CBufferQueue@@UAE@XZ:
  0000b	b8 00 00 00 00	 mov	 eax, OFFSET FLAT:$T187651
  00010	e9 00 00 00 00	 jmp	 ___CxxFrameHandler
text$x	ENDS
??1CBufferQueue@@UAE@XZ ENDP				; CBufferQueue::~CBufferQueue
PUBLIC	?_Buynode@?$list@PAXV?$allocator@PAX@std@@@std@@IAEPAU_Node@?$_List_nod@PAXV?$allocator@PAX@std@@@2@XZ ; std::list<void *,std::allocator<void *> >::_Buynode
EXTRN	__CxxThrowException@8:NEAR
; Function compile flags: /Ogty
; File c:\program files\microsoft visual studio .net 2003\vc7\include\list
;	COMDAT ?_Buynode@?$list@PAXV?$allocator@PAX@std@@@std@@IAEPAU_Node@?$_List_nod@PAXV?$allocator@PAX@std@@@2@XZ
_TEXT	SEGMENT
?_Buynode@?$list@PAXV?$allocator@PAX@std@@@std@@IAEPAU_Node@?$_List_nod@PAXV?$allocator@PAX@std@@@2@XZ PROC NEAR ; std::list<void *,std::allocator<void *> >::_Buynode, COMDAT
; _this$ = ecx

; 899  : 		_Nodeptr _Pnode = this->_Alnod.allocate(1);

  00000	6a 0c		 push	 12			; 0000000cH
  00002	e8 00 00 00 00	 call	 ??2@YAPAXI@Z		; operator new
  00007	83 c4 04	 add	 esp, 4

; 900  : 		int _Linkcnt = 0;
; 901  : 
; 902  : 		_TRY_BEGIN
; 903  : 		this->_Alptr.construct(&_Nextnode(_Pnode), _Pnode);

  0000a	85 c0		 test	 eax, eax
  0000c	74 02		 je	 SHORT $L187690
  0000e	89 00		 mov	 DWORD PTR [eax], eax
$L187690:

; 904  : 		++_Linkcnt;
; 905  : 		this->_Alptr.construct(&_Prevnode(_Pnode), _Pnode);

  00010	8d 48 04	 lea	 ecx, DWORD PTR [eax+4]
  00013	85 c9		 test	 ecx, ecx
  00015	74 02		 je	 SHORT $L187718
  00017	89 01		 mov	 DWORD PTR [ecx], eax
$L187718:

; 906  : 		_CATCH_ALL
; 907  : 		if (0 < _Linkcnt)
; 908  : 			this->_Alptr.destroy(&_Nextnode(_Pnode));
; 909  : 		this->_Alnod.deallocate(_Pnode, 1);
; 910  : 		_RERAISE;
; 911  : 		_CATCH_END
; 912  : 		return (_Pnode);
; 913  : 		}

  00019	c3		 ret	 0
?_Buynode@?$list@PAXV?$allocator@PAX@std@@@std@@IAEPAU_Node@?$_List_nod@PAXV?$allocator@PAX@std@@@2@XZ ENDP ; std::list<void *,std::allocator<void *> >::_Buynode
_TEXT	ENDS
PUBLIC	?clear@?$list@PAXV?$allocator@PAX@std@@@std@@QAEXXZ ; std::list<void *,std::allocator<void *> >::clear
; Function compile flags: /Ogty
;	COMDAT ?clear@?$list@PAXV?$allocator@PAX@std@@@std@@QAEXXZ
_TEXT	SEGMENT
?clear@?$list@PAXV?$allocator@PAX@std@@@std@@QAEXXZ PROC NEAR ; std::list<void *,std::allocator<void *> >::clear, COMDAT
; _this$ = ecx

; 610  : 		{	// erase all

  00000	56		 push	 esi
  00001	8b f1		 mov	 esi, ecx

; 611  : 		_Nodeptr _Pnext;
; 612  : 		_Nodeptr _Pnode = _Nextnode(_Myhead);

  00003	8b 4e 04	 mov	 ecx, DWORD PTR [esi+4]
  00006	8b 01		 mov	 eax, DWORD PTR [ecx]

; 613  : 		_Nextnode(_Myhead) = _Myhead;

  00008	89 09		 mov	 DWORD PTR [ecx], ecx

; 614  : 		_Prevnode(_Myhead) = _Myhead;

  0000a	8b 4e 04	 mov	 ecx, DWORD PTR [esi+4]
  0000d	89 49 04	 mov	 DWORD PTR [ecx+4], ecx

; 615  : 		_Mysize = 0;
; 616  : 
; 617  : 		for (; _Pnode != _Myhead; _Pnode = _Pnext)

  00010	3b 46 04	 cmp	 eax, DWORD PTR [esi+4]
  00013	c7 46 08 00 00
	00 00		 mov	 DWORD PTR [esi+8], 0
  0001a	74 19		 je	 SHORT $L186903
  0001c	57		 push	 edi
  0001d	8d 49 00	 npad	 3
$L186901:

; 618  : 			{	// delete an element
; 619  : 			_Pnext = _Nextnode(_Pnode);

  00020	8b 38		 mov	 edi, DWORD PTR [eax]

; 620  : 			this->_Alnod.destroy(_Pnode);
; 621  : 			this->_Alnod.deallocate(_Pnode, 1);

  00022	50		 push	 eax
  00023	e8 00 00 00 00	 call	 ??3@YAXPAX@Z		; operator delete
  00028	8b 4e 04	 mov	 ecx, DWORD PTR [esi+4]
  0002b	83 c4 04	 add	 esp, 4
  0002e	3b f9		 cmp	 edi, ecx
  00030	8b c7		 mov	 eax, edi
  00032	75 ec		 jne	 SHORT $L186901
  00034	5f		 pop	 edi
$L186903:
  00035	5e		 pop	 esi

; 622  : 			}
; 623  : 		}

  00036	c3		 ret	 0
?clear@?$list@PAXV?$allocator@PAX@std@@@std@@QAEXXZ ENDP ; std::list<void *,std::allocator<void *> >::clear
_TEXT	ENDS
PUBLIC	??0?$_List_ptr@PAXV?$allocator@PAX@std@@@std@@IAE@V?$allocator@PAX@1@@Z ; std::_List_ptr<void *,std::allocator<void *> >::_List_ptr<void *,std::allocator<void *> >
; Function compile flags: /Ogty
;	COMDAT ??0?$_List_ptr@PAXV?$allocator@PAX@std@@@std@@IAE@V?$allocator@PAX@1@@Z
_TEXT	SEGMENT
__Al$ = 8						; size = 1
??0?$_List_ptr@PAXV?$allocator@PAX@std@@@std@@IAE@V?$allocator@PAX@1@@Z PROC NEAR ; std::_List_ptr<void *,std::allocator<void *> >::_List_ptr<void *,std::allocator<void *> >, COMDAT
; _this$ = ecx

; 64   : 		{	// construct base, and allocator from _Al

  00000	8b c1		 mov	 eax, ecx

; 65   : 		}

  00002	c2 04 00	 ret	 4
??0?$_List_ptr@PAXV?$allocator@PAX@std@@@std@@IAE@V?$allocator@PAX@1@@Z ENDP ; std::_List_ptr<void *,std::allocator<void *> >::_List_ptr<void *,std::allocator<void *> >
_TEXT	ENDS
PUBLIC	?_Tidy@?$basic_string@DU?$char_traits@D@std@@V?$allocator@D@2@@std@@IAEX_NI@Z ; std::basic_string<char,std::char_traits<char>,std::allocator<char> >::_Tidy
; Function compile flags: /Ogty
; File c:\program files\microsoft visual studio .net 2003\vc7\include\xstring
;	COMDAT ?_Tidy@?$basic_string@DU?$char_traits@D@std@@V?$allocator@D@2@@std@@IAEX_NI@Z
_TEXT	SEGMENT
__Built$ = 8						; size = 1
__Newsize$ = 12						; size = 4
?_Tidy@?$basic_string@DU?$char_traits@D@std@@V?$allocator@D@2@@std@@IAEX_NI@Z PROC NEAR ; std::basic_string<char,std::char_traits<char>,std::allocator<char> >::_Tidy, COMDAT
; _this$ = ecx

; 1510 : 		if (!_Built)

  00000	8a 44 24 04	 mov	 al, BYTE PTR __Built$[esp-4]
  00004	84 c0		 test	 al, al
  00006	53		 push	 ebx
  00007	55		 push	 ebp
  00008	8b 6c 24 10	 mov	 ebp, DWORD PTR __Newsize$[esp+4]
  0000c	8b d9		 mov	 ebx, ecx
  0000e	74 2f		 je	 SHORT $L187782

; 1511 : 			;
; 1512 : 		else if (_BUF_SIZE <= _Myres)

  00010	83 7b 18 10	 cmp	 DWORD PTR [ebx+24], 16	; 00000010H
  00014	72 29		 jb	 SHORT $L187782

; 1513 : 			{	// copy any leftovers to small buffer and deallocate
; 1514 : 			_Elem *_Ptr = _Bx._Ptr;
; 1515 : 			if (0 < _Newsize)

  00016	85 ed		 test	 ebp, ebp
  00018	8b 43 04	 mov	 eax, DWORD PTR [ebx+4]
  0001b	57		 push	 edi
  0001c	8d 7b 04	 lea	 edi, DWORD PTR [ebx+4]
  0001f	76 14		 jbe	 SHORT $L187779
  00021	56		 push	 esi

; 1516 : 				_Traits::copy(_Bx._Buf, _Ptr, _Newsize);

  00022	8b cd		 mov	 ecx, ebp
  00024	8b d1		 mov	 edx, ecx
  00026	c1 e9 02	 shr	 ecx, 2
  00029	8b f0		 mov	 esi, eax
  0002b	f3 a5		 rep movsd
  0002d	8b ca		 mov	 ecx, edx
  0002f	83 e1 03	 and	 ecx, 3
  00032	f3 a4		 rep movsb
  00034	5e		 pop	 esi
$L187779:

; 1517 : 			_Mybase::_Alval.deallocate(_Ptr, _Myres + 1);

  00035	50		 push	 eax
  00036	e8 00 00 00 00	 call	 ??3@YAXPAX@Z		; operator delete
  0003b	83 c4 04	 add	 esp, 4
  0003e	5f		 pop	 edi
$L187782:

; 1518 : 			}
; 1519 : 		_Myres = _BUF_SIZE - 1;
; 1520 : 		_Eos(_Newsize);

  0003f	89 6b 14	 mov	 DWORD PTR [ebx+20], ebp
  00042	c7 43 18 0f 00
	00 00		 mov	 DWORD PTR [ebx+24], 15	; 0000000fH
  00049	c6 44 2b 04 00	 mov	 BYTE PTR [ebx+ebp+4], 0
  0004e	5d		 pop	 ebp
  0004f	5b		 pop	 ebx

; 1521 : 		}

  00050	c2 08 00	 ret	 8
?_Tidy@?$basic_string@DU?$char_traits@D@std@@V?$allocator@D@2@@std@@IAEX_NI@Z ENDP ; std::basic_string<char,std::char_traits<char>,std::allocator<char> >::_Tidy
_TEXT	ENDS
PUBLIC	?erase@?$basic_string@DU?$char_traits@D@std@@V?$allocator@D@2@@std@@QAEAAV12@II@Z ; std::basic_string<char,std::char_traits<char>,std::allocator<char> >::erase
EXTRN	?_Xran@_String_base@std@@QBEXXZ:NEAR		; std::_String_base::_Xran
; Function compile flags: /Ogty
;	COMDAT ?erase@?$basic_string@DU?$char_traits@D@std@@V?$allocator@D@2@@std@@QAEAAV12@II@Z
_TEXT	SEGMENT
__Off$ = 8						; size = 4
__Count$ = 12						; size = 4
?erase@?$basic_string@DU?$char_traits@D@std@@V?$allocator@D@2@@std@@QAEAAV12@II@Z PROC NEAR ; std::basic_string<char,std::char_traits<char>,std::allocator<char> >::erase, COMDAT
; _this$ = ecx

; 792  : 		{	// erase elements [_Off, _Off + _Count)

  00000	55		 push	 ebp

; 793  : 		if (_Mysize < _Off)

  00001	8b 6c 24 08	 mov	 ebp, DWORD PTR __Off$[esp]
  00005	56		 push	 esi
  00006	8b f1		 mov	 esi, ecx
  00008	39 6e 14	 cmp	 DWORD PTR [esi+20], ebp
  0000b	57		 push	 edi
  0000c	73 05		 jae	 SHORT $L184993

; 794  : 			_String_base::_Xran();	// _Off off end

  0000e	e8 00 00 00 00	 call	 ?_Xran@_String_base@std@@QBEXXZ ; std::_String_base::_Xran
$L184993:

; 795  : 		if (_Mysize - _Off < _Count)

  00013	8b 46 14	 mov	 eax, DWORD PTR [esi+20]
  00016	8b 7c 24 14	 mov	 edi, DWORD PTR __Count$[esp+8]
  0001a	2b c5		 sub	 eax, ebp
  0001c	3b c7		 cmp	 eax, edi
  0001e	73 02		 jae	 SHORT $L184994

; 796  : 			_Count = _Mysize - _Off;	// trim _Count

  00020	8b f8		 mov	 edi, eax
$L184994:

; 797  : 		if (0 < _Count)

  00022	85 ff		 test	 edi, edi
  00024	76 47		 jbe	 SHORT $L187846

; 798  : 			{	// move elements down
; 799  : 			_Traits::move(_Myptr() + _Off, _Myptr() + _Off + _Count,
; 800  : 				_Mysize - _Off - _Count);

  00026	8b 4e 18	 mov	 ecx, DWORD PTR [esi+24]
  00029	83 f9 10	 cmp	 ecx, 16			; 00000010H
  0002c	53		 push	 ebx
  0002d	8d 5e 04	 lea	 ebx, DWORD PTR [esi+4]
  00030	72 04		 jb	 SHORT $L187811
  00032	8b 13		 mov	 edx, DWORD PTR [ebx]
  00034	eb 02		 jmp	 SHORT $L187812
$L187811:
  00036	8b d3		 mov	 edx, ebx
$L187812:
  00038	83 f9 10	 cmp	 ecx, 16			; 00000010H
  0003b	72 04		 jb	 SHORT $L187818
  0003d	8b 0b		 mov	 ecx, DWORD PTR [ebx]
  0003f	eb 02		 jmp	 SHORT $L187819
$L187818:
  00041	8b cb		 mov	 ecx, ebx
$L187819:
  00043	2b c7		 sub	 eax, edi

; 803  : 			}
; 804  : 		return (*this);

  00045	03 d5		 add	 edx, ebp
  00047	50		 push	 eax
  00048	03 d7		 add	 edx, edi
  0004a	52		 push	 edx
  0004b	03 cd		 add	 ecx, ebp
  0004d	51		 push	 ecx
  0004e	e8 00 00 00 00	 call	 _memmove
  00053	8b 46 14	 mov	 eax, DWORD PTR [esi+20]
  00056	8b 4e 18	 mov	 ecx, DWORD PTR [esi+24]
  00059	2b c7		 sub	 eax, edi
  0005b	83 c4 0c	 add	 esp, 12			; 0000000cH
  0005e	83 f9 10	 cmp	 ecx, 16			; 00000010H
  00061	89 46 14	 mov	 DWORD PTR [esi+20], eax
  00064	72 02		 jb	 SHORT $L187841

; 801  : 			size_type _Newsize = _Mysize - _Count;
; 802  : 			_Eos(_Newsize);

  00066	8b 1b		 mov	 ebx, DWORD PTR [ebx]
$L187841:
  00068	c6 04 03 00	 mov	 BYTE PTR [ebx+eax], 0
  0006c	5b		 pop	 ebx
$L187846:
  0006d	5f		 pop	 edi

; 803  : 			}
; 804  : 		return (*this);

  0006e	8b c6		 mov	 eax, esi
  00070	5e		 pop	 esi
  00071	5d		 pop	 ebp

; 805  : 		}

  00072	c2 08 00	 ret	 8
?erase@?$basic_string@DU?$char_traits@D@std@@V?$allocator@D@2@@std@@QAEAAV12@II@Z ENDP ; std::basic_string<char,std::char_traits<char>,std::allocator<char> >::erase
_TEXT	ENDS
PUBLIC	?_Copy@?$basic_string@DU?$char_traits@D@std@@V?$allocator@D@2@@std@@IAEXII@Z ; std::basic_string<char,std::char_traits<char>,std::allocator<char> >::_Copy
;	COMDAT xdata$x
; File c:\program files\microsoft visual studio .net 2003\vc7\include\iosfwd
xdata$x	SEGMENT
$T188049 DD	0ffffffffH
	DD	00H
	DD	0ffffffffH
	DD	00H
	DD	01H
	DD	00H
	DD	01H
	DD	00H
$T188051 DD	00H
	DD	00H
	DD	00H
	DD	FLAT:$L187852
$T188052 DD	00H
	DD	00H
	DD	00H
	DD	FLAT:$L187850
$T188050 DD	02H
	DD	02H
	DD	03H
	DD	01H
	DD	FLAT:$T188051
	DD	00H
	DD	00H
	DD	03H
	DD	01H
	DD	FLAT:$T188052
$T188044 DD	019930520H
	DD	04H
	DD	FLAT:$T188049
	DD	02H
	DD	FLAT:$T188050
	DD	2 DUP(00H)
; Function compile flags: /Ogty
; File c:\program files\microsoft visual studio .net 2003\vc7\include\xstring
xdata$x	ENDS
;	COMDAT ?_Copy@?$basic_string@DU?$char_traits@D@std@@V?$allocator@D@2@@std@@IAEXII@Z
_TEXT	SEGMENT
__Newres$ = -24						; size = 4
_this$ = -20						; size = 4
__$EHRec$ = -16						; size = 16
__Ptr$ = 8						; size = 4
__Newsize$ = 8						; size = 4
__Oldlen$ = 12						; size = 4
?_Copy@?$basic_string@DU?$char_traits@D@std@@V?$allocator@D@2@@std@@IAEXII@Z PROC NEAR ; std::basic_string<char,std::char_traits<char>,std::allocator<char> >::_Copy, COMDAT
; _this$ = ecx

; 1444 : 		{	// copy _Oldlen elements to newly allocated buffer

  00000	55		 push	 ebp
  00001	8b ec		 mov	 ebp, esp
  00003	6a ff		 push	 -1
  00005	68 00 00 00 00	 push	 __ehhandler$?_Copy@?$basic_string@DU?$char_traits@D@std@@V?$allocator@D@2@@std@@IAEXII@Z
  0000a	64 a1 00 00 00
	00		 mov	 eax, DWORD PTR fs:__except_list
  00010	50		 push	 eax
  00011	64 89 25 00 00
	00 00		 mov	 DWORD PTR fs:__except_list, esp
  00018	83 ec 0c	 sub	 esp, 12			; 0000000cH

; 1445 : 		size_type _Newres = _Newsize | _ALLOC_MASK;

  0001b	8b 45 08	 mov	 eax, DWORD PTR __Newsize$[ebp]
  0001e	53		 push	 ebx
  0001f	56		 push	 esi
  00020	8b d8		 mov	 ebx, eax
  00022	83 cb 0f	 or	 ebx, 15			; 0000000fH

; 1446 : 		if (max_size() < _Newres)

  00025	83 fb fe	 cmp	 ebx, -2			; fffffffeH
  00028	57		 push	 edi
  00029	8b f1		 mov	 esi, ecx
  0002b	89 65 f0	 mov	 DWORD PTR __$EHRec$[ebp], esp
  0002e	89 75 ec	 mov	 DWORD PTR _this$[ebp], esi
  00031	76 04		 jbe	 SHORT $L185550

; 1447 : 			_Newres = _Newsize;	// undo roundup if too big

  00033	8b d8		 mov	 ebx, eax

; 1448 : 		else if (_Newres / 3 < _Myres / 2

  00035	eb 22		 jmp	 SHORT $L185552
$L185550:

; 1449 : 			&& _Myres <= max_size() - _Myres / 2)

  00037	8b 7e 18	 mov	 edi, DWORD PTR [esi+24]
  0003a	b8 ab aa aa aa	 mov	 eax, -1431655765	; aaaaaaabH
  0003f	f7 e3		 mul	 ebx
  00041	8b cf		 mov	 ecx, edi
  00043	d1 e9		 shr	 ecx, 1
  00045	d1 ea		 shr	 edx, 1
  00047	3b d1		 cmp	 edx, ecx
  00049	73 0e		 jae	 SHORT $L185552
  0004b	b8 fe ff ff ff	 mov	 eax, -2			; fffffffeH
  00050	2b c1		 sub	 eax, ecx
  00052	3b f8		 cmp	 edi, eax
  00054	77 03		 ja	 SHORT $L185552

; 1450 : 			_Newres = _Myres + _Myres / 2;	// grow exponentially if possible

  00056	8d 1c 39	 lea	 ebx, DWORD PTR [ecx+edi]
$L185552:

; 1451 : 		_Elem *_Ptr;
; 1452 : 
; 1453 : 		_TRY_BEGIN
; 1454 : 			_Ptr = _Mybase::_Alval.allocate(_Newres + 1);

  00059	8d 4b 01	 lea	 ecx, DWORD PTR [ebx+1]
  0005c	51		 push	 ecx
  0005d	c7 45 fc 00 00
	00 00		 mov	 DWORD PTR __$EHRec$[ebp+12], 0
  00064	e8 00 00 00 00	 call	 ??2@YAPAXI@Z		; operator new
  00069	8b d0		 mov	 edx, eax
  0006b	83 c4 04	 add	 esp, 4
  0006e	89 55 08	 mov	 DWORD PTR __Ptr$[ebp], edx
  00071	eb 29		 jmp	 SHORT $L185554
$L187850:

; 1455 : 		_CATCH_ALL
; 1456 : 			_Newres = _Newsize;	// allocation failed, undo roundup and retry

  00073	8b 45 08	 mov	 eax, DWORD PTR __Newsize$[ebp]
  00076	89 45 e8	 mov	 DWORD PTR __Newres$[ebp], eax

; 1457 : 			_TRY_BEGIN
; 1458 : 				_Ptr = _Mybase::_Alval.allocate(_Newres + 1);

  00079	40		 inc	 eax
  0007a	89 65 f0	 mov	 DWORD PTR __$EHRec$[ebp], esp
  0007d	50		 push	 eax
  0007e	c6 45 fc 02	 mov	 BYTE PTR __$EHRec$[ebp+12], 2
  00082	e8 00 00 00 00	 call	 ??2@YAPAXI@Z		; operator new
  00087	89 45 08	 mov	 DWORD PTR __Ptr$[ebp], eax
  0008a	83 c4 04	 add	 esp, 4

; 1462 : 			_CATCH_END
; 1463 : 		_CATCH_END

  0008d	b8 00 00 00 00	 mov	 eax, $L188045
  00092	c3		 ret	 0
$L188045:
  00093	8b 5d e8	 mov	 ebx, DWORD PTR __Newres$[ebp]
  00096	8b 75 ec	 mov	 esi, DWORD PTR _this$[ebp]
  00099	8b 55 08	 mov	 edx, DWORD PTR __Ptr$[ebp]
$L185554:

; 1464 : 
; 1465 : 		if (0 < _Oldlen)

  0009c	8b 4d 0c	 mov	 ecx, DWORD PTR __Oldlen$[ebp]
  0009f	85 c9		 test	 ecx, ecx
  000a1	76 24		 jbe	 SHORT $L187970

; 1466 : 			_Traits::copy(_Ptr, _Myptr(), _Oldlen);	// copy existing elements

  000a3	83 7e 18 10	 cmp	 DWORD PTR [esi+24], 16	; 00000010H
  000a7	72 05		 jb	 SHORT $L187965
  000a9	8b 76 04	 mov	 esi, DWORD PTR [esi+4]
  000ac	eb 03		 jmp	 SHORT $L187966
$L187965:
  000ae	83 c6 04	 add	 esi, 4
$L187966:
  000b1	8b c1		 mov	 eax, ecx
  000b3	c1 e9 02	 shr	 ecx, 2
  000b6	8b fa		 mov	 edi, edx
  000b8	f3 a5		 rep movsd
  000ba	8b c8		 mov	 ecx, eax
  000bc	83 e1 03	 and	 ecx, 3
  000bf	f3 a4		 rep movsb
  000c1	8b 75 ec	 mov	 esi, DWORD PTR _this$[ebp]
  000c4	8b 4d 0c	 mov	 ecx, DWORD PTR __Oldlen$[ebp]
$L187970:

; 1467 : 		_Tidy(true);

  000c7	83 7e 18 10	 cmp	 DWORD PTR [esi+24], 16	; 00000010H
  000cb	72 12		 jb	 SHORT $L188012
  000cd	8b 4e 04	 mov	 ecx, DWORD PTR [esi+4]
  000d0	51		 push	 ecx
  000d1	e8 00 00 00 00	 call	 ??3@YAXPAX@Z		; operator delete
  000d6	8b 55 08	 mov	 edx, DWORD PTR __Ptr$[ebp]
  000d9	8b 4d 0c	 mov	 ecx, DWORD PTR __Oldlen$[ebp]
  000dc	83 c4 04	 add	 esp, 4
$L188012:

; 1468 : 		_Bx._Ptr = _Ptr;
; 1469 : 		_Myres = _Newres;
; 1470 : 		_Eos(_Oldlen);

  000df	83 fb 10	 cmp	 ebx, 16			; 00000010H
  000e2	8d 46 04	 lea	 eax, DWORD PTR [esi+4]
  000e5	c6 00 00	 mov	 BYTE PTR [eax], 0
  000e8	89 10		 mov	 DWORD PTR [eax], edx
  000ea	89 5e 18	 mov	 DWORD PTR [esi+24], ebx
  000ed	89 4e 14	 mov	 DWORD PTR [esi+20], ecx
  000f0	72 02		 jb	 SHORT $L188038
  000f2	8b c2		 mov	 eax, edx
$L188038:

; 1471 : 		}

  000f4	5f		 pop	 edi
  000f5	c6 04 08 00	 mov	 BYTE PTR [eax+ecx], 0
  000f9	8b 4d f4	 mov	 ecx, DWORD PTR __$EHRec$[ebp+4]
  000fc	5e		 pop	 esi
  000fd	64 89 0d 00 00
	00 00		 mov	 DWORD PTR fs:__except_list, ecx
  00104	5b		 pop	 ebx
  00105	8b e5		 mov	 esp, ebp
  00107	5d		 pop	 ebp
  00108	c2 08 00	 ret	 8
$L187852:

; 1459 : 			_CATCH_ALL
; 1460 : 			_Tidy(true);	// failed again, discard storage and reraise

  0010b	8b 75 ec	 mov	 esi, DWORD PTR _this$[ebp]
  0010e	83 7e 18 10	 cmp	 DWORD PTR [esi+24], 16	; 00000010H
  00112	72 0c		 jb	 SHORT $L187951
  00114	8b 56 04	 mov	 edx, DWORD PTR [esi+4]
  00117	52		 push	 edx
  00118	e8 00 00 00 00	 call	 ??3@YAXPAX@Z		; operator delete
  0011d	83 c4 04	 add	 esp, 4
$L187951:

; 1461 : 			_RERAISE;

  00120	6a 00		 push	 0
  00122	c7 46 18 0f 00
	00 00		 mov	 DWORD PTR [esi+24], 15	; 0000000fH
  00129	c7 46 14 00 00
	00 00		 mov	 DWORD PTR [esi+20], 0
  00130	6a 00		 push	 0
  00132	c6 46 04 00	 mov	 BYTE PTR [esi+4], 0
  00136	e8 00 00 00 00	 call	 __CxxThrowException@8
$L188048:
  0013b	cc		 int	 3
_TEXT	ENDS
;	COMDAT text$x
text$x	SEGMENT
__ehhandler$?_Copy@?$basic_string@DU?$char_traits@D@std@@V?$allocator@D@2@@std@@IAEXII@Z:
  00000	b8 00 00 00 00	 mov	 eax, OFFSET FLAT:$T188044
  00005	e9 00 00 00 00	 jmp	 ___CxxFrameHandler
text$x	ENDS
?_Copy@?$basic_string@DU?$char_traits@D@std@@V?$allocator@D@2@@std@@IAEXII@Z ENDP ; std::basic_string<char,std::char_traits<char>,std::allocator<char> >::_Copy
PUBLIC	?end@?$list@PAXV?$allocator@PAX@std@@@std@@QAE?AViterator@12@XZ ; std::list<void *,std::allocator<void *> >::end
; Function compile flags: /Ogty
; File c:\program files\microsoft visual studio .net 2003\vc7\include\list
;	COMDAT ?end@?$list@PAXV?$allocator@PAX@std@@@std@@QAE?AViterator@12@XZ
_TEXT	SEGMENT
___$ReturnUdt$ = 8					; size = 4
?end@?$list@PAXV?$allocator@PAX@std@@@std@@QAE?AViterator@12@XZ PROC NEAR ; std::list<void *,std::allocator<void *> >::end, COMDAT
; _this$ = ecx

; 387  : 		return (iterator(_Myhead));

  00000	8b 49 04	 mov	 ecx, DWORD PTR [ecx+4]
  00003	8b 44 24 04	 mov	 eax, DWORD PTR ___$ReturnUdt$[esp-4]
  00007	89 08		 mov	 DWORD PTR [eax], ecx

; 388  : 		}

  00009	c2 04 00	 ret	 4
?end@?$list@PAXV?$allocator@PAX@std@@@std@@QAE?AViterator@12@XZ ENDP ; std::list<void *,std::allocator<void *> >::end
_TEXT	ENDS
PUBLIC	?_Buynode@?$list@PAXV?$allocator@PAX@std@@@std@@IAEPAU_Node@?$_List_nod@PAXV?$allocator@PAX@std@@@2@PAU342@0ABQAX@Z ; std::list<void *,std::allocator<void *> >::_Buynode
; Function compile flags: /Ogty
;	COMDAT ?_Buynode@?$list@PAXV?$allocator@PAX@std@@@std@@IAEPAU_Node@?$_List_nod@PAXV?$allocator@PAX@std@@@2@PAU342@0ABQAX@Z
_TEXT	SEGMENT
__Next$ = 8						; size = 4
__Prev$ = 12						; size = 4
__Val$ = 16						; size = 4
?_Buynode@?$list@PAXV?$allocator@PAX@std@@@std@@IAEPAU_Node@?$_List_nod@PAXV?$allocator@PAX@std@@@2@PAU342@0ABQAX@Z PROC NEAR ; std::list<void *,std::allocator<void *> >::_Buynode, COMDAT
; _this$ = ecx

; 918  : 		_Nodeptr _Pnode = this->_Alnod.allocate(1);

  00000	6a 0c		 push	 12			; 0000000cH
  00002	e8 00 00 00 00	 call	 ??2@YAPAXI@Z		; operator new
  00007	83 c4 04	 add	 esp, 4

; 919  : 		_TRY_BEGIN
; 920  : 		new ((void *)_Pnode) _Node(_Next, _Prev, _Val);

  0000a	85 c0		 test	 eax, eax
  0000c	74 16		 je	 SHORT $L188069
  0000e	8b 4c 24 04	 mov	 ecx, DWORD PTR __Next$[esp-4]
  00012	8b 54 24 08	 mov	 edx, DWORD PTR __Prev$[esp-4]
  00016	89 08		 mov	 DWORD PTR [eax], ecx
  00018	8b 4c 24 0c	 mov	 ecx, DWORD PTR __Val$[esp-4]
  0001c	89 50 04	 mov	 DWORD PTR [eax+4], edx
  0001f	8b 11		 mov	 edx, DWORD PTR [ecx]
  00021	89 50 08	 mov	 DWORD PTR [eax+8], edx
$L188069:

; 921  : 		_CATCH_ALL
; 922  : 		this->_Alnod.deallocate(_Pnode, 1);
; 923  : 		_RERAISE;
; 924  : 		_CATCH_END
; 925  : 		return (_Pnode);
; 926  : 		}

  00024	c2 0c 00	 ret	 12			; 0000000cH
?_Buynode@?$list@PAXV?$allocator@PAX@std@@@std@@IAEPAU_Node@?$_List_nod@PAXV?$allocator@PAX@std@@@2@PAU342@0ABQAX@Z ENDP ; std::list<void *,std::allocator<void *> >::_Buynode
; Function compile flags: /Ogty
_TEXT	ENDS
;	COMDAT ??_GCBufferQueue@@UAEPAXI@Z
_TEXT	SEGMENT
___flags$ = 8						; size = 4
??_GCBufferQueue@@UAEPAXI@Z PROC NEAR			; CBufferQueue::`scalar deleting destructor', COMDAT
; _this$ = ecx
  00000	56		 push	 esi
  00001	8b f1		 mov	 esi, ecx
  00003	e8 00 00 00 00	 call	 ??1CBufferQueue@@UAE@XZ	; CBufferQueue::~CBufferQueue
  00008	f6 44 24 08 01	 test	 BYTE PTR ___flags$[esp], 1
  0000d	74 09		 je	 SHORT $L188096
  0000f	56		 push	 esi
  00010	e8 00 00 00 00	 call	 ??3@YAXPAX@Z		; operator delete
  00015	83 c4 04	 add	 esp, 4
$L188096:
  00018	8b c6		 mov	 eax, esi
  0001a	5e		 pop	 esi
  0001b	c2 04 00	 ret	 4
??_GCBufferQueue@@UAEPAXI@Z ENDP			; CBufferQueue::`scalar deleting destructor'
_TEXT	ENDS
PUBLIC	?_Tidy@?$list@PAXV?$allocator@PAX@std@@@std@@IAEXXZ ; std::list<void *,std::allocator<void *> >::_Tidy
; Function compile flags: /Ogty
;	COMDAT ?_Tidy@?$list@PAXV?$allocator@PAX@std@@@std@@IAEXXZ
_TEXT	SEGMENT
?_Tidy@?$list@PAXV?$allocator@PAX@std@@@std@@IAEXXZ PROC NEAR ; std::list<void *,std::allocator<void *> >::_Tidy, COMDAT
; _this$ = ecx

; 929  : 		{	// free all storage

  00000	56		 push	 esi
  00001	8b f1		 mov	 esi, ecx

; 930  : 		clear();

  00003	e8 00 00 00 00	 call	 ?clear@?$list@PAXV?$allocator@PAX@std@@@std@@QAEXXZ ; std::list<void *,std::allocator<void *> >::clear

; 931  : 		this->_Alptr.destroy(&_Nextnode(_Myhead));
; 932  : 		this->_Alptr.destroy(&_Prevnode(_Myhead));
; 933  : 		this->_Alnod.deallocate(_Myhead, 1);

  00008	8b 46 04	 mov	 eax, DWORD PTR [esi+4]
  0000b	50		 push	 eax
  0000c	e8 00 00 00 00	 call	 ??3@YAXPAX@Z		; operator delete
  00011	83 c4 04	 add	 esp, 4

; 934  : 		_Myhead = 0;

  00014	c7 46 04 00 00
	00 00		 mov	 DWORD PTR [esi+4], 0
  0001b	5e		 pop	 esi

; 935  : 		}

  0001c	c3		 ret	 0
?_Tidy@?$list@PAXV?$allocator@PAX@std@@@std@@IAEXXZ ENDP ; std::list<void *,std::allocator<void *> >::_Tidy
_TEXT	ENDS
PUBLIC	??0?$_List_val@PAXV?$allocator@PAX@std@@@std@@IAE@V?$allocator@PAX@1@@Z ; std::_List_val<void *,std::allocator<void *> >::_List_val<void *,std::allocator<void *> >
; Function compile flags: /Ogty
;	COMDAT ??0?$_List_val@PAXV?$allocator@PAX@std@@@std@@IAE@V?$allocator@PAX@1@@Z
_TEXT	SEGMENT
__Al$ = 8						; size = 1
??0?$_List_val@PAXV?$allocator@PAX@std@@@std@@IAE@V?$allocator@PAX@1@@Z PROC NEAR ; std::_List_val<void *,std::allocator<void *> >::_List_val<void *,std::allocator<void *> >, COMDAT
; _this$ = ecx

; 82   : 		{	// construct base, and allocator from _Al

  00000	8b c1		 mov	 eax, ecx

; 83   : 		}

  00002	c2 04 00	 ret	 4
??0?$_List_val@PAXV?$allocator@PAX@std@@@std@@IAE@V?$allocator@PAX@1@@Z ENDP ; std::_List_val<void *,std::allocator<void *> >::_List_val<void *,std::allocator<void *> >
_TEXT	ENDS
PUBLIC	??1?$basic_string@DU?$char_traits@D@std@@V?$allocator@D@2@@std@@QAE@XZ ; std::basic_string<char,std::char_traits<char>,std::allocator<char> >::~basic_string<char,std::char_traits<char>,std::allocator<char> >
; Function compile flags: /Ogty
; File c:\program files\microsoft visual studio .net 2003\vc7\include\xstring
;	COMDAT ??1?$basic_string@DU?$char_traits@D@std@@V?$allocator@D@2@@std@@QAE@XZ
_TEXT	SEGMENT
??1?$basic_string@DU?$char_traits@D@std@@V?$allocator@D@2@@std@@QAE@XZ PROC NEAR ; std::basic_string<char,std::char_traits<char>,std::allocator<char> >::~basic_string<char,std::char_traits<char>,std::allocator<char> >, COMDAT
; _this$ = ecx

; 456  : 		{	// destroy the string

  00000	56		 push	 esi
  00001	8b f1		 mov	 esi, ecx

; 457  : 		_Tidy(true);

  00003	83 7e 18 10	 cmp	 DWORD PTR [esi+24], 16	; 00000010H
  00007	72 0c		 jb	 SHORT $L188191
  00009	8b 46 04	 mov	 eax, DWORD PTR [esi+4]
  0000c	50		 push	 eax
  0000d	e8 00 00 00 00	 call	 ??3@YAXPAX@Z		; operator delete
  00012	83 c4 04	 add	 esp, 4
$L188191:
  00015	33 c0		 xor	 eax, eax
  00017	c7 46 18 0f 00
	00 00		 mov	 DWORD PTR [esi+24], 15	; 0000000fH
  0001e	89 46 14	 mov	 DWORD PTR [esi+20], eax
  00021	88 46 04	 mov	 BYTE PTR [esi+4], al
  00024	5e		 pop	 esi

; 458  : 		}

  00025	c3		 ret	 0
??1?$basic_string@DU?$char_traits@D@std@@V?$allocator@D@2@@std@@QAE@XZ ENDP ; std::basic_string<char,std::char_traits<char>,std::allocator<char> >::~basic_string<char,std::char_traits<char>,std::allocator<char> >
_TEXT	ENDS
PUBLIC	?_Grow@?$basic_string@DU?$char_traits@D@std@@V?$allocator@D@2@@std@@IAE_NI_N@Z ; std::basic_string<char,std::char_traits<char>,std::allocator<char> >::_Grow
EXTRN	?_Xlen@_String_base@std@@QBEXXZ:NEAR		; std::_String_base::_Xlen
; Function compile flags: /Ogty
;	COMDAT ?_Grow@?$basic_string@DU?$char_traits@D@std@@V?$allocator@D@2@@std@@IAE_NI_N@Z
_TEXT	SEGMENT
__Newsize$ = 8						; size = 4
__Trim$ = 12						; size = 1
?_Grow@?$basic_string@DU?$char_traits@D@std@@V?$allocator@D@2@@std@@IAE_NI_N@Z PROC NEAR ; std::basic_string<char,std::char_traits<char>,std::allocator<char> >::_Grow, COMDAT
; _this$ = ecx

; 1480 : 		{	// ensure buffer is big enough, trim to size if _Trim is true

  00000	55		 push	 ebp
  00001	56		 push	 esi

; 1481 : 		if (max_size() < _Newsize)

  00002	8b 74 24 0c	 mov	 esi, DWORD PTR __Newsize$[esp+4]
  00006	83 fe fe	 cmp	 esi, -2			; fffffffeH
  00009	8b e9		 mov	 ebp, ecx
  0000b	76 05		 jbe	 SHORT $L185002

; 1482 : 			_String_base::_Xlen();	// result too long

  0000d	e8 00 00 00 00	 call	 ?_Xlen@_String_base@std@@QBEXXZ ; std::_String_base::_Xlen
$L185002:

; 1483 : 		if (_Myres < _Newsize)

  00012	8b 45 18	 mov	 eax, DWORD PTR [ebp+24]
  00015	3b c6		 cmp	 eax, esi
  00017	73 19		 jae	 SHORT $L185003

; 1484 : 			_Copy(_Newsize, _Mysize);	// reallocate to grow

  00019	8b 45 14	 mov	 eax, DWORD PTR [ebp+20]
  0001c	50		 push	 eax
  0001d	56		 push	 esi
  0001e	8b cd		 mov	 ecx, ebp
  00020	e8 00 00 00 00	 call	 ?_Copy@?$basic_string@DU?$char_traits@D@std@@V?$allocator@D@2@@std@@IAEXII@Z ; std::basic_string<char,std::char_traits<char>,std::allocator<char> >::_Copy

; 1490 : 		return (0 < _Newsize);	// return true only if more work to do

  00025	33 c0		 xor	 eax, eax
  00027	3b c6		 cmp	 eax, esi
  00029	1b c0		 sbb	 eax, eax
  0002b	5e		 pop	 esi
  0002c	f7 d8		 neg	 eax
  0002e	5d		 pop	 ebp

; 1491 : 		}

  0002f	c2 08 00	 ret	 8
$L185003:

; 1485 : 		else if (_Trim && _Newsize < _BUF_SIZE)

  00032	8a 4c 24 10	 mov	 cl, BYTE PTR __Trim$[esp+4]
  00036	84 c9		 test	 cl, cl
  00038	74 5c		 je	 SHORT $L185005
  0003a	83 fe 10	 cmp	 esi, 16			; 00000010H
  0003d	73 57		 jae	 SHORT $L185005
  0003f	53		 push	 ebx

; 1486 : 			_Tidy(true,	// copy and deallocate if trimming to small string
; 1487 : 				_Newsize < _Mysize ? _Newsize : _Mysize);

  00040	8b 5d 14	 mov	 ebx, DWORD PTR [ebp+20]
  00043	3b f3		 cmp	 esi, ebx
  00045	73 02		 jae	 SHORT $L188205
  00047	8b de		 mov	 ebx, esi
$L188205:
  00049	83 f8 10	 cmp	 eax, 16			; 00000010H
  0004c	72 2b		 jb	 SHORT $L188265
  0004e	85 db		 test	 ebx, ebx
  00050	8b 45 04	 mov	 eax, DWORD PTR [ebp+4]
  00053	57		 push	 edi
  00054	8d 7d 04	 lea	 edi, DWORD PTR [ebp+4]
  00057	76 16		 jbe	 SHORT $L188264
  00059	8b cb		 mov	 ecx, ebx
  0005b	8b d1		 mov	 edx, ecx
  0005d	c1 e9 02	 shr	 ecx, 2
  00060	8b f0		 mov	 esi, eax
  00062	f3 a5		 rep movsd
  00064	8b ca		 mov	 ecx, edx
  00066	83 e1 03	 and	 ecx, 3
  00069	f3 a4		 rep movsb
  0006b	8b 74 24 14	 mov	 esi, DWORD PTR __Newsize$[esp+12]
$L188264:
  0006f	50		 push	 eax
  00070	e8 00 00 00 00	 call	 ??3@YAXPAX@Z		; operator delete
  00075	83 c4 04	 add	 esp, 4
  00078	5f		 pop	 edi
$L188265:
  00079	89 5d 14	 mov	 DWORD PTR [ebp+20], ebx

; 1490 : 		return (0 < _Newsize);	// return true only if more work to do

  0007c	33 c0		 xor	 eax, eax
  0007e	c7 45 18 0f 00
	00 00		 mov	 DWORD PTR [ebp+24], 15	; 0000000fH
  00085	c6 44 2b 04 00	 mov	 BYTE PTR [ebx+ebp+4], 0
  0008a	3b c6		 cmp	 eax, esi
  0008c	5b		 pop	 ebx
  0008d	1b c0		 sbb	 eax, eax
  0008f	5e		 pop	 esi
  00090	f7 d8		 neg	 eax
  00092	5d		 pop	 ebp

; 1491 : 		}

  00093	c2 08 00	 ret	 8
$L185005:

; 1488 : 		else if (_Newsize == 0)

  00096	85 f6		 test	 esi, esi
  00098	75 23		 jne	 SHORT $L188297

; 1489 : 			_Eos(0);	// new size is zero, just null terminate

  0009a	83 f8 10	 cmp	 eax, 16			; 00000010H
  0009d	89 75 14	 mov	 DWORD PTR [ebp+20], esi
  000a0	72 14		 jb	 SHORT $L188294
  000a2	8b 6d 04	 mov	 ebp, DWORD PTR [ebp+4]

; 1490 : 		return (0 < _Newsize);	// return true only if more work to do

  000a5	33 c0		 xor	 eax, eax
  000a7	3b c6		 cmp	 eax, esi
  000a9	1b c0		 sbb	 eax, eax
  000ab	5e		 pop	 esi
  000ac	c6 45 00 00	 mov	 BYTE PTR [ebp], 0
  000b0	f7 d8		 neg	 eax
  000b2	5d		 pop	 ebp

; 1491 : 		}

  000b3	c2 08 00	 ret	 8

; 1489 : 			_Eos(0);	// new size is zero, just null terminate

$L188294:
  000b6	83 c5 04	 add	 ebp, 4
  000b9	c6 45 00 00	 mov	 BYTE PTR [ebp], 0
$L188297:

; 1490 : 		return (0 < _Newsize);	// return true only if more work to do

  000bd	33 c0		 xor	 eax, eax
  000bf	3b c6		 cmp	 eax, esi
  000c1	1b c0		 sbb	 eax, eax
  000c3	5e		 pop	 esi
  000c4	f7 d8		 neg	 eax
  000c6	5d		 pop	 ebp

; 1491 : 		}

  000c7	c2 08 00	 ret	 8
?_Grow@?$basic_string@DU?$char_traits@D@std@@V?$allocator@D@2@@std@@IAE_NI_N@Z ENDP ; std::basic_string<char,std::char_traits<char>,std::allocator<char> >::_Grow
_TEXT	ENDS
PUBLIC	??0?$list@PAXV?$allocator@PAX@std@@@std@@QAE@XZ	; std::list<void *,std::allocator<void *> >::list<void *,std::allocator<void *> >
; Function compile flags: /Ogty
; File c:\program files\microsoft visual studio .net 2003\vc7\include\list
;	COMDAT ??0?$list@PAXV?$allocator@PAX@std@@@std@@QAE@XZ
_TEXT	SEGMENT
??0?$list@PAXV?$allocator@PAX@std@@@std@@QAE@XZ PROC NEAR ; std::list<void *,std::allocator<void *> >::list<void *,std::allocator<void *> >, COMDAT
; _this$ = ecx

; 280  : 		{	// construct empty list

  00000	56		 push	 esi
  00001	8b f1		 mov	 esi, ecx
  00003	e8 00 00 00 00	 call	 ?_Buynode@?$list@PAXV?$allocator@PAX@std@@@std@@IAEPAU_Node@?$_List_nod@PAXV?$allocator@PAX@std@@@2@XZ ; std::list<void *,std::allocator<void *> >::_Buynode
  00008	89 46 04	 mov	 DWORD PTR [esi+4], eax
  0000b	c7 46 08 00 00
	00 00		 mov	 DWORD PTR [esi+8], 0

; 281  : 		}

  00012	8b c6		 mov	 eax, esi
  00014	5e		 pop	 esi
  00015	c3		 ret	 0
??0?$list@PAXV?$allocator@PAX@std@@@std@@QAE@XZ ENDP	; std::list<void *,std::allocator<void *> >::list<void *,std::allocator<void *> >
_TEXT	ENDS
PUBLIC	??1?$list@PAXV?$allocator@PAX@std@@@std@@QAE@XZ	; std::list<void *,std::allocator<void *> >::~list<void *,std::allocator<void *> >
; Function compile flags: /Ogty
;	COMDAT ??1?$list@PAXV?$allocator@PAX@std@@@std@@QAE@XZ
_TEXT	SEGMENT
??1?$list@PAXV?$allocator@PAX@std@@@std@@QAE@XZ PROC NEAR ; std::list<void *,std::allocator<void *> >::~list<void *,std::allocator<void *> >, COMDAT
; _this$ = ecx

; 364  : 		{	// destroy the object

  00000	56		 push	 esi
  00001	8b f1		 mov	 esi, ecx

; 365  : 		_Tidy();

  00003	e8 00 00 00 00	 call	 ?clear@?$list@PAXV?$allocator@PAX@std@@@std@@QAEXXZ ; std::list<void *,std::allocator<void *> >::clear
  00008	8b 46 04	 mov	 eax, DWORD PTR [esi+4]
  0000b	50		 push	 eax
  0000c	e8 00 00 00 00	 call	 ??3@YAXPAX@Z		; operator delete
  00011	83 c4 04	 add	 esp, 4
  00014	c7 46 04 00 00
	00 00		 mov	 DWORD PTR [esi+4], 0
  0001b	5e		 pop	 esi

; 366  : 		}

  0001c	c3		 ret	 0
??1?$list@PAXV?$allocator@PAX@std@@@std@@QAE@XZ ENDP	; std::list<void *,std::allocator<void *> >::~list<void *,std::allocator<void *> >
_TEXT	ENDS
PUBLIC	??_7logic_error@std@@6B@			; std::logic_error::`vftable'
PUBLIC	??_Glogic_error@std@@UAEPAXI@Z			; std::logic_error::`scalar deleting destructor'
PUBLIC	??1logic_error@std@@UAE@XZ			; std::logic_error::~logic_error
PUBLIC	?what@logic_error@std@@UBEPBDXZ			; std::logic_error::what
EXTRN	??_Elogic_error@std@@UAEPAXI@Z:NEAR		; std::logic_error::`vector deleting destructor'
EXTRN	??1exception@@UAE@XZ:NEAR			; exception::~exception
;	COMDAT ??_7logic_error@std@@6B@
; File c:\program files\microsoft visual studio .net 2003\vc7\include\iosfwd
CONST	SEGMENT
??_7logic_error@std@@6B@ DD FLAT:??_Elogic_error@std@@UAEPAXI@Z ; std::logic_error::`vftable'
	DD	FLAT:?what@logic_error@std@@UBEPBDXZ
; Function compile flags: /Ogty
; File c:\program files\microsoft visual studio .net 2003\vc7\include\stdexcept
CONST	ENDS
;	COMDAT ??1logic_error@std@@UAE@XZ
_TEXT	SEGMENT
??1logic_error@std@@UAE@XZ PROC NEAR			; std::logic_error::~logic_error, COMDAT
; _this$ = ecx

; 23   : 		{}	// destroy the object

  00000	56		 push	 esi
  00001	8b f1		 mov	 esi, ecx
  00003	c7 06 00 00 00
	00		 mov	 DWORD PTR [esi], OFFSET FLAT:??_7logic_error@std@@6B@
  00009	83 7e 24 10	 cmp	 DWORD PTR [esi+36], 16	; 00000010H
  0000d	72 0c		 jb	 SHORT $L188454
  0000f	8b 46 10	 mov	 eax, DWORD PTR [esi+16]
  00012	50		 push	 eax
  00013	e8 00 00 00 00	 call	 ??3@YAXPAX@Z		; operator delete
  00018	83 c4 04	 add	 esp, 4
$L188454:
  0001b	33 c0		 xor	 eax, eax
  0001d	c7 46 24 0f 00
	00 00		 mov	 DWORD PTR [esi+36], 15	; 0000000fH
  00024	89 46 20	 mov	 DWORD PTR [esi+32], eax
  00027	88 46 10	 mov	 BYTE PTR [esi+16], al
  0002a	8b ce		 mov	 ecx, esi
  0002c	5e		 pop	 esi
  0002d	e9 00 00 00 00	 jmp	 ??1exception@@UAE@XZ	; exception::~exception
??1logic_error@std@@UAE@XZ ENDP				; std::logic_error::~logic_error
; Function compile flags: /Ogty
_TEXT	ENDS
;	COMDAT ?what@logic_error@std@@UBEPBDXZ
_TEXT	SEGMENT
?what@logic_error@std@@UBEPBDXZ PROC NEAR		; std::logic_error::what, COMDAT
; _this$ = ecx

; 27   : 		return (_Str.c_str());

  00000	83 79 24 10	 cmp	 DWORD PTR [ecx+36], 16	; 00000010H
  00004	72 04		 jb	 SHORT $L188477
  00006	8b 41 10	 mov	 eax, DWORD PTR [ecx+16]

; 28   : 		}

  00009	c3		 ret	 0

; 27   : 		return (_Str.c_str());

$L188477:
  0000a	8d 41 10	 lea	 eax, DWORD PTR [ecx+16]

; 28   : 		}

  0000d	c3		 ret	 0
?what@logic_error@std@@UBEPBDXZ ENDP			; std::logic_error::what
; Function compile flags: /Ogty
_TEXT	ENDS
;	COMDAT ??_Glogic_error@std@@UAEPAXI@Z
_TEXT	SEGMENT
___flags$ = 8						; size = 4
??_Glogic_error@std@@UAEPAXI@Z PROC NEAR		; std::logic_error::`scalar deleting destructor', COMDAT
; _this$ = ecx
  00000	56		 push	 esi
  00001	8b f1		 mov	 esi, ecx
  00003	e8 00 00 00 00	 call	 ??1logic_error@std@@UAE@XZ ; std::logic_error::~logic_error
  00008	f6 44 24 08 01	 test	 BYTE PTR ___flags$[esp], 1
  0000d	74 09		 je	 SHORT $L188484
  0000f	56		 push	 esi
  00010	e8 00 00 00 00	 call	 ??3@YAXPAX@Z		; operator delete
  00015	83 c4 04	 add	 esp, 4
$L188484:
  00018	8b c6		 mov	 eax, esi
  0001a	5e		 pop	 esi
  0001b	c2 04 00	 ret	 4
??_Glogic_error@std@@UAEPAXI@Z ENDP			; std::logic_error::`scalar deleting destructor'
_TEXT	ENDS
PUBLIC	?assign@?$basic_string@DU?$char_traits@D@std@@V?$allocator@D@2@@std@@QAEAAV12@ABV12@II@Z ; std::basic_string<char,std::char_traits<char>,std::allocator<char> >::assign
; Function compile flags: /Ogty
; File c:\program files\microsoft visual studio .net 2003\vc7\include\xstring
;	COMDAT ?assign@?$basic_string@DU?$char_traits@D@std@@V?$allocator@D@2@@std@@QAEAAV12@ABV12@II@Z
_TEXT	SEGMENT
__Right$ = 8						; size = 4
__Roff$ = 12						; size = 4
__Count$ = 16						; size = 4
?assign@?$basic_string@DU?$char_traits@D@std@@V?$allocator@D@2@@std@@QAEAAV12@ABV12@II@Z PROC NEAR ; std::basic_string<char,std::char_traits<char>,std::allocator<char> >::assign, COMDAT
; _this$ = ecx

; 590  : 		{	// assign _Right [_Roff, _Roff + _Count)

  00000	53		 push	 ebx
  00001	55		 push	 ebp
  00002	56		 push	 esi

; 591  : 		if (_Right.size() < _Roff)

  00003	8b 74 24 14	 mov	 esi, DWORD PTR __Roff$[esp+8]
  00007	57		 push	 edi
  00008	8b 7c 24 14	 mov	 edi, DWORD PTR __Right$[esp+12]
  0000c	39 77 14	 cmp	 DWORD PTR [edi+20], esi
  0000f	8b d9		 mov	 ebx, ecx
  00011	73 05		 jae	 SHORT $L184271

; 592  : 			_String_base::_Xran();	// _Roff off end

  00013	e8 00 00 00 00	 call	 ?_Xran@_String_base@std@@QBEXXZ ; std::_String_base::_Xran
$L184271:

; 593  : 		size_type _Num = _Right.size() - _Roff;

  00018	8b 6f 14	 mov	 ebp, DWORD PTR [edi+20]

; 594  : 		if (_Count < _Num)

  0001b	8b 44 24 1c	 mov	 eax, DWORD PTR __Count$[esp+12]
  0001f	2b ee		 sub	 ebp, esi
  00021	3b c5		 cmp	 eax, ebp
  00023	73 02		 jae	 SHORT $L184273

; 595  : 			_Num = _Count;	// trim _Num to size

  00025	8b e8		 mov	 ebp, eax
$L184273:

; 596  : 
; 597  : 		if (this == &_Right)

  00027	3b df		 cmp	 ebx, edi
  00029	75 1f		 jne	 SHORT $L184274

; 598  : 			erase((size_type)(_Roff + _Num)), erase(0, _Roff);	// substring

  0002b	6a ff		 push	 -1
  0002d	03 ee		 add	 ebp, esi
  0002f	55		 push	 ebp
  00030	8b cb		 mov	 ecx, ebx
  00032	e8 00 00 00 00	 call	 ?erase@?$basic_string@DU?$char_traits@D@std@@V?$allocator@D@2@@std@@QAEAAV12@II@Z ; std::basic_string<char,std::char_traits<char>,std::allocator<char> >::erase
  00037	56		 push	 esi
  00038	6a 00		 push	 0
  0003a	8b cb		 mov	 ecx, ebx
  0003c	e8 00 00 00 00	 call	 ?erase@?$basic_string@DU?$char_traits@D@std@@V?$allocator@D@2@@std@@QAEAAV12@II@Z ; std::basic_string<char,std::char_traits<char>,std::allocator<char> >::erase
  00041	5f		 pop	 edi
  00042	5e		 pop	 esi
  00043	5d		 pop	 ebp

; 603  : 			}
; 604  : 		return (*this);

  00044	8b c3		 mov	 eax, ebx
  00046	5b		 pop	 ebx

; 605  : 		}

  00047	c2 0c 00	 ret	 12			; 0000000cH
$L184274:

; 599  : 		else if (_Grow(_Num))

  0004a	83 fd fe	 cmp	 ebp, -2			; fffffffeH
  0004d	76 07		 jbe	 SHORT $L188634
  0004f	8b cb		 mov	 ecx, ebx
  00051	e8 00 00 00 00	 call	 ?_Xlen@_String_base@std@@QBEXXZ ; std::_String_base::_Xlen
$L188634:
  00056	8b 43 18	 mov	 eax, DWORD PTR [ebx+24]
  00059	3b c5		 cmp	 eax, ebp
  0005b	73 21		 jae	 SHORT $L188635
  0005d	8b 43 14	 mov	 eax, DWORD PTR [ebx+20]
  00060	50		 push	 eax
  00061	55		 push	 ebp
  00062	8b cb		 mov	 ecx, ebx
  00064	e8 00 00 00 00	 call	 ?_Copy@?$basic_string@DU?$char_traits@D@std@@V?$allocator@D@2@@std@@IAEXII@Z ; std::basic_string<char,std::char_traits<char>,std::allocator<char> >::_Copy
  00069	85 ed		 test	 ebp, ebp
$L188680:
  0006b	76 6d		 jbe	 SHORT $L188679

; 600  : 			{	// make room and assign new stuff
; 601  : 			_Traits::copy(_Myptr(), _Right._Myptr() + _Roff, _Num);

  0006d	8b 4f 18	 mov	 ecx, DWORD PTR [edi+24]
  00070	b8 10 00 00 00	 mov	 eax, 16			; 00000010H
  00075	3b c8		 cmp	 ecx, eax
  00077	72 2f		 jb	 SHORT $L188645
  00079	8b 57 04	 mov	 edx, DWORD PTR [edi+4]
  0007c	eb 2d		 jmp	 SHORT $L188646

; 599  : 		else if (_Grow(_Num))

$L188635:
  0007e	85 ed		 test	 ebp, ebp
  00080	75 e9		 jne	 SHORT $L188680
  00082	83 f8 10	 cmp	 eax, 16			; 00000010H
  00085	89 6b 14	 mov	 DWORD PTR [ebx+20], ebp
  00088	72 0f		 jb	 SHORT $L188627
  0008a	8b 43 04	 mov	 eax, DWORD PTR [ebx+4]
  0008d	5f		 pop	 edi
  0008e	5e		 pop	 esi
  0008f	c6 00 00	 mov	 BYTE PTR [eax], 0
  00092	5d		 pop	 ebp

; 603  : 			}
; 604  : 		return (*this);

  00093	8b c3		 mov	 eax, ebx
  00095	5b		 pop	 ebx

; 605  : 		}

  00096	c2 0c 00	 ret	 12			; 0000000cH

; 599  : 		else if (_Grow(_Num))

$L188627:
  00099	5f		 pop	 edi
  0009a	8d 43 04	 lea	 eax, DWORD PTR [ebx+4]
  0009d	5e		 pop	 esi
  0009e	c6 00 00	 mov	 BYTE PTR [eax], 0
  000a1	5d		 pop	 ebp

; 603  : 			}
; 604  : 		return (*this);

  000a2	8b c3		 mov	 eax, ebx
  000a4	5b		 pop	 ebx

; 605  : 		}

  000a5	c2 0c 00	 ret	 12			; 0000000cH

; 600  : 			{	// make room and assign new stuff
; 601  : 			_Traits::copy(_Myptr(), _Right._Myptr() + _Roff, _Num);

$L188645:
  000a8	8d 57 04	 lea	 edx, DWORD PTR [edi+4]
$L188646:
  000ab	39 43 18	 cmp	 DWORD PTR [ebx+24], eax
  000ae	8d 43 04	 lea	 eax, DWORD PTR [ebx+4]
  000b1	72 04		 jb	 SHORT $L188651
  000b3	8b 38		 mov	 edi, DWORD PTR [eax]
  000b5	eb 02		 jmp	 SHORT $L188652
$L188651:
  000b7	8b f8		 mov	 edi, eax
$L188652:
  000b9	03 f2		 add	 esi, edx
  000bb	8b cd		 mov	 ecx, ebp
  000bd	8b d1		 mov	 edx, ecx
  000bf	c1 e9 02	 shr	 ecx, 2
  000c2	f3 a5		 rep movsd
  000c4	8b ca		 mov	 ecx, edx
  000c6	83 e1 03	 and	 ecx, 3
  000c9	f3 a4		 rep movsb

; 602  : 			_Eos(_Num);

  000cb	83 7b 18 10	 cmp	 DWORD PTR [ebx+24], 16	; 00000010H
  000cf	89 6b 14	 mov	 DWORD PTR [ebx+20], ebp
  000d2	72 02		 jb	 SHORT $L188674
  000d4	8b 00		 mov	 eax, DWORD PTR [eax]
$L188674:
  000d6	c6 04 28 00	 mov	 BYTE PTR [eax+ebp], 0
$L188679:
  000da	5f		 pop	 edi
  000db	5e		 pop	 esi
  000dc	5d		 pop	 ebp

; 603  : 			}
; 604  : 		return (*this);

  000dd	8b c3		 mov	 eax, ebx
  000df	5b		 pop	 ebx

; 605  : 		}

  000e0	c2 0c 00	 ret	 12			; 0000000cH
?assign@?$basic_string@DU?$char_traits@D@std@@V?$allocator@D@2@@std@@QAEAAV12@ABV12@II@Z ENDP ; std::basic_string<char,std::char_traits<char>,std::allocator<char> >::assign
_TEXT	ENDS
PUBLIC	?assign@?$basic_string@DU?$char_traits@D@std@@V?$allocator@D@2@@std@@QAEAAV12@PBDI@Z ; std::basic_string<char,std::char_traits<char>,std::allocator<char> >::assign
; Function compile flags: /Ogty
;	COMDAT ?assign@?$basic_string@DU?$char_traits@D@std@@V?$allocator@D@2@@std@@QAEAAV12@PBDI@Z
_TEXT	SEGMENT
__Ptr$ = 8						; size = 4
__Num$ = 12						; size = 4
?assign@?$basic_string@DU?$char_traits@D@std@@V?$allocator@D@2@@std@@QAEAAV12@PBDI@Z PROC NEAR ; std::basic_string<char,std::char_traits<char>,std::allocator<char> >::assign, COMDAT
; _this$ = ecx

; 608  : 		{	// assign [_Ptr, _Ptr + _Num)

  00000	53		 push	 ebx
  00001	8b d9		 mov	 ebx, ecx

; 609  : 		if (_Inside(_Ptr))

  00003	8b 53 18	 mov	 edx, DWORD PTR [ebx+24]
  00006	83 fa 10	 cmp	 edx, 16			; 00000010H
  00009	56		 push	 esi
  0000a	57		 push	 edi
  0000b	72 05		 jb	 SHORT $L188704
  0000d	8b 43 04	 mov	 eax, DWORD PTR [ebx+4]
  00010	eb 03		 jmp	 SHORT $L188705
$L188704:
  00012	8d 43 04	 lea	 eax, DWORD PTR [ebx+4]
$L188705:
  00015	8b 74 24 10	 mov	 esi, DWORD PTR __Ptr$[esp+8]
  00019	3b f0		 cmp	 esi, eax
  0001b	72 34		 jb	 SHORT $L184989
  0001d	83 fa 10	 cmp	 edx, 16			; 00000010H
  00020	8d 43 04	 lea	 eax, DWORD PTR [ebx+4]
  00023	72 04		 jb	 SHORT $L188708
  00025	8b 08		 mov	 ecx, DWORD PTR [eax]
  00027	eb 02		 jmp	 SHORT $L188709
$L188708:
  00029	8b c8		 mov	 ecx, eax
$L188709:
  0002b	8b 7b 14	 mov	 edi, DWORD PTR [ebx+20]
  0002e	03 f9		 add	 edi, ecx
  00030	3b fe		 cmp	 edi, esi
  00032	76 1d		 jbe	 SHORT $L184989

; 610  : 			return (assign(*this, _Ptr - _Myptr(), _Num));	// substring

  00034	83 fa 10	 cmp	 edx, 16			; 00000010H
  00037	72 02		 jb	 SHORT $L188717
  00039	8b 00		 mov	 eax, DWORD PTR [eax]
$L188717:
  0003b	8b 4c 24 14	 mov	 ecx, DWORD PTR __Num$[esp+8]
  0003f	51		 push	 ecx
  00040	2b f0		 sub	 esi, eax
  00042	56		 push	 esi
  00043	53		 push	 ebx
  00044	8b cb		 mov	 ecx, ebx
  00046	e8 00 00 00 00	 call	 ?assign@?$basic_string@DU?$char_traits@D@std@@V?$allocator@D@2@@std@@QAEAAV12@ABV12@II@Z ; std::basic_string<char,std::char_traits<char>,std::allocator<char> >::assign
  0004b	5f		 pop	 edi
  0004c	5e		 pop	 esi
  0004d	5b		 pop	 ebx

; 618  : 		}

  0004e	c2 08 00	 ret	 8
$L184989:
  00051	55		 push	 ebp

; 611  : 
; 612  : 		if (_Grow(_Num))

  00052	8b 6c 24 18	 mov	 ebp, DWORD PTR __Num$[esp+12]
  00056	83 fd fe	 cmp	 ebp, -2			; fffffffeH
  00059	76 07		 jbe	 SHORT $L188858
  0005b	8b cb		 mov	 ecx, ebx
  0005d	e8 00 00 00 00	 call	 ?_Xlen@_String_base@std@@QBEXXZ ; std::_String_base::_Xlen
$L188858:
  00062	8b 43 18	 mov	 eax, DWORD PTR [ebx+24]
  00065	3b c5		 cmp	 eax, ebp
  00067	73 1b		 jae	 SHORT $L188859
  00069	8b 53 14	 mov	 edx, DWORD PTR [ebx+20]
  0006c	52		 push	 edx
  0006d	55		 push	 ebp
  0006e	8b cb		 mov	 ecx, ebx
  00070	e8 00 00 00 00	 call	 ?_Copy@?$basic_string@DU?$char_traits@D@std@@V?$allocator@D@2@@std@@IAEXII@Z ; std::basic_string<char,std::char_traits<char>,std::allocator<char> >::_Copy
  00075	85 ed		 test	 ebp, ebp
$L188897:
  00077	76 68		 jbe	 SHORT $L188894

; 613  : 			{	// make room and assign new stuff
; 614  : 			_Traits::copy(_Myptr(), _Ptr, _Num);

  00079	83 7b 18 10	 cmp	 DWORD PTR [ebx+24], 16	; 00000010H
  0007d	72 2f		 jb	 SHORT $L188868
  0007f	8b 7b 04	 mov	 edi, DWORD PTR [ebx+4]
  00082	eb 2d		 jmp	 SHORT $L188869

; 611  : 
; 612  : 		if (_Grow(_Num))

$L188859:
  00084	85 ed		 test	 ebp, ebp
  00086	75 ef		 jne	 SHORT $L188897
  00088	83 f8 10	 cmp	 eax, 16			; 00000010H
  0008b	89 6b 14	 mov	 DWORD PTR [ebx+20], ebp
  0008e	72 0f		 jb	 SHORT $L188851
  00090	8b 43 04	 mov	 eax, DWORD PTR [ebx+4]
  00093	5d		 pop	 ebp
  00094	5f		 pop	 edi
  00095	c6 00 00	 mov	 BYTE PTR [eax], 0
  00098	5e		 pop	 esi

; 616  : 			}
; 617  : 		return (*this);

  00099	8b c3		 mov	 eax, ebx
  0009b	5b		 pop	 ebx

; 618  : 		}

  0009c	c2 08 00	 ret	 8

; 611  : 
; 612  : 		if (_Grow(_Num))

$L188851:
  0009f	5d		 pop	 ebp
  000a0	8d 43 04	 lea	 eax, DWORD PTR [ebx+4]
  000a3	5f		 pop	 edi
  000a4	c6 00 00	 mov	 BYTE PTR [eax], 0
  000a7	5e		 pop	 esi

; 616  : 			}
; 617  : 		return (*this);

  000a8	8b c3		 mov	 eax, ebx
  000aa	5b		 pop	 ebx

; 618  : 		}

  000ab	c2 08 00	 ret	 8

; 613  : 			{	// make room and assign new stuff
; 614  : 			_Traits::copy(_Myptr(), _Ptr, _Num);

$L188868:
  000ae	8d 7b 04	 lea	 edi, DWORD PTR [ebx+4]
$L188869:
  000b1	8b cd		 mov	 ecx, ebp
  000b3	8b c1		 mov	 eax, ecx
  000b5	c1 e9 02	 shr	 ecx, 2
  000b8	f3 a5		 rep movsd
  000ba	8b c8		 mov	 ecx, eax
  000bc	83 e1 03	 and	 ecx, 3
  000bf	f3 a4		 rep movsb

; 615  : 			_Eos(_Num);

  000c1	83 7b 18 10	 cmp	 DWORD PTR [ebx+24], 16	; 00000010H
  000c5	89 6b 14	 mov	 DWORD PTR [ebx+20], ebp
  000c8	72 10		 jb	 SHORT $L188890
  000ca	8b 43 04	 mov	 eax, DWORD PTR [ebx+4]
  000cd	c6 04 28 00	 mov	 BYTE PTR [eax+ebp], 0
  000d1	5d		 pop	 ebp
  000d2	5f		 pop	 edi
  000d3	5e		 pop	 esi

; 616  : 			}
; 617  : 		return (*this);

  000d4	8b c3		 mov	 eax, ebx
  000d6	5b		 pop	 ebx

; 618  : 		}

  000d7	c2 08 00	 ret	 8

; 615  : 			_Eos(_Num);

$L188890:
  000da	8d 43 04	 lea	 eax, DWORD PTR [ebx+4]
  000dd	c6 04 28 00	 mov	 BYTE PTR [eax+ebp], 0
$L188894:
  000e1	5d		 pop	 ebp
  000e2	5f		 pop	 edi
  000e3	5e		 pop	 esi

; 616  : 			}
; 617  : 		return (*this);

  000e4	8b c3		 mov	 eax, ebx
  000e6	5b		 pop	 ebx

; 618  : 		}

  000e7	c2 08 00	 ret	 8
?assign@?$basic_string@DU?$char_traits@D@std@@V?$allocator@D@2@@std@@QAEAAV12@PBDI@Z ENDP ; std::basic_string<char,std::char_traits<char>,std::allocator<char> >::assign
_TEXT	ENDS
PUBLIC	??0?$basic_string@DU?$char_traits@D@std@@V?$allocator@D@2@@std@@QAE@ABV01@@Z ; std::basic_string<char,std::char_traits<char>,std::allocator<char> >::basic_string<char,std::char_traits<char>,std::allocator<char> >
; Function compile flags: /Ogty
;	COMDAT ??0?$basic_string@DU?$char_traits@D@std@@V?$allocator@D@2@@std@@QAE@ABV01@@Z
_TEXT	SEGMENT
__Right$ = 8						; size = 4
??0?$basic_string@DU?$char_traits@D@std@@V?$allocator@D@2@@std@@QAE@ABV01@@Z PROC NEAR ; std::basic_string<char,std::char_traits<char>,std::allocator<char> >::basic_string<char,std::char_traits<char>,std::allocator<char> >, COMDAT
; _this$ = ecx

; 323  : 		{	// construct by copying _Right

  00000	56		 push	 esi

; 324  : 		_Tidy();

  00001	33 c0		 xor	 eax, eax
  00003	8b f1		 mov	 esi, ecx

; 325  : 		assign(_Right, 0, npos);

  00005	6a ff		 push	 -1
  00007	89 46 14	 mov	 DWORD PTR [esi+20], eax
  0000a	c7 46 18 0f 00
	00 00		 mov	 DWORD PTR [esi+24], 15	; 0000000fH
  00011	50		 push	 eax
  00012	88 46 04	 mov	 BYTE PTR [esi+4], al
  00015	8b 44 24 10	 mov	 eax, DWORD PTR __Right$[esp+8]
  00019	50		 push	 eax
  0001a	e8 00 00 00 00	 call	 ?assign@?$basic_string@DU?$char_traits@D@std@@V?$allocator@D@2@@std@@QAEAAV12@ABV12@II@Z ; std::basic_string<char,std::char_traits<char>,std::allocator<char> >::assign

; 326  : 		}

  0001f	8b c6		 mov	 eax, esi
  00021	5e		 pop	 esi
  00022	c2 04 00	 ret	 4
??0?$basic_string@DU?$char_traits@D@std@@V?$allocator@D@2@@std@@QAE@ABV01@@Z ENDP ; std::basic_string<char,std::char_traits<char>,std::allocator<char> >::basic_string<char,std::char_traits<char>,std::allocator<char> >
_TEXT	ENDS
PUBLIC	?assign@?$basic_string@DU?$char_traits@D@std@@V?$allocator@D@2@@std@@QAEAAV12@PBD@Z ; std::basic_string<char,std::char_traits<char>,std::allocator<char> >::assign
; Function compile flags: /Ogty
;	COMDAT ?assign@?$basic_string@DU?$char_traits@D@std@@V?$allocator@D@2@@std@@QAEAAV12@PBD@Z
_TEXT	SEGMENT
__Ptr$ = 8						; size = 4
?assign@?$basic_string@DU?$char_traits@D@std@@V?$allocator@D@2@@std@@QAEAAV12@PBD@Z PROC NEAR ; std::basic_string<char,std::char_traits<char>,std::allocator<char> >::assign, COMDAT
; _this$ = ecx

; 621  : 		{	// assign [_Ptr, <null>)

  00000	56		 push	 esi

; 622  : 		return (assign(_Ptr, _Traits::length(_Ptr)));

  00001	8b 74 24 08	 mov	 esi, DWORD PTR __Ptr$[esp]
  00005	8b c6		 mov	 eax, esi
  00007	57		 push	 edi
  00008	8d 78 01	 lea	 edi, DWORD PTR [eax+1]
  0000b	eb 03 8d 49 00	 npad	 5
$L188969:
  00010	8a 10		 mov	 dl, BYTE PTR [eax]
  00012	40		 inc	 eax
  00013	84 d2		 test	 dl, dl
  00015	75 f9		 jne	 SHORT $L188969
  00017	2b c7		 sub	 eax, edi
  00019	50		 push	 eax
  0001a	56		 push	 esi
  0001b	e8 00 00 00 00	 call	 ?assign@?$basic_string@DU?$char_traits@D@std@@V?$allocator@D@2@@std@@QAEAAV12@PBDI@Z ; std::basic_string<char,std::char_traits<char>,std::allocator<char> >::assign
  00020	5f		 pop	 edi
  00021	5e		 pop	 esi

; 623  : 		}

  00022	c2 04 00	 ret	 4
?assign@?$basic_string@DU?$char_traits@D@std@@V?$allocator@D@2@@std@@QAEAAV12@PBD@Z ENDP ; std::basic_string<char,std::char_traits<char>,std::allocator<char> >::assign
_TEXT	ENDS
PUBLIC	??0logic_error@std@@QAE@ABV?$basic_string@DU?$char_traits@D@std@@V?$allocator@D@2@@1@@Z ; std::logic_error::logic_error
EXTRN	??0exception@@QAE@XZ:NEAR			; exception::exception
;	COMDAT xdata$x
; File c:\program files\microsoft visual studio .net 2003\vc7\include\iosfwd
xdata$x	SEGMENT
$T189072 DD	0ffffffffH
	DD	FLAT:$L188972
$T189070 DD	019930520H
	DD	01H
	DD	FLAT:$T189072
	DD	2 DUP(00H)
	DD	2 DUP(00H)
; Function compile flags: /Ogty
; File c:\program files\microsoft visual studio .net 2003\vc7\include\stdexcept
xdata$x	ENDS
;	COMDAT ??0logic_error@std@@QAE@ABV?$basic_string@DU?$char_traits@D@std@@V?$allocator@D@2@@1@@Z
_TEXT	SEGMENT
_this$ = -16						; size = 4
__$EHRec$ = -12						; size = 12
__Message$ = 8						; size = 4
??0logic_error@std@@QAE@ABV?$basic_string@DU?$char_traits@D@std@@V?$allocator@D@2@@1@@Z PROC NEAR ; std::logic_error::logic_error, COMDAT
; _this$ = ecx

; 19   : 		{	// construct from message string

  00000	6a ff		 push	 -1
  00002	68 00 00 00 00	 push	 __ehhandler$??0logic_error@std@@QAE@ABV?$basic_string@DU?$char_traits@D@std@@V?$allocator@D@2@@1@@Z
  00007	64 a1 00 00 00
	00		 mov	 eax, DWORD PTR fs:__except_list
  0000d	50		 push	 eax
  0000e	64 89 25 00 00
	00 00		 mov	 DWORD PTR fs:__except_list, esp
  00015	51		 push	 ecx
  00016	56		 push	 esi
  00017	8b f1		 mov	 esi, ecx
  00019	89 74 24 04	 mov	 DWORD PTR _this$[esp+20], esi
  0001d	e8 00 00 00 00	 call	 ??0exception@@QAE@XZ	; exception::exception
  00022	33 c0		 xor	 eax, eax
  00024	8d 4e 0c	 lea	 ecx, DWORD PTR [esi+12]
  00027	c7 06 00 00 00
	00		 mov	 DWORD PTR [esi], OFFSET FLAT:??_7logic_error@std@@6B@
  0002d	6a ff		 push	 -1
  0002f	89 41 14	 mov	 DWORD PTR [ecx+20], eax
  00032	c7 41 18 0f 00
	00 00		 mov	 DWORD PTR [ecx+24], 15	; 0000000fH
  00039	50		 push	 eax
  0003a	89 44 24 18	 mov	 DWORD PTR __$EHRec$[esp+36], eax
  0003e	88 41 04	 mov	 BYTE PTR [ecx+4], al
  00041	8b 44 24 20	 mov	 eax, DWORD PTR __Message$[esp+24]
  00045	50		 push	 eax
  00046	e8 00 00 00 00	 call	 ?assign@?$basic_string@DU?$char_traits@D@std@@V?$allocator@D@2@@std@@QAEAAV12@ABV12@II@Z ; std::basic_string<char,std::char_traits<char>,std::allocator<char> >::assign

; 20   : 		}

  0004b	8b 4c 24 08	 mov	 ecx, DWORD PTR __$EHRec$[esp+20]
  0004f	8b c6		 mov	 eax, esi
  00051	5e		 pop	 esi
  00052	64 89 0d 00 00
	00 00		 mov	 DWORD PTR fs:__except_list, ecx
  00059	83 c4 10	 add	 esp, 16			; 00000010H
  0005c	c2 04 00	 ret	 4
_TEXT	ENDS
;	COMDAT text$x
text$x	SEGMENT
$L188972:
  00000	8b 4d f0	 mov	 ecx, DWORD PTR _this$[ebp]
  00003	e9 00 00 00 00	 jmp	 ??1exception@@UAE@XZ	; exception::~exception
__ehhandler$??0logic_error@std@@QAE@ABV?$basic_string@DU?$char_traits@D@std@@V?$allocator@D@2@@1@@Z:
  00008	b8 00 00 00 00	 mov	 eax, OFFSET FLAT:$T189070
  0000d	e9 00 00 00 00	 jmp	 ___CxxFrameHandler
text$x	ENDS
??0logic_error@std@@QAE@ABV?$basic_string@DU?$char_traits@D@std@@V?$allocator@D@2@@1@@Z ENDP ; std::logic_error::logic_error
PUBLIC	??0length_error@std@@QAE@ABV?$basic_string@DU?$char_traits@D@std@@V?$allocator@D@2@@1@@Z ; std::length_error::length_error
PUBLIC	??_7length_error@std@@6B@			; std::length_error::`vftable'
PUBLIC	??_Glength_error@std@@UAEPAXI@Z			; std::length_error::`scalar deleting destructor'
EXTRN	??_Elength_error@std@@UAEPAXI@Z:NEAR		; std::length_error::`vector deleting destructor'
;	COMDAT ??_7length_error@std@@6B@
CONST	SEGMENT
??_7length_error@std@@6B@ DD FLAT:??_Elength_error@std@@UAEPAXI@Z ; std::length_error::`vftable'
	DD	FLAT:?what@logic_error@std@@UBEPBDXZ
; Function compile flags: /Ogty
CONST	ENDS
;	COMDAT ??0length_error@std@@QAE@ABV?$basic_string@DU?$char_traits@D@std@@V?$allocator@D@2@@1@@Z
_TEXT	SEGMENT
__Message$ = 8						; size = 4
??0length_error@std@@QAE@ABV?$basic_string@DU?$char_traits@D@std@@V?$allocator@D@2@@1@@Z PROC NEAR ; std::length_error::length_error, COMDAT
; _this$ = ecx

; 95   : 		{	// construct from message string

  00000	8b 44 24 04	 mov	 eax, DWORD PTR __Message$[esp-4]
  00004	56		 push	 esi
  00005	50		 push	 eax
  00006	8b f1		 mov	 esi, ecx
  00008	e8 00 00 00 00	 call	 ??0logic_error@std@@QAE@ABV?$basic_string@DU?$char_traits@D@std@@V?$allocator@D@2@@1@@Z ; std::logic_error::logic_error
  0000d	c7 06 00 00 00
	00		 mov	 DWORD PTR [esi], OFFSET FLAT:??_7length_error@std@@6B@

; 96   : 		}

  00013	8b c6		 mov	 eax, esi
  00015	5e		 pop	 esi
  00016	c2 04 00	 ret	 4
??0length_error@std@@QAE@ABV?$basic_string@DU?$char_traits@D@std@@V?$allocator@D@2@@1@@Z ENDP ; std::length_error::length_error
_TEXT	ENDS
PUBLIC	??1length_error@std@@UAE@XZ			; std::length_error::~length_error
; Function compile flags: /Ogty
;	COMDAT ??_Glength_error@std@@UAEPAXI@Z
_TEXT	SEGMENT
___flags$ = 8						; size = 4
??_Glength_error@std@@UAEPAXI@Z PROC NEAR		; std::length_error::`scalar deleting destructor', COMDAT
; _this$ = ecx
  00000	56		 push	 esi
  00001	8b f1		 mov	 esi, ecx
  00003	e8 00 00 00 00	 call	 ??1length_error@std@@UAE@XZ ; std::length_error::~length_error
  00008	f6 44 24 08 01	 test	 BYTE PTR ___flags$[esp], 1
  0000d	74 09		 je	 SHORT $L189080
  0000f	56		 push	 esi
  00010	e8 00 00 00 00	 call	 ??3@YAXPAX@Z		; operator delete
  00015	83 c4 04	 add	 esp, 4
$L189080:
  00018	8b c6		 mov	 eax, esi
  0001a	5e		 pop	 esi
  0001b	c2 04 00	 ret	 4
??_Glength_error@std@@UAEPAXI@Z ENDP			; std::length_error::`scalar deleting destructor'
; Function compile flags: /Ogty
_TEXT	ENDS
;	COMDAT ??1length_error@std@@UAE@XZ
_TEXT	SEGMENT
??1length_error@std@@UAE@XZ PROC NEAR			; std::length_error::~length_error, COMDAT
; _this$ = ecx

; 99   : 		{}	// destroy the object

  00000	56		 push	 esi
  00001	8b f1		 mov	 esi, ecx
  00003	c7 06 00 00 00
	00		 mov	 DWORD PTR [esi], OFFSET FLAT:??_7logic_error@std@@6B@
  00009	83 7e 24 10	 cmp	 DWORD PTR [esi+36], 16	; 00000010H
  0000d	72 0c		 jb	 SHORT $L189174
  0000f	8b 46 10	 mov	 eax, DWORD PTR [esi+16]
  00012	50		 push	 eax
  00013	e8 00 00 00 00	 call	 ??3@YAXPAX@Z		; operator delete
  00018	83 c4 04	 add	 esp, 4
$L189174:
  0001b	33 c0		 xor	 eax, eax
  0001d	c7 46 24 0f 00
	00 00		 mov	 DWORD PTR [esi+36], 15	; 0000000fH
  00024	89 46 20	 mov	 DWORD PTR [esi+32], eax
  00027	88 46 10	 mov	 BYTE PTR [esi+16], al
  0002a	8b ce		 mov	 ecx, esi
  0002c	5e		 pop	 esi
  0002d	e9 00 00 00 00	 jmp	 ??1exception@@UAE@XZ	; exception::~exception
??1length_error@std@@UAE@XZ ENDP			; std::length_error::~length_error
_TEXT	ENDS
PUBLIC	??0?$basic_string@DU?$char_traits@D@std@@V?$allocator@D@2@@std@@QAE@PBD@Z ; std::basic_string<char,std::char_traits<char>,std::allocator<char> >::basic_string<char,std::char_traits<char>,std::allocator<char> >
; Function compile flags: /Ogty
; File c:\program files\microsoft visual studio .net 2003\vc7\include\xstring
;	COMDAT ??0?$basic_string@DU?$char_traits@D@std@@V?$allocator@D@2@@std@@QAE@PBD@Z
_TEXT	SEGMENT
__Ptr$ = 8						; size = 4
??0?$basic_string@DU?$char_traits@D@std@@V?$allocator@D@2@@std@@QAE@PBD@Z PROC NEAR ; std::basic_string<char,std::char_traits<char>,std::allocator<char> >::basic_string<char,std::char_traits<char>,std::allocator<char> >, COMDAT
; _this$ = ecx

; 361  : 		_Tidy();
; 362  : 		assign(_Ptr);

  00000	8b 54 24 04	 mov	 edx, DWORD PTR __Ptr$[esp-4]
  00004	56		 push	 esi
  00005	8b f1		 mov	 esi, ecx
  00007	8b c2		 mov	 eax, edx
  00009	57		 push	 edi
  0000a	c7 46 18 0f 00
	00 00		 mov	 DWORD PTR [esi+24], 15	; 0000000fH
  00011	c7 46 14 00 00
	00 00		 mov	 DWORD PTR [esi+20], 0
  00018	c6 46 04 00	 mov	 BYTE PTR [esi+4], 0
  0001c	8d 78 01	 lea	 edi, DWORD PTR [eax+1]
  0001f	90		 npad	 1
$L189260:
  00020	8a 08		 mov	 cl, BYTE PTR [eax]
  00022	40		 inc	 eax
  00023	84 c9		 test	 cl, cl
  00025	75 f9		 jne	 SHORT $L189260
  00027	2b c7		 sub	 eax, edi
  00029	50		 push	 eax
  0002a	52		 push	 edx
  0002b	8b ce		 mov	 ecx, esi
  0002d	e8 00 00 00 00	 call	 ?assign@?$basic_string@DU?$char_traits@D@std@@V?$allocator@D@2@@std@@QAEAAV12@PBDI@Z ; std::basic_string<char,std::char_traits<char>,std::allocator<char> >::assign
  00032	5f		 pop	 edi

; 363  : 		}

  00033	8b c6		 mov	 eax, esi
  00035	5e		 pop	 esi
  00036	c2 04 00	 ret	 4
??0?$basic_string@DU?$char_traits@D@std@@V?$allocator@D@2@@std@@QAE@PBD@Z ENDP ; std::basic_string<char,std::char_traits<char>,std::allocator<char> >::basic_string<char,std::char_traits<char>,std::allocator<char> >
_TEXT	ENDS
PUBLIC	??_R0?AVlogic_error@std@@@8			; std::logic_error `RTTI Type Descriptor'
PUBLIC	__CT??_R0?AVlogic_error@std@@@8??0logic_error@std@@QAE@ABV01@@Z40
PUBLIC	??_R0?AVexception@@@8				; exception `RTTI Type Descriptor'
PUBLIC	__CT??_R0?AVexception@@@8??0exception@@QAE@ABV0@@Z12
PUBLIC	??0logic_error@std@@QAE@ABV01@@Z		; std::logic_error::logic_error
PUBLIC	??0length_error@std@@QAE@ABV01@@Z		; std::length_error::length_error
PUBLIC	__TI3?AVlength_error@std@@
PUBLIC	__CTA3?AVlength_error@std@@
PUBLIC	??_R0?AVlength_error@std@@@8			; std::length_error `RTTI Type Descriptor'
PUBLIC	__CT??_R0?AVlength_error@std@@@8??0length_error@std@@QAE@ABV01@@Z40
PUBLIC	??_C@_0BB@MOGOBHAF@list?$DMT?$DO?5too?5long?$AA@ ; `string'
PUBLIC	?_Incsize@?$list@PAXV?$allocator@PAX@std@@@std@@IAEXI@Z ; std::list<void *,std::allocator<void *> >::_Incsize
EXTRN	??0exception@@QAE@ABV0@@Z:NEAR			; exception::exception
EXTRN	??_7type_info@@6B@:DWORD			; type_info::`vftable'
;	COMDAT xdata$x
; File c:\program files\microsoft visual studio .net 2003\vc7\include\stdexcept
xdata$x	SEGMENT
$T189396 DD	0ffffffffH
	DD	FLAT:$L189265
$T189393 DD	019930520H
	DD	01H
	DD	FLAT:$T189396
	DD	2 DUP(00H)
	DD	2 DUP(00H)
xdata$x	ENDS
;	COMDAT ??_C@_0BB@MOGOBHAF@list?$DMT?$DO?5too?5long?$AA@
CONST	SEGMENT
??_C@_0BB@MOGOBHAF@list?$DMT?$DO?5too?5long?$AA@ DB 'list<T> too long', 00H ; `string'
CONST	ENDS
;	COMDAT __TI3?AVlength_error@std@@
xdata$x	SEGMENT
__TI3?AVlength_error@std@@ DD 00H
	DD	FLAT:??1length_error@std@@UAE@XZ
	DD	00H
	DD	FLAT:__CTA3?AVlength_error@std@@
xdata$x	ENDS
;	COMDAT __CTA3?AVlength_error@std@@
xdata$x	SEGMENT
__CTA3?AVlength_error@std@@ DD 03H
	DD	FLAT:__CT??_R0?AVlength_error@std@@@8??0length_error@std@@QAE@ABV01@@Z40
	DD	FLAT:__CT??_R0?AVlogic_error@std@@@8??0logic_error@std@@QAE@ABV01@@Z40
	DD	FLAT:__CT??_R0?AVexception@@@8??0exception@@QAE@ABV0@@Z12
xdata$x	ENDS
;	COMDAT __CT??_R0?AVlength_error@std@@@8??0length_error@std@@QAE@ABV01@@Z40
xdata$x	SEGMENT
__CT??_R0?AVlength_error@std@@@8??0length_error@std@@QAE@ABV01@@Z40 DD 00H
	DD	FLAT:??_R0?AVlength_error@std@@@8
	DD	00H
	DD	0ffffffffH
	ORG $+4
	DD	028H
	DD	FLAT:??0length_error@std@@QAE@ABV01@@Z
xdata$x	ENDS
;	COMDAT ??_R0?AVlength_error@std@@@8
_DATA	SEGMENT
??_R0?AVlength_error@std@@@8 DD FLAT:??_7type_info@@6B@	; std::length_error `RTTI Type Descriptor'
	DD	00H
	DB	'.?AVlength_error@std@@', 00H
_DATA	ENDS
;	COMDAT __CT??_R0?AVlogic_error@std@@@8??0logic_error@std@@QAE@ABV01@@Z40
xdata$x	SEGMENT
__CT??_R0?AVlogic_error@std@@@8??0logic_error@std@@QAE@ABV01@@Z40 DD 00H
	DD	FLAT:??_R0?AVlogic_error@std@@@8
	DD	00H
	DD	0ffffffffH
	ORG $+4
	DD	028H
	DD	FLAT:??0logic_error@std@@QAE@ABV01@@Z
xdata$x	ENDS
;	COMDAT ??_R0?AVlogic_error@std@@@8
_DATA	SEGMENT
??_R0?AVlogic_error@std@@@8 DD FLAT:??_7type_info@@6B@	; std::logic_error `RTTI Type Descriptor'
	DD	00H
	DB	'.?AVlogic_error@std@@', 00H
_DATA	ENDS
;	COMDAT __CT??_R0?AVexception@@@8??0exception@@QAE@ABV0@@Z12
xdata$x	SEGMENT
__CT??_R0?AVexception@@@8??0exception@@QAE@ABV0@@Z12 DD 00H
	DD	FLAT:??_R0?AVexception@@@8
	DD	00H
	DD	0ffffffffH
	ORG $+4
	DD	0cH
	DD	FLAT:??0exception@@QAE@ABV0@@Z
xdata$x	ENDS
;	COMDAT ??_R0?AVexception@@@8
_DATA	SEGMENT
??_R0?AVexception@@@8 DD FLAT:??_7type_info@@6B@	; exception `RTTI Type Descriptor'
	DD	00H
	DB	'.?AVexception@@', 00H
; Function compile flags: /Ogty
; File c:\program files\microsoft visual studio .net 2003\vc7\include\list
_DATA	ENDS
;	COMDAT ?_Incsize@?$list@PAXV?$allocator@PAX@std@@@std@@IAEXI@Z
_TEXT	SEGMENT
$T189264 = -80						; size = 28
$T189263 = -52						; size = 40
__$EHRec$ = -12						; size = 12
__Count$ = 8						; size = 4
?_Incsize@?$list@PAXV?$allocator@PAX@std@@@std@@IAEXI@Z PROC NEAR ; std::list<void *,std::allocator<void *> >::_Incsize, COMDAT
; _this$ = ecx

; 956  : 		{	// alter element count, with checking

  00000	64 a1 00 00 00
	00		 mov	 eax, DWORD PTR fs:__except_list

; 957  : 		if (max_size() - _Mysize < _Count)

  00006	8b 54 24 04	 mov	 edx, DWORD PTR __Count$[esp-4]
  0000a	6a ff		 push	 -1
  0000c	68 00 00 00 00	 push	 __ehhandler$?_Incsize@?$list@PAXV?$allocator@PAX@std@@@std@@IAEXI@Z
  00011	50		 push	 eax
  00012	64 89 25 00 00
	00 00		 mov	 DWORD PTR fs:__except_list, esp
  00019	8b 41 08	 mov	 eax, DWORD PTR [ecx+8]
  0001c	83 ec 44	 sub	 esp, 68			; 00000044H
  0001f	56		 push	 esi
  00020	be ff ff ff 3f	 mov	 esi, 1073741823		; 3fffffffH
  00025	2b f0		 sub	 esi, eax
  00027	3b f2		 cmp	 esi, edx
  00029	5e		 pop	 esi
  0002a	73 51		 jae	 SHORT $L185954

; 958  : 			_THROW(length_error, "list<T> too long");

  0002c	6a 10		 push	 16			; 00000010H
  0002e	68 00 00 00 00	 push	 OFFSET FLAT:??_C@_0BB@MOGOBHAF@list?$DMT?$DO?5too?5long?$AA@
  00033	8d 4c 24 08	 lea	 ecx, DWORD PTR $T189264[esp+88]
  00037	c7 44 24 20 0f
	00 00 00	 mov	 DWORD PTR $T189264[esp+112], 15 ; 0000000fH
  0003f	c7 44 24 1c 00
	00 00 00	 mov	 DWORD PTR $T189264[esp+108], 0
  00047	c6 44 24 0c 00	 mov	 BYTE PTR $T189264[esp+92], 0
  0004c	e8 00 00 00 00	 call	 ?assign@?$basic_string@DU?$char_traits@D@std@@V?$allocator@D@2@@std@@QAEAAV12@PBDI@Z ; std::basic_string<char,std::char_traits<char>,std::allocator<char> >::assign
  00051	8d 04 24	 lea	 eax, DWORD PTR $T189264[esp+80]
  00054	50		 push	 eax
  00055	8d 4c 24 20	 lea	 ecx, DWORD PTR $T189263[esp+84]
  00059	c7 44 24 50 00
	00 00 00	 mov	 DWORD PTR __$EHRec$[esp+92], 0
  00061	e8 00 00 00 00	 call	 ??0logic_error@std@@QAE@ABV?$basic_string@DU?$char_traits@D@std@@V?$allocator@D@2@@1@@Z ; std::logic_error::logic_error
  00066	68 00 00 00 00	 push	 OFFSET FLAT:__TI3?AVlength_error@std@@
  0006b	8d 4c 24 20	 lea	 ecx, DWORD PTR $T189263[esp+84]
  0006f	51		 push	 ecx
  00070	c7 44 24 24 00
	00 00 00	 mov	 DWORD PTR $T189263[esp+88], OFFSET FLAT:??_7length_error@std@@6B@
  00078	e8 00 00 00 00	 call	 __CxxThrowException@8
$L185954:

; 959  : 		_Mysize += _Count;

  0007d	03 c2		 add	 eax, edx
  0007f	89 41 08	 mov	 DWORD PTR [ecx+8], eax

; 960  : 		}

  00082	8b 4c 24 44	 mov	 ecx, DWORD PTR __$EHRec$[esp+80]
  00086	64 89 0d 00 00
	00 00		 mov	 DWORD PTR fs:__except_list, ecx
  0008d	83 c4 50	 add	 esp, 80			; 00000050H
  00090	c2 04 00	 ret	 4
$L189395:
_TEXT	ENDS
;	COMDAT text$x
text$x	SEGMENT
$L189265:
  00000	8d 4d b0	 lea	 ecx, DWORD PTR $T189264[ebp]
  00003	e9 00 00 00 00	 jmp	 ??1?$basic_string@DU?$char_traits@D@std@@V?$allocator@D@2@@std@@QAE@XZ ; std::basic_string<char,std::char_traits<char>,std::allocator<char> >::~basic_string<char,std::char_traits<char>,std::allocator<char> >
__ehhandler$?_Incsize@?$list@PAXV?$allocator@PAX@std@@@std@@IAEXI@Z:
  00008	b8 00 00 00 00	 mov	 eax, OFFSET FLAT:$T189393
  0000d	e9 00 00 00 00	 jmp	 ___CxxFrameHandler
text$x	ENDS
?_Incsize@?$list@PAXV?$allocator@PAX@std@@@std@@IAEXI@Z ENDP ; std::list<void *,std::allocator<void *> >::_Incsize
;	COMDAT xdata$x
xdata$x	SEGMENT
$T189501 DD	0ffffffffH
	DD	FLAT:$L189401
$T189499 DD	019930520H
	DD	01H
	DD	FLAT:$T189501
	DD	2 DUP(00H)
	DD	2 DUP(00H)
; Function compile flags: /Ogty
xdata$x	ENDS
;	COMDAT ??0logic_error@std@@QAE@ABV01@@Z
_TEXT	SEGMENT
_this$ = -16						; size = 4
__$EHRec$ = -12						; size = 12
___that$ = 8						; size = 4
??0logic_error@std@@QAE@ABV01@@Z PROC NEAR		; std::logic_error::logic_error, COMDAT
; _this$ = ecx
  00000	6a ff		 push	 -1
  00002	68 00 00 00 00	 push	 __ehhandler$??0logic_error@std@@QAE@ABV01@@Z
  00007	64 a1 00 00 00
	00		 mov	 eax, DWORD PTR fs:__except_list
  0000d	50		 push	 eax
  0000e	64 89 25 00 00
	00 00		 mov	 DWORD PTR fs:__except_list, esp
  00015	51		 push	 ecx
  00016	56		 push	 esi
  00017	57		 push	 edi
  00018	8b 7c 24 1c	 mov	 edi, DWORD PTR ___that$[esp+20]
  0001c	8b f1		 mov	 esi, ecx
  0001e	57		 push	 edi
  0001f	89 74 24 0c	 mov	 DWORD PTR _this$[esp+28], esi
  00023	e8 00 00 00 00	 call	 ??0exception@@QAE@ABV0@@Z ; exception::exception
  00028	33 c0		 xor	 eax, eax
  0002a	6a ff		 push	 -1
  0002c	8d 4e 0c	 lea	 ecx, DWORD PTR [esi+12]
  0002f	c7 06 00 00 00
	00		 mov	 DWORD PTR [esi], OFFSET FLAT:??_7logic_error@std@@6B@
  00035	50		 push	 eax
  00036	83 c7 0c	 add	 edi, 12			; 0000000cH
  00039	c7 41 18 0f 00
	00 00		 mov	 DWORD PTR [ecx+24], 15	; 0000000fH
  00040	89 41 14	 mov	 DWORD PTR [ecx+20], eax
  00043	57		 push	 edi
  00044	89 44 24 20	 mov	 DWORD PTR __$EHRec$[esp+44], eax
  00048	88 41 04	 mov	 BYTE PTR [ecx+4], al
  0004b	e8 00 00 00 00	 call	 ?assign@?$basic_string@DU?$char_traits@D@std@@V?$allocator@D@2@@std@@QAEAAV12@ABV12@II@Z ; std::basic_string<char,std::char_traits<char>,std::allocator<char> >::assign
  00050	8b 4c 24 0c	 mov	 ecx, DWORD PTR __$EHRec$[esp+24]
  00054	5f		 pop	 edi
  00055	8b c6		 mov	 eax, esi
  00057	5e		 pop	 esi
  00058	64 89 0d 00 00
	00 00		 mov	 DWORD PTR fs:__except_list, ecx
  0005f	83 c4 10	 add	 esp, 16			; 00000010H
  00062	c2 04 00	 ret	 4
_TEXT	ENDS
;	COMDAT text$x
text$x	SEGMENT
$L189401:
  00000	8b 4d f0	 mov	 ecx, DWORD PTR _this$[ebp]
  00003	e9 00 00 00 00	 jmp	 ??1exception@@UAE@XZ	; exception::~exception
__ehhandler$??0logic_error@std@@QAE@ABV01@@Z:
  00008	b8 00 00 00 00	 mov	 eax, OFFSET FLAT:$T189499
  0000d	e9 00 00 00 00	 jmp	 ___CxxFrameHandler
text$x	ENDS
??0logic_error@std@@QAE@ABV01@@Z ENDP			; std::logic_error::logic_error
; Function compile flags: /Ogty
;	COMDAT ??0length_error@std@@QAE@ABV01@@Z
_TEXT	SEGMENT
___that$ = 8						; size = 4
??0length_error@std@@QAE@ABV01@@Z PROC NEAR		; std::length_error::length_error, COMDAT
; _this$ = ecx
  00000	8b 44 24 04	 mov	 eax, DWORD PTR ___that$[esp-4]
  00004	56		 push	 esi
  00005	50		 push	 eax
  00006	8b f1		 mov	 esi, ecx
  00008	e8 00 00 00 00	 call	 ??0logic_error@std@@QAE@ABV01@@Z
  0000d	c7 06 00 00 00
	00		 mov	 DWORD PTR [esi], OFFSET FLAT:??_7length_error@std@@6B@
  00013	8b c6		 mov	 eax, esi
  00015	5e		 pop	 esi
  00016	c2 04 00	 ret	 4
??0length_error@std@@QAE@ABV01@@Z ENDP			; std::length_error::length_error
_TEXT	ENDS
PUBLIC	?_Insert@?$list@PAXV?$allocator@PAX@std@@@std@@QAEXViterator@12@ABQAX@Z ; std::list<void *,std::allocator<void *> >::_Insert
; Function compile flags: /Ogty
;	COMDAT ?_Insert@?$list@PAXV?$allocator@PAX@std@@@std@@QAEXViterator@12@ABQAX@Z
_TEXT	SEGMENT
__Where$ = 8						; size = 4
__Val$ = 12						; size = 4
?_Insert@?$list@PAXV?$allocator@PAX@std@@@std@@QAEXViterator@12@ABQAX@Z PROC NEAR ; std::list<void *,std::allocator<void *> >::_Insert, COMDAT
; _this$ = ecx

; 522  : 		_Nodeptr _Pnode = _Where._Mynode();
; 523  : 		_Nodeptr _Newnode = _Buynode(_Pnode, _Prevnode(_Pnode), _Val);

  00000	8b 44 24 08	 mov	 eax, DWORD PTR __Val$[esp-4]
  00004	53		 push	 ebx
  00005	8b 5c 24 08	 mov	 ebx, DWORD PTR __Where$[esp]
  00009	56		 push	 esi
  0000a	57		 push	 edi
  0000b	8b f9		 mov	 edi, ecx
  0000d	8b 4b 04	 mov	 ecx, DWORD PTR [ebx+4]
  00010	50		 push	 eax
  00011	51		 push	 ecx
  00012	53		 push	 ebx
  00013	8b cf		 mov	 ecx, edi
  00015	e8 00 00 00 00	 call	 ?_Buynode@?$list@PAXV?$allocator@PAX@std@@@std@@IAEPAU_Node@?$_List_nod@PAXV?$allocator@PAX@std@@@2@PAU342@0ABQAX@Z ; std::list<void *,std::allocator<void *> >::_Buynode

; 524  : 		_Incsize(1);

  0001a	6a 01		 push	 1
  0001c	8b cf		 mov	 ecx, edi
  0001e	8b f0		 mov	 esi, eax
  00020	e8 00 00 00 00	 call	 ?_Incsize@?$list@PAXV?$allocator@PAX@std@@@std@@IAEXI@Z ; std::list<void *,std::allocator<void *> >::_Incsize

; 525  : 		_Prevnode(_Pnode) = _Newnode;

  00025	89 73 04	 mov	 DWORD PTR [ebx+4], esi

; 526  : 		_Nextnode(_Prevnode(_Newnode)) = _Newnode;

  00028	8b 56 04	 mov	 edx, DWORD PTR [esi+4]
  0002b	5f		 pop	 edi
  0002c	89 32		 mov	 DWORD PTR [edx], esi
  0002e	5e		 pop	 esi
  0002f	5b		 pop	 ebx

; 527  : 		}

  00030	c2 08 00	 ret	 8
?_Insert@?$list@PAXV?$allocator@PAX@std@@@std@@QAEXViterator@12@ABQAX@Z ENDP ; std::list<void *,std::allocator<void *> >::_Insert
_TEXT	ENDS
PUBLIC	?push_back@?$list@PAXV?$allocator@PAX@std@@@std@@QAEXABQAX@Z ; std::list<void *,std::allocator<void *> >::push_back
; Function compile flags: /Ogty
;	COMDAT ?push_back@?$list@PAXV?$allocator@PAX@std@@@std@@QAEXABQAX@Z
_TEXT	SEGMENT
__Val$ = 8						; size = 4
?push_back@?$list@PAXV?$allocator@PAX@std@@@std@@QAEXABQAX@Z PROC NEAR ; std::list<void *,std::allocator<void *> >::push_back, COMDAT
; _this$ = ecx

; 481  : 		_Insert(end(), _Val);

  00000	8b 44 24 04	 mov	 eax, DWORD PTR __Val$[esp-4]
  00004	53		 push	 ebx
  00005	56		 push	 esi
  00006	57		 push	 edi
  00007	8b f1		 mov	 esi, ecx
  00009	8b 7e 04	 mov	 edi, DWORD PTR [esi+4]
  0000c	8b 4f 04	 mov	 ecx, DWORD PTR [edi+4]
  0000f	50		 push	 eax
  00010	51		 push	 ecx
  00011	57		 push	 edi
  00012	8b ce		 mov	 ecx, esi
  00014	e8 00 00 00 00	 call	 ?_Buynode@?$list@PAXV?$allocator@PAX@std@@@std@@IAEPAU_Node@?$_List_nod@PAXV?$allocator@PAX@std@@@2@PAU342@0ABQAX@Z ; std::list<void *,std::allocator<void *> >::_Buynode
  00019	6a 01		 push	 1
  0001b	8b ce		 mov	 ecx, esi
  0001d	8b d8		 mov	 ebx, eax
  0001f	e8 00 00 00 00	 call	 ?_Incsize@?$list@PAXV?$allocator@PAX@std@@@std@@IAEXI@Z ; std::list<void *,std::allocator<void *> >::_Incsize
  00024	89 5f 04	 mov	 DWORD PTR [edi+4], ebx
  00027	8b 53 04	 mov	 edx, DWORD PTR [ebx+4]
  0002a	5f		 pop	 edi
  0002b	5e		 pop	 esi
  0002c	89 1a		 mov	 DWORD PTR [edx], ebx
  0002e	5b		 pop	 ebx

; 482  : 		}

  0002f	c2 04 00	 ret	 4
?push_back@?$list@PAXV?$allocator@PAX@std@@@std@@QAEXABQAX@Z ENDP ; std::list<void *,std::allocator<void *> >::push_back
_TEXT	ENDS
PUBLIC	??_C@_09PKKCPLIP@bad?5alloc?$AA@		; `string'
PUBLIC	?Create@?$MemPooler@VCBuffer@@@@IAEXXZ		; MemPooler<CBuffer>::Create
EXTRN	__imp__VirtualAlloc@16:NEAR
EXTRN	?Error@@YAPBDPBDZZ:NEAR				; Error
;	COMDAT ??_C@_09PKKCPLIP@bad?5alloc?$AA@
CONST	SEGMENT
??_C@_09PKKCPLIP@bad?5alloc?$AA@ DB 'bad alloc', 00H	; `string'
; Function compile flags: /Ogty
; File c:\documents and settings\test\mes documents\source\virtuos_v17\build\program\_network\misc\include\mempooler.h
CONST	ENDS
;	COMDAT ?Create@?$MemPooler@VCBuffer@@@@IAEXXZ
_TEXT	SEGMENT
_pMemBlock$ = -4					; size = 4
?Create@?$MemPooler@VCBuffer@@@@IAEXXZ PROC NEAR	; MemPooler<CBuffer>::Create, COMDAT
; _this$ = ecx

; 120  : 		{

  00000	51		 push	 ecx
  00001	56		 push	 esi
  00002	8b f1		 mov	 esi, ecx

; 121  : #ifdef __VERIFY_MEMPOOL
; 122  : 			return;
; 123  : #endif
; 124  : #ifdef __VM_0819
; 125  : 			Log( "Create" );
; 126  : #endif	// __VM_0819
; 127  : 			const int AllocationSize	= m_nListBlockSize * m_nNumOfBlock;

  00004	8b 46 10	 mov	 eax, DWORD PTR [esi+16]
  00007	0f af 46 14	 imul	 eax, DWORD PTR [esi+20]
  0000b	57		 push	 edi

; 128  : 			void* pMemBlock		= VirtualAlloc( NULL, AllocationSize, MEM_RESERVE | MEM_COMMIT, PAGE_READWRITE );

  0000c	6a 04		 push	 4
  0000e	68 00 30 00 00	 push	 12288			; 00003000H
  00013	50		 push	 eax
  00014	6a 00		 push	 0
  00016	ff 15 00 00 00
	00		 call	 DWORD PTR __imp__VirtualAlloc@16

; 129  : 			ASSERT( pMemBlock );
; 130  : 			if( !pMemBlock )

  0001c	85 c0		 test	 eax, eax
  0001e	89 44 24 08	 mov	 DWORD PTR _pMemBlock$[esp+12], eax
  00022	75 0d		 jne	 SHORT $L184592

; 131  : 				Error( "bad alloc" );

  00024	68 00 00 00 00	 push	 OFFSET FLAT:??_C@_09PKKCPLIP@bad?5alloc?$AA@
  00029	e8 00 00 00 00	 call	 ?Error@@YAPBDPBDZZ	; Error
  0002e	83 c4 04	 add	 esp, 4
$L184592:
  00031	53		 push	 ebx

; 132  : 			m_ListOfMemBlockPtr.push_back( pMemBlock );

  00032	8b 5e 08	 mov	 ebx, DWORD PTR [esi+8]
  00035	8b 4b 04	 mov	 ecx, DWORD PTR [ebx+4]
  00038	55		 push	 ebp
  00039	8d 7e 04	 lea	 edi, DWORD PTR [esi+4]
  0003c	8d 44 24 10	 lea	 eax, DWORD PTR _pMemBlock$[esp+20]
  00040	50		 push	 eax
  00041	51		 push	 ecx
  00042	53		 push	 ebx
  00043	8b cf		 mov	 ecx, edi
  00045	e8 00 00 00 00	 call	 ?_Buynode@?$list@PAXV?$allocator@PAX@std@@@std@@IAEPAU_Node@?$_List_nod@PAXV?$allocator@PAX@std@@@2@PAU342@0ABQAX@Z ; std::list<void *,std::allocator<void *> >::_Buynode
  0004a	6a 01		 push	 1
  0004c	8b cf		 mov	 ecx, edi
  0004e	8b e8		 mov	 ebp, eax
  00050	e8 00 00 00 00	 call	 ?_Incsize@?$list@PAXV?$allocator@PAX@std@@@std@@IAEXI@Z ; std::list<void *,std::allocator<void *> >::_Incsize

; 133  : 			BlockNode* pNode	= reinterpret_cast<BlockNode*>(pMemBlock);
; 134  : 			pNode	= reinterpret_cast<BlockNode*>( ( reinterpret_cast<DWORD>( pNode ) ) + ( m_nNumOfBlock - 1 ) * ( m_nListBlockSize ) );	// set pNode to last

  00055	8b 7c 24 10	 mov	 edi, DWORD PTR _pMemBlock$[esp+20]
  00059	89 6b 04	 mov	 DWORD PTR [ebx+4], ebp
  0005c	8b 55 04	 mov	 edx, DWORD PTR [ebp+4]
  0005f	89 2a		 mov	 DWORD PTR [edx], ebp
  00061	8b 46 10	 mov	 eax, DWORD PTR [esi+16]
  00064	8d 48 ff	 lea	 ecx, DWORD PTR [eax-1]
  00067	8b 46 14	 mov	 eax, DWORD PTR [esi+20]
  0006a	0f af c1	 imul	 eax, ecx
  0006d	03 c7		 add	 eax, edi

; 135  : 			for( int i = m_nNumOfBlock - 1; i >= 0; i-- )

  0006f	85 c9		 test	 ecx, ecx
  00071	5d		 pop	 ebp
  00072	5b		 pop	 ebx
  00073	7c 0f		 jl	 SHORT $L184601

; 132  : 			m_ListOfMemBlockPtr.push_back( pMemBlock );

  00075	41		 inc	 ecx
$L184599:

; 136  : 			{
; 137  : 				pNode->pNext	= m_pFreeList;

  00076	8b 16		 mov	 edx, DWORD PTR [esi]
  00078	89 10		 mov	 DWORD PTR [eax], edx

; 138  : 				m_pFreeList	= pNode;
; 139  : 				pNode	= reinterpret_cast<BlockNode*>( ( reinterpret_cast<DWORD>( pNode ) ) - m_nListBlockSize );	// set pNode to previous

  0007a	8b 7e 14	 mov	 edi, DWORD PTR [esi+20]
  0007d	89 06		 mov	 DWORD PTR [esi], eax
  0007f	2b c7		 sub	 eax, edi
  00081	49		 dec	 ecx
  00082	75 f2		 jne	 SHORT $L184599
$L184601:
  00084	5f		 pop	 edi
  00085	5e		 pop	 esi

; 140  : 			}
; 141  : 		}

  00086	59		 pop	 ecx
  00087	c3		 ret	 0
?Create@?$MemPooler@VCBuffer@@@@IAEXXZ ENDP		; MemPooler<CBuffer>::Create
_TEXT	ENDS
PUBLIC	?Create@?$MemPooler@VCBuffer2@@@@IAEXXZ		; MemPooler<CBuffer2>::Create
; Function compile flags: /Ogty
;	COMDAT ?Create@?$MemPooler@VCBuffer2@@@@IAEXXZ
_TEXT	SEGMENT
_pMemBlock$ = -4					; size = 4
?Create@?$MemPooler@VCBuffer2@@@@IAEXXZ PROC NEAR	; MemPooler<CBuffer2>::Create, COMDAT
; _this$ = ecx

; 120  : 		{

  00000	51		 push	 ecx
  00001	56		 push	 esi
  00002	8b f1		 mov	 esi, ecx

; 121  : #ifdef __VERIFY_MEMPOOL
; 122  : 			return;
; 123  : #endif
; 124  : #ifdef __VM_0819
; 125  : 			Log( "Create" );
; 126  : #endif	// __VM_0819
; 127  : 			const int AllocationSize	= m_nListBlockSize * m_nNumOfBlock;

  00004	8b 46 10	 mov	 eax, DWORD PTR [esi+16]
  00007	0f af 46 14	 imul	 eax, DWORD PTR [esi+20]
  0000b	57		 push	 edi

; 128  : 			void* pMemBlock		= VirtualAlloc( NULL, AllocationSize, MEM_RESERVE | MEM_COMMIT, PAGE_READWRITE );

  0000c	6a 04		 push	 4
  0000e	68 00 30 00 00	 push	 12288			; 00003000H
  00013	50		 push	 eax
  00014	6a 00		 push	 0
  00016	ff 15 00 00 00
	00		 call	 DWORD PTR __imp__VirtualAlloc@16

; 129  : 			ASSERT( pMemBlock );
; 130  : 			if( !pMemBlock )

  0001c	85 c0		 test	 eax, eax
  0001e	89 44 24 08	 mov	 DWORD PTR _pMemBlock$[esp+12], eax
  00022	75 0d		 jne	 SHORT $L184609

; 131  : 				Error( "bad alloc" );

  00024	68 00 00 00 00	 push	 OFFSET FLAT:??_C@_09PKKCPLIP@bad?5alloc?$AA@
  00029	e8 00 00 00 00	 call	 ?Error@@YAPBDPBDZZ	; Error
  0002e	83 c4 04	 add	 esp, 4
$L184609:
  00031	53		 push	 ebx

; 132  : 			m_ListOfMemBlockPtr.push_back( pMemBlock );

  00032	8b 5e 08	 mov	 ebx, DWORD PTR [esi+8]
  00035	8b 4b 04	 mov	 ecx, DWORD PTR [ebx+4]
  00038	55		 push	 ebp
  00039	8d 7e 04	 lea	 edi, DWORD PTR [esi+4]
  0003c	8d 44 24 10	 lea	 eax, DWORD PTR _pMemBlock$[esp+20]
  00040	50		 push	 eax
  00041	51		 push	 ecx
  00042	53		 push	 ebx
  00043	8b cf		 mov	 ecx, edi
  00045	e8 00 00 00 00	 call	 ?_Buynode@?$list@PAXV?$allocator@PAX@std@@@std@@IAEPAU_Node@?$_List_nod@PAXV?$allocator@PAX@std@@@2@PAU342@0ABQAX@Z ; std::list<void *,std::allocator<void *> >::_Buynode
  0004a	6a 01		 push	 1
  0004c	8b cf		 mov	 ecx, edi
  0004e	8b e8		 mov	 ebp, eax
  00050	e8 00 00 00 00	 call	 ?_Incsize@?$list@PAXV?$allocator@PAX@std@@@std@@IAEXI@Z ; std::list<void *,std::allocator<void *> >::_Incsize

; 133  : 			BlockNode* pNode	= reinterpret_cast<BlockNode*>(pMemBlock);
; 134  : 			pNode	= reinterpret_cast<BlockNode*>( ( reinterpret_cast<DWORD>( pNode ) ) + ( m_nNumOfBlock - 1 ) * ( m_nListBlockSize ) );	// set pNode to last

  00055	8b 7c 24 10	 mov	 edi, DWORD PTR _pMemBlock$[esp+20]
  00059	89 6b 04	 mov	 DWORD PTR [ebx+4], ebp
  0005c	8b 55 04	 mov	 edx, DWORD PTR [ebp+4]
  0005f	89 2a		 mov	 DWORD PTR [edx], ebp
  00061	8b 46 10	 mov	 eax, DWORD PTR [esi+16]
  00064	8d 48 ff	 lea	 ecx, DWORD PTR [eax-1]
  00067	8b 46 14	 mov	 eax, DWORD PTR [esi+20]
  0006a	0f af c1	 imul	 eax, ecx
  0006d	03 c7		 add	 eax, edi

; 135  : 			for( int i = m_nNumOfBlock - 1; i >= 0; i-- )

  0006f	85 c9		 test	 ecx, ecx
  00071	5d		 pop	 ebp
  00072	5b		 pop	 ebx
  00073	7c 0f		 jl	 SHORT $L184617

; 132  : 			m_ListOfMemBlockPtr.push_back( pMemBlock );

  00075	41		 inc	 ecx
$L184615:

; 136  : 			{
; 137  : 				pNode->pNext	= m_pFreeList;

  00076	8b 16		 mov	 edx, DWORD PTR [esi]
  00078	89 10		 mov	 DWORD PTR [eax], edx

; 138  : 				m_pFreeList	= pNode;
; 139  : 				pNode	= reinterpret_cast<BlockNode*>( ( reinterpret_cast<DWORD>( pNode ) ) - m_nListBlockSize );	// set pNode to previous

  0007a	8b 7e 14	 mov	 edi, DWORD PTR [esi+20]
  0007d	89 06		 mov	 DWORD PTR [esi], eax
  0007f	2b c7		 sub	 eax, edi
  00081	49		 dec	 ecx
  00082	75 f2		 jne	 SHORT $L184615
$L184617:
  00084	5f		 pop	 edi
  00085	5e		 pop	 esi

; 140  : 			}
; 141  : 		}

  00086	59		 pop	 ecx
  00087	c3		 ret	 0
?Create@?$MemPooler@VCBuffer2@@@@IAEXXZ ENDP		; MemPooler<CBuffer2>::Create
_TEXT	ENDS
PUBLIC	??0?$MemPooler@VCBuffer@@@@QAE@H@Z		; MemPooler<CBuffer>::MemPooler<CBuffer>
EXTRN	__imp__InitializeCriticalSectionAndSpinCount@8:NEAR
;	COMDAT xdata$x
; File c:\program files\microsoft visual studio .net 2003\vc7\include\xmemory
xdata$x	SEGMENT
$T189826 DD	0ffffffffH
	DD	FLAT:$L189734
$T189824 DD	019930520H
	DD	01H
	DD	FLAT:$T189826
	DD	2 DUP(00H)
	DD	2 DUP(00H)
; Function compile flags: /Ogty
; File c:\documents and settings\test\mes documents\source\virtuos_v17\build\program\_network\misc\include\mempooler.h
xdata$x	ENDS
;	COMDAT ??0?$MemPooler@VCBuffer@@@@QAE@H@Z
_TEXT	SEGMENT
_this$ = -16						; size = 4
__$EHRec$ = -12						; size = 12
_nNumOfBlock$ = 8					; size = 4
??0?$MemPooler@VCBuffer@@@@QAE@H@Z PROC NEAR		; MemPooler<CBuffer>::MemPooler<CBuffer>, COMDAT
; _this$ = ecx

; 39   : 		{

  00000	6a ff		 push	 -1
  00002	68 00 00 00 00	 push	 __ehhandler$??0?$MemPooler@VCBuffer@@@@QAE@H@Z
  00007	64 a1 00 00 00
	00		 mov	 eax, DWORD PTR fs:__except_list
  0000d	50		 push	 eax
  0000e	64 89 25 00 00
	00 00		 mov	 DWORD PTR fs:__except_list, esp
  00015	51		 push	 ecx
  00016	56		 push	 esi
  00017	8b f1		 mov	 esi, ecx
  00019	57		 push	 edi
  0001a	8d 7e 04	 lea	 edi, DWORD PTR [esi+4]
  0001d	8b cf		 mov	 ecx, edi
  0001f	89 74 24 08	 mov	 DWORD PTR _this$[esp+24], esi
  00023	c7 06 00 00 00
	00		 mov	 DWORD PTR [esi], 0
  00029	e8 00 00 00 00	 call	 ?_Buynode@?$list@PAXV?$allocator@PAX@std@@@std@@IAEPAU_Node@?$_List_nod@PAXV?$allocator@PAX@std@@@2@XZ ; std::list<void *,std::allocator<void *> >::_Buynode
  0002e	89 47 04	 mov	 DWORD PTR [edi+4], eax
  00031	c7 47 08 00 00
	00 00		 mov	 DWORD PTR [edi+8], 0
  00038	8b 44 24 1c	 mov	 eax, DWORD PTR _nNumOfBlock$[esp+20]

; 40   : #ifdef __VERIFY_MEMPOOL
; 41   : 			return;
; 42   : #endif
; 43   : #ifdef __VM_0819
; 44   : 			strcpy( m_szClass, szClass );
; 45   : #endif	// __VM_0819
; 46   : 			assert( nNumOfBlock > 0 );
; 47   : 			m_nListBlockSize	= sizeof(BlockNode) + sizeof(T);
; 48   : 			InitializeCriticalSectionAndSpinCount( &m_cs, 2000 );

  0003c	68 d0 07 00 00	 push	 2000			; 000007d0H
  00041	8d 4e 1c	 lea	 ecx, DWORD PTR [esi+28]
  00044	51		 push	 ecx
  00045	c7 44 24 1c 00
	00 00 00	 mov	 DWORD PTR __$EHRec$[esp+40], 0
  0004d	89 46 10	 mov	 DWORD PTR [esi+16], eax
  00050	c7 46 18 00 00
	00 00		 mov	 DWORD PTR [esi+24], 0
  00057	c7 46 14 2c 20
	00 00		 mov	 DWORD PTR [esi+20], 8236 ; 0000202cH
  0005e	ff 15 00 00 00
	00		 call	 DWORD PTR __imp__InitializeCriticalSectionAndSpinCount@8

; 49   : 			Create();

  00064	8b ce		 mov	 ecx, esi
  00066	e8 00 00 00 00	 call	 ?Create@?$MemPooler@VCBuffer@@@@IAEXXZ ; MemPooler<CBuffer>::Create

; 50   : 		}

  0006b	8b 4c 24 0c	 mov	 ecx, DWORD PTR __$EHRec$[esp+24]
  0006f	5f		 pop	 edi
  00070	8b c6		 mov	 eax, esi
  00072	5e		 pop	 esi
  00073	64 89 0d 00 00
	00 00		 mov	 DWORD PTR fs:__except_list, ecx
  0007a	83 c4 10	 add	 esp, 16			; 00000010H
  0007d	c2 04 00	 ret	 4
_TEXT	ENDS
;	COMDAT text$x
text$x	SEGMENT
$L189734:
  00000	8b 4d f0	 mov	 ecx, DWORD PTR _this$[ebp]
  00003	83 c1 04	 add	 ecx, 4
  00006	e9 00 00 00 00	 jmp	 ??1?$list@PAXV?$allocator@PAX@std@@@std@@QAE@XZ ; std::list<void *,std::allocator<void *> >::~list<void *,std::allocator<void *> >
__ehhandler$??0?$MemPooler@VCBuffer@@@@QAE@H@Z:
  0000b	b8 00 00 00 00	 mov	 eax, OFFSET FLAT:$T189824
  00010	e9 00 00 00 00	 jmp	 ___CxxFrameHandler
text$x	ENDS
??0?$MemPooler@VCBuffer@@@@QAE@H@Z ENDP			; MemPooler<CBuffer>::MemPooler<CBuffer>
PUBLIC	??0?$MemPooler@VCBuffer2@@@@QAE@H@Z		; MemPooler<CBuffer2>::MemPooler<CBuffer2>
;	COMDAT xdata$x
; File c:\program files\microsoft visual studio .net 2003\vc7\include\xmemory
xdata$x	SEGMENT
$T189923 DD	0ffffffffH
	DD	FLAT:$L189831
$T189921 DD	019930520H
	DD	01H
	DD	FLAT:$T189923
	DD	2 DUP(00H)
	DD	2 DUP(00H)
; Function compile flags: /Ogty
; File c:\documents and settings\test\mes documents\source\virtuos_v17\build\program\_network\misc\include\mempooler.h
xdata$x	ENDS
;	COMDAT ??0?$MemPooler@VCBuffer2@@@@QAE@H@Z
_TEXT	SEGMENT
_this$ = -16						; size = 4
__$EHRec$ = -12						; size = 12
_nNumOfBlock$ = 8					; size = 4
??0?$MemPooler@VCBuffer2@@@@QAE@H@Z PROC NEAR		; MemPooler<CBuffer2>::MemPooler<CBuffer2>, COMDAT
; _this$ = ecx

; 39   : 		{

  00000	6a ff		 push	 -1
  00002	68 00 00 00 00	 push	 __ehhandler$??0?$MemPooler@VCBuffer2@@@@QAE@H@Z
  00007	64 a1 00 00 00
	00		 mov	 eax, DWORD PTR fs:__except_list
  0000d	50		 push	 eax
  0000e	64 89 25 00 00
	00 00		 mov	 DWORD PTR fs:__except_list, esp
  00015	51		 push	 ecx
  00016	56		 push	 esi
  00017	8b f1		 mov	 esi, ecx
  00019	57		 push	 edi
  0001a	8d 7e 04	 lea	 edi, DWORD PTR [esi+4]
  0001d	8b cf		 mov	 ecx, edi
  0001f	89 74 24 08	 mov	 DWORD PTR _this$[esp+24], esi
  00023	c7 06 00 00 00
	00		 mov	 DWORD PTR [esi], 0
  00029	e8 00 00 00 00	 call	 ?_Buynode@?$list@PAXV?$allocator@PAX@std@@@std@@IAEPAU_Node@?$_List_nod@PAXV?$allocator@PAX@std@@@2@XZ ; std::list<void *,std::allocator<void *> >::_Buynode
  0002e	89 47 04	 mov	 DWORD PTR [edi+4], eax
  00031	c7 47 08 00 00
	00 00		 mov	 DWORD PTR [edi+8], 0
  00038	8b 44 24 1c	 mov	 eax, DWORD PTR _nNumOfBlock$[esp+20]

; 40   : #ifdef __VERIFY_MEMPOOL
; 41   : 			return;
; 42   : #endif
; 43   : #ifdef __VM_0819
; 44   : 			strcpy( m_szClass, szClass );
; 45   : #endif	// __VM_0819
; 46   : 			assert( nNumOfBlock > 0 );
; 47   : 			m_nListBlockSize	= sizeof(BlockNode) + sizeof(T);
; 48   : 			InitializeCriticalSectionAndSpinCount( &m_cs, 2000 );

  0003c	68 d0 07 00 00	 push	 2000			; 000007d0H
  00041	8d 4e 1c	 lea	 ecx, DWORD PTR [esi+28]
  00044	51		 push	 ecx
  00045	c7 44 24 1c 00
	00 00 00	 mov	 DWORD PTR __$EHRec$[esp+40], 0
  0004d	89 46 10	 mov	 DWORD PTR [esi+16], eax
  00050	c7 46 18 00 00
	00 00		 mov	 DWORD PTR [esi+24], 0
  00057	c7 46 14 2c 20
	00 00		 mov	 DWORD PTR [esi+20], 8236 ; 0000202cH
  0005e	ff 15 00 00 00
	00		 call	 DWORD PTR __imp__InitializeCriticalSectionAndSpinCount@8

; 49   : 			Create();

  00064	8b ce		 mov	 ecx, esi
  00066	e8 00 00 00 00	 call	 ?Create@?$MemPooler@VCBuffer2@@@@IAEXXZ ; MemPooler<CBuffer2>::Create

; 50   : 		}

  0006b	8b 4c 24 0c	 mov	 ecx, DWORD PTR __$EHRec$[esp+24]
  0006f	5f		 pop	 edi
  00070	8b c6		 mov	 eax, esi
  00072	5e		 pop	 esi
  00073	64 89 0d 00 00
	00 00		 mov	 DWORD PTR fs:__except_list, ecx
  0007a	83 c4 10	 add	 esp, 16			; 00000010H
  0007d	c2 04 00	 ret	 4
_TEXT	ENDS
;	COMDAT text$x
text$x	SEGMENT
$L189831:
  00000	8b 4d f0	 mov	 ecx, DWORD PTR _this$[ebp]
  00003	83 c1 04	 add	 ecx, 4
  00006	e9 00 00 00 00	 jmp	 ??1?$list@PAXV?$allocator@PAX@std@@@std@@QAE@XZ ; std::list<void *,std::allocator<void *> >::~list<void *,std::allocator<void *> >
__ehhandler$??0?$MemPooler@VCBuffer2@@@@QAE@H@Z:
  0000b	b8 00 00 00 00	 mov	 eax, OFFSET FLAT:$T189921
  00010	e9 00 00 00 00	 jmp	 ___CxxFrameHandler
text$x	ENDS
??0?$MemPooler@VCBuffer2@@@@QAE@H@Z ENDP		; MemPooler<CBuffer2>::MemPooler<CBuffer2>
PUBLIC	?Alloc@?$MemPooler@VCBuffer@@@@QAEPAVCBuffer@@XZ ; MemPooler<CBuffer>::Alloc
; Function compile flags: /Ogty
;	COMDAT ?Alloc@?$MemPooler@VCBuffer@@@@QAEPAVCBuffer@@XZ
_TEXT	SEGMENT
?Alloc@?$MemPooler@VCBuffer@@@@QAEPAVCBuffer@@XZ PROC NEAR ; MemPooler<CBuffer>::Alloc, COMDAT
; _this$ = ecx

; 56   : 		{

  00000	53		 push	 ebx
  00001	56		 push	 esi
  00002	8b f1		 mov	 esi, ecx
  00004	57		 push	 edi

; 57   : #ifdef __VERIFY_MEMPOOL
; 58   : 			return (T*) ::operator new( sizeof(T) );
; 59   : #endif
; 60   : 
; 61   : 			BlockNode* pNode	= NULL;
; 62   : 			T* lpMem	= NULL;
; 63   : 
; 64   : 			EnterCriticalSection( &m_cs );

  00005	8d 5e 1c	 lea	 ebx, DWORD PTR [esi+28]
  00008	53		 push	 ebx
  00009	ff 15 00 00 00
	00		 call	 DWORD PTR __imp__EnterCriticalSection@4

; 65   : 
; 66   : 			if( !m_pFreeList )

  0000f	83 3e 00	 cmp	 DWORD PTR [esi], 0
  00012	75 07		 jne	 SHORT $L183645

; 67   : 				Create();

  00014	8b ce		 mov	 ecx, esi
  00016	e8 00 00 00 00	 call	 ?Create@?$MemPooler@VCBuffer@@@@IAEXXZ ; MemPooler<CBuffer>::Create
$L183645:

; 68   : 
; 69   : 			pNode	= m_pFreeList;

  0001b	8b 3e		 mov	 edi, DWORD PTR [esi]

; 70   : 			m_pFreeList		= m_pFreeList->pNext;
; 71   : 			m_nAllocCount++;

  0001d	8b 4e 18	 mov	 ecx, DWORD PTR [esi+24]
  00020	8b 07		 mov	 eax, DWORD PTR [edi]
  00022	41		 inc	 ecx

; 72   : 			lpMem	= reinterpret_cast<T*>( pNode + 1 );
; 73   : 
; 74   : 			LeaveCriticalSection( &m_cs );

  00023	53		 push	 ebx
  00024	89 06		 mov	 DWORD PTR [esi], eax
  00026	89 4e 18	 mov	 DWORD PTR [esi+24], ecx
  00029	ff 15 00 00 00
	00		 call	 DWORD PTR __imp__LeaveCriticalSection@4
  0002f	8d 47 04	 lea	 eax, DWORD PTR [edi+4]
  00032	5f		 pop	 edi
  00033	5e		 pop	 esi
  00034	5b		 pop	 ebx

; 75   : 
; 76   : 			return lpMem;
; 77   : 		}

  00035	c3		 ret	 0
?Alloc@?$MemPooler@VCBuffer@@@@QAEPAVCBuffer@@XZ ENDP	; MemPooler<CBuffer>::Alloc
_TEXT	ENDS
PUBLIC	?Alloc@?$MemPooler@VCBuffer2@@@@QAEPAVCBuffer2@@XZ ; MemPooler<CBuffer2>::Alloc
; Function compile flags: /Ogty
;	COMDAT ?Alloc@?$MemPooler@VCBuffer2@@@@QAEPAVCBuffer2@@XZ
_TEXT	SEGMENT
?Alloc@?$MemPooler@VCBuffer2@@@@QAEPAVCBuffer2@@XZ PROC NEAR ; MemPooler<CBuffer2>::Alloc, COMDAT
; _this$ = ecx

; 56   : 		{

  00000	53		 push	 ebx
  00001	56		 push	 esi
  00002	8b f1		 mov	 esi, ecx
  00004	57		 push	 edi

; 57   : #ifdef __VERIFY_MEMPOOL
; 58   : 			return (T*) ::operator new( sizeof(T) );
; 59   : #endif
; 60   : 
; 61   : 			BlockNode* pNode	= NULL;
; 62   : 			T* lpMem	= NULL;
; 63   : 
; 64   : 			EnterCriticalSection( &m_cs );

  00005	8d 5e 1c	 lea	 ebx, DWORD PTR [esi+28]
  00008	53		 push	 ebx
  00009	ff 15 00 00 00
	00		 call	 DWORD PTR __imp__EnterCriticalSection@4

; 65   : 
; 66   : 			if( !m_pFreeList )

  0000f	83 3e 00	 cmp	 DWORD PTR [esi], 0
  00012	75 07		 jne	 SHORT $L183664

; 67   : 				Create();

  00014	8b ce		 mov	 ecx, esi
  00016	e8 00 00 00 00	 call	 ?Create@?$MemPooler@VCBuffer2@@@@IAEXXZ ; MemPooler<CBuffer2>::Create
$L183664:

; 68   : 
; 69   : 			pNode	= m_pFreeList;

  0001b	8b 3e		 mov	 edi, DWORD PTR [esi]

; 70   : 			m_pFreeList		= m_pFreeList->pNext;
; 71   : 			m_nAllocCount++;

  0001d	8b 4e 18	 mov	 ecx, DWORD PTR [esi+24]
  00020	8b 07		 mov	 eax, DWORD PTR [edi]
  00022	41		 inc	 ecx

; 72   : 			lpMem	= reinterpret_cast<T*>( pNode + 1 );
; 73   : 
; 74   : 			LeaveCriticalSection( &m_cs );

  00023	53		 push	 ebx
  00024	89 06		 mov	 DWORD PTR [esi], eax
  00026	89 4e 18	 mov	 DWORD PTR [esi+24], ecx
  00029	ff 15 00 00 00
	00		 call	 DWORD PTR __imp__LeaveCriticalSection@4
  0002f	8d 47 04	 lea	 eax, DWORD PTR [edi+4]
  00032	5f		 pop	 edi
  00033	5e		 pop	 esi
  00034	5b		 pop	 ebx

; 75   : 
; 76   : 			return lpMem;
; 77   : 		}

  00035	c3		 ret	 0
?Alloc@?$MemPooler@VCBuffer2@@@@QAEPAVCBuffer2@@XZ ENDP	; MemPooler<CBuffer2>::Alloc
_TEXT	ENDS
PUBLIC	??2CBuffer@@SAPAXI@Z				; CBuffer::operator new
; Function compile flags: /Ogty
; File c:\documents and settings\test\mes documents\source\virtuos_v17\build\program\_network\net\include\buffer.h
;	COMDAT ??2CBuffer@@SAPAXI@Z
_TEXT	SEGMENT
_nSize$ = 8						; size = 4
??2CBuffer@@SAPAXI@Z PROC NEAR				; CBuffer::operator new, COMDAT

; 88   : 	void*	operator new( size_t nSize )	{	return CBuffer::m_pPool->Alloc();	}

  00000	53		 push	 ebx
  00001	56		 push	 esi
  00002	8b 35 00 00 00
	00		 mov	 esi, DWORD PTR ?m_pPool@CBuffer@@2PAV?$MemPooler@VCBuffer@@@@A ; CBuffer::m_pPool
  00008	57		 push	 edi
  00009	8d 5e 1c	 lea	 ebx, DWORD PTR [esi+28]
  0000c	53		 push	 ebx
  0000d	ff 15 00 00 00
	00		 call	 DWORD PTR __imp__EnterCriticalSection@4
  00013	83 3e 00	 cmp	 DWORD PTR [esi], 0
  00016	75 07		 jne	 SHORT $L189936
  00018	8b ce		 mov	 ecx, esi
  0001a	e8 00 00 00 00	 call	 ?Create@?$MemPooler@VCBuffer@@@@IAEXXZ ; MemPooler<CBuffer>::Create
$L189936:
  0001f	8b 3e		 mov	 edi, DWORD PTR [esi]
  00021	8b 4e 18	 mov	 ecx, DWORD PTR [esi+24]
  00024	8b 07		 mov	 eax, DWORD PTR [edi]
  00026	41		 inc	 ecx
  00027	53		 push	 ebx
  00028	89 06		 mov	 DWORD PTR [esi], eax
  0002a	89 4e 18	 mov	 DWORD PTR [esi+24], ecx
  0002d	ff 15 00 00 00
	00		 call	 DWORD PTR __imp__LeaveCriticalSection@4
  00033	8d 47 04	 lea	 eax, DWORD PTR [edi+4]
  00036	5f		 pop	 edi
  00037	5e		 pop	 esi
  00038	5b		 pop	 ebx
  00039	c3		 ret	 0
??2CBuffer@@SAPAXI@Z ENDP				; CBuffer::operator new
_TEXT	ENDS
PUBLIC	??2CBuffer2@@SAPAXI@Z				; CBuffer2::operator new
; Function compile flags: /Ogty
;	COMDAT ??2CBuffer2@@SAPAXI@Z
_TEXT	SEGMENT
_nSize$ = 8						; size = 4
??2CBuffer2@@SAPAXI@Z PROC NEAR				; CBuffer2::operator new, COMDAT

; 157  : 	void*	operator new( size_t nSize )	{	return CBuffer2::m_pPool2->Alloc();	}

  00000	53		 push	 ebx
  00001	56		 push	 esi
  00002	8b 35 00 00 00
	00		 mov	 esi, DWORD PTR ?m_pPool2@CBuffer2@@2PAV?$MemPooler@VCBuffer2@@@@A ; CBuffer2::m_pPool2
  00008	57		 push	 edi
  00009	8d 5e 1c	 lea	 ebx, DWORD PTR [esi+28]
  0000c	53		 push	 ebx
  0000d	ff 15 00 00 00
	00		 call	 DWORD PTR __imp__EnterCriticalSection@4
  00013	83 3e 00	 cmp	 DWORD PTR [esi], 0
  00016	75 07		 jne	 SHORT $L189945
  00018	8b ce		 mov	 ecx, esi
  0001a	e8 00 00 00 00	 call	 ?Create@?$MemPooler@VCBuffer2@@@@IAEXXZ ; MemPooler<CBuffer2>::Create
$L189945:
  0001f	8b 3e		 mov	 edi, DWORD PTR [esi]
  00021	8b 4e 18	 mov	 ecx, DWORD PTR [esi+24]
  00024	8b 07		 mov	 eax, DWORD PTR [edi]
  00026	41		 inc	 ecx
  00027	53		 push	 ebx
  00028	89 06		 mov	 DWORD PTR [esi], eax
  0002a	89 4e 18	 mov	 DWORD PTR [esi+24], ecx
  0002d	ff 15 00 00 00
	00		 call	 DWORD PTR __imp__LeaveCriticalSection@4
  00033	8d 47 04	 lea	 eax, DWORD PTR [edi+4]
  00036	5f		 pop	 edi
  00037	5e		 pop	 esi
  00038	5b		 pop	 ebx
  00039	c3		 ret	 0
??2CBuffer2@@SAPAXI@Z ENDP				; CBuffer2::operator new
_TEXT	ENDS
PUBLIC	?CreateBuffer@CBufferFactory@@QAEPAVCBuffer@@W4BUFFER_TYPE@@K@Z ; CBufferFactory::CreateBuffer
;	COMDAT xdata$x
xdata$x	SEGMENT
$T189999 DD	0ffffffffH
	DD	FLAT:$L189958
	DD	0ffffffffH
	DD	FLAT:$L189959
$T189995 DD	019930520H
	DD	02H
	DD	FLAT:$T189999
	DD	2 DUP(00H)
	DD	2 DUP(00H)
; Function compile flags: /Ogty
; File c:\documents and settings\test\mes documents\source\virtuos_v17\build\program\_network\net\src\buffer.cpp
xdata$x	ENDS
;	COMDAT ?CreateBuffer@CBufferFactory@@QAEPAVCBuffer@@W4BUFFER_TYPE@@K@Z
_TEXT	SEGMENT
__$EHRec$ = -12						; size = 12
$T189955 = 8						; size = 4
$T189951 = 8						; size = 4
_type$ = 8						; size = 4
_uBufSize$ = 12						; size = 4
?CreateBuffer@CBufferFactory@@QAEPAVCBuffer@@W4BUFFER_TYPE@@K@Z PROC NEAR ; CBufferFactory::CreateBuffer, COMDAT
; _this$ = ecx

; 280  : {

  00000	64 a1 00 00 00
	00		 mov	 eax, DWORD PTR fs:__except_list

; 281  : 	CBuffer* pBuffer = NULL;
; 282  : 	switch( type )

  00006	8b 4c 24 04	 mov	 ecx, DWORD PTR _type$[esp-4]
  0000a	6a ff		 push	 -1
  0000c	68 00 00 00 00	 push	 __ehhandler$?CreateBuffer@CBufferFactory@@QAEPAVCBuffer@@W4BUFFER_TYPE@@K@Z
  00011	50		 push	 eax
  00012	64 89 25 00 00
	00 00		 mov	 DWORD PTR fs:__except_list, esp
  00019	33 c0		 xor	 eax, eax
  0001b	2b c8		 sub	 ecx, eax
  0001d	56		 push	 esi
  0001e	57		 push	 edi
  0001f	74 7f		 je	 SHORT $L186842
  00021	49		 dec	 ecx
  00022	0f 85 dc 00 00
	00		 jne	 $L186839

; 286  : 		break;
; 287  : 	case BUFFER_TYPE_2BYTE:
; 288  : 		pBuffer = new CBuffer2( uBufSize );

  00028	8b 35 00 00 00
	00		 mov	 esi, DWORD PTR ?m_pPool2@CBuffer2@@2PAV?$MemPooler@VCBuffer2@@@@A ; CBuffer2::m_pPool2
  0002e	8d 7e 1c	 lea	 edi, DWORD PTR [esi+28]
  00031	57		 push	 edi
  00032	ff 15 00 00 00
	00		 call	 DWORD PTR __imp__EnterCriticalSection@4
  00038	83 3e 00	 cmp	 DWORD PTR [esi], 0
  0003b	75 07		 jne	 SHORT $L189987
  0003d	8b ce		 mov	 ecx, esi
  0003f	e8 00 00 00 00	 call	 ?Create@?$MemPooler@VCBuffer2@@@@IAEXXZ ; MemPooler<CBuffer2>::Create
$L189987:
  00044	8b 06		 mov	 eax, DWORD PTR [esi]
  00046	8b 56 18	 mov	 edx, DWORD PTR [esi+24]
  00049	8b 08		 mov	 ecx, DWORD PTR [eax]
  0004b	42		 inc	 edx
  0004c	89 0e		 mov	 DWORD PTR [esi], ecx
  0004e	89 56 18	 mov	 DWORD PTR [esi+24], edx
  00051	57		 push	 edi
  00052	8d 70 04	 lea	 esi, DWORD PTR [eax+4]
  00055	ff 15 00 00 00
	00		 call	 DWORD PTR __imp__LeaveCriticalSection@4
  0005b	89 74 24 18	 mov	 DWORD PTR $T189955[esp+16], esi
  0005f	85 f6		 test	 esi, esi
  00061	c7 44 24 10 01
	00 00 00	 mov	 DWORD PTR __$EHRec$[esp+28], 1
  00069	0f 84 93 00 00
	00		 je	 $L189952
  0006f	8b 54 24 1c	 mov	 edx, DWORD PTR _uBufSize$[esp+16]
  00073	52		 push	 edx
  00074	8b ce		 mov	 ecx, esi
  00076	e8 00 00 00 00	 call	 ??0CBuffer@@QAE@K@Z	; CBuffer::CBuffer
  0007b	c7 06 00 00 00
	00		 mov	 DWORD PTR [esi], OFFSET FLAT:??_7CBuffer2@@6B@
  00081	c7 86 24 20 00
	00 02 00 00 00	 mov	 DWORD PTR [esi+8228], 2
  0008b	8b c6		 mov	 eax, esi

; 289  : 		break;
; 290  : 	default:
; 291  : 		ASSERT(0);
; 292  : 		break;
; 293  : 	}
; 294  : 	return pBuffer;
; 295  : }

  0008d	8b 4c 24 08	 mov	 ecx, DWORD PTR __$EHRec$[esp+20]
  00091	64 89 0d 00 00
	00 00		 mov	 DWORD PTR fs:__except_list, ecx
  00098	5f		 pop	 edi
  00099	5e		 pop	 esi
  0009a	83 c4 0c	 add	 esp, 12			; 0000000cH
  0009d	c2 08 00	 ret	 8
$L186842:

; 283  : 	{
; 284  : 	case BUFFER_TYPE_5BYTE:
; 285  : 		pBuffer = new CBuffer( uBufSize );

  000a0	8b 35 00 00 00
	00		 mov	 esi, DWORD PTR ?m_pPool@CBuffer@@2PAV?$MemPooler@VCBuffer@@@@A ; CBuffer::m_pPool
  000a6	8d 7e 1c	 lea	 edi, DWORD PTR [esi+28]
  000a9	57		 push	 edi
  000aa	ff 15 00 00 00
	00		 call	 DWORD PTR __imp__EnterCriticalSection@4
  000b0	83 3e 00	 cmp	 DWORD PTR [esi], 0
  000b3	75 07		 jne	 SHORT $L189972
  000b5	8b ce		 mov	 ecx, esi
  000b7	e8 00 00 00 00	 call	 ?Create@?$MemPooler@VCBuffer@@@@IAEXXZ ; MemPooler<CBuffer>::Create
$L189972:
  000bc	8b 06		 mov	 eax, DWORD PTR [esi]
  000be	8b 56 18	 mov	 edx, DWORD PTR [esi+24]
  000c1	8b 08		 mov	 ecx, DWORD PTR [eax]
  000c3	42		 inc	 edx
  000c4	89 0e		 mov	 DWORD PTR [esi], ecx
  000c6	89 56 18	 mov	 DWORD PTR [esi+24], edx
  000c9	57		 push	 edi
  000ca	8d 70 04	 lea	 esi, DWORD PTR [eax+4]
  000cd	ff 15 00 00 00
	00		 call	 DWORD PTR __imp__LeaveCriticalSection@4
  000d3	89 74 24 18	 mov	 DWORD PTR $T189951[esp+16], esi
  000d7	85 f6		 test	 esi, esi
  000d9	c7 44 24 10 00
	00 00 00	 mov	 DWORD PTR __$EHRec$[esp+28], 0
  000e1	74 1f		 je	 SHORT $L189952
  000e3	8b 54 24 1c	 mov	 edx, DWORD PTR _uBufSize$[esp+16]
  000e7	52		 push	 edx
  000e8	8b ce		 mov	 ecx, esi
  000ea	e8 00 00 00 00	 call	 ??0CBuffer@@QAE@K@Z	; CBuffer::CBuffer

; 289  : 		break;
; 290  : 	default:
; 291  : 		ASSERT(0);
; 292  : 		break;
; 293  : 	}
; 294  : 	return pBuffer;
; 295  : }

  000ef	8b 4c 24 08	 mov	 ecx, DWORD PTR __$EHRec$[esp+20]
  000f3	64 89 0d 00 00
	00 00		 mov	 DWORD PTR fs:__except_list, ecx
  000fa	5f		 pop	 edi
  000fb	5e		 pop	 esi
  000fc	83 c4 0c	 add	 esp, 12			; 0000000cH
  000ff	c2 08 00	 ret	 8
$L189952:

; 283  : 	{
; 284  : 	case BUFFER_TYPE_5BYTE:
; 285  : 		pBuffer = new CBuffer( uBufSize );

  00102	33 c0		 xor	 eax, eax
$L186839:

; 289  : 		break;
; 290  : 	default:
; 291  : 		ASSERT(0);
; 292  : 		break;
; 293  : 	}
; 294  : 	return pBuffer;
; 295  : }

  00104	8b 4c 24 08	 mov	 ecx, DWORD PTR __$EHRec$[esp+20]
  00108	5f		 pop	 edi
  00109	64 89 0d 00 00
	00 00		 mov	 DWORD PTR fs:__except_list, ecx
  00110	5e		 pop	 esi
  00111	83 c4 0c	 add	 esp, 12			; 0000000cH
  00114	c2 08 00	 ret	 8
_TEXT	ENDS
;	COMDAT text$x
text$x	SEGMENT
$L189959:
  00000	8b 45 04	 mov	 eax, DWORD PTR $T189955[ebp-4]
  00003	50		 push	 eax
  00004	e8 00 00 00 00	 call	 ??3CBuffer2@@SAXPAX@Z	; CBuffer2::operator delete
  00009	59		 pop	 ecx
  0000a	c3		 ret	 0
$L189958:
  0000b	8b 45 04	 mov	 eax, DWORD PTR $T189951[ebp-4]
  0000e	50		 push	 eax
  0000f	e8 00 00 00 00	 call	 ??3CBuffer@@SAXPAX@Z	; CBuffer::operator delete
  00014	59		 pop	 ecx
  00015	c3		 ret	 0
__ehhandler$?CreateBuffer@CBufferFactory@@QAEPAVCBuffer@@W4BUFFER_TYPE@@K@Z:
  00016	b8 00 00 00 00	 mov	 eax, OFFSET FLAT:$T189995
  0001b	e9 00 00 00 00	 jmp	 ___CxxFrameHandler
text$x	ENDS
?CreateBuffer@CBufferFactory@@QAEPAVCBuffer@@W4BUFFER_TYPE@@K@Z ENDP ; CBufferFactory::CreateBuffer
PUBLIC	?AddData@CBufferQueue@@QAEXPAEKW4BUFFER_TYPE@@@Z ; CBufferQueue::AddData
; Function compile flags: /Ogty
;	COMDAT ?AddData@CBufferQueue@@QAEXPAEKW4BUFFER_TYPE@@@Z
_TEXT	SEGMENT
tv227 = -8						; size = 4
_this$ = -4						; size = 4
_lpData$ = 8						; size = 4
_uDataSize$ = 12					; size = 4
_type$ = 16						; size = 4
?AddData@CBufferQueue@@QAEXPAEKW4BUFFER_TYPE@@@Z PROC NEAR ; CBufferQueue::AddData, COMDAT
; _this$ = ecx

; 117  : {

  00000	83 ec 08	 sub	 esp, 8
  00003	53		 push	 ebx
  00004	55		 push	 ebp
  00005	56		 push	 esi
  00006	8b f1		 mov	 esi, ecx

; 118  : //	CMclAutoLock	Lock( m_cs );
; 119  : 	u_long	uRemnant	= uDataSize;
; 120  : 	CBuffer* pBuffer	= GetTail();

  00008	8b 6e 08	 mov	 ebp, DWORD PTR [esi+8]

; 121  : 	LPBYTE ptr;
; 122  : 	int cb;
; 123  : 
; 124  : 	if( pBuffer )

  0000b	85 ed		 test	 ebp, ebp
  0000d	57		 push	 edi
  0000e	89 74 24 14	 mov	 DWORD PTR _this$[esp+24], esi
  00012	74 24		 je	 SHORT $L186780

; 125  : 	{
; 126  : 		cb	= pBuffer->GetWritableBufferSize();

  00014	8b 85 10 20 00
	00		 mov	 eax, DWORD PTR [ebp+8208]
  0001a	8b 95 18 20 00
	00		 mov	 edx, DWORD PTR [ebp+8216]

; 127  : #ifdef __CRC
; 128  : 		if( cb < (int)( m_dwWriteHeaderSize ) )
; 129  : #else	// __CRC
; 130  : 		if( cb < (int)( pBuffer->GetHeaderLength() ) )

  00020	8b 8d 24 20 00
	00		 mov	 ecx, DWORD PTR [ebp+8228]
  00026	2b c2		 sub	 eax, edx
  00028	3b c1		 cmp	 eax, ecx
  0002a	7d 2c		 jge	 SHORT $L190028

; 131  : #endif	// __CRC
; 132  : 		{
; 133  : 			pBuffer	= CBufferFactory::GetInstance().CreateBuffer( type );

  0002c	8b 4c 24 24	 mov	 ecx, DWORD PTR _type$[esp+20]
  00030	68 00 20 00 00	 push	 8192			; 00002000H
  00035	51		 push	 ecx

; 134  : 			AddTail( pBuffer );
; 135  : 		}
; 136  : 	}
; 137  : 	else

  00036	eb 0a		 jmp	 SHORT $L190030
$L186780:

; 138  : 	{
; 139  : 		pBuffer	= CBufferFactory::GetInstance().CreateBuffer( type );

  00038	8b 54 24 24	 mov	 edx, DWORD PTR _type$[esp+20]
  0003c	68 00 20 00 00	 push	 8192			; 00002000H
  00041	52		 push	 edx
$L190030:
  00042	e8 00 00 00 00	 call	 ?GetInstance@CBufferFactory@@SAAAV1@XZ ; CBufferFactory::GetInstance
  00047	8b c8		 mov	 ecx, eax
  00049	e8 00 00 00 00	 call	 ?CreateBuffer@CBufferFactory@@QAEPAVCBuffer@@W4BUFFER_TYPE@@K@Z ; CBufferFactory::CreateBuffer
  0004e	8b e8		 mov	 ebp, eax

; 140  : 		AddTail( pBuffer );

  00050	8b ce		 mov	 ecx, esi
  00052	55		 push	 ebp
  00053	e8 00 00 00 00	 call	 ?AddTail@CBufferQueue@@QAEXPAVCBuffer@@@Z ; CBufferQueue::AddTail
$L190028:

; 141  : 	}
; 142  : 	
; 143  : 	ptr	= pBuffer->GetWritableBuffer( &cb );

  00058	8b b5 18 20 00
	00		 mov	 esi, DWORD PTR [ebp+8216]
  0005e	8b 9d 10 20 00
	00		 mov	 ebx, DWORD PTR [ebp+8208]

; 144  : 
; 145  : #ifdef __CRC
; 146  : //	header
; 147  : 	*ptr	= HEADERMARK;
; 148  : 
; 149  : 	if( m_pcrc )
; 150  : 	{
; 151  : 		BYTE digest[sizeof(DWORD)];
; 152  : 		m_pcrc->Restart();
; 153  : 		m_pcrc->Update( (const byte*)( &uDataSize ), sizeof(u_long) );
; 154  : 		m_pcrc->Final( digest );
; 155  : 		int nOffset	= sizeof(char);
; 156  : #ifdef __PACKET_REPLAY_W
; 157  : 		*(UNALIGNED int*)( ptr + nOffset )		= ++m_nPacket;
; 158  : 		nOffset	+= sizeof(int);
; 159  : 		*(UNALIGNED DWORD*)( ptr + nOffset )	= ~( *(UNALIGNED DWORD*)digest ^ ( *m_pdwProtocolId + m_nPacket ) );
; 160  : #else	// __PACKET_REPLAY_W
; 161  : 		*(UNALIGNED DWORD*)( ptr + nOffset )	= ~( *(UNALIGNED DWORD*)digest ^ *m_pdwProtocolId );
; 162  : #endif	// __PACKET_REPLAY_W
; 163  : 		nOffset	+= sizeof(DWORD);
; 164  : 		*(UNALIGNED DWORD*)( ptr + nOffset )	= (DWORD)uDataSize;
; 165  : 		nOffset	+= sizeof(DWORD);
; 166  : 		m_pcrc->Restart();
; 167  : 		m_pcrc->Update( (const byte*)( lpData ), (u_int)uDataSize );
; 168  : 		m_pcrc->Final( digest );
; 169  : #ifdef __PACKET_REPLAY_W
; 170  : 		*(UNALIGNED DWORD*)( ptr + nOffset )	= ~( *(UNALIGNED DWORD*)digest ^ ( *m_pdwProtocolId + m_nPacket ) );
; 171  : #else	// __PACKET_REPLAY_W
; 172  : 		*(UNALIGNED DWORD*)( ptr + nOffset )	= ~( *(UNALIGNED DWORD*)digest ^ *m_pdwProtocolId );
; 173  : #endif	// __PACKET_REPLAY_W
; 174  : 		nOffset	+= sizeof(DWORD);
; 175  : 	}
; 176  : 	else
; 177  : 	{
; 178  : 		*(UNALIGNED DWORD*)&ptr[1]	= (DWORD)uDataSize;
; 179  : 	}
; 180  : //	data
; 181  : 	cb	= ( cb-m_dwWriteHeaderSize < uRemnant? cb-m_dwWriteHeaderSize: uRemnant );
; 182  : 	ASSERT( &ptr[m_dwWriteHeaderSize] + cb <= pBuffer->m_lpBufMax );
; 183  : 	memcpy( (void*)&ptr[m_dwWriteHeaderSize], lpData, cb );
; 184  : 	pBuffer->m_pTail	= ptr + m_dwWriteHeaderSize + cb;
; 185  : 
; 186  : #else	// __CRC
; 187  : 
; 188  : //	header
; 189  : 	pBuffer->SetHeader( uDataSize );	

  00064	8b 45 00	 mov	 eax, DWORD PTR [ebp]
  00067	2b de		 sub	 ebx, esi
  00069	8b 74 24 20	 mov	 esi, DWORD PTR _uDataSize$[esp+20]
  0006d	56		 push	 esi
  0006e	8b cd		 mov	 ecx, ebp
  00070	ff 50 08	 call	 DWORD PTR [eax+8]

; 190  : 	cb -= pBuffer->GetHeaderLength();

  00073	2b 9d 24 20 00
	00		 sub	 ebx, DWORD PTR [ebp+8228]

; 191  : 
; 192  : 	if( cb >= (int)( uRemnant ) )

  00079	3b de		 cmp	 ebx, esi
  0007b	7c 02		 jl	 SHORT $L186785

; 193  : 		cb = uRemnant;

  0007d	8b de		 mov	 ebx, esi
$L186785:

; 194  : 
; 195  : 	memcpy( pBuffer->m_pTail, lpData, cb );

  0007f	8b bd 18 20 00
	00		 mov	 edi, DWORD PTR [ebp+8216]
  00085	8b 74 24 1c	 mov	 esi, DWORD PTR _lpData$[esp+20]
  00089	8b cb		 mov	 ecx, ebx
  0008b	8b d1		 mov	 edx, ecx
  0008d	c1 e9 02	 shr	 ecx, 2
  00090	f3 a5		 rep movsd
  00092	8b ca		 mov	 ecx, edx
  00094	83 e1 03	 and	 ecx, 3
  00097	f3 a4		 rep movsb

; 196  : 	pBuffer->m_pTail +=  cb;

  00099	01 9d 18 20 00
	00		 add	 DWORD PTR [ebp+8216], ebx

; 197  : 
; 198  : #endif	// __CRC
; 199  : 
; 200  : 	uRemnant	-= cb;

  0009f	8b 6c 24 20	 mov	 ebp, DWORD PTR _uDataSize$[esp+20]
  000a3	2b eb		 sub	 ebp, ebx

; 201  : 
; 202  : 	INIT_LOOP;
; 203  : 	while( uRemnant > 0 )

  000a5	74 6d		 je	 SHORT $L186789
  000a7	eb 07 8d a4 24
	00 00 00 00	 npad	 9
$L186788:

; 204  : 	{
; 205  : 		VERIFY_LOOP( __FILE__, __LINE__ );
; 206  : 
; 207  : 		pBuffer	= CBufferFactory::GetInstance().CreateBuffer( type );

  000b0	8b 44 24 24	 mov	 eax, DWORD PTR _type$[esp+20]
  000b4	68 00 20 00 00	 push	 8192			; 00002000H
  000b9	50		 push	 eax
  000ba	e8 00 00 00 00	 call	 ?GetInstance@CBufferFactory@@SAAAV1@XZ ; CBufferFactory::GetInstance
  000bf	8b c8		 mov	 ecx, eax
  000c1	e8 00 00 00 00	 call	 ?CreateBuffer@CBufferFactory@@QAEPAVCBuffer@@W4BUFFER_TYPE@@K@Z ; CBufferFactory::CreateBuffer

; 208  : 		ptr	= pBuffer->GetWritableBuffer( &cb );

  000c6	8b b8 18 20 00
	00		 mov	 edi, DWORD PTR [eax+8216]
  000cc	8b 98 10 20 00
	00		 mov	 ebx, DWORD PTR [eax+8208]
  000d2	2b df		 sub	 ebx, edi

; 209  : 		cb	= ( cb < (int)( uRemnant ) ? cb: uRemnant );

  000d4	3b dd		 cmp	 ebx, ebp
  000d6	89 7c 24 10	 mov	 DWORD PTR tv227[esp+24], edi
  000da	7c 02		 jl	 SHORT $L190005
  000dc	8b dd		 mov	 ebx, ebp
$L190005:

; 210  : 		
; 211  : 		memcpy( (void*)ptr, &lpData[uDataSize - uRemnant], cb );

  000de	8b 74 24 1c	 mov	 esi, DWORD PTR _lpData$[esp+20]
  000e2	8b 54 24 20	 mov	 edx, DWORD PTR _uDataSize$[esp+20]
  000e6	2b f5		 sub	 esi, ebp
  000e8	03 f2		 add	 esi, edx
  000ea	8b cb		 mov	 ecx, ebx
  000ec	8b d1		 mov	 edx, ecx
  000ee	c1 e9 02	 shr	 ecx, 2
  000f1	f3 a5		 rep movsd
  000f3	8b ca		 mov	 ecx, edx
  000f5	83 e1 03	 and	 ecx, 3
  000f8	f3 a4		 rep movsb

; 212  : 		pBuffer->m_pTail	= ptr + cb;

  000fa	8b 4c 24 10	 mov	 ecx, DWORD PTR tv227[esp+24]
  000fe	03 cb		 add	 ecx, ebx
  00100	89 88 18 20 00
	00		 mov	 DWORD PTR [eax+8216], ecx

; 213  : 		AddTail( pBuffer );

  00106	8b 4c 24 14	 mov	 ecx, DWORD PTR _this$[esp+24]
  0010a	50		 push	 eax
  0010b	e8 00 00 00 00	 call	 ?AddTail@CBufferQueue@@QAEXPAVCBuffer@@@Z ; CBufferQueue::AddTail

; 214  : 		uRemnant	-= cb;

  00110	2b eb		 sub	 ebp, ebx
  00112	75 9c		 jne	 SHORT $L186788
$L186789:
  00114	5f		 pop	 edi
  00115	5e		 pop	 esi
  00116	5d		 pop	 ebp
  00117	5b		 pop	 ebx

; 215  : 	}
; 216  : }

  00118	83 c4 08	 add	 esp, 8
  0011b	c2 0c 00	 ret	 12			; 0000000cH
?AddData@CBufferQueue@@QAEXPAEKW4BUFFER_TYPE@@@Z ENDP	; CBufferQueue::AddData
_TEXT	ENDS
CRT$XCU	SEGMENT
_$S2	DD	FLAT:_$E1
CRT$XCU	ENDS
;	COMDAT xdata$x
xdata$x	SEGMENT
$T190042 DD	0ffffffffH
	DD	FLAT:$L190037
$T190039 DD	019930520H
	DD	01H
	DD	FLAT:$T190042
	DD	2 DUP(00H)
	DD	2 DUP(00H)
; Function compile flags: /Ogty
xdata$x	ENDS
;	COMDAT _$E1
text$yc	SEGMENT
$T190034 = -16						; size = 4
__$EHRec$ = -12						; size = 12
_$E1	PROC NEAR					; COMDAT

; 25   : MemPooler<CBuffer2>*	CBuffer2::m_pPool2	= new MemPooler<CBuffer2>(512);

  00000	6a ff		 push	 -1
  00002	68 00 00 00 00	 push	 __ehhandler$_$E1
  00007	64 a1 00 00 00
	00		 mov	 eax, DWORD PTR fs:__except_list
  0000d	50		 push	 eax
  0000e	64 89 25 00 00
	00 00		 mov	 DWORD PTR fs:__except_list, esp
  00015	51		 push	 ecx
  00016	68 98 00 00 00	 push	 152			; 00000098H
  0001b	e8 00 00 00 00	 call	 ??2@YAPAXI@Z		; operator new
  00020	83 c4 04	 add	 esp, 4
  00023	89 04 24	 mov	 DWORD PTR $T190034[esp+16], eax
  00026	85 c0		 test	 eax, eax
  00028	c7 44 24 0c 00
	00 00 00	 mov	 DWORD PTR __$EHRec$[esp+24], 0
  00030	74 20		 je	 SHORT $L190035
  00032	68 00 02 00 00	 push	 512			; 00000200H
  00037	8b c8		 mov	 ecx, eax
  00039	e8 00 00 00 00	 call	 ??0?$MemPooler@VCBuffer2@@@@QAE@H@Z ; MemPooler<CBuffer2>::MemPooler<CBuffer2>
  0003e	a3 00 00 00 00	 mov	 DWORD PTR ?m_pPool2@CBuffer2@@2PAV?$MemPooler@VCBuffer2@@@@A, eax ; CBuffer2::m_pPool2
  00043	8b 4c 24 04	 mov	 ecx, DWORD PTR __$EHRec$[esp+16]
  00047	64 89 0d 00 00
	00 00		 mov	 DWORD PTR fs:__except_list, ecx
  0004e	83 c4 10	 add	 esp, 16			; 00000010H
  00051	c3		 ret	 0
$L190035:
  00052	8b 4c 24 04	 mov	 ecx, DWORD PTR __$EHRec$[esp+16]
  00056	33 c0		 xor	 eax, eax
  00058	a3 00 00 00 00	 mov	 DWORD PTR ?m_pPool2@CBuffer2@@2PAV?$MemPooler@VCBuffer2@@@@A, eax ; CBuffer2::m_pPool2
  0005d	64 89 0d 00 00
	00 00		 mov	 DWORD PTR fs:__except_list, ecx
  00064	83 c4 10	 add	 esp, 16			; 00000010H
  00067	c3		 ret	 0
text$yc	ENDS
;	COMDAT text$x
text$x	SEGMENT
$L190037:
  00000	8b 45 f0	 mov	 eax, DWORD PTR $T190034[ebp]
  00003	50		 push	 eax
  00004	e8 00 00 00 00	 call	 ??3@YAXPAX@Z		; operator delete
  00009	59		 pop	 ecx
  0000a	c3		 ret	 0
__ehhandler$_$E1:
  0000b	b8 00 00 00 00	 mov	 eax, OFFSET FLAT:$T190039
  00010	e9 00 00 00 00	 jmp	 ___CxxFrameHandler
text$x	ENDS
_$E1	ENDP
CRT$XCU	SEGMENT
_$S4	DD	FLAT:_$E3
CRT$XCU	ENDS
;	COMDAT xdata$x
xdata$x	SEGMENT
$T190056 DD	0ffffffffH
	DD	FLAT:$L190051
$T190053 DD	019930520H
	DD	01H
	DD	FLAT:$T190056
	DD	2 DUP(00H)
	DD	2 DUP(00H)
; Function compile flags: /Ogty
xdata$x	ENDS
;	COMDAT _$E3
text$yc	SEGMENT
$T190048 = -16						; size = 4
__$EHRec$ = -12						; size = 12
_$E3	PROC NEAR					; COMDAT

; 26   : MemPooler<CBuffer>*	CBuffer::m_pPool	= new MemPooler<CBuffer>(512);

  00000	6a ff		 push	 -1
  00002	68 00 00 00 00	 push	 __ehhandler$_$E3
  00007	64 a1 00 00 00
	00		 mov	 eax, DWORD PTR fs:__except_list
  0000d	50		 push	 eax
  0000e	64 89 25 00 00
	00 00		 mov	 DWORD PTR fs:__except_list, esp
  00015	51		 push	 ecx
  00016	68 98 00 00 00	 push	 152			; 00000098H
  0001b	e8 00 00 00 00	 call	 ??2@YAPAXI@Z		; operator new
  00020	83 c4 04	 add	 esp, 4
  00023	89 04 24	 mov	 DWORD PTR $T190048[esp+16], eax
  00026	85 c0		 test	 eax, eax
  00028	c7 44 24 0c 00
	00 00 00	 mov	 DWORD PTR __$EHRec$[esp+24], 0
  00030	74 20		 je	 SHORT $L190049
  00032	68 00 02 00 00	 push	 512			; 00000200H
  00037	8b c8		 mov	 ecx, eax
  00039	e8 00 00 00 00	 call	 ??0?$MemPooler@VCBuffer@@@@QAE@H@Z ; MemPooler<CBuffer>::MemPooler<CBuffer>
  0003e	a3 00 00 00 00	 mov	 DWORD PTR ?m_pPool@CBuffer@@2PAV?$MemPooler@VCBuffer@@@@A, eax ; CBuffer::m_pPool
  00043	8b 4c 24 04	 mov	 ecx, DWORD PTR __$EHRec$[esp+16]
  00047	64 89 0d 00 00
	00 00		 mov	 DWORD PTR fs:__except_list, ecx
  0004e	83 c4 10	 add	 esp, 16			; 00000010H
  00051	c3		 ret	 0
$L190049:
  00052	8b 4c 24 04	 mov	 ecx, DWORD PTR __$EHRec$[esp+16]
  00056	33 c0		 xor	 eax, eax
  00058	a3 00 00 00 00	 mov	 DWORD PTR ?m_pPool@CBuffer@@2PAV?$MemPooler@VCBuffer@@@@A, eax ; CBuffer::m_pPool
  0005d	64 89 0d 00 00
	00 00		 mov	 DWORD PTR fs:__except_list, ecx
  00064	83 c4 10	 add	 esp, 16			; 00000010H
  00067	c3		 ret	 0
text$yc	ENDS
;	COMDAT text$x
text$x	SEGMENT
$L190051:
  00000	8b 45 f0	 mov	 eax, DWORD PTR $T190048[ebp]
  00003	50		 push	 eax
  00004	e8 00 00 00 00	 call	 ??3@YAXPAX@Z		; operator delete
  00009	59		 pop	 ecx
  0000a	c3		 ret	 0
__ehhandler$_$E3:
  0000b	b8 00 00 00 00	 mov	 eax, OFFSET FLAT:$T190053
  00010	e9 00 00 00 00	 jmp	 ___CxxFrameHandler
text$x	ENDS
_$E3	ENDP
EXTRN	??0CHeapMng@@QAE@XZ:NEAR			; CHeapMng::CHeapMng
CRT$XCU	SEGMENT
_$S6	DD	FLAT:_$E5
CRT$XCU	ENDS
;	COMDAT xdata$x
xdata$x	SEGMENT
$T190070 DD	0ffffffffH
	DD	FLAT:$L190065
$T190067 DD	019930520H
	DD	01H
	DD	FLAT:$T190070
	DD	2 DUP(00H)
	DD	2 DUP(00H)
; Function compile flags: /Ogty
xdata$x	ENDS
;	COMDAT _$E5
text$yc	SEGMENT
$T190062 = -16						; size = 4
__$EHRec$ = -12						; size = 12
_$E5	PROC NEAR					; COMDAT

; 34   : CHeapMng*	CBuffer::m_pHeapMng		= new CHeapMng;

  00000	6a ff		 push	 -1
  00002	68 00 00 00 00	 push	 __ehhandler$_$E5
  00007	64 a1 00 00 00
	00		 mov	 eax, DWORD PTR fs:__except_list
  0000d	50		 push	 eax
  0000e	64 89 25 00 00
	00 00		 mov	 DWORD PTR fs:__except_list, esp
  00015	51		 push	 ecx
  00016	6a 08		 push	 8
  00018	e8 00 00 00 00	 call	 ??2@YAPAXI@Z		; operator new
  0001d	83 c4 04	 add	 esp, 4
  00020	89 04 24	 mov	 DWORD PTR $T190062[esp+16], eax
  00023	85 c0		 test	 eax, eax
  00025	c7 44 24 0c 00
	00 00 00	 mov	 DWORD PTR __$EHRec$[esp+24], 0
  0002d	74 1b		 je	 SHORT $L190063
  0002f	8b c8		 mov	 ecx, eax
  00031	e8 00 00 00 00	 call	 ??0CHeapMng@@QAE@XZ	; CHeapMng::CHeapMng
  00036	a3 00 00 00 00	 mov	 DWORD PTR ?m_pHeapMng@CBuffer@@2PAVCHeapMng@@A, eax ; CBuffer::m_pHeapMng
  0003b	8b 4c 24 04	 mov	 ecx, DWORD PTR __$EHRec$[esp+16]
  0003f	64 89 0d 00 00
	00 00		 mov	 DWORD PTR fs:__except_list, ecx
  00046	83 c4 10	 add	 esp, 16			; 00000010H
  00049	c3		 ret	 0
$L190063:
  0004a	8b 4c 24 04	 mov	 ecx, DWORD PTR __$EHRec$[esp+16]
  0004e	33 c0		 xor	 eax, eax
  00050	a3 00 00 00 00	 mov	 DWORD PTR ?m_pHeapMng@CBuffer@@2PAVCHeapMng@@A, eax ; CBuffer::m_pHeapMng
  00055	64 89 0d 00 00
	00 00		 mov	 DWORD PTR fs:__except_list, ecx
  0005c	83 c4 10	 add	 esp, 16			; 00000010H
  0005f	c3		 ret	 0
text$yc	ENDS
;	COMDAT text$x
text$x	SEGMENT
$L190065:
  00000	8b 45 f0	 mov	 eax, DWORD PTR $T190062[ebp]
  00003	50		 push	 eax
  00004	e8 00 00 00 00	 call	 ??3@YAXPAX@Z		; operator delete
  00009	59		 pop	 ecx
  0000a	c3		 ret	 0
__ehhandler$_$E5:
  0000b	b8 00 00 00 00	 mov	 eax, OFFSET FLAT:$T190067
  00010	e9 00 00 00 00	 jmp	 ___CxxFrameHandler
text$x	ENDS
_$E5	ENDP
PUBLIC	?m_pHeapMng@CBuffer@@2PAVCHeapMng@@A		; CBuffer::m_pHeapMng
PUBLIC	?m_pPool@CBuffer@@2PAV?$MemPooler@VCBuffer@@@@A	; CBuffer::m_pPool
PUBLIC	?m_pPool2@CBuffer2@@2PAV?$MemPooler@VCBuffer2@@@@A ; CBuffer2::m_pPool2
_BSS	SEGMENT
?m_pHeapMng@CBuffer@@2PAVCHeapMng@@A DD 01H DUP (?)	; CBuffer::m_pHeapMng
?m_pPool@CBuffer@@2PAV?$MemPooler@VCBuffer@@@@A DD 01H DUP (?) ; CBuffer::m_pPool
?m_pPool2@CBuffer2@@2PAV?$MemPooler@VCBuffer2@@@@A DD 01H DUP (?) ; CBuffer2::m_pPool2
_BSS	ENDS
END
