; Listing generated by Microsoft (R) Optimizing Compiler Version 13.10.6030 

	TITLE	.\CampusDBCtrl.cpp
	.386P
include listing.inc
if @Version gt 510
.model FLAT
else
_TEXT	SEGMENT PARA USE32 PUBLIC 'CODE'
_TEXT	ENDS
_DATA	SEGMENT DWORD USE32 PUBLIC 'DATA'
_DATA	ENDS
CONST	SEGMENT DWORD USE32 PUBLIC 'CONST'
CONST	ENDS
_BSS	SEGMENT DWORD USE32 PUBLIC 'BSS'
_BSS	ENDS
$$SYMBOLS	SEGMENT BYTE USE32 'DEBSYM'
$$SYMBOLS	ENDS
_TLS	SEGMENT DWORD USE32 PUBLIC 'TLS'
_TLS	ENDS
;	COMDAT ??_C@_0BC@MOGJFHKK@tr1?3?3bad_weak_ptr?$AA@
CONST	SEGMENT DWORD USE32 PUBLIC 'CONST'
CONST	ENDS
;	COMDAT ??_C@_0BD@IOHNFIBA@SetLOD?5?3?5lv?$DN?$CFd?0?5?$CFs?$AA@
CONST	SEGMENT DWORD USE32 PUBLIC 'CONST'
CONST	ENDS
;	COMDAT ??_C@_02PCIJFNDE@?$AN?6?$AA@
CONST	SEGMENT DWORD USE32 PUBLIC 'CONST'
CONST	ENDS
;	COMDAT ??_C@_01DNKMNLPK@?$HM?$AA@
CONST	SEGMENT DWORD USE32 PUBLIC 'CONST'
CONST	ENDS
;	COMDAT ??_C@_0DB@BEDINLHB@RANKING?4RANKING_DBF?4dbo?4RANKING_@
CONST	SEGMENT DWORD USE32 PUBLIC 'CONST'
CONST	ENDS
;	COMDAT ??_C@_0CN@HNMEKJGP@CDbManager?3?3UpdateGuildRanking?$LP?$KB@
CONST	SEGMENT DWORD USE32 PUBLIC 'CONST'
CONST	ENDS
;	COMDAT ??_C@_08LJMBJH@m_dwLogo?$AA@
CONST	SEGMENT DWORD USE32 PUBLIC 'CONST'
CONST	ENDS
;	COMDAT ??_C@_09NKFNPOPN@m_szGuild?$AA@
CONST	SEGMENT DWORD USE32 PUBLIC 'CONST'
CONST	ENDS
;	COMDAT ??_C@_08HDDJDJAG@m_szName?$AA@
CONST	SEGMENT DWORD USE32 PUBLIC 'CONST'
CONST	ENDS
;	COMDAT ??_C@_06LJIKPPDH@m_nWin?$AA@
CONST	SEGMENT DWORD USE32 PUBLIC 'CONST'
CONST	ENDS
;	COMDAT ??_C@_07IGCLHJHO@m_nLose?$AA@
CONST	SEGMENT DWORD USE32 PUBLIC 'CONST'
CONST	ENDS
;	COMDAT ??_C@_0N@BBOGLCAO@m_nSurrender?$AA@
CONST	SEGMENT DWORD USE32 PUBLIC 'CONST'
CONST	ENDS
;	COMDAT ??_C@_0L@EKKIFFNL@m_AvgLevel?$AA@
CONST	SEGMENT DWORD USE32 PUBLIC 'CONST'
CONST	ENDS
;	COMDAT ??_C@_0M@EMHJODPK@m_nWinPoint?$AA@
CONST	SEGMENT DWORD USE32 PUBLIC 'CONST'
CONST	ENDS
;	COMDAT ??_C@_0BG@CJGBCKAI@MAKE_RANKING_STR?5?8?$CFd?8?$AA@
CONST	SEGMENT DWORD USE32 PUBLIC 'CONST'
CONST	ENDS
;	COMDAT ??_C@_0CG@IPKIBOKB@CDbManager?3?3RankingDBUpdate?5?$CI?$CFs?$CJ@
CONST	SEGMENT DWORD USE32 PUBLIC 'CONST'
CONST	ENDS
;	COMDAT ??_C@_0CP@EFPIHLLF@Can?8t?5connect?5db?3?5CCampusDBCtrl?4@
CONST	SEGMENT DWORD USE32 PUBLIC 'CONST'
CONST	ENDS
;	COMDAT ??_C@_0CG@EPNBNDFJ@usp_Campus_Load?5?$EAserverindex?5?$DN?5?8@
CONST	SEGMENT DWORD USE32 PUBLIC 'CONST'
CONST	ENDS
;	COMDAT ??_C@_0BD@DNMKPCGK@?4?2CampusDBCtrl?4cpp?$AA@
CONST	SEGMENT DWORD USE32 PUBLIC 'CONST'
CONST	ENDS
;	COMDAT ??_C@_08FHGJFCBK@idCampus?$AA@
CONST	SEGMENT DWORD USE32 PUBLIC 'CONST'
CONST	ENDS
;	COMDAT ??_C@_0CM@CLANIGHK@usp_CampusMember_Load?5?$EAserverind@
CONST	SEGMENT DWORD USE32 PUBLIC 'CONST'
CONST	ENDS
;	COMDAT ??_C@_0L@FONFFEJF@m_idPlayer?$AA@
CONST	SEGMENT DWORD USE32 PUBLIC 'CONST'
CONST	ENDS
;	COMDAT ??_C@_09FLNBFAEP@nMemberLv?$AA@
CONST	SEGMENT DWORD USE32 PUBLIC 'CONST'
CONST	ENDS
;	COMDAT ??_C@_0DE@GGIDIIN@LoadAllCampus?$CI?$CJ?3?5Player?8s?5campus@
CONST	SEGMENT DWORD USE32 PUBLIC 'CONST'
CONST	ENDS
;	COMDAT ??_C@_0BM@IEAKIJNC@AddPlayerId2CampusId?$CI?$CJ?5fail?$AA@
CONST	SEGMENT DWORD USE32 PUBLIC 'CONST'
CONST	ENDS
;	COMDAT ??_C@_0BC@EFJAFBJB@AddMember?5failed?$CB?$AA@
CONST	SEGMENT DWORD USE32 PUBLIC 'CONST'
CONST	ENDS
;	COMDAT ??_C@_0CA@DNIPPDFD@new?5campus?5failed?$CB?5campus?5exist?$AA@
CONST	SEGMENT DWORD USE32 PUBLIC 'CONST'
CONST	ENDS
;	COMDAT ??_C@_0BI@BMKKJLKC@RemoveCampusMember?5fail?$AA@
CONST	SEGMENT DWORD USE32 PUBLIC 'CONST'
CONST	ENDS
;	COMDAT ??_C@_0DI@HDOGOKEB@usp_Campus_Insert?5?$EAidCampus?5?$DN?5?$CFd@
CONST	SEGMENT DWORD USE32 PUBLIC 'CONST'
CONST	ENDS
;	COMDAT ??_C@_0DI@GMELEMJP@usp_Campus_Delete?5?$EAidCampus?5?$DN?5?$CFd@
CONST	SEGMENT DWORD USE32 PUBLIC 'CONST'
CONST	ENDS
;	COMDAT ??_C@_0GF@JMBGFEDG@usp_CampusMember_Insert?5?$EAidCampu@
CONST	SEGMENT DWORD USE32 PUBLIC 'CONST'
CONST	ENDS
;	COMDAT ??_C@_0FG@OBOHOBGA@usp_CampusMember_Delete?5?5?$EAserver@
CONST	SEGMENT DWORD USE32 PUBLIC 'CONST'
CONST	ENDS
;	COMDAT ??_C@_02MIPIAIAA@U5?$AA@
CONST	SEGMENT DWORD USE32 PUBLIC 'CONST'
CONST	ENDS
;	COMDAT ??_C@_0P@HAGDFNOH@m_nCampusPoint?$AA@
CONST	SEGMENT DWORD USE32 PUBLIC 'CONST'
CONST	ENDS
;	COMDAT ??_C@_02ODNFFLMD@U6?$AA@
CONST	SEGMENT DWORD USE32 PUBLIC 'CONST'
CONST	ENDS
;	COMDAT ??_C@_0HI@KDLLPGLE@usp_CampusLog_Insert?5?5?$EAm_idMaste@
CONST	SEGMENT DWORD USE32 PUBLIC 'CONST'
CONST	ENDS
;	COMDAT ??_C@_0HN@EDLOELGN@usp_CampusPointLog_Insert?5?5?$EAm_id@
CONST	SEGMENT DWORD USE32 PUBLIC 'CONST'
CONST	ENDS
;	COMDAT ??_C@_0DB@KNEAGAGD@CCampusHelper?5?9?5m_CampusDBCtrl?4C@
CONST	SEGMENT DWORD USE32 PUBLIC 'CONST'
CONST	ENDS
text$yd	SEGMENT PARA USE32 PUBLIC 'CODE'
text$yd	ENDS
xdata$x	SEGMENT DWORD USE32 PUBLIC 'CONST'
xdata$x	ENDS
;	COMDAT ?GetQueryObject@CDbController@@QAEPAVCQuery@@XZ
_TEXT	SEGMENT PARA USE32 PUBLIC 'CODE'
_TEXT	ENDS
;	COMDAT ?OnTimer@CDbController@@UAEXXZ
_TEXT	SEGMENT PARA USE32 PUBLIC 'CODE'
_TEXT	ENDS
;	COMDAT ?GetPlayerId@CCampusMember@@QAEKXZ
_TEXT	SEGMENT PARA USE32 PUBLIC 'CODE'
_TEXT	ENDS
;	COMDAT ?SetPlayerId@CCampusMember@@QAEXK@Z
_TEXT	SEGMENT PARA USE32 PUBLIC 'CODE'
_TEXT	ENDS
;	COMDAT ?GetLevel@CCampusMember@@QAEHXZ
_TEXT	SEGMENT PARA USE32 PUBLIC 'CODE'
_TEXT	ENDS
;	COMDAT ?SetLevel@CCampusMember@@QAEXH@Z
_TEXT	SEGMENT PARA USE32 PUBLIC 'CODE'
_TEXT	ENDS
;	COMDAT ?GetCampusId@CCampus@@QAEKXZ
_TEXT	SEGMENT PARA USE32 PUBLIC 'CODE'
_TEXT	ENDS
;	COMDAT ?SetCampusId@CCampus@@QAEXK@Z
_TEXT	SEGMENT PARA USE32 PUBLIC 'CODE'
_TEXT	ENDS
;	COMDAT ?GetMaster@CCampus@@QAEKXZ
_TEXT	SEGMENT PARA USE32 PUBLIC 'CODE'
_TEXT	ENDS
;	COMDAT ?SetMaster@CCampus@@QAEXK@Z
_TEXT	SEGMENT PARA USE32 PUBLIC 'CODE'
_TEXT	ENDS
;	COMDAT ?IsMaster@CCampus@@QAEHK@Z
_TEXT	SEGMENT PARA USE32 PUBLIC 'CODE'
_TEXT	ENDS
;	COMDAT ?GetMemberSize@CCampus@@QAEHXZ
_TEXT	SEGMENT PARA USE32 PUBLIC 'CODE'
_TEXT	ENDS
;	COMDAT ?IsEmpty@CCampusMng@@QAEHXZ
_TEXT	SEGMENT PARA USE32 PUBLIC 'CODE'
_TEXT	ENDS
;	COMDAT ?RemovePlayerId2CampusId@CCampusMng@@QAEXK@Z
_TEXT	SEGMENT PARA USE32 PUBLIC 'CODE'
_TEXT	ENDS
;	COMDAT ?AddCampus@CCampusHelper@@QAEKPAVCCampus@@@Z
_TEXT	SEGMENT PARA USE32 PUBLIC 'CODE'
_TEXT	ENDS
;	COMDAT ?RemoveCampus@CCampusHelper@@QAEHK@Z
_TEXT	SEGMENT PARA USE32 PUBLIC 'CODE'
_TEXT	ENDS
;	COMDAT ?IsEmpty@CCampusHelper@@QAEHXZ
_TEXT	SEGMENT PARA USE32 PUBLIC 'CODE'
_TEXT	ENDS
;	COMDAT ?GetCampus@CCampusHelper@@QAEPAVCCampus@@K@Z
_TEXT	SEGMENT PARA USE32 PUBLIC 'CODE'
_TEXT	ENDS
;	COMDAT ?Clear@CCampusHelper@@QAEXXZ
_TEXT	SEGMENT PARA USE32 PUBLIC 'CODE'
_TEXT	ENDS
;	COMDAT ?AddPlayerId2CampusId@CCampusHelper@@QAE_NKK@Z
_TEXT	SEGMENT PARA USE32 PUBLIC 'CODE'
_TEXT	ENDS
;	COMDAT ?RemovePlayerId2CampusId@CCampusHelper@@QAEXK@Z
_TEXT	SEGMENT PARA USE32 PUBLIC 'CODE'
_TEXT	ENDS
;	COMDAT ?GetCampusIdByPlayerId@CCampusHelper@@QAEKK@Z
_TEXT	SEGMENT PARA USE32 PUBLIC 'CODE'
_TEXT	ENDS
;	COMDAT ?what@bad_weak_ptr@boost@@UBEPBDXZ
_TEXT	SEGMENT PARA USE32 PUBLIC 'CODE'
_TEXT	ENDS
;	COMDAT ??1sp_counted_base@detail@boost@@UAE@XZ
_TEXT	SEGMENT PARA USE32 PUBLIC 'CODE'
_TEXT	ENDS
;	COMDAT ?destroy@sp_counted_base@detail@boost@@UAEXXZ
_TEXT	SEGMENT PARA USE32 PUBLIC 'CODE'
_TEXT	ENDS
;	COMDAT ?add_ref_copy@sp_counted_base@detail@boost@@QAEXXZ
_TEXT	SEGMENT PARA USE32 PUBLIC 'CODE'
_TEXT	ENDS
;	COMDAT ?add_ref_lock@sp_counted_base@detail@boost@@QAE_NXZ
_TEXT	SEGMENT PARA USE32 PUBLIC 'CODE'
_TEXT	ENDS
;	COMDAT ?release@sp_counted_base@detail@boost@@QAEXXZ
_TEXT	SEGMENT PARA USE32 PUBLIC 'CODE'
_TEXT	ENDS
;	COMDAT ?weak_add_ref@sp_counted_base@detail@boost@@QAEXXZ
_TEXT	SEGMENT PARA USE32 PUBLIC 'CODE'
_TEXT	ENDS
;	COMDAT ?weak_release@sp_counted_base@detail@boost@@QAEXXZ
_TEXT	SEGMENT PARA USE32 PUBLIC 'CODE'
_TEXT	ENDS
;	COMDAT ?use_count@sp_counted_base@detail@boost@@QBEJXZ
_TEXT	SEGMENT PARA USE32 PUBLIC 'CODE'
_TEXT	ENDS
;	COMDAT ??_Gsp_counted_base@detail@boost@@UAEPAXI@Z
_TEXT	SEGMENT PARA USE32 PUBLIC 'CODE'
_TEXT	ENDS
;	COMDAT ?use_count@shared_count@detail@boost@@QBEJXZ
_TEXT	SEGMENT PARA USE32 PUBLIC 'CODE'
_TEXT	ENDS
;	COMDAT ??0bad_weak_ptr@boost@@QAE@XZ
_TEXT	SEGMENT PARA USE32 PUBLIC 'CODE'
_TEXT	ENDS
;	COMDAT ??1bad_weak_ptr@boost@@UAE@XZ
_TEXT	SEGMENT PARA USE32 PUBLIC 'CODE'
_TEXT	ENDS
;	COMDAT ??_Gbad_weak_ptr@boost@@UAEPAXI@Z
_TEXT	SEGMENT PARA USE32 PUBLIC 'CODE'
_TEXT	ENDS
;	COMDAT ?GetCooltime@CLordSkillComponent@@QAEHXZ
_TEXT	SEGMENT PARA USE32 PUBLIC 'CODE'
_TEXT	ENDS
;	COMDAT ?SetTick@CLordSkillComponent@@QAEXH@Z
_TEXT	SEGMENT PARA USE32 PUBLIC 'CODE'
_TEXT	ENDS
;	COMDAT ??1CLordSkillComponentExecutable@@UAE@XZ
_TEXT	SEGMENT PARA USE32 PUBLIC 'CODE'
_TEXT	ENDS
;	COMDAT ?Use@CLordSkillComponentExecutable@@IAEXXZ
_TEXT	SEGMENT PARA USE32 PUBLIC 'CODE'
_TEXT	ENDS
;	COMDAT ?Execute@CLordSkillComponentExecutable@@UAEXKKPAX@Z
_TEXT	SEGMENT PARA USE32 PUBLIC 'CODE'
_TEXT	ENDS
;	COMDAT ??_GCLordSkillComponentExecutable@@UAEPAXI@Z
_TEXT	SEGMENT PARA USE32 PUBLIC 'CODE'
_TEXT	ENDS
;	COMDAT ?GetDeposit@CCandidate@@QBE_JXZ
_TEXT	SEGMENT PARA USE32 PUBLIC 'CODE'
_TEXT	ENDS
;	COMDAT ?GetVote@CCandidate@@QAEHXZ
_TEXT	SEGMENT PARA USE32 PUBLIC 'CODE'
_TEXT	ENDS
;	COMDAT ?GetCreate@CCandidate@@QAEJXZ
_TEXT	SEGMENT PARA USE32 PUBLIC 'CODE'
_TEXT	ENDS
;	COMDAT ??0_GUILDQUEST@@QAE@XZ
_TEXT	SEGMENT PARA USE32 PUBLIC 'CODE'
_TEXT	ENDS
;	COMDAT ??0CCampusDBCtrl@@QAE@XZ
_TEXT	SEGMENT PARA USE32 PUBLIC 'CODE'
_TEXT	ENDS
;	COMDAT ??_GCCampusDBCtrl@@UAEPAXI@Z
_TEXT	SEGMENT PARA USE32 PUBLIC 'CODE'
_TEXT	ENDS
;	COMDAT ??1CCampusDBCtrl@@UAE@XZ
_TEXT	SEGMENT PARA USE32 PUBLIC 'CODE'
_TEXT	ENDS
;	COMDAT ??_GCQuery@@QAEPAXI@Z
_TEXT	SEGMENT PARA USE32 PUBLIC 'CODE'
_TEXT	ENDS
;	COMDAT ?Handler@CCampusDBCtrl@@UAEXPAUtagDB_OVERLAPPED_PLUS@@K@Z
_TEXT	SEGMENT PARA USE32 PUBLIC 'CODE'
_TEXT	ENDS
;	COMDAT ?CreateLogQuery@CCampusDBCtrl@@AAEXXZ
_TEXT	SEGMENT PARA USE32 PUBLIC 'CODE'
_TEXT	ENDS
;	COMDAT ?LoadAllCampus@CCampusDBCtrl@@AAEXXZ
_TEXT	SEGMENT PARA USE32 PUBLIC 'CODE'
_TEXT	ENDS
;	COMDAT ??_GCCampusMember@@QAEPAXI@Z
_TEXT	SEGMENT PARA USE32 PUBLIC 'CODE'
_TEXT	ENDS
;	COMDAT ?AddCampusMember@CCampusDBCtrl@@AAEXAAVCAr@@@Z
_TEXT	SEGMENT PARA USE32 PUBLIC 'CODE'
_TEXT	ENDS
;	COMDAT ??_GCCampus@@QAEPAXI@Z
_TEXT	SEGMENT PARA USE32 PUBLIC 'CODE'
_TEXT	ENDS
;	COMDAT ?RemoveCampusMember@CCampusDBCtrl@@AAEXAAVCAr@@@Z
_TEXT	SEGMENT PARA USE32 PUBLIC 'CODE'
_TEXT	ENDS
;	COMDAT ?UpdateCampusPoint@CCampusDBCtrl@@AAEXAAVCAr@@@Z
_TEXT	SEGMENT PARA USE32 PUBLIC 'CODE'
_TEXT	ENDS
;	COMDAT ?SendAllCampus@CCampusDBCtrl@@AAEXK@Z
_TEXT	SEGMENT PARA USE32 PUBLIC 'CODE'
_TEXT	ENDS
;	COMDAT ?InsertCampus@CCampusDBCtrl@@AAEXK@Z
_TEXT	SEGMENT PARA USE32 PUBLIC 'CODE'
_TEXT	ENDS
;	COMDAT ?DeleteCampus@CCampusDBCtrl@@AAEXK@Z
_TEXT	SEGMENT PARA USE32 PUBLIC 'CODE'
_TEXT	ENDS
;	COMDAT ?InsertCampusMember@CCampusDBCtrl@@AAEXKKH@Z
_TEXT	SEGMENT PARA USE32 PUBLIC 'CODE'
_TEXT	ENDS
;	COMDAT ?DeleteCampusMember@CCampusDBCtrl@@AAEXKH@Z
_TEXT	SEGMENT PARA USE32 PUBLIC 'CODE'
_TEXT	ENDS
;	COMDAT ?UpdateCampusPoint@CCampusDBCtrl@@AAEHKH@Z
_TEXT	SEGMENT PARA USE32 PUBLIC 'CODE'
_TEXT	ENDS
;	COMDAT ?UpdateCampusId@CCampusDBCtrl@@AAEXKK@Z
_TEXT	SEGMENT PARA USE32 PUBLIC 'CODE'
_TEXT	ENDS
;	COMDAT ?LogUpdateCampusMember@CCampusDBCtrl@@AAEXKKKD@Z
_TEXT	SEGMENT PARA USE32 PUBLIC 'CODE'
_TEXT	ENDS
;	COMDAT ?LogUpdateCampusPoint@CCampusDBCtrl@@AAEXKHHD@Z
_TEXT	SEGMENT PARA USE32 PUBLIC 'CODE'
_TEXT	ENDS
;	COMDAT ??0CCampusHelper@@QAE@XZ
_TEXT	SEGMENT PARA USE32 PUBLIC 'CODE'
_TEXT	ENDS
;	COMDAT ??1CCampusHelper@@QAE@XZ
_TEXT	SEGMENT PARA USE32 PUBLIC 'CODE'
_TEXT	ENDS
;	COMDAT ??_GCCampusMng@@QAEPAXI@Z
_TEXT	SEGMENT PARA USE32 PUBLIC 'CODE'
_TEXT	ENDS
;	COMDAT ?GetInstance@CCampusHelper@@SAPAV1@XZ
_TEXT	SEGMENT PARA USE32 PUBLIC 'CODE'
_TEXT	ENDS
;	COMDAT _$E2
text$yd	SEGMENT PARA USE32 PUBLIC 'CODE'
text$yd	ENDS
;	COMDAT ?GetMaxPupilNum@CCampusHelper@@QAEHH@Z
_TEXT	SEGMENT PARA USE32 PUBLIC 'CODE'
_TEXT	ENDS
;	COMDAT ?Replace@?$CStringT@DV?$StrTraitMFC@DV?$ChTraitsCRT@D@ATL@@@@@ATL@@QAEHPBD0@Z
_TEXT	SEGMENT PARA USE32 PUBLIC 'CODE'
_TEXT	ENDS
;	COMDAT ?compare@?$basic_string@DU?$char_traits@D@std@@V?$allocator@D@2@@std@@QBEHABV12@@Z
_TEXT	SEGMENT PARA USE32 PUBLIC 'CODE'
_TEXT	ENDS
;	COMDAT ?begin@?$vector@KV?$allocator@K@std@@@std@@QAE?AViterator@12@XZ
_TEXT	SEGMENT PARA USE32 PUBLIC 'CODE'
_TEXT	ENDS
;	COMDAT ?end@?$vector@KV?$allocator@K@std@@@std@@QAE?AViterator@12@XZ
_TEXT	SEGMENT PARA USE32 PUBLIC 'CODE'
_TEXT	ENDS
;	COMDAT ?size@?$_Tree@V?$_Tmap_traits@KPAVCCampusMember@@U?$less@K@std@@V?$allocator@U?$pair@$$CBKPAVCCampusMember@@@std@@@3@$0A@@std@@@std@@QBEIXZ
_TEXT	SEGMENT PARA USE32 PUBLIC 'CODE'
_TEXT	ENDS
;	COMDAT ?empty@?$_Tree@V?$_Tmap_traits@KPAVCCampus@@U?$less@K@std@@V?$allocator@U?$pair@$$CBKPAVCCampus@@@std@@@3@$0A@@std@@@std@@QBE_NXZ
_TEXT	SEGMENT PARA USE32 PUBLIC 'CODE'
_TEXT	ENDS
;	COMDAT ?erase@?$_Tree@V?$_Tmap_traits@KKU?$less@K@std@@V?$allocator@U?$pair@$$CBKK@std@@@2@$0A@@std@@@std@@QAEIABK@Z
_TEXT	SEGMENT PARA USE32 PUBLIC 'CODE'
_TEXT	ENDS
;	COMDAT ??R?$less@PAVsp_counted_base@detail@boost@@@std@@QBE_NABQAVsp_counted_base@detail@boost@@0@Z
_TEXT	SEGMENT PARA USE32 PUBLIC 'CODE'
_TEXT	ENDS
;	COMDAT ?size@?$vector@PAVCLordSkillComponentExecutable@@V?$allocator@PAVCLordSkillComponentExecutable@@@std@@@std@@QBEIXZ
_TEXT	SEGMENT PARA USE32 PUBLIC 'CODE'
_TEXT	ENDS
;	COMDAT ?size@?$vector@V?$shared_ptr@VCCandidate@@@boost@@V?$allocator@V?$shared_ptr@VCCandidate@@@boost@@@std@@@std@@QBEIXZ
_TEXT	SEGMENT PARA USE32 PUBLIC 'CODE'
_TEXT	ENDS
;	COMDAT ??0?$vector@MV?$allocator@M@std@@@std@@QAE@XZ
_TEXT	SEGMENT PARA USE32 PUBLIC 'CODE'
_TEXT	ENDS
;	COMDAT ??1?$vector@MV?$allocator@M@std@@@std@@QAE@XZ
_TEXT	SEGMENT PARA USE32 PUBLIC 'CODE'
_TEXT	ENDS
;	COMDAT ??0?$vector@HV?$allocator@H@std@@@std@@QAE@XZ
_TEXT	SEGMENT PARA USE32 PUBLIC 'CODE'
_TEXT	ENDS
;	COMDAT ??1?$vector@HV?$allocator@H@std@@@std@@QAE@XZ
_TEXT	SEGMENT PARA USE32 PUBLIC 'CODE'
_TEXT	ENDS
;	COMDAT ??C?$shared_ptr@VCCandidate@@@boost@@QBEPAVCCandidate@@XZ
_TEXT	SEGMENT PARA USE32 PUBLIC 'CODE'
_TEXT	ENDS
;	COMDAT ?size@?$vector@PAVCLEComponent@@V?$allocator@PAVCLEComponent@@@std@@@std@@QBEIXZ
_TEXT	SEGMENT PARA USE32 PUBLIC 'CODE'
_TEXT	ENDS
;	COMDAT ?size@?$vector@U?$pair@M_J@std@@V?$allocator@U?$pair@M_J@std@@@2@@std@@QBEIXZ
_TEXT	SEGMENT PARA USE32 PUBLIC 'CODE'
_TEXT	ENDS
;	COMDAT ?size@?$_Tree@V?$_Tmap_traits@KPAU_PlayerData@@U?$less@K@std@@V?$allocator@U?$pair@$$CBKPAU_PlayerData@@@std@@@3@$0A@@std@@@std@@QBEIXZ
_TEXT	SEGMENT PARA USE32 PUBLIC 'CODE'
_TEXT	ENDS
;	COMDAT ?end@?$_Tree@V?$_Tmap_traits@KP8CDPTrans@@AEXAAVCAr@@KKKPAEK@ZU?$less@K@std@@V?$allocator@U?$pair@$$CBKP8CDPTrans@@AEXAAVCAr@@KKKPAEK@Z@std@@@4@$0A@@std@@@std@@QAE?AViterator@12@XZ
_TEXT	SEGMENT PARA USE32 PUBLIC 'CODE'
_TEXT	ENDS
;	COMDAT ?find@?$_Tree@V?$_Tmap_traits@KP8CDPTrans@@AEXAAVCAr@@KKKPAEK@ZU?$less@K@std@@V?$allocator@U?$pair@$$CBKP8CDPTrans@@AEXAAVCAr@@KKKPAEK@Z@std@@@4@$0A@@std@@@std@@QAE?AViterator@12@ABK@Z
_TEXT	SEGMENT PARA USE32 PUBLIC 'CODE'
_TEXT	ENDS
;	COMDAT ??Citerator@?$_Tree@V?$_Tmap_traits@KP8CDPTrans@@AEXAAVCAr@@KKKPAEK@ZU?$less@K@std@@V?$allocator@U?$pair@$$CBKP8CDPTrans@@AEXAAVCAr@@KKKPAEK@Z@std@@@4@$0A@@std@@@std@@QBEPAU?$pair@$$CBKP8CDPTrans@@AEXAAVCAr@@KKKPAEK@Z@2@XZ
_TEXT	SEGMENT PARA USE32 PUBLIC 'CODE'
_TEXT	ENDS
;	COMDAT ??9const_iterator@?$_Tree@V?$_Tmap_traits@KP8CDPTrans@@AEXAAVCAr@@KKKPAEK@ZU?$less@K@std@@V?$allocator@U?$pair@$$CBKP8CDPTrans@@AEXAAVCAr@@KKKPAEK@Z@std@@@4@$0A@@std@@@std@@QBE_NABV012@@Z
_TEXT	SEGMENT PARA USE32 PUBLIC 'CODE'
_TEXT	ENDS
;	COMDAT ?Alloc@?$MemPooler@VCGuildMember@@@@QAEPAVCGuildMember@@XZ
_TEXT	SEGMENT PARA USE32 PUBLIC 'CODE'
_TEXT	ENDS
;	COMDAT ?Free@?$MemPooler@VCGuildMember@@@@QAEHPAVCGuildMember@@@Z
_TEXT	SEGMENT PARA USE32 PUBLIC 'CODE'
_TEXT	ENDS
;	COMDAT ?size@?$_Tree@V?$_Tmap_traits@KPAVCGuildMember@@U?$less@K@std@@V?$allocator@U?$pair@$$CBKPAVCGuildMember@@@std@@@3@$0A@@std@@@std@@QBEIXZ
_TEXT	SEGMENT PARA USE32 PUBLIC 'CODE'
_TEXT	ENDS
;	COMDAT ?Alloc@?$MemPooler@VCGuild@@@@QAEPAVCGuild@@XZ
_TEXT	SEGMENT PARA USE32 PUBLIC 'CODE'
_TEXT	ENDS
;	COMDAT ?Free@?$MemPooler@VCGuild@@@@QAEHPAVCGuild@@@Z
_TEXT	SEGMENT PARA USE32 PUBLIC 'CODE'
_TEXT	ENDS
;	COMDAT ?size@?$_Tree@V?$_Tmap_traits@KPAVCGuild@@U?$less@K@std@@V?$allocator@U?$pair@$$CBKPAVCGuild@@@std@@@3@$0A@@std@@@std@@QBEIXZ
_TEXT	SEGMENT PARA USE32 PUBLIC 'CODE'
_TEXT	ENDS
;	COMDAT ?end@?$_Tree@V?$_Tmap_traits@KP8CDPCoreSrvr@@AEXAAVCAr@@PAEK@ZU?$less@K@std@@V?$allocator@U?$pair@$$CBKP8CDPCoreSrvr@@AEXAAVCAr@@PAEK@Z@std@@@4@$0A@@std@@@std@@QAE?AViterator@12@XZ
_TEXT	SEGMENT PARA USE32 PUBLIC 'CODE'
_TEXT	ENDS
;	COMDAT ?find@?$_Tree@V?$_Tmap_traits@KP8CDPCoreSrvr@@AEXAAVCAr@@PAEK@ZU?$less@K@std@@V?$allocator@U?$pair@$$CBKP8CDPCoreSrvr@@AEXAAVCAr@@PAEK@Z@std@@@4@$0A@@std@@@std@@QAE?AViterator@12@ABK@Z
_TEXT	SEGMENT PARA USE32 PUBLIC 'CODE'
_TEXT	ENDS
;	COMDAT ??Citerator@?$_Tree@V?$_Tmap_traits@KP8CDPCoreSrvr@@AEXAAVCAr@@PAEK@ZU?$less@K@std@@V?$allocator@U?$pair@$$CBKP8CDPCoreSrvr@@AEXAAVCAr@@PAEK@Z@std@@@4@$0A@@std@@@std@@QBEPAU?$pair@$$CBKP8CDPCoreSrvr@@AEXAAVCAr@@PAEK@Z@2@XZ
_TEXT	SEGMENT PARA USE32 PUBLIC 'CODE'
_TEXT	ENDS
;	COMDAT ??9const_iterator@?$_Tree@V?$_Tmap_traits@KP8CDPCoreSrvr@@AEXAAVCAr@@PAEK@ZU?$less@K@std@@V?$allocator@U?$pair@$$CBKP8CDPCoreSrvr@@AEXAAVCAr@@PAEK@Z@std@@@4@$0A@@std@@@std@@QBE_NABV012@@Z
_TEXT	SEGMENT PARA USE32 PUBLIC 'CODE'
_TEXT	ENDS
;	COMDAT ??Diterator@?$vector@KV?$allocator@K@std@@@std@@QBEAAKXZ
_TEXT	SEGMENT PARA USE32 PUBLIC 'CODE'
_TEXT	ENDS
;	COMDAT ??Eiterator@?$vector@KV?$allocator@K@std@@@std@@QAEAAV012@XZ
_TEXT	SEGMENT PARA USE32 PUBLIC 'CODE'
_TEXT	ENDS
;	COMDAT ??9const_iterator@?$vector@KV?$allocator@K@std@@@std@@QBE_NABV012@@Z
_TEXT	SEGMENT PARA USE32 PUBLIC 'CODE'
_TEXT	ENDS
;	COMDAT ?StringFindString@?$ChTraitsCRT@D@ATL@@SAPADPADPBD@Z
_TEXT	SEGMENT PARA USE32 PUBLIC 'CODE'
_TEXT	ENDS
;	COMDAT ?SafeStringLen@?$ChTraitsCRT@D@ATL@@SAHPBD@Z
_TEXT	SEGMENT PARA USE32 PUBLIC 'CODE'
_TEXT	ENDS
;	COMDAT ?compare@?$basic_string@DU?$char_traits@D@std@@V?$allocator@D@2@@std@@QBEHIIPBDI@Z
_TEXT	SEGMENT PARA USE32 PUBLIC 'CODE'
_TEXT	ENDS
;	COMDAT ??0?$allocator@H@std@@QAE@XZ
_TEXT	SEGMENT PARA USE32 PUBLIC 'CODE'
_TEXT	ENDS
;	COMDAT ?size@?$_Tree@V?$_Tmap_traits@KPAVCCampus@@U?$less@K@std@@V?$allocator@U?$pair@$$CBKPAVCCampus@@@std@@@3@$0A@@std@@@std@@QBEIXZ
_TEXT	SEGMENT PARA USE32 PUBLIC 'CODE'
_TEXT	ENDS
;	COMDAT ?erase@?$_Tree@V?$_Tmap_traits@KKU?$less@K@std@@V?$allocator@U?$pair@$$CBKK@std@@@2@$0A@@std@@@std@@QAE?AViterator@12@V312@0@Z
_TEXT	SEGMENT PARA USE32 PUBLIC 'CODE'
_TEXT	ENDS
;	COMDAT ?equal_range@?$_Tree@V?$_Tmap_traits@KKU?$less@K@std@@V?$allocator@U?$pair@$$CBKK@std@@@2@$0A@@std@@@std@@QAE?AU?$pair@Viterator@?$_Tree@V?$_Tmap_traits@KKU?$less@K@std@@V?$allocator@U?$pair@$$CBKK@std@@@2@$0A@@std@@@std@@V123@@2@ABK@Z
_TEXT	SEGMENT PARA USE32 PUBLIC 'CODE'
_TEXT	ENDS
;	COMDAT ?_Buy@?$vector@MV?$allocator@M@std@@@std@@IAE_NI@Z
_TEXT	SEGMENT PARA USE32 PUBLIC 'CODE'
_TEXT	ENDS
;	COMDAT ?_Tidy@?$vector@MV?$allocator@M@std@@@std@@IAEXXZ
_TEXT	SEGMENT PARA USE32 PUBLIC 'CODE'
_TEXT	ENDS
;	COMDAT ??0?$_Vector_val@MV?$allocator@M@std@@@std@@IAE@V?$allocator@M@1@@Z
_TEXT	SEGMENT PARA USE32 PUBLIC 'CODE'
_TEXT	ENDS
;	COMDAT ??0?$allocator@M@std@@QAE@XZ
_TEXT	SEGMENT PARA USE32 PUBLIC 'CODE'
_TEXT	ENDS
;	COMDAT ?_Buy@?$vector@HV?$allocator@H@std@@@std@@IAE_NI@Z
_TEXT	SEGMENT PARA USE32 PUBLIC 'CODE'
_TEXT	ENDS
;	COMDAT ?_Tidy@?$vector@HV?$allocator@H@std@@@std@@IAEXXZ
_TEXT	SEGMENT PARA USE32 PUBLIC 'CODE'
_TEXT	ENDS
;	COMDAT ??0?$_Vector_val@HV?$allocator@H@std@@@std@@IAE@V?$allocator@H@1@@Z
_TEXT	SEGMENT PARA USE32 PUBLIC 'CODE'
_TEXT	ENDS
;	COMDAT ?_Key@?$_Tree@V?$_Tmap_traits@KP8CDPTrans@@AEXAAVCAr@@KKKPAEK@ZU?$less@K@std@@V?$allocator@U?$pair@$$CBKP8CDPTrans@@AEXAAVCAr@@KKKPAEK@Z@std@@@4@$0A@@std@@@std@@KAABKPAU_Node@?$_Tree_nod@V?$_Tmap_traits@KP8CDPTrans@@AEXAAVCAr@@KKKPAEK@ZU?$less@K@std@@V?$allocator@U?$pair@$$CBKP8CDPTrans@@AEXAAVCAr@@KKKPAEK@Z@std@@@4@$0A@@std@@@2@@Z
_TEXT	SEGMENT PARA USE32 PUBLIC 'CODE'
_TEXT	ENDS
;	COMDAT ?lower_bound@?$_Tree@V?$_Tmap_traits@KP8CDPTrans@@AEXAAVCAr@@KKKPAEK@ZU?$less@K@std@@V?$allocator@U?$pair@$$CBKP8CDPTrans@@AEXAAVCAr@@KKKPAEK@Z@std@@@4@$0A@@std@@@std@@QAE?AViterator@12@ABK@Z
_TEXT	SEGMENT PARA USE32 PUBLIC 'CODE'
_TEXT	ENDS
;	COMDAT ??0iterator@?$_Tree@V?$_Tmap_traits@KP8CDPTrans@@AEXAAVCAr@@KKKPAEK@ZU?$less@K@std@@V?$allocator@U?$pair@$$CBKP8CDPTrans@@AEXAAVCAr@@KKKPAEK@Z@std@@@4@$0A@@std@@@std@@QAE@PAU_Node@?$_Tree_nod@V?$_Tmap_traits@KP8CDPTrans@@AEXAAVCAr@@KKKPAEK@ZU?$less@K@std@@V?$allocator@U?$pair@$$CBKP8CDPTrans@@AEXAAVCAr@@KKKPAEK@Z@std@@@4@$0A@@std@@@2@@Z
_TEXT	SEGMENT PARA USE32 PUBLIC 'CODE'
_TEXT	ENDS
;	COMDAT ??Diterator@?$_Tree@V?$_Tmap_traits@KP8CDPTrans@@AEXAAVCAr@@KKKPAEK@ZU?$less@K@std@@V?$allocator@U?$pair@$$CBKP8CDPTrans@@AEXAAVCAr@@KKKPAEK@Z@std@@@4@$0A@@std@@@std@@QBEAAU?$pair@$$CBKP8CDPTrans@@AEXAAVCAr@@KKKPAEK@Z@2@XZ
_TEXT	SEGMENT PARA USE32 PUBLIC 'CODE'
_TEXT	ENDS
;	COMDAT ??8const_iterator@?$_Tree@V?$_Tmap_traits@KP8CDPTrans@@AEXAAVCAr@@KKKPAEK@ZU?$less@K@std@@V?$allocator@U?$pair@$$CBKP8CDPTrans@@AEXAAVCAr@@KKKPAEK@Z@std@@@4@$0A@@std@@@std@@QBE_NABV012@@Z
_TEXT	SEGMENT PARA USE32 PUBLIC 'CODE'
_TEXT	ENDS
;	COMDAT ?_Mynode@const_iterator@?$_Tree@V?$_Tmap_traits@KP8CDPTrans@@AEXAAVCAr@@KKKPAEK@ZU?$less@K@std@@V?$allocator@U?$pair@$$CBKP8CDPTrans@@AEXAAVCAr@@KKKPAEK@Z@std@@@4@$0A@@std@@@std@@QBEPAU_Node@?$_Tree_nod@V?$_Tmap_traits@KP8CDPTrans@@AEXAAVCAr@@KKKPAEK@ZU?$less@K@std@@V?$allocator@U?$pair@$$CBKP8CDPTrans@@AEXAAVCAr@@KKKPAEK@Z@std@@@4@$0A@@std@@@3@XZ
_TEXT	SEGMENT PARA USE32 PUBLIC 'CODE'
_TEXT	ENDS
;	COMDAT ?Create@?$MemPooler@VCGuildMember@@@@IAEXXZ
_TEXT	SEGMENT PARA USE32 PUBLIC 'CODE'
_TEXT	ENDS
;	COMDAT ?Create@?$MemPooler@VCGuild@@@@IAEXXZ
_TEXT	SEGMENT PARA USE32 PUBLIC 'CODE'
_TEXT	ENDS
;	COMDAT ?_Key@?$_Tree@V?$_Tmap_traits@KP8CDPCoreSrvr@@AEXAAVCAr@@PAEK@ZU?$less@K@std@@V?$allocator@U?$pair@$$CBKP8CDPCoreSrvr@@AEXAAVCAr@@PAEK@Z@std@@@4@$0A@@std@@@std@@KAABKPAU_Node@?$_Tree_nod@V?$_Tmap_traits@KP8CDPCoreSrvr@@AEXAAVCAr@@PAEK@ZU?$less@K@std@@V?$allocator@U?$pair@$$CBKP8CDPCoreSrvr@@AEXAAVCAr@@PAEK@Z@std@@@4@$0A@@std@@@2@@Z
_TEXT	SEGMENT PARA USE32 PUBLIC 'CODE'
_TEXT	ENDS
;	COMDAT ?lower_bound@?$_Tree@V?$_Tmap_traits@KP8CDPCoreSrvr@@AEXAAVCAr@@PAEK@ZU?$less@K@std@@V?$allocator@U?$pair@$$CBKP8CDPCoreSrvr@@AEXAAVCAr@@PAEK@Z@std@@@4@$0A@@std@@@std@@QAE?AViterator@12@ABK@Z
_TEXT	SEGMENT PARA USE32 PUBLIC 'CODE'
_TEXT	ENDS
;	COMDAT ??0iterator@?$_Tree@V?$_Tmap_traits@KP8CDPCoreSrvr@@AEXAAVCAr@@PAEK@ZU?$less@K@std@@V?$allocator@U?$pair@$$CBKP8CDPCoreSrvr@@AEXAAVCAr@@PAEK@Z@std@@@4@$0A@@std@@@std@@QAE@PAU_Node@?$_Tree_nod@V?$_Tmap_traits@KP8CDPCoreSrvr@@AEXAAVCAr@@PAEK@ZU?$less@K@std@@V?$allocator@U?$pair@$$CBKP8CDPCoreSrvr@@AEXAAVCAr@@PAEK@Z@std@@@4@$0A@@std@@@2@@Z
_TEXT	SEGMENT PARA USE32 PUBLIC 'CODE'
_TEXT	ENDS
;	COMDAT ??Diterator@?$_Tree@V?$_Tmap_traits@KP8CDPCoreSrvr@@AEXAAVCAr@@PAEK@ZU?$less@K@std@@V?$allocator@U?$pair@$$CBKP8CDPCoreSrvr@@AEXAAVCAr@@PAEK@Z@std@@@4@$0A@@std@@@std@@QBEAAU?$pair@$$CBKP8CDPCoreSrvr@@AEXAAVCAr@@PAEK@Z@2@XZ
_TEXT	SEGMENT PARA USE32 PUBLIC 'CODE'
_TEXT	ENDS
;	COMDAT ??8const_iterator@?$_Tree@V?$_Tmap_traits@KP8CDPCoreSrvr@@AEXAAVCAr@@PAEK@ZU?$less@K@std@@V?$allocator@U?$pair@$$CBKP8CDPCoreSrvr@@AEXAAVCAr@@PAEK@Z@std@@@4@$0A@@std@@@std@@QBE_NABV012@@Z
_TEXT	SEGMENT PARA USE32 PUBLIC 'CODE'
_TEXT	ENDS
;	COMDAT ?_Mynode@const_iterator@?$_Tree@V?$_Tmap_traits@KP8CDPCoreSrvr@@AEXAAVCAr@@PAEK@ZU?$less@K@std@@V?$allocator@U?$pair@$$CBKP8CDPCoreSrvr@@AEXAAVCAr@@PAEK@Z@std@@@4@$0A@@std@@@std@@QBEPAU_Node@?$_Tree_nod@V?$_Tmap_traits@KP8CDPCoreSrvr@@AEXAAVCAr@@PAEK@ZU?$less@K@std@@V?$allocator@U?$pair@$$CBKP8CDPCoreSrvr@@AEXAAVCAr@@PAEK@Z@std@@@4@$0A@@std@@@3@XZ
_TEXT	SEGMENT PARA USE32 PUBLIC 'CODE'
_TEXT	ENDS
;	COMDAT ??0iterator@?$vector@KV?$allocator@K@std@@@std@@QAE@PAK@Z
_TEXT	SEGMENT PARA USE32 PUBLIC 'CODE'
_TEXT	ENDS
;	COMDAT ??Dconst_iterator@?$vector@KV?$allocator@K@std@@@std@@QBEABKXZ
_TEXT	SEGMENT PARA USE32 PUBLIC 'CODE'
_TEXT	ENDS
;	COMDAT ??8const_iterator@?$vector@KV?$allocator@K@std@@@std@@QBE_NABV012@@Z
_TEXT	SEGMENT PARA USE32 PUBLIC 'CODE'
_TEXT	ENDS
;	COMDAT ??0?$allocator@H@std@@QAE@ABV01@@Z
_TEXT	SEGMENT PARA USE32 PUBLIC 'CODE'
_TEXT	ENDS
;	COMDAT ?deallocate@?$allocator@H@std@@QAEXPAHI@Z
_TEXT	SEGMENT PARA USE32 PUBLIC 'CODE'
_TEXT	ENDS
;	COMDAT ?allocate@?$allocator@H@std@@QAEPAHI@Z
_TEXT	SEGMENT PARA USE32 PUBLIC 'CODE'
_TEXT	ENDS
;	COMDAT ?begin@?$_Tree@V?$_Tmap_traits@KKU?$less@K@std@@V?$allocator@U?$pair@$$CBKK@std@@@2@$0A@@std@@@std@@QAE?AViterator@12@XZ
_TEXT	SEGMENT PARA USE32 PUBLIC 'CODE'
_TEXT	ENDS
;	COMDAT ?end@?$_Tree@V?$_Tmap_traits@KKU?$less@K@std@@V?$allocator@U?$pair@$$CBKK@std@@@2@$0A@@std@@@std@@QAE?AViterator@12@XZ
_TEXT	SEGMENT PARA USE32 PUBLIC 'CODE'
_TEXT	ENDS
;	COMDAT ?erase@?$_Tree@V?$_Tmap_traits@KKU?$less@K@std@@V?$allocator@U?$pair@$$CBKK@std@@@2@$0A@@std@@@std@@QAE?AViterator@12@V312@@Z
_TEXT	SEGMENT PARA USE32 PUBLIC 'CODE'
_TEXT	ENDS
;	COMDAT ?clear@?$_Tree@V?$_Tmap_traits@KKU?$less@K@std@@V?$allocator@U?$pair@$$CBKK@std@@@2@$0A@@std@@@std@@QAEXXZ
_TEXT	SEGMENT PARA USE32 PUBLIC 'CODE'
_TEXT	ENDS
;	COMDAT ?lower_bound@?$_Tree@V?$_Tmap_traits@KKU?$less@K@std@@V?$allocator@U?$pair@$$CBKK@std@@@2@$0A@@std@@@std@@QAE?AViterator@12@ABK@Z
_TEXT	SEGMENT PARA USE32 PUBLIC 'CODE'
_TEXT	ENDS
;	COMDAT ?upper_bound@?$_Tree@V?$_Tmap_traits@KKU?$less@K@std@@V?$allocator@U?$pair@$$CBKK@std@@@2@$0A@@std@@@std@@QAE?AViterator@12@ABK@Z
_TEXT	SEGMENT PARA USE32 PUBLIC 'CODE'
_TEXT	ENDS
;	COMDAT ??Eiterator@?$_Tree@V?$_Tmap_traits@KKU?$less@K@std@@V?$allocator@U?$pair@$$CBKK@std@@@2@$0A@@std@@@std@@QAE?AV012@H@Z
_TEXT	SEGMENT PARA USE32 PUBLIC 'CODE'
_TEXT	ENDS
;	COMDAT ??8const_iterator@?$_Tree@V?$_Tmap_traits@KKU?$less@K@std@@V?$allocator@U?$pair@$$CBKK@std@@@2@$0A@@std@@@std@@QBE_NABV012@@Z
_TEXT	SEGMENT PARA USE32 PUBLIC 'CODE'
_TEXT	ENDS
;	COMDAT ??9const_iterator@?$_Tree@V?$_Tmap_traits@KKU?$less@K@std@@V?$allocator@U?$pair@$$CBKK@std@@@2@$0A@@std@@@std@@QBE_NABV012@@Z
_TEXT	SEGMENT PARA USE32 PUBLIC 'CODE'
_TEXT	ENDS
;	COMDAT ?max_size@?$vector@MV?$allocator@M@std@@@std@@QBEIXZ
_TEXT	SEGMENT PARA USE32 PUBLIC 'CODE'
_TEXT	ENDS
;	COMDAT ?_Destroy@?$vector@MV?$allocator@M@std@@@std@@IAEXPAM0@Z
_TEXT	SEGMENT PARA USE32 PUBLIC 'CODE'
_TEXT	ENDS
;	COMDAT ?_Xlen@?$vector@MV?$allocator@M@std@@@std@@IBEXXZ
_TEXT	SEGMENT PARA USE32 PUBLIC 'CODE'
_TEXT	ENDS
;	COMDAT ??0?$allocator@M@std@@QAE@ABV01@@Z
_TEXT	SEGMENT PARA USE32 PUBLIC 'CODE'
_TEXT	ENDS
;	COMDAT ?deallocate@?$allocator@M@std@@QAEXPAMI@Z
_TEXT	SEGMENT PARA USE32 PUBLIC 'CODE'
_TEXT	ENDS
;	COMDAT ?allocate@?$allocator@M@std@@QAEPAMI@Z
_TEXT	SEGMENT PARA USE32 PUBLIC 'CODE'
_TEXT	ENDS
;	COMDAT ?max_size@?$vector@HV?$allocator@H@std@@@std@@QBEIXZ
_TEXT	SEGMENT PARA USE32 PUBLIC 'CODE'
_TEXT	ENDS
;	COMDAT ?_Destroy@?$vector@HV?$allocator@H@std@@@std@@IAEXPAH0@Z
_TEXT	SEGMENT PARA USE32 PUBLIC 'CODE'
_TEXT	ENDS
;	COMDAT ?_Xlen@?$vector@HV?$allocator@H@std@@@std@@IBEXXZ
_TEXT	SEGMENT PARA USE32 PUBLIC 'CODE'
_TEXT	ENDS
;	COMDAT ?_Myval@?$_Tree@V?$_Tmap_traits@KP8CDPTrans@@AEXAAVCAr@@KKKPAEK@ZU?$less@K@std@@V?$allocator@U?$pair@$$CBKP8CDPTrans@@AEXAAVCAr@@KKKPAEK@Z@std@@@4@$0A@@std@@@std@@KAAAU?$pair@$$CBKP8CDPTrans@@AEXAAVCAr@@KKKPAEK@Z@2@PAU_Node@?$_Tree_nod@V?$_Tmap_traits@KP8CDPTrans@@AEXAAVCAr@@KKKPAEK@ZU?$less@K@std@@V?$allocator@U?$pair@$$CBKP8CDPTrans@@AEXAAVCAr@@KKKPAEK@Z@std@@@4@$0A@@std@@@2@@Z
_TEXT	SEGMENT PARA USE32 PUBLIC 'CODE'
_TEXT	ENDS
;	COMDAT ?_Lbound@?$_Tree@V?$_Tmap_traits@KP8CDPTrans@@AEXAAVCAr@@KKKPAEK@ZU?$less@K@std@@V?$allocator@U?$pair@$$CBKP8CDPTrans@@AEXAAVCAr@@KKKPAEK@Z@std@@@4@$0A@@std@@@std@@IBEPAU_Node@?$_Tree_nod@V?$_Tmap_traits@KP8CDPTrans@@AEXAAVCAr@@KKKPAEK@ZU?$less@K@std@@V?$allocator@U?$pair@$$CBKP8CDPTrans@@AEXAAVCAr@@KKKPAEK@Z@std@@@4@$0A@@std@@@2@ABK@Z
_TEXT	SEGMENT PARA USE32 PUBLIC 'CODE'
_TEXT	ENDS
;	COMDAT ?_Kfn@?$_Tmap_traits@KP8CDPTrans@@AEXAAVCAr@@KKKPAEK@ZU?$less@K@std@@V?$allocator@U?$pair@$$CBKP8CDPTrans@@AEXAAVCAr@@KKKPAEK@Z@std@@@4@$0A@@std@@SAABKABU?$pair@$$CBKP8CDPTrans@@AEXAAVCAr@@KKKPAEK@Z@2@@Z
_TEXT	SEGMENT PARA USE32 PUBLIC 'CODE'
_TEXT	ENDS
;	COMDAT ??0const_iterator@?$_Tree@V?$_Tmap_traits@KP8CDPTrans@@AEXAAVCAr@@KKKPAEK@ZU?$less@K@std@@V?$allocator@U?$pair@$$CBKP8CDPTrans@@AEXAAVCAr@@KKKPAEK@Z@std@@@4@$0A@@std@@@std@@QAE@PAU_Node@?$_Tree_nod@V?$_Tmap_traits@KP8CDPTrans@@AEXAAVCAr@@KKKPAEK@ZU?$less@K@std@@V?$allocator@U?$pair@$$CBKP8CDPTrans@@AEXAAVCAr@@KKKPAEK@Z@std@@@4@$0A@@std@@@2@@Z
_TEXT	SEGMENT PARA USE32 PUBLIC 'CODE'
_TEXT	ENDS
;	COMDAT ??Dconst_iterator@?$_Tree@V?$_Tmap_traits@KP8CDPTrans@@AEXAAVCAr@@KKKPAEK@ZU?$less@K@std@@V?$allocator@U?$pair@$$CBKP8CDPTrans@@AEXAAVCAr@@KKKPAEK@Z@std@@@4@$0A@@std@@@std@@QBEABU?$pair@$$CBKP8CDPTrans@@AEXAAVCAr@@KKKPAEK@Z@2@XZ
_TEXT	SEGMENT PARA USE32 PUBLIC 'CODE'
_TEXT	ENDS
;	COMDAT ?_Myval@?$_Tree@V?$_Tmap_traits@KP8CDPCoreSrvr@@AEXAAVCAr@@PAEK@ZU?$less@K@std@@V?$allocator@U?$pair@$$CBKP8CDPCoreSrvr@@AEXAAVCAr@@PAEK@Z@std@@@4@$0A@@std@@@std@@KAAAU?$pair@$$CBKP8CDPCoreSrvr@@AEXAAVCAr@@PAEK@Z@2@PAU_Node@?$_Tree_nod@V?$_Tmap_traits@KP8CDPCoreSrvr@@AEXAAVCAr@@PAEK@ZU?$less@K@std@@V?$allocator@U?$pair@$$CBKP8CDPCoreSrvr@@AEXAAVCAr@@PAEK@Z@std@@@4@$0A@@std@@@2@@Z
_TEXT	SEGMENT PARA USE32 PUBLIC 'CODE'
_TEXT	ENDS
;	COMDAT ?_Lbound@?$_Tree@V?$_Tmap_traits@KP8CDPCoreSrvr@@AEXAAVCAr@@PAEK@ZU?$less@K@std@@V?$allocator@U?$pair@$$CBKP8CDPCoreSrvr@@AEXAAVCAr@@PAEK@Z@std@@@4@$0A@@std@@@std@@IBEPAU_Node@?$_Tree_nod@V?$_Tmap_traits@KP8CDPCoreSrvr@@AEXAAVCAr@@PAEK@ZU?$less@K@std@@V?$allocator@U?$pair@$$CBKP8CDPCoreSrvr@@AEXAAVCAr@@PAEK@Z@std@@@4@$0A@@std@@@2@ABK@Z
_TEXT	SEGMENT PARA USE32 PUBLIC 'CODE'
_TEXT	ENDS
;	COMDAT ?_Kfn@?$_Tmap_traits@KP8CDPCoreSrvr@@AEXAAVCAr@@PAEK@ZU?$less@K@std@@V?$allocator@U?$pair@$$CBKP8CDPCoreSrvr@@AEXAAVCAr@@PAEK@Z@std@@@4@$0A@@std@@SAABKABU?$pair@$$CBKP8CDPCoreSrvr@@AEXAAVCAr@@PAEK@Z@2@@Z
_TEXT	SEGMENT PARA USE32 PUBLIC 'CODE'
_TEXT	ENDS
;	COMDAT ??0const_iterator@?$_Tree@V?$_Tmap_traits@KP8CDPCoreSrvr@@AEXAAVCAr@@PAEK@ZU?$less@K@std@@V?$allocator@U?$pair@$$CBKP8CDPCoreSrvr@@AEXAAVCAr@@PAEK@Z@std@@@4@$0A@@std@@@std@@QAE@PAU_Node@?$_Tree_nod@V?$_Tmap_traits@KP8CDPCoreSrvr@@AEXAAVCAr@@PAEK@ZU?$less@K@std@@V?$allocator@U?$pair@$$CBKP8CDPCoreSrvr@@AEXAAVCAr@@PAEK@Z@std@@@4@$0A@@std@@@2@@Z
_TEXT	SEGMENT PARA USE32 PUBLIC 'CODE'
_TEXT	ENDS
;	COMDAT ??Dconst_iterator@?$_Tree@V?$_Tmap_traits@KP8CDPCoreSrvr@@AEXAAVCAr@@PAEK@ZU?$less@K@std@@V?$allocator@U?$pair@$$CBKP8CDPCoreSrvr@@AEXAAVCAr@@PAEK@Z@std@@@4@$0A@@std@@@std@@QBEABU?$pair@$$CBKP8CDPCoreSrvr@@AEXAAVCAr@@PAEK@Z@2@XZ
_TEXT	SEGMENT PARA USE32 PUBLIC 'CODE'
_TEXT	ENDS
;	COMDAT ??0const_iterator@?$vector@KV?$allocator@K@std@@@std@@QAE@PAK@Z
_TEXT	SEGMENT PARA USE32 PUBLIC 'CODE'
_TEXT	ENDS
;	COMDAT ??0?$pair@Viterator@?$_Tree@V?$_Tmap_traits@KKU?$less@K@std@@V?$allocator@U?$pair@$$CBKK@std@@@2@$0A@@std@@@std@@V123@@std@@QAE@ABViterator@?$_Tree@V?$_Tmap_traits@KKU?$less@K@std@@V?$allocator@U?$pair@$$CBKK@std@@@2@$0A@@std@@@1@0@Z
_TEXT	SEGMENT PARA USE32 PUBLIC 'CODE'
_TEXT	ENDS
;	COMDAT ?max_size@?$allocator@H@std@@QBEIXZ
_TEXT	SEGMENT PARA USE32 PUBLIC 'CODE'
_TEXT	ENDS
;	COMDAT ?_Color@?$_Tree@V?$_Tmap_traits@KKU?$less@K@std@@V?$allocator@U?$pair@$$CBKK@std@@@2@$0A@@std@@@std@@KAAADPAU_Node@?$_Tree_nod@V?$_Tmap_traits@KKU?$less@K@std@@V?$allocator@U?$pair@$$CBKK@std@@@2@$0A@@std@@@2@@Z
_TEXT	SEGMENT PARA USE32 PUBLIC 'CODE'
_TEXT	ENDS
;	COMDAT ?_Isnil@?$_Tree@V?$_Tmap_traits@KKU?$less@K@std@@V?$allocator@U?$pair@$$CBKK@std@@@2@$0A@@std@@@std@@KAAADPAU_Node@?$_Tree_nod@V?$_Tmap_traits@KKU?$less@K@std@@V?$allocator@U?$pair@$$CBKK@std@@@2@$0A@@std@@@2@@Z
_TEXT	SEGMENT PARA USE32 PUBLIC 'CODE'
_TEXT	ENDS
;	COMDAT ?_Left@?$_Tree@V?$_Tmap_traits@KKU?$less@K@std@@V?$allocator@U?$pair@$$CBKK@std@@@2@$0A@@std@@@std@@KAAAPAU_Node@?$_Tree_nod@V?$_Tmap_traits@KKU?$less@K@std@@V?$allocator@U?$pair@$$CBKK@std@@@2@$0A@@std@@@2@PAU342@@Z
_TEXT	SEGMENT PARA USE32 PUBLIC 'CODE'
_TEXT	ENDS
;	COMDAT ?_Parent@?$_Tree@V?$_Tmap_traits@KKU?$less@K@std@@V?$allocator@U?$pair@$$CBKK@std@@@2@$0A@@std@@@std@@KAAAPAU_Node@?$_Tree_nod@V?$_Tmap_traits@KKU?$less@K@std@@V?$allocator@U?$pair@$$CBKK@std@@@2@$0A@@std@@@2@PAU342@@Z
_TEXT	SEGMENT PARA USE32 PUBLIC 'CODE'
_TEXT	ENDS
;	COMDAT ?_Right@?$_Tree@V?$_Tmap_traits@KKU?$less@K@std@@V?$allocator@U?$pair@$$CBKK@std@@@2@$0A@@std@@@std@@KAAAPAU_Node@?$_Tree_nod@V?$_Tmap_traits@KKU?$less@K@std@@V?$allocator@U?$pair@$$CBKK@std@@@2@$0A@@std@@@2@PAU342@@Z
_TEXT	SEGMENT PARA USE32 PUBLIC 'CODE'
_TEXT	ENDS
;	COMDAT ?_Erase@?$_Tree@V?$_Tmap_traits@KKU?$less@K@std@@V?$allocator@U?$pair@$$CBKK@std@@@2@$0A@@std@@@std@@IAEXPAU_Node@?$_Tree_nod@V?$_Tmap_traits@KKU?$less@K@std@@V?$allocator@U?$pair@$$CBKK@std@@@2@$0A@@std@@@2@@Z
_TEXT	SEGMENT PARA USE32 PUBLIC 'CODE'
_TEXT	ENDS
;	COMDAT ?_Lbound@?$_Tree@V?$_Tmap_traits@KKU?$less@K@std@@V?$allocator@U?$pair@$$CBKK@std@@@2@$0A@@std@@@std@@IBEPAU_Node@?$_Tree_nod@V?$_Tmap_traits@KKU?$less@K@std@@V?$allocator@U?$pair@$$CBKK@std@@@2@$0A@@std@@@2@ABK@Z
_TEXT	SEGMENT PARA USE32 PUBLIC 'CODE'
_TEXT	ENDS
;	COMDAT ?_Lmost@?$_Tree@V?$_Tmap_traits@KKU?$less@K@std@@V?$allocator@U?$pair@$$CBKK@std@@@2@$0A@@std@@@std@@IAEAAPAU_Node@?$_Tree_nod@V?$_Tmap_traits@KKU?$less@K@std@@V?$allocator@U?$pair@$$CBKK@std@@@2@$0A@@std@@@2@XZ
_TEXT	SEGMENT PARA USE32 PUBLIC 'CODE'
_TEXT	ENDS
;	COMDAT ?_Lrotate@?$_Tree@V?$_Tmap_traits@KKU?$less@K@std@@V?$allocator@U?$pair@$$CBKK@std@@@2@$0A@@std@@@std@@IAEXPAU_Node@?$_Tree_nod@V?$_Tmap_traits@KKU?$less@K@std@@V?$allocator@U?$pair@$$CBKK@std@@@2@$0A@@std@@@2@@Z
_TEXT	SEGMENT PARA USE32 PUBLIC 'CODE'
_TEXT	ENDS
;	COMDAT ?_Max@?$_Tree@V?$_Tmap_traits@KKU?$less@K@std@@V?$allocator@U?$pair@$$CBKK@std@@@2@$0A@@std@@@std@@KAPAU_Node@?$_Tree_nod@V?$_Tmap_traits@KKU?$less@K@std@@V?$allocator@U?$pair@$$CBKK@std@@@2@$0A@@std@@@2@PAU342@@Z
_TEXT	SEGMENT PARA USE32 PUBLIC 'CODE'
_TEXT	ENDS
;	COMDAT ?_Min@?$_Tree@V?$_Tmap_traits@KKU?$less@K@std@@V?$allocator@U?$pair@$$CBKK@std@@@2@$0A@@std@@@std@@KAPAU_Node@?$_Tree_nod@V?$_Tmap_traits@KKU?$less@K@std@@V?$allocator@U?$pair@$$CBKK@std@@@2@$0A@@std@@@2@PAU342@@Z
_TEXT	SEGMENT PARA USE32 PUBLIC 'CODE'
_TEXT	ENDS
;	COMDAT ?_Rmost@?$_Tree@V?$_Tmap_traits@KKU?$less@K@std@@V?$allocator@U?$pair@$$CBKK@std@@@2@$0A@@std@@@std@@IAEAAPAU_Node@?$_Tree_nod@V?$_Tmap_traits@KKU?$less@K@std@@V?$allocator@U?$pair@$$CBKK@std@@@2@$0A@@std@@@2@XZ
_TEXT	SEGMENT PARA USE32 PUBLIC 'CODE'
_TEXT	ENDS
;	COMDAT ?_Root@?$_Tree@V?$_Tmap_traits@KKU?$less@K@std@@V?$allocator@U?$pair@$$CBKK@std@@@2@$0A@@std@@@std@@IAEAAPAU_Node@?$_Tree_nod@V?$_Tmap_traits@KKU?$less@K@std@@V?$allocator@U?$pair@$$CBKK@std@@@2@$0A@@std@@@2@XZ
_TEXT	SEGMENT PARA USE32 PUBLIC 'CODE'
_TEXT	ENDS
;	COMDAT ?_Rrotate@?$_Tree@V?$_Tmap_traits@KKU?$less@K@std@@V?$allocator@U?$pair@$$CBKK@std@@@2@$0A@@std@@@std@@IAEXPAU_Node@?$_Tree_nod@V?$_Tmap_traits@KKU?$less@K@std@@V?$allocator@U?$pair@$$CBKK@std@@@2@$0A@@std@@@2@@Z
_TEXT	SEGMENT PARA USE32 PUBLIC 'CODE'
_TEXT	ENDS
;	COMDAT ?_Ubound@?$_Tree@V?$_Tmap_traits@KKU?$less@K@std@@V?$allocator@U?$pair@$$CBKK@std@@@2@$0A@@std@@@std@@IBEPAU_Node@?$_Tree_nod@V?$_Tmap_traits@KKU?$less@K@std@@V?$allocator@U?$pair@$$CBKK@std@@@2@$0A@@std@@@2@ABK@Z
_TEXT	SEGMENT PARA USE32 PUBLIC 'CODE'
_TEXT	ENDS
;	COMDAT ?deallocate@?$allocator@U_Node@?$_Tree_nod@V?$_Tmap_traits@KKU?$less@K@std@@V?$allocator@U?$pair@$$CBKK@std@@@2@$0A@@std@@@std@@@std@@QAEXPAU_Node@?$_Tree_nod@V?$_Tmap_traits@KKU?$less@K@std@@V?$allocator@U?$pair@$$CBKK@std@@@2@$0A@@std@@@2@I@Z
_TEXT	SEGMENT PARA USE32 PUBLIC 'CODE'
_TEXT	ENDS
;	COMDAT ?destroy@?$allocator@U_Node@?$_Tree_nod@V?$_Tmap_traits@KKU?$less@K@std@@V?$allocator@U?$pair@$$CBKK@std@@@2@$0A@@std@@@std@@@std@@QAEXPAU_Node@?$_Tree_nod@V?$_Tmap_traits@KKU?$less@K@std@@V?$allocator@U?$pair@$$CBKK@std@@@2@$0A@@std@@@2@@Z
_TEXT	SEGMENT PARA USE32 PUBLIC 'CODE'
_TEXT	ENDS
;	COMDAT ??0iterator@?$_Tree@V?$_Tmap_traits@KKU?$less@K@std@@V?$allocator@U?$pair@$$CBKK@std@@@2@$0A@@std@@@std@@QAE@PAU_Node@?$_Tree_nod@V?$_Tmap_traits@KKU?$less@K@std@@V?$allocator@U?$pair@$$CBKK@std@@@2@$0A@@std@@@2@@Z
_TEXT	SEGMENT PARA USE32 PUBLIC 'CODE'
_TEXT	ENDS
;	COMDAT ??Eiterator@?$_Tree@V?$_Tmap_traits@KKU?$less@K@std@@V?$allocator@U?$pair@$$CBKK@std@@@2@$0A@@std@@@std@@QAEAAV012@XZ
_TEXT	SEGMENT PARA USE32 PUBLIC 'CODE'
_TEXT	ENDS
;	COMDAT ?_Mynode@const_iterator@?$_Tree@V?$_Tmap_traits@KKU?$less@K@std@@V?$allocator@U?$pair@$$CBKK@std@@@2@$0A@@std@@@std@@QBEPAU_Node@?$_Tree_nod@V?$_Tmap_traits@KKU?$less@K@std@@V?$allocator@U?$pair@$$CBKK@std@@@2@$0A@@std@@@3@XZ
_TEXT	SEGMENT PARA USE32 PUBLIC 'CODE'
_TEXT	ENDS
;	COMDAT ?max_size@?$allocator@M@std@@QBEIXZ
_TEXT	SEGMENT PARA USE32 PUBLIC 'CODE'
_TEXT	ENDS
;	COMDAT ?_Isnil@?$_Tree@V?$_Tmap_traits@KP8CDPTrans@@AEXAAVCAr@@KKKPAEK@ZU?$less@K@std@@V?$allocator@U?$pair@$$CBKP8CDPTrans@@AEXAAVCAr@@KKKPAEK@Z@std@@@4@$0A@@std@@@std@@KAAADPAU_Node@?$_Tree_nod@V?$_Tmap_traits@KP8CDPTrans@@AEXAAVCAr@@KKKPAEK@ZU?$less@K@std@@V?$allocator@U?$pair@$$CBKP8CDPTrans@@AEXAAVCAr@@KKKPAEK@Z@std@@@4@$0A@@std@@@2@@Z
_TEXT	SEGMENT PARA USE32 PUBLIC 'CODE'
_TEXT	ENDS
;	COMDAT ?_Left@?$_Tree@V?$_Tmap_traits@KP8CDPTrans@@AEXAAVCAr@@KKKPAEK@ZU?$less@K@std@@V?$allocator@U?$pair@$$CBKP8CDPTrans@@AEXAAVCAr@@KKKPAEK@Z@std@@@4@$0A@@std@@@std@@KAAAPAU_Node@?$_Tree_nod@V?$_Tmap_traits@KP8CDPTrans@@AEXAAVCAr@@KKKPAEK@ZU?$less@K@std@@V?$allocator@U?$pair@$$CBKP8CDPTrans@@AEXAAVCAr@@KKKPAEK@Z@std@@@4@$0A@@std@@@2@PAU342@@Z
_TEXT	SEGMENT PARA USE32 PUBLIC 'CODE'
_TEXT	ENDS
;	COMDAT ?_Right@?$_Tree@V?$_Tmap_traits@KP8CDPTrans@@AEXAAVCAr@@KKKPAEK@ZU?$less@K@std@@V?$allocator@U?$pair@$$CBKP8CDPTrans@@AEXAAVCAr@@KKKPAEK@Z@std@@@4@$0A@@std@@@std@@KAAAPAU_Node@?$_Tree_nod@V?$_Tmap_traits@KP8CDPTrans@@AEXAAVCAr@@KKKPAEK@ZU?$less@K@std@@V?$allocator@U?$pair@$$CBKP8CDPTrans@@AEXAAVCAr@@KKKPAEK@Z@std@@@4@$0A@@std@@@2@PAU342@@Z
_TEXT	SEGMENT PARA USE32 PUBLIC 'CODE'
_TEXT	ENDS
;	COMDAT ?_Root@?$_Tree@V?$_Tmap_traits@KP8CDPTrans@@AEXAAVCAr@@KKKPAEK@ZU?$less@K@std@@V?$allocator@U?$pair@$$CBKP8CDPTrans@@AEXAAVCAr@@KKKPAEK@Z@std@@@4@$0A@@std@@@std@@IBEAAPAU_Node@?$_Tree_nod@V?$_Tmap_traits@KP8CDPTrans@@AEXAAVCAr@@KKKPAEK@ZU?$less@K@std@@V?$allocator@U?$pair@$$CBKP8CDPTrans@@AEXAAVCAr@@KKKPAEK@Z@std@@@4@$0A@@std@@@2@XZ
_TEXT	SEGMENT PARA USE32 PUBLIC 'CODE'
_TEXT	ENDS
;	COMDAT ?_Isnil@?$_Tree@V?$_Tmap_traits@KP8CDPCoreSrvr@@AEXAAVCAr@@PAEK@ZU?$less@K@std@@V?$allocator@U?$pair@$$CBKP8CDPCoreSrvr@@AEXAAVCAr@@PAEK@Z@std@@@4@$0A@@std@@@std@@KAAADPAU_Node@?$_Tree_nod@V?$_Tmap_traits@KP8CDPCoreSrvr@@AEXAAVCAr@@PAEK@ZU?$less@K@std@@V?$allocator@U?$pair@$$CBKP8CDPCoreSrvr@@AEXAAVCAr@@PAEK@Z@std@@@4@$0A@@std@@@2@@Z
_TEXT	SEGMENT PARA USE32 PUBLIC 'CODE'
_TEXT	ENDS
;	COMDAT ?_Left@?$_Tree@V?$_Tmap_traits@KP8CDPCoreSrvr@@AEXAAVCAr@@PAEK@ZU?$less@K@std@@V?$allocator@U?$pair@$$CBKP8CDPCoreSrvr@@AEXAAVCAr@@PAEK@Z@std@@@4@$0A@@std@@@std@@KAAAPAU_Node@?$_Tree_nod@V?$_Tmap_traits@KP8CDPCoreSrvr@@AEXAAVCAr@@PAEK@ZU?$less@K@std@@V?$allocator@U?$pair@$$CBKP8CDPCoreSrvr@@AEXAAVCAr@@PAEK@Z@std@@@4@$0A@@std@@@2@PAU342@@Z
_TEXT	SEGMENT PARA USE32 PUBLIC 'CODE'
_TEXT	ENDS
;	COMDAT ?_Right@?$_Tree@V?$_Tmap_traits@KP8CDPCoreSrvr@@AEXAAVCAr@@PAEK@ZU?$less@K@std@@V?$allocator@U?$pair@$$CBKP8CDPCoreSrvr@@AEXAAVCAr@@PAEK@Z@std@@@4@$0A@@std@@@std@@KAAAPAU_Node@?$_Tree_nod@V?$_Tmap_traits@KP8CDPCoreSrvr@@AEXAAVCAr@@PAEK@ZU?$less@K@std@@V?$allocator@U?$pair@$$CBKP8CDPCoreSrvr@@AEXAAVCAr@@PAEK@Z@std@@@4@$0A@@std@@@2@PAU342@@Z
_TEXT	SEGMENT PARA USE32 PUBLIC 'CODE'
_TEXT	ENDS
;	COMDAT ?_Root@?$_Tree@V?$_Tmap_traits@KP8CDPCoreSrvr@@AEXAAVCAr@@PAEK@ZU?$less@K@std@@V?$allocator@U?$pair@$$CBKP8CDPCoreSrvr@@AEXAAVCAr@@PAEK@Z@std@@@4@$0A@@std@@@std@@IBEAAPAU_Node@?$_Tree_nod@V?$_Tmap_traits@KP8CDPCoreSrvr@@AEXAAVCAr@@PAEK@ZU?$less@K@std@@V?$allocator@U?$pair@$$CBKP8CDPCoreSrvr@@AEXAAVCAr@@PAEK@Z@std@@@4@$0A@@std@@@2@XZ
_TEXT	SEGMENT PARA USE32 PUBLIC 'CODE'
_TEXT	ENDS
;	COMDAT ?_Key@?$_Tree@V?$_Tmap_traits@KKU?$less@K@std@@V?$allocator@U?$pair@$$CBKK@std@@@2@$0A@@std@@@std@@KAABKPAU_Node@?$_Tree_nod@V?$_Tmap_traits@KKU?$less@K@std@@V?$allocator@U?$pair@$$CBKK@std@@@2@$0A@@std@@@2@@Z
_TEXT	SEGMENT PARA USE32 PUBLIC 'CODE'
_TEXT	ENDS
;	COMDAT ?_Root@?$_Tree@V?$_Tmap_traits@KKU?$less@K@std@@V?$allocator@U?$pair@$$CBKK@std@@@2@$0A@@std@@@std@@IBEAAPAU_Node@?$_Tree_nod@V?$_Tmap_traits@KKU?$less@K@std@@V?$allocator@U?$pair@$$CBKK@std@@@2@$0A@@std@@@2@XZ
_TEXT	SEGMENT PARA USE32 PUBLIC 'CODE'
_TEXT	ENDS
;	COMDAT ??0const_iterator@?$_Tree@V?$_Tmap_traits@KKU?$less@K@std@@V?$allocator@U?$pair@$$CBKK@std@@@2@$0A@@std@@@std@@QAE@PAU_Node@?$_Tree_nod@V?$_Tmap_traits@KKU?$less@K@std@@V?$allocator@U?$pair@$$CBKK@std@@@2@$0A@@std@@@2@@Z
_TEXT	SEGMENT PARA USE32 PUBLIC 'CODE'
_TEXT	ENDS
;	COMDAT ??Econst_iterator@?$_Tree@V?$_Tmap_traits@KKU?$less@K@std@@V?$allocator@U?$pair@$$CBKK@std@@@2@$0A@@std@@@std@@QAEAAV012@XZ
_TEXT	SEGMENT PARA USE32 PUBLIC 'CODE'
_TEXT	ENDS
;	COMDAT ?_Parent@?$_Tree@V?$_Tmap_traits@KP8CDPTrans@@AEXAAVCAr@@KKKPAEK@ZU?$less@K@std@@V?$allocator@U?$pair@$$CBKP8CDPTrans@@AEXAAVCAr@@KKKPAEK@Z@std@@@4@$0A@@std@@@std@@KAAAPAU_Node@?$_Tree_nod@V?$_Tmap_traits@KP8CDPTrans@@AEXAAVCAr@@KKKPAEK@ZU?$less@K@std@@V?$allocator@U?$pair@$$CBKP8CDPTrans@@AEXAAVCAr@@KKKPAEK@Z@std@@@4@$0A@@std@@@2@PAU342@@Z
_TEXT	SEGMENT PARA USE32 PUBLIC 'CODE'
_TEXT	ENDS
;	COMDAT ?_Parent@?$_Tree@V?$_Tmap_traits@KP8CDPCoreSrvr@@AEXAAVCAr@@PAEK@ZU?$less@K@std@@V?$allocator@U?$pair@$$CBKP8CDPCoreSrvr@@AEXAAVCAr@@PAEK@Z@std@@@4@$0A@@std@@@std@@KAAAPAU_Node@?$_Tree_nod@V?$_Tmap_traits@KP8CDPCoreSrvr@@AEXAAVCAr@@PAEK@ZU?$less@K@std@@V?$allocator@U?$pair@$$CBKP8CDPCoreSrvr@@AEXAAVCAr@@PAEK@Z@std@@@4@$0A@@std@@@2@PAU342@@Z
_TEXT	SEGMENT PARA USE32 PUBLIC 'CODE'
_TEXT	ENDS
;	COMDAT ?_Myval@?$_Tree@V?$_Tmap_traits@KKU?$less@K@std@@V?$allocator@U?$pair@$$CBKK@std@@@2@$0A@@std@@@std@@KAAAU?$pair@$$CBKK@2@PAU_Node@?$_Tree_nod@V?$_Tmap_traits@KKU?$less@K@std@@V?$allocator@U?$pair@$$CBKK@std@@@2@$0A@@std@@@2@@Z
_TEXT	SEGMENT PARA USE32 PUBLIC 'CODE'
_TEXT	ENDS
;	COMDAT ?_Kfn@?$_Tmap_traits@KKU?$less@K@std@@V?$allocator@U?$pair@$$CBKK@std@@@2@$0A@@std@@SAABKABU?$pair@$$CBKK@2@@Z
_TEXT	SEGMENT PARA USE32 PUBLIC 'CODE'
_TEXT	ENDS
;	COMDAT ?_Inc@const_iterator@?$_Tree@V?$_Tmap_traits@KKU?$less@K@std@@V?$allocator@U?$pair@$$CBKK@std@@@2@$0A@@std@@@std@@QAEXXZ
_TEXT	SEGMENT PARA USE32 PUBLIC 'CODE'
_TEXT	ENDS
;	COMDAT ??$_Iter_cat@Viterator@?$_Tree@V?$_Tmap_traits@KU_Friend@@U?$less@K@std@@V?$allocator@U?$pair@$$CBKU_Friend@@@std@@@3@$0A@@std@@@std@@@std@@YA?AUbidirectional_iterator_tag@0@ABViterator@?$_Tree@V?$_Tmap_traits@KU_Friend@@U?$less@K@std@@V?$allocator@U?$pair@$$CBKU_Friend@@@std@@@3@$0A@@std@@@0@@Z
_TEXT	SEGMENT PARA USE32 PUBLIC 'CODE'
_TEXT	ENDS
;	COMDAT ??$_Distance2@Viterator@?$_Tree@V?$_Tmap_traits@KU_Friend@@U?$less@K@std@@V?$allocator@U?$pair@$$CBKU_Friend@@@std@@@3@$0A@@std@@@std@@I@std@@YAXViterator@?$_Tree@V?$_Tmap_traits@KU_Friend@@U?$less@K@std@@V?$allocator@U?$pair@$$CBKU_Friend@@@std@@@3@$0A@@std@@@0@0AAIUbidirectional_iterator_tag@0@@Z
_TEXT	SEGMENT PARA USE32 PUBLIC 'CODE'
_TEXT	ENDS
;	COMDAT ??$_Copy_opt@PAJPAJ@std@@YAPAJPAJ00U_Scalar_ptr_iterator_tag@0@@Z
_TEXT	SEGMENT PARA USE32 PUBLIC 'CODE'
_TEXT	ENDS
;	COMDAT ??$_Uninitialized_copy@PAJPAJV?$allocator@J@std@@@std@@YAPAJPAJ00AAV?$allocator@J@0@@Z
_TEXT	SEGMENT PARA USE32 PUBLIC 'CODE'
_TEXT	ENDS
;	COMDAT ??$_Copy_backward_opt@PAJPAJ@std@@YAPAJPAJ00U_Scalar_ptr_iterator_tag@0@@Z
_TEXT	SEGMENT PARA USE32 PUBLIC 'CODE'
_TEXT	ENDS
;	COMDAT ??$_Ptr_cat@PAUtagDROPITEM@@PAU1@@std@@YA?AU_Nonscalar_ptr_iterator_tag@0@AAPAUtagDROPITEM@@0@Z
_TEXT	SEGMENT PARA USE32 PUBLIC 'CODE'
_TEXT	ENDS
;	COMDAT ??$_Destroy_range@UtagDROPITEM@@V?$allocator@UtagDROPITEM@@@std@@@std@@YAXPAUtagDROPITEM@@0AAV?$allocator@UtagDROPITEM@@@0@U_Nonscalar_ptr_iterator_tag@0@@Z
_TEXT	SEGMENT PARA USE32 PUBLIC 'CODE'
_TEXT	ENDS
;	COMDAT ??$_Destroy_range@KV?$allocator@K@std@@@std@@YAXPAK0AAV?$allocator@K@0@U_Scalar_ptr_iterator_tag@0@@Z
_TEXT	SEGMENT PARA USE32 PUBLIC 'CODE'
_TEXT	ENDS
;	COMDAT ??$_Destroy_range@JV?$allocator@J@std@@@std@@YAXPAJ0AAV?$allocator@J@0@U_Scalar_ptr_iterator_tag@0@@Z
_TEXT	SEGMENT PARA USE32 PUBLIC 'CODE'
_TEXT	ENDS
;	COMDAT ??$_Uninit_fill_n@JIJ@std@@YAXPAJIABJAAV?$allocator@J@0@U_Scalar_ptr_iterator_tag@0@@Z
_TEXT	SEGMENT PARA USE32 PUBLIC 'CODE'
_TEXT	ENDS
;	COMDAT ??$throw_exception@Vbad_weak_ptr@boost@@@boost@@YAXABVbad_weak_ptr@0@@Z
_TEXT	SEGMENT PARA USE32 PUBLIC 'CODE'
_TEXT	ENDS
;	COMDAT ??$_Distance@Viterator@?$_Tree@V?$_Tmap_traits@KKU?$less@K@std@@V?$allocator@U?$pair@$$CBKK@std@@@2@$0A@@std@@@std@@I@std@@YAXViterator@?$_Tree@V?$_Tmap_traits@KKU?$less@K@std@@V?$allocator@U?$pair@$$CBKK@std@@@2@$0A@@std@@@0@0AAI@Z
_TEXT	SEGMENT PARA USE32 PUBLIC 'CODE'
_TEXT	ENDS
;	COMDAT ??$_Allocate@H@std@@YAPAHIPAH@Z
_TEXT	SEGMENT PARA USE32 PUBLIC 'CODE'
_TEXT	ENDS
;	COMDAT ??$_Destroy_range@MV?$allocator@M@std@@@std@@YAXPAM0AAV?$allocator@M@0@@Z
_TEXT	SEGMENT PARA USE32 PUBLIC 'CODE'
_TEXT	ENDS
;	COMDAT ??$_Allocate@M@std@@YAPAMIPAM@Z
_TEXT	SEGMENT PARA USE32 PUBLIC 'CODE'
_TEXT	ENDS
;	COMDAT ??$_Destroy_range@HV?$allocator@H@std@@@std@@YAXPAH0AAV?$allocator@H@0@@Z
_TEXT	SEGMENT PARA USE32 PUBLIC 'CODE'
_TEXT	ENDS
;	COMDAT ??$_Destroy@U_Node@?$_Tree_nod@V?$_Tmap_traits@KKU?$less@K@std@@V?$allocator@U?$pair@$$CBKK@std@@@2@$0A@@std@@@std@@@std@@YAXPAU_Node@?$_Tree_nod@V?$_Tmap_traits@KKU?$less@K@std@@V?$allocator@U?$pair@$$CBKK@std@@@2@$0A@@std@@@0@@Z
_TEXT	SEGMENT PARA USE32 PUBLIC 'CODE'
_TEXT	ENDS
;	COMDAT ??0bad_weak_ptr@boost@@QAE@ABV01@@Z
_TEXT	SEGMENT PARA USE32 PUBLIC 'CODE'
_TEXT	ENDS
;	COMDAT ?destroy@?$allocator@UtagDROPITEM@@@std@@QAEXPAUtagDROPITEM@@@Z
_TEXT	SEGMENT PARA USE32 PUBLIC 'CODE'
_TEXT	ENDS
;	COMDAT ??$_Uninit_copy@JJ@std@@YAPAJPAJ00AAV?$allocator@J@0@U_Scalar_ptr_iterator_tag@0@@Z
_TEXT	SEGMENT PARA USE32 PUBLIC 'CODE'
_TEXT	ENDS
;	COMDAT ??$fill_n@PAJIJ@std@@YAXPAJIABJ@Z
_TEXT	SEGMENT PARA USE32 PUBLIC 'CODE'
_TEXT	ENDS
;	COMDAT ??$_Iter_cat@Viterator@?$_Tree@V?$_Tmap_traits@KKU?$less@K@std@@V?$allocator@U?$pair@$$CBKK@std@@@2@$0A@@std@@@std@@@std@@YA?AUbidirectional_iterator_tag@0@ABViterator@?$_Tree@V?$_Tmap_traits@KKU?$less@K@std@@V?$allocator@U?$pair@$$CBKK@std@@@2@$0A@@std@@@0@@Z
_TEXT	SEGMENT PARA USE32 PUBLIC 'CODE'
_TEXT	ENDS
;	COMDAT ??$_Distance2@Viterator@?$_Tree@V?$_Tmap_traits@KKU?$less@K@std@@V?$allocator@U?$pair@$$CBKK@std@@@2@$0A@@std@@@std@@I@std@@YAXViterator@?$_Tree@V?$_Tmap_traits@KKU?$less@K@std@@V?$allocator@U?$pair@$$CBKK@std@@@2@$0A@@std@@@0@0AAIUbidirectional_iterator_tag@0@@Z
_TEXT	SEGMENT PARA USE32 PUBLIC 'CODE'
_TEXT	ENDS
;	COMDAT ??$_Destroy_range@MV?$allocator@M@std@@@std@@YAXPAM0AAV?$allocator@M@0@U_Scalar_ptr_iterator_tag@0@@Z
_TEXT	SEGMENT PARA USE32 PUBLIC 'CODE'
_TEXT	ENDS
;	COMDAT ??$_Destroy_range@HV?$allocator@H@std@@@std@@YAXPAH0AAV?$allocator@H@0@U_Scalar_ptr_iterator_tag@0@@Z
_TEXT	SEGMENT PARA USE32 PUBLIC 'CODE'
_TEXT	ENDS
;	COMDAT ??$_Destroy@UtagDROPITEM@@@std@@YAXPAUtagDROPITEM@@@Z
_TEXT	SEGMENT PARA USE32 PUBLIC 'CODE'
_TEXT	ENDS
;	COMDAT ?_Ptr_cat@std@@YA?AU_Scalar_ptr_iterator_tag@1@PAH0@Z
_TEXT	SEGMENT PARA USE32 PUBLIC 'CODE'
_TEXT	ENDS
;	COMDAT ?_Ptr_cat@std@@YA?AU_Scalar_ptr_iterator_tag@1@PAM0@Z
_TEXT	SEGMENT PARA USE32 PUBLIC 'CODE'
_TEXT	ENDS
;	COMDAT __CTA2?AVbad_weak_ptr@boost@@
xdata$x	SEGMENT DWORD USE32 PUBLIC 'CONST'
xdata$x	ENDS
;	COMDAT __CT??_R0?AVexception@@@8??0exception@@QAE@ABV0@@Z12
xdata$x	SEGMENT DWORD USE32 PUBLIC 'CONST'
xdata$x	ENDS
;	COMDAT ??_R0?AVexception@@@8
_DATA	SEGMENT DWORD USE32 PUBLIC 'DATA'
_DATA	ENDS
;	COMDAT __CT??_R0?AVbad_weak_ptr@boost@@@8??0bad_weak_ptr@boost@@QAE@ABV01@@Z12
xdata$x	SEGMENT DWORD USE32 PUBLIC 'CONST'
xdata$x	ENDS
;	COMDAT ??_R0?AVbad_weak_ptr@boost@@@8
_DATA	SEGMENT DWORD USE32 PUBLIC 'DATA'
_DATA	ENDS
;	COMDAT __TI2?AVbad_weak_ptr@boost@@
xdata$x	SEGMENT DWORD USE32 PUBLIC 'CONST'
xdata$x	ENDS
;	COMDAT ?_Ptr_cat@std@@YA?AU_Scalar_ptr_iterator_tag@1@PAJ0@Z
_TEXT	SEGMENT PARA USE32 PUBLIC 'CODE'
_TEXT	ENDS
;	COMDAT ??9const_iterator@?$_Tree@V?$_Tmap_traits@KU_Friend@@U?$less@K@std@@V?$allocator@U?$pair@$$CBKU_Friend@@@std@@@3@$0A@@std@@@std@@QBE_NABV012@@Z
_TEXT	SEGMENT PARA USE32 PUBLIC 'CODE'
_TEXT	ENDS
;	COMDAT ??8const_iterator@?$_Tree@V?$_Tmap_traits@KU_Friend@@U?$less@K@std@@V?$allocator@U?$pair@$$CBKU_Friend@@@std@@@3@$0A@@std@@@std@@QBE_NABV012@@Z
_TEXT	SEGMENT PARA USE32 PUBLIC 'CODE'
_TEXT	ENDS
;	COMDAT ??Eiterator@?$_Tree@V?$_Tmap_traits@KU_Friend@@U?$less@K@std@@V?$allocator@U?$pair@$$CBKU_Friend@@@std@@@3@$0A@@std@@@std@@QAEAAV012@XZ
_TEXT	SEGMENT PARA USE32 PUBLIC 'CODE'
_TEXT	ENDS
;	COMDAT ??Econst_iterator@?$_Tree@V?$_Tmap_traits@KU_Friend@@U?$less@K@std@@V?$allocator@U?$pair@$$CBKU_Friend@@@std@@@3@$0A@@std@@@std@@QAEAAV012@XZ
_TEXT	SEGMENT PARA USE32 PUBLIC 'CODE'
_TEXT	ENDS
;	COMDAT ?_Inc@const_iterator@?$_Tree@V?$_Tmap_traits@KU_Friend@@U?$less@K@std@@V?$allocator@U?$pair@$$CBKU_Friend@@@std@@@3@$0A@@std@@@std@@QAEXXZ
_TEXT	SEGMENT PARA USE32 PUBLIC 'CODE'
_TEXT	ENDS
;	COMDAT ?_Min@?$_Tree@V?$_Tmap_traits@KU_Friend@@U?$less@K@std@@V?$allocator@U?$pair@$$CBKU_Friend@@@std@@@3@$0A@@std@@@std@@KAPAU_Node@?$_Tree_nod@V?$_Tmap_traits@KU_Friend@@U?$less@K@std@@V?$allocator@U?$pair@$$CBKU_Friend@@@std@@@3@$0A@@std@@@2@PAU342@@Z
_TEXT	SEGMENT PARA USE32 PUBLIC 'CODE'
_TEXT	ENDS
;	COMDAT ?_Left@?$_Tree@V?$_Tmap_traits@KU_Friend@@U?$less@K@std@@V?$allocator@U?$pair@$$CBKU_Friend@@@std@@@3@$0A@@std@@@std@@KAAAPAU_Node@?$_Tree_nod@V?$_Tmap_traits@KU_Friend@@U?$less@K@std@@V?$allocator@U?$pair@$$CBKU_Friend@@@std@@@3@$0A@@std@@@2@PAU342@@Z
_TEXT	SEGMENT PARA USE32 PUBLIC 'CODE'
_TEXT	ENDS
;	COMDAT ?_Isnil@?$_Tree@V?$_Tmap_traits@KU_Friend@@U?$less@K@std@@V?$allocator@U?$pair@$$CBKU_Friend@@@std@@@3@$0A@@std@@@std@@KAAADPAU_Node@?$_Tree_nod@V?$_Tmap_traits@KU_Friend@@U?$less@K@std@@V?$allocator@U?$pair@$$CBKU_Friend@@@std@@@3@$0A@@std@@@2@@Z
_TEXT	SEGMENT PARA USE32 PUBLIC 'CODE'
_TEXT	ENDS
;	COMDAT ?_Parent@?$_Tree@V?$_Tmap_traits@KU_Friend@@U?$less@K@std@@V?$allocator@U?$pair@$$CBKU_Friend@@@std@@@3@$0A@@std@@@std@@KAAAPAU_Node@?$_Tree_nod@V?$_Tmap_traits@KU_Friend@@U?$less@K@std@@V?$allocator@U?$pair@$$CBKU_Friend@@@std@@@3@$0A@@std@@@2@PAU342@@Z
_TEXT	SEGMENT PARA USE32 PUBLIC 'CODE'
_TEXT	ENDS
;	COMDAT ?_Right@?$_Tree@V?$_Tmap_traits@KU_Friend@@U?$less@K@std@@V?$allocator@U?$pair@$$CBKU_Friend@@@std@@@3@$0A@@std@@@std@@KAAAPAU_Node@?$_Tree_nod@V?$_Tmap_traits@KU_Friend@@U?$less@K@std@@V?$allocator@U?$pair@$$CBKU_Friend@@@std@@@3@$0A@@std@@@2@PAU342@@Z
_TEXT	SEGMENT PARA USE32 PUBLIC 'CODE'
_TEXT	ENDS
;	COMDAT ?_Psave@?$_Facetptr@V?$ctype@G@std@@@std@@2PBVfacet@locale@2@B
_DATA	SEGMENT DWORD USE32 PUBLIC 'DATA'
_DATA	ENDS
;	COMDAT ?_Psave@?$_Facetptr@V?$ctype@D@std@@@std@@2PBVfacet@locale@2@B
_DATA	SEGMENT DWORD USE32 PUBLIC 'DATA'
_DATA	ENDS
;	COMDAT __TI3?AVlength_error@std@@
xdata$x	SEGMENT DWORD USE32 PUBLIC 'CONST'
xdata$x	ENDS
;	COMDAT ??1length_error@std@@UAE@XZ
_TEXT	SEGMENT PARA USE32 PUBLIC 'CODE'
_TEXT	ENDS
;	COMDAT ??_7length_error@std@@6B@
CONST	SEGMENT DWORD USE32 PUBLIC 'CONST'
CONST	ENDS
;	COMDAT ??_Glength_error@std@@UAEPAXI@Z
_TEXT	SEGMENT PARA USE32 PUBLIC 'CODE'
_TEXT	ENDS
;	COMDAT ?what@logic_error@std@@UBEPBDXZ
_TEXT	SEGMENT PARA USE32 PUBLIC 'CODE'
_TEXT	ENDS
;	COMDAT ?c_str@?$basic_string@DU?$char_traits@D@std@@V?$allocator@D@2@@std@@QBEPBDXZ
_TEXT	SEGMENT PARA USE32 PUBLIC 'CODE'
_TEXT	ENDS
;	COMDAT ??1logic_error@std@@UAE@XZ
_TEXT	SEGMENT PARA USE32 PUBLIC 'CODE'
_TEXT	ENDS
;	COMDAT ??_7logic_error@std@@6B@
CONST	SEGMENT DWORD USE32 PUBLIC 'CONST'
CONST	ENDS
;	COMDAT ??_Glogic_error@std@@UAEPAXI@Z
_TEXT	SEGMENT PARA USE32 PUBLIC 'CODE'
_TEXT	ENDS
;	COMDAT __CTA3?AVlength_error@std@@
xdata$x	SEGMENT DWORD USE32 PUBLIC 'CONST'
xdata$x	ENDS
;	COMDAT __CT??_R0?AVlength_error@std@@@8??0length_error@std@@QAE@ABV01@@Z40
xdata$x	SEGMENT DWORD USE32 PUBLIC 'CONST'
xdata$x	ENDS
;	COMDAT ??_R0?AVlength_error@std@@@8
_DATA	SEGMENT DWORD USE32 PUBLIC 'DATA'
_DATA	ENDS
;	COMDAT ??0length_error@std@@QAE@ABV01@@Z
_TEXT	SEGMENT PARA USE32 PUBLIC 'CODE'
_TEXT	ENDS
;	COMDAT ??0logic_error@std@@QAE@ABV01@@Z
_TEXT	SEGMENT PARA USE32 PUBLIC 'CODE'
_TEXT	ENDS
;	COMDAT ??0?$basic_string@DU?$char_traits@D@std@@V?$allocator@D@2@@std@@QAE@ABV01@@Z
_TEXT	SEGMENT PARA USE32 PUBLIC 'CODE'
_TEXT	ENDS
;	COMDAT ??0?$_String_val@DV?$allocator@D@std@@@std@@IAE@V?$allocator@D@1@@Z
_TEXT	SEGMENT PARA USE32 PUBLIC 'CODE'
_TEXT	ENDS
;	COMDAT ??0?$allocator@D@std@@QAE@ABV01@@Z
_TEXT	SEGMENT PARA USE32 PUBLIC 'CODE'
_TEXT	ENDS
;	COMDAT ?_Tidy@?$basic_string@DU?$char_traits@D@std@@V?$allocator@D@2@@std@@IAEX_NI@Z
_TEXT	SEGMENT PARA USE32 PUBLIC 'CODE'
_TEXT	ENDS
;	COMDAT ?copy@?$char_traits@D@std@@SAPADPADPBDI@Z
_TEXT	SEGMENT PARA USE32 PUBLIC 'CODE'
_TEXT	ENDS
;	COMDAT ?deallocate@?$allocator@D@std@@QAEXPADI@Z
_TEXT	SEGMENT PARA USE32 PUBLIC 'CODE'
_TEXT	ENDS
;	COMDAT ?_Eos@?$basic_string@DU?$char_traits@D@std@@V?$allocator@D@2@@std@@IAEXI@Z
_TEXT	SEGMENT PARA USE32 PUBLIC 'CODE'
_TEXT	ENDS
;	COMDAT ?assign@?$char_traits@D@std@@SAXAADABD@Z
_TEXT	SEGMENT PARA USE32 PUBLIC 'CODE'
_TEXT	ENDS
;	COMDAT ?_Myptr@?$basic_string@DU?$char_traits@D@std@@V?$allocator@D@2@@std@@QAEPADXZ
_TEXT	SEGMENT PARA USE32 PUBLIC 'CODE'
_TEXT	ENDS
;	COMDAT ?assign@?$basic_string@DU?$char_traits@D@std@@V?$allocator@D@2@@std@@QAEAAV12@ABV12@II@Z
_TEXT	SEGMENT PARA USE32 PUBLIC 'CODE'
_TEXT	ENDS
;	COMDAT ?erase@?$basic_string@DU?$char_traits@D@std@@V?$allocator@D@2@@std@@QAEAAV12@II@Z
_TEXT	SEGMENT PARA USE32 PUBLIC 'CODE'
_TEXT	ENDS
;	COMDAT ?move@?$char_traits@D@std@@SAPADPADPBDI@Z
_TEXT	SEGMENT PARA USE32 PUBLIC 'CODE'
_TEXT	ENDS
;	COMDAT ?_Grow@?$basic_string@DU?$char_traits@D@std@@V?$allocator@D@2@@std@@IAE_NI_N@Z
_TEXT	SEGMENT PARA USE32 PUBLIC 'CODE'
_TEXT	ENDS
;	COMDAT ?max_size@?$basic_string@DU?$char_traits@D@std@@V?$allocator@D@2@@std@@QBEIXZ
_TEXT	SEGMENT PARA USE32 PUBLIC 'CODE'
_TEXT	ENDS
;	COMDAT ?max_size@?$allocator@D@std@@QBEIXZ
_TEXT	SEGMENT PARA USE32 PUBLIC 'CODE'
_TEXT	ENDS
;	COMDAT ?_Copy@?$basic_string@DU?$char_traits@D@std@@V?$allocator@D@2@@std@@IAEXII@Z
_TEXT	SEGMENT PARA USE32 PUBLIC 'CODE'
_TEXT	ENDS
;	COMDAT ?allocate@?$allocator@D@std@@QAEPADI@Z
_TEXT	SEGMENT PARA USE32 PUBLIC 'CODE'
_TEXT	ENDS
;	COMDAT ??$_Allocate@D@std@@YAPADIPAD@Z
_TEXT	SEGMENT PARA USE32 PUBLIC 'CODE'
_TEXT	ENDS
;	COMDAT ?npos@?$basic_string@DU?$char_traits@D@std@@V?$allocator@D@2@@std@@2IB
CONST	SEGMENT DWORD USE32 PUBLIC 'CONST'
CONST	ENDS
;	COMDAT __CT??_R0?AVlogic_error@std@@@8??0logic_error@std@@QAE@ABV01@@Z40
xdata$x	SEGMENT DWORD USE32 PUBLIC 'CONST'
xdata$x	ENDS
;	COMDAT ??_R0?AVlogic_error@std@@@8
_DATA	SEGMENT DWORD USE32 PUBLIC 'DATA'
_DATA	ENDS
;	COMDAT ??_C@_0BD@OLBABOEK@vector?$DMT?$DO?5too?5long?$AA@
CONST	SEGMENT DWORD USE32 PUBLIC 'CONST'
CONST	ENDS
;	COMDAT ??0length_error@std@@QAE@ABV?$basic_string@DU?$char_traits@D@std@@V?$allocator@D@2@@1@@Z
_TEXT	SEGMENT PARA USE32 PUBLIC 'CODE'
_TEXT	ENDS
;	COMDAT ??0logic_error@std@@QAE@ABV?$basic_string@DU?$char_traits@D@std@@V?$allocator@D@2@@1@@Z
_TEXT	SEGMENT PARA USE32 PUBLIC 'CODE'
_TEXT	ENDS
;	COMDAT ??$swap@D@std@@YAXAAD0@Z
_TEXT	SEGMENT PARA USE32 PUBLIC 'CODE'
_TEXT	ENDS
;	COMDAT __TI3?AVout_of_range@std@@
xdata$x	SEGMENT DWORD USE32 PUBLIC 'CONST'
xdata$x	ENDS
;	COMDAT ??1out_of_range@std@@UAE@XZ
_TEXT	SEGMENT PARA USE32 PUBLIC 'CODE'
_TEXT	ENDS
;	COMDAT ??_7out_of_range@std@@6B@
CONST	SEGMENT DWORD USE32 PUBLIC 'CONST'
CONST	ENDS
;	COMDAT ??_Gout_of_range@std@@UAEPAXI@Z
_TEXT	SEGMENT PARA USE32 PUBLIC 'CODE'
_TEXT	ENDS
;	COMDAT __CTA3?AVout_of_range@std@@
xdata$x	SEGMENT DWORD USE32 PUBLIC 'CONST'
xdata$x	ENDS
;	COMDAT __CT??_R0?AVout_of_range@std@@@8??0out_of_range@std@@QAE@ABV01@@Z40
xdata$x	SEGMENT DWORD USE32 PUBLIC 'CONST'
xdata$x	ENDS
;	COMDAT ??_R0?AVout_of_range@std@@@8
_DATA	SEGMENT DWORD USE32 PUBLIC 'DATA'
_DATA	ENDS
;	COMDAT ??0out_of_range@std@@QAE@ABV01@@Z
_TEXT	SEGMENT PARA USE32 PUBLIC 'CODE'
_TEXT	ENDS
;	COMDAT ??1?$basic_string@DU?$char_traits@D@std@@V?$allocator@D@2@@std@@QAE@XZ
_TEXT	SEGMENT PARA USE32 PUBLIC 'CODE'
_TEXT	ENDS
;	COMDAT ??_C@_0BM@PAPJHAGI@invalid?5map?1set?$DMT?$DO?5iterator?$AA@
CONST	SEGMENT DWORD USE32 PUBLIC 'CONST'
CONST	ENDS
;	COMDAT ??0?$basic_string@DU?$char_traits@D@std@@V?$allocator@D@2@@std@@QAE@PBD@Z
_TEXT	SEGMENT PARA USE32 PUBLIC 'CODE'
_TEXT	ENDS
;	COMDAT ??0?$allocator@D@std@@QAE@XZ
_TEXT	SEGMENT PARA USE32 PUBLIC 'CODE'
_TEXT	ENDS
;	COMDAT ?assign@?$basic_string@DU?$char_traits@D@std@@V?$allocator@D@2@@std@@QAEAAV12@PBD@Z
_TEXT	SEGMENT PARA USE32 PUBLIC 'CODE'
_TEXT	ENDS
;	COMDAT ?assign@?$basic_string@DU?$char_traits@D@std@@V?$allocator@D@2@@std@@QAEAAV12@PBDI@Z
_TEXT	SEGMENT PARA USE32 PUBLIC 'CODE'
_TEXT	ENDS
;	COMDAT ?_Inside@?$basic_string@DU?$char_traits@D@std@@V?$allocator@D@2@@std@@IAE_NPBD@Z
_TEXT	SEGMENT PARA USE32 PUBLIC 'CODE'
_TEXT	ENDS
;	COMDAT ?length@?$char_traits@D@std@@SAIPBD@Z
_TEXT	SEGMENT PARA USE32 PUBLIC 'CODE'
_TEXT	ENDS
;	COMDAT ??0out_of_range@std@@QAE@ABV?$basic_string@DU?$char_traits@D@std@@V?$allocator@D@2@@1@@Z
_TEXT	SEGMENT PARA USE32 PUBLIC 'CODE'
_TEXT	ENDS
;	COMDAT ?push_back@?$list@PAXV?$allocator@PAX@std@@@std@@QAEXABQAX@Z
_TEXT	SEGMENT PARA USE32 PUBLIC 'CODE'
_TEXT	ENDS
;	COMDAT ?_Insert@?$list@PAXV?$allocator@PAX@std@@@std@@QAEXViterator@12@ABQAX@Z
_TEXT	SEGMENT PARA USE32 PUBLIC 'CODE'
_TEXT	ENDS
;	COMDAT ?_Mynode@const_iterator@?$list@PAXV?$allocator@PAX@std@@@std@@QBEPAU_Node@?$_List_nod@PAXV?$allocator@PAX@std@@@3@XZ
_TEXT	SEGMENT PARA USE32 PUBLIC 'CODE'
_TEXT	ENDS
;	COMDAT ?_Buynode@?$list@PAXV?$allocator@PAX@std@@@std@@IAEPAU_Node@?$_List_nod@PAXV?$allocator@PAX@std@@@2@PAU342@0ABQAX@Z
_TEXT	SEGMENT PARA USE32 PUBLIC 'CODE'
_TEXT	ENDS
;	COMDAT ?allocate@?$allocator@U_Node@?$_List_nod@PAXV?$allocator@PAX@std@@@std@@@std@@QAEPAU_Node@?$_List_nod@PAXV?$allocator@PAX@std@@@2@I@Z
_TEXT	SEGMENT PARA USE32 PUBLIC 'CODE'
_TEXT	ENDS
;	COMDAT ??$_Allocate@U_Node@?$_List_nod@PAXV?$allocator@PAX@std@@@std@@@std@@YAPAU_Node@?$_List_nod@PAXV?$allocator@PAX@std@@@0@IPAU120@@Z
_TEXT	SEGMENT PARA USE32 PUBLIC 'CODE'
_TEXT	ENDS
;	COMDAT ??2@YAPAXIPAX@Z
_TEXT	SEGMENT PARA USE32 PUBLIC 'CODE'
_TEXT	ENDS
;	COMDAT ??3@YAXPAX0@Z
_TEXT	SEGMENT PARA USE32 PUBLIC 'CODE'
_TEXT	ENDS
;	COMDAT ??0_Node@?$_List_nod@PAXV?$allocator@PAX@std@@@std@@QAE@PAU012@0ABQAX@Z
_TEXT	SEGMENT PARA USE32 PUBLIC 'CODE'
_TEXT	ENDS
;	COMDAT ?deallocate@?$allocator@U_Node@?$_List_nod@PAXV?$allocator@PAX@std@@@std@@@std@@QAEXPAU_Node@?$_List_nod@PAXV?$allocator@PAX@std@@@2@I@Z
_TEXT	SEGMENT PARA USE32 PUBLIC 'CODE'
_TEXT	ENDS
;	COMDAT ?_Incsize@?$list@PAXV?$allocator@PAX@std@@@std@@IAEXI@Z
_TEXT	SEGMENT PARA USE32 PUBLIC 'CODE'
_TEXT	ENDS
;	COMDAT ?max_size@?$list@PAXV?$allocator@PAX@std@@@std@@QBEIXZ
_TEXT	SEGMENT PARA USE32 PUBLIC 'CODE'
_TEXT	ENDS
;	COMDAT ?max_size@?$allocator@PAX@std@@QBEIXZ
_TEXT	SEGMENT PARA USE32 PUBLIC 'CODE'
_TEXT	ENDS
;	COMDAT ??_C@_0BB@MOGOBHAF@list?$DMT?$DO?5too?5long?$AA@
CONST	SEGMENT DWORD USE32 PUBLIC 'CONST'
CONST	ENDS
;	COMDAT ?_Nextnode@?$list@PAXV?$allocator@PAX@std@@@std@@KAAAPAU_Node@?$_List_nod@PAXV?$allocator@PAX@std@@@2@PAU342@@Z
_TEXT	SEGMENT PARA USE32 PUBLIC 'CODE'
_TEXT	ENDS
;	COMDAT ?_Prevnode@?$list@PAXV?$allocator@PAX@std@@@std@@KAAAPAU_Node@?$_List_nod@PAXV?$allocator@PAX@std@@@2@PAU342@@Z
_TEXT	SEGMENT PARA USE32 PUBLIC 'CODE'
_TEXT	ENDS
;	COMDAT ?end@?$list@PAXV?$allocator@PAX@std@@@std@@QAE?AViterator@12@XZ
_TEXT	SEGMENT PARA USE32 PUBLIC 'CODE'
_TEXT	ENDS
;	COMDAT ??0iterator@?$list@PAXV?$allocator@PAX@std@@@std@@QAE@PAU_Node@?$_List_nod@PAXV?$allocator@PAX@std@@@2@@Z
_TEXT	SEGMENT PARA USE32 PUBLIC 'CODE'
_TEXT	ENDS
;	COMDAT ??0const_iterator@?$list@PAXV?$allocator@PAX@std@@@std@@QAE@PAU_Node@?$_List_nod@PAXV?$allocator@PAX@std@@@2@@Z
_TEXT	SEGMENT PARA USE32 PUBLIC 'CODE'
_TEXT	ENDS
;	COMDAT ??_C@_09PKKCPLIP@bad?5alloc?$AA@
CONST	SEGMENT DWORD USE32 PUBLIC 'CONST'
CONST	ENDS
;	COMDAT ?compare@?$char_traits@D@std@@SAHPBD0I@Z
_TEXT	SEGMENT PARA USE32 PUBLIC 'CODE'
_TEXT	ENDS
;	COMDAT ??R?$less@K@std@@QBE_NABK0@Z
_TEXT	SEGMENT PARA USE32 PUBLIC 'CODE'
_TEXT	ENDS
;	COMDAT ?_Myptr@?$basic_string@DU?$char_traits@D@std@@V?$allocator@D@2@@std@@QBEPBDXZ
_TEXT	SEGMENT PARA USE32 PUBLIC 'CODE'
_TEXT	ENDS
;	COMDAT ?size@?$basic_string@DU?$char_traits@D@std@@V?$allocator@D@2@@std@@QBEIXZ
_TEXT	SEGMENT PARA USE32 PUBLIC 'CODE'
_TEXT	ENDS
;	COMDAT ?ReleaseBufferSetLength@?$CSimpleStringT@D$0A@@ATL@@QAEXH@Z
_TEXT	SEGMENT PARA USE32 PUBLIC 'CODE'
_TEXT	ENDS
;	COMDAT ?SetLength@?$CSimpleStringT@D$0A@@ATL@@AAEXH@Z
_TEXT	SEGMENT PARA USE32 PUBLIC 'CODE'
_TEXT	ENDS
;	COMDAT ?AtlThrow@ATL@@YGXJ@Z
_TEXT	SEGMENT PARA USE32 PUBLIC 'CODE'
_TEXT	ENDS
;	COMDAT ?GetData@?$CSimpleStringT@D$0A@@ATL@@ABEPAUCStringData@2@XZ
_TEXT	SEGMENT PARA USE32 PUBLIC 'CODE'
_TEXT	ENDS
;	COMDAT ?GetBuffer@?$CSimpleStringT@D$0A@@ATL@@QAEPADH@Z
_TEXT	SEGMENT PARA USE32 PUBLIC 'CODE'
_TEXT	ENDS
;	COMDAT ?PrepareWrite@?$CSimpleStringT@D$0A@@ATL@@AAEPADH@Z
_TEXT	SEGMENT PARA USE32 PUBLIC 'CODE'
_TEXT	ENDS
;	COMDAT ?PrepareWrite2@?$CSimpleStringT@D$0A@@ATL@@AAEXH@Z
_TEXT	SEGMENT PARA USE32 PUBLIC 'CODE'
_TEXT	ENDS
;	COMDAT ?IsShared@CStringData@ATL@@QBE_NXZ
_TEXT	SEGMENT PARA USE32 PUBLIC 'CODE'
_TEXT	ENDS
;	COMDAT ?Fork@?$CSimpleStringT@D$0A@@ATL@@AAEXH@Z
_TEXT	SEGMENT PARA USE32 PUBLIC 'CODE'
_TEXT	ENDS
;	COMDAT ?ThrowMemoryException@?$CSimpleStringT@D$0A@@ATL@@KAXXZ
_TEXT	SEGMENT PARA USE32 PUBLIC 'CODE'
_TEXT	ENDS
;	COMDAT ?CopyChars@?$CSimpleStringT@D$0A@@ATL@@SAXPADPBDH@Z
_TEXT	SEGMENT PARA USE32 PUBLIC 'CODE'
_TEXT	ENDS
;	COMDAT ?data@CStringData@ATL@@QAEPAXXZ
_TEXT	SEGMENT PARA USE32 PUBLIC 'CODE'
_TEXT	ENDS
;	COMDAT ?Release@CStringData@ATL@@QAEXXZ
_TEXT	SEGMENT PARA USE32 PUBLIC 'CODE'
_TEXT	ENDS
;	COMDAT ?Attach@?$CSimpleStringT@D$0A@@ATL@@AAEXPAUCStringData@2@@Z
_TEXT	SEGMENT PARA USE32 PUBLIC 'CODE'
_TEXT	ENDS
;	COMDAT ?Reallocate@?$CSimpleStringT@D$0A@@ATL@@AAEXH@Z
_TEXT	SEGMENT PARA USE32 PUBLIC 'CODE'
_TEXT	ENDS
;	COMDAT ?StringFindString@?$ChTraitsCRT@D@ATL@@SAPBDPBD0@Z
_TEXT	SEGMENT PARA USE32 PUBLIC 'CODE'
_TEXT	ENDS
;	COMDAT ?GetLength@?$CSimpleStringT@D$0A@@ATL@@QBEHXZ
_TEXT	SEGMENT PARA USE32 PUBLIC 'CODE'
_TEXT	ENDS
;	COMDAT ?GetString@?$CSimpleStringT@D$0A@@ATL@@QBEPBDXZ
_TEXT	SEGMENT PARA USE32 PUBLIC 'CODE'
_TEXT	ENDS
;	COMDAT ?sCH@?1??GetInstance@CCampusHelper@@SAPAV2@XZ@4V2@A
_BSS	SEGMENT DWORD USE32 PUBLIC 'BSS'
_BSS	ENDS
;	COMDAT ?$S1@?1??GetInstance@CCampusHelper@@SAPAV2@XZ@4IA
_BSS	SEGMENT DWORD USE32 PUBLIC 'BSS'
_BSS	ENDS
;	COMDAT ??_C@_00CNPNBAHC@?$AA@
CONST	SEGMENT DWORD USE32 PUBLIC 'CONST'
CONST	ENDS
;	COMDAT ??5CAr@@QAEAAV0@AAD@Z
_TEXT	SEGMENT PARA USE32 PUBLIC 'CODE'
_TEXT	ENDS
;	COMDAT ??5CAr@@QAEAAV0@AAE@Z
_TEXT	SEGMENT PARA USE32 PUBLIC 'CODE'
_TEXT	ENDS
;	COMDAT ??1?$vector@KV?$allocator@K@std@@@std@@QAE@XZ
_TEXT	SEGMENT PARA USE32 PUBLIC 'CODE'
_TEXT	ENDS
;	COMDAT ?_Tidy@?$vector@KV?$allocator@K@std@@@std@@IAEXXZ
_TEXT	SEGMENT PARA USE32 PUBLIC 'CODE'
_TEXT	ENDS
;	COMDAT ?_Destroy@?$vector@KV?$allocator@K@std@@@std@@IAEXPAK0@Z
_TEXT	SEGMENT PARA USE32 PUBLIC 'CODE'
_TEXT	ENDS
;	COMDAT ??$_Destroy_range@KV?$allocator@K@std@@@std@@YAXPAK0AAV?$allocator@K@0@@Z
_TEXT	SEGMENT PARA USE32 PUBLIC 'CODE'
_TEXT	ENDS
;	COMDAT ?_Ptr_cat@std@@YA?AU_Scalar_ptr_iterator_tag@1@PAK0@Z
_TEXT	SEGMENT PARA USE32 PUBLIC 'CODE'
_TEXT	ENDS
;	COMDAT ?deallocate@?$allocator@K@std@@QAEXPAKI@Z
_TEXT	SEGMENT PARA USE32 PUBLIC 'CODE'
_TEXT	ENDS
;	COMDAT ??_C@_09GBAEEKDE@?$CFs?0?5?$CFd?7?$CFs?$AA@
CONST	SEGMENT DWORD USE32 PUBLIC 'CONST'
CONST	ENDS
;	COMDAT ??_7CCampusDBCtrl@@6B@
CONST	SEGMENT DWORD USE32 PUBLIC 'CONST'
CONST	ENDS
;	COMDAT ?Leave@CMclCritSec@@QAEXXZ
_TEXT	SEGMENT PARA USE32 PUBLIC 'CODE'
_TEXT	ENDS
;	COMDAT ?Enter@CMclCritSec@@QAEXXZ
_TEXT	SEGMENT PARA USE32 PUBLIC 'CODE'
_TEXT	ENDS
;	COMDAT ??0CTime@ATL@@QAE@XZ
_TEXT	SEGMENT PARA USE32 PUBLIC 'CODE'
_TEXT	ENDS
;	COMDAT ??1CMclCritSec@@UAE@XZ
_TEXT	SEGMENT PARA USE32 PUBLIC 'CODE'
_TEXT	ENDS
;	COMDAT ??_7CMclCritSec@@6B@
CONST	SEGMENT DWORD USE32 PUBLIC 'CONST'
CONST	ENDS
;	COMDAT ??_GCMclCritSec@@UAEPAXI@Z
_TEXT	SEGMENT PARA USE32 PUBLIC 'CODE'
_TEXT	ENDS
;	COMDAT ??0CMclCritSec@@QAE@XZ
_TEXT	SEGMENT PARA USE32 PUBLIC 'CODE'
_TEXT	ENDS
;	COMDAT ??0D3DXVECTOR3@@QAE@XZ
_TEXT	SEGMENT PARA USE32 PUBLIC 'CODE'
_TEXT	ENDS
;	COMDAT ??4?$CStringT@DV?$StrTraitMFC@DV?$ChTraitsCRT@D@ATL@@@@@ATL@@QAEAAV01@PBD@Z
_TEXT	SEGMENT PARA USE32 PUBLIC 'CODE'
_TEXT	ENDS
;	COMDAT ??4?$CSimpleStringT@D$0A@@ATL@@QAEAAV01@PBD@Z
_TEXT	SEGMENT PARA USE32 PUBLIC 'CODE'
_TEXT	ENDS
;	COMDAT ?SetString@?$CSimpleStringT@D$0A@@ATL@@QAEXPBD@Z
_TEXT	SEGMENT PARA USE32 PUBLIC 'CODE'
_TEXT	ENDS
;	COMDAT ?SetString@?$CSimpleStringT@D$0A@@ATL@@QAEXPBDH@Z
_TEXT	SEGMENT PARA USE32 PUBLIC 'CODE'
_TEXT	ENDS
;	COMDAT ?Empty@?$CSimpleStringT@D$0A@@ATL@@QAEXXZ
_TEXT	SEGMENT PARA USE32 PUBLIC 'CODE'
_TEXT	ENDS
;	COMDAT ?IsLocked@CStringData@ATL@@QBE_NXZ
_TEXT	SEGMENT PARA USE32 PUBLIC 'CODE'
_TEXT	ENDS
;	COMDAT ?CopyCharsOverlapped@?$CSimpleStringT@D$0A@@ATL@@SAXPADPBDH@Z
_TEXT	SEGMENT PARA USE32 PUBLIC 'CODE'
_TEXT	ENDS
;	COMDAT ?StringLength@?$CSimpleStringT@D$0A@@ATL@@SAHPBD@Z
_TEXT	SEGMENT PARA USE32 PUBLIC 'CODE'
_TEXT	ENDS
;	COMDAT ??B?$CSimpleStringT@D$0A@@ATL@@QBEPBDXZ
_TEXT	SEGMENT PARA USE32 PUBLIC 'CODE'
_TEXT	ENDS
;	COMDAT ??5@YAAAVCAr@@AAV0@AAUD3DXVECTOR3@@@Z
_TEXT	SEGMENT PARA USE32 PUBLIC 'CODE'
_TEXT	ENDS
;	COMDAT ??5CAr@@QAEAAV0@AAM@Z
_TEXT	SEGMENT PARA USE32 PUBLIC 'CODE'
_TEXT	ENDS
;	COMDAT ??5CAr@@QAEAAV0@AAK@Z
_TEXT	SEGMENT PARA USE32 PUBLIC 'CODE'
_TEXT	ENDS
;	COMDAT ??5CAr@@QAEAAV0@AAJ@Z
_TEXT	SEGMENT PARA USE32 PUBLIC 'CODE'
_TEXT	ENDS
;	COMDAT ?time_null@@YAJXZ
_TEXT	SEGMENT PARA USE32 PUBLIC 'CODE'
_TEXT	ENDS
;	COMDAT ??6CAr@@QAEAAV0@K@Z
_TEXT	SEGMENT PARA USE32 PUBLIC 'CODE'
_TEXT	ENDS
;	COMDAT ??6CAr@@QAEAAV0@J@Z
_TEXT	SEGMENT PARA USE32 PUBLIC 'CODE'
_TEXT	ENDS
;	COMDAT ??6@YAAAVCAr@@AAV0@UD3DXVECTOR3@@@Z
_TEXT	SEGMENT PARA USE32 PUBLIC 'CODE'
_TEXT	ENDS
;	COMDAT ??6CAr@@QAEAAV0@M@Z
_TEXT	SEGMENT PARA USE32 PUBLIC 'CODE'
_TEXT	ENDS
;	COMDAT ?IsStoring@CAr@@QBEHXZ
_TEXT	SEGMENT PARA USE32 PUBLIC 'CODE'
_TEXT	ENDS
;	COMDAT ?GetTime@CTime@ATL@@QBE_JXZ
_TEXT	SEGMENT PARA USE32 PUBLIC 'CODE'
_TEXT	ENDS
;	COMDAT ??0CTimeSpan@ATL@@QAE@JHHH@Z
_TEXT	SEGMENT PARA USE32 PUBLIC 'CODE'
_TEXT	ENDS
;	COMDAT ?GetTickCount@CTime@ATL@@SG?AV12@XZ
_TEXT	SEGMENT PARA USE32 PUBLIC 'CODE'
_TEXT	ENDS
;	COMDAT ??0CTime@ATL@@QAE@_J@Z
_TEXT	SEGMENT PARA USE32 PUBLIC 'CODE'
_TEXT	ENDS
;	COMDAT ??HCTime@ATL@@QBE?AV01@VCTimeSpan@1@@Z
_TEXT	SEGMENT PARA USE32 PUBLIC 'CODE'
_TEXT	ENDS
;	COMDAT ?GetTimeSpan@CTimeSpan@ATL@@QBE_JXZ
_TEXT	SEGMENT PARA USE32 PUBLIC 'CODE'
_TEXT	ENDS
;	COMDAT ?GetItemProp@CProject@@QAEPAUItemProp@@H@Z
_TEXT	SEGMENT PARA USE32 PUBLIC 'CODE'
_TEXT	ENDS
;	COMDAT ?GetAt@?$CFixedArray@UItemProp@@@@QAEPAUItemProp@@K@Z
_TEXT	SEGMENT PARA USE32 PUBLIC 'CODE'
_TEXT	ENDS
;	COMDAT ??0D3DXVECTOR3@@QAE@MMM@Z
_TEXT	SEGMENT PARA USE32 PUBLIC 'CODE'
_TEXT	ENDS
;	COMDAT ??5CAr@@QAEAAV0@AAH@Z
_TEXT	SEGMENT PARA USE32 PUBLIC 'CODE'
_TEXT	ENDS
;	COMDAT ??6CAr@@QAEAAV0@H@Z
_TEXT	SEGMENT PARA USE32 PUBLIC 'CODE'
_TEXT	ENDS
;	COMDAT ??_7CLordSkillComponentExecutable@@6B@
CONST	SEGMENT DWORD USE32 PUBLIC 'CONST'
CONST	ENDS
;	COMDAT ??_7bad_weak_ptr@boost@@6B@
CONST	SEGMENT DWORD USE32 PUBLIC 'CONST'
CONST	ENDS
;	COMDAT ??_7sp_counted_base@detail@boost@@6B@
CONST	SEGMENT DWORD USE32 PUBLIC 'CONST'
CONST	ENDS
sxdata	SEGMENT DWORD USE32 'SXDATA'
sxdata	ENDS
FLAT	GROUP _DATA, CONST, _BSS
	ASSUME	CS: FLAT, DS: FLAT, SS: FLAT
endif

INCLUDELIB LIBCMT
INCLUDELIB OLDNAMES

PUBLIC	?GetQueryObject@CDbController@@QAEPAVCQuery@@XZ	; CDbController::GetQueryObject
; Function compile flags: /Ogty
; File c:\documents and settings\test\mes documents\source\virtuos_v17\build\program\databaseserver\dbcontroller.h
;	COMDAT ?GetQueryObject@CDbController@@QAEPAVCQuery@@XZ
_TEXT	SEGMENT
?GetQueryObject@CDbController@@QAEPAVCQuery@@XZ PROC NEAR ; CDbController::GetQueryObject, COMDAT
; _this$ = ecx

; 20   : 	CQuery*	GetQueryObject( void )	{	return m_pQuery;	}

  00000	8b 41 0c	 mov	 eax, DWORD PTR [ecx+12]
  00003	c3		 ret	 0
?GetQueryObject@CDbController@@QAEPAVCQuery@@XZ ENDP	; CDbController::GetQueryObject
_TEXT	ENDS
PUBLIC	?GetPlayerId@CCampusMember@@QAEKXZ		; CCampusMember::GetPlayerId
; Function compile flags: /Ogty
; File c:\documents and settings\test\mes documents\source\virtuos_v17\build\program\_common\campus.h
;	COMDAT ?GetPlayerId@CCampusMember@@QAEKXZ
_TEXT	SEGMENT
?GetPlayerId@CCampusMember@@QAEKXZ PROC NEAR		; CCampusMember::GetPlayerId, COMDAT
; _this$ = ecx

; 29   : 	u_long	GetPlayerId()	{	return m_idPlayer;	}

  00000	8b 01		 mov	 eax, DWORD PTR [ecx]
  00002	c3		 ret	 0
?GetPlayerId@CCampusMember@@QAEKXZ ENDP			; CCampusMember::GetPlayerId
_TEXT	ENDS
PUBLIC	?SetPlayerId@CCampusMember@@QAEXK@Z		; CCampusMember::SetPlayerId
; Function compile flags: /Ogty
;	COMDAT ?SetPlayerId@CCampusMember@@QAEXK@Z
_TEXT	SEGMENT
_idPlayer$ = 8						; size = 4
?SetPlayerId@CCampusMember@@QAEXK@Z PROC NEAR		; CCampusMember::SetPlayerId, COMDAT
; _this$ = ecx

; 30   : 	void	SetPlayerId( u_long idPlayer )	{	m_idPlayer = idPlayer;	}

  00000	8b 44 24 04	 mov	 eax, DWORD PTR _idPlayer$[esp-4]
  00004	89 01		 mov	 DWORD PTR [ecx], eax
  00006	c2 04 00	 ret	 4
?SetPlayerId@CCampusMember@@QAEXK@Z ENDP		; CCampusMember::SetPlayerId
_TEXT	ENDS
PUBLIC	?GetLevel@CCampusMember@@QAEHXZ			; CCampusMember::GetLevel
; Function compile flags: /Ogty
;	COMDAT ?GetLevel@CCampusMember@@QAEHXZ
_TEXT	SEGMENT
?GetLevel@CCampusMember@@QAEHXZ PROC NEAR		; CCampusMember::GetLevel, COMDAT
; _this$ = ecx

; 32   : 	int		GetLevel()	{	return m_nMemberLv;	}

  00000	8b 41 04	 mov	 eax, DWORD PTR [ecx+4]
  00003	c3		 ret	 0
?GetLevel@CCampusMember@@QAEHXZ ENDP			; CCampusMember::GetLevel
_TEXT	ENDS
PUBLIC	?SetLevel@CCampusMember@@QAEXH@Z		; CCampusMember::SetLevel
; Function compile flags: /Ogty
;	COMDAT ?SetLevel@CCampusMember@@QAEXH@Z
_TEXT	SEGMENT
_nLevel$ = 8						; size = 4
?SetLevel@CCampusMember@@QAEXH@Z PROC NEAR		; CCampusMember::SetLevel, COMDAT
; _this$ = ecx

; 33   : 	void	SetLevel( int nLevel )	{	m_nMemberLv = nLevel;	}

  00000	8b 44 24 04	 mov	 eax, DWORD PTR _nLevel$[esp-4]
  00004	89 41 04	 mov	 DWORD PTR [ecx+4], eax
  00007	c2 04 00	 ret	 4
?SetLevel@CCampusMember@@QAEXH@Z ENDP			; CCampusMember::SetLevel
_TEXT	ENDS
PUBLIC	?GetCampusId@CCampus@@QAEKXZ			; CCampus::GetCampusId
; Function compile flags: /Ogty
;	COMDAT ?GetCampusId@CCampus@@QAEKXZ
_TEXT	SEGMENT
?GetCampusId@CCampus@@QAEKXZ PROC NEAR			; CCampus::GetCampusId, COMDAT
; _this$ = ecx

; 50   : 	u_long	GetCampusId()	{	return m_idCampus;	}

  00000	8b 01		 mov	 eax, DWORD PTR [ecx]
  00002	c3		 ret	 0
?GetCampusId@CCampus@@QAEKXZ ENDP			; CCampus::GetCampusId
_TEXT	ENDS
PUBLIC	?SetCampusId@CCampus@@QAEXK@Z			; CCampus::SetCampusId
; Function compile flags: /Ogty
;	COMDAT ?SetCampusId@CCampus@@QAEXK@Z
_TEXT	SEGMENT
_idCampus$ = 8						; size = 4
?SetCampusId@CCampus@@QAEXK@Z PROC NEAR			; CCampus::SetCampusId, COMDAT
; _this$ = ecx

; 51   : 	void	SetCampusId( u_long idCampus )	{	m_idCampus = idCampus;	}

  00000	8b 44 24 04	 mov	 eax, DWORD PTR _idCampus$[esp-4]
  00004	89 01		 mov	 DWORD PTR [ecx], eax
  00006	c2 04 00	 ret	 4
?SetCampusId@CCampus@@QAEXK@Z ENDP			; CCampus::SetCampusId
_TEXT	ENDS
PUBLIC	?GetMaster@CCampus@@QAEKXZ			; CCampus::GetMaster
; Function compile flags: /Ogty
;	COMDAT ?GetMaster@CCampus@@QAEKXZ
_TEXT	SEGMENT
?GetMaster@CCampus@@QAEKXZ PROC NEAR			; CCampus::GetMaster, COMDAT
; _this$ = ecx

; 52   : 	u_long	GetMaster()		{	return m_idMaster;	}

  00000	8b 41 04	 mov	 eax, DWORD PTR [ecx+4]
  00003	c3		 ret	 0
?GetMaster@CCampus@@QAEKXZ ENDP				; CCampus::GetMaster
_TEXT	ENDS
PUBLIC	?SetMaster@CCampus@@QAEXK@Z			; CCampus::SetMaster
; Function compile flags: /Ogty
;	COMDAT ?SetMaster@CCampus@@QAEXK@Z
_TEXT	SEGMENT
_idMaster$ = 8						; size = 4
?SetMaster@CCampus@@QAEXK@Z PROC NEAR			; CCampus::SetMaster, COMDAT
; _this$ = ecx

; 53   : 	void	SetMaster( u_long idMaster )	{	m_idMaster = idMaster;	}

  00000	8b 44 24 04	 mov	 eax, DWORD PTR _idMaster$[esp-4]
  00004	89 41 04	 mov	 DWORD PTR [ecx+4], eax
  00007	c2 04 00	 ret	 4
?SetMaster@CCampus@@QAEXK@Z ENDP			; CCampus::SetMaster
_TEXT	ENDS
PUBLIC	?IsMaster@CCampus@@QAEHK@Z			; CCampus::IsMaster
; Function compile flags: /Ogty
;	COMDAT ?IsMaster@CCampus@@QAEHK@Z
_TEXT	SEGMENT
_idPlayer$ = 8						; size = 4
?IsMaster@CCampus@@QAEHK@Z PROC NEAR			; CCampus::IsMaster, COMDAT
; _this$ = ecx

; 54   : 	BOOL	IsMaster( u_long idPlayer )		{	return ( idPlayer == m_idMaster );	}

  00000	8b 54 24 04	 mov	 edx, DWORD PTR _idPlayer$[esp-4]
  00004	56		 push	 esi
  00005	8b 71 04	 mov	 esi, DWORD PTR [ecx+4]
  00008	33 c0		 xor	 eax, eax
  0000a	3b d6		 cmp	 edx, esi
  0000c	0f 94 c0	 sete	 al
  0000f	5e		 pop	 esi
  00010	c2 04 00	 ret	 4
?IsMaster@CCampus@@QAEHK@Z ENDP				; CCampus::IsMaster
_TEXT	ENDS
PUBLIC	?AddCampus@CCampusHelper@@QAEKPAVCCampus@@@Z	; CCampusHelper::AddCampus
EXTRN	?AddCampus@CCampusMng@@QAEKPAVCCampus@@@Z:NEAR	; CCampusMng::AddCampus
; Function compile flags: /Ogty
; File c:\documents and settings\test\mes documents\source\virtuos_v17\build\program\databaseserver\campusdbctrl.h
;	COMDAT ?AddCampus@CCampusHelper@@QAEKPAVCCampus@@@Z
_TEXT	SEGMENT
_pCampus$ = 8						; size = 4
?AddCampus@CCampusHelper@@QAEKPAVCCampus@@@Z PROC NEAR	; CCampusHelper::AddCampus, COMDAT
; _this$ = ecx

; 75   : 	u_long	AddCampus( CCampus* pCampus )	{	return m_pCampusMng->AddCampus( pCampus );	}

  00000	8b 49 18	 mov	 ecx, DWORD PTR [ecx+24]
  00003	e9 00 00 00 00	 jmp	 ?AddCampus@CCampusMng@@QAEKPAVCCampus@@@Z ; CCampusMng::AddCampus
?AddCampus@CCampusHelper@@QAEKPAVCCampus@@@Z ENDP	; CCampusHelper::AddCampus
_TEXT	ENDS
PUBLIC	?RemoveCampus@CCampusHelper@@QAEHK@Z		; CCampusHelper::RemoveCampus
EXTRN	?RemoveCampus@CCampusMng@@QAEHK@Z:NEAR		; CCampusMng::RemoveCampus
; Function compile flags: /Ogty
;	COMDAT ?RemoveCampus@CCampusHelper@@QAEHK@Z
_TEXT	SEGMENT
_idCampus$ = 8						; size = 4
?RemoveCampus@CCampusHelper@@QAEHK@Z PROC NEAR		; CCampusHelper::RemoveCampus, COMDAT
; _this$ = ecx

; 76   : 	BOOL	RemoveCampus( u_long idCampus )	{	return m_pCampusMng->RemoveCampus( idCampus );	}

  00000	8b 49 18	 mov	 ecx, DWORD PTR [ecx+24]
  00003	e9 00 00 00 00	 jmp	 ?RemoveCampus@CCampusMng@@QAEHK@Z ; CCampusMng::RemoveCampus
?RemoveCampus@CCampusHelper@@QAEHK@Z ENDP		; CCampusHelper::RemoveCampus
_TEXT	ENDS
PUBLIC	?GetCampus@CCampusHelper@@QAEPAVCCampus@@K@Z	; CCampusHelper::GetCampus
EXTRN	?GetCampus@CCampusMng@@QAEPAVCCampus@@K@Z:NEAR	; CCampusMng::GetCampus
; Function compile flags: /Ogty
;	COMDAT ?GetCampus@CCampusHelper@@QAEPAVCCampus@@K@Z
_TEXT	SEGMENT
_idCampus$ = 8						; size = 4
?GetCampus@CCampusHelper@@QAEPAVCCampus@@K@Z PROC NEAR	; CCampusHelper::GetCampus, COMDAT
; _this$ = ecx

; 79   : 	CCampus*	GetCampus( u_long idCampus )	{	return m_pCampusMng->GetCampus( idCampus );	}

  00000	8b 49 18	 mov	 ecx, DWORD PTR [ecx+24]
  00003	e9 00 00 00 00	 jmp	 ?GetCampus@CCampusMng@@QAEPAVCCampus@@K@Z ; CCampusMng::GetCampus
?GetCampus@CCampusHelper@@QAEPAVCCampus@@K@Z ENDP	; CCampusHelper::GetCampus
_TEXT	ENDS
PUBLIC	?Clear@CCampusHelper@@QAEXXZ			; CCampusHelper::Clear
EXTRN	?Clear@CCampusMng@@QAEXXZ:NEAR			; CCampusMng::Clear
; Function compile flags: /Ogty
;	COMDAT ?Clear@CCampusHelper@@QAEXXZ
_TEXT	SEGMENT
?Clear@CCampusHelper@@QAEXXZ PROC NEAR			; CCampusHelper::Clear, COMDAT
; _this$ = ecx

; 81   : 	void	Clear()	{	m_pCampusMng->Clear();	}

  00000	8b 49 18	 mov	 ecx, DWORD PTR [ecx+24]
  00003	e9 00 00 00 00	 jmp	 ?Clear@CCampusMng@@QAEXXZ ; CCampusMng::Clear
?Clear@CCampusHelper@@QAEXXZ ENDP			; CCampusHelper::Clear
_TEXT	ENDS
PUBLIC	?AddPlayerId2CampusId@CCampusHelper@@QAE_NKK@Z	; CCampusHelper::AddPlayerId2CampusId
EXTRN	?AddPlayerId2CampusId@CCampusMng@@QAE_NKK@Z:NEAR ; CCampusMng::AddPlayerId2CampusId
; Function compile flags: /Ogty
;	COMDAT ?AddPlayerId2CampusId@CCampusHelper@@QAE_NKK@Z
_TEXT	SEGMENT
_idPlayer$ = 8						; size = 4
_idCampus$ = 12						; size = 4
?AddPlayerId2CampusId@CCampusHelper@@QAE_NKK@Z PROC NEAR ; CCampusHelper::AddPlayerId2CampusId, COMDAT
; _this$ = ecx

; 82   : 	bool	AddPlayerId2CampusId( u_long idPlayer, u_long idCampus )	{	return m_pCampusMng->AddPlayerId2CampusId( idPlayer, idCampus );	}

  00000	8b 49 18	 mov	 ecx, DWORD PTR [ecx+24]
  00003	e9 00 00 00 00	 jmp	 ?AddPlayerId2CampusId@CCampusMng@@QAE_NKK@Z ; CCampusMng::AddPlayerId2CampusId
?AddPlayerId2CampusId@CCampusHelper@@QAE_NKK@Z ENDP	; CCampusHelper::AddPlayerId2CampusId
_TEXT	ENDS
PUBLIC	?GetCampusIdByPlayerId@CCampusHelper@@QAEKK@Z	; CCampusHelper::GetCampusIdByPlayerId
EXTRN	?GetCampusIdByPlayerId@CCampusMng@@QAEKK@Z:NEAR	; CCampusMng::GetCampusIdByPlayerId
; Function compile flags: /Ogty
;	COMDAT ?GetCampusIdByPlayerId@CCampusHelper@@QAEKK@Z
_TEXT	SEGMENT
_idPlayer$ = 8						; size = 4
?GetCampusIdByPlayerId@CCampusHelper@@QAEKK@Z PROC NEAR	; CCampusHelper::GetCampusIdByPlayerId, COMDAT
; _this$ = ecx

; 84   : 	u_long	GetCampusIdByPlayerId( u_long idPlayer )	{	return m_pCampusMng->GetCampusIdByPlayerId( idPlayer );	}

  00000	8b 49 18	 mov	 ecx, DWORD PTR [ecx+24]
  00003	e9 00 00 00 00	 jmp	 ?GetCampusIdByPlayerId@CCampusMng@@QAEKK@Z ; CCampusMng::GetCampusIdByPlayerId
?GetCampusIdByPlayerId@CCampusHelper@@QAEKK@Z ENDP	; CCampusHelper::GetCampusIdByPlayerId
_TEXT	ENDS
PUBLIC	??0CCampusDBCtrl@@QAE@XZ			; CCampusDBCtrl::CCampusDBCtrl
PUBLIC	?Handler@CCampusDBCtrl@@UAEXPAUtagDB_OVERLAPPED_PLUS@@K@Z ; CCampusDBCtrl::Handler
PUBLIC	?OnTimer@CDbController@@UAEXXZ			; CDbController::OnTimer
PUBLIC	??_7CCampusDBCtrl@@6B@				; CCampusDBCtrl::`vftable'
PUBLIC	??_GCCampusDBCtrl@@UAEPAXI@Z			; CCampusDBCtrl::`scalar deleting destructor'
EXTRN	??0CDbController@@QAE@XZ:NEAR			; CDbController::CDbController
EXTRN	??_ECCampusDBCtrl@@UAEPAXI@Z:NEAR		; CCampusDBCtrl::`vector deleting destructor'
;	COMDAT ??_7CCampusDBCtrl@@6B@
; File c:\documents and settings\test\mes documents\source\virtuos_v17\build\program\databaseserver\campusdbctrl.cpp
CONST	SEGMENT
??_7CCampusDBCtrl@@6B@ DD FLAT:??_ECCampusDBCtrl@@UAEPAXI@Z ; CCampusDBCtrl::`vftable'
	DD	FLAT:?Handler@CCampusDBCtrl@@UAEXPAUtagDB_OVERLAPPED_PLUS@@K@Z
	DD	FLAT:?OnTimer@CDbController@@UAEXXZ
; Function compile flags: /Ogty
CONST	ENDS
;	COMDAT ??0CCampusDBCtrl@@QAE@XZ
_TEXT	SEGMENT
??0CCampusDBCtrl@@QAE@XZ PROC NEAR			; CCampusDBCtrl::CCampusDBCtrl, COMDAT
; _this$ = ecx

; 20   : {

  00000	56		 push	 esi
  00001	8b f1		 mov	 esi, ecx
  00003	e8 00 00 00 00	 call	 ??0CDbController@@QAE@XZ ; CDbController::CDbController
  00008	c7 06 00 00 00
	00		 mov	 DWORD PTR [esi], OFFSET FLAT:??_7CCampusDBCtrl@@6B@
  0000e	c7 46 14 00 00
	00 00		 mov	 DWORD PTR [esi+20], 0

; 21   : 
; 22   : }

  00015	8b c6		 mov	 eax, esi
  00017	5e		 pop	 esi
  00018	c3		 ret	 0
??0CCampusDBCtrl@@QAE@XZ ENDP				; CCampusDBCtrl::CCampusDBCtrl
; Function compile flags: /Ogty
; File c:\documents and settings\test\mes documents\source\virtuos_v17\build\program\databaseserver\dbcontroller.h
_TEXT	ENDS
;	COMDAT ?OnTimer@CDbController@@UAEXXZ
_TEXT	SEGMENT
?OnTimer@CDbController@@UAEXXZ PROC NEAR		; CDbController::OnTimer, COMDAT
; _this$ = ecx

; 26   : 	virtual void	OnTimer()	{}

  00000	c3		 ret	 0
?OnTimer@CDbController@@UAEXXZ ENDP			; CDbController::OnTimer
_TEXT	ENDS
PUBLIC	??_GCQuery@@QAEPAXI@Z				; CQuery::`scalar deleting destructor'
EXTRN	??3@YAXPAX@Z:NEAR				; operator delete
EXTRN	??1CQuery@@QAE@XZ:NEAR				; CQuery::~CQuery
; Function compile flags: /Ogty
;	COMDAT ??_GCQuery@@QAEPAXI@Z
_TEXT	SEGMENT
___flags$ = 8						; size = 4
??_GCQuery@@QAEPAXI@Z PROC NEAR				; CQuery::`scalar deleting destructor', COMDAT
; _this$ = ecx
  00000	56		 push	 esi
  00001	8b f1		 mov	 esi, ecx
  00003	e8 00 00 00 00	 call	 ??1CQuery@@QAE@XZ	; CQuery::~CQuery
  00008	f6 44 24 08 01	 test	 BYTE PTR ___flags$[esp], 1
  0000d	74 09		 je	 SHORT $L204989
  0000f	56		 push	 esi
  00010	e8 00 00 00 00	 call	 ??3@YAXPAX@Z		; operator delete
  00015	83 c4 04	 add	 esp, 4
$L204989:
  00018	8b c6		 mov	 eax, esi
  0001a	5e		 pop	 esi
  0001b	c2 04 00	 ret	 4
??_GCQuery@@QAEPAXI@Z ENDP				; CQuery::`scalar deleting destructor'
_TEXT	ENDS
PUBLIC	?CreateLogQuery@CCampusDBCtrl@@AAEXXZ		; CCampusDBCtrl::CreateLogQuery
PUBLIC	??_C@_0CP@EFPIHLLF@Can?8t?5connect?5db?3?5CCampusDBCtrl?4@ ; `string'
EXTRN	??2@YAPAXI@Z:NEAR				; operator new
EXTRN	??0CQuery@@QAE@XZ:NEAR				; CQuery::CQuery
EXTRN	?Connect@CQuery@@QAEHHPAD0PBD@Z:NEAR		; CQuery::Connect
EXTRN	__except_list:DWORD
EXTRN	___CxxFrameHandler:NEAR
EXTRN	?GetInstance@CDbManager@@SAAAV1@XZ:NEAR		; CDbManager::GetInstance
EXTRN	?DSN_NAME_LOG@@3PADA:BYTE			; DSN_NAME_LOG
EXTRN	?DB_ADMIN_ID_LOG@@3PADA:BYTE			; DB_ADMIN_ID_LOG
EXTRN	?AfxMessageBox@@YGHPBDII@Z:NEAR			; AfxMessageBox
;	COMDAT xdata$x
; File c:\documents and settings\test\mes documents\source\virtuos_v17\build\program\databaseserver\campusdbctrl.cpp
xdata$x	SEGMENT
$T205012 DD	0ffffffffH
	DD	FLAT:$L205000
$T205008 DD	019930520H
	DD	01H
	DD	FLAT:$T205012
	DD	2 DUP(00H)
	DD	2 DUP(00H)
xdata$x	ENDS
;	COMDAT ??_C@_0CP@EFPIHLLF@Can?8t?5connect?5db?3?5CCampusDBCtrl?4@
CONST	SEGMENT
??_C@_0CP@EFPIHLLF@Can?8t?5connect?5db?3?5CCampusDBCtrl?4@ DB 'Can''t con'
	DB	'nect db: CCampusDBCtrl.CreateLogQuery', 00H	; `string'
; Function compile flags: /Ogty
CONST	ENDS
;	COMDAT ?CreateLogQuery@CCampusDBCtrl@@AAEXXZ
_TEXT	SEGMENT
$T204993 = -16						; size = 4
__$EHRec$ = -12						; size = 12
?CreateLogQuery@CCampusDBCtrl@@AAEXXZ PROC NEAR		; CCampusDBCtrl::CreateLogQuery, COMDAT
; _this$ = ecx

; 59   : {

  00000	6a ff		 push	 -1
  00002	68 00 00 00 00	 push	 __ehhandler$?CreateLogQuery@CCampusDBCtrl@@AAEXXZ
  00007	64 a1 00 00 00
	00		 mov	 eax, DWORD PTR fs:__except_list
  0000d	50		 push	 eax
  0000e	64 89 25 00 00
	00 00		 mov	 DWORD PTR fs:__except_list, esp
  00015	51		 push	 ecx
  00016	56		 push	 esi

; 60   : 	m_pLogQuery = new CQuery;

  00017	68 10 3d 00 00	 push	 15632			; 00003d10H
  0001c	8b f1		 mov	 esi, ecx
  0001e	e8 00 00 00 00	 call	 ??2@YAPAXI@Z		; operator new
  00023	83 c4 04	 add	 esp, 4
  00026	89 44 24 04	 mov	 DWORD PTR $T204993[esp+20], eax
  0002a	85 c0		 test	 eax, eax
  0002c	c7 44 24 10 00
	00 00 00	 mov	 DWORD PTR __$EHRec$[esp+28], 0
  00034	74 09		 je	 SHORT $L204994
  00036	8b c8		 mov	 ecx, eax
  00038	e8 00 00 00 00	 call	 ??0CQuery@@QAE@XZ	; CQuery::CQuery
  0003d	eb 02		 jmp	 SHORT $L204995
$L204994:
  0003f	33 c0		 xor	 eax, eax
$L204995:
  00041	c7 44 24 10 ff
	ff ff ff	 mov	 DWORD PTR __$EHRec$[esp+28], -1
  00049	89 46 14	 mov	 DWORD PTR [esi+20], eax

; 61   : 
; 62   : 	const char* pass	= CDbManager::GetInstance().DB_ADMIN_PASS_LOG;

  0004c	e8 00 00 00 00	 call	 ?GetInstance@CDbManager@@SAAAV1@XZ ; CDbManager::GetInstance

; 63   : 	if( FALSE == m_pLogQuery->Connect( 3, DSN_NAME_LOG, DB_ADMIN_ID_LOG, pass ) )

  00051	8b 4e 14	 mov	 ecx, DWORD PTR [esi+20]
  00054	05 c0 03 00 00	 add	 eax, 960		; 000003c0H
  00059	50		 push	 eax
  0005a	68 00 00 00 00	 push	 OFFSET FLAT:?DB_ADMIN_ID_LOG@@3PADA ; DB_ADMIN_ID_LOG
  0005f	68 00 00 00 00	 push	 OFFSET FLAT:?DSN_NAME_LOG@@3PADA ; DSN_NAME_LOG
  00064	6a 03		 push	 3
  00066	e8 00 00 00 00	 call	 ?Connect@CQuery@@QAEHHPAD0PBD@Z ; CQuery::Connect
  0006b	85 c0		 test	 eax, eax
  0006d	75 2c		 jne	 SHORT $L203172
  0006f	57		 push	 edi

; 64   : 	{
; 65   : 		::AfxMessageBox( "Can't connect db: CCampusDBCtrl.CreateLogQuery" );

  00070	50		 push	 eax
  00071	50		 push	 eax
  00072	68 00 00 00 00	 push	 OFFSET FLAT:??_C@_0CP@EFPIHLLF@Can?8t?5connect?5db?3?5CCampusDBCtrl?4@
  00077	e8 00 00 00 00	 call	 ?AfxMessageBox@@YGHPBDII@Z ; AfxMessageBox

; 66   : 		SAFE_DELETE( m_pLogQuery );

  0007c	8b 7e 14	 mov	 edi, DWORD PTR [esi+20]
  0007f	85 ff		 test	 edi, edi
  00081	74 17		 je	 SHORT $L205011
  00083	8b cf		 mov	 ecx, edi
  00085	e8 00 00 00 00	 call	 ??1CQuery@@QAE@XZ	; CQuery::~CQuery
  0008a	57		 push	 edi
  0008b	e8 00 00 00 00	 call	 ??3@YAXPAX@Z		; operator delete
  00090	83 c4 04	 add	 esp, 4
  00093	c7 46 14 00 00
	00 00		 mov	 DWORD PTR [esi+20], 0
$L205011:
  0009a	5f		 pop	 edi
$L203172:

; 67   : 		ASSERT( 0 );
; 68   : 	}
; 69   : }

  0009b	8b 4c 24 08	 mov	 ecx, DWORD PTR __$EHRec$[esp+20]
  0009f	5e		 pop	 esi
  000a0	64 89 0d 00 00
	00 00		 mov	 DWORD PTR fs:__except_list, ecx
  000a7	83 c4 10	 add	 esp, 16			; 00000010H
  000aa	c3		 ret	 0
_TEXT	ENDS
;	COMDAT text$x
text$x	SEGMENT
$L205000:
  00000	8b 45 f0	 mov	 eax, DWORD PTR $T204993[ebp]
  00003	50		 push	 eax
  00004	e8 00 00 00 00	 call	 ??3@YAXPAX@Z		; operator delete
  00009	59		 pop	 ecx
  0000a	c3		 ret	 0
__ehhandler$?CreateLogQuery@CCampusDBCtrl@@AAEXXZ:
  0000b	b8 00 00 00 00	 mov	 eax, OFFSET FLAT:$T205008
  00010	e9 00 00 00 00	 jmp	 ___CxxFrameHandler
text$x	ENDS
?CreateLogQuery@CCampusDBCtrl@@AAEXXZ ENDP		; CCampusDBCtrl::CreateLogQuery
PUBLIC	??_GCCampusMember@@QAEPAXI@Z			; CCampusMember::`scalar deleting destructor'
EXTRN	??1CCampusMember@@QAE@XZ:NEAR			; CCampusMember::~CCampusMember
; Function compile flags: /Ogty
;	COMDAT ??_GCCampusMember@@QAEPAXI@Z
_TEXT	SEGMENT
___flags$ = 8						; size = 4
??_GCCampusMember@@QAEPAXI@Z PROC NEAR			; CCampusMember::`scalar deleting destructor', COMDAT
; _this$ = ecx
  00000	56		 push	 esi
  00001	8b f1		 mov	 esi, ecx
  00003	e8 00 00 00 00	 call	 ??1CCampusMember@@QAE@XZ ; CCampusMember::~CCampusMember
  00008	f6 44 24 08 01	 test	 BYTE PTR ___flags$[esp], 1
  0000d	74 09		 je	 SHORT $L205018
  0000f	56		 push	 esi
  00010	e8 00 00 00 00	 call	 ??3@YAXPAX@Z		; operator delete
  00015	83 c4 04	 add	 esp, 4
$L205018:
  00018	8b c6		 mov	 eax, esi
  0001a	5e		 pop	 esi
  0001b	c2 04 00	 ret	 4
??_GCCampusMember@@QAEPAXI@Z ENDP			; CCampusMember::`scalar deleting destructor'
_TEXT	ENDS
PUBLIC	??_GCCampus@@QAEPAXI@Z				; CCampus::`scalar deleting destructor'
EXTRN	??1CCampus@@QAE@XZ:NEAR				; CCampus::~CCampus
; Function compile flags: /Ogty
;	COMDAT ??_GCCampus@@QAEPAXI@Z
_TEXT	SEGMENT
___flags$ = 8						; size = 4
??_GCCampus@@QAEPAXI@Z PROC NEAR			; CCampus::`scalar deleting destructor', COMDAT
; _this$ = ecx
  00000	56		 push	 esi
  00001	8b f1		 mov	 esi, ecx
  00003	e8 00 00 00 00	 call	 ??1CCampus@@QAE@XZ	; CCampus::~CCampus
  00008	f6 44 24 08 01	 test	 BYTE PTR ___flags$[esp], 1
  0000d	74 09		 je	 SHORT $L205021
  0000f	56		 push	 esi
  00010	e8 00 00 00 00	 call	 ??3@YAXPAX@Z		; operator delete
  00015	83 c4 04	 add	 esp, 4
$L205021:
  00018	8b c6		 mov	 eax, esi
  0001a	5e		 pop	 esi
  0001b	c2 04 00	 ret	 4
??_GCCampus@@QAEPAXI@Z ENDP				; CCampus::`scalar deleting destructor'
_TEXT	ENDS
PUBLIC	?InsertCampus@CCampusDBCtrl@@AAEXK@Z		; CCampusDBCtrl::InsertCampus
PUBLIC	??_C@_0BD@DNMKPCGK@?4?2CampusDBCtrl?4cpp?$AA@	; `string'
PUBLIC	??_C@_09GBAEEKDE@?$CFs?0?5?$CFd?7?$CFs?$AA@	; `string'
PUBLIC	??_C@_0DI@HDOGOKEB@usp_Campus_Insert?5?$EAidCampus?5?$DN?5?$CFd@ ; `string'
EXTRN	?Exec@CQuery@@QAEHPBD@Z:NEAR			; CQuery::Exec
EXTRN	?WriteLog@@YAXPBDZZ:NEAR			; WriteLog
EXTRN	__chkstk:NEAR
EXTRN	___security_cookie:DWORD
EXTRN	@__security_check_cookie@4:NEAR
EXTRN	_sprintf:NEAR
EXTRN	?g_appInfo@@3UAppInfo@@A:QWORD			; g_appInfo
;	COMDAT ??_C@_0DI@HDOGOKEB@usp_Campus_Insert?5?$EAidCampus?5?$DN?5?$CFd@
; File c:\documents and settings\test\mes documents\source\virtuos_v17\build\program\databaseserver\dbcontroller.h
CONST	SEGMENT
??_C@_0DI@HDOGOKEB@usp_Campus_Insert?5?$EAidCampus?5?$DN?5?$CFd@ DB 'usp_'
	DB	'Campus_Insert @idCampus = %d, @serverindex = ''%02d''', 00H ; `string'
CONST	ENDS
;	COMDAT ??_C@_0BD@DNMKPCGK@?4?2CampusDBCtrl?4cpp?$AA@
CONST	SEGMENT
??_C@_0BD@DNMKPCGK@?4?2CampusDBCtrl?4cpp?$AA@ DB '.\CampusDBCtrl.cpp', 00H ; `string'
CONST	ENDS
;	COMDAT ??_C@_09GBAEEKDE@?$CFs?0?5?$CFd?7?$CFs?$AA@
CONST	SEGMENT
??_C@_09GBAEEKDE@?$CFs?0?5?$CFd?7?$CFs?$AA@ DB '%s, %d', 09H, '%s', 00H ; `string'
; Function compile flags: /Ogty
; File c:\documents and settings\test\mes documents\source\virtuos_v17\build\program\databaseserver\campusdbctrl.cpp
CONST	ENDS
;	COMDAT ?InsertCampus@CCampusDBCtrl@@AAEXK@Z
_TEXT	SEGMENT
_szQuery$ = -40968					; size = 40960
__$ArrayPad$ = -4					; size = 4
__$ReturnAddr$ = 4					; size = 4
_idCampus$ = 8						; size = 4
?InsertCampus@CCampusDBCtrl@@AAEXK@Z PROC NEAR		; CCampusDBCtrl::InsertCampus, COMDAT
; _this$ = ecx

; 279  : {

  00000	55		 push	 ebp
  00001	8b ec		 mov	 ebp, esp
  00003	83 e4 f8	 and	 esp, -8			; fffffff8H
  00006	b8 08 a0 00 00	 mov	 eax, 40968		; 0000a008H
  0000b	e8 00 00 00 00	 call	 __chkstk
  00010	a1 00 00 00 00	 mov	 eax, DWORD PTR ___security_cookie
  00015	33 c5		 xor	 eax, ebp
  00017	56		 push	 esi

; 280  : 	CQuery* pQuery = GetQueryObject();

  00018	8b 71 0c	 mov	 esi, DWORD PTR [ecx+12]
  0001b	57		 push	 edi
  0001c	89 84 24 0c a0
	00 00		 mov	 DWORD PTR __$ArrayPad$[esp+40976], eax

; 281  : 	char szQuery[QUERY_SIZE] = {0, };

  00023	33 c0		 xor	 eax, eax
  00025	c6 44 24 08 00	 mov	 BYTE PTR _szQuery$[esp+40976], 0
  0002a	b9 ff 27 00 00	 mov	 ecx, 10239		; 000027ffH
  0002f	8d 7c 24 09	 lea	 edi, DWORD PTR _szQuery$[esp+40977]
  00033	f3 ab		 rep stosd

; 282  : 	
; 283  : 	sprintf( szQuery, "usp_Campus_Insert @idCampus = %d, @serverindex = '%02d'", idCampus, g_appInfo.dwSys );

  00035	8b 4d 08	 mov	 ecx, DWORD PTR _idCampus$[ebp]
  00038	66 ab		 stosw
  0003a	aa		 stosb
  0003b	a1 00 00 00 00	 mov	 eax, DWORD PTR ?g_appInfo@@3UAppInfo@@A
  00040	50		 push	 eax
  00041	51		 push	 ecx
  00042	8d 54 24 10	 lea	 edx, DWORD PTR _szQuery$[esp+40984]
  00046	68 00 00 00 00	 push	 OFFSET FLAT:??_C@_0DI@HDOGOKEB@usp_Campus_Insert?5?$EAidCampus?5?$DN?5?$CFd@
  0004b	52		 push	 edx
  0004c	e8 00 00 00 00	 call	 _sprintf
  00051	83 c4 10	 add	 esp, 16			; 00000010H

; 284  : 	if( pQuery->Exec( szQuery ) == FALSE )

  00054	8d 44 24 08	 lea	 eax, DWORD PTR _szQuery$[esp+40976]
  00058	50		 push	 eax
  00059	8b ce		 mov	 ecx, esi
  0005b	e8 00 00 00 00	 call	 ?Exec@CQuery@@QAEHPBD@Z	; CQuery::Exec
  00060	85 c0		 test	 eax, eax
  00062	75 1c		 jne	 SHORT $L203453

; 285  : 	{ WriteLog( "%s, %d\t%s", __FILE__, __LINE__, szQuery ); return; }

  00064	8d 4c 24 08	 lea	 ecx, DWORD PTR _szQuery$[esp+40976]
  00068	51		 push	 ecx
  00069	68 1d 01 00 00	 push	 285			; 0000011dH
  0006e	68 00 00 00 00	 push	 OFFSET FLAT:??_C@_0BD@DNMKPCGK@?4?2CampusDBCtrl?4cpp?$AA@
  00073	68 00 00 00 00	 push	 OFFSET FLAT:??_C@_09GBAEEKDE@?$CFs?0?5?$CFd?7?$CFs?$AA@
  00078	e8 00 00 00 00	 call	 ?WriteLog@@YAXPBDZZ	; WriteLog
  0007d	83 c4 10	 add	 esp, 16			; 00000010H
$L203453:

; 286  : }

  00080	8b 8c 24 0c a0
	00 00		 mov	 ecx, DWORD PTR __$ArrayPad$[esp+40976]
  00087	5f		 pop	 edi
  00088	33 cd		 xor	 ecx, ebp
  0008a	5e		 pop	 esi
  0008b	e8 00 00 00 00	 call	 @__security_check_cookie@4
  00090	8b e5		 mov	 esp, ebp
  00092	5d		 pop	 ebp
  00093	c2 04 00	 ret	 4
?InsertCampus@CCampusDBCtrl@@AAEXK@Z ENDP		; CCampusDBCtrl::InsertCampus
_TEXT	ENDS
PUBLIC	?DeleteCampus@CCampusDBCtrl@@AAEXK@Z		; CCampusDBCtrl::DeleteCampus
PUBLIC	??_C@_0DI@GMELEMJP@usp_Campus_Delete?5?$EAidCampus?5?$DN?5?$CFd@ ; `string'
;	COMDAT ??_C@_0DI@GMELEMJP@usp_Campus_Delete?5?$EAidCampus?5?$DN?5?$CFd@
; File c:\documents and settings\test\mes documents\source\virtuos_v17\build\program\databaseserver\dbcontroller.h
CONST	SEGMENT
??_C@_0DI@GMELEMJP@usp_Campus_Delete?5?$EAidCampus?5?$DN?5?$CFd@ DB 'usp_'
	DB	'Campus_Delete @idCampus = %d, @serverindex = ''%02d''', 00H ; `string'
; Function compile flags: /Ogty
; File c:\documents and settings\test\mes documents\source\virtuos_v17\build\program\databaseserver\campusdbctrl.cpp
CONST	ENDS
;	COMDAT ?DeleteCampus@CCampusDBCtrl@@AAEXK@Z
_TEXT	SEGMENT
_szQuery$ = -40968					; size = 40960
__$ArrayPad$ = -4					; size = 4
__$ReturnAddr$ = 4					; size = 4
_idCampus$ = 8						; size = 4
?DeleteCampus@CCampusDBCtrl@@AAEXK@Z PROC NEAR		; CCampusDBCtrl::DeleteCampus, COMDAT
; _this$ = ecx

; 289  : {

  00000	55		 push	 ebp
  00001	8b ec		 mov	 ebp, esp
  00003	83 e4 f8	 and	 esp, -8			; fffffff8H
  00006	b8 08 a0 00 00	 mov	 eax, 40968		; 0000a008H
  0000b	e8 00 00 00 00	 call	 __chkstk
  00010	a1 00 00 00 00	 mov	 eax, DWORD PTR ___security_cookie
  00015	33 c5		 xor	 eax, ebp
  00017	56		 push	 esi

; 290  : 	CQuery* pQuery = GetQueryObject();

  00018	8b 71 0c	 mov	 esi, DWORD PTR [ecx+12]
  0001b	57		 push	 edi
  0001c	89 84 24 0c a0
	00 00		 mov	 DWORD PTR __$ArrayPad$[esp+40976], eax

; 291  : 	char szQuery[QUERY_SIZE] = {0, };

  00023	33 c0		 xor	 eax, eax
  00025	c6 44 24 08 00	 mov	 BYTE PTR _szQuery$[esp+40976], 0
  0002a	b9 ff 27 00 00	 mov	 ecx, 10239		; 000027ffH
  0002f	8d 7c 24 09	 lea	 edi, DWORD PTR _szQuery$[esp+40977]
  00033	f3 ab		 rep stosd

; 292  : 	
; 293  : 	sprintf( szQuery, "usp_Campus_Delete @idCampus = %d, @serverindex = '%02d'", idCampus, g_appInfo.dwSys );

  00035	8b 4d 08	 mov	 ecx, DWORD PTR _idCampus$[ebp]
  00038	66 ab		 stosw
  0003a	aa		 stosb
  0003b	a1 00 00 00 00	 mov	 eax, DWORD PTR ?g_appInfo@@3UAppInfo@@A
  00040	50		 push	 eax
  00041	51		 push	 ecx
  00042	8d 54 24 10	 lea	 edx, DWORD PTR _szQuery$[esp+40984]
  00046	68 00 00 00 00	 push	 OFFSET FLAT:??_C@_0DI@GMELEMJP@usp_Campus_Delete?5?$EAidCampus?5?$DN?5?$CFd@
  0004b	52		 push	 edx
  0004c	e8 00 00 00 00	 call	 _sprintf
  00051	83 c4 10	 add	 esp, 16			; 00000010H

; 294  : 	if( pQuery->Exec( szQuery ) == FALSE )

  00054	8d 44 24 08	 lea	 eax, DWORD PTR _szQuery$[esp+40976]
  00058	50		 push	 eax
  00059	8b ce		 mov	 ecx, esi
  0005b	e8 00 00 00 00	 call	 ?Exec@CQuery@@QAEHPBD@Z	; CQuery::Exec
  00060	85 c0		 test	 eax, eax
  00062	75 1c		 jne	 SHORT $L203461

; 295  : 	{ WriteLog( "%s, %d\t%s", __FILE__, __LINE__, szQuery ); return; }

  00064	8d 4c 24 08	 lea	 ecx, DWORD PTR _szQuery$[esp+40976]
  00068	51		 push	 ecx
  00069	68 27 01 00 00	 push	 295			; 00000127H
  0006e	68 00 00 00 00	 push	 OFFSET FLAT:??_C@_0BD@DNMKPCGK@?4?2CampusDBCtrl?4cpp?$AA@
  00073	68 00 00 00 00	 push	 OFFSET FLAT:??_C@_09GBAEEKDE@?$CFs?0?5?$CFd?7?$CFs?$AA@
  00078	e8 00 00 00 00	 call	 ?WriteLog@@YAXPBDZZ	; WriteLog
  0007d	83 c4 10	 add	 esp, 16			; 00000010H
$L203461:

; 296  : }

  00080	8b 8c 24 0c a0
	00 00		 mov	 ecx, DWORD PTR __$ArrayPad$[esp+40976]
  00087	5f		 pop	 edi
  00088	33 cd		 xor	 ecx, ebp
  0008a	5e		 pop	 esi
  0008b	e8 00 00 00 00	 call	 @__security_check_cookie@4
  00090	8b e5		 mov	 esp, ebp
  00092	5d		 pop	 ebp
  00093	c2 04 00	 ret	 4
?DeleteCampus@CCampusDBCtrl@@AAEXK@Z ENDP		; CCampusDBCtrl::DeleteCampus
_TEXT	ENDS
PUBLIC	?InsertCampusMember@CCampusDBCtrl@@AAEXKKH@Z	; CCampusDBCtrl::InsertCampusMember
PUBLIC	??_C@_0GF@JMBGFEDG@usp_CampusMember_Insert?5?$EAidCampu@ ; `string'
;	COMDAT ??_C@_0GF@JMBGFEDG@usp_CampusMember_Insert?5?$EAidCampu@
; File c:\documents and settings\test\mes documents\source\virtuos_v17\build\program\databaseserver\dbcontroller.h
CONST	SEGMENT
??_C@_0GF@JMBGFEDG@usp_CampusMember_Insert?5?$EAidCampu@ DB 'usp_CampusMe'
	DB	'mber_Insert @idCampus = %d, @serverindex = ''%02d'', @m_idPla'
	DB	'yer = ''%07d'', @nMemberLv = %d', 00H	; `string'
; Function compile flags: /Ogty
; File c:\documents and settings\test\mes documents\source\virtuos_v17\build\program\databaseserver\campusdbctrl.cpp
CONST	ENDS
;	COMDAT ?InsertCampusMember@CCampusDBCtrl@@AAEXKKH@Z
_TEXT	SEGMENT
_szQuery$ = -40968					; size = 40960
__$ArrayPad$ = -4					; size = 4
__$ReturnAddr$ = 4					; size = 4
_idCampus$ = 8						; size = 4
_idPlayer$ = 12						; size = 4
_nMemberLv$ = 16					; size = 4
?InsertCampusMember@CCampusDBCtrl@@AAEXKKH@Z PROC NEAR	; CCampusDBCtrl::InsertCampusMember, COMDAT
; _this$ = ecx

; 299  : {

  00000	55		 push	 ebp
  00001	8b ec		 mov	 ebp, esp
  00003	83 e4 f8	 and	 esp, -8			; fffffff8H
  00006	b8 08 a0 00 00	 mov	 eax, 40968		; 0000a008H
  0000b	e8 00 00 00 00	 call	 __chkstk
  00010	a1 00 00 00 00	 mov	 eax, DWORD PTR ___security_cookie

; 300  : 	CQuery* pQuery = GetQueryObject();
; 301  : 	char szQuery[QUERY_SIZE] = {0, };
; 302  : 	
; 303  : 	sprintf( szQuery, "usp_CampusMember_Insert @idCampus = %d, @serverindex = '%02d', @m_idPlayer = '%07d', @nMemberLv = %d", 
; 304  : 		idCampus, g_appInfo.dwSys, idPlayer, nMemberLv );

  00015	8b 15 00 00 00
	00		 mov	 edx, DWORD PTR ?g_appInfo@@3UAppInfo@@A
  0001b	56		 push	 esi
  0001c	8b 71 0c	 mov	 esi, DWORD PTR [ecx+12]
  0001f	57		 push	 edi
  00020	33 c5		 xor	 eax, ebp
  00022	89 84 24 0c a0
	00 00		 mov	 DWORD PTR __$ArrayPad$[esp+40976], eax
  00029	33 c0		 xor	 eax, eax
  0002b	c6 44 24 08 00	 mov	 BYTE PTR _szQuery$[esp+40976], 0
  00030	b9 ff 27 00 00	 mov	 ecx, 10239		; 000027ffH
  00035	8d 7c 24 09	 lea	 edi, DWORD PTR _szQuery$[esp+40977]
  00039	f3 ab		 rep stosd
  0003b	8b 4d 0c	 mov	 ecx, DWORD PTR _idPlayer$[ebp]
  0003e	66 ab		 stosw
  00040	aa		 stosb
  00041	8b 45 10	 mov	 eax, DWORD PTR _nMemberLv$[ebp]
  00044	50		 push	 eax
  00045	8b 45 08	 mov	 eax, DWORD PTR _idCampus$[ebp]
  00048	51		 push	 ecx
  00049	52		 push	 edx
  0004a	50		 push	 eax
  0004b	8d 4c 24 18	 lea	 ecx, DWORD PTR _szQuery$[esp+40992]
  0004f	68 00 00 00 00	 push	 OFFSET FLAT:??_C@_0GF@JMBGFEDG@usp_CampusMember_Insert?5?$EAidCampu@
  00054	51		 push	 ecx
  00055	e8 00 00 00 00	 call	 _sprintf
  0005a	83 c4 18	 add	 esp, 24			; 00000018H

; 305  : 	if( pQuery->Exec( szQuery ) == FALSE )

  0005d	8d 54 24 08	 lea	 edx, DWORD PTR _szQuery$[esp+40976]
  00061	52		 push	 edx
  00062	8b ce		 mov	 ecx, esi
  00064	e8 00 00 00 00	 call	 ?Exec@CQuery@@QAEHPBD@Z	; CQuery::Exec
  00069	85 c0		 test	 eax, eax
  0006b	75 1c		 jne	 SHORT $L203471

; 306  : 	{ WriteLog( "%s, %d\t%s", __FILE__, __LINE__, szQuery ); return; }

  0006d	8d 44 24 08	 lea	 eax, DWORD PTR _szQuery$[esp+40976]
  00071	50		 push	 eax
  00072	68 32 01 00 00	 push	 306			; 00000132H
  00077	68 00 00 00 00	 push	 OFFSET FLAT:??_C@_0BD@DNMKPCGK@?4?2CampusDBCtrl?4cpp?$AA@
  0007c	68 00 00 00 00	 push	 OFFSET FLAT:??_C@_09GBAEEKDE@?$CFs?0?5?$CFd?7?$CFs?$AA@
  00081	e8 00 00 00 00	 call	 ?WriteLog@@YAXPBDZZ	; WriteLog
  00086	83 c4 10	 add	 esp, 16			; 00000010H
$L203471:

; 307  : }

  00089	8b 8c 24 0c a0
	00 00		 mov	 ecx, DWORD PTR __$ArrayPad$[esp+40976]
  00090	5f		 pop	 edi
  00091	33 cd		 xor	 ecx, ebp
  00093	5e		 pop	 esi
  00094	e8 00 00 00 00	 call	 @__security_check_cookie@4
  00099	8b e5		 mov	 esp, ebp
  0009b	5d		 pop	 ebp
  0009c	c2 0c 00	 ret	 12			; 0000000cH
?InsertCampusMember@CCampusDBCtrl@@AAEXKKH@Z ENDP	; CCampusDBCtrl::InsertCampusMember
_TEXT	ENDS
PUBLIC	?DeleteCampusMember@CCampusDBCtrl@@AAEXKH@Z	; CCampusDBCtrl::DeleteCampusMember
PUBLIC	??_C@_0FG@OBOHOBGA@usp_CampusMember_Delete?5?5?$EAserver@ ; `string'
;	COMDAT ??_C@_0FG@OBOHOBGA@usp_CampusMember_Delete?5?5?$EAserver@
; File c:\documents and settings\test\mes documents\source\virtuos_v17\build\program\databaseserver\dbcontroller.h
CONST	SEGMENT
??_C@_0FG@OBOHOBGA@usp_CampusMember_Delete?5?5?$EAserver@ DB 'usp_CampusM'
	DB	'ember_Delete  @serverindex = ''%02d'', @m_idPlayer = ''%07d'''
	DB	', @nMemberLv = %d', 00H			; `string'
; Function compile flags: /Ogty
; File c:\documents and settings\test\mes documents\source\virtuos_v17\build\program\databaseserver\campusdbctrl.cpp
CONST	ENDS
;	COMDAT ?DeleteCampusMember@CCampusDBCtrl@@AAEXKH@Z
_TEXT	SEGMENT
_szQuery$ = -40968					; size = 40960
__$ArrayPad$ = -4					; size = 4
__$ReturnAddr$ = 4					; size = 4
_idPlayer$ = 8						; size = 4
_nMemberLv$ = 12					; size = 4
?DeleteCampusMember@CCampusDBCtrl@@AAEXKH@Z PROC NEAR	; CCampusDBCtrl::DeleteCampusMember, COMDAT
; _this$ = ecx

; 310  : {

  00000	55		 push	 ebp
  00001	8b ec		 mov	 ebp, esp
  00003	83 e4 f8	 and	 esp, -8			; fffffff8H
  00006	b8 08 a0 00 00	 mov	 eax, 40968		; 0000a008H
  0000b	e8 00 00 00 00	 call	 __chkstk
  00010	a1 00 00 00 00	 mov	 eax, DWORD PTR ___security_cookie

; 311  : 	CQuery* pQuery = GetQueryObject();
; 312  : 	char szQuery[QUERY_SIZE] = {0, };
; 313  : 	
; 314  : 	sprintf( szQuery, "usp_CampusMember_Delete  @serverindex = '%02d', @m_idPlayer = '%07d', @nMemberLv = %d", 
; 315  : 		g_appInfo.dwSys, idPlayer, nMemberLv );

  00015	8b 15 00 00 00
	00		 mov	 edx, DWORD PTR ?g_appInfo@@3UAppInfo@@A
  0001b	33 c5		 xor	 eax, ebp
  0001d	56		 push	 esi
  0001e	8b 71 0c	 mov	 esi, DWORD PTR [ecx+12]
  00021	57		 push	 edi
  00022	89 84 24 0c a0
	00 00		 mov	 DWORD PTR __$ArrayPad$[esp+40976], eax
  00029	33 c0		 xor	 eax, eax
  0002b	c6 44 24 08 00	 mov	 BYTE PTR _szQuery$[esp+40976], 0
  00030	b9 ff 27 00 00	 mov	 ecx, 10239		; 000027ffH
  00035	8d 7c 24 09	 lea	 edi, DWORD PTR _szQuery$[esp+40977]
  00039	f3 ab		 rep stosd
  0003b	8b 4d 08	 mov	 ecx, DWORD PTR _idPlayer$[ebp]
  0003e	66 ab		 stosw
  00040	aa		 stosb
  00041	8b 45 0c	 mov	 eax, DWORD PTR _nMemberLv$[ebp]
  00044	50		 push	 eax
  00045	51		 push	 ecx
  00046	52		 push	 edx
  00047	8d 44 24 14	 lea	 eax, DWORD PTR _szQuery$[esp+40988]
  0004b	68 00 00 00 00	 push	 OFFSET FLAT:??_C@_0FG@OBOHOBGA@usp_CampusMember_Delete?5?5?$EAserver@
  00050	50		 push	 eax
  00051	e8 00 00 00 00	 call	 _sprintf
  00056	83 c4 14	 add	 esp, 20			; 00000014H

; 316  : 	if( pQuery->Exec( szQuery ) == FALSE )

  00059	8d 4c 24 08	 lea	 ecx, DWORD PTR _szQuery$[esp+40976]
  0005d	51		 push	 ecx
  0005e	8b ce		 mov	 ecx, esi
  00060	e8 00 00 00 00	 call	 ?Exec@CQuery@@QAEHPBD@Z	; CQuery::Exec
  00065	85 c0		 test	 eax, eax
  00067	75 1c		 jne	 SHORT $L203480

; 317  : 	{ WriteLog( "%s, %d\t%s", __FILE__, __LINE__, szQuery ); return; }

  00069	8d 54 24 08	 lea	 edx, DWORD PTR _szQuery$[esp+40976]
  0006d	52		 push	 edx
  0006e	68 3d 01 00 00	 push	 317			; 0000013dH
  00073	68 00 00 00 00	 push	 OFFSET FLAT:??_C@_0BD@DNMKPCGK@?4?2CampusDBCtrl?4cpp?$AA@
  00078	68 00 00 00 00	 push	 OFFSET FLAT:??_C@_09GBAEEKDE@?$CFs?0?5?$CFd?7?$CFs?$AA@
  0007d	e8 00 00 00 00	 call	 ?WriteLog@@YAXPBDZZ	; WriteLog
  00082	83 c4 10	 add	 esp, 16			; 00000010H
$L203480:

; 318  : }

  00085	8b 8c 24 0c a0
	00 00		 mov	 ecx, DWORD PTR __$ArrayPad$[esp+40976]
  0008c	5f		 pop	 edi
  0008d	33 cd		 xor	 ecx, ebp
  0008f	5e		 pop	 esi
  00090	e8 00 00 00 00	 call	 @__security_check_cookie@4
  00095	8b e5		 mov	 esp, ebp
  00097	5d		 pop	 ebp
  00098	c2 08 00	 ret	 8
?DeleteCampusMember@CCampusDBCtrl@@AAEXKH@Z ENDP	; CCampusDBCtrl::DeleteCampusMember
_TEXT	ENDS
PUBLIC	??_C@_00CNPNBAHC@?$AA@				; `string'
PUBLIC	?UpdateCampusPoint@CCampusDBCtrl@@AAEHKH@Z	; CCampusDBCtrl::UpdateCampusPoint
PUBLIC	??_C@_02MIPIAIAA@U5?$AA@			; `string'
PUBLIC	??_C@_0P@HAGDFNOH@m_nCampusPoint?$AA@		; `string'
EXTRN	?DBQryCharacter@CDbManager@@QAEXPAD0KH00HKKMMM0KKKKKMKMHHHKKH0HHHHH_J1000KHMMMHHHHH0DKHHH1HKKH0000000000000H000KHH00K00000KMMMHKK1J00KHHHHHHK0@Z:NEAR ; CDbManager::DBQryCharacter
EXTRN	?Fetch@CQuery@@QAEHXZ:NEAR			; CQuery::Fetch
EXTRN	?GetInt@CQuery@@QAEHPAD@Z:NEAR			; CQuery::GetInt
EXTRN	__fltused:NEAR
EXTRN	?g_DbManager@@3AAVCDbManager@@A:DWORD		; g_DbManager
;	COMDAT ??_C@_00CNPNBAHC@?$AA@
; File c:\documents and settings\test\mes documents\source\virtuos_v17\build\program\databaseserver\dbcontroller.h
CONST	SEGMENT
??_C@_00CNPNBAHC@?$AA@ DB 00H				; `string'
CONST	ENDS
;	COMDAT ??_C@_02MIPIAIAA@U5?$AA@
CONST	SEGMENT
??_C@_02MIPIAIAA@U5?$AA@ DB 'U5', 00H			; `string'
CONST	ENDS
;	COMDAT ??_C@_0P@HAGDFNOH@m_nCampusPoint?$AA@
CONST	SEGMENT
??_C@_0P@HAGDFNOH@m_nCampusPoint?$AA@ DB 'm_nCampusPoint', 00H ; `string'
; Function compile flags: /Ogty
; File c:\documents and settings\test\mes documents\source\virtuos_v17\build\program\databaseserver\campusdbctrl.cpp
CONST	ENDS
;	COMDAT ?UpdateCampusPoint@CCampusDBCtrl@@AAEHKH@Z
_TEXT	SEGMENT
_szQuery$ = -40968					; size = 40960
__$ArrayPad$ = -4					; size = 4
__$ReturnAddr$ = 4					; size = 4
_idPlayer$ = 8						; size = 4
_nCampusPoint$ = 12					; size = 4
?UpdateCampusPoint@CCampusDBCtrl@@AAEHKH@Z PROC NEAR	; CCampusDBCtrl::UpdateCampusPoint, COMDAT
; _this$ = ecx

; 321  : {

  00000	55		 push	 ebp
  00001	8b ec		 mov	 ebp, esp
  00003	83 e4 f8	 and	 esp, -8			; fffffff8H
  00006	b8 08 a0 00 00	 mov	 eax, 40968		; 0000a008H
  0000b	e8 00 00 00 00	 call	 __chkstk
  00010	56		 push	 esi
  00011	57		 push	 edi

; 322  : 	CQuery* pQuery = GetQueryObject();
; 323  : 	char szQuery[QUERY_SIZE] = {0, };
; 324  : 	
; 325  : 	g_DbManager.DBQryCharacter( szQuery, "U5", idPlayer, g_appInfo.dwSys, '\0', "", nCampusPoint );

  00012	6a 00		 push	 0
  00014	6a 00		 push	 0
  00016	6a 00		 push	 0
  00018	6a 00		 push	 0
  0001a	6a ff		 push	 -1
  0001c	6a 00		 push	 0
  0001e	6a 00		 push	 0
  00020	6a 00		 push	 0
  00022	6a 00		 push	 0
  00024	6a 00		 push	 0
  00026	6a 00		 push	 0
  00028	6a 00		 push	 0
  0002a	6a 00		 push	 0
  0002c	6a 00		 push	 0
  0002e	6a 00		 push	 0
  00030	6a 00		 push	 0
  00032	6a 00		 push	 0
  00034	6a 00		 push	 0
  00036	6a 00		 push	 0
  00038	6a 00		 push	 0
  0003a	6a 00		 push	 0
  0003c	6a 00		 push	 0
  0003e	6a 00		 push	 0
  00040	6a 00		 push	 0
  00042	6a 00		 push	 0
  00044	6a 00		 push	 0
  00046	6a 00		 push	 0
  00048	6a 00		 push	 0
  0004a	6a 00		 push	 0
  0004c	6a 00		 push	 0
  0004e	6a 00		 push	 0
  00050	6a 00		 push	 0
  00052	6a 00		 push	 0
  00054	6a 00		 push	 0
  00056	6a 00		 push	 0
  00058	6a 00		 push	 0
  0005a	6a 00		 push	 0
  0005c	6a 00		 push	 0
  0005e	6a 00		 push	 0
  00060	6a 00		 push	 0
  00062	6a 00		 push	 0
  00064	6a 00		 push	 0
  00066	6a 00		 push	 0
  00068	6a 00		 push	 0
  0006a	6a 00		 push	 0
  0006c	6a 00		 push	 0
  0006e	6a 00		 push	 0
  00070	6a 00		 push	 0
  00072	a1 00 00 00 00	 mov	 eax, DWORD PTR ___security_cookie
  00077	6a 00		 push	 0
  00079	8b 71 0c	 mov	 esi, DWORD PTR [ecx+12]
  0007c	6a 00		 push	 0
  0007e	6a 00		 push	 0
  00080	6a 00		 push	 0
  00082	6a 00		 push	 0
  00084	6a 00		 push	 0
  00086	6a 00		 push	 0
  00088	6a 00		 push	 0
  0008a	6a 00		 push	 0
  0008c	6a 00		 push	 0
  0008e	6a 00		 push	 0
  00090	33 c5		 xor	 eax, ebp
  00092	6a 46		 push	 70			; 00000046H
  00094	89 84 24 fc a0
	00 00		 mov	 DWORD PTR __$ArrayPad$[esp+41216], eax
  0009b	c6 84 24 f8 00
	00 00 00	 mov	 BYTE PTR _szQuery$[esp+41216], 0
  000a3	33 c0		 xor	 eax, eax
  000a5	6a 00		 push	 0
  000a7	b9 ff 27 00 00	 mov	 ecx, 10239		; 000027ffH
  000ac	8d bc 24 fd 00
	00 00		 lea	 edi, DWORD PTR _szQuery$[esp+41221]
  000b3	f3 ab		 rep stosd
  000b5	6a 00		 push	 0
  000b7	6a 00		 push	 0
  000b9	6a 00		 push	 0
  000bb	66 ab		 stosw
  000bd	6a 00		 push	 0
  000bf	aa		 stosb
  000c0	6a 00		 push	 0
  000c2	6a 00		 push	 0
  000c4	6a 00		 push	 0
  000c6	6a 00		 push	 0
  000c8	6a 00		 push	 0
  000ca	6a 00		 push	 0
  000cc	6a 00		 push	 0
  000ce	6a 00		 push	 0
  000d0	6a 00		 push	 0
  000d2	6a 00		 push	 0
  000d4	6a 00		 push	 0
  000d6	6a 00		 push	 0
  000d8	6a 00		 push	 0
  000da	6a 00		 push	 0
  000dc	6a 00		 push	 0
  000de	6a 00		 push	 0
  000e0	6a 00		 push	 0
  000e2	6a 00		 push	 0
  000e4	6a 00		 push	 0
  000e6	6a 00		 push	 0
  000e8	6a 00		 push	 0
  000ea	6a 00		 push	 0
  000ec	6a 00		 push	 0
  000ee	6a 00		 push	 0
  000f0	6a 00		 push	 0
  000f2	6a 00		 push	 0
  000f4	6a 00		 push	 0
  000f6	6a 00		 push	 0
  000f8	6a 00		 push	 0
  000fa	6a 00		 push	 0
  000fc	8b 45 0c	 mov	 eax, DWORD PTR _nCampusPoint$[ebp]
  000ff	6a 00		 push	 0
  00101	6a 00		 push	 0
  00103	8b 0d 00 00 00
	00		 mov	 ecx, DWORD PTR ?g_appInfo@@3UAppInfo@@A
  00109	6a 00		 push	 0
  0010b	8b 55 08	 mov	 edx, DWORD PTR _idPlayer$[ebp]
  0010e	6a 00		 push	 0
  00110	6a 00		 push	 0
  00112	6a 00		 push	 0
  00114	6a 00		 push	 0
  00116	6a 00		 push	 0
  00118	6a 00		 push	 0
  0011a	50		 push	 eax
  0011b	68 00 00 00 00	 push	 OFFSET FLAT:??_C@_00CNPNBAHC@?$AA@
  00120	6a 00		 push	 0
  00122	51		 push	 ecx
  00123	8b 0d 00 00 00
	00		 mov	 ecx, DWORD PTR ?g_DbManager@@3AAVCDbManager@@A ; g_DbManager
  00129	52		 push	 edx
  0012a	68 00 00 00 00	 push	 OFFSET FLAT:??_C@_02MIPIAIAA@U5?$AA@
  0012f	8d 84 24 c0 01
	00 00		 lea	 eax, DWORD PTR _szQuery$[esp+41416]
  00136	50		 push	 eax
  00137	e8 00 00 00 00	 call	 ?DBQryCharacter@CDbManager@@QAEXPAD0KH00HKKMMM0KKKKKMKMHHHKKH0HHHHH_J1000KHMMMHHHHH0DKHHH1HKKH0000000000000H000KHH00K00000KMMMHKK1J00KHHHHHHK0@Z ; CDbManager::DBQryCharacter

; 326  : 	if( pQuery->Exec( szQuery ) == FALSE )

  0013c	8d 4c 24 08	 lea	 ecx, DWORD PTR _szQuery$[esp+40976]
  00140	51		 push	 ecx
  00141	8b ce		 mov	 ecx, esi
  00143	e8 00 00 00 00	 call	 ?Exec@CQuery@@QAEHPBD@Z	; CQuery::Exec
  00148	85 c0		 test	 eax, eax
  0014a	75 37		 jne	 SHORT $L203489

; 327  : 	{ WriteLog( "%s, %d\t%s", __FILE__, __LINE__, szQuery ); return INT_MAX; }

  0014c	8d 54 24 08	 lea	 edx, DWORD PTR _szQuery$[esp+40976]
  00150	52		 push	 edx
  00151	68 47 01 00 00	 push	 327			; 00000147H
  00156	68 00 00 00 00	 push	 OFFSET FLAT:??_C@_0BD@DNMKPCGK@?4?2CampusDBCtrl?4cpp?$AA@
  0015b	68 00 00 00 00	 push	 OFFSET FLAT:??_C@_09GBAEEKDE@?$CFs?0?5?$CFd?7?$CFs?$AA@
  00160	e8 00 00 00 00	 call	 ?WriteLog@@YAXPBDZZ	; WriteLog
  00165	83 c4 10	 add	 esp, 16			; 00000010H
  00168	b8 ff ff ff 7f	 mov	 eax, 2147483647		; 7fffffffH

; 332  : 	
; 333  : 	return nTotalPoint;
; 334  : }

  0016d	5f		 pop	 edi
  0016e	5e		 pop	 esi
  0016f	8b 8c 24 04 a0
	00 00		 mov	 ecx, DWORD PTR __$ArrayPad$[esp+40968]
  00176	33 cd		 xor	 ecx, ebp
  00178	e8 00 00 00 00	 call	 @__security_check_cookie@4
  0017d	8b e5		 mov	 esp, ebp
  0017f	5d		 pop	 ebp
  00180	c2 08 00	 ret	 8
$L203489:

; 328  : 
; 329  : 	int nTotalPoint = INT_MAX;
; 330  : 	if( pQuery->Fetch() )

  00183	8b ce		 mov	 ecx, esi
  00185	bf ff ff ff 7f	 mov	 edi, 2147483647		; 7fffffffH
  0018a	e8 00 00 00 00	 call	 ?Fetch@CQuery@@QAEHXZ	; CQuery::Fetch
  0018f	85 c0		 test	 eax, eax
  00191	74 0e		 je	 SHORT $L203491

; 331  : 		nTotalPoint = pQuery->GetInt( "m_nCampusPoint" );

  00193	68 00 00 00 00	 push	 OFFSET FLAT:??_C@_0P@HAGDFNOH@m_nCampusPoint?$AA@
  00198	8b ce		 mov	 ecx, esi
  0019a	e8 00 00 00 00	 call	 ?GetInt@CQuery@@QAEHPAD@Z ; CQuery::GetInt
  0019f	8b f8		 mov	 edi, eax
$L203491:

; 332  : 	
; 333  : 	return nTotalPoint;
; 334  : }

  001a1	8b 8c 24 0c a0
	00 00		 mov	 ecx, DWORD PTR __$ArrayPad$[esp+40976]
  001a8	8b c7		 mov	 eax, edi
  001aa	5f		 pop	 edi
  001ab	33 cd		 xor	 ecx, ebp
  001ad	5e		 pop	 esi
  001ae	e8 00 00 00 00	 call	 @__security_check_cookie@4
  001b3	8b e5		 mov	 esp, ebp
  001b5	5d		 pop	 ebp
  001b6	c2 08 00	 ret	 8
?UpdateCampusPoint@CCampusDBCtrl@@AAEHKH@Z ENDP		; CCampusDBCtrl::UpdateCampusPoint
_TEXT	ENDS
PUBLIC	?UpdateCampusId@CCampusDBCtrl@@AAEXKK@Z		; CCampusDBCtrl::UpdateCampusId
PUBLIC	??_C@_02ODNFFLMD@U6?$AA@			; `string'
;	COMDAT ??_C@_02ODNFFLMD@U6?$AA@
; File c:\documents and settings\test\mes documents\source\virtuos_v17\build\program\databaseserver\dbcontroller.h
CONST	SEGMENT
??_C@_02ODNFFLMD@U6?$AA@ DB 'U6', 00H			; `string'
; Function compile flags: /Ogty
; File c:\documents and settings\test\mes documents\source\virtuos_v17\build\program\databaseserver\campusdbctrl.cpp
CONST	ENDS
;	COMDAT ?UpdateCampusId@CCampusDBCtrl@@AAEXKK@Z
_TEXT	SEGMENT
_szQuery$ = -40968					; size = 40960
__$ArrayPad$ = -4					; size = 4
__$ReturnAddr$ = 4					; size = 4
_idPlayer$ = 8						; size = 4
_idCampus$ = 12						; size = 4
?UpdateCampusId@CCampusDBCtrl@@AAEXKK@Z PROC NEAR	; CCampusDBCtrl::UpdateCampusId, COMDAT
; _this$ = ecx

; 337  : {

  00000	55		 push	 ebp
  00001	8b ec		 mov	 ebp, esp
  00003	83 e4 f8	 and	 esp, -8			; fffffff8H
  00006	b8 08 a0 00 00	 mov	 eax, 40968		; 0000a008H
  0000b	e8 00 00 00 00	 call	 __chkstk
  00010	56		 push	 esi
  00011	57		 push	 edi

; 338  : 	CQuery* pQuery = GetQueryObject();
; 339  : 	char szQuery[QUERY_SIZE] = {0, };
; 340  : 	
; 341  : 	g_DbManager.DBQryCharacter( szQuery, "U6", idPlayer, g_appInfo.dwSys, '\0', "", idCampus );

  00012	6a 00		 push	 0
  00014	6a 00		 push	 0
  00016	6a 00		 push	 0
  00018	6a 00		 push	 0
  0001a	6a ff		 push	 -1
  0001c	6a 00		 push	 0
  0001e	6a 00		 push	 0
  00020	6a 00		 push	 0
  00022	6a 00		 push	 0
  00024	6a 00		 push	 0
  00026	6a 00		 push	 0
  00028	6a 00		 push	 0
  0002a	6a 00		 push	 0
  0002c	6a 00		 push	 0
  0002e	6a 00		 push	 0
  00030	6a 00		 push	 0
  00032	6a 00		 push	 0
  00034	6a 00		 push	 0
  00036	6a 00		 push	 0
  00038	6a 00		 push	 0
  0003a	6a 00		 push	 0
  0003c	6a 00		 push	 0
  0003e	6a 00		 push	 0
  00040	6a 00		 push	 0
  00042	6a 00		 push	 0
  00044	6a 00		 push	 0
  00046	6a 00		 push	 0
  00048	6a 00		 push	 0
  0004a	6a 00		 push	 0
  0004c	6a 00		 push	 0
  0004e	6a 00		 push	 0
  00050	6a 00		 push	 0
  00052	6a 00		 push	 0
  00054	6a 00		 push	 0
  00056	6a 00		 push	 0
  00058	6a 00		 push	 0
  0005a	6a 00		 push	 0
  0005c	6a 00		 push	 0
  0005e	6a 00		 push	 0
  00060	6a 00		 push	 0
  00062	6a 00		 push	 0
  00064	6a 00		 push	 0
  00066	6a 00		 push	 0
  00068	6a 00		 push	 0
  0006a	6a 00		 push	 0
  0006c	6a 00		 push	 0
  0006e	6a 00		 push	 0
  00070	6a 00		 push	 0
  00072	a1 00 00 00 00	 mov	 eax, DWORD PTR ___security_cookie
  00077	6a 00		 push	 0
  00079	8b 71 0c	 mov	 esi, DWORD PTR [ecx+12]
  0007c	6a 00		 push	 0
  0007e	6a 00		 push	 0
  00080	6a 00		 push	 0
  00082	6a 00		 push	 0
  00084	6a 00		 push	 0
  00086	6a 00		 push	 0
  00088	6a 00		 push	 0
  0008a	6a 00		 push	 0
  0008c	6a 00		 push	 0
  0008e	6a 00		 push	 0
  00090	33 c5		 xor	 eax, ebp
  00092	6a 46		 push	 70			; 00000046H
  00094	89 84 24 fc a0
	00 00		 mov	 DWORD PTR __$ArrayPad$[esp+41216], eax
  0009b	c6 84 24 f8 00
	00 00 00	 mov	 BYTE PTR _szQuery$[esp+41216], 0
  000a3	33 c0		 xor	 eax, eax
  000a5	6a 00		 push	 0
  000a7	b9 ff 27 00 00	 mov	 ecx, 10239		; 000027ffH
  000ac	8d bc 24 fd 00
	00 00		 lea	 edi, DWORD PTR _szQuery$[esp+41221]
  000b3	f3 ab		 rep stosd
  000b5	6a 00		 push	 0
  000b7	6a 00		 push	 0
  000b9	6a 00		 push	 0
  000bb	66 ab		 stosw
  000bd	6a 00		 push	 0
  000bf	aa		 stosb
  000c0	6a 00		 push	 0
  000c2	6a 00		 push	 0
  000c4	6a 00		 push	 0
  000c6	6a 00		 push	 0
  000c8	6a 00		 push	 0
  000ca	6a 00		 push	 0
  000cc	6a 00		 push	 0
  000ce	6a 00		 push	 0
  000d0	6a 00		 push	 0
  000d2	6a 00		 push	 0
  000d4	6a 00		 push	 0
  000d6	6a 00		 push	 0
  000d8	6a 00		 push	 0
  000da	6a 00		 push	 0
  000dc	6a 00		 push	 0
  000de	6a 00		 push	 0
  000e0	6a 00		 push	 0
  000e2	6a 00		 push	 0
  000e4	6a 00		 push	 0
  000e6	6a 00		 push	 0
  000e8	6a 00		 push	 0
  000ea	6a 00		 push	 0
  000ec	6a 00		 push	 0
  000ee	6a 00		 push	 0
  000f0	6a 00		 push	 0
  000f2	6a 00		 push	 0
  000f4	6a 00		 push	 0
  000f6	6a 00		 push	 0
  000f8	6a 00		 push	 0
  000fa	6a 00		 push	 0
  000fc	8b 45 0c	 mov	 eax, DWORD PTR _idCampus$[ebp]
  000ff	6a 00		 push	 0
  00101	6a 00		 push	 0
  00103	8b 0d 00 00 00
	00		 mov	 ecx, DWORD PTR ?g_appInfo@@3UAppInfo@@A
  00109	6a 00		 push	 0
  0010b	8b 55 08	 mov	 edx, DWORD PTR _idPlayer$[ebp]
  0010e	6a 00		 push	 0
  00110	6a 00		 push	 0
  00112	6a 00		 push	 0
  00114	6a 00		 push	 0
  00116	6a 00		 push	 0
  00118	6a 00		 push	 0
  0011a	50		 push	 eax
  0011b	68 00 00 00 00	 push	 OFFSET FLAT:??_C@_00CNPNBAHC@?$AA@
  00120	6a 00		 push	 0
  00122	51		 push	 ecx
  00123	8b 0d 00 00 00
	00		 mov	 ecx, DWORD PTR ?g_DbManager@@3AAVCDbManager@@A ; g_DbManager
  00129	52		 push	 edx
  0012a	68 00 00 00 00	 push	 OFFSET FLAT:??_C@_02ODNFFLMD@U6?$AA@
  0012f	8d 84 24 c0 01
	00 00		 lea	 eax, DWORD PTR _szQuery$[esp+41416]
  00136	50		 push	 eax
  00137	e8 00 00 00 00	 call	 ?DBQryCharacter@CDbManager@@QAEXPAD0KH00HKKMMM0KKKKKMKMHHHKKH0HHHHH_J1000KHMMMHHHHH0DKHHH1HKKH0000000000000H000KHH00K00000KMMMHKK1J00KHHHHHHK0@Z ; CDbManager::DBQryCharacter

; 342  : 	if( pQuery->Exec( szQuery ) == FALSE )

  0013c	8d 4c 24 08	 lea	 ecx, DWORD PTR _szQuery$[esp+40976]
  00140	51		 push	 ecx
  00141	8b ce		 mov	 ecx, esi
  00143	e8 00 00 00 00	 call	 ?Exec@CQuery@@QAEHPBD@Z	; CQuery::Exec
  00148	85 c0		 test	 eax, eax
  0014a	75 1c		 jne	 SHORT $L203501

; 343  : 	{ WriteLog( "%s, %d\t%s", __FILE__, __LINE__, szQuery ); return; }

  0014c	8d 54 24 08	 lea	 edx, DWORD PTR _szQuery$[esp+40976]
  00150	52		 push	 edx
  00151	68 57 01 00 00	 push	 343			; 00000157H
  00156	68 00 00 00 00	 push	 OFFSET FLAT:??_C@_0BD@DNMKPCGK@?4?2CampusDBCtrl?4cpp?$AA@
  0015b	68 00 00 00 00	 push	 OFFSET FLAT:??_C@_09GBAEEKDE@?$CFs?0?5?$CFd?7?$CFs?$AA@
  00160	e8 00 00 00 00	 call	 ?WriteLog@@YAXPBDZZ	; WriteLog
  00165	83 c4 10	 add	 esp, 16			; 00000010H
$L203501:

; 344  : }

  00168	8b 8c 24 0c a0
	00 00		 mov	 ecx, DWORD PTR __$ArrayPad$[esp+40976]
  0016f	5f		 pop	 edi
  00170	33 cd		 xor	 ecx, ebp
  00172	5e		 pop	 esi
  00173	e8 00 00 00 00	 call	 @__security_check_cookie@4
  00178	8b e5		 mov	 esp, ebp
  0017a	5d		 pop	 ebp
  0017b	c2 08 00	 ret	 8
?UpdateCampusId@CCampusDBCtrl@@AAEXKK@Z ENDP		; CCampusDBCtrl::UpdateCampusId
_TEXT	ENDS
PUBLIC	?LogUpdateCampusMember@CCampusDBCtrl@@AAEXKKKD@Z ; CCampusDBCtrl::LogUpdateCampusMember
PUBLIC	??_C@_0HI@KDLLPGLE@usp_CampusLog_Insert?5?5?$EAm_idMaste@ ; `string'
;	COMDAT ??_C@_0HI@KDLLPGLE@usp_CampusLog_Insert?5?5?$EAm_idMaste@
CONST	SEGMENT
??_C@_0HI@KDLLPGLE@usp_CampusLog_Insert?5?5?$EAm_idMaste@ DB 'usp_CampusL'
	DB	'og_Insert  @m_idMaster = ''%07d'', @serverindex = ''%02d'', @'
	DB	'idCampus = %d, @m_idPupil = ''%07d'', @chState = ''%c''', 00H ; `string'
; Function compile flags: /Ogty
CONST	ENDS
;	COMDAT ?LogUpdateCampusMember@CCampusDBCtrl@@AAEXKKKD@Z
_TEXT	SEGMENT
_szQuery$ = -40968					; size = 40960
__$ArrayPad$ = -4					; size = 4
__$ReturnAddr$ = 4					; size = 4
_idCampus$ = 8						; size = 4
_idMaster$ = 12						; size = 4
_idPupil$ = 16						; size = 4
_chState$ = 20						; size = 1
?LogUpdateCampusMember@CCampusDBCtrl@@AAEXKKKD@Z PROC NEAR ; CCampusDBCtrl::LogUpdateCampusMember, COMDAT
; _this$ = ecx

; 347  : {

  00000	55		 push	 ebp
  00001	8b ec		 mov	 ebp, esp
  00003	83 e4 f8	 and	 esp, -8			; fffffff8H
  00006	b8 08 a0 00 00	 mov	 eax, 40968		; 0000a008H
  0000b	e8 00 00 00 00	 call	 __chkstk
  00010	a1 00 00 00 00	 mov	 eax, DWORD PTR ___security_cookie

; 348  : 	char szQuery[QUERY_SIZE] = {0, };
; 349  : 
; 350  : 	sprintf( szQuery, "usp_CampusLog_Insert  @m_idMaster = '%07d', @serverindex = '%02d', @idCampus = %d, @m_idPupil = '%07d', @chState = '%c'", 
; 351  : 		idMaster, g_appInfo.dwSys, idCampus, idPupil, chState );

  00015	8b 55 08	 mov	 edx, DWORD PTR _idCampus$[ebp]
  00018	56		 push	 esi
  00019	57		 push	 edi
  0001a	33 c5		 xor	 eax, ebp
  0001c	89 84 24 0c a0
	00 00		 mov	 DWORD PTR __$ArrayPad$[esp+40976], eax
  00023	8b f1		 mov	 esi, ecx
  00025	33 c0		 xor	 eax, eax
  00027	c6 44 24 08 00	 mov	 BYTE PTR _szQuery$[esp+40976], 0
  0002c	b9 ff 27 00 00	 mov	 ecx, 10239		; 000027ffH
  00031	8d 7c 24 09	 lea	 edi, DWORD PTR _szQuery$[esp+40977]
  00035	f3 ab		 rep stosd
  00037	8b 4d 10	 mov	 ecx, DWORD PTR _idPupil$[ebp]
  0003a	66 ab		 stosw
  0003c	aa		 stosb
  0003d	0f be 45 14	 movsx	 eax, BYTE PTR _chState$[ebp]
  00041	50		 push	 eax
  00042	a1 00 00 00 00	 mov	 eax, DWORD PTR ?g_appInfo@@3UAppInfo@@A
  00047	51		 push	 ecx
  00048	8b 4d 0c	 mov	 ecx, DWORD PTR _idMaster$[ebp]
  0004b	52		 push	 edx
  0004c	50		 push	 eax
  0004d	51		 push	 ecx
  0004e	8d 54 24 1c	 lea	 edx, DWORD PTR _szQuery$[esp+40996]
  00052	68 00 00 00 00	 push	 OFFSET FLAT:??_C@_0HI@KDLLPGLE@usp_CampusLog_Insert?5?5?$EAm_idMaste@
  00057	52		 push	 edx
  00058	e8 00 00 00 00	 call	 _sprintf

; 352  : 	if( m_pLogQuery->Exec( szQuery ) == FALSE )

  0005d	8b 4e 14	 mov	 ecx, DWORD PTR [esi+20]
  00060	83 c4 1c	 add	 esp, 28			; 0000001cH
  00063	8d 44 24 08	 lea	 eax, DWORD PTR _szQuery$[esp+40976]
  00067	50		 push	 eax
  00068	e8 00 00 00 00	 call	 ?Exec@CQuery@@QAEHPBD@Z	; CQuery::Exec
  0006d	85 c0		 test	 eax, eax
  0006f	75 1c		 jne	 SHORT $L203511

; 353  : 	{ WriteLog( "%s, %d\t%s", __FILE__, __LINE__, szQuery ); return; }

  00071	8d 4c 24 08	 lea	 ecx, DWORD PTR _szQuery$[esp+40976]
  00075	51		 push	 ecx
  00076	68 61 01 00 00	 push	 353			; 00000161H
  0007b	68 00 00 00 00	 push	 OFFSET FLAT:??_C@_0BD@DNMKPCGK@?4?2CampusDBCtrl?4cpp?$AA@
  00080	68 00 00 00 00	 push	 OFFSET FLAT:??_C@_09GBAEEKDE@?$CFs?0?5?$CFd?7?$CFs?$AA@
  00085	e8 00 00 00 00	 call	 ?WriteLog@@YAXPBDZZ	; WriteLog
  0008a	83 c4 10	 add	 esp, 16			; 00000010H
$L203511:

; 354  : }

  0008d	8b 8c 24 0c a0
	00 00		 mov	 ecx, DWORD PTR __$ArrayPad$[esp+40976]
  00094	5f		 pop	 edi
  00095	33 cd		 xor	 ecx, ebp
  00097	5e		 pop	 esi
  00098	e8 00 00 00 00	 call	 @__security_check_cookie@4
  0009d	8b e5		 mov	 esp, ebp
  0009f	5d		 pop	 ebp
  000a0	c2 10 00	 ret	 16			; 00000010H
?LogUpdateCampusMember@CCampusDBCtrl@@AAEXKKKD@Z ENDP	; CCampusDBCtrl::LogUpdateCampusMember
_TEXT	ENDS
PUBLIC	?LogUpdateCampusPoint@CCampusDBCtrl@@AAEXKHHD@Z	; CCampusDBCtrl::LogUpdateCampusPoint
PUBLIC	??_C@_0HN@EDLOELGN@usp_CampusPointLog_Insert?5?5?$EAm_id@ ; `string'
;	COMDAT ??_C@_0HN@EDLOELGN@usp_CampusPointLog_Insert?5?5?$EAm_id@
CONST	SEGMENT
??_C@_0HN@EDLOELGN@usp_CampusPointLog_Insert?5?5?$EAm_id@ DB 'usp_CampusP'
	DB	'ointLog_Insert  @m_idPlayer = ''%07d'', @serverindex = ''%02d'
	DB	''', @chState = ''%c'', @nPrevPoint = %0d, @nCurrPoint = %d', 00H ; `string'
; Function compile flags: /Ogty
CONST	ENDS
;	COMDAT ?LogUpdateCampusPoint@CCampusDBCtrl@@AAEXKHHD@Z
_TEXT	SEGMENT
_szQuery$ = -40968					; size = 40960
__$ArrayPad$ = -4					; size = 4
__$ReturnAddr$ = 4					; size = 4
_idPlayer$ = 8						; size = 4
_nPrevPoint$ = 12					; size = 4
_nCurrPoint$ = 16					; size = 4
_chState$ = 20						; size = 1
?LogUpdateCampusPoint@CCampusDBCtrl@@AAEXKHHD@Z PROC NEAR ; CCampusDBCtrl::LogUpdateCampusPoint, COMDAT
; _this$ = ecx

; 357  : {

  00000	55		 push	 ebp
  00001	8b ec		 mov	 ebp, esp
  00003	83 e4 f8	 and	 esp, -8			; fffffff8H
  00006	b8 08 a0 00 00	 mov	 eax, 40968		; 0000a008H
  0000b	e8 00 00 00 00	 call	 __chkstk
  00010	a1 00 00 00 00	 mov	 eax, DWORD PTR ___security_cookie

; 358  : 	char szQuery[QUERY_SIZE] = {0, };
; 359  : 
; 360  : 	sprintf( szQuery, "usp_CampusPointLog_Insert  @m_idPlayer = '%07d', @serverindex = '%02d', @chState = '%c', @nPrevPoint = %0d, @nCurrPoint = %d", 
; 361  : 		idPlayer, g_appInfo.dwSys, chState, nPrevPoint, nCurrPoint );

  00015	0f be 55 14	 movsx	 edx, BYTE PTR _chState$[ebp]
  00019	56		 push	 esi
  0001a	57		 push	 edi
  0001b	33 c5		 xor	 eax, ebp
  0001d	89 84 24 0c a0
	00 00		 mov	 DWORD PTR __$ArrayPad$[esp+40976], eax
  00024	8b f1		 mov	 esi, ecx
  00026	33 c0		 xor	 eax, eax
  00028	c6 44 24 08 00	 mov	 BYTE PTR _szQuery$[esp+40976], 0
  0002d	b9 ff 27 00 00	 mov	 ecx, 10239		; 000027ffH
  00032	8d 7c 24 09	 lea	 edi, DWORD PTR _szQuery$[esp+40977]
  00036	f3 ab		 rep stosd
  00038	8b 4d 0c	 mov	 ecx, DWORD PTR _nPrevPoint$[ebp]
  0003b	66 ab		 stosw
  0003d	aa		 stosb
  0003e	8b 45 10	 mov	 eax, DWORD PTR _nCurrPoint$[ebp]
  00041	50		 push	 eax
  00042	a1 00 00 00 00	 mov	 eax, DWORD PTR ?g_appInfo@@3UAppInfo@@A
  00047	51		 push	 ecx
  00048	8b 4d 08	 mov	 ecx, DWORD PTR _idPlayer$[ebp]
  0004b	52		 push	 edx
  0004c	50		 push	 eax
  0004d	51		 push	 ecx
  0004e	8d 54 24 1c	 lea	 edx, DWORD PTR _szQuery$[esp+40996]
  00052	68 00 00 00 00	 push	 OFFSET FLAT:??_C@_0HN@EDLOELGN@usp_CampusPointLog_Insert?5?5?$EAm_id@
  00057	52		 push	 edx
  00058	e8 00 00 00 00	 call	 _sprintf

; 362  : 	if( m_pLogQuery->Exec( szQuery ) == FALSE )

  0005d	8b 4e 14	 mov	 ecx, DWORD PTR [esi+20]
  00060	83 c4 1c	 add	 esp, 28			; 0000001cH
  00063	8d 44 24 08	 lea	 eax, DWORD PTR _szQuery$[esp+40976]
  00067	50		 push	 eax
  00068	e8 00 00 00 00	 call	 ?Exec@CQuery@@QAEHPBD@Z	; CQuery::Exec
  0006d	85 c0		 test	 eax, eax
  0006f	75 1c		 jne	 SHORT $L203521

; 363  : 	{ WriteLog( "%s, %d\t%s", __FILE__, __LINE__, szQuery ); return; }

  00071	8d 4c 24 08	 lea	 ecx, DWORD PTR _szQuery$[esp+40976]
  00075	51		 push	 ecx
  00076	68 6b 01 00 00	 push	 363			; 0000016bH
  0007b	68 00 00 00 00	 push	 OFFSET FLAT:??_C@_0BD@DNMKPCGK@?4?2CampusDBCtrl?4cpp?$AA@
  00080	68 00 00 00 00	 push	 OFFSET FLAT:??_C@_09GBAEEKDE@?$CFs?0?5?$CFd?7?$CFs?$AA@
  00085	e8 00 00 00 00	 call	 ?WriteLog@@YAXPBDZZ	; WriteLog
  0008a	83 c4 10	 add	 esp, 16			; 00000010H
$L203521:

; 364  : }

  0008d	8b 8c 24 0c a0
	00 00		 mov	 ecx, DWORD PTR __$ArrayPad$[esp+40976]
  00094	5f		 pop	 edi
  00095	33 cd		 xor	 ecx, ebp
  00097	5e		 pop	 esi
  00098	e8 00 00 00 00	 call	 @__security_check_cookie@4
  0009d	8b e5		 mov	 esp, ebp
  0009f	5d		 pop	 ebp
  000a0	c2 10 00	 ret	 16			; 00000010H
?LogUpdateCampusPoint@CCampusDBCtrl@@AAEXKHHD@Z ENDP	; CCampusDBCtrl::LogUpdateCampusPoint
_TEXT	ENDS
PUBLIC	??_GCCampusMng@@QAEPAXI@Z			; CCampusMng::`scalar deleting destructor'
EXTRN	??1CCampusMng@@QAE@XZ:NEAR			; CCampusMng::~CCampusMng
; Function compile flags: /Ogty
;	COMDAT ??_GCCampusMng@@QAEPAXI@Z
_TEXT	SEGMENT
___flags$ = 8						; size = 4
??_GCCampusMng@@QAEPAXI@Z PROC NEAR			; CCampusMng::`scalar deleting destructor', COMDAT
; _this$ = ecx
  00000	56		 push	 esi
  00001	8b f1		 mov	 esi, ecx
  00003	e8 00 00 00 00	 call	 ??1CCampusMng@@QAE@XZ	; CCampusMng::~CCampusMng
  00008	f6 44 24 08 01	 test	 BYTE PTR ___flags$[esp], 1
  0000d	74 09		 je	 SHORT $L205078
  0000f	56		 push	 esi
  00010	e8 00 00 00 00	 call	 ??3@YAXPAX@Z		; operator delete
  00015	83 c4 04	 add	 esp, 4
$L205078:
  00018	8b c6		 mov	 eax, esi
  0001a	5e		 pop	 esi
  0001b	c2 04 00	 ret	 4
??_GCCampusMng@@QAEPAXI@Z ENDP				; CCampusMng::`scalar deleting destructor'
_TEXT	ENDS
PUBLIC	?GetMaxPupilNum@CCampusHelper@@QAEHH@Z		; CCampusHelper::GetMaxPupilNum
; Function compile flags: /Ogty
;	COMDAT ?GetMaxPupilNum@CCampusHelper@@QAEHH@Z
_TEXT	SEGMENT
_nCampusPoint$ = 8					; size = 4
?GetMaxPupilNum@CCampusHelper@@QAEHH@Z PROC NEAR	; CCampusHelper::GetMaxPupilNum, COMDAT
; _this$ = ecx

; 391  : 	if( nCampusPoint >= 0 && nCampusPoint < MIN_LV2_POINT )

  00000	8b 44 24 04	 mov	 eax, DWORD PTR _nCampusPoint$[esp-4]
  00004	85 c0		 test	 eax, eax
  00006	7c 0d		 jl	 SHORT $L203556
  00008	83 f8 29	 cmp	 eax, 41			; 00000029H
  0000b	7d 0d		 jge	 SHORT $L205082

; 392  : 		return 1;

  0000d	b8 01 00 00 00	 mov	 eax, 1

; 399  : }

  00012	c2 04 00	 ret	 4
$L203556:

; 393  : 	else if( nCampusPoint >= MIN_LV2_POINT && nCampusPoint < MIN_LV3_POINT )

  00015	83 f8 29	 cmp	 eax, 41			; 00000029H
  00018	7c 0d		 jl	 SHORT $L203558
$L205082:
  0001a	83 f8 65	 cmp	 eax, 101		; 00000065H
  0001d	7d 0d		 jge	 SHORT $L205081

; 394  : 		return 2;

  0001f	b8 02 00 00 00	 mov	 eax, 2

; 399  : }

  00024	c2 04 00	 ret	 4
$L203558:

; 395  : 	else if( nCampusPoint >= MIN_LV3_POINT )

  00027	83 f8 65	 cmp	 eax, 101		; 00000065H
  0002a	7c 08		 jl	 SHORT $L203560
$L205081:

; 396  : 		return 3;

  0002c	b8 03 00 00 00	 mov	 eax, 3

; 399  : }

  00031	c2 04 00	 ret	 4
$L203560:

; 397  : 	
; 398  : 	return 0;

  00034	33 c0		 xor	 eax, eax

; 399  : }

  00036	c2 04 00	 ret	 4
?GetMaxPupilNum@CCampusHelper@@QAEHH@Z ENDP		; CCampusHelper::GetMaxPupilNum
_TEXT	ENDS
PUBLIC	?size@?$_Tree@V?$_Tmap_traits@KPAVCCampusMember@@U?$less@K@std@@V?$allocator@U?$pair@$$CBKPAVCCampusMember@@@std@@@3@$0A@@std@@@std@@QBEIXZ ; std::_Tree<std::_Tmap_traits<unsigned long,CCampusMember *,std::less<unsigned long>,std::allocator<std::pair<unsigned long const ,CCampusMember *> >,0> >::size
; Function compile flags: /Ogty
; File c:\program files\microsoft visual studio .net 2003\vc7\include\xtree
;	COMDAT ?size@?$_Tree@V?$_Tmap_traits@KPAVCCampusMember@@U?$less@K@std@@V?$allocator@U?$pair@$$CBKPAVCCampusMember@@@std@@@3@$0A@@std@@@std@@QBEIXZ
_TEXT	SEGMENT
?size@?$_Tree@V?$_Tmap_traits@KPAVCCampusMember@@U?$less@K@std@@V?$allocator@U?$pair@$$CBKPAVCCampusMember@@@std@@@3@$0A@@std@@@std@@QBEIXZ PROC NEAR ; std::_Tree<std::_Tmap_traits<unsigned long,CCampusMember *,std::less<unsigned long>,std::allocator<std::pair<unsigned long const ,CCampusMember *> >,0> >::size, COMDAT
; _this$ = ecx

; 448  : 		return (_Mysize);

  00000	8b 41 08	 mov	 eax, DWORD PTR [ecx+8]

; 449  : 		}

  00003	c3		 ret	 0
?size@?$_Tree@V?$_Tmap_traits@KPAVCCampusMember@@U?$less@K@std@@V?$allocator@U?$pair@$$CBKPAVCCampusMember@@@std@@@3@$0A@@std@@@std@@QBEIXZ ENDP ; std::_Tree<std::_Tmap_traits<unsigned long,CCampusMember *,std::less<unsigned long>,std::allocator<std::pair<unsigned long const ,CCampusMember *> >,0> >::size
_TEXT	ENDS
PUBLIC	??Eiterator@?$vector@KV?$allocator@K@std@@@std@@QAEAAV012@XZ ; std::vector<unsigned long,std::allocator<unsigned long> >::iterator::operator++
; Function compile flags: /Ogty
; File c:\program files\microsoft visual studio .net 2003\vc7\include\vector
;	COMDAT ??Eiterator@?$vector@KV?$allocator@K@std@@@std@@QAEAAV012@XZ
_TEXT	SEGMENT
??Eiterator@?$vector@KV?$allocator@K@std@@@std@@QAEAAV012@XZ PROC NEAR ; std::vector<unsigned long,std::allocator<unsigned long> >::iterator::operator++, COMDAT
; _this$ = ecx

; 229  : 			{	// preincrement

  00000	8b c1		 mov	 eax, ecx

; 230  : 			++this->_Myptr;

  00002	83 00 04	 add	 DWORD PTR [eax], 4

; 231  : 			return (*this);
; 232  : 			}

  00005	c3		 ret	 0
??Eiterator@?$vector@KV?$allocator@K@std@@@std@@QAEAAV012@XZ ENDP ; std::vector<unsigned long,std::allocator<unsigned long> >::iterator::operator++
_TEXT	ENDS
PUBLIC	?size@?$_Tree@V?$_Tmap_traits@KPAVCCampus@@U?$less@K@std@@V?$allocator@U?$pair@$$CBKPAVCCampus@@@std@@@3@$0A@@std@@@std@@QBEIXZ ; std::_Tree<std::_Tmap_traits<unsigned long,CCampus *,std::less<unsigned long>,std::allocator<std::pair<unsigned long const ,CCampus *> >,0> >::size
; Function compile flags: /Ogty
; File c:\program files\microsoft visual studio .net 2003\vc7\include\xtree
;	COMDAT ?size@?$_Tree@V?$_Tmap_traits@KPAVCCampus@@U?$less@K@std@@V?$allocator@U?$pair@$$CBKPAVCCampus@@@std@@@3@$0A@@std@@@std@@QBEIXZ
_TEXT	SEGMENT
?size@?$_Tree@V?$_Tmap_traits@KPAVCCampus@@U?$less@K@std@@V?$allocator@U?$pair@$$CBKPAVCCampus@@@std@@@3@$0A@@std@@@std@@QBEIXZ PROC NEAR ; std::_Tree<std::_Tmap_traits<unsigned long,CCampus *,std::less<unsigned long>,std::allocator<std::pair<unsigned long const ,CCampus *> >,0> >::size, COMDAT
; _this$ = ecx

; 448  : 		return (_Mysize);

  00000	8b 41 08	 mov	 eax, DWORD PTR [ecx+8]

; 449  : 		}

  00003	c3		 ret	 0
?size@?$_Tree@V?$_Tmap_traits@KPAVCCampus@@U?$less@K@std@@V?$allocator@U?$pair@$$CBKPAVCCampus@@@std@@@3@$0A@@std@@@std@@QBEIXZ ENDP ; std::_Tree<std::_Tmap_traits<unsigned long,CCampus *,std::less<unsigned long>,std::allocator<std::pair<unsigned long const ,CCampus *> >,0> >::size
_TEXT	ENDS
PUBLIC	??Dconst_iterator@?$vector@KV?$allocator@K@std@@@std@@QBEABKXZ ; std::vector<unsigned long,std::allocator<unsigned long> >::const_iterator::operator*
; Function compile flags: /Ogty
; File c:\program files\microsoft visual studio .net 2003\vc7\include\vector
;	COMDAT ??Dconst_iterator@?$vector@KV?$allocator@K@std@@@std@@QBEABKXZ
_TEXT	SEGMENT
??Dconst_iterator@?$vector@KV?$allocator@K@std@@@std@@QBEABKXZ PROC NEAR ; std::vector<unsigned long,std::allocator<unsigned long> >::const_iterator::operator*, COMDAT
; _this$ = ecx

; 80   : 
; 81   : 
; 82   : 			return (*_Myptr);

  00000	8b 01		 mov	 eax, DWORD PTR [ecx]

; 83   : 			}

  00002	c3		 ret	 0
??Dconst_iterator@?$vector@KV?$allocator@K@std@@@std@@QBEABKXZ ENDP ; std::vector<unsigned long,std::allocator<unsigned long> >::const_iterator::operator*
_TEXT	ENDS
PUBLIC	??8const_iterator@?$vector@KV?$allocator@K@std@@@std@@QBE_NABV012@@Z ; std::vector<unsigned long,std::allocator<unsigned long> >::const_iterator::operator==
; Function compile flags: /Ogty
;	COMDAT ??8const_iterator@?$vector@KV?$allocator@K@std@@@std@@QBE_NABV012@@Z
_TEXT	SEGMENT
__Right$ = 8						; size = 4
??8const_iterator@?$vector@KV?$allocator@K@std@@@std@@QBE_NABV012@@Z PROC NEAR ; std::vector<unsigned long,std::allocator<unsigned long> >::const_iterator::operator==, COMDAT
; _this$ = ecx

; 153  : 
; 154  : 
; 155  : 			return (_Myptr == _Right._Myptr);

  00000	8b 01		 mov	 eax, DWORD PTR [ecx]
  00002	8b 4c 24 04	 mov	 ecx, DWORD PTR __Right$[esp-4]
  00006	2b 01		 sub	 eax, DWORD PTR [ecx]
  00008	f7 d8		 neg	 eax
  0000a	1b c0		 sbb	 eax, eax
  0000c	40		 inc	 eax

; 156  : 			}

  0000d	c2 04 00	 ret	 4
??8const_iterator@?$vector@KV?$allocator@K@std@@@std@@QBE_NABV012@@Z ENDP ; std::vector<unsigned long,std::allocator<unsigned long> >::const_iterator::operator==
_TEXT	ENDS
PUBLIC	??8const_iterator@?$_Tree@V?$_Tmap_traits@KKU?$less@K@std@@V?$allocator@U?$pair@$$CBKK@std@@@2@$0A@@std@@@std@@QBE_NABV012@@Z ; std::_Tree<std::_Tmap_traits<unsigned long,unsigned long,std::less<unsigned long>,std::allocator<std::pair<unsigned long const ,unsigned long> >,0> >::const_iterator::operator==
; Function compile flags: /Ogty
; File c:\program files\microsoft visual studio .net 2003\vc7\include\xtree
;	COMDAT ??8const_iterator@?$_Tree@V?$_Tmap_traits@KKU?$less@K@std@@V?$allocator@U?$pair@$$CBKK@std@@@2@$0A@@std@@@std@@QBE_NABV012@@Z
_TEXT	SEGMENT
__Right$ = 8						; size = 4
??8const_iterator@?$_Tree@V?$_Tmap_traits@KKU?$less@K@std@@V?$allocator@U?$pair@$$CBKK@std@@@2@$0A@@std@@@std@@QBE_NABV012@@Z PROC NEAR ; std::_Tree<std::_Tmap_traits<unsigned long,unsigned long,std::less<unsigned long>,std::allocator<std::pair<unsigned long const ,unsigned long> >,0> >::const_iterator::operator==, COMDAT
; _this$ = ecx

; 241  : 			return (_Ptr == _Right._Ptr);

  00000	8b 01		 mov	 eax, DWORD PTR [ecx]
  00002	8b 4c 24 04	 mov	 ecx, DWORD PTR __Right$[esp-4]
  00006	2b 01		 sub	 eax, DWORD PTR [ecx]
  00008	f7 d8		 neg	 eax
  0000a	1b c0		 sbb	 eax, eax
  0000c	40		 inc	 eax

; 242  : 			}

  0000d	c2 04 00	 ret	 4
??8const_iterator@?$_Tree@V?$_Tmap_traits@KKU?$less@K@std@@V?$allocator@U?$pair@$$CBKK@std@@@2@$0A@@std@@@std@@QBE_NABV012@@Z ENDP ; std::_Tree<std::_Tmap_traits<unsigned long,unsigned long,std::less<unsigned long>,std::allocator<std::pair<unsigned long const ,unsigned long> >,0> >::const_iterator::operator==
_TEXT	ENDS
PUBLIC	??9const_iterator@?$_Tree@V?$_Tmap_traits@KKU?$less@K@std@@V?$allocator@U?$pair@$$CBKK@std@@@2@$0A@@std@@@std@@QBE_NABV012@@Z ; std::_Tree<std::_Tmap_traits<unsigned long,unsigned long,std::less<unsigned long>,std::allocator<std::pair<unsigned long const ,unsigned long> >,0> >::const_iterator::operator!=
; Function compile flags: /Ogty
;	COMDAT ??9const_iterator@?$_Tree@V?$_Tmap_traits@KKU?$less@K@std@@V?$allocator@U?$pair@$$CBKK@std@@@2@$0A@@std@@@std@@QBE_NABV012@@Z
_TEXT	SEGMENT
__Right$ = 8						; size = 4
??9const_iterator@?$_Tree@V?$_Tmap_traits@KKU?$less@K@std@@V?$allocator@U?$pair@$$CBKK@std@@@2@$0A@@std@@@std@@QBE_NABV012@@Z PROC NEAR ; std::_Tree<std::_Tmap_traits<unsigned long,unsigned long,std::less<unsigned long>,std::allocator<std::pair<unsigned long const ,unsigned long> >,0> >::const_iterator::operator!=, COMDAT
; _this$ = ecx

; 246  : 			return (!(*this == _Right));

  00000	8b 01		 mov	 eax, DWORD PTR [ecx]
  00002	8b 54 24 04	 mov	 edx, DWORD PTR __Right$[esp-4]
  00006	56		 push	 esi
  00007	8b 32		 mov	 esi, DWORD PTR [edx]
  00009	33 c9		 xor	 ecx, ecx
  0000b	3b c6		 cmp	 eax, esi
  0000d	0f 95 c1	 setne	 cl
  00010	8a c1		 mov	 al, cl
  00012	5e		 pop	 esi

; 247  : 			}

  00013	c2 04 00	 ret	 4
??9const_iterator@?$_Tree@V?$_Tmap_traits@KKU?$less@K@std@@V?$allocator@U?$pair@$$CBKK@std@@@2@$0A@@std@@@std@@QBE_NABV012@@Z ENDP ; std::_Tree<std::_Tmap_traits<unsigned long,unsigned long,std::less<unsigned long>,std::allocator<std::pair<unsigned long const ,unsigned long> >,0> >::const_iterator::operator!=
_TEXT	ENDS
PUBLIC	??0const_iterator@?$vector@KV?$allocator@K@std@@@std@@QAE@PAK@Z ; std::vector<unsigned long,std::allocator<unsigned long> >::const_iterator::const_iterator
; Function compile flags: /Ogty
; File c:\program files\microsoft visual studio .net 2003\vc7\include\vector
;	COMDAT ??0const_iterator@?$vector@KV?$allocator@K@std@@@std@@QAE@PAK@Z
_TEXT	SEGMENT
__Ptr$ = 8						; size = 4
??0const_iterator@?$vector@KV?$allocator@K@std@@@std@@QAE@PAK@Z PROC NEAR ; std::vector<unsigned long,std::allocator<unsigned long> >::const_iterator::const_iterator, COMDAT
; _this$ = ecx

; 73   : 		const_iterator(_Tptr _Ptr)

  00000	8b c1		 mov	 eax, ecx

; 74   : 			{	// construct with pointer _Ptr
; 75   : 			_Myptr = _Ptr;

  00002	8b 4c 24 04	 mov	 ecx, DWORD PTR __Ptr$[esp-4]
  00006	89 08		 mov	 DWORD PTR [eax], ecx

; 76   : 			}

  00008	c2 04 00	 ret	 4
??0const_iterator@?$vector@KV?$allocator@K@std@@@std@@QAE@PAK@Z ENDP ; std::vector<unsigned long,std::allocator<unsigned long> >::const_iterator::const_iterator
_TEXT	ENDS
PUBLIC	??0?$pair@Viterator@?$_Tree@V?$_Tmap_traits@KKU?$less@K@std@@V?$allocator@U?$pair@$$CBKK@std@@@2@$0A@@std@@@std@@V123@@std@@QAE@ABViterator@?$_Tree@V?$_Tmap_traits@KKU?$less@K@std@@V?$allocator@U?$pair@$$CBKK@std@@@2@$0A@@std@@@1@0@Z ; std::pair<std::_Tree<std::_Tmap_traits<unsigned long,unsigned long,std::less<unsigned long>,std::allocator<std::pair<unsigned long const ,unsigned long> >,0> >::iterator,std::_Tree<std::_Tmap_traits<unsigned long,unsigned long,std::less<unsigned long>,std::allocator<std::pair<unsigned long const ,unsigned long> >,0> >::iterator>::pair<std::_Tree<std::_Tmap_traits<unsigned long,unsigned long,std::less<unsigned long>,std::allocator<std::pair<unsigned long const ,unsigned long> >,0> >::iterator,std::_Tree<std::_Tmap_traits<unsigned long,unsigned long,std::less<unsigned long>,std::allocator<std::pair<unsigned long const ,unsigned long> >,0> >::iterator>
; Function compile flags: /Ogty
; File c:\program files\microsoft visual studio .net 2003\vc7\include\utility
;	COMDAT ??0?$pair@Viterator@?$_Tree@V?$_Tmap_traits@KKU?$less@K@std@@V?$allocator@U?$pair@$$CBKK@std@@@2@$0A@@std@@@std@@V123@@std@@QAE@ABViterator@?$_Tree@V?$_Tmap_traits@KKU?$less@K@std@@V?$allocator@U?$pair@$$CBKK@std@@@2@$0A@@std@@@1@0@Z
_TEXT	SEGMENT
__Val1$ = 8						; size = 4
__Val2$ = 12						; size = 4
??0?$pair@Viterator@?$_Tree@V?$_Tmap_traits@KKU?$less@K@std@@V?$allocator@U?$pair@$$CBKK@std@@@2@$0A@@std@@@std@@V123@@std@@QAE@ABViterator@?$_Tree@V?$_Tmap_traits@KKU?$less@K@std@@V?$allocator@U?$pair@$$CBKK@std@@@2@$0A@@std@@@1@0@Z PROC NEAR ; std::pair<std::_Tree<std::_Tmap_traits<unsigned long,unsigned long,std::less<unsigned long>,std::allocator<std::pair<unsigned long const ,unsigned long> >,0> >::iterator,std::_Tree<std::_Tmap_traits<unsigned long,unsigned long,std::less<unsigned long>,std::allocator<std::pair<unsigned long const ,unsigned long> >,0> >::iterator>::pair<std::_Tree<std::_Tmap_traits<unsigned long,unsigned long,std::less<unsigned long>,std::allocator<std::pair<unsigned long const ,unsigned long> >,0> >::iterator,std::_Tree<std::_Tmap_traits<unsigned long,unsigned long,std::less<unsigned long>,std::allocator<std::pair<unsigned long const ,unsigned long> >,0> >::iterator>, COMDAT
; _this$ = ecx

; 34   : 		{	// construct from specified values

  00000	8b c1		 mov	 eax, ecx
  00002	8b 4c 24 04	 mov	 ecx, DWORD PTR __Val1$[esp-4]
  00006	8b 11		 mov	 edx, DWORD PTR [ecx]
  00008	8b 4c 24 08	 mov	 ecx, DWORD PTR __Val2$[esp-4]
  0000c	89 10		 mov	 DWORD PTR [eax], edx
  0000e	8b 11		 mov	 edx, DWORD PTR [ecx]
  00010	89 50 04	 mov	 DWORD PTR [eax+4], edx

; 35   : 		}

  00013	c2 08 00	 ret	 8
??0?$pair@Viterator@?$_Tree@V?$_Tmap_traits@KKU?$less@K@std@@V?$allocator@U?$pair@$$CBKK@std@@@2@$0A@@std@@@std@@V123@@std@@QAE@ABViterator@?$_Tree@V?$_Tmap_traits@KKU?$less@K@std@@V?$allocator@U?$pair@$$CBKK@std@@@2@$0A@@std@@@1@0@Z ENDP ; std::pair<std::_Tree<std::_Tmap_traits<unsigned long,unsigned long,std::less<unsigned long>,std::allocator<std::pair<unsigned long const ,unsigned long> >,0> >::iterator,std::_Tree<std::_Tmap_traits<unsigned long,unsigned long,std::less<unsigned long>,std::allocator<std::pair<unsigned long const ,unsigned long> >,0> >::iterator>::pair<std::_Tree<std::_Tmap_traits<unsigned long,unsigned long,std::less<unsigned long>,std::allocator<std::pair<unsigned long const ,unsigned long> >,0> >::iterator,std::_Tree<std::_Tmap_traits<unsigned long,unsigned long,std::less<unsigned long>,std::allocator<std::pair<unsigned long const ,unsigned long> >,0> >::iterator>
_TEXT	ENDS
PUBLIC	?_Color@?$_Tree@V?$_Tmap_traits@KKU?$less@K@std@@V?$allocator@U?$pair@$$CBKK@std@@@2@$0A@@std@@@std@@KAAADPAU_Node@?$_Tree_nod@V?$_Tmap_traits@KKU?$less@K@std@@V?$allocator@U?$pair@$$CBKK@std@@@2@$0A@@std@@@2@@Z ; std::_Tree<std::_Tmap_traits<unsigned long,unsigned long,std::less<unsigned long>,std::allocator<std::pair<unsigned long const ,unsigned long> >,0> >::_Color
; Function compile flags: /Ogty
; File c:\program files\microsoft visual studio .net 2003\vc7\include\xtree
;	COMDAT ?_Color@?$_Tree@V?$_Tmap_traits@KKU?$less@K@std@@V?$allocator@U?$pair@$$CBKK@std@@@2@$0A@@std@@@std@@KAAADPAU_Node@?$_Tree_nod@V?$_Tmap_traits@KKU?$less@K@std@@V?$allocator@U?$pair@$$CBKK@std@@@2@$0A@@std@@@2@@Z
_TEXT	SEGMENT
__Pnode$ = 8						; size = 4
?_Color@?$_Tree@V?$_Tmap_traits@KKU?$less@K@std@@V?$allocator@U?$pair@$$CBKK@std@@@2@$0A@@std@@@std@@KAAADPAU_Node@?$_Tree_nod@V?$_Tmap_traits@KKU?$less@K@std@@V?$allocator@U?$pair@$$CBKK@std@@@2@$0A@@std@@@2@@Z PROC NEAR ; std::_Tree<std::_Tmap_traits<unsigned long,unsigned long,std::less<unsigned long>,std::allocator<std::pair<unsigned long const ,unsigned long> >,0> >::_Color, COMDAT

; 132  : 		return ((_Charref)(*_Pnode)._Color);

  00000	8b 44 24 04	 mov	 eax, DWORD PTR __Pnode$[esp-4]
  00004	83 c0 14	 add	 eax, 20			; 00000014H

; 133  : 		}

  00007	c3		 ret	 0
?_Color@?$_Tree@V?$_Tmap_traits@KKU?$less@K@std@@V?$allocator@U?$pair@$$CBKK@std@@@2@$0A@@std@@@std@@KAAADPAU_Node@?$_Tree_nod@V?$_Tmap_traits@KKU?$less@K@std@@V?$allocator@U?$pair@$$CBKK@std@@@2@$0A@@std@@@2@@Z ENDP ; std::_Tree<std::_Tmap_traits<unsigned long,unsigned long,std::less<unsigned long>,std::allocator<std::pair<unsigned long const ,unsigned long> >,0> >::_Color
_TEXT	ENDS
PUBLIC	?_Isnil@?$_Tree@V?$_Tmap_traits@KKU?$less@K@std@@V?$allocator@U?$pair@$$CBKK@std@@@2@$0A@@std@@@std@@KAAADPAU_Node@?$_Tree_nod@V?$_Tmap_traits@KKU?$less@K@std@@V?$allocator@U?$pair@$$CBKK@std@@@2@$0A@@std@@@2@@Z ; std::_Tree<std::_Tmap_traits<unsigned long,unsigned long,std::less<unsigned long>,std::allocator<std::pair<unsigned long const ,unsigned long> >,0> >::_Isnil
; Function compile flags: /Ogty
;	COMDAT ?_Isnil@?$_Tree@V?$_Tmap_traits@KKU?$less@K@std@@V?$allocator@U?$pair@$$CBKK@std@@@2@$0A@@std@@@std@@KAAADPAU_Node@?$_Tree_nod@V?$_Tmap_traits@KKU?$less@K@std@@V?$allocator@U?$pair@$$CBKK@std@@@2@$0A@@std@@@2@@Z
_TEXT	SEGMENT
__Pnode$ = 8						; size = 4
?_Isnil@?$_Tree@V?$_Tmap_traits@KKU?$less@K@std@@V?$allocator@U?$pair@$$CBKK@std@@@2@$0A@@std@@@std@@KAAADPAU_Node@?$_Tree_nod@V?$_Tmap_traits@KKU?$less@K@std@@V?$allocator@U?$pair@$$CBKK@std@@@2@$0A@@std@@@2@@Z PROC NEAR ; std::_Tree<std::_Tmap_traits<unsigned long,unsigned long,std::less<unsigned long>,std::allocator<std::pair<unsigned long const ,unsigned long> >,0> >::_Isnil, COMDAT

; 137  : 		return ((_Charref)(*_Pnode)._Isnil);

  00000	8b 44 24 04	 mov	 eax, DWORD PTR __Pnode$[esp-4]
  00004	83 c0 15	 add	 eax, 21			; 00000015H

; 138  : 		}

  00007	c3		 ret	 0
?_Isnil@?$_Tree@V?$_Tmap_traits@KKU?$less@K@std@@V?$allocator@U?$pair@$$CBKK@std@@@2@$0A@@std@@@std@@KAAADPAU_Node@?$_Tree_nod@V?$_Tmap_traits@KKU?$less@K@std@@V?$allocator@U?$pair@$$CBKK@std@@@2@$0A@@std@@@2@@Z ENDP ; std::_Tree<std::_Tmap_traits<unsigned long,unsigned long,std::less<unsigned long>,std::allocator<std::pair<unsigned long const ,unsigned long> >,0> >::_Isnil
_TEXT	ENDS
PUBLIC	?_Left@?$_Tree@V?$_Tmap_traits@KKU?$less@K@std@@V?$allocator@U?$pair@$$CBKK@std@@@2@$0A@@std@@@std@@KAAAPAU_Node@?$_Tree_nod@V?$_Tmap_traits@KKU?$less@K@std@@V?$allocator@U?$pair@$$CBKK@std@@@2@$0A@@std@@@2@PAU342@@Z ; std::_Tree<std::_Tmap_traits<unsigned long,unsigned long,std::less<unsigned long>,std::allocator<std::pair<unsigned long const ,unsigned long> >,0> >::_Left
; Function compile flags: /Ogty
;	COMDAT ?_Left@?$_Tree@V?$_Tmap_traits@KKU?$less@K@std@@V?$allocator@U?$pair@$$CBKK@std@@@2@$0A@@std@@@std@@KAAAPAU_Node@?$_Tree_nod@V?$_Tmap_traits@KKU?$less@K@std@@V?$allocator@U?$pair@$$CBKK@std@@@2@$0A@@std@@@2@PAU342@@Z
_TEXT	SEGMENT
__Pnode$ = 8						; size = 4
?_Left@?$_Tree@V?$_Tmap_traits@KKU?$less@K@std@@V?$allocator@U?$pair@$$CBKK@std@@@2@$0A@@std@@@std@@KAAAPAU_Node@?$_Tree_nod@V?$_Tmap_traits@KKU?$less@K@std@@V?$allocator@U?$pair@$$CBKK@std@@@2@$0A@@std@@@2@PAU342@@Z PROC NEAR ; std::_Tree<std::_Tmap_traits<unsigned long,unsigned long,std::less<unsigned long>,std::allocator<std::pair<unsigned long const ,unsigned long> >,0> >::_Left, COMDAT

; 147  : 		return ((_Nodepref)(*_Pnode)._Left);

  00000	8b 44 24 04	 mov	 eax, DWORD PTR __Pnode$[esp-4]

; 148  : 		}

  00004	c3		 ret	 0
?_Left@?$_Tree@V?$_Tmap_traits@KKU?$less@K@std@@V?$allocator@U?$pair@$$CBKK@std@@@2@$0A@@std@@@std@@KAAAPAU_Node@?$_Tree_nod@V?$_Tmap_traits@KKU?$less@K@std@@V?$allocator@U?$pair@$$CBKK@std@@@2@$0A@@std@@@2@PAU342@@Z ENDP ; std::_Tree<std::_Tmap_traits<unsigned long,unsigned long,std::less<unsigned long>,std::allocator<std::pair<unsigned long const ,unsigned long> >,0> >::_Left
_TEXT	ENDS
PUBLIC	?_Parent@?$_Tree@V?$_Tmap_traits@KKU?$less@K@std@@V?$allocator@U?$pair@$$CBKK@std@@@2@$0A@@std@@@std@@KAAAPAU_Node@?$_Tree_nod@V?$_Tmap_traits@KKU?$less@K@std@@V?$allocator@U?$pair@$$CBKK@std@@@2@$0A@@std@@@2@PAU342@@Z ; std::_Tree<std::_Tmap_traits<unsigned long,unsigned long,std::less<unsigned long>,std::allocator<std::pair<unsigned long const ,unsigned long> >,0> >::_Parent
; Function compile flags: /Ogty
;	COMDAT ?_Parent@?$_Tree@V?$_Tmap_traits@KKU?$less@K@std@@V?$allocator@U?$pair@$$CBKK@std@@@2@$0A@@std@@@std@@KAAAPAU_Node@?$_Tree_nod@V?$_Tmap_traits@KKU?$less@K@std@@V?$allocator@U?$pair@$$CBKK@std@@@2@$0A@@std@@@2@PAU342@@Z
_TEXT	SEGMENT
__Pnode$ = 8						; size = 4
?_Parent@?$_Tree@V?$_Tmap_traits@KKU?$less@K@std@@V?$allocator@U?$pair@$$CBKK@std@@@2@$0A@@std@@@std@@KAAAPAU_Node@?$_Tree_nod@V?$_Tmap_traits@KKU?$less@K@std@@V?$allocator@U?$pair@$$CBKK@std@@@2@$0A@@std@@@2@PAU342@@Z PROC NEAR ; std::_Tree<std::_Tmap_traits<unsigned long,unsigned long,std::less<unsigned long>,std::allocator<std::pair<unsigned long const ,unsigned long> >,0> >::_Parent, COMDAT

; 152  : 		return ((_Nodepref)(*_Pnode)._Parent);

  00000	8b 44 24 04	 mov	 eax, DWORD PTR __Pnode$[esp-4]
  00004	83 c0 04	 add	 eax, 4

; 153  : 		}

  00007	c3		 ret	 0
?_Parent@?$_Tree@V?$_Tmap_traits@KKU?$less@K@std@@V?$allocator@U?$pair@$$CBKK@std@@@2@$0A@@std@@@std@@KAAAPAU_Node@?$_Tree_nod@V?$_Tmap_traits@KKU?$less@K@std@@V?$allocator@U?$pair@$$CBKK@std@@@2@$0A@@std@@@2@PAU342@@Z ENDP ; std::_Tree<std::_Tmap_traits<unsigned long,unsigned long,std::less<unsigned long>,std::allocator<std::pair<unsigned long const ,unsigned long> >,0> >::_Parent
_TEXT	ENDS
PUBLIC	?_Right@?$_Tree@V?$_Tmap_traits@KKU?$less@K@std@@V?$allocator@U?$pair@$$CBKK@std@@@2@$0A@@std@@@std@@KAAAPAU_Node@?$_Tree_nod@V?$_Tmap_traits@KKU?$less@K@std@@V?$allocator@U?$pair@$$CBKK@std@@@2@$0A@@std@@@2@PAU342@@Z ; std::_Tree<std::_Tmap_traits<unsigned long,unsigned long,std::less<unsigned long>,std::allocator<std::pair<unsigned long const ,unsigned long> >,0> >::_Right
; Function compile flags: /Ogty
;	COMDAT ?_Right@?$_Tree@V?$_Tmap_traits@KKU?$less@K@std@@V?$allocator@U?$pair@$$CBKK@std@@@2@$0A@@std@@@std@@KAAAPAU_Node@?$_Tree_nod@V?$_Tmap_traits@KKU?$less@K@std@@V?$allocator@U?$pair@$$CBKK@std@@@2@$0A@@std@@@2@PAU342@@Z
_TEXT	SEGMENT
__Pnode$ = 8						; size = 4
?_Right@?$_Tree@V?$_Tmap_traits@KKU?$less@K@std@@V?$allocator@U?$pair@$$CBKK@std@@@2@$0A@@std@@@std@@KAAAPAU_Node@?$_Tree_nod@V?$_Tmap_traits@KKU?$less@K@std@@V?$allocator@U?$pair@$$CBKK@std@@@2@$0A@@std@@@2@PAU342@@Z PROC NEAR ; std::_Tree<std::_Tmap_traits<unsigned long,unsigned long,std::less<unsigned long>,std::allocator<std::pair<unsigned long const ,unsigned long> >,0> >::_Right, COMDAT

; 157  : 		return ((_Nodepref)(*_Pnode)._Right);

  00000	8b 44 24 04	 mov	 eax, DWORD PTR __Pnode$[esp-4]
  00004	83 c0 08	 add	 eax, 8

; 158  : 		}

  00007	c3		 ret	 0
?_Right@?$_Tree@V?$_Tmap_traits@KKU?$less@K@std@@V?$allocator@U?$pair@$$CBKK@std@@@2@$0A@@std@@@std@@KAAAPAU_Node@?$_Tree_nod@V?$_Tmap_traits@KKU?$less@K@std@@V?$allocator@U?$pair@$$CBKK@std@@@2@$0A@@std@@@2@PAU342@@Z ENDP ; std::_Tree<std::_Tmap_traits<unsigned long,unsigned long,std::less<unsigned long>,std::allocator<std::pair<unsigned long const ,unsigned long> >,0> >::_Right
_TEXT	ENDS
PUBLIC	?_Lmost@?$_Tree@V?$_Tmap_traits@KKU?$less@K@std@@V?$allocator@U?$pair@$$CBKK@std@@@2@$0A@@std@@@std@@IAEAAPAU_Node@?$_Tree_nod@V?$_Tmap_traits@KKU?$less@K@std@@V?$allocator@U?$pair@$$CBKK@std@@@2@$0A@@std@@@2@XZ ; std::_Tree<std::_Tmap_traits<unsigned long,unsigned long,std::less<unsigned long>,std::allocator<std::pair<unsigned long const ,unsigned long> >,0> >::_Lmost
; Function compile flags: /Ogty
;	COMDAT ?_Lmost@?$_Tree@V?$_Tmap_traits@KKU?$less@K@std@@V?$allocator@U?$pair@$$CBKK@std@@@2@$0A@@std@@@std@@IAEAAPAU_Node@?$_Tree_nod@V?$_Tmap_traits@KKU?$less@K@std@@V?$allocator@U?$pair@$$CBKK@std@@@2@$0A@@std@@@2@XZ
_TEXT	SEGMENT
?_Lmost@?$_Tree@V?$_Tmap_traits@KKU?$less@K@std@@V?$allocator@U?$pair@$$CBKK@std@@@2@$0A@@std@@@std@@IAEAAPAU_Node@?$_Tree_nod@V?$_Tmap_traits@KKU?$less@K@std@@V?$allocator@U?$pair@$$CBKK@std@@@2@$0A@@std@@@2@XZ PROC NEAR ; std::_Tree<std::_Tmap_traits<unsigned long,unsigned long,std::less<unsigned long>,std::allocator<std::pair<unsigned long const ,unsigned long> >,0> >::_Lmost, COMDAT
; _this$ = ecx

; 1005 : 		return (_Left(_Myhead));

  00000	8b 41 04	 mov	 eax, DWORD PTR [ecx+4]

; 1006 : 		}

  00003	c3		 ret	 0
?_Lmost@?$_Tree@V?$_Tmap_traits@KKU?$less@K@std@@V?$allocator@U?$pair@$$CBKK@std@@@2@$0A@@std@@@std@@IAEAAPAU_Node@?$_Tree_nod@V?$_Tmap_traits@KKU?$less@K@std@@V?$allocator@U?$pair@$$CBKK@std@@@2@$0A@@std@@@2@XZ ENDP ; std::_Tree<std::_Tmap_traits<unsigned long,unsigned long,std::less<unsigned long>,std::allocator<std::pair<unsigned long const ,unsigned long> >,0> >::_Lmost
_TEXT	ENDS
PUBLIC	?_Max@?$_Tree@V?$_Tmap_traits@KKU?$less@K@std@@V?$allocator@U?$pair@$$CBKK@std@@@2@$0A@@std@@@std@@KAPAU_Node@?$_Tree_nod@V?$_Tmap_traits@KKU?$less@K@std@@V?$allocator@U?$pair@$$CBKK@std@@@2@$0A@@std@@@2@PAU342@@Z ; std::_Tree<std::_Tmap_traits<unsigned long,unsigned long,std::less<unsigned long>,std::allocator<std::pair<unsigned long const ,unsigned long> >,0> >::_Max
; Function compile flags: /Ogty
;	COMDAT ?_Max@?$_Tree@V?$_Tmap_traits@KKU?$less@K@std@@V?$allocator@U?$pair@$$CBKK@std@@@2@$0A@@std@@@std@@KAPAU_Node@?$_Tree_nod@V?$_Tmap_traits@KKU?$less@K@std@@V?$allocator@U?$pair@$$CBKK@std@@@2@$0A@@std@@@2@PAU342@@Z
_TEXT	SEGMENT
__Pnode$ = 8						; size = 4
?_Max@?$_Tree@V?$_Tmap_traits@KKU?$less@K@std@@V?$allocator@U?$pair@$$CBKK@std@@@2@$0A@@std@@@std@@KAPAU_Node@?$_Tree_nod@V?$_Tmap_traits@KKU?$less@K@std@@V?$allocator@U?$pair@$$CBKK@std@@@2@$0A@@std@@@2@PAU342@@Z PROC NEAR ; std::_Tree<std::_Tmap_traits<unsigned long,unsigned long,std::less<unsigned long>,std::allocator<std::pair<unsigned long const ,unsigned long> >,0> >::_Max, COMDAT

; 1035 : 		while (!_Isnil(_Right(_Pnode)))

  00000	8b 44 24 04	 mov	 eax, DWORD PTR __Pnode$[esp-4]
  00004	8b 48 08	 mov	 ecx, DWORD PTR [eax+8]
  00007	8a 51 15	 mov	 dl, BYTE PTR [ecx+21]
  0000a	84 d2		 test	 dl, dl
  0000c	75 0e		 jne	 SHORT $L204186
  0000e	8b ff		 npad	 2
$L204185:

; 1036 : 			_Pnode = _Right(_Pnode);

  00010	8b c1		 mov	 eax, ecx
  00012	8b 48 08	 mov	 ecx, DWORD PTR [eax+8]
  00015	8a 51 15	 mov	 dl, BYTE PTR [ecx+21]
  00018	84 d2		 test	 dl, dl
  0001a	74 f4		 je	 SHORT $L204185
$L204186:

; 1037 : 		return (_Pnode);
; 1038 : 		}

  0001c	c3		 ret	 0
?_Max@?$_Tree@V?$_Tmap_traits@KKU?$less@K@std@@V?$allocator@U?$pair@$$CBKK@std@@@2@$0A@@std@@@std@@KAPAU_Node@?$_Tree_nod@V?$_Tmap_traits@KKU?$less@K@std@@V?$allocator@U?$pair@$$CBKK@std@@@2@$0A@@std@@@2@PAU342@@Z ENDP ; std::_Tree<std::_Tmap_traits<unsigned long,unsigned long,std::less<unsigned long>,std::allocator<std::pair<unsigned long const ,unsigned long> >,0> >::_Max
_TEXT	ENDS
PUBLIC	?_Min@?$_Tree@V?$_Tmap_traits@KKU?$less@K@std@@V?$allocator@U?$pair@$$CBKK@std@@@2@$0A@@std@@@std@@KAPAU_Node@?$_Tree_nod@V?$_Tmap_traits@KKU?$less@K@std@@V?$allocator@U?$pair@$$CBKK@std@@@2@$0A@@std@@@2@PAU342@@Z ; std::_Tree<std::_Tmap_traits<unsigned long,unsigned long,std::less<unsigned long>,std::allocator<std::pair<unsigned long const ,unsigned long> >,0> >::_Min
; Function compile flags: /Ogty
;	COMDAT ?_Min@?$_Tree@V?$_Tmap_traits@KKU?$less@K@std@@V?$allocator@U?$pair@$$CBKK@std@@@2@$0A@@std@@@std@@KAPAU_Node@?$_Tree_nod@V?$_Tmap_traits@KKU?$less@K@std@@V?$allocator@U?$pair@$$CBKK@std@@@2@$0A@@std@@@2@PAU342@@Z
_TEXT	SEGMENT
__Pnode$ = 8						; size = 4
?_Min@?$_Tree@V?$_Tmap_traits@KKU?$less@K@std@@V?$allocator@U?$pair@$$CBKK@std@@@2@$0A@@std@@@std@@KAPAU_Node@?$_Tree_nod@V?$_Tmap_traits@KKU?$less@K@std@@V?$allocator@U?$pair@$$CBKK@std@@@2@$0A@@std@@@2@PAU342@@Z PROC NEAR ; std::_Tree<std::_Tmap_traits<unsigned long,unsigned long,std::less<unsigned long>,std::allocator<std::pair<unsigned long const ,unsigned long> >,0> >::_Min, COMDAT

; 1042 : 		while (!_Isnil(_Left(_Pnode)))

  00000	8b 44 24 04	 mov	 eax, DWORD PTR __Pnode$[esp-4]
  00004	8b 08		 mov	 ecx, DWORD PTR [eax]
  00006	8a 51 15	 mov	 dl, BYTE PTR [ecx+21]
  00009	84 d2		 test	 dl, dl
  0000b	75 0e		 jne	 SHORT $L204190
  0000d	8d 49 00	 npad	 3
$L204189:

; 1043 : 			_Pnode = _Left(_Pnode);

  00010	8b c1		 mov	 eax, ecx
  00012	8b 08		 mov	 ecx, DWORD PTR [eax]
  00014	8a 51 15	 mov	 dl, BYTE PTR [ecx+21]
  00017	84 d2		 test	 dl, dl
  00019	74 f5		 je	 SHORT $L204189
$L204190:

; 1044 : 		return (_Pnode);
; 1045 : 		}

  0001b	c3		 ret	 0
?_Min@?$_Tree@V?$_Tmap_traits@KKU?$less@K@std@@V?$allocator@U?$pair@$$CBKK@std@@@2@$0A@@std@@@std@@KAPAU_Node@?$_Tree_nod@V?$_Tmap_traits@KKU?$less@K@std@@V?$allocator@U?$pair@$$CBKK@std@@@2@$0A@@std@@@2@PAU342@@Z ENDP ; std::_Tree<std::_Tmap_traits<unsigned long,unsigned long,std::less<unsigned long>,std::allocator<std::pair<unsigned long const ,unsigned long> >,0> >::_Min
_TEXT	ENDS
PUBLIC	?_Rmost@?$_Tree@V?$_Tmap_traits@KKU?$less@K@std@@V?$allocator@U?$pair@$$CBKK@std@@@2@$0A@@std@@@std@@IAEAAPAU_Node@?$_Tree_nod@V?$_Tmap_traits@KKU?$less@K@std@@V?$allocator@U?$pair@$$CBKK@std@@@2@$0A@@std@@@2@XZ ; std::_Tree<std::_Tmap_traits<unsigned long,unsigned long,std::less<unsigned long>,std::allocator<std::pair<unsigned long const ,unsigned long> >,0> >::_Rmost
; Function compile flags: /Ogty
;	COMDAT ?_Rmost@?$_Tree@V?$_Tmap_traits@KKU?$less@K@std@@V?$allocator@U?$pair@$$CBKK@std@@@2@$0A@@std@@@std@@IAEAAPAU_Node@?$_Tree_nod@V?$_Tmap_traits@KKU?$less@K@std@@V?$allocator@U?$pair@$$CBKK@std@@@2@$0A@@std@@@2@XZ
_TEXT	SEGMENT
?_Rmost@?$_Tree@V?$_Tmap_traits@KKU?$less@K@std@@V?$allocator@U?$pair@$$CBKK@std@@@2@$0A@@std@@@std@@IAEAAPAU_Node@?$_Tree_nod@V?$_Tmap_traits@KKU?$less@K@std@@V?$allocator@U?$pair@$$CBKK@std@@@2@$0A@@std@@@2@XZ PROC NEAR ; std::_Tree<std::_Tmap_traits<unsigned long,unsigned long,std::less<unsigned long>,std::allocator<std::pair<unsigned long const ,unsigned long> >,0> >::_Rmost, COMDAT
; _this$ = ecx

; 1049 : 		return (_Right(_Myhead));

  00000	8b 41 04	 mov	 eax, DWORD PTR [ecx+4]
  00003	83 c0 08	 add	 eax, 8

; 1050 : 		}

  00006	c3		 ret	 0
?_Rmost@?$_Tree@V?$_Tmap_traits@KKU?$less@K@std@@V?$allocator@U?$pair@$$CBKK@std@@@2@$0A@@std@@@std@@IAEAAPAU_Node@?$_Tree_nod@V?$_Tmap_traits@KKU?$less@K@std@@V?$allocator@U?$pair@$$CBKK@std@@@2@$0A@@std@@@2@XZ ENDP ; std::_Tree<std::_Tmap_traits<unsigned long,unsigned long,std::less<unsigned long>,std::allocator<std::pair<unsigned long const ,unsigned long> >,0> >::_Rmost
_TEXT	ENDS
PUBLIC	?_Root@?$_Tree@V?$_Tmap_traits@KKU?$less@K@std@@V?$allocator@U?$pair@$$CBKK@std@@@2@$0A@@std@@@std@@IAEAAPAU_Node@?$_Tree_nod@V?$_Tmap_traits@KKU?$less@K@std@@V?$allocator@U?$pair@$$CBKK@std@@@2@$0A@@std@@@2@XZ ; std::_Tree<std::_Tmap_traits<unsigned long,unsigned long,std::less<unsigned long>,std::allocator<std::pair<unsigned long const ,unsigned long> >,0> >::_Root
; Function compile flags: /Ogty
;	COMDAT ?_Root@?$_Tree@V?$_Tmap_traits@KKU?$less@K@std@@V?$allocator@U?$pair@$$CBKK@std@@@2@$0A@@std@@@std@@IAEAAPAU_Node@?$_Tree_nod@V?$_Tmap_traits@KKU?$less@K@std@@V?$allocator@U?$pair@$$CBKK@std@@@2@$0A@@std@@@2@XZ
_TEXT	SEGMENT
?_Root@?$_Tree@V?$_Tmap_traits@KKU?$less@K@std@@V?$allocator@U?$pair@$$CBKK@std@@@2@$0A@@std@@@std@@IAEAAPAU_Node@?$_Tree_nod@V?$_Tmap_traits@KKU?$less@K@std@@V?$allocator@U?$pair@$$CBKK@std@@@2@$0A@@std@@@2@XZ PROC NEAR ; std::_Tree<std::_Tmap_traits<unsigned long,unsigned long,std::less<unsigned long>,std::allocator<std::pair<unsigned long const ,unsigned long> >,0> >::_Root, COMDAT
; _this$ = ecx

; 1059 : 		return (_Parent(_Myhead));

  00000	8b 41 04	 mov	 eax, DWORD PTR [ecx+4]
  00003	83 c0 04	 add	 eax, 4

; 1060 : 		}

  00006	c3		 ret	 0
?_Root@?$_Tree@V?$_Tmap_traits@KKU?$less@K@std@@V?$allocator@U?$pair@$$CBKK@std@@@2@$0A@@std@@@std@@IAEAAPAU_Node@?$_Tree_nod@V?$_Tmap_traits@KKU?$less@K@std@@V?$allocator@U?$pair@$$CBKK@std@@@2@$0A@@std@@@2@XZ ENDP ; std::_Tree<std::_Tmap_traits<unsigned long,unsigned long,std::less<unsigned long>,std::allocator<std::pair<unsigned long const ,unsigned long> >,0> >::_Root
_TEXT	ENDS
PUBLIC	?_Rrotate@?$_Tree@V?$_Tmap_traits@KKU?$less@K@std@@V?$allocator@U?$pair@$$CBKK@std@@@2@$0A@@std@@@std@@IAEXPAU_Node@?$_Tree_nod@V?$_Tmap_traits@KKU?$less@K@std@@V?$allocator@U?$pair@$$CBKK@std@@@2@$0A@@std@@@2@@Z ; std::_Tree<std::_Tmap_traits<unsigned long,unsigned long,std::less<unsigned long>,std::allocator<std::pair<unsigned long const ,unsigned long> >,0> >::_Rrotate
; Function compile flags: /Ogty
;	COMDAT ?_Rrotate@?$_Tree@V?$_Tmap_traits@KKU?$less@K@std@@V?$allocator@U?$pair@$$CBKK@std@@@2@$0A@@std@@@std@@IAEXPAU_Node@?$_Tree_nod@V?$_Tmap_traits@KKU?$less@K@std@@V?$allocator@U?$pair@$$CBKK@std@@@2@$0A@@std@@@2@@Z
_TEXT	SEGMENT
__Wherenode$ = 8					; size = 4
?_Rrotate@?$_Tree@V?$_Tmap_traits@KKU?$less@K@std@@V?$allocator@U?$pair@$$CBKK@std@@@2@$0A@@std@@@std@@IAEXPAU_Node@?$_Tree_nod@V?$_Tmap_traits@KKU?$less@K@std@@V?$allocator@U?$pair@$$CBKK@std@@@2@$0A@@std@@@2@@Z PROC NEAR ; std::_Tree<std::_Tmap_traits<unsigned long,unsigned long,std::less<unsigned long>,std::allocator<std::pair<unsigned long const ,unsigned long> >,0> >::_Rrotate, COMDAT
; _this$ = ecx

; 1069 : 		_Nodeptr _Pnode = _Left(_Wherenode);

  00000	8b 54 24 04	 mov	 edx, DWORD PTR __Wherenode$[esp-4]
  00004	8b 02		 mov	 eax, DWORD PTR [edx]
  00006	53		 push	 ebx
  00007	56		 push	 esi

; 1070 : 		_Left(_Wherenode) = _Right(_Pnode);

  00008	8b 70 08	 mov	 esi, DWORD PTR [eax+8]
  0000b	89 32		 mov	 DWORD PTR [edx], esi

; 1071 : 
; 1072 : 		if (!_Isnil(_Right(_Pnode)))

  0000d	8b 70 08	 mov	 esi, DWORD PTR [eax+8]
  00010	8a 5e 15	 mov	 bl, BYTE PTR [esi+21]
  00013	84 db		 test	 bl, bl
  00015	75 03		 jne	 SHORT $L204198

; 1073 : 			_Parent(_Right(_Pnode)) = _Wherenode;

  00017	89 56 04	 mov	 DWORD PTR [esi+4], edx
$L204198:

; 1074 : 		_Parent(_Pnode) = _Parent(_Wherenode);

  0001a	8b 72 04	 mov	 esi, DWORD PTR [edx+4]
  0001d	89 70 04	 mov	 DWORD PTR [eax+4], esi

; 1075 : 
; 1076 : 		if (_Wherenode == _Root())

  00020	8b 49 04	 mov	 ecx, DWORD PTR [ecx+4]
  00023	3b 51 04	 cmp	 edx, DWORD PTR [ecx+4]
  00026	75 0e		 jne	 SHORT $L204199

; 1077 : 			_Root() = _Pnode;

  00028	89 41 04	 mov	 DWORD PTR [ecx+4], eax
  0002b	5e		 pop	 esi

; 1082 : 
; 1083 : 		_Right(_Pnode) = _Wherenode;

  0002c	89 50 08	 mov	 DWORD PTR [eax+8], edx

; 1084 : 		_Parent(_Wherenode) = _Pnode;

  0002f	89 42 04	 mov	 DWORD PTR [edx+4], eax
  00032	5b		 pop	 ebx

; 1085 : 		}

  00033	c2 04 00	 ret	 4
$L204199:

; 1078 : 		else if (_Wherenode == _Right(_Parent(_Wherenode)))

  00036	8b 4a 04	 mov	 ecx, DWORD PTR [edx+4]
  00039	3b 51 08	 cmp	 edx, DWORD PTR [ecx+8]
  0003c	75 0e		 jne	 SHORT $L204201

; 1079 : 			_Right(_Parent(_Wherenode)) = _Pnode;

  0003e	89 41 08	 mov	 DWORD PTR [ecx+8], eax
  00041	5e		 pop	 esi

; 1082 : 
; 1083 : 		_Right(_Pnode) = _Wherenode;

  00042	89 50 08	 mov	 DWORD PTR [eax+8], edx

; 1084 : 		_Parent(_Wherenode) = _Pnode;

  00045	89 42 04	 mov	 DWORD PTR [edx+4], eax
  00048	5b		 pop	 ebx

; 1085 : 		}

  00049	c2 04 00	 ret	 4
$L204201:

; 1080 : 		else
; 1081 : 			_Left(_Parent(_Wherenode)) = _Pnode;

  0004c	89 01		 mov	 DWORD PTR [ecx], eax
  0004e	5e		 pop	 esi

; 1082 : 
; 1083 : 		_Right(_Pnode) = _Wherenode;

  0004f	89 50 08	 mov	 DWORD PTR [eax+8], edx

; 1084 : 		_Parent(_Wherenode) = _Pnode;

  00052	89 42 04	 mov	 DWORD PTR [edx+4], eax
  00055	5b		 pop	 ebx

; 1085 : 		}

  00056	c2 04 00	 ret	 4
?_Rrotate@?$_Tree@V?$_Tmap_traits@KKU?$less@K@std@@V?$allocator@U?$pair@$$CBKK@std@@@2@$0A@@std@@@std@@IAEXPAU_Node@?$_Tree_nod@V?$_Tmap_traits@KKU?$less@K@std@@V?$allocator@U?$pair@$$CBKK@std@@@2@$0A@@std@@@2@@Z ENDP ; std::_Tree<std::_Tmap_traits<unsigned long,unsigned long,std::less<unsigned long>,std::allocator<std::pair<unsigned long const ,unsigned long> >,0> >::_Rrotate
_TEXT	ENDS
PUBLIC	?deallocate@?$allocator@U_Node@?$_Tree_nod@V?$_Tmap_traits@KKU?$less@K@std@@V?$allocator@U?$pair@$$CBKK@std@@@2@$0A@@std@@@std@@@std@@QAEXPAU_Node@?$_Tree_nod@V?$_Tmap_traits@KKU?$less@K@std@@V?$allocator@U?$pair@$$CBKK@std@@@2@$0A@@std@@@2@I@Z ; std::allocator<std::_Tree_nod<std::_Tmap_traits<unsigned long,unsigned long,std::less<unsigned long>,std::allocator<std::pair<unsigned long const ,unsigned long> >,0> >::_Node>::deallocate
; Function compile flags: /Ogty
; File c:\program files\microsoft visual studio .net 2003\vc7\include\xmemory
;	COMDAT ?deallocate@?$allocator@U_Node@?$_Tree_nod@V?$_Tmap_traits@KKU?$less@K@std@@V?$allocator@U?$pair@$$CBKK@std@@@2@$0A@@std@@@std@@@std@@QAEXPAU_Node@?$_Tree_nod@V?$_Tmap_traits@KKU?$less@K@std@@V?$allocator@U?$pair@$$CBKK@std@@@2@$0A@@std@@@2@I@Z
_TEXT	SEGMENT
__Ptr$ = 8						; size = 4
___formal$ = 12						; size = 4
?deallocate@?$allocator@U_Node@?$_Tree_nod@V?$_Tmap_traits@KKU?$less@K@std@@V?$allocator@U?$pair@$$CBKK@std@@@2@$0A@@std@@@std@@@std@@QAEXPAU_Node@?$_Tree_nod@V?$_Tmap_traits@KKU?$less@K@std@@V?$allocator@U?$pair@$$CBKK@std@@@2@$0A@@std@@@2@I@Z PROC NEAR ; std::allocator<std::_Tree_nod<std::_Tmap_traits<unsigned long,unsigned long,std::less<unsigned long>,std::allocator<std::pair<unsigned long const ,unsigned long> >,0> >::_Node>::deallocate, COMDAT
; _this$ = ecx

; 132  : 		operator delete(_Ptr);

  00000	8b 44 24 04	 mov	 eax, DWORD PTR __Ptr$[esp-4]
  00004	50		 push	 eax
  00005	e8 00 00 00 00	 call	 ??3@YAXPAX@Z		; operator delete
  0000a	59		 pop	 ecx

; 133  : 		}

  0000b	c2 08 00	 ret	 8
?deallocate@?$allocator@U_Node@?$_Tree_nod@V?$_Tmap_traits@KKU?$less@K@std@@V?$allocator@U?$pair@$$CBKK@std@@@2@$0A@@std@@@std@@@std@@QAEXPAU_Node@?$_Tree_nod@V?$_Tmap_traits@KKU?$less@K@std@@V?$allocator@U?$pair@$$CBKK@std@@@2@$0A@@std@@@2@I@Z ENDP ; std::allocator<std::_Tree_nod<std::_Tmap_traits<unsigned long,unsigned long,std::less<unsigned long>,std::allocator<std::pair<unsigned long const ,unsigned long> >,0> >::_Node>::deallocate
_TEXT	ENDS
PUBLIC	?_Mynode@const_iterator@?$_Tree@V?$_Tmap_traits@KKU?$less@K@std@@V?$allocator@U?$pair@$$CBKK@std@@@2@$0A@@std@@@std@@QBEPAU_Node@?$_Tree_nod@V?$_Tmap_traits@KKU?$less@K@std@@V?$allocator@U?$pair@$$CBKK@std@@@2@$0A@@std@@@3@XZ ; std::_Tree<std::_Tmap_traits<unsigned long,unsigned long,std::less<unsigned long>,std::allocator<std::pair<unsigned long const ,unsigned long> >,0> >::const_iterator::_Mynode
; Function compile flags: /Ogty
; File c:\program files\microsoft visual studio .net 2003\vc7\include\xtree
;	COMDAT ?_Mynode@const_iterator@?$_Tree@V?$_Tmap_traits@KKU?$less@K@std@@V?$allocator@U?$pair@$$CBKK@std@@@2@$0A@@std@@@std@@QBEPAU_Node@?$_Tree_nod@V?$_Tmap_traits@KKU?$less@K@std@@V?$allocator@U?$pair@$$CBKK@std@@@2@$0A@@std@@@3@XZ
_TEXT	SEGMENT
?_Mynode@const_iterator@?$_Tree@V?$_Tmap_traits@KKU?$less@K@std@@V?$allocator@U?$pair@$$CBKK@std@@@2@$0A@@std@@@std@@QBEPAU_Node@?$_Tree_nod@V?$_Tmap_traits@KKU?$less@K@std@@V?$allocator@U?$pair@$$CBKK@std@@@2@$0A@@std@@@3@XZ PROC NEAR ; std::_Tree<std::_Tmap_traits<unsigned long,unsigned long,std::less<unsigned long>,std::allocator<std::pair<unsigned long const ,unsigned long> >,0> >::const_iterator::_Mynode, COMDAT
; _this$ = ecx

; 284  : 			return (_Ptr);

  00000	8b 01		 mov	 eax, DWORD PTR [ecx]

; 285  : 			}

  00002	c3		 ret	 0
?_Mynode@const_iterator@?$_Tree@V?$_Tmap_traits@KKU?$less@K@std@@V?$allocator@U?$pair@$$CBKK@std@@@2@$0A@@std@@@std@@QBEPAU_Node@?$_Tree_nod@V?$_Tmap_traits@KKU?$less@K@std@@V?$allocator@U?$pair@$$CBKK@std@@@2@$0A@@std@@@3@XZ ENDP ; std::_Tree<std::_Tmap_traits<unsigned long,unsigned long,std::less<unsigned long>,std::allocator<std::pair<unsigned long const ,unsigned long> >,0> >::const_iterator::_Mynode
_TEXT	ENDS
PUBLIC	?_Root@?$_Tree@V?$_Tmap_traits@KKU?$less@K@std@@V?$allocator@U?$pair@$$CBKK@std@@@2@$0A@@std@@@std@@IBEAAPAU_Node@?$_Tree_nod@V?$_Tmap_traits@KKU?$less@K@std@@V?$allocator@U?$pair@$$CBKK@std@@@2@$0A@@std@@@2@XZ ; std::_Tree<std::_Tmap_traits<unsigned long,unsigned long,std::less<unsigned long>,std::allocator<std::pair<unsigned long const ,unsigned long> >,0> >::_Root
; Function compile flags: /Ogty
;	COMDAT ?_Root@?$_Tree@V?$_Tmap_traits@KKU?$less@K@std@@V?$allocator@U?$pair@$$CBKK@std@@@2@$0A@@std@@@std@@IBEAAPAU_Node@?$_Tree_nod@V?$_Tmap_traits@KKU?$less@K@std@@V?$allocator@U?$pair@$$CBKK@std@@@2@$0A@@std@@@2@XZ
_TEXT	SEGMENT
?_Root@?$_Tree@V?$_Tmap_traits@KKU?$less@K@std@@V?$allocator@U?$pair@$$CBKK@std@@@2@$0A@@std@@@std@@IBEAAPAU_Node@?$_Tree_nod@V?$_Tmap_traits@KKU?$less@K@std@@V?$allocator@U?$pair@$$CBKK@std@@@2@$0A@@std@@@2@XZ PROC NEAR ; std::_Tree<std::_Tmap_traits<unsigned long,unsigned long,std::less<unsigned long>,std::allocator<std::pair<unsigned long const ,unsigned long> >,0> >::_Root, COMDAT
; _this$ = ecx

; 1064 : 		return (_Parent(_Myhead));

  00000	8b 41 04	 mov	 eax, DWORD PTR [ecx+4]
  00003	83 c0 04	 add	 eax, 4

; 1065 : 		}

  00006	c3		 ret	 0
?_Root@?$_Tree@V?$_Tmap_traits@KKU?$less@K@std@@V?$allocator@U?$pair@$$CBKK@std@@@2@$0A@@std@@@std@@IBEAAPAU_Node@?$_Tree_nod@V?$_Tmap_traits@KKU?$less@K@std@@V?$allocator@U?$pair@$$CBKK@std@@@2@$0A@@std@@@2@XZ ENDP ; std::_Tree<std::_Tmap_traits<unsigned long,unsigned long,std::less<unsigned long>,std::allocator<std::pair<unsigned long const ,unsigned long> >,0> >::_Root
_TEXT	ENDS
PUBLIC	??0const_iterator@?$_Tree@V?$_Tmap_traits@KKU?$less@K@std@@V?$allocator@U?$pair@$$CBKK@std@@@2@$0A@@std@@@std@@QAE@PAU_Node@?$_Tree_nod@V?$_Tmap_traits@KKU?$less@K@std@@V?$allocator@U?$pair@$$CBKK@std@@@2@$0A@@std@@@2@@Z ; std::_Tree<std::_Tmap_traits<unsigned long,unsigned long,std::less<unsigned long>,std::allocator<std::pair<unsigned long const ,unsigned long> >,0> >::const_iterator::const_iterator
; Function compile flags: /Ogty
;	COMDAT ??0const_iterator@?$_Tree@V?$_Tmap_traits@KKU?$less@K@std@@V?$allocator@U?$pair@$$CBKK@std@@@2@$0A@@std@@@std@@QAE@PAU_Node@?$_Tree_nod@V?$_Tmap_traits@KKU?$less@K@std@@V?$allocator@U?$pair@$$CBKK@std@@@2@$0A@@std@@@2@@Z
_TEXT	SEGMENT
__Pnode$ = 8						; size = 4
??0const_iterator@?$_Tree@V?$_Tmap_traits@KKU?$less@K@std@@V?$allocator@U?$pair@$$CBKK@std@@@2@$0A@@std@@@std@@QAE@PAU_Node@?$_Tree_nod@V?$_Tmap_traits@KKU?$less@K@std@@V?$allocator@U?$pair@$$CBKK@std@@@2@$0A@@std@@@2@@Z PROC NEAR ; std::_Tree<std::_Tmap_traits<unsigned long,unsigned long,std::less<unsigned long>,std::allocator<std::pair<unsigned long const ,unsigned long> >,0> >::const_iterator::const_iterator, COMDAT
; _this$ = ecx

; 200  : 			{	// construct with node pointer _Pnode

  00000	8b c1		 mov	 eax, ecx
  00002	8b 4c 24 04	 mov	 ecx, DWORD PTR __Pnode$[esp-4]
  00006	89 08		 mov	 DWORD PTR [eax], ecx

; 201  : 			}

  00008	c2 04 00	 ret	 4
??0const_iterator@?$_Tree@V?$_Tmap_traits@KKU?$less@K@std@@V?$allocator@U?$pair@$$CBKK@std@@@2@$0A@@std@@@std@@QAE@PAU_Node@?$_Tree_nod@V?$_Tmap_traits@KKU?$less@K@std@@V?$allocator@U?$pair@$$CBKK@std@@@2@$0A@@std@@@2@@Z ENDP ; std::_Tree<std::_Tmap_traits<unsigned long,unsigned long,std::less<unsigned long>,std::allocator<std::pair<unsigned long const ,unsigned long> >,0> >::const_iterator::const_iterator
_TEXT	ENDS
PUBLIC	?_Myval@?$_Tree@V?$_Tmap_traits@KKU?$less@K@std@@V?$allocator@U?$pair@$$CBKK@std@@@2@$0A@@std@@@std@@KAAAU?$pair@$$CBKK@2@PAU_Node@?$_Tree_nod@V?$_Tmap_traits@KKU?$less@K@std@@V?$allocator@U?$pair@$$CBKK@std@@@2@$0A@@std@@@2@@Z ; std::_Tree<std::_Tmap_traits<unsigned long,unsigned long,std::less<unsigned long>,std::allocator<std::pair<unsigned long const ,unsigned long> >,0> >::_Myval
; Function compile flags: /Ogty
;	COMDAT ?_Myval@?$_Tree@V?$_Tmap_traits@KKU?$less@K@std@@V?$allocator@U?$pair@$$CBKK@std@@@2@$0A@@std@@@std@@KAAAU?$pair@$$CBKK@2@PAU_Node@?$_Tree_nod@V?$_Tmap_traits@KKU?$less@K@std@@V?$allocator@U?$pair@$$CBKK@std@@@2@$0A@@std@@@2@@Z
_TEXT	SEGMENT
__Pnode$ = 8						; size = 4
?_Myval@?$_Tree@V?$_Tmap_traits@KKU?$less@K@std@@V?$allocator@U?$pair@$$CBKK@std@@@2@$0A@@std@@@std@@KAAAU?$pair@$$CBKK@2@PAU_Node@?$_Tree_nod@V?$_Tmap_traits@KKU?$less@K@std@@V?$allocator@U?$pair@$$CBKK@std@@@2@$0A@@std@@@2@@Z PROC NEAR ; std::_Tree<std::_Tmap_traits<unsigned long,unsigned long,std::less<unsigned long>,std::allocator<std::pair<unsigned long const ,unsigned long> >,0> >::_Myval, COMDAT

; 162  : 		return ((_Vref)(*_Pnode)._Myval);

  00000	8b 44 24 04	 mov	 eax, DWORD PTR __Pnode$[esp-4]
  00004	83 c0 0c	 add	 eax, 12			; 0000000cH

; 163  : 		}

  00007	c3		 ret	 0
?_Myval@?$_Tree@V?$_Tmap_traits@KKU?$less@K@std@@V?$allocator@U?$pair@$$CBKK@std@@@2@$0A@@std@@@std@@KAAAU?$pair@$$CBKK@2@PAU_Node@?$_Tree_nod@V?$_Tmap_traits@KKU?$less@K@std@@V?$allocator@U?$pair@$$CBKK@std@@@2@$0A@@std@@@2@@Z ENDP ; std::_Tree<std::_Tmap_traits<unsigned long,unsigned long,std::less<unsigned long>,std::allocator<std::pair<unsigned long const ,unsigned long> >,0> >::_Myval
_TEXT	ENDS
PUBLIC	?_Kfn@?$_Tmap_traits@KKU?$less@K@std@@V?$allocator@U?$pair@$$CBKK@std@@@2@$0A@@std@@SAABKABU?$pair@$$CBKK@2@@Z ; std::_Tmap_traits<unsigned long,unsigned long,std::less<unsigned long>,std::allocator<std::pair<unsigned long const ,unsigned long> >,0>::_Kfn
; Function compile flags: /Ogty
; File c:\program files\microsoft visual studio .net 2003\vc7\include\map
;	COMDAT ?_Kfn@?$_Tmap_traits@KKU?$less@K@std@@V?$allocator@U?$pair@$$CBKK@std@@@2@$0A@@std@@SAABKABU?$pair@$$CBKK@2@@Z
_TEXT	SEGMENT
__Val$ = 8						; size = 4
?_Kfn@?$_Tmap_traits@KKU?$less@K@std@@V?$allocator@U?$pair@$$CBKK@std@@@2@$0A@@std@@SAABKABU?$pair@$$CBKK@2@@Z PROC NEAR ; std::_Tmap_traits<unsigned long,unsigned long,std::less<unsigned long>,std::allocator<std::pair<unsigned long const ,unsigned long> >,0>::_Kfn, COMDAT

; 64   : 		return (_Val.first);

  00000	8b 44 24 04	 mov	 eax, DWORD PTR __Val$[esp-4]

; 65   : 		}

  00004	c3		 ret	 0
?_Kfn@?$_Tmap_traits@KKU?$less@K@std@@V?$allocator@U?$pair@$$CBKK@std@@@2@$0A@@std@@SAABKABU?$pair@$$CBKK@2@@Z ENDP ; std::_Tmap_traits<unsigned long,unsigned long,std::less<unsigned long>,std::allocator<std::pair<unsigned long const ,unsigned long> >,0>::_Kfn
_TEXT	ENDS
PUBLIC	?_Inc@const_iterator@?$_Tree@V?$_Tmap_traits@KKU?$less@K@std@@V?$allocator@U?$pair@$$CBKK@std@@@2@$0A@@std@@@std@@QAEXXZ ; std::_Tree<std::_Tmap_traits<unsigned long,unsigned long,std::less<unsigned long>,std::allocator<std::pair<unsigned long const ,unsigned long> >,0> >::const_iterator::_Inc
; Function compile flags: /Ogty
; File c:\program files\microsoft visual studio .net 2003\vc7\include\xtree
;	COMDAT ?_Inc@const_iterator@?$_Tree@V?$_Tmap_traits@KKU?$less@K@std@@V?$allocator@U?$pair@$$CBKK@std@@@2@$0A@@std@@@std@@QAEXXZ
_TEXT	SEGMENT
?_Inc@const_iterator@?$_Tree@V?$_Tmap_traits@KKU?$less@K@std@@V?$allocator@U?$pair@$$CBKK@std@@@2@$0A@@std@@@std@@QAEXXZ PROC NEAR ; std::_Tree<std::_Tmap_traits<unsigned long,unsigned long,std::less<unsigned long>,std::allocator<std::pair<unsigned long const ,unsigned long> >,0> >::const_iterator::_Inc, COMDAT
; _this$ = ecx

; 268  : 			if (_Isnil(_Ptr))

  00000	8b 01		 mov	 eax, DWORD PTR [ecx]
  00002	8a 50 15	 mov	 dl, BYTE PTR [eax+21]
  00005	84 d2		 test	 dl, dl
  00007	75 4d		 jne	 SHORT $L204267

; 269  : 				;	// end() shouldn't be incremented, don't move
; 270  : 			else if (!_Isnil(_Right(_Ptr)))

  00009	8b 50 08	 mov	 edx, DWORD PTR [eax+8]
  0000c	53		 push	 ebx
  0000d	8a 5a 15	 mov	 bl, BYTE PTR [edx+21]
  00010	84 db		 test	 bl, bl
  00012	75 1b		 jne	 SHORT $L205289

; 271  : 				_Ptr = _Min(_Right(_Ptr));	// ==> smallest of right subtree

  00014	8b 02		 mov	 eax, DWORD PTR [edx]
  00016	8a 58 15	 mov	 bl, BYTE PTR [eax+21]
  00019	84 db		 test	 bl, bl
  0001b	75 0e		 jne	 SHORT $L205270
  0001d	8d 49 00	 npad	 3
$L205269:
  00020	8b d0		 mov	 edx, eax
  00022	8b 02		 mov	 eax, DWORD PTR [edx]
  00024	8a 58 15	 mov	 bl, BYTE PTR [eax+21]
  00027	84 db		 test	 bl, bl
  00029	74 f5		 je	 SHORT $L205269
$L205270:
  0002b	89 11		 mov	 DWORD PTR [ecx], edx
  0002d	5b		 pop	 ebx

; 279  : 				}
; 280  : 			}

  0002e	c3		 ret	 0
$L205289:

; 272  : 			else
; 273  : 				{	// climb looking for right subtree
; 274  : 				_Nodeptr _Pnode;
; 275  : 				while (!_Isnil(_Pnode = _Parent(_Ptr))
; 276  : 					&& _Ptr == _Right(_Pnode))

  0002f	8b 40 04	 mov	 eax, DWORD PTR [eax+4]
  00032	8a 50 15	 mov	 dl, BYTE PTR [eax+21]
  00035	84 d2		 test	 dl, dl
  00037	75 1a		 jne	 SHORT $L204271
  00039	8d a4 24 00 00
	00 00		 npad	 7
$L204270:
  00040	8b 11		 mov	 edx, DWORD PTR [ecx]
  00042	3b 50 08	 cmp	 edx, DWORD PTR [eax+8]
  00045	75 0c		 jne	 SHORT $L204271

; 277  : 					_Ptr = _Pnode;	// ==> parent while right subtree

  00047	89 01		 mov	 DWORD PTR [ecx], eax
  00049	8b 40 04	 mov	 eax, DWORD PTR [eax+4]
  0004c	8a 50 15	 mov	 dl, BYTE PTR [eax+21]
  0004f	84 d2		 test	 dl, dl
  00051	74 ed		 je	 SHORT $L204270
$L204271:

; 278  : 				_Ptr = _Pnode;	// ==> parent (head if end())

  00053	89 01		 mov	 DWORD PTR [ecx], eax
  00055	5b		 pop	 ebx
$L204267:

; 279  : 				}
; 280  : 			}

  00056	c3		 ret	 0
?_Inc@const_iterator@?$_Tree@V?$_Tmap_traits@KKU?$less@K@std@@V?$allocator@U?$pair@$$CBKK@std@@@2@$0A@@std@@@std@@QAEXXZ ENDP ; std::_Tree<std::_Tmap_traits<unsigned long,unsigned long,std::less<unsigned long>,std::allocator<std::pair<unsigned long const ,unsigned long> >,0> >::const_iterator::_Inc
_TEXT	ENDS
PUBLIC	??$_Destroy_range@KV?$allocator@K@std@@@std@@YAXPAK0AAV?$allocator@K@0@U_Scalar_ptr_iterator_tag@0@@Z ; std::_Destroy_range<unsigned long,std::allocator<unsigned long> >
; Function compile flags: /Ogty
; File c:\program files\microsoft visual studio .net 2003\vc7\include\xmemory
;	COMDAT ??$_Destroy_range@KV?$allocator@K@std@@@std@@YAXPAK0AAV?$allocator@K@0@U_Scalar_ptr_iterator_tag@0@@Z
_TEXT	SEGMENT
__First$ = 8						; size = 4
__Last$ = 12						; size = 4
__Al$ = 16						; size = 4
___formal$ = 20						; size = 1
??$_Destroy_range@KV?$allocator@K@std@@@std@@YAXPAK0AAV?$allocator@K@0@U_Scalar_ptr_iterator_tag@0@@Z PROC NEAR ; std::_Destroy_range<unsigned long,std::allocator<unsigned long> >, COMDAT

; 234  : 	}

  00000	c3		 ret	 0
??$_Destroy_range@KV?$allocator@K@std@@@std@@YAXPAK0AAV?$allocator@K@0@U_Scalar_ptr_iterator_tag@0@@Z ENDP ; std::_Destroy_range<unsigned long,std::allocator<unsigned long> >
_TEXT	ENDS
PUBLIC	??$_Destroy@U_Node@?$_Tree_nod@V?$_Tmap_traits@KKU?$less@K@std@@V?$allocator@U?$pair@$$CBKK@std@@@2@$0A@@std@@@std@@@std@@YAXPAU_Node@?$_Tree_nod@V?$_Tmap_traits@KKU?$less@K@std@@V?$allocator@U?$pair@$$CBKK@std@@@2@$0A@@std@@@0@@Z ; std::_Destroy<std::_Tree_nod<std::_Tmap_traits<unsigned long,unsigned long,std::less<unsigned long>,std::allocator<std::pair<unsigned long const ,unsigned long> >,0> >::_Node>
; Function compile flags: /Ogty
;	COMDAT ??$_Destroy@U_Node@?$_Tree_nod@V?$_Tmap_traits@KKU?$less@K@std@@V?$allocator@U?$pair@$$CBKK@std@@@2@$0A@@std@@@std@@@std@@YAXPAU_Node@?$_Tree_nod@V?$_Tmap_traits@KKU?$less@K@std@@V?$allocator@U?$pair@$$CBKK@std@@@2@$0A@@std@@@0@@Z
_TEXT	SEGMENT
__Ptr$ = 8						; size = 4
??$_Destroy@U_Node@?$_Tree_nod@V?$_Tmap_traits@KKU?$less@K@std@@V?$allocator@U?$pair@$$CBKK@std@@@2@$0A@@std@@@std@@@std@@YAXPAU_Node@?$_Tree_nod@V?$_Tmap_traits@KKU?$less@K@std@@V?$allocator@U?$pair@$$CBKK@std@@@2@$0A@@std@@@0@@Z PROC NEAR ; std::_Destroy<std::_Tree_nod<std::_Tmap_traits<unsigned long,unsigned long,std::less<unsigned long>,std::allocator<std::pair<unsigned long const ,unsigned long> >,0> >::_Node>, COMDAT

; 49   : 	_DESTRUCTOR(_Ty, _Ptr);
; 50   : 	}

  00000	c3		 ret	 0
??$_Destroy@U_Node@?$_Tree_nod@V?$_Tmap_traits@KKU?$less@K@std@@V?$allocator@U?$pair@$$CBKK@std@@@2@$0A@@std@@@std@@@std@@YAXPAU_Node@?$_Tree_nod@V?$_Tmap_traits@KKU?$less@K@std@@V?$allocator@U?$pair@$$CBKK@std@@@2@$0A@@std@@@0@@Z ENDP ; std::_Destroy<std::_Tree_nod<std::_Tmap_traits<unsigned long,unsigned long,std::less<unsigned long>,std::allocator<std::pair<unsigned long const ,unsigned long> >,0> >::_Node>
_TEXT	ENDS
PUBLIC	??$_Iter_cat@Viterator@?$_Tree@V?$_Tmap_traits@KKU?$less@K@std@@V?$allocator@U?$pair@$$CBKK@std@@@2@$0A@@std@@@std@@@std@@YA?AUbidirectional_iterator_tag@0@ABViterator@?$_Tree@V?$_Tmap_traits@KKU?$less@K@std@@V?$allocator@U?$pair@$$CBKK@std@@@2@$0A@@std@@@0@@Z ; std::_Iter_cat<std::_Tree<std::_Tmap_traits<unsigned long,unsigned long,std::less<unsigned long>,std::allocator<std::pair<unsigned long const ,unsigned long> >,0> >::iterator>
; Function compile flags: /Ogty
; File c:\program files\microsoft visual studio .net 2003\vc7\include\xutility
;	COMDAT ??$_Iter_cat@Viterator@?$_Tree@V?$_Tmap_traits@KKU?$less@K@std@@V?$allocator@U?$pair@$$CBKK@std@@@2@$0A@@std@@@std@@@std@@YA?AUbidirectional_iterator_tag@0@ABViterator@?$_Tree@V?$_Tmap_traits@KKU?$less@K@std@@V?$allocator@U?$pair@$$CBKK@std@@@2@$0A@@std@@@0@@Z
_TEXT	SEGMENT
___$ReturnUdt$ = 8					; size = 4
___formal$ = 12						; size = 4
??$_Iter_cat@Viterator@?$_Tree@V?$_Tmap_traits@KKU?$less@K@std@@V?$allocator@U?$pair@$$CBKK@std@@@2@$0A@@std@@@std@@@std@@YA?AUbidirectional_iterator_tag@0@ABViterator@?$_Tree@V?$_Tmap_traits@KKU?$less@K@std@@V?$allocator@U?$pair@$$CBKK@std@@@2@$0A@@std@@@0@@Z PROC NEAR ; std::_Iter_cat<std::_Tree<std::_Tmap_traits<unsigned long,unsigned long,std::less<unsigned long>,std::allocator<std::pair<unsigned long const ,unsigned long> >,0> >::iterator>, COMDAT

; 202  : 	typename iterator_traits<_Iter>::iterator_category _Cat;
; 203  : 	return (_Cat);

  00000	8b 44 24 04	 mov	 eax, DWORD PTR ___$ReturnUdt$[esp-4]

; 204  : 	}

  00004	c3		 ret	 0
??$_Iter_cat@Viterator@?$_Tree@V?$_Tmap_traits@KKU?$less@K@std@@V?$allocator@U?$pair@$$CBKK@std@@@2@$0A@@std@@@std@@@std@@YA?AUbidirectional_iterator_tag@0@ABViterator@?$_Tree@V?$_Tmap_traits@KKU?$less@K@std@@V?$allocator@U?$pair@$$CBKK@std@@@2@$0A@@std@@@0@@Z ENDP ; std::_Iter_cat<std::_Tree<std::_Tmap_traits<unsigned long,unsigned long,std::less<unsigned long>,std::allocator<std::pair<unsigned long const ,unsigned long> >,0> >::iterator>
_TEXT	ENDS
PUBLIC	?assign@?$char_traits@D@std@@SAXAADABD@Z	; std::char_traits<char>::assign
; Function compile flags: /Ogty
; File c:\program files\microsoft visual studio .net 2003\vc7\include\iosfwd
;	COMDAT ?assign@?$char_traits@D@std@@SAXAADABD@Z
_TEXT	SEGMENT
__Left$ = 8						; size = 4
__Right$ = 12						; size = 4
?assign@?$char_traits@D@std@@SAXAADABD@Z PROC NEAR	; std::char_traits<char>::assign, COMDAT

; 331  : 		_Left = _Right;

  00000	8b 44 24 08	 mov	 eax, DWORD PTR __Right$[esp-4]
  00004	8a 08		 mov	 cl, BYTE PTR [eax]
  00006	8b 54 24 04	 mov	 edx, DWORD PTR __Left$[esp-4]
  0000a	88 0a		 mov	 BYTE PTR [edx], cl

; 332  : 		}

  0000c	c3		 ret	 0
?assign@?$char_traits@D@std@@SAXAADABD@Z ENDP		; std::char_traits<char>::assign
_TEXT	ENDS
PUBLIC	?length@?$char_traits@D@std@@SAIPBD@Z		; std::char_traits<char>::length
; Function compile flags: /Ogty
;	COMDAT ?length@?$char_traits@D@std@@SAIPBD@Z
_TEXT	SEGMENT
__First$ = 8						; size = 4
?length@?$char_traits@D@std@@SAIPBD@Z PROC NEAR		; std::char_traits<char>::length, COMDAT

; 352  : 		return (::strlen(_First));

  00000	8b 44 24 04	 mov	 eax, DWORD PTR __First$[esp-4]
  00004	8d 50 01	 lea	 edx, DWORD PTR [eax+1]
$L205303:
  00007	8a 08		 mov	 cl, BYTE PTR [eax]
  00009	40		 inc	 eax
  0000a	84 c9		 test	 cl, cl
  0000c	75 f9		 jne	 SHORT $L205303
  0000e	2b c2		 sub	 eax, edx

; 353  : 		}

  00010	c3		 ret	 0
?length@?$char_traits@D@std@@SAIPBD@Z ENDP		; std::char_traits<char>::length
_TEXT	ENDS
PUBLIC	?copy@?$char_traits@D@std@@SAPADPADPBDI@Z	; std::char_traits<char>::copy
; Function compile flags: /Ogty
;	COMDAT ?copy@?$char_traits@D@std@@SAPADPADPBDI@Z
_TEXT	SEGMENT
__First1$ = 8						; size = 4
__First2$ = 12						; size = 4
__Count$ = 16						; size = 4
?copy@?$char_traits@D@std@@SAPADPADPBDI@Z PROC NEAR	; std::char_traits<char>::copy, COMDAT

; 358  : 		return ((_Elem *)::memcpy(_First1, _First2, _Count));

  00000	8b 4c 24 0c	 mov	 ecx, DWORD PTR __Count$[esp-4]
  00004	56		 push	 esi
  00005	8b 74 24 0c	 mov	 esi, DWORD PTR __First2$[esp]
  00009	57		 push	 edi
  0000a	8b 7c 24 0c	 mov	 edi, DWORD PTR __First1$[esp+4]
  0000e	8b c1		 mov	 eax, ecx
  00010	8b d7		 mov	 edx, edi
  00012	c1 e9 02	 shr	 ecx, 2
  00015	f3 a5		 rep movsd
  00017	8b c8		 mov	 ecx, eax
  00019	83 e1 03	 and	 ecx, 3
  0001c	f3 a4		 rep movsb
  0001e	5f		 pop	 edi
  0001f	8b c2		 mov	 eax, edx
  00021	5e		 pop	 esi

; 359  : 		}

  00022	c3		 ret	 0
?copy@?$char_traits@D@std@@SAPADPADPBDI@Z ENDP		; std::char_traits<char>::copy
_TEXT	ENDS
PUBLIC	?move@?$char_traits@D@std@@SAPADPADPBDI@Z	; std::char_traits<char>::move
EXTRN	_memmove:NEAR
; Function compile flags: /Ogty
;	COMDAT ?move@?$char_traits@D@std@@SAPADPADPBDI@Z
_TEXT	SEGMENT
__First1$ = 8						; size = 4
__First2$ = 12						; size = 4
__Count$ = 16						; size = 4
?move@?$char_traits@D@std@@SAPADPADPBDI@Z PROC NEAR	; std::char_traits<char>::move, COMDAT

; 370  : 		return ((_Elem *)::memmove(_First1, _First2, _Count));

  00000	e9 00 00 00 00	 jmp	 _memmove
?move@?$char_traits@D@std@@SAPADPADPBDI@Z ENDP		; std::char_traits<char>::move
_TEXT	ENDS
PUBLIC	?_Ptr_cat@std@@YA?AU_Scalar_ptr_iterator_tag@1@PAK0@Z ; std::_Ptr_cat
; Function compile flags: /Ogty
; File c:\program files\microsoft visual studio .net 2003\vc7\include\xutility
;	COMDAT ?_Ptr_cat@std@@YA?AU_Scalar_ptr_iterator_tag@1@PAK0@Z
_TEXT	SEGMENT
__Cat$ = -1						; size = 1
___formal$ = 8						; size = 4
___formal$ = 12						; size = 4
?_Ptr_cat@std@@YA?AU_Scalar_ptr_iterator_tag@1@PAK0@Z PROC NEAR ; std::_Ptr_cat, COMDAT

; 371  : 	{	// return pointer category from pointer to unsigned long arguments

  00000	51		 push	 ecx

; 372  : 	_Scalar_ptr_iterator_tag _Cat;
; 373  : 	return (_Cat);

  00001	8a 44 24 03	 mov	 al, BYTE PTR __Cat$[esp+4]

; 374  : 	}

  00005	59		 pop	 ecx
  00006	c3		 ret	 0
?_Ptr_cat@std@@YA?AU_Scalar_ptr_iterator_tag@1@PAK0@Z ENDP ; std::_Ptr_cat
_TEXT	ENDS
PUBLIC	??5CAr@@QAEAAV0@AAE@Z				; CAr::operator>>
; Function compile flags: /Ogty
; File c:\documents and settings\test\mes documents\source\virtuos_v17\build\program\_network\misc\include\ar.h
;	COMDAT ??5CAr@@QAEAAV0@AAE@Z
_TEXT	SEGMENT
_by$ = 8						; size = 4
??5CAr@@QAEAAV0@AAE@Z PROC NEAR				; CAr::operator>>, COMDAT
; _this$ = ecx

; 142  : 	{	CAR_SAFE_READ( BYTE, by );	}

  00000	8b c1		 mov	 eax, ecx
  00002	8b 48 08	 mov	 ecx, DWORD PTR [eax+8]
  00005	56		 push	 esi
  00006	8b 70 0c	 mov	 esi, DWORD PTR [eax+12]
  00009	8d 51 01	 lea	 edx, DWORD PTR [ecx+1]
  0000c	3b d6		 cmp	 edx, esi
  0000e	5e		 pop	 esi
  0000f	77 0e		 ja	 SHORT $L162848
  00011	8a 09		 mov	 cl, BYTE PTR [ecx]
  00013	8b 54 24 04	 mov	 edx, DWORD PTR _by$[esp-4]
  00017	88 0a		 mov	 BYTE PTR [edx], cl
  00019	ff 40 08	 inc	 DWORD PTR [eax+8]
  0001c	c2 04 00	 ret	 4
$L162848:
  0001f	8b 4c 24 04	 mov	 ecx, DWORD PTR _by$[esp-4]
  00023	c6 01 00	 mov	 BYTE PTR [ecx], 0
  00026	8b 50 0c	 mov	 edx, DWORD PTR [eax+12]
  00029	89 50 08	 mov	 DWORD PTR [eax+8], edx
  0002c	c2 04 00	 ret	 4
??5CAr@@QAEAAV0@AAE@Z ENDP				; CAr::operator>>
_TEXT	ENDS
PUBLIC	??5CAr@@QAEAAV0@AAK@Z				; CAr::operator>>
; Function compile flags: /Ogty
;	COMDAT ??5CAr@@QAEAAV0@AAK@Z
_TEXT	SEGMENT
_dw$ = 8						; size = 4
??5CAr@@QAEAAV0@AAK@Z PROC NEAR				; CAr::operator>>, COMDAT
; _this$ = ecx

; 146  : 	{	CAR_SAFE_READ( DWORD, dw );	}

  00000	8b c1		 mov	 eax, ecx
  00002	8b 48 08	 mov	 ecx, DWORD PTR [eax+8]
  00005	56		 push	 esi
  00006	8b 70 0c	 mov	 esi, DWORD PTR [eax+12]
  00009	8d 51 04	 lea	 edx, DWORD PTR [ecx+4]
  0000c	3b d6		 cmp	 edx, esi
  0000e	5e		 pop	 esi
  0000f	77 0f		 ja	 SHORT $L162868
  00011	8b 09		 mov	 ecx, DWORD PTR [ecx]
  00013	8b 54 24 04	 mov	 edx, DWORD PTR _dw$[esp-4]
  00017	89 0a		 mov	 DWORD PTR [edx], ecx
  00019	83 40 08 04	 add	 DWORD PTR [eax+8], 4
  0001d	c2 04 00	 ret	 4
$L162868:
  00020	8b 4c 24 04	 mov	 ecx, DWORD PTR _dw$[esp-4]
  00024	c7 01 00 00 00
	00		 mov	 DWORD PTR [ecx], 0
  0002a	8b 50 0c	 mov	 edx, DWORD PTR [eax+12]
  0002d	89 50 08	 mov	 DWORD PTR [eax+8], edx
  00030	c2 04 00	 ret	 4
??5CAr@@QAEAAV0@AAK@Z ENDP				; CAr::operator>>
_TEXT	ENDS
PUBLIC	??5CAr@@QAEAAV0@AAJ@Z				; CAr::operator>>
; Function compile flags: /Ogty
;	COMDAT ??5CAr@@QAEAAV0@AAJ@Z
_TEXT	SEGMENT
_l$ = 8							; size = 4
??5CAr@@QAEAAV0@AAJ@Z PROC NEAR				; CAr::operator>>, COMDAT
; _this$ = ecx

; 152  : 	{	CAR_SAFE_READ( LONG, l );	}

  00000	8b c1		 mov	 eax, ecx
  00002	8b 48 08	 mov	 ecx, DWORD PTR [eax+8]
  00005	56		 push	 esi
  00006	8b 70 0c	 mov	 esi, DWORD PTR [eax+12]
  00009	8d 51 04	 lea	 edx, DWORD PTR [ecx+4]
  0000c	3b d6		 cmp	 edx, esi
  0000e	5e		 pop	 esi
  0000f	77 0f		 ja	 SHORT $L162898
  00011	8b 09		 mov	 ecx, DWORD PTR [ecx]
  00013	8b 54 24 04	 mov	 edx, DWORD PTR _l$[esp-4]
  00017	89 0a		 mov	 DWORD PTR [edx], ecx
  00019	83 40 08 04	 add	 DWORD PTR [eax+8], 4
  0001d	c2 04 00	 ret	 4
$L162898:
  00020	8b 4c 24 04	 mov	 ecx, DWORD PTR _l$[esp-4]
  00024	c7 01 00 00 00
	00		 mov	 DWORD PTR [ecx], 0
  0002a	8b 50 0c	 mov	 edx, DWORD PTR [eax+12]
  0002d	89 50 08	 mov	 DWORD PTR [eax+8], edx
  00030	c2 04 00	 ret	 4
??5CAr@@QAEAAV0@AAJ@Z ENDP				; CAr::operator>>
_TEXT	ENDS
PUBLIC	?size@?$basic_string@DU?$char_traits@D@std@@V?$allocator@D@2@@std@@QBEIXZ ; std::basic_string<char,std::char_traits<char>,std::allocator<char> >::size
; Function compile flags: /Ogty
; File c:\program files\microsoft visual studio .net 2003\vc7\include\xstring
;	COMDAT ?size@?$basic_string@DU?$char_traits@D@std@@V?$allocator@D@2@@std@@QBEIXZ
_TEXT	SEGMENT
?size@?$basic_string@DU?$char_traits@D@std@@V?$allocator@D@2@@std@@QBEIXZ PROC NEAR ; std::basic_string<char,std::char_traits<char>,std::allocator<char> >::size, COMDAT
; _this$ = ecx

; 1109 : 		return (_Mysize);

  00000	8b 41 14	 mov	 eax, DWORD PTR [ecx+20]

; 1110 : 		}

  00003	c3		 ret	 0
?size@?$basic_string@DU?$char_traits@D@std@@V?$allocator@D@2@@std@@QBEIXZ ENDP ; std::basic_string<char,std::char_traits<char>,std::allocator<char> >::size
_TEXT	ENDS
PUBLIC	?_Myptr@?$basic_string@DU?$char_traits@D@std@@V?$allocator@D@2@@std@@QBEPBDXZ ; std::basic_string<char,std::char_traits<char>,std::allocator<char> >::_Myptr
; Function compile flags: /Ogty
;	COMDAT ?_Myptr@?$basic_string@DU?$char_traits@D@std@@V?$allocator@D@2@@std@@QBEPBDXZ
_TEXT	SEGMENT
?_Myptr@?$basic_string@DU?$char_traits@D@std@@V?$allocator@D@2@@std@@QBEPBDXZ PROC NEAR ; std::basic_string<char,std::char_traits<char>,std::allocator<char> >::_Myptr, COMDAT
; _this$ = ecx

; 1537 : 		return (_BUF_SIZE <= _Myres ? _Bx._Ptr : _Bx._Buf);

  00000	83 79 18 10	 cmp	 DWORD PTR [ecx+24], 16	; 00000010H
  00004	72 04		 jb	 SHORT $L205321
  00006	8b 41 04	 mov	 eax, DWORD PTR [ecx+4]

; 1538 : 		}

  00009	c3		 ret	 0
$L205321:

; 1537 : 		return (_BUF_SIZE <= _Myres ? _Bx._Ptr : _Bx._Buf);

  0000a	8d 41 04	 lea	 eax, DWORD PTR [ecx+4]

; 1538 : 		}

  0000d	c3		 ret	 0
?_Myptr@?$basic_string@DU?$char_traits@D@std@@V?$allocator@D@2@@std@@QBEPBDXZ ENDP ; std::basic_string<char,std::char_traits<char>,std::allocator<char> >::_Myptr
_TEXT	ENDS
PUBLIC	??0?$allocator@D@std@@QAE@XZ			; std::allocator<char>::allocator<char>
; Function compile flags: /Ogty
; File c:\program files\microsoft visual studio .net 2003\vc7\include\xmemory
;	COMDAT ??0?$allocator@D@std@@QAE@XZ
_TEXT	SEGMENT
??0?$allocator@D@std@@QAE@XZ PROC NEAR			; std::allocator<char>::allocator<char>, COMDAT
; _this$ = ecx

; 111  : 	allocator()

  00000	8b c1		 mov	 eax, ecx

; 112  : 		{	// construct default allocator (do nothing)
; 113  : 		}

  00002	c3		 ret	 0
??0?$allocator@D@std@@QAE@XZ ENDP			; std::allocator<char>::allocator<char>
_TEXT	ENDS
PUBLIC	??0?$allocator@D@std@@QAE@ABV01@@Z		; std::allocator<char>::allocator<char>
; Function compile flags: /Ogty
;	COMDAT ??0?$allocator@D@std@@QAE@ABV01@@Z
_TEXT	SEGMENT
___formal$ = 8						; size = 4
??0?$allocator@D@std@@QAE@ABV01@@Z PROC NEAR		; std::allocator<char>::allocator<char>, COMDAT
; _this$ = ecx

; 115  : 	allocator(const allocator<_Ty>&)

  00000	8b c1		 mov	 eax, ecx

; 116  : 		{	// construct by copying (do nothing)
; 117  : 		}

  00002	c2 04 00	 ret	 4
??0?$allocator@D@std@@QAE@ABV01@@Z ENDP			; std::allocator<char>::allocator<char>
_TEXT	ENDS
PUBLIC	??R?$less@K@std@@QBE_NABK0@Z			; std::less<unsigned long>::operator()
; Function compile flags: /Ogty
; File c:\program files\microsoft visual studio .net 2003\vc7\include\functional
;	COMDAT ??R?$less@K@std@@QBE_NABK0@Z
_TEXT	SEGMENT
__Left$ = 8						; size = 4
__Right$ = 12						; size = 4
??R?$less@K@std@@QBE_NABK0@Z PROC NEAR			; std::less<unsigned long>::operator(), COMDAT
; _this$ = ecx

; 139  : 		return (_Left < _Right);

  00000	8b 44 24 04	 mov	 eax, DWORD PTR __Left$[esp-4]
  00004	8b 08		 mov	 ecx, DWORD PTR [eax]
  00006	8b 54 24 08	 mov	 edx, DWORD PTR __Right$[esp-4]
  0000a	3b 0a		 cmp	 ecx, DWORD PTR [edx]
  0000c	1b c0		 sbb	 eax, eax
  0000e	f7 d8		 neg	 eax

; 140  : 		}

  00010	c2 08 00	 ret	 8
??R?$less@K@std@@QBE_NABK0@Z ENDP			; std::less<unsigned long>::operator()
_TEXT	ENDS
PUBLIC	?_Myptr@?$basic_string@DU?$char_traits@D@std@@V?$allocator@D@2@@std@@QAEPADXZ ; std::basic_string<char,std::char_traits<char>,std::allocator<char> >::_Myptr
; Function compile flags: /Ogty
; File c:\program files\microsoft visual studio .net 2003\vc7\include\xstring
;	COMDAT ?_Myptr@?$basic_string@DU?$char_traits@D@std@@V?$allocator@D@2@@std@@QAEPADXZ
_TEXT	SEGMENT
?_Myptr@?$basic_string@DU?$char_traits@D@std@@V?$allocator@D@2@@std@@QAEPADXZ PROC NEAR ; std::basic_string<char,std::char_traits<char>,std::allocator<char> >::_Myptr, COMDAT
; _this$ = ecx

; 1532 : 		return (_BUF_SIZE <= _Myres ? _Bx._Ptr : _Bx._Buf);

  00000	83 79 18 10	 cmp	 DWORD PTR [ecx+24], 16	; 00000010H
  00004	72 04		 jb	 SHORT $L205331
  00006	8b 41 04	 mov	 eax, DWORD PTR [ecx+4]

; 1533 : 		}

  00009	c3		 ret	 0
$L205331:

; 1532 : 		return (_BUF_SIZE <= _Myres ? _Bx._Ptr : _Bx._Buf);

  0000a	8d 41 04	 lea	 eax, DWORD PTR [ecx+4]

; 1533 : 		}

  0000d	c3		 ret	 0
?_Myptr@?$basic_string@DU?$char_traits@D@std@@V?$allocator@D@2@@std@@QAEPADXZ ENDP ; std::basic_string<char,std::char_traits<char>,std::allocator<char> >::_Myptr
_TEXT	ENDS
PUBLIC	?deallocate@?$allocator@D@std@@QAEXPADI@Z	; std::allocator<char>::deallocate
; Function compile flags: /Ogty
; File c:\program files\microsoft visual studio .net 2003\vc7\include\xmemory
;	COMDAT ?deallocate@?$allocator@D@std@@QAEXPADI@Z
_TEXT	SEGMENT
__Ptr$ = 8						; size = 4
___formal$ = 12						; size = 4
?deallocate@?$allocator@D@std@@QAEXPADI@Z PROC NEAR	; std::allocator<char>::deallocate, COMDAT
; _this$ = ecx

; 132  : 		operator delete(_Ptr);

  00000	8b 44 24 04	 mov	 eax, DWORD PTR __Ptr$[esp-4]
  00004	50		 push	 eax
  00005	e8 00 00 00 00	 call	 ??3@YAXPAX@Z		; operator delete
  0000a	59		 pop	 ecx

; 133  : 		}

  0000b	c2 08 00	 ret	 8
?deallocate@?$allocator@D@std@@QAEXPADI@Z ENDP		; std::allocator<char>::deallocate
_TEXT	ENDS
PUBLIC	?deallocate@?$allocator@K@std@@QAEXPAKI@Z	; std::allocator<unsigned long>::deallocate
; Function compile flags: /Ogty
;	COMDAT ?deallocate@?$allocator@K@std@@QAEXPAKI@Z
_TEXT	SEGMENT
__Ptr$ = 8						; size = 4
___formal$ = 12						; size = 4
?deallocate@?$allocator@K@std@@QAEXPAKI@Z PROC NEAR	; std::allocator<unsigned long>::deallocate, COMDAT
; _this$ = ecx

; 132  : 		operator delete(_Ptr);

  00000	8b 44 24 04	 mov	 eax, DWORD PTR __Ptr$[esp-4]
  00004	50		 push	 eax
  00005	e8 00 00 00 00	 call	 ??3@YAXPAX@Z		; operator delete
  0000a	59		 pop	 ecx

; 133  : 		}

  0000b	c2 08 00	 ret	 8
?deallocate@?$allocator@K@std@@QAEXPAKI@Z ENDP		; std::allocator<unsigned long>::deallocate
_TEXT	ENDS
PUBLIC	?_Inside@?$basic_string@DU?$char_traits@D@std@@V?$allocator@D@2@@std@@IAE_NPBD@Z ; std::basic_string<char,std::char_traits<char>,std::allocator<char> >::_Inside
; Function compile flags: /Ogty
; File c:\program files\microsoft visual studio .net 2003\vc7\include\xstring
;	COMDAT ?_Inside@?$basic_string@DU?$char_traits@D@std@@V?$allocator@D@2@@std@@IAE_NPBD@Z
_TEXT	SEGMENT
__Ptr$ = 8						; size = 4
?_Inside@?$basic_string@DU?$char_traits@D@std@@V?$allocator@D@2@@std@@IAE_NPBD@Z PROC NEAR ; std::basic_string<char,std::char_traits<char>,std::allocator<char> >::_Inside, COMDAT
; _this$ = ecx

; 1494 : 		{	// test if _Ptr points inside string

  00000	56		 push	 esi

; 1495 : 		if (_Ptr < _Myptr() || _Myptr() + _Mysize <= _Ptr)

  00001	8b 71 18	 mov	 esi, DWORD PTR [ecx+24]
  00004	83 fe 10	 cmp	 esi, 16			; 00000010H
  00007	57		 push	 edi
  00008	8d 41 04	 lea	 eax, DWORD PTR [ecx+4]
  0000b	72 04		 jb	 SHORT $L205343
  0000d	8b 10		 mov	 edx, DWORD PTR [eax]
  0000f	eb 02		 jmp	 SHORT $L205344
$L205343:
  00011	8b d0		 mov	 edx, eax
$L205344:
  00013	8b 7c 24 0c	 mov	 edi, DWORD PTR __Ptr$[esp+4]
  00017	3b fa		 cmp	 edi, edx
  00019	72 17		 jb	 SHORT $L185560
  0001b	83 fe 10	 cmp	 esi, 16			; 00000010H
  0001e	72 02		 jb	 SHORT $L205351
  00020	8b 00		 mov	 eax, DWORD PTR [eax]
$L205351:
  00022	8b 49 14	 mov	 ecx, DWORD PTR [ecx+20]
  00025	03 c8		 add	 ecx, eax
  00027	3b cf		 cmp	 ecx, edi
  00029	76 07		 jbe	 SHORT $L185560
  0002b	5f		 pop	 edi

; 1497 : 		else
; 1498 : 			return (true);

  0002c	b0 01		 mov	 al, 1
  0002e	5e		 pop	 esi

; 1499 : 		}

  0002f	c2 04 00	 ret	 4
$L185560:
  00032	5f		 pop	 edi

; 1496 : 			return (false);	// don't ask

  00033	32 c0		 xor	 al, al
  00035	5e		 pop	 esi

; 1499 : 		}

  00036	c2 04 00	 ret	 4
?_Inside@?$basic_string@DU?$char_traits@D@std@@V?$allocator@D@2@@std@@IAE_NPBD@Z ENDP ; std::basic_string<char,std::char_traits<char>,std::allocator<char> >::_Inside
_TEXT	ENDS
PUBLIC	?max_size@?$allocator@D@std@@QBEIXZ		; std::allocator<char>::max_size
; Function compile flags: /Ogty
; File c:\program files\microsoft visual studio .net 2003\vc7\include\xmemory
;	COMDAT ?max_size@?$allocator@D@std@@QBEIXZ
_TEXT	SEGMENT
?max_size@?$allocator@D@std@@QBEIXZ PROC NEAR		; std::allocator<char>::max_size, COMDAT
; _this$ = ecx

; 157  : 		_SIZT _Count = (_SIZT)(-1) / sizeof (_Ty);
; 158  : 		return (0 < _Count ? _Count : 1);

  00000	83 c8 ff	 or	 eax, -1

; 159  : 		}

  00003	c3		 ret	 0
?max_size@?$allocator@D@std@@QBEIXZ ENDP		; std::allocator<char>::max_size
_TEXT	ENDS
PUBLIC	??$_Destroy_range@KV?$allocator@K@std@@@std@@YAXPAK0AAV?$allocator@K@0@@Z ; std::_Destroy_range<unsigned long,std::allocator<unsigned long> >
; Function compile flags: /Ogty
;	COMDAT ??$_Destroy_range@KV?$allocator@K@std@@@std@@YAXPAK0AAV?$allocator@K@0@@Z
_TEXT	SEGMENT
__First$ = 8						; size = 4
__Last$ = 12						; size = 4
__Al$ = 16						; size = 4
??$_Destroy_range@KV?$allocator@K@std@@@std@@YAXPAK0AAV?$allocator@K@0@@Z PROC NEAR ; std::_Destroy_range<unsigned long,std::allocator<unsigned long> >, COMDAT

; 217  : 	_Destroy_range(_First, _Last, _Al, _Ptr_cat(_First, _Last));
; 218  : 	}

  00000	c3		 ret	 0
??$_Destroy_range@KV?$allocator@K@std@@@std@@YAXPAK0AAV?$allocator@K@0@@Z ENDP ; std::_Destroy_range<unsigned long,std::allocator<unsigned long> >
_TEXT	ENDS
PUBLIC	??$swap@D@std@@YAXAAD0@Z			; std::swap<char>
; Function compile flags: /Ogty
; File c:\program files\microsoft visual studio .net 2003\vc7\include\utility
;	COMDAT ??$swap@D@std@@YAXAAD0@Z
_TEXT	SEGMENT
__Left$ = 8						; size = 4
__Right$ = 12						; size = 4
??$swap@D@std@@YAXAAD0@Z PROC NEAR			; std::swap<char>, COMDAT

; 15   : 	_Ty _Tmp = _Left;

  00000	8b 44 24 04	 mov	 eax, DWORD PTR __Left$[esp-4]
  00004	8a 08		 mov	 cl, BYTE PTR [eax]
  00006	56		 push	 esi

; 16   : 	_Left = _Right, _Right = _Tmp;

  00007	8b 74 24 0c	 mov	 esi, DWORD PTR __Right$[esp]
  0000b	8a 16		 mov	 dl, BYTE PTR [esi]
  0000d	88 10		 mov	 BYTE PTR [eax], dl
  0000f	88 0e		 mov	 BYTE PTR [esi], cl
  00011	5e		 pop	 esi

; 17   : 	}

  00012	c3		 ret	 0
??$swap@D@std@@YAXAAD0@Z ENDP				; std::swap<char>
_TEXT	ENDS
PUBLIC	??$_Allocate@D@std@@YAPADIPAD@Z			; std::_Allocate<char>
; Function compile flags: /Ogty
; File c:\program files\microsoft visual studio .net 2003\vc7\include\xmemory
;	COMDAT ??$_Allocate@D@std@@YAPADIPAD@Z
_TEXT	SEGMENT
__Count$ = 8						; size = 4
___formal$ = 12						; size = 4
??$_Allocate@D@std@@YAPADIPAD@Z PROC NEAR		; std::_Allocate<char>, COMDAT

; 34   : 	return ((_Ty _FARQ *)operator new(_Count * sizeof (_Ty)));

  00000	8b 44 24 04	 mov	 eax, DWORD PTR __Count$[esp-4]
  00004	50		 push	 eax
  00005	e8 00 00 00 00	 call	 ??2@YAPAXI@Z		; operator new
  0000a	83 c4 04	 add	 esp, 4

; 35   : 	}

  0000d	c3		 ret	 0
??$_Allocate@D@std@@YAPADIPAD@Z ENDP			; std::_Allocate<char>
_TEXT	ENDS
PUBLIC	?GetMemberSize@CCampus@@QAEHXZ			; CCampus::GetMemberSize
; Function compile flags: /Ogty
; File c:\documents and settings\test\mes documents\source\virtuos_v17\build\program\_common\campus.h
;	COMDAT ?GetMemberSize@CCampus@@QAEHXZ
_TEXT	SEGMENT
?GetMemberSize@CCampus@@QAEHXZ PROC NEAR		; CCampus::GetMemberSize, COMDAT
; _this$ = ecx

; 55   : 	int		GetMemberSize()	{	return m_mapCM.size();	}

  00000	8b 41 10	 mov	 eax, DWORD PTR [ecx+16]
  00003	c3		 ret	 0
?GetMemberSize@CCampus@@QAEHXZ ENDP			; CCampus::GetMemberSize
_TEXT	ENDS
PUBLIC	??1CCampusDBCtrl@@UAE@XZ			; CCampusDBCtrl::~CCampusDBCtrl
EXTRN	??1CDbController@@UAE@XZ:NEAR			; CDbController::~CDbController
;	COMDAT xdata$x
; File c:\documents and settings\test\mes documents\source\virtuos_v17\build\program\databaseserver\campusdbctrl.cpp
xdata$x	SEGMENT
$T205391 DD	0ffffffffH
	DD	FLAT:$L205383
$T205389 DD	019930520H
	DD	01H
	DD	FLAT:$T205391
	DD	2 DUP(00H)
	DD	2 DUP(00H)
; Function compile flags: /Ogty
xdata$x	ENDS
;	COMDAT ??1CCampusDBCtrl@@UAE@XZ
_TEXT	SEGMENT
_this$ = -16						; size = 4
__$EHRec$ = -12						; size = 12
??1CCampusDBCtrl@@UAE@XZ PROC NEAR			; CCampusDBCtrl::~CCampusDBCtrl, COMDAT
; _this$ = ecx

; 25   : {

  00000	6a ff		 push	 -1
  00002	68 00 00 00 00	 push	 __ehhandler$??1CCampusDBCtrl@@UAE@XZ
  00007	64 a1 00 00 00
	00		 mov	 eax, DWORD PTR fs:__except_list
  0000d	50		 push	 eax
  0000e	64 89 25 00 00
	00 00		 mov	 DWORD PTR fs:__except_list, esp
  00015	51		 push	 ecx
  00016	56		 push	 esi
  00017	8b f1		 mov	 esi, ecx
  00019	57		 push	 edi
  0001a	89 74 24 08	 mov	 DWORD PTR _this$[esp+24], esi
  0001e	c7 06 00 00 00
	00		 mov	 DWORD PTR [esi], OFFSET FLAT:??_7CCampusDBCtrl@@6B@

; 26   : 	SAFE_DELETE( m_pLogQuery );

  00024	8b 7e 14	 mov	 edi, DWORD PTR [esi+20]
  00027	85 ff		 test	 edi, edi
  00029	c7 44 24 14 00
	00 00 00	 mov	 DWORD PTR __$EHRec$[esp+32], 0
  00031	74 17		 je	 SHORT $L203139
  00033	8b cf		 mov	 ecx, edi
  00035	e8 00 00 00 00	 call	 ??1CQuery@@QAE@XZ	; CQuery::~CQuery
  0003a	57		 push	 edi
  0003b	e8 00 00 00 00	 call	 ??3@YAXPAX@Z		; operator delete
  00040	83 c4 04	 add	 esp, 4
  00043	c7 46 14 00 00
	00 00		 mov	 DWORD PTR [esi+20], 0
$L203139:

; 27   : }

  0004a	8b ce		 mov	 ecx, esi
  0004c	c7 44 24 14 ff
	ff ff ff	 mov	 DWORD PTR __$EHRec$[esp+32], -1
  00054	e8 00 00 00 00	 call	 ??1CDbController@@UAE@XZ ; CDbController::~CDbController
  00059	8b 4c 24 0c	 mov	 ecx, DWORD PTR __$EHRec$[esp+24]
  0005d	5f		 pop	 edi
  0005e	5e		 pop	 esi
  0005f	64 89 0d 00 00
	00 00		 mov	 DWORD PTR fs:__except_list, ecx
  00066	83 c4 10	 add	 esp, 16			; 00000010H
  00069	c3		 ret	 0
_TEXT	ENDS
;	COMDAT text$x
text$x	SEGMENT
$L205383:
  00000	8b 4d f0	 mov	 ecx, DWORD PTR _this$[ebp]
  00003	e9 00 00 00 00	 jmp	 ??1CDbController@@UAE@XZ ; CDbController::~CDbController
__ehhandler$??1CCampusDBCtrl@@UAE@XZ:
  00008	b8 00 00 00 00	 mov	 eax, OFFSET FLAT:$T205389
  0000d	e9 00 00 00 00	 jmp	 ___CxxFrameHandler
text$x	ENDS
??1CCampusDBCtrl@@UAE@XZ ENDP				; CCampusDBCtrl::~CCampusDBCtrl
PUBLIC	??0CCampusHelper@@QAE@XZ			; CCampusHelper::CCampusHelper
PUBLIC	??_C@_0DB@KNEAGAGD@CCampusHelper?5?9?5m_CampusDBCtrl?4C@ ; `string'
EXTRN	??0CCampusMng@@QAE@XZ:NEAR			; CCampusMng::CCampusMng
EXTRN	?CreateDbHandler@CDbController@@QAEHK@Z:NEAR	; CDbController::CreateDbHandler
EXTRN	?Error@@YAPBDPBDZZ:NEAR				; Error
;	COMDAT xdata$x
xdata$x	SEGMENT
$T205410 DD	0ffffffffH
	DD	FLAT:$L205400
	DD	00H
	DD	FLAT:$L205401
$T205407 DD	019930520H
	DD	02H
	DD	FLAT:$T205410
	DD	2 DUP(00H)
	DD	2 DUP(00H)
xdata$x	ENDS
;	COMDAT ??_C@_0DB@KNEAGAGD@CCampusHelper?5?9?5m_CampusDBCtrl?4C@
CONST	SEGMENT
??_C@_0DB@KNEAGAGD@CCampusHelper?5?9?5m_CampusDBCtrl?4C@ DB 'CCampusHelpe'
	DB	'r - m_CampusDBCtrl.CreateDbHandler()', 00H	; `string'
; Function compile flags: /Ogty
CONST	ENDS
;	COMDAT ??0CCampusHelper@@QAE@XZ
_TEXT	SEGMENT
_this$ = -20						; size = 4
$T205397 = -16						; size = 4
__$EHRec$ = -12						; size = 12
??0CCampusHelper@@QAE@XZ PROC NEAR			; CCampusHelper::CCampusHelper, COMDAT
; _this$ = ecx

; 371  : {

  00000	6a ff		 push	 -1
  00002	68 00 00 00 00	 push	 __ehhandler$??0CCampusHelper@@QAE@XZ
  00007	64 a1 00 00 00
	00		 mov	 eax, DWORD PTR fs:__except_list
  0000d	50		 push	 eax
  0000e	64 89 25 00 00
	00 00		 mov	 DWORD PTR fs:__except_list, esp
  00015	83 ec 08	 sub	 esp, 8
  00018	56		 push	 esi
  00019	8b f1		 mov	 esi, ecx
  0001b	89 74 24 04	 mov	 DWORD PTR _this$[esp+24], esi
  0001f	e8 00 00 00 00	 call	 ??0CDbController@@QAE@XZ ; CDbController::CDbController
  00024	c7 06 00 00 00
	00		 mov	 DWORD PTR [esi], OFFSET FLAT:??_7CCampusDBCtrl@@6B@
  0002a	c7 46 14 00 00
	00 00		 mov	 DWORD PTR [esi+20], 0

; 372  : 	m_pCampusMng = new CCampusMng;

  00031	6a 1c		 push	 28			; 0000001cH
  00033	c7 44 24 18 00
	00 00 00	 mov	 DWORD PTR __$EHRec$[esp+36], 0
  0003b	e8 00 00 00 00	 call	 ??2@YAPAXI@Z		; operator new
  00040	83 c4 04	 add	 esp, 4
  00043	89 44 24 08	 mov	 DWORD PTR $T205397[esp+24], eax
  00047	85 c0		 test	 eax, eax
  00049	c6 44 24 14 01	 mov	 BYTE PTR __$EHRec$[esp+32], 1
  0004e	74 09		 je	 SHORT $L205398
  00050	8b c8		 mov	 ecx, eax
  00052	e8 00 00 00 00	 call	 ??0CCampusMng@@QAE@XZ	; CCampusMng::CCampusMng
  00057	eb 02		 jmp	 SHORT $L205399
$L205398:
  00059	33 c0		 xor	 eax, eax
$L205399:

; 373  : 	if( !m_CampusDBCtrl.CreateDbHandler() )

  0005b	6a ff		 push	 -1
  0005d	8b ce		 mov	 ecx, esi
  0005f	c6 44 24 18 00	 mov	 BYTE PTR __$EHRec$[esp+36], 0
  00064	89 46 18	 mov	 DWORD PTR [esi+24], eax
  00067	e8 00 00 00 00	 call	 ?CreateDbHandler@CDbController@@QAEHK@Z ; CDbController::CreateDbHandler
  0006c	85 c0		 test	 eax, eax
  0006e	75 0d		 jne	 SHORT $L205408

; 374  : 		Error( "CCampusHelper - m_CampusDBCtrl.CreateDbHandler()" );

  00070	68 00 00 00 00	 push	 OFFSET FLAT:??_C@_0DB@KNEAGAGD@CCampusHelper?5?9?5m_CampusDBCtrl?4C@
  00075	e8 00 00 00 00	 call	 ?Error@@YAPBDPBDZZ	; Error
  0007a	83 c4 04	 add	 esp, 4
$L205408:

; 375  : }

  0007d	8b 4c 24 0c	 mov	 ecx, DWORD PTR __$EHRec$[esp+24]
  00081	8b c6		 mov	 eax, esi
  00083	5e		 pop	 esi
  00084	64 89 0d 00 00
	00 00		 mov	 DWORD PTR fs:__except_list, ecx
  0008b	83 c4 14	 add	 esp, 20			; 00000014H
  0008e	c3		 ret	 0
_TEXT	ENDS
;	COMDAT text$x
text$x	SEGMENT
$L205400:
  00000	8b 4d ec	 mov	 ecx, DWORD PTR _this$[ebp]
  00003	e9 00 00 00 00	 jmp	 ??1CCampusDBCtrl@@UAE@XZ ; CCampusDBCtrl::~CCampusDBCtrl
$L205401:
  00008	8b 45 f0	 mov	 eax, DWORD PTR $T205397[ebp]
  0000b	50		 push	 eax
  0000c	e8 00 00 00 00	 call	 ??3@YAXPAX@Z		; operator delete
  00011	59		 pop	 ecx
  00012	c3		 ret	 0
__ehhandler$??0CCampusHelper@@QAE@XZ:
  00013	b8 00 00 00 00	 mov	 eax, OFFSET FLAT:$T205407
  00018	e9 00 00 00 00	 jmp	 ___CxxFrameHandler
text$x	ENDS
??0CCampusHelper@@QAE@XZ ENDP				; CCampusHelper::CCampusHelper
PUBLIC	??1CCampusHelper@@QAE@XZ			; CCampusHelper::~CCampusHelper
EXTRN	?CloseDbHandler@CDbController@@QAEXXZ:NEAR	; CDbController::CloseDbHandler
;	COMDAT xdata$x
xdata$x	SEGMENT
$T205427 DD	0ffffffffH
	DD	FLAT:$L205419
$T205425 DD	019930520H
	DD	01H
	DD	FLAT:$T205427
	DD	2 DUP(00H)
	DD	2 DUP(00H)
; Function compile flags: /Ogty
xdata$x	ENDS
;	COMDAT ??1CCampusHelper@@QAE@XZ
_TEXT	SEGMENT
_this$ = -16						; size = 4
__$EHRec$ = -12						; size = 12
??1CCampusHelper@@QAE@XZ PROC NEAR			; CCampusHelper::~CCampusHelper, COMDAT
; _this$ = ecx

; 378  : {

  00000	6a ff		 push	 -1
  00002	68 00 00 00 00	 push	 __ehhandler$??1CCampusHelper@@QAE@XZ
  00007	64 a1 00 00 00
	00		 mov	 eax, DWORD PTR fs:__except_list
  0000d	50		 push	 eax
  0000e	64 89 25 00 00
	00 00		 mov	 DWORD PTR fs:__except_list, esp
  00015	51		 push	 ecx
  00016	56		 push	 esi
  00017	57		 push	 edi
  00018	8b f9		 mov	 edi, ecx
  0001a	89 7c 24 08	 mov	 DWORD PTR _this$[esp+24], edi

; 379  : 	SAFE_DELETE( m_pCampusMng );

  0001e	8b 77 18	 mov	 esi, DWORD PTR [edi+24]
  00021	85 f6		 test	 esi, esi
  00023	c7 44 24 14 00
	00 00 00	 mov	 DWORD PTR __$EHRec$[esp+32], 0
  0002b	74 17		 je	 SHORT $L203534
  0002d	8b ce		 mov	 ecx, esi
  0002f	e8 00 00 00 00	 call	 ??1CCampusMng@@QAE@XZ	; CCampusMng::~CCampusMng
  00034	56		 push	 esi
  00035	e8 00 00 00 00	 call	 ??3@YAXPAX@Z		; operator delete
  0003a	83 c4 04	 add	 esp, 4
  0003d	c7 47 18 00 00
	00 00		 mov	 DWORD PTR [edi+24], 0
$L203534:

; 380  : 	m_CampusDBCtrl.CloseDbHandler();

  00044	8b cf		 mov	 ecx, edi
  00046	e8 00 00 00 00	 call	 ?CloseDbHandler@CDbController@@QAEXXZ ; CDbController::CloseDbHandler

; 381  : }

  0004b	8b cf		 mov	 ecx, edi
  0004d	c7 44 24 14 ff
	ff ff ff	 mov	 DWORD PTR __$EHRec$[esp+32], -1
  00055	e8 00 00 00 00	 call	 ??1CCampusDBCtrl@@UAE@XZ ; CCampusDBCtrl::~CCampusDBCtrl
  0005a	8b 4c 24 0c	 mov	 ecx, DWORD PTR __$EHRec$[esp+24]
  0005e	5f		 pop	 edi
  0005f	5e		 pop	 esi
  00060	64 89 0d 00 00
	00 00		 mov	 DWORD PTR fs:__except_list, ecx
  00067	83 c4 10	 add	 esp, 16			; 00000010H
  0006a	c3		 ret	 0
_TEXT	ENDS
;	COMDAT text$x
text$x	SEGMENT
$L205419:
  00000	8b 4d f0	 mov	 ecx, DWORD PTR _this$[ebp]
  00003	e9 00 00 00 00	 jmp	 ??1CCampusDBCtrl@@UAE@XZ ; CCampusDBCtrl::~CCampusDBCtrl
__ehhandler$??1CCampusHelper@@QAE@XZ:
  00008	b8 00 00 00 00	 mov	 eax, OFFSET FLAT:$T205425
  0000d	e9 00 00 00 00	 jmp	 ___CxxFrameHandler
text$x	ENDS
??1CCampusHelper@@QAE@XZ ENDP				; CCampusHelper::~CCampusHelper
PUBLIC	?empty@?$_Tree@V?$_Tmap_traits@KPAVCCampus@@U?$less@K@std@@V?$allocator@U?$pair@$$CBKPAVCCampus@@@std@@@3@$0A@@std@@@std@@QBE_NXZ ; std::_Tree<std::_Tmap_traits<unsigned long,CCampus *,std::less<unsigned long>,std::allocator<std::pair<unsigned long const ,CCampus *> >,0> >::empty
; Function compile flags: /Ogty
; File c:\program files\microsoft visual studio .net 2003\vc7\include\xtree
;	COMDAT ?empty@?$_Tree@V?$_Tmap_traits@KPAVCCampus@@U?$less@K@std@@V?$allocator@U?$pair@$$CBKPAVCCampus@@@std@@@3@$0A@@std@@@std@@QBE_NXZ
_TEXT	SEGMENT
?empty@?$_Tree@V?$_Tmap_traits@KPAVCCampus@@U?$less@K@std@@V?$allocator@U?$pair@$$CBKPAVCCampus@@@std@@@3@$0A@@std@@@std@@QBE_NXZ PROC NEAR ; std::_Tree<std::_Tmap_traits<unsigned long,CCampus *,std::less<unsigned long>,std::allocator<std::pair<unsigned long const ,CCampus *> >,0> >::empty, COMDAT
; _this$ = ecx

; 458  : 		return (size() == 0);

  00000	8b 51 08	 mov	 edx, DWORD PTR [ecx+8]
  00003	33 c0		 xor	 eax, eax
  00005	85 d2		 test	 edx, edx
  00007	0f 94 c0	 sete	 al

; 459  : 		}

  0000a	c3		 ret	 0
?empty@?$_Tree@V?$_Tmap_traits@KPAVCCampus@@U?$less@K@std@@V?$allocator@U?$pair@$$CBKPAVCCampus@@@std@@@3@$0A@@std@@@std@@QBE_NXZ ENDP ; std::_Tree<std::_Tmap_traits<unsigned long,CCampus *,std::less<unsigned long>,std::allocator<std::pair<unsigned long const ,CCampus *> >,0> >::empty
_TEXT	ENDS
PUBLIC	??Diterator@?$vector@KV?$allocator@K@std@@@std@@QBEAAKXZ ; std::vector<unsigned long,std::allocator<unsigned long> >::iterator::operator*
; Function compile flags: /Ogty
; File c:\program files\microsoft visual studio .net 2003\vc7\include\vector
;	COMDAT ??Diterator@?$vector@KV?$allocator@K@std@@@std@@QBEAAKXZ
_TEXT	SEGMENT
??Diterator@?$vector@KV?$allocator@K@std@@@std@@QBEAAKXZ PROC NEAR ; std::vector<unsigned long,std::allocator<unsigned long> >::iterator::operator*, COMDAT
; _this$ = ecx

; 220  : 			return ((reference)**(const_iterator *)this);

  00000	8b 01		 mov	 eax, DWORD PTR [ecx]

; 221  : 			}

  00002	c3		 ret	 0
??Diterator@?$vector@KV?$allocator@K@std@@@std@@QBEAAKXZ ENDP ; std::vector<unsigned long,std::allocator<unsigned long> >::iterator::operator*
_TEXT	ENDS
PUBLIC	??9const_iterator@?$vector@KV?$allocator@K@std@@@std@@QBE_NABV012@@Z ; std::vector<unsigned long,std::allocator<unsigned long> >::const_iterator::operator!=
; Function compile flags: /Ogty
;	COMDAT ??9const_iterator@?$vector@KV?$allocator@K@std@@@std@@QBE_NABV012@@Z
_TEXT	SEGMENT
__Right$ = 8						; size = 4
??9const_iterator@?$vector@KV?$allocator@K@std@@@std@@QBE_NABV012@@Z PROC NEAR ; std::vector<unsigned long,std::allocator<unsigned long> >::const_iterator::operator!=, COMDAT
; _this$ = ecx

; 160  : 			return (!(*this == _Right));

  00000	8b 01		 mov	 eax, DWORD PTR [ecx]
  00002	8b 54 24 04	 mov	 edx, DWORD PTR __Right$[esp-4]
  00006	56		 push	 esi
  00007	8b 32		 mov	 esi, DWORD PTR [edx]
  00009	33 c9		 xor	 ecx, ecx
  0000b	3b c6		 cmp	 eax, esi
  0000d	0f 95 c1	 setne	 cl
  00010	8a c1		 mov	 al, cl
  00012	5e		 pop	 esi

; 161  : 			}

  00013	c2 04 00	 ret	 4
??9const_iterator@?$vector@KV?$allocator@K@std@@@std@@QBE_NABV012@@Z ENDP ; std::vector<unsigned long,std::allocator<unsigned long> >::const_iterator::operator!=
_TEXT	ENDS
PUBLIC	??0iterator@?$vector@KV?$allocator@K@std@@@std@@QAE@PAK@Z ; std::vector<unsigned long,std::allocator<unsigned long> >::iterator::iterator
; Function compile flags: /Ogty
;	COMDAT ??0iterator@?$vector@KV?$allocator@K@std@@@std@@QAE@PAK@Z
_TEXT	SEGMENT
__Ptr$ = 8						; size = 4
??0iterator@?$vector@KV?$allocator@K@std@@@std@@QAE@PAK@Z PROC NEAR ; std::vector<unsigned long,std::allocator<unsigned long> >::iterator::iterator, COMDAT
; _this$ = ecx

; 215  : 			{	// construct with pointer _Ptr

  00000	8b c1		 mov	 eax, ecx
  00002	8b 4c 24 04	 mov	 ecx, DWORD PTR __Ptr$[esp-4]
  00006	89 08		 mov	 DWORD PTR [eax], ecx

; 216  : 			}

  00008	c2 04 00	 ret	 4
??0iterator@?$vector@KV?$allocator@K@std@@@std@@QAE@PAK@Z ENDP ; std::vector<unsigned long,std::allocator<unsigned long> >::iterator::iterator
_TEXT	ENDS
PUBLIC	?_Lrotate@?$_Tree@V?$_Tmap_traits@KKU?$less@K@std@@V?$allocator@U?$pair@$$CBKK@std@@@2@$0A@@std@@@std@@IAEXPAU_Node@?$_Tree_nod@V?$_Tmap_traits@KKU?$less@K@std@@V?$allocator@U?$pair@$$CBKK@std@@@2@$0A@@std@@@2@@Z ; std::_Tree<std::_Tmap_traits<unsigned long,unsigned long,std::less<unsigned long>,std::allocator<std::pair<unsigned long const ,unsigned long> >,0> >::_Lrotate
; Function compile flags: /Ogty
; File c:\program files\microsoft visual studio .net 2003\vc7\include\xtree
;	COMDAT ?_Lrotate@?$_Tree@V?$_Tmap_traits@KKU?$less@K@std@@V?$allocator@U?$pair@$$CBKK@std@@@2@$0A@@std@@@std@@IAEXPAU_Node@?$_Tree_nod@V?$_Tmap_traits@KKU?$less@K@std@@V?$allocator@U?$pair@$$CBKK@std@@@2@$0A@@std@@@2@@Z
_TEXT	SEGMENT
__Wherenode$ = 8					; size = 4
?_Lrotate@?$_Tree@V?$_Tmap_traits@KKU?$less@K@std@@V?$allocator@U?$pair@$$CBKK@std@@@2@$0A@@std@@@std@@IAEXPAU_Node@?$_Tree_nod@V?$_Tmap_traits@KKU?$less@K@std@@V?$allocator@U?$pair@$$CBKK@std@@@2@$0A@@std@@@2@@Z PROC NEAR ; std::_Tree<std::_Tmap_traits<unsigned long,unsigned long,std::less<unsigned long>,std::allocator<std::pair<unsigned long const ,unsigned long> >,0> >::_Lrotate, COMDAT
; _this$ = ecx

; 1015 : 		_Nodeptr _Pnode = _Right(_Wherenode);

  00000	8b 54 24 04	 mov	 edx, DWORD PTR __Wherenode$[esp-4]
  00004	8b 42 08	 mov	 eax, DWORD PTR [edx+8]
  00007	53		 push	 ebx
  00008	56		 push	 esi

; 1016 : 		_Right(_Wherenode) = _Left(_Pnode);

  00009	8b 30		 mov	 esi, DWORD PTR [eax]
  0000b	89 72 08	 mov	 DWORD PTR [edx+8], esi

; 1017 : 
; 1018 : 		if (!_Isnil(_Left(_Pnode)))

  0000e	8b 30		 mov	 esi, DWORD PTR [eax]
  00010	8a 5e 15	 mov	 bl, BYTE PTR [esi+21]
  00013	84 db		 test	 bl, bl
  00015	75 03		 jne	 SHORT $L204178

; 1019 : 			_Parent(_Left(_Pnode)) = _Wherenode;

  00017	89 56 04	 mov	 DWORD PTR [esi+4], edx
$L204178:

; 1020 : 		_Parent(_Pnode) = _Parent(_Wherenode);

  0001a	8b 72 04	 mov	 esi, DWORD PTR [edx+4]
  0001d	89 70 04	 mov	 DWORD PTR [eax+4], esi

; 1021 : 
; 1022 : 		if (_Wherenode == _Root())

  00020	8b 49 04	 mov	 ecx, DWORD PTR [ecx+4]
  00023	3b 51 04	 cmp	 edx, DWORD PTR [ecx+4]
  00026	75 0d		 jne	 SHORT $L204179

; 1023 : 			_Root() = _Pnode;

  00028	89 41 04	 mov	 DWORD PTR [ecx+4], eax
  0002b	5e		 pop	 esi

; 1028 : 
; 1029 : 		_Left(_Pnode) = _Wherenode;

  0002c	89 10		 mov	 DWORD PTR [eax], edx

; 1030 : 		_Parent(_Wherenode) = _Pnode;

  0002e	89 42 04	 mov	 DWORD PTR [edx+4], eax
  00031	5b		 pop	 ebx

; 1031 : 		}

  00032	c2 04 00	 ret	 4
$L204179:

; 1024 : 		else if (_Wherenode == _Left(_Parent(_Wherenode)))

  00035	8b 4a 04	 mov	 ecx, DWORD PTR [edx+4]
  00038	3b 11		 cmp	 edx, DWORD PTR [ecx]
  0003a	75 0c		 jne	 SHORT $L204181

; 1025 : 			_Left(_Parent(_Wherenode)) = _Pnode;

  0003c	89 01		 mov	 DWORD PTR [ecx], eax
  0003e	5e		 pop	 esi

; 1028 : 
; 1029 : 		_Left(_Pnode) = _Wherenode;

  0003f	89 10		 mov	 DWORD PTR [eax], edx

; 1030 : 		_Parent(_Wherenode) = _Pnode;

  00041	89 42 04	 mov	 DWORD PTR [edx+4], eax
  00044	5b		 pop	 ebx

; 1031 : 		}

  00045	c2 04 00	 ret	 4
$L204181:

; 1026 : 		else
; 1027 : 			_Right(_Parent(_Wherenode)) = _Pnode;

  00048	89 41 08	 mov	 DWORD PTR [ecx+8], eax
  0004b	5e		 pop	 esi

; 1028 : 
; 1029 : 		_Left(_Pnode) = _Wherenode;

  0004c	89 10		 mov	 DWORD PTR [eax], edx

; 1030 : 		_Parent(_Wherenode) = _Pnode;

  0004e	89 42 04	 mov	 DWORD PTR [edx+4], eax
  00051	5b		 pop	 ebx

; 1031 : 		}

  00052	c2 04 00	 ret	 4
?_Lrotate@?$_Tree@V?$_Tmap_traits@KKU?$less@K@std@@V?$allocator@U?$pair@$$CBKK@std@@@2@$0A@@std@@@std@@IAEXPAU_Node@?$_Tree_nod@V?$_Tmap_traits@KKU?$less@K@std@@V?$allocator@U?$pair@$$CBKK@std@@@2@$0A@@std@@@2@@Z ENDP ; std::_Tree<std::_Tmap_traits<unsigned long,unsigned long,std::less<unsigned long>,std::allocator<std::pair<unsigned long const ,unsigned long> >,0> >::_Lrotate
_TEXT	ENDS
PUBLIC	?destroy@?$allocator@U_Node@?$_Tree_nod@V?$_Tmap_traits@KKU?$less@K@std@@V?$allocator@U?$pair@$$CBKK@std@@@2@$0A@@std@@@std@@@std@@QAEXPAU_Node@?$_Tree_nod@V?$_Tmap_traits@KKU?$less@K@std@@V?$allocator@U?$pair@$$CBKK@std@@@2@$0A@@std@@@2@@Z ; std::allocator<std::_Tree_nod<std::_Tmap_traits<unsigned long,unsigned long,std::less<unsigned long>,std::allocator<std::pair<unsigned long const ,unsigned long> >,0> >::_Node>::destroy
; Function compile flags: /Ogty
; File c:\program files\microsoft visual studio .net 2003\vc7\include\xmemory
;	COMDAT ?destroy@?$allocator@U_Node@?$_Tree_nod@V?$_Tmap_traits@KKU?$less@K@std@@V?$allocator@U?$pair@$$CBKK@std@@@2@$0A@@std@@@std@@@std@@QAEXPAU_Node@?$_Tree_nod@V?$_Tmap_traits@KKU?$less@K@std@@V?$allocator@U?$pair@$$CBKK@std@@@2@$0A@@std@@@2@@Z
_TEXT	SEGMENT
__Ptr$ = 8						; size = 4
?destroy@?$allocator@U_Node@?$_Tree_nod@V?$_Tmap_traits@KKU?$less@K@std@@V?$allocator@U?$pair@$$CBKK@std@@@2@$0A@@std@@@std@@@std@@QAEXPAU_Node@?$_Tree_nod@V?$_Tmap_traits@KKU?$less@K@std@@V?$allocator@U?$pair@$$CBKK@std@@@2@$0A@@std@@@2@@Z PROC NEAR ; std::allocator<std::_Tree_nod<std::_Tmap_traits<unsigned long,unsigned long,std::less<unsigned long>,std::allocator<std::pair<unsigned long const ,unsigned long> >,0> >::_Node>::destroy, COMDAT
; _this$ = ecx

; 152  : 		_Destroy(_Ptr);
; 153  : 		}

  00000	c2 04 00	 ret	 4
?destroy@?$allocator@U_Node@?$_Tree_nod@V?$_Tmap_traits@KKU?$less@K@std@@V?$allocator@U?$pair@$$CBKK@std@@@2@$0A@@std@@@std@@@std@@QAEXPAU_Node@?$_Tree_nod@V?$_Tmap_traits@KKU?$less@K@std@@V?$allocator@U?$pair@$$CBKK@std@@@2@$0A@@std@@@2@@Z ENDP ; std::allocator<std::_Tree_nod<std::_Tmap_traits<unsigned long,unsigned long,std::less<unsigned long>,std::allocator<std::pair<unsigned long const ,unsigned long> >,0> >::_Node>::destroy
_TEXT	ENDS
PUBLIC	??0iterator@?$_Tree@V?$_Tmap_traits@KKU?$less@K@std@@V?$allocator@U?$pair@$$CBKK@std@@@2@$0A@@std@@@std@@QAE@PAU_Node@?$_Tree_nod@V?$_Tmap_traits@KKU?$less@K@std@@V?$allocator@U?$pair@$$CBKK@std@@@2@$0A@@std@@@2@@Z ; std::_Tree<std::_Tmap_traits<unsigned long,unsigned long,std::less<unsigned long>,std::allocator<std::pair<unsigned long const ,unsigned long> >,0> >::iterator::iterator
; Function compile flags: /Ogty
; File c:\program files\microsoft visual studio .net 2003\vc7\include\xtree
;	COMDAT ??0iterator@?$_Tree@V?$_Tmap_traits@KKU?$less@K@std@@V?$allocator@U?$pair@$$CBKK@std@@@2@$0A@@std@@@std@@QAE@PAU_Node@?$_Tree_nod@V?$_Tmap_traits@KKU?$less@K@std@@V?$allocator@U?$pair@$$CBKK@std@@@2@$0A@@std@@@2@@Z
_TEXT	SEGMENT
__Pnode$ = 8						; size = 4
??0iterator@?$_Tree@V?$_Tmap_traits@KKU?$less@K@std@@V?$allocator@U?$pair@$$CBKK@std@@@2@$0A@@std@@@std@@QAE@PAU_Node@?$_Tree_nod@V?$_Tmap_traits@KKU?$less@K@std@@V?$allocator@U?$pair@$$CBKK@std@@@2@$0A@@std@@@2@@Z PROC NEAR ; std::_Tree<std::_Tmap_traits<unsigned long,unsigned long,std::less<unsigned long>,std::allocator<std::pair<unsigned long const ,unsigned long> >,0> >::iterator::iterator, COMDAT
; _this$ = ecx

; 312  : 			{	// construct with node pointer _Pnode

  00000	8b c1		 mov	 eax, ecx
  00002	8b 4c 24 04	 mov	 ecx, DWORD PTR __Pnode$[esp-4]
  00006	89 08		 mov	 DWORD PTR [eax], ecx

; 313  : 			}

  00008	c2 04 00	 ret	 4
??0iterator@?$_Tree@V?$_Tmap_traits@KKU?$less@K@std@@V?$allocator@U?$pair@$$CBKK@std@@@2@$0A@@std@@@std@@QAE@PAU_Node@?$_Tree_nod@V?$_Tmap_traits@KKU?$less@K@std@@V?$allocator@U?$pair@$$CBKK@std@@@2@$0A@@std@@@2@@Z ENDP ; std::_Tree<std::_Tmap_traits<unsigned long,unsigned long,std::less<unsigned long>,std::allocator<std::pair<unsigned long const ,unsigned long> >,0> >::iterator::iterator
_TEXT	ENDS
PUBLIC	?_Key@?$_Tree@V?$_Tmap_traits@KKU?$less@K@std@@V?$allocator@U?$pair@$$CBKK@std@@@2@$0A@@std@@@std@@KAABKPAU_Node@?$_Tree_nod@V?$_Tmap_traits@KKU?$less@K@std@@V?$allocator@U?$pair@$$CBKK@std@@@2@$0A@@std@@@2@@Z ; std::_Tree<std::_Tmap_traits<unsigned long,unsigned long,std::less<unsigned long>,std::allocator<std::pair<unsigned long const ,unsigned long> >,0> >::_Key
; Function compile flags: /Ogty
;	COMDAT ?_Key@?$_Tree@V?$_Tmap_traits@KKU?$less@K@std@@V?$allocator@U?$pair@$$CBKK@std@@@2@$0A@@std@@@std@@KAABKPAU_Node@?$_Tree_nod@V?$_Tmap_traits@KKU?$less@K@std@@V?$allocator@U?$pair@$$CBKK@std@@@2@$0A@@std@@@2@@Z
_TEXT	SEGMENT
__Pnode$ = 8						; size = 4
?_Key@?$_Tree@V?$_Tmap_traits@KKU?$less@K@std@@V?$allocator@U?$pair@$$CBKK@std@@@2@$0A@@std@@@std@@KAABKPAU_Node@?$_Tree_nod@V?$_Tmap_traits@KKU?$less@K@std@@V?$allocator@U?$pair@$$CBKK@std@@@2@$0A@@std@@@2@@Z PROC NEAR ; std::_Tree<std::_Tmap_traits<unsigned long,unsigned long,std::less<unsigned long>,std::allocator<std::pair<unsigned long const ,unsigned long> >,0> >::_Key, COMDAT

; 142  : 		return (_Mybase::_Kfn(_Myval(_Pnode)));

  00000	8b 44 24 04	 mov	 eax, DWORD PTR __Pnode$[esp-4]
  00004	83 c0 0c	 add	 eax, 12			; 0000000cH

; 143  : 		}

  00007	c3		 ret	 0
?_Key@?$_Tree@V?$_Tmap_traits@KKU?$less@K@std@@V?$allocator@U?$pair@$$CBKK@std@@@2@$0A@@std@@@std@@KAABKPAU_Node@?$_Tree_nod@V?$_Tmap_traits@KKU?$less@K@std@@V?$allocator@U?$pair@$$CBKK@std@@@2@$0A@@std@@@2@@Z ENDP ; std::_Tree<std::_Tmap_traits<unsigned long,unsigned long,std::less<unsigned long>,std::allocator<std::pair<unsigned long const ,unsigned long> >,0> >::_Key
_TEXT	ENDS
PUBLIC	??Econst_iterator@?$_Tree@V?$_Tmap_traits@KKU?$less@K@std@@V?$allocator@U?$pair@$$CBKK@std@@@2@$0A@@std@@@std@@QAEAAV012@XZ ; std::_Tree<std::_Tmap_traits<unsigned long,unsigned long,std::less<unsigned long>,std::allocator<std::pair<unsigned long const ,unsigned long> >,0> >::const_iterator::operator++
; Function compile flags: /Ogty
;	COMDAT ??Econst_iterator@?$_Tree@V?$_Tmap_traits@KKU?$less@K@std@@V?$allocator@U?$pair@$$CBKK@std@@@2@$0A@@std@@@std@@QAEAAV012@XZ
_TEXT	SEGMENT
??Econst_iterator@?$_Tree@V?$_Tmap_traits@KKU?$less@K@std@@V?$allocator@U?$pair@$$CBKK@std@@@2@$0A@@std@@@std@@QAEAAV012@XZ PROC NEAR ; std::_Tree<std::_Tmap_traits<unsigned long,unsigned long,std::less<unsigned long>,std::allocator<std::pair<unsigned long const ,unsigned long> >,0> >::const_iterator::operator++, COMDAT
; _this$ = ecx

; 214  : 			{	// preincrement

  00000	56		 push	 esi
  00001	8b f1		 mov	 esi, ecx

; 215  : 			_Inc();

  00003	e8 00 00 00 00	 call	 ?_Inc@const_iterator@?$_Tree@V?$_Tmap_traits@KKU?$less@K@std@@V?$allocator@U?$pair@$$CBKK@std@@@2@$0A@@std@@@std@@QAEXXZ ; std::_Tree<std::_Tmap_traits<unsigned long,unsigned long,std::less<unsigned long>,std::allocator<std::pair<unsigned long const ,unsigned long> >,0> >::const_iterator::_Inc

; 216  : 			return (*this);

  00008	8b c6		 mov	 eax, esi
  0000a	5e		 pop	 esi

; 217  : 			}

  0000b	c3		 ret	 0
??Econst_iterator@?$_Tree@V?$_Tmap_traits@KKU?$less@K@std@@V?$allocator@U?$pair@$$CBKK@std@@@2@$0A@@std@@@std@@QAEAAV012@XZ ENDP ; std::_Tree<std::_Tmap_traits<unsigned long,unsigned long,std::less<unsigned long>,std::allocator<std::pair<unsigned long const ,unsigned long> >,0> >::const_iterator::operator++
_TEXT	ENDS
PUBLIC	??5CAr@@QAEAAV0@AAH@Z				; CAr::operator>>
; Function compile flags: /Ogty
; File c:\documents and settings\test\mes documents\source\virtuos_v17\build\program\_network\misc\include\ar.h
;	COMDAT ??5CAr@@QAEAAV0@AAH@Z
_TEXT	SEGMENT
_i$ = 8							; size = 4
??5CAr@@QAEAAV0@AAH@Z PROC NEAR				; CAr::operator>>, COMDAT
; _this$ = ecx

; 126  : 	{ return CAr::operator>>((LONG&)i); }

  00000	8b c1		 mov	 eax, ecx
  00002	8b 48 08	 mov	 ecx, DWORD PTR [eax+8]
  00005	56		 push	 esi
  00006	8b 70 0c	 mov	 esi, DWORD PTR [eax+12]
  00009	8d 51 04	 lea	 edx, DWORD PTR [ecx+4]
  0000c	3b d6		 cmp	 edx, esi
  0000e	5e		 pop	 esi
  0000f	77 0f		 ja	 SHORT $L205548
  00011	8b 09		 mov	 ecx, DWORD PTR [ecx]
  00013	8b 54 24 04	 mov	 edx, DWORD PTR _i$[esp-4]
  00017	89 0a		 mov	 DWORD PTR [edx], ecx
  00019	83 40 08 04	 add	 DWORD PTR [eax+8], 4
  0001d	c2 04 00	 ret	 4
$L205548:
  00020	8b 4c 24 04	 mov	 ecx, DWORD PTR _i$[esp-4]
  00024	c7 01 00 00 00
	00		 mov	 DWORD PTR [ecx], 0
  0002a	8b 50 0c	 mov	 edx, DWORD PTR [eax+12]
  0002d	89 50 08	 mov	 DWORD PTR [eax+8], edx
  00030	c2 04 00	 ret	 4
??5CAr@@QAEAAV0@AAH@Z ENDP				; CAr::operator>>
_TEXT	ENDS
PUBLIC	??5CAr@@QAEAAV0@AAD@Z				; CAr::operator>>
; Function compile flags: /Ogty
;	COMDAT ??5CAr@@QAEAAV0@AAD@Z
_TEXT	SEGMENT
_ch$ = 8						; size = 4
??5CAr@@QAEAAV0@AAD@Z PROC NEAR				; CAr::operator>>, COMDAT
; _this$ = ecx

; 132  : 	{ return CAr::operator>>((BYTE&)ch); }

  00000	8b c1		 mov	 eax, ecx
  00002	8b 48 08	 mov	 ecx, DWORD PTR [eax+8]
  00005	56		 push	 esi
  00006	8b 70 0c	 mov	 esi, DWORD PTR [eax+12]
  00009	8d 51 01	 lea	 edx, DWORD PTR [ecx+1]
  0000c	3b d6		 cmp	 edx, esi
  0000e	5e		 pop	 esi
  0000f	77 0e		 ja	 SHORT $L205555
  00011	8a 09		 mov	 cl, BYTE PTR [ecx]
  00013	8b 54 24 04	 mov	 edx, DWORD PTR _ch$[esp-4]
  00017	88 0a		 mov	 BYTE PTR [edx], cl
  00019	ff 40 08	 inc	 DWORD PTR [eax+8]
  0001c	c2 04 00	 ret	 4
$L205555:
  0001f	8b 4c 24 04	 mov	 ecx, DWORD PTR _ch$[esp-4]
  00023	c6 01 00	 mov	 BYTE PTR [ecx], 0
  00026	8b 50 0c	 mov	 edx, DWORD PTR [eax+12]
  00029	89 50 08	 mov	 DWORD PTR [eax+8], edx
  0002c	c2 04 00	 ret	 4
??5CAr@@QAEAAV0@AAD@Z ENDP				; CAr::operator>>
_TEXT	ENDS
PUBLIC	??0?$_String_val@DV?$allocator@D@std@@@std@@IAE@V?$allocator@D@1@@Z ; std::_String_val<char,std::allocator<char> >::_String_val<char,std::allocator<char> >
; Function compile flags: /Ogty
; File c:\program files\microsoft visual studio .net 2003\vc7\include\xstring
;	COMDAT ??0?$_String_val@DV?$allocator@D@std@@@std@@IAE@V?$allocator@D@1@@Z
_TEXT	SEGMENT
__Al$ = 8						; size = 1
??0?$_String_val@DV?$allocator@D@std@@@std@@IAE@V?$allocator@D@1@@Z PROC NEAR ; std::_String_val<char,std::allocator<char> >::_String_val<char,std::allocator<char> >, COMDAT
; _this$ = ecx

; 34   : 		{	// construct allocator from _Al

  00000	8b c1		 mov	 eax, ecx

; 35   : 		}

  00002	c2 04 00	 ret	 4
??0?$_String_val@DV?$allocator@D@std@@@std@@IAE@V?$allocator@D@1@@Z ENDP ; std::_String_val<char,std::allocator<char> >::_String_val<char,std::allocator<char> >
_TEXT	ENDS
PUBLIC	?_Eos@?$basic_string@DU?$char_traits@D@std@@V?$allocator@D@2@@std@@IAEXI@Z ; std::basic_string<char,std::char_traits<char>,std::allocator<char> >::_Eos
; Function compile flags: /Ogty
;	COMDAT ?_Eos@?$basic_string@DU?$char_traits@D@std@@V?$allocator@D@2@@std@@IAEXI@Z
_TEXT	SEGMENT
__Newsize$ = 8						; size = 4
?_Eos@?$basic_string@DU?$char_traits@D@std@@V?$allocator@D@2@@std@@IAEXI@Z PROC NEAR ; std::basic_string<char,std::char_traits<char>,std::allocator<char> >::_Eos, COMDAT
; _this$ = ecx

; 1475 : 		_Traits::assign(_Myptr()[_Mysize = _Newsize], _Elem());

  00000	83 79 18 10	 cmp	 DWORD PTR [ecx+24], 16	; 00000010H
  00004	8b 44 24 04	 mov	 eax, DWORD PTR __Newsize$[esp-4]
  00008	89 41 14	 mov	 DWORD PTR [ecx+20], eax
  0000b	72 0a		 jb	 SHORT $L205571
  0000d	8b 49 04	 mov	 ecx, DWORD PTR [ecx+4]
  00010	c6 04 01 00	 mov	 BYTE PTR [ecx+eax], 0

; 1476 : 		}

  00014	c2 04 00	 ret	 4

; 1475 : 		_Traits::assign(_Myptr()[_Mysize = _Newsize], _Elem());

$L205571:
  00017	c6 44 01 04 00	 mov	 BYTE PTR [ecx+eax+4], 0

; 1476 : 		}

  0001c	c2 04 00	 ret	 4
?_Eos@?$basic_string@DU?$char_traits@D@std@@V?$allocator@D@2@@std@@IAEXI@Z ENDP ; std::basic_string<char,std::char_traits<char>,std::allocator<char> >::_Eos
_TEXT	ENDS
PUBLIC	?_Destroy@?$vector@KV?$allocator@K@std@@@std@@IAEXPAK0@Z ; std::vector<unsigned long,std::allocator<unsigned long> >::_Destroy
; Function compile flags: /Ogty
; File c:\program files\microsoft visual studio .net 2003\vc7\include\vector
;	COMDAT ?_Destroy@?$vector@KV?$allocator@K@std@@@std@@IAEXPAK0@Z
_TEXT	SEGMENT
__First$ = 8						; size = 4
__Last$ = 12						; size = 4
?_Destroy@?$vector@KV?$allocator@K@std@@@std@@IAEXPAK0@Z PROC NEAR ; std::vector<unsigned long,std::allocator<unsigned long> >::_Destroy, COMDAT
; _this$ = ecx

; 787  : 		_Destroy_range(_First, _Last, this->_Alval);
; 788  : 		}

  00000	c2 08 00	 ret	 8
?_Destroy@?$vector@KV?$allocator@K@std@@@std@@IAEXPAK0@Z ENDP ; std::vector<unsigned long,std::allocator<unsigned long> >::_Destroy
_TEXT	ENDS
PUBLIC	?max_size@?$basic_string@DU?$char_traits@D@std@@V?$allocator@D@2@@std@@QBEIXZ ; std::basic_string<char,std::char_traits<char>,std::allocator<char> >::max_size
; Function compile flags: /Ogty
; File c:\program files\microsoft visual studio .net 2003\vc7\include\xstring
;	COMDAT ?max_size@?$basic_string@DU?$char_traits@D@std@@V?$allocator@D@2@@std@@QBEIXZ
_TEXT	SEGMENT
?max_size@?$basic_string@DU?$char_traits@D@std@@V?$allocator@D@2@@std@@QBEIXZ PROC NEAR ; std::basic_string<char,std::char_traits<char>,std::allocator<char> >::max_size, COMDAT
; _this$ = ecx

; 1114 : 		size_type _Num = _Mybase::_Alval.max_size();
; 1115 : 		return (_Num <= 1 ? 1 : _Num - 1);

  00000	b8 fe ff ff ff	 mov	 eax, -2			; fffffffeH

; 1116 : 		}

  00005	c3		 ret	 0
?max_size@?$basic_string@DU?$char_traits@D@std@@V?$allocator@D@2@@std@@QBEIXZ ENDP ; std::basic_string<char,std::char_traits<char>,std::allocator<char> >::max_size
_TEXT	ENDS
PUBLIC	?allocate@?$allocator@D@std@@QAEPADI@Z		; std::allocator<char>::allocate
; Function compile flags: /Ogty
; File c:\program files\microsoft visual studio .net 2003\vc7\include\xmemory
;	COMDAT ?allocate@?$allocator@D@std@@QAEPADI@Z
_TEXT	SEGMENT
__Count$ = 8						; size = 4
?allocate@?$allocator@D@std@@QAEPADI@Z PROC NEAR	; std::allocator<char>::allocate, COMDAT
; _this$ = ecx

; 137  : 		return (_Allocate(_Count, (pointer)0));

  00000	8b 44 24 04	 mov	 eax, DWORD PTR __Count$[esp-4]
  00004	50		 push	 eax
  00005	e8 00 00 00 00	 call	 ??2@YAPAXI@Z		; operator new
  0000a	83 c4 04	 add	 esp, 4

; 138  : 		}

  0000d	c2 04 00	 ret	 4
?allocate@?$allocator@D@std@@QAEPADI@Z ENDP		; std::allocator<char>::allocate
_TEXT	ENDS
PUBLIC	?IsEmpty@CCampusMng@@QAEHXZ			; CCampusMng::IsEmpty
; Function compile flags: /Ogty
; File c:\documents and settings\test\mes documents\source\virtuos_v17\build\program\_common\campus.h
;	COMDAT ?IsEmpty@CCampusMng@@QAEHXZ
_TEXT	SEGMENT
?IsEmpty@CCampusMng@@QAEHXZ PROC NEAR			; CCampusMng::IsEmpty, COMDAT
; _this$ = ecx

; 92   : 	BOOL	IsEmpty()	{	return m_mapCampus.empty();	}

  00000	8b 41 0c	 mov	 eax, DWORD PTR [ecx+12]
  00003	85 c0		 test	 eax, eax
  00005	0f 94 c0	 sete	 al
  00008	0f b6 c0	 movzx	 eax, al
  0000b	c3		 ret	 0
?IsEmpty@CCampusMng@@QAEHXZ ENDP			; CCampusMng::IsEmpty
_TEXT	ENDS
PUBLIC	?IsEmpty@CCampusHelper@@QAEHXZ			; CCampusHelper::IsEmpty
; Function compile flags: /Ogty
; File c:\documents and settings\test\mes documents\source\virtuos_v17\build\program\databaseserver\campusdbctrl.h
;	COMDAT ?IsEmpty@CCampusHelper@@QAEHXZ
_TEXT	SEGMENT
?IsEmpty@CCampusHelper@@QAEHXZ PROC NEAR		; CCampusHelper::IsEmpty, COMDAT
; _this$ = ecx

; 77   : 	BOOL	IsEmpty()	{	return m_pCampusMng->IsEmpty();	}

  00000	8b 41 18	 mov	 eax, DWORD PTR [ecx+24]
  00003	8b 48 0c	 mov	 ecx, DWORD PTR [eax+12]
  00006	85 c9		 test	 ecx, ecx
  00008	0f 94 c1	 sete	 cl
  0000b	0f b6 c1	 movzx	 eax, cl
  0000e	c3		 ret	 0
?IsEmpty@CCampusHelper@@QAEHXZ ENDP			; CCampusHelper::IsEmpty
; Function compile flags: /Ogty
_TEXT	ENDS
;	COMDAT ??_GCCampusDBCtrl@@UAEPAXI@Z
_TEXT	SEGMENT
___flags$ = 8						; size = 4
??_GCCampusDBCtrl@@UAEPAXI@Z PROC NEAR			; CCampusDBCtrl::`scalar deleting destructor', COMDAT
; _this$ = ecx
  00000	56		 push	 esi
  00001	8b f1		 mov	 esi, ecx
  00003	e8 00 00 00 00	 call	 ??1CCampusDBCtrl@@UAE@XZ ; CCampusDBCtrl::~CCampusDBCtrl
  00008	f6 44 24 08 01	 test	 BYTE PTR ___flags$[esp], 1
  0000d	74 09		 je	 SHORT $L205626
  0000f	56		 push	 esi
  00010	e8 00 00 00 00	 call	 ??3@YAXPAX@Z		; operator delete
  00015	83 c4 04	 add	 esp, 4
$L205626:
  00018	8b c6		 mov	 eax, esi
  0001a	5e		 pop	 esi
  0001b	c2 04 00	 ret	 4
??_GCCampusDBCtrl@@UAEPAXI@Z ENDP			; CCampusDBCtrl::`scalar deleting destructor'
_TEXT	ENDS
PUBLIC	?UpdateCampusPoint@CCampusDBCtrl@@AAEXAAVCAr@@@Z ; CCampusDBCtrl::UpdateCampusPoint
EXTRN	?GetInstance@CDPTrans@@SAPAV1@XZ:NEAR		; CDPTrans::GetInstance
EXTRN	?SendUpdateCampusPoint@CDPTrans@@QAEXKH@Z:NEAR	; CDPTrans::SendUpdateCampusPoint
; Function compile flags: /Ogty
; File c:\documents and settings\test\mes documents\source\virtuos_v17\build\program\databaseserver\campusdbctrl.cpp
;	COMDAT ?UpdateCampusPoint@CCampusDBCtrl@@AAEXAAVCAr@@@Z
_TEXT	SEGMENT
_this$ = -4						; size = 4
_chState$ = 8						; size = 1
_ar$ = 8						; size = 4
?UpdateCampusPoint@CCampusDBCtrl@@AAEXAAVCAr@@@Z PROC NEAR ; CCampusDBCtrl::UpdateCampusPoint, COMDAT
; _this$ = ecx

; 249  : {

  00000	51		 push	 ecx

; 250  : 	u_long idPlayer;
; 251  : 	int nCampusPoint;
; 252  : 	BOOL bAdd;
; 253  : 	char chState;
; 254  : 	ar >> idPlayer >> nCampusPoint >> bAdd >> chState;

  00001	8b 44 24 08	 mov	 eax, DWORD PTR _ar$[esp]
  00005	8b 50 08	 mov	 edx, DWORD PTR [eax+8]
  00008	55		 push	 ebp
  00009	56		 push	 esi
  0000a	89 4c 24 08	 mov	 DWORD PTR _this$[esp+12], ecx
  0000e	8b 48 0c	 mov	 ecx, DWORD PTR [eax+12]
  00011	8d 72 04	 lea	 esi, DWORD PTR [edx+4]
  00014	3b f1		 cmp	 esi, ecx
  00016	57		 push	 edi
  00017	77 07		 ja	 SHORT $L205631
  00019	8b 2a		 mov	 ebp, DWORD PTR [edx]
  0001b	89 70 08	 mov	 DWORD PTR [eax+8], esi
  0001e	eb 05		 jmp	 SHORT $L205632
$L205631:
  00020	33 ed		 xor	 ebp, ebp
  00022	89 48 08	 mov	 DWORD PTR [eax+8], ecx
$L205632:
  00025	8b 50 08	 mov	 edx, DWORD PTR [eax+8]
  00028	8d 72 04	 lea	 esi, DWORD PTR [edx+4]
  0002b	3b f1		 cmp	 esi, ecx
  0002d	77 07		 ja	 SHORT $L205643
  0002f	8b 3a		 mov	 edi, DWORD PTR [edx]
  00031	89 70 08	 mov	 DWORD PTR [eax+8], esi
  00034	eb 05		 jmp	 SHORT $L205644
$L205643:
  00036	33 ff		 xor	 edi, edi
  00038	89 48 08	 mov	 DWORD PTR [eax+8], ecx
$L205644:
  0003b	8b 50 08	 mov	 edx, DWORD PTR [eax+8]
  0003e	8d 72 04	 lea	 esi, DWORD PTR [edx+4]
  00041	3b f1		 cmp	 esi, ecx
  00043	77 07		 ja	 SHORT $L205655
  00045	8b 12		 mov	 edx, DWORD PTR [edx]
  00047	89 70 08	 mov	 DWORD PTR [eax+8], esi
  0004a	eb 05		 jmp	 SHORT $L205656
$L205655:
  0004c	33 d2		 xor	 edx, edx
  0004e	89 48 08	 mov	 DWORD PTR [eax+8], ecx
$L205656:
  00051	8b 70 08	 mov	 esi, DWORD PTR [eax+8]
  00054	53		 push	 ebx
  00055	8d 5e 01	 lea	 ebx, DWORD PTR [esi+1]
  00058	3b d9		 cmp	 ebx, ecx
  0005a	77 0b		 ja	 SHORT $L205667
  0005c	8a 0e		 mov	 cl, BYTE PTR [esi]
  0005e	88 4c 24 18	 mov	 BYTE PTR _chState$[esp+16], cl
  00062	89 58 08	 mov	 DWORD PTR [eax+8], ebx
  00065	eb 08		 jmp	 SHORT $L205668
$L205667:
  00067	c6 44 24 18 00	 mov	 BYTE PTR _chState$[esp+16], 0
  0006c	89 48 08	 mov	 DWORD PTR [eax+8], ecx
$L205668:

; 255  : 	
; 256  : 	int nPrevPoint, nCurrPoint;
; 257  : 	nPrevPoint = nCurrPoint = 0;
; 258  : 	if( bAdd )

  0006f	85 d2		 test	 edx, edx

; 259  : 	{
; 260  : 		nCurrPoint = UpdateCampusPoint( idPlayer, nCampusPoint );

  00071	8b 4c 24 10	 mov	 ecx, DWORD PTR _this$[esp+20]
  00075	5b		 pop	 ebx
  00076	74 0d		 je	 SHORT $L203439
  00078	57		 push	 edi
  00079	55		 push	 ebp
  0007a	e8 00 00 00 00	 call	 ?UpdateCampusPoint@CCampusDBCtrl@@AAEHKH@Z ; CCampusDBCtrl::UpdateCampusPoint
  0007f	8b f0		 mov	 esi, eax

; 261  : 		nPrevPoint = nCurrPoint - nCampusPoint;

  00081	2b c7		 sub	 eax, edi

; 262  : 	}
; 263  : 	else

  00083	eb 10		 jmp	 SHORT $L203440
$L203439:

; 264  : 	{
; 265  : 		nCurrPoint = UpdateCampusPoint( idPlayer, -(nCampusPoint) );

  00085	8b d7		 mov	 edx, edi
  00087	f7 da		 neg	 edx
  00089	52		 push	 edx
  0008a	55		 push	 ebp
  0008b	e8 00 00 00 00	 call	 ?UpdateCampusPoint@CCampusDBCtrl@@AAEHKH@Z ; CCampusDBCtrl::UpdateCampusPoint
  00090	8b f0		 mov	 esi, eax

; 266  : 		nPrevPoint = nCurrPoint + nCampusPoint;

  00092	8d 04 3e	 lea	 eax, DWORD PTR [esi+edi]
$L203440:

; 267  : 	}
; 268  : 	LogUpdateCampusPoint( idPlayer, nPrevPoint, nCurrPoint, chState );

  00095	8b 4c 24 14	 mov	 ecx, DWORD PTR _chState$[esp+12]
  00099	51		 push	 ecx
  0009a	8b 4c 24 10	 mov	 ecx, DWORD PTR _this$[esp+20]
  0009e	56		 push	 esi
  0009f	50		 push	 eax
  000a0	55		 push	 ebp
  000a1	e8 00 00 00 00	 call	 ?LogUpdateCampusPoint@CCampusDBCtrl@@AAEXKHHD@Z ; CCampusDBCtrl::LogUpdateCampusPoint

; 269  : 	CDPTrans::GetInstance()->SendUpdateCampusPoint( idPlayer, nCurrPoint );

  000a6	56		 push	 esi
  000a7	55		 push	 ebp
  000a8	e8 00 00 00 00	 call	 ?GetInstance@CDPTrans@@SAPAV1@XZ ; CDPTrans::GetInstance
  000ad	8b c8		 mov	 ecx, eax
  000af	e8 00 00 00 00	 call	 ?SendUpdateCampusPoint@CDPTrans@@QAEXKH@Z ; CDPTrans::SendUpdateCampusPoint
  000b4	5f		 pop	 edi
  000b5	5e		 pop	 esi
  000b6	5d		 pop	 ebp

; 270  : }

  000b7	59		 pop	 ecx
  000b8	c2 04 00	 ret	 4
?UpdateCampusPoint@CCampusDBCtrl@@AAEXAAVCAr@@@Z ENDP	; CCampusDBCtrl::UpdateCampusPoint
_TEXT	ENDS
PUBLIC	?GetInstance@CCampusHelper@@SAPAV1@XZ		; CCampusHelper::GetInstance
EXTRN	_atexit:NEAR
;	COMDAT ?sCH@?1??GetInstance@CCampusHelper@@SAPAV2@XZ@4V2@A
_BSS	SEGMENT
?sCH@?1??GetInstance@CCampusHelper@@SAPAV2@XZ@4V2@A DB 01cH DUP (?) ; `CCampusHelper::GetInstance'::`2'::sCH
_BSS	ENDS
;	COMDAT ?$S1@?1??GetInstance@CCampusHelper@@SAPAV2@XZ@4IA
_BSS	SEGMENT
?$S1@?1??GetInstance@CCampusHelper@@SAPAV2@XZ@4IA DD 01H DUP (?) ; `CCampusHelper::GetInstance'::`2'::$S1
_BSS	ENDS
;	COMDAT xdata$x
xdata$x	SEGMENT
$T205677 DD	0ffffffffH
	DD	FLAT:$L205672
$T205674 DD	019930520H
	DD	01H
	DD	FLAT:$T205677
	DD	2 DUP(00H)
	DD	2 DUP(00H)
; Function compile flags: /Ogty
xdata$x	ENDS
;	COMDAT ?GetInstance@CCampusHelper@@SAPAV1@XZ
_TEXT	SEGMENT
__$EHRec$ = -12						; size = 12
?GetInstance@CCampusHelper@@SAPAV1@XZ PROC NEAR		; CCampusHelper::GetInstance, COMDAT

; 384  : {

  00000	64 a1 00 00 00
	00		 mov	 eax, DWORD PTR fs:__except_list

; 385  : 	static CCampusHelper sCH;

  00006	8a 0d 00 00 00
	00		 mov	 cl, BYTE PTR ?$S1@?1??GetInstance@CCampusHelper@@SAPAV2@XZ@4IA
  0000c	6a ff		 push	 -1
  0000e	68 00 00 00 00	 push	 __ehhandler$?GetInstance@CCampusHelper@@SAPAV1@XZ
  00013	50		 push	 eax
  00014	b8 01 00 00 00	 mov	 eax, 1
  00019	84 c8		 test	 cl, al
  0001b	64 89 25 00 00
	00 00		 mov	 DWORD PTR fs:__except_list, esp
  00022	75 25		 jne	 SHORT $L205675
  00024	09 05 00 00 00
	00		 or	 DWORD PTR ?$S1@?1??GetInstance@CCampusHelper@@SAPAV2@XZ@4IA, eax
  0002a	b9 00 00 00 00	 mov	 ecx, OFFSET FLAT:?sCH@?1??GetInstance@CCampusHelper@@SAPAV2@XZ@4V2@A
  0002f	c7 44 24 08 00
	00 00 00	 mov	 DWORD PTR __$EHRec$[esp+20], 0
  00037	e8 00 00 00 00	 call	 ??0CCampusHelper@@QAE@XZ ; CCampusHelper::CCampusHelper
  0003c	68 00 00 00 00	 push	 OFFSET FLAT:_$E2
  00041	e8 00 00 00 00	 call	 _atexit
  00046	83 c4 04	 add	 esp, 4
$L205675:

; 386  : 	return & sCH;
; 387  : }

  00049	8b 0c 24	 mov	 ecx, DWORD PTR __$EHRec$[esp+12]
  0004c	b8 00 00 00 00	 mov	 eax, OFFSET FLAT:?sCH@?1??GetInstance@CCampusHelper@@SAPAV2@XZ@4V2@A
  00051	64 89 0d 00 00
	00 00		 mov	 DWORD PTR fs:__except_list, ecx
  00058	83 c4 0c	 add	 esp, 12			; 0000000cH
  0005b	c3		 ret	 0
_TEXT	ENDS
;	COMDAT text$x
text$x	SEGMENT
$L205672:
  00000	a1 00 00 00 00	 mov	 eax, DWORD PTR ?$S1@?1??GetInstance@CCampusHelper@@SAPAV2@XZ@4IA
  00005	83 e0 fe	 and	 eax, -2			; fffffffeH
  00008	a3 00 00 00 00	 mov	 DWORD PTR ?$S1@?1??GetInstance@CCampusHelper@@SAPAV2@XZ@4IA, eax
  0000d	c3		 ret	 0
__ehhandler$?GetInstance@CCampusHelper@@SAPAV1@XZ:
  0000e	b8 00 00 00 00	 mov	 eax, OFFSET FLAT:$T205674
  00013	e9 00 00 00 00	 jmp	 ___CxxFrameHandler
text$x	ENDS
?GetInstance@CCampusHelper@@SAPAV1@XZ ENDP		; CCampusHelper::GetInstance
PUBLIC	?begin@?$vector@KV?$allocator@K@std@@@std@@QAE?AViterator@12@XZ ; std::vector<unsigned long,std::allocator<unsigned long> >::begin
; Function compile flags: /Ogty
; File c:\program files\microsoft visual studio .net 2003\vc7\include\vector
;	COMDAT ?begin@?$vector@KV?$allocator@K@std@@@std@@QAE?AViterator@12@XZ
_TEXT	SEGMENT
___$ReturnUdt$ = 8					; size = 4
?begin@?$vector@KV?$allocator@K@std@@@std@@QAE?AViterator@12@XZ PROC NEAR ; std::vector<unsigned long,std::allocator<unsigned long> >::begin, COMDAT
; _this$ = ecx

; 463  : 		return (iterator(_Myfirst));

  00000	8b 49 04	 mov	 ecx, DWORD PTR [ecx+4]
  00003	8b 44 24 04	 mov	 eax, DWORD PTR ___$ReturnUdt$[esp-4]
  00007	89 08		 mov	 DWORD PTR [eax], ecx

; 464  : 		}

  00009	c2 04 00	 ret	 4
?begin@?$vector@KV?$allocator@K@std@@@std@@QAE?AViterator@12@XZ ENDP ; std::vector<unsigned long,std::allocator<unsigned long> >::begin
_TEXT	ENDS
PUBLIC	?end@?$vector@KV?$allocator@K@std@@@std@@QAE?AViterator@12@XZ ; std::vector<unsigned long,std::allocator<unsigned long> >::end
; Function compile flags: /Ogty
;	COMDAT ?end@?$vector@KV?$allocator@K@std@@@std@@QAE?AViterator@12@XZ
_TEXT	SEGMENT
___$ReturnUdt$ = 8					; size = 4
?end@?$vector@KV?$allocator@K@std@@@std@@QAE?AViterator@12@XZ PROC NEAR ; std::vector<unsigned long,std::allocator<unsigned long> >::end, COMDAT
; _this$ = ecx

; 473  : 		return (iterator(_Mylast));

  00000	8b 49 08	 mov	 ecx, DWORD PTR [ecx+8]
  00003	8b 44 24 04	 mov	 eax, DWORD PTR ___$ReturnUdt$[esp-4]
  00007	89 08		 mov	 DWORD PTR [eax], ecx

; 474  : 		}

  00009	c2 04 00	 ret	 4
?end@?$vector@KV?$allocator@K@std@@@std@@QAE?AViterator@12@XZ ENDP ; std::vector<unsigned long,std::allocator<unsigned long> >::end
_TEXT	ENDS
PUBLIC	?begin@?$_Tree@V?$_Tmap_traits@KKU?$less@K@std@@V?$allocator@U?$pair@$$CBKK@std@@@2@$0A@@std@@@std@@QAE?AViterator@12@XZ ; std::_Tree<std::_Tmap_traits<unsigned long,unsigned long,std::less<unsigned long>,std::allocator<std::pair<unsigned long const ,unsigned long> >,0> >::begin
; Function compile flags: /Ogty
; File c:\program files\microsoft visual studio .net 2003\vc7\include\xtree
;	COMDAT ?begin@?$_Tree@V?$_Tmap_traits@KKU?$less@K@std@@V?$allocator@U?$pair@$$CBKK@std@@@2@$0A@@std@@@std@@QAE?AViterator@12@XZ
_TEXT	SEGMENT
___$ReturnUdt$ = 8					; size = 4
?begin@?$_Tree@V?$_Tmap_traits@KKU?$less@K@std@@V?$allocator@U?$pair@$$CBKK@std@@@2@$0A@@std@@@std@@QAE?AViterator@12@XZ PROC NEAR ; std::_Tree<std::_Tmap_traits<unsigned long,unsigned long,std::less<unsigned long>,std::allocator<std::pair<unsigned long const ,unsigned long> >,0> >::begin, COMDAT
; _this$ = ecx

; 408  : 		return (_TREE_ITERATOR(_Lmost()));

  00000	8b 41 04	 mov	 eax, DWORD PTR [ecx+4]
  00003	8b 08		 mov	 ecx, DWORD PTR [eax]
  00005	8b 44 24 04	 mov	 eax, DWORD PTR ___$ReturnUdt$[esp-4]
  00009	89 08		 mov	 DWORD PTR [eax], ecx

; 409  : 		}

  0000b	c2 04 00	 ret	 4
?begin@?$_Tree@V?$_Tmap_traits@KKU?$less@K@std@@V?$allocator@U?$pair@$$CBKK@std@@@2@$0A@@std@@@std@@QAE?AViterator@12@XZ ENDP ; std::_Tree<std::_Tmap_traits<unsigned long,unsigned long,std::less<unsigned long>,std::allocator<std::pair<unsigned long const ,unsigned long> >,0> >::begin
_TEXT	ENDS
PUBLIC	?end@?$_Tree@V?$_Tmap_traits@KKU?$less@K@std@@V?$allocator@U?$pair@$$CBKK@std@@@2@$0A@@std@@@std@@QAE?AViterator@12@XZ ; std::_Tree<std::_Tmap_traits<unsigned long,unsigned long,std::less<unsigned long>,std::allocator<std::pair<unsigned long const ,unsigned long> >,0> >::end
; Function compile flags: /Ogty
;	COMDAT ?end@?$_Tree@V?$_Tmap_traits@KKU?$less@K@std@@V?$allocator@U?$pair@$$CBKK@std@@@2@$0A@@std@@@std@@QAE?AViterator@12@XZ
_TEXT	SEGMENT
___$ReturnUdt$ = 8					; size = 4
?end@?$_Tree@V?$_Tmap_traits@KKU?$less@K@std@@V?$allocator@U?$pair@$$CBKK@std@@@2@$0A@@std@@@std@@QAE?AViterator@12@XZ PROC NEAR ; std::_Tree<std::_Tmap_traits<unsigned long,unsigned long,std::less<unsigned long>,std::allocator<std::pair<unsigned long const ,unsigned long> >,0> >::end, COMDAT
; _this$ = ecx

; 418  : 		return (_TREE_ITERATOR(_Myhead));

  00000	8b 49 04	 mov	 ecx, DWORD PTR [ecx+4]
  00003	8b 44 24 04	 mov	 eax, DWORD PTR ___$ReturnUdt$[esp-4]
  00007	89 08		 mov	 DWORD PTR [eax], ecx

; 419  : 		}

  00009	c2 04 00	 ret	 4
?end@?$_Tree@V?$_Tmap_traits@KKU?$less@K@std@@V?$allocator@U?$pair@$$CBKK@std@@@2@$0A@@std@@@std@@QAE?AViterator@12@XZ ENDP ; std::_Tree<std::_Tmap_traits<unsigned long,unsigned long,std::less<unsigned long>,std::allocator<std::pair<unsigned long const ,unsigned long> >,0> >::end
_TEXT	ENDS
PUBLIC	?_Erase@?$_Tree@V?$_Tmap_traits@KKU?$less@K@std@@V?$allocator@U?$pair@$$CBKK@std@@@2@$0A@@std@@@std@@IAEXPAU_Node@?$_Tree_nod@V?$_Tmap_traits@KKU?$less@K@std@@V?$allocator@U?$pair@$$CBKK@std@@@2@$0A@@std@@@2@@Z ; std::_Tree<std::_Tmap_traits<unsigned long,unsigned long,std::less<unsigned long>,std::allocator<std::pair<unsigned long const ,unsigned long> >,0> >::_Erase
; Function compile flags: /Ogty
;	COMDAT ?_Erase@?$_Tree@V?$_Tmap_traits@KKU?$less@K@std@@V?$allocator@U?$pair@$$CBKK@std@@@2@$0A@@std@@@std@@IAEXPAU_Node@?$_Tree_nod@V?$_Tmap_traits@KKU?$less@K@std@@V?$allocator@U?$pair@$$CBKK@std@@@2@$0A@@std@@@2@@Z
_TEXT	SEGMENT
__Rootnode$ = 8						; size = 4
?_Erase@?$_Tree@V?$_Tmap_traits@KKU?$less@K@std@@V?$allocator@U?$pair@$$CBKK@std@@@2@$0A@@std@@@std@@IAEXPAU_Node@?$_Tree_nod@V?$_Tmap_traits@KKU?$less@K@std@@V?$allocator@U?$pair@$$CBKK@std@@@2@$0A@@std@@@2@@Z PROC NEAR ; std::_Tree<std::_Tmap_traits<unsigned long,unsigned long,std::less<unsigned long>,std::allocator<std::pair<unsigned long const ,unsigned long> >,0> >::_Erase, COMDAT
; _this$ = ecx

; 890  : 		{	// free entire subtree, recursively

  00000	53		 push	 ebx
  00001	56		 push	 esi
  00002	57		 push	 edi

; 891  : 		for (_Nodeptr _Pnode = _Rootnode; !_Isnil(_Pnode); _Rootnode = _Pnode)

  00003	8b 7c 24 10	 mov	 edi, DWORD PTR __Rootnode$[esp+8]
  00007	8a 47 15	 mov	 al, BYTE PTR [edi+21]
  0000a	84 c0		 test	 al, al
  0000c	8b d9		 mov	 ebx, ecx
  0000e	8b f7		 mov	 esi, edi
  00010	75 1f		 jne	 SHORT $L204163
$L204161:

; 892  : 			{	// free subtrees, then node
; 893  : 			_Erase(_Right(_Pnode));

  00012	8b 46 08	 mov	 eax, DWORD PTR [esi+8]
  00015	50		 push	 eax
  00016	8b cb		 mov	 ecx, ebx
  00018	e8 00 00 00 00	 call	 ?_Erase@?$_Tree@V?$_Tmap_traits@KKU?$less@K@std@@V?$allocator@U?$pair@$$CBKK@std@@@2@$0A@@std@@@std@@IAEXPAU_Node@?$_Tree_nod@V?$_Tmap_traits@KKU?$less@K@std@@V?$allocator@U?$pair@$$CBKK@std@@@2@$0A@@std@@@2@@Z ; std::_Tree<std::_Tmap_traits<unsigned long,unsigned long,std::less<unsigned long>,std::allocator<std::pair<unsigned long const ,unsigned long> >,0> >::_Erase

; 894  : 			_Pnode = _Left(_Pnode);

  0001d	8b 36		 mov	 esi, DWORD PTR [esi]

; 895  : 			this->_Alnod.destroy(_Rootnode);	// destroy, free erased node
; 896  : 			this->_Alnod.deallocate(_Rootnode, 1);

  0001f	57		 push	 edi
  00020	e8 00 00 00 00	 call	 ??3@YAXPAX@Z		; operator delete
  00025	8a 46 15	 mov	 al, BYTE PTR [esi+21]
  00028	83 c4 04	 add	 esp, 4
  0002b	84 c0		 test	 al, al
  0002d	8b fe		 mov	 edi, esi
  0002f	74 e1		 je	 SHORT $L204161
$L204163:
  00031	5f		 pop	 edi
  00032	5e		 pop	 esi
  00033	5b		 pop	 ebx

; 897  : 			}
; 898  : 		}

  00034	c2 04 00	 ret	 4
?_Erase@?$_Tree@V?$_Tmap_traits@KKU?$less@K@std@@V?$allocator@U?$pair@$$CBKK@std@@@2@$0A@@std@@@std@@IAEXPAU_Node@?$_Tree_nod@V?$_Tmap_traits@KKU?$less@K@std@@V?$allocator@U?$pair@$$CBKK@std@@@2@$0A@@std@@@2@@Z ENDP ; std::_Tree<std::_Tmap_traits<unsigned long,unsigned long,std::less<unsigned long>,std::allocator<std::pair<unsigned long const ,unsigned long> >,0> >::_Erase
_TEXT	ENDS
PUBLIC	?_Lbound@?$_Tree@V?$_Tmap_traits@KKU?$less@K@std@@V?$allocator@U?$pair@$$CBKK@std@@@2@$0A@@std@@@std@@IBEPAU_Node@?$_Tree_nod@V?$_Tmap_traits@KKU?$less@K@std@@V?$allocator@U?$pair@$$CBKK@std@@@2@$0A@@std@@@2@ABK@Z ; std::_Tree<std::_Tmap_traits<unsigned long,unsigned long,std::less<unsigned long>,std::allocator<std::pair<unsigned long const ,unsigned long> >,0> >::_Lbound
; Function compile flags: /Ogty
;	COMDAT ?_Lbound@?$_Tree@V?$_Tmap_traits@KKU?$less@K@std@@V?$allocator@U?$pair@$$CBKK@std@@@2@$0A@@std@@@std@@IBEPAU_Node@?$_Tree_nod@V?$_Tmap_traits@KKU?$less@K@std@@V?$allocator@U?$pair@$$CBKK@std@@@2@$0A@@std@@@2@ABK@Z
_TEXT	SEGMENT
__Keyval$ = 8						; size = 4
?_Lbound@?$_Tree@V?$_Tmap_traits@KKU?$less@K@std@@V?$allocator@U?$pair@$$CBKK@std@@@2@$0A@@std@@@std@@IBEPAU_Node@?$_Tree_nod@V?$_Tmap_traits@KKU?$less@K@std@@V?$allocator@U?$pair@$$CBKK@std@@@2@$0A@@std@@@2@ABK@Z PROC NEAR ; std::_Tree<std::_Tmap_traits<unsigned long,unsigned long,std::less<unsigned long>,std::allocator<std::pair<unsigned long const ,unsigned long> >,0> >::_Lbound, COMDAT
; _this$ = ecx

; 988  : 		_Nodeptr _Pnode = _Root();

  00000	8b 41 04	 mov	 eax, DWORD PTR [ecx+4]
  00003	8b 48 04	 mov	 ecx, DWORD PTR [eax+4]

; 989  : 		_Nodeptr _Wherenode = _Myhead;	// end() if search fails
; 990  : 
; 991  : 		while (!_Isnil(_Pnode))

  00006	8a 51 15	 mov	 dl, BYTE PTR [ecx+21]
  00009	84 d2		 test	 dl, dl
  0000b	75 1d		 jne	 SHORT $L204170
  0000d	8b 54 24 04	 mov	 edx, DWORD PTR __Keyval$[esp-4]
  00011	8b 12		 mov	 edx, DWORD PTR [edx]
  00013	53		 push	 ebx
$L204169:

; 992  : 			if (this->comp(_Key(_Pnode), _Keyval))

  00014	39 51 0c	 cmp	 DWORD PTR [ecx+12], edx
  00017	73 05		 jae	 SHORT $L204171

; 993  : 				_Pnode = _Right(_Pnode);	// descend right subtree

  00019	8b 49 08	 mov	 ecx, DWORD PTR [ecx+8]

; 994  : 			else

  0001c	eb 04		 jmp	 SHORT $L204172
$L204171:

; 995  : 				{	// _Pnode not less than _Keyval, remember it
; 996  : 				_Wherenode = _Pnode;

  0001e	8b c1		 mov	 eax, ecx

; 997  : 				_Pnode = _Left(_Pnode);	// descend left subtree

  00020	8b 09		 mov	 ecx, DWORD PTR [ecx]
$L204172:
  00022	8a 59 15	 mov	 bl, BYTE PTR [ecx+21]
  00025	84 db		 test	 bl, bl
  00027	74 eb		 je	 SHORT $L204169
  00029	5b		 pop	 ebx
$L204170:

; 998  : 				}
; 999  : 
; 1000 : 		return (_Wherenode);	// return best remembered candidate
; 1001 : 		}

  0002a	c2 04 00	 ret	 4
?_Lbound@?$_Tree@V?$_Tmap_traits@KKU?$less@K@std@@V?$allocator@U?$pair@$$CBKK@std@@@2@$0A@@std@@@std@@IBEPAU_Node@?$_Tree_nod@V?$_Tmap_traits@KKU?$less@K@std@@V?$allocator@U?$pair@$$CBKK@std@@@2@$0A@@std@@@2@ABK@Z ENDP ; std::_Tree<std::_Tmap_traits<unsigned long,unsigned long,std::less<unsigned long>,std::allocator<std::pair<unsigned long const ,unsigned long> >,0> >::_Lbound
_TEXT	ENDS
PUBLIC	?_Ubound@?$_Tree@V?$_Tmap_traits@KKU?$less@K@std@@V?$allocator@U?$pair@$$CBKK@std@@@2@$0A@@std@@@std@@IBEPAU_Node@?$_Tree_nod@V?$_Tmap_traits@KKU?$less@K@std@@V?$allocator@U?$pair@$$CBKK@std@@@2@$0A@@std@@@2@ABK@Z ; std::_Tree<std::_Tmap_traits<unsigned long,unsigned long,std::less<unsigned long>,std::allocator<std::pair<unsigned long const ,unsigned long> >,0> >::_Ubound
; Function compile flags: /Ogty
;	COMDAT ?_Ubound@?$_Tree@V?$_Tmap_traits@KKU?$less@K@std@@V?$allocator@U?$pair@$$CBKK@std@@@2@$0A@@std@@@std@@IBEPAU_Node@?$_Tree_nod@V?$_Tmap_traits@KKU?$less@K@std@@V?$allocator@U?$pair@$$CBKK@std@@@2@$0A@@std@@@2@ABK@Z
_TEXT	SEGMENT
__Keyval$ = 8						; size = 4
?_Ubound@?$_Tree@V?$_Tmap_traits@KKU?$less@K@std@@V?$allocator@U?$pair@$$CBKK@std@@@2@$0A@@std@@@std@@IBEPAU_Node@?$_Tree_nod@V?$_Tmap_traits@KKU?$less@K@std@@V?$allocator@U?$pair@$$CBKK@std@@@2@$0A@@std@@@2@ABK@Z PROC NEAR ; std::_Tree<std::_Tmap_traits<unsigned long,unsigned long,std::less<unsigned long>,std::allocator<std::pair<unsigned long const ,unsigned long> >,0> >::_Ubound, COMDAT
; _this$ = ecx

; 1089 : 		_Nodeptr _Pnode = _Root();

  00000	8b 41 04	 mov	 eax, DWORD PTR [ecx+4]
  00003	8b 48 04	 mov	 ecx, DWORD PTR [eax+4]

; 1090 : 		_Nodeptr _Wherenode = _Myhead;	// end() if search fails
; 1091 : 
; 1092 : 		while (!_Isnil(_Pnode))

  00006	8a 51 15	 mov	 dl, BYTE PTR [ecx+21]
  00009	84 d2		 test	 dl, dl
  0000b	75 1d		 jne	 SHORT $L204209
  0000d	8b 54 24 04	 mov	 edx, DWORD PTR __Keyval$[esp-4]
  00011	8b 12		 mov	 edx, DWORD PTR [edx]
  00013	53		 push	 ebx
$L204208:

; 1093 : 			if (this->comp(_Keyval, _Key(_Pnode)))

  00014	3b 51 0c	 cmp	 edx, DWORD PTR [ecx+12]
  00017	73 06		 jae	 SHORT $L204210

; 1094 : 				{	// _Pnode greater than _Keyval, remember it
; 1095 : 				_Wherenode = _Pnode;

  00019	8b c1		 mov	 eax, ecx

; 1096 : 				_Pnode = _Left(_Pnode);	// descend left subtree

  0001b	8b 09		 mov	 ecx, DWORD PTR [ecx]

; 1097 : 				}
; 1098 : 			else

  0001d	eb 03		 jmp	 SHORT $L204211
$L204210:

; 1099 : 				_Pnode = _Right(_Pnode);	// descend right subtree

  0001f	8b 49 08	 mov	 ecx, DWORD PTR [ecx+8]
$L204211:

; 1090 : 		_Nodeptr _Wherenode = _Myhead;	// end() if search fails
; 1091 : 
; 1092 : 		while (!_Isnil(_Pnode))

  00022	8a 59 15	 mov	 bl, BYTE PTR [ecx+21]
  00025	84 db		 test	 bl, bl
  00027	74 eb		 je	 SHORT $L204208
  00029	5b		 pop	 ebx
$L204209:

; 1100 : 
; 1101 : 		return (_Wherenode);	// return best remembered candidate
; 1102 : 		}

  0002a	c2 04 00	 ret	 4
