; Listing generated by Microsoft (R) Optimizing Compiler Version 13.10.6030 

	TITLE	\Documents and Settings\test\Mes documents\Source\Virtuos_v17\Build\Program\_Network\Net\Src\clientsock.cpp
	.386P
include listing.inc
if @Version gt 510
.model FLAT
else
_TEXT	SEGMENT PARA USE32 PUBLIC 'CODE'
_TEXT	ENDS
_DATA	SEGMENT DWORD USE32 PUBLIC 'DATA'
_DATA	ENDS
CONST	SEGMENT DWORD USE32 PUBLIC 'CONST'
CONST	ENDS
_BSS	SEGMENT DWORD USE32 PUBLIC 'BSS'
_BSS	ENDS
$$SYMBOLS	SEGMENT BYTE USE32 'DEBSYM'
$$SYMBOLS	ENDS
_TLS	SEGMENT DWORD USE32 PUBLIC 'TLS'
_TLS	ENDS
;	COMDAT ??_C@_0CI@ODKLMECE@CClientSocket?4Fetch?3?5ip?5?$DN?5?$CFs?0?5si@
CONST	SEGMENT DWORD USE32 PUBLIC 'CONST'
CONST	ENDS
;	COMDAT ??_C@_0M@PCENNPGA@?$CFd?4?$CFd?4?$CFd?4?$CFd?$AA@
CONST	SEGMENT DWORD USE32 PUBLIC 'CONST'
CONST	ENDS
text$yc	SEGMENT PARA USE32 PUBLIC 'CODE'
text$yc	ENDS
CRT$XCA	SEGMENT DWORD USE32 PUBLIC 'DATA'
CRT$XCA	ENDS
CRT$XCU	SEGMENT DWORD USE32 PUBLIC 'DATA'
CRT$XCU	ENDS
CRT$XCL	SEGMENT DWORD USE32 PUBLIC 'DATA'
CRT$XCL	ENDS
CRT$XCC	SEGMENT DWORD USE32 PUBLIC 'DATA'
CRT$XCC	ENDS
CRT$XCZ	SEGMENT DWORD USE32 PUBLIC 'DATA'
CRT$XCZ	ENDS
xdata$x	SEGMENT DWORD USE32 PUBLIC 'CONST'
xdata$x	ENDS
;	COMDAT _$E1
text$yc	SEGMENT PARA USE32 PUBLIC 'CODE'
text$yc	ENDS
;	COMDAT ??0CClientSock@@QAE@W4BUFFER_TYPE@@@Z
_TEXT	SEGMENT PARA USE32 PUBLIC 'CODE'
_TEXT	ENDS
;	COMDAT ??_GCClientSock@@UAEPAXI@Z
_TEXT	SEGMENT PARA USE32 PUBLIC 'CODE'
_TEXT	ENDS
;	COMDAT ??1CClientSock@@UAE@XZ
_TEXT	SEGMENT PARA USE32 PUBLIC 'CODE'
_TEXT	ENDS
;	COMDAT ?Close@CClientSock@@UAEXXZ
_TEXT	SEGMENT PARA USE32 PUBLIC 'CODE'
_TEXT	ENDS
;	COMDAT ?CloseConnection@CClientSock@@UAEHI@Z
_TEXT	SEGMENT PARA USE32 PUBLIC 'CODE'
_TEXT	ENDS
;	COMDAT ?Shutdown@CClientSock@@UAEHI@Z
_TEXT	SEGMENT PARA USE32 PUBLIC 'CODE'
_TEXT	ENDS
;	COMDAT ?Connect@CClientSock@@QAEHPADG@Z
_TEXT	SEGMENT PARA USE32 PUBLIC 'CODE'
_TEXT	ENDS
;	COMDAT ?Send@CClientSock@@UAEXPADKK@Z
_TEXT	SEGMENT PARA USE32 PUBLIC 'CODE'
_TEXT	ENDS
;	COMDAT ?Recv@CClientSock@@QAEHXZ
_TEXT	SEGMENT PARA USE32 PUBLIC 'CODE'
_TEXT	ENDS
;	COMDAT ?SendRemnant@CClientSock@@QAEHK@Z
_TEXT	SEGMENT PARA USE32 PUBLIC 'CODE'
_TEXT	ENDS
;	COMDAT ?Fetch@CClientSock@@QAEPAVCBuffer@@K@Z
_TEXT	SEGMENT PARA USE32 PUBLIC 'CODE'
_TEXT	ENDS
;	COMDAT ?GetPeerAddr@CClientSock@@UAEJKPAXPAK@Z
_TEXT	SEGMENT PARA USE32 PUBLIC 'CODE'
_TEXT	ENDS
;	COMDAT ?CreateBuffer@CClientSock@@QAEPAVCBuffer@@XZ
_TEXT	SEGMENT PARA USE32 PUBLIC 'CODE'
_TEXT	ENDS
;	COMDAT ?compare@?$basic_string@DU?$char_traits@D@std@@V?$allocator@D@2@@std@@QBEHABV12@@Z
_TEXT	SEGMENT PARA USE32 PUBLIC 'CODE'
_TEXT	ENDS
;	COMDAT ??0?$MemPooler@VCClientSock@@@@QAE@H@Z
_TEXT	SEGMENT PARA USE32 PUBLIC 'CODE'
_TEXT	ENDS
;	COMDAT ?compare@?$basic_string@DU?$char_traits@D@std@@V?$allocator@D@2@@std@@QBEHIIPBDI@Z
_TEXT	SEGMENT PARA USE32 PUBLIC 'CODE'
_TEXT	ENDS
;	COMDAT ??0?$list@PAXV?$allocator@PAX@std@@@std@@QAE@XZ
_TEXT	SEGMENT PARA USE32 PUBLIC 'CODE'
_TEXT	ENDS
;	COMDAT ??1?$list@PAXV?$allocator@PAX@std@@@std@@QAE@XZ
_TEXT	SEGMENT PARA USE32 PUBLIC 'CODE'
_TEXT	ENDS
;	COMDAT ??0?$allocator@PAX@std@@QAE@XZ
_TEXT	SEGMENT PARA USE32 PUBLIC 'CODE'
_TEXT	ENDS
;	COMDAT ?_Buynode@?$list@PAXV?$allocator@PAX@std@@@std@@IAEPAU_Node@?$_List_nod@PAXV?$allocator@PAX@std@@@2@XZ
_TEXT	SEGMENT PARA USE32 PUBLIC 'CODE'
_TEXT	ENDS
;	COMDAT ?_Tidy@?$list@PAXV?$allocator@PAX@std@@@std@@IAEXXZ
_TEXT	SEGMENT PARA USE32 PUBLIC 'CODE'
_TEXT	ENDS
;	COMDAT ??0?$_List_val@PAXV?$allocator@PAX@std@@@std@@IAE@V?$allocator@PAX@1@@Z
_TEXT	SEGMENT PARA USE32 PUBLIC 'CODE'
_TEXT	ENDS
;	COMDAT ??0?$allocator@PAX@std@@QAE@ABV01@@Z
_TEXT	SEGMENT PARA USE32 PUBLIC 'CODE'
_TEXT	ENDS
;	COMDAT ?clear@?$list@PAXV?$allocator@PAX@std@@@std@@QAEXXZ
_TEXT	SEGMENT PARA USE32 PUBLIC 'CODE'
_TEXT	ENDS
;	COMDAT ??0?$_List_ptr@PAXV?$allocator@PAX@std@@@std@@IAE@V?$allocator@PAX@1@@Z
_TEXT	SEGMENT PARA USE32 PUBLIC 'CODE'
_TEXT	ENDS
;	COMDAT ?construct@?$allocator@PAU_Node@?$_List_nod@PAXV?$allocator@PAX@std@@@std@@@std@@QAEXPAPAU_Node@?$_List_nod@PAXV?$allocator@PAX@std@@@2@ABQAU342@@Z
_TEXT	SEGMENT PARA USE32 PUBLIC 'CODE'
_TEXT	ENDS
;	COMDAT ?destroy@?$allocator@PAU_Node@?$_List_nod@PAXV?$allocator@PAX@std@@@std@@@std@@QAEXPAPAU_Node@?$_List_nod@PAXV?$allocator@PAX@std@@@2@@Z
_TEXT	SEGMENT PARA USE32 PUBLIC 'CODE'
_TEXT	ENDS
;	COMDAT ??0?$_List_nod@PAXV?$allocator@PAX@std@@@std@@IAE@V?$allocator@PAX@1@@Z
_TEXT	SEGMENT PARA USE32 PUBLIC 'CODE'
_TEXT	ENDS
;	COMDAT ?destroy@?$allocator@U_Node@?$_List_nod@PAXV?$allocator@PAX@std@@@std@@@std@@QAEXPAU_Node@?$_List_nod@PAXV?$allocator@PAX@std@@@2@@Z
_TEXT	SEGMENT PARA USE32 PUBLIC 'CODE'
_TEXT	ENDS
;	COMDAT ??$_Iter_cat@Viterator@?$_Tree@V?$_Tmap_traits@KU_Friend@@U?$less@K@std@@V?$allocator@U?$pair@$$CBKU_Friend@@@std@@@3@$0A@@std@@@std@@@std@@YA?AUbidirectional_iterator_tag@0@ABViterator@?$_Tree@V?$_Tmap_traits@KU_Friend@@U?$less@K@std@@V?$allocator@U?$pair@$$CBKU_Friend@@@std@@@3@$0A@@std@@@0@@Z
_TEXT	SEGMENT PARA USE32 PUBLIC 'CODE'
_TEXT	ENDS
;	COMDAT ??$_Distance2@Viterator@?$_Tree@V?$_Tmap_traits@KU_Friend@@U?$less@K@std@@V?$allocator@U?$pair@$$CBKU_Friend@@@std@@@3@$0A@@std@@@std@@I@std@@YAXViterator@?$_Tree@V?$_Tmap_traits@KU_Friend@@U?$less@K@std@@V?$allocator@U?$pair@$$CBKU_Friend@@@std@@@3@$0A@@std@@@0@0AAIUbidirectional_iterator_tag@0@@Z
_TEXT	SEGMENT PARA USE32 PUBLIC 'CODE'
_TEXT	ENDS
;	COMDAT ??$_Copy_opt@PAJPAJ@std@@YAPAJPAJ00U_Scalar_ptr_iterator_tag@0@@Z
_TEXT	SEGMENT PARA USE32 PUBLIC 'CODE'
_TEXT	ENDS
;	COMDAT ??$_Uninitialized_copy@PAJPAJV?$allocator@J@std@@@std@@YAPAJPAJ00AAV?$allocator@J@0@@Z
_TEXT	SEGMENT PARA USE32 PUBLIC 'CODE'
_TEXT	ENDS
;	COMDAT ??$_Copy_backward_opt@PAJPAJ@std@@YAPAJPAJ00U_Scalar_ptr_iterator_tag@0@@Z
_TEXT	SEGMENT PARA USE32 PUBLIC 'CODE'
_TEXT	ENDS
;	COMDAT ??$_Ptr_cat@PAUtagDROPITEM@@PAU1@@std@@YA?AU_Nonscalar_ptr_iterator_tag@0@AAPAUtagDROPITEM@@0@Z
_TEXT	SEGMENT PARA USE32 PUBLIC 'CODE'
_TEXT	ENDS
;	COMDAT ??$_Destroy_range@UtagDROPITEM@@V?$allocator@UtagDROPITEM@@@std@@@std@@YAXPAUtagDROPITEM@@0AAV?$allocator@UtagDROPITEM@@@0@U_Nonscalar_ptr_iterator_tag@0@@Z
_TEXT	SEGMENT PARA USE32 PUBLIC 'CODE'
_TEXT	ENDS
;	COMDAT ??$_Destroy_range@KV?$allocator@K@std@@@std@@YAXPAK0AAV?$allocator@K@0@U_Scalar_ptr_iterator_tag@0@@Z
_TEXT	SEGMENT PARA USE32 PUBLIC 'CODE'
_TEXT	ENDS
;	COMDAT ??$_Destroy_range@JV?$allocator@J@std@@@std@@YAXPAJ0AAV?$allocator@J@0@U_Scalar_ptr_iterator_tag@0@@Z
_TEXT	SEGMENT PARA USE32 PUBLIC 'CODE'
_TEXT	ENDS
;	COMDAT ??$_Uninit_fill_n@JIJ@std@@YAXPAJIABJAAV?$allocator@J@0@U_Scalar_ptr_iterator_tag@0@@Z
_TEXT	SEGMENT PARA USE32 PUBLIC 'CODE'
_TEXT	ENDS
;	COMDAT ??$?0PAX@?$allocator@PAU_Node@?$_List_nod@PAXV?$allocator@PAX@std@@@std@@@std@@QAE@ABV?$allocator@PAX@1@@Z
_TEXT	SEGMENT PARA USE32 PUBLIC 'CODE'
_TEXT	ENDS
;	COMDAT ??$_Construct@PAU_Node@?$_List_nod@PAXV?$allocator@PAX@std@@@std@@PAU123@@std@@YAXPAPAU_Node@?$_List_nod@PAXV?$allocator@PAX@std@@@0@ABQAU120@@Z
_TEXT	SEGMENT PARA USE32 PUBLIC 'CODE'
_TEXT	ENDS
;	COMDAT ??$_Destroy@PAU_Node@?$_List_nod@PAXV?$allocator@PAX@std@@@std@@@std@@YAXPAPAU_Node@?$_List_nod@PAXV?$allocator@PAX@std@@@0@@Z
_TEXT	SEGMENT PARA USE32 PUBLIC 'CODE'
_TEXT	ENDS
;	COMDAT ??$?0PAX@?$allocator@U_Node@?$_List_nod@PAXV?$allocator@PAX@std@@@std@@@std@@QAE@ABV?$allocator@PAX@1@@Z
_TEXT	SEGMENT PARA USE32 PUBLIC 'CODE'
_TEXT	ENDS
;	COMDAT ??$_Destroy@U_Node@?$_List_nod@PAXV?$allocator@PAX@std@@@std@@@std@@YAXPAU_Node@?$_List_nod@PAXV?$allocator@PAX@std@@@0@@Z
_TEXT	SEGMENT PARA USE32 PUBLIC 'CODE'
_TEXT	ENDS
;	COMDAT ?destroy@?$allocator@UtagDROPITEM@@@std@@QAEXPAUtagDROPITEM@@@Z
_TEXT	SEGMENT PARA USE32 PUBLIC 'CODE'
_TEXT	ENDS
;	COMDAT ??$_Uninit_copy@JJ@std@@YAPAJPAJ00AAV?$allocator@J@0@U_Scalar_ptr_iterator_tag@0@@Z
_TEXT	SEGMENT PARA USE32 PUBLIC 'CODE'
_TEXT	ENDS
;	COMDAT ??$fill_n@PAJIJ@std@@YAXPAJIABJ@Z
_TEXT	SEGMENT PARA USE32 PUBLIC 'CODE'
_TEXT	ENDS
;	COMDAT ??$_Destroy@UtagDROPITEM@@@std@@YAXPAUtagDROPITEM@@@Z
_TEXT	SEGMENT PARA USE32 PUBLIC 'CODE'
_TEXT	ENDS
;	COMDAT ?Get@CSock@@UAEPAV1@I@Z
_TEXT	SEGMENT PARA USE32 PUBLIC 'CODE'
_TEXT	ENDS
;	COMDAT ?GetPeerAddr@CClientSock@@UAEKK@Z
_TEXT	SEGMENT PARA USE32 PUBLIC 'CODE'
_TEXT	ENDS
;	COMDAT ??2@YAPAXIPAX@Z
_TEXT	SEGMENT PARA USE32 PUBLIC 'CODE'
_TEXT	ENDS
;	COMDAT ?_Ptr_cat@std@@YA?AU_Scalar_ptr_iterator_tag@1@PAJ0@Z
_TEXT	SEGMENT PARA USE32 PUBLIC 'CODE'
_TEXT	ENDS
;	COMDAT ??9const_iterator@?$_Tree@V?$_Tmap_traits@KU_Friend@@U?$less@K@std@@V?$allocator@U?$pair@$$CBKU_Friend@@@std@@@3@$0A@@std@@@std@@QBE_NABV012@@Z
_TEXT	SEGMENT PARA USE32 PUBLIC 'CODE'
_TEXT	ENDS
;	COMDAT ??8const_iterator@?$_Tree@V?$_Tmap_traits@KU_Friend@@U?$less@K@std@@V?$allocator@U?$pair@$$CBKU_Friend@@@std@@@3@$0A@@std@@@std@@QBE_NABV012@@Z
_TEXT	SEGMENT PARA USE32 PUBLIC 'CODE'
_TEXT	ENDS
;	COMDAT ??Eiterator@?$_Tree@V?$_Tmap_traits@KU_Friend@@U?$less@K@std@@V?$allocator@U?$pair@$$CBKU_Friend@@@std@@@3@$0A@@std@@@std@@QAEAAV012@XZ
_TEXT	SEGMENT PARA USE32 PUBLIC 'CODE'
_TEXT	ENDS
;	COMDAT ??Econst_iterator@?$_Tree@V?$_Tmap_traits@KU_Friend@@U?$less@K@std@@V?$allocator@U?$pair@$$CBKU_Friend@@@std@@@3@$0A@@std@@@std@@QAEAAV012@XZ
_TEXT	SEGMENT PARA USE32 PUBLIC 'CODE'
_TEXT	ENDS
;	COMDAT ?_Inc@const_iterator@?$_Tree@V?$_Tmap_traits@KU_Friend@@U?$less@K@std@@V?$allocator@U?$pair@$$CBKU_Friend@@@std@@@3@$0A@@std@@@std@@QAEXXZ
_TEXT	SEGMENT PARA USE32 PUBLIC 'CODE'
_TEXT	ENDS
;	COMDAT ?_Min@?$_Tree@V?$_Tmap_traits@KU_Friend@@U?$less@K@std@@V?$allocator@U?$pair@$$CBKU_Friend@@@std@@@3@$0A@@std@@@std@@KAPAU_Node@?$_Tree_nod@V?$_Tmap_traits@KU_Friend@@U?$less@K@std@@V?$allocator@U?$pair@$$CBKU_Friend@@@std@@@3@$0A@@std@@@2@PAU342@@Z
_TEXT	SEGMENT PARA USE32 PUBLIC 'CODE'
_TEXT	ENDS
;	COMDAT ?_Left@?$_Tree@V?$_Tmap_traits@KU_Friend@@U?$less@K@std@@V?$allocator@U?$pair@$$CBKU_Friend@@@std@@@3@$0A@@std@@@std@@KAAAPAU_Node@?$_Tree_nod@V?$_Tmap_traits@KU_Friend@@U?$less@K@std@@V?$allocator@U?$pair@$$CBKU_Friend@@@std@@@3@$0A@@std@@@2@PAU342@@Z
_TEXT	SEGMENT PARA USE32 PUBLIC 'CODE'
_TEXT	ENDS
;	COMDAT ?_Isnil@?$_Tree@V?$_Tmap_traits@KU_Friend@@U?$less@K@std@@V?$allocator@U?$pair@$$CBKU_Friend@@@std@@@3@$0A@@std@@@std@@KAAADPAU_Node@?$_Tree_nod@V?$_Tmap_traits@KU_Friend@@U?$less@K@std@@V?$allocator@U?$pair@$$CBKU_Friend@@@std@@@3@$0A@@std@@@2@@Z
_TEXT	SEGMENT PARA USE32 PUBLIC 'CODE'
_TEXT	ENDS
;	COMDAT ?_Parent@?$_Tree@V?$_Tmap_traits@KU_Friend@@U?$less@K@std@@V?$allocator@U?$pair@$$CBKU_Friend@@@std@@@3@$0A@@std@@@std@@KAAAPAU_Node@?$_Tree_nod@V?$_Tmap_traits@KU_Friend@@U?$less@K@std@@V?$allocator@U?$pair@$$CBKU_Friend@@@std@@@3@$0A@@std@@@2@PAU342@@Z
_TEXT	SEGMENT PARA USE32 PUBLIC 'CODE'
_TEXT	ENDS
;	COMDAT ?_Right@?$_Tree@V?$_Tmap_traits@KU_Friend@@U?$less@K@std@@V?$allocator@U?$pair@$$CBKU_Friend@@@std@@@3@$0A@@std@@@std@@KAAAPAU_Node@?$_Tree_nod@V?$_Tmap_traits@KU_Friend@@U?$less@K@std@@V?$allocator@U?$pair@$$CBKU_Friend@@@std@@@3@$0A@@std@@@2@PAU342@@Z
_TEXT	SEGMENT PARA USE32 PUBLIC 'CODE'
_TEXT	ENDS
;	COMDAT ?_Psave@?$_Facetptr@V?$ctype@G@std@@@std@@2PBVfacet@locale@2@B
_DATA	SEGMENT DWORD USE32 PUBLIC 'DATA'
_DATA	ENDS
;	COMDAT ?_Psave@?$_Facetptr@V?$ctype@D@std@@@std@@2PBVfacet@locale@2@B
_DATA	SEGMENT DWORD USE32 PUBLIC 'DATA'
_DATA	ENDS
;	COMDAT ?deallocate@?$allocator@U_Node@?$_List_nod@PAXV?$allocator@PAX@std@@@std@@@std@@QAEXPAU_Node@?$_List_nod@PAXV?$allocator@PAX@std@@@2@I@Z
_TEXT	SEGMENT PARA USE32 PUBLIC 'CODE'
_TEXT	ENDS
;	COMDAT ?_Prevnode@?$list@PAXV?$allocator@PAX@std@@@std@@KAAAPAU_Node@?$_List_nod@PAXV?$allocator@PAX@std@@@2@PAU342@@Z
_TEXT	SEGMENT PARA USE32 PUBLIC 'CODE'
_TEXT	ENDS
;	COMDAT ?_Nextnode@?$list@PAXV?$allocator@PAX@std@@@std@@KAAAPAU_Node@?$_List_nod@PAXV?$allocator@PAX@std@@@2@PAU342@@Z
_TEXT	SEGMENT PARA USE32 PUBLIC 'CODE'
_TEXT	ENDS
;	COMDAT ?allocate@?$allocator@U_Node@?$_List_nod@PAXV?$allocator@PAX@std@@@std@@@std@@QAEPAU_Node@?$_List_nod@PAXV?$allocator@PAX@std@@@2@I@Z
_TEXT	SEGMENT PARA USE32 PUBLIC 'CODE'
_TEXT	ENDS
;	COMDAT ??$_Allocate@U_Node@?$_List_nod@PAXV?$allocator@PAX@std@@@std@@@std@@YAPAU_Node@?$_List_nod@PAXV?$allocator@PAX@std@@@0@IPAU120@@Z
_TEXT	SEGMENT PARA USE32 PUBLIC 'CODE'
_TEXT	ENDS
;	COMDAT ?compare@?$char_traits@D@std@@SAHPBD0I@Z
_TEXT	SEGMENT PARA USE32 PUBLIC 'CODE'
_TEXT	ENDS
;	COMDAT ?Create@?$MemPooler@VCClientSock@@@@IAEXXZ
_TEXT	SEGMENT PARA USE32 PUBLIC 'CODE'
_TEXT	ENDS
;	COMDAT ??_C@_09PKKCPLIP@bad?5alloc?$AA@
CONST	SEGMENT DWORD USE32 PUBLIC 'CONST'
CONST	ENDS
;	COMDAT ?push_back@?$list@PAXV?$allocator@PAX@std@@@std@@QAEXABQAX@Z
_TEXT	SEGMENT PARA USE32 PUBLIC 'CODE'
_TEXT	ENDS
;	COMDAT ?_Insert@?$list@PAXV?$allocator@PAX@std@@@std@@QAEXViterator@12@ABQAX@Z
_TEXT	SEGMENT PARA USE32 PUBLIC 'CODE'
_TEXT	ENDS
;	COMDAT ?_Mynode@const_iterator@?$list@PAXV?$allocator@PAX@std@@@std@@QBEPAU_Node@?$_List_nod@PAXV?$allocator@PAX@std@@@3@XZ
_TEXT	SEGMENT PARA USE32 PUBLIC 'CODE'
_TEXT	ENDS
;	COMDAT ?_Buynode@?$list@PAXV?$allocator@PAX@std@@@std@@IAEPAU_Node@?$_List_nod@PAXV?$allocator@PAX@std@@@2@PAU342@0ABQAX@Z
_TEXT	SEGMENT PARA USE32 PUBLIC 'CODE'
_TEXT	ENDS
;	COMDAT ??3@YAXPAX0@Z
_TEXT	SEGMENT PARA USE32 PUBLIC 'CODE'
_TEXT	ENDS
;	COMDAT ??0_Node@?$_List_nod@PAXV?$allocator@PAX@std@@@std@@QAE@PAU012@0ABQAX@Z
_TEXT	SEGMENT PARA USE32 PUBLIC 'CODE'
_TEXT	ENDS
;	COMDAT ?_Incsize@?$list@PAXV?$allocator@PAX@std@@@std@@IAEXI@Z
_TEXT	SEGMENT PARA USE32 PUBLIC 'CODE'
_TEXT	ENDS
;	COMDAT ?max_size@?$list@PAXV?$allocator@PAX@std@@@std@@QBEIXZ
_TEXT	SEGMENT PARA USE32 PUBLIC 'CODE'
_TEXT	ENDS
;	COMDAT ?max_size@?$allocator@PAX@std@@QBEIXZ
_TEXT	SEGMENT PARA USE32 PUBLIC 'CODE'
_TEXT	ENDS
;	COMDAT ??0length_error@std@@QAE@ABV?$basic_string@DU?$char_traits@D@std@@V?$allocator@D@2@@1@@Z
_TEXT	SEGMENT PARA USE32 PUBLIC 'CODE'
_TEXT	ENDS
;	COMDAT ??0logic_error@std@@QAE@ABV?$basic_string@DU?$char_traits@D@std@@V?$allocator@D@2@@1@@Z
_TEXT	SEGMENT PARA USE32 PUBLIC 'CODE'
_TEXT	ENDS
;	COMDAT ??_7logic_error@std@@6B@
CONST	SEGMENT DWORD USE32 PUBLIC 'CONST'
CONST	ENDS
;	COMDAT ??_Glogic_error@std@@UAEPAXI@Z
_TEXT	SEGMENT PARA USE32 PUBLIC 'CODE'
_TEXT	ENDS
;	COMDAT ?what@logic_error@std@@UBEPBDXZ
_TEXT	SEGMENT PARA USE32 PUBLIC 'CODE'
_TEXT	ENDS
;	COMDAT ?c_str@?$basic_string@DU?$char_traits@D@std@@V?$allocator@D@2@@std@@QBEPBDXZ
_TEXT	SEGMENT PARA USE32 PUBLIC 'CODE'
_TEXT	ENDS
;	COMDAT ??0?$basic_string@DU?$char_traits@D@std@@V?$allocator@D@2@@std@@QAE@ABV01@@Z
_TEXT	SEGMENT PARA USE32 PUBLIC 'CODE'
_TEXT	ENDS
;	COMDAT ??0?$_String_val@DV?$allocator@D@std@@@std@@IAE@V?$allocator@D@1@@Z
_TEXT	SEGMENT PARA USE32 PUBLIC 'CODE'
_TEXT	ENDS
;	COMDAT ??0?$allocator@D@std@@QAE@ABV01@@Z
_TEXT	SEGMENT PARA USE32 PUBLIC 'CODE'
_TEXT	ENDS
;	COMDAT ?_Tidy@?$basic_string@DU?$char_traits@D@std@@V?$allocator@D@2@@std@@IAEX_NI@Z
_TEXT	SEGMENT PARA USE32 PUBLIC 'CODE'
_TEXT	ENDS
;	COMDAT ?copy@?$char_traits@D@std@@SAPADPADPBDI@Z
_TEXT	SEGMENT PARA USE32 PUBLIC 'CODE'
_TEXT	ENDS
;	COMDAT ?deallocate@?$allocator@D@std@@QAEXPADI@Z
_TEXT	SEGMENT PARA USE32 PUBLIC 'CODE'
_TEXT	ENDS
;	COMDAT ?_Eos@?$basic_string@DU?$char_traits@D@std@@V?$allocator@D@2@@std@@IAEXI@Z
_TEXT	SEGMENT PARA USE32 PUBLIC 'CODE'
_TEXT	ENDS
;	COMDAT ?assign@?$char_traits@D@std@@SAXAADABD@Z
_TEXT	SEGMENT PARA USE32 PUBLIC 'CODE'
_TEXT	ENDS
;	COMDAT ?_Myptr@?$basic_string@DU?$char_traits@D@std@@V?$allocator@D@2@@std@@QAEPADXZ
_TEXT	SEGMENT PARA USE32 PUBLIC 'CODE'
_TEXT	ENDS
;	COMDAT ?assign@?$basic_string@DU?$char_traits@D@std@@V?$allocator@D@2@@std@@QAEAAV12@ABV12@II@Z
_TEXT	SEGMENT PARA USE32 PUBLIC 'CODE'
_TEXT	ENDS
;	COMDAT ?erase@?$basic_string@DU?$char_traits@D@std@@V?$allocator@D@2@@std@@QAEAAV12@II@Z
_TEXT	SEGMENT PARA USE32 PUBLIC 'CODE'
_TEXT	ENDS
;	COMDAT ?move@?$char_traits@D@std@@SAPADPADPBDI@Z
_TEXT	SEGMENT PARA USE32 PUBLIC 'CODE'
_TEXT	ENDS
;	COMDAT ?_Grow@?$basic_string@DU?$char_traits@D@std@@V?$allocator@D@2@@std@@IAE_NI_N@Z
_TEXT	SEGMENT PARA USE32 PUBLIC 'CODE'
_TEXT	ENDS
;	COMDAT ?max_size@?$basic_string@DU?$char_traits@D@std@@V?$allocator@D@2@@std@@QBEIXZ
_TEXT	SEGMENT PARA USE32 PUBLIC 'CODE'
_TEXT	ENDS
;	COMDAT ?max_size@?$allocator@D@std@@QBEIXZ
_TEXT	SEGMENT PARA USE32 PUBLIC 'CODE'
_TEXT	ENDS
;	COMDAT ?_Copy@?$basic_string@DU?$char_traits@D@std@@V?$allocator@D@2@@std@@IAEXII@Z
_TEXT	SEGMENT PARA USE32 PUBLIC 'CODE'
_TEXT	ENDS
;	COMDAT ?allocate@?$allocator@D@std@@QAEPADI@Z
_TEXT	SEGMENT PARA USE32 PUBLIC 'CODE'
_TEXT	ENDS
;	COMDAT ??$_Allocate@D@std@@YAPADIPAD@Z
_TEXT	SEGMENT PARA USE32 PUBLIC 'CODE'
_TEXT	ENDS
;	COMDAT ?npos@?$basic_string@DU?$char_traits@D@std@@V?$allocator@D@2@@std@@2IB
CONST	SEGMENT DWORD USE32 PUBLIC 'CONST'
CONST	ENDS
;	COMDAT ??1logic_error@std@@UAE@XZ
_TEXT	SEGMENT PARA USE32 PUBLIC 'CODE'
_TEXT	ENDS
;	COMDAT ??_7length_error@std@@6B@
CONST	SEGMENT DWORD USE32 PUBLIC 'CONST'
CONST	ENDS
;	COMDAT ??_Glength_error@std@@UAEPAXI@Z
_TEXT	SEGMENT PARA USE32 PUBLIC 'CODE'
_TEXT	ENDS
;	COMDAT ??1length_error@std@@UAE@XZ
_TEXT	SEGMENT PARA USE32 PUBLIC 'CODE'
_TEXT	ENDS
;	COMDAT ??0?$basic_string@DU?$char_traits@D@std@@V?$allocator@D@2@@std@@QAE@PBD@Z
_TEXT	SEGMENT PARA USE32 PUBLIC 'CODE'
_TEXT	ENDS
;	COMDAT ??0?$allocator@D@std@@QAE@XZ
_TEXT	SEGMENT PARA USE32 PUBLIC 'CODE'
_TEXT	ENDS
;	COMDAT ?assign@?$basic_string@DU?$char_traits@D@std@@V?$allocator@D@2@@std@@QAEAAV12@PBD@Z
_TEXT	SEGMENT PARA USE32 PUBLIC 'CODE'
_TEXT	ENDS
;	COMDAT ?assign@?$basic_string@DU?$char_traits@D@std@@V?$allocator@D@2@@std@@QAEAAV12@PBDI@Z
_TEXT	SEGMENT PARA USE32 PUBLIC 'CODE'
_TEXT	ENDS
;	COMDAT ?_Inside@?$basic_string@DU?$char_traits@D@std@@V?$allocator@D@2@@std@@IAE_NPBD@Z
_TEXT	SEGMENT PARA USE32 PUBLIC 'CODE'
_TEXT	ENDS
;	COMDAT ?length@?$char_traits@D@std@@SAIPBD@Z
_TEXT	SEGMENT PARA USE32 PUBLIC 'CODE'
_TEXT	ENDS
;	COMDAT ??_C@_0BB@MOGOBHAF@list?$DMT?$DO?5too?5long?$AA@
CONST	SEGMENT DWORD USE32 PUBLIC 'CONST'
CONST	ENDS
;	COMDAT ??1?$basic_string@DU?$char_traits@D@std@@V?$allocator@D@2@@std@@QAE@XZ
_TEXT	SEGMENT PARA USE32 PUBLIC 'CODE'
_TEXT	ENDS
;	COMDAT __TI3?AVlength_error@std@@
xdata$x	SEGMENT DWORD USE32 PUBLIC 'CONST'
xdata$x	ENDS
;	COMDAT __CTA3?AVlength_error@std@@
xdata$x	SEGMENT DWORD USE32 PUBLIC 'CONST'
xdata$x	ENDS
;	COMDAT __CT??_R0?AVlength_error@std@@@8??0length_error@std@@QAE@ABV01@@Z40
xdata$x	SEGMENT DWORD USE32 PUBLIC 'CONST'
xdata$x	ENDS
;	COMDAT ??_R0?AVlength_error@std@@@8
_DATA	SEGMENT DWORD USE32 PUBLIC 'DATA'
_DATA	ENDS
;	COMDAT ??0length_error@std@@QAE@ABV01@@Z
_TEXT	SEGMENT PARA USE32 PUBLIC 'CODE'
_TEXT	ENDS
;	COMDAT ??0logic_error@std@@QAE@ABV01@@Z
_TEXT	SEGMENT PARA USE32 PUBLIC 'CODE'
_TEXT	ENDS
;	COMDAT __CT??_R0?AVlogic_error@std@@@8??0logic_error@std@@QAE@ABV01@@Z40
xdata$x	SEGMENT DWORD USE32 PUBLIC 'CONST'
xdata$x	ENDS
;	COMDAT ??_R0?AVlogic_error@std@@@8
_DATA	SEGMENT DWORD USE32 PUBLIC 'DATA'
_DATA	ENDS
;	COMDAT __CT??_R0?AVexception@@@8??0exception@@QAE@ABV0@@Z12
xdata$x	SEGMENT DWORD USE32 PUBLIC 'CONST'
xdata$x	ENDS
;	COMDAT ??_R0?AVexception@@@8
_DATA	SEGMENT DWORD USE32 PUBLIC 'DATA'
_DATA	ENDS
;	COMDAT ?end@?$list@PAXV?$allocator@PAX@std@@@std@@QAE?AViterator@12@XZ
_TEXT	SEGMENT PARA USE32 PUBLIC 'CODE'
_TEXT	ENDS
;	COMDAT ??0iterator@?$list@PAXV?$allocator@PAX@std@@@std@@QAE@PAU_Node@?$_List_nod@PAXV?$allocator@PAX@std@@@2@@Z
_TEXT	SEGMENT PARA USE32 PUBLIC 'CODE'
_TEXT	ENDS
;	COMDAT ??0const_iterator@?$list@PAXV?$allocator@PAX@std@@@std@@QAE@PAU_Node@?$_List_nod@PAXV?$allocator@PAX@std@@@2@@Z
_TEXT	SEGMENT PARA USE32 PUBLIC 'CODE'
_TEXT	ENDS
;	COMDAT ?_Myptr@?$basic_string@DU?$char_traits@D@std@@V?$allocator@D@2@@std@@QBEPBDXZ
_TEXT	SEGMENT PARA USE32 PUBLIC 'CODE'
_TEXT	ENDS
;	COMDAT ?size@?$basic_string@DU?$char_traits@D@std@@V?$allocator@D@2@@std@@QBEIXZ
_TEXT	SEGMENT PARA USE32 PUBLIC 'CODE'
_TEXT	ENDS
;	COMDAT ?GetSize@CBuffer@@QAEHXZ
_TEXT	SEGMENT PARA USE32 PUBLIC 'CODE'
_TEXT	ENDS
;	COMDAT ?GetHeaderLength@CBuffer@@QAEKXZ
_TEXT	SEGMENT PARA USE32 PUBLIC 'CODE'
_TEXT	ENDS
;	COMDAT ?GetReadableBuffer@CBuffer@@QAEPAEPAH@Z
_TEXT	SEGMENT PARA USE32 PUBLIC 'CODE'
_TEXT	ENDS
;	COMDAT ?GetWritableBuffer@CBuffer@@QAEPAEPAH@Z
_TEXT	SEGMENT PARA USE32 PUBLIC 'CODE'
_TEXT	ENDS
;	COMDAT ?GetHandle@CSock@@QAEIXZ
_TEXT	SEGMENT PARA USE32 PUBLIC 'CODE'
_TEXT	ENDS
;	COMDAT ?IsEmpty@CBufferQueue@@QAEHXZ
_TEXT	SEGMENT PARA USE32 PUBLIC 'CODE'
_TEXT	ENDS
;	COMDAT ??1CMclAutoLock@@QAE@XZ
_TEXT	SEGMENT PARA USE32 PUBLIC 'CODE'
_TEXT	ENDS
;	COMDAT ?Leave@CMclCritSec@@QAEXXZ
_TEXT	SEGMENT PARA USE32 PUBLIC 'CODE'
_TEXT	ENDS
;	COMDAT ??0CMclAutoLock@@QAE@AAVCMclCritSec@@@Z
_TEXT	SEGMENT PARA USE32 PUBLIC 'CODE'
_TEXT	ENDS
;	COMDAT ?Enter@CMclCritSec@@QAEXXZ
_TEXT	SEGMENT PARA USE32 PUBLIC 'CODE'
_TEXT	ENDS
;	COMDAT ??3CClientSock@@SAXPAX@Z
_TEXT	SEGMENT PARA USE32 PUBLIC 'CODE'
_TEXT	ENDS
;	COMDAT ?Free@?$MemPooler@VCClientSock@@@@QAEHPAVCClientSock@@@Z
_TEXT	SEGMENT PARA USE32 PUBLIC 'CODE'
_TEXT	ENDS
;	COMDAT ??1CMclCritSec@@UAE@XZ
_TEXT	SEGMENT PARA USE32 PUBLIC 'CODE'
_TEXT	ENDS
;	COMDAT ??_7CMclCritSec@@6B@
CONST	SEGMENT DWORD USE32 PUBLIC 'CONST'
CONST	ENDS
;	COMDAT ??_GCMclCritSec@@UAEPAXI@Z
_TEXT	SEGMENT PARA USE32 PUBLIC 'CODE'
_TEXT	ENDS
;	COMDAT ??0CMclCritSec@@QAE@XZ
_TEXT	SEGMENT PARA USE32 PUBLIC 'CODE'
_TEXT	ENDS
;	COMDAT ??_7CClientSock@@6B@
CONST	SEGMENT DWORD USE32 PUBLIC 'CONST'
CONST	ENDS
sxdata	SEGMENT DWORD USE32 'SXDATA'
sxdata	ENDS
FLAT	GROUP _DATA, CONST, _BSS
	ASSUME	CS: FLAT, DS: FLAT, SS: FLAT
endif

INCLUDELIB LIBCMT
INCLUDELIB OLDNAMES

PUBLIC	??2@YAPAXIPAX@Z					; operator new
; Function compile flags: /Ogty
; File c:\program files\microsoft visual studio .net 2003\vc7\include\new.h
;	COMDAT ??2@YAPAXIPAX@Z
_TEXT	SEGMENT
___formal$ = 8						; size = 4
__P$ = 12						; size = 4
??2@YAPAXIPAX@Z PROC NEAR				; operator new, COMDAT

; 109  :         {return (_P); }

  00000	8b 44 24 08	 mov	 eax, DWORD PTR __P$[esp-4]
  00004	c3		 ret	 0
??2@YAPAXIPAX@Z ENDP					; operator new
_TEXT	ENDS
PUBLIC	??3@YAXPAX0@Z					; operator delete
; Function compile flags: /Ogty
;	COMDAT ??3@YAXPAX0@Z
_TEXT	SEGMENT
___formal$ = 8						; size = 4
___formal$ = 12						; size = 4
??3@YAXPAX0@Z PROC NEAR					; operator delete, COMDAT

; 112  :         {return; }

  00000	c3		 ret	 0
??3@YAXPAX0@Z ENDP					; operator delete
_TEXT	ENDS
PUBLIC	?Close@CClientSock@@UAEXXZ			; CClientSock::Close
EXTRN	__imp__closesocket@4:NEAR
EXTRN	__imp__shutdown@8:NEAR
; Function compile flags: /Ogty
; File c:\documents and settings\test\mes documents\source\virtuos_v17\build\program\_network\net\src\clientsock.cpp
;	COMDAT ?Close@CClientSock@@UAEXXZ
_TEXT	SEGMENT
?Close@CClientSock@@UAEXXZ PROC NEAR			; CClientSock::Close, COMDAT
; _this$ = ecx

; 100  : {

  00000	56		 push	 esi
  00001	8b f1		 mov	 esi, ecx

; 101  : 	CLOSE_SOCKET( m_hSocket );

  00003	8b 46 04	 mov	 eax, DWORD PTR [esi+4]
  00006	83 f8 ff	 cmp	 eax, -1
  00009	74 1a		 je	 SHORT $L186731
  0000b	6a 02		 push	 2
  0000d	50		 push	 eax
  0000e	ff 15 00 00 00
	00		 call	 DWORD PTR __imp__shutdown@8
  00014	8b 46 04	 mov	 eax, DWORD PTR [esi+4]
  00017	50		 push	 eax
  00018	ff 15 00 00 00
	00		 call	 DWORD PTR __imp__closesocket@4
  0001e	c7 46 04 ff ff
	ff ff		 mov	 DWORD PTR [esi+4], -1
$L186731:

; 102  : 	SAFE_DELETE( m_pRecvBuffer );

  00025	8b 4e 10	 mov	 ecx, DWORD PTR [esi+16]
  00028	85 c9		 test	 ecx, ecx
  0002a	74 0d		 je	 SHORT $L186733
  0002c	8b 11		 mov	 edx, DWORD PTR [ecx]
  0002e	6a 01		 push	 1
  00030	ff 12		 call	 DWORD PTR [edx]
  00032	c7 46 10 00 00
	00 00		 mov	 DWORD PTR [esi+16], 0
$L186733:
  00039	5e		 pop	 esi

; 103  : }

  0003a	c3		 ret	 0
?Close@CClientSock@@UAEXXZ ENDP				; CClientSock::Close
_TEXT	ENDS
PUBLIC	?CloseConnection@CClientSock@@UAEHI@Z		; CClientSock::CloseConnection
; Function compile flags: /Ogty
;	COMDAT ?CloseConnection@CClientSock@@UAEHI@Z
_TEXT	SEGMENT
_hSocket$ = 8						; size = 4
?CloseConnection@CClientSock@@UAEHI@Z PROC NEAR		; CClientSock::CloseConnection, COMDAT
; _this$ = ecx

; 107  : 	ASSERT( hSocket == m_hSocket );
; 108  : 	Close();

  00000	8b 01		 mov	 eax, DWORD PTR [ecx]
  00002	ff 50 1c	 call	 DWORD PTR [eax+28]

; 109  : 	return( TRUE );

  00005	b8 01 00 00 00	 mov	 eax, 1

; 110  : }

  0000a	c2 04 00	 ret	 4
?CloseConnection@CClientSock@@UAEHI@Z ENDP		; CClientSock::CloseConnection
_TEXT	ENDS
PUBLIC	?Shutdown@CClientSock@@UAEHI@Z			; CClientSock::Shutdown
; Function compile flags: /Ogty
;	COMDAT ?Shutdown@CClientSock@@UAEHI@Z
_TEXT	SEGMENT
_hSocket$ = 8						; size = 4
?Shutdown@CClientSock@@UAEHI@Z PROC NEAR		; CClientSock::Shutdown, COMDAT
; _this$ = ecx

; 114  : 	return FALSE;

  00000	33 c0		 xor	 eax, eax

; 115  : }

  00002	c2 04 00	 ret	 4
?Shutdown@CClientSock@@UAEHI@Z ENDP			; CClientSock::Shutdown
_TEXT	ENDS
PUBLIC	?Connect@CClientSock@@QAEHPADG@Z		; CClientSock::Connect
EXTRN	__imp__connect@12:NEAR
EXTRN	__imp__htons@4:NEAR
EXTRN	__imp__inet_addr@4:NEAR
EXTRN	__imp__gethostbyname@4:NEAR
EXTRN	__imp__WSASetLastError@4:NEAR
EXTRN	__imp__WSAGetLastError@0:NEAR
EXTRN	___security_cookie:DWORD
EXTRN	@__security_check_cookie@4:NEAR
; Function compile flags: /Ogty
;	COMDAT ?Connect@CClientSock@@QAEHPADG@Z
_TEXT	SEGMENT
_sin$ = -20						; size = 16
__$ArrayPad$ = -4					; size = 4
__$ReturnAddr$ = 4					; size = 4
_lpAddr$ = 8						; size = 4
_uPort$ = 12						; size = 2
?Connect@CClientSock@@QAEHPADG@Z PROC NEAR		; CClientSock::Connect, COMDAT
; _this$ = ecx

; 125  : {

  00000	83 ec 14	 sub	 esp, 20			; 00000014H
  00003	a1 00 00 00 00	 mov	 eax, DWORD PTR ___security_cookie
  00008	33 c4		 xor	 eax, esp
  0000a	56		 push	 esi
  0000b	8b 74 24 1c	 mov	 esi, DWORD PTR _lpAddr$[esp+20]
  0000f	57		 push	 edi
  00010	8b f9		 mov	 edi, ecx
  00012	89 44 24 18	 mov	 DWORD PTR __$ArrayPad$[esp+28], eax

; 126  : 	if( m_hSocket == INVALID_SOCKET )

  00016	83 7f 04 ff	 cmp	 DWORD PTR [edi+4], -1

; 127  : 	{
; 128  : 		TRACE( "Creation needed\n" );
; 129  : 		return FALSE;

  0001a	0f 84 93 00 00
	00		 je	 $L187233

; 130  : 	}
; 131  : 
; 132  : 	SOCKADDR_IN sin;
; 133  : 	memset( &sin, 0, sizeof(sin) );

  00020	33 c0		 xor	 eax, eax
  00022	89 44 24 08	 mov	 DWORD PTR _sin$[esp+28], eax
  00026	89 44 24 0c	 mov	 DWORD PTR _sin$[esp+32], eax
  0002a	89 44 24 10	 mov	 DWORD PTR _sin$[esp+36], eax

; 134  : 	sin.sin_family		= AF_INET;
; 135  : 	sin.sin_addr.s_addr	= inet_addr( lpAddr );

  0002e	56		 push	 esi
  0002f	89 44 24 18	 mov	 DWORD PTR _sin$[esp+44], eax
  00033	66 c7 44 24 0c
	02 00		 mov	 WORD PTR _sin$[esp+32], 2
  0003a	ff 15 00 00 00
	00		 call	 DWORD PTR __imp__inet_addr@4

; 136  : 	if( sin.sin_addr.s_addr == INADDR_NONE )

  00040	83 f8 ff	 cmp	 eax, -1
  00043	89 44 24 0c	 mov	 DWORD PTR _sin$[esp+32], eax
  00047	75 16		 jne	 SHORT $L186758

; 137  : 	{
; 138  : 		LPHOSTENT lphost;
; 139  : 		lphost	= gethostbyname( lpAddr );

  00049	56		 push	 esi
  0004a	ff 15 00 00 00
	00		 call	 DWORD PTR __imp__gethostbyname@4

; 140  : 		if( lphost )

  00050	85 c0		 test	 eax, eax
  00052	74 54		 je	 SHORT $L186756

; 141  : 			sin.sin_addr.s_addr		= ((LPIN_ADDR)lphost->h_addr)->s_addr;

  00054	8b 48 0c	 mov	 ecx, DWORD PTR [eax+12]
  00057	8b 11		 mov	 edx, DWORD PTR [ecx]
  00059	8b 02		 mov	 eax, DWORD PTR [edx]
  0005b	89 44 24 0c	 mov	 DWORD PTR _sin$[esp+32], eax
$L186758:

; 149  : 		}
; 150  : 	}
; 151  : 	sin.sin_port = htons( uPort );

  0005f	8b 4c 24 24	 mov	 ecx, DWORD PTR _uPort$[esp+24]
  00063	51		 push	 ecx
  00064	ff 15 00 00 00
	00		 call	 DWORD PTR __imp__htons@4

; 152  : 
; 153  : 	if( connect( m_hSocket, (LPSOCKADDR) &sin, sizeof(sin) ) == SOCKET_ERROR )

  0006a	6a 10		 push	 16			; 00000010H
  0006c	8d 54 24 0c	 lea	 edx, DWORD PTR _sin$[esp+32]
  00070	66 89 44 24 0e	 mov	 WORD PTR _sin$[esp+34], ax
  00075	8b 47 04	 mov	 eax, DWORD PTR [edi+4]
  00078	52		 push	 edx
  00079	50		 push	 eax
  0007a	ff 15 00 00 00
	00		 call	 DWORD PTR __imp__connect@12
  00080	83 f8 ff	 cmp	 eax, -1
  00083	75 43		 jne	 SHORT $L186760

; 154  : 	{
; 155  : 		int	err;
; 156  : 		if( ( err = WSAGetLastError() ) == WSAEWOULDBLOCK )		// ??

  00085	ff 15 00 00 00
	00		 call	 DWORD PTR __imp__WSAGetLastError@0
  0008b	2d 33 27 00 00	 sub	 eax, 10035		; 00002733H
  00090	f7 d8		 neg	 eax
  00092	1b c0		 sbb	 eax, eax
  00094	5f		 pop	 edi
  00095	40		 inc	 eax
  00096	5e		 pop	 esi

; 157  : 			return TRUE;
; 158  : 		#ifdef __INFO_SOCKLIB0516
; 159  : 			m_dwDbgInfo = err;
; 160  : 		#endif
; 161  : 
; 162  : 		TRACE( "Can't connect with error %d: ip(%s)n", err, lpAddr );
; 163  : 		return FALSE;
; 164  : 	}
; 165  : 	return TRUE;
; 166  : }

  00097	8b 4c 24 10	 mov	 ecx, DWORD PTR __$ArrayPad$[esp+20]
  0009b	33 cc		 xor	 ecx, esp
  0009d	e8 00 00 00 00	 call	 @__security_check_cookie@4
  000a2	83 c4 14	 add	 esp, 20			; 00000014H
  000a5	c2 08 00	 ret	 8
$L186756:

; 142  : 		else
; 143  : 		{
; 144  : 			#ifdef __INFO_SOCKLIB0516
; 145  : 				m_dwDbgInfo = WSAEINVAL;
; 146  : 			#endif
; 147  : 			WSASetLastError( WSAEINVAL );

  000a8	68 26 27 00 00	 push	 10022			; 00002726H
  000ad	ff 15 00 00 00
	00		 call	 DWORD PTR __imp__WSASetLastError@4
$L187233:
  000b3	5f		 pop	 edi

; 148  : 			return FALSE;

  000b4	33 c0		 xor	 eax, eax
  000b6	5e		 pop	 esi

; 157  : 			return TRUE;
; 158  : 		#ifdef __INFO_SOCKLIB0516
; 159  : 			m_dwDbgInfo = err;
; 160  : 		#endif
; 161  : 
; 162  : 		TRACE( "Can't connect with error %d: ip(%s)n", err, lpAddr );
; 163  : 		return FALSE;
; 164  : 	}
; 165  : 	return TRUE;
; 166  : }

  000b7	8b 4c 24 10	 mov	 ecx, DWORD PTR __$ArrayPad$[esp+20]
  000bb	33 cc		 xor	 ecx, esp
  000bd	e8 00 00 00 00	 call	 @__security_check_cookie@4
  000c2	83 c4 14	 add	 esp, 20			; 00000014H
  000c5	c2 08 00	 ret	 8
$L186760:
  000c8	8b 4c 24 18	 mov	 ecx, DWORD PTR __$ArrayPad$[esp+28]
  000cc	5f		 pop	 edi
  000cd	5e		 pop	 esi
  000ce	33 cc		 xor	 ecx, esp
  000d0	b8 01 00 00 00	 mov	 eax, 1
  000d5	e8 00 00 00 00	 call	 @__security_check_cookie@4
  000da	83 c4 14	 add	 esp, 20			; 00000014H
  000dd	c2 08 00	 ret	 8
?Connect@CClientSock@@QAEHPADG@Z ENDP			; CClientSock::Connect
_TEXT	ENDS
PUBLIC	??_C@_0M@PCENNPGA@?$CFd?4?$CFd?4?$CFd?4?$CFd?$AA@ ; `string'
PUBLIC	?GetPeerAddr@CClientSock@@UAEJKPAXPAK@Z		; CClientSock::GetPeerAddr
EXTRN	_sprintf:NEAR
EXTRN	__imp__getpeername@12:NEAR
;	COMDAT ??_C@_0M@PCENNPGA@?$CFd?4?$CFd?4?$CFd?4?$CFd?$AA@
CONST	SEGMENT
??_C@_0M@PCENNPGA@?$CFd?4?$CFd?4?$CFd?4?$CFd?$AA@ DB '%d.%d.%d.%d', 00H ; `string'
; Function compile flags: /Ogty
CONST	ENDS
;	COMDAT ?GetPeerAddr@CClientSock@@UAEJKPAXPAK@Z
_TEXT	SEGMENT
_namelen$ = -24						; size = 4
_sin$ = -20						; size = 16
__$ArrayPad$ = -4					; size = 4
__$ReturnAddr$ = 4					; size = 4
_dpidPlayer$ = 8					; size = 4
_lpAddr$ = 12						; size = 4
_lpdwSize$ = 16						; size = 4
?GetPeerAddr@CClientSock@@UAEJKPAXPAK@Z PROC NEAR	; CClientSock::GetPeerAddr, COMDAT
; _this$ = ecx

; 483  : {

  00000	83 ec 18	 sub	 esp, 24			; 00000018H
  00003	a1 00 00 00 00	 mov	 eax, DWORD PTR ___security_cookie

; 484  : 	ASSERT( lpAddr );
; 485  : 
; 486  : 	SOCKADDR_IN sin;
; 487  : 	ZeroMemory( &sin, sizeof( SOCKADDR_IN) );
; 488  : 
; 489  : 	int namelen	= sizeof(sin);
; 490  : 	if( getpeername( m_hSocket, (SOCKADDR *)&sin, &namelen ) == SOCKET_ERROR )

  00008	8b 49 04	 mov	 ecx, DWORD PTR [ecx+4]
  0000b	33 c4		 xor	 eax, esp
  0000d	89 44 24 14	 mov	 DWORD PTR __$ArrayPad$[esp+24], eax
  00011	33 c0		 xor	 eax, eax
  00013	89 44 24 04	 mov	 DWORD PTR _sin$[esp+24], eax
  00017	89 44 24 08	 mov	 DWORD PTR _sin$[esp+28], eax
  0001b	56		 push	 esi
  0001c	8b 74 24 24	 mov	 esi, DWORD PTR _lpAddr$[esp+24]
  00020	89 44 24 10	 mov	 DWORD PTR _sin$[esp+36], eax
  00024	8d 54 24 04	 lea	 edx, DWORD PTR _namelen$[esp+28]
  00028	89 44 24 14	 mov	 DWORD PTR _sin$[esp+40], eax
  0002c	52		 push	 edx
  0002d	8d 44 24 0c	 lea	 eax, DWORD PTR _sin$[esp+32]
  00031	50		 push	 eax
  00032	51		 push	 ecx
  00033	c7 44 24 10 10
	00 00 00	 mov	 DWORD PTR _namelen$[esp+40], 16 ; 00000010H
  0003b	ff 15 00 00 00
	00		 call	 DWORD PTR __imp__getpeername@12
  00041	83 f8 ff	 cmp	 eax, -1
  00044	75 17		 jne	 SHORT $L186853

; 491  : 		return DPERR_GENERIC;

  00046	b8 05 40 00 80	 mov	 eax, -2147467259	; 80004005H
  0004b	5e		 pop	 esi

; 497  : 	return DP_OK;
; 498  : }

  0004c	8b 4c 24 14	 mov	 ecx, DWORD PTR __$ArrayPad$[esp+24]
  00050	33 cc		 xor	 ecx, esp
  00052	e8 00 00 00 00	 call	 @__security_check_cookie@4
  00057	83 c4 18	 add	 esp, 24			; 00000018H
  0005a	c2 0c 00	 ret	 12			; 0000000cH
$L186853:

; 492  : 
; 493  : 	sprintf( (char *)lpAddr, "%d.%d.%d.%d", sin.sin_addr.s_net
; 494  : 																	, sin.sin_addr.s_host
; 495  : 																	, sin.sin_addr.s_lh
; 496  : 																	, sin.sin_addr.s_impno );

  0005d	0f b6 54 24 0f	 movzx	 edx, BYTE PTR _sin$[esp+35]
  00062	0f b6 44 24 0e	 movzx	 eax, BYTE PTR _sin$[esp+34]
  00067	52		 push	 edx
  00068	50		 push	 eax
  00069	8b 44 24 14	 mov	 eax, DWORD PTR _sin$[esp+40]
  0006d	0f b6 cc	 movzx	 ecx, ah
  00070	51		 push	 ecx
  00071	0f b6 d0	 movzx	 edx, al
  00074	52		 push	 edx
  00075	68 00 00 00 00	 push	 OFFSET FLAT:??_C@_0M@PCENNPGA@?$CFd?4?$CFd?4?$CFd?4?$CFd?$AA@
  0007a	56		 push	 esi
  0007b	e8 00 00 00 00	 call	 _sprintf

; 497  : 	return DP_OK;
; 498  : }

  00080	8b 4c 24 30	 mov	 ecx, DWORD PTR __$ArrayPad$[esp+52]
  00084	83 c4 18	 add	 esp, 24			; 00000018H
  00087	5e		 pop	 esi
  00088	33 cc		 xor	 ecx, esp
  0008a	33 c0		 xor	 eax, eax
  0008c	e8 00 00 00 00	 call	 @__security_check_cookie@4
  00091	83 c4 18	 add	 esp, 24			; 00000018H
  00094	c2 0c 00	 ret	 12			; 0000000cH
?GetPeerAddr@CClientSock@@UAEJKPAXPAK@Z ENDP		; CClientSock::GetPeerAddr
_TEXT	ENDS
PUBLIC	?CreateBuffer@CClientSock@@QAEPAVCBuffer@@XZ	; CClientSock::CreateBuffer
EXTRN	?CreateBuffer@CBufferFactory@@QAEPAVCBuffer@@W4BUFFER_TYPE@@K@Z:NEAR ; CBufferFactory::CreateBuffer
EXTRN	?GetInstance@CBufferFactory@@SAAAV1@XZ:NEAR	; CBufferFactory::GetInstance
; Function compile flags: /Ogty
;	COMDAT ?CreateBuffer@CClientSock@@QAEPAVCBuffer@@XZ
_TEXT	SEGMENT
?CreateBuffer@CClientSock@@QAEPAVCBuffer@@XZ PROC NEAR	; CClientSock::CreateBuffer, COMDAT
; _this$ = ecx

; 502  : 	return CBufferFactory::GetInstance().CreateBuffer( m_nBufferType );

  00000	8b 81 8c 04 00
	00		 mov	 eax, DWORD PTR [ecx+1164]
  00006	68 00 20 00 00	 push	 8192			; 00002000H
  0000b	50		 push	 eax
  0000c	e8 00 00 00 00	 call	 ?GetInstance@CBufferFactory@@SAAAV1@XZ ; CBufferFactory::GetInstance
  00011	8b c8		 mov	 ecx, eax
  00013	e8 00 00 00 00	 call	 ?CreateBuffer@CBufferFactory@@QAEPAVCBuffer@@W4BUFFER_TYPE@@K@Z ; CBufferFactory::CreateBuffer

; 503  : }

  00018	c3		 ret	 0
?CreateBuffer@CClientSock@@QAEPAVCBuffer@@XZ ENDP	; CClientSock::CreateBuffer
_TEXT	ENDS
PUBLIC	??0?$allocator@PAX@std@@QAE@XZ			; std::allocator<void *>::allocator<void *>
; Function compile flags: /Ogty
; File c:\program files\microsoft visual studio .net 2003\vc7\include\xmemory
;	COMDAT ??0?$allocator@PAX@std@@QAE@XZ
_TEXT	SEGMENT
??0?$allocator@PAX@std@@QAE@XZ PROC NEAR		; std::allocator<void *>::allocator<void *>, COMDAT
; _this$ = ecx

; 111  : 	allocator()

  00000	8b c1		 mov	 eax, ecx

; 112  : 		{	// construct default allocator (do nothing)
; 113  : 		}

  00002	c3		 ret	 0
??0?$allocator@PAX@std@@QAE@XZ ENDP			; std::allocator<void *>::allocator<void *>
_TEXT	ENDS
PUBLIC	??0?$allocator@PAX@std@@QAE@ABV01@@Z		; std::allocator<void *>::allocator<void *>
; Function compile flags: /Ogty
;	COMDAT ??0?$allocator@PAX@std@@QAE@ABV01@@Z
_TEXT	SEGMENT
___formal$ = 8						; size = 4
??0?$allocator@PAX@std@@QAE@ABV01@@Z PROC NEAR		; std::allocator<void *>::allocator<void *>, COMDAT
; _this$ = ecx

; 115  : 	allocator(const allocator<_Ty>&)

  00000	8b c1		 mov	 eax, ecx

; 116  : 		{	// construct by copying (do nothing)
; 117  : 		}

  00002	c2 04 00	 ret	 4
??0?$allocator@PAX@std@@QAE@ABV01@@Z ENDP		; std::allocator<void *>::allocator<void *>
_TEXT	ENDS
PUBLIC	??$?0PAX@?$allocator@PAU_Node@?$_List_nod@PAXV?$allocator@PAX@std@@@std@@@std@@QAE@ABV?$allocator@PAX@1@@Z ; std::allocator<std::_List_nod<void *,std::allocator<void *> >::_Node *>::allocator<std::_List_nod<void *,std::allocator<void *> >::_Node *><void *>
; Function compile flags: /Ogty
;	COMDAT ??$?0PAX@?$allocator@PAU_Node@?$_List_nod@PAXV?$allocator@PAX@std@@@std@@@std@@QAE@ABV?$allocator@PAX@1@@Z
_TEXT	SEGMENT
___formal$ = 8						; size = 4
??$?0PAX@?$allocator@PAU_Node@?$_List_nod@PAXV?$allocator@PAX@std@@@std@@@std@@QAE@ABV?$allocator@PAX@1@@Z PROC NEAR ; std::allocator<std::_List_nod<void *,std::allocator<void *> >::_Node *>::allocator<std::_List_nod<void *,std::allocator<void *> >::_Node *><void *>, COMDAT
; _this$ = ecx

; 120  : 		allocator(const allocator<_Other>&)

  00000	8b c1		 mov	 eax, ecx

; 121  : 		{	// construct from a related allocator (do nothing)
; 122  : 		}

  00002	c2 04 00	 ret	 4
??$?0PAX@?$allocator@PAU_Node@?$_List_nod@PAXV?$allocator@PAX@std@@@std@@@std@@QAE@ABV?$allocator@PAX@1@@Z ENDP ; std::allocator<std::_List_nod<void *,std::allocator<void *> >::_Node *>::allocator<std::_List_nod<void *,std::allocator<void *> >::_Node *><void *>
_TEXT	ENDS
PUBLIC	??$_Construct@PAU_Node@?$_List_nod@PAXV?$allocator@PAX@std@@@std@@PAU123@@std@@YAXPAPAU_Node@?$_List_nod@PAXV?$allocator@PAX@std@@@0@ABQAU120@@Z ; std::_Construct<std::_List_nod<void *,std::allocator<void *> >::_Node *,std::_List_nod<void *,std::allocator<void *> >::_Node *>
; Function compile flags: /Ogty
;	COMDAT ??$_Construct@PAU_Node@?$_List_nod@PAXV?$allocator@PAX@std@@@std@@PAU123@@std@@YAXPAPAU_Node@?$_List_nod@PAXV?$allocator@PAX@std@@@0@ABQAU120@@Z
_TEXT	SEGMENT
__Ptr$ = 8						; size = 4
__Val$ = 12						; size = 4
??$_Construct@PAU_Node@?$_List_nod@PAXV?$allocator@PAX@std@@@std@@PAU123@@std@@YAXPAPAU_Node@?$_List_nod@PAXV?$allocator@PAX@std@@@0@ABQAU120@@Z PROC NEAR ; std::_Construct<std::_List_nod<void *,std::allocator<void *> >::_Node *,std::_List_nod<void *,std::allocator<void *> >::_Node *>, COMDAT

; 42   : 	new ((void _FARQ *)_Ptr) _T1(_Val);

  00000	8b 44 24 04	 mov	 eax, DWORD PTR __Ptr$[esp-4]
  00004	85 c0		 test	 eax, eax
  00006	74 08		 je	 SHORT $L187251
  00008	8b 4c 24 08	 mov	 ecx, DWORD PTR __Val$[esp-4]
  0000c	8b 11		 mov	 edx, DWORD PTR [ecx]
  0000e	89 10		 mov	 DWORD PTR [eax], edx
$L187251:

; 43   : 	}

  00010	c3		 ret	 0
??$_Construct@PAU_Node@?$_List_nod@PAXV?$allocator@PAX@std@@@std@@PAU123@@std@@YAXPAPAU_Node@?$_List_nod@PAXV?$allocator@PAX@std@@@0@ABQAU120@@Z ENDP ; std::_Construct<std::_List_nod<void *,std::allocator<void *> >::_Node *,std::_List_nod<void *,std::allocator<void *> >::_Node *>
_TEXT	ENDS
PUBLIC	??$_Destroy@PAU_Node@?$_List_nod@PAXV?$allocator@PAX@std@@@std@@@std@@YAXPAPAU_Node@?$_List_nod@PAXV?$allocator@PAX@std@@@0@@Z ; std::_Destroy<std::_List_nod<void *,std::allocator<void *> >::_Node *>
; Function compile flags: /Ogty
;	COMDAT ??$_Destroy@PAU_Node@?$_List_nod@PAXV?$allocator@PAX@std@@@std@@@std@@YAXPAPAU_Node@?$_List_nod@PAXV?$allocator@PAX@std@@@0@@Z
_TEXT	SEGMENT
__Ptr$ = 8						; size = 4
??$_Destroy@PAU_Node@?$_List_nod@PAXV?$allocator@PAX@std@@@std@@@std@@YAXPAPAU_Node@?$_List_nod@PAXV?$allocator@PAX@std@@@0@@Z PROC NEAR ; std::_Destroy<std::_List_nod<void *,std::allocator<void *> >::_Node *>, COMDAT

; 49   : 	_DESTRUCTOR(_Ty, _Ptr);
; 50   : 	}

  00000	c3		 ret	 0
??$_Destroy@PAU_Node@?$_List_nod@PAXV?$allocator@PAX@std@@@std@@@std@@YAXPAPAU_Node@?$_List_nod@PAXV?$allocator@PAX@std@@@0@@Z ENDP ; std::_Destroy<std::_List_nod<void *,std::allocator<void *> >::_Node *>
_TEXT	ENDS
PUBLIC	??$?0PAX@?$allocator@U_Node@?$_List_nod@PAXV?$allocator@PAX@std@@@std@@@std@@QAE@ABV?$allocator@PAX@1@@Z ; std::allocator<std::_List_nod<void *,std::allocator<void *> >::_Node>::allocator<std::_List_nod<void *,std::allocator<void *> >::_Node><void *>
; Function compile flags: /Ogty
;	COMDAT ??$?0PAX@?$allocator@U_Node@?$_List_nod@PAXV?$allocator@PAX@std@@@std@@@std@@QAE@ABV?$allocator@PAX@1@@Z
_TEXT	SEGMENT
___formal$ = 8						; size = 4
??$?0PAX@?$allocator@U_Node@?$_List_nod@PAXV?$allocator@PAX@std@@@std@@@std@@QAE@ABV?$allocator@PAX@1@@Z PROC NEAR ; std::allocator<std::_List_nod<void *,std::allocator<void *> >::_Node>::allocator<std::_List_nod<void *,std::allocator<void *> >::_Node><void *>, COMDAT
; _this$ = ecx

; 120  : 		allocator(const allocator<_Other>&)

  00000	8b c1		 mov	 eax, ecx

; 121  : 		{	// construct from a related allocator (do nothing)
; 122  : 		}

  00002	c2 04 00	 ret	 4
??$?0PAX@?$allocator@U_Node@?$_List_nod@PAXV?$allocator@PAX@std@@@std@@@std@@QAE@ABV?$allocator@PAX@1@@Z ENDP ; std::allocator<std::_List_nod<void *,std::allocator<void *> >::_Node>::allocator<std::_List_nod<void *,std::allocator<void *> >::_Node><void *>
_TEXT	ENDS
PUBLIC	??$_Destroy@U_Node@?$_List_nod@PAXV?$allocator@PAX@std@@@std@@@std@@YAXPAU_Node@?$_List_nod@PAXV?$allocator@PAX@std@@@0@@Z ; std::_Destroy<std::_List_nod<void *,std::allocator<void *> >::_Node>
; Function compile flags: /Ogty
;	COMDAT ??$_Destroy@U_Node@?$_List_nod@PAXV?$allocator@PAX@std@@@std@@@std@@YAXPAU_Node@?$_List_nod@PAXV?$allocator@PAX@std@@@0@@Z
_TEXT	SEGMENT
__Ptr$ = 8						; size = 4
??$_Destroy@U_Node@?$_List_nod@PAXV?$allocator@PAX@std@@@std@@@std@@YAXPAU_Node@?$_List_nod@PAXV?$allocator@PAX@std@@@0@@Z PROC NEAR ; std::_Destroy<std::_List_nod<void *,std::allocator<void *> >::_Node>, COMDAT

; 49   : 	_DESTRUCTOR(_Ty, _Ptr);
; 50   : 	}

  00000	c3		 ret	 0
??$_Destroy@U_Node@?$_List_nod@PAXV?$allocator@PAX@std@@@std@@@std@@YAXPAU_Node@?$_List_nod@PAXV?$allocator@PAX@std@@@0@@Z ENDP ; std::_Destroy<std::_List_nod<void *,std::allocator<void *> >::_Node>
_TEXT	ENDS
PUBLIC	?assign@?$char_traits@D@std@@SAXAADABD@Z	; std::char_traits<char>::assign
; Function compile flags: /Ogty
; File c:\program files\microsoft visual studio .net 2003\vc7\include\iosfwd
;	COMDAT ?assign@?$char_traits@D@std@@SAXAADABD@Z
_TEXT	SEGMENT
__Left$ = 8						; size = 4
__Right$ = 12						; size = 4
?assign@?$char_traits@D@std@@SAXAADABD@Z PROC NEAR	; std::char_traits<char>::assign, COMDAT

; 331  : 		_Left = _Right;

  00000	8b 44 24 08	 mov	 eax, DWORD PTR __Right$[esp-4]
  00004	8a 08		 mov	 cl, BYTE PTR [eax]
  00006	8b 54 24 04	 mov	 edx, DWORD PTR __Left$[esp-4]
  0000a	88 0a		 mov	 BYTE PTR [edx], cl

; 332  : 		}

  0000c	c3		 ret	 0
?assign@?$char_traits@D@std@@SAXAADABD@Z ENDP		; std::char_traits<char>::assign
_TEXT	ENDS
PUBLIC	?length@?$char_traits@D@std@@SAIPBD@Z		; std::char_traits<char>::length
; Function compile flags: /Ogty
;	COMDAT ?length@?$char_traits@D@std@@SAIPBD@Z
_TEXT	SEGMENT
__First$ = 8						; size = 4
?length@?$char_traits@D@std@@SAIPBD@Z PROC NEAR		; std::char_traits<char>::length, COMDAT

; 352  : 		return (::strlen(_First));

  00000	8b 44 24 04	 mov	 eax, DWORD PTR __First$[esp-4]
  00004	8d 50 01	 lea	 edx, DWORD PTR [eax+1]
$L187266:
  00007	8a 08		 mov	 cl, BYTE PTR [eax]
  00009	40		 inc	 eax
  0000a	84 c9		 test	 cl, cl
  0000c	75 f9		 jne	 SHORT $L187266
  0000e	2b c2		 sub	 eax, edx

; 353  : 		}

  00010	c3		 ret	 0
?length@?$char_traits@D@std@@SAIPBD@Z ENDP		; std::char_traits<char>::length
_TEXT	ENDS
PUBLIC	?copy@?$char_traits@D@std@@SAPADPADPBDI@Z	; std::char_traits<char>::copy
; Function compile flags: /Ogty
;	COMDAT ?copy@?$char_traits@D@std@@SAPADPADPBDI@Z
_TEXT	SEGMENT
__First1$ = 8						; size = 4
__First2$ = 12						; size = 4
__Count$ = 16						; size = 4
?copy@?$char_traits@D@std@@SAPADPADPBDI@Z PROC NEAR	; std::char_traits<char>::copy, COMDAT

; 358  : 		return ((_Elem *)::memcpy(_First1, _First2, _Count));

  00000	8b 4c 24 0c	 mov	 ecx, DWORD PTR __Count$[esp-4]
  00004	56		 push	 esi
  00005	8b 74 24 0c	 mov	 esi, DWORD PTR __First2$[esp]
  00009	57		 push	 edi
  0000a	8b 7c 24 0c	 mov	 edi, DWORD PTR __First1$[esp+4]
  0000e	8b c1		 mov	 eax, ecx
  00010	8b d7		 mov	 edx, edi
  00012	c1 e9 02	 shr	 ecx, 2
  00015	f3 a5		 rep movsd
  00017	8b c8		 mov	 ecx, eax
  00019	83 e1 03	 and	 ecx, 3
  0001c	f3 a4		 rep movsb
  0001e	5f		 pop	 edi
  0001f	8b c2		 mov	 eax, edx
  00021	5e		 pop	 esi

; 359  : 		}

  00022	c3		 ret	 0
?copy@?$char_traits@D@std@@SAPADPADPBDI@Z ENDP		; std::char_traits<char>::copy
_TEXT	ENDS
PUBLIC	?move@?$char_traits@D@std@@SAPADPADPBDI@Z	; std::char_traits<char>::move
EXTRN	_memmove:NEAR
; Function compile flags: /Ogty
;	COMDAT ?move@?$char_traits@D@std@@SAPADPADPBDI@Z
_TEXT	SEGMENT
__First1$ = 8						; size = 4
__First2$ = 12						; size = 4
__Count$ = 16						; size = 4
?move@?$char_traits@D@std@@SAPADPADPBDI@Z PROC NEAR	; std::char_traits<char>::move, COMDAT

; 370  : 		return ((_Elem *)::memmove(_First1, _First2, _Count));

  00000	e9 00 00 00 00	 jmp	 _memmove
?move@?$char_traits@D@std@@SAPADPADPBDI@Z ENDP		; std::char_traits<char>::move
_TEXT	ENDS
PUBLIC	??0CMclCritSec@@QAE@XZ				; CMclCritSec::CMclCritSec
PUBLIC	??_7CMclCritSec@@6B@				; CMclCritSec::`vftable'
PUBLIC	??_GCMclCritSec@@UAEPAXI@Z			; CMclCritSec::`scalar deleting destructor'
EXTRN	??_ECMclCritSec@@UAEPAXI@Z:NEAR			; CMclCritSec::`vector deleting destructor'
EXTRN	__imp__InitializeCriticalSection@4:NEAR
;	COMDAT ??_7CMclCritSec@@6B@
; File c:\documents and settings\test\mes documents\source\virtuos_v17\build\program\_network\mcl\include\cmclcritsec.h
CONST	SEGMENT
??_7CMclCritSec@@6B@ DD FLAT:??_ECMclCritSec@@UAEPAXI@Z	; CMclCritSec::`vftable'
; Function compile flags: /Ogty
CONST	ENDS
;	COMDAT ??0CMclCritSec@@QAE@XZ
_TEXT	SEGMENT
??0CMclCritSec@@QAE@XZ PROC NEAR			; CMclCritSec::CMclCritSec, COMDAT
; _this$ = ecx

; 19   :     CMclCritSec(void)

  00000	56		 push	 esi
  00001	8b f1		 mov	 esi, ecx

; 20   :     {
; 21   : 		::InitializeCriticalSection( &m_CritSec );

  00003	8d 46 04	 lea	 eax, DWORD PTR [esi+4]
  00006	50		 push	 eax
  00007	c7 06 00 00 00
	00		 mov	 DWORD PTR [esi], OFFSET FLAT:??_7CMclCritSec@@6B@
  0000d	ff 15 00 00 00
	00		 call	 DWORD PTR __imp__InitializeCriticalSection@4

; 22   : 	}

  00013	8b c6		 mov	 eax, esi
  00015	5e		 pop	 esi
  00016	c3		 ret	 0
??0CMclCritSec@@QAE@XZ ENDP				; CMclCritSec::CMclCritSec
_TEXT	ENDS
PUBLIC	??1CMclCritSec@@UAE@XZ				; CMclCritSec::~CMclCritSec
EXTRN	__imp__DeleteCriticalSection@4:NEAR
; Function compile flags: /Ogty
;	COMDAT ??1CMclCritSec@@UAE@XZ
_TEXT	SEGMENT
??1CMclCritSec@@UAE@XZ PROC NEAR			; CMclCritSec::~CMclCritSec, COMDAT
; _this$ = ecx

; 26   : 	{

  00000	c7 01 00 00 00
	00		 mov	 DWORD PTR [ecx], OFFSET FLAT:??_7CMclCritSec@@6B@

; 27   : 		::DeleteCriticalSection( &m_CritSec );

  00006	83 c1 04	 add	 ecx, 4
  00009	51		 push	 ecx
  0000a	ff 15 00 00 00
	00		 call	 DWORD PTR __imp__DeleteCriticalSection@4

; 28   : 	}

  00010	c3		 ret	 0
??1CMclCritSec@@UAE@XZ ENDP				; CMclCritSec::~CMclCritSec
_TEXT	ENDS
PUBLIC	?Enter@CMclCritSec@@QAEXXZ			; CMclCritSec::Enter
EXTRN	__imp__EnterCriticalSection@4:NEAR
; Function compile flags: /Ogty
;	COMDAT ?Enter@CMclCritSec@@QAEXXZ
_TEXT	SEGMENT
?Enter@CMclCritSec@@QAEXXZ PROC NEAR			; CMclCritSec::Enter, COMDAT
; _this$ = ecx

; 33   : 		::EnterCriticalSection( &m_CritSec );

  00000	83 c1 04	 add	 ecx, 4
  00003	51		 push	 ecx
  00004	ff 15 00 00 00
	00		 call	 DWORD PTR __imp__EnterCriticalSection@4

; 34   : 	}

  0000a	c3		 ret	 0
?Enter@CMclCritSec@@QAEXXZ ENDP				; CMclCritSec::Enter
_TEXT	ENDS
PUBLIC	?Leave@CMclCritSec@@QAEXXZ			; CMclCritSec::Leave
EXTRN	__imp__LeaveCriticalSection@4:NEAR
; Function compile flags: /Ogty
;	COMDAT ?Leave@CMclCritSec@@QAEXXZ
_TEXT	SEGMENT
?Leave@CMclCritSec@@QAEXXZ PROC NEAR			; CMclCritSec::Leave, COMDAT
; _this$ = ecx

; 39   : 		::LeaveCriticalSection( &m_CritSec );

  00000	83 c1 04	 add	 ecx, 4
  00003	51		 push	 ecx
  00004	ff 15 00 00 00
	00		 call	 DWORD PTR __imp__LeaveCriticalSection@4

; 40   : 	}

  0000a	c3		 ret	 0
?Leave@CMclCritSec@@QAEXXZ ENDP				; CMclCritSec::Leave
_TEXT	ENDS
EXTRN	??3@YAXPAX@Z:NEAR				; operator delete
; Function compile flags: /Ogty
;	COMDAT ??_GCMclCritSec@@UAEPAXI@Z
_TEXT	SEGMENT
___flags$ = 8						; size = 4
??_GCMclCritSec@@UAEPAXI@Z PROC NEAR			; CMclCritSec::`scalar deleting destructor', COMDAT
; _this$ = ecx
  00000	56		 push	 esi
  00001	8b f1		 mov	 esi, ecx
  00003	8d 46 04	 lea	 eax, DWORD PTR [esi+4]
  00006	50		 push	 eax
  00007	c7 06 00 00 00
	00		 mov	 DWORD PTR [esi], OFFSET FLAT:??_7CMclCritSec@@6B@
  0000d	ff 15 00 00 00
	00		 call	 DWORD PTR __imp__DeleteCriticalSection@4
  00013	f6 44 24 08 01	 test	 BYTE PTR ___flags$[esp], 1
  00018	74 09		 je	 SHORT $L187285
  0001a	56		 push	 esi
  0001b	e8 00 00 00 00	 call	 ??3@YAXPAX@Z		; operator delete
  00020	83 c4 04	 add	 esp, 4
$L187285:
  00023	8b c6		 mov	 eax, esi
  00025	5e		 pop	 esi
  00026	c2 04 00	 ret	 4
??_GCMclCritSec@@UAEPAXI@Z ENDP				; CMclCritSec::`scalar deleting destructor'
_TEXT	ENDS
PUBLIC	??0CMclAutoLock@@QAE@AAVCMclCritSec@@@Z		; CMclAutoLock::CMclAutoLock
; Function compile flags: /Ogty
; File c:\documents and settings\test\mes documents\source\virtuos_v17\build\program\_network\mcl\include\cmclautolock.h
;	COMDAT ??0CMclAutoLock@@QAE@AAVCMclCritSec@@@Z
_TEXT	SEGMENT
_rCMclCritSec$ = 8					; size = 4
??0CMclAutoLock@@QAE@AAVCMclCritSec@@@Z PROC NEAR	; CMclAutoLock::CMclAutoLock, COMDAT
; _this$ = ecx

; 20   : 	{
; 21   : 		m_pcCritSec = &rCMclCritSec;

  00000	8b 44 24 04	 mov	 eax, DWORD PTR _rCMclCritSec$[esp-4]
  00004	56		 push	 esi
  00005	8b f1		 mov	 esi, ecx
  00007	89 06		 mov	 DWORD PTR [esi], eax

; 22   : 		m_pcCritSec->Enter();

  00009	83 c0 04	 add	 eax, 4
  0000c	50		 push	 eax
  0000d	ff 15 00 00 00
	00		 call	 DWORD PTR __imp__EnterCriticalSection@4

; 23   : 	}

  00013	8b c6		 mov	 eax, esi
  00015	5e		 pop	 esi
  00016	c2 04 00	 ret	 4
??0CMclAutoLock@@QAE@AAVCMclCritSec@@@Z ENDP		; CMclAutoLock::CMclAutoLock
_TEXT	ENDS
PUBLIC	??1CMclAutoLock@@QAE@XZ				; CMclAutoLock::~CMclAutoLock
; Function compile flags: /Ogty
;	COMDAT ??1CMclAutoLock@@QAE@XZ
_TEXT	SEGMENT
??1CMclAutoLock@@QAE@XZ PROC NEAR			; CMclAutoLock::~CMclAutoLock, COMDAT
; _this$ = ecx

; 28   : 		m_pcCritSec->Leave();

  00000	8b 01		 mov	 eax, DWORD PTR [ecx]
  00002	83 c0 04	 add	 eax, 4
  00005	50		 push	 eax
  00006	ff 15 00 00 00
	00		 call	 DWORD PTR __imp__LeaveCriticalSection@4

; 29   : 	}

  0000c	c3		 ret	 0
??1CMclAutoLock@@QAE@XZ ENDP				; CMclAutoLock::~CMclAutoLock
_TEXT	ENDS
PUBLIC	?GetHandle@CSock@@QAEIXZ			; CSock::GetHandle
; Function compile flags: /Ogty
; File c:\documents and settings\test\mes documents\source\virtuos_v17\build\program\_network\net\include\sock.h
;	COMDAT ?GetHandle@CSock@@QAEIXZ
_TEXT	SEGMENT
?GetHandle@CSock@@QAEIXZ PROC NEAR			; CSock::GetHandle, COMDAT
; _this$ = ecx

; 50   : inline SOCKET CSock::GetHandle( void )	{	return m_hSocket;	}

  00000	8b 41 04	 mov	 eax, DWORD PTR [ecx+4]
  00003	c3		 ret	 0
?GetHandle@CSock@@QAEIXZ ENDP				; CSock::GetHandle
_TEXT	ENDS
PUBLIC	?GetHeaderLength@CBuffer@@QAEKXZ		; CBuffer::GetHeaderLength
; Function compile flags: /Ogty
; File c:\documents and settings\test\mes documents\source\virtuos_v17\build\program\_network\net\include\buffer.h
;	COMDAT ?GetHeaderLength@CBuffer@@QAEKXZ
_TEXT	SEGMENT
?GetHeaderLength@CBuffer@@QAEKXZ PROC NEAR		; CBuffer::GetHeaderLength, COMDAT
; _this$ = ecx

; 66   : 		return m_dwHeaderSize;

  00000	8b 81 24 20 00
	00		 mov	 eax, DWORD PTR [ecx+8228]

; 67   : 	}

  00006	c3		 ret	 0
?GetHeaderLength@CBuffer@@QAEKXZ ENDP			; CBuffer::GetHeaderLength
_TEXT	ENDS
PUBLIC	?GetSize@CBuffer@@QAEHXZ			; CBuffer::GetSize
; Function compile flags: /Ogty
;	COMDAT ?GetSize@CBuffer@@QAEHXZ
_TEXT	SEGMENT
?GetSize@CBuffer@@QAEHXZ PROC NEAR			; CBuffer::GetSize, COMDAT
; _this$ = ecx

; 99   : 	return (int)( m_lpBufMax - m_lpBufStart );	

  00000	8b 81 10 20 00
	00		 mov	 eax, DWORD PTR [ecx+8208]
  00006	2b 81 0c 20 00
	00		 sub	 eax, DWORD PTR [ecx+8204]

; 100  : }

  0000c	c3		 ret	 0
?GetSize@CBuffer@@QAEHXZ ENDP				; CBuffer::GetSize
_TEXT	ENDS
PUBLIC	?GetWritableBuffer@CBuffer@@QAEPAEPAH@Z		; CBuffer::GetWritableBuffer
; Function compile flags: /Ogty
;	COMDAT ?GetWritableBuffer@CBuffer@@QAEPAEPAH@Z
_TEXT	SEGMENT
_pnBufSize$ = 8						; size = 4
?GetWritableBuffer@CBuffer@@QAEPAEPAH@Z PROC NEAR	; CBuffer::GetWritableBuffer, COMDAT
; _this$ = ecx

; 104  : 	*pnBufSize	= (int)( m_lpBufMax - m_pTail );	

  00000	8b 91 18 20 00
	00		 mov	 edx, DWORD PTR [ecx+8216]
  00006	8b 81 10 20 00
	00		 mov	 eax, DWORD PTR [ecx+8208]
  0000c	2b c2		 sub	 eax, edx
  0000e	8b 54 24 04	 mov	 edx, DWORD PTR _pnBufSize$[esp-4]
  00012	89 02		 mov	 DWORD PTR [edx], eax

; 105  : 	return m_pTail;	

  00014	8b 81 18 20 00
	00		 mov	 eax, DWORD PTR [ecx+8216]

; 106  : }

  0001a	c2 04 00	 ret	 4
?GetWritableBuffer@CBuffer@@QAEPAEPAH@Z ENDP		; CBuffer::GetWritableBuffer
_TEXT	ENDS
PUBLIC	?GetReadableBuffer@CBuffer@@QAEPAEPAH@Z		; CBuffer::GetReadableBuffer
; Function compile flags: /Ogty
;	COMDAT ?GetReadableBuffer@CBuffer@@QAEPAEPAH@Z
_TEXT	SEGMENT
_pnBufSize$ = 8						; size = 4
?GetReadableBuffer@CBuffer@@QAEPAEPAH@Z PROC NEAR	; CBuffer::GetReadableBuffer, COMDAT
; _this$ = ecx

; 115  : 	*pnBufSize	= (int)( m_pTail - m_pHead );	

  00000	8b 91 14 20 00
	00		 mov	 edx, DWORD PTR [ecx+8212]
  00006	8b 81 18 20 00
	00		 mov	 eax, DWORD PTR [ecx+8216]
  0000c	2b c2		 sub	 eax, edx
  0000e	8b 54 24 04	 mov	 edx, DWORD PTR _pnBufSize$[esp-4]
  00012	89 02		 mov	 DWORD PTR [edx], eax

; 116  : 	return m_pHead;	

  00014	8b 81 14 20 00
	00		 mov	 eax, DWORD PTR [ecx+8212]

; 117  : }

  0001a	c2 04 00	 ret	 4
?GetReadableBuffer@CBuffer@@QAEPAEPAH@Z ENDP		; CBuffer::GetReadableBuffer
_TEXT	ENDS
PUBLIC	?IsEmpty@CBufferQueue@@QAEHXZ			; CBufferQueue::IsEmpty
; Function compile flags: /Ogty
;	COMDAT ?IsEmpty@CBufferQueue@@QAEHXZ
_TEXT	SEGMENT
?IsEmpty@CBufferQueue@@QAEHXZ PROC NEAR			; CBufferQueue::IsEmpty, COMDAT
; _this$ = ecx

; 222  : 	{	return( m_uCount == 0 );	}

  00000	8b 51 0c	 mov	 edx, DWORD PTR [ecx+12]
  00003	33 c0		 xor	 eax, eax
  00005	85 d2		 test	 edx, edx
  00007	0f 94 c0	 sete	 al
  0000a	c3		 ret	 0
?IsEmpty@CBufferQueue@@QAEHXZ ENDP			; CBufferQueue::IsEmpty
_TEXT	ENDS
PUBLIC	?size@?$basic_string@DU?$char_traits@D@std@@V?$allocator@D@2@@std@@QBEIXZ ; std::basic_string<char,std::char_traits<char>,std::allocator<char> >::size
; Function compile flags: /Ogty
; File c:\program files\microsoft visual studio .net 2003\vc7\include\xstring
;	COMDAT ?size@?$basic_string@DU?$char_traits@D@std@@V?$allocator@D@2@@std@@QBEIXZ
_TEXT	SEGMENT
?size@?$basic_string@DU?$char_traits@D@std@@V?$allocator@D@2@@std@@QBEIXZ PROC NEAR ; std::basic_string<char,std::char_traits<char>,std::allocator<char> >::size, COMDAT
; _this$ = ecx

; 1109 : 		return (_Mysize);

  00000	8b 41 14	 mov	 eax, DWORD PTR [ecx+20]

; 1110 : 		}

  00003	c3		 ret	 0
?size@?$basic_string@DU?$char_traits@D@std@@V?$allocator@D@2@@std@@QBEIXZ ENDP ; std::basic_string<char,std::char_traits<char>,std::allocator<char> >::size
_TEXT	ENDS
PUBLIC	?_Myptr@?$basic_string@DU?$char_traits@D@std@@V?$allocator@D@2@@std@@QBEPBDXZ ; std::basic_string<char,std::char_traits<char>,std::allocator<char> >::_Myptr
; Function compile flags: /Ogty
;	COMDAT ?_Myptr@?$basic_string@DU?$char_traits@D@std@@V?$allocator@D@2@@std@@QBEPBDXZ
_TEXT	SEGMENT
?_Myptr@?$basic_string@DU?$char_traits@D@std@@V?$allocator@D@2@@std@@QBEPBDXZ PROC NEAR ; std::basic_string<char,std::char_traits<char>,std::allocator<char> >::_Myptr, COMDAT
; _this$ = ecx

; 1537 : 		return (_BUF_SIZE <= _Myres ? _Bx._Ptr : _Bx._Buf);

  00000	83 79 18 10	 cmp	 DWORD PTR [ecx+24], 16	; 00000010H
  00004	72 04		 jb	 SHORT $L187314
  00006	8b 41 04	 mov	 eax, DWORD PTR [ecx+4]

; 1538 : 		}

  00009	c3		 ret	 0
$L187314:

; 1537 : 		return (_BUF_SIZE <= _Myres ? _Bx._Ptr : _Bx._Buf);

  0000a	8d 41 04	 lea	 eax, DWORD PTR [ecx+4]

; 1538 : 		}

  0000d	c3		 ret	 0
?_Myptr@?$basic_string@DU?$char_traits@D@std@@V?$allocator@D@2@@std@@QBEPBDXZ ENDP ; std::basic_string<char,std::char_traits<char>,std::allocator<char> >::_Myptr
_TEXT	ENDS
PUBLIC	??0?$allocator@D@std@@QAE@XZ			; std::allocator<char>::allocator<char>
; Function compile flags: /Ogty
; File c:\program files\microsoft visual studio .net 2003\vc7\include\xmemory
;	COMDAT ??0?$allocator@D@std@@QAE@XZ
_TEXT	SEGMENT
??0?$allocator@D@std@@QAE@XZ PROC NEAR			; std::allocator<char>::allocator<char>, COMDAT
; _this$ = ecx

; 111  : 	allocator()

  00000	8b c1		 mov	 eax, ecx

; 112  : 		{	// construct default allocator (do nothing)
; 113  : 		}

  00002	c3		 ret	 0
??0?$allocator@D@std@@QAE@XZ ENDP			; std::allocator<char>::allocator<char>
_TEXT	ENDS
PUBLIC	??0?$allocator@D@std@@QAE@ABV01@@Z		; std::allocator<char>::allocator<char>
; Function compile flags: /Ogty
;	COMDAT ??0?$allocator@D@std@@QAE@ABV01@@Z
_TEXT	SEGMENT
___formal$ = 8						; size = 4
??0?$allocator@D@std@@QAE@ABV01@@Z PROC NEAR		; std::allocator<char>::allocator<char>, COMDAT
; _this$ = ecx

; 115  : 	allocator(const allocator<_Ty>&)

  00000	8b c1		 mov	 eax, ecx

; 116  : 		{	// construct by copying (do nothing)
; 117  : 		}

  00002	c2 04 00	 ret	 4
??0?$allocator@D@std@@QAE@ABV01@@Z ENDP			; std::allocator<char>::allocator<char>
_TEXT	ENDS
PUBLIC	?_Myptr@?$basic_string@DU?$char_traits@D@std@@V?$allocator@D@2@@std@@QAEPADXZ ; std::basic_string<char,std::char_traits<char>,std::allocator<char> >::_Myptr
; Function compile flags: /Ogty
; File c:\program files\microsoft visual studio .net 2003\vc7\include\xstring
;	COMDAT ?_Myptr@?$basic_string@DU?$char_traits@D@std@@V?$allocator@D@2@@std@@QAEPADXZ
_TEXT	SEGMENT
?_Myptr@?$basic_string@DU?$char_traits@D@std@@V?$allocator@D@2@@std@@QAEPADXZ PROC NEAR ; std::basic_string<char,std::char_traits<char>,std::allocator<char> >::_Myptr, COMDAT
; _this$ = ecx

; 1532 : 		return (_BUF_SIZE <= _Myres ? _Bx._Ptr : _Bx._Buf);

  00000	83 79 18 10	 cmp	 DWORD PTR [ecx+24], 16	; 00000010H
  00004	72 04		 jb	 SHORT $L187322
  00006	8b 41 04	 mov	 eax, DWORD PTR [ecx+4]

; 1533 : 		}

  00009	c3		 ret	 0
$L187322:

; 1532 : 		return (_BUF_SIZE <= _Myres ? _Bx._Ptr : _Bx._Buf);

  0000a	8d 41 04	 lea	 eax, DWORD PTR [ecx+4]

; 1533 : 		}

  0000d	c3		 ret	 0
?_Myptr@?$basic_string@DU?$char_traits@D@std@@V?$allocator@D@2@@std@@QAEPADXZ ENDP ; std::basic_string<char,std::char_traits<char>,std::allocator<char> >::_Myptr
_TEXT	ENDS
PUBLIC	?deallocate@?$allocator@D@std@@QAEXPADI@Z	; std::allocator<char>::deallocate
; Function compile flags: /Ogty
; File c:\program files\microsoft visual studio .net 2003\vc7\include\xmemory
;	COMDAT ?deallocate@?$allocator@D@std@@QAEXPADI@Z
_TEXT	SEGMENT
__Ptr$ = 8						; size = 4
___formal$ = 12						; size = 4
?deallocate@?$allocator@D@std@@QAEXPADI@Z PROC NEAR	; std::allocator<char>::deallocate, COMDAT
; _this$ = ecx

; 132  : 		operator delete(_Ptr);

  00000	8b 44 24 04	 mov	 eax, DWORD PTR __Ptr$[esp-4]
  00004	50		 push	 eax
  00005	e8 00 00 00 00	 call	 ??3@YAXPAX@Z		; operator delete
  0000a	59		 pop	 ecx

; 133  : 		}

  0000b	c2 08 00	 ret	 8
?deallocate@?$allocator@D@std@@QAEXPADI@Z ENDP		; std::allocator<char>::deallocate
_TEXT	ENDS
PUBLIC	?_Inside@?$basic_string@DU?$char_traits@D@std@@V?$allocator@D@2@@std@@IAE_NPBD@Z ; std::basic_string<char,std::char_traits<char>,std::allocator<char> >::_Inside
; Function compile flags: /Ogty
; File c:\program files\microsoft visual studio .net 2003\vc7\include\xstring
;	COMDAT ?_Inside@?$basic_string@DU?$char_traits@D@std@@V?$allocator@D@2@@std@@IAE_NPBD@Z
_TEXT	SEGMENT
__Ptr$ = 8						; size = 4
?_Inside@?$basic_string@DU?$char_traits@D@std@@V?$allocator@D@2@@std@@IAE_NPBD@Z PROC NEAR ; std::basic_string<char,std::char_traits<char>,std::allocator<char> >::_Inside, COMDAT
; _this$ = ecx

; 1494 : 		{	// test if _Ptr points inside string

  00000	56		 push	 esi

; 1495 : 		if (_Ptr < _Myptr() || _Myptr() + _Mysize <= _Ptr)

  00001	8b 71 18	 mov	 esi, DWORD PTR [ecx+24]
  00004	83 fe 10	 cmp	 esi, 16			; 00000010H
  00007	57		 push	 edi
  00008	8d 41 04	 lea	 eax, DWORD PTR [ecx+4]
  0000b	72 04		 jb	 SHORT $L187333
  0000d	8b 10		 mov	 edx, DWORD PTR [eax]
  0000f	eb 02		 jmp	 SHORT $L187334
$L187333:
  00011	8b d0		 mov	 edx, eax
$L187334:
  00013	8b 7c 24 0c	 mov	 edi, DWORD PTR __Ptr$[esp+4]
  00017	3b fa		 cmp	 edi, edx
  00019	72 17		 jb	 SHORT $L185560
  0001b	83 fe 10	 cmp	 esi, 16			; 00000010H
  0001e	72 02		 jb	 SHORT $L187341
  00020	8b 00		 mov	 eax, DWORD PTR [eax]
$L187341:
  00022	8b 49 14	 mov	 ecx, DWORD PTR [ecx+20]
  00025	03 c8		 add	 ecx, eax
  00027	3b cf		 cmp	 ecx, edi
  00029	76 07		 jbe	 SHORT $L185560
  0002b	5f		 pop	 edi

; 1497 : 		else
; 1498 : 			return (true);

  0002c	b0 01		 mov	 al, 1
  0002e	5e		 pop	 esi

; 1499 : 		}

  0002f	c2 04 00	 ret	 4
$L185560:
  00032	5f		 pop	 edi

; 1496 : 			return (false);	// don't ask

  00033	32 c0		 xor	 al, al
  00035	5e		 pop	 esi

; 1499 : 		}

  00036	c2 04 00	 ret	 4
?_Inside@?$basic_string@DU?$char_traits@D@std@@V?$allocator@D@2@@std@@IAE_NPBD@Z ENDP ; std::basic_string<char,std::char_traits<char>,std::allocator<char> >::_Inside
_TEXT	ENDS
PUBLIC	?max_size@?$allocator@D@std@@QBEIXZ		; std::allocator<char>::max_size
; Function compile flags: /Ogty
; File c:\program files\microsoft visual studio .net 2003\vc7\include\xmemory
;	COMDAT ?max_size@?$allocator@D@std@@QBEIXZ
_TEXT	SEGMENT
?max_size@?$allocator@D@std@@QBEIXZ PROC NEAR		; std::allocator<char>::max_size, COMDAT
; _this$ = ecx

; 157  : 		_SIZT _Count = (_SIZT)(-1) / sizeof (_Ty);
; 158  : 		return (0 < _Count ? _Count : 1);

  00000	83 c8 ff	 or	 eax, -1

; 159  : 		}

  00003	c3		 ret	 0
?max_size@?$allocator@D@std@@QBEIXZ ENDP		; std::allocator<char>::max_size
_TEXT	ENDS
PUBLIC	?_Nextnode@?$list@PAXV?$allocator@PAX@std@@@std@@KAAAPAU_Node@?$_List_nod@PAXV?$allocator@PAX@std@@@2@PAU342@@Z ; std::list<void *,std::allocator<void *> >::_Nextnode
; Function compile flags: /Ogty
; File c:\program files\microsoft visual studio .net 2003\vc7\include\list
;	COMDAT ?_Nextnode@?$list@PAXV?$allocator@PAX@std@@@std@@KAAAPAU_Node@?$_List_nod@PAXV?$allocator@PAX@std@@@2@PAU342@@Z
_TEXT	SEGMENT
__Pnode$ = 8						; size = 4
?_Nextnode@?$list@PAXV?$allocator@PAX@std@@@std@@KAAAPAU_Node@?$_List_nod@PAXV?$allocator@PAX@std@@@2@PAU342@@Z PROC NEAR ; std::list<void *,std::allocator<void *> >::_Nextnode, COMDAT

; 108  : 		return ((_Nodepref)(*_Pnode)._Next);

  00000	8b 44 24 04	 mov	 eax, DWORD PTR __Pnode$[esp-4]

; 109  : 		}

  00004	c3		 ret	 0
?_Nextnode@?$list@PAXV?$allocator@PAX@std@@@std@@KAAAPAU_Node@?$_List_nod@PAXV?$allocator@PAX@std@@@2@PAU342@@Z ENDP ; std::list<void *,std::allocator<void *> >::_Nextnode
_TEXT	ENDS
PUBLIC	?_Prevnode@?$list@PAXV?$allocator@PAX@std@@@std@@KAAAPAU_Node@?$_List_nod@PAXV?$allocator@PAX@std@@@2@PAU342@@Z ; std::list<void *,std::allocator<void *> >::_Prevnode
; Function compile flags: /Ogty
;	COMDAT ?_Prevnode@?$list@PAXV?$allocator@PAX@std@@@std@@KAAAPAU_Node@?$_List_nod@PAXV?$allocator@PAX@std@@@2@PAU342@@Z
_TEXT	SEGMENT
__Pnode$ = 8						; size = 4
?_Prevnode@?$list@PAXV?$allocator@PAX@std@@@std@@KAAAPAU_Node@?$_List_nod@PAXV?$allocator@PAX@std@@@2@PAU342@@Z PROC NEAR ; std::list<void *,std::allocator<void *> >::_Prevnode, COMDAT

; 113  : 		return ((_Nodepref)(*_Pnode)._Prev);

  00000	8b 44 24 04	 mov	 eax, DWORD PTR __Pnode$[esp-4]
  00004	83 c0 04	 add	 eax, 4

; 114  : 		}

  00007	c3		 ret	 0
?_Prevnode@?$list@PAXV?$allocator@PAX@std@@@std@@KAAAPAU_Node@?$_List_nod@PAXV?$allocator@PAX@std@@@2@PAU342@@Z ENDP ; std::list<void *,std::allocator<void *> >::_Prevnode
_TEXT	ENDS
PUBLIC	?_Mynode@const_iterator@?$list@PAXV?$allocator@PAX@std@@@std@@QBEPAU_Node@?$_List_nod@PAXV?$allocator@PAX@std@@@3@XZ ; std::list<void *,std::allocator<void *> >::const_iterator::_Mynode
; Function compile flags: /Ogty
;	COMDAT ?_Mynode@const_iterator@?$list@PAXV?$allocator@PAX@std@@@std@@QBEPAU_Node@?$_List_nod@PAXV?$allocator@PAX@std@@@3@XZ
_TEXT	SEGMENT
?_Mynode@const_iterator@?$list@PAXV?$allocator@PAX@std@@@std@@QBEPAU_Node@?$_List_nod@PAXV?$allocator@PAX@std@@@3@XZ PROC NEAR ; std::list<void *,std::allocator<void *> >::const_iterator::_Mynode, COMDAT
; _this$ = ecx

; 207  : 			return (_Ptr);

  00000	8b 01		 mov	 eax, DWORD PTR [ecx]

; 208  : 			}

  00002	c3		 ret	 0
?_Mynode@const_iterator@?$list@PAXV?$allocator@PAX@std@@@std@@QBEPAU_Node@?$_List_nod@PAXV?$allocator@PAX@std@@@3@XZ ENDP ; std::list<void *,std::allocator<void *> >::const_iterator::_Mynode
_TEXT	ENDS
PUBLIC	?deallocate@?$allocator@U_Node@?$_List_nod@PAXV?$allocator@PAX@std@@@std@@@std@@QAEXPAU_Node@?$_List_nod@PAXV?$allocator@PAX@std@@@2@I@Z ; std::allocator<std::_List_nod<void *,std::allocator<void *> >::_Node>::deallocate
; Function compile flags: /Ogty
; File c:\program files\microsoft visual studio .net 2003\vc7\include\xmemory
;	COMDAT ?deallocate@?$allocator@U_Node@?$_List_nod@PAXV?$allocator@PAX@std@@@std@@@std@@QAEXPAU_Node@?$_List_nod@PAXV?$allocator@PAX@std@@@2@I@Z
_TEXT	SEGMENT
__Ptr$ = 8						; size = 4
___formal$ = 12						; size = 4
?deallocate@?$allocator@U_Node@?$_List_nod@PAXV?$allocator@PAX@std@@@std@@@std@@QAEXPAU_Node@?$_List_nod@PAXV?$allocator@PAX@std@@@2@I@Z PROC NEAR ; std::allocator<std::_List_nod<void *,std::allocator<void *> >::_Node>::deallocate, COMDAT
; _this$ = ecx

; 132  : 		operator delete(_Ptr);

  00000	8b 44 24 04	 mov	 eax, DWORD PTR __Ptr$[esp-4]
  00004	50		 push	 eax
  00005	e8 00 00 00 00	 call	 ??3@YAXPAX@Z		; operator delete
  0000a	59		 pop	 ecx

; 133  : 		}

  0000b	c2 08 00	 ret	 8
?deallocate@?$allocator@U_Node@?$_List_nod@PAXV?$allocator@PAX@std@@@std@@@std@@QAEXPAU_Node@?$_List_nod@PAXV?$allocator@PAX@std@@@2@I@Z ENDP ; std::allocator<std::_List_nod<void *,std::allocator<void *> >::_Node>::deallocate
_TEXT	ENDS
PUBLIC	??0const_iterator@?$list@PAXV?$allocator@PAX@std@@@std@@QAE@PAU_Node@?$_List_nod@PAXV?$allocator@PAX@std@@@2@@Z ; std::list<void *,std::allocator<void *> >::const_iterator::const_iterator
; Function compile flags: /Ogty
; File c:\program files\microsoft visual studio .net 2003\vc7\include\list
;	COMDAT ??0const_iterator@?$list@PAXV?$allocator@PAX@std@@@std@@QAE@PAU_Node@?$_List_nod@PAXV?$allocator@PAX@std@@@2@@Z
_TEXT	SEGMENT
__Pnode$ = 8						; size = 4
??0const_iterator@?$list@PAXV?$allocator@PAX@std@@@std@@QAE@PAU_Node@?$_List_nod@PAXV?$allocator@PAX@std@@@2@@Z PROC NEAR ; std::list<void *,std::allocator<void *> >::const_iterator::const_iterator, COMDAT
; _this$ = ecx

; 156  : 			{	// construct with node pointer _Pnode

  00000	8b c1		 mov	 eax, ecx
  00002	8b 4c 24 04	 mov	 ecx, DWORD PTR __Pnode$[esp-4]
  00006	89 08		 mov	 DWORD PTR [eax], ecx

; 157  : 			}

  00008	c2 04 00	 ret	 4
??0const_iterator@?$list@PAXV?$allocator@PAX@std@@@std@@QAE@PAU_Node@?$_List_nod@PAXV?$allocator@PAX@std@@@2@@Z ENDP ; std::list<void *,std::allocator<void *> >::const_iterator::const_iterator
_TEXT	ENDS
PUBLIC	??0_Node@?$_List_nod@PAXV?$allocator@PAX@std@@@std@@QAE@PAU012@0ABQAX@Z ; std::_List_nod<void *,std::allocator<void *> >::_Node::_Node
; Function compile flags: /Ogty
;	COMDAT ??0_Node@?$_List_nod@PAXV?$allocator@PAX@std@@@std@@QAE@PAU012@0ABQAX@Z
_TEXT	SEGMENT
__Nextarg$ = 8						; size = 4
__Prevarg$ = 12						; size = 4
__Myvalarg$ = 16					; size = 4
??0_Node@?$_List_nod@PAXV?$allocator@PAX@std@@@std@@QAE@PAU012@0ABQAX@Z PROC NEAR ; std::_List_nod<void *,std::allocator<void *> >::_Node::_Node, COMDAT
; _this$ = ecx

; 34   : 			{	// construct a node with value

  00000	8b 54 24 08	 mov	 edx, DWORD PTR __Prevarg$[esp-4]
  00004	8b c1		 mov	 eax, ecx
  00006	8b 4c 24 04	 mov	 ecx, DWORD PTR __Nextarg$[esp-4]
  0000a	89 08		 mov	 DWORD PTR [eax], ecx
  0000c	8b 4c 24 0c	 mov	 ecx, DWORD PTR __Myvalarg$[esp-4]
  00010	89 50 04	 mov	 DWORD PTR [eax+4], edx
  00013	8b 11		 mov	 edx, DWORD PTR [ecx]
  00015	89 50 08	 mov	 DWORD PTR [eax+8], edx

; 35   : 			}

  00018	c2 0c 00	 ret	 12			; 0000000cH
??0_Node@?$_List_nod@PAXV?$allocator@PAX@std@@@std@@QAE@PAU012@0ABQAX@Z ENDP ; std::_List_nod<void *,std::allocator<void *> >::_Node::_Node
_TEXT	ENDS
PUBLIC	?max_size@?$allocator@PAX@std@@QBEIXZ		; std::allocator<void *>::max_size
; Function compile flags: /Ogty
; File c:\program files\microsoft visual studio .net 2003\vc7\include\xmemory
;	COMDAT ?max_size@?$allocator@PAX@std@@QBEIXZ
_TEXT	SEGMENT
?max_size@?$allocator@PAX@std@@QBEIXZ PROC NEAR		; std::allocator<void *>::max_size, COMDAT
; _this$ = ecx

; 157  : 		_SIZT _Count = (_SIZT)(-1) / sizeof (_Ty);
; 158  : 		return (0 < _Count ? _Count : 1);

  00000	b8 ff ff ff 3f	 mov	 eax, 1073741823		; 3fffffffH

; 159  : 		}

  00005	c3		 ret	 0
?max_size@?$allocator@PAX@std@@QBEIXZ ENDP		; std::allocator<void *>::max_size
_TEXT	ENDS
PUBLIC	??$_Allocate@D@std@@YAPADIPAD@Z			; std::_Allocate<char>
EXTRN	??2@YAPAXI@Z:NEAR				; operator new
; Function compile flags: /Ogty
;	COMDAT ??$_Allocate@D@std@@YAPADIPAD@Z
_TEXT	SEGMENT
__Count$ = 8						; size = 4
___formal$ = 12						; size = 4
??$_Allocate@D@std@@YAPADIPAD@Z PROC NEAR		; std::_Allocate<char>, COMDAT

; 34   : 	return ((_Ty _FARQ *)operator new(_Count * sizeof (_Ty)));

  00000	8b 44 24 04	 mov	 eax, DWORD PTR __Count$[esp-4]
  00004	50		 push	 eax
  00005	e8 00 00 00 00	 call	 ??2@YAPAXI@Z		; operator new
  0000a	83 c4 04	 add	 esp, 4

; 35   : 	}

  0000d	c3		 ret	 0
??$_Allocate@D@std@@YAPADIPAD@Z ENDP			; std::_Allocate<char>
_TEXT	ENDS
PUBLIC	??$_Allocate@U_Node@?$_List_nod@PAXV?$allocator@PAX@std@@@std@@@std@@YAPAU_Node@?$_List_nod@PAXV?$allocator@PAX@std@@@0@IPAU120@@Z ; std::_Allocate<std::_List_nod<void *,std::allocator<void *> >::_Node>
; Function compile flags: /Ogty
;	COMDAT ??$_Allocate@U_Node@?$_List_nod@PAXV?$allocator@PAX@std@@@std@@@std@@YAPAU_Node@?$_List_nod@PAXV?$allocator@PAX@std@@@0@IPAU120@@Z
_TEXT	SEGMENT
__Count$ = 8						; size = 4
___formal$ = 12						; size = 4
??$_Allocate@U_Node@?$_List_nod@PAXV?$allocator@PAX@std@@@std@@@std@@YAPAU_Node@?$_List_nod@PAXV?$allocator@PAX@std@@@0@IPAU120@@Z PROC NEAR ; std::_Allocate<std::_List_nod<void *,std::allocator<void *> >::_Node>, COMDAT

; 34   : 	return ((_Ty _FARQ *)operator new(_Count * sizeof (_Ty)));

  00000	8b 44 24 04	 mov	 eax, DWORD PTR __Count$[esp-4]
  00004	8d 04 40	 lea	 eax, DWORD PTR [eax+eax*2]
  00007	c1 e0 02	 shl	 eax, 2
  0000a	50		 push	 eax
  0000b	e8 00 00 00 00	 call	 ??2@YAPAXI@Z		; operator new
  00010	83 c4 04	 add	 esp, 4

; 35   : 	}

  00013	c3		 ret	 0
??$_Allocate@U_Node@?$_List_nod@PAXV?$allocator@PAX@std@@@std@@@std@@YAPAU_Node@?$_List_nod@PAXV?$allocator@PAX@std@@@0@IPAU120@@Z ENDP ; std::_Allocate<std::_List_nod<void *,std::allocator<void *> >::_Node>
_TEXT	ENDS
PUBLIC	?Get@CSock@@UAEPAV1@I@Z				; CSock::Get
PUBLIC	??0CClientSock@@QAE@W4BUFFER_TYPE@@@Z		; CClientSock::CClientSock
PUBLIC	?Send@CClientSock@@UAEXPADKK@Z			; CClientSock::Send
PUBLIC	?GetPeerAddr@CClientSock@@UAEKK@Z		; CClientSock::GetPeerAddr
PUBLIC	??_7CClientSock@@6B@				; CClientSock::`vftable'
PUBLIC	??_GCClientSock@@UAEPAXI@Z			; CClientSock::`scalar deleting destructor'
EXTRN	??0CSock@@QAE@XZ:NEAR				; CSock::CSock
EXTRN	??1CSock@@UAE@XZ:NEAR				; CSock::~CSock
EXTRN	?Create@CSock@@UAEHGH@Z:NEAR			; CSock::Create
EXTRN	?Attach@CSock@@UAEXI@Z:NEAR			; CSock::Attach
EXTRN	?Detach@CSock@@UAEXXZ:NEAR			; CSock::Detach
EXTRN	?GetHostAddr@CSock@@UAEJPAXPAK@Z:NEAR		; CSock::GetHostAddr
EXTRN	??0CBufferQueue@@QAE@XZ:NEAR			; CBufferQueue::CBufferQueue
EXTRN	??1CBufferQueue@@UAE@XZ:NEAR			; CBufferQueue::~CBufferQueue
EXTRN	__except_list:DWORD
EXTRN	___CxxFrameHandler:NEAR
EXTRN	??_ECClientSock@@UAEPAXI@Z:NEAR			; CClientSock::`vector deleting destructor'
;	COMDAT xdata$x
; File c:\documents and settings\test\mes documents\source\virtuos_v17\build\program\_network\mcl\include\cmclcritsec.h
xdata$x	SEGMENT
$T187381 DD	0ffffffffH
	DD	FLAT:$L187368
	DD	00H
	DD	FLAT:$L187369
	DD	01H
	DD	FLAT:$L187370
$T187378 DD	019930520H
	DD	03H
	DD	FLAT:$T187381
	DD	2 DUP(00H)
	DD	2 DUP(00H)
xdata$x	ENDS
;	COMDAT ??_7CClientSock@@6B@
CONST	SEGMENT
??_7CClientSock@@6B@ DD FLAT:??_ECClientSock@@UAEPAXI@Z	; CClientSock::`vftable'
	DD	FLAT:?Create@CSock@@UAEHGH@Z
	DD	FLAT:?Attach@CSock@@UAEXI@Z
	DD	FLAT:?Detach@CSock@@UAEXXZ
	DD	FLAT:?GetHostAddr@CSock@@UAEJPAXPAK@Z
	DD	FLAT:?GetPeerAddr@CClientSock@@UAEKK@Z
	DD	FLAT:?GetPeerAddr@CClientSock@@UAEJKPAXPAK@Z
	DD	FLAT:?Close@CClientSock@@UAEXXZ
	DD	FLAT:?CloseConnection@CClientSock@@UAEHI@Z
	DD	FLAT:?Shutdown@CClientSock@@UAEHI@Z
	DD	FLAT:?Send@CClientSock@@UAEXPADKK@Z
	DD	FLAT:?Get@CSock@@UAEPAV1@I@Z
; Function compile flags: /Ogty
; File c:\documents and settings\test\mes documents\source\virtuos_v17\build\program\_network\net\src\clientsock.cpp
CONST	ENDS
;	COMDAT ??0CClientSock@@QAE@W4BUFFER_TYPE@@@Z
_TEXT	SEGMENT
_this$ = -16						; size = 4
__$EHRec$ = -12						; size = 12
_type$ = 8						; size = 4
??0CClientSock@@QAE@W4BUFFER_TYPE@@@Z PROC NEAR		; CClientSock::CClientSock, COMDAT
; _this$ = ecx

; 50   : {

  00000	6a ff		 push	 -1
  00002	68 00 00 00 00	 push	 __ehhandler$??0CClientSock@@QAE@W4BUFFER_TYPE@@@Z
  00007	64 a1 00 00 00
	00		 mov	 eax, DWORD PTR fs:__except_list
  0000d	50		 push	 eax
  0000e	64 89 25 00 00
	00 00		 mov	 DWORD PTR fs:__except_list, esp
  00015	51		 push	 ecx
  00016	53		 push	 ebx
  00017	56		 push	 esi
  00018	8b f1		 mov	 esi, ecx
  0001a	57		 push	 edi
  0001b	89 74 24 0c	 mov	 DWORD PTR _this$[esp+28], esi
  0001f	e8 00 00 00 00	 call	 ??0CSock@@QAE@XZ	; CSock::CSock
  00024	8d 46 44	 lea	 eax, DWORD PTR [esi+68]
  00027	33 db		 xor	 ebx, ebx
  00029	c7 06 00 00 00
	00		 mov	 DWORD PTR [esi], OFFSET FLAT:??_7CClientSock@@6B@
  0002f	50		 push	 eax
  00030	89 5c 24 1c	 mov	 DWORD PTR __$EHRec$[esp+40], ebx
  00034	c7 46 40 00 00
	00 00		 mov	 DWORD PTR [esi+64], OFFSET FLAT:??_7CMclCritSec@@6B@
  0003b	ff 15 00 00 00
	00		 call	 DWORD PTR __imp__InitializeCriticalSection@4
  00041	8d 4e 60	 lea	 ecx, DWORD PTR [esi+96]
  00044	c6 44 24 18 01	 mov	 BYTE PTR __$EHRec$[esp+36], 1
  00049	e8 00 00 00 00	 call	 ??0CBufferQueue@@QAE@XZ	; CBufferQueue::CBufferQueue

; 51   : #ifdef __CRC
; 52   : 	m_pRecvBuffer	= CBufferFactory::GetInstance().CreateBuffer( BUFFER_TYPE_5BYTE );
; 53   : 	if( CSock::crcRead & dwcrc )
; 54   : 		m_dwReadHeaderSize	= HEADERSIZE13;
; 55   : 	else
; 56   : 		m_dwReadHeaderSize	= HEADERSIZE5;
; 57   : 
; 58   : #ifdef __PROTOCOL0910
; 59   : 	m_dwProtocolId	= 0;
; 60   : #endif	// __PROTOCOL0910
; 61   : 	
; 62   : 	if( CSock::crcWrite & dwcrc )
; 63   : #ifdef __PROTOCOL0910
; 64   : 		m_lspSendBuffer.crc( &m_crcWrite, &m_dwProtocolId );
; 65   : #else	// __PROTOCOL0910
; 66   : 		m_lspSendBuffer.crc( &m_crcWrite );
; 67   : #endif	// __PROTOCOL0910
; 68   : 	m_nBufferType = BUFFER_TYPE_5BYTE;
; 69   : #else	// __CRC
; 70   : //	m_l	= 0;
; 71   : 	m_pRecvBuffer	= CBufferFactory::GetInstance().CreateBuffer( type );

  0004e	8b 7c 24 20	 mov	 edi, DWORD PTR _type$[esp+24]
  00052	68 00 20 00 00	 push	 8192			; 00002000H
  00057	57		 push	 edi
  00058	c6 44 24 20 02	 mov	 BYTE PTR __$EHRec$[esp+44], 2
  0005d	e8 00 00 00 00	 call	 ?GetInstance@CBufferFactory@@SAAAV1@XZ ; CBufferFactory::GetInstance
  00062	8b c8		 mov	 ecx, eax
  00064	e8 00 00 00 00	 call	 ?CreateBuffer@CBufferFactory@@QAEPAVCBuffer@@W4BUFFER_TYPE@@K@Z ; CBufferFactory::CreateBuffer

; 72   : 	m_nBufferType = type;
; 73   : #endif	// __CRC
; 74   : 
; 75   : #ifdef __PACKET_REPLAY_R
; 76   : 	m_nPacket	= 0;
; 77   : #endif	// __PACKET_REPLAY_R
; 78   : 
; 79   : 	m_dwAddr	= 0;
; 80   : 
; 81   : 	m_bDoNotWrite	= FALSE;
; 82   : 	m_nReference	= 0;
; 83   : #ifdef __INFO_SOCKLIB0516
; 84   : 	m_dwDbgInfo		= 0;
; 85   : #endif	// __INFO_SOCKLIB0516
; 86   : 
; 87   : #ifdef __INFO_SOCKLIB0102
; 88   : 	m_dwReadBytes	= 0;
; 89   : 	m_dwReadPacks	= 0;
; 90   : 	m_tRead	= time( NULL );
; 91   : #endif	// __INFO_SOCKLIB0102
; 92   : }

  00069	8b 4c 24 10	 mov	 ecx, DWORD PTR __$EHRec$[esp+28]
  0006d	89 be 8c 04 00
	00		 mov	 DWORD PTR [esi+1164], edi
  00073	89 46 10	 mov	 DWORD PTR [esi+16], eax
  00076	89 9e 90 04 00
	00		 mov	 DWORD PTR [esi+1168], ebx
  0007c	89 5e 3c	 mov	 DWORD PTR [esi+60], ebx
  0007f	89 5e 5c	 mov	 DWORD PTR [esi+92], ebx
  00082	5f		 pop	 edi
  00083	8b c6		 mov	 eax, esi
  00085	5e		 pop	 esi
  00086	5b		 pop	 ebx
  00087	64 89 0d 00 00
	00 00		 mov	 DWORD PTR fs:__except_list, ecx
  0008e	83 c4 10	 add	 esp, 16			; 00000010H
  00091	c2 04 00	 ret	 4
_TEXT	ENDS
;	COMDAT text$x
text$x	SEGMENT
$L187368:
  00000	8b 4d f0	 mov	 ecx, DWORD PTR _this$[ebp]
  00003	e9 00 00 00 00	 jmp	 ??1CSock@@UAE@XZ	; CSock::~CSock
$L187369:
  00008	8b 4d f0	 mov	 ecx, DWORD PTR _this$[ebp]
  0000b	83 c1 40	 add	 ecx, 64			; 00000040H
  0000e	e9 00 00 00 00	 jmp	 ??1CMclCritSec@@UAE@XZ	; CMclCritSec::~CMclCritSec
$L187370:
  00013	8b 4d f0	 mov	 ecx, DWORD PTR _this$[ebp]
  00016	83 c1 60	 add	 ecx, 96			; 00000060H
  00019	e9 00 00 00 00	 jmp	 ??1CBufferQueue@@UAE@XZ	; CBufferQueue::~CBufferQueue
__ehhandler$??0CClientSock@@QAE@W4BUFFER_TYPE@@@Z:
  0001e	b8 00 00 00 00	 mov	 eax, OFFSET FLAT:$T187378
  00023	e9 00 00 00 00	 jmp	 ___CxxFrameHandler
text$x	ENDS
??0CClientSock@@QAE@W4BUFFER_TYPE@@@Z ENDP		; CClientSock::CClientSock
; Function compile flags: /Ogty
; File c:\documents and settings\test\mes documents\source\virtuos_v17\build\program\_network\net\include\sock.h
;	COMDAT ?Get@CSock@@UAEPAV1@I@Z
_TEXT	SEGMENT
_hSocket$ = 8						; size = 4
?Get@CSock@@UAEPAV1@I@Z PROC NEAR			; CSock::Get, COMDAT
; _this$ = ecx

; 51   : inline CSock* CSock::Get( SOCKET hSocket )	{	return( m_hSocket == hSocket ? this : NULL );	}

  00000	8b 51 04	 mov	 edx, DWORD PTR [ecx+4]
  00003	56		 push	 esi
  00004	8b 74 24 08	 mov	 esi, DWORD PTR _hSocket$[esp]
  00008	33 c0		 xor	 eax, eax
  0000a	3b d6		 cmp	 edx, esi
  0000c	0f 95 c0	 setne	 al
  0000f	5e		 pop	 esi
  00010	48		 dec	 eax
  00011	23 c1		 and	 eax, ecx
  00013	c2 04 00	 ret	 4
?Get@CSock@@UAEPAV1@I@Z ENDP				; CSock::Get
; Function compile flags: /Ogty
; File c:\documents and settings\test\mes documents\source\virtuos_v17\build\program\_network\net\include\clientsock.h
_TEXT	ENDS
;	COMDAT ?GetPeerAddr@CClientSock@@UAEKK@Z
_TEXT	SEGMENT
_dpid$ = 8						; size = 4
?GetPeerAddr@CClientSock@@UAEKK@Z PROC NEAR		; CClientSock::GetPeerAddr, COMDAT
; _this$ = ecx

; 80   : 	virtual	DWORD	GetPeerAddr( DPID dpid ) { return m_dwAddr; }

  00000	8b 81 90 04 00
	00		 mov	 eax, DWORD PTR [ecx+1168]
  00006	c2 04 00	 ret	 4
?GetPeerAddr@CClientSock@@UAEKK@Z ENDP			; CClientSock::GetPeerAddr
_TEXT	ENDS
PUBLIC	??1CClientSock@@UAE@XZ				; CClientSock::~CClientSock
;	COMDAT xdata$x
; File c:\documents and settings\test\mes documents\source\virtuos_v17\build\program\_network\mcl\include\cmclcritsec.h
xdata$x	SEGMENT
$T187414 DD	0ffffffffH
	DD	FLAT:$L187391
	DD	00H
	DD	FLAT:$L187392
	DD	01H
	DD	FLAT:$L187393
$T187412 DD	019930520H
	DD	03H
	DD	FLAT:$T187414
	DD	2 DUP(00H)
	DD	2 DUP(00H)
; Function compile flags: /Ogty
; File c:\documents and settings\test\mes documents\source\virtuos_v17\build\program\_network\net\src\clientsock.cpp
xdata$x	ENDS
;	COMDAT ??1CClientSock@@UAE@XZ
_TEXT	SEGMENT
_this$ = -16						; size = 4
__$EHRec$ = -12						; size = 12
??1CClientSock@@UAE@XZ PROC NEAR			; CClientSock::~CClientSock, COMDAT
; _this$ = ecx

; 95   : {

  00000	6a ff		 push	 -1
  00002	68 00 00 00 00	 push	 __ehhandler$??1CClientSock@@UAE@XZ
  00007	64 a1 00 00 00
	00		 mov	 eax, DWORD PTR fs:__except_list
  0000d	50		 push	 eax
  0000e	64 89 25 00 00
	00 00		 mov	 DWORD PTR fs:__except_list, esp
  00015	51		 push	 ecx
  00016	56		 push	 esi
  00017	8b f1		 mov	 esi, ecx
  00019	89 74 24 04	 mov	 DWORD PTR _this$[esp+20], esi
  0001d	c7 06 00 00 00
	00		 mov	 DWORD PTR [esi], OFFSET FLAT:??_7CClientSock@@6B@

; 96   : 	Close();

  00023	8b 46 04	 mov	 eax, DWORD PTR [esi+4]
  00026	83 f8 ff	 cmp	 eax, -1
  00029	c7 44 24 10 02
	00 00 00	 mov	 DWORD PTR __$EHRec$[esp+28], 2
  00031	74 1a		 je	 SHORT $L187405
  00033	6a 02		 push	 2
  00035	50		 push	 eax
  00036	ff 15 00 00 00
	00		 call	 DWORD PTR __imp__shutdown@8
  0003c	8b 46 04	 mov	 eax, DWORD PTR [esi+4]
  0003f	50		 push	 eax
  00040	ff 15 00 00 00
	00		 call	 DWORD PTR __imp__closesocket@4
  00046	c7 46 04 ff ff
	ff ff		 mov	 DWORD PTR [esi+4], -1
$L187405:
  0004d	8b 4e 10	 mov	 ecx, DWORD PTR [esi+16]
  00050	85 c9		 test	 ecx, ecx
  00052	74 0d		 je	 SHORT $L187406
  00054	8b 11		 mov	 edx, DWORD PTR [ecx]
  00056	6a 01		 push	 1
  00058	ff 12		 call	 DWORD PTR [edx]
  0005a	c7 46 10 00 00
	00 00		 mov	 DWORD PTR [esi+16], 0
$L187406:

; 97   : }

  00061	8d 4e 60	 lea	 ecx, DWORD PTR [esi+96]
  00064	c6 44 24 10 01	 mov	 BYTE PTR __$EHRec$[esp+28], 1
  00069	e8 00 00 00 00	 call	 ??1CBufferQueue@@UAE@XZ	; CBufferQueue::~CBufferQueue
  0006e	8d 46 44	 lea	 eax, DWORD PTR [esi+68]
  00071	50		 push	 eax
  00072	c7 46 40 00 00
	00 00		 mov	 DWORD PTR [esi+64], OFFSET FLAT:??_7CMclCritSec@@6B@
  00079	ff 15 00 00 00
	00		 call	 DWORD PTR __imp__DeleteCriticalSection@4
  0007f	8b ce		 mov	 ecx, esi
  00081	c7 44 24 10 ff
	ff ff ff	 mov	 DWORD PTR __$EHRec$[esp+28], -1
  00089	e8 00 00 00 00	 call	 ??1CSock@@UAE@XZ	; CSock::~CSock
  0008e	8b 4c 24 08	 mov	 ecx, DWORD PTR __$EHRec$[esp+20]
  00092	5e		 pop	 esi
  00093	64 89 0d 00 00
	00 00		 mov	 DWORD PTR fs:__except_list, ecx
  0009a	83 c4 10	 add	 esp, 16			; 00000010H
  0009d	c3		 ret	 0
_TEXT	ENDS
;	COMDAT text$x
text$x	SEGMENT
$L187391:
  00000	8b 4d f0	 mov	 ecx, DWORD PTR _this$[ebp]
  00003	e9 00 00 00 00	 jmp	 ??1CSock@@UAE@XZ	; CSock::~CSock
$L187392:
  00008	8b 4d f0	 mov	 ecx, DWORD PTR _this$[ebp]
  0000b	83 c1 40	 add	 ecx, 64			; 00000040H
  0000e	e9 00 00 00 00	 jmp	 ??1CMclCritSec@@UAE@XZ	; CMclCritSec::~CMclCritSec
$L187393:
  00013	8b 4d f0	 mov	 ecx, DWORD PTR _this$[ebp]
  00016	83 c1 60	 add	 ecx, 96			; 00000060H
  00019	e9 00 00 00 00	 jmp	 ??1CBufferQueue@@UAE@XZ	; CBufferQueue::~CBufferQueue
__ehhandler$??1CClientSock@@UAE@XZ:
  0001e	b8 00 00 00 00	 mov	 eax, OFFSET FLAT:$T187412
  00023	e9 00 00 00 00	 jmp	 ___CxxFrameHandler
text$x	ENDS
??1CClientSock@@UAE@XZ ENDP				; CClientSock::~CClientSock
EXTRN	__imp__WSASend@28:NEAR
EXTRN	?AddData@CBufferQueue@@QAEXPAEKW4BUFFER_TYPE@@@Z:NEAR ; CBufferQueue::AddData
EXTRN	?GetData@CBufferQueue@@QAEXPAU_WSABUF@@PAK@Z:NEAR ; CBufferQueue::GetData
;	COMDAT xdata$x
; File c:\documents and settings\test\mes documents\source\virtuos_v17\build\program\_network\mcl\include\cmclcritsec.h
xdata$x	SEGMENT
$T187479 DD	0ffffffffH
	DD	FLAT:$L187419
	DD	00H
	DD	FLAT:$L187420
$T187474 DD	019930520H
	DD	02H
	DD	FLAT:$T187479
	DD	2 DUP(00H)
	DD	2 DUP(00H)
; Function compile flags: /Ogty
; File c:\documents and settings\test\mes documents\source\virtuos_v17\build\program\_network\net\src\clientsock.cpp
xdata$x	ENDS
;	COMDAT ?Send@CClientSock@@UAEXPADKK@Z
_TEXT	SEGMENT
tv197 = -32						; size = 4
_dwBufferCount$ = -28					; size = 4
_Lock1$ = -24						; size = 4
_Lock$ = -20						; size = 4
_dwBytes$ = -16						; size = 4
__$EHRec$ = -12						; size = 12
_lpData$ = 8						; size = 4
_dwDataSize$ = 12					; size = 4
_dpidTo$ = 16						; size = 4
?Send@CClientSock@@UAEXPADKK@Z PROC NEAR		; CClientSock::Send, COMDAT
; _this$ = ecx

; 169  : {

  00000	64 a1 00 00 00
	00		 mov	 eax, DWORD PTR fs:__except_list
  00006	6a ff		 push	 -1
  00008	68 00 00 00 00	 push	 __ehhandler$?Send@CClientSock@@UAEXPADKK@Z
  0000d	50		 push	 eax
  0000e	64 89 25 00 00
	00 00		 mov	 DWORD PTR fs:__except_list, esp
  00015	83 ec 14	 sub	 esp, 20			; 00000014H
  00018	56		 push	 esi
  00019	8b f1		 mov	 esi, ecx

; 170  : //	ASSERT( m_hSocket != INVALID_SOCKET );
; 171  : 	if( m_hSocket == INVALID_SOCKET )

  0001b	83 7e 04 ff	 cmp	 DWORD PTR [esi+4], -1
  0001f	0f 84 ec 00 00
	00		 je	 $L186768
  00025	53		 push	 ebx

; 172  : 		return;
; 173  : 
; 174  : 	DWORD dwBufferCount, dwBytes;
; 175  : 	CMclAutoLock	Lock1( m_AccessLock );

  00026	8d 46 40	 lea	 eax, DWORD PTR [esi+64]
  00029	57		 push	 edi
  0002a	8b 3d 00 00 00
	00		 mov	 edi, DWORD PTR __imp__EnterCriticalSection@4
  00030	8d 58 04	 lea	 ebx, DWORD PTR [eax+4]
  00033	53		 push	 ebx
  00034	89 44 24 18	 mov	 DWORD PTR _Lock1$[esp+48], eax
  00038	89 5c 24 10	 mov	 DWORD PTR tv197[esp+48], ebx
  0003c	ff d7		 call	 edi

; 176  : 	if( m_bDoNotWrite )

  0003e	8b 46 3c	 mov	 eax, DWORD PTR [esi+60]
  00041	85 c0		 test	 eax, eax
  00043	c7 44 24 28 00
	00 00 00	 mov	 DWORD PTR __$EHRec$[esp+52], 0
  0004b	74 1b		 je	 SHORT $L186774

; 177  : 		return;

  0004d	53		 push	 ebx
  0004e	ff 15 00 00 00
	00		 call	 DWORD PTR __imp__LeaveCriticalSection@4
  00054	5f		 pop	 edi
  00055	5b		 pop	 ebx
  00056	5e		 pop	 esi

; 200  : 	}
; 201  : }

  00057	8b 4c 24 14	 mov	 ecx, DWORD PTR __$EHRec$[esp+32]
  0005b	64 89 0d 00 00
	00 00		 mov	 DWORD PTR fs:__except_list, ecx
  00062	83 c4 20	 add	 esp, 32			; 00000020H
  00065	c2 0c 00	 ret	 12			; 0000000cH
$L186774:

; 178  : 	CMclAutoLock	Lock( m_lspSendBuffer.m_cs );

  00068	8d 46 70	 lea	 eax, DWORD PTR [esi+112]
  0006b	55		 push	 ebp
  0006c	8d 68 04	 lea	 ebp, DWORD PTR [eax+4]
  0006f	55		 push	 ebp
  00070	89 44 24 20	 mov	 DWORD PTR _Lock$[esp+52], eax
  00074	ff d7		 call	 edi

; 179  : 
; 180  : 	if( m_lspSendBuffer.IsEmpty() )

  00076	8b 46 6c	 mov	 eax, DWORD PTR [esi+108]

; 181  : 	{
; 182  : 		m_lspSendBuffer.AddData( (LPBYTE)lpData, dwDataSize, m_nBufferType );

  00079	8b 4c 24 38	 mov	 ecx, DWORD PTR _dwDataSize$[esp+44]
  0007d	8b 54 24 34	 mov	 edx, DWORD PTR _lpData$[esp+44]
  00081	85 c0		 test	 eax, eax
  00083	8b 86 8c 04 00
	00		 mov	 eax, DWORD PTR [esi+1164]
  00089	50		 push	 eax
  0008a	51		 push	 ecx
  0008b	c6 44 24 34 01	 mov	 BYTE PTR __$EHRec$[esp+64], 1
  00090	52		 push	 edx
  00091	0f 85 8c 00 00
	00		 jne	 $L186776
  00097	8d 7e 60	 lea	 edi, DWORD PTR [esi+96]
  0009a	8b cf		 mov	 ecx, edi
  0009c	e8 00 00 00 00	 call	 ?AddData@CBufferQueue@@QAEXPAEKW4BUFFER_TYPE@@@Z ; CBufferQueue::AddData

; 183  : 		m_lspSendBuffer.GetData( m_lpBuffers, &dwBufferCount );

  000a1	8d 44 24 14	 lea	 eax, DWORD PTR _dwBufferCount$[esp+48]
  000a5	50		 push	 eax
  000a6	8d 9e 8c 00 00
	00		 lea	 ebx, DWORD PTR [esi+140]
  000ac	53		 push	 ebx
  000ad	8b cf		 mov	 ecx, edi
  000af	e8 00 00 00 00	 call	 ?GetData@CBufferQueue@@QAEXPAU_WSABUF@@PAK@Z ; CBufferQueue::GetData

; 184  : 
; 185  : 		memset( (void*)&m_ovSend, 0, sizeof(WSAOVERLAPPED) );

  000b4	33 c9		 xor	 ecx, ecx
  000b6	8d 46 28	 lea	 eax, DWORD PTR [esi+40]
  000b9	8b d0		 mov	 edx, eax
  000bb	89 0a		 mov	 DWORD PTR [edx], ecx
  000bd	89 4a 04	 mov	 DWORD PTR [edx+4], ecx
  000c0	89 4a 08	 mov	 DWORD PTR [edx+8], ecx

; 186  : 		int err;
; 187  : 		m_nReference++;
; 188  : 		if( WSASend( GetHandle(), m_lpBuffers, dwBufferCount, &dwBytes, 0, &m_ovSend, NULL ) != 0 && ( err = WSAGetLastError() ) != WSA_IO_PENDING )

  000c3	6a 00		 push	 0
  000c5	89 4a 0c	 mov	 DWORD PTR [edx+12], ecx
  000c8	50		 push	 eax
  000c9	89 4a 10	 mov	 DWORD PTR [edx+16], ecx
  000cc	8b 4e 5c	 mov	 ecx, DWORD PTR [esi+92]
  000cf	8b 54 24 1c	 mov	 edx, DWORD PTR _dwBufferCount$[esp+56]
  000d3	6a 00		 push	 0
  000d5	8d 44 24 2c	 lea	 eax, DWORD PTR _dwBytes$[esp+60]
  000d9	50		 push	 eax
  000da	41		 inc	 ecx
  000db	52		 push	 edx
  000dc	89 4e 5c	 mov	 DWORD PTR [esi+92], ecx
  000df	8b 4e 04	 mov	 ecx, DWORD PTR [esi+4]
  000e2	53		 push	 ebx
  000e3	51		 push	 ecx
  000e4	ff 15 00 00 00
	00		 call	 DWORD PTR __imp__WSASend@28
  000ea	85 c0		 test	 eax, eax
  000ec	74 10		 je	 SHORT $L187475
  000ee	ff 15 00 00 00
	00		 call	 DWORD PTR __imp__WSAGetLastError@0
  000f4	3d e5 03 00 00	 cmp	 eax, 997		; 000003e5H
  000f9	74 03		 je	 SHORT $L187475

; 189  : 		{
; 190  : 			int nReference	= --m_nReference;

  000fb	ff 4e 5c	 dec	 DWORD PTR [esi+92]
$L187475:

; 191  : #ifdef __INFO_SOCKLIB0516
; 192  : 			m_dwDbgInfo	= err; // * 1000 + 6 * 100 + nReference * 10;
; 193  : #endif	// __INFO_SOCKLIB0516
; 194  : 		}
; 195  : 		
; 196  : 	}
; 197  : 	else

  000fe	8b 5c 24 10	 mov	 ebx, DWORD PTR tv197[esp+48]
$L186783:

; 200  : 	}
; 201  : }

  00102	8b 35 00 00 00
	00		 mov	 esi, DWORD PTR __imp__LeaveCriticalSection@4
  00108	55		 push	 ebp
  00109	ff d6		 call	 esi
  0010b	53		 push	 ebx
  0010c	ff d6		 call	 esi
  0010e	5d		 pop	 ebp
  0010f	5f		 pop	 edi
  00110	5b		 pop	 ebx
$L186768:
  00111	8b 4c 24 18	 mov	 ecx, DWORD PTR __$EHRec$[esp+36]
  00115	5e		 pop	 esi
  00116	64 89 0d 00 00
	00 00		 mov	 DWORD PTR fs:__except_list, ecx
  0011d	83 c4 20	 add	 esp, 32			; 00000020H
  00120	c2 0c 00	 ret	 12			; 0000000cH
$L186776:

; 198  : 	{
; 199  : 		m_lspSendBuffer.AddData( (LPBYTE)lpData, dwDataSize, m_nBufferType );

  00123	8d 4e 60	 lea	 ecx, DWORD PTR [esi+96]
  00126	e8 00 00 00 00	 call	 ?AddData@CBufferQueue@@QAEXPAEKW4BUFFER_TYPE@@@Z ; CBufferQueue::AddData
  0012b	eb d5		 jmp	 SHORT $L186783
_TEXT	ENDS
;	COMDAT text$x
text$x	SEGMENT
$L187419:
  00000	8d 4d e8	 lea	 ecx, DWORD PTR _Lock1$[ebp]
  00003	e9 00 00 00 00	 jmp	 ??1CMclAutoLock@@QAE@XZ	; CMclAutoLock::~CMclAutoLock
$L187420:
  00008	8d 4d ec	 lea	 ecx, DWORD PTR _Lock$[ebp]
  0000b	e9 00 00 00 00	 jmp	 ??1CMclAutoLock@@QAE@XZ	; CMclAutoLock::~CMclAutoLock
__ehhandler$?Send@CClientSock@@UAEXPADKK@Z:
  00010	b8 00 00 00 00	 mov	 eax, OFFSET FLAT:$T187474
  00015	e9 00 00 00 00	 jmp	 ___CxxFrameHandler
text$x	ENDS
?Send@CClientSock@@UAEXPADKK@Z ENDP			; CClientSock::Send
PUBLIC	?Recv@CClientSock@@QAEHXZ			; CClientSock::Recv
EXTRN	__imp__WSARecv@28:NEAR
; Function compile flags: /Ogty
;	COMDAT ?Recv@CClientSock@@QAEHXZ
_TEXT	SEGMENT
_dwFlags$ = -16						; size = 4
_dwBytesRecvd$ = -12					; size = 4
_buffer$ = -8						; size = 8
?Recv@CClientSock@@QAEHXZ PROC NEAR			; CClientSock::Recv, COMDAT
; _this$ = ecx

; 204  : {

  00000	83 ec 10	 sub	 esp, 16			; 00000010H

; 205  : 	ASSERT( m_hSocket != INVALID_SOCKET );
; 206  : 	DWORD dwBytesRecvd	= 0, dwFlags	= 0;
; 207  : 
; 208  : 	WSABUF buffer;
; 209  : 	buffer.buf	= (char*)m_pRecvBuffer->GetWritableBuffer( (int*)&buffer.len );

  00003	8b 41 10	 mov	 eax, DWORD PTR [ecx+16]
  00006	56		 push	 esi
  00007	57		 push	 edi
  00008	33 d2		 xor	 edx, edx
  0000a	89 54 24 0c	 mov	 DWORD PTR _dwBytesRecvd$[esp+24], edx
  0000e	89 54 24 08	 mov	 DWORD PTR _dwFlags$[esp+24], edx
  00012	8b b8 18 20 00
	00		 mov	 edi, DWORD PTR [eax+8216]
  00018	8b b0 10 20 00
	00		 mov	 esi, DWORD PTR [eax+8208]
  0001e	2b f7		 sub	 esi, edi
  00020	89 74 24 10	 mov	 DWORD PTR _buffer$[esp+24], esi
  00024	8b 80 18 20 00
	00		 mov	 eax, DWORD PTR [eax+8216]

; 210  : 
; 211  : 	memset( &m_ovRecv, 0, sizeof(WSAOVERLAPPED) );
; 212  : 
; 213  : 	int err;
; 214  : 	if( WSARecv( GetHandle(), &buffer, (DWORD)1, &dwBytesRecvd, &dwFlags, &m_ovRecv, NULL ) != 0 && ( err = WSAGetLastError() ) != WSA_IO_PENDING )

  0002a	52		 push	 edx
  0002b	89 44 24 18	 mov	 DWORD PTR _buffer$[esp+32], eax
  0002f	8d 41 14	 lea	 eax, DWORD PTR [ecx+20]
  00032	33 f6		 xor	 esi, esi
  00034	50		 push	 eax
  00035	8b f8		 mov	 edi, eax
  00037	89 37		 mov	 DWORD PTR [edi], esi
  00039	89 77 04	 mov	 DWORD PTR [edi+4], esi
  0003c	8d 54 24 10	 lea	 edx, DWORD PTR _dwFlags$[esp+32]
  00040	52		 push	 edx
  00041	89 77 08	 mov	 DWORD PTR [edi+8], esi
  00044	8d 44 24 18	 lea	 eax, DWORD PTR _dwBytesRecvd$[esp+36]
  00048	50		 push	 eax
  00049	89 77 0c	 mov	 DWORD PTR [edi+12], esi
  0004c	6a 01		 push	 1
  0004e	8d 54 24 24	 lea	 edx, DWORD PTR _buffer$[esp+44]
  00052	89 77 10	 mov	 DWORD PTR [edi+16], esi
  00055	8b 49 04	 mov	 ecx, DWORD PTR [ecx+4]
  00058	52		 push	 edx
  00059	51		 push	 ecx
  0005a	ff 15 00 00 00
	00		 call	 DWORD PTR __imp__WSARecv@28
  00060	85 c0		 test	 eax, eax
  00062	5f		 pop	 edi
  00063	5e		 pop	 esi
  00064	74 0d		 je	 SHORT $L186798
  00066	ff 15 00 00 00
	00		 call	 DWORD PTR __imp__WSAGetLastError@0
  0006c	3d e5 03 00 00	 cmp	 eax, 997		; 000003e5H

; 215  : 	{
; 216  : //		TRACE( "I/o error, close socket %d, %x //REF:%d\n", GetHandle(), this, m_l-1 );
; 217  : 		return err;

  00071	75 02		 jne	 SHORT $L186788
$L186798:

; 218  : 	}
; 219  : 
; 220  : 	return 0;

  00073	33 c0		 xor	 eax, eax
$L186788:

; 221  : }

  00075	83 c4 10	 add	 esp, 16			; 00000010H
  00078	c3		 ret	 0
?Recv@CClientSock@@QAEHXZ ENDP				; CClientSock::Recv
_TEXT	ENDS
PUBLIC	?SendRemnant@CClientSock@@QAEHK@Z		; CClientSock::SendRemnant
EXTRN	?RemoveData@CBufferQueue@@QAEXK@Z:NEAR		; CBufferQueue::RemoveData
;	COMDAT xdata$x
; File c:\documents and settings\test\mes documents\source\virtuos_v17\build\program\_network\mcl\include\cmclcritsec.h
xdata$x	SEGMENT
$T187545 DD	0ffffffffH
	DD	FLAT:$L187498
$T187543 DD	019930520H
	DD	01H
	DD	FLAT:$T187545
	DD	2 DUP(00H)
	DD	2 DUP(00H)
; Function compile flags: /Ogty
; File c:\documents and settings\test\mes documents\source\virtuos_v17\build\program\_network\net\src\clientsock.cpp
xdata$x	ENDS
;	COMDAT ?SendRemnant@CClientSock@@QAEHK@Z
_TEXT	SEGMENT
_dwBufferCount$ = -20					; size = 4
_Lock$ = -16						; size = 4
__$EHRec$ = -12						; size = 12
_dwBytes$ = 8						; size = 4
?SendRemnant@CClientSock@@QAEHK@Z PROC NEAR		; CClientSock::SendRemnant, COMDAT
; _this$ = ecx

; 224  : {

  00000	6a ff		 push	 -1
  00002	68 00 00 00 00	 push	 __ehhandler$?SendRemnant@CClientSock@@QAEHK@Z
  00007	64 a1 00 00 00
	00		 mov	 eax, DWORD PTR fs:__except_list
  0000d	50		 push	 eax
  0000e	64 89 25 00 00
	00 00		 mov	 DWORD PTR fs:__except_list, esp
  00015	83 ec 08	 sub	 esp, 8
  00018	53		 push	 ebx
  00019	55		 push	 ebp
  0001a	56		 push	 esi
  0001b	8b f1		 mov	 esi, ecx

; 225  : 	ASSERT( m_hSocket != INVALID_SOCKET );
; 226  : 	DWORD dwBufferCount;
; 227  : 	
; 228  : 	CMclAutoLock	Lock( m_lspSendBuffer.m_cs );

  0001d	8d 46 70	 lea	 eax, DWORD PTR [esi+112]
  00020	57		 push	 edi
  00021	8d 68 04	 lea	 ebp, DWORD PTR [eax+4]
  00024	55		 push	 ebp
  00025	89 44 24 18	 mov	 DWORD PTR _Lock$[esp+40], eax
  00029	ff 15 00 00 00
	00		 call	 DWORD PTR __imp__EnterCriticalSection@4

; 229  : 
; 230  : 	m_lspSendBuffer.RemoveData( dwBytes );

  0002f	8b 44 24 28	 mov	 eax, DWORD PTR _dwBytes$[esp+32]
  00033	8d 5e 60	 lea	 ebx, DWORD PTR [esi+96]
  00036	50		 push	 eax
  00037	8b cb		 mov	 ecx, ebx
  00039	c7 44 24 24 00
	00 00 00	 mov	 DWORD PTR __$EHRec$[esp+48], 0
  00041	e8 00 00 00 00	 call	 ?RemoveData@CBufferQueue@@QAEXK@Z ; CBufferQueue::RemoveData

; 231  : 	
; 232  : 	if( m_lspSendBuffer.IsEmpty() )

  00046	8b 46 6c	 mov	 eax, DWORD PTR [esi+108]
  00049	85 c0		 test	 eax, eax
  0004b	75 28		 jne	 SHORT $L186806

; 233  : 	{
; 234  : 		if( !m_bDoNotWrite )

  0004d	8b 7e 3c	 mov	 edi, DWORD PTR [esi+60]
  00050	85 ff		 test	 edi, edi
  00052	75 03		 jne	 SHORT $L186807

; 235  : 			m_nReference--;

  00054	ff 4e 5c	 dec	 DWORD PTR [esi+92]
$L186807:

; 236  : 		return m_bDoNotWrite;

  00057	55		 push	 ebp
  00058	ff 15 00 00 00
	00		 call	 DWORD PTR __imp__LeaveCriticalSection@4
  0005e	8b c7		 mov	 eax, edi
  00060	5f		 pop	 edi
  00061	5e		 pop	 esi
  00062	5d		 pop	 ebp
  00063	5b		 pop	 ebx

; 249  : }

  00064	8b 4c 24 08	 mov	 ecx, DWORD PTR __$EHRec$[esp+20]
  00068	64 89 0d 00 00
	00 00		 mov	 DWORD PTR fs:__except_list, ecx
  0006f	83 c4 14	 add	 esp, 20			; 00000014H
  00072	c2 04 00	 ret	 4
$L186806:

; 237  : 	}
; 238  : 
; 239  : 	m_lspSendBuffer.GetData( m_lpBuffers, &dwBufferCount );

  00075	8d 4c 24 10	 lea	 ecx, DWORD PTR _dwBufferCount$[esp+36]
  00079	51		 push	 ecx
  0007a	8d be 8c 00 00
	00		 lea	 edi, DWORD PTR [esi+140]
  00080	57		 push	 edi
  00081	8b cb		 mov	 ecx, ebx
  00083	e8 00 00 00 00	 call	 ?GetData@CBufferQueue@@QAEXPAU_WSABUF@@PAK@Z ; CBufferQueue::GetData

; 240  : 
; 241  : 	memset( (void*)&m_ovSend, 0, sizeof(WSAOVERLAPPED) );

  00088	8d 46 28	 lea	 eax, DWORD PTR [esi+40]
  0008b	33 d2		 xor	 edx, edx
  0008d	8b c8		 mov	 ecx, eax
  0008f	89 11		 mov	 DWORD PTR [ecx], edx
  00091	89 51 04	 mov	 DWORD PTR [ecx+4], edx
  00094	89 51 08	 mov	 DWORD PTR [ecx+8], edx
  00097	89 51 0c	 mov	 DWORD PTR [ecx+12], edx

; 242  : 	int err;
; 243  : 	if( WSASend( GetHandle(), m_lpBuffers, dwBufferCount, &dwBytes, 0, &m_ovSend, NULL ) != 0 && ( err = WSAGetLastError() ) != WSA_IO_PENDING )

  0009a	52		 push	 edx
  0009b	50		 push	 eax
  0009c	8b 44 24 18	 mov	 eax, DWORD PTR _dwBufferCount$[esp+44]
  000a0	52		 push	 edx
  000a1	89 51 10	 mov	 DWORD PTR [ecx+16], edx
  000a4	8b 76 04	 mov	 esi, DWORD PTR [esi+4]
  000a7	8d 54 24 34	 lea	 edx, DWORD PTR _dwBytes$[esp+44]
  000ab	52		 push	 edx
  000ac	50		 push	 eax
  000ad	57		 push	 edi
  000ae	56		 push	 esi
  000af	ff 15 00 00 00
	00		 call	 DWORD PTR __imp__WSASend@28
  000b5	85 c0		 test	 eax, eax
  000b7	74 2e		 je	 SHORT $L186812
  000b9	ff 15 00 00 00
	00		 call	 DWORD PTR __imp__WSAGetLastError@0
  000bf	8b f0		 mov	 esi, eax
  000c1	81 fe e5 03 00
	00		 cmp	 esi, 997		; 000003e5H
  000c7	74 1e		 je	 SHORT $L186812

; 244  : 	{
; 245  : //		TRACE( "i/O error, close socket %d //REF:%d\n", GetHandle(), m_l-1 );
; 246  : 		return err;

  000c9	55		 push	 ebp
  000ca	ff 15 00 00 00
	00		 call	 DWORD PTR __imp__LeaveCriticalSection@4
  000d0	5f		 pop	 edi
  000d1	8b c6		 mov	 eax, esi
  000d3	5e		 pop	 esi
  000d4	5d		 pop	 ebp
  000d5	5b		 pop	 ebx

; 249  : }

  000d6	8b 4c 24 08	 mov	 ecx, DWORD PTR __$EHRec$[esp+20]
  000da	64 89 0d 00 00
	00 00		 mov	 DWORD PTR fs:__except_list, ecx
  000e1	83 c4 14	 add	 esp, 20			; 00000014H
  000e4	c2 04 00	 ret	 4
$L186812:

; 247  : 	}
; 248  : 	return 0;

  000e7	55		 push	 ebp
  000e8	ff 15 00 00 00
	00		 call	 DWORD PTR __imp__LeaveCriticalSection@4

; 249  : }

  000ee	8b 4c 24 18	 mov	 ecx, DWORD PTR __$EHRec$[esp+36]
  000f2	5f		 pop	 edi
  000f3	5e		 pop	 esi
  000f4	5d		 pop	 ebp
  000f5	33 c0		 xor	 eax, eax
  000f7	5b		 pop	 ebx
  000f8	64 89 0d 00 00
	00 00		 mov	 DWORD PTR fs:__except_list, ecx
  000ff	83 c4 14	 add	 esp, 20			; 00000014H
  00102	c2 04 00	 ret	 4
_TEXT	ENDS
;	COMDAT text$x
text$x	SEGMENT
$L187498:
  00000	8d 4d f0	 lea	 ecx, DWORD PTR _Lock$[ebp]
  00003	e9 00 00 00 00	 jmp	 ??1CMclAutoLock@@QAE@XZ	; CMclAutoLock::~CMclAutoLock
__ehhandler$?SendRemnant@CClientSock@@QAEHK@Z:
  00008	b8 00 00 00 00	 mov	 eax, OFFSET FLAT:$T187543
  0000d	e9 00 00 00 00	 jmp	 ___CxxFrameHandler
text$x	ENDS
?SendRemnant@CClientSock@@QAEHK@Z ENDP			; CClientSock::SendRemnant
PUBLIC	??_C@_0CI@ODKLMECE@CClientSocket?4Fetch?3?5ip?5?$DN?5?$CFs?0?5si@ ; `string'
PUBLIC	?Fetch@CClientSock@@QAEPAVCBuffer@@K@Z		; CClientSock::Fetch
EXTRN	?Error@@YAPBDPBDZZ:NEAR				; Error
;	COMDAT ??_C@_0CI@ODKLMECE@CClientSocket?4Fetch?3?5ip?5?$DN?5?$CFs?0?5si@
; File c:\documents and settings\test\mes documents\source\virtuos_v17\build\program\_network\net\include\buffer.h
CONST	SEGMENT
??_C@_0CI@ODKLMECE@CClientSocket?4Fetch?3?5ip?5?$DN?5?$CFs?0?5si@ DB 'CCl'
	DB	'ientSocket.Fetch: ip = %s, size = %d', 00H	; `string'
; Function compile flags: /Ogty
; File c:\documents and settings\test\mes documents\source\virtuos_v17\build\program\_network\net\src\clientsock.cpp
CONST	ENDS
;	COMDAT ?Fetch@CClientSock@@QAEPAVCBuffer@@K@Z
_TEXT	SEGMENT
_pOld$ = -28						; size = 4
$T187562 = -24						; size = 4
_lpAddr$186838 = -20					; size = 16
__$ArrayPad$ = -4					; size = 4
__$ReturnAddr$ = 4					; size = 4
_dwBytes$ = 8						; size = 4
?Fetch@CClientSock@@QAEPAVCBuffer@@K@Z PROC NEAR	; CClientSock::Fetch, COMDAT
; _this$ = ecx

; 252  : {

  00000	83 ec 1c	 sub	 esp, 28			; 0000001cH
  00003	a1 00 00 00 00	 mov	 eax, DWORD PTR ___security_cookie
  00008	33 c4		 xor	 eax, esp
  0000a	53		 push	 ebx
  0000b	8b d9		 mov	 ebx, ecx

; 253  : #ifdef __INFO_SOCKLIB0102
; 254  : 	if( m_dwReadHeaderSize == HEADERSIZE13 )
; 255  : 	{
; 256  : 		m_dwReadBytes	+= dwBytes;
; 257  : 		m_dwReadPacks++;
; 258  : 		time_t t	= time( NULL );
; 259  : 		if( t != m_tRead )
; 260  : 		{
; 261  : 			if( m_dwReadBytes > MAX_READ_BYTES_A_SEC )
; 262  : 			{
; 263  : 				OutputDebugString( "MAX_READ_BYTES_A_SEC" );
; 264  : 				return NULL;
; 265  : 			}
; 266  : 			if( m_dwReadPacks > MAX_READ_PACKS_A_SEC )
; 267  : 			{
; 268  : 				OutputDebugString( "MAX_READ_PACK_A_SEC" );
; 269  : 				return NULL;
; 270  : 			}
; 271  : 			char lpOutputString[100];
; 272  : 			sprintf( lpOutputString, "%d(bytes), %d(packets)", m_dwReadBytes, m_dwReadPacks );
; 273  : 			OutputDebugString( lpOutputString );
; 274  : 
; 275  : 			m_dwReadBytes	= m_dwReadPacks	= 0;
; 276  : 			m_tRead		= t;
; 277  : 		}
; 278  : 	}
; 279  : #endif	// __INFO_SOCKLIB0102
; 280  : 
; 281  : #ifdef __SO1014
; 282  : 	if( m_hSocket == INVALID_SOCKET )
; 283  : 	{
; 284  : 		WriteError( "FETCH//0" );
; 285  : 		WSASetLastError( ERROR_BAD_NET_NAME );
; 286  : 		return NULL;
; 287  : 	}
; 288  : /*
; 289  : 	if( m_dwReadHeaderSize == HEADERSIZE13 )
; 290  : 	{
; 291  : 		if( dwBytes > MAX_BUFFER )	//
; 292  : 		{
; 293  : 			WriteError( "FETCH//200//%d", dwBytes );
; 294  : 			WSASetLastError( ERROR_BAD_NET_NAME );
; 295  : 			return NULL;
; 296  : 		}
; 297  : 	}
; 298  : */
; 299  : #endif	// __SO1014
; 300  : 
; 301  : 	m_pRecvBuffer->m_pTail	+=	dwBytes;

  0000d	8b 4c 24 24	 mov	 ecx, DWORD PTR _dwBytes$[esp+28]
  00011	55		 push	 ebp
  00012	89 44 24 20	 mov	 DWORD PTR __$ArrayPad$[esp+36], eax
  00016	8b 43 10	 mov	 eax, DWORD PTR [ebx+16]
  00019	56		 push	 esi
  0001a	01 88 18 20 00
	00		 add	 DWORD PTR [eax+8216], ecx

; 302  : 
; 303  : //	ASSERT( m_pRecvBuffer->m_pTail <= m_pRecvBuffer->m_lpBufMax );
; 304  : //#ifdef __SO1014
; 305  : //	if( m_pRecvBuffer->m_pTail > m_pRecvBuffer->m_lpBufMax )
; 306  : //	{
; 307  : //		WriteError( "FETCH//1" );
; 308  : //		WSASetLastError( ERROR_BAD_NET_NAME );
; 309  : //		return NULL;
; 310  : //	}
; 311  : //#endif	// __SO1014
; 312  : 	
; 313  : 	int nRemnant;
; 314  : 	LPBYTE ptr	= m_pRecvBuffer->GetReadableBuffer( &nRemnant );

  00020	8b 43 10	 mov	 eax, DWORD PTR [ebx+16]
  00023	8b b0 14 20 00
	00		 mov	 esi, DWORD PTR [eax+8212]
  00029	8b a8 18 20 00
	00		 mov	 ebp, DWORD PTR [eax+8216]

; 315  : 
; 316  : 	CBuffer* pOld	= NULL;
; 317  : 	u_long uPacketSize;
; 318  : 
; 319  : #ifdef __CRC
; 320  : 	DWORD dwCrc, dwDataSize;
; 321  : 	byte digest[4];
; 322  : #endif	// __CRC
; 323  : 
; 324  : 	INIT_LOOP;
; 325  : 	while( 1 )
; 326  : 	{
; 327  : 		VERIFY_LOOP( __FILE__, __LINE__ );
; 328  : #ifdef __CRC
; 329  : 		if( nRemnant < (int)( m_dwReadHeaderSize ) )
; 330  : #else	// __CRC
; 331  : 		if( nRemnant < (int)( m_pRecvBuffer->GetHeaderLength() ) )

  0002f	8b 88 24 20 00
	00		 mov	 ecx, DWORD PTR [eax+8228]
  00035	2b ee		 sub	 ebp, esi
  00037	3b e9		 cmp	 ebp, ecx
  00039	57		 push	 edi
  0003a	c7 44 24 10 00
	00 00 00	 mov	 DWORD PTR _pOld$[esp+44], 0
  00042	7c 36		 jl	 SHORT $L187570
$L186825:

; 358  : 		}
; 359  : 		else
; 360  : 		{
; 361  : #ifdef __CRC
; 362  : 			if( m_dwReadHeaderSize == HEADERSIZE13 )
; 363  : 			{
; 364  : 				int nOffset	= sizeof(char);
; 365  : #ifdef __PACKET_REPLAY_R
; 366  : 				int nPacket	= *(UNALIGNED int*)( ptr + nOffset );
; 367  : 				nOffset	+= sizeof(int);
; 368  : 				if( nPacket != m_nPacket + 1 )
; 369  : 				{
; 370  : 					char lpAddr[16]		= { 0,};
; 371  : 					GetPeerAddr( DPID_UNKNOWN, lpAddr, NULL );
; 372  : 					Error( "CClientSock.Fetch: replay: %s", lpAddr );
; 373  : 					WSASetLastError( ERROR_BAD_NET_NAME );
; 374  : 					return NULL;
; 375  : 				}
; 376  : 				//m_nPacket++;
; 377  : #endif	// __PACKET_REPLAY_R
; 378  : 				dwCrc	= *(UNALIGNED LPDWORD)( ptr + nOffset );
; 379  : 				nOffset	+= sizeof(DWORD);
; 380  : 				dwDataSize	= *(UNALIGNED LPDWORD)( ptr + nOffset );
; 381  : 				nOffset	+= sizeof(DWORD);
; 382  : 				m_crcRead.Restart();
; 383  : 				m_crcRead.Update( (const byte*)( &dwDataSize ), sizeof(DWORD) );
; 384  : 				m_crcRead.Final( digest );
; 385  : #ifdef __PACKET_REPLAY_R
; 386  : 				if( ~( *(UNALIGNED LPDWORD)digest ^ ( m_dwProtocolId + nPacket ) ) != dwCrc )
; 387  : #else	// __PACKET_REPLAY_R
; 388  : 				if( ~( *(UNALIGNED LPDWORD)digest ^ m_dwProtocolId ) != dwCrc )
; 389  : #endif	// __PACKET_REPLAY_R
; 390  : 				{
; 391  : 					WSASetLastError( ERROR_BAD_NET_NAME );
; 392  : 					return NULL;
; 393  : 				}
; 394  : 				dwCrc	= *(UNALIGNED LPDWORD)( ptr + nOffset );
; 395  : 				nOffset	+= sizeof(DWORD);
; 396  : 				uPacketSize		= m_dwReadHeaderSize + dwDataSize;
; 397  : #ifdef __SO1014
; 398  : 				if( dwDataSize > MAX_BUFFER )	// if( uPacketSize > MAX_BUFFER )	// kang: 2008/08/14
; 399  : 				{
; 400  : 					char lpAddr[16]		= { 0,};
; 401  : 					GetPeerAddr( DPID_UNKNOWN, lpAddr, NULL );
; 402  : 					Error( "CClientSocket.Fetch: ip = %s, size = %d", lpAddr, dwDataSize );
; 403  : 					WSASetLastError( ERROR_BAD_NET_NAME );
; 404  : 					return NULL;
; 405  : 				}
; 406  : #endif	// __SO1014
; 407  : 			}
; 408  : 			else
; 409  : 			{
; 410  : 				uPacketSize	= m_dwReadHeaderSize + *(UNALIGNED LPDWORD)&ptr[1];
; 411  : 			}
; 412  : #else	// __CRC
; 413  : 			uPacketSize	= m_pRecvBuffer->GetHeaderLength() + m_pRecvBuffer->GetPacketSize( ptr );

  00044	8b 4b 10	 mov	 ecx, DWORD PTR [ebx+16]
  00047	8b 91 24 20 00
	00		 mov	 edx, DWORD PTR [ecx+8228]
  0004d	8b 01		 mov	 eax, DWORD PTR [ecx]
  0004f	56		 push	 esi
  00050	89 54 24 18	 mov	 DWORD PTR $T187562[esp+48], edx
  00054	ff 50 04	 call	 DWORD PTR [eax+4]
  00057	8b 4c 24 14	 mov	 ecx, DWORD PTR $T187562[esp+44]
  0005b	8b f8		 mov	 edi, eax

; 442  : 				}
; 443  : 				return pOld;
; 444  : 			}
; 445  : 			else	// completion
; 446  : 			{
; 447  : #ifdef __CRC
; 448  : 				if( m_dwReadHeaderSize == HEADERSIZE13 )
; 449  : 				{
; 450  : 					m_crcRead.Restart();
; 451  : 					m_crcRead.Update( (const byte*)( ptr + m_dwReadHeaderSize ), dwDataSize );
; 452  : 					m_crcRead.Final( digest );
; 453  : #ifdef __PACKET_REPLAY_R
; 454  : 					if( ~( *(UNALIGNED LPDWORD)digest ^ ( m_dwProtocolId + m_nPacket + 1 ) ) != dwCrc )
; 455  : #else	// __PACKET_REPLAY_R
; 456  : 					if( ~( *(UNALIGNED LPDWORD)digest ^ m_dwProtocolId ) != dwCrc )
; 457  : #endif	// __PACKET_REPLAY_R
; 458  : 					{
; 459  : 						char lpAddr[16]		= { 0,};
; 460  : 						GetPeerAddr( DPID_UNKNOWN, lpAddr, NULL );
; 461  : 						Error( "CClientSock.Fetch: replay: %s", lpAddr );
; 462  : 						WSASetLastError( ERROR_BAD_NET_NAME );
; 463  : 						return NULL;
; 464  : 					}
; 465  : 				}
; 466  : #endif	// __CRC
; 467  : #ifdef __PACKET_REPLAY_R
; 468  : 				m_nPacket++;
; 469  : #endif // __PACKET_REPLAY_R
; 470  : 				m_pRecvBuffer->cb++;

  0005d	8b 43 10	 mov	 eax, DWORD PTR [ebx+16]
  00060	03 f9		 add	 edi, ecx
  00062	3b ef		 cmp	 ebp, edi
  00064	7c 5d		 jl	 SHORT $L187571
  00066	ff 40 08	 inc	 DWORD PTR [eax+8]
  00069	8b 4b 10	 mov	 ecx, DWORD PTR [ebx+16]
  0006c	8b 81 24 20 00
	00		 mov	 eax, DWORD PTR [ecx+8228]

; 471  : 				nRemnant	-= ( uPacketSize );

  00072	2b ef		 sub	 ebp, edi

; 472  : 				ptr		+= ( uPacketSize );

  00074	03 f7		 add	 esi, edi
  00076	3b e8		 cmp	 ebp, eax
  00078	7d ca		 jge	 SHORT $L186825
$L187570:

; 332  : #endif	// __CRC
; 333  : 		{
; 334  : 			if( m_pRecvBuffer->cb > 0 ) {

  0007a	8b 43 10	 mov	 eax, DWORD PTR [ebx+16]
  0007d	8b 48 08	 mov	 ecx, DWORD PTR [eax+8]
  00080	85 c9		 test	 ecx, ecx
  00082	0f 86 ff 00 00
	00		 jbe	 $L187572

; 335  : 				pOld	= m_pRecvBuffer;
; 336  : 				pOld->m_pTail	-= nRemnant;	// remove remnant from old buffer

  00088	29 a8 18 20 00
	00		 sub	 DWORD PTR [eax+8216], ebp

; 337  : 				m_pRecvBuffer	= CBufferFactory::GetInstance().CreateBuffer( m_nBufferType );

  0008e	8b 93 8c 04 00
	00		 mov	 edx, DWORD PTR [ebx+1164]
  00094	68 00 20 00 00	 push	 8192			; 00002000H
  00099	52		 push	 edx
  0009a	89 44 24 18	 mov	 DWORD PTR _pOld$[esp+52], eax
  0009e	e8 00 00 00 00	 call	 ?GetInstance@CBufferFactory@@SAAAV1@XZ ; CBufferFactory::GetInstance
  000a3	8b c8		 mov	 ecx, eax
  000a5	e8 00 00 00 00	 call	 ?CreateBuffer@CBufferFactory@@QAEPAVCBuffer@@W4BUFFER_TYPE@@K@Z ; CBufferFactory::CreateBuffer
  000aa	89 43 10	 mov	 DWORD PTR [ebx+16], eax

; 338  : //				ASSERT( m_pRecvBuffer->m_pTail + nRemnant <= m_pRecvBuffer->m_lpBufMax ); 
; 339  : #ifdef __SO1014
; 340  : //				if( m_pRecvBuffer->m_pTail + nRemnant > m_pRecvBuffer->m_lpBufMax )
; 341  : //				{
; 342  : //					WriteError( "FETCH//2" );
; 343  : //					WSASetLastError( ERROR_BAD_NET_NAME );
; 344  : //					return NULL;
; 345  : //				}
; 346  : 				if( !m_pRecvBuffer->m_lpBufStart )
; 347  : 				{
; 348  : 					WriteError( "FETCH//2" );
; 349  : 					WSASetLastError( ERROR_BAD_NET_NAME );
; 350  : 					return NULL;
; 351  : 				}
; 352  : #endif	// __SO1014
; 353  : 				memcpy( m_pRecvBuffer->m_pTail, ptr, nRemnant );

  000ad	8b b8 18 20 00
	00		 mov	 edi, DWORD PTR [eax+8216]
  000b3	8b cd		 mov	 ecx, ebp
  000b5	8b c1		 mov	 eax, ecx
  000b7	c1 e9 02	 shr	 ecx, 2
  000ba	f3 a5		 rep movsd
  000bc	8b c8		 mov	 ecx, eax

; 354  : 
; 355  : 				m_pRecvBuffer->m_pTail	+=	nRemnant;
; 356  : 			}
; 357  : 			return pOld;

  000be	e9 b6 00 00 00	 jmp	 $L187574
$L187571:

; 414  : #endif	// __CRC
; 415  : 			if( nRemnant < (int)( uPacketSize ) )
; 416  : 			{
; 417  : 				if( (int)( uPacketSize ) > m_pRecvBuffer->GetSize() || m_pRecvBuffer->cb > 0 )

  000c3	8b 88 10 20 00
	00		 mov	 ecx, DWORD PTR [eax+8208]
  000c9	2b 88 0c 20 00
	00		 sub	 ecx, DWORD PTR [eax+8204]
  000cf	3b f9		 cmp	 edi, ecx
  000d1	7f 0b		 jg	 SHORT $L186836
  000d3	8b 48 08	 mov	 ecx, DWORD PTR [eax+8]
  000d6	85 c9		 test	 ecx, ecx
  000d8	0f 86 a9 00 00
	00		 jbe	 $L187572
$L186836:

; 418  : 				{
; 419  : 					pOld	= m_pRecvBuffer;
; 420  : 					m_pRecvBuffer	= CBufferFactory::GetInstance().CreateBuffer( m_nBufferType, uPacketSize ); 

  000de	8b 93 8c 04 00
	00		 mov	 edx, DWORD PTR [ebx+1164]
  000e4	57		 push	 edi
  000e5	52		 push	 edx
  000e6	89 44 24 18	 mov	 DWORD PTR _pOld$[esp+52], eax
  000ea	e8 00 00 00 00	 call	 ?GetInstance@CBufferFactory@@SAAAV1@XZ ; CBufferFactory::GetInstance
  000ef	8b c8		 mov	 ecx, eax
  000f1	e8 00 00 00 00	 call	 ?CreateBuffer@CBufferFactory@@QAEPAVCBuffer@@W4BUFFER_TYPE@@K@Z ; CBufferFactory::CreateBuffer
  000f6	89 43 10	 mov	 DWORD PTR [ebx+16], eax

; 421  : 					if( !m_pRecvBuffer->m_lpBufStart )

  000f9	8b 88 0c 20 00
	00		 mov	 ecx, DWORD PTR [eax+8204]
  000ff	85 c9		 test	 ecx, ecx
  00101	75 5d		 jne	 SHORT $L186837

; 422  : 					{
; 423  : 						char lpAddr[16]		= { 0,};
; 424  : 						GetPeerAddr( DPID_UNKNOWN, lpAddr, NULL );

  00103	8b 13		 mov	 edx, DWORD PTR [ebx]
  00105	33 c0		 xor	 eax, eax
  00107	89 44 24 19	 mov	 DWORD PTR _lpAddr$186838[esp+45], eax
  0010b	89 44 24 1d	 mov	 DWORD PTR _lpAddr$186838[esp+49], eax
  0010f	89 44 24 21	 mov	 DWORD PTR _lpAddr$186838[esp+53], eax
  00113	66 89 44 24 25	 mov	 WORD PTR _lpAddr$186838[esp+57], ax
  00118	88 44 24 27	 mov	 BYTE PTR _lpAddr$186838[esp+59], al
  0011c	8b cb		 mov	 ecx, ebx
  0011e	c6 44 24 18 00	 mov	 BYTE PTR _lpAddr$186838[esp+44], 0
  00123	50		 push	 eax
  00124	8d 44 24 1c	 lea	 eax, DWORD PTR _lpAddr$186838[esp+48]
  00128	50		 push	 eax
  00129	6a ff		 push	 -1
  0012b	ff 52 18	 call	 DWORD PTR [edx+24]

; 425  : 						Error( "CClientSocket.Fetch: ip = %s, size = %d", lpAddr, uPacketSize );

  0012e	57		 push	 edi
  0012f	8d 4c 24 1c	 lea	 ecx, DWORD PTR _lpAddr$186838[esp+48]
  00133	51		 push	 ecx
  00134	68 00 00 00 00	 push	 OFFSET FLAT:??_C@_0CI@ODKLMECE@CClientSocket?4Fetch?3?5ip?5?$DN?5?$CFs?0?5si@
  00139	e8 00 00 00 00	 call	 ?Error@@YAPBDPBDZZ	; Error
  0013e	83 c4 0c	 add	 esp, 12			; 0000000cH

; 426  : 						WSASetLastError( ERROR_BAD_NET_NAME );

  00141	6a 43		 push	 67			; 00000043H
  00143	ff 15 00 00 00
	00		 call	 DWORD PTR __imp__WSASetLastError@4
  00149	5f		 pop	 edi
  0014a	5e		 pop	 esi
  0014b	5d		 pop	 ebp

; 427  : 						return NULL;

  0014c	33 c0		 xor	 eax, eax
  0014e	5b		 pop	 ebx

; 473  : 			}
; 474  : 		}
; 475  : 	}
; 476  : 
; 477  : 
; 478  : 
; 479  : 	return NULL;
; 480  : }

  0014f	8b 4c 24 18	 mov	 ecx, DWORD PTR __$ArrayPad$[esp+28]
  00153	33 cc		 xor	 ecx, esp
  00155	e8 00 00 00 00	 call	 @__security_check_cookie@4
  0015a	83 c4 1c	 add	 esp, 28			; 0000001cH
  0015d	c2 04 00	 ret	 4
$L186837:

; 428  : 					}
; 429  : 				}
; 430  : 				if( pOld )

  00160	8b 4c 24 10	 mov	 ecx, DWORD PTR _pOld$[esp+44]
  00164	85 c9		 test	 ecx, ecx
  00166	74 1f		 je	 SHORT $L187572

; 431  : 				{
; 432  : #ifdef __SO1014
; 433  : 					if( !m_pRecvBuffer->m_lpBufStart )
; 434  : 					{
; 435  : 						WriteError( "FETCH//3" );
; 436  : 						WSASetLastError( ERROR_BAD_NET_NAME );
; 437  : 						return NULL;
; 438  : 					}
; 439  : #endif	// __SO1014
; 440  : 					memcpy( m_pRecvBuffer->m_pTail, ptr, nRemnant );

  00168	8b b8 18 20 00
	00		 mov	 edi, DWORD PTR [eax+8216]
  0016e	8b cd		 mov	 ecx, ebp
  00170	8b d1		 mov	 edx, ecx
  00172	c1 e9 02	 shr	 ecx, 2
  00175	f3 a5		 rep movsd
  00177	8b ca		 mov	 ecx, edx
$L187574:
  00179	83 e1 03	 and	 ecx, 3
  0017c	f3 a4		 rep movsb

; 441  : 					m_pRecvBuffer->m_pTail	+=	nRemnant;

  0017e	8b 5b 10	 mov	 ebx, DWORD PTR [ebx+16]
  00181	01 ab 18 20 00
	00		 add	 DWORD PTR [ebx+8216], ebp
$L187572:

; 473  : 			}
; 474  : 		}
; 475  : 	}
; 476  : 
; 477  : 
; 478  : 
; 479  : 	return NULL;
; 480  : }

  00187	8b 4c 24 28	 mov	 ecx, DWORD PTR __$ArrayPad$[esp+44]
  0018b	8b 44 24 10	 mov	 eax, DWORD PTR _pOld$[esp+44]
  0018f	5f		 pop	 edi
  00190	5e		 pop	 esi
  00191	5d		 pop	 ebp
  00192	5b		 pop	 ebx
  00193	33 cc		 xor	 ecx, esp
  00195	e8 00 00 00 00	 call	 @__security_check_cookie@4
  0019a	83 c4 1c	 add	 esp, 28			; 0000001cH
  0019d	c2 04 00	 ret	 4
?Fetch@CClientSock@@QAEPAVCBuffer@@K@Z ENDP		; CClientSock::Fetch
_TEXT	ENDS
PUBLIC	?construct@?$allocator@PAU_Node@?$_List_nod@PAXV?$allocator@PAX@std@@@std@@@std@@QAEXPAPAU_Node@?$_List_nod@PAXV?$allocator@PAX@std@@@2@ABQAU342@@Z ; std::allocator<std::_List_nod<void *,std::allocator<void *> >::_Node *>::construct
; Function compile flags: /Ogty
; File c:\program files\microsoft visual studio .net 2003\vc7\include\xmemory
;	COMDAT ?construct@?$allocator@PAU_Node@?$_List_nod@PAXV?$allocator@PAX@std@@@std@@@std@@QAEXPAPAU_Node@?$_List_nod@PAXV?$allocator@PAX@std@@@2@ABQAU342@@Z
_TEXT	SEGMENT
__Ptr$ = 8						; size = 4
__Val$ = 12						; size = 4
?construct@?$allocator@PAU_Node@?$_List_nod@PAXV?$allocator@PAX@std@@@std@@@std@@QAEXPAPAU_Node@?$_List_nod@PAXV?$allocator@PAX@std@@@2@ABQAU342@@Z PROC NEAR ; std::allocator<std::_List_nod<void *,std::allocator<void *> >::_Node *>::construct, COMDAT
; _this$ = ecx

; 147  : 		_Construct(_Ptr, _Val);

  00000	8b 44 24 04	 mov	 eax, DWORD PTR __Ptr$[esp-4]
  00004	85 c0		 test	 eax, eax
  00006	74 08		 je	 SHORT $L187586
  00008	8b 4c 24 08	 mov	 ecx, DWORD PTR __Val$[esp-4]
  0000c	8b 11		 mov	 edx, DWORD PTR [ecx]
  0000e	89 10		 mov	 DWORD PTR [eax], edx
$L187586:

; 148  : 		}

  00010	c2 08 00	 ret	 8
?construct@?$allocator@PAU_Node@?$_List_nod@PAXV?$allocator@PAX@std@@@std@@@std@@QAEXPAPAU_Node@?$_List_nod@PAXV?$allocator@PAX@std@@@2@ABQAU342@@Z ENDP ; std::allocator<std::_List_nod<void *,std::allocator<void *> >::_Node *>::construct
_TEXT	ENDS
PUBLIC	?destroy@?$allocator@PAU_Node@?$_List_nod@PAXV?$allocator@PAX@std@@@std@@@std@@QAEXPAPAU_Node@?$_List_nod@PAXV?$allocator@PAX@std@@@2@@Z ; std::allocator<std::_List_nod<void *,std::allocator<void *> >::_Node *>::destroy
; Function compile flags: /Ogty
;	COMDAT ?destroy@?$allocator@PAU_Node@?$_List_nod@PAXV?$allocator@PAX@std@@@std@@@std@@QAEXPAPAU_Node@?$_List_nod@PAXV?$allocator@PAX@std@@@2@@Z
_TEXT	SEGMENT
__Ptr$ = 8						; size = 4
?destroy@?$allocator@PAU_Node@?$_List_nod@PAXV?$allocator@PAX@std@@@std@@@std@@QAEXPAPAU_Node@?$_List_nod@PAXV?$allocator@PAX@std@@@2@@Z PROC NEAR ; std::allocator<std::_List_nod<void *,std::allocator<void *> >::_Node *>::destroy, COMDAT
; _this$ = ecx

; 152  : 		_Destroy(_Ptr);
; 153  : 		}

  00000	c2 04 00	 ret	 4
?destroy@?$allocator@PAU_Node@?$_List_nod@PAXV?$allocator@PAX@std@@@std@@@std@@QAEXPAPAU_Node@?$_List_nod@PAXV?$allocator@PAX@std@@@2@@Z ENDP ; std::allocator<std::_List_nod<void *,std::allocator<void *> >::_Node *>::destroy
_TEXT	ENDS
PUBLIC	??0?$_List_nod@PAXV?$allocator@PAX@std@@@std@@IAE@V?$allocator@PAX@1@@Z ; std::_List_nod<void *,std::allocator<void *> >::_List_nod<void *,std::allocator<void *> >
; Function compile flags: /Ogty
; File c:\program files\microsoft visual studio .net 2003\vc7\include\list
;	COMDAT ??0?$_List_nod@PAXV?$allocator@PAX@std@@@std@@IAE@V?$allocator@PAX@1@@Z
_TEXT	SEGMENT
__Al$ = 8						; size = 1
??0?$_List_nod@PAXV?$allocator@PAX@std@@@std@@IAE@V?$allocator@PAX@1@@Z PROC NEAR ; std::_List_nod<void *,std::allocator<void *> >::_List_nod<void *,std::allocator<void *> >, COMDAT
; _this$ = ecx

; 44   : 		{	// construct allocator from _Al

  00000	8b c1		 mov	 eax, ecx

; 45   : 		}

  00002	c2 04 00	 ret	 4
??0?$_List_nod@PAXV?$allocator@PAX@std@@@std@@IAE@V?$allocator@PAX@1@@Z ENDP ; std::_List_nod<void *,std::allocator<void *> >::_List_nod<void *,std::allocator<void *> >
_TEXT	ENDS
PUBLIC	?destroy@?$allocator@U_Node@?$_List_nod@PAXV?$allocator@PAX@std@@@std@@@std@@QAEXPAU_Node@?$_List_nod@PAXV?$allocator@PAX@std@@@2@@Z ; std::allocator<std::_List_nod<void *,std::allocator<void *> >::_Node>::destroy
; Function compile flags: /Ogty
; File c:\program files\microsoft visual studio .net 2003\vc7\include\xmemory
;	COMDAT ?destroy@?$allocator@U_Node@?$_List_nod@PAXV?$allocator@PAX@std@@@std@@@std@@QAEXPAU_Node@?$_List_nod@PAXV?$allocator@PAX@std@@@2@@Z
_TEXT	SEGMENT
__Ptr$ = 8						; size = 4
?destroy@?$allocator@U_Node@?$_List_nod@PAXV?$allocator@PAX@std@@@std@@@std@@QAEXPAU_Node@?$_List_nod@PAXV?$allocator@PAX@std@@@2@@Z PROC NEAR ; std::allocator<std::_List_nod<void *,std::allocator<void *> >::_Node>::destroy, COMDAT
; _this$ = ecx

; 152  : 		_Destroy(_Ptr);
; 153  : 		}

  00000	c2 04 00	 ret	 4
?destroy@?$allocator@U_Node@?$_List_nod@PAXV?$allocator@PAX@std@@@std@@@std@@QAEXPAU_Node@?$_List_nod@PAXV?$allocator@PAX@std@@@2@@Z ENDP ; std::allocator<std::_List_nod<void *,std::allocator<void *> >::_Node>::destroy
_TEXT	ENDS
PUBLIC	??0?$_String_val@DV?$allocator@D@std@@@std@@IAE@V?$allocator@D@1@@Z ; std::_String_val<char,std::allocator<char> >::_String_val<char,std::allocator<char> >
; Function compile flags: /Ogty
; File c:\program files\microsoft visual studio .net 2003\vc7\include\xstring
;	COMDAT ??0?$_String_val@DV?$allocator@D@std@@@std@@IAE@V?$allocator@D@1@@Z
_TEXT	SEGMENT
__Al$ = 8						; size = 1
??0?$_String_val@DV?$allocator@D@std@@@std@@IAE@V?$allocator@D@1@@Z PROC NEAR ; std::_String_val<char,std::allocator<char> >::_String_val<char,std::allocator<char> >, COMDAT
; _this$ = ecx

; 34   : 		{	// construct allocator from _Al

  00000	8b c1		 mov	 eax, ecx

; 35   : 		}

  00002	c2 04 00	 ret	 4
??0?$_String_val@DV?$allocator@D@std@@@std@@IAE@V?$allocator@D@1@@Z ENDP ; std::_String_val<char,std::allocator<char> >::_String_val<char,std::allocator<char> >
_TEXT	ENDS
PUBLIC	?_Eos@?$basic_string@DU?$char_traits@D@std@@V?$allocator@D@2@@std@@IAEXI@Z ; std::basic_string<char,std::char_traits<char>,std::allocator<char> >::_Eos
; Function compile flags: /Ogty
;	COMDAT ?_Eos@?$basic_string@DU?$char_traits@D@std@@V?$allocator@D@2@@std@@IAEXI@Z
_TEXT	SEGMENT
__Newsize$ = 8						; size = 4
?_Eos@?$basic_string@DU?$char_traits@D@std@@V?$allocator@D@2@@std@@IAEXI@Z PROC NEAR ; std::basic_string<char,std::char_traits<char>,std::allocator<char> >::_Eos, COMDAT
; _this$ = ecx

; 1475 : 		_Traits::assign(_Myptr()[_Mysize = _Newsize], _Elem());

  00000	83 79 18 10	 cmp	 DWORD PTR [ecx+24], 16	; 00000010H
  00004	8b 44 24 04	 mov	 eax, DWORD PTR __Newsize$[esp-4]
  00008	89 41 14	 mov	 DWORD PTR [ecx+20], eax
  0000b	72 0a		 jb	 SHORT $L187618
  0000d	8b 49 04	 mov	 ecx, DWORD PTR [ecx+4]
  00010	c6 04 01 00	 mov	 BYTE PTR [ecx+eax], 0

; 1476 : 		}

  00014	c2 04 00	 ret	 4

; 1475 : 		_Traits::assign(_Myptr()[_Mysize = _Newsize], _Elem());

$L187618:
  00017	c6 44 01 04 00	 mov	 BYTE PTR [ecx+eax+4], 0

; 1476 : 		}

  0001c	c2 04 00	 ret	 4
?_Eos@?$basic_string@DU?$char_traits@D@std@@V?$allocator@D@2@@std@@IAEXI@Z ENDP ; std::basic_string<char,std::char_traits<char>,std::allocator<char> >::_Eos
_TEXT	ENDS
PUBLIC	?max_size@?$basic_string@DU?$char_traits@D@std@@V?$allocator@D@2@@std@@QBEIXZ ; std::basic_string<char,std::char_traits<char>,std::allocator<char> >::max_size
; Function compile flags: /Ogty
;	COMDAT ?max_size@?$basic_string@DU?$char_traits@D@std@@V?$allocator@D@2@@std@@QBEIXZ
_TEXT	SEGMENT
?max_size@?$basic_string@DU?$char_traits@D@std@@V?$allocator@D@2@@std@@QBEIXZ PROC NEAR ; std::basic_string<char,std::char_traits<char>,std::allocator<char> >::max_size, COMDAT
; _this$ = ecx

; 1114 : 		size_type _Num = _Mybase::_Alval.max_size();
; 1115 : 		return (_Num <= 1 ? 1 : _Num - 1);

  00000	b8 fe ff ff ff	 mov	 eax, -2			; fffffffeH

; 1116 : 		}

  00005	c3		 ret	 0
?max_size@?$basic_string@DU?$char_traits@D@std@@V?$allocator@D@2@@std@@QBEIXZ ENDP ; std::basic_string<char,std::char_traits<char>,std::allocator<char> >::max_size
_TEXT	ENDS
PUBLIC	?allocate@?$allocator@D@std@@QAEPADI@Z		; std::allocator<char>::allocate
; Function compile flags: /Ogty
; File c:\program files\microsoft visual studio .net 2003\vc7\include\xmemory
;	COMDAT ?allocate@?$allocator@D@std@@QAEPADI@Z
_TEXT	SEGMENT
__Count$ = 8						; size = 4
?allocate@?$allocator@D@std@@QAEPADI@Z PROC NEAR	; std::allocator<char>::allocate, COMDAT
; _this$ = ecx

; 137  : 		return (_Allocate(_Count, (pointer)0));

  00000	8b 44 24 04	 mov	 eax, DWORD PTR __Count$[esp-4]
  00004	50		 push	 eax
  00005	e8 00 00 00 00	 call	 ??2@YAPAXI@Z		; operator new
  0000a	83 c4 04	 add	 esp, 4

; 138  : 		}

  0000d	c2 04 00	 ret	 4
?allocate@?$allocator@D@std@@QAEPADI@Z ENDP		; std::allocator<char>::allocate
_TEXT	ENDS
PUBLIC	??0iterator@?$list@PAXV?$allocator@PAX@std@@@std@@QAE@PAU_Node@?$_List_nod@PAXV?$allocator@PAX@std@@@2@@Z ; std::list<void *,std::allocator<void *> >::iterator::iterator
; Function compile flags: /Ogty
; File c:\program files\microsoft visual studio .net 2003\vc7\include\list
;	COMDAT ??0iterator@?$list@PAXV?$allocator@PAX@std@@@std@@QAE@PAU_Node@?$_List_nod@PAXV?$allocator@PAX@std@@@2@@Z
_TEXT	SEGMENT
__Pnode$ = 8						; size = 4
??0iterator@?$list@PAXV?$allocator@PAX@std@@@std@@QAE@PAU_Node@?$_List_nod@PAXV?$allocator@PAX@std@@@2@@Z PROC NEAR ; std::list<void *,std::allocator<void *> >::iterator::iterator, COMDAT
; _this$ = ecx

; 235  : 			{	// construct with node pointer _Pnode

  00000	8b c1		 mov	 eax, ecx
  00002	8b 4c 24 04	 mov	 ecx, DWORD PTR __Pnode$[esp-4]
  00006	89 08		 mov	 DWORD PTR [eax], ecx

; 236  : 			}

  00008	c2 04 00	 ret	 4
??0iterator@?$list@PAXV?$allocator@PAX@std@@@std@@QAE@PAU_Node@?$_List_nod@PAXV?$allocator@PAX@std@@@2@@Z ENDP ; std::list<void *,std::allocator<void *> >::iterator::iterator
_TEXT	ENDS
PUBLIC	?max_size@?$list@PAXV?$allocator@PAX@std@@@std@@QBEIXZ ; std::list<void *,std::allocator<void *> >::max_size
; Function compile flags: /Ogty
;	COMDAT ?max_size@?$list@PAXV?$allocator@PAX@std@@@std@@QBEIXZ
_TEXT	SEGMENT
?max_size@?$list@PAXV?$allocator@PAX@std@@@std@@QBEIXZ PROC NEAR ; std::list<void *,std::allocator<void *> >::max_size, COMDAT
; _this$ = ecx

; 436  : 		return (this->_Alval.max_size());

  00000	b8 ff ff ff 3f	 mov	 eax, 1073741823		; 3fffffffH

; 437  : 		}

  00005	c3		 ret	 0
?max_size@?$list@PAXV?$allocator@PAX@std@@@std@@QBEIXZ ENDP ; std::list<void *,std::allocator<void *> >::max_size
_TEXT	ENDS
PUBLIC	?allocate@?$allocator@U_Node@?$_List_nod@PAXV?$allocator@PAX@std@@@std@@@std@@QAEPAU_Node@?$_List_nod@PAXV?$allocator@PAX@std@@@2@I@Z ; std::allocator<std::_List_nod<void *,std::allocator<void *> >::_Node>::allocate
; Function compile flags: /Ogty
; File c:\program files\microsoft visual studio .net 2003\vc7\include\xmemory
;	COMDAT ?allocate@?$allocator@U_Node@?$_List_nod@PAXV?$allocator@PAX@std@@@std@@@std@@QAEPAU_Node@?$_List_nod@PAXV?$allocator@PAX@std@@@2@I@Z
_TEXT	SEGMENT
__Count$ = 8						; size = 4
?allocate@?$allocator@U_Node@?$_List_nod@PAXV?$allocator@PAX@std@@@std@@@std@@QAEPAU_Node@?$_List_nod@PAXV?$allocator@PAX@std@@@2@I@Z PROC NEAR ; std::allocator<std::_List_nod<void *,std::allocator<void *> >::_Node>::allocate, COMDAT
; _this$ = ecx

; 137  : 		return (_Allocate(_Count, (pointer)0));

  00000	8b 44 24 04	 mov	 eax, DWORD PTR __Count$[esp-4]
  00004	8d 04 40	 lea	 eax, DWORD PTR [eax+eax*2]
  00007	c1 e0 02	 shl	 eax, 2
  0000a	50		 push	 eax
  0000b	e8 00 00 00 00	 call	 ??2@YAPAXI@Z		; operator new
  00010	83 c4 04	 add	 esp, 4

; 138  : 		}

  00013	c2 04 00	 ret	 4
?allocate@?$allocator@U_Node@?$_List_nod@PAXV?$allocator@PAX@std@@@std@@@std@@QAEPAU_Node@?$_List_nod@PAXV?$allocator@PAX@std@@@2@I@Z ENDP ; std::allocator<std::_List_nod<void *,std::allocator<void *> >::_Node>::allocate
_TEXT	ENDS
PUBLIC	?Free@?$MemPooler@VCClientSock@@@@QAEHPAVCClientSock@@@Z ; MemPooler<CClientSock>::Free
; Function compile flags: /Ogty
;	COMDAT ??_GCClientSock@@UAEPAXI@Z
_TEXT	SEGMENT
___flags$ = 8						; size = 4
??_GCClientSock@@UAEPAXI@Z PROC NEAR			; CClientSock::`scalar deleting destructor', COMDAT
; _this$ = ecx
  00000	56		 push	 esi
  00001	8b f1		 mov	 esi, ecx
  00003	e8 00 00 00 00	 call	 ??1CClientSock@@UAE@XZ	; CClientSock::~CClientSock
  00008	f6 44 24 08 01	 test	 BYTE PTR ___flags$[esp], 1
  0000d	74 0c		 je	 SHORT $L187667
  0000f	8b 0d 00 00 00
	00		 mov	 ecx, DWORD PTR ?m_pPool@CClientSock@@2PAV?$MemPooler@VCClientSock@@@@A ; CClientSock::m_pPool
  00015	56		 push	 esi
  00016	e8 00 00 00 00	 call	 ?Free@?$MemPooler@VCClientSock@@@@QAEHPAVCClientSock@@@Z ; MemPooler<CClientSock>::Free
$L187667:
  0001b	8b c6		 mov	 eax, esi
  0001d	5e		 pop	 esi
  0001e	c2 04 00	 ret	 4
??_GCClientSock@@UAEPAXI@Z ENDP				; CClientSock::`scalar deleting destructor'
; Function compile flags: /Ogty
; File c:\documents and settings\test\mes documents\source\virtuos_v17\build\program\_network\misc\include\mempooler.h
_TEXT	ENDS
;	COMDAT ?Free@?$MemPooler@VCClientSock@@@@QAEHPAVCClientSock@@@Z
_TEXT	SEGMENT
_lpMem$ = 8						; size = 4
?Free@?$MemPooler@VCClientSock@@@@QAEHPAVCClientSock@@@Z PROC NEAR ; MemPooler<CClientSock>::Free, COMDAT
; _this$ = ecx

; 80   : 		{

  00000	53		 push	 ebx
  00001	56		 push	 esi
  00002	8b f1		 mov	 esi, ecx
  00004	57		 push	 edi

; 81   : #ifdef __VERIFY_MEMPOOL
; 82   : 			::operator delete(lpMem);
; 83   : 			return TRUE;
; 84   : #endif
; 85   : 
; 86   : 			BlockNode* pNode	= NULL;
; 87   : 
; 88   : 			EnterCriticalSection( &m_cs );

  00005	8d 5e 1c	 lea	 ebx, DWORD PTR [esi+28]
  00008	53		 push	 ebx
  00009	ff 15 00 00 00
	00		 call	 DWORD PTR __imp__EnterCriticalSection@4

; 89   : 
; 90   : 			pNode	= ( reinterpret_cast<BlockNode*>( lpMem ) ) - 1;
; 91   : 			if( m_nAllocCount > 0 )

  0000f	8b 4e 18	 mov	 ecx, DWORD PTR [esi+24]
  00012	85 c9		 test	 ecx, ecx
  00014	8b 7c 24 10	 mov	 edi, DWORD PTR _lpMem$[esp+8]
  00018	8d 47 fc	 lea	 eax, DWORD PTR [edi-4]
  0001b	7e 09		 jle	 SHORT $L183696

; 92   : 			{
; 93   : 				pNode->pNext	= m_pFreeList;

  0001d	8b 0e		 mov	 ecx, DWORD PTR [esi]
  0001f	89 08		 mov	 DWORD PTR [eax], ecx

; 94   : 				m_pFreeList		= pNode;

  00021	89 06		 mov	 DWORD PTR [esi], eax

; 95   : 				m_nAllocCount--;

  00023	ff 4e 18	 dec	 DWORD PTR [esi+24]
$L183696:

; 96   : 			}
; 97   : 
; 98   : 			//	mulcom	BEGIN100422	 
; 99   : 			::memset( lpMem, 0, sizeof(T) );

  00026	33 c0		 xor	 eax, eax
  00028	b9 25 01 00 00	 mov	 ecx, 293		; 00000125H

; 100  : 			//	mulcom	END100422	 
; 101  : 
; 102  : 			LeaveCriticalSection( &m_cs );

  0002d	53		 push	 ebx
  0002e	f3 ab		 rep stosd
  00030	ff 15 00 00 00
	00		 call	 DWORD PTR __imp__LeaveCriticalSection@4
  00036	5f		 pop	 edi
  00037	5e		 pop	 esi

; 103  : 
; 104  : 			return TRUE;

  00038	b8 01 00 00 00	 mov	 eax, 1
  0003d	5b		 pop	 ebx

; 105  : 		}

  0003e	c2 04 00	 ret	 4
?Free@?$MemPooler@VCClientSock@@@@QAEHPAVCClientSock@@@Z ENDP ; MemPooler<CClientSock>::Free
_TEXT	ENDS
PUBLIC	?_Buynode@?$list@PAXV?$allocator@PAX@std@@@std@@IAEPAU_Node@?$_List_nod@PAXV?$allocator@PAX@std@@@2@XZ ; std::list<void *,std::allocator<void *> >::_Buynode
EXTRN	__CxxThrowException@8:NEAR
; Function compile flags: /Ogty
; File c:\program files\microsoft visual studio .net 2003\vc7\include\list
;	COMDAT ?_Buynode@?$list@PAXV?$allocator@PAX@std@@@std@@IAEPAU_Node@?$_List_nod@PAXV?$allocator@PAX@std@@@2@XZ
_TEXT	SEGMENT
?_Buynode@?$list@PAXV?$allocator@PAX@std@@@std@@IAEPAU_Node@?$_List_nod@PAXV?$allocator@PAX@std@@@2@XZ PROC NEAR ; std::list<void *,std::allocator<void *> >::_Buynode, COMDAT
; _this$ = ecx

; 899  : 		_Nodeptr _Pnode = this->_Alnod.allocate(1);

  00000	6a 0c		 push	 12			; 0000000cH
  00002	e8 00 00 00 00	 call	 ??2@YAPAXI@Z		; operator new
  00007	83 c4 04	 add	 esp, 4

; 900  : 		int _Linkcnt = 0;
; 901  : 
; 902  : 		_TRY_BEGIN
; 903  : 		this->_Alptr.construct(&_Nextnode(_Pnode), _Pnode);

  0000a	85 c0		 test	 eax, eax
  0000c	74 02		 je	 SHORT $L187704
  0000e	89 00		 mov	 DWORD PTR [eax], eax
$L187704:

; 904  : 		++_Linkcnt;
; 905  : 		this->_Alptr.construct(&_Prevnode(_Pnode), _Pnode);

  00010	8d 48 04	 lea	 ecx, DWORD PTR [eax+4]
  00013	85 c9		 test	 ecx, ecx
  00015	74 02		 je	 SHORT $L187732
  00017	89 01		 mov	 DWORD PTR [ecx], eax
$L187732:

; 906  : 		_CATCH_ALL
; 907  : 		if (0 < _Linkcnt)
; 908  : 			this->_Alptr.destroy(&_Nextnode(_Pnode));
; 909  : 		this->_Alnod.deallocate(_Pnode, 1);
; 910  : 		_RERAISE;
; 911  : 		_CATCH_END
; 912  : 		return (_Pnode);
; 913  : 		}

  00019	c3		 ret	 0
?_Buynode@?$list@PAXV?$allocator@PAX@std@@@std@@IAEPAU_Node@?$_List_nod@PAXV?$allocator@PAX@std@@@2@XZ ENDP ; std::list<void *,std::allocator<void *> >::_Buynode
_TEXT	ENDS
PUBLIC	?clear@?$list@PAXV?$allocator@PAX@std@@@std@@QAEXXZ ; std::list<void *,std::allocator<void *> >::clear
; Function compile flags: /Ogty
;	COMDAT ?clear@?$list@PAXV?$allocator@PAX@std@@@std@@QAEXXZ
_TEXT	SEGMENT
?clear@?$list@PAXV?$allocator@PAX@std@@@std@@QAEXXZ PROC NEAR ; std::list<void *,std::allocator<void *> >::clear, COMDAT
; _this$ = ecx

; 610  : 		{	// erase all

  00000	56		 push	 esi
  00001	8b f1		 mov	 esi, ecx

; 611  : 		_Nodeptr _Pnext;
; 612  : 		_Nodeptr _Pnode = _Nextnode(_Myhead);

  00003	8b 4e 04	 mov	 ecx, DWORD PTR [esi+4]
  00006	8b 01		 mov	 eax, DWORD PTR [ecx]

; 613  : 		_Nextnode(_Myhead) = _Myhead;

  00008	89 09		 mov	 DWORD PTR [ecx], ecx

; 614  : 		_Prevnode(_Myhead) = _Myhead;

  0000a	8b 4e 04	 mov	 ecx, DWORD PTR [esi+4]
  0000d	89 49 04	 mov	 DWORD PTR [ecx+4], ecx

; 615  : 		_Mysize = 0;
; 616  : 
; 617  : 		for (; _Pnode != _Myhead; _Pnode = _Pnext)

  00010	3b 46 04	 cmp	 eax, DWORD PTR [esi+4]
  00013	c7 46 08 00 00
	00 00		 mov	 DWORD PTR [esi+8], 0
  0001a	74 19		 je	 SHORT $L186905
  0001c	57		 push	 edi
  0001d	8d 49 00	 npad	 3
$L186903:

; 618  : 			{	// delete an element
; 619  : 			_Pnext = _Nextnode(_Pnode);

  00020	8b 38		 mov	 edi, DWORD PTR [eax]

; 620  : 			this->_Alnod.destroy(_Pnode);
; 621  : 			this->_Alnod.deallocate(_Pnode, 1);

  00022	50		 push	 eax
  00023	e8 00 00 00 00	 call	 ??3@YAXPAX@Z		; operator delete
  00028	8b 4e 04	 mov	 ecx, DWORD PTR [esi+4]
  0002b	83 c4 04	 add	 esp, 4
  0002e	3b f9		 cmp	 edi, ecx
  00030	8b c7		 mov	 eax, edi
  00032	75 ec		 jne	 SHORT $L186903
  00034	5f		 pop	 edi
$L186905:
  00035	5e		 pop	 esi

; 622  : 			}
; 623  : 		}

  00036	c3		 ret	 0
?clear@?$list@PAXV?$allocator@PAX@std@@@std@@QAEXXZ ENDP ; std::list<void *,std::allocator<void *> >::clear
_TEXT	ENDS
PUBLIC	??0?$_List_ptr@PAXV?$allocator@PAX@std@@@std@@IAE@V?$allocator@PAX@1@@Z ; std::_List_ptr<void *,std::allocator<void *> >::_List_ptr<void *,std::allocator<void *> >
; Function compile flags: /Ogty
;	COMDAT ??0?$_List_ptr@PAXV?$allocator@PAX@std@@@std@@IAE@V?$allocator@PAX@1@@Z
_TEXT	SEGMENT
__Al$ = 8						; size = 1
??0?$_List_ptr@PAXV?$allocator@PAX@std@@@std@@IAE@V?$allocator@PAX@1@@Z PROC NEAR ; std::_List_ptr<void *,std::allocator<void *> >::_List_ptr<void *,std::allocator<void *> >, COMDAT
; _this$ = ecx

; 64   : 		{	// construct base, and allocator from _Al

  00000	8b c1		 mov	 eax, ecx

; 65   : 		}

  00002	c2 04 00	 ret	 4
??0?$_List_ptr@PAXV?$allocator@PAX@std@@@std@@IAE@V?$allocator@PAX@1@@Z ENDP ; std::_List_ptr<void *,std::allocator<void *> >::_List_ptr<void *,std::allocator<void *> >
_TEXT	ENDS
PUBLIC	?_Tidy@?$basic_string@DU?$char_traits@D@std@@V?$allocator@D@2@@std@@IAEX_NI@Z ; std::basic_string<char,std::char_traits<char>,std::allocator<char> >::_Tidy
; Function compile flags: /Ogty
; File c:\program files\microsoft visual studio .net 2003\vc7\include\xstring
;	COMDAT ?_Tidy@?$basic_string@DU?$char_traits@D@std@@V?$allocator@D@2@@std@@IAEX_NI@Z
_TEXT	SEGMENT
__Built$ = 8						; size = 1
__Newsize$ = 12						; size = 4
?_Tidy@?$basic_string@DU?$char_traits@D@std@@V?$allocator@D@2@@std@@IAEX_NI@Z PROC NEAR ; std::basic_string<char,std::char_traits<char>,std::allocator<char> >::_Tidy, COMDAT
; _this$ = ecx

; 1510 : 		if (!_Built)

  00000	8a 44 24 04	 mov	 al, BYTE PTR __Built$[esp-4]
  00004	84 c0		 test	 al, al
  00006	53		 push	 ebx
  00007	55		 push	 ebp
  00008	8b 6c 24 10	 mov	 ebp, DWORD PTR __Newsize$[esp+4]
  0000c	8b d9		 mov	 ebx, ecx
  0000e	74 2f		 je	 SHORT $L187796

; 1511 : 			;
; 1512 : 		else if (_BUF_SIZE <= _Myres)

  00010	83 7b 18 10	 cmp	 DWORD PTR [ebx+24], 16	; 00000010H
  00014	72 29		 jb	 SHORT $L187796

; 1513 : 			{	// copy any leftovers to small buffer and deallocate
; 1514 : 			_Elem *_Ptr = _Bx._Ptr;
; 1515 : 			if (0 < _Newsize)

  00016	85 ed		 test	 ebp, ebp
  00018	8b 43 04	 mov	 eax, DWORD PTR [ebx+4]
  0001b	57		 push	 edi
  0001c	8d 7b 04	 lea	 edi, DWORD PTR [ebx+4]
  0001f	76 14		 jbe	 SHORT $L187793
  00021	56		 push	 esi

; 1516 : 				_Traits::copy(_Bx._Buf, _Ptr, _Newsize);

  00022	8b cd		 mov	 ecx, ebp
  00024	8b d1		 mov	 edx, ecx
  00026	c1 e9 02	 shr	 ecx, 2
  00029	8b f0		 mov	 esi, eax
  0002b	f3 a5		 rep movsd
  0002d	8b ca		 mov	 ecx, edx
  0002f	83 e1 03	 and	 ecx, 3
  00032	f3 a4		 rep movsb
  00034	5e		 pop	 esi
$L187793:

; 1517 : 			_Mybase::_Alval.deallocate(_Ptr, _Myres + 1);

  00035	50		 push	 eax
  00036	e8 00 00 00 00	 call	 ??3@YAXPAX@Z		; operator delete
  0003b	83 c4 04	 add	 esp, 4
  0003e	5f		 pop	 edi
$L187796:

; 1518 : 			}
; 1519 : 		_Myres = _BUF_SIZE - 1;
; 1520 : 		_Eos(_Newsize);

  0003f	89 6b 14	 mov	 DWORD PTR [ebx+20], ebp
  00042	c7 43 18 0f 00
	00 00		 mov	 DWORD PTR [ebx+24], 15	; 0000000fH
  00049	c6 44 2b 04 00	 mov	 BYTE PTR [ebx+ebp+4], 0
  0004e	5d		 pop	 ebp
  0004f	5b		 pop	 ebx

; 1521 : 		}

  00050	c2 08 00	 ret	 8
?_Tidy@?$basic_string@DU?$char_traits@D@std@@V?$allocator@D@2@@std@@IAEX_NI@Z ENDP ; std::basic_string<char,std::char_traits<char>,std::allocator<char> >::_Tidy
_TEXT	ENDS
PUBLIC	?erase@?$basic_string@DU?$char_traits@D@std@@V?$allocator@D@2@@std@@QAEAAV12@II@Z ; std::basic_string<char,std::char_traits<char>,std::allocator<char> >::erase
EXTRN	?_Xran@_String_base@std@@QBEXXZ:NEAR		; std::_String_base::_Xran
; Function compile flags: /Ogty
;	COMDAT ?erase@?$basic_string@DU?$char_traits@D@std@@V?$allocator@D@2@@std@@QAEAAV12@II@Z
_TEXT	SEGMENT
__Off$ = 8						; size = 4
__Count$ = 12						; size = 4
?erase@?$basic_string@DU?$char_traits@D@std@@V?$allocator@D@2@@std@@QAEAAV12@II@Z PROC NEAR ; std::basic_string<char,std::char_traits<char>,std::allocator<char> >::erase, COMDAT
; _this$ = ecx

; 792  : 		{	// erase elements [_Off, _Off + _Count)

  00000	55		 push	 ebp

; 793  : 		if (_Mysize < _Off)

  00001	8b 6c 24 08	 mov	 ebp, DWORD PTR __Off$[esp]
  00005	56		 push	 esi
  00006	8b f1		 mov	 esi, ecx
  00008	39 6e 14	 cmp	 DWORD PTR [esi+20], ebp
  0000b	57		 push	 edi
  0000c	73 05		 jae	 SHORT $L184993

; 794  : 			_String_base::_Xran();	// _Off off end

  0000e	e8 00 00 00 00	 call	 ?_Xran@_String_base@std@@QBEXXZ ; std::_String_base::_Xran
$L184993:

; 795  : 		if (_Mysize - _Off < _Count)

  00013	8b 46 14	 mov	 eax, DWORD PTR [esi+20]
  00016	8b 7c 24 14	 mov	 edi, DWORD PTR __Count$[esp+8]
  0001a	2b c5		 sub	 eax, ebp
  0001c	3b c7		 cmp	 eax, edi
  0001e	73 02		 jae	 SHORT $L184994

; 796  : 			_Count = _Mysize - _Off;	// trim _Count

  00020	8b f8		 mov	 edi, eax
$L184994:

; 797  : 		if (0 < _Count)

  00022	85 ff		 test	 edi, edi
  00024	76 47		 jbe	 SHORT $L187860

; 798  : 			{	// move elements down
; 799  : 			_Traits::move(_Myptr() + _Off, _Myptr() + _Off + _Count,
; 800  : 				_Mysize - _Off - _Count);

  00026	8b 4e 18	 mov	 ecx, DWORD PTR [esi+24]
  00029	83 f9 10	 cmp	 ecx, 16			; 00000010H
  0002c	53		 push	 ebx
  0002d	8d 5e 04	 lea	 ebx, DWORD PTR [esi+4]
  00030	72 04		 jb	 SHORT $L187825
  00032	8b 13		 mov	 edx, DWORD PTR [ebx]
  00034	eb 02		 jmp	 SHORT $L187826
$L187825:
  00036	8b d3		 mov	 edx, ebx
$L187826:
  00038	83 f9 10	 cmp	 ecx, 16			; 00000010H
  0003b	72 04		 jb	 SHORT $L187832
  0003d	8b 0b		 mov	 ecx, DWORD PTR [ebx]
  0003f	eb 02		 jmp	 SHORT $L187833
$L187832:
  00041	8b cb		 mov	 ecx, ebx
$L187833:
  00043	2b c7		 sub	 eax, edi

; 803  : 			}
; 804  : 		return (*this);

  00045	03 d5		 add	 edx, ebp
  00047	50		 push	 eax
  00048	03 d7		 add	 edx, edi
  0004a	52		 push	 edx
  0004b	03 cd		 add	 ecx, ebp
  0004d	51		 push	 ecx
  0004e	e8 00 00 00 00	 call	 _memmove
  00053	8b 46 14	 mov	 eax, DWORD PTR [esi+20]
  00056	8b 4e 18	 mov	 ecx, DWORD PTR [esi+24]
  00059	2b c7		 sub	 eax, edi
  0005b	83 c4 0c	 add	 esp, 12			; 0000000cH
  0005e	83 f9 10	 cmp	 ecx, 16			; 00000010H
  00061	89 46 14	 mov	 DWORD PTR [esi+20], eax
  00064	72 02		 jb	 SHORT $L187855

; 801  : 			size_type _Newsize = _Mysize - _Count;
; 802  : 			_Eos(_Newsize);

  00066	8b 1b		 mov	 ebx, DWORD PTR [ebx]
$L187855:
  00068	c6 04 03 00	 mov	 BYTE PTR [ebx+eax], 0
  0006c	5b		 pop	 ebx
$L187860:
  0006d	5f		 pop	 edi

; 803  : 			}
; 804  : 		return (*this);

  0006e	8b c6		 mov	 eax, esi
  00070	5e		 pop	 esi
  00071	5d		 pop	 ebp

; 805  : 		}

  00072	c2 08 00	 ret	 8
?erase@?$basic_string@DU?$char_traits@D@std@@V?$allocator@D@2@@std@@QAEAAV12@II@Z ENDP ; std::basic_string<char,std::char_traits<char>,std::allocator<char> >::erase
_TEXT	ENDS
PUBLIC	?_Copy@?$basic_string@DU?$char_traits@D@std@@V?$allocator@D@2@@std@@IAEXII@Z ; std::basic_string<char,std::char_traits<char>,std::allocator<char> >::_Copy
;	COMDAT xdata$x
; File c:\program files\microsoft visual studio .net 2003\vc7\include\iosfwd
xdata$x	SEGMENT
$T188063 DD	0ffffffffH
	DD	00H
	DD	0ffffffffH
	DD	00H
	DD	01H
	DD	00H
	DD	01H
	DD	00H
$T188065 DD	00H
	DD	00H
	DD	00H
	DD	FLAT:$L187866
$T188066 DD	00H
	DD	00H
	DD	00H
	DD	FLAT:$L187864
$T188064 DD	02H
	DD	02H
	DD	03H
	DD	01H
	DD	FLAT:$T188065
	DD	00H
	DD	00H
	DD	03H
	DD	01H
	DD	FLAT:$T188066
$T188058 DD	019930520H
	DD	04H
	DD	FLAT:$T188063
	DD	02H
	DD	FLAT:$T188064
	DD	2 DUP(00H)
; Function compile flags: /Ogty
; File c:\program files\microsoft visual studio .net 2003\vc7\include\xstring
xdata$x	ENDS
;	COMDAT ?_Copy@?$basic_string@DU?$char_traits@D@std@@V?$allocator@D@2@@std@@IAEXII@Z
_TEXT	SEGMENT
__Newres$ = -24						; size = 4
_this$ = -20						; size = 4
__$EHRec$ = -16						; size = 16
__Ptr$ = 8						; size = 4
__Newsize$ = 8						; size = 4
__Oldlen$ = 12						; size = 4
?_Copy@?$basic_string@DU?$char_traits@D@std@@V?$allocator@D@2@@std@@IAEXII@Z PROC NEAR ; std::basic_string<char,std::char_traits<char>,std::allocator<char> >::_Copy, COMDAT
; _this$ = ecx

; 1444 : 		{	// copy _Oldlen elements to newly allocated buffer

  00000	55		 push	 ebp
  00001	8b ec		 mov	 ebp, esp
  00003	6a ff		 push	 -1
  00005	68 00 00 00 00	 push	 __ehhandler$?_Copy@?$basic_string@DU?$char_traits@D@std@@V?$allocator@D@2@@std@@IAEXII@Z
  0000a	64 a1 00 00 00
	00		 mov	 eax, DWORD PTR fs:__except_list
  00010	50		 push	 eax
  00011	64 89 25 00 00
	00 00		 mov	 DWORD PTR fs:__except_list, esp
  00018	83 ec 0c	 sub	 esp, 12			; 0000000cH

; 1445 : 		size_type _Newres = _Newsize | _ALLOC_MASK;

  0001b	8b 45 08	 mov	 eax, DWORD PTR __Newsize$[ebp]
  0001e	53		 push	 ebx
  0001f	56		 push	 esi
  00020	8b d8		 mov	 ebx, eax
  00022	83 cb 0f	 or	 ebx, 15			; 0000000fH

; 1446 : 		if (max_size() < _Newres)

  00025	83 fb fe	 cmp	 ebx, -2			; fffffffeH
  00028	57		 push	 edi
  00029	8b f1		 mov	 esi, ecx
  0002b	89 65 f0	 mov	 DWORD PTR __$EHRec$[ebp], esp
  0002e	89 75 ec	 mov	 DWORD PTR _this$[ebp], esi
  00031	76 04		 jbe	 SHORT $L185550

; 1447 : 			_Newres = _Newsize;	// undo roundup if too big

  00033	8b d8		 mov	 ebx, eax

; 1448 : 		else if (_Newres / 3 < _Myres / 2

  00035	eb 22		 jmp	 SHORT $L185552
$L185550:

; 1449 : 			&& _Myres <= max_size() - _Myres / 2)

  00037	8b 7e 18	 mov	 edi, DWORD PTR [esi+24]
  0003a	b8 ab aa aa aa	 mov	 eax, -1431655765	; aaaaaaabH
  0003f	f7 e3		 mul	 ebx
  00041	8b cf		 mov	 ecx, edi
  00043	d1 e9		 shr	 ecx, 1
  00045	d1 ea		 shr	 edx, 1
  00047	3b d1		 cmp	 edx, ecx
  00049	73 0e		 jae	 SHORT $L185552
  0004b	b8 fe ff ff ff	 mov	 eax, -2			; fffffffeH
  00050	2b c1		 sub	 eax, ecx
  00052	3b f8		 cmp	 edi, eax
  00054	77 03		 ja	 SHORT $L185552

; 1450 : 			_Newres = _Myres + _Myres / 2;	// grow exponentially if possible

  00056	8d 1c 39	 lea	 ebx, DWORD PTR [ecx+edi]
$L185552:

; 1451 : 		_Elem *_Ptr;
; 1452 : 
; 1453 : 		_TRY_BEGIN
; 1454 : 			_Ptr = _Mybase::_Alval.allocate(_Newres + 1);

  00059	8d 4b 01	 lea	 ecx, DWORD PTR [ebx+1]
  0005c	51		 push	 ecx
  0005d	c7 45 fc 00 00
	00 00		 mov	 DWORD PTR __$EHRec$[ebp+12], 0
  00064	e8 00 00 00 00	 call	 ??2@YAPAXI@Z		; operator new
  00069	8b d0		 mov	 edx, eax
  0006b	83 c4 04	 add	 esp, 4
  0006e	89 55 08	 mov	 DWORD PTR __Ptr$[ebp], edx
  00071	eb 29		 jmp	 SHORT $L185554
$L187864:

; 1455 : 		_CATCH_ALL
; 1456 : 			_Newres = _Newsize;	// allocation failed, undo roundup and retry

  00073	8b 45 08	 mov	 eax, DWORD PTR __Newsize$[ebp]
  00076	89 45 e8	 mov	 DWORD PTR __Newres$[ebp], eax

; 1457 : 			_TRY_BEGIN
; 1458 : 				_Ptr = _Mybase::_Alval.allocate(_Newres + 1);

  00079	40		 inc	 eax
  0007a	89 65 f0	 mov	 DWORD PTR __$EHRec$[ebp], esp
  0007d	50		 push	 eax
  0007e	c6 45 fc 02	 mov	 BYTE PTR __$EHRec$[ebp+12], 2
  00082	e8 00 00 00 00	 call	 ??2@YAPAXI@Z		; operator new
  00087	89 45 08	 mov	 DWORD PTR __Ptr$[ebp], eax
  0008a	83 c4 04	 add	 esp, 4

; 1462 : 			_CATCH_END
; 1463 : 		_CATCH_END

  0008d	b8 00 00 00 00	 mov	 eax, $L188059
  00092	c3		 ret	 0
$L188059:
  00093	8b 5d e8	 mov	 ebx, DWORD PTR __Newres$[ebp]
  00096	8b 75 ec	 mov	 esi, DWORD PTR _this$[ebp]
  00099	8b 55 08	 mov	 edx, DWORD PTR __Ptr$[ebp]
$L185554:

; 1464 : 
; 1465 : 		if (0 < _Oldlen)

  0009c	8b 4d 0c	 mov	 ecx, DWORD PTR __Oldlen$[ebp]
  0009f	85 c9		 test	 ecx, ecx
  000a1	76 24		 jbe	 SHORT $L187984

; 1466 : 			_Traits::copy(_Ptr, _Myptr(), _Oldlen);	// copy existing elements

  000a3	83 7e 18 10	 cmp	 DWORD PTR [esi+24], 16	; 00000010H
  000a7	72 05		 jb	 SHORT $L187979
  000a9	8b 76 04	 mov	 esi, DWORD PTR [esi+4]
  000ac	eb 03		 jmp	 SHORT $L187980
$L187979:
  000ae	83 c6 04	 add	 esi, 4
$L187980:
  000b1	8b c1		 mov	 eax, ecx
  000b3	c1 e9 02	 shr	 ecx, 2
  000b6	8b fa		 mov	 edi, edx
  000b8	f3 a5		 rep movsd
  000ba	8b c8		 mov	 ecx, eax
  000bc	83 e1 03	 and	 ecx, 3
  000bf	f3 a4		 rep movsb
  000c1	8b 75 ec	 mov	 esi, DWORD PTR _this$[ebp]
  000c4	8b 4d 0c	 mov	 ecx, DWORD PTR __Oldlen$[ebp]
$L187984:

; 1467 : 		_Tidy(true);

  000c7	83 7e 18 10	 cmp	 DWORD PTR [esi+24], 16	; 00000010H
  000cb	72 12		 jb	 SHORT $L188026
  000cd	8b 4e 04	 mov	 ecx, DWORD PTR [esi+4]
  000d0	51		 push	 ecx
  000d1	e8 00 00 00 00	 call	 ??3@YAXPAX@Z		; operator delete
  000d6	8b 55 08	 mov	 edx, DWORD PTR __Ptr$[ebp]
  000d9	8b 4d 0c	 mov	 ecx, DWORD PTR __Oldlen$[ebp]
  000dc	83 c4 04	 add	 esp, 4
$L188026:

; 1468 : 		_Bx._Ptr = _Ptr;
; 1469 : 		_Myres = _Newres;
; 1470 : 		_Eos(_Oldlen);

  000df	83 fb 10	 cmp	 ebx, 16			; 00000010H
  000e2	8d 46 04	 lea	 eax, DWORD PTR [esi+4]
  000e5	c6 00 00	 mov	 BYTE PTR [eax], 0
  000e8	89 10		 mov	 DWORD PTR [eax], edx
  000ea	89 5e 18	 mov	 DWORD PTR [esi+24], ebx
  000ed	89 4e 14	 mov	 DWORD PTR [esi+20], ecx
  000f0	72 02		 jb	 SHORT $L188052
  000f2	8b c2		 mov	 eax, edx
$L188052:

; 1471 : 		}

  000f4	5f		 pop	 edi
  000f5	c6 04 08 00	 mov	 BYTE PTR [eax+ecx], 0
  000f9	8b 4d f4	 mov	 ecx, DWORD PTR __$EHRec$[ebp+4]
  000fc	5e		 pop	 esi
  000fd	64 89 0d 00 00
	00 00		 mov	 DWORD PTR fs:__except_list, ecx
  00104	5b		 pop	 ebx
  00105	8b e5		 mov	 esp, ebp
  00107	5d		 pop	 ebp
  00108	c2 08 00	 ret	 8
$L187866:

; 1459 : 			_CATCH_ALL
; 1460 : 			_Tidy(true);	// failed again, discard storage and reraise

  0010b	8b 75 ec	 mov	 esi, DWORD PTR _this$[ebp]
  0010e	83 7e 18 10	 cmp	 DWORD PTR [esi+24], 16	; 00000010H
  00112	72 0c		 jb	 SHORT $L187965
  00114	8b 56 04	 mov	 edx, DWORD PTR [esi+4]
  00117	52		 push	 edx
  00118	e8 00 00 00 00	 call	 ??3@YAXPAX@Z		; operator delete
  0011d	83 c4 04	 add	 esp, 4
$L187965:

; 1461 : 			_RERAISE;

  00120	6a 00		 push	 0
  00122	c7 46 18 0f 00
	00 00		 mov	 DWORD PTR [esi+24], 15	; 0000000fH
  00129	c7 46 14 00 00
	00 00		 mov	 DWORD PTR [esi+20], 0
  00130	6a 00		 push	 0
  00132	c6 46 04 00	 mov	 BYTE PTR [esi+4], 0
  00136	e8 00 00 00 00	 call	 __CxxThrowException@8
$L188062:
  0013b	cc		 int	 3
_TEXT	ENDS
;	COMDAT text$x
text$x	SEGMENT
__ehhandler$?_Copy@?$basic_string@DU?$char_traits@D@std@@V?$allocator@D@2@@std@@IAEXII@Z:
  00000	b8 00 00 00 00	 mov	 eax, OFFSET FLAT:$T188058
  00005	e9 00 00 00 00	 jmp	 ___CxxFrameHandler
text$x	ENDS
?_Copy@?$basic_string@DU?$char_traits@D@std@@V?$allocator@D@2@@std@@IAEXII@Z ENDP ; std::basic_string<char,std::char_traits<char>,std::allocator<char> >::_Copy
PUBLIC	?end@?$list@PAXV?$allocator@PAX@std@@@std@@QAE?AViterator@12@XZ ; std::list<void *,std::allocator<void *> >::end
; Function compile flags: /Ogty
; File c:\program files\microsoft visual studio .net 2003\vc7\include\list
;	COMDAT ?end@?$list@PAXV?$allocator@PAX@std@@@std@@QAE?AViterator@12@XZ
_TEXT	SEGMENT
___$ReturnUdt$ = 8					; size = 4
?end@?$list@PAXV?$allocator@PAX@std@@@std@@QAE?AViterator@12@XZ PROC NEAR ; std::list<void *,std::allocator<void *> >::end, COMDAT
; _this$ = ecx

; 387  : 		return (iterator(_Myhead));

  00000	8b 49 04	 mov	 ecx, DWORD PTR [ecx+4]
  00003	8b 44 24 04	 mov	 eax, DWORD PTR ___$ReturnUdt$[esp-4]
  00007	89 08		 mov	 DWORD PTR [eax], ecx

; 388  : 		}

  00009	c2 04 00	 ret	 4
?end@?$list@PAXV?$allocator@PAX@std@@@std@@QAE?AViterator@12@XZ ENDP ; std::list<void *,std::allocator<void *> >::end
_TEXT	ENDS
PUBLIC	?_Buynode@?$list@PAXV?$allocator@PAX@std@@@std@@IAEPAU_Node@?$_List_nod@PAXV?$allocator@PAX@std@@@2@PAU342@0ABQAX@Z ; std::list<void *,std::allocator<void *> >::_Buynode
; Function compile flags: /Ogty
;	COMDAT ?_Buynode@?$list@PAXV?$allocator@PAX@std@@@std@@IAEPAU_Node@?$_List_nod@PAXV?$allocator@PAX@std@@@2@PAU342@0ABQAX@Z
_TEXT	SEGMENT
__Next$ = 8						; size = 4
__Prev$ = 12						; size = 4
__Val$ = 16						; size = 4
?_Buynode@?$list@PAXV?$allocator@PAX@std@@@std@@IAEPAU_Node@?$_List_nod@PAXV?$allocator@PAX@std@@@2@PAU342@0ABQAX@Z PROC NEAR ; std::list<void *,std::allocator<void *> >::_Buynode, COMDAT
; _this$ = ecx

; 918  : 		_Nodeptr _Pnode = this->_Alnod.allocate(1);

  00000	6a 0c		 push	 12			; 0000000cH
  00002	e8 00 00 00 00	 call	 ??2@YAPAXI@Z		; operator new
  00007	83 c4 04	 add	 esp, 4

; 919  : 		_TRY_BEGIN
; 920  : 		new ((void *)_Pnode) _Node(_Next, _Prev, _Val);

  0000a	85 c0		 test	 eax, eax
  0000c	74 16		 je	 SHORT $L188083
  0000e	8b 4c 24 04	 mov	 ecx, DWORD PTR __Next$[esp-4]
  00012	8b 54 24 08	 mov	 edx, DWORD PTR __Prev$[esp-4]
  00016	89 08		 mov	 DWORD PTR [eax], ecx
  00018	8b 4c 24 0c	 mov	 ecx, DWORD PTR __Val$[esp-4]
  0001c	89 50 04	 mov	 DWORD PTR [eax+4], edx
  0001f	8b 11		 mov	 edx, DWORD PTR [ecx]
  00021	89 50 08	 mov	 DWORD PTR [eax+8], edx
$L188083:

; 921  : 		_CATCH_ALL
; 922  : 		this->_Alnod.deallocate(_Pnode, 1);
; 923  : 		_RERAISE;
; 924  : 		_CATCH_END
; 925  : 		return (_Pnode);
; 926  : 		}

  00024	c2 0c 00	 ret	 12			; 0000000cH
?_Buynode@?$list@PAXV?$allocator@PAX@std@@@std@@IAEPAU_Node@?$_List_nod@PAXV?$allocator@PAX@std@@@2@PAU342@0ABQAX@Z ENDP ; std::list<void *,std::allocator<void *> >::_Buynode
_TEXT	ENDS
PUBLIC	?_Tidy@?$list@PAXV?$allocator@PAX@std@@@std@@IAEXXZ ; std::list<void *,std::allocator<void *> >::_Tidy
; Function compile flags: /Ogty
;	COMDAT ?_Tidy@?$list@PAXV?$allocator@PAX@std@@@std@@IAEXXZ
_TEXT	SEGMENT
?_Tidy@?$list@PAXV?$allocator@PAX@std@@@std@@IAEXXZ PROC NEAR ; std::list<void *,std::allocator<void *> >::_Tidy, COMDAT
; _this$ = ecx

; 929  : 		{	// free all storage

  00000	56		 push	 esi
  00001	8b f1		 mov	 esi, ecx

; 930  : 		clear();

  00003	e8 00 00 00 00	 call	 ?clear@?$list@PAXV?$allocator@PAX@std@@@std@@QAEXXZ ; std::list<void *,std::allocator<void *> >::clear

; 931  : 		this->_Alptr.destroy(&_Nextnode(_Myhead));
; 932  : 		this->_Alptr.destroy(&_Prevnode(_Myhead));
; 933  : 		this->_Alnod.deallocate(_Myhead, 1);

  00008	8b 46 04	 mov	 eax, DWORD PTR [esi+4]
  0000b	50		 push	 eax
  0000c	e8 00 00 00 00	 call	 ??3@YAXPAX@Z		; operator delete
  00011	83 c4 04	 add	 esp, 4

; 934  : 		_Myhead = 0;

  00014	c7 46 04 00 00
	00 00		 mov	 DWORD PTR [esi+4], 0
  0001b	5e		 pop	 esi

; 935  : 		}

  0001c	c3		 ret	 0
?_Tidy@?$list@PAXV?$allocator@PAX@std@@@std@@IAEXXZ ENDP ; std::list<void *,std::allocator<void *> >::_Tidy
_TEXT	ENDS
PUBLIC	??0?$_List_val@PAXV?$allocator@PAX@std@@@std@@IAE@V?$allocator@PAX@1@@Z ; std::_List_val<void *,std::allocator<void *> >::_List_val<void *,std::allocator<void *> >
; Function compile flags: /Ogty
;	COMDAT ??0?$_List_val@PAXV?$allocator@PAX@std@@@std@@IAE@V?$allocator@PAX@1@@Z
_TEXT	SEGMENT
__Al$ = 8						; size = 1
??0?$_List_val@PAXV?$allocator@PAX@std@@@std@@IAE@V?$allocator@PAX@1@@Z PROC NEAR ; std::_List_val<void *,std::allocator<void *> >::_List_val<void *,std::allocator<void *> >, COMDAT
; _this$ = ecx

; 82   : 		{	// construct base, and allocator from _Al

  00000	8b c1		 mov	 eax, ecx

; 83   : 		}

  00002	c2 04 00	 ret	 4
??0?$_List_val@PAXV?$allocator@PAX@std@@@std@@IAE@V?$allocator@PAX@1@@Z ENDP ; std::_List_val<void *,std::allocator<void *> >::_List_val<void *,std::allocator<void *> >
_TEXT	ENDS
PUBLIC	??1?$basic_string@DU?$char_traits@D@std@@V?$allocator@D@2@@std@@QAE@XZ ; std::basic_string<char,std::char_traits<char>,std::allocator<char> >::~basic_string<char,std::char_traits<char>,std::allocator<char> >
; Function compile flags: /Ogty
; File c:\program files\microsoft visual studio .net 2003\vc7\include\xstring
;	COMDAT ??1?$basic_string@DU?$char_traits@D@std@@V?$allocator@D@2@@std@@QAE@XZ
_TEXT	SEGMENT
??1?$basic_string@DU?$char_traits@D@std@@V?$allocator@D@2@@std@@QAE@XZ PROC NEAR ; std::basic_string<char,std::char_traits<char>,std::allocator<char> >::~basic_string<char,std::char_traits<char>,std::allocator<char> >, COMDAT
; _this$ = ecx

; 456  : 		{	// destroy the string

  00000	56		 push	 esi
  00001	8b f1		 mov	 esi, ecx

; 457  : 		_Tidy(true);

  00003	83 7e 18 10	 cmp	 DWORD PTR [esi+24], 16	; 00000010H
  00007	72 0c		 jb	 SHORT $L188202
  00009	8b 46 04	 mov	 eax, DWORD PTR [esi+4]
  0000c	50		 push	 eax
  0000d	e8 00 00 00 00	 call	 ??3@YAXPAX@Z		; operator delete
  00012	83 c4 04	 add	 esp, 4
$L188202:
  00015	33 c0		 xor	 eax, eax
  00017	c7 46 18 0f 00
	00 00		 mov	 DWORD PTR [esi+24], 15	; 0000000fH
  0001e	89 46 14	 mov	 DWORD PTR [esi+20], eax
  00021	88 46 04	 mov	 BYTE PTR [esi+4], al
  00024	5e		 pop	 esi

; 458  : 		}

  00025	c3		 ret	 0
??1?$basic_string@DU?$char_traits@D@std@@V?$allocator@D@2@@std@@QAE@XZ ENDP ; std::basic_string<char,std::char_traits<char>,std::allocator<char> >::~basic_string<char,std::char_traits<char>,std::allocator<char> >
_TEXT	ENDS
PUBLIC	?_Grow@?$basic_string@DU?$char_traits@D@std@@V?$allocator@D@2@@std@@IAE_NI_N@Z ; std::basic_string<char,std::char_traits<char>,std::allocator<char> >::_Grow
EXTRN	?_Xlen@_String_base@std@@QBEXXZ:NEAR		; std::_String_base::_Xlen
; Function compile flags: /Ogty
;	COMDAT ?_Grow@?$basic_string@DU?$char_traits@D@std@@V?$allocator@D@2@@std@@IAE_NI_N@Z
_TEXT	SEGMENT
__Newsize$ = 8						; size = 4
__Trim$ = 12						; size = 1
?_Grow@?$basic_string@DU?$char_traits@D@std@@V?$allocator@D@2@@std@@IAE_NI_N@Z PROC NEAR ; std::basic_string<char,std::char_traits<char>,std::allocator<char> >::_Grow, COMDAT
; _this$ = ecx

; 1480 : 		{	// ensure buffer is big enough, trim to size if _Trim is true

  00000	55		 push	 ebp
  00001	56		 push	 esi

; 1481 : 		if (max_size() < _Newsize)

  00002	8b 74 24 0c	 mov	 esi, DWORD PTR __Newsize$[esp+4]
  00006	83 fe fe	 cmp	 esi, -2			; fffffffeH
  00009	8b e9		 mov	 ebp, ecx
  0000b	76 05		 jbe	 SHORT $L185002

; 1482 : 			_String_base::_Xlen();	// result too long

  0000d	e8 00 00 00 00	 call	 ?_Xlen@_String_base@std@@QBEXXZ ; std::_String_base::_Xlen
$L185002:

; 1483 : 		if (_Myres < _Newsize)

  00012	8b 45 18	 mov	 eax, DWORD PTR [ebp+24]
  00015	3b c6		 cmp	 eax, esi
  00017	73 19		 jae	 SHORT $L185003

; 1484 : 			_Copy(_Newsize, _Mysize);	// reallocate to grow

  00019	8b 45 14	 mov	 eax, DWORD PTR [ebp+20]
  0001c	50		 push	 eax
  0001d	56		 push	 esi
  0001e	8b cd		 mov	 ecx, ebp
  00020	e8 00 00 00 00	 call	 ?_Copy@?$basic_string@DU?$char_traits@D@std@@V?$allocator@D@2@@std@@IAEXII@Z ; std::basic_string<char,std::char_traits<char>,std::allocator<char> >::_Copy

; 1490 : 		return (0 < _Newsize);	// return true only if more work to do

  00025	33 c0		 xor	 eax, eax
  00027	3b c6		 cmp	 eax, esi
  00029	1b c0		 sbb	 eax, eax
  0002b	5e		 pop	 esi
  0002c	f7 d8		 neg	 eax
  0002e	5d		 pop	 ebp

; 1491 : 		}

  0002f	c2 08 00	 ret	 8
$L185003:

; 1485 : 		else if (_Trim && _Newsize < _BUF_SIZE)

  00032	8a 4c 24 10	 mov	 cl, BYTE PTR __Trim$[esp+4]
  00036	84 c9		 test	 cl, cl
  00038	74 5c		 je	 SHORT $L185005
  0003a	83 fe 10	 cmp	 esi, 16			; 00000010H
  0003d	73 57		 jae	 SHORT $L185005
  0003f	53		 push	 ebx

; 1486 : 			_Tidy(true,	// copy and deallocate if trimming to small string
; 1487 : 				_Newsize < _Mysize ? _Newsize : _Mysize);

  00040	8b 5d 14	 mov	 ebx, DWORD PTR [ebp+20]
  00043	3b f3		 cmp	 esi, ebx
  00045	73 02		 jae	 SHORT $L188216
  00047	8b de		 mov	 ebx, esi
$L188216:
  00049	83 f8 10	 cmp	 eax, 16			; 00000010H
  0004c	72 2b		 jb	 SHORT $L188276
  0004e	85 db		 test	 ebx, ebx
  00050	8b 45 04	 mov	 eax, DWORD PTR [ebp+4]
  00053	57		 push	 edi
  00054	8d 7d 04	 lea	 edi, DWORD PTR [ebp+4]
  00057	76 16		 jbe	 SHORT $L188275
  00059	8b cb		 mov	 ecx, ebx
  0005b	8b d1		 mov	 edx, ecx
  0005d	c1 e9 02	 shr	 ecx, 2
  00060	8b f0		 mov	 esi, eax
  00062	f3 a5		 rep movsd
  00064	8b ca		 mov	 ecx, edx
  00066	83 e1 03	 and	 ecx, 3
  00069	f3 a4		 rep movsb
  0006b	8b 74 24 14	 mov	 esi, DWORD PTR __Newsize$[esp+12]
$L188275:
  0006f	50		 push	 eax
  00070	e8 00 00 00 00	 call	 ??3@YAXPAX@Z		; operator delete
  00075	83 c4 04	 add	 esp, 4
  00078	5f		 pop	 edi
$L188276:
  00079	89 5d 14	 mov	 DWORD PTR [ebp+20], ebx

; 1490 : 		return (0 < _Newsize);	// return true only if more work to do

  0007c	33 c0		 xor	 eax, eax
  0007e	c7 45 18 0f 00
	00 00		 mov	 DWORD PTR [ebp+24], 15	; 0000000fH
  00085	c6 44 2b 04 00	 mov	 BYTE PTR [ebx+ebp+4], 0
  0008a	3b c6		 cmp	 eax, esi
  0008c	5b		 pop	 ebx
  0008d	1b c0		 sbb	 eax, eax
  0008f	5e		 pop	 esi
  00090	f7 d8		 neg	 eax
  00092	5d		 pop	 ebp

; 1491 : 		}

  00093	c2 08 00	 ret	 8
$L185005:

; 1488 : 		else if (_Newsize == 0)

  00096	85 f6		 test	 esi, esi
  00098	75 23		 jne	 SHORT $L188308

; 1489 : 			_Eos(0);	// new size is zero, just null terminate

  0009a	83 f8 10	 cmp	 eax, 16			; 00000010H
  0009d	89 75 14	 mov	 DWORD PTR [ebp+20], esi
  000a0	72 14		 jb	 SHORT $L188305
  000a2	8b 6d 04	 mov	 ebp, DWORD PTR [ebp+4]

; 1490 : 		return (0 < _Newsize);	// return true only if more work to do

  000a5	33 c0		 xor	 eax, eax
  000a7	3b c6		 cmp	 eax, esi
  000a9	1b c0		 sbb	 eax, eax
  000ab	5e		 pop	 esi
  000ac	c6 45 00 00	 mov	 BYTE PTR [ebp], 0
  000b0	f7 d8		 neg	 eax
  000b2	5d		 pop	 ebp

; 1491 : 		}

  000b3	c2 08 00	 ret	 8

; 1489 : 			_Eos(0);	// new size is zero, just null terminate

$L188305:
  000b6	83 c5 04	 add	 ebp, 4
  000b9	c6 45 00 00	 mov	 BYTE PTR [ebp], 0
$L188308:

; 1490 : 		return (0 < _Newsize);	// return true only if more work to do

  000bd	33 c0		 xor	 eax, eax
  000bf	3b c6		 cmp	 eax, esi
  000c1	1b c0		 sbb	 eax, eax
  000c3	5e		 pop	 esi
  000c4	f7 d8		 neg	 eax
  000c6	5d		 pop	 ebp

; 1491 : 		}

  000c7	c2 08 00	 ret	 8
?_Grow@?$basic_string@DU?$char_traits@D@std@@V?$allocator@D@2@@std@@IAE_NI_N@Z ENDP ; std::basic_string<char,std::char_traits<char>,std::allocator<char> >::_Grow
_TEXT	ENDS
PUBLIC	??0?$list@PAXV?$allocator@PAX@std@@@std@@QAE@XZ	; std::list<void *,std::allocator<void *> >::list<void *,std::allocator<void *> >
; Function compile flags: /Ogty
; File c:\program files\microsoft visual studio .net 2003\vc7\include\list
;	COMDAT ??0?$list@PAXV?$allocator@PAX@std@@@std@@QAE@XZ
_TEXT	SEGMENT
??0?$list@PAXV?$allocator@PAX@std@@@std@@QAE@XZ PROC NEAR ; std::list<void *,std::allocator<void *> >::list<void *,std::allocator<void *> >, COMDAT
; _this$ = ecx

; 280  : 		{	// construct empty list

  00000	56		 push	 esi
  00001	8b f1		 mov	 esi, ecx
  00003	e8 00 00 00 00	 call	 ?_Buynode@?$list@PAXV?$allocator@PAX@std@@@std@@IAEPAU_Node@?$_List_nod@PAXV?$allocator@PAX@std@@@2@XZ ; std::list<void *,std::allocator<void *> >::_Buynode
  00008	89 46 04	 mov	 DWORD PTR [esi+4], eax
  0000b	c7 46 08 00 00
	00 00		 mov	 DWORD PTR [esi+8], 0

; 281  : 		}

  00012	8b c6		 mov	 eax, esi
  00014	5e		 pop	 esi
  00015	c3		 ret	 0
??0?$list@PAXV?$allocator@PAX@std@@@std@@QAE@XZ ENDP	; std::list<void *,std::allocator<void *> >::list<void *,std::allocator<void *> >
_TEXT	ENDS
PUBLIC	??1?$list@PAXV?$allocator@PAX@std@@@std@@QAE@XZ	; std::list<void *,std::allocator<void *> >::~list<void *,std::allocator<void *> >
; Function compile flags: /Ogty
;	COMDAT ??1?$list@PAXV?$allocator@PAX@std@@@std@@QAE@XZ
_TEXT	SEGMENT
??1?$list@PAXV?$allocator@PAX@std@@@std@@QAE@XZ PROC NEAR ; std::list<void *,std::allocator<void *> >::~list<void *,std::allocator<void *> >, COMDAT
; _this$ = ecx

; 364  : 		{	// destroy the object

  00000	56		 push	 esi
  00001	8b f1		 mov	 esi, ecx

; 365  : 		_Tidy();

  00003	e8 00 00 00 00	 call	 ?clear@?$list@PAXV?$allocator@PAX@std@@@std@@QAEXXZ ; std::list<void *,std::allocator<void *> >::clear
  00008	8b 46 04	 mov	 eax, DWORD PTR [esi+4]
  0000b	50		 push	 eax
  0000c	e8 00 00 00 00	 call	 ??3@YAXPAX@Z		; operator delete
  00011	83 c4 04	 add	 esp, 4
  00014	c7 46 04 00 00
	00 00		 mov	 DWORD PTR [esi+4], 0
  0001b	5e		 pop	 esi

; 366  : 		}

  0001c	c3		 ret	 0
??1?$list@PAXV?$allocator@PAX@std@@@std@@QAE@XZ ENDP	; std::list<void *,std::allocator<void *> >::~list<void *,std::allocator<void *> >
_TEXT	ENDS
PUBLIC	??_7logic_error@std@@6B@			; std::logic_error::`vftable'
PUBLIC	??_Glogic_error@std@@UAEPAXI@Z			; std::logic_error::`scalar deleting destructor'
PUBLIC	??1logic_error@std@@UAE@XZ			; std::logic_error::~logic_error
PUBLIC	?what@logic_error@std@@UBEPBDXZ			; std::logic_error::what
EXTRN	??_Elogic_error@std@@UAEPAXI@Z:NEAR		; std::logic_error::`vector deleting destructor'
EXTRN	??1exception@@UAE@XZ:NEAR			; exception::~exception
;	COMDAT ??_7logic_error@std@@6B@
; File c:\program files\microsoft visual studio .net 2003\vc7\include\iosfwd
CONST	SEGMENT
??_7logic_error@std@@6B@ DD FLAT:??_Elogic_error@std@@UAEPAXI@Z ; std::logic_error::`vftable'
	DD	FLAT:?what@logic_error@std@@UBEPBDXZ
; Function compile flags: /Ogty
; File c:\program files\microsoft visual studio .net 2003\vc7\include\stdexcept
CONST	ENDS
;	COMDAT ??1logic_error@std@@UAE@XZ
_TEXT	SEGMENT
??1logic_error@std@@UAE@XZ PROC NEAR			; std::logic_error::~logic_error, COMDAT
; _this$ = ecx

; 23   : 		{}	// destroy the object

  00000	56		 push	 esi
  00001	8b f1		 mov	 esi, ecx
  00003	c7 06 00 00 00
	00		 mov	 DWORD PTR [esi], OFFSET FLAT:??_7logic_error@std@@6B@
  00009	83 7e 24 10	 cmp	 DWORD PTR [esi+36], 16	; 00000010H
  0000d	72 0c		 jb	 SHORT $L188470
  0000f	8b 46 10	 mov	 eax, DWORD PTR [esi+16]
  00012	50		 push	 eax
  00013	e8 00 00 00 00	 call	 ??3@YAXPAX@Z		; operator delete
  00018	83 c4 04	 add	 esp, 4
$L188470:
  0001b	33 c0		 xor	 eax, eax
  0001d	c7 46 24 0f 00
	00 00		 mov	 DWORD PTR [esi+36], 15	; 0000000fH
  00024	89 46 20	 mov	 DWORD PTR [esi+32], eax
  00027	88 46 10	 mov	 BYTE PTR [esi+16], al
  0002a	8b ce		 mov	 ecx, esi
  0002c	5e		 pop	 esi
  0002d	e9 00 00 00 00	 jmp	 ??1exception@@UAE@XZ	; exception::~exception
??1logic_error@std@@UAE@XZ ENDP				; std::logic_error::~logic_error
; Function compile flags: /Ogty
_TEXT	ENDS
;	COMDAT ?what@logic_error@std@@UBEPBDXZ
_TEXT	SEGMENT
?what@logic_error@std@@UBEPBDXZ PROC NEAR		; std::logic_error::what, COMDAT
; _this$ = ecx

; 27   : 		return (_Str.c_str());

  00000	83 79 24 10	 cmp	 DWORD PTR [ecx+36], 16	; 00000010H
  00004	72 04		 jb	 SHORT $L188488
  00006	8b 41 10	 mov	 eax, DWORD PTR [ecx+16]

; 28   : 		}

  00009	c3		 ret	 0

; 27   : 		return (_Str.c_str());

$L188488:
  0000a	8d 41 10	 lea	 eax, DWORD PTR [ecx+16]

; 28   : 		}

  0000d	c3		 ret	 0
?what@logic_error@std@@UBEPBDXZ ENDP			; std::logic_error::what
; Function compile flags: /Ogty
_TEXT	ENDS
;	COMDAT ??_Glogic_error@std@@UAEPAXI@Z
_TEXT	SEGMENT
___flags$ = 8						; size = 4
??_Glogic_error@std@@UAEPAXI@Z PROC NEAR		; std::logic_error::`scalar deleting destructor', COMDAT
; _this$ = ecx
  00000	56		 push	 esi
  00001	8b f1		 mov	 esi, ecx
  00003	e8 00 00 00 00	 call	 ??1logic_error@std@@UAE@XZ ; std::logic_error::~logic_error
  00008	f6 44 24 08 01	 test	 BYTE PTR ___flags$[esp], 1
  0000d	74 09		 je	 SHORT $L188495
  0000f	56		 push	 esi
  00010	e8 00 00 00 00	 call	 ??3@YAXPAX@Z		; operator delete
  00015	83 c4 04	 add	 esp, 4
$L188495:
  00018	8b c6		 mov	 eax, esi
  0001a	5e		 pop	 esi
  0001b	c2 04 00	 ret	 4
??_Glogic_error@std@@UAEPAXI@Z ENDP			; std::logic_error::`scalar deleting destructor'
_TEXT	ENDS
PUBLIC	?assign@?$basic_string@DU?$char_traits@D@std@@V?$allocator@D@2@@std@@QAEAAV12@ABV12@II@Z ; std::basic_string<char,std::char_traits<char>,std::allocator<char> >::assign
; Function compile flags: /Ogty
; File c:\program files\microsoft visual studio .net 2003\vc7\include\xstring
;	COMDAT ?assign@?$basic_string@DU?$char_traits@D@std@@V?$allocator@D@2@@std@@QAEAAV12@ABV12@II@Z
_TEXT	SEGMENT
__Right$ = 8						; size = 4
__Roff$ = 12						; size = 4
__Count$ = 16						; size = 4
?assign@?$basic_string@DU?$char_traits@D@std@@V?$allocator@D@2@@std@@QAEAAV12@ABV12@II@Z PROC NEAR ; std::basic_string<char,std::char_traits<char>,std::allocator<char> >::assign, COMDAT
; _this$ = ecx

; 590  : 		{	// assign _Right [_Roff, _Roff + _Count)

  00000	53		 push	 ebx
  00001	55		 push	 ebp
  00002	56		 push	 esi

; 591  : 		if (_Right.size() < _Roff)

  00003	8b 74 24 14	 mov	 esi, DWORD PTR __Roff$[esp+8]
  00007	57		 push	 edi
  00008	8b 7c 24 14	 mov	 edi, DWORD PTR __Right$[esp+12]
  0000c	39 77 14	 cmp	 DWORD PTR [edi+20], esi
  0000f	8b d9		 mov	 ebx, ecx
  00011	73 05		 jae	 SHORT $L184271

; 592  : 			_String_base::_Xran();	// _Roff off end

  00013	e8 00 00 00 00	 call	 ?_Xran@_String_base@std@@QBEXXZ ; std::_String_base::_Xran
$L184271:

; 593  : 		size_type _Num = _Right.size() - _Roff;

  00018	8b 6f 14	 mov	 ebp, DWORD PTR [edi+20]

; 594  : 		if (_Count < _Num)

  0001b	8b 44 24 1c	 mov	 eax, DWORD PTR __Count$[esp+12]
  0001f	2b ee		 sub	 ebp, esi
  00021	3b c5		 cmp	 eax, ebp
  00023	73 02		 jae	 SHORT $L184273

; 595  : 			_Num = _Count;	// trim _Num to size

  00025	8b e8		 mov	 ebp, eax
$L184273:

; 596  : 
; 597  : 		if (this == &_Right)

  00027	3b df		 cmp	 ebx, edi
  00029	75 1f		 jne	 SHORT $L184274

; 598  : 			erase((size_type)(_Roff + _Num)), erase(0, _Roff);	// substring

  0002b	6a ff		 push	 -1
  0002d	03 ee		 add	 ebp, esi
  0002f	55		 push	 ebp
  00030	8b cb		 mov	 ecx, ebx
  00032	e8 00 00 00 00	 call	 ?erase@?$basic_string@DU?$char_traits@D@std@@V?$allocator@D@2@@std@@QAEAAV12@II@Z ; std::basic_string<char,std::char_traits<char>,std::allocator<char> >::erase
  00037	56		 push	 esi
  00038	6a 00		 push	 0
  0003a	8b cb		 mov	 ecx, ebx
  0003c	e8 00 00 00 00	 call	 ?erase@?$basic_string@DU?$char_traits@D@std@@V?$allocator@D@2@@std@@QAEAAV12@II@Z ; std::basic_string<char,std::char_traits<char>,std::allocator<char> >::erase
  00041	5f		 pop	 edi
  00042	5e		 pop	 esi
  00043	5d		 pop	 ebp

; 603  : 			}
; 604  : 		return (*this);

  00044	8b c3		 mov	 eax, ebx
  00046	5b		 pop	 ebx

; 605  : 		}

  00047	c2 0c 00	 ret	 12			; 0000000cH
$L184274:

; 599  : 		else if (_Grow(_Num))

  0004a	83 fd fe	 cmp	 ebp, -2			; fffffffeH
  0004d	76 07		 jbe	 SHORT $L188645
  0004f	8b cb		 mov	 ecx, ebx
  00051	e8 00 00 00 00	 call	 ?_Xlen@_String_base@std@@QBEXXZ ; std::_String_base::_Xlen
$L188645:
  00056	8b 43 18	 mov	 eax, DWORD PTR [ebx+24]
  00059	3b c5		 cmp	 eax, ebp
  0005b	73 21		 jae	 SHORT $L188646
  0005d	8b 43 14	 mov	 eax, DWORD PTR [ebx+20]
  00060	50		 push	 eax
  00061	55		 push	 ebp
  00062	8b cb		 mov	 ecx, ebx
  00064	e8 00 00 00 00	 call	 ?_Copy@?$basic_string@DU?$char_traits@D@std@@V?$allocator@D@2@@std@@IAEXII@Z ; std::basic_string<char,std::char_traits<char>,std::allocator<char> >::_Copy
  00069	85 ed		 test	 ebp, ebp
$L188691:
  0006b	76 6d		 jbe	 SHORT $L188690

; 600  : 			{	// make room and assign new stuff
; 601  : 			_Traits::copy(_Myptr(), _Right._Myptr() + _Roff, _Num);

  0006d	8b 4f 18	 mov	 ecx, DWORD PTR [edi+24]
  00070	b8 10 00 00 00	 mov	 eax, 16			; 00000010H
  00075	3b c8		 cmp	 ecx, eax
  00077	72 2f		 jb	 SHORT $L188656
  00079	8b 57 04	 mov	 edx, DWORD PTR [edi+4]
  0007c	eb 2d		 jmp	 SHORT $L188657

; 599  : 		else if (_Grow(_Num))

$L188646:
  0007e	85 ed		 test	 ebp, ebp
  00080	75 e9		 jne	 SHORT $L188691
  00082	83 f8 10	 cmp	 eax, 16			; 00000010H
  00085	89 6b 14	 mov	 DWORD PTR [ebx+20], ebp
  00088	72 0f		 jb	 SHORT $L188638
  0008a	8b 43 04	 mov	 eax, DWORD PTR [ebx+4]
  0008d	5f		 pop	 edi
  0008e	5e		 pop	 esi
  0008f	c6 00 00	 mov	 BYTE PTR [eax], 0
  00092	5d		 pop	 ebp

; 603  : 			}
; 604  : 		return (*this);

  00093	8b c3		 mov	 eax, ebx
  00095	5b		 pop	 ebx

; 605  : 		}

  00096	c2 0c 00	 ret	 12			; 0000000cH

; 599  : 		else if (_Grow(_Num))

$L188638:
  00099	5f		 pop	 edi
  0009a	8d 43 04	 lea	 eax, DWORD PTR [ebx+4]
  0009d	5e		 pop	 esi
  0009e	c6 00 00	 mov	 BYTE PTR [eax], 0
  000a1	5d		 pop	 ebp

; 603  : 			}
; 604  : 		return (*this);

  000a2	8b c3		 mov	 eax, ebx
  000a4	5b		 pop	 ebx

; 605  : 		}

  000a5	c2 0c 00	 ret	 12			; 0000000cH

; 600  : 			{	// make room and assign new stuff
; 601  : 			_Traits::copy(_Myptr(), _Right._Myptr() + _Roff, _Num);

$L188656:
  000a8	8d 57 04	 lea	 edx, DWORD PTR [edi+4]
$L188657:
  000ab	39 43 18	 cmp	 DWORD PTR [ebx+24], eax
  000ae	8d 43 04	 lea	 eax, DWORD PTR [ebx+4]
  000b1	72 04		 jb	 SHORT $L188662
  000b3	8b 38		 mov	 edi, DWORD PTR [eax]
  000b5	eb 02		 jmp	 SHORT $L188663
$L188662:
  000b7	8b f8		 mov	 edi, eax
$L188663:
  000b9	03 f2		 add	 esi, edx
  000bb	8b cd		 mov	 ecx, ebp
  000bd	8b d1		 mov	 edx, ecx
  000bf	c1 e9 02	 shr	 ecx, 2
  000c2	f3 a5		 rep movsd
  000c4	8b ca		 mov	 ecx, edx
  000c6	83 e1 03	 and	 ecx, 3
  000c9	f3 a4		 rep movsb

; 602  : 			_Eos(_Num);

  000cb	83 7b 18 10	 cmp	 DWORD PTR [ebx+24], 16	; 00000010H
  000cf	89 6b 14	 mov	 DWORD PTR [ebx+20], ebp
  000d2	72 02		 jb	 SHORT $L188685
  000d4	8b 00		 mov	 eax, DWORD PTR [eax]
$L188685:
  000d6	c6 04 28 00	 mov	 BYTE PTR [eax+ebp], 0
$L188690:
  000da	5f		 pop	 edi
  000db	5e		 pop	 esi
  000dc	5d		 pop	 ebp

; 603  : 			}
; 604  : 		return (*this);

  000dd	8b c3		 mov	 eax, ebx
  000df	5b		 pop	 ebx

; 605  : 		}

  000e0	c2 0c 00	 ret	 12			; 0000000cH
?assign@?$basic_string@DU?$char_traits@D@std@@V?$allocator@D@2@@std@@QAEAAV12@ABV12@II@Z ENDP ; std::basic_string<char,std::char_traits<char>,std::allocator<char> >::assign
_TEXT	ENDS
PUBLIC	?assign@?$basic_string@DU?$char_traits@D@std@@V?$allocator@D@2@@std@@QAEAAV12@PBDI@Z ; std::basic_string<char,std::char_traits<char>,std::allocator<char> >::assign
; Function compile flags: /Ogty
;	COMDAT ?assign@?$basic_string@DU?$char_traits@D@std@@V?$allocator@D@2@@std@@QAEAAV12@PBDI@Z
_TEXT	SEGMENT
__Ptr$ = 8						; size = 4
__Num$ = 12						; size = 4
?assign@?$basic_string@DU?$char_traits@D@std@@V?$allocator@D@2@@std@@QAEAAV12@PBDI@Z PROC NEAR ; std::basic_string<char,std::char_traits<char>,std::allocator<char> >::assign, COMDAT
; _this$ = ecx

; 608  : 		{	// assign [_Ptr, _Ptr + _Num)

  00000	53		 push	 ebx
  00001	8b d9		 mov	 ebx, ecx

; 609  : 		if (_Inside(_Ptr))

  00003	8b 53 18	 mov	 edx, DWORD PTR [ebx+24]
  00006	83 fa 10	 cmp	 edx, 16			; 00000010H
  00009	56		 push	 esi
  0000a	57		 push	 edi
  0000b	72 05		 jb	 SHORT $L188715
  0000d	8b 43 04	 mov	 eax, DWORD PTR [ebx+4]
  00010	eb 03		 jmp	 SHORT $L188716
$L188715:
  00012	8d 43 04	 lea	 eax, DWORD PTR [ebx+4]
$L188716:
  00015	8b 74 24 10	 mov	 esi, DWORD PTR __Ptr$[esp+8]
  00019	3b f0		 cmp	 esi, eax
  0001b	72 34		 jb	 SHORT $L184989
  0001d	83 fa 10	 cmp	 edx, 16			; 00000010H
  00020	8d 43 04	 lea	 eax, DWORD PTR [ebx+4]
  00023	72 04		 jb	 SHORT $L188719
  00025	8b 08		 mov	 ecx, DWORD PTR [eax]
  00027	eb 02		 jmp	 SHORT $L188720
$L188719:
  00029	8b c8		 mov	 ecx, eax
$L188720:
  0002b	8b 7b 14	 mov	 edi, DWORD PTR [ebx+20]
  0002e	03 f9		 add	 edi, ecx
  00030	3b fe		 cmp	 edi, esi
  00032	76 1d		 jbe	 SHORT $L184989

; 610  : 			return (assign(*this, _Ptr - _Myptr(), _Num));	// substring

  00034	83 fa 10	 cmp	 edx, 16			; 00000010H
  00037	72 02		 jb	 SHORT $L188728
  00039	8b 00		 mov	 eax, DWORD PTR [eax]
$L188728:
  0003b	8b 4c 24 14	 mov	 ecx, DWORD PTR __Num$[esp+8]
  0003f	51		 push	 ecx
  00040	2b f0		 sub	 esi, eax
  00042	56		 push	 esi
  00043	53		 push	 ebx
  00044	8b cb		 mov	 ecx, ebx
  00046	e8 00 00 00 00	 call	 ?assign@?$basic_string@DU?$char_traits@D@std@@V?$allocator@D@2@@std@@QAEAAV12@ABV12@II@Z ; std::basic_string<char,std::char_traits<char>,std::allocator<char> >::assign
  0004b	5f		 pop	 edi
  0004c	5e		 pop	 esi
  0004d	5b		 pop	 ebx

; 618  : 		}

  0004e	c2 08 00	 ret	 8
$L184989:
  00051	55		 push	 ebp

; 611  : 
; 612  : 		if (_Grow(_Num))

  00052	8b 6c 24 18	 mov	 ebp, DWORD PTR __Num$[esp+12]
  00056	83 fd fe	 cmp	 ebp, -2			; fffffffeH
  00059	76 07		 jbe	 SHORT $L188869
  0005b	8b cb		 mov	 ecx, ebx
  0005d	e8 00 00 00 00	 call	 ?_Xlen@_String_base@std@@QBEXXZ ; std::_String_base::_Xlen
$L188869:
  00062	8b 43 18	 mov	 eax, DWORD PTR [ebx+24]
  00065	3b c5		 cmp	 eax, ebp
  00067	73 1b		 jae	 SHORT $L188870
  00069	8b 53 14	 mov	 edx, DWORD PTR [ebx+20]
  0006c	52		 push	 edx
  0006d	55		 push	 ebp
  0006e	8b cb		 mov	 ecx, ebx
  00070	e8 00 00 00 00	 call	 ?_Copy@?$basic_string@DU?$char_traits@D@std@@V?$allocator@D@2@@std@@IAEXII@Z ; std::basic_string<char,std::char_traits<char>,std::allocator<char> >::_Copy
  00075	85 ed		 test	 ebp, ebp
$L188908:
  00077	76 68		 jbe	 SHORT $L188905

; 613  : 			{	// make room and assign new stuff
; 614  : 			_Traits::copy(_Myptr(), _Ptr, _Num);

  00079	83 7b 18 10	 cmp	 DWORD PTR [ebx+24], 16	; 00000010H
  0007d	72 2f		 jb	 SHORT $L188879
  0007f	8b 7b 04	 mov	 edi, DWORD PTR [ebx+4]
  00082	eb 2d		 jmp	 SHORT $L188880

; 611  : 
; 612  : 		if (_Grow(_Num))

$L188870:
  00084	85 ed		 test	 ebp, ebp
  00086	75 ef		 jne	 SHORT $L188908
  00088	83 f8 10	 cmp	 eax, 16			; 00000010H
  0008b	89 6b 14	 mov	 DWORD PTR [ebx+20], ebp
  0008e	72 0f		 jb	 SHORT $L188862
  00090	8b 43 04	 mov	 eax, DWORD PTR [ebx+4]
  00093	5d		 pop	 ebp
  00094	5f		 pop	 edi
  00095	c6 00 00	 mov	 BYTE PTR [eax], 0
  00098	5e		 pop	 esi

; 616  : 			}
; 617  : 		return (*this);

  00099	8b c3		 mov	 eax, ebx
  0009b	5b		 pop	 ebx

; 618  : 		}

  0009c	c2 08 00	 ret	 8

; 611  : 
; 612  : 		if (_Grow(_Num))

$L188862:
  0009f	5d		 pop	 ebp
  000a0	8d 43 04	 lea	 eax, DWORD PTR [ebx+4]
  000a3	5f		 pop	 edi
  000a4	c6 00 00	 mov	 BYTE PTR [eax], 0
  000a7	5e		 pop	 esi

; 616  : 			}
; 617  : 		return (*this);

  000a8	8b c3		 mov	 eax, ebx
  000aa	5b		 pop	 ebx

; 618  : 		}

  000ab	c2 08 00	 ret	 8

; 613  : 			{	// make room and assign new stuff
; 614  : 			_Traits::copy(_Myptr(), _Ptr, _Num);

$L188879:
  000ae	8d 7b 04	 lea	 edi, DWORD PTR [ebx+4]
$L188880:
  000b1	8b cd		 mov	 ecx, ebp
  000b3	8b c1		 mov	 eax, ecx
  000b5	c1 e9 02	 shr	 ecx, 2
  000b8	f3 a5		 rep movsd
  000ba	8b c8		 mov	 ecx, eax
  000bc	83 e1 03	 and	 ecx, 3
  000bf	f3 a4		 rep movsb

; 615  : 			_Eos(_Num);

  000c1	83 7b 18 10	 cmp	 DWORD PTR [ebx+24], 16	; 00000010H
  000c5	89 6b 14	 mov	 DWORD PTR [ebx+20], ebp
  000c8	72 10		 jb	 SHORT $L188901
  000ca	8b 43 04	 mov	 eax, DWORD PTR [ebx+4]
  000cd	c6 04 28 00	 mov	 BYTE PTR [eax+ebp], 0
  000d1	5d		 pop	 ebp
  000d2	5f		 pop	 edi
  000d3	5e		 pop	 esi

; 616  : 			}
; 617  : 		return (*this);

  000d4	8b c3		 mov	 eax, ebx
  000d6	5b		 pop	 ebx

; 618  : 		}

  000d7	c2 08 00	 ret	 8

; 615  : 			_Eos(_Num);

$L188901:
  000da	8d 43 04	 lea	 eax, DWORD PTR [ebx+4]
  000dd	c6 04 28 00	 mov	 BYTE PTR [eax+ebp], 0
$L188905:
  000e1	5d		 pop	 ebp
  000e2	5f		 pop	 edi
  000e3	5e		 pop	 esi

; 616  : 			}
; 617  : 		return (*this);

  000e4	8b c3		 mov	 eax, ebx
  000e6	5b		 pop	 ebx

; 618  : 		}

  000e7	c2 08 00	 ret	 8
?assign@?$basic_string@DU?$char_traits@D@std@@V?$allocator@D@2@@std@@QAEAAV12@PBDI@Z ENDP ; std::basic_string<char,std::char_traits<char>,std::allocator<char> >::assign
_TEXT	ENDS
PUBLIC	??0?$basic_string@DU?$char_traits@D@std@@V?$allocator@D@2@@std@@QAE@ABV01@@Z ; std::basic_string<char,std::char_traits<char>,std::allocator<char> >::basic_string<char,std::char_traits<char>,std::allocator<char> >
; Function compile flags: /Ogty
;	COMDAT ??0?$basic_string@DU?$char_traits@D@std@@V?$allocator@D@2@@std@@QAE@ABV01@@Z
_TEXT	SEGMENT
__Right$ = 8						; size = 4
??0?$basic_string@DU?$char_traits@D@std@@V?$allocator@D@2@@std@@QAE@ABV01@@Z PROC NEAR ; std::basic_string<char,std::char_traits<char>,std::allocator<char> >::basic_string<char,std::char_traits<char>,std::allocator<char> >, COMDAT
; _this$ = ecx

; 323  : 		{	// construct by copying _Right

  00000	56		 push	 esi

; 324  : 		_Tidy();

  00001	33 c0		 xor	 eax, eax
  00003	8b f1		 mov	 esi, ecx

; 325  : 		assign(_Right, 0, npos);

  00005	6a ff		 push	 -1
  00007	89 46 14	 mov	 DWORD PTR [esi+20], eax
  0000a	c7 46 18 0f 00
	00 00		 mov	 DWORD PTR [esi+24], 15	; 0000000fH
  00011	50		 push	 eax
  00012	88 46 04	 mov	 BYTE PTR [esi+4], al
  00015	8b 44 24 10	 mov	 eax, DWORD PTR __Right$[esp+8]
  00019	50		 push	 eax
  0001a	e8 00 00 00 00	 call	 ?assign@?$basic_string@DU?$char_traits@D@std@@V?$allocator@D@2@@std@@QAEAAV12@ABV12@II@Z ; std::basic_string<char,std::char_traits<char>,std::allocator<char> >::assign

; 326  : 		}

  0001f	8b c6		 mov	 eax, esi
  00021	5e		 pop	 esi
  00022	c2 04 00	 ret	 4
??0?$basic_string@DU?$char_traits@D@std@@V?$allocator@D@2@@std@@QAE@ABV01@@Z ENDP ; std::basic_string<char,std::char_traits<char>,std::allocator<char> >::basic_string<char,std::char_traits<char>,std::allocator<char> >
_TEXT	ENDS
PUBLIC	?assign@?$basic_string@DU?$char_traits@D@std@@V?$allocator@D@2@@std@@QAEAAV12@PBD@Z ; std::basic_string<char,std::char_traits<char>,std::allocator<char> >::assign
; Function compile flags: /Ogty
;	COMDAT ?assign@?$basic_string@DU?$char_traits@D@std@@V?$allocator@D@2@@std@@QAEAAV12@PBD@Z
_TEXT	SEGMENT
__Ptr$ = 8						; size = 4
?assign@?$basic_string@DU?$char_traits@D@std@@V?$allocator@D@2@@std@@QAEAAV12@PBD@Z PROC NEAR ; std::basic_string<char,std::char_traits<char>,std::allocator<char> >::assign, COMDAT
; _this$ = ecx

; 621  : 		{	// assign [_Ptr, <null>)

  00000	56		 push	 esi

; 622  : 		return (assign(_Ptr, _Traits::length(_Ptr)));

  00001	8b 74 24 08	 mov	 esi, DWORD PTR __Ptr$[esp]
  00005	8b c6		 mov	 eax, esi
  00007	57		 push	 edi
  00008	8d 78 01	 lea	 edi, DWORD PTR [eax+1]
  0000b	eb 03 8d 49 00	 npad	 5
$L188980:
  00010	8a 10		 mov	 dl, BYTE PTR [eax]
  00012	40		 inc	 eax
  00013	84 d2		 test	 dl, dl
  00015	75 f9		 jne	 SHORT $L188980
  00017	2b c7		 sub	 eax, edi
  00019	50		 push	 eax
  0001a	56		 push	 esi
  0001b	e8 00 00 00 00	 call	 ?assign@?$basic_string@DU?$char_traits@D@std@@V?$allocator@D@2@@std@@QAEAAV12@PBDI@Z ; std::basic_string<char,std::char_traits<char>,std::allocator<char> >::assign
  00020	5f		 pop	 edi
  00021	5e		 pop	 esi

; 623  : 		}

  00022	c2 04 00	 ret	 4
?assign@?$basic_string@DU?$char_traits@D@std@@V?$allocator@D@2@@std@@QAEAAV12@PBD@Z ENDP ; std::basic_string<char,std::char_traits<char>,std::allocator<char> >::assign
_TEXT	ENDS
PUBLIC	??0logic_error@std@@QAE@ABV?$basic_string@DU?$char_traits@D@std@@V?$allocator@D@2@@1@@Z ; std::logic_error::logic_error
EXTRN	??0exception@@QAE@XZ:NEAR			; exception::exception
;	COMDAT xdata$x
; File c:\program files\microsoft visual studio .net 2003\vc7\include\iosfwd
xdata$x	SEGMENT
$T189083 DD	0ffffffffH
	DD	FLAT:$L188983
$T189081 DD	019930520H
	DD	01H
	DD	FLAT:$T189083
	DD	2 DUP(00H)
	DD	2 DUP(00H)
; Function compile flags: /Ogty
; File c:\program files\microsoft visual studio .net 2003\vc7\include\stdexcept
xdata$x	ENDS
;	COMDAT ??0logic_error@std@@QAE@ABV?$basic_string@DU?$char_traits@D@std@@V?$allocator@D@2@@1@@Z
_TEXT	SEGMENT
_this$ = -16						; size = 4
__$EHRec$ = -12						; size = 12
__Message$ = 8						; size = 4
??0logic_error@std@@QAE@ABV?$basic_string@DU?$char_traits@D@std@@V?$allocator@D@2@@1@@Z PROC NEAR ; std::logic_error::logic_error, COMDAT
; _this$ = ecx

; 19   : 		{	// construct from message string

  00000	6a ff		 push	 -1
  00002	68 00 00 00 00	 push	 __ehhandler$??0logic_error@std@@QAE@ABV?$basic_string@DU?$char_traits@D@std@@V?$allocator@D@2@@1@@Z
  00007	64 a1 00 00 00
	00		 mov	 eax, DWORD PTR fs:__except_list
  0000d	50		 push	 eax
  0000e	64 89 25 00 00
	00 00		 mov	 DWORD PTR fs:__except_list, esp
  00015	51		 push	 ecx
  00016	56		 push	 esi
  00017	8b f1		 mov	 esi, ecx
  00019	89 74 24 04	 mov	 DWORD PTR _this$[esp+20], esi
  0001d	e8 00 00 00 00	 call	 ??0exception@@QAE@XZ	; exception::exception
  00022	33 c0		 xor	 eax, eax
  00024	8d 4e 0c	 lea	 ecx, DWORD PTR [esi+12]
  00027	c7 06 00 00 00
	00		 mov	 DWORD PTR [esi], OFFSET FLAT:??_7logic_error@std@@6B@
  0002d	6a ff		 push	 -1
  0002f	89 41 14	 mov	 DWORD PTR [ecx+20], eax
  00032	c7 41 18 0f 00
	00 00		 mov	 DWORD PTR [ecx+24], 15	; 0000000fH
  00039	50		 push	 eax
  0003a	89 44 24 18	 mov	 DWORD PTR __$EHRec$[esp+36], eax
  0003e	88 41 04	 mov	 BYTE PTR [ecx+4], al
  00041	8b 44 24 20	 mov	 eax, DWORD PTR __Message$[esp+24]
  00045	50		 push	 eax
  00046	e8 00 00 00 00	 call	 ?assign@?$basic_string@DU?$char_traits@D@std@@V?$allocator@D@2@@std@@QAEAAV12@ABV12@II@Z ; std::basic_string<char,std::char_traits<char>,std::allocator<char> >::assign

; 20   : 		}

  0004b	8b 4c 24 08	 mov	 ecx, DWORD PTR __$EHRec$[esp+20]
  0004f	8b c6		 mov	 eax, esi
  00051	5e		 pop	 esi
  00052	64 89 0d 00 00
	00 00		 mov	 DWORD PTR fs:__except_list, ecx
  00059	83 c4 10	 add	 esp, 16			; 00000010H
  0005c	c2 04 00	 ret	 4
_TEXT	ENDS
;	COMDAT text$x
text$x	SEGMENT
$L188983:
  00000	8b 4d f0	 mov	 ecx, DWORD PTR _this$[ebp]
  00003	e9 00 00 00 00	 jmp	 ??1exception@@UAE@XZ	; exception::~exception
__ehhandler$??0logic_error@std@@QAE@ABV?$basic_string@DU?$char_traits@D@std@@V?$allocator@D@2@@1@@Z:
  00008	b8 00 00 00 00	 mov	 eax, OFFSET FLAT:$T189081
  0000d	e9 00 00 00 00	 jmp	 ___CxxFrameHandler
text$x	ENDS
??0logic_error@std@@QAE@ABV?$basic_string@DU?$char_traits@D@std@@V?$allocator@D@2@@1@@Z ENDP ; std::logic_error::logic_error
PUBLIC	??0length_error@std@@QAE@ABV?$basic_string@DU?$char_traits@D@std@@V?$allocator@D@2@@1@@Z ; std::length_error::length_error
PUBLIC	??_7length_error@std@@6B@			; std::length_error::`vftable'
PUBLIC	??_Glength_error@std@@UAEPAXI@Z			; std::length_error::`scalar deleting destructor'
EXTRN	??_Elength_error@std@@UAEPAXI@Z:NEAR		; std::length_error::`vector deleting destructor'
;	COMDAT ??_7length_error@std@@6B@
CONST	SEGMENT
??_7length_error@std@@6B@ DD FLAT:??_Elength_error@std@@UAEPAXI@Z ; std::length_error::`vftable'
	DD	FLAT:?what@logic_error@std@@UBEPBDXZ
; Function compile flags: /Ogty
CONST	ENDS
;	COMDAT ??0length_error@std@@QAE@ABV?$basic_string@DU?$char_traits@D@std@@V?$allocator@D@2@@1@@Z
_TEXT	SEGMENT
__Message$ = 8						; size = 4
??0length_error@std@@QAE@ABV?$basic_string@DU?$char_traits@D@std@@V?$allocator@D@2@@1@@Z PROC NEAR ; std::length_error::length_error, COMDAT
; _this$ = ecx

; 95   : 		{	// construct from message string

  00000	8b 44 24 04	 mov	 eax, DWORD PTR __Message$[esp-4]
  00004	56		 push	 esi
  00005	50		 push	 eax
  00006	8b f1		 mov	 esi, ecx
  00008	e8 00 00 00 00	 call	 ??0logic_error@std@@QAE@ABV?$basic_string@DU?$char_traits@D@std@@V?$allocator@D@2@@1@@Z ; std::logic_error::logic_error
  0000d	c7 06 00 00 00
	00		 mov	 DWORD PTR [esi], OFFSET FLAT:??_7length_error@std@@6B@

; 96   : 		}

  00013	8b c6		 mov	 eax, esi
  00015	5e		 pop	 esi
  00016	c2 04 00	 ret	 4
??0length_error@std@@QAE@ABV?$basic_string@DU?$char_traits@D@std@@V?$allocator@D@2@@1@@Z ENDP ; std::length_error::length_error
_TEXT	ENDS
PUBLIC	??1length_error@std@@UAE@XZ			; std::length_error::~length_error
; Function compile flags: /Ogty
;	COMDAT ??_Glength_error@std@@UAEPAXI@Z
_TEXT	SEGMENT
___flags$ = 8						; size = 4
??_Glength_error@std@@UAEPAXI@Z PROC NEAR		; std::length_error::`scalar deleting destructor', COMDAT
; _this$ = ecx
  00000	56		 push	 esi
  00001	8b f1		 mov	 esi, ecx
  00003	e8 00 00 00 00	 call	 ??1length_error@std@@UAE@XZ ; std::length_error::~length_error
  00008	f6 44 24 08 01	 test	 BYTE PTR ___flags$[esp], 1
  0000d	74 09		 je	 SHORT $L189091
  0000f	56		 push	 esi
  00010	e8 00 00 00 00	 call	 ??3@YAXPAX@Z		; operator delete
  00015	83 c4 04	 add	 esp, 4
$L189091:
  00018	8b c6		 mov	 eax, esi
  0001a	5e		 pop	 esi
  0001b	c2 04 00	 ret	 4
??_Glength_error@std@@UAEPAXI@Z ENDP			; std::length_error::`scalar deleting destructor'
; Function compile flags: /Ogty
_TEXT	ENDS
;	COMDAT ??1length_error@std@@UAE@XZ
_TEXT	SEGMENT
??1length_error@std@@UAE@XZ PROC NEAR			; std::length_error::~length_error, COMDAT
; _this$ = ecx

; 99   : 		{}	// destroy the object

  00000	56		 push	 esi
  00001	8b f1		 mov	 esi, ecx
  00003	c7 06 00 00 00
	00		 mov	 DWORD PTR [esi], OFFSET FLAT:??_7logic_error@std@@6B@
  00009	83 7e 24 10	 cmp	 DWORD PTR [esi+36], 16	; 00000010H
  0000d	72 0c		 jb	 SHORT $L189185
  0000f	8b 46 10	 mov	 eax, DWORD PTR [esi+16]
  00012	50		 push	 eax
  00013	e8 00 00 00 00	 call	 ??3@YAXPAX@Z		; operator delete
  00018	83 c4 04	 add	 esp, 4
$L189185:
  0001b	33 c0		 xor	 eax, eax
  0001d	c7 46 24 0f 00
	00 00		 mov	 DWORD PTR [esi+36], 15	; 0000000fH
  00024	89 46 20	 mov	 DWORD PTR [esi+32], eax
  00027	88 46 10	 mov	 BYTE PTR [esi+16], al
  0002a	8b ce		 mov	 ecx, esi
  0002c	5e		 pop	 esi
  0002d	e9 00 00 00 00	 jmp	 ??1exception@@UAE@XZ	; exception::~exception
??1length_error@std@@UAE@XZ ENDP			; std::length_error::~length_error
_TEXT	ENDS
PUBLIC	??0?$basic_string@DU?$char_traits@D@std@@V?$allocator@D@2@@std@@QAE@PBD@Z ; std::basic_string<char,std::char_traits<char>,std::allocator<char> >::basic_string<char,std::char_traits<char>,std::allocator<char> >
; Function compile flags: /Ogty
; File c:\program files\microsoft visual studio .net 2003\vc7\include\xstring
;	COMDAT ??0?$basic_string@DU?$char_traits@D@std@@V?$allocator@D@2@@std@@QAE@PBD@Z
_TEXT	SEGMENT
__Ptr$ = 8						; size = 4
??0?$basic_string@DU?$char_traits@D@std@@V?$allocator@D@2@@std@@QAE@PBD@Z PROC NEAR ; std::basic_string<char,std::char_traits<char>,std::allocator<char> >::basic_string<char,std::char_traits<char>,std::allocator<char> >, COMDAT
; _this$ = ecx

; 361  : 		_Tidy();
; 362  : 		assign(_Ptr);

  00000	8b 54 24 04	 mov	 edx, DWORD PTR __Ptr$[esp-4]
  00004	56		 push	 esi
  00005	8b f1		 mov	 esi, ecx
  00007	8b c2		 mov	 eax, edx
  00009	57		 push	 edi
  0000a	c7 46 18 0f 00
	00 00		 mov	 DWORD PTR [esi+24], 15	; 0000000fH
  00011	c7 46 14 00 00
	00 00		 mov	 DWORD PTR [esi+20], 0
  00018	c6 46 04 00	 mov	 BYTE PTR [esi+4], 0
  0001c	8d 78 01	 lea	 edi, DWORD PTR [eax+1]
  0001f	90		 npad	 1
$L189271:
  00020	8a 08		 mov	 cl, BYTE PTR [eax]
  00022	40		 inc	 eax
  00023	84 c9		 test	 cl, cl
  00025	75 f9		 jne	 SHORT $L189271
  00027	2b c7		 sub	 eax, edi
  00029	50		 push	 eax
  0002a	52		 push	 edx
  0002b	8b ce		 mov	 ecx, esi
  0002d	e8 00 00 00 00	 call	 ?assign@?$basic_string@DU?$char_traits@D@std@@V?$allocator@D@2@@std@@QAEAAV12@PBDI@Z ; std::basic_string<char,std::char_traits<char>,std::allocator<char> >::assign
  00032	5f		 pop	 edi

; 363  : 		}

  00033	8b c6		 mov	 eax, esi
  00035	5e		 pop	 esi
  00036	c2 04 00	 ret	 4
??0?$basic_string@DU?$char_traits@D@std@@V?$allocator@D@2@@std@@QAE@PBD@Z ENDP ; std::basic_string<char,std::char_traits<char>,std::allocator<char> >::basic_string<char,std::char_traits<char>,std::allocator<char> >
_TEXT	ENDS
PUBLIC	??_R0?AVlogic_error@std@@@8			; std::logic_error `RTTI Type Descriptor'
PUBLIC	__CT??_R0?AVlogic_error@std@@@8??0logic_error@std@@QAE@ABV01@@Z40
PUBLIC	??_R0?AVexception@@@8				; exception `RTTI Type Descriptor'
PUBLIC	__CT??_R0?AVexception@@@8??0exception@@QAE@ABV0@@Z12
PUBLIC	??0logic_error@std@@QAE@ABV01@@Z		; std::logic_error::logic_error
PUBLIC	??0length_error@std@@QAE@ABV01@@Z		; std::length_error::length_error
PUBLIC	__TI3?AVlength_error@std@@
PUBLIC	__CTA3?AVlength_error@std@@
PUBLIC	??_R0?AVlength_error@std@@@8			; std::length_error `RTTI Type Descriptor'
PUBLIC	__CT??_R0?AVlength_error@std@@@8??0length_error@std@@QAE@ABV01@@Z40
PUBLIC	??_C@_0BB@MOGOBHAF@list?$DMT?$DO?5too?5long?$AA@ ; `string'
PUBLIC	?_Incsize@?$list@PAXV?$allocator@PAX@std@@@std@@IAEXI@Z ; std::list<void *,std::allocator<void *> >::_Incsize
EXTRN	??0exception@@QAE@ABV0@@Z:NEAR			; exception::exception
EXTRN	??_7type_info@@6B@:DWORD			; type_info::`vftable'
;	COMDAT xdata$x
; File c:\program files\microsoft visual studio .net 2003\vc7\include\stdexcept
xdata$x	SEGMENT
$T189407 DD	0ffffffffH
	DD	FLAT:$L189276
$T189404 DD	019930520H
	DD	01H
	DD	FLAT:$T189407
	DD	2 DUP(00H)
	DD	2 DUP(00H)
xdata$x	ENDS
;	COMDAT ??_C@_0BB@MOGOBHAF@list?$DMT?$DO?5too?5long?$AA@
CONST	SEGMENT
??_C@_0BB@MOGOBHAF@list?$DMT?$DO?5too?5long?$AA@ DB 'list<T> too long', 00H ; `string'
CONST	ENDS
;	COMDAT __TI3?AVlength_error@std@@
xdata$x	SEGMENT
__TI3?AVlength_error@std@@ DD 00H
	DD	FLAT:??1length_error@std@@UAE@XZ
	DD	00H
	DD	FLAT:__CTA3?AVlength_error@std@@
xdata$x	ENDS
;	COMDAT __CTA3?AVlength_error@std@@
xdata$x	SEGMENT
__CTA3?AVlength_error@std@@ DD 03H
	DD	FLAT:__CT??_R0?AVlength_error@std@@@8??0length_error@std@@QAE@ABV01@@Z40
	DD	FLAT:__CT??_R0?AVlogic_error@std@@@8??0logic_error@std@@QAE@ABV01@@Z40
	DD	FLAT:__CT??_R0?AVexception@@@8??0exception@@QAE@ABV0@@Z12
xdata$x	ENDS
;	COMDAT __CT??_R0?AVlength_error@std@@@8??0length_error@std@@QAE@ABV01@@Z40
xdata$x	SEGMENT
__CT??_R0?AVlength_error@std@@@8??0length_error@std@@QAE@ABV01@@Z40 DD 00H
	DD	FLAT:??_R0?AVlength_error@std@@@8
	DD	00H
	DD	0ffffffffH
	ORG $+4
	DD	028H
	DD	FLAT:??0length_error@std@@QAE@ABV01@@Z
xdata$x	ENDS
;	COMDAT ??_R0?AVlength_error@std@@@8
_DATA	SEGMENT
??_R0?AVlength_error@std@@@8 DD FLAT:??_7type_info@@6B@	; std::length_error `RTTI Type Descriptor'
	DD	00H
	DB	'.?AVlength_error@std@@', 00H
_DATA	ENDS
;	COMDAT __CT??_R0?AVlogic_error@std@@@8??0logic_error@std@@QAE@ABV01@@Z40
xdata$x	SEGMENT
__CT??_R0?AVlogic_error@std@@@8??0logic_error@std@@QAE@ABV01@@Z40 DD 00H
	DD	FLAT:??_R0?AVlogic_error@std@@@8
	DD	00H
	DD	0ffffffffH
	ORG $+4
	DD	028H
	DD	FLAT:??0logic_error@std@@QAE@ABV01@@Z
xdata$x	ENDS
;	COMDAT ??_R0?AVlogic_error@std@@@8
_DATA	SEGMENT
??_R0?AVlogic_error@std@@@8 DD FLAT:??_7type_info@@6B@	; std::logic_error `RTTI Type Descriptor'
	DD	00H
	DB	'.?AVlogic_error@std@@', 00H
_DATA	ENDS
;	COMDAT __CT??_R0?AVexception@@@8??0exception@@QAE@ABV0@@Z12
xdata$x	SEGMENT
__CT??_R0?AVexception@@@8??0exception@@QAE@ABV0@@Z12 DD 00H
	DD	FLAT:??_R0?AVexception@@@8
	DD	00H
	DD	0ffffffffH
	ORG $+4
	DD	0cH
	DD	FLAT:??0exception@@QAE@ABV0@@Z
xdata$x	ENDS
;	COMDAT ??_R0?AVexception@@@8
_DATA	SEGMENT
??_R0?AVexception@@@8 DD FLAT:??_7type_info@@6B@	; exception `RTTI Type Descriptor'
	DD	00H
	DB	'.?AVexception@@', 00H
; Function compile flags: /Ogty
; File c:\program files\microsoft visual studio .net 2003\vc7\include\list
_DATA	ENDS
;	COMDAT ?_Incsize@?$list@PAXV?$allocator@PAX@std@@@std@@IAEXI@Z
_TEXT	SEGMENT
$T189275 = -80						; size = 28
$T189274 = -52						; size = 40
__$EHRec$ = -12						; size = 12
__Count$ = 8						; size = 4
?_Incsize@?$list@PAXV?$allocator@PAX@std@@@std@@IAEXI@Z PROC NEAR ; std::list<void *,std::allocator<void *> >::_Incsize, COMDAT
; _this$ = ecx

; 956  : 		{	// alter element count, with checking

  00000	64 a1 00 00 00
	00		 mov	 eax, DWORD PTR fs:__except_list

; 957  : 		if (max_size() - _Mysize < _Count)

  00006	8b 54 24 04	 mov	 edx, DWORD PTR __Count$[esp-4]
  0000a	6a ff		 push	 -1
  0000c	68 00 00 00 00	 push	 __ehhandler$?_Incsize@?$list@PAXV?$allocator@PAX@std@@@std@@IAEXI@Z
  00011	50		 push	 eax
  00012	64 89 25 00 00
	00 00		 mov	 DWORD PTR fs:__except_list, esp
  00019	8b 41 08	 mov	 eax, DWORD PTR [ecx+8]
  0001c	83 ec 44	 sub	 esp, 68			; 00000044H
  0001f	56		 push	 esi
  00020	be ff ff ff 3f	 mov	 esi, 1073741823		; 3fffffffH
  00025	2b f0		 sub	 esi, eax
  00027	3b f2		 cmp	 esi, edx
  00029	5e		 pop	 esi
  0002a	73 51		 jae	 SHORT $L185954

; 958  : 			_THROW(length_error, "list<T> too long");

  0002c	6a 10		 push	 16			; 00000010H
  0002e	68 00 00 00 00	 push	 OFFSET FLAT:??_C@_0BB@MOGOBHAF@list?$DMT?$DO?5too?5long?$AA@
  00033	8d 4c 24 08	 lea	 ecx, DWORD PTR $T189275[esp+88]
  00037	c7 44 24 20 0f
	00 00 00	 mov	 DWORD PTR $T189275[esp+112], 15 ; 0000000fH
  0003f	c7 44 24 1c 00
	00 00 00	 mov	 DWORD PTR $T189275[esp+108], 0
  00047	c6 44 24 0c 00	 mov	 BYTE PTR $T189275[esp+92], 0
  0004c	e8 00 00 00 00	 call	 ?assign@?$basic_string@DU?$char_traits@D@std@@V?$allocator@D@2@@std@@QAEAAV12@PBDI@Z ; std::basic_string<char,std::char_traits<char>,std::allocator<char> >::assign
  00051	8d 04 24	 lea	 eax, DWORD PTR $T189275[esp+80]
  00054	50		 push	 eax
  00055	8d 4c 24 20	 lea	 ecx, DWORD PTR $T189274[esp+84]
  00059	c7 44 24 50 00
	00 00 00	 mov	 DWORD PTR __$EHRec$[esp+92], 0
  00061	e8 00 00 00 00	 call	 ??0logic_error@std@@QAE@ABV?$basic_string@DU?$char_traits@D@std@@V?$allocator@D@2@@1@@Z ; std::logic_error::logic_error
  00066	68 00 00 00 00	 push	 OFFSET FLAT:__TI3?AVlength_error@std@@
  0006b	8d 4c 24 20	 lea	 ecx, DWORD PTR $T189274[esp+84]
  0006f	51		 push	 ecx
  00070	c7 44 24 24 00
	00 00 00	 mov	 DWORD PTR $T189274[esp+88], OFFSET FLAT:??_7length_error@std@@6B@
  00078	e8 00 00 00 00	 call	 __CxxThrowException@8
$L185954:

; 959  : 		_Mysize += _Count;

  0007d	03 c2		 add	 eax, edx
  0007f	89 41 08	 mov	 DWORD PTR [ecx+8], eax

; 960  : 		}

  00082	8b 4c 24 44	 mov	 ecx, DWORD PTR __$EHRec$[esp+80]
  00086	64 89 0d 00 00
	00 00		 mov	 DWORD PTR fs:__except_list, ecx
  0008d	83 c4 50	 add	 esp, 80			; 00000050H
  00090	c2 04 00	 ret	 4
$L189406:
_TEXT	ENDS
;	COMDAT text$x
text$x	SEGMENT
$L189276:
  00000	8d 4d b0	 lea	 ecx, DWORD PTR $T189275[ebp]
  00003	e9 00 00 00 00	 jmp	 ??1?$basic_string@DU?$char_traits@D@std@@V?$allocator@D@2@@std@@QAE@XZ ; std::basic_string<char,std::char_traits<char>,std::allocator<char> >::~basic_string<char,std::char_traits<char>,std::allocator<char> >
__ehhandler$?_Incsize@?$list@PAXV?$allocator@PAX@std@@@std@@IAEXI@Z:
  00008	b8 00 00 00 00	 mov	 eax, OFFSET FLAT:$T189404
  0000d	e9 00 00 00 00	 jmp	 ___CxxFrameHandler
text$x	ENDS
?_Incsize@?$list@PAXV?$allocator@PAX@std@@@std@@IAEXI@Z ENDP ; std::list<void *,std::allocator<void *> >::_Incsize
;	COMDAT xdata$x
xdata$x	SEGMENT
$T189512 DD	0ffffffffH
	DD	FLAT:$L189412
$T189510 DD	019930520H
	DD	01H
	DD	FLAT:$T189512
	DD	2 DUP(00H)
	DD	2 DUP(00H)
; Function compile flags: /Ogty
xdata$x	ENDS
;	COMDAT ??0logic_error@std@@QAE@ABV01@@Z
_TEXT	SEGMENT
_this$ = -16						; size = 4
__$EHRec$ = -12						; size = 12
___that$ = 8						; size = 4
??0logic_error@std@@QAE@ABV01@@Z PROC NEAR		; std::logic_error::logic_error, COMDAT
; _this$ = ecx
  00000	6a ff		 push	 -1
  00002	68 00 00 00 00	 push	 __ehhandler$??0logic_error@std@@QAE@ABV01@@Z
  00007	64 a1 00 00 00
	00		 mov	 eax, DWORD PTR fs:__except_list
  0000d	50		 push	 eax
  0000e	64 89 25 00 00
	00 00		 mov	 DWORD PTR fs:__except_list, esp
  00015	51		 push	 ecx
  00016	56		 push	 esi
  00017	57		 push	 edi
  00018	8b 7c 24 1c	 mov	 edi, DWORD PTR ___that$[esp+20]
  0001c	8b f1		 mov	 esi, ecx
  0001e	57		 push	 edi
  0001f	89 74 24 0c	 mov	 DWORD PTR _this$[esp+28], esi
  00023	e8 00 00 00 00	 call	 ??0exception@@QAE@ABV0@@Z ; exception::exception
  00028	33 c0		 xor	 eax, eax
  0002a	6a ff		 push	 -1
  0002c	8d 4e 0c	 lea	 ecx, DWORD PTR [esi+12]
  0002f	c7 06 00 00 00
	00		 mov	 DWORD PTR [esi], OFFSET FLAT:??_7logic_error@std@@6B@
  00035	50		 push	 eax
  00036	83 c7 0c	 add	 edi, 12			; 0000000cH
  00039	c7 41 18 0f 00
	00 00		 mov	 DWORD PTR [ecx+24], 15	; 0000000fH
  00040	89 41 14	 mov	 DWORD PTR [ecx+20], eax
  00043	57		 push	 edi
  00044	89 44 24 20	 mov	 DWORD PTR __$EHRec$[esp+44], eax
  00048	88 41 04	 mov	 BYTE PTR [ecx+4], al
  0004b	e8 00 00 00 00	 call	 ?assign@?$basic_string@DU?$char_traits@D@std@@V?$allocator@D@2@@std@@QAEAAV12@ABV12@II@Z ; std::basic_string<char,std::char_traits<char>,std::allocator<char> >::assign
  00050	8b 4c 24 0c	 mov	 ecx, DWORD PTR __$EHRec$[esp+24]
  00054	5f		 pop	 edi
  00055	8b c6		 mov	 eax, esi
  00057	5e		 pop	 esi
  00058	64 89 0d 00 00
	00 00		 mov	 DWORD PTR fs:__except_list, ecx
  0005f	83 c4 10	 add	 esp, 16			; 00000010H
  00062	c2 04 00	 ret	 4
_TEXT	ENDS
;	COMDAT text$x
text$x	SEGMENT
$L189412:
  00000	8b 4d f0	 mov	 ecx, DWORD PTR _this$[ebp]
  00003	e9 00 00 00 00	 jmp	 ??1exception@@UAE@XZ	; exception::~exception
__ehhandler$??0logic_error@std@@QAE@ABV01@@Z:
  00008	b8 00 00 00 00	 mov	 eax, OFFSET FLAT:$T189510
  0000d	e9 00 00 00 00	 jmp	 ___CxxFrameHandler
text$x	ENDS
??0logic_error@std@@QAE@ABV01@@Z ENDP			; std::logic_error::logic_error
; Function compile flags: /Ogty
;	COMDAT ??0length_error@std@@QAE@ABV01@@Z
_TEXT	SEGMENT
___that$ = 8						; size = 4
??0length_error@std@@QAE@ABV01@@Z PROC NEAR		; std::length_error::length_error, COMDAT
; _this$ = ecx
  00000	8b 44 24 04	 mov	 eax, DWORD PTR ___that$[esp-4]
  00004	56		 push	 esi
  00005	50		 push	 eax
  00006	8b f1		 mov	 esi, ecx
  00008	e8 00 00 00 00	 call	 ??0logic_error@std@@QAE@ABV01@@Z
  0000d	c7 06 00 00 00
	00		 mov	 DWORD PTR [esi], OFFSET FLAT:??_7length_error@std@@6B@
  00013	8b c6		 mov	 eax, esi
  00015	5e		 pop	 esi
  00016	c2 04 00	 ret	 4
??0length_error@std@@QAE@ABV01@@Z ENDP			; std::length_error::length_error
_TEXT	ENDS
PUBLIC	?_Insert@?$list@PAXV?$allocator@PAX@std@@@std@@QAEXViterator@12@ABQAX@Z ; std::list<void *,std::allocator<void *> >::_Insert
; Function compile flags: /Ogty
;	COMDAT ?_Insert@?$list@PAXV?$allocator@PAX@std@@@std@@QAEXViterator@12@ABQAX@Z
_TEXT	SEGMENT
__Where$ = 8						; size = 4
__Val$ = 12						; size = 4
?_Insert@?$list@PAXV?$allocator@PAX@std@@@std@@QAEXViterator@12@ABQAX@Z PROC NEAR ; std::list<void *,std::allocator<void *> >::_Insert, COMDAT
; _this$ = ecx

; 522  : 		_Nodeptr _Pnode = _Where._Mynode();
; 523  : 		_Nodeptr _Newnode = _Buynode(_Pnode, _Prevnode(_Pnode), _Val);

  00000	8b 44 24 08	 mov	 eax, DWORD PTR __Val$[esp-4]
  00004	53		 push	 ebx
  00005	8b 5c 24 08	 mov	 ebx, DWORD PTR __Where$[esp]
  00009	56		 push	 esi
  0000a	57		 push	 edi
  0000b	8b f9		 mov	 edi, ecx
  0000d	8b 4b 04	 mov	 ecx, DWORD PTR [ebx+4]
  00010	50		 push	 eax
  00011	51		 push	 ecx
  00012	53		 push	 ebx
  00013	8b cf		 mov	 ecx, edi
  00015	e8 00 00 00 00	 call	 ?_Buynode@?$list@PAXV?$allocator@PAX@std@@@std@@IAEPAU_Node@?$_List_nod@PAXV?$allocator@PAX@std@@@2@PAU342@0ABQAX@Z ; std::list<void *,std::allocator<void *> >::_Buynode

; 524  : 		_Incsize(1);

  0001a	6a 01		 push	 1
  0001c	8b cf		 mov	 ecx, edi
  0001e	8b f0		 mov	 esi, eax
  00020	e8 00 00 00 00	 call	 ?_Incsize@?$list@PAXV?$allocator@PAX@std@@@std@@IAEXI@Z ; std::list<void *,std::allocator<void *> >::_Incsize

; 525  : 		_Prevnode(_Pnode) = _Newnode;

  00025	89 73 04	 mov	 DWORD PTR [ebx+4], esi

; 526  : 		_Nextnode(_Prevnode(_Newnode)) = _Newnode;

  00028	8b 56 04	 mov	 edx, DWORD PTR [esi+4]
  0002b	5f		 pop	 edi
  0002c	89 32		 mov	 DWORD PTR [edx], esi
  0002e	5e		 pop	 esi
  0002f	5b		 pop	 ebx

; 527  : 		}

  00030	c2 08 00	 ret	 8
?_Insert@?$list@PAXV?$allocator@PAX@std@@@std@@QAEXViterator@12@ABQAX@Z ENDP ; std::list<void *,std::allocator<void *> >::_Insert
_TEXT	ENDS
PUBLIC	?push_back@?$list@PAXV?$allocator@PAX@std@@@std@@QAEXABQAX@Z ; std::list<void *,std::allocator<void *> >::push_back
; Function compile flags: /Ogty
;	COMDAT ?push_back@?$list@PAXV?$allocator@PAX@std@@@std@@QAEXABQAX@Z
_TEXT	SEGMENT
__Val$ = 8						; size = 4
?push_back@?$list@PAXV?$allocator@PAX@std@@@std@@QAEXABQAX@Z PROC NEAR ; std::list<void *,std::allocator<void *> >::push_back, COMDAT
; _this$ = ecx

; 481  : 		_Insert(end(), _Val);

  00000	8b 44 24 04	 mov	 eax, DWORD PTR __Val$[esp-4]
  00004	53		 push	 ebx
  00005	56		 push	 esi
  00006	57		 push	 edi
  00007	8b f1		 mov	 esi, ecx
  00009	8b 7e 04	 mov	 edi, DWORD PTR [esi+4]
  0000c	8b 4f 04	 mov	 ecx, DWORD PTR [edi+4]
  0000f	50		 push	 eax
  00010	51		 push	 ecx
  00011	57		 push	 edi
  00012	8b ce		 mov	 ecx, esi
  00014	e8 00 00 00 00	 call	 ?_Buynode@?$list@PAXV?$allocator@PAX@std@@@std@@IAEPAU_Node@?$_List_nod@PAXV?$allocator@PAX@std@@@2@PAU342@0ABQAX@Z ; std::list<void *,std::allocator<void *> >::_Buynode
  00019	6a 01		 push	 1
  0001b	8b ce		 mov	 ecx, esi
  0001d	8b d8		 mov	 ebx, eax
  0001f	e8 00 00 00 00	 call	 ?_Incsize@?$list@PAXV?$allocator@PAX@std@@@std@@IAEXI@Z ; std::list<void *,std::allocator<void *> >::_Incsize
  00024	89 5f 04	 mov	 DWORD PTR [edi+4], ebx
  00027	8b 53 04	 mov	 edx, DWORD PTR [ebx+4]
  0002a	5f		 pop	 edi
  0002b	5e		 pop	 esi
  0002c	89 1a		 mov	 DWORD PTR [edx], ebx
  0002e	5b		 pop	 ebx

; 482  : 		}

  0002f	c2 04 00	 ret	 4
?push_back@?$list@PAXV?$allocator@PAX@std@@@std@@QAEXABQAX@Z ENDP ; std::list<void *,std::allocator<void *> >::push_back
_TEXT	ENDS
PUBLIC	?Create@?$MemPooler@VCClientSock@@@@IAEXXZ	; MemPooler<CClientSock>::Create
PUBLIC	??_C@_09PKKCPLIP@bad?5alloc?$AA@		; `string'
EXTRN	__imp__VirtualAlloc@16:NEAR
;	COMDAT ??_C@_09PKKCPLIP@bad?5alloc?$AA@
CONST	SEGMENT
??_C@_09PKKCPLIP@bad?5alloc?$AA@ DB 'bad alloc', 00H	; `string'
; Function compile flags: /Ogty
; File c:\documents and settings\test\mes documents\source\virtuos_v17\build\program\_network\misc\include\mempooler.h
CONST	ENDS
;	COMDAT ?Create@?$MemPooler@VCClientSock@@@@IAEXXZ
_TEXT	SEGMENT
_pMemBlock$ = -4					; size = 4
?Create@?$MemPooler@VCClientSock@@@@IAEXXZ PROC NEAR	; MemPooler<CClientSock>::Create, COMDAT
; _this$ = ecx

; 120  : 		{

  00000	51		 push	 ecx
  00001	56		 push	 esi
  00002	8b f1		 mov	 esi, ecx

; 121  : #ifdef __VERIFY_MEMPOOL
; 122  : 			return;
; 123  : #endif
; 124  : #ifdef __VM_0819
; 125  : 			Log( "Create" );
; 126  : #endif	// __VM_0819
; 127  : 			const int AllocationSize	= m_nListBlockSize * m_nNumOfBlock;

  00004	8b 46 10	 mov	 eax, DWORD PTR [esi+16]
  00007	0f af 46 14	 imul	 eax, DWORD PTR [esi+20]
  0000b	57		 push	 edi

; 128  : 			void* pMemBlock		= VirtualAlloc( NULL, AllocationSize, MEM_RESERVE | MEM_COMMIT, PAGE_READWRITE );

  0000c	6a 04		 push	 4
  0000e	68 00 30 00 00	 push	 12288			; 00003000H
  00013	50		 push	 eax
  00014	6a 00		 push	 0
  00016	ff 15 00 00 00
	00		 call	 DWORD PTR __imp__VirtualAlloc@16

; 129  : 			ASSERT( pMemBlock );
; 130  : 			if( !pMemBlock )

  0001c	85 c0		 test	 eax, eax
  0001e	89 44 24 08	 mov	 DWORD PTR _pMemBlock$[esp+12], eax
  00022	75 0d		 jne	 SHORT $L184625

; 131  : 				Error( "bad alloc" );

  00024	68 00 00 00 00	 push	 OFFSET FLAT:??_C@_09PKKCPLIP@bad?5alloc?$AA@
  00029	e8 00 00 00 00	 call	 ?Error@@YAPBDPBDZZ	; Error
  0002e	83 c4 04	 add	 esp, 4
$L184625:
  00031	53		 push	 ebx

; 132  : 			m_ListOfMemBlockPtr.push_back( pMemBlock );

  00032	8b 5e 08	 mov	 ebx, DWORD PTR [esi+8]
  00035	8b 4b 04	 mov	 ecx, DWORD PTR [ebx+4]
  00038	55		 push	 ebp
  00039	8d 7e 04	 lea	 edi, DWORD PTR [esi+4]
  0003c	8d 44 24 10	 lea	 eax, DWORD PTR _pMemBlock$[esp+20]
  00040	50		 push	 eax
  00041	51		 push	 ecx
  00042	53		 push	 ebx
  00043	8b cf		 mov	 ecx, edi
  00045	e8 00 00 00 00	 call	 ?_Buynode@?$list@PAXV?$allocator@PAX@std@@@std@@IAEPAU_Node@?$_List_nod@PAXV?$allocator@PAX@std@@@2@PAU342@0ABQAX@Z ; std::list<void *,std::allocator<void *> >::_Buynode
  0004a	6a 01		 push	 1
  0004c	8b cf		 mov	 ecx, edi
  0004e	8b e8		 mov	 ebp, eax
  00050	e8 00 00 00 00	 call	 ?_Incsize@?$list@PAXV?$allocator@PAX@std@@@std@@IAEXI@Z ; std::list<void *,std::allocator<void *> >::_Incsize

; 133  : 			BlockNode* pNode	= reinterpret_cast<BlockNode*>(pMemBlock);
; 134  : 			pNode	= reinterpret_cast<BlockNode*>( ( reinterpret_cast<DWORD>( pNode ) ) + ( m_nNumOfBlock - 1 ) * ( m_nListBlockSize ) );	// set pNode to last

  00055	8b 7c 24 10	 mov	 edi, DWORD PTR _pMemBlock$[esp+20]
  00059	89 6b 04	 mov	 DWORD PTR [ebx+4], ebp
  0005c	8b 55 04	 mov	 edx, DWORD PTR [ebp+4]
  0005f	89 2a		 mov	 DWORD PTR [edx], ebp
  00061	8b 46 10	 mov	 eax, DWORD PTR [esi+16]
  00064	8d 48 ff	 lea	 ecx, DWORD PTR [eax-1]
  00067	8b 46 14	 mov	 eax, DWORD PTR [esi+20]
  0006a	0f af c1	 imul	 eax, ecx
  0006d	03 c7		 add	 eax, edi

; 135  : 			for( int i = m_nNumOfBlock - 1; i >= 0; i-- )

  0006f	85 c9		 test	 ecx, ecx
  00071	5d		 pop	 ebp
  00072	5b		 pop	 ebx
  00073	7c 0f		 jl	 SHORT $L184633

; 132  : 			m_ListOfMemBlockPtr.push_back( pMemBlock );

  00075	41		 inc	 ecx
$L184631:

; 136  : 			{
; 137  : 				pNode->pNext	= m_pFreeList;

  00076	8b 16		 mov	 edx, DWORD PTR [esi]
  00078	89 10		 mov	 DWORD PTR [eax], edx

; 138  : 				m_pFreeList	= pNode;
; 139  : 				pNode	= reinterpret_cast<BlockNode*>( ( reinterpret_cast<DWORD>( pNode ) ) - m_nListBlockSize );	// set pNode to previous

  0007a	8b 7e 14	 mov	 edi, DWORD PTR [esi+20]
  0007d	89 06		 mov	 DWORD PTR [esi], eax
  0007f	2b c7		 sub	 eax, edi
  00081	49		 dec	 ecx
  00082	75 f2		 jne	 SHORT $L184631
$L184633:
  00084	5f		 pop	 edi
  00085	5e		 pop	 esi

; 140  : 			}
; 141  : 		}

  00086	59		 pop	 ecx
  00087	c3		 ret	 0
?Create@?$MemPooler@VCClientSock@@@@IAEXXZ ENDP		; MemPooler<CClientSock>::Create
_TEXT	ENDS
PUBLIC	??0?$MemPooler@VCClientSock@@@@QAE@H@Z		; MemPooler<CClientSock>::MemPooler<CClientSock>
EXTRN	__imp__InitializeCriticalSectionAndSpinCount@8:NEAR
;	COMDAT xdata$x
; File c:\program files\microsoft visual studio .net 2003\vc7\include\xmemory
xdata$x	SEGMENT
$T189759 DD	0ffffffffH
	DD	FLAT:$L189667
$T189757 DD	019930520H
	DD	01H
	DD	FLAT:$T189759
	DD	2 DUP(00H)
	DD	2 DUP(00H)
; Function compile flags: /Ogty
; File c:\documents and settings\test\mes documents\source\virtuos_v17\build\program\_network\misc\include\mempooler.h
xdata$x	ENDS
;	COMDAT ??0?$MemPooler@VCClientSock@@@@QAE@H@Z
_TEXT	SEGMENT
_this$ = -16						; size = 4
__$EHRec$ = -12						; size = 12
_nNumOfBlock$ = 8					; size = 4
??0?$MemPooler@VCClientSock@@@@QAE@H@Z PROC NEAR	; MemPooler<CClientSock>::MemPooler<CClientSock>, COMDAT
; _this$ = ecx

; 39   : 		{

  00000	6a ff		 push	 -1
  00002	68 00 00 00 00	 push	 __ehhandler$??0?$MemPooler@VCClientSock@@@@QAE@H@Z
  00007	64 a1 00 00 00
	00		 mov	 eax, DWORD PTR fs:__except_list
  0000d	50		 push	 eax
  0000e	64 89 25 00 00
	00 00		 mov	 DWORD PTR fs:__except_list, esp
  00015	51		 push	 ecx
  00016	56		 push	 esi
  00017	8b f1		 mov	 esi, ecx
  00019	57		 push	 edi
  0001a	8d 7e 04	 lea	 edi, DWORD PTR [esi+4]
  0001d	8b cf		 mov	 ecx, edi
  0001f	89 74 24 08	 mov	 DWORD PTR _this$[esp+24], esi
  00023	c7 06 00 00 00
	00		 mov	 DWORD PTR [esi], 0
  00029	e8 00 00 00 00	 call	 ?_Buynode@?$list@PAXV?$allocator@PAX@std@@@std@@IAEPAU_Node@?$_List_nod@PAXV?$allocator@PAX@std@@@2@XZ ; std::list<void *,std::allocator<void *> >::_Buynode
  0002e	89 47 04	 mov	 DWORD PTR [edi+4], eax
  00031	c7 47 08 00 00
	00 00		 mov	 DWORD PTR [edi+8], 0
  00038	8b 44 24 1c	 mov	 eax, DWORD PTR _nNumOfBlock$[esp+20]

; 40   : #ifdef __VERIFY_MEMPOOL
; 41   : 			return;
; 42   : #endif
; 43   : #ifdef __VM_0819
; 44   : 			strcpy( m_szClass, szClass );
; 45   : #endif	// __VM_0819
; 46   : 			assert( nNumOfBlock > 0 );
; 47   : 			m_nListBlockSize	= sizeof(BlockNode) + sizeof(T);
; 48   : 			InitializeCriticalSectionAndSpinCount( &m_cs, 2000 );

  0003c	68 d0 07 00 00	 push	 2000			; 000007d0H
  00041	8d 4e 1c	 lea	 ecx, DWORD PTR [esi+28]
  00044	51		 push	 ecx
  00045	c7 44 24 1c 00
	00 00 00	 mov	 DWORD PTR __$EHRec$[esp+40], 0
  0004d	89 46 10	 mov	 DWORD PTR [esi+16], eax
  00050	c7 46 18 00 00
	00 00		 mov	 DWORD PTR [esi+24], 0
  00057	c7 46 14 98 04
	00 00		 mov	 DWORD PTR [esi+20], 1176 ; 00000498H
  0005e	ff 15 00 00 00
	00		 call	 DWORD PTR __imp__InitializeCriticalSectionAndSpinCount@8

; 49   : 			Create();

  00064	8b ce		 mov	 ecx, esi
  00066	e8 00 00 00 00	 call	 ?Create@?$MemPooler@VCClientSock@@@@IAEXXZ ; MemPooler<CClientSock>::Create

; 50   : 		}

  0006b	8b 4c 24 0c	 mov	 ecx, DWORD PTR __$EHRec$[esp+24]
  0006f	5f		 pop	 edi
  00070	8b c6		 mov	 eax, esi
  00072	5e		 pop	 esi
  00073	64 89 0d 00 00
	00 00		 mov	 DWORD PTR fs:__except_list, ecx
  0007a	83 c4 10	 add	 esp, 16			; 00000010H
  0007d	c2 04 00	 ret	 4
_TEXT	ENDS
;	COMDAT text$x
text$x	SEGMENT
$L189667:
  00000	8b 4d f0	 mov	 ecx, DWORD PTR _this$[ebp]
  00003	83 c1 04	 add	 ecx, 4
  00006	e9 00 00 00 00	 jmp	 ??1?$list@PAXV?$allocator@PAX@std@@@std@@QAE@XZ ; std::list<void *,std::allocator<void *> >::~list<void *,std::allocator<void *> >
__ehhandler$??0?$MemPooler@VCClientSock@@@@QAE@H@Z:
  0000b	b8 00 00 00 00	 mov	 eax, OFFSET FLAT:$T189757
  00010	e9 00 00 00 00	 jmp	 ___CxxFrameHandler
text$x	ENDS
??0?$MemPooler@VCClientSock@@@@QAE@H@Z ENDP		; MemPooler<CClientSock>::MemPooler<CClientSock>
CRT$XCU	SEGMENT
_$S2	DD	FLAT:_$E1
CRT$XCU	ENDS
;	COMDAT xdata$x
; File c:\documents and settings\test\mes documents\source\virtuos_v17\build\program\_network\net\src\clientsock.cpp
xdata$x	SEGMENT
$T189773 DD	0ffffffffH
	DD	FLAT:$L189768
$T189770 DD	019930520H
	DD	01H
	DD	FLAT:$T189773
	DD	2 DUP(00H)
	DD	2 DUP(00H)
; Function compile flags: /Ogty
xdata$x	ENDS
;	COMDAT _$E1
text$yc	SEGMENT
$T189765 = -16						; size = 4
__$EHRec$ = -12						; size = 12
_$E1	PROC NEAR					; COMDAT

; 32   : 	MemPooler<CClientSock>*	CClientSock::m_pPool	= new MemPooler<CClientSock>( 4 );

  00000	6a ff		 push	 -1
  00002	68 00 00 00 00	 push	 __ehhandler$_$E1
  00007	64 a1 00 00 00
	00		 mov	 eax, DWORD PTR fs:__except_list
  0000d	50		 push	 eax
  0000e	64 89 25 00 00
	00 00		 mov	 DWORD PTR fs:__except_list, esp
  00015	51		 push	 ecx
  00016	68 98 00 00 00	 push	 152			; 00000098H
  0001b	e8 00 00 00 00	 call	 ??2@YAPAXI@Z		; operator new
  00020	83 c4 04	 add	 esp, 4
  00023	89 04 24	 mov	 DWORD PTR $T189765[esp+16], eax
  00026	85 c0		 test	 eax, eax
  00028	c7 44 24 0c 00
	00 00 00	 mov	 DWORD PTR __$EHRec$[esp+24], 0
  00030	74 1d		 je	 SHORT $L189766
  00032	6a 04		 push	 4
  00034	8b c8		 mov	 ecx, eax
  00036	e8 00 00 00 00	 call	 ??0?$MemPooler@VCClientSock@@@@QAE@H@Z ; MemPooler<CClientSock>::MemPooler<CClientSock>
  0003b	a3 00 00 00 00	 mov	 DWORD PTR ?m_pPool@CClientSock@@2PAV?$MemPooler@VCClientSock@@@@A, eax ; CClientSock::m_pPool
  00040	8b 4c 24 04	 mov	 ecx, DWORD PTR __$EHRec$[esp+16]
  00044	64 89 0d 00 00
	00 00		 mov	 DWORD PTR fs:__except_list, ecx
  0004b	83 c4 10	 add	 esp, 16			; 00000010H
  0004e	c3		 ret	 0
$L189766:
  0004f	8b 4c 24 04	 mov	 ecx, DWORD PTR __$EHRec$[esp+16]
  00053	33 c0		 xor	 eax, eax
  00055	a3 00 00 00 00	 mov	 DWORD PTR ?m_pPool@CClientSock@@2PAV?$MemPooler@VCClientSock@@@@A, eax ; CClientSock::m_pPool
  0005a	64 89 0d 00 00
	00 00		 mov	 DWORD PTR fs:__except_list, ecx
  00061	83 c4 10	 add	 esp, 16			; 00000010H
  00064	c3		 ret	 0
text$yc	ENDS
;	COMDAT text$x
text$x	SEGMENT
$L189768:
  00000	8b 45 f0	 mov	 eax, DWORD PTR $T189765[ebp]
  00003	50		 push	 eax
  00004	e8 00 00 00 00	 call	 ??3@YAXPAX@Z		; operator delete
  00009	59		 pop	 ecx
  0000a	c3		 ret	 0
__ehhandler$_$E1:
  0000b	b8 00 00 00 00	 mov	 eax, OFFSET FLAT:$T189770
  00010	e9 00 00 00 00	 jmp	 ___CxxFrameHandler
text$x	ENDS
_$E1	ENDP
PUBLIC	?m_pPool@CClientSock@@2PAV?$MemPooler@VCClientSock@@@@A ; CClientSock::m_pPool
_BSS	SEGMENT
?m_pPool@CClientSock@@2PAV?$MemPooler@VCClientSock@@@@A DD 01H DUP (?) ; CClientSock::m_pPool
_BSS	ENDS
END
