; Listing generated by Microsoft (R) Optimizing Compiler Version 13.10.6030 

	TITLE	\Documents and Settings\test\Mes documents\Source\Virtuos_v17\Build\Program\_Common\couple.cpp
	.386P
include listing.inc
if @Version gt 510
.model FLAT
else
_TEXT	SEGMENT PARA USE32 PUBLIC 'CODE'
_TEXT	ENDS
_DATA	SEGMENT DWORD USE32 PUBLIC 'DATA'
_DATA	ENDS
CONST	SEGMENT DWORD USE32 PUBLIC 'CONST'
CONST	ENDS
_BSS	SEGMENT DWORD USE32 PUBLIC 'BSS'
_BSS	ENDS
$$SYMBOLS	SEGMENT BYTE USE32 'DEBSYM'
$$SYMBOLS	ENDS
_TLS	SEGMENT DWORD USE32 PUBLIC 'TLS'
_TLS	ENDS
;	COMDAT ??_C@_0L@ELKPLJAH@couple?4inc?$AA@
CONST	SEGMENT DWORD USE32 PUBLIC 'CONST'
CONST	ENDS
;	COMDAT ??_C@_05KOHFLOFG@Level?$AA@
CONST	SEGMENT DWORD USE32 PUBLIC 'CONST'
CONST	ENDS
;	COMDAT ??_C@_04BGCMBJDA@Item?$AA@
CONST	SEGMENT DWORD USE32 PUBLIC 'CONST'
CONST	ENDS
;	COMDAT ??_C@_09EGDBHOMD@SkillKind?$AA@
CONST	SEGMENT DWORD USE32 PUBLIC 'CONST'
CONST	ENDS
;	COMDAT ??_C@_0L@IHPJEOCB@SkillLevel?$AA@
CONST	SEGMENT DWORD USE32 PUBLIC 'CONST'
CONST	ENDS
text$yd	SEGMENT PARA USE32 PUBLIC 'CODE'
text$yd	ENDS
xdata$x	SEGMENT DWORD USE32 PUBLIC 'CONST'
xdata$x	ENDS
;	COMDAT ??1ITestCase@@UAE@XZ
_TEXT	SEGMENT PARA USE32 PUBLIC 'CODE'
_TEXT	ENDS
;	COMDAT ??_GITestCase@@UAEPAXI@Z
_TEXT	SEGMENT PARA USE32 PUBLIC 'CODE'
_TEXT	ENDS
;	COMDAT ??_GCTestCaseMgr@@UAEPAXI@Z
_TEXT	SEGMENT PARA USE32 PUBLIC 'CODE'
_TEXT	ENDS
;	COMDAT ??1CCoupleTestCase@@UAE@XZ
_TEXT	SEGMENT PARA USE32 PUBLIC 'CODE'
_TEXT	ENDS
;	COMDAT ??_GCCoupleTestCase@@UAEPAXI@Z
_TEXT	SEGMENT PARA USE32 PUBLIC 'CODE'
_TEXT	ENDS
;	COMDAT ??1CCouple@@UAE@XZ
_TEXT	SEGMENT PARA USE32 PUBLIC 'CODE'
_TEXT	ENDS
;	COMDAT ?GetExperience@CCouple@@QAEHXZ
_TEXT	SEGMENT PARA USE32 PUBLIC 'CODE'
_TEXT	ENDS
;	COMDAT ?HasPlayer@CCouple@@QAEHK@Z
_TEXT	SEGMENT PARA USE32 PUBLIC 'CODE'
_TEXT	ENDS
;	COMDAT ?GetFirst@CCouple@@QAEKXZ
_TEXT	SEGMENT PARA USE32 PUBLIC 'CODE'
_TEXT	ENDS
;	COMDAT ?GetSecond@CCouple@@QAEKXZ
_TEXT	SEGMENT PARA USE32 PUBLIC 'CODE'
_TEXT	ENDS
;	COMDAT ??_GCCouple@@UAEPAXI@Z
_TEXT	SEGMENT PARA USE32 PUBLIC 'CODE'
_TEXT	ENDS
;	COMDAT ??0_COUPLE_ITEM@@QAE@HHHHH@Z
_TEXT	SEGMENT PARA USE32 PUBLIC 'CODE'
_TEXT	ENDS
;	COMDAT ?Test@CCoupleTestCase@@UAEHXZ
_TEXT	SEGMENT PARA USE32 PUBLIC 'CODE'
_TEXT	ENDS
;	COMDAT ??0CCouple@@QAE@XZ
_TEXT	SEGMENT PARA USE32 PUBLIC 'CODE'
_TEXT	ENDS
;	COMDAT ??0CCouple@@QAE@KK@Z
_TEXT	SEGMENT PARA USE32 PUBLIC 'CODE'
_TEXT	ENDS
;	COMDAT ?AddExperience@CCouple@@QAEHH@Z
_TEXT	SEGMENT PARA USE32 PUBLIC 'CODE'
_TEXT	ENDS
;	COMDAT ?GetPartner@CCouple@@QAEKK@Z
_TEXT	SEGMENT PARA USE32 PUBLIC 'CODE'
_TEXT	ENDS
;	COMDAT ?OnTimer@CCouple@@QAEXXZ
_TEXT	SEGMENT PARA USE32 PUBLIC 'CODE'
_TEXT	ENDS
;	COMDAT ?Serialize@CCouple@@QAEXAAVCAr@@@Z
_TEXT	SEGMENT PARA USE32 PUBLIC 'CODE'
_TEXT	ENDS
;	COMDAT ?GetLevel@CCouple@@QAEHH@Z
_TEXT	SEGMENT PARA USE32 PUBLIC 'CODE'
_TEXT	ENDS
;	COMDAT ??0CCoupleMgr@@QAE@XZ
_TEXT	SEGMENT PARA USE32 PUBLIC 'CODE'
_TEXT	ENDS
;	COMDAT ??_GCCoupleMgr@@UAEPAXI@Z
_TEXT	SEGMENT PARA USE32 PUBLIC 'CODE'
_TEXT	ENDS
;	COMDAT ??1?$map@KPAVCCouple@@U?$less@K@std@@V?$allocator@U?$pair@$$CBKPAVCCouple@@@std@@@3@@std@@QAE@XZ
_TEXT	SEGMENT PARA USE32 PUBLIC 'CODE'
_TEXT	ENDS
;	COMDAT ??1CCoupleMgr@@UAE@XZ
_TEXT	SEGMENT PARA USE32 PUBLIC 'CODE'
_TEXT	ENDS
;	COMDAT ?Clear@CCoupleMgr@@AAEXXZ
_TEXT	SEGMENT PARA USE32 PUBLIC 'CODE'
_TEXT	ENDS
;	COMDAT ?GetCouple@CCoupleMgr@@QAEPAVCCouple@@K@Z
_TEXT	SEGMENT PARA USE32 PUBLIC 'CODE'
_TEXT	ENDS
;	COMDAT ?Couple@CCoupleMgr@@QAEXKK@Z
_TEXT	SEGMENT PARA USE32 PUBLIC 'CODE'
_TEXT	ENDS
;	COMDAT ?Decouple@CCoupleMgr@@QAEHK@Z
_TEXT	SEGMENT PARA USE32 PUBLIC 'CODE'
_TEXT	ENDS
;	COMDAT ?OnTimer@CCoupleMgr@@QAEXXZ
_TEXT	SEGMENT PARA USE32 PUBLIC 'CODE'
_TEXT	ENDS
;	COMDAT ?Serialize@CCoupleMgr@@QAEXAAVCAr@@@Z
_TEXT	SEGMENT PARA USE32 PUBLIC 'CODE'
_TEXT	ENDS
;	COMDAT ?Couple@CCoupleMgr@@QAEXPAVCCouple@@@Z
_TEXT	SEGMENT PARA USE32 PUBLIC 'CODE'
_TEXT	ENDS
;	COMDAT ??0CCoupleProperty@@QAE@XZ
_TEXT	SEGMENT PARA USE32 PUBLIC 'CODE'
_TEXT	ENDS
;	COMDAT ??_GCCoupleProperty@@UAEPAXI@Z
_TEXT	SEGMENT PARA USE32 PUBLIC 'CODE'
_TEXT	ENDS
;	COMDAT ??1CCoupleProperty@@UAE@XZ
_TEXT	SEGMENT PARA USE32 PUBLIC 'CODE'
_TEXT	ENDS
;	COMDAT ?Initialize@CCoupleProperty@@QAEHXZ
_TEXT	SEGMENT PARA USE32 PUBLIC 'CODE'
_TEXT	ENDS
;	COMDAT ?LoadLevel@CCoupleProperty@@AAEXAAVCScript@@@Z
_TEXT	SEGMENT PARA USE32 PUBLIC 'CODE'
_TEXT	ENDS
;	COMDAT ?LoadItem@CCoupleProperty@@AAEXAAVCScript@@@Z
_TEXT	SEGMENT PARA USE32 PUBLIC 'CODE'
_TEXT	ENDS
;	COMDAT ?GetItems@CCoupleProperty@@QAEAAV?$vector@U_COUPLE_ITEM@@V?$allocator@U_COUPLE_ITEM@@@std@@@std@@H@Z
_TEXT	SEGMENT PARA USE32 PUBLIC 'CODE'
_TEXT	ENDS
;	COMDAT ?AddItem@CCoupleProperty@@AAEXHABU_COUPLE_ITEM@@@Z
_TEXT	SEGMENT PARA USE32 PUBLIC 'CODE'
_TEXT	ENDS
;	COMDAT ?LoadSkillKind@CCoupleProperty@@AAEXAAVCScript@@@Z
_TEXT	SEGMENT PARA USE32 PUBLIC 'CODE'
_TEXT	ENDS
;	COMDAT ?LoadSkillLevel@CCoupleProperty@@AAEXAAVCScript@@@Z
_TEXT	SEGMENT PARA USE32 PUBLIC 'CODE'
_TEXT	ENDS
;	COMDAT ?GetLevel@CCoupleProperty@@QAEHH@Z
_TEXT	SEGMENT PARA USE32 PUBLIC 'CODE'
_TEXT	ENDS
;	COMDAT ?GetSkill@CCoupleProperty@@QAEAAV?$vector@HV?$allocator@H@std@@@std@@H@Z
_TEXT	SEGMENT PARA USE32 PUBLIC 'CODE'
_TEXT	ENDS
;	COMDAT ?Instance@CCoupleProperty@@SAPAV1@XZ
_TEXT	SEGMENT PARA USE32 PUBLIC 'CODE'
_TEXT	ENDS
;	COMDAT _$E2
text$yd	SEGMENT PARA USE32 PUBLIC 'CODE'
text$yd	ENDS
;	COMDAT ?GetTotalExperience@CCoupleProperty@@QAEHH@Z
_TEXT	SEGMENT PARA USE32 PUBLIC 'CODE'
_TEXT	ENDS
;	COMDAT ?GetExperienceRequired@CCoupleProperty@@QAEHH@Z
_TEXT	SEGMENT PARA USE32 PUBLIC 'CODE'
_TEXT	ENDS
;	COMDAT ?GetExperienceRate@CCoupleProperty@@QAEMHH@Z
_TEXT	SEGMENT PARA USE32 PUBLIC 'CODE'
_TEXT	ENDS
;	COMDAT ??8ATL@@YA_NABV?$CStringT@DV?$StrTraitMFC@DV?$ChTraitsCRT@D@ATL@@@@@0@PBD@Z
_TEXT	SEGMENT PARA USE32 PUBLIC 'CODE'
_TEXT	ENDS
;	COMDAT ?compare@?$basic_string@DU?$char_traits@D@std@@V?$allocator@D@2@@std@@QBEHABV12@@Z
_TEXT	SEGMENT PARA USE32 PUBLIC 'CODE'
_TEXT	ENDS
;	COMDAT ??0?$vector@PAVITestCase@@V?$allocator@PAVITestCase@@@std@@@std@@QAE@XZ
_TEXT	SEGMENT PARA USE32 PUBLIC 'CODE'
_TEXT	ENDS
;	COMDAT ??1?$vector@PAVITestCase@@V?$allocator@PAVITestCase@@@std@@@std@@QAE@XZ
_TEXT	SEGMENT PARA USE32 PUBLIC 'CODE'
_TEXT	ENDS
;	COMDAT ??0?$vector@HV?$allocator@H@std@@@std@@QAE@XZ
_TEXT	SEGMENT PARA USE32 PUBLIC 'CODE'
_TEXT	ENDS
;	COMDAT ??1?$vector@HV?$allocator@H@std@@@std@@QAE@XZ
_TEXT	SEGMENT PARA USE32 PUBLIC 'CODE'
_TEXT	ENDS
;	COMDAT ?begin@?$vector@HV?$allocator@H@std@@@std@@QAE?AViterator@12@XZ
_TEXT	SEGMENT PARA USE32 PUBLIC 'CODE'
_TEXT	ENDS
;	COMDAT ?end@?$vector@HV?$allocator@H@std@@@std@@QAE?AViterator@12@XZ
_TEXT	SEGMENT PARA USE32 PUBLIC 'CODE'
_TEXT	ENDS
;	COMDAT ?size@?$vector@HV?$allocator@H@std@@@std@@QBEIXZ
_TEXT	SEGMENT PARA USE32 PUBLIC 'CODE'
_TEXT	ENDS
;	COMDAT ?empty@?$vector@HV?$allocator@H@std@@@std@@QBE_NXZ
_TEXT	SEGMENT PARA USE32 PUBLIC 'CODE'
_TEXT	ENDS
;	COMDAT ??A?$vector@HV?$allocator@H@std@@@std@@QAEAAHI@Z
_TEXT	SEGMENT PARA USE32 PUBLIC 'CODE'
_TEXT	ENDS
;	COMDAT ?push_back@?$vector@HV?$allocator@H@std@@@std@@QAEXABH@Z
_TEXT	SEGMENT PARA USE32 PUBLIC 'CODE'
_TEXT	ENDS
;	COMDAT ?clear@?$vector@HV?$allocator@H@std@@@std@@QAEXXZ
_TEXT	SEGMENT PARA USE32 PUBLIC 'CODE'
_TEXT	ENDS
;	COMDAT ??0?$vector@V?$vector@U_COUPLE_ITEM@@V?$allocator@U_COUPLE_ITEM@@@std@@@std@@V?$allocator@V?$vector@U_COUPLE_ITEM@@V?$allocator@U_COUPLE_ITEM@@@std@@@std@@@2@@std@@QAE@XZ
_TEXT	SEGMENT PARA USE32 PUBLIC 'CODE'
_TEXT	ENDS
;	COMDAT ??1?$vector@V?$vector@U_COUPLE_ITEM@@V?$allocator@U_COUPLE_ITEM@@@std@@@std@@V?$allocator@V?$vector@U_COUPLE_ITEM@@V?$allocator@U_COUPLE_ITEM@@@std@@@std@@@2@@std@@QAE@XZ
_TEXT	SEGMENT PARA USE32 PUBLIC 'CODE'
_TEXT	ENDS
;	COMDAT ?resize@?$vector@V?$vector@U_COUPLE_ITEM@@V?$allocator@U_COUPLE_ITEM@@@std@@@std@@V?$allocator@V?$vector@U_COUPLE_ITEM@@V?$allocator@U_COUPLE_ITEM@@@std@@@std@@@2@@std@@QAEXI@Z
_TEXT	SEGMENT PARA USE32 PUBLIC 'CODE'
_TEXT	ENDS
;	COMDAT ??A?$vector@V?$vector@U_COUPLE_ITEM@@V?$allocator@U_COUPLE_ITEM@@@std@@@std@@V?$allocator@V?$vector@U_COUPLE_ITEM@@V?$allocator@U_COUPLE_ITEM@@@std@@@std@@@2@@std@@QAEAAV?$vector@U_COUPLE_ITEM@@V?$allocator@U_COUPLE_ITEM@@@std@@@1@I@Z
_TEXT	SEGMENT PARA USE32 PUBLIC 'CODE'
_TEXT	ENDS
;	COMDAT ?clear@?$vector@V?$vector@U_COUPLE_ITEM@@V?$allocator@U_COUPLE_ITEM@@@std@@@std@@V?$allocator@V?$vector@U_COUPLE_ITEM@@V?$allocator@U_COUPLE_ITEM@@@std@@@std@@@2@@std@@QAEXXZ
_TEXT	SEGMENT PARA USE32 PUBLIC 'CODE'
_TEXT	ENDS
;	COMDAT ??0?$vector@V?$vector@HV?$allocator@H@std@@@std@@V?$allocator@V?$vector@HV?$allocator@H@std@@@std@@@2@@std@@QAE@XZ
_TEXT	SEGMENT PARA USE32 PUBLIC 'CODE'
_TEXT	ENDS
;	COMDAT ??1?$vector@V?$vector@HV?$allocator@H@std@@@std@@V?$allocator@V?$vector@HV?$allocator@H@std@@@std@@@2@@std@@QAE@XZ
_TEXT	SEGMENT PARA USE32 PUBLIC 'CODE'
_TEXT	ENDS
;	COMDAT ?resize@?$vector@V?$vector@HV?$allocator@H@std@@@std@@V?$allocator@V?$vector@HV?$allocator@H@std@@@std@@@2@@std@@QAEXI@Z
_TEXT	SEGMENT PARA USE32 PUBLIC 'CODE'
_TEXT	ENDS
;	COMDAT ?size@?$vector@V?$vector@HV?$allocator@H@std@@@std@@V?$allocator@V?$vector@HV?$allocator@H@std@@@std@@@2@@std@@QBEIXZ
_TEXT	SEGMENT PARA USE32 PUBLIC 'CODE'
_TEXT	ENDS
;	COMDAT ??A?$vector@V?$vector@HV?$allocator@H@std@@@std@@V?$allocator@V?$vector@HV?$allocator@H@std@@@std@@@2@@std@@QAEAAV?$vector@HV?$allocator@H@std@@@1@I@Z
_TEXT	SEGMENT PARA USE32 PUBLIC 'CODE'
_TEXT	ENDS
;	COMDAT ?clear@?$vector@V?$vector@HV?$allocator@H@std@@@std@@V?$allocator@V?$vector@HV?$allocator@H@std@@@std@@@2@@std@@QAEXXZ
_TEXT	SEGMENT PARA USE32 PUBLIC 'CODE'
_TEXT	ENDS
;	COMDAT ??0?$map@KPAVCCouple@@U?$less@K@std@@V?$allocator@U?$pair@$$CBKPAVCCouple@@@std@@@3@@std@@QAE@XZ
_TEXT	SEGMENT PARA USE32 PUBLIC 'CODE'
_TEXT	ENDS
;	COMDAT ??1?$_Tree@V?$_Tmap_traits@KPAVCCouple@@U?$less@K@std@@V?$allocator@U?$pair@$$CBKPAVCCouple@@@std@@@3@$0A@@std@@@std@@QAE@XZ
_TEXT	SEGMENT PARA USE32 PUBLIC 'CODE'
_TEXT	ENDS
;	COMDAT ?end@?$_Tree@V?$_Tmap_traits@KPAVCCouple@@U?$less@K@std@@V?$allocator@U?$pair@$$CBKPAVCCouple@@@std@@@3@$0A@@std@@@std@@QAE?AViterator@12@XZ
_TEXT	SEGMENT PARA USE32 PUBLIC 'CODE'
_TEXT	ENDS
;	COMDAT ?insert@?$_Tree@V?$_Tmap_traits@KPAVCCouple@@U?$less@K@std@@V?$allocator@U?$pair@$$CBKPAVCCouple@@@std@@@3@$0A@@std@@@std@@QAE?AU?$pair@Viterator@?$_Tree@V?$_Tmap_traits@KPAVCCouple@@U?$less@K@std@@V?$allocator@U?$pair@$$CBKPAVCCouple@@@std@@@3@$0A@@std@@@std@@_N@2@ABU?$pair@$$CBKPAVCCouple@@@2@@Z
_TEXT	SEGMENT PARA USE32 PUBLIC 'CODE'
_TEXT	ENDS
;	COMDAT ?erase@?$_Tree@V?$_Tmap_traits@KPAVCCouple@@U?$less@K@std@@V?$allocator@U?$pair@$$CBKPAVCCouple@@@std@@@3@$0A@@std@@@std@@QAEIABK@Z
_TEXT	SEGMENT PARA USE32 PUBLIC 'CODE'
_TEXT	ENDS
;	COMDAT ?clear@?$_Tree@V?$_Tmap_traits@KPAVCCouple@@U?$less@K@std@@V?$allocator@U?$pair@$$CBKPAVCCouple@@@std@@@3@$0A@@std@@@std@@QAEXXZ
_TEXT	SEGMENT PARA USE32 PUBLIC 'CODE'
_TEXT	ENDS
;	COMDAT ?find@?$_Tree@V?$_Tmap_traits@KPAVCCouple@@U?$less@K@std@@V?$allocator@U?$pair@$$CBKPAVCCouple@@@std@@@3@$0A@@std@@@std@@QAE?AViterator@12@ABK@Z
_TEXT	SEGMENT PARA USE32 PUBLIC 'CODE'
_TEXT	ENDS
;	COMDAT ??0?$vector@PAVCCouple@@V?$allocator@PAVCCouple@@@std@@@std@@QAE@XZ
_TEXT	SEGMENT PARA USE32 PUBLIC 'CODE'
_TEXT	ENDS
;	COMDAT ??1?$vector@PAVCCouple@@V?$allocator@PAVCCouple@@@std@@@std@@QAE@XZ
_TEXT	SEGMENT PARA USE32 PUBLIC 'CODE'
_TEXT	ENDS
;	COMDAT ?begin@?$vector@PAVCCouple@@V?$allocator@PAVCCouple@@@std@@@std@@QAE?AViterator@12@XZ
_TEXT	SEGMENT PARA USE32 PUBLIC 'CODE'
_TEXT	ENDS
;	COMDAT ?end@?$vector@PAVCCouple@@V?$allocator@PAVCCouple@@@std@@@std@@QAE?AViterator@12@XZ
_TEXT	SEGMENT PARA USE32 PUBLIC 'CODE'
_TEXT	ENDS
;	COMDAT ?size@?$vector@PAVCCouple@@V?$allocator@PAVCCouple@@@std@@@std@@QBEIXZ
_TEXT	SEGMENT PARA USE32 PUBLIC 'CODE'
_TEXT	ENDS
;	COMDAT ?push_back@?$vector@PAVCCouple@@V?$allocator@PAVCCouple@@@std@@@std@@QAEXABQAVCCouple@@@Z
_TEXT	SEGMENT PARA USE32 PUBLIC 'CODE'
_TEXT	ENDS
;	COMDAT ?erase@?$vector@PAVCCouple@@V?$allocator@PAVCCouple@@@std@@@std@@QAE?AViterator@12@V312@@Z
_TEXT	SEGMENT PARA USE32 PUBLIC 'CODE'
_TEXT	ENDS
;	COMDAT ?clear@?$vector@PAVCCouple@@V?$allocator@PAVCCouple@@@std@@@std@@QAEXXZ
_TEXT	SEGMENT PARA USE32 PUBLIC 'CODE'
_TEXT	ENDS
;	COMDAT ??Diterator@?$vector@PAVCCouple@@V?$allocator@PAVCCouple@@@std@@@std@@QBEAAPAVCCouple@@XZ
_TEXT	SEGMENT PARA USE32 PUBLIC 'CODE'
_TEXT	ENDS
;	COMDAT ??Eiterator@?$vector@PAVCCouple@@V?$allocator@PAVCCouple@@@std@@@std@@QAEAAV012@XZ
_TEXT	SEGMENT PARA USE32 PUBLIC 'CODE'
_TEXT	ENDS
;	COMDAT ??9const_iterator@?$vector@PAVCCouple@@V?$allocator@PAVCCouple@@@std@@@std@@QBE_NABV012@@Z
_TEXT	SEGMENT PARA USE32 PUBLIC 'CODE'
_TEXT	ENDS
;	COMDAT ??Citerator@?$_Tree@V?$_Tmap_traits@KPAVCCouple@@U?$less@K@std@@V?$allocator@U?$pair@$$CBKPAVCCouple@@@std@@@3@$0A@@std@@@std@@QBEPAU?$pair@$$CBKPAVCCouple@@@2@XZ
_TEXT	SEGMENT PARA USE32 PUBLIC 'CODE'
_TEXT	ENDS
;	COMDAT ??9const_iterator@?$_Tree@V?$_Tmap_traits@KPAVCCouple@@U?$less@K@std@@V?$allocator@U?$pair@$$CBKPAVCCouple@@@std@@@3@$0A@@std@@@std@@QBE_NABV012@@Z
_TEXT	SEGMENT PARA USE32 PUBLIC 'CODE'
_TEXT	ENDS
;	COMDAT ??0?$pair@$$CBKPAVCCouple@@@std@@QAE@ABKABQAVCCouple@@@Z
_TEXT	SEGMENT PARA USE32 PUBLIC 'CODE'
_TEXT	ENDS
;	COMDAT ?push_back@?$vector@U_COUPLE_ITEM@@V?$allocator@U_COUPLE_ITEM@@@std@@@std@@QAEXABU_COUPLE_ITEM@@@Z
_TEXT	SEGMENT PARA USE32 PUBLIC 'CODE'
_TEXT	ENDS
;	COMDAT ?Compare@?$CStringT@DV?$StrTraitMFC@DV?$ChTraitsCRT@D@ATL@@@@@ATL@@QBEHPBD@Z
_TEXT	SEGMENT PARA USE32 PUBLIC 'CODE'
_TEXT	ENDS
;	COMDAT ?compare@?$basic_string@DU?$char_traits@D@std@@V?$allocator@D@2@@std@@QBEHIIPBDI@Z
_TEXT	SEGMENT PARA USE32 PUBLIC 'CODE'
_TEXT	ENDS
;	COMDAT ??0?$allocator@H@std@@QAE@XZ
_TEXT	SEGMENT PARA USE32 PUBLIC 'CODE'
_TEXT	ENDS
;	COMDAT ?_Buy@?$vector@PAVITestCase@@V?$allocator@PAVITestCase@@@std@@@std@@IAE_NI@Z
_TEXT	SEGMENT PARA USE32 PUBLIC 'CODE'
_TEXT	ENDS
;	COMDAT ?_Tidy@?$vector@PAVITestCase@@V?$allocator@PAVITestCase@@@std@@@std@@IAEXXZ
_TEXT	SEGMENT PARA USE32 PUBLIC 'CODE'
_TEXT	ENDS
;	COMDAT ??0?$_Vector_val@PAVITestCase@@V?$allocator@PAVITestCase@@@std@@@std@@IAE@V?$allocator@PAVITestCase@@@1@@Z
_TEXT	SEGMENT PARA USE32 PUBLIC 'CODE'
_TEXT	ENDS
;	COMDAT ??0?$allocator@PAVITestCase@@@std@@QAE@XZ
_TEXT	SEGMENT PARA USE32 PUBLIC 'CODE'
_TEXT	ENDS
;	COMDAT ?capacity@?$vector@HV?$allocator@H@std@@@std@@QBEIXZ
_TEXT	SEGMENT PARA USE32 PUBLIC 'CODE'
_TEXT	ENDS
;	COMDAT ?insert@?$vector@HV?$allocator@H@std@@@std@@QAE?AViterator@12@V312@ABH@Z
_TEXT	SEGMENT PARA USE32 PUBLIC 'CODE'
_TEXT	ENDS
;	COMDAT ?_Buy@?$vector@HV?$allocator@H@std@@@std@@IAE_NI@Z
_TEXT	SEGMENT PARA USE32 PUBLIC 'CODE'
_TEXT	ENDS
;	COMDAT ?_Tidy@?$vector@HV?$allocator@H@std@@@std@@IAEXXZ
_TEXT	SEGMENT PARA USE32 PUBLIC 'CODE'
_TEXT	ENDS
;	COMDAT ?_Ufill@?$vector@HV?$allocator@H@std@@@std@@IAEPAHPAHIABH@Z
_TEXT	SEGMENT PARA USE32 PUBLIC 'CODE'
_TEXT	ENDS
;	COMDAT ??0?$_Vector_val@HV?$allocator@H@std@@@std@@IAE@V?$allocator@H@1@@Z
_TEXT	SEGMENT PARA USE32 PUBLIC 'CODE'
_TEXT	ENDS
;	COMDAT ?begin@?$vector@V?$vector@U_COUPLE_ITEM@@V?$allocator@U_COUPLE_ITEM@@@std@@@std@@V?$allocator@V?$vector@U_COUPLE_ITEM@@V?$allocator@U_COUPLE_ITEM@@@std@@@std@@@2@@std@@QAE?AViterator@12@XZ
_TEXT	SEGMENT PARA USE32 PUBLIC 'CODE'
_TEXT	ENDS
;	COMDAT ?resize@?$vector@V?$vector@U_COUPLE_ITEM@@V?$allocator@U_COUPLE_ITEM@@@std@@@std@@V?$allocator@V?$vector@U_COUPLE_ITEM@@V?$allocator@U_COUPLE_ITEM@@@std@@@std@@@2@@std@@QAEXIV?$vector@U_COUPLE_ITEM@@V?$allocator@U_COUPLE_ITEM@@@std@@@2@@Z
_TEXT	SEGMENT PARA USE32 PUBLIC 'CODE'
_TEXT	ENDS
;	COMDAT ?_Buy@?$vector@V?$vector@U_COUPLE_ITEM@@V?$allocator@U_COUPLE_ITEM@@@std@@@std@@V?$allocator@V?$vector@U_COUPLE_ITEM@@V?$allocator@U_COUPLE_ITEM@@@std@@@std@@@2@@std@@IAE_NI@Z
_TEXT	SEGMENT PARA USE32 PUBLIC 'CODE'
_TEXT	ENDS
;	COMDAT ?_Tidy@?$vector@V?$vector@U_COUPLE_ITEM@@V?$allocator@U_COUPLE_ITEM@@@std@@@std@@V?$allocator@V?$vector@U_COUPLE_ITEM@@V?$allocator@U_COUPLE_ITEM@@@std@@@std@@@2@@std@@IAEXXZ
_TEXT	SEGMENT PARA USE32 PUBLIC 'CODE'
_TEXT	ENDS
;	COMDAT ??0?$_Vector_val@V?$vector@U_COUPLE_ITEM@@V?$allocator@U_COUPLE_ITEM@@@std@@@std@@V?$allocator@V?$vector@U_COUPLE_ITEM@@V?$allocator@U_COUPLE_ITEM@@@std@@@std@@@2@@std@@IAE@V?$allocator@V?$vector@U_COUPLE_ITEM@@V?$allocator@U_COUPLE_ITEM@@@std@@@std@@@1@@Z
_TEXT	SEGMENT PARA USE32 PUBLIC 'CODE'
_TEXT	ENDS
;	COMDAT ??0?$allocator@V?$vector@U_COUPLE_ITEM@@V?$allocator@U_COUPLE_ITEM@@@std@@@std@@@std@@QAE@XZ
_TEXT	SEGMENT PARA USE32 PUBLIC 'CODE'
_TEXT	ENDS
;	COMDAT ?begin@?$vector@V?$vector@HV?$allocator@H@std@@@std@@V?$allocator@V?$vector@HV?$allocator@H@std@@@std@@@2@@std@@QAE?AViterator@12@XZ
_TEXT	SEGMENT PARA USE32 PUBLIC 'CODE'
_TEXT	ENDS
;	COMDAT ?resize@?$vector@V?$vector@HV?$allocator@H@std@@@std@@V?$allocator@V?$vector@HV?$allocator@H@std@@@std@@@2@@std@@QAEXIV?$vector@HV?$allocator@H@std@@@2@@Z
_TEXT	SEGMENT PARA USE32 PUBLIC 'CODE'
_TEXT	ENDS
;	COMDAT ?_Buy@?$vector@V?$vector@HV?$allocator@H@std@@@std@@V?$allocator@V?$vector@HV?$allocator@H@std@@@std@@@2@@std@@IAE_NI@Z
_TEXT	SEGMENT PARA USE32 PUBLIC 'CODE'
_TEXT	ENDS
;	COMDAT ?_Tidy@?$vector@V?$vector@HV?$allocator@H@std@@@std@@V?$allocator@V?$vector@HV?$allocator@H@std@@@std@@@2@@std@@IAEXXZ
_TEXT	SEGMENT PARA USE32 PUBLIC 'CODE'
_TEXT	ENDS
;	COMDAT ??0?$_Vector_val@V?$vector@HV?$allocator@H@std@@@std@@V?$allocator@V?$vector@HV?$allocator@H@std@@@std@@@2@@std@@IAE@V?$allocator@V?$vector@HV?$allocator@H@std@@@std@@@1@@Z
_TEXT	SEGMENT PARA USE32 PUBLIC 'CODE'
_TEXT	ENDS
;	COMDAT ??0?$allocator@V?$vector@HV?$allocator@H@std@@@std@@@std@@QAE@XZ
_TEXT	SEGMENT PARA USE32 PUBLIC 'CODE'
_TEXT	ENDS
;	COMDAT ?_Isnil@?$_Tree@V?$_Tmap_traits@KPAVCCouple@@U?$less@K@std@@V?$allocator@U?$pair@$$CBKPAVCCouple@@@std@@@3@$0A@@std@@@std@@KAAADPAU_Node@?$_Tree_nod@V?$_Tmap_traits@KPAVCCouple@@U?$less@K@std@@V?$allocator@U?$pair@$$CBKPAVCCouple@@@std@@@3@$0A@@std@@@2@@Z
_TEXT	SEGMENT PARA USE32 PUBLIC 'CODE'
_TEXT	ENDS
;	COMDAT ?_Key@?$_Tree@V?$_Tmap_traits@KPAVCCouple@@U?$less@K@std@@V?$allocator@U?$pair@$$CBKPAVCCouple@@@std@@@3@$0A@@std@@@std@@KAABKPAU_Node@?$_Tree_nod@V?$_Tmap_traits@KPAVCCouple@@U?$less@K@std@@V?$allocator@U?$pair@$$CBKPAVCCouple@@@std@@@3@$0A@@std@@@2@@Z
_TEXT	SEGMENT PARA USE32 PUBLIC 'CODE'
_TEXT	ENDS
;	COMDAT ?_Left@?$_Tree@V?$_Tmap_traits@KPAVCCouple@@U?$less@K@std@@V?$allocator@U?$pair@$$CBKPAVCCouple@@@std@@@3@$0A@@std@@@std@@KAAAPAU_Node@?$_Tree_nod@V?$_Tmap_traits@KPAVCCouple@@U?$less@K@std@@V?$allocator@U?$pair@$$CBKPAVCCouple@@@std@@@3@$0A@@std@@@2@PAU342@@Z
_TEXT	SEGMENT PARA USE32 PUBLIC 'CODE'
_TEXT	ENDS
;	COMDAT ?_Right@?$_Tree@V?$_Tmap_traits@KPAVCCouple@@U?$less@K@std@@V?$allocator@U?$pair@$$CBKPAVCCouple@@@std@@@3@$0A@@std@@@std@@KAAAPAU_Node@?$_Tree_nod@V?$_Tmap_traits@KPAVCCouple@@U?$less@K@std@@V?$allocator@U?$pair@$$CBKPAVCCouple@@@std@@@3@$0A@@std@@@2@PAU342@@Z
_TEXT	SEGMENT PARA USE32 PUBLIC 'CODE'
_TEXT	ENDS
;	COMDAT ??0?$_Tree@V?$_Tmap_traits@KPAVCCouple@@U?$less@K@std@@V?$allocator@U?$pair@$$CBKPAVCCouple@@@std@@@3@$0A@@std@@@std@@QAE@ABU?$less@K@1@ABV?$allocator@U?$pair@$$CBKPAVCCouple@@@std@@@1@@Z
_TEXT	SEGMENT PARA USE32 PUBLIC 'CODE'
_TEXT	ENDS
;	COMDAT ?begin@?$_Tree@V?$_Tmap_traits@KPAVCCouple@@U?$less@K@std@@V?$allocator@U?$pair@$$CBKPAVCCouple@@@std@@@3@$0A@@std@@@std@@QAE?AViterator@12@XZ
_TEXT	SEGMENT PARA USE32 PUBLIC 'CODE'
_TEXT	ENDS
;	COMDAT ?erase@?$_Tree@V?$_Tmap_traits@KPAVCCouple@@U?$less@K@std@@V?$allocator@U?$pair@$$CBKPAVCCouple@@@std@@@3@$0A@@std@@@std@@QAE?AViterator@12@V312@0@Z
_TEXT	SEGMENT PARA USE32 PUBLIC 'CODE'
_TEXT	ENDS
;	COMDAT ?lower_bound@?$_Tree@V?$_Tmap_traits@KPAVCCouple@@U?$less@K@std@@V?$allocator@U?$pair@$$CBKPAVCCouple@@@std@@@3@$0A@@std@@@std@@QAE?AViterator@12@ABK@Z
_TEXT	SEGMENT PARA USE32 PUBLIC 'CODE'
_TEXT	ENDS
;	COMDAT ?equal_range@?$_Tree@V?$_Tmap_traits@KPAVCCouple@@U?$less@K@std@@V?$allocator@U?$pair@$$CBKPAVCCouple@@@std@@@3@$0A@@std@@@std@@QAE?AU?$pair@Viterator@?$_Tree@V?$_Tmap_traits@KPAVCCouple@@U?$less@K@std@@V?$allocator@U?$pair@$$CBKPAVCCouple@@@std@@@3@$0A@@std@@@std@@V123@@2@ABK@Z
_TEXT	SEGMENT PARA USE32 PUBLIC 'CODE'
_TEXT	ENDS
;	COMDAT ?_Erase@?$_Tree@V?$_Tmap_traits@KPAVCCouple@@U?$less@K@std@@V?$allocator@U?$pair@$$CBKPAVCCouple@@@std@@@3@$0A@@std@@@std@@IAEXPAU_Node@?$_Tree_nod@V?$_Tmap_traits@KPAVCCouple@@U?$less@K@std@@V?$allocator@U?$pair@$$CBKPAVCCouple@@@std@@@3@$0A@@std@@@2@@Z
_TEXT	SEGMENT PARA USE32 PUBLIC 'CODE'
_TEXT	ENDS
;	COMDAT ?_Insert@?$_Tree@V?$_Tmap_traits@KPAVCCouple@@U?$less@K@std@@V?$allocator@U?$pair@$$CBKPAVCCouple@@@std@@@3@$0A@@std@@@std@@IAE?AViterator@12@_NPAU_Node@?$_Tree_nod@V?$_Tmap_traits@KPAVCCouple@@U?$less@K@std@@V?$allocator@U?$pair@$$CBKPAVCCouple@@@std@@@3@$0A@@std@@@2@ABU?$pair@$$CBKPAVCCouple@@@2@@Z
_TEXT	SEGMENT PARA USE32 PUBLIC 'CODE'
_TEXT	ENDS
;	COMDAT ?_Lmost@?$_Tree@V?$_Tmap_traits@KPAVCCouple@@U?$less@K@std@@V?$allocator@U?$pair@$$CBKPAVCCouple@@@std@@@3@$0A@@std@@@std@@IAEAAPAU_Node@?$_Tree_nod@V?$_Tmap_traits@KPAVCCouple@@U?$less@K@std@@V?$allocator@U?$pair@$$CBKPAVCCouple@@@std@@@3@$0A@@std@@@2@XZ
_TEXT	SEGMENT PARA USE32 PUBLIC 'CODE'
_TEXT	ENDS
;	COMDAT ?_Rmost@?$_Tree@V?$_Tmap_traits@KPAVCCouple@@U?$less@K@std@@V?$allocator@U?$pair@$$CBKPAVCCouple@@@std@@@3@$0A@@std@@@std@@IAEAAPAU_Node@?$_Tree_nod@V?$_Tmap_traits@KPAVCCouple@@U?$less@K@std@@V?$allocator@U?$pair@$$CBKPAVCCouple@@@std@@@3@$0A@@std@@@2@XZ
_TEXT	SEGMENT PARA USE32 PUBLIC 'CODE'
_TEXT	ENDS
;	COMDAT ?_Root@?$_Tree@V?$_Tmap_traits@KPAVCCouple@@U?$less@K@std@@V?$allocator@U?$pair@$$CBKPAVCCouple@@@std@@@3@$0A@@std@@@std@@IAEAAPAU_Node@?$_Tree_nod@V?$_Tmap_traits@KPAVCCouple@@U?$less@K@std@@V?$allocator@U?$pair@$$CBKPAVCCouple@@@std@@@3@$0A@@std@@@2@XZ
_TEXT	SEGMENT PARA USE32 PUBLIC 'CODE'
_TEXT	ENDS
;	COMDAT ?_Tidy@?$_Tree@V?$_Tmap_traits@KPAVCCouple@@U?$less@K@std@@V?$allocator@U?$pair@$$CBKPAVCCouple@@@std@@@3@$0A@@std@@@std@@IAEXXZ
_TEXT	SEGMENT PARA USE32 PUBLIC 'CODE'
_TEXT	ENDS
;	COMDAT ?_Kfn@?$_Tmap_traits@KPAVCCouple@@U?$less@K@std@@V?$allocator@U?$pair@$$CBKPAVCCouple@@@std@@@3@$0A@@std@@SAABKABU?$pair@$$CBKPAVCCouple@@@2@@Z
_TEXT	SEGMENT PARA USE32 PUBLIC 'CODE'
_TEXT	ENDS
;	COMDAT ??0?$allocator@U?$pair@$$CBKPAVCCouple@@@std@@@std@@QAE@XZ
_TEXT	SEGMENT PARA USE32 PUBLIC 'CODE'
_TEXT	ENDS
;	COMDAT ?capacity@?$vector@PAVCCouple@@V?$allocator@PAVCCouple@@@std@@@std@@QBEIXZ
_TEXT	SEGMENT PARA USE32 PUBLIC 'CODE'
_TEXT	ENDS
;	COMDAT ?insert@?$vector@PAVCCouple@@V?$allocator@PAVCCouple@@@std@@@std@@QAE?AViterator@12@V312@ABQAVCCouple@@@Z
_TEXT	SEGMENT PARA USE32 PUBLIC 'CODE'
_TEXT	ENDS
;	COMDAT ?_Buy@?$vector@PAVCCouple@@V?$allocator@PAVCCouple@@@std@@@std@@IAE_NI@Z
_TEXT	SEGMENT PARA USE32 PUBLIC 'CODE'
_TEXT	ENDS
;	COMDAT ?_Destroy@?$vector@PAVCCouple@@V?$allocator@PAVCCouple@@@std@@@std@@IAEXPAPAVCCouple@@0@Z
_TEXT	SEGMENT PARA USE32 PUBLIC 'CODE'
_TEXT	ENDS
;	COMDAT ?_Tidy@?$vector@PAVCCouple@@V?$allocator@PAVCCouple@@@std@@@std@@IAEXXZ
_TEXT	SEGMENT PARA USE32 PUBLIC 'CODE'
_TEXT	ENDS
;	COMDAT ?_Ufill@?$vector@PAVCCouple@@V?$allocator@PAVCCouple@@@std@@@std@@IAEPAPAVCCouple@@PAPAV3@IABQAV3@@Z
_TEXT	SEGMENT PARA USE32 PUBLIC 'CODE'
_TEXT	ENDS
;	COMDAT ??0?$_Vector_val@PAVCCouple@@V?$allocator@PAVCCouple@@@std@@@std@@IAE@V?$allocator@PAVCCouple@@@1@@Z
_TEXT	SEGMENT PARA USE32 PUBLIC 'CODE'
_TEXT	ENDS
;	COMDAT ??0?$allocator@PAVCCouple@@@std@@QAE@XZ
_TEXT	SEGMENT PARA USE32 PUBLIC 'CODE'
_TEXT	ENDS
;	COMDAT ??0iterator@?$vector@PAVCCouple@@V?$allocator@PAVCCouple@@@std@@@std@@QAE@PAPAVCCouple@@@Z
_TEXT	SEGMENT PARA USE32 PUBLIC 'CODE'
_TEXT	ENDS
;	COMDAT ??Dconst_iterator@?$vector@PAVCCouple@@V?$allocator@PAVCCouple@@@std@@@std@@QBEABQAVCCouple@@XZ
_TEXT	SEGMENT PARA USE32 PUBLIC 'CODE'
_TEXT	ENDS
;	COMDAT ??8const_iterator@?$vector@PAVCCouple@@V?$allocator@PAVCCouple@@@std@@@std@@QBE_NABV012@@Z
_TEXT	SEGMENT PARA USE32 PUBLIC 'CODE'
_TEXT	ENDS
;	COMDAT ??0iterator@?$_Tree@V?$_Tmap_traits@KPAVCCouple@@U?$less@K@std@@V?$allocator@U?$pair@$$CBKPAVCCouple@@@std@@@3@$0A@@std@@@std@@QAE@PAU_Node@?$_Tree_nod@V?$_Tmap_traits@KPAVCCouple@@U?$less@K@std@@V?$allocator@U?$pair@$$CBKPAVCCouple@@@std@@@3@$0A@@std@@@2@@Z
_TEXT	SEGMENT PARA USE32 PUBLIC 'CODE'
_TEXT	ENDS
;	COMDAT ??Diterator@?$_Tree@V?$_Tmap_traits@KPAVCCouple@@U?$less@K@std@@V?$allocator@U?$pair@$$CBKPAVCCouple@@@std@@@3@$0A@@std@@@std@@QBEAAU?$pair@$$CBKPAVCCouple@@@2@XZ
_TEXT	SEGMENT PARA USE32 PUBLIC 'CODE'
_TEXT	ENDS
;	COMDAT ??Fiterator@?$_Tree@V?$_Tmap_traits@KPAVCCouple@@U?$less@K@std@@V?$allocator@U?$pair@$$CBKPAVCCouple@@@std@@@3@$0A@@std@@@std@@QAEAAV012@XZ
_TEXT	SEGMENT PARA USE32 PUBLIC 'CODE'
_TEXT	ENDS
;	COMDAT ??8const_iterator@?$_Tree@V?$_Tmap_traits@KPAVCCouple@@U?$less@K@std@@V?$allocator@U?$pair@$$CBKPAVCCouple@@@std@@@3@$0A@@std@@@std@@QBE_NABV012@@Z
_TEXT	SEGMENT PARA USE32 PUBLIC 'CODE'
_TEXT	ENDS
;	COMDAT ?_Mynode@const_iterator@?$_Tree@V?$_Tmap_traits@KPAVCCouple@@U?$less@K@std@@V?$allocator@U?$pair@$$CBKPAVCCouple@@@std@@@3@$0A@@std@@@std@@QBEPAU_Node@?$_Tree_nod@V?$_Tmap_traits@KPAVCCouple@@U?$less@K@std@@V?$allocator@U?$pair@$$CBKPAVCCouple@@@std@@@3@$0A@@std@@@3@XZ
_TEXT	SEGMENT PARA USE32 PUBLIC 'CODE'
_TEXT	ENDS
;	COMDAT ??0?$pair@Viterator@?$_Tree@V?$_Tmap_traits@KPAVCCouple@@U?$less@K@std@@V?$allocator@U?$pair@$$CBKPAVCCouple@@@std@@@3@$0A@@std@@@std@@_N@std@@QAE@ABViterator@?$_Tree@V?$_Tmap_traits@KPAVCCouple@@U?$less@K@std@@V?$allocator@U?$pair@$$CBKPAVCCouple@@@std@@@3@$0A@@std@@@1@AB_N@Z
_TEXT	SEGMENT PARA USE32 PUBLIC 'CODE'
_TEXT	ENDS
;	COMDAT ??0?$vector@U_COUPLE_ITEM@@V?$allocator@U_COUPLE_ITEM@@@std@@@std@@QAE@XZ
_TEXT	SEGMENT PARA USE32 PUBLIC 'CODE'
_TEXT	ENDS
;	COMDAT ??1?$vector@U_COUPLE_ITEM@@V?$allocator@U_COUPLE_ITEM@@@std@@@std@@QAE@XZ
_TEXT	SEGMENT PARA USE32 PUBLIC 'CODE'
_TEXT	ENDS
;	COMDAT ?capacity@?$vector@U_COUPLE_ITEM@@V?$allocator@U_COUPLE_ITEM@@@std@@@std@@QBEIXZ
_TEXT	SEGMENT PARA USE32 PUBLIC 'CODE'
_TEXT	ENDS
;	COMDAT ?end@?$vector@U_COUPLE_ITEM@@V?$allocator@U_COUPLE_ITEM@@@std@@@std@@QAE?AViterator@12@XZ
_TEXT	SEGMENT PARA USE32 PUBLIC 'CODE'
_TEXT	ENDS
;	COMDAT ?size@?$vector@U_COUPLE_ITEM@@V?$allocator@U_COUPLE_ITEM@@@std@@@std@@QBEIXZ
_TEXT	SEGMENT PARA USE32 PUBLIC 'CODE'
_TEXT	ENDS
;	COMDAT ?insert@?$vector@U_COUPLE_ITEM@@V?$allocator@U_COUPLE_ITEM@@@std@@@std@@QAE?AViterator@12@V312@ABU_COUPLE_ITEM@@@Z
_TEXT	SEGMENT PARA USE32 PUBLIC 'CODE'
_TEXT	ENDS
;	COMDAT ?_Ufill@?$vector@U_COUPLE_ITEM@@V?$allocator@U_COUPLE_ITEM@@@std@@@std@@IAEPAU_COUPLE_ITEM@@PAU3@IABU3@@Z
_TEXT	SEGMENT PARA USE32 PUBLIC 'CODE'
_TEXT	ENDS
;	COMDAT ??0iterator@?$vector@HV?$allocator@H@std@@@std@@QAE@PAH@Z
_TEXT	SEGMENT PARA USE32 PUBLIC 'CODE'
_TEXT	ENDS
;	COMDAT ??Diterator@?$vector@HV?$allocator@H@std@@@std@@QBEAAHXZ
_TEXT	SEGMENT PARA USE32 PUBLIC 'CODE'
_TEXT	ENDS
;	COMDAT ??Hiterator@?$vector@HV?$allocator@H@std@@@std@@QBE?AV012@H@Z
_TEXT	SEGMENT PARA USE32 PUBLIC 'CODE'
_TEXT	ENDS
;	COMDAT ??Diterator@?$vector@V?$vector@U_COUPLE_ITEM@@V?$allocator@U_COUPLE_ITEM@@@std@@@std@@V?$allocator@V?$vector@U_COUPLE_ITEM@@V?$allocator@U_COUPLE_ITEM@@@std@@@std@@@2@@std@@QBEAAV?$vector@U_COUPLE_ITEM@@V?$allocator@U_COUPLE_ITEM@@@std@@@2@XZ
_TEXT	SEGMENT PARA USE32 PUBLIC 'CODE'
_TEXT	ENDS
;	COMDAT ??Hiterator@?$vector@V?$vector@U_COUPLE_ITEM@@V?$allocator@U_COUPLE_ITEM@@@std@@@std@@V?$allocator@V?$vector@U_COUPLE_ITEM@@V?$allocator@U_COUPLE_ITEM@@@std@@@std@@@2@@std@@QBE?AV012@H@Z
_TEXT	SEGMENT PARA USE32 PUBLIC 'CODE'
_TEXT	ENDS
;	COMDAT ??Diterator@?$vector@V?$vector@HV?$allocator@H@std@@@std@@V?$allocator@V?$vector@HV?$allocator@H@std@@@std@@@2@@std@@QBEAAV?$vector@HV?$allocator@H@std@@@2@XZ
_TEXT	SEGMENT PARA USE32 PUBLIC 'CODE'
_TEXT	ENDS
;	COMDAT ??Hiterator@?$vector@V?$vector@HV?$allocator@H@std@@@std@@V?$allocator@V?$vector@HV?$allocator@H@std@@@std@@@2@@std@@QBE?AV012@H@Z
_TEXT	SEGMENT PARA USE32 PUBLIC 'CODE'
_TEXT	ENDS
;	COMDAT ?StringCompare@?$ChTraitsCRT@D@ATL@@SAHPBD0@Z
_TEXT	SEGMENT PARA USE32 PUBLIC 'CODE'
_TEXT	ENDS
;	COMDAT ??0?$allocator@H@std@@QAE@ABV01@@Z
_TEXT	SEGMENT PARA USE32 PUBLIC 'CODE'
_TEXT	ENDS
;	COMDAT ?deallocate@?$allocator@H@std@@QAEXPAHI@Z
_TEXT	SEGMENT PARA USE32 PUBLIC 'CODE'
_TEXT	ENDS
;	COMDAT ?allocate@?$allocator@H@std@@QAEPAHI@Z
_TEXT	SEGMENT PARA USE32 PUBLIC 'CODE'
_TEXT	ENDS
;	COMDAT ?max_size@?$vector@PAVITestCase@@V?$allocator@PAVITestCase@@@std@@@std@@QBEIXZ
_TEXT	SEGMENT PARA USE32 PUBLIC 'CODE'
_TEXT	ENDS
;	COMDAT ?_Destroy@?$vector@PAVITestCase@@V?$allocator@PAVITestCase@@@std@@@std@@IAEXPAPAVITestCase@@0@Z
_TEXT	SEGMENT PARA USE32 PUBLIC 'CODE'
_TEXT	ENDS
;	COMDAT ?_Xlen@?$vector@PAVITestCase@@V?$allocator@PAVITestCase@@@std@@@std@@IBEXXZ
_TEXT	SEGMENT PARA USE32 PUBLIC 'CODE'
_TEXT	ENDS
;	COMDAT ??0?$allocator@PAVITestCase@@@std@@QAE@ABV01@@Z
_TEXT	SEGMENT PARA USE32 PUBLIC 'CODE'
_TEXT	ENDS
;	COMDAT ?deallocate@?$allocator@PAVITestCase@@@std@@QAEXPAPAVITestCase@@I@Z
_TEXT	SEGMENT PARA USE32 PUBLIC 'CODE'
_TEXT	ENDS
;	COMDAT ?allocate@?$allocator@PAVITestCase@@@std@@QAEPAPAVITestCase@@I@Z
_TEXT	SEGMENT PARA USE32 PUBLIC 'CODE'
_TEXT	ENDS
;	COMDAT ?max_size@?$vector@HV?$allocator@H@std@@@std@@QBEIXZ
_TEXT	SEGMENT PARA USE32 PUBLIC 'CODE'
_TEXT	ENDS
;	COMDAT ?_Destroy@?$vector@HV?$allocator@H@std@@@std@@IAEXPAH0@Z
_TEXT	SEGMENT PARA USE32 PUBLIC 'CODE'
_TEXT	ENDS
;	COMDAT ?_Insert_n@?$vector@HV?$allocator@H@std@@@std@@IAEXViterator@12@IABH@Z
_TEXT	SEGMENT PARA USE32 PUBLIC 'CODE'
_TEXT	ENDS
;	COMDAT ?_Xlen@?$vector@HV?$allocator@H@std@@@std@@IBEXXZ
_TEXT	SEGMENT PARA USE32 PUBLIC 'CODE'
_TEXT	ENDS
;	COMDAT ?end@?$vector@V?$vector@U_COUPLE_ITEM@@V?$allocator@U_COUPLE_ITEM@@@std@@@std@@V?$allocator@V?$vector@U_COUPLE_ITEM@@V?$allocator@U_COUPLE_ITEM@@@std@@@std@@@2@@std@@QAE?AViterator@12@XZ
_TEXT	SEGMENT PARA USE32 PUBLIC 'CODE'
_TEXT	ENDS
;	COMDAT ?size@?$vector@V?$vector@U_COUPLE_ITEM@@V?$allocator@U_COUPLE_ITEM@@@std@@@std@@V?$allocator@V?$vector@U_COUPLE_ITEM@@V?$allocator@U_COUPLE_ITEM@@@std@@@std@@@2@@std@@QBEIXZ
_TEXT	SEGMENT PARA USE32 PUBLIC 'CODE'
_TEXT	ENDS
;	COMDAT ?max_size@?$vector@V?$vector@U_COUPLE_ITEM@@V?$allocator@U_COUPLE_ITEM@@@std@@@std@@V?$allocator@V?$vector@U_COUPLE_ITEM@@V?$allocator@U_COUPLE_ITEM@@@std@@@std@@@2@@std@@QBEIXZ
_TEXT	SEGMENT PARA USE32 PUBLIC 'CODE'
_TEXT	ENDS
;	COMDAT ?erase@?$vector@V?$vector@U_COUPLE_ITEM@@V?$allocator@U_COUPLE_ITEM@@@std@@@std@@V?$allocator@V?$vector@U_COUPLE_ITEM@@V?$allocator@U_COUPLE_ITEM@@@std@@@std@@@2@@std@@QAE?AViterator@12@V312@0@Z
_TEXT	SEGMENT PARA USE32 PUBLIC 'CODE'
_TEXT	ENDS
;	COMDAT ?_Destroy@?$vector@V?$vector@U_COUPLE_ITEM@@V?$allocator@U_COUPLE_ITEM@@@std@@@std@@V?$allocator@V?$vector@U_COUPLE_ITEM@@V?$allocator@U_COUPLE_ITEM@@@std@@@std@@@2@@std@@IAEXPAV?$vector@U_COUPLE_ITEM@@V?$allocator@U_COUPLE_ITEM@@@std@@@2@0@Z
_TEXT	SEGMENT PARA USE32 PUBLIC 'CODE'
_TEXT	ENDS
;	COMDAT ?_Insert_n@?$vector@V?$vector@U_COUPLE_ITEM@@V?$allocator@U_COUPLE_ITEM@@@std@@@std@@V?$allocator@V?$vector@U_COUPLE_ITEM@@V?$allocator@U_COUPLE_ITEM@@@std@@@std@@@2@@std@@IAEXViterator@12@IABV?$vector@U_COUPLE_ITEM@@V?$allocator@U_COUPLE_ITEM@@@std@@@2@@Z
_TEXT	SEGMENT PARA USE32 PUBLIC 'CODE'
_TEXT	ENDS
;	COMDAT ?_Xlen@?$vector@V?$vector@U_COUPLE_ITEM@@V?$allocator@U_COUPLE_ITEM@@@std@@@std@@V?$allocator@V?$vector@U_COUPLE_ITEM@@V?$allocator@U_COUPLE_ITEM@@@std@@@std@@@2@@std@@IBEXXZ
_TEXT	SEGMENT PARA USE32 PUBLIC 'CODE'
_TEXT	ENDS
;	COMDAT ??0?$allocator@V?$vector@U_COUPLE_ITEM@@V?$allocator@U_COUPLE_ITEM@@@std@@@std@@@std@@QAE@ABV01@@Z
_TEXT	SEGMENT PARA USE32 PUBLIC 'CODE'
_TEXT	ENDS
;	COMDAT ?deallocate@?$allocator@V?$vector@U_COUPLE_ITEM@@V?$allocator@U_COUPLE_ITEM@@@std@@@std@@@std@@QAEXPAV?$vector@U_COUPLE_ITEM@@V?$allocator@U_COUPLE_ITEM@@@std@@@2@I@Z
_TEXT	SEGMENT PARA USE32 PUBLIC 'CODE'
_TEXT	ENDS
;	COMDAT ?allocate@?$allocator@V?$vector@U_COUPLE_ITEM@@V?$allocator@U_COUPLE_ITEM@@@std@@@std@@@std@@QAEPAV?$vector@U_COUPLE_ITEM@@V?$allocator@U_COUPLE_ITEM@@@std@@@2@I@Z
_TEXT	SEGMENT PARA USE32 PUBLIC 'CODE'
_TEXT	ENDS
;	COMDAT ?end@?$vector@V?$vector@HV?$allocator@H@std@@@std@@V?$allocator@V?$vector@HV?$allocator@H@std@@@std@@@2@@std@@QAE?AViterator@12@XZ
_TEXT	SEGMENT PARA USE32 PUBLIC 'CODE'
_TEXT	ENDS
;	COMDAT ?max_size@?$vector@V?$vector@HV?$allocator@H@std@@@std@@V?$allocator@V?$vector@HV?$allocator@H@std@@@std@@@2@@std@@QBEIXZ
_TEXT	SEGMENT PARA USE32 PUBLIC 'CODE'
_TEXT	ENDS
;	COMDAT ?erase@?$vector@V?$vector@HV?$allocator@H@std@@@std@@V?$allocator@V?$vector@HV?$allocator@H@std@@@std@@@2@@std@@QAE?AViterator@12@V312@0@Z
_TEXT	SEGMENT PARA USE32 PUBLIC 'CODE'
_TEXT	ENDS
;	COMDAT ?_Destroy@?$vector@V?$vector@HV?$allocator@H@std@@@std@@V?$allocator@V?$vector@HV?$allocator@H@std@@@std@@@2@@std@@IAEXPAV?$vector@HV?$allocator@H@std@@@2@0@Z
_TEXT	SEGMENT PARA USE32 PUBLIC 'CODE'
_TEXT	ENDS
;	COMDAT ?_Insert_n@?$vector@V?$vector@HV?$allocator@H@std@@@std@@V?$allocator@V?$vector@HV?$allocator@H@std@@@std@@@2@@std@@IAEXViterator@12@IABV?$vector@HV?$allocator@H@std@@@2@@Z
_TEXT	SEGMENT PARA USE32 PUBLIC 'CODE'
_TEXT	ENDS
;	COMDAT ?_Xlen@?$vector@V?$vector@HV?$allocator@H@std@@@std@@V?$allocator@V?$vector@HV?$allocator@H@std@@@std@@@2@@std@@IBEXXZ
_TEXT	SEGMENT PARA USE32 PUBLIC 'CODE'
_TEXT	ENDS
;	COMDAT ??0?$allocator@V?$vector@HV?$allocator@H@std@@@std@@@std@@QAE@ABV01@@Z
_TEXT	SEGMENT PARA USE32 PUBLIC 'CODE'
_TEXT	ENDS
;	COMDAT ?deallocate@?$allocator@V?$vector@HV?$allocator@H@std@@@std@@@std@@QAEXPAV?$vector@HV?$allocator@H@std@@@2@I@Z
_TEXT	SEGMENT PARA USE32 PUBLIC 'CODE'
_TEXT	ENDS
;	COMDAT ?allocate@?$allocator@V?$vector@HV?$allocator@H@std@@@std@@@std@@QAEPAV?$vector@HV?$allocator@H@std@@@2@I@Z
_TEXT	SEGMENT PARA USE32 PUBLIC 'CODE'
_TEXT	ENDS
;	COMDAT ?_Color@?$_Tree@V?$_Tmap_traits@KPAVCCouple@@U?$less@K@std@@V?$allocator@U?$pair@$$CBKPAVCCouple@@@std@@@3@$0A@@std@@@std@@KAAADPAU_Node@?$_Tree_nod@V?$_Tmap_traits@KPAVCCouple@@U?$less@K@std@@V?$allocator@U?$pair@$$CBKPAVCCouple@@@std@@@3@$0A@@std@@@2@@Z
_TEXT	SEGMENT PARA USE32 PUBLIC 'CODE'
_TEXT	ENDS
;	COMDAT ?_Parent@?$_Tree@V?$_Tmap_traits@KPAVCCouple@@U?$less@K@std@@V?$allocator@U?$pair@$$CBKPAVCCouple@@@std@@@3@$0A@@std@@@std@@KAAAPAU_Node@?$_Tree_nod@V?$_Tmap_traits@KPAVCCouple@@U?$less@K@std@@V?$allocator@U?$pair@$$CBKPAVCCouple@@@std@@@3@$0A@@std@@@2@PAU342@@Z
_TEXT	SEGMENT PARA USE32 PUBLIC 'CODE'
_TEXT	ENDS
;	COMDAT ?_Myval@?$_Tree@V?$_Tmap_traits@KPAVCCouple@@U?$less@K@std@@V?$allocator@U?$pair@$$CBKPAVCCouple@@@std@@@3@$0A@@std@@@std@@KAAAU?$pair@$$CBKPAVCCouple@@@2@PAU_Node@?$_Tree_nod@V?$_Tmap_traits@KPAVCCouple@@U?$less@K@std@@V?$allocator@U?$pair@$$CBKPAVCCouple@@@std@@@3@$0A@@std@@@2@@Z
_TEXT	SEGMENT PARA USE32 PUBLIC 'CODE'
_TEXT	ENDS
;	COMDAT ?max_size@?$_Tree@V?$_Tmap_traits@KPAVCCouple@@U?$less@K@std@@V?$allocator@U?$pair@$$CBKPAVCCouple@@@std@@@3@$0A@@std@@@std@@QBEIXZ
_TEXT	SEGMENT PARA USE32 PUBLIC 'CODE'
_TEXT	ENDS
;	COMDAT ?erase@?$_Tree@V?$_Tmap_traits@KPAVCCouple@@U?$less@K@std@@V?$allocator@U?$pair@$$CBKPAVCCouple@@@std@@@3@$0A@@std@@@std@@QAE?AViterator@12@V312@@Z
_TEXT	SEGMENT PARA USE32 PUBLIC 'CODE'
_TEXT	ENDS
;	COMDAT ?upper_bound@?$_Tree@V?$_Tmap_traits@KPAVCCouple@@U?$less@K@std@@V?$allocator@U?$pair@$$CBKPAVCCouple@@@std@@@3@$0A@@std@@@std@@QAE?AViterator@12@ABK@Z
_TEXT	SEGMENT PARA USE32 PUBLIC 'CODE'
_TEXT	ENDS
;	COMDAT ?_Init@?$_Tree@V?$_Tmap_traits@KPAVCCouple@@U?$less@K@std@@V?$allocator@U?$pair@$$CBKPAVCCouple@@@std@@@3@$0A@@std@@@std@@IAEXXZ
_TEXT	SEGMENT PARA USE32 PUBLIC 'CODE'
_TEXT	ENDS
;	COMDAT ?_Lbound@?$_Tree@V?$_Tmap_traits@KPAVCCouple@@U?$less@K@std@@V?$allocator@U?$pair@$$CBKPAVCCouple@@@std@@@3@$0A@@std@@@std@@IBEPAU_Node@?$_Tree_nod@V?$_Tmap_traits@KPAVCCouple@@U?$less@K@std@@V?$allocator@U?$pair@$$CBKPAVCCouple@@@std@@@3@$0A@@std@@@2@ABK@Z
_TEXT	SEGMENT PARA USE32 PUBLIC 'CODE'
_TEXT	ENDS
;	COMDAT ?_Lrotate@?$_Tree@V?$_Tmap_traits@KPAVCCouple@@U?$less@K@std@@V?$allocator@U?$pair@$$CBKPAVCCouple@@@std@@@3@$0A@@std@@@std@@IAEXPAU_Node@?$_Tree_nod@V?$_Tmap_traits@KPAVCCouple@@U?$less@K@std@@V?$allocator@U?$pair@$$CBKPAVCCouple@@@std@@@3@$0A@@std@@@2@@Z
_TEXT	SEGMENT PARA USE32 PUBLIC 'CODE'
_TEXT	ENDS
;	COMDAT ?_Rrotate@?$_Tree@V?$_Tmap_traits@KPAVCCouple@@U?$less@K@std@@V?$allocator@U?$pair@$$CBKPAVCCouple@@@std@@@3@$0A@@std@@@std@@IAEXPAU_Node@?$_Tree_nod@V?$_Tmap_traits@KPAVCCouple@@U?$less@K@std@@V?$allocator@U?$pair@$$CBKPAVCCouple@@@std@@@3@$0A@@std@@@2@@Z
_TEXT	SEGMENT PARA USE32 PUBLIC 'CODE'
_TEXT	ENDS
;	COMDAT ?_Buynode@?$_Tree@V?$_Tmap_traits@KPAVCCouple@@U?$less@K@std@@V?$allocator@U?$pair@$$CBKPAVCCouple@@@std@@@3@$0A@@std@@@std@@IAEPAU_Node@?$_Tree_nod@V?$_Tmap_traits@KPAVCCouple@@U?$less@K@std@@V?$allocator@U?$pair@$$CBKPAVCCouple@@@std@@@3@$0A@@std@@@2@PAU342@00ABU?$pair@$$CBKPAVCCouple@@@2@D@Z
_TEXT	SEGMENT PARA USE32 PUBLIC 'CODE'
_TEXT	ENDS
;	COMDAT ??0?$_Tree_val@V?$_Tmap_traits@KPAVCCouple@@U?$less@K@std@@V?$allocator@U?$pair@$$CBKPAVCCouple@@@std@@@3@$0A@@std@@@std@@IAE@ABU?$less@K@1@V?$allocator@U?$pair@$$CBKPAVCCouple@@@std@@@1@@Z
_TEXT	SEGMENT PARA USE32 PUBLIC 'CODE'
_TEXT	ENDS
;	COMDAT ??0?$allocator@U?$pair@$$CBKPAVCCouple@@@std@@@std@@QAE@ABV01@@Z
_TEXT	SEGMENT PARA USE32 PUBLIC 'CODE'
_TEXT	ENDS
;	COMDAT ?deallocate@?$allocator@U_Node@?$_Tree_nod@V?$_Tmap_traits@KPAVCCouple@@U?$less@K@std@@V?$allocator@U?$pair@$$CBKPAVCCouple@@@std@@@3@$0A@@std@@@std@@@std@@QAEXPAU_Node@?$_Tree_nod@V?$_Tmap_traits@KPAVCCouple@@U?$less@K@std@@V?$allocator@U?$pair@$$CBKPAVCCouple@@@std@@@3@$0A@@std@@@2@I@Z
_TEXT	SEGMENT PARA USE32 PUBLIC 'CODE'
_TEXT	ENDS
;	COMDAT ?destroy@?$allocator@U_Node@?$_Tree_nod@V?$_Tmap_traits@KPAVCCouple@@U?$less@K@std@@V?$allocator@U?$pair@$$CBKPAVCCouple@@@std@@@3@$0A@@std@@@std@@@std@@QAEXPAU_Node@?$_Tree_nod@V?$_Tmap_traits@KPAVCCouple@@U?$less@K@std@@V?$allocator@U?$pair@$$CBKPAVCCouple@@@std@@@3@$0A@@std@@@2@@Z
_TEXT	SEGMENT PARA USE32 PUBLIC 'CODE'
_TEXT	ENDS
;	COMDAT ?destroy@?$allocator@PAU_Node@?$_Tree_nod@V?$_Tmap_traits@KPAVCCouple@@U?$less@K@std@@V?$allocator@U?$pair@$$CBKPAVCCouple@@@std@@@3@$0A@@std@@@std@@@std@@QAEXPAPAU_Node@?$_Tree_nod@V?$_Tmap_traits@KPAVCCouple@@U?$less@K@std@@V?$allocator@U?$pair@$$CBKPAVCCouple@@@std@@@3@$0A@@std@@@2@@Z
_TEXT	SEGMENT PARA USE32 PUBLIC 'CODE'
_TEXT	ENDS
;	COMDAT ?max_size@?$vector@PAVCCouple@@V?$allocator@PAVCCouple@@@std@@@std@@QBEIXZ
_TEXT	SEGMENT PARA USE32 PUBLIC 'CODE'
_TEXT	ENDS
;	COMDAT ?_Insert_n@?$vector@PAVCCouple@@V?$allocator@PAVCCouple@@@std@@@std@@IAEXViterator@12@IABQAVCCouple@@@Z
_TEXT	SEGMENT PARA USE32 PUBLIC 'CODE'
_TEXT	ENDS
;	COMDAT ?_Xlen@?$vector@PAVCCouple@@V?$allocator@PAVCCouple@@@std@@@std@@IBEXXZ
_TEXT	SEGMENT PARA USE32 PUBLIC 'CODE'
_TEXT	ENDS
;	COMDAT ??0?$allocator@PAVCCouple@@@std@@QAE@ABV01@@Z
_TEXT	SEGMENT PARA USE32 PUBLIC 'CODE'
_TEXT	ENDS
;	COMDAT ?deallocate@?$allocator@PAVCCouple@@@std@@QAEXPAPAVCCouple@@I@Z
_TEXT	SEGMENT PARA USE32 PUBLIC 'CODE'
_TEXT	ENDS
;	COMDAT ?allocate@?$allocator@PAVCCouple@@@std@@QAEPAPAVCCouple@@I@Z
_TEXT	SEGMENT PARA USE32 PUBLIC 'CODE'
_TEXT	ENDS
;	COMDAT ??Hiterator@?$vector@PAVCCouple@@V?$allocator@PAVCCouple@@@std@@@std@@QBE?AV012@H@Z
_TEXT	SEGMENT PARA USE32 PUBLIC 'CODE'
_TEXT	ENDS
;	COMDAT ??Giterator@?$vector@PAVCCouple@@V?$allocator@PAVCCouple@@@std@@@std@@QBEHABVconst_iterator@12@@Z
_TEXT	SEGMENT PARA USE32 PUBLIC 'CODE'
_TEXT	ENDS
;	COMDAT ??0const_iterator@?$vector@PAVCCouple@@V?$allocator@PAVCCouple@@@std@@@std@@QAE@PAPAVCCouple@@@Z
_TEXT	SEGMENT PARA USE32 PUBLIC 'CODE'
_TEXT	ENDS
;	COMDAT ??Eiterator@?$_Tree@V?$_Tmap_traits@KPAVCCouple@@U?$less@K@std@@V?$allocator@U?$pair@$$CBKPAVCCouple@@@std@@@3@$0A@@std@@@std@@QAE?AV012@H@Z
_TEXT	SEGMENT PARA USE32 PUBLIC 'CODE'
_TEXT	ENDS
;	COMDAT ??0const_iterator@?$_Tree@V?$_Tmap_traits@KPAVCCouple@@U?$less@K@std@@V?$allocator@U?$pair@$$CBKPAVCCouple@@@std@@@3@$0A@@std@@@std@@QAE@PAU_Node@?$_Tree_nod@V?$_Tmap_traits@KPAVCCouple@@U?$less@K@std@@V?$allocator@U?$pair@$$CBKPAVCCouple@@@std@@@3@$0A@@std@@@2@@Z
_TEXT	SEGMENT PARA USE32 PUBLIC 'CODE'
_TEXT	ENDS
;	COMDAT ??Dconst_iterator@?$_Tree@V?$_Tmap_traits@KPAVCCouple@@U?$less@K@std@@V?$allocator@U?$pair@$$CBKPAVCCouple@@@std@@@3@$0A@@std@@@std@@QBEABU?$pair@$$CBKPAVCCouple@@@2@XZ
_TEXT	SEGMENT PARA USE32 PUBLIC 'CODE'
_TEXT	ENDS
;	COMDAT ??Fconst_iterator@?$_Tree@V?$_Tmap_traits@KPAVCCouple@@U?$less@K@std@@V?$allocator@U?$pair@$$CBKPAVCCouple@@@std@@@3@$0A@@std@@@std@@QAEAAV012@XZ
_TEXT	SEGMENT PARA USE32 PUBLIC 'CODE'
_TEXT	ENDS
;	COMDAT ?begin@?$vector@U_COUPLE_ITEM@@V?$allocator@U_COUPLE_ITEM@@@std@@@std@@QAE?AViterator@12@XZ
_TEXT	SEGMENT PARA USE32 PUBLIC 'CODE'
_TEXT	ENDS
;	COMDAT ?_Buy@?$vector@U_COUPLE_ITEM@@V?$allocator@U_COUPLE_ITEM@@@std@@@std@@IAE_NI@Z
_TEXT	SEGMENT PARA USE32 PUBLIC 'CODE'
_TEXT	ENDS
;	COMDAT ?_Tidy@?$vector@U_COUPLE_ITEM@@V?$allocator@U_COUPLE_ITEM@@@std@@@std@@IAEXXZ
_TEXT	SEGMENT PARA USE32 PUBLIC 'CODE'
_TEXT	ENDS
;	COMDAT ?_Insert_n@?$vector@U_COUPLE_ITEM@@V?$allocator@U_COUPLE_ITEM@@@std@@@std@@IAEXViterator@12@IABU_COUPLE_ITEM@@@Z
_TEXT	SEGMENT PARA USE32 PUBLIC 'CODE'
_TEXT	ENDS
;	COMDAT ??0?$_Vector_val@U_COUPLE_ITEM@@V?$allocator@U_COUPLE_ITEM@@@std@@@std@@IAE@V?$allocator@U_COUPLE_ITEM@@@1@@Z
_TEXT	SEGMENT PARA USE32 PUBLIC 'CODE'
_TEXT	ENDS
;	COMDAT ??0?$allocator@U_COUPLE_ITEM@@@std@@QAE@XZ
_TEXT	SEGMENT PARA USE32 PUBLIC 'CODE'
_TEXT	ENDS
;	COMDAT ??Yiterator@?$vector@HV?$allocator@H@std@@@std@@QAEAAV012@H@Z
_TEXT	SEGMENT PARA USE32 PUBLIC 'CODE'
_TEXT	ENDS
;	COMDAT ??Giterator@?$vector@HV?$allocator@H@std@@@std@@QBEHABVconst_iterator@12@@Z
_TEXT	SEGMENT PARA USE32 PUBLIC 'CODE'
_TEXT	ENDS
;	COMDAT ??0const_iterator@?$vector@HV?$allocator@H@std@@@std@@QAE@PAH@Z
_TEXT	SEGMENT PARA USE32 PUBLIC 'CODE'
_TEXT	ENDS
;	COMDAT ??Dconst_iterator@?$vector@HV?$allocator@H@std@@@std@@QBEABHXZ
_TEXT	SEGMENT PARA USE32 PUBLIC 'CODE'
_TEXT	ENDS
;	COMDAT ??0iterator@?$vector@V?$vector@U_COUPLE_ITEM@@V?$allocator@U_COUPLE_ITEM@@@std@@@std@@V?$allocator@V?$vector@U_COUPLE_ITEM@@V?$allocator@U_COUPLE_ITEM@@@std@@@std@@@2@@std@@QAE@PAV?$vector@U_COUPLE_ITEM@@V?$allocator@U_COUPLE_ITEM@@@std@@@2@@Z
_TEXT	SEGMENT PARA USE32 PUBLIC 'CODE'
_TEXT	ENDS
;	COMDAT ??Yiterator@?$vector@V?$vector@U_COUPLE_ITEM@@V?$allocator@U_COUPLE_ITEM@@@std@@@std@@V?$allocator@V?$vector@U_COUPLE_ITEM@@V?$allocator@U_COUPLE_ITEM@@@std@@@std@@@2@@std@@QAEAAV012@H@Z
_TEXT	SEGMENT PARA USE32 PUBLIC 'CODE'
_TEXT	ENDS
;	COMDAT ??Dconst_iterator@?$vector@V?$vector@U_COUPLE_ITEM@@V?$allocator@U_COUPLE_ITEM@@@std@@@std@@V?$allocator@V?$vector@U_COUPLE_ITEM@@V?$allocator@U_COUPLE_ITEM@@@std@@@std@@@2@@std@@QBEABV?$vector@U_COUPLE_ITEM@@V?$allocator@U_COUPLE_ITEM@@@std@@@2@XZ
_TEXT	SEGMENT PARA USE32 PUBLIC 'CODE'
_TEXT	ENDS
;	COMDAT ??0iterator@?$vector@V?$vector@HV?$allocator@H@std@@@std@@V?$allocator@V?$vector@HV?$allocator@H@std@@@std@@@2@@std@@QAE@PAV?$vector@HV?$allocator@H@std@@@2@@Z
_TEXT	SEGMENT PARA USE32 PUBLIC 'CODE'
_TEXT	ENDS
;	COMDAT ??Yiterator@?$vector@V?$vector@HV?$allocator@H@std@@@std@@V?$allocator@V?$vector@HV?$allocator@H@std@@@std@@@2@@std@@QAEAAV012@H@Z
_TEXT	SEGMENT PARA USE32 PUBLIC 'CODE'
_TEXT	ENDS
;	COMDAT ??Dconst_iterator@?$vector@V?$vector@HV?$allocator@H@std@@@std@@V?$allocator@V?$vector@HV?$allocator@H@std@@@std@@@2@@std@@QBEABV?$vector@HV?$allocator@H@std@@@2@XZ
_TEXT	SEGMENT PARA USE32 PUBLIC 'CODE'
_TEXT	ENDS
;	COMDAT ??0?$pair@Viterator@?$_Tree@V?$_Tmap_traits@KPAVCCouple@@U?$less@K@std@@V?$allocator@U?$pair@$$CBKPAVCCouple@@@std@@@3@$0A@@std@@@std@@V123@@std@@QAE@ABViterator@?$_Tree@V?$_Tmap_traits@KPAVCCouple@@U?$less@K@std@@V?$allocator@U?$pair@$$CBKPAVCCouple@@@std@@@3@$0A@@std@@@1@0@Z
_TEXT	SEGMENT PARA USE32 PUBLIC 'CODE'
_TEXT	ENDS
;	COMDAT ??0iterator@?$vector@U_COUPLE_ITEM@@V?$allocator@U_COUPLE_ITEM@@@std@@@std@@QAE@PAU_COUPLE_ITEM@@@Z
_TEXT	SEGMENT PARA USE32 PUBLIC 'CODE'
_TEXT	ENDS
;	COMDAT ??Hiterator@?$vector@U_COUPLE_ITEM@@V?$allocator@U_COUPLE_ITEM@@@std@@@std@@QBE?AV012@H@Z
_TEXT	SEGMENT PARA USE32 PUBLIC 'CODE'
_TEXT	ENDS
;	COMDAT ??Giterator@?$vector@U_COUPLE_ITEM@@V?$allocator@U_COUPLE_ITEM@@@std@@@std@@QBEHABVconst_iterator@12@@Z
_TEXT	SEGMENT PARA USE32 PUBLIC 'CODE'
_TEXT	ENDS
;	COMDAT ?max_size@?$allocator@H@std@@QBEIXZ
_TEXT	SEGMENT PARA USE32 PUBLIC 'CODE'
_TEXT	ENDS
;	COMDAT ?max_size@?$allocator@PAVITestCase@@@std@@QBEIXZ
_TEXT	SEGMENT PARA USE32 PUBLIC 'CODE'
_TEXT	ENDS
;	COMDAT ??0?$vector@HV?$allocator@H@std@@@std@@QAE@ABV01@@Z
_TEXT	SEGMENT PARA USE32 PUBLIC 'CODE'
_TEXT	ENDS
;	COMDAT ?capacity@?$vector@V?$vector@U_COUPLE_ITEM@@V?$allocator@U_COUPLE_ITEM@@@std@@@std@@V?$allocator@V?$vector@U_COUPLE_ITEM@@V?$allocator@U_COUPLE_ITEM@@@std@@@std@@@2@@std@@QBEIXZ
_TEXT	SEGMENT PARA USE32 PUBLIC 'CODE'
_TEXT	ENDS
;	COMDAT ?_Ufill@?$vector@V?$vector@U_COUPLE_ITEM@@V?$allocator@U_COUPLE_ITEM@@@std@@@std@@V?$allocator@V?$vector@U_COUPLE_ITEM@@V?$allocator@U_COUPLE_ITEM@@@std@@@std@@@2@@std@@IAEPAV?$vector@U_COUPLE_ITEM@@V?$allocator@U_COUPLE_ITEM@@@std@@@2@PAV32@IABV32@@Z
_TEXT	SEGMENT PARA USE32 PUBLIC 'CODE'
_TEXT	ENDS
;	COMDAT ?max_size@?$allocator@V?$vector@U_COUPLE_ITEM@@V?$allocator@U_COUPLE_ITEM@@@std@@@std@@@std@@QBEIXZ
_TEXT	SEGMENT PARA USE32 PUBLIC 'CODE'
_TEXT	ENDS
;	COMDAT ?capacity@?$vector@V?$vector@HV?$allocator@H@std@@@std@@V?$allocator@V?$vector@HV?$allocator@H@std@@@std@@@2@@std@@QBEIXZ
_TEXT	SEGMENT PARA USE32 PUBLIC 'CODE'
_TEXT	ENDS
;	COMDAT ?_Ufill@?$vector@V?$vector@HV?$allocator@H@std@@@std@@V?$allocator@V?$vector@HV?$allocator@H@std@@@std@@@2@@std@@IAEPAV?$vector@HV?$allocator@H@std@@@2@PAV32@IABV32@@Z
_TEXT	SEGMENT PARA USE32 PUBLIC 'CODE'
_TEXT	ENDS
;	COMDAT ?max_size@?$allocator@V?$vector@HV?$allocator@H@std@@@std@@@std@@QBEIXZ
_TEXT	SEGMENT PARA USE32 PUBLIC 'CODE'
_TEXT	ENDS
;	COMDAT ?_Max@?$_Tree@V?$_Tmap_traits@KPAVCCouple@@U?$less@K@std@@V?$allocator@U?$pair@$$CBKPAVCCouple@@@std@@@3@$0A@@std@@@std@@KAPAU_Node@?$_Tree_nod@V?$_Tmap_traits@KPAVCCouple@@U?$less@K@std@@V?$allocator@U?$pair@$$CBKPAVCCouple@@@std@@@3@$0A@@std@@@2@PAU342@@Z
_TEXT	SEGMENT PARA USE32 PUBLIC 'CODE'
_TEXT	ENDS
;	COMDAT ?_Min@?$_Tree@V?$_Tmap_traits@KPAVCCouple@@U?$less@K@std@@V?$allocator@U?$pair@$$CBKPAVCCouple@@@std@@@3@$0A@@std@@@std@@KAPAU_Node@?$_Tree_nod@V?$_Tmap_traits@KPAVCCouple@@U?$less@K@std@@V?$allocator@U?$pair@$$CBKPAVCCouple@@@std@@@3@$0A@@std@@@2@PAU342@@Z
_TEXT	SEGMENT PARA USE32 PUBLIC 'CODE'
_TEXT	ENDS
;	COMDAT ?_Root@?$_Tree@V?$_Tmap_traits@KPAVCCouple@@U?$less@K@std@@V?$allocator@U?$pair@$$CBKPAVCCouple@@@std@@@3@$0A@@std@@@std@@IBEAAPAU_Node@?$_Tree_nod@V?$_Tmap_traits@KPAVCCouple@@U?$less@K@std@@V?$allocator@U?$pair@$$CBKPAVCCouple@@@std@@@3@$0A@@std@@@2@XZ
_TEXT	SEGMENT PARA USE32 PUBLIC 'CODE'
_TEXT	ENDS
;	COMDAT ?_Ubound@?$_Tree@V?$_Tmap_traits@KPAVCCouple@@U?$less@K@std@@V?$allocator@U?$pair@$$CBKPAVCCouple@@@std@@@3@$0A@@std@@@std@@IBEPAU_Node@?$_Tree_nod@V?$_Tmap_traits@KPAVCCouple@@U?$less@K@std@@V?$allocator@U?$pair@$$CBKPAVCCouple@@@std@@@3@$0A@@std@@@2@ABK@Z
_TEXT	SEGMENT PARA USE32 PUBLIC 'CODE'
_TEXT	ENDS
;	COMDAT ?_Buynode@?$_Tree@V?$_Tmap_traits@KPAVCCouple@@U?$less@K@std@@V?$allocator@U?$pair@$$CBKPAVCCouple@@@std@@@3@$0A@@std@@@std@@IAEPAU_Node@?$_Tree_nod@V?$_Tmap_traits@KPAVCCouple@@U?$less@K@std@@V?$allocator@U?$pair@$$CBKPAVCCouple@@@std@@@3@$0A@@std@@@2@XZ
_TEXT	SEGMENT PARA USE32 PUBLIC 'CODE'
_TEXT	ENDS
;	COMDAT ??0?$_Tree_ptr@V?$_Tmap_traits@KPAVCCouple@@U?$less@K@std@@V?$allocator@U?$pair@$$CBKPAVCCouple@@@std@@@3@$0A@@std@@@std@@IAE@ABU?$less@K@1@V?$allocator@U?$pair@$$CBKPAVCCouple@@@std@@@1@@Z
_TEXT	SEGMENT PARA USE32 PUBLIC 'CODE'
_TEXT	ENDS
;	COMDAT ?max_size@?$allocator@U?$pair@$$CBKPAVCCouple@@@std@@@std@@QBEIXZ
_TEXT	SEGMENT PARA USE32 PUBLIC 'CODE'
_TEXT	ENDS
;	COMDAT ?allocate@?$allocator@U_Node@?$_Tree_nod@V?$_Tmap_traits@KPAVCCouple@@U?$less@K@std@@V?$allocator@U?$pair@$$CBKPAVCCouple@@@std@@@3@$0A@@std@@@std@@@std@@QAEPAU_Node@?$_Tree_nod@V?$_Tmap_traits@KPAVCCouple@@U?$less@K@std@@V?$allocator@U?$pair@$$CBKPAVCCouple@@@std@@@3@$0A@@std@@@2@I@Z
_TEXT	SEGMENT PARA USE32 PUBLIC 'CODE'
_TEXT	ENDS
;	COMDAT ?max_size@?$allocator@PAVCCouple@@@std@@QBEIXZ
_TEXT	SEGMENT PARA USE32 PUBLIC 'CODE'
_TEXT	ENDS
;	COMDAT ??Yiterator@?$vector@PAVCCouple@@V?$allocator@PAVCCouple@@@std@@@std@@QAEAAV012@H@Z
_TEXT	SEGMENT PARA USE32 PUBLIC 'CODE'
_TEXT	ENDS
;	COMDAT ??Gconst_iterator@?$vector@PAVCCouple@@V?$allocator@PAVCCouple@@@std@@@std@@QBEHABV012@@Z
_TEXT	SEGMENT PARA USE32 PUBLIC 'CODE'
_TEXT	ENDS
;	COMDAT ??Eiterator@?$_Tree@V?$_Tmap_traits@KPAVCCouple@@U?$less@K@std@@V?$allocator@U?$pair@$$CBKPAVCCouple@@@std@@@3@$0A@@std@@@std@@QAEAAV012@XZ
_TEXT	SEGMENT PARA USE32 PUBLIC 'CODE'
_TEXT	ENDS
;	COMDAT ?_Dec@const_iterator@?$_Tree@V?$_Tmap_traits@KPAVCCouple@@U?$less@K@std@@V?$allocator@U?$pair@$$CBKPAVCCouple@@@std@@@3@$0A@@std@@@std@@QAEXXZ
_TEXT	SEGMENT PARA USE32 PUBLIC 'CODE'
_TEXT	ENDS
;	COMDAT ??0?$vector@U_COUPLE_ITEM@@V?$allocator@U_COUPLE_ITEM@@@std@@@std@@QAE@ABV01@@Z
_TEXT	SEGMENT PARA USE32 PUBLIC 'CODE'
_TEXT	ENDS
;	COMDAT ?max_size@?$vector@U_COUPLE_ITEM@@V?$allocator@U_COUPLE_ITEM@@@std@@@std@@QBEIXZ
_TEXT	SEGMENT PARA USE32 PUBLIC 'CODE'
_TEXT	ENDS
;	COMDAT ?_Destroy@?$vector@U_COUPLE_ITEM@@V?$allocator@U_COUPLE_ITEM@@@std@@@std@@IAEXPAU_COUPLE_ITEM@@0@Z
_TEXT	SEGMENT PARA USE32 PUBLIC 'CODE'
_TEXT	ENDS
;	COMDAT ?_Xlen@?$vector@U_COUPLE_ITEM@@V?$allocator@U_COUPLE_ITEM@@@std@@@std@@IBEXXZ
_TEXT	SEGMENT PARA USE32 PUBLIC 'CODE'
_TEXT	ENDS
;	COMDAT ??0?$allocator@U_COUPLE_ITEM@@@std@@QAE@ABV01@@Z
_TEXT	SEGMENT PARA USE32 PUBLIC 'CODE'
_TEXT	ENDS
;	COMDAT ?deallocate@?$allocator@U_COUPLE_ITEM@@@std@@QAEXPAU_COUPLE_ITEM@@I@Z
_TEXT	SEGMENT PARA USE32 PUBLIC 'CODE'
_TEXT	ENDS
;	COMDAT ?allocate@?$allocator@U_COUPLE_ITEM@@@std@@QAEPAU_COUPLE_ITEM@@I@Z
_TEXT	SEGMENT PARA USE32 PUBLIC 'CODE'
_TEXT	ENDS
;	COMDAT ??Gconst_iterator@?$vector@HV?$allocator@H@std@@@std@@QBEHABV012@@Z
_TEXT	SEGMENT PARA USE32 PUBLIC 'CODE'
_TEXT	ENDS
;	COMDAT ??0const_iterator@?$vector@V?$vector@U_COUPLE_ITEM@@V?$allocator@U_COUPLE_ITEM@@@std@@@std@@V?$allocator@V?$vector@U_COUPLE_ITEM@@V?$allocator@U_COUPLE_ITEM@@@std@@@std@@@2@@std@@QAE@PAV?$vector@U_COUPLE_ITEM@@V?$allocator@U_COUPLE_ITEM@@@std@@@2@@Z
_TEXT	SEGMENT PARA USE32 PUBLIC 'CODE'
_TEXT	ENDS
;	COMDAT ??9const_iterator@?$vector@V?$vector@U_COUPLE_ITEM@@V?$allocator@U_COUPLE_ITEM@@@std@@@std@@V?$allocator@V?$vector@U_COUPLE_ITEM@@V?$allocator@U_COUPLE_ITEM@@@std@@@std@@@2@@std@@QBE_NABV012@@Z
_TEXT	SEGMENT PARA USE32 PUBLIC 'CODE'
_TEXT	ENDS
;	COMDAT ??0const_iterator@?$vector@V?$vector@HV?$allocator@H@std@@@std@@V?$allocator@V?$vector@HV?$allocator@H@std@@@std@@@2@@std@@QAE@PAV?$vector@HV?$allocator@H@std@@@2@@Z
_TEXT	SEGMENT PARA USE32 PUBLIC 'CODE'
_TEXT	ENDS
;	COMDAT ??9const_iterator@?$vector@V?$vector@HV?$allocator@H@std@@@std@@V?$allocator@V?$vector@HV?$allocator@H@std@@@std@@@2@@std@@QBE_NABV012@@Z
_TEXT	SEGMENT PARA USE32 PUBLIC 'CODE'
_TEXT	ENDS
;	COMDAT ??Yiterator@?$vector@U_COUPLE_ITEM@@V?$allocator@U_COUPLE_ITEM@@@std@@@std@@QAEAAV012@H@Z
_TEXT	SEGMENT PARA USE32 PUBLIC 'CODE'
_TEXT	ENDS
;	COMDAT ??0const_iterator@?$vector@U_COUPLE_ITEM@@V?$allocator@U_COUPLE_ITEM@@@std@@@std@@QAE@PAU_COUPLE_ITEM@@@Z
_TEXT	SEGMENT PARA USE32 PUBLIC 'CODE'
_TEXT	ENDS
;	COMDAT ??Gconst_iterator@?$vector@U_COUPLE_ITEM@@V?$allocator@U_COUPLE_ITEM@@@std@@@std@@QBEHABV012@@Z
_TEXT	SEGMENT PARA USE32 PUBLIC 'CODE'
_TEXT	ENDS
;	COMDAT ??0_Node@?$_Tree_nod@V?$_Tmap_traits@KPAVCCouple@@U?$less@K@std@@V?$allocator@U?$pair@$$CBKPAVCCouple@@@std@@@3@$0A@@std@@@std@@QAE@PAU012@00ABU?$pair@$$CBKPAVCCouple@@@2@D@Z
_TEXT	SEGMENT PARA USE32 PUBLIC 'CODE'
_TEXT	ENDS
;	COMDAT ?begin@?$vector@HV?$allocator@H@std@@@std@@QBE?AVconst_iterator@12@XZ
_TEXT	SEGMENT PARA USE32 PUBLIC 'CODE'
_TEXT	ENDS
;	COMDAT ?end@?$vector@HV?$allocator@H@std@@@std@@QBE?AVconst_iterator@12@XZ
_TEXT	SEGMENT PARA USE32 PUBLIC 'CODE'
_TEXT	ENDS
;	COMDAT ??0?$_Tree_nod@V?$_Tmap_traits@KPAVCCouple@@U?$less@K@std@@V?$allocator@U?$pair@$$CBKPAVCCouple@@@std@@@3@$0A@@std@@@std@@IAE@ABU?$less@K@1@V?$allocator@U?$pair@$$CBKPAVCCouple@@@std@@@1@@Z
_TEXT	SEGMENT PARA USE32 PUBLIC 'CODE'
_TEXT	ENDS
;	COMDAT ?construct@?$allocator@PAU_Node@?$_Tree_nod@V?$_Tmap_traits@KPAVCCouple@@U?$less@K@std@@V?$allocator@U?$pair@$$CBKPAVCCouple@@@std@@@3@$0A@@std@@@std@@@std@@QAEXPAPAU_Node@?$_Tree_nod@V?$_Tmap_traits@KPAVCCouple@@U?$less@K@std@@V?$allocator@U?$pair@$$CBKPAVCCouple@@@std@@@3@$0A@@std@@@2@ABQAU342@@Z
_TEXT	SEGMENT PARA USE32 PUBLIC 'CODE'
_TEXT	ENDS
;	COMDAT ??Econst_iterator@?$_Tree@V?$_Tmap_traits@KPAVCCouple@@U?$less@K@std@@V?$allocator@U?$pair@$$CBKPAVCCouple@@@std@@@3@$0A@@std@@@std@@QAEAAV012@XZ
_TEXT	SEGMENT PARA USE32 PUBLIC 'CODE'
_TEXT	ENDS
;	COMDAT ?begin@?$vector@U_COUPLE_ITEM@@V?$allocator@U_COUPLE_ITEM@@@std@@@std@@QBE?AVconst_iterator@12@XZ
_TEXT	SEGMENT PARA USE32 PUBLIC 'CODE'
_TEXT	ENDS
;	COMDAT ?end@?$vector@U_COUPLE_ITEM@@V?$allocator@U_COUPLE_ITEM@@@std@@@std@@QBE?AVconst_iterator@12@XZ
_TEXT	SEGMENT PARA USE32 PUBLIC 'CODE'
_TEXT	ENDS
;	COMDAT ?max_size@?$allocator@U_COUPLE_ITEM@@@std@@QBEIXZ
_TEXT	SEGMENT PARA USE32 PUBLIC 'CODE'
_TEXT	ENDS
;	COMDAT ??8const_iterator@?$vector@V?$vector@U_COUPLE_ITEM@@V?$allocator@U_COUPLE_ITEM@@@std@@@std@@V?$allocator@V?$vector@U_COUPLE_ITEM@@V?$allocator@U_COUPLE_ITEM@@@std@@@std@@@2@@std@@QBE_NABV012@@Z
_TEXT	SEGMENT PARA USE32 PUBLIC 'CODE'
_TEXT	ENDS
;	COMDAT ??8const_iterator@?$vector@V?$vector@HV?$allocator@H@std@@@std@@V?$allocator@V?$vector@HV?$allocator@H@std@@@std@@@2@@std@@QBE_NABV012@@Z
_TEXT	SEGMENT PARA USE32 PUBLIC 'CODE'
_TEXT	ENDS
;	COMDAT ??0?$_Tmap_traits@KPAVCCouple@@U?$less@K@std@@V?$allocator@U?$pair@$$CBKPAVCCouple@@@std@@@3@$0A@@std@@QAE@U?$less@K@1@@Z
_TEXT	SEGMENT PARA USE32 PUBLIC 'CODE'
_TEXT	ENDS
;	COMDAT ?_Inc@const_iterator@?$_Tree@V?$_Tmap_traits@KPAVCCouple@@U?$less@K@std@@V?$allocator@U?$pair@$$CBKPAVCCouple@@@std@@@3@$0A@@std@@@std@@QAEXXZ
_TEXT	SEGMENT PARA USE32 PUBLIC 'CODE'
_TEXT	ENDS
;	COMDAT ??$_Iter_cat@Viterator@?$_Tree@V?$_Tmap_traits@KU_Friend@@U?$less@K@std@@V?$allocator@U?$pair@$$CBKU_Friend@@@std@@@3@$0A@@std@@@std@@@std@@YA?AUbidirectional_iterator_tag@0@ABViterator@?$_Tree@V?$_Tmap_traits@KU_Friend@@U?$less@K@std@@V?$allocator@U?$pair@$$CBKU_Friend@@@std@@@3@$0A@@std@@@0@@Z
_TEXT	SEGMENT PARA USE32 PUBLIC 'CODE'
_TEXT	ENDS
;	COMDAT ??$_Distance2@Viterator@?$_Tree@V?$_Tmap_traits@KU_Friend@@U?$less@K@std@@V?$allocator@U?$pair@$$CBKU_Friend@@@std@@@3@$0A@@std@@@std@@I@std@@YAXViterator@?$_Tree@V?$_Tmap_traits@KU_Friend@@U?$less@K@std@@V?$allocator@U?$pair@$$CBKU_Friend@@@std@@@3@$0A@@std@@@0@0AAIUbidirectional_iterator_tag@0@@Z
_TEXT	SEGMENT PARA USE32 PUBLIC 'CODE'
_TEXT	ENDS
;	COMDAT ??$_Copy_opt@PAJPAJ@std@@YAPAJPAJ00U_Scalar_ptr_iterator_tag@0@@Z
_TEXT	SEGMENT PARA USE32 PUBLIC 'CODE'
_TEXT	ENDS
;	COMDAT ??$_Uninitialized_copy@PAJPAJV?$allocator@J@std@@@std@@YAPAJPAJ00AAV?$allocator@J@0@@Z
_TEXT	SEGMENT PARA USE32 PUBLIC 'CODE'
_TEXT	ENDS
;	COMDAT ??$_Copy_backward_opt@PAJPAJ@std@@YAPAJPAJ00U_Scalar_ptr_iterator_tag@0@@Z
_TEXT	SEGMENT PARA USE32 PUBLIC 'CODE'
_TEXT	ENDS
;	COMDAT ??$_Ptr_cat@PAUtagDROPITEM@@PAU1@@std@@YA?AU_Nonscalar_ptr_iterator_tag@0@AAPAUtagDROPITEM@@0@Z
_TEXT	SEGMENT PARA USE32 PUBLIC 'CODE'
_TEXT	ENDS
;	COMDAT ??$_Destroy_range@UtagDROPITEM@@V?$allocator@UtagDROPITEM@@@std@@@std@@YAXPAUtagDROPITEM@@0AAV?$allocator@UtagDROPITEM@@@0@U_Nonscalar_ptr_iterator_tag@0@@Z
_TEXT	SEGMENT PARA USE32 PUBLIC 'CODE'
_TEXT	ENDS
;	COMDAT ??$_Destroy_range@KV?$allocator@K@std@@@std@@YAXPAK0AAV?$allocator@K@0@U_Scalar_ptr_iterator_tag@0@@Z
_TEXT	SEGMENT PARA USE32 PUBLIC 'CODE'
_TEXT	ENDS
;	COMDAT ??$_Destroy_range@JV?$allocator@J@std@@@std@@YAXPAJ0AAV?$allocator@J@0@U_Scalar_ptr_iterator_tag@0@@Z
_TEXT	SEGMENT PARA USE32 PUBLIC 'CODE'
_TEXT	ENDS
;	COMDAT ??$_Uninit_fill_n@JIJ@std@@YAXPAJIABJAAV?$allocator@J@0@U_Scalar_ptr_iterator_tag@0@@Z
_TEXT	SEGMENT PARA USE32 PUBLIC 'CODE'
_TEXT	ENDS
;	COMDAT ??$assign@Viterator@?$vector@HV?$allocator@H@std@@@std@@@?$vector@HV?$allocator@H@std@@@std@@QAEXViterator@01@0@Z
_TEXT	SEGMENT PARA USE32 PUBLIC 'CODE'
_TEXT	ENDS
;	COMDAT ??$_Distance@Viterator@?$_Tree@V?$_Tmap_traits@KPAVCCouple@@U?$less@K@std@@V?$allocator@U?$pair@$$CBKPAVCCouple@@@std@@@3@$0A@@std@@@std@@I@std@@YAXViterator@?$_Tree@V?$_Tmap_traits@KPAVCCouple@@U?$less@K@std@@V?$allocator@U?$pair@$$CBKPAVCCouple@@@std@@@3@$0A@@std@@@0@0AAI@Z
_TEXT	SEGMENT PARA USE32 PUBLIC 'CODE'
_TEXT	ENDS
;	COMDAT ??$copy@PAPAVCCouple@@PAPAV1@@std@@YAPAPAVCCouple@@PAPAV1@00@Z
_TEXT	SEGMENT PARA USE32 PUBLIC 'CODE'
_TEXT	ENDS
;	COMDAT ??$_Uninitialized_fill_n@PAHIHV?$allocator@H@std@@@std@@YAXPAHIABHAAV?$allocator@H@0@@Z
_TEXT	SEGMENT PARA USE32 PUBLIC 'CODE'
_TEXT	ENDS
;	COMDAT ??$_Destroy_range@PAVCCouple@@V?$allocator@PAVCCouple@@@std@@@std@@YAXPAPAVCCouple@@0AAV?$allocator@PAVCCouple@@@0@@Z
_TEXT	SEGMENT PARA USE32 PUBLIC 'CODE'
_TEXT	ENDS
;	COMDAT ??$_Uninitialized_fill_n@PAPAVCCouple@@IPAV1@V?$allocator@PAVCCouple@@@std@@@std@@YAXPAPAVCCouple@@IABQAV1@AAV?$allocator@PAVCCouple@@@0@@Z
_TEXT	SEGMENT PARA USE32 PUBLIC 'CODE'
_TEXT	ENDS
;	COMDAT ??$_Uninitialized_fill_n@PAU_COUPLE_ITEM@@IU1@V?$allocator@U_COUPLE_ITEM@@@std@@@std@@YAXPAU_COUPLE_ITEM@@IABU1@AAV?$allocator@U_COUPLE_ITEM@@@0@@Z
_TEXT	SEGMENT PARA USE32 PUBLIC 'CODE'
_TEXT	ENDS
;	COMDAT ??$_Allocate@H@std@@YAPAHIPAH@Z
_TEXT	SEGMENT PARA USE32 PUBLIC 'CODE'
_TEXT	ENDS
;	COMDAT ??$_Destroy_range@PAVITestCase@@V?$allocator@PAVITestCase@@@std@@@std@@YAXPAPAVITestCase@@0AAV?$allocator@PAVITestCase@@@0@@Z
_TEXT	SEGMENT PARA USE32 PUBLIC 'CODE'
_TEXT	ENDS
;	COMDAT ??$_Allocate@PAVITestCase@@@std@@YAPAPAVITestCase@@IPAPAV1@@Z
_TEXT	SEGMENT PARA USE32 PUBLIC 'CODE'
_TEXT	ENDS
;	COMDAT ??$_Destroy_range@HV?$allocator@H@std@@@std@@YAXPAH0AAV?$allocator@H@0@@Z
_TEXT	SEGMENT PARA USE32 PUBLIC 'CODE'
_TEXT	ENDS
;	COMDAT ??$_Ucopy@PAH@?$vector@HV?$allocator@H@std@@@std@@IAEPAHPAH00@Z
_TEXT	SEGMENT PARA USE32 PUBLIC 'CODE'
_TEXT	ENDS
;	COMDAT ??$fill@PAHH@std@@YAXPAH0ABH@Z
_TEXT	SEGMENT PARA USE32 PUBLIC 'CODE'
_TEXT	ENDS
;	COMDAT ??$copy_backward@PAHPAH@std@@YAPAHPAH00@Z
_TEXT	SEGMENT PARA USE32 PUBLIC 'CODE'
_TEXT	ENDS
;	COMDAT ??$copy@PAV?$vector@U_COUPLE_ITEM@@V?$allocator@U_COUPLE_ITEM@@@std@@@std@@PAV12@@std@@YAPAV?$vector@U_COUPLE_ITEM@@V?$allocator@U_COUPLE_ITEM@@@std@@@0@PAV10@00@Z
_TEXT	SEGMENT PARA USE32 PUBLIC 'CODE'
_TEXT	ENDS
;	COMDAT ??$_Destroy_range@V?$vector@U_COUPLE_ITEM@@V?$allocator@U_COUPLE_ITEM@@@std@@@std@@V?$allocator@V?$vector@U_COUPLE_ITEM@@V?$allocator@U_COUPLE_ITEM@@@std@@@std@@@2@@std@@YAXPAV?$vector@U_COUPLE_ITEM@@V?$allocator@U_COUPLE_ITEM@@@std@@@0@0AAV?$allocator@V?$vector@U_COUPLE_ITEM@@V?$allocator@U_COUPLE_ITEM@@@std@@@std@@@0@@Z
_TEXT	SEGMENT PARA USE32 PUBLIC 'CODE'
_TEXT	ENDS
;	COMDAT ??$_Ucopy@PAV?$vector@U_COUPLE_ITEM@@V?$allocator@U_COUPLE_ITEM@@@std@@@std@@@?$vector@V?$vector@U_COUPLE_ITEM@@V?$allocator@U_COUPLE_ITEM@@@std@@@std@@V?$allocator@V?$vector@U_COUPLE_ITEM@@V?$allocator@U_COUPLE_ITEM@@@std@@@std@@@2@@std@@IAEPAV?$vector@U_COUPLE_ITEM@@V?$allocator@U_COUPLE_ITEM@@@std@@@1@PAV21@00@Z
_TEXT	SEGMENT PARA USE32 PUBLIC 'CODE'
_TEXT	ENDS
;	COMDAT ??$fill@PAV?$vector@U_COUPLE_ITEM@@V?$allocator@U_COUPLE_ITEM@@@std@@@std@@V12@@std@@YAXPAV?$vector@U_COUPLE_ITEM@@V?$allocator@U_COUPLE_ITEM@@@std@@@0@0ABV10@@Z
_TEXT	SEGMENT PARA USE32 PUBLIC 'CODE'
_TEXT	ENDS
;	COMDAT ??$copy_backward@PAV?$vector@U_COUPLE_ITEM@@V?$allocator@U_COUPLE_ITEM@@@std@@@std@@PAV12@@std@@YAPAV?$vector@U_COUPLE_ITEM@@V?$allocator@U_COUPLE_ITEM@@@std@@@0@PAV10@00@Z
_TEXT	SEGMENT PARA USE32 PUBLIC 'CODE'
_TEXT	ENDS
;	COMDAT ??$_Allocate@V?$vector@U_COUPLE_ITEM@@V?$allocator@U_COUPLE_ITEM@@@std@@@std@@@std@@YAPAV?$vector@U_COUPLE_ITEM@@V?$allocator@U_COUPLE_ITEM@@@std@@@0@IPAV10@@Z
_TEXT	SEGMENT PARA USE32 PUBLIC 'CODE'
_TEXT	ENDS
;	COMDAT ??$copy@PAV?$vector@HV?$allocator@H@std@@@std@@PAV12@@std@@YAPAV?$vector@HV?$allocator@H@std@@@0@PAV10@00@Z
_TEXT	SEGMENT PARA USE32 PUBLIC 'CODE'
_TEXT	ENDS
;	COMDAT ??$_Destroy_range@V?$vector@HV?$allocator@H@std@@@std@@V?$allocator@V?$vector@HV?$allocator@H@std@@@std@@@2@@std@@YAXPAV?$vector@HV?$allocator@H@std@@@0@0AAV?$allocator@V?$vector@HV?$allocator@H@std@@@std@@@0@@Z
_TEXT	SEGMENT PARA USE32 PUBLIC 'CODE'
_TEXT	ENDS
;	COMDAT ??$_Ucopy@PAV?$vector@HV?$allocator@H@std@@@std@@@?$vector@V?$vector@HV?$allocator@H@std@@@std@@V?$allocator@V?$vector@HV?$allocator@H@std@@@std@@@2@@std@@IAEPAV?$vector@HV?$allocator@H@std@@@1@PAV21@00@Z
_TEXT	SEGMENT PARA USE32 PUBLIC 'CODE'
_TEXT	ENDS
;	COMDAT ??$fill@PAV?$vector@HV?$allocator@H@std@@@std@@V12@@std@@YAXPAV?$vector@HV?$allocator@H@std@@@0@0ABV10@@Z
_TEXT	SEGMENT PARA USE32 PUBLIC 'CODE'
_TEXT	ENDS
;	COMDAT ??$copy_backward@PAV?$vector@HV?$allocator@H@std@@@std@@PAV12@@std@@YAPAV?$vector@HV?$allocator@H@std@@@0@PAV10@00@Z
_TEXT	SEGMENT PARA USE32 PUBLIC 'CODE'
_TEXT	ENDS
;	COMDAT ??$_Allocate@V?$vector@HV?$allocator@H@std@@@std@@@std@@YAPAV?$vector@HV?$allocator@H@std@@@0@IPAV10@@Z
_TEXT	SEGMENT PARA USE32 PUBLIC 'CODE'
_TEXT	ENDS
;	COMDAT ??$_Destroy@U_Node@?$_Tree_nod@V?$_Tmap_traits@KPAVCCouple@@U?$less@K@std@@V?$allocator@U?$pair@$$CBKPAVCCouple@@@std@@@3@$0A@@std@@@std@@@std@@YAXPAU_Node@?$_Tree_nod@V?$_Tmap_traits@KPAVCCouple@@U?$less@K@std@@V?$allocator@U?$pair@$$CBKPAVCCouple@@@std@@@3@$0A@@std@@@0@@Z
_TEXT	SEGMENT PARA USE32 PUBLIC 'CODE'
_TEXT	ENDS
;	COMDAT ??$_Destroy@PAU_Node@?$_Tree_nod@V?$_Tmap_traits@KPAVCCouple@@U?$less@K@std@@V?$allocator@U?$pair@$$CBKPAVCCouple@@@std@@@3@$0A@@std@@@std@@@std@@YAXPAPAU_Node@?$_Tree_nod@V?$_Tmap_traits@KPAVCCouple@@U?$less@K@std@@V?$allocator@U?$pair@$$CBKPAVCCouple@@@std@@@3@$0A@@std@@@0@@Z
_TEXT	SEGMENT PARA USE32 PUBLIC 'CODE'
_TEXT	ENDS
;	COMDAT ??$_Ucopy@PAPAVCCouple@@@?$vector@PAVCCouple@@V?$allocator@PAVCCouple@@@std@@@std@@IAEPAPAVCCouple@@PAPAV2@00@Z
_TEXT	SEGMENT PARA USE32 PUBLIC 'CODE'
_TEXT	ENDS
;	COMDAT ??$fill@PAPAVCCouple@@PAV1@@std@@YAXPAPAVCCouple@@0ABQAV1@@Z
_TEXT	SEGMENT PARA USE32 PUBLIC 'CODE'
_TEXT	ENDS
;	COMDAT ??$copy_backward@PAPAVCCouple@@PAPAV1@@std@@YAPAPAVCCouple@@PAPAV1@00@Z
_TEXT	SEGMENT PARA USE32 PUBLIC 'CODE'
_TEXT	ENDS
;	COMDAT ??$_Allocate@PAVCCouple@@@std@@YAPAPAVCCouple@@IPAPAV1@@Z
_TEXT	SEGMENT PARA USE32 PUBLIC 'CODE'
_TEXT	ENDS
;	COMDAT ??$_Ucopy@PAU_COUPLE_ITEM@@@?$vector@U_COUPLE_ITEM@@V?$allocator@U_COUPLE_ITEM@@@std@@@std@@IAEPAU_COUPLE_ITEM@@PAU2@00@Z
_TEXT	SEGMENT PARA USE32 PUBLIC 'CODE'
_TEXT	ENDS
;	COMDAT ??$fill@PAU_COUPLE_ITEM@@U1@@std@@YAXPAU_COUPLE_ITEM@@0ABU1@@Z
_TEXT	SEGMENT PARA USE32 PUBLIC 'CODE'
_TEXT	ENDS
;	COMDAT ??$copy_backward@PAU_COUPLE_ITEM@@PAU1@@std@@YAPAU_COUPLE_ITEM@@PAU1@00@Z
_TEXT	SEGMENT PARA USE32 PUBLIC 'CODE'
_TEXT	ENDS
;	COMDAT ??$_Ucopy@Vconst_iterator@?$vector@HV?$allocator@H@std@@@std@@@?$vector@HV?$allocator@H@std@@@std@@IAEPAHVconst_iterator@01@0PAH@Z
_TEXT	SEGMENT PARA USE32 PUBLIC 'CODE'
_TEXT	ENDS
;	COMDAT ??$_Uninitialized_fill_n@PAV?$vector@U_COUPLE_ITEM@@V?$allocator@U_COUPLE_ITEM@@@std@@@std@@IV12@V?$allocator@V?$vector@U_COUPLE_ITEM@@V?$allocator@U_COUPLE_ITEM@@@std@@@std@@@2@@std@@YAXPAV?$vector@U_COUPLE_ITEM@@V?$allocator@U_COUPLE_ITEM@@@std@@@0@IABV10@AAV?$allocator@V?$vector@U_COUPLE_ITEM@@V?$allocator@U_COUPLE_ITEM@@@std@@@std@@@0@@Z
_TEXT	SEGMENT PARA USE32 PUBLIC 'CODE'
_TEXT	ENDS
;	COMDAT ??$_Uninitialized_fill_n@PAV?$vector@HV?$allocator@H@std@@@std@@IV12@V?$allocator@V?$vector@HV?$allocator@H@std@@@std@@@2@@std@@YAXPAV?$vector@HV?$allocator@H@std@@@0@IABV10@AAV?$allocator@V?$vector@HV?$allocator@H@std@@@std@@@0@@Z
_TEXT	SEGMENT PARA USE32 PUBLIC 'CODE'
_TEXT	ENDS
;	COMDAT ??$?0U?$pair@$$CBKPAVCCouple@@@std@@@?$allocator@PAU_Node@?$_Tree_nod@V?$_Tmap_traits@KPAVCCouple@@U?$less@K@std@@V?$allocator@U?$pair@$$CBKPAVCCouple@@@std@@@3@$0A@@std@@@std@@@std@@QAE@ABV?$allocator@U?$pair@$$CBKPAVCCouple@@@std@@@1@@Z
_TEXT	SEGMENT PARA USE32 PUBLIC 'CODE'
_TEXT	ENDS
;	COMDAT ??$_Allocate@U_Node@?$_Tree_nod@V?$_Tmap_traits@KPAVCCouple@@U?$less@K@std@@V?$allocator@U?$pair@$$CBKPAVCCouple@@@std@@@3@$0A@@std@@@std@@@std@@YAPAU_Node@?$_Tree_nod@V?$_Tmap_traits@KPAVCCouple@@U?$less@K@std@@V?$allocator@U?$pair@$$CBKPAVCCouple@@@std@@@3@$0A@@std@@@0@IPAU120@@Z
_TEXT	SEGMENT PARA USE32 PUBLIC 'CODE'
_TEXT	ENDS
;	COMDAT ??$_Ucopy@Vconst_iterator@?$vector@U_COUPLE_ITEM@@V?$allocator@U_COUPLE_ITEM@@@std@@@std@@@?$vector@U_COUPLE_ITEM@@V?$allocator@U_COUPLE_ITEM@@@std@@@std@@IAEPAU_COUPLE_ITEM@@Vconst_iterator@01@0PAU2@@Z
_TEXT	SEGMENT PARA USE32 PUBLIC 'CODE'
_TEXT	ENDS
;	COMDAT ??$_Destroy_range@U_COUPLE_ITEM@@V?$allocator@U_COUPLE_ITEM@@@std@@@std@@YAXPAU_COUPLE_ITEM@@0AAV?$allocator@U_COUPLE_ITEM@@@0@@Z
_TEXT	SEGMENT PARA USE32 PUBLIC 'CODE'
_TEXT	ENDS
;	COMDAT ??$_Allocate@U_COUPLE_ITEM@@@std@@YAPAU_COUPLE_ITEM@@IPAU1@@Z
_TEXT	SEGMENT PARA USE32 PUBLIC 'CODE'
_TEXT	ENDS
;	COMDAT ??$?0U?$pair@$$CBKPAVCCouple@@@std@@@?$allocator@U_Node@?$_Tree_nod@V?$_Tmap_traits@KPAVCCouple@@U?$less@K@std@@V?$allocator@U?$pair@$$CBKPAVCCouple@@@std@@@3@$0A@@std@@@std@@@std@@QAE@ABV?$allocator@U?$pair@$$CBKPAVCCouple@@@std@@@1@@Z
_TEXT	SEGMENT PARA USE32 PUBLIC 'CODE'
_TEXT	ENDS
;	COMDAT ??$_Construct@PAU_Node@?$_Tree_nod@V?$_Tmap_traits@KPAVCCouple@@U?$less@K@std@@V?$allocator@U?$pair@$$CBKPAVCCouple@@@std@@@3@$0A@@std@@@std@@PAU123@@std@@YAXPAPAU_Node@?$_Tree_nod@V?$_Tmap_traits@KPAVCCouple@@U?$less@K@std@@V?$allocator@U?$pair@$$CBKPAVCCouple@@@std@@@3@$0A@@std@@@0@ABQAU120@@Z
_TEXT	SEGMENT PARA USE32 PUBLIC 'CODE'
_TEXT	ENDS
;	COMDAT ?destroy@?$allocator@UtagDROPITEM@@@std@@QAEXPAUtagDROPITEM@@@Z
_TEXT	SEGMENT PARA USE32 PUBLIC 'CODE'
_TEXT	ENDS
;	COMDAT ??4?$vector@HV?$allocator@H@std@@@std@@QAEAAV01@ABV01@@Z
_TEXT	SEGMENT PARA USE32 PUBLIC 'CODE'
_TEXT	ENDS
;	COMDAT ??4?$vector@U_COUPLE_ITEM@@V?$allocator@U_COUPLE_ITEM@@@std@@@std@@QAEAAV01@ABV01@@Z
_TEXT	SEGMENT PARA USE32 PUBLIC 'CODE'
_TEXT	ENDS
;	COMDAT ?clear@?$vector@U_COUPLE_ITEM@@V?$allocator@U_COUPLE_ITEM@@@std@@@std@@QAEXXZ
_TEXT	SEGMENT PARA USE32 PUBLIC 'CODE'
_TEXT	ENDS
;	COMDAT ??$_Uninit_copy@JJ@std@@YAPAJPAJ00AAV?$allocator@J@0@U_Scalar_ptr_iterator_tag@0@@Z
_TEXT	SEGMENT PARA USE32 PUBLIC 'CODE'
_TEXT	ENDS
;	COMDAT ??$fill_n@PAJIJ@std@@YAXPAJIABJ@Z
_TEXT	SEGMENT PARA USE32 PUBLIC 'CODE'
_TEXT	ENDS
;	COMDAT ??$_Iter_cat@Viterator@?$vector@HV?$allocator@H@std@@@std@@@std@@YA?AUrandom_access_iterator_tag@0@ABViterator@?$vector@HV?$allocator@H@std@@@0@@Z
_TEXT	SEGMENT PARA USE32 PUBLIC 'CODE'
_TEXT	ENDS
;	COMDAT ??$_Assign@Viterator@?$vector@HV?$allocator@H@std@@@std@@@?$vector@HV?$allocator@H@std@@@std@@QAEXViterator@01@0Uinput_iterator_tag@1@@Z
_TEXT	SEGMENT PARA USE32 PUBLIC 'CODE'
_TEXT	ENDS
;	COMDAT ??$_Iter_cat@Viterator@?$_Tree@V?$_Tmap_traits@KPAVCCouple@@U?$less@K@std@@V?$allocator@U?$pair@$$CBKPAVCCouple@@@std@@@3@$0A@@std@@@std@@@std@@YA?AUbidirectional_iterator_tag@0@ABViterator@?$_Tree@V?$_Tmap_traits@KPAVCCouple@@U?$less@K@std@@V?$allocator@U?$pair@$$CBKPAVCCouple@@@std@@@3@$0A@@std@@@0@@Z
_TEXT	SEGMENT PARA USE32 PUBLIC 'CODE'
_TEXT	ENDS
;	COMDAT ??$_Distance2@Viterator@?$_Tree@V?$_Tmap_traits@KPAVCCouple@@U?$less@K@std@@V?$allocator@U?$pair@$$CBKPAVCCouple@@@std@@@3@$0A@@std@@@std@@I@std@@YAXViterator@?$_Tree@V?$_Tmap_traits@KPAVCCouple@@U?$less@K@std@@V?$allocator@U?$pair@$$CBKPAVCCouple@@@std@@@3@$0A@@std@@@0@0AAIUbidirectional_iterator_tag@0@@Z
_TEXT	SEGMENT PARA USE32 PUBLIC 'CODE'
_TEXT	ENDS
;	COMDAT ??$_Ptr_cat@VCCouple@@@std@@YA?AU_Scalar_ptr_iterator_tag@0@PAPAVCCouple@@0@Z
_TEXT	SEGMENT PARA USE32 PUBLIC 'CODE'
_TEXT	ENDS
;	COMDAT ??$_Copy_opt@PAPAVCCouple@@PAPAV1@@std@@YAPAPAVCCouple@@PAPAV1@00U_Scalar_ptr_iterator_tag@0@@Z
_TEXT	SEGMENT PARA USE32 PUBLIC 'CODE'
_TEXT	ENDS
;	COMDAT ??$_Uninit_fill_n@HIH@std@@YAXPAHIABHAAV?$allocator@H@0@U_Scalar_ptr_iterator_tag@0@@Z
_TEXT	SEGMENT PARA USE32 PUBLIC 'CODE'
_TEXT	ENDS
;	COMDAT ??$_Destroy_range@PAVCCouple@@V?$allocator@PAVCCouple@@@std@@@std@@YAXPAPAVCCouple@@0AAV?$allocator@PAVCCouple@@@0@U_Scalar_ptr_iterator_tag@0@@Z
_TEXT	SEGMENT PARA USE32 PUBLIC 'CODE'
_TEXT	ENDS
;	COMDAT ??$_Uninit_fill_n@PAVCCouple@@IPAV1@@std@@YAXPAPAVCCouple@@IABQAV1@AAV?$allocator@PAVCCouple@@@0@U_Scalar_ptr_iterator_tag@0@@Z
_TEXT	SEGMENT PARA USE32 PUBLIC 'CODE'
_TEXT	ENDS
;	COMDAT ??$_Ptr_cat@PAU_COUPLE_ITEM@@PAU1@@std@@YA?AU_Nonscalar_ptr_iterator_tag@0@AAPAU_COUPLE_ITEM@@0@Z
_TEXT	SEGMENT PARA USE32 PUBLIC 'CODE'
_TEXT	ENDS
;	COMDAT ??$_Uninit_fill_n@PAU_COUPLE_ITEM@@IU1@V?$allocator@U_COUPLE_ITEM@@@std@@@std@@YAXPAU_COUPLE_ITEM@@IABU1@AAV?$allocator@U_COUPLE_ITEM@@@0@U_Nonscalar_ptr_iterator_tag@0@@Z
_TEXT	SEGMENT PARA USE32 PUBLIC 'CODE'
_TEXT	ENDS
;	COMDAT ??$_Ptr_cat@VITestCase@@@std@@YA?AU_Scalar_ptr_iterator_tag@0@PAPAVITestCase@@0@Z
_TEXT	SEGMENT PARA USE32 PUBLIC 'CODE'
_TEXT	ENDS
;	COMDAT ??$_Destroy_range@PAVITestCase@@V?$allocator@PAVITestCase@@@std@@@std@@YAXPAPAVITestCase@@0AAV?$allocator@PAVITestCase@@@0@U_Scalar_ptr_iterator_tag@0@@Z
_TEXT	SEGMENT PARA USE32 PUBLIC 'CODE'
_TEXT	ENDS
;	COMDAT ??$_Destroy_range@HV?$allocator@H@std@@@std@@YAXPAH0AAV?$allocator@H@0@U_Scalar_ptr_iterator_tag@0@@Z
_TEXT	SEGMENT PARA USE32 PUBLIC 'CODE'
_TEXT	ENDS
;	COMDAT ??$_Uninitialized_copy@PAHPAHV?$allocator@H@std@@@std@@YAPAHPAH00AAV?$allocator@H@0@@Z
_TEXT	SEGMENT PARA USE32 PUBLIC 'CODE'
_TEXT	ENDS
;	COMDAT ??$_Copy_backward_opt@PAHPAH@std@@YAPAHPAH00U_Scalar_ptr_iterator_tag@0@@Z
_TEXT	SEGMENT PARA USE32 PUBLIC 'CODE'
_TEXT	ENDS
;	COMDAT ??$_Ptr_cat@PAV?$vector@U_COUPLE_ITEM@@V?$allocator@U_COUPLE_ITEM@@@std@@@std@@PAV12@@std@@YA?AU_Nonscalar_ptr_iterator_tag@0@AAPAV?$vector@U_COUPLE_ITEM@@V?$allocator@U_COUPLE_ITEM@@@std@@@0@0@Z
_TEXT	SEGMENT PARA USE32 PUBLIC 'CODE'
_TEXT	ENDS
;	COMDAT ??$_Copy_opt@PAV?$vector@U_COUPLE_ITEM@@V?$allocator@U_COUPLE_ITEM@@@std@@@std@@PAV12@@std@@YAPAV?$vector@U_COUPLE_ITEM@@V?$allocator@U_COUPLE_ITEM@@@std@@@0@PAV10@00U_Nonscalar_ptr_iterator_tag@0@@Z
_TEXT	SEGMENT PARA USE32 PUBLIC 'CODE'
_TEXT	ENDS
;	COMDAT ??$_Destroy_range@V?$vector@U_COUPLE_ITEM@@V?$allocator@U_COUPLE_ITEM@@@std@@@std@@V?$allocator@V?$vector@U_COUPLE_ITEM@@V?$allocator@U_COUPLE_ITEM@@@std@@@std@@@2@@std@@YAXPAV?$vector@U_COUPLE_ITEM@@V?$allocator@U_COUPLE_ITEM@@@std@@@0@0AAV?$allocator@V?$vector@U_COUPLE_ITEM@@V?$allocator@U_COUPLE_ITEM@@@std@@@std@@@0@U_Nonscalar_ptr_iterator_tag@0@@Z
_TEXT	SEGMENT PARA USE32 PUBLIC 'CODE'
_TEXT	ENDS
;	COMDAT ??$_Uninitialized_copy@PAV?$vector@U_COUPLE_ITEM@@V?$allocator@U_COUPLE_ITEM@@@std@@@std@@PAV12@V?$allocator@V?$vector@U_COUPLE_ITEM@@V?$allocator@U_COUPLE_ITEM@@@std@@@std@@@2@@std@@YAPAV?$vector@U_COUPLE_ITEM@@V?$allocator@U_COUPLE_ITEM@@@std@@@0@PAV10@00AAV?$allocator@V?$vector@U_COUPLE_ITEM@@V?$allocator@U_COUPLE_ITEM@@@std@@@std@@@0@@Z
_TEXT	SEGMENT PARA USE32 PUBLIC 'CODE'
_TEXT	ENDS
;	COMDAT ??$_Copy_backward_opt@PAV?$vector@U_COUPLE_ITEM@@V?$allocator@U_COUPLE_ITEM@@@std@@@std@@PAV12@@std@@YAPAV?$vector@U_COUPLE_ITEM@@V?$allocator@U_COUPLE_ITEM@@@std@@@0@PAV10@00U_Nonscalar_ptr_iterator_tag@0@@Z
_TEXT	SEGMENT PARA USE32 PUBLIC 'CODE'
_TEXT	ENDS
;	COMDAT ??$_Ptr_cat@PAV?$vector@HV?$allocator@H@std@@@std@@PAV12@@std@@YA?AU_Nonscalar_ptr_iterator_tag@0@AAPAV?$vector@HV?$allocator@H@std@@@0@0@Z
_TEXT	SEGMENT PARA USE32 PUBLIC 'CODE'
_TEXT	ENDS
;	COMDAT ??$_Copy_opt@PAV?$vector@HV?$allocator@H@std@@@std@@PAV12@@std@@YAPAV?$vector@HV?$allocator@H@std@@@0@PAV10@00U_Nonscalar_ptr_iterator_tag@0@@Z
_TEXT	SEGMENT PARA USE32 PUBLIC 'CODE'
_TEXT	ENDS
;	COMDAT ??$_Destroy_range@V?$vector@HV?$allocator@H@std@@@std@@V?$allocator@V?$vector@HV?$allocator@H@std@@@std@@@2@@std@@YAXPAV?$vector@HV?$allocator@H@std@@@0@0AAV?$allocator@V?$vector@HV?$allocator@H@std@@@std@@@0@U_Nonscalar_ptr_iterator_tag@0@@Z
_TEXT	SEGMENT PARA USE32 PUBLIC 'CODE'
_TEXT	ENDS
;	COMDAT ??$_Uninitialized_copy@PAV?$vector@HV?$allocator@H@std@@@std@@PAV12@V?$allocator@V?$vector@HV?$allocator@H@std@@@std@@@2@@std@@YAPAV?$vector@HV?$allocator@H@std@@@0@PAV10@00AAV?$allocator@V?$vector@HV?$allocator@H@std@@@std@@@0@@Z
_TEXT	SEGMENT PARA USE32 PUBLIC 'CODE'
_TEXT	ENDS
;	COMDAT ??$_Copy_backward_opt@PAV?$vector@HV?$allocator@H@std@@@std@@PAV12@@std@@YAPAV?$vector@HV?$allocator@H@std@@@0@PAV10@00U_Nonscalar_ptr_iterator_tag@0@@Z
_TEXT	SEGMENT PARA USE32 PUBLIC 'CODE'
_TEXT	ENDS
;	COMDAT ??$_Uninitialized_copy@PAPAVCCouple@@PAPAV1@V?$allocator@PAVCCouple@@@std@@@std@@YAPAPAVCCouple@@PAPAV1@00AAV?$allocator@PAVCCouple@@@0@@Z
_TEXT	SEGMENT PARA USE32 PUBLIC 'CODE'
_TEXT	ENDS
;	COMDAT ??$_Copy_backward_opt@PAPAVCCouple@@PAPAV1@@std@@YAPAPAVCCouple@@PAPAV1@00U_Scalar_ptr_iterator_tag@0@@Z
_TEXT	SEGMENT PARA USE32 PUBLIC 'CODE'
_TEXT	ENDS
;	COMDAT ??$_Uninitialized_copy@PAU_COUPLE_ITEM@@PAU1@V?$allocator@U_COUPLE_ITEM@@@std@@@std@@YAPAU_COUPLE_ITEM@@PAU1@00AAV?$allocator@U_COUPLE_ITEM@@@0@@Z
_TEXT	SEGMENT PARA USE32 PUBLIC 'CODE'
_TEXT	ENDS
;	COMDAT ??$_Copy_backward_opt@PAU_COUPLE_ITEM@@PAU1@@std@@YAPAU_COUPLE_ITEM@@PAU1@00U_Nonscalar_ptr_iterator_tag@0@@Z
_TEXT	SEGMENT PARA USE32 PUBLIC 'CODE'
_TEXT	ENDS
;	COMDAT ??$_Uninitialized_copy@Vconst_iterator@?$vector@HV?$allocator@H@std@@@std@@PAHV?$allocator@H@3@@std@@YAPAHVconst_iterator@?$vector@HV?$allocator@H@std@@@0@0PAHAAV?$allocator@H@0@@Z
_TEXT	SEGMENT PARA USE32 PUBLIC 'CODE'
_TEXT	ENDS
;	COMDAT ??$_Uninit_fill_n@PAV?$vector@U_COUPLE_ITEM@@V?$allocator@U_COUPLE_ITEM@@@std@@@std@@IV12@V?$allocator@V?$vector@U_COUPLE_ITEM@@V?$allocator@U_COUPLE_ITEM@@@std@@@std@@@2@@std@@YAXPAV?$vector@U_COUPLE_ITEM@@V?$allocator@U_COUPLE_ITEM@@@std@@@0@IABV10@AAV?$allocator@V?$vector@U_COUPLE_ITEM@@V?$allocator@U_COUPLE_ITEM@@@std@@@std@@@0@U_Nonscalar_ptr_iterator_tag@0@@Z
_TEXT	SEGMENT PARA USE32 PUBLIC 'CODE'
_TEXT	ENDS
;	COMDAT ??$_Uninit_fill_n@PAV?$vector@HV?$allocator@H@std@@@std@@IV12@V?$allocator@V?$vector@HV?$allocator@H@std@@@std@@@2@@std@@YAXPAV?$vector@HV?$allocator@H@std@@@0@IABV10@AAV?$allocator@V?$vector@HV?$allocator@H@std@@@std@@@0@U_Nonscalar_ptr_iterator_tag@0@@Z
_TEXT	SEGMENT PARA USE32 PUBLIC 'CODE'
_TEXT	ENDS
;	COMDAT ??$_Uninitialized_copy@Vconst_iterator@?$vector@U_COUPLE_ITEM@@V?$allocator@U_COUPLE_ITEM@@@std@@@std@@PAU_COUPLE_ITEM@@V?$allocator@U_COUPLE_ITEM@@@3@@std@@YAPAU_COUPLE_ITEM@@Vconst_iterator@?$vector@U_COUPLE_ITEM@@V?$allocator@U_COUPLE_ITEM@@@std@@@0@0PAU1@AAV?$allocator@U_COUPLE_ITEM@@@0@@Z
_TEXT	SEGMENT PARA USE32 PUBLIC 'CODE'
_TEXT	ENDS
;	COMDAT ??$_Destroy_range@U_COUPLE_ITEM@@V?$allocator@U_COUPLE_ITEM@@@std@@@std@@YAXPAU_COUPLE_ITEM@@0AAV?$allocator@U_COUPLE_ITEM@@@0@U_Nonscalar_ptr_iterator_tag@0@@Z
_TEXT	SEGMENT PARA USE32 PUBLIC 'CODE'
_TEXT	ENDS
;	COMDAT ??$_Destroy@UtagDROPITEM@@@std@@YAXPAUtagDROPITEM@@@Z
_TEXT	SEGMENT PARA USE32 PUBLIC 'CODE'
_TEXT	ENDS
;	COMDAT ??$copy@PAHPAH@std@@YAPAHPAH00@Z
_TEXT	SEGMENT PARA USE32 PUBLIC 'CODE'
_TEXT	ENDS
;	COMDAT ??$copy@PAU_COUPLE_ITEM@@PAU1@@std@@YAPAU_COUPLE_ITEM@@PAU1@00@Z
_TEXT	SEGMENT PARA USE32 PUBLIC 'CODE'
_TEXT	ENDS
;	COMDAT ?erase@?$vector@HV?$allocator@H@std@@@std@@QAE?AViterator@12@V312@0@Z
_TEXT	SEGMENT PARA USE32 PUBLIC 'CODE'
_TEXT	ENDS
;	COMDAT ?construct@?$allocator@V?$vector@U_COUPLE_ITEM@@V?$allocator@U_COUPLE_ITEM@@@std@@@std@@@std@@QAEXPAV?$vector@U_COUPLE_ITEM@@V?$allocator@U_COUPLE_ITEM@@@std@@@2@ABV32@@Z
_TEXT	SEGMENT PARA USE32 PUBLIC 'CODE'
_TEXT	ENDS
;	COMDAT ?destroy@?$allocator@V?$vector@U_COUPLE_ITEM@@V?$allocator@U_COUPLE_ITEM@@@std@@@std@@@std@@QAEXPAV?$vector@U_COUPLE_ITEM@@V?$allocator@U_COUPLE_ITEM@@@std@@@2@@Z
_TEXT	SEGMENT PARA USE32 PUBLIC 'CODE'
_TEXT	ENDS
;	COMDAT ?construct@?$allocator@V?$vector@HV?$allocator@H@std@@@std@@@std@@QAEXPAV?$vector@HV?$allocator@H@std@@@2@ABV32@@Z
_TEXT	SEGMENT PARA USE32 PUBLIC 'CODE'
_TEXT	ENDS
;	COMDAT ?destroy@?$allocator@V?$vector@HV?$allocator@H@std@@@std@@@std@@QAEXPAV?$vector@HV?$allocator@H@std@@@2@@Z
_TEXT	SEGMENT PARA USE32 PUBLIC 'CODE'
_TEXT	ENDS
;	COMDAT ?construct@?$allocator@U_COUPLE_ITEM@@@std@@QAEXPAU_COUPLE_ITEM@@ABU3@@Z
_TEXT	SEGMENT PARA USE32 PUBLIC 'CODE'
_TEXT	ENDS
;	COMDAT ?destroy@?$allocator@U_COUPLE_ITEM@@@std@@QAEXPAU_COUPLE_ITEM@@@Z
_TEXT	SEGMENT PARA USE32 PUBLIC 'CODE'
_TEXT	ENDS
;	COMDAT ??9const_iterator@?$vector@HV?$allocator@H@std@@@std@@QBE_NABV012@@Z
_TEXT	SEGMENT PARA USE32 PUBLIC 'CODE'
_TEXT	ENDS
;	COMDAT ??8const_iterator@?$vector@HV?$allocator@H@std@@@std@@QBE_NABV012@@Z
_TEXT	SEGMENT PARA USE32 PUBLIC 'CODE'
_TEXT	ENDS
;	COMDAT ??$insert@Viterator@?$vector@HV?$allocator@H@std@@@std@@@?$vector@HV?$allocator@H@std@@@std@@QAEXViterator@01@00@Z
_TEXT	SEGMENT PARA USE32 PUBLIC 'CODE'
_TEXT	ENDS
;	COMDAT ??$fill_n@PAHIH@std@@YAXPAHIABH@Z
_TEXT	SEGMENT PARA USE32 PUBLIC 'CODE'
_TEXT	ENDS
;	COMDAT ??$fill_n@PAPAVCCouple@@IPAV1@@std@@YAXPAPAVCCouple@@IABQAV1@@Z
_TEXT	SEGMENT PARA USE32 PUBLIC 'CODE'
_TEXT	ENDS
;	COMDAT ??$_Uninit_copy@HH@std@@YAPAHPAH00AAV?$allocator@H@0@U_Scalar_ptr_iterator_tag@0@@Z
_TEXT	SEGMENT PARA USE32 PUBLIC 'CODE'
_TEXT	ENDS
;	COMDAT ??$_Uninit_copy@PAV?$vector@U_COUPLE_ITEM@@V?$allocator@U_COUPLE_ITEM@@@std@@@std@@PAV12@V?$allocator@V?$vector@U_COUPLE_ITEM@@V?$allocator@U_COUPLE_ITEM@@@std@@@std@@@2@@std@@YAPAV?$vector@U_COUPLE_ITEM@@V?$allocator@U_COUPLE_ITEM@@@std@@@0@PAV10@00AAV?$allocator@V?$vector@U_COUPLE_ITEM@@V?$allocator@U_COUPLE_ITEM@@@std@@@std@@@0@U_Nonscalar_ptr_iterator_tag@0@@Z
_TEXT	SEGMENT PARA USE32 PUBLIC 'CODE'
_TEXT	ENDS
;	COMDAT ??$_Uninit_copy@PAV?$vector@HV?$allocator@H@std@@@std@@PAV12@V?$allocator@V?$vector@HV?$allocator@H@std@@@std@@@2@@std@@YAPAV?$vector@HV?$allocator@H@std@@@0@PAV10@00AAV?$allocator@V?$vector@HV?$allocator@H@std@@@std@@@0@U_Nonscalar_ptr_iterator_tag@0@@Z
_TEXT	SEGMENT PARA USE32 PUBLIC 'CODE'
_TEXT	ENDS
;	COMDAT ??$_Uninit_copy@PAVCCouple@@PAV1@@std@@YAPAPAVCCouple@@PAPAV1@00AAV?$allocator@PAVCCouple@@@0@U_Scalar_ptr_iterator_tag@0@@Z
_TEXT	SEGMENT PARA USE32 PUBLIC 'CODE'
_TEXT	ENDS
;	COMDAT ??$_Uninit_copy@PAU_COUPLE_ITEM@@PAU1@V?$allocator@U_COUPLE_ITEM@@@std@@@std@@YAPAU_COUPLE_ITEM@@PAU1@00AAV?$allocator@U_COUPLE_ITEM@@@0@U_Nonscalar_ptr_iterator_tag@0@@Z
_TEXT	SEGMENT PARA USE32 PUBLIC 'CODE'
_TEXT	ENDS
;	COMDAT ??$_Ptr_cat@Vconst_iterator@?$vector@HV?$allocator@H@std@@@std@@PAH@std@@YA?AU_Nonscalar_ptr_iterator_tag@0@AAVconst_iterator@?$vector@HV?$allocator@H@std@@@0@AAPAH@Z
_TEXT	SEGMENT PARA USE32 PUBLIC 'CODE'
_TEXT	ENDS
;	COMDAT ??$_Uninit_copy@Vconst_iterator@?$vector@HV?$allocator@H@std@@@std@@PAHV?$allocator@H@3@@std@@YAPAHVconst_iterator@?$vector@HV?$allocator@H@std@@@0@0PAHAAV?$allocator@H@0@U_Nonscalar_ptr_iterator_tag@0@@Z
_TEXT	SEGMENT PARA USE32 PUBLIC 'CODE'
_TEXT	ENDS
;	COMDAT ??$_Ptr_cat@Vconst_iterator@?$vector@U_COUPLE_ITEM@@V?$allocator@U_COUPLE_ITEM@@@std@@@std@@PAU_COUPLE_ITEM@@@std@@YA?AU_Nonscalar_ptr_iterator_tag@0@AAVconst_iterator@?$vector@U_COUPLE_ITEM@@V?$allocator@U_COUPLE_ITEM@@@std@@@0@AAPAU_COUPLE_ITEM@@@Z
_TEXT	SEGMENT PARA USE32 PUBLIC 'CODE'
_TEXT	ENDS
;	COMDAT ??$_Uninit_copy@Vconst_iterator@?$vector@U_COUPLE_ITEM@@V?$allocator@U_COUPLE_ITEM@@@std@@@std@@PAU_COUPLE_ITEM@@V?$allocator@U_COUPLE_ITEM@@@3@@std@@YAPAU_COUPLE_ITEM@@Vconst_iterator@?$vector@U_COUPLE_ITEM@@V?$allocator@U_COUPLE_ITEM@@@std@@@0@0PAU1@AAV?$allocator@U_COUPLE_ITEM@@@0@U_Nonscalar_ptr_iterator_tag@0@@Z
_TEXT	SEGMENT PARA USE32 PUBLIC 'CODE'
_TEXT	ENDS
;	COMDAT ??$_Copy_opt@PAHPAH@std@@YAPAHPAH00U_Scalar_ptr_iterator_tag@0@@Z
_TEXT	SEGMENT PARA USE32 PUBLIC 'CODE'
_TEXT	ENDS
;	COMDAT ??$_Copy_opt@PAU_COUPLE_ITEM@@PAU1@@std@@YAPAU_COUPLE_ITEM@@PAU1@00U_Nonscalar_ptr_iterator_tag@0@@Z
_TEXT	SEGMENT PARA USE32 PUBLIC 'CODE'
_TEXT	ENDS
;	COMDAT ??$_Construct@V?$vector@U_COUPLE_ITEM@@V?$allocator@U_COUPLE_ITEM@@@std@@@std@@V12@@std@@YAXPAV?$vector@U_COUPLE_ITEM@@V?$allocator@U_COUPLE_ITEM@@@std@@@0@ABV10@@Z
_TEXT	SEGMENT PARA USE32 PUBLIC 'CODE'
_TEXT	ENDS
;	COMDAT ??$_Destroy@V?$vector@U_COUPLE_ITEM@@V?$allocator@U_COUPLE_ITEM@@@std@@@std@@@std@@YAXPAV?$vector@U_COUPLE_ITEM@@V?$allocator@U_COUPLE_ITEM@@@std@@@0@@Z
_TEXT	SEGMENT PARA USE32 PUBLIC 'CODE'
_TEXT	ENDS
;	COMDAT ??$_Construct@V?$vector@HV?$allocator@H@std@@@std@@V12@@std@@YAXPAV?$vector@HV?$allocator@H@std@@@0@ABV10@@Z
_TEXT	SEGMENT PARA USE32 PUBLIC 'CODE'
_TEXT	ENDS
;	COMDAT ??$_Destroy@V?$vector@HV?$allocator@H@std@@@std@@@std@@YAXPAV?$vector@HV?$allocator@H@std@@@0@@Z
_TEXT	SEGMENT PARA USE32 PUBLIC 'CODE'
_TEXT	ENDS
;	COMDAT ??$_Construct@U_COUPLE_ITEM@@U1@@std@@YAXPAU_COUPLE_ITEM@@ABU1@@Z
_TEXT	SEGMENT PARA USE32 PUBLIC 'CODE'
_TEXT	ENDS
;	COMDAT ??$_Destroy@U_COUPLE_ITEM@@@std@@YAXPAU_COUPLE_ITEM@@@Z
_TEXT	SEGMENT PARA USE32 PUBLIC 'CODE'
_TEXT	ENDS
;	COMDAT ??_G?$vector@U_COUPLE_ITEM@@V?$allocator@U_COUPLE_ITEM@@@std@@@std@@QAEPAXI@Z
_TEXT	SEGMENT PARA USE32 PUBLIC 'CODE'
_TEXT	ENDS
;	COMDAT ??_G?$vector@HV?$allocator@H@std@@@std@@QAEPAXI@Z
_TEXT	SEGMENT PARA USE32 PUBLIC 'CODE'
_TEXT	ENDS
;	COMDAT ?construct@?$allocator@H@std@@QAEXPAHABH@Z
_TEXT	SEGMENT PARA USE32 PUBLIC 'CODE'
_TEXT	ENDS
;	COMDAT ?destroy@?$allocator@H@std@@QAEXPAH@Z
_TEXT	SEGMENT PARA USE32 PUBLIC 'CODE'
_TEXT	ENDS
;	COMDAT ??Econst_iterator@?$vector@HV?$allocator@H@std@@@std@@QAEAAV012@XZ
_TEXT	SEGMENT PARA USE32 PUBLIC 'CODE'
_TEXT	ENDS
;	COMDAT ??Dconst_iterator@?$vector@U_COUPLE_ITEM@@V?$allocator@U_COUPLE_ITEM@@@std@@@std@@QBEABU_COUPLE_ITEM@@XZ
_TEXT	SEGMENT PARA USE32 PUBLIC 'CODE'
_TEXT	ENDS
;	COMDAT ??Econst_iterator@?$vector@U_COUPLE_ITEM@@V?$allocator@U_COUPLE_ITEM@@@std@@@std@@QAEAAV012@XZ
_TEXT	SEGMENT PARA USE32 PUBLIC 'CODE'
_TEXT	ENDS
;	COMDAT ??9const_iterator@?$vector@U_COUPLE_ITEM@@V?$allocator@U_COUPLE_ITEM@@@std@@@std@@QBE_NABV012@@Z
_TEXT	SEGMENT PARA USE32 PUBLIC 'CODE'
_TEXT	ENDS
;	COMDAT ??8const_iterator@?$vector@U_COUPLE_ITEM@@V?$allocator@U_COUPLE_ITEM@@@std@@@std@@QBE_NABV012@@Z
_TEXT	SEGMENT PARA USE32 PUBLIC 'CODE'
_TEXT	ENDS
;	COMDAT ??$_Insert@Viterator@?$vector@HV?$allocator@H@std@@@std@@@?$vector@HV?$allocator@H@std@@@std@@QAEXViterator@01@00Uforward_iterator_tag@1@@Z
_TEXT	SEGMENT PARA USE32 PUBLIC 'CODE'
_TEXT	ENDS
;	COMDAT ??$_Construct@HH@std@@YAXPAHABH@Z
_TEXT	SEGMENT PARA USE32 PUBLIC 'CODE'
_TEXT	ENDS
;	COMDAT ??$_Destroy@H@std@@YAXPAH@Z
_TEXT	SEGMENT PARA USE32 PUBLIC 'CODE'
_TEXT	ENDS
;	COMDAT ??$_Distance@Viterator@?$vector@HV?$allocator@H@std@@@std@@I@std@@YAXViterator@?$vector@HV?$allocator@H@std@@@0@0AAI@Z
_TEXT	SEGMENT PARA USE32 PUBLIC 'CODE'
_TEXT	ENDS
;	COMDAT ??$_Ucopy@Viterator@?$vector@HV?$allocator@H@std@@@std@@@?$vector@HV?$allocator@H@std@@@std@@IAEPAHViterator@01@0PAH@Z
_TEXT	SEGMENT PARA USE32 PUBLIC 'CODE'
_TEXT	ENDS
;	COMDAT ??$advance@Viterator@?$vector@HV?$allocator@H@std@@@std@@H@std@@YAXAAViterator@?$vector@HV?$allocator@H@std@@@0@H@Z
_TEXT	SEGMENT PARA USE32 PUBLIC 'CODE'
_TEXT	ENDS
;	COMDAT ??$copy@Viterator@?$vector@HV?$allocator@H@std@@@std@@PAH@std@@YAPAHViterator@?$vector@HV?$allocator@H@std@@@0@0PAH@Z
_TEXT	SEGMENT PARA USE32 PUBLIC 'CODE'
_TEXT	ENDS
;	COMDAT ??$_Distance2@Viterator@?$vector@HV?$allocator@H@std@@@std@@I@std@@YAXViterator@?$vector@HV?$allocator@H@std@@@0@0AAIUrandom_access_iterator_tag@0@@Z
_TEXT	SEGMENT PARA USE32 PUBLIC 'CODE'
_TEXT	ENDS
;	COMDAT ??$_Uninitialized_copy@Viterator@?$vector@HV?$allocator@H@std@@@std@@PAHV?$allocator@H@3@@std@@YAPAHViterator@?$vector@HV?$allocator@H@std@@@0@0PAHAAV?$allocator@H@0@@Z
_TEXT	SEGMENT PARA USE32 PUBLIC 'CODE'
_TEXT	ENDS
;	COMDAT ??$_Advance@Viterator@?$vector@HV?$allocator@H@std@@@std@@H@std@@YAXAAViterator@?$vector@HV?$allocator@H@std@@@0@HUrandom_access_iterator_tag@0@@Z
_TEXT	SEGMENT PARA USE32 PUBLIC 'CODE'
_TEXT	ENDS
;	COMDAT ??$_Ptr_cat@Viterator@?$vector@HV?$allocator@H@std@@@std@@PAH@std@@YA?AU_Nonscalar_ptr_iterator_tag@0@AAViterator@?$vector@HV?$allocator@H@std@@@0@AAPAH@Z
_TEXT	SEGMENT PARA USE32 PUBLIC 'CODE'
_TEXT	ENDS
;	COMDAT ??$_Copy_opt@Viterator@?$vector@HV?$allocator@H@std@@@std@@PAH@std@@YAPAHViterator@?$vector@HV?$allocator@H@std@@@0@0PAHU_Nonscalar_ptr_iterator_tag@0@@Z
_TEXT	SEGMENT PARA USE32 PUBLIC 'CODE'
_TEXT	ENDS
;	COMDAT ??Eiterator@?$vector@HV?$allocator@H@std@@@std@@QAEAAV012@XZ
_TEXT	SEGMENT PARA USE32 PUBLIC 'CODE'
_TEXT	ENDS
;	COMDAT ??$_Uninit_copy@Viterator@?$vector@HV?$allocator@H@std@@@std@@PAHV?$allocator@H@3@@std@@YAPAHViterator@?$vector@HV?$allocator@H@std@@@0@0PAHAAV?$allocator@H@0@U_Nonscalar_ptr_iterator_tag@0@@Z
_TEXT	SEGMENT PARA USE32 PUBLIC 'CODE'
_TEXT	ENDS
;	COMDAT ?_Ptr_cat@std@@YA?AU_Scalar_ptr_iterator_tag@1@PAH0@Z
_TEXT	SEGMENT PARA USE32 PUBLIC 'CODE'
_TEXT	ENDS
;	COMDAT ?_Ptr_cat@std@@YA?AU_Scalar_ptr_iterator_tag@1@PAJ0@Z
_TEXT	SEGMENT PARA USE32 PUBLIC 'CODE'
_TEXT	ENDS
;	COMDAT ??9const_iterator@?$_Tree@V?$_Tmap_traits@KU_Friend@@U?$less@K@std@@V?$allocator@U?$pair@$$CBKU_Friend@@@std@@@3@$0A@@std@@@std@@QBE_NABV012@@Z
_TEXT	SEGMENT PARA USE32 PUBLIC 'CODE'
_TEXT	ENDS
;	COMDAT ??8const_iterator@?$_Tree@V?$_Tmap_traits@KU_Friend@@U?$less@K@std@@V?$allocator@U?$pair@$$CBKU_Friend@@@std@@@3@$0A@@std@@@std@@QBE_NABV012@@Z
_TEXT	SEGMENT PARA USE32 PUBLIC 'CODE'
_TEXT	ENDS
;	COMDAT ??Eiterator@?$_Tree@V?$_Tmap_traits@KU_Friend@@U?$less@K@std@@V?$allocator@U?$pair@$$CBKU_Friend@@@std@@@3@$0A@@std@@@std@@QAEAAV012@XZ
_TEXT	SEGMENT PARA USE32 PUBLIC 'CODE'
_TEXT	ENDS
;	COMDAT ??Econst_iterator@?$_Tree@V?$_Tmap_traits@KU_Friend@@U?$less@K@std@@V?$allocator@U?$pair@$$CBKU_Friend@@@std@@@3@$0A@@std@@@std@@QAEAAV012@XZ
_TEXT	SEGMENT PARA USE32 PUBLIC 'CODE'
_TEXT	ENDS
;	COMDAT ?_Inc@const_iterator@?$_Tree@V?$_Tmap_traits@KU_Friend@@U?$less@K@std@@V?$allocator@U?$pair@$$CBKU_Friend@@@std@@@3@$0A@@std@@@std@@QAEXXZ
_TEXT	SEGMENT PARA USE32 PUBLIC 'CODE'
_TEXT	ENDS
;	COMDAT ?_Min@?$_Tree@V?$_Tmap_traits@KU_Friend@@U?$less@K@std@@V?$allocator@U?$pair@$$CBKU_Friend@@@std@@@3@$0A@@std@@@std@@KAPAU_Node@?$_Tree_nod@V?$_Tmap_traits@KU_Friend@@U?$less@K@std@@V?$allocator@U?$pair@$$CBKU_Friend@@@std@@@3@$0A@@std@@@2@PAU342@@Z
_TEXT	SEGMENT PARA USE32 PUBLIC 'CODE'
_TEXT	ENDS
;	COMDAT ?_Left@?$_Tree@V?$_Tmap_traits@KU_Friend@@U?$less@K@std@@V?$allocator@U?$pair@$$CBKU_Friend@@@std@@@3@$0A@@std@@@std@@KAAAPAU_Node@?$_Tree_nod@V?$_Tmap_traits@KU_Friend@@U?$less@K@std@@V?$allocator@U?$pair@$$CBKU_Friend@@@std@@@3@$0A@@std@@@2@PAU342@@Z
_TEXT	SEGMENT PARA USE32 PUBLIC 'CODE'
_TEXT	ENDS
;	COMDAT ?_Isnil@?$_Tree@V?$_Tmap_traits@KU_Friend@@U?$less@K@std@@V?$allocator@U?$pair@$$CBKU_Friend@@@std@@@3@$0A@@std@@@std@@KAAADPAU_Node@?$_Tree_nod@V?$_Tmap_traits@KU_Friend@@U?$less@K@std@@V?$allocator@U?$pair@$$CBKU_Friend@@@std@@@3@$0A@@std@@@2@@Z
_TEXT	SEGMENT PARA USE32 PUBLIC 'CODE'
_TEXT	ENDS
;	COMDAT ?_Parent@?$_Tree@V?$_Tmap_traits@KU_Friend@@U?$less@K@std@@V?$allocator@U?$pair@$$CBKU_Friend@@@std@@@3@$0A@@std@@@std@@KAAAPAU_Node@?$_Tree_nod@V?$_Tmap_traits@KU_Friend@@U?$less@K@std@@V?$allocator@U?$pair@$$CBKU_Friend@@@std@@@3@$0A@@std@@@2@PAU342@@Z
_TEXT	SEGMENT PARA USE32 PUBLIC 'CODE'
_TEXT	ENDS
;	COMDAT ?_Right@?$_Tree@V?$_Tmap_traits@KU_Friend@@U?$less@K@std@@V?$allocator@U?$pair@$$CBKU_Friend@@@std@@@3@$0A@@std@@@std@@KAAAPAU_Node@?$_Tree_nod@V?$_Tmap_traits@KU_Friend@@U?$less@K@std@@V?$allocator@U?$pair@$$CBKU_Friend@@@std@@@3@$0A@@std@@@2@PAU342@@Z
_TEXT	SEGMENT PARA USE32 PUBLIC 'CODE'
_TEXT	ENDS
;	COMDAT ?_Psave@?$_Facetptr@V?$ctype@G@std@@@std@@2PBVfacet@locale@2@B
_DATA	SEGMENT DWORD USE32 PUBLIC 'DATA'
_DATA	ENDS
;	COMDAT ?_Psave@?$_Facetptr@V?$ctype@D@std@@@std@@2PBVfacet@locale@2@B
_DATA	SEGMENT DWORD USE32 PUBLIC 'DATA'
_DATA	ENDS
;	COMDAT ??3@YAXPAX0@Z
_TEXT	SEGMENT PARA USE32 PUBLIC 'CODE'
_TEXT	ENDS
;	COMDAT ??2@YAPAXIPAX@Z
_TEXT	SEGMENT PARA USE32 PUBLIC 'CODE'
_TEXT	ENDS
;	COMDAT ??$swap@D@std@@YAXAAD0@Z
_TEXT	SEGMENT PARA USE32 PUBLIC 'CODE'
_TEXT	ENDS
;	COMDAT __TI3?AVout_of_range@std@@
xdata$x	SEGMENT DWORD USE32 PUBLIC 'CONST'
xdata$x	ENDS
;	COMDAT ??1out_of_range@std@@UAE@XZ
_TEXT	SEGMENT PARA USE32 PUBLIC 'CODE'
_TEXT	ENDS
;	COMDAT ??_7out_of_range@std@@6B@
CONST	SEGMENT DWORD USE32 PUBLIC 'CONST'
CONST	ENDS
;	COMDAT ??_Gout_of_range@std@@UAEPAXI@Z
_TEXT	SEGMENT PARA USE32 PUBLIC 'CODE'
_TEXT	ENDS
;	COMDAT ?what@logic_error@std@@UBEPBDXZ
_TEXT	SEGMENT PARA USE32 PUBLIC 'CODE'
_TEXT	ENDS
;	COMDAT ?c_str@?$basic_string@DU?$char_traits@D@std@@V?$allocator@D@2@@std@@QBEPBDXZ
_TEXT	SEGMENT PARA USE32 PUBLIC 'CODE'
_TEXT	ENDS
;	COMDAT ??1logic_error@std@@UAE@XZ
_TEXT	SEGMENT PARA USE32 PUBLIC 'CODE'
_TEXT	ENDS
;	COMDAT ??_7logic_error@std@@6B@
CONST	SEGMENT DWORD USE32 PUBLIC 'CONST'
CONST	ENDS
;	COMDAT ??_Glogic_error@std@@UAEPAXI@Z
_TEXT	SEGMENT PARA USE32 PUBLIC 'CODE'
_TEXT	ENDS
;	COMDAT __CTA3?AVout_of_range@std@@
xdata$x	SEGMENT DWORD USE32 PUBLIC 'CONST'
xdata$x	ENDS
;	COMDAT __CT??_R0?AVout_of_range@std@@@8??0out_of_range@std@@QAE@ABV01@@Z40
xdata$x	SEGMENT DWORD USE32 PUBLIC 'CONST'
xdata$x	ENDS
;	COMDAT ??_R0?AVout_of_range@std@@@8
_DATA	SEGMENT DWORD USE32 PUBLIC 'DATA'
_DATA	ENDS
;	COMDAT ??0out_of_range@std@@QAE@ABV01@@Z
_TEXT	SEGMENT PARA USE32 PUBLIC 'CODE'
_TEXT	ENDS
;	COMDAT ??0logic_error@std@@QAE@ABV01@@Z
_TEXT	SEGMENT PARA USE32 PUBLIC 'CODE'
_TEXT	ENDS
;	COMDAT ??0?$basic_string@DU?$char_traits@D@std@@V?$allocator@D@2@@std@@QAE@ABV01@@Z
_TEXT	SEGMENT PARA USE32 PUBLIC 'CODE'
_TEXT	ENDS
;	COMDAT ??0?$_String_val@DV?$allocator@D@std@@@std@@IAE@V?$allocator@D@1@@Z
_TEXT	SEGMENT PARA USE32 PUBLIC 'CODE'
_TEXT	ENDS
;	COMDAT ??0?$allocator@D@std@@QAE@ABV01@@Z
_TEXT	SEGMENT PARA USE32 PUBLIC 'CODE'
_TEXT	ENDS
;	COMDAT ?_Tidy@?$basic_string@DU?$char_traits@D@std@@V?$allocator@D@2@@std@@IAEX_NI@Z
_TEXT	SEGMENT PARA USE32 PUBLIC 'CODE'
_TEXT	ENDS
;	COMDAT ?copy@?$char_traits@D@std@@SAPADPADPBDI@Z
_TEXT	SEGMENT PARA USE32 PUBLIC 'CODE'
_TEXT	ENDS
;	COMDAT ?deallocate@?$allocator@D@std@@QAEXPADI@Z
_TEXT	SEGMENT PARA USE32 PUBLIC 'CODE'
_TEXT	ENDS
;	COMDAT ?_Eos@?$basic_string@DU?$char_traits@D@std@@V?$allocator@D@2@@std@@IAEXI@Z
_TEXT	SEGMENT PARA USE32 PUBLIC 'CODE'
_TEXT	ENDS
;	COMDAT ?assign@?$char_traits@D@std@@SAXAADABD@Z
_TEXT	SEGMENT PARA USE32 PUBLIC 'CODE'
_TEXT	ENDS
;	COMDAT ?_Myptr@?$basic_string@DU?$char_traits@D@std@@V?$allocator@D@2@@std@@QAEPADXZ
_TEXT	SEGMENT PARA USE32 PUBLIC 'CODE'
_TEXT	ENDS
;	COMDAT ?assign@?$basic_string@DU?$char_traits@D@std@@V?$allocator@D@2@@std@@QAEAAV12@ABV12@II@Z
_TEXT	SEGMENT PARA USE32 PUBLIC 'CODE'
_TEXT	ENDS
;	COMDAT ?erase@?$basic_string@DU?$char_traits@D@std@@V?$allocator@D@2@@std@@QAEAAV12@II@Z
_TEXT	SEGMENT PARA USE32 PUBLIC 'CODE'
_TEXT	ENDS
;	COMDAT ?move@?$char_traits@D@std@@SAPADPADPBDI@Z
_TEXT	SEGMENT PARA USE32 PUBLIC 'CODE'
_TEXT	ENDS
;	COMDAT ?_Grow@?$basic_string@DU?$char_traits@D@std@@V?$allocator@D@2@@std@@IAE_NI_N@Z
_TEXT	SEGMENT PARA USE32 PUBLIC 'CODE'
_TEXT	ENDS
;	COMDAT ?max_size@?$basic_string@DU?$char_traits@D@std@@V?$allocator@D@2@@std@@QBEIXZ
_TEXT	SEGMENT PARA USE32 PUBLIC 'CODE'
_TEXT	ENDS
;	COMDAT ?max_size@?$allocator@D@std@@QBEIXZ
_TEXT	SEGMENT PARA USE32 PUBLIC 'CODE'
_TEXT	ENDS
;	COMDAT ?_Copy@?$basic_string@DU?$char_traits@D@std@@V?$allocator@D@2@@std@@IAEXII@Z
_TEXT	SEGMENT PARA USE32 PUBLIC 'CODE'
_TEXT	ENDS
;	COMDAT ?allocate@?$allocator@D@std@@QAEPADI@Z
_TEXT	SEGMENT PARA USE32 PUBLIC 'CODE'
_TEXT	ENDS
;	COMDAT ??$_Allocate@D@std@@YAPADIPAD@Z
_TEXT	SEGMENT PARA USE32 PUBLIC 'CODE'
_TEXT	ENDS
;	COMDAT ?npos@?$basic_string@DU?$char_traits@D@std@@V?$allocator@D@2@@std@@2IB
CONST	SEGMENT DWORD USE32 PUBLIC 'CONST'
CONST	ENDS
;	COMDAT __CT??_R0?AVlogic_error@std@@@8??0logic_error@std@@QAE@ABV01@@Z40
xdata$x	SEGMENT DWORD USE32 PUBLIC 'CONST'
xdata$x	ENDS
;	COMDAT ??_R0?AVlogic_error@std@@@8
_DATA	SEGMENT DWORD USE32 PUBLIC 'DATA'
_DATA	ENDS
;	COMDAT __CT??_R0?AVexception@@@8??0exception@@QAE@ABV0@@Z12
xdata$x	SEGMENT DWORD USE32 PUBLIC 'CONST'
xdata$x	ENDS
;	COMDAT ??_R0?AVexception@@@8
_DATA	SEGMENT DWORD USE32 PUBLIC 'DATA'
_DATA	ENDS
;	COMDAT ??_C@_0BM@PAPJHAGI@invalid?5map?1set?$DMT?$DO?5iterator?$AA@
CONST	SEGMENT DWORD USE32 PUBLIC 'CONST'
CONST	ENDS
;	COMDAT ??0out_of_range@std@@QAE@ABV?$basic_string@DU?$char_traits@D@std@@V?$allocator@D@2@@1@@Z
_TEXT	SEGMENT PARA USE32 PUBLIC 'CODE'
_TEXT	ENDS
;	COMDAT ??0logic_error@std@@QAE@ABV?$basic_string@DU?$char_traits@D@std@@V?$allocator@D@2@@1@@Z
_TEXT	SEGMENT PARA USE32 PUBLIC 'CODE'
_TEXT	ENDS
;	COMDAT ??_C@_0BD@OLBABOEK@vector?$DMT?$DO?5too?5long?$AA@
CONST	SEGMENT DWORD USE32 PUBLIC 'CONST'
CONST	ENDS
;	COMDAT __TI3?AVlength_error@std@@
xdata$x	SEGMENT DWORD USE32 PUBLIC 'CONST'
xdata$x	ENDS
;	COMDAT ??1length_error@std@@UAE@XZ
_TEXT	SEGMENT PARA USE32 PUBLIC 'CODE'
_TEXT	ENDS
;	COMDAT ??_7length_error@std@@6B@
CONST	SEGMENT DWORD USE32 PUBLIC 'CONST'
CONST	ENDS
;	COMDAT ??_Glength_error@std@@UAEPAXI@Z
_TEXT	SEGMENT PARA USE32 PUBLIC 'CODE'
_TEXT	ENDS
;	COMDAT __CTA3?AVlength_error@std@@
xdata$x	SEGMENT DWORD USE32 PUBLIC 'CONST'
xdata$x	ENDS
;	COMDAT __CT??_R0?AVlength_error@std@@@8??0length_error@std@@QAE@ABV01@@Z40
xdata$x	SEGMENT DWORD USE32 PUBLIC 'CONST'
xdata$x	ENDS
;	COMDAT ??_R0?AVlength_error@std@@@8
_DATA	SEGMENT DWORD USE32 PUBLIC 'DATA'
_DATA	ENDS
;	COMDAT ??0length_error@std@@QAE@ABV01@@Z
_TEXT	SEGMENT PARA USE32 PUBLIC 'CODE'
_TEXT	ENDS
;	COMDAT ??1?$basic_string@DU?$char_traits@D@std@@V?$allocator@D@2@@std@@QAE@XZ
_TEXT	SEGMENT PARA USE32 PUBLIC 'CODE'
_TEXT	ENDS
;	COMDAT ??_C@_0BE@JONHPENG@map?1set?$DMT?$DO?5too?5long?$AA@
CONST	SEGMENT DWORD USE32 PUBLIC 'CONST'
CONST	ENDS
;	COMDAT ??0?$basic_string@DU?$char_traits@D@std@@V?$allocator@D@2@@std@@QAE@PBD@Z
_TEXT	SEGMENT PARA USE32 PUBLIC 'CODE'
_TEXT	ENDS
;	COMDAT ??0?$allocator@D@std@@QAE@XZ
_TEXT	SEGMENT PARA USE32 PUBLIC 'CODE'
_TEXT	ENDS
;	COMDAT ?assign@?$basic_string@DU?$char_traits@D@std@@V?$allocator@D@2@@std@@QAEAAV12@PBD@Z
_TEXT	SEGMENT PARA USE32 PUBLIC 'CODE'
_TEXT	ENDS
;	COMDAT ?assign@?$basic_string@DU?$char_traits@D@std@@V?$allocator@D@2@@std@@QAEAAV12@PBDI@Z
_TEXT	SEGMENT PARA USE32 PUBLIC 'CODE'
_TEXT	ENDS
;	COMDAT ?_Inside@?$basic_string@DU?$char_traits@D@std@@V?$allocator@D@2@@std@@IAE_NPBD@Z
_TEXT	SEGMENT PARA USE32 PUBLIC 'CODE'
_TEXT	ENDS
;	COMDAT ?length@?$char_traits@D@std@@SAIPBD@Z
_TEXT	SEGMENT PARA USE32 PUBLIC 'CODE'
_TEXT	ENDS
;	COMDAT ??0length_error@std@@QAE@ABV?$basic_string@DU?$char_traits@D@std@@V?$allocator@D@2@@1@@Z
_TEXT	SEGMENT PARA USE32 PUBLIC 'CODE'
_TEXT	ENDS
;	COMDAT ?compare@?$char_traits@D@std@@SAHPBD0I@Z
_TEXT	SEGMENT PARA USE32 PUBLIC 'CODE'
_TEXT	ENDS
;	COMDAT ?GetString@?$CSimpleStringT@D$0A@@ATL@@QBEPBDXZ
_TEXT	SEGMENT PARA USE32 PUBLIC 'CODE'
_TEXT	ENDS
;	COMDAT ??R?$less@K@std@@QBE_NABK0@Z
_TEXT	SEGMENT PARA USE32 PUBLIC 'CODE'
_TEXT	ENDS
;	COMDAT ?_Myptr@?$basic_string@DU?$char_traits@D@std@@V?$allocator@D@2@@std@@QBEPBDXZ
_TEXT	SEGMENT PARA USE32 PUBLIC 'CODE'
_TEXT	ENDS
;	COMDAT ?size@?$basic_string@DU?$char_traits@D@std@@V?$allocator@D@2@@std@@QBEIXZ
_TEXT	SEGMENT PARA USE32 PUBLIC 'CODE'
_TEXT	ENDS
;	COMDAT ?sCoupleProperty@?1??Instance@CCoupleProperty@@SAPAV2@XZ@4V2@A
_BSS	SEGMENT DWORD USE32 PUBLIC 'BSS'
_BSS	ENDS
;	COMDAT ?$S1@?1??Instance@CCoupleProperty@@SAPAV2@XZ@4IA
_BSS	SEGMENT DWORD USE32 PUBLIC 'BSS'
_BSS	ENDS
;	COMDAT ??_7CCoupleProperty@@6B@
CONST	SEGMENT DWORD USE32 PUBLIC 'CONST'
CONST	ENDS
;	COMDAT ??5CAr@@QAEAAV0@AAI@Z
_TEXT	SEGMENT PARA USE32 PUBLIC 'CODE'
_TEXT	ENDS
;	COMDAT ??5CAr@@QAEAAV0@AAJ@Z
_TEXT	SEGMENT PARA USE32 PUBLIC 'CODE'
_TEXT	ENDS
;	COMDAT ??6CAr@@QAEAAV0@I@Z
_TEXT	SEGMENT PARA USE32 PUBLIC 'CODE'
_TEXT	ENDS
;	COMDAT ??6CAr@@QAEAAV0@J@Z
_TEXT	SEGMENT PARA USE32 PUBLIC 'CODE'
_TEXT	ENDS
;	COMDAT ??_7CCoupleMgr@@6B@
CONST	SEGMENT DWORD USE32 PUBLIC 'CONST'
CONST	ENDS
;	COMDAT ??5CAr@@QAEAAV0@AAH@Z
_TEXT	SEGMENT PARA USE32 PUBLIC 'CODE'
_TEXT	ENDS
;	COMDAT ??5CAr@@QAEAAV0@AAK@Z
_TEXT	SEGMENT PARA USE32 PUBLIC 'CODE'
_TEXT	ENDS
;	COMDAT ??6CAr@@QAEAAV0@H@Z
_TEXT	SEGMENT PARA USE32 PUBLIC 'CODE'
_TEXT	ENDS
;	COMDAT ??6CAr@@QAEAAV0@K@Z
_TEXT	SEGMENT PARA USE32 PUBLIC 'CODE'
_TEXT	ENDS
;	COMDAT ?IsStoring@CAr@@QBEHXZ
_TEXT	SEGMENT PARA USE32 PUBLIC 'CODE'
_TEXT	ENDS
;	COMDAT ??_7CCouple@@6B@
CONST	SEGMENT DWORD USE32 PUBLIC 'CONST'
CONST	ENDS
;	COMDAT ??_7CCoupleTestCase@@6B@
CONST	SEGMENT DWORD USE32 PUBLIC 'CONST'
CONST	ENDS
;	COMDAT ??_7CTestCaseMgr@@6B@
CONST	SEGMENT DWORD USE32 PUBLIC 'CONST'
CONST	ENDS
;	COMDAT ??_7ITestCase@@6B@
CONST	SEGMENT DWORD USE32 PUBLIC 'CONST'
CONST	ENDS
sxdata	SEGMENT DWORD USE32 'SXDATA'
sxdata	ENDS
FLAT	GROUP _DATA, CONST, _BSS
	ASSUME	CS: FLAT, DS: FLAT, SS: FLAT
endif

INCLUDELIB LIBCMT
INCLUDELIB OLDNAMES

PUBLIC	??2@YAPAXIPAX@Z					; operator new
; Function compile flags: /Ogty
; File c:\program files\microsoft visual studio .net 2003\vc7\include\new.h
;	COMDAT ??2@YAPAXIPAX@Z
_TEXT	SEGMENT
___formal$ = 8						; size = 4
__P$ = 12						; size = 4
??2@YAPAXIPAX@Z PROC NEAR				; operator new, COMDAT

; 109  :         {return (_P); }

  00000	8b 44 24 08	 mov	 eax, DWORD PTR __P$[esp-4]
  00004	c3		 ret	 0
??2@YAPAXIPAX@Z ENDP					; operator new
_TEXT	ENDS
PUBLIC	??3@YAXPAX0@Z					; operator delete
; Function compile flags: /Ogty
;	COMDAT ??3@YAXPAX0@Z
_TEXT	SEGMENT
___formal$ = 8						; size = 4
___formal$ = 12						; size = 4
??3@YAXPAX0@Z PROC NEAR					; operator delete, COMDAT

; 112  :         {return; }

  00000	c3		 ret	 0
??3@YAXPAX0@Z ENDP					; operator delete
_TEXT	ENDS
PUBLIC	?GetExperience@CCouple@@QAEHXZ			; CCouple::GetExperience
; Function compile flags: /Ogty
; File c:\documents and settings\test\mes documents\source\virtuos_v17\build\program\_common\couple.h
;	COMDAT ?GetExperience@CCouple@@QAEHXZ
_TEXT	SEGMENT
?GetExperience@CCouple@@QAEHXZ PROC NEAR		; CCouple::GetExperience, COMDAT
; _this$ = ecx

; 21   : 	int		GetExperience()		{	return m_nExperience;	}

  00000	8b 41 04	 mov	 eax, DWORD PTR [ecx+4]
  00003	c3		 ret	 0
?GetExperience@CCouple@@QAEHXZ ENDP			; CCouple::GetExperience
_TEXT	ENDS
PUBLIC	?HasPlayer@CCouple@@QAEHK@Z			; CCouple::HasPlayer
; Function compile flags: /Ogty
;	COMDAT ?HasPlayer@CCouple@@QAEHK@Z
_TEXT	SEGMENT
_idPlayer$ = 8						; size = 4
?HasPlayer@CCouple@@QAEHK@Z PROC NEAR			; CCouple::HasPlayer, COMDAT
; _this$ = ecx

; 25   : 	BOOL	HasPlayer( u_long idPlayer )	{	return m_idFirst == idPlayer || m_idSecond == idPlayer;		}

  00000	8b 44 24 04	 mov	 eax, DWORD PTR _idPlayer$[esp-4]
  00004	39 41 0c	 cmp	 DWORD PTR [ecx+12], eax
  00007	74 0a		 je	 SHORT $L193825
  00009	39 41 10	 cmp	 DWORD PTR [ecx+16], eax
  0000c	74 05		 je	 SHORT $L193825
  0000e	33 c0		 xor	 eax, eax
  00010	c2 04 00	 ret	 4
$L193825:
  00013	b8 01 00 00 00	 mov	 eax, 1
  00018	c2 04 00	 ret	 4
?HasPlayer@CCouple@@QAEHK@Z ENDP			; CCouple::HasPlayer
_TEXT	ENDS
PUBLIC	?GetFirst@CCouple@@QAEKXZ			; CCouple::GetFirst
; Function compile flags: /Ogty
;	COMDAT ?GetFirst@CCouple@@QAEKXZ
_TEXT	SEGMENT
?GetFirst@CCouple@@QAEKXZ PROC NEAR			; CCouple::GetFirst, COMDAT
; _this$ = ecx

; 28   : 	u_long	GetFirst()	{	return m_idFirst;	}

  00000	8b 41 0c	 mov	 eax, DWORD PTR [ecx+12]
  00003	c3		 ret	 0
?GetFirst@CCouple@@QAEKXZ ENDP				; CCouple::GetFirst
_TEXT	ENDS
PUBLIC	?GetSecond@CCouple@@QAEKXZ			; CCouple::GetSecond
; Function compile flags: /Ogty
;	COMDAT ?GetSecond@CCouple@@QAEKXZ
_TEXT	SEGMENT
?GetSecond@CCouple@@QAEKXZ PROC NEAR			; CCouple::GetSecond, COMDAT
; _this$ = ecx

; 29   : 	u_long	GetSecond()		{	return m_idSecond;	}

  00000	8b 41 10	 mov	 eax, DWORD PTR [ecx+16]
  00003	c3		 ret	 0
?GetSecond@CCouple@@QAEKXZ ENDP				; CCouple::GetSecond
_TEXT	ENDS
PUBLIC	??0_COUPLE_ITEM@@QAE@HHHHH@Z			; _COUPLE_ITEM::_COUPLE_ITEM
; Function compile flags: /Ogty
;	COMDAT ??0_COUPLE_ITEM@@QAE@HHHHH@Z
_TEXT	SEGMENT
_i$ = 8							; size = 4
_s$ = 12						; size = 4
_f$ = 16						; size = 4
_l$ = 20						; size = 4
_n$ = 24						; size = 4
??0_COUPLE_ITEM@@QAE@HHHHH@Z PROC NEAR			; _COUPLE_ITEM::_COUPLE_ITEM, COMDAT
; _this$ = ecx

; 46   : 	_COUPLE_ITEM( int i, int s, int f, int l, int n ) : nItem( i ), nSex( s ), nFlags( f ), nLife( l ), nNum( n )		{}

  00000	8b 54 24 08	 mov	 edx, DWORD PTR _s$[esp-4]
  00004	8b c1		 mov	 eax, ecx
  00006	8b 4c 24 04	 mov	 ecx, DWORD PTR _i$[esp-4]
  0000a	89 08		 mov	 DWORD PTR [eax], ecx
  0000c	8b 4c 24 0c	 mov	 ecx, DWORD PTR _f$[esp-4]
  00010	89 50 04	 mov	 DWORD PTR [eax+4], edx
  00013	8b 54 24 10	 mov	 edx, DWORD PTR _l$[esp-4]
  00017	89 48 08	 mov	 DWORD PTR [eax+8], ecx
  0001a	8b 4c 24 14	 mov	 ecx, DWORD PTR _n$[esp-4]
  0001e	89 50 0c	 mov	 DWORD PTR [eax+12], edx
  00021	89 48 10	 mov	 DWORD PTR [eax+16], ecx
  00024	c2 14 00	 ret	 20			; 00000014H
??0_COUPLE_ITEM@@QAE@HHHHH@Z ENDP			; _COUPLE_ITEM::_COUPLE_ITEM
_TEXT	ENDS
PUBLIC	?Test@CCoupleTestCase@@UAEHXZ			; CCoupleTestCase::Test
; Function compile flags: /Ogty
; File c:\documents and settings\test\mes documents\source\virtuos_v17\build\program\_common\couple.cpp
;	COMDAT ?Test@CCoupleTestCase@@UAEHXZ
_TEXT	SEGMENT
?Test@CCoupleTestCase@@UAEHXZ PROC NEAR			; CCoupleTestCase::Test, COMDAT
; _this$ = ecx

; 8    : 	/*
; 9    : 	// Load
; 10   : 	CCoupleProperty* ptr	= CCoupleProperty::Instance();
; 11   : 	BOOL bResult	= ptr->Initialize();
; 12   : 	ASSERT( bResult );
; 13   : 
; 14   : 	CCouple	c( 1, 2 );
; 15   : 	for( int nLevel = 1; nLevel < CCouple::eMaxLevel; nLevel++ )
; 16   : 	{
; 17   : 		ASSERT( c.GetLevel() == nLevel );
; 18   : 		int nExperience	= ptr->GetExperienceRequired( c.GetLevel() );
; 19   : 		c.AddExperience( nExperience );
; 20   : 	}
; 21   : 	return FALSE;
; 22   : 	*/
; 23   : 	/*
; 24   : 	// Level
; 25   : 	for( int nLevel = 1; nLevel <= CCouple::eMaxLevel; nLevel++ )
; 26   : 		TRACE( "Level: %d = Exp: %d\n", nLevel, ptr->GetTotalExperience( nLevel ) );
; 27   : 	// Item
; 28   : 	for( nLevel = 1; nLevel <= CCouple::eMaxLevel; nLevel++ )
; 29   : 	{
; 30   : 		VCI& vItems	= ptr->GetItems( nLevel );
; 31   : 		TRACE( "Level: %d: Item\n", nLevel );
; 32   : 		for( int i = 0; i < vItems.size(); i++ )
; 33   : 			TRACE( "\tnItem: %d, nFlags: %d, nLife: %d, nNum: %d\n", vItems[i].nItem, vItems[i].nFlags, vItems[i].nLife, vItems[i].nNum );
; 34   : 	}
; 35   : 	for( nLevel = 1; nLevel <= CCouple::eMaxLevel; nLevel++ )
; 36   : 	{
; 37   : 		VS& vSkills	= ptr->GetSkill( nLevel );
; 38   : 		TRACE( "Level: %d: Skill\n", nLevel );
; 39   : 		for( int i = 0; i < vSkills.size(); i++ )
; 40   : 			TRACE( "\tSkill: %d\n", vSkills[i] );
; 41   : 	}
; 42   : 	u_long idFirst	= 1;
; 43   : 	u_long idSecond	= 2;
; 44   : 	u_long idInvalid	= 0;
; 45   : 
; 46   : 	CCoupleMgr* pMgr	= new CCoupleMgr;
; 47   : 	pMgr->Couple( idFirst, idSecond );
; 48   : 	ASSERT( pMgr->GetCount() == 1 );
; 49   : 	pMgr->Decouple( idFirst );
; 50   : 	ASSERT( pMgr->GetCount() == 0 );
; 51   : 	pMgr->Couple( idFirst, idSecond );
; 52   : 	ASSERT( pMgr->GetCount() == 1 );
; 53   : 	pMgr->Decouple( idSecond );
; 54   : 	ASSERT( pMgr->GetCount() == 0 );
; 55   : 	pMgr->Couple( idFirst, idSecond );
; 56   : 	ASSERT( pMgr->GetCount() == 1 );
; 57   : 	BOOL bResult	= pMgr->Decouple( idInvalid );
; 58   : 	ASSERT( bResult == FALSE );
; 59   : 	ASSERT( pMgr->GetCount() == 1 );
; 60   : 	CCouple* pCoupleByFirst	= pMgr->GetCouple( idFirst );
; 61   : 	ASSERT( pCoupleByFirst );
; 62   : 	CCouple* pCoupleBySecond	= pMgr->GetCouple( idSecond );
; 63   : 	ASSERT( pCoupleBySecond );
; 64   : 	ASSERT( pCoupleByFirst == pCoupleBySecond );
; 65   : 	CCouple* pCouple	= pCoupleByFirst;
; 66   : 	ASSERT( pCouple->GetLevel() == 1 );
; 67   : 	pCouple->AddExperience( 1 );
; 68   : 	ASSERT( pCouple->GetExperience() == 1 );
; 69   : 	pCouple->AddExperience( 1 );
; 70   : 	ASSERT( pCouple->GetExperience() == 2 );
; 71   : 	pMgr->OnTimer();
; 72   : 	ASSERT( pCouple->GetExperience() == 3 );
; 73   : */
; 74   : 	return TRUE;

  00000	b8 01 00 00 00	 mov	 eax, 1

; 75   : }

  00005	c3		 ret	 0
?Test@CCoupleTestCase@@UAEHXZ ENDP			; CCoupleTestCase::Test
_TEXT	ENDS
PUBLIC	??0CCouple@@QAE@XZ				; CCouple::CCouple
PUBLIC	??_7CCouple@@6B@				; CCouple::`vftable'
PUBLIC	??_GCCouple@@UAEPAXI@Z				; CCouple::`scalar deleting destructor'
EXTRN	??_ECCouple@@UAEPAXI@Z:NEAR			; CCouple::`vector deleting destructor'
;	COMDAT ??_7CCouple@@6B@
CONST	SEGMENT
??_7CCouple@@6B@ DD FLAT:??_ECCouple@@UAEPAXI@Z		; CCouple::`vftable'
; Function compile flags: /Ogty
CONST	ENDS
;	COMDAT ??0CCouple@@QAE@XZ
_TEXT	SEGMENT
??0CCouple@@QAE@XZ PROC NEAR				; CCouple::CCouple, COMDAT
; _this$ = ecx

; 84   : {

  00000	8b c1		 mov	 eax, ecx
  00002	33 c9		 xor	 ecx, ecx
  00004	c7 00 00 00 00
	00		 mov	 DWORD PTR [eax], OFFSET FLAT:??_7CCouple@@6B@
  0000a	89 48 04	 mov	 DWORD PTR [eax+4], ecx
  0000d	c7 40 08 01 00
	00 00		 mov	 DWORD PTR [eax+8], 1
  00014	89 48 0c	 mov	 DWORD PTR [eax+12], ecx
  00017	89 48 10	 mov	 DWORD PTR [eax+16], ecx

; 85   : }

  0001a	c3		 ret	 0
??0CCouple@@QAE@XZ ENDP					; CCouple::CCouple
_TEXT	ENDS
EXTRN	??3@YAXPAX@Z:NEAR				; operator delete
; Function compile flags: /Ogty
;	COMDAT ??_GCCouple@@UAEPAXI@Z
_TEXT	SEGMENT
___flags$ = 8						; size = 4
??_GCCouple@@UAEPAXI@Z PROC NEAR			; CCouple::`scalar deleting destructor', COMDAT
; _this$ = ecx
  00000	f6 44 24 04 01	 test	 BYTE PTR ___flags$[esp-4], 1
  00005	56		 push	 esi
  00006	8b f1		 mov	 esi, ecx
  00008	c7 06 00 00 00
	00		 mov	 DWORD PTR [esi], OFFSET FLAT:??_7CCouple@@6B@
  0000e	74 09		 je	 SHORT $L193842
  00010	56		 push	 esi
  00011	e8 00 00 00 00	 call	 ??3@YAXPAX@Z		; operator delete
  00016	83 c4 04	 add	 esp, 4
$L193842:
  00019	8b c6		 mov	 eax, esi
  0001b	5e		 pop	 esi
  0001c	c2 04 00	 ret	 4
??_GCCouple@@UAEPAXI@Z ENDP				; CCouple::`scalar deleting destructor'
_TEXT	ENDS
PUBLIC	??0CCouple@@QAE@KK@Z				; CCouple::CCouple
; Function compile flags: /Ogty
;	COMDAT ??0CCouple@@QAE@KK@Z
_TEXT	SEGMENT
_idFirst$ = 8						; size = 4
_idSecond$ = 12						; size = 4
??0CCouple@@QAE@KK@Z PROC NEAR				; CCouple::CCouple, COMDAT
; _this$ = ecx

; 93   : {

  00000	8b 54 24 08	 mov	 edx, DWORD PTR _idSecond$[esp-4]
  00004	8b c1		 mov	 eax, ecx
  00006	8b 4c 24 04	 mov	 ecx, DWORD PTR _idFirst$[esp-4]
  0000a	c7 00 00 00 00
	00		 mov	 DWORD PTR [eax], OFFSET FLAT:??_7CCouple@@6B@
  00010	c7 40 04 00 00
	00 00		 mov	 DWORD PTR [eax+4], 0
  00017	c7 40 08 01 00
	00 00		 mov	 DWORD PTR [eax+8], 1
  0001e	89 48 0c	 mov	 DWORD PTR [eax+12], ecx
  00021	89 50 10	 mov	 DWORD PTR [eax+16], edx

; 94   : }

  00024	c2 08 00	 ret	 8
??0CCouple@@QAE@KK@Z ENDP				; CCouple::CCouple
_TEXT	ENDS
PUBLIC	?GetPartner@CCouple@@QAEKK@Z			; CCouple::GetPartner
; Function compile flags: /Ogty
;	COMDAT ?GetPartner@CCouple@@QAEKK@Z
_TEXT	SEGMENT
_idPlayer$ = 8						; size = 4
?GetPartner@CCouple@@QAEKK@Z PROC NEAR			; CCouple::GetPartner, COMDAT
; _this$ = ecx

; 107  : 	ASSERT( HasPlayer( idPlayer ) );
; 108  : 	return m_idFirst == idPlayer? m_idSecond: m_idFirst;

  00000	8b 41 0c	 mov	 eax, DWORD PTR [ecx+12]
  00003	3b 44 24 04	 cmp	 eax, DWORD PTR _idPlayer$[esp-4]
  00007	75 03		 jne	 SHORT $L193848
  00009	8b 41 10	 mov	 eax, DWORD PTR [ecx+16]
$L193848:

; 109  : }

  0000c	c2 04 00	 ret	 4
?GetPartner@CCouple@@QAEKK@Z ENDP			; CCouple::GetPartner
_TEXT	ENDS
PUBLIC	?size@?$vector@HV?$allocator@H@std@@@std@@QBEIXZ ; std::vector<int,std::allocator<int> >::size
; Function compile flags: /Ogty
; File c:\program files\microsoft visual studio .net 2003\vc7\include\vector
;	COMDAT ?size@?$vector@HV?$allocator@H@std@@@std@@QBEIXZ
_TEXT	SEGMENT
?size@?$vector@HV?$allocator@H@std@@@std@@QBEIXZ PROC NEAR ; std::vector<int,std::allocator<int> >::size, COMDAT
; _this$ = ecx

; 516  : 		return (_Myfirst == 0 ? 0 : _Mylast - _Myfirst);

  00000	8b 51 04	 mov	 edx, DWORD PTR [ecx+4]
  00003	85 d2		 test	 edx, edx
  00005	75 03		 jne	 SHORT $L193851
  00007	33 c0		 xor	 eax, eax

; 517  : 		}

  00009	c3		 ret	 0
$L193851:

; 516  : 		return (_Myfirst == 0 ? 0 : _Mylast - _Myfirst);

  0000a	8b 41 08	 mov	 eax, DWORD PTR [ecx+8]
  0000d	2b c2		 sub	 eax, edx
  0000f	c1 f8 02	 sar	 eax, 2

; 517  : 		}

  00012	c3		 ret	 0
?size@?$vector@HV?$allocator@H@std@@@std@@QBEIXZ ENDP	; std::vector<int,std::allocator<int> >::size
_TEXT	ENDS
PUBLIC	?empty@?$vector@HV?$allocator@H@std@@@std@@QBE_NXZ ; std::vector<int,std::allocator<int> >::empty
; Function compile flags: /Ogty
;	COMDAT ?empty@?$vector@HV?$allocator@H@std@@@std@@QBE_NXZ
_TEXT	SEGMENT
?empty@?$vector@HV?$allocator@H@std@@@std@@QBE_NXZ PROC NEAR ; std::vector<int,std::allocator<int> >::empty, COMDAT
; _this$ = ecx

; 526  : 		return (size() == 0);

  00000	8b 51 04	 mov	 edx, DWORD PTR [ecx+4]
  00003	85 d2		 test	 edx, edx
  00005	75 0c		 jne	 SHORT $L193860
  00007	33 c0		 xor	 eax, eax
  00009	33 c9		 xor	 ecx, ecx
  0000b	85 c0		 test	 eax, eax
  0000d	0f 94 c1	 sete	 cl
  00010	8a c1		 mov	 al, cl

; 527  : 		}

  00012	c3		 ret	 0

; 526  : 		return (size() == 0);

$L193860:
  00013	8b 41 08	 mov	 eax, DWORD PTR [ecx+8]
  00016	2b c2		 sub	 eax, edx
  00018	c1 f8 02	 sar	 eax, 2
  0001b	33 c9		 xor	 ecx, ecx
  0001d	85 c0		 test	 eax, eax
  0001f	0f 94 c1	 sete	 cl
  00022	8a c1		 mov	 al, cl

; 527  : 		}

  00024	c3		 ret	 0
?empty@?$vector@HV?$allocator@H@std@@@std@@QBE_NXZ ENDP	; std::vector<int,std::allocator<int> >::empty
_TEXT	ENDS
PUBLIC	?size@?$vector@V?$vector@HV?$allocator@H@std@@@std@@V?$allocator@V?$vector@HV?$allocator@H@std@@@std@@@2@@std@@QBEIXZ ; std::vector<std::vector<int,std::allocator<int> >,std::allocator<std::vector<int,std::allocator<int> > > >::size
; Function compile flags: /Ogty
;	COMDAT ?size@?$vector@V?$vector@HV?$allocator@H@std@@@std@@V?$allocator@V?$vector@HV?$allocator@H@std@@@std@@@2@@std@@QBEIXZ
_TEXT	SEGMENT
?size@?$vector@V?$vector@HV?$allocator@H@std@@@std@@V?$allocator@V?$vector@HV?$allocator@H@std@@@std@@@2@@std@@QBEIXZ PROC NEAR ; std::vector<std::vector<int,std::allocator<int> >,std::allocator<std::vector<int,std::allocator<int> > > >::size, COMDAT
; _this$ = ecx

; 516  : 		return (_Myfirst == 0 ? 0 : _Mylast - _Myfirst);

  00000	8b 51 04	 mov	 edx, DWORD PTR [ecx+4]
  00003	85 d2		 test	 edx, edx
  00005	75 03		 jne	 SHORT $L193864
  00007	33 c0		 xor	 eax, eax

; 517  : 		}

  00009	c3		 ret	 0
$L193864:

; 516  : 		return (_Myfirst == 0 ? 0 : _Mylast - _Myfirst);

  0000a	8b 41 08	 mov	 eax, DWORD PTR [ecx+8]
  0000d	2b c2		 sub	 eax, edx
  0000f	c1 f8 04	 sar	 eax, 4

; 517  : 		}

  00012	c3		 ret	 0
?size@?$vector@V?$vector@HV?$allocator@H@std@@@std@@V?$allocator@V?$vector@HV?$allocator@H@std@@@std@@@2@@std@@QBEIXZ ENDP ; std::vector<std::vector<int,std::allocator<int> >,std::allocator<std::vector<int,std::allocator<int> > > >::size
_TEXT	ENDS
PUBLIC	?size@?$vector@PAVCCouple@@V?$allocator@PAVCCouple@@@std@@@std@@QBEIXZ ; std::vector<CCouple *,std::allocator<CCouple *> >::size
; Function compile flags: /Ogty
;	COMDAT ?size@?$vector@PAVCCouple@@V?$allocator@PAVCCouple@@@std@@@std@@QBEIXZ
_TEXT	SEGMENT
?size@?$vector@PAVCCouple@@V?$allocator@PAVCCouple@@@std@@@std@@QBEIXZ PROC NEAR ; std::vector<CCouple *,std::allocator<CCouple *> >::size, COMDAT
; _this$ = ecx

; 516  : 		return (_Myfirst == 0 ? 0 : _Mylast - _Myfirst);

  00000	8b 51 04	 mov	 edx, DWORD PTR [ecx+4]
  00003	85 d2		 test	 edx, edx
  00005	75 03		 jne	 SHORT $L193868
  00007	33 c0		 xor	 eax, eax

; 517  : 		}

  00009	c3		 ret	 0
$L193868:

; 516  : 		return (_Myfirst == 0 ? 0 : _Mylast - _Myfirst);

  0000a	8b 41 08	 mov	 eax, DWORD PTR [ecx+8]
  0000d	2b c2		 sub	 eax, edx
  0000f	c1 f8 02	 sar	 eax, 2

; 517  : 		}

  00012	c3		 ret	 0
?size@?$vector@PAVCCouple@@V?$allocator@PAVCCouple@@@std@@@std@@QBEIXZ ENDP ; std::vector<CCouple *,std::allocator<CCouple *> >::size
_TEXT	ENDS
PUBLIC	??Eiterator@?$vector@PAVCCouple@@V?$allocator@PAVCCouple@@@std@@@std@@QAEAAV012@XZ ; std::vector<CCouple *,std::allocator<CCouple *> >::iterator::operator++
; Function compile flags: /Ogty
;	COMDAT ??Eiterator@?$vector@PAVCCouple@@V?$allocator@PAVCCouple@@@std@@@std@@QAEAAV012@XZ
_TEXT	SEGMENT
??Eiterator@?$vector@PAVCCouple@@V?$allocator@PAVCCouple@@@std@@@std@@QAEAAV012@XZ PROC NEAR ; std::vector<CCouple *,std::allocator<CCouple *> >::iterator::operator++, COMDAT
; _this$ = ecx

; 229  : 			{	// preincrement

  00000	8b c1		 mov	 eax, ecx

; 230  : 			++this->_Myptr;

  00002	83 00 04	 add	 DWORD PTR [eax], 4

; 231  : 			return (*this);
; 232  : 			}

  00005	c3		 ret	 0
??Eiterator@?$vector@PAVCCouple@@V?$allocator@PAVCCouple@@@std@@@std@@QAEAAV012@XZ ENDP ; std::vector<CCouple *,std::allocator<CCouple *> >::iterator::operator++
_TEXT	ENDS
PUBLIC	??0?$pair@$$CBKPAVCCouple@@@std@@QAE@ABKABQAVCCouple@@@Z ; std::pair<unsigned long const ,CCouple *>::pair<unsigned long const ,CCouple *>
; Function compile flags: /Ogty
; File c:\program files\microsoft visual studio .net 2003\vc7\include\utility
;	COMDAT ??0?$pair@$$CBKPAVCCouple@@@std@@QAE@ABKABQAVCCouple@@@Z
_TEXT	SEGMENT
__Val1$ = 8						; size = 4
__Val2$ = 12						; size = 4
??0?$pair@$$CBKPAVCCouple@@@std@@QAE@ABKABQAVCCouple@@@Z PROC NEAR ; std::pair<unsigned long const ,CCouple *>::pair<unsigned long const ,CCouple *>, COMDAT
; _this$ = ecx

; 34   : 		{	// construct from specified values

  00000	8b c1		 mov	 eax, ecx
  00002	8b 4c 24 04	 mov	 ecx, DWORD PTR __Val1$[esp-4]
  00006	8b 11		 mov	 edx, DWORD PTR [ecx]
  00008	8b 4c 24 08	 mov	 ecx, DWORD PTR __Val2$[esp-4]
  0000c	89 10		 mov	 DWORD PTR [eax], edx
  0000e	8b 11		 mov	 edx, DWORD PTR [ecx]
  00010	89 50 04	 mov	 DWORD PTR [eax+4], edx

; 35   : 		}

  00013	c2 08 00	 ret	 8
??0?$pair@$$CBKPAVCCouple@@@std@@QAE@ABKABQAVCCouple@@@Z ENDP ; std::pair<unsigned long const ,CCouple *>::pair<unsigned long const ,CCouple *>
_TEXT	ENDS
PUBLIC	??0?$allocator@H@std@@QAE@XZ			; std::allocator<int>::allocator<int>
; Function compile flags: /Ogty
; File c:\program files\microsoft visual studio .net 2003\vc7\include\xmemory
;	COMDAT ??0?$allocator@H@std@@QAE@XZ
_TEXT	SEGMENT
??0?$allocator@H@std@@QAE@XZ PROC NEAR			; std::allocator<int>::allocator<int>, COMDAT
; _this$ = ecx

; 111  : 	allocator()

  00000	8b c1		 mov	 eax, ecx

; 112  : 		{	// construct default allocator (do nothing)
; 113  : 		}

  00002	c3		 ret	 0
??0?$allocator@H@std@@QAE@XZ ENDP			; std::allocator<int>::allocator<int>
_TEXT	ENDS
PUBLIC	?capacity@?$vector@HV?$allocator@H@std@@@std@@QBEIXZ ; std::vector<int,std::allocator<int> >::capacity
; Function compile flags: /Ogty
; File c:\program files\microsoft visual studio .net 2003\vc7\include\vector
;	COMDAT ?capacity@?$vector@HV?$allocator@H@std@@@std@@QBEIXZ
_TEXT	SEGMENT
?capacity@?$vector@HV?$allocator@H@std@@@std@@QBEIXZ PROC NEAR ; std::vector<int,std::allocator<int> >::capacity, COMDAT
; _this$ = ecx

; 458  : 		return (_Myfirst == 0 ? 0 : _Myend - _Myfirst);

  00000	8b 51 04	 mov	 edx, DWORD PTR [ecx+4]
  00003	85 d2		 test	 edx, edx
  00005	75 03		 jne	 SHORT $L193878
  00007	33 c0		 xor	 eax, eax

; 459  : 		}

  00009	c3		 ret	 0
$L193878:

; 458  : 		return (_Myfirst == 0 ? 0 : _Myend - _Myfirst);

  0000a	8b 41 0c	 mov	 eax, DWORD PTR [ecx+12]
  0000d	2b c2		 sub	 eax, edx
  0000f	c1 f8 02	 sar	 eax, 2

; 459  : 		}

  00012	c3		 ret	 0
?capacity@?$vector@HV?$allocator@H@std@@@std@@QBEIXZ ENDP ; std::vector<int,std::allocator<int> >::capacity
_TEXT	ENDS
PUBLIC	??0?$allocator@V?$vector@U_COUPLE_ITEM@@V?$allocator@U_COUPLE_ITEM@@@std@@@std@@@std@@QAE@XZ ; std::allocator<std::vector<_COUPLE_ITEM,std::allocator<_COUPLE_ITEM> > >::allocator<std::vector<_COUPLE_ITEM,std::allocator<_COUPLE_ITEM> > >
; Function compile flags: /Ogty
; File c:\program files\microsoft visual studio .net 2003\vc7\include\xmemory
;	COMDAT ??0?$allocator@V?$vector@U_COUPLE_ITEM@@V?$allocator@U_COUPLE_ITEM@@@std@@@std@@@std@@QAE@XZ
_TEXT	SEGMENT
??0?$allocator@V?$vector@U_COUPLE_ITEM@@V?$allocator@U_COUPLE_ITEM@@@std@@@std@@@std@@QAE@XZ PROC NEAR ; std::allocator<std::vector<_COUPLE_ITEM,std::allocator<_COUPLE_ITEM> > >::allocator<std::vector<_COUPLE_ITEM,std::allocator<_COUPLE_ITEM> > >, COMDAT
; _this$ = ecx

; 111  : 	allocator()

  00000	8b c1		 mov	 eax, ecx

; 112  : 		{	// construct default allocator (do nothing)
; 113  : 		}

  00002	c3		 ret	 0
??0?$allocator@V?$vector@U_COUPLE_ITEM@@V?$allocator@U_COUPLE_ITEM@@@std@@@std@@@std@@QAE@XZ ENDP ; std::allocator<std::vector<_COUPLE_ITEM,std::allocator<_COUPLE_ITEM> > >::allocator<std::vector<_COUPLE_ITEM,std::allocator<_COUPLE_ITEM> > >
_TEXT	ENDS
PUBLIC	??0?$allocator@V?$vector@HV?$allocator@H@std@@@std@@@std@@QAE@XZ ; std::allocator<std::vector<int,std::allocator<int> > >::allocator<std::vector<int,std::allocator<int> > >
; Function compile flags: /Ogty
;	COMDAT ??0?$allocator@V?$vector@HV?$allocator@H@std@@@std@@@std@@QAE@XZ
_TEXT	SEGMENT
??0?$allocator@V?$vector@HV?$allocator@H@std@@@std@@@std@@QAE@XZ PROC NEAR ; std::allocator<std::vector<int,std::allocator<int> > >::allocator<std::vector<int,std::allocator<int> > >, COMDAT
; _this$ = ecx

; 111  : 	allocator()

  00000	8b c1		 mov	 eax, ecx

; 112  : 		{	// construct default allocator (do nothing)
; 113  : 		}

  00002	c3		 ret	 0
??0?$allocator@V?$vector@HV?$allocator@H@std@@@std@@@std@@QAE@XZ ENDP ; std::allocator<std::vector<int,std::allocator<int> > >::allocator<std::vector<int,std::allocator<int> > >
_TEXT	ENDS
PUBLIC	?_Isnil@?$_Tree@V?$_Tmap_traits@KPAVCCouple@@U?$less@K@std@@V?$allocator@U?$pair@$$CBKPAVCCouple@@@std@@@3@$0A@@std@@@std@@KAAADPAU_Node@?$_Tree_nod@V?$_Tmap_traits@KPAVCCouple@@U?$less@K@std@@V?$allocator@U?$pair@$$CBKPAVCCouple@@@std@@@3@$0A@@std@@@2@@Z ; std::_Tree<std::_Tmap_traits<unsigned long,CCouple *,std::less<unsigned long>,std::allocator<std::pair<unsigned long const ,CCouple *> >,0> >::_Isnil
; Function compile flags: /Ogty
; File c:\program files\microsoft visual studio .net 2003\vc7\include\xtree
;	COMDAT ?_Isnil@?$_Tree@V?$_Tmap_traits@KPAVCCouple@@U?$less@K@std@@V?$allocator@U?$pair@$$CBKPAVCCouple@@@std@@@3@$0A@@std@@@std@@KAAADPAU_Node@?$_Tree_nod@V?$_Tmap_traits@KPAVCCouple@@U?$less@K@std@@V?$allocator@U?$pair@$$CBKPAVCCouple@@@std@@@3@$0A@@std@@@2@@Z
_TEXT	SEGMENT
__Pnode$ = 8						; size = 4
?_Isnil@?$_Tree@V?$_Tmap_traits@KPAVCCouple@@U?$less@K@std@@V?$allocator@U?$pair@$$CBKPAVCCouple@@@std@@@3@$0A@@std@@@std@@KAAADPAU_Node@?$_Tree_nod@V?$_Tmap_traits@KPAVCCouple@@U?$less@K@std@@V?$allocator@U?$pair@$$CBKPAVCCouple@@@std@@@3@$0A@@std@@@2@@Z PROC NEAR ; std::_Tree<std::_Tmap_traits<unsigned long,CCouple *,std::less<unsigned long>,std::allocator<std::pair<unsigned long const ,CCouple *> >,0> >::_Isnil, COMDAT

; 137  : 		return ((_Charref)(*_Pnode)._Isnil);

  00000	8b 44 24 04	 mov	 eax, DWORD PTR __Pnode$[esp-4]
  00004	83 c0 15	 add	 eax, 21			; 00000015H

; 138  : 		}

  00007	c3		 ret	 0
?_Isnil@?$_Tree@V?$_Tmap_traits@KPAVCCouple@@U?$less@K@std@@V?$allocator@U?$pair@$$CBKPAVCCouple@@@std@@@3@$0A@@std@@@std@@KAAADPAU_Node@?$_Tree_nod@V?$_Tmap_traits@KPAVCCouple@@U?$less@K@std@@V?$allocator@U?$pair@$$CBKPAVCCouple@@@std@@@3@$0A@@std@@@2@@Z ENDP ; std::_Tree<std::_Tmap_traits<unsigned long,CCouple *,std::less<unsigned long>,std::allocator<std::pair<unsigned long const ,CCouple *> >,0> >::_Isnil
_TEXT	ENDS
PUBLIC	?_Left@?$_Tree@V?$_Tmap_traits@KPAVCCouple@@U?$less@K@std@@V?$allocator@U?$pair@$$CBKPAVCCouple@@@std@@@3@$0A@@std@@@std@@KAAAPAU_Node@?$_Tree_nod@V?$_Tmap_traits@KPAVCCouple@@U?$less@K@std@@V?$allocator@U?$pair@$$CBKPAVCCouple@@@std@@@3@$0A@@std@@@2@PAU342@@Z ; std::_Tree<std::_Tmap_traits<unsigned long,CCouple *,std::less<unsigned long>,std::allocator<std::pair<unsigned long const ,CCouple *> >,0> >::_Left
; Function compile flags: /Ogty
;	COMDAT ?_Left@?$_Tree@V?$_Tmap_traits@KPAVCCouple@@U?$less@K@std@@V?$allocator@U?$pair@$$CBKPAVCCouple@@@std@@@3@$0A@@std@@@std@@KAAAPAU_Node@?$_Tree_nod@V?$_Tmap_traits@KPAVCCouple@@U?$less@K@std@@V?$allocator@U?$pair@$$CBKPAVCCouple@@@std@@@3@$0A@@std@@@2@PAU342@@Z
_TEXT	SEGMENT
__Pnode$ = 8						; size = 4
?_Left@?$_Tree@V?$_Tmap_traits@KPAVCCouple@@U?$less@K@std@@V?$allocator@U?$pair@$$CBKPAVCCouple@@@std@@@3@$0A@@std@@@std@@KAAAPAU_Node@?$_Tree_nod@V?$_Tmap_traits@KPAVCCouple@@U?$less@K@std@@V?$allocator@U?$pair@$$CBKPAVCCouple@@@std@@@3@$0A@@std@@@2@PAU342@@Z PROC NEAR ; std::_Tree<std::_Tmap_traits<unsigned long,CCouple *,std::less<unsigned long>,std::allocator<std::pair<unsigned long const ,CCouple *> >,0> >::_Left, COMDAT

; 147  : 		return ((_Nodepref)(*_Pnode)._Left);

  00000	8b 44 24 04	 mov	 eax, DWORD PTR __Pnode$[esp-4]

; 148  : 		}

  00004	c3		 ret	 0
?_Left@?$_Tree@V?$_Tmap_traits@KPAVCCouple@@U?$less@K@std@@V?$allocator@U?$pair@$$CBKPAVCCouple@@@std@@@3@$0A@@std@@@std@@KAAAPAU_Node@?$_Tree_nod@V?$_Tmap_traits@KPAVCCouple@@U?$less@K@std@@V?$allocator@U?$pair@$$CBKPAVCCouple@@@std@@@3@$0A@@std@@@2@PAU342@@Z ENDP ; std::_Tree<std::_Tmap_traits<unsigned long,CCouple *,std::less<unsigned long>,std::allocator<std::pair<unsigned long const ,CCouple *> >,0> >::_Left
_TEXT	ENDS
PUBLIC	?_Right@?$_Tree@V?$_Tmap_traits@KPAVCCouple@@U?$less@K@std@@V?$allocator@U?$pair@$$CBKPAVCCouple@@@std@@@3@$0A@@std@@@std@@KAAAPAU_Node@?$_Tree_nod@V?$_Tmap_traits@KPAVCCouple@@U?$less@K@std@@V?$allocator@U?$pair@$$CBKPAVCCouple@@@std@@@3@$0A@@std@@@2@PAU342@@Z ; std::_Tree<std::_Tmap_traits<unsigned long,CCouple *,std::less<unsigned long>,std::allocator<std::pair<unsigned long const ,CCouple *> >,0> >::_Right
; Function compile flags: /Ogty
;	COMDAT ?_Right@?$_Tree@V?$_Tmap_traits@KPAVCCouple@@U?$less@K@std@@V?$allocator@U?$pair@$$CBKPAVCCouple@@@std@@@3@$0A@@std@@@std@@KAAAPAU_Node@?$_Tree_nod@V?$_Tmap_traits@KPAVCCouple@@U?$less@K@std@@V?$allocator@U?$pair@$$CBKPAVCCouple@@@std@@@3@$0A@@std@@@2@PAU342@@Z
_TEXT	SEGMENT
__Pnode$ = 8						; size = 4
?_Right@?$_Tree@V?$_Tmap_traits@KPAVCCouple@@U?$less@K@std@@V?$allocator@U?$pair@$$CBKPAVCCouple@@@std@@@3@$0A@@std@@@std@@KAAAPAU_Node@?$_Tree_nod@V?$_Tmap_traits@KPAVCCouple@@U?$less@K@std@@V?$allocator@U?$pair@$$CBKPAVCCouple@@@std@@@3@$0A@@std@@@2@PAU342@@Z PROC NEAR ; std::_Tree<std::_Tmap_traits<unsigned long,CCouple *,std::less<unsigned long>,std::allocator<std::pair<unsigned long const ,CCouple *> >,0> >::_Right, COMDAT

; 157  : 		return ((_Nodepref)(*_Pnode)._Right);

  00000	8b 44 24 04	 mov	 eax, DWORD PTR __Pnode$[esp-4]
  00004	83 c0 08	 add	 eax, 8

; 158  : 		}

  00007	c3		 ret	 0
?_Right@?$_Tree@V?$_Tmap_traits@KPAVCCouple@@U?$less@K@std@@V?$allocator@U?$pair@$$CBKPAVCCouple@@@std@@@3@$0A@@std@@@std@@KAAAPAU_Node@?$_Tree_nod@V?$_Tmap_traits@KPAVCCouple@@U?$less@K@std@@V?$allocator@U?$pair@$$CBKPAVCCouple@@@std@@@3@$0A@@std@@@2@PAU342@@Z ENDP ; std::_Tree<std::_Tmap_traits<unsigned long,CCouple *,std::less<unsigned long>,std::allocator<std::pair<unsigned long const ,CCouple *> >,0> >::_Right
_TEXT	ENDS
PUBLIC	?_Lmost@?$_Tree@V?$_Tmap_traits@KPAVCCouple@@U?$less@K@std@@V?$allocator@U?$pair@$$CBKPAVCCouple@@@std@@@3@$0A@@std@@@std@@IAEAAPAU_Node@?$_Tree_nod@V?$_Tmap_traits@KPAVCCouple@@U?$less@K@std@@V?$allocator@U?$pair@$$CBKPAVCCouple@@@std@@@3@$0A@@std@@@2@XZ ; std::_Tree<std::_Tmap_traits<unsigned long,CCouple *,std::less<unsigned long>,std::allocator<std::pair<unsigned long const ,CCouple *> >,0> >::_Lmost
; Function compile flags: /Ogty
;	COMDAT ?_Lmost@?$_Tree@V?$_Tmap_traits@KPAVCCouple@@U?$less@K@std@@V?$allocator@U?$pair@$$CBKPAVCCouple@@@std@@@3@$0A@@std@@@std@@IAEAAPAU_Node@?$_Tree_nod@V?$_Tmap_traits@KPAVCCouple@@U?$less@K@std@@V?$allocator@U?$pair@$$CBKPAVCCouple@@@std@@@3@$0A@@std@@@2@XZ
_TEXT	SEGMENT
?_Lmost@?$_Tree@V?$_Tmap_traits@KPAVCCouple@@U?$less@K@std@@V?$allocator@U?$pair@$$CBKPAVCCouple@@@std@@@3@$0A@@std@@@std@@IAEAAPAU_Node@?$_Tree_nod@V?$_Tmap_traits@KPAVCCouple@@U?$less@K@std@@V?$allocator@U?$pair@$$CBKPAVCCouple@@@std@@@3@$0A@@std@@@2@XZ PROC NEAR ; std::_Tree<std::_Tmap_traits<unsigned long,CCouple *,std::less<unsigned long>,std::allocator<std::pair<unsigned long const ,CCouple *> >,0> >::_Lmost, COMDAT
; _this$ = ecx

; 1005 : 		return (_Left(_Myhead));

  00000	8b 41 04	 mov	 eax, DWORD PTR [ecx+4]

; 1006 : 		}

  00003	c3		 ret	 0
?_Lmost@?$_Tree@V?$_Tmap_traits@KPAVCCouple@@U?$less@K@std@@V?$allocator@U?$pair@$$CBKPAVCCouple@@@std@@@3@$0A@@std@@@std@@IAEAAPAU_Node@?$_Tree_nod@V?$_Tmap_traits@KPAVCCouple@@U?$less@K@std@@V?$allocator@U?$pair@$$CBKPAVCCouple@@@std@@@3@$0A@@std@@@2@XZ ENDP ; std::_Tree<std::_Tmap_traits<unsigned long,CCouple *,std::less<unsigned long>,std::allocator<std::pair<unsigned long const ,CCouple *> >,0> >::_Lmost
_TEXT	ENDS
PUBLIC	?_Rmost@?$_Tree@V?$_Tmap_traits@KPAVCCouple@@U?$less@K@std@@V?$allocator@U?$pair@$$CBKPAVCCouple@@@std@@@3@$0A@@std@@@std@@IAEAAPAU_Node@?$_Tree_nod@V?$_Tmap_traits@KPAVCCouple@@U?$less@K@std@@V?$allocator@U?$pair@$$CBKPAVCCouple@@@std@@@3@$0A@@std@@@2@XZ ; std::_Tree<std::_Tmap_traits<unsigned long,CCouple *,std::less<unsigned long>,std::allocator<std::pair<unsigned long const ,CCouple *> >,0> >::_Rmost
; Function compile flags: /Ogty
;	COMDAT ?_Rmost@?$_Tree@V?$_Tmap_traits@KPAVCCouple@@U?$less@K@std@@V?$allocator@U?$pair@$$CBKPAVCCouple@@@std@@@3@$0A@@std@@@std@@IAEAAPAU_Node@?$_Tree_nod@V?$_Tmap_traits@KPAVCCouple@@U?$less@K@std@@V?$allocator@U?$pair@$$CBKPAVCCouple@@@std@@@3@$0A@@std@@@2@XZ
_TEXT	SEGMENT
?_Rmost@?$_Tree@V?$_Tmap_traits@KPAVCCouple@@U?$less@K@std@@V?$allocator@U?$pair@$$CBKPAVCCouple@@@std@@@3@$0A@@std@@@std@@IAEAAPAU_Node@?$_Tree_nod@V?$_Tmap_traits@KPAVCCouple@@U?$less@K@std@@V?$allocator@U?$pair@$$CBKPAVCCouple@@@std@@@3@$0A@@std@@@2@XZ PROC NEAR ; std::_Tree<std::_Tmap_traits<unsigned long,CCouple *,std::less<unsigned long>,std::allocator<std::pair<unsigned long const ,CCouple *> >,0> >::_Rmost, COMDAT
; _this$ = ecx

; 1049 : 		return (_Right(_Myhead));

  00000	8b 41 04	 mov	 eax, DWORD PTR [ecx+4]
  00003	83 c0 08	 add	 eax, 8

; 1050 : 		}

  00006	c3		 ret	 0
?_Rmost@?$_Tree@V?$_Tmap_traits@KPAVCCouple@@U?$less@K@std@@V?$allocator@U?$pair@$$CBKPAVCCouple@@@std@@@3@$0A@@std@@@std@@IAEAAPAU_Node@?$_Tree_nod@V?$_Tmap_traits@KPAVCCouple@@U?$less@K@std@@V?$allocator@U?$pair@$$CBKPAVCCouple@@@std@@@3@$0A@@std@@@2@XZ ENDP ; std::_Tree<std::_Tmap_traits<unsigned long,CCouple *,std::less<unsigned long>,std::allocator<std::pair<unsigned long const ,CCouple *> >,0> >::_Rmost
_TEXT	ENDS
PUBLIC	?_Kfn@?$_Tmap_traits@KPAVCCouple@@U?$less@K@std@@V?$allocator@U?$pair@$$CBKPAVCCouple@@@std@@@3@$0A@@std@@SAABKABU?$pair@$$CBKPAVCCouple@@@2@@Z ; std::_Tmap_traits<unsigned long,CCouple *,std::less<unsigned long>,std::allocator<std::pair<unsigned long const ,CCouple *> >,0>::_Kfn
; Function compile flags: /Ogty
; File c:\program files\microsoft visual studio .net 2003\vc7\include\map
;	COMDAT ?_Kfn@?$_Tmap_traits@KPAVCCouple@@U?$less@K@std@@V?$allocator@U?$pair@$$CBKPAVCCouple@@@std@@@3@$0A@@std@@SAABKABU?$pair@$$CBKPAVCCouple@@@2@@Z
_TEXT	SEGMENT
__Val$ = 8						; size = 4
?_Kfn@?$_Tmap_traits@KPAVCCouple@@U?$less@K@std@@V?$allocator@U?$pair@$$CBKPAVCCouple@@@std@@@3@$0A@@std@@SAABKABU?$pair@$$CBKPAVCCouple@@@2@@Z PROC NEAR ; std::_Tmap_traits<unsigned long,CCouple *,std::less<unsigned long>,std::allocator<std::pair<unsigned long const ,CCouple *> >,0>::_Kfn, COMDAT

; 64   : 		return (_Val.first);

  00000	8b 44 24 04	 mov	 eax, DWORD PTR __Val$[esp-4]

; 65   : 		}

  00004	c3		 ret	 0
?_Kfn@?$_Tmap_traits@KPAVCCouple@@U?$less@K@std@@V?$allocator@U?$pair@$$CBKPAVCCouple@@@std@@@3@$0A@@std@@SAABKABU?$pair@$$CBKPAVCCouple@@@2@@Z ENDP ; std::_Tmap_traits<unsigned long,CCouple *,std::less<unsigned long>,std::allocator<std::pair<unsigned long const ,CCouple *> >,0>::_Kfn
_TEXT	ENDS
PUBLIC	??0?$allocator@U?$pair@$$CBKPAVCCouple@@@std@@@std@@QAE@XZ ; std::allocator<std::pair<unsigned long const ,CCouple *> >::allocator<std::pair<unsigned long const ,CCouple *> >
; Function compile flags: /Ogty
; File c:\program files\microsoft visual studio .net 2003\vc7\include\xmemory
;	COMDAT ??0?$allocator@U?$pair@$$CBKPAVCCouple@@@std@@@std@@QAE@XZ
_TEXT	SEGMENT
??0?$allocator@U?$pair@$$CBKPAVCCouple@@@std@@@std@@QAE@XZ PROC NEAR ; std::allocator<std::pair<unsigned long const ,CCouple *> >::allocator<std::pair<unsigned long const ,CCouple *> >, COMDAT
; _this$ = ecx

; 111  : 	allocator()

  00000	8b c1		 mov	 eax, ecx

; 112  : 		{	// construct default allocator (do nothing)
; 113  : 		}

  00002	c3		 ret	 0
??0?$allocator@U?$pair@$$CBKPAVCCouple@@@std@@@std@@QAE@XZ ENDP ; std::allocator<std::pair<unsigned long const ,CCouple *> >::allocator<std::pair<unsigned long const ,CCouple *> >
_TEXT	ENDS
PUBLIC	?capacity@?$vector@PAVCCouple@@V?$allocator@PAVCCouple@@@std@@@std@@QBEIXZ ; std::vector<CCouple *,std::allocator<CCouple *> >::capacity
; Function compile flags: /Ogty
; File c:\program files\microsoft visual studio .net 2003\vc7\include\vector
;	COMDAT ?capacity@?$vector@PAVCCouple@@V?$allocator@PAVCCouple@@@std@@@std@@QBEIXZ
_TEXT	SEGMENT
?capacity@?$vector@PAVCCouple@@V?$allocator@PAVCCouple@@@std@@@std@@QBEIXZ PROC NEAR ; std::vector<CCouple *,std::allocator<CCouple *> >::capacity, COMDAT
; _this$ = ecx

; 458  : 		return (_Myfirst == 0 ? 0 : _Myend - _Myfirst);

  00000	8b 51 04	 mov	 edx, DWORD PTR [ecx+4]
  00003	85 d2		 test	 edx, edx
  00005	75 03		 jne	 SHORT $L193907
  00007	33 c0		 xor	 eax, eax

; 459  : 		}

  00009	c3		 ret	 0
$L193907:

; 458  : 		return (_Myfirst == 0 ? 0 : _Myend - _Myfirst);

  0000a	8b 41 0c	 mov	 eax, DWORD PTR [ecx+12]
  0000d	2b c2		 sub	 eax, edx
  0000f	c1 f8 02	 sar	 eax, 2

; 459  : 		}

  00012	c3		 ret	 0
?capacity@?$vector@PAVCCouple@@V?$allocator@PAVCCouple@@@std@@@std@@QBEIXZ ENDP ; std::vector<CCouple *,std::allocator<CCouple *> >::capacity
_TEXT	ENDS
PUBLIC	??0?$allocator@PAVCCouple@@@std@@QAE@XZ		; std::allocator<CCouple *>::allocator<CCouple *>
; Function compile flags: /Ogty
; File c:\program files\microsoft visual studio .net 2003\vc7\include\xmemory
;	COMDAT ??0?$allocator@PAVCCouple@@@std@@QAE@XZ
_TEXT	SEGMENT
??0?$allocator@PAVCCouple@@@std@@QAE@XZ PROC NEAR	; std::allocator<CCouple *>::allocator<CCouple *>, COMDAT
; _this$ = ecx

; 111  : 	allocator()

  00000	8b c1		 mov	 eax, ecx

; 112  : 		{	// construct default allocator (do nothing)
; 113  : 		}

  00002	c3		 ret	 0
??0?$allocator@PAVCCouple@@@std@@QAE@XZ ENDP		; std::allocator<CCouple *>::allocator<CCouple *>
_TEXT	ENDS
PUBLIC	??Dconst_iterator@?$vector@PAVCCouple@@V?$allocator@PAVCCouple@@@std@@@std@@QBEABQAVCCouple@@XZ ; std::vector<CCouple *,std::allocator<CCouple *> >::const_iterator::operator*
; Function compile flags: /Ogty
; File c:\program files\microsoft visual studio .net 2003\vc7\include\vector
;	COMDAT ??Dconst_iterator@?$vector@PAVCCouple@@V?$allocator@PAVCCouple@@@std@@@std@@QBEABQAVCCouple@@XZ
_TEXT	SEGMENT
??Dconst_iterator@?$vector@PAVCCouple@@V?$allocator@PAVCCouple@@@std@@@std@@QBEABQAVCCouple@@XZ PROC NEAR ; std::vector<CCouple *,std::allocator<CCouple *> >::const_iterator::operator*, COMDAT
; _this$ = ecx

; 80   : 
; 81   : 
; 82   : 			return (*_Myptr);

  00000	8b 01		 mov	 eax, DWORD PTR [ecx]

; 83   : 			}

  00002	c3		 ret	 0
??Dconst_iterator@?$vector@PAVCCouple@@V?$allocator@PAVCCouple@@@std@@@std@@QBEABQAVCCouple@@XZ ENDP ; std::vector<CCouple *,std::allocator<CCouple *> >::const_iterator::operator*
_TEXT	ENDS
PUBLIC	??8const_iterator@?$vector@PAVCCouple@@V?$allocator@PAVCCouple@@@std@@@std@@QBE_NABV012@@Z ; std::vector<CCouple *,std::allocator<CCouple *> >::const_iterator::operator==
; Function compile flags: /Ogty
;	COMDAT ??8const_iterator@?$vector@PAVCCouple@@V?$allocator@PAVCCouple@@@std@@@std@@QBE_NABV012@@Z
_TEXT	SEGMENT
__Right$ = 8						; size = 4
??8const_iterator@?$vector@PAVCCouple@@V?$allocator@PAVCCouple@@@std@@@std@@QBE_NABV012@@Z PROC NEAR ; std::vector<CCouple *,std::allocator<CCouple *> >::const_iterator::operator==, COMDAT
; _this$ = ecx

; 153  : 
; 154  : 
; 155  : 			return (_Myptr == _Right._Myptr);

  00000	8b 01		 mov	 eax, DWORD PTR [ecx]
  00002	8b 4c 24 04	 mov	 ecx, DWORD PTR __Right$[esp-4]
  00006	2b 01		 sub	 eax, DWORD PTR [ecx]
  00008	f7 d8		 neg	 eax
  0000a	1b c0		 sbb	 eax, eax
  0000c	40		 inc	 eax

; 156  : 			}

  0000d	c2 04 00	 ret	 4
??8const_iterator@?$vector@PAVCCouple@@V?$allocator@PAVCCouple@@@std@@@std@@QBE_NABV012@@Z ENDP ; std::vector<CCouple *,std::allocator<CCouple *> >::const_iterator::operator==
_TEXT	ENDS
PUBLIC	??8const_iterator@?$_Tree@V?$_Tmap_traits@KPAVCCouple@@U?$less@K@std@@V?$allocator@U?$pair@$$CBKPAVCCouple@@@std@@@3@$0A@@std@@@std@@QBE_NABV012@@Z ; std::_Tree<std::_Tmap_traits<unsigned long,CCouple *,std::less<unsigned long>,std::allocator<std::pair<unsigned long const ,CCouple *> >,0> >::const_iterator::operator==
; Function compile flags: /Ogty
; File c:\program files\microsoft visual studio .net 2003\vc7\include\xtree
;	COMDAT ??8const_iterator@?$_Tree@V?$_Tmap_traits@KPAVCCouple@@U?$less@K@std@@V?$allocator@U?$pair@$$CBKPAVCCouple@@@std@@@3@$0A@@std@@@std@@QBE_NABV012@@Z
_TEXT	SEGMENT
__Right$ = 8						; size = 4
??8const_iterator@?$_Tree@V?$_Tmap_traits@KPAVCCouple@@U?$less@K@std@@V?$allocator@U?$pair@$$CBKPAVCCouple@@@std@@@3@$0A@@std@@@std@@QBE_NABV012@@Z PROC NEAR ; std::_Tree<std::_Tmap_traits<unsigned long,CCouple *,std::less<unsigned long>,std::allocator<std::pair<unsigned long const ,CCouple *> >,0> >::const_iterator::operator==, COMDAT
; _this$ = ecx

; 241  : 			return (_Ptr == _Right._Ptr);

  00000	8b 01		 mov	 eax, DWORD PTR [ecx]
  00002	8b 4c 24 04	 mov	 ecx, DWORD PTR __Right$[esp-4]
  00006	2b 01		 sub	 eax, DWORD PTR [ecx]
  00008	f7 d8		 neg	 eax
  0000a	1b c0		 sbb	 eax, eax
  0000c	40		 inc	 eax

; 242  : 			}

  0000d	c2 04 00	 ret	 4
??8const_iterator@?$_Tree@V?$_Tmap_traits@KPAVCCouple@@U?$less@K@std@@V?$allocator@U?$pair@$$CBKPAVCCouple@@@std@@@3@$0A@@std@@@std@@QBE_NABV012@@Z ENDP ; std::_Tree<std::_Tmap_traits<unsigned long,CCouple *,std::less<unsigned long>,std::allocator<std::pair<unsigned long const ,CCouple *> >,0> >::const_iterator::operator==
_TEXT	ENDS
PUBLIC	?_Mynode@const_iterator@?$_Tree@V?$_Tmap_traits@KPAVCCouple@@U?$less@K@std@@V?$allocator@U?$pair@$$CBKPAVCCouple@@@std@@@3@$0A@@std@@@std@@QBEPAU_Node@?$_Tree_nod@V?$_Tmap_traits@KPAVCCouple@@U?$less@K@std@@V?$allocator@U?$pair@$$CBKPAVCCouple@@@std@@@3@$0A@@std@@@3@XZ ; std::_Tree<std::_Tmap_traits<unsigned long,CCouple *,std::less<unsigned long>,std::allocator<std::pair<unsigned long const ,CCouple *> >,0> >::const_iterator::_Mynode
; Function compile flags: /Ogty
;	COMDAT ?_Mynode@const_iterator@?$_Tree@V?$_Tmap_traits@KPAVCCouple@@U?$less@K@std@@V?$allocator@U?$pair@$$CBKPAVCCouple@@@std@@@3@$0A@@std@@@std@@QBEPAU_Node@?$_Tree_nod@V?$_Tmap_traits@KPAVCCouple@@U?$less@K@std@@V?$allocator@U?$pair@$$CBKPAVCCouple@@@std@@@3@$0A@@std@@@3@XZ
_TEXT	SEGMENT
?_Mynode@const_iterator@?$_Tree@V?$_Tmap_traits@KPAVCCouple@@U?$less@K@std@@V?$allocator@U?$pair@$$CBKPAVCCouple@@@std@@@3@$0A@@std@@@std@@QBEPAU_Node@?$_Tree_nod@V?$_Tmap_traits@KPAVCCouple@@U?$less@K@std@@V?$allocator@U?$pair@$$CBKPAVCCouple@@@std@@@3@$0A@@std@@@3@XZ PROC NEAR ; std::_Tree<std::_Tmap_traits<unsigned long,CCouple *,std::less<unsigned long>,std::allocator<std::pair<unsigned long const ,CCouple *> >,0> >::const_iterator::_Mynode, COMDAT
; _this$ = ecx

; 284  : 			return (_Ptr);

  00000	8b 01		 mov	 eax, DWORD PTR [ecx]

; 285  : 			}

  00002	c3		 ret	 0
?_Mynode@const_iterator@?$_Tree@V?$_Tmap_traits@KPAVCCouple@@U?$less@K@std@@V?$allocator@U?$pair@$$CBKPAVCCouple@@@std@@@3@$0A@@std@@@std@@QBEPAU_Node@?$_Tree_nod@V?$_Tmap_traits@KPAVCCouple@@U?$less@K@std@@V?$allocator@U?$pair@$$CBKPAVCCouple@@@std@@@3@$0A@@std@@@3@XZ ENDP ; std::_Tree<std::_Tmap_traits<unsigned long,CCouple *,std::less<unsigned long>,std::allocator<std::pair<unsigned long const ,CCouple *> >,0> >::const_iterator::_Mynode
_TEXT	ENDS
PUBLIC	??0?$pair@Viterator@?$_Tree@V?$_Tmap_traits@KPAVCCouple@@U?$less@K@std@@V?$allocator@U?$pair@$$CBKPAVCCouple@@@std@@@3@$0A@@std@@@std@@_N@std@@QAE@ABViterator@?$_Tree@V?$_Tmap_traits@KPAVCCouple@@U?$less@K@std@@V?$allocator@U?$pair@$$CBKPAVCCouple@@@std@@@3@$0A@@std@@@1@AB_N@Z ; std::pair<std::_Tree<std::_Tmap_traits<unsigned long,CCouple *,std::less<unsigned long>,std::allocator<std::pair<unsigned long const ,CCouple *> >,0> >::iterator,bool>::pair<std::_Tree<std::_Tmap_traits<unsigned long,CCouple *,std::less<unsigned long>,std::allocator<std::pair<unsigned long const ,CCouple *> >,0> >::iterator,bool>
; Function compile flags: /Ogty
; File c:\program files\microsoft visual studio .net 2003\vc7\include\utility
;	COMDAT ??0?$pair@Viterator@?$_Tree@V?$_Tmap_traits@KPAVCCouple@@U?$less@K@std@@V?$allocator@U?$pair@$$CBKPAVCCouple@@@std@@@3@$0A@@std@@@std@@_N@std@@QAE@ABViterator@?$_Tree@V?$_Tmap_traits@KPAVCCouple@@U?$less@K@std@@V?$allocator@U?$pair@$$CBKPAVCCouple@@@std@@@3@$0A@@std@@@1@AB_N@Z
_TEXT	SEGMENT
__Val1$ = 8						; size = 4
__Val2$ = 12						; size = 4
??0?$pair@Viterator@?$_Tree@V?$_Tmap_traits@KPAVCCouple@@U?$less@K@std@@V?$allocator@U?$pair@$$CBKPAVCCouple@@@std@@@3@$0A@@std@@@std@@_N@std@@QAE@ABViterator@?$_Tree@V?$_Tmap_traits@KPAVCCouple@@U?$less@K@std@@V?$allocator@U?$pair@$$CBKPAVCCouple@@@std@@@3@$0A@@std@@@1@AB_N@Z PROC NEAR ; std::pair<std::_Tree<std::_Tmap_traits<unsigned long,CCouple *,std::less<unsigned long>,std::allocator<std::pair<unsigned long const ,CCouple *> >,0> >::iterator,bool>::pair<std::_Tree<std::_Tmap_traits<unsigned long,CCouple *,std::less<unsigned long>,std::allocator<std::pair<unsigned long const ,CCouple *> >,0> >::iterator,bool>, COMDAT
; _this$ = ecx

; 34   : 		{	// construct from specified values

  00000	8b c1		 mov	 eax, ecx
  00002	8b 4c 24 04	 mov	 ecx, DWORD PTR __Val1$[esp-4]
  00006	8b 11		 mov	 edx, DWORD PTR [ecx]
  00008	8b 4c 24 08	 mov	 ecx, DWORD PTR __Val2$[esp-4]
  0000c	89 10		 mov	 DWORD PTR [eax], edx
  0000e	8a 11		 mov	 dl, BYTE PTR [ecx]
  00010	88 50 04	 mov	 BYTE PTR [eax+4], dl

; 35   : 		}

  00013	c2 08 00	 ret	 8
??0?$pair@Viterator@?$_Tree@V?$_Tmap_traits@KPAVCCouple@@U?$less@K@std@@V?$allocator@U?$pair@$$CBKPAVCCouple@@@std@@@3@$0A@@std@@@std@@_N@std@@QAE@ABViterator@?$_Tree@V?$_Tmap_traits@KPAVCCouple@@U?$less@K@std@@V?$allocator@U?$pair@$$CBKPAVCCouple@@@std@@@3@$0A@@std@@@1@AB_N@Z ENDP ; std::pair<std::_Tree<std::_Tmap_traits<unsigned long,CCouple *,std::less<unsigned long>,std::allocator<std::pair<unsigned long const ,CCouple *> >,0> >::iterator,bool>::pair<std::_Tree<std::_Tmap_traits<unsigned long,CCouple *,std::less<unsigned long>,std::allocator<std::pair<unsigned long const ,CCouple *> >,0> >::iterator,bool>
_TEXT	ENDS
PUBLIC	?capacity@?$vector@U_COUPLE_ITEM@@V?$allocator@U_COUPLE_ITEM@@@std@@@std@@QBEIXZ ; std::vector<_COUPLE_ITEM,std::allocator<_COUPLE_ITEM> >::capacity
; Function compile flags: /Ogty
; File c:\program files\microsoft visual studio .net 2003\vc7\include\vector
;	COMDAT ?capacity@?$vector@U_COUPLE_ITEM@@V?$allocator@U_COUPLE_ITEM@@@std@@@std@@QBEIXZ
_TEXT	SEGMENT
?capacity@?$vector@U_COUPLE_ITEM@@V?$allocator@U_COUPLE_ITEM@@@std@@@std@@QBEIXZ PROC NEAR ; std::vector<_COUPLE_ITEM,std::allocator<_COUPLE_ITEM> >::capacity, COMDAT
; _this$ = ecx

; 458  : 		return (_Myfirst == 0 ? 0 : _Myend - _Myfirst);

  00000	8b 41 04	 mov	 eax, DWORD PTR [ecx+4]
  00003	85 c0		 test	 eax, eax
  00005	75 01		 jne	 SHORT $L193923

; 459  : 		}

  00007	c3		 ret	 0
$L193923:

; 458  : 		return (_Myfirst == 0 ? 0 : _Myend - _Myfirst);

  00008	8b 49 0c	 mov	 ecx, DWORD PTR [ecx+12]
  0000b	2b c8		 sub	 ecx, eax
  0000d	b8 67 66 66 66	 mov	 eax, 1717986919		; 66666667H
  00012	f7 e9		 imul	 ecx
  00014	c1 fa 03	 sar	 edx, 3
  00017	8b c2		 mov	 eax, edx
  00019	c1 e8 1f	 shr	 eax, 31			; 0000001fH
  0001c	03 c2		 add	 eax, edx

; 459  : 		}

  0001e	c3		 ret	 0
?capacity@?$vector@U_COUPLE_ITEM@@V?$allocator@U_COUPLE_ITEM@@@std@@@std@@QBEIXZ ENDP ; std::vector<_COUPLE_ITEM,std::allocator<_COUPLE_ITEM> >::capacity
_TEXT	ENDS
PUBLIC	?size@?$vector@U_COUPLE_ITEM@@V?$allocator@U_COUPLE_ITEM@@@std@@@std@@QBEIXZ ; std::vector<_COUPLE_ITEM,std::allocator<_COUPLE_ITEM> >::size
; Function compile flags: /Ogty
;	COMDAT ?size@?$vector@U_COUPLE_ITEM@@V?$allocator@U_COUPLE_ITEM@@@std@@@std@@QBEIXZ
_TEXT	SEGMENT
?size@?$vector@U_COUPLE_ITEM@@V?$allocator@U_COUPLE_ITEM@@@std@@@std@@QBEIXZ PROC NEAR ; std::vector<_COUPLE_ITEM,std::allocator<_COUPLE_ITEM> >::size, COMDAT
; _this$ = ecx

; 516  : 		return (_Myfirst == 0 ? 0 : _Mylast - _Myfirst);

  00000	8b 41 04	 mov	 eax, DWORD PTR [ecx+4]
  00003	85 c0		 test	 eax, eax
  00005	75 01		 jne	 SHORT $L193927

; 517  : 		}

  00007	c3		 ret	 0
$L193927:

; 516  : 		return (_Myfirst == 0 ? 0 : _Mylast - _Myfirst);

  00008	8b 49 08	 mov	 ecx, DWORD PTR [ecx+8]
  0000b	2b c8		 sub	 ecx, eax
  0000d	b8 67 66 66 66	 mov	 eax, 1717986919		; 66666667H
  00012	f7 e9		 imul	 ecx
  00014	c1 fa 03	 sar	 edx, 3
  00017	8b c2		 mov	 eax, edx
  00019	c1 e8 1f	 shr	 eax, 31			; 0000001fH
  0001c	03 c2		 add	 eax, edx

; 517  : 		}

  0001e	c3		 ret	 0
?size@?$vector@U_COUPLE_ITEM@@V?$allocator@U_COUPLE_ITEM@@@std@@@std@@QBEIXZ ENDP ; std::vector<_COUPLE_ITEM,std::allocator<_COUPLE_ITEM> >::size
_TEXT	ENDS
PUBLIC	?StringCompare@?$ChTraitsCRT@D@ATL@@SAHPBD0@Z	; ATL::ChTraitsCRT<char>::StringCompare
EXTRN	__mbscmp:NEAR
; Function compile flags: /Ogty
; File c:\program files\microsoft visual studio .net 2003\vc7\atlmfc\include\cstringt.h
;	COMDAT ?StringCompare@?$ChTraitsCRT@D@ATL@@SAHPBD0@Z
_TEXT	SEGMENT
_pszA$ = 8						; size = 4
_pszB$ = 12						; size = 4
?StringCompare@?$ChTraitsCRT@D@ATL@@SAHPBD0@Z PROC NEAR	; ATL::ChTraitsCRT<char>::StringCompare, COMDAT

; 336  : 		return _mbscmp( reinterpret_cast< const unsigned char* >( pszA ), reinterpret_cast< const unsigned char* >( pszB ) );

  00000	e9 00 00 00 00	 jmp	 __mbscmp
?StringCompare@?$ChTraitsCRT@D@ATL@@SAHPBD0@Z ENDP	; ATL::ChTraitsCRT<char>::StringCompare
_TEXT	ENDS
PUBLIC	??0?$allocator@H@std@@QAE@ABV01@@Z		; std::allocator<int>::allocator<int>
; Function compile flags: /Ogty
; File c:\program files\microsoft visual studio .net 2003\vc7\include\xmemory
;	COMDAT ??0?$allocator@H@std@@QAE@ABV01@@Z
_TEXT	SEGMENT
___formal$ = 8						; size = 4
??0?$allocator@H@std@@QAE@ABV01@@Z PROC NEAR		; std::allocator<int>::allocator<int>, COMDAT
; _this$ = ecx

; 115  : 	allocator(const allocator<_Ty>&)

  00000	8b c1		 mov	 eax, ecx

; 116  : 		{	// construct by copying (do nothing)
; 117  : 		}

  00002	c2 04 00	 ret	 4
??0?$allocator@H@std@@QAE@ABV01@@Z ENDP			; std::allocator<int>::allocator<int>
_TEXT	ENDS
PUBLIC	?deallocate@?$allocator@H@std@@QAEXPAHI@Z	; std::allocator<int>::deallocate
; Function compile flags: /Ogty
;	COMDAT ?deallocate@?$allocator@H@std@@QAEXPAHI@Z
_TEXT	SEGMENT
__Ptr$ = 8						; size = 4
___formal$ = 12						; size = 4
?deallocate@?$allocator@H@std@@QAEXPAHI@Z PROC NEAR	; std::allocator<int>::deallocate, COMDAT
; _this$ = ecx

; 132  : 		operator delete(_Ptr);

  00000	8b 44 24 04	 mov	 eax, DWORD PTR __Ptr$[esp-4]
  00004	50		 push	 eax
  00005	e8 00 00 00 00	 call	 ??3@YAXPAX@Z		; operator delete
  0000a	59		 pop	 ecx

; 133  : 		}

  0000b	c2 08 00	 ret	 8
?deallocate@?$allocator@H@std@@QAEXPAHI@Z ENDP		; std::allocator<int>::deallocate
_TEXT	ENDS
PUBLIC	?size@?$vector@V?$vector@U_COUPLE_ITEM@@V?$allocator@U_COUPLE_ITEM@@@std@@@std@@V?$allocator@V?$vector@U_COUPLE_ITEM@@V?$allocator@U_COUPLE_ITEM@@@std@@@std@@@2@@std@@QBEIXZ ; std::vector<std::vector<_COUPLE_ITEM,std::allocator<_COUPLE_ITEM> >,std::allocator<std::vector<_COUPLE_ITEM,std::allocator<_COUPLE_ITEM> > > >::size
; Function compile flags: /Ogty
; File c:\program files\microsoft visual studio .net 2003\vc7\include\vector
;	COMDAT ?size@?$vector@V?$vector@U_COUPLE_ITEM@@V?$allocator@U_COUPLE_ITEM@@@std@@@std@@V?$allocator@V?$vector@U_COUPLE_ITEM@@V?$allocator@U_COUPLE_ITEM@@@std@@@std@@@2@@std@@QBEIXZ
_TEXT	SEGMENT
?size@?$vector@V?$vector@U_COUPLE_ITEM@@V?$allocator@U_COUPLE_ITEM@@@std@@@std@@V?$allocator@V?$vector@U_COUPLE_ITEM@@V?$allocator@U_COUPLE_ITEM@@@std@@@std@@@2@@std@@QBEIXZ PROC NEAR ; std::vector<std::vector<_COUPLE_ITEM,std::allocator<_COUPLE_ITEM> >,std::allocator<std::vector<_COUPLE_ITEM,std::allocator<_COUPLE_ITEM> > > >::size, COMDAT
; _this$ = ecx

; 516  : 		return (_Myfirst == 0 ? 0 : _Mylast - _Myfirst);

  00000	8b 51 04	 mov	 edx, DWORD PTR [ecx+4]
  00003	85 d2		 test	 edx, edx
  00005	75 03		 jne	 SHORT $L193938
  00007	33 c0		 xor	 eax, eax

; 517  : 		}

  00009	c3		 ret	 0
$L193938:

; 516  : 		return (_Myfirst == 0 ? 0 : _Mylast - _Myfirst);

  0000a	8b 41 08	 mov	 eax, DWORD PTR [ecx+8]
  0000d	2b c2		 sub	 eax, edx
  0000f	c1 f8 04	 sar	 eax, 4

; 517  : 		}

  00012	c3		 ret	 0
?size@?$vector@V?$vector@U_COUPLE_ITEM@@V?$allocator@U_COUPLE_ITEM@@@std@@@std@@V?$allocator@V?$vector@U_COUPLE_ITEM@@V?$allocator@U_COUPLE_ITEM@@@std@@@std@@@2@@std@@QBEIXZ ENDP ; std::vector<std::vector<_COUPLE_ITEM,std::allocator<_COUPLE_ITEM> >,std::allocator<std::vector<_COUPLE_ITEM,std::allocator<_COUPLE_ITEM> > > >::size
_TEXT	ENDS
PUBLIC	??0?$allocator@V?$vector@U_COUPLE_ITEM@@V?$allocator@U_COUPLE_ITEM@@@std@@@std@@@std@@QAE@ABV01@@Z ; std::allocator<std::vector<_COUPLE_ITEM,std::allocator<_COUPLE_ITEM> > >::allocator<std::vector<_COUPLE_ITEM,std::allocator<_COUPLE_ITEM> > >
; Function compile flags: /Ogty
; File c:\program files\microsoft visual studio .net 2003\vc7\include\xmemory
;	COMDAT ??0?$allocator@V?$vector@U_COUPLE_ITEM@@V?$allocator@U_COUPLE_ITEM@@@std@@@std@@@std@@QAE@ABV01@@Z
_TEXT	SEGMENT
___formal$ = 8						; size = 4
??0?$allocator@V?$vector@U_COUPLE_ITEM@@V?$allocator@U_COUPLE_ITEM@@@std@@@std@@@std@@QAE@ABV01@@Z PROC NEAR ; std::allocator<std::vector<_COUPLE_ITEM,std::allocator<_COUPLE_ITEM> > >::allocator<std::vector<_COUPLE_ITEM,std::allocator<_COUPLE_ITEM> > >, COMDAT
; _this$ = ecx

; 115  : 	allocator(const allocator<_Ty>&)

  00000	8b c1		 mov	 eax, ecx

; 116  : 		{	// construct by copying (do nothing)
; 117  : 		}

  00002	c2 04 00	 ret	 4
??0?$allocator@V?$vector@U_COUPLE_ITEM@@V?$allocator@U_COUPLE_ITEM@@@std@@@std@@@std@@QAE@ABV01@@Z ENDP ; std::allocator<std::vector<_COUPLE_ITEM,std::allocator<_COUPLE_ITEM> > >::allocator<std::vector<_COUPLE_ITEM,std::allocator<_COUPLE_ITEM> > >
_TEXT	ENDS
PUBLIC	?deallocate@?$allocator@V?$vector@U_COUPLE_ITEM@@V?$allocator@U_COUPLE_ITEM@@@std@@@std@@@std@@QAEXPAV?$vector@U_COUPLE_ITEM@@V?$allocator@U_COUPLE_ITEM@@@std@@@2@I@Z ; std::allocator<std::vector<_COUPLE_ITEM,std::allocator<_COUPLE_ITEM> > >::deallocate
; Function compile flags: /Ogty
;	COMDAT ?deallocate@?$allocator@V?$vector@U_COUPLE_ITEM@@V?$allocator@U_COUPLE_ITEM@@@std@@@std@@@std@@QAEXPAV?$vector@U_COUPLE_ITEM@@V?$allocator@U_COUPLE_ITEM@@@std@@@2@I@Z
_TEXT	SEGMENT
__Ptr$ = 8						; size = 4
___formal$ = 12						; size = 4
?deallocate@?$allocator@V?$vector@U_COUPLE_ITEM@@V?$allocator@U_COUPLE_ITEM@@@std@@@std@@@std@@QAEXPAV?$vector@U_COUPLE_ITEM@@V?$allocator@U_COUPLE_ITEM@@@std@@@2@I@Z PROC NEAR ; std::allocator<std::vector<_COUPLE_ITEM,std::allocator<_COUPLE_ITEM> > >::deallocate, COMDAT
; _this$ = ecx

; 132  : 		operator delete(_Ptr);

  00000	8b 44 24 04	 mov	 eax, DWORD PTR __Ptr$[esp-4]
  00004	50		 push	 eax
  00005	e8 00 00 00 00	 call	 ??3@YAXPAX@Z		; operator delete
  0000a	59		 pop	 ecx

; 133  : 		}

  0000b	c2 08 00	 ret	 8
?deallocate@?$allocator@V?$vector@U_COUPLE_ITEM@@V?$allocator@U_COUPLE_ITEM@@@std@@@std@@@std@@QAEXPAV?$vector@U_COUPLE_ITEM@@V?$allocator@U_COUPLE_ITEM@@@std@@@2@I@Z ENDP ; std::allocator<std::vector<_COUPLE_ITEM,std::allocator<_COUPLE_ITEM> > >::deallocate
_TEXT	ENDS
PUBLIC	??0?$allocator@V?$vector@HV?$allocator@H@std@@@std@@@std@@QAE@ABV01@@Z ; std::allocator<std::vector<int,std::allocator<int> > >::allocator<std::vector<int,std::allocator<int> > >
; Function compile flags: /Ogty
;	COMDAT ??0?$allocator@V?$vector@HV?$allocator@H@std@@@std@@@std@@QAE@ABV01@@Z
_TEXT	SEGMENT
___formal$ = 8						; size = 4
??0?$allocator@V?$vector@HV?$allocator@H@std@@@std@@@std@@QAE@ABV01@@Z PROC NEAR ; std::allocator<std::vector<int,std::allocator<int> > >::allocator<std::vector<int,std::allocator<int> > >, COMDAT
; _this$ = ecx

; 115  : 	allocator(const allocator<_Ty>&)

  00000	8b c1		 mov	 eax, ecx

; 116  : 		{	// construct by copying (do nothing)
; 117  : 		}

  00002	c2 04 00	 ret	 4
??0?$allocator@V?$vector@HV?$allocator@H@std@@@std@@@std@@QAE@ABV01@@Z ENDP ; std::allocator<std::vector<int,std::allocator<int> > >::allocator<std::vector<int,std::allocator<int> > >
_TEXT	ENDS
PUBLIC	?deallocate@?$allocator@V?$vector@HV?$allocator@H@std@@@std@@@std@@QAEXPAV?$vector@HV?$allocator@H@std@@@2@I@Z ; std::allocator<std::vector<int,std::allocator<int> > >::deallocate
; Function compile flags: /Ogty
;	COMDAT ?deallocate@?$allocator@V?$vector@HV?$allocator@H@std@@@std@@@std@@QAEXPAV?$vector@HV?$allocator@H@std@@@2@I@Z
_TEXT	SEGMENT
__Ptr$ = 8						; size = 4
___formal$ = 12						; size = 4
?deallocate@?$allocator@V?$vector@HV?$allocator@H@std@@@std@@@std@@QAEXPAV?$vector@HV?$allocator@H@std@@@2@I@Z PROC NEAR ; std::allocator<std::vector<int,std::allocator<int> > >::deallocate, COMDAT
; _this$ = ecx

; 132  : 		operator delete(_Ptr);

  00000	8b 44 24 04	 mov	 eax, DWORD PTR __Ptr$[esp-4]
  00004	50		 push	 eax
  00005	e8 00 00 00 00	 call	 ??3@YAXPAX@Z		; operator delete
  0000a	59		 pop	 ecx

; 133  : 		}

  0000b	c2 08 00	 ret	 8
?deallocate@?$allocator@V?$vector@HV?$allocator@H@std@@@std@@@std@@QAEXPAV?$vector@HV?$allocator@H@std@@@2@I@Z ENDP ; std::allocator<std::vector<int,std::allocator<int> > >::deallocate
_TEXT	ENDS
PUBLIC	?_Color@?$_Tree@V?$_Tmap_traits@KPAVCCouple@@U?$less@K@std@@V?$allocator@U?$pair@$$CBKPAVCCouple@@@std@@@3@$0A@@std@@@std@@KAAADPAU_Node@?$_Tree_nod@V?$_Tmap_traits@KPAVCCouple@@U?$less@K@std@@V?$allocator@U?$pair@$$CBKPAVCCouple@@@std@@@3@$0A@@std@@@2@@Z ; std::_Tree<std::_Tmap_traits<unsigned long,CCouple *,std::less<unsigned long>,std::allocator<std::pair<unsigned long const ,CCouple *> >,0> >::_Color
; Function compile flags: /Ogty
; File c:\program files\microsoft visual studio .net 2003\vc7\include\xtree
;	COMDAT ?_Color@?$_Tree@V?$_Tmap_traits@KPAVCCouple@@U?$less@K@std@@V?$allocator@U?$pair@$$CBKPAVCCouple@@@std@@@3@$0A@@std@@@std@@KAAADPAU_Node@?$_Tree_nod@V?$_Tmap_traits@KPAVCCouple@@U?$less@K@std@@V?$allocator@U?$pair@$$CBKPAVCCouple@@@std@@@3@$0A@@std@@@2@@Z
_TEXT	SEGMENT
__Pnode$ = 8						; size = 4
?_Color@?$_Tree@V?$_Tmap_traits@KPAVCCouple@@U?$less@K@std@@V?$allocator@U?$pair@$$CBKPAVCCouple@@@std@@@3@$0A@@std@@@std@@KAAADPAU_Node@?$_Tree_nod@V?$_Tmap_traits@KPAVCCouple@@U?$less@K@std@@V?$allocator@U?$pair@$$CBKPAVCCouple@@@std@@@3@$0A@@std@@@2@@Z PROC NEAR ; std::_Tree<std::_Tmap_traits<unsigned long,CCouple *,std::less<unsigned long>,std::allocator<std::pair<unsigned long const ,CCouple *> >,0> >::_Color, COMDAT

; 132  : 		return ((_Charref)(*_Pnode)._Color);

  00000	8b 44 24 04	 mov	 eax, DWORD PTR __Pnode$[esp-4]
  00004	83 c0 14	 add	 eax, 20			; 00000014H

; 133  : 		}

  00007	c3		 ret	 0
?_Color@?$_Tree@V?$_Tmap_traits@KPAVCCouple@@U?$less@K@std@@V?$allocator@U?$pair@$$CBKPAVCCouple@@@std@@@3@$0A@@std@@@std@@KAAADPAU_Node@?$_Tree_nod@V?$_Tmap_traits@KPAVCCouple@@U?$less@K@std@@V?$allocator@U?$pair@$$CBKPAVCCouple@@@std@@@3@$0A@@std@@@2@@Z ENDP ; std::_Tree<std::_Tmap_traits<unsigned long,CCouple *,std::less<unsigned long>,std::allocator<std::pair<unsigned long const ,CCouple *> >,0> >::_Color
_TEXT	ENDS
PUBLIC	?_Parent@?$_Tree@V?$_Tmap_traits@KPAVCCouple@@U?$less@K@std@@V?$allocator@U?$pair@$$CBKPAVCCouple@@@std@@@3@$0A@@std@@@std@@KAAAPAU_Node@?$_Tree_nod@V?$_Tmap_traits@KPAVCCouple@@U?$less@K@std@@V?$allocator@U?$pair@$$CBKPAVCCouple@@@std@@@3@$0A@@std@@@2@PAU342@@Z ; std::_Tree<std::_Tmap_traits<unsigned long,CCouple *,std::less<unsigned long>,std::allocator<std::pair<unsigned long const ,CCouple *> >,0> >::_Parent
; Function compile flags: /Ogty
;	COMDAT ?_Parent@?$_Tree@V?$_Tmap_traits@KPAVCCouple@@U?$less@K@std@@V?$allocator@U?$pair@$$CBKPAVCCouple@@@std@@@3@$0A@@std@@@std@@KAAAPAU_Node@?$_Tree_nod@V?$_Tmap_traits@KPAVCCouple@@U?$less@K@std@@V?$allocator@U?$pair@$$CBKPAVCCouple@@@std@@@3@$0A@@std@@@2@PAU342@@Z
_TEXT	SEGMENT
__Pnode$ = 8						; size = 4
?_Parent@?$_Tree@V?$_Tmap_traits@KPAVCCouple@@U?$less@K@std@@V?$allocator@U?$pair@$$CBKPAVCCouple@@@std@@@3@$0A@@std@@@std@@KAAAPAU_Node@?$_Tree_nod@V?$_Tmap_traits@KPAVCCouple@@U?$less@K@std@@V?$allocator@U?$pair@$$CBKPAVCCouple@@@std@@@3@$0A@@std@@@2@PAU342@@Z PROC NEAR ; std::_Tree<std::_Tmap_traits<unsigned long,CCouple *,std::less<unsigned long>,std::allocator<std::pair<unsigned long const ,CCouple *> >,0> >::_Parent, COMDAT

; 152  : 		return ((_Nodepref)(*_Pnode)._Parent);

  00000	8b 44 24 04	 mov	 eax, DWORD PTR __Pnode$[esp-4]
  00004	83 c0 04	 add	 eax, 4

; 153  : 		}

  00007	c3		 ret	 0
?_Parent@?$_Tree@V?$_Tmap_traits@KPAVCCouple@@U?$less@K@std@@V?$allocator@U?$pair@$$CBKPAVCCouple@@@std@@@3@$0A@@std@@@std@@KAAAPAU_Node@?$_Tree_nod@V?$_Tmap_traits@KPAVCCouple@@U?$less@K@std@@V?$allocator@U?$pair@$$CBKPAVCCouple@@@std@@@3@$0A@@std@@@2@PAU342@@Z ENDP ; std::_Tree<std::_Tmap_traits<unsigned long,CCouple *,std::less<unsigned long>,std::allocator<std::pair<unsigned long const ,CCouple *> >,0> >::_Parent
_TEXT	ENDS
PUBLIC	?_Myval@?$_Tree@V?$_Tmap_traits@KPAVCCouple@@U?$less@K@std@@V?$allocator@U?$pair@$$CBKPAVCCouple@@@std@@@3@$0A@@std@@@std@@KAAAU?$pair@$$CBKPAVCCouple@@@2@PAU_Node@?$_Tree_nod@V?$_Tmap_traits@KPAVCCouple@@U?$less@K@std@@V?$allocator@U?$pair@$$CBKPAVCCouple@@@std@@@3@$0A@@std@@@2@@Z ; std::_Tree<std::_Tmap_traits<unsigned long,CCouple *,std::less<unsigned long>,std::allocator<std::pair<unsigned long const ,CCouple *> >,0> >::_Myval
; Function compile flags: /Ogty
;	COMDAT ?_Myval@?$_Tree@V?$_Tmap_traits@KPAVCCouple@@U?$less@K@std@@V?$allocator@U?$pair@$$CBKPAVCCouple@@@std@@@3@$0A@@std@@@std@@KAAAU?$pair@$$CBKPAVCCouple@@@2@PAU_Node@?$_Tree_nod@V?$_Tmap_traits@KPAVCCouple@@U?$less@K@std@@V?$allocator@U?$pair@$$CBKPAVCCouple@@@std@@@3@$0A@@std@@@2@@Z
_TEXT	SEGMENT
__Pnode$ = 8						; size = 4
?_Myval@?$_Tree@V?$_Tmap_traits@KPAVCCouple@@U?$less@K@std@@V?$allocator@U?$pair@$$CBKPAVCCouple@@@std@@@3@$0A@@std@@@std@@KAAAU?$pair@$$CBKPAVCCouple@@@2@PAU_Node@?$_Tree_nod@V?$_Tmap_traits@KPAVCCouple@@U?$less@K@std@@V?$allocator@U?$pair@$$CBKPAVCCouple@@@std@@@3@$0A@@std@@@2@@Z PROC NEAR ; std::_Tree<std::_Tmap_traits<unsigned long,CCouple *,std::less<unsigned long>,std::allocator<std::pair<unsigned long const ,CCouple *> >,0> >::_Myval, COMDAT

; 162  : 		return ((_Vref)(*_Pnode)._Myval);

  00000	8b 44 24 04	 mov	 eax, DWORD PTR __Pnode$[esp-4]
  00004	83 c0 0c	 add	 eax, 12			; 0000000cH

; 163  : 		}

  00007	c3		 ret	 0
?_Myval@?$_Tree@V?$_Tmap_traits@KPAVCCouple@@U?$less@K@std@@V?$allocator@U?$pair@$$CBKPAVCCouple@@@std@@@3@$0A@@std@@@std@@KAAAU?$pair@$$CBKPAVCCouple@@@2@PAU_Node@?$_Tree_nod@V?$_Tmap_traits@KPAVCCouple@@U?$less@K@std@@V?$allocator@U?$pair@$$CBKPAVCCouple@@@std@@@3@$0A@@std@@@2@@Z ENDP ; std::_Tree<std::_Tmap_traits<unsigned long,CCouple *,std::less<unsigned long>,std::allocator<std::pair<unsigned long const ,CCouple *> >,0> >::_Myval
_TEXT	ENDS
PUBLIC	??0?$allocator@U?$pair@$$CBKPAVCCouple@@@std@@@std@@QAE@ABV01@@Z ; std::allocator<std::pair<unsigned long const ,CCouple *> >::allocator<std::pair<unsigned long const ,CCouple *> >
; Function compile flags: /Ogty
; File c:\program files\microsoft visual studio .net 2003\vc7\include\xmemory
;	COMDAT ??0?$allocator@U?$pair@$$CBKPAVCCouple@@@std@@@std@@QAE@ABV01@@Z
_TEXT	SEGMENT
___formal$ = 8						; size = 4
??0?$allocator@U?$pair@$$CBKPAVCCouple@@@std@@@std@@QAE@ABV01@@Z PROC NEAR ; std::allocator<std::pair<unsigned long const ,CCouple *> >::allocator<std::pair<unsigned long const ,CCouple *> >, COMDAT
; _this$ = ecx

; 115  : 	allocator(const allocator<_Ty>&)

  00000	8b c1		 mov	 eax, ecx

; 116  : 		{	// construct by copying (do nothing)
; 117  : 		}

  00002	c2 04 00	 ret	 4
??0?$allocator@U?$pair@$$CBKPAVCCouple@@@std@@@std@@QAE@ABV01@@Z ENDP ; std::allocator<std::pair<unsigned long const ,CCouple *> >::allocator<std::pair<unsigned long const ,CCouple *> >
_TEXT	ENDS
PUBLIC	?deallocate@?$allocator@U_Node@?$_Tree_nod@V?$_Tmap_traits@KPAVCCouple@@U?$less@K@std@@V?$allocator@U?$pair@$$CBKPAVCCouple@@@std@@@3@$0A@@std@@@std@@@std@@QAEXPAU_Node@?$_Tree_nod@V?$_Tmap_traits@KPAVCCouple@@U?$less@K@std@@V?$allocator@U?$pair@$$CBKPAVCCouple@@@std@@@3@$0A@@std@@@2@I@Z ; std::allocator<std::_Tree_nod<std::_Tmap_traits<unsigned long,CCouple *,std::less<unsigned long>,std::allocator<std::pair<unsigned long const ,CCouple *> >,0> >::_Node>::deallocate
; Function compile flags: /Ogty
;	COMDAT ?deallocate@?$allocator@U_Node@?$_Tree_nod@V?$_Tmap_traits@KPAVCCouple@@U?$less@K@std@@V?$allocator@U?$pair@$$CBKPAVCCouple@@@std@@@3@$0A@@std@@@std@@@std@@QAEXPAU_Node@?$_Tree_nod@V?$_Tmap_traits@KPAVCCouple@@U?$less@K@std@@V?$allocator@U?$pair@$$CBKPAVCCouple@@@std@@@3@$0A@@std@@@2@I@Z
_TEXT	SEGMENT
__Ptr$ = 8						; size = 4
___formal$ = 12						; size = 4
?deallocate@?$allocator@U_Node@?$_Tree_nod@V?$_Tmap_traits@KPAVCCouple@@U?$less@K@std@@V?$allocator@U?$pair@$$CBKPAVCCouple@@@std@@@3@$0A@@std@@@std@@@std@@QAEXPAU_Node@?$_Tree_nod@V?$_Tmap_traits@KPAVCCouple@@U?$less@K@std@@V?$allocator@U?$pair@$$CBKPAVCCouple@@@std@@@3@$0A@@std@@@2@I@Z PROC NEAR ; std::allocator<std::_Tree_nod<std::_Tmap_traits<unsigned long,CCouple *,std::less<unsigned long>,std::allocator<std::pair<unsigned long const ,CCouple *> >,0> >::_Node>::deallocate, COMDAT
; _this$ = ecx

; 132  : 		operator delete(_Ptr);

  00000	8b 44 24 04	 mov	 eax, DWORD PTR __Ptr$[esp-4]
  00004	50		 push	 eax
  00005	e8 00 00 00 00	 call	 ??3@YAXPAX@Z		; operator delete
  0000a	59		 pop	 ecx

; 133  : 		}

  0000b	c2 08 00	 ret	 8
?deallocate@?$allocator@U_Node@?$_Tree_nod@V?$_Tmap_traits@KPAVCCouple@@U?$less@K@std@@V?$allocator@U?$pair@$$CBKPAVCCouple@@@std@@@3@$0A@@std@@@std@@@std@@QAEXPAU_Node@?$_Tree_nod@V?$_Tmap_traits@KPAVCCouple@@U?$less@K@std@@V?$allocator@U?$pair@$$CBKPAVCCouple@@@std@@@3@$0A@@std@@@2@I@Z ENDP ; std::allocator<std::_Tree_nod<std::_Tmap_traits<unsigned long,CCouple *,std::less<unsigned long>,std::allocator<std::pair<unsigned long const ,CCouple *> >,0> >::_Node>::deallocate
_TEXT	ENDS
PUBLIC	??0?$allocator@PAVCCouple@@@std@@QAE@ABV01@@Z	; std::allocator<CCouple *>::allocator<CCouple *>
; Function compile flags: /Ogty
;	COMDAT ??0?$allocator@PAVCCouple@@@std@@QAE@ABV01@@Z
_TEXT	SEGMENT
___formal$ = 8						; size = 4
??0?$allocator@PAVCCouple@@@std@@QAE@ABV01@@Z PROC NEAR	; std::allocator<CCouple *>::allocator<CCouple *>, COMDAT
; _this$ = ecx

; 115  : 	allocator(const allocator<_Ty>&)

  00000	8b c1		 mov	 eax, ecx

; 116  : 		{	// construct by copying (do nothing)
; 117  : 		}

  00002	c2 04 00	 ret	 4
??0?$allocator@PAVCCouple@@@std@@QAE@ABV01@@Z ENDP	; std::allocator<CCouple *>::allocator<CCouple *>
_TEXT	ENDS
PUBLIC	?deallocate@?$allocator@PAVCCouple@@@std@@QAEXPAPAVCCouple@@I@Z ; std::allocator<CCouple *>::deallocate
; Function compile flags: /Ogty
;	COMDAT ?deallocate@?$allocator@PAVCCouple@@@std@@QAEXPAPAVCCouple@@I@Z
_TEXT	SEGMENT
__Ptr$ = 8						; size = 4
___formal$ = 12						; size = 4
?deallocate@?$allocator@PAVCCouple@@@std@@QAEXPAPAVCCouple@@I@Z PROC NEAR ; std::allocator<CCouple *>::deallocate, COMDAT
; _this$ = ecx

; 132  : 		operator delete(_Ptr);

  00000	8b 44 24 04	 mov	 eax, DWORD PTR __Ptr$[esp-4]
  00004	50		 push	 eax
  00005	e8 00 00 00 00	 call	 ??3@YAXPAX@Z		; operator delete
  0000a	59		 pop	 ecx

; 133  : 		}

  0000b	c2 08 00	 ret	 8
?deallocate@?$allocator@PAVCCouple@@@std@@QAEXPAPAVCCouple@@I@Z ENDP ; std::allocator<CCouple *>::deallocate
_TEXT	ENDS
PUBLIC	??0const_iterator@?$vector@PAVCCouple@@V?$allocator@PAVCCouple@@@std@@@std@@QAE@PAPAVCCouple@@@Z ; std::vector<CCouple *,std::allocator<CCouple *> >::const_iterator::const_iterator
; Function compile flags: /Ogty
; File c:\program files\microsoft visual studio .net 2003\vc7\include\vector
;	COMDAT ??0const_iterator@?$vector@PAVCCouple@@V?$allocator@PAVCCouple@@@std@@@std@@QAE@PAPAVCCouple@@@Z
_TEXT	SEGMENT
__Ptr$ = 8						; size = 4
??0const_iterator@?$vector@PAVCCouple@@V?$allocator@PAVCCouple@@@std@@@std@@QAE@PAPAVCCouple@@@Z PROC NEAR ; std::vector<CCouple *,std::allocator<CCouple *> >::const_iterator::const_iterator, COMDAT
; _this$ = ecx

; 73   : 		const_iterator(_Tptr _Ptr)

  00000	8b c1		 mov	 eax, ecx

; 74   : 			{	// construct with pointer _Ptr
; 75   : 			_Myptr = _Ptr;

  00002	8b 4c 24 04	 mov	 ecx, DWORD PTR __Ptr$[esp-4]
  00006	89 08		 mov	 DWORD PTR [eax], ecx

; 76   : 			}

  00008	c2 04 00	 ret	 4
??0const_iterator@?$vector@PAVCCouple@@V?$allocator@PAVCCouple@@@std@@@std@@QAE@PAPAVCCouple@@@Z ENDP ; std::vector<CCouple *,std::allocator<CCouple *> >::const_iterator::const_iterator
_TEXT	ENDS
PUBLIC	??0const_iterator@?$_Tree@V?$_Tmap_traits@KPAVCCouple@@U?$less@K@std@@V?$allocator@U?$pair@$$CBKPAVCCouple@@@std@@@3@$0A@@std@@@std@@QAE@PAU_Node@?$_Tree_nod@V?$_Tmap_traits@KPAVCCouple@@U?$less@K@std@@V?$allocator@U?$pair@$$CBKPAVCCouple@@@std@@@3@$0A@@std@@@2@@Z ; std::_Tree<std::_Tmap_traits<unsigned long,CCouple *,std::less<unsigned long>,std::allocator<std::pair<unsigned long const ,CCouple *> >,0> >::const_iterator::const_iterator
; Function compile flags: /Ogty
; File c:\program files\microsoft visual studio .net 2003\vc7\include\xtree
;	COMDAT ??0const_iterator@?$_Tree@V?$_Tmap_traits@KPAVCCouple@@U?$less@K@std@@V?$allocator@U?$pair@$$CBKPAVCCouple@@@std@@@3@$0A@@std@@@std@@QAE@PAU_Node@?$_Tree_nod@V?$_Tmap_traits@KPAVCCouple@@U?$less@K@std@@V?$allocator@U?$pair@$$CBKPAVCCouple@@@std@@@3@$0A@@std@@@2@@Z
_TEXT	SEGMENT
__Pnode$ = 8						; size = 4
??0const_iterator@?$_Tree@V?$_Tmap_traits@KPAVCCouple@@U?$less@K@std@@V?$allocator@U?$pair@$$CBKPAVCCouple@@@std@@@3@$0A@@std@@@std@@QAE@PAU_Node@?$_Tree_nod@V?$_Tmap_traits@KPAVCCouple@@U?$less@K@std@@V?$allocator@U?$pair@$$CBKPAVCCouple@@@std@@@3@$0A@@std@@@2@@Z PROC NEAR ; std::_Tree<std::_Tmap_traits<unsigned long,CCouple *,std::less<unsigned long>,std::allocator<std::pair<unsigned long const ,CCouple *> >,0> >::const_iterator::const_iterator, COMDAT
; _this$ = ecx

; 200  : 			{	// construct with node pointer _Pnode

  00000	8b c1		 mov	 eax, ecx
  00002	8b 4c 24 04	 mov	 ecx, DWORD PTR __Pnode$[esp-4]
  00006	89 08		 mov	 DWORD PTR [eax], ecx

; 201  : 			}

  00008	c2 04 00	 ret	 4
??0const_iterator@?$_Tree@V?$_Tmap_traits@KPAVCCouple@@U?$less@K@std@@V?$allocator@U?$pair@$$CBKPAVCCouple@@@std@@@3@$0A@@std@@@std@@QAE@PAU_Node@?$_Tree_nod@V?$_Tmap_traits@KPAVCCouple@@U?$less@K@std@@V?$allocator@U?$pair@$$CBKPAVCCouple@@@std@@@3@$0A@@std@@@2@@Z ENDP ; std::_Tree<std::_Tmap_traits<unsigned long,CCouple *,std::less<unsigned long>,std::allocator<std::pair<unsigned long const ,CCouple *> >,0> >::const_iterator::const_iterator
_TEXT	ENDS
PUBLIC	??Dconst_iterator@?$_Tree@V?$_Tmap_traits@KPAVCCouple@@U?$less@K@std@@V?$allocator@U?$pair@$$CBKPAVCCouple@@@std@@@3@$0A@@std@@@std@@QBEABU?$pair@$$CBKPAVCCouple@@@2@XZ ; std::_Tree<std::_Tmap_traits<unsigned long,CCouple *,std::less<unsigned long>,std::allocator<std::pair<unsigned long const ,CCouple *> >,0> >::const_iterator::operator*
; Function compile flags: /Ogty
;	COMDAT ??Dconst_iterator@?$_Tree@V?$_Tmap_traits@KPAVCCouple@@U?$less@K@std@@V?$allocator@U?$pair@$$CBKPAVCCouple@@@std@@@3@$0A@@std@@@std@@QBEABU?$pair@$$CBKPAVCCouple@@@2@XZ
_TEXT	SEGMENT
??Dconst_iterator@?$_Tree@V?$_Tmap_traits@KPAVCCouple@@U?$less@K@std@@V?$allocator@U?$pair@$$CBKPAVCCouple@@@std@@@3@$0A@@std@@@std@@QBEABU?$pair@$$CBKPAVCCouple@@@2@XZ PROC NEAR ; std::_Tree<std::_Tmap_traits<unsigned long,CCouple *,std::less<unsigned long>,std::allocator<std::pair<unsigned long const ,CCouple *> >,0> >::const_iterator::operator*, COMDAT
; _this$ = ecx

; 205  : 			return (_Myval(_Ptr));

  00000	8b 01		 mov	 eax, DWORD PTR [ecx]
  00002	83 c0 0c	 add	 eax, 12			; 0000000cH

; 206  : 			}

  00005	c3		 ret	 0
??Dconst_iterator@?$_Tree@V?$_Tmap_traits@KPAVCCouple@@U?$less@K@std@@V?$allocator@U?$pair@$$CBKPAVCCouple@@@std@@@3@$0A@@std@@@std@@QBEABU?$pair@$$CBKPAVCCouple@@@2@XZ ENDP ; std::_Tree<std::_Tmap_traits<unsigned long,CCouple *,std::less<unsigned long>,std::allocator<std::pair<unsigned long const ,CCouple *> >,0> >::const_iterator::operator*
_TEXT	ENDS
PUBLIC	??0?$allocator@U_COUPLE_ITEM@@@std@@QAE@XZ	; std::allocator<_COUPLE_ITEM>::allocator<_COUPLE_ITEM>
; Function compile flags: /Ogty
; File c:\program files\microsoft visual studio .net 2003\vc7\include\xmemory
;	COMDAT ??0?$allocator@U_COUPLE_ITEM@@@std@@QAE@XZ
_TEXT	SEGMENT
??0?$allocator@U_COUPLE_ITEM@@@std@@QAE@XZ PROC NEAR	; std::allocator<_COUPLE_ITEM>::allocator<_COUPLE_ITEM>, COMDAT
; _this$ = ecx

; 111  : 	allocator()

  00000	8b c1		 mov	 eax, ecx

; 112  : 		{	// construct default allocator (do nothing)
; 113  : 		}

  00002	c3		 ret	 0
??0?$allocator@U_COUPLE_ITEM@@@std@@QAE@XZ ENDP		; std::allocator<_COUPLE_ITEM>::allocator<_COUPLE_ITEM>
_TEXT	ENDS
PUBLIC	??Yiterator@?$vector@HV?$allocator@H@std@@@std@@QAEAAV012@H@Z ; std::vector<int,std::allocator<int> >::iterator::operator+=
; Function compile flags: /Ogty
; File c:\program files\microsoft visual studio .net 2003\vc7\include\vector
;	COMDAT ??Yiterator@?$vector@HV?$allocator@H@std@@@std@@QAEAAV012@H@Z
_TEXT	SEGMENT
__Off$ = 8						; size = 4
??Yiterator@?$vector@HV?$allocator@H@std@@@std@@QAEAAV012@H@Z PROC NEAR ; std::vector<int,std::allocator<int> >::iterator::operator+=, COMDAT
; _this$ = ecx

; 255  : 			{	// increment by integer

  00000	8b c1		 mov	 eax, ecx

; 256  : 			this->_Myptr += _Off;

  00002	8b 4c 24 04	 mov	 ecx, DWORD PTR __Off$[esp-4]
  00006	8d 14 8d 00 00
	00 00		 lea	 edx, DWORD PTR [ecx*4]
  0000d	01 10		 add	 DWORD PTR [eax], edx

; 257  : 			return (*this);
; 258  : 			}

  0000f	c2 04 00	 ret	 4
??Yiterator@?$vector@HV?$allocator@H@std@@@std@@QAEAAV012@H@Z ENDP ; std::vector<int,std::allocator<int> >::iterator::operator+=
_TEXT	ENDS
PUBLIC	??0const_iterator@?$vector@HV?$allocator@H@std@@@std@@QAE@PAH@Z ; std::vector<int,std::allocator<int> >::const_iterator::const_iterator
; Function compile flags: /Ogty
;	COMDAT ??0const_iterator@?$vector@HV?$allocator@H@std@@@std@@QAE@PAH@Z
_TEXT	SEGMENT
__Ptr$ = 8						; size = 4
??0const_iterator@?$vector@HV?$allocator@H@std@@@std@@QAE@PAH@Z PROC NEAR ; std::vector<int,std::allocator<int> >::const_iterator::const_iterator, COMDAT
; _this$ = ecx

; 73   : 		const_iterator(_Tptr _Ptr)

  00000	8b c1		 mov	 eax, ecx

; 74   : 			{	// construct with pointer _Ptr
; 75   : 			_Myptr = _Ptr;

  00002	8b 4c 24 04	 mov	 ecx, DWORD PTR __Ptr$[esp-4]
  00006	89 08		 mov	 DWORD PTR [eax], ecx

; 76   : 			}

  00008	c2 04 00	 ret	 4
??0const_iterator@?$vector@HV?$allocator@H@std@@@std@@QAE@PAH@Z ENDP ; std::vector<int,std::allocator<int> >::const_iterator::const_iterator
_TEXT	ENDS
PUBLIC	??Dconst_iterator@?$vector@HV?$allocator@H@std@@@std@@QBEABHXZ ; std::vector<int,std::allocator<int> >::const_iterator::operator*
; Function compile flags: /Ogty
;	COMDAT ??Dconst_iterator@?$vector@HV?$allocator@H@std@@@std@@QBEABHXZ
_TEXT	SEGMENT
??Dconst_iterator@?$vector@HV?$allocator@H@std@@@std@@QBEABHXZ PROC NEAR ; std::vector<int,std::allocator<int> >::const_iterator::operator*, COMDAT
; _this$ = ecx

; 80   : 
; 81   : 
; 82   : 			return (*_Myptr);

  00000	8b 01		 mov	 eax, DWORD PTR [ecx]

; 83   : 			}

  00002	c3		 ret	 0
??Dconst_iterator@?$vector@HV?$allocator@H@std@@@std@@QBEABHXZ ENDP ; std::vector<int,std::allocator<int> >::const_iterator::operator*
_TEXT	ENDS
PUBLIC	??Yiterator@?$vector@V?$vector@U_COUPLE_ITEM@@V?$allocator@U_COUPLE_ITEM@@@std@@@std@@V?$allocator@V?$vector@U_COUPLE_ITEM@@V?$allocator@U_COUPLE_ITEM@@@std@@@std@@@2@@std@@QAEAAV012@H@Z ; std::vector<std::vector<_COUPLE_ITEM,std::allocator<_COUPLE_ITEM> >,std::allocator<std::vector<_COUPLE_ITEM,std::allocator<_COUPLE_ITEM> > > >::iterator::operator+=
; Function compile flags: /Ogty
;	COMDAT ??Yiterator@?$vector@V?$vector@U_COUPLE_ITEM@@V?$allocator@U_COUPLE_ITEM@@@std@@@std@@V?$allocator@V?$vector@U_COUPLE_ITEM@@V?$allocator@U_COUPLE_ITEM@@@std@@@std@@@2@@std@@QAEAAV012@H@Z
_TEXT	SEGMENT
__Off$ = 8						; size = 4
??Yiterator@?$vector@V?$vector@U_COUPLE_ITEM@@V?$allocator@U_COUPLE_ITEM@@@std@@@std@@V?$allocator@V?$vector@U_COUPLE_ITEM@@V?$allocator@U_COUPLE_ITEM@@@std@@@std@@@2@@std@@QAEAAV012@H@Z PROC NEAR ; std::vector<std::vector<_COUPLE_ITEM,std::allocator<_COUPLE_ITEM> >,std::allocator<std::vector<_COUPLE_ITEM,std::allocator<_COUPLE_ITEM> > > >::iterator::operator+=, COMDAT
; _this$ = ecx

; 255  : 			{	// increment by integer

  00000	8b c1		 mov	 eax, ecx

; 256  : 			this->_Myptr += _Off;

  00002	8b 4c 24 04	 mov	 ecx, DWORD PTR __Off$[esp-4]
  00006	8b 10		 mov	 edx, DWORD PTR [eax]
  00008	c1 e1 04	 shl	 ecx, 4
  0000b	03 d1		 add	 edx, ecx
  0000d	89 10		 mov	 DWORD PTR [eax], edx

; 257  : 			return (*this);
; 258  : 			}

  0000f	c2 04 00	 ret	 4
??Yiterator@?$vector@V?$vector@U_COUPLE_ITEM@@V?$allocator@U_COUPLE_ITEM@@@std@@@std@@V?$allocator@V?$vector@U_COUPLE_ITEM@@V?$allocator@U_COUPLE_ITEM@@@std@@@std@@@2@@std@@QAEAAV012@H@Z ENDP ; std::vector<std::vector<_COUPLE_ITEM,std::allocator<_COUPLE_ITEM> >,std::allocator<std::vector<_COUPLE_ITEM,std::allocator<_COUPLE_ITEM> > > >::iterator::operator+=
_TEXT	ENDS
PUBLIC	??Dconst_iterator@?$vector@V?$vector@U_COUPLE_ITEM@@V?$allocator@U_COUPLE_ITEM@@@std@@@std@@V?$allocator@V?$vector@U_COUPLE_ITEM@@V?$allocator@U_COUPLE_ITEM@@@std@@@std@@@2@@std@@QBEABV?$vector@U_COUPLE_ITEM@@V?$allocator@U_COUPLE_ITEM@@@std@@@2@XZ ; std::vector<std::vector<_COUPLE_ITEM,std::allocator<_COUPLE_ITEM> >,std::allocator<std::vector<_COUPLE_ITEM,std::allocator<_COUPLE_ITEM> > > >::const_iterator::operator*
; Function compile flags: /Ogty
;	COMDAT ??Dconst_iterator@?$vector@V?$vector@U_COUPLE_ITEM@@V?$allocator@U_COUPLE_ITEM@@@std@@@std@@V?$allocator@V?$vector@U_COUPLE_ITEM@@V?$allocator@U_COUPLE_ITEM@@@std@@@std@@@2@@std@@QBEABV?$vector@U_COUPLE_ITEM@@V?$allocator@U_COUPLE_ITEM@@@std@@@2@XZ
_TEXT	SEGMENT
??Dconst_iterator@?$vector@V?$vector@U_COUPLE_ITEM@@V?$allocator@U_COUPLE_ITEM@@@std@@@std@@V?$allocator@V?$vector@U_COUPLE_ITEM@@V?$allocator@U_COUPLE_ITEM@@@std@@@std@@@2@@std@@QBEABV?$vector@U_COUPLE_ITEM@@V?$allocator@U_COUPLE_ITEM@@@std@@@2@XZ PROC NEAR ; std::vector<std::vector<_COUPLE_ITEM,std::allocator<_COUPLE_ITEM> >,std::allocator<std::vector<_COUPLE_ITEM,std::allocator<_COUPLE_ITEM> > > >::const_iterator::operator*, COMDAT
; _this$ = ecx

; 80   : 
; 81   : 
; 82   : 			return (*_Myptr);

  00000	8b 01		 mov	 eax, DWORD PTR [ecx]

; 83   : 			}

  00002	c3		 ret	 0
??Dconst_iterator@?$vector@V?$vector@U_COUPLE_ITEM@@V?$allocator@U_COUPLE_ITEM@@@std@@@std@@V?$allocator@V?$vector@U_COUPLE_ITEM@@V?$allocator@U_COUPLE_ITEM@@@std@@@std@@@2@@std@@QBEABV?$vector@U_COUPLE_ITEM@@V?$allocator@U_COUPLE_ITEM@@@std@@@2@XZ ENDP ; std::vector<std::vector<_COUPLE_ITEM,std::allocator<_COUPLE_ITEM> >,std::allocator<std::vector<_COUPLE_ITEM,std::allocator<_COUPLE_ITEM> > > >::const_iterator::operator*
_TEXT	ENDS
PUBLIC	??Yiterator@?$vector@V?$vector@HV?$allocator@H@std@@@std@@V?$allocator@V?$vector@HV?$allocator@H@std@@@std@@@2@@std@@QAEAAV012@H@Z ; std::vector<std::vector<int,std::allocator<int> >,std::allocator<std::vector<int,std::allocator<int> > > >::iterator::operator+=
; Function compile flags: /Ogty
;	COMDAT ??Yiterator@?$vector@V?$vector@HV?$allocator@H@std@@@std@@V?$allocator@V?$vector@HV?$allocator@H@std@@@std@@@2@@std@@QAEAAV012@H@Z
_TEXT	SEGMENT
__Off$ = 8						; size = 4
??Yiterator@?$vector@V?$vector@HV?$allocator@H@std@@@std@@V?$allocator@V?$vector@HV?$allocator@H@std@@@std@@@2@@std@@QAEAAV012@H@Z PROC NEAR ; std::vector<std::vector<int,std::allocator<int> >,std::allocator<std::vector<int,std::allocator<int> > > >::iterator::operator+=, COMDAT
; _this$ = ecx

; 255  : 			{	// increment by integer

  00000	8b c1		 mov	 eax, ecx

; 256  : 			this->_Myptr += _Off;

  00002	8b 4c 24 04	 mov	 ecx, DWORD PTR __Off$[esp-4]
  00006	8b 10		 mov	 edx, DWORD PTR [eax]
  00008	c1 e1 04	 shl	 ecx, 4
  0000b	03 d1		 add	 edx, ecx
  0000d	89 10		 mov	 DWORD PTR [eax], edx

; 257  : 			return (*this);
; 258  : 			}

  0000f	c2 04 00	 ret	 4
??Yiterator@?$vector@V?$vector@HV?$allocator@H@std@@@std@@V?$allocator@V?$vector@HV?$allocator@H@std@@@std@@@2@@std@@QAEAAV012@H@Z ENDP ; std::vector<std::vector<int,std::allocator<int> >,std::allocator<std::vector<int,std::allocator<int> > > >::iterator::operator+=
_TEXT	ENDS
PUBLIC	??Dconst_iterator@?$vector@V?$vector@HV?$allocator@H@std@@@std@@V?$allocator@V?$vector@HV?$allocator@H@std@@@std@@@2@@std@@QBEABV?$vector@HV?$allocator@H@std@@@2@XZ ; std::vector<std::vector<int,std::allocator<int> >,std::allocator<std::vector<int,std::allocator<int> > > >::const_iterator::operator*
; Function compile flags: /Ogty
;	COMDAT ??Dconst_iterator@?$vector@V?$vector@HV?$allocator@H@std@@@std@@V?$allocator@V?$vector@HV?$allocator@H@std@@@std@@@2@@std@@QBEABV?$vector@HV?$allocator@H@std@@@2@XZ
_TEXT	SEGMENT
??Dconst_iterator@?$vector@V?$vector@HV?$allocator@H@std@@@std@@V?$allocator@V?$vector@HV?$allocator@H@std@@@std@@@2@@std@@QBEABV?$vector@HV?$allocator@H@std@@@2@XZ PROC NEAR ; std::vector<std::vector<int,std::allocator<int> >,std::allocator<std::vector<int,std::allocator<int> > > >::const_iterator::operator*, COMDAT
; _this$ = ecx

; 80   : 
; 81   : 
; 82   : 			return (*_Myptr);

  00000	8b 01		 mov	 eax, DWORD PTR [ecx]

; 83   : 			}

  00002	c3		 ret	 0
??Dconst_iterator@?$vector@V?$vector@HV?$allocator@H@std@@@std@@V?$allocator@V?$vector@HV?$allocator@H@std@@@std@@@2@@std@@QBEABV?$vector@HV?$allocator@H@std@@@2@XZ ENDP ; std::vector<std::vector<int,std::allocator<int> >,std::allocator<std::vector<int,std::allocator<int> > > >::const_iterator::operator*
_TEXT	ENDS
PUBLIC	??0?$pair@Viterator@?$_Tree@V?$_Tmap_traits@KPAVCCouple@@U?$less@K@std@@V?$allocator@U?$pair@$$CBKPAVCCouple@@@std@@@3@$0A@@std@@@std@@V123@@std@@QAE@ABViterator@?$_Tree@V?$_Tmap_traits@KPAVCCouple@@U?$less@K@std@@V?$allocator@U?$pair@$$CBKPAVCCouple@@@std@@@3@$0A@@std@@@1@0@Z ; std::pair<std::_Tree<std::_Tmap_traits<unsigned long,CCouple *,std::less<unsigned long>,std::allocator<std::pair<unsigned long const ,CCouple *> >,0> >::iterator,std::_Tree<std::_Tmap_traits<unsigned long,CCouple *,std::less<unsigned long>,std::allocator<std::pair<unsigned long const ,CCouple *> >,0> >::iterator>::pair<std::_Tree<std::_Tmap_traits<unsigned long,CCouple *,std::less<unsigned long>,std::allocator<std::pair<unsigned long const ,CCouple *> >,0> >::iterator,std::_Tree<std::_Tmap_traits<unsigned long,CCouple *,std::less<unsigned long>,std::allocator<std::pair<unsigned long const ,CCouple *> >,0> >::iterator>
; Function compile flags: /Ogty
; File c:\program files\microsoft visual studio .net 2003\vc7\include\utility
;	COMDAT ??0?$pair@Viterator@?$_Tree@V?$_Tmap_traits@KPAVCCouple@@U?$less@K@std@@V?$allocator@U?$pair@$$CBKPAVCCouple@@@std@@@3@$0A@@std@@@std@@V123@@std@@QAE@ABViterator@?$_Tree@V?$_Tmap_traits@KPAVCCouple@@U?$less@K@std@@V?$allocator@U?$pair@$$CBKPAVCCouple@@@std@@@3@$0A@@std@@@1@0@Z
_TEXT	SEGMENT
__Val1$ = 8						; size = 4
__Val2$ = 12						; size = 4
??0?$pair@Viterator@?$_Tree@V?$_Tmap_traits@KPAVCCouple@@U?$less@K@std@@V?$allocator@U?$pair@$$CBKPAVCCouple@@@std@@@3@$0A@@std@@@std@@V123@@std@@QAE@ABViterator@?$_Tree@V?$_Tmap_traits@KPAVCCouple@@U?$less@K@std@@V?$allocator@U?$pair@$$CBKPAVCCouple@@@std@@@3@$0A@@std@@@1@0@Z PROC NEAR ; std::pair<std::_Tree<std::_Tmap_traits<unsigned long,CCouple *,std::less<unsigned long>,std::allocator<std::pair<unsigned long const ,CCouple *> >,0> >::iterator,std::_Tree<std::_Tmap_traits<unsigned long,CCouple *,std::less<unsigned long>,std::allocator<std::pair<unsigned long const ,CCouple *> >,0> >::iterator>::pair<std::_Tree<std::_Tmap_traits<unsigned long,CCouple *,std::less<unsigned long>,std::allocator<std::pair<unsigned long const ,CCouple *> >,0> >::iterator,std::_Tree<std::_Tmap_traits<unsigned long,CCouple *,std::less<unsigned long>,std::allocator<std::pair<unsigned long const ,CCouple *> >,0> >::iterator>, COMDAT
; _this$ = ecx

; 34   : 		{	// construct from specified values

  00000	8b c1		 mov	 eax, ecx
  00002	8b 4c 24 04	 mov	 ecx, DWORD PTR __Val1$[esp-4]
  00006	8b 11		 mov	 edx, DWORD PTR [ecx]
  00008	8b 4c 24 08	 mov	 ecx, DWORD PTR __Val2$[esp-4]
  0000c	89 10		 mov	 DWORD PTR [eax], edx
  0000e	8b 11		 mov	 edx, DWORD PTR [ecx]
  00010	89 50 04	 mov	 DWORD PTR [eax+4], edx

; 35   : 		}

  00013	c2 08 00	 ret	 8
??0?$pair@Viterator@?$_Tree@V?$_Tmap_traits@KPAVCCouple@@U?$less@K@std@@V?$allocator@U?$pair@$$CBKPAVCCouple@@@std@@@3@$0A@@std@@@std@@V123@@std@@QAE@ABViterator@?$_Tree@V?$_Tmap_traits@KPAVCCouple@@U?$less@K@std@@V?$allocator@U?$pair@$$CBKPAVCCouple@@@std@@@3@$0A@@std@@@1@0@Z ENDP ; std::pair<std::_Tree<std::_Tmap_traits<unsigned long,CCouple *,std::less<unsigned long>,std::allocator<std::pair<unsigned long const ,CCouple *> >,0> >::iterator,std::_Tree<std::_Tmap_traits<unsigned long,CCouple *,std::less<unsigned long>,std::allocator<std::pair<unsigned long const ,CCouple *> >,0> >::iterator>::pair<std::_Tree<std::_Tmap_traits<unsigned long,CCouple *,std::less<unsigned long>,std::allocator<std::pair<unsigned long const ,CCouple *> >,0> >::iterator,std::_Tree<std::_Tmap_traits<unsigned long,CCouple *,std::less<unsigned long>,std::allocator<std::pair<unsigned long const ,CCouple *> >,0> >::iterator>
_TEXT	ENDS
PUBLIC	?max_size@?$allocator@H@std@@QBEIXZ		; std::allocator<int>::max_size
; Function compile flags: /Ogty
; File c:\program files\microsoft visual studio .net 2003\vc7\include\xmemory
;	COMDAT ?max_size@?$allocator@H@std@@QBEIXZ
_TEXT	SEGMENT
?max_size@?$allocator@H@std@@QBEIXZ PROC NEAR		; std::allocator<int>::max_size, COMDAT
; _this$ = ecx

; 157  : 		_SIZT _Count = (_SIZT)(-1) / sizeof (_Ty);
; 158  : 		return (0 < _Count ? _Count : 1);

  00000	b8 ff ff ff 3f	 mov	 eax, 1073741823		; 3fffffffH

; 159  : 		}

  00005	c3		 ret	 0
?max_size@?$allocator@H@std@@QBEIXZ ENDP		; std::allocator<int>::max_size
_TEXT	ENDS
PUBLIC	?capacity@?$vector@V?$vector@U_COUPLE_ITEM@@V?$allocator@U_COUPLE_ITEM@@@std@@@std@@V?$allocator@V?$vector@U_COUPLE_ITEM@@V?$allocator@U_COUPLE_ITEM@@@std@@@std@@@2@@std@@QBEIXZ ; std::vector<std::vector<_COUPLE_ITEM,std::allocator<_COUPLE_ITEM> >,std::allocator<std::vector<_COUPLE_ITEM,std::allocator<_COUPLE_ITEM> > > >::capacity
; Function compile flags: /Ogty
; File c:\program files\microsoft visual studio .net 2003\vc7\include\vector
;	COMDAT ?capacity@?$vector@V?$vector@U_COUPLE_ITEM@@V?$allocator@U_COUPLE_ITEM@@@std@@@std@@V?$allocator@V?$vector@U_COUPLE_ITEM@@V?$allocator@U_COUPLE_ITEM@@@std@@@std@@@2@@std@@QBEIXZ
_TEXT	SEGMENT
?capacity@?$vector@V?$vector@U_COUPLE_ITEM@@V?$allocator@U_COUPLE_ITEM@@@std@@@std@@V?$allocator@V?$vector@U_COUPLE_ITEM@@V?$allocator@U_COUPLE_ITEM@@@std@@@std@@@2@@std@@QBEIXZ PROC NEAR ; std::vector<std::vector<_COUPLE_ITEM,std::allocator<_COUPLE_ITEM> >,std::allocator<std::vector<_COUPLE_ITEM,std::allocator<_COUPLE_ITEM> > > >::capacity, COMDAT
; _this$ = ecx

; 458  : 		return (_Myfirst == 0 ? 0 : _Myend - _Myfirst);

  00000	8b 51 04	 mov	 edx, DWORD PTR [ecx+4]
  00003	85 d2		 test	 edx, edx
  00005	75 03		 jne	 SHORT $L193995
  00007	33 c0		 xor	 eax, eax

; 459  : 		}

  00009	c3		 ret	 0
$L193995:

; 458  : 		return (_Myfirst == 0 ? 0 : _Myend - _Myfirst);

  0000a	8b 41 0c	 mov	 eax, DWORD PTR [ecx+12]
  0000d	2b c2		 sub	 eax, edx
  0000f	c1 f8 04	 sar	 eax, 4

; 459  : 		}

  00012	c3		 ret	 0
?capacity@?$vector@V?$vector@U_COUPLE_ITEM@@V?$allocator@U_COUPLE_ITEM@@@std@@@std@@V?$allocator@V?$vector@U_COUPLE_ITEM@@V?$allocator@U_COUPLE_ITEM@@@std@@@std@@@2@@std@@QBEIXZ ENDP ; std::vector<std::vector<_COUPLE_ITEM,std::allocator<_COUPLE_ITEM> >,std::allocator<std::vector<_COUPLE_ITEM,std::allocator<_COUPLE_ITEM> > > >::capacity
_TEXT	ENDS
PUBLIC	?max_size@?$allocator@V?$vector@U_COUPLE_ITEM@@V?$allocator@U_COUPLE_ITEM@@@std@@@std@@@std@@QBEIXZ ; std::allocator<std::vector<_COUPLE_ITEM,std::allocator<_COUPLE_ITEM> > >::max_size
; Function compile flags: /Ogty
; File c:\program files\microsoft visual studio .net 2003\vc7\include\xmemory
;	COMDAT ?max_size@?$allocator@V?$vector@U_COUPLE_ITEM@@V?$allocator@U_COUPLE_ITEM@@@std@@@std@@@std@@QBEIXZ
_TEXT	SEGMENT
?max_size@?$allocator@V?$vector@U_COUPLE_ITEM@@V?$allocator@U_COUPLE_ITEM@@@std@@@std@@@std@@QBEIXZ PROC NEAR ; std::allocator<std::vector<_COUPLE_ITEM,std::allocator<_COUPLE_ITEM> > >::max_size, COMDAT
; _this$ = ecx

; 157  : 		_SIZT _Count = (_SIZT)(-1) / sizeof (_Ty);
; 158  : 		return (0 < _Count ? _Count : 1);

  00000	b8 ff ff ff 0f	 mov	 eax, 268435455		; 0fffffffH

; 159  : 		}

  00005	c3		 ret	 0
?max_size@?$allocator@V?$vector@U_COUPLE_ITEM@@V?$allocator@U_COUPLE_ITEM@@@std@@@std@@@std@@QBEIXZ ENDP ; std::allocator<std::vector<_COUPLE_ITEM,std::allocator<_COUPLE_ITEM> > >::max_size
_TEXT	ENDS
PUBLIC	?capacity@?$vector@V?$vector@HV?$allocator@H@std@@@std@@V?$allocator@V?$vector@HV?$allocator@H@std@@@std@@@2@@std@@QBEIXZ ; std::vector<std::vector<int,std::allocator<int> >,std::allocator<std::vector<int,std::allocator<int> > > >::capacity
; Function compile flags: /Ogty
; File c:\program files\microsoft visual studio .net 2003\vc7\include\vector
;	COMDAT ?capacity@?$vector@V?$vector@HV?$allocator@H@std@@@std@@V?$allocator@V?$vector@HV?$allocator@H@std@@@std@@@2@@std@@QBEIXZ
_TEXT	SEGMENT
?capacity@?$vector@V?$vector@HV?$allocator@H@std@@@std@@V?$allocator@V?$vector@HV?$allocator@H@std@@@std@@@2@@std@@QBEIXZ PROC NEAR ; std::vector<std::vector<int,std::allocator<int> >,std::allocator<std::vector<int,std::allocator<int> > > >::capacity, COMDAT
; _this$ = ecx

; 458  : 		return (_Myfirst == 0 ? 0 : _Myend - _Myfirst);

  00000	8b 51 04	 mov	 edx, DWORD PTR [ecx+4]
  00003	85 d2		 test	 edx, edx
  00005	75 03		 jne	 SHORT $L194003
  00007	33 c0		 xor	 eax, eax

; 459  : 		}

  00009	c3		 ret	 0
$L194003:

; 458  : 		return (_Myfirst == 0 ? 0 : _Myend - _Myfirst);

  0000a	8b 41 0c	 mov	 eax, DWORD PTR [ecx+12]
  0000d	2b c2		 sub	 eax, edx
  0000f	c1 f8 04	 sar	 eax, 4

; 459  : 		}

  00012	c3		 ret	 0
?capacity@?$vector@V?$vector@HV?$allocator@H@std@@@std@@V?$allocator@V?$vector@HV?$allocator@H@std@@@std@@@2@@std@@QBEIXZ ENDP ; std::vector<std::vector<int,std::allocator<int> >,std::allocator<std::vector<int,std::allocator<int> > > >::capacity
_TEXT	ENDS
PUBLIC	?max_size@?$allocator@V?$vector@HV?$allocator@H@std@@@std@@@std@@QBEIXZ ; std::allocator<std::vector<int,std::allocator<int> > >::max_size
; Function compile flags: /Ogty
; File c:\program files\microsoft visual studio .net 2003\vc7\include\xmemory
;	COMDAT ?max_size@?$allocator@V?$vector@HV?$allocator@H@std@@@std@@@std@@QBEIXZ
_TEXT	SEGMENT
?max_size@?$allocator@V?$vector@HV?$allocator@H@std@@@std@@@std@@QBEIXZ PROC NEAR ; std::allocator<std::vector<int,std::allocator<int> > >::max_size, COMDAT
; _this$ = ecx

; 157  : 		_SIZT _Count = (_SIZT)(-1) / sizeof (_Ty);
; 158  : 		return (0 < _Count ? _Count : 1);

  00000	b8 ff ff ff 0f	 mov	 eax, 268435455		; 0fffffffH

; 159  : 		}

  00005	c3		 ret	 0
?max_size@?$allocator@V?$vector@HV?$allocator@H@std@@@std@@@std@@QBEIXZ ENDP ; std::allocator<std::vector<int,std::allocator<int> > >::max_size
_TEXT	ENDS
PUBLIC	?_Max@?$_Tree@V?$_Tmap_traits@KPAVCCouple@@U?$less@K@std@@V?$allocator@U?$pair@$$CBKPAVCCouple@@@std@@@3@$0A@@std@@@std@@KAPAU_Node@?$_Tree_nod@V?$_Tmap_traits@KPAVCCouple@@U?$less@K@std@@V?$allocator@U?$pair@$$CBKPAVCCouple@@@std@@@3@$0A@@std@@@2@PAU342@@Z ; std::_Tree<std::_Tmap_traits<unsigned long,CCouple *,std::less<unsigned long>,std::allocator<std::pair<unsigned long const ,CCouple *> >,0> >::_Max
; Function compile flags: /Ogty
; File c:\program files\microsoft visual studio .net 2003\vc7\include\xtree
;	COMDAT ?_Max@?$_Tree@V?$_Tmap_traits@KPAVCCouple@@U?$less@K@std@@V?$allocator@U?$pair@$$CBKPAVCCouple@@@std@@@3@$0A@@std@@@std@@KAPAU_Node@?$_Tree_nod@V?$_Tmap_traits@KPAVCCouple@@U?$less@K@std@@V?$allocator@U?$pair@$$CBKPAVCCouple@@@std@@@3@$0A@@std@@@2@PAU342@@Z
_TEXT	SEGMENT
__Pnode$ = 8						; size = 4
?_Max@?$_Tree@V?$_Tmap_traits@KPAVCCouple@@U?$less@K@std@@V?$allocator@U?$pair@$$CBKPAVCCouple@@@std@@@3@$0A@@std@@@std@@KAPAU_Node@?$_Tree_nod@V?$_Tmap_traits@KPAVCCouple@@U?$less@K@std@@V?$allocator@U?$pair@$$CBKPAVCCouple@@@std@@@3@$0A@@std@@@2@PAU342@@Z PROC NEAR ; std::_Tree<std::_Tmap_traits<unsigned long,CCouple *,std::less<unsigned long>,std::allocator<std::pair<unsigned long const ,CCouple *> >,0> >::_Max, COMDAT

; 1035 : 		while (!_Isnil(_Right(_Pnode)))

  00000	8b 44 24 04	 mov	 eax, DWORD PTR __Pnode$[esp-4]
  00004	8b 48 08	 mov	 ecx, DWORD PTR [eax+8]
  00007	8a 51 15	 mov	 dl, BYTE PTR [ecx+21]
  0000a	84 d2		 test	 dl, dl
  0000c	75 0e		 jne	 SHORT $L191129
  0000e	8b ff		 npad	 2
$L191128:

; 1036 : 			_Pnode = _Right(_Pnode);

  00010	8b c1		 mov	 eax, ecx
  00012	8b 48 08	 mov	 ecx, DWORD PTR [eax+8]
  00015	8a 51 15	 mov	 dl, BYTE PTR [ecx+21]
  00018	84 d2		 test	 dl, dl
  0001a	74 f4		 je	 SHORT $L191128
$L191129:

; 1037 : 		return (_Pnode);
; 1038 : 		}

  0001c	c3		 ret	 0
?_Max@?$_Tree@V?$_Tmap_traits@KPAVCCouple@@U?$less@K@std@@V?$allocator@U?$pair@$$CBKPAVCCouple@@@std@@@3@$0A@@std@@@std@@KAPAU_Node@?$_Tree_nod@V?$_Tmap_traits@KPAVCCouple@@U?$less@K@std@@V?$allocator@U?$pair@$$CBKPAVCCouple@@@std@@@3@$0A@@std@@@2@PAU342@@Z ENDP ; std::_Tree<std::_Tmap_traits<unsigned long,CCouple *,std::less<unsigned long>,std::allocator<std::pair<unsigned long const ,CCouple *> >,0> >::_Max
_TEXT	ENDS
PUBLIC	?_Min@?$_Tree@V?$_Tmap_traits@KPAVCCouple@@U?$less@K@std@@V?$allocator@U?$pair@$$CBKPAVCCouple@@@std@@@3@$0A@@std@@@std@@KAPAU_Node@?$_Tree_nod@V?$_Tmap_traits@KPAVCCouple@@U?$less@K@std@@V?$allocator@U?$pair@$$CBKPAVCCouple@@@std@@@3@$0A@@std@@@2@PAU342@@Z ; std::_Tree<std::_Tmap_traits<unsigned long,CCouple *,std::less<unsigned long>,std::allocator<std::pair<unsigned long const ,CCouple *> >,0> >::_Min
; Function compile flags: /Ogty
;	COMDAT ?_Min@?$_Tree@V?$_Tmap_traits@KPAVCCouple@@U?$less@K@std@@V?$allocator@U?$pair@$$CBKPAVCCouple@@@std@@@3@$0A@@std@@@std@@KAPAU_Node@?$_Tree_nod@V?$_Tmap_traits@KPAVCCouple@@U?$less@K@std@@V?$allocator@U?$pair@$$CBKPAVCCouple@@@std@@@3@$0A@@std@@@2@PAU342@@Z
_TEXT	SEGMENT
__Pnode$ = 8						; size = 4
?_Min@?$_Tree@V?$_Tmap_traits@KPAVCCouple@@U?$less@K@std@@V?$allocator@U?$pair@$$CBKPAVCCouple@@@std@@@3@$0A@@std@@@std@@KAPAU_Node@?$_Tree_nod@V?$_Tmap_traits@KPAVCCouple@@U?$less@K@std@@V?$allocator@U?$pair@$$CBKPAVCCouple@@@std@@@3@$0A@@std@@@2@PAU342@@Z PROC NEAR ; std::_Tree<std::_Tmap_traits<unsigned long,CCouple *,std::less<unsigned long>,std::allocator<std::pair<unsigned long const ,CCouple *> >,0> >::_Min, COMDAT

; 1042 : 		while (!_Isnil(_Left(_Pnode)))

  00000	8b 44 24 04	 mov	 eax, DWORD PTR __Pnode$[esp-4]
  00004	8b 08		 mov	 ecx, DWORD PTR [eax]
  00006	8a 51 15	 mov	 dl, BYTE PTR [ecx+21]
  00009	84 d2		 test	 dl, dl
  0000b	75 0e		 jne	 SHORT $L191133
  0000d	8d 49 00	 npad	 3
$L191132:

; 1043 : 			_Pnode = _Left(_Pnode);

  00010	8b c1		 mov	 eax, ecx
  00012	8b 08		 mov	 ecx, DWORD PTR [eax]
  00014	8a 51 15	 mov	 dl, BYTE PTR [ecx+21]
  00017	84 d2		 test	 dl, dl
  00019	74 f5		 je	 SHORT $L191132
$L191133:

; 1044 : 		return (_Pnode);
; 1045 : 		}

  0001b	c3		 ret	 0
?_Min@?$_Tree@V?$_Tmap_traits@KPAVCCouple@@U?$less@K@std@@V?$allocator@U?$pair@$$CBKPAVCCouple@@@std@@@3@$0A@@std@@@std@@KAPAU_Node@?$_Tree_nod@V?$_Tmap_traits@KPAVCCouple@@U?$less@K@std@@V?$allocator@U?$pair@$$CBKPAVCCouple@@@std@@@3@$0A@@std@@@2@PAU342@@Z ENDP ; std::_Tree<std::_Tmap_traits<unsigned long,CCouple *,std::less<unsigned long>,std::allocator<std::pair<unsigned long const ,CCouple *> >,0> >::_Min
_TEXT	ENDS
PUBLIC	?_Root@?$_Tree@V?$_Tmap_traits@KPAVCCouple@@U?$less@K@std@@V?$allocator@U?$pair@$$CBKPAVCCouple@@@std@@@3@$0A@@std@@@std@@IBEAAPAU_Node@?$_Tree_nod@V?$_Tmap_traits@KPAVCCouple@@U?$less@K@std@@V?$allocator@U?$pair@$$CBKPAVCCouple@@@std@@@3@$0A@@std@@@2@XZ ; std::_Tree<std::_Tmap_traits<unsigned long,CCouple *,std::less<unsigned long>,std::allocator<std::pair<unsigned long const ,CCouple *> >,0> >::_Root
; Function compile flags: /Ogty
;	COMDAT ?_Root@?$_Tree@V?$_Tmap_traits@KPAVCCouple@@U?$less@K@std@@V?$allocator@U?$pair@$$CBKPAVCCouple@@@std@@@3@$0A@@std@@@std@@IBEAAPAU_Node@?$_Tree_nod@V?$_Tmap_traits@KPAVCCouple@@U?$less@K@std@@V?$allocator@U?$pair@$$CBKPAVCCouple@@@std@@@3@$0A@@std@@@2@XZ
_TEXT	SEGMENT
?_Root@?$_Tree@V?$_Tmap_traits@KPAVCCouple@@U?$less@K@std@@V?$allocator@U?$pair@$$CBKPAVCCouple@@@std@@@3@$0A@@std@@@std@@IBEAAPAU_Node@?$_Tree_nod@V?$_Tmap_traits@KPAVCCouple@@U?$less@K@std@@V?$allocator@U?$pair@$$CBKPAVCCouple@@@std@@@3@$0A@@std@@@2@XZ PROC NEAR ; std::_Tree<std::_Tmap_traits<unsigned long,CCouple *,std::less<unsigned long>,std::allocator<std::pair<unsigned long const ,CCouple *> >,0> >::_Root, COMDAT
; _this$ = ecx

; 1064 : 		return (_Parent(_Myhead));

  00000	8b 41 04	 mov	 eax, DWORD PTR [ecx+4]
  00003	83 c0 04	 add	 eax, 4

; 1065 : 		}

  00006	c3		 ret	 0
?_Root@?$_Tree@V?$_Tmap_traits@KPAVCCouple@@U?$less@K@std@@V?$allocator@U?$pair@$$CBKPAVCCouple@@@std@@@3@$0A@@std@@@std@@IBEAAPAU_Node@?$_Tree_nod@V?$_Tmap_traits@KPAVCCouple@@U?$less@K@std@@V?$allocator@U?$pair@$$CBKPAVCCouple@@@std@@@3@$0A@@std@@@2@XZ ENDP ; std::_Tree<std::_Tmap_traits<unsigned long,CCouple *,std::less<unsigned long>,std::allocator<std::pair<unsigned long const ,CCouple *> >,0> >::_Root
_TEXT	ENDS
PUBLIC	?max_size@?$allocator@U?$pair@$$CBKPAVCCouple@@@std@@@std@@QBEIXZ ; std::allocator<std::pair<unsigned long const ,CCouple *> >::max_size
; Function compile flags: /Ogty
; File c:\program files\microsoft visual studio .net 2003\vc7\include\xmemory
;	COMDAT ?max_size@?$allocator@U?$pair@$$CBKPAVCCouple@@@std@@@std@@QBEIXZ
_TEXT	SEGMENT
?max_size@?$allocator@U?$pair@$$CBKPAVCCouple@@@std@@@std@@QBEIXZ PROC NEAR ; std::allocator<std::pair<unsigned long const ,CCouple *> >::max_size, COMDAT
; _this$ = ecx

; 157  : 		_SIZT _Count = (_SIZT)(-1) / sizeof (_Ty);
; 158  : 		return (0 < _Count ? _Count : 1);

  00000	b8 ff ff ff 1f	 mov	 eax, 536870911		; 1fffffffH

; 159  : 		}

  00005	c3		 ret	 0
?max_size@?$allocator@U?$pair@$$CBKPAVCCouple@@@std@@@std@@QBEIXZ ENDP ; std::allocator<std::pair<unsigned long const ,CCouple *> >::max_size
_TEXT	ENDS
PUBLIC	?max_size@?$allocator@PAVCCouple@@@std@@QBEIXZ	; std::allocator<CCouple *>::max_size
; Function compile flags: /Ogty
;	COMDAT ?max_size@?$allocator@PAVCCouple@@@std@@QBEIXZ
_TEXT	SEGMENT
?max_size@?$allocator@PAVCCouple@@@std@@QBEIXZ PROC NEAR ; std::allocator<CCouple *>::max_size, COMDAT
; _this$ = ecx

; 157  : 		_SIZT _Count = (_SIZT)(-1) / sizeof (_Ty);
; 158  : 		return (0 < _Count ? _Count : 1);

  00000	b8 ff ff ff 3f	 mov	 eax, 1073741823		; 3fffffffH

; 159  : 		}

  00005	c3		 ret	 0
?max_size@?$allocator@PAVCCouple@@@std@@QBEIXZ ENDP	; std::allocator<CCouple *>::max_size
_TEXT	ENDS
PUBLIC	??Yiterator@?$vector@PAVCCouple@@V?$allocator@PAVCCouple@@@std@@@std@@QAEAAV012@H@Z ; std::vector<CCouple *,std::allocator<CCouple *> >::iterator::operator+=
; Function compile flags: /Ogty
; File c:\program files\microsoft visual studio .net 2003\vc7\include\vector
;	COMDAT ??Yiterator@?$vector@PAVCCouple@@V?$allocator@PAVCCouple@@@std@@@std@@QAEAAV012@H@Z
_TEXT	SEGMENT
__Off$ = 8						; size = 4
??Yiterator@?$vector@PAVCCouple@@V?$allocator@PAVCCouple@@@std@@@std@@QAEAAV012@H@Z PROC NEAR ; std::vector<CCouple *,std::allocator<CCouple *> >::iterator::operator+=, COMDAT
; _this$ = ecx

; 255  : 			{	// increment by integer

  00000	8b c1		 mov	 eax, ecx

; 256  : 			this->_Myptr += _Off;

  00002	8b 4c 24 04	 mov	 ecx, DWORD PTR __Off$[esp-4]
  00006	8d 14 8d 00 00
	00 00		 lea	 edx, DWORD PTR [ecx*4]
  0000d	01 10		 add	 DWORD PTR [eax], edx

; 257  : 			return (*this);
; 258  : 			}

  0000f	c2 04 00	 ret	 4
??Yiterator@?$vector@PAVCCouple@@V?$allocator@PAVCCouple@@@std@@@std@@QAEAAV012@H@Z ENDP ; std::vector<CCouple *,std::allocator<CCouple *> >::iterator::operator+=
_TEXT	ENDS
PUBLIC	??Gconst_iterator@?$vector@PAVCCouple@@V?$allocator@PAVCCouple@@@std@@@std@@QBEHABV012@@Z ; std::vector<CCouple *,std::allocator<CCouple *> >::const_iterator::operator-
; Function compile flags: /Ogty
;	COMDAT ??Gconst_iterator@?$vector@PAVCCouple@@V?$allocator@PAVCCouple@@@std@@@std@@QBEHABV012@@Z
_TEXT	SEGMENT
__Right$ = 8						; size = 4
??Gconst_iterator@?$vector@PAVCCouple@@V?$allocator@PAVCCouple@@@std@@@std@@QBEHABV012@@Z PROC NEAR ; std::vector<CCouple *,std::allocator<CCouple *> >::const_iterator::operator-, COMDAT
; _this$ = ecx

; 141  : 
; 142  : 
; 143  : 			return (_Myptr - _Right._Myptr);

  00000	8b 01		 mov	 eax, DWORD PTR [ecx]
  00002	8b 4c 24 04	 mov	 ecx, DWORD PTR __Right$[esp-4]
  00006	2b 01		 sub	 eax, DWORD PTR [ecx]
  00008	c1 f8 02	 sar	 eax, 2

; 144  : 			}

  0000b	c2 04 00	 ret	 4
??Gconst_iterator@?$vector@PAVCCouple@@V?$allocator@PAVCCouple@@@std@@@std@@QBEHABV012@@Z ENDP ; std::vector<CCouple *,std::allocator<CCouple *> >::const_iterator::operator-
_TEXT	ENDS
PUBLIC	?_Dec@const_iterator@?$_Tree@V?$_Tmap_traits@KPAVCCouple@@U?$less@K@std@@V?$allocator@U?$pair@$$CBKPAVCCouple@@@std@@@3@$0A@@std@@@std@@QAEXXZ ; std::_Tree<std::_Tmap_traits<unsigned long,CCouple *,std::less<unsigned long>,std::allocator<std::pair<unsigned long const ,CCouple *> >,0> >::const_iterator::_Dec
; Function compile flags: /Ogty
; File c:\program files\microsoft visual studio .net 2003\vc7\include\xtree
;	COMDAT ?_Dec@const_iterator@?$_Tree@V?$_Tmap_traits@KPAVCCouple@@U?$less@K@std@@V?$allocator@U?$pair@$$CBKPAVCCouple@@@std@@@3@$0A@@std@@@std@@QAEXXZ
_TEXT	SEGMENT
?_Dec@const_iterator@?$_Tree@V?$_Tmap_traits@KPAVCCouple@@U?$less@K@std@@V?$allocator@U?$pair@$$CBKPAVCCouple@@@std@@@3@$0A@@std@@@std@@QAEXXZ PROC NEAR ; std::_Tree<std::_Tmap_traits<unsigned long,CCouple *,std::less<unsigned long>,std::allocator<std::pair<unsigned long const ,CCouple *> >,0> >::const_iterator::_Dec, COMDAT
; _this$ = ecx

; 251  : 			if (_Isnil(_Ptr))

  00000	8b 01		 mov	 eax, DWORD PTR [ecx]
  00002	8a 50 15	 mov	 dl, BYTE PTR [eax+21]
  00005	84 d2		 test	 dl, dl
  00007	74 06		 je	 SHORT $L191188

; 252  : 				_Ptr = _Right(_Ptr);	// end() ==> rightmost

  00009	8b 40 08	 mov	 eax, DWORD PTR [eax+8]
  0000c	89 01		 mov	 DWORD PTR [ecx], eax

; 263  : 				}
; 264  : 			}

  0000e	c3		 ret	 0
$L191188:

; 253  : 			else if (!_Isnil(_Left(_Ptr)))

  0000f	8b 10		 mov	 edx, DWORD PTR [eax]
  00011	53		 push	 ebx
  00012	8a 5a 15	 mov	 bl, BYTE PTR [edx+21]
  00015	84 db		 test	 bl, bl
  00017	75 1a		 jne	 SHORT $L194107

; 254  : 				_Ptr = _Max(_Left(_Ptr));	// ==> largest of left subtree

  00019	8b 42 08	 mov	 eax, DWORD PTR [edx+8]
  0001c	8a 58 15	 mov	 bl, BYTE PTR [eax+21]
  0001f	84 db		 test	 bl, bl
  00021	75 0c		 jne	 SHORT $L194092
$L194091:
  00023	8b d0		 mov	 edx, eax
  00025	8b 42 08	 mov	 eax, DWORD PTR [edx+8]
  00028	8a 58 15	 mov	 bl, BYTE PTR [eax+21]
  0002b	84 db		 test	 bl, bl
  0002d	74 f4		 je	 SHORT $L194091
$L194092:
  0002f	89 11		 mov	 DWORD PTR [ecx], edx
  00031	5b		 pop	 ebx

; 263  : 				}
; 264  : 			}

  00032	c3		 ret	 0
$L194107:

; 255  : 			else
; 256  : 				{	// climb looking for left subtree
; 257  : 				_Nodeptr _Pnode;
; 258  : 				while (!_Isnil(_Pnode = _Parent(_Ptr))
; 259  : 					&& _Ptr == _Left(_Pnode))

  00033	8b 40 04	 mov	 eax, DWORD PTR [eax+4]
  00036	8a 50 15	 mov	 dl, BYTE PTR [eax+21]
  00039	84 d2		 test	 dl, dl
  0003b	75 1e		 jne	 SHORT $L194110
  0003d	8d 49 00	 npad	 3
$L191194:
  00040	8b 11		 mov	 edx, DWORD PTR [ecx]
  00042	3b 10		 cmp	 edx, DWORD PTR [eax]
  00044	75 0c		 jne	 SHORT $L191195

; 260  : 					_Ptr = _Pnode;	// ==> parent while left subtree

  00046	89 01		 mov	 DWORD PTR [ecx], eax
  00048	8b 40 04	 mov	 eax, DWORD PTR [eax+4]
  0004b	8a 50 15	 mov	 dl, BYTE PTR [eax+21]
  0004e	84 d2		 test	 dl, dl
  00050	74 ee		 je	 SHORT $L191194
$L191195:

; 261  : 				if (!_Isnil(_Pnode))

  00052	8a 50 15	 mov	 dl, BYTE PTR [eax+21]
  00055	84 d2		 test	 dl, dl
  00057	75 02		 jne	 SHORT $L194110

; 262  : 					_Ptr = _Pnode;	// ==> parent if not head

  00059	89 01		 mov	 DWORD PTR [ecx], eax
$L194110:
  0005b	5b		 pop	 ebx

; 263  : 				}
; 264  : 			}

  0005c	c3		 ret	 0
?_Dec@const_iterator@?$_Tree@V?$_Tmap_traits@KPAVCCouple@@U?$less@K@std@@V?$allocator@U?$pair@$$CBKPAVCCouple@@@std@@@3@$0A@@std@@@std@@QAEXXZ ENDP ; std::_Tree<std::_Tmap_traits<unsigned long,CCouple *,std::less<unsigned long>,std::allocator<std::pair<unsigned long const ,CCouple *> >,0> >::const_iterator::_Dec
_TEXT	ENDS
PUBLIC	??0?$allocator@U_COUPLE_ITEM@@@std@@QAE@ABV01@@Z ; std::allocator<_COUPLE_ITEM>::allocator<_COUPLE_ITEM>
; Function compile flags: /Ogty
; File c:\program files\microsoft visual studio .net 2003\vc7\include\xmemory
;	COMDAT ??0?$allocator@U_COUPLE_ITEM@@@std@@QAE@ABV01@@Z
_TEXT	SEGMENT
___formal$ = 8						; size = 4
??0?$allocator@U_COUPLE_ITEM@@@std@@QAE@ABV01@@Z PROC NEAR ; std::allocator<_COUPLE_ITEM>::allocator<_COUPLE_ITEM>, COMDAT
; _this$ = ecx

; 115  : 	allocator(const allocator<_Ty>&)

  00000	8b c1		 mov	 eax, ecx

; 116  : 		{	// construct by copying (do nothing)
; 117  : 		}

  00002	c2 04 00	 ret	 4
??0?$allocator@U_COUPLE_ITEM@@@std@@QAE@ABV01@@Z ENDP	; std::allocator<_COUPLE_ITEM>::allocator<_COUPLE_ITEM>
_TEXT	ENDS
PUBLIC	?deallocate@?$allocator@U_COUPLE_ITEM@@@std@@QAEXPAU_COUPLE_ITEM@@I@Z ; std::allocator<_COUPLE_ITEM>::deallocate
; Function compile flags: /Ogty
;	COMDAT ?deallocate@?$allocator@U_COUPLE_ITEM@@@std@@QAEXPAU_COUPLE_ITEM@@I@Z
_TEXT	SEGMENT
__Ptr$ = 8						; size = 4
___formal$ = 12						; size = 4
?deallocate@?$allocator@U_COUPLE_ITEM@@@std@@QAEXPAU_COUPLE_ITEM@@I@Z PROC NEAR ; std::allocator<_COUPLE_ITEM>::deallocate, COMDAT
; _this$ = ecx

; 132  : 		operator delete(_Ptr);

  00000	8b 44 24 04	 mov	 eax, DWORD PTR __Ptr$[esp-4]
  00004	50		 push	 eax
  00005	e8 00 00 00 00	 call	 ??3@YAXPAX@Z		; operator delete
  0000a	59		 pop	 ecx

; 133  : 		}

  0000b	c2 08 00	 ret	 8
?deallocate@?$allocator@U_COUPLE_ITEM@@@std@@QAEXPAU_COUPLE_ITEM@@I@Z ENDP ; std::allocator<_COUPLE_ITEM>::deallocate
_TEXT	ENDS
PUBLIC	??Gconst_iterator@?$vector@HV?$allocator@H@std@@@std@@QBEHABV012@@Z ; std::vector<int,std::allocator<int> >::const_iterator::operator-
; Function compile flags: /Ogty
; File c:\program files\microsoft visual studio .net 2003\vc7\include\vector
;	COMDAT ??Gconst_iterator@?$vector@HV?$allocator@H@std@@@std@@QBEHABV012@@Z
_TEXT	SEGMENT
__Right$ = 8						; size = 4
??Gconst_iterator@?$vector@HV?$allocator@H@std@@@std@@QBEHABV012@@Z PROC NEAR ; std::vector<int,std::allocator<int> >::const_iterator::operator-, COMDAT
; _this$ = ecx

; 141  : 
; 142  : 
; 143  : 			return (_Myptr - _Right._Myptr);

  00000	8b 01		 mov	 eax, DWORD PTR [ecx]
  00002	8b 4c 24 04	 mov	 ecx, DWORD PTR __Right$[esp-4]
  00006	2b 01		 sub	 eax, DWORD PTR [ecx]
  00008	c1 f8 02	 sar	 eax, 2

; 144  : 			}

  0000b	c2 04 00	 ret	 4
??Gconst_iterator@?$vector@HV?$allocator@H@std@@@std@@QBEHABV012@@Z ENDP ; std::vector<int,std::allocator<int> >::const_iterator::operator-
_TEXT	ENDS
PUBLIC	??0const_iterator@?$vector@V?$vector@U_COUPLE_ITEM@@V?$allocator@U_COUPLE_ITEM@@@std@@@std@@V?$allocator@V?$vector@U_COUPLE_ITEM@@V?$allocator@U_COUPLE_ITEM@@@std@@@std@@@2@@std@@QAE@PAV?$vector@U_COUPLE_ITEM@@V?$allocator@U_COUPLE_ITEM@@@std@@@2@@Z ; std::vector<std::vector<_COUPLE_ITEM,std::allocator<_COUPLE_ITEM> >,std::allocator<std::vector<_COUPLE_ITEM,std::allocator<_COUPLE_ITEM> > > >::const_iterator::const_iterator
; Function compile flags: /Ogty
;	COMDAT ??0const_iterator@?$vector@V?$vector@U_COUPLE_ITEM@@V?$allocator@U_COUPLE_ITEM@@@std@@@std@@V?$allocator@V?$vector@U_COUPLE_ITEM@@V?$allocator@U_COUPLE_ITEM@@@std@@@std@@@2@@std@@QAE@PAV?$vector@U_COUPLE_ITEM@@V?$allocator@U_COUPLE_ITEM@@@std@@@2@@Z
_TEXT	SEGMENT
__Ptr$ = 8						; size = 4
??0const_iterator@?$vector@V?$vector@U_COUPLE_ITEM@@V?$allocator@U_COUPLE_ITEM@@@std@@@std@@V?$allocator@V?$vector@U_COUPLE_ITEM@@V?$allocator@U_COUPLE_ITEM@@@std@@@std@@@2@@std@@QAE@PAV?$vector@U_COUPLE_ITEM@@V?$allocator@U_COUPLE_ITEM@@@std@@@2@@Z PROC NEAR ; std::vector<std::vector<_COUPLE_ITEM,std::allocator<_COUPLE_ITEM> >,std::allocator<std::vector<_COUPLE_ITEM,std::allocator<_COUPLE_ITEM> > > >::const_iterator::const_iterator, COMDAT
; _this$ = ecx

; 73   : 		const_iterator(_Tptr _Ptr)

  00000	8b c1		 mov	 eax, ecx

; 74   : 			{	// construct with pointer _Ptr
; 75   : 			_Myptr = _Ptr;

  00002	8b 4c 24 04	 mov	 ecx, DWORD PTR __Ptr$[esp-4]
  00006	89 08		 mov	 DWORD PTR [eax], ecx

; 76   : 			}

  00008	c2 04 00	 ret	 4
??0const_iterator@?$vector@V?$vector@U_COUPLE_ITEM@@V?$allocator@U_COUPLE_ITEM@@@std@@@std@@V?$allocator@V?$vector@U_COUPLE_ITEM@@V?$allocator@U_COUPLE_ITEM@@@std@@@std@@@2@@std@@QAE@PAV?$vector@U_COUPLE_ITEM@@V?$allocator@U_COUPLE_ITEM@@@std@@@2@@Z ENDP ; std::vector<std::vector<_COUPLE_ITEM,std::allocator<_COUPLE_ITEM> >,std::allocator<std::vector<_COUPLE_ITEM,std::allocator<_COUPLE_ITEM> > > >::const_iterator::const_iterator
_TEXT	ENDS
PUBLIC	??0const_iterator@?$vector@V?$vector@HV?$allocator@H@std@@@std@@V?$allocator@V?$vector@HV?$allocator@H@std@@@std@@@2@@std@@QAE@PAV?$vector@HV?$allocator@H@std@@@2@@Z ; std::vector<std::vector<int,std::allocator<int> >,std::allocator<std::vector<int,std::allocator<int> > > >::const_iterator::const_iterator
; Function compile flags: /Ogty
;	COMDAT ??0const_iterator@?$vector@V?$vector@HV?$allocator@H@std@@@std@@V?$allocator@V?$vector@HV?$allocator@H@std@@@std@@@2@@std@@QAE@PAV?$vector@HV?$allocator@H@std@@@2@@Z
_TEXT	SEGMENT
__Ptr$ = 8						; size = 4
??0const_iterator@?$vector@V?$vector@HV?$allocator@H@std@@@std@@V?$allocator@V?$vector@HV?$allocator@H@std@@@std@@@2@@std@@QAE@PAV?$vector@HV?$allocator@H@std@@@2@@Z PROC NEAR ; std::vector<std::vector<int,std::allocator<int> >,std::allocator<std::vector<int,std::allocator<int> > > >::const_iterator::const_iterator, COMDAT
; _this$ = ecx

; 73   : 		const_iterator(_Tptr _Ptr)

  00000	8b c1		 mov	 eax, ecx

; 74   : 			{	// construct with pointer _Ptr
; 75   : 			_Myptr = _Ptr;

  00002	8b 4c 24 04	 mov	 ecx, DWORD PTR __Ptr$[esp-4]
  00006	89 08		 mov	 DWORD PTR [eax], ecx

; 76   : 			}

  00008	c2 04 00	 ret	 4
??0const_iterator@?$vector@V?$vector@HV?$allocator@H@std@@@std@@V?$allocator@V?$vector@HV?$allocator@H@std@@@std@@@2@@std@@QAE@PAV?$vector@HV?$allocator@H@std@@@2@@Z ENDP ; std::vector<std::vector<int,std::allocator<int> >,std::allocator<std::vector<int,std::allocator<int> > > >::const_iterator::const_iterator
_TEXT	ENDS
PUBLIC	??Yiterator@?$vector@U_COUPLE_ITEM@@V?$allocator@U_COUPLE_ITEM@@@std@@@std@@QAEAAV012@H@Z ; std::vector<_COUPLE_ITEM,std::allocator<_COUPLE_ITEM> >::iterator::operator+=
; Function compile flags: /Ogty
;	COMDAT ??Yiterator@?$vector@U_COUPLE_ITEM@@V?$allocator@U_COUPLE_ITEM@@@std@@@std@@QAEAAV012@H@Z
_TEXT	SEGMENT
__Off$ = 8						; size = 4
??Yiterator@?$vector@U_COUPLE_ITEM@@V?$allocator@U_COUPLE_ITEM@@@std@@@std@@QAEAAV012@H@Z PROC NEAR ; std::vector<_COUPLE_ITEM,std::allocator<_COUPLE_ITEM> >::iterator::operator+=, COMDAT
; _this$ = ecx

; 255  : 			{	// increment by integer

  00000	8b c1		 mov	 eax, ecx

; 256  : 			this->_Myptr += _Off;

  00002	8b 4c 24 04	 mov	 ecx, DWORD PTR __Off$[esp-4]
  00006	8b 10		 mov	 edx, DWORD PTR [eax]
  00008	8d 0c 89	 lea	 ecx, DWORD PTR [ecx+ecx*4]
  0000b	c1 e1 02	 shl	 ecx, 2
  0000e	03 d1		 add	 edx, ecx
  00010	89 10		 mov	 DWORD PTR [eax], edx

; 257  : 			return (*this);
; 258  : 			}

  00012	c2 04 00	 ret	 4
??Yiterator@?$vector@U_COUPLE_ITEM@@V?$allocator@U_COUPLE_ITEM@@@std@@@std@@QAEAAV012@H@Z ENDP ; std::vector<_COUPLE_ITEM,std::allocator<_COUPLE_ITEM> >::iterator::operator+=
_TEXT	ENDS
PUBLIC	??0const_iterator@?$vector@U_COUPLE_ITEM@@V?$allocator@U_COUPLE_ITEM@@@std@@@std@@QAE@PAU_COUPLE_ITEM@@@Z ; std::vector<_COUPLE_ITEM,std::allocator<_COUPLE_ITEM> >::const_iterator::const_iterator
; Function compile flags: /Ogty
;	COMDAT ??0const_iterator@?$vector@U_COUPLE_ITEM@@V?$allocator@U_COUPLE_ITEM@@@std@@@std@@QAE@PAU_COUPLE_ITEM@@@Z
_TEXT	SEGMENT
__Ptr$ = 8						; size = 4
??0const_iterator@?$vector@U_COUPLE_ITEM@@V?$allocator@U_COUPLE_ITEM@@@std@@@std@@QAE@PAU_COUPLE_ITEM@@@Z PROC NEAR ; std::vector<_COUPLE_ITEM,std::allocator<_COUPLE_ITEM> >::const_iterator::const_iterator, COMDAT
; _this$ = ecx

; 73   : 		const_iterator(_Tptr _Ptr)

  00000	8b c1		 mov	 eax, ecx

; 74   : 			{	// construct with pointer _Ptr
; 75   : 			_Myptr = _Ptr;

  00002	8b 4c 24 04	 mov	 ecx, DWORD PTR __Ptr$[esp-4]
  00006	89 08		 mov	 DWORD PTR [eax], ecx

; 76   : 			}

  00008	c2 04 00	 ret	 4
??0const_iterator@?$vector@U_COUPLE_ITEM@@V?$allocator@U_COUPLE_ITEM@@@std@@@std@@QAE@PAU_COUPLE_ITEM@@@Z ENDP ; std::vector<_COUPLE_ITEM,std::allocator<_COUPLE_ITEM> >::const_iterator::const_iterator
_TEXT	ENDS
PUBLIC	??Gconst_iterator@?$vector@U_COUPLE_ITEM@@V?$allocator@U_COUPLE_ITEM@@@std@@@std@@QBEHABV012@@Z ; std::vector<_COUPLE_ITEM,std::allocator<_COUPLE_ITEM> >::const_iterator::operator-
; Function compile flags: /Ogty
;	COMDAT ??Gconst_iterator@?$vector@U_COUPLE_ITEM@@V?$allocator@U_COUPLE_ITEM@@@std@@@std@@QBEHABV012@@Z
_TEXT	SEGMENT
__Right$ = 8						; size = 4
??Gconst_iterator@?$vector@U_COUPLE_ITEM@@V?$allocator@U_COUPLE_ITEM@@@std@@@std@@QBEHABV012@@Z PROC NEAR ; std::vector<_COUPLE_ITEM,std::allocator<_COUPLE_ITEM> >::const_iterator::operator-, COMDAT
; _this$ = ecx

; 141  : 
; 142  : 
; 143  : 			return (_Myptr - _Right._Myptr);

  00000	8b 44 24 04	 mov	 eax, DWORD PTR __Right$[esp-4]
  00004	8b 10		 mov	 edx, DWORD PTR [eax]
  00006	8b 09		 mov	 ecx, DWORD PTR [ecx]
  00008	2b ca		 sub	 ecx, edx
  0000a	b8 67 66 66 66	 mov	 eax, 1717986919		; 66666667H
  0000f	f7 e9		 imul	 ecx
  00011	c1 fa 03	 sar	 edx, 3
  00014	8b c2		 mov	 eax, edx
  00016	c1 e8 1f	 shr	 eax, 31			; 0000001fH
  00019	03 c2		 add	 eax, edx

; 144  : 			}

  0001b	c2 04 00	 ret	 4
??Gconst_iterator@?$vector@U_COUPLE_ITEM@@V?$allocator@U_COUPLE_ITEM@@@std@@@std@@QBEHABV012@@Z ENDP ; std::vector<_COUPLE_ITEM,std::allocator<_COUPLE_ITEM> >::const_iterator::operator-
_TEXT	ENDS
PUBLIC	??0_Node@?$_Tree_nod@V?$_Tmap_traits@KPAVCCouple@@U?$less@K@std@@V?$allocator@U?$pair@$$CBKPAVCCouple@@@std@@@3@$0A@@std@@@std@@QAE@PAU012@00ABU?$pair@$$CBKPAVCCouple@@@2@D@Z ; std::_Tree_nod<std::_Tmap_traits<unsigned long,CCouple *,std::less<unsigned long>,std::allocator<std::pair<unsigned long const ,CCouple *> >,0> >::_Node::_Node
; Function compile flags: /Ogty
; File c:\program files\microsoft visual studio .net 2003\vc7\include\xtree
;	COMDAT ??0_Node@?$_Tree_nod@V?$_Tmap_traits@KPAVCCouple@@U?$less@K@std@@V?$allocator@U?$pair@$$CBKPAVCCouple@@@std@@@3@$0A@@std@@@std@@QAE@PAU012@00ABU?$pair@$$CBKPAVCCouple@@@2@D@Z
_TEXT	SEGMENT
__Larg$ = 8						; size = 4
__Parg$ = 12						; size = 4
__Rarg$ = 16						; size = 4
__Val$ = 20						; size = 4
__Carg$ = 24						; size = 1
??0_Node@?$_Tree_nod@V?$_Tmap_traits@KPAVCCouple@@U?$less@K@std@@V?$allocator@U?$pair@$$CBKPAVCCouple@@@std@@@3@$0A@@std@@@std@@QAE@PAU012@00ABU?$pair@$$CBKPAVCCouple@@@2@D@Z PROC NEAR ; std::_Tree_nod<std::_Tmap_traits<unsigned long,CCouple *,std::less<unsigned long>,std::allocator<std::pair<unsigned long const ,CCouple *> >,0> >::_Node::_Node, COMDAT
; _this$ = ecx

; 40   : 			{	// construct a node with value

  00000	8b 54 24 08	 mov	 edx, DWORD PTR __Parg$[esp-4]
  00004	8b c1		 mov	 eax, ecx
  00006	8b 4c 24 04	 mov	 ecx, DWORD PTR __Larg$[esp-4]
  0000a	89 08		 mov	 DWORD PTR [eax], ecx
  0000c	8b 4c 24 0c	 mov	 ecx, DWORD PTR __Rarg$[esp-4]
  00010	89 48 08	 mov	 DWORD PTR [eax+8], ecx
  00013	8b 4c 24 10	 mov	 ecx, DWORD PTR __Val$[esp-4]
  00017	89 50 04	 mov	 DWORD PTR [eax+4], edx
  0001a	8b 11		 mov	 edx, DWORD PTR [ecx]
  0001c	89 50 0c	 mov	 DWORD PTR [eax+12], edx
  0001f	8b 49 04	 mov	 ecx, DWORD PTR [ecx+4]
  00022	8a 54 24 14	 mov	 dl, BYTE PTR __Carg$[esp-4]
  00026	89 48 10	 mov	 DWORD PTR [eax+16], ecx
  00029	88 50 14	 mov	 BYTE PTR [eax+20], dl
  0002c	c6 40 15 00	 mov	 BYTE PTR [eax+21], 0

; 41   : 			}

  00030	c2 14 00	 ret	 20			; 00000014H
??0_Node@?$_Tree_nod@V?$_Tmap_traits@KPAVCCouple@@U?$less@K@std@@V?$allocator@U?$pair@$$CBKPAVCCouple@@@std@@@3@$0A@@std@@@std@@QAE@PAU012@00ABU?$pair@$$CBKPAVCCouple@@@2@D@Z ENDP ; std::_Tree_nod<std::_Tmap_traits<unsigned long,CCouple *,std::less<unsigned long>,std::allocator<std::pair<unsigned long const ,CCouple *> >,0> >::_Node::_Node
_TEXT	ENDS
PUBLIC	?begin@?$vector@HV?$allocator@H@std@@@std@@QBE?AVconst_iterator@12@XZ ; std::vector<int,std::allocator<int> >::begin
; Function compile flags: /Ogty
; File c:\program files\microsoft visual studio .net 2003\vc7\include\vector
;	COMDAT ?begin@?$vector@HV?$allocator@H@std@@@std@@QBE?AVconst_iterator@12@XZ
_TEXT	SEGMENT
___$ReturnUdt$ = 8					; size = 4
?begin@?$vector@HV?$allocator@H@std@@@std@@QBE?AVconst_iterator@12@XZ PROC NEAR ; std::vector<int,std::allocator<int> >::begin, COMDAT
; _this$ = ecx

; 468  : 		return (const_iterator(_Myfirst));

  00000	8b 49 04	 mov	 ecx, DWORD PTR [ecx+4]
  00003	8b 44 24 04	 mov	 eax, DWORD PTR ___$ReturnUdt$[esp-4]
  00007	89 08		 mov	 DWORD PTR [eax], ecx

; 469  : 		}

  00009	c2 04 00	 ret	 4
?begin@?$vector@HV?$allocator@H@std@@@std@@QBE?AVconst_iterator@12@XZ ENDP ; std::vector<int,std::allocator<int> >::begin
_TEXT	ENDS
PUBLIC	?end@?$vector@HV?$allocator@H@std@@@std@@QBE?AVconst_iterator@12@XZ ; std::vector<int,std::allocator<int> >::end
; Function compile flags: /Ogty
;	COMDAT ?end@?$vector@HV?$allocator@H@std@@@std@@QBE?AVconst_iterator@12@XZ
_TEXT	SEGMENT
___$ReturnUdt$ = 8					; size = 4
?end@?$vector@HV?$allocator@H@std@@@std@@QBE?AVconst_iterator@12@XZ PROC NEAR ; std::vector<int,std::allocator<int> >::end, COMDAT
; _this$ = ecx

; 478  : 		return (const_iterator(_Mylast));

  00000	8b 49 08	 mov	 ecx, DWORD PTR [ecx+8]
  00003	8b 44 24 04	 mov	 eax, DWORD PTR ___$ReturnUdt$[esp-4]
  00007	89 08		 mov	 DWORD PTR [eax], ecx

; 479  : 		}

  00009	c2 04 00	 ret	 4
?end@?$vector@HV?$allocator@H@std@@@std@@QBE?AVconst_iterator@12@XZ ENDP ; std::vector<int,std::allocator<int> >::end
_TEXT	ENDS
PUBLIC	?begin@?$vector@U_COUPLE_ITEM@@V?$allocator@U_COUPLE_ITEM@@@std@@@std@@QBE?AVconst_iterator@12@XZ ; std::vector<_COUPLE_ITEM,std::allocator<_COUPLE_ITEM> >::begin
; Function compile flags: /Ogty
;	COMDAT ?begin@?$vector@U_COUPLE_ITEM@@V?$allocator@U_COUPLE_ITEM@@@std@@@std@@QBE?AVconst_iterator@12@XZ
_TEXT	SEGMENT
___$ReturnUdt$ = 8					; size = 4
?begin@?$vector@U_COUPLE_ITEM@@V?$allocator@U_COUPLE_ITEM@@@std@@@std@@QBE?AVconst_iterator@12@XZ PROC NEAR ; std::vector<_COUPLE_ITEM,std::allocator<_COUPLE_ITEM> >::begin, COMDAT
; _this$ = ecx

; 468  : 		return (const_iterator(_Myfirst));

  00000	8b 49 04	 mov	 ecx, DWORD PTR [ecx+4]
  00003	8b 44 24 04	 mov	 eax, DWORD PTR ___$ReturnUdt$[esp-4]
  00007	89 08		 mov	 DWORD PTR [eax], ecx

; 469  : 		}

  00009	c2 04 00	 ret	 4
?begin@?$vector@U_COUPLE_ITEM@@V?$allocator@U_COUPLE_ITEM@@@std@@@std@@QBE?AVconst_iterator@12@XZ ENDP ; std::vector<_COUPLE_ITEM,std::allocator<_COUPLE_ITEM> >::begin
_TEXT	ENDS
PUBLIC	?end@?$vector@U_COUPLE_ITEM@@V?$allocator@U_COUPLE_ITEM@@@std@@@std@@QBE?AVconst_iterator@12@XZ ; std::vector<_COUPLE_ITEM,std::allocator<_COUPLE_ITEM> >::end
; Function compile flags: /Ogty
;	COMDAT ?end@?$vector@U_COUPLE_ITEM@@V?$allocator@U_COUPLE_ITEM@@@std@@@std@@QBE?AVconst_iterator@12@XZ
_TEXT	SEGMENT
___$ReturnUdt$ = 8					; size = 4
?end@?$vector@U_COUPLE_ITEM@@V?$allocator@U_COUPLE_ITEM@@@std@@@std@@QBE?AVconst_iterator@12@XZ PROC NEAR ; std::vector<_COUPLE_ITEM,std::allocator<_COUPLE_ITEM> >::end, COMDAT
; _this$ = ecx

; 478  : 		return (const_iterator(_Mylast));

  00000	8b 49 08	 mov	 ecx, DWORD PTR [ecx+8]
  00003	8b 44 24 04	 mov	 eax, DWORD PTR ___$ReturnUdt$[esp-4]
  00007	89 08		 mov	 DWORD PTR [eax], ecx

; 479  : 		}

  00009	c2 04 00	 ret	 4
?end@?$vector@U_COUPLE_ITEM@@V?$allocator@U_COUPLE_ITEM@@@std@@@std@@QBE?AVconst_iterator@12@XZ ENDP ; std::vector<_COUPLE_ITEM,std::allocator<_COUPLE_ITEM> >::end
_TEXT	ENDS
PUBLIC	?max_size@?$allocator@U_COUPLE_ITEM@@@std@@QBEIXZ ; std::allocator<_COUPLE_ITEM>::max_size
; Function compile flags: /Ogty
; File c:\program files\microsoft visual studio .net 2003\vc7\include\xmemory
;	COMDAT ?max_size@?$allocator@U_COUPLE_ITEM@@@std@@QBEIXZ
_TEXT	SEGMENT
?max_size@?$allocator@U_COUPLE_ITEM@@@std@@QBEIXZ PROC NEAR ; std::allocator<_COUPLE_ITEM>::max_size, COMDAT
; _this$ = ecx

; 157  : 		_SIZT _Count = (_SIZT)(-1) / sizeof (_Ty);
; 158  : 		return (0 < _Count ? _Count : 1);

  00000	b8 cc cc cc 0c	 mov	 eax, 214748364		; 0cccccccH

; 159  : 		}

  00005	c3		 ret	 0
?max_size@?$allocator@U_COUPLE_ITEM@@@std@@QBEIXZ ENDP	; std::allocator<_COUPLE_ITEM>::max_size
_TEXT	ENDS
PUBLIC	??8const_iterator@?$vector@V?$vector@U_COUPLE_ITEM@@V?$allocator@U_COUPLE_ITEM@@@std@@@std@@V?$allocator@V?$vector@U_COUPLE_ITEM@@V?$allocator@U_COUPLE_ITEM@@@std@@@std@@@2@@std@@QBE_NABV012@@Z ; std::vector<std::vector<_COUPLE_ITEM,std::allocator<_COUPLE_ITEM> >,std::allocator<std::vector<_COUPLE_ITEM,std::allocator<_COUPLE_ITEM> > > >::const_iterator::operator==
; Function compile flags: /Ogty
; File c:\program files\microsoft visual studio .net 2003\vc7\include\vector
;	COMDAT ??8const_iterator@?$vector@V?$vector@U_COUPLE_ITEM@@V?$allocator@U_COUPLE_ITEM@@@std@@@std@@V?$allocator@V?$vector@U_COUPLE_ITEM@@V?$allocator@U_COUPLE_ITEM@@@std@@@std@@@2@@std@@QBE_NABV012@@Z
_TEXT	SEGMENT
__Right$ = 8						; size = 4
??8const_iterator@?$vector@V?$vector@U_COUPLE_ITEM@@V?$allocator@U_COUPLE_ITEM@@@std@@@std@@V?$allocator@V?$vector@U_COUPLE_ITEM@@V?$allocator@U_COUPLE_ITEM@@@std@@@std@@@2@@std@@QBE_NABV012@@Z PROC NEAR ; std::vector<std::vector<_COUPLE_ITEM,std::allocator<_COUPLE_ITEM> >,std::allocator<std::vector<_COUPLE_ITEM,std::allocator<_COUPLE_ITEM> > > >::const_iterator::operator==, COMDAT
; _this$ = ecx

; 153  : 
; 154  : 
; 155  : 			return (_Myptr == _Right._Myptr);

  00000	8b 01		 mov	 eax, DWORD PTR [ecx]
  00002	8b 4c 24 04	 mov	 ecx, DWORD PTR __Right$[esp-4]
  00006	2b 01		 sub	 eax, DWORD PTR [ecx]
  00008	f7 d8		 neg	 eax
  0000a	1b c0		 sbb	 eax, eax
  0000c	40		 inc	 eax

; 156  : 			}

  0000d	c2 04 00	 ret	 4
??8const_iterator@?$vector@V?$vector@U_COUPLE_ITEM@@V?$allocator@U_COUPLE_ITEM@@@std@@@std@@V?$allocator@V?$vector@U_COUPLE_ITEM@@V?$allocator@U_COUPLE_ITEM@@@std@@@std@@@2@@std@@QBE_NABV012@@Z ENDP ; std::vector<std::vector<_COUPLE_ITEM,std::allocator<_COUPLE_ITEM> >,std::allocator<std::vector<_COUPLE_ITEM,std::allocator<_COUPLE_ITEM> > > >::const_iterator::operator==
_TEXT	ENDS
PUBLIC	??8const_iterator@?$vector@V?$vector@HV?$allocator@H@std@@@std@@V?$allocator@V?$vector@HV?$allocator@H@std@@@std@@@2@@std@@QBE_NABV012@@Z ; std::vector<std::vector<int,std::allocator<int> >,std::allocator<std::vector<int,std::allocator<int> > > >::const_iterator::operator==
; Function compile flags: /Ogty
;	COMDAT ??8const_iterator@?$vector@V?$vector@HV?$allocator@H@std@@@std@@V?$allocator@V?$vector@HV?$allocator@H@std@@@std@@@2@@std@@QBE_NABV012@@Z
_TEXT	SEGMENT
__Right$ = 8						; size = 4
??8const_iterator@?$vector@V?$vector@HV?$allocator@H@std@@@std@@V?$allocator@V?$vector@HV?$allocator@H@std@@@std@@@2@@std@@QBE_NABV012@@Z PROC NEAR ; std::vector<std::vector<int,std::allocator<int> >,std::allocator<std::vector<int,std::allocator<int> > > >::const_iterator::operator==, COMDAT
; _this$ = ecx

; 153  : 
; 154  : 
; 155  : 			return (_Myptr == _Right._Myptr);

  00000	8b 01		 mov	 eax, DWORD PTR [ecx]
  00002	8b 4c 24 04	 mov	 ecx, DWORD PTR __Right$[esp-4]
  00006	2b 01		 sub	 eax, DWORD PTR [ecx]
  00008	f7 d8		 neg	 eax
  0000a	1b c0		 sbb	 eax, eax
  0000c	40		 inc	 eax

; 156  : 			}

  0000d	c2 04 00	 ret	 4
??8const_iterator@?$vector@V?$vector@HV?$allocator@H@std@@@std@@V?$allocator@V?$vector@HV?$allocator@H@std@@@std@@@2@@std@@QBE_NABV012@@Z ENDP ; std::vector<std::vector<int,std::allocator<int> >,std::allocator<std::vector<int,std::allocator<int> > > >::const_iterator::operator==
_TEXT	ENDS
PUBLIC	??0?$_Tmap_traits@KPAVCCouple@@U?$less@K@std@@V?$allocator@U?$pair@$$CBKPAVCCouple@@@std@@@3@$0A@@std@@QAE@U?$less@K@1@@Z ; std::_Tmap_traits<unsigned long,CCouple *,std::less<unsigned long>,std::allocator<std::pair<unsigned long const ,CCouple *> >,0>::_Tmap_traits<unsigned long,CCouple *,std::less<unsigned long>,std::allocator<std::pair<unsigned long const ,CCouple *> >,0>
; Function compile flags: /Ogty
; File c:\program files\microsoft visual studio .net 2003\vc7\include\map
;	COMDAT ??0?$_Tmap_traits@KPAVCCouple@@U?$less@K@std@@V?$allocator@U?$pair@$$CBKPAVCCouple@@@std@@@3@$0A@@std@@QAE@U?$less@K@1@@Z
_TEXT	SEGMENT
__Parg$ = 8						; size = 1
??0?$_Tmap_traits@KPAVCCouple@@U?$less@K@std@@V?$allocator@U?$pair@$$CBKPAVCCouple@@@std@@@3@$0A@@std@@QAE@U?$less@K@1@@Z PROC NEAR ; std::_Tmap_traits<unsigned long,CCouple *,std::less<unsigned long>,std::allocator<std::pair<unsigned long const ,CCouple *> >,0>::_Tmap_traits<unsigned long,CCouple *,std::less<unsigned long>,std::allocator<std::pair<unsigned long const ,CCouple *> >,0>, COMDAT
; _this$ = ecx

; 38   : 		{	// construct with specified comparator

  00000	8b c1		 mov	 eax, ecx

; 39   : 		}

  00002	c2 04 00	 ret	 4
??0?$_Tmap_traits@KPAVCCouple@@U?$less@K@std@@V?$allocator@U?$pair@$$CBKPAVCCouple@@@std@@@3@$0A@@std@@QAE@U?$less@K@1@@Z ENDP ; std::_Tmap_traits<unsigned long,CCouple *,std::less<unsigned long>,std::allocator<std::pair<unsigned long const ,CCouple *> >,0>::_Tmap_traits<unsigned long,CCouple *,std::less<unsigned long>,std::allocator<std::pair<unsigned long const ,CCouple *> >,0>
_TEXT	ENDS
PUBLIC	?_Inc@const_iterator@?$_Tree@V?$_Tmap_traits@KPAVCCouple@@U?$less@K@std@@V?$allocator@U?$pair@$$CBKPAVCCouple@@@std@@@3@$0A@@std@@@std@@QAEXXZ ; std::_Tree<std::_Tmap_traits<unsigned long,CCouple *,std::less<unsigned long>,std::allocator<std::pair<unsigned long const ,CCouple *> >,0> >::const_iterator::_Inc
; Function compile flags: /Ogty
; File c:\program files\microsoft visual studio .net 2003\vc7\include\xtree
;	COMDAT ?_Inc@const_iterator@?$_Tree@V?$_Tmap_traits@KPAVCCouple@@U?$less@K@std@@V?$allocator@U?$pair@$$CBKPAVCCouple@@@std@@@3@$0A@@std@@@std@@QAEXXZ
_TEXT	SEGMENT
?_Inc@const_iterator@?$_Tree@V?$_Tmap_traits@KPAVCCouple@@U?$less@K@std@@V?$allocator@U?$pair@$$CBKPAVCCouple@@@std@@@3@$0A@@std@@@std@@QAEXXZ PROC NEAR ; std::_Tree<std::_Tmap_traits<unsigned long,CCouple *,std::less<unsigned long>,std::allocator<std::pair<unsigned long const ,CCouple *> >,0> >::const_iterator::_Inc, COMDAT
; _this$ = ecx

; 268  : 			if (_Isnil(_Ptr))

  00000	8b 01		 mov	 eax, DWORD PTR [ecx]
  00002	8a 50 15	 mov	 dl, BYTE PTR [eax+21]
  00005	84 d2		 test	 dl, dl
  00007	75 4d		 jne	 SHORT $L191306

; 269  : 				;	// end() shouldn't be incremented, don't move
; 270  : 			else if (!_Isnil(_Right(_Ptr)))

  00009	8b 50 08	 mov	 edx, DWORD PTR [eax+8]
  0000c	53		 push	 ebx
  0000d	8a 5a 15	 mov	 bl, BYTE PTR [edx+21]
  00010	84 db		 test	 bl, bl
  00012	75 1b		 jne	 SHORT $L194209

; 271  : 				_Ptr = _Min(_Right(_Ptr));	// ==> smallest of right subtree

  00014	8b 02		 mov	 eax, DWORD PTR [edx]
  00016	8a 58 15	 mov	 bl, BYTE PTR [eax+21]
  00019	84 db		 test	 bl, bl
  0001b	75 0e		 jne	 SHORT $L194197
  0001d	8d 49 00	 npad	 3
$L194196:
  00020	8b d0		 mov	 edx, eax
  00022	8b 02		 mov	 eax, DWORD PTR [edx]
  00024	8a 58 15	 mov	 bl, BYTE PTR [eax+21]
  00027	84 db		 test	 bl, bl
  00029	74 f5		 je	 SHORT $L194196
$L194197:
  0002b	89 11		 mov	 DWORD PTR [ecx], edx
  0002d	5b		 pop	 ebx

; 279  : 				}
; 280  : 			}

  0002e	c3		 ret	 0
$L194209:

; 272  : 			else
; 273  : 				{	// climb looking for right subtree
; 274  : 				_Nodeptr _Pnode;
; 275  : 				while (!_Isnil(_Pnode = _Parent(_Ptr))
; 276  : 					&& _Ptr == _Right(_Pnode))

  0002f	8b 40 04	 mov	 eax, DWORD PTR [eax+4]
  00032	8a 50 15	 mov	 dl, BYTE PTR [eax+21]
  00035	84 d2		 test	 dl, dl
  00037	75 1a		 jne	 SHORT $L191310
  00039	8d a4 24 00 00
	00 00		 npad	 7
$L191309:
  00040	8b 11		 mov	 edx, DWORD PTR [ecx]
  00042	3b 50 08	 cmp	 edx, DWORD PTR [eax+8]
  00045	75 0c		 jne	 SHORT $L191310

; 277  : 					_Ptr = _Pnode;	// ==> parent while right subtree

  00047	89 01		 mov	 DWORD PTR [ecx], eax
  00049	8b 40 04	 mov	 eax, DWORD PTR [eax+4]
  0004c	8a 50 15	 mov	 dl, BYTE PTR [eax+21]
  0004f	84 d2		 test	 dl, dl
  00051	74 ed		 je	 SHORT $L191309
$L191310:

; 278  : 				_Ptr = _Pnode;	// ==> parent (head if end())

  00053	89 01		 mov	 DWORD PTR [ecx], eax
  00055	5b		 pop	 ebx
$L191306:

; 279  : 				}
; 280  : 			}

  00056	c3		 ret	 0
?_Inc@const_iterator@?$_Tree@V?$_Tmap_traits@KPAVCCouple@@U?$less@K@std@@V?$allocator@U?$pair@$$CBKPAVCCouple@@@std@@@3@$0A@@std@@@std@@QAEXXZ ENDP ; std::_Tree<std::_Tmap_traits<unsigned long,CCouple *,std::less<unsigned long>,std::allocator<std::pair<unsigned long const ,CCouple *> >,0> >::const_iterator::_Inc
_TEXT	ENDS
PUBLIC	??$_Allocate@H@std@@YAPAHIPAH@Z			; std::_Allocate<int>
EXTRN	??2@YAPAXI@Z:NEAR				; operator new
; Function compile flags: /Ogty
; File c:\program files\microsoft visual studio .net 2003\vc7\include\xmemory
;	COMDAT ??$_Allocate@H@std@@YAPAHIPAH@Z
_TEXT	SEGMENT
__Count$ = 8						; size = 4
___formal$ = 12						; size = 4
??$_Allocate@H@std@@YAPAHIPAH@Z PROC NEAR		; std::_Allocate<int>, COMDAT

; 34   : 	return ((_Ty _FARQ *)operator new(_Count * sizeof (_Ty)));

  00000	8b 44 24 04	 mov	 eax, DWORD PTR __Count$[esp-4]
  00004	8d 0c 85 00 00
	00 00		 lea	 ecx, DWORD PTR [eax*4]
  0000b	51		 push	 ecx
  0000c	e8 00 00 00 00	 call	 ??2@YAPAXI@Z		; operator new
  00011	83 c4 04	 add	 esp, 4

; 35   : 	}

  00014	c3		 ret	 0
??$_Allocate@H@std@@YAPAHIPAH@Z ENDP			; std::_Allocate<int>
_TEXT	ENDS
PUBLIC	??$fill@PAHH@std@@YAXPAH0ABH@Z			; std::fill<int *,int>
; Function compile flags: /Ogty
; File c:\program files\microsoft visual studio .net 2003\vc7\include\xutility
;	COMDAT ??$fill@PAHH@std@@YAXPAH0ABH@Z
_TEXT	SEGMENT
__First$ = 8						; size = 4
__Last$ = 12						; size = 4
__Val$ = 16						; size = 4
??$fill@PAHH@std@@YAXPAH0ABH@Z PROC NEAR		; std::fill<int *,int>, COMDAT

; 1135 : 	for (; _First != _Last; ++_First)

  00000	8b 44 24 04	 mov	 eax, DWORD PTR __First$[esp-4]
  00004	8b 4c 24 08	 mov	 ecx, DWORD PTR __Last$[esp-4]
  00008	3b c1		 cmp	 eax, ecx
  0000a	74 11		 je	 SHORT $L191909
  0000c	8b 54 24 0c	 mov	 edx, DWORD PTR __Val$[esp-4]
  00010	56		 push	 esi
$L191907:

; 1136 : 		*_First = _Val;

  00011	8b 32		 mov	 esi, DWORD PTR [edx]
  00013	89 30		 mov	 DWORD PTR [eax], esi
  00015	83 c0 04	 add	 eax, 4
  00018	3b c1		 cmp	 eax, ecx
  0001a	75 f5		 jne	 SHORT $L191907
  0001c	5e		 pop	 esi
$L191909:

; 1137 : 	}

  0001d	c3		 ret	 0
??$fill@PAHH@std@@YAXPAH0ABH@Z ENDP			; std::fill<int *,int>
_TEXT	ENDS
PUBLIC	??$_Allocate@V?$vector@U_COUPLE_ITEM@@V?$allocator@U_COUPLE_ITEM@@@std@@@std@@@std@@YAPAV?$vector@U_COUPLE_ITEM@@V?$allocator@U_COUPLE_ITEM@@@std@@@0@IPAV10@@Z ; std::_Allocate<std::vector<_COUPLE_ITEM,std::allocator<_COUPLE_ITEM> > >
; Function compile flags: /Ogty
; File c:\program files\microsoft visual studio .net 2003\vc7\include\xmemory
;	COMDAT ??$_Allocate@V?$vector@U_COUPLE_ITEM@@V?$allocator@U_COUPLE_ITEM@@@std@@@std@@@std@@YAPAV?$vector@U_COUPLE_ITEM@@V?$allocator@U_COUPLE_ITEM@@@std@@@0@IPAV10@@Z
_TEXT	SEGMENT
__Count$ = 8						; size = 4
___formal$ = 12						; size = 4
??$_Allocate@V?$vector@U_COUPLE_ITEM@@V?$allocator@U_COUPLE_ITEM@@@std@@@std@@@std@@YAPAV?$vector@U_COUPLE_ITEM@@V?$allocator@U_COUPLE_ITEM@@@std@@@0@IPAV10@@Z PROC NEAR ; std::_Allocate<std::vector<_COUPLE_ITEM,std::allocator<_COUPLE_ITEM> > >, COMDAT

; 34   : 	return ((_Ty _FARQ *)operator new(_Count * sizeof (_Ty)));

  00000	8b 44 24 04	 mov	 eax, DWORD PTR __Count$[esp-4]
  00004	c1 e0 04	 shl	 eax, 4
  00007	50		 push	 eax
  00008	e8 00 00 00 00	 call	 ??2@YAPAXI@Z		; operator new
  0000d	83 c4 04	 add	 esp, 4

; 35   : 	}

  00010	c3		 ret	 0
??$_Allocate@V?$vector@U_COUPLE_ITEM@@V?$allocator@U_COUPLE_ITEM@@@std@@@std@@@std@@YAPAV?$vector@U_COUPLE_ITEM@@V?$allocator@U_COUPLE_ITEM@@@std@@@0@IPAV10@@Z ENDP ; std::_Allocate<std::vector<_COUPLE_ITEM,std::allocator<_COUPLE_ITEM> > >
_TEXT	ENDS
PUBLIC	??$_Allocate@V?$vector@HV?$allocator@H@std@@@std@@@std@@YAPAV?$vector@HV?$allocator@H@std@@@0@IPAV10@@Z ; std::_Allocate<std::vector<int,std::allocator<int> > >
; Function compile flags: /Ogty
;	COMDAT ??$_Allocate@V?$vector@HV?$allocator@H@std@@@std@@@std@@YAPAV?$vector@HV?$allocator@H@std@@@0@IPAV10@@Z
_TEXT	SEGMENT
__Count$ = 8						; size = 4
___formal$ = 12						; size = 4
??$_Allocate@V?$vector@HV?$allocator@H@std@@@std@@@std@@YAPAV?$vector@HV?$allocator@H@std@@@0@IPAV10@@Z PROC NEAR ; std::_Allocate<std::vector<int,std::allocator<int> > >, COMDAT

; 34   : 	return ((_Ty _FARQ *)operator new(_Count * sizeof (_Ty)));

  00000	8b 44 24 04	 mov	 eax, DWORD PTR __Count$[esp-4]
  00004	c1 e0 04	 shl	 eax, 4
  00007	50		 push	 eax
  00008	e8 00 00 00 00	 call	 ??2@YAPAXI@Z		; operator new
  0000d	83 c4 04	 add	 esp, 4

; 35   : 	}

  00010	c3		 ret	 0
??$_Allocate@V?$vector@HV?$allocator@H@std@@@std@@@std@@YAPAV?$vector@HV?$allocator@H@std@@@0@IPAV10@@Z ENDP ; std::_Allocate<std::vector<int,std::allocator<int> > >
_TEXT	ENDS
PUBLIC	??$_Destroy@U_Node@?$_Tree_nod@V?$_Tmap_traits@KPAVCCouple@@U?$less@K@std@@V?$allocator@U?$pair@$$CBKPAVCCouple@@@std@@@3@$0A@@std@@@std@@@std@@YAXPAU_Node@?$_Tree_nod@V?$_Tmap_traits@KPAVCCouple@@U?$less@K@std@@V?$allocator@U?$pair@$$CBKPAVCCouple@@@std@@@3@$0A@@std@@@0@@Z ; std::_Destroy<std::_Tree_nod<std::_Tmap_traits<unsigned long,CCouple *,std::less<unsigned long>,std::allocator<std::pair<unsigned long const ,CCouple *> >,0> >::_Node>
; Function compile flags: /Ogty
;	COMDAT ??$_Destroy@U_Node@?$_Tree_nod@V?$_Tmap_traits@KPAVCCouple@@U?$less@K@std@@V?$allocator@U?$pair@$$CBKPAVCCouple@@@std@@@3@$0A@@std@@@std@@@std@@YAXPAU_Node@?$_Tree_nod@V?$_Tmap_traits@KPAVCCouple@@U?$less@K@std@@V?$allocator@U?$pair@$$CBKPAVCCouple@@@std@@@3@$0A@@std@@@0@@Z
_TEXT	SEGMENT
__Ptr$ = 8						; size = 4
??$_Destroy@U_Node@?$_Tree_nod@V?$_Tmap_traits@KPAVCCouple@@U?$less@K@std@@V?$allocator@U?$pair@$$CBKPAVCCouple@@@std@@@3@$0A@@std@@@std@@@std@@YAXPAU_Node@?$_Tree_nod@V?$_Tmap_traits@KPAVCCouple@@U?$less@K@std@@V?$allocator@U?$pair@$$CBKPAVCCouple@@@std@@@3@$0A@@std@@@0@@Z PROC NEAR ; std::_Destroy<std::_Tree_nod<std::_Tmap_traits<unsigned long,CCouple *,std::less<unsigned long>,std::allocator<std::pair<unsigned long const ,CCouple *> >,0> >::_Node>, COMDAT

; 49   : 	_DESTRUCTOR(_Ty, _Ptr);
; 50   : 	}

  00000	c3		 ret	 0
??$_Destroy@U_Node@?$_Tree_nod@V?$_Tmap_traits@KPAVCCouple@@U?$less@K@std@@V?$allocator@U?$pair@$$CBKPAVCCouple@@@std@@@3@$0A@@std@@@std@@@std@@YAXPAU_Node@?$_Tree_nod@V?$_Tmap_traits@KPAVCCouple@@U?$less@K@std@@V?$allocator@U?$pair@$$CBKPAVCCouple@@@std@@@3@$0A@@std@@@0@@Z ENDP ; std::_Destroy<std::_Tree_nod<std::_Tmap_traits<unsigned long,CCouple *,std::less<unsigned long>,std::allocator<std::pair<unsigned long const ,CCouple *> >,0> >::_Node>
_TEXT	ENDS
PUBLIC	??$_Destroy@PAU_Node@?$_Tree_nod@V?$_Tmap_traits@KPAVCCouple@@U?$less@K@std@@V?$allocator@U?$pair@$$CBKPAVCCouple@@@std@@@3@$0A@@std@@@std@@@std@@YAXPAPAU_Node@?$_Tree_nod@V?$_Tmap_traits@KPAVCCouple@@U?$less@K@std@@V?$allocator@U?$pair@$$CBKPAVCCouple@@@std@@@3@$0A@@std@@@0@@Z ; std::_Destroy<std::_Tree_nod<std::_Tmap_traits<unsigned long,CCouple *,std::less<unsigned long>,std::allocator<std::pair<unsigned long const ,CCouple *> >,0> >::_Node *>
; Function compile flags: /Ogty
;	COMDAT ??$_Destroy@PAU_Node@?$_Tree_nod@V?$_Tmap_traits@KPAVCCouple@@U?$less@K@std@@V?$allocator@U?$pair@$$CBKPAVCCouple@@@std@@@3@$0A@@std@@@std@@@std@@YAXPAPAU_Node@?$_Tree_nod@V?$_Tmap_traits@KPAVCCouple@@U?$less@K@std@@V?$allocator@U?$pair@$$CBKPAVCCouple@@@std@@@3@$0A@@std@@@0@@Z
_TEXT	SEGMENT
__Ptr$ = 8						; size = 4
??$_Destroy@PAU_Node@?$_Tree_nod@V?$_Tmap_traits@KPAVCCouple@@U?$less@K@std@@V?$allocator@U?$pair@$$CBKPAVCCouple@@@std@@@3@$0A@@std@@@std@@@std@@YAXPAPAU_Node@?$_Tree_nod@V?$_Tmap_traits@KPAVCCouple@@U?$less@K@std@@V?$allocator@U?$pair@$$CBKPAVCCouple@@@std@@@3@$0A@@std@@@0@@Z PROC NEAR ; std::_Destroy<std::_Tree_nod<std::_Tmap_traits<unsigned long,CCouple *,std::less<unsigned long>,std::allocator<std::pair<unsigned long const ,CCouple *> >,0> >::_Node *>, COMDAT

; 49   : 	_DESTRUCTOR(_Ty, _Ptr);
; 50   : 	}

  00000	c3		 ret	 0
??$_Destroy@PAU_Node@?$_Tree_nod@V?$_Tmap_traits@KPAVCCouple@@U?$less@K@std@@V?$allocator@U?$pair@$$CBKPAVCCouple@@@std@@@3@$0A@@std@@@std@@@std@@YAXPAPAU_Node@?$_Tree_nod@V?$_Tmap_traits@KPAVCCouple@@U?$less@K@std@@V?$allocator@U?$pair@$$CBKPAVCCouple@@@std@@@3@$0A@@std@@@0@@Z ENDP ; std::_Destroy<std::_Tree_nod<std::_Tmap_traits<unsigned long,CCouple *,std::less<unsigned long>,std::allocator<std::pair<unsigned long const ,CCouple *> >,0> >::_Node *>
_TEXT	ENDS
PUBLIC	??$fill@PAPAVCCouple@@PAV1@@std@@YAXPAPAVCCouple@@0ABQAV1@@Z ; std::fill<CCouple * *,CCouple *>
; Function compile flags: /Ogty
; File c:\program files\microsoft visual studio .net 2003\vc7\include\xutility
;	COMDAT ??$fill@PAPAVCCouple@@PAV1@@std@@YAXPAPAVCCouple@@0ABQAV1@@Z
_TEXT	SEGMENT
__First$ = 8						; size = 4
__Last$ = 12						; size = 4
__Val$ = 16						; size = 4
??$fill@PAPAVCCouple@@PAV1@@std@@YAXPAPAVCCouple@@0ABQAV1@@Z PROC NEAR ; std::fill<CCouple * *,CCouple *>, COMDAT

; 1135 : 	for (; _First != _Last; ++_First)

  00000	8b 44 24 04	 mov	 eax, DWORD PTR __First$[esp-4]
  00004	8b 4c 24 08	 mov	 ecx, DWORD PTR __Last$[esp-4]
  00008	3b c1		 cmp	 eax, ecx
  0000a	74 11		 je	 SHORT $L192100
  0000c	8b 54 24 0c	 mov	 edx, DWORD PTR __Val$[esp-4]
  00010	56		 push	 esi
$L192098:

; 1136 : 		*_First = _Val;

  00011	8b 32		 mov	 esi, DWORD PTR [edx]
  00013	89 30		 mov	 DWORD PTR [eax], esi
  00015	83 c0 04	 add	 eax, 4
  00018	3b c1		 cmp	 eax, ecx
  0001a	75 f5		 jne	 SHORT $L192098
  0001c	5e		 pop	 esi
$L192100:

; 1137 : 	}

  0001d	c3		 ret	 0
??$fill@PAPAVCCouple@@PAV1@@std@@YAXPAPAVCCouple@@0ABQAV1@@Z ENDP ; std::fill<CCouple * *,CCouple *>
_TEXT	ENDS
PUBLIC	??$_Allocate@PAVCCouple@@@std@@YAPAPAVCCouple@@IPAPAV1@@Z ; std::_Allocate<CCouple *>
; Function compile flags: /Ogty
; File c:\program files\microsoft visual studio .net 2003\vc7\include\xmemory
;	COMDAT ??$_Allocate@PAVCCouple@@@std@@YAPAPAVCCouple@@IPAPAV1@@Z
_TEXT	SEGMENT
__Count$ = 8						; size = 4
___formal$ = 12						; size = 4
??$_Allocate@PAVCCouple@@@std@@YAPAPAVCCouple@@IPAPAV1@@Z PROC NEAR ; std::_Allocate<CCouple *>, COMDAT

; 34   : 	return ((_Ty _FARQ *)operator new(_Count * sizeof (_Ty)));

  00000	8b 44 24 04	 mov	 eax, DWORD PTR __Count$[esp-4]
  00004	8d 0c 85 00 00
	00 00		 lea	 ecx, DWORD PTR [eax*4]
  0000b	51		 push	 ecx
  0000c	e8 00 00 00 00	 call	 ??2@YAPAXI@Z		; operator new
  00011	83 c4 04	 add	 esp, 4

; 35   : 	}

  00014	c3		 ret	 0
??$_Allocate@PAVCCouple@@@std@@YAPAPAVCCouple@@IPAPAV1@@Z ENDP ; std::_Allocate<CCouple *>
_TEXT	ENDS
PUBLIC	??$fill@PAU_COUPLE_ITEM@@U1@@std@@YAXPAU_COUPLE_ITEM@@0ABU1@@Z ; std::fill<_COUPLE_ITEM *,_COUPLE_ITEM>
; Function compile flags: /Ogty
; File c:\program files\microsoft visual studio .net 2003\vc7\include\xutility
;	COMDAT ??$fill@PAU_COUPLE_ITEM@@U1@@std@@YAXPAU_COUPLE_ITEM@@0ABU1@@Z
_TEXT	SEGMENT
__First$ = 8						; size = 4
__Last$ = 12						; size = 4
__Val$ = 16						; size = 4
??$fill@PAU_COUPLE_ITEM@@U1@@std@@YAXPAU_COUPLE_ITEM@@0ABU1@@Z PROC NEAR ; std::fill<_COUPLE_ITEM *,_COUPLE_ITEM>, COMDAT

; 1135 : 	for (; _First != _Last; ++_First)

  00000	8b 44 24 04	 mov	 eax, DWORD PTR __First$[esp-4]
  00004	8b 4c 24 08	 mov	 ecx, DWORD PTR __Last$[esp-4]
  00008	3b c1		 cmp	 eax, ecx
  0000a	74 31		 je	 SHORT $L192136
  0000c	8b 54 24 0c	 mov	 edx, DWORD PTR __Val$[esp-4]
  00010	53		 push	 ebx
  00011	56		 push	 esi
  00012	57		 push	 edi
$L192134:

; 1136 : 		*_First = _Val;

  00013	8b f2		 mov	 esi, edx
  00015	8b 1e		 mov	 ebx, DWORD PTR [esi]
  00017	8b f8		 mov	 edi, eax
  00019	89 1f		 mov	 DWORD PTR [edi], ebx
  0001b	8b 5e 04	 mov	 ebx, DWORD PTR [esi+4]
  0001e	89 5f 04	 mov	 DWORD PTR [edi+4], ebx
  00021	8b 5e 08	 mov	 ebx, DWORD PTR [esi+8]
  00024	89 5f 08	 mov	 DWORD PTR [edi+8], ebx
  00027	8b 5e 0c	 mov	 ebx, DWORD PTR [esi+12]
  0002a	89 5f 0c	 mov	 DWORD PTR [edi+12], ebx
  0002d	8b 76 10	 mov	 esi, DWORD PTR [esi+16]
  00030	83 c0 14	 add	 eax, 20			; 00000014H
  00033	3b c1		 cmp	 eax, ecx
  00035	89 77 10	 mov	 DWORD PTR [edi+16], esi
  00038	75 d9		 jne	 SHORT $L192134
  0003a	5f		 pop	 edi
  0003b	5e		 pop	 esi
  0003c	5b		 pop	 ebx
$L192136:

; 1137 : 	}

  0003d	c3		 ret	 0
??$fill@PAU_COUPLE_ITEM@@U1@@std@@YAXPAU_COUPLE_ITEM@@0ABU1@@Z ENDP ; std::fill<_COUPLE_ITEM *,_COUPLE_ITEM>
_TEXT	ENDS
PUBLIC	??$?0U?$pair@$$CBKPAVCCouple@@@std@@@?$allocator@PAU_Node@?$_Tree_nod@V?$_Tmap_traits@KPAVCCouple@@U?$less@K@std@@V?$allocator@U?$pair@$$CBKPAVCCouple@@@std@@@3@$0A@@std@@@std@@@std@@QAE@ABV?$allocator@U?$pair@$$CBKPAVCCouple@@@std@@@1@@Z ; std::allocator<std::_Tree_nod<std::_Tmap_traits<unsigned long,CCouple *,std::less<unsigned long>,std::allocator<std::pair<unsigned long const ,CCouple *> >,0> >::_Node *>::allocator<std::_Tree_nod<std::_Tmap_traits<unsigned long,CCouple *,std::less<unsigned long>,std::allocator<std::pair<unsigned long const ,CCouple *> >,0> >::_Node *><std::pair<unsigned long const ,CCouple *> >
; Function compile flags: /Ogty
; File c:\program files\microsoft visual studio .net 2003\vc7\include\xmemory
;	COMDAT ??$?0U?$pair@$$CBKPAVCCouple@@@std@@@?$allocator@PAU_Node@?$_Tree_nod@V?$_Tmap_traits@KPAVCCouple@@U?$less@K@std@@V?$allocator@U?$pair@$$CBKPAVCCouple@@@std@@@3@$0A@@std@@@std@@@std@@QAE@ABV?$allocator@U?$pair@$$CBKPAVCCouple@@@std@@@1@@Z
_TEXT	SEGMENT
___formal$ = 8						; size = 4
??$?0U?$pair@$$CBKPAVCCouple@@@std@@@?$allocator@PAU_Node@?$_Tree_nod@V?$_Tmap_traits@KPAVCCouple@@U?$less@K@std@@V?$allocator@U?$pair@$$CBKPAVCCouple@@@std@@@3@$0A@@std@@@std@@@std@@QAE@ABV?$allocator@U?$pair@$$CBKPAVCCouple@@@std@@@1@@Z PROC NEAR ; std::allocator<std::_Tree_nod<std::_Tmap_traits<unsigned long,CCouple *,std::less<unsigned long>,std::allocator<std::pair<unsigned long const ,CCouple *> >,0> >::_Node *>::allocator<std::_Tree_nod<std::_Tmap_traits<unsigned long,CCouple *,std::less<unsigned long>,std::allocator<std::pair<unsigned long const ,CCouple *> >,0> >::_Node *><std::pair<unsigned long const ,CCouple *> >, COMDAT
; _this$ = ecx

; 120  : 		allocator(const allocator<_Other>&)

  00000	8b c1		 mov	 eax, ecx

; 121  : 		{	// construct from a related allocator (do nothing)
; 122  : 		}

  00002	c2 04 00	 ret	 4
??$?0U?$pair@$$CBKPAVCCouple@@@std@@@?$allocator@PAU_Node@?$_Tree_nod@V?$_Tmap_traits@KPAVCCouple@@U?$less@K@std@@V?$allocator@U?$pair@$$CBKPAVCCouple@@@std@@@3@$0A@@std@@@std@@@std@@QAE@ABV?$allocator@U?$pair@$$CBKPAVCCouple@@@std@@@1@@Z ENDP ; std::allocator<std::_Tree_nod<std::_Tmap_traits<unsigned long,CCouple *,std::less<unsigned long>,std::allocator<std::pair<unsigned long const ,CCouple *> >,0> >::_Node *>::allocator<std::_Tree_nod<std::_Tmap_traits<unsigned long,CCouple *,std::less<unsigned long>,std::allocator<std::pair<unsigned long const ,CCouple *> >,0> >::_Node *><std::pair<unsigned long const ,CCouple *> >
_TEXT	ENDS
PUBLIC	??$_Allocate@U_Node@?$_Tree_nod@V?$_Tmap_traits@KPAVCCouple@@U?$less@K@std@@V?$allocator@U?$pair@$$CBKPAVCCouple@@@std@@@3@$0A@@std@@@std@@@std@@YAPAU_Node@?$_Tree_nod@V?$_Tmap_traits@KPAVCCouple@@U?$less@K@std@@V?$allocator@U?$pair@$$CBKPAVCCouple@@@std@@@3@$0A@@std@@@0@IPAU120@@Z ; std::_Allocate<std::_Tree_nod<std::_Tmap_traits<unsigned long,CCouple *,std::less<unsigned long>,std::allocator<std::pair<unsigned long const ,CCouple *> >,0> >::_Node>
; Function compile flags: /Ogty
;	COMDAT ??$_Allocate@U_Node@?$_Tree_nod@V?$_Tmap_traits@KPAVCCouple@@U?$less@K@std@@V?$allocator@U?$pair@$$CBKPAVCCouple@@@std@@@3@$0A@@std@@@std@@@std@@YAPAU_Node@?$_Tree_nod@V?$_Tmap_traits@KPAVCCouple@@U?$less@K@std@@V?$allocator@U?$pair@$$CBKPAVCCouple@@@std@@@3@$0A@@std@@@0@IPAU120@@Z
_TEXT	SEGMENT
__Count$ = 8						; size = 4
___formal$ = 12						; size = 4
??$_Allocate@U_Node@?$_Tree_nod@V?$_Tmap_traits@KPAVCCouple@@U?$less@K@std@@V?$allocator@U?$pair@$$CBKPAVCCouple@@@std@@@3@$0A@@std@@@std@@@std@@YAPAU_Node@?$_Tree_nod@V?$_Tmap_traits@KPAVCCouple@@U?$less@K@std@@V?$allocator@U?$pair@$$CBKPAVCCouple@@@std@@@3@$0A@@std@@@0@IPAU120@@Z PROC NEAR ; std::_Allocate<std::_Tree_nod<std::_Tmap_traits<unsigned long,CCouple *,std::less<unsigned long>,std::allocator<std::pair<unsigned long const ,CCouple *> >,0> >::_Node>, COMDAT

; 34   : 	return ((_Ty _FARQ *)operator new(_Count * sizeof (_Ty)));

  00000	8b 44 24 04	 mov	 eax, DWORD PTR __Count$[esp-4]
  00004	8d 04 40	 lea	 eax, DWORD PTR [eax+eax*2]
  00007	c1 e0 03	 shl	 eax, 3
  0000a	50		 push	 eax
  0000b	e8 00 00 00 00	 call	 ??2@YAPAXI@Z		; operator new
  00010	83 c4 04	 add	 esp, 4

; 35   : 	}

  00013	c3		 ret	 0
??$_Allocate@U_Node@?$_Tree_nod@V?$_Tmap_traits@KPAVCCouple@@U?$less@K@std@@V?$allocator@U?$pair@$$CBKPAVCCouple@@@std@@@3@$0A@@std@@@std@@@std@@YAPAU_Node@?$_Tree_nod@V?$_Tmap_traits@KPAVCCouple@@U?$less@K@std@@V?$allocator@U?$pair@$$CBKPAVCCouple@@@std@@@3@$0A@@std@@@0@IPAU120@@Z ENDP ; std::_Allocate<std::_Tree_nod<std::_Tmap_traits<unsigned long,CCouple *,std::less<unsigned long>,std::allocator<std::pair<unsigned long const ,CCouple *> >,0> >::_Node>
_TEXT	ENDS
PUBLIC	??$_Allocate@U_COUPLE_ITEM@@@std@@YAPAU_COUPLE_ITEM@@IPAU1@@Z ; std::_Allocate<_COUPLE_ITEM>
; Function compile flags: /Ogty
;	COMDAT ??$_Allocate@U_COUPLE_ITEM@@@std@@YAPAU_COUPLE_ITEM@@IPAU1@@Z
_TEXT	SEGMENT
__Count$ = 8						; size = 4
___formal$ = 12						; size = 4
??$_Allocate@U_COUPLE_ITEM@@@std@@YAPAU_COUPLE_ITEM@@IPAU1@@Z PROC NEAR ; std::_Allocate<_COUPLE_ITEM>, COMDAT

; 34   : 	return ((_Ty _FARQ *)operator new(_Count * sizeof (_Ty)));

  00000	8b 44 24 04	 mov	 eax, DWORD PTR __Count$[esp-4]
  00004	8d 04 80	 lea	 eax, DWORD PTR [eax+eax*4]
  00007	c1 e0 02	 shl	 eax, 2
  0000a	50		 push	 eax
  0000b	e8 00 00 00 00	 call	 ??2@YAPAXI@Z		; operator new
  00010	83 c4 04	 add	 esp, 4

; 35   : 	}

  00013	c3		 ret	 0
??$_Allocate@U_COUPLE_ITEM@@@std@@YAPAU_COUPLE_ITEM@@IPAU1@@Z ENDP ; std::_Allocate<_COUPLE_ITEM>
_TEXT	ENDS
PUBLIC	??$?0U?$pair@$$CBKPAVCCouple@@@std@@@?$allocator@U_Node@?$_Tree_nod@V?$_Tmap_traits@KPAVCCouple@@U?$less@K@std@@V?$allocator@U?$pair@$$CBKPAVCCouple@@@std@@@3@$0A@@std@@@std@@@std@@QAE@ABV?$allocator@U?$pair@$$CBKPAVCCouple@@@std@@@1@@Z ; std::allocator<std::_Tree_nod<std::_Tmap_traits<unsigned long,CCouple *,std::less<unsigned long>,std::allocator<std::pair<unsigned long const ,CCouple *> >,0> >::_Node>::allocator<std::_Tree_nod<std::_Tmap_traits<unsigned long,CCouple *,std::less<unsigned long>,std::allocator<std::pair<unsigned long const ,CCouple *> >,0> >::_Node><std::pair<unsigned long const ,CCouple *> >
; Function compile flags: /Ogty
;	COMDAT ??$?0U?$pair@$$CBKPAVCCouple@@@std@@@?$allocator@U_Node@?$_Tree_nod@V?$_Tmap_traits@KPAVCCouple@@U?$less@K@std@@V?$allocator@U?$pair@$$CBKPAVCCouple@@@std@@@3@$0A@@std@@@std@@@std@@QAE@ABV?$allocator@U?$pair@$$CBKPAVCCouple@@@std@@@1@@Z
_TEXT	SEGMENT
___formal$ = 8						; size = 4
??$?0U?$pair@$$CBKPAVCCouple@@@std@@@?$allocator@U_Node@?$_Tree_nod@V?$_Tmap_traits@KPAVCCouple@@U?$less@K@std@@V?$allocator@U?$pair@$$CBKPAVCCouple@@@std@@@3@$0A@@std@@@std@@@std@@QAE@ABV?$allocator@U?$pair@$$CBKPAVCCouple@@@std@@@1@@Z PROC NEAR ; std::allocator<std::_Tree_nod<std::_Tmap_traits<unsigned long,CCouple *,std::less<unsigned long>,std::allocator<std::pair<unsigned long const ,CCouple *> >,0> >::_Node>::allocator<std::_Tree_nod<std::_Tmap_traits<unsigned long,CCouple *,std::less<unsigned long>,std::allocator<std::pair<unsigned long const ,CCouple *> >,0> >::_Node><std::pair<unsigned long const ,CCouple *> >, COMDAT
; _this$ = ecx

; 120  : 		allocator(const allocator<_Other>&)

  00000	8b c1		 mov	 eax, ecx

; 121  : 		{	// construct from a related allocator (do nothing)
; 122  : 		}

  00002	c2 04 00	 ret	 4
??$?0U?$pair@$$CBKPAVCCouple@@@std@@@?$allocator@U_Node@?$_Tree_nod@V?$_Tmap_traits@KPAVCCouple@@U?$less@K@std@@V?$allocator@U?$pair@$$CBKPAVCCouple@@@std@@@3@$0A@@std@@@std@@@std@@QAE@ABV?$allocator@U?$pair@$$CBKPAVCCouple@@@std@@@1@@Z ENDP ; std::allocator<std::_Tree_nod<std::_Tmap_traits<unsigned long,CCouple *,std::less<unsigned long>,std::allocator<std::pair<unsigned long const ,CCouple *> >,0> >::_Node>::allocator<std::_Tree_nod<std::_Tmap_traits<unsigned long,CCouple *,std::less<unsigned long>,std::allocator<std::pair<unsigned long const ,CCouple *> >,0> >::_Node><std::pair<unsigned long const ,CCouple *> >
_TEXT	ENDS
PUBLIC	??$_Construct@PAU_Node@?$_Tree_nod@V?$_Tmap_traits@KPAVCCouple@@U?$less@K@std@@V?$allocator@U?$pair@$$CBKPAVCCouple@@@std@@@3@$0A@@std@@@std@@PAU123@@std@@YAXPAPAU_Node@?$_Tree_nod@V?$_Tmap_traits@KPAVCCouple@@U?$less@K@std@@V?$allocator@U?$pair@$$CBKPAVCCouple@@@std@@@3@$0A@@std@@@0@ABQAU120@@Z ; std::_Construct<std::_Tree_nod<std::_Tmap_traits<unsigned long,CCouple *,std::less<unsigned long>,std::allocator<std::pair<unsigned long const ,CCouple *> >,0> >::_Node *,std::_Tree_nod<std::_Tmap_traits<unsigned long,CCouple *,std::less<unsigned long>,std::allocator<std::pair<unsigned long const ,CCouple *> >,0> >::_Node *>
; Function compile flags: /Ogty
;	COMDAT ??$_Construct@PAU_Node@?$_Tree_nod@V?$_Tmap_traits@KPAVCCouple@@U?$less@K@std@@V?$allocator@U?$pair@$$CBKPAVCCouple@@@std@@@3@$0A@@std@@@std@@PAU123@@std@@YAXPAPAU_Node@?$_Tree_nod@V?$_Tmap_traits@KPAVCCouple@@U?$less@K@std@@V?$allocator@U?$pair@$$CBKPAVCCouple@@@std@@@3@$0A@@std@@@0@ABQAU120@@Z
_TEXT	SEGMENT
__Ptr$ = 8						; size = 4
__Val$ = 12						; size = 4
??$_Construct@PAU_Node@?$_Tree_nod@V?$_Tmap_traits@KPAVCCouple@@U?$less@K@std@@V?$allocator@U?$pair@$$CBKPAVCCouple@@@std@@@3@$0A@@std@@@std@@PAU123@@std@@YAXPAPAU_Node@?$_Tree_nod@V?$_Tmap_traits@KPAVCCouple@@U?$less@K@std@@V?$allocator@U?$pair@$$CBKPAVCCouple@@@std@@@3@$0A@@std@@@0@ABQAU120@@Z PROC NEAR ; std::_Construct<std::_Tree_nod<std::_Tmap_traits<unsigned long,CCouple *,std::less<unsigned long>,std::allocator<std::pair<unsigned long const ,CCouple *> >,0> >::_Node *,std::_Tree_nod<std::_Tmap_traits<unsigned long,CCouple *,std::less<unsigned long>,std::allocator<std::pair<unsigned long const ,CCouple *> >,0> >::_Node *>, COMDAT

; 42   : 	new ((void _FARQ *)_Ptr) _T1(_Val);

  00000	8b 44 24 04	 mov	 eax, DWORD PTR __Ptr$[esp-4]
  00004	85 c0		 test	 eax, eax
  00006	74 08		 je	 SHORT $L194248
  00008	8b 4c 24 08	 mov	 ecx, DWORD PTR __Val$[esp-4]
  0000c	8b 11		 mov	 edx, DWORD PTR [ecx]
  0000e	89 10		 mov	 DWORD PTR [eax], edx
$L194248:

; 43   : 	}

  00010	c3		 ret	 0
??$_Construct@PAU_Node@?$_Tree_nod@V?$_Tmap_traits@KPAVCCouple@@U?$less@K@std@@V?$allocator@U?$pair@$$CBKPAVCCouple@@@std@@@3@$0A@@std@@@std@@PAU123@@std@@YAXPAPAU_Node@?$_Tree_nod@V?$_Tmap_traits@KPAVCCouple@@U?$less@K@std@@V?$allocator@U?$pair@$$CBKPAVCCouple@@@std@@@3@$0A@@std@@@0@ABQAU120@@Z ENDP ; std::_Construct<std::_Tree_nod<std::_Tmap_traits<unsigned long,CCouple *,std::less<unsigned long>,std::allocator<std::pair<unsigned long const ,CCouple *> >,0> >::_Node *,std::_Tree_nod<std::_Tmap_traits<unsigned long,CCouple *,std::less<unsigned long>,std::allocator<std::pair<unsigned long const ,CCouple *> >,0> >::_Node *>
_TEXT	ENDS
PUBLIC	??$_Iter_cat@Viterator@?$vector@HV?$allocator@H@std@@@std@@@std@@YA?AUrandom_access_iterator_tag@0@ABViterator@?$vector@HV?$allocator@H@std@@@0@@Z ; std::_Iter_cat<std::vector<int,std::allocator<int> >::iterator>
; Function compile flags: /Ogty
; File c:\program files\microsoft visual studio .net 2003\vc7\include\xutility
;	COMDAT ??$_Iter_cat@Viterator@?$vector@HV?$allocator@H@std@@@std@@@std@@YA?AUrandom_access_iterator_tag@0@ABViterator@?$vector@HV?$allocator@H@std@@@0@@Z
_TEXT	SEGMENT
___$ReturnUdt$ = 8					; size = 4
___formal$ = 12						; size = 4
??$_Iter_cat@Viterator@?$vector@HV?$allocator@H@std@@@std@@@std@@YA?AUrandom_access_iterator_tag@0@ABViterator@?$vector@HV?$allocator@H@std@@@0@@Z PROC NEAR ; std::_Iter_cat<std::vector<int,std::allocator<int> >::iterator>, COMDAT

; 202  : 	typename iterator_traits<_Iter>::iterator_category _Cat;
; 203  : 	return (_Cat);

  00000	8b 44 24 04	 mov	 eax, DWORD PTR ___$ReturnUdt$[esp-4]

; 204  : 	}

  00004	c3		 ret	 0
??$_Iter_cat@Viterator@?$vector@HV?$allocator@H@std@@@std@@@std@@YA?AUrandom_access_iterator_tag@0@ABViterator@?$vector@HV?$allocator@H@std@@@0@@Z ENDP ; std::_Iter_cat<std::vector<int,std::allocator<int> >::iterator>
_TEXT	ENDS
PUBLIC	??$_Iter_cat@Viterator@?$_Tree@V?$_Tmap_traits@KPAVCCouple@@U?$less@K@std@@V?$allocator@U?$pair@$$CBKPAVCCouple@@@std@@@3@$0A@@std@@@std@@@std@@YA?AUbidirectional_iterator_tag@0@ABViterator@?$_Tree@V?$_Tmap_traits@KPAVCCouple@@U?$less@K@std@@V?$allocator@U?$pair@$$CBKPAVCCouple@@@std@@@3@$0A@@std@@@0@@Z ; std::_Iter_cat<std::_Tree<std::_Tmap_traits<unsigned long,CCouple *,std::less<unsigned long>,std::allocator<std::pair<unsigned long const ,CCouple *> >,0> >::iterator>
; Function compile flags: /Ogty
;	COMDAT ??$_Iter_cat@Viterator@?$_Tree@V?$_Tmap_traits@KPAVCCouple@@U?$less@K@std@@V?$allocator@U?$pair@$$CBKPAVCCouple@@@std@@@3@$0A@@std@@@std@@@std@@YA?AUbidirectional_iterator_tag@0@ABViterator@?$_Tree@V?$_Tmap_traits@KPAVCCouple@@U?$less@K@std@@V?$allocator@U?$pair@$$CBKPAVCCouple@@@std@@@3@$0A@@std@@@0@@Z
_TEXT	SEGMENT
___$ReturnUdt$ = 8					; size = 4
___formal$ = 12						; size = 4
??$_Iter_cat@Viterator@?$_Tree@V?$_Tmap_traits@KPAVCCouple@@U?$less@K@std@@V?$allocator@U?$pair@$$CBKPAVCCouple@@@std@@@3@$0A@@std@@@std@@@std@@YA?AUbidirectional_iterator_tag@0@ABViterator@?$_Tree@V?$_Tmap_traits@KPAVCCouple@@U?$less@K@std@@V?$allocator@U?$pair@$$CBKPAVCCouple@@@std@@@3@$0A@@std@@@0@@Z PROC NEAR ; std::_Iter_cat<std::_Tree<std::_Tmap_traits<unsigned long,CCouple *,std::less<unsigned long>,std::allocator<std::pair<unsigned long const ,CCouple *> >,0> >::iterator>, COMDAT

; 202  : 	typename iterator_traits<_Iter>::iterator_category _Cat;
; 203  : 	return (_Cat);

  00000	8b 44 24 04	 mov	 eax, DWORD PTR ___$ReturnUdt$[esp-4]

; 204  : 	}

  00004	c3		 ret	 0
??$_Iter_cat@Viterator@?$_Tree@V?$_Tmap_traits@KPAVCCouple@@U?$less@K@std@@V?$allocator@U?$pair@$$CBKPAVCCouple@@@std@@@3@$0A@@std@@@std@@@std@@YA?AUbidirectional_iterator_tag@0@ABViterator@?$_Tree@V?$_Tmap_traits@KPAVCCouple@@U?$less@K@std@@V?$allocator@U?$pair@$$CBKPAVCCouple@@@std@@@3@$0A@@std@@@0@@Z ENDP ; std::_Iter_cat<std::_Tree<std::_Tmap_traits<unsigned long,CCouple *,std::less<unsigned long>,std::allocator<std::pair<unsigned long const ,CCouple *> >,0> >::iterator>
_TEXT	ENDS
PUBLIC	??$_Ptr_cat@VCCouple@@@std@@YA?AU_Scalar_ptr_iterator_tag@0@PAPAVCCouple@@0@Z ; std::_Ptr_cat<CCouple>
; Function compile flags: /Ogty
;	COMDAT ??$_Ptr_cat@VCCouple@@@std@@YA?AU_Scalar_ptr_iterator_tag@0@PAPAVCCouple@@0@Z
_TEXT	SEGMENT
__Cat$ = -1						; size = 1
___formal$ = 8						; size = 4
___formal$ = 12						; size = 4
??$_Ptr_cat@VCCouple@@@std@@YA?AU_Scalar_ptr_iterator_tag@0@PAPAVCCouple@@0@Z PROC NEAR ; std::_Ptr_cat<CCouple>, COMDAT

; 218  : 	{	// return pointer category from pointer to pointer arguments

  00000	51		 push	 ecx

; 219  : 	_Scalar_ptr_iterator_tag _Cat;
; 220  : 	return (_Cat);

  00001	8a 44 24 03	 mov	 al, BYTE PTR __Cat$[esp+4]

; 221  : 	}

  00005	59		 pop	 ecx
  00006	c3		 ret	 0
??$_Ptr_cat@VCCouple@@@std@@YA?AU_Scalar_ptr_iterator_tag@0@PAPAVCCouple@@0@Z ENDP ; std::_Ptr_cat<CCouple>
_TEXT	ENDS
PUBLIC	??$_Copy_opt@PAPAVCCouple@@PAPAV1@@std@@YAPAPAVCCouple@@PAPAV1@00U_Scalar_ptr_iterator_tag@0@@Z ; std::_Copy_opt<CCouple * *,CCouple * *>
EXTRN	_memmove:NEAR
; Function compile flags: /Ogty
;	COMDAT ??$_Copy_opt@PAPAVCCouple@@PAPAV1@@std@@YAPAPAVCCouple@@PAPAV1@00U_Scalar_ptr_iterator_tag@0@@Z
_TEXT	SEGMENT
__First$ = 8						; size = 4
__Last$ = 12						; size = 4
__Dest$ = 16						; size = 4
___formal$ = 20						; size = 1
??$_Copy_opt@PAPAVCCouple@@PAPAV1@@std@@YAPAPAVCCouple@@PAPAV1@00U_Scalar_ptr_iterator_tag@0@@Z PROC NEAR ; std::_Copy_opt<CCouple * *,CCouple * *>, COMDAT

; 1031 : 	ptrdiff_t _Off = _Last - _First;	// NB: non-overlapping move

  00000	8b 4c 24 04	 mov	 ecx, DWORD PTR __First$[esp-4]
  00004	8b 44 24 08	 mov	 eax, DWORD PTR __Last$[esp-4]
  00008	2b c1		 sub	 eax, ecx
  0000a	56		 push	 esi
  0000b	c1 f8 02	 sar	 eax, 2

; 1032 : 	return ((_OutIt)::memmove(&*_Dest, &*_First,
; 1033 : 		_Off * sizeof (*_First)) + _Off);

  0000e	8d 34 85 00 00
	00 00		 lea	 esi, DWORD PTR [eax*4]
  00015	8b 44 24 10	 mov	 eax, DWORD PTR __Dest$[esp]
  00019	56		 push	 esi
  0001a	51		 push	 ecx
  0001b	50		 push	 eax
  0001c	e8 00 00 00 00	 call	 _memmove
  00021	83 c4 0c	 add	 esp, 12			; 0000000cH
  00024	03 c6		 add	 eax, esi
  00026	5e		 pop	 esi

; 1034 : 	}

  00027	c3		 ret	 0
??$_Copy_opt@PAPAVCCouple@@PAPAV1@@std@@YAPAPAVCCouple@@PAPAV1@00U_Scalar_ptr_iterator_tag@0@@Z ENDP ; std::_Copy_opt<CCouple * *,CCouple * *>
_TEXT	ENDS
PUBLIC	??$_Destroy_range@PAVCCouple@@V?$allocator@PAVCCouple@@@std@@@std@@YAXPAPAVCCouple@@0AAV?$allocator@PAVCCouple@@@0@U_Scalar_ptr_iterator_tag@0@@Z ; std::_Destroy_range<CCouple *,std::allocator<CCouple *> >
; Function compile flags: /Ogty
; File c:\program files\microsoft visual studio .net 2003\vc7\include\xmemory
;	COMDAT ??$_Destroy_range@PAVCCouple@@V?$allocator@PAVCCouple@@@std@@@std@@YAXPAPAVCCouple@@0AAV?$allocator@PAVCCouple@@@0@U_Scalar_ptr_iterator_tag@0@@Z
_TEXT	SEGMENT
__First$ = 8						; size = 4
__Last$ = 12						; size = 4
__Al$ = 16						; size = 4
___formal$ = 20						; size = 1
??$_Destroy_range@PAVCCouple@@V?$allocator@PAVCCouple@@@std@@@std@@YAXPAPAVCCouple@@0AAV?$allocator@PAVCCouple@@@0@U_Scalar_ptr_iterator_tag@0@@Z PROC NEAR ; std::_Destroy_range<CCouple *,std::allocator<CCouple *> >, COMDAT

; 234  : 	}

  00000	c3		 ret	 0
??$_Destroy_range@PAVCCouple@@V?$allocator@PAVCCouple@@@std@@@std@@YAXPAPAVCCouple@@0AAV?$allocator@PAVCCouple@@@0@U_Scalar_ptr_iterator_tag@0@@Z ENDP ; std::_Destroy_range<CCouple *,std::allocator<CCouple *> >
_TEXT	ENDS
PUBLIC	??$_Ptr_cat@PAU_COUPLE_ITEM@@PAU1@@std@@YA?AU_Nonscalar_ptr_iterator_tag@0@AAPAU_COUPLE_ITEM@@0@Z ; std::_Ptr_cat<_COUPLE_ITEM *,_COUPLE_ITEM *>
; Function compile flags: /Ogty
; File c:\program files\microsoft visual studio .net 2003\vc7\include\xutility
;	COMDAT ??$_Ptr_cat@PAU_COUPLE_ITEM@@PAU1@@std@@YA?AU_Nonscalar_ptr_iterator_tag@0@AAPAU_COUPLE_ITEM@@0@Z
_TEXT	SEGMENT
__Cat$ = -1						; size = 1
___formal$ = 8						; size = 4
___formal$ = 12						; size = 4
??$_Ptr_cat@PAU_COUPLE_ITEM@@PAU1@@std@@YA?AU_Nonscalar_ptr_iterator_tag@0@AAPAU_COUPLE_ITEM@@0@Z PROC NEAR ; std::_Ptr_cat<_COUPLE_ITEM *,_COUPLE_ITEM *>, COMDAT

; 211  : 	{	// return pointer category from arbitrary arguments

  00000	51		 push	 ecx

; 212  : 	_Nonscalar_ptr_iterator_tag _Cat;
; 213  : 	return (_Cat);

  00001	8a 44 24 03	 mov	 al, BYTE PTR __Cat$[esp+4]

; 214  : 	}

  00005	59		 pop	 ecx
  00006	c3		 ret	 0
??$_Ptr_cat@PAU_COUPLE_ITEM@@PAU1@@std@@YA?AU_Nonscalar_ptr_iterator_tag@0@AAPAU_COUPLE_ITEM@@0@Z ENDP ; std::_Ptr_cat<_COUPLE_ITEM *,_COUPLE_ITEM *>
_TEXT	ENDS
PUBLIC	??$_Destroy_range@HV?$allocator@H@std@@@std@@YAXPAH0AAV?$allocator@H@0@U_Scalar_ptr_iterator_tag@0@@Z ; std::_Destroy_range<int,std::allocator<int> >
; Function compile flags: /Ogty
; File c:\program files\microsoft visual studio .net 2003\vc7\include\xmemory
;	COMDAT ??$_Destroy_range@HV?$allocator@H@std@@@std@@YAXPAH0AAV?$allocator@H@0@U_Scalar_ptr_iterator_tag@0@@Z
_TEXT	SEGMENT
__First$ = 8						; size = 4
__Last$ = 12						; size = 4
__Al$ = 16						; size = 4
___formal$ = 20						; size = 1
