; Listing generated by Microsoft (R) Optimizing Compiler Version 13.10.6030 

	TITLE	.\couplehelper.cpp
	.386P
include listing.inc
if @Version gt 510
.model FLAT
else
_TEXT	SEGMENT PARA USE32 PUBLIC 'CODE'
_TEXT	ENDS
_DATA	SEGMENT DWORD USE32 PUBLIC 'DATA'
_DATA	ENDS
CONST	SEGMENT DWORD USE32 PUBLIC 'CONST'
CONST	ENDS
_BSS	SEGMENT DWORD USE32 PUBLIC 'BSS'
_BSS	ENDS
$$SYMBOLS	SEGMENT BYTE USE32 'DEBSYM'
$$SYMBOLS	ENDS
_TLS	SEGMENT DWORD USE32 PUBLIC 'TLS'
_TLS	ENDS
;	COMDAT ??_C@_0BC@MOGJFHKK@tr1?3?3bad_weak_ptr?$AA@
CONST	SEGMENT DWORD USE32 PUBLIC 'CONST'
CONST	ENDS
;	COMDAT ??_C@_0BD@IOHNFIBA@SetLOD?5?3?5lv?$DN?$CFd?0?5?$CFs?$AA@
CONST	SEGMENT DWORD USE32 PUBLIC 'CONST'
CONST	ENDS
;	COMDAT ??_C@_02PCIJFNDE@?$AN?6?$AA@
CONST	SEGMENT DWORD USE32 PUBLIC 'CONST'
CONST	ENDS
;	COMDAT ??_C@_01DNKMNLPK@?$HM?$AA@
CONST	SEGMENT DWORD USE32 PUBLIC 'CONST'
CONST	ENDS
;	COMDAT ??_C@_0BE@LAHMMJCP@uspRestoreCouple?5?$CFd?$AA@
CONST	SEGMENT DWORD USE32 PUBLIC 'CONST'
CONST	ENDS
;	COMDAT ??_C@_0CC@GMJLNCFC@couldn?8t?5execute?5uspRestoreCoupl@
CONST	SEGMENT DWORD USE32 PUBLIC 'CONST'
CONST	ENDS
;	COMDAT ??_C@_0M@ODFMJGEL@nExperience?$AA@
CONST	SEGMENT DWORD USE32 PUBLIC 'CONST'
CONST	ENDS
;	COMDAT ??_C@_07LLHBANFB@idFirst?$AA@
CONST	SEGMENT DWORD USE32 PUBLIC 'CONST'
CONST	ENDS
;	COMDAT ??_C@_08JJMLNGN@idSecond?$AA@
CONST	SEGMENT DWORD USE32 PUBLIC 'CONST'
CONST	ENDS
;	COMDAT ??_C@_0BF@EEKILEKJ@uspRestorePropose?5?$CFd?$AA@
CONST	SEGMENT DWORD USE32 PUBLIC 'CONST'
CONST	ENDS
;	COMDAT ??_C@_0CD@MBONKOPP@couldn?8t?5execute?5uspRestorePropo@
CONST	SEGMENT DWORD USE32 PUBLIC 'CONST'
CONST	ENDS
;	COMDAT ??_C@_0L@LMOLFJKD@idProposer?$AA@
CONST	SEGMENT DWORD USE32 PUBLIC 'CONST'
CONST	ENDS
;	COMDAT ??_C@_08LHGALILC@tPropose?$AA@
CONST	SEGMENT DWORD USE32 PUBLIC 'CONST'
CONST	ENDS
;	COMDAT ??_C@_0BJ@HLENHNMF@uspAddPropose?5?$CFd?0?5?$CFd?0?5?$CFd?$AA@
CONST	SEGMENT DWORD USE32 PUBLIC 'CONST'
CONST	ENDS
;	COMDAT ??_C@_0BP@OOKEDFAC@couldn?8t?5execute?5uspAddPropose?$AA@
CONST	SEGMENT DWORD USE32 PUBLIC 'CONST'
CONST	ENDS
;	COMDAT ??_C@_0BI@JKNBOMDJ@uspDeletePropose?5?$CFd?0?5?$CFd?$AA@
CONST	SEGMENT DWORD USE32 PUBLIC 'CONST'
CONST	ENDS
;	COMDAT ??_C@_0CC@OACJEGKC@couldn?8t?5execute?5uspDeletePropos@
CONST	SEGMENT DWORD USE32 PUBLIC 'CONST'
CONST	ENDS
;	COMDAT ??_C@_0BI@MMJOPPGN@uspAddCouple?5?$CFd?0?5?$CFd?0?5?$CFd?$AA@
CONST	SEGMENT DWORD USE32 PUBLIC 'CONST'
CONST	ENDS
;	COMDAT ??_C@_0BO@EKHMKIGO@couldn?8t?5execute?5uspAddCouple?$AA@
CONST	SEGMENT DWORD USE32 PUBLIC 'CONST'
CONST	ENDS
;	COMDAT ??_C@_0BH@CFAHFKMO@uspDeleteCouple?5?$CFd?0?5?$CFd?$AA@
CONST	SEGMENT DWORD USE32 PUBLIC 'CONST'
CONST	ENDS
;	COMDAT ??_C@_0CB@BMIHDKGG@couldn?8t?5execute?5uspDeleteCouple@
CONST	SEGMENT DWORD USE32 PUBLIC 'CONST'
CONST	ENDS
;	COMDAT ??_C@_0CC@HOAMCAAD@uspAddCoupleExperience?5?$CFd?0?5?$CFd?0?5?$CF@
CONST	SEGMENT DWORD USE32 PUBLIC 'CONST'
CONST	ENDS
;	COMDAT ??_C@_0CI@CNMDKKBC@couldn?8t?5execute?5uspAddCoupleExp@
CONST	SEGMENT DWORD USE32 PUBLIC 'CONST'
CONST	ENDS
;	COMDAT ??_C@_0CL@FHEKPCEP@?6T?3?5CCoupleHelper?4OnAddExperienc@
CONST	SEGMENT DWORD USE32 PUBLIC 'CONST'
CONST	ENDS
;	COMDAT ??_C@_0BL@NAJDJCKD@?6T?3?5CCoupleHelper?4OnTimer?6?$AA@
CONST	SEGMENT DWORD USE32 PUBLIC 'CONST'
CONST	ENDS
;	COMDAT ??_C@_0CF@OCNFFHFP@?6T?3?5CCoupleHelper?4OnPropose?3?5?$CFd?0@
CONST	SEGMENT DWORD USE32 PUBLIC 'CONST'
CONST	ENDS
;	COMDAT ??_C@_0CE@DPENKOBI@?6T?3?5CCoupleHelper?4OnCouple?3?5?$CFd?0?5@
CONST	SEGMENT DWORD USE32 PUBLIC 'CONST'
CONST	ENDS
;	COMDAT ??_C@_0CC@POOPMPNO@?6T?3?5CCoupleHelper?4OnDecouple?3?5?$CFd@
CONST	SEGMENT DWORD USE32 PUBLIC 'CONST'
CONST	ENDS
text$yd	SEGMENT PARA USE32 PUBLIC 'CODE'
text$yd	ENDS
xdata$x	SEGMENT DWORD USE32 PUBLIC 'CONST'
xdata$x	ENDS
;	COMDAT ?GetQueryObject@CDbController@@QAEPAVCQuery@@XZ
_TEXT	SEGMENT PARA USE32 PUBLIC 'CODE'
_TEXT	ENDS
;	COMDAT ??1ITestCase@@UAE@XZ
_TEXT	SEGMENT PARA USE32 PUBLIC 'CODE'
_TEXT	ENDS
;	COMDAT ??_GITestCase@@UAEPAXI@Z
_TEXT	SEGMENT PARA USE32 PUBLIC 'CODE'
_TEXT	ENDS
;	COMDAT ??_GCTestCaseMgr@@UAEPAXI@Z
_TEXT	SEGMENT PARA USE32 PUBLIC 'CODE'
_TEXT	ENDS
;	COMDAT ??1CCoupleTestCase@@UAE@XZ
_TEXT	SEGMENT PARA USE32 PUBLIC 'CODE'
_TEXT	ENDS
;	COMDAT ??_GCCoupleTestCase@@UAEPAXI@Z
_TEXT	SEGMENT PARA USE32 PUBLIC 'CODE'
_TEXT	ENDS
;	COMDAT ??1CCouple@@UAE@XZ
_TEXT	SEGMENT PARA USE32 PUBLIC 'CODE'
_TEXT	ENDS
;	COMDAT ?GetFirst@CCouple@@QAEKXZ
_TEXT	SEGMENT PARA USE32 PUBLIC 'CODE'
_TEXT	ENDS
;	COMDAT ?GetSecond@CCouple@@QAEKXZ
_TEXT	SEGMENT PARA USE32 PUBLIC 'CODE'
_TEXT	ENDS
;	COMDAT ??_GCCouple@@UAEPAXI@Z
_TEXT	SEGMENT PARA USE32 PUBLIC 'CODE'
_TEXT	ENDS
;	COMDAT ?AddPropose@CCoupleHelper@@QAE_NKJ@Z
_TEXT	SEGMENT PARA USE32 PUBLIC 'CODE'
_TEXT	ENDS
;	COMDAT ?Couple@CCoupleHelper@@QAEXPAVCCouple@@@Z
_TEXT	SEGMENT PARA USE32 PUBLIC 'CODE'
_TEXT	ENDS
;	COMDAT ?what@bad_weak_ptr@boost@@UBEPBDXZ
_TEXT	SEGMENT PARA USE32 PUBLIC 'CODE'
_TEXT	ENDS
;	COMDAT ??1sp_counted_base@detail@boost@@UAE@XZ
_TEXT	SEGMENT PARA USE32 PUBLIC 'CODE'
_TEXT	ENDS
;	COMDAT ?destroy@sp_counted_base@detail@boost@@UAEXXZ
_TEXT	SEGMENT PARA USE32 PUBLIC 'CODE'
_TEXT	ENDS
;	COMDAT ?add_ref_copy@sp_counted_base@detail@boost@@QAEXXZ
_TEXT	SEGMENT PARA USE32 PUBLIC 'CODE'
_TEXT	ENDS
;	COMDAT ?add_ref_lock@sp_counted_base@detail@boost@@QAE_NXZ
_TEXT	SEGMENT PARA USE32 PUBLIC 'CODE'
_TEXT	ENDS
;	COMDAT ?release@sp_counted_base@detail@boost@@QAEXXZ
_TEXT	SEGMENT PARA USE32 PUBLIC 'CODE'
_TEXT	ENDS
;	COMDAT ?weak_add_ref@sp_counted_base@detail@boost@@QAEXXZ
_TEXT	SEGMENT PARA USE32 PUBLIC 'CODE'
_TEXT	ENDS
;	COMDAT ?weak_release@sp_counted_base@detail@boost@@QAEXXZ
_TEXT	SEGMENT PARA USE32 PUBLIC 'CODE'
_TEXT	ENDS
;	COMDAT ?use_count@sp_counted_base@detail@boost@@QBEJXZ
_TEXT	SEGMENT PARA USE32 PUBLIC 'CODE'
_TEXT	ENDS
;	COMDAT ??_Gsp_counted_base@detail@boost@@UAEPAXI@Z
_TEXT	SEGMENT PARA USE32 PUBLIC 'CODE'
_TEXT	ENDS
;	COMDAT ?use_count@shared_count@detail@boost@@QBEJXZ
_TEXT	SEGMENT PARA USE32 PUBLIC 'CODE'
_TEXT	ENDS
;	COMDAT ??0bad_weak_ptr@boost@@QAE@XZ
_TEXT	SEGMENT PARA USE32 PUBLIC 'CODE'
_TEXT	ENDS
;	COMDAT ??1bad_weak_ptr@boost@@UAE@XZ
_TEXT	SEGMENT PARA USE32 PUBLIC 'CODE'
_TEXT	ENDS
;	COMDAT ??_Gbad_weak_ptr@boost@@UAEPAXI@Z
_TEXT	SEGMENT PARA USE32 PUBLIC 'CODE'
_TEXT	ENDS
;	COMDAT ?GetCooltime@CLordSkillComponent@@QAEHXZ
_TEXT	SEGMENT PARA USE32 PUBLIC 'CODE'
_TEXT	ENDS
;	COMDAT ?SetTick@CLordSkillComponent@@QAEXH@Z
_TEXT	SEGMENT PARA USE32 PUBLIC 'CODE'
_TEXT	ENDS
;	COMDAT ??1CLordSkillComponentExecutable@@UAE@XZ
_TEXT	SEGMENT PARA USE32 PUBLIC 'CODE'
_TEXT	ENDS
;	COMDAT ?Use@CLordSkillComponentExecutable@@IAEXXZ
_TEXT	SEGMENT PARA USE32 PUBLIC 'CODE'
_TEXT	ENDS
;	COMDAT ?Execute@CLordSkillComponentExecutable@@UAEXKKPAX@Z
_TEXT	SEGMENT PARA USE32 PUBLIC 'CODE'
_TEXT	ENDS
;	COMDAT ??_GCLordSkillComponentExecutable@@UAEPAXI@Z
_TEXT	SEGMENT PARA USE32 PUBLIC 'CODE'
_TEXT	ENDS
;	COMDAT ?GetDeposit@CCandidate@@QBE_JXZ
_TEXT	SEGMENT PARA USE32 PUBLIC 'CODE'
_TEXT	ENDS
;	COMDAT ?GetVote@CCandidate@@QAEHXZ
_TEXT	SEGMENT PARA USE32 PUBLIC 'CODE'
_TEXT	ENDS
;	COMDAT ?GetCreate@CCandidate@@QAEJXZ
_TEXT	SEGMENT PARA USE32 PUBLIC 'CODE'
_TEXT	ENDS
;	COMDAT ??0CCoupleController@@QAE@PAVCCoupleHelper@@@Z
_TEXT	SEGMENT PARA USE32 PUBLIC 'CODE'
_TEXT	ENDS
;	COMDAT ??_GCCoupleController@@UAEPAXI@Z
_TEXT	SEGMENT PARA USE32 PUBLIC 'CODE'
_TEXT	ENDS
;	COMDAT ??1CCoupleController@@UAE@XZ
_TEXT	SEGMENT PARA USE32 PUBLIC 'CODE'
_TEXT	ENDS
;	COMDAT ?Restore@CCoupleController@@QAEHXZ
_TEXT	SEGMENT PARA USE32 PUBLIC 'CODE'
_TEXT	ENDS
;	COMDAT ??_GCQuery@@QAEPAXI@Z
_TEXT	SEGMENT PARA USE32 PUBLIC 'CODE'
_TEXT	ENDS
;	COMDAT ?Propose@CCoupleController@@QAEHKJ@Z
_TEXT	SEGMENT PARA USE32 PUBLIC 'CODE'
_TEXT	ENDS
;	COMDAT ?DeletePropose@CCoupleController@@QAEHJ@Z
_TEXT	SEGMENT PARA USE32 PUBLIC 'CODE'
_TEXT	ENDS
;	COMDAT ?Couple@CCoupleController@@QAEHKK@Z
_TEXT	SEGMENT PARA USE32 PUBLIC 'CODE'
_TEXT	ENDS
;	COMDAT ?Decouple@CCoupleController@@QAEHK@Z
_TEXT	SEGMENT PARA USE32 PUBLIC 'CODE'
_TEXT	ENDS
;	COMDAT ?AddExperience@CCoupleController@@QAEHKH@Z
_TEXT	SEGMENT PARA USE32 PUBLIC 'CODE'
_TEXT	ENDS
;	COMDAT ?Handler@CCoupleController@@UAEXPAUtagDB_OVERLAPPED_PLUS@@K@Z
_TEXT	SEGMENT PARA USE32 PUBLIC 'CODE'
_TEXT	ENDS
;	COMDAT ?OnTimer@CCoupleController@@UAEXXZ
_TEXT	SEGMENT PARA USE32 PUBLIC 'CODE'
_TEXT	ENDS
;	COMDAT ??0CCoupleHelper@@AAE@XZ
_TEXT	SEGMENT PARA USE32 PUBLIC 'CODE'
_TEXT	ENDS
;	COMDAT ??_GCCoupleHelper@@UAEPAXI@Z
_TEXT	SEGMENT PARA USE32 PUBLIC 'CODE'
_TEXT	ENDS
;	COMDAT ??1?$map@KJU?$less@K@std@@V?$allocator@U?$pair@$$CBKJ@std@@@2@@std@@QAE@XZ
_TEXT	SEGMENT PARA USE32 PUBLIC 'CODE'
_TEXT	ENDS
;	COMDAT ??1CCoupleHelper@@UAE@XZ
_TEXT	SEGMENT PARA USE32 PUBLIC 'CODE'
_TEXT	ENDS
;	COMDAT ?Instance@CCoupleHelper@@SAPAV1@XZ
_TEXT	SEGMENT PARA USE32 PUBLIC 'CODE'
_TEXT	ENDS
;	COMDAT _$E2
text$yd	SEGMENT PARA USE32 PUBLIC 'CODE'
text$yd	ENDS
;	COMDAT ?Clear@CCoupleHelper@@QAEXXZ
_TEXT	SEGMENT PARA USE32 PUBLIC 'CODE'
_TEXT	ENDS
;	COMDAT ?Serialize@CCoupleHelper@@QAEXAAVCAr@@@Z
_TEXT	SEGMENT PARA USE32 PUBLIC 'CODE'
_TEXT	ENDS
;	COMDAT ?Initialize@CCoupleHelper@@QAEHXZ
_TEXT	SEGMENT PARA USE32 PUBLIC 'CODE'
_TEXT	ENDS
;	COMDAT ?Handler@CCoupleHelper@@QAEXPAUtagDB_OVERLAPPED_PLUS@@K@Z
_TEXT	SEGMENT PARA USE32 PUBLIC 'CODE'
_TEXT	ENDS
;	COMDAT ?OnAddExperience@CCoupleHelper@@QAEXAAVCAr@@@Z
_TEXT	SEGMENT PARA USE32 PUBLIC 'CODE'
_TEXT	ENDS
;	COMDAT ?PostItem@CCoupleHelper@@QAEXPAVCCouple@@@Z
_TEXT	SEGMENT PARA USE32 PUBLIC 'CODE'
_TEXT	ENDS
;	COMDAT ?GetGender@CCoupleHelper@@AAEXPAVCCouple@@AAH1@Z
_TEXT	SEGMENT PARA USE32 PUBLIC 'CODE'
_TEXT	ENDS
;	COMDAT ?PostItem@CCoupleHelper@@QAEXKABU_COUPLE_ITEM@@H@Z
_TEXT	SEGMENT PARA USE32 PUBLIC 'CODE'
_TEXT	ENDS
;	COMDAT ?OnTimer@CCoupleHelper@@QAEXXZ
_TEXT	SEGMENT PARA USE32 PUBLIC 'CODE'
_TEXT	ENDS
;	COMDAT ?OnTransfer@CCoupleHelper@@QAEXK@Z
_TEXT	SEGMENT PARA USE32 PUBLIC 'CODE'
_TEXT	ENDS
;	COMDAT ?OnClearPropose@CCoupleHelper@@QAEXXZ
_TEXT	SEGMENT PARA USE32 PUBLIC 'CODE'
_TEXT	ENDS
;	COMDAT ?OnPropose@CCoupleHelper@@QAEXAAVCAr@@K@Z
_TEXT	SEGMENT PARA USE32 PUBLIC 'CODE'
_TEXT	ENDS
;	COMDAT ?OnCouple@CCoupleHelper@@QAEXAAVCAr@@@Z
_TEXT	SEGMENT PARA USE32 PUBLIC 'CODE'
_TEXT	ENDS
;	COMDAT ?OnDecouple@CCoupleHelper@@QAEXAAVCAr@@@Z
_TEXT	SEGMENT PARA USE32 PUBLIC 'CODE'
_TEXT	ENDS
;	COMDAT ?GetPropose@CCoupleHelper@@QAEJK@Z
_TEXT	SEGMENT PARA USE32 PUBLIC 'CODE'
_TEXT	ENDS
;	COMDAT ?SetPropose@CCoupleHelper@@QAEHKJ@Z
_TEXT	SEGMENT PARA USE32 PUBLIC 'CODE'
_TEXT	ENDS
;	COMDAT ?Replace@?$CStringT@DV?$StrTraitMFC@DV?$ChTraitsCRT@D@ATL@@@@@ATL@@QAEHPBD0@Z
_TEXT	SEGMENT PARA USE32 PUBLIC 'CODE'
_TEXT	ENDS
;	COMDAT ?compare@?$basic_string@DU?$char_traits@D@std@@V?$allocator@D@2@@std@@QBEHABV12@@Z
_TEXT	SEGMENT PARA USE32 PUBLIC 'CODE'
_TEXT	ENDS
;	COMDAT ??0?$vector@PAVITestCase@@V?$allocator@PAVITestCase@@@std@@@std@@QAE@XZ
_TEXT	SEGMENT PARA USE32 PUBLIC 'CODE'
_TEXT	ENDS
;	COMDAT ??1?$vector@PAVITestCase@@V?$allocator@PAVITestCase@@@std@@@std@@QAE@XZ
_TEXT	SEGMENT PARA USE32 PUBLIC 'CODE'
_TEXT	ENDS
;	COMDAT ??0?$vector@HV?$allocator@H@std@@@std@@QAE@XZ
_TEXT	SEGMENT PARA USE32 PUBLIC 'CODE'
_TEXT	ENDS
;	COMDAT ??1?$vector@HV?$allocator@H@std@@@std@@QAE@XZ
_TEXT	SEGMENT PARA USE32 PUBLIC 'CODE'
_TEXT	ENDS
;	COMDAT ?size@?$vector@PAVCCouple@@V?$allocator@PAVCCouple@@@std@@@std@@QBEIXZ
_TEXT	SEGMENT PARA USE32 PUBLIC 'CODE'
_TEXT	ENDS
;	COMDAT ??0?$map@KJU?$less@K@std@@V?$allocator@U?$pair@$$CBKJ@std@@@2@@std@@QAE@XZ
_TEXT	SEGMENT PARA USE32 PUBLIC 'CODE'
_TEXT	ENDS
;	COMDAT ??1?$_Tree@V?$_Tmap_traits@KJU?$less@K@std@@V?$allocator@U?$pair@$$CBKJ@std@@@2@$0A@@std@@@std@@QAE@XZ
_TEXT	SEGMENT PARA USE32 PUBLIC 'CODE'
_TEXT	ENDS
;	COMDAT ?begin@?$_Tree@V?$_Tmap_traits@KJU?$less@K@std@@V?$allocator@U?$pair@$$CBKJ@std@@@2@$0A@@std@@@std@@QAE?AViterator@12@XZ
_TEXT	SEGMENT PARA USE32 PUBLIC 'CODE'
_TEXT	ENDS
;	COMDAT ?end@?$_Tree@V?$_Tmap_traits@KJU?$less@K@std@@V?$allocator@U?$pair@$$CBKJ@std@@@2@$0A@@std@@@std@@QAE?AViterator@12@XZ
_TEXT	SEGMENT PARA USE32 PUBLIC 'CODE'
_TEXT	ENDS
;	COMDAT ?insert@?$_Tree@V?$_Tmap_traits@KJU?$less@K@std@@V?$allocator@U?$pair@$$CBKJ@std@@@2@$0A@@std@@@std@@QAE?AU?$pair@Viterator@?$_Tree@V?$_Tmap_traits@KJU?$less@K@std@@V?$allocator@U?$pair@$$CBKJ@std@@@2@$0A@@std@@@std@@_N@2@ABU?$pair@$$CBKJ@2@@Z
_TEXT	SEGMENT PARA USE32 PUBLIC 'CODE'
_TEXT	ENDS
;	COMDAT ?erase@?$_Tree@V?$_Tmap_traits@KJU?$less@K@std@@V?$allocator@U?$pair@$$CBKJ@std@@@2@$0A@@std@@@std@@QAE?AViterator@12@V312@@Z
_TEXT	SEGMENT PARA USE32 PUBLIC 'CODE'
_TEXT	ENDS
;	COMDAT ?clear@?$_Tree@V?$_Tmap_traits@KJU?$less@K@std@@V?$allocator@U?$pair@$$CBKJ@std@@@2@$0A@@std@@@std@@QAEXXZ
_TEXT	SEGMENT PARA USE32 PUBLIC 'CODE'
_TEXT	ENDS
;	COMDAT ?find@?$_Tree@V?$_Tmap_traits@KJU?$less@K@std@@V?$allocator@U?$pair@$$CBKJ@std@@@2@$0A@@std@@@std@@QAE?AViterator@12@ABK@Z
_TEXT	SEGMENT PARA USE32 PUBLIC 'CODE'
_TEXT	ENDS
;	COMDAT ??0?$pair@$$CBKJ@std@@QAE@ABKABJ@Z
_TEXT	SEGMENT PARA USE32 PUBLIC 'CODE'
_TEXT	ENDS
;	COMDAT ??Citerator@?$_Tree@V?$_Tmap_traits@KJU?$less@K@std@@V?$allocator@U?$pair@$$CBKJ@std@@@2@$0A@@std@@@std@@QBEPAU?$pair@$$CBKJ@2@XZ
_TEXT	SEGMENT PARA USE32 PUBLIC 'CODE'
_TEXT	ENDS
;	COMDAT ??Eiterator@?$_Tree@V?$_Tmap_traits@KJU?$less@K@std@@V?$allocator@U?$pair@$$CBKJ@std@@@2@$0A@@std@@@std@@QAEAAV012@XZ
_TEXT	SEGMENT PARA USE32 PUBLIC 'CODE'
_TEXT	ENDS
;	COMDAT ??Eiterator@?$_Tree@V?$_Tmap_traits@KJU?$less@K@std@@V?$allocator@U?$pair@$$CBKJ@std@@@2@$0A@@std@@@std@@QAE?AV012@H@Z
_TEXT	SEGMENT PARA USE32 PUBLIC 'CODE'
_TEXT	ENDS
;	COMDAT ??9const_iterator@?$_Tree@V?$_Tmap_traits@KJU?$less@K@std@@V?$allocator@U?$pair@$$CBKJ@std@@@2@$0A@@std@@@std@@QBE_NABV012@@Z
_TEXT	SEGMENT PARA USE32 PUBLIC 'CODE'
_TEXT	ENDS
;	COMDAT ??R?$less@PAVsp_counted_base@detail@boost@@@std@@QBE_NABQAVsp_counted_base@detail@boost@@0@Z
_TEXT	SEGMENT PARA USE32 PUBLIC 'CODE'
_TEXT	ENDS
;	COMDAT ?size@?$vector@PAVCLordSkillComponentExecutable@@V?$allocator@PAVCLordSkillComponentExecutable@@@std@@@std@@QBEIXZ
_TEXT	SEGMENT PARA USE32 PUBLIC 'CODE'
_TEXT	ENDS
;	COMDAT ?size@?$vector@V?$shared_ptr@VCCandidate@@@boost@@V?$allocator@V?$shared_ptr@VCCandidate@@@boost@@@std@@@std@@QBEIXZ
_TEXT	SEGMENT PARA USE32 PUBLIC 'CODE'
_TEXT	ENDS
;	COMDAT ??0?$vector@MV?$allocator@M@std@@@std@@QAE@XZ
_TEXT	SEGMENT PARA USE32 PUBLIC 'CODE'
_TEXT	ENDS
;	COMDAT ??1?$vector@MV?$allocator@M@std@@@std@@QAE@XZ
_TEXT	SEGMENT PARA USE32 PUBLIC 'CODE'
_TEXT	ENDS
;	COMDAT ??C?$shared_ptr@VCCandidate@@@boost@@QBEPAVCCandidate@@XZ
_TEXT	SEGMENT PARA USE32 PUBLIC 'CODE'
_TEXT	ENDS
;	COMDAT ?size@?$vector@PAVCLEComponent@@V?$allocator@PAVCLEComponent@@@std@@@std@@QBEIXZ
_TEXT	SEGMENT PARA USE32 PUBLIC 'CODE'
_TEXT	ENDS
;	COMDAT ?size@?$vector@U?$pair@M_J@std@@V?$allocator@U?$pair@M_J@std@@@2@@std@@QBEIXZ
_TEXT	SEGMENT PARA USE32 PUBLIC 'CODE'
_TEXT	ENDS
;	COMDAT ?size@?$_Tree@V?$_Tmap_traits@KPAU_PlayerData@@U?$less@K@std@@V?$allocator@U?$pair@$$CBKPAU_PlayerData@@@std@@@3@$0A@@std@@@std@@QBEIXZ
_TEXT	SEGMENT PARA USE32 PUBLIC 'CODE'
_TEXT	ENDS
;	COMDAT ?end@?$_Tree@V?$_Tmap_traits@KP8CDPTrans@@AEXAAVCAr@@KKKPAEK@ZU?$less@K@std@@V?$allocator@U?$pair@$$CBKP8CDPTrans@@AEXAAVCAr@@KKKPAEK@Z@std@@@4@$0A@@std@@@std@@QAE?AViterator@12@XZ
_TEXT	SEGMENT PARA USE32 PUBLIC 'CODE'
_TEXT	ENDS
;	COMDAT ?find@?$_Tree@V?$_Tmap_traits@KP8CDPTrans@@AEXAAVCAr@@KKKPAEK@ZU?$less@K@std@@V?$allocator@U?$pair@$$CBKP8CDPTrans@@AEXAAVCAr@@KKKPAEK@Z@std@@@4@$0A@@std@@@std@@QAE?AViterator@12@ABK@Z
_TEXT	SEGMENT PARA USE32 PUBLIC 'CODE'
_TEXT	ENDS
;	COMDAT ??Citerator@?$_Tree@V?$_Tmap_traits@KP8CDPTrans@@AEXAAVCAr@@KKKPAEK@ZU?$less@K@std@@V?$allocator@U?$pair@$$CBKP8CDPTrans@@AEXAAVCAr@@KKKPAEK@Z@std@@@4@$0A@@std@@@std@@QBEPAU?$pair@$$CBKP8CDPTrans@@AEXAAVCAr@@KKKPAEK@Z@2@XZ
_TEXT	SEGMENT PARA USE32 PUBLIC 'CODE'
_TEXT	ENDS
;	COMDAT ??9const_iterator@?$_Tree@V?$_Tmap_traits@KP8CDPTrans@@AEXAAVCAr@@KKKPAEK@ZU?$less@K@std@@V?$allocator@U?$pair@$$CBKP8CDPTrans@@AEXAAVCAr@@KKKPAEK@Z@std@@@4@$0A@@std@@@std@@QBE_NABV012@@Z
_TEXT	SEGMENT PARA USE32 PUBLIC 'CODE'
_TEXT	ENDS
;	COMDAT ?size@?$vector@U_COUPLE_ITEM@@V?$allocator@U_COUPLE_ITEM@@@std@@@std@@QBEIXZ
_TEXT	SEGMENT PARA USE32 PUBLIC 'CODE'
_TEXT	ENDS
;	COMDAT ?empty@?$vector@U_COUPLE_ITEM@@V?$allocator@U_COUPLE_ITEM@@@std@@@std@@QBE_NXZ
_TEXT	SEGMENT PARA USE32 PUBLIC 'CODE'
_TEXT	ENDS
;	COMDAT ??A?$vector@U_COUPLE_ITEM@@V?$allocator@U_COUPLE_ITEM@@@std@@@std@@QAEAAU_COUPLE_ITEM@@I@Z
_TEXT	SEGMENT PARA USE32 PUBLIC 'CODE'
_TEXT	ENDS
;	COMDAT ?StringFindString@?$ChTraitsCRT@D@ATL@@SAPADPADPBD@Z
_TEXT	SEGMENT PARA USE32 PUBLIC 'CODE'
_TEXT	ENDS
;	COMDAT ?SafeStringLen@?$ChTraitsCRT@D@ATL@@SAHPBD@Z
_TEXT	SEGMENT PARA USE32 PUBLIC 'CODE'
_TEXT	ENDS
;	COMDAT ?compare@?$basic_string@DU?$char_traits@D@std@@V?$allocator@D@2@@std@@QBEHIIPBDI@Z
_TEXT	SEGMENT PARA USE32 PUBLIC 'CODE'
_TEXT	ENDS
;	COMDAT ??0?$allocator@H@std@@QAE@XZ
_TEXT	SEGMENT PARA USE32 PUBLIC 'CODE'
_TEXT	ENDS
;	COMDAT ?_Buy@?$vector@PAVITestCase@@V?$allocator@PAVITestCase@@@std@@@std@@IAE_NI@Z
_TEXT	SEGMENT PARA USE32 PUBLIC 'CODE'
_TEXT	ENDS
;	COMDAT ?_Tidy@?$vector@PAVITestCase@@V?$allocator@PAVITestCase@@@std@@@std@@IAEXXZ
_TEXT	SEGMENT PARA USE32 PUBLIC 'CODE'
_TEXT	ENDS
;	COMDAT ??0?$_Vector_val@PAVITestCase@@V?$allocator@PAVITestCase@@@std@@@std@@IAE@V?$allocator@PAVITestCase@@@1@@Z
_TEXT	SEGMENT PARA USE32 PUBLIC 'CODE'
_TEXT	ENDS
;	COMDAT ??0?$allocator@PAVITestCase@@@std@@QAE@XZ
_TEXT	SEGMENT PARA USE32 PUBLIC 'CODE'
_TEXT	ENDS
;	COMDAT ?_Buy@?$vector@HV?$allocator@H@std@@@std@@IAE_NI@Z
_TEXT	SEGMENT PARA USE32 PUBLIC 'CODE'
_TEXT	ENDS
;	COMDAT ?_Tidy@?$vector@HV?$allocator@H@std@@@std@@IAEXXZ
_TEXT	SEGMENT PARA USE32 PUBLIC 'CODE'
_TEXT	ENDS
;	COMDAT ??0?$_Vector_val@HV?$allocator@H@std@@@std@@IAE@V?$allocator@H@1@@Z
_TEXT	SEGMENT PARA USE32 PUBLIC 'CODE'
_TEXT	ENDS
;	COMDAT ?_Color@?$_Tree@V?$_Tmap_traits@KJU?$less@K@std@@V?$allocator@U?$pair@$$CBKJ@std@@@2@$0A@@std@@@std@@KAAADPAU_Node@?$_Tree_nod@V?$_Tmap_traits@KJU?$less@K@std@@V?$allocator@U?$pair@$$CBKJ@std@@@2@$0A@@std@@@2@@Z
_TEXT	SEGMENT PARA USE32 PUBLIC 'CODE'
_TEXT	ENDS
;	COMDAT ?_Isnil@?$_Tree@V?$_Tmap_traits@KJU?$less@K@std@@V?$allocator@U?$pair@$$CBKJ@std@@@2@$0A@@std@@@std@@KAAADPAU_Node@?$_Tree_nod@V?$_Tmap_traits@KJU?$less@K@std@@V?$allocator@U?$pair@$$CBKJ@std@@@2@$0A@@std@@@2@@Z
_TEXT	SEGMENT PARA USE32 PUBLIC 'CODE'
_TEXT	ENDS
;	COMDAT ?_Key@?$_Tree@V?$_Tmap_traits@KJU?$less@K@std@@V?$allocator@U?$pair@$$CBKJ@std@@@2@$0A@@std@@@std@@KAABKPAU_Node@?$_Tree_nod@V?$_Tmap_traits@KJU?$less@K@std@@V?$allocator@U?$pair@$$CBKJ@std@@@2@$0A@@std@@@2@@Z
_TEXT	SEGMENT PARA USE32 PUBLIC 'CODE'
_TEXT	ENDS
;	COMDAT ?_Left@?$_Tree@V?$_Tmap_traits@KJU?$less@K@std@@V?$allocator@U?$pair@$$CBKJ@std@@@2@$0A@@std@@@std@@KAAAPAU_Node@?$_Tree_nod@V?$_Tmap_traits@KJU?$less@K@std@@V?$allocator@U?$pair@$$CBKJ@std@@@2@$0A@@std@@@2@PAU342@@Z
_TEXT	SEGMENT PARA USE32 PUBLIC 'CODE'
_TEXT	ENDS
;	COMDAT ?_Parent@?$_Tree@V?$_Tmap_traits@KJU?$less@K@std@@V?$allocator@U?$pair@$$CBKJ@std@@@2@$0A@@std@@@std@@KAAAPAU_Node@?$_Tree_nod@V?$_Tmap_traits@KJU?$less@K@std@@V?$allocator@U?$pair@$$CBKJ@std@@@2@$0A@@std@@@2@PAU342@@Z
_TEXT	SEGMENT PARA USE32 PUBLIC 'CODE'
_TEXT	ENDS
;	COMDAT ?_Right@?$_Tree@V?$_Tmap_traits@KJU?$less@K@std@@V?$allocator@U?$pair@$$CBKJ@std@@@2@$0A@@std@@@std@@KAAAPAU_Node@?$_Tree_nod@V?$_Tmap_traits@KJU?$less@K@std@@V?$allocator@U?$pair@$$CBKJ@std@@@2@$0A@@std@@@2@PAU342@@Z
_TEXT	SEGMENT PARA USE32 PUBLIC 'CODE'
_TEXT	ENDS
;	COMDAT ??0?$_Tree@V?$_Tmap_traits@KJU?$less@K@std@@V?$allocator@U?$pair@$$CBKJ@std@@@2@$0A@@std@@@std@@QAE@ABU?$less@K@1@ABV?$allocator@U?$pair@$$CBKJ@std@@@1@@Z
_TEXT	SEGMENT PARA USE32 PUBLIC 'CODE'
_TEXT	ENDS
;	COMDAT ?lower_bound@?$_Tree@V?$_Tmap_traits@KJU?$less@K@std@@V?$allocator@U?$pair@$$CBKJ@std@@@2@$0A@@std@@@std@@QAE?AViterator@12@ABK@Z
_TEXT	SEGMENT PARA USE32 PUBLIC 'CODE'
_TEXT	ENDS
;	COMDAT ?_Erase@?$_Tree@V?$_Tmap_traits@KJU?$less@K@std@@V?$allocator@U?$pair@$$CBKJ@std@@@2@$0A@@std@@@std@@IAEXPAU_Node@?$_Tree_nod@V?$_Tmap_traits@KJU?$less@K@std@@V?$allocator@U?$pair@$$CBKJ@std@@@2@$0A@@std@@@2@@Z
_TEXT	SEGMENT PARA USE32 PUBLIC 'CODE'
_TEXT	ENDS
;	COMDAT ?_Insert@?$_Tree@V?$_Tmap_traits@KJU?$less@K@std@@V?$allocator@U?$pair@$$CBKJ@std@@@2@$0A@@std@@@std@@IAE?AViterator@12@_NPAU_Node@?$_Tree_nod@V?$_Tmap_traits@KJU?$less@K@std@@V?$allocator@U?$pair@$$CBKJ@std@@@2@$0A@@std@@@2@ABU?$pair@$$CBKJ@2@@Z
_TEXT	SEGMENT PARA USE32 PUBLIC 'CODE'
_TEXT	ENDS
;	COMDAT ?_Lmost@?$_Tree@V?$_Tmap_traits@KJU?$less@K@std@@V?$allocator@U?$pair@$$CBKJ@std@@@2@$0A@@std@@@std@@IAEAAPAU_Node@?$_Tree_nod@V?$_Tmap_traits@KJU?$less@K@std@@V?$allocator@U?$pair@$$CBKJ@std@@@2@$0A@@std@@@2@XZ
_TEXT	SEGMENT PARA USE32 PUBLIC 'CODE'
_TEXT	ENDS
;	COMDAT ?_Lrotate@?$_Tree@V?$_Tmap_traits@KJU?$less@K@std@@V?$allocator@U?$pair@$$CBKJ@std@@@2@$0A@@std@@@std@@IAEXPAU_Node@?$_Tree_nod@V?$_Tmap_traits@KJU?$less@K@std@@V?$allocator@U?$pair@$$CBKJ@std@@@2@$0A@@std@@@2@@Z
_TEXT	SEGMENT PARA USE32 PUBLIC 'CODE'
_TEXT	ENDS
;	COMDAT ?_Max@?$_Tree@V?$_Tmap_traits@KJU?$less@K@std@@V?$allocator@U?$pair@$$CBKJ@std@@@2@$0A@@std@@@std@@KAPAU_Node@?$_Tree_nod@V?$_Tmap_traits@KJU?$less@K@std@@V?$allocator@U?$pair@$$CBKJ@std@@@2@$0A@@std@@@2@PAU342@@Z
_TEXT	SEGMENT PARA USE32 PUBLIC 'CODE'
_TEXT	ENDS
;	COMDAT ?_Min@?$_Tree@V?$_Tmap_traits@KJU?$less@K@std@@V?$allocator@U?$pair@$$CBKJ@std@@@2@$0A@@std@@@std@@KAPAU_Node@?$_Tree_nod@V?$_Tmap_traits@KJU?$less@K@std@@V?$allocator@U?$pair@$$CBKJ@std@@@2@$0A@@std@@@2@PAU342@@Z
_TEXT	SEGMENT PARA USE32 PUBLIC 'CODE'
_TEXT	ENDS
;	COMDAT ?_Rmost@?$_Tree@V?$_Tmap_traits@KJU?$less@K@std@@V?$allocator@U?$pair@$$CBKJ@std@@@2@$0A@@std@@@std@@IAEAAPAU_Node@?$_Tree_nod@V?$_Tmap_traits@KJU?$less@K@std@@V?$allocator@U?$pair@$$CBKJ@std@@@2@$0A@@std@@@2@XZ
_TEXT	SEGMENT PARA USE32 PUBLIC 'CODE'
_TEXT	ENDS
;	COMDAT ?_Root@?$_Tree@V?$_Tmap_traits@KJU?$less@K@std@@V?$allocator@U?$pair@$$CBKJ@std@@@2@$0A@@std@@@std@@IAEAAPAU_Node@?$_Tree_nod@V?$_Tmap_traits@KJU?$less@K@std@@V?$allocator@U?$pair@$$CBKJ@std@@@2@$0A@@std@@@2@XZ
_TEXT	SEGMENT PARA USE32 PUBLIC 'CODE'
_TEXT	ENDS
;	COMDAT ?_Rrotate@?$_Tree@V?$_Tmap_traits@KJU?$less@K@std@@V?$allocator@U?$pair@$$CBKJ@std@@@2@$0A@@std@@@std@@IAEXPAU_Node@?$_Tree_nod@V?$_Tmap_traits@KJU?$less@K@std@@V?$allocator@U?$pair@$$CBKJ@std@@@2@$0A@@std@@@2@@Z
_TEXT	SEGMENT PARA USE32 PUBLIC 'CODE'
_TEXT	ENDS
;	COMDAT ?_Tidy@?$_Tree@V?$_Tmap_traits@KJU?$less@K@std@@V?$allocator@U?$pair@$$CBKJ@std@@@2@$0A@@std@@@std@@IAEXXZ
_TEXT	SEGMENT PARA USE32 PUBLIC 'CODE'
_TEXT	ENDS
;	COMDAT ?_Kfn@?$_Tmap_traits@KJU?$less@K@std@@V?$allocator@U?$pair@$$CBKJ@std@@@2@$0A@@std@@SAABKABU?$pair@$$CBKJ@2@@Z
_TEXT	SEGMENT PARA USE32 PUBLIC 'CODE'
_TEXT	ENDS
;	COMDAT ??0?$allocator@U?$pair@$$CBKJ@std@@@std@@QAE@XZ
_TEXT	SEGMENT PARA USE32 PUBLIC 'CODE'
_TEXT	ENDS
;	COMDAT ?deallocate@?$allocator@U_Node@?$_Tree_nod@V?$_Tmap_traits@KJU?$less@K@std@@V?$allocator@U?$pair@$$CBKJ@std@@@2@$0A@@std@@@std@@@std@@QAEXPAU_Node@?$_Tree_nod@V?$_Tmap_traits@KJU?$less@K@std@@V?$allocator@U?$pair@$$CBKJ@std@@@2@$0A@@std@@@2@I@Z
_TEXT	SEGMENT PARA USE32 PUBLIC 'CODE'
_TEXT	ENDS
;	COMDAT ?destroy@?$allocator@U_Node@?$_Tree_nod@V?$_Tmap_traits@KJU?$less@K@std@@V?$allocator@U?$pair@$$CBKJ@std@@@2@$0A@@std@@@std@@@std@@QAEXPAU_Node@?$_Tree_nod@V?$_Tmap_traits@KJU?$less@K@std@@V?$allocator@U?$pair@$$CBKJ@std@@@2@$0A@@std@@@2@@Z
_TEXT	SEGMENT PARA USE32 PUBLIC 'CODE'
_TEXT	ENDS
;	COMDAT ??0?$pair@Viterator@?$_Tree@V?$_Tmap_traits@KJU?$less@K@std@@V?$allocator@U?$pair@$$CBKJ@std@@@2@$0A@@std@@@std@@_N@std@@QAE@ABViterator@?$_Tree@V?$_Tmap_traits@KJU?$less@K@std@@V?$allocator@U?$pair@$$CBKJ@std@@@2@$0A@@std@@@1@AB_N@Z
_TEXT	SEGMENT PARA USE32 PUBLIC 'CODE'
_TEXT	ENDS
;	COMDAT ??0iterator@?$_Tree@V?$_Tmap_traits@KJU?$less@K@std@@V?$allocator@U?$pair@$$CBKJ@std@@@2@$0A@@std@@@std@@QAE@PAU_Node@?$_Tree_nod@V?$_Tmap_traits@KJU?$less@K@std@@V?$allocator@U?$pair@$$CBKJ@std@@@2@$0A@@std@@@2@@Z
_TEXT	SEGMENT PARA USE32 PUBLIC 'CODE'
_TEXT	ENDS
;	COMDAT ??Diterator@?$_Tree@V?$_Tmap_traits@KJU?$less@K@std@@V?$allocator@U?$pair@$$CBKJ@std@@@2@$0A@@std@@@std@@QBEAAU?$pair@$$CBKJ@2@XZ
_TEXT	SEGMENT PARA USE32 PUBLIC 'CODE'
_TEXT	ENDS
;	COMDAT ??Fiterator@?$_Tree@V?$_Tmap_traits@KJU?$less@K@std@@V?$allocator@U?$pair@$$CBKJ@std@@@2@$0A@@std@@@std@@QAEAAV012@XZ
_TEXT	SEGMENT PARA USE32 PUBLIC 'CODE'
_TEXT	ENDS
;	COMDAT ??Econst_iterator@?$_Tree@V?$_Tmap_traits@KJU?$less@K@std@@V?$allocator@U?$pair@$$CBKJ@std@@@2@$0A@@std@@@std@@QAEAAV012@XZ
_TEXT	SEGMENT PARA USE32 PUBLIC 'CODE'
_TEXT	ENDS
;	COMDAT ??8const_iterator@?$_Tree@V?$_Tmap_traits@KJU?$less@K@std@@V?$allocator@U?$pair@$$CBKJ@std@@@2@$0A@@std@@@std@@QBE_NABV012@@Z
_TEXT	SEGMENT PARA USE32 PUBLIC 'CODE'
_TEXT	ENDS
;	COMDAT ?_Mynode@const_iterator@?$_Tree@V?$_Tmap_traits@KJU?$less@K@std@@V?$allocator@U?$pair@$$CBKJ@std@@@2@$0A@@std@@@std@@QBEPAU_Node@?$_Tree_nod@V?$_Tmap_traits@KJU?$less@K@std@@V?$allocator@U?$pair@$$CBKJ@std@@@2@$0A@@std@@@3@XZ
_TEXT	SEGMENT PARA USE32 PUBLIC 'CODE'
_TEXT	ENDS
;	COMDAT ?_Buy@?$vector@MV?$allocator@M@std@@@std@@IAE_NI@Z
_TEXT	SEGMENT PARA USE32 PUBLIC 'CODE'
_TEXT	ENDS
;	COMDAT ?_Tidy@?$vector@MV?$allocator@M@std@@@std@@IAEXXZ
_TEXT	SEGMENT PARA USE32 PUBLIC 'CODE'
_TEXT	ENDS
;	COMDAT ??0?$_Vector_val@MV?$allocator@M@std@@@std@@IAE@V?$allocator@M@1@@Z
_TEXT	SEGMENT PARA USE32 PUBLIC 'CODE'
_TEXT	ENDS
;	COMDAT ??0?$allocator@M@std@@QAE@XZ
_TEXT	SEGMENT PARA USE32 PUBLIC 'CODE'
_TEXT	ENDS
;	COMDAT ?_Key@?$_Tree@V?$_Tmap_traits@KP8CDPTrans@@AEXAAVCAr@@KKKPAEK@ZU?$less@K@std@@V?$allocator@U?$pair@$$CBKP8CDPTrans@@AEXAAVCAr@@KKKPAEK@Z@std@@@4@$0A@@std@@@std@@KAABKPAU_Node@?$_Tree_nod@V?$_Tmap_traits@KP8CDPTrans@@AEXAAVCAr@@KKKPAEK@ZU?$less@K@std@@V?$allocator@U?$pair@$$CBKP8CDPTrans@@AEXAAVCAr@@KKKPAEK@Z@std@@@4@$0A@@std@@@2@@Z
_TEXT	SEGMENT PARA USE32 PUBLIC 'CODE'
_TEXT	ENDS
;	COMDAT ?lower_bound@?$_Tree@V?$_Tmap_traits@KP8CDPTrans@@AEXAAVCAr@@KKKPAEK@ZU?$less@K@std@@V?$allocator@U?$pair@$$CBKP8CDPTrans@@AEXAAVCAr@@KKKPAEK@Z@std@@@4@$0A@@std@@@std@@QAE?AViterator@12@ABK@Z
_TEXT	SEGMENT PARA USE32 PUBLIC 'CODE'
_TEXT	ENDS
;	COMDAT ??0iterator@?$_Tree@V?$_Tmap_traits@KP8CDPTrans@@AEXAAVCAr@@KKKPAEK@ZU?$less@K@std@@V?$allocator@U?$pair@$$CBKP8CDPTrans@@AEXAAVCAr@@KKKPAEK@Z@std@@@4@$0A@@std@@@std@@QAE@PAU_Node@?$_Tree_nod@V?$_Tmap_traits@KP8CDPTrans@@AEXAAVCAr@@KKKPAEK@ZU?$less@K@std@@V?$allocator@U?$pair@$$CBKP8CDPTrans@@AEXAAVCAr@@KKKPAEK@Z@std@@@4@$0A@@std@@@2@@Z
_TEXT	SEGMENT PARA USE32 PUBLIC 'CODE'
_TEXT	ENDS
;	COMDAT ??Diterator@?$_Tree@V?$_Tmap_traits@KP8CDPTrans@@AEXAAVCAr@@KKKPAEK@ZU?$less@K@std@@V?$allocator@U?$pair@$$CBKP8CDPTrans@@AEXAAVCAr@@KKKPAEK@Z@std@@@4@$0A@@std@@@std@@QBEAAU?$pair@$$CBKP8CDPTrans@@AEXAAVCAr@@KKKPAEK@Z@2@XZ
_TEXT	SEGMENT PARA USE32 PUBLIC 'CODE'
_TEXT	ENDS
;	COMDAT ??8const_iterator@?$_Tree@V?$_Tmap_traits@KP8CDPTrans@@AEXAAVCAr@@KKKPAEK@ZU?$less@K@std@@V?$allocator@U?$pair@$$CBKP8CDPTrans@@AEXAAVCAr@@KKKPAEK@Z@std@@@4@$0A@@std@@@std@@QBE_NABV012@@Z
_TEXT	SEGMENT PARA USE32 PUBLIC 'CODE'
_TEXT	ENDS
;	COMDAT ?_Mynode@const_iterator@?$_Tree@V?$_Tmap_traits@KP8CDPTrans@@AEXAAVCAr@@KKKPAEK@ZU?$less@K@std@@V?$allocator@U?$pair@$$CBKP8CDPTrans@@AEXAAVCAr@@KKKPAEK@Z@std@@@4@$0A@@std@@@std@@QBEPAU_Node@?$_Tree_nod@V?$_Tmap_traits@KP8CDPTrans@@AEXAAVCAr@@KKKPAEK@ZU?$less@K@std@@V?$allocator@U?$pair@$$CBKP8CDPTrans@@AEXAAVCAr@@KKKPAEK@Z@std@@@4@$0A@@std@@@3@XZ
_TEXT	SEGMENT PARA USE32 PUBLIC 'CODE'
_TEXT	ENDS
;	COMDAT ?begin@?$vector@U_COUPLE_ITEM@@V?$allocator@U_COUPLE_ITEM@@@std@@@std@@QAE?AViterator@12@XZ
_TEXT	SEGMENT PARA USE32 PUBLIC 'CODE'
_TEXT	ENDS
;	COMDAT ??Diterator@?$vector@U_COUPLE_ITEM@@V?$allocator@U_COUPLE_ITEM@@@std@@@std@@QBEAAU_COUPLE_ITEM@@XZ
_TEXT	SEGMENT PARA USE32 PUBLIC 'CODE'
_TEXT	ENDS
;	COMDAT ??Hiterator@?$vector@U_COUPLE_ITEM@@V?$allocator@U_COUPLE_ITEM@@@std@@@std@@QBE?AV012@H@Z
_TEXT	SEGMENT PARA USE32 PUBLIC 'CODE'
_TEXT	ENDS
;	COMDAT ??0?$allocator@H@std@@QAE@ABV01@@Z
_TEXT	SEGMENT PARA USE32 PUBLIC 'CODE'
_TEXT	ENDS
;	COMDAT ?deallocate@?$allocator@H@std@@QAEXPAHI@Z
_TEXT	SEGMENT PARA USE32 PUBLIC 'CODE'
_TEXT	ENDS
;	COMDAT ?allocate@?$allocator@H@std@@QAEPAHI@Z
_TEXT	SEGMENT PARA USE32 PUBLIC 'CODE'
_TEXT	ENDS
;	COMDAT ?max_size@?$vector@PAVITestCase@@V?$allocator@PAVITestCase@@@std@@@std@@QBEIXZ
_TEXT	SEGMENT PARA USE32 PUBLIC 'CODE'
_TEXT	ENDS
;	COMDAT ?_Destroy@?$vector@PAVITestCase@@V?$allocator@PAVITestCase@@@std@@@std@@IAEXPAPAVITestCase@@0@Z
_TEXT	SEGMENT PARA USE32 PUBLIC 'CODE'
_TEXT	ENDS
;	COMDAT ?_Xlen@?$vector@PAVITestCase@@V?$allocator@PAVITestCase@@@std@@@std@@IBEXXZ
_TEXT	SEGMENT PARA USE32 PUBLIC 'CODE'
_TEXT	ENDS
;	COMDAT ??0?$allocator@PAVITestCase@@@std@@QAE@ABV01@@Z
_TEXT	SEGMENT PARA USE32 PUBLIC 'CODE'
_TEXT	ENDS
;	COMDAT ?deallocate@?$allocator@PAVITestCase@@@std@@QAEXPAPAVITestCase@@I@Z
_TEXT	SEGMENT PARA USE32 PUBLIC 'CODE'
_TEXT	ENDS
;	COMDAT ?allocate@?$allocator@PAVITestCase@@@std@@QAEPAPAVITestCase@@I@Z
_TEXT	SEGMENT PARA USE32 PUBLIC 'CODE'
_TEXT	ENDS
;	COMDAT ?max_size@?$vector@HV?$allocator@H@std@@@std@@QBEIXZ
_TEXT	SEGMENT PARA USE32 PUBLIC 'CODE'
_TEXT	ENDS
;	COMDAT ?_Destroy@?$vector@HV?$allocator@H@std@@@std@@IAEXPAH0@Z
_TEXT	SEGMENT PARA USE32 PUBLIC 'CODE'
_TEXT	ENDS
;	COMDAT ?_Xlen@?$vector@HV?$allocator@H@std@@@std@@IBEXXZ
_TEXT	SEGMENT PARA USE32 PUBLIC 'CODE'
_TEXT	ENDS
;	COMDAT ?_Myval@?$_Tree@V?$_Tmap_traits@KJU?$less@K@std@@V?$allocator@U?$pair@$$CBKJ@std@@@2@$0A@@std@@@std@@KAAAU?$pair@$$CBKJ@2@PAU_Node@?$_Tree_nod@V?$_Tmap_traits@KJU?$less@K@std@@V?$allocator@U?$pair@$$CBKJ@std@@@2@$0A@@std@@@2@@Z
_TEXT	SEGMENT PARA USE32 PUBLIC 'CODE'
_TEXT	ENDS
;	COMDAT ?max_size@?$_Tree@V?$_Tmap_traits@KJU?$less@K@std@@V?$allocator@U?$pair@$$CBKJ@std@@@2@$0A@@std@@@std@@QBEIXZ
_TEXT	SEGMENT PARA USE32 PUBLIC 'CODE'
_TEXT	ENDS
;	COMDAT ?erase@?$_Tree@V?$_Tmap_traits@KJU?$less@K@std@@V?$allocator@U?$pair@$$CBKJ@std@@@2@$0A@@std@@@std@@QAE?AViterator@12@V312@0@Z
_TEXT	SEGMENT PARA USE32 PUBLIC 'CODE'
_TEXT	ENDS
;	COMDAT ?_Init@?$_Tree@V?$_Tmap_traits@KJU?$less@K@std@@V?$allocator@U?$pair@$$CBKJ@std@@@2@$0A@@std@@@std@@IAEXXZ
_TEXT	SEGMENT PARA USE32 PUBLIC 'CODE'
_TEXT	ENDS
;	COMDAT ?_Lbound@?$_Tree@V?$_Tmap_traits@KJU?$less@K@std@@V?$allocator@U?$pair@$$CBKJ@std@@@2@$0A@@std@@@std@@IBEPAU_Node@?$_Tree_nod@V?$_Tmap_traits@KJU?$less@K@std@@V?$allocator@U?$pair@$$CBKJ@std@@@2@$0A@@std@@@2@ABK@Z
_TEXT	SEGMENT PARA USE32 PUBLIC 'CODE'
_TEXT	ENDS
;	COMDAT ?_Buynode@?$_Tree@V?$_Tmap_traits@KJU?$less@K@std@@V?$allocator@U?$pair@$$CBKJ@std@@@2@$0A@@std@@@std@@IAEPAU_Node@?$_Tree_nod@V?$_Tmap_traits@KJU?$less@K@std@@V?$allocator@U?$pair@$$CBKJ@std@@@2@$0A@@std@@@2@PAU342@00ABU?$pair@$$CBKJ@2@D@Z
_TEXT	SEGMENT PARA USE32 PUBLIC 'CODE'
_TEXT	ENDS
;	COMDAT ??0?$_Tree_val@V?$_Tmap_traits@KJU?$less@K@std@@V?$allocator@U?$pair@$$CBKJ@std@@@2@$0A@@std@@@std@@IAE@ABU?$less@K@1@V?$allocator@U?$pair@$$CBKJ@std@@@1@@Z
_TEXT	SEGMENT PARA USE32 PUBLIC 'CODE'
_TEXT	ENDS
;	COMDAT ??0?$allocator@U?$pair@$$CBKJ@std@@@std@@QAE@ABV01@@Z
_TEXT	SEGMENT PARA USE32 PUBLIC 'CODE'
_TEXT	ENDS
;	COMDAT ?destroy@?$allocator@PAU_Node@?$_Tree_nod@V?$_Tmap_traits@KJU?$less@K@std@@V?$allocator@U?$pair@$$CBKJ@std@@@2@$0A@@std@@@std@@@std@@QAEXPAPAU_Node@?$_Tree_nod@V?$_Tmap_traits@KJU?$less@K@std@@V?$allocator@U?$pair@$$CBKJ@std@@@2@$0A@@std@@@2@@Z
_TEXT	SEGMENT PARA USE32 PUBLIC 'CODE'
_TEXT	ENDS
;	COMDAT ??0const_iterator@?$_Tree@V?$_Tmap_traits@KJU?$less@K@std@@V?$allocator@U?$pair@$$CBKJ@std@@@2@$0A@@std@@@std@@QAE@PAU_Node@?$_Tree_nod@V?$_Tmap_traits@KJU?$less@K@std@@V?$allocator@U?$pair@$$CBKJ@std@@@2@$0A@@std@@@2@@Z
_TEXT	SEGMENT PARA USE32 PUBLIC 'CODE'
_TEXT	ENDS
;	COMDAT ??Dconst_iterator@?$_Tree@V?$_Tmap_traits@KJU?$less@K@std@@V?$allocator@U?$pair@$$CBKJ@std@@@2@$0A@@std@@@std@@QBEABU?$pair@$$CBKJ@2@XZ
_TEXT	SEGMENT PARA USE32 PUBLIC 'CODE'
_TEXT	ENDS
;	COMDAT ??Fconst_iterator@?$_Tree@V?$_Tmap_traits@KJU?$less@K@std@@V?$allocator@U?$pair@$$CBKJ@std@@@2@$0A@@std@@@std@@QAEAAV012@XZ
_TEXT	SEGMENT PARA USE32 PUBLIC 'CODE'
_TEXT	ENDS
;	COMDAT ?_Inc@const_iterator@?$_Tree@V?$_Tmap_traits@KJU?$less@K@std@@V?$allocator@U?$pair@$$CBKJ@std@@@2@$0A@@std@@@std@@QAEXXZ
_TEXT	SEGMENT PARA USE32 PUBLIC 'CODE'
_TEXT	ENDS
;	COMDAT ?max_size@?$vector@MV?$allocator@M@std@@@std@@QBEIXZ
_TEXT	SEGMENT PARA USE32 PUBLIC 'CODE'
_TEXT	ENDS
;	COMDAT ?_Destroy@?$vector@MV?$allocator@M@std@@@std@@IAEXPAM0@Z
_TEXT	SEGMENT PARA USE32 PUBLIC 'CODE'
_TEXT	ENDS
;	COMDAT ?_Xlen@?$vector@MV?$allocator@M@std@@@std@@IBEXXZ
_TEXT	SEGMENT PARA USE32 PUBLIC 'CODE'
_TEXT	ENDS
;	COMDAT ??0?$allocator@M@std@@QAE@ABV01@@Z
_TEXT	SEGMENT PARA USE32 PUBLIC 'CODE'
_TEXT	ENDS
;	COMDAT ?deallocate@?$allocator@M@std@@QAEXPAMI@Z
_TEXT	SEGMENT PARA USE32 PUBLIC 'CODE'
_TEXT	ENDS
;	COMDAT ?allocate@?$allocator@M@std@@QAEPAMI@Z
_TEXT	SEGMENT PARA USE32 PUBLIC 'CODE'
_TEXT	ENDS
;	COMDAT ?_Myval@?$_Tree@V?$_Tmap_traits@KP8CDPTrans@@AEXAAVCAr@@KKKPAEK@ZU?$less@K@std@@V?$allocator@U?$pair@$$CBKP8CDPTrans@@AEXAAVCAr@@KKKPAEK@Z@std@@@4@$0A@@std@@@std@@KAAAU?$pair@$$CBKP8CDPTrans@@AEXAAVCAr@@KKKPAEK@Z@2@PAU_Node@?$_Tree_nod@V?$_Tmap_traits@KP8CDPTrans@@AEXAAVCAr@@KKKPAEK@ZU?$less@K@std@@V?$allocator@U?$pair@$$CBKP8CDPTrans@@AEXAAVCAr@@KKKPAEK@Z@std@@@4@$0A@@std@@@2@@Z
_TEXT	SEGMENT PARA USE32 PUBLIC 'CODE'
_TEXT	ENDS
;	COMDAT ?_Lbound@?$_Tree@V?$_Tmap_traits@KP8CDPTrans@@AEXAAVCAr@@KKKPAEK@ZU?$less@K@std@@V?$allocator@U?$pair@$$CBKP8CDPTrans@@AEXAAVCAr@@KKKPAEK@Z@std@@@4@$0A@@std@@@std@@IBEPAU_Node@?$_Tree_nod@V?$_Tmap_traits@KP8CDPTrans@@AEXAAVCAr@@KKKPAEK@ZU?$less@K@std@@V?$allocator@U?$pair@$$CBKP8CDPTrans@@AEXAAVCAr@@KKKPAEK@Z@std@@@4@$0A@@std@@@2@ABK@Z
_TEXT	SEGMENT PARA USE32 PUBLIC 'CODE'
_TEXT	ENDS
;	COMDAT ?_Kfn@?$_Tmap_traits@KP8CDPTrans@@AEXAAVCAr@@KKKPAEK@ZU?$less@K@std@@V?$allocator@U?$pair@$$CBKP8CDPTrans@@AEXAAVCAr@@KKKPAEK@Z@std@@@4@$0A@@std@@SAABKABU?$pair@$$CBKP8CDPTrans@@AEXAAVCAr@@KKKPAEK@Z@2@@Z
_TEXT	SEGMENT PARA USE32 PUBLIC 'CODE'
_TEXT	ENDS
;	COMDAT ??0const_iterator@?$_Tree@V?$_Tmap_traits@KP8CDPTrans@@AEXAAVCAr@@KKKPAEK@ZU?$less@K@std@@V?$allocator@U?$pair@$$CBKP8CDPTrans@@AEXAAVCAr@@KKKPAEK@Z@std@@@4@$0A@@std@@@std@@QAE@PAU_Node@?$_Tree_nod@V?$_Tmap_traits@KP8CDPTrans@@AEXAAVCAr@@KKKPAEK@ZU?$less@K@std@@V?$allocator@U?$pair@$$CBKP8CDPTrans@@AEXAAVCAr@@KKKPAEK@Z@std@@@4@$0A@@std@@@2@@Z
_TEXT	SEGMENT PARA USE32 PUBLIC 'CODE'
_TEXT	ENDS
;	COMDAT ??Dconst_iterator@?$_Tree@V?$_Tmap_traits@KP8CDPTrans@@AEXAAVCAr@@KKKPAEK@ZU?$less@K@std@@V?$allocator@U?$pair@$$CBKP8CDPTrans@@AEXAAVCAr@@KKKPAEK@Z@std@@@4@$0A@@std@@@std@@QBEABU?$pair@$$CBKP8CDPTrans@@AEXAAVCAr@@KKKPAEK@Z@2@XZ
_TEXT	SEGMENT PARA USE32 PUBLIC 'CODE'
_TEXT	ENDS
;	COMDAT ??0iterator@?$vector@U_COUPLE_ITEM@@V?$allocator@U_COUPLE_ITEM@@@std@@@std@@QAE@PAU_COUPLE_ITEM@@@Z
_TEXT	SEGMENT PARA USE32 PUBLIC 'CODE'
_TEXT	ENDS
;	COMDAT ??Yiterator@?$vector@U_COUPLE_ITEM@@V?$allocator@U_COUPLE_ITEM@@@std@@@std@@QAEAAV012@H@Z
_TEXT	SEGMENT PARA USE32 PUBLIC 'CODE'
_TEXT	ENDS
;	COMDAT ??Dconst_iterator@?$vector@U_COUPLE_ITEM@@V?$allocator@U_COUPLE_ITEM@@@std@@@std@@QBEABU_COUPLE_ITEM@@XZ
_TEXT	SEGMENT PARA USE32 PUBLIC 'CODE'
_TEXT	ENDS
;	COMDAT ?max_size@?$allocator@H@std@@QBEIXZ
_TEXT	SEGMENT PARA USE32 PUBLIC 'CODE'
_TEXT	ENDS
;	COMDAT ?max_size@?$allocator@PAVITestCase@@@std@@QBEIXZ
_TEXT	SEGMENT PARA USE32 PUBLIC 'CODE'
_TEXT	ENDS
;	COMDAT ?_Root@?$_Tree@V?$_Tmap_traits@KJU?$less@K@std@@V?$allocator@U?$pair@$$CBKJ@std@@@2@$0A@@std@@@std@@IBEAAPAU_Node@?$_Tree_nod@V?$_Tmap_traits@KJU?$less@K@std@@V?$allocator@U?$pair@$$CBKJ@std@@@2@$0A@@std@@@2@XZ
_TEXT	SEGMENT PARA USE32 PUBLIC 'CODE'
_TEXT	ENDS
;	COMDAT ?_Buynode@?$_Tree@V?$_Tmap_traits@KJU?$less@K@std@@V?$allocator@U?$pair@$$CBKJ@std@@@2@$0A@@std@@@std@@IAEPAU_Node@?$_Tree_nod@V?$_Tmap_traits@KJU?$less@K@std@@V?$allocator@U?$pair@$$CBKJ@std@@@2@$0A@@std@@@2@XZ
_TEXT	SEGMENT PARA USE32 PUBLIC 'CODE'
_TEXT	ENDS
;	COMDAT ??0?$_Tree_ptr@V?$_Tmap_traits@KJU?$less@K@std@@V?$allocator@U?$pair@$$CBKJ@std@@@2@$0A@@std@@@std@@IAE@ABU?$less@K@1@V?$allocator@U?$pair@$$CBKJ@std@@@1@@Z
_TEXT	SEGMENT PARA USE32 PUBLIC 'CODE'
_TEXT	ENDS
;	COMDAT ?max_size@?$allocator@U?$pair@$$CBKJ@std@@@std@@QBEIXZ
_TEXT	SEGMENT PARA USE32 PUBLIC 'CODE'
_TEXT	ENDS
;	COMDAT ?allocate@?$allocator@U_Node@?$_Tree_nod@V?$_Tmap_traits@KJU?$less@K@std@@V?$allocator@U?$pair@$$CBKJ@std@@@2@$0A@@std@@@std@@@std@@QAEPAU_Node@?$_Tree_nod@V?$_Tmap_traits@KJU?$less@K@std@@V?$allocator@U?$pair@$$CBKJ@std@@@2@$0A@@std@@@2@I@Z
_TEXT	SEGMENT PARA USE32 PUBLIC 'CODE'
_TEXT	ENDS
;	COMDAT ?_Dec@const_iterator@?$_Tree@V?$_Tmap_traits@KJU?$less@K@std@@V?$allocator@U?$pair@$$CBKJ@std@@@2@$0A@@std@@@std@@QAEXXZ
_TEXT	SEGMENT PARA USE32 PUBLIC 'CODE'
_TEXT	ENDS
;	COMDAT ?max_size@?$allocator@M@std@@QBEIXZ
_TEXT	SEGMENT PARA USE32 PUBLIC 'CODE'
_TEXT	ENDS
;	COMDAT ?_Isnil@?$_Tree@V?$_Tmap_traits@KP8CDPTrans@@AEXAAVCAr@@KKKPAEK@ZU?$less@K@std@@V?$allocator@U?$pair@$$CBKP8CDPTrans@@AEXAAVCAr@@KKKPAEK@Z@std@@@4@$0A@@std@@@std@@KAAADPAU_Node@?$_Tree_nod@V?$_Tmap_traits@KP8CDPTrans@@AEXAAVCAr@@KKKPAEK@ZU?$less@K@std@@V?$allocator@U?$pair@$$CBKP8CDPTrans@@AEXAAVCAr@@KKKPAEK@Z@std@@@4@$0A@@std@@@2@@Z
_TEXT	SEGMENT PARA USE32 PUBLIC 'CODE'
_TEXT	ENDS
;	COMDAT ?_Left@?$_Tree@V?$_Tmap_traits@KP8CDPTrans@@AEXAAVCAr@@KKKPAEK@ZU?$less@K@std@@V?$allocator@U?$pair@$$CBKP8CDPTrans@@AEXAAVCAr@@KKKPAEK@Z@std@@@4@$0A@@std@@@std@@KAAAPAU_Node@?$_Tree_nod@V?$_Tmap_traits@KP8CDPTrans@@AEXAAVCAr@@KKKPAEK@ZU?$less@K@std@@V?$allocator@U?$pair@$$CBKP8CDPTrans@@AEXAAVCAr@@KKKPAEK@Z@std@@@4@$0A@@std@@@2@PAU342@@Z
_TEXT	SEGMENT PARA USE32 PUBLIC 'CODE'
_TEXT	ENDS
;	COMDAT ?_Right@?$_Tree@V?$_Tmap_traits@KP8CDPTrans@@AEXAAVCAr@@KKKPAEK@ZU?$less@K@std@@V?$allocator@U?$pair@$$CBKP8CDPTrans@@AEXAAVCAr@@KKKPAEK@Z@std@@@4@$0A@@std@@@std@@KAAAPAU_Node@?$_Tree_nod@V?$_Tmap_traits@KP8CDPTrans@@AEXAAVCAr@@KKKPAEK@ZU?$less@K@std@@V?$allocator@U?$pair@$$CBKP8CDPTrans@@AEXAAVCAr@@KKKPAEK@Z@std@@@4@$0A@@std@@@2@PAU342@@Z
_TEXT	SEGMENT PARA USE32 PUBLIC 'CODE'
_TEXT	ENDS
;	COMDAT ?_Root@?$_Tree@V?$_Tmap_traits@KP8CDPTrans@@AEXAAVCAr@@KKKPAEK@ZU?$less@K@std@@V?$allocator@U?$pair@$$CBKP8CDPTrans@@AEXAAVCAr@@KKKPAEK@Z@std@@@4@$0A@@std@@@std@@IBEAAPAU_Node@?$_Tree_nod@V?$_Tmap_traits@KP8CDPTrans@@AEXAAVCAr@@KKKPAEK@ZU?$less@K@std@@V?$allocator@U?$pair@$$CBKP8CDPTrans@@AEXAAVCAr@@KKKPAEK@Z@std@@@4@$0A@@std@@@2@XZ
_TEXT	SEGMENT PARA USE32 PUBLIC 'CODE'
_TEXT	ENDS
;	COMDAT ??0const_iterator@?$vector@U_COUPLE_ITEM@@V?$allocator@U_COUPLE_ITEM@@@std@@@std@@QAE@PAU_COUPLE_ITEM@@@Z
_TEXT	SEGMENT PARA USE32 PUBLIC 'CODE'
_TEXT	ENDS
;	COMDAT ??0_Node@?$_Tree_nod@V?$_Tmap_traits@KJU?$less@K@std@@V?$allocator@U?$pair@$$CBKJ@std@@@2@$0A@@std@@@std@@QAE@PAU012@00ABU?$pair@$$CBKJ@2@D@Z
_TEXT	SEGMENT PARA USE32 PUBLIC 'CODE'
_TEXT	ENDS
;	COMDAT ??0?$_Tree_nod@V?$_Tmap_traits@KJU?$less@K@std@@V?$allocator@U?$pair@$$CBKJ@std@@@2@$0A@@std@@@std@@IAE@ABU?$less@K@1@V?$allocator@U?$pair@$$CBKJ@std@@@1@@Z
_TEXT	SEGMENT PARA USE32 PUBLIC 'CODE'
_TEXT	ENDS
;	COMDAT ?construct@?$allocator@PAU_Node@?$_Tree_nod@V?$_Tmap_traits@KJU?$less@K@std@@V?$allocator@U?$pair@$$CBKJ@std@@@2@$0A@@std@@@std@@@std@@QAEXPAPAU_Node@?$_Tree_nod@V?$_Tmap_traits@KJU?$less@K@std@@V?$allocator@U?$pair@$$CBKJ@std@@@2@$0A@@std@@@2@ABQAU342@@Z
_TEXT	SEGMENT PARA USE32 PUBLIC 'CODE'
_TEXT	ENDS
;	COMDAT ?_Parent@?$_Tree@V?$_Tmap_traits@KP8CDPTrans@@AEXAAVCAr@@KKKPAEK@ZU?$less@K@std@@V?$allocator@U?$pair@$$CBKP8CDPTrans@@AEXAAVCAr@@KKKPAEK@Z@std@@@4@$0A@@std@@@std@@KAAAPAU_Node@?$_Tree_nod@V?$_Tmap_traits@KP8CDPTrans@@AEXAAVCAr@@KKKPAEK@ZU?$less@K@std@@V?$allocator@U?$pair@$$CBKP8CDPTrans@@AEXAAVCAr@@KKKPAEK@Z@std@@@4@$0A@@std@@@2@PAU342@@Z
_TEXT	SEGMENT PARA USE32 PUBLIC 'CODE'
_TEXT	ENDS
;	COMDAT ??0?$_Tmap_traits@KJU?$less@K@std@@V?$allocator@U?$pair@$$CBKJ@std@@@2@$0A@@std@@QAE@U?$less@K@1@@Z
_TEXT	SEGMENT PARA USE32 PUBLIC 'CODE'
_TEXT	ENDS
;	COMDAT ??$_Iter_cat@Viterator@?$_Tree@V?$_Tmap_traits@KU_Friend@@U?$less@K@std@@V?$allocator@U?$pair@$$CBKU_Friend@@@std@@@3@$0A@@std@@@std@@@std@@YA?AUbidirectional_iterator_tag@0@ABViterator@?$_Tree@V?$_Tmap_traits@KU_Friend@@U?$less@K@std@@V?$allocator@U?$pair@$$CBKU_Friend@@@std@@@3@$0A@@std@@@0@@Z
_TEXT	SEGMENT PARA USE32 PUBLIC 'CODE'
_TEXT	ENDS
;	COMDAT ??$_Distance2@Viterator@?$_Tree@V?$_Tmap_traits@KU_Friend@@U?$less@K@std@@V?$allocator@U?$pair@$$CBKU_Friend@@@std@@@3@$0A@@std@@@std@@I@std@@YAXViterator@?$_Tree@V?$_Tmap_traits@KU_Friend@@U?$less@K@std@@V?$allocator@U?$pair@$$CBKU_Friend@@@std@@@3@$0A@@std@@@0@0AAIUbidirectional_iterator_tag@0@@Z
_TEXT	SEGMENT PARA USE32 PUBLIC 'CODE'
_TEXT	ENDS
;	COMDAT ??$_Copy_opt@PAJPAJ@std@@YAPAJPAJ00U_Scalar_ptr_iterator_tag@0@@Z
_TEXT	SEGMENT PARA USE32 PUBLIC 'CODE'
_TEXT	ENDS
;	COMDAT ??$_Uninitialized_copy@PAJPAJV?$allocator@J@std@@@std@@YAPAJPAJ00AAV?$allocator@J@0@@Z
_TEXT	SEGMENT PARA USE32 PUBLIC 'CODE'
_TEXT	ENDS
;	COMDAT ??$_Copy_backward_opt@PAJPAJ@std@@YAPAJPAJ00U_Scalar_ptr_iterator_tag@0@@Z
_TEXT	SEGMENT PARA USE32 PUBLIC 'CODE'
_TEXT	ENDS
;	COMDAT ??$_Ptr_cat@PAUtagDROPITEM@@PAU1@@std@@YA?AU_Nonscalar_ptr_iterator_tag@0@AAPAUtagDROPITEM@@0@Z
_TEXT	SEGMENT PARA USE32 PUBLIC 'CODE'
_TEXT	ENDS
;	COMDAT ??$_Destroy_range@UtagDROPITEM@@V?$allocator@UtagDROPITEM@@@std@@@std@@YAXPAUtagDROPITEM@@0AAV?$allocator@UtagDROPITEM@@@0@U_Nonscalar_ptr_iterator_tag@0@@Z
_TEXT	SEGMENT PARA USE32 PUBLIC 'CODE'
_TEXT	ENDS
;	COMDAT ??$_Destroy_range@KV?$allocator@K@std@@@std@@YAXPAK0AAV?$allocator@K@0@U_Scalar_ptr_iterator_tag@0@@Z
_TEXT	SEGMENT PARA USE32 PUBLIC 'CODE'
_TEXT	ENDS
;	COMDAT ??$_Destroy_range@JV?$allocator@J@std@@@std@@YAXPAJ0AAV?$allocator@J@0@U_Scalar_ptr_iterator_tag@0@@Z
_TEXT	SEGMENT PARA USE32 PUBLIC 'CODE'
_TEXT	ENDS
;	COMDAT ??$_Uninit_fill_n@JIJ@std@@YAXPAJIABJAAV?$allocator@J@0@U_Scalar_ptr_iterator_tag@0@@Z
_TEXT	SEGMENT PARA USE32 PUBLIC 'CODE'
_TEXT	ENDS
;	COMDAT ??$throw_exception@Vbad_weak_ptr@boost@@@boost@@YAXABVbad_weak_ptr@0@@Z
_TEXT	SEGMENT PARA USE32 PUBLIC 'CODE'
_TEXT	ENDS
;	COMDAT ??$_Destroy@U_Node@?$_Tree_nod@V?$_Tmap_traits@KJU?$less@K@std@@V?$allocator@U?$pair@$$CBKJ@std@@@2@$0A@@std@@@std@@@std@@YAXPAU_Node@?$_Tree_nod@V?$_Tmap_traits@KJU?$less@K@std@@V?$allocator@U?$pair@$$CBKJ@std@@@2@$0A@@std@@@0@@Z
_TEXT	SEGMENT PARA USE32 PUBLIC 'CODE'
_TEXT	ENDS
;	COMDAT ??$_Allocate@H@std@@YAPAHIPAH@Z
_TEXT	SEGMENT PARA USE32 PUBLIC 'CODE'
_TEXT	ENDS
;	COMDAT ??$_Destroy_range@PAVITestCase@@V?$allocator@PAVITestCase@@@std@@@std@@YAXPAPAVITestCase@@0AAV?$allocator@PAVITestCase@@@0@@Z
_TEXT	SEGMENT PARA USE32 PUBLIC 'CODE'
_TEXT	ENDS
;	COMDAT ??$_Allocate@PAVITestCase@@@std@@YAPAPAVITestCase@@IPAPAV1@@Z
_TEXT	SEGMENT PARA USE32 PUBLIC 'CODE'
_TEXT	ENDS
;	COMDAT ??$_Destroy_range@HV?$allocator@H@std@@@std@@YAXPAH0AAV?$allocator@H@0@@Z
_TEXT	SEGMENT PARA USE32 PUBLIC 'CODE'
_TEXT	ENDS
;	COMDAT ??$_Destroy@PAU_Node@?$_Tree_nod@V?$_Tmap_traits@KJU?$less@K@std@@V?$allocator@U?$pair@$$CBKJ@std@@@2@$0A@@std@@@std@@@std@@YAXPAPAU_Node@?$_Tree_nod@V?$_Tmap_traits@KJU?$less@K@std@@V?$allocator@U?$pair@$$CBKJ@std@@@2@$0A@@std@@@0@@Z
_TEXT	SEGMENT PARA USE32 PUBLIC 'CODE'
_TEXT	ENDS
;	COMDAT ??$_Destroy_range@MV?$allocator@M@std@@@std@@YAXPAM0AAV?$allocator@M@0@@Z
_TEXT	SEGMENT PARA USE32 PUBLIC 'CODE'
_TEXT	ENDS
;	COMDAT ??$_Allocate@M@std@@YAPAMIPAM@Z
_TEXT	SEGMENT PARA USE32 PUBLIC 'CODE'
_TEXT	ENDS
;	COMDAT ??$?0U?$pair@$$CBKJ@std@@@?$allocator@PAU_Node@?$_Tree_nod@V?$_Tmap_traits@KJU?$less@K@std@@V?$allocator@U?$pair@$$CBKJ@std@@@2@$0A@@std@@@std@@@std@@QAE@ABV?$allocator@U?$pair@$$CBKJ@std@@@1@@Z
_TEXT	SEGMENT PARA USE32 PUBLIC 'CODE'
_TEXT	ENDS
;	COMDAT ??$_Allocate@U_Node@?$_Tree_nod@V?$_Tmap_traits@KJU?$less@K@std@@V?$allocator@U?$pair@$$CBKJ@std@@@2@$0A@@std@@@std@@@std@@YAPAU_Node@?$_Tree_nod@V?$_Tmap_traits@KJU?$less@K@std@@V?$allocator@U?$pair@$$CBKJ@std@@@2@$0A@@std@@@0@IPAU120@@Z
_TEXT	SEGMENT PARA USE32 PUBLIC 'CODE'
_TEXT	ENDS
;	COMDAT ??$?0U?$pair@$$CBKJ@std@@@?$allocator@U_Node@?$_Tree_nod@V?$_Tmap_traits@KJU?$less@K@std@@V?$allocator@U?$pair@$$CBKJ@std@@@2@$0A@@std@@@std@@@std@@QAE@ABV?$allocator@U?$pair@$$CBKJ@std@@@1@@Z
_TEXT	SEGMENT PARA USE32 PUBLIC 'CODE'
_TEXT	ENDS
;	COMDAT ??$_Construct@PAU_Node@?$_Tree_nod@V?$_Tmap_traits@KJU?$less@K@std@@V?$allocator@U?$pair@$$CBKJ@std@@@2@$0A@@std@@@std@@PAU123@@std@@YAXPAPAU_Node@?$_Tree_nod@V?$_Tmap_traits@KJU?$less@K@std@@V?$allocator@U?$pair@$$CBKJ@std@@@2@$0A@@std@@@0@ABQAU120@@Z
_TEXT	SEGMENT PARA USE32 PUBLIC 'CODE'
_TEXT	ENDS
;	COMDAT ??0bad_weak_ptr@boost@@QAE@ABV01@@Z
_TEXT	SEGMENT PARA USE32 PUBLIC 'CODE'
_TEXT	ENDS
;	COMDAT ?destroy@?$allocator@UtagDROPITEM@@@std@@QAEXPAUtagDROPITEM@@@Z
_TEXT	SEGMENT PARA USE32 PUBLIC 'CODE'
_TEXT	ENDS
;	COMDAT ??$_Uninit_copy@JJ@std@@YAPAJPAJ00AAV?$allocator@J@0@U_Scalar_ptr_iterator_tag@0@@Z
_TEXT	SEGMENT PARA USE32 PUBLIC 'CODE'
_TEXT	ENDS
;	COMDAT ??$fill_n@PAJIJ@std@@YAXPAJIABJ@Z
_TEXT	SEGMENT PARA USE32 PUBLIC 'CODE'
_TEXT	ENDS
;	COMDAT ??$_Ptr_cat@VITestCase@@@std@@YA?AU_Scalar_ptr_iterator_tag@0@PAPAVITestCase@@0@Z
_TEXT	SEGMENT PARA USE32 PUBLIC 'CODE'
_TEXT	ENDS
;	COMDAT ??$_Destroy_range@PAVITestCase@@V?$allocator@PAVITestCase@@@std@@@std@@YAXPAPAVITestCase@@0AAV?$allocator@PAVITestCase@@@0@U_Scalar_ptr_iterator_tag@0@@Z
_TEXT	SEGMENT PARA USE32 PUBLIC 'CODE'
_TEXT	ENDS
;	COMDAT ??$_Destroy_range@HV?$allocator@H@std@@@std@@YAXPAH0AAV?$allocator@H@0@U_Scalar_ptr_iterator_tag@0@@Z
_TEXT	SEGMENT PARA USE32 PUBLIC 'CODE'
_TEXT	ENDS
;	COMDAT ??$_Destroy_range@MV?$allocator@M@std@@@std@@YAXPAM0AAV?$allocator@M@0@U_Scalar_ptr_iterator_tag@0@@Z
_TEXT	SEGMENT PARA USE32 PUBLIC 'CODE'
_TEXT	ENDS
;	COMDAT ??$_Destroy@UtagDROPITEM@@@std@@YAXPAUtagDROPITEM@@@Z
_TEXT	SEGMENT PARA USE32 PUBLIC 'CODE'
_TEXT	ENDS
;	COMDAT ?_Ptr_cat@std@@YA?AU_Scalar_ptr_iterator_tag@1@PAM0@Z
_TEXT	SEGMENT PARA USE32 PUBLIC 'CODE'
_TEXT	ENDS
;	COMDAT ?_Ptr_cat@std@@YA?AU_Scalar_ptr_iterator_tag@1@PAH0@Z
_TEXT	SEGMENT PARA USE32 PUBLIC 'CODE'
_TEXT	ENDS
;	COMDAT __CTA2?AVbad_weak_ptr@boost@@
xdata$x	SEGMENT DWORD USE32 PUBLIC 'CONST'
xdata$x	ENDS
;	COMDAT __CT??_R0?AVexception@@@8??0exception@@QAE@ABV0@@Z12
xdata$x	SEGMENT DWORD USE32 PUBLIC 'CONST'
xdata$x	ENDS
;	COMDAT ??_R0?AVexception@@@8
_DATA	SEGMENT DWORD USE32 PUBLIC 'DATA'
_DATA	ENDS
;	COMDAT __CT??_R0?AVbad_weak_ptr@boost@@@8??0bad_weak_ptr@boost@@QAE@ABV01@@Z12
xdata$x	SEGMENT DWORD USE32 PUBLIC 'CONST'
xdata$x	ENDS
;	COMDAT ??_R0?AVbad_weak_ptr@boost@@@8
_DATA	SEGMENT DWORD USE32 PUBLIC 'DATA'
_DATA	ENDS
;	COMDAT __TI2?AVbad_weak_ptr@boost@@
xdata$x	SEGMENT DWORD USE32 PUBLIC 'CONST'
xdata$x	ENDS
;	COMDAT ?_Ptr_cat@std@@YA?AU_Scalar_ptr_iterator_tag@1@PAJ0@Z
_TEXT	SEGMENT PARA USE32 PUBLIC 'CODE'
_TEXT	ENDS
;	COMDAT ??9const_iterator@?$_Tree@V?$_Tmap_traits@KU_Friend@@U?$less@K@std@@V?$allocator@U?$pair@$$CBKU_Friend@@@std@@@3@$0A@@std@@@std@@QBE_NABV012@@Z
_TEXT	SEGMENT PARA USE32 PUBLIC 'CODE'
_TEXT	ENDS
;	COMDAT ??8const_iterator@?$_Tree@V?$_Tmap_traits@KU_Friend@@U?$less@K@std@@V?$allocator@U?$pair@$$CBKU_Friend@@@std@@@3@$0A@@std@@@std@@QBE_NABV012@@Z
_TEXT	SEGMENT PARA USE32 PUBLIC 'CODE'
_TEXT	ENDS
;	COMDAT ??Eiterator@?$_Tree@V?$_Tmap_traits@KU_Friend@@U?$less@K@std@@V?$allocator@U?$pair@$$CBKU_Friend@@@std@@@3@$0A@@std@@@std@@QAEAAV012@XZ
_TEXT	SEGMENT PARA USE32 PUBLIC 'CODE'
_TEXT	ENDS
;	COMDAT ??Econst_iterator@?$_Tree@V?$_Tmap_traits@KU_Friend@@U?$less@K@std@@V?$allocator@U?$pair@$$CBKU_Friend@@@std@@@3@$0A@@std@@@std@@QAEAAV012@XZ
_TEXT	SEGMENT PARA USE32 PUBLIC 'CODE'
_TEXT	ENDS
;	COMDAT ?_Inc@const_iterator@?$_Tree@V?$_Tmap_traits@KU_Friend@@U?$less@K@std@@V?$allocator@U?$pair@$$CBKU_Friend@@@std@@@3@$0A@@std@@@std@@QAEXXZ
_TEXT	SEGMENT PARA USE32 PUBLIC 'CODE'
_TEXT	ENDS
;	COMDAT ?_Min@?$_Tree@V?$_Tmap_traits@KU_Friend@@U?$less@K@std@@V?$allocator@U?$pair@$$CBKU_Friend@@@std@@@3@$0A@@std@@@std@@KAPAU_Node@?$_Tree_nod@V?$_Tmap_traits@KU_Friend@@U?$less@K@std@@V?$allocator@U?$pair@$$CBKU_Friend@@@std@@@3@$0A@@std@@@2@PAU342@@Z
_TEXT	SEGMENT PARA USE32 PUBLIC 'CODE'
_TEXT	ENDS
;	COMDAT ?_Left@?$_Tree@V?$_Tmap_traits@KU_Friend@@U?$less@K@std@@V?$allocator@U?$pair@$$CBKU_Friend@@@std@@@3@$0A@@std@@@std@@KAAAPAU_Node@?$_Tree_nod@V?$_Tmap_traits@KU_Friend@@U?$less@K@std@@V?$allocator@U?$pair@$$CBKU_Friend@@@std@@@3@$0A@@std@@@2@PAU342@@Z
_TEXT	SEGMENT PARA USE32 PUBLIC 'CODE'
_TEXT	ENDS
;	COMDAT ?_Isnil@?$_Tree@V?$_Tmap_traits@KU_Friend@@U?$less@K@std@@V?$allocator@U?$pair@$$CBKU_Friend@@@std@@@3@$0A@@std@@@std@@KAAADPAU_Node@?$_Tree_nod@V?$_Tmap_traits@KU_Friend@@U?$less@K@std@@V?$allocator@U?$pair@$$CBKU_Friend@@@std@@@3@$0A@@std@@@2@@Z
_TEXT	SEGMENT PARA USE32 PUBLIC 'CODE'
_TEXT	ENDS
;	COMDAT ?_Parent@?$_Tree@V?$_Tmap_traits@KU_Friend@@U?$less@K@std@@V?$allocator@U?$pair@$$CBKU_Friend@@@std@@@3@$0A@@std@@@std@@KAAAPAU_Node@?$_Tree_nod@V?$_Tmap_traits@KU_Friend@@U?$less@K@std@@V?$allocator@U?$pair@$$CBKU_Friend@@@std@@@3@$0A@@std@@@2@PAU342@@Z
_TEXT	SEGMENT PARA USE32 PUBLIC 'CODE'
_TEXT	ENDS
;	COMDAT ?_Right@?$_Tree@V?$_Tmap_traits@KU_Friend@@U?$less@K@std@@V?$allocator@U?$pair@$$CBKU_Friend@@@std@@@3@$0A@@std@@@std@@KAAAPAU_Node@?$_Tree_nod@V?$_Tmap_traits@KU_Friend@@U?$less@K@std@@V?$allocator@U?$pair@$$CBKU_Friend@@@std@@@3@$0A@@std@@@2@PAU342@@Z
_TEXT	SEGMENT PARA USE32 PUBLIC 'CODE'
_TEXT	ENDS
;	COMDAT ?_Psave@?$_Facetptr@V?$ctype@G@std@@@std@@2PBVfacet@locale@2@B
_DATA	SEGMENT DWORD USE32 PUBLIC 'DATA'
_DATA	ENDS
;	COMDAT ?_Psave@?$_Facetptr@V?$ctype@D@std@@@std@@2PBVfacet@locale@2@B
_DATA	SEGMENT DWORD USE32 PUBLIC 'DATA'
_DATA	ENDS
;	COMDAT ??3@YAXPAX0@Z
_TEXT	SEGMENT PARA USE32 PUBLIC 'CODE'
_TEXT	ENDS
;	COMDAT ??2@YAPAXIPAX@Z
_TEXT	SEGMENT PARA USE32 PUBLIC 'CODE'
_TEXT	ENDS
;	COMDAT ??_C@_0BD@OLBABOEK@vector?$DMT?$DO?5too?5long?$AA@
CONST	SEGMENT DWORD USE32 PUBLIC 'CONST'
CONST	ENDS
;	COMDAT __TI3?AVlength_error@std@@
xdata$x	SEGMENT DWORD USE32 PUBLIC 'CONST'
xdata$x	ENDS
;	COMDAT ??1length_error@std@@UAE@XZ
_TEXT	SEGMENT PARA USE32 PUBLIC 'CODE'
_TEXT	ENDS
;	COMDAT ??_7length_error@std@@6B@
CONST	SEGMENT DWORD USE32 PUBLIC 'CONST'
CONST	ENDS
;	COMDAT ??_Glength_error@std@@UAEPAXI@Z
_TEXT	SEGMENT PARA USE32 PUBLIC 'CODE'
_TEXT	ENDS
;	COMDAT ?what@logic_error@std@@UBEPBDXZ
_TEXT	SEGMENT PARA USE32 PUBLIC 'CODE'
_TEXT	ENDS
;	COMDAT ?c_str@?$basic_string@DU?$char_traits@D@std@@V?$allocator@D@2@@std@@QBEPBDXZ
_TEXT	SEGMENT PARA USE32 PUBLIC 'CODE'
_TEXT	ENDS
;	COMDAT ??1logic_error@std@@UAE@XZ
_TEXT	SEGMENT PARA USE32 PUBLIC 'CODE'
_TEXT	ENDS
;	COMDAT ??_7logic_error@std@@6B@
CONST	SEGMENT DWORD USE32 PUBLIC 'CONST'
CONST	ENDS
;	COMDAT ??_Glogic_error@std@@UAEPAXI@Z
_TEXT	SEGMENT PARA USE32 PUBLIC 'CODE'
_TEXT	ENDS
;	COMDAT __CTA3?AVlength_error@std@@
xdata$x	SEGMENT DWORD USE32 PUBLIC 'CONST'
xdata$x	ENDS
;	COMDAT __CT??_R0?AVlength_error@std@@@8??0length_error@std@@QAE@ABV01@@Z40
xdata$x	SEGMENT DWORD USE32 PUBLIC 'CONST'
xdata$x	ENDS
;	COMDAT ??_R0?AVlength_error@std@@@8
_DATA	SEGMENT DWORD USE32 PUBLIC 'DATA'
_DATA	ENDS
;	COMDAT ??0length_error@std@@QAE@ABV01@@Z
_TEXT	SEGMENT PARA USE32 PUBLIC 'CODE'
_TEXT	ENDS
;	COMDAT ??0logic_error@std@@QAE@ABV01@@Z
_TEXT	SEGMENT PARA USE32 PUBLIC 'CODE'
_TEXT	ENDS
;	COMDAT ??0?$basic_string@DU?$char_traits@D@std@@V?$allocator@D@2@@std@@QAE@ABV01@@Z
_TEXT	SEGMENT PARA USE32 PUBLIC 'CODE'
_TEXT	ENDS
;	COMDAT ??0?$_String_val@DV?$allocator@D@std@@@std@@IAE@V?$allocator@D@1@@Z
_TEXT	SEGMENT PARA USE32 PUBLIC 'CODE'
_TEXT	ENDS
;	COMDAT ??0?$allocator@D@std@@QAE@ABV01@@Z
_TEXT	SEGMENT PARA USE32 PUBLIC 'CODE'
_TEXT	ENDS
;	COMDAT ?_Tidy@?$basic_string@DU?$char_traits@D@std@@V?$allocator@D@2@@std@@IAEX_NI@Z
_TEXT	SEGMENT PARA USE32 PUBLIC 'CODE'
_TEXT	ENDS
;	COMDAT ?copy@?$char_traits@D@std@@SAPADPADPBDI@Z
_TEXT	SEGMENT PARA USE32 PUBLIC 'CODE'
_TEXT	ENDS
;	COMDAT ?deallocate@?$allocator@D@std@@QAEXPADI@Z
_TEXT	SEGMENT PARA USE32 PUBLIC 'CODE'
_TEXT	ENDS
;	COMDAT ?_Eos@?$basic_string@DU?$char_traits@D@std@@V?$allocator@D@2@@std@@IAEXI@Z
_TEXT	SEGMENT PARA USE32 PUBLIC 'CODE'
_TEXT	ENDS
;	COMDAT ?assign@?$char_traits@D@std@@SAXAADABD@Z
_TEXT	SEGMENT PARA USE32 PUBLIC 'CODE'
_TEXT	ENDS
;	COMDAT ?_Myptr@?$basic_string@DU?$char_traits@D@std@@V?$allocator@D@2@@std@@QAEPADXZ
_TEXT	SEGMENT PARA USE32 PUBLIC 'CODE'
_TEXT	ENDS
;	COMDAT ?assign@?$basic_string@DU?$char_traits@D@std@@V?$allocator@D@2@@std@@QAEAAV12@ABV12@II@Z
_TEXT	SEGMENT PARA USE32 PUBLIC 'CODE'
_TEXT	ENDS
;	COMDAT ?erase@?$basic_string@DU?$char_traits@D@std@@V?$allocator@D@2@@std@@QAEAAV12@II@Z
_TEXT	SEGMENT PARA USE32 PUBLIC 'CODE'
_TEXT	ENDS
;	COMDAT ?move@?$char_traits@D@std@@SAPADPADPBDI@Z
_TEXT	SEGMENT PARA USE32 PUBLIC 'CODE'
_TEXT	ENDS
;	COMDAT ?_Grow@?$basic_string@DU?$char_traits@D@std@@V?$allocator@D@2@@std@@IAE_NI_N@Z
_TEXT	SEGMENT PARA USE32 PUBLIC 'CODE'
_TEXT	ENDS
;	COMDAT ?max_size@?$basic_string@DU?$char_traits@D@std@@V?$allocator@D@2@@std@@QBEIXZ
_TEXT	SEGMENT PARA USE32 PUBLIC 'CODE'
_TEXT	ENDS
;	COMDAT ?max_size@?$allocator@D@std@@QBEIXZ
_TEXT	SEGMENT PARA USE32 PUBLIC 'CODE'
_TEXT	ENDS
;	COMDAT ?_Copy@?$basic_string@DU?$char_traits@D@std@@V?$allocator@D@2@@std@@IAEXII@Z
_TEXT	SEGMENT PARA USE32 PUBLIC 'CODE'
_TEXT	ENDS
;	COMDAT ?allocate@?$allocator@D@std@@QAEPADI@Z
_TEXT	SEGMENT PARA USE32 PUBLIC 'CODE'
_TEXT	ENDS
;	COMDAT ??$_Allocate@D@std@@YAPADIPAD@Z
_TEXT	SEGMENT PARA USE32 PUBLIC 'CODE'
_TEXT	ENDS
;	COMDAT ?npos@?$basic_string@DU?$char_traits@D@std@@V?$allocator@D@2@@std@@2IB
CONST	SEGMENT DWORD USE32 PUBLIC 'CONST'
CONST	ENDS
;	COMDAT __CT??_R0?AVlogic_error@std@@@8??0logic_error@std@@QAE@ABV01@@Z40
xdata$x	SEGMENT DWORD USE32 PUBLIC 'CONST'
xdata$x	ENDS
;	COMDAT ??_R0?AVlogic_error@std@@@8
_DATA	SEGMENT DWORD USE32 PUBLIC 'DATA'
_DATA	ENDS
;	COMDAT ??_C@_0BE@JONHPENG@map?1set?$DMT?$DO?5too?5long?$AA@
CONST	SEGMENT DWORD USE32 PUBLIC 'CONST'
CONST	ENDS
;	COMDAT ??0length_error@std@@QAE@ABV?$basic_string@DU?$char_traits@D@std@@V?$allocator@D@2@@1@@Z
_TEXT	SEGMENT PARA USE32 PUBLIC 'CODE'
_TEXT	ENDS
;	COMDAT ??0logic_error@std@@QAE@ABV?$basic_string@DU?$char_traits@D@std@@V?$allocator@D@2@@1@@Z
_TEXT	SEGMENT PARA USE32 PUBLIC 'CODE'
_TEXT	ENDS
;	COMDAT ?compare@?$char_traits@D@std@@SAHPBD0I@Z
_TEXT	SEGMENT PARA USE32 PUBLIC 'CODE'
_TEXT	ENDS
;	COMDAT ??$swap@D@std@@YAXAAD0@Z
_TEXT	SEGMENT PARA USE32 PUBLIC 'CODE'
_TEXT	ENDS
;	COMDAT __TI3?AVout_of_range@std@@
xdata$x	SEGMENT DWORD USE32 PUBLIC 'CONST'
xdata$x	ENDS
;	COMDAT ??1out_of_range@std@@UAE@XZ
_TEXT	SEGMENT PARA USE32 PUBLIC 'CODE'
_TEXT	ENDS
;	COMDAT ??_7out_of_range@std@@6B@
CONST	SEGMENT DWORD USE32 PUBLIC 'CONST'
CONST	ENDS
;	COMDAT ??_Gout_of_range@std@@UAEPAXI@Z
_TEXT	SEGMENT PARA USE32 PUBLIC 'CODE'
_TEXT	ENDS
;	COMDAT __CTA3?AVout_of_range@std@@
xdata$x	SEGMENT DWORD USE32 PUBLIC 'CONST'
xdata$x	ENDS
;	COMDAT __CT??_R0?AVout_of_range@std@@@8??0out_of_range@std@@QAE@ABV01@@Z40
xdata$x	SEGMENT DWORD USE32 PUBLIC 'CONST'
xdata$x	ENDS
;	COMDAT ??_R0?AVout_of_range@std@@@8
_DATA	SEGMENT DWORD USE32 PUBLIC 'DATA'
_DATA	ENDS
;	COMDAT ??0out_of_range@std@@QAE@ABV01@@Z
_TEXT	SEGMENT PARA USE32 PUBLIC 'CODE'
_TEXT	ENDS
;	COMDAT ??1?$basic_string@DU?$char_traits@D@std@@V?$allocator@D@2@@std@@QAE@XZ
_TEXT	SEGMENT PARA USE32 PUBLIC 'CODE'
_TEXT	ENDS
;	COMDAT ??_C@_0BM@PAPJHAGI@invalid?5map?1set?$DMT?$DO?5iterator?$AA@
CONST	SEGMENT DWORD USE32 PUBLIC 'CONST'
CONST	ENDS
;	COMDAT ??0?$basic_string@DU?$char_traits@D@std@@V?$allocator@D@2@@std@@QAE@PBD@Z
_TEXT	SEGMENT PARA USE32 PUBLIC 'CODE'
_TEXT	ENDS
;	COMDAT ??0?$allocator@D@std@@QAE@XZ
_TEXT	SEGMENT PARA USE32 PUBLIC 'CODE'
_TEXT	ENDS
;	COMDAT ?assign@?$basic_string@DU?$char_traits@D@std@@V?$allocator@D@2@@std@@QAEAAV12@PBD@Z
_TEXT	SEGMENT PARA USE32 PUBLIC 'CODE'
_TEXT	ENDS
;	COMDAT ?assign@?$basic_string@DU?$char_traits@D@std@@V?$allocator@D@2@@std@@QAEAAV12@PBDI@Z
_TEXT	SEGMENT PARA USE32 PUBLIC 'CODE'
_TEXT	ENDS
;	COMDAT ?_Inside@?$basic_string@DU?$char_traits@D@std@@V?$allocator@D@2@@std@@IAE_NPBD@Z
_TEXT	SEGMENT PARA USE32 PUBLIC 'CODE'
_TEXT	ENDS
;	COMDAT ?length@?$char_traits@D@std@@SAIPBD@Z
_TEXT	SEGMENT PARA USE32 PUBLIC 'CODE'
_TEXT	ENDS
;	COMDAT ??0out_of_range@std@@QAE@ABV?$basic_string@DU?$char_traits@D@std@@V?$allocator@D@2@@1@@Z
_TEXT	SEGMENT PARA USE32 PUBLIC 'CODE'
_TEXT	ENDS
;	COMDAT ??R?$less@K@std@@QBE_NABK0@Z
_TEXT	SEGMENT PARA USE32 PUBLIC 'CODE'
_TEXT	ENDS
;	COMDAT ?_Myptr@?$basic_string@DU?$char_traits@D@std@@V?$allocator@D@2@@std@@QBEPBDXZ
_TEXT	SEGMENT PARA USE32 PUBLIC 'CODE'
_TEXT	ENDS
;	COMDAT ?size@?$basic_string@DU?$char_traits@D@std@@V?$allocator@D@2@@std@@QBEIXZ
_TEXT	SEGMENT PARA USE32 PUBLIC 'CODE'
_TEXT	ENDS
;	COMDAT ?ReleaseBufferSetLength@?$CSimpleStringT@D$0A@@ATL@@QAEXH@Z
_TEXT	SEGMENT PARA USE32 PUBLIC 'CODE'
_TEXT	ENDS
;	COMDAT ?SetLength@?$CSimpleStringT@D$0A@@ATL@@AAEXH@Z
_TEXT	SEGMENT PARA USE32 PUBLIC 'CODE'
_TEXT	ENDS
;	COMDAT ?AtlThrow@ATL@@YGXJ@Z
_TEXT	SEGMENT PARA USE32 PUBLIC 'CODE'
_TEXT	ENDS
;	COMDAT ?GetData@?$CSimpleStringT@D$0A@@ATL@@ABEPAUCStringData@2@XZ
_TEXT	SEGMENT PARA USE32 PUBLIC 'CODE'
_TEXT	ENDS
;	COMDAT ?GetBuffer@?$CSimpleStringT@D$0A@@ATL@@QAEPADH@Z
_TEXT	SEGMENT PARA USE32 PUBLIC 'CODE'
_TEXT	ENDS
;	COMDAT ?PrepareWrite@?$CSimpleStringT@D$0A@@ATL@@AAEPADH@Z
_TEXT	SEGMENT PARA USE32 PUBLIC 'CODE'
_TEXT	ENDS
;	COMDAT ?PrepareWrite2@?$CSimpleStringT@D$0A@@ATL@@AAEXH@Z
_TEXT	SEGMENT PARA USE32 PUBLIC 'CODE'
_TEXT	ENDS
;	COMDAT ?IsShared@CStringData@ATL@@QBE_NXZ
_TEXT	SEGMENT PARA USE32 PUBLIC 'CODE'
_TEXT	ENDS
;	COMDAT ?Fork@?$CSimpleStringT@D$0A@@ATL@@AAEXH@Z
_TEXT	SEGMENT PARA USE32 PUBLIC 'CODE'
_TEXT	ENDS
;	COMDAT ?ThrowMemoryException@?$CSimpleStringT@D$0A@@ATL@@KAXXZ
_TEXT	SEGMENT PARA USE32 PUBLIC 'CODE'
_TEXT	ENDS
;	COMDAT ?CopyChars@?$CSimpleStringT@D$0A@@ATL@@SAXPADPBDH@Z
_TEXT	SEGMENT PARA USE32 PUBLIC 'CODE'
_TEXT	ENDS
;	COMDAT ?data@CStringData@ATL@@QAEPAXXZ
_TEXT	SEGMENT PARA USE32 PUBLIC 'CODE'
_TEXT	ENDS
;	COMDAT ?Release@CStringData@ATL@@QAEXXZ
_TEXT	SEGMENT PARA USE32 PUBLIC 'CODE'
_TEXT	ENDS
;	COMDAT ?Attach@?$CSimpleStringT@D$0A@@ATL@@AAEXPAUCStringData@2@@Z
_TEXT	SEGMENT PARA USE32 PUBLIC 'CODE'
_TEXT	ENDS
;	COMDAT ?Reallocate@?$CSimpleStringT@D$0A@@ATL@@AAEXH@Z
_TEXT	SEGMENT PARA USE32 PUBLIC 'CODE'
_TEXT	ENDS
;	COMDAT ?StringFindString@?$ChTraitsCRT@D@ATL@@SAPBDPBD0@Z
_TEXT	SEGMENT PARA USE32 PUBLIC 'CODE'
_TEXT	ENDS
;	COMDAT ?GetLength@?$CSimpleStringT@D$0A@@ATL@@QBEHXZ
_TEXT	SEGMENT PARA USE32 PUBLIC 'CODE'
_TEXT	ENDS
;	COMDAT ?GetString@?$CSimpleStringT@D$0A@@ATL@@QBEPBDXZ
_TEXT	SEGMENT PARA USE32 PUBLIC 'CODE'
_TEXT	ENDS
;	COMDAT ?xRand@@YAKXZ
_TEXT	SEGMENT PARA USE32 PUBLIC 'CODE'
_TEXT	ENDS
;	COMDAT ?SetSerialNumber@CItemBase@@QAEXK@Z
_TEXT	SEGMENT PARA USE32 PUBLIC 'CODE'
_TEXT	ENDS
;	COMDAT ?GetText@CProject@@QAEPBDK@Z
_TEXT	SEGMENT PARA USE32 PUBLIC 'CODE'
_TEXT	ENDS
;	COMDAT ??_C@_00CNPNBAHC@?$AA@
CONST	SEGMENT DWORD USE32 PUBLIC 'CONST'
CONST	ENDS
;	COMDAT ?GetAt@?$CFixedArray@UtagColorText@@@@QAEPAUtagColorText@@K@Z
_TEXT	SEGMENT PARA USE32 PUBLIC 'CODE'
_TEXT	ENDS
;	COMDAT ??1CMclAutoLock@@QAE@XZ
_TEXT	SEGMENT PARA USE32 PUBLIC 'CODE'
_TEXT	ENDS
;	COMDAT ?Leave@CMclCritSec@@QAEXXZ
_TEXT	SEGMENT PARA USE32 PUBLIC 'CODE'
_TEXT	ENDS
;	COMDAT ??0CMclAutoLock@@QAE@AAVCMclCritSec@@@Z
_TEXT	SEGMENT PARA USE32 PUBLIC 'CODE'
_TEXT	ENDS
;	COMDAT ?Enter@CMclCritSec@@QAEXXZ
_TEXT	SEGMENT PARA USE32 PUBLIC 'CODE'
_TEXT	ENDS
;	COMDAT ?sCoupleHelper@?1??Instance@CCoupleHelper@@SAPAV2@XZ@4V2@A
_BSS	SEGMENT DWORD USE32 PUBLIC 'BSS'
_BSS	ENDS
;	COMDAT ?$S1@?1??Instance@CCoupleHelper@@SAPAV2@XZ@4IA
_BSS	SEGMENT DWORD USE32 PUBLIC 'BSS'
_BSS	ENDS
;	COMDAT ??_7CCoupleHelper@@6B@
CONST	SEGMENT DWORD USE32 PUBLIC 'CONST'
CONST	ENDS
;	COMDAT ??_7CCoupleController@@6B@
CONST	SEGMENT DWORD USE32 PUBLIC 'CONST'
CONST	ENDS
;	COMDAT ??4?$CStringT@DV?$StrTraitMFC@DV?$ChTraitsCRT@D@ATL@@@@@ATL@@QAEAAV01@PBD@Z
_TEXT	SEGMENT PARA USE32 PUBLIC 'CODE'
_TEXT	ENDS
;	COMDAT ??4?$CSimpleStringT@D$0A@@ATL@@QAEAAV01@PBD@Z
_TEXT	SEGMENT PARA USE32 PUBLIC 'CODE'
_TEXT	ENDS
;	COMDAT ?SetString@?$CSimpleStringT@D$0A@@ATL@@QAEXPBD@Z
_TEXT	SEGMENT PARA USE32 PUBLIC 'CODE'
_TEXT	ENDS
;	COMDAT ?SetString@?$CSimpleStringT@D$0A@@ATL@@QAEXPBDH@Z
_TEXT	SEGMENT PARA USE32 PUBLIC 'CODE'
_TEXT	ENDS
;	COMDAT ?Empty@?$CSimpleStringT@D$0A@@ATL@@QAEXXZ
_TEXT	SEGMENT PARA USE32 PUBLIC 'CODE'
_TEXT	ENDS
;	COMDAT ?IsLocked@CStringData@ATL@@QBE_NXZ
_TEXT	SEGMENT PARA USE32 PUBLIC 'CODE'
_TEXT	ENDS
;	COMDAT ?CopyCharsOverlapped@?$CSimpleStringT@D$0A@@ATL@@SAXPADPBDH@Z
_TEXT	SEGMENT PARA USE32 PUBLIC 'CODE'
_TEXT	ENDS
;	COMDAT ?StringLength@?$CSimpleStringT@D$0A@@ATL@@SAHPBD@Z
_TEXT	SEGMENT PARA USE32 PUBLIC 'CODE'
_TEXT	ENDS
;	COMDAT ??B?$CSimpleStringT@D$0A@@ATL@@QBEPBDXZ
_TEXT	SEGMENT PARA USE32 PUBLIC 'CODE'
_TEXT	ENDS
;	COMDAT ??5@YAAAVCAr@@AAV0@AAUD3DXVECTOR3@@@Z
_TEXT	SEGMENT PARA USE32 PUBLIC 'CODE'
_TEXT	ENDS
;	COMDAT ??5CAr@@QAEAAV0@AAM@Z
_TEXT	SEGMENT PARA USE32 PUBLIC 'CODE'
_TEXT	ENDS
;	COMDAT ??5CAr@@QAEAAV0@AAK@Z
_TEXT	SEGMENT PARA USE32 PUBLIC 'CODE'
_TEXT	ENDS
;	COMDAT ??5CAr@@QAEAAV0@AAJ@Z
_TEXT	SEGMENT PARA USE32 PUBLIC 'CODE'
_TEXT	ENDS
;	COMDAT ?time_null@@YAJXZ
_TEXT	SEGMENT PARA USE32 PUBLIC 'CODE'
_TEXT	ENDS
;	COMDAT ??6CAr@@QAEAAV0@K@Z
_TEXT	SEGMENT PARA USE32 PUBLIC 'CODE'
_TEXT	ENDS
;	COMDAT ??6CAr@@QAEAAV0@J@Z
_TEXT	SEGMENT PARA USE32 PUBLIC 'CODE'
_TEXT	ENDS
;	COMDAT ??6@YAAAVCAr@@AAV0@UD3DXVECTOR3@@@Z
_TEXT	SEGMENT PARA USE32 PUBLIC 'CODE'
_TEXT	ENDS
;	COMDAT ??6CAr@@QAEAAV0@M@Z
_TEXT	SEGMENT PARA USE32 PUBLIC 'CODE'
_TEXT	ENDS
;	COMDAT ?IsStoring@CAr@@QBEHXZ
_TEXT	SEGMENT PARA USE32 PUBLIC 'CODE'
_TEXT	ENDS
;	COMDAT ?GetTime@CTime@ATL@@QBE_JXZ
_TEXT	SEGMENT PARA USE32 PUBLIC 'CODE'
_TEXT	ENDS
;	COMDAT ??0CTimeSpan@ATL@@QAE@JHHH@Z
_TEXT	SEGMENT PARA USE32 PUBLIC 'CODE'
_TEXT	ENDS
;	COMDAT ?GetTickCount@CTime@ATL@@SG?AV12@XZ
_TEXT	SEGMENT PARA USE32 PUBLIC 'CODE'
_TEXT	ENDS
;	COMDAT ??0CTime@ATL@@QAE@_J@Z
_TEXT	SEGMENT PARA USE32 PUBLIC 'CODE'
_TEXT	ENDS
;	COMDAT ??HCTime@ATL@@QBE?AV01@VCTimeSpan@1@@Z
_TEXT	SEGMENT PARA USE32 PUBLIC 'CODE'
_TEXT	ENDS
;	COMDAT ?GetTimeSpan@CTimeSpan@ATL@@QBE_JXZ
_TEXT	SEGMENT PARA USE32 PUBLIC 'CODE'
_TEXT	ENDS
;	COMDAT ?GetItemProp@CProject@@QAEPAUItemProp@@H@Z
_TEXT	SEGMENT PARA USE32 PUBLIC 'CODE'
_TEXT	ENDS
;	COMDAT ?GetAt@?$CFixedArray@UItemProp@@@@QAEPAUItemProp@@K@Z
_TEXT	SEGMENT PARA USE32 PUBLIC 'CODE'
_TEXT	ENDS
;	COMDAT ??0D3DXVECTOR3@@QAE@MMM@Z
_TEXT	SEGMENT PARA USE32 PUBLIC 'CODE'
_TEXT	ENDS
;	COMDAT ??5CAr@@QAEAAV0@AAH@Z
_TEXT	SEGMENT PARA USE32 PUBLIC 'CODE'
_TEXT	ENDS
;	COMDAT ??6CAr@@QAEAAV0@H@Z
_TEXT	SEGMENT PARA USE32 PUBLIC 'CODE'
_TEXT	ENDS
;	COMDAT ??_7CLordSkillComponentExecutable@@6B@
CONST	SEGMENT DWORD USE32 PUBLIC 'CONST'
CONST	ENDS
;	COMDAT ??_7bad_weak_ptr@boost@@6B@
CONST	SEGMENT DWORD USE32 PUBLIC 'CONST'
CONST	ENDS
;	COMDAT ??_7sp_counted_base@detail@boost@@6B@
CONST	SEGMENT DWORD USE32 PUBLIC 'CONST'
CONST	ENDS
;	COMDAT ??_7CCouple@@6B@
CONST	SEGMENT DWORD USE32 PUBLIC 'CONST'
CONST	ENDS
;	COMDAT ??_7CCoupleTestCase@@6B@
CONST	SEGMENT DWORD USE32 PUBLIC 'CONST'
CONST	ENDS
;	COMDAT ??_7CTestCaseMgr@@6B@
CONST	SEGMENT DWORD USE32 PUBLIC 'CONST'
CONST	ENDS
;	COMDAT ??_7ITestCase@@6B@
CONST	SEGMENT DWORD USE32 PUBLIC 'CONST'
CONST	ENDS
sxdata	SEGMENT DWORD USE32 'SXDATA'
sxdata	ENDS
FLAT	GROUP _DATA, CONST, _BSS
	ASSUME	CS: FLAT, DS: FLAT, SS: FLAT
endif

INCLUDELIB LIBCMT
INCLUDELIB OLDNAMES

PUBLIC	?GetQueryObject@CDbController@@QAEPAVCQuery@@XZ	; CDbController::GetQueryObject
; Function compile flags: /Ogty
; File c:\documents and settings\test\mes documents\source\virtuos_v17\build\program\databaseserver\dbcontroller.h
;	COMDAT ?GetQueryObject@CDbController@@QAEPAVCQuery@@XZ
_TEXT	SEGMENT
?GetQueryObject@CDbController@@QAEPAVCQuery@@XZ PROC NEAR ; CDbController::GetQueryObject, COMDAT
; _this$ = ecx

; 20   : 	CQuery*	GetQueryObject( void )	{	return m_pQuery;	}

  00000	8b 41 0c	 mov	 eax, DWORD PTR [ecx+12]
  00003	c3		 ret	 0
?GetQueryObject@CDbController@@QAEPAVCQuery@@XZ ENDP	; CDbController::GetQueryObject
_TEXT	ENDS
PUBLIC	??2@YAPAXIPAX@Z					; operator new
; Function compile flags: /Ogty
; File c:\program files\microsoft visual studio .net 2003\vc7\include\new.h
;	COMDAT ??2@YAPAXIPAX@Z
_TEXT	SEGMENT
___formal$ = 8						; size = 4
__P$ = 12						; size = 4
??2@YAPAXIPAX@Z PROC NEAR				; operator new, COMDAT

; 109  :         {return (_P); }

  00000	8b 44 24 08	 mov	 eax, DWORD PTR __P$[esp-4]
  00004	c3		 ret	 0
??2@YAPAXIPAX@Z ENDP					; operator new
_TEXT	ENDS
PUBLIC	??3@YAXPAX0@Z					; operator delete
; Function compile flags: /Ogty
;	COMDAT ??3@YAXPAX0@Z
_TEXT	SEGMENT
___formal$ = 8						; size = 4
___formal$ = 12						; size = 4
??3@YAXPAX0@Z PROC NEAR					; operator delete, COMDAT

; 112  :         {return; }

  00000	c3		 ret	 0
??3@YAXPAX0@Z ENDP					; operator delete
_TEXT	ENDS
PUBLIC	?GetFirst@CCouple@@QAEKXZ			; CCouple::GetFirst
; Function compile flags: /Ogty
; File c:\documents and settings\test\mes documents\source\virtuos_v17\build\program\_common\couple.h
;	COMDAT ?GetFirst@CCouple@@QAEKXZ
_TEXT	SEGMENT
?GetFirst@CCouple@@QAEKXZ PROC NEAR			; CCouple::GetFirst, COMDAT
; _this$ = ecx

; 28   : 	u_long	GetFirst()	{	return m_idFirst;	}

  00000	8b 41 0c	 mov	 eax, DWORD PTR [ecx+12]
  00003	c3		 ret	 0
?GetFirst@CCouple@@QAEKXZ ENDP				; CCouple::GetFirst
_TEXT	ENDS
PUBLIC	?GetSecond@CCouple@@QAEKXZ			; CCouple::GetSecond
; Function compile flags: /Ogty
;	COMDAT ?GetSecond@CCouple@@QAEKXZ
_TEXT	SEGMENT
?GetSecond@CCouple@@QAEKXZ PROC NEAR			; CCouple::GetSecond, COMDAT
; _this$ = ecx

; 29   : 	u_long	GetSecond()		{	return m_idSecond;	}

  00000	8b 41 10	 mov	 eax, DWORD PTR [ecx+16]
  00003	c3		 ret	 0
?GetSecond@CCouple@@QAEKXZ ENDP				; CCouple::GetSecond
_TEXT	ENDS
PUBLIC	?Couple@CCoupleHelper@@QAEXPAVCCouple@@@Z	; CCoupleHelper::Couple
EXTRN	?Couple@CCoupleMgr@@QAEXPAVCCouple@@@Z:NEAR	; CCoupleMgr::Couple
; Function compile flags: /Ogty
; File c:\documents and settings\test\mes documents\source\virtuos_v17\build\program\databaseserver\couplehelper.h
;	COMDAT ?Couple@CCoupleHelper@@QAEXPAVCCouple@@@Z
_TEXT	SEGMENT
_pCouple$ = 8						; size = 4
?Couple@CCoupleHelper@@QAEXPAVCCouple@@@Z PROC NEAR	; CCoupleHelper::Couple, COMDAT
; _this$ = ecx

; 60   : 	void	Couple( CCouple* pCouple )	{	ASSERT( m_pMgr );	m_pMgr->Couple( pCouple );	}

  00000	8b 49 04	 mov	 ecx, DWORD PTR [ecx+4]
  00003	e9 00 00 00 00	 jmp	 ?Couple@CCoupleMgr@@QAEXPAVCCouple@@@Z ; CCoupleMgr::Couple
?Couple@CCoupleHelper@@QAEXPAVCCouple@@@Z ENDP		; CCoupleHelper::Couple
_TEXT	ENDS
PUBLIC	??0CCoupleController@@QAE@PAVCCoupleHelper@@@Z	; CCoupleController::CCoupleController
PUBLIC	?Handler@CCoupleController@@UAEXPAUtagDB_OVERLAPPED_PLUS@@K@Z ; CCoupleController::Handler
PUBLIC	?OnTimer@CCoupleController@@UAEXXZ		; CCoupleController::OnTimer
PUBLIC	??_7CCoupleController@@6B@			; CCoupleController::`vftable'
PUBLIC	??_GCCoupleController@@UAEPAXI@Z		; CCoupleController::`scalar deleting destructor'
EXTRN	??0CDbController@@QAE@XZ:NEAR			; CDbController::CDbController
EXTRN	??_ECCoupleController@@UAEPAXI@Z:NEAR		; CCoupleController::`vector deleting destructor'
;	COMDAT ??_7CCoupleController@@6B@
; File c:\documents and settings\test\mes documents\source\virtuos_v17\build\program\databaseserver\couplehelper.cpp
CONST	SEGMENT
??_7CCoupleController@@6B@ DD FLAT:??_ECCoupleController@@UAEPAXI@Z ; CCoupleController::`vftable'
	DD	FLAT:?Handler@CCoupleController@@UAEXPAUtagDB_OVERLAPPED_PLUS@@K@Z
	DD	FLAT:?OnTimer@CCoupleController@@UAEXXZ
; Function compile flags: /Ogty
CONST	ENDS
;	COMDAT ??0CCoupleController@@QAE@PAVCCoupleHelper@@@Z
_TEXT	SEGMENT
_pHelper$ = 8						; size = 4
??0CCoupleController@@QAE@PAVCCoupleHelper@@@Z PROC NEAR ; CCoupleController::CCoupleController, COMDAT
; _this$ = ecx

; 16   : {

  00000	56		 push	 esi
  00001	8b f1		 mov	 esi, ecx
  00003	e8 00 00 00 00	 call	 ??0CDbController@@QAE@XZ ; CDbController::CDbController
  00008	8b 44 24 08	 mov	 eax, DWORD PTR _pHelper$[esp]
  0000c	89 46 14	 mov	 DWORD PTR [esi+20], eax
  0000f	c7 06 00 00 00
	00		 mov	 DWORD PTR [esi], OFFSET FLAT:??_7CCoupleController@@6B@

; 17   : }

  00015	8b c6		 mov	 eax, esi
  00017	5e		 pop	 esi
  00018	c2 04 00	 ret	 4
??0CCoupleController@@QAE@PAVCCoupleHelper@@@Z ENDP	; CCoupleController::CCoupleController
_TEXT	ENDS
PUBLIC	??1CCoupleController@@UAE@XZ			; CCoupleController::~CCoupleController
EXTRN	??1CDbController@@UAE@XZ:NEAR			; CDbController::~CDbController
; Function compile flags: /Ogty
;	COMDAT ??1CCoupleController@@UAE@XZ
_TEXT	SEGMENT
??1CCoupleController@@UAE@XZ PROC NEAR			; CCoupleController::~CCoupleController, COMDAT
; _this$ = ecx

; 20   : {

  00000	c7 01 00 00 00
	00		 mov	 DWORD PTR [ecx], OFFSET FLAT:??_7CCoupleController@@6B@

; 21   : }

  00006	e9 00 00 00 00	 jmp	 ??1CDbController@@UAE@XZ ; CDbController::~CDbController
??1CCoupleController@@UAE@XZ ENDP			; CCoupleController::~CCoupleController
_TEXT	ENDS
PUBLIC	??_GCQuery@@QAEPAXI@Z				; CQuery::`scalar deleting destructor'
EXTRN	??3@YAXPAX@Z:NEAR				; operator delete
EXTRN	??1CQuery@@QAE@XZ:NEAR				; CQuery::~CQuery
; Function compile flags: /Ogty
;	COMDAT ??_GCQuery@@QAEPAXI@Z
_TEXT	SEGMENT
___flags$ = 8						; size = 4
??_GCQuery@@QAEPAXI@Z PROC NEAR				; CQuery::`scalar deleting destructor', COMDAT
; _this$ = ecx
  00000	56		 push	 esi
  00001	8b f1		 mov	 esi, ecx
  00003	e8 00 00 00 00	 call	 ??1CQuery@@QAE@XZ	; CQuery::~CQuery
  00008	f6 44 24 08 01	 test	 BYTE PTR ___flags$[esp], 1
  0000d	74 09		 je	 SHORT $L207778
  0000f	56		 push	 esi
  00010	e8 00 00 00 00	 call	 ??3@YAXPAX@Z		; operator delete
  00015	83 c4 04	 add	 esp, 4
$L207778:
  00018	8b c6		 mov	 eax, esi
  0001a	5e		 pop	 esi
  0001b	c2 04 00	 ret	 4
??_GCQuery@@QAEPAXI@Z ENDP				; CQuery::`scalar deleting destructor'
_TEXT	ENDS
PUBLIC	?Propose@CCoupleController@@QAEHKJ@Z		; CCoupleController::Propose
PUBLIC	??_C@_0BJ@HLENHNMF@uspAddPropose?5?$CFd?0?5?$CFd?0?5?$CFd?$AA@ ; `string'
PUBLIC	??_C@_0BP@OOKEDFAC@couldn?8t?5execute?5uspAddPropose?$AA@ ; `string'
EXTRN	?Execute@CQuery@@QAAHPBDZZ:NEAR			; CQuery::Execute
EXTRN	?Error@@YAPBDPBDZZ:NEAR				; Error
EXTRN	?g_appInfo@@3UAppInfo@@A:QWORD			; g_appInfo
;	COMDAT ??_C@_0BJ@HLENHNMF@uspAddPropose?5?$CFd?0?5?$CFd?0?5?$CFd?$AA@
; File c:\documents and settings\test\mes documents\source\virtuos_v17\build\program\databaseserver\dbcontroller.h
CONST	SEGMENT
??_C@_0BJ@HLENHNMF@uspAddPropose?5?$CFd?0?5?$CFd?0?5?$CFd?$AA@ DB 'uspAdd'
	DB	'Propose %d, %d, %d', 00H			; `string'
CONST	ENDS
;	COMDAT ??_C@_0BP@OOKEDFAC@couldn?8t?5execute?5uspAddPropose?$AA@
CONST	SEGMENT
??_C@_0BP@OOKEDFAC@couldn?8t?5execute?5uspAddPropose?$AA@ DB 'couldn''t e'
	DB	'xecute uspAddPropose', 00H			; `string'
; Function compile flags: /Ogty
; File c:\documents and settings\test\mes documents\source\virtuos_v17\build\program\databaseserver\couplehelper.cpp
CONST	ENDS
;	COMDAT ?Propose@CCoupleController@@QAEHKJ@Z
_TEXT	SEGMENT
_idProposer$ = 8					; size = 4
_t$ = 12						; size = 4
?Propose@CCoupleController@@QAEHKJ@Z PROC NEAR		; CCoupleController::Propose, COMDAT
; _this$ = ecx

; 63   : 	if( !GetQueryObject()->Execute( "uspAddPropose %d, %d, %d", g_appInfo.dwSys, idProposer, t ) )

  00000	8b 44 24 08	 mov	 eax, DWORD PTR _t$[esp-4]
  00004	8b 54 24 04	 mov	 edx, DWORD PTR _idProposer$[esp-4]
  00008	8b 49 0c	 mov	 ecx, DWORD PTR [ecx+12]
  0000b	50		 push	 eax
  0000c	a1 00 00 00 00	 mov	 eax, DWORD PTR ?g_appInfo@@3UAppInfo@@A
  00011	52		 push	 edx
  00012	50		 push	 eax
  00013	68 00 00 00 00	 push	 OFFSET FLAT:??_C@_0BJ@HLENHNMF@uspAddPropose?5?$CFd?0?5?$CFd?0?5?$CFd?$AA@
  00018	51		 push	 ecx
  00019	e8 00 00 00 00	 call	 ?Execute@CQuery@@QAAHPBDZZ ; CQuery::Execute
  0001e	83 c4 14	 add	 esp, 20			; 00000014H
  00021	85 c0		 test	 eax, eax
  00023	75 12		 jne	 SHORT $L205761

; 64   : 	{
; 65   : 		Error( "couldn't execute uspAddPropose" );

  00025	68 00 00 00 00	 push	 OFFSET FLAT:??_C@_0BP@OOKEDFAC@couldn?8t?5execute?5uspAddPropose?$AA@
  0002a	e8 00 00 00 00	 call	 ?Error@@YAPBDPBDZZ	; Error
  0002f	83 c4 04	 add	 esp, 4

; 66   : 		return FALSE;

  00032	33 c0		 xor	 eax, eax

; 69   : }

  00034	c2 08 00	 ret	 8
$L205761:

; 67   : 	}
; 68   : 	return TRUE;

  00037	b8 01 00 00 00	 mov	 eax, 1

; 69   : }

  0003c	c2 08 00	 ret	 8
?Propose@CCoupleController@@QAEHKJ@Z ENDP		; CCoupleController::Propose
_TEXT	ENDS
PUBLIC	?DeletePropose@CCoupleController@@QAEHJ@Z	; CCoupleController::DeletePropose
PUBLIC	??_C@_0BI@JKNBOMDJ@uspDeletePropose?5?$CFd?0?5?$CFd?$AA@ ; `string'
PUBLIC	??_C@_0CC@OACJEGKC@couldn?8t?5execute?5uspDeletePropos@ ; `string'
;	COMDAT ??_C@_0BI@JKNBOMDJ@uspDeletePropose?5?$CFd?0?5?$CFd?$AA@
; File c:\documents and settings\test\mes documents\source\virtuos_v17\build\program\databaseserver\dbcontroller.h
CONST	SEGMENT
??_C@_0BI@JKNBOMDJ@uspDeletePropose?5?$CFd?0?5?$CFd?$AA@ DB 'uspDeletePro'
	DB	'pose %d, %d', 00H				; `string'
CONST	ENDS
;	COMDAT ??_C@_0CC@OACJEGKC@couldn?8t?5execute?5uspDeletePropos@
CONST	SEGMENT
??_C@_0CC@OACJEGKC@couldn?8t?5execute?5uspDeletePropos@ DB 'couldn''t exe'
	DB	'cute uspDeletePropose', 00H			; `string'
; Function compile flags: /Ogty
; File c:\documents and settings\test\mes documents\source\virtuos_v17\build\program\databaseserver\couplehelper.cpp
CONST	ENDS
;	COMDAT ?DeletePropose@CCoupleController@@QAEHJ@Z
_TEXT	SEGMENT
_t$ = 8							; size = 4
?DeletePropose@CCoupleController@@QAEHJ@Z PROC NEAR	; CCoupleController::DeletePropose, COMDAT
; _this$ = ecx

; 73   : 	if( !GetQueryObject()->Execute( "uspDeletePropose %d, %d", g_appInfo.dwSys, t ) )

  00000	8b 44 24 04	 mov	 eax, DWORD PTR _t$[esp-4]
  00004	8b 15 00 00 00
	00		 mov	 edx, DWORD PTR ?g_appInfo@@3UAppInfo@@A
  0000a	8b 49 0c	 mov	 ecx, DWORD PTR [ecx+12]
  0000d	50		 push	 eax
  0000e	52		 push	 edx
  0000f	68 00 00 00 00	 push	 OFFSET FLAT:??_C@_0BI@JKNBOMDJ@uspDeletePropose?5?$CFd?0?5?$CFd?$AA@
  00014	51		 push	 ecx
  00015	e8 00 00 00 00	 call	 ?Execute@CQuery@@QAAHPBDZZ ; CQuery::Execute
  0001a	83 c4 10	 add	 esp, 16			; 00000010H
  0001d	85 c0		 test	 eax, eax
  0001f	75 12		 jne	 SHORT $L205768

; 74   : 	{
; 75   : 		Error( "couldn't execute uspDeletePropose" );

  00021	68 00 00 00 00	 push	 OFFSET FLAT:??_C@_0CC@OACJEGKC@couldn?8t?5execute?5uspDeletePropos@
  00026	e8 00 00 00 00	 call	 ?Error@@YAPBDPBDZZ	; Error
  0002b	83 c4 04	 add	 esp, 4

; 76   : 		return FALSE;

  0002e	33 c0		 xor	 eax, eax

; 79   : }

  00030	c2 04 00	 ret	 4
$L205768:

; 77   : 	}
; 78   : 	return TRUE;

  00033	b8 01 00 00 00	 mov	 eax, 1

; 79   : }

  00038	c2 04 00	 ret	 4
?DeletePropose@CCoupleController@@QAEHJ@Z ENDP		; CCoupleController::DeletePropose
_TEXT	ENDS
PUBLIC	?Couple@CCoupleController@@QAEHKK@Z		; CCoupleController::Couple
PUBLIC	??_C@_0BI@MMJOPPGN@uspAddCouple?5?$CFd?0?5?$CFd?0?5?$CFd?$AA@ ; `string'
PUBLIC	??_C@_0BO@EKHMKIGO@couldn?8t?5execute?5uspAddCouple?$AA@ ; `string'
;	COMDAT ??_C@_0BI@MMJOPPGN@uspAddCouple?5?$CFd?0?5?$CFd?0?5?$CFd?$AA@
; File c:\documents and settings\test\mes documents\source\virtuos_v17\build\program\databaseserver\dbcontroller.h
CONST	SEGMENT
??_C@_0BI@MMJOPPGN@uspAddCouple?5?$CFd?0?5?$CFd?0?5?$CFd?$AA@ DB 'uspAddC'
	DB	'ouple %d, %d, %d', 00H			; `string'
CONST	ENDS
;	COMDAT ??_C@_0BO@EKHMKIGO@couldn?8t?5execute?5uspAddCouple?$AA@
CONST	SEGMENT
??_C@_0BO@EKHMKIGO@couldn?8t?5execute?5uspAddCouple?$AA@ DB 'couldn''t ex'
	DB	'ecute uspAddCouple', 00H			; `string'
; Function compile flags: /Ogty
; File c:\documents and settings\test\mes documents\source\virtuos_v17\build\program\databaseserver\couplehelper.cpp
CONST	ENDS
;	COMDAT ?Couple@CCoupleController@@QAEHKK@Z
_TEXT	SEGMENT
_idProposer$ = 8					; size = 4
_idTarget$ = 12						; size = 4
?Couple@CCoupleController@@QAEHKK@Z PROC NEAR		; CCoupleController::Couple, COMDAT
; _this$ = ecx

; 83   : 	if( !GetQueryObject()->Execute( "uspAddCouple %d, %d, %d", g_appInfo.dwSys, idProposer, idTarget ) )

  00000	8b 44 24 08	 mov	 eax, DWORD PTR _idTarget$[esp-4]
  00004	8b 54 24 04	 mov	 edx, DWORD PTR _idProposer$[esp-4]
  00008	8b 49 0c	 mov	 ecx, DWORD PTR [ecx+12]
  0000b	50		 push	 eax
  0000c	a1 00 00 00 00	 mov	 eax, DWORD PTR ?g_appInfo@@3UAppInfo@@A
  00011	52		 push	 edx
  00012	50		 push	 eax
  00013	68 00 00 00 00	 push	 OFFSET FLAT:??_C@_0BI@MMJOPPGN@uspAddCouple?5?$CFd?0?5?$CFd?0?5?$CFd?$AA@
  00018	51		 push	 ecx
  00019	e8 00 00 00 00	 call	 ?Execute@CQuery@@QAAHPBDZZ ; CQuery::Execute
  0001e	83 c4 14	 add	 esp, 20			; 00000014H
  00021	85 c0		 test	 eax, eax
  00023	75 12		 jne	 SHORT $L205776

; 84   : 	{
; 85   : 		Error( "couldn't execute uspAddCouple" );

  00025	68 00 00 00 00	 push	 OFFSET FLAT:??_C@_0BO@EKHMKIGO@couldn?8t?5execute?5uspAddCouple?$AA@
  0002a	e8 00 00 00 00	 call	 ?Error@@YAPBDPBDZZ	; Error
  0002f	83 c4 04	 add	 esp, 4

; 86   : 		return FALSE;

  00032	33 c0		 xor	 eax, eax

; 89   : }

  00034	c2 08 00	 ret	 8
$L205776:

; 87   : 	}
; 88   : 	return TRUE;

  00037	b8 01 00 00 00	 mov	 eax, 1

; 89   : }

  0003c	c2 08 00	 ret	 8
?Couple@CCoupleController@@QAEHKK@Z ENDP		; CCoupleController::Couple
_TEXT	ENDS
PUBLIC	?Decouple@CCoupleController@@QAEHK@Z		; CCoupleController::Decouple
PUBLIC	??_C@_0BH@CFAHFKMO@uspDeleteCouple?5?$CFd?0?5?$CFd?$AA@ ; `string'
PUBLIC	??_C@_0CB@BMIHDKGG@couldn?8t?5execute?5uspDeleteCouple@ ; `string'
;	COMDAT ??_C@_0BH@CFAHFKMO@uspDeleteCouple?5?$CFd?0?5?$CFd?$AA@
; File c:\documents and settings\test\mes documents\source\virtuos_v17\build\program\databaseserver\dbcontroller.h
CONST	SEGMENT
??_C@_0BH@CFAHFKMO@uspDeleteCouple?5?$CFd?0?5?$CFd?$AA@ DB 'uspDeleteCoup'
	DB	'le %d, %d', 00H				; `string'
CONST	ENDS
;	COMDAT ??_C@_0CB@BMIHDKGG@couldn?8t?5execute?5uspDeleteCouple@
CONST	SEGMENT
??_C@_0CB@BMIHDKGG@couldn?8t?5execute?5uspDeleteCouple@ DB 'couldn''t exe'
	DB	'cute uspDeleteCouple', 00H			; `string'
; Function compile flags: /Ogty
; File c:\documents and settings\test\mes documents\source\virtuos_v17\build\program\databaseserver\couplehelper.cpp
CONST	ENDS
;	COMDAT ?Decouple@CCoupleController@@QAEHK@Z
_TEXT	SEGMENT
_idPlayer$ = 8						; size = 4
?Decouple@CCoupleController@@QAEHK@Z PROC NEAR		; CCoupleController::Decouple, COMDAT
; _this$ = ecx

; 93   : 	if( !GetQueryObject()->Execute( "uspDeleteCouple %d, %d", g_appInfo.dwSys, idPlayer ) )

  00000	8b 44 24 04	 mov	 eax, DWORD PTR _idPlayer$[esp-4]
  00004	8b 15 00 00 00
	00		 mov	 edx, DWORD PTR ?g_appInfo@@3UAppInfo@@A
  0000a	8b 49 0c	 mov	 ecx, DWORD PTR [ecx+12]
  0000d	50		 push	 eax
  0000e	52		 push	 edx
  0000f	68 00 00 00 00	 push	 OFFSET FLAT:??_C@_0BH@CFAHFKMO@uspDeleteCouple?5?$CFd?0?5?$CFd?$AA@
  00014	51		 push	 ecx
  00015	e8 00 00 00 00	 call	 ?Execute@CQuery@@QAAHPBDZZ ; CQuery::Execute
  0001a	83 c4 10	 add	 esp, 16			; 00000010H
  0001d	85 c0		 test	 eax, eax
  0001f	75 12		 jne	 SHORT $L205783

; 94   : 	{
; 95   : 		Error( "couldn't execute uspDeleteCouple" );

  00021	68 00 00 00 00	 push	 OFFSET FLAT:??_C@_0CB@BMIHDKGG@couldn?8t?5execute?5uspDeleteCouple@
  00026	e8 00 00 00 00	 call	 ?Error@@YAPBDPBDZZ	; Error
  0002b	83 c4 04	 add	 esp, 4

; 96   : 		return FALSE;

  0002e	33 c0		 xor	 eax, eax

; 99   : }

  00030	c2 04 00	 ret	 4
$L205783:

; 97   : 	}
; 98   : 	return TRUE;

  00033	b8 01 00 00 00	 mov	 eax, 1

; 99   : }

  00038	c2 04 00	 ret	 4
?Decouple@CCoupleController@@QAEHK@Z ENDP		; CCoupleController::Decouple
_TEXT	ENDS
PUBLIC	?AddExperience@CCoupleController@@QAEHKH@Z	; CCoupleController::AddExperience
PUBLIC	??_C@_0CC@HOAMCAAD@uspAddCoupleExperience?5?$CFd?0?5?$CFd?0?5?$CF@ ; `string'
PUBLIC	??_C@_0CI@CNMDKKBC@couldn?8t?5execute?5uspAddCoupleExp@ ; `string'
;	COMDAT ??_C@_0CC@HOAMCAAD@uspAddCoupleExperience?5?$CFd?0?5?$CFd?0?5?$CF@
; File c:\documents and settings\test\mes documents\source\virtuos_v17\build\program\databaseserver\dbcontroller.h
CONST	SEGMENT
??_C@_0CC@HOAMCAAD@uspAddCoupleExperience?5?$CFd?0?5?$CFd?0?5?$CF@ DB 'us'
	DB	'pAddCoupleExperience %d, %d, %d', 00H	; `string'
CONST	ENDS
;	COMDAT ??_C@_0CI@CNMDKKBC@couldn?8t?5execute?5uspAddCoupleExp@
CONST	SEGMENT
??_C@_0CI@CNMDKKBC@couldn?8t?5execute?5uspAddCoupleExp@ DB 'couldn''t exe'
	DB	'cute uspAddCoupleExperience', 00H		; `string'
; Function compile flags: /Ogty
; File c:\documents and settings\test\mes documents\source\virtuos_v17\build\program\databaseserver\couplehelper.cpp
CONST	ENDS
;	COMDAT ?AddExperience@CCoupleController@@QAEHKH@Z
_TEXT	SEGMENT
_idPlayer$ = 8						; size = 4
_nExperience$ = 12					; size = 4
?AddExperience@CCoupleController@@QAEHKH@Z PROC NEAR	; CCoupleController::AddExperience, COMDAT
; _this$ = ecx

; 104  : 	if( !GetQueryObject()->Execute( "uspAddCoupleExperience %d, %d, %d", g_appInfo.dwSys, idPlayer, nExperience ) )

  00000	8b 44 24 08	 mov	 eax, DWORD PTR _nExperience$[esp-4]
  00004	8b 54 24 04	 mov	 edx, DWORD PTR _idPlayer$[esp-4]
  00008	8b 49 0c	 mov	 ecx, DWORD PTR [ecx+12]
  0000b	50		 push	 eax
  0000c	a1 00 00 00 00	 mov	 eax, DWORD PTR ?g_appInfo@@3UAppInfo@@A
  00011	52		 push	 edx
  00012	50		 push	 eax
  00013	68 00 00 00 00	 push	 OFFSET FLAT:??_C@_0CC@HOAMCAAD@uspAddCoupleExperience?5?$CFd?0?5?$CFd?0?5?$CF@
  00018	51		 push	 ecx
  00019	e8 00 00 00 00	 call	 ?Execute@CQuery@@QAAHPBDZZ ; CQuery::Execute
  0001e	83 c4 14	 add	 esp, 20			; 00000014H
  00021	85 c0		 test	 eax, eax
  00023	75 12		 jne	 SHORT $L205791

; 105  : 	{
; 106  : 		Error( "couldn't execute uspAddCoupleExperience" );

  00025	68 00 00 00 00	 push	 OFFSET FLAT:??_C@_0CI@CNMDKKBC@couldn?8t?5execute?5uspAddCoupleExp@
  0002a	e8 00 00 00 00	 call	 ?Error@@YAPBDPBDZZ	; Error
  0002f	83 c4 04	 add	 esp, 4

; 107  : 		return FALSE;

  00032	33 c0		 xor	 eax, eax

; 110  : }

  00034	c2 08 00	 ret	 8
$L205791:

; 108  : 	}
; 109  : 	return TRUE;

  00037	b8 01 00 00 00	 mov	 eax, 1

; 110  : }

  0003c	c2 08 00	 ret	 8
?AddExperience@CCoupleController@@QAEHKH@Z ENDP		; CCoupleController::AddExperience
_TEXT	ENDS
PUBLIC	?Clear@CCoupleHelper@@QAEXXZ			; CCoupleHelper::Clear
EXTRN	?CloseDbHandler@CDbController@@QAEXXZ:NEAR	; CDbController::CloseDbHandler
; Function compile flags: /Ogty
;	COMDAT ?Clear@CCoupleHelper@@QAEXXZ
_TEXT	SEGMENT
?Clear@CCoupleHelper@@QAEXXZ PROC NEAR			; CCoupleHelper::Clear, COMDAT
; _this$ = ecx

; 140  : {

  00000	56		 push	 esi
  00001	8b f1		 mov	 esi, ecx

; 141  : 	if( m_pController )

  00003	8b 4e 08	 mov	 ecx, DWORD PTR [esi+8]
  00006	85 c9		 test	 ecx, ecx
  00008	74 05		 je	 SHORT $L205827

; 142  : 		m_pController->CloseDbHandler();

  0000a	e8 00 00 00 00	 call	 ?CloseDbHandler@CDbController@@QAEXXZ ; CDbController::CloseDbHandler
$L205827:

; 143  : 	SAFE_DELETE( m_pController );

  0000f	8b 4e 08	 mov	 ecx, DWORD PTR [esi+8]
  00012	85 c9		 test	 ecx, ecx
  00014	74 0d		 je	 SHORT $L205828
  00016	8b 01		 mov	 eax, DWORD PTR [ecx]
  00018	6a 01		 push	 1
  0001a	ff 10		 call	 DWORD PTR [eax]
  0001c	c7 46 08 00 00
	00 00		 mov	 DWORD PTR [esi+8], 0
$L205828:

; 144  : 	SAFE_DELETE( m_pMgr );

  00023	8b 4e 04	 mov	 ecx, DWORD PTR [esi+4]
  00026	85 c9		 test	 ecx, ecx
  00028	74 0d		 je	 SHORT $L205832
  0002a	8b 11		 mov	 edx, DWORD PTR [ecx]
  0002c	6a 01		 push	 1
  0002e	ff 12		 call	 DWORD PTR [edx]
  00030	c7 46 04 00 00
	00 00		 mov	 DWORD PTR [esi+4], 0
$L205832:
  00037	5e		 pop	 esi

; 145  : }

  00038	c3		 ret	 0
?Clear@CCoupleHelper@@QAEXXZ ENDP			; CCoupleHelper::Clear
_TEXT	ENDS
PUBLIC	?Serialize@CCoupleHelper@@QAEXAAVCAr@@@Z	; CCoupleHelper::Serialize
EXTRN	?Serialize@CCoupleMgr@@QAEXAAVCAr@@@Z:NEAR	; CCoupleMgr::Serialize
; Function compile flags: /Ogty
;	COMDAT ?Serialize@CCoupleHelper@@QAEXAAVCAr@@@Z
_TEXT	SEGMENT
_ar$ = 8						; size = 4
?Serialize@CCoupleHelper@@QAEXAAVCAr@@@Z PROC NEAR	; CCoupleHelper::Serialize, COMDAT
; _this$ = ecx

; 149  : 	ASSERT( m_pMgr );
; 150  : 	m_pMgr->Serialize( ar );

  00000	8b 49 04	 mov	 ecx, DWORD PTR [ecx+4]
  00003	e9 00 00 00 00	 jmp	 ?Serialize@CCoupleMgr@@QAEXAAVCAr@@@Z ; CCoupleMgr::Serialize
?Serialize@CCoupleHelper@@QAEXAAVCAr@@@Z ENDP		; CCoupleHelper::Serialize
_TEXT	ENDS
PUBLIC	?OnTransfer@CCoupleHelper@@QAEXK@Z		; CCoupleHelper::OnTransfer
EXTRN	?SendCouple@CDPTrans@@QAEXPAVCCoupleMgr@@K@Z:NEAR ; CDPTrans::SendCouple
EXTRN	?GetInstance@CDPTrans@@SAPAV1@XZ:NEAR		; CDPTrans::GetInstance
; Function compile flags: /Ogty
;	COMDAT ?OnTransfer@CCoupleHelper@@QAEXK@Z
_TEXT	SEGMENT
_dpid$ = 8						; size = 4
?OnTransfer@CCoupleHelper@@QAEXK@Z PROC NEAR		; CCoupleHelper::OnTransfer, COMDAT
; _this$ = ecx

; 277  : 	ASSERT( m_pMgr );
; 278  : 	CDPTrans::GetInstance()->SendCouple( m_pMgr, dpid );

  00000	8b 44 24 04	 mov	 eax, DWORD PTR _dpid$[esp-4]
  00004	8b 49 04	 mov	 ecx, DWORD PTR [ecx+4]
  00007	50		 push	 eax
  00008	51		 push	 ecx
  00009	e8 00 00 00 00	 call	 ?GetInstance@CDPTrans@@SAPAV1@XZ ; CDPTrans::GetInstance
  0000e	8b c8		 mov	 ecx, eax
  00010	e8 00 00 00 00	 call	 ?SendCouple@CDPTrans@@QAEXPAVCCoupleMgr@@K@Z ; CDPTrans::SendCouple

; 279  : }

  00015	c2 04 00	 ret	 4
?OnTransfer@CCoupleHelper@@QAEXK@Z ENDP			; CCoupleHelper::OnTransfer
_TEXT	ENDS
PUBLIC	??0?$pair@$$CBKJ@std@@QAE@ABKABJ@Z		; std::pair<unsigned long const ,long>::pair<unsigned long const ,long>
; Function compile flags: /Ogty
; File c:\program files\microsoft visual studio .net 2003\vc7\include\utility
;	COMDAT ??0?$pair@$$CBKJ@std@@QAE@ABKABJ@Z
_TEXT	SEGMENT
__Val1$ = 8						; size = 4
__Val2$ = 12						; size = 4
??0?$pair@$$CBKJ@std@@QAE@ABKABJ@Z PROC NEAR		; std::pair<unsigned long const ,long>::pair<unsigned long const ,long>, COMDAT
; _this$ = ecx

; 34   : 		{	// construct from specified values

  00000	8b c1		 mov	 eax, ecx
  00002	8b 4c 24 04	 mov	 ecx, DWORD PTR __Val1$[esp-4]
  00006	8b 11		 mov	 edx, DWORD PTR [ecx]
  00008	8b 4c 24 08	 mov	 ecx, DWORD PTR __Val2$[esp-4]
  0000c	89 10		 mov	 DWORD PTR [eax], edx
  0000e	8b 11		 mov	 edx, DWORD PTR [ecx]
  00010	89 50 04	 mov	 DWORD PTR [eax+4], edx

; 35   : 		}

  00013	c2 08 00	 ret	 8
??0?$pair@$$CBKJ@std@@QAE@ABKABJ@Z ENDP			; std::pair<unsigned long const ,long>::pair<unsigned long const ,long>
_TEXT	ENDS
PUBLIC	?size@?$vector@U_COUPLE_ITEM@@V?$allocator@U_COUPLE_ITEM@@@std@@@std@@QBEIXZ ; std::vector<_COUPLE_ITEM,std::allocator<_COUPLE_ITEM> >::size
; Function compile flags: /Ogty
; File c:\program files\microsoft visual studio .net 2003\vc7\include\vector
;	COMDAT ?size@?$vector@U_COUPLE_ITEM@@V?$allocator@U_COUPLE_ITEM@@@std@@@std@@QBEIXZ
_TEXT	SEGMENT
?size@?$vector@U_COUPLE_ITEM@@V?$allocator@U_COUPLE_ITEM@@@std@@@std@@QBEIXZ PROC NEAR ; std::vector<_COUPLE_ITEM,std::allocator<_COUPLE_ITEM> >::size, COMDAT
; _this$ = ecx

; 516  : 		return (_Myfirst == 0 ? 0 : _Mylast - _Myfirst);

  00000	8b 41 04	 mov	 eax, DWORD PTR [ecx+4]
  00003	85 c0		 test	 eax, eax
  00005	75 01		 jne	 SHORT $L207827

; 517  : 		}

  00007	c3		 ret	 0
$L207827:

; 516  : 		return (_Myfirst == 0 ? 0 : _Mylast - _Myfirst);

  00008	8b 49 08	 mov	 ecx, DWORD PTR [ecx+8]
  0000b	2b c8		 sub	 ecx, eax
  0000d	b8 67 66 66 66	 mov	 eax, 1717986919		; 66666667H
  00012	f7 e9		 imul	 ecx
  00014	c1 fa 03	 sar	 edx, 3
  00017	8b c2		 mov	 eax, edx
  00019	c1 e8 1f	 shr	 eax, 31			; 0000001fH
  0001c	03 c2		 add	 eax, edx

; 517  : 		}

  0001e	c3		 ret	 0
?size@?$vector@U_COUPLE_ITEM@@V?$allocator@U_COUPLE_ITEM@@@std@@@std@@QBEIXZ ENDP ; std::vector<_COUPLE_ITEM,std::allocator<_COUPLE_ITEM> >::size
_TEXT	ENDS
PUBLIC	?empty@?$vector@U_COUPLE_ITEM@@V?$allocator@U_COUPLE_ITEM@@@std@@@std@@QBE_NXZ ; std::vector<_COUPLE_ITEM,std::allocator<_COUPLE_ITEM> >::empty
; Function compile flags: /Ogty
;	COMDAT ?empty@?$vector@U_COUPLE_ITEM@@V?$allocator@U_COUPLE_ITEM@@@std@@@std@@QBE_NXZ
_TEXT	SEGMENT
?empty@?$vector@U_COUPLE_ITEM@@V?$allocator@U_COUPLE_ITEM@@@std@@@std@@QBE_NXZ PROC NEAR ; std::vector<_COUPLE_ITEM,std::allocator<_COUPLE_ITEM> >::empty, COMDAT
; _this$ = ecx

; 526  : 		return (size() == 0);

  00000	8b 41 04	 mov	 eax, DWORD PTR [ecx+4]
  00003	85 c0		 test	 eax, eax
  00005	75 0a		 jne	 SHORT $L207836
  00007	33 c9		 xor	 ecx, ecx
  00009	85 c0		 test	 eax, eax
  0000b	0f 94 c1	 sete	 cl
  0000e	8a c1		 mov	 al, cl

; 527  : 		}

  00010	c3		 ret	 0

; 526  : 		return (size() == 0);

$L207836:
  00011	8b 49 08	 mov	 ecx, DWORD PTR [ecx+8]
  00014	2b c8		 sub	 ecx, eax
  00016	b8 67 66 66 66	 mov	 eax, 1717986919		; 66666667H
  0001b	f7 e9		 imul	 ecx
  0001d	c1 fa 03	 sar	 edx, 3
  00020	8b c2		 mov	 eax, edx
  00022	c1 e8 1f	 shr	 eax, 31			; 0000001fH
  00025	03 c2		 add	 eax, edx
  00027	33 c9		 xor	 ecx, ecx
  00029	85 c0		 test	 eax, eax
  0002b	0f 94 c1	 sete	 cl
  0002e	8a c1		 mov	 al, cl

; 527  : 		}

  00030	c3		 ret	 0
?empty@?$vector@U_COUPLE_ITEM@@V?$allocator@U_COUPLE_ITEM@@@std@@@std@@QBE_NXZ ENDP ; std::vector<_COUPLE_ITEM,std::allocator<_COUPLE_ITEM> >::empty
_TEXT	ENDS
PUBLIC	?_Color@?$_Tree@V?$_Tmap_traits@KJU?$less@K@std@@V?$allocator@U?$pair@$$CBKJ@std@@@2@$0A@@std@@@std@@KAAADPAU_Node@?$_Tree_nod@V?$_Tmap_traits@KJU?$less@K@std@@V?$allocator@U?$pair@$$CBKJ@std@@@2@$0A@@std@@@2@@Z ; std::_Tree<std::_Tmap_traits<unsigned long,long,std::less<unsigned long>,std::allocator<std::pair<unsigned long const ,long> >,0> >::_Color
; Function compile flags: /Ogty
; File c:\program files\microsoft visual studio .net 2003\vc7\include\xtree
;	COMDAT ?_Color@?$_Tree@V?$_Tmap_traits@KJU?$less@K@std@@V?$allocator@U?$pair@$$CBKJ@std@@@2@$0A@@std@@@std@@KAAADPAU_Node@?$_Tree_nod@V?$_Tmap_traits@KJU?$less@K@std@@V?$allocator@U?$pair@$$CBKJ@std@@@2@$0A@@std@@@2@@Z
_TEXT	SEGMENT
__Pnode$ = 8						; size = 4
?_Color@?$_Tree@V?$_Tmap_traits@KJU?$less@K@std@@V?$allocator@U?$pair@$$CBKJ@std@@@2@$0A@@std@@@std@@KAAADPAU_Node@?$_Tree_nod@V?$_Tmap_traits@KJU?$less@K@std@@V?$allocator@U?$pair@$$CBKJ@std@@@2@$0A@@std@@@2@@Z PROC NEAR ; std::_Tree<std::_Tmap_traits<unsigned long,long,std::less<unsigned long>,std::allocator<std::pair<unsigned long const ,long> >,0> >::_Color, COMDAT

; 132  : 		return ((_Charref)(*_Pnode)._Color);

  00000	8b 44 24 04	 mov	 eax, DWORD PTR __Pnode$[esp-4]
  00004	83 c0 14	 add	 eax, 20			; 00000014H

; 133  : 		}

  00007	c3		 ret	 0
?_Color@?$_Tree@V?$_Tmap_traits@KJU?$less@K@std@@V?$allocator@U?$pair@$$CBKJ@std@@@2@$0A@@std@@@std@@KAAADPAU_Node@?$_Tree_nod@V?$_Tmap_traits@KJU?$less@K@std@@V?$allocator@U?$pair@$$CBKJ@std@@@2@$0A@@std@@@2@@Z ENDP ; std::_Tree<std::_Tmap_traits<unsigned long,long,std::less<unsigned long>,std::allocator<std::pair<unsigned long const ,long> >,0> >::_Color
_TEXT	ENDS
PUBLIC	?_Isnil@?$_Tree@V?$_Tmap_traits@KJU?$less@K@std@@V?$allocator@U?$pair@$$CBKJ@std@@@2@$0A@@std@@@std@@KAAADPAU_Node@?$_Tree_nod@V?$_Tmap_traits@KJU?$less@K@std@@V?$allocator@U?$pair@$$CBKJ@std@@@2@$0A@@std@@@2@@Z ; std::_Tree<std::_Tmap_traits<unsigned long,long,std::less<unsigned long>,std::allocator<std::pair<unsigned long const ,long> >,0> >::_Isnil
; Function compile flags: /Ogty
;	COMDAT ?_Isnil@?$_Tree@V?$_Tmap_traits@KJU?$less@K@std@@V?$allocator@U?$pair@$$CBKJ@std@@@2@$0A@@std@@@std@@KAAADPAU_Node@?$_Tree_nod@V?$_Tmap_traits@KJU?$less@K@std@@V?$allocator@U?$pair@$$CBKJ@std@@@2@$0A@@std@@@2@@Z
_TEXT	SEGMENT
__Pnode$ = 8						; size = 4
?_Isnil@?$_Tree@V?$_Tmap_traits@KJU?$less@K@std@@V?$allocator@U?$pair@$$CBKJ@std@@@2@$0A@@std@@@std@@KAAADPAU_Node@?$_Tree_nod@V?$_Tmap_traits@KJU?$less@K@std@@V?$allocator@U?$pair@$$CBKJ@std@@@2@$0A@@std@@@2@@Z PROC NEAR ; std::_Tree<std::_Tmap_traits<unsigned long,long,std::less<unsigned long>,std::allocator<std::pair<unsigned long const ,long> >,0> >::_Isnil, COMDAT

; 137  : 		return ((_Charref)(*_Pnode)._Isnil);

  00000	8b 44 24 04	 mov	 eax, DWORD PTR __Pnode$[esp-4]
  00004	83 c0 15	 add	 eax, 21			; 00000015H

; 138  : 		}

  00007	c3		 ret	 0
?_Isnil@?$_Tree@V?$_Tmap_traits@KJU?$less@K@std@@V?$allocator@U?$pair@$$CBKJ@std@@@2@$0A@@std@@@std@@KAAADPAU_Node@?$_Tree_nod@V?$_Tmap_traits@KJU?$less@K@std@@V?$allocator@U?$pair@$$CBKJ@std@@@2@$0A@@std@@@2@@Z ENDP ; std::_Tree<std::_Tmap_traits<unsigned long,long,std::less<unsigned long>,std::allocator<std::pair<unsigned long const ,long> >,0> >::_Isnil
_TEXT	ENDS
PUBLIC	?_Left@?$_Tree@V?$_Tmap_traits@KJU?$less@K@std@@V?$allocator@U?$pair@$$CBKJ@std@@@2@$0A@@std@@@std@@KAAAPAU_Node@?$_Tree_nod@V?$_Tmap_traits@KJU?$less@K@std@@V?$allocator@U?$pair@$$CBKJ@std@@@2@$0A@@std@@@2@PAU342@@Z ; std::_Tree<std::_Tmap_traits<unsigned long,long,std::less<unsigned long>,std::allocator<std::pair<unsigned long const ,long> >,0> >::_Left
; Function compile flags: /Ogty
;	COMDAT ?_Left@?$_Tree@V?$_Tmap_traits@KJU?$less@K@std@@V?$allocator@U?$pair@$$CBKJ@std@@@2@$0A@@std@@@std@@KAAAPAU_Node@?$_Tree_nod@V?$_Tmap_traits@KJU?$less@K@std@@V?$allocator@U?$pair@$$CBKJ@std@@@2@$0A@@std@@@2@PAU342@@Z
_TEXT	SEGMENT
__Pnode$ = 8						; size = 4
?_Left@?$_Tree@V?$_Tmap_traits@KJU?$less@K@std@@V?$allocator@U?$pair@$$CBKJ@std@@@2@$0A@@std@@@std@@KAAAPAU_Node@?$_Tree_nod@V?$_Tmap_traits@KJU?$less@K@std@@V?$allocator@U?$pair@$$CBKJ@std@@@2@$0A@@std@@@2@PAU342@@Z PROC NEAR ; std::_Tree<std::_Tmap_traits<unsigned long,long,std::less<unsigned long>,std::allocator<std::pair<unsigned long const ,long> >,0> >::_Left, COMDAT

; 147  : 		return ((_Nodepref)(*_Pnode)._Left);

  00000	8b 44 24 04	 mov	 eax, DWORD PTR __Pnode$[esp-4]

; 148  : 		}

  00004	c3		 ret	 0
?_Left@?$_Tree@V?$_Tmap_traits@KJU?$less@K@std@@V?$allocator@U?$pair@$$CBKJ@std@@@2@$0A@@std@@@std@@KAAAPAU_Node@?$_Tree_nod@V?$_Tmap_traits@KJU?$less@K@std@@V?$allocator@U?$pair@$$CBKJ@std@@@2@$0A@@std@@@2@PAU342@@Z ENDP ; std::_Tree<std::_Tmap_traits<unsigned long,long,std::less<unsigned long>,std::allocator<std::pair<unsigned long const ,long> >,0> >::_Left
_TEXT	ENDS
PUBLIC	?_Parent@?$_Tree@V?$_Tmap_traits@KJU?$less@K@std@@V?$allocator@U?$pair@$$CBKJ@std@@@2@$0A@@std@@@std@@KAAAPAU_Node@?$_Tree_nod@V?$_Tmap_traits@KJU?$less@K@std@@V?$allocator@U?$pair@$$CBKJ@std@@@2@$0A@@std@@@2@PAU342@@Z ; std::_Tree<std::_Tmap_traits<unsigned long,long,std::less<unsigned long>,std::allocator<std::pair<unsigned long const ,long> >,0> >::_Parent
; Function compile flags: /Ogty
;	COMDAT ?_Parent@?$_Tree@V?$_Tmap_traits@KJU?$less@K@std@@V?$allocator@U?$pair@$$CBKJ@std@@@2@$0A@@std@@@std@@KAAAPAU_Node@?$_Tree_nod@V?$_Tmap_traits@KJU?$less@K@std@@V?$allocator@U?$pair@$$CBKJ@std@@@2@$0A@@std@@@2@PAU342@@Z
_TEXT	SEGMENT
__Pnode$ = 8						; size = 4
?_Parent@?$_Tree@V?$_Tmap_traits@KJU?$less@K@std@@V?$allocator@U?$pair@$$CBKJ@std@@@2@$0A@@std@@@std@@KAAAPAU_Node@?$_Tree_nod@V?$_Tmap_traits@KJU?$less@K@std@@V?$allocator@U?$pair@$$CBKJ@std@@@2@$0A@@std@@@2@PAU342@@Z PROC NEAR ; std::_Tree<std::_Tmap_traits<unsigned long,long,std::less<unsigned long>,std::allocator<std::pair<unsigned long const ,long> >,0> >::_Parent, COMDAT

; 152  : 		return ((_Nodepref)(*_Pnode)._Parent);

  00000	8b 44 24 04	 mov	 eax, DWORD PTR __Pnode$[esp-4]
  00004	83 c0 04	 add	 eax, 4

; 153  : 		}

  00007	c3		 ret	 0
?_Parent@?$_Tree@V?$_Tmap_traits@KJU?$less@K@std@@V?$allocator@U?$pair@$$CBKJ@std@@@2@$0A@@std@@@std@@KAAAPAU_Node@?$_Tree_nod@V?$_Tmap_traits@KJU?$less@K@std@@V?$allocator@U?$pair@$$CBKJ@std@@@2@$0A@@std@@@2@PAU342@@Z ENDP ; std::_Tree<std::_Tmap_traits<unsigned long,long,std::less<unsigned long>,std::allocator<std::pair<unsigned long const ,long> >,0> >::_Parent
_TEXT	ENDS
PUBLIC	?_Right@?$_Tree@V?$_Tmap_traits@KJU?$less@K@std@@V?$allocator@U?$pair@$$CBKJ@std@@@2@$0A@@std@@@std@@KAAAPAU_Node@?$_Tree_nod@V?$_Tmap_traits@KJU?$less@K@std@@V?$allocator@U?$pair@$$CBKJ@std@@@2@$0A@@std@@@2@PAU342@@Z ; std::_Tree<std::_Tmap_traits<unsigned long,long,std::less<unsigned long>,std::allocator<std::pair<unsigned long const ,long> >,0> >::_Right
; Function compile flags: /Ogty
;	COMDAT ?_Right@?$_Tree@V?$_Tmap_traits@KJU?$less@K@std@@V?$allocator@U?$pair@$$CBKJ@std@@@2@$0A@@std@@@std@@KAAAPAU_Node@?$_Tree_nod@V?$_Tmap_traits@KJU?$less@K@std@@V?$allocator@U?$pair@$$CBKJ@std@@@2@$0A@@std@@@2@PAU342@@Z
_TEXT	SEGMENT
__Pnode$ = 8						; size = 4
?_Right@?$_Tree@V?$_Tmap_traits@KJU?$less@K@std@@V?$allocator@U?$pair@$$CBKJ@std@@@2@$0A@@std@@@std@@KAAAPAU_Node@?$_Tree_nod@V?$_Tmap_traits@KJU?$less@K@std@@V?$allocator@U?$pair@$$CBKJ@std@@@2@$0A@@std@@@2@PAU342@@Z PROC NEAR ; std::_Tree<std::_Tmap_traits<unsigned long,long,std::less<unsigned long>,std::allocator<std::pair<unsigned long const ,long> >,0> >::_Right, COMDAT

; 157  : 		return ((_Nodepref)(*_Pnode)._Right);

  00000	8b 44 24 04	 mov	 eax, DWORD PTR __Pnode$[esp-4]
  00004	83 c0 08	 add	 eax, 8

; 158  : 		}

  00007	c3		 ret	 0
?_Right@?$_Tree@V?$_Tmap_traits@KJU?$less@K@std@@V?$allocator@U?$pair@$$CBKJ@std@@@2@$0A@@std@@@std@@KAAAPAU_Node@?$_Tree_nod@V?$_Tmap_traits@KJU?$less@K@std@@V?$allocator@U?$pair@$$CBKJ@std@@@2@$0A@@std@@@2@PAU342@@Z ENDP ; std::_Tree<std::_Tmap_traits<unsigned long,long,std::less<unsigned long>,std::allocator<std::pair<unsigned long const ,long> >,0> >::_Right
_TEXT	ENDS
PUBLIC	?_Lmost@?$_Tree@V?$_Tmap_traits@KJU?$less@K@std@@V?$allocator@U?$pair@$$CBKJ@std@@@2@$0A@@std@@@std@@IAEAAPAU_Node@?$_Tree_nod@V?$_Tmap_traits@KJU?$less@K@std@@V?$allocator@U?$pair@$$CBKJ@std@@@2@$0A@@std@@@2@XZ ; std::_Tree<std::_Tmap_traits<unsigned long,long,std::less<unsigned long>,std::allocator<std::pair<unsigned long const ,long> >,0> >::_Lmost
; Function compile flags: /Ogty
;	COMDAT ?_Lmost@?$_Tree@V?$_Tmap_traits@KJU?$less@K@std@@V?$allocator@U?$pair@$$CBKJ@std@@@2@$0A@@std@@@std@@IAEAAPAU_Node@?$_Tree_nod@V?$_Tmap_traits@KJU?$less@K@std@@V?$allocator@U?$pair@$$CBKJ@std@@@2@$0A@@std@@@2@XZ
_TEXT	SEGMENT
?_Lmost@?$_Tree@V?$_Tmap_traits@KJU?$less@K@std@@V?$allocator@U?$pair@$$CBKJ@std@@@2@$0A@@std@@@std@@IAEAAPAU_Node@?$_Tree_nod@V?$_Tmap_traits@KJU?$less@K@std@@V?$allocator@U?$pair@$$CBKJ@std@@@2@$0A@@std@@@2@XZ PROC NEAR ; std::_Tree<std::_Tmap_traits<unsigned long,long,std::less<unsigned long>,std::allocator<std::pair<unsigned long const ,long> >,0> >::_Lmost, COMDAT
; _this$ = ecx

; 1005 : 		return (_Left(_Myhead));

  00000	8b 41 04	 mov	 eax, DWORD PTR [ecx+4]

; 1006 : 		}

  00003	c3		 ret	 0
?_Lmost@?$_Tree@V?$_Tmap_traits@KJU?$less@K@std@@V?$allocator@U?$pair@$$CBKJ@std@@@2@$0A@@std@@@std@@IAEAAPAU_Node@?$_Tree_nod@V?$_Tmap_traits@KJU?$less@K@std@@V?$allocator@U?$pair@$$CBKJ@std@@@2@$0A@@std@@@2@XZ ENDP ; std::_Tree<std::_Tmap_traits<unsigned long,long,std::less<unsigned long>,std::allocator<std::pair<unsigned long const ,long> >,0> >::_Lmost
_TEXT	ENDS
PUBLIC	?_Max@?$_Tree@V?$_Tmap_traits@KJU?$less@K@std@@V?$allocator@U?$pair@$$CBKJ@std@@@2@$0A@@std@@@std@@KAPAU_Node@?$_Tree_nod@V?$_Tmap_traits@KJU?$less@K@std@@V?$allocator@U?$pair@$$CBKJ@std@@@2@$0A@@std@@@2@PAU342@@Z ; std::_Tree<std::_Tmap_traits<unsigned long,long,std::less<unsigned long>,std::allocator<std::pair<unsigned long const ,long> >,0> >::_Max
; Function compile flags: /Ogty
;	COMDAT ?_Max@?$_Tree@V?$_Tmap_traits@KJU?$less@K@std@@V?$allocator@U?$pair@$$CBKJ@std@@@2@$0A@@std@@@std@@KAPAU_Node@?$_Tree_nod@V?$_Tmap_traits@KJU?$less@K@std@@V?$allocator@U?$pair@$$CBKJ@std@@@2@$0A@@std@@@2@PAU342@@Z
_TEXT	SEGMENT
__Pnode$ = 8						; size = 4
?_Max@?$_Tree@V?$_Tmap_traits@KJU?$less@K@std@@V?$allocator@U?$pair@$$CBKJ@std@@@2@$0A@@std@@@std@@KAPAU_Node@?$_Tree_nod@V?$_Tmap_traits@KJU?$less@K@std@@V?$allocator@U?$pair@$$CBKJ@std@@@2@$0A@@std@@@2@PAU342@@Z PROC NEAR ; std::_Tree<std::_Tmap_traits<unsigned long,long,std::less<unsigned long>,std::allocator<std::pair<unsigned long const ,long> >,0> >::_Max, COMDAT

; 1035 : 		while (!_Isnil(_Right(_Pnode)))

  00000	8b 44 24 04	 mov	 eax, DWORD PTR __Pnode$[esp-4]
  00004	8b 48 08	 mov	 ecx, DWORD PTR [eax+8]
  00007	8a 51 15	 mov	 dl, BYTE PTR [ecx+21]
  0000a	84 d2		 test	 dl, dl
  0000c	75 0e		 jne	 SHORT $L206740
  0000e	8b ff		 npad	 2
$L206739:

; 1036 : 			_Pnode = _Right(_Pnode);

  00010	8b c1		 mov	 eax, ecx
  00012	8b 48 08	 mov	 ecx, DWORD PTR [eax+8]
  00015	8a 51 15	 mov	 dl, BYTE PTR [ecx+21]
  00018	84 d2		 test	 dl, dl
  0001a	74 f4		 je	 SHORT $L206739
$L206740:

; 1037 : 		return (_Pnode);
; 1038 : 		}

  0001c	c3		 ret	 0
?_Max@?$_Tree@V?$_Tmap_traits@KJU?$less@K@std@@V?$allocator@U?$pair@$$CBKJ@std@@@2@$0A@@std@@@std@@KAPAU_Node@?$_Tree_nod@V?$_Tmap_traits@KJU?$less@K@std@@V?$allocator@U?$pair@$$CBKJ@std@@@2@$0A@@std@@@2@PAU342@@Z ENDP ; std::_Tree<std::_Tmap_traits<unsigned long,long,std::less<unsigned long>,std::allocator<std::pair<unsigned long const ,long> >,0> >::_Max
_TEXT	ENDS
PUBLIC	?_Min@?$_Tree@V?$_Tmap_traits@KJU?$less@K@std@@V?$allocator@U?$pair@$$CBKJ@std@@@2@$0A@@std@@@std@@KAPAU_Node@?$_Tree_nod@V?$_Tmap_traits@KJU?$less@K@std@@V?$allocator@U?$pair@$$CBKJ@std@@@2@$0A@@std@@@2@PAU342@@Z ; std::_Tree<std::_Tmap_traits<unsigned long,long,std::less<unsigned long>,std::allocator<std::pair<unsigned long const ,long> >,0> >::_Min
; Function compile flags: /Ogty
;	COMDAT ?_Min@?$_Tree@V?$_Tmap_traits@KJU?$less@K@std@@V?$allocator@U?$pair@$$CBKJ@std@@@2@$0A@@std@@@std@@KAPAU_Node@?$_Tree_nod@V?$_Tmap_traits@KJU?$less@K@std@@V?$allocator@U?$pair@$$CBKJ@std@@@2@$0A@@std@@@2@PAU342@@Z
_TEXT	SEGMENT
__Pnode$ = 8						; size = 4
?_Min@?$_Tree@V?$_Tmap_traits@KJU?$less@K@std@@V?$allocator@U?$pair@$$CBKJ@std@@@2@$0A@@std@@@std@@KAPAU_Node@?$_Tree_nod@V?$_Tmap_traits@KJU?$less@K@std@@V?$allocator@U?$pair@$$CBKJ@std@@@2@$0A@@std@@@2@PAU342@@Z PROC NEAR ; std::_Tree<std::_Tmap_traits<unsigned long,long,std::less<unsigned long>,std::allocator<std::pair<unsigned long const ,long> >,0> >::_Min, COMDAT

; 1042 : 		while (!_Isnil(_Left(_Pnode)))

  00000	8b 44 24 04	 mov	 eax, DWORD PTR __Pnode$[esp-4]
  00004	8b 08		 mov	 ecx, DWORD PTR [eax]
  00006	8a 51 15	 mov	 dl, BYTE PTR [ecx+21]
  00009	84 d2		 test	 dl, dl
  0000b	75 0e		 jne	 SHORT $L206744
  0000d	8d 49 00	 npad	 3
$L206743:

; 1043 : 			_Pnode = _Left(_Pnode);

  00010	8b c1		 mov	 eax, ecx
  00012	8b 08		 mov	 ecx, DWORD PTR [eax]
  00014	8a 51 15	 mov	 dl, BYTE PTR [ecx+21]
  00017	84 d2		 test	 dl, dl
  00019	74 f5		 je	 SHORT $L206743
$L206744:

; 1044 : 		return (_Pnode);
; 1045 : 		}

  0001b	c3		 ret	 0
?_Min@?$_Tree@V?$_Tmap_traits@KJU?$less@K@std@@V?$allocator@U?$pair@$$CBKJ@std@@@2@$0A@@std@@@std@@KAPAU_Node@?$_Tree_nod@V?$_Tmap_traits@KJU?$less@K@std@@V?$allocator@U?$pair@$$CBKJ@std@@@2@$0A@@std@@@2@PAU342@@Z ENDP ; std::_Tree<std::_Tmap_traits<unsigned long,long,std::less<unsigned long>,std::allocator<std::pair<unsigned long const ,long> >,0> >::_Min
_TEXT	ENDS
PUBLIC	?_Rmost@?$_Tree@V?$_Tmap_traits@KJU?$less@K@std@@V?$allocator@U?$pair@$$CBKJ@std@@@2@$0A@@std@@@std@@IAEAAPAU_Node@?$_Tree_nod@V?$_Tmap_traits@KJU?$less@K@std@@V?$allocator@U?$pair@$$CBKJ@std@@@2@$0A@@std@@@2@XZ ; std::_Tree<std::_Tmap_traits<unsigned long,long,std::less<unsigned long>,std::allocator<std::pair<unsigned long const ,long> >,0> >::_Rmost
; Function compile flags: /Ogty
;	COMDAT ?_Rmost@?$_Tree@V?$_Tmap_traits@KJU?$less@K@std@@V?$allocator@U?$pair@$$CBKJ@std@@@2@$0A@@std@@@std@@IAEAAPAU_Node@?$_Tree_nod@V?$_Tmap_traits@KJU?$less@K@std@@V?$allocator@U?$pair@$$CBKJ@std@@@2@$0A@@std@@@2@XZ
_TEXT	SEGMENT
?_Rmost@?$_Tree@V?$_Tmap_traits@KJU?$less@K@std@@V?$allocator@U?$pair@$$CBKJ@std@@@2@$0A@@std@@@std@@IAEAAPAU_Node@?$_Tree_nod@V?$_Tmap_traits@KJU?$less@K@std@@V?$allocator@U?$pair@$$CBKJ@std@@@2@$0A@@std@@@2@XZ PROC NEAR ; std::_Tree<std::_Tmap_traits<unsigned long,long,std::less<unsigned long>,std::allocator<std::pair<unsigned long const ,long> >,0> >::_Rmost, COMDAT
; _this$ = ecx

; 1049 : 		return (_Right(_Myhead));

  00000	8b 41 04	 mov	 eax, DWORD PTR [ecx+4]
  00003	83 c0 08	 add	 eax, 8

; 1050 : 		}

  00006	c3		 ret	 0
?_Rmost@?$_Tree@V?$_Tmap_traits@KJU?$less@K@std@@V?$allocator@U?$pair@$$CBKJ@std@@@2@$0A@@std@@@std@@IAEAAPAU_Node@?$_Tree_nod@V?$_Tmap_traits@KJU?$less@K@std@@V?$allocator@U?$pair@$$CBKJ@std@@@2@$0A@@std@@@2@XZ ENDP ; std::_Tree<std::_Tmap_traits<unsigned long,long,std::less<unsigned long>,std::allocator<std::pair<unsigned long const ,long> >,0> >::_Rmost
_TEXT	ENDS
PUBLIC	?_Root@?$_Tree@V?$_Tmap_traits@KJU?$less@K@std@@V?$allocator@U?$pair@$$CBKJ@std@@@2@$0A@@std@@@std@@IAEAAPAU_Node@?$_Tree_nod@V?$_Tmap_traits@KJU?$less@K@std@@V?$allocator@U?$pair@$$CBKJ@std@@@2@$0A@@std@@@2@XZ ; std::_Tree<std::_Tmap_traits<unsigned long,long,std::less<unsigned long>,std::allocator<std::pair<unsigned long const ,long> >,0> >::_Root
; Function compile flags: /Ogty
;	COMDAT ?_Root@?$_Tree@V?$_Tmap_traits@KJU?$less@K@std@@V?$allocator@U?$pair@$$CBKJ@std@@@2@$0A@@std@@@std@@IAEAAPAU_Node@?$_Tree_nod@V?$_Tmap_traits@KJU?$less@K@std@@V?$allocator@U?$pair@$$CBKJ@std@@@2@$0A@@std@@@2@XZ
_TEXT	SEGMENT
?_Root@?$_Tree@V?$_Tmap_traits@KJU?$less@K@std@@V?$allocator@U?$pair@$$CBKJ@std@@@2@$0A@@std@@@std@@IAEAAPAU_Node@?$_Tree_nod@V?$_Tmap_traits@KJU?$less@K@std@@V?$allocator@U?$pair@$$CBKJ@std@@@2@$0A@@std@@@2@XZ PROC NEAR ; std::_Tree<std::_Tmap_traits<unsigned long,long,std::less<unsigned long>,std::allocator<std::pair<unsigned long const ,long> >,0> >::_Root, COMDAT
; _this$ = ecx

; 1059 : 		return (_Parent(_Myhead));

  00000	8b 41 04	 mov	 eax, DWORD PTR [ecx+4]
  00003	83 c0 04	 add	 eax, 4

; 1060 : 		}

  00006	c3		 ret	 0
?_Root@?$_Tree@V?$_Tmap_traits@KJU?$less@K@std@@V?$allocator@U?$pair@$$CBKJ@std@@@2@$0A@@std@@@std@@IAEAAPAU_Node@?$_Tree_nod@V?$_Tmap_traits@KJU?$less@K@std@@V?$allocator@U?$pair@$$CBKJ@std@@@2@$0A@@std@@@2@XZ ENDP ; std::_Tree<std::_Tmap_traits<unsigned long,long,std::less<unsigned long>,std::allocator<std::pair<unsigned long const ,long> >,0> >::_Root
_TEXT	ENDS
PUBLIC	?_Rrotate@?$_Tree@V?$_Tmap_traits@KJU?$less@K@std@@V?$allocator@U?$pair@$$CBKJ@std@@@2@$0A@@std@@@std@@IAEXPAU_Node@?$_Tree_nod@V?$_Tmap_traits@KJU?$less@K@std@@V?$allocator@U?$pair@$$CBKJ@std@@@2@$0A@@std@@@2@@Z ; std::_Tree<std::_Tmap_traits<unsigned long,long,std::less<unsigned long>,std::allocator<std::pair<unsigned long const ,long> >,0> >::_Rrotate
; Function compile flags: /Ogty
;	COMDAT ?_Rrotate@?$_Tree@V?$_Tmap_traits@KJU?$less@K@std@@V?$allocator@U?$pair@$$CBKJ@std@@@2@$0A@@std@@@std@@IAEXPAU_Node@?$_Tree_nod@V?$_Tmap_traits@KJU?$less@K@std@@V?$allocator@U?$pair@$$CBKJ@std@@@2@$0A@@std@@@2@@Z
_TEXT	SEGMENT
__Wherenode$ = 8					; size = 4
?_Rrotate@?$_Tree@V?$_Tmap_traits@KJU?$less@K@std@@V?$allocator@U?$pair@$$CBKJ@std@@@2@$0A@@std@@@std@@IAEXPAU_Node@?$_Tree_nod@V?$_Tmap_traits@KJU?$less@K@std@@V?$allocator@U?$pair@$$CBKJ@std@@@2@$0A@@std@@@2@@Z PROC NEAR ; std::_Tree<std::_Tmap_traits<unsigned long,long,std::less<unsigned long>,std::allocator<std::pair<unsigned long const ,long> >,0> >::_Rrotate, COMDAT
; _this$ = ecx

; 1069 : 		_Nodeptr _Pnode = _Left(_Wherenode);

  00000	8b 54 24 04	 mov	 edx, DWORD PTR __Wherenode$[esp-4]
  00004	8b 02		 mov	 eax, DWORD PTR [edx]
  00006	53		 push	 ebx
  00007	56		 push	 esi

; 1070 : 		_Left(_Wherenode) = _Right(_Pnode);

  00008	8b 70 08	 mov	 esi, DWORD PTR [eax+8]
  0000b	89 32		 mov	 DWORD PTR [edx], esi

; 1071 : 
; 1072 : 		if (!_Isnil(_Right(_Pnode)))

  0000d	8b 70 08	 mov	 esi, DWORD PTR [eax+8]
  00010	8a 5e 15	 mov	 bl, BYTE PTR [esi+21]
  00013	84 db		 test	 bl, bl
  00015	75 03		 jne	 SHORT $L206752

; 1073 : 			_Parent(_Right(_Pnode)) = _Wherenode;

  00017	89 56 04	 mov	 DWORD PTR [esi+4], edx
$L206752:

; 1074 : 		_Parent(_Pnode) = _Parent(_Wherenode);

  0001a	8b 72 04	 mov	 esi, DWORD PTR [edx+4]
  0001d	89 70 04	 mov	 DWORD PTR [eax+4], esi

; 1075 : 
; 1076 : 		if (_Wherenode == _Root())

  00020	8b 49 04	 mov	 ecx, DWORD PTR [ecx+4]
  00023	3b 51 04	 cmp	 edx, DWORD PTR [ecx+4]
  00026	75 0e		 jne	 SHORT $L206753

; 1077 : 			_Root() = _Pnode;

  00028	89 41 04	 mov	 DWORD PTR [ecx+4], eax
  0002b	5e		 pop	 esi

; 1082 : 
; 1083 : 		_Right(_Pnode) = _Wherenode;

  0002c	89 50 08	 mov	 DWORD PTR [eax+8], edx

; 1084 : 		_Parent(_Wherenode) = _Pnode;

  0002f	89 42 04	 mov	 DWORD PTR [edx+4], eax
  00032	5b		 pop	 ebx

; 1085 : 		}

  00033	c2 04 00	 ret	 4
$L206753:

; 1078 : 		else if (_Wherenode == _Right(_Parent(_Wherenode)))

  00036	8b 4a 04	 mov	 ecx, DWORD PTR [edx+4]
  00039	3b 51 08	 cmp	 edx, DWORD PTR [ecx+8]
  0003c	75 0e		 jne	 SHORT $L206755

; 1079 : 			_Right(_Parent(_Wherenode)) = _Pnode;

  0003e	89 41 08	 mov	 DWORD PTR [ecx+8], eax
  00041	5e		 pop	 esi

; 1082 : 
; 1083 : 		_Right(_Pnode) = _Wherenode;

  00042	89 50 08	 mov	 DWORD PTR [eax+8], edx

; 1084 : 		_Parent(_Wherenode) = _Pnode;

  00045	89 42 04	 mov	 DWORD PTR [edx+4], eax
  00048	5b		 pop	 ebx

; 1085 : 		}

  00049	c2 04 00	 ret	 4
$L206755:

; 1080 : 		else
; 1081 : 			_Left(_Parent(_Wherenode)) = _Pnode;

  0004c	89 01		 mov	 DWORD PTR [ecx], eax
  0004e	5e		 pop	 esi

; 1082 : 
; 1083 : 		_Right(_Pnode) = _Wherenode;

  0004f	89 50 08	 mov	 DWORD PTR [eax+8], edx

; 1084 : 		_Parent(_Wherenode) = _Pnode;

  00052	89 42 04	 mov	 DWORD PTR [edx+4], eax
  00055	5b		 pop	 ebx

; 1085 : 		}

  00056	c2 04 00	 ret	 4
?_Rrotate@?$_Tree@V?$_Tmap_traits@KJU?$less@K@std@@V?$allocator@U?$pair@$$CBKJ@std@@@2@$0A@@std@@@std@@IAEXPAU_Node@?$_Tree_nod@V?$_Tmap_traits@KJU?$less@K@std@@V?$allocator@U?$pair@$$CBKJ@std@@@2@$0A@@std@@@2@@Z ENDP ; std::_Tree<std::_Tmap_traits<unsigned long,long,std::less<unsigned long>,std::allocator<std::pair<unsigned long const ,long> >,0> >::_Rrotate
_TEXT	ENDS
PUBLIC	?_Kfn@?$_Tmap_traits@KJU?$less@K@std@@V?$allocator@U?$pair@$$CBKJ@std@@@2@$0A@@std@@SAABKABU?$pair@$$CBKJ@2@@Z ; std::_Tmap_traits<unsigned long,long,std::less<unsigned long>,std::allocator<std::pair<unsigned long const ,long> >,0>::_Kfn
; Function compile flags: /Ogty
; File c:\program files\microsoft visual studio .net 2003\vc7\include\map
;	COMDAT ?_Kfn@?$_Tmap_traits@KJU?$less@K@std@@V?$allocator@U?$pair@$$CBKJ@std@@@2@$0A@@std@@SAABKABU?$pair@$$CBKJ@2@@Z
_TEXT	SEGMENT
__Val$ = 8						; size = 4
?_Kfn@?$_Tmap_traits@KJU?$less@K@std@@V?$allocator@U?$pair@$$CBKJ@std@@@2@$0A@@std@@SAABKABU?$pair@$$CBKJ@2@@Z PROC NEAR ; std::_Tmap_traits<unsigned long,long,std::less<unsigned long>,std::allocator<std::pair<unsigned long const ,long> >,0>::_Kfn, COMDAT

; 64   : 		return (_Val.first);

  00000	8b 44 24 04	 mov	 eax, DWORD PTR __Val$[esp-4]

; 65   : 		}

  00004	c3		 ret	 0
?_Kfn@?$_Tmap_traits@KJU?$less@K@std@@V?$allocator@U?$pair@$$CBKJ@std@@@2@$0A@@std@@SAABKABU?$pair@$$CBKJ@2@@Z ENDP ; std::_Tmap_traits<unsigned long,long,std::less<unsigned long>,std::allocator<std::pair<unsigned long const ,long> >,0>::_Kfn
_TEXT	ENDS
PUBLIC	??0?$allocator@U?$pair@$$CBKJ@std@@@std@@QAE@XZ	; std::allocator<std::pair<unsigned long const ,long> >::allocator<std::pair<unsigned long const ,long> >
; Function compile flags: /Ogty
; File c:\program files\microsoft visual studio .net 2003\vc7\include\xmemory
;	COMDAT ??0?$allocator@U?$pair@$$CBKJ@std@@@std@@QAE@XZ
_TEXT	SEGMENT
??0?$allocator@U?$pair@$$CBKJ@std@@@std@@QAE@XZ PROC NEAR ; std::allocator<std::pair<unsigned long const ,long> >::allocator<std::pair<unsigned long const ,long> >, COMDAT
; _this$ = ecx

; 111  : 	allocator()

  00000	8b c1		 mov	 eax, ecx

; 112  : 		{	// construct default allocator (do nothing)
; 113  : 		}

  00002	c3		 ret	 0
??0?$allocator@U?$pair@$$CBKJ@std@@@std@@QAE@XZ ENDP	; std::allocator<std::pair<unsigned long const ,long> >::allocator<std::pair<unsigned long const ,long> >
_TEXT	ENDS
PUBLIC	?deallocate@?$allocator@U_Node@?$_Tree_nod@V?$_Tmap_traits@KJU?$less@K@std@@V?$allocator@U?$pair@$$CBKJ@std@@@2@$0A@@std@@@std@@@std@@QAEXPAU_Node@?$_Tree_nod@V?$_Tmap_traits@KJU?$less@K@std@@V?$allocator@U?$pair@$$CBKJ@std@@@2@$0A@@std@@@2@I@Z ; std::allocator<std::_Tree_nod<std::_Tmap_traits<unsigned long,long,std::less<unsigned long>,std::allocator<std::pair<unsigned long const ,long> >,0> >::_Node>::deallocate
; Function compile flags: /Ogty
;	COMDAT ?deallocate@?$allocator@U_Node@?$_Tree_nod@V?$_Tmap_traits@KJU?$less@K@std@@V?$allocator@U?$pair@$$CBKJ@std@@@2@$0A@@std@@@std@@@std@@QAEXPAU_Node@?$_Tree_nod@V?$_Tmap_traits@KJU?$less@K@std@@V?$allocator@U?$pair@$$CBKJ@std@@@2@$0A@@std@@@2@I@Z
_TEXT	SEGMENT
__Ptr$ = 8						; size = 4
___formal$ = 12						; size = 4
?deallocate@?$allocator@U_Node@?$_Tree_nod@V?$_Tmap_traits@KJU?$less@K@std@@V?$allocator@U?$pair@$$CBKJ@std@@@2@$0A@@std@@@std@@@std@@QAEXPAU_Node@?$_Tree_nod@V?$_Tmap_traits@KJU?$less@K@std@@V?$allocator@U?$pair@$$CBKJ@std@@@2@$0A@@std@@@2@I@Z PROC NEAR ; std::allocator<std::_Tree_nod<std::_Tmap_traits<unsigned long,long,std::less<unsigned long>,std::allocator<std::pair<unsigned long const ,long> >,0> >::_Node>::deallocate, COMDAT
; _this$ = ecx

; 132  : 		operator delete(_Ptr);

  00000	8b 44 24 04	 mov	 eax, DWORD PTR __Ptr$[esp-4]
  00004	50		 push	 eax
  00005	e8 00 00 00 00	 call	 ??3@YAXPAX@Z		; operator delete
  0000a	59		 pop	 ecx

; 133  : 		}

  0000b	c2 08 00	 ret	 8
?deallocate@?$allocator@U_Node@?$_Tree_nod@V?$_Tmap_traits@KJU?$less@K@std@@V?$allocator@U?$pair@$$CBKJ@std@@@2@$0A@@std@@@std@@@std@@QAEXPAU_Node@?$_Tree_nod@V?$_Tmap_traits@KJU?$less@K@std@@V?$allocator@U?$pair@$$CBKJ@std@@@2@$0A@@std@@@2@I@Z ENDP ; std::allocator<std::_Tree_nod<std::_Tmap_traits<unsigned long,long,std::less<unsigned long>,std::allocator<std::pair<unsigned long const ,long> >,0> >::_Node>::deallocate
_TEXT	ENDS
PUBLIC	??0?$pair@Viterator@?$_Tree@V?$_Tmap_traits@KJU?$less@K@std@@V?$allocator@U?$pair@$$CBKJ@std@@@2@$0A@@std@@@std@@_N@std@@QAE@ABViterator@?$_Tree@V?$_Tmap_traits@KJU?$less@K@std@@V?$allocator@U?$pair@$$CBKJ@std@@@2@$0A@@std@@@1@AB_N@Z ; std::pair<std::_Tree<std::_Tmap_traits<unsigned long,long,std::less<unsigned long>,std::allocator<std::pair<unsigned long const ,long> >,0> >::iterator,bool>::pair<std::_Tree<std::_Tmap_traits<unsigned long,long,std::less<unsigned long>,std::allocator<std::pair<unsigned long const ,long> >,0> >::iterator,bool>
; Function compile flags: /Ogty
; File c:\program files\microsoft visual studio .net 2003\vc7\include\utility
;	COMDAT ??0?$pair@Viterator@?$_Tree@V?$_Tmap_traits@KJU?$less@K@std@@V?$allocator@U?$pair@$$CBKJ@std@@@2@$0A@@std@@@std@@_N@std@@QAE@ABViterator@?$_Tree@V?$_Tmap_traits@KJU?$less@K@std@@V?$allocator@U?$pair@$$CBKJ@std@@@2@$0A@@std@@@1@AB_N@Z
_TEXT	SEGMENT
__Val1$ = 8						; size = 4
__Val2$ = 12						; size = 4
??0?$pair@Viterator@?$_Tree@V?$_Tmap_traits@KJU?$less@K@std@@V?$allocator@U?$pair@$$CBKJ@std@@@2@$0A@@std@@@std@@_N@std@@QAE@ABViterator@?$_Tree@V?$_Tmap_traits@KJU?$less@K@std@@V?$allocator@U?$pair@$$CBKJ@std@@@2@$0A@@std@@@1@AB_N@Z PROC NEAR ; std::pair<std::_Tree<std::_Tmap_traits<unsigned long,long,std::less<unsigned long>,std::allocator<std::pair<unsigned long const ,long> >,0> >::iterator,bool>::pair<std::_Tree<std::_Tmap_traits<unsigned long,long,std::less<unsigned long>,std::allocator<std::pair<unsigned long const ,long> >,0> >::iterator,bool>, COMDAT
; _this$ = ecx

; 34   : 		{	// construct from specified values

  00000	8b c1		 mov	 eax, ecx
  00002	8b 4c 24 04	 mov	 ecx, DWORD PTR __Val1$[esp-4]
  00006	8b 11		 mov	 edx, DWORD PTR [ecx]
  00008	8b 4c 24 08	 mov	 ecx, DWORD PTR __Val2$[esp-4]
  0000c	89 10		 mov	 DWORD PTR [eax], edx
  0000e	8a 11		 mov	 dl, BYTE PTR [ecx]
  00010	88 50 04	 mov	 BYTE PTR [eax+4], dl

; 35   : 		}

  00013	c2 08 00	 ret	 8
??0?$pair@Viterator@?$_Tree@V?$_Tmap_traits@KJU?$less@K@std@@V?$allocator@U?$pair@$$CBKJ@std@@@2@$0A@@std@@@std@@_N@std@@QAE@ABViterator@?$_Tree@V?$_Tmap_traits@KJU?$less@K@std@@V?$allocator@U?$pair@$$CBKJ@std@@@2@$0A@@std@@@1@AB_N@Z ENDP ; std::pair<std::_Tree<std::_Tmap_traits<unsigned long,long,std::less<unsigned long>,std::allocator<std::pair<unsigned long const ,long> >,0> >::iterator,bool>::pair<std::_Tree<std::_Tmap_traits<unsigned long,long,std::less<unsigned long>,std::allocator<std::pair<unsigned long const ,long> >,0> >::iterator,bool>
_TEXT	ENDS
PUBLIC	??8const_iterator@?$_Tree@V?$_Tmap_traits@KJU?$less@K@std@@V?$allocator@U?$pair@$$CBKJ@std@@@2@$0A@@std@@@std@@QBE_NABV012@@Z ; std::_Tree<std::_Tmap_traits<unsigned long,long,std::less<unsigned long>,std::allocator<std::pair<unsigned long const ,long> >,0> >::const_iterator::operator==
; Function compile flags: /Ogty
; File c:\program files\microsoft visual studio .net 2003\vc7\include\xtree
;	COMDAT ??8const_iterator@?$_Tree@V?$_Tmap_traits@KJU?$less@K@std@@V?$allocator@U?$pair@$$CBKJ@std@@@2@$0A@@std@@@std@@QBE_NABV012@@Z
_TEXT	SEGMENT
__Right$ = 8						; size = 4
??8const_iterator@?$_Tree@V?$_Tmap_traits@KJU?$less@K@std@@V?$allocator@U?$pair@$$CBKJ@std@@@2@$0A@@std@@@std@@QBE_NABV012@@Z PROC NEAR ; std::_Tree<std::_Tmap_traits<unsigned long,long,std::less<unsigned long>,std::allocator<std::pair<unsigned long const ,long> >,0> >::const_iterator::operator==, COMDAT
; _this$ = ecx

; 241  : 			return (_Ptr == _Right._Ptr);

  00000	8b 01		 mov	 eax, DWORD PTR [ecx]
  00002	8b 4c 24 04	 mov	 ecx, DWORD PTR __Right$[esp-4]
  00006	2b 01		 sub	 eax, DWORD PTR [ecx]
  00008	f7 d8		 neg	 eax
  0000a	1b c0		 sbb	 eax, eax
  0000c	40		 inc	 eax

; 242  : 			}

  0000d	c2 04 00	 ret	 4
??8const_iterator@?$_Tree@V?$_Tmap_traits@KJU?$less@K@std@@V?$allocator@U?$pair@$$CBKJ@std@@@2@$0A@@std@@@std@@QBE_NABV012@@Z ENDP ; std::_Tree<std::_Tmap_traits<unsigned long,long,std::less<unsigned long>,std::allocator<std::pair<unsigned long const ,long> >,0> >::const_iterator::operator==
_TEXT	ENDS
PUBLIC	?_Mynode@const_iterator@?$_Tree@V?$_Tmap_traits@KJU?$less@K@std@@V?$allocator@U?$pair@$$CBKJ@std@@@2@$0A@@std@@@std@@QBEPAU_Node@?$_Tree_nod@V?$_Tmap_traits@KJU?$less@K@std@@V?$allocator@U?$pair@$$CBKJ@std@@@2@$0A@@std@@@3@XZ ; std::_Tree<std::_Tmap_traits<unsigned long,long,std::less<unsigned long>,std::allocator<std::pair<unsigned long const ,long> >,0> >::const_iterator::_Mynode
; Function compile flags: /Ogty
;	COMDAT ?_Mynode@const_iterator@?$_Tree@V?$_Tmap_traits@KJU?$less@K@std@@V?$allocator@U?$pair@$$CBKJ@std@@@2@$0A@@std@@@std@@QBEPAU_Node@?$_Tree_nod@V?$_Tmap_traits@KJU?$less@K@std@@V?$allocator@U?$pair@$$CBKJ@std@@@2@$0A@@std@@@3@XZ
_TEXT	SEGMENT
?_Mynode@const_iterator@?$_Tree@V?$_Tmap_traits@KJU?$less@K@std@@V?$allocator@U?$pair@$$CBKJ@std@@@2@$0A@@std@@@std@@QBEPAU_Node@?$_Tree_nod@V?$_Tmap_traits@KJU?$less@K@std@@V?$allocator@U?$pair@$$CBKJ@std@@@2@$0A@@std@@@3@XZ PROC NEAR ; std::_Tree<std::_Tmap_traits<unsigned long,long,std::less<unsigned long>,std::allocator<std::pair<unsigned long const ,long> >,0> >::const_iterator::_Mynode, COMDAT
; _this$ = ecx

; 284  : 			return (_Ptr);

  00000	8b 01		 mov	 eax, DWORD PTR [ecx]

; 285  : 			}

  00002	c3		 ret	 0
?_Mynode@const_iterator@?$_Tree@V?$_Tmap_traits@KJU?$less@K@std@@V?$allocator@U?$pair@$$CBKJ@std@@@2@$0A@@std@@@std@@QBEPAU_Node@?$_Tree_nod@V?$_Tmap_traits@KJU?$less@K@std@@V?$allocator@U?$pair@$$CBKJ@std@@@2@$0A@@std@@@3@XZ ENDP ; std::_Tree<std::_Tmap_traits<unsigned long,long,std::less<unsigned long>,std::allocator<std::pair<unsigned long const ,long> >,0> >::const_iterator::_Mynode
_TEXT	ENDS
PUBLIC	?_Myval@?$_Tree@V?$_Tmap_traits@KJU?$less@K@std@@V?$allocator@U?$pair@$$CBKJ@std@@@2@$0A@@std@@@std@@KAAAU?$pair@$$CBKJ@2@PAU_Node@?$_Tree_nod@V?$_Tmap_traits@KJU?$less@K@std@@V?$allocator@U?$pair@$$CBKJ@std@@@2@$0A@@std@@@2@@Z ; std::_Tree<std::_Tmap_traits<unsigned long,long,std::less<unsigned long>,std::allocator<std::pair<unsigned long const ,long> >,0> >::_Myval
; Function compile flags: /Ogty
;	COMDAT ?_Myval@?$_Tree@V?$_Tmap_traits@KJU?$less@K@std@@V?$allocator@U?$pair@$$CBKJ@std@@@2@$0A@@std@@@std@@KAAAU?$pair@$$CBKJ@2@PAU_Node@?$_Tree_nod@V?$_Tmap_traits@KJU?$less@K@std@@V?$allocator@U?$pair@$$CBKJ@std@@@2@$0A@@std@@@2@@Z
_TEXT	SEGMENT
__Pnode$ = 8						; size = 4
?_Myval@?$_Tree@V?$_Tmap_traits@KJU?$less@K@std@@V?$allocator@U?$pair@$$CBKJ@std@@@2@$0A@@std@@@std@@KAAAU?$pair@$$CBKJ@2@PAU_Node@?$_Tree_nod@V?$_Tmap_traits@KJU?$less@K@std@@V?$allocator@U?$pair@$$CBKJ@std@@@2@$0A@@std@@@2@@Z PROC NEAR ; std::_Tree<std::_Tmap_traits<unsigned long,long,std::less<unsigned long>,std::allocator<std::pair<unsigned long const ,long> >,0> >::_Myval, COMDAT

; 162  : 		return ((_Vref)(*_Pnode)._Myval);

  00000	8b 44 24 04	 mov	 eax, DWORD PTR __Pnode$[esp-4]
  00004	83 c0 0c	 add	 eax, 12			; 0000000cH

; 163  : 		}

  00007	c3		 ret	 0
?_Myval@?$_Tree@V?$_Tmap_traits@KJU?$less@K@std@@V?$allocator@U?$pair@$$CBKJ@std@@@2@$0A@@std@@@std@@KAAAU?$pair@$$CBKJ@2@PAU_Node@?$_Tree_nod@V?$_Tmap_traits@KJU?$less@K@std@@V?$allocator@U?$pair@$$CBKJ@std@@@2@$0A@@std@@@2@@Z ENDP ; std::_Tree<std::_Tmap_traits<unsigned long,long,std::less<unsigned long>,std::allocator<std::pair<unsigned long const ,long> >,0> >::_Myval
_TEXT	ENDS
PUBLIC	??0?$allocator@U?$pair@$$CBKJ@std@@@std@@QAE@ABV01@@Z ; std::allocator<std::pair<unsigned long const ,long> >::allocator<std::pair<unsigned long const ,long> >
; Function compile flags: /Ogty
; File c:\program files\microsoft visual studio .net 2003\vc7\include\xmemory
;	COMDAT ??0?$allocator@U?$pair@$$CBKJ@std@@@std@@QAE@ABV01@@Z
_TEXT	SEGMENT
___formal$ = 8						; size = 4
??0?$allocator@U?$pair@$$CBKJ@std@@@std@@QAE@ABV01@@Z PROC NEAR ; std::allocator<std::pair<unsigned long const ,long> >::allocator<std::pair<unsigned long const ,long> >, COMDAT
; _this$ = ecx

; 115  : 	allocator(const allocator<_Ty>&)

  00000	8b c1		 mov	 eax, ecx

; 116  : 		{	// construct by copying (do nothing)
; 117  : 		}

  00002	c2 04 00	 ret	 4
??0?$allocator@U?$pair@$$CBKJ@std@@@std@@QAE@ABV01@@Z ENDP ; std::allocator<std::pair<unsigned long const ,long> >::allocator<std::pair<unsigned long const ,long> >
_TEXT	ENDS
PUBLIC	??0const_iterator@?$_Tree@V?$_Tmap_traits@KJU?$less@K@std@@V?$allocator@U?$pair@$$CBKJ@std@@@2@$0A@@std@@@std@@QAE@PAU_Node@?$_Tree_nod@V?$_Tmap_traits@KJU?$less@K@std@@V?$allocator@U?$pair@$$CBKJ@std@@@2@$0A@@std@@@2@@Z ; std::_Tree<std::_Tmap_traits<unsigned long,long,std::less<unsigned long>,std::allocator<std::pair<unsigned long const ,long> >,0> >::const_iterator::const_iterator
; Function compile flags: /Ogty
; File c:\program files\microsoft visual studio .net 2003\vc7\include\xtree
;	COMDAT ??0const_iterator@?$_Tree@V?$_Tmap_traits@KJU?$less@K@std@@V?$allocator@U?$pair@$$CBKJ@std@@@2@$0A@@std@@@std@@QAE@PAU_Node@?$_Tree_nod@V?$_Tmap_traits@KJU?$less@K@std@@V?$allocator@U?$pair@$$CBKJ@std@@@2@$0A@@std@@@2@@Z
_TEXT	SEGMENT
__Pnode$ = 8						; size = 4
??0const_iterator@?$_Tree@V?$_Tmap_traits@KJU?$less@K@std@@V?$allocator@U?$pair@$$CBKJ@std@@@2@$0A@@std@@@std@@QAE@PAU_Node@?$_Tree_nod@V?$_Tmap_traits@KJU?$less@K@std@@V?$allocator@U?$pair@$$CBKJ@std@@@2@$0A@@std@@@2@@Z PROC NEAR ; std::_Tree<std::_Tmap_traits<unsigned long,long,std::less<unsigned long>,std::allocator<std::pair<unsigned long const ,long> >,0> >::const_iterator::const_iterator, COMDAT
; _this$ = ecx

; 200  : 			{	// construct with node pointer _Pnode

  00000	8b c1		 mov	 eax, ecx
  00002	8b 4c 24 04	 mov	 ecx, DWORD PTR __Pnode$[esp-4]
  00006	89 08		 mov	 DWORD PTR [eax], ecx

; 201  : 			}

  00008	c2 04 00	 ret	 4
??0const_iterator@?$_Tree@V?$_Tmap_traits@KJU?$less@K@std@@V?$allocator@U?$pair@$$CBKJ@std@@@2@$0A@@std@@@std@@QAE@PAU_Node@?$_Tree_nod@V?$_Tmap_traits@KJU?$less@K@std@@V?$allocator@U?$pair@$$CBKJ@std@@@2@$0A@@std@@@2@@Z ENDP ; std::_Tree<std::_Tmap_traits<unsigned long,long,std::less<unsigned long>,std::allocator<std::pair<unsigned long const ,long> >,0> >::const_iterator::const_iterator
_TEXT	ENDS
PUBLIC	??Dconst_iterator@?$_Tree@V?$_Tmap_traits@KJU?$less@K@std@@V?$allocator@U?$pair@$$CBKJ@std@@@2@$0A@@std@@@std@@QBEABU?$pair@$$CBKJ@2@XZ ; std::_Tree<std::_Tmap_traits<unsigned long,long,std::less<unsigned long>,std::allocator<std::pair<unsigned long const ,long> >,0> >::const_iterator::operator*
; Function compile flags: /Ogty
;	COMDAT ??Dconst_iterator@?$_Tree@V?$_Tmap_traits@KJU?$less@K@std@@V?$allocator@U?$pair@$$CBKJ@std@@@2@$0A@@std@@@std@@QBEABU?$pair@$$CBKJ@2@XZ
_TEXT	SEGMENT
??Dconst_iterator@?$_Tree@V?$_Tmap_traits@KJU?$less@K@std@@V?$allocator@U?$pair@$$CBKJ@std@@@2@$0A@@std@@@std@@QBEABU?$pair@$$CBKJ@2@XZ PROC NEAR ; std::_Tree<std::_Tmap_traits<unsigned long,long,std::less<unsigned long>,std::allocator<std::pair<unsigned long const ,long> >,0> >::const_iterator::operator*, COMDAT
; _this$ = ecx

; 205  : 			return (_Myval(_Ptr));

  00000	8b 01		 mov	 eax, DWORD PTR [ecx]
  00002	83 c0 0c	 add	 eax, 12			; 0000000cH

; 206  : 			}

  00005	c3		 ret	 0
??Dconst_iterator@?$_Tree@V?$_Tmap_traits@KJU?$less@K@std@@V?$allocator@U?$pair@$$CBKJ@std@@@2@$0A@@std@@@std@@QBEABU?$pair@$$CBKJ@2@XZ ENDP ; std::_Tree<std::_Tmap_traits<unsigned long,long,std::less<unsigned long>,std::allocator<std::pair<unsigned long const ,long> >,0> >::const_iterator::operator*
_TEXT	ENDS
PUBLIC	?_Inc@const_iterator@?$_Tree@V?$_Tmap_traits@KJU?$less@K@std@@V?$allocator@U?$pair@$$CBKJ@std@@@2@$0A@@std@@@std@@QAEXXZ ; std::_Tree<std::_Tmap_traits<unsigned long,long,std::less<unsigned long>,std::allocator<std::pair<unsigned long const ,long> >,0> >::const_iterator::_Inc
; Function compile flags: /Ogty
;	COMDAT ?_Inc@const_iterator@?$_Tree@V?$_Tmap_traits@KJU?$less@K@std@@V?$allocator@U?$pair@$$CBKJ@std@@@2@$0A@@std@@@std@@QAEXXZ
_TEXT	SEGMENT
?_Inc@const_iterator@?$_Tree@V?$_Tmap_traits@KJU?$less@K@std@@V?$allocator@U?$pair@$$CBKJ@std@@@2@$0A@@std@@@std@@QAEXXZ PROC NEAR ; std::_Tree<std::_Tmap_traits<unsigned long,long,std::less<unsigned long>,std::allocator<std::pair<unsigned long const ,long> >,0> >::const_iterator::_Inc, COMDAT
; _this$ = ecx

; 268  : 			if (_Isnil(_Ptr))

  00000	8b 01		 mov	 eax, DWORD PTR [ecx]
  00002	8a 50 15	 mov	 dl, BYTE PTR [eax+21]
  00005	84 d2		 test	 dl, dl
  00007	75 4d		 jne	 SHORT $L206945

; 269  : 				;	// end() shouldn't be incremented, don't move
; 270  : 			else if (!_Isnil(_Right(_Ptr)))

  00009	8b 50 08	 mov	 edx, DWORD PTR [eax+8]
  0000c	53		 push	 ebx
  0000d	8a 5a 15	 mov	 bl, BYTE PTR [edx+21]
  00010	84 db		 test	 bl, bl
  00012	75 1b		 jne	 SHORT $L208031

; 271  : 				_Ptr = _Min(_Right(_Ptr));	// ==> smallest of right subtree

  00014	8b 02		 mov	 eax, DWORD PTR [edx]
  00016	8a 58 15	 mov	 bl, BYTE PTR [eax+21]
  00019	84 db		 test	 bl, bl
  0001b	75 0e		 jne	 SHORT $L208019
  0001d	8d 49 00	 npad	 3
$L208018:
  00020	8b d0		 mov	 edx, eax
  00022	8b 02		 mov	 eax, DWORD PTR [edx]
  00024	8a 58 15	 mov	 bl, BYTE PTR [eax+21]
  00027	84 db		 test	 bl, bl
  00029	74 f5		 je	 SHORT $L208018
$L208019:
  0002b	89 11		 mov	 DWORD PTR [ecx], edx
  0002d	5b		 pop	 ebx

; 279  : 				}
; 280  : 			}

  0002e	c3		 ret	 0
$L208031:

; 272  : 			else
; 273  : 				{	// climb looking for right subtree
; 274  : 				_Nodeptr _Pnode;
; 275  : 				while (!_Isnil(_Pnode = _Parent(_Ptr))
; 276  : 					&& _Ptr == _Right(_Pnode))

  0002f	8b 40 04	 mov	 eax, DWORD PTR [eax+4]
  00032	8a 50 15	 mov	 dl, BYTE PTR [eax+21]
  00035	84 d2		 test	 dl, dl
  00037	75 1a		 jne	 SHORT $L206949
  00039	8d a4 24 00 00
	00 00		 npad	 7
$L206948:
  00040	8b 11		 mov	 edx, DWORD PTR [ecx]
  00042	3b 50 08	 cmp	 edx, DWORD PTR [eax+8]
  00045	75 0c		 jne	 SHORT $L206949

; 277  : 					_Ptr = _Pnode;	// ==> parent while right subtree

  00047	89 01		 mov	 DWORD PTR [ecx], eax
  00049	8b 40 04	 mov	 eax, DWORD PTR [eax+4]
  0004c	8a 50 15	 mov	 dl, BYTE PTR [eax+21]
  0004f	84 d2		 test	 dl, dl
  00051	74 ed		 je	 SHORT $L206948
$L206949:

; 278  : 				_Ptr = _Pnode;	// ==> parent (head if end())

  00053	89 01		 mov	 DWORD PTR [ecx], eax
  00055	5b		 pop	 ebx
$L206945:

; 279  : 				}
; 280  : 			}

  00056	c3		 ret	 0
?_Inc@const_iterator@?$_Tree@V?$_Tmap_traits@KJU?$less@K@std@@V?$allocator@U?$pair@$$CBKJ@std@@@2@$0A@@std@@@std@@QAEXXZ ENDP ; std::_Tree<std::_Tmap_traits<unsigned long,long,std::less<unsigned long>,std::allocator<std::pair<unsigned long const ,long> >,0> >::const_iterator::_Inc
_TEXT	ENDS
PUBLIC	??Yiterator@?$vector@U_COUPLE_ITEM@@V?$allocator@U_COUPLE_ITEM@@@std@@@std@@QAEAAV012@H@Z ; std::vector<_COUPLE_ITEM,std::allocator<_COUPLE_ITEM> >::iterator::operator+=
; Function compile flags: /Ogty
; File c:\program files\microsoft visual studio .net 2003\vc7\include\vector
;	COMDAT ??Yiterator@?$vector@U_COUPLE_ITEM@@V?$allocator@U_COUPLE_ITEM@@@std@@@std@@QAEAAV012@H@Z
_TEXT	SEGMENT
__Off$ = 8						; size = 4
??Yiterator@?$vector@U_COUPLE_ITEM@@V?$allocator@U_COUPLE_ITEM@@@std@@@std@@QAEAAV012@H@Z PROC NEAR ; std::vector<_COUPLE_ITEM,std::allocator<_COUPLE_ITEM> >::iterator::operator+=, COMDAT
; _this$ = ecx

; 255  : 			{	// increment by integer

  00000	8b c1		 mov	 eax, ecx

; 256  : 			this->_Myptr += _Off;

  00002	8b 4c 24 04	 mov	 ecx, DWORD PTR __Off$[esp-4]
  00006	8b 10		 mov	 edx, DWORD PTR [eax]
  00008	8d 0c 89	 lea	 ecx, DWORD PTR [ecx+ecx*4]
  0000b	c1 e1 02	 shl	 ecx, 2
  0000e	03 d1		 add	 edx, ecx
  00010	89 10		 mov	 DWORD PTR [eax], edx

; 257  : 			return (*this);
; 258  : 			}

  00012	c2 04 00	 ret	 4
??Yiterator@?$vector@U_COUPLE_ITEM@@V?$allocator@U_COUPLE_ITEM@@@std@@@std@@QAEAAV012@H@Z ENDP ; std::vector<_COUPLE_ITEM,std::allocator<_COUPLE_ITEM> >::iterator::operator+=
_TEXT	ENDS
PUBLIC	??Dconst_iterator@?$vector@U_COUPLE_ITEM@@V?$allocator@U_COUPLE_ITEM@@@std@@@std@@QBEABU_COUPLE_ITEM@@XZ ; std::vector<_COUPLE_ITEM,std::allocator<_COUPLE_ITEM> >::const_iterator::operator*
; Function compile flags: /Ogty
;	COMDAT ??Dconst_iterator@?$vector@U_COUPLE_ITEM@@V?$allocator@U_COUPLE_ITEM@@@std@@@std@@QBEABU_COUPLE_ITEM@@XZ
_TEXT	SEGMENT
??Dconst_iterator@?$vector@U_COUPLE_ITEM@@V?$allocator@U_COUPLE_ITEM@@@std@@@std@@QBEABU_COUPLE_ITEM@@XZ PROC NEAR ; std::vector<_COUPLE_ITEM,std::allocator<_COUPLE_ITEM> >::const_iterator::operator*, COMDAT
; _this$ = ecx

; 80   : 
; 81   : 
; 82   : 			return (*_Myptr);

  00000	8b 01		 mov	 eax, DWORD PTR [ecx]

; 83   : 			}

  00002	c3		 ret	 0
??Dconst_iterator@?$vector@U_COUPLE_ITEM@@V?$allocator@U_COUPLE_ITEM@@@std@@@std@@QBEABU_COUPLE_ITEM@@XZ ENDP ; std::vector<_COUPLE_ITEM,std::allocator<_COUPLE_ITEM> >::const_iterator::operator*
_TEXT	ENDS
PUBLIC	?_Root@?$_Tree@V?$_Tmap_traits@KJU?$less@K@std@@V?$allocator@U?$pair@$$CBKJ@std@@@2@$0A@@std@@@std@@IBEAAPAU_Node@?$_Tree_nod@V?$_Tmap_traits@KJU?$less@K@std@@V?$allocator@U?$pair@$$CBKJ@std@@@2@$0A@@std@@@2@XZ ; std::_Tree<std::_Tmap_traits<unsigned long,long,std::less<unsigned long>,std::allocator<std::pair<unsigned long const ,long> >,0> >::_Root
; Function compile flags: /Ogty
; File c:\program files\microsoft visual studio .net 2003\vc7\include\xtree
;	COMDAT ?_Root@?$_Tree@V?$_Tmap_traits@KJU?$less@K@std@@V?$allocator@U?$pair@$$CBKJ@std@@@2@$0A@@std@@@std@@IBEAAPAU_Node@?$_Tree_nod@V?$_Tmap_traits@KJU?$less@K@std@@V?$allocator@U?$pair@$$CBKJ@std@@@2@$0A@@std@@@2@XZ
_TEXT	SEGMENT
?_Root@?$_Tree@V?$_Tmap_traits@KJU?$less@K@std@@V?$allocator@U?$pair@$$CBKJ@std@@@2@$0A@@std@@@std@@IBEAAPAU_Node@?$_Tree_nod@V?$_Tmap_traits@KJU?$less@K@std@@V?$allocator@U?$pair@$$CBKJ@std@@@2@$0A@@std@@@2@XZ PROC NEAR ; std::_Tree<std::_Tmap_traits<unsigned long,long,std::less<unsigned long>,std::allocator<std::pair<unsigned long const ,long> >,0> >::_Root, COMDAT
; _this$ = ecx

; 1064 : 		return (_Parent(_Myhead));

  00000	8b 41 04	 mov	 eax, DWORD PTR [ecx+4]
  00003	83 c0 04	 add	 eax, 4

; 1065 : 		}

  00006	c3		 ret	 0
?_Root@?$_Tree@V?$_Tmap_traits@KJU?$less@K@std@@V?$allocator@U?$pair@$$CBKJ@std@@@2@$0A@@std@@@std@@IBEAAPAU_Node@?$_Tree_nod@V?$_Tmap_traits@KJU?$less@K@std@@V?$allocator@U?$pair@$$CBKJ@std@@@2@$0A@@std@@@2@XZ ENDP ; std::_Tree<std::_Tmap_traits<unsigned long,long,std::less<unsigned long>,std::allocator<std::pair<unsigned long const ,long> >,0> >::_Root
_TEXT	ENDS
PUBLIC	?max_size@?$allocator@U?$pair@$$CBKJ@std@@@std@@QBEIXZ ; std::allocator<std::pair<unsigned long const ,long> >::max_size
; Function compile flags: /Ogty
; File c:\program files\microsoft visual studio .net 2003\vc7\include\xmemory
;	COMDAT ?max_size@?$allocator@U?$pair@$$CBKJ@std@@@std@@QBEIXZ
_TEXT	SEGMENT
?max_size@?$allocator@U?$pair@$$CBKJ@std@@@std@@QBEIXZ PROC NEAR ; std::allocator<std::pair<unsigned long const ,long> >::max_size, COMDAT
; _this$ = ecx

; 157  : 		_SIZT _Count = (_SIZT)(-1) / sizeof (_Ty);
; 158  : 		return (0 < _Count ? _Count : 1);

  00000	b8 ff ff ff 1f	 mov	 eax, 536870911		; 1fffffffH

; 159  : 		}

  00005	c3		 ret	 0
?max_size@?$allocator@U?$pair@$$CBKJ@std@@@std@@QBEIXZ ENDP ; std::allocator<std::pair<unsigned long const ,long> >::max_size
_TEXT	ENDS
PUBLIC	?_Dec@const_iterator@?$_Tree@V?$_Tmap_traits@KJU?$less@K@std@@V?$allocator@U?$pair@$$CBKJ@std@@@2@$0A@@std@@@std@@QAEXXZ ; std::_Tree<std::_Tmap_traits<unsigned long,long,std::less<unsigned long>,std::allocator<std::pair<unsigned long const ,long> >,0> >::const_iterator::_Dec
; Function compile flags: /Ogty
; File c:\program files\microsoft visual studio .net 2003\vc7\include\xtree
;	COMDAT ?_Dec@const_iterator@?$_Tree@V?$_Tmap_traits@KJU?$less@K@std@@V?$allocator@U?$pair@$$CBKJ@std@@@2@$0A@@std@@@std@@QAEXXZ
_TEXT	SEGMENT
?_Dec@const_iterator@?$_Tree@V?$_Tmap_traits@KJU?$less@K@std@@V?$allocator@U?$pair@$$CBKJ@std@@@2@$0A@@std@@@std@@QAEXXZ PROC NEAR ; std::_Tree<std::_Tmap_traits<unsigned long,long,std::less<unsigned long>,std::allocator<std::pair<unsigned long const ,long> >,0> >::const_iterator::_Dec, COMDAT
; _this$ = ecx

; 251  : 			if (_Isnil(_Ptr))

  00000	8b 01		 mov	 eax, DWORD PTR [ecx]
  00002	8a 50 15	 mov	 dl, BYTE PTR [eax+21]
  00005	84 d2		 test	 dl, dl
  00007	74 06		 je	 SHORT $L207058

; 252  : 				_Ptr = _Right(_Ptr);	// end() ==> rightmost

  00009	8b 40 08	 mov	 eax, DWORD PTR [eax+8]
  0000c	89 01		 mov	 DWORD PTR [ecx], eax

; 263  : 				}
; 264  : 			}

  0000e	c3		 ret	 0
$L207058:

; 253  : 			else if (!_Isnil(_Left(_Ptr)))

  0000f	8b 10		 mov	 edx, DWORD PTR [eax]
  00011	53		 push	 ebx
  00012	8a 5a 15	 mov	 bl, BYTE PTR [edx+21]
  00015	84 db		 test	 bl, bl
  00017	75 1a		 jne	 SHORT $L208101

; 254  : 				_Ptr = _Max(_Left(_Ptr));	// ==> largest of left subtree

  00019	8b 42 08	 mov	 eax, DWORD PTR [edx+8]
  0001c	8a 58 15	 mov	 bl, BYTE PTR [eax+21]
  0001f	84 db		 test	 bl, bl
  00021	75 0c		 jne	 SHORT $L208086
$L208085:
  00023	8b d0		 mov	 edx, eax
  00025	8b 42 08	 mov	 eax, DWORD PTR [edx+8]
  00028	8a 58 15	 mov	 bl, BYTE PTR [eax+21]
  0002b	84 db		 test	 bl, bl
  0002d	74 f4		 je	 SHORT $L208085
$L208086:
  0002f	89 11		 mov	 DWORD PTR [ecx], edx
  00031	5b		 pop	 ebx

; 263  : 				}
; 264  : 			}

  00032	c3		 ret	 0
$L208101:

; 255  : 			else
; 256  : 				{	// climb looking for left subtree
; 257  : 				_Nodeptr _Pnode;
; 258  : 				while (!_Isnil(_Pnode = _Parent(_Ptr))
; 259  : 					&& _Ptr == _Left(_Pnode))

  00033	8b 40 04	 mov	 eax, DWORD PTR [eax+4]
  00036	8a 50 15	 mov	 dl, BYTE PTR [eax+21]
  00039	84 d2		 test	 dl, dl
  0003b	75 1e		 jne	 SHORT $L208104
  0003d	8d 49 00	 npad	 3
$L207064:
  00040	8b 11		 mov	 edx, DWORD PTR [ecx]
  00042	3b 10		 cmp	 edx, DWORD PTR [eax]
  00044	75 0c		 jne	 SHORT $L207065

; 260  : 					_Ptr = _Pnode;	// ==> parent while left subtree

  00046	89 01		 mov	 DWORD PTR [ecx], eax
  00048	8b 40 04	 mov	 eax, DWORD PTR [eax+4]
  0004b	8a 50 15	 mov	 dl, BYTE PTR [eax+21]
  0004e	84 d2		 test	 dl, dl
  00050	74 ee		 je	 SHORT $L207064
$L207065:

; 261  : 				if (!_Isnil(_Pnode))

  00052	8a 50 15	 mov	 dl, BYTE PTR [eax+21]
  00055	84 d2		 test	 dl, dl
  00057	75 02		 jne	 SHORT $L208104

; 262  : 					_Ptr = _Pnode;	// ==> parent if not head

  00059	89 01		 mov	 DWORD PTR [ecx], eax
$L208104:
  0005b	5b		 pop	 ebx

; 263  : 				}
; 264  : 			}

  0005c	c3		 ret	 0
?_Dec@const_iterator@?$_Tree@V?$_Tmap_traits@KJU?$less@K@std@@V?$allocator@U?$pair@$$CBKJ@std@@@2@$0A@@std@@@std@@QAEXXZ ENDP ; std::_Tree<std::_Tmap_traits<unsigned long,long,std::less<unsigned long>,std::allocator<std::pair<unsigned long const ,long> >,0> >::const_iterator::_Dec
_TEXT	ENDS
PUBLIC	??0const_iterator@?$vector@U_COUPLE_ITEM@@V?$allocator@U_COUPLE_ITEM@@@std@@@std@@QAE@PAU_COUPLE_ITEM@@@Z ; std::vector<_COUPLE_ITEM,std::allocator<_COUPLE_ITEM> >::const_iterator::const_iterator
; Function compile flags: /Ogty
; File c:\program files\microsoft visual studio .net 2003\vc7\include\vector
;	COMDAT ??0const_iterator@?$vector@U_COUPLE_ITEM@@V?$allocator@U_COUPLE_ITEM@@@std@@@std@@QAE@PAU_COUPLE_ITEM@@@Z
_TEXT	SEGMENT
__Ptr$ = 8						; size = 4
??0const_iterator@?$vector@U_COUPLE_ITEM@@V?$allocator@U_COUPLE_ITEM@@@std@@@std@@QAE@PAU_COUPLE_ITEM@@@Z PROC NEAR ; std::vector<_COUPLE_ITEM,std::allocator<_COUPLE_ITEM> >::const_iterator::const_iterator, COMDAT
; _this$ = ecx

; 73   : 		const_iterator(_Tptr _Ptr)

  00000	8b c1		 mov	 eax, ecx

; 74   : 			{	// construct with pointer _Ptr
; 75   : 			_Myptr = _Ptr;

  00002	8b 4c 24 04	 mov	 ecx, DWORD PTR __Ptr$[esp-4]
  00006	89 08		 mov	 DWORD PTR [eax], ecx

; 76   : 			}

  00008	c2 04 00	 ret	 4
??0const_iterator@?$vector@U_COUPLE_ITEM@@V?$allocator@U_COUPLE_ITEM@@@std@@@std@@QAE@PAU_COUPLE_ITEM@@@Z ENDP ; std::vector<_COUPLE_ITEM,std::allocator<_COUPLE_ITEM> >::const_iterator::const_iterator
_TEXT	ENDS
PUBLIC	??0_Node@?$_Tree_nod@V?$_Tmap_traits@KJU?$less@K@std@@V?$allocator@U?$pair@$$CBKJ@std@@@2@$0A@@std@@@std@@QAE@PAU012@00ABU?$pair@$$CBKJ@2@D@Z ; std::_Tree_nod<std::_Tmap_traits<unsigned long,long,std::less<unsigned long>,std::allocator<std::pair<unsigned long const ,long> >,0> >::_Node::_Node
; Function compile flags: /Ogty
; File c:\program files\microsoft visual studio .net 2003\vc7\include\xtree
;	COMDAT ??0_Node@?$_Tree_nod@V?$_Tmap_traits@KJU?$less@K@std@@V?$allocator@U?$pair@$$CBKJ@std@@@2@$0A@@std@@@std@@QAE@PAU012@00ABU?$pair@$$CBKJ@2@D@Z
_TEXT	SEGMENT
__Larg$ = 8						; size = 4
__Parg$ = 12						; size = 4
__Rarg$ = 16						; size = 4
__Val$ = 20						; size = 4
__Carg$ = 24						; size = 1
??0_Node@?$_Tree_nod@V?$_Tmap_traits@KJU?$less@K@std@@V?$allocator@U?$pair@$$CBKJ@std@@@2@$0A@@std@@@std@@QAE@PAU012@00ABU?$pair@$$CBKJ@2@D@Z PROC NEAR ; std::_Tree_nod<std::_Tmap_traits<unsigned long,long,std::less<unsigned long>,std::allocator<std::pair<unsigned long const ,long> >,0> >::_Node::_Node, COMDAT
; _this$ = ecx

; 40   : 			{	// construct a node with value

  00000	8b 54 24 08	 mov	 edx, DWORD PTR __Parg$[esp-4]
  00004	8b c1		 mov	 eax, ecx
  00006	8b 4c 24 04	 mov	 ecx, DWORD PTR __Larg$[esp-4]
  0000a	89 08		 mov	 DWORD PTR [eax], ecx
  0000c	8b 4c 24 0c	 mov	 ecx, DWORD PTR __Rarg$[esp-4]
  00010	89 48 08	 mov	 DWORD PTR [eax+8], ecx
  00013	8b 4c 24 10	 mov	 ecx, DWORD PTR __Val$[esp-4]
  00017	89 50 04	 mov	 DWORD PTR [eax+4], edx
  0001a	8b 11		 mov	 edx, DWORD PTR [ecx]
  0001c	89 50 0c	 mov	 DWORD PTR [eax+12], edx
  0001f	8b 49 04	 mov	 ecx, DWORD PTR [ecx+4]
  00022	8a 54 24 14	 mov	 dl, BYTE PTR __Carg$[esp-4]
  00026	89 48 10	 mov	 DWORD PTR [eax+16], ecx
  00029	88 50 14	 mov	 BYTE PTR [eax+20], dl
  0002c	c6 40 15 00	 mov	 BYTE PTR [eax+21], 0

; 41   : 			}

  00030	c2 14 00	 ret	 20			; 00000014H
??0_Node@?$_Tree_nod@V?$_Tmap_traits@KJU?$less@K@std@@V?$allocator@U?$pair@$$CBKJ@std@@@2@$0A@@std@@@std@@QAE@PAU012@00ABU?$pair@$$CBKJ@2@D@Z ENDP ; std::_Tree_nod<std::_Tmap_traits<unsigned long,long,std::less<unsigned long>,std::allocator<std::pair<unsigned long const ,long> >,0> >::_Node::_Node
_TEXT	ENDS
PUBLIC	??0?$_Tmap_traits@KJU?$less@K@std@@V?$allocator@U?$pair@$$CBKJ@std@@@2@$0A@@std@@QAE@U?$less@K@1@@Z ; std::_Tmap_traits<unsigned long,long,std::less<unsigned long>,std::allocator<std::pair<unsigned long const ,long> >,0>::_Tmap_traits<unsigned long,long,std::less<unsigned long>,std::allocator<std::pair<unsigned long const ,long> >,0>
; Function compile flags: /Ogty
; File c:\program files\microsoft visual studio .net 2003\vc7\include\map
;	COMDAT ??0?$_Tmap_traits@KJU?$less@K@std@@V?$allocator@U?$pair@$$CBKJ@std@@@2@$0A@@std@@QAE@U?$less@K@1@@Z
_TEXT	SEGMENT
__Parg$ = 8						; size = 1
??0?$_Tmap_traits@KJU?$less@K@std@@V?$allocator@U?$pair@$$CBKJ@std@@@2@$0A@@std@@QAE@U?$less@K@1@@Z PROC NEAR ; std::_Tmap_traits<unsigned long,long,std::less<unsigned long>,std::allocator<std::pair<unsigned long const ,long> >,0>::_Tmap_traits<unsigned long,long,std::less<unsigned long>,std::allocator<std::pair<unsigned long const ,long> >,0>, COMDAT
; _this$ = ecx

; 38   : 		{	// construct with specified comparator

  00000	8b c1		 mov	 eax, ecx

; 39   : 		}

  00002	c2 04 00	 ret	 4
??0?$_Tmap_traits@KJU?$less@K@std@@V?$allocator@U?$pair@$$CBKJ@std@@@2@$0A@@std@@QAE@U?$less@K@1@@Z ENDP ; std::_Tmap_traits<unsigned long,long,std::less<unsigned long>,std::allocator<std::pair<unsigned long const ,long> >,0>::_Tmap_traits<unsigned long,long,std::less<unsigned long>,std::allocator<std::pair<unsigned long const ,long> >,0>
_TEXT	ENDS
PUBLIC	??$_Destroy@U_Node@?$_Tree_nod@V?$_Tmap_traits@KJU?$less@K@std@@V?$allocator@U?$pair@$$CBKJ@std@@@2@$0A@@std@@@std@@@std@@YAXPAU_Node@?$_Tree_nod@V?$_Tmap_traits@KJU?$less@K@std@@V?$allocator@U?$pair@$$CBKJ@std@@@2@$0A@@std@@@0@@Z ; std::_Destroy<std::_Tree_nod<std::_Tmap_traits<unsigned long,long,std::less<unsigned long>,std::allocator<std::pair<unsigned long const ,long> >,0> >::_Node>
; Function compile flags: /Ogty
; File c:\program files\microsoft visual studio .net 2003\vc7\include\xmemory
;	COMDAT ??$_Destroy@U_Node@?$_Tree_nod@V?$_Tmap_traits@KJU?$less@K@std@@V?$allocator@U?$pair@$$CBKJ@std@@@2@$0A@@std@@@std@@@std@@YAXPAU_Node@?$_Tree_nod@V?$_Tmap_traits@KJU?$less@K@std@@V?$allocator@U?$pair@$$CBKJ@std@@@2@$0A@@std@@@0@@Z
_TEXT	SEGMENT
__Ptr$ = 8						; size = 4
??$_Destroy@U_Node@?$_Tree_nod@V?$_Tmap_traits@KJU?$less@K@std@@V?$allocator@U?$pair@$$CBKJ@std@@@2@$0A@@std@@@std@@@std@@YAXPAU_Node@?$_Tree_nod@V?$_Tmap_traits@KJU?$less@K@std@@V?$allocator@U?$pair@$$CBKJ@std@@@2@$0A@@std@@@0@@Z PROC NEAR ; std::_Destroy<std::_Tree_nod<std::_Tmap_traits<unsigned long,long,std::less<unsigned long>,std::allocator<std::pair<unsigned long const ,long> >,0> >::_Node>, COMDAT

; 49   : 	_DESTRUCTOR(_Ty, _Ptr);
; 50   : 	}

  00000	c3		 ret	 0
??$_Destroy@U_Node@?$_Tree_nod@V?$_Tmap_traits@KJU?$less@K@std@@V?$allocator@U?$pair@$$CBKJ@std@@@2@$0A@@std@@@std@@@std@@YAXPAU_Node@?$_Tree_nod@V?$_Tmap_traits@KJU?$less@K@std@@V?$allocator@U?$pair@$$CBKJ@std@@@2@$0A@@std@@@0@@Z ENDP ; std::_Destroy<std::_Tree_nod<std::_Tmap_traits<unsigned long,long,std::less<unsigned long>,std::allocator<std::pair<unsigned long const ,long> >,0> >::_Node>
_TEXT	ENDS
PUBLIC	??$_Destroy@PAU_Node@?$_Tree_nod@V?$_Tmap_traits@KJU?$less@K@std@@V?$allocator@U?$pair@$$CBKJ@std@@@2@$0A@@std@@@std@@@std@@YAXPAPAU_Node@?$_Tree_nod@V?$_Tmap_traits@KJU?$less@K@std@@V?$allocator@U?$pair@$$CBKJ@std@@@2@$0A@@std@@@0@@Z ; std::_Destroy<std::_Tree_nod<std::_Tmap_traits<unsigned long,long,std::less<unsigned long>,std::allocator<std::pair<unsigned long const ,long> >,0> >::_Node *>
; Function compile flags: /Ogty
;	COMDAT ??$_Destroy@PAU_Node@?$_Tree_nod@V?$_Tmap_traits@KJU?$less@K@std@@V?$allocator@U?$pair@$$CBKJ@std@@@2@$0A@@std@@@std@@@std@@YAXPAPAU_Node@?$_Tree_nod@V?$_Tmap_traits@KJU?$less@K@std@@V?$allocator@U?$pair@$$CBKJ@std@@@2@$0A@@std@@@0@@Z
_TEXT	SEGMENT
__Ptr$ = 8						; size = 4
??$_Destroy@PAU_Node@?$_Tree_nod@V?$_Tmap_traits@KJU?$less@K@std@@V?$allocator@U?$pair@$$CBKJ@std@@@2@$0A@@std@@@std@@@std@@YAXPAPAU_Node@?$_Tree_nod@V?$_Tmap_traits@KJU?$less@K@std@@V?$allocator@U?$pair@$$CBKJ@std@@@2@$0A@@std@@@0@@Z PROC NEAR ; std::_Destroy<std::_Tree_nod<std::_Tmap_traits<unsigned long,long,std::less<unsigned long>,std::allocator<std::pair<unsigned long const ,long> >,0> >::_Node *>, COMDAT

; 49   : 	_DESTRUCTOR(_Ty, _Ptr);
; 50   : 	}

  00000	c3		 ret	 0
??$_Destroy@PAU_Node@?$_Tree_nod@V?$_Tmap_traits@KJU?$less@K@std@@V?$allocator@U?$pair@$$CBKJ@std@@@2@$0A@@std@@@std@@@std@@YAXPAPAU_Node@?$_Tree_nod@V?$_Tmap_traits@KJU?$less@K@std@@V?$allocator@U?$pair@$$CBKJ@std@@@2@$0A@@std@@@0@@Z ENDP ; std::_Destroy<std::_Tree_nod<std::_Tmap_traits<unsigned long,long,std::less<unsigned long>,std::allocator<std::pair<unsigned long const ,long> >,0> >::_Node *>
_TEXT	ENDS
PUBLIC	??$?0U?$pair@$$CBKJ@std@@@?$allocator@PAU_Node@?$_Tree_nod@V?$_Tmap_traits@KJU?$less@K@std@@V?$allocator@U?$pair@$$CBKJ@std@@@2@$0A@@std@@@std@@@std@@QAE@ABV?$allocator@U?$pair@$$CBKJ@std@@@1@@Z ; std::allocator<std::_Tree_nod<std::_Tmap_traits<unsigned long,long,std::less<unsigned long>,std::allocator<std::pair<unsigned long const ,long> >,0> >::_Node *>::allocator<std::_Tree_nod<std::_Tmap_traits<unsigned long,long,std::less<unsigned long>,std::allocator<std::pair<unsigned long const ,long> >,0> >::_Node *><std::pair<unsigned long const ,long> >
; Function compile flags: /Ogty
;	COMDAT ??$?0U?$pair@$$CBKJ@std@@@?$allocator@PAU_Node@?$_Tree_nod@V?$_Tmap_traits@KJU?$less@K@std@@V?$allocator@U?$pair@$$CBKJ@std@@@2@$0A@@std@@@std@@@std@@QAE@ABV?$allocator@U?$pair@$$CBKJ@std@@@1@@Z
_TEXT	SEGMENT
___formal$ = 8						; size = 4
??$?0U?$pair@$$CBKJ@std@@@?$allocator@PAU_Node@?$_Tree_nod@V?$_Tmap_traits@KJU?$less@K@std@@V?$allocator@U?$pair@$$CBKJ@std@@@2@$0A@@std@@@std@@@std@@QAE@ABV?$allocator@U?$pair@$$CBKJ@std@@@1@@Z PROC NEAR ; std::allocator<std::_Tree_nod<std::_Tmap_traits<unsigned long,long,std::less<unsigned long>,std::allocator<std::pair<unsigned long const ,long> >,0> >::_Node *>::allocator<std::_Tree_nod<std::_Tmap_traits<unsigned long,long,std::less<unsigned long>,std::allocator<std::pair<unsigned long const ,long> >,0> >::_Node *><std::pair<unsigned long const ,long> >, COMDAT
; _this$ = ecx

; 120  : 		allocator(const allocator<_Other>&)

  00000	8b c1		 mov	 eax, ecx

; 121  : 		{	// construct from a related allocator (do nothing)
; 122  : 		}

  00002	c2 04 00	 ret	 4
??$?0U?$pair@$$CBKJ@std@@@?$allocator@PAU_Node@?$_Tree_nod@V?$_Tmap_traits@KJU?$less@K@std@@V?$allocator@U?$pair@$$CBKJ@std@@@2@$0A@@std@@@std@@@std@@QAE@ABV?$allocator@U?$pair@$$CBKJ@std@@@1@@Z ENDP ; std::allocator<std::_Tree_nod<std::_Tmap_traits<unsigned long,long,std::less<unsigned long>,std::allocator<std::pair<unsigned long const ,long> >,0> >::_Node *>::allocator<std::_Tree_nod<std::_Tmap_traits<unsigned long,long,std::less<unsigned long>,std::allocator<std::pair<unsigned long const ,long> >,0> >::_Node *><std::pair<unsigned long const ,long> >
_TEXT	ENDS
PUBLIC	??$_Allocate@U_Node@?$_Tree_nod@V?$_Tmap_traits@KJU?$less@K@std@@V?$allocator@U?$pair@$$CBKJ@std@@@2@$0A@@std@@@std@@@std@@YAPAU_Node@?$_Tree_nod@V?$_Tmap_traits@KJU?$less@K@std@@V?$allocator@U?$pair@$$CBKJ@std@@@2@$0A@@std@@@0@IPAU120@@Z ; std::_Allocate<std::_Tree_nod<std::_Tmap_traits<unsigned long,long,std::less<unsigned long>,std::allocator<std::pair<unsigned long const ,long> >,0> >::_Node>
EXTRN	??2@YAPAXI@Z:NEAR				; operator new
; Function compile flags: /Ogty
;	COMDAT ??$_Allocate@U_Node@?$_Tree_nod@V?$_Tmap_traits@KJU?$less@K@std@@V?$allocator@U?$pair@$$CBKJ@std@@@2@$0A@@std@@@std@@@std@@YAPAU_Node@?$_Tree_nod@V?$_Tmap_traits@KJU?$less@K@std@@V?$allocator@U?$pair@$$CBKJ@std@@@2@$0A@@std@@@0@IPAU120@@Z
_TEXT	SEGMENT
__Count$ = 8						; size = 4
___formal$ = 12						; size = 4
??$_Allocate@U_Node@?$_Tree_nod@V?$_Tmap_traits@KJU?$less@K@std@@V?$allocator@U?$pair@$$CBKJ@std@@@2@$0A@@std@@@std@@@std@@YAPAU_Node@?$_Tree_nod@V?$_Tmap_traits@KJU?$less@K@std@@V?$allocator@U?$pair@$$CBKJ@std@@@2@$0A@@std@@@0@IPAU120@@Z PROC NEAR ; std::_Allocate<std::_Tree_nod<std::_Tmap_traits<unsigned long,long,std::less<unsigned long>,std::allocator<std::pair<unsigned long const ,long> >,0> >::_Node>, COMDAT

; 34   : 	return ((_Ty _FARQ *)operator new(_Count * sizeof (_Ty)));

  00000	8b 44 24 04	 mov	 eax, DWORD PTR __Count$[esp-4]
  00004	8d 04 40	 lea	 eax, DWORD PTR [eax+eax*2]
  00007	c1 e0 03	 shl	 eax, 3
  0000a	50		 push	 eax
  0000b	e8 00 00 00 00	 call	 ??2@YAPAXI@Z		; operator new
  00010	83 c4 04	 add	 esp, 4

; 35   : 	}

  00013	c3		 ret	 0
??$_Allocate@U_Node@?$_Tree_nod@V?$_Tmap_traits@KJU?$less@K@std@@V?$allocator@U?$pair@$$CBKJ@std@@@2@$0A@@std@@@std@@@std@@YAPAU_Node@?$_Tree_nod@V?$_Tmap_traits@KJU?$less@K@std@@V?$allocator@U?$pair@$$CBKJ@std@@@2@$0A@@std@@@0@IPAU120@@Z ENDP ; std::_Allocate<std::_Tree_nod<std::_Tmap_traits<unsigned long,long,std::less<unsigned long>,std::allocator<std::pair<unsigned long const ,long> >,0> >::_Node>
_TEXT	ENDS
PUBLIC	??$?0U?$pair@$$CBKJ@std@@@?$allocator@U_Node@?$_Tree_nod@V?$_Tmap_traits@KJU?$less@K@std@@V?$allocator@U?$pair@$$CBKJ@std@@@2@$0A@@std@@@std@@@std@@QAE@ABV?$allocator@U?$pair@$$CBKJ@std@@@1@@Z ; std::allocator<std::_Tree_nod<std::_Tmap_traits<unsigned long,long,std::less<unsigned long>,std::allocator<std::pair<unsigned long const ,long> >,0> >::_Node>::allocator<std::_Tree_nod<std::_Tmap_traits<unsigned long,long,std::less<unsigned long>,std::allocator<std::pair<unsigned long const ,long> >,0> >::_Node><std::pair<unsigned long const ,long> >
; Function compile flags: /Ogty
;	COMDAT ??$?0U?$pair@$$CBKJ@std@@@?$allocator@U_Node@?$_Tree_nod@V?$_Tmap_traits@KJU?$less@K@std@@V?$allocator@U?$pair@$$CBKJ@std@@@2@$0A@@std@@@std@@@std@@QAE@ABV?$allocator@U?$pair@$$CBKJ@std@@@1@@Z
_TEXT	SEGMENT
___formal$ = 8						; size = 4
??$?0U?$pair@$$CBKJ@std@@@?$allocator@U_Node@?$_Tree_nod@V?$_Tmap_traits@KJU?$less@K@std@@V?$allocator@U?$pair@$$CBKJ@std@@@2@$0A@@std@@@std@@@std@@QAE@ABV?$allocator@U?$pair@$$CBKJ@std@@@1@@Z PROC NEAR ; std::allocator<std::_Tree_nod<std::_Tmap_traits<unsigned long,long,std::less<unsigned long>,std::allocator<std::pair<unsigned long const ,long> >,0> >::_Node>::allocator<std::_Tree_nod<std::_Tmap_traits<unsigned long,long,std::less<unsigned long>,std::allocator<std::pair<unsigned long const ,long> >,0> >::_Node><std::pair<unsigned long const ,long> >, COMDAT
; _this$ = ecx

; 120  : 		allocator(const allocator<_Other>&)

  00000	8b c1		 mov	 eax, ecx

; 121  : 		{	// construct from a related allocator (do nothing)
; 122  : 		}

  00002	c2 04 00	 ret	 4
??$?0U?$pair@$$CBKJ@std@@@?$allocator@U_Node@?$_Tree_nod@V?$_Tmap_traits@KJU?$less@K@std@@V?$allocator@U?$pair@$$CBKJ@std@@@2@$0A@@std@@@std@@@std@@QAE@ABV?$allocator@U?$pair@$$CBKJ@std@@@1@@Z ENDP ; std::allocator<std::_Tree_nod<std::_Tmap_traits<unsigned long,long,std::less<unsigned long>,std::allocator<std::pair<unsigned long const ,long> >,0> >::_Node>::allocator<std::_Tree_nod<std::_Tmap_traits<unsigned long,long,std::less<unsigned long>,std::allocator<std::pair<unsigned long const ,long> >,0> >::_Node><std::pair<unsigned long const ,long> >
_TEXT	ENDS
PUBLIC	??$_Construct@PAU_Node@?$_Tree_nod@V?$_Tmap_traits@KJU?$less@K@std@@V?$allocator@U?$pair@$$CBKJ@std@@@2@$0A@@std@@@std@@PAU123@@std@@YAXPAPAU_Node@?$_Tree_nod@V?$_Tmap_traits@KJU?$less@K@std@@V?$allocator@U?$pair@$$CBKJ@std@@@2@$0A@@std@@@0@ABQAU120@@Z ; std::_Construct<std::_Tree_nod<std::_Tmap_traits<unsigned long,long,std::less<unsigned long>,std::allocator<std::pair<unsigned long const ,long> >,0> >::_Node *,std::_Tree_nod<std::_Tmap_traits<unsigned long,long,std::less<unsigned long>,std::allocator<std::pair<unsigned long const ,long> >,0> >::_Node *>
; Function compile flags: /Ogty
;	COMDAT ??$_Construct@PAU_Node@?$_Tree_nod@V?$_Tmap_traits@KJU?$less@K@std@@V?$allocator@U?$pair@$$CBKJ@std@@@2@$0A@@std@@@std@@PAU123@@std@@YAXPAPAU_Node@?$_Tree_nod@V?$_Tmap_traits@KJU?$less@K@std@@V?$allocator@U?$pair@$$CBKJ@std@@@2@$0A@@std@@@0@ABQAU120@@Z
_TEXT	SEGMENT
__Ptr$ = 8						; size = 4
__Val$ = 12						; size = 4
??$_Construct@PAU_Node@?$_Tree_nod@V?$_Tmap_traits@KJU?$less@K@std@@V?$allocator@U?$pair@$$CBKJ@std@@@2@$0A@@std@@@std@@PAU123@@std@@YAXPAPAU_Node@?$_Tree_nod@V?$_Tmap_traits@KJU?$less@K@std@@V?$allocator@U?$pair@$$CBKJ@std@@@2@$0A@@std@@@0@ABQAU120@@Z PROC NEAR ; std::_Construct<std::_Tree_nod<std::_Tmap_traits<unsigned long,long,std::less<unsigned long>,std::allocator<std::pair<unsigned long const ,long> >,0> >::_Node *,std::_Tree_nod<std::_Tmap_traits<unsigned long,long,std::less<unsigned long>,std::allocator<std::pair<unsigned long const ,long> >,0> >::_Node *>, COMDAT

; 42   : 	new ((void _FARQ *)_Ptr) _T1(_Val);

  00000	8b 44 24 04	 mov	 eax, DWORD PTR __Ptr$[esp-4]
  00004	85 c0		 test	 eax, eax
  00006	74 08		 je	 SHORT $L208125
  00008	8b 4c 24 08	 mov	 ecx, DWORD PTR __Val$[esp-4]
  0000c	8b 11		 mov	 edx, DWORD PTR [ecx]
  0000e	89 10		 mov	 DWORD PTR [eax], edx
$L208125:

; 43   : 	}

  00010	c3		 ret	 0
??$_Construct@PAU_Node@?$_Tree_nod@V?$_Tmap_traits@KJU?$less@K@std@@V?$allocator@U?$pair@$$CBKJ@std@@@2@$0A@@std@@@std@@PAU123@@std@@YAXPAPAU_Node@?$_Tree_nod@V?$_Tmap_traits@KJU?$less@K@std@@V?$allocator@U?$pair@$$CBKJ@std@@@2@$0A@@std@@@0@ABQAU120@@Z ENDP ; std::_Construct<std::_Tree_nod<std::_Tmap_traits<unsigned long,long,std::less<unsigned long>,std::allocator<std::pair<unsigned long const ,long> >,0> >::_Node *,std::_Tree_nod<std::_Tmap_traits<unsigned long,long,std::less<unsigned long>,std::allocator<std::pair<unsigned long const ,long> >,0> >::_Node *>
_TEXT	ENDS
PUBLIC	?assign@?$char_traits@D@std@@SAXAADABD@Z	; std::char_traits<char>::assign
; Function compile flags: /Ogty
; File c:\program files\microsoft visual studio .net 2003\vc7\include\iosfwd
;	COMDAT ?assign@?$char_traits@D@std@@SAXAADABD@Z
_TEXT	SEGMENT
__Left$ = 8						; size = 4
__Right$ = 12						; size = 4
?assign@?$char_traits@D@std@@SAXAADABD@Z PROC NEAR	; std::char_traits<char>::assign, COMDAT

; 331  : 		_Left = _Right;

  00000	8b 44 24 08	 mov	 eax, DWORD PTR __Right$[esp-4]
  00004	8a 08		 mov	 cl, BYTE PTR [eax]
  00006	8b 54 24 04	 mov	 edx, DWORD PTR __Left$[esp-4]
  0000a	88 0a		 mov	 BYTE PTR [edx], cl

; 332  : 		}

  0000c	c3		 ret	 0
?assign@?$char_traits@D@std@@SAXAADABD@Z ENDP		; std::char_traits<char>::assign
_TEXT	ENDS
PUBLIC	?length@?$char_traits@D@std@@SAIPBD@Z		; std::char_traits<char>::length
; Function compile flags: /Ogty
;	COMDAT ?length@?$char_traits@D@std@@SAIPBD@Z
_TEXT	SEGMENT
__First$ = 8						; size = 4
?length@?$char_traits@D@std@@SAIPBD@Z PROC NEAR		; std::char_traits<char>::length, COMDAT

; 352  : 		return (::strlen(_First));

  00000	8b 44 24 04	 mov	 eax, DWORD PTR __First$[esp-4]
  00004	8d 50 01	 lea	 edx, DWORD PTR [eax+1]
$L208134:
  00007	8a 08		 mov	 cl, BYTE PTR [eax]
  00009	40		 inc	 eax
  0000a	84 c9		 test	 cl, cl
  0000c	75 f9		 jne	 SHORT $L208134
  0000e	2b c2		 sub	 eax, edx

; 353  : 		}

  00010	c3		 ret	 0
?length@?$char_traits@D@std@@SAIPBD@Z ENDP		; std::char_traits<char>::length
_TEXT	ENDS
PUBLIC	?copy@?$char_traits@D@std@@SAPADPADPBDI@Z	; std::char_traits<char>::copy
; Function compile flags: /Ogty
;	COMDAT ?copy@?$char_traits@D@std@@SAPADPADPBDI@Z
_TEXT	SEGMENT
__First1$ = 8						; size = 4
__First2$ = 12						; size = 4
__Count$ = 16						; size = 4
?copy@?$char_traits@D@std@@SAPADPADPBDI@Z PROC NEAR	; std::char_traits<char>::copy, COMDAT

; 358  : 		return ((_Elem *)::memcpy(_First1, _First2, _Count));

  00000	8b 4c 24 0c	 mov	 ecx, DWORD PTR __Count$[esp-4]
  00004	56		 push	 esi
  00005	8b 74 24 0c	 mov	 esi, DWORD PTR __First2$[esp]
  00009	57		 push	 edi
  0000a	8b 7c 24 0c	 mov	 edi, DWORD PTR __First1$[esp+4]
  0000e	8b c1		 mov	 eax, ecx
  00010	8b d7		 mov	 edx, edi
  00012	c1 e9 02	 shr	 ecx, 2
  00015	f3 a5		 rep movsd
  00017	8b c8		 mov	 ecx, eax
  00019	83 e1 03	 and	 ecx, 3
  0001c	f3 a4		 rep movsb
  0001e	5f		 pop	 edi
  0001f	8b c2		 mov	 eax, edx
  00021	5e		 pop	 esi

; 359  : 		}

  00022	c3		 ret	 0
?copy@?$char_traits@D@std@@SAPADPADPBDI@Z ENDP		; std::char_traits<char>::copy
_TEXT	ENDS
PUBLIC	?move@?$char_traits@D@std@@SAPADPADPBDI@Z	; std::char_traits<char>::move
EXTRN	_memmove:NEAR
; Function compile flags: /Ogty
;	COMDAT ?move@?$char_traits@D@std@@SAPADPADPBDI@Z
_TEXT	SEGMENT
__First1$ = 8						; size = 4
__First2$ = 12						; size = 4
__Count$ = 16						; size = 4
?move@?$char_traits@D@std@@SAPADPADPBDI@Z PROC NEAR	; std::char_traits<char>::move, COMDAT

; 370  : 		return ((_Elem *)::memmove(_First1, _First2, _Count));

  00000	e9 00 00 00 00	 jmp	 _memmove
?move@?$char_traits@D@std@@SAPADPADPBDI@Z ENDP		; std::char_traits<char>::move
_TEXT	ENDS
PUBLIC	?Enter@CMclCritSec@@QAEXXZ			; CMclCritSec::Enter
EXTRN	__imp__EnterCriticalSection@4:NEAR
; Function compile flags: /Ogty
; File c:\documents and settings\test\mes documents\source\virtuos_v17\build\program\_network\mcl\include\cmclcritsec.h
;	COMDAT ?Enter@CMclCritSec@@QAEXXZ
_TEXT	SEGMENT
?Enter@CMclCritSec@@QAEXXZ PROC NEAR			; CMclCritSec::Enter, COMDAT
; _this$ = ecx

; 33   : 		::EnterCriticalSection( &m_CritSec );

  00000	83 c1 04	 add	 ecx, 4
  00003	51		 push	 ecx
  00004	ff 15 00 00 00
	00		 call	 DWORD PTR __imp__EnterCriticalSection@4

; 34   : 	}

  0000a	c3		 ret	 0
?Enter@CMclCritSec@@QAEXXZ ENDP				; CMclCritSec::Enter
_TEXT	ENDS
PUBLIC	?Leave@CMclCritSec@@QAEXXZ			; CMclCritSec::Leave
EXTRN	__imp__LeaveCriticalSection@4:NEAR
; Function compile flags: /Ogty
;	COMDAT ?Leave@CMclCritSec@@QAEXXZ
_TEXT	SEGMENT
?Leave@CMclCritSec@@QAEXXZ PROC NEAR			; CMclCritSec::Leave, COMDAT
; _this$ = ecx

; 39   : 		::LeaveCriticalSection( &m_CritSec );

  00000	83 c1 04	 add	 ecx, 4
  00003	51		 push	 ecx
  00004	ff 15 00 00 00
	00		 call	 DWORD PTR __imp__LeaveCriticalSection@4

; 40   : 	}

  0000a	c3		 ret	 0
?Leave@CMclCritSec@@QAEXXZ ENDP				; CMclCritSec::Leave
_TEXT	ENDS
PUBLIC	??0CMclAutoLock@@QAE@AAVCMclCritSec@@@Z		; CMclAutoLock::CMclAutoLock
; Function compile flags: /Ogty
; File c:\documents and settings\test\mes documents\source\virtuos_v17\build\program\_network\mcl\include\cmclautolock.h
;	COMDAT ??0CMclAutoLock@@QAE@AAVCMclCritSec@@@Z
_TEXT	SEGMENT
_rCMclCritSec$ = 8					; size = 4
??0CMclAutoLock@@QAE@AAVCMclCritSec@@@Z PROC NEAR	; CMclAutoLock::CMclAutoLock, COMDAT
; _this$ = ecx

; 20   : 	{
; 21   : 		m_pcCritSec = &rCMclCritSec;

  00000	8b 44 24 04	 mov	 eax, DWORD PTR _rCMclCritSec$[esp-4]
  00004	56		 push	 esi
  00005	8b f1		 mov	 esi, ecx
  00007	89 06		 mov	 DWORD PTR [esi], eax

; 22   : 		m_pcCritSec->Enter();

  00009	83 c0 04	 add	 eax, 4
  0000c	50		 push	 eax
  0000d	ff 15 00 00 00
	00		 call	 DWORD PTR __imp__EnterCriticalSection@4

; 23   : 	}

  00013	8b c6		 mov	 eax, esi
  00015	5e		 pop	 esi
  00016	c2 04 00	 ret	 4
??0CMclAutoLock@@QAE@AAVCMclCritSec@@@Z ENDP		; CMclAutoLock::CMclAutoLock
_TEXT	ENDS
PUBLIC	??1CMclAutoLock@@QAE@XZ				; CMclAutoLock::~CMclAutoLock
; Function compile flags: /Ogty
;	COMDAT ??1CMclAutoLock@@QAE@XZ
_TEXT	SEGMENT
??1CMclAutoLock@@QAE@XZ PROC NEAR			; CMclAutoLock::~CMclAutoLock, COMDAT
; _this$ = ecx

; 28   : 		m_pcCritSec->Leave();

  00000	8b 01		 mov	 eax, DWORD PTR [ecx]
  00002	83 c0 04	 add	 eax, 4
  00005	50		 push	 eax
  00006	ff 15 00 00 00
	00		 call	 DWORD PTR __imp__LeaveCriticalSection@4

; 29   : 	}

  0000c	c3		 ret	 0
??1CMclAutoLock@@QAE@XZ ENDP				; CMclAutoLock::~CMclAutoLock
_TEXT	ENDS
PUBLIC	?time_null@@YAJXZ				; time_null
EXTRN	_time:NEAR
; Function compile flags: /Ogty
; File c:\documents and settings\test\mes documents\source\virtuos_v17\build\program\_network\cmnhdr.h
;	COMDAT ?time_null@@YAJXZ
_TEXT	SEGMENT
?time_null@@YAJXZ PROC NEAR				; time_null, COMDAT

; 702  : #if defined(__WORLDSERVER) || defined(__CLIENT)
; 703  : 	return	g_tCurrent;
; 704  : #else	//
; 705  : 	return time( NULL );

  00000	6a 00		 push	 0
  00002	e8 00 00 00 00	 call	 _time
  00007	83 c4 04	 add	 esp, 4

; 706  : #endif	//
; 707  : }

  0000a	c3		 ret	 0
?time_null@@YAJXZ ENDP					; time_null
_TEXT	ENDS
PUBLIC	?xRand@@YAKXZ					; xRand
EXTRN	?g_next@@3KA:DWORD				; g_next
; Function compile flags: /Ogty
; File c:\documents and settings\test\mes documents\source\virtuos_v17\build\program\_common\xutil.h
;	COMDAT ?xRand@@YAKXZ
_TEXT	SEGMENT
?xRand@@YAKXZ PROC NEAR					; xRand, COMDAT

; 16   : 	g_next = g_next * 1103515245 + 12345;// + nRandomSeed[ i++ ];

  00000	a1 00 00 00 00	 mov	 eax, DWORD PTR ?g_next@@3KA ; g_next
  00005	69 c0 6d 4e c6
	41		 imul	 eax, 1103515245		; 41c64e6dH
  0000b	05 39 30 00 00	 add	 eax, 12345		; 00003039H
  00010	a3 00 00 00 00	 mov	 DWORD PTR ?g_next@@3KA, eax ; g_next

; 17   : 	return g_next;	//   .
; 18   : }

  00015	c3		 ret	 0
?xRand@@YAKXZ ENDP					; xRand
_TEXT	ENDS
PUBLIC	??5CAr@@QAEAAV0@AAK@Z				; CAr::operator>>
; Function compile flags: /Ogty
; File c:\documents and settings\test\mes documents\source\virtuos_v17\build\program\_network\misc\include\ar.h
;	COMDAT ??5CAr@@QAEAAV0@AAK@Z
_TEXT	SEGMENT
_dw$ = 8						; size = 4
??5CAr@@QAEAAV0@AAK@Z PROC NEAR				; CAr::operator>>, COMDAT
; _this$ = ecx

; 146  : 	{	CAR_SAFE_READ( DWORD, dw );	}

  00000	8b c1		 mov	 eax, ecx
  00002	8b 48 08	 mov	 ecx, DWORD PTR [eax+8]
  00005	56		 push	 esi
  00006	8b 70 0c	 mov	 esi, DWORD PTR [eax+12]
  00009	8d 51 04	 lea	 edx, DWORD PTR [ecx+4]
  0000c	3b d6		 cmp	 edx, esi
  0000e	5e		 pop	 esi
  0000f	77 0f		 ja	 SHORT $L162868
  00011	8b 09		 mov	 ecx, DWORD PTR [ecx]
  00013	8b 54 24 04	 mov	 edx, DWORD PTR _dw$[esp-4]
  00017	89 0a		 mov	 DWORD PTR [edx], ecx
  00019	83 40 08 04	 add	 DWORD PTR [eax+8], 4
  0001d	c2 04 00	 ret	 4
$L162868:
  00020	8b 4c 24 04	 mov	 ecx, DWORD PTR _dw$[esp-4]
  00024	c7 01 00 00 00
	00		 mov	 DWORD PTR [ecx], 0
  0002a	8b 50 0c	 mov	 edx, DWORD PTR [eax+12]
  0002d	89 50 08	 mov	 DWORD PTR [eax+8], edx
  00030	c2 04 00	 ret	 4
??5CAr@@QAEAAV0@AAK@Z ENDP				; CAr::operator>>
_TEXT	ENDS
PUBLIC	??5CAr@@QAEAAV0@AAJ@Z				; CAr::operator>>
; Function compile flags: /Ogty
;	COMDAT ??5CAr@@QAEAAV0@AAJ@Z
_TEXT	SEGMENT
_l$ = 8							; size = 4
??5CAr@@QAEAAV0@AAJ@Z PROC NEAR				; CAr::operator>>, COMDAT
; _this$ = ecx

; 152  : 	{	CAR_SAFE_READ( LONG, l );	}

  00000	8b c1		 mov	 eax, ecx
  00002	8b 48 08	 mov	 ecx, DWORD PTR [eax+8]
  00005	56		 push	 esi
  00006	8b 70 0c	 mov	 esi, DWORD PTR [eax+12]
  00009	8d 51 04	 lea	 edx, DWORD PTR [ecx+4]
  0000c	3b d6		 cmp	 edx, esi
  0000e	5e		 pop	 esi
  0000f	77 0f		 ja	 SHORT $L162898
  00011	8b 09		 mov	 ecx, DWORD PTR [ecx]
  00013	8b 54 24 04	 mov	 edx, DWORD PTR _l$[esp-4]
  00017	89 0a		 mov	 DWORD PTR [edx], ecx
  00019	83 40 08 04	 add	 DWORD PTR [eax+8], 4
  0001d	c2 04 00	 ret	 4
$L162898:
  00020	8b 4c 24 04	 mov	 ecx, DWORD PTR _l$[esp-4]
  00024	c7 01 00 00 00
	00		 mov	 DWORD PTR [ecx], 0
  0002a	8b 50 0c	 mov	 edx, DWORD PTR [eax+12]
  0002d	89 50 08	 mov	 DWORD PTR [eax+8], edx
  00030	c2 04 00	 ret	 4
??5CAr@@QAEAAV0@AAJ@Z ENDP				; CAr::operator>>
_TEXT	ENDS
PUBLIC	?SetSerialNumber@CItemBase@@QAEXK@Z		; CItemBase::SetSerialNumber
; Function compile flags: /Ogty
; File c:\documents and settings\test\mes documents\source\virtuos_v17\build\program\_network\objects\obj.h
;	COMDAT ?SetSerialNumber@CItemBase@@QAEXK@Z
_TEXT	SEGMENT
_liSerialNumber$ = 8					; size = 4
?SetSerialNumber@CItemBase@@QAEXK@Z PROC NEAR		; CItemBase::SetSerialNumber, COMDAT
; _this$ = ecx

; 143  : 	void	SetSerialNumber( SERIALNUMBER liSerialNumber )	{	m_liSerialNumber	= liSerialNumber;	}

  00000	8b 44 24 04	 mov	 eax, DWORD PTR _liSerialNumber$[esp-4]
  00004	89 41 30	 mov	 DWORD PTR [ecx+48], eax
  00007	c2 04 00	 ret	 4
?SetSerialNumber@CItemBase@@QAEXK@Z ENDP		; CItemBase::SetSerialNumber
_TEXT	ENDS
PUBLIC	?size@?$basic_string@DU?$char_traits@D@std@@V?$allocator@D@2@@std@@QBEIXZ ; std::basic_string<char,std::char_traits<char>,std::allocator<char> >::size
; Function compile flags: /Ogty
; File c:\program files\microsoft visual studio .net 2003\vc7\include\xstring
;	COMDAT ?size@?$basic_string@DU?$char_traits@D@std@@V?$allocator@D@2@@std@@QBEIXZ
_TEXT	SEGMENT
?size@?$basic_string@DU?$char_traits@D@std@@V?$allocator@D@2@@std@@QBEIXZ PROC NEAR ; std::basic_string<char,std::char_traits<char>,std::allocator<char> >::size, COMDAT
; _this$ = ecx

; 1109 : 		return (_Mysize);

  00000	8b 41 14	 mov	 eax, DWORD PTR [ecx+20]

; 1110 : 		}

  00003	c3		 ret	 0
?size@?$basic_string@DU?$char_traits@D@std@@V?$allocator@D@2@@std@@QBEIXZ ENDP ; std::basic_string<char,std::char_traits<char>,std::allocator<char> >::size
_TEXT	ENDS
PUBLIC	?_Myptr@?$basic_string@DU?$char_traits@D@std@@V?$allocator@D@2@@std@@QBEPBDXZ ; std::basic_string<char,std::char_traits<char>,std::allocator<char> >::_Myptr
; Function compile flags: /Ogty
;	COMDAT ?_Myptr@?$basic_string@DU?$char_traits@D@std@@V?$allocator@D@2@@std@@QBEPBDXZ
_TEXT	SEGMENT
?_Myptr@?$basic_string@DU?$char_traits@D@std@@V?$allocator@D@2@@std@@QBEPBDXZ PROC NEAR ; std::basic_string<char,std::char_traits<char>,std::allocator<char> >::_Myptr, COMDAT
; _this$ = ecx

; 1537 : 		return (_BUF_SIZE <= _Myres ? _Bx._Ptr : _Bx._Buf);

  00000	83 79 18 10	 cmp	 DWORD PTR [ecx+24], 16	; 00000010H
  00004	72 04		 jb	 SHORT $L208170
  00006	8b 41 04	 mov	 eax, DWORD PTR [ecx+4]

; 1538 : 		}

  00009	c3		 ret	 0
$L208170:

; 1537 : 		return (_BUF_SIZE <= _Myres ? _Bx._Ptr : _Bx._Buf);

  0000a	8d 41 04	 lea	 eax, DWORD PTR [ecx+4]

; 1538 : 		}

  0000d	c3		 ret	 0
?_Myptr@?$basic_string@DU?$char_traits@D@std@@V?$allocator@D@2@@std@@QBEPBDXZ ENDP ; std::basic_string<char,std::char_traits<char>,std::allocator<char> >::_Myptr
_TEXT	ENDS
PUBLIC	??0?$allocator@D@std@@QAE@XZ			; std::allocator<char>::allocator<char>
; Function compile flags: /Ogty
; File c:\program files\microsoft visual studio .net 2003\vc7\include\xmemory
;	COMDAT ??0?$allocator@D@std@@QAE@XZ
_TEXT	SEGMENT
??0?$allocator@D@std@@QAE@XZ PROC NEAR			; std::allocator<char>::allocator<char>, COMDAT
; _this$ = ecx

; 111  : 	allocator()

  00000	8b c1		 mov	 eax, ecx

; 112  : 		{	// construct default allocator (do nothing)
; 113  : 		}

  00002	c3		 ret	 0
??0?$allocator@D@std@@QAE@XZ ENDP			; std::allocator<char>::allocator<char>
_TEXT	ENDS
PUBLIC	??0?$allocator@D@std@@QAE@ABV01@@Z		; std::allocator<char>::allocator<char>
; Function compile flags: /Ogty
;	COMDAT ??0?$allocator@D@std@@QAE@ABV01@@Z
_TEXT	SEGMENT
___formal$ = 8						; size = 4
??0?$allocator@D@std@@QAE@ABV01@@Z PROC NEAR		; std::allocator<char>::allocator<char>, COMDAT
; _this$ = ecx

; 115  : 	allocator(const allocator<_Ty>&)

  00000	8b c1		 mov	 eax, ecx

; 116  : 		{	// construct by copying (do nothing)
; 117  : 		}

  00002	c2 04 00	 ret	 4
??0?$allocator@D@std@@QAE@ABV01@@Z ENDP			; std::allocator<char>::allocator<char>
_TEXT	ENDS
PUBLIC	??R?$less@K@std@@QBE_NABK0@Z			; std::less<unsigned long>::operator()
; Function compile flags: /Ogty
; File c:\program files\microsoft visual studio .net 2003\vc7\include\functional
;	COMDAT ??R?$less@K@std@@QBE_NABK0@Z
_TEXT	SEGMENT
__Left$ = 8						; size = 4
__Right$ = 12						; size = 4
??R?$less@K@std@@QBE_NABK0@Z PROC NEAR			; std::less<unsigned long>::operator(), COMDAT
; _this$ = ecx

; 139  : 		return (_Left < _Right);

  00000	8b 44 24 04	 mov	 eax, DWORD PTR __Left$[esp-4]
  00004	8b 08		 mov	 ecx, DWORD PTR [eax]
  00006	8b 54 24 08	 mov	 edx, DWORD PTR __Right$[esp-4]
  0000a	3b 0a		 cmp	 ecx, DWORD PTR [edx]
  0000c	1b c0		 sbb	 eax, eax
  0000e	f7 d8		 neg	 eax

; 140  : 		}

  00010	c2 08 00	 ret	 8
??R?$less@K@std@@QBE_NABK0@Z ENDP			; std::less<unsigned long>::operator()
_TEXT	ENDS
PUBLIC	?_Myptr@?$basic_string@DU?$char_traits@D@std@@V?$allocator@D@2@@std@@QAEPADXZ ; std::basic_string<char,std::char_traits<char>,std::allocator<char> >::_Myptr
; Function compile flags: /Ogty
; File c:\program files\microsoft visual studio .net 2003\vc7\include\xstring
;	COMDAT ?_Myptr@?$basic_string@DU?$char_traits@D@std@@V?$allocator@D@2@@std@@QAEPADXZ
_TEXT	SEGMENT
?_Myptr@?$basic_string@DU?$char_traits@D@std@@V?$allocator@D@2@@std@@QAEPADXZ PROC NEAR ; std::basic_string<char,std::char_traits<char>,std::allocator<char> >::_Myptr, COMDAT
; _this$ = ecx

; 1532 : 		return (_BUF_SIZE <= _Myres ? _Bx._Ptr : _Bx._Buf);

  00000	83 79 18 10	 cmp	 DWORD PTR [ecx+24], 16	; 00000010H
  00004	72 04		 jb	 SHORT $L208180
  00006	8b 41 04	 mov	 eax, DWORD PTR [ecx+4]

; 1533 : 		}

  00009	c3		 ret	 0
$L208180:

; 1532 : 		return (_BUF_SIZE <= _Myres ? _Bx._Ptr : _Bx._Buf);

  0000a	8d 41 04	 lea	 eax, DWORD PTR [ecx+4]

; 1533 : 		}

  0000d	c3		 ret	 0
?_Myptr@?$basic_string@DU?$char_traits@D@std@@V?$allocator@D@2@@std@@QAEPADXZ ENDP ; std::basic_string<char,std::char_traits<char>,std::allocator<char> >::_Myptr
_TEXT	ENDS
PUBLIC	?deallocate@?$allocator@D@std@@QAEXPADI@Z	; std::allocator<char>::deallocate
; Function compile flags: /Ogty
; File c:\program files\microsoft visual studio .net 2003\vc7\include\xmemory
;	COMDAT ?deallocate@?$allocator@D@std@@QAEXPADI@Z
_TEXT	SEGMENT
__Ptr$ = 8						; size = 4
___formal$ = 12						; size = 4
?deallocate@?$allocator@D@std@@QAEXPADI@Z PROC NEAR	; std::allocator<char>::deallocate, COMDAT
; _this$ = ecx

; 132  : 		operator delete(_Ptr);

  00000	8b 44 24 04	 mov	 eax, DWORD PTR __Ptr$[esp-4]
  00004	50		 push	 eax
  00005	e8 00 00 00 00	 call	 ??3@YAXPAX@Z		; operator delete
  0000a	59		 pop	 ecx

; 133  : 		}

  0000b	c2 08 00	 ret	 8
?deallocate@?$allocator@D@std@@QAEXPADI@Z ENDP		; std::allocator<char>::deallocate
_TEXT	ENDS
PUBLIC	?_Inside@?$basic_string@DU?$char_traits@D@std@@V?$allocator@D@2@@std@@IAE_NPBD@Z ; std::basic_string<char,std::char_traits<char>,std::allocator<char> >::_Inside
; Function compile flags: /Ogty
; File c:\program files\microsoft visual studio .net 2003\vc7\include\xstring
;	COMDAT ?_Inside@?$basic_string@DU?$char_traits@D@std@@V?$allocator@D@2@@std@@IAE_NPBD@Z
_TEXT	SEGMENT
__Ptr$ = 8						; size = 4
?_Inside@?$basic_string@DU?$char_traits@D@std@@V?$allocator@D@2@@std@@IAE_NPBD@Z PROC NEAR ; std::basic_string<char,std::char_traits<char>,std::allocator<char> >::_Inside, COMDAT
; _this$ = ecx

; 1494 : 		{	// test if _Ptr points inside string

  00000	56		 push	 esi

; 1495 : 		if (_Ptr < _Myptr() || _Myptr() + _Mysize <= _Ptr)

  00001	8b 71 18	 mov	 esi, DWORD PTR [ecx+24]
  00004	83 fe 10	 cmp	 esi, 16			; 00000010H
  00007	57		 push	 edi
  00008	8d 41 04	 lea	 eax, DWORD PTR [ecx+4]
  0000b	72 04		 jb	 SHORT $L208190
  0000d	8b 10		 mov	 edx, DWORD PTR [eax]
  0000f	eb 02		 jmp	 SHORT $L208191
$L208190:
  00011	8b d0		 mov	 edx, eax
$L208191:
  00013	8b 7c 24 0c	 mov	 edi, DWORD PTR __Ptr$[esp+4]
  00017	3b fa		 cmp	 edi, edx
  00019	72 17		 jb	 SHORT $L185560
  0001b	83 fe 10	 cmp	 esi, 16			; 00000010H
  0001e	72 02		 jb	 SHORT $L208198
  00020	8b 00		 mov	 eax, DWORD PTR [eax]
$L208198:
  00022	8b 49 14	 mov	 ecx, DWORD PTR [ecx+20]
  00025	03 c8		 add	 ecx, eax
  00027	3b cf		 cmp	 ecx, edi
  00029	76 07		 jbe	 SHORT $L185560
  0002b	5f		 pop	 edi

; 1497 : 		else
; 1498 : 			return (true);

  0002c	b0 01		 mov	 al, 1
  0002e	5e		 pop	 esi

; 1499 : 		}

  0002f	c2 04 00	 ret	 4
$L185560:
  00032	5f		 pop	 edi

; 1496 : 			return (false);	// don't ask

  00033	32 c0		 xor	 al, al
  00035	5e		 pop	 esi

; 1499 : 		}

  00036	c2 04 00	 ret	 4
?_Inside@?$basic_string@DU?$char_traits@D@std@@V?$allocator@D@2@@std@@IAE_NPBD@Z ENDP ; std::basic_string<char,std::char_traits<char>,std::allocator<char> >::_Inside
_TEXT	ENDS
PUBLIC	?max_size@?$allocator@D@std@@QBEIXZ		; std::allocator<char>::max_size
; Function compile flags: /Ogty
; File c:\program files\microsoft visual studio .net 2003\vc7\include\xmemory
;	COMDAT ?max_size@?$allocator@D@std@@QBEIXZ
_TEXT	SEGMENT
?max_size@?$allocator@D@std@@QBEIXZ PROC NEAR		; std::allocator<char>::max_size, COMDAT
; _this$ = ecx

; 157  : 		_SIZT _Count = (_SIZT)(-1) / sizeof (_Ty);
; 158  : 		return (0 < _Count ? _Count : 1);

  00000	83 c8 ff	 or	 eax, -1

; 159  : 		}

  00003	c3		 ret	 0
?max_size@?$allocator@D@std@@QBEIXZ ENDP		; std::allocator<char>::max_size
_TEXT	ENDS
PUBLIC	?GetAt@?$CFixedArray@UtagColorText@@@@QAEPAUtagColorText@@K@Z ; CFixedArray<tagColorText>::GetAt
; Function compile flags: /Ogty
; File c:\documents and settings\test\mes documents\source\virtuos_v17\build\program\_common\data.h
;	COMDAT ?GetAt@?$CFixedArray@UtagColorText@@@@QAEPAUtagColorText@@K@Z
_TEXT	SEGMENT
_dwIndex$ = 8						; size = 4
?GetAt@?$CFixedArray@UtagColorText@@@@QAEPAUtagColorText@@K@Z PROC NEAR ; CFixedArray<tagColorText>::GetAt, COMDAT
; _this$ = ecx

; 270  : 	if( dwIndex >= (DWORD)m_nMaxIndex )

  00000	8b 44 24 04	 mov	 eax, DWORD PTR _dwIndex$[esp-4]
  00004	3b 41 18	 cmp	 eax, DWORD PTR [ecx+24]
  00007	72 05		 jb	 SHORT $L186299

; 271  : 		return NULL;

  00009	33 c0		 xor	 eax, eax

; 273  : }

  0000b	c2 04 00	 ret	 4
$L186299:

; 272  : 	return (T*) m_apOffset[ dwIndex ];

  0000e	8b 49 08	 mov	 ecx, DWORD PTR [ecx+8]
  00011	8b 04 81	 mov	 eax, DWORD PTR [ecx+eax*4]

; 273  : }

  00014	c2 04 00	 ret	 4
?GetAt@?$CFixedArray@UtagColorText@@@@QAEPAUtagColorText@@K@Z ENDP ; CFixedArray<tagColorText>::GetAt
_TEXT	ENDS
PUBLIC	??$swap@D@std@@YAXAAD0@Z			; std::swap<char>
; Function compile flags: /Ogty
; File c:\program files\microsoft visual studio .net 2003\vc7\include\utility
;	COMDAT ??$swap@D@std@@YAXAAD0@Z
_TEXT	SEGMENT
__Left$ = 8						; size = 4
__Right$ = 12						; size = 4
??$swap@D@std@@YAXAAD0@Z PROC NEAR			; std::swap<char>, COMDAT

; 15   : 	_Ty _Tmp = _Left;

  00000	8b 44 24 04	 mov	 eax, DWORD PTR __Left$[esp-4]
  00004	8a 08		 mov	 cl, BYTE PTR [eax]
  00006	56		 push	 esi

; 16   : 	_Left = _Right, _Right = _Tmp;

  00007	8b 74 24 0c	 mov	 esi, DWORD PTR __Right$[esp]
  0000b	8a 16		 mov	 dl, BYTE PTR [esi]
  0000d	88 10		 mov	 BYTE PTR [eax], dl
  0000f	88 0e		 mov	 BYTE PTR [esi], cl
  00011	5e		 pop	 esi

; 17   : 	}

  00012	c3		 ret	 0
??$swap@D@std@@YAXAAD0@Z ENDP				; std::swap<char>
_TEXT	ENDS
PUBLIC	??$_Allocate@D@std@@YAPADIPAD@Z			; std::_Allocate<char>
; Function compile flags: /Ogty
; File c:\program files\microsoft visual studio .net 2003\vc7\include\xmemory
;	COMDAT ??$_Allocate@D@std@@YAPADIPAD@Z
_TEXT	SEGMENT
__Count$ = 8						; size = 4
___formal$ = 12						; size = 4
??$_Allocate@D@std@@YAPADIPAD@Z PROC NEAR		; std::_Allocate<char>, COMDAT

; 34   : 	return ((_Ty _FARQ *)operator new(_Count * sizeof (_Ty)));

  00000	8b 44 24 04	 mov	 eax, DWORD PTR __Count$[esp-4]
  00004	50		 push	 eax
  00005	e8 00 00 00 00	 call	 ??2@YAPAXI@Z		; operator new
  0000a	83 c4 04	 add	 esp, 4

; 35   : 	}

  0000d	c3		 ret	 0
??$_Allocate@D@std@@YAPADIPAD@Z ENDP			; std::_Allocate<char>
; Function compile flags: /Ogty
_TEXT	ENDS
;	COMDAT ??_GCCoupleController@@UAEPAXI@Z
_TEXT	SEGMENT
___flags$ = 8						; size = 4
??_GCCoupleController@@UAEPAXI@Z PROC NEAR		; CCoupleController::`scalar deleting destructor', COMDAT
; _this$ = ecx
  00000	56		 push	 esi
  00001	8b f1		 mov	 esi, ecx
  00003	e8 00 00 00 00	 call	 ??1CCoupleController@@UAE@XZ ; CCoupleController::~CCoupleController
  00008	f6 44 24 08 01	 test	 BYTE PTR ___flags$[esp], 1
  0000d	74 09		 je	 SHORT $L208212
  0000f	56		 push	 esi
  00010	e8 00 00 00 00	 call	 ??3@YAXPAX@Z		; operator delete
  00015	83 c4 04	 add	 esp, 4
$L208212:
  00018	8b c6		 mov	 eax, esi
  0001a	5e		 pop	 esi
  0001b	c2 04 00	 ret	 4
??_GCCoupleController@@UAEPAXI@Z ENDP			; CCoupleController::`scalar deleting destructor'
_TEXT	ENDS
PUBLIC	?GetGender@CCoupleHelper@@AAEXPAVCCouple@@AAH1@Z ; CCoupleHelper::GetGender
EXTRN	__except_list:DWORD
EXTRN	___CxxFrameHandler:NEAR
EXTRN	?GetInstance@CPlayerDataCenter@@SAPAV1@XZ:NEAR	; CPlayerDataCenter::GetInstance
EXTRN	?GetPlayerData@CPlayerDataCenter@@QAEPAU_PlayerData@@K@Z:NEAR ; CPlayerDataCenter::GetPlayerData
;	COMDAT xdata$x
; File c:\documents and settings\test\mes documents\source\virtuos_v17\build\program\_network\mcl\include\cmclcritsec.h
xdata$x	SEGMENT
$T208249 DD	0ffffffffH
	DD	FLAT:$L208215
$T208246 DD	019930520H
	DD	01H
	DD	FLAT:$T208249
	DD	2 DUP(00H)
	DD	2 DUP(00H)
; Function compile flags: /Ogty
; File c:\documents and settings\test\mes documents\source\virtuos_v17\build\program\databaseserver\couplehelper.cpp
xdata$x	ENDS
;	COMDAT ?GetGender@CCoupleHelper@@AAEXPAVCCouple@@AAH1@Z
_TEXT	SEGMENT
_Lock$ = -16						; size = 4
__$EHRec$ = -12						; size = 12
_pCouple$ = 8						; size = 4
_nGenderFirst$ = 12					; size = 4
_nGenderSecond$ = 16					; size = 4
?GetGender@CCoupleHelper@@AAEXPAVCCouple@@AAH1@Z PROC NEAR ; CCoupleHelper::GetGender, COMDAT
; _this$ = ecx

; 232  : {

  00000	6a ff		 push	 -1
  00002	68 00 00 00 00	 push	 __ehhandler$?GetGender@CCoupleHelper@@AAEXPAVCCouple@@AAH1@Z
  00007	64 a1 00 00 00
	00		 mov	 eax, DWORD PTR fs:__except_list
  0000d	50		 push	 eax
  0000e	64 89 25 00 00
	00 00		 mov	 DWORD PTR fs:__except_list, esp
  00015	51		 push	 ecx
  00016	56		 push	 esi
  00017	57		 push	 edi

; 233  : 	CMclAutoLock	Lock( CPlayerDataCenter::GetInstance()->m_Access );

  00018	e8 00 00 00 00	 call	 ?GetInstance@CPlayerDataCenter@@SAPAV1@XZ ; CPlayerDataCenter::GetInstance
  0001d	83 c0 1c	 add	 eax, 28			; 0000001cH
  00020	8d 70 04	 lea	 esi, DWORD PTR [eax+4]
  00023	56		 push	 esi
  00024	89 44 24 0c	 mov	 DWORD PTR _Lock$[esp+28], eax
  00028	ff 15 00 00 00
	00		 call	 DWORD PTR __imp__EnterCriticalSection@4

; 234  : 	PlayerData* pData	= CPlayerDataCenter::GetInstance()->GetPlayerData( pCouple->GetFirst() );

  0002e	8b 7c 24 1c	 mov	 edi, DWORD PTR _pCouple$[esp+20]
  00032	8b 47 0c	 mov	 eax, DWORD PTR [edi+12]
  00035	50		 push	 eax
  00036	c7 44 24 18 00
	00 00 00	 mov	 DWORD PTR __$EHRec$[esp+36], 0
  0003e	e8 00 00 00 00	 call	 ?GetInstance@CPlayerDataCenter@@SAPAV1@XZ ; CPlayerDataCenter::GetInstance
  00043	8b c8		 mov	 ecx, eax
  00045	e8 00 00 00 00	 call	 ?GetPlayerData@CPlayerDataCenter@@QAEPAU_PlayerData@@K@Z ; CPlayerDataCenter::GetPlayerData

; 235  : 	if( pData )

  0004a	85 c0		 test	 eax, eax
  0004c	74 0a		 je	 SHORT $L206162

; 236  : 		nGenderFirst	= pData->data.nSex;

  0004e	0f b6 40 02	 movzx	 eax, BYTE PTR [eax+2]
  00052	8b 4c 24 20	 mov	 ecx, DWORD PTR _nGenderFirst$[esp+20]
  00056	89 01		 mov	 DWORD PTR [ecx], eax
$L206162:

; 237  : 	pData	= CPlayerDataCenter::GetInstance()->GetPlayerData( pCouple->GetSecond() );

  00058	8b 7f 10	 mov	 edi, DWORD PTR [edi+16]
  0005b	57		 push	 edi
  0005c	e8 00 00 00 00	 call	 ?GetInstance@CPlayerDataCenter@@SAPAV1@XZ ; CPlayerDataCenter::GetInstance
  00061	8b c8		 mov	 ecx, eax
  00063	e8 00 00 00 00	 call	 ?GetPlayerData@CPlayerDataCenter@@QAEPAU_PlayerData@@K@Z ; CPlayerDataCenter::GetPlayerData

; 238  : 	if( pData )

  00068	85 c0		 test	 eax, eax
  0006a	74 0a		 je	 SHORT $L206163

; 239  : 		nGenderSecond	= pData->data.nSex;

  0006c	0f b6 50 02	 movzx	 edx, BYTE PTR [eax+2]
  00070	8b 44 24 24	 mov	 eax, DWORD PTR _nGenderSecond$[esp+20]
  00074	89 10		 mov	 DWORD PTR [eax], edx
$L206163:

; 240  : }

  00076	56		 push	 esi
  00077	ff 15 00 00 00
	00		 call	 DWORD PTR __imp__LeaveCriticalSection@4
  0007d	8b 4c 24 0c	 mov	 ecx, DWORD PTR __$EHRec$[esp+24]
  00081	5f		 pop	 edi
  00082	5e		 pop	 esi
  00083	64 89 0d 00 00
	00 00		 mov	 DWORD PTR fs:__except_list, ecx
  0008a	83 c4 10	 add	 esp, 16			; 00000010H
  0008d	c2 0c 00	 ret	 12			; 0000000cH
_TEXT	ENDS
;	COMDAT text$x
text$x	SEGMENT
$L208215:
  00000	8d 4d f0	 lea	 ecx, DWORD PTR _Lock$[ebp]
  00003	e9 00 00 00 00	 jmp	 ??1CMclAutoLock@@QAE@XZ	; CMclAutoLock::~CMclAutoLock
__ehhandler$?GetGender@CCoupleHelper@@AAEXPAVCCouple@@AAH1@Z:
  00008	b8 00 00 00 00	 mov	 eax, OFFSET FLAT:$T208246
  0000d	e9 00 00 00 00	 jmp	 ___CxxFrameHandler
text$x	ENDS
?GetGender@CCoupleHelper@@AAEXPAVCCouple@@AAH1@Z ENDP	; CCoupleHelper::GetGender
PUBLIC	??_C@_0CE@DPENKOBI@?6T?3?5CCoupleHelper?4OnCouple?3?5?$CFd?0?5@ ; `string'
PUBLIC	?OnCouple@CCoupleHelper@@QAEXAAVCAr@@@Z		; CCoupleHelper::OnCouple
EXTRN	?SendCoupleResult@CDPTrans@@QAEXKKH@Z:NEAR	; CDPTrans::SendCoupleResult
EXTRN	?OutputDebugStringA@election@@YAXPBDZZ:NEAR	; election::OutputDebugStringA
EXTRN	?Couple@CCoupleMgr@@QAEXKK@Z:NEAR		; CCoupleMgr::Couple
EXTRN	?GetCouple@CCoupleMgr@@QAEPAVCCouple@@K@Z:NEAR	; CCoupleMgr::GetCouple
;	COMDAT ??_C@_0CE@DPENKOBI@?6T?3?5CCoupleHelper?4OnCouple?3?5?$CFd?0?5@
; File c:\documents and settings\test\mes documents\source\virtuos_v17\build\program\databaseserver\dbcontroller.h
CONST	SEGMENT
??_C@_0CE@DPENKOBI@?6T?3?5CCoupleHelper?4OnCouple?3?5?$CFd?0?5@ DB 0aH, 'T'
	DB	': CCoupleHelper.OnCouple: %d, %d', 0aH, 00H	; `string'
; Function compile flags: /Ogty
; File c:\documents and settings\test\mes documents\source\virtuos_v17\build\program\databaseserver\couplehelper.cpp
CONST	ENDS
;	COMDAT ?OnCouple@CCoupleHelper@@QAEXAAVCAr@@@Z
_TEXT	SEGMENT
_nResult$ = -4						; size = 4
_ar$ = 8						; size = 4
?OnCouple@CCoupleHelper@@QAEXAAVCAr@@@Z PROC NEAR	; CCoupleHelper::OnCouple, COMDAT
; _this$ = ecx

; 311  : {

  00000	51		 push	 ecx

; 312  : 	int nResult	= 0;
; 313  : 	u_long idProposer, idTarget;
; 314  : 	ar >> idProposer >> idTarget;

  00001	8b 44 24 08	 mov	 eax, DWORD PTR _ar$[esp]
  00005	8b 50 08	 mov	 edx, DWORD PTR [eax+8]
  00008	55		 push	 ebp
  00009	56		 push	 esi
  0000a	8b e9		 mov	 ebp, ecx
  0000c	8b 48 0c	 mov	 ecx, DWORD PTR [eax+12]
  0000f	57		 push	 edi
  00010	33 ff		 xor	 edi, edi
  00012	8d 72 04	 lea	 esi, DWORD PTR [edx+4]
  00015	3b f1		 cmp	 esi, ecx
  00017	89 7c 24 0c	 mov	 DWORD PTR _nResult$[esp+16], edi
  0001b	77 07		 ja	 SHORT $L208257
  0001d	8b 3a		 mov	 edi, DWORD PTR [edx]
  0001f	89 70 08	 mov	 DWORD PTR [eax+8], esi
  00022	eb 03		 jmp	 SHORT $L208258
$L208257:
  00024	89 48 08	 mov	 DWORD PTR [eax+8], ecx
$L208258:
  00027	8b 50 08	 mov	 edx, DWORD PTR [eax+8]
  0002a	53		 push	 ebx
  0002b	8d 5a 04	 lea	 ebx, DWORD PTR [edx+4]
  0002e	3b d9		 cmp	 ebx, ecx
  00030	77 07		 ja	 SHORT $L208262
  00032	8b 32		 mov	 esi, DWORD PTR [edx]
  00034	89 58 08	 mov	 DWORD PTR [eax+8], ebx
  00037	eb 05		 jmp	 SHORT $L208263
$L208262:
  00039	33 f6		 xor	 esi, esi
  0003b	89 48 08	 mov	 DWORD PTR [eax+8], ecx
$L208263:

; 315  : 	election::OutputDebugString( "\nT: CCoupleHelper.OnCouple: %d, %d\n", idProposer, idTarget );

  0003e	56		 push	 esi
  0003f	57		 push	 edi
  00040	68 00 00 00 00	 push	 OFFSET FLAT:??_C@_0CE@DPENKOBI@?6T?3?5CCoupleHelper?4OnCouple?3?5?$CFd?0?5@
  00045	e8 00 00 00 00	 call	 ?OutputDebugStringA@election@@YAXPBDZZ ; election::OutputDebugStringA

; 316  : 	if( m_pMgr->GetCouple( idProposer ) )

  0004a	8b 4d 04	 mov	 ecx, DWORD PTR [ebp+4]
  0004d	83 c4 0c	 add	 esp, 12			; 0000000cH
  00050	57		 push	 edi
  00051	e8 00 00 00 00	 call	 ?GetCouple@CCoupleMgr@@QAEPAVCCouple@@K@Z ; CCoupleMgr::GetCouple
  00056	85 c0		 test	 eax, eax
  00058	5b		 pop	 ebx
  00059	74 0a		 je	 SHORT $L208279

; 317  : 		nResult		= TID_GAME_COUPLE_E06;	//    .

  0005b	c7 44 24 0c d4
	0f 00 00	 mov	 DWORD PTR _nResult$[esp+16], 4052 ; 00000fd4H

; 318  : 	if( nResult == 0 && m_pMgr->GetCouple( idTarget ) )

  00063	eb 59		 jmp	 SHORT $L206231
$L208279:
  00065	8b 4d 04	 mov	 ecx, DWORD PTR [ebp+4]
  00068	56		 push	 esi
  00069	e8 00 00 00 00	 call	 ?GetCouple@CCoupleMgr@@QAEPAVCCouple@@K@Z ; CCoupleMgr::GetCouple
  0006e	85 c0		 test	 eax, eax
  00070	74 0a		 je	 SHORT $L208280

; 319  : 		nResult		= TID_GAME_COUPLE_E01;	//   .     .

  00072	c7 44 24 0c ca
	0f 00 00	 mov	 DWORD PTR _nResult$[esp+16], 4042 ; 00000fcaH

; 320  : 	if( nResult == 0 && !m_pController->Couple( idProposer, idTarget ) )

  0007a	eb 42		 jmp	 SHORT $L206231
$L208280:
  0007c	8b 0d 00 00 00
	00		 mov	 ecx, DWORD PTR ?g_appInfo@@3UAppInfo@@A
  00082	8b 45 08	 mov	 eax, DWORD PTR [ebp+8]
  00085	8b 40 0c	 mov	 eax, DWORD PTR [eax+12]
  00088	56		 push	 esi
  00089	57		 push	 edi
  0008a	51		 push	 ecx
  0008b	68 00 00 00 00	 push	 OFFSET FLAT:??_C@_0BI@MMJOPPGN@uspAddCouple?5?$CFd?0?5?$CFd?0?5?$CFd?$AA@
  00090	50		 push	 eax
  00091	e8 00 00 00 00	 call	 ?Execute@CQuery@@QAAHPBDZZ ; CQuery::Execute
  00096	83 c4 14	 add	 esp, 20			; 00000014H
  00099	85 c0		 test	 eax, eax
  0009b	75 17		 jne	 SHORT $L208282
  0009d	68 00 00 00 00	 push	 OFFSET FLAT:??_C@_0BO@EKHMKIGO@couldn?8t?5execute?5uspAddCouple?$AA@
  000a2	e8 00 00 00 00	 call	 ?Error@@YAPBDPBDZZ	; Error
  000a7	83 c4 04	 add	 esp, 4

; 321  : 		nResult		= TID_GAME_COUPLE_E10;	//  .

  000aa	c7 44 24 0c d5
	0f 00 00	 mov	 DWORD PTR _nResult$[esp+16], 4053 ; 00000fd5H

; 322  : 	if( nResult == 0 )

  000b2	eb 0a		 jmp	 SHORT $L206231
$L208282:

; 323  : 		m_pMgr->Couple( idProposer, idTarget );

  000b4	8b 4d 04	 mov	 ecx, DWORD PTR [ebp+4]
  000b7	56		 push	 esi
  000b8	57		 push	 edi
  000b9	e8 00 00 00 00	 call	 ?Couple@CCoupleMgr@@QAEXKK@Z ; CCoupleMgr::Couple
$L206231:

; 324  : 	CDPTrans::GetInstance()->SendCoupleResult( idProposer, idTarget, nResult );

  000be	8b 54 24 0c	 mov	 edx, DWORD PTR _nResult$[esp+16]
  000c2	52		 push	 edx
  000c3	56		 push	 esi
  000c4	57		 push	 edi
  000c5	e8 00 00 00 00	 call	 ?GetInstance@CDPTrans@@SAPAV1@XZ ; CDPTrans::GetInstance
  000ca	8b c8		 mov	 ecx, eax
  000cc	e8 00 00 00 00	 call	 ?SendCoupleResult@CDPTrans@@QAEXKKH@Z ; CDPTrans::SendCoupleResult
  000d1	5f		 pop	 edi
  000d2	5e		 pop	 esi
  000d3	5d		 pop	 ebp

; 325  : }

  000d4	59		 pop	 ecx
  000d5	c2 04 00	 ret	 4
?OnCouple@CCoupleHelper@@QAEXAAVCAr@@@Z ENDP		; CCoupleHelper::OnCouple
_TEXT	ENDS
PUBLIC	??_C@_0CC@POOPMPNO@?6T?3?5CCoupleHelper?4OnDecouple?3?5?$CFd@ ; `string'
PUBLIC	?OnDecouple@CCoupleHelper@@QAEXAAVCAr@@@Z	; CCoupleHelper::OnDecouple
EXTRN	?SendDecoupleResult@CDPTrans@@QAEXKH@Z:NEAR	; CDPTrans::SendDecoupleResult
EXTRN	?Decouple@CCoupleMgr@@QAEHK@Z:NEAR		; CCoupleMgr::Decouple
;	COMDAT ??_C@_0CC@POOPMPNO@?6T?3?5CCoupleHelper?4OnDecouple?3?5?$CFd@
; File c:\documents and settings\test\mes documents\source\virtuos_v17\build\program\databaseserver\dbcontroller.h
CONST	SEGMENT
??_C@_0CC@POOPMPNO@?6T?3?5CCoupleHelper?4OnDecouple?3?5?$CFd@ DB 0aH, 'T:'
	DB	' CCoupleHelper.OnDecouple: %d', 0aH, 00H	; `string'
; Function compile flags: /Ogty
; File c:\documents and settings\test\mes documents\source\virtuos_v17\build\program\databaseserver\couplehelper.cpp
CONST	ENDS
;	COMDAT ?OnDecouple@CCoupleHelper@@QAEXAAVCAr@@@Z
_TEXT	SEGMENT
_ar$ = 8						; size = 4
?OnDecouple@CCoupleHelper@@QAEXAAVCAr@@@Z PROC NEAR	; CCoupleHelper::OnDecouple, COMDAT
; _this$ = ecx

; 329  : 	int nResult		= 0;
; 330  : 	u_long idPlayer;
; 331  : 	ar >> idPlayer;

  00000	8b 44 24 04	 mov	 eax, DWORD PTR _ar$[esp-4]
  00004	53		 push	 ebx
  00005	55		 push	 ebp
  00006	8b d9		 mov	 ebx, ecx
  00008	8b 48 08	 mov	 ecx, DWORD PTR [eax+8]
  0000b	56		 push	 esi
  0000c	8b 70 0c	 mov	 esi, DWORD PTR [eax+12]
  0000f	8d 51 04	 lea	 edx, DWORD PTR [ecx+4]
  00012	33 ed		 xor	 ebp, ebp
  00014	3b d6		 cmp	 edx, esi
  00016	57		 push	 edi
  00017	77 07		 ja	 SHORT $L208287
  00019	8b 39		 mov	 edi, DWORD PTR [ecx]
  0001b	89 50 08	 mov	 DWORD PTR [eax+8], edx
  0001e	eb 05		 jmp	 SHORT $L208288
$L208287:
  00020	33 ff		 xor	 edi, edi
  00022	89 70 08	 mov	 DWORD PTR [eax+8], esi
$L208288:

; 332  : 
; 333  : 	election::OutputDebugString( "\nT: CCoupleHelper.OnDecouple: %d\n", idPlayer );

  00025	57		 push	 edi
  00026	68 00 00 00 00	 push	 OFFSET FLAT:??_C@_0CC@POOPMPNO@?6T?3?5CCoupleHelper?4OnDecouple?3?5?$CFd@
  0002b	e8 00 00 00 00	 call	 ?OutputDebugStringA@election@@YAXPBDZZ ; election::OutputDebugStringA

; 334  : 
; 335  : 	CCouple* pCouple	= m_pMgr->GetCouple( idPlayer );

  00030	8b 4b 04	 mov	 ecx, DWORD PTR [ebx+4]
  00033	83 c4 08	 add	 esp, 8
  00036	57		 push	 edi
  00037	e8 00 00 00 00	 call	 ?GetCouple@CCoupleMgr@@QAEPAVCCouple@@K@Z ; CCoupleMgr::GetCouple

; 336  : 	if( !pCouple )

  0003c	85 c0		 test	 eax, eax
  0003e	75 07		 jne	 SHORT $L208303

; 337  : 		nResult		= TID_GAME_COUPLE_E05;

  00040	bd ce 0f 00 00	 mov	 ebp, 4046		; 00000fceH

; 338  : 	if( nResult == 0 && !m_pController->Decouple( idPlayer ) )

  00045	eb 46		 jmp	 SHORT $L206242
$L208303:
  00047	8b 0d 00 00 00
	00		 mov	 ecx, DWORD PTR ?g_appInfo@@3UAppInfo@@A
  0004d	8b 43 08	 mov	 eax, DWORD PTR [ebx+8]
  00050	8b 40 0c	 mov	 eax, DWORD PTR [eax+12]
  00053	57		 push	 edi
  00054	51		 push	 ecx
  00055	68 00 00 00 00	 push	 OFFSET FLAT:??_C@_0BH@CFAHFKMO@uspDeleteCouple?5?$CFd?0?5?$CFd?$AA@
  0005a	50		 push	 eax
  0005b	e8 00 00 00 00	 call	 ?Execute@CQuery@@QAAHPBDZZ ; CQuery::Execute
  00060	83 c4 10	 add	 esp, 16			; 00000010H
  00063	85 c0		 test	 eax, eax
  00065	75 14		 jne	 SHORT $L208305
  00067	68 00 00 00 00	 push	 OFFSET FLAT:??_C@_0CB@BMIHDKGG@couldn?8t?5execute?5uspDeleteCouple@
  0006c	e8 00 00 00 00	 call	 ?Error@@YAPBDPBDZZ	; Error
  00071	83 c4 04	 add	 esp, 4

; 339  : 		nResult		= TID_GAME_COUPLE_E10;	//  .

  00074	bd d5 0f 00 00	 mov	 ebp, 4053		; 00000fd5H

; 340  : 	if( nResult == 0 && !m_pMgr->Decouple( idPlayer ) )

  00079	eb 12		 jmp	 SHORT $L206242
$L208305:
  0007b	8b 4b 04	 mov	 ecx, DWORD PTR [ebx+4]
  0007e	57		 push	 edi
  0007f	e8 00 00 00 00	 call	 ?Decouple@CCoupleMgr@@QAEHK@Z ; CCoupleMgr::Decouple
  00084	85 c0		 test	 eax, eax
  00086	75 05		 jne	 SHORT $L206242

; 341  : 		nResult		= TID_GAME_COUPLE_E11;

  00088	bd d6 0f 00 00	 mov	 ebp, 4054		; 00000fd6H
$L206242:

; 342  : 	CDPTrans::GetInstance()->SendDecoupleResult( idPlayer, nResult );

  0008d	55		 push	 ebp
  0008e	57		 push	 edi
  0008f	e8 00 00 00 00	 call	 ?GetInstance@CDPTrans@@SAPAV1@XZ ; CDPTrans::GetInstance
  00094	8b c8		 mov	 ecx, eax
  00096	e8 00 00 00 00	 call	 ?SendDecoupleResult@CDPTrans@@QAEXKH@Z ; CDPTrans::SendDecoupleResult
  0009b	5f		 pop	 edi
  0009c	5e		 pop	 esi
  0009d	5d		 pop	 ebp
  0009e	5b		 pop	 ebx

; 343  : }

  0009f	c2 04 00	 ret	 4
?OnDecouple@CCoupleHelper@@QAEXAAVCAr@@@Z ENDP		; CCoupleHelper::OnDecouple
_TEXT	ENDS
PUBLIC	??9const_iterator@?$_Tree@V?$_Tmap_traits@KJU?$less@K@std@@V?$allocator@U?$pair@$$CBKJ@std@@@2@$0A@@std@@@std@@QBE_NABV012@@Z ; std::_Tree<std::_Tmap_traits<unsigned long,long,std::less<unsigned long>,std::allocator<std::pair<unsigned long const ,long> >,0> >::const_iterator::operator!=
; Function compile flags: /Ogty
; File c:\program files\microsoft visual studio .net 2003\vc7\include\xtree
;	COMDAT ??9const_iterator@?$_Tree@V?$_Tmap_traits@KJU?$less@K@std@@V?$allocator@U?$pair@$$CBKJ@std@@@2@$0A@@std@@@std@@QBE_NABV012@@Z
_TEXT	SEGMENT
__Right$ = 8						; size = 4
??9const_iterator@?$_Tree@V?$_Tmap_traits@KJU?$less@K@std@@V?$allocator@U?$pair@$$CBKJ@std@@@2@$0A@@std@@@std@@QBE_NABV012@@Z PROC NEAR ; std::_Tree<std::_Tmap_traits<unsigned long,long,std::less<unsigned long>,std::allocator<std::pair<unsigned long const ,long> >,0> >::const_iterator::operator!=, COMDAT
; _this$ = ecx

; 246  : 			return (!(*this == _Right));

  00000	8b 01		 mov	 eax, DWORD PTR [ecx]
  00002	8b 54 24 04	 mov	 edx, DWORD PTR __Right$[esp-4]
  00006	56		 push	 esi
  00007	8b 32		 mov	 esi, DWORD PTR [edx]
  00009	33 c9		 xor	 ecx, ecx
  0000b	3b c6		 cmp	 eax, esi
  0000d	0f 95 c1	 setne	 cl
  00010	8a c1		 mov	 al, cl
  00012	5e		 pop	 esi

; 247  : 			}

  00013	c2 04 00	 ret	 4
??9const_iterator@?$_Tree@V?$_Tmap_traits@KJU?$less@K@std@@V?$allocator@U?$pair@$$CBKJ@std@@@2@$0A@@std@@@std@@QBE_NABV012@@Z ENDP ; std::_Tree<std::_Tmap_traits<unsigned long,long,std::less<unsigned long>,std::allocator<std::pair<unsigned long const ,long> >,0> >::const_iterator::operator!=
_TEXT	ENDS
PUBLIC	?_Key@?$_Tree@V?$_Tmap_traits@KJU?$less@K@std@@V?$allocator@U?$pair@$$CBKJ@std@@@2@$0A@@std@@@std@@KAABKPAU_Node@?$_Tree_nod@V?$_Tmap_traits@KJU?$less@K@std@@V?$allocator@U?$pair@$$CBKJ@std@@@2@$0A@@std@@@2@@Z ; std::_Tree<std::_Tmap_traits<unsigned long,long,std::less<unsigned long>,std::allocator<std::pair<unsigned long const ,long> >,0> >::_Key
; Function compile flags: /Ogty
;	COMDAT ?_Key@?$_Tree@V?$_Tmap_traits@KJU?$less@K@std@@V?$allocator@U?$pair@$$CBKJ@std@@@2@$0A@@std@@@std@@KAABKPAU_Node@?$_Tree_nod@V?$_Tmap_traits@KJU?$less@K@std@@V?$allocator@U?$pair@$$CBKJ@std@@@2@$0A@@std@@@2@@Z
_TEXT	SEGMENT
__Pnode$ = 8						; size = 4
?_Key@?$_Tree@V?$_Tmap_traits@KJU?$less@K@std@@V?$allocator@U?$pair@$$CBKJ@std@@@2@$0A@@std@@@std@@KAABKPAU_Node@?$_Tree_nod@V?$_Tmap_traits@KJU?$less@K@std@@V?$allocator@U?$pair@$$CBKJ@std@@@2@$0A@@std@@@2@@Z PROC NEAR ; std::_Tree<std::_Tmap_traits<unsigned long,long,std::less<unsigned long>,std::allocator<std::pair<unsigned long const ,long> >,0> >::_Key, COMDAT

; 142  : 		return (_Mybase::_Kfn(_Myval(_Pnode)));

  00000	8b 44 24 04	 mov	 eax, DWORD PTR __Pnode$[esp-4]
  00004	83 c0 0c	 add	 eax, 12			; 0000000cH

; 143  : 		}

  00007	c3		 ret	 0
?_Key@?$_Tree@V?$_Tmap_traits@KJU?$less@K@std@@V?$allocator@U?$pair@$$CBKJ@std@@@2@$0A@@std@@@std@@KAABKPAU_Node@?$_Tree_nod@V?$_Tmap_traits@KJU?$less@K@std@@V?$allocator@U?$pair@$$CBKJ@std@@@2@$0A@@std@@@2@@Z ENDP ; std::_Tree<std::_Tmap_traits<unsigned long,long,std::less<unsigned long>,std::allocator<std::pair<unsigned long const ,long> >,0> >::_Key
_TEXT	ENDS
PUBLIC	?_Lrotate@?$_Tree@V?$_Tmap_traits@KJU?$less@K@std@@V?$allocator@U?$pair@$$CBKJ@std@@@2@$0A@@std@@@std@@IAEXPAU_Node@?$_Tree_nod@V?$_Tmap_traits@KJU?$less@K@std@@V?$allocator@U?$pair@$$CBKJ@std@@@2@$0A@@std@@@2@@Z ; std::_Tree<std::_Tmap_traits<unsigned long,long,std::less<unsigned long>,std::allocator<std::pair<unsigned long const ,long> >,0> >::_Lrotate
; Function compile flags: /Ogty
;	COMDAT ?_Lrotate@?$_Tree@V?$_Tmap_traits@KJU?$less@K@std@@V?$allocator@U?$pair@$$CBKJ@std@@@2@$0A@@std@@@std@@IAEXPAU_Node@?$_Tree_nod@V?$_Tmap_traits@KJU?$less@K@std@@V?$allocator@U?$pair@$$CBKJ@std@@@2@$0A@@std@@@2@@Z
_TEXT	SEGMENT
__Wherenode$ = 8					; size = 4
?_Lrotate@?$_Tree@V?$_Tmap_traits@KJU?$less@K@std@@V?$allocator@U?$pair@$$CBKJ@std@@@2@$0A@@std@@@std@@IAEXPAU_Node@?$_Tree_nod@V?$_Tmap_traits@KJU?$less@K@std@@V?$allocator@U?$pair@$$CBKJ@std@@@2@$0A@@std@@@2@@Z PROC NEAR ; std::_Tree<std::_Tmap_traits<unsigned long,long,std::less<unsigned long>,std::allocator<std::pair<unsigned long const ,long> >,0> >::_Lrotate, COMDAT
; _this$ = ecx

; 1015 : 		_Nodeptr _Pnode = _Right(_Wherenode);

  00000	8b 54 24 04	 mov	 edx, DWORD PTR __Wherenode$[esp-4]
  00004	8b 42 08	 mov	 eax, DWORD PTR [edx+8]
  00007	53		 push	 ebx
  00008	56		 push	 esi

; 1016 : 		_Right(_Wherenode) = _Left(_Pnode);

  00009	8b 30		 mov	 esi, DWORD PTR [eax]
  0000b	89 72 08	 mov	 DWORD PTR [edx+8], esi

; 1017 : 
; 1018 : 		if (!_Isnil(_Left(_Pnode)))

  0000e	8b 30		 mov	 esi, DWORD PTR [eax]
  00010	8a 5e 15	 mov	 bl, BYTE PTR [esi+21]
  00013	84 db		 test	 bl, bl
  00015	75 03		 jne	 SHORT $L206732

; 1019 : 			_Parent(_Left(_Pnode)) = _Wherenode;

  00017	89 56 04	 mov	 DWORD PTR [esi+4], edx
$L206732:

; 1020 : 		_Parent(_Pnode) = _Parent(_Wherenode);

  0001a	8b 72 04	 mov	 esi, DWORD PTR [edx+4]
  0001d	89 70 04	 mov	 DWORD PTR [eax+4], esi

; 1021 : 
; 1022 : 		if (_Wherenode == _Root())

  00020	8b 49 04	 mov	 ecx, DWORD PTR [ecx+4]
  00023	3b 51 04	 cmp	 edx, DWORD PTR [ecx+4]
  00026	75 0d		 jne	 SHORT $L206733

; 1023 : 			_Root() = _Pnode;

  00028	89 41 04	 mov	 DWORD PTR [ecx+4], eax
  0002b	5e		 pop	 esi

; 1028 : 
; 1029 : 		_Left(_Pnode) = _Wherenode;

  0002c	89 10		 mov	 DWORD PTR [eax], edx

; 1030 : 		_Parent(_Wherenode) = _Pnode;

  0002e	89 42 04	 mov	 DWORD PTR [edx+4], eax
  00031	5b		 pop	 ebx

; 1031 : 		}

  00032	c2 04 00	 ret	 4
$L206733:

; 1024 : 		else if (_Wherenode == _Left(_Parent(_Wherenode)))

  00035	8b 4a 04	 mov	 ecx, DWORD PTR [edx+4]
  00038	3b 11		 cmp	 edx, DWORD PTR [ecx]
  0003a	75 0c		 jne	 SHORT $L206735

; 1025 : 			_Left(_Parent(_Wherenode)) = _Pnode;

  0003c	89 01		 mov	 DWORD PTR [ecx], eax
  0003e	5e		 pop	 esi

; 1028 : 
; 1029 : 		_Left(_Pnode) = _Wherenode;

  0003f	89 10		 mov	 DWORD PTR [eax], edx

; 1030 : 		_Parent(_Wherenode) = _Pnode;

  00041	89 42 04	 mov	 DWORD PTR [edx+4], eax
  00044	5b		 pop	 ebx

; 1031 : 		}

  00045	c2 04 00	 ret	 4
$L206735:

; 1026 : 		else
; 1027 : 			_Right(_Parent(_Wherenode)) = _Pnode;

  00048	89 41 08	 mov	 DWORD PTR [ecx+8], eax
  0004b	5e		 pop	 esi

; 1028 : 
; 1029 : 		_Left(_Pnode) = _Wherenode;

  0004c	89 10		 mov	 DWORD PTR [eax], edx

; 1030 : 		_Parent(_Wherenode) = _Pnode;

  0004e	89 42 04	 mov	 DWORD PTR [edx+4], eax
  00051	5b		 pop	 ebx

; 1031 : 		}

  00052	c2 04 00	 ret	 4
?_Lrotate@?$_Tree@V?$_Tmap_traits@KJU?$less@K@std@@V?$allocator@U?$pair@$$CBKJ@std@@@2@$0A@@std@@@std@@IAEXPAU_Node@?$_Tree_nod@V?$_Tmap_traits@KJU?$less@K@std@@V?$allocator@U?$pair@$$CBKJ@std@@@2@$0A@@std@@@2@@Z ENDP ; std::_Tree<std::_Tmap_traits<unsigned long,long,std::less<unsigned long>,std::allocator<std::pair<unsigned long const ,long> >,0> >::_Lrotate
_TEXT	ENDS
PUBLIC	?destroy@?$allocator@U_Node@?$_Tree_nod@V?$_Tmap_traits@KJU?$less@K@std@@V?$allocator@U?$pair@$$CBKJ@std@@@2@$0A@@std@@@std@@@std@@QAEXPAU_Node@?$_Tree_nod@V?$_Tmap_traits@KJU?$less@K@std@@V?$allocator@U?$pair@$$CBKJ@std@@@2@$0A@@std@@@2@@Z ; std::allocator<std::_Tree_nod<std::_Tmap_traits<unsigned long,long,std::less<unsigned long>,std::allocator<std::pair<unsigned long const ,long> >,0> >::_Node>::destroy
; Function compile flags: /Ogty
; File c:\program files\microsoft visual studio .net 2003\vc7\include\xmemory
;	COMDAT ?destroy@?$allocator@U_Node@?$_Tree_nod@V?$_Tmap_traits@KJU?$less@K@std@@V?$allocator@U?$pair@$$CBKJ@std@@@2@$0A@@std@@@std@@@std@@QAEXPAU_Node@?$_Tree_nod@V?$_Tmap_traits@KJU?$less@K@std@@V?$allocator@U?$pair@$$CBKJ@std@@@2@$0A@@std@@@2@@Z
_TEXT	SEGMENT
__Ptr$ = 8						; size = 4
?destroy@?$allocator@U_Node@?$_Tree_nod@V?$_Tmap_traits@KJU?$less@K@std@@V?$allocator@U?$pair@$$CBKJ@std@@@2@$0A@@std@@@std@@@std@@QAEXPAU_Node@?$_Tree_nod@V?$_Tmap_traits@KJU?$less@K@std@@V?$allocator@U?$pair@$$CBKJ@std@@@2@$0A@@std@@@2@@Z PROC NEAR ; std::allocator<std::_Tree_nod<std::_Tmap_traits<unsigned long,long,std::less<unsigned long>,std::allocator<std::pair<unsigned long const ,long> >,0> >::_Node>::destroy, COMDAT
; _this$ = ecx

; 152  : 		_Destroy(_Ptr);
; 153  : 		}

  00000	c2 04 00	 ret	 4
?destroy@?$allocator@U_Node@?$_Tree_nod@V?$_Tmap_traits@KJU?$less@K@std@@V?$allocator@U?$pair@$$CBKJ@std@@@2@$0A@@std@@@std@@@std@@QAEXPAU_Node@?$_Tree_nod@V?$_Tmap_traits@KJU?$less@K@std@@V?$allocator@U?$pair@$$CBKJ@std@@@2@$0A@@std@@@2@@Z ENDP ; std::allocator<std::_Tree_nod<std::_Tmap_traits<unsigned long,long,std::less<unsigned long>,std::allocator<std::pair<unsigned long const ,long> >,0> >::_Node>::destroy
_TEXT	ENDS
PUBLIC	??0iterator@?$_Tree@V?$_Tmap_traits@KJU?$less@K@std@@V?$allocator@U?$pair@$$CBKJ@std@@@2@$0A@@std@@@std@@QAE@PAU_Node@?$_Tree_nod@V?$_Tmap_traits@KJU?$less@K@std@@V?$allocator@U?$pair@$$CBKJ@std@@@2@$0A@@std@@@2@@Z ; std::_Tree<std::_Tmap_traits<unsigned long,long,std::less<unsigned long>,std::allocator<std::pair<unsigned long const ,long> >,0> >::iterator::iterator
; Function compile flags: /Ogty
; File c:\program files\microsoft visual studio .net 2003\vc7\include\xtree
;	COMDAT ??0iterator@?$_Tree@V?$_Tmap_traits@KJU?$less@K@std@@V?$allocator@U?$pair@$$CBKJ@std@@@2@$0A@@std@@@std@@QAE@PAU_Node@?$_Tree_nod@V?$_Tmap_traits@KJU?$less@K@std@@V?$allocator@U?$pair@$$CBKJ@std@@@2@$0A@@std@@@2@@Z
_TEXT	SEGMENT
__Pnode$ = 8						; size = 4
??0iterator@?$_Tree@V?$_Tmap_traits@KJU?$less@K@std@@V?$allocator@U?$pair@$$CBKJ@std@@@2@$0A@@std@@@std@@QAE@PAU_Node@?$_Tree_nod@V?$_Tmap_traits@KJU?$less@K@std@@V?$allocator@U?$pair@$$CBKJ@std@@@2@$0A@@std@@@2@@Z PROC NEAR ; std::_Tree<std::_Tmap_traits<unsigned long,long,std::less<unsigned long>,std::allocator<std::pair<unsigned long const ,long> >,0> >::iterator::iterator, COMDAT
; _this$ = ecx

; 312  : 			{	// construct with node pointer _Pnode

  00000	8b c1		 mov	 eax, ecx
  00002	8b 4c 24 04	 mov	 ecx, DWORD PTR __Pnode$[esp-4]
  00006	89 08		 mov	 DWORD PTR [eax], ecx

; 313  : 			}

  00008	c2 04 00	 ret	 4
??0iterator@?$_Tree@V?$_Tmap_traits@KJU?$less@K@std@@V?$allocator@U?$pair@$$CBKJ@std@@@2@$0A@@std@@@std@@QAE@PAU_Node@?$_Tree_nod@V?$_Tmap_traits@KJU?$less@K@std@@V?$allocator@U?$pair@$$CBKJ@std@@@2@$0A@@std@@@2@@Z ENDP ; std::_Tree<std::_Tmap_traits<unsigned long,long,std::less<unsigned long>,std::allocator<std::pair<unsigned long const ,long> >,0> >::iterator::iterator
_TEXT	ENDS
PUBLIC	??Diterator@?$_Tree@V?$_Tmap_traits@KJU?$less@K@std@@V?$allocator@U?$pair@$$CBKJ@std@@@2@$0A@@std@@@std@@QBEAAU?$pair@$$CBKJ@2@XZ ; std::_Tree<std::_Tmap_traits<unsigned long,long,std::less<unsigned long>,std::allocator<std::pair<unsigned long const ,long> >,0> >::iterator::operator*
; Function compile flags: /Ogty
;	COMDAT ??Diterator@?$_Tree@V?$_Tmap_traits@KJU?$less@K@std@@V?$allocator@U?$pair@$$CBKJ@std@@@2@$0A@@std@@@std@@QBEAAU?$pair@$$CBKJ@2@XZ
_TEXT	SEGMENT
??Diterator@?$_Tree@V?$_Tmap_traits@KJU?$less@K@std@@V?$allocator@U?$pair@$$CBKJ@std@@@2@$0A@@std@@@std@@QBEAAU?$pair@$$CBKJ@2@XZ PROC NEAR ; std::_Tree<std::_Tmap_traits<unsigned long,long,std::less<unsigned long>,std::allocator<std::pair<unsigned long const ,long> >,0> >::iterator::operator*, COMDAT
; _this$ = ecx

; 317  : 			return ((reference)**(const_iterator *)this);

  00000	8b 01		 mov	 eax, DWORD PTR [ecx]
  00002	83 c0 0c	 add	 eax, 12			; 0000000cH

; 318  : 			}

  00005	c3		 ret	 0
??Diterator@?$_Tree@V?$_Tmap_traits@KJU?$less@K@std@@V?$allocator@U?$pair@$$CBKJ@std@@@2@$0A@@std@@@std@@QBEAAU?$pair@$$CBKJ@2@XZ ENDP ; std::_Tree<std::_Tmap_traits<unsigned long,long,std::less<unsigned long>,std::allocator<std::pair<unsigned long const ,long> >,0> >::iterator::operator*
_TEXT	ENDS
PUBLIC	??Econst_iterator@?$_Tree@V?$_Tmap_traits@KJU?$less@K@std@@V?$allocator@U?$pair@$$CBKJ@std@@@2@$0A@@std@@@std@@QAEAAV012@XZ ; std::_Tree<std::_Tmap_traits<unsigned long,long,std::less<unsigned long>,std::allocator<std::pair<unsigned long const ,long> >,0> >::const_iterator::operator++
; Function compile flags: /Ogty
;	COMDAT ??Econst_iterator@?$_Tree@V?$_Tmap_traits@KJU?$less@K@std@@V?$allocator@U?$pair@$$CBKJ@std@@@2@$0A@@std@@@std@@QAEAAV012@XZ
_TEXT	SEGMENT
??Econst_iterator@?$_Tree@V?$_Tmap_traits@KJU?$less@K@std@@V?$allocator@U?$pair@$$CBKJ@std@@@2@$0A@@std@@@std@@QAEAAV012@XZ PROC NEAR ; std::_Tree<std::_Tmap_traits<unsigned long,long,std::less<unsigned long>,std::allocator<std::pair<unsigned long const ,long> >,0> >::const_iterator::operator++, COMDAT
; _this$ = ecx

; 214  : 			{	// preincrement

  00000	56		 push	 esi
  00001	8b f1		 mov	 esi, ecx

; 215  : 			_Inc();

  00003	e8 00 00 00 00	 call	 ?_Inc@const_iterator@?$_Tree@V?$_Tmap_traits@KJU?$less@K@std@@V?$allocator@U?$pair@$$CBKJ@std@@@2@$0A@@std@@@std@@QAEXXZ ; std::_Tree<std::_Tmap_traits<unsigned long,long,std::less<unsigned long>,std::allocator<std::pair<unsigned long const ,long> >,0> >::const_iterator::_Inc

; 216  : 			return (*this);

  00008	8b c6		 mov	 eax, esi
  0000a	5e		 pop	 esi

; 217  : 			}

  0000b	c3		 ret	 0
??Econst_iterator@?$_Tree@V?$_Tmap_traits@KJU?$less@K@std@@V?$allocator@U?$pair@$$CBKJ@std@@@2@$0A@@std@@@std@@QAEAAV012@XZ ENDP ; std::_Tree<std::_Tmap_traits<unsigned long,long,std::less<unsigned long>,std::allocator<std::pair<unsigned long const ,long> >,0> >::const_iterator::operator++
_TEXT	ENDS
PUBLIC	??Diterator@?$vector@U_COUPLE_ITEM@@V?$allocator@U_COUPLE_ITEM@@@std@@@std@@QBEAAU_COUPLE_ITEM@@XZ ; std::vector<_COUPLE_ITEM,std::allocator<_COUPLE_ITEM> >::iterator::operator*
; Function compile flags: /Ogty
; File c:\program files\microsoft visual studio .net 2003\vc7\include\vector
;	COMDAT ??Diterator@?$vector@U_COUPLE_ITEM@@V?$allocator@U_COUPLE_ITEM@@@std@@@std@@QBEAAU_COUPLE_ITEM@@XZ
_TEXT	SEGMENT
??Diterator@?$vector@U_COUPLE_ITEM@@V?$allocator@U_COUPLE_ITEM@@@std@@@std@@QBEAAU_COUPLE_ITEM@@XZ PROC NEAR ; std::vector<_COUPLE_ITEM,std::allocator<_COUPLE_ITEM> >::iterator::operator*, COMDAT
; _this$ = ecx

; 220  : 			return ((reference)**(const_iterator *)this);

  00000	8b 01		 mov	 eax, DWORD PTR [ecx]

; 221  : 			}

  00002	c3		 ret	 0
??Diterator@?$vector@U_COUPLE_ITEM@@V?$allocator@U_COUPLE_ITEM@@@std@@@std@@QBEAAU_COUPLE_ITEM@@XZ ENDP ; std::vector<_COUPLE_ITEM,std::allocator<_COUPLE_ITEM> >::iterator::operator*
_TEXT	ENDS
PUBLIC	??Hiterator@?$vector@U_COUPLE_ITEM@@V?$allocator@U_COUPLE_ITEM@@@std@@@std@@QBE?AV012@H@Z ; std::vector<_COUPLE_ITEM,std::allocator<_COUPLE_ITEM> >::iterator::operator+
; Function compile flags: /Ogty
;	COMDAT ??Hiterator@?$vector@U_COUPLE_ITEM@@V?$allocator@U_COUPLE_ITEM@@@std@@@std@@QBE?AV012@H@Z
_TEXT	SEGMENT
___$ReturnUdt$ = 8					; size = 4
__Off$ = 12						; size = 4
??Hiterator@?$vector@U_COUPLE_ITEM@@V?$allocator@U_COUPLE_ITEM@@@std@@@std@@QBE?AV012@H@Z PROC NEAR ; std::vector<_COUPLE_ITEM,std::allocator<_COUPLE_ITEM> >::iterator::operator+, COMDAT
; _this$ = ecx

; 262  : 			iterator _Tmp = *this;
; 263  : 			return (_Tmp += _Off);

  00000	8b 44 24 08	 mov	 eax, DWORD PTR __Off$[esp-4]
  00004	8b 09		 mov	 ecx, DWORD PTR [ecx]
  00006	8d 04 80	 lea	 eax, DWORD PTR [eax+eax*4]
  00009	8d 14 81	 lea	 edx, DWORD PTR [ecx+eax*4]
  0000c	8b 44 24 04	 mov	 eax, DWORD PTR ___$ReturnUdt$[esp-4]
  00010	89 10		 mov	 DWORD PTR [eax], edx

; 264  : 			}

  00012	c2 08 00	 ret	 8
??Hiterator@?$vector@U_COUPLE_ITEM@@V?$allocator@U_COUPLE_ITEM@@@std@@@std@@QBE?AV012@H@Z ENDP ; std::vector<_COUPLE_ITEM,std::allocator<_COUPLE_ITEM> >::iterator::operator+
_TEXT	ENDS
PUBLIC	?max_size@?$_Tree@V?$_Tmap_traits@KJU?$less@K@std@@V?$allocator@U?$pair@$$CBKJ@std@@@2@$0A@@std@@@std@@QBEIXZ ; std::_Tree<std::_Tmap_traits<unsigned long,long,std::less<unsigned long>,std::allocator<std::pair<unsigned long const ,long> >,0> >::max_size
; Function compile flags: /Ogty
; File c:\program files\microsoft visual studio .net 2003\vc7\include\xtree
;	COMDAT ?max_size@?$_Tree@V?$_Tmap_traits@KJU?$less@K@std@@V?$allocator@U?$pair@$$CBKJ@std@@@2@$0A@@std@@@std@@QBEIXZ
_TEXT	SEGMENT
?max_size@?$_Tree@V?$_Tmap_traits@KJU?$less@K@std@@V?$allocator@U?$pair@$$CBKJ@std@@@2@$0A@@std@@@std@@QBEIXZ PROC NEAR ; std::_Tree<std::_Tmap_traits<unsigned long,long,std::less<unsigned long>,std::allocator<std::pair<unsigned long const ,long> >,0> >::max_size, COMDAT
; _this$ = ecx

; 453  : 		return (this->_Alval.max_size());

  00000	b8 ff ff ff 1f	 mov	 eax, 536870911		; 1fffffffH

; 454  : 		}

  00005	c3		 ret	 0
?max_size@?$_Tree@V?$_Tmap_traits@KJU?$less@K@std@@V?$allocator@U?$pair@$$CBKJ@std@@@2@$0A@@std@@@std@@QBEIXZ ENDP ; std::_Tree<std::_Tmap_traits<unsigned long,long,std::less<unsigned long>,std::allocator<std::pair<unsigned long const ,long> >,0> >::max_size
_TEXT	ENDS
PUBLIC	?_Lbound@?$_Tree@V?$_Tmap_traits@KJU?$less@K@std@@V?$allocator@U?$pair@$$CBKJ@std@@@2@$0A@@std@@@std@@IBEPAU_Node@?$_Tree_nod@V?$_Tmap_traits@KJU?$less@K@std@@V?$allocator@U?$pair@$$CBKJ@std@@@2@$0A@@std@@@2@ABK@Z ; std::_Tree<std::_Tmap_traits<unsigned long,long,std::less<unsigned long>,std::allocator<std::pair<unsigned long const ,long> >,0> >::_Lbound
; Function compile flags: /Ogty
;	COMDAT ?_Lbound@?$_Tree@V?$_Tmap_traits@KJU?$less@K@std@@V?$allocator@U?$pair@$$CBKJ@std@@@2@$0A@@std@@@std@@IBEPAU_Node@?$_Tree_nod@V?$_Tmap_traits@KJU?$less@K@std@@V?$allocator@U?$pair@$$CBKJ@std@@@2@$0A@@std@@@2@ABK@Z
_TEXT	SEGMENT
__Keyval$ = 8						; size = 4
?_Lbound@?$_Tree@V?$_Tmap_traits@KJU?$less@K@std@@V?$allocator@U?$pair@$$CBKJ@std@@@2@$0A@@std@@@std@@IBEPAU_Node@?$_Tree_nod@V?$_Tmap_traits@KJU?$less@K@std@@V?$allocator@U?$pair@$$CBKJ@std@@@2@$0A@@std@@@2@ABK@Z PROC NEAR ; std::_Tree<std::_Tmap_traits<unsigned long,long,std::less<unsigned long>,std::allocator<std::pair<unsigned long const ,long> >,0> >::_Lbound, COMDAT
; _this$ = ecx

; 988  : 		_Nodeptr _Pnode = _Root();

  00000	8b 41 04	 mov	 eax, DWORD PTR [ecx+4]
  00003	8b 48 04	 mov	 ecx, DWORD PTR [eax+4]

; 989  : 		_Nodeptr _Wherenode = _Myhead;	// end() if search fails
; 990  : 
; 991  : 		while (!_Isnil(_Pnode))

  00006	8a 51 15	 mov	 dl, BYTE PTR [ecx+21]
  00009	84 d2		 test	 dl, dl
  0000b	75 1d		 jne	 SHORT $L206911
  0000d	8b 54 24 04	 mov	 edx, DWORD PTR __Keyval$[esp-4]
  00011	8b 12		 mov	 edx, DWORD PTR [edx]
  00013	53		 push	 ebx
$L206910:

; 992  : 			if (this->comp(_Key(_Pnode), _Keyval))

  00014	39 51 0c	 cmp	 DWORD PTR [ecx+12], edx
  00017	73 05		 jae	 SHORT $L206912

; 993  : 				_Pnode = _Right(_Pnode);	// descend right subtree

  00019	8b 49 08	 mov	 ecx, DWORD PTR [ecx+8]

; 994  : 			else

  0001c	eb 04		 jmp	 SHORT $L206913
$L206912:

; 995  : 				{	// _Pnode not less than _Keyval, remember it
; 996  : 				_Wherenode = _Pnode;

  0001e	8b c1		 mov	 eax, ecx

; 997  : 				_Pnode = _Left(_Pnode);	// descend left subtree

  00020	8b 09		 mov	 ecx, DWORD PTR [ecx]
$L206913:
  00022	8a 59 15	 mov	 bl, BYTE PTR [ecx+21]
  00025	84 db		 test	 bl, bl
  00027	74 eb		 je	 SHORT $L206910
  00029	5b		 pop	 ebx
$L206911:

; 998  : 				}
; 999  : 
; 1000 : 		return (_Wherenode);	// return best remembered candidate
; 1001 : 		}

  0002a	c2 04 00	 ret	 4
?_Lbound@?$_Tree@V?$_Tmap_traits@KJU?$less@K@std@@V?$allocator@U?$pair@$$CBKJ@std@@@2@$0A@@std@@@std@@IBEPAU_Node@?$_Tree_nod@V?$_Tmap_traits@KJU?$less@K@std@@V?$allocator@U?$pair@$$CBKJ@std@@@2@$0A@@std@@@2@ABK@Z ENDP ; std::_Tree<std::_Tmap_traits<unsigned long,long,std::less<unsigned long>,std::allocator<std::pair<unsigned long const ,long> >,0> >::_Lbound
_TEXT	ENDS
PUBLIC	?destroy@?$allocator@PAU_Node@?$_Tree_nod@V?$_Tmap_traits@KJU?$less@K@std@@V?$allocator@U?$pair@$$CBKJ@std@@@2@$0A@@std@@@std@@@std@@QAEXPAPAU_Node@?$_Tree_nod@V?$_Tmap_traits@KJU?$less@K@std@@V?$allocator@U?$pair@$$CBKJ@std@@@2@$0A@@std@@@2@@Z ; std::allocator<std::_Tree_nod<std::_Tmap_traits<unsigned long,long,std::less<unsigned long>,std::allocator<std::pair<unsigned long const ,long> >,0> >::_Node *>::destroy
; Function compile flags: /Ogty
; File c:\program files\microsoft visual studio .net 2003\vc7\include\xmemory
;	COMDAT ?destroy@?$allocator@PAU_Node@?$_Tree_nod@V?$_Tmap_traits@KJU?$less@K@std@@V?$allocator@U?$pair@$$CBKJ@std@@@2@$0A@@std@@@std@@@std@@QAEXPAPAU_Node@?$_Tree_nod@V?$_Tmap_traits@KJU?$less@K@std@@V?$allocator@U?$pair@$$CBKJ@std@@@2@$0A@@std@@@2@@Z
_TEXT	SEGMENT
__Ptr$ = 8						; size = 4
?destroy@?$allocator@PAU_Node@?$_Tree_nod@V?$_Tmap_traits@KJU?$less@K@std@@V?$allocator@U?$pair@$$CBKJ@std@@@2@$0A@@std@@@std@@@std@@QAEXPAPAU_Node@?$_Tree_nod@V?$_Tmap_traits@KJU?$less@K@std@@V?$allocator@U?$pair@$$CBKJ@std@@@2@$0A@@std@@@2@@Z PROC NEAR ; std::allocator<std::_Tree_nod<std::_Tmap_traits<unsigned long,long,std::less<unsigned long>,std::allocator<std::pair<unsigned long const ,long> >,0> >::_Node *>::destroy, COMDAT
; _this$ = ecx

; 152  : 		_Destroy(_Ptr);
; 153  : 		}

  00000	c2 04 00	 ret	 4
?destroy@?$allocator@PAU_Node@?$_Tree_nod@V?$_Tmap_traits@KJU?$less@K@std@@V?$allocator@U?$pair@$$CBKJ@std@@@2@$0A@@std@@@std@@@std@@QAEXPAPAU_Node@?$_Tree_nod@V?$_Tmap_traits@KJU?$less@K@std@@V?$allocator@U?$pair@$$CBKJ@std@@@2@$0A@@std@@@2@@Z ENDP ; std::allocator<std::_Tree_nod<std::_Tmap_traits<unsigned long,long,std::less<unsigned long>,std::allocator<std::pair<unsigned long const ,long> >,0> >::_Node *>::destroy
_TEXT	ENDS
PUBLIC	??Fconst_iterator@?$_Tree@V?$_Tmap_traits@KJU?$less@K@std@@V?$allocator@U?$pair@$$CBKJ@std@@@2@$0A@@std@@@std@@QAEAAV012@XZ ; std::_Tree<std::_Tmap_traits<unsigned long,long,std::less<unsigned long>,std::allocator<std::pair<unsigned long const ,long> >,0> >::const_iterator::operator--
; Function compile flags: /Ogty
; File c:\program files\microsoft visual studio .net 2003\vc7\include\xtree
;	COMDAT ??Fconst_iterator@?$_Tree@V?$_Tmap_traits@KJU?$less@K@std@@V?$allocator@U?$pair@$$CBKJ@std@@@2@$0A@@std@@@std@@QAEAAV012@XZ
_TEXT	SEGMENT
??Fconst_iterator@?$_Tree@V?$_Tmap_traits@KJU?$less@K@std@@V?$allocator@U?$pair@$$CBKJ@std@@@2@$0A@@std@@@std@@QAEAAV012@XZ PROC NEAR ; std::_Tree<std::_Tmap_traits<unsigned long,long,std::less<unsigned long>,std::allocator<std::pair<unsigned long const ,long> >,0> >::const_iterator::operator--, COMDAT
; _this$ = ecx

; 227  : 			{	// predecrement

  00000	56		 push	 esi
  00001	8b f1		 mov	 esi, ecx

; 228  : 			_Dec();

  00003	e8 00 00 00 00	 call	 ?_Dec@const_iterator@?$_Tree@V?$_Tmap_traits@KJU?$less@K@std@@V?$allocator@U?$pair@$$CBKJ@std@@@2@$0A@@std@@@std@@QAEXXZ ; std::_Tree<std::_Tmap_traits<unsigned long,long,std::less<unsigned long>,std::allocator<std::pair<unsigned long const ,long> >,0> >::const_iterator::_Dec

; 229  : 			return (*this);

  00008	8b c6		 mov	 eax, esi
  0000a	5e		 pop	 esi

; 230  : 			}

  0000b	c3		 ret	 0
??Fconst_iterator@?$_Tree@V?$_Tmap_traits@KJU?$less@K@std@@V?$allocator@U?$pair@$$CBKJ@std@@@2@$0A@@std@@@std@@QAEAAV012@XZ ENDP ; std::_Tree<std::_Tmap_traits<unsigned long,long,std::less<unsigned long>,std::allocator<std::pair<unsigned long const ,long> >,0> >::const_iterator::operator--
_TEXT	ENDS
PUBLIC	??0iterator@?$vector@U_COUPLE_ITEM@@V?$allocator@U_COUPLE_ITEM@@@std@@@std@@QAE@PAU_COUPLE_ITEM@@@Z ; std::vector<_COUPLE_ITEM,std::allocator<_COUPLE_ITEM> >::iterator::iterator
; Function compile flags: /Ogty
; File c:\program files\microsoft visual studio .net 2003\vc7\include\vector
;	COMDAT ??0iterator@?$vector@U_COUPLE_ITEM@@V?$allocator@U_COUPLE_ITEM@@@std@@@std@@QAE@PAU_COUPLE_ITEM@@@Z
_TEXT	SEGMENT
__Ptr$ = 8						; size = 4
??0iterator@?$vector@U_COUPLE_ITEM@@V?$allocator@U_COUPLE_ITEM@@@std@@@std@@QAE@PAU_COUPLE_ITEM@@@Z PROC NEAR ; std::vector<_COUPLE_ITEM,std::allocator<_COUPLE_ITEM> >::iterator::iterator, COMDAT
; _this$ = ecx

; 215  : 			{	// construct with pointer _Ptr

  00000	8b c1		 mov	 eax, ecx
  00002	8b 4c 24 04	 mov	 ecx, DWORD PTR __Ptr$[esp-4]
  00006	89 08		 mov	 DWORD PTR [eax], ecx

; 216  : 			}

  00008	c2 04 00	 ret	 4
??0iterator@?$vector@U_COUPLE_ITEM@@V?$allocator@U_COUPLE_ITEM@@@std@@@std@@QAE@PAU_COUPLE_ITEM@@@Z ENDP ; std::vector<_COUPLE_ITEM,std::allocator<_COUPLE_ITEM> >::iterator::iterator
_TEXT	ENDS
PUBLIC	?allocate@?$allocator@U_Node@?$_Tree_nod@V?$_Tmap_traits@KJU?$less@K@std@@V?$allocator@U?$pair@$$CBKJ@std@@@2@$0A@@std@@@std@@@std@@QAEPAU_Node@?$_Tree_nod@V?$_Tmap_traits@KJU?$less@K@std@@V?$allocator@U?$pair@$$CBKJ@std@@@2@$0A@@std@@@2@I@Z ; std::allocator<std::_Tree_nod<std::_Tmap_traits<unsigned long,long,std::less<unsigned long>,std::allocator<std::pair<unsigned long const ,long> >,0> >::_Node>::allocate
; Function compile flags: /Ogty
; File c:\program files\microsoft visual studio .net 2003\vc7\include\xmemory
;	COMDAT ?allocate@?$allocator@U_Node@?$_Tree_nod@V?$_Tmap_traits@KJU?$less@K@std@@V?$allocator@U?$pair@$$CBKJ@std@@@2@$0A@@std@@@std@@@std@@QAEPAU_Node@?$_Tree_nod@V?$_Tmap_traits@KJU?$less@K@std@@V?$allocator@U?$pair@$$CBKJ@std@@@2@$0A@@std@@@2@I@Z
_TEXT	SEGMENT
__Count$ = 8						; size = 4
?allocate@?$allocator@U_Node@?$_Tree_nod@V?$_Tmap_traits@KJU?$less@K@std@@V?$allocator@U?$pair@$$CBKJ@std@@@2@$0A@@std@@@std@@@std@@QAEPAU_Node@?$_Tree_nod@V?$_Tmap_traits@KJU?$less@K@std@@V?$allocator@U?$pair@$$CBKJ@std@@@2@$0A@@std@@@2@I@Z PROC NEAR ; std::allocator<std::_Tree_nod<std::_Tmap_traits<unsigned long,long,std::less<unsigned long>,std::allocator<std::pair<unsigned long const ,long> >,0> >::_Node>::allocate, COMDAT
; _this$ = ecx

; 137  : 		return (_Allocate(_Count, (pointer)0));

  00000	8b 44 24 04	 mov	 eax, DWORD PTR __Count$[esp-4]
  00004	8d 04 40	 lea	 eax, DWORD PTR [eax+eax*2]
  00007	c1 e0 03	 shl	 eax, 3
  0000a	50		 push	 eax
  0000b	e8 00 00 00 00	 call	 ??2@YAPAXI@Z		; operator new
  00010	83 c4 04	 add	 esp, 4

; 138  : 		}

  00013	c2 04 00	 ret	 4
?allocate@?$allocator@U_Node@?$_Tree_nod@V?$_Tmap_traits@KJU?$less@K@std@@V?$allocator@U?$pair@$$CBKJ@std@@@2@$0A@@std@@@std@@@std@@QAEPAU_Node@?$_Tree_nod@V?$_Tmap_traits@KJU?$less@K@std@@V?$allocator@U?$pair@$$CBKJ@std@@@2@$0A@@std@@@2@I@Z ENDP ; std::allocator<std::_Tree_nod<std::_Tmap_traits<unsigned long,long,std::less<unsigned long>,std::allocator<std::pair<unsigned long const ,long> >,0> >::_Node>::allocate
_TEXT	ENDS
PUBLIC	??0?$_Tree_nod@V?$_Tmap_traits@KJU?$less@K@std@@V?$allocator@U?$pair@$$CBKJ@std@@@2@$0A@@std@@@std@@IAE@ABU?$less@K@1@V?$allocator@U?$pair@$$CBKJ@std@@@1@@Z ; std::_Tree_nod<std::_Tmap_traits<unsigned long,long,std::less<unsigned long>,std::allocator<std::pair<unsigned long const ,long> >,0> >::_Tree_nod<std::_Tmap_traits<unsigned long,long,std::less<unsigned long>,std::allocator<std::pair<unsigned long const ,long> >,0> >
; Function compile flags: /Ogty
; File c:\program files\microsoft visual studio .net 2003\vc7\include\xtree
;	COMDAT ??0?$_Tree_nod@V?$_Tmap_traits@KJU?$less@K@std@@V?$allocator@U?$pair@$$CBKJ@std@@@2@$0A@@std@@@std@@IAE@ABU?$less@K@1@V?$allocator@U?$pair@$$CBKJ@std@@@1@@Z
_TEXT	SEGMENT
__Parg$ = 8						; size = 4
__Al$ = 12						; size = 1
??0?$_Tree_nod@V?$_Tmap_traits@KJU?$less@K@std@@V?$allocator@U?$pair@$$CBKJ@std@@@2@$0A@@std@@@std@@IAE@ABU?$less@K@1@V?$allocator@U?$pair@$$CBKJ@std@@@1@@Z PROC NEAR ; std::_Tree_nod<std::_Tmap_traits<unsigned long,long,std::less<unsigned long>,std::allocator<std::pair<unsigned long const ,long> >,0> >::_Tree_nod<std::_Tmap_traits<unsigned long,long,std::less<unsigned long>,std::allocator<std::pair<unsigned long const ,long> >,0> >, COMDAT
; _this$ = ecx

; 54   : 		{	// construct traits from _Parg and allocator from _Al

  00000	8b c1		 mov	 eax, ecx

; 55   : 		}

  00002	c2 08 00	 ret	 8
??0?$_Tree_nod@V?$_Tmap_traits@KJU?$less@K@std@@V?$allocator@U?$pair@$$CBKJ@std@@@2@$0A@@std@@@std@@IAE@ABU?$less@K@1@V?$allocator@U?$pair@$$CBKJ@std@@@1@@Z ENDP ; std::_Tree_nod<std::_Tmap_traits<unsigned long,long,std::less<unsigned long>,std::allocator<std::pair<unsigned long const ,long> >,0> >::_Tree_nod<std::_Tmap_traits<unsigned long,long,std::less<unsigned long>,std::allocator<std::pair<unsigned long const ,long> >,0> >
_TEXT	ENDS
PUBLIC	?construct@?$allocator@PAU_Node@?$_Tree_nod@V?$_Tmap_traits@KJU?$less@K@std@@V?$allocator@U?$pair@$$CBKJ@std@@@2@$0A@@std@@@std@@@std@@QAEXPAPAU_Node@?$_Tree_nod@V?$_Tmap_traits@KJU?$less@K@std@@V?$allocator@U?$pair@$$CBKJ@std@@@2@$0A@@std@@@2@ABQAU342@@Z ; std::allocator<std::_Tree_nod<std::_Tmap_traits<unsigned long,long,std::less<unsigned long>,std::allocator<std::pair<unsigned long const ,long> >,0> >::_Node *>::construct
; Function compile flags: /Ogty
; File c:\program files\microsoft visual studio .net 2003\vc7\include\xmemory
;	COMDAT ?construct@?$allocator@PAU_Node@?$_Tree_nod@V?$_Tmap_traits@KJU?$less@K@std@@V?$allocator@U?$pair@$$CBKJ@std@@@2@$0A@@std@@@std@@@std@@QAEXPAPAU_Node@?$_Tree_nod@V?$_Tmap_traits@KJU?$less@K@std@@V?$allocator@U?$pair@$$CBKJ@std@@@2@$0A@@std@@@2@ABQAU342@@Z
_TEXT	SEGMENT
__Ptr$ = 8						; size = 4
__Val$ = 12						; size = 4
?construct@?$allocator@PAU_Node@?$_Tree_nod@V?$_Tmap_traits@KJU?$less@K@std@@V?$allocator@U?$pair@$$CBKJ@std@@@2@$0A@@std@@@std@@@std@@QAEXPAPAU_Node@?$_Tree_nod@V?$_Tmap_traits@KJU?$less@K@std@@V?$allocator@U?$pair@$$CBKJ@std@@@2@$0A@@std@@@2@ABQAU342@@Z PROC NEAR ; std::allocator<std::_Tree_nod<std::_Tmap_traits<unsigned long,long,std::less<unsigned long>,std::allocator<std::pair<unsigned long const ,long> >,0> >::_Node *>::construct, COMDAT
; _this$ = ecx

; 147  : 		_Construct(_Ptr, _Val);

  00000	8b 44 24 04	 mov	 eax, DWORD PTR __Ptr$[esp-4]
  00004	85 c0		 test	 eax, eax
  00006	74 08		 je	 SHORT $L208508
  00008	8b 4c 24 08	 mov	 ecx, DWORD PTR __Val$[esp-4]
  0000c	8b 11		 mov	 edx, DWORD PTR [ecx]
  0000e	89 10		 mov	 DWORD PTR [eax], edx
$L208508:

; 148  : 		}

  00010	c2 08 00	 ret	 8
?construct@?$allocator@PAU_Node@?$_Tree_nod@V?$_Tmap_traits@KJU?$less@K@std@@V?$allocator@U?$pair@$$CBKJ@std@@@2@$0A@@std@@@std@@@std@@QAEXPAPAU_Node@?$_Tree_nod@V?$_Tmap_traits@KJU?$less@K@std@@V?$allocator@U?$pair@$$CBKJ@std@@@2@$0A@@std@@@2@ABQAU342@@Z ENDP ; std::allocator<std::_Tree_nod<std::_Tmap_traits<unsigned long,long,std::less<unsigned long>,std::allocator<std::pair<unsigned long const ,long> >,0> >::_Node *>::construct
_TEXT	ENDS
PUBLIC	?GetText@CProject@@QAEPBDK@Z			; CProject::GetText
PUBLIC	??_C@_00CNPNBAHC@?$AA@				; `string'
;	COMDAT ??_C@_00CNPNBAHC@?$AA@
; File c:\documents and settings\test\mes documents\source\virtuos_v17\build\program\_common\data.h
CONST	SEGMENT
??_C@_00CNPNBAHC@?$AA@ DB 00H				; `string'
; Function compile flags: /Ogty
; File c:\documents and settings\test\mes documents\source\virtuos_v17\build\program\databaseserver\project.h
CONST	ENDS
;	COMDAT ?GetText@CProject@@QAEPBDK@Z
_TEXT	SEGMENT
_dwIndex$ = 8						; size = 4
?GetText@CProject@@QAEPBDK@Z PROC NEAR			; CProject::GetText, COMDAT
; _this$ = ecx

; 184  : 		if( m_colorText.GetAt( dwIndex ) == NULL )

  00000	8b 44 24 04	 mov	 eax, DWORD PTR _dwIndex$[esp-4]
  00004	3b 41 7c	 cmp	 eax, DWORD PTR [ecx+124]
  00007	73 0a		 jae	 SHORT $L208526
  00009	8b 51 6c	 mov	 edx, DWORD PTR [ecx+108]
  0000c	8b 14 82	 mov	 edx, DWORD PTR [edx+eax*4]
  0000f	85 d2		 test	 edx, edx
  00011	75 08		 jne	 SHORT $L156726
$L208526:

; 185  : 			return "";

  00013	b8 00 00 00 00	 mov	 eax, OFFSET FLAT:??_C@_00CNPNBAHC@?$AA@

; 187  : 	}

  00018	c2 04 00	 ret	 4
$L156726:

; 186  : 		return m_colorText.GetAt( dwIndex )->lpszData; 

  0001b	3b 41 7c	 cmp	 eax, DWORD PTR [ecx+124]
  0001e	72 08		 jb	 SHORT $L208523
  00020	33 c0		 xor	 eax, eax
  00022	8b 40 04	 mov	 eax, DWORD PTR [eax+4]

; 187  : 	}

  00025	c2 04 00	 ret	 4

; 186  : 		return m_colorText.GetAt( dwIndex )->lpszData; 

$L208523:
  00028	8b 49 6c	 mov	 ecx, DWORD PTR [ecx+108]
  0002b	8b 04 81	 mov	 eax, DWORD PTR [ecx+eax*4]
  0002e	8b 40 04	 mov	 eax, DWORD PTR [eax+4]

; 187  : 	}

  00031	c2 04 00	 ret	 4
?GetText@CProject@@QAEPBDK@Z ENDP			; CProject::GetText
_TEXT	ENDS
PUBLIC	??5CAr@@QAEAAV0@AAH@Z				; CAr::operator>>
; Function compile flags: /Ogty
; File c:\documents and settings\test\mes documents\source\virtuos_v17\build\program\_network\misc\include\ar.h
;	COMDAT ??5CAr@@QAEAAV0@AAH@Z
_TEXT	SEGMENT
_i$ = 8							; size = 4
??5CAr@@QAEAAV0@AAH@Z PROC NEAR				; CAr::operator>>, COMDAT
; _this$ = ecx

; 126  : 	{ return CAr::operator>>((LONG&)i); }

  00000	8b c1		 mov	 eax, ecx
  00002	8b 48 08	 mov	 ecx, DWORD PTR [eax+8]
  00005	56		 push	 esi
  00006	8b 70 0c	 mov	 esi, DWORD PTR [eax+12]
  00009	8d 51 04	 lea	 edx, DWORD PTR [ecx+4]
  0000c	3b d6		 cmp	 edx, esi
  0000e	5e		 pop	 esi
  0000f	77 0f		 ja	 SHORT $L208531
  00011	8b 09		 mov	 ecx, DWORD PTR [ecx]
  00013	8b 54 24 04	 mov	 edx, DWORD PTR _i$[esp-4]
  00017	89 0a		 mov	 DWORD PTR [edx], ecx
  00019	83 40 08 04	 add	 DWORD PTR [eax+8], 4
  0001d	c2 04 00	 ret	 4
$L208531:
  00020	8b 4c 24 04	 mov	 ecx, DWORD PTR _i$[esp-4]
  00024	c7 01 00 00 00
	00		 mov	 DWORD PTR [ecx], 0
  0002a	8b 50 0c	 mov	 edx, DWORD PTR [eax+12]
  0002d	89 50 08	 mov	 DWORD PTR [eax+8], edx
  00030	c2 04 00	 ret	 4
??5CAr@@QAEAAV0@AAH@Z ENDP				; CAr::operator>>
_TEXT	ENDS
PUBLIC	??0?$_String_val@DV?$allocator@D@std@@@std@@IAE@V?$allocator@D@1@@Z ; std::_String_val<char,std::allocator<char> >::_String_val<char,std::allocator<char> >
; Function compile flags: /Ogty
; File c:\program files\microsoft visual studio .net 2003\vc7\include\xstring
;	COMDAT ??0?$_String_val@DV?$allocator@D@std@@@std@@IAE@V?$allocator@D@1@@Z
_TEXT	SEGMENT
__Al$ = 8						; size = 1
??0?$_String_val@DV?$allocator@D@std@@@std@@IAE@V?$allocator@D@1@@Z PROC NEAR ; std::_String_val<char,std::allocator<char> >::_String_val<char,std::allocator<char> >, COMDAT
; _this$ = ecx

; 34   : 		{	// construct allocator from _Al

  00000	8b c1		 mov	 eax, ecx

; 35   : 		}

  00002	c2 04 00	 ret	 4
??0?$_String_val@DV?$allocator@D@std@@@std@@IAE@V?$allocator@D@1@@Z ENDP ; std::_String_val<char,std::allocator<char> >::_String_val<char,std::allocator<char> >
_TEXT	ENDS
PUBLIC	?_Eos@?$basic_string@DU?$char_traits@D@std@@V?$allocator@D@2@@std@@IAEXI@Z ; std::basic_string<char,std::char_traits<char>,std::allocator<char> >::_Eos
; Function compile flags: /Ogty
;	COMDAT ?_Eos@?$basic_string@DU?$char_traits@D@std@@V?$allocator@D@2@@std@@IAEXI@Z
_TEXT	SEGMENT
__Newsize$ = 8						; size = 4
?_Eos@?$basic_string@DU?$char_traits@D@std@@V?$allocator@D@2@@std@@IAEXI@Z PROC NEAR ; std::basic_string<char,std::char_traits<char>,std::allocator<char> >::_Eos, COMDAT
; _this$ = ecx

; 1475 : 		_Traits::assign(_Myptr()[_Mysize = _Newsize], _Elem());

  00000	83 79 18 10	 cmp	 DWORD PTR [ecx+24], 16	; 00000010H
  00004	8b 44 24 04	 mov	 eax, DWORD PTR __Newsize$[esp-4]
  00008	89 41 14	 mov	 DWORD PTR [ecx+20], eax
  0000b	72 0a		 jb	 SHORT $L208546
  0000d	8b 49 04	 mov	 ecx, DWORD PTR [ecx+4]
  00010	c6 04 01 00	 mov	 BYTE PTR [ecx+eax], 0

; 1476 : 		}

  00014	c2 04 00	 ret	 4

; 1475 : 		_Traits::assign(_Myptr()[_Mysize = _Newsize], _Elem());

$L208546:
  00017	c6 44 01 04 00	 mov	 BYTE PTR [ecx+eax+4], 0

; 1476 : 		}

  0001c	c2 04 00	 ret	 4
?_Eos@?$basic_string@DU?$char_traits@D@std@@V?$allocator@D@2@@std@@IAEXI@Z ENDP ; std::basic_string<char,std::char_traits<char>,std::allocator<char> >::_Eos
_TEXT	ENDS
PUBLIC	?max_size@?$basic_string@DU?$char_traits@D@std@@V?$allocator@D@2@@std@@QBEIXZ ; std::basic_string<char,std::char_traits<char>,std::allocator<char> >::max_size
; Function compile flags: /Ogty
;	COMDAT ?max_size@?$basic_string@DU?$char_traits@D@std@@V?$allocator@D@2@@std@@QBEIXZ
_TEXT	SEGMENT
?max_size@?$basic_string@DU?$char_traits@D@std@@V?$allocator@D@2@@std@@QBEIXZ PROC NEAR ; std::basic_string<char,std::char_traits<char>,std::allocator<char> >::max_size, COMDAT
; _this$ = ecx

; 1114 : 		size_type _Num = _Mybase::_Alval.max_size();
; 1115 : 		return (_Num <= 1 ? 1 : _Num - 1);

  00000	b8 fe ff ff ff	 mov	 eax, -2			; fffffffeH

; 1116 : 		}

  00005	c3		 ret	 0
?max_size@?$basic_string@DU?$char_traits@D@std@@V?$allocator@D@2@@std@@QBEIXZ ENDP ; std::basic_string<char,std::char_traits<char>,std::allocator<char> >::max_size
_TEXT	ENDS
PUBLIC	?allocate@?$allocator@D@std@@QAEPADI@Z		; std::allocator<char>::allocate
; Function compile flags: /Ogty
; File c:\program files\microsoft visual studio .net 2003\vc7\include\xmemory
;	COMDAT ?allocate@?$allocator@D@std@@QAEPADI@Z
_TEXT	SEGMENT
__Count$ = 8						; size = 4
?allocate@?$allocator@D@std@@QAEPADI@Z PROC NEAR	; std::allocator<char>::allocate, COMDAT
; _this$ = ecx

; 137  : 		return (_Allocate(_Count, (pointer)0));

  00000	8b 44 24 04	 mov	 eax, DWORD PTR __Count$[esp-4]
  00004	50		 push	 eax
  00005	e8 00 00 00 00	 call	 ??2@YAPAXI@Z		; operator new
  0000a	83 c4 04	 add	 esp, 4

; 138  : 		}

  0000d	c2 04 00	 ret	 4
?allocate@?$allocator@D@std@@QAEPADI@Z ENDP		; std::allocator<char>::allocate
_TEXT	ENDS
PUBLIC	?PostItem@CCoupleHelper@@QAEXKABU_COUPLE_ITEM@@H@Z ; CCoupleHelper::PostItem
EXTRN	_sprintf:NEAR
EXTRN	??0CMail@@QAE@XZ:NEAR				; CMail::CMail
EXTRN	??0CItemElem@@QAE@XZ:NEAR			; CItemElem::CItemElem
EXTRN	?Post@post@@YAXKPAVCMail@@PAVCQuery@@@Z:NEAR	; post::Post
EXTRN	?prj@@3VCProject@@A:BYTE			; prj
;	COMDAT xdata$x
; File c:\documents and settings\test\mes documents\source\virtuos_v17\build\program\databaseserver\dbcontroller.h
xdata$x	SEGMENT
$T208651 DD	0ffffffffH
	DD	FLAT:$L208579
	DD	0ffffffffH
	DD	FLAT:$L208580
$T208647 DD	019930520H
	DD	02H
	DD	FLAT:$T208651
	DD	2 DUP(00H)
	DD	2 DUP(00H)
; Function compile flags: /Ogty
; File c:\documents and settings\test\mes documents\source\virtuos_v17\build\program\databaseserver\couplehelper.cpp
xdata$x	ENDS
;	COMDAT ?PostItem@CCoupleHelper@@QAEXKABU_COUPLE_ITEM@@H@Z
_TEXT	SEGMENT
$T208572 = -16						; size = 4
__$EHRec$ = -12						; size = 12
_idPlayer$ = 8						; size = 4
_ci$ = 12						; size = 4
$T208576 = 16						; size = 4
_nLevel$ = 16						; size = 4
?PostItem@CCoupleHelper@@QAEXKABU_COUPLE_ITEM@@H@Z PROC NEAR ; CCoupleHelper::PostItem, COMDAT
; _this$ = ecx

; 243  : {

  00000	6a ff		 push	 -1
  00002	68 00 00 00 00	 push	 __ehhandler$?PostItem@CCoupleHelper@@QAEXKABU_COUPLE_ITEM@@H@Z
  00007	64 a1 00 00 00
	00		 mov	 eax, DWORD PTR fs:__except_list
  0000d	50		 push	 eax
  0000e	64 89 25 00 00
	00 00		 mov	 DWORD PTR fs:__except_list, esp
  00015	51		 push	 ecx
  00016	55		 push	 ebp
  00017	56		 push	 esi
  00018	57		 push	 edi

; 244  : 	CMail* pMail	= new CMail;

  00019	68 40 01 00 00	 push	 320			; 00000140H
  0001e	8b e9		 mov	 ebp, ecx
  00020	e8 00 00 00 00	 call	 ??2@YAPAXI@Z		; operator new
  00025	83 c4 04	 add	 esp, 4
  00028	89 44 24 0c	 mov	 DWORD PTR $T208572[esp+28], eax
  0002c	85 c0		 test	 eax, eax
  0002e	c7 44 24 18 00
	00 00 00	 mov	 DWORD PTR __$EHRec$[esp+36], 0
  00036	74 0b		 je	 SHORT $L208573
  00038	8b c8		 mov	 ecx, eax
  0003a	e8 00 00 00 00	 call	 ??0CMail@@QAE@XZ	; CMail::CMail
  0003f	8b f0		 mov	 esi, eax
  00041	eb 02		 jmp	 SHORT $L208574
$L208573:
  00043	33 f6		 xor	 esi, esi
$L208574:
  00045	83 cf ff	 or	 edi, -1

; 245  : 	pMail->m_tmCreate	= ::time_null();

  00048	6a 00		 push	 0
  0004a	89 7c 24 1c	 mov	 DWORD PTR __$EHRec$[esp+40], edi
  0004e	e8 00 00 00 00	 call	 _time
  00053	89 46 14	 mov	 DWORD PTR [esi+20], eax

; 246  : 	pMail->m_idSender	= 0;	//

  00056	c7 46 08 00 00
	00 00		 mov	 DWORD PTR [esi+8], 0

; 247  : 	sprintf( pMail->m_szTitle, prj.GetText( TID_GAME_COUPLE_ITEM_MAIL_TITLE ) );

  0005d	a1 7c 00 00 00	 mov	 eax, DWORD PTR ?prj@@3VCProject@@A+124
  00062	83 c4 04	 add	 esp, 4
  00065	3d fc 0f 00 00	 cmp	 eax, 4092		; 00000ffcH
  0006a	76 10		 jbe	 SHORT $L208648
  0006c	8b 0d 6c 00 00
	00		 mov	 ecx, DWORD PTR ?prj@@3VCProject@@A+108
  00072	8b 91 f0 3f 00
	00		 mov	 edx, DWORD PTR [ecx+16368]
  00078	85 d2		 test	 edx, edx
  0007a	75 07		 jne	 SHORT $L208598
$L208648:
  0007c	b8 00 00 00 00	 mov	 eax, OFFSET FLAT:??_C@_00CNPNBAHC@?$AA@
  00081	eb 14		 jmp	 SHORT $L208597
$L208598:
  00083	3d fc 0f 00 00	 cmp	 eax, 4092		; 00000ffcH
  00088	77 04		 ja	 SHORT $L208605
  0008a	33 c0		 xor	 eax, eax
  0008c	eb 06		 jmp	 SHORT $L208604
$L208605:
  0008e	8b 81 f0 3f 00
	00		 mov	 eax, DWORD PTR [ecx+16368]
$L208604:
  00094	8b 40 04	 mov	 eax, DWORD PTR [eax+4]
$L208597:
  00097	50		 push	 eax
  00098	8d 46 19	 lea	 eax, DWORD PTR [esi+25]
  0009b	50		 push	 eax
  0009c	e8 00 00 00 00	 call	 _sprintf

; 248  : 	sprintf( pMail->m_szText, prj.GetText( TID_GAME_COUPLE_ITEM_MAIL_TEXT ), nLevel );

  000a1	a1 7c 00 00 00	 mov	 eax, DWORD PTR ?prj@@3VCProject@@A+124
  000a6	83 c4 08	 add	 esp, 8
  000a9	3d fd 0f 00 00	 cmp	 eax, 4093		; 00000ffdH
  000ae	76 10		 jbe	 SHORT $L208649
  000b0	8b 0d 6c 00 00
	00		 mov	 ecx, DWORD PTR ?prj@@3VCProject@@A+108
  000b6	8b 91 f4 3f 00
	00		 mov	 edx, DWORD PTR [ecx+16372]
  000bc	85 d2		 test	 edx, edx
  000be	75 07		 jne	 SHORT $L208621
$L208649:
  000c0	b8 00 00 00 00	 mov	 eax, OFFSET FLAT:??_C@_00CNPNBAHC@?$AA@
  000c5	eb 14		 jmp	 SHORT $L208620
$L208621:
  000c7	3d fd 0f 00 00	 cmp	 eax, 4093		; 00000ffdH
  000cc	77 04		 ja	 SHORT $L208628
  000ce	33 c0		 xor	 eax, eax
  000d0	eb 06		 jmp	 SHORT $L208627
$L208628:
  000d2	8b 81 f4 3f 00
	00		 mov	 eax, DWORD PTR [ecx+16372]
$L208627:
  000d8	8b 40 04	 mov	 eax, DWORD PTR [eax+4]
$L208620:
  000db	8b 4c 24 28	 mov	 ecx, DWORD PTR _nLevel$[esp+24]
  000df	51		 push	 ecx
  000e0	50		 push	 eax
  000e1	8d 56 39	 lea	 edx, DWORD PTR [esi+57]
  000e4	52		 push	 edx
  000e5	e8 00 00 00 00	 call	 _sprintf

; 249  : 	pMail->m_pItemElem	= new CItemElem;

  000ea	68 a0 00 00 00	 push	 160			; 000000a0H
  000ef	e8 00 00 00 00	 call	 ??2@YAPAXI@Z		; operator new
  000f4	83 c4 10	 add	 esp, 16			; 00000010H
  000f7	89 44 24 28	 mov	 DWORD PTR $T208576[esp+24], eax
  000fb	85 c0		 test	 eax, eax
  000fd	c7 44 24 18 01
	00 00 00	 mov	 DWORD PTR __$EHRec$[esp+36], 1
  00105	74 09		 je	 SHORT $L208577
  00107	8b c8		 mov	 ecx, eax
  00109	e8 00 00 00 00	 call	 ??0CItemElem@@QAE@XZ	; CItemElem::CItemElem
  0010e	eb 02		 jmp	 SHORT $L208578
$L208577:
  00110	33 c0		 xor	 eax, eax
$L208578:
  00112	89 46 0c	 mov	 DWORD PTR [esi+12], eax
  00115	89 7c 24 18	 mov	 DWORD PTR __$EHRec$[esp+36], edi

; 250  : 	pMail->m_pItemElem->m_dwItemId	= ci.nItem;

  00119	8b 7c 24 24	 mov	 edi, DWORD PTR _ci$[esp+24]
  0011d	8b 0f		 mov	 ecx, DWORD PTR [edi]
  0011f	89 48 08	 mov	 DWORD PTR [eax+8], ecx

; 251  : 	pMail->m_pItemElem->m_nItemNum	= ci.nNum;

  00122	66 8b 47 10	 mov	 ax, WORD PTR [edi+16]
  00126	8b 56 0c	 mov	 edx, DWORD PTR [esi+12]
  00129	66 89 42 72	 mov	 WORD PTR [edx+114], ax

; 252  : 	pMail->m_pItemElem->m_dwKeepTime	=	0;

  0012d	8b 4e 0c	 mov	 ecx, DWORD PTR [esi+12]
  00130	c7 81 8c 00 00
	00 00 00 00 00	 mov	 DWORD PTR [ecx+140], 0

; 253  : 	if( ci.nLife > 0 )

  0013a	8b 47 0c	 mov	 eax, DWORD PTR [edi+12]
  0013d	85 c0		 test	 eax, eax
  0013f	7e 1b		 jle	 SHORT $L206179

; 254  : 		pMail->m_pItemElem->m_dwKeepTime	= ::time_null() + ci.nLife * 60;	// ci.nLife(: )

  00141	6a 00		 push	 0
  00143	e8 00 00 00 00	 call	 _time
  00148	8b 57 0c	 mov	 edx, DWORD PTR [edi+12]
  0014b	6b d2 3c	 imul	 edx, 60			; 0000003cH
  0014e	83 c4 04	 add	 esp, 4
  00151	03 d0		 add	 edx, eax
  00153	8b 46 0c	 mov	 eax, DWORD PTR [esi+12]
  00156	89 90 8c 00 00
	00		 mov	 DWORD PTR [eax+140], edx
$L206179:

; 255  : 	pMail->m_pItemElem->m_byFlag	= static_cast<BYTE>( ci.nFlags );

  0015c	8b 4e 0c	 mov	 ecx, DWORD PTR [esi+12]
  0015f	8a 57 08	 mov	 dl, BYTE PTR [edi+8]
  00162	88 51 71	 mov	 BYTE PTR [ecx+113], dl

; 256  : 	pMail->m_pItemElem->SetSerialNumber( xRand() );

  00165	a1 00 00 00 00	 mov	 eax, DWORD PTR ?g_next@@3KA ; g_next
  0016a	69 c0 6d 4e c6
	41		 imul	 eax, 1103515245		; 41c64e6dH
  00170	05 39 30 00 00	 add	 eax, 12345		; 00003039H
  00175	a3 00 00 00 00	 mov	 DWORD PTR ?g_next@@3KA, eax ; g_next
  0017a	8b 4e 0c	 mov	 ecx, DWORD PTR [esi+12]
  0017d	89 41 30	 mov	 DWORD PTR [ecx+48], eax

; 257  : 	post::Post( idPlayer, pMail, m_pController->GetQueryObject() );

  00180	8b 55 08	 mov	 edx, DWORD PTR [ebp+8]
  00183	8b 42 0c	 mov	 eax, DWORD PTR [edx+12]
  00186	8b 4c 24 20	 mov	 ecx, DWORD PTR _idPlayer$[esp+24]
  0018a	50		 push	 eax
  0018b	56		 push	 esi
  0018c	51		 push	 ecx
  0018d	e8 00 00 00 00	 call	 ?Post@post@@YAXKPAVCMail@@PAVCQuery@@@Z ; post::Post

; 258  : }

  00192	8b 4c 24 1c	 mov	 ecx, DWORD PTR __$EHRec$[esp+40]
  00196	83 c4 0c	 add	 esp, 12			; 0000000cH
  00199	5f		 pop	 edi
  0019a	5e		 pop	 esi
  0019b	5d		 pop	 ebp
  0019c	64 89 0d 00 00
	00 00		 mov	 DWORD PTR fs:__except_list, ecx
  001a3	83 c4 10	 add	 esp, 16			; 00000010H
  001a6	c2 0c 00	 ret	 12			; 0000000cH
_TEXT	ENDS
;	COMDAT text$x
text$x	SEGMENT
$L208579:
  00000	8b 45 f0	 mov	 eax, DWORD PTR $T208572[ebp]
  00003	50		 push	 eax
  00004	e8 00 00 00 00	 call	 ??3@YAXPAX@Z		; operator delete
  00009	59		 pop	 ecx
  0000a	c3		 ret	 0
$L208580:
  0000b	8b 45 0c	 mov	 eax, DWORD PTR $T208576[ebp-4]
  0000e	50		 push	 eax
  0000f	e8 00 00 00 00	 call	 ??3@YAXPAX@Z		; operator delete
  00014	59		 pop	 ecx
  00015	c3		 ret	 0
__ehhandler$?PostItem@CCoupleHelper@@QAEXKABU_COUPLE_ITEM@@H@Z:
  00016	b8 00 00 00 00	 mov	 eax, OFFSET FLAT:$T208647
  0001b	e9 00 00 00 00	 jmp	 ___CxxFrameHandler
text$x	ENDS
?PostItem@CCoupleHelper@@QAEXKABU_COUPLE_ITEM@@H@Z ENDP	; CCoupleHelper::PostItem
PUBLIC	?begin@?$_Tree@V?$_Tmap_traits@KJU?$less@K@std@@V?$allocator@U?$pair@$$CBKJ@std@@@2@$0A@@std@@@std@@QAE?AViterator@12@XZ ; std::_Tree<std::_Tmap_traits<unsigned long,long,std::less<unsigned long>,std::allocator<std::pair<unsigned long const ,long> >,0> >::begin
; Function compile flags: /Ogty
; File c:\program files\microsoft visual studio .net 2003\vc7\include\xtree
;	COMDAT ?begin@?$_Tree@V?$_Tmap_traits@KJU?$less@K@std@@V?$allocator@U?$pair@$$CBKJ@std@@@2@$0A@@std@@@std@@QAE?AViterator@12@XZ
_TEXT	SEGMENT
___$ReturnUdt$ = 8					; size = 4
?begin@?$_Tree@V?$_Tmap_traits@KJU?$less@K@std@@V?$allocator@U?$pair@$$CBKJ@std@@@2@$0A@@std@@@std@@QAE?AViterator@12@XZ PROC NEAR ; std::_Tree<std::_Tmap_traits<unsigned long,long,std::less<unsigned long>,std::allocator<std::pair<unsigned long const ,long> >,0> >::begin, COMDAT
; _this$ = ecx

; 408  : 		return (_TREE_ITERATOR(_Lmost()));

  00000	8b 41 04	 mov	 eax, DWORD PTR [ecx+4]
  00003	8b 08		 mov	 ecx, DWORD PTR [eax]
  00005	8b 44 24 04	 mov	 eax, DWORD PTR ___$ReturnUdt$[esp-4]
  00009	89 08		 mov	 DWORD PTR [eax], ecx

; 409  : 		}

  0000b	c2 04 00	 ret	 4
?begin@?$_Tree@V?$_Tmap_traits@KJU?$less@K@std@@V?$allocator@U?$pair@$$CBKJ@std@@@2@$0A@@std@@@std@@QAE?AViterator@12@XZ ENDP ; std::_Tree<std::_Tmap_traits<unsigned long,long,std::less<unsigned long>,std::allocator<std::pair<unsigned long const ,long> >,0> >::begin
_TEXT	ENDS
PUBLIC	?end@?$_Tree@V?$_Tmap_traits@KJU?$less@K@std@@V?$allocator@U?$pair@$$CBKJ@std@@@2@$0A@@std@@@std@@QAE?AViterator@12@XZ ; std::_Tree<std::_Tmap_traits<unsigned long,long,std::less<unsigned long>,std::allocator<std::pair<unsigned long const ,long> >,0> >::end
; Function compile flags: /Ogty
;	COMDAT ?end@?$_Tree@V?$_Tmap_traits@KJU?$less@K@std@@V?$allocator@U?$pair@$$CBKJ@std@@@2@$0A@@std@@@std@@QAE?AViterator@12@XZ
_TEXT	SEGMENT
___$ReturnUdt$ = 8					; size = 4
?end@?$_Tree@V?$_Tmap_traits@KJU?$less@K@std@@V?$allocator@U?$pair@$$CBKJ@std@@@2@$0A@@std@@@std@@QAE?AViterator@12@XZ PROC NEAR ; std::_Tree<std::_Tmap_traits<unsigned long,long,std::less<unsigned long>,std::allocator<std::pair<unsigned long const ,long> >,0> >::end, COMDAT
; _this$ = ecx

; 418  : 		return (_TREE_ITERATOR(_Myhead));

  00000	8b 49 04	 mov	 ecx, DWORD PTR [ecx+4]
  00003	8b 44 24 04	 mov	 eax, DWORD PTR ___$ReturnUdt$[esp-4]
  00007	89 08		 mov	 DWORD PTR [eax], ecx

; 419  : 		}

  00009	c2 04 00	 ret	 4
?end@?$_Tree@V?$_Tmap_traits@KJU?$less@K@std@@V?$allocator@U?$pair@$$CBKJ@std@@@2@$0A@@std@@@std@@QAE?AViterator@12@XZ ENDP ; std::_Tree<std::_Tmap_traits<unsigned long,long,std::less<unsigned long>,std::allocator<std::pair<unsigned long const ,long> >,0> >::end
_TEXT	ENDS
PUBLIC	??Citerator@?$_Tree@V?$_Tmap_traits@KJU?$less@K@std@@V?$allocator@U?$pair@$$CBKJ@std@@@2@$0A@@std@@@std@@QBEPAU?$pair@$$CBKJ@2@XZ ; std::_Tree<std::_Tmap_traits<unsigned long,long,std::less<unsigned long>,std::allocator<std::pair<unsigned long const ,long> >,0> >::iterator::operator->
; Function compile flags: /Ogty
;	COMDAT ??Citerator@?$_Tree@V?$_Tmap_traits@KJU?$less@K@std@@V?$allocator@U?$pair@$$CBKJ@std@@@2@$0A@@std@@@std@@QBEPAU?$pair@$$CBKJ@2@XZ
_TEXT	SEGMENT
??Citerator@?$_Tree@V?$_Tmap_traits@KJU?$less@K@std@@V?$allocator@U?$pair@$$CBKJ@std@@@2@$0A@@std@@@std@@QBEPAU?$pair@$$CBKJ@2@XZ PROC NEAR ; std::_Tree<std::_Tmap_traits<unsigned long,long,std::less<unsigned long>,std::allocator<std::pair<unsigned long const ,long> >,0> >::iterator::operator->, COMDAT
; _this$ = ecx

; 322  : 			return (&**this);

  00000	8b 01		 mov	 eax, DWORD PTR [ecx]
  00002	83 c0 0c	 add	 eax, 12			; 0000000cH

; 323  : 			}

  00005	c3		 ret	 0
??Citerator@?$_Tree@V?$_Tmap_traits@KJU?$less@K@std@@V?$allocator@U?$pair@$$CBKJ@std@@@2@$0A@@std@@@std@@QBEPAU?$pair@$$CBKJ@2@XZ ENDP ; std::_Tree<std::_Tmap_traits<unsigned long,long,std::less<unsigned long>,std::allocator<std::pair<unsigned long const ,long> >,0> >::iterator::operator->
_TEXT	ENDS
PUBLIC	??Eiterator@?$_Tree@V?$_Tmap_traits@KJU?$less@K@std@@V?$allocator@U?$pair@$$CBKJ@std@@@2@$0A@@std@@@std@@QAEAAV012@XZ ; std::_Tree<std::_Tmap_traits<unsigned long,long,std::less<unsigned long>,std::allocator<std::pair<unsigned long const ,long> >,0> >::iterator::operator++
; Function compile flags: /Ogty
;	COMDAT ??Eiterator@?$_Tree@V?$_Tmap_traits@KJU?$less@K@std@@V?$allocator@U?$pair@$$CBKJ@std@@@2@$0A@@std@@@std@@QAEAAV012@XZ
_TEXT	SEGMENT
??Eiterator@?$_Tree@V?$_Tmap_traits@KJU?$less@K@std@@V?$allocator@U?$pair@$$CBKJ@std@@@2@$0A@@std@@@std@@QAEAAV012@XZ PROC NEAR ; std::_Tree<std::_Tmap_traits<unsigned long,long,std::less<unsigned long>,std::allocator<std::pair<unsigned long const ,long> >,0> >::iterator::operator++, COMDAT
; _this$ = ecx

; 326  : 			{	// preincrement

  00000	56		 push	 esi
  00001	8b f1		 mov	 esi, ecx

; 327  : 			++(*(const_iterator *)this);

  00003	e8 00 00 00 00	 call	 ?_Inc@const_iterator@?$_Tree@V?$_Tmap_traits@KJU?$less@K@std@@V?$allocator@U?$pair@$$CBKJ@std@@@2@$0A@@std@@@std@@QAEXXZ ; std::_Tree<std::_Tmap_traits<unsigned long,long,std::less<unsigned long>,std::allocator<std::pair<unsigned long const ,long> >,0> >::const_iterator::_Inc

; 328  : 			return (*this);

  00008	8b c6		 mov	 eax, esi
  0000a	5e		 pop	 esi

; 329  : 			}

  0000b	c3		 ret	 0
??Eiterator@?$_Tree@V?$_Tmap_traits@KJU?$less@K@std@@V?$allocator@U?$pair@$$CBKJ@std@@@2@$0A@@std@@@std@@QAEAAV012@XZ ENDP ; std::_Tree<std::_Tmap_traits<unsigned long,long,std::less<unsigned long>,std::allocator<std::pair<unsigned long const ,long> >,0> >::iterator::operator++
_TEXT	ENDS
PUBLIC	??Eiterator@?$_Tree@V?$_Tmap_traits@KJU?$less@K@std@@V?$allocator@U?$pair@$$CBKJ@std@@@2@$0A@@std@@@std@@QAE?AV012@H@Z ; std::_Tree<std::_Tmap_traits<unsigned long,long,std::less<unsigned long>,std::allocator<std::pair<unsigned long const ,long> >,0> >::iterator::operator++
; Function compile flags: /Ogty
;	COMDAT ??Eiterator@?$_Tree@V?$_Tmap_traits@KJU?$less@K@std@@V?$allocator@U?$pair@$$CBKJ@std@@@2@$0A@@std@@@std@@QAE?AV012@H@Z
_TEXT	SEGMENT
___$ReturnUdt$ = 8					; size = 4
___formal$ = 12						; size = 4
??Eiterator@?$_Tree@V?$_Tmap_traits@KJU?$less@K@std@@V?$allocator@U?$pair@$$CBKJ@std@@@2@$0A@@std@@@std@@QAE?AV012@H@Z PROC NEAR ; std::_Tree<std::_Tmap_traits<unsigned long,long,std::less<unsigned long>,std::allocator<std::pair<unsigned long const ,long> >,0> >::iterator::operator++, COMDAT
; _this$ = ecx

; 332  : 			{	// postincrement

  00000	56		 push	 esi

; 333  : 			iterator _Tmp = *this;

  00001	8b 31		 mov	 esi, DWORD PTR [ecx]

; 334  : 			++*this;

  00003	e8 00 00 00 00	 call	 ?_Inc@const_iterator@?$_Tree@V?$_Tmap_traits@KJU?$less@K@std@@V?$allocator@U?$pair@$$CBKJ@std@@@2@$0A@@std@@@std@@QAEXXZ ; std::_Tree<std::_Tmap_traits<unsigned long,long,std::less<unsigned long>,std::allocator<std::pair<unsigned long const ,long> >,0> >::const_iterator::_Inc

; 335  : 			return (_Tmp);

  00008	8b 44 24 08	 mov	 eax, DWORD PTR ___$ReturnUdt$[esp]
  0000c	89 30		 mov	 DWORD PTR [eax], esi
  0000e	5e		 pop	 esi

; 336  : 			}

  0000f	c2 08 00	 ret	 8
??Eiterator@?$_Tree@V?$_Tmap_traits@KJU?$less@K@std@@V?$allocator@U?$pair@$$CBKJ@std@@@2@$0A@@std@@@std@@QAE?AV012@H@Z ENDP ; std::_Tree<std::_Tmap_traits<unsigned long,long,std::less<unsigned long>,std::allocator<std::pair<unsigned long const ,long> >,0> >::iterator::operator++
_TEXT	ENDS
PUBLIC	?lower_bound@?$_Tree@V?$_Tmap_traits@KJU?$less@K@std@@V?$allocator@U?$pair@$$CBKJ@std@@@2@$0A@@std@@@std@@QAE?AViterator@12@ABK@Z ; std::_Tree<std::_Tmap_traits<unsigned long,long,std::less<unsigned long>,std::allocator<std::pair<unsigned long const ,long> >,0> >::lower_bound
; Function compile flags: /Ogty
;	COMDAT ?lower_bound@?$_Tree@V?$_Tmap_traits@KJU?$less@K@std@@V?$allocator@U?$pair@$$CBKJ@std@@@2@$0A@@std@@@std@@QAE?AViterator@12@ABK@Z
_TEXT	SEGMENT
___$ReturnUdt$ = 8					; size = 4
__Keyval$ = 12						; size = 4
?lower_bound@?$_Tree@V?$_Tmap_traits@KJU?$less@K@std@@V?$allocator@U?$pair@$$CBKJ@std@@@2@$0A@@std@@@std@@QAE?AViterator@12@ABK@Z PROC NEAR ; std::_Tree<std::_Tmap_traits<unsigned long,long,std::less<unsigned long>,std::allocator<std::pair<unsigned long const ,long> >,0> >::lower_bound, COMDAT
; _this$ = ecx

; 810  : 		return (_TREE_ITERATOR(_Lbound(_Keyval)));

  00000	8b 49 04	 mov	 ecx, DWORD PTR [ecx+4]
  00003	8b 41 04	 mov	 eax, DWORD PTR [ecx+4]
  00006	8a 50 15	 mov	 dl, BYTE PTR [eax+21]
  00009	84 d2		 test	 dl, dl
  0000b	75 1d		 jne	 SHORT $L208788
  0000d	8b 54 24 08	 mov	 edx, DWORD PTR __Keyval$[esp-4]
  00011	8b 12		 mov	 edx, DWORD PTR [edx]
  00013	53		 push	 ebx
$L208756:
  00014	39 50 0c	 cmp	 DWORD PTR [eax+12], edx
  00017	73 05		 jae	 SHORT $L208758
  00019	8b 40 08	 mov	 eax, DWORD PTR [eax+8]
  0001c	eb 04		 jmp	 SHORT $L208759
$L208758:
  0001e	8b c8		 mov	 ecx, eax
  00020	8b 00		 mov	 eax, DWORD PTR [eax]
$L208759:
  00022	8a 58 15	 mov	 bl, BYTE PTR [eax+21]
  00025	84 db		 test	 bl, bl
  00027	74 eb		 je	 SHORT $L208756
  00029	5b		 pop	 ebx
$L208788:
  0002a	8b 44 24 04	 mov	 eax, DWORD PTR ___$ReturnUdt$[esp-4]
  0002e	89 08		 mov	 DWORD PTR [eax], ecx

; 811  : 		}

  00030	c2 08 00	 ret	 8
?lower_bound@?$_Tree@V?$_Tmap_traits@KJU?$less@K@std@@V?$allocator@U?$pair@$$CBKJ@std@@@2@$0A@@std@@@std@@QAE?AViterator@12@ABK@Z ENDP ; std::_Tree<std::_Tmap_traits<unsigned long,long,std::less<unsigned long>,std::allocator<std::pair<unsigned long const ,long> >,0> >::lower_bound
_TEXT	ENDS
PUBLIC	?_Erase@?$_Tree@V?$_Tmap_traits@KJU?$less@K@std@@V?$allocator@U?$pair@$$CBKJ@std@@@2@$0A@@std@@@std@@IAEXPAU_Node@?$_Tree_nod@V?$_Tmap_traits@KJU?$less@K@std@@V?$allocator@U?$pair@$$CBKJ@std@@@2@$0A@@std@@@2@@Z ; std::_Tree<std::_Tmap_traits<unsigned long,long,std::less<unsigned long>,std::allocator<std::pair<unsigned long const ,long> >,0> >::_Erase
; Function compile flags: /Ogty
;	COMDAT ?_Erase@?$_Tree@V?$_Tmap_traits@KJU?$less@K@std@@V?$allocator@U?$pair@$$CBKJ@std@@@2@$0A@@std@@@std@@IAEXPAU_Node@?$_Tree_nod@V?$_Tmap_traits@KJU?$less@K@std@@V?$allocator@U?$pair@$$CBKJ@std@@@2@$0A@@std@@@2@@Z
_TEXT	SEGMENT
__Rootnode$ = 8						; size = 4
?_Erase@?$_Tree@V?$_Tmap_traits@KJU?$less@K@std@@V?$allocator@U?$pair@$$CBKJ@std@@@2@$0A@@std@@@std@@IAEXPAU_Node@?$_Tree_nod@V?$_Tmap_traits@KJU?$less@K@std@@V?$allocator@U?$pair@$$CBKJ@std@@@2@$0A@@std@@@2@@Z PROC NEAR ; std::_Tree<std::_Tmap_traits<unsigned long,long,std::less<unsigned long>,std::allocator<std::pair<unsigned long const ,long> >,0> >::_Erase, COMDAT
; _this$ = ecx

; 890  : 		{	// free entire subtree, recursively

  00000	53		 push	 ebx
  00001	56		 push	 esi
  00002	57		 push	 edi

; 891  : 		for (_Nodeptr _Pnode = _Rootnode; !_Isnil(_Pnode); _Rootnode = _Pnode)

  00003	8b 7c 24 10	 mov	 edi, DWORD PTR __Rootnode$[esp+8]
  00007	8a 47 15	 mov	 al, BYTE PTR [edi+21]
  0000a	84 c0		 test	 al, al
  0000c	8b d9		 mov	 ebx, ecx
  0000e	8b f7		 mov	 esi, edi
  00010	75 1f		 jne	 SHORT $L206699
$L206697:

; 892  : 			{	// free subtrees, then node
; 893  : 			_Erase(_Right(_Pnode));

  00012	8b 46 08	 mov	 eax, DWORD PTR [esi+8]
  00015	50		 push	 eax
  00016	8b cb		 mov	 ecx, ebx
  00018	e8 00 00 00 00	 call	 ?_Erase@?$_Tree@V?$_Tmap_traits@KJU?$less@K@std@@V?$allocator@U?$pair@$$CBKJ@std@@@2@$0A@@std@@@std@@IAEXPAU_Node@?$_Tree_nod@V?$_Tmap_traits@KJU?$less@K@std@@V?$allocator@U?$pair@$$CBKJ@std@@@2@$0A@@std@@@2@@Z ; std::_Tree<std::_Tmap_traits<unsigned long,long,std::less<unsigned long>,std::allocator<std::pair<unsigned long const ,long> >,0> >::_Erase

; 894  : 			_Pnode = _Left(_Pnode);

  0001d	8b 36		 mov	 esi, DWORD PTR [esi]

; 895  : 			this->_Alnod.destroy(_Rootnode);	// destroy, free erased node
; 896  : 			this->_Alnod.deallocate(_Rootnode, 1);

  0001f	57		 push	 edi
  00020	e8 00 00 00 00	 call	 ??3@YAXPAX@Z		; operator delete
  00025	8a 46 15	 mov	 al, BYTE PTR [esi+21]
  00028	83 c4 04	 add	 esp, 4
  0002b	84 c0		 test	 al, al
  0002d	8b fe		 mov	 edi, esi
  0002f	74 e1		 je	 SHORT $L206697
$L206699:
  00031	5f		 pop	 edi
  00032	5e		 pop	 esi
  00033	5b		 pop	 ebx

; 897  : 			}
; 898  : 		}

  00034	c2 04 00	 ret	 4
?_Erase@?$_Tree@V?$_Tmap_traits@KJU?$less@K@std@@V?$allocator@U?$pair@$$CBKJ@std@@@2@$0A@@std@@@std@@IAEXPAU_Node@?$_Tree_nod@V?$_Tmap_traits@KJU?$less@K@std@@V?$allocator@U?$pair@$$CBKJ@std@@@2@$0A@@std@@@2@@Z ENDP ; std::_Tree<std::_Tmap_traits<unsigned long,long,std::less<unsigned long>,std::allocator<std::pair<unsigned long const ,long> >,0> >::_Erase
_TEXT	ENDS
PUBLIC	??Fiterator@?$_Tree@V?$_Tmap_traits@KJU?$less@K@std@@V?$allocator@U?$pair@$$CBKJ@std@@@2@$0A@@std@@@std@@QAEAAV012@XZ ; std::_Tree<std::_Tmap_traits<unsigned long,long,std::less<unsigned long>,std::allocator<std::pair<unsigned long const ,long> >,0> >::iterator::operator--
; Function compile flags: /Ogty
;	COMDAT ??Fiterator@?$_Tree@V?$_Tmap_traits@KJU?$less@K@std@@V?$allocator@U?$pair@$$CBKJ@std@@@2@$0A@@std@@@std@@QAEAAV012@XZ
_TEXT	SEGMENT
??Fiterator@?$_Tree@V?$_Tmap_traits@KJU?$less@K@std@@V?$allocator@U?$pair@$$CBKJ@std@@@2@$0A@@std@@@std@@QAEAAV012@XZ PROC NEAR ; std::_Tree<std::_Tmap_traits<unsigned long,long,std::less<unsigned long>,std::allocator<std::pair<unsigned long const ,long> >,0> >::iterator::operator--, COMDAT
; _this$ = ecx

; 339  : 			{	// predecrement

  00000	56		 push	 esi
  00001	8b f1		 mov	 esi, ecx

; 340  : 			--(*(const_iterator *)this);

  00003	e8 00 00 00 00	 call	 ?_Dec@const_iterator@?$_Tree@V?$_Tmap_traits@KJU?$less@K@std@@V?$allocator@U?$pair@$$CBKJ@std@@@2@$0A@@std@@@std@@QAEXXZ ; std::_Tree<std::_Tmap_traits<unsigned long,long,std::less<unsigned long>,std::allocator<std::pair<unsigned long const ,long> >,0> >::const_iterator::_Dec

; 341  : 			return (*this);

  00008	8b c6		 mov	 eax, esi
  0000a	5e		 pop	 esi

; 342  : 			}

  0000b	c3		 ret	 0
??Fiterator@?$_Tree@V?$_Tmap_traits@KJU?$less@K@std@@V?$allocator@U?$pair@$$CBKJ@std@@@2@$0A@@std@@@std@@QAEAAV012@XZ ENDP ; std::_Tree<std::_Tmap_traits<unsigned long,long,std::less<unsigned long>,std::allocator<std::pair<unsigned long const ,long> >,0> >::iterator::operator--
_TEXT	ENDS
PUBLIC	?begin@?$vector@U_COUPLE_ITEM@@V?$allocator@U_COUPLE_ITEM@@@std@@@std@@QAE?AViterator@12@XZ ; std::vector<_COUPLE_ITEM,std::allocator<_COUPLE_ITEM> >::begin
; Function compile flags: /Ogty
; File c:\program files\microsoft visual studio .net 2003\vc7\include\vector
;	COMDAT ?begin@?$vector@U_COUPLE_ITEM@@V?$allocator@U_COUPLE_ITEM@@@std@@@std@@QAE?AViterator@12@XZ
_TEXT	SEGMENT
___$ReturnUdt$ = 8					; size = 4
?begin@?$vector@U_COUPLE_ITEM@@V?$allocator@U_COUPLE_ITEM@@@std@@@std@@QAE?AViterator@12@XZ PROC NEAR ; std::vector<_COUPLE_ITEM,std::allocator<_COUPLE_ITEM> >::begin, COMDAT
; _this$ = ecx

; 463  : 		return (iterator(_Myfirst));

  00000	8b 49 04	 mov	 ecx, DWORD PTR [ecx+4]
  00003	8b 44 24 04	 mov	 eax, DWORD PTR ___$ReturnUdt$[esp-4]
  00007	89 08		 mov	 DWORD PTR [eax], ecx

; 464  : 		}

  00009	c2 04 00	 ret	 4
?begin@?$vector@U_COUPLE_ITEM@@V?$allocator@U_COUPLE_ITEM@@@std@@@std@@QAE?AViterator@12@XZ ENDP ; std::vector<_COUPLE_ITEM,std::allocator<_COUPLE_ITEM> >::begin
_TEXT	ENDS
PUBLIC	?_Buynode@?$_Tree@V?$_Tmap_traits@KJU?$less@K@std@@V?$allocator@U?$pair@$$CBKJ@std@@@2@$0A@@std@@@std@@IAEPAU_Node@?$_Tree_nod@V?$_Tmap_traits@KJU?$less@K@std@@V?$allocator@U?$pair@$$CBKJ@std@@@2@$0A@@std@@@2@PAU342@00ABU?$pair@$$CBKJ@2@D@Z ; std::_Tree<std::_Tmap_traits<unsigned long,long,std::less<unsigned long>,std::allocator<std::pair<unsigned long const ,long> >,0> >::_Buynode
EXTRN	__CxxThrowException@8:NEAR
; Function compile flags: /Ogty
; File c:\program files\microsoft visual studio .net 2003\vc7\include\xtree
;	COMDAT ?_Buynode@?$_Tree@V?$_Tmap_traits@KJU?$less@K@std@@V?$allocator@U?$pair@$$CBKJ@std@@@2@$0A@@std@@@std@@IAEPAU_Node@?$_Tree_nod@V?$_Tmap_traits@KJU?$less@K@std@@V?$allocator@U?$pair@$$CBKJ@std@@@2@$0A@@std@@@2@PAU342@00ABU?$pair@$$CBKJ@2@D@Z
_TEXT	SEGMENT
__Larg$ = 8						; size = 4
__Parg$ = 12						; size = 4
__Rarg$ = 16						; size = 4
__Val$ = 20						; size = 4
__Carg$ = 24						; size = 1
?_Buynode@?$_Tree@V?$_Tmap_traits@KJU?$less@K@std@@V?$allocator@U?$pair@$$CBKJ@std@@@2@$0A@@std@@@std@@IAEPAU_Node@?$_Tree_nod@V?$_Tmap_traits@KJU?$less@K@std@@V?$allocator@U?$pair@$$CBKJ@std@@@2@$0A@@std@@@2@PAU342@00ABU?$pair@$$CBKJ@2@D@Z PROC NEAR ; std::_Tree<std::_Tmap_traits<unsigned long,long,std::less<unsigned long>,std::allocator<std::pair<unsigned long const ,long> >,0> >::_Buynode, COMDAT
; _this$ = ecx

; 1131 : 		_Nodeptr _Wherenode = this->_Alnod.allocate(1);

  00000	6a 18		 push	 24			; 00000018H
  00002	e8 00 00 00 00	 call	 ??2@YAPAXI@Z		; operator new
  00007	83 c4 04	 add	 esp, 4

; 1132 : 		_TRY_BEGIN
; 1133 : 		new (_Wherenode) _Node(_Larg, _Parg, _Rarg, _Val, _Carg);

  0000a	85 c0		 test	 eax, eax
  0000c	74 2e		 je	 SHORT $L208825
  0000e	8b 4c 24 04	 mov	 ecx, DWORD PTR __Larg$[esp-4]
  00012	8b 54 24 08	 mov	 edx, DWORD PTR __Parg$[esp-4]
  00016	89 08		 mov	 DWORD PTR [eax], ecx
  00018	8b 4c 24 0c	 mov	 ecx, DWORD PTR __Rarg$[esp-4]
  0001c	89 48 08	 mov	 DWORD PTR [eax+8], ecx
  0001f	8b 4c 24 10	 mov	 ecx, DWORD PTR __Val$[esp-4]
  00023	89 50 04	 mov	 DWORD PTR [eax+4], edx
  00026	8b 11		 mov	 edx, DWORD PTR [ecx]
  00028	89 50 0c	 mov	 DWORD PTR [eax+12], edx
  0002b	8b 49 04	 mov	 ecx, DWORD PTR [ecx+4]
  0002e	8a 54 24 14	 mov	 dl, BYTE PTR __Carg$[esp-4]
  00032	89 48 10	 mov	 DWORD PTR [eax+16], ecx
  00035	88 50 14	 mov	 BYTE PTR [eax+20], dl
  00038	c6 40 15 00	 mov	 BYTE PTR [eax+21], 0
$L208825:

; 1134 : 		_CATCH_ALL
; 1135 : 		this->_Alnod.deallocate(_Wherenode, 1);
; 1136 : 		_RERAISE;
; 1137 : 		_CATCH_END
; 1138 : 		return (_Wherenode);
; 1139 : 		}

  0003c	c2 14 00	 ret	 20			; 00000014H
?_Buynode@?$_Tree@V?$_Tmap_traits@KJU?$less@K@std@@V?$allocator@U?$pair@$$CBKJ@std@@@2@$0A@@std@@@std@@IAEPAU_Node@?$_Tree_nod@V?$_Tmap_traits@KJU?$less@K@std@@V?$allocator@U?$pair@$$CBKJ@std@@@2@$0A@@std@@@2@PAU342@00ABU?$pair@$$CBKJ@2@D@Z ENDP ; std::_Tree<std::_Tmap_traits<unsigned long,long,std::less<unsigned long>,std::allocator<std::pair<unsigned long const ,long> >,0> >::_Buynode
_TEXT	ENDS
PUBLIC	?_Buynode@?$_Tree@V?$_Tmap_traits@KJU?$less@K@std@@V?$allocator@U?$pair@$$CBKJ@std@@@2@$0A@@std@@@std@@IAEPAU_Node@?$_Tree_nod@V?$_Tmap_traits@KJU?$less@K@std@@V?$allocator@U?$pair@$$CBKJ@std@@@2@$0A@@std@@@2@XZ ; std::_Tree<std::_Tmap_traits<unsigned long,long,std::less<unsigned long>,std::allocator<std::pair<unsigned long const ,long> >,0> >::_Buynode
; Function compile flags: /Ogty
;	COMDAT ?_Buynode@?$_Tree@V?$_Tmap_traits@KJU?$less@K@std@@V?$allocator@U?$pair@$$CBKJ@std@@@2@$0A@@std@@@std@@IAEPAU_Node@?$_Tree_nod@V?$_Tmap_traits@KJU?$less@K@std@@V?$allocator@U?$pair@$$CBKJ@std@@@2@$0A@@std@@@2@XZ
_TEXT	SEGMENT
?_Buynode@?$_Tree@V?$_Tmap_traits@KJU?$less@K@std@@V?$allocator@U?$pair@$$CBKJ@std@@@2@$0A@@std@@@std@@IAEPAU_Node@?$_Tree_nod@V?$_Tmap_traits@KJU?$less@K@std@@V?$allocator@U?$pair@$$CBKJ@std@@@2@$0A@@std@@@2@XZ PROC NEAR ; std::_Tree<std::_Tmap_traits<unsigned long,long,std::less<unsigned long>,std::allocator<std::pair<unsigned long const ,long> >,0> >::_Buynode, COMDAT
; _this$ = ecx

; 1106 : 		_Nodeptr _Wherenode = this->_Alnod.allocate(1);

  00000	6a 18		 push	 24			; 00000018H
  00002	e8 00 00 00 00	 call	 ??2@YAPAXI@Z		; operator new
  00007	83 c4 04	 add	 esp, 4

; 1107 : 		int _Linkcnt = 0;
; 1108 : 
; 1109 : 		_TRY_BEGIN
; 1110 : 		this->_Alptr.construct(&_Left(_Wherenode), 0);

  0000a	85 c0		 test	 eax, eax
  0000c	74 06		 je	 SHORT $L208889
  0000e	c7 00 00 00 00
	00		 mov	 DWORD PTR [eax], 0
$L208889:

; 1111 : 		++_Linkcnt;
; 1112 : 		this->_Alptr.construct(&_Parent(_Wherenode), 0);

  00014	8d 48 04	 lea	 ecx, DWORD PTR [eax+4]
  00017	85 c9		 test	 ecx, ecx
  00019	74 06		 je	 SHORT $L208914
  0001b	c7 01 00 00 00
	00		 mov	 DWORD PTR [ecx], 0
$L208914:

; 1113 : 		++_Linkcnt;
; 1114 : 		this->_Alptr.construct(&_Right(_Wherenode), 0);

  00021	8d 48 08	 lea	 ecx, DWORD PTR [eax+8]
  00024	85 c9		 test	 ecx, ecx
  00026	74 06		 je	 SHORT $L208941
  00028	c7 01 00 00 00
	00		 mov	 DWORD PTR [ecx], 0
$L208941:

; 1115 : 		_CATCH_ALL
; 1116 : 		if (1 < _Linkcnt)
; 1117 : 			this->_Alptr.destroy(&_Parent(_Wherenode));
; 1118 : 		if (0 < _Linkcnt)
; 1119 : 			this->_Alptr.destroy(&_Left(_Wherenode));
; 1120 : 		this->_Alnod.deallocate(_Wherenode, 1);
; 1121 : 		_RERAISE;
; 1122 : 		_CATCH_END
; 1123 : 		_Color(_Wherenode) = _Black;

  0002e	c6 40 14 01	 mov	 BYTE PTR [eax+20], 1

; 1124 : 		_Isnil(_Wherenode) = false;

  00032	c6 40 15 00	 mov	 BYTE PTR [eax+21], 0

; 1125 : 		return (_Wherenode);
; 1126 : 		}

  00036	c3		 ret	 0
?_Buynode@?$_Tree@V?$_Tmap_traits@KJU?$less@K@std@@V?$allocator@U?$pair@$$CBKJ@std@@@2@$0A@@std@@@std@@IAEPAU_Node@?$_Tree_nod@V?$_Tmap_traits@KJU?$less@K@std@@V?$allocator@U?$pair@$$CBKJ@std@@@2@$0A@@std@@@2@XZ ENDP ; std::_Tree<std::_Tmap_traits<unsigned long,long,std::less<unsigned long>,std::allocator<std::pair<unsigned long const ,long> >,0> >::_Buynode
_TEXT	ENDS
PUBLIC	??0?$_Tree_ptr@V?$_Tmap_traits@KJU?$less@K@std@@V?$allocator@U?$pair@$$CBKJ@std@@@2@$0A@@std@@@std@@IAE@ABU?$less@K@1@V?$allocator@U?$pair@$$CBKJ@std@@@1@@Z ; std::_Tree_ptr<std::_Tmap_traits<unsigned long,long,std::less<unsigned long>,std::allocator<std::pair<unsigned long const ,long> >,0> >::_Tree_ptr<std::_Tmap_traits<unsigned long,long,std::less<unsigned long>,std::allocator<std::pair<unsigned long const ,long> >,0> >
; Function compile flags: /Ogty
;	COMDAT ??0?$_Tree_ptr@V?$_Tmap_traits@KJU?$less@K@std@@V?$allocator@U?$pair@$$CBKJ@std@@@2@$0A@@std@@@std@@IAE@ABU?$less@K@1@V?$allocator@U?$pair@$$CBKJ@std@@@1@@Z
_TEXT	SEGMENT
__Parg$ = 8						; size = 4
__Al$ = 12						; size = 1
??0?$_Tree_ptr@V?$_Tmap_traits@KJU?$less@K@std@@V?$allocator@U?$pair@$$CBKJ@std@@@2@$0A@@std@@@std@@IAE@ABU?$less@K@1@V?$allocator@U?$pair@$$CBKJ@std@@@1@@Z PROC NEAR ; std::_Tree_ptr<std::_Tmap_traits<unsigned long,long,std::less<unsigned long>,std::allocator<std::pair<unsigned long const ,long> >,0> >::_Tree_ptr<std::_Tmap_traits<unsigned long,long,std::less<unsigned long>,std::allocator<std::pair<unsigned long const ,long> >,0> >, COMDAT
; _this$ = ecx

; 76   : 		{	// construct base, and allocator from _Al

  00000	8b c1		 mov	 eax, ecx

; 77   : 		}

  00002	c2 08 00	 ret	 8
??0?$_Tree_ptr@V?$_Tmap_traits@KJU?$less@K@std@@V?$allocator@U?$pair@$$CBKJ@std@@@2@$0A@@std@@@std@@IAE@ABU?$less@K@1@V?$allocator@U?$pair@$$CBKJ@std@@@1@@Z ENDP ; std::_Tree_ptr<std::_Tmap_traits<unsigned long,long,std::less<unsigned long>,std::allocator<std::pair<unsigned long const ,long> >,0> >::_Tree_ptr<std::_Tmap_traits<unsigned long,long,std::less<unsigned long>,std::allocator<std::pair<unsigned long const ,long> >,0> >
_TEXT	ENDS
PUBLIC	?_Tidy@?$basic_string@DU?$char_traits@D@std@@V?$allocator@D@2@@std@@IAEX_NI@Z ; std::basic_string<char,std::char_traits<char>,std::allocator<char> >::_Tidy
; Function compile flags: /Ogty
; File c:\program files\microsoft visual studio .net 2003\vc7\include\xstring
;	COMDAT ?_Tidy@?$basic_string@DU?$char_traits@D@std@@V?$allocator@D@2@@std@@IAEX_NI@Z
_TEXT	SEGMENT
__Built$ = 8						; size = 1
__Newsize$ = 12						; size = 4
?_Tidy@?$basic_string@DU?$char_traits@D@std@@V?$allocator@D@2@@std@@IAEX_NI@Z PROC NEAR ; std::basic_string<char,std::char_traits<char>,std::allocator<char> >::_Tidy, COMDAT
; _this$ = ecx

; 1510 : 		if (!_Built)

  00000	8a 44 24 04	 mov	 al, BYTE PTR __Built$[esp-4]
  00004	84 c0		 test	 al, al
  00006	53		 push	 ebx
  00007	55		 push	 ebp
  00008	8b 6c 24 10	 mov	 ebp, DWORD PTR __Newsize$[esp+4]
  0000c	8b d9		 mov	 ebx, ecx
  0000e	74 2f		 je	 SHORT $L208995

; 1511 : 			;
; 1512 : 		else if (_BUF_SIZE <= _Myres)

  00010	83 7b 18 10	 cmp	 DWORD PTR [ebx+24], 16	; 00000010H
  00014	72 29		 jb	 SHORT $L208995

; 1513 : 			{	// copy any leftovers to small buffer and deallocate
; 1514 : 			_Elem *_Ptr = _Bx._Ptr;
; 1515 : 			if (0 < _Newsize)

  00016	85 ed		 test	 ebp, ebp
  00018	8b 43 04	 mov	 eax, DWORD PTR [ebx+4]
  0001b	57		 push	 edi
  0001c	8d 7b 04	 lea	 edi, DWORD PTR [ebx+4]
  0001f	76 14		 jbe	 SHORT $L208992
  00021	56		 push	 esi

; 1516 : 				_Traits::copy(_Bx._Buf, _Ptr, _Newsize);

  00022	8b cd		 mov	 ecx, ebp
  00024	8b d1		 mov	 edx, ecx
  00026	c1 e9 02	 shr	 ecx, 2
  00029	8b f0		 mov	 esi, eax
  0002b	f3 a5		 rep movsd
  0002d	8b ca		 mov	 ecx, edx
  0002f	83 e1 03	 and	 ecx, 3
  00032	f3 a4		 rep movsb
  00034	5e		 pop	 esi
$L208992:

; 1517 : 			_Mybase::_Alval.deallocate(_Ptr, _Myres + 1);

  00035	50		 push	 eax
  00036	e8 00 00 00 00	 call	 ??3@YAXPAX@Z		; operator delete
  0003b	83 c4 04	 add	 esp, 4
  0003e	5f		 pop	 edi
$L208995:

; 1518 : 			}
; 1519 : 		_Myres = _BUF_SIZE - 1;
; 1520 : 		_Eos(_Newsize);

  0003f	89 6b 14	 mov	 DWORD PTR [ebx+20], ebp
  00042	c7 43 18 0f 00
	00 00		 mov	 DWORD PTR [ebx+24], 15	; 0000000fH
  00049	c6 44 2b 04 00	 mov	 BYTE PTR [ebx+ebp+4], 0
  0004e	5d		 pop	 ebp
  0004f	5b		 pop	 ebx

; 1521 : 		}

  00050	c2 08 00	 ret	 8
?_Tidy@?$basic_string@DU?$char_traits@D@std@@V?$allocator@D@2@@std@@IAEX_NI@Z ENDP ; std::basic_string<char,std::char_traits<char>,std::allocator<char> >::_Tidy
_TEXT	ENDS
PUBLIC	?erase@?$basic_string@DU?$char_traits@D@std@@V?$allocator@D@2@@std@@QAEAAV12@II@Z ; std::basic_string<char,std::char_traits<char>,std::allocator<char> >::erase
EXTRN	?_Xran@_String_base@std@@QBEXXZ:NEAR		; std::_String_base::_Xran
; Function compile flags: /Ogty
;	COMDAT ?erase@?$basic_string@DU?$char_traits@D@std@@V?$allocator@D@2@@std@@QAEAAV12@II@Z
_TEXT	SEGMENT
__Off$ = 8						; size = 4
__Count$ = 12						; size = 4
?erase@?$basic_string@DU?$char_traits@D@std@@V?$allocator@D@2@@std@@QAEAAV12@II@Z PROC NEAR ; std::basic_string<char,std::char_traits<char>,std::allocator<char> >::erase, COMDAT
; _this$ = ecx

; 792  : 		{	// erase elements [_Off, _Off + _Count)

  00000	55		 push	 ebp

; 793  : 		if (_Mysize < _Off)

  00001	8b 6c 24 08	 mov	 ebp, DWORD PTR __Off$[esp]
  00005	56		 push	 esi
  00006	8b f1		 mov	 esi, ecx
  00008	39 6e 14	 cmp	 DWORD PTR [esi+20], ebp
  0000b	57		 push	 edi
  0000c	73 05		 jae	 SHORT $L184993

; 794  : 			_String_base::_Xran();	// _Off off end

  0000e	e8 00 00 00 00	 call	 ?_Xran@_String_base@std@@QBEXXZ ; std::_String_base::_Xran
$L184993:

; 795  : 		if (_Mysize - _Off < _Count)

  00013	8b 46 14	 mov	 eax, DWORD PTR [esi+20]
  00016	8b 7c 24 14	 mov	 edi, DWORD PTR __Count$[esp+8]
  0001a	2b c5		 sub	 eax, ebp
  0001c	3b c7		 cmp	 eax, edi
  0001e	73 02		 jae	 SHORT $L184994

; 796  : 			_Count = _Mysize - _Off;	// trim _Count

  00020	8b f8		 mov	 edi, eax
$L184994:

; 797  : 		if (0 < _Count)

  00022	85 ff		 test	 edi, edi
  00024	76 47		 jbe	 SHORT $L209059

; 798  : 			{	// move elements down
; 799  : 			_Traits::move(_Myptr() + _Off, _Myptr() + _Off + _Count,
; 800  : 				_Mysize - _Off - _Count);

  00026	8b 4e 18	 mov	 ecx, DWORD PTR [esi+24]
  00029	83 f9 10	 cmp	 ecx, 16			; 00000010H
  0002c	53		 push	 ebx
  0002d	8d 5e 04	 lea	 ebx, DWORD PTR [esi+4]
  00030	72 04		 jb	 SHORT $L209024
  00032	8b 13		 mov	 edx, DWORD PTR [ebx]
  00034	eb 02		 jmp	 SHORT $L209025
$L209024:
  00036	8b d3		 mov	 edx, ebx
$L209025:
  00038	83 f9 10	 cmp	 ecx, 16			; 00000010H
  0003b	72 04		 jb	 SHORT $L209031
  0003d	8b 0b		 mov	 ecx, DWORD PTR [ebx]
  0003f	eb 02		 jmp	 SHORT $L209032
$L209031:
  00041	8b cb		 mov	 ecx, ebx
$L209032:
  00043	2b c7		 sub	 eax, edi

; 803  : 			}
; 804  : 		return (*this);

  00045	03 d5		 add	 edx, ebp
  00047	50		 push	 eax
  00048	03 d7		 add	 edx, edi
  0004a	52		 push	 edx
  0004b	03 cd		 add	 ecx, ebp
  0004d	51		 push	 ecx
  0004e	e8 00 00 00 00	 call	 _memmove
  00053	8b 46 14	 mov	 eax, DWORD PTR [esi+20]
  00056	8b 4e 18	 mov	 ecx, DWORD PTR [esi+24]
  00059	2b c7		 sub	 eax, edi
  0005b	83 c4 0c	 add	 esp, 12			; 0000000cH
  0005e	83 f9 10	 cmp	 ecx, 16			; 00000010H
  00061	89 46 14	 mov	 DWORD PTR [esi+20], eax
  00064	72 02		 jb	 SHORT $L209054

; 801  : 			size_type _Newsize = _Mysize - _Count;
; 802  : 			_Eos(_Newsize);

  00066	8b 1b		 mov	 ebx, DWORD PTR [ebx]
$L209054:
  00068	c6 04 03 00	 mov	 BYTE PTR [ebx+eax], 0
  0006c	5b		 pop	 ebx
$L209059:
  0006d	5f		 pop	 edi

; 803  : 			}
; 804  : 		return (*this);

  0006e	8b c6		 mov	 eax, esi
  00070	5e		 pop	 esi
  00071	5d		 pop	 ebp

; 805  : 		}

  00072	c2 08 00	 ret	 8
?erase@?$basic_string@DU?$char_traits@D@std@@V?$allocator@D@2@@std@@QAEAAV12@II@Z ENDP ; std::basic_string<char,std::char_traits<char>,std::allocator<char> >::erase
_TEXT	ENDS
PUBLIC	?_Copy@?$basic_string@DU?$char_traits@D@std@@V?$allocator@D@2@@std@@IAEXII@Z ; std::basic_string<char,std::char_traits<char>,std::allocator<char> >::_Copy
;	COMDAT xdata$x
; File c:\program files\microsoft visual studio .net 2003\vc7\include\iosfwd
xdata$x	SEGMENT
$T209262 DD	0ffffffffH
	DD	00H
	DD	0ffffffffH
	DD	00H
	DD	01H
	DD	00H
	DD	01H
	DD	00H
$T209264 DD	00H
	DD	00H
	DD	00H
	DD	FLAT:$L209065
$T209265 DD	00H
	DD	00H
	DD	00H
	DD	FLAT:$L209063
$T209263 DD	02H
	DD	02H
	DD	03H
	DD	01H
	DD	FLAT:$T209264
	DD	00H
	DD	00H
	DD	03H
	DD	01H
	DD	FLAT:$T209265
$T209257 DD	019930520H
	DD	04H
	DD	FLAT:$T209262
	DD	02H
	DD	FLAT:$T209263
	DD	2 DUP(00H)
; Function compile flags: /Ogty
; File c:\program files\microsoft visual studio .net 2003\vc7\include\xstring
xdata$x	ENDS
;	COMDAT ?_Copy@?$basic_string@DU?$char_traits@D@std@@V?$allocator@D@2@@std@@IAEXII@Z
_TEXT	SEGMENT
__Newres$ = -24						; size = 4
_this$ = -20						; size = 4
__$EHRec$ = -16						; size = 16
__Ptr$ = 8						; size = 4
__Newsize$ = 8						; size = 4
__Oldlen$ = 12						; size = 4
?_Copy@?$basic_string@DU?$char_traits@D@std@@V?$allocator@D@2@@std@@IAEXII@Z PROC NEAR ; std::basic_string<char,std::char_traits<char>,std::allocator<char> >::_Copy, COMDAT
; _this$ = ecx

; 1444 : 		{	// copy _Oldlen elements to newly allocated buffer

  00000	55		 push	 ebp
  00001	8b ec		 mov	 ebp, esp
  00003	6a ff		 push	 -1
  00005	68 00 00 00 00	 push	 __ehhandler$?_Copy@?$basic_string@DU?$char_traits@D@std@@V?$allocator@D@2@@std@@IAEXII@Z
  0000a	64 a1 00 00 00
	00		 mov	 eax, DWORD PTR fs:__except_list
  00010	50		 push	 eax
  00011	64 89 25 00 00
	00 00		 mov	 DWORD PTR fs:__except_list, esp
  00018	83 ec 0c	 sub	 esp, 12			; 0000000cH

; 1445 : 		size_type _Newres = _Newsize | _ALLOC_MASK;

  0001b	8b 45 08	 mov	 eax, DWORD PTR __Newsize$[ebp]
  0001e	53		 push	 ebx
  0001f	56		 push	 esi
  00020	8b d8		 mov	 ebx, eax
  00022	83 cb 0f	 or	 ebx, 15			; 0000000fH

; 1446 : 		if (max_size() < _Newres)

  00025	83 fb fe	 cmp	 ebx, -2			; fffffffeH
  00028	57		 push	 edi
  00029	8b f1		 mov	 esi, ecx
  0002b	89 65 f0	 mov	 DWORD PTR __$EHRec$[ebp], esp
  0002e	89 75 ec	 mov	 DWORD PTR _this$[ebp], esi
  00031	76 04		 jbe	 SHORT $L185550

; 1447 : 			_Newres = _Newsize;	// undo roundup if too big

  00033	8b d8		 mov	 ebx, eax

; 1448 : 		else if (_Newres / 3 < _Myres / 2

  00035	eb 22		 jmp	 SHORT $L185552
$L185550:

; 1449 : 			&& _Myres <= max_size() - _Myres / 2)

  00037	8b 7e 18	 mov	 edi, DWORD PTR [esi+24]
  0003a	b8 ab aa aa aa	 mov	 eax, -1431655765	; aaaaaaabH
  0003f	f7 e3		 mul	 ebx
  00041	8b cf		 mov	 ecx, edi
  00043	d1 e9		 shr	 ecx, 1
  00045	d1 ea		 shr	 edx, 1
  00047	3b d1		 cmp	 edx, ecx
  00049	73 0e		 jae	 SHORT $L185552
  0004b	b8 fe ff ff ff	 mov	 eax, -2			; fffffffeH
  00050	2b c1		 sub	 eax, ecx
  00052	3b f8		 cmp	 edi, eax
  00054	77 03		 ja	 SHORT $L185552

; 1450 : 			_Newres = _Myres + _Myres / 2;	// grow exponentially if possible

  00056	8d 1c 39	 lea	 ebx, DWORD PTR [ecx+edi]
$L185552:

; 1451 : 		_Elem *_Ptr;
; 1452 : 
; 1453 : 		_TRY_BEGIN
; 1454 : 			_Ptr = _Mybase::_Alval.allocate(_Newres + 1);

  00059	8d 4b 01	 lea	 ecx, DWORD PTR [ebx+1]
  0005c	51		 push	 ecx
  0005d	c7 45 fc 00 00
	00 00		 mov	 DWORD PTR __$EHRec$[ebp+12], 0
  00064	e8 00 00 00 00	 call	 ??2@YAPAXI@Z		; operator new
  00069	8b d0		 mov	 edx, eax
  0006b	83 c4 04	 add	 esp, 4
  0006e	89 55 08	 mov	 DWORD PTR __Ptr$[ebp], edx
  00071	eb 29		 jmp	 SHORT $L185554
$L209063:

; 1455 : 		_CATCH_ALL
; 1456 : 			_Newres = _Newsize;	// allocation failed, undo roundup and retry

  00073	8b 45 08	 mov	 eax, DWORD PTR __Newsize$[ebp]
  00076	89 45 e8	 mov	 DWORD PTR __Newres$[ebp], eax

; 1457 : 			_TRY_BEGIN
; 1458 : 				_Ptr = _Mybase::_Alval.allocate(_Newres + 1);

  00079	40		 inc	 eax
  0007a	89 65 f0	 mov	 DWORD PTR __$EHRec$[ebp], esp
  0007d	50		 push	 eax
  0007e	c6 45 fc 02	 mov	 BYTE PTR __$EHRec$[ebp+12], 2
  00082	e8 00 00 00 00	 call	 ??2@YAPAXI@Z		; operator new
  00087	89 45 08	 mov	 DWORD PTR __Ptr$[ebp], eax
  0008a	83 c4 04	 add	 esp, 4

; 1462 : 			_CATCH_END
; 1463 : 		_CATCH_END

  0008d	b8 00 00 00 00	 mov	 eax, $L209258
  00092	c3		 ret	 0
$L209258:
  00093	8b 5d e8	 mov	 ebx, DWORD PTR __Newres$[ebp]
  00096	8b 75 ec	 mov	 esi, DWORD PTR _this$[ebp]
  00099	8b 55 08	 mov	 edx, DWORD PTR __Ptr$[ebp]
$L185554:

; 1464 : 
; 1465 : 		if (0 < _Oldlen)

  0009c	8b 4d 0c	 mov	 ecx, DWORD PTR __Oldlen$[ebp]
  0009f	85 c9		 test	 ecx, ecx
  000a1	76 24		 jbe	 SHORT $L209183

; 1466 : 			_Traits::copy(_Ptr, _Myptr(), _Oldlen);	// copy existing elements

  000a3	83 7e 18 10	 cmp	 DWORD PTR [esi+24], 16	; 00000010H
  000a7	72 05		 jb	 SHORT $L209178
  000a9	8b 76 04	 mov	 esi, DWORD PTR [esi+4]
  000ac	eb 03		 jmp	 SHORT $L209179
$L209178:
  000ae	83 c6 04	 add	 esi, 4
$L209179:
  000b1	8b c1		 mov	 eax, ecx
  000b3	c1 e9 02	 shr	 ecx, 2
  000b6	8b fa		 mov	 edi, edx
  000b8	f3 a5		 rep movsd
  000ba	8b c8		 mov	 ecx, eax
  000bc	83 e1 03	 and	 ecx, 3
  000bf	f3 a4		 rep movsb
  000c1	8b 75 ec	 mov	 esi, DWORD PTR _this$[ebp]
  000c4	8b 4d 0c	 mov	 ecx, DWORD PTR __Oldlen$[ebp]
$L209183:

; 1467 : 		_Tidy(true);

  000c7	83 7e 18 10	 cmp	 DWORD PTR [esi+24], 16	; 00000010H
  000cb	72 12		 jb	 SHORT $L209225
  000cd	8b 4e 04	 mov	 ecx, DWORD PTR [esi+4]
  000d0	51		 push	 ecx
  000d1	e8 00 00 00 00	 call	 ??3@YAXPAX@Z		; operator delete
  000d6	8b 55 08	 mov	 edx, DWORD PTR __Ptr$[ebp]
  000d9	8b 4d 0c	 mov	 ecx, DWORD PTR __Oldlen$[ebp]
  000dc	83 c4 04	 add	 esp, 4
$L209225:

; 1468 : 		_Bx._Ptr = _Ptr;
; 1469 : 		_Myres = _Newres;
; 1470 : 		_Eos(_Oldlen);

  000df	83 fb 10	 cmp	 ebx, 16			; 00000010H
  000e2	8d 46 04	 lea	 eax, DWORD PTR [esi+4]
  000e5	c6 00 00	 mov	 BYTE PTR [eax], 0
  000e8	89 10		 mov	 DWORD PTR [eax], edx
  000ea	89 5e 18	 mov	 DWORD PTR [esi+24], ebx
  000ed	89 4e 14	 mov	 DWORD PTR [esi+20], ecx
  000f0	72 02		 jb	 SHORT $L209251
  000f2	8b c2		 mov	 eax, edx
$L209251:

; 1471 : 		}

  000f4	5f		 pop	 edi
  000f5	c6 04 08 00	 mov	 BYTE PTR [eax+ecx], 0
  000f9	8b 4d f4	 mov	 ecx, DWORD PTR __$EHRec$[ebp+4]
  000fc	5e		 pop	 esi
  000fd	64 89 0d 00 00
	00 00		 mov	 DWORD PTR fs:__except_list, ecx
  00104	5b		 pop	 ebx
  00105	8b e5		 mov	 esp, ebp
  00107	5d		 pop	 ebp
  00108	c2 08 00	 ret	 8
$L209065:

; 1459 : 			_CATCH_ALL
; 1460 : 			_Tidy(true);	// failed again, discard storage and reraise

  0010b	8b 75 ec	 mov	 esi, DWORD PTR _this$[ebp]
  0010e	83 7e 18 10	 cmp	 DWORD PTR [esi+24], 16	; 00000010H
  00112	72 0c		 jb	 SHORT $L209164
  00114	8b 56 04	 mov	 edx, DWORD PTR [esi+4]
  00117	52		 push	 edx
  00118	e8 00 00 00 00	 call	 ??3@YAXPAX@Z		; operator delete
  0011d	83 c4 04	 add	 esp, 4
$L209164:

; 1461 : 			_RERAISE;

  00120	6a 00		 push	 0
  00122	c7 46 18 0f 00
	00 00		 mov	 DWORD PTR [esi+24], 15	; 0000000fH
  00129	c7 46 14 00 00
	00 00		 mov	 DWORD PTR [esi+20], 0
  00130	6a 00		 push	 0
  00132	c6 46 04 00	 mov	 BYTE PTR [esi+4], 0
  00136	e8 00 00 00 00	 call	 __CxxThrowException@8
$L209261:
  0013b	cc		 int	 3
_TEXT	ENDS
;	COMDAT text$x
text$x	SEGMENT
__ehhandler$?_Copy@?$basic_string@DU?$char_traits@D@std@@V?$allocator@D@2@@std@@IAEXII@Z:
  00000	b8 00 00 00 00	 mov	 eax, OFFSET FLAT:$T209257
  00005	e9 00 00 00 00	 jmp	 ___CxxFrameHandler
text$x	ENDS
?_Copy@?$basic_string@DU?$char_traits@D@std@@V?$allocator@D@2@@std@@IAEXII@Z ENDP ; std::basic_string<char,std::char_traits<char>,std::allocator<char> >::_Copy
PUBLIC	?clear@?$_Tree@V?$_Tmap_traits@KJU?$less@K@std@@V?$allocator@U?$pair@$$CBKJ@std@@@2@$0A@@std@@@std@@QAEXXZ ; std::_Tree<std::_Tmap_traits<unsigned long,long,std::less<unsigned long>,std::allocator<std::pair<unsigned long const ,long> >,0> >::clear
; Function compile flags: /Ogty
; File c:\program files\microsoft visual studio .net 2003\vc7\include\xtree
;	COMDAT ?clear@?$_Tree@V?$_Tmap_traits@KJU?$less@K@std@@V?$allocator@U?$pair@$$CBKJ@std@@@2@$0A@@std@@@std@@QAEXXZ
_TEXT	SEGMENT
?clear@?$_Tree@V?$_Tmap_traits@KJU?$less@K@std@@V?$allocator@U?$pair@$$CBKJ@std@@@2@$0A@@std@@@std@@QAEXXZ PROC NEAR ; std::_Tree<std::_Tmap_traits<unsigned long,long,std::less<unsigned long>,std::allocator<std::pair<unsigned long const ,long> >,0> >::clear, COMDAT
; _this$ = ecx

; 780  : 		{	// erase all

  00000	56		 push	 esi
  00001	8b f1		 mov	 esi, ecx

; 781  : 		_Erase(_Root());

  00003	8b 46 04	 mov	 eax, DWORD PTR [esi+4]
  00006	8b 48 04	 mov	 ecx, DWORD PTR [eax+4]
  00009	51		 push	 ecx
  0000a	8b ce		 mov	 ecx, esi
  0000c	e8 00 00 00 00	 call	 ?_Erase@?$_Tree@V?$_Tmap_traits@KJU?$less@K@std@@V?$allocator@U?$pair@$$CBKJ@std@@@2@$0A@@std@@@std@@IAEXPAU_Node@?$_Tree_nod@V?$_Tmap_traits@KJU?$less@K@std@@V?$allocator@U?$pair@$$CBKJ@std@@@2@$0A@@std@@@2@@Z ; std::_Tree<std::_Tmap_traits<unsigned long,long,std::less<unsigned long>,std::allocator<std::pair<unsigned long const ,long> >,0> >::_Erase

; 782  : 		_Root() = _Myhead, _Mysize = 0;

  00011	8b 46 04	 mov	 eax, DWORD PTR [esi+4]
  00014	89 40 04	 mov	 DWORD PTR [eax+4], eax

; 783  : 		_Lmost() = _Myhead, _Rmost() = _Myhead;

  00017	8b 46 04	 mov	 eax, DWORD PTR [esi+4]
  0001a	c7 46 08 00 00
	00 00		 mov	 DWORD PTR [esi+8], 0
  00021	89 00		 mov	 DWORD PTR [eax], eax
  00023	8b 76 04	 mov	 esi, DWORD PTR [esi+4]
  00026	89 76 08	 mov	 DWORD PTR [esi+8], esi
  00029	5e		 pop	 esi

; 784  : 		}

  0002a	c3		 ret	 0
?clear@?$_Tree@V?$_Tmap_traits@KJU?$less@K@std@@V?$allocator@U?$pair@$$CBKJ@std@@@2@$0A@@std@@@std@@QAEXXZ ENDP ; std::_Tree<std::_Tmap_traits<unsigned long,long,std::less<unsigned long>,std::allocator<std::pair<unsigned long const ,long> >,0> >::clear
_TEXT	ENDS
PUBLIC	?find@?$_Tree@V?$_Tmap_traits@KJU?$less@K@std@@V?$allocator@U?$pair@$$CBKJ@std@@@2@$0A@@std@@@std@@QAE?AViterator@12@ABK@Z ; std::_Tree<std::_Tmap_traits<unsigned long,long,std::less<unsigned long>,std::allocator<std::pair<unsigned long const ,long> >,0> >::find
; Function compile flags: /Ogty
;	COMDAT ?find@?$_Tree@V?$_Tmap_traits@KJU?$less@K@std@@V?$allocator@U?$pair@$$CBKJ@std@@@2@$0A@@std@@@std@@QAE?AViterator@12@ABK@Z
_TEXT	SEGMENT
$T209307 = -4						; size = 4
___$ReturnUdt$ = 8					; size = 4
__Where$ = 12						; size = 4
__Keyval$ = 12						; size = 4
?find@?$_Tree@V?$_Tmap_traits@KJU?$less@K@std@@V?$allocator@U?$pair@$$CBKJ@std@@@2@$0A@@std@@@std@@QAE?AViterator@12@ABK@Z PROC NEAR ; std::_Tree<std::_Tmap_traits<unsigned long,long,std::less<unsigned long>,std::allocator<std::pair<unsigned long const ,long> >,0> >::find, COMDAT
; _this$ = ecx

; 787  : 		{	// find an element in mutable sequence that matches _Keyval

  00000	51		 push	 ecx

; 788  : 		iterator _Where = lower_bound(_Keyval);

  00001	8b 51 04	 mov	 edx, DWORD PTR [ecx+4]
  00004	8b 42 04	 mov	 eax, DWORD PTR [edx+4]
  00007	53		 push	 ebx
  00008	8a 58 15	 mov	 bl, BYTE PTR [eax+21]
  0000b	84 db		 test	 bl, bl
  0000d	56		 push	 esi
  0000e	57		 push	 edi
  0000f	8b 7c 24 18	 mov	 edi, DWORD PTR __Keyval$[esp+12]
  00013	75 17		 jne	 SHORT $L209383
  00015	8b 37		 mov	 esi, DWORD PTR [edi]
$L209382:
  00017	39 70 0c	 cmp	 DWORD PTR [eax+12], esi
  0001a	73 05		 jae	 SHORT $L209384
  0001c	8b 40 08	 mov	 eax, DWORD PTR [eax+8]
  0001f	eb 04		 jmp	 SHORT $L209385
$L209384:
  00021	8b d0		 mov	 edx, eax
  00023	8b 00		 mov	 eax, DWORD PTR [eax]
$L209385:
  00025	8a 58 15	 mov	 bl, BYTE PTR [eax+21]
  00028	84 db		 test	 bl, bl
  0002a	74 eb		 je	 SHORT $L209382
$L209383:

; 789  : 		return (_Where == end() || this->comp(_Keyval, _Key(_Where._Mynode()))
; 790  : 			? end() : _Where);

  0002c	8b 41 04	 mov	 eax, DWORD PTR [ecx+4]
  0002f	3b d0		 cmp	 edx, eax
  00031	89 54 24 18	 mov	 DWORD PTR __Where$[esp+12], edx
  00035	74 1a		 je	 SHORT $L209306
  00037	8b 0f		 mov	 ecx, DWORD PTR [edi]
  00039	3b 4a 0c	 cmp	 ecx, DWORD PTR [edx+12]
  0003c	72 13		 jb	 SHORT $L209306
  0003e	8d 44 24 18	 lea	 eax, DWORD PTR __Where$[esp+12]
  00042	8b 10		 mov	 edx, DWORD PTR [eax]
  00044	8b 44 24 14	 mov	 eax, DWORD PTR ___$ReturnUdt$[esp+12]
  00048	5f		 pop	 edi
  00049	5e		 pop	 esi
  0004a	89 10		 mov	 DWORD PTR [eax], edx
  0004c	5b		 pop	 ebx

; 791  : 		}

  0004d	59		 pop	 ecx
  0004e	c2 08 00	 ret	 8
$L209306:

; 789  : 		return (_Where == end() || this->comp(_Keyval, _Key(_Where._Mynode()))
; 790  : 			? end() : _Where);

  00051	89 44 24 0c	 mov	 DWORD PTR $T209307[esp+16], eax
  00055	8d 44 24 0c	 lea	 eax, DWORD PTR $T209307[esp+16]
  00059	8b 10		 mov	 edx, DWORD PTR [eax]
  0005b	8b 44 24 14	 mov	 eax, DWORD PTR ___$ReturnUdt$[esp+12]
  0005f	5f		 pop	 edi
  00060	5e		 pop	 esi
  00061	89 10		 mov	 DWORD PTR [eax], edx
  00063	5b		 pop	 ebx

; 791  : 		}

  00064	59		 pop	 ecx
  00065	c2 08 00	 ret	 8
?find@?$_Tree@V?$_Tmap_traits@KJU?$less@K@std@@V?$allocator@U?$pair@$$CBKJ@std@@@2@$0A@@std@@@std@@QAE?AViterator@12@ABK@Z ENDP ; std::_Tree<std::_Tmap_traits<unsigned long,long,std::less<unsigned long>,std::allocator<std::pair<unsigned long const ,long> >,0> >::find
_TEXT	ENDS
PUBLIC	??A?$vector@U_COUPLE_ITEM@@V?$allocator@U_COUPLE_ITEM@@@std@@@std@@QAEAAU_COUPLE_ITEM@@I@Z ; std::vector<_COUPLE_ITEM,std::allocator<_COUPLE_ITEM> >::operator[]
; Function compile flags: /Ogty
; File c:\program files\microsoft visual studio .net 2003\vc7\include\vector
;	COMDAT ??A?$vector@U_COUPLE_ITEM@@V?$allocator@U_COUPLE_ITEM@@@std@@@std@@QAEAAU_COUPLE_ITEM@@I@Z
_TEXT	SEGMENT
__Pos$ = 8						; size = 4
??A?$vector@U_COUPLE_ITEM@@V?$allocator@U_COUPLE_ITEM@@@std@@@std@@QAEAAU_COUPLE_ITEM@@I@Z PROC NEAR ; std::vector<_COUPLE_ITEM,std::allocator<_COUPLE_ITEM> >::operator[], COMDAT
; _this$ = ecx

; 555  : 		return (*(begin() + _Pos));

  00000	8b 44 24 04	 mov	 eax, DWORD PTR __Pos$[esp-4]
  00004	8b 49 04	 mov	 ecx, DWORD PTR [ecx+4]
  00007	8d 04 80	 lea	 eax, DWORD PTR [eax+eax*4]
  0000a	8d 04 81	 lea	 eax, DWORD PTR [ecx+eax*4]

; 556  : 		}

  0000d	c2 04 00	 ret	 4
??A?$vector@U_COUPLE_ITEM@@V?$allocator@U_COUPLE_ITEM@@@std@@@std@@QAEAAU_COUPLE_ITEM@@I@Z ENDP ; std::vector<_COUPLE_ITEM,std::allocator<_COUPLE_ITEM> >::operator[]
_TEXT	ENDS
PUBLIC	?_Init@?$_Tree@V?$_Tmap_traits@KJU?$less@K@std@@V?$allocator@U?$pair@$$CBKJ@std@@@2@$0A@@std@@@std@@IAEXXZ ; std::_Tree<std::_Tmap_traits<unsigned long,long,std::less<unsigned long>,std::allocator<std::pair<unsigned long const ,long> >,0> >::_Init
; Function compile flags: /Ogty
; File c:\program files\microsoft visual studio .net 2003\vc7\include\xtree
;	COMDAT ?_Init@?$_Tree@V?$_Tmap_traits@KJU?$less@K@std@@V?$allocator@U?$pair@$$CBKJ@std@@@2@$0A@@std@@@std@@IAEXXZ
_TEXT	SEGMENT
?_Init@?$_Tree@V?$_Tmap_traits@KJU?$less@K@std@@V?$allocator@U?$pair@$$CBKJ@std@@@2@$0A@@std@@@std@@IAEXXZ PROC NEAR ; std::_Tree<std::_Tmap_traits<unsigned long,long,std::less<unsigned long>,std::allocator<std::pair<unsigned long const ,long> >,0> >::_Init, COMDAT
; _this$ = ecx

; 901  : 		{	// create head/nil node and make tree empty

  00000	56		 push	 esi
  00001	8b f1		 mov	 esi, ecx

; 902  : 		_Myhead = _Buynode();

  00003	e8 00 00 00 00	 call	 ?_Buynode@?$_Tree@V?$_Tmap_traits@KJU?$less@K@std@@V?$allocator@U?$pair@$$CBKJ@std@@@2@$0A@@std@@@std@@IAEPAU_Node@?$_Tree_nod@V?$_Tmap_traits@KJU?$less@K@std@@V?$allocator@U?$pair@$$CBKJ@std@@@2@$0A@@std@@@2@XZ ; std::_Tree<std::_Tmap_traits<unsigned long,long,std::less<unsigned long>,std::allocator<std::pair<unsigned long const ,long> >,0> >::_Buynode
  00008	89 46 04	 mov	 DWORD PTR [esi+4], eax

; 903  : 		_Isnil(_Myhead) = true;

  0000b	c6 40 15 01	 mov	 BYTE PTR [eax+21], 1

; 904  : 		_Root() = _Myhead;

  0000f	8b 46 04	 mov	 eax, DWORD PTR [esi+4]
  00012	89 40 04	 mov	 DWORD PTR [eax+4], eax

; 905  : 		_Lmost() = _Myhead, _Rmost() = _Myhead;

  00015	8b 46 04	 mov	 eax, DWORD PTR [esi+4]
  00018	89 00		 mov	 DWORD PTR [eax], eax
  0001a	8b 46 04	 mov	 eax, DWORD PTR [esi+4]
  0001d	89 40 08	 mov	 DWORD PTR [eax+8], eax

; 906  : 		_Mysize = 0;

  00020	c7 46 08 00 00
	00 00		 mov	 DWORD PTR [esi+8], 0
  00027	5e		 pop	 esi

; 907  : 		}

  00028	c3		 ret	 0
?_Init@?$_Tree@V?$_Tmap_traits@KJU?$less@K@std@@V?$allocator@U?$pair@$$CBKJ@std@@@2@$0A@@std@@@std@@IAEXXZ ENDP ; std::_Tree<std::_Tmap_traits<unsigned long,long,std::less<unsigned long>,std::allocator<std::pair<unsigned long const ,long> >,0> >::_Init
_TEXT	ENDS
PUBLIC	??0?$_Tree_val@V?$_Tmap_traits@KJU?$less@K@std@@V?$allocator@U?$pair@$$CBKJ@std@@@2@$0A@@std@@@std@@IAE@ABU?$less@K@1@V?$allocator@U?$pair@$$CBKJ@std@@@1@@Z ; std::_Tree_val<std::_Tmap_traits<unsigned long,long,std::less<unsigned long>,std::allocator<std::pair<unsigned long const ,long> >,0> >::_Tree_val<std::_Tmap_traits<unsigned long,long,std::less<unsigned long>,std::allocator<std::pair<unsigned long const ,long> >,0> >
; Function compile flags: /Ogty
;	COMDAT ??0?$_Tree_val@V?$_Tmap_traits@KJU?$less@K@std@@V?$allocator@U?$pair@$$CBKJ@std@@@2@$0A@@std@@@std@@IAE@ABU?$less@K@1@V?$allocator@U?$pair@$$CBKJ@std@@@1@@Z
_TEXT	SEGMENT
__Parg$ = 8						; size = 4
__Al$ = 12						; size = 1
??0?$_Tree_val@V?$_Tmap_traits@KJU?$less@K@std@@V?$allocator@U?$pair@$$CBKJ@std@@@2@$0A@@std@@@std@@IAE@ABU?$less@K@1@V?$allocator@U?$pair@$$CBKJ@std@@@1@@Z PROC NEAR ; std::_Tree_val<std::_Tmap_traits<unsigned long,long,std::less<unsigned long>,std::allocator<std::pair<unsigned long const ,long> >,0> >::_Tree_val<std::_Tmap_traits<unsigned long,long,std::less<unsigned long>,std::allocator<std::pair<unsigned long const ,long> >,0> >, COMDAT
; _this$ = ecx

; 95   : 		{	// construct base, and allocator from _Al

  00000	8b c1		 mov	 eax, ecx

; 96   : 		}

  00002	c2 08 00	 ret	 8
??0?$_Tree_val@V?$_Tmap_traits@KJU?$less@K@std@@V?$allocator@U?$pair@$$CBKJ@std@@@2@$0A@@std@@@std@@IAE@ABU?$less@K@1@V?$allocator@U?$pair@$$CBKJ@std@@@1@@Z ENDP ; std::_Tree_val<std::_Tmap_traits<unsigned long,long,std::less<unsigned long>,std::allocator<std::pair<unsigned long const ,long> >,0> >::_Tree_val<std::_Tmap_traits<unsigned long,long,std::less<unsigned long>,std::allocator<std::pair<unsigned long const ,long> >,0> >
_TEXT	ENDS
PUBLIC	??1?$basic_string@DU?$char_traits@D@std@@V?$allocator@D@2@@std@@QAE@XZ ; std::basic_string<char,std::char_traits<char>,std::allocator<char> >::~basic_string<char,std::char_traits<char>,std::allocator<char> >
; Function compile flags: /Ogty
; File c:\program files\microsoft visual studio .net 2003\vc7\include\xstring
;	COMDAT ??1?$basic_string@DU?$char_traits@D@std@@V?$allocator@D@2@@std@@QAE@XZ
_TEXT	SEGMENT
??1?$basic_string@DU?$char_traits@D@std@@V?$allocator@D@2@@std@@QAE@XZ PROC NEAR ; std::basic_string<char,std::char_traits<char>,std::allocator<char> >::~basic_string<char,std::char_traits<char>,std::allocator<char> >, COMDAT
; _this$ = ecx

; 456  : 		{	// destroy the string

  00000	56		 push	 esi
  00001	8b f1		 mov	 esi, ecx

; 457  : 		_Tidy(true);

  00003	83 7e 18 10	 cmp	 DWORD PTR [esi+24], 16	; 00000010H
  00007	72 0c		 jb	 SHORT $L209621
  00009	8b 46 04	 mov	 eax, DWORD PTR [esi+4]
  0000c	50		 push	 eax
  0000d	e8 00 00 00 00	 call	 ??3@YAXPAX@Z		; operator delete
  00012	83 c4 04	 add	 esp, 4
$L209621:
  00015	33 c0		 xor	 eax, eax
  00017	c7 46 18 0f 00
	00 00		 mov	 DWORD PTR [esi+24], 15	; 0000000fH
  0001e	89 46 14	 mov	 DWORD PTR [esi+20], eax
  00021	88 46 04	 mov	 BYTE PTR [esi+4], al
  00024	5e		 pop	 esi

; 458  : 		}

  00025	c3		 ret	 0
??1?$basic_string@DU?$char_traits@D@std@@V?$allocator@D@2@@std@@QAE@XZ ENDP ; std::basic_string<char,std::char_traits<char>,std::allocator<char> >::~basic_string<char,std::char_traits<char>,std::allocator<char> >
_TEXT	ENDS
PUBLIC	?_Grow@?$basic_string@DU?$char_traits@D@std@@V?$allocator@D@2@@std@@IAE_NI_N@Z ; std::basic_string<char,std::char_traits<char>,std::allocator<char> >::_Grow
EXTRN	?_Xlen@_String_base@std@@QBEXXZ:NEAR		; std::_String_base::_Xlen
; Function compile flags: /Ogty
;	COMDAT ?_Grow@?$basic_string@DU?$char_traits@D@std@@V?$allocator@D@2@@std@@IAE_NI_N@Z
_TEXT	SEGMENT
__Newsize$ = 8						; size = 4
__Trim$ = 12						; size = 1
?_Grow@?$basic_string@DU?$char_traits@D@std@@V?$allocator@D@2@@std@@IAE_NI_N@Z PROC NEAR ; std::basic_string<char,std::char_traits<char>,std::allocator<char> >::_Grow, COMDAT
; _this$ = ecx

; 1480 : 		{	// ensure buffer is big enough, trim to size if _Trim is true

  00000	55		 push	 ebp
  00001	56		 push	 esi

; 1481 : 		if (max_size() < _Newsize)

  00002	8b 74 24 0c	 mov	 esi, DWORD PTR __Newsize$[esp+4]
  00006	83 fe fe	 cmp	 esi, -2			; fffffffeH
  00009	8b e9		 mov	 ebp, ecx
  0000b	76 05		 jbe	 SHORT $L185002

; 1482 : 			_String_base::_Xlen();	// result too long

  0000d	e8 00 00 00 00	 call	 ?_Xlen@_String_base@std@@QBEXXZ ; std::_String_base::_Xlen
$L185002:

; 1483 : 		if (_Myres < _Newsize)

  00012	8b 45 18	 mov	 eax, DWORD PTR [ebp+24]
  00015	3b c6		 cmp	 eax, esi
  00017	73 19		 jae	 SHORT $L185003

; 1484 : 			_Copy(_Newsize, _Mysize);	// reallocate to grow

  00019	8b 45 14	 mov	 eax, DWORD PTR [ebp+20]
  0001c	50		 push	 eax
  0001d	56		 push	 esi
  0001e	8b cd		 mov	 ecx, ebp
  00020	e8 00 00 00 00	 call	 ?_Copy@?$basic_string@DU?$char_traits@D@std@@V?$allocator@D@2@@std@@IAEXII@Z ; std::basic_string<char,std::char_traits<char>,std::allocator<char> >::_Copy

; 1490 : 		return (0 < _Newsize);	// return true only if more work to do

  00025	33 c0		 xor	 eax, eax
  00027	3b c6		 cmp	 eax, esi
  00029	1b c0		 sbb	 eax, eax
  0002b	5e		 pop	 esi
  0002c	f7 d8		 neg	 eax
  0002e	5d		 pop	 ebp

; 1491 : 		}

  0002f	c2 08 00	 ret	 8
$L185003:

; 1485 : 		else if (_Trim && _Newsize < _BUF_SIZE)

  00032	8a 4c 24 10	 mov	 cl, BYTE PTR __Trim$[esp+4]
  00036	84 c9		 test	 cl, cl
  00038	74 5c		 je	 SHORT $L185005
  0003a	83 fe 10	 cmp	 esi, 16			; 00000010H
  0003d	73 57		 jae	 SHORT $L185005
  0003f	53		 push	 ebx

; 1486 : 			_Tidy(true,	// copy and deallocate if trimming to small string
; 1487 : 				_Newsize < _Mysize ? _Newsize : _Mysize);

  00040	8b 5d 14	 mov	 ebx, DWORD PTR [ebp+20]
  00043	3b f3		 cmp	 esi, ebx
  00045	73 02		 jae	 SHORT $L209634
  00047	8b de		 mov	 ebx, esi
$L209634:
  00049	83 f8 10	 cmp	 eax, 16			; 00000010H
  0004c	72 2b		 jb	 SHORT $L209694
  0004e	85 db		 test	 ebx, ebx
  00050	8b 45 04	 mov	 eax, DWORD PTR [ebp+4]
  00053	57		 push	 edi
  00054	8d 7d 04	 lea	 edi, DWORD PTR [ebp+4]
  00057	76 16		 jbe	 SHORT $L209693
  00059	8b cb		 mov	 ecx, ebx
  0005b	8b d1		 mov	 edx, ecx
  0005d	c1 e9 02	 shr	 ecx, 2
  00060	8b f0		 mov	 esi, eax
  00062	f3 a5		 rep movsd
  00064	8b ca		 mov	 ecx, edx
  00066	83 e1 03	 and	 ecx, 3
  00069	f3 a4		 rep movsb
  0006b	8b 74 24 14	 mov	 esi, DWORD PTR __Newsize$[esp+12]
$L209693:
  0006f	50		 push	 eax
  00070	e8 00 00 00 00	 call	 ??3@YAXPAX@Z		; operator delete
  00075	83 c4 04	 add	 esp, 4
  00078	5f		 pop	 edi
$L209694:
  00079	89 5d 14	 mov	 DWORD PTR [ebp+20], ebx

; 1490 : 		return (0 < _Newsize);	// return true only if more work to do

  0007c	33 c0		 xor	 eax, eax
  0007e	c7 45 18 0f 00
	00 00		 mov	 DWORD PTR [ebp+24], 15	; 0000000fH
  00085	c6 44 2b 04 00	 mov	 BYTE PTR [ebx+ebp+4], 0
  0008a	3b c6		 cmp	 eax, esi
  0008c	5b		 pop	 ebx
  0008d	1b c0		 sbb	 eax, eax
  0008f	5e		 pop	 esi
  00090	f7 d8		 neg	 eax
  00092	5d		 pop	 ebp

; 1491 : 		}

  00093	c2 08 00	 ret	 8
$L185005:

; 1488 : 		else if (_Newsize == 0)

  00096	85 f6		 test	 esi, esi
  00098	75 23		 jne	 SHORT $L209726

; 1489 : 			_Eos(0);	// new size is zero, just null terminate

  0009a	83 f8 10	 cmp	 eax, 16			; 00000010H
  0009d	89 75 14	 mov	 DWORD PTR [ebp+20], esi
  000a0	72 14		 jb	 SHORT $L209723
  000a2	8b 6d 04	 mov	 ebp, DWORD PTR [ebp+4]

; 1490 : 		return (0 < _Newsize);	// return true only if more work to do

  000a5	33 c0		 xor	 eax, eax
  000a7	3b c6		 cmp	 eax, esi
  000a9	1b c0		 sbb	 eax, eax
  000ab	5e		 pop	 esi
  000ac	c6 45 00 00	 mov	 BYTE PTR [ebp], 0
  000b0	f7 d8		 neg	 eax
  000b2	5d		 pop	 ebp

; 1491 : 		}

  000b3	c2 08 00	 ret	 8

; 1489 : 			_Eos(0);	// new size is zero, just null terminate

$L209723:
  000b6	83 c5 04	 add	 ebp, 4
  000b9	c6 45 00 00	 mov	 BYTE PTR [ebp], 0
$L209726:

; 1490 : 		return (0 < _Newsize);	// return true only if more work to do

  000bd	33 c0		 xor	 eax, eax
  000bf	3b c6		 cmp	 eax, esi
  000c1	1b c0		 sbb	 eax, eax
  000c3	5e		 pop	 esi
  000c4	f7 d8		 neg	 eax
  000c6	5d		 pop	 ebp

; 1491 : 		}

  000c7	c2 08 00	 ret	 8
?_Grow@?$basic_string@DU?$char_traits@D@std@@V?$allocator@D@2@@std@@IAE_NI_N@Z ENDP ; std::basic_string<char,std::char_traits<char>,std::allocator<char> >::_Grow
_TEXT	ENDS
PUBLIC	?PostItem@CCoupleHelper@@QAEXPAVCCouple@@@Z	; CCoupleHelper::PostItem
EXTRN	?GetLevel@CCouple@@QAEHH@Z:NEAR			; CCouple::GetLevel
EXTRN	?Instance@CCoupleProperty@@SAPAV1@XZ:NEAR	; CCoupleProperty::Instance
EXTRN	?GetItems@CCoupleProperty@@QAEAAV?$vector@U_COUPLE_ITEM@@V?$allocator@U_COUPLE_ITEM@@@std@@@std@@H@Z:NEAR ; CCoupleProperty::GetItems
; Function compile flags: /Ogty
; File c:\documents and settings\test\mes documents\source\virtuos_v17\build\program\databaseserver\couplehelper.cpp
;	COMDAT ?PostItem@CCoupleHelper@@QAEXPAVCCouple@@@Z
_TEXT	SEGMENT
_i$206146 = -16						; size = 4
_nGenderFirst$ = -12					; size = 4
_nGenderSecond$ = -8					; size = 4
_this$ = -4						; size = 4
tv354 = 8						; size = 4
tv170 = 8						; size = 4
_pCouple$ = 8						; size = 4
?PostItem@CCoupleHelper@@QAEXPAVCCouple@@@Z PROC NEAR	; CCoupleHelper::PostItem, COMDAT
; _this$ = ecx

; 214  : {

  00000	83 ec 10	 sub	 esp, 16			; 00000010H
  00003	55		 push	 ebp
  00004	56		 push	 esi
  00005	57		 push	 edi

; 215  : 	VCI& vItems	= CCoupleProperty::Instance()->GetItems( pCouple->GetLevel() );

  00006	8b 7c 24 20	 mov	 edi, DWORD PTR _pCouple$[esp+24]
  0000a	8b f1		 mov	 esi, ecx
  0000c	6a 00		 push	 0
  0000e	8b cf		 mov	 ecx, edi
  00010	89 74 24 1c	 mov	 DWORD PTR _this$[esp+32], esi
  00014	e8 00 00 00 00	 call	 ?GetLevel@CCouple@@QAEHH@Z ; CCouple::GetLevel
  00019	50		 push	 eax
  0001a	e8 00 00 00 00	 call	 ?Instance@CCoupleProperty@@SAPAV1@XZ ; CCoupleProperty::Instance
  0001f	8b c8		 mov	 ecx, eax
  00021	e8 00 00 00 00	 call	 ?GetItems@CCoupleProperty@@QAEAAV?$vector@U_COUPLE_ITEM@@V?$allocator@U_COUPLE_ITEM@@@std@@@std@@H@Z ; CCoupleProperty::GetItems
  00026	8b e8		 mov	 ebp, eax

; 216  : 	if( vItems.empty() )

  00028	8b 45 04	 mov	 eax, DWORD PTR [ebp+4]
  0002b	85 c0		 test	 eax, eax
  0002d	0f 84 f1 00 00
	00		 je	 $L210092
  00033	8b 4d 08	 mov	 ecx, DWORD PTR [ebp+8]
  00036	2b c8		 sub	 ecx, eax
  00038	b8 67 66 66 66	 mov	 eax, 1717986919		; 66666667H
  0003d	f7 e9		 imul	 ecx
  0003f	c1 fa 03	 sar	 edx, 3
  00042	8b c2		 mov	 eax, edx
  00044	c1 e8 1f	 shr	 eax, 31			; 0000001fH
  00047	03 c2		 add	 eax, edx
  00049	89 44 24 20	 mov	 DWORD PTR tv170[esp+24], eax
  0004d	0f 84 d1 00 00
	00		 je	 $L210092
  00053	53		 push	 ebx

; 217  : 		return;
; 218  : 	int nGenderFirst, nGenderSecond;
; 219  : 	nGenderFirst	= nGenderSecond	= SEX_SEXLESS;
; 220  : 	GetGender( pCouple, nGenderFirst, nGenderSecond );

  00054	8d 4c 24 18	 lea	 ecx, DWORD PTR _nGenderSecond$[esp+32]
  00058	51		 push	 ecx
  00059	8d 54 24 18	 lea	 edx, DWORD PTR _nGenderFirst$[esp+36]
  0005d	52		 push	 edx
  0005e	bb 02 00 00 00	 mov	 ebx, 2
  00063	57		 push	 edi
  00064	8b ce		 mov	 ecx, esi
  00066	89 5c 24 24	 mov	 DWORD PTR _nGenderSecond$[esp+44], ebx
  0006a	89 5c 24 20	 mov	 DWORD PTR _nGenderFirst$[esp+44], ebx
  0006e	e8 00 00 00 00	 call	 ?GetGender@CCoupleHelper@@AAEXPAVCCouple@@AAH1@Z ; CCoupleHelper::GetGender

; 221  : 
; 222  : 	for( DWORD i = 0; i < vItems.size(); i++ )

  00073	33 c0		 xor	 eax, eax
  00075	89 44 24 10	 mov	 DWORD PTR _i$206146[esp+32], eax
$L210094:
  00079	8b 75 04	 mov	 esi, DWORD PTR [ebp+4]
  0007c	85 f6		 test	 esi, esi
  0007e	89 44 24 24	 mov	 DWORD PTR tv354[esp+28], eax
  00082	0f 84 9b 00 00
	00		 je	 $L210093
  00088	8b 4d 08	 mov	 ecx, DWORD PTR [ebp+8]
  0008b	2b ce		 sub	 ecx, esi
  0008d	b8 67 66 66 66	 mov	 eax, 1717986919		; 66666667H
  00092	f7 e9		 imul	 ecx
  00094	8b 4c 24 10	 mov	 ecx, DWORD PTR _i$206146[esp+32]
  00098	c1 fa 03	 sar	 edx, 3
  0009b	8b c2		 mov	 eax, edx
  0009d	c1 e8 1f	 shr	 eax, 31			; 0000001fH
  000a0	03 c2		 add	 eax, edx
  000a2	3b c8		 cmp	 ecx, eax
  000a4	73 7d		 jae	 SHORT $L210093

; 223  : 	{
; 224  : 		if( vItems[i].nSex == SEX_SEXLESS || vItems[i].nSex == nGenderFirst )

  000a6	8b 44 24 24	 mov	 eax, DWORD PTR tv354[esp+28]
  000aa	03 f0		 add	 esi, eax
  000ac	8b 46 04	 mov	 eax, DWORD PTR [esi+4]
  000af	3b c3		 cmp	 eax, ebx
  000b1	74 08		 je	 SHORT $L206151
  000b3	8b 4c 24 14	 mov	 ecx, DWORD PTR _nGenderFirst$[esp+32]
  000b7	3b c1		 cmp	 eax, ecx
  000b9	75 1d		 jne	 SHORT $L206150
$L206151:

; 225  : 			PostItem( pCouple->GetFirst(), vItems[i], pCouple->GetLevel() );

  000bb	8b 5f 0c	 mov	 ebx, DWORD PTR [edi+12]
  000be	6a 00		 push	 0
  000c0	8b cf		 mov	 ecx, edi
  000c2	e8 00 00 00 00	 call	 ?GetLevel@CCouple@@QAEHH@Z ; CCouple::GetLevel
  000c7	8b 4c 24 1c	 mov	 ecx, DWORD PTR _this$[esp+32]
  000cb	50		 push	 eax
  000cc	56		 push	 esi
  000cd	53		 push	 ebx
  000ce	e8 00 00 00 00	 call	 ?PostItem@CCoupleHelper@@QAEXKABU_COUPLE_ITEM@@H@Z ; CCoupleHelper::PostItem
  000d3	bb 02 00 00 00	 mov	 ebx, 2
$L206150:

; 226  : 		if( vItems[i].nSex == SEX_SEXLESS || vItems[i].nSex == nGenderSecond )

  000d8	8b 44 24 24	 mov	 eax, DWORD PTR tv354[esp+28]
  000dc	8b 55 04	 mov	 edx, DWORD PTR [ebp+4]
  000df	8d 34 10	 lea	 esi, DWORD PTR [eax+edx]
  000e2	8b 46 04	 mov	 eax, DWORD PTR [esi+4]
  000e5	3b c3		 cmp	 eax, ebx
  000e7	74 08		 je	 SHORT $L206153
  000e9	8b 4c 24 18	 mov	 ecx, DWORD PTR _nGenderSecond$[esp+32]
  000ed	3b c1		 cmp	 eax, ecx
  000ef	75 1d		 jne	 SHORT $L206148
$L206153:

; 227  : 			PostItem( pCouple->GetSecond(), vItems[i], pCouple->GetLevel() );

  000f1	8b 5f 10	 mov	 ebx, DWORD PTR [edi+16]
  000f4	6a 00		 push	 0
  000f6	8b cf		 mov	 ecx, edi
  000f8	e8 00 00 00 00	 call	 ?GetLevel@CCouple@@QAEHH@Z ; CCouple::GetLevel
  000fd	8b 4c 24 1c	 mov	 ecx, DWORD PTR _this$[esp+32]
  00101	50		 push	 eax
  00102	56		 push	 esi
  00103	53		 push	 ebx
  00104	e8 00 00 00 00	 call	 ?PostItem@CCoupleHelper@@QAEXKABU_COUPLE_ITEM@@H@Z ; CCoupleHelper::PostItem
  00109	bb 02 00 00 00	 mov	 ebx, 2
$L206148:
  0010e	8b 4c 24 10	 mov	 ecx, DWORD PTR _i$206146[esp+32]
  00112	8b 44 24 24	 mov	 eax, DWORD PTR tv354[esp+28]
  00116	41		 inc	 ecx
  00117	89 4c 24 10	 mov	 DWORD PTR _i$206146[esp+32], ecx
  0011b	83 c0 14	 add	 eax, 20			; 00000014H
  0011e	e9 56 ff ff ff	 jmp	 $L210094
$L210093:
  00123	5b		 pop	 ebx
$L210092:
  00124	5f		 pop	 edi
  00125	5e		 pop	 esi
  00126	5d		 pop	 ebp

; 228  : 	}
; 229  : }

  00127	83 c4 10	 add	 esp, 16			; 00000010H
  0012a	c2 04 00	 ret	 4
?PostItem@CCoupleHelper@@QAEXPAVCCouple@@@Z ENDP	; CCoupleHelper::PostItem
_TEXT	ENDS
PUBLIC	?OnClearPropose@CCoupleHelper@@QAEXXZ		; CCoupleHelper::OnClearPropose
; Function compile flags: /Ogty
;	COMDAT ?OnClearPropose@CCoupleHelper@@QAEXXZ
_TEXT	SEGMENT
?OnClearPropose@CCoupleHelper@@QAEXXZ PROC NEAR		; CCoupleHelper::OnClearPropose, COMDAT
; _this$ = ecx

; 282  : {

  00000	56		 push	 esi
  00001	8b f1		 mov	 esi, ecx

; 283  : 	if( m_pController->DeletePropose( INT_MAX ) )

  00003	8b 0d 00 00 00
	00		 mov	 ecx, DWORD PTR ?g_appInfo@@3UAppInfo@@A
  00009	8b 46 08	 mov	 eax, DWORD PTR [esi+8]
  0000c	8b 40 0c	 mov	 eax, DWORD PTR [eax+12]
  0000f	68 ff ff ff 7f	 push	 2147483647		; 7fffffffH
  00014	51		 push	 ecx
  00015	68 00 00 00 00	 push	 OFFSET FLAT:??_C@_0BI@JKNBOMDJ@uspDeletePropose?5?$CFd?0?5?$CFd?$AA@
  0001a	50		 push	 eax
  0001b	e8 00 00 00 00	 call	 ?Execute@CQuery@@QAAHPBDZZ ; CQuery::Execute
  00020	83 c4 10	 add	 esp, 16			; 00000010H
  00023	85 c0		 test	 eax, eax
  00025	75 0f		 jne	 SHORT $L210106
  00027	68 00 00 00 00	 push	 OFFSET FLAT:??_C@_0CC@OACJEGKC@couldn?8t?5execute?5uspDeletePropos@
  0002c	e8 00 00 00 00	 call	 ?Error@@YAPBDPBDZZ	; Error
  00031	83 c4 04	 add	 esp, 4
  00034	5e		 pop	 esi

; 285  : }

  00035	c3		 ret	 0

; 283  : 	if( m_pController->DeletePropose( INT_MAX ) )

$L210106:

; 284  : 		m_mapProposes.clear();

  00036	8b 56 10	 mov	 edx, DWORD PTR [esi+16]
  00039	8b 42 04	 mov	 eax, DWORD PTR [edx+4]
  0003c	83 c6 0c	 add	 esi, 12			; 0000000cH
  0003f	50		 push	 eax
  00040	8b ce		 mov	 ecx, esi
  00042	e8 00 00 00 00	 call	 ?_Erase@?$_Tree@V?$_Tmap_traits@KJU?$less@K@std@@V?$allocator@U?$pair@$$CBKJ@std@@@2@$0A@@std@@@std@@IAEXPAU_Node@?$_Tree_nod@V?$_Tmap_traits@KJU?$less@K@std@@V?$allocator@U?$pair@$$CBKJ@std@@@2@$0A@@std@@@2@@Z ; std::_Tree<std::_Tmap_traits<unsigned long,long,std::less<unsigned long>,std::allocator<std::pair<unsigned long const ,long> >,0> >::_Erase
  00047	8b 46 04	 mov	 eax, DWORD PTR [esi+4]
  0004a	89 40 04	 mov	 DWORD PTR [eax+4], eax
  0004d	8b 46 04	 mov	 eax, DWORD PTR [esi+4]
  00050	c7 46 08 00 00
	00 00		 mov	 DWORD PTR [esi+8], 0
  00057	89 00		 mov	 DWORD PTR [eax], eax
  00059	8b 76 04	 mov	 esi, DWORD PTR [esi+4]
  0005c	89 76 08	 mov	 DWORD PTR [esi+8], esi
  0005f	5e		 pop	 esi

; 285  : }

  00060	c3		 ret	 0
?OnClearPropose@CCoupleHelper@@QAEXXZ ENDP		; CCoupleHelper::OnClearPropose
_TEXT	ENDS
PUBLIC	?GetPropose@CCoupleHelper@@QAEJK@Z		; CCoupleHelper::GetPropose
; Function compile flags: /Ogty
;	COMDAT ?GetPropose@CCoupleHelper@@QAEJK@Z
_TEXT	SEGMENT
_i$ = -4						; size = 4
_idPlayer$ = 8						; size = 4
?GetPropose@CCoupleHelper@@QAEJK@Z PROC NEAR		; CCoupleHelper::GetPropose, COMDAT
; _this$ = ecx

; 346  : {

  00000	51		 push	 ecx
  00001	56		 push	 esi
  00002	8b f1		 mov	 esi, ecx

; 347  : 	MUT::iterator i = m_mapProposes.find( idPlayer );

  00004	8d 44 24 0c	 lea	 eax, DWORD PTR _idPlayer$[esp+4]
  00008	50		 push	 eax
  00009	8d 4c 24 08	 lea	 ecx, DWORD PTR _i$[esp+12]
  0000d	51		 push	 ecx
  0000e	8d 4e 0c	 lea	 ecx, DWORD PTR [esi+12]
  00011	e8 00 00 00 00	 call	 ?find@?$_Tree@V?$_Tmap_traits@KJU?$less@K@std@@V?$allocator@U?$pair@$$CBKJ@std@@@2@$0A@@std@@@std@@QAE?AViterator@12@ABK@Z ; std::_Tree<std::_Tmap_traits<unsigned long,long,std::less<unsigned long>,std::allocator<std::pair<unsigned long const ,long> >,0> >::find

; 348  : 	if( i != m_mapProposes.end() )

  00016	8b 4e 10	 mov	 ecx, DWORD PTR [esi+16]
  00019	8b 44 24 04	 mov	 eax, DWORD PTR _i$[esp+8]
  0001d	3b c1		 cmp	 eax, ecx
  0001f	5e		 pop	 esi
  00020	74 07		 je	 SHORT $L206250

; 349  : 		return i->second;

  00022	8b 40 10	 mov	 eax, DWORD PTR [eax+16]

; 351  : }

  00025	59		 pop	 ecx
  00026	c2 04 00	 ret	 4
$L206250:

; 350  : 	return 0;

  00029	33 c0		 xor	 eax, eax

; 351  : }

  0002b	59		 pop	 ecx
  0002c	c2 04 00	 ret	 4
?GetPropose@CCoupleHelper@@QAEJK@Z ENDP			; CCoupleHelper::GetPropose
_TEXT	ENDS
PUBLIC	??0?$_Tree@V?$_Tmap_traits@KJU?$less@K@std@@V?$allocator@U?$pair@$$CBKJ@std@@@2@$0A@@std@@@std@@QAE@ABU?$less@K@1@ABV?$allocator@U?$pair@$$CBKJ@std@@@1@@Z ; std::_Tree<std::_Tmap_traits<unsigned long,long,std::less<unsigned long>,std::allocator<std::pair<unsigned long const ,long> >,0> >::_Tree<std::_Tmap_traits<unsigned long,long,std::less<unsigned long>,std::allocator<std::pair<unsigned long const ,long> >,0> >
; Function compile flags: /Ogty
; File c:\program files\microsoft visual studio .net 2003\vc7\include\xtree
;	COMDAT ??0?$_Tree@V?$_Tmap_traits@KJU?$less@K@std@@V?$allocator@U?$pair@$$CBKJ@std@@@2@$0A@@std@@@std@@QAE@ABU?$less@K@1@ABV?$allocator@U?$pair@$$CBKJ@std@@@1@@Z
_TEXT	SEGMENT
__Parg$ = 8						; size = 4
__Al$ = 12						; size = 4
??0?$_Tree@V?$_Tmap_traits@KJU?$less@K@std@@V?$allocator@U?$pair@$$CBKJ@std@@@2@$0A@@std@@@std@@QAE@ABU?$less@K@1@ABV?$allocator@U?$pair@$$CBKJ@std@@@1@@Z PROC NEAR ; std::_Tree<std::_Tmap_traits<unsigned long,long,std::less<unsigned long>,std::allocator<std::pair<unsigned long const ,long> >,0> >::_Tree<std::_Tmap_traits<unsigned long,long,std::less<unsigned long>,std::allocator<std::pair<unsigned long const ,long> >,0> >, COMDAT
; _this$ = ecx

; 361  : 		{	// construct empty tree

  00000	56		 push	 esi
  00001	8b f1		 mov	 esi, ecx

; 362  : 		_Init();

  00003	e8 00 00 00 00	 call	 ?_Buynode@?$_Tree@V?$_Tmap_traits@KJU?$less@K@std@@V?$allocator@U?$pair@$$CBKJ@std@@@2@$0A@@std@@@std@@IAEPAU_Node@?$_Tree_nod@V?$_Tmap_traits@KJU?$less@K@std@@V?$allocator@U?$pair@$$CBKJ@std@@@2@$0A@@std@@@2@XZ ; std::_Tree<std::_Tmap_traits<unsigned long,long,std::less<unsigned long>,std::allocator<std::pair<unsigned long const ,long> >,0> >::_Buynode
  00008	89 46 04	 mov	 DWORD PTR [esi+4], eax
  0000b	c6 40 15 01	 mov	 BYTE PTR [eax+21], 1
  0000f	8b 46 04	 mov	 eax, DWORD PTR [esi+4]
  00012	89 40 04	 mov	 DWORD PTR [eax+4], eax
  00015	8b 46 04	 mov	 eax, DWORD PTR [esi+4]
  00018	89 00		 mov	 DWORD PTR [eax], eax
  0001a	8b 46 04	 mov	 eax, DWORD PTR [esi+4]
  0001d	89 40 08	 mov	 DWORD PTR [eax+8], eax
  00020	c7 46 08 00 00
	00 00		 mov	 DWORD PTR [esi+8], 0

; 363  : 		}

  00027	8b c6		 mov	 eax, esi
  00029	5e		 pop	 esi
  0002a	c2 08 00	 ret	 8
??0?$_Tree@V?$_Tmap_traits@KJU?$less@K@std@@V?$allocator@U?$pair@$$CBKJ@std@@@2@$0A@@std@@@std@@QAE@ABU?$less@K@1@ABV?$allocator@U?$pair@$$CBKJ@std@@@1@@Z ENDP ; std::_Tree<std::_Tmap_traits<unsigned long,long,std::less<unsigned long>,std::allocator<std::pair<unsigned long const ,long> >,0> >::_Tree<std::_Tmap_traits<unsigned long,long,std::less<unsigned long>,std::allocator<std::pair<unsigned long const ,long> >,0> >
_TEXT	ENDS
PUBLIC	??_7logic_error@std@@6B@			; std::logic_error::`vftable'
PUBLIC	??_Glogic_error@std@@UAEPAXI@Z			; std::logic_error::`scalar deleting destructor'
PUBLIC	??1logic_error@std@@UAE@XZ			; std::logic_error::~logic_error
PUBLIC	?what@logic_error@std@@UBEPBDXZ			; std::logic_error::what
EXTRN	??_Elogic_error@std@@UAEPAXI@Z:NEAR		; std::logic_error::`vector deleting destructor'
EXTRN	??1exception@@UAE@XZ:NEAR			; exception::~exception
;	COMDAT ??_7logic_error@std@@6B@
; File c:\program files\microsoft visual studio .net 2003\vc7\include\iosfwd
CONST	SEGMENT
??_7logic_error@std@@6B@ DD FLAT:??_Elogic_error@std@@UAEPAXI@Z ; std::logic_error::`vftable'
	DD	FLAT:?what@logic_error@std@@UBEPBDXZ
; Function compile flags: /Ogty
; File c:\program files\microsoft visual studio .net 2003\vc7\include\stdexcept
CONST	ENDS
;	COMDAT ??1logic_error@std@@UAE@XZ
_TEXT	SEGMENT
??1logic_error@std@@UAE@XZ PROC NEAR			; std::logic_error::~logic_error, COMDAT
; _this$ = ecx

; 23   : 		{}	// destroy the object

  00000	56		 push	 esi
  00001	8b f1		 mov	 esi, ecx
  00003	c7 06 00 00 00
	00		 mov	 DWORD PTR [esi], OFFSET FLAT:??_7logic_error@std@@6B@
  00009	83 7e 24 10	 cmp	 DWORD PTR [esi+36], 16	; 00000010H
  0000d	72 0c		 jb	 SHORT $L210399
  0000f	8b 46 10	 mov	 eax, DWORD PTR [esi+16]
  00012	50		 push	 eax
  00013	e8 00 00 00 00	 call	 ??3@YAXPAX@Z		; operator delete
  00018	83 c4 04	 add	 esp, 4
$L210399:
  0001b	33 c0		 xor	 eax, eax
  0001d	c7 46 24 0f 00
	00 00		 mov	 DWORD PTR [esi+36], 15	; 0000000fH
  00024	89 46 20	 mov	 DWORD PTR [esi+32], eax
  00027	88 46 10	 mov	 BYTE PTR [esi+16], al
  0002a	8b ce		 mov	 ecx, esi
  0002c	5e		 pop	 esi
  0002d	e9 00 00 00 00	 jmp	 ??1exception@@UAE@XZ	; exception::~exception
??1logic_error@std@@UAE@XZ ENDP				; std::logic_error::~logic_error
; Function compile flags: /Ogty
_TEXT	ENDS
;	COMDAT ?what@logic_error@std@@UBEPBDXZ
_TEXT	SEGMENT
?what@logic_error@std@@UBEPBDXZ PROC NEAR		; std::logic_error::what, COMDAT
; _this$ = ecx

; 27   : 		return (_Str.c_str());

  00000	83 79 24 10	 cmp	 DWORD PTR [ecx+36], 16	; 00000010H
  00004	72 04		 jb	 SHORT $L210425
  00006	8b 41 10	 mov	 eax, DWORD PTR [ecx+16]

; 28   : 		}

  00009	c3		 ret	 0

; 27   : 		return (_Str.c_str());

$L210425:
  0000a	8d 41 10	 lea	 eax, DWORD PTR [ecx+16]

; 28   : 		}

  0000d	c3		 ret	 0
?what@logic_error@std@@UBEPBDXZ ENDP			; std::logic_error::what
; Function compile flags: /Ogty
_TEXT	ENDS
;	COMDAT ??_Glogic_error@std@@UAEPAXI@Z
_TEXT	SEGMENT
___flags$ = 8						; size = 4
??_Glogic_error@std@@UAEPAXI@Z PROC NEAR		; std::logic_error::`scalar deleting destructor', COMDAT
; _this$ = ecx
  00000	56		 push	 esi
  00001	8b f1		 mov	 esi, ecx
  00003	e8 00 00 00 00	 call	 ??1logic_error@std@@UAE@XZ ; std::logic_error::~logic_error
  00008	f6 44 24 08 01	 test	 BYTE PTR ___flags$[esp], 1
  0000d	74 09		 je	 SHORT $L210431
  0000f	56		 push	 esi
  00010	e8 00 00 00 00	 call	 ??3@YAXPAX@Z		; operator delete
  00015	83 c4 04	 add	 esp, 4
$L210431:
  00018	8b c6		 mov	 eax, esi
  0001a	5e		 pop	 esi
  0001b	c2 04 00	 ret	 4
??_Glogic_error@std@@UAEPAXI@Z ENDP			; std::logic_error::`scalar deleting destructor'
_TEXT	ENDS
PUBLIC	?assign@?$basic_string@DU?$char_traits@D@std@@V?$allocator@D@2@@std@@QAEAAV12@ABV12@II@Z ; std::basic_string<char,std::char_traits<char>,std::allocator<char> >::assign
; Function compile flags: /Ogty
; File c:\program files\microsoft visual studio .net 2003\vc7\include\xstring
;	COMDAT ?assign@?$basic_string@DU?$char_traits@D@std@@V?$allocator@D@2@@std@@QAEAAV12@ABV12@II@Z
_TEXT	SEGMENT
__Right$ = 8						; size = 4
__Roff$ = 12						; size = 4
__Count$ = 16						; size = 4
?assign@?$basic_string@DU?$char_traits@D@std@@V?$allocator@D@2@@std@@QAEAAV12@ABV12@II@Z PROC NEAR ; std::basic_string<char,std::char_traits<char>,std::allocator<char> >::assign, COMDAT
; _this$ = ecx

; 590  : 		{	// assign _Right [_Roff, _Roff + _Count)

  00000	53		 push	 ebx
  00001	55		 push	 ebp
  00002	56		 push	 esi

; 591  : 		if (_Right.size() < _Roff)

  00003	8b 74 24 14	 mov	 esi, DWORD PTR __Roff$[esp+8]
  00007	57		 push	 edi
  00008	8b 7c 24 14	 mov	 edi, DWORD PTR __Right$[esp+12]
  0000c	39 77 14	 cmp	 DWORD PTR [edi+20], esi
  0000f	8b d9		 mov	 ebx, ecx
  00011	73 05		 jae	 SHORT $L184271

; 592  : 			_String_base::_Xran();	// _Roff off end

  00013	e8 00 00 00 00	 call	 ?_Xran@_String_base@std@@QBEXXZ ; std::_String_base::_Xran
$L184271:

; 593  : 		size_type _Num = _Right.size() - _Roff;

  00018	8b 6f 14	 mov	 ebp, DWORD PTR [edi+20]

; 594  : 		if (_Count < _Num)

  0001b	8b 44 24 1c	 mov	 eax, DWORD PTR __Count$[esp+12]
  0001f	2b ee		 sub	 ebp, esi
  00021	3b c5		 cmp	 eax, ebp
  00023	73 02		 jae	 SHORT $L184273

; 595  : 			_Num = _Count;	// trim _Num to size

  00025	8b e8		 mov	 ebp, eax
$L184273:

; 596  : 
; 597  : 		if (this == &_Right)

  00027	3b df		 cmp	 ebx, edi
  00029	75 1f		 jne	 SHORT $L184274

; 598  : 			erase((size_type)(_Roff + _Num)), erase(0, _Roff);	// substring

  0002b	6a ff		 push	 -1
  0002d	03 ee		 add	 ebp, esi
  0002f	55		 push	 ebp
  00030	8b cb		 mov	 ecx, ebx
  00032	e8 00 00 00 00	 call	 ?erase@?$basic_string@DU?$char_traits@D@std@@V?$allocator@D@2@@std@@QAEAAV12@II@Z ; std::basic_string<char,std::char_traits<char>,std::allocator<char> >::erase
  00037	56		 push	 esi
  00038	6a 00		 push	 0
  0003a	8b cb		 mov	 ecx, ebx
  0003c	e8 00 00 00 00	 call	 ?erase@?$basic_string@DU?$char_traits@D@std@@V?$allocator@D@2@@std@@QAEAAV12@II@Z ; std::basic_string<char,std::char_traits<char>,std::allocator<char> >::erase
  00041	5f		 pop	 edi
  00042	5e		 pop	 esi
  00043	5d		 pop	 ebp

; 603  : 			}
; 604  : 		return (*this);

  00044	8b c3		 mov	 eax, ebx
  00046	5b		 pop	 ebx

; 605  : 		}

  00047	c2 0c 00	 ret	 12			; 0000000cH
$L184274:

; 599  : 		else if (_Grow(_Num))

  0004a	83 fd fe	 cmp	 ebp, -2			; fffffffeH
  0004d	76 07		 jbe	 SHORT $L210581
  0004f	8b cb		 mov	 ecx, ebx
  00051	e8 00 00 00 00	 call	 ?_Xlen@_String_base@std@@QBEXXZ ; std::_String_base::_Xlen
$L210581:
  00056	8b 43 18	 mov	 eax, DWORD PTR [ebx+24]
  00059	3b c5		 cmp	 eax, ebp
  0005b	73 21		 jae	 SHORT $L210582
  0005d	8b 43 14	 mov	 eax, DWORD PTR [ebx+20]
  00060	50		 push	 eax
  00061	55		 push	 ebp
  00062	8b cb		 mov	 ecx, ebx
  00064	e8 00 00 00 00	 call	 ?_Copy@?$basic_string@DU?$char_traits@D@std@@V?$allocator@D@2@@std@@IAEXII@Z ; std::basic_string<char,std::char_traits<char>,std::allocator<char> >::_Copy
  00069	85 ed		 test	 ebp, ebp
$L210627:
  0006b	76 6d		 jbe	 SHORT $L210626

; 600  : 			{	// make room and assign new stuff
; 601  : 			_Traits::copy(_Myptr(), _Right._Myptr() + _Roff, _Num);

  0006d	8b 4f 18	 mov	 ecx, DWORD PTR [edi+24]
  00070	b8 10 00 00 00	 mov	 eax, 16			; 00000010H
  00075	3b c8		 cmp	 ecx, eax
  00077	72 2f		 jb	 SHORT $L210592
  00079	8b 57 04	 mov	 edx, DWORD PTR [edi+4]
  0007c	eb 2d		 jmp	 SHORT $L210593

; 599  : 		else if (_Grow(_Num))

$L210582:
  0007e	85 ed		 test	 ebp, ebp
  00080	75 e9		 jne	 SHORT $L210627
  00082	83 f8 10	 cmp	 eax, 16			; 00000010H
  00085	89 6b 14	 mov	 DWORD PTR [ebx+20], ebp
  00088	72 0f		 jb	 SHORT $L210574
  0008a	8b 43 04	 mov	 eax, DWORD PTR [ebx+4]
  0008d	5f		 pop	 edi
  0008e	5e		 pop	 esi
  0008f	c6 00 00	 mov	 BYTE PTR [eax], 0
  00092	5d		 pop	 ebp

; 603  : 			}
; 604  : 		return (*this);

  00093	8b c3		 mov	 eax, ebx
  00095	5b		 pop	 ebx

; 605  : 		}

  00096	c2 0c 00	 ret	 12			; 0000000cH

; 599  : 		else if (_Grow(_Num))

$L210574:
  00099	5f		 pop	 edi
  0009a	8d 43 04	 lea	 eax, DWORD PTR [ebx+4]
  0009d	5e		 pop	 esi
  0009e	c6 00 00	 mov	 BYTE PTR [eax], 0
  000a1	5d		 pop	 ebp

; 603  : 			}
; 604  : 		return (*this);

  000a2	8b c3		 mov	 eax, ebx
  000a4	5b		 pop	 ebx

; 605  : 		}

  000a5	c2 0c 00	 ret	 12			; 0000000cH

; 600  : 			{	// make room and assign new stuff
; 601  : 			_Traits::copy(_Myptr(), _Right._Myptr() + _Roff, _Num);

$L210592:
  000a8	8d 57 04	 lea	 edx, DWORD PTR [edi+4]
$L210593:
  000ab	39 43 18	 cmp	 DWORD PTR [ebx+24], eax
  000ae	8d 43 04	 lea	 eax, DWORD PTR [ebx+4]
  000b1	72 04		 jb	 SHORT $L210598
  000b3	8b 38		 mov	 edi, DWORD PTR [eax]
  000b5	eb 02		 jmp	 SHORT $L210599
$L210598:
  000b7	8b f8		 mov	 edi, eax
$L210599:
  000b9	03 f2		 add	 esi, edx
  000bb	8b cd		 mov	 ecx, ebp
  000bd	8b d1		 mov	 edx, ecx
  000bf	c1 e9 02	 shr	 ecx, 2
  000c2	f3 a5		 rep movsd
  000c4	8b ca		 mov	 ecx, edx
  000c6	83 e1 03	 and	 ecx, 3
  000c9	f3 a4		 rep movsb

; 602  : 			_Eos(_Num);

  000cb	83 7b 18 10	 cmp	 DWORD PTR [ebx+24], 16	; 00000010H
  000cf	89 6b 14	 mov	 DWORD PTR [ebx+20], ebp
  000d2	72 02		 jb	 SHORT $L210622
  000d4	8b 00		 mov	 eax, DWORD PTR [eax]
$L210622:
  000d6	c6 04 28 00	 mov	 BYTE PTR [eax+ebp], 0
$L210626:
  000da	5f		 pop	 edi
  000db	5e		 pop	 esi
  000dc	5d		 pop	 ebp

; 603  : 			}
; 604  : 		return (*this);

  000dd	8b c3		 mov	 eax, ebx
  000df	5b		 pop	 ebx

; 605  : 		}

  000e0	c2 0c 00	 ret	 12			; 0000000cH
?assign@?$basic_string@DU?$char_traits@D@std@@V?$allocator@D@2@@std@@QAEAAV12@ABV12@II@Z ENDP ; std::basic_string<char,std::char_traits<char>,std::allocator<char> >::assign
_TEXT	ENDS
PUBLIC	?assign@?$basic_string@DU?$char_traits@D@std@@V?$allocator@D@2@@std@@QAEAAV12@PBDI@Z ; std::basic_string<char,std::char_traits<char>,std::allocator<char> >::assign
; Function compile flags: /Ogty
;	COMDAT ?assign@?$basic_string@DU?$char_traits@D@std@@V?$allocator@D@2@@std@@QAEAAV12@PBDI@Z
_TEXT	SEGMENT
__Ptr$ = 8						; size = 4
__Num$ = 12						; size = 4
?assign@?$basic_string@DU?$char_traits@D@std@@V?$allocator@D@2@@std@@QAEAAV12@PBDI@Z PROC NEAR ; std::basic_string<char,std::char_traits<char>,std::allocator<char> >::assign, COMDAT
; _this$ = ecx

; 608  : 		{	// assign [_Ptr, _Ptr + _Num)

  00000	53		 push	 ebx
  00001	8b d9		 mov	 ebx, ecx

; 609  : 		if (_Inside(_Ptr))

  00003	8b 53 18	 mov	 edx, DWORD PTR [ebx+24]
  00006	83 fa 10	 cmp	 edx, 16			; 00000010H
  00009	56		 push	 esi
  0000a	57		 push	 edi
  0000b	72 05		 jb	 SHORT $L210652
  0000d	8b 43 04	 mov	 eax, DWORD PTR [ebx+4]
  00010	eb 03		 jmp	 SHORT $L210653
$L210652:
  00012	8d 43 04	 lea	 eax, DWORD PTR [ebx+4]
$L210653:
  00015	8b 74 24 10	 mov	 esi, DWORD PTR __Ptr$[esp+8]
  00019	3b f0		 cmp	 esi, eax
  0001b	72 34		 jb	 SHORT $L184989
  0001d	83 fa 10	 cmp	 edx, 16			; 00000010H
  00020	8d 43 04	 lea	 eax, DWORD PTR [ebx+4]
  00023	72 04		 jb	 SHORT $L210656
  00025	8b 08		 mov	 ecx, DWORD PTR [eax]
  00027	eb 02		 jmp	 SHORT $L210657
$L210656:
  00029	8b c8		 mov	 ecx, eax
$L210657:
  0002b	8b 7b 14	 mov	 edi, DWORD PTR [ebx+20]
  0002e	03 f9		 add	 edi, ecx
  00030	3b fe		 cmp	 edi, esi
  00032	76 1d		 jbe	 SHORT $L184989

; 610  : 			return (assign(*this, _Ptr - _Myptr(), _Num));	// substring

  00034	83 fa 10	 cmp	 edx, 16			; 00000010H
  00037	72 02		 jb	 SHORT $L210665
  00039	8b 00		 mov	 eax, DWORD PTR [eax]
$L210665:
  0003b	8b 4c 24 14	 mov	 ecx, DWORD PTR __Num$[esp+8]
  0003f	51		 push	 ecx
  00040	2b f0		 sub	 esi, eax
  00042	56		 push	 esi
  00043	53		 push	 ebx
  00044	8b cb		 mov	 ecx, ebx
  00046	e8 00 00 00 00	 call	 ?assign@?$basic_string@DU?$char_traits@D@std@@V?$allocator@D@2@@std@@QAEAAV12@ABV12@II@Z ; std::basic_string<char,std::char_traits<char>,std::allocator<char> >::assign
  0004b	5f		 pop	 edi
  0004c	5e		 pop	 esi
  0004d	5b		 pop	 ebx

; 618  : 		}

  0004e	c2 08 00	 ret	 8
$L184989:
  00051	55		 push	 ebp

; 611  : 
; 612  : 		if (_Grow(_Num))

  00052	8b 6c 24 18	 mov	 ebp, DWORD PTR __Num$[esp+12]
  00056	83 fd fe	 cmp	 ebp, -2			; fffffffeH
  00059	76 07		 jbe	 SHORT $L210763
  0005b	8b cb		 mov	 ecx, ebx
  0005d	e8 00 00 00 00	 call	 ?_Xlen@_String_base@std@@QBEXXZ ; std::_String_base::_Xlen
$L210763:
  00062	8b 43 18	 mov	 eax, DWORD PTR [ebx+24]
  00065	3b c5		 cmp	 eax, ebp
  00067	73 1b		 jae	 SHORT $L210764
  00069	8b 53 14	 mov	 edx, DWORD PTR [ebx+20]
  0006c	52		 push	 edx
  0006d	55		 push	 ebp
  0006e	8b cb		 mov	 ecx, ebx
  00070	e8 00 00 00 00	 call	 ?_Copy@?$basic_string@DU?$char_traits@D@std@@V?$allocator@D@2@@std@@IAEXII@Z ; std::basic_string<char,std::char_traits<char>,std::allocator<char> >::_Copy
  00075	85 ed		 test	 ebp, ebp
$L210844:
  00077	76 68		 jbe	 SHORT $L210842

; 613  : 			{	// make room and assign new stuff
; 614  : 			_Traits::copy(_Myptr(), _Ptr, _Num);

  00079	83 7b 18 10	 cmp	 DWORD PTR [ebx+24], 16	; 00000010H
  0007d	72 2f		 jb	 SHORT $L210816
  0007f	8b 7b 04	 mov	 edi, DWORD PTR [ebx+4]
  00082	eb 2d		 jmp	 SHORT $L210817

; 611  : 
; 612  : 		if (_Grow(_Num))

$L210764:
  00084	85 ed		 test	 ebp, ebp
  00086	75 ef		 jne	 SHORT $L210844
  00088	83 f8 10	 cmp	 eax, 16			; 00000010H
  0008b	89 6b 14	 mov	 DWORD PTR [ebx+20], ebp
  0008e	72 0f		 jb	 SHORT $L210807
  00090	8b 43 04	 mov	 eax, DWORD PTR [ebx+4]
  00093	5d		 pop	 ebp
  00094	5f		 pop	 edi
  00095	c6 00 00	 mov	 BYTE PTR [eax], 0
  00098	5e		 pop	 esi

; 616  : 			}
; 617  : 		return (*this);

  00099	8b c3		 mov	 eax, ebx
  0009b	5b		 pop	 ebx

; 618  : 		}

  0009c	c2 08 00	 ret	 8

; 611  : 
; 612  : 		if (_Grow(_Num))

$L210807:
  0009f	5d		 pop	 ebp
  000a0	8d 43 04	 lea	 eax, DWORD PTR [ebx+4]
  000a3	5f		 pop	 edi
  000a4	c6 00 00	 mov	 BYTE PTR [eax], 0
  000a7	5e		 pop	 esi

; 616  : 			}
; 617  : 		return (*this);

  000a8	8b c3		 mov	 eax, ebx
  000aa	5b		 pop	 ebx

; 618  : 		}

  000ab	c2 08 00	 ret	 8

; 613  : 			{	// make room and assign new stuff
; 614  : 			_Traits::copy(_Myptr(), _Ptr, _Num);

$L210816:
  000ae	8d 7b 04	 lea	 edi, DWORD PTR [ebx+4]
$L210817:
  000b1	8b cd		 mov	 ecx, ebp
  000b3	8b c1		 mov	 eax, ecx
  000b5	c1 e9 02	 shr	 ecx, 2
  000b8	f3 a5		 rep movsd
  000ba	8b c8		 mov	 ecx, eax
  000bc	83 e1 03	 and	 ecx, 3
  000bf	f3 a4		 rep movsb

; 615  : 			_Eos(_Num);

  000c1	83 7b 18 10	 cmp	 DWORD PTR [ebx+24], 16	; 00000010H
  000c5	89 6b 14	 mov	 DWORD PTR [ebx+20], ebp
  000c8	72 10		 jb	 SHORT $L210839
  000ca	8b 43 04	 mov	 eax, DWORD PTR [ebx+4]
  000cd	c6 04 28 00	 mov	 BYTE PTR [eax+ebp], 0
  000d1	5d		 pop	 ebp
  000d2	5f		 pop	 edi
  000d3	5e		 pop	 esi

; 616  : 			}
; 617  : 		return (*this);

  000d4	8b c3		 mov	 eax, ebx
  000d6	5b		 pop	 ebx

; 618  : 		}

  000d7	c2 08 00	 ret	 8

; 615  : 			_Eos(_Num);

$L210839:
  000da	8d 43 04	 lea	 eax, DWORD PTR [ebx+4]
  000dd	c6 04 28 00	 mov	 BYTE PTR [eax+ebp], 0
$L210842:
  000e1	5d		 pop	 ebp
  000e2	5f		 pop	 edi
  000e3	5e		 pop	 esi

; 616  : 			}
; 617  : 		return (*this);

  000e4	8b c3		 mov	 eax, ebx
  000e6	5b		 pop	 ebx

; 618  : 		}

  000e7	c2 08 00	 ret	 8
?assign@?$basic_string@DU?$char_traits@D@std@@V?$allocator@D@2@@std@@QAEAAV12@PBDI@Z ENDP ; std::basic_string<char,std::char_traits<char>,std::allocator<char> >::assign
_TEXT	ENDS
PUBLIC	??_C@_0CL@FHEKPCEP@?6T?3?5CCoupleHelper?4OnAddExperienc@ ; `string'
PUBLIC	?OnAddExperience@CCoupleHelper@@QAEXAAVCAr@@@Z	; CCoupleHelper::OnAddExperience
EXTRN	?AddExperience@CCouple@@QAEHH@Z:NEAR		; CCouple::AddExperience
EXTRN	?SendAddCoupleExperience@CDPTrans@@QAEXKH@Z:NEAR ; CDPTrans::SendAddCoupleExperience
;	COMDAT ??_C@_0CL@FHEKPCEP@?6T?3?5CCoupleHelper?4OnAddExperienc@
; File c:\documents and settings\test\mes documents\source\virtuos_v17\build\program\databaseserver\dbcontroller.h
CONST	SEGMENT
??_C@_0CL@FHEKPCEP@?6T?3?5CCoupleHelper?4OnAddExperienc@ DB 0aH, 'T: CCou'
	DB	'pleHelper.OnAddExperience: %d, %d', 0aH, 00H ; `string'
; Function compile flags: /Ogty
; File c:\documents and settings\test\mes documents\source\virtuos_v17\build\program\databaseserver\couplehelper.cpp
CONST	ENDS
;	COMDAT ?OnAddExperience@CCoupleHelper@@QAEXAAVCAr@@@Z
_TEXT	SEGMENT
_ar$ = 8						; size = 4
?OnAddExperience@CCoupleHelper@@QAEXAAVCAr@@@Z PROC NEAR ; CCoupleHelper::OnAddExperience, COMDAT
; _this$ = ecx

; 196  : 	u_long idPlayer;
; 197  : 	int nExperience;
; 198  : 	ar >> idPlayer >> nExperience;

  00000	8b 44 24 04	 mov	 eax, DWORD PTR _ar$[esp-4]
  00004	8b 50 08	 mov	 edx, DWORD PTR [eax+8]
  00007	53		 push	 ebx
  00008	55		 push	 ebp
  00009	56		 push	 esi
  0000a	8b e9		 mov	 ebp, ecx
  0000c	8b 48 0c	 mov	 ecx, DWORD PTR [eax+12]
  0000f	8d 72 04	 lea	 esi, DWORD PTR [edx+4]
  00012	3b f1		 cmp	 esi, ecx
  00014	57		 push	 edi
  00015	77 07		 ja	 SHORT $L210849
  00017	8b 3a		 mov	 edi, DWORD PTR [edx]
  00019	89 70 08	 mov	 DWORD PTR [eax+8], esi
  0001c	eb 05		 jmp	 SHORT $L210850
$L210849:
  0001e	33 ff		 xor	 edi, edi
  00020	89 48 08	 mov	 DWORD PTR [eax+8], ecx
$L210850:
  00023	8b 50 08	 mov	 edx, DWORD PTR [eax+8]
  00026	8d 5a 04	 lea	 ebx, DWORD PTR [edx+4]
  00029	3b d9		 cmp	 ebx, ecx
  0002b	77 07		 ja	 SHORT $L210861
  0002d	8b 32		 mov	 esi, DWORD PTR [edx]
  0002f	89 58 08	 mov	 DWORD PTR [eax+8], ebx
  00032	eb 05		 jmp	 SHORT $L210862
$L210861:
  00034	33 f6		 xor	 esi, esi
  00036	89 48 08	 mov	 DWORD PTR [eax+8], ecx
$L210862:

; 199  : 	election::OutputDebugString( "\nT: CCoupleHelper.OnAddExperience: %d, %d\n", idPlayer, nExperience );

  00039	56		 push	 esi
  0003a	57		 push	 edi
  0003b	68 00 00 00 00	 push	 OFFSET FLAT:??_C@_0CL@FHEKPCEP@?6T?3?5CCoupleHelper?4OnAddExperienc@
  00040	e8 00 00 00 00	 call	 ?OutputDebugStringA@election@@YAXPBDZZ ; election::OutputDebugStringA

; 200  : 	CCouple* pCouple	= m_pMgr->GetCouple( idPlayer );

  00045	8b 4d 04	 mov	 ecx, DWORD PTR [ebp+4]
  00048	83 c4 0c	 add	 esp, 12			; 0000000cH
  0004b	57		 push	 edi
  0004c	e8 00 00 00 00	 call	 ?GetCouple@CCoupleMgr@@QAEPAVCCouple@@K@Z ; CCoupleMgr::GetCouple
  00051	8b d8		 mov	 ebx, eax

; 201  : 	if( pCouple )

  00053	85 db		 test	 ebx, ebx
  00055	74 57		 je	 SHORT $L205880

; 202  : 	{
; 203  : 		if( m_pController->AddExperience( idPlayer, nExperience ) )

  00057	8b 0d 00 00 00
	00		 mov	 ecx, DWORD PTR ?g_appInfo@@3UAppInfo@@A
  0005d	8b 45 08	 mov	 eax, DWORD PTR [ebp+8]
  00060	8b 40 0c	 mov	 eax, DWORD PTR [eax+12]
  00063	56		 push	 esi
  00064	57		 push	 edi
  00065	51		 push	 ecx
  00066	68 00 00 00 00	 push	 OFFSET FLAT:??_C@_0CC@HOAMCAAD@uspAddCoupleExperience?5?$CFd?0?5?$CFd?0?5?$CF@
  0006b	50		 push	 eax
  0006c	e8 00 00 00 00	 call	 ?Execute@CQuery@@QAAHPBDZZ ; CQuery::Execute
  00071	83 c4 14	 add	 esp, 20			; 00000014H
  00074	85 c0		 test	 eax, eax
  00076	75 14		 jne	 SHORT $L210873
  00078	68 00 00 00 00	 push	 OFFSET FLAT:??_C@_0CI@CNMDKKBC@couldn?8t?5execute?5uspAddCoupleExp@
  0007d	e8 00 00 00 00	 call	 ?Error@@YAPBDPBDZZ	; Error
  00082	83 c4 04	 add	 esp, 4
  00085	5f		 pop	 edi
  00086	5e		 pop	 esi
  00087	5d		 pop	 ebp
  00088	5b		 pop	 ebx

; 209  : 		}
; 210  : 	}
; 211  : }

  00089	c2 04 00	 ret	 4

; 202  : 	{
; 203  : 		if( m_pController->AddExperience( idPlayer, nExperience ) )

$L210873:

; 204  : 		{
; 205  : 			BOOL bLevelup	= pCouple->AddExperience( nExperience );

  0008c	56		 push	 esi
  0008d	8b cb		 mov	 ecx, ebx
  0008f	e8 00 00 00 00	 call	 ?AddExperience@CCouple@@QAEHH@Z ; CCouple::AddExperience

; 206  : 			if( bLevelup )

  00094	85 c0		 test	 eax, eax
  00096	74 08		 je	 SHORT $L205882

; 207  : 				PostItem( pCouple );

  00098	53		 push	 ebx
  00099	8b cd		 mov	 ecx, ebp
  0009b	e8 00 00 00 00	 call	 ?PostItem@CCoupleHelper@@QAEXPAVCCouple@@@Z ; CCoupleHelper::PostItem
$L205882:

; 208  : 			CDPTrans::GetInstance()->SendAddCoupleExperience( idPlayer, nExperience );

  000a0	56		 push	 esi
  000a1	57		 push	 edi
  000a2	e8 00 00 00 00	 call	 ?GetInstance@CDPTrans@@SAPAV1@XZ ; CDPTrans::GetInstance
  000a7	8b c8		 mov	 ecx, eax
  000a9	e8 00 00 00 00	 call	 ?SendAddCoupleExperience@CDPTrans@@QAEXKH@Z ; CDPTrans::SendAddCoupleExperience
$L205880:
  000ae	5f		 pop	 edi
  000af	5e		 pop	 esi
  000b0	5d		 pop	 ebp
  000b1	5b		 pop	 ebx

; 209  : 		}
; 210  : 	}
; 211  : }

  000b2	c2 04 00	 ret	 4
?OnAddExperience@CCoupleHelper@@QAEXAAVCAr@@@Z ENDP	; CCoupleHelper::OnAddExperience
_TEXT	ENDS
PUBLIC	??0?$basic_string@DU?$char_traits@D@std@@V?$allocator@D@2@@std@@QAE@ABV01@@Z ; std::basic_string<char,std::char_traits<char>,std::allocator<char> >::basic_string<char,std::char_traits<char>,std::allocator<char> >
; Function compile flags: /Ogty
; File c:\program files\microsoft visual studio .net 2003\vc7\include\xstring
;	COMDAT ??0?$basic_string@DU?$char_traits@D@std@@V?$allocator@D@2@@std@@QAE@ABV01@@Z
_TEXT	SEGMENT
__Right$ = 8						; size = 4
??0?$basic_string@DU?$char_traits@D@std@@V?$allocator@D@2@@std@@QAE@ABV01@@Z PROC NEAR ; std::basic_string<char,std::char_traits<char>,std::allocator<char> >::basic_string<char,std::char_traits<char>,std::allocator<char> >, COMDAT
; _this$ = ecx

; 323  : 		{	// construct by copying _Right

  00000	56		 push	 esi

; 324  : 		_Tidy();

  00001	33 c0		 xor	 eax, eax
  00003	8b f1		 mov	 esi, ecx

; 325  : 		assign(_Right, 0, npos);

  00005	6a ff		 push	 -1
  00007	89 46 14	 mov	 DWORD PTR [esi+20], eax
  0000a	c7 46 18 0f 00
	00 00		 mov	 DWORD PTR [esi+24], 15	; 0000000fH
  00011	50		 push	 eax
  00012	88 46 04	 mov	 BYTE PTR [esi+4], al
  00015	8b 44 24 10	 mov	 eax, DWORD PTR __Right$[esp+8]
  00019	50		 push	 eax
  0001a	e8 00 00 00 00	 call	 ?assign@?$basic_string@DU?$char_traits@D@std@@V?$allocator@D@2@@std@@QAEAAV12@ABV12@II@Z ; std::basic_string<char,std::char_traits<char>,std::allocator<char> >::assign

; 326  : 		}

  0001f	8b c6		 mov	 eax, esi
  00021	5e		 pop	 esi
  00022	c2 04 00	 ret	 4
??0?$basic_string@DU?$char_traits@D@std@@V?$allocator@D@2@@std@@QAE@ABV01@@Z ENDP ; std::basic_string<char,std::char_traits<char>,std::allocator<char> >::basic_string<char,std::char_traits<char>,std::allocator<char> >
_TEXT	ENDS
PUBLIC	?assign@?$basic_string@DU?$char_traits@D@std@@V?$allocator@D@2@@std@@QAEAAV12@PBD@Z ; std::basic_string<char,std::char_traits<char>,std::allocator<char> >::assign
; Function compile flags: /Ogty
;	COMDAT ?assign@?$basic_string@DU?$char_traits@D@std@@V?$allocator@D@2@@std@@QAEAAV12@PBD@Z
_TEXT	SEGMENT
__Ptr$ = 8						; size = 4
?assign@?$basic_string@DU?$char_traits@D@std@@V?$allocator@D@2@@std@@QAEAAV12@PBD@Z PROC NEAR ; std::basic_string<char,std::char_traits<char>,std::allocator<char> >::assign, COMDAT
; _this$ = ecx

; 621  : 		{	// assign [_Ptr, <null>)

  00000	56		 push	 esi

; 622  : 		return (assign(_Ptr, _Traits::length(_Ptr)));

  00001	8b 74 24 08	 mov	 esi, DWORD PTR __Ptr$[esp]
  00005	8b c6		 mov	 eax, esi
  00007	57		 push	 edi
  00008	8d 78 01	 lea	 edi, DWORD PTR [eax+1]
  0000b	eb 03 8d 49 00	 npad	 5
$L210950:
  00010	8a 10		 mov	 dl, BYTE PTR [eax]
  00012	40		 inc	 eax
  00013	84 d2		 test	 dl, dl
  00015	75 f9		 jne	 SHORT $L210950
  00017	2b c7		 sub	 eax, edi
  00019	50		 push	 eax
  0001a	56		 push	 esi
  0001b	e8 00 00 00 00	 call	 ?assign@?$basic_string@DU?$char_traits@D@std@@V?$allocator@D@2@@std@@QAEAAV12@PBDI@Z ; std::basic_string<char,std::char_traits<char>,std::allocator<char> >::assign
  00020	5f		 pop	 edi
  00021	5e		 pop	 esi

; 623  : 		}

  00022	c2 04 00	 ret	 4
?assign@?$basic_string@DU?$char_traits@D@std@@V?$allocator@D@2@@std@@QAEAAV12@PBD@Z ENDP ; std::basic_string<char,std::char_traits<char>,std::allocator<char> >::assign
_TEXT	ENDS
PUBLIC	??0logic_error@std@@QAE@ABV?$basic_string@DU?$char_traits@D@std@@V?$allocator@D@2@@1@@Z ; std::logic_error::logic_error
EXTRN	??0exception@@QAE@XZ:NEAR			; exception::exception
;	COMDAT xdata$x
; File c:\program files\microsoft visual studio .net 2003\vc7\include\iosfwd
xdata$x	SEGMENT
$T211053 DD	0ffffffffH
	DD	FLAT:$L210953
$T211051 DD	019930520H
	DD	01H
	DD	FLAT:$T211053
	DD	2 DUP(00H)
	DD	2 DUP(00H)
; Function compile flags: /Ogty
; File c:\program files\microsoft visual studio .net 2003\vc7\include\stdexcept
xdata$x	ENDS
;	COMDAT ??0logic_error@std@@QAE@ABV?$basic_string@DU?$char_traits@D@std@@V?$allocator@D@2@@1@@Z
_TEXT	SEGMENT
_this$ = -16						; size = 4
__$EHRec$ = -12						; size = 12
__Message$ = 8						; size = 4
??0logic_error@std@@QAE@ABV?$basic_string@DU?$char_traits@D@std@@V?$allocator@D@2@@1@@Z PROC NEAR ; std::logic_error::logic_error, COMDAT
; _this$ = ecx

; 19   : 		{	// construct from message string

  00000	6a ff		 push	 -1
  00002	68 00 00 00 00	 push	 __ehhandler$??0logic_error@std@@QAE@ABV?$basic_string@DU?$char_traits@D@std@@V?$allocator@D@2@@1@@Z
  00007	64 a1 00 00 00
	00		 mov	 eax, DWORD PTR fs:__except_list
  0000d	50		 push	 eax
  0000e	64 89 25 00 00
	00 00		 mov	 DWORD PTR fs:__except_list, esp
  00015	51		 push	 ecx
  00016	56		 push	 esi
  00017	8b f1		 mov	 esi, ecx
  00019	89 74 24 04	 mov	 DWORD PTR _this$[esp+20], esi
  0001d	e8 00 00 00 00	 call	 ??0exception@@QAE@XZ	; exception::exception
  00022	33 c0		 xor	 eax, eax
  00024	8d 4e 0c	 lea	 ecx, DWORD PTR [esi+12]
  00027	c7 06 00 00 00
	00		 mov	 DWORD PTR [esi], OFFSET FLAT:??_7logic_error@std@@6B@
  0002d	6a ff		 push	 -1
  0002f	89 41 14	 mov	 DWORD PTR [ecx+20], eax
  00032	c7 41 18 0f 00
	00 00		 mov	 DWORD PTR [ecx+24], 15	; 0000000fH
  00039	50		 push	 eax
  0003a	89 44 24 18	 mov	 DWORD PTR __$EHRec$[esp+36], eax
  0003e	88 41 04	 mov	 BYTE PTR [ecx+4], al
  00041	8b 44 24 20	 mov	 eax, DWORD PTR __Message$[esp+24]
  00045	50		 push	 eax
  00046	e8 00 00 00 00	 call	 ?assign@?$basic_string@DU?$char_traits@D@std@@V?$allocator@D@2@@std@@QAEAAV12@ABV12@II@Z ; std::basic_string<char,std::char_traits<char>,std::allocator<char> >::assign

; 20   : 		}

  0004b	8b 4c 24 08	 mov	 ecx, DWORD PTR __$EHRec$[esp+20]
  0004f	8b c6		 mov	 eax, esi
  00051	5e		 pop	 esi
  00052	64 89 0d 00 00
	00 00		 mov	 DWORD PTR fs:__except_list, ecx
  00059	83 c4 10	 add	 esp, 16			; 00000010H
  0005c	c2 04 00	 ret	 4
_TEXT	ENDS
;	COMDAT text$x
text$x	SEGMENT
$L210953:
  00000	8b 4d f0	 mov	 ecx, DWORD PTR _this$[ebp]
  00003	e9 00 00 00 00	 jmp	 ??1exception@@UAE@XZ	; exception::~exception
__ehhandler$??0logic_error@std@@QAE@ABV?$basic_string@DU?$char_traits@D@std@@V?$allocator@D@2@@1@@Z:
  00008	b8 00 00 00 00	 mov	 eax, OFFSET FLAT:$T211051
  0000d	e9 00 00 00 00	 jmp	 ___CxxFrameHandler
text$x	ENDS
??0logic_error@std@@QAE@ABV?$basic_string@DU?$char_traits@D@std@@V?$allocator@D@2@@1@@Z ENDP ; std::logic_error::logic_error
PUBLIC	??0length_error@std@@QAE@ABV?$basic_string@DU?$char_traits@D@std@@V?$allocator@D@2@@1@@Z ; std::length_error::length_error
PUBLIC	??_7length_error@std@@6B@			; std::length_error::`vftable'
PUBLIC	??_Glength_error@std@@UAEPAXI@Z			; std::length_error::`scalar deleting destructor'
EXTRN	??_Elength_error@std@@UAEPAXI@Z:NEAR		; std::length_error::`vector deleting destructor'
;	COMDAT ??_7length_error@std@@6B@
CONST	SEGMENT
??_7length_error@std@@6B@ DD FLAT:??_Elength_error@std@@UAEPAXI@Z ; std::length_error::`vftable'
	DD	FLAT:?what@logic_error@std@@UBEPBDXZ
; Function compile flags: /Ogty
CONST	ENDS
;	COMDAT ??0length_error@std@@QAE@ABV?$basic_string@DU?$char_traits@D@std@@V?$allocator@D@2@@1@@Z
_TEXT	SEGMENT
__Message$ = 8						; size = 4
??0length_error@std@@QAE@ABV?$basic_string@DU?$char_traits@D@std@@V?$allocator@D@2@@1@@Z PROC NEAR ; std::length_error::length_error, COMDAT
; _this$ = ecx

; 95   : 		{	// construct from message string

  00000	8b 44 24 04	 mov	 eax, DWORD PTR __Message$[esp-4]
  00004	56		 push	 esi
  00005	50		 push	 eax
  00006	8b f1		 mov	 esi, ecx
  00008	e8 00 00 00 00	 call	 ??0logic_error@std@@QAE@ABV?$basic_string@DU?$char_traits@D@std@@V?$allocator@D@2@@1@@Z ; std::logic_error::logic_error
  0000d	c7 06 00 00 00
	00		 mov	 DWORD PTR [esi], OFFSET FLAT:??_7length_error@std@@6B@

; 96   : 		}

  00013	8b c6		 mov	 eax, esi
  00015	5e		 pop	 esi
  00016	c2 04 00	 ret	 4
??0length_error@std@@QAE@ABV?$basic_string@DU?$char_traits@D@std@@V?$allocator@D@2@@1@@Z ENDP ; std::length_error::length_error
_TEXT	ENDS
PUBLIC	??1length_error@std@@UAE@XZ			; std::length_error::~length_error
; Function compile flags: /Ogty
;	COMDAT ??_Glength_error@std@@UAEPAXI@Z
_TEXT	SEGMENT
___flags$ = 8						; size = 4
??_Glength_error@std@@UAEPAXI@Z PROC NEAR		; std::length_error::`scalar deleting destructor', COMDAT
; _this$ = ecx
  00000	56		 push	 esi
  00001	8b f1		 mov	 esi, ecx
  00003	e8 00 00 00 00	 call	 ??1length_error@std@@UAE@XZ ; std::length_error::~length_error
  00008	f6 44 24 08 01	 test	 BYTE PTR ___flags$[esp], 1
  0000d	74 09		 je	 SHORT $L211061
  0000f	56		 push	 esi
  00010	e8 00 00 00 00	 call	 ??3@YAXPAX@Z		; operator delete
  00015	83 c4 04	 add	 esp, 4
$L211061:
  00018	8b c6		 mov	 eax, esi
  0001a	5e		 pop	 esi
  0001b	c2 04 00	 ret	 4
??_Glength_error@std@@UAEPAXI@Z ENDP			; std::length_error::`scalar deleting destructor'
; Function compile flags: /Ogty
_TEXT	ENDS
;	COMDAT ??1length_error@std@@UAE@XZ
_TEXT	SEGMENT
??1length_error@std@@UAE@XZ PROC NEAR			; std::length_error::~length_error, COMDAT
; _this$ = ecx

; 99   : 		{}	// destroy the object

  00000	56		 push	 esi
  00001	8b f1		 mov	 esi, ecx
  00003	c7 06 00 00 00
	00		 mov	 DWORD PTR [esi], OFFSET FLAT:??_7logic_error@std@@6B@
  00009	83 7e 24 10	 cmp	 DWORD PTR [esi+36], 16	; 00000010H
  0000d	72 0c		 jb	 SHORT $L211154
  0000f	8b 46 10	 mov	 eax, DWORD PTR [esi+16]
  00012	50		 push	 eax
  00013	e8 00 00 00 00	 call	 ??3@YAXPAX@Z		; operator delete
  00018	83 c4 04	 add	 esp, 4
$L211154:
  0001b	33 c0		 xor	 eax, eax
  0001d	c7 46 24 0f 00
	00 00		 mov	 DWORD PTR [esi+36], 15	; 0000000fH
  00024	89 46 20	 mov	 DWORD PTR [esi+32], eax
  00027	88 46 10	 mov	 BYTE PTR [esi+16], al
  0002a	8b ce		 mov	 ecx, esi
  0002c	5e		 pop	 esi
  0002d	e9 00 00 00 00	 jmp	 ??1exception@@UAE@XZ	; exception::~exception
??1length_error@std@@UAE@XZ ENDP			; std::length_error::~length_error
_TEXT	ENDS
PUBLIC	??0out_of_range@std@@QAE@ABV?$basic_string@DU?$char_traits@D@std@@V?$allocator@D@2@@1@@Z ; std::out_of_range::out_of_range
PUBLIC	??_7out_of_range@std@@6B@			; std::out_of_range::`vftable'
PUBLIC	??_Gout_of_range@std@@UAEPAXI@Z			; std::out_of_range::`scalar deleting destructor'
EXTRN	??_Eout_of_range@std@@UAEPAXI@Z:NEAR		; std::out_of_range::`vector deleting destructor'
;	COMDAT ??_7out_of_range@std@@6B@
CONST	SEGMENT
??_7out_of_range@std@@6B@ DD FLAT:??_Eout_of_range@std@@UAEPAXI@Z ; std::out_of_range::`vftable'
	DD	FLAT:?what@logic_error@std@@UBEPBDXZ
; Function compile flags: /Ogty
CONST	ENDS
;	COMDAT ??0out_of_range@std@@QAE@ABV?$basic_string@DU?$char_traits@D@std@@V?$allocator@D@2@@1@@Z
_TEXT	SEGMENT
__Message$ = 8						; size = 4
??0out_of_range@std@@QAE@ABV?$basic_string@DU?$char_traits@D@std@@V?$allocator@D@2@@1@@Z PROC NEAR ; std::out_of_range::out_of_range, COMDAT
; _this$ = ecx

; 118  : 		{	// construct from message string

  00000	8b 44 24 04	 mov	 eax, DWORD PTR __Message$[esp-4]
  00004	56		 push	 esi
  00005	50		 push	 eax
  00006	8b f1		 mov	 esi, ecx
  00008	e8 00 00 00 00	 call	 ??0logic_error@std@@QAE@ABV?$basic_string@DU?$char_traits@D@std@@V?$allocator@D@2@@1@@Z ; std::logic_error::logic_error
  0000d	c7 06 00 00 00
	00		 mov	 DWORD PTR [esi], OFFSET FLAT:??_7out_of_range@std@@6B@

; 119  : 		}

  00013	8b c6		 mov	 eax, esi
  00015	5e		 pop	 esi
  00016	c2 04 00	 ret	 4
??0out_of_range@std@@QAE@ABV?$basic_string@DU?$char_traits@D@std@@V?$allocator@D@2@@1@@Z ENDP ; std::out_of_range::out_of_range
_TEXT	ENDS
PUBLIC	??1out_of_range@std@@UAE@XZ			; std::out_of_range::~out_of_range
; Function compile flags: /Ogty
;	COMDAT ??_Gout_of_range@std@@UAEPAXI@Z
_TEXT	SEGMENT
___flags$ = 8						; size = 4
??_Gout_of_range@std@@UAEPAXI@Z PROC NEAR		; std::out_of_range::`scalar deleting destructor', COMDAT
; _this$ = ecx
  00000	56		 push	 esi
  00001	8b f1		 mov	 esi, ecx
  00003	e8 00 00 00 00	 call	 ??1out_of_range@std@@UAE@XZ ; std::out_of_range::~out_of_range
  00008	f6 44 24 08 01	 test	 BYTE PTR ___flags$[esp], 1
  0000d	74 09		 je	 SHORT $L211172
  0000f	56		 push	 esi
  00010	e8 00 00 00 00	 call	 ??3@YAXPAX@Z		; operator delete
  00015	83 c4 04	 add	 esp, 4
$L211172:
  00018	8b c6		 mov	 eax, esi
  0001a	5e		 pop	 esi
  0001b	c2 04 00	 ret	 4
??_Gout_of_range@std@@UAEPAXI@Z ENDP			; std::out_of_range::`scalar deleting destructor'
; Function compile flags: /Ogty
_TEXT	ENDS
;	COMDAT ??1out_of_range@std@@UAE@XZ
_TEXT	SEGMENT
??1out_of_range@std@@UAE@XZ PROC NEAR			; std::out_of_range::~out_of_range, COMDAT
; _this$ = ecx

; 122  : 		{}	// destroy the object

  00000	56		 push	 esi
  00001	8b f1		 mov	 esi, ecx
  00003	c7 06 00 00 00
	00		 mov	 DWORD PTR [esi], OFFSET FLAT:??_7logic_error@std@@6B@
  00009	83 7e 24 10	 cmp	 DWORD PTR [esi+36], 16	; 00000010H
  0000d	72 0c		 jb	 SHORT $L211266
  0000f	8b 46 10	 mov	 eax, DWORD PTR [esi+16]
  00012	50		 push	 eax
  00013	e8 00 00 00 00	 call	 ??3@YAXPAX@Z		; operator delete
  00018	83 c4 04	 add	 esp, 4
$L211266:
  0001b	33 c0		 xor	 eax, eax
  0001d	c7 46 24 0f 00
	00 00		 mov	 DWORD PTR [esi+36], 15	; 0000000fH
  00024	89 46 20	 mov	 DWORD PTR [esi+32], eax
  00027	88 46 10	 mov	 BYTE PTR [esi+16], al
  0002a	8b ce		 mov	 ecx, esi
  0002c	5e		 pop	 esi
  0002d	e9 00 00 00 00	 jmp	 ??1exception@@UAE@XZ	; exception::~exception
??1out_of_range@std@@UAE@XZ ENDP			; std::out_of_range::~out_of_range
_TEXT	ENDS
PUBLIC	??0?$basic_string@DU?$char_traits@D@std@@V?$allocator@D@2@@std@@QAE@PBD@Z ; std::basic_string<char,std::char_traits<char>,std::allocator<char> >::basic_string<char,std::char_traits<char>,std::allocator<char> >
; Function compile flags: /Ogty
; File c:\program files\microsoft visual studio .net 2003\vc7\include\xstring
;	COMDAT ??0?$basic_string@DU?$char_traits@D@std@@V?$allocator@D@2@@std@@QAE@PBD@Z
_TEXT	SEGMENT
__Ptr$ = 8						; size = 4
??0?$basic_string@DU?$char_traits@D@std@@V?$allocator@D@2@@std@@QAE@PBD@Z PROC NEAR ; std::basic_string<char,std::char_traits<char>,std::allocator<char> >::basic_string<char,std::char_traits<char>,std::allocator<char> >, COMDAT
; _this$ = ecx

; 361  : 		_Tidy();
; 362  : 		assign(_Ptr);

  00000	8b 54 24 04	 mov	 edx, DWORD PTR __Ptr$[esp-4]
  00004	56		 push	 esi
  00005	8b f1		 mov	 esi, ecx
  00007	8b c2		 mov	 eax, edx
  00009	57		 push	 edi
  0000a	c7 46 18 0f 00
	00 00		 mov	 DWORD PTR [esi+24], 15	; 0000000fH
  00011	c7 46 14 00 00
	00 00		 mov	 DWORD PTR [esi+20], 0
  00018	c6 46 04 00	 mov	 BYTE PTR [esi+4], 0
  0001c	8d 78 01	 lea	 edi, DWORD PTR [eax+1]
  0001f	90		 npad	 1
$L211352:
  00020	8a 08		 mov	 cl, BYTE PTR [eax]
  00022	40		 inc	 eax
  00023	84 c9		 test	 cl, cl
  00025	75 f9		 jne	 SHORT $L211352
  00027	2b c7		 sub	 eax, edi
  00029	50		 push	 eax
  0002a	52		 push	 edx
  0002b	8b ce		 mov	 ecx, esi
  0002d	e8 00 00 00 00	 call	 ?assign@?$basic_string@DU?$char_traits@D@std@@V?$allocator@D@2@@std@@QAEAAV12@PBDI@Z ; std::basic_string<char,std::char_traits<char>,std::allocator<char> >::assign
  00032	5f		 pop	 edi

; 363  : 		}

  00033	8b c6		 mov	 eax, esi
  00035	5e		 pop	 esi
  00036	c2 04 00	 ret	 4
??0?$basic_string@DU?$char_traits@D@std@@V?$allocator@D@2@@std@@QAE@PBD@Z ENDP ; std::basic_string<char,std::char_traits<char>,std::allocator<char> >::basic_string<char,std::char_traits<char>,std::allocator<char> >
_TEXT	ENDS
PUBLIC	??_C@_0BM@PAPJHAGI@invalid?5map?1set?$DMT?$DO?5iterator?$AA@ ; `string'
PUBLIC	?erase@?$_Tree@V?$_Tmap_traits@KJU?$less@K@std@@V?$allocator@U?$pair@$$CBKJ@std@@@2@$0A@@std@@@std@@QAE?AViterator@12@V312@@Z ; std::_Tree<std::_Tmap_traits<unsigned long,long,std::less<unsigned long>,std::allocator<std::pair<unsigned long const ,long> >,0> >::erase
PUBLIC	__TI3?AVout_of_range@std@@
PUBLIC	__CTA3?AVout_of_range@std@@
PUBLIC	??_R0?AVout_of_range@std@@@8			; std::out_of_range `RTTI Type Descriptor'
PUBLIC	__CT??_R0?AVout_of_range@std@@@8??0out_of_range@std@@QAE@ABV01@@Z40
PUBLIC	??_R0?AVlogic_error@std@@@8			; std::logic_error `RTTI Type Descriptor'
PUBLIC	__CT??_R0?AVlogic_error@std@@@8??0logic_error@std@@QAE@ABV01@@Z40
PUBLIC	??_R0?AVexception@@@8				; exception `RTTI Type Descriptor'
PUBLIC	__CT??_R0?AVexception@@@8??0exception@@QAE@ABV0@@Z12
PUBLIC	??0logic_error@std@@QAE@ABV01@@Z		; std::logic_error::logic_error
PUBLIC	??0out_of_range@std@@QAE@ABV01@@Z		; std::out_of_range::out_of_range
EXTRN	??0exception@@QAE@ABV0@@Z:NEAR			; exception::exception
EXTRN	??_7type_info@@6B@:DWORD			; type_info::`vftable'
;	COMDAT xdata$x
; File c:\program files\microsoft visual studio .net 2003\vc7\include\xmemory
xdata$x	SEGMENT
$T211847 DD	0ffffffffH
	DD	FLAT:$L211361
$T211839 DD	019930520H
	DD	01H
	DD	FLAT:$T211847
	DD	2 DUP(00H)
	DD	2 DUP(00H)
xdata$x	ENDS
;	COMDAT ??_C@_0BM@PAPJHAGI@invalid?5map?1set?$DMT?$DO?5iterator?$AA@
CONST	SEGMENT
??_C@_0BM@PAPJHAGI@invalid?5map?1set?$DMT?$DO?5iterator?$AA@ DB 'invalid '
	DB	'map/set<T> iterator', 00H			; `string'
CONST	ENDS
;	COMDAT __TI3?AVout_of_range@std@@
xdata$x	SEGMENT
__TI3?AVout_of_range@std@@ DD 00H
	DD	FLAT:??1out_of_range@std@@UAE@XZ
	DD	00H
	DD	FLAT:__CTA3?AVout_of_range@std@@
xdata$x	ENDS
;	COMDAT __CTA3?AVout_of_range@std@@
xdata$x	SEGMENT
__CTA3?AVout_of_range@std@@ DD 03H
	DD	FLAT:__CT??_R0?AVout_of_range@std@@@8??0out_of_range@std@@QAE@ABV01@@Z40
	DD	FLAT:__CT??_R0?AVlogic_error@std@@@8??0logic_error@std@@QAE@ABV01@@Z40
	DD	FLAT:__CT??_R0?AVexception@@@8??0exception@@QAE@ABV0@@Z12
xdata$x	ENDS
;	COMDAT __CT??_R0?AVout_of_range@std@@@8??0out_of_range@std@@QAE@ABV01@@Z40
xdata$x	SEGMENT
__CT??_R0?AVout_of_range@std@@@8??0out_of_range@std@@QAE@ABV01@@Z40 DD 00H
	DD	FLAT:??_R0?AVout_of_range@std@@@8
	DD	00H
	DD	0ffffffffH
	ORG $+4
	DD	028H
	DD	FLAT:??0out_of_range@std@@QAE@ABV01@@Z
xdata$x	ENDS
;	COMDAT ??_R0?AVout_of_range@std@@@8
_DATA	SEGMENT
??_R0?AVout_of_range@std@@@8 DD FLAT:??_7type_info@@6B@	; std::out_of_range `RTTI Type Descriptor'
	DD	00H
	DB	'.?AVout_of_range@std@@', 00H
_DATA	ENDS
;	COMDAT __CT??_R0?AVlogic_error@std@@@8??0logic_error@std@@QAE@ABV01@@Z40
xdata$x	SEGMENT
__CT??_R0?AVlogic_error@std@@@8??0logic_error@std@@QAE@ABV01@@Z40 DD 00H
	DD	FLAT:??_R0?AVlogic_error@std@@@8
	DD	00H
	DD	0ffffffffH
	ORG $+4
	DD	028H
	DD	FLAT:??0logic_error@std@@QAE@ABV01@@Z
xdata$x	ENDS
;	COMDAT ??_R0?AVlogic_error@std@@@8
_DATA	SEGMENT
??_R0?AVlogic_error@std@@@8 DD FLAT:??_7type_info@@6B@	; std::logic_error `RTTI Type Descriptor'
	DD	00H
	DB	'.?AVlogic_error@std@@', 00H
_DATA	ENDS
;	COMDAT __CT??_R0?AVexception@@@8??0exception@@QAE@ABV0@@Z12
xdata$x	SEGMENT
__CT??_R0?AVexception@@@8??0exception@@QAE@ABV0@@Z12 DD 00H
	DD	FLAT:??_R0?AVexception@@@8
	DD	00H
	DD	0ffffffffH
	ORG $+4
	DD	0cH
	DD	FLAT:??0exception@@QAE@ABV0@@Z
xdata$x	ENDS
;	COMDAT ??_R0?AVexception@@@8
_DATA	SEGMENT
??_R0?AVexception@@@8 DD FLAT:??_7type_info@@6B@	; exception `RTTI Type Descriptor'
	DD	00H
	DB	'.?AVexception@@', 00H
; Function compile flags: /Ogty
; File c:\program files\microsoft visual studio .net 2003\vc7\include\xtree
_DATA	ENDS
;	COMDAT ?erase@?$_Tree@V?$_Tmap_traits@KJU?$less@K@std@@V?$allocator@U?$pair@$$CBKJ@std@@@2@$0A@@std@@@std@@QAE?AViterator@12@V312@@Z
_TEXT	SEGMENT
__Erasednode$ = -84					; size = 4
$T211356 = -80						; size = 28
$T211355 = -52						; size = 40
__$EHRec$ = -12						; size = 12
___$ReturnUdt$ = 8					; size = 4
__Where$ = 12						; size = 4
?erase@?$_Tree@V?$_Tmap_traits@KJU?$less@K@std@@V?$allocator@U?$pair@$$CBKJ@std@@@2@$0A@@std@@@std@@QAE?AViterator@12@V312@@Z PROC NEAR ; std::_Tree<std::_Tmap_traits<unsigned long,long,std::less<unsigned long>,std::allocator<std::pair<unsigned long const ,long> >,0> >::erase, COMDAT
; _this$ = ecx

; 590  : 		{	// erase element at _Where

  00000	64 a1 00 00 00
	00		 mov	 eax, DWORD PTR fs:__except_list
  00006	6a ff		 push	 -1
  00008	68 00 00 00 00	 push	 __ehhandler$?erase@?$_Tree@V?$_Tmap_traits@KJU?$less@K@std@@V?$allocator@U?$pair@$$CBKJ@std@@@2@$0A@@std@@@std@@QAE?AViterator@12@V312@@Z
  0000d	50		 push	 eax

; 591  : 		if (_Isnil(_Where._Mynode()))

  0000e	8b 44 24 14	 mov	 eax, DWORD PTR __Where$[esp+8]
  00012	64 89 25 00 00
	00 00		 mov	 DWORD PTR fs:__except_list, esp
  00019	83 ec 48	 sub	 esp, 72			; 00000048H
  0001c	55		 push	 ebp
  0001d	8b e9		 mov	 ebp, ecx
  0001f	8a 48 15	 mov	 cl, BYTE PTR [eax+21]
  00022	84 c9		 test	 cl, cl
  00024	56		 push	 esi
  00025	74 4c		 je	 SHORT $L206365

; 592  : 			_THROW(out_of_range, "invalid map/set<T> iterator");

  00027	6a 1b		 push	 27			; 0000001bH
  00029	33 f6		 xor	 esi, esi
  0002b	68 00 00 00 00	 push	 OFFSET FLAT:??_C@_0BM@PAPJHAGI@invalid?5map?1set?$DMT?$DO?5iterator?$AA@
  00030	8d 4c 24 14	 lea	 ecx, DWORD PTR $T211356[esp+100]
  00034	c7 44 24 2c 0f
	00 00 00	 mov	 DWORD PTR $T211356[esp+124], 15 ; 0000000fH
  0003c	89 74 24 28	 mov	 DWORD PTR $T211356[esp+120], esi
  00040	c6 44 24 18 00	 mov	 BYTE PTR $T211356[esp+104], 0
  00045	e8 00 00 00 00	 call	 ?assign@?$basic_string@DU?$char_traits@D@std@@V?$allocator@D@2@@std@@QAEAAV12@PBDI@Z ; std::basic_string<char,std::char_traits<char>,std::allocator<char> >::assign
  0004a	8d 44 24 0c	 lea	 eax, DWORD PTR $T211356[esp+92]
  0004e	50		 push	 eax
  0004f	8d 4c 24 2c	 lea	 ecx, DWORD PTR $T211355[esp+96]
  00053	89 74 24 5c	 mov	 DWORD PTR __$EHRec$[esp+104], esi
  00057	e8 00 00 00 00	 call	 ??0logic_error@std@@QAE@ABV?$basic_string@DU?$char_traits@D@std@@V?$allocator@D@2@@1@@Z ; std::logic_error::logic_error
  0005c	68 00 00 00 00	 push	 OFFSET FLAT:__TI3?AVout_of_range@std@@
  00061	8d 4c 24 2c	 lea	 ecx, DWORD PTR $T211355[esp+96]
  00065	51		 push	 ecx
  00066	c7 44 24 30 00
	00 00 00	 mov	 DWORD PTR $T211355[esp+100], OFFSET FLAT:??_7out_of_range@std@@6B@
  0006e	e8 00 00 00 00	 call	 __CxxThrowException@8
$L206365:
  00073	53		 push	 ebx

; 593  : 		_Nodeptr _Erasednode = _Where._Mynode();	// node to erase

  00074	8b d8		 mov	 ebx, eax
  00076	57		 push	 edi

; 594  : 		++_Where;	// save successor iterator for return

  00077	8d 4c 24 6c	 lea	 ecx, DWORD PTR __Where$[esp+96]
  0007b	89 5c 24 10	 mov	 DWORD PTR __Erasednode$[esp+100], ebx
  0007f	e8 00 00 00 00	 call	 ?_Inc@const_iterator@?$_Tree@V?$_Tmap_traits@KJU?$less@K@std@@V?$allocator@U?$pair@$$CBKJ@std@@@2@$0A@@std@@@std@@QAEXXZ ; std::_Tree<std::_Tmap_traits<unsigned long,long,std::less<unsigned long>,std::allocator<std::pair<unsigned long const ,long> >,0> >::const_iterator::_Inc

; 595  : 
; 596  : 		_Nodeptr _Fixnode;	// the node to recolor as needed
; 597  : 		_Nodeptr _Fixnodeparent;	// parent of _Fixnode (which may be nil)
; 598  : 		_Nodeptr _Pnode = _Erasednode;
; 599  : 
; 600  : 		if (_Isnil(_Left(_Pnode)))

  00084	8b 03		 mov	 eax, DWORD PTR [ebx]
  00086	8a 48 15	 mov	 cl, BYTE PTR [eax+21]
  00089	84 c9		 test	 cl, cl
  0008b	74 05		 je	 SHORT $L206373

; 601  : 			_Fixnode = _Right(_Pnode);	// must stitch up right subtree

  0008d	8b 7b 08	 mov	 edi, DWORD PTR [ebx+8]

; 602  : 		else if (_Isnil(_Right(_Pnode)))

  00090	eb 19		 jmp	 SHORT $L211842
$L206373:
  00092	8b 53 08	 mov	 edx, DWORD PTR [ebx+8]
  00095	8a 4a 15	 mov	 cl, BYTE PTR [edx+21]
  00098	84 c9		 test	 cl, cl
  0009a	74 04		 je	 SHORT $L206375

; 603  : 			_Fixnode = _Left(_Pnode);	// must stitch up left subtree

  0009c	8b f8		 mov	 edi, eax

; 604  : 		else

  0009e	eb 0b		 jmp	 SHORT $L211842
$L206375:

; 605  : 			{	// two subtrees, must lift successor node to replace erased
; 606  : 			_Pnode = _Where._Mynode();	// _Pnode is successor node
; 607  : 			_Fixnode = _Right(_Pnode);	// _Fixnode is its only subtree

  000a0	8b 4c 24 6c	 mov	 ecx, DWORD PTR __Where$[esp+96]

; 608  : 			}
; 609  : 
; 610  : 		if (_Pnode == _Erasednode)

  000a4	3b cb		 cmp	 ecx, ebx
  000a6	8b 79 08	 mov	 edi, DWORD PTR [ecx+8]
  000a9	75 6e		 jne	 SHORT $L206377
$L211842:

; 611  : 			{	// at most one subtree, relink it
; 612  : 			_Fixnodeparent = _Parent(_Erasednode);
; 613  : 			if (!_Isnil(_Fixnode))

  000ab	8a 47 15	 mov	 al, BYTE PTR [edi+21]
  000ae	84 c0		 test	 al, al
  000b0	8b 73 04	 mov	 esi, DWORD PTR [ebx+4]
  000b3	75 03		 jne	 SHORT $L206378

; 614  : 				_Parent(_Fixnode) = _Fixnodeparent;	// link up

  000b5	89 77 04	 mov	 DWORD PTR [edi+4], esi
$L206378:

; 615  : 
; 616  : 			if (_Root() == _Erasednode)

  000b8	8b 45 04	 mov	 eax, DWORD PTR [ebp+4]
  000bb	39 58 04	 cmp	 DWORD PTR [eax+4], ebx
  000be	75 05		 jne	 SHORT $L206379

; 617  : 				_Root() = _Fixnode;	// link down from root

  000c0	89 78 04	 mov	 DWORD PTR [eax+4], edi

; 618  : 			else if (_Left(_Fixnodeparent) == _Erasednode)

  000c3	eb 0b		 jmp	 SHORT $L206382
$L206379:
  000c5	39 1e		 cmp	 DWORD PTR [esi], ebx
  000c7	75 04		 jne	 SHORT $L206381

; 619  : 				_Left(_Fixnodeparent) = _Fixnode;	// link down to left

  000c9	89 3e		 mov	 DWORD PTR [esi], edi

; 620  : 			else

  000cb	eb 03		 jmp	 SHORT $L206382
$L206381:

; 621  : 				_Right(_Fixnodeparent) = _Fixnode;	// link down to right

  000cd	89 7e 08	 mov	 DWORD PTR [esi+8], edi
$L206382:

; 622  : 
; 623  : 			if (_Lmost() == _Erasednode)

  000d0	8b 5d 04	 mov	 ebx, DWORD PTR [ebp+4]
  000d3	8b 03		 mov	 eax, DWORD PTR [ebx]
  000d5	3b 44 24 10	 cmp	 eax, DWORD PTR __Erasednode$[esp+100]
  000d9	75 16		 jne	 SHORT $L206383

; 624  : 				_Lmost() = _Isnil(_Fixnode)
; 625  : 					? _Fixnodeparent	// smallest is parent of erased node
; 626  : 					: _Min(_Fixnode);	// smallest in relinked subtree

  000db	8a 47 15	 mov	 al, BYTE PTR [edi+21]
  000de	84 c0		 test	 al, al
  000e0	74 04		 je	 SHORT $L211357
  000e2	8b c6		 mov	 eax, esi
  000e4	eb 09		 jmp	 SHORT $L211358
$L211357:
  000e6	57		 push	 edi
  000e7	e8 00 00 00 00	 call	 ?_Min@?$_Tree@V?$_Tmap_traits@KJU?$less@K@std@@V?$allocator@U?$pair@$$CBKJ@std@@@2@$0A@@std@@@std@@KAPAU_Node@?$_Tree_nod@V?$_Tmap_traits@KJU?$less@K@std@@V?$allocator@U?$pair@$$CBKJ@std@@@2@$0A@@std@@@2@PAU342@@Z ; std::_Tree<std::_Tmap_traits<unsigned long,long,std::less<unsigned long>,std::allocator<std::pair<unsigned long const ,long> >,0> >::_Min
  000ec	83 c4 04	 add	 esp, 4
$L211358:
  000ef	89 03		 mov	 DWORD PTR [ebx], eax
$L206383:

; 627  : 
; 628  : 			if (_Rmost() == _Erasednode)

  000f1	8b 5d 04	 mov	 ebx, DWORD PTR [ebp+4]
  000f4	8b 4c 24 10	 mov	 ecx, DWORD PTR __Erasednode$[esp+100]
  000f8	39 4b 08	 cmp	 DWORD PTR [ebx+8], ecx
  000fb	75 74		 jne	 SHORT $L211675

; 629  : 				_Rmost() = _Isnil(_Fixnode)
; 630  : 					? _Fixnodeparent	// largest is parent of erased node
; 631  : 					: _Max(_Fixnode);	// largest in relinked subtree

  000fd	8a 47 15	 mov	 al, BYTE PTR [edi+21]
  00100	84 c0		 test	 al, al
  00102	74 07		 je	 SHORT $L211359
  00104	8b c6		 mov	 eax, esi
  00106	89 43 08	 mov	 DWORD PTR [ebx+8], eax

; 632  : 			}
; 633  : 		else

  00109	eb 66		 jmp	 SHORT $L211675
$L211359:

; 629  : 				_Rmost() = _Isnil(_Fixnode)
; 630  : 					? _Fixnodeparent	// largest is parent of erased node
; 631  : 					: _Max(_Fixnode);	// largest in relinked subtree

  0010b	57		 push	 edi
  0010c	e8 00 00 00 00	 call	 ?_Max@?$_Tree@V?$_Tmap_traits@KJU?$less@K@std@@V?$allocator@U?$pair@$$CBKJ@std@@@2@$0A@@std@@@std@@KAPAU_Node@?$_Tree_nod@V?$_Tmap_traits@KJU?$less@K@std@@V?$allocator@U?$pair@$$CBKJ@std@@@2@$0A@@std@@@2@PAU342@@Z ; std::_Tree<std::_Tmap_traits<unsigned long,long,std::less<unsigned long>,std::allocator<std::pair<unsigned long const ,long> >,0> >::_Max
  00111	83 c4 04	 add	 esp, 4
  00114	89 43 08	 mov	 DWORD PTR [ebx+8], eax

; 632  : 			}
; 633  : 		else

  00117	eb 58		 jmp	 SHORT $L211675
$L206377:

; 634  : 			{	// erased has two subtrees, _Pnode is successor to erased
; 635  : 			_Parent(_Left(_Erasednode)) = _Pnode;	// link left up

  00119	89 48 04	 mov	 DWORD PTR [eax+4], ecx

; 636  : 			_Left(_Pnode) = _Left(_Erasednode);	// link successor down

  0011c	8b 13		 mov	 edx, DWORD PTR [ebx]
  0011e	89 11		 mov	 DWORD PTR [ecx], edx

; 637  : 
; 638  : 			if (_Pnode == _Right(_Erasednode))

  00120	3b 4b 08	 cmp	 ecx, DWORD PTR [ebx+8]
  00123	75 04		 jne	 SHORT $L206386

; 639  : 				_Fixnodeparent = _Pnode;	// successor is next to erased

  00125	8b f1		 mov	 esi, ecx

; 640  : 			else

  00127	eb 1b		 jmp	 SHORT $L206387
$L206386:

; 641  : 				{	// successor further down, link in place of erased
; 642  : 				_Fixnodeparent = _Parent(_Pnode);	// parent is successor's
; 643  : 				if (!_Isnil(_Fixnode))

  00129	8a 47 15	 mov	 al, BYTE PTR [edi+21]
  0012c	84 c0		 test	 al, al
  0012e	8b 71 04	 mov	 esi, DWORD PTR [ecx+4]
  00131	75 03		 jne	 SHORT $L206388

; 644  : 					_Parent(_Fixnode) = _Fixnodeparent;	// link fix up

  00133	89 77 04	 mov	 DWORD PTR [edi+4], esi
$L206388:

; 645  : 				_Left(_Fixnodeparent) = _Fixnode;	// link fix down

  00136	89 3e		 mov	 DWORD PTR [esi], edi

; 646  : 				_Right(_Pnode) = _Right(_Erasednode);	// link successor down

  00138	8b 43 08	 mov	 eax, DWORD PTR [ebx+8]
  0013b	89 41 08	 mov	 DWORD PTR [ecx+8], eax

; 647  : 				_Parent(_Right(_Erasednode)) = _Pnode;	// link right up

  0013e	8b 53 08	 mov	 edx, DWORD PTR [ebx+8]
  00141	89 4a 04	 mov	 DWORD PTR [edx+4], ecx
$L206387:

; 648  : 				}
; 649  : 
; 650  : 			if (_Root() == _Erasednode)

  00144	8b 45 04	 mov	 eax, DWORD PTR [ebp+4]
  00147	39 58 04	 cmp	 DWORD PTR [eax+4], ebx
  0014a	75 05		 jne	 SHORT $L206389

; 651  : 				_Root() = _Pnode;	// link down from root

  0014c	89 48 04	 mov	 DWORD PTR [eax+4], ecx

; 652  : 			else if (_Left(_Parent(_Erasednode)) == _Erasednode)

  0014f	eb 0e		 jmp	 SHORT $L206392
$L206389:
  00151	8b 43 04	 mov	 eax, DWORD PTR [ebx+4]
  00154	39 18		 cmp	 DWORD PTR [eax], ebx
  00156	75 04		 jne	 SHORT $L206391

; 653  : 				_Left(_Parent(_Erasednode)) = _Pnode;	// link down to left

  00158	89 08		 mov	 DWORD PTR [eax], ecx

; 654  : 			else

  0015a	eb 03		 jmp	 SHORT $L206392
$L206391:

; 655  : 				_Right(_Parent(_Erasednode)) = _Pnode;	// link down to right

  0015c	89 48 08	 mov	 DWORD PTR [eax+8], ecx
$L206392:

; 656  : 
; 657  : 			_Parent(_Pnode) = _Parent(_Erasednode);	// link successor up

  0015f	8b 43 04	 mov	 eax, DWORD PTR [ebx+4]
  00162	89 41 04	 mov	 DWORD PTR [ecx+4], eax

; 658  : 			std::swap(_Color(_Pnode), _Color(_Erasednode));	// recolor it

  00165	8a 53 14	 mov	 dl, BYTE PTR [ebx+20]
  00168	8a 41 14	 mov	 al, BYTE PTR [ecx+20]
  0016b	88 51 14	 mov	 BYTE PTR [ecx+20], dl
  0016e	88 43 14	 mov	 BYTE PTR [ebx+20], al
$L211675:

; 659  : 			}
; 660  : 
; 661  : 		if (_Color(_Erasednode) == _Black)

  00171	8b 44 24 10	 mov	 eax, DWORD PTR __Erasednode$[esp+100]
  00175	8a 48 14	 mov	 cl, BYTE PTR [eax+20]
  00178	b3 01		 mov	 bl, 1
  0017a	3a cb		 cmp	 cl, bl
  0017c	0f 85 ff 00 00
	00		 jne	 $L206393

; 662  : 			{	// erasing black link, must recolor/rebalance tree
; 663  : 			for (; _Fixnode != _Root() && _Color(_Fixnode) == _Black;
; 664  : 				_Fixnodeparent = _Parent(_Fixnode))

  00182	8b 4d 04	 mov	 ecx, DWORD PTR [ebp+4]
  00185	3b 79 04	 cmp	 edi, DWORD PTR [ecx+4]
  00188	0f 84 f0 00 00
	00		 je	 $L206396
  0018e	8b ff		 npad	 2
$L206394:
  00190	38 5f 14	 cmp	 BYTE PTR [edi+20], bl
  00193	0f 85 e5 00 00
	00		 jne	 $L206396

; 665  : 				if (_Fixnode == _Left(_Fixnodeparent))

  00199	8b 06		 mov	 eax, DWORD PTR [esi]
  0019b	3b f8		 cmp	 edi, eax
  0019d	75 67		 jne	 SHORT $L206397

; 666  : 					{	// fixup left subtree
; 667  : 					_Pnode = _Right(_Fixnodeparent);

  0019f	8b 46 08	 mov	 eax, DWORD PTR [esi+8]

; 668  : 					if (_Color(_Pnode) == _Red)

  001a2	8a 48 14	 mov	 cl, BYTE PTR [eax+20]
  001a5	84 c9		 test	 cl, cl
  001a7	75 12		 jne	 SHORT $L206398

; 669  : 						{	// rotate red up from right subtree
; 670  : 						_Color(_Pnode) = _Black;

  001a9	88 58 14	 mov	 BYTE PTR [eax+20], bl

; 671  : 						_Color(_Fixnodeparent) = _Red;
; 672  : 						_Lrotate(_Fixnodeparent);

  001ac	56		 push	 esi
  001ad	8b cd		 mov	 ecx, ebp
  001af	c6 46 14 00	 mov	 BYTE PTR [esi+20], 0
  001b3	e8 00 00 00 00	 call	 ?_Lrotate@?$_Tree@V?$_Tmap_traits@KJU?$less@K@std@@V?$allocator@U?$pair@$$CBKJ@std@@@2@$0A@@std@@@std@@IAEXPAU_Node@?$_Tree_nod@V?$_Tmap_traits@KJU?$less@K@std@@V?$allocator@U?$pair@$$CBKJ@std@@@2@$0A@@std@@@2@@Z ; std::_Tree<std::_Tmap_traits<unsigned long,long,std::less<unsigned long>,std::allocator<std::pair<unsigned long const ,long> >,0> >::_Lrotate

; 673  : 						_Pnode = _Right(_Fixnodeparent);

  001b8	8b 46 08	 mov	 eax, DWORD PTR [esi+8]
$L206398:

; 674  : 						}
; 675  : 
; 676  : 					if (_Isnil(_Pnode))

  001bb	8a 48 15	 mov	 cl, BYTE PTR [eax+21]
  001be	84 c9		 test	 cl, cl

; 677  : 						_Fixnode = _Fixnodeparent;	// shouldn't happen
; 678  : 					else if (_Color(_Left(_Pnode)) == _Black

  001c0	75 76		 jne	 SHORT $L211845

; 679  : 						&& _Color(_Right(_Pnode)) == _Black)

  001c2	8b 10		 mov	 edx, DWORD PTR [eax]
  001c4	38 5a 14	 cmp	 BYTE PTR [edx+20], bl
  001c7	75 08		 jne	 SHORT $L206401
  001c9	8b 48 08	 mov	 ecx, DWORD PTR [eax+8]
  001cc	38 59 14	 cmp	 BYTE PTR [ecx+20], bl
  001cf	74 63		 je	 SHORT $L211846
$L206401:

; 680  : 						{	// redden right subtree with black children
; 681  : 						_Color(_Pnode) = _Red;
; 682  : 						_Fixnode = _Fixnodeparent;
; 683  : 						}
; 684  : 					else
; 685  : 						{	// must rearrange right subtree
; 686  : 						if (_Color(_Right(_Pnode)) == _Black)

  001d1	8b 48 08	 mov	 ecx, DWORD PTR [eax+8]
  001d4	38 59 14	 cmp	 BYTE PTR [ecx+20], bl
  001d7	75 14		 jne	 SHORT $L206403

; 687  : 							{	// rotate red up from left sub-subtree
; 688  : 							_Color(_Left(_Pnode)) = _Black;

  001d9	8b 10		 mov	 edx, DWORD PTR [eax]
  001db	88 5a 14	 mov	 BYTE PTR [edx+20], bl

; 689  : 							_Color(_Pnode) = _Red;
; 690  : 							_Rrotate(_Pnode);

  001de	50		 push	 eax
  001df	8b cd		 mov	 ecx, ebp
  001e1	c6 40 14 00	 mov	 BYTE PTR [eax+20], 0
  001e5	e8 00 00 00 00	 call	 ?_Rrotate@?$_Tree@V?$_Tmap_traits@KJU?$less@K@std@@V?$allocator@U?$pair@$$CBKJ@std@@@2@$0A@@std@@@std@@IAEXPAU_Node@?$_Tree_nod@V?$_Tmap_traits@KJU?$less@K@std@@V?$allocator@U?$pair@$$CBKJ@std@@@2@$0A@@std@@@2@@Z ; std::_Tree<std::_Tmap_traits<unsigned long,long,std::less<unsigned long>,std::allocator<std::pair<unsigned long const ,long> >,0> >::_Rrotate

; 691  : 							_Pnode = _Right(_Fixnodeparent);

  001ea	8b 46 08	 mov	 eax, DWORD PTR [esi+8]
$L206403:

; 692  : 							}
; 693  : 
; 694  : 						_Color(_Pnode) = _Color(_Fixnodeparent);

  001ed	8a 4e 14	 mov	 cl, BYTE PTR [esi+20]
  001f0	88 48 14	 mov	 BYTE PTR [eax+20], cl

; 695  : 						_Color(_Fixnodeparent) = _Black;

  001f3	88 5e 14	 mov	 BYTE PTR [esi+20], bl

; 696  : 						_Color(_Right(_Pnode)) = _Black;

  001f6	8b 50 08	 mov	 edx, DWORD PTR [eax+8]

; 697  : 						_Lrotate(_Fixnodeparent);

  001f9	56		 push	 esi
  001fa	8b cd		 mov	 ecx, ebp
  001fc	88 5a 14	 mov	 BYTE PTR [edx+20], bl
  001ff	e8 00 00 00 00	 call	 ?_Lrotate@?$_Tree@V?$_Tmap_traits@KJU?$less@K@std@@V?$allocator@U?$pair@$$CBKJ@std@@@2@$0A@@std@@@std@@IAEXPAU_Node@?$_Tree_nod@V?$_Tmap_traits@KJU?$less@K@std@@V?$allocator@U?$pair@$$CBKJ@std@@@2@$0A@@std@@@2@@Z ; std::_Tree<std::_Tmap_traits<unsigned long,long,std::less<unsigned long>,std::allocator<std::pair<unsigned long const ,long> >,0> >::_Lrotate

; 698  : 						break;	// tree now recolored/rebalanced

  00204	eb 78		 jmp	 SHORT $L206396
$L206397:

; 699  : 						}
; 700  : 					}
; 701  : 				else
; 702  : 					{	// fixup right subtree
; 703  : 					_Pnode = _Left(_Fixnodeparent);
; 704  : 					if (_Color(_Pnode) == _Red)

  00206	8a 48 14	 mov	 cl, BYTE PTR [eax+20]
  00209	84 c9		 test	 cl, cl
  0020b	75 11		 jne	 SHORT $L206405

; 705  : 						{	// rotate red up from left subtree
; 706  : 						_Color(_Pnode) = _Black;

  0020d	88 58 14	 mov	 BYTE PTR [eax+20], bl

; 707  : 						_Color(_Fixnodeparent) = _Red;
; 708  : 						_Rrotate(_Fixnodeparent);

  00210	56		 push	 esi
  00211	8b cd		 mov	 ecx, ebp
  00213	c6 46 14 00	 mov	 BYTE PTR [esi+20], 0
  00217	e8 00 00 00 00	 call	 ?_Rrotate@?$_Tree@V?$_Tmap_traits@KJU?$less@K@std@@V?$allocator@U?$pair@$$CBKJ@std@@@2@$0A@@std@@@std@@IAEXPAU_Node@?$_Tree_nod@V?$_Tmap_traits@KJU?$less@K@std@@V?$allocator@U?$pair@$$CBKJ@std@@@2@$0A@@std@@@2@@Z ; std::_Tree<std::_Tmap_traits<unsigned long,long,std::less<unsigned long>,std::allocator<std::pair<unsigned long const ,long> >,0> >::_Rrotate

; 709  : 						_Pnode = _Left(_Fixnodeparent);

  0021c	8b 06		 mov	 eax, DWORD PTR [esi]
$L206405:

; 710  : 						}
; 711  : 					if (_Isnil(_Pnode))

  0021e	8a 48 15	 mov	 cl, BYTE PTR [eax+21]
  00221	84 c9		 test	 cl, cl

; 712  : 						_Fixnode = _Fixnodeparent;	// shouldn't happen
; 713  : 					else if (_Color(_Right(_Pnode)) == _Black

  00223	75 13		 jne	 SHORT $L211845

; 714  : 						&& _Color(_Left(_Pnode)) == _Black)

  00225	8b 50 08	 mov	 edx, DWORD PTR [eax+8]
  00228	38 5a 14	 cmp	 BYTE PTR [edx+20], bl
  0022b	75 20		 jne	 SHORT $L206408
  0022d	8b 08		 mov	 ecx, DWORD PTR [eax]
  0022f	38 59 14	 cmp	 BYTE PTR [ecx+20], bl
  00232	75 19		 jne	 SHORT $L206408
$L211846:

; 715  : 						{	// redden left subtree with black children
; 716  : 						_Color(_Pnode) = _Red;

  00234	c6 40 14 00	 mov	 BYTE PTR [eax+20], 0
$L211845:

; 662  : 			{	// erasing black link, must recolor/rebalance tree
; 663  : 			for (; _Fixnode != _Root() && _Color(_Fixnode) == _Black;
; 664  : 				_Fixnodeparent = _Parent(_Fixnode))

  00238	8b 55 04	 mov	 edx, DWORD PTR [ebp+4]
  0023b	8b 42 04	 mov	 eax, DWORD PTR [edx+4]

; 717  : 						_Fixnode = _Fixnodeparent;

  0023e	8b fe		 mov	 edi, esi
  00240	3b f8		 cmp	 edi, eax
  00242	8b 76 04	 mov	 esi, DWORD PTR [esi+4]
  00245	0f 85 45 ff ff
	ff		 jne	 $L206394

; 662  : 			{	// erasing black link, must recolor/rebalance tree
; 663  : 			for (; _Fixnode != _Root() && _Color(_Fixnode) == _Black;
; 664  : 				_Fixnodeparent = _Parent(_Fixnode))

  0024b	eb 31		 jmp	 SHORT $L206396
$L206408:

; 718  : 						}
; 719  : 					else
; 720  : 						{	// must rearrange left subtree
; 721  : 						if (_Color(_Left(_Pnode)) == _Black)

  0024d	8b 08		 mov	 ecx, DWORD PTR [eax]
  0024f	38 59 14	 cmp	 BYTE PTR [ecx+20], bl
  00252	75 14		 jne	 SHORT $L206410

; 722  : 							{	// rotate red up from right sub-subtree
; 723  : 							_Color(_Right(_Pnode)) = _Black;

  00254	8b 50 08	 mov	 edx, DWORD PTR [eax+8]
  00257	88 5a 14	 mov	 BYTE PTR [edx+20], bl

; 724  : 							_Color(_Pnode) = _Red;
; 725  : 							_Lrotate(_Pnode);

  0025a	50		 push	 eax
  0025b	8b cd		 mov	 ecx, ebp
  0025d	c6 40 14 00	 mov	 BYTE PTR [eax+20], 0
  00261	e8 00 00 00 00	 call	 ?_Lrotate@?$_Tree@V?$_Tmap_traits@KJU?$less@K@std@@V?$allocator@U?$pair@$$CBKJ@std@@@2@$0A@@std@@@std@@IAEXPAU_Node@?$_Tree_nod@V?$_Tmap_traits@KJU?$less@K@std@@V?$allocator@U?$pair@$$CBKJ@std@@@2@$0A@@std@@@2@@Z ; std::_Tree<std::_Tmap_traits<unsigned long,long,std::less<unsigned long>,std::allocator<std::pair<unsigned long const ,long> >,0> >::_Lrotate

; 726  : 							_Pnode = _Left(_Fixnodeparent);

  00266	8b 06		 mov	 eax, DWORD PTR [esi]
$L206410:

; 727  : 							}
; 728  : 
; 729  : 						_Color(_Pnode) = _Color(_Fixnodeparent);

  00268	8a 4e 14	 mov	 cl, BYTE PTR [esi+20]
  0026b	88 48 14	 mov	 BYTE PTR [eax+20], cl

; 730  : 						_Color(_Fixnodeparent) = _Black;

  0026e	88 5e 14	 mov	 BYTE PTR [esi+20], bl

; 731  : 						_Color(_Left(_Pnode)) = _Black;

  00271	8b 10		 mov	 edx, DWORD PTR [eax]

; 732  : 						_Rrotate(_Fixnodeparent);

  00273	56		 push	 esi
  00274	8b cd		 mov	 ecx, ebp
  00276	88 5a 14	 mov	 BYTE PTR [edx+20], bl
  00279	e8 00 00 00 00	 call	 ?_Rrotate@?$_Tree@V?$_Tmap_traits@KJU?$less@K@std@@V?$allocator@U?$pair@$$CBKJ@std@@@2@$0A@@std@@@std@@IAEXPAU_Node@?$_Tree_nod@V?$_Tmap_traits@KJU?$less@K@std@@V?$allocator@U?$pair@$$CBKJ@std@@@2@$0A@@std@@@2@@Z ; std::_Tree<std::_Tmap_traits<unsigned long,long,std::less<unsigned long>,std::allocator<std::pair<unsigned long const ,long> >,0> >::_Rrotate
$L206396:

; 733  : 						break;	// tree now recolored/rebalanced
; 734  : 						}
; 735  : 					}
; 736  : 
; 737  : 			_Color(_Fixnode) = _Black;	// ensure stopping node is black

  0027e	88 5f 14	 mov	 BYTE PTR [edi+20], bl
$L206393:

; 738  : 			}
; 739  : 
; 740  : 		this->_Alnod.destroy(_Erasednode);	// destroy, free erased node
; 741  : 		this->_Alnod.deallocate(_Erasednode, 1);

  00281	8b 44 24 10	 mov	 eax, DWORD PTR __Erasednode$[esp+100]
  00285	50		 push	 eax
  00286	e8 00 00 00 00	 call	 ??3@YAXPAX@Z		; operator delete

; 742  : 
; 743  : 		if (0 < _Mysize)

  0028b	8b 45 08	 mov	 eax, DWORD PTR [ebp+8]
  0028e	83 c4 04	 add	 esp, 4
  00291	85 c0		 test	 eax, eax
  00293	5f		 pop	 edi
  00294	5b		 pop	 ebx
  00295	76 04		 jbe	 SHORT $L206411

; 744  : 			--_Mysize;

  00297	48		 dec	 eax
  00298	89 45 08	 mov	 DWORD PTR [ebp+8], eax
$L206411:

; 745  : 
; 746  : 		return (_Where);	// return successor iterator

  0029b	8b 4c 24 64	 mov	 ecx, DWORD PTR __Where$[esp+88]
  0029f	8b 44 24 60	 mov	 eax, DWORD PTR ___$ReturnUdt$[esp+88]
  002a3	89 08		 mov	 DWORD PTR [eax], ecx

; 747  : 		}

  002a5	8b 4c 24 50	 mov	 ecx, DWORD PTR __$EHRec$[esp+92]
  002a9	5e		 pop	 esi
  002aa	5d		 pop	 ebp
  002ab	64 89 0d 00 00
	00 00		 mov	 DWORD PTR fs:__except_list, ecx
  002b2	83 c4 54	 add	 esp, 84			; 00000054H
  002b5	c2 08 00	 ret	 8
$L211844:
_TEXT	ENDS
;	COMDAT text$x
text$x	SEGMENT
$L211361:
  00000	8d 4d b0	 lea	 ecx, DWORD PTR $T211356[ebp]
  00003	e9 00 00 00 00	 jmp	 ??1?$basic_string@DU?$char_traits@D@std@@V?$allocator@D@2@@std@@QAE@XZ ; std::basic_string<char,std::char_traits<char>,std::allocator<char> >::~basic_string<char,std::char_traits<char>,std::allocator<char> >
__ehhandler$?erase@?$_Tree@V?$_Tmap_traits@KJU?$less@K@std@@V?$allocator@U?$pair@$$CBKJ@std@@@2@$0A@@std@@@std@@QAE?AViterator@12@V312@@Z:
  00008	b8 00 00 00 00	 mov	 eax, OFFSET FLAT:$T211839
  0000d	e9 00 00 00 00	 jmp	 ___CxxFrameHandler
text$x	ENDS
?erase@?$_Tree@V?$_Tmap_traits@KJU?$less@K@std@@V?$allocator@U?$pair@$$CBKJ@std@@@2@$0A@@std@@@std@@QAE?AViterator@12@V312@@Z ENDP ; std::_Tree<std::_Tmap_traits<unsigned long,long,std::less<unsigned long>,std::allocator<std::pair<unsigned long const ,long> >,0> >::erase
;	COMDAT xdata$x
xdata$x	SEGMENT
$T211952 DD	0ffffffffH
	DD	FLAT:$L211852
$T211950 DD	019930520H
	DD	01H
	DD	FLAT:$T211952
	DD	2 DUP(00H)
	DD	2 DUP(00H)
; Function compile flags: /Ogty
xdata$x	ENDS
;	COMDAT ??0logic_error@std@@QAE@ABV01@@Z
_TEXT	SEGMENT
_this$ = -16						; size = 4
__$EHRec$ = -12						; size = 12
___that$ = 8						; size = 4
??0logic_error@std@@QAE@ABV01@@Z PROC NEAR		; std::logic_error::logic_error, COMDAT
; _this$ = ecx
  00000	6a ff		 push	 -1
  00002	68 00 00 00 00	 push	 __ehhandler$??0logic_error@std@@QAE@ABV01@@Z
  00007	64 a1 00 00 00
	00		 mov	 eax, DWORD PTR fs:__except_list
  0000d	50		 push	 eax
  0000e	64 89 25 00 00
	00 00		 mov	 DWORD PTR fs:__except_list, esp
  00015	51		 push	 ecx
  00016	56		 push	 esi
  00017	57		 push	 edi
  00018	8b 7c 24 1c	 mov	 edi, DWORD PTR ___that$[esp+20]
  0001c	8b f1		 mov	 esi, ecx
  0001e	57		 push	 edi
  0001f	89 74 24 0c	 mov	 DWORD PTR _this$[esp+28], esi
  00023	e8 00 00 00 00	 call	 ??0exception@@QAE@ABV0@@Z ; exception::exception
  00028	33 c0		 xor	 eax, eax
  0002a	6a ff		 push	 -1
  0002c	8d 4e 0c	 lea	 ecx, DWORD PTR [esi+12]
  0002f	c7 06 00 00 00
	00		 mov	 DWORD PTR [esi], OFFSET FLAT:??_7logic_error@std@@6B@
  00035	50		 push	 eax
  00036	83 c7 0c	 add	 edi, 12			; 0000000cH
  00039	c7 41 18 0f 00
	00 00		 mov	 DWORD PTR [ecx+24], 15	; 0000000fH
  00040	89 41 14	 mov	 DWORD PTR [ecx+20], eax
  00043	57		 push	 edi
  00044	89 44 24 20	 mov	 DWORD PTR __$EHRec$[esp+44], eax
  00048	88 41 04	 mov	 BYTE PTR [ecx+4], al
  0004b	e8 00 00 00 00	 call	 ?assign@?$basic_string@DU?$char_traits@D@std@@V?$allocator@D@2@@std@@QAEAAV12@ABV12@II@Z ; std::basic_string<char,std::char_traits<char>,std::allocator<char> >::assign
  00050	8b 4c 24 0c	 mov	 ecx, DWORD PTR __$EHRec$[esp+24]
  00054	5f		 pop	 edi
  00055	8b c6		 mov	 eax, esi
  00057	5e		 pop	 esi
  00058	64 89 0d 00 00
	00 00		 mov	 DWORD PTR fs:__except_list, ecx
  0005f	83 c4 10	 add	 esp, 16			; 00000010H
  00062	c2 04 00	 ret	 4
_TEXT	ENDS
;	COMDAT text$x
text$x	SEGMENT
$L211852:
  00000	8b 4d f0	 mov	 ecx, DWORD PTR _this$[ebp]
  00003	e9 00 00 00 00	 jmp	 ??1exception@@UAE@XZ	; exception::~exception
__ehhandler$??0logic_error@std@@QAE@ABV01@@Z:
  00008	b8 00 00 00 00	 mov	 eax, OFFSET FLAT:$T211950
  0000d	e9 00 00 00 00	 jmp	 ___CxxFrameHandler
text$x	ENDS
??0logic_error@std@@QAE@ABV01@@Z ENDP			; std::logic_error::logic_error
; Function compile flags: /Ogty
;	COMDAT ??0out_of_range@std@@QAE@ABV01@@Z
_TEXT	SEGMENT
___that$ = 8						; size = 4
??0out_of_range@std@@QAE@ABV01@@Z PROC NEAR		; std::out_of_range::out_of_range, COMDAT
; _this$ = ecx
  00000	8b 44 24 04	 mov	 eax, DWORD PTR ___that$[esp-4]
  00004	56		 push	 esi
  00005	50		 push	 eax
  00006	8b f1		 mov	 esi, ecx
  00008	e8 00 00 00 00	 call	 ??0logic_error@std@@QAE@ABV01@@Z
  0000d	c7 06 00 00 00
	00		 mov	 DWORD PTR [esi], OFFSET FLAT:??_7out_of_range@std@@6B@
  00013	8b c6		 mov	 eax, esi
  00015	5e		 pop	 esi
  00016	c2 04 00	 ret	 4
??0out_of_range@std@@QAE@ABV01@@Z ENDP			; std::out_of_range::out_of_range
_TEXT	ENDS
PUBLIC	?_Insert@?$_Tree@V?$_Tmap_traits@KJU?$less@K@std@@V?$allocator@U?$pair@$$CBKJ@std@@@2@$0A@@std@@@std@@IAE?AViterator@12@_NPAU_Node@?$_Tree_nod@V?$_Tmap_traits@KJU?$less@K@std@@V?$allocator@U?$pair@$$CBKJ@std@@@2@$0A@@std@@@2@ABU?$pair@$$CBKJ@2@@Z ; std::_Tree<std::_Tmap_traits<unsigned long,long,std::less<unsigned long>,std::allocator<std::pair<unsigned long const ,long> >,0> >::_Insert
PUBLIC	??0length_error@std@@QAE@ABV01@@Z		; std::length_error::length_error
PUBLIC	__TI3?AVlength_error@std@@
PUBLIC	__CTA3?AVlength_error@std@@
PUBLIC	??_R0?AVlength_error@std@@@8			; std::length_error `RTTI Type Descriptor'
PUBLIC	__CT??_R0?AVlength_error@std@@@8??0length_error@std@@QAE@ABV01@@Z40
PUBLIC	??_C@_0BE@JONHPENG@map?1set?$DMT?$DO?5too?5long?$AA@ ; `string'
;	COMDAT xdata$x
xdata$x	SEGMENT
$T212332 DD	0ffffffffH
	DD	FLAT:$L211962
$T212327 DD	019930520H
	DD	01H
	DD	FLAT:$T212332
	DD	2 DUP(00H)
	DD	2 DUP(00H)
xdata$x	ENDS
;	COMDAT ??_C@_0BE@JONHPENG@map?1set?$DMT?$DO?5too?5long?$AA@
CONST	SEGMENT
??_C@_0BE@JONHPENG@map?1set?$DMT?$DO?5too?5long?$AA@ DB 'map/set<T> too l'
	DB	'ong', 00H					; `string'
CONST	ENDS
;	COMDAT __TI3?AVlength_error@std@@
xdata$x	SEGMENT
__TI3?AVlength_error@std@@ DD 00H
	DD	FLAT:??1length_error@std@@UAE@XZ
	DD	00H
	DD	FLAT:__CTA3?AVlength_error@std@@
xdata$x	ENDS
;	COMDAT __CTA3?AVlength_error@std@@
xdata$x	SEGMENT
__CTA3?AVlength_error@std@@ DD 03H
	DD	FLAT:__CT??_R0?AVlength_error@std@@@8??0length_error@std@@QAE@ABV01@@Z40
	DD	FLAT:__CT??_R0?AVlogic_error@std@@@8??0logic_error@std@@QAE@ABV01@@Z40
	DD	FLAT:__CT??_R0?AVexception@@@8??0exception@@QAE@ABV0@@Z12
xdata$x	ENDS
;	COMDAT __CT??_R0?AVlength_error@std@@@8??0length_error@std@@QAE@ABV01@@Z40
xdata$x	SEGMENT
__CT??_R0?AVlength_error@std@@@8??0length_error@std@@QAE@ABV01@@Z40 DD 00H
	DD	FLAT:??_R0?AVlength_error@std@@@8
	DD	00H
	DD	0ffffffffH
	ORG $+4
	DD	028H
	DD	FLAT:??0length_error@std@@QAE@ABV01@@Z
xdata$x	ENDS
;	COMDAT ??_R0?AVlength_error@std@@@8
_DATA	SEGMENT
??_R0?AVlength_error@std@@@8 DD FLAT:??_7type_info@@6B@	; std::length_error `RTTI Type Descriptor'
	DD	00H
	DB	'.?AVlength_error@std@@', 00H
; Function compile flags: /Ogty
_DATA	ENDS
;	COMDAT ?_Insert@?$_Tree@V?$_Tmap_traits@KJU?$less@K@std@@V?$allocator@U?$pair@$$CBKJ@std@@@2@$0A@@std@@@std@@IAE?AViterator@12@_NPAU_Node@?$_Tree_nod@V?$_Tmap_traits@KJU?$less@K@std@@V?$allocator@U?$pair@$$CBKJ@std@@@2@$0A@@std@@@2@ABU?$pair@$$CBKJ@2@@Z
_TEXT	SEGMENT
$T211961 = -80						; size = 28
$T211960 = -52						; size = 40
__$EHRec$ = -12						; size = 12
___$ReturnUdt$ = 8					; size = 4
__Addleft$ = 12						; size = 1
__Wherenode$ = 16					; size = 4
__Newnode$ = 20						; size = 4
__Val$ = 20						; size = 4
?_Insert@?$_Tree@V?$_Tmap_traits@KJU?$less@K@std@@V?$allocator@U?$pair@$$CBKJ@std@@@2@$0A@@std@@@std@@IAE?AViterator@12@_NPAU_Node@?$_Tree_nod@V?$_Tmap_traits@KJU?$less@K@std@@V?$allocator@U?$pair@$$CBKJ@std@@@2@$0A@@std@@@2@ABU?$pair@$$CBKJ@2@@Z PROC NEAR ; std::_Tree<std::_Tmap_traits<unsigned long,long,std::less<unsigned long>,std::allocator<std::pair<unsigned long const ,long> >,0> >::_Insert, COMDAT
; _this$ = ecx

; 911  : 		{	// add node with value next to _Wherenode, to left if _Addnode

  00000	64 a1 00 00 00
	00		 mov	 eax, DWORD PTR fs:__except_list
  00006	6a ff		 push	 -1
  00008	68 00 00 00 00	 push	 __ehhandler$?_Insert@?$_Tree@V?$_Tmap_traits@KJU?$less@K@std@@V?$allocator@U?$pair@$$CBKJ@std@@@2@$0A@@std@@@std@@IAE?AViterator@12@_NPAU_Node@?$_Tree_nod@V?$_Tmap_traits@KJU?$less@K@std@@V?$allocator@U?$pair@$$CBKJ@std@@@2@$0A@@std@@@2@ABU?$pair@$$CBKJ@2@@Z
  0000d	50		 push	 eax
  0000e	64 89 25 00 00
	00 00		 mov	 DWORD PTR fs:__except_list, esp
  00015	83 ec 44	 sub	 esp, 68			; 00000044H
  00018	56		 push	 esi
  00019	57		 push	 edi
  0001a	8b f9		 mov	 edi, ecx

; 912  : 		if (max_size() - 1 <= _Mysize)

  0001c	81 7f 08 fe ff
	ff 1f		 cmp	 DWORD PTR [edi+8], 536870910 ; 1ffffffeH
  00023	72 4c		 jb	 SHORT $L206703

; 913  : 			_THROW(length_error, "map/set<T> too long");

  00025	6a 13		 push	 19			; 00000013H
  00027	33 f6		 xor	 esi, esi
  00029	68 00 00 00 00	 push	 OFFSET FLAT:??_C@_0BE@JONHPENG@map?1set?$DMT?$DO?5too?5long?$AA@
  0002e	8d 4c 24 10	 lea	 ecx, DWORD PTR $T211961[esp+96]
  00032	c7 44 24 28 0f
	00 00 00	 mov	 DWORD PTR $T211961[esp+120], 15 ; 0000000fH
  0003a	89 74 24 24	 mov	 DWORD PTR $T211961[esp+116], esi
  0003e	c6 44 24 14 00	 mov	 BYTE PTR $T211961[esp+100], 0
  00043	e8 00 00 00 00	 call	 ?assign@?$basic_string@DU?$char_traits@D@std@@V?$allocator@D@2@@std@@QAEAAV12@PBDI@Z ; std::basic_string<char,std::char_traits<char>,std::allocator<char> >::assign
  00048	8d 44 24 08	 lea	 eax, DWORD PTR $T211961[esp+88]
  0004c	50		 push	 eax
  0004d	8d 4c 24 28	 lea	 ecx, DWORD PTR $T211960[esp+92]
  00051	89 74 24 58	 mov	 DWORD PTR __$EHRec$[esp+100], esi
  00055	e8 00 00 00 00	 call	 ??0logic_error@std@@QAE@ABV?$basic_string@DU?$char_traits@D@std@@V?$allocator@D@2@@1@@Z ; std::logic_error::logic_error
  0005a	68 00 00 00 00	 push	 OFFSET FLAT:__TI3?AVlength_error@std@@
  0005f	8d 4c 24 28	 lea	 ecx, DWORD PTR $T211960[esp+92]
  00063	51		 push	 ecx
  00064	c7 44 24 2c 00
	00 00 00	 mov	 DWORD PTR $T211960[esp+96], OFFSET FLAT:??_7length_error@std@@6B@
  0006c	e8 00 00 00 00	 call	 __CxxThrowException@8
$L206703:

; 914  : 		_Nodeptr _Newnode = _Buynode(_Myhead, _Wherenode, _Myhead,
; 915  : 			_Val, _Red);

  00071	8b 54 24 68	 mov	 edx, DWORD PTR __Val$[esp+84]
  00075	8b 47 04	 mov	 eax, DWORD PTR [edi+4]
  00078	8b 74 24 64	 mov	 esi, DWORD PTR __Wherenode$[esp+84]
  0007c	53		 push	 ebx
  0007d	6a 00		 push	 0
  0007f	52		 push	 edx
  00080	50		 push	 eax
  00081	56		 push	 esi
  00082	50		 push	 eax
  00083	8b cf		 mov	 ecx, edi
  00085	e8 00 00 00 00	 call	 ?_Buynode@?$_Tree@V?$_Tmap_traits@KJU?$less@K@std@@V?$allocator@U?$pair@$$CBKJ@std@@@2@$0A@@std@@@std@@IAEPAU_Node@?$_Tree_nod@V?$_Tmap_traits@KJU?$less@K@std@@V?$allocator@U?$pair@$$CBKJ@std@@@2@$0A@@std@@@2@PAU342@00ABU?$pair@$$CBKJ@2@D@Z ; std::_Tree<std::_Tmap_traits<unsigned long,long,std::less<unsigned long>,std::allocator<std::pair<unsigned long const ,long> >,0> >::_Buynode

; 916  : 
; 917  : 		++_Mysize;

  0008a	8b 5f 08	 mov	 ebx, DWORD PTR [edi+8]
  0008d	8b c8		 mov	 ecx, eax

; 918  : 		if (_Wherenode == _Myhead)

  0008f	8b 47 04	 mov	 eax, DWORD PTR [edi+4]
  00092	43		 inc	 ebx
  00093	3b f0		 cmp	 esi, eax
  00095	89 4c 24 6c	 mov	 DWORD PTR __Newnode$[esp+88], ecx
  00099	89 5f 08	 mov	 DWORD PTR [edi+8], ebx
  0009c	75 10		 jne	 SHORT $L206708

; 919  : 			{	// first node in tree, just set head values
; 920  : 			_Root() = _Newnode;

  0009e	89 48 04	 mov	 DWORD PTR [eax+4], ecx

; 921  : 			_Lmost() = _Newnode, _Rmost() = _Newnode;

  000a1	8b 47 04	 mov	 eax, DWORD PTR [edi+4]
  000a4	89 08		 mov	 DWORD PTR [eax], ecx
  000a6	8b 57 04	 mov	 edx, DWORD PTR [edi+4]
  000a9	89 4a 08	 mov	 DWORD PTR [edx+8], ecx

; 922  : 			}
; 923  : 		else if (_Addleft)

  000ac	eb 23		 jmp	 SHORT $L206713
$L206708:
  000ae	8a 44 24 64	 mov	 al, BYTE PTR __Addleft$[esp+88]
  000b2	84 c0		 test	 al, al
  000b4	74 0d		 je	 SHORT $L206710

; 924  : 			{	// add to left of _Wherenode
; 925  : 			_Left(_Wherenode) = _Newnode;

  000b6	89 0e		 mov	 DWORD PTR [esi], ecx

; 926  : 			if (_Wherenode == _Lmost())

  000b8	8b 47 04	 mov	 eax, DWORD PTR [edi+4]
  000bb	3b 30		 cmp	 esi, DWORD PTR [eax]
  000bd	75 12		 jne	 SHORT $L206713

; 927  : 				_Lmost() = _Newnode;

  000bf	89 08		 mov	 DWORD PTR [eax], ecx

; 928  : 			}
; 929  : 		else

  000c1	eb 0e		 jmp	 SHORT $L206713
$L206710:

; 930  : 			{	// add to right of _Wherenode
; 931  : 			_Right(_Wherenode) = _Newnode;

  000c3	89 4e 08	 mov	 DWORD PTR [esi+8], ecx

; 932  : 			if (_Wherenode == _Rmost())

  000c6	8b 47 04	 mov	 eax, DWORD PTR [edi+4]
  000c9	3b 70 08	 cmp	 esi, DWORD PTR [eax+8]
  000cc	75 03		 jne	 SHORT $L206713

; 933  : 				_Rmost() = _Newnode;

  000ce	89 48 08	 mov	 DWORD PTR [eax+8], ecx
$L206713:

; 934  : 			}
; 935  : 
; 936  : 		for (_Nodeptr _Pnode = _Newnode; _Color(_Parent(_Pnode)) == _Red; )

  000d1	8b 51 04	 mov	 edx, DWORD PTR [ecx+4]
  000d4	80 7a 14 00	 cmp	 BYTE PTR [edx+20], 0
  000d8	8d 41 04	 lea	 eax, DWORD PTR [ecx+4]
  000db	8b f1		 mov	 esi, ecx
  000dd	b3 01		 mov	 bl, 1
  000df	0f 85 a5 00 00
	00		 jne	 $L206717
  000e5	55		 push	 ebp
$L206716:

; 937  : 			if (_Parent(_Pnode) == _Left(_Parent(_Parent(_Pnode))))

  000e6	8b 08		 mov	 ecx, DWORD PTR [eax]
  000e8	8b 69 04	 mov	 ebp, DWORD PTR [ecx+4]
  000eb	8b 55 00	 mov	 edx, DWORD PTR [ebp]
  000ee	3b ca		 cmp	 ecx, edx
  000f0	75 50		 jne	 SHORT $L206718

; 938  : 				{	// fixup red-red in left subtree
; 939  : 				_Wherenode = _Right(_Parent(_Parent(_Pnode)));

  000f2	8b 55 08	 mov	 edx, DWORD PTR [ebp+8]

; 940  : 				if (_Color(_Wherenode) == _Red)

  000f5	80 7a 14 00	 cmp	 BYTE PTR [edx+20], 0
  000f9	75 18		 jne	 SHORT $L206719
$L212331:

; 941  : 					{	// parent has two red children, blacken both
; 942  : 					_Color(_Parent(_Pnode)) = _Black;

  000fb	8b 08		 mov	 ecx, DWORD PTR [eax]
  000fd	88 59 14	 mov	 BYTE PTR [ecx+20], bl

; 943  : 					_Color(_Wherenode) = _Black;

  00100	88 5a 14	 mov	 BYTE PTR [edx+20], bl

; 944  : 					_Color(_Parent(_Parent(_Pnode))) = _Red;

  00103	8b 10		 mov	 edx, DWORD PTR [eax]
  00105	8b 4a 04	 mov	 ecx, DWORD PTR [edx+4]
  00108	c6 41 14 00	 mov	 BYTE PTR [ecx+20], 0

; 945  : 					_Pnode = _Parent(_Parent(_Pnode));

  0010c	8b 10		 mov	 edx, DWORD PTR [eax]
  0010e	8b 72 04	 mov	 esi, DWORD PTR [edx+4]

; 946  : 					}
; 947  : 				else

  00111	eb 61		 jmp	 SHORT $L206724
$L206719:

; 948  : 					{	// parent has red and black children
; 949  : 					if (_Pnode == _Right(_Parent(_Pnode)))

  00113	3b 71 08	 cmp	 esi, DWORD PTR [ecx+8]
  00116	75 0a		 jne	 SHORT $L206721

; 950  : 						{	// rotate right child to left
; 951  : 						_Pnode = _Parent(_Pnode);

  00118	8b f1		 mov	 esi, ecx

; 952  : 						_Lrotate(_Pnode);

  0011a	56		 push	 esi
  0011b	8b cf		 mov	 ecx, edi
  0011d	e8 00 00 00 00	 call	 ?_Lrotate@?$_Tree@V?$_Tmap_traits@KJU?$less@K@std@@V?$allocator@U?$pair@$$CBKJ@std@@@2@$0A@@std@@@std@@IAEXPAU_Node@?$_Tree_nod@V?$_Tmap_traits@KJU?$less@K@std@@V?$allocator@U?$pair@$$CBKJ@std@@@2@$0A@@std@@@2@@Z ; std::_Tree<std::_Tmap_traits<unsigned long,long,std::less<unsigned long>,std::allocator<std::pair<unsigned long const ,long> >,0> >::_Lrotate
$L206721:

; 953  : 						}
; 954  : 					_Color(_Parent(_Pnode)) = _Black;	// propagate red up

  00122	8b 46 04	 mov	 eax, DWORD PTR [esi+4]
  00125	88 58 14	 mov	 BYTE PTR [eax+20], bl

; 955  : 					_Color(_Parent(_Parent(_Pnode))) = _Red;

  00128	8b 4e 04	 mov	 ecx, DWORD PTR [esi+4]
  0012b	8b 51 04	 mov	 edx, DWORD PTR [ecx+4]
  0012e	c6 42 14 00	 mov	 BYTE PTR [edx+20], 0

; 956  : 					_Rrotate(_Parent(_Parent(_Pnode)));

  00132	8b 46 04	 mov	 eax, DWORD PTR [esi+4]
  00135	8b 48 04	 mov	 ecx, DWORD PTR [eax+4]
  00138	51		 push	 ecx
  00139	8b cf		 mov	 ecx, edi
  0013b	e8 00 00 00 00	 call	 ?_Rrotate@?$_Tree@V?$_Tmap_traits@KJU?$less@K@std@@V?$allocator@U?$pair@$$CBKJ@std@@@2@$0A@@std@@@std@@IAEXPAU_Node@?$_Tree_nod@V?$_Tmap_traits@KJU?$less@K@std@@V?$allocator@U?$pair@$$CBKJ@std@@@2@$0A@@std@@@2@@Z ; std::_Tree<std::_Tmap_traits<unsigned long,long,std::less<unsigned long>,std::allocator<std::pair<unsigned long const ,long> >,0> >::_Rrotate

; 957  : 					}
; 958  : 				}
; 959  : 			else

  00140	eb 32		 jmp	 SHORT $L206724
$L206718:

; 960  : 				{	// fixup red-red in right subtree
; 961  : 				_Wherenode = _Left(_Parent(_Parent(_Pnode)));
; 962  : 				if (_Color(_Wherenode) == _Red)

  00142	80 7a 14 00	 cmp	 BYTE PTR [edx+20], 0

; 963  : 					{	// parent has two red children, blacken both
; 964  : 					_Color(_Parent(_Pnode)) = _Black;
; 965  : 					_Color(_Wherenode) = _Black;
; 966  : 					_Color(_Parent(_Parent(_Pnode))) = _Red;
; 967  : 					_Pnode = _Parent(_Parent(_Pnode));
; 968  : 					}
; 969  : 				else

  00146	74 b3		 je	 SHORT $L212331

; 970  : 					{	// parent has red and black children
; 971  : 					if (_Pnode == _Left(_Parent(_Pnode)))

  00148	3b 31		 cmp	 esi, DWORD PTR [ecx]
  0014a	75 0a		 jne	 SHORT $L206725

; 972  : 						{	// rotate left child to right
; 973  : 						_Pnode = _Parent(_Pnode);

  0014c	8b f1		 mov	 esi, ecx

; 974  : 						_Rrotate(_Pnode);

  0014e	56		 push	 esi
  0014f	8b cf		 mov	 ecx, edi
  00151	e8 00 00 00 00	 call	 ?_Rrotate@?$_Tree@V?$_Tmap_traits@KJU?$less@K@std@@V?$allocator@U?$pair@$$CBKJ@std@@@2@$0A@@std@@@std@@IAEXPAU_Node@?$_Tree_nod@V?$_Tmap_traits@KJU?$less@K@std@@V?$allocator@U?$pair@$$CBKJ@std@@@2@$0A@@std@@@2@@Z ; std::_Tree<std::_Tmap_traits<unsigned long,long,std::less<unsigned long>,std::allocator<std::pair<unsigned long const ,long> >,0> >::_Rrotate
$L206725:

; 975  : 						}
; 976  : 					_Color(_Parent(_Pnode)) = _Black;	// propagate red up

  00156	8b 46 04	 mov	 eax, DWORD PTR [esi+4]
  00159	88 58 14	 mov	 BYTE PTR [eax+20], bl

; 977  : 					_Color(_Parent(_Parent(_Pnode))) = _Red;

  0015c	8b 4e 04	 mov	 ecx, DWORD PTR [esi+4]
  0015f	8b 51 04	 mov	 edx, DWORD PTR [ecx+4]
  00162	c6 42 14 00	 mov	 BYTE PTR [edx+20], 0

; 978  : 					_Lrotate(_Parent(_Parent(_Pnode)));

  00166	8b 46 04	 mov	 eax, DWORD PTR [esi+4]
  00169	8b 48 04	 mov	 ecx, DWORD PTR [eax+4]
  0016c	51		 push	 ecx
  0016d	8b cf		 mov	 ecx, edi
  0016f	e8 00 00 00 00	 call	 ?_Lrotate@?$_Tree@V?$_Tmap_traits@KJU?$less@K@std@@V?$allocator@U?$pair@$$CBKJ@std@@@2@$0A@@std@@@std@@IAEXPAU_Node@?$_Tree_nod@V?$_Tmap_traits@KJU?$less@K@std@@V?$allocator@U?$pair@$$CBKJ@std@@@2@$0A@@std@@@2@@Z ; std::_Tree<std::_Tmap_traits<unsigned long,long,std::less<unsigned long>,std::allocator<std::pair<unsigned long const ,long> >,0> >::_Lrotate
$L206724:
  00174	8b 56 04	 mov	 edx, DWORD PTR [esi+4]
  00177	8a 4a 14	 mov	 cl, BYTE PTR [edx+20]
  0017a	84 c9		 test	 cl, cl
  0017c	8d 46 04	 lea	 eax, DWORD PTR [esi+4]
  0017f	0f 84 61 ff ff
	ff		 je	 $L206716
  00185	8b 4c 24 70	 mov	 ecx, DWORD PTR __Newnode$[esp+92]
  00189	5d		 pop	 ebp
$L206717:

; 979  : 					}
; 980  : 				}
; 981  : 
; 982  : 		_Color(_Root()) = _Black;	// root is always black

  0018a	8b 47 04	 mov	 eax, DWORD PTR [edi+4]
  0018d	8b 50 04	 mov	 edx, DWORD PTR [eax+4]

; 983  : 		return (_TREE_ITERATOR(_Newnode));

  00190	8b 44 24 60	 mov	 eax, DWORD PTR ___$ReturnUdt$[esp+88]
  00194	88 5a 14	 mov	 BYTE PTR [edx+20], bl
  00197	5b		 pop	 ebx
  00198	89 08		 mov	 DWORD PTR [eax], ecx

; 984  : 		}

  0019a	8b 4c 24 4c	 mov	 ecx, DWORD PTR __$EHRec$[esp+88]
  0019e	5f		 pop	 edi
  0019f	5e		 pop	 esi
  001a0	64 89 0d 00 00
	00 00		 mov	 DWORD PTR fs:__except_list, ecx
  001a7	83 c4 50	 add	 esp, 80			; 00000050H
  001aa	c2 10 00	 ret	 16			; 00000010H
$L212330:
_TEXT	ENDS
;	COMDAT text$x
text$x	SEGMENT
$L211962:
  00000	8d 4d b0	 lea	 ecx, DWORD PTR $T211961[ebp]
  00003	e9 00 00 00 00	 jmp	 ??1?$basic_string@DU?$char_traits@D@std@@V?$allocator@D@2@@std@@QAE@XZ ; std::basic_string<char,std::char_traits<char>,std::allocator<char> >::~basic_string<char,std::char_traits<char>,std::allocator<char> >
__ehhandler$?_Insert@?$_Tree@V?$_Tmap_traits@KJU?$less@K@std@@V?$allocator@U?$pair@$$CBKJ@std@@@2@$0A@@std@@@std@@IAE?AViterator@12@_NPAU_Node@?$_Tree_nod@V?$_Tmap_traits@KJU?$less@K@std@@V?$allocator@U?$pair@$$CBKJ@std@@@2@$0A@@std@@@2@ABU?$pair@$$CBKJ@2@@Z:
  00008	b8 00 00 00 00	 mov	 eax, OFFSET FLAT:$T212327
  0000d	e9 00 00 00 00	 jmp	 ___CxxFrameHandler
text$x	ENDS
?_Insert@?$_Tree@V?$_Tmap_traits@KJU?$less@K@std@@V?$allocator@U?$pair@$$CBKJ@std@@@2@$0A@@std@@@std@@IAE?AViterator@12@_NPAU_Node@?$_Tree_nod@V?$_Tmap_traits@KJU?$less@K@std@@V?$allocator@U?$pair@$$CBKJ@std@@@2@$0A@@std@@@2@ABU?$pair@$$CBKJ@2@@Z ENDP ; std::_Tree<std::_Tmap_traits<unsigned long,long,std::less<unsigned long>,std::allocator<std::pair<unsigned long const ,long> >,0> >::_Insert
; Function compile flags: /Ogty
;	COMDAT ??0length_error@std@@QAE@ABV01@@Z
_TEXT	SEGMENT
___that$ = 8						; size = 4
??0length_error@std@@QAE@ABV01@@Z PROC NEAR		; std::length_error::length_error, COMDAT
; _this$ = ecx
  00000	8b 44 24 04	 mov	 eax, DWORD PTR ___that$[esp-4]
  00004	56		 push	 esi
  00005	50		 push	 eax
  00006	8b f1		 mov	 esi, ecx
  00008	e8 00 00 00 00	 call	 ??0logic_error@std@@QAE@ABV01@@Z
  0000d	c7 06 00 00 00
	00		 mov	 DWORD PTR [esi], OFFSET FLAT:??_7length_error@std@@6B@
  00013	8b c6		 mov	 eax, esi
  00015	5e		 pop	 esi
  00016	c2 04 00	 ret	 4
??0length_error@std@@QAE@ABV01@@Z ENDP			; std::length_error::length_error
_TEXT	ENDS
PUBLIC	?erase@?$_Tree@V?$_Tmap_traits@KJU?$less@K@std@@V?$allocator@U?$pair@$$CBKJ@std@@@2@$0A@@std@@@std@@QAE?AViterator@12@V312@0@Z ; std::_Tree<std::_Tmap_traits<unsigned long,long,std::less<unsigned long>,std::allocator<std::pair<unsigned long const ,long> >,0> >::erase
; Function compile flags: /Ogty
;	COMDAT ?erase@?$_Tree@V?$_Tmap_traits@KJU?$less@K@std@@V?$allocator@U?$pair@$$CBKJ@std@@@2@$0A@@std@@@std@@QAE?AViterator@12@V312@0@Z
_TEXT	SEGMENT
___$ReturnUdt$ = 8					; size = 4
$T212343 = 12						; size = 4
__First$ = 12						; size = 4
__Last$ = 16						; size = 4
?erase@?$_Tree@V?$_Tmap_traits@KJU?$less@K@std@@V?$allocator@U?$pair@$$CBKJ@std@@@2@$0A@@std@@@std@@QAE?AViterator@12@V312@0@Z PROC NEAR ; std::_Tree<std::_Tmap_traits<unsigned long,long,std::less<unsigned long>,std::allocator<std::pair<unsigned long const ,long> >,0> >::erase, COMDAT
; _this$ = ecx

; 750  : 		{	// erase [_First, _Last)

  00000	53		 push	 ebx

; 751  : 		if (_First == begin() && _Last == end())

  00001	8b 5c 24 10	 mov	 ebx, DWORD PTR __Last$[esp]
  00005	56		 push	 esi
  00006	8b 74 24 10	 mov	 esi, DWORD PTR __First$[esp+4]
  0000a	57		 push	 edi
  0000b	8b f9		 mov	 edi, ecx
  0000d	8b 47 04	 mov	 eax, DWORD PTR [edi+4]
  00010	3b 30		 cmp	 esi, DWORD PTR [eax]
  00012	75 38		 jne	 SHORT $L212675
  00014	3b d8		 cmp	 ebx, eax
  00016	75 34		 jne	 SHORT $L212675

; 752  : 			{	// erase all
; 753  : 			clear();

  00018	8b 40 04	 mov	 eax, DWORD PTR [eax+4]
  0001b	50		 push	 eax
  0001c	8b cf		 mov	 ecx, edi
  0001e	e8 00 00 00 00	 call	 ?_Erase@?$_Tree@V?$_Tmap_traits@KJU?$less@K@std@@V?$allocator@U?$pair@$$CBKJ@std@@@2@$0A@@std@@@std@@IAEXPAU_Node@?$_Tree_nod@V?$_Tmap_traits@KJU?$less@K@std@@V?$allocator@U?$pair@$$CBKJ@std@@@2@$0A@@std@@@2@@Z ; std::_Tree<std::_Tmap_traits<unsigned long,long,std::less<unsigned long>,std::allocator<std::pair<unsigned long const ,long> >,0> >::_Erase
  00023	8b 47 04	 mov	 eax, DWORD PTR [edi+4]
  00026	89 40 04	 mov	 DWORD PTR [eax+4], eax
  00029	8b 47 04	 mov	 eax, DWORD PTR [edi+4]
  0002c	c7 47 08 00 00
	00 00		 mov	 DWORD PTR [edi+8], 0
  00033	89 00		 mov	 DWORD PTR [eax], eax
  00035	8b 47 04	 mov	 eax, DWORD PTR [edi+4]
  00038	89 40 08	 mov	 DWORD PTR [eax+8], eax

; 754  : 			return (begin());

  0003b	8b 4f 04	 mov	 ecx, DWORD PTR [edi+4]
  0003e	8b 11		 mov	 edx, DWORD PTR [ecx]
  00040	8b 44 24 10	 mov	 eax, DWORD PTR ___$ReturnUdt$[esp+8]
  00044	5f		 pop	 edi
  00045	5e		 pop	 esi
  00046	89 10		 mov	 DWORD PTR [eax], edx
  00048	5b		 pop	 ebx

; 761  : 			}
; 762  : 		}

  00049	c2 0c 00	 ret	 12			; 0000000cH
$L212675:

; 755  : 			}
; 756  : 		else
; 757  : 			{	// partial erase, one at a time
; 758  : 			while (_First != _Last)

  0004c	3b f3		 cmp	 esi, ebx
  0004e	74 5b		 je	 SHORT $L206900
$L206899:

; 759  : 				erase(_First++);

  00050	8a 46 15	 mov	 al, BYTE PTR [esi+21]
  00053	84 c0		 test	 al, al
  00055	8b ce		 mov	 ecx, esi
  00057	75 41		 jne	 SHORT $L212644
  00059	8b 46 08	 mov	 eax, DWORD PTR [esi+8]
  0005c	8a 50 15	 mov	 dl, BYTE PTR [eax+21]
  0005f	84 d2		 test	 dl, dl
  00061	75 1a		 jne	 SHORT $L212677
  00063	8b f0		 mov	 esi, eax
  00065	8b 06		 mov	 eax, DWORD PTR [esi]
  00067	8a 50 15	 mov	 dl, BYTE PTR [eax+21]
  0006a	84 d2		 test	 dl, dl
  0006c	75 2c		 jne	 SHORT $L212644
  0006e	8b ff		 npad	 2
$L212666:
  00070	8b f0		 mov	 esi, eax
  00072	8b 06		 mov	 eax, DWORD PTR [esi]
  00074	8a 50 15	 mov	 dl, BYTE PTR [eax+21]
  00077	84 d2		 test	 dl, dl
  00079	74 f5		 je	 SHORT $L212666
  0007b	eb 1d		 jmp	 SHORT $L212644
$L212677:
  0007d	8b 46 04	 mov	 eax, DWORD PTR [esi+4]
  00080	8a 50 15	 mov	 dl, BYTE PTR [eax+21]
  00083	84 d2		 test	 dl, dl
  00085	75 11		 jne	 SHORT $L212647
$L212646:
  00087	3b 70 08	 cmp	 esi, DWORD PTR [eax+8]
  0008a	75 0c		 jne	 SHORT $L212647
  0008c	8b f0		 mov	 esi, eax
  0008e	8b 40 04	 mov	 eax, DWORD PTR [eax+4]
  00091	8a 50 15	 mov	 dl, BYTE PTR [eax+21]
  00094	84 d2		 test	 dl, dl
  00096	74 ef		 je	 SHORT $L212646
$L212647:
  00098	8b f0		 mov	 esi, eax
$L212644:
  0009a	51		 push	 ecx
  0009b	8d 44 24 18	 lea	 eax, DWORD PTR $T212343[esp+12]
  0009f	50		 push	 eax
  000a0	8b cf		 mov	 ecx, edi
  000a2	e8 00 00 00 00	 call	 ?erase@?$_Tree@V?$_Tmap_traits@KJU?$less@K@std@@V?$allocator@U?$pair@$$CBKJ@std@@@2@$0A@@std@@@std@@QAE?AViterator@12@V312@@Z ; std::_Tree<std::_Tmap_traits<unsigned long,long,std::less<unsigned long>,std::allocator<std::pair<unsigned long const ,long> >,0> >::erase
  000a7	3b f3		 cmp	 esi, ebx
  000a9	75 a5		 jne	 SHORT $L206899
$L206900:

; 760  : 			return (_First);

  000ab	8b 44 24 10	 mov	 eax, DWORD PTR ___$ReturnUdt$[esp+8]
  000af	5f		 pop	 edi
  000b0	89 30		 mov	 DWORD PTR [eax], esi
  000b2	5e		 pop	 esi
  000b3	5b		 pop	 ebx

; 761  : 			}
; 762  : 		}

  000b4	c2 0c 00	 ret	 12			; 0000000cH
?erase@?$_Tree@V?$_Tmap_traits@KJU?$less@K@std@@V?$allocator@U?$pair@$$CBKJ@std@@@2@$0A@@std@@@std@@QAE?AViterator@12@V312@0@Z ENDP ; std::_Tree<std::_Tmap_traits<unsigned long,long,std::less<unsigned long>,std::allocator<std::pair<unsigned long const ,long> >,0> >::erase
_TEXT	ENDS
PUBLIC	??_C@_0BL@NAJDJCKD@?6T?3?5CCoupleHelper?4OnTimer?6?$AA@ ; `string'
PUBLIC	?OnTimer@CCoupleHelper@@QAEXXZ			; CCoupleHelper::OnTimer
;	COMDAT ??_C@_0BL@NAJDJCKD@?6T?3?5CCoupleHelper?4OnTimer?6?$AA@
; File c:\documents and settings\test\mes documents\source\virtuos_v17\build\program\databaseserver\dbcontroller.h
CONST	SEGMENT
??_C@_0BL@NAJDJCKD@?6T?3?5CCoupleHelper?4OnTimer?6?$AA@ DB 0aH, 'T: CCoup'
	DB	'leHelper.OnTimer', 0aH, 00H			; `string'
; Function compile flags: /Ogty
; File c:\documents and settings\test\mes documents\source\virtuos_v17\build\program\databaseserver\couplehelper.cpp
CONST	ENDS
;	COMDAT ?OnTimer@CCoupleHelper@@QAEXXZ
_TEXT	SEGMENT
_i$206186 = -8						; size = 4
$T212685 = -4						; size = 4
?OnTimer@CCoupleHelper@@QAEXXZ PROC NEAR		; CCoupleHelper::OnTimer, COMDAT
; _this$ = ecx

; 262  : {

  00000	83 ec 08	 sub	 esp, 8
  00003	53		 push	 ebx
  00004	56		 push	 esi

; 263  : 	election::OutputDebugString( "\nT: CCoupleHelper.OnTimer\n" );

  00005	68 00 00 00 00	 push	 OFFSET FLAT:??_C@_0BL@NAJDJCKD@?6T?3?5CCoupleHelper?4OnTimer?6?$AA@
  0000a	8b f1		 mov	 esi, ecx
  0000c	e8 00 00 00 00	 call	 ?OutputDebugStringA@election@@YAXPBDZZ ; election::OutputDebugStringA

; 264  : 	time_t t	= time( NULL );

  00011	6a 00		 push	 0
  00013	e8 00 00 00 00	 call	 _time

; 265  : 	for( MUT::iterator i = m_mapProposes.begin(); i != m_mapProposes.end(); )

  00018	8b 4e 10	 mov	 ecx, DWORD PTR [esi+16]
  0001b	8b d8		 mov	 ebx, eax
  0001d	8b 01		 mov	 eax, DWORD PTR [ecx]
  0001f	83 c4 08	 add	 esp, 8
  00022	3b c1		 cmp	 eax, ecx
  00024	89 44 24 08	 mov	 DWORD PTR _i$206186[esp+16], eax
  00028	74 35		 je	 SHORT $L206191
  0002a	57		 push	 edi
  0002b	eb 03 8d 49 00	 npad	 5
$L206190:

; 266  : 	{
; 267  : 		if( t > i->second )

  00030	3b 58 10	 cmp	 ebx, DWORD PTR [eax+16]

; 268  : 			m_mapProposes.erase( i++ );

  00033	8d 4c 24 0c	 lea	 ecx, DWORD PTR _i$206186[esp+20]
  00037	7e 17		 jle	 SHORT $L206192
  00039	8b f8		 mov	 edi, eax
  0003b	e8 00 00 00 00	 call	 ?_Inc@const_iterator@?$_Tree@V?$_Tmap_traits@KJU?$less@K@std@@V?$allocator@U?$pair@$$CBKJ@std@@@2@$0A@@std@@@std@@QAEXXZ ; std::_Tree<std::_Tmap_traits<unsigned long,long,std::less<unsigned long>,std::allocator<std::pair<unsigned long const ,long> >,0> >::const_iterator::_Inc
  00040	57		 push	 edi
  00041	8d 44 24 14	 lea	 eax, DWORD PTR $T212685[esp+24]
  00045	50		 push	 eax
  00046	8d 4e 0c	 lea	 ecx, DWORD PTR [esi+12]
  00049	e8 00 00 00 00	 call	 ?erase@?$_Tree@V?$_Tmap_traits@KJU?$less@K@std@@V?$allocator@U?$pair@$$CBKJ@std@@@2@$0A@@std@@@std@@QAE?AViterator@12@V312@@Z ; std::_Tree<std::_Tmap_traits<unsigned long,long,std::less<unsigned long>,std::allocator<std::pair<unsigned long const ,long> >,0> >::erase

; 269  : 		else

  0004e	eb 05		 jmp	 SHORT $L212786
$L206192:

; 270  : 			++i;

  00050	e8 00 00 00 00	 call	 ?_Inc@const_iterator@?$_Tree@V?$_Tmap_traits@KJU?$less@K@std@@V?$allocator@U?$pair@$$CBKJ@std@@@2@$0A@@std@@@std@@QAEXXZ ; std::_Tree<std::_Tmap_traits<unsigned long,long,std::less<unsigned long>,std::allocator<std::pair<unsigned long const ,long> >,0> >::const_iterator::_Inc
$L212786:
  00055	8b 44 24 0c	 mov	 eax, DWORD PTR _i$206186[esp+20]
  00059	3b 46 10	 cmp	 eax, DWORD PTR [esi+16]
  0005c	75 d2		 jne	 SHORT $L206190
  0005e	5f		 pop	 edi
$L206191:

; 271  : 	}
; 272  : 	m_pController->DeletePropose( t );

  0005f	8b 15 00 00 00
	00		 mov	 edx, DWORD PTR ?g_appInfo@@3UAppInfo@@A
  00065	8b 4e 08	 mov	 ecx, DWORD PTR [esi+8]
  00068	8b 41 0c	 mov	 eax, DWORD PTR [ecx+12]
  0006b	53		 push	 ebx
  0006c	52		 push	 edx
  0006d	68 00 00 00 00	 push	 OFFSET FLAT:??_C@_0BI@JKNBOMDJ@uspDeletePropose?5?$CFd?0?5?$CFd?$AA@
  00072	50		 push	 eax
  00073	e8 00 00 00 00	 call	 ?Execute@CQuery@@QAAHPBDZZ ; CQuery::Execute
  00078	83 c4 10	 add	 esp, 16			; 00000010H
  0007b	85 c0		 test	 eax, eax
  0007d	5e		 pop	 esi
  0007e	5b		 pop	 ebx
  0007f	75 0d		 jne	 SHORT $L212796
  00081	68 00 00 00 00	 push	 OFFSET FLAT:??_C@_0CC@OACJEGKC@couldn?8t?5execute?5uspDeletePropos@
  00086	e8 00 00 00 00	 call	 ?Error@@YAPBDPBDZZ	; Error
  0008b	83 c4 04	 add	 esp, 4
$L212796:

; 273  : }

  0008e	83 c4 08	 add	 esp, 8
  00091	c3		 ret	 0
?OnTimer@CCoupleHelper@@QAEXXZ ENDP			; CCoupleHelper::OnTimer
_TEXT	ENDS
PUBLIC	?insert@?$_Tree@V?$_Tmap_traits@KJU?$less@K@std@@V?$allocator@U?$pair@$$CBKJ@std@@@2@$0A@@std@@@std@@QAE?AU?$pair@Viterator@?$_Tree@V?$_Tmap_traits@KJU?$less@K@std@@V?$allocator@U?$pair@$$CBKJ@std@@@2@$0A@@std@@@std@@_N@2@ABU?$pair@$$CBKJ@2@@Z ; std::_Tree<std::_Tmap_traits<unsigned long,long,std::less<unsigned long>,std::allocator<std::pair<unsigned long const ,long> >,0> >::insert
; Function compile flags: /Ogty
; File c:\program files\microsoft visual studio .net 2003\vc7\include\xtree
;	COMDAT ?insert@?$_Tree@V?$_Tmap_traits@KJU?$less@K@std@@V?$allocator@U?$pair@$$CBKJ@std@@@2@$0A@@std@@@std@@QAE?AU?$pair@Viterator@?$_Tree@V?$_Tmap_traits@KJU?$less@K@std@@V?$allocator@U?$pair@$$CBKJ@std@@@2@$0A@@std@@@std@@_N@2@ABU?$pair@$$CBKJ@2@@Z
_TEXT	SEGMENT
__Addleft$ = -4						; size = 1
___$ReturnUdt$ = 8					; size = 4
$T212809 = 12						; size = 4
$T212807 = 12						; size = 4
__Where$206345 = 12					; size = 4
__Val$ = 12						; size = 4
?insert@?$_Tree@V?$_Tmap_traits@KJU?$less@K@std@@V?$allocator@U?$pair@$$CBKJ@std@@@2@$0A@@std@@@std@@QAE?AU?$pair@Viterator@?$_Tree@V?$_Tmap_traits@KJU?$less@K@std@@V?$allocator@U?$pair@$$CBKJ@std@@@2@$0A@@std@@@std@@_N@2@ABU?$pair@$$CBKJ@2@@Z PROC NEAR ; std::_Tree<std::_Tmap_traits<unsigned long,long,std::less<unsigned long>,std::allocator<std::pair<unsigned long const ,long> >,0> >::insert, COMDAT
; _this$ = ecx

; 477  : 		{	// try to insert node with value _Val

  00000	51		 push	 ecx
  00001	55		 push	 ebp

; 478  : 		_Nodeptr _Trynode = _Root();
; 479  : 		_Nodeptr _Wherenode = _Myhead;
; 480  : 		bool _Addleft = true;	// add to left of head if tree empty
; 481  : 		while (!_Isnil(_Trynode))

  00002	8b 6c 24 10	 mov	 ebp, DWORD PTR __Val$[esp+4]
  00006	56		 push	 esi
  00007	57		 push	 edi
  00008	8b f9		 mov	 edi, ecx
  0000a	8b 77 04	 mov	 esi, DWORD PTR [edi+4]
  0000d	8b 46 04	 mov	 eax, DWORD PTR [esi+4]
  00010	8a 50 15	 mov	 dl, BYTE PTR [eax+21]
  00013	84 d2		 test	 dl, dl
  00015	b1 01		 mov	 cl, 1
  00017	88 4c 24 0c	 mov	 BYTE PTR __Addleft$[esp+16], cl
  0001b	75 20		 jne	 SHORT $L206335
  0001d	8b 55 00	 mov	 edx, DWORD PTR [ebp]
$L206334:

; 482  : 			{	// look for leaf to insert before (_Addleft) or after
; 483  : 			_Wherenode = _Trynode;
; 484  : 			_Addleft = this->comp(this->_Kfn(_Val), _Key(_Trynode));

  00020	3b 50 0c	 cmp	 edx, DWORD PTR [eax+12]
  00023	0f 92 c1	 setb	 cl

; 485  : 			_Trynode = _Addleft ? _Left(_Trynode) : _Right(_Trynode);

  00026	84 c9		 test	 cl, cl
  00028	8b f0		 mov	 esi, eax
  0002a	88 4c 24 0c	 mov	 BYTE PTR __Addleft$[esp+16], cl
  0002e	74 04		 je	 SHORT $L212801
  00030	8b 00		 mov	 eax, DWORD PTR [eax]
  00032	eb 03		 jmp	 SHORT $L212802
$L212801:
  00034	8b 40 08	 mov	 eax, DWORD PTR [eax+8]
$L212802:

; 478  : 		_Nodeptr _Trynode = _Root();
; 479  : 		_Nodeptr _Wherenode = _Myhead;
; 480  : 		bool _Addleft = true;	// add to left of head if tree empty
; 481  : 		while (!_Isnil(_Trynode))

  00037	80 78 15 00	 cmp	 BYTE PTR [eax+21], 0
  0003b	74 e3		 je	 SHORT $L206334
$L206335:

; 486  : 			}
; 487  : 
; 488  : 		if (this->_Multi)
; 489  : 			return (_Pairib(_Insert(_Addleft, _Wherenode, _Val), true));
; 490  : 		else
; 491  : 			{	// insert only if unique
; 492  : 			iterator _Where = _TREE_ITERATOR(_Wherenode);
; 493  : 			if (!_Addleft)

  0003d	84 c9		 test	 cl, cl
  0003f	8b d6		 mov	 edx, esi
  00041	89 54 24 18	 mov	 DWORD PTR __Where$206345[esp+12], edx
  00045	74 33		 je	 SHORT $L212900

; 494  : 				;	// need to test if insert after is okay
; 495  : 			else if (_Where == begin())

  00047	8b 47 04	 mov	 eax, DWORD PTR [edi+4]
  0004a	3b 30		 cmp	 esi, DWORD PTR [eax]

; 496  : 				return (_Pairib(_Insert(true, _Wherenode, _Val), true));

  0004c	8d 4c 24 18	 lea	 ecx, DWORD PTR $T212807[esp+12]
  00050	75 1f		 jne	 SHORT $L206350
  00052	55		 push	 ebp
  00053	56		 push	 esi
  00054	6a 01		 push	 1
  00056	51		 push	 ecx
  00057	8b cf		 mov	 ecx, edi
  00059	e8 00 00 00 00	 call	 ?_Insert@?$_Tree@V?$_Tmap_traits@KJU?$less@K@std@@V?$allocator@U?$pair@$$CBKJ@std@@@2@$0A@@std@@@std@@IAE?AViterator@12@_NPAU_Node@?$_Tree_nod@V?$_Tmap_traits@KJU?$less@K@std@@V?$allocator@U?$pair@$$CBKJ@std@@@2@$0A@@std@@@2@ABU?$pair@$$CBKJ@2@@Z ; std::_Tree<std::_Tmap_traits<unsigned long,long,std::less<unsigned long>,std::allocator<std::pair<unsigned long const ,long> >,0> >::_Insert
  0005e	8b 10		 mov	 edx, DWORD PTR [eax]
  00060	8b 44 24 14	 mov	 eax, DWORD PTR ___$ReturnUdt$[esp+12]
  00064	5f		 pop	 edi
  00065	5e		 pop	 esi
  00066	c6 40 04 01	 mov	 BYTE PTR [eax+4], 1

; 502  : 			else
; 503  : 				return (_Pairib(_Where, false));

  0006a	89 10		 mov	 DWORD PTR [eax], edx
  0006c	5d		 pop	 ebp

; 504  : 			}
; 505  : 		}

  0006d	59		 pop	 ecx
  0006e	c2 08 00	 ret	 8
$L206350:

; 497  : 			else
; 498  : 				--_Where;	// need to test if insert before is okay

  00071	e8 00 00 00 00	 call	 ?_Dec@const_iterator@?$_Tree@V?$_Tmap_traits@KJU?$less@K@std@@V?$allocator@U?$pair@$$CBKJ@std@@@2@$0A@@std@@@std@@QAEXXZ ; std::_Tree<std::_Tmap_traits<unsigned long,long,std::less<unsigned long>,std::allocator<std::pair<unsigned long const ,long> >,0> >::const_iterator::_Dec
  00076	8b 54 24 18	 mov	 edx, DWORD PTR __Where$206345[esp+12]
$L212900:

; 499  : 
; 500  : 			if (this->comp(_Key(_Where._Mynode()), this->_Kfn(_Val)))

  0007a	8b 42 0c	 mov	 eax, DWORD PTR [edx+12]
  0007d	3b 45 00	 cmp	 eax, DWORD PTR [ebp]
  00080	73 26		 jae	 SHORT $L206355

; 501  : 				return (_Pairib(_Insert(_Addleft, _Wherenode, _Val), true));

  00082	8b 4c 24 0c	 mov	 ecx, DWORD PTR __Addleft$[esp+16]
  00086	55		 push	 ebp
  00087	56		 push	 esi
  00088	51		 push	 ecx
  00089	8d 54 24 24	 lea	 edx, DWORD PTR $T212809[esp+24]
  0008d	52		 push	 edx
  0008e	8b cf		 mov	 ecx, edi
  00090	e8 00 00 00 00	 call	 ?_Insert@?$_Tree@V?$_Tmap_traits@KJU?$less@K@std@@V?$allocator@U?$pair@$$CBKJ@std@@@2@$0A@@std@@@std@@IAE?AViterator@12@_NPAU_Node@?$_Tree_nod@V?$_Tmap_traits@KJU?$less@K@std@@V?$allocator@U?$pair@$$CBKJ@std@@@2@$0A@@std@@@2@ABU?$pair@$$CBKJ@2@@Z ; std::_Tree<std::_Tmap_traits<unsigned long,long,std::less<unsigned long>,std::allocator<std::pair<unsigned long const ,long> >,0> >::_Insert
  00095	8b 08		 mov	 ecx, DWORD PTR [eax]
  00097	8b 44 24 14	 mov	 eax, DWORD PTR ___$ReturnUdt$[esp+12]
  0009b	5f		 pop	 edi
  0009c	5e		 pop	 esi
  0009d	89 08		 mov	 DWORD PTR [eax], ecx
  0009f	c6 40 04 01	 mov	 BYTE PTR [eax+4], 1
  000a3	5d		 pop	 ebp

; 504  : 			}
; 505  : 		}

  000a4	59		 pop	 ecx
  000a5	c2 08 00	 ret	 8
$L206355:

; 502  : 			else
; 503  : 				return (_Pairib(_Where, false));

  000a8	8b 44 24 14	 mov	 eax, DWORD PTR ___$ReturnUdt$[esp+12]
  000ac	5f		 pop	 edi
  000ad	5e		 pop	 esi
  000ae	c6 40 04 00	 mov	 BYTE PTR [eax+4], 0
  000b2	89 10		 mov	 DWORD PTR [eax], edx
  000b4	5d		 pop	 ebp

; 504  : 			}
; 505  : 		}

  000b5	59		 pop	 ecx
  000b6	c2 08 00	 ret	 8
?insert@?$_Tree@V?$_Tmap_traits@KJU?$less@K@std@@V?$allocator@U?$pair@$$CBKJ@std@@@2@$0A@@std@@@std@@QAE?AU?$pair@Viterator@?$_Tree@V?$_Tmap_traits@KJU?$less@K@std@@V?$allocator@U?$pair@$$CBKJ@std@@@2@$0A@@std@@@std@@_N@2@ABU?$pair@$$CBKJ@2@@Z ENDP ; std::_Tree<std::_Tmap_traits<unsigned long,long,std::less<unsigned long>,std::allocator<std::pair<unsigned long const ,long> >,0> >::insert
_TEXT	ENDS
PUBLIC	?_Tidy@?$_Tree@V?$_Tmap_traits@KJU?$less@K@std@@V?$allocator@U?$pair@$$CBKJ@std@@@2@$0A@@std@@@std@@IAEXXZ ; std::_Tree<std::_Tmap_traits<unsigned long,long,std::less<unsigned long>,std::allocator<std::pair<unsigned long const ,long> >,0> >::_Tidy
; Function compile flags: /Ogty
;	COMDAT ?_Tidy@?$_Tree@V?$_Tmap_traits@KJU?$less@K@std@@V?$allocator@U?$pair@$$CBKJ@std@@@2@$0A@@std@@@std@@IAEXXZ
_TEXT	SEGMENT
$T212939 = -4						; size = 4
?_Tidy@?$_Tree@V?$_Tmap_traits@KJU?$less@K@std@@V?$allocator@U?$pair@$$CBKJ@std@@@2@$0A@@std@@@std@@IAEXXZ PROC NEAR ; std::_Tree<std::_Tmap_traits<unsigned long,long,std::less<unsigned long>,std::allocator<std::pair<unsigned long const ,long> >,0> >::_Tidy, COMDAT
; _this$ = ecx

; 1142 : 		{	// free all storage

  00000	51		 push	 ecx
  00001	56		 push	 esi
  00002	8b f1		 mov	 esi, ecx

; 1143 : 		erase(begin(), end());

  00004	8b 46 04	 mov	 eax, DWORD PTR [esi+4]
  00007	8b 08		 mov	 ecx, DWORD PTR [eax]
  00009	50		 push	 eax
  0000a	51		 push	 ecx
  0000b	8d 44 24 0c	 lea	 eax, DWORD PTR $T212939[esp+16]
  0000f	50		 push	 eax
  00010	8b ce		 mov	 ecx, esi
  00012	e8 00 00 00 00	 call	 ?erase@?$_Tree@V?$_Tmap_traits@KJU?$less@K@std@@V?$allocator@U?$pair@$$CBKJ@std@@@2@$0A@@std@@@std@@QAE?AViterator@12@V312@0@Z ; std::_Tree<std::_Tmap_traits<unsigned long,long,std::less<unsigned long>,std::allocator<std::pair<unsigned long const ,long> >,0> >::erase

; 1144 : 		this->_Alptr.destroy(&_Left(_Myhead));
; 1145 : 		this->_Alptr.destroy(&_Parent(_Myhead));
; 1146 : 		this->_Alptr.destroy(&_Right(_Myhead));
; 1147 : 		this->_Alnod.deallocate(_Myhead, 1);

  00017	8b 4e 04	 mov	 ecx, DWORD PTR [esi+4]
  0001a	51		 push	 ecx
  0001b	e8 00 00 00 00	 call	 ??3@YAXPAX@Z		; operator delete
  00020	83 c4 04	 add	 esp, 4

; 1148 : 		_Myhead = 0, _Mysize = 0;

  00023	33 c0		 xor	 eax, eax
  00025	89 46 04	 mov	 DWORD PTR [esi+4], eax
  00028	89 46 08	 mov	 DWORD PTR [esi+8], eax
  0002b	5e		 pop	 esi

; 1149 : 		}

  0002c	59		 pop	 ecx
  0002d	c3		 ret	 0
?_Tidy@?$_Tree@V?$_Tmap_traits@KJU?$less@K@std@@V?$allocator@U?$pair@$$CBKJ@std@@@2@$0A@@std@@@std@@IAEXXZ ENDP ; std::_Tree<std::_Tmap_traits<unsigned long,long,std::less<unsigned long>,std::allocator<std::pair<unsigned long const ,long> >,0> >::_Tidy
_TEXT	ENDS
PUBLIC	?AddPropose@CCoupleHelper@@QAE_NKJ@Z		; CCoupleHelper::AddPropose
; Function compile flags: /Ogty
; File c:\documents and settings\test\mes documents\source\virtuos_v17\build\program\databaseserver\couplehelper.h
;	COMDAT ?AddPropose@CCoupleHelper@@QAE_NKJ@Z
_TEXT	SEGMENT
$T213001 = -16						; size = 8
$T213002 = -8						; size = 8
_idPlayer$ = 8						; size = 4
_t$ = 12						; size = 4
?AddPropose@CCoupleHelper@@QAE_NKJ@Z PROC NEAR		; CCoupleHelper::AddPropose, COMDAT
; _this$ = ecx

; 59   : 	bool	AddPropose( u_long idPlayer, time_t t )	{	return m_mapProposes.insert( MUT::value_type( idPlayer, t ) ).second;	}

  00000	83 ec 10	 sub	 esp, 16			; 00000010H
  00003	8b 44 24 14	 mov	 eax, DWORD PTR _idPlayer$[esp+12]
  00007	8b 54 24 18	 mov	 edx, DWORD PTR _t$[esp+12]
  0000b	89 04 24	 mov	 DWORD PTR $T213001[esp+16], eax
  0000e	8d 04 24	 lea	 eax, DWORD PTR $T213001[esp+16]
  00011	89 54 24 04	 mov	 DWORD PTR $T213001[esp+20], edx
  00015	50		 push	 eax
  00016	8d 54 24 0c	 lea	 edx, DWORD PTR $T213002[esp+20]
  0001a	52		 push	 edx
  0001b	83 c1 0c	 add	 ecx, 12			; 0000000cH
  0001e	e8 00 00 00 00	 call	 ?insert@?$_Tree@V?$_Tmap_traits@KJU?$less@K@std@@V?$allocator@U?$pair@$$CBKJ@std@@@2@$0A@@std@@@std@@QAE?AU?$pair@Viterator@?$_Tree@V?$_Tmap_traits@KJU?$less@K@std@@V?$allocator@U?$pair@$$CBKJ@std@@@2@$0A@@std@@@std@@_N@2@ABU?$pair@$$CBKJ@2@@Z ; std::_Tree<std::_Tmap_traits<unsigned long,long,std::less<unsigned long>,std::allocator<std::pair<unsigned long const ,long> >,0> >::insert
  00023	8a 40 04	 mov	 al, BYTE PTR [eax+4]
  00026	83 c4 10	 add	 esp, 16			; 00000010H
  00029	c2 08 00	 ret	 8
?AddPropose@CCoupleHelper@@QAE_NKJ@Z ENDP		; CCoupleHelper::AddPropose
_TEXT	ENDS
PUBLIC	?Restore@CCoupleController@@QAEHXZ		; CCoupleController::Restore
PUBLIC	??_C@_0BE@LAHMMJCP@uspRestoreCouple?5?$CFd?$AA@	; `string'
PUBLIC	??_C@_0CC@GMJLNCFC@couldn?8t?5execute?5uspRestoreCoupl@ ; `string'
PUBLIC	??_C@_0M@ODFMJGEL@nExperience?$AA@		; `string'
PUBLIC	??_C@_07LLHBANFB@idFirst?$AA@			; `string'
PUBLIC	??_C@_08JJMLNGN@idSecond?$AA@			; `string'
PUBLIC	??_C@_0BF@EEKILEKJ@uspRestorePropose?5?$CFd?$AA@ ; `string'
PUBLIC	??_C@_0CD@MBONKOPP@couldn?8t?5execute?5uspRestorePropo@ ; `string'
PUBLIC	??_C@_0L@LMOLFJKD@idProposer?$AA@		; `string'
PUBLIC	??_C@_08LHGALILC@tPropose?$AA@			; `string'
EXTRN	??0CCouple@@QAE@KK@Z:NEAR			; CCouple::CCouple
EXTRN	?Fetch@CQuery@@QAEHXZ:NEAR			; CQuery::Fetch
EXTRN	?Clear@CQuery@@QAEXXZ:NEAR			; CQuery::Clear
EXTRN	?GetInt@CQuery@@QAEHPAD@Z:NEAR			; CQuery::GetInt
EXTRN	?CreateQuery@CDbController@@QAEPAVCQuery@@XZ:NEAR ; CDbController::CreateQuery
;	COMDAT xdata$x
; File c:\documents and settings\test\mes documents\source\virtuos_v17\build\program\databaseserver\couplehelper.cpp
xdata$x	SEGMENT
$T213048 DD	0ffffffffH
	DD	FLAT:$L213016
$T213041 DD	019930520H
	DD	01H
	DD	FLAT:$T213048
	DD	2 DUP(00H)
	DD	2 DUP(00H)
xdata$x	ENDS
;	COMDAT ??_C@_0BE@LAHMMJCP@uspRestoreCouple?5?$CFd?$AA@
CONST	SEGMENT
??_C@_0BE@LAHMMJCP@uspRestoreCouple?5?$CFd?$AA@ DB 'uspRestoreCouple %d', 00H ; `string'
CONST	ENDS
;	COMDAT ??_C@_0CC@GMJLNCFC@couldn?8t?5execute?5uspRestoreCoupl@
CONST	SEGMENT
??_C@_0CC@GMJLNCFC@couldn?8t?5execute?5uspRestoreCoupl@ DB 'couldn''t exe'
	DB	'cute uspRestoreCouple', 00H			; `string'
CONST	ENDS
;	COMDAT ??_C@_0M@ODFMJGEL@nExperience?$AA@
CONST	SEGMENT
??_C@_0M@ODFMJGEL@nExperience?$AA@ DB 'nExperience', 00H ; `string'
CONST	ENDS
;	COMDAT ??_C@_07LLHBANFB@idFirst?$AA@
CONST	SEGMENT
??_C@_07LLHBANFB@idFirst?$AA@ DB 'idFirst', 00H		; `string'
CONST	ENDS
;	COMDAT ??_C@_08JJMLNGN@idSecond?$AA@
CONST	SEGMENT
??_C@_08JJMLNGN@idSecond?$AA@ DB 'idSecond', 00H	; `string'
CONST	ENDS
;	COMDAT ??_C@_0BF@EEKILEKJ@uspRestorePropose?5?$CFd?$AA@
CONST	SEGMENT
??_C@_0BF@EEKILEKJ@uspRestorePropose?5?$CFd?$AA@ DB 'uspRestorePropose %d'
	DB	00H						; `string'
CONST	ENDS
;	COMDAT ??_C@_0CD@MBONKOPP@couldn?8t?5execute?5uspRestorePropo@
CONST	SEGMENT
??_C@_0CD@MBONKOPP@couldn?8t?5execute?5uspRestorePropo@ DB 'couldn''t exe'
	DB	'cute uspRestorePropose', 00H		; `string'
CONST	ENDS
;	COMDAT ??_C@_0L@LMOLFJKD@idProposer?$AA@
CONST	SEGMENT
??_C@_0L@LMOLFJKD@idProposer?$AA@ DB 'idProposer', 00H	; `string'
CONST	ENDS
;	COMDAT ??_C@_08LHGALILC@tPropose?$AA@
CONST	SEGMENT
??_C@_08LHGALILC@tPropose?$AA@ DB 'tPropose', 00H	; `string'
; Function compile flags: /Ogty
CONST	ENDS
;	COMDAT ?Restore@CCoupleController@@QAEHXZ
_TEXT	SEGMENT
_this$ = -36						; size = 4
$T213028 = -32						; size = 8
$T213009 = -32						; size = 4
$T213029 = -24						; size = 8
__$EHRec$ = -12						; size = 12
?Restore@CCoupleController@@QAEHXZ PROC NEAR		; CCoupleController::Restore, COMDAT
; _this$ = ecx

; 24   : {

  00000	55		 push	 ebp
  00001	8b ec		 mov	 ebp, esp
  00003	83 e4 f8	 and	 esp, -8			; fffffff8H
  00006	6a ff		 push	 -1
  00008	68 00 00 00 00	 push	 __ehhandler$?Restore@CCoupleController@@QAEHXZ
  0000d	64 a1 00 00 00
	00		 mov	 eax, DWORD PTR fs:__except_list
  00013	50		 push	 eax
  00014	64 89 25 00 00
	00 00		 mov	 DWORD PTR fs:__except_list, esp
  0001b	83 ec 1c	 sub	 esp, 28			; 0000001cH
  0001e	53		 push	 ebx
  0001f	55		 push	 ebp
  00020	56		 push	 esi
  00021	57		 push	 edi
  00022	8b f9		 mov	 edi, ecx
  00024	89 7c 24 14	 mov	 DWORD PTR _this$[esp+56], edi

; 25   : 	CQuery* pQuery	= CreateQuery();

  00028	e8 00 00 00 00	 call	 ?CreateQuery@CDbController@@QAEPAVCQuery@@XZ ; CDbController::CreateQuery
  0002d	8b f0		 mov	 esi, eax

; 26   : 	if( !pQuery )

  0002f	85 f6		 test	 esi, esi

; 27   : 		return FALSE;

  00031	0f 84 49 01 00
	00		 je	 $L213046

; 28   : 	if( !pQuery->Execute( "uspRestoreCouple %d", g_appInfo.dwSys ) )

  00037	a1 00 00 00 00	 mov	 eax, DWORD PTR ?g_appInfo@@3UAppInfo@@A
  0003c	50		 push	 eax
  0003d	68 00 00 00 00	 push	 OFFSET FLAT:??_C@_0BE@LAHMMJCP@uspRestoreCouple?5?$CFd?$AA@
  00042	56		 push	 esi
  00043	e8 00 00 00 00	 call	 ?Execute@CQuery@@QAAHPBDZZ ; CQuery::Execute
  00048	83 c4 0c	 add	 esp, 12			; 0000000cH
  0004b	85 c0		 test	 eax, eax
  0004d	75 0f		 jne	 SHORT $L213042

; 29   : 	{
; 30   : 		Error( "couldn't execute uspRestoreCouple" );

  0004f	68 00 00 00 00	 push	 OFFSET FLAT:??_C@_0CC@GMJLNCFC@couldn?8t?5execute?5uspRestoreCoupl@
  00054	e8 00 00 00 00	 call	 ?Error@@YAPBDPBDZZ	; Error

; 31   : 		return FALSE;

  00059	e9 1f 01 00 00	 jmp	 $L213047
$L213042:

; 32   : 	}
; 33   : 	while( pQuery->Fetch() )

  0005e	8b ce		 mov	 ecx, esi
  00060	e8 00 00 00 00	 call	 ?Fetch@CQuery@@QAEHXZ	; CQuery::Fetch
  00065	85 c0		 test	 eax, eax
  00067	0f 84 85 00 00
	00		 je	 $L205724
  0006d	8d 49 00	 npad	 3
$L205723:

; 34   : 	{
; 35   : 		int nExperience	= pQuery->GetInt( "nExperience" );

  00070	68 00 00 00 00	 push	 OFFSET FLAT:??_C@_0M@ODFMJGEL@nExperience?$AA@
  00075	8b ce		 mov	 ecx, esi
  00077	e8 00 00 00 00	 call	 ?GetInt@CQuery@@QAEHPAD@Z ; CQuery::GetInt

; 36   : 		u_long idFirst	= pQuery->GetInt( "idFirst" );

  0007c	68 00 00 00 00	 push	 OFFSET FLAT:??_C@_07LLHBANFB@idFirst?$AA@
  00081	8b ce		 mov	 ecx, esi
  00083	8b e8		 mov	 ebp, eax
  00085	e8 00 00 00 00	 call	 ?GetInt@CQuery@@QAEHPAD@Z ; CQuery::GetInt

; 37   : 		u_long idSecond	= pQuery->GetInt( "idSecond" );

  0008a	68 00 00 00 00	 push	 OFFSET FLAT:??_C@_08JJMLNGN@idSecond?$AA@
  0008f	8b ce		 mov	 ecx, esi
  00091	8b f8		 mov	 edi, eax
  00093	e8 00 00 00 00	 call	 ?GetInt@CQuery@@QAEHPAD@Z ; CQuery::GetInt

; 38   : 		CCouple* pCouple	= new CCouple( idFirst, idSecond );

  00098	6a 14		 push	 20			; 00000014H
  0009a	8b d8		 mov	 ebx, eax
  0009c	e8 00 00 00 00	 call	 ??2@YAPAXI@Z		; operator new
  000a1	83 c4 04	 add	 esp, 4
  000a4	89 44 24 18	 mov	 DWORD PTR $T213009[esp+56], eax
  000a8	85 c0		 test	 eax, eax
  000aa	c7 44 24 34 00
	00 00 00	 mov	 DWORD PTR __$EHRec$[esp+64], 0
  000b2	74 0d		 je	 SHORT $L213010
  000b4	53		 push	 ebx
  000b5	57		 push	 edi
  000b6	8b c8		 mov	 ecx, eax
  000b8	e8 00 00 00 00	 call	 ??0CCouple@@QAE@KK@Z	; CCouple::CCouple
  000bd	8b f8		 mov	 edi, eax
  000bf	eb 02		 jmp	 SHORT $L213011
$L213010:
  000c1	33 ff		 xor	 edi, edi
$L213011:

; 39   : 		m_pHelper->Couple( pCouple );

  000c3	8b 4c 24 14	 mov	 ecx, DWORD PTR _this$[esp+56]
  000c7	8b 51 14	 mov	 edx, DWORD PTR [ecx+20]
  000ca	8b 4a 04	 mov	 ecx, DWORD PTR [edx+4]
  000cd	57		 push	 edi
  000ce	c7 44 24 38 ff
	ff ff ff	 mov	 DWORD PTR __$EHRec$[esp+68], -1
  000d6	e8 00 00 00 00	 call	 ?Couple@CCoupleMgr@@QAEXPAVCCouple@@@Z ; CCoupleMgr::Couple

; 40   : 		pCouple->AddExperience( nExperience );

  000db	55		 push	 ebp
  000dc	8b cf		 mov	 ecx, edi
  000de	e8 00 00 00 00	 call	 ?AddExperience@CCouple@@QAEHH@Z ; CCouple::AddExperience
  000e3	8b ce		 mov	 ecx, esi
  000e5	e8 00 00 00 00	 call	 ?Fetch@CQuery@@QAEHXZ	; CQuery::Fetch
  000ea	85 c0		 test	 eax, eax
  000ec	75 82		 jne	 SHORT $L205723

; 32   : 	}
; 33   : 	while( pQuery->Fetch() )

  000ee	8b 7c 24 14	 mov	 edi, DWORD PTR _this$[esp+56]
$L205724:

; 41   : 	}
; 42   : 
; 43   : 	pQuery->Clear();

  000f2	8b ce		 mov	 ecx, esi
  000f4	e8 00 00 00 00	 call	 ?Clear@CQuery@@QAEXXZ	; CQuery::Clear

; 44   : 	if( !pQuery->Execute( "uspRestorePropose %d", g_appInfo.dwSys ) )

  000f9	a1 00 00 00 00	 mov	 eax, DWORD PTR ?g_appInfo@@3UAppInfo@@A
  000fe	50		 push	 eax
  000ff	68 00 00 00 00	 push	 OFFSET FLAT:??_C@_0BF@EEKILEKJ@uspRestorePropose?5?$CFd?$AA@
  00104	56		 push	 esi
  00105	e8 00 00 00 00	 call	 ?Execute@CQuery@@QAAHPBDZZ ; CQuery::Execute
  0010a	83 c4 0c	 add	 esp, 12			; 0000000cH
  0010d	85 c0		 test	 eax, eax
  0010f	75 0c		 jne	 SHORT $L213043

; 45   : 	{
; 46   : 		Error( "couldn't execute uspRestorePropose" );

  00111	68 00 00 00 00	 push	 OFFSET FLAT:??_C@_0CD@MBONKOPP@couldn?8t?5execute?5uspRestorePropo@
  00116	e8 00 00 00 00	 call	 ?Error@@YAPBDPBDZZ	; Error

; 47   : 		return FALSE;

  0011b	eb 60		 jmp	 SHORT $L213047
$L213043:

; 48   : 	}
; 49   : 	while( pQuery->Fetch() )

  0011d	8b ce		 mov	 ecx, esi
  0011f	e8 00 00 00 00	 call	 ?Fetch@CQuery@@QAEHXZ	; CQuery::Fetch
  00124	85 c0		 test	 eax, eax
  00126	74 48		 je	 SHORT $L205741
  00128	eb 06 8d 9b 00
	00 00 00	 npad	 8
$L205740:

; 50   : 	{
; 51   : 		u_long idProposer	= pQuery->GetInt( "idProposer" );

  00130	68 00 00 00 00	 push	 OFFSET FLAT:??_C@_0L@LMOLFJKD@idProposer?$AA@
  00135	8b ce		 mov	 ecx, esi
  00137	e8 00 00 00 00	 call	 ?GetInt@CQuery@@QAEHPAD@Z ; CQuery::GetInt

; 52   : 		time_t tPropose	= pQuery->GetInt( "tPropose" );

  0013c	68 00 00 00 00	 push	 OFFSET FLAT:??_C@_08LHGALILC@tPropose?$AA@
  00141	8b ce		 mov	 ecx, esi

; 53   : 		bool bResult	= m_pHelper->AddPropose( idProposer, tPropose );

  00143	89 44 24 1c	 mov	 DWORD PTR $T213028[esp+60], eax
  00147	e8 00 00 00 00	 call	 ?GetInt@CQuery@@QAEHPAD@Z ; CQuery::GetInt
  0014c	8d 4c 24 18	 lea	 ecx, DWORD PTR $T213028[esp+56]
  00150	51		 push	 ecx
  00151	8b 4f 14	 mov	 ecx, DWORD PTR [edi+20]
  00154	8d 54 24 24	 lea	 edx, DWORD PTR $T213029[esp+60]
  00158	52		 push	 edx
  00159	83 c1 0c	 add	 ecx, 12			; 0000000cH
  0015c	89 44 24 24	 mov	 DWORD PTR $T213028[esp+68], eax
  00160	e8 00 00 00 00	 call	 ?insert@?$_Tree@V?$_Tmap_traits@KJU?$less@K@std@@V?$allocator@U?$pair@$$CBKJ@std@@@2@$0A@@std@@@std@@QAE?AU?$pair@Viterator@?$_Tree@V?$_Tmap_traits@KJU?$less@K@std@@V?$allocator@U?$pair@$$CBKJ@std@@@2@$0A@@std@@@std@@_N@2@ABU?$pair@$$CBKJ@2@@Z ; std::_Tree<std::_Tmap_traits<unsigned long,long,std::less<unsigned long>,std::allocator<std::pair<unsigned long const ,long> >,0> >::insert
  00165	8b ce		 mov	 ecx, esi
  00167	e8 00 00 00 00	 call	 ?Fetch@CQuery@@QAEHXZ	; CQuery::Fetch
  0016c	85 c0		 test	 eax, eax
  0016e	75 c0		 jne	 SHORT $L205740
$L205741:

; 54   : 		ASSERT( bResult );
; 55   : 	}
; 56   : 	
; 57   : 	SAFE_DELETE( pQuery );

  00170	8b ce		 mov	 ecx, esi
  00172	e8 00 00 00 00	 call	 ??1CQuery@@QAE@XZ	; CQuery::~CQuery
  00177	56		 push	 esi
  00178	e8 00 00 00 00	 call	 ??3@YAXPAX@Z		; operator delete
$L213047:
  0017d	83 c4 04	 add	 esp, 4
$L213046:

; 58   : 	return FALSE;
; 59   : }

  00180	8b 4c 24 2c	 mov	 ecx, DWORD PTR __$EHRec$[esp+56]
  00184	5f		 pop	 edi
  00185	33 c0		 xor	 eax, eax
  00187	64 89 0d 00 00
	00 00		 mov	 DWORD PTR fs:__except_list, ecx
  0018e	5e		 pop	 esi
  0018f	5d		 pop	 ebp
  00190	5b		 pop	 ebx
  00191	8b e5		 mov	 esp, ebp
  00193	5d		 pop	 ebp
  00194	c3		 ret	 0
_TEXT	ENDS
;	COMDAT text$x
text$x	SEGMENT
$L213016:
  00000	8b 45 e0	 mov	 eax, DWORD PTR $T213009[ebp]
  00003	50		 push	 eax
  00004	e8 00 00 00 00	 call	 ??3@YAXPAX@Z		; operator delete
  00009	59		 pop	 ecx
  0000a	c3		 ret	 0
__ehhandler$?Restore@CCoupleController@@QAEHXZ:
  0000b	b8 00 00 00 00	 mov	 eax, OFFSET FLAT:$T213041
  00010	e9 00 00 00 00	 jmp	 ___CxxFrameHandler
text$x	ENDS
?Restore@CCoupleController@@QAEHXZ ENDP			; CCoupleController::Restore
; Function compile flags: /Ogty
;	COMDAT ?OnTimer@CCoupleController@@UAEXXZ
_TEXT	SEGMENT
?OnTimer@CCoupleController@@UAEXXZ PROC NEAR		; CCoupleController::OnTimer, COMDAT
; _this$ = ecx

; 120  : 	m_pHelper->OnTimer();

  00000	8b 49 14	 mov	 ecx, DWORD PTR [ecx+20]
  00003	e9 00 00 00 00	 jmp	 ?OnTimer@CCoupleHelper@@QAEXXZ ; CCoupleHelper::OnTimer
?OnTimer@CCoupleController@@UAEXXZ ENDP			; CCoupleController::OnTimer
_TEXT	ENDS
PUBLIC	?Initialize@CCoupleHelper@@QAEHXZ		; CCoupleHelper::Initialize
EXTRN	?Initialize@CCoupleProperty@@QAEHXZ:NEAR	; CCoupleProperty::Initialize
EXTRN	?CreateDbHandler@CDbController@@QAEHK@Z:NEAR	; CDbController::CreateDbHandler
EXTRN	??0CCoupleMgr@@QAE@XZ:NEAR			; CCoupleMgr::CCoupleMgr
;	COMDAT xdata$x
xdata$x	SEGMENT
$T213071 DD	0ffffffffH
	DD	FLAT:$L213062
	DD	0ffffffffH
	DD	FLAT:$L213063
$T213069 DD	019930520H
	DD	02H
	DD	FLAT:$T213071
	DD	2 DUP(00H)
	DD	2 DUP(00H)
; Function compile flags: /Ogty
xdata$x	ENDS
;	COMDAT ?Initialize@CCoupleHelper@@QAEHXZ
_TEXT	SEGMENT
$T213059 = -16						; size = 4
$T213055 = -16						; size = 4
__$EHRec$ = -12						; size = 12
?Initialize@CCoupleHelper@@QAEHXZ PROC NEAR		; CCoupleHelper::Initialize, COMDAT
; _this$ = ecx

; 154  : {

  00000	6a ff		 push	 -1
  00002	68 00 00 00 00	 push	 __ehhandler$?Initialize@CCoupleHelper@@QAEHXZ
  00007	64 a1 00 00 00
	00		 mov	 eax, DWORD PTR fs:__except_list
  0000d	50		 push	 eax
  0000e	64 89 25 00 00
	00 00		 mov	 DWORD PTR fs:__except_list, esp
  00015	51		 push	 ecx
  00016	56		 push	 esi
  00017	57		 push	 edi

; 155  : 	m_pController	= new CCoupleController( this );

  00018	6a 18		 push	 24			; 00000018H
  0001a	8b f9		 mov	 edi, ecx
  0001c	e8 00 00 00 00	 call	 ??2@YAPAXI@Z		; operator new
  00021	8b f0		 mov	 esi, eax
  00023	83 c4 04	 add	 esp, 4
  00026	89 74 24 08	 mov	 DWORD PTR $T213055[esp+24], esi
  0002a	85 f6		 test	 esi, esi
  0002c	c7 44 24 14 00
	00 00 00	 mov	 DWORD PTR __$EHRec$[esp+32], 0
  00034	74 14		 je	 SHORT $L213056
  00036	8b ce		 mov	 ecx, esi
  00038	e8 00 00 00 00	 call	 ??0CDbController@@QAE@XZ ; CDbController::CDbController
  0003d	c7 06 00 00 00
	00		 mov	 DWORD PTR [esi], OFFSET FLAT:??_7CCoupleController@@6B@
  00043	89 7e 14	 mov	 DWORD PTR [esi+20], edi
  00046	8b ce		 mov	 ecx, esi
  00048	eb 02		 jmp	 SHORT $L213057
$L213056:
  0004a	33 c9		 xor	 ecx, ecx
$L213057:
  0004c	83 ce ff	 or	 esi, -1

; 156  : 	m_pController->CreateDbHandler( MIN( 1 ) );

  0004f	68 60 ea 00 00	 push	 60000			; 0000ea60H
  00054	89 74 24 18	 mov	 DWORD PTR __$EHRec$[esp+36], esi
  00058	89 4f 08	 mov	 DWORD PTR [edi+8], ecx
  0005b	e8 00 00 00 00	 call	 ?CreateDbHandler@CDbController@@QAEHK@Z ; CDbController::CreateDbHandler

; 157  : 	m_pMgr	= new CCoupleMgr;

  00060	6a 20		 push	 32			; 00000020H
  00062	e8 00 00 00 00	 call	 ??2@YAPAXI@Z		; operator new
  00067	83 c4 04	 add	 esp, 4
  0006a	89 44 24 08	 mov	 DWORD PTR $T213059[esp+24], eax
  0006e	85 c0		 test	 eax, eax
  00070	c7 44 24 14 01
	00 00 00	 mov	 DWORD PTR __$EHRec$[esp+32], 1
  00078	74 09		 je	 SHORT $L213060
  0007a	8b c8		 mov	 ecx, eax
  0007c	e8 00 00 00 00	 call	 ??0CCoupleMgr@@QAE@XZ	; CCoupleMgr::CCoupleMgr
  00081	eb 02		 jmp	 SHORT $L213061
$L213060:
  00083	33 c0		 xor	 eax, eax
$L213061:
  00085	89 74 24 14	 mov	 DWORD PTR __$EHRec$[esp+32], esi
  00089	89 47 04	 mov	 DWORD PTR [edi+4], eax

; 158  : 	if( CCoupleProperty::Instance()->Initialize() )

  0008c	e8 00 00 00 00	 call	 ?Instance@CCoupleProperty@@SAPAV1@XZ ; CCoupleProperty::Instance
  00091	8b c8		 mov	 ecx, eax
  00093	e8 00 00 00 00	 call	 ?Initialize@CCoupleProperty@@QAEHXZ ; CCoupleProperty::Initialize
  00098	85 c0		 test	 eax, eax
  0009a	74 19		 je	 SHORT $L205853

; 159  : 		return m_pController->Restore();

  0009c	8b 4f 08	 mov	 ecx, DWORD PTR [edi+8]
  0009f	e8 00 00 00 00	 call	 ?Restore@CCoupleController@@QAEHXZ ; CCoupleController::Restore
  000a4	5f		 pop	 edi
  000a5	5e		 pop	 esi

; 160  : 	return FALSE;
; 161  : }

  000a6	8b 4c 24 04	 mov	 ecx, DWORD PTR __$EHRec$[esp+16]
  000aa	64 89 0d 00 00
	00 00		 mov	 DWORD PTR fs:__except_list, ecx
  000b1	83 c4 10	 add	 esp, 16			; 00000010H
  000b4	c3		 ret	 0
$L205853:
  000b5	8b 4c 24 0c	 mov	 ecx, DWORD PTR __$EHRec$[esp+24]
  000b9	5f		 pop	 edi
  000ba	33 c0		 xor	 eax, eax
  000bc	5e		 pop	 esi
  000bd	64 89 0d 00 00
	00 00		 mov	 DWORD PTR fs:__except_list, ecx
  000c4	83 c4 10	 add	 esp, 16			; 00000010H
  000c7	c3		 ret	 0
_TEXT	ENDS
;	COMDAT text$x
text$x	SEGMENT
$L213062:
  00000	8b 45 f0	 mov	 eax, DWORD PTR $T213055[ebp]
  00003	50		 push	 eax
  00004	e8 00 00 00 00	 call	 ??3@YAXPAX@Z		; operator delete
  00009	59		 pop	 ecx
  0000a	c3		 ret	 0
$L213063:
  0000b	8b 45 f0	 mov	 eax, DWORD PTR $T213059[ebp]
  0000e	50		 push	 eax
  0000f	e8 00 00 00 00	 call	 ??3@YAXPAX@Z		; operator delete
  00014	59		 pop	 ecx
  00015	c3		 ret	 0
__ehhandler$?Initialize@CCoupleHelper@@QAEHXZ:
  00016	b8 00 00 00 00	 mov	 eax, OFFSET FLAT:$T213069
  0001b	e9 00 00 00 00	 jmp	 ___CxxFrameHandler
text$x	ENDS
?Initialize@CCoupleHelper@@QAEHXZ ENDP			; CCoupleHelper::Initialize
PUBLIC	?SetPropose@CCoupleHelper@@QAEHKJ@Z		; CCoupleHelper::SetPropose
; Function compile flags: /Ogty
;	COMDAT ?SetPropose@CCoupleHelper@@QAEHKJ@Z
_TEXT	SEGMENT
$T213095 = -16						; size = 8
$T213096 = -8						; size = 8
_idPlayer$ = 8						; size = 4
_t$ = 12						; size = 4
?SetPropose@CCoupleHelper@@QAEHKJ@Z PROC NEAR		; CCoupleHelper::SetPropose, COMDAT
; _this$ = ecx

; 354  : {

  00000	83 ec 10	 sub	 esp, 16			; 00000010H
  00003	53		 push	 ebx

; 355  : 	if( !m_pController->Propose( idPlayer, t ) )

  00004	8b 5c 24 18	 mov	 ebx, DWORD PTR _idPlayer$[esp+16]
  00008	56		 push	 esi
  00009	57		 push	 edi
  0000a	8b 7c 24 24	 mov	 edi, DWORD PTR _t$[esp+24]
  0000e	57		 push	 edi
  0000f	8b f1		 mov	 esi, ecx
  00011	8b 0d 00 00 00
	00		 mov	 ecx, DWORD PTR ?g_appInfo@@3UAppInfo@@A
  00017	8b 46 08	 mov	 eax, DWORD PTR [esi+8]
  0001a	8b 40 0c	 mov	 eax, DWORD PTR [eax+12]
  0001d	53		 push	 ebx
  0001e	51		 push	 ecx
  0001f	68 00 00 00 00	 push	 OFFSET FLAT:??_C@_0BJ@HLENHNMF@uspAddPropose?5?$CFd?0?5?$CFd?0?5?$CFd?$AA@
  00024	50		 push	 eax
  00025	e8 00 00 00 00	 call	 ?Execute@CQuery@@QAAHPBDZZ ; CQuery::Execute
  0002a	83 c4 14	 add	 esp, 20			; 00000014H
  0002d	85 c0		 test	 eax, eax
  0002f	75 18		 jne	 SHORT $L206256
  00031	68 00 00 00 00	 push	 OFFSET FLAT:??_C@_0BP@OOKEDFAC@couldn?8t?5execute?5uspAddPropose?$AA@
  00036	e8 00 00 00 00	 call	 ?Error@@YAPBDPBDZZ	; Error
  0003b	83 c4 04	 add	 esp, 4
  0003e	5f		 pop	 edi
  0003f	5e		 pop	 esi

; 356  : 		return FALSE;

  00040	33 c0		 xor	 eax, eax
  00042	5b		 pop	 ebx

; 359  : }

  00043	83 c4 10	 add	 esp, 16			; 00000010H
  00046	c2 08 00	 ret	 8
$L206256:

; 357  : 	AddPropose( idPlayer, t );

  00049	8d 54 24 0c	 lea	 edx, DWORD PTR $T213095[esp+28]
  0004d	52		 push	 edx
  0004e	8d 44 24 18	 lea	 eax, DWORD PTR $T213096[esp+32]
  00052	50		 push	 eax
  00053	8d 4e 0c	 lea	 ecx, DWORD PTR [esi+12]
  00056	89 5c 24 14	 mov	 DWORD PTR $T213095[esp+36], ebx
  0005a	89 7c 24 18	 mov	 DWORD PTR $T213095[esp+40], edi
  0005e	e8 00 00 00 00	 call	 ?insert@?$_Tree@V?$_Tmap_traits@KJU?$less@K@std@@V?$allocator@U?$pair@$$CBKJ@std@@@2@$0A@@std@@@std@@QAE?AU?$pair@Viterator@?$_Tree@V?$_Tmap_traits@KJU?$less@K@std@@V?$allocator@U?$pair@$$CBKJ@std@@@2@$0A@@std@@@std@@_N@2@ABU?$pair@$$CBKJ@2@@Z ; std::_Tree<std::_Tmap_traits<unsigned long,long,std::less<unsigned long>,std::allocator<std::pair<unsigned long const ,long> >,0> >::insert
  00063	5f		 pop	 edi
  00064	5e		 pop	 esi

; 358  : 	return TRUE;

  00065	b8 01 00 00 00	 mov	 eax, 1
  0006a	5b		 pop	 ebx

; 359  : }

  0006b	83 c4 10	 add	 esp, 16			; 00000010H
  0006e	c2 08 00	 ret	 8
?SetPropose@CCoupleHelper@@QAEHKJ@Z ENDP		; CCoupleHelper::SetPropose
_TEXT	ENDS
PUBLIC	??1?$_Tree@V?$_Tmap_traits@KJU?$less@K@std@@V?$allocator@U?$pair@$$CBKJ@std@@@2@$0A@@std@@@std@@QAE@XZ ; std::_Tree<std::_Tmap_traits<unsigned long,long,std::less<unsigned long>,std::allocator<std::pair<unsigned long const ,long> >,0> >::~_Tree<std::_Tmap_traits<unsigned long,long,std::less<unsigned long>,std::allocator<std::pair<unsigned long const ,long> >,0> >
; Function compile flags: /Ogty
; File c:\program files\microsoft visual studio .net 2003\vc7\include\xtree
;	COMDAT ??1?$_Tree@V?$_Tmap_traits@KJU?$less@K@std@@V?$allocator@U?$pair@$$CBKJ@std@@@2@$0A@@std@@@std@@QAE@XZ
_TEXT	SEGMENT
$T213171 = -4						; size = 4
??1?$_Tree@V?$_Tmap_traits@KJU?$less@K@std@@V?$allocator@U?$pair@$$CBKJ@std@@@2@$0A@@std@@@std@@QAE@XZ PROC NEAR ; std::_Tree<std::_Tmap_traits<unsigned long,long,std::less<unsigned long>,std::allocator<std::pair<unsigned long const ,long> >,0> >::~_Tree<std::_Tmap_traits<unsigned long,long,std::less<unsigned long>,std::allocator<std::pair<unsigned long const ,long> >,0> >, COMDAT
; _this$ = ecx

; 391  : 		{	// destroy tree

  00000	51		 push	 ecx
  00001	56		 push	 esi
  00002	8b f1		 mov	 esi, ecx

; 392  : 		_Tidy();

  00004	8b 46 04	 mov	 eax, DWORD PTR [esi+4]
  00007	8b 08		 mov	 ecx, DWORD PTR [eax]
  00009	50		 push	 eax
  0000a	51		 push	 ecx
  0000b	8d 44 24 0c	 lea	 eax, DWORD PTR $T213171[esp+16]
  0000f	50		 push	 eax
  00010	8b ce		 mov	 ecx, esi
  00012	e8 00 00 00 00	 call	 ?erase@?$_Tree@V?$_Tmap_traits@KJU?$less@K@std@@V?$allocator@U?$pair@$$CBKJ@std@@@2@$0A@@std@@@std@@QAE?AViterator@12@V312@0@Z ; std::_Tree<std::_Tmap_traits<unsigned long,long,std::less<unsigned long>,std::allocator<std::pair<unsigned long const ,long> >,0> >::erase
  00017	8b 4e 04	 mov	 ecx, DWORD PTR [esi+4]
  0001a	51		 push	 ecx
  0001b	e8 00 00 00 00	 call	 ??3@YAXPAX@Z		; operator delete
  00020	83 c4 04	 add	 esp, 4
  00023	33 c0		 xor	 eax, eax
  00025	89 46 04	 mov	 DWORD PTR [esi+4], eax
  00028	89 46 08	 mov	 DWORD PTR [esi+8], eax
  0002b	5e		 pop	 esi

; 393  : 		}

  0002c	59		 pop	 ecx
  0002d	c3		 ret	 0
??1?$_Tree@V?$_Tmap_traits@KJU?$less@K@std@@V?$allocator@U?$pair@$$CBKJ@std@@@2@$0A@@std@@@std@@QAE@XZ ENDP ; std::_Tree<std::_Tmap_traits<unsigned long,long,std::less<unsigned long>,std::allocator<std::pair<unsigned long const ,long> >,0> >::~_Tree<std::_Tmap_traits<unsigned long,long,std::less<unsigned long>,std::allocator<std::pair<unsigned long const ,long> >,0> >
_TEXT	ENDS
PUBLIC	??1?$map@KJU?$less@K@std@@V?$allocator@U?$pair@$$CBKJ@std@@@2@@std@@QAE@XZ ; std::map<unsigned long,long,std::less<unsigned long>,std::allocator<std::pair<unsigned long const ,long> > >::~map<unsigned long,long,std::less<unsigned long>,std::allocator<std::pair<unsigned long const ,long> > >
; Function compile flags: /Ogty
;	COMDAT ??1?$map@KJU?$less@K@std@@V?$allocator@U?$pair@$$CBKJ@std@@@2@@std@@QAE@XZ
_TEXT	SEGMENT
$T213297 = -4						; size = 4
??1?$map@KJU?$less@K@std@@V?$allocator@U?$pair@$$CBKJ@std@@@2@@std@@QAE@XZ PROC NEAR ; std::map<unsigned long,long,std::less<unsigned long>,std::allocator<std::pair<unsigned long const ,long> > >::~map<unsigned long,long,std::less<unsigned long>,std::allocator<std::pair<unsigned long const ,long> > >, COMDAT
; _this$ = ecx
  00000	51		 push	 ecx
  00001	56		 push	 esi
  00002	8b f1		 mov	 esi, ecx
  00004	8b 46 04	 mov	 eax, DWORD PTR [esi+4]
  00007	8b 08		 mov	 ecx, DWORD PTR [eax]
  00009	50		 push	 eax
  0000a	51		 push	 ecx
  0000b	8d 44 24 0c	 lea	 eax, DWORD PTR $T213297[esp+16]
  0000f	50		 push	 eax
  00010	8b ce		 mov	 ecx, esi
  00012	e8 00 00 00 00	 call	 ?erase@?$_Tree@V?$_Tmap_traits@KJU?$less@K@std@@V?$allocator@U?$pair@$$CBKJ@std@@@2@$0A@@std@@@std@@QAE?AViterator@12@V312@0@Z ; std::_Tree<std::_Tmap_traits<unsigned long,long,std::less<unsigned long>,std::allocator<std::pair<unsigned long const ,long> >,0> >::erase
  00017	8b 4e 04	 mov	 ecx, DWORD PTR [esi+4]
  0001a	51		 push	 ecx
  0001b	e8 00 00 00 00	 call	 ??3@YAXPAX@Z		; operator delete
  00020	83 c4 04	 add	 esp, 4
  00023	33 c0		 xor	 eax, eax
  00025	89 46 04	 mov	 DWORD PTR [esi+4], eax
  00028	89 46 08	 mov	 DWORD PTR [esi+8], eax
  0002b	5e		 pop	 esi
  0002c	59		 pop	 ecx
  0002d	c3		 ret	 0
??1?$map@KJU?$less@K@std@@V?$allocator@U?$pair@$$CBKJ@std@@@2@@std@@QAE@XZ ENDP ; std::map<unsigned long,long,std::less<unsigned long>,std::allocator<std::pair<unsigned long const ,long> > >::~map<unsigned long,long,std::less<unsigned long>,std::allocator<std::pair<unsigned long const ,long> > >
_TEXT	ENDS
PUBLIC	??_7CCoupleHelper@@6B@				; CCoupleHelper::`vftable'
PUBLIC	??_GCCoupleHelper@@UAEPAXI@Z			; CCoupleHelper::`scalar deleting destructor'
PUBLIC	??1CCoupleHelper@@UAE@XZ			; CCoupleHelper::~CCoupleHelper
EXTRN	??_ECCoupleHelper@@UAEPAXI@Z:NEAR		; CCoupleHelper::`vector deleting destructor'
;	COMDAT xdata$x
; File c:\program files\microsoft visual studio .net 2003\vc7\include\xmemory
xdata$x	SEGMENT
$T213512 DD	0ffffffffH
	DD	FLAT:$L213326
$T213510 DD	019930520H
	DD	01H
	DD	FLAT:$T213512
	DD	2 DUP(00H)
	DD	2 DUP(00H)
xdata$x	ENDS
;	COMDAT ??_7CCoupleHelper@@6B@
CONST	SEGMENT
??_7CCoupleHelper@@6B@ DD FLAT:??_ECCoupleHelper@@UAEPAXI@Z ; CCoupleHelper::`vftable'
; Function compile flags: /Ogty
; File c:\documents and settings\test\mes documents\source\virtuos_v17\build\program\databaseserver\couplehelper.cpp
CONST	ENDS
;	COMDAT ??1CCoupleHelper@@UAE@XZ
_TEXT	SEGMENT
$T213480 = -16						; size = 4
_this$ = -16						; size = 4
__$EHRec$ = -12						; size = 12
??1CCoupleHelper@@UAE@XZ PROC NEAR			; CCoupleHelper::~CCoupleHelper, COMDAT
; _this$ = ecx

; 129  : {

  00000	6a ff		 push	 -1
  00002	68 00 00 00 00	 push	 __ehhandler$??1CCoupleHelper@@UAE@XZ
  00007	64 a1 00 00 00
	00		 mov	 eax, DWORD PTR fs:__except_list
  0000d	50		 push	 eax
  0000e	64 89 25 00 00
	00 00		 mov	 DWORD PTR fs:__except_list, esp
  00015	51		 push	 ecx
  00016	56		 push	 esi
  00017	8b f1		 mov	 esi, ecx
  00019	57		 push	 edi
  0001a	89 74 24 08	 mov	 DWORD PTR _this$[esp+24], esi
  0001e	c7 06 00 00 00
	00		 mov	 DWORD PTR [esi], OFFSET FLAT:??_7CCoupleHelper@@6B@

; 130  : 	Clear();

  00024	8b 4e 08	 mov	 ecx, DWORD PTR [esi+8]
  00027	33 ff		 xor	 edi, edi
  00029	3b cf		 cmp	 ecx, edi
  0002b	89 7c 24 14	 mov	 DWORD PTR __$EHRec$[esp+32], edi
  0002f	74 05		 je	 SHORT $L213337
  00031	e8 00 00 00 00	 call	 ?CloseDbHandler@CDbController@@QAEXXZ ; CDbController::CloseDbHandler
$L213337:
  00036	8b 4e 08	 mov	 ecx, DWORD PTR [esi+8]
  00039	3b cf		 cmp	 ecx, edi
  0003b	74 09		 je	 SHORT $L213338
  0003d	8b 01		 mov	 eax, DWORD PTR [ecx]
  0003f	6a 01		 push	 1
  00041	ff 10		 call	 DWORD PTR [eax]
  00043	89 7e 08	 mov	 DWORD PTR [esi+8], edi
$L213338:
  00046	8b 4e 04	 mov	 ecx, DWORD PTR [esi+4]
  00049	3b cf		 cmp	 ecx, edi
  0004b	74 09		 je	 SHORT $L213339
  0004d	8b 11		 mov	 edx, DWORD PTR [ecx]
  0004f	6a 01		 push	 1
  00051	ff 12		 call	 DWORD PTR [edx]
  00053	89 7e 04	 mov	 DWORD PTR [esi+4], edi
$L213339:

; 131  : }

  00056	8b 46 10	 mov	 eax, DWORD PTR [esi+16]
  00059	8b 08		 mov	 ecx, DWORD PTR [eax]
  0005b	83 c6 0c	 add	 esi, 12			; 0000000cH
  0005e	50		 push	 eax
  0005f	51		 push	 ecx
  00060	8d 44 24 10	 lea	 eax, DWORD PTR $T213480[esp+32]
  00064	50		 push	 eax
  00065	8b ce		 mov	 ecx, esi
  00067	c7 44 24 20 ff
	ff ff ff	 mov	 DWORD PTR __$EHRec$[esp+44], -1
  0006f	e8 00 00 00 00	 call	 ?erase@?$_Tree@V?$_Tmap_traits@KJU?$less@K@std@@V?$allocator@U?$pair@$$CBKJ@std@@@2@$0A@@std@@@std@@QAE?AViterator@12@V312@0@Z ; std::_Tree<std::_Tmap_traits<unsigned long,long,std::less<unsigned long>,std::allocator<std::pair<unsigned long const ,long> >,0> >::erase
  00074	8b 4e 04	 mov	 ecx, DWORD PTR [esi+4]
  00077	51		 push	 ecx
  00078	e8 00 00 00 00	 call	 ??3@YAXPAX@Z		; operator delete
  0007d	8b 4c 24 10	 mov	 ecx, DWORD PTR __$EHRec$[esp+28]
  00081	83 c4 04	 add	 esp, 4
  00084	89 7e 04	 mov	 DWORD PTR [esi+4], edi
  00087	89 7e 08	 mov	 DWORD PTR [esi+8], edi
  0008a	5f		 pop	 edi
  0008b	5e		 pop	 esi
  0008c	64 89 0d 00 00
	00 00		 mov	 DWORD PTR fs:__except_list, ecx
  00093	83 c4 10	 add	 esp, 16			; 00000010H
  00096	c3		 ret	 0
_TEXT	ENDS
;	COMDAT text$x
text$x	SEGMENT
$L213326:
  00000	8b 4d f0	 mov	 ecx, DWORD PTR _this$[ebp]
  00003	83 c1 0c	 add	 ecx, 12			; 0000000cH
  00006	e9 00 00 00 00	 jmp	 ??1?$map@KJU?$less@K@std@@V?$allocator@U?$pair@$$CBKJ@std@@@2@@std@@QAE@XZ
__ehhandler$??1CCoupleHelper@@UAE@XZ:
  0000b	b8 00 00 00 00	 mov	 eax, OFFSET FLAT:$T213510
  00010	e9 00 00 00 00	 jmp	 ___CxxFrameHandler
text$x	ENDS
??1CCoupleHelper@@UAE@XZ ENDP				; CCoupleHelper::~CCoupleHelper
PUBLIC	??_C@_0CF@OCNFFHFP@?6T?3?5CCoupleHelper?4OnPropose?3?5?$CFd?0@ ; `string'
PUBLIC	?OnPropose@CCoupleHelper@@QAEXAAVCAr@@K@Z	; CCoupleHelper::OnPropose
EXTRN	?SendProposeResult@CDPTrans@@QAEXKKHJK@Z:NEAR	; CDPTrans::SendProposeResult
;	COMDAT ??_C@_0CF@OCNFFHFP@?6T?3?5CCoupleHelper?4OnPropose?3?5?$CFd?0@
; File c:\program files\microsoft visual studio .net 2003\vc7\include\xtree
CONST	SEGMENT
??_C@_0CF@OCNFFHFP@?6T?3?5CCoupleHelper?4OnPropose?3?5?$CFd?0@ DB 0aH, 'T'
	DB	': CCoupleHelper.OnPropose: %d, %d', 0aH, 00H ; `string'
; Function compile flags: /Ogty
; File c:\documents and settings\test\mes documents\source\virtuos_v17\build\program\databaseserver\couplehelper.cpp
CONST	ENDS
;	COMDAT ?OnPropose@CCoupleHelper@@QAEXAAVCAr@@K@Z
_TEXT	SEGMENT
_nResult$ = -8						; size = 4
_i$213578 = -4						; size = 4
$T213600 = 8						; size = 4
_ar$ = 8						; size = 4
_dpid$ = 12						; size = 4
?OnPropose@CCoupleHelper@@QAEXAAVCAr@@K@Z PROC NEAR	; CCoupleHelper::OnPropose, COMDAT
; _this$ = ecx

; 288  : {

  00000	83 ec 08	 sub	 esp, 8

; 289  : 	int nResult		= 0;
; 290  : 	u_long idProposer, idTarget;
; 291  : 	ar >> idProposer >> idTarget;

  00003	8b 44 24 0c	 mov	 eax, DWORD PTR _ar$[esp+4]
  00007	8b 50 08	 mov	 edx, DWORD PTR [eax+8]
  0000a	53		 push	 ebx
  0000b	55		 push	 ebp
  0000c	56		 push	 esi
  0000d	8b e9		 mov	 ebp, ecx
  0000f	8b 48 0c	 mov	 ecx, DWORD PTR [eax+12]
  00012	33 db		 xor	 ebx, ebx
  00014	8d 72 04	 lea	 esi, DWORD PTR [edx+4]
  00017	3b f1		 cmp	 esi, ecx
  00019	57		 push	 edi
  0001a	89 5c 24 10	 mov	 DWORD PTR _nResult$[esp+24], ebx
  0001e	77 07		 ja	 SHORT $L213519
  00020	8b 3a		 mov	 edi, DWORD PTR [edx]
  00022	89 70 08	 mov	 DWORD PTR [eax+8], esi
  00025	eb 05		 jmp	 SHORT $L213520
$L213519:
  00027	33 ff		 xor	 edi, edi
  00029	89 48 08	 mov	 DWORD PTR [eax+8], ecx
$L213520:
  0002c	8b 50 08	 mov	 edx, DWORD PTR [eax+8]
  0002f	8d 72 04	 lea	 esi, DWORD PTR [edx+4]
  00032	3b f1		 cmp	 esi, ecx
  00034	77 07		 ja	 SHORT $L213524
  00036	8b 1a		 mov	 ebx, DWORD PTR [edx]
  00038	89 70 08	 mov	 DWORD PTR [eax+8], esi
  0003b	eb 03		 jmp	 SHORT $L213525
$L213524:
  0003d	89 48 08	 mov	 DWORD PTR [eax+8], ecx
$L213525:

; 292  : 	election::OutputDebugString( "\nT: CCoupleHelper.OnPropose: %d, %d\n", idProposer, idTarget );

  00040	53		 push	 ebx
  00041	57		 push	 edi
  00042	68 00 00 00 00	 push	 OFFSET FLAT:??_C@_0CF@OCNFFHFP@?6T?3?5CCoupleHelper?4OnPropose?3?5?$CFd?0@
  00047	e8 00 00 00 00	 call	 ?OutputDebugStringA@election@@YAXPBDZZ ; election::OutputDebugStringA
  0004c	83 c4 0c	 add	 esp, 12			; 0000000cH

; 293  : 	time_t t	= GetPropose( idProposer );

  0004f	8d 44 24 1c	 lea	 eax, DWORD PTR $T213600[esp+20]
  00053	50		 push	 eax
  00054	8d 4c 24 18	 lea	 ecx, DWORD PTR _i$213578[esp+28]
  00058	51		 push	 ecx
  00059	8d 4d 0c	 lea	 ecx, DWORD PTR [ebp+12]
  0005c	89 7c 24 24	 mov	 DWORD PTR $T213600[esp+28], edi
  00060	e8 00 00 00 00	 call	 ?find@?$_Tree@V?$_Tmap_traits@KJU?$less@K@std@@V?$allocator@U?$pair@$$CBKJ@std@@@2@$0A@@std@@@std@@QAE?AViterator@12@ABK@Z ; std::_Tree<std::_Tmap_traits<unsigned long,long,std::less<unsigned long>,std::allocator<std::pair<unsigned long const ,long> >,0> >::find
  00065	8b 44 24 14	 mov	 eax, DWORD PTR _i$213578[esp+24]
  00069	3b 45 10	 cmp	 eax, DWORD PTR [ebp+16]
  0006c	74 26		 je	 SHORT $L213579
  0006e	8b 70 10	 mov	 esi, DWORD PTR [eax+16]

; 294  : 	if( t > 0 )

  00071	85 f6		 test	 esi, esi
  00073	7e 21		 jle	 SHORT $L213601

; 295  : 	{
; 296  : 		nResult		= -1;
; 297  : 		t	-= time( NULL );

  00075	6a 00		 push	 0
  00077	c7 44 24 14 ff
	ff ff ff	 mov	 DWORD PTR _nResult$[esp+28], -1
  0007f	e8 00 00 00 00	 call	 _time
  00084	2b f0		 sub	 esi, eax
  00086	83 c4 04	 add	 esp, 4

; 298  : 		if( t <= 0 )

  00089	85 f6		 test	 esi, esi
  0008b	7f 5b		 jg	 SHORT $L213604

; 299  : 			t	= 1;

  0008d	be 01 00 00 00	 mov	 esi, 1

; 300  : 	}
; 301  : 	if( nResult == 0 && m_pMgr->GetCouple( idProposer ) )

  00092	eb 54		 jmp	 SHORT $L213604

; 293  : 	time_t t	= GetPropose( idProposer );

$L213579:
  00094	33 f6		 xor	 esi, esi
$L213601:

; 300  : 	}
; 301  : 	if( nResult == 0 && m_pMgr->GetCouple( idProposer ) )

  00096	8b 4d 04	 mov	 ecx, DWORD PTR [ebp+4]
  00099	57		 push	 edi
  0009a	e8 00 00 00 00	 call	 ?GetCouple@CCoupleMgr@@QAEPAVCCouple@@K@Z ; CCoupleMgr::GetCouple
  0009f	85 c0		 test	 eax, eax
  000a1	74 0a		 je	 SHORT $L213602

; 302  : 		nResult		= TID_GAME_COUPLE_E06;	//    .

  000a3	c7 44 24 10 d4
	0f 00 00	 mov	 DWORD PTR _nResult$[esp+24], 4052 ; 00000fd4H

; 303  : 	if( nResult == 0 && m_pMgr->GetCouple( idTarget ) )

  000ab	eb 3b		 jmp	 SHORT $L213604
$L213602:
  000ad	8b 4d 04	 mov	 ecx, DWORD PTR [ebp+4]
  000b0	53		 push	 ebx
  000b1	e8 00 00 00 00	 call	 ?GetCouple@CCoupleMgr@@QAEPAVCCouple@@K@Z ; CCoupleMgr::GetCouple
  000b6	85 c0		 test	 eax, eax
  000b8	74 0a		 je	 SHORT $L213603

; 304  : 		nResult		= TID_GAME_COUPLE_E01;	//   .     .

  000ba	c7 44 24 10 ca
	0f 00 00	 mov	 DWORD PTR _nResult$[esp+24], 4042 ; 00000fcaH

; 305  : 	if( nResult == 0 && !SetPropose( idProposer, time( NULL ) + 86400 ) )

  000c2	eb 24		 jmp	 SHORT $L213604
$L213603:
  000c4	6a 00		 push	 0
  000c6	e8 00 00 00 00	 call	 _time
  000cb	83 c4 04	 add	 esp, 4
  000ce	05 80 51 01 00	 add	 eax, 86400		; 00015180H
  000d3	50		 push	 eax
  000d4	57		 push	 edi
  000d5	8b cd		 mov	 ecx, ebp
  000d7	e8 00 00 00 00	 call	 ?SetPropose@CCoupleHelper@@QAEHKJ@Z ; CCoupleHelper::SetPropose
  000dc	85 c0		 test	 eax, eax
  000de	75 08		 jne	 SHORT $L213604

; 306  : 		nResult		= TID_GAME_COUPLE_E10;	//  .

  000e0	c7 44 24 10 d5
	0f 00 00	 mov	 DWORD PTR _nResult$[esp+24], 4053 ; 00000fd5H
$L213604:

; 307  : 	CDPTrans::GetInstance()->SendProposeResult( idProposer, idTarget, nResult, t, dpid );

  000e8	8b 54 24 20	 mov	 edx, DWORD PTR _dpid$[esp+20]
  000ec	8b 44 24 10	 mov	 eax, DWORD PTR _nResult$[esp+24]
  000f0	52		 push	 edx
  000f1	56		 push	 esi
  000f2	50		 push	 eax
  000f3	53		 push	 ebx
  000f4	57		 push	 edi
  000f5	e8 00 00 00 00	 call	 ?GetInstance@CDPTrans@@SAPAV1@XZ ; CDPTrans::GetInstance
  000fa	8b c8		 mov	 ecx, eax
  000fc	e8 00 00 00 00	 call	 ?SendProposeResult@CDPTrans@@QAEXKKHJK@Z ; CDPTrans::SendProposeResult
  00101	5f		 pop	 edi
  00102	5e		 pop	 esi
  00103	5d		 pop	 ebp
  00104	5b		 pop	 ebx

; 308  : }

  00105	83 c4 08	 add	 esp, 8
  00108	c2 08 00	 ret	 8
?OnPropose@CCoupleHelper@@QAEXAAVCAr@@K@Z ENDP		; CCoupleHelper::OnPropose
_TEXT	ENDS
PUBLIC	??0?$map@KJU?$less@K@std@@V?$allocator@U?$pair@$$CBKJ@std@@@2@@std@@QAE@XZ ; std::map<unsigned long,long,std::less<unsigned long>,std::allocator<std::pair<unsigned long const ,long> > >::map<unsigned long,long,std::less<unsigned long>,std::allocator<std::pair<unsigned long const ,long> > >
; Function compile flags: /Ogty
; File c:\program files\microsoft visual studio .net 2003\vc7\include\map
;	COMDAT ??0?$map@KJU?$less@K@std@@V?$allocator@U?$pair@$$CBKJ@std@@@2@@std@@QAE@XZ
_TEXT	SEGMENT
??0?$map@KJU?$less@K@std@@V?$allocator@U?$pair@$$CBKJ@std@@@2@@std@@QAE@XZ PROC NEAR ; std::map<unsigned long,long,std::less<unsigned long>,std::allocator<std::pair<unsigned long const ,long> > >::map<unsigned long,long,std::less<unsigned long>,std::allocator<std::pair<unsigned long const ,long> > >, COMDAT
; _this$ = ecx

; 102  : 		{	// construct empty map from defaults

  00000	56		 push	 esi
  00001	8b f1		 mov	 esi, ecx
  00003	e8 00 00 00 00	 call	 ?_Buynode@?$_Tree@V?$_Tmap_traits@KJU?$less@K@std@@V?$allocator@U?$pair@$$CBKJ@std@@@2@$0A@@std@@@std@@IAEPAU_Node@?$_Tree_nod@V?$_Tmap_traits@KJU?$less@K@std@@V?$allocator@U?$pair@$$CBKJ@std@@@2@$0A@@std@@@2@XZ ; std::_Tree<std::_Tmap_traits<unsigned long,long,std::less<unsigned long>,std::allocator<std::pair<unsigned long const ,long> >,0> >::_Buynode
  00008	89 46 04	 mov	 DWORD PTR [esi+4], eax
  0000b	c6 40 15 01	 mov	 BYTE PTR [eax+21], 1
  0000f	8b 46 04	 mov	 eax, DWORD PTR [esi+4]
  00012	89 40 04	 mov	 DWORD PTR [eax+4], eax
  00015	8b 46 04	 mov	 eax, DWORD PTR [esi+4]
  00018	89 00		 mov	 DWORD PTR [eax], eax
  0001a	8b 46 04	 mov	 eax, DWORD PTR [esi+4]
  0001d	89 40 08	 mov	 DWORD PTR [eax+8], eax
  00020	c7 46 08 00 00
	00 00		 mov	 DWORD PTR [esi+8], 0

; 103  : 		}

  00027	8b c6		 mov	 eax, esi
  00029	5e		 pop	 esi
  0002a	c3		 ret	 0
??0?$map@KJU?$less@K@std@@V?$allocator@U?$pair@$$CBKJ@std@@@2@@std@@QAE@XZ ENDP ; std::map<unsigned long,long,std::less<unsigned long>,std::allocator<std::pair<unsigned long const ,long> > >::map<unsigned long,long,std::less<unsigned long>,std::allocator<std::pair<unsigned long const ,long> > >
_TEXT	ENDS
PUBLIC	??0CCoupleHelper@@AAE@XZ			; CCoupleHelper::CCoupleHelper
; Function compile flags: /Ogty
; File c:\documents and settings\test\mes documents\source\virtuos_v17\build\program\databaseserver\couplehelper.cpp
;	COMDAT ??0CCoupleHelper@@AAE@XZ
_TEXT	SEGMENT
??0CCoupleHelper@@AAE@XZ PROC NEAR			; CCoupleHelper::CCoupleHelper, COMDAT
; _this$ = ecx

; 125  : {

  00000	56		 push	 esi
  00001	57		 push	 edi
  00002	8b f9		 mov	 edi, ecx
  00004	8d 77 0c	 lea	 esi, DWORD PTR [edi+12]
  00007	8b ce		 mov	 ecx, esi
  00009	c7 07 00 00 00
	00		 mov	 DWORD PTR [edi], OFFSET FLAT:??_7CCoupleHelper@@6B@
  0000f	e8 00 00 00 00	 call	 ?_Buynode@?$_Tree@V?$_Tmap_traits@KJU?$less@K@std@@V?$allocator@U?$pair@$$CBKJ@std@@@2@$0A@@std@@@std@@IAEPAU_Node@?$_Tree_nod@V?$_Tmap_traits@KJU?$less@K@std@@V?$allocator@U?$pair@$$CBKJ@std@@@2@$0A@@std@@@2@XZ ; std::_Tree<std::_Tmap_traits<unsigned long,long,std::less<unsigned long>,std::allocator<std::pair<unsigned long const ,long> >,0> >::_Buynode
  00014	89 46 04	 mov	 DWORD PTR [esi+4], eax
  00017	c6 40 15 01	 mov	 BYTE PTR [eax+21], 1
  0001b	8b 46 04	 mov	 eax, DWORD PTR [esi+4]
  0001e	89 40 04	 mov	 DWORD PTR [eax+4], eax
  00021	8b 46 04	 mov	 eax, DWORD PTR [esi+4]
  00024	89 00		 mov	 DWORD PTR [eax], eax
  00026	8b 46 04	 mov	 eax, DWORD PTR [esi+4]
  00029	89 40 08	 mov	 DWORD PTR [eax+8], eax

; 126  : }

  0002c	8b c7		 mov	 eax, edi
  0002e	5f		 pop	 edi
  0002f	c7 46 08 00 00
	00 00		 mov	 DWORD PTR [esi+8], 0
  00036	5e		 pop	 esi
  00037	c3		 ret	 0
??0CCoupleHelper@@AAE@XZ ENDP				; CCoupleHelper::CCoupleHelper
; Function compile flags: /Ogty
_TEXT	ENDS
;	COMDAT ??_GCCoupleHelper@@UAEPAXI@Z
_TEXT	SEGMENT
___flags$ = 8						; size = 4
??_GCCoupleHelper@@UAEPAXI@Z PROC NEAR			; CCoupleHelper::`scalar deleting destructor', COMDAT
; _this$ = ecx
  00000	56		 push	 esi
  00001	8b f1		 mov	 esi, ecx
  00003	e8 00 00 00 00	 call	 ??1CCoupleHelper@@UAE@XZ ; CCoupleHelper::~CCoupleHelper
  00008	f6 44 24 08 01	 test	 BYTE PTR ___flags$[esp], 1
  0000d	74 09		 je	 SHORT $L213991
  0000f	56		 push	 esi
  00010	e8 00 00 00 00	 call	 ??3@YAXPAX@Z		; operator delete
  00015	83 c4 04	 add	 esp, 4
$L213991:
  00018	8b c6		 mov	 eax, esi
  0001a	5e		 pop	 esi
  0001b	c2 04 00	 ret	 4
??_GCCoupleHelper@@UAEPAXI@Z ENDP			; CCoupleHelper::`scalar deleting destructor'
_TEXT	ENDS
PUBLIC	?Instance@CCoupleHelper@@SAPAV1@XZ		; CCoupleHelper::Instance
EXTRN	_atexit:NEAR
;	COMDAT ?sCoupleHelper@?1??Instance@CCoupleHelper@@SAPAV2@XZ@4V2@A
; File c:\program files\microsoft visual studio .net 2003\vc7\include\xtree
_BSS	SEGMENT
?sCoupleHelper@?1??Instance@CCoupleHelper@@SAPAV2@XZ@4V2@A DB 018H DUP (?) ; `CCoupleHelper::Instance'::`2'::sCoupleHelper
_BSS	ENDS
;	COMDAT ?$S1@?1??Instance@CCoupleHelper@@SAPAV2@XZ@4IA
_BSS	SEGMENT
?$S1@?1??Instance@CCoupleHelper@@SAPAV2@XZ@4IA DD 01H DUP (?) ; `CCoupleHelper::Instance'::`2'::$S1
_BSS	ENDS
;	COMDAT xdata$x
xdata$x	SEGMENT
$T214264 DD	0ffffffffH
	DD	FLAT:$L213994
$T214261 DD	019930520H
	DD	01H
	DD	FLAT:$T214264
	DD	2 DUP(00H)
	DD	2 DUP(00H)
; Function compile flags: /Ogty
; File c:\documents and settings\test\mes documents\source\virtuos_v17\build\program\databaseserver\couplehelper.cpp
xdata$x	ENDS
;	COMDAT ?Instance@CCoupleHelper@@SAPAV1@XZ
_TEXT	SEGMENT
__$EHRec$ = -12						; size = 12
?Instance@CCoupleHelper@@SAPAV1@XZ PROC NEAR		; CCoupleHelper::Instance, COMDAT

; 134  : {

  00000	64 a1 00 00 00
	00		 mov	 eax, DWORD PTR fs:__except_list
  00006	6a ff		 push	 -1
  00008	68 00 00 00 00	 push	 __ehhandler$?Instance@CCoupleHelper@@SAPAV1@XZ
  0000d	50		 push	 eax

; 135  : 	static CCoupleHelper sCoupleHelper;

  0000e	f6 05 00 00 00
	00 01		 test	 BYTE PTR ?$S1@?1??Instance@CCoupleHelper@@SAPAV2@XZ@4IA, 1
  00015	64 89 25 00 00
	00 00		 mov	 DWORD PTR fs:__except_list, esp
  0001c	75 5a		 jne	 SHORT $L214262
  0001e	83 0d 00 00 00
	00 01		 or	 DWORD PTR ?$S1@?1??Instance@CCoupleHelper@@SAPAV2@XZ@4IA, 1
  00025	b9 0c 00 00 00	 mov	 ecx, OFFSET FLAT:?sCoupleHelper@?1??Instance@CCoupleHelper@@SAPAV2@XZ@4V2@A+12
  0002a	c7 44 24 08 00
	00 00 00	 mov	 DWORD PTR __$EHRec$[esp+20], 0
  00032	c7 05 00 00 00
	00 00 00 00 00	 mov	 DWORD PTR ?sCoupleHelper@?1??Instance@CCoupleHelper@@SAPAV2@XZ@4V2@A, OFFSET FLAT:??_7CCoupleHelper@@6B@
  0003c	e8 00 00 00 00	 call	 ?_Buynode@?$_Tree@V?$_Tmap_traits@KJU?$less@K@std@@V?$allocator@U?$pair@$$CBKJ@std@@@2@$0A@@std@@@std@@IAEPAU_Node@?$_Tree_nod@V?$_Tmap_traits@KJU?$less@K@std@@V?$allocator@U?$pair@$$CBKJ@std@@@2@$0A@@std@@@2@XZ ; std::_Tree<std::_Tmap_traits<unsigned long,long,std::less<unsigned long>,std::allocator<std::pair<unsigned long const ,long> >,0> >::_Buynode
  00041	a3 10 00 00 00	 mov	 DWORD PTR ?sCoupleHelper@?1??Instance@CCoupleHelper@@SAPAV2@XZ@4V2@A+16, eax
  00046	c6 40 15 01	 mov	 BYTE PTR [eax+21], 1
  0004a	a1 10 00 00 00	 mov	 eax, DWORD PTR ?sCoupleHelper@?1??Instance@CCoupleHelper@@SAPAV2@XZ@4V2@A+16
  0004f	89 40 04	 mov	 DWORD PTR [eax+4], eax
  00052	a1 10 00 00 00	 mov	 eax, DWORD PTR ?sCoupleHelper@?1??Instance@CCoupleHelper@@SAPAV2@XZ@4V2@A+16
  00057	89 00		 mov	 DWORD PTR [eax], eax
  00059	a1 10 00 00 00	 mov	 eax, DWORD PTR ?sCoupleHelper@?1??Instance@CCoupleHelper@@SAPAV2@XZ@4V2@A+16
  0005e	89 40 08	 mov	 DWORD PTR [eax+8], eax
  00061	68 00 00 00 00	 push	 OFFSET FLAT:_$E2
  00066	c7 05 14 00 00
	00 00 00 00 00	 mov	 DWORD PTR ?sCoupleHelper@?1??Instance@CCoupleHelper@@SAPAV2@XZ@4V2@A+20, 0
  00070	e8 00 00 00 00	 call	 _atexit
  00075	83 c4 04	 add	 esp, 4
$L214262:

; 136  : 	return &sCoupleHelper;
; 137  : }

  00078	8b 0c 24	 mov	 ecx, DWORD PTR __$EHRec$[esp+12]
  0007b	b8 00 00 00 00	 mov	 eax, OFFSET FLAT:?sCoupleHelper@?1??Instance@CCoupleHelper@@SAPAV2@XZ@4V2@A
  00080	64 89 0d 00 00
	00 00		 mov	 DWORD PTR fs:__except_list, ecx
  00087	83 c4 0c	 add	 esp, 12			; 0000000cH
  0008a	c3		 ret	 0
_TEXT	ENDS
;	COMDAT text$x
text$x	SEGMENT
$L213994:
  00000	a1 00 00 00 00	 mov	 eax, DWORD PTR ?$S1@?1??Instance@CCoupleHelper@@SAPAV2@XZ@4IA
  00005	83 e0 fe	 and	 eax, -2			; fffffffeH
  00008	a3 00 00 00 00	 mov	 DWORD PTR ?$S1@?1??Instance@CCoupleHelper@@SAPAV2@XZ@4IA, eax
  0000d	c3		 ret	 0
__ehhandler$?Instance@CCoupleHelper@@SAPAV1@XZ:
  0000e	b8 00 00 00 00	 mov	 eax, OFFSET FLAT:$T214261
  00013	e9 00 00 00 00	 jmp	 ___CxxFrameHandler
text$x	ENDS
?Instance@CCoupleHelper@@SAPAV1@XZ ENDP			; CCoupleHelper::Instance
PUBLIC	?Handler@CCoupleHelper@@QAEXPAUtagDB_OVERLAPPED_PLUS@@K@Z ; CCoupleHelper::Handler
EXTRN	__chkstk:NEAR
EXTRN	___security_cookie:DWORD
EXTRN	@__security_check_cookie@4:NEAR
EXTRN	??0CAr@@QAE@PAXI@Z:NEAR				; CAr::CAr
EXTRN	??1CAr@@QAE@XZ:NEAR				; CAr::~CAr
;	COMDAT xdata$x
xdata$x	SEGMENT
$T214284 DD	0ffffffffH
	DD	FLAT:$L214270
$T214277 DD	019930520H
	DD	01H
	DD	FLAT:$T214284
	DD	2 DUP(00H)
	DD	2 DUP(00H)
; Function compile flags: /Ogty
xdata$x	ENDS
;	COMDAT ?Handler@CCoupleHelper@@QAEXPAUtagDB_OVERLAPPED_PLUS@@K@Z
_TEXT	SEGMENT
_ar$ = -16420						; size = 16404
__$ArrayPad$ = -16					; size = 4
__$EHRec$ = -12						; size = 12
__$ReturnAddr$ = 4					; size = 4
_pov$ = 8						; size = 4
_dwCompletionKey$ = 12					; size = 4
?Handler@CCoupleHelper@@QAEXPAUtagDB_OVERLAPPED_PLUS@@K@Z PROC NEAR ; CCoupleHelper::Handler, COMDAT
; _this$ = ecx

; 164  : {

  00000	6a ff		 push	 -1
  00002	68 00 00 00 00	 push	 __ehhandler$?Handler@CCoupleHelper@@QAEXPAUtagDB_OVERLAPPED_PLUS@@K@Z
  00007	64 a1 00 00 00
	00		 mov	 eax, DWORD PTR fs:__except_list
  0000d	50		 push	 eax
  0000e	b8 18 40 00 00	 mov	 eax, 16408		; 00004018H
  00013	64 89 25 00 00
	00 00		 mov	 DWORD PTR fs:__except_list, esp
  0001a	e8 00 00 00 00	 call	 __chkstk
  0001f	a1 00 00 00 00	 mov	 eax, DWORD PTR ___security_cookie
  00024	33 c4		 xor	 eax, esp
  00026	56		 push	 esi
  00027	8b b4 24 2c 40
	00 00		 mov	 esi, DWORD PTR _pov$[esp+16420]
  0002e	57		 push	 edi
  0002f	89 84 24 1c 40
	00 00		 mov	 DWORD PTR __$ArrayPad$[esp+16428], eax

; 165  : 	CAr ar( pov->lpBuf, pov->uBufSize );

  00036	8b 46 1c	 mov	 eax, DWORD PTR [esi+28]
  00039	8b f9		 mov	 edi, ecx
  0003b	8b 4e 18	 mov	 ecx, DWORD PTR [esi+24]
  0003e	50		 push	 eax
  0003f	51		 push	 ecx
  00040	8d 4c 24 10	 lea	 ecx, DWORD PTR _ar$[esp+16436]
  00044	e8 00 00 00 00	 call	 ??0CAr@@QAE@PAXI@Z	; CAr::CAr

; 166  : 	switch( pov->nQueryMode )

  00049	8b 76 14	 mov	 esi, DWORD PTR [esi+20]
  0004c	83 fe 05	 cmp	 esi, 5
  0004f	c7 84 24 28 40
	00 00 00 00 00
	00		 mov	 DWORD PTR __$EHRec$[esp+16436], 0
  0005a	77 68		 ja	 SHORT $L205870
  0005c	ff 24 b5 00 00
	00 00		 jmp	 DWORD PTR $L214283[esi*4]
$L205864:

; 167  : 	{
; 168  : 		case eTransfer:
; 169  : 			OnTransfer( dwCompletionKey );

  00063	8b 94 24 34 40
	00 00		 mov	 edx, DWORD PTR _dwCompletionKey$[esp+16424]
  0006a	8b 47 04	 mov	 eax, DWORD PTR [edi+4]
  0006d	52		 push	 edx
  0006e	50		 push	 eax
  0006f	e8 00 00 00 00	 call	 ?GetInstance@CDPTrans@@SAPAV1@XZ ; CDPTrans::GetInstance
  00074	8b c8		 mov	 ecx, eax
  00076	e8 00 00 00 00	 call	 ?SendCouple@CDPTrans@@QAEXPAVCCoupleMgr@@K@Z ; CDPTrans::SendCouple

; 170  : 			break;

  0007b	eb 47		 jmp	 SHORT $L205870
$L205865:

; 171  : 		case ePropose:
; 172  : 			OnPropose( ar, dwCompletionKey );

  0007d	8b 8c 24 34 40
	00 00		 mov	 ecx, DWORD PTR _dwCompletionKey$[esp+16424]
  00084	51		 push	 ecx
  00085	8d 54 24 0c	 lea	 edx, DWORD PTR _ar$[esp+16432]
  00089	52		 push	 edx
  0008a	8b cf		 mov	 ecx, edi
  0008c	e8 00 00 00 00	 call	 ?OnPropose@CCoupleHelper@@QAEXAAVCAr@@K@Z ; CCoupleHelper::OnPropose

; 173  : 			break;

  00091	eb 31		 jmp	 SHORT $L205870
$L205866:

; 174  : 		case eCouple:
; 175  : 			OnCouple( ar );

  00093	8d 44 24 08	 lea	 eax, DWORD PTR _ar$[esp+16428]
  00097	50		 push	 eax
  00098	8b cf		 mov	 ecx, edi
  0009a	e8 00 00 00 00	 call	 ?OnCouple@CCoupleHelper@@QAEXAAVCAr@@@Z ; CCoupleHelper::OnCouple

; 176  : 			break;

  0009f	eb 23		 jmp	 SHORT $L205870
$L205867:

; 177  : 		case eDecouple:
; 178  : 			OnDecouple( ar );

  000a1	8d 4c 24 08	 lea	 ecx, DWORD PTR _ar$[esp+16428]
  000a5	51		 push	 ecx
  000a6	8b cf		 mov	 ecx, edi
  000a8	e8 00 00 00 00	 call	 ?OnDecouple@CCoupleHelper@@QAEXAAVCAr@@@Z ; CCoupleHelper::OnDecouple

; 179  : 			break;

  000ad	eb 15		 jmp	 SHORT $L205870
$L205868:

; 180  : 		case eClearPropose:
; 181  : 			OnClearPropose();

  000af	8b cf		 mov	 ecx, edi
  000b1	e8 00 00 00 00	 call	 ?OnClearPropose@CCoupleHelper@@QAEXXZ ; CCoupleHelper::OnClearPropose

; 182  : 			break;

  000b6	eb 0c		 jmp	 SHORT $L205870
$L205869:

; 183  : #if __VER >= 13 // __COUPLE_1202
; 184  : 		case eAddExperience:
; 185  : 			OnAddExperience( ar );

  000b8	8d 54 24 08	 lea	 edx, DWORD PTR _ar$[esp+16428]
  000bc	52		 push	 edx
  000bd	8b cf		 mov	 ecx, edi
  000bf	e8 00 00 00 00	 call	 ?OnAddExperience@CCoupleHelper@@QAEXAAVCAr@@@Z ; CCoupleHelper::OnAddExperience
$L205870:

; 186  : 			break;
; 187  : #endif	// __COUPLE_1202
; 188  : 		default:
; 189  : 			break;
; 190  : 	}
; 191  : }

  000c4	8d 4c 24 08	 lea	 ecx, DWORD PTR _ar$[esp+16428]
  000c8	c7 84 24 28 40
	00 00 ff ff ff
	ff		 mov	 DWORD PTR __$EHRec$[esp+16436], -1
  000d3	e8 00 00 00 00	 call	 ??1CAr@@QAE@XZ		; CAr::~CAr
  000d8	8b 8c 24 20 40
	00 00		 mov	 ecx, DWORD PTR __$EHRec$[esp+16428]
  000df	5f		 pop	 edi
  000e0	64 89 0d 00 00
	00 00		 mov	 DWORD PTR fs:__except_list, ecx
  000e7	8b 8c 24 18 40
	00 00		 mov	 ecx, DWORD PTR __$ArrayPad$[esp+16424]
  000ee	5e		 pop	 esi
  000ef	33 cc		 xor	 ecx, esp
  000f1	e8 00 00 00 00	 call	 @__security_check_cookie@4
  000f6	81 c4 24 40 00
	00		 add	 esp, 16420		; 00004024H
  000fc	c2 08 00	 ret	 8
  000ff	90		 npad	 1
$L214283:
  00100	00 00 00 00	 DD	 $L205864
  00104	00 00 00 00	 DD	 $L205865
  00108	00 00 00 00	 DD	 $L205866
  0010c	00 00 00 00	 DD	 $L205867
  00110	00 00 00 00	 DD	 $L205868
  00114	00 00 00 00	 DD	 $L205869
_TEXT	ENDS
;	COMDAT text$x
text$x	SEGMENT
$L214270:
  00000	8d 8d dc bf ff
	ff		 lea	 ecx, DWORD PTR _ar$[ebp]
  00006	e9 00 00 00 00	 jmp	 ??1CAr@@QAE@XZ		; CAr::~CAr
__ehhandler$?Handler@CCoupleHelper@@QAEXPAUtagDB_OVERLAPPED_PLUS@@K@Z:
  0000b	b8 00 00 00 00	 mov	 eax, OFFSET FLAT:$T214277
  00010	e9 00 00 00 00	 jmp	 ___CxxFrameHandler
text$x	ENDS
?Handler@CCoupleHelper@@QAEXPAUtagDB_OVERLAPPED_PLUS@@K@Z ENDP ; CCoupleHelper::Handler
; Function compile flags: /Ogty
;	COMDAT ?Handler@CCoupleController@@UAEXPAUtagDB_OVERLAPPED_PLUS@@K@Z
_TEXT	SEGMENT
_pov$ = 8						; size = 4
_dwCompletionKey$ = 12					; size = 4
?Handler@CCoupleController@@UAEXPAUtagDB_OVERLAPPED_PLUS@@K@Z PROC NEAR ; CCoupleController::Handler, COMDAT
; _this$ = ecx

; 115  : 	m_pHelper->Handler( pov, dwCompletionKey );

  00000	8b 49 14	 mov	 ecx, DWORD PTR [ecx+20]
  00003	e9 00 00 00 00	 jmp	 ?Handler@CCoupleHelper@@QAEXPAUtagDB_OVERLAPPED_PLUS@@K@Z ; CCoupleHelper::Handler
?Handler@CCoupleController@@UAEXPAUtagDB_OVERLAPPED_PLUS@@K@Z ENDP ; CCoupleController::Handler
; Function compile flags: /Ogty
_TEXT	ENDS
;	COMDAT _$E2
text$yd	SEGMENT
_$E2	PROC NEAR					; COMDAT
  00000	b9 00 00 00 00	 mov	 ecx, OFFSET FLAT:?sCoupleHelper@?1??Instance@CCoupleHelper@@SAPAV2@XZ@4V2@A
  00005	e9 00 00 00 00	 jmp	 ??1CCoupleHelper@@UAE@XZ ; CCoupleHelper::~CCoupleHelper
_$E2	ENDP
text$yd	ENDS
END
